; Listing generated by Microsoft (R) Optimizing Compiler Version 17.00.51106.1 

	TITLE	C:\Users\Zhitao Li\Documents\Visual Studio 2012\Projects\Freefalcon\ACMI\src\AcmiTape.cpp
	.686P
	.XMM
	include listing.inc
	.model	flat

INCLUDELIB LIBCMT
INCLUDELIB OLDNAMES

PUBLIC	?numeric@?$_Locbase@H@std@@2HB			; std::_Locbase<int>::numeric
PUBLIC	?time@?$_Locbase@H@std@@2HB			; std::_Locbase<int>::time
PUBLIC	?messages@?$_Locbase@H@std@@2HB			; std::_Locbase<int>::messages
PUBLIC	?all@?$_Locbase@H@std@@2HB			; std::_Locbase<int>::all
PUBLIC	?is_signed@?$numeric_limits@F@std@@2_NB		; std::numeric_limits<short>::is_signed
PUBLIC	?none@?$_Locbase@H@std@@2HB			; std::_Locbase<int>::none
PUBLIC	?digits@?$numeric_limits@F@std@@2HB		; std::numeric_limits<short>::digits
PUBLIC	?digits10@?$numeric_limits@F@std@@2HB		; std::numeric_limits<short>::digits10
PUBLIC	?is_signed@?$numeric_limits@G@std@@2_NB		; std::numeric_limits<unsigned short>::is_signed
PUBLIC	?digits@?$numeric_limits@G@std@@2HB		; std::numeric_limits<unsigned short>::digits
PUBLIC	?digits10@?$numeric_limits@G@std@@2HB		; std::numeric_limits<unsigned short>::digits10
PUBLIC	?is_signed@?$numeric_limits@H@std@@2_NB		; std::numeric_limits<int>::is_signed
PUBLIC	?value@?$_Sizeof@HU_Nil@std@@U12@U12@U12@U12@U12@U12@@std@@2IB ; std::_Sizeof<int,std::_Nil,std::_Nil,std::_Nil,std::_Nil,std::_Nil,std::_Nil,std::_Nil>::value
PUBLIC	?digits@?$numeric_limits@H@std@@2HB		; std::numeric_limits<int>::digits
PUBLIC	?digits10@?$numeric_limits@H@std@@2HB		; std::numeric_limits<int>::digits10
PUBLIC	?table_size@?$ctype@D@std@@2IB			; std::ctype<char>::table_size
PUBLIC	?is_signed@?$numeric_limits@I@std@@2_NB		; std::numeric_limits<unsigned int>::is_signed
PUBLIC	?digits@?$numeric_limits@I@std@@2HB		; std::numeric_limits<unsigned int>::digits
PUBLIC	?digits10@?$numeric_limits@I@std@@2HB		; std::numeric_limits<unsigned int>::digits10
PUBLIC	?SIMDIRTYDATA_INTERVAL@FalconEntity@@2KB	; FalconEntity::SIMDIRTYDATA_INTERVAL
PUBLIC	?CMPDIRTYDATA_INTERVAL@FalconEntity@@2KB	; FalconEntity::CMPDIRTYDATA_INTERVAL
PUBLIC	?is_signed@?$numeric_limits@J@std@@2_NB		; std::numeric_limits<long>::is_signed
PUBLIC	?digits@?$numeric_limits@J@std@@2HB		; std::numeric_limits<long>::digits
PUBLIC	?digits10@?$numeric_limits@J@std@@2HB		; std::numeric_limits<long>::digits10
PUBLIC	?is_signed@?$numeric_limits@K@std@@2_NB		; std::numeric_limits<unsigned long>::is_signed
PUBLIC	?digits@?$numeric_limits@K@std@@2HB		; std::numeric_limits<unsigned long>::digits
PUBLIC	?digits10@?$numeric_limits@K@std@@2HB		; std::numeric_limits<unsigned long>::digits10
PUBLIC	?is_signed@?$numeric_limits@_J@std@@2_NB	; std::numeric_limits<__int64>::is_signed
PUBLIC	?digits@?$numeric_limits@_J@std@@2HB		; std::numeric_limits<__int64>::digits
PUBLIC	?digits10@?$numeric_limits@_J@std@@2HB		; std::numeric_limits<__int64>::digits10
PUBLIC	?is_signed@?$numeric_limits@_K@std@@2_NB	; std::numeric_limits<unsigned __int64>::is_signed
PUBLIC	?digits@?$numeric_limits@_K@std@@2HB		; std::numeric_limits<unsigned __int64>::digits
PUBLIC	?digits10@?$numeric_limits@_K@std@@2HB		; std::numeric_limits<unsigned __int64>::digits10
PUBLIC	?digits@?$numeric_limits@M@std@@2HB		; std::numeric_limits<float>::digits
PUBLIC	?digits10@?$numeric_limits@M@std@@2HB		; std::numeric_limits<float>::digits10
PUBLIC	?max_digits10@?$numeric_limits@M@std@@2HB	; std::numeric_limits<float>::max_digits10
PUBLIC	?max_exponent@?$numeric_limits@M@std@@2HB	; std::numeric_limits<float>::max_exponent
PUBLIC	?max_exponent10@?$numeric_limits@M@std@@2HB	; std::numeric_limits<float>::max_exponent10
PUBLIC	?min_exponent@?$numeric_limits@M@std@@2HB	; std::numeric_limits<float>::min_exponent
PUBLIC	?min_exponent10@?$numeric_limits@M@std@@2HB	; std::numeric_limits<float>::min_exponent10
PUBLIC	?value@?$integral_constant@I$0A@@std@@2IB	; std::integral_constant<unsigned int,0>::value
PUBLIC	?digits@?$numeric_limits@N@std@@2HB		; std::numeric_limits<double>::digits
PUBLIC	?digits10@?$numeric_limits@N@std@@2HB		; std::numeric_limits<double>::digits10
PUBLIC	?max_digits10@?$numeric_limits@N@std@@2HB	; std::numeric_limits<double>::max_digits10
PUBLIC	?max_exponent@?$numeric_limits@N@std@@2HB	; std::numeric_limits<double>::max_exponent
PUBLIC	?max_exponent10@?$numeric_limits@N@std@@2HB	; std::numeric_limits<double>::max_exponent10
PUBLIC	?min_exponent@?$numeric_limits@N@std@@2HB	; std::numeric_limits<double>::min_exponent
PUBLIC	?min_exponent10@?$numeric_limits@N@std@@2HB	; std::numeric_limits<double>::min_exponent10
PUBLIC	?digits@?$numeric_limits@O@std@@2HB		; std::numeric_limits<long double>::digits
PUBLIC	?digits10@?$numeric_limits@O@std@@2HB		; std::numeric_limits<long double>::digits10
PUBLIC	?max_digits10@?$numeric_limits@O@std@@2HB	; std::numeric_limits<long double>::max_digits10
PUBLIC	?max_exponent@?$numeric_limits@O@std@@2HB	; std::numeric_limits<long double>::max_exponent
PUBLIC	?max_exponent10@?$numeric_limits@O@std@@2HB	; std::numeric_limits<long double>::max_exponent10
PUBLIC	?min_exponent@?$numeric_limits@O@std@@2HB	; std::numeric_limits<long double>::min_exponent
PUBLIC	?min_exponent10@?$numeric_limits@O@std@@2HB	; std::numeric_limits<long double>::min_exponent10
PUBLIC	?value@?$_Sizeof@U_Nil@std@@U12@U12@U12@U12@U12@U12@U12@@std@@2IB ; std::_Sizeof<std::_Nil,std::_Nil,std::_Nil,std::_Nil,std::_Nil,std::_Nil,std::_Nil,std::_Nil>::value
PUBLIC	?skipws@?$_Iosb@H@std@@2W4_Fmtflags@12@B	; std::_Iosb<int>::skipws
PUBLIC	?unitbuf@?$_Iosb@H@std@@2W4_Fmtflags@12@B	; std::_Iosb<int>::unitbuf
PUBLIC	?uppercase@?$_Iosb@H@std@@2W4_Fmtflags@12@B	; std::_Iosb<int>::uppercase
PUBLIC	?showbase@?$_Iosb@H@std@@2W4_Fmtflags@12@B	; std::_Iosb<int>::showbase
PUBLIC	?showpoint@?$_Iosb@H@std@@2W4_Fmtflags@12@B	; std::_Iosb<int>::showpoint
PUBLIC	?showpos@?$_Iosb@H@std@@2W4_Fmtflags@12@B	; std::_Iosb<int>::showpos
PUBLIC	?left@?$_Iosb@H@std@@2W4_Fmtflags@12@B		; std::_Iosb<int>::left
PUBLIC	?right@?$_Iosb@H@std@@2W4_Fmtflags@12@B		; std::_Iosb<int>::right
PUBLIC	?internal@?$_Iosb@H@std@@2W4_Fmtflags@12@B	; std::_Iosb<int>::internal
PUBLIC	?dec@?$_Iosb@H@std@@2W4_Fmtflags@12@B		; std::_Iosb<int>::dec
PUBLIC	?oct@?$_Iosb@H@std@@2W4_Fmtflags@12@B		; std::_Iosb<int>::oct
PUBLIC	?hex@?$_Iosb@H@std@@2W4_Fmtflags@12@B		; std::_Iosb<int>::hex
PUBLIC	?scientific@?$_Iosb@H@std@@2W4_Fmtflags@12@B	; std::_Iosb<int>::scientific
PUBLIC	?fixed@?$_Iosb@H@std@@2W4_Fmtflags@12@B		; std::_Iosb<int>::fixed
PUBLIC	?hexfloat@?$_Iosb@H@std@@2W4_Fmtflags@12@B	; std::_Iosb<int>::hexfloat
PUBLIC	?boolalpha@?$_Iosb@H@std@@2W4_Fmtflags@12@B	; std::_Iosb<int>::boolalpha
PUBLIC	?tempTarget@@3JA				; tempTarget
PUBLIC	?_Stdio@?$_Iosb@H@std@@2W4_Fmtflags@12@B	; std::_Iosb<int>::_Stdio
PUBLIC	?adjustfield@?$_Iosb@H@std@@2W4_Fmtflags@12@B	; std::_Iosb<int>::adjustfield
PUBLIC	?importEntityList@@3PAULIST@@A			; importEntityList
PUBLIC	?basefield@?$_Iosb@H@std@@2W4_Fmtflags@12@B	; std::_Iosb<int>::basefield
PUBLIC	?importFeatList@@3PAULIST@@A			; importFeatList
PUBLIC	?importPosList@@3PAULIST@@A			; importPosList
PUBLIC	?importEventList@@3PAULIST@@A			; importEventList
PUBLIC	?floatfield@?$_Iosb@H@std@@2W4_Fmtflags@12@B	; std::_Iosb<int>::floatfield
PUBLIC	?importEntEventList@@3PAULIST@@A		; importEntEventList
PUBLIC	?importEntityListEnd@@3PAULIST@@A		; importEntityListEnd
PUBLIC	?importFeatListEnd@@3PAULIST@@A			; importFeatListEnd
PUBLIC	?importPosListEnd@@3PAULIST@@A			; importPosListEnd
PUBLIC	?importEventListEnd@@3PAULIST@@A		; importEventListEnd
PUBLIC	?importEntEventListEnd@@3PAULIST@@A		; importEntEventListEnd
PUBLIC	?goodbit@?$_Iosb@H@std@@2W4_Iostate@12@B	; std::_Iosb<int>::goodbit
PUBLIC	?importFeatEventList@@3PAULIST@@A		; importFeatEventList
PUBLIC	?importFeatEventListEnd@@3PAULIST@@A		; importFeatEventListEnd
PUBLIC	?eofbit@?$_Iosb@H@std@@2W4_Iostate@12@B		; std::_Iosb<int>::eofbit
PUBLIC	?importNumPos@@3HA				; importNumPos
PUBLIC	?importNumEnt@@3HA				; importNumEnt
PUBLIC	?importNumFeat@@3HA				; importNumFeat
PUBLIC	?failbit@?$_Iosb@H@std@@2W4_Iostate@12@B	; std::_Iosb<int>::failbit
PUBLIC	?importNumFeatEvents@@3HA			; importNumFeatEvents
PUBLIC	?importNumEvents@@3HA				; importNumEvents
PUBLIC	?has_denorm@_Num_base@std@@2W4float_denorm_style@2@B ; std::_Num_base::has_denorm
PUBLIC	?importNumEntEvents@@3HA			; importNumEntEvents
PUBLIC	?badbit@?$_Iosb@H@std@@2W4_Iostate@12@B		; std::_Iosb<int>::badbit
PUBLIC	?importEntOffset@@3HA				; importEntOffset
PUBLIC	?importFeatOffset@@3HA				; importFeatOffset
PUBLIC	?has_denorm_loss@_Num_base@std@@2_NB		; std::_Num_base::has_denorm_loss
PUBLIC	?importFeatEventOffset@@3HA			; importFeatEventOffset
PUBLIC	?_Hardfail@?$_Iosb@H@std@@2W4_Iostate@12@B	; std::_Iosb<int>::_Hardfail
PUBLIC	?ACMI_Callsigns@@3PAUACMI_CallRec@@A		; ACMI_Callsigns
PUBLIC	?importPosOffset@@3HA				; importPosOffset
PUBLIC	?importEventOffset@@3HA				; importEventOffset
PUBLIC	?has_infinity@_Num_base@std@@2_NB		; std::_Num_base::has_infinity
PUBLIC	?importEntEventOffset@@3HA			; importEntEventOffset
PUBLIC	?importEventTrailerList@@3PAUACMIEventTrailer@@A ; importEventTrailerList
PUBLIC	?has_quiet_NaN@_Num_base@std@@2_NB		; std::_Num_base::has_quiet_NaN
PUBLIC	?in@?$_Iosb@H@std@@2W4_Openmode@12@B		; std::_Iosb<int>::in
PUBLIC	?out@?$_Iosb@H@std@@2W4_Openmode@12@B		; std::_Iosb<int>::out
PUBLIC	?has_signaling_NaN@_Num_base@std@@2_NB		; std::_Num_base::has_signaling_NaN
PUBLIC	?ate@?$_Iosb@H@std@@2W4_Openmode@12@B		; std::_Iosb<int>::ate
PUBLIC	?is_bounded@_Num_base@std@@2_NB			; std::_Num_base::is_bounded
PUBLIC	?is_exact@_Num_base@std@@2_NB			; std::_Num_base::is_exact
PUBLIC	?app@?$_Iosb@H@std@@2W4_Openmode@12@B		; std::_Iosb<int>::app
PUBLIC	?Import_Callsigns@@3PAUACMI_CallRec@@A		; Import_Callsigns
PUBLIC	?import_count@@3JA				; import_count
PUBLIC	?is_iec559@_Num_base@std@@2_NB			; std::_Num_base::is_iec559
PUBLIC	?trunc@?$_Iosb@H@std@@2W4_Openmode@12@B		; std::_Iosb<int>::trunc
PUBLIC	?_Nocreate@?$_Iosb@H@std@@2W4_Openmode@12@B	; std::_Iosb<int>::_Nocreate
PUBLIC	?is_integer@_Num_base@std@@2_NB			; std::_Num_base::is_integer
PUBLIC	?_Noreplace@?$_Iosb@H@std@@2W4_Openmode@12@B	; std::_Iosb<int>::_Noreplace
PUBLIC	?is_modulo@_Num_base@std@@2_NB			; std::_Num_base::is_modulo
PUBLIC	?is_signed@_Num_base@std@@2_NB			; std::_Num_base::is_signed
PUBLIC	?binary@?$_Iosb@H@std@@2W4_Openmode@12@B	; std::_Iosb<int>::binary
PUBLIC	?is_specialized@_Num_base@std@@2_NB		; std::_Num_base::is_specialized
PUBLIC	?beg@?$_Iosb@H@std@@2W4_Seekdir@12@B		; std::_Iosb<int>::beg
PUBLIC	?tinyness_before@_Num_base@std@@2_NB		; std::_Num_base::tinyness_before
PUBLIC	?cur@?$_Iosb@H@std@@2W4_Seekdir@12@B		; std::_Iosb<int>::cur
PUBLIC	?traps@_Num_base@std@@2_NB			; std::_Num_base::traps
PUBLIC	?end@?$_Iosb@H@std@@2W4_Seekdir@12@B		; std::_Iosb<int>::end
PUBLIC	?round_style@_Num_base@std@@2W4float_round_style@2@B ; std::_Num_base::round_style
PUBLIC	?digits@_Num_base@std@@2HB			; std::_Num_base::digits
PUBLIC	?digits10@_Num_base@std@@2HB			; std::_Num_base::digits10
PUBLIC	?max_digits10@_Num_base@std@@2HB		; std::_Num_base::max_digits10
PUBLIC	?max_exponent@_Num_base@std@@2HB		; std::_Num_base::max_exponent
PUBLIC	?max_exponent10@_Num_base@std@@2HB		; std::_Num_base::max_exponent10
PUBLIC	?min_exponent@_Num_base@std@@2HB		; std::_Num_base::min_exponent
PUBLIC	?min_exponent10@_Num_base@std@@2HB		; std::_Num_base::min_exponent10
PUBLIC	?radix@_Num_base@std@@2HB			; std::_Num_base::radix
PUBLIC	?_Stream_err@failure@ios_base@std@@0W4io_errc@43@B ; std::ios_base::failure::_Stream_err
PUBLIC	?is_bounded@_Num_int_base@std@@2_NB		; std::_Num_int_base::is_bounded
PUBLIC	?is_exact@_Num_int_base@std@@2_NB		; std::_Num_int_base::is_exact
PUBLIC	?is_integer@_Num_int_base@std@@2_NB		; std::_Num_int_base::is_integer
PUBLIC	?is_modulo@_Num_int_base@std@@2_NB		; std::_Num_int_base::is_modulo
PUBLIC	?is_specialized@_Num_int_base@std@@2_NB		; std::_Num_int_base::is_specialized
PUBLIC	?radix@_Num_int_base@std@@2HB			; std::_Num_int_base::radix
PUBLIC	?has_denorm@_Num_float_base@std@@2W4float_denorm_style@2@B ; std::_Num_float_base::has_denorm
PUBLIC	?has_denorm_loss@_Num_float_base@std@@2_NB	; std::_Num_float_base::has_denorm_loss
PUBLIC	?has_infinity@_Num_float_base@std@@2_NB		; std::_Num_float_base::has_infinity
PUBLIC	?has_quiet_NaN@_Num_float_base@std@@2_NB	; std::_Num_float_base::has_quiet_NaN
PUBLIC	?has_signaling_NaN@_Num_float_base@std@@2_NB	; std::_Num_float_base::has_signaling_NaN
PUBLIC	?is_bounded@_Num_float_base@std@@2_NB		; std::_Num_float_base::is_bounded
PUBLIC	?is_exact@_Num_float_base@std@@2_NB		; std::_Num_float_base::is_exact
PUBLIC	?is_iec559@_Num_float_base@std@@2_NB		; std::_Num_float_base::is_iec559
PUBLIC	?is_integer@_Num_float_base@std@@2_NB		; std::_Num_float_base::is_integer
PUBLIC	?is_modulo@_Num_float_base@std@@2_NB		; std::_Num_float_base::is_modulo
PUBLIC	?is_signed@_Num_float_base@std@@2_NB		; std::_Num_float_base::is_signed
PUBLIC	?is_specialized@_Num_float_base@std@@2_NB	; std::_Num_float_base::is_specialized
PUBLIC	?tinyness_before@_Num_float_base@std@@2_NB	; std::_Num_float_base::tinyness_before
PUBLIC	?traps@_Num_float_base@std@@2_NB		; std::_Num_float_base::traps
PUBLIC	?round_style@_Num_float_base@std@@2W4float_round_style@2@B ; std::_Num_float_base::round_style
PUBLIC	?radix@_Num_float_base@std@@2HB			; std::_Num_float_base::radix
PUBLIC	?is_signed@?$numeric_limits@D@std@@2_NB		; std::numeric_limits<char>::is_signed
PUBLIC	?digits@?$numeric_limits@D@std@@2HB		; std::numeric_limits<char>::digits
PUBLIC	?digits10@?$numeric_limits@D@std@@2HB		; std::numeric_limits<char>::digits10
PUBLIC	?is_signed@?$numeric_limits@_W@std@@2_NB	; std::numeric_limits<wchar_t>::is_signed
PUBLIC	?digits@?$numeric_limits@_W@std@@2HB		; std::numeric_limits<wchar_t>::digits
PUBLIC	?digits10@?$numeric_limits@_W@std@@2HB		; std::numeric_limits<wchar_t>::digits10
PUBLIC	?is_modulo@?$numeric_limits@_N@std@@2_NB	; std::numeric_limits<bool>::is_modulo
PUBLIC	?is_signed@?$numeric_limits@_N@std@@2_NB	; std::numeric_limits<bool>::is_signed
PUBLIC	?digits@?$numeric_limits@_N@std@@2HB		; std::numeric_limits<bool>::digits
PUBLIC	?digits10@?$numeric_limits@_N@std@@2HB		; std::numeric_limits<bool>::digits10
PUBLIC	?is_signed@?$numeric_limits@C@std@@2_NB		; std::numeric_limits<signed char>::is_signed
PUBLIC	?value@?$integral_constant@_N$0A@@std@@2_NB	; std::integral_constant<bool,0>::value
PUBLIC	?digits@?$numeric_limits@C@std@@2HB		; std::numeric_limits<signed char>::digits
PUBLIC	?digits10@?$numeric_limits@C@std@@2HB		; std::numeric_limits<signed char>::digits10
PUBLIC	?value@?$integral_constant@_N$00@std@@2_NB	; std::integral_constant<bool,1>::value
PUBLIC	?is_signed@?$numeric_limits@E@std@@2_NB		; std::numeric_limits<unsigned char>::is_signed
PUBLIC	?digits@?$numeric_limits@E@std@@2HB		; std::numeric_limits<unsigned char>::digits
PUBLIC	?digits10@?$numeric_limits@E@std@@2HB		; std::numeric_limits<unsigned char>::digits10
PUBLIC	?collate@?$_Locbase@H@std@@2HB			; std::_Locbase<int>::collate
PUBLIC	?ctype@?$_Locbase@H@std@@2HB			; std::_Locbase<int>::ctype
PUBLIC	?monetary@?$_Locbase@H@std@@2HB			; std::_Locbase<int>::monetary
_BSS	SEGMENT
?tempTarget@@3JA DD 01H DUP (?)				; tempTarget
?importEntityList@@3PAULIST@@A DD 01H DUP (?)		; importEntityList
?importFeatList@@3PAULIST@@A DD 01H DUP (?)		; importFeatList
?importPosList@@3PAULIST@@A DD 01H DUP (?)		; importPosList
?importEventList@@3PAULIST@@A DD 01H DUP (?)		; importEventList
?importEntEventList@@3PAULIST@@A DD 01H DUP (?)		; importEntEventList
?importEntityListEnd@@3PAULIST@@A DD 01H DUP (?)	; importEntityListEnd
?importFeatListEnd@@3PAULIST@@A DD 01H DUP (?)		; importFeatListEnd
?importPosListEnd@@3PAULIST@@A DD 01H DUP (?)		; importPosListEnd
?importEventListEnd@@3PAULIST@@A DD 01H DUP (?)		; importEventListEnd
?importEntEventListEnd@@3PAULIST@@A DD 01H DUP (?)	; importEntEventListEnd
?importFeatEventList@@3PAULIST@@A DD 01H DUP (?)	; importFeatEventList
?importFeatEventListEnd@@3PAULIST@@A DD 01H DUP (?)	; importFeatEventListEnd
?importNumPos@@3HA DD 01H DUP (?)			; importNumPos
?importNumEnt@@3HA DD 01H DUP (?)			; importNumEnt
?importNumFeat@@3HA DD 01H DUP (?)			; importNumFeat
?importNumFeatEvents@@3HA DD 01H DUP (?)		; importNumFeatEvents
?importNumEvents@@3HA DD 01H DUP (?)			; importNumEvents
?importNumEntEvents@@3HA DD 01H DUP (?)			; importNumEntEvents
?importEntOffset@@3HA DD 01H DUP (?)			; importEntOffset
?importFeatOffset@@3HA DD 01H DUP (?)			; importFeatOffset
?importFeatEventOffset@@3HA DD 01H DUP (?)		; importFeatEventOffset
?ACMI_Callsigns@@3PAUACMI_CallRec@@A DD 01H DUP (?)	; ACMI_Callsigns
?importPosOffset@@3HA DD 01H DUP (?)			; importPosOffset
?importEventOffset@@3HA DD 01H DUP (?)			; importEventOffset
?importEntEventOffset@@3HA DD 01H DUP (?)		; importEntEventOffset
?importEventTrailerList@@3PAUACMIEventTrailer@@A DD 01H DUP (?) ; importEventTrailerList
?Import_Callsigns@@3PAUACMI_CallRec@@A DD 01H DUP (?)	; Import_Callsigns
?import_count@@3JA DD 01H DUP (?)			; import_count
_BSS	ENDS
;	COMDAT ?monetary@?$_Locbase@H@std@@2HB
CONST	SEGMENT
?monetary@?$_Locbase@H@std@@2HB DD 04H			; std::_Locbase<int>::monetary
CONST	ENDS
;	COMDAT ?ctype@?$_Locbase@H@std@@2HB
CONST	SEGMENT
?ctype@?$_Locbase@H@std@@2HB DD 02H			; std::_Locbase<int>::ctype
CONST	ENDS
;	COMDAT ?collate@?$_Locbase@H@std@@2HB
CONST	SEGMENT
?collate@?$_Locbase@H@std@@2HB DD 01H			; std::_Locbase<int>::collate
CONST	ENDS
;	COMDAT ?digits10@?$numeric_limits@E@std@@2HB
CONST	SEGMENT
?digits10@?$numeric_limits@E@std@@2HB DD 02H		; std::numeric_limits<unsigned char>::digits10
CONST	ENDS
;	COMDAT ?digits@?$numeric_limits@E@std@@2HB
CONST	SEGMENT
?digits@?$numeric_limits@E@std@@2HB DD 08H		; std::numeric_limits<unsigned char>::digits
CONST	ENDS
;	COMDAT ?is_signed@?$numeric_limits@E@std@@2_NB
CONST	SEGMENT
?is_signed@?$numeric_limits@E@std@@2_NB DB 00H		; std::numeric_limits<unsigned char>::is_signed
CONST	ENDS
;	COMDAT ?value@?$integral_constant@_N$00@std@@2_NB
CONST	SEGMENT
?value@?$integral_constant@_N$00@std@@2_NB DB 01H	; std::integral_constant<bool,1>::value
CONST	ENDS
;	COMDAT ?digits10@?$numeric_limits@C@std@@2HB
CONST	SEGMENT
?digits10@?$numeric_limits@C@std@@2HB DD 02H		; std::numeric_limits<signed char>::digits10
CONST	ENDS
;	COMDAT ?digits@?$numeric_limits@C@std@@2HB
CONST	SEGMENT
?digits@?$numeric_limits@C@std@@2HB DD 07H		; std::numeric_limits<signed char>::digits
CONST	ENDS
;	COMDAT ?value@?$integral_constant@_N$0A@@std@@2_NB
CONST	SEGMENT
?value@?$integral_constant@_N$0A@@std@@2_NB DB 00H	; std::integral_constant<bool,0>::value
CONST	ENDS
;	COMDAT ?is_signed@?$numeric_limits@C@std@@2_NB
CONST	SEGMENT
?is_signed@?$numeric_limits@C@std@@2_NB DB 01H		; std::numeric_limits<signed char>::is_signed
CONST	ENDS
;	COMDAT ?digits10@?$numeric_limits@_N@std@@2HB
CONST	SEGMENT
?digits10@?$numeric_limits@_N@std@@2HB DD 00H		; std::numeric_limits<bool>::digits10
CONST	ENDS
;	COMDAT ?digits@?$numeric_limits@_N@std@@2HB
CONST	SEGMENT
?digits@?$numeric_limits@_N@std@@2HB DD 01H		; std::numeric_limits<bool>::digits
CONST	ENDS
;	COMDAT ?is_signed@?$numeric_limits@_N@std@@2_NB
CONST	SEGMENT
?is_signed@?$numeric_limits@_N@std@@2_NB DB 00H		; std::numeric_limits<bool>::is_signed
CONST	ENDS
;	COMDAT ?is_modulo@?$numeric_limits@_N@std@@2_NB
CONST	SEGMENT
?is_modulo@?$numeric_limits@_N@std@@2_NB DB 00H		; std::numeric_limits<bool>::is_modulo
CONST	ENDS
;	COMDAT ?digits10@?$numeric_limits@_W@std@@2HB
CONST	SEGMENT
?digits10@?$numeric_limits@_W@std@@2HB DD 04H		; std::numeric_limits<wchar_t>::digits10
CONST	ENDS
;	COMDAT ?digits@?$numeric_limits@_W@std@@2HB
CONST	SEGMENT
?digits@?$numeric_limits@_W@std@@2HB DD 010H		; std::numeric_limits<wchar_t>::digits
CONST	ENDS
;	COMDAT ?is_signed@?$numeric_limits@_W@std@@2_NB
CONST	SEGMENT
?is_signed@?$numeric_limits@_W@std@@2_NB DB 00H		; std::numeric_limits<wchar_t>::is_signed
CONST	ENDS
;	COMDAT ?digits10@?$numeric_limits@D@std@@2HB
CONST	SEGMENT
?digits10@?$numeric_limits@D@std@@2HB DD 02H		; std::numeric_limits<char>::digits10
CONST	ENDS
;	COMDAT ?digits@?$numeric_limits@D@std@@2HB
CONST	SEGMENT
?digits@?$numeric_limits@D@std@@2HB DD 07H		; std::numeric_limits<char>::digits
CONST	ENDS
;	COMDAT ?is_signed@?$numeric_limits@D@std@@2_NB
CONST	SEGMENT
?is_signed@?$numeric_limits@D@std@@2_NB DB 01H		; std::numeric_limits<char>::is_signed
CONST	ENDS
;	COMDAT ?radix@_Num_float_base@std@@2HB
CONST	SEGMENT
?radix@_Num_float_base@std@@2HB DD 02H			; std::_Num_float_base::radix
CONST	ENDS
;	COMDAT ?round_style@_Num_float_base@std@@2W4float_round_style@2@B
CONST	SEGMENT
?round_style@_Num_float_base@std@@2W4float_round_style@2@B DD 01H ; std::_Num_float_base::round_style
CONST	ENDS
;	COMDAT ?traps@_Num_float_base@std@@2_NB
CONST	SEGMENT
?traps@_Num_float_base@std@@2_NB DB 00H			; std::_Num_float_base::traps
CONST	ENDS
;	COMDAT ?tinyness_before@_Num_float_base@std@@2_NB
CONST	SEGMENT
?tinyness_before@_Num_float_base@std@@2_NB DB 01H	; std::_Num_float_base::tinyness_before
CONST	ENDS
;	COMDAT ?is_specialized@_Num_float_base@std@@2_NB
CONST	SEGMENT
?is_specialized@_Num_float_base@std@@2_NB DB 01H	; std::_Num_float_base::is_specialized
CONST	ENDS
;	COMDAT ?is_signed@_Num_float_base@std@@2_NB
CONST	SEGMENT
?is_signed@_Num_float_base@std@@2_NB DB 01H		; std::_Num_float_base::is_signed
CONST	ENDS
;	COMDAT ?is_modulo@_Num_float_base@std@@2_NB
CONST	SEGMENT
?is_modulo@_Num_float_base@std@@2_NB DB 00H		; std::_Num_float_base::is_modulo
CONST	ENDS
;	COMDAT ?is_integer@_Num_float_base@std@@2_NB
CONST	SEGMENT
?is_integer@_Num_float_base@std@@2_NB DB 00H		; std::_Num_float_base::is_integer
CONST	ENDS
;	COMDAT ?is_iec559@_Num_float_base@std@@2_NB
CONST	SEGMENT
?is_iec559@_Num_float_base@std@@2_NB DB 01H		; std::_Num_float_base::is_iec559
CONST	ENDS
;	COMDAT ?is_exact@_Num_float_base@std@@2_NB
CONST	SEGMENT
?is_exact@_Num_float_base@std@@2_NB DB 00H		; std::_Num_float_base::is_exact
CONST	ENDS
;	COMDAT ?is_bounded@_Num_float_base@std@@2_NB
CONST	SEGMENT
?is_bounded@_Num_float_base@std@@2_NB DB 01H		; std::_Num_float_base::is_bounded
CONST	ENDS
;	COMDAT ?has_signaling_NaN@_Num_float_base@std@@2_NB
CONST	SEGMENT
?has_signaling_NaN@_Num_float_base@std@@2_NB DB 01H	; std::_Num_float_base::has_signaling_NaN
CONST	ENDS
;	COMDAT ?has_quiet_NaN@_Num_float_base@std@@2_NB
CONST	SEGMENT
?has_quiet_NaN@_Num_float_base@std@@2_NB DB 01H		; std::_Num_float_base::has_quiet_NaN
CONST	ENDS
;	COMDAT ?has_infinity@_Num_float_base@std@@2_NB
CONST	SEGMENT
?has_infinity@_Num_float_base@std@@2_NB DB 01H		; std::_Num_float_base::has_infinity
CONST	ENDS
;	COMDAT ?has_denorm_loss@_Num_float_base@std@@2_NB
CONST	SEGMENT
?has_denorm_loss@_Num_float_base@std@@2_NB DB 01H	; std::_Num_float_base::has_denorm_loss
CONST	ENDS
;	COMDAT ?has_denorm@_Num_float_base@std@@2W4float_denorm_style@2@B
CONST	SEGMENT
?has_denorm@_Num_float_base@std@@2W4float_denorm_style@2@B DD 01H ; std::_Num_float_base::has_denorm
CONST	ENDS
;	COMDAT ?radix@_Num_int_base@std@@2HB
CONST	SEGMENT
?radix@_Num_int_base@std@@2HB DD 02H			; std::_Num_int_base::radix
CONST	ENDS
;	COMDAT ?is_specialized@_Num_int_base@std@@2_NB
CONST	SEGMENT
?is_specialized@_Num_int_base@std@@2_NB DB 01H		; std::_Num_int_base::is_specialized
CONST	ENDS
;	COMDAT ?is_modulo@_Num_int_base@std@@2_NB
CONST	SEGMENT
?is_modulo@_Num_int_base@std@@2_NB DB 01H		; std::_Num_int_base::is_modulo
CONST	ENDS
;	COMDAT ?is_integer@_Num_int_base@std@@2_NB
CONST	SEGMENT
?is_integer@_Num_int_base@std@@2_NB DB 01H		; std::_Num_int_base::is_integer
CONST	ENDS
;	COMDAT ?is_exact@_Num_int_base@std@@2_NB
CONST	SEGMENT
?is_exact@_Num_int_base@std@@2_NB DB 01H		; std::_Num_int_base::is_exact
CONST	ENDS
;	COMDAT ?is_bounded@_Num_int_base@std@@2_NB
CONST	SEGMENT
?is_bounded@_Num_int_base@std@@2_NB DB 01H		; std::_Num_int_base::is_bounded
CONST	ENDS
;	COMDAT ?_Stream_err@failure@ios_base@std@@0W4io_errc@43@B
CONST	SEGMENT
?_Stream_err@failure@ios_base@std@@0W4io_errc@43@B DD 01H ; std::ios_base::failure::_Stream_err
CONST	ENDS
;	COMDAT ?radix@_Num_base@std@@2HB
CONST	SEGMENT
?radix@_Num_base@std@@2HB DD 00H			; std::_Num_base::radix
CONST	ENDS
;	COMDAT ?min_exponent10@_Num_base@std@@2HB
CONST	SEGMENT
?min_exponent10@_Num_base@std@@2HB DD 00H		; std::_Num_base::min_exponent10
CONST	ENDS
;	COMDAT ?min_exponent@_Num_base@std@@2HB
CONST	SEGMENT
?min_exponent@_Num_base@std@@2HB DD 00H			; std::_Num_base::min_exponent
CONST	ENDS
;	COMDAT ?max_exponent10@_Num_base@std@@2HB
CONST	SEGMENT
?max_exponent10@_Num_base@std@@2HB DD 00H		; std::_Num_base::max_exponent10
CONST	ENDS
;	COMDAT ?max_exponent@_Num_base@std@@2HB
CONST	SEGMENT
?max_exponent@_Num_base@std@@2HB DD 00H			; std::_Num_base::max_exponent
CONST	ENDS
;	COMDAT ?max_digits10@_Num_base@std@@2HB
CONST	SEGMENT
?max_digits10@_Num_base@std@@2HB DD 00H			; std::_Num_base::max_digits10
CONST	ENDS
;	COMDAT ?digits10@_Num_base@std@@2HB
CONST	SEGMENT
?digits10@_Num_base@std@@2HB DD 00H			; std::_Num_base::digits10
CONST	ENDS
;	COMDAT ?digits@_Num_base@std@@2HB
CONST	SEGMENT
?digits@_Num_base@std@@2HB DD 00H			; std::_Num_base::digits
CONST	ENDS
;	COMDAT ?round_style@_Num_base@std@@2W4float_round_style@2@B
CONST	SEGMENT
?round_style@_Num_base@std@@2W4float_round_style@2@B DD 00H ; std::_Num_base::round_style
CONST	ENDS
;	COMDAT ?end@?$_Iosb@H@std@@2W4_Seekdir@12@B
CONST	SEGMENT
?end@?$_Iosb@H@std@@2W4_Seekdir@12@B DD 02H		; std::_Iosb<int>::end
CONST	ENDS
;	COMDAT ?traps@_Num_base@std@@2_NB
CONST	SEGMENT
?traps@_Num_base@std@@2_NB DB 00H			; std::_Num_base::traps
CONST	ENDS
;	COMDAT ?cur@?$_Iosb@H@std@@2W4_Seekdir@12@B
CONST	SEGMENT
?cur@?$_Iosb@H@std@@2W4_Seekdir@12@B DD 01H		; std::_Iosb<int>::cur
CONST	ENDS
;	COMDAT ?tinyness_before@_Num_base@std@@2_NB
CONST	SEGMENT
?tinyness_before@_Num_base@std@@2_NB DB 00H		; std::_Num_base::tinyness_before
CONST	ENDS
;	COMDAT ?beg@?$_Iosb@H@std@@2W4_Seekdir@12@B
CONST	SEGMENT
?beg@?$_Iosb@H@std@@2W4_Seekdir@12@B DD 00H		; std::_Iosb<int>::beg
CONST	ENDS
;	COMDAT ?is_specialized@_Num_base@std@@2_NB
CONST	SEGMENT
?is_specialized@_Num_base@std@@2_NB DB 00H		; std::_Num_base::is_specialized
CONST	ENDS
;	COMDAT ?binary@?$_Iosb@H@std@@2W4_Openmode@12@B
CONST	SEGMENT
?binary@?$_Iosb@H@std@@2W4_Openmode@12@B DD 020H	; std::_Iosb<int>::binary
CONST	ENDS
;	COMDAT ?is_signed@_Num_base@std@@2_NB
CONST	SEGMENT
?is_signed@_Num_base@std@@2_NB DB 00H			; std::_Num_base::is_signed
CONST	ENDS
;	COMDAT ?is_modulo@_Num_base@std@@2_NB
CONST	SEGMENT
?is_modulo@_Num_base@std@@2_NB DB 00H			; std::_Num_base::is_modulo
CONST	ENDS
;	COMDAT ?_Noreplace@?$_Iosb@H@std@@2W4_Openmode@12@B
CONST	SEGMENT
?_Noreplace@?$_Iosb@H@std@@2W4_Openmode@12@B DD 080H	; std::_Iosb<int>::_Noreplace
CONST	ENDS
;	COMDAT ?is_integer@_Num_base@std@@2_NB
CONST	SEGMENT
?is_integer@_Num_base@std@@2_NB DB 00H			; std::_Num_base::is_integer
CONST	ENDS
;	COMDAT ?_Nocreate@?$_Iosb@H@std@@2W4_Openmode@12@B
CONST	SEGMENT
?_Nocreate@?$_Iosb@H@std@@2W4_Openmode@12@B DD 040H	; std::_Iosb<int>::_Nocreate
CONST	ENDS
;	COMDAT ?trunc@?$_Iosb@H@std@@2W4_Openmode@12@B
CONST	SEGMENT
?trunc@?$_Iosb@H@std@@2W4_Openmode@12@B DD 010H		; std::_Iosb<int>::trunc
CONST	ENDS
;	COMDAT ?is_iec559@_Num_base@std@@2_NB
CONST	SEGMENT
?is_iec559@_Num_base@std@@2_NB DB 00H			; std::_Num_base::is_iec559
CONST	ENDS
;	COMDAT ?app@?$_Iosb@H@std@@2W4_Openmode@12@B
CONST	SEGMENT
?app@?$_Iosb@H@std@@2W4_Openmode@12@B DD 08H		; std::_Iosb<int>::app
CONST	ENDS
;	COMDAT ?is_exact@_Num_base@std@@2_NB
CONST	SEGMENT
?is_exact@_Num_base@std@@2_NB DB 00H			; std::_Num_base::is_exact
CONST	ENDS
;	COMDAT ?is_bounded@_Num_base@std@@2_NB
CONST	SEGMENT
?is_bounded@_Num_base@std@@2_NB DB 00H			; std::_Num_base::is_bounded
CONST	ENDS
;	COMDAT ?ate@?$_Iosb@H@std@@2W4_Openmode@12@B
CONST	SEGMENT
?ate@?$_Iosb@H@std@@2W4_Openmode@12@B DD 04H		; std::_Iosb<int>::ate
CONST	ENDS
;	COMDAT ?has_signaling_NaN@_Num_base@std@@2_NB
CONST	SEGMENT
?has_signaling_NaN@_Num_base@std@@2_NB DB 00H		; std::_Num_base::has_signaling_NaN
CONST	ENDS
;	COMDAT ?out@?$_Iosb@H@std@@2W4_Openmode@12@B
CONST	SEGMENT
?out@?$_Iosb@H@std@@2W4_Openmode@12@B DD 02H		; std::_Iosb<int>::out
CONST	ENDS
;	COMDAT ?in@?$_Iosb@H@std@@2W4_Openmode@12@B
CONST	SEGMENT
?in@?$_Iosb@H@std@@2W4_Openmode@12@B DD 01H		; std::_Iosb<int>::in
CONST	ENDS
;	COMDAT ?has_quiet_NaN@_Num_base@std@@2_NB
CONST	SEGMENT
?has_quiet_NaN@_Num_base@std@@2_NB DB 00H		; std::_Num_base::has_quiet_NaN
CONST	ENDS
;	COMDAT ?has_infinity@_Num_base@std@@2_NB
CONST	SEGMENT
?has_infinity@_Num_base@std@@2_NB DB 00H		; std::_Num_base::has_infinity
CONST	ENDS
;	COMDAT ?_Hardfail@?$_Iosb@H@std@@2W4_Iostate@12@B
CONST	SEGMENT
?_Hardfail@?$_Iosb@H@std@@2W4_Iostate@12@B DD 010H	; std::_Iosb<int>::_Hardfail
CONST	ENDS
;	COMDAT ?has_denorm_loss@_Num_base@std@@2_NB
CONST	SEGMENT
?has_denorm_loss@_Num_base@std@@2_NB DB 00H		; std::_Num_base::has_denorm_loss
CONST	ENDS
;	COMDAT ?badbit@?$_Iosb@H@std@@2W4_Iostate@12@B
CONST	SEGMENT
?badbit@?$_Iosb@H@std@@2W4_Iostate@12@B DD 04H		; std::_Iosb<int>::badbit
CONST	ENDS
;	COMDAT ?has_denorm@_Num_base@std@@2W4float_denorm_style@2@B
CONST	SEGMENT
?has_denorm@_Num_base@std@@2W4float_denorm_style@2@B DD 00H ; std::_Num_base::has_denorm
CONST	ENDS
;	COMDAT ?failbit@?$_Iosb@H@std@@2W4_Iostate@12@B
CONST	SEGMENT
?failbit@?$_Iosb@H@std@@2W4_Iostate@12@B DD 02H		; std::_Iosb<int>::failbit
CONST	ENDS
;	COMDAT ?eofbit@?$_Iosb@H@std@@2W4_Iostate@12@B
CONST	SEGMENT
?eofbit@?$_Iosb@H@std@@2W4_Iostate@12@B DD 01H		; std::_Iosb<int>::eofbit
CONST	ENDS
;	COMDAT ?goodbit@?$_Iosb@H@std@@2W4_Iostate@12@B
CONST	SEGMENT
?goodbit@?$_Iosb@H@std@@2W4_Iostate@12@B DD 00H		; std::_Iosb<int>::goodbit
CONST	ENDS
;	COMDAT ?floatfield@?$_Iosb@H@std@@2W4_Fmtflags@12@B
CONST	SEGMENT
?floatfield@?$_Iosb@H@std@@2W4_Fmtflags@12@B DD 03000H	; std::_Iosb<int>::floatfield
CONST	ENDS
;	COMDAT ?basefield@?$_Iosb@H@std@@2W4_Fmtflags@12@B
CONST	SEGMENT
?basefield@?$_Iosb@H@std@@2W4_Fmtflags@12@B DD 0e00H	; std::_Iosb<int>::basefield
CONST	ENDS
;	COMDAT ?adjustfield@?$_Iosb@H@std@@2W4_Fmtflags@12@B
CONST	SEGMENT
?adjustfield@?$_Iosb@H@std@@2W4_Fmtflags@12@B DD 01c0H	; std::_Iosb<int>::adjustfield
CONST	ENDS
;	COMDAT ?_Stdio@?$_Iosb@H@std@@2W4_Fmtflags@12@B
CONST	SEGMENT
?_Stdio@?$_Iosb@H@std@@2W4_Fmtflags@12@B DD 08000H	; std::_Iosb<int>::_Stdio
CONST	ENDS
;	COMDAT ?boolalpha@?$_Iosb@H@std@@2W4_Fmtflags@12@B
CONST	SEGMENT
?boolalpha@?$_Iosb@H@std@@2W4_Fmtflags@12@B DD 04000H	; std::_Iosb<int>::boolalpha
CONST	ENDS
;	COMDAT ?hexfloat@?$_Iosb@H@std@@2W4_Fmtflags@12@B
CONST	SEGMENT
?hexfloat@?$_Iosb@H@std@@2W4_Fmtflags@12@B DD 03000H	; std::_Iosb<int>::hexfloat
CONST	ENDS
;	COMDAT ?fixed@?$_Iosb@H@std@@2W4_Fmtflags@12@B
CONST	SEGMENT
?fixed@?$_Iosb@H@std@@2W4_Fmtflags@12@B DD 02000H	; std::_Iosb<int>::fixed
CONST	ENDS
;	COMDAT ?scientific@?$_Iosb@H@std@@2W4_Fmtflags@12@B
CONST	SEGMENT
?scientific@?$_Iosb@H@std@@2W4_Fmtflags@12@B DD 01000H	; std::_Iosb<int>::scientific
CONST	ENDS
;	COMDAT ?hex@?$_Iosb@H@std@@2W4_Fmtflags@12@B
CONST	SEGMENT
?hex@?$_Iosb@H@std@@2W4_Fmtflags@12@B DD 0800H		; std::_Iosb<int>::hex
CONST	ENDS
;	COMDAT ?oct@?$_Iosb@H@std@@2W4_Fmtflags@12@B
CONST	SEGMENT
?oct@?$_Iosb@H@std@@2W4_Fmtflags@12@B DD 0400H		; std::_Iosb<int>::oct
CONST	ENDS
;	COMDAT ?dec@?$_Iosb@H@std@@2W4_Fmtflags@12@B
CONST	SEGMENT
?dec@?$_Iosb@H@std@@2W4_Fmtflags@12@B DD 0200H		; std::_Iosb<int>::dec
CONST	ENDS
;	COMDAT ?internal@?$_Iosb@H@std@@2W4_Fmtflags@12@B
CONST	SEGMENT
?internal@?$_Iosb@H@std@@2W4_Fmtflags@12@B DD 0100H	; std::_Iosb<int>::internal
CONST	ENDS
;	COMDAT ?right@?$_Iosb@H@std@@2W4_Fmtflags@12@B
CONST	SEGMENT
?right@?$_Iosb@H@std@@2W4_Fmtflags@12@B DD 080H		; std::_Iosb<int>::right
CONST	ENDS
;	COMDAT ?left@?$_Iosb@H@std@@2W4_Fmtflags@12@B
CONST	SEGMENT
?left@?$_Iosb@H@std@@2W4_Fmtflags@12@B DD 040H		; std::_Iosb<int>::left
CONST	ENDS
;	COMDAT ?showpos@?$_Iosb@H@std@@2W4_Fmtflags@12@B
CONST	SEGMENT
?showpos@?$_Iosb@H@std@@2W4_Fmtflags@12@B DD 020H	; std::_Iosb<int>::showpos
CONST	ENDS
;	COMDAT ?showpoint@?$_Iosb@H@std@@2W4_Fmtflags@12@B
CONST	SEGMENT
?showpoint@?$_Iosb@H@std@@2W4_Fmtflags@12@B DD 010H	; std::_Iosb<int>::showpoint
CONST	ENDS
;	COMDAT ?showbase@?$_Iosb@H@std@@2W4_Fmtflags@12@B
CONST	SEGMENT
?showbase@?$_Iosb@H@std@@2W4_Fmtflags@12@B DD 08H	; std::_Iosb<int>::showbase
CONST	ENDS
;	COMDAT ?uppercase@?$_Iosb@H@std@@2W4_Fmtflags@12@B
CONST	SEGMENT
?uppercase@?$_Iosb@H@std@@2W4_Fmtflags@12@B DD 04H	; std::_Iosb<int>::uppercase
CONST	ENDS
;	COMDAT ?unitbuf@?$_Iosb@H@std@@2W4_Fmtflags@12@B
CONST	SEGMENT
?unitbuf@?$_Iosb@H@std@@2W4_Fmtflags@12@B DD 02H	; std::_Iosb<int>::unitbuf
CONST	ENDS
;	COMDAT ?skipws@?$_Iosb@H@std@@2W4_Fmtflags@12@B
CONST	SEGMENT
?skipws@?$_Iosb@H@std@@2W4_Fmtflags@12@B DD 01H		; std::_Iosb<int>::skipws
CONST	ENDS
;	COMDAT ?value@?$_Sizeof@U_Nil@std@@U12@U12@U12@U12@U12@U12@U12@@std@@2IB
CONST	SEGMENT
?value@?$_Sizeof@U_Nil@std@@U12@U12@U12@U12@U12@U12@U12@@std@@2IB DD 00H ; std::_Sizeof<std::_Nil,std::_Nil,std::_Nil,std::_Nil,std::_Nil,std::_Nil,std::_Nil,std::_Nil>::value
CONST	ENDS
;	COMDAT ?min_exponent10@?$numeric_limits@O@std@@2HB
CONST	SEGMENT
?min_exponent10@?$numeric_limits@O@std@@2HB DD 0fffffecdH ; std::numeric_limits<long double>::min_exponent10
CONST	ENDS
;	COMDAT ?min_exponent@?$numeric_limits@O@std@@2HB
CONST	SEGMENT
?min_exponent@?$numeric_limits@O@std@@2HB DD 0fffffc03H	; std::numeric_limits<long double>::min_exponent
CONST	ENDS
;	COMDAT ?max_exponent10@?$numeric_limits@O@std@@2HB
CONST	SEGMENT
?max_exponent10@?$numeric_limits@O@std@@2HB DD 0134H	; std::numeric_limits<long double>::max_exponent10
CONST	ENDS
;	COMDAT ?max_exponent@?$numeric_limits@O@std@@2HB
CONST	SEGMENT
?max_exponent@?$numeric_limits@O@std@@2HB DD 0400H	; std::numeric_limits<long double>::max_exponent
CONST	ENDS
;	COMDAT ?max_digits10@?$numeric_limits@O@std@@2HB
CONST	SEGMENT
?max_digits10@?$numeric_limits@O@std@@2HB DD 011H	; std::numeric_limits<long double>::max_digits10
CONST	ENDS
;	COMDAT ?digits10@?$numeric_limits@O@std@@2HB
CONST	SEGMENT
?digits10@?$numeric_limits@O@std@@2HB DD 0fH		; std::numeric_limits<long double>::digits10
CONST	ENDS
;	COMDAT ?digits@?$numeric_limits@O@std@@2HB
CONST	SEGMENT
?digits@?$numeric_limits@O@std@@2HB DD 035H		; std::numeric_limits<long double>::digits
CONST	ENDS
;	COMDAT ?min_exponent10@?$numeric_limits@N@std@@2HB
CONST	SEGMENT
?min_exponent10@?$numeric_limits@N@std@@2HB DD 0fffffecdH ; std::numeric_limits<double>::min_exponent10
CONST	ENDS
;	COMDAT ?min_exponent@?$numeric_limits@N@std@@2HB
CONST	SEGMENT
?min_exponent@?$numeric_limits@N@std@@2HB DD 0fffffc03H	; std::numeric_limits<double>::min_exponent
CONST	ENDS
;	COMDAT ?max_exponent10@?$numeric_limits@N@std@@2HB
CONST	SEGMENT
?max_exponent10@?$numeric_limits@N@std@@2HB DD 0134H	; std::numeric_limits<double>::max_exponent10
CONST	ENDS
;	COMDAT ?max_exponent@?$numeric_limits@N@std@@2HB
CONST	SEGMENT
?max_exponent@?$numeric_limits@N@std@@2HB DD 0400H	; std::numeric_limits<double>::max_exponent
CONST	ENDS
;	COMDAT ?max_digits10@?$numeric_limits@N@std@@2HB
CONST	SEGMENT
?max_digits10@?$numeric_limits@N@std@@2HB DD 011H	; std::numeric_limits<double>::max_digits10
CONST	ENDS
;	COMDAT ?digits10@?$numeric_limits@N@std@@2HB
CONST	SEGMENT
?digits10@?$numeric_limits@N@std@@2HB DD 0fH		; std::numeric_limits<double>::digits10
CONST	ENDS
;	COMDAT ?digits@?$numeric_limits@N@std@@2HB
CONST	SEGMENT
?digits@?$numeric_limits@N@std@@2HB DD 035H		; std::numeric_limits<double>::digits
CONST	ENDS
;	COMDAT ?value@?$integral_constant@I$0A@@std@@2IB
CONST	SEGMENT
?value@?$integral_constant@I$0A@@std@@2IB DD 00H	; std::integral_constant<unsigned int,0>::value
CONST	ENDS
;	COMDAT ?min_exponent10@?$numeric_limits@M@std@@2HB
CONST	SEGMENT
?min_exponent10@?$numeric_limits@M@std@@2HB DD 0ffffffdbH ; std::numeric_limits<float>::min_exponent10
CONST	ENDS
;	COMDAT ?min_exponent@?$numeric_limits@M@std@@2HB
CONST	SEGMENT
?min_exponent@?$numeric_limits@M@std@@2HB DD 0ffffff83H	; std::numeric_limits<float>::min_exponent
CONST	ENDS
;	COMDAT ?max_exponent10@?$numeric_limits@M@std@@2HB
CONST	SEGMENT
?max_exponent10@?$numeric_limits@M@std@@2HB DD 026H	; std::numeric_limits<float>::max_exponent10
CONST	ENDS
;	COMDAT ?max_exponent@?$numeric_limits@M@std@@2HB
CONST	SEGMENT
?max_exponent@?$numeric_limits@M@std@@2HB DD 080H	; std::numeric_limits<float>::max_exponent
CONST	ENDS
;	COMDAT ?max_digits10@?$numeric_limits@M@std@@2HB
CONST	SEGMENT
?max_digits10@?$numeric_limits@M@std@@2HB DD 09H	; std::numeric_limits<float>::max_digits10
CONST	ENDS
;	COMDAT ?digits10@?$numeric_limits@M@std@@2HB
CONST	SEGMENT
?digits10@?$numeric_limits@M@std@@2HB DD 06H		; std::numeric_limits<float>::digits10
CONST	ENDS
;	COMDAT ?digits@?$numeric_limits@M@std@@2HB
CONST	SEGMENT
?digits@?$numeric_limits@M@std@@2HB DD 018H		; std::numeric_limits<float>::digits
CONST	ENDS
;	COMDAT ?digits10@?$numeric_limits@_K@std@@2HB
CONST	SEGMENT
?digits10@?$numeric_limits@_K@std@@2HB DD 013H		; std::numeric_limits<unsigned __int64>::digits10
CONST	ENDS
;	COMDAT ?digits@?$numeric_limits@_K@std@@2HB
CONST	SEGMENT
?digits@?$numeric_limits@_K@std@@2HB DD 040H		; std::numeric_limits<unsigned __int64>::digits
CONST	ENDS
;	COMDAT ?is_signed@?$numeric_limits@_K@std@@2_NB
CONST	SEGMENT
?is_signed@?$numeric_limits@_K@std@@2_NB DB 00H		; std::numeric_limits<unsigned __int64>::is_signed
CONST	ENDS
;	COMDAT ?digits10@?$numeric_limits@_J@std@@2HB
CONST	SEGMENT
?digits10@?$numeric_limits@_J@std@@2HB DD 012H		; std::numeric_limits<__int64>::digits10
CONST	ENDS
;	COMDAT ?digits@?$numeric_limits@_J@std@@2HB
CONST	SEGMENT
?digits@?$numeric_limits@_J@std@@2HB DD 03fH		; std::numeric_limits<__int64>::digits
CONST	ENDS
;	COMDAT ?is_signed@?$numeric_limits@_J@std@@2_NB
CONST	SEGMENT
?is_signed@?$numeric_limits@_J@std@@2_NB DB 01H		; std::numeric_limits<__int64>::is_signed
CONST	ENDS
;	COMDAT ?digits10@?$numeric_limits@K@std@@2HB
CONST	SEGMENT
?digits10@?$numeric_limits@K@std@@2HB DD 09H		; std::numeric_limits<unsigned long>::digits10
CONST	ENDS
;	COMDAT ?digits@?$numeric_limits@K@std@@2HB
CONST	SEGMENT
?digits@?$numeric_limits@K@std@@2HB DD 020H		; std::numeric_limits<unsigned long>::digits
CONST	ENDS
;	COMDAT ?is_signed@?$numeric_limits@K@std@@2_NB
CONST	SEGMENT
?is_signed@?$numeric_limits@K@std@@2_NB DB 00H		; std::numeric_limits<unsigned long>::is_signed
CONST	ENDS
CONST	SEGMENT
_NEAR_CLIP DD	03f800000r			; 1
_L_2	DD	03f317218r			; 0.693147
CONST	ENDS
;	COMDAT ?digits10@?$numeric_limits@J@std@@2HB
CONST	SEGMENT
?digits10@?$numeric_limits@J@std@@2HB DD 09H		; std::numeric_limits<long>::digits10
CONST	ENDS
;	COMDAT ?digits@?$numeric_limits@J@std@@2HB
CONST	SEGMENT
?digits@?$numeric_limits@J@std@@2HB DD 01fH		; std::numeric_limits<long>::digits
CONST	ENDS
;	COMDAT ?is_signed@?$numeric_limits@J@std@@2_NB
CONST	SEGMENT
?is_signed@?$numeric_limits@J@std@@2_NB DB 01H		; std::numeric_limits<long>::is_signed
CONST	ENDS
;	COMDAT ?CMPDIRTYDATA_INTERVAL@FalconEntity@@2KB
CONST	SEGMENT
?CMPDIRTYDATA_INTERVAL@FalconEntity@@2KB DD 0c8H	; FalconEntity::CMPDIRTYDATA_INTERVAL
CONST	ENDS
;	COMDAT ?SIMDIRTYDATA_INTERVAL@FalconEntity@@2KB
CONST	SEGMENT
?SIMDIRTYDATA_INTERVAL@FalconEntity@@2KB DD 0c8H	; FalconEntity::SIMDIRTYDATA_INTERVAL
CONST	ENDS
;	COMDAT ?digits10@?$numeric_limits@I@std@@2HB
CONST	SEGMENT
?digits10@?$numeric_limits@I@std@@2HB DD 09H		; std::numeric_limits<unsigned int>::digits10
CONST	ENDS
;	COMDAT ?digits@?$numeric_limits@I@std@@2HB
CONST	SEGMENT
?digits@?$numeric_limits@I@std@@2HB DD 020H		; std::numeric_limits<unsigned int>::digits
CONST	ENDS
;	COMDAT ?is_signed@?$numeric_limits@I@std@@2_NB
CONST	SEGMENT
?is_signed@?$numeric_limits@I@std@@2_NB DB 00H		; std::numeric_limits<unsigned int>::is_signed
CONST	ENDS
;	COMDAT ?table_size@?$ctype@D@std@@2IB
CONST	SEGMENT
?table_size@?$ctype@D@std@@2IB DD 0100H			; std::ctype<char>::table_size
CONST	ENDS
;	COMDAT ?digits10@?$numeric_limits@H@std@@2HB
CONST	SEGMENT
?digits10@?$numeric_limits@H@std@@2HB DD 09H		; std::numeric_limits<int>::digits10
CONST	ENDS
;	COMDAT ?digits@?$numeric_limits@H@std@@2HB
CONST	SEGMENT
?digits@?$numeric_limits@H@std@@2HB DD 01fH		; std::numeric_limits<int>::digits
CONST	ENDS
;	COMDAT ?value@?$_Sizeof@HU_Nil@std@@U12@U12@U12@U12@U12@U12@@std@@2IB
CONST	SEGMENT
?value@?$_Sizeof@HU_Nil@std@@U12@U12@U12@U12@U12@U12@@std@@2IB DD 01H ; std::_Sizeof<int,std::_Nil,std::_Nil,std::_Nil,std::_Nil,std::_Nil,std::_Nil,std::_Nil>::value
CONST	ENDS
;	COMDAT ?is_signed@?$numeric_limits@H@std@@2_NB
CONST	SEGMENT
?is_signed@?$numeric_limits@H@std@@2_NB DB 01H		; std::numeric_limits<int>::is_signed
CONST	ENDS
;	COMDAT ?digits10@?$numeric_limits@G@std@@2HB
CONST	SEGMENT
?digits10@?$numeric_limits@G@std@@2HB DD 04H		; std::numeric_limits<unsigned short>::digits10
CONST	ENDS
;	COMDAT ?digits@?$numeric_limits@G@std@@2HB
CONST	SEGMENT
?digits@?$numeric_limits@G@std@@2HB DD 010H		; std::numeric_limits<unsigned short>::digits
CONST	ENDS
;	COMDAT ?is_signed@?$numeric_limits@G@std@@2_NB
CONST	SEGMENT
?is_signed@?$numeric_limits@G@std@@2_NB DB 00H		; std::numeric_limits<unsigned short>::is_signed
CONST	ENDS
;	COMDAT ?digits10@?$numeric_limits@F@std@@2HB
CONST	SEGMENT
?digits10@?$numeric_limits@F@std@@2HB DD 04H		; std::numeric_limits<short>::digits10
CONST	ENDS
;	COMDAT ?digits@?$numeric_limits@F@std@@2HB
CONST	SEGMENT
?digits@?$numeric_limits@F@std@@2HB DD 0fH		; std::numeric_limits<short>::digits
CONST	ENDS
;	COMDAT ?none@?$_Locbase@H@std@@2HB
CONST	SEGMENT
?none@?$_Locbase@H@std@@2HB DD 00H			; std::_Locbase<int>::none
CONST	ENDS
;	COMDAT ?is_signed@?$numeric_limits@F@std@@2_NB
CONST	SEGMENT
?is_signed@?$numeric_limits@F@std@@2_NB DB 01H		; std::numeric_limits<short>::is_signed
CONST	ENDS
;	COMDAT ?all@?$_Locbase@H@std@@2HB
CONST	SEGMENT
?all@?$_Locbase@H@std@@2HB DD 03fH			; std::_Locbase<int>::all
CONST	ENDS
;	COMDAT ?messages@?$_Locbase@H@std@@2HB
CONST	SEGMENT
?messages@?$_Locbase@H@std@@2HB DD 020H			; std::_Locbase<int>::messages
CONST	ENDS
;	COMDAT ?time@?$_Locbase@H@std@@2HB
CONST	SEGMENT
?time@?$_Locbase@H@std@@2HB DD 010H			; std::_Locbase<int>::time
CONST	ENDS
;	COMDAT ?numeric@?$_Locbase@H@std@@2HB
CONST	SEGMENT
?numeric@?$_Locbase@H@std@@2HB DD 08H			; std::_Locbase<int>::numeric
CONST	ENDS
PUBLIC	__tcschr
PUBLIC	?_tcschr@@YAPADPADI@Z				; _tcschr
PUBLIC	_fabsf
PUBLIC	_acosf
PUBLIC	_atanf
PUBLIC	?acos@@YAMM@Z					; acos
PUBLIC	?atan@@YAMM@Z					; atan
PUBLIC	?fabs@@YAMM@Z					; fabs
PUBLIC	?GetPosition@DrawableObject@@QAEXPAUTpoint@@@Z	; DrawableObject::GetPosition
PUBLIC	?SetScale@DrawableObject@@QAEXM@Z		; DrawableObject::SetScale
PUBLIC	?InDisplayList@DrawableObject@@QAEHXZ		; DrawableObject::InDisplayList
PUBLIC	??2@YAPAXIPAX@Z					; operator new
PUBLIC	??3@YAXPAX0@Z					; operator delete
PUBLIC	?length@?$char_traits@D@std@@SAIPBD@Z		; std::char_traits<char>::length
PUBLIC	?copy@?$char_traits@D@std@@SAPADPADPBDI@Z	; std::char_traits<char>::copy
PUBLIC	?move@?$char_traits@D@std@@SAPADPADPBDI@Z	; std::char_traits<char>::move
PUBLIC	?assign@?$char_traits@D@std@@SAXAADABD@Z	; std::char_traits<char>::assign
PUBLIC	??0?$allocator@D@std@@QAE@XZ			; std::allocator<char>::allocator<char>
PUBLIC	?deallocate@?$allocator@D@std@@QAEXPADI@Z	; std::allocator<char>::deallocate
PUBLIC	?allocate@?$allocator@D@std@@QAEPADI@Z		; std::allocator<char>::allocate
PUBLIC	?max_size@?$allocator@D@std@@QBEIXZ		; std::allocator<char>::max_size
PUBLIC	?max_size@?$allocator_traits@V?$allocator@D@std@@@std@@SAIABV?$allocator@D@2@@Z ; std::allocator_traits<std::allocator<char> >::max_size
PUBLIC	??0?$_Wrap_alloc@V?$allocator@D@std@@@std@@QAE@XZ ; std::_Wrap_alloc<std::allocator<char> >::_Wrap_alloc<std::allocator<char> >
PUBLIC	?allocate@?$_Wrap_alloc@V?$allocator@D@std@@@std@@QAEPADI@Z ; std::_Wrap_alloc<std::allocator<char> >::allocate
PUBLIC	?deallocate@?$_Wrap_alloc@V?$allocator@D@std@@@std@@QAEXPADI@Z ; std::_Wrap_alloc<std::allocator<char> >::deallocate
PUBLIC	?max_size@?$_Wrap_alloc@V?$allocator@D@std@@@std@@QBEIXZ ; std::_Wrap_alloc<std::allocator<char> >::max_size
PUBLIC	??0?$_String_val@U?$_Simple_types@D@std@@@std@@QAE@XZ ; std::_String_val<std::_Simple_types<char> >::_String_val<std::_Simple_types<char> >
PUBLIC	?_Myptr@?$_String_val@U?$_Simple_types@D@std@@@std@@QAEPADXZ ; std::_String_val<std::_Simple_types<char> >::_Myptr
PUBLIC	?_Myptr@?$_String_val@U?$_Simple_types@D@std@@@std@@QBEPBDXZ ; std::_String_val<std::_Simple_types<char> >::_Myptr
PUBLIC	??0?$_String_alloc@$0A@U?$_String_base_types@DV?$allocator@D@std@@@std@@@std@@QAE@ABV?$allocator@D@1@@Z ; std::_String_alloc<0,std::_String_base_types<char,std::allocator<char> > >::_String_alloc<0,std::_String_base_types<char,std::allocator<char> > >
PUBLIC	?_Getal@?$_String_alloc@$0A@U?$_String_base_types@DV?$allocator@D@std@@@std@@@std@@QBE?AU?$_Wrap_alloc@V?$allocator@D@std@@@2@XZ ; std::_String_alloc<0,std::_String_base_types<char,std::allocator<char> > >::_Getal
PUBLIC	??0?$basic_string@DU?$char_traits@D@std@@V?$allocator@D@2@@std@@QAE@PBD@Z ; std::basic_string<char,std::char_traits<char>,std::allocator<char> >::basic_string<char,std::char_traits<char>,std::allocator<char> >
PUBLIC	?assign@?$basic_string@DU?$char_traits@D@std@@V?$allocator@D@2@@std@@QAEAAV12@ABV12@II@Z ; std::basic_string<char,std::char_traits<char>,std::allocator<char> >::assign
PUBLIC	?assign@?$basic_string@DU?$char_traits@D@std@@V?$allocator@D@2@@std@@QAEAAV12@PBDI@Z ; std::basic_string<char,std::char_traits<char>,std::allocator<char> >::assign
PUBLIC	?assign@?$basic_string@DU?$char_traits@D@std@@V?$allocator@D@2@@std@@QAEAAV12@PBD@Z ; std::basic_string<char,std::char_traits<char>,std::allocator<char> >::assign
PUBLIC	?erase@?$basic_string@DU?$char_traits@D@std@@V?$allocator@D@2@@std@@QAEAAV12@I@Z ; std::basic_string<char,std::char_traits<char>,std::allocator<char> >::erase
PUBLIC	?erase@?$basic_string@DU?$char_traits@D@std@@V?$allocator@D@2@@std@@QAEAAV12@II@Z ; std::basic_string<char,std::char_traits<char>,std::allocator<char> >::erase
PUBLIC	?size@?$basic_string@DU?$char_traits@D@std@@V?$allocator@D@2@@std@@QBEIXZ ; std::basic_string<char,std::char_traits<char>,std::allocator<char> >::size
PUBLIC	?max_size@?$basic_string@DU?$char_traits@D@std@@V?$allocator@D@2@@std@@QBEIXZ ; std::basic_string<char,std::char_traits<char>,std::allocator<char> >::max_size
PUBLIC	?_Copy@?$basic_string@DU?$char_traits@D@std@@V?$allocator@D@2@@std@@QAEXII@Z ; std::basic_string<char,std::char_traits<char>,std::allocator<char> >::_Copy
PUBLIC	?_Eos@?$basic_string@DU?$char_traits@D@std@@V?$allocator@D@2@@std@@QAEXI@Z ; std::basic_string<char,std::char_traits<char>,std::allocator<char> >::_Eos
PUBLIC	?_Grow@?$basic_string@DU?$char_traits@D@std@@V?$allocator@D@2@@std@@QAE_NI_N@Z ; std::basic_string<char,std::char_traits<char>,std::allocator<char> >::_Grow
PUBLIC	?_Inside@?$basic_string@DU?$char_traits@D@std@@V?$allocator@D@2@@std@@QAE_NPBD@Z ; std::basic_string<char,std::char_traits<char>,std::allocator<char> >::_Inside
PUBLIC	?_Tidy@?$basic_string@DU?$char_traits@D@std@@V?$allocator@D@2@@std@@QAEX_NI@Z ; std::basic_string<char,std::char_traits<char>,std::allocator<char> >::_Tidy
PUBLIC	?_Xlen@?$basic_string@DU?$char_traits@D@std@@V?$allocator@D@2@@std@@QBEXXZ ; std::basic_string<char,std::char_traits<char>,std::allocator<char> >::_Xlen
PUBLIC	?_Xran@?$basic_string@DU?$char_traits@D@std@@V?$allocator@D@2@@std@@QBEXXZ ; std::basic_string<char,std::char_traits<char>,std::allocator<char> >::_Xran
PUBLIC	??0id@locale@std@@QAE@I@Z			; std::locale::id::id
PUBLIC	?generic_category@std@@YAABVerror_category@1@XZ	; std::generic_category
PUBLIC	?system_category@std@@YAABVerror_category@1@XZ	; std::system_category
PUBLIC	??0error_category@std@@QAE@XZ			; std::error_category::error_category
PUBLIC	??1error_category@std@@UAE@XZ			; std::error_category::~error_category
PUBLIC	?default_error_condition@error_category@std@@UBE?AVerror_condition@2@H@Z ; std::error_category::default_error_condition
PUBLIC	?equivalent@error_category@std@@UBE_NHABVerror_condition@2@@Z ; std::error_category::equivalent
PUBLIC	?equivalent@error_category@std@@UBE_NABVerror_code@2@H@Z ; std::error_category::equivalent
PUBLIC	??8error_category@std@@QBE_NABV01@@Z		; std::error_category::operator==
PUBLIC	??_Gerror_category@std@@UAEPAXI@Z		; std::error_category::`scalar deleting destructor'
PUBLIC	?value@error_code@std@@QBEHXZ			; std::error_code::value
PUBLIC	?category@error_code@std@@QBEABVerror_category@2@XZ ; std::error_code::category
PUBLIC	??0error_condition@std@@QAE@HABVerror_category@1@@Z ; std::error_condition::error_condition
PUBLIC	?value@error_condition@std@@QBEHXZ		; std::error_condition::value
PUBLIC	?category@error_condition@std@@QBEABVerror_category@2@XZ ; std::error_condition::category
PUBLIC	??8error_condition@std@@QBE_NABV01@@Z		; std::error_condition::operator==
PUBLIC	??0_Generic_error_category@std@@QAE@XZ		; std::_Generic_error_category::_Generic_error_category
PUBLIC	?name@_Generic_error_category@std@@UBEPBDXZ	; std::_Generic_error_category::name
PUBLIC	?message@_Generic_error_category@std@@UBE?AV?$basic_string@DU?$char_traits@D@std@@V?$allocator@D@2@@2@H@Z ; std::_Generic_error_category::message
PUBLIC	??1_Generic_error_category@std@@UAE@XZ		; std::_Generic_error_category::~_Generic_error_category
PUBLIC	??_G_Generic_error_category@std@@UAEPAXI@Z	; std::_Generic_error_category::`scalar deleting destructor'
PUBLIC	??0_Iostream_error_category@std@@QAE@XZ		; std::_Iostream_error_category::_Iostream_error_category
PUBLIC	?name@_Iostream_error_category@std@@UBEPBDXZ	; std::_Iostream_error_category::name
PUBLIC	?message@_Iostream_error_category@std@@UBE?AV?$basic_string@DU?$char_traits@D@std@@V?$allocator@D@2@@2@H@Z ; std::_Iostream_error_category::message
PUBLIC	??1_Iostream_error_category@std@@UAE@XZ		; std::_Iostream_error_category::~_Iostream_error_category
PUBLIC	??_G_Iostream_error_category@std@@UAEPAXI@Z	; std::_Iostream_error_category::`scalar deleting destructor'
PUBLIC	??0_System_error_category@std@@QAE@XZ		; std::_System_error_category::_System_error_category
PUBLIC	?name@_System_error_category@std@@UBEPBDXZ	; std::_System_error_category::name
PUBLIC	?message@_System_error_category@std@@UBE?AV?$basic_string@DU?$char_traits@D@std@@V?$allocator@D@2@@2@H@Z ; std::_System_error_category::message
PUBLIC	?default_error_condition@_System_error_category@std@@UBE?AVerror_condition@2@H@Z ; std::_System_error_category::default_error_condition
PUBLIC	??1_System_error_category@std@@UAE@XZ		; std::_System_error_category::~_System_error_category
PUBLIC	??_G_System_error_category@std@@UAEPAXI@Z	; std::_System_error_category::`scalar deleting destructor'
PUBLIC	?KeepStaleSegs@DrawableTrail@@QAEXH@Z		; DrawableTrail::KeepStaleSegs
PUBLIC	?SetTextureSet@DrawableBSP@@QAEXK@Z		; DrawableBSP::SetTextureSet
PUBLIC	?Label@DrawableBSP@@QAEPADXZ			; DrawableBSP::Label
PUBLIC	?GetID@DrawableBSP@@QAEHXZ			; DrawableBSP::GetID
PUBLIC	?SetYPR@VuEntity@@QAEXMMM@Z			; VuEntity::SetYPR
PUBLIC	?SetYPRDelta@VuEntity@@QAEXMMM@Z		; VuEntity::SetYPRDelta
PUBLIC	?XPos@VuEntity@@QBEMXZ				; VuEntity::XPos
PUBLIC	?YPos@VuEntity@@QBEMXZ				; VuEntity::YPos
PUBLIC	?ZPos@VuEntity@@QBEMXZ				; VuEntity::ZPos
PUBLIC	?Yaw@VuEntity@@QBEMXZ				; VuEntity::Yaw
PUBLIC	?EntityType@VuEntity@@QBEPAUVuEntityType@@XZ	; VuEntity::EntityType
PUBLIC	_DestroyACMIRawPositionDataList
PUBLIC	_DeleteACMIRawPositionData
PUBLIC	_DeleteACMIEntityPositionData
PUBLIC	_DeleteACMIEntityData
PUBLIC	_DeleteACMIEventHeader
PUBLIC	_DeleteACMIFeatEventImportData
PUBLIC	_CompareEventTrailer
PUBLIC	??0ACMITape@@QAE@PADPAVRenderOTW@@PAVRViewPoint@@@Z ; ACMITape::ACMITape
PUBLIC	??1ACMITape@@QAE@XZ				; ACMITape::~ACMITape
PUBLIC	?Import@ACMITape@@SAHPAD0@Z			; ACMITape::Import
PUBLIC	?WriteTapeFile@ACMITape@@SAXPADPAUACMITapeHeader@@@Z ; ACMITape::WriteTapeFile
PUBLIC	?NumEntities@ACMITape@@QAEHXZ			; ACMITape::NumEntities
PUBLIC	?EntityType@ACMITape@@QAEHH@Z			; ACMITape::EntityType
PUBLIC	?GetEntityPosition@ACMITape@@QAEHHAAM00000000@Z	; ACMITape::GetEntityPosition
PUBLIC	?SetGeneralEventCallbacks@ACMITape@@QAEXP6AXPAV1@UEventIdData@@PAX2@Z32@Z ; ACMITape::SetGeneralEventCallbacks
PUBLIC	?IsLoaded@ACMITape@@QAEHXZ			; ACMITape::IsLoaded
PUBLIC	?GetNewSimTime@ACMITape@@QAEMM@Z		; ACMITape::GetNewSimTime
PUBLIC	?SetHeadPosition@ACMITape@@QAEXM@Z		; ACMITape::SetHeadPosition
PUBLIC	?HeadPosition@ACMITape@@QAEMXZ			; ACMITape::HeadPosition
PUBLIC	?Update@ACMITape@@QAEXM@Z			; ACMITape::Update
PUBLIC	?AngleInterp@ACMITape@@QAEMMMM@Z		; ACMITape::AngleInterp
PUBLIC	?GetSimTapeEntity@ACMITape@@QAEPAUSimTapeEntity@@H@Z ; ACMITape::GetSimTapeEntity
PUBLIC	?IsEntityInFrame@ACMITape@@QAEHH@Z		; ACMITape::IsEntityInFrame
PUBLIC	?InsertEntityInFrame@ACMITape@@QAEXH@Z		; ACMITape::InsertEntityInFrame
PUBLIC	?RemoveEntityFromFrame@ACMITape@@QAEXH@Z	; ACMITape::RemoveEntityFromFrame
PUBLIC	?GetEntityCurrentTarget@ACMITape@@QAEHH@Z	; ACMITape::GetEntityCurrentTarget
PUBLIC	?UpdateSimTapeEntities@ACMITape@@QAEXXZ		; ACMITape::UpdateSimTapeEntities
PUBLIC	?ObjectSetData@ACMITape@@QAEXPAVSimBaseClass@@PAUTpoint@@PAUTrotation@@@Z ; ACMITape::ObjectSetData
PUBLIC	?SetWingTrails@ACMITape@@QAEXH@Z		; ACMITape::SetWingTrails
PUBLIC	?GetTextEvents@ACMITape@@QAEPAXPAH@Z		; ACMITape::GetTextEvents
PUBLIC	?GetCallsignList@ACMITape@@QAEPAXPAJ@Z		; ACMITape::GetCallsignList
PUBLIC	?EntityData@ACMITape@@QAEPAUACMIEntityData@@H@Z	; ACMITape::EntityData
PUBLIC	?Init@ACMITape@@AAEXXZ				; ACMITape::Init
PUBLIC	?ParseEntities@ACMITape@@CAXXZ			; ACMITape::ParseEntities
PUBLIC	?ThreadEntityPositions@ACMITape@@CAXPAUACMITapeHeader@@@Z ; ACMITape::ThreadEntityPositions
PUBLIC	?ThreadEntityEvents@ACMITape@@CAXPAUACMITapeHeader@@@Z ; ACMITape::ThreadEntityEvents
PUBLIC	?ImportTextEventList@ACMITape@@CAXPAU_iobuf@@PAUACMITapeHeader@@@Z ; ACMITape::ImportTextEventList
PUBLIC	?FeatureData@ACMITape@@AAEPAUACMIEntityData@@H@Z ; ACMITape::FeatureData
PUBLIC	?CurrentFeaturePositionHead@ACMITape@@AAEPAUACMIEntityPositionData@@H@Z ; ACMITape::CurrentFeaturePositionHead
PUBLIC	?CurrentEntityPositionHead@ACMITape@@AAEPAUACMIEntityPositionData@@H@Z ; ACMITape::CurrentEntityPositionHead
PUBLIC	?CurrentEntityEventHead@ACMITape@@AAEPAUACMIEntityPositionData@@H@Z ; ACMITape::CurrentEntityEventHead
PUBLIC	?HeadNext@ACMITape@@AAEPAUACMIEntityPositionData@@PAU2@@Z ; ACMITape::HeadNext
PUBLIC	?HeadPrev@ACMITape@@AAEPAUACMIEntityPositionData@@PAU2@@Z ; ACMITape::HeadPrev
PUBLIC	?GeneralEventData@ACMITape@@AAEPAUACMIEventHeader@@XZ ; ACMITape::GeneralEventData
PUBLIC	?GetGeneralEventData@ACMITape@@AAEPAUACMIEventHeader@@H@Z ; ACMITape::GetGeneralEventData
PUBLIC	?Next@ACMITape@@AAEPAUACMIEventHeader@@PAU2@@Z	; ACMITape::Next
PUBLIC	?Prev@ACMITape@@AAEPAUACMIEventHeader@@PAU2@@Z	; ACMITape::Prev
PUBLIC	?GeneralEventTrailer@ACMITape@@AAEPAUACMIEventTrailer@@XZ ; ACMITape::GeneralEventTrailer
PUBLIC	?Next@ACMITape@@AAEPAUACMIEventTrailer@@PAU2@@Z	; ACMITape::Next
PUBLIC	?Prev@ACMITape@@AAEPAUACMIEventTrailer@@PAU2@@Z	; ACMITape::Prev
PUBLIC	?CurrFeatEvent@ACMITape@@AAEPAUACMIFeatEvent@@XZ ; ACMITape::CurrFeatEvent
PUBLIC	?Next@ACMITape@@AAEPAUACMIFeatEvent@@PAU2@@Z	; ACMITape::Next
PUBLIC	?Prev@ACMITape@@AAEPAUACMIFeatEvent@@PAU2@@Z	; ACMITape::Prev
PUBLIC	?AdvanceEntityPositionHead@ACMITape@@AAEXH@Z	; ACMITape::AdvanceEntityPositionHead
PUBLIC	?AdvanceEntityEventHead@ACMITape@@AAEXH@Z	; ACMITape::AdvanceEntityEventHead
PUBLIC	?AdvanceGeneralEventHeadHeader@ACMITape@@AAEXXZ	; ACMITape::AdvanceGeneralEventHeadHeader
PUBLIC	?AdvanceGeneralEventHeadTrailer@ACMITape@@AAEXXZ ; ACMITape::AdvanceGeneralEventHeadTrailer
PUBLIC	?AdvanceFeatEventHead@ACMITape@@AAEXXZ		; ACMITape::AdvanceFeatEventHead
PUBLIC	?AdvanceAllHeads@ACMITape@@AAEXXZ		; ACMITape::AdvanceAllHeads
PUBLIC	?SetupSimTapeEntities@ACMITape@@AAEXXZ		; ACMITape::SetupSimTapeEntities
PUBLIC	?CleanupSimTapeEntities@ACMITape@@AAEXXZ	; ACMITape::CleanupSimTapeEntities
PUBLIC	?OpenTapeFile@ACMITape@@AAEJPAD@Z		; ACMITape::OpenTapeFile
PUBLIC	?CloseTapeFile@ACMITape@@AAEXXZ			; ACMITape::CloseTapeFile
PUBLIC	?CleanupEventList@ACMITape@@AAEXXZ		; ACMITape::CleanupEventList
PUBLIC	?InsertActiveEvent@ACMITape@@AAEPAU_ActiveEvent@@PAUACMIEventHeader@@M@Z ; ACMITape::InsertActiveEvent
PUBLIC	?RemoveActiveEvent@ACMITape@@AAEXPAPAU_ActiveEvent@@@Z ; ACMITape::RemoveActiveEvent
PUBLIC	?UpdateActiveEvents@ACMITape@@AAEXXZ		; ACMITape::UpdateActiveEvents
PUBLIC	?CreateFeatureDrawable@ACMITape@@AAEXPAUSimTapeEntity@@@Z ; ACMITape::CreateFeatureDrawable
PUBLIC	?FindComponentFeature@ACMITape@@AAEPAVSimBaseClass@@JH@Z ; ACMITape::FindComponentFeature
PUBLIC	?UpdateTracerEvent@ACMITape@@AAEXPAUTracerEventData@@M@Z ; ACMITape::UpdateTracerEvent
PUBLIC	?IsSetCampaignFlag@SimBaseClass@@QBEHH@Z	; SimBaseClass::IsSetCampaignFlag
PUBLIC	?SetCampaignFlag@SimBaseClass@@QAEXH@Z		; SimBaseClass::SetCampaignFlag
PUBLIC	?Status@SimBaseClass@@QBEHXZ			; SimBaseClass::Status
PUBLIC	??_GSfxClass@@QAEPAXI@Z				; SfxClass::`scalar deleting destructor'
PUBLIC	?AppendToEndOfList@@YAPAULIST@@PAU1@PAPAU1@PAX@Z ; AppendToEndOfList
PUBLIC	?DestroyTheList@@YAXPAULIST@@@Z			; DestroyTheList
PUBLIC	?DefaultForwardACMIGeneralEventCallback@@YAXPAVACMITape@@UEventIdData@@PAX2@Z ; DefaultForwardACMIGeneralEventCallback
PUBLIC	?DefaultReverseACMIGeneralEventCallback@@YAXPAVACMITape@@UEventIdData@@PAX2@Z ; DefaultReverseACMIGeneralEventCallback
PUBLIC	?ReadRawACMIPositionData@@YAHPAU_iobuf@@AAUACMIRawPositionData@@@Z ; ReadRawACMIPositionData
PUBLIC	?CleanupACMIImportPositionData@@YAXPAU_iobuf@@PAUACMIRawPositionData@@@Z ; CleanupACMIImportPositionData
PUBLIC	??$construct@PADAAPAD@?$_Wrap_alloc@V?$allocator@D@std@@@std@@QAEXPAPADAAPAD@Z ; std::_Wrap_alloc<std::allocator<char> >::construct<char *,char * &>
PUBLIC	??$destroy@PAD@?$_Wrap_alloc@V?$allocator@D@std@@@std@@QAEXPAPAD@Z ; std::_Wrap_alloc<std::allocator<char> >::destroy<char *>
PUBLIC	??$addressof@D@std@@YAPADAAD@Z			; std::addressof<char>
PUBLIC	??$_Allocate@D@std@@YAPADIPAD@Z			; std::_Allocate<char>
PUBLIC	??$forward@AAPAD@std@@YAAAPADAAPAD@Z		; std::forward<char * &>
PUBLIC	??$construct@PADAAPAD@?$allocator_traits@V?$allocator@D@std@@@std@@SAXAAV?$allocator@D@1@PAPADAAPAD@Z ; std::allocator_traits<std::allocator<char> >::construct<char *,char * &>
PUBLIC	??$destroy@PAD@?$allocator_traits@V?$allocator@D@std@@@std@@SAXAAV?$allocator@D@1@PAPAD@Z ; std::allocator_traits<std::allocator<char> >::destroy<char *>
PUBLIC	??$construct@PADAAPAD@?$allocator@D@std@@QAEXPAPADAAPAD@Z ; std::allocator<char>::construct<char *,char * &>
PUBLIC	??$destroy@PAD@?$allocator@D@std@@QAEXPAPAD@Z	; std::allocator<char>::destroy<char *>
PUBLIC	??_C@_00CNPNBAHC@?$AA@				; `string'
PUBLIC	??_7error_category@std@@6B@			; std::error_category::`vftable'
PUBLIC	??_7_Generic_error_category@std@@6B@		; std::_Generic_error_category::`vftable'
PUBLIC	??_C@_07DCLBNMLN@generic?$AA@			; `string'
PUBLIC	??_C@_0O@BFJCFAAK@unknown?5error?$AA@		; `string'
PUBLIC	??_7_Iostream_error_category@std@@6B@		; std::_Iostream_error_category::`vftable'
PUBLIC	??_C@_08LLGCOLLL@iostream?$AA@			; `string'
PUBLIC	??_C@_0BG@PADBLCHM@iostream?5stream?5error?$AA@	; `string'
PUBLIC	??_7_System_error_category@std@@6B@		; std::_System_error_category::`vftable'
PUBLIC	??_C@_06FHFOAHML@system?$AA@			; `string'
PUBLIC	?_Generic_object@?$_Error_objects@H@std@@2V_Generic_error_category@2@A ; std::_Error_objects<int>::_Generic_object
PUBLIC	?_Iostream_object@?$_Error_objects@H@std@@2V_Iostream_error_category@2@A ; std::_Error_objects<int>::_Iostream_object
PUBLIC	?_System_object@?$_Error_objects@H@std@@2V_System_error_category@2@A ; std::_Error_objects<int>::_System_object
PUBLIC	?id@?$num_put@DV?$back_insert_iterator@V?$basic_string@DU?$char_traits@D@std@@V?$allocator@D@2@@std@@@std@@@std@@2V0locale@2@A ; std::num_put<char,std::back_insert_iterator<std::basic_string<char,std::char_traits<char>,std::allocator<char> > > >::id
PUBLIC	?id@?$num_put@_WV?$back_insert_iterator@V?$basic_string@_WU?$char_traits@_W@std@@V?$allocator@_W@2@@std@@@std@@@std@@2V0locale@2@A ; std::num_put<wchar_t,std::back_insert_iterator<std::basic_string<wchar_t,std::char_traits<wchar_t>,std::allocator<wchar_t> > > >::id
PUBLIC	??_C@_0EF@HDIDEHKI@General?5event?5occured?5in?5forward@ ; `string'
PUBLIC	??_C@_0EF@GKJIDJHD@General?5event?5occured?5in?5reverse@ ; `string'
PUBLIC	??_C@_08DIILMCIP@acmibin?2?$AA@			; `string'
PUBLIC	??_C@_0CM@JNEEFDOD@Entity?5?$CFd?3?5Type?5?$DN?5?$CFd?0?5Id?5?$DN?5?$CFd?0?5O@ ; `string'
PUBLIC	??_C@_0CI@GLDDLJCL@Unable?5to?5test?5memory?5mapped?5tap@ ; `string'
PUBLIC	??_C@_05OKMLJOMC@?$CFd?5?$CFd?$AA@		; `string'
PUBLIC	??_C@_0BD@JECPNOK@?$CFf?5?$CFf?5?$CFf?5?$CFf?5?$CFf?5?$CFf?6?$AA@ ; `string'
PUBLIC	??_C@_02JDPG@rb?$AA@				; `string'
PUBLIC	??_C@_0BP@GDDCLOAC@Error?5opening?5acmi?5flight?5file?$AA@ ; `string'
PUBLIC	??_C@_0CI@FJDDFKJJ@ACMITape?5Import?3?5Reading?5Raw?5Dat@ ; `string'
PUBLIC	??_C@_0CI@POBDCJEJ@ACMITape?5Import?3?5Parsing?5Entitie@ ; `string'
PUBLIC	??_C@_0CL@MAGFLMAL@ACMITape?5Import?3?5Threading?5Posit@ ; `string'
PUBLIC	??_C@_0CP@NAKIBKKI@ACMITape?5Import?3?5Threading?5Entit@ ; `string'
PUBLIC	??_C@_0CJ@CBDOLJBO@ACMITape?5Import?3?5Writing?5Tape?5Fi@ ; `string'
PUBLIC	??_C@_02GMLFBBN@wb?$AA@				; `string'
PUBLIC	??_C@_0BN@POLMAADA@Error?5opening?5new?5tape?5file?6?$AA@ ; `string'
PUBLIC	??_C@_0BN@FBPPAKAM@Error?5writing?5new?5tape?5file?6?$AA@ ; `string'
PUBLIC	??_C@_0BK@GKMGOOKA@Unable?5to?5Open?5Tape?5File?6?$AA@ ; `string'
PUBLIC	??_C@_0BP@ONECOFNE@Unable?5to?5to?5read?5tape?5header?6?$AA@ ; `string'
PUBLIC	??_C@_0BD@DGLPMPEG@Invalid?5Tape?5File?6?$AA@	; `string'
PUBLIC	??_C@_0CA@CJCMBNNE@CreateFile?5failed?5on?5tape?5open?6?$AA@ ; `string'
PUBLIC	??_C@_0CH@LHLGEOPK@CreateFileMapping?5failed?5on?5tape@ ; `string'
PUBLIC	??_C@_0CD@FIBPIHAP@MapViewOfFile?5failed?5on?5tape?5ope@ ; `string'
PUBLIC	??_C@_0O@DFPLFLLG@Ejected?5Pilot?$AA@		; `string'
PUBLIC	??_C@_09MJDCFFNJ@?$CF0?40f?5Rng?$AA@		; `string'
PUBLIC	??_C@_09LABFLCHL@?$CF0?40f?5Deg?$AA@		; `string'
PUBLIC	??_C@_08HOOMBMBP@?$CF0?40f?5ft?$AA@		; `string'
PUBLIC	??_C@_09NLDMLMDP@?$CF0?40f?5Kts?$AA@		; `string'
PUBLIC	??_C@_0M@NJALOMFG@?$CF0?40f?5deg?1s?$AA@	; `string'
PUBLIC	??_C@_0CC@JEGADOOG@Error?5writing?5TAPE?5event?5element@ ; `string'
PUBLIC	??_C@_0BK@FLEPGJPC@Error?5seeking?5TAPE?5start?6?$AA@ ; `string'
PUBLIC	??_C@_0CB@FMHONLIG@Error?5writing?5TAPE?5header?5again?6@ ; `string'
PUBLIC	?id@?$numpunct@D@std@@2V0locale@2@A		; std::numpunct<char>::id
PUBLIC	?id@?$numpunct@_W@std@@2V0locale@2@A		; std::numpunct<wchar_t>::id
PUBLIC	??_C@_0BI@CFPLBAOH@invalid?5string?5position?$AA@ ; `string'
PUBLIC	??_C@_0BA@JFNIOLAK@string?5too?5long?$AA@	; `string'
PUBLIC	??_R4error_category@std@@6B@			; std::error_category::`RTTI Complete Object Locator'
PUBLIC	??_R0?AVerror_category@std@@@8			; std::error_category `RTTI Type Descriptor'
PUBLIC	??_R3error_category@std@@8			; std::error_category::`RTTI Class Hierarchy Descriptor'
PUBLIC	??_R2error_category@std@@8			; std::error_category::`RTTI Base Class Array'
PUBLIC	??_R1A@?0A@EA@error_category@std@@8		; std::error_category::`RTTI Base Class Descriptor at (0,-1,0,64)'
PUBLIC	??_R4_Generic_error_category@std@@6B@		; std::_Generic_error_category::`RTTI Complete Object Locator'
PUBLIC	??_R0?AV_Generic_error_category@std@@@8		; std::_Generic_error_category `RTTI Type Descriptor'
PUBLIC	??_R3_Generic_error_category@std@@8		; std::_Generic_error_category::`RTTI Class Hierarchy Descriptor'
PUBLIC	??_R2_Generic_error_category@std@@8		; std::_Generic_error_category::`RTTI Base Class Array'
PUBLIC	??_R1A@?0A@EA@_Generic_error_category@std@@8	; std::_Generic_error_category::`RTTI Base Class Descriptor at (0,-1,0,64)'
PUBLIC	??_R4_Iostream_error_category@std@@6B@		; std::_Iostream_error_category::`RTTI Complete Object Locator'
PUBLIC	??_R0?AV_Iostream_error_category@std@@@8	; std::_Iostream_error_category `RTTI Type Descriptor'
PUBLIC	??_R3_Iostream_error_category@std@@8		; std::_Iostream_error_category::`RTTI Class Hierarchy Descriptor'
PUBLIC	??_R2_Iostream_error_category@std@@8		; std::_Iostream_error_category::`RTTI Base Class Array'
PUBLIC	??_R1A@?0A@EA@_Iostream_error_category@std@@8	; std::_Iostream_error_category::`RTTI Base Class Descriptor at (0,-1,0,64)'
PUBLIC	??_R4_System_error_category@std@@6B@		; std::_System_error_category::`RTTI Complete Object Locator'
PUBLIC	??_R0?AV_System_error_category@std@@@8		; std::_System_error_category `RTTI Type Descriptor'
PUBLIC	??_R3_System_error_category@std@@8		; std::_System_error_category::`RTTI Class Hierarchy Descriptor'
PUBLIC	??_R2_System_error_category@std@@8		; std::_System_error_category::`RTTI Base Class Array'
PUBLIC	??_R1A@?0A@EA@_System_error_category@std@@8	; std::_System_error_category::`RTTI Base Class Descriptor at (0,-1,0,64)'
PUBLIC	__real@00000000
PUBLIC	__real@0000000000000000
PUBLIC	__real@392c987a
PUBLIC	__real@3a83126f
PUBLIC	__real@3d4ccccd
PUBLIC	__real@3d800000
PUBLIC	__real@3d924925
PUBLIC	__real@3dcccccd
PUBLIC	__real@3e4ccccd
PUBLIC	__real@3f4ccccd
PUBLIC	__real@3f800000
PUBLIC	__real@3fa66666
PUBLIC	__real@40000000
PUBLIC	__real@40200000
PUBLIC	__real@40400000
PUBLIC	__real@40490fd9
PUBLIC	__real@40800000
PUBLIC	__real@40c90fd9
PUBLIC	__real@40c90fdb
PUBLIC	__real@41000000
PUBLIC	__real@41200000
PUBLIC	__real@41a00000
PUBLIC	__real@42652ee1
PUBLIC	__real@42f00000
PUBLIC	__real@43b40000
PUBLIC	__real@447a0000
PUBLIC	__real@44898000
PUBLIC	__real@bf800000
PUBLIC	__real@c0e00000
PUBLIC	__real@c1a00000
PUBLIC	__real@c1f00000
PUBLIC	__xmm@41f00000000000000000000000000000
PUBLIC	__xmm@80000000800000008000000080000000
EXTRN	__purecall:PROC
EXTRN	??2@YAPAXI@Z:PROC				; operator new
EXTRN	??3@YAXPAX@Z:PROC				; operator delete
EXTRN	_atexit:PROC
EXTRN	_memcpy:PROC
EXTRN	_memset:PROC
EXTRN	_strcpy:PROC
EXTRN	_strcat:PROC
EXTRN	_strlen:PROC
EXTRN	_memmove:PROC
EXTRN	__imp__CreateFileA@28:PROC
EXTRN	__imp__GetFileSize@8:PROC
EXTRN	__imp__CloseHandle@4:PROC
EXTRN	__imp__MapViewOfFile@20:PROC
EXTRN	__imp__UnmapViewOfFile@4:PROC
EXTRN	__imp__CreateFileMappingA@24:PROC
EXTRN	_fclose:PROC
EXTRN	_fopen:PROC
EXTRN	_fread:PROC
EXTRN	_fscanf:PROC
EXTRN	_fseek:PROC
EXTRN	_fwrite:PROC
EXTRN	_remove:PROC
EXTRN	_sprintf:PROC
EXTRN	_qsort:PROC
EXTRN	__mbschr:PROC
EXTRN	_acos:PROC
EXTRN	_atan:PROC
EXTRN	_fabs:PROC
EXTRN	??_V@YAXPAX@Z:PROC				; operator delete[]
EXTRN	??_U@YAPAXI@Z:PROC				; operator new[]
EXTRN	?_Xbad_alloc@std@@YAXXZ:PROC			; std::_Xbad_alloc
EXTRN	?_Xlength_error@std@@YAXPBD@Z:PROC		; std::_Xlength_error
EXTRN	?_Xout_of_range@std@@YAXPBD@Z:PROC		; std::_Xout_of_range
EXTRN	??_Eerror_category@std@@UAEPAXI@Z:PROC		; std::error_category::`vector deleting destructor'
EXTRN	?_Syserror_map@std@@YAPBDH@Z:PROC		; std::_Syserror_map
EXTRN	?_Winerror_map@std@@YAPBDH@Z:PROC		; std::_Winerror_map
EXTRN	??_E_Generic_error_category@std@@UAEPAXI@Z:PROC	; std::_Generic_error_category::`vector deleting destructor'
EXTRN	??_E_Iostream_error_category@std@@UAEPAXI@Z:PROC ; std::_Iostream_error_category::`vector deleting destructor'
EXTRN	??_E_System_error_category@std@@UAEPAXI@Z:PROC	; std::_System_error_category::`vector deleting destructor'
EXTRN	??0DrawableTrail@@QAE@HM@Z:PROC			; DrawableTrail::DrawableTrail
EXTRN	?AddPointAtHead@DrawableTrail@@QAEXPAUTpoint@@K@Z:PROC ; DrawableTrail::AddPointAtHead
EXTRN	?RewindTrail@DrawableTrail@@QAEHK@Z:PROC	; DrawableTrail::RewindTrail
EXTRN	?TrimTrail@DrawableTrail@@QAEXH@Z:PROC		; DrawableTrail::TrimTrail
EXTRN	??0DrawableTracer@@QAE@M@Z:PROC			; DrawableTracer::DrawableTracer
EXTRN	?InsertObject@RViewPoint@@QAEXPAVDrawableObject@@@Z:PROC ; RViewPoint::InsertObject
EXTRN	?RemoveObject@RViewPoint@@QAEXPAVDrawableObject@@@Z:PROC ; RViewPoint::RemoveObject
EXTRN	?SetTextureSet@ObjectInstance@@QAEXH@Z:PROC	; ObjectInstance::SetTextureSet
EXTRN	??0DrawableBSP@@QAE@HPBUTpoint@@PBUTrotation@@M@Z:PROC ; DrawableBSP::DrawableBSP
EXTRN	?Update@DrawableBSP@@QAEXPBUTpoint@@PBUTrotation@@@Z:PROC ; DrawableBSP::Update
EXTRN	?SetDOFangle@DrawableBSP@@QAEXHM@Z:PROC		; DrawableBSP::SetDOFangle
EXTRN	?SetSwitchMask@DrawableBSP@@QAEXHK@Z:PROC	; DrawableBSP::SetSwitchMask
EXTRN	??0Drawable2D@@QAE@HMPAUTpoint@@@Z:PROC		; Drawable2D::Drawable2D
EXTRN	?SetPosition@Drawable2D@@QAEXPAUTpoint@@@Z:PROC	; Drawable2D::SetPosition
EXTRN	??0DrawablePoled@@QAE@HPBUTpoint@@PBUTrotation@@M@Z:PROC ; DrawablePoled::DrawablePoled
EXTRN	?SetDataLabel@DrawablePoled@@QAEXKPAD@Z:PROC	; DrawablePoled::SetDataLabel
EXTRN	??0DrawablePlatform@@QAE@M@Z:PROC		; DrawablePlatform::DrawablePlatform
EXTRN	?InsertStaticSurface@DrawablePlatform@@QAEXPAVDrawableBuilding@@@Z:PROC ; DrawablePlatform::InsertStaticSurface
EXTRN	?InsertStaticObject@DrawablePlatform@@QAEXPAVDrawableObject@@@Z:PROC ; DrawablePlatform::InsertStaticObject
EXTRN	??0DrawableBuilding@@QAE@HPAUTpoint@@MM@Z:PROC	; DrawableBuilding::DrawableBuilding
EXTRN	??0DrawableRoadbed@@QAE@HHPAUTpoint@@MMMM@Z:PROC ; DrawableRoadbed::DrawableRoadbed
EXTRN	??0DrawableBridge@@QAE@M@Z:PROC			; DrawableBridge::DrawableBridge
EXTRN	?AddSegment@DrawableBridge@@QAEXPAVDrawableRoadbed@@@Z:PROC ; DrawableBridge::AddSegment
EXTRN	?ReplacePiece@DrawableBridge@@QAEXPAVDrawableRoadbed@@0@Z:PROC ; DrawableBridge::ReplacePiece
EXTRN	_MonoPrint:PROC
EXTRN	?F4IsBadReadPtr@@YA_NPBXI@Z:PROC		; F4IsBadReadPtr
EXTRN	?SetPosition@VuEntity@@QAEXMMM@Z:PROC		; VuEntity::SetPosition
EXTRN	?SetDelta@VuEntity@@QAEXMMM@Z:PROC		; VuEntity::SetDelta
EXTRN	__imp__timeGetTime@0:PROC
EXTRN	?SetStatusBit@SimBaseClass@@QAEXH@Z:PROC	; SimBaseClass::SetStatusBit
EXTRN	?ClearStatusBit@SimBaseClass@@QAEXH@Z:PROC	; SimBaseClass::ClearStatusBit
EXTRN	??0SfxClass@@QAE@HPAUTpoint@@MM@Z:PROC		; SfxClass::SfxClass
EXTRN	??0SfxClass@@QAE@HHPAUTpoint@@0MM@Z:PROC	; SfxClass::SfxClass
EXTRN	??0SfxClass@@QAE@HHPAVSimBaseClass@@MM@Z:PROC	; SfxClass::SfxClass
EXTRN	??1SfxClass@@QAE@XZ:PROC			; SfxClass::~SfxClass
EXTRN	?ACMIStart@SfxClass@@QAEXPAVRViewPoint@@MM@Z:PROC ; SfxClass::ACMIStart
EXTRN	?ACMIExec@SfxClass@@QAEHM@Z:PROC		; SfxClass::ACMIExec
EXTRN	??0SimStaticClass@@QAE@H@Z:PROC			; SimStaticClass::SimStaticClass
EXTRN	??0SimFeatureClass@@QAE@H@Z:PROC		; SimFeatureClass::SimFeatureClass
EXTRN	?MapVisId@@YAKK@Z:PROC				; MapVisId
EXTRN	?GetTimeString@@YAPADKQADH@Z:PROC		; GetTimeString
EXTRN	?CalcTransformMatrix@@YAXPAVSimBaseClass@@@Z:PROC ; CalcTransformMatrix
EXTRN	?CreateDrawable@@YAXPAVSimBaseClass@@M@Z:PROC	; CreateDrawable
EXTRN	?CalcKIAS@@YAMMM@Z:PROC				; CalcKIAS
EXTRN	?ProcessEventListForACMI@@YAPAVEventElement@@XZ:PROC ; ProcessEventListForACMI
EXTRN	?ClearSortedEventList@@YAXXZ:PROC		; ClearSortedEventList
EXTRN	@__security_check_cookie@4:PROC
EXTRN	__CxxThrowException@8:PROC
EXTRN	___CxxFrameHandler3:PROC
EXTRN	?IMatrix@@3UTrotation@@B:BYTE			; IMatrix
EXTRN	??_7type_info@@6B@:QWORD			; type_info::`vftable'
EXTRN	?TeamSimColorList@@3PAJA:BYTE			; TeamSimColorList
EXTRN	___security_cookie:DWORD
EXTRN	__fltused:DWORD
_BSS	SEGMENT
_piecewise_construct DB 01H DUP (?)
	ALIGN	4

_allocator_arg DB 01H DUP (?)
_BSS	ENDS
;	COMDAT ?_Generic_object@?$_Error_objects@H@std@@2V_Generic_error_category@2@A
_BSS	SEGMENT
?_Generic_object@?$_Error_objects@H@std@@2V_Generic_error_category@2@A DD 01H DUP (?) ; std::_Error_objects<int>::_Generic_object
_BSS	ENDS
;	COMDAT ?_Iostream_object@?$_Error_objects@H@std@@2V_Iostream_error_category@2@A
_BSS	SEGMENT
?_Iostream_object@?$_Error_objects@H@std@@2V_Iostream_error_category@2@A DD 01H DUP (?) ; std::_Error_objects<int>::_Iostream_object
_BSS	ENDS
;	COMDAT ?_System_object@?$_Error_objects@H@std@@2V_System_error_category@2@A
_BSS	SEGMENT
?_System_object@?$_Error_objects@H@std@@2V_System_error_category@2@A DD 01H DUP (?) ; std::_Error_objects<int>::_System_object
_BSS	ENDS
;	COMDAT ?id@?$num_put@DV?$back_insert_iterator@V?$basic_string@DU?$char_traits@D@std@@V?$allocator@D@2@@std@@@std@@@std@@2V0locale@2@A
_BSS	SEGMENT
?id@?$num_put@DV?$back_insert_iterator@V?$basic_string@DU?$char_traits@D@std@@V?$allocator@D@2@@std@@@std@@@std@@2V0locale@2@A DD 01H DUP (?) ; std::num_put<char,std::back_insert_iterator<std::basic_string<char,std::char_traits<char>,std::allocator<char> > > >::id
_BSS	ENDS
;	COMDAT ?id@?$num_put@_WV?$back_insert_iterator@V?$basic_string@_WU?$char_traits@_W@std@@V?$allocator@_W@2@@std@@@std@@@std@@2V0locale@2@A
_BSS	SEGMENT
?id@?$num_put@_WV?$back_insert_iterator@V?$basic_string@_WU?$char_traits@_W@std@@V?$allocator@_W@2@@std@@@std@@@std@@2V0locale@2@A DD 01H DUP (?) ; std::num_put<wchar_t,std::back_insert_iterator<std::basic_string<wchar_t,std::char_traits<wchar_t>,std::allocator<wchar_t> > > >::id
_BSS	ENDS
;	COMDAT ?id@?$numpunct@D@std@@2V0locale@2@A
_BSS	SEGMENT
?id@?$numpunct@D@std@@2V0locale@2@A DD 01H DUP (?)	; std::numpunct<char>::id
_BSS	ENDS
;	COMDAT ?id@?$numpunct@_W@std@@2V0locale@2@A
_BSS	SEGMENT
?id@?$numpunct@_W@std@@2V0locale@2@A DD 01H DUP (?)	; std::numpunct<wchar_t>::id
_BSS	ENDS
CRT$XCU	SEGMENT
_piecewise_construct$initializer$ DD FLAT:??__Epiecewise_construct@std@@YAXXZ
CRT$XCU	ENDS
;	COMDAT __xmm@80000000800000008000000080000000
CONST	SEGMENT
__xmm@80000000800000008000000080000000 DB 00H, 00H, 00H, 080H, 00H, 00H, 00H
	DB	080H, 00H, 00H, 00H, 080H, 00H, 00H, 00H, 080H
CONST	ENDS
;	COMDAT __xmm@41f00000000000000000000000000000
CONST	SEGMENT
__xmm@41f00000000000000000000000000000 DB 00H, 00H, 00H, 00H, 00H, 00H, 00H
	DB	00H, 00H, 00H, 00H, 00H, 00H, 00H, 0f0H, 'A'
CONST	ENDS
;	COMDAT __real@c1f00000
CONST	SEGMENT
__real@c1f00000 DD 0c1f00000r			; -30
CONST	ENDS
;	COMDAT __real@c1a00000
CONST	SEGMENT
__real@c1a00000 DD 0c1a00000r			; -20
CONST	ENDS
;	COMDAT __real@c0e00000
CONST	SEGMENT
__real@c0e00000 DD 0c0e00000r			; -7
CONST	ENDS
;	COMDAT __real@bf800000
CONST	SEGMENT
__real@bf800000 DD 0bf800000r			; -1
CONST	ENDS
;	COMDAT __real@44898000
CONST	SEGMENT
__real@44898000 DD 044898000r			; 1100
CONST	ENDS
;	COMDAT __real@447a0000
CONST	SEGMENT
__real@447a0000 DD 0447a0000r			; 1000
CONST	ENDS
;	COMDAT __real@43b40000
CONST	SEGMENT
__real@43b40000 DD 043b40000r			; 360
CONST	ENDS
;	COMDAT __real@42f00000
CONST	SEGMENT
__real@42f00000 DD 042f00000r			; 120
CONST	ENDS
;	COMDAT __real@42652ee1
CONST	SEGMENT
__real@42652ee1 DD 042652ee1r			; 57.2958
CONST	ENDS
;	COMDAT __real@41a00000
CONST	SEGMENT
__real@41a00000 DD 041a00000r			; 20
CONST	ENDS
;	COMDAT __real@41200000
CONST	SEGMENT
__real@41200000 DD 041200000r			; 10
CONST	ENDS
;	COMDAT __real@41000000
CONST	SEGMENT
__real@41000000 DD 041000000r			; 8
CONST	ENDS
;	COMDAT __real@40c90fdb
CONST	SEGMENT
__real@40c90fdb DD 040c90fdbr			; 6.28319
CONST	ENDS
;	COMDAT __real@40c90fd9
CONST	SEGMENT
__real@40c90fd9 DD 040c90fd9r			; 6.28318
CONST	ENDS
;	COMDAT __real@40800000
CONST	SEGMENT
__real@40800000 DD 040800000r			; 4
CONST	ENDS
;	COMDAT __real@40490fd9
CONST	SEGMENT
__real@40490fd9 DD 040490fd9r			; 3.14159
CONST	ENDS
;	COMDAT __real@40400000
CONST	SEGMENT
__real@40400000 DD 040400000r			; 3
CONST	ENDS
;	COMDAT __real@40200000
CONST	SEGMENT
__real@40200000 DD 040200000r			; 2.5
CONST	ENDS
;	COMDAT __real@40000000
CONST	SEGMENT
__real@40000000 DD 040000000r			; 2
CONST	ENDS
;	COMDAT __real@3fa66666
CONST	SEGMENT
__real@3fa66666 DD 03fa66666r			; 1.3
CONST	ENDS
;	COMDAT __real@3f800000
CONST	SEGMENT
__real@3f800000 DD 03f800000r			; 1
CONST	ENDS
;	COMDAT __real@3f4ccccd
CONST	SEGMENT
__real@3f4ccccd DD 03f4ccccdr			; 0.8
CONST	ENDS
;	COMDAT __real@3e4ccccd
CONST	SEGMENT
__real@3e4ccccd DD 03e4ccccdr			; 0.2
CONST	ENDS
;	COMDAT __real@3dcccccd
CONST	SEGMENT
__real@3dcccccd DD 03dcccccdr			; 0.1
CONST	ENDS
;	COMDAT __real@3d924925
CONST	SEGMENT
__real@3d924925 DD 03d924925r			; 0.0714286
CONST	ENDS
;	COMDAT __real@3d800000
CONST	SEGMENT
__real@3d800000 DD 03d800000r			; 0.0625
CONST	ENDS
;	COMDAT __real@3d4ccccd
CONST	SEGMENT
__real@3d4ccccd DD 03d4ccccdr			; 0.05
CONST	ENDS
;	COMDAT __real@3a83126f
CONST	SEGMENT
__real@3a83126f DD 03a83126fr			; 0.001
CONST	ENDS
;	COMDAT __real@392c987a
CONST	SEGMENT
__real@392c987a DD 0392c987ar			; 0.0001646
CONST	ENDS
;	COMDAT __real@0000000000000000
CONST	SEGMENT
__real@0000000000000000 DQ 00000000000000000r	; 0
CONST	ENDS
;	COMDAT __real@00000000
CONST	SEGMENT
__real@00000000 DD 000000000r			; 0
CONST	ENDS
;	COMDAT ??_R1A@?0A@EA@_System_error_category@std@@8
rdata$r	SEGMENT
??_R1A@?0A@EA@_System_error_category@std@@8 DD FLAT:??_R0?AV_System_error_category@std@@@8 ; std::_System_error_category::`RTTI Base Class Descriptor at (0,-1,0,64)'
	DD	02H
	DD	00H
	DD	0ffffffffH
	DD	00H
	DD	040H
	DD	FLAT:??_R3_System_error_category@std@@8
rdata$r	ENDS
;	COMDAT ??_R2_System_error_category@std@@8
rdata$r	SEGMENT
??_R2_System_error_category@std@@8 DD FLAT:??_R1A@?0A@EA@_System_error_category@std@@8 ; std::_System_error_category::`RTTI Base Class Array'
	DD	FLAT:??_R1A@?0A@EA@_Generic_error_category@std@@8
	DD	FLAT:??_R1A@?0A@EA@error_category@std@@8
rdata$r	ENDS
;	COMDAT ??_R3_System_error_category@std@@8
rdata$r	SEGMENT
??_R3_System_error_category@std@@8 DD 00H		; std::_System_error_category::`RTTI Class Hierarchy Descriptor'
	DD	00H
	DD	03H
	DD	FLAT:??_R2_System_error_category@std@@8
rdata$r	ENDS
;	COMDAT ??_R0?AV_System_error_category@std@@@8
_DATA	SEGMENT
??_R0?AV_System_error_category@std@@@8 DD FLAT:??_7type_info@@6B@ ; std::_System_error_category `RTTI Type Descriptor'
	DD	00H
	DB	'.?AV_System_error_category@std@@', 00H
_DATA	ENDS
;	COMDAT ??_R4_System_error_category@std@@6B@
rdata$r	SEGMENT
??_R4_System_error_category@std@@6B@ DD 00H		; std::_System_error_category::`RTTI Complete Object Locator'
	DD	00H
	DD	00H
	DD	FLAT:??_R0?AV_System_error_category@std@@@8
	DD	FLAT:??_R3_System_error_category@std@@8
rdata$r	ENDS
;	COMDAT ??_R1A@?0A@EA@_Iostream_error_category@std@@8
rdata$r	SEGMENT
??_R1A@?0A@EA@_Iostream_error_category@std@@8 DD FLAT:??_R0?AV_Iostream_error_category@std@@@8 ; std::_Iostream_error_category::`RTTI Base Class Descriptor at (0,-1,0,64)'
	DD	02H
	DD	00H
	DD	0ffffffffH
	DD	00H
	DD	040H
	DD	FLAT:??_R3_Iostream_error_category@std@@8
rdata$r	ENDS
;	COMDAT ??_R2_Iostream_error_category@std@@8
rdata$r	SEGMENT
??_R2_Iostream_error_category@std@@8 DD FLAT:??_R1A@?0A@EA@_Iostream_error_category@std@@8 ; std::_Iostream_error_category::`RTTI Base Class Array'
	DD	FLAT:??_R1A@?0A@EA@_Generic_error_category@std@@8
	DD	FLAT:??_R1A@?0A@EA@error_category@std@@8
rdata$r	ENDS
;	COMDAT ??_R3_Iostream_error_category@std@@8
rdata$r	SEGMENT
??_R3_Iostream_error_category@std@@8 DD 00H		; std::_Iostream_error_category::`RTTI Class Hierarchy Descriptor'
	DD	00H
	DD	03H
	DD	FLAT:??_R2_Iostream_error_category@std@@8
rdata$r	ENDS
;	COMDAT ??_R0?AV_Iostream_error_category@std@@@8
_DATA	SEGMENT
??_R0?AV_Iostream_error_category@std@@@8 DD FLAT:??_7type_info@@6B@ ; std::_Iostream_error_category `RTTI Type Descriptor'
	DD	00H
	DB	'.?AV_Iostream_error_category@std@@', 00H
_DATA	ENDS
;	COMDAT ??_R4_Iostream_error_category@std@@6B@
rdata$r	SEGMENT
??_R4_Iostream_error_category@std@@6B@ DD 00H		; std::_Iostream_error_category::`RTTI Complete Object Locator'
	DD	00H
	DD	00H
	DD	FLAT:??_R0?AV_Iostream_error_category@std@@@8
	DD	FLAT:??_R3_Iostream_error_category@std@@8
rdata$r	ENDS
;	COMDAT ??_R1A@?0A@EA@_Generic_error_category@std@@8
rdata$r	SEGMENT
??_R1A@?0A@EA@_Generic_error_category@std@@8 DD FLAT:??_R0?AV_Generic_error_category@std@@@8 ; std::_Generic_error_category::`RTTI Base Class Descriptor at (0,-1,0,64)'
	DD	01H
	DD	00H
	DD	0ffffffffH
	DD	00H
	DD	040H
	DD	FLAT:??_R3_Generic_error_category@std@@8
rdata$r	ENDS
;	COMDAT ??_R2_Generic_error_category@std@@8
rdata$r	SEGMENT
??_R2_Generic_error_category@std@@8 DD FLAT:??_R1A@?0A@EA@_Generic_error_category@std@@8 ; std::_Generic_error_category::`RTTI Base Class Array'
	DD	FLAT:??_R1A@?0A@EA@error_category@std@@8
rdata$r	ENDS
;	COMDAT ??_R3_Generic_error_category@std@@8
rdata$r	SEGMENT
??_R3_Generic_error_category@std@@8 DD 00H		; std::_Generic_error_category::`RTTI Class Hierarchy Descriptor'
	DD	00H
	DD	02H
	DD	FLAT:??_R2_Generic_error_category@std@@8
rdata$r	ENDS
;	COMDAT ??_R0?AV_Generic_error_category@std@@@8
_DATA	SEGMENT
??_R0?AV_Generic_error_category@std@@@8 DD FLAT:??_7type_info@@6B@ ; std::_Generic_error_category `RTTI Type Descriptor'
	DD	00H
	DB	'.?AV_Generic_error_category@std@@', 00H
_DATA	ENDS
;	COMDAT ??_R4_Generic_error_category@std@@6B@
rdata$r	SEGMENT
??_R4_Generic_error_category@std@@6B@ DD 00H		; std::_Generic_error_category::`RTTI Complete Object Locator'
	DD	00H
	DD	00H
	DD	FLAT:??_R0?AV_Generic_error_category@std@@@8
	DD	FLAT:??_R3_Generic_error_category@std@@8
rdata$r	ENDS
;	COMDAT ??_R1A@?0A@EA@error_category@std@@8
rdata$r	SEGMENT
??_R1A@?0A@EA@error_category@std@@8 DD FLAT:??_R0?AVerror_category@std@@@8 ; std::error_category::`RTTI Base Class Descriptor at (0,-1,0,64)'
	DD	00H
	DD	00H
	DD	0ffffffffH
	DD	00H
	DD	040H
	DD	FLAT:??_R3error_category@std@@8
rdata$r	ENDS
;	COMDAT ??_R2error_category@std@@8
rdata$r	SEGMENT
??_R2error_category@std@@8 DD FLAT:??_R1A@?0A@EA@error_category@std@@8 ; std::error_category::`RTTI Base Class Array'
rdata$r	ENDS
;	COMDAT ??_R3error_category@std@@8
rdata$r	SEGMENT
??_R3error_category@std@@8 DD 00H			; std::error_category::`RTTI Class Hierarchy Descriptor'
	DD	00H
	DD	01H
	DD	FLAT:??_R2error_category@std@@8
rdata$r	ENDS
;	COMDAT ??_R0?AVerror_category@std@@@8
_DATA	SEGMENT
??_R0?AVerror_category@std@@@8 DD FLAT:??_7type_info@@6B@ ; std::error_category `RTTI Type Descriptor'
	DD	00H
	DB	'.?AVerror_category@std@@', 00H
_DATA	ENDS
;	COMDAT ??_R4error_category@std@@6B@
rdata$r	SEGMENT
??_R4error_category@std@@6B@ DD 00H			; std::error_category::`RTTI Complete Object Locator'
	DD	00H
	DD	00H
	DD	FLAT:??_R0?AVerror_category@std@@@8
	DD	FLAT:??_R3error_category@std@@8
rdata$r	ENDS
;	COMDAT ??_C@_0BA@JFNIOLAK@string?5too?5long?$AA@
CONST	SEGMENT
??_C@_0BA@JFNIOLAK@string?5too?5long?$AA@ DB 'string too long', 00H ; `string'
CONST	ENDS
;	COMDAT ??_C@_0BI@CFPLBAOH@invalid?5string?5position?$AA@
CONST	SEGMENT
??_C@_0BI@CFPLBAOH@invalid?5string?5position?$AA@ DB 'invalid string posi'
	DB	'tion', 00H					; `string'
CONST	ENDS
;	COMDAT ??_C@_0CB@FMHONLIG@Error?5writing?5TAPE?5header?5again?6@
CONST	SEGMENT
??_C@_0CB@FMHONLIG@Error?5writing?5TAPE?5header?5again?6@ DB 'Error writi'
	DB	'ng TAPE header again', 0aH, 00H		; `string'
CONST	ENDS
;	COMDAT ??_C@_0BK@FLEPGJPC@Error?5seeking?5TAPE?5start?6?$AA@
CONST	SEGMENT
??_C@_0BK@FLEPGJPC@Error?5seeking?5TAPE?5start?6?$AA@ DB 'Error seeking T'
	DB	'APE start', 0aH, 00H			; `string'
CONST	ENDS
;	COMDAT ??_C@_0CC@JEGADOOG@Error?5writing?5TAPE?5event?5element@
CONST	SEGMENT
??_C@_0CC@JEGADOOG@Error?5writing?5TAPE?5event?5element@ DB 'Error writin'
	DB	'g TAPE event element', 0aH, 00H		; `string'
CONST	ENDS
;	COMDAT ??_C@_0M@NJALOMFG@?$CF0?40f?5deg?1s?$AA@
CONST	SEGMENT
??_C@_0M@NJALOMFG@?$CF0?40f?5deg?1s?$AA@ DB '%0.0f deg/s', 00H ; `string'
CONST	ENDS
;	COMDAT ??_C@_09NLDMLMDP@?$CF0?40f?5Kts?$AA@
CONST	SEGMENT
??_C@_09NLDMLMDP@?$CF0?40f?5Kts?$AA@ DB '%0.0f Kts', 00H ; `string'
CONST	ENDS
;	COMDAT ??_C@_08HOOMBMBP@?$CF0?40f?5ft?$AA@
CONST	SEGMENT
??_C@_08HOOMBMBP@?$CF0?40f?5ft?$AA@ DB '%0.0f ft', 00H	; `string'
CONST	ENDS
;	COMDAT ??_C@_09LABFLCHL@?$CF0?40f?5Deg?$AA@
CONST	SEGMENT
??_C@_09LABFLCHL@?$CF0?40f?5Deg?$AA@ DB '%0.0f Deg', 00H ; `string'
CONST	ENDS
;	COMDAT ??_C@_09MJDCFFNJ@?$CF0?40f?5Rng?$AA@
CONST	SEGMENT
??_C@_09MJDCFFNJ@?$CF0?40f?5Rng?$AA@ DB '%0.0f Rng', 00H ; `string'
CONST	ENDS
;	COMDAT ??_C@_0O@DFPLFLLG@Ejected?5Pilot?$AA@
CONST	SEGMENT
??_C@_0O@DFPLFLLG@Ejected?5Pilot?$AA@ DB 'Ejected Pilot', 00H ; `string'
CONST	ENDS
;	COMDAT ??_C@_0CD@FIBPIHAP@MapViewOfFile?5failed?5on?5tape?5ope@
CONST	SEGMENT
??_C@_0CD@FIBPIHAP@MapViewOfFile?5failed?5on?5tape?5ope@ DB 'MapViewOfFil'
	DB	'e failed on tape open', 0aH, 00H		; `string'
CONST	ENDS
;	COMDAT ??_C@_0CH@LHLGEOPK@CreateFileMapping?5failed?5on?5tape@
CONST	SEGMENT
??_C@_0CH@LHLGEOPK@CreateFileMapping?5failed?5on?5tape@ DB 'CreateFileMap'
	DB	'ping failed on tape open', 0aH, 00H		; `string'
CONST	ENDS
;	COMDAT ??_C@_0CA@CJCMBNNE@CreateFile?5failed?5on?5tape?5open?6?$AA@
CONST	SEGMENT
??_C@_0CA@CJCMBNNE@CreateFile?5failed?5on?5tape?5open?6?$AA@ DB 'CreateFi'
	DB	'le failed on tape open', 0aH, 00H		; `string'
CONST	ENDS
;	COMDAT ??_C@_0BD@DGLPMPEG@Invalid?5Tape?5File?6?$AA@
CONST	SEGMENT
??_C@_0BD@DGLPMPEG@Invalid?5Tape?5File?6?$AA@ DB 'Invalid Tape File', 0aH
	DB	00H						; `string'
CONST	ENDS
;	COMDAT ??_C@_0BP@ONECOFNE@Unable?5to?5to?5read?5tape?5header?6?$AA@
CONST	SEGMENT
??_C@_0BP@ONECOFNE@Unable?5to?5to?5read?5tape?5header?6?$AA@ DB 'Unable t'
	DB	'o to read tape header', 0aH, 00H		; `string'
CONST	ENDS
;	COMDAT ??_C@_0BK@GKMGOOKA@Unable?5to?5Open?5Tape?5File?6?$AA@
CONST	SEGMENT
??_C@_0BK@GKMGOOKA@Unable?5to?5Open?5Tape?5File?6?$AA@ DB 'Unable to Open'
	DB	' Tape File', 0aH, 00H			; `string'
CONST	ENDS
;	COMDAT ??_C@_0BN@FBPPAKAM@Error?5writing?5new?5tape?5file?6?$AA@
CONST	SEGMENT
??_C@_0BN@FBPPAKAM@Error?5writing?5new?5tape?5file?6?$AA@ DB 'Error writi'
	DB	'ng new tape file', 0aH, 00H			; `string'
CONST	ENDS
;	COMDAT ??_C@_0BN@POLMAADA@Error?5opening?5new?5tape?5file?6?$AA@
CONST	SEGMENT
??_C@_0BN@POLMAADA@Error?5opening?5new?5tape?5file?6?$AA@ DB 'Error openi'
	DB	'ng new tape file', 0aH, 00H			; `string'
CONST	ENDS
;	COMDAT ??_C@_02GMLFBBN@wb?$AA@
CONST	SEGMENT
??_C@_02GMLFBBN@wb?$AA@ DB 'wb', 00H			; `string'
CONST	ENDS
;	COMDAT ??_C@_0CJ@CBDOLJBO@ACMITape?5Import?3?5Writing?5Tape?5Fi@
CONST	SEGMENT
??_C@_0CJ@CBDOLJBO@ACMITape?5Import?3?5Writing?5Tape?5Fi@ DB 'ACMITape Im'
	DB	'port: Writing Tape File ....', 0aH, 00H	; `string'
CONST	ENDS
;	COMDAT ??_C@_0CP@NAKIBKKI@ACMITape?5Import?3?5Threading?5Entit@
CONST	SEGMENT
??_C@_0CP@NAKIBKKI@ACMITape?5Import?3?5Threading?5Entit@ DB 'ACMITape Imp'
	DB	'ort: Threading Entity Events ....', 0aH, 00H ; `string'
CONST	ENDS
;	COMDAT ??_C@_0CL@MAGFLMAL@ACMITape?5Import?3?5Threading?5Posit@
CONST	SEGMENT
??_C@_0CL@MAGFLMAL@ACMITape?5Import?3?5Threading?5Posit@ DB 'ACMITape Imp'
	DB	'ort: Threading Positions ....', 0aH, 00H	; `string'
CONST	ENDS
;	COMDAT ??_C@_0CI@POBDCJEJ@ACMITape?5Import?3?5Parsing?5Entitie@
CONST	SEGMENT
??_C@_0CI@POBDCJEJ@ACMITape?5Import?3?5Parsing?5Entitie@ DB 'ACMITape Imp'
	DB	'ort: Parsing Entities ....', 0aH, 00H	; `string'
CONST	ENDS
;	COMDAT ??_C@_0CI@FJDDFKJJ@ACMITape?5Import?3?5Reading?5Raw?5Dat@
CONST	SEGMENT
??_C@_0CI@FJDDFKJJ@ACMITape?5Import?3?5Reading?5Raw?5Dat@ DB 'ACMITape Im'
	DB	'port: Reading Raw Data ....', 0aH, 00H	; `string'
CONST	ENDS
;	COMDAT ??_C@_0BP@GDDCLOAC@Error?5opening?5acmi?5flight?5file?$AA@
CONST	SEGMENT
??_C@_0BP@GDDCLOAC@Error?5opening?5acmi?5flight?5file?$AA@ DB 'Error open'
	DB	'ing acmi flight file', 00H			; `string'
CONST	ENDS
;	COMDAT ??_C@_02JDPG@rb?$AA@
CONST	SEGMENT
??_C@_02JDPG@rb?$AA@ DB 'rb', 00H			; `string'
CONST	ENDS
;	COMDAT ??_C@_0BD@JECPNOK@?$CFf?5?$CFf?5?$CFf?5?$CFf?5?$CFf?5?$CFf?6?$AA@
CONST	SEGMENT
??_C@_0BD@JECPNOK@?$CFf?5?$CFf?5?$CFf?5?$CFf?5?$CFf?5?$CFf?6?$AA@ DB '%f '
	DB	'%f %f %f %f %f', 0aH, 00H			; `string'
CONST	ENDS
;	COMDAT ??_C@_05OKMLJOMC@?$CFd?5?$CFd?$AA@
CONST	SEGMENT
??_C@_05OKMLJOMC@?$CFd?5?$CFd?$AA@ DB '%d %d', 00H	; `string'
CONST	ENDS
;	COMDAT ??_C@_0CI@GLDDLJCL@Unable?5to?5test?5memory?5mapped?5tap@
CONST	SEGMENT
??_C@_0CI@GLDDLJCL@Unable?5to?5test?5memory?5mapped?5tap@ DB 'Unable to t'
	DB	'est memory mapped tape file', 0aH, 00H	; `string'
CONST	ENDS
;	COMDAT ??_C@_0CM@JNEEFDOD@Entity?5?$CFd?3?5Type?5?$DN?5?$CFd?0?5Id?5?$DN?5?$CFd?0?5O@
CONST	SEGMENT
??_C@_0CM@JNEEFDOD@Entity?5?$CFd?3?5Type?5?$DN?5?$CFd?0?5Id?5?$DN?5?$CFd?0?5O@ DB 'E'
	DB	'ntity %d: Type = %d, Id = %d, Offset = %d', 0aH, 00H ; `string'
CONST	ENDS
;	COMDAT ??_C@_08DIILMCIP@acmibin?2?$AA@
CONST	SEGMENT
??_C@_08DIILMCIP@acmibin?2?$AA@ DB 'acmibin\', 00H	; `string'
CONST	ENDS
;	COMDAT ??_C@_0EF@GKJIDJHD@General?5event?5occured?5in?5reverse@
CONST	SEGMENT
??_C@_0EF@GKJIDJHD@General?5event?5occured?5in?5reverse@ DB 'General even'
	DB	't occured in reverse ACMI Tape play --> event type: %d.', 0aH
	DB	00H						; `string'
CONST	ENDS
;	COMDAT ??_C@_0EF@HDIDEHKI@General?5event?5occured?5in?5forward@
CONST	SEGMENT
??_C@_0EF@HDIDEHKI@General?5event?5occured?5in?5forward@ DB 'General even'
	DB	't occured in forward ACMI Tape play --> event type: %d.', 0aH
	DB	00H						; `string'
CONST	ENDS
;	COMDAT ??_C@_06FHFOAHML@system?$AA@
CONST	SEGMENT
??_C@_06FHFOAHML@system?$AA@ DB 'system', 00H		; `string'
CONST	ENDS
;	COMDAT ??_7_System_error_category@std@@6B@
CONST	SEGMENT
??_7_System_error_category@std@@6B@ DD FLAT:??_R4_System_error_category@std@@6B@ ; std::_System_error_category::`vftable'
	DD	FLAT:??_E_System_error_category@std@@UAEPAXI@Z
	DD	FLAT:?name@_System_error_category@std@@UBEPBDXZ
	DD	FLAT:?message@_System_error_category@std@@UBE?AV?$basic_string@DU?$char_traits@D@std@@V?$allocator@D@2@@2@H@Z
	DD	FLAT:?default_error_condition@_System_error_category@std@@UBE?AVerror_condition@2@H@Z
	DD	FLAT:?equivalent@error_category@std@@UBE_NABVerror_code@2@H@Z
	DD	FLAT:?equivalent@error_category@std@@UBE_NHABVerror_condition@2@@Z
CONST	ENDS
;	COMDAT ??_C@_0BG@PADBLCHM@iostream?5stream?5error?$AA@
CONST	SEGMENT
??_C@_0BG@PADBLCHM@iostream?5stream?5error?$AA@ DB 'iostream stream error'
	DB	00H						; `string'
CONST	ENDS
;	COMDAT ??_C@_08LLGCOLLL@iostream?$AA@
CONST	SEGMENT
??_C@_08LLGCOLLL@iostream?$AA@ DB 'iostream', 00H	; `string'
CONST	ENDS
;	COMDAT ??_7_Iostream_error_category@std@@6B@
CONST	SEGMENT
??_7_Iostream_error_category@std@@6B@ DD FLAT:??_R4_Iostream_error_category@std@@6B@ ; std::_Iostream_error_category::`vftable'
	DD	FLAT:??_E_Iostream_error_category@std@@UAEPAXI@Z
	DD	FLAT:?name@_Iostream_error_category@std@@UBEPBDXZ
	DD	FLAT:?message@_Iostream_error_category@std@@UBE?AV?$basic_string@DU?$char_traits@D@std@@V?$allocator@D@2@@2@H@Z
	DD	FLAT:?default_error_condition@error_category@std@@UBE?AVerror_condition@2@H@Z
	DD	FLAT:?equivalent@error_category@std@@UBE_NABVerror_code@2@H@Z
	DD	FLAT:?equivalent@error_category@std@@UBE_NHABVerror_condition@2@@Z
CONST	ENDS
;	COMDAT ??_C@_0O@BFJCFAAK@unknown?5error?$AA@
CONST	SEGMENT
??_C@_0O@BFJCFAAK@unknown?5error?$AA@ DB 'unknown error', 00H ; `string'
CONST	ENDS
;	COMDAT ??_C@_07DCLBNMLN@generic?$AA@
CONST	SEGMENT
??_C@_07DCLBNMLN@generic?$AA@ DB 'generic', 00H		; `string'
CONST	ENDS
;	COMDAT ??_7_Generic_error_category@std@@6B@
CONST	SEGMENT
??_7_Generic_error_category@std@@6B@ DD FLAT:??_R4_Generic_error_category@std@@6B@ ; std::_Generic_error_category::`vftable'
	DD	FLAT:??_E_Generic_error_category@std@@UAEPAXI@Z
	DD	FLAT:?name@_Generic_error_category@std@@UBEPBDXZ
	DD	FLAT:?message@_Generic_error_category@std@@UBE?AV?$basic_string@DU?$char_traits@D@std@@V?$allocator@D@2@@2@H@Z
	DD	FLAT:?default_error_condition@error_category@std@@UBE?AVerror_condition@2@H@Z
	DD	FLAT:?equivalent@error_category@std@@UBE_NABVerror_code@2@H@Z
	DD	FLAT:?equivalent@error_category@std@@UBE_NHABVerror_condition@2@@Z
CONST	ENDS
;	COMDAT ??_7error_category@std@@6B@
CONST	SEGMENT
??_7error_category@std@@6B@ DD FLAT:??_R4error_category@std@@6B@ ; std::error_category::`vftable'
	DD	FLAT:??_Eerror_category@std@@UAEPAXI@Z
	DD	FLAT:__purecall
	DD	FLAT:__purecall
	DD	FLAT:?default_error_condition@error_category@std@@UBE?AVerror_condition@2@H@Z
	DD	FLAT:?equivalent@error_category@std@@UBE_NABVerror_code@2@H@Z
	DD	FLAT:?equivalent@error_category@std@@UBE_NHABVerror_condition@2@@Z
CONST	ENDS
;	COMDAT ??_C@_00CNPNBAHC@?$AA@
CONST	SEGMENT
??_C@_00CNPNBAHC@?$AA@ DB 00H				; `string'
CONST	ENDS
;	COMDAT xdata$x
xdata$x	SEGMENT
__unwindtable$??$construct@PADAAPAD@?$allocator@D@std@@QAEXPAPADAAPAD@Z DD 0ffffffffH
	DD	FLAT:__unwindfunclet$??$construct@PADAAPAD@?$allocator@D@std@@QAEXPAPADAAPAD@Z$0
__ehfuncinfo$??$construct@PADAAPAD@?$allocator@D@std@@QAEXPAPADAAPAD@Z DD 019930522H
	DD	01H
	DD	FLAT:__unwindtable$??$construct@PADAAPAD@?$allocator@D@std@@QAEXPAPADAAPAD@Z
	DD	2 DUP(00H)
	DD	2 DUP(00H)
	DD	00H
	DD	01H
xdata$x	ENDS
xdata$x	SEGMENT
__ehfuncinfo$?CreateFeatureDrawable@ACMITape@@AAEXPAUSimTapeEntity@@@Z DD 019930522H
	DD	06H
	DD	FLAT:__unwindtable$?CreateFeatureDrawable@ACMITape@@AAEXPAUSimTapeEntity@@@Z
	DD	2 DUP(00H)
	DD	2 DUP(00H)
	DD	00H
	DD	01H
__ehfuncinfo$?InsertActiveEvent@ACMITape@@AAEPAU_ActiveEvent@@PAUACMIEventHeader@@M@Z DD 019930522H
	DD	06H
	DD	FLAT:__unwindtable$?InsertActiveEvent@ACMITape@@AAEPAU_ActiveEvent@@PAUACMIEventHeader@@M@Z
	DD	2 DUP(00H)
	DD	2 DUP(00H)
	DD	00H
	DD	01H
__ehfuncinfo$?SetupSimTapeEntities@ACMITape@@AAEXXZ DD 019930522H
	DD	0dH
	DD	FLAT:__unwindtable$?SetupSimTapeEntities@ACMITape@@AAEXXZ
	DD	2 DUP(00H)
	DD	2 DUP(00H)
	DD	00H
	DD	01H
__unwindtable$?CreateFeatureDrawable@ACMITape@@AAEXPAUSimTapeEntity@@@Z DD 0ffffffffH
	DD	FLAT:__unwindfunclet$?CreateFeatureDrawable@ACMITape@@AAEXPAUSimTapeEntity@@@Z$0
	DD	0ffffffffH
	DD	FLAT:__unwindfunclet$?CreateFeatureDrawable@ACMITape@@AAEXPAUSimTapeEntity@@@Z$1
	DD	0ffffffffH
	DD	FLAT:__unwindfunclet$?CreateFeatureDrawable@ACMITape@@AAEXPAUSimTapeEntity@@@Z$2
	DD	0ffffffffH
	DD	FLAT:__unwindfunclet$?CreateFeatureDrawable@ACMITape@@AAEXPAUSimTapeEntity@@@Z$3
	DD	0ffffffffH
	DD	FLAT:__unwindfunclet$?CreateFeatureDrawable@ACMITape@@AAEXPAUSimTapeEntity@@@Z$4
	DD	0ffffffffH
	DD	FLAT:__unwindfunclet$?CreateFeatureDrawable@ACMITape@@AAEXPAUSimTapeEntity@@@Z$5
__unwindtable$?InsertActiveEvent@ACMITape@@AAEPAU_ActiveEvent@@PAUACMIEventHeader@@M@Z DD 0ffffffffH
	DD	FLAT:__unwindfunclet$?InsertActiveEvent@ACMITape@@AAEPAU_ActiveEvent@@PAUACMIEventHeader@@M@Z$0
	DD	0ffffffffH
	DD	FLAT:__unwindfunclet$?InsertActiveEvent@ACMITape@@AAEPAU_ActiveEvent@@PAUACMIEventHeader@@M@Z$1
	DD	0ffffffffH
	DD	FLAT:__unwindfunclet$?InsertActiveEvent@ACMITape@@AAEPAU_ActiveEvent@@PAUACMIEventHeader@@M@Z$2
	DD	0ffffffffH
	DD	FLAT:__unwindfunclet$?InsertActiveEvent@ACMITape@@AAEPAU_ActiveEvent@@PAUACMIEventHeader@@M@Z$3
	DD	0ffffffffH
	DD	FLAT:__unwindfunclet$?InsertActiveEvent@ACMITape@@AAEPAU_ActiveEvent@@PAUACMIEventHeader@@M@Z$4
	DD	0ffffffffH
	DD	FLAT:__unwindfunclet$?InsertActiveEvent@ACMITape@@AAEPAU_ActiveEvent@@PAUACMIEventHeader@@M@Z$5
__unwindtable$?SetupSimTapeEntities@ACMITape@@AAEXXZ DD 0ffffffffH
	DD	FLAT:__unwindfunclet$?SetupSimTapeEntities@ACMITape@@AAEXXZ$0
	DD	0ffffffffH
	DD	FLAT:__unwindfunclet$?SetupSimTapeEntities@ACMITape@@AAEXXZ$1
	DD	0ffffffffH
	DD	FLAT:__unwindfunclet$?SetupSimTapeEntities@ACMITape@@AAEXXZ$2
	DD	0ffffffffH
	DD	FLAT:__unwindfunclet$?SetupSimTapeEntities@ACMITape@@AAEXXZ$3
	DD	0ffffffffH
	DD	FLAT:__unwindfunclet$?SetupSimTapeEntities@ACMITape@@AAEXXZ$4
	DD	0ffffffffH
	DD	FLAT:__unwindfunclet$?SetupSimTapeEntities@ACMITape@@AAEXXZ$5
	DD	0ffffffffH
	DD	FLAT:__unwindfunclet$?SetupSimTapeEntities@ACMITape@@AAEXXZ$6
	DD	0ffffffffH
	DD	FLAT:__unwindfunclet$?SetupSimTapeEntities@ACMITape@@AAEXXZ$7
	DD	0ffffffffH
	DD	FLAT:__unwindfunclet$?SetupSimTapeEntities@ACMITape@@AAEXXZ$8
	DD	0ffffffffH
	DD	FLAT:__unwindfunclet$?SetupSimTapeEntities@ACMITape@@AAEXXZ$9
	DD	0ffffffffH
	DD	FLAT:__unwindfunclet$?SetupSimTapeEntities@ACMITape@@AAEXXZ$10
	DD	0ffffffffH
	DD	FLAT:__unwindfunclet$?SetupSimTapeEntities@ACMITape@@AAEXXZ$11
	DD	0ffffffffH
	DD	FLAT:__unwindfunclet$?SetupSimTapeEntities@ACMITape@@AAEXXZ$12
xdata$x	ENDS
;	COMDAT xdata$x
xdata$x	SEGMENT
__catchsym$?_Copy@?$basic_string@DU?$char_traits@D@std@@V?$allocator@D@2@@std@@QAEXII@Z$5 DD 040H
	DD	00H
	DD	00H
	DD	FLAT:__catch$?_Copy@?$basic_string@DU?$char_traits@D@std@@V?$allocator@D@2@@std@@QAEXII@Z$0
__catchsym$?_Copy@?$basic_string@DU?$char_traits@D@std@@V?$allocator@D@2@@std@@QAEXII@Z$4 DD 040H
	DD	00H
	DD	00H
	DD	FLAT:__catch$?_Copy@?$basic_string@DU?$char_traits@D@std@@V?$allocator@D@2@@std@@QAEXII@Z$1
__unwindtable$?_Copy@?$basic_string@DU?$char_traits@D@std@@V?$allocator@D@2@@std@@QAEXII@Z DD 0ffffffffH
	DD	00H
	DD	0ffffffffH
	DD	00H
	DD	01H
	DD	00H
	DD	01H
	DD	00H
__ehfuncinfo$?_Copy@?$basic_string@DU?$char_traits@D@std@@V?$allocator@D@2@@std@@QAEXII@Z DD 019930522H
	DD	04H
	DD	FLAT:__unwindtable$?_Copy@?$basic_string@DU?$char_traits@D@std@@V?$allocator@D@2@@std@@QAEXII@Z
	DD	02H
	DD	FLAT:__tryblocktable$?_Copy@?$basic_string@DU?$char_traits@D@std@@V?$allocator@D@2@@std@@QAEXII@Z
	DD	2 DUP(00H)
	DD	00H
	DD	01H
__tryblocktable$?_Copy@?$basic_string@DU?$char_traits@D@std@@V?$allocator@D@2@@std@@QAEXII@Z DD 02H
	DD	02H
	DD	03H
	DD	01H
	DD	FLAT:__catchsym$?_Copy@?$basic_string@DU?$char_traits@D@std@@V?$allocator@D@2@@std@@QAEXII@Z$4
	DD	00H
	DD	00H
	DD	03H
	DD	01H
	DD	FLAT:__catchsym$?_Copy@?$basic_string@DU?$char_traits@D@std@@V?$allocator@D@2@@std@@QAEXII@Z$5
xdata$x	ENDS
CRT$XCU	SEGMENT
_allocator_arg$initializer$ DD FLAT:??__Eallocator_arg@std@@YAXXZ
CRT$XCU	ENDS
;	COMDAT CRT$XCU
CRT$XCU	SEGMENT
?_Generic_object$initializer$@?$_Error_objects@H@std@@2P6AXXZA DD FLAT:??__E?_Generic_object@?$_Error_objects@H@std@@2V_Generic_error_category@2@A@@YAXXZ ; std::_Error_objects<int>::_Generic_object$initializer$
CRT$XCU	ENDS
;	COMDAT CRT$XCU
CRT$XCU	SEGMENT
?_Iostream_object$initializer$@?$_Error_objects@H@std@@2P6AXXZA DD FLAT:??__E?_Iostream_object@?$_Error_objects@H@std@@2V_Iostream_error_category@2@A@@YAXXZ ; std::_Error_objects<int>::_Iostream_object$initializer$
CRT$XCU	ENDS
;	COMDAT CRT$XCU
CRT$XCU	SEGMENT
?_System_object$initializer$@?$_Error_objects@H@std@@2P6AXXZA DD FLAT:??__E?_System_object@?$_Error_objects@H@std@@2V_System_error_category@2@A@@YAXXZ ; std::_Error_objects<int>::_System_object$initializer$
CRT$XCU	ENDS
;	COMDAT CRT$XCU
CRT$XCU	SEGMENT
?id$initializer$@?$num_put@DV?$back_insert_iterator@V?$basic_string@DU?$char_traits@D@std@@V?$allocator@D@2@@std@@@std@@@std@@2P6AXXZA DD FLAT:??__E?id@?$num_put@DV?$back_insert_iterator@V?$basic_string@DU?$char_traits@D@std@@V?$allocator@D@2@@std@@@std@@@std@@2V0locale@2@A@@YAXXZ ; std::num_put<char,std::back_insert_iterator<std::basic_string<char,std::char_traits<char>,std::allocator<char> > > >::id$initializer$
CRT$XCU	ENDS
;	COMDAT CRT$XCU
CRT$XCU	SEGMENT
?id$initializer$@?$num_put@_WV?$back_insert_iterator@V?$basic_string@_WU?$char_traits@_W@std@@V?$allocator@_W@2@@std@@@std@@@std@@2P6AXXZA DD FLAT:??__E?id@?$num_put@_WV?$back_insert_iterator@V?$basic_string@_WU?$char_traits@_W@std@@V?$allocator@_W@2@@std@@@std@@@std@@2V0locale@2@A@@YAXXZ ; std::num_put<wchar_t,std::back_insert_iterator<std::basic_string<wchar_t,std::char_traits<wchar_t>,std::allocator<wchar_t> > > >::id$initializer$
CRT$XCU	ENDS
;	COMDAT CRT$XCU
CRT$XCU	SEGMENT
?id$initializer$@?$numpunct@D@std@@2P6AXXZA DD FLAT:??__E?id@?$numpunct@D@std@@2V0locale@2@A@@YAXXZ ; std::numpunct<char>::id$initializer$
CRT$XCU	ENDS
;	COMDAT CRT$XCU
CRT$XCU	SEGMENT
?id$initializer$@?$numpunct@_W@std@@2P6AXXZA DD FLAT:??__E?id@?$numpunct@_W@std@@2V0locale@2@A@@YAXXZ ; std::numpunct<wchar_t>::id$initializer$
CRT$XCU	ENDS
; Function compile flags: /Odtp
; File c:\program files (x86)\microsoft visual studio 11.0\vc\include\xmemory0
;	COMDAT ??$destroy@PAD@?$allocator@D@std@@QAEXPAPAD@Z
_TEXT	SEGMENT
_this$ = -4						; size = 4
__Ptr$ = 8						; size = 4
??$destroy@PAD@?$allocator@D@std@@QAEXPAPAD@Z PROC	; std::allocator<char>::destroy<char *>, COMDAT
; _this$ = ecx

; 621  : 		void destroy(_Uty *_Ptr)

	push	ebp
	mov	ebp, esp
	push	ecx
	mov	DWORD PTR _this$[ebp], ecx

; 622  : 		{	// destroy object at _Ptr
; 623  : 		_Ptr->~_Uty();
; 624  : 		}

	mov	esp, ebp
	pop	ebp
	ret	4
??$destroy@PAD@?$allocator@D@std@@QAEXPAPAD@Z ENDP	; std::allocator<char>::destroy<char *>
_TEXT	ENDS
; Function compile flags: /Odtp
; File c:\program files (x86)\microsoft visual studio 11.0\vc\include\xmemory0
;	COMDAT ??$construct@PADAAPAD@?$allocator@D@std@@QAEXPAPADAAPAD@Z
_TEXT	SEGMENT
$T2 = -28						; size = 4
_this$ = -24						; size = 4
tv73 = -20						; size = 4
$T3 = -16						; size = 4
__$EHRec$ = -12						; size = 12
__Ptr$ = 8						; size = 4
__V0$ = 12						; size = 4
??$construct@PADAAPAD@?$allocator@D@std@@QAEXPAPADAAPAD@Z PROC ; std::allocator<char>::construct<char *,char * &>, COMDAT
; _this$ = ecx

; 617  : _VARIADIC_EXPAND_0X(_ALLOC_MEMBER_CONSTRUCT, , , , )

	push	ebp
	mov	ebp, esp
	push	-1
	push	__ehhandler$??$construct@PADAAPAD@?$allocator@D@std@@QAEXPAPADAAPAD@Z
	mov	eax, DWORD PTR fs:0
	push	eax
	sub	esp, 16					; 00000010H
	mov	eax, DWORD PTR ___security_cookie
	xor	eax, ebp
	push	eax
	lea	eax, DWORD PTR __$EHRec$[ebp]
	mov	DWORD PTR fs:0, eax
	mov	DWORD PTR _this$[ebp], ecx
	mov	eax, DWORD PTR __Ptr$[ebp]
	push	eax
	push	4
	call	??2@YAPAXIPAX@Z				; operator new
	add	esp, 8
	mov	DWORD PTR $T3[ebp], eax
	mov	DWORD PTR __$EHRec$[ebp+8], 0
	cmp	DWORD PTR $T3[ebp], 0
	je	SHORT $LN3@construct
	mov	ecx, DWORD PTR __V0$[ebp]
	push	ecx
	call	??$forward@AAPAD@std@@YAAAPADAAPAD@Z	; std::forward<char * &>
	add	esp, 4
	mov	edx, DWORD PTR $T3[ebp]
	mov	eax, DWORD PTR [eax]
	mov	DWORD PTR [edx], eax
	mov	ecx, DWORD PTR $T3[ebp]
	mov	DWORD PTR tv73[ebp], ecx
	jmp	SHORT $LN4@construct
$LN3@construct:
	mov	DWORD PTR tv73[ebp], 0
$LN4@construct:
	mov	edx, DWORD PTR tv73[ebp]
	mov	DWORD PTR $T2[ebp], edx
	mov	DWORD PTR __$EHRec$[ebp+8], -1
	mov	ecx, DWORD PTR __$EHRec$[ebp]
	mov	DWORD PTR fs:0, ecx
	pop	ecx
	mov	esp, ebp
	pop	ebp
	ret	8
_TEXT	ENDS
;	COMDAT text$x
text$x	SEGMENT
__unwindfunclet$??$construct@PADAAPAD@?$allocator@D@std@@QAEXPAPADAAPAD@Z$0:
	mov	eax, DWORD PTR __Ptr$[ebp]
	push	eax
	mov	eax, DWORD PTR $T3[ebp]
	push	eax
	call	??3@YAXPAX0@Z				; operator delete
	add	esp, 8
	ret	0
__ehhandler$??$construct@PADAAPAD@?$allocator@D@std@@QAEXPAPADAAPAD@Z:
	mov	edx, DWORD PTR [esp+8]
	lea	eax, DWORD PTR [edx+12]
	mov	ecx, DWORD PTR [edx-20]
	xor	ecx, eax
	call	@__security_check_cookie@4
	mov	eax, OFFSET __ehfuncinfo$??$construct@PADAAPAD@?$allocator@D@std@@QAEXPAPADAAPAD@Z
	jmp	___CxxFrameHandler3
text$x	ENDS
??$construct@PADAAPAD@?$allocator@D@std@@QAEXPAPADAAPAD@Z ENDP ; std::allocator<char>::construct<char *,char * &>
; Function compile flags: /Odtp
; File c:\program files (x86)\microsoft visual studio 11.0\vc\include\xlocnum
;	COMDAT ??__E?id@?$numpunct@_W@std@@2V0locale@2@A@@YAXXZ
text$yc	SEGMENT
??__E?id@?$numpunct@_W@std@@2V0locale@2@A@@YAXXZ PROC	; `dynamic initializer for 'std::numpunct<wchar_t>::id'', COMDAT

; 155  : 		void _Getvals(wchar_t, const lconv *_Ptr, _Locinfo::_Cvtvec)

	push	ebp
	mov	ebp, esp
	push	0
	mov	ecx, OFFSET ?id@?$numpunct@_W@std@@2V0locale@2@A ; std::numpunct<wchar_t>::id
	call	??0id@locale@std@@QAE@I@Z		; std::locale::id::id
	pop	ebp
	ret	0
??__E?id@?$numpunct@_W@std@@2V0locale@2@A@@YAXXZ ENDP	; `dynamic initializer for 'std::numpunct<wchar_t>::id''
text$yc	ENDS
; Function compile flags: /Odtp
; File c:\program files (x86)\microsoft visual studio 11.0\vc\include\xlocnum
;	COMDAT ??__E?id@?$numpunct@D@std@@2V0locale@2@A@@YAXXZ
text$yc	SEGMENT
??__E?id@?$numpunct@D@std@@2V0locale@2@A@@YAXXZ PROC	; `dynamic initializer for 'std::numpunct<char>::id'', COMDAT

; 155  : 		void _Getvals(wchar_t, const lconv *_Ptr, _Locinfo::_Cvtvec)

	push	ebp
	mov	ebp, esp
	push	0
	mov	ecx, OFFSET ?id@?$numpunct@D@std@@2V0locale@2@A ; std::numpunct<char>::id
	call	??0id@locale@std@@QAE@I@Z		; std::locale::id::id
	pop	ebp
	ret	0
??__E?id@?$numpunct@D@std@@2V0locale@2@A@@YAXXZ ENDP	; `dynamic initializer for 'std::numpunct<char>::id''
text$yc	ENDS
; Function compile flags: /Odtp
; File c:\program files (x86)\microsoft visual studio 11.0\vc\include\xlocnum
;	COMDAT ??__E?id@?$num_put@_WV?$back_insert_iterator@V?$basic_string@_WU?$char_traits@_W@std@@V?$allocator@_W@2@@std@@@std@@@std@@2V0locale@2@A@@YAXXZ
text$yc	SEGMENT
??__E?id@?$num_put@_WV?$back_insert_iterator@V?$basic_string@_WU?$char_traits@_W@std@@V?$allocator@_W@2@@std@@@std@@@std@@2V0locale@2@A@@YAXXZ PROC ; `dynamic initializer for 'std::num_put<wchar_t,std::back_insert_iterator<std::basic_string<wchar_t,std::char_traits<wchar_t>,std::allocator<wchar_t> > > >::id'', COMDAT

; 155  : 		void _Getvals(wchar_t, const lconv *_Ptr, _Locinfo::_Cvtvec)

	push	ebp
	mov	ebp, esp
	push	0
	mov	ecx, OFFSET ?id@?$num_put@_WV?$back_insert_iterator@V?$basic_string@_WU?$char_traits@_W@std@@V?$allocator@_W@2@@std@@@std@@@std@@2V0locale@2@A ; std::num_put<wchar_t,std::back_insert_iterator<std::basic_string<wchar_t,std::char_traits<wchar_t>,std::allocator<wchar_t> > > >::id
	call	??0id@locale@std@@QAE@I@Z		; std::locale::id::id
	pop	ebp
	ret	0
??__E?id@?$num_put@_WV?$back_insert_iterator@V?$basic_string@_WU?$char_traits@_W@std@@V?$allocator@_W@2@@std@@@std@@@std@@2V0locale@2@A@@YAXXZ ENDP ; `dynamic initializer for 'std::num_put<wchar_t,std::back_insert_iterator<std::basic_string<wchar_t,std::char_traits<wchar_t>,std::allocator<wchar_t> > > >::id''
text$yc	ENDS
; Function compile flags: /Odtp
; File c:\program files (x86)\microsoft visual studio 11.0\vc\include\xlocnum
;	COMDAT ??__E?id@?$num_put@DV?$back_insert_iterator@V?$basic_string@DU?$char_traits@D@std@@V?$allocator@D@2@@std@@@std@@@std@@2V0locale@2@A@@YAXXZ
text$yc	SEGMENT
??__E?id@?$num_put@DV?$back_insert_iterator@V?$basic_string@DU?$char_traits@D@std@@V?$allocator@D@2@@std@@@std@@@std@@2V0locale@2@A@@YAXXZ PROC ; `dynamic initializer for 'std::num_put<char,std::back_insert_iterator<std::basic_string<char,std::char_traits<char>,std::allocator<char> > > >::id'', COMDAT

; 155  : 		void _Getvals(wchar_t, const lconv *_Ptr, _Locinfo::_Cvtvec)

	push	ebp
	mov	ebp, esp
	push	0
	mov	ecx, OFFSET ?id@?$num_put@DV?$back_insert_iterator@V?$basic_string@DU?$char_traits@D@std@@V?$allocator@D@2@@std@@@std@@@std@@2V0locale@2@A ; std::num_put<char,std::back_insert_iterator<std::basic_string<char,std::char_traits<char>,std::allocator<char> > > >::id
	call	??0id@locale@std@@QAE@I@Z		; std::locale::id::id
	pop	ebp
	ret	0
??__E?id@?$num_put@DV?$back_insert_iterator@V?$basic_string@DU?$char_traits@D@std@@V?$allocator@D@2@@std@@@std@@@std@@2V0locale@2@A@@YAXXZ ENDP ; `dynamic initializer for 'std::num_put<char,std::back_insert_iterator<std::basic_string<char,std::char_traits<char>,std::allocator<char> > > >::id''
text$yc	ENDS
; Function compile flags: /Odtp
; File c:\program files (x86)\microsoft visual studio 11.0\vc\include\xmemory0
;	COMDAT ??$destroy@PAD@?$allocator_traits@V?$allocator@D@std@@@std@@SAXAAV?$allocator@D@1@PAPAD@Z
_TEXT	SEGMENT
__Al$ = 8						; size = 4
__Ptr$ = 12						; size = 4
??$destroy@PAD@?$allocator_traits@V?$allocator@D@std@@@std@@SAXAAV?$allocator@D@1@PAPAD@Z PROC ; std::allocator_traits<std::allocator<char> >::destroy<char *>, COMDAT

; 755  : 		static void destroy(_Alloc& _Al, _Uty *_Ptr)

	push	ebp
	mov	ebp, esp

; 756  : 		{	// destroy object at _Ptr
; 757  : 		_Al.destroy(_Ptr);

	mov	eax, DWORD PTR __Ptr$[ebp]
	push	eax
	mov	ecx, DWORD PTR __Al$[ebp]
	call	??$destroy@PAD@?$allocator@D@std@@QAEXPAPAD@Z ; std::allocator<char>::destroy<char *>

; 758  : 		}

	pop	ebp
	ret	0
??$destroy@PAD@?$allocator_traits@V?$allocator@D@std@@@std@@SAXAAV?$allocator@D@1@PAPAD@Z ENDP ; std::allocator_traits<std::allocator<char> >::destroy<char *>
_TEXT	ENDS
; Function compile flags: /Odtp
; File c:\program files (x86)\microsoft visual studio 11.0\vc\include\xmemory0
;	COMDAT ??$construct@PADAAPAD@?$allocator_traits@V?$allocator@D@std@@@std@@SAXAAV?$allocator@D@1@PAPADAAPAD@Z
_TEXT	SEGMENT
__Al$ = 8						; size = 4
__Ptr$ = 12						; size = 4
__V0$ = 16						; size = 4
??$construct@PADAAPAD@?$allocator_traits@V?$allocator@D@std@@@std@@SAXAAV?$allocator@D@1@PAPADAAPAD@Z PROC ; std::allocator_traits<std::allocator<char> >::construct<char *,char * &>, COMDAT

; 751  : _VARIADIC_EXPAND_0X(_ALLOC_TRAITS_SPECIAL_CONSTRUCT, , , , )

	push	ebp
	mov	ebp, esp
	mov	eax, DWORD PTR __V0$[ebp]
	push	eax
	call	??$forward@AAPAD@std@@YAAAPADAAPAD@Z	; std::forward<char * &>
	add	esp, 4
	push	eax
	mov	ecx, DWORD PTR __Ptr$[ebp]
	push	ecx
	mov	ecx, DWORD PTR __Al$[ebp]
	call	??$construct@PADAAPAD@?$allocator@D@std@@QAEXPAPADAAPAD@Z ; std::allocator<char>::construct<char *,char * &>
	pop	ebp
	ret	0
??$construct@PADAAPAD@?$allocator_traits@V?$allocator@D@std@@@std@@SAXAAV?$allocator@D@1@PAPADAAPAD@Z ENDP ; std::allocator_traits<std::allocator<char> >::construct<char *,char * &>
_TEXT	ENDS
; Function compile flags: /Odtp
; File c:\program files (x86)\microsoft visual studio 11.0\vc\include\type_traits
;	COMDAT ??$forward@AAPAD@std@@YAAAPADAAPAD@Z
_TEXT	SEGMENT
__Arg$ = 8						; size = 4
??$forward@AAPAD@std@@YAAAPADAAPAD@Z PROC		; std::forward<char * &>, COMDAT

; 1775 : 	{	// forward an lvalue

	push	ebp
	mov	ebp, esp

; 1776 : 	return (static_cast<_Ty&&>(_Arg));

	mov	eax, DWORD PTR __Arg$[ebp]

; 1777 : 	}

	pop	ebp
	ret	0
??$forward@AAPAD@std@@YAAAPADAAPAD@Z ENDP		; std::forward<char * &>
_TEXT	ENDS
; Function compile flags: /Odtp
;	COMDAT ??__F?_System_object@?$_Error_objects@H@std@@2V_System_error_category@2@A@@YAXXZ
text$yd	SEGMENT
??__F?_System_object@?$_Error_objects@H@std@@2V_System_error_category@2@A@@YAXXZ PROC ; `dynamic atexit destructor for 'std::_Error_objects<int>::_System_object'', COMDAT
	push	ebp
	mov	ebp, esp
	mov	ecx, OFFSET ?_System_object@?$_Error_objects@H@std@@2V_System_error_category@2@A ; std::_Error_objects<int>::_System_object
	call	??1_System_error_category@std@@UAE@XZ
	pop	ebp
	ret	0
??__F?_System_object@?$_Error_objects@H@std@@2V_System_error_category@2@A@@YAXXZ ENDP ; `dynamic atexit destructor for 'std::_Error_objects<int>::_System_object''
text$yd	ENDS
; Function compile flags: /Odtp
; File c:\program files (x86)\microsoft visual studio 11.0\vc\include\xmemory0
;	COMDAT ??__E?_System_object@?$_Error_objects@H@std@@2V_System_error_category@2@A@@YAXXZ
text$yc	SEGMENT
??__E?_System_object@?$_Error_objects@H@std@@2V_System_error_category@2@A@@YAXXZ PROC ; `dynamic initializer for 'std::_Error_objects<int>::_System_object'', COMDAT

; 627  : 		{	// estimate maximum array size

	push	ebp
	mov	ebp, esp
	mov	ecx, OFFSET ?_System_object@?$_Error_objects@H@std@@2V_System_error_category@2@A ; std::_Error_objects<int>::_System_object
	call	??0_System_error_category@std@@QAE@XZ	; std::_System_error_category::_System_error_category
	push	OFFSET ??__F?_System_object@?$_Error_objects@H@std@@2V_System_error_category@2@A@@YAXXZ ; `dynamic atexit destructor for 'std::_Error_objects<int>::_System_object''
	call	_atexit
	add	esp, 4
	pop	ebp
	ret	0
??__E?_System_object@?$_Error_objects@H@std@@2V_System_error_category@2@A@@YAXXZ ENDP ; `dynamic initializer for 'std::_Error_objects<int>::_System_object''
text$yc	ENDS
; Function compile flags: /Odtp
;	COMDAT ??__F?_Iostream_object@?$_Error_objects@H@std@@2V_Iostream_error_category@2@A@@YAXXZ
text$yd	SEGMENT
??__F?_Iostream_object@?$_Error_objects@H@std@@2V_Iostream_error_category@2@A@@YAXXZ PROC ; `dynamic atexit destructor for 'std::_Error_objects<int>::_Iostream_object'', COMDAT
	push	ebp
	mov	ebp, esp
	mov	ecx, OFFSET ?_Iostream_object@?$_Error_objects@H@std@@2V_Iostream_error_category@2@A ; std::_Error_objects<int>::_Iostream_object
	call	??1_Iostream_error_category@std@@UAE@XZ
	pop	ebp
	ret	0
??__F?_Iostream_object@?$_Error_objects@H@std@@2V_Iostream_error_category@2@A@@YAXXZ ENDP ; `dynamic atexit destructor for 'std::_Error_objects<int>::_Iostream_object''
text$yd	ENDS
; Function compile flags: /Odtp
; File c:\program files (x86)\microsoft visual studio 11.0\vc\include\xmemory0
;	COMDAT ??__E?_Iostream_object@?$_Error_objects@H@std@@2V_Iostream_error_category@2@A@@YAXXZ
text$yc	SEGMENT
??__E?_Iostream_object@?$_Error_objects@H@std@@2V_Iostream_error_category@2@A@@YAXXZ PROC ; `dynamic initializer for 'std::_Error_objects<int>::_Iostream_object'', COMDAT

; 627  : 		{	// estimate maximum array size

	push	ebp
	mov	ebp, esp
	mov	ecx, OFFSET ?_Iostream_object@?$_Error_objects@H@std@@2V_Iostream_error_category@2@A ; std::_Error_objects<int>::_Iostream_object
	call	??0_Iostream_error_category@std@@QAE@XZ	; std::_Iostream_error_category::_Iostream_error_category
	push	OFFSET ??__F?_Iostream_object@?$_Error_objects@H@std@@2V_Iostream_error_category@2@A@@YAXXZ ; `dynamic atexit destructor for 'std::_Error_objects<int>::_Iostream_object''
	call	_atexit
	add	esp, 4
	pop	ebp
	ret	0
??__E?_Iostream_object@?$_Error_objects@H@std@@2V_Iostream_error_category@2@A@@YAXXZ ENDP ; `dynamic initializer for 'std::_Error_objects<int>::_Iostream_object''
text$yc	ENDS
; Function compile flags: /Odtp
;	COMDAT ??__F?_Generic_object@?$_Error_objects@H@std@@2V_Generic_error_category@2@A@@YAXXZ
text$yd	SEGMENT
??__F?_Generic_object@?$_Error_objects@H@std@@2V_Generic_error_category@2@A@@YAXXZ PROC ; `dynamic atexit destructor for 'std::_Error_objects<int>::_Generic_object'', COMDAT
	push	ebp
	mov	ebp, esp
	mov	ecx, OFFSET ?_Generic_object@?$_Error_objects@H@std@@2V_Generic_error_category@2@A ; std::_Error_objects<int>::_Generic_object
	call	??1_Generic_error_category@std@@UAE@XZ
	pop	ebp
	ret	0
??__F?_Generic_object@?$_Error_objects@H@std@@2V_Generic_error_category@2@A@@YAXXZ ENDP ; `dynamic atexit destructor for 'std::_Error_objects<int>::_Generic_object''
text$yd	ENDS
; Function compile flags: /Odtp
; File c:\program files (x86)\microsoft visual studio 11.0\vc\include\xmemory0
;	COMDAT ??__E?_Generic_object@?$_Error_objects@H@std@@2V_Generic_error_category@2@A@@YAXXZ
text$yc	SEGMENT
??__E?_Generic_object@?$_Error_objects@H@std@@2V_Generic_error_category@2@A@@YAXXZ PROC ; `dynamic initializer for 'std::_Error_objects<int>::_Generic_object'', COMDAT

; 627  : 		{	// estimate maximum array size

	push	ebp
	mov	ebp, esp
	mov	ecx, OFFSET ?_Generic_object@?$_Error_objects@H@std@@2V_Generic_error_category@2@A ; std::_Error_objects<int>::_Generic_object
	call	??0_Generic_error_category@std@@QAE@XZ	; std::_Generic_error_category::_Generic_error_category
	push	OFFSET ??__F?_Generic_object@?$_Error_objects@H@std@@2V_Generic_error_category@2@A@@YAXXZ ; `dynamic atexit destructor for 'std::_Error_objects<int>::_Generic_object''
	call	_atexit
	add	esp, 4
	pop	ebp
	ret	0
??__E?_Generic_object@?$_Error_objects@H@std@@2V_Generic_error_category@2@A@@YAXXZ ENDP ; `dynamic initializer for 'std::_Error_objects<int>::_Generic_object''
text$yc	ENDS
; Function compile flags: /Odtp
; File c:\program files (x86)\microsoft visual studio 11.0\vc\include\xmemory0
;	COMDAT ??$_Allocate@D@std@@YAPADIPAD@Z
_TEXT	SEGMENT
__Ptr$ = -4						; size = 4
__Count$ = 8						; size = 4
___formal$ = 12						; size = 4
??$_Allocate@D@std@@YAPADIPAD@Z PROC			; std::_Allocate<char>, COMDAT

; 22   : 	{	// allocate storage for _Count elements of type _Ty

	push	ebp
	mov	ebp, esp
	push	ecx

; 23   : 	void *_Ptr = 0;

	mov	DWORD PTR __Ptr$[ebp], 0

; 24   : 
; 25   : 	if (_Count == 0)

	cmp	DWORD PTR __Count$[ebp], 0
	jne	SHORT $LN4@Allocate

; 26   : 		;
; 27   : 	else if (((size_t)(-1) / sizeof (_Ty) < _Count)

	jmp	SHORT $LN3@Allocate
$LN4@Allocate:

; 28   : 		|| (_Ptr = ::operator new(_Count * sizeof (_Ty))) == 0)

	cmp	DWORD PTR __Count$[ebp], -1
	ja	SHORT $LN1@Allocate
	mov	eax, DWORD PTR __Count$[ebp]
	push	eax
	call	??2@YAPAXI@Z				; operator new
	add	esp, 4
	mov	DWORD PTR __Ptr$[ebp], eax
	cmp	DWORD PTR __Ptr$[ebp], 0
	jne	SHORT $LN3@Allocate
$LN1@Allocate:

; 29   : 		_Xbad_alloc();	// report no memory

	call	?_Xbad_alloc@std@@YAXXZ			; std::_Xbad_alloc
$LN3@Allocate:

; 30   : 
; 31   : 	return ((_Ty *)_Ptr);

	mov	eax, DWORD PTR __Ptr$[ebp]
$LN6@Allocate:

; 32   : 	}

	mov	esp, ebp
	pop	ebp
	ret	0
??$_Allocate@D@std@@YAPADIPAD@Z ENDP			; std::_Allocate<char>
_TEXT	ENDS
; Function compile flags: /Odtp
; File c:\program files (x86)\microsoft visual studio 11.0\vc\include\xstddef
;	COMDAT ??$addressof@D@std@@YAPADAAD@Z
_TEXT	SEGMENT
__Val$ = 8						; size = 4
??$addressof@D@std@@YAPADAAD@Z PROC			; std::addressof<char>, COMDAT

; 85   : 	{	// return address of _Val

	push	ebp
	mov	ebp, esp

; 86   : 	return (reinterpret_cast<_Ty *>(
; 87   : 		(&const_cast<char&>(
; 88   : 		reinterpret_cast<const volatile char&>(_Val)))));

	mov	eax, DWORD PTR __Val$[ebp]

; 89   : 	}

	pop	ebp
	ret	0
??$addressof@D@std@@YAPADAAD@Z ENDP			; std::addressof<char>
_TEXT	ENDS
; Function compile flags: /Odtp
; File c:\program files (x86)\microsoft visual studio 11.0\vc\include\xmemory0
;	COMDAT ??$destroy@PAD@?$_Wrap_alloc@V?$allocator@D@std@@@std@@QAEXPAPAD@Z
_TEXT	SEGMENT
_this$ = -4						; size = 4
__Ptr$ = 8						; size = 4
??$destroy@PAD@?$_Wrap_alloc@V?$allocator@D@std@@@std@@QAEXPAPAD@Z PROC ; std::_Wrap_alloc<std::allocator<char> >::destroy<char *>, COMDAT
; _this$ = ecx

; 907  : 		void destroy(_Ty *_Ptr)

	push	ebp
	mov	ebp, esp
	push	ecx
	mov	DWORD PTR _this$[ebp], ecx

; 908  : 		{	// destroy object at _Ptr
; 909  : 		_Mytraits::destroy(*this, _Ptr);

	mov	eax, DWORD PTR __Ptr$[ebp]
	push	eax
	mov	ecx, DWORD PTR _this$[ebp]
	push	ecx
	call	??$destroy@PAD@?$allocator_traits@V?$allocator@D@std@@@std@@SAXAAV?$allocator@D@1@PAPAD@Z ; std::allocator_traits<std::allocator<char> >::destroy<char *>
	add	esp, 8

; 910  : 		}

	mov	esp, ebp
	pop	ebp
	ret	4
??$destroy@PAD@?$_Wrap_alloc@V?$allocator@D@std@@@std@@QAEXPAPAD@Z ENDP ; std::_Wrap_alloc<std::allocator<char> >::destroy<char *>
_TEXT	ENDS
; Function compile flags: /Odtp
; File c:\program files (x86)\microsoft visual studio 11.0\vc\include\xmemory0
;	COMDAT ??$construct@PADAAPAD@?$_Wrap_alloc@V?$allocator@D@std@@@std@@QAEXPAPADAAPAD@Z
_TEXT	SEGMENT
_this$ = -4						; size = 4
__Ptr$ = 8						; size = 4
__V0$ = 12						; size = 4
??$construct@PADAAPAD@?$_Wrap_alloc@V?$allocator@D@std@@@std@@QAEXPAPADAAPAD@Z PROC ; std::_Wrap_alloc<std::allocator<char> >::construct<char *,char * &>, COMDAT
; _this$ = ecx

; 903  : _VARIADIC_EXPAND_0X(_WRAP_ALLOC_CONSTRUCT, , , , )

	push	ebp
	mov	ebp, esp
	push	ecx
	mov	DWORD PTR _this$[ebp], ecx
	mov	eax, DWORD PTR __V0$[ebp]
	push	eax
	call	??$forward@AAPAD@std@@YAAAPADAAPAD@Z	; std::forward<char * &>
	add	esp, 4
	push	eax
	mov	ecx, DWORD PTR __Ptr$[ebp]
	push	ecx
	mov	edx, DWORD PTR _this$[ebp]
	push	edx
	call	??$construct@PADAAPAD@?$allocator_traits@V?$allocator@D@std@@@std@@SAXAAV?$allocator@D@1@PAPADAAPAD@Z ; std::allocator_traits<std::allocator<char> >::construct<char *,char * &>
	add	esp, 12					; 0000000cH
	mov	esp, ebp
	pop	ebp
	ret	8
??$construct@PADAAPAD@?$_Wrap_alloc@V?$allocator@D@std@@@std@@QAEXPAPADAAPAD@Z ENDP ; std::_Wrap_alloc<std::allocator<char> >::construct<char *,char * &>
_TEXT	ENDS
; Function compile flags: /Odtp
; File c:\users\zhitao li\documents\visual studio 2012\projects\freefalcon\acmi\src\acmitape.cpp
_TEXT	SEGMENT
$T1 = -12						; size = 4
$T2 = -8						; size = 4
$T3 = -4						; size = 4
_flightFile$ = 8					; size = 4
_rawPositionData$ = 12					; size = 4
?CleanupACMIImportPositionData@@YAXPAU_iobuf@@PAUACMIRawPositionData@@@Z PROC ; CleanupACMIImportPositionData

; 502  : {

	push	ebp
	mov	ebp, esp
	sub	esp, 12					; 0000000cH

; 503  : 	if(flightFile != NULL)

	cmp	DWORD PTR _flightFile$[ebp], 0
	je	SHORT $LN10@CleanupACM

; 504  : 	{
; 505  : 		fclose(flightFile);

	mov	eax, DWORD PTR _flightFile$[ebp]
	push	eax
	call	_fclose
	add	esp, 4
$LN10@CleanupACM:

; 506  : 	}
; 507  : 
; 508  : 	if(rawPositionData != NULL)

	cmp	DWORD PTR _rawPositionData$[ebp], 0
	je	SHORT $LN9@CleanupACM

; 509  : 	{
; 510  : 		delete rawPositionData;

	mov	ecx, DWORD PTR _rawPositionData$[ebp]
	mov	DWORD PTR $T3[ebp], ecx
	mov	edx, DWORD PTR $T3[ebp]
	push	edx
	call	??3@YAXPAX@Z				; operator delete
	add	esp, 4
$LN9@CleanupACM:

; 511  : 	}
; 512  : 
; 513  : 	if ( importEntityList != NULL )

	cmp	DWORD PTR ?importEntityList@@3PAULIST@@A, 0 ; importEntityList
	je	SHORT $LN8@CleanupACM

; 514  : 	{
; 515  : 		DestroyTheList (importEntityList);

	mov	eax, DWORD PTR ?importEntityList@@3PAULIST@@A ; importEntityList
	push	eax
	call	?DestroyTheList@@YAXPAULIST@@@Z		; DestroyTheList
	add	esp, 4

; 516  : 		importEntityList = NULL;

	mov	DWORD PTR ?importEntityList@@3PAULIST@@A, 0 ; importEntityList
$LN8@CleanupACM:

; 517  : 	}
; 518  : 
; 519  : 	if ( importFeatList != NULL )

	cmp	DWORD PTR ?importFeatList@@3PAULIST@@A, 0 ; importFeatList
	je	SHORT $LN7@CleanupACM

; 520  : 	{
; 521  : 		DestroyTheList (importFeatList);

	mov	ecx, DWORD PTR ?importFeatList@@3PAULIST@@A ; importFeatList
	push	ecx
	call	?DestroyTheList@@YAXPAULIST@@@Z		; DestroyTheList
	add	esp, 4

; 522  : 		importFeatList = NULL;

	mov	DWORD PTR ?importFeatList@@3PAULIST@@A, 0 ; importFeatList
$LN7@CleanupACM:

; 523  : 	}
; 524  : 
; 525  : 	if ( importPosList != NULL )

	cmp	DWORD PTR ?importPosList@@3PAULIST@@A, 0 ; importPosList
	je	SHORT $LN6@CleanupACM

; 526  : 	{
; 527  : 		DestroyTheList (importPosList );

	mov	edx, DWORD PTR ?importPosList@@3PAULIST@@A ; importPosList
	push	edx
	call	?DestroyTheList@@YAXPAULIST@@@Z		; DestroyTheList
	add	esp, 4

; 528  : 		importPosList = NULL;

	mov	DWORD PTR ?importPosList@@3PAULIST@@A, 0 ; importPosList
$LN6@CleanupACM:

; 529  : 	}
; 530  : 
; 531  : 	if ( importEntEventList != NULL )

	cmp	DWORD PTR ?importEntEventList@@3PAULIST@@A, 0 ; importEntEventList
	je	SHORT $LN5@CleanupACM

; 532  : 	{
; 533  : 		DestroyTheList (importEntEventList );

	mov	eax, DWORD PTR ?importEntEventList@@3PAULIST@@A ; importEntEventList
	push	eax
	call	?DestroyTheList@@YAXPAULIST@@@Z		; DestroyTheList
	add	esp, 4

; 534  : 		importEntEventList = NULL;

	mov	DWORD PTR ?importEntEventList@@3PAULIST@@A, 0 ; importEntEventList
$LN5@CleanupACM:

; 535  : 	}
; 536  : 
; 537  : 	if ( importEventList != NULL )

	cmp	DWORD PTR ?importEventList@@3PAULIST@@A, 0 ; importEventList
	je	SHORT $LN4@CleanupACM

; 538  : 	{
; 539  : 		DestroyTheList (importEventList );

	mov	ecx, DWORD PTR ?importEventList@@3PAULIST@@A ; importEventList
	push	ecx
	call	?DestroyTheList@@YAXPAULIST@@@Z		; DestroyTheList
	add	esp, 4

; 540  : 		importEventList = NULL;

	mov	DWORD PTR ?importEventList@@3PAULIST@@A, 0 ; importEventList
$LN4@CleanupACM:

; 541  : 	}
; 542  : 
; 543  : 	if ( importEventTrailerList != NULL )

	cmp	DWORD PTR ?importEventTrailerList@@3PAUACMIEventTrailer@@A, 0 ; importEventTrailerList
	je	SHORT $LN3@CleanupACM

; 544  : 	{
; 545  : 		delete [] importEventTrailerList;

	mov	edx, DWORD PTR ?importEventTrailerList@@3PAUACMIEventTrailer@@A ; importEventTrailerList
	mov	DWORD PTR $T2[ebp], edx
	mov	eax, DWORD PTR $T2[ebp]
	push	eax
	call	??_V@YAXPAX@Z				; operator delete[]
	add	esp, 4

; 546  : 		importEventTrailerList = NULL;

	mov	DWORD PTR ?importEventTrailerList@@3PAUACMIEventTrailer@@A, 0 ; importEventTrailerList
$LN3@CleanupACM:

; 547  : 	}
; 548  : 
; 549  : 	if ( importFeatEventList != NULL )

	cmp	DWORD PTR ?importFeatEventList@@3PAULIST@@A, 0 ; importFeatEventList
	je	SHORT $LN2@CleanupACM

; 550  : 	{
; 551  : 		DestroyTheList (importFeatEventList );

	mov	ecx, DWORD PTR ?importFeatEventList@@3PAULIST@@A ; importFeatEventList
	push	ecx
	call	?DestroyTheList@@YAXPAULIST@@@Z		; DestroyTheList
	add	esp, 4

; 552  : 		importFeatEventList = NULL;

	mov	DWORD PTR ?importFeatEventList@@3PAULIST@@A, 0 ; importFeatEventList
$LN2@CleanupACM:

; 553  : 	}
; 554  : 	if(Import_Callsigns)

	cmp	DWORD PTR ?Import_Callsigns@@3PAUACMI_CallRec@@A, 0 ; Import_Callsigns
	je	SHORT $LN11@CleanupACM

; 555  : 	{
; 556  : 		delete Import_Callsigns;

	mov	edx, DWORD PTR ?Import_Callsigns@@3PAUACMI_CallRec@@A ; Import_Callsigns
	mov	DWORD PTR $T1[ebp], edx
	mov	eax, DWORD PTR $T1[ebp]
	push	eax
	call	??3@YAXPAX@Z				; operator delete
	add	esp, 4

; 557  : 		Import_Callsigns=NULL;

	mov	DWORD PTR ?Import_Callsigns@@3PAUACMI_CallRec@@A, 0 ; Import_Callsigns

; 558  : 		import_count=0;

	mov	DWORD PTR ?import_count@@3JA, 0		; import_count
$LN11@CleanupACM:

; 559  : 	}
; 560  : }

	mov	esp, ebp
	pop	ebp
	ret	0
?CleanupACMIImportPositionData@@YAXPAU_iobuf@@PAUACMIRawPositionData@@@Z ENDP ; CleanupACMIImportPositionData
_TEXT	ENDS
; Function compile flags: /Odtp
; File c:\users\zhitao li\documents\visual studio 2012\projects\freefalcon\acmi\src\acmitape.cpp
_TEXT	SEGMENT
tv131 = -8						; size = 4
_result$ = -4						; size = 4
_flightFile$ = 8					; size = 4
_rawPositionData$ = 12					; size = 4
?ReadRawACMIPositionData@@YAHPAU_iobuf@@AAUACMIRawPositionData@@@Z PROC ; ReadRawACMIPositionData

; 452  : {

	push	ebp
	mov	ebp, esp
	sub	esp, 8

; 453  : 	int
; 454  : 		result;
; 455  : 
; 456  : 	fscanf
; 457  : 	(
; 458  : 		flightFile,
; 459  : 		"%d %d",
; 460  : 		&rawPositionData.type,
; 461  : 		&rawPositionData.uniqueID
; 462  : 	);

	mov	eax, DWORD PTR _rawPositionData$[ebp]
	add	eax, 4
	push	eax
	mov	ecx, DWORD PTR _rawPositionData$[ebp]
	push	ecx
	push	OFFSET ??_C@_05OKMLJOMC@?$CFd?5?$CFd?$AA@
	mov	edx, DWORD PTR _flightFile$[ebp]
	push	edx
	call	_fscanf
	add	esp, 16					; 00000010H

; 463  : 
; 464  : 	
; 465  : 	// We don't need to check the status of our last two fscanf calls, because
; 466  : 	// if they fail, this one will too.
; 467  : 	result = fscanf
; 468  : 	(
; 469  : 		flightFile,
; 470  : 		"%f %f %f %f %f %f\n",
; 471  : 		&rawPositionData.entityPosData.posData.x,
; 472  : 		&rawPositionData.entityPosData.posData.y,
; 473  : 		&rawPositionData.entityPosData.posData.z,
; 474  : 		&rawPositionData.entityPosData.posData.pitch,
; 475  : 		&rawPositionData.entityPosData.posData.roll,
; 476  : 		&rawPositionData.entityPosData.posData.yaw
; 477  : 	);

	mov	eax, DWORD PTR _rawPositionData$[ebp]
	add	eax, 49					; 00000031H
	push	eax
	mov	ecx, DWORD PTR _rawPositionData$[ebp]
	add	ecx, 45					; 0000002dH
	push	ecx
	mov	edx, DWORD PTR _rawPositionData$[ebp]
	add	edx, 41					; 00000029H
	push	edx
	mov	eax, DWORD PTR _rawPositionData$[ebp]
	add	eax, 37					; 00000025H
	push	eax
	mov	ecx, DWORD PTR _rawPositionData$[ebp]
	add	ecx, 33					; 00000021H
	push	ecx
	mov	edx, DWORD PTR _rawPositionData$[ebp]
	add	edx, 29					; 0000001dH
	push	edx
	push	OFFSET ??_C@_0BD@JECPNOK@?$CFf?5?$CFf?5?$CFf?5?$CFf?5?$CFf?5?$CFf?6?$AA@
	mov	eax, DWORD PTR _flightFile$[ebp]
	push	eax
	call	_fscanf
	add	esp, 32					; 00000020H
	mov	DWORD PTR _result$[ebp], eax

; 478  : 
; 479  : 	// insure pitch roll and yaw are positive (edg:?)
; 480  : 	// or in 0 - 2PI range
; 481  : 	/* nah, this ain't right....  need to fix songy's stuff
; 482  : 	if ( rawPositionData.entityPosData.pitch < 0.0f )
; 483  : 		rawPositionData.entityPosData.pitch += 2.0f * PI;
; 484  : 	if ( rawPositionData.entityPosData.roll < 0.0f )
; 485  : 		rawPositionData.entityPosData.roll += 2.0f * PI;
; 486  : 	if ( rawPositionData.entityPosData.yaw < 0.0f )
; 487  : 		rawPositionData.entityPosData.yaw += 2.0f * PI;
; 488  : 	*/
; 489  : 
; 490  : 	return (!result || result == EOF ? FALSE : TRUE);

	cmp	DWORD PTR _result$[ebp], 0
	je	SHORT $LN3@ReadRawACM
	cmp	DWORD PTR _result$[ebp], -1
	je	SHORT $LN3@ReadRawACM
	mov	DWORD PTR tv131[ebp], 1
	jmp	SHORT $LN4@ReadRawACM
$LN3@ReadRawACM:
	mov	DWORD PTR tv131[ebp], 0
$LN4@ReadRawACM:
	mov	eax, DWORD PTR tv131[ebp]

; 491  : }

	mov	esp, ebp
	pop	ebp
	ret	0
?ReadRawACMIPositionData@@YAHPAU_iobuf@@AAUACMIRawPositionData@@@Z ENDP ; ReadRawACMIPositionData
_TEXT	ENDS
; Function compile flags: /Odtp
; File c:\users\zhitao li\documents\visual studio 2012\projects\freefalcon\acmi\src\acmitape.cpp
_TEXT	SEGMENT
___formal$ = 8						; size = 4
_eventId$ = 12						; size = 4
___formal$ = 16						; size = 4
___formal$ = 20						; size = 4
?DefaultReverseACMIGeneralEventCallback@@YAXPAVACMITape@@UEventIdData@@PAX2@Z PROC ; DefaultReverseACMIGeneralEventCallback

; 137  : {

	push	ebp
	mov	ebp, esp

; 138  : 	MonoPrint
; 139  : 	(
; 140  : 		"General event occured in reverse ACMI Tape play --> event type: %d.\n",
; 141  : 		eventId.type
; 142  : 	);

	movzx	eax, WORD PTR _eventId$[ebp+2]
	push	eax
	push	OFFSET ??_C@_0EF@GKJIDJHD@General?5event?5occured?5in?5reverse@
	call	_MonoPrint
	add	esp, 8

; 143  : }

	pop	ebp
	ret	0
?DefaultReverseACMIGeneralEventCallback@@YAXPAVACMITape@@UEventIdData@@PAX2@Z ENDP ; DefaultReverseACMIGeneralEventCallback
_TEXT	ENDS
; Function compile flags: /Odtp
; File c:\users\zhitao li\documents\visual studio 2012\projects\freefalcon\acmi\src\acmitape.cpp
_TEXT	SEGMENT
___formal$ = 8						; size = 4
_eventId$ = 12						; size = 4
___formal$ = 16						; size = 4
___formal$ = 20						; size = 4
?DefaultForwardACMIGeneralEventCallback@@YAXPAVACMITape@@UEventIdData@@PAX2@Z PROC ; DefaultForwardACMIGeneralEventCallback

; 118  : {

	push	ebp
	mov	ebp, esp

; 119  : 	MonoPrint
; 120  : 	(
; 121  : 		"General event occured in forward ACMI Tape play --> event type: %d.\n",
; 122  : 		eventId.type
; 123  : 	);

	movzx	eax, WORD PTR _eventId$[ebp+2]
	push	eax
	push	OFFSET ??_C@_0EF@HDIDEHKI@General?5event?5occured?5in?5forward@
	call	_MonoPrint
	add	esp, 8

; 124  : }

	pop	ebp
	ret	0
?DefaultForwardACMIGeneralEventCallback@@YAXPAVACMITape@@UEventIdData@@PAX2@Z ENDP ; DefaultForwardACMIGeneralEventCallback
_TEXT	ENDS
; Function compile flags: /Odtp
; File c:\users\zhitao li\documents\visual studio 2012\projects\freefalcon\acmi\src\acmitape.cpp
_TEXT	SEGMENT
$T1 = -24						; size = 4
$T2 = -20						; size = 4
$T3 = -16						; size = 4
$T4 = -12						; size = 4
_curr$ = -8						; size = 4
_prev$ = -4						; size = 4
_list$ = 8						; size = 4
?DestroyTheList@@YAXPAULIST@@@Z PROC			; DestroyTheList

; 3810 : {

	push	ebp
	mov	ebp, esp
	sub	esp, 24					; 00000018H

; 3811 :    LIST * prev,
; 3812 :         * curr;
; 3813 : 
; 3814 :    if ( !list )

	cmp	DWORD PTR _list$[ebp], 0
	jne	SHORT $LN3@DestroyThe

; 3815 :       return;

	jmp	$LN4@DestroyThe
$LN3@DestroyThe:

; 3816 : 
; 3817 :    prev = list;

	mov	eax, DWORD PTR _list$[ebp]
	mov	DWORD PTR _prev$[ebp], eax

; 3818 :    curr = list -> next;

	mov	ecx, DWORD PTR _list$[ebp]
	mov	edx, DWORD PTR [ecx+8]
	mov	DWORD PTR _curr$[ebp], edx
$LN2@DestroyThe:

; 3819 : 
; 3820 :    while ( curr )

	cmp	DWORD PTR _curr$[ebp], 0
	je	SHORT $LN1@DestroyThe

; 3821 :    {
; 3822 :       // if ( destructor )
; 3823 :       //    (*destructor)(prev -> node);
; 3824 : 
; 3825 : 	  delete prev->node;

	mov	eax, DWORD PTR _prev$[ebp]
	mov	ecx, DWORD PTR [eax]
	mov	DWORD PTR $T4[ebp], ecx
	mov	edx, DWORD PTR $T4[ebp]
	push	edx
	call	??3@YAXPAX@Z				; operator delete
	add	esp, 4

; 3826 : 
; 3827 :       prev -> next = NULL;

	mov	eax, DWORD PTR _prev$[ebp]
	mov	DWORD PTR [eax+8], 0

; 3828 : 
; 3829 :       delete prev;

	mov	ecx, DWORD PTR _prev$[ebp]
	mov	DWORD PTR $T3[ebp], ecx
	mov	edx, DWORD PTR $T3[ebp]
	push	edx
	call	??3@YAXPAX@Z				; operator delete
	add	esp, 4

; 3830 : 
; 3831 :       prev = curr;

	mov	eax, DWORD PTR _curr$[ebp]
	mov	DWORD PTR _prev$[ebp], eax

; 3832 :       curr = curr -> next;

	mov	ecx, DWORD PTR _curr$[ebp]
	mov	edx, DWORD PTR [ecx+8]
	mov	DWORD PTR _curr$[ebp], edx

; 3833 :    }

	jmp	SHORT $LN2@DestroyThe
$LN1@DestroyThe:

; 3834 : 
; 3835 :    // if( destructor )
; 3836 :    //    (*destructor)( prev -> node );
; 3837 : 
; 3838 :    delete prev->node;

	mov	eax, DWORD PTR _prev$[ebp]
	mov	ecx, DWORD PTR [eax]
	mov	DWORD PTR $T2[ebp], ecx
	mov	edx, DWORD PTR $T2[ebp]
	push	edx
	call	??3@YAXPAX@Z				; operator delete
	add	esp, 4

; 3839 : 
; 3840 :    prev -> next = NULL;

	mov	eax, DWORD PTR _prev$[ebp]
	mov	DWORD PTR [eax+8], 0

; 3841 : 
; 3842 :    delete prev;

	mov	ecx, DWORD PTR _prev$[ebp]
	mov	DWORD PTR $T1[ebp], ecx
	mov	edx, DWORD PTR $T1[ebp]
	push	edx
	call	??3@YAXPAX@Z				; operator delete
	add	esp, 4
$LN4@DestroyThe:

; 3843 : 
; 3844 :    //ListGlobalPack();
; 3845 : }

	mov	esp, ebp
	pop	ebp
	ret	0
?DestroyTheList@@YAXPAULIST@@@Z ENDP			; DestroyTheList
_TEXT	ENDS
; Function compile flags: /Odtp
; File c:\users\zhitao li\documents\visual studio 2012\projects\freefalcon\acmi\src\acmitape.cpp
_TEXT	SEGMENT
$T1 = -8						; size = 4
_newnode$ = -4						; size = 4
_list$ = 8						; size = 4
_end$ = 12						; size = 4
_node$ = 16						; size = 4
?AppendToEndOfList@@YAPAULIST@@PAU1@PAPAU1@PAX@Z PROC	; AppendToEndOfList

; 3777 : {

	push	ebp
	mov	ebp, esp
	sub	esp, 8

; 3778 :    LIST * newnode;
; 3779 : 
; 3780 :    newnode = new LIST;

	push	12					; 0000000cH
	call	??2@YAPAXI@Z				; operator new
	add	esp, 4
	mov	DWORD PTR $T1[ebp], eax
	mov	eax, DWORD PTR $T1[ebp]
	mov	DWORD PTR _newnode$[ebp], eax

; 3781 : 
; 3782 :    newnode -> node = node;

	mov	ecx, DWORD PTR _newnode$[ebp]
	mov	edx, DWORD PTR _node$[ebp]
	mov	DWORD PTR [ecx], edx

; 3783 :    newnode -> next = NULL;

	mov	eax, DWORD PTR _newnode$[ebp]
	mov	DWORD PTR [eax+8], 0

; 3784 : 
; 3785 :    /* list was null */
; 3786 :    if ( !list ) 

	cmp	DWORD PTR _list$[ebp], 0
	jne	SHORT $LN2@AppendToEn

; 3787 :    {
; 3788 :      list = newnode;

	mov	ecx, DWORD PTR _newnode$[ebp]
	mov	DWORD PTR _list$[ebp], ecx

; 3789 : 	 *end = list;

	mov	edx, DWORD PTR _end$[ebp]
	mov	eax, DWORD PTR _list$[ebp]
	mov	DWORD PTR [edx], eax

; 3790 :    }
; 3791 :    else 

	jmp	SHORT $LN1@AppendToEn
$LN2@AppendToEn:

; 3792 :    {
; 3793 :       /* chain in at end */
; 3794 :       (*end) -> next = newnode;

	mov	ecx, DWORD PTR _end$[ebp]
	mov	edx, DWORD PTR [ecx]
	mov	eax, DWORD PTR _newnode$[ebp]
	mov	DWORD PTR [edx+8], eax

; 3795 : 	  *end = newnode;

	mov	ecx, DWORD PTR _end$[ebp]
	mov	edx, DWORD PTR _newnode$[ebp]
	mov	DWORD PTR [ecx], edx
$LN1@AppendToEn:

; 3796 :    }
; 3797 : 
; 3798 :    return( list );

	mov	eax, DWORD PTR _list$[ebp]

; 3799 : }

	mov	esp, ebp
	pop	ebp
	ret	0
?AppendToEndOfList@@YAPAULIST@@PAU1@PAPAU1@PAX@Z ENDP	; AppendToEndOfList
_TEXT	ENDS
; Function compile flags: /Odtp
;	COMDAT ??_GSfxClass@@QAEPAXI@Z
_TEXT	SEGMENT
_this$ = -4						; size = 4
___flags$ = 8						; size = 4
??_GSfxClass@@QAEPAXI@Z PROC				; SfxClass::`scalar deleting destructor', COMDAT
; _this$ = ecx
	push	ebp
	mov	ebp, esp
	push	ecx
	mov	DWORD PTR _this$[ebp], ecx
	mov	ecx, DWORD PTR _this$[ebp]
	call	??1SfxClass@@QAE@XZ			; SfxClass::~SfxClass
	mov	eax, DWORD PTR ___flags$[ebp]
	and	eax, 1
	je	SHORT $LN1@scalar
	mov	ecx, DWORD PTR _this$[ebp]
	push	ecx
	call	??3@YAXPAX@Z				; operator delete
	add	esp, 4
$LN1@scalar:
	mov	eax, DWORD PTR _this$[ebp]
	mov	esp, ebp
	pop	ebp
	ret	4
??_GSfxClass@@QAEPAXI@Z ENDP				; SfxClass::`scalar deleting destructor'
_TEXT	ENDS
; Function compile flags: /Odtp
; File c:\users\zhitao li\documents\visual studio 2012\projects\freefalcon\sim\include\simbase.h
;	COMDAT ?Status@SimBaseClass@@QBEHXZ
_TEXT	SEGMENT
_this$ = -4						; size = 4
?Status@SimBaseClass@@QBEHXZ PROC			; SimBaseClass::Status, COMDAT
; _this$ = ecx

; 192  : 	int Status() const { return specialData.status; }

	push	ebp
	mov	ebp, esp
	push	ecx
	mov	DWORD PTR _this$[ebp], ecx
	mov	eax, DWORD PTR _this$[ebp]
	mov	eax, DWORD PTR [eax+176]
	mov	esp, ebp
	pop	ebp
	ret	0
?Status@SimBaseClass@@QBEHXZ ENDP			; SimBaseClass::Status
_TEXT	ENDS
; Function compile flags: /Odtp
; File c:\users\zhitao li\documents\visual studio 2012\projects\freefalcon\sim\include\simbase.h
;	COMDAT ?SetCampaignFlag@SimBaseClass@@QAEXH@Z
_TEXT	SEGMENT
_this$ = -4						; size = 4
_flag$ = 8						; size = 4
?SetCampaignFlag@SimBaseClass@@QAEXH@Z PROC		; SimBaseClass::SetCampaignFlag, COMDAT
; _this$ = ecx

; 183  : 	void SetCampaignFlag(int flag){ campaignFlags |= flag; }

	push	ebp
	mov	ebp, esp
	push	ecx
	mov	DWORD PTR _this$[ebp], ecx
	mov	eax, DWORD PTR _this$[ebp]
	mov	ecx, DWORD PTR [eax+280]
	or	ecx, DWORD PTR _flag$[ebp]
	mov	edx, DWORD PTR _this$[ebp]
	mov	DWORD PTR [edx+280], ecx
	mov	esp, ebp
	pop	ebp
	ret	4
?SetCampaignFlag@SimBaseClass@@QAEXH@Z ENDP		; SimBaseClass::SetCampaignFlag
_TEXT	ENDS
; Function compile flags: /Odtp
; File c:\users\zhitao li\documents\visual studio 2012\projects\freefalcon\sim\include\simbase.h
;	COMDAT ?IsSetCampaignFlag@SimBaseClass@@QBEHH@Z
_TEXT	SEGMENT
_this$ = -8						; size = 4
tv67 = -4						; size = 4
_flag$ = 8						; size = 4
?IsSetCampaignFlag@SimBaseClass@@QBEHH@Z PROC		; SimBaseClass::IsSetCampaignFlag, COMDAT
; _this$ = ecx

; 182  : 	int  IsSetCampaignFlag(int flag) const { return ((campaignFlags & flag) ? TRUE : FALSE); }

	push	ebp
	mov	ebp, esp
	sub	esp, 8
	mov	DWORD PTR _this$[ebp], ecx
	mov	eax, DWORD PTR _this$[ebp]
	mov	ecx, DWORD PTR [eax+280]
	and	ecx, DWORD PTR _flag$[ebp]
	je	SHORT $LN3@IsSetCampa
	mov	DWORD PTR tv67[ebp], 1
	jmp	SHORT $LN4@IsSetCampa
$LN3@IsSetCampa:
	mov	DWORD PTR tv67[ebp], 0
$LN4@IsSetCampa:
	mov	eax, DWORD PTR tv67[ebp]
	mov	esp, ebp
	pop	ebp
	ret	4
?IsSetCampaignFlag@SimBaseClass@@QBEHH@Z ENDP		; SimBaseClass::IsSetCampaignFlag
_TEXT	ENDS
; Function compile flags: /Odtp
; File c:\users\zhitao li\documents\visual studio 2012\projects\freefalcon\acmi\src\acmitape.cpp
_TEXT	SEGMENT
_this$ = -32						; size = 4
_end$ = -28						; size = 12
_pos$ = -16						; size = 12
__$ArrayPad$ = -4					; size = 4
_td$ = 8						; size = 4
_dT$ = 12						; size = 4
?UpdateTracerEvent@ACMITape@@AAEXPAUTracerEventData@@M@Z PROC ; ACMITape::UpdateTracerEvent
; _this$ = ecx

; 3635 : {

	push	ebp
	mov	ebp, esp
	sub	esp, 32					; 00000020H
	mov	eax, DWORD PTR ___security_cookie
	xor	eax, ebp
	mov	DWORD PTR __$ArrayPad$[ebp], eax
	mov	DWORD PTR _this$[ebp], ecx

; 3636 : 	Tpoint pos, end;
; 3637 : 
; 3638 : 	pos.x = td->x + td->dx * dT;

	mov	eax, DWORD PTR _td$[ebp]
	movss	xmm0, DWORD PTR [eax+12]
	mulss	xmm0, DWORD PTR _dT$[ebp]
	mov	ecx, DWORD PTR _td$[ebp]
	addss	xmm0, DWORD PTR [ecx]
	movss	DWORD PTR _pos$[ebp], xmm0

; 3639 : 	pos.y = td->y + td->dy * dT;

	mov	edx, DWORD PTR _td$[ebp]
	movss	xmm0, DWORD PTR [edx+16]
	mulss	xmm0, DWORD PTR _dT$[ebp]
	mov	eax, DWORD PTR _td$[ebp]
	addss	xmm0, DWORD PTR [eax+4]
	movss	DWORD PTR _pos$[ebp+4], xmm0

; 3640 : 	pos.z = td->z + td->dz * dT;

	mov	ecx, DWORD PTR _td$[ebp]
	movss	xmm0, DWORD PTR [ecx+20]
	mulss	xmm0, DWORD PTR _dT$[ebp]
	mov	edx, DWORD PTR _td$[ebp]
	addss	xmm0, DWORD PTR [edx+8]
	movss	DWORD PTR _pos$[ebp+8], xmm0

; 3641 : 
; 3642 : 	end.x = pos.x - td->dx * 0.05f;

	mov	eax, DWORD PTR _td$[ebp]
	movss	xmm0, DWORD PTR [eax+12]
	mulss	xmm0, DWORD PTR __real@3d4ccccd
	movss	xmm1, DWORD PTR _pos$[ebp]
	subss	xmm1, xmm0
	movss	DWORD PTR _end$[ebp], xmm1

; 3643 : 	end.y = pos.y - td->dy * 0.05f;

	mov	ecx, DWORD PTR _td$[ebp]
	movss	xmm0, DWORD PTR [ecx+16]
	mulss	xmm0, DWORD PTR __real@3d4ccccd
	movss	xmm1, DWORD PTR _pos$[ebp+4]
	subss	xmm1, xmm0
	movss	DWORD PTR _end$[ebp+4], xmm1

; 3644 : 	end.z = pos.z - td->dz * 0.05f;

	mov	edx, DWORD PTR _td$[ebp]
	movss	xmm0, DWORD PTR [edx+20]
	mulss	xmm0, DWORD PTR __real@3d4ccccd
	movss	xmm1, DWORD PTR _pos$[ebp+8]
	subss	xmm1, xmm0
	movss	DWORD PTR _end$[ebp+8], xmm1

; 3645 : 
; 3646 : 	td->objTracer->Update( &pos, &end );

	lea	eax, DWORD PTR _end$[ebp]
	push	eax
	lea	ecx, DWORD PTR _pos$[ebp]
	push	ecx
	mov	edx, DWORD PTR _td$[ebp]
	mov	eax, DWORD PTR [edx+24]
	mov	ecx, DWORD PTR _td$[ebp]
	mov	edx, DWORD PTR [eax]
	mov	ecx, DWORD PTR [ecx+24]
	mov	eax, DWORD PTR [edx+32]
	call	eax

; 3647 : }

	mov	ecx, DWORD PTR __$ArrayPad$[ebp]
	xor	ecx, ebp
	call	@__security_check_cookie@4
	mov	esp, ebp
	pop	ebp
	ret	8
?UpdateTracerEvent@ACMITape@@AAEXPAUTracerEventData@@M@Z ENDP ; ACMITape::UpdateTracerEvent
_TEXT	ENDS
; Function compile flags: /Odtp
; File c:\users\zhitao li\documents\visual studio 2012\projects\freefalcon\acmi\src\acmitape.cpp
_TEXT	SEGMENT
_this$ = -8						; size = 4
_i$ = -4						; size = 4
_leadIndex$ = 8						; size = 4
_slot$ = 12						; size = 4
?FindComponentFeature@ACMITape@@AAEPAVSimBaseClass@@JH@Z PROC ; ACMITape::FindComponentFeature
; _this$ = ecx

; 4160 : {

	push	ebp
	mov	ebp, esp
	sub	esp, 8
	mov	DWORD PTR _this$[ebp], ecx

; 4161 : 	int i;
; 4162 : 
; 4163 : 	if ( leadIndex < 0 || slot < 0 )

	cmp	DWORD PTR _leadIndex$[ebp], 0
	jl	SHORT $LN5@FindCompon
	cmp	DWORD PTR _slot$[ebp], 0
	jge	SHORT $LN6@FindCompon
$LN5@FindCompon:

; 4164 : 		return NULL;

	xor	eax, eax
	jmp	SHORT $LN7@FindCompon
$LN6@FindCompon:

; 4165 : 
; 4166 : 	for(i = 0; i < _tapeHdr.numFeat; i++)

	mov	DWORD PTR _i$[ebp], 0
	jmp	SHORT $LN4@FindCompon
$LN3@FindCompon:
	mov	eax, DWORD PTR _i$[ebp]
	add	eax, 1
	mov	DWORD PTR _i$[ebp], eax
$LN4@FindCompon:
	mov	ecx, DWORD PTR _this$[ebp]
	mov	edx, DWORD PTR _i$[ebp]
	cmp	edx, DWORD PTR [ecx+16]
	jge	SHORT $LN2@FindCompon

; 4167 : 	{
; 4168 : 		if ( _simTapeFeatures[i].leadIndex == leadIndex &&
; 4169 : 			 _simTapeFeatures[i].slot == slot )

	mov	eax, DWORD PTR _i$[ebp]
	imul	eax, 88					; 00000058H
	mov	ecx, DWORD PTR _this$[ebp]
	mov	edx, DWORD PTR [ecx+120]
	mov	eax, DWORD PTR [edx+eax+80]
	cmp	eax, DWORD PTR _leadIndex$[ebp]
	jne	SHORT $LN1@FindCompon
	mov	ecx, DWORD PTR _i$[ebp]
	imul	ecx, 88					; 00000058H
	mov	edx, DWORD PTR _this$[ebp]
	mov	eax, DWORD PTR [edx+120]
	mov	ecx, DWORD PTR [eax+ecx+84]
	cmp	ecx, DWORD PTR _slot$[ebp]
	jne	SHORT $LN1@FindCompon

; 4170 : 		{
; 4171 : 			return _simTapeFeatures[i].objBase;

	mov	edx, DWORD PTR _i$[ebp]
	imul	edx, 88					; 00000058H
	mov	eax, DWORD PTR _this$[ebp]
	mov	ecx, DWORD PTR [eax+120]
	mov	eax, DWORD PTR [ecx+edx]
	jmp	SHORT $LN7@FindCompon
$LN1@FindCompon:

; 4172 : 		}
; 4173 : 	}

	jmp	SHORT $LN3@FindCompon
$LN2@FindCompon:

; 4174 : 	return NULL;

	xor	eax, eax
$LN7@FindCompon:

; 4175 : }

	mov	esp, ebp
	pop	ebp
	ret	8
?FindComponentFeature@ACMITape@@AAEPAVSimBaseClass@@JH@Z ENDP ; ACMITape::FindComponentFeature
_TEXT	ENDS
; Function compile flags: /Odtp
; File c:\users\zhitao li\documents\visual studio 2012\projects\freefalcon\acmi\src\acmitape.cpp
_TEXT	SEGMENT
$T2 = -184						; size = 4
$T3 = -180						; size = 4
$T4 = -176						; size = 4
$T5 = -172						; size = 4
tv589 = -168						; size = 4
$T6 = -164						; size = 4
$T7 = -160						; size = 4
$T8 = -156						; size = 4
$T9 = -152						; size = 4
$T10 = -148						; size = 4
tv361 = -144						; size = 4
$T11 = -140						; size = 4
$T12 = -136						; size = 4
tv440 = -132						; size = 4
$T13 = -128						; size = 4
_idx$14 = -124						; size = 4
tv508 = -120						; size = 4
tv332 = -116						; size = 4
$T15 = -112						; size = 4
tv563 = -108						; size = 4
tv412 = -104						; size = 4
_prevObj$ = -100					; size = 4
$T16 = -96						; size = 4
_classPtr$ = -92					; size = 4
_nextObj$ = -88						; size = 4
_lastPointer$ = -84					; size = 4
_this$ = -80						; size = 4
_baseObject$ = -76					; size = 4
_visType$ = -72						; size = 2
_theObject$ = -68					; size = 4
_viewRotation$ = -64					; size = 36
_simView$ = -28						; size = 12
__$ArrayPad$ = -16					; size = 4
__$EHRec$ = -12						; size = 12
_feat$ = 8						; size = 4
?CreateFeatureDrawable@ACMITape@@AAEXPAUSimTapeEntity@@@Z PROC ; ACMITape::CreateFeatureDrawable
; _this$ = ecx

; 3974 : {

	push	ebp
	mov	ebp, esp
	push	-1
	push	__ehhandler$?CreateFeatureDrawable@ACMITape@@AAEXPAUSimTapeEntity@@@Z
	mov	eax, DWORD PTR fs:0
	push	eax
	sub	esp, 172				; 000000acH
	mov	eax, DWORD PTR ___security_cookie
	xor	eax, ebp
	mov	DWORD PTR __$ArrayPad$[ebp], eax
	push	eax
	lea	eax, DWORD PTR __$EHRec$[ebp]
	mov	DWORD PTR fs:0, eax
	mov	DWORD PTR _this$[ebp], ecx

; 3975 : 	short    visType = -1;

	or	eax, -1
	mov	WORD PTR _visType$[ebp], ax

; 3976 : 	Tpoint    simView;
; 3977 : 	Trotation viewRotation;
; 3978 : 	SimBaseClass* baseObject;
; 3979 : 	DrawableObject* lastPointer = NULL;

	mov	DWORD PTR _lastPointer$[ebp], 0

; 3980 : 	
; 3981 : 
; 3982 : 	// get the object and pointer to its classtbl entry
; 3983 : 	SimBaseClass* theObject = feat->objBase;

	mov	ecx, DWORD PTR _feat$[ebp]
	mov	edx, DWORD PTR [ecx]
	mov	DWORD PTR _theObject$[ebp], edx

; 3984 : 	Falcon4EntityClassType* classPtr = (Falcon4EntityClassType*)theObject->EntityType();

	mov	ecx, DWORD PTR _theObject$[ebp]
	call	?EntityType@VuEntity@@QBEPAUVuEntityType@@XZ ; VuEntity::EntityType
	mov	DWORD PTR _classPtr$[ebp], eax

; 3985 : 
; 3986 : 	// Set position and orientations
; 3987 : 	viewRotation.M11 = theObject->dmx[0][0];

	mov	eax, 12					; 0000000cH
	imul	eax, 0
	mov	ecx, DWORD PTR _theObject$[ebp]
	lea	edx, DWORD PTR [ecx+eax+296]
	mov	eax, 4
	imul	eax, 0
	movss	xmm0, DWORD PTR [edx+eax]
	movss	DWORD PTR _viewRotation$[ebp], xmm0

; 3988 : 	viewRotation.M21 = theObject->dmx[0][1];

	mov	ecx, 12					; 0000000cH
	imul	ecx, 0
	mov	edx, DWORD PTR _theObject$[ebp]
	lea	eax, DWORD PTR [edx+ecx+296]
	mov	ecx, 4
	shl	ecx, 0
	movss	xmm0, DWORD PTR [eax+ecx]
	movss	DWORD PTR _viewRotation$[ebp+12], xmm0

; 3989 : 	viewRotation.M31 = theObject->dmx[0][2];

	mov	edx, 12					; 0000000cH
	imul	edx, 0
	mov	eax, DWORD PTR _theObject$[ebp]
	lea	ecx, DWORD PTR [eax+edx+296]
	mov	edx, 4
	shl	edx, 1
	movss	xmm0, DWORD PTR [ecx+edx]
	movss	DWORD PTR _viewRotation$[ebp+24], xmm0

; 3990 : 
; 3991 : 	viewRotation.M12 = theObject->dmx[1][0];

	mov	eax, 12					; 0000000cH
	shl	eax, 0
	mov	ecx, DWORD PTR _theObject$[ebp]
	lea	edx, DWORD PTR [ecx+eax+296]
	mov	eax, 4
	imul	eax, 0
	movss	xmm0, DWORD PTR [edx+eax]
	movss	DWORD PTR _viewRotation$[ebp+4], xmm0

; 3992 : 	viewRotation.M22 = theObject->dmx[1][1];

	mov	ecx, 12					; 0000000cH
	shl	ecx, 0
	mov	edx, DWORD PTR _theObject$[ebp]
	lea	eax, DWORD PTR [edx+ecx+296]
	mov	ecx, 4
	shl	ecx, 0
	movss	xmm0, DWORD PTR [eax+ecx]
	movss	DWORD PTR _viewRotation$[ebp+16], xmm0

; 3993 : 	viewRotation.M32 = theObject->dmx[1][2];

	mov	edx, 12					; 0000000cH
	shl	edx, 0
	mov	eax, DWORD PTR _theObject$[ebp]
	lea	ecx, DWORD PTR [eax+edx+296]
	mov	edx, 4
	shl	edx, 1
	movss	xmm0, DWORD PTR [ecx+edx]
	movss	DWORD PTR _viewRotation$[ebp+28], xmm0

; 3994 : 
; 3995 : 	viewRotation.M13 = theObject->dmx[2][0];

	mov	eax, 12					; 0000000cH
	shl	eax, 1
	mov	ecx, DWORD PTR _theObject$[ebp]
	lea	edx, DWORD PTR [ecx+eax+296]
	mov	eax, 4
	imul	eax, 0
	movss	xmm0, DWORD PTR [edx+eax]
	movss	DWORD PTR _viewRotation$[ebp+8], xmm0

; 3996 : 	viewRotation.M23 = theObject->dmx[2][1];

	mov	ecx, 12					; 0000000cH
	shl	ecx, 1
	mov	edx, DWORD PTR _theObject$[ebp]
	lea	eax, DWORD PTR [edx+ecx+296]
	mov	ecx, 4
	shl	ecx, 0
	movss	xmm0, DWORD PTR [eax+ecx]
	movss	DWORD PTR _viewRotation$[ebp+20], xmm0

; 3997 : 	viewRotation.M33 = theObject->dmx[2][2];

	mov	edx, 12					; 0000000cH
	shl	edx, 1
	mov	eax, DWORD PTR _theObject$[ebp]
	lea	ecx, DWORD PTR [eax+edx+296]
	mov	edx, 4
	shl	edx, 1
	movss	xmm0, DWORD PTR [ecx+edx]
	movss	DWORD PTR _viewRotation$[ebp+32], xmm0

; 3998 : 
; 3999 : 	// Update object position
; 4000 : 	simView.x     = theObject->XPos();

	mov	ecx, DWORD PTR _theObject$[ebp]
	call	?XPos@VuEntity@@QBEMXZ			; VuEntity::XPos
	fstp	DWORD PTR _simView$[ebp]

; 4001 : 	simView.y     = theObject->YPos();

	mov	ecx, DWORD PTR _theObject$[ebp]
	call	?YPos@VuEntity@@QBEMXZ			; VuEntity::YPos
	fstp	DWORD PTR _simView$[ebp+4]

; 4002 : 	simView.z     = theObject->ZPos();

	mov	ecx, DWORD PTR _theObject$[ebp]
	call	?ZPos@VuEntity@@QBEMXZ			; VuEntity::ZPos
	fstp	DWORD PTR _simView$[ebp+8]

; 4003 : 
; 4004 : 	visType = classPtr->visType[theObject->Status() & VIS_TYPE_MASK];

	mov	ecx, DWORD PTR _theObject$[ebp]
	call	?Status@SimBaseClass@@QBEHXZ		; SimBaseClass::Status
	and	eax, 7
	mov	ecx, DWORD PTR _classPtr$[ebp]
	mov	dx, WORD PTR [ecx+eax*2+60]
	mov	WORD PTR _visType$[ebp], dx

; 4005 : 
; 4006 : 	// make sure things are sane
; 4007 : 	F4Assert(visType >= 0 || theObject->drawPointer);
; 4008 : 	F4Assert(classPtr->vuClassData.classInfo_[VU_DOMAIN] == DOMAIN_LAND );
; 4009 : 	F4Assert(classPtr->vuClassData.classInfo_[VU_CLASS] == CLASS_FEATURE);
; 4010 : 
; 4011 : 	// A feature thingy..
; 4012 : 	SimBaseClass	*prevObj = NULL, *nextObj = NULL;

	mov	DWORD PTR _prevObj$[ebp], 0
	mov	DWORD PTR _nextObj$[ebp], 0

; 4013 : 
; 4014 : 	// In many cases, our visType should be modified by our neighbors.
; 4015 : 	if ((theObject->Status() & VIS_TYPE_MASK) != VIS_DESTROYED &&
; 4016 : 	     (((SimFeatureClass*)theObject)->featureFlags & FEAT_NEXT_NORM ||
; 4017 : 		 ((SimFeatureClass*)theObject)->featureFlags & FEAT_PREV_NORM))

	mov	ecx, DWORD PTR _theObject$[ebp]
	call	?Status@SimBaseClass@@QBEHXZ		; SimBaseClass::Status
	and	eax, 7
	cmp	eax, 3
	je	$LN24@CreateFeat
	mov	eax, DWORD PTR _theObject$[ebp]
	mov	ecx, DWORD PTR [eax+600]
	and	ecx, 8
	jne	SHORT $LN29@CreateFeat
	mov	edx, DWORD PTR _theObject$[ebp]
	mov	eax, DWORD PTR [edx+600]
	and	eax, 4
	je	$LN24@CreateFeat
$LN29@CreateFeat:

; 4018 : 	{
; 4019 : 		int	idx = feat->slot;

	mov	ecx, DWORD PTR _feat$[ebp]
	mov	edx, DWORD PTR [ecx+84]
	mov	DWORD PTR _idx$14[ebp], edx

; 4020 : 
; 4021 : 		prevObj = FindComponentFeature(feat->leadIndex, idx - 1);

	mov	eax, DWORD PTR _idx$14[ebp]
	sub	eax, 1
	push	eax
	mov	ecx, DWORD PTR _feat$[ebp]
	mov	edx, DWORD PTR [ecx+80]
	push	edx
	mov	ecx, DWORD PTR _this$[ebp]
	call	?FindComponentFeature@ACMITape@@AAEPAVSimBaseClass@@JH@Z ; ACMITape::FindComponentFeature
	mov	DWORD PTR _prevObj$[ebp], eax

; 4022 : 		nextObj = FindComponentFeature(feat->leadIndex, idx + 1);

	mov	eax, DWORD PTR _idx$14[ebp]
	add	eax, 1
	push	eax
	mov	ecx, DWORD PTR _feat$[ebp]
	mov	edx, DWORD PTR [ecx+80]
	push	edx
	mov	ecx, DWORD PTR _this$[ebp]
	call	?FindComponentFeature@ACMITape@@AAEPAVSimBaseClass@@JH@Z ; ACMITape::FindComponentFeature
	mov	DWORD PTR _nextObj$[ebp], eax

; 4023 : 		if (prevObj &&
; 4024 : 		   (((SimFeatureClass*)theObject)->featureFlags & FEAT_PREV_NORM) &&
; 4025 : 		   (prevObj->Status() & VIS_TYPE_MASK) == VIS_DESTROYED)

	cmp	DWORD PTR _prevObj$[ebp], 0
	je	SHORT $LN28@CreateFeat
	mov	eax, DWORD PTR _theObject$[ebp]
	mov	ecx, DWORD PTR [eax+600]
	and	ecx, 4
	je	SHORT $LN28@CreateFeat
	mov	ecx, DWORD PTR _prevObj$[ebp]
	call	?Status@SimBaseClass@@QBEHXZ		; SimBaseClass::Status
	and	eax, 7
	cmp	eax, 3
	jne	SHORT $LN28@CreateFeat

; 4026 : 		{
; 4027 : 			if (nextObj &&
; 4028 : 			   (((SimFeatureClass*)theObject)->featureFlags & FEAT_NEXT_NORM) &&
; 4029 : 			   (nextObj->Status() & VIS_TYPE_MASK) == VIS_DESTROYED)

	cmp	DWORD PTR _nextObj$[ebp], 0
	je	SHORT $LN27@CreateFeat
	mov	edx, DWORD PTR _theObject$[ebp]
	mov	eax, DWORD PTR [edx+600]
	and	eax, 8
	je	SHORT $LN27@CreateFeat
	mov	ecx, DWORD PTR _nextObj$[ebp]
	call	?Status@SimBaseClass@@QBEHXZ		; SimBaseClass::Status
	and	eax, 7
	cmp	eax, 3
	jne	SHORT $LN27@CreateFeat

; 4030 : 			{
; 4031 : 				visType = classPtr->visType[VIS_BOTH_DEST];

	mov	ecx, 2
	imul	ecx, 6
	mov	edx, DWORD PTR _classPtr$[ebp]
	mov	ax, WORD PTR [edx+ecx+60]
	mov	WORD PTR _visType$[ebp], ax

; 4032 : 			}
; 4033 : 			else

	jmp	SHORT $LN26@CreateFeat
$LN27@CreateFeat:

; 4034 : 			{
; 4035 : 				visType = classPtr->visType[VIS_LEFT_DEST];

	mov	ecx, 2
	shl	ecx, 2
	mov	edx, DWORD PTR _classPtr$[ebp]
	mov	ax, WORD PTR [edx+ecx+60]
	mov	WORD PTR _visType$[ebp], ax
$LN26@CreateFeat:

; 4036 : 			}
; 4037 : 		}
; 4038 : 		else if (nextObj &&

	jmp	SHORT $LN24@CreateFeat
$LN28@CreateFeat:

; 4039 : 		      (((SimFeatureClass*)theObject)->featureFlags & FEAT_NEXT_NORM) &&
; 4040 : 			  (nextObj->Status() & VIS_TYPE_MASK) == VIS_DESTROYED)

	cmp	DWORD PTR _nextObj$[ebp], 0
	je	SHORT $LN24@CreateFeat
	mov	ecx, DWORD PTR _theObject$[ebp]
	mov	edx, DWORD PTR [ecx+600]
	and	edx, 8
	je	SHORT $LN24@CreateFeat
	mov	ecx, DWORD PTR _nextObj$[ebp]
	call	?Status@SimBaseClass@@QBEHXZ		; SimBaseClass::Status
	and	eax, 7
	cmp	eax, 3
	jne	SHORT $LN24@CreateFeat

; 4041 : 		{
; 4042 : 			visType = classPtr->visType[VIS_RIGHT_DEST];

	mov	eax, 2
	imul	eax, 5
	mov	ecx, DWORD PTR _classPtr$[ebp]
	mov	dx, WORD PTR [ecx+eax+60]
	mov	WORD PTR _visType$[ebp], dx
$LN24@CreateFeat:

; 4043 : 		}
; 4044 : 	}
; 4045 : 
; 4046 : 	// Check for change - and don't bother if there is none.
; 4047 : 	if (theObject->drawPointer &&
; 4048 : 	   ((DrawableBSP*)theObject->drawPointer)->GetID() == visType)

	mov	eax, DWORD PTR _theObject$[ebp]
	cmp	DWORD PTR [eax+332], 0
	je	SHORT $LN23@CreateFeat
	mov	ecx, DWORD PTR _theObject$[ebp]
	mov	ecx, DWORD PTR [ecx+332]
	call	?GetID@DrawableBSP@@QAEHXZ		; DrawableBSP::GetID
	movsx	edx, WORD PTR _visType$[ebp]
	cmp	eax, edx
	jne	SHORT $LN23@CreateFeat

; 4049 : 		return;

	jmp	$LN31@CreateFeat
$LN23@CreateFeat:

; 4050 : 
; 4051 : 	if (theObject->drawPointer && theObject->drawPointer->InDisplayList() )

	mov	eax, DWORD PTR _theObject$[ebp]
	cmp	DWORD PTR [eax+332], 0
	je	SHORT $LN22@CreateFeat
	mov	ecx, DWORD PTR _theObject$[ebp]
	mov	ecx, DWORD PTR [ecx+332]
	call	?InDisplayList@DrawableObject@@QAEHXZ	; DrawableObject::InDisplayList
	test	eax, eax
	je	SHORT $LN22@CreateFeat

; 4052 : 	{
; 4053 : 		// KCK: In some cases we still need this pointer (specifically
; 4054 : 		// when we replace bridge segments), so let's save it here - we'll
; 4055 : 		// toss it out after we're done.
; 4056 : 		lastPointer = theObject->drawPointer;

	mov	edx, DWORD PTR _theObject$[ebp]
	mov	eax, DWORD PTR [edx+332]
	mov	DWORD PTR _lastPointer$[ebp], eax

; 4057 : 		theObject->drawPointer = NULL;

	mov	ecx, DWORD PTR _theObject$[ebp]
	mov	DWORD PTR [ecx+332], 0
$LN22@CreateFeat:

; 4058 : 	}
; 4059 : 
; 4060 : 	// get the lead baseobject if any
; 4061 : 	// otherwise set base object to ourself
; 4062 : 	if ( feat->leadIndex >= 0 )

	mov	edx, DWORD PTR _feat$[ebp]
	cmp	DWORD PTR [edx+80], 0
	jl	SHORT $LN21@CreateFeat

; 4063 : 		baseObject = _simTapeFeatures[ feat->leadIndex ].objBase;

	mov	eax, DWORD PTR _feat$[ebp]
	mov	ecx, DWORD PTR [eax+80]
	imul	ecx, 88					; 00000058H
	mov	edx, DWORD PTR _this$[ebp]
	mov	eax, DWORD PTR [edx+120]
	mov	ecx, DWORD PTR [eax+ecx]
	mov	DWORD PTR _baseObject$[ebp], ecx

; 4064 : 	else

	jmp	SHORT $LN20@CreateFeat
$LN21@CreateFeat:

; 4065 : 		baseObject = theObject;

	mov	edx, DWORD PTR _theObject$[ebp]
	mov	DWORD PTR _baseObject$[ebp], edx
$LN20@CreateFeat:

; 4066 : 
; 4067 : 	// Some things require Base Objects (like bridges and airbases)
; 4068 : 	if (!((SimFeatureClass*)baseObject)->baseObject)

	mov	eax, DWORD PTR _baseObject$[ebp]
	cmp	DWORD PTR [eax+596], 0
	jne	$LN16@CreateFeat

; 4069 : 	{
; 4070 : 		// Is this a bridge?
; 4071 : 		if (theObject->IsSetCampaignFlag(FEAT_ELEV_CONTAINER))

	push	512					; 00000200H
	mov	ecx, DWORD PTR _theObject$[ebp]
	call	?IsSetCampaignFlag@SimBaseClass@@QBEHH@Z ; SimBaseClass::IsSetCampaignFlag
	test	eax, eax
	je	$LN18@CreateFeat

; 4072 : 		{
; 4073 : 			// baseObject is the "container" object for all parts of the bridge
; 4074 : 			// There is only one container for the entire bridge, stored in the lead element
; 4075 : 			((SimFeatureClass*)baseObject)->baseObject = new DrawableBridge (1.0F);

	push	152					; 00000098H
	call	??2@YAPAXI@Z				; operator new
	add	esp, 4
	mov	DWORD PTR $T9[ebp], eax
	mov	DWORD PTR __$EHRec$[ebp+8], 0
	cmp	DWORD PTR $T9[ebp], 0
	je	SHORT $LN33@CreateFeat
	push	ecx
	movss	xmm0, DWORD PTR __real@3f800000
	movss	DWORD PTR [esp], xmm0
	mov	ecx, DWORD PTR $T9[ebp]
	call	??0DrawableBridge@@QAE@M@Z		; DrawableBridge::DrawableBridge
	mov	DWORD PTR tv332[ebp], eax
	jmp	SHORT $LN34@CreateFeat
$LN33@CreateFeat:
	mov	DWORD PTR tv332[ebp], 0
$LN34@CreateFeat:
	mov	ecx, DWORD PTR tv332[ebp]
	mov	DWORD PTR $T8[ebp], ecx
	mov	DWORD PTR __$EHRec$[ebp+8], -1
	mov	edx, DWORD PTR _baseObject$[ebp]
	mov	eax, DWORD PTR $T8[ebp]
	mov	DWORD PTR [edx+596], eax

; 4076 : 
; 4077 : 			// Insert only the bridge drawable.
; 4078 : 			_viewPoint->InsertObject (((SimFeatureClass*)baseObject)->baseObject);

	mov	ecx, DWORD PTR _baseObject$[ebp]
	mov	edx, DWORD PTR [ecx+596]
	push	edx
	mov	eax, DWORD PTR _this$[ebp]
	mov	ecx, DWORD PTR [eax+124]
	call	?InsertObject@RViewPoint@@QAEXPAVDrawableObject@@@Z ; RViewPoint::InsertObject
	jmp	$LN16@CreateFeat
$LN18@CreateFeat:

; 4079 : 		}
; 4080 : 		// Is this a big flat thing with things on it (like an airbase?)
; 4081 : 		else if (theObject->IsSetCampaignFlag(FEAT_FLAT_CONTAINER))

	push	256					; 00000100H
	mov	ecx, DWORD PTR _theObject$[ebp]
	call	?IsSetCampaignFlag@SimBaseClass@@QBEHH@Z ; SimBaseClass::IsSetCampaignFlag
	test	eax, eax
	je	$LN16@CreateFeat

; 4082 : 		{
; 4083 : 			// baseObject is the "container" object for all parts of the platform
; 4084 : 			// There is only one container for the entire platform, stored in the 
; 4085 : 			// lead element.
; 4086 : 			((SimFeatureClass*)baseObject)->baseObject = new DrawablePlatform (1.0F);

	push	172					; 000000acH
	call	??2@YAPAXI@Z				; operator new
	add	esp, 4
	mov	DWORD PTR $T12[ebp], eax
	mov	DWORD PTR __$EHRec$[ebp+8], 1
	cmp	DWORD PTR $T12[ebp], 0
	je	SHORT $LN35@CreateFeat
	push	ecx
	movss	xmm0, DWORD PTR __real@3f800000
	movss	DWORD PTR [esp], xmm0
	mov	ecx, DWORD PTR $T12[ebp]
	call	??0DrawablePlatform@@QAE@M@Z		; DrawablePlatform::DrawablePlatform
	mov	DWORD PTR tv361[ebp], eax
	jmp	SHORT $LN36@CreateFeat
$LN35@CreateFeat:
	mov	DWORD PTR tv361[ebp], 0
$LN36@CreateFeat:
	mov	ecx, DWORD PTR tv361[ebp]
	mov	DWORD PTR $T4[ebp], ecx
	mov	DWORD PTR __$EHRec$[ebp+8], -1
	mov	edx, DWORD PTR _baseObject$[ebp]
	mov	eax, DWORD PTR $T4[ebp]
	mov	DWORD PTR [edx+596], eax

; 4087 : 
; 4088 : 			// Insert only the platform drawable.
; 4089 : 			_viewPoint->InsertObject (((SimFeatureClass*)baseObject)->baseObject);

	mov	ecx, DWORD PTR _baseObject$[ebp]
	mov	edx, DWORD PTR [ecx+596]
	push	edx
	mov	eax, DWORD PTR _this$[ebp]
	mov	ecx, DWORD PTR [eax+124]
	call	?InsertObject@RViewPoint@@QAEXPAVDrawableObject@@@Z ; RViewPoint::InsertObject
$LN16@CreateFeat:

; 4090 : 		}
; 4091 : 	}
; 4092 : 
; 4093 : 	// Add another building to this grouping of buildings, or replace the drawable
; 4094 : 	// of one which is here.
; 4095 : 	// Is the container a bridge?
; 4096 : 	if (baseObject->IsSetCampaignFlag(FEAT_ELEV_CONTAINER))

	push	512					; 00000200H
	mov	ecx, DWORD PTR _baseObject$[ebp]
	call	?IsSetCampaignFlag@SimBaseClass@@QBEHH@Z ; SimBaseClass::IsSetCampaignFlag
	test	eax, eax
	je	$LN15@CreateFeat

; 4097 : 	{
; 4098 : 		// Make the new BRIDGE object
; 4099 : 		if (visType)

	movsx	ecx, WORD PTR _visType$[ebp]
	test	ecx, ecx
	je	$LN14@CreateFeat

; 4100 : 		{
; 4101 : 			if (theObject->IsSetCampaignFlag(FEAT_NEXT_IS_TOP) && theObject->Status() != VIS_DESTROYED)

	push	32768					; 00008000H
	mov	ecx, DWORD PTR _theObject$[ebp]
	call	?IsSetCampaignFlag@SimBaseClass@@QBEHH@Z ; SimBaseClass::IsSetCampaignFlag
	test	eax, eax
	je	$LN13@CreateFeat
	mov	ecx, DWORD PTR _theObject$[ebp]
	call	?Status@SimBaseClass@@QBEHXZ		; SimBaseClass::Status
	cmp	eax, 3
	je	$LN13@CreateFeat

; 4102 : 				theObject->drawPointer = new DrawableRoadbed(visType, visType+1, &simView, theObject->Yaw(), 10.0f, (float)atan(20.0f/280.0f) );

	push	212					; 000000d4H
	call	??2@YAPAXI@Z				; operator new
	add	esp, 4
	mov	DWORD PTR $T10[ebp], eax
	mov	DWORD PTR __$EHRec$[ebp+8], 2
	cmp	DWORD PTR $T10[ebp], 0
	je	SHORT $LN37@CreateFeat
	push	ecx
	movss	xmm0, DWORD PTR __real@3f800000
	movss	DWORD PTR [esp], xmm0
	push	ecx
	movss	xmm0, DWORD PTR __real@3d924925
	movss	DWORD PTR [esp], xmm0
	call	?atan@@YAMM@Z				; atan
	fstp	DWORD PTR [esp]
	push	ecx
	movss	xmm0, DWORD PTR __real@41200000
	movss	DWORD PTR [esp], xmm0
	mov	ecx, DWORD PTR _theObject$[ebp]
	call	?Yaw@VuEntity@@QBEMXZ			; VuEntity::Yaw
	push	ecx
	fstp	DWORD PTR [esp]
	lea	edx, DWORD PTR _simView$[ebp]
	push	edx
	movsx	eax, WORD PTR _visType$[ebp]
	add	eax, 1
	push	eax
	movsx	ecx, WORD PTR _visType$[ebp]
	push	ecx
	mov	ecx, DWORD PTR $T10[ebp]
	call	??0DrawableRoadbed@@QAE@HHPAUTpoint@@MMMM@Z ; DrawableRoadbed::DrawableRoadbed
	mov	DWORD PTR tv412[ebp], eax
	jmp	SHORT $LN38@CreateFeat
$LN37@CreateFeat:
	mov	DWORD PTR tv412[ebp], 0
$LN38@CreateFeat:
	mov	edx, DWORD PTR tv412[ebp]
	mov	DWORD PTR $T2[ebp], edx
	mov	DWORD PTR __$EHRec$[ebp+8], -1
	mov	eax, DWORD PTR _theObject$[ebp]
	mov	ecx, DWORD PTR $T2[ebp]
	mov	DWORD PTR [eax+332], ecx

; 4103 : 			else

	jmp	$LN12@CreateFeat
$LN13@CreateFeat:

; 4104 : 				theObject->drawPointer = new DrawableRoadbed(visType, -1, &simView, theObject->Yaw(), 10.0f, (float)atan(20.0f/280.0f) );

	push	212					; 000000d4H
	call	??2@YAPAXI@Z				; operator new
	add	esp, 4
	mov	DWORD PTR $T11[ebp], eax
	mov	DWORD PTR __$EHRec$[ebp+8], 3
	cmp	DWORD PTR $T11[ebp], 0
	je	SHORT $LN39@CreateFeat
	push	ecx
	movss	xmm0, DWORD PTR __real@3f800000
	movss	DWORD PTR [esp], xmm0
	push	ecx
	movss	xmm0, DWORD PTR __real@3d924925
	movss	DWORD PTR [esp], xmm0
	call	?atan@@YAMM@Z				; atan
	fstp	DWORD PTR [esp]
	push	ecx
	movss	xmm0, DWORD PTR __real@41200000
	movss	DWORD PTR [esp], xmm0
	mov	ecx, DWORD PTR _theObject$[ebp]
	call	?Yaw@VuEntity@@QBEMXZ			; VuEntity::Yaw
	push	ecx
	fstp	DWORD PTR [esp]
	lea	edx, DWORD PTR _simView$[ebp]
	push	edx
	push	-1
	movsx	eax, WORD PTR _visType$[ebp]
	push	eax
	mov	ecx, DWORD PTR $T11[ebp]
	call	??0DrawableRoadbed@@QAE@HHPAUTpoint@@MMMM@Z ; DrawableRoadbed::DrawableRoadbed
	mov	DWORD PTR tv440[ebp], eax
	jmp	SHORT $LN40@CreateFeat
$LN39@CreateFeat:
	mov	DWORD PTR tv440[ebp], 0
$LN40@CreateFeat:
	mov	ecx, DWORD PTR tv440[ebp]
	mov	DWORD PTR $T6[ebp], ecx
	mov	DWORD PTR __$EHRec$[ebp+8], -1
	mov	edx, DWORD PTR _theObject$[ebp]
	mov	eax, DWORD PTR $T6[ebp]
	mov	DWORD PTR [edx+332], eax
$LN12@CreateFeat:

; 4105 : 		}
; 4106 : 		else

	jmp	SHORT $LN11@CreateFeat
$LN14@CreateFeat:

; 4107 : 			theObject->drawPointer = NULL;

	mov	ecx, DWORD PTR _theObject$[ebp]
	mov	DWORD PTR [ecx+332], 0
$LN11@CreateFeat:

; 4108 : 
; 4109 : 		// Check for replacement
; 4110 : 		if (lastPointer)

	cmp	DWORD PTR _lastPointer$[ebp], 0
	je	SHORT $LN10@CreateFeat

; 4111 : 		{
; 4112 : 			ShiAssert(lastPointer->GetClass() == DrawableObject::Roadbed);
; 4113 : 			ShiAssert(theObject->drawPointer->GetClass() == DrawableObject::Roadbed);
; 4114 : 			((DrawableBridge*)(((SimFeatureClass*)baseObject)->baseObject))->ReplacePiece ((DrawableRoadbed*)(lastPointer), (DrawableRoadbed*)(theObject->drawPointer));

	mov	edx, DWORD PTR _theObject$[ebp]
	mov	eax, DWORD PTR [edx+332]
	push	eax
	mov	ecx, DWORD PTR _lastPointer$[ebp]
	push	ecx
	mov	edx, DWORD PTR _baseObject$[ebp]
	mov	ecx, DWORD PTR [edx+596]
	call	?ReplacePiece@DrawableBridge@@QAEXPAVDrawableRoadbed@@0@Z ; DrawableBridge::ReplacePiece
	jmp	SHORT $LN8@CreateFeat
$LN10@CreateFeat:

; 4115 : 		}
; 4116 : 		else if (theObject->drawPointer)

	mov	eax, DWORD PTR _theObject$[ebp]
	cmp	DWORD PTR [eax+332], 0
	je	SHORT $LN8@CreateFeat

; 4117 : 		{
; 4118 : 			ShiAssert(theObject->drawPointer->GetClass() == DrawableObject::Roadbed);
; 4119 : 			((DrawableBridge*)(((SimFeatureClass*)baseObject)->baseObject))->AddSegment((DrawableRoadbed*)(theObject->drawPointer));

	mov	ecx, DWORD PTR _theObject$[ebp]
	mov	edx, DWORD PTR [ecx+332]
	push	edx
	mov	eax, DWORD PTR _baseObject$[ebp]
	mov	ecx, DWORD PTR [eax+596]
	call	?AddSegment@DrawableBridge@@QAEXPAVDrawableRoadbed@@@Z ; DrawableBridge::AddSegment
$LN8@CreateFeat:

; 4120 : 		}
; 4121 : 	}

	jmp	$LN3@CreateFeat
$LN15@CreateFeat:

; 4122 : 	// Is the container a big flat thing (airbase)?
; 4123 : 	else if (baseObject->IsSetCampaignFlag(FEAT_FLAT_CONTAINER))

	push	256					; 00000100H
	mov	ecx, DWORD PTR _baseObject$[ebp]
	call	?IsSetCampaignFlag@SimBaseClass@@QBEHH@Z ; SimBaseClass::IsSetCampaignFlag
	test	eax, eax
	je	$LN6@CreateFeat

; 4124 : 	{
; 4125 : 		// Everything on a platform is a Building
; 4126 : 		// That means it sticks straight up the -Z axis
; 4127 : 		theObject->drawPointer = new DrawableBuilding(visType, &simView, theObject->Yaw(), 1.0F);

	push	176					; 000000b0H
	call	??2@YAPAXI@Z				; operator new
	add	esp, 4
	mov	DWORD PTR $T15[ebp], eax
	mov	DWORD PTR __$EHRec$[ebp+8], 4
	cmp	DWORD PTR $T15[ebp], 0
	je	SHORT $LN41@CreateFeat
	push	ecx
	movss	xmm0, DWORD PTR __real@3f800000
	movss	DWORD PTR [esp], xmm0
	mov	ecx, DWORD PTR _theObject$[ebp]
	call	?Yaw@VuEntity@@QBEMXZ			; VuEntity::Yaw
	push	ecx
	fstp	DWORD PTR [esp]
	lea	ecx, DWORD PTR _simView$[ebp]
	push	ecx
	movsx	edx, WORD PTR _visType$[ebp]
	push	edx
	mov	ecx, DWORD PTR $T15[ebp]
	call	??0DrawableBuilding@@QAE@HPAUTpoint@@MM@Z ; DrawableBuilding::DrawableBuilding
	mov	DWORD PTR tv508[ebp], eax
	jmp	SHORT $LN42@CreateFeat
$LN41@CreateFeat:
	mov	DWORD PTR tv508[ebp], 0
$LN42@CreateFeat:
	mov	eax, DWORD PTR tv508[ebp]
	mov	DWORD PTR $T3[ebp], eax
	mov	DWORD PTR __$EHRec$[ebp+8], -1
	mov	ecx, DWORD PTR _theObject$[ebp]
	mov	edx, DWORD PTR $T3[ebp]
	mov	DWORD PTR [ecx+332], edx

; 4128 : 
; 4129 : 		// Am I Flat (can things drive across it)?
; 4130 : 		if (theObject->IsSetCampaignFlag((FEAT_FLAT_CONTAINER | FEAT_ELEV_CONTAINER)))

	push	768					; 00000300H
	mov	ecx, DWORD PTR _theObject$[ebp]
	call	?IsSetCampaignFlag@SimBaseClass@@QBEHH@Z ; SimBaseClass::IsSetCampaignFlag
	test	eax, eax
	je	SHORT $LN5@CreateFeat

; 4131 : 			((DrawablePlatform*)((SimFeatureClass*)baseObject)->baseObject)->InsertStaticSurface (((DrawableBuilding*)theObject->drawPointer));

	mov	eax, DWORD PTR _theObject$[ebp]
	mov	ecx, DWORD PTR [eax+332]
	push	ecx
	mov	edx, DWORD PTR _baseObject$[ebp]
	mov	ecx, DWORD PTR [edx+596]
	call	?InsertStaticSurface@DrawablePlatform@@QAEXPAVDrawableBuilding@@@Z ; DrawablePlatform::InsertStaticSurface

; 4132 : 		else

	jmp	SHORT $LN4@CreateFeat
$LN5@CreateFeat:

; 4133 : 			((DrawablePlatform*)((SimFeatureClass*)baseObject)->baseObject)->InsertStaticObject (theObject->drawPointer);

	mov	eax, DWORD PTR _theObject$[ebp]
	mov	ecx, DWORD PTR [eax+332]
	push	ecx
	mov	edx, DWORD PTR _baseObject$[ebp]
	mov	ecx, DWORD PTR [edx+596]
	call	?InsertStaticObject@DrawablePlatform@@QAEXPAVDrawableObject@@@Z ; DrawablePlatform::InsertStaticObject
$LN4@CreateFeat:

; 4134 : 	}
; 4135 : 	else 

	jmp	$LN3@CreateFeat
$LN6@CreateFeat:

; 4136 : 	{
; 4137 : 		// if we get here then this is just a loose collection of buildings, like a
; 4138 : 		// village or city, with no big flat objects between them
; 4139 : 		theObject->drawPointer = new DrawableBuilding(visType, &simView, theObject->Yaw(), 1.0F);

	push	176					; 000000b0H
	call	??2@YAPAXI@Z				; operator new
	add	esp, 4
	mov	DWORD PTR $T13[ebp], eax
	mov	DWORD PTR __$EHRec$[ebp+8], 5
	cmp	DWORD PTR $T13[ebp], 0
	je	SHORT $LN43@CreateFeat
	push	ecx
	movss	xmm0, DWORD PTR __real@3f800000
	movss	DWORD PTR [esp], xmm0
	mov	ecx, DWORD PTR _theObject$[ebp]
	call	?Yaw@VuEntity@@QBEMXZ			; VuEntity::Yaw
	push	ecx
	fstp	DWORD PTR [esp]
	lea	eax, DWORD PTR _simView$[ebp]
	push	eax
	movsx	ecx, WORD PTR _visType$[ebp]
	push	ecx
	mov	ecx, DWORD PTR $T13[ebp]
	call	??0DrawableBuilding@@QAE@HPAUTpoint@@MM@Z ; DrawableBuilding::DrawableBuilding
	mov	DWORD PTR tv563[ebp], eax
	jmp	SHORT $LN44@CreateFeat
$LN43@CreateFeat:
	mov	DWORD PTR tv563[ebp], 0
$LN44@CreateFeat:
	mov	edx, DWORD PTR tv563[ebp]
	mov	DWORD PTR $T5[ebp], edx
	mov	DWORD PTR __$EHRec$[ebp+8], -1
	mov	eax, DWORD PTR _theObject$[ebp]
	mov	ecx, DWORD PTR $T5[ebp]
	mov	DWORD PTR [eax+332], ecx

; 4140 : 
; 4141 : 		// Insert the object
; 4142 : 		_viewPoint->InsertObject(((SimFeatureClass*)theObject)->drawPointer);

	mov	edx, DWORD PTR _theObject$[ebp]
	mov	eax, DWORD PTR [edx+332]
	push	eax
	mov	ecx, DWORD PTR _this$[ebp]
	mov	ecx, DWORD PTR [ecx+124]
	call	?InsertObject@RViewPoint@@QAEXPAVDrawableObject@@@Z ; RViewPoint::InsertObject
$LN3@CreateFeat:

; 4143 : 	}
; 4144 : 	// KCK: Remove any previous drawable object
; 4145 : 	if (lastPointer)

	cmp	DWORD PTR _lastPointer$[ebp], 0
	je	SHORT $LN46@CreateFeat

; 4146 : 	{
; 4147 : 		if ( lastPointer->InDisplayList() )

	mov	ecx, DWORD PTR _lastPointer$[ebp]
	call	?InDisplayList@DrawableObject@@QAEHXZ	; DrawableObject::InDisplayList
	test	eax, eax
	je	SHORT $LN1@CreateFeat

; 4148 : 			_viewPoint->RemoveObject( lastPointer );

	mov	edx, DWORD PTR _lastPointer$[ebp]
	push	edx
	mov	eax, DWORD PTR _this$[ebp]
	mov	ecx, DWORD PTR [eax+124]
	call	?RemoveObject@RViewPoint@@QAEXPAVDrawableObject@@@Z ; RViewPoint::RemoveObject
$LN1@CreateFeat:

; 4149 : 		delete lastPointer;

	mov	ecx, DWORD PTR _lastPointer$[ebp]
	mov	DWORD PTR $T7[ebp], ecx
	mov	edx, DWORD PTR $T7[ebp]
	mov	DWORD PTR $T16[ebp], edx
	cmp	DWORD PTR $T16[ebp], 0
	je	SHORT $LN45@CreateFeat
	push	1
	mov	eax, DWORD PTR $T16[ebp]
	mov	edx, DWORD PTR [eax]
	mov	ecx, DWORD PTR $T16[ebp]
	mov	eax, DWORD PTR [edx]
	call	eax
	mov	DWORD PTR tv589[ebp], eax
	jmp	SHORT $LN46@CreateFeat
$LN45@CreateFeat:
	mov	DWORD PTR tv589[ebp], 0
$LN46@CreateFeat:
$LN31@CreateFeat:

; 4150 : 	}
; 4151 : }

	mov	ecx, DWORD PTR __$EHRec$[ebp]
	mov	DWORD PTR fs:0, ecx
	pop	ecx
	mov	ecx, DWORD PTR __$ArrayPad$[ebp]
	xor	ecx, ebp
	call	@__security_check_cookie@4
	mov	esp, ebp
	pop	ebp
	ret	4
_TEXT	ENDS
text$x	SEGMENT
__unwindfunclet$?CreateFeatureDrawable@ACMITape@@AAEXPAUSimTapeEntity@@@Z$0:
	mov	eax, DWORD PTR $T9[ebp]
	push	eax
	call	??3@YAXPAX@Z				; operator delete
	pop	ecx
	ret	0
__unwindfunclet$?CreateFeatureDrawable@ACMITape@@AAEXPAUSimTapeEntity@@@Z$1:
	mov	eax, DWORD PTR $T12[ebp]
	push	eax
	call	??3@YAXPAX@Z				; operator delete
	pop	ecx
	ret	0
__unwindfunclet$?CreateFeatureDrawable@ACMITape@@AAEXPAUSimTapeEntity@@@Z$2:
	mov	eax, DWORD PTR $T10[ebp]
	push	eax
	call	??3@YAXPAX@Z				; operator delete
	pop	ecx
	ret	0
__unwindfunclet$?CreateFeatureDrawable@ACMITape@@AAEXPAUSimTapeEntity@@@Z$3:
	mov	eax, DWORD PTR $T11[ebp]
	push	eax
	call	??3@YAXPAX@Z				; operator delete
	pop	ecx
	ret	0
__unwindfunclet$?CreateFeatureDrawable@ACMITape@@AAEXPAUSimTapeEntity@@@Z$4:
	mov	eax, DWORD PTR $T15[ebp]
	push	eax
	call	??3@YAXPAX@Z				; operator delete
	pop	ecx
	ret	0
__unwindfunclet$?CreateFeatureDrawable@ACMITape@@AAEXPAUSimTapeEntity@@@Z$5:
	mov	eax, DWORD PTR $T13[ebp]
	push	eax
	call	??3@YAXPAX@Z				; operator delete
	pop	ecx
	ret	0
__ehhandler$?CreateFeatureDrawable@ACMITape@@AAEXPAUSimTapeEntity@@@Z:
	mov	edx, DWORD PTR [esp+8]
	lea	eax, DWORD PTR [edx+12]
	mov	ecx, DWORD PTR [edx-176]
	xor	ecx, eax
	call	@__security_check_cookie@4
	mov	ecx, DWORD PTR [edx-4]
	xor	ecx, eax
	call	@__security_check_cookie@4
	mov	eax, OFFSET __ehfuncinfo$?CreateFeatureDrawable@ACMITape@@AAEXPAUSimTapeEntity@@@Z
	jmp	___CxxFrameHandler3
text$x	ENDS
?CreateFeatureDrawable@ACMITape@@AAEXPAUSimTapeEntity@@@Z ENDP ; ACMITape::CreateFeatureDrawable
; Function compile flags: /Odtp
; File c:\users\zhitao li\documents\visual studio 2012\projects\freefalcon\acmi\src\acmitape.cpp
_TEXT	SEGMENT
_sfx$ = -20						; size = 4
_td$ = -16						; size = 4
tv67 = -12						; size = 4
_this$ = -8						; size = 4
_event$ = -4						; size = 4
?UpdateActiveEvents@ACMITape@@AAEXXZ PROC		; ACMITape::UpdateActiveEvents
; _this$ = ecx

; 3655 : {

	push	ebp
	mov	ebp, esp
	sub	esp, 20					; 00000014H
	mov	DWORD PTR _this$[ebp], ecx

; 3656 : 	ActiveEvent *event = NULL;

	mov	DWORD PTR _event$[ebp], 0

; 3657 : 	TracerEventData *td = NULL;

	mov	DWORD PTR _td$[ebp], 0

; 3658 : 	SfxClass *sfx;
; 3659 : 
; 3660 : 	event = _activeEventHead;

	mov	eax, DWORD PTR _this$[ebp]
	mov	ecx, DWORD PTR [eax+192]
	mov	DWORD PTR _event$[ebp], ecx
$LN7@UpdateActi:

; 3661 : 
; 3662 : 	while( event )

	cmp	DWORD PTR _event$[ebp], 0
	je	SHORT $LN6@UpdateActi

; 3663 : 	{
; 3664 : 
; 3665 : 		// handle based on type
; 3666 : 		switch( event->eventType )

	mov	edx, DWORD PTR _event$[ebp]
	mov	eax, DWORD PTR [edx]
	mov	DWORD PTR tv67[ebp], eax
	cmp	DWORD PTR tv67[ebp], 4
	je	SHORT $LN3@UpdateActi
	cmp	DWORD PTR tv67[ebp], 4
	jle	SHORT $LN1@UpdateActi
	cmp	DWORD PTR tv67[ebp], 6
	jle	SHORT $LN2@UpdateActi
	jmp	SHORT $LN1@UpdateActi
$LN3@UpdateActi:

; 3667 : 		{
; 3668 : 			case ACMIRecTracerStart:
; 3669 : 
; 3670 : 				// deref eventData
; 3671 : 				td = (TracerEventData *)event->eventData;

	mov	ecx, DWORD PTR _event$[ebp]
	mov	edx, DWORD PTR [ecx+16]
	mov	DWORD PTR _td$[ebp], edx

; 3672 : 				UpdateTracerEvent( td, _simTime - event->time );

	mov	eax, DWORD PTR _this$[ebp]
	mov	ecx, DWORD PTR _event$[ebp]
	movss	xmm0, DWORD PTR [eax+108]
	subss	xmm0, DWORD PTR [ecx+8]
	push	ecx
	movss	DWORD PTR [esp], xmm0
	mov	edx, DWORD PTR _td$[ebp]
	push	edx
	mov	ecx, DWORD PTR _this$[ebp]
	call	?UpdateTracerEvent@ACMITape@@AAEXPAUTracerEventData@@M@Z ; ACMITape::UpdateTracerEvent

; 3673 : 	
; 3674 : 				// remove from display list if event no longer exists
; 3675 : 				// blech, this is a very less than optimal solution
; 3676 : 				// the active event list is going to bloat over time
; 3677 : 				/*
; 3678 : 				if ( _simTime > event->timeEnd || event->time > _simTime )
; 3679 : 				{
; 3680 : 					if ( td->objTracer->InDisplayList() )
; 3681 : 						_viewPoint->RemoveObject( td->objTracer );
; 3682 : 				}
; 3683 : 				else
; 3684 : 				{
; 3685 : 					// the event is active....
; 3686 : 					if ( !td->objTracer->InDisplayList() )
; 3687 : 						_viewPoint->InsertObject( td->objTracer );
; 3688 : 					UpdateTracerEvent( td, _simTime - event->time );
; 3689 : 				}
; 3690 : 				*/
; 3691 : 				break;

	jmp	SHORT $LN4@UpdateActi
$LN2@UpdateActi:

; 3692 : 		case ACMIRecMovingSfx:
; 3693 : 		case ACMIRecStationarySfx:
; 3694 : 
; 3695 : 				// deref eventData
; 3696 : 				sfx = (SfxClass *)event->eventData;

	mov	eax, DWORD PTR _event$[ebp]
	mov	ecx, DWORD PTR [eax+16]
	mov	DWORD PTR _sfx$[ebp], ecx

; 3697 : 				sfx->ACMIExec( _simTime );

	mov	edx, DWORD PTR _this$[ebp]
	push	ecx
	movss	xmm0, DWORD PTR [edx+108]
	movss	DWORD PTR [esp], xmm0
	mov	ecx, DWORD PTR _sfx$[ebp]
	call	?ACMIExec@SfxClass@@QAEHM@Z		; SfxClass::ACMIExec
$LN1@UpdateActi:
$LN4@UpdateActi:

; 3698 : 
; 3699 : 				break;
; 3700 : 	
; 3701 : 			// currently don't handle anything else
; 3702 : 			default:
; 3703 : 				break;
; 3704 : 		}
; 3705 : 
; 3706 : 		event = event->next;

	mov	eax, DWORD PTR _event$[ebp]
	mov	ecx, DWORD PTR [eax+20]
	mov	DWORD PTR _event$[ebp], ecx

; 3707 : 	}

	jmp	SHORT $LN7@UpdateActi
$LN6@UpdateActi:

; 3708 : }

	mov	esp, ebp
	pop	ebp
	ret	0
?UpdateActiveEvents@ACMITape@@AAEXXZ ENDP		; ACMITape::UpdateActiveEvents
_TEXT	ENDS
; Function compile flags: /Odtp
; File c:\users\zhitao li\documents\visual studio 2012\projects\freefalcon\acmi\src\acmitape.cpp
_TEXT	SEGMENT
$T1 = -52						; size = 4
tv133 = -48						; size = 4
$T2 = -44						; size = 4
_sfx$ = -40						; size = 4
$T3 = -36						; size = 4
tv94 = -32						; size = 4
$T4 = -28						; size = 4
_this$ = -24						; size = 4
$T5 = -20						; size = 4
$T6 = -16						; size = 4
tv65 = -12						; size = 4
_td$ = -8						; size = 4
_event$ = -4						; size = 4
_eptrptr$ = 8						; size = 4
?RemoveActiveEvent@ACMITape@@AAEXPAPAU_ActiveEvent@@@Z PROC ; ACMITape::RemoveActiveEvent
; _this$ = ecx

; 3577 : {

	push	ebp
	mov	ebp, esp
	sub	esp, 52					; 00000034H
	mov	DWORD PTR _this$[ebp], ecx

; 3578 : 	ActiveEvent *event = *eptrptr;

	mov	eax, DWORD PTR _eptrptr$[ebp]
	mov	ecx, DWORD PTR [eax]
	mov	DWORD PTR _event$[ebp], ecx

; 3579 : 	TracerEventData *td = NULL;

	mov	DWORD PTR _td$[ebp], 0

; 3580 : 	SfxClass *sfx;
; 3581 : 
; 3582 : 	// deletion based on type
; 3583 : 	switch( event->eventType )

	mov	edx, DWORD PTR _event$[ebp]
	mov	eax, DWORD PTR [edx]
	mov	DWORD PTR tv65[ebp], eax
	cmp	DWORD PTR tv65[ebp], 4
	je	SHORT $LN7@RemoveActi
	cmp	DWORD PTR tv65[ebp], 4
	jle	$LN4@RemoveActi
	cmp	DWORD PTR tv65[ebp], 6
	jle	SHORT $LN5@RemoveActi
	jmp	$LN4@RemoveActi
$LN7@RemoveActi:

; 3584 : 	{
; 3585 : 		case ACMIRecTracerStart:
; 3586 : 
; 3587 : 			// cast eventData to appropriate type
; 3588 : 			td = (TracerEventData *)event->eventData;

	mov	ecx, DWORD PTR _event$[ebp]
	mov	edx, DWORD PTR [ecx+16]
	mov	DWORD PTR _td$[ebp], edx

; 3589 : 
; 3590 : 			// remove from draw list
; 3591 : 			if ( td->objTracer->InDisplayList() )

	mov	eax, DWORD PTR _td$[ebp]
	mov	ecx, DWORD PTR [eax+24]
	call	?InDisplayList@DrawableObject@@QAEHXZ	; DrawableObject::InDisplayList
	test	eax, eax
	je	SHORT $LN6@RemoveActi

; 3592 : 				_viewPoint->RemoveObject( td->objTracer );

	mov	ecx, DWORD PTR _td$[ebp]
	mov	edx, DWORD PTR [ecx+24]
	push	edx
	mov	eax, DWORD PTR _this$[ebp]
	mov	ecx, DWORD PTR [eax+124]
	call	?RemoveObject@RViewPoint@@QAEXPAVDrawableObject@@@Z ; RViewPoint::RemoveObject
$LN6@RemoveActi:

; 3593 : 
; 3594 : 			// free data memory
; 3595 : 			delete td->objTracer;

	mov	ecx, DWORD PTR _td$[ebp]
	mov	edx, DWORD PTR [ecx+24]
	mov	DWORD PTR $T4[ebp], edx
	mov	eax, DWORD PTR $T4[ebp]
	mov	DWORD PTR $T6[ebp], eax
	cmp	DWORD PTR $T6[ebp], 0
	je	SHORT $LN12@RemoveActi
	push	1
	mov	ecx, DWORD PTR $T6[ebp]
	mov	edx, DWORD PTR [ecx]
	mov	ecx, DWORD PTR $T6[ebp]
	mov	eax, DWORD PTR [edx]
	call	eax
	mov	DWORD PTR tv94[ebp], eax
	jmp	SHORT $LN13@RemoveActi
$LN12@RemoveActi:
	mov	DWORD PTR tv94[ebp], 0
$LN13@RemoveActi:

; 3596 : 			delete td;

	mov	ecx, DWORD PTR _td$[ebp]
	mov	DWORD PTR $T3[ebp], ecx
	mov	edx, DWORD PTR $T3[ebp]
	push	edx
	call	??3@YAXPAX@Z				; operator delete
	add	esp, 4

; 3597 : 
; 3598 : 			break;

	jmp	SHORT $LN8@RemoveActi
$LN5@RemoveActi:

; 3599 : 
; 3600 : 		case ACMIRecMovingSfx:
; 3601 : 		case ACMIRecStationarySfx:
; 3602 : 
; 3603 : 			// cast eventData to appropriate type
; 3604 : 			sfx = (SfxClass *)event->eventData;

	mov	eax, DWORD PTR _event$[ebp]
	mov	ecx, DWORD PTR [eax+16]
	mov	DWORD PTR _sfx$[ebp], ecx

; 3605 : 
; 3606 : 			// free data memory
; 3607 : 			delete sfx;

	mov	edx, DWORD PTR _sfx$[ebp]
	mov	DWORD PTR $T2[ebp], edx
	mov	eax, DWORD PTR $T2[ebp]
	mov	DWORD PTR $T5[ebp], eax
	cmp	DWORD PTR $T5[ebp], 0
	je	SHORT $LN14@RemoveActi
	push	1
	mov	ecx, DWORD PTR $T5[ebp]
	call	??_GSfxClass@@QAEPAXI@Z
	mov	DWORD PTR tv133[ebp], eax
	jmp	SHORT $LN15@RemoveActi
$LN14@RemoveActi:
	mov	DWORD PTR tv133[ebp], 0
$LN15@RemoveActi:

; 3608 : 
; 3609 : 			break;

	jmp	SHORT $LN8@RemoveActi
$LN4@RemoveActi:

; 3610 : 
; 3611 : 		// current don't handle anything else
; 3612 : 		default:
; 3613 : 			return;

	jmp	SHORT $LN10@RemoveActi
$LN8@RemoveActi:

; 3614 : 	}
; 3615 : 
; 3616 : 	// take event out of active Event List
; 3617 : 	if ( event->prev )

	mov	ecx, DWORD PTR _event$[ebp]
	cmp	DWORD PTR [ecx+24], 0
	je	SHORT $LN3@RemoveActi

; 3618 : 		event->prev->next = event->next;

	mov	edx, DWORD PTR _event$[ebp]
	mov	eax, DWORD PTR [edx+24]
	mov	ecx, DWORD PTR _event$[ebp]
	mov	edx, DWORD PTR [ecx+20]
	mov	DWORD PTR [eax+20], edx

; 3619 : 	else

	jmp	SHORT $LN2@RemoveActi
$LN3@RemoveActi:

; 3620 : 		_activeEventHead = event->next;

	mov	eax, DWORD PTR _this$[ebp]
	mov	ecx, DWORD PTR _event$[ebp]
	mov	edx, DWORD PTR [ecx+20]
	mov	DWORD PTR [eax+192], edx
$LN2@RemoveActi:

; 3621 : 
; 3622 : 	if ( event->next )

	mov	eax, DWORD PTR _event$[ebp]
	cmp	DWORD PTR [eax+20], 0
	je	SHORT $LN1@RemoveActi

; 3623 : 		event->next->prev = event->prev;

	mov	ecx, DWORD PTR _event$[ebp]
	mov	edx, DWORD PTR [ecx+20]
	mov	eax, DWORD PTR _event$[ebp]
	mov	ecx, DWORD PTR [eax+24]
	mov	DWORD PTR [edx+24], ecx
$LN1@RemoveActi:

; 3624 : 
; 3625 : 	// delete event data and set caller's pointer to NULL
; 3626 : 	delete event;

	mov	edx, DWORD PTR _event$[ebp]
	mov	DWORD PTR $T1[ebp], edx
	mov	eax, DWORD PTR $T1[ebp]
	push	eax
	call	??3@YAXPAX@Z				; operator delete
	add	esp, 4

; 3627 : 	*eptrptr =NULL;

	mov	ecx, DWORD PTR _eptrptr$[ebp]
	mov	DWORD PTR [ecx], 0
$LN10@RemoveActi:

; 3628 : }

	mov	esp, ebp
	pop	ebp
	ret	4
?RemoveActiveEvent@ACMITape@@AAEXPAPAU_ActiveEvent@@@Z ENDP ; ACMITape::RemoveActiveEvent
_TEXT	ENDS
; Function compile flags: /Odtp
; File c:\users\zhitao li\documents\visual studio 2012\projects\freefalcon\acmi\src\acmitape.cpp
_TEXT	SEGMENT
$T2 = -152						; size = 4
$T3 = -148						; size = 4
$T4 = -144						; size = 4
$T5 = -140						; size = 4
$T6 = -136						; size = 4
$T7 = -132						; size = 4
$T8 = -128						; size = 4
$T9 = -124						; size = 4
$T10 = -120						; size = 4
$T11 = -116						; size = 4
tv138 = -112						; size = 4
$T12 = -108						; size = 4
tv198 = -104						; size = 4
$T13 = -100						; size = 4
tv357 = -96						; size = 4
tv288 = -92						; size = 4
$T14 = -88						; size = 4
tv245 = -84						; size = 4
tv305 = -80						; size = 4
$T15 = -76						; size = 4
$T16 = -72						; size = 4
$T17 = -68						; size = 4
tv70 = -64						; size = 4
_simBase$ = -60						; size = 4
_sfx$ = -56						; size = 4
_this$ = -52						; size = 4
_td$ = -48						; size = 4
_event$ = -44						; size = 4
_vec$ = -40						; size = 12
_pos$ = -28						; size = 12
__$ArrayPad$ = -16					; size = 4
__$EHRec$ = -12						; size = 12
_eh$ = 8						; size = 4
_dT$ = 12						; size = 4
?InsertActiveEvent@ACMITape@@AAEPAU_ActiveEvent@@PAUACMIEventHeader@@M@Z PROC ; ACMITape::InsertActiveEvent
; _this$ = ecx

; 3433 : {

	push	ebp
	mov	ebp, esp
	push	-1
	push	__ehhandler$?InsertActiveEvent@ACMITape@@AAEPAU_ActiveEvent@@PAUACMIEventHeader@@M@Z
	mov	eax, DWORD PTR fs:0
	push	eax
	sub	esp, 140				; 0000008cH
	mov	eax, DWORD PTR ___security_cookie
	xor	eax, ebp
	mov	DWORD PTR __$ArrayPad$[ebp], eax
	push	eax
	lea	eax, DWORD PTR __$EHRec$[ebp]
	mov	DWORD PTR fs:0, eax
	mov	DWORD PTR _this$[ebp], ecx

; 3434 : 	ActiveEvent *event = NULL;

	mov	DWORD PTR _event$[ebp], 0

; 3435 : 	TracerEventData *td = NULL;

	mov	DWORD PTR _td$[ebp], 0

; 3436 : 	SfxClass *sfx = NULL;

	mov	DWORD PTR _sfx$[ebp], 0

; 3437 : 	SimBaseClass *simBase;
; 3438 : 	Tpoint pos;
; 3439 : 	Tpoint vec;
; 3440 : 
; 3441 : 	// don't insert if passed end time
; 3442 : 	if ( eh->time + dT > eh->timeEnd )

	mov	eax, DWORD PTR _eh$[ebp]
	movss	xmm0, DWORD PTR [eax+5]
	addss	xmm0, DWORD PTR _dT$[ebp]
	mov	ecx, DWORD PTR _eh$[ebp]
	comiss	xmm0, DWORD PTR [ecx+9]
	jbe	SHORT $LN10@InsertActi

; 3443 : 		return NULL;

	xor	eax, eax
	jmp	$LN11@InsertActi
$LN10@InsertActi:

; 3444 : 
; 3445 : 	// creation based on type
; 3446 : 	switch( eh->eventType )

	mov	edx, DWORD PTR _eh$[ebp]
	mov	al, BYTE PTR [edx]
	mov	BYTE PTR tv70[ebp], al
	cmp	BYTE PTR tv70[ebp], 4
	je	SHORT $LN7@InsertActi
	cmp	BYTE PTR tv70[ebp], 5
	je	$LN6@InsertActi
	cmp	BYTE PTR tv70[ebp], 6
	je	$LN5@InsertActi
	jmp	$LN2@InsertActi
$LN7@InsertActi:

; 3447 : 	{
; 3448 : 		case ACMIRecTracerStart:
; 3449 : 			// create new event record
; 3450 : 			event = new ActiveEvent;

	push	28					; 0000001cH
	call	??2@YAPAXI@Z				; operator new
	add	esp, 4
	mov	DWORD PTR $T4[ebp], eax
	mov	ecx, DWORD PTR $T4[ebp]
	mov	DWORD PTR _event$[ebp], ecx

; 3451 : 			F4Assert( event );
; 3452 : 			event->eventType = eh->eventType;

	mov	edx, DWORD PTR _eh$[ebp]
	movzx	eax, BYTE PTR [edx]
	mov	ecx, DWORD PTR _event$[ebp]
	mov	DWORD PTR [ecx], eax

; 3453 : 			event->index = eh->index;

	mov	edx, DWORD PTR _event$[ebp]
	mov	eax, DWORD PTR _eh$[ebp]
	mov	ecx, DWORD PTR [eax+1]
	mov	DWORD PTR [edx+4], ecx

; 3454 : 			event->time = eh->time;

	mov	edx, DWORD PTR _event$[ebp]
	mov	eax, DWORD PTR _eh$[ebp]
	mov	ecx, DWORD PTR [eax+5]
	mov	DWORD PTR [edx+8], ecx

; 3455 : 			event->timeEnd = eh->timeEnd;

	mov	edx, DWORD PTR _event$[ebp]
	mov	eax, DWORD PTR _eh$[ebp]
	mov	ecx, DWORD PTR [eax+9]
	mov	DWORD PTR [edx+12], ecx

; 3456 : 
; 3457 : 			// create new tracer event record
; 3458 : 			td = new TracerEventData;

	push	28					; 0000001cH
	call	??2@YAPAXI@Z				; operator new
	add	esp, 4
	mov	DWORD PTR $T11[ebp], eax
	mov	edx, DWORD PTR $T11[ebp]
	mov	DWORD PTR _td$[ebp], edx

; 3459 : 			F4Assert( td );
; 3460 : 			event->eventData = (void *)td;

	mov	eax, DWORD PTR _event$[ebp]
	mov	ecx, DWORD PTR _td$[ebp]
	mov	DWORD PTR [eax+16], ecx

; 3461 : 
; 3462 : 			// init tracer data
; 3463 : 			td->x = eh->x;

	mov	edx, DWORD PTR _td$[ebp]
	mov	eax, DWORD PTR _eh$[ebp]
	mov	ecx, DWORD PTR [eax+29]
	mov	DWORD PTR [edx], ecx

; 3464 : 			td->y = eh->y;

	mov	edx, DWORD PTR _td$[ebp]
	mov	eax, DWORD PTR _eh$[ebp]
	mov	ecx, DWORD PTR [eax+33]
	mov	DWORD PTR [edx+4], ecx

; 3465 : 			td->z = eh->z;

	mov	edx, DWORD PTR _td$[ebp]
	mov	eax, DWORD PTR _eh$[ebp]
	mov	ecx, DWORD PTR [eax+37]
	mov	DWORD PTR [edx+8], ecx

; 3466 : 			td->dx = eh->dx;

	mov	edx, DWORD PTR _td$[ebp]
	mov	eax, DWORD PTR _eh$[ebp]
	mov	ecx, DWORD PTR [eax+41]
	mov	DWORD PTR [edx+12], ecx

; 3467 : 			td->dy = eh->dy;

	mov	edx, DWORD PTR _td$[ebp]
	mov	eax, DWORD PTR _eh$[ebp]
	mov	ecx, DWORD PTR [eax+45]
	mov	DWORD PTR [edx+16], ecx

; 3468 : 			td->dz = eh->dz;

	mov	edx, DWORD PTR _td$[ebp]
	mov	eax, DWORD PTR _eh$[ebp]
	mov	ecx, DWORD PTR [eax+49]
	mov	DWORD PTR [edx+20], ecx

; 3469 : 			// create tracer
; 3470 : 			td->objTracer = new DrawableTracer( 1.3f );

	push	96					; 00000060H
	call	??2@YAPAXI@Z				; operator new
	add	esp, 4
	mov	DWORD PTR $T16[ebp], eax
	mov	DWORD PTR __$EHRec$[ebp+8], 0
	cmp	DWORD PTR $T16[ebp], 0
	je	SHORT $LN13@InsertActi
	push	ecx
	movss	xmm0, DWORD PTR __real@3fa66666
	movss	DWORD PTR [esp], xmm0
	mov	ecx, DWORD PTR $T16[ebp]
	call	??0DrawableTracer@@QAE@M@Z		; DrawableTracer::DrawableTracer
	mov	DWORD PTR tv138[ebp], eax
	jmp	SHORT $LN14@InsertActi
$LN13@InsertActi:
	mov	DWORD PTR tv138[ebp], 0
$LN14@InsertActi:
	mov	edx, DWORD PTR tv138[ebp]
	mov	DWORD PTR $T2[ebp], edx
	mov	DWORD PTR __$EHRec$[ebp+8], -1
	mov	eax, DWORD PTR _td$[ebp]
	mov	ecx, DWORD PTR $T2[ebp]
	mov	DWORD PTR [eax+24], ecx

; 3471 : 			td->objTracer->SetAlpha( 0.8f );

	push	ecx
	movss	xmm0, DWORD PTR __real@3f4ccccd
	movss	DWORD PTR [esp], xmm0
	mov	edx, DWORD PTR _td$[ebp]
	mov	eax, DWORD PTR [edx+24]
	mov	ecx, DWORD PTR _td$[ebp]
	mov	edx, DWORD PTR [eax]
	mov	ecx, DWORD PTR [ecx+24]
	mov	eax, DWORD PTR [edx+36]
	call	eax

; 3472 : 			td->objTracer->SetRGB( 1.0f, 1.0f, 0.2f );

	push	ecx
	movss	xmm0, DWORD PTR __real@3e4ccccd
	movss	DWORD PTR [esp], xmm0
	push	ecx
	movss	xmm0, DWORD PTR __real@3f800000
	movss	DWORD PTR [esp], xmm0
	push	ecx
	movss	xmm0, DWORD PTR __real@3f800000
	movss	DWORD PTR [esp], xmm0
	mov	ecx, DWORD PTR _td$[ebp]
	mov	edx, DWORD PTR [ecx+24]
	mov	eax, DWORD PTR _td$[ebp]
	mov	edx, DWORD PTR [edx]
	mov	ecx, DWORD PTR [eax+24]
	mov	eax, DWORD PTR [edx+56]
	call	eax

; 3473 : 
; 3474 : 			UpdateTracerEvent( td, dT );

	push	ecx
	movss	xmm0, DWORD PTR _dT$[ebp]
	movss	DWORD PTR [esp], xmm0
	mov	ecx, DWORD PTR _td$[ebp]
	push	ecx
	mov	ecx, DWORD PTR _this$[ebp]
	call	?UpdateTracerEvent@ACMITape@@AAEXPAUTracerEventData@@M@Z ; ACMITape::UpdateTracerEvent

; 3475 : 
; 3476 : 			// put it into the draw list
; 3477 : 			_viewPoint->InsertObject( td->objTracer );

	mov	edx, DWORD PTR _td$[ebp]
	mov	eax, DWORD PTR [edx+24]
	push	eax
	mov	ecx, DWORD PTR _this$[ebp]
	mov	ecx, DWORD PTR [ecx+124]
	call	?InsertObject@RViewPoint@@QAEXPAVDrawableObject@@@Z ; RViewPoint::InsertObject

; 3478 : 
; 3479 : 			break;

	jmp	$LN8@InsertActi
$LN6@InsertActi:

; 3480 : 
; 3481 : 		case ACMIRecStationarySfx:
; 3482 : 			// create new event record
; 3483 : 			event = new ActiveEvent;

	push	28					; 0000001cH
	call	??2@YAPAXI@Z				; operator new
	add	esp, 4
	mov	DWORD PTR $T9[ebp], eax
	mov	edx, DWORD PTR $T9[ebp]
	mov	DWORD PTR _event$[ebp], edx

; 3484 : 			F4Assert( event );
; 3485 : 			event->eventType = eh->eventType;

	mov	eax, DWORD PTR _eh$[ebp]
	movzx	ecx, BYTE PTR [eax]
	mov	edx, DWORD PTR _event$[ebp]
	mov	DWORD PTR [edx], ecx

; 3486 : 			event->index = eh->index;

	mov	eax, DWORD PTR _event$[ebp]
	mov	ecx, DWORD PTR _eh$[ebp]
	mov	edx, DWORD PTR [ecx+1]
	mov	DWORD PTR [eax+4], edx

; 3487 : 			event->time = eh->time;

	mov	eax, DWORD PTR _event$[ebp]
	mov	ecx, DWORD PTR _eh$[ebp]
	mov	edx, DWORD PTR [ecx+5]
	mov	DWORD PTR [eax+8], edx

; 3488 : 			event->timeEnd = eh->timeEnd;

	mov	eax, DWORD PTR _event$[ebp]
	mov	ecx, DWORD PTR _eh$[ebp]
	mov	edx, DWORD PTR [ecx+9]
	mov	DWORD PTR [eax+12], edx

; 3489 : 
; 3490 : 			pos.x = eh->x;

	mov	eax, DWORD PTR _eh$[ebp]
	movss	xmm0, DWORD PTR [eax+29]
	movss	DWORD PTR _pos$[ebp], xmm0

; 3491 : 			pos.y = eh->y;

	mov	ecx, DWORD PTR _eh$[ebp]
	movss	xmm0, DWORD PTR [ecx+33]
	movss	DWORD PTR _pos$[ebp+4], xmm0

; 3492 : 			pos.z = eh->z;

	mov	edx, DWORD PTR _eh$[ebp]
	movss	xmm0, DWORD PTR [edx+37]
	movss	DWORD PTR _pos$[ebp+8], xmm0

; 3493 : 
; 3494 : 			// create new tracer event record
; 3495 : 			sfx = new SfxClass( eh->type,
; 3496 : 								&pos,
; 3497 : 								(float)(eh->timeEnd - eh->time),
; 3498 : 								eh->scale );

	push	192					; 000000c0H
	call	??2@YAPAXI@Z				; operator new
	add	esp, 4
	mov	DWORD PTR $T15[ebp], eax
	mov	DWORD PTR __$EHRec$[ebp+8], 1
	cmp	DWORD PTR $T15[ebp], 0
	je	SHORT $LN15@InsertActi
	mov	eax, DWORD PTR _eh$[ebp]
	push	ecx
	movss	xmm0, DWORD PTR [eax+25]
	movss	DWORD PTR [esp], xmm0
	mov	ecx, DWORD PTR _eh$[ebp]
	mov	edx, DWORD PTR _eh$[ebp]
	movss	xmm0, DWORD PTR [ecx+9]
	subss	xmm0, DWORD PTR [edx+5]
	push	ecx
	movss	DWORD PTR [esp], xmm0
	lea	eax, DWORD PTR _pos$[ebp]
	push	eax
	mov	ecx, DWORD PTR _eh$[ebp]
	mov	edx, DWORD PTR [ecx+13]
	push	edx
	mov	ecx, DWORD PTR $T15[ebp]
	call	??0SfxClass@@QAE@HPAUTpoint@@MM@Z	; SfxClass::SfxClass
	mov	DWORD PTR tv198[ebp], eax
	jmp	SHORT $LN16@InsertActi
$LN15@InsertActi:
	mov	DWORD PTR tv198[ebp], 0
$LN16@InsertActi:
	mov	eax, DWORD PTR tv198[ebp]
	mov	DWORD PTR $T5[ebp], eax
	mov	DWORD PTR __$EHRec$[ebp+8], -1
	mov	ecx, DWORD PTR $T5[ebp]
	mov	DWORD PTR _sfx$[ebp], ecx

; 3499 : 
; 3500 : 			F4Assert( sfx );
; 3501 : 			event->eventData = (void *)sfx;

	mov	edx, DWORD PTR _event$[ebp]
	mov	eax, DWORD PTR _sfx$[ebp]
	mov	DWORD PTR [edx+16], eax

; 3502 : 
; 3503 : 			sfx->ACMIStart( _viewPoint, event->time, _simTime );

	mov	ecx, DWORD PTR _this$[ebp]
	push	ecx
	movss	xmm0, DWORD PTR [ecx+108]
	movss	DWORD PTR [esp], xmm0
	mov	edx, DWORD PTR _event$[ebp]
	push	ecx
	movss	xmm0, DWORD PTR [edx+8]
	movss	DWORD PTR [esp], xmm0
	mov	eax, DWORD PTR _this$[ebp]
	mov	ecx, DWORD PTR [eax+124]
	push	ecx
	mov	ecx, DWORD PTR _sfx$[ebp]
	call	?ACMIStart@SfxClass@@QAEXPAVRViewPoint@@MM@Z ; SfxClass::ACMIStart

; 3504 : 
; 3505 : 			break;

	jmp	$LN8@InsertActi
$LN5@InsertActi:

; 3506 : 
; 3507 : 		case ACMIRecMovingSfx:
; 3508 : 			// create new event record
; 3509 : 			event = new ActiveEvent;

	push	28					; 0000001cH
	call	??2@YAPAXI@Z				; operator new
	add	esp, 4
	mov	DWORD PTR $T7[ebp], eax
	mov	edx, DWORD PTR $T7[ebp]
	mov	DWORD PTR _event$[ebp], edx

; 3510 : 			F4Assert( event );
; 3511 : 			event->eventType = eh->eventType;

	mov	eax, DWORD PTR _eh$[ebp]
	movzx	ecx, BYTE PTR [eax]
	mov	edx, DWORD PTR _event$[ebp]
	mov	DWORD PTR [edx], ecx

; 3512 : 			event->index = eh->index;

	mov	eax, DWORD PTR _event$[ebp]
	mov	ecx, DWORD PTR _eh$[ebp]
	mov	edx, DWORD PTR [ecx+1]
	mov	DWORD PTR [eax+4], edx

; 3513 : 			event->time = eh->time;

	mov	eax, DWORD PTR _event$[ebp]
	mov	ecx, DWORD PTR _eh$[ebp]
	mov	edx, DWORD PTR [ecx+5]
	mov	DWORD PTR [eax+8], edx

; 3514 : 			event->timeEnd = eh->timeEnd;

	mov	eax, DWORD PTR _event$[ebp]
	mov	ecx, DWORD PTR _eh$[ebp]
	mov	edx, DWORD PTR [ecx+9]
	mov	DWORD PTR [eax+12], edx

; 3515 : 
; 3516 : 			pos.x = eh->x;

	mov	eax, DWORD PTR _eh$[ebp]
	movss	xmm0, DWORD PTR [eax+29]
	movss	DWORD PTR _pos$[ebp], xmm0

; 3517 : 			pos.y = eh->y;

	mov	ecx, DWORD PTR _eh$[ebp]
	movss	xmm0, DWORD PTR [ecx+33]
	movss	DWORD PTR _pos$[ebp+4], xmm0

; 3518 : 			pos.z = eh->z;

	mov	edx, DWORD PTR _eh$[ebp]
	movss	xmm0, DWORD PTR [edx+37]
	movss	DWORD PTR _pos$[ebp+8], xmm0

; 3519 : 			vec.x = eh->dx;

	mov	eax, DWORD PTR _eh$[ebp]
	movss	xmm0, DWORD PTR [eax+41]
	movss	DWORD PTR _vec$[ebp], xmm0

; 3520 : 			vec.y = eh->dy;

	mov	ecx, DWORD PTR _eh$[ebp]
	movss	xmm0, DWORD PTR [ecx+45]
	movss	DWORD PTR _vec$[ebp+4], xmm0

; 3521 : 			vec.z = eh->dz;

	mov	edx, DWORD PTR _eh$[ebp]
	movss	xmm0, DWORD PTR [edx+49]
	movss	DWORD PTR _vec$[ebp+8], xmm0

; 3522 : 
; 3523 : 			// create new sfx 
; 3524 : 			if ( eh->user < 0 )

	mov	eax, DWORD PTR _eh$[ebp]
	cmp	DWORD PTR [eax+17], 0
	jge	$LN4@InsertActi

; 3525 : 			{
; 3526 : 				sfx = new SfxClass( eh->type,
; 3527 : 								eh->flags,
; 3528 : 								&pos,
; 3529 : 								&vec,
; 3530 : 								(float)(eh->timeEnd - eh->time),
; 3531 : 								eh->scale );

	push	192					; 000000c0H
	call	??2@YAPAXI@Z				; operator new
	add	esp, 4
	mov	DWORD PTR $T12[ebp], eax
	mov	DWORD PTR __$EHRec$[ebp+8], 2
	cmp	DWORD PTR $T12[ebp], 0
	je	SHORT $LN17@InsertActi
	mov	ecx, DWORD PTR _eh$[ebp]
	push	ecx
	movss	xmm0, DWORD PTR [ecx+25]
	movss	DWORD PTR [esp], xmm0
	mov	edx, DWORD PTR _eh$[ebp]
	mov	eax, DWORD PTR _eh$[ebp]
	movss	xmm0, DWORD PTR [edx+9]
	subss	xmm0, DWORD PTR [eax+5]
	push	ecx
	movss	DWORD PTR [esp], xmm0
	lea	ecx, DWORD PTR _vec$[ebp]
	push	ecx
	lea	edx, DWORD PTR _pos$[ebp]
	push	edx
	mov	eax, DWORD PTR _eh$[ebp]
	mov	ecx, DWORD PTR [eax+21]
	push	ecx
	mov	edx, DWORD PTR _eh$[ebp]
	mov	eax, DWORD PTR [edx+13]
	push	eax
	mov	ecx, DWORD PTR $T12[ebp]
	call	??0SfxClass@@QAE@HHPAUTpoint@@0MM@Z	; SfxClass::SfxClass
	mov	DWORD PTR tv245[ebp], eax
	jmp	SHORT $LN18@InsertActi
$LN17@InsertActi:
	mov	DWORD PTR tv245[ebp], 0
$LN18@InsertActi:
	mov	ecx, DWORD PTR tv245[ebp]
	mov	DWORD PTR $T3[ebp], ecx
	mov	DWORD PTR __$EHRec$[ebp+8], -1
	mov	edx, DWORD PTR $T3[ebp]
	mov	DWORD PTR _sfx$[ebp], edx

; 3532 : 			}
; 3533 : 			else {

	jmp	$LN3@InsertActi
$LN4@InsertActi:

; 3534 : 				// we need to build a base obj first
; 3535 : 				simBase = new SimStaticClass(0);// SimBaseClass( 0 );

	push	592					; 00000250H
	call	??2@YAPAXI@Z				; operator new
	add	esp, 4
	mov	DWORD PTR $T13[ebp], eax
	mov	DWORD PTR __$EHRec$[ebp+8], 3
	cmp	DWORD PTR $T13[ebp], 0
	je	SHORT $LN19@InsertActi
	push	0
	mov	ecx, DWORD PTR $T13[ebp]
	call	??0SimStaticClass@@QAE@H@Z		; SimStaticClass::SimStaticClass
	mov	DWORD PTR tv288[ebp], eax
	jmp	SHORT $LN20@InsertActi
$LN19@InsertActi:
	mov	DWORD PTR tv288[ebp], 0
$LN20@InsertActi:
	mov	eax, DWORD PTR tv288[ebp]
	mov	DWORD PTR $T10[ebp], eax
	mov	DWORD PTR __$EHRec$[ebp+8], -1
	mov	ecx, DWORD PTR $T10[ebp]
	mov	DWORD PTR _simBase$[ebp], ecx

; 3536 : 				simBase->drawPointer = new DrawableBSP( eh->user, &pos, &IMatrix, 1.0f );

	push	172					; 000000acH
	call	??2@YAPAXI@Z				; operator new
	add	esp, 4
	mov	DWORD PTR $T17[ebp], eax
	mov	DWORD PTR __$EHRec$[ebp+8], 4
	cmp	DWORD PTR $T17[ebp], 0
	je	SHORT $LN21@InsertActi
	push	ecx
	movss	xmm0, DWORD PTR __real@3f800000
	movss	DWORD PTR [esp], xmm0
	push	OFFSET ?IMatrix@@3UTrotation@@B		; IMatrix
	lea	edx, DWORD PTR _pos$[ebp]
	push	edx
	mov	eax, DWORD PTR _eh$[ebp]
	mov	ecx, DWORD PTR [eax+17]
	push	ecx
	mov	ecx, DWORD PTR $T17[ebp]
	call	??0DrawableBSP@@QAE@HPBUTpoint@@PBUTrotation@@M@Z ; DrawableBSP::DrawableBSP
	mov	DWORD PTR tv305[ebp], eax
	jmp	SHORT $LN22@InsertActi
$LN21@InsertActi:
	mov	DWORD PTR tv305[ebp], 0
$LN22@InsertActi:
	mov	edx, DWORD PTR tv305[ebp]
	mov	DWORD PTR $T8[ebp], edx
	mov	DWORD PTR __$EHRec$[ebp+8], -1
	mov	eax, DWORD PTR _simBase$[ebp]
	mov	ecx, DWORD PTR $T8[ebp]
	mov	DWORD PTR [eax+332], ecx

; 3537 : 				simBase->SetPosition(pos.x, pos.y, pos.z);

	push	ecx
	movss	xmm0, DWORD PTR _pos$[ebp+8]
	movss	DWORD PTR [esp], xmm0
	push	ecx
	movss	xmm0, DWORD PTR _pos$[ebp+4]
	movss	DWORD PTR [esp], xmm0
	push	ecx
	movss	xmm0, DWORD PTR _pos$[ebp]
	movss	DWORD PTR [esp], xmm0
	mov	ecx, DWORD PTR _simBase$[ebp]
	call	?SetPosition@VuEntity@@QAEXMMM@Z	; VuEntity::SetPosition

; 3538 : 				simBase->SetDelta(vec.x, vec.y, vec.z);

	push	ecx
	movss	xmm0, DWORD PTR _vec$[ebp+8]
	movss	DWORD PTR [esp], xmm0
	push	ecx
	movss	xmm0, DWORD PTR _vec$[ebp+4]
	movss	DWORD PTR [esp], xmm0
	push	ecx
	movss	xmm0, DWORD PTR _vec$[ebp]
	movss	DWORD PTR [esp], xmm0
	mov	ecx, DWORD PTR _simBase$[ebp]
	call	?SetDelta@VuEntity@@QAEXMMM@Z		; VuEntity::SetDelta

; 3539 : 				simBase->SetYPR(0.0f, 0.0f, 0.0f);

	push	ecx
	movss	xmm0, DWORD PTR __real@00000000
	movss	DWORD PTR [esp], xmm0
	push	ecx
	movss	xmm0, DWORD PTR __real@00000000
	movss	DWORD PTR [esp], xmm0
	push	ecx
	movss	xmm0, DWORD PTR __real@00000000
	movss	DWORD PTR [esp], xmm0
	mov	ecx, DWORD PTR _simBase$[ebp]
	call	?SetYPR@VuEntity@@QAEXMMM@Z		; VuEntity::SetYPR

; 3540 : 				simBase->SetYPRDelta(0.0f, 0.0f, 0.0f);

	push	ecx
	movss	xmm0, DWORD PTR __real@00000000
	movss	DWORD PTR [esp], xmm0
	push	ecx
	movss	xmm0, DWORD PTR __real@00000000
	movss	DWORD PTR [esp], xmm0
	push	ecx
	movss	xmm0, DWORD PTR __real@00000000
	movss	DWORD PTR [esp], xmm0
	mov	ecx, DWORD PTR _simBase$[ebp]
	call	?SetYPRDelta@VuEntity@@QAEXMMM@Z	; VuEntity::SetYPRDelta

; 3541 : 				sfx = new SfxClass( eh->type, eh->flags, simBase, (float)(eh->timeEnd - eh->time), eh->scale);

	push	192					; 000000c0H
	call	??2@YAPAXI@Z				; operator new
	add	esp, 4
	mov	DWORD PTR $T14[ebp], eax
	mov	DWORD PTR __$EHRec$[ebp+8], 5
	cmp	DWORD PTR $T14[ebp], 0
	je	SHORT $LN23@InsertActi
	mov	edx, DWORD PTR _eh$[ebp]
	push	ecx
	movss	xmm0, DWORD PTR [edx+25]
	movss	DWORD PTR [esp], xmm0
	mov	eax, DWORD PTR _eh$[ebp]
	mov	ecx, DWORD PTR _eh$[ebp]
	movss	xmm0, DWORD PTR [eax+9]
	subss	xmm0, DWORD PTR [ecx+5]
	push	ecx
	movss	DWORD PTR [esp], xmm0
	mov	edx, DWORD PTR _simBase$[ebp]
	push	edx
	mov	eax, DWORD PTR _eh$[ebp]
	mov	ecx, DWORD PTR [eax+21]
	push	ecx
	mov	edx, DWORD PTR _eh$[ebp]
	mov	eax, DWORD PTR [edx+13]
	push	eax
	mov	ecx, DWORD PTR $T14[ebp]
	call	??0SfxClass@@QAE@HHPAVSimBaseClass@@MM@Z ; SfxClass::SfxClass
	mov	DWORD PTR tv357[ebp], eax
	jmp	SHORT $LN24@InsertActi
$LN23@InsertActi:
	mov	DWORD PTR tv357[ebp], 0
$LN24@InsertActi:
	mov	ecx, DWORD PTR tv357[ebp]
	mov	DWORD PTR $T6[ebp], ecx
	mov	DWORD PTR __$EHRec$[ebp+8], -1
	mov	edx, DWORD PTR $T6[ebp]
	mov	DWORD PTR _sfx$[ebp], edx
$LN3@InsertActi:

; 3542 : 			}
; 3543 : 
; 3544 : 			F4Assert( sfx );
; 3545 : 			event->eventData = (void *)sfx;

	mov	eax, DWORD PTR _event$[ebp]
	mov	ecx, DWORD PTR _sfx$[ebp]
	mov	DWORD PTR [eax+16], ecx

; 3546 : 
; 3547 : 			sfx->ACMIStart( _viewPoint, event->time, _simTime );

	mov	edx, DWORD PTR _this$[ebp]
	push	ecx
	movss	xmm0, DWORD PTR [edx+108]
	movss	DWORD PTR [esp], xmm0
	mov	eax, DWORD PTR _event$[ebp]
	push	ecx
	movss	xmm0, DWORD PTR [eax+8]
	movss	DWORD PTR [esp], xmm0
	mov	ecx, DWORD PTR _this$[ebp]
	mov	edx, DWORD PTR [ecx+124]
	push	edx
	mov	ecx, DWORD PTR _sfx$[ebp]
	call	?ACMIStart@SfxClass@@QAEXPAVRViewPoint@@MM@Z ; SfxClass::ACMIStart

; 3548 : 
; 3549 : 			break;

	jmp	SHORT $LN8@InsertActi
$LN2@InsertActi:

; 3550 : 
; 3551 : 		// current don't handle anything else
; 3552 : 		default:
; 3553 : 			return NULL;

	xor	eax, eax
	jmp	SHORT $LN11@InsertActi
$LN8@InsertActi:

; 3554 : 	}
; 3555 : 
; 3556 : 	// now insert it into the active list
; 3557 : 	event->prev = NULL;

	mov	eax, DWORD PTR _event$[ebp]
	mov	DWORD PTR [eax+24], 0

; 3558 : 	if ( _activeEventHead )

	mov	ecx, DWORD PTR _this$[ebp]
	cmp	DWORD PTR [ecx+192], 0
	je	SHORT $LN1@InsertActi

; 3559 : 	{
; 3560 : 		_activeEventHead->prev = event;

	mov	edx, DWORD PTR _this$[ebp]
	mov	eax, DWORD PTR [edx+192]
	mov	ecx, DWORD PTR _event$[ebp]
	mov	DWORD PTR [eax+24], ecx
$LN1@InsertActi:

; 3561 : 	}
; 3562 : 
; 3563 : 	event->next = _activeEventHead;

	mov	edx, DWORD PTR _event$[ebp]
	mov	eax, DWORD PTR _this$[ebp]
	mov	ecx, DWORD PTR [eax+192]
	mov	DWORD PTR [edx+20], ecx

; 3564 : 	_activeEventHead = event;

	mov	edx, DWORD PTR _this$[ebp]
	mov	eax, DWORD PTR _event$[ebp]
	mov	DWORD PTR [edx+192], eax

; 3565 : 
; 3566 : 	return event;

	mov	eax, DWORD PTR _event$[ebp]
$LN11@InsertActi:

; 3567 : }

	mov	ecx, DWORD PTR __$EHRec$[ebp]
	mov	DWORD PTR fs:0, ecx
	pop	ecx
	mov	ecx, DWORD PTR __$ArrayPad$[ebp]
	xor	ecx, ebp
	call	@__security_check_cookie@4
	mov	esp, ebp
	pop	ebp
	ret	8
_TEXT	ENDS
text$x	SEGMENT
__unwindfunclet$?InsertActiveEvent@ACMITape@@AAEPAU_ActiveEvent@@PAUACMIEventHeader@@M@Z$0:
	mov	eax, DWORD PTR $T16[ebp]
	push	eax
	call	??3@YAXPAX@Z				; operator delete
	pop	ecx
	ret	0
__unwindfunclet$?InsertActiveEvent@ACMITape@@AAEPAU_ActiveEvent@@PAUACMIEventHeader@@M@Z$1:
	mov	eax, DWORD PTR $T15[ebp]
	push	eax
	call	??3@YAXPAX@Z				; operator delete
	pop	ecx
	ret	0
__unwindfunclet$?InsertActiveEvent@ACMITape@@AAEPAU_ActiveEvent@@PAUACMIEventHeader@@M@Z$2:
	mov	eax, DWORD PTR $T12[ebp]
	push	eax
	call	??3@YAXPAX@Z				; operator delete
	pop	ecx
	ret	0
__unwindfunclet$?InsertActiveEvent@ACMITape@@AAEPAU_ActiveEvent@@PAUACMIEventHeader@@M@Z$3:
	mov	eax, DWORD PTR $T13[ebp]
	push	eax
	call	??3@YAXPAX@Z				; operator delete
	pop	ecx
	ret	0
__unwindfunclet$?InsertActiveEvent@ACMITape@@AAEPAU_ActiveEvent@@PAUACMIEventHeader@@M@Z$4:
	mov	eax, DWORD PTR $T17[ebp]
	push	eax
	call	??3@YAXPAX@Z				; operator delete
	pop	ecx
	ret	0
__unwindfunclet$?InsertActiveEvent@ACMITape@@AAEPAU_ActiveEvent@@PAUACMIEventHeader@@M@Z$5:
	mov	eax, DWORD PTR $T14[ebp]
	push	eax
	call	??3@YAXPAX@Z				; operator delete
	pop	ecx
	ret	0
__ehhandler$?InsertActiveEvent@ACMITape@@AAEPAU_ActiveEvent@@PAUACMIEventHeader@@M@Z:
	mov	edx, DWORD PTR [esp+8]
	lea	eax, DWORD PTR [edx+12]
	mov	ecx, DWORD PTR [edx-144]
	xor	ecx, eax
	call	@__security_check_cookie@4
	mov	ecx, DWORD PTR [edx-4]
	xor	ecx, eax
	call	@__security_check_cookie@4
	mov	eax, OFFSET __ehfuncinfo$?InsertActiveEvent@ACMITape@@AAEPAU_ActiveEvent@@PAUACMIEventHeader@@M@Z
	jmp	___CxxFrameHandler3
text$x	ENDS
?InsertActiveEvent@ACMITape@@AAEPAU_ActiveEvent@@PAUACMIEventHeader@@M@Z ENDP ; ACMITape::InsertActiveEvent
; Function compile flags: /Odtp
; File c:\users\zhitao li\documents\visual studio 2012\projects\freefalcon\acmi\src\acmitape.cpp
_TEXT	SEGMENT
$T1 = -12						; size = 4
_i$ = -8						; size = 4
_this$ = -4						; size = 4
?CleanupEventList@ACMITape@@AAEXXZ PROC			; ACMITape::CleanupEventList
; _this$ = ecx

; 3408 : {

	push	ebp
	mov	ebp, esp
	sub	esp, 12					; 0000000cH
	mov	DWORD PTR _this$[ebp], ecx

; 3409 : 	int i;
; 3410 : 
; 3411 : 	F4Assert( _eventList );
; 3412 : 
; 3413 : 	for ( i = 0; i < _tapeHdr.numEvents; i++ )

	mov	DWORD PTR _i$[ebp], 0
	jmp	SHORT $LN4@CleanupEve
$LN3@CleanupEve:
	mov	eax, DWORD PTR _i$[ebp]
	add	eax, 1
	mov	DWORD PTR _i$[ebp], eax
$LN4@CleanupEve:
	mov	ecx, DWORD PTR _this$[ebp]
	mov	edx, DWORD PTR _i$[ebp]
	cmp	edx, DWORD PTR [ecx+56]
	jge	SHORT $LN2@CleanupEve

; 3414 : 	{
; 3415 : 		if ( _eventList[i] )

	mov	eax, DWORD PTR _this$[ebp]
	mov	ecx, DWORD PTR [eax+188]
	mov	edx, DWORD PTR _i$[ebp]
	cmp	DWORD PTR [ecx+edx*4], 0
	je	SHORT $LN1@CleanupEve

; 3416 : 		{
; 3417 : 			RemoveActiveEvent( &_eventList[i] );

	mov	eax, DWORD PTR _this$[ebp]
	mov	ecx, DWORD PTR [eax+188]
	mov	edx, DWORD PTR _i$[ebp]
	lea	eax, DWORD PTR [ecx+edx*4]
	push	eax
	mov	ecx, DWORD PTR _this$[ebp]
	call	?RemoveActiveEvent@ACMITape@@AAEXPAPAU_ActiveEvent@@@Z ; ACMITape::RemoveActiveEvent
$LN1@CleanupEve:

; 3418 : 		}
; 3419 : 	}

	jmp	SHORT $LN3@CleanupEve
$LN2@CleanupEve:

; 3420 : 
; 3421 : 	delete [] _eventList;

	mov	ecx, DWORD PTR _this$[ebp]
	mov	edx, DWORD PTR [ecx+188]
	mov	DWORD PTR $T1[ebp], edx
	mov	eax, DWORD PTR $T1[ebp]
	push	eax
	call	??_V@YAXPAX@Z				; operator delete[]
	add	esp, 4

; 3422 : 	_eventList = NULL;

	mov	ecx, DWORD PTR _this$[ebp]
	mov	DWORD PTR [ecx+188], 0

; 3423 : }

	mov	esp, ebp
	pop	ebp
	ret	0
?CleanupEventList@ACMITape@@AAEXXZ ENDP			; ACMITape::CleanupEventList
_TEXT	ENDS
; Function compile flags: /Odtp
; File c:\users\zhitao li\documents\visual studio 2012\projects\freefalcon\acmi\src\acmitape.cpp
_TEXT	SEGMENT
_this$ = -4						; size = 4
?CloseTapeFile@ACMITape@@AAEXXZ PROC			; ACMITape::CloseTapeFile
; _this$ = ecx

; 2379 : {

	push	ebp
	mov	ebp, esp
	push	ecx
	mov	DWORD PTR _this$[ebp], ecx

; 2380 : 	UnmapViewOfFile( _tape );

	mov	eax, DWORD PTR _this$[ebp]
	mov	ecx, DWORD PTR [eax+156]
	push	ecx
	call	DWORD PTR __imp__UnmapViewOfFile@4

; 2381 : 	CloseHandle( _tapeMapHandle );

	mov	edx, DWORD PTR _this$[ebp]
	mov	eax, DWORD PTR [edx+92]
	push	eax
	call	DWORD PTR __imp__CloseHandle@4

; 2382 : 	CloseHandle( _tapeFileHandle );

	mov	ecx, DWORD PTR _this$[ebp]
	mov	edx, DWORD PTR [ecx+88]
	push	edx
	call	DWORD PTR __imp__CloseHandle@4

; 2383 : 	_tape = NULL;

	mov	eax, DWORD PTR _this$[ebp]
	mov	DWORD PTR [eax+156], 0

; 2384 : 	return;
; 2385 : }

	mov	esp, ebp
	pop	ebp
	ret	0
?CloseTapeFile@ACMITape@@AAEXXZ ENDP			; ACMITape::CloseTapeFile
_TEXT	ENDS
; Function compile flags: /Odtp
; File c:\users\zhitao li\documents\visual studio 2012\projects\freefalcon\acmi\src\acmitape.cpp
_TEXT	SEGMENT
_length$ = -12						; size = 4
_fd$ = -8						; size = 4
_this$ = -4						; size = 4
_fname$ = 8						; size = 4
?OpenTapeFile@ACMITape@@AAEJPAD@Z PROC			; ACMITape::OpenTapeFile
; _this$ = ecx

; 2288 : {

	push	ebp
	mov	ebp, esp
	sub	esp, 12					; 0000000cH
	mov	DWORD PTR _this$[ebp], ecx

; 2289 : 	FILE *fd;
; 2290 : 	long length=0;

	mov	DWORD PTR _length$[ebp], 0

; 2291 : 
; 2292 : 	// 1st get the header info and check it out
; 2293 : 	fd = fopen( fname, "rb" );

	push	OFFSET ??_C@_02JDPG@rb?$AA@
	mov	eax, DWORD PTR _fname$[ebp]
	push	eax
	call	_fopen
	add	esp, 8
	mov	DWORD PTR _fd$[ebp], eax

; 2294 : 	if ( fd == NULL )

	cmp	DWORD PTR _fd$[ebp], 0
	jne	SHORT $LN6@OpenTapeFi

; 2295 : 	{
; 2296 : 		MonoPrint( "Unable to Open Tape File\n");

	push	OFFSET ??_C@_0BK@GKMGOOKA@Unable?5to?5Open?5Tape?5File?6?$AA@
	call	_MonoPrint
	add	esp, 4

; 2297 : 		return(0);

	xor	eax, eax
	jmp	$LN7@OpenTapeFi
$LN6@OpenTapeFi:

; 2298 : 	}
; 2299 : 
; 2300 : 	// read in the tape header
; 2301 : 	if ( !fread( &_tapeHdr, sizeof( ACMITapeHeader), 1, fd ) )

	mov	ecx, DWORD PTR _fd$[ebp]
	push	ecx
	push	1
	push	80					; 00000050H
	mov	edx, DWORD PTR _this$[ebp]
	add	edx, 4
	push	edx
	call	_fread
	add	esp, 16					; 00000010H
	test	eax, eax
	jne	SHORT $LN5@OpenTapeFi

; 2302 : 	{
; 2303 : 		MonoPrint( "Unable to to read tape header\n");

	push	OFFSET ??_C@_0BP@ONECOFNE@Unable?5to?5to?5read?5tape?5header?6?$AA@
	call	_MonoPrint
	add	esp, 4

; 2304 : 		fclose( fd );

	mov	eax, DWORD PTR _fd$[ebp]
	push	eax
	call	_fclose
	add	esp, 4

; 2305 : 		return(0);

	xor	eax, eax
	jmp	$LN7@OpenTapeFi
$LN5@OpenTapeFi:

; 2306 : 	}
; 2307 : 
; 2308 : 	// close the file
; 2309 : 	fclose( fd );

	mov	ecx, DWORD PTR _fd$[ebp]
	push	ecx
	call	_fclose
	add	esp, 4

; 2310 : 
; 2311 : 	// check that we've got a valid file
; 2312 : 	if ( _tapeHdr.fileID != 'TAPE' )

	mov	edx, DWORD PTR _this$[ebp]
	cmp	DWORD PTR [edx+4], 1413566533		; 54415045H
	je	SHORT $LN4@OpenTapeFi

; 2313 : 	{
; 2314 : 		MonoPrint( "Invalid Tape File\n");

	push	OFFSET ??_C@_0BD@DGLPMPEG@Invalid?5Tape?5File?6?$AA@
	call	_MonoPrint
	add	esp, 4

; 2315 : 		return(0);

	xor	eax, eax
	jmp	$LN7@OpenTapeFi
$LN4@OpenTapeFi:

; 2316 : 	}
; 2317 : 
; 2318 : 	// Set up memory mapping
; 2319 : 
; 2320 : 	// open the tape file
; 2321 : 	_tapeFileHandle = CreateFile(
; 2322 : 						fname,
; 2323 : 						GENERIC_READ | GENERIC_WRITE,
; 2324 : 						FILE_SHARE_READ,
; 2325 : 						NULL,
; 2326 : 						OPEN_EXISTING,
; 2327 : 						FILE_ATTRIBUTE_NORMAL | FILE_FLAG_RANDOM_ACCESS,
; 2328 : 						NULL );

	push	0
	push	268435584				; 10000080H
	push	3
	push	0
	push	1
	push	-1073741824				; c0000000H
	mov	eax, DWORD PTR _fname$[ebp]
	push	eax
	call	DWORD PTR __imp__CreateFileA@28
	mov	ecx, DWORD PTR _this$[ebp]
	mov	DWORD PTR [ecx+88], eax

; 2329 : 	if ( _tapeFileHandle == INVALID_HANDLE_VALUE )

	mov	edx, DWORD PTR _this$[ebp]
	cmp	DWORD PTR [edx+88], -1
	jne	SHORT $LN3@OpenTapeFi

; 2330 : 	{
; 2331 : 		MonoPrint( "CreateFile failed on tape open\n" );

	push	OFFSET ??_C@_0CA@CJCMBNNE@CreateFile?5failed?5on?5tape?5open?6?$AA@
	call	_MonoPrint
	add	esp, 4

; 2332 : 		return(0);

	xor	eax, eax
	jmp	$LN7@OpenTapeFi
$LN3@OpenTapeFi:

; 2333 : 	}
; 2334 : 	length=GetFileSize(_tapeFileHandle,NULL);

	push	0
	mov	eax, DWORD PTR _this$[ebp]
	mov	ecx, DWORD PTR [eax+88]
	push	ecx
	call	DWORD PTR __imp__GetFileSize@8
	mov	DWORD PTR _length$[ebp], eax

; 2335 : 
; 2336 : 	// create file mapping
; 2337 : 	_tapeMapHandle = CreateFileMapping(
; 2338 : 						_tapeFileHandle,
; 2339 : 						NULL,
; 2340 : 						PAGE_READONLY,
; 2341 : 						0,
; 2342 : 						0,
; 2343 : 						NULL );

	push	0
	push	0
	push	0
	push	2
	push	0
	mov	edx, DWORD PTR _this$[ebp]
	mov	eax, DWORD PTR [edx+88]
	push	eax
	call	DWORD PTR __imp__CreateFileMappingA@24
	mov	ecx, DWORD PTR _this$[ebp]
	mov	DWORD PTR [ecx+92], eax

; 2344 : 	if ( _tapeMapHandle == NULL )

	mov	edx, DWORD PTR _this$[ebp]
	cmp	DWORD PTR [edx+92], 0
	jne	SHORT $LN2@OpenTapeFi

; 2345 : 	{
; 2346 : 		MonoPrint( "CreateFileMapping failed on tape open\n" );

	push	OFFSET ??_C@_0CH@LHLGEOPK@CreateFileMapping?5failed?5on?5tape@
	call	_MonoPrint
	add	esp, 4

; 2347 : 		CloseHandle( _tapeFileHandle );

	mov	eax, DWORD PTR _this$[ebp]
	mov	ecx, DWORD PTR [eax+88]
	push	ecx
	call	DWORD PTR __imp__CloseHandle@4

; 2348 : 		return(0);

	xor	eax, eax
	jmp	SHORT $LN7@OpenTapeFi
$LN2@OpenTapeFi:

; 2349 : 	}
; 2350 : 
; 2351 : 	// map view of file
; 2352 : 	_tape = MapViewOfFile(
; 2353 : 						_tapeMapHandle,
; 2354 : 						FILE_MAP_READ,
; 2355 : 						0,
; 2356 : 						0,
; 2357 : 						0 );

	push	0
	push	0
	push	0
	push	4
	mov	edx, DWORD PTR _this$[ebp]
	mov	eax, DWORD PTR [edx+92]
	push	eax
	call	DWORD PTR __imp__MapViewOfFile@20
	mov	ecx, DWORD PTR _this$[ebp]
	mov	DWORD PTR [ecx+156], eax

; 2358 : 	if ( _tape == NULL )

	mov	edx, DWORD PTR _this$[ebp]
	cmp	DWORD PTR [edx+156], 0
	jne	SHORT $LN1@OpenTapeFi

; 2359 : 	{
; 2360 : 		MonoPrint( "MapViewOfFile failed on tape open\n" );

	push	OFFSET ??_C@_0CD@FIBPIHAP@MapViewOfFile?5failed?5on?5tape?5ope@
	call	_MonoPrint
	add	esp, 4

; 2361 : 		CloseHandle( _tapeMapHandle );

	mov	eax, DWORD PTR _this$[ebp]
	mov	ecx, DWORD PTR [eax+92]
	push	ecx
	call	DWORD PTR __imp__CloseHandle@4

; 2362 : 		CloseHandle( _tapeFileHandle );

	mov	edx, DWORD PTR _this$[ebp]
	mov	eax, DWORD PTR [edx+88]
	push	eax
	call	DWORD PTR __imp__CloseHandle@4

; 2363 : 		return(0);

	xor	eax, eax
	jmp	SHORT $LN7@OpenTapeFi
$LN1@OpenTapeFi:

; 2364 : 	}
; 2365 : 
; 2366 : 	// hunky dory
; 2367 : 	return(length);

	mov	eax, DWORD PTR _length$[ebp]
$LN7@OpenTapeFi:

; 2368 : 
; 2369 : }

	mov	esp, ebp
	pop	ebp
	ret	4
?OpenTapeFile@ACMITape@@AAEJPAD@Z ENDP			; ACMITape::OpenTapeFile
_TEXT	ENDS
; Function compile flags: /Odtp
; File c:\users\zhitao li\documents\visual studio 2012\projects\freefalcon\acmi\src\acmitape.cpp
_TEXT	SEGMENT
$T1 = -156						; size = 4
$T2 = -152						; size = 4
tv422 = -148						; size = 4
$T3 = -144						; size = 4
$T4 = -140						; size = 4
$T5 = -136						; size = 4
tv404 = -132						; size = 4
$T6 = -128						; size = 4
$T7 = -124						; size = 4
_numEntities$ = -120					; size = 4
tv355 = -116						; size = 4
$T8 = -112						; size = 4
$T9 = -108						; size = 4
tv230 = -104						; size = 4
$T10 = -100						; size = 4
tv199 = -96						; size = 4
tv323 = -92						; size = 4
tv168 = -88						; size = 4
$T11 = -84						; size = 4
tv137 = -80						; size = 4
tv292 = -76						; size = 4
tv91 = -72						; size = 4
$T12 = -68						; size = 4
tv261 = -64						; size = 4
$T13 = -60						; size = 4
$T14 = -56						; size = 4
$T15 = -52						; size = 4
$T16 = -48						; size = 4
$T17 = -44						; size = 4
$T18 = -40						; size = 4
$T19 = -36						; size = 4
$T20 = -32						; size = 4
$T21 = -28						; size = 4
$T22 = -24						; size = 4
$T23 = -20						; size = 4
$T24 = -16						; size = 4
_i$ = -12						; size = 4
_this$ = -8						; size = 4
_ep$ = -4						; size = 4
?CleanupSimTapeEntities@ACMITape@@AAEXXZ PROC		; ACMITape::CleanupSimTapeEntities
; _this$ = ecx

; 2731 : {

	push	ebp
	mov	ebp, esp
	sub	esp, 156				; 0000009cH
	mov	DWORD PTR _this$[ebp], ecx

; 2732 : 	int				
; 2733 : 		i,
; 2734 : 		numEntities;
; 2735 : 	SimTapeEntity *ep;
; 2736 : 
; 2737 : 	F4Assert(_simTapeEntities != NULL);
; 2738 : 
; 2739 : 	// create array of SimTapeEntity
; 2740 : 	numEntities = NumEntities();

	mov	ecx, DWORD PTR _this$[ebp]
	call	?NumEntities@ACMITape@@QAEHXZ		; ACMITape::NumEntities
	mov	DWORD PTR _numEntities$[ebp], eax

; 2741 : 
; 2742 : 	// for each entity, create it's object stuff....
; 2743 : 	for(i = 0; i < numEntities; i++)

	mov	DWORD PTR _i$[ebp], 0
	jmp	SHORT $LN28@CleanupSim
$LN27@CleanupSim:
	mov	eax, DWORD PTR _i$[ebp]
	add	eax, 1
	mov	DWORD PTR _i$[ebp], eax
$LN28@CleanupSim:
	mov	ecx, DWORD PTR _i$[ebp]
	cmp	ecx, DWORD PTR _numEntities$[ebp]
	jge	$LN26@CleanupSim

; 2744 : 	{
; 2745 : 		// get pointer
; 2746 : 		ep = &_simTapeEntities[i];

	mov	edx, DWORD PTR _i$[ebp]
	imul	edx, 88					; 00000058H
	mov	eax, DWORD PTR _this$[ebp]
	add	edx, DWORD PTR [eax]
	mov	DWORD PTR _ep$[ebp], edx

; 2747 : 
; 2748 : 		// if there's a base object...
; 2749 : 		if ( ep->objBase )

	mov	ecx, DWORD PTR _ep$[ebp]
	cmp	DWORD PTR [ecx], 0
	je	$LN25@CleanupSim

; 2750 : 		{
; 2751 : 			// remove from display
; 2752 : 			if(ep->objBase->drawPointer->InDisplayList())

	mov	edx, DWORD PTR _ep$[ebp]
	mov	eax, DWORD PTR [edx]
	mov	ecx, DWORD PTR [eax+332]
	call	?InDisplayList@DrawableObject@@QAEHXZ	; DrawableObject::InDisplayList
	test	eax, eax
	je	SHORT $LN24@CleanupSim

; 2753 : 			{
; 2754 : 				_viewPoint->RemoveObject(ep->objBase->drawPointer);

	mov	ecx, DWORD PTR _ep$[ebp]
	mov	edx, DWORD PTR [ecx]
	mov	eax, DWORD PTR [edx+332]
	push	eax
	mov	ecx, DWORD PTR _this$[ebp]
	mov	ecx, DWORD PTR [ecx+124]
	call	?RemoveObject@RViewPoint@@QAEXPAVDrawableObject@@@Z ; RViewPoint::RemoveObject
$LN24@CleanupSim:

; 2755 : 			}
; 2756 : 			delete ep->objBase->drawPointer;

	mov	edx, DWORD PTR _ep$[ebp]
	mov	eax, DWORD PTR [edx]
	mov	ecx, DWORD PTR [eax+332]
	mov	DWORD PTR $T8[ebp], ecx
	mov	edx, DWORD PTR $T8[ebp]
	mov	DWORD PTR $T17[ebp], edx
	cmp	DWORD PTR $T17[ebp], 0
	je	SHORT $LN31@CleanupSim
	push	1
	mov	eax, DWORD PTR $T17[ebp]
	mov	edx, DWORD PTR [eax]
	mov	ecx, DWORD PTR $T17[ebp]
	mov	eax, DWORD PTR [edx]
	call	eax
	mov	DWORD PTR tv91[ebp], eax
	jmp	SHORT $LN32@CleanupSim
$LN31@CleanupSim:
	mov	DWORD PTR tv91[ebp], 0
$LN32@CleanupSim:

; 2757 : 			ep->objBase->drawPointer = NULL;

	mov	ecx, DWORD PTR _ep$[ebp]
	mov	edx, DWORD PTR [ecx]
	mov	DWORD PTR [edx+332], 0

; 2758 : 			delete ep->objBase;

	mov	eax, DWORD PTR _ep$[ebp]
	mov	ecx, DWORD PTR [eax]
	mov	DWORD PTR $T5[ebp], ecx
	mov	edx, DWORD PTR $T5[ebp]
	mov	DWORD PTR $T15[ebp], edx
	cmp	DWORD PTR $T15[ebp], 0
	je	SHORT $LN33@CleanupSim
	push	1
	mov	eax, DWORD PTR $T15[ebp]
	mov	edx, DWORD PTR [eax]
	mov	ecx, DWORD PTR $T15[ebp]
	mov	eax, DWORD PTR [edx+76]
	call	eax
	mov	DWORD PTR tv137[ebp], eax
	jmp	SHORT $LN34@CleanupSim
$LN33@CleanupSim:
	mov	DWORD PTR tv137[ebp], 0
$LN34@CleanupSim:

; 2759 : 			ep->objBase = NULL;

	mov	ecx, DWORD PTR _ep$[ebp]
	mov	DWORD PTR [ecx], 0
$LN25@CleanupSim:

; 2760 : 		}
; 2761 : 
; 2762 : 		// if there's a trail object...
; 2763 : 		if ( ep->objTrail )

	mov	edx, DWORD PTR _ep$[ebp]
	cmp	DWORD PTR [edx+4], 0
	je	SHORT $LN23@CleanupSim

; 2764 : 		{
; 2765 : 			// remove from display
; 2766 : 			if(ep->objTrail->InDisplayList())

	mov	eax, DWORD PTR _ep$[ebp]
	mov	ecx, DWORD PTR [eax+4]
	call	?InDisplayList@DrawableObject@@QAEHXZ	; DrawableObject::InDisplayList
	test	eax, eax
	je	SHORT $LN22@CleanupSim

; 2767 : 			{
; 2768 : 				_viewPoint->RemoveObject(ep->objTrail);

	mov	ecx, DWORD PTR _ep$[ebp]
	mov	edx, DWORD PTR [ecx+4]
	push	edx
	mov	eax, DWORD PTR _this$[ebp]
	mov	ecx, DWORD PTR [eax+124]
	call	?RemoveObject@RViewPoint@@QAEXPAVDrawableObject@@@Z ; RViewPoint::RemoveObject
$LN22@CleanupSim:

; 2769 : 			}
; 2770 : 			delete ep->objTrail;

	mov	ecx, DWORD PTR _ep$[ebp]
	mov	edx, DWORD PTR [ecx+4]
	mov	DWORD PTR $T13[ebp], edx
	mov	eax, DWORD PTR $T13[ebp]
	mov	DWORD PTR $T21[ebp], eax
	cmp	DWORD PTR $T21[ebp], 0
	je	SHORT $LN35@CleanupSim
	push	1
	mov	ecx, DWORD PTR $T21[ebp]
	mov	edx, DWORD PTR [ecx]
	mov	ecx, DWORD PTR $T21[ebp]
	mov	eax, DWORD PTR [edx]
	call	eax
	mov	DWORD PTR tv168[ebp], eax
	jmp	SHORT $LN36@CleanupSim
$LN35@CleanupSim:
	mov	DWORD PTR tv168[ebp], 0
$LN36@CleanupSim:

; 2771 : 			ep->objTrail = NULL;

	mov	ecx, DWORD PTR _ep$[ebp]
	mov	DWORD PTR [ecx+4], 0
$LN23@CleanupSim:

; 2772 : 		}
; 2773 : 
; 2774 : 		// if there's a 2d object...
; 2775 : 		if ( ep->obj2d )

	mov	edx, DWORD PTR _ep$[ebp]
	cmp	DWORD PTR [edx+64], 0
	je	SHORT $LN21@CleanupSim

; 2776 : 		{
; 2777 : 			// remove from display
; 2778 : 			if(ep->obj2d->InDisplayList())

	mov	eax, DWORD PTR _ep$[ebp]
	mov	ecx, DWORD PTR [eax+64]
	call	?InDisplayList@DrawableObject@@QAEHXZ	; DrawableObject::InDisplayList
	test	eax, eax
	je	SHORT $LN20@CleanupSim

; 2779 : 			{
; 2780 : 				_viewPoint->RemoveObject(ep->obj2d);

	mov	ecx, DWORD PTR _ep$[ebp]
	mov	edx, DWORD PTR [ecx+64]
	push	edx
	mov	eax, DWORD PTR _this$[ebp]
	mov	ecx, DWORD PTR [eax+124]
	call	?RemoveObject@RViewPoint@@QAEXPAVDrawableObject@@@Z ; RViewPoint::RemoveObject
$LN20@CleanupSim:

; 2781 : 			}
; 2782 : 			delete ep->obj2d;

	mov	ecx, DWORD PTR _ep$[ebp]
	mov	edx, DWORD PTR [ecx+64]
	mov	DWORD PTR $T2[ebp], edx
	mov	eax, DWORD PTR $T2[ebp]
	mov	DWORD PTR $T24[ebp], eax
	cmp	DWORD PTR $T24[ebp], 0
	je	SHORT $LN37@CleanupSim
	push	1
	mov	ecx, DWORD PTR $T24[ebp]
	mov	edx, DWORD PTR [ecx]
	mov	ecx, DWORD PTR $T24[ebp]
	mov	eax, DWORD PTR [edx]
	call	eax
	mov	DWORD PTR tv199[ebp], eax
	jmp	SHORT $LN38@CleanupSim
$LN37@CleanupSim:
	mov	DWORD PTR tv199[ebp], 0
$LN38@CleanupSim:

; 2783 : 			ep->obj2d = NULL;

	mov	ecx, DWORD PTR _ep$[ebp]
	mov	DWORD PTR [ecx+64], 0
$LN21@CleanupSim:

; 2784 : 		}
; 2785 : 
; 2786 : 		// if there's a bsp object...
; 2787 : 		if ( ep->objBsp1 )

	mov	edx, DWORD PTR _ep$[ebp]
	cmp	DWORD PTR [edx+56], 0
	je	SHORT $LN19@CleanupSim

; 2788 : 		{
; 2789 : 			// remove from display
; 2790 : 			if(ep->objBsp1->InDisplayList())

	mov	eax, DWORD PTR _ep$[ebp]
	mov	ecx, DWORD PTR [eax+56]
	call	?InDisplayList@DrawableObject@@QAEHXZ	; DrawableObject::InDisplayList
	test	eax, eax
	je	SHORT $LN18@CleanupSim

; 2791 : 			{
; 2792 : 				_viewPoint->RemoveObject(ep->objBsp1);

	mov	ecx, DWORD PTR _ep$[ebp]
	mov	edx, DWORD PTR [ecx+56]
	push	edx
	mov	eax, DWORD PTR _this$[ebp]
	mov	ecx, DWORD PTR [eax+124]
	call	?RemoveObject@RViewPoint@@QAEXPAVDrawableObject@@@Z ; RViewPoint::RemoveObject
$LN18@CleanupSim:

; 2793 : 			}
; 2794 : 			delete ep->objBsp1;

	mov	ecx, DWORD PTR _ep$[ebp]
	mov	edx, DWORD PTR [ecx+56]
	mov	DWORD PTR $T6[ebp], edx
	mov	eax, DWORD PTR $T6[ebp]
	mov	DWORD PTR $T19[ebp], eax
	cmp	DWORD PTR $T19[ebp], 0
	je	SHORT $LN39@CleanupSim
	push	1
	mov	ecx, DWORD PTR $T19[ebp]
	mov	edx, DWORD PTR [ecx]
	mov	ecx, DWORD PTR $T19[ebp]
	mov	eax, DWORD PTR [edx]
	call	eax
	mov	DWORD PTR tv230[ebp], eax
	jmp	SHORT $LN40@CleanupSim
$LN39@CleanupSim:
	mov	DWORD PTR tv230[ebp], 0
$LN40@CleanupSim:

; 2795 : 			ep->objBsp1 = NULL;

	mov	ecx, DWORD PTR _ep$[ebp]
	mov	DWORD PTR [ecx+56], 0
$LN19@CleanupSim:

; 2796 : 		}
; 2797 : 
; 2798 : 		// if there's a bsp object...
; 2799 : 		if ( ep->objBsp2 )

	mov	edx, DWORD PTR _ep$[ebp]
	cmp	DWORD PTR [edx+60], 0
	je	SHORT $LN17@CleanupSim

; 2800 : 		{
; 2801 : 			// remove from display
; 2802 : 			if(ep->objBsp2->InDisplayList())

	mov	eax, DWORD PTR _ep$[ebp]
	mov	ecx, DWORD PTR [eax+60]
	call	?InDisplayList@DrawableObject@@QAEHXZ	; DrawableObject::InDisplayList
	test	eax, eax
	je	SHORT $LN16@CleanupSim

; 2803 : 			{
; 2804 : 				_viewPoint->RemoveObject(ep->objBsp2);

	mov	ecx, DWORD PTR _ep$[ebp]
	mov	edx, DWORD PTR [ecx+60]
	push	edx
	mov	eax, DWORD PTR _this$[ebp]
	mov	ecx, DWORD PTR [eax+124]
	call	?RemoveObject@RViewPoint@@QAEXPAVDrawableObject@@@Z ; RViewPoint::RemoveObject
$LN16@CleanupSim:

; 2805 : 			}
; 2806 : 			delete ep->objBsp2;

	mov	ecx, DWORD PTR _ep$[ebp]
	mov	edx, DWORD PTR [ecx+60]
	mov	DWORD PTR $T3[ebp], edx
	mov	eax, DWORD PTR $T3[ebp]
	mov	DWORD PTR $T23[ebp], eax
	cmp	DWORD PTR $T23[ebp], 0
	je	SHORT $LN41@CleanupSim
	push	1
	mov	ecx, DWORD PTR $T23[ebp]
	mov	edx, DWORD PTR [ecx]
	mov	ecx, DWORD PTR $T23[ebp]
	mov	eax, DWORD PTR [edx]
	call	eax
	mov	DWORD PTR tv261[ebp], eax
	jmp	SHORT $LN42@CleanupSim
$LN41@CleanupSim:
	mov	DWORD PTR tv261[ebp], 0
$LN42@CleanupSim:

; 2807 : 			ep->objBsp2 = NULL;

	mov	ecx, DWORD PTR _ep$[ebp]
	mov	DWORD PTR [ecx+60], 0
$LN17@CleanupSim:

; 2808 : 		}
; 2809 : 
; 2810 : 		// if there's a trail object...
; 2811 : 		if ( ep->wlTrail )

	mov	edx, DWORD PTR _ep$[ebp]
	cmp	DWORD PTR [edx+72], 0
	je	SHORT $LN15@CleanupSim

; 2812 : 		{
; 2813 : 			// remove from display
; 2814 : 			if(ep->wlTrail->InDisplayList())

	mov	eax, DWORD PTR _ep$[ebp]
	mov	ecx, DWORD PTR [eax+72]
	call	?InDisplayList@DrawableObject@@QAEHXZ	; DrawableObject::InDisplayList
	test	eax, eax
	je	SHORT $LN14@CleanupSim

; 2815 : 			{
; 2816 : 				_viewPoint->RemoveObject(ep->wlTrail);

	mov	ecx, DWORD PTR _ep$[ebp]
	mov	edx, DWORD PTR [ecx+72]
	push	edx
	mov	eax, DWORD PTR _this$[ebp]
	mov	ecx, DWORD PTR [eax+124]
	call	?RemoveObject@RViewPoint@@QAEXPAVDrawableObject@@@Z ; RViewPoint::RemoveObject
$LN14@CleanupSim:

; 2817 : 			}
; 2818 : 			delete ep->wlTrail;

	mov	ecx, DWORD PTR _ep$[ebp]
	mov	edx, DWORD PTR [ecx+72]
	mov	DWORD PTR $T12[ebp], edx
	mov	eax, DWORD PTR $T12[ebp]
	mov	DWORD PTR $T22[ebp], eax
	cmp	DWORD PTR $T22[ebp], 0
	je	SHORT $LN43@CleanupSim
	push	1
	mov	ecx, DWORD PTR $T22[ebp]
	mov	edx, DWORD PTR [ecx]
	mov	ecx, DWORD PTR $T22[ebp]
	mov	eax, DWORD PTR [edx]
	call	eax
	mov	DWORD PTR tv292[ebp], eax
	jmp	SHORT $LN44@CleanupSim
$LN43@CleanupSim:
	mov	DWORD PTR tv292[ebp], 0
$LN44@CleanupSim:

; 2819 : 			ep->wlTrail = NULL;

	mov	ecx, DWORD PTR _ep$[ebp]
	mov	DWORD PTR [ecx+72], 0
$LN15@CleanupSim:

; 2820 : 		}
; 2821 : 
; 2822 : 		// if there's a trail object...
; 2823 : 		if ( ep->wrTrail )

	mov	edx, DWORD PTR _ep$[ebp]
	cmp	DWORD PTR [edx+76], 0
	je	SHORT $LN13@CleanupSim

; 2824 : 		{
; 2825 : 			// remove from display
; 2826 : 			if(ep->wrTrail->InDisplayList())

	mov	eax, DWORD PTR _ep$[ebp]
	mov	ecx, DWORD PTR [eax+76]
	call	?InDisplayList@DrawableObject@@QAEHXZ	; DrawableObject::InDisplayList
	test	eax, eax
	je	SHORT $LN12@CleanupSim

; 2827 : 			{
; 2828 : 				_viewPoint->RemoveObject(ep->wrTrail);

	mov	ecx, DWORD PTR _ep$[ebp]
	mov	edx, DWORD PTR [ecx+76]
	push	edx
	mov	eax, DWORD PTR _this$[ebp]
	mov	ecx, DWORD PTR [eax+124]
	call	?RemoveObject@RViewPoint@@QAEXPAVDrawableObject@@@Z ; RViewPoint::RemoveObject
$LN12@CleanupSim:

; 2829 : 			}
; 2830 : 			delete ep->wrTrail;

	mov	ecx, DWORD PTR _ep$[ebp]
	mov	edx, DWORD PTR [ecx+76]
	mov	DWORD PTR $T11[ebp], edx
	mov	eax, DWORD PTR $T11[ebp]
	mov	DWORD PTR $T20[ebp], eax
	cmp	DWORD PTR $T20[ebp], 0
	je	SHORT $LN45@CleanupSim
	push	1
	mov	ecx, DWORD PTR $T20[ebp]
	mov	edx, DWORD PTR [ecx]
	mov	ecx, DWORD PTR $T20[ebp]
	mov	eax, DWORD PTR [edx]
	call	eax
	mov	DWORD PTR tv323[ebp], eax
	jmp	SHORT $LN46@CleanupSim
$LN45@CleanupSim:
	mov	DWORD PTR tv323[ebp], 0
$LN46@CleanupSim:

; 2831 : 			ep->wrTrail = NULL;

	mov	ecx, DWORD PTR _ep$[ebp]
	mov	DWORD PTR [ecx+76], 0
$LN13@CleanupSim:

; 2832 : 		}
; 2833 : 	}

	jmp	$LN27@CleanupSim
$LN26@CleanupSim:

; 2834 : 
; 2835 : 	delete [] _simTapeEntities;

	mov	edx, DWORD PTR _this$[ebp]
	mov	eax, DWORD PTR [edx]
	mov	DWORD PTR $T10[ebp], eax
	mov	ecx, DWORD PTR $T10[ebp]
	push	ecx
	call	??_V@YAXPAX@Z				; operator delete[]
	add	esp, 4

; 2836 : 	_simTapeEntities = NULL;

	mov	edx, DWORD PTR _this$[ebp]
	mov	DWORD PTR [edx], 0

; 2837 : 
; 2838 : 	// for each feature, remove its object stuff
; 2839 : 	// 1st pass do drawpointer
; 2840 : 	for(i = 0; i < _tapeHdr.numFeat; i++)

	mov	DWORD PTR _i$[ebp], 0
	jmp	SHORT $LN11@CleanupSim
$LN10@CleanupSim:
	mov	eax, DWORD PTR _i$[ebp]
	add	eax, 1
	mov	DWORD PTR _i$[ebp], eax
$LN11@CleanupSim:
	mov	ecx, DWORD PTR _this$[ebp]
	mov	edx, DWORD PTR _i$[ebp]
	cmp	edx, DWORD PTR [ecx+16]
	jge	$LN9@CleanupSim

; 2841 : 	{
; 2842 : 		// get pointer
; 2843 : 		ep = &_simTapeFeatures[i];

	mov	eax, DWORD PTR _i$[ebp]
	imul	eax, 88					; 00000058H
	mov	ecx, DWORD PTR _this$[ebp]
	add	eax, DWORD PTR [ecx+120]
	mov	DWORD PTR _ep$[ebp], eax

; 2844 : 
; 2845 : 		// if there's a base object...
; 2846 : 		if ( ep->objBase )

	mov	edx, DWORD PTR _ep$[ebp]
	cmp	DWORD PTR [edx], 0
	je	SHORT $LN8@CleanupSim

; 2847 : 		{
; 2848 : 			// remove from display
; 2849 : 			if(ep->objBase->drawPointer->InDisplayList())

	mov	eax, DWORD PTR _ep$[ebp]
	mov	ecx, DWORD PTR [eax]
	mov	ecx, DWORD PTR [ecx+332]
	call	?InDisplayList@DrawableObject@@QAEHXZ	; DrawableObject::InDisplayList
	test	eax, eax
	je	SHORT $LN7@CleanupSim

; 2850 : 			{
; 2851 : 				_viewPoint->RemoveObject(ep->objBase->drawPointer);

	mov	edx, DWORD PTR _ep$[ebp]
	mov	eax, DWORD PTR [edx]
	mov	ecx, DWORD PTR [eax+332]
	push	ecx
	mov	edx, DWORD PTR _this$[ebp]
	mov	ecx, DWORD PTR [edx+124]
	call	?RemoveObject@RViewPoint@@QAEXPAVDrawableObject@@@Z ; RViewPoint::RemoveObject
$LN7@CleanupSim:

; 2852 : 			}
; 2853 : 			delete ep->objBase->drawPointer;

	mov	eax, DWORD PTR _ep$[ebp]
	mov	ecx, DWORD PTR [eax]
	mov	edx, DWORD PTR [ecx+332]
	mov	DWORD PTR $T9[ebp], edx
	mov	eax, DWORD PTR $T9[ebp]
	mov	DWORD PTR $T18[ebp], eax
	cmp	DWORD PTR $T18[ebp], 0
	je	SHORT $LN47@CleanupSim
	push	1
	mov	ecx, DWORD PTR $T18[ebp]
	mov	edx, DWORD PTR [ecx]
	mov	ecx, DWORD PTR $T18[ebp]
	mov	eax, DWORD PTR [edx]
	call	eax
	mov	DWORD PTR tv355[ebp], eax
	jmp	SHORT $LN48@CleanupSim
$LN47@CleanupSim:
	mov	DWORD PTR tv355[ebp], 0
$LN48@CleanupSim:

; 2854 : 			ep->objBase->drawPointer = NULL;

	mov	ecx, DWORD PTR _ep$[ebp]
	mov	edx, DWORD PTR [ecx]
	mov	DWORD PTR [edx+332], 0
$LN8@CleanupSim:

; 2855 : 		}
; 2856 : 
; 2857 : 	}

	jmp	$LN10@CleanupSim
$LN9@CleanupSim:

; 2858 : 
; 2859 : 	// 2nd pass delete baseObj pointer and objBase
; 2860 : 	for(i = 0; i < _tapeHdr.numFeat; i++)

	mov	DWORD PTR _i$[ebp], 0
	jmp	SHORT $LN6@CleanupSim
$LN5@CleanupSim:
	mov	eax, DWORD PTR _i$[ebp]
	add	eax, 1
	mov	DWORD PTR _i$[ebp], eax
$LN6@CleanupSim:
	mov	ecx, DWORD PTR _this$[ebp]
	mov	edx, DWORD PTR _i$[ebp]
	cmp	edx, DWORD PTR [ecx+16]
	jge	$LN4@CleanupSim

; 2861 : 	{
; 2862 : 		// get pointer
; 2863 : 		ep = &_simTapeFeatures[i];

	mov	eax, DWORD PTR _i$[ebp]
	imul	eax, 88					; 00000058H
	mov	ecx, DWORD PTR _this$[ebp]
	add	eax, DWORD PTR [ecx+120]
	mov	DWORD PTR _ep$[ebp], eax

; 2864 : 
; 2865 : 		// if there's a base object...
; 2866 : 		if ( ep->objBase )

	mov	edx, DWORD PTR _ep$[ebp]
	cmp	DWORD PTR [edx], 0
	je	$LN3@CleanupSim

; 2867 : 		{
; 2868 : 			// remove from display
; 2869 : 			if( ((SimFeatureClass *)ep->objBase)->baseObject)

	mov	eax, DWORD PTR _ep$[ebp]
	mov	ecx, DWORD PTR [eax]
	cmp	DWORD PTR [ecx+596], 0
	je	SHORT $LN2@CleanupSim

; 2870 : 			{
; 2871 : 				if( ((SimFeatureClass *)ep->objBase)->baseObject->InDisplayList())

	mov	edx, DWORD PTR _ep$[ebp]
	mov	eax, DWORD PTR [edx]
	mov	ecx, DWORD PTR [eax+596]
	call	?InDisplayList@DrawableObject@@QAEHXZ	; DrawableObject::InDisplayList
	test	eax, eax
	je	SHORT $LN1@CleanupSim

; 2872 : 				{
; 2873 : 					_viewPoint->RemoveObject( ((SimFeatureClass*)ep->objBase)->baseObject);

	mov	ecx, DWORD PTR _ep$[ebp]
	mov	edx, DWORD PTR [ecx]
	mov	eax, DWORD PTR [edx+596]
	push	eax
	mov	ecx, DWORD PTR _this$[ebp]
	mov	ecx, DWORD PTR [ecx+124]
	call	?RemoveObject@RViewPoint@@QAEXPAVDrawableObject@@@Z ; RViewPoint::RemoveObject
$LN1@CleanupSim:

; 2874 : 				}
; 2875 : 				delete ((SimFeatureClass *)ep->objBase)->baseObject;

	mov	edx, DWORD PTR _ep$[ebp]
	mov	eax, DWORD PTR [edx]
	mov	ecx, DWORD PTR [eax+596]
	mov	DWORD PTR $T7[ebp], ecx
	mov	edx, DWORD PTR $T7[ebp]
	mov	DWORD PTR $T16[ebp], edx
	cmp	DWORD PTR $T16[ebp], 0
	je	SHORT $LN49@CleanupSim
	push	1
	mov	eax, DWORD PTR $T16[ebp]
	mov	edx, DWORD PTR [eax]
	mov	ecx, DWORD PTR $T16[ebp]
	mov	eax, DWORD PTR [edx]
	call	eax
	mov	DWORD PTR tv404[ebp], eax
	jmp	SHORT $LN50@CleanupSim
$LN49@CleanupSim:
	mov	DWORD PTR tv404[ebp], 0
$LN50@CleanupSim:

; 2876 : 				((SimFeatureClass *)ep->objBase)->baseObject = NULL;

	mov	ecx, DWORD PTR _ep$[ebp]
	mov	edx, DWORD PTR [ecx]
	mov	DWORD PTR [edx+596], 0
$LN2@CleanupSim:

; 2877 : 			}
; 2878 : 
; 2879 : 			delete ep->objBase;

	mov	eax, DWORD PTR _ep$[ebp]
	mov	ecx, DWORD PTR [eax]
	mov	DWORD PTR $T4[ebp], ecx
	mov	edx, DWORD PTR $T4[ebp]
	mov	DWORD PTR $T14[ebp], edx
	cmp	DWORD PTR $T14[ebp], 0
	je	SHORT $LN51@CleanupSim
	push	1
	mov	eax, DWORD PTR $T14[ebp]
	mov	edx, DWORD PTR [eax]
	mov	ecx, DWORD PTR $T14[ebp]
	mov	eax, DWORD PTR [edx+76]
	call	eax
	mov	DWORD PTR tv422[ebp], eax
	jmp	SHORT $LN52@CleanupSim
$LN51@CleanupSim:
	mov	DWORD PTR tv422[ebp], 0
$LN52@CleanupSim:

; 2880 : 			ep->objBase = NULL;

	mov	ecx, DWORD PTR _ep$[ebp]
	mov	DWORD PTR [ecx], 0
$LN3@CleanupSim:

; 2881 : 		}
; 2882 : 
; 2883 : 	}

	jmp	$LN5@CleanupSim
$LN4@CleanupSim:

; 2884 : 
; 2885 : 	delete [] _simTapeFeatures;

	mov	edx, DWORD PTR _this$[ebp]
	mov	eax, DWORD PTR [edx+120]
	mov	DWORD PTR $T1[ebp], eax
	mov	ecx, DWORD PTR $T1[ebp]
	push	ecx
	call	??_V@YAXPAX@Z				; operator delete[]
	add	esp, 4

; 2886 : 	_simTapeFeatures = NULL;

	mov	edx, DWORD PTR _this$[ebp]
	mov	DWORD PTR [edx+120], 0

; 2887 : }

	mov	esp, ebp
	pop	ebp
	ret	0
?CleanupSimTapeEntities@ACMITape@@AAEXXZ ENDP		; ACMITape::CleanupSimTapeEntities
_TEXT	ENDS
; Function compile flags: /Odtp
; File c:\users\zhitao li\documents\visual studio 2012\projects\freefalcon\acmi\src\acmitape.cpp
_TEXT	SEGMENT
$T2 = -256						; size = 4
$T3 = -252						; size = 4
_visType$4 = -248					; size = 2
$T5 = -244						; size = 4
_fc$6 = -240						; size = 4
$T7 = -236						; size = 4
_classPtr$8 = -232					; size = 4
$T9 = -228						; size = 4
$T10 = -224						; size = 4
$T11 = -220						; size = 4
$T12 = -216						; size = 4
$T13 = -212						; size = 4
$T14 = -208						; size = 4
_classPtr$15 = -204					; size = 4
$T16 = -200						; size = 4
$T17 = -196						; size = 4
$T18 = -192						; size = 4
$T19 = -188						; size = 4
$T20 = -184						; size = 4
_numEntities$ = -180					; size = 4
_classPtr$21 = -176					; size = 4
$T22 = -172						; size = 4
tv623 = -168						; size = 4
tv355 = -164						; size = 4
tv640 = -160						; size = 4
tv302 = -156						; size = 4
tv550 = -152						; size = 4
tv183 = -148						; size = 4
$T23 = -144						; size = 4
tv140 = -140						; size = 4
$T24 = -136						; size = 4
tv720 = -132						; size = 4
$T25 = -128						; size = 4
$T26 = -124						; size = 4
$T27 = -120						; size = 4
tv704 = -116						; size = 4
tv397 = -112						; size = 4
$T28 = -108						; size = 4
$T29 = -104						; size = 4
$T30 = -100						; size = 4
tv807 = -96						; size = 4
$T31 = -92						; size = 4
$T32 = -88						; size = 4
$T33 = -84						; size = 4
tv739 = -80						; size = 4
$T34 = -76						; size = 4
tv673 = -72						; size = 4
_visType$35 = -68					; size = 2
_theObject$36 = -64					; size = 4
_theObject$37 = -60					; size = 4
_e$ = -56						; size = 4
_p$ = -52						; size = 4
_this$ = -48						; size = 4
_i$ = -44						; size = 4
_origin$ = -40						; size = 12
_pos$ = -28						; size = 12
__$ArrayPad$ = -16					; size = 4
__$EHRec$ = -12						; size = 12
?SetupSimTapeEntities@ACMITape@@AAEXXZ PROC		; ACMITape::SetupSimTapeEntities
; _this$ = ecx

; 2463 : {

	push	ebp
	mov	ebp, esp
	push	-1
	push	__ehhandler$?SetupSimTapeEntities@ACMITape@@AAEXXZ
	mov	eax, DWORD PTR fs:0
	push	eax
	sub	esp, 244				; 000000f4H
	mov	eax, DWORD PTR ___security_cookie
	xor	eax, ebp
	mov	DWORD PTR __$ArrayPad$[ebp], eax
	push	eax
	lea	eax, DWORD PTR __$EHRec$[ebp]
	mov	DWORD PTR fs:0, eax
	mov	DWORD PTR _this$[ebp], ecx

; 2464 : 	int				
; 2465 : 		i,
; 2466 : 		numEntities;
; 2467 : 	Tpoint pos;
; 2468 : 	ACMIEntityData *e;
; 2469 : 	ACMIEntityPositionData *p;
; 2470 : 
; 2471 : 
; 2472 : 	Tpoint origin = { 0.0f, 0.0f, 0.0f };

	movss	xmm0, DWORD PTR __real@00000000
	movss	DWORD PTR _origin$[ebp], xmm0
	movss	xmm0, DWORD PTR __real@00000000
	movss	DWORD PTR _origin$[ebp+4], xmm0
	movss	xmm0, DWORD PTR __real@00000000
	movss	DWORD PTR _origin$[ebp+8], xmm0

; 2473 : 
; 2474 : 	F4Assert(_simTapeEntities == NULL);
; 2475 : 	F4Assert(_tape != NULL );
; 2476 : 
; 2477 : 	// create array of SimTapeEntity
; 2478 : 	numEntities = NumEntities();

	mov	ecx, DWORD PTR _this$[ebp]
	call	?NumEntities@ACMITape@@QAEHXZ		; ACMITape::NumEntities
	mov	DWORD PTR _numEntities$[ebp], eax

; 2479 : 	_simTapeEntities = new SimTapeEntity [numEntities];

	xor	ecx, ecx
	mov	eax, DWORD PTR _numEntities$[ebp]
	mov	edx, 88					; 00000058H
	mul	edx
	seto	cl
	neg	ecx
	or	ecx, eax
	push	ecx
	call	??_U@YAPAXI@Z				; operator new[]
	add	esp, 4
	mov	DWORD PTR $T20[ebp], eax
	mov	eax, DWORD PTR _this$[ebp]
	mov	ecx, DWORD PTR $T20[ebp]
	mov	DWORD PTR [eax], ecx

; 2480 : 	F4Assert(_simTapeEntities != NULL);
; 2481 : 
; 2482 : 	// for each entity, create it's object stuff....
; 2483 : 	for(i = 0; i < numEntities; i++)

	mov	DWORD PTR _i$[ebp], 0
	jmp	SHORT $LN30@SetupSimTa
$LN29@SetupSimTa:
	mov	edx, DWORD PTR _i$[ebp]
	add	edx, 1
	mov	DWORD PTR _i$[ebp], edx
$LN30@SetupSimTa:
	mov	eax, DWORD PTR _i$[ebp]
	cmp	eax, DWORD PTR _numEntities$[ebp]
	jge	$LN28@SetupSimTa

; 2484 : 	{
; 2485 : 
; 2486 : 		// get the tape entity data
; 2487 : 		e = EntityData( i );

	mov	ecx, DWORD PTR _i$[ebp]
	push	ecx
	mov	ecx, DWORD PTR _this$[ebp]
	call	?EntityData@ACMITape@@QAEPAUACMIEntityData@@H@Z ; ACMITape::EntityData
	mov	DWORD PTR _e$[ebp], eax

; 2488 : 
; 2489 : 		// get the 1st position data for the entity
; 2490 : 		p = CurrentEntityPositionHead( i );

	mov	edx, DWORD PTR _i$[ebp]
	push	edx
	mov	ecx, DWORD PTR _this$[ebp]
	call	?CurrentEntityPositionHead@ACMITape@@AAEPAUACMIEntityPositionData@@H@Z ; ACMITape::CurrentEntityPositionHead
	mov	DWORD PTR _p$[ebp], eax

; 2491 : 
; 2492 : 		_simTapeEntities[i].flags = e->flags;

	mov	eax, DWORD PTR _i$[ebp]
	imul	eax, 88					; 00000058H
	mov	ecx, DWORD PTR _this$[ebp]
	mov	edx, DWORD PTR [ecx]
	mov	ecx, DWORD PTR _e$[ebp]
	mov	ecx, DWORD PTR [ecx+12]
	mov	DWORD PTR [edx+eax+8], ecx

; 2493 : 
; 2494 : 		if ( e->flags & ENTITY_FLAG_FEATURE )

	mov	edx, DWORD PTR _e$[ebp]
	mov	eax, DWORD PTR [edx+12]
	and	eax, 2
	je	$LN27@SetupSimTa

; 2495 : 		{
; 2496 : 			// edg: I believe this code path should no longer be in use
; 2497 : 			// since features are in a different list
; 2498 : 			_simTapeEntities[i].objBase = new SimFeatureClass(EntityType(i));

	push	604					; 0000025cH
	call	??2@YAPAXI@Z				; operator new
	add	esp, 4
	mov	DWORD PTR $T23[ebp], eax
	mov	DWORD PTR __$EHRec$[ebp+8], 0
	cmp	DWORD PTR $T23[ebp], 0
	je	SHORT $LN33@SetupSimTa
	mov	ecx, DWORD PTR _i$[ebp]
	push	ecx
	mov	ecx, DWORD PTR _this$[ebp]
	call	?EntityType@ACMITape@@QAEHH@Z		; ACMITape::EntityType
	push	eax
	mov	ecx, DWORD PTR $T23[ebp]
	call	??0SimFeatureClass@@QAE@H@Z		; SimFeatureClass::SimFeatureClass
	mov	DWORD PTR tv140[ebp], eax
	jmp	SHORT $LN34@SetupSimTa
$LN33@SetupSimTa:
	mov	DWORD PTR tv140[ebp], 0
$LN34@SetupSimTa:
	mov	edx, DWORD PTR tv140[ebp]
	mov	DWORD PTR $T2[ebp], edx
	mov	DWORD PTR __$EHRec$[ebp+8], -1
	mov	eax, DWORD PTR _i$[ebp]
	imul	eax, 88					; 00000058H
	mov	ecx, DWORD PTR _this$[ebp]
	mov	edx, DWORD PTR [ecx]
	mov	ecx, DWORD PTR $T2[ebp]
	mov	DWORD PTR [edx+eax], ecx

; 2499 : 			_simTapeEntities[i].objBase->SetDelta( 0.0f, 0.0f, 0.0f );

	push	ecx
	movss	xmm0, DWORD PTR __real@00000000
	movss	DWORD PTR [esp], xmm0
	push	ecx
	movss	xmm0, DWORD PTR __real@00000000
	movss	DWORD PTR [esp], xmm0
	push	ecx
	movss	xmm0, DWORD PTR __real@00000000
	movss	DWORD PTR [esp], xmm0
	mov	edx, DWORD PTR _i$[ebp]
	imul	edx, 88					; 00000058H
	mov	eax, DWORD PTR _this$[ebp]
	mov	ecx, DWORD PTR [eax]
	mov	ecx, DWORD PTR [ecx+edx]
	call	?SetDelta@VuEntity@@QAEXMMM@Z		; VuEntity::SetDelta

; 2500 : 			_simTapeEntities[i].objBase->SetYPRDelta( 0.0f, 0.0f, 0.0f );

	push	ecx
	movss	xmm0, DWORD PTR __real@00000000
	movss	DWORD PTR [esp], xmm0
	push	ecx
	movss	xmm0, DWORD PTR __real@00000000
	movss	DWORD PTR [esp], xmm0
	push	ecx
	movss	xmm0, DWORD PTR __real@00000000
	movss	DWORD PTR [esp], xmm0
	mov	edx, DWORD PTR _i$[ebp]
	imul	edx, 88					; 00000058H
	mov	eax, DWORD PTR _this$[ebp]
	mov	ecx, DWORD PTR [eax]
	mov	ecx, DWORD PTR [ecx+edx]
	call	?SetYPRDelta@VuEntity@@QAEXMMM@Z	; VuEntity::SetYPRDelta

; 2501 : 		}
; 2502 : 		else

	jmp	$LN26@SetupSimTa
$LN27@SetupSimTa:

; 2503 : 		{
; 2504 : 			// create the base class
; 2505 : 			_simTapeEntities[i].objBase = new SimStaticClass(EntityType(i));// new SimBaseClass(EntityType(i));

	push	592					; 00000250H
	call	??2@YAPAXI@Z				; operator new
	add	esp, 4
	mov	DWORD PTR $T33[ebp], eax
	mov	DWORD PTR __$EHRec$[ebp+8], 1
	cmp	DWORD PTR $T33[ebp], 0
	je	SHORT $LN35@SetupSimTa
	mov	edx, DWORD PTR _i$[ebp]
	push	edx
	mov	ecx, DWORD PTR _this$[ebp]
	call	?EntityType@ACMITape@@QAEHH@Z		; ACMITape::EntityType
	push	eax
	mov	ecx, DWORD PTR $T33[ebp]
	call	??0SimStaticClass@@QAE@H@Z		; SimStaticClass::SimStaticClass
	mov	DWORD PTR tv183[ebp], eax
	jmp	SHORT $LN36@SetupSimTa
$LN35@SetupSimTa:
	mov	DWORD PTR tv183[ebp], 0
$LN36@SetupSimTa:
	mov	eax, DWORD PTR tv183[ebp]
	mov	DWORD PTR $T3[ebp], eax
	mov	DWORD PTR __$EHRec$[ebp+8], -1
	mov	ecx, DWORD PTR _i$[ebp]
	imul	ecx, 88					; 00000058H
	mov	edx, DWORD PTR _this$[ebp]
	mov	eax, DWORD PTR [edx]
	mov	edx, DWORD PTR $T3[ebp]
	mov	DWORD PTR [eax+ecx], edx

; 2506 : 			GetEntityPosition ( i,
; 2507 : 								_simTapeEntities[i].x,
; 2508 : 								_simTapeEntities[i].y,
; 2509 : 								_simTapeEntities[i].z,
; 2510 : 								_simTapeEntities[i].yaw,
; 2511 : 								_simTapeEntities[i].pitch,
; 2512 : 								_simTapeEntities[i].roll,
; 2513 : 								_simTapeEntities[i].aveSpeed,
; 2514 : 								_simTapeEntities[i].aveTurnRate,
; 2515 : 								_simTapeEntities[i].aveTurnRadius );

	mov	eax, DWORD PTR _i$[ebp]
	imul	eax, 88					; 00000058H
	mov	ecx, DWORD PTR _this$[ebp]
	mov	edx, DWORD PTR [ecx]
	lea	eax, DWORD PTR [edx+eax+44]
	push	eax
	mov	ecx, DWORD PTR _i$[ebp]
	imul	ecx, 88					; 00000058H
	mov	edx, DWORD PTR _this$[ebp]
	mov	eax, DWORD PTR [edx]
	lea	ecx, DWORD PTR [eax+ecx+40]
	push	ecx
	mov	edx, DWORD PTR _i$[ebp]
	imul	edx, 88					; 00000058H
	mov	eax, DWORD PTR _this$[ebp]
	mov	ecx, DWORD PTR [eax]
	lea	edx, DWORD PTR [ecx+edx+36]
	push	edx
	mov	eax, DWORD PTR _i$[ebp]
	imul	eax, 88					; 00000058H
	mov	ecx, DWORD PTR _this$[ebp]
	mov	edx, DWORD PTR [ecx]
	lea	eax, DWORD PTR [edx+eax+32]
	push	eax
	mov	ecx, DWORD PTR _i$[ebp]
	imul	ecx, 88					; 00000058H
	mov	edx, DWORD PTR _this$[ebp]
	mov	eax, DWORD PTR [edx]
	lea	ecx, DWORD PTR [eax+ecx+28]
	push	ecx
	mov	edx, DWORD PTR _i$[ebp]
	imul	edx, 88					; 00000058H
	mov	eax, DWORD PTR _this$[ebp]
	mov	ecx, DWORD PTR [eax]
	lea	edx, DWORD PTR [ecx+edx+24]
	push	edx
	mov	eax, DWORD PTR _i$[ebp]
	imul	eax, 88					; 00000058H
	mov	ecx, DWORD PTR _this$[ebp]
	mov	edx, DWORD PTR [ecx]
	lea	eax, DWORD PTR [edx+eax+20]
	push	eax
	mov	ecx, DWORD PTR _i$[ebp]
	imul	ecx, 88					; 00000058H
	mov	edx, DWORD PTR _this$[ebp]
	mov	eax, DWORD PTR [edx]
	lea	ecx, DWORD PTR [eax+ecx+16]
	push	ecx
	mov	edx, DWORD PTR _i$[ebp]
	imul	edx, 88					; 00000058H
	mov	eax, DWORD PTR _this$[ebp]
	mov	ecx, DWORD PTR [eax]
	lea	edx, DWORD PTR [ecx+edx+12]
	push	edx
	mov	eax, DWORD PTR _i$[ebp]
	push	eax
	mov	ecx, DWORD PTR _this$[ebp]
	call	?GetEntityPosition@ACMITape@@QAEHHAAM00000000@Z ; ACMITape::GetEntityPosition
$LN26@SetupSimTa:

; 2516 : 		}
; 2517 : 
; 2518 : 		// set the matrix
; 2519 : 		_simTapeEntities[i].objBase->SetYPR( p->posData.yaw, p->posData.pitch, p->posData.roll );

	mov	ecx, DWORD PTR _p$[ebp]
	push	ecx
	movss	xmm0, DWORD PTR [ecx+21]
	movss	DWORD PTR [esp], xmm0
	mov	edx, DWORD PTR _p$[ebp]
	push	ecx
	movss	xmm0, DWORD PTR [edx+17]
	movss	DWORD PTR [esp], xmm0
	mov	eax, DWORD PTR _p$[ebp]
	push	ecx
	movss	xmm0, DWORD PTR [eax+25]
	movss	DWORD PTR [esp], xmm0
	mov	ecx, DWORD PTR _i$[ebp]
	imul	ecx, 88					; 00000058H
	mov	edx, DWORD PTR _this$[ebp]
	mov	eax, DWORD PTR [edx]
	mov	ecx, DWORD PTR [eax+ecx]
	call	?SetYPR@VuEntity@@QAEXMMM@Z		; VuEntity::SetYPR

; 2520 : 		_simTapeEntities[i].objBase->SetPosition( p->posData.x, p->posData.y, p->posData.z);

	mov	ecx, DWORD PTR _p$[ebp]
	push	ecx
	movss	xmm0, DWORD PTR [ecx+13]
	movss	DWORD PTR [esp], xmm0
	mov	edx, DWORD PTR _p$[ebp]
	push	ecx
	movss	xmm0, DWORD PTR [edx+9]
	movss	DWORD PTR [esp], xmm0
	mov	eax, DWORD PTR _p$[ebp]
	push	ecx
	movss	xmm0, DWORD PTR [eax+5]
	movss	DWORD PTR [esp], xmm0
	mov	ecx, DWORD PTR _i$[ebp]
	imul	ecx, 88					; 00000058H
	mov	edx, DWORD PTR _this$[ebp]
	mov	eax, DWORD PTR [edx]
	mov	ecx, DWORD PTR [eax+ecx]
	call	?SetPosition@VuEntity@@QAEXMMM@Z	; VuEntity::SetPosition

; 2521 : 		CalcTransformMatrix(_simTapeEntities[i].objBase);

	mov	ecx, DWORD PTR _i$[ebp]
	imul	ecx, 88					; 00000058H
	mov	edx, DWORD PTR _this$[ebp]
	mov	eax, DWORD PTR [edx]
	mov	ecx, DWORD PTR [eax+ecx]
	push	ecx
	call	?CalcTransformMatrix@@YAXPAVSimBaseClass@@@Z ; CalcTransformMatrix
	add	esp, 4

; 2522 : 
; 2523 : 		// create thge drawable object
; 2524 : 		// special case chaff and flares
; 2525 : 		if ( e->flags & ENTITY_FLAG_CHAFF )

	mov	edx, DWORD PTR _e$[ebp]
	mov	eax, DWORD PTR [edx+12]
	and	eax, 8
	je	$LN25@SetupSimTa

; 2526 : 		{
; 2527 : 			pos.x = p->posData.x;

	mov	ecx, DWORD PTR _p$[ebp]
	movss	xmm0, DWORD PTR [ecx+5]
	movss	DWORD PTR _pos$[ebp], xmm0

; 2528 : 			pos.y = p->posData.y;

	mov	edx, DWORD PTR _p$[ebp]
	movss	xmm0, DWORD PTR [edx+9]
	movss	DWORD PTR _pos$[ebp+4], xmm0

; 2529 : 			pos.z = p->posData.z;

	mov	eax, DWORD PTR _p$[ebp]
	movss	xmm0, DWORD PTR [eax+13]
	movss	DWORD PTR _pos$[ebp+8], xmm0

; 2530 :        		_simTapeEntities[i].objBase->drawPointer =
; 2531 : 				 new DrawableBSP( MapVisId(VIS_CHAFF), &pos, &IMatrix, 1.0f );

	push	172					; 000000acH
	call	??2@YAPAXI@Z				; operator new
	add	esp, 4
	mov	DWORD PTR $T31[ebp], eax
	mov	DWORD PTR __$EHRec$[ebp+8], 2
	cmp	DWORD PTR $T31[ebp], 0
	je	SHORT $LN37@SetupSimTa
	push	ecx
	movss	xmm0, DWORD PTR __real@3f800000
	movss	DWORD PTR [esp], xmm0
	push	OFFSET ?IMatrix@@3UTrotation@@B		; IMatrix
	lea	ecx, DWORD PTR _pos$[ebp]
	push	ecx
	push	986					; 000003daH
	call	?MapVisId@@YAKK@Z			; MapVisId
	add	esp, 4
	push	eax
	mov	ecx, DWORD PTR $T31[ebp]
	call	??0DrawableBSP@@QAE@HPBUTpoint@@PBUTrotation@@M@Z ; DrawableBSP::DrawableBSP
	mov	DWORD PTR tv302[ebp], eax
	jmp	SHORT $LN38@SetupSimTa
$LN37@SetupSimTa:
	mov	DWORD PTR tv302[ebp], 0
$LN38@SetupSimTa:
	mov	edx, DWORD PTR tv302[ebp]
	mov	DWORD PTR $T17[ebp], edx
	mov	DWORD PTR __$EHRec$[ebp+8], -1
	mov	eax, DWORD PTR _i$[ebp]
	imul	eax, 88					; 00000058H
	mov	ecx, DWORD PTR _this$[ebp]
	mov	edx, DWORD PTR [ecx]
	mov	eax, DWORD PTR [edx+eax]
	mov	ecx, DWORD PTR $T17[ebp]
	mov	DWORD PTR [eax+332], ecx

; 2532 :        		((DrawableBSP *)_simTapeEntities[i].objBase->drawPointer)->SetLabel("", 0 );

	push	0
	push	OFFSET ??_C@_00CNPNBAHC@?$AA@
	mov	edx, DWORD PTR _i$[ebp]
	imul	edx, 88					; 00000058H
	mov	eax, DWORD PTR _this$[ebp]
	mov	ecx, DWORD PTR [eax]
	mov	edx, DWORD PTR [ecx+edx]
	mov	eax, DWORD PTR [edx+332]
	mov	ecx, DWORD PTR _i$[ebp]
	imul	ecx, 88					; 00000058H
	mov	edx, DWORD PTR _this$[ebp]
	mov	edx, DWORD PTR [edx]
	mov	ecx, DWORD PTR [edx+ecx]
	mov	edx, DWORD PTR [eax]
	mov	ecx, DWORD PTR [ecx+332]
	mov	eax, DWORD PTR [edx+8]
	call	eax
	jmp	$LN18@SetupSimTa
$LN25@SetupSimTa:

; 2533 : 		}
; 2534 : 		else if ( e->flags & ENTITY_FLAG_FLARE )

	mov	ecx, DWORD PTR _e$[ebp]
	mov	edx, DWORD PTR [ecx+12]
	and	edx, 16					; 00000010H
	je	$LN23@SetupSimTa

; 2535 : 		{
; 2536 : 
; 2537 : 			pos.x = p->posData.x;

	mov	eax, DWORD PTR _p$[ebp]
	movss	xmm0, DWORD PTR [eax+5]
	movss	DWORD PTR _pos$[ebp], xmm0

; 2538 : 			pos.y = p->posData.y;

	mov	ecx, DWORD PTR _p$[ebp]
	movss	xmm0, DWORD PTR [ecx+9]
	movss	DWORD PTR _pos$[ebp+4], xmm0

; 2539 : 			pos.z = p->posData.z;

	mov	edx, DWORD PTR _p$[ebp]
	movss	xmm0, DWORD PTR [edx+13]
	movss	DWORD PTR _pos$[ebp+8], xmm0

; 2540 :        		_simTapeEntities[i].objBase->drawPointer =
; 2541 : 				new Drawable2D( DRAW2D_FLARE, 2.0f, &pos );

	push	296					; 00000128H
	call	??2@YAPAXI@Z				; operator new
	add	esp, 4
	mov	DWORD PTR $T30[ebp], eax
	mov	DWORD PTR __$EHRec$[ebp+8], 3
	cmp	DWORD PTR $T30[ebp], 0
	je	SHORT $LN39@SetupSimTa
	lea	eax, DWORD PTR _pos$[ebp]
	push	eax
	push	ecx
	movss	xmm0, DWORD PTR __real@40000000
	movss	DWORD PTR [esp], xmm0
	push	3
	mov	ecx, DWORD PTR $T30[ebp]
	call	??0Drawable2D@@QAE@HMPAUTpoint@@@Z	; Drawable2D::Drawable2D
	mov	DWORD PTR tv355[ebp], eax
	jmp	SHORT $LN40@SetupSimTa
$LN39@SetupSimTa:
	mov	DWORD PTR tv355[ebp], 0
$LN40@SetupSimTa:
	mov	ecx, DWORD PTR tv355[ebp]
	mov	DWORD PTR $T9[ebp], ecx
	mov	DWORD PTR __$EHRec$[ebp+8], -1
	mov	edx, DWORD PTR _i$[ebp]
	imul	edx, 88					; 00000058H
	mov	eax, DWORD PTR _this$[ebp]
	mov	ecx, DWORD PTR [eax]
	mov	edx, DWORD PTR [ecx+edx]
	mov	eax, DWORD PTR $T9[ebp]
	mov	DWORD PTR [edx+332], eax
	jmp	$LN18@SetupSimTa
$LN23@SetupSimTa:

; 2542 : 		}
; 2543 : 		// aircraft use special Drawable Poled class
; 2544 : 		else if ( e->flags & ENTITY_FLAG_AIRCRAFT )

	mov	ecx, DWORD PTR _e$[ebp]
	mov	edx, DWORD PTR [ecx+12]
	and	edx, 4
	je	$LN21@SetupSimTa

; 2545 : 		{
; 2546 : 			short visType;
; 2547 : 
; 2548 : 			SimBaseClass *theObject = _simTapeEntities[i].objBase;

	mov	eax, DWORD PTR _i$[ebp]
	imul	eax, 88					; 00000058H
	mov	ecx, DWORD PTR _this$[ebp]
	mov	edx, DWORD PTR [ecx]
	mov	eax, DWORD PTR [edx+eax]
	mov	DWORD PTR _theObject$37[ebp], eax

; 2549 : 			// get the class pointer
; 2550 : 			Falcon4EntityClassType* classPtr =
; 2551 : 				(Falcon4EntityClassType*)theObject->EntityType();

	mov	ecx, DWORD PTR _theObject$37[ebp]
	call	?EntityType@VuEntity@@QBEPAUVuEntityType@@XZ ; VuEntity::EntityType
	mov	DWORD PTR _classPtr$15[ebp], eax

; 2552 : 			pos.x = p->posData.x;

	mov	ecx, DWORD PTR _p$[ebp]
	movss	xmm0, DWORD PTR [ecx+5]
	movss	DWORD PTR _pos$[ebp], xmm0

; 2553 : 			pos.y = p->posData.y;

	mov	edx, DWORD PTR _p$[ebp]
	movss	xmm0, DWORD PTR [edx+9]
	movss	DWORD PTR _pos$[ebp+4], xmm0

; 2554 : 			pos.z = p->posData.z;

	mov	eax, DWORD PTR _p$[ebp]
	movss	xmm0, DWORD PTR [eax+13]
	movss	DWORD PTR _pos$[ebp+8], xmm0

; 2555 : 			visType = classPtr->visType[theObject->Status() & VIS_TYPE_MASK];

	mov	ecx, DWORD PTR _theObject$37[ebp]
	call	?Status@SimBaseClass@@QBEHXZ		; SimBaseClass::Status
	and	eax, 7
	mov	ecx, DWORD PTR _classPtr$15[ebp]
	mov	dx, WORD PTR [ecx+eax*2+60]
	mov	WORD PTR _visType$35[ebp], dx

; 2556 : 			theObject->drawPointer = new DrawablePoled( visType, &pos, &IMatrix, 1.0f );

	push	396					; 0000018cH
	call	??2@YAPAXI@Z				; operator new
	add	esp, 4
	mov	DWORD PTR $T22[ebp], eax
	mov	DWORD PTR __$EHRec$[ebp+8], 4
	cmp	DWORD PTR $T22[ebp], 0
	je	SHORT $LN41@SetupSimTa
	push	ecx
	movss	xmm0, DWORD PTR __real@3f800000
	movss	DWORD PTR [esp], xmm0
	push	OFFSET ?IMatrix@@3UTrotation@@B		; IMatrix
	lea	eax, DWORD PTR _pos$[ebp]
	push	eax
	movsx	ecx, WORD PTR _visType$35[ebp]
	push	ecx
	mov	ecx, DWORD PTR $T22[ebp]
	call	??0DrawablePoled@@QAE@HPBUTpoint@@PBUTrotation@@M@Z ; DrawablePoled::DrawablePoled
	mov	DWORD PTR tv397[ebp], eax
	jmp	SHORT $LN42@SetupSimTa
$LN41@SetupSimTa:
	mov	DWORD PTR tv397[ebp], 0
$LN42@SetupSimTa:
	mov	edx, DWORD PTR tv397[ebp]
	mov	DWORD PTR $T5[ebp], edx
	mov	DWORD PTR __$EHRec$[ebp+8], -1
	mov	eax, DWORD PTR _theObject$37[ebp]
	mov	ecx, DWORD PTR $T5[ebp]
	mov	DWORD PTR [eax+332], ecx

; 2557 : 
; 2558 : 			F4Assert( theObject->drawPointer != NULL );
; 2559 : 			
; 2560 : 			if(ACMI_Callsigns) // we have callsigns

	cmp	DWORD PTR ?ACMI_Callsigns@@3PAUACMI_CallRec@@A, 0 ; ACMI_Callsigns
	je	SHORT $LN20@SetupSimTa

; 2561 : 				theObject->drawPointer->SetLabel(ACMI_Callsigns[e->uniqueID].label, TeamSimColorList[ACMI_Callsigns[e->uniqueID].teamColor]);

	mov	edx, DWORD PTR _e$[ebp]
	mov	eax, DWORD PTR [edx]
	imul	eax, 20					; 00000014H
	mov	ecx, DWORD PTR ?ACMI_Callsigns@@3PAUACMI_CallRec@@A ; ACMI_Callsigns
	mov	edx, DWORD PTR [ecx+eax+16]
	mov	eax, DWORD PTR ?TeamSimColorList@@3PAJA[edx*4]
	push	eax
	mov	ecx, DWORD PTR _e$[ebp]
	mov	edx, DWORD PTR [ecx]
	imul	edx, 20					; 00000014H
	add	edx, DWORD PTR ?ACMI_Callsigns@@3PAUACMI_CallRec@@A ; ACMI_Callsigns
	push	edx
	mov	eax, DWORD PTR _theObject$37[ebp]
	mov	ecx, DWORD PTR [eax+332]
	mov	edx, DWORD PTR _theObject$37[ebp]
	mov	eax, DWORD PTR [ecx]
	mov	ecx, DWORD PTR [edx+332]
	mov	edx, DWORD PTR [eax+8]
	call	edx
$LN20@SetupSimTa:

; 2562 : 		}
; 2563 : 		else

	jmp	$LN18@SetupSimTa
$LN21@SetupSimTa:

; 2564 : 		{
; 2565 : 			CreateDrawable ( _simTapeEntities[i].objBase, 1.0F);

	push	ecx
	movss	xmm0, DWORD PTR __real@3f800000
	movss	DWORD PTR [esp], xmm0
	mov	eax, DWORD PTR _i$[ebp]
	imul	eax, 88					; 00000058H
	mov	ecx, DWORD PTR _this$[ebp]
	mov	edx, DWORD PTR [ecx]
	mov	eax, DWORD PTR [edx+eax]
	push	eax
	call	?CreateDrawable@@YAXPAVSimBaseClass@@M@Z ; CreateDrawable
	add	esp, 8

; 2566 : 			if(ACMI_Callsigns)

	cmp	DWORD PTR ?ACMI_Callsigns@@3PAUACMI_CallRec@@A, 0 ; ACMI_Callsigns
	je	SHORT $LN18@SetupSimTa

; 2567 : 				((DrawableBSP*)_simTapeEntities[i].objBase->drawPointer)->SetLabel(((DrawableBSP*)_simTapeEntities[i].objBase->drawPointer)->Label(),TeamSimColorList[ACMI_Callsigns[e->uniqueID].teamColor]);

	mov	ecx, DWORD PTR _e$[ebp]
	mov	edx, DWORD PTR [ecx]
	imul	edx, 20					; 00000014H
	mov	eax, DWORD PTR ?ACMI_Callsigns@@3PAUACMI_CallRec@@A ; ACMI_Callsigns
	mov	ecx, DWORD PTR [eax+edx+16]
	mov	edx, DWORD PTR ?TeamSimColorList@@3PAJA[ecx*4]
	push	edx
	mov	eax, DWORD PTR _i$[ebp]
	imul	eax, 88					; 00000058H
	mov	ecx, DWORD PTR _this$[ebp]
	mov	edx, DWORD PTR [ecx]
	mov	eax, DWORD PTR [edx+eax]
	mov	ecx, DWORD PTR [eax+332]
	call	?Label@DrawableBSP@@QAEPADXZ		; DrawableBSP::Label
	push	eax
	mov	ecx, DWORD PTR _i$[ebp]
	imul	ecx, 88					; 00000058H
	mov	edx, DWORD PTR _this$[ebp]
	mov	eax, DWORD PTR [edx]
	mov	ecx, DWORD PTR [eax+ecx]
	mov	edx, DWORD PTR [ecx+332]
	mov	eax, DWORD PTR _i$[ebp]
	imul	eax, 88					; 00000058H
	mov	ecx, DWORD PTR _this$[ebp]
	mov	ecx, DWORD PTR [ecx]
	mov	eax, DWORD PTR [ecx+eax]
	mov	edx, DWORD PTR [edx]
	mov	ecx, DWORD PTR [eax+332]
	mov	eax, DWORD PTR [edx+8]
	call	eax
$LN18@SetupSimTa:

; 2568 : 		}
; 2569 : 
; 2570 : 
; 2571 : 		// sigh.  hack for ejections
; 2572 : 		if (_simTapeEntities[i].objBase->drawPointer == NULL)

	mov	ecx, DWORD PTR _i$[ebp]
	imul	ecx, 88					; 00000058H
	mov	edx, DWORD PTR _this$[ebp]
	mov	eax, DWORD PTR [edx]
	mov	ecx, DWORD PTR [eax+ecx]
	cmp	DWORD PTR [ecx+332], 0
	jne	$LN16@SetupSimTa

; 2573 : 		{
; 2574 : 			short visType;
; 2575 : 
; 2576 : 			SimBaseClass *theObject = _simTapeEntities[i].objBase;

	mov	edx, DWORD PTR _i$[ebp]
	imul	edx, 88					; 00000058H
	mov	eax, DWORD PTR _this$[ebp]
	mov	ecx, DWORD PTR [eax]
	mov	edx, DWORD PTR [ecx+edx]
	mov	DWORD PTR _theObject$36[ebp], edx

; 2577 : 			// get the class pointer
; 2578 : 			Falcon4EntityClassType* classPtr =
; 2579 : 				(Falcon4EntityClassType*)theObject->EntityType();

	mov	ecx, DWORD PTR _theObject$36[ebp]
	call	?EntityType@VuEntity@@QBEPAUVuEntityType@@XZ ; VuEntity::EntityType
	mov	DWORD PTR _classPtr$21[ebp], eax

; 2580 : 			if (classPtr->vuClassData.classInfo_[VU_TYPE] == TYPE_EJECT)

	mov	eax, 1
	shl	eax, 1
	mov	ecx, DWORD PTR _classPtr$21[ebp]
	movzx	edx, BYTE PTR [ecx+eax+8]
	cmp	edx, 9
	jne	$LN16@SetupSimTa

; 2581 : 			{
; 2582 : 				pos.x = p->posData.x;

	mov	eax, DWORD PTR _p$[ebp]
	movss	xmm0, DWORD PTR [eax+5]
	movss	DWORD PTR _pos$[ebp], xmm0

; 2583 : 				pos.y = p->posData.y;

	mov	ecx, DWORD PTR _p$[ebp]
	movss	xmm0, DWORD PTR [ecx+9]
	movss	DWORD PTR _pos$[ebp+4], xmm0

; 2584 : 				pos.z = p->posData.z;

	mov	edx, DWORD PTR _p$[ebp]
	movss	xmm0, DWORD PTR [edx+13]
	movss	DWORD PTR _pos$[ebp+8], xmm0

; 2585 : 				visType = classPtr->visType[theObject->Status() & VIS_TYPE_MASK];

	mov	ecx, DWORD PTR _theObject$36[ebp]
	call	?Status@SimBaseClass@@QBEHXZ		; SimBaseClass::Status
	and	eax, 7
	mov	ecx, DWORD PTR _classPtr$21[ebp]
	mov	dx, WORD PTR [ecx+eax*2+60]
	mov	WORD PTR _visType$4[ebp], dx

; 2586 : 				theObject->drawPointer = new DrawableBSP( MapVisId(VIS_EJECT1), &pos, &IMatrix, 1.0f );

	push	172					; 000000acH
	call	??2@YAPAXI@Z				; operator new
	add	esp, 4
	mov	DWORD PTR $T27[ebp], eax
	mov	DWORD PTR __$EHRec$[ebp+8], 5
	cmp	DWORD PTR $T27[ebp], 0
	je	SHORT $LN43@SetupSimTa
	push	ecx
	movss	xmm0, DWORD PTR __real@3f800000
	movss	DWORD PTR [esp], xmm0
	push	OFFSET ?IMatrix@@3UTrotation@@B		; IMatrix
	lea	eax, DWORD PTR _pos$[ebp]
	push	eax
	push	64					; 00000040H
	call	?MapVisId@@YAKK@Z			; MapVisId
	add	esp, 4
	push	eax
	mov	ecx, DWORD PTR $T27[ebp]
	call	??0DrawableBSP@@QAE@HPBUTpoint@@PBUTrotation@@M@Z ; DrawableBSP::DrawableBSP
	mov	DWORD PTR tv550[ebp], eax
	jmp	SHORT $LN44@SetupSimTa
