; Listing generated by Microsoft (R) Optimizing Compiler Version 17.00.51106.1 

	TITLE	C:\Users\Zhitao Li\Documents\Visual Studio 2012\Projects\Freefalcon\ACMI\src\AcmiView.cpp
	.686P
	.XMM
	include listing.inc
	.model	flat

INCLUDELIB LIBCMT
INCLUDELIB OLDNAMES

PUBLIC	?round_style@_Num_float_base@std@@2W4float_round_style@2@B ; std::_Num_float_base::round_style
PUBLIC	?radix@_Num_float_base@std@@2HB			; std::_Num_float_base::radix
PUBLIC	?is_signed@?$numeric_limits@D@std@@2_NB		; std::numeric_limits<char>::is_signed
PUBLIC	?digits@?$numeric_limits@D@std@@2HB		; std::numeric_limits<char>::digits
PUBLIC	?digits10@?$numeric_limits@D@std@@2HB		; std::numeric_limits<char>::digits10
PUBLIC	?value@?$integral_constant@_N$0A@@std@@2_NB	; std::integral_constant<bool,0>::value
PUBLIC	?is_signed@?$numeric_limits@_W@std@@2_NB	; std::numeric_limits<wchar_t>::is_signed
PUBLIC	?digits@?$numeric_limits@_W@std@@2HB		; std::numeric_limits<wchar_t>::digits
PUBLIC	?digits10@?$numeric_limits@_W@std@@2HB		; std::numeric_limits<wchar_t>::digits10
PUBLIC	?value@?$integral_constant@_N$00@std@@2_NB	; std::integral_constant<bool,1>::value
PUBLIC	?is_modulo@?$numeric_limits@_N@std@@2_NB	; std::numeric_limits<bool>::is_modulo
PUBLIC	?is_signed@?$numeric_limits@_N@std@@2_NB	; std::numeric_limits<bool>::is_signed
PUBLIC	?digits@?$numeric_limits@_N@std@@2HB		; std::numeric_limits<bool>::digits
PUBLIC	?digits10@?$numeric_limits@_N@std@@2HB		; std::numeric_limits<bool>::digits10
PUBLIC	?is_signed@?$numeric_limits@C@std@@2_NB		; std::numeric_limits<signed char>::is_signed
PUBLIC	?digits@?$numeric_limits@C@std@@2HB		; std::numeric_limits<signed char>::digits
PUBLIC	?digits10@?$numeric_limits@C@std@@2HB		; std::numeric_limits<signed char>::digits10
PUBLIC	?is_signed@?$numeric_limits@E@std@@2_NB		; std::numeric_limits<unsigned char>::is_signed
PUBLIC	?digits@?$numeric_limits@E@std@@2HB		; std::numeric_limits<unsigned char>::digits
PUBLIC	?digits10@?$numeric_limits@E@std@@2HB		; std::numeric_limits<unsigned char>::digits10
PUBLIC	?collate@?$_Locbase@H@std@@2HB			; std::_Locbase<int>::collate
PUBLIC	?ctype@?$_Locbase@H@std@@2HB			; std::_Locbase<int>::ctype
PUBLIC	?monetary@?$_Locbase@H@std@@2HB			; std::_Locbase<int>::monetary
PUBLIC	?numeric@?$_Locbase@H@std@@2HB			; std::_Locbase<int>::numeric
PUBLIC	?time@?$_Locbase@H@std@@2HB			; std::_Locbase<int>::time
PUBLIC	?messages@?$_Locbase@H@std@@2HB			; std::_Locbase<int>::messages
PUBLIC	?all@?$_Locbase@H@std@@2HB			; std::_Locbase<int>::all
PUBLIC	?is_signed@?$numeric_limits@F@std@@2_NB		; std::numeric_limits<short>::is_signed
PUBLIC	?none@?$_Locbase@H@std@@2HB			; std::_Locbase<int>::none
PUBLIC	?digits@?$numeric_limits@F@std@@2HB		; std::numeric_limits<short>::digits
PUBLIC	?digits10@?$numeric_limits@F@std@@2HB		; std::numeric_limits<short>::digits10
PUBLIC	?is_signed@?$numeric_limits@G@std@@2_NB		; std::numeric_limits<unsigned short>::is_signed
PUBLIC	?digits@?$numeric_limits@G@std@@2HB		; std::numeric_limits<unsigned short>::digits
PUBLIC	?digits10@?$numeric_limits@G@std@@2HB		; std::numeric_limits<unsigned short>::digits10
PUBLIC	?is_signed@?$numeric_limits@H@std@@2_NB		; std::numeric_limits<int>::is_signed
PUBLIC	?value@?$_Sizeof@HU_Nil@std@@U12@U12@U12@U12@U12@U12@@std@@2IB ; std::_Sizeof<int,std::_Nil,std::_Nil,std::_Nil,std::_Nil,std::_Nil,std::_Nil,std::_Nil>::value
PUBLIC	?digits@?$numeric_limits@H@std@@2HB		; std::numeric_limits<int>::digits
PUBLIC	?digits10@?$numeric_limits@H@std@@2HB		; std::numeric_limits<int>::digits10
PUBLIC	?table_size@?$ctype@D@std@@2IB			; std::ctype<char>::table_size
PUBLIC	?is_signed@?$numeric_limits@I@std@@2_NB		; std::numeric_limits<unsigned int>::is_signed
PUBLIC	?digits@?$numeric_limits@I@std@@2HB		; std::numeric_limits<unsigned int>::digits
PUBLIC	?digits10@?$numeric_limits@I@std@@2HB		; std::numeric_limits<unsigned int>::digits10
PUBLIC	?is_signed@?$numeric_limits@J@std@@2_NB		; std::numeric_limits<long>::is_signed
PUBLIC	?digits@?$numeric_limits@J@std@@2HB		; std::numeric_limits<long>::digits
PUBLIC	?digits10@?$numeric_limits@J@std@@2HB		; std::numeric_limits<long>::digits10
PUBLIC	?is_signed@?$numeric_limits@K@std@@2_NB		; std::numeric_limits<unsigned long>::is_signed
PUBLIC	?digits@?$numeric_limits@K@std@@2HB		; std::numeric_limits<unsigned long>::digits
PUBLIC	?digits10@?$numeric_limits@K@std@@2HB		; std::numeric_limits<unsigned long>::digits10
PUBLIC	?is_signed@?$numeric_limits@_J@std@@2_NB	; std::numeric_limits<__int64>::is_signed
PUBLIC	?digits@?$numeric_limits@_J@std@@2HB		; std::numeric_limits<__int64>::digits
PUBLIC	?digits10@?$numeric_limits@_J@std@@2HB		; std::numeric_limits<__int64>::digits10
PUBLIC	?is_signed@?$numeric_limits@_K@std@@2_NB	; std::numeric_limits<unsigned __int64>::is_signed
PUBLIC	?digits@?$numeric_limits@_K@std@@2HB		; std::numeric_limits<unsigned __int64>::digits
PUBLIC	?digits10@?$numeric_limits@_K@std@@2HB		; std::numeric_limits<unsigned __int64>::digits10
PUBLIC	?digits@?$numeric_limits@M@std@@2HB		; std::numeric_limits<float>::digits
PUBLIC	?digits10@?$numeric_limits@M@std@@2HB		; std::numeric_limits<float>::digits10
PUBLIC	?max_digits10@?$numeric_limits@M@std@@2HB	; std::numeric_limits<float>::max_digits10
PUBLIC	?max_exponent@?$numeric_limits@M@std@@2HB	; std::numeric_limits<float>::max_exponent
PUBLIC	?max_exponent10@?$numeric_limits@M@std@@2HB	; std::numeric_limits<float>::max_exponent10
PUBLIC	?min_exponent@?$numeric_limits@M@std@@2HB	; std::numeric_limits<float>::min_exponent
PUBLIC	?min_exponent10@?$numeric_limits@M@std@@2HB	; std::numeric_limits<float>::min_exponent10
PUBLIC	?value@?$integral_constant@I$0A@@std@@2IB	; std::integral_constant<unsigned int,0>::value
PUBLIC	?digits@?$numeric_limits@N@std@@2HB		; std::numeric_limits<double>::digits
PUBLIC	?digits10@?$numeric_limits@N@std@@2HB		; std::numeric_limits<double>::digits10
PUBLIC	?max_digits10@?$numeric_limits@N@std@@2HB	; std::numeric_limits<double>::max_digits10
PUBLIC	?max_exponent@?$numeric_limits@N@std@@2HB	; std::numeric_limits<double>::max_exponent
PUBLIC	?max_exponent10@?$numeric_limits@N@std@@2HB	; std::numeric_limits<double>::max_exponent10
PUBLIC	?min_exponent@?$numeric_limits@N@std@@2HB	; std::numeric_limits<double>::min_exponent
PUBLIC	?min_exponent10@?$numeric_limits@N@std@@2HB	; std::numeric_limits<double>::min_exponent10
PUBLIC	?digits@?$numeric_limits@O@std@@2HB		; std::numeric_limits<long double>::digits
PUBLIC	?digits10@?$numeric_limits@O@std@@2HB		; std::numeric_limits<long double>::digits10
PUBLIC	?max_digits10@?$numeric_limits@O@std@@2HB	; std::numeric_limits<long double>::max_digits10
PUBLIC	?max_exponent@?$numeric_limits@O@std@@2HB	; std::numeric_limits<long double>::max_exponent
PUBLIC	?max_exponent10@?$numeric_limits@O@std@@2HB	; std::numeric_limits<long double>::max_exponent10
PUBLIC	?min_exponent@?$numeric_limits@O@std@@2HB	; std::numeric_limits<long double>::min_exponent
PUBLIC	?min_exponent10@?$numeric_limits@O@std@@2HB	; std::numeric_limits<long double>::min_exponent10
PUBLIC	?value@?$_Sizeof@U_Nil@std@@U12@U12@U12@U12@U12@U12@U12@@std@@2IB ; std::_Sizeof<std::_Nil,std::_Nil,std::_Nil,std::_Nil,std::_Nil,std::_Nil,std::_Nil,std::_Nil>::value
PUBLIC	?SIMDIRTYDATA_INTERVAL@FalconEntity@@2KB	; FalconEntity::SIMDIRTYDATA_INTERVAL
PUBLIC	?skipws@?$_Iosb@H@std@@2W4_Fmtflags@12@B	; std::_Iosb<int>::skipws
PUBLIC	?CMPDIRTYDATA_INTERVAL@FalconEntity@@2KB	; FalconEntity::CMPDIRTYDATA_INTERVAL
PUBLIC	?unitbuf@?$_Iosb@H@std@@2W4_Fmtflags@12@B	; std::_Iosb<int>::unitbuf
PUBLIC	?uppercase@?$_Iosb@H@std@@2W4_Fmtflags@12@B	; std::_Iosb<int>::uppercase
PUBLIC	?showbase@?$_Iosb@H@std@@2W4_Fmtflags@12@B	; std::_Iosb<int>::showbase
PUBLIC	?showpoint@?$_Iosb@H@std@@2W4_Fmtflags@12@B	; std::_Iosb<int>::showpoint
PUBLIC	?showpos@?$_Iosb@H@std@@2W4_Fmtflags@12@B	; std::_Iosb<int>::showpos
PUBLIC	?left@?$_Iosb@H@std@@2W4_Fmtflags@12@B		; std::_Iosb<int>::left
PUBLIC	?right@?$_Iosb@H@std@@2W4_Fmtflags@12@B		; std::_Iosb<int>::right
PUBLIC	?internal@?$_Iosb@H@std@@2W4_Fmtflags@12@B	; std::_Iosb<int>::internal
PUBLIC	?dec@?$_Iosb@H@std@@2W4_Fmtflags@12@B		; std::_Iosb<int>::dec
PUBLIC	?oct@?$_Iosb@H@std@@2W4_Fmtflags@12@B		; std::_Iosb<int>::oct
PUBLIC	?hex@?$_Iosb@H@std@@2W4_Fmtflags@12@B		; std::_Iosb<int>::hex
PUBLIC	?scientific@?$_Iosb@H@std@@2W4_Fmtflags@12@B	; std::_Iosb<int>::scientific
PUBLIC	?fixed@?$_Iosb@H@std@@2W4_Fmtflags@12@B		; std::_Iosb<int>::fixed
PUBLIC	?hexfloat@?$_Iosb@H@std@@2W4_Fmtflags@12@B	; std::_Iosb<int>::hexfloat
PUBLIC	?boolalpha@?$_Iosb@H@std@@2W4_Fmtflags@12@B	; std::_Iosb<int>::boolalpha
PUBLIC	?_Stdio@?$_Iosb@H@std@@2W4_Fmtflags@12@B	; std::_Iosb<int>::_Stdio
PUBLIC	?adjustfield@?$_Iosb@H@std@@2W4_Fmtflags@12@B	; std::_Iosb<int>::adjustfield
PUBLIC	?basefield@?$_Iosb@H@std@@2W4_Fmtflags@12@B	; std::_Iosb<int>::basefield
PUBLIC	?floatfield@?$_Iosb@H@std@@2W4_Fmtflags@12@B	; std::_Iosb<int>::floatfield
PUBLIC	?goodbit@?$_Iosb@H@std@@2W4_Iostate@12@B	; std::_Iosb<int>::goodbit
PUBLIC	?eofbit@?$_Iosb@H@std@@2W4_Iostate@12@B		; std::_Iosb<int>::eofbit
PUBLIC	?failbit@?$_Iosb@H@std@@2W4_Iostate@12@B	; std::_Iosb<int>::failbit
PUBLIC	?has_denorm@_Num_base@std@@2W4float_denorm_style@2@B ; std::_Num_base::has_denorm
PUBLIC	?badbit@?$_Iosb@H@std@@2W4_Iostate@12@B		; std::_Iosb<int>::badbit
PUBLIC	?has_denorm_loss@_Num_base@std@@2_NB		; std::_Num_base::has_denorm_loss
PUBLIC	?_Hardfail@?$_Iosb@H@std@@2W4_Iostate@12@B	; std::_Iosb<int>::_Hardfail
PUBLIC	?has_infinity@_Num_base@std@@2_NB		; std::_Num_base::has_infinity
PUBLIC	?has_quiet_NaN@_Num_base@std@@2_NB		; std::_Num_base::has_quiet_NaN
PUBLIC	?in@?$_Iosb@H@std@@2W4_Openmode@12@B		; std::_Iosb<int>::in
PUBLIC	?out@?$_Iosb@H@std@@2W4_Openmode@12@B		; std::_Iosb<int>::out
PUBLIC	?has_signaling_NaN@_Num_base@std@@2_NB		; std::_Num_base::has_signaling_NaN
PUBLIC	?ate@?$_Iosb@H@std@@2W4_Openmode@12@B		; std::_Iosb<int>::ate
PUBLIC	?is_bounded@_Num_base@std@@2_NB			; std::_Num_base::is_bounded
PUBLIC	?is_exact@_Num_base@std@@2_NB			; std::_Num_base::is_exact
PUBLIC	?app@?$_Iosb@H@std@@2W4_Openmode@12@B		; std::_Iosb<int>::app
PUBLIC	?is_iec559@_Num_base@std@@2_NB			; std::_Num_base::is_iec559
PUBLIC	?trunc@?$_Iosb@H@std@@2W4_Openmode@12@B		; std::_Iosb<int>::trunc
PUBLIC	?_Nocreate@?$_Iosb@H@std@@2W4_Openmode@12@B	; std::_Iosb<int>::_Nocreate
PUBLIC	?is_integer@_Num_base@std@@2_NB			; std::_Num_base::is_integer
PUBLIC	?_Noreplace@?$_Iosb@H@std@@2W4_Openmode@12@B	; std::_Iosb<int>::_Noreplace
PUBLIC	?is_modulo@_Num_base@std@@2_NB			; std::_Num_base::is_modulo
PUBLIC	?is_signed@_Num_base@std@@2_NB			; std::_Num_base::is_signed
PUBLIC	?binary@?$_Iosb@H@std@@2W4_Openmode@12@B	; std::_Iosb<int>::binary
PUBLIC	?is_specialized@_Num_base@std@@2_NB		; std::_Num_base::is_specialized
PUBLIC	?beg@?$_Iosb@H@std@@2W4_Seekdir@12@B		; std::_Iosb<int>::beg
PUBLIC	?tinyness_before@_Num_base@std@@2_NB		; std::_Num_base::tinyness_before
PUBLIC	?cur@?$_Iosb@H@std@@2W4_Seekdir@12@B		; std::_Iosb<int>::cur
PUBLIC	?traps@_Num_base@std@@2_NB			; std::_Num_base::traps
PUBLIC	?end@?$_Iosb@H@std@@2W4_Seekdir@12@B		; std::_Iosb<int>::end
PUBLIC	?round_style@_Num_base@std@@2W4float_round_style@2@B ; std::_Num_base::round_style
PUBLIC	?digits@_Num_base@std@@2HB			; std::_Num_base::digits
PUBLIC	?digits10@_Num_base@std@@2HB			; std::_Num_base::digits10
PUBLIC	?max_digits10@_Num_base@std@@2HB		; std::_Num_base::max_digits10
PUBLIC	?max_exponent@_Num_base@std@@2HB		; std::_Num_base::max_exponent
PUBLIC	?max_exponent10@_Num_base@std@@2HB		; std::_Num_base::max_exponent10
PUBLIC	?min_exponent@_Num_base@std@@2HB		; std::_Num_base::min_exponent
PUBLIC	?min_exponent10@_Num_base@std@@2HB		; std::_Num_base::min_exponent10
PUBLIC	?radix@_Num_base@std@@2HB			; std::_Num_base::radix
PUBLIC	?_Stream_err@failure@ios_base@std@@0W4io_errc@43@B ; std::ios_base::failure::_Stream_err
PUBLIC	?is_bounded@_Num_int_base@std@@2_NB		; std::_Num_int_base::is_bounded
PUBLIC	?is_exact@_Num_int_base@std@@2_NB		; std::_Num_int_base::is_exact
PUBLIC	?is_integer@_Num_int_base@std@@2_NB		; std::_Num_int_base::is_integer
PUBLIC	?is_modulo@_Num_int_base@std@@2_NB		; std::_Num_int_base::is_modulo
PUBLIC	?is_specialized@_Num_int_base@std@@2_NB		; std::_Num_int_base::is_specialized
PUBLIC	?radix@_Num_int_base@std@@2HB			; std::_Num_int_base::radix
PUBLIC	?has_denorm@_Num_float_base@std@@2W4float_denorm_style@2@B ; std::_Num_float_base::has_denorm
PUBLIC	?has_denorm_loss@_Num_float_base@std@@2_NB	; std::_Num_float_base::has_denorm_loss
PUBLIC	?has_infinity@_Num_float_base@std@@2_NB		; std::_Num_float_base::has_infinity
PUBLIC	?has_quiet_NaN@_Num_float_base@std@@2_NB	; std::_Num_float_base::has_quiet_NaN
PUBLIC	?has_signaling_NaN@_Num_float_base@std@@2_NB	; std::_Num_float_base::has_signaling_NaN
PUBLIC	?is_bounded@_Num_float_base@std@@2_NB		; std::_Num_float_base::is_bounded
PUBLIC	?is_exact@_Num_float_base@std@@2_NB		; std::_Num_float_base::is_exact
PUBLIC	?is_iec559@_Num_float_base@std@@2_NB		; std::_Num_float_base::is_iec559
PUBLIC	?is_integer@_Num_float_base@std@@2_NB		; std::_Num_float_base::is_integer
PUBLIC	?is_modulo@_Num_float_base@std@@2_NB		; std::_Num_float_base::is_modulo
PUBLIC	?is_signed@_Num_float_base@std@@2_NB		; std::_Num_float_base::is_signed
PUBLIC	?is_specialized@_Num_float_base@std@@2_NB	; std::_Num_float_base::is_specialized
PUBLIC	?tinyness_before@_Num_float_base@std@@2_NB	; std::_Num_float_base::tinyness_before
PUBLIC	?traps@_Num_float_base@std@@2_NB		; std::_Num_float_base::traps
;	COMDAT ?traps@_Num_float_base@std@@2_NB
CONST	SEGMENT
?traps@_Num_float_base@std@@2_NB DB 00H			; std::_Num_float_base::traps
CONST	ENDS
;	COMDAT ?tinyness_before@_Num_float_base@std@@2_NB
CONST	SEGMENT
?tinyness_before@_Num_float_base@std@@2_NB DB 01H	; std::_Num_float_base::tinyness_before
CONST	ENDS
;	COMDAT ?is_specialized@_Num_float_base@std@@2_NB
CONST	SEGMENT
?is_specialized@_Num_float_base@std@@2_NB DB 01H	; std::_Num_float_base::is_specialized
CONST	ENDS
;	COMDAT ?is_signed@_Num_float_base@std@@2_NB
CONST	SEGMENT
?is_signed@_Num_float_base@std@@2_NB DB 01H		; std::_Num_float_base::is_signed
CONST	ENDS
;	COMDAT ?is_modulo@_Num_float_base@std@@2_NB
CONST	SEGMENT
?is_modulo@_Num_float_base@std@@2_NB DB 00H		; std::_Num_float_base::is_modulo
CONST	ENDS
;	COMDAT ?is_integer@_Num_float_base@std@@2_NB
CONST	SEGMENT
?is_integer@_Num_float_base@std@@2_NB DB 00H		; std::_Num_float_base::is_integer
CONST	ENDS
;	COMDAT ?is_iec559@_Num_float_base@std@@2_NB
CONST	SEGMENT
?is_iec559@_Num_float_base@std@@2_NB DB 01H		; std::_Num_float_base::is_iec559
CONST	ENDS
;	COMDAT ?is_exact@_Num_float_base@std@@2_NB
CONST	SEGMENT
?is_exact@_Num_float_base@std@@2_NB DB 00H		; std::_Num_float_base::is_exact
CONST	ENDS
;	COMDAT ?is_bounded@_Num_float_base@std@@2_NB
CONST	SEGMENT
?is_bounded@_Num_float_base@std@@2_NB DB 01H		; std::_Num_float_base::is_bounded
CONST	ENDS
;	COMDAT ?has_signaling_NaN@_Num_float_base@std@@2_NB
CONST	SEGMENT
?has_signaling_NaN@_Num_float_base@std@@2_NB DB 01H	; std::_Num_float_base::has_signaling_NaN
CONST	ENDS
;	COMDAT ?has_quiet_NaN@_Num_float_base@std@@2_NB
CONST	SEGMENT
?has_quiet_NaN@_Num_float_base@std@@2_NB DB 01H		; std::_Num_float_base::has_quiet_NaN
CONST	ENDS
;	COMDAT ?has_infinity@_Num_float_base@std@@2_NB
CONST	SEGMENT
?has_infinity@_Num_float_base@std@@2_NB DB 01H		; std::_Num_float_base::has_infinity
CONST	ENDS
;	COMDAT ?has_denorm_loss@_Num_float_base@std@@2_NB
CONST	SEGMENT
?has_denorm_loss@_Num_float_base@std@@2_NB DB 01H	; std::_Num_float_base::has_denorm_loss
CONST	ENDS
;	COMDAT ?has_denorm@_Num_float_base@std@@2W4float_denorm_style@2@B
CONST	SEGMENT
?has_denorm@_Num_float_base@std@@2W4float_denorm_style@2@B DD 01H ; std::_Num_float_base::has_denorm
CONST	ENDS
;	COMDAT ?radix@_Num_int_base@std@@2HB
CONST	SEGMENT
?radix@_Num_int_base@std@@2HB DD 02H			; std::_Num_int_base::radix
CONST	ENDS
;	COMDAT ?is_specialized@_Num_int_base@std@@2_NB
CONST	SEGMENT
?is_specialized@_Num_int_base@std@@2_NB DB 01H		; std::_Num_int_base::is_specialized
CONST	ENDS
;	COMDAT ?is_modulo@_Num_int_base@std@@2_NB
CONST	SEGMENT
?is_modulo@_Num_int_base@std@@2_NB DB 01H		; std::_Num_int_base::is_modulo
CONST	ENDS
;	COMDAT ?is_integer@_Num_int_base@std@@2_NB
CONST	SEGMENT
?is_integer@_Num_int_base@std@@2_NB DB 01H		; std::_Num_int_base::is_integer
CONST	ENDS
;	COMDAT ?is_exact@_Num_int_base@std@@2_NB
CONST	SEGMENT
?is_exact@_Num_int_base@std@@2_NB DB 01H		; std::_Num_int_base::is_exact
CONST	ENDS
;	COMDAT ?is_bounded@_Num_int_base@std@@2_NB
CONST	SEGMENT
?is_bounded@_Num_int_base@std@@2_NB DB 01H		; std::_Num_int_base::is_bounded
CONST	ENDS
;	COMDAT ?_Stream_err@failure@ios_base@std@@0W4io_errc@43@B
CONST	SEGMENT
?_Stream_err@failure@ios_base@std@@0W4io_errc@43@B DD 01H ; std::ios_base::failure::_Stream_err
CONST	ENDS
;	COMDAT ?radix@_Num_base@std@@2HB
CONST	SEGMENT
?radix@_Num_base@std@@2HB DD 00H			; std::_Num_base::radix
CONST	ENDS
;	COMDAT ?min_exponent10@_Num_base@std@@2HB
CONST	SEGMENT
?min_exponent10@_Num_base@std@@2HB DD 00H		; std::_Num_base::min_exponent10
CONST	ENDS
;	COMDAT ?min_exponent@_Num_base@std@@2HB
CONST	SEGMENT
?min_exponent@_Num_base@std@@2HB DD 00H			; std::_Num_base::min_exponent
CONST	ENDS
;	COMDAT ?max_exponent10@_Num_base@std@@2HB
CONST	SEGMENT
?max_exponent10@_Num_base@std@@2HB DD 00H		; std::_Num_base::max_exponent10
CONST	ENDS
;	COMDAT ?max_exponent@_Num_base@std@@2HB
CONST	SEGMENT
?max_exponent@_Num_base@std@@2HB DD 00H			; std::_Num_base::max_exponent
CONST	ENDS
;	COMDAT ?max_digits10@_Num_base@std@@2HB
CONST	SEGMENT
?max_digits10@_Num_base@std@@2HB DD 00H			; std::_Num_base::max_digits10
CONST	ENDS
;	COMDAT ?digits10@_Num_base@std@@2HB
CONST	SEGMENT
?digits10@_Num_base@std@@2HB DD 00H			; std::_Num_base::digits10
CONST	ENDS
;	COMDAT ?digits@_Num_base@std@@2HB
CONST	SEGMENT
?digits@_Num_base@std@@2HB DD 00H			; std::_Num_base::digits
CONST	ENDS
;	COMDAT ?round_style@_Num_base@std@@2W4float_round_style@2@B
CONST	SEGMENT
?round_style@_Num_base@std@@2W4float_round_style@2@B DD 00H ; std::_Num_base::round_style
CONST	ENDS
;	COMDAT ?end@?$_Iosb@H@std@@2W4_Seekdir@12@B
CONST	SEGMENT
?end@?$_Iosb@H@std@@2W4_Seekdir@12@B DD 02H		; std::_Iosb<int>::end
CONST	ENDS
;	COMDAT ?traps@_Num_base@std@@2_NB
CONST	SEGMENT
?traps@_Num_base@std@@2_NB DB 00H			; std::_Num_base::traps
CONST	ENDS
;	COMDAT ?cur@?$_Iosb@H@std@@2W4_Seekdir@12@B
CONST	SEGMENT
?cur@?$_Iosb@H@std@@2W4_Seekdir@12@B DD 01H		; std::_Iosb<int>::cur
CONST	ENDS
;	COMDAT ?tinyness_before@_Num_base@std@@2_NB
CONST	SEGMENT
?tinyness_before@_Num_base@std@@2_NB DB 00H		; std::_Num_base::tinyness_before
CONST	ENDS
;	COMDAT ?beg@?$_Iosb@H@std@@2W4_Seekdir@12@B
CONST	SEGMENT
?beg@?$_Iosb@H@std@@2W4_Seekdir@12@B DD 00H		; std::_Iosb<int>::beg
CONST	ENDS
;	COMDAT ?is_specialized@_Num_base@std@@2_NB
CONST	SEGMENT
?is_specialized@_Num_base@std@@2_NB DB 00H		; std::_Num_base::is_specialized
CONST	ENDS
;	COMDAT ?binary@?$_Iosb@H@std@@2W4_Openmode@12@B
CONST	SEGMENT
?binary@?$_Iosb@H@std@@2W4_Openmode@12@B DD 020H	; std::_Iosb<int>::binary
CONST	ENDS
;	COMDAT ?is_signed@_Num_base@std@@2_NB
CONST	SEGMENT
?is_signed@_Num_base@std@@2_NB DB 00H			; std::_Num_base::is_signed
CONST	ENDS
;	COMDAT ?is_modulo@_Num_base@std@@2_NB
CONST	SEGMENT
?is_modulo@_Num_base@std@@2_NB DB 00H			; std::_Num_base::is_modulo
CONST	ENDS
;	COMDAT ?_Noreplace@?$_Iosb@H@std@@2W4_Openmode@12@B
CONST	SEGMENT
?_Noreplace@?$_Iosb@H@std@@2W4_Openmode@12@B DD 080H	; std::_Iosb<int>::_Noreplace
CONST	ENDS
;	COMDAT ?is_integer@_Num_base@std@@2_NB
CONST	SEGMENT
?is_integer@_Num_base@std@@2_NB DB 00H			; std::_Num_base::is_integer
CONST	ENDS
;	COMDAT ?_Nocreate@?$_Iosb@H@std@@2W4_Openmode@12@B
CONST	SEGMENT
?_Nocreate@?$_Iosb@H@std@@2W4_Openmode@12@B DD 040H	; std::_Iosb<int>::_Nocreate
CONST	ENDS
;	COMDAT ?trunc@?$_Iosb@H@std@@2W4_Openmode@12@B
CONST	SEGMENT
?trunc@?$_Iosb@H@std@@2W4_Openmode@12@B DD 010H		; std::_Iosb<int>::trunc
CONST	ENDS
;	COMDAT ?is_iec559@_Num_base@std@@2_NB
CONST	SEGMENT
?is_iec559@_Num_base@std@@2_NB DB 00H			; std::_Num_base::is_iec559
CONST	ENDS
;	COMDAT ?app@?$_Iosb@H@std@@2W4_Openmode@12@B
CONST	SEGMENT
?app@?$_Iosb@H@std@@2W4_Openmode@12@B DD 08H		; std::_Iosb<int>::app
CONST	ENDS
;	COMDAT ?is_exact@_Num_base@std@@2_NB
CONST	SEGMENT
?is_exact@_Num_base@std@@2_NB DB 00H			; std::_Num_base::is_exact
CONST	ENDS
;	COMDAT ?is_bounded@_Num_base@std@@2_NB
CONST	SEGMENT
?is_bounded@_Num_base@std@@2_NB DB 00H			; std::_Num_base::is_bounded
CONST	ENDS
;	COMDAT ?ate@?$_Iosb@H@std@@2W4_Openmode@12@B
CONST	SEGMENT
?ate@?$_Iosb@H@std@@2W4_Openmode@12@B DD 04H		; std::_Iosb<int>::ate
CONST	ENDS
;	COMDAT ?has_signaling_NaN@_Num_base@std@@2_NB
CONST	SEGMENT
?has_signaling_NaN@_Num_base@std@@2_NB DB 00H		; std::_Num_base::has_signaling_NaN
CONST	ENDS
;	COMDAT ?out@?$_Iosb@H@std@@2W4_Openmode@12@B
CONST	SEGMENT
?out@?$_Iosb@H@std@@2W4_Openmode@12@B DD 02H		; std::_Iosb<int>::out
CONST	ENDS
;	COMDAT ?in@?$_Iosb@H@std@@2W4_Openmode@12@B
CONST	SEGMENT
?in@?$_Iosb@H@std@@2W4_Openmode@12@B DD 01H		; std::_Iosb<int>::in
CONST	ENDS
;	COMDAT ?has_quiet_NaN@_Num_base@std@@2_NB
CONST	SEGMENT
?has_quiet_NaN@_Num_base@std@@2_NB DB 00H		; std::_Num_base::has_quiet_NaN
CONST	ENDS
;	COMDAT ?has_infinity@_Num_base@std@@2_NB
CONST	SEGMENT
?has_infinity@_Num_base@std@@2_NB DB 00H		; std::_Num_base::has_infinity
CONST	ENDS
;	COMDAT ?_Hardfail@?$_Iosb@H@std@@2W4_Iostate@12@B
CONST	SEGMENT
?_Hardfail@?$_Iosb@H@std@@2W4_Iostate@12@B DD 010H	; std::_Iosb<int>::_Hardfail
CONST	ENDS
;	COMDAT ?has_denorm_loss@_Num_base@std@@2_NB
CONST	SEGMENT
?has_denorm_loss@_Num_base@std@@2_NB DB 00H		; std::_Num_base::has_denorm_loss
CONST	ENDS
;	COMDAT ?badbit@?$_Iosb@H@std@@2W4_Iostate@12@B
CONST	SEGMENT
?badbit@?$_Iosb@H@std@@2W4_Iostate@12@B DD 04H		; std::_Iosb<int>::badbit
CONST	ENDS
;	COMDAT ?has_denorm@_Num_base@std@@2W4float_denorm_style@2@B
CONST	SEGMENT
?has_denorm@_Num_base@std@@2W4float_denorm_style@2@B DD 00H ; std::_Num_base::has_denorm
CONST	ENDS
;	COMDAT ?failbit@?$_Iosb@H@std@@2W4_Iostate@12@B
CONST	SEGMENT
?failbit@?$_Iosb@H@std@@2W4_Iostate@12@B DD 02H		; std::_Iosb<int>::failbit
CONST	ENDS
;	COMDAT ?eofbit@?$_Iosb@H@std@@2W4_Iostate@12@B
CONST	SEGMENT
?eofbit@?$_Iosb@H@std@@2W4_Iostate@12@B DD 01H		; std::_Iosb<int>::eofbit
CONST	ENDS
;	COMDAT ?goodbit@?$_Iosb@H@std@@2W4_Iostate@12@B
CONST	SEGMENT
?goodbit@?$_Iosb@H@std@@2W4_Iostate@12@B DD 00H		; std::_Iosb<int>::goodbit
CONST	ENDS
;	COMDAT ?floatfield@?$_Iosb@H@std@@2W4_Fmtflags@12@B
CONST	SEGMENT
?floatfield@?$_Iosb@H@std@@2W4_Fmtflags@12@B DD 03000H	; std::_Iosb<int>::floatfield
CONST	ENDS
;	COMDAT ?basefield@?$_Iosb@H@std@@2W4_Fmtflags@12@B
CONST	SEGMENT
?basefield@?$_Iosb@H@std@@2W4_Fmtflags@12@B DD 0e00H	; std::_Iosb<int>::basefield
CONST	ENDS
;	COMDAT ?adjustfield@?$_Iosb@H@std@@2W4_Fmtflags@12@B
CONST	SEGMENT
?adjustfield@?$_Iosb@H@std@@2W4_Fmtflags@12@B DD 01c0H	; std::_Iosb<int>::adjustfield
CONST	ENDS
;	COMDAT ?_Stdio@?$_Iosb@H@std@@2W4_Fmtflags@12@B
CONST	SEGMENT
?_Stdio@?$_Iosb@H@std@@2W4_Fmtflags@12@B DD 08000H	; std::_Iosb<int>::_Stdio
CONST	ENDS
;	COMDAT ?boolalpha@?$_Iosb@H@std@@2W4_Fmtflags@12@B
CONST	SEGMENT
?boolalpha@?$_Iosb@H@std@@2W4_Fmtflags@12@B DD 04000H	; std::_Iosb<int>::boolalpha
CONST	ENDS
;	COMDAT ?hexfloat@?$_Iosb@H@std@@2W4_Fmtflags@12@B
CONST	SEGMENT
?hexfloat@?$_Iosb@H@std@@2W4_Fmtflags@12@B DD 03000H	; std::_Iosb<int>::hexfloat
CONST	ENDS
;	COMDAT ?fixed@?$_Iosb@H@std@@2W4_Fmtflags@12@B
CONST	SEGMENT
?fixed@?$_Iosb@H@std@@2W4_Fmtflags@12@B DD 02000H	; std::_Iosb<int>::fixed
CONST	ENDS
;	COMDAT ?scientific@?$_Iosb@H@std@@2W4_Fmtflags@12@B
CONST	SEGMENT
?scientific@?$_Iosb@H@std@@2W4_Fmtflags@12@B DD 01000H	; std::_Iosb<int>::scientific
CONST	ENDS
;	COMDAT ?hex@?$_Iosb@H@std@@2W4_Fmtflags@12@B
CONST	SEGMENT
?hex@?$_Iosb@H@std@@2W4_Fmtflags@12@B DD 0800H		; std::_Iosb<int>::hex
CONST	ENDS
;	COMDAT ?oct@?$_Iosb@H@std@@2W4_Fmtflags@12@B
CONST	SEGMENT
?oct@?$_Iosb@H@std@@2W4_Fmtflags@12@B DD 0400H		; std::_Iosb<int>::oct
CONST	ENDS
;	COMDAT ?dec@?$_Iosb@H@std@@2W4_Fmtflags@12@B
CONST	SEGMENT
?dec@?$_Iosb@H@std@@2W4_Fmtflags@12@B DD 0200H		; std::_Iosb<int>::dec
CONST	ENDS
;	COMDAT ?internal@?$_Iosb@H@std@@2W4_Fmtflags@12@B
CONST	SEGMENT
?internal@?$_Iosb@H@std@@2W4_Fmtflags@12@B DD 0100H	; std::_Iosb<int>::internal
CONST	ENDS
;	COMDAT ?right@?$_Iosb@H@std@@2W4_Fmtflags@12@B
CONST	SEGMENT
?right@?$_Iosb@H@std@@2W4_Fmtflags@12@B DD 080H		; std::_Iosb<int>::right
CONST	ENDS
;	COMDAT ?left@?$_Iosb@H@std@@2W4_Fmtflags@12@B
CONST	SEGMENT
?left@?$_Iosb@H@std@@2W4_Fmtflags@12@B DD 040H		; std::_Iosb<int>::left
CONST	ENDS
;	COMDAT ?showpos@?$_Iosb@H@std@@2W4_Fmtflags@12@B
CONST	SEGMENT
?showpos@?$_Iosb@H@std@@2W4_Fmtflags@12@B DD 020H	; std::_Iosb<int>::showpos
CONST	ENDS
;	COMDAT ?showpoint@?$_Iosb@H@std@@2W4_Fmtflags@12@B
CONST	SEGMENT
?showpoint@?$_Iosb@H@std@@2W4_Fmtflags@12@B DD 010H	; std::_Iosb<int>::showpoint
CONST	ENDS
;	COMDAT ?showbase@?$_Iosb@H@std@@2W4_Fmtflags@12@B
CONST	SEGMENT
?showbase@?$_Iosb@H@std@@2W4_Fmtflags@12@B DD 08H	; std::_Iosb<int>::showbase
CONST	ENDS
;	COMDAT ?uppercase@?$_Iosb@H@std@@2W4_Fmtflags@12@B
CONST	SEGMENT
?uppercase@?$_Iosb@H@std@@2W4_Fmtflags@12@B DD 04H	; std::_Iosb<int>::uppercase
CONST	ENDS
;	COMDAT ?unitbuf@?$_Iosb@H@std@@2W4_Fmtflags@12@B
CONST	SEGMENT
?unitbuf@?$_Iosb@H@std@@2W4_Fmtflags@12@B DD 02H	; std::_Iosb<int>::unitbuf
CONST	ENDS
;	COMDAT ?CMPDIRTYDATA_INTERVAL@FalconEntity@@2KB
CONST	SEGMENT
?CMPDIRTYDATA_INTERVAL@FalconEntity@@2KB DD 0c8H	; FalconEntity::CMPDIRTYDATA_INTERVAL
CONST	ENDS
;	COMDAT ?skipws@?$_Iosb@H@std@@2W4_Fmtflags@12@B
CONST	SEGMENT
?skipws@?$_Iosb@H@std@@2W4_Fmtflags@12@B DD 01H		; std::_Iosb<int>::skipws
CONST	ENDS
;	COMDAT ?SIMDIRTYDATA_INTERVAL@FalconEntity@@2KB
CONST	SEGMENT
?SIMDIRTYDATA_INTERVAL@FalconEntity@@2KB DD 0c8H	; FalconEntity::SIMDIRTYDATA_INTERVAL
CONST	ENDS
;	COMDAT ?value@?$_Sizeof@U_Nil@std@@U12@U12@U12@U12@U12@U12@U12@@std@@2IB
CONST	SEGMENT
?value@?$_Sizeof@U_Nil@std@@U12@U12@U12@U12@U12@U12@U12@@std@@2IB DD 00H ; std::_Sizeof<std::_Nil,std::_Nil,std::_Nil,std::_Nil,std::_Nil,std::_Nil,std::_Nil,std::_Nil>::value
CONST	ENDS
;	COMDAT ?min_exponent10@?$numeric_limits@O@std@@2HB
CONST	SEGMENT
?min_exponent10@?$numeric_limits@O@std@@2HB DD 0fffffecdH ; std::numeric_limits<long double>::min_exponent10
CONST	ENDS
;	COMDAT ?min_exponent@?$numeric_limits@O@std@@2HB
CONST	SEGMENT
?min_exponent@?$numeric_limits@O@std@@2HB DD 0fffffc03H	; std::numeric_limits<long double>::min_exponent
CONST	ENDS
;	COMDAT ?max_exponent10@?$numeric_limits@O@std@@2HB
CONST	SEGMENT
?max_exponent10@?$numeric_limits@O@std@@2HB DD 0134H	; std::numeric_limits<long double>::max_exponent10
CONST	ENDS
;	COMDAT ?max_exponent@?$numeric_limits@O@std@@2HB
CONST	SEGMENT
?max_exponent@?$numeric_limits@O@std@@2HB DD 0400H	; std::numeric_limits<long double>::max_exponent
CONST	ENDS
;	COMDAT ?max_digits10@?$numeric_limits@O@std@@2HB
CONST	SEGMENT
?max_digits10@?$numeric_limits@O@std@@2HB DD 011H	; std::numeric_limits<long double>::max_digits10
CONST	ENDS
;	COMDAT ?digits10@?$numeric_limits@O@std@@2HB
CONST	SEGMENT
?digits10@?$numeric_limits@O@std@@2HB DD 0fH		; std::numeric_limits<long double>::digits10
CONST	ENDS
;	COMDAT ?digits@?$numeric_limits@O@std@@2HB
CONST	SEGMENT
?digits@?$numeric_limits@O@std@@2HB DD 035H		; std::numeric_limits<long double>::digits
CONST	ENDS
;	COMDAT ?min_exponent10@?$numeric_limits@N@std@@2HB
CONST	SEGMENT
?min_exponent10@?$numeric_limits@N@std@@2HB DD 0fffffecdH ; std::numeric_limits<double>::min_exponent10
CONST	ENDS
;	COMDAT ?min_exponent@?$numeric_limits@N@std@@2HB
CONST	SEGMENT
?min_exponent@?$numeric_limits@N@std@@2HB DD 0fffffc03H	; std::numeric_limits<double>::min_exponent
CONST	ENDS
;	COMDAT ?max_exponent10@?$numeric_limits@N@std@@2HB
CONST	SEGMENT
?max_exponent10@?$numeric_limits@N@std@@2HB DD 0134H	; std::numeric_limits<double>::max_exponent10
CONST	ENDS
;	COMDAT ?max_exponent@?$numeric_limits@N@std@@2HB
CONST	SEGMENT
?max_exponent@?$numeric_limits@N@std@@2HB DD 0400H	; std::numeric_limits<double>::max_exponent
CONST	ENDS
;	COMDAT ?max_digits10@?$numeric_limits@N@std@@2HB
CONST	SEGMENT
?max_digits10@?$numeric_limits@N@std@@2HB DD 011H	; std::numeric_limits<double>::max_digits10
CONST	ENDS
;	COMDAT ?digits10@?$numeric_limits@N@std@@2HB
CONST	SEGMENT
?digits10@?$numeric_limits@N@std@@2HB DD 0fH		; std::numeric_limits<double>::digits10
CONST	ENDS
;	COMDAT ?digits@?$numeric_limits@N@std@@2HB
CONST	SEGMENT
?digits@?$numeric_limits@N@std@@2HB DD 035H		; std::numeric_limits<double>::digits
CONST	ENDS
;	COMDAT ?value@?$integral_constant@I$0A@@std@@2IB
CONST	SEGMENT
?value@?$integral_constant@I$0A@@std@@2IB DD 00H	; std::integral_constant<unsigned int,0>::value
CONST	ENDS
;	COMDAT ?min_exponent10@?$numeric_limits@M@std@@2HB
CONST	SEGMENT
?min_exponent10@?$numeric_limits@M@std@@2HB DD 0ffffffdbH ; std::numeric_limits<float>::min_exponent10
CONST	ENDS
;	COMDAT ?min_exponent@?$numeric_limits@M@std@@2HB
CONST	SEGMENT
?min_exponent@?$numeric_limits@M@std@@2HB DD 0ffffff83H	; std::numeric_limits<float>::min_exponent
CONST	ENDS
;	COMDAT ?max_exponent10@?$numeric_limits@M@std@@2HB
CONST	SEGMENT
?max_exponent10@?$numeric_limits@M@std@@2HB DD 026H	; std::numeric_limits<float>::max_exponent10
CONST	ENDS
;	COMDAT ?max_exponent@?$numeric_limits@M@std@@2HB
CONST	SEGMENT
?max_exponent@?$numeric_limits@M@std@@2HB DD 080H	; std::numeric_limits<float>::max_exponent
CONST	ENDS
;	COMDAT ?max_digits10@?$numeric_limits@M@std@@2HB
CONST	SEGMENT
?max_digits10@?$numeric_limits@M@std@@2HB DD 09H	; std::numeric_limits<float>::max_digits10
CONST	ENDS
;	COMDAT ?digits10@?$numeric_limits@M@std@@2HB
CONST	SEGMENT
?digits10@?$numeric_limits@M@std@@2HB DD 06H		; std::numeric_limits<float>::digits10
CONST	ENDS
;	COMDAT ?digits@?$numeric_limits@M@std@@2HB
CONST	SEGMENT
?digits@?$numeric_limits@M@std@@2HB DD 018H		; std::numeric_limits<float>::digits
CONST	ENDS
;	COMDAT ?digits10@?$numeric_limits@_K@std@@2HB
CONST	SEGMENT
?digits10@?$numeric_limits@_K@std@@2HB DD 013H		; std::numeric_limits<unsigned __int64>::digits10
CONST	ENDS
;	COMDAT ?digits@?$numeric_limits@_K@std@@2HB
CONST	SEGMENT
?digits@?$numeric_limits@_K@std@@2HB DD 040H		; std::numeric_limits<unsigned __int64>::digits
CONST	ENDS
;	COMDAT ?is_signed@?$numeric_limits@_K@std@@2_NB
CONST	SEGMENT
?is_signed@?$numeric_limits@_K@std@@2_NB DB 00H		; std::numeric_limits<unsigned __int64>::is_signed
CONST	ENDS
;	COMDAT ?digits10@?$numeric_limits@_J@std@@2HB
CONST	SEGMENT
?digits10@?$numeric_limits@_J@std@@2HB DD 012H		; std::numeric_limits<__int64>::digits10
CONST	ENDS
;	COMDAT ?digits@?$numeric_limits@_J@std@@2HB
CONST	SEGMENT
?digits@?$numeric_limits@_J@std@@2HB DD 03fH		; std::numeric_limits<__int64>::digits
CONST	ENDS
;	COMDAT ?is_signed@?$numeric_limits@_J@std@@2_NB
CONST	SEGMENT
?is_signed@?$numeric_limits@_J@std@@2_NB DB 01H		; std::numeric_limits<__int64>::is_signed
CONST	ENDS
;	COMDAT ?digits10@?$numeric_limits@K@std@@2HB
CONST	SEGMENT
?digits10@?$numeric_limits@K@std@@2HB DD 09H		; std::numeric_limits<unsigned long>::digits10
CONST	ENDS
;	COMDAT ?digits@?$numeric_limits@K@std@@2HB
CONST	SEGMENT
?digits@?$numeric_limits@K@std@@2HB DD 020H		; std::numeric_limits<unsigned long>::digits
CONST	ENDS
CONST	SEGMENT
_NEAR_CLIP DD	03f800000r			; 1
_L_2	DD	03f317218r			; 0.693147
CONST	ENDS
;	COMDAT ?is_signed@?$numeric_limits@K@std@@2_NB
CONST	SEGMENT
?is_signed@?$numeric_limits@K@std@@2_NB DB 00H		; std::numeric_limits<unsigned long>::is_signed
CONST	ENDS
;	COMDAT ?digits10@?$numeric_limits@J@std@@2HB
CONST	SEGMENT
?digits10@?$numeric_limits@J@std@@2HB DD 09H		; std::numeric_limits<long>::digits10
CONST	ENDS
;	COMDAT ?digits@?$numeric_limits@J@std@@2HB
CONST	SEGMENT
?digits@?$numeric_limits@J@std@@2HB DD 01fH		; std::numeric_limits<long>::digits
CONST	ENDS
;	COMDAT ?is_signed@?$numeric_limits@J@std@@2_NB
CONST	SEGMENT
?is_signed@?$numeric_limits@J@std@@2_NB DB 01H		; std::numeric_limits<long>::is_signed
CONST	ENDS
;	COMDAT ?digits10@?$numeric_limits@I@std@@2HB
CONST	SEGMENT
?digits10@?$numeric_limits@I@std@@2HB DD 09H		; std::numeric_limits<unsigned int>::digits10
CONST	ENDS
;	COMDAT ?digits@?$numeric_limits@I@std@@2HB
CONST	SEGMENT
?digits@?$numeric_limits@I@std@@2HB DD 020H		; std::numeric_limits<unsigned int>::digits
CONST	ENDS
;	COMDAT ?is_signed@?$numeric_limits@I@std@@2_NB
CONST	SEGMENT
?is_signed@?$numeric_limits@I@std@@2_NB DB 00H		; std::numeric_limits<unsigned int>::is_signed
CONST	ENDS
;	COMDAT ?table_size@?$ctype@D@std@@2IB
CONST	SEGMENT
?table_size@?$ctype@D@std@@2IB DD 0100H			; std::ctype<char>::table_size
CONST	ENDS
;	COMDAT ?digits10@?$numeric_limits@H@std@@2HB
CONST	SEGMENT
?digits10@?$numeric_limits@H@std@@2HB DD 09H		; std::numeric_limits<int>::digits10
CONST	ENDS
;	COMDAT ?digits@?$numeric_limits@H@std@@2HB
CONST	SEGMENT
?digits@?$numeric_limits@H@std@@2HB DD 01fH		; std::numeric_limits<int>::digits
CONST	ENDS
;	COMDAT ?value@?$_Sizeof@HU_Nil@std@@U12@U12@U12@U12@U12@U12@@std@@2IB
CONST	SEGMENT
?value@?$_Sizeof@HU_Nil@std@@U12@U12@U12@U12@U12@U12@@std@@2IB DD 01H ; std::_Sizeof<int,std::_Nil,std::_Nil,std::_Nil,std::_Nil,std::_Nil,std::_Nil,std::_Nil>::value
CONST	ENDS
;	COMDAT ?is_signed@?$numeric_limits@H@std@@2_NB
CONST	SEGMENT
?is_signed@?$numeric_limits@H@std@@2_NB DB 01H		; std::numeric_limits<int>::is_signed
CONST	ENDS
;	COMDAT ?digits10@?$numeric_limits@G@std@@2HB
CONST	SEGMENT
?digits10@?$numeric_limits@G@std@@2HB DD 04H		; std::numeric_limits<unsigned short>::digits10
CONST	ENDS
;	COMDAT ?digits@?$numeric_limits@G@std@@2HB
CONST	SEGMENT
?digits@?$numeric_limits@G@std@@2HB DD 010H		; std::numeric_limits<unsigned short>::digits
CONST	ENDS
;	COMDAT ?is_signed@?$numeric_limits@G@std@@2_NB
CONST	SEGMENT
?is_signed@?$numeric_limits@G@std@@2_NB DB 00H		; std::numeric_limits<unsigned short>::is_signed
CONST	ENDS
;	COMDAT ?digits10@?$numeric_limits@F@std@@2HB
CONST	SEGMENT
?digits10@?$numeric_limits@F@std@@2HB DD 04H		; std::numeric_limits<short>::digits10
CONST	ENDS
;	COMDAT ?digits@?$numeric_limits@F@std@@2HB
CONST	SEGMENT
?digits@?$numeric_limits@F@std@@2HB DD 0fH		; std::numeric_limits<short>::digits
CONST	ENDS
;	COMDAT ?none@?$_Locbase@H@std@@2HB
CONST	SEGMENT
?none@?$_Locbase@H@std@@2HB DD 00H			; std::_Locbase<int>::none
CONST	ENDS
;	COMDAT ?is_signed@?$numeric_limits@F@std@@2_NB
CONST	SEGMENT
?is_signed@?$numeric_limits@F@std@@2_NB DB 01H		; std::numeric_limits<short>::is_signed
CONST	ENDS
;	COMDAT ?all@?$_Locbase@H@std@@2HB
CONST	SEGMENT
?all@?$_Locbase@H@std@@2HB DD 03fH			; std::_Locbase<int>::all
CONST	ENDS
;	COMDAT ?messages@?$_Locbase@H@std@@2HB
CONST	SEGMENT
?messages@?$_Locbase@H@std@@2HB DD 020H			; std::_Locbase<int>::messages
CONST	ENDS
;	COMDAT ?time@?$_Locbase@H@std@@2HB
CONST	SEGMENT
?time@?$_Locbase@H@std@@2HB DD 010H			; std::_Locbase<int>::time
CONST	ENDS
;	COMDAT ?numeric@?$_Locbase@H@std@@2HB
CONST	SEGMENT
?numeric@?$_Locbase@H@std@@2HB DD 08H			; std::_Locbase<int>::numeric
CONST	ENDS
;	COMDAT ?monetary@?$_Locbase@H@std@@2HB
CONST	SEGMENT
?monetary@?$_Locbase@H@std@@2HB DD 04H			; std::_Locbase<int>::monetary
CONST	ENDS
;	COMDAT ?ctype@?$_Locbase@H@std@@2HB
CONST	SEGMENT
?ctype@?$_Locbase@H@std@@2HB DD 02H			; std::_Locbase<int>::ctype
CONST	ENDS
;	COMDAT ?collate@?$_Locbase@H@std@@2HB
CONST	SEGMENT
?collate@?$_Locbase@H@std@@2HB DD 01H			; std::_Locbase<int>::collate
CONST	ENDS
;	COMDAT ?digits10@?$numeric_limits@E@std@@2HB
CONST	SEGMENT
?digits10@?$numeric_limits@E@std@@2HB DD 02H		; std::numeric_limits<unsigned char>::digits10
CONST	ENDS
;	COMDAT ?digits@?$numeric_limits@E@std@@2HB
CONST	SEGMENT
?digits@?$numeric_limits@E@std@@2HB DD 08H		; std::numeric_limits<unsigned char>::digits
CONST	ENDS
;	COMDAT ?is_signed@?$numeric_limits@E@std@@2_NB
CONST	SEGMENT
?is_signed@?$numeric_limits@E@std@@2_NB DB 00H		; std::numeric_limits<unsigned char>::is_signed
CONST	ENDS
;	COMDAT ?digits10@?$numeric_limits@C@std@@2HB
CONST	SEGMENT
?digits10@?$numeric_limits@C@std@@2HB DD 02H		; std::numeric_limits<signed char>::digits10
CONST	ENDS
;	COMDAT ?digits@?$numeric_limits@C@std@@2HB
CONST	SEGMENT
?digits@?$numeric_limits@C@std@@2HB DD 07H		; std::numeric_limits<signed char>::digits
CONST	ENDS
;	COMDAT ?is_signed@?$numeric_limits@C@std@@2_NB
CONST	SEGMENT
?is_signed@?$numeric_limits@C@std@@2_NB DB 01H		; std::numeric_limits<signed char>::is_signed
CONST	ENDS
;	COMDAT ?digits10@?$numeric_limits@_N@std@@2HB
CONST	SEGMENT
?digits10@?$numeric_limits@_N@std@@2HB DD 00H		; std::numeric_limits<bool>::digits10
CONST	ENDS
;	COMDAT ?digits@?$numeric_limits@_N@std@@2HB
CONST	SEGMENT
?digits@?$numeric_limits@_N@std@@2HB DD 01H		; std::numeric_limits<bool>::digits
CONST	ENDS
;	COMDAT ?is_signed@?$numeric_limits@_N@std@@2_NB
CONST	SEGMENT
?is_signed@?$numeric_limits@_N@std@@2_NB DB 00H		; std::numeric_limits<bool>::is_signed
CONST	ENDS
;	COMDAT ?is_modulo@?$numeric_limits@_N@std@@2_NB
CONST	SEGMENT
?is_modulo@?$numeric_limits@_N@std@@2_NB DB 00H		; std::numeric_limits<bool>::is_modulo
CONST	ENDS
;	COMDAT ?value@?$integral_constant@_N$00@std@@2_NB
CONST	SEGMENT
?value@?$integral_constant@_N$00@std@@2_NB DB 01H	; std::integral_constant<bool,1>::value
CONST	ENDS
;	COMDAT ?digits10@?$numeric_limits@_W@std@@2HB
CONST	SEGMENT
?digits10@?$numeric_limits@_W@std@@2HB DD 04H		; std::numeric_limits<wchar_t>::digits10
CONST	ENDS
;	COMDAT ?digits@?$numeric_limits@_W@std@@2HB
CONST	SEGMENT
?digits@?$numeric_limits@_W@std@@2HB DD 010H		; std::numeric_limits<wchar_t>::digits
CONST	ENDS
;	COMDAT ?is_signed@?$numeric_limits@_W@std@@2_NB
CONST	SEGMENT
?is_signed@?$numeric_limits@_W@std@@2_NB DB 00H		; std::numeric_limits<wchar_t>::is_signed
CONST	ENDS
;	COMDAT ?value@?$integral_constant@_N$0A@@std@@2_NB
CONST	SEGMENT
?value@?$integral_constant@_N$0A@@std@@2_NB DB 00H	; std::integral_constant<bool,0>::value
CONST	ENDS
;	COMDAT ?digits10@?$numeric_limits@D@std@@2HB
CONST	SEGMENT
?digits10@?$numeric_limits@D@std@@2HB DD 02H		; std::numeric_limits<char>::digits10
CONST	ENDS
;	COMDAT ?digits@?$numeric_limits@D@std@@2HB
CONST	SEGMENT
?digits@?$numeric_limits@D@std@@2HB DD 07H		; std::numeric_limits<char>::digits
CONST	ENDS
;	COMDAT ?is_signed@?$numeric_limits@D@std@@2_NB
CONST	SEGMENT
?is_signed@?$numeric_limits@D@std@@2_NB DB 01H		; std::numeric_limits<char>::is_signed
CONST	ENDS
;	COMDAT ?radix@_Num_float_base@std@@2HB
CONST	SEGMENT
?radix@_Num_float_base@std@@2HB DD 02H			; std::_Num_float_base::radix
CONST	ENDS
;	COMDAT ?round_style@_Num_float_base@std@@2W4float_round_style@2@B
CONST	SEGMENT
?round_style@_Num_float_base@std@@2W4float_round_style@2@B DD 01H ; std::_Num_float_base::round_style
CONST	ENDS
PUBLIC	??0Edge@@QAE@XZ					; Edge::Edge
PUBLIC	??1Edge@@QAE@XZ					; Edge::~Edge
PUBLIC	??2@YAPAXIPAX@Z					; operator new
PUBLIC	??3@YAXPAX0@Z					; operator delete
PUBLIC	?length@?$char_traits@D@std@@SAIPBD@Z		; std::char_traits<char>::length
PUBLIC	?copy@?$char_traits@D@std@@SAPADPADPBDI@Z	; std::char_traits<char>::copy
PUBLIC	?move@?$char_traits@D@std@@SAPADPADPBDI@Z	; std::char_traits<char>::move
PUBLIC	?assign@?$char_traits@D@std@@SAXAADABD@Z	; std::char_traits<char>::assign
PUBLIC	??0?$allocator@D@std@@QAE@XZ			; std::allocator<char>::allocator<char>
PUBLIC	?deallocate@?$allocator@D@std@@QAEXPADI@Z	; std::allocator<char>::deallocate
PUBLIC	?allocate@?$allocator@D@std@@QAEPADI@Z		; std::allocator<char>::allocate
PUBLIC	?max_size@?$allocator@D@std@@QBEIXZ		; std::allocator<char>::max_size
PUBLIC	?max_size@?$allocator_traits@V?$allocator@D@std@@@std@@SAIABV?$allocator@D@2@@Z ; std::allocator_traits<std::allocator<char> >::max_size
PUBLIC	??0?$_Wrap_alloc@V?$allocator@D@std@@@std@@QAE@XZ ; std::_Wrap_alloc<std::allocator<char> >::_Wrap_alloc<std::allocator<char> >
PUBLIC	?allocate@?$_Wrap_alloc@V?$allocator@D@std@@@std@@QAEPADI@Z ; std::_Wrap_alloc<std::allocator<char> >::allocate
PUBLIC	?deallocate@?$_Wrap_alloc@V?$allocator@D@std@@@std@@QAEXPADI@Z ; std::_Wrap_alloc<std::allocator<char> >::deallocate
PUBLIC	?max_size@?$_Wrap_alloc@V?$allocator@D@std@@@std@@QBEIXZ ; std::_Wrap_alloc<std::allocator<char> >::max_size
PUBLIC	??0?$_String_val@U?$_Simple_types@D@std@@@std@@QAE@XZ ; std::_String_val<std::_Simple_types<char> >::_String_val<std::_Simple_types<char> >
PUBLIC	?_Myptr@?$_String_val@U?$_Simple_types@D@std@@@std@@QAEPADXZ ; std::_String_val<std::_Simple_types<char> >::_Myptr
PUBLIC	?_Myptr@?$_String_val@U?$_Simple_types@D@std@@@std@@QBEPBDXZ ; std::_String_val<std::_Simple_types<char> >::_Myptr
PUBLIC	??0?$_String_alloc@$0A@U?$_String_base_types@DV?$allocator@D@std@@@std@@@std@@QAE@ABV?$allocator@D@1@@Z ; std::_String_alloc<0,std::_String_base_types<char,std::allocator<char> > >::_String_alloc<0,std::_String_base_types<char,std::allocator<char> > >
PUBLIC	?_Getal@?$_String_alloc@$0A@U?$_String_base_types@DV?$allocator@D@std@@@std@@@std@@QBE?AU?$_Wrap_alloc@V?$allocator@D@std@@@2@XZ ; std::_String_alloc<0,std::_String_base_types<char,std::allocator<char> > >::_Getal
PUBLIC	??0?$basic_string@DU?$char_traits@D@std@@V?$allocator@D@2@@std@@QAE@PBD@Z ; std::basic_string<char,std::char_traits<char>,std::allocator<char> >::basic_string<char,std::char_traits<char>,std::allocator<char> >
PUBLIC	?assign@?$basic_string@DU?$char_traits@D@std@@V?$allocator@D@2@@std@@QAEAAV12@ABV12@II@Z ; std::basic_string<char,std::char_traits<char>,std::allocator<char> >::assign
PUBLIC	?assign@?$basic_string@DU?$char_traits@D@std@@V?$allocator@D@2@@std@@QAEAAV12@PBDI@Z ; std::basic_string<char,std::char_traits<char>,std::allocator<char> >::assign
PUBLIC	?assign@?$basic_string@DU?$char_traits@D@std@@V?$allocator@D@2@@std@@QAEAAV12@PBD@Z ; std::basic_string<char,std::char_traits<char>,std::allocator<char> >::assign
PUBLIC	?erase@?$basic_string@DU?$char_traits@D@std@@V?$allocator@D@2@@std@@QAEAAV12@I@Z ; std::basic_string<char,std::char_traits<char>,std::allocator<char> >::erase
PUBLIC	?erase@?$basic_string@DU?$char_traits@D@std@@V?$allocator@D@2@@std@@QAEAAV12@II@Z ; std::basic_string<char,std::char_traits<char>,std::allocator<char> >::erase
PUBLIC	?size@?$basic_string@DU?$char_traits@D@std@@V?$allocator@D@2@@std@@QBEIXZ ; std::basic_string<char,std::char_traits<char>,std::allocator<char> >::size
PUBLIC	?max_size@?$basic_string@DU?$char_traits@D@std@@V?$allocator@D@2@@std@@QBEIXZ ; std::basic_string<char,std::char_traits<char>,std::allocator<char> >::max_size
PUBLIC	?_Copy@?$basic_string@DU?$char_traits@D@std@@V?$allocator@D@2@@std@@QAEXII@Z ; std::basic_string<char,std::char_traits<char>,std::allocator<char> >::_Copy
PUBLIC	?_Eos@?$basic_string@DU?$char_traits@D@std@@V?$allocator@D@2@@std@@QAEXI@Z ; std::basic_string<char,std::char_traits<char>,std::allocator<char> >::_Eos
PUBLIC	?_Grow@?$basic_string@DU?$char_traits@D@std@@V?$allocator@D@2@@std@@QAE_NI_N@Z ; std::basic_string<char,std::char_traits<char>,std::allocator<char> >::_Grow
PUBLIC	?_Inside@?$basic_string@DU?$char_traits@D@std@@V?$allocator@D@2@@std@@QAE_NPBD@Z ; std::basic_string<char,std::char_traits<char>,std::allocator<char> >::_Inside
PUBLIC	?_Tidy@?$basic_string@DU?$char_traits@D@std@@V?$allocator@D@2@@std@@QAEX_NI@Z ; std::basic_string<char,std::char_traits<char>,std::allocator<char> >::_Tidy
PUBLIC	?_Xlen@?$basic_string@DU?$char_traits@D@std@@V?$allocator@D@2@@std@@QBEXXZ ; std::basic_string<char,std::char_traits<char>,std::allocator<char> >::_Xlen
PUBLIC	?_Xran@?$basic_string@DU?$char_traits@D@std@@V?$allocator@D@2@@std@@QBEXXZ ; std::basic_string<char,std::char_traits<char>,std::allocator<char> >::_Xran
PUBLIC	??0id@locale@std@@QAE@I@Z			; std::locale::id::id
PUBLIC	?generic_category@std@@YAABVerror_category@1@XZ	; std::generic_category
PUBLIC	?system_category@std@@YAABVerror_category@1@XZ	; std::system_category
PUBLIC	??0error_category@std@@QAE@XZ			; std::error_category::error_category
PUBLIC	??1error_category@std@@UAE@XZ			; std::error_category::~error_category
PUBLIC	?default_error_condition@error_category@std@@UBE?AVerror_condition@2@H@Z ; std::error_category::default_error_condition
PUBLIC	?equivalent@error_category@std@@UBE_NHABVerror_condition@2@@Z ; std::error_category::equivalent
PUBLIC	?equivalent@error_category@std@@UBE_NABVerror_code@2@H@Z ; std::error_category::equivalent
PUBLIC	??8error_category@std@@QBE_NABV01@@Z		; std::error_category::operator==
PUBLIC	??_Gerror_category@std@@UAEPAXI@Z		; std::error_category::`scalar deleting destructor'
PUBLIC	?value@error_code@std@@QBEHXZ			; std::error_code::value
PUBLIC	?category@error_code@std@@QBEABVerror_category@2@XZ ; std::error_code::category
PUBLIC	??0error_condition@std@@QAE@HABVerror_category@1@@Z ; std::error_condition::error_condition
PUBLIC	?value@error_condition@std@@QBEHXZ		; std::error_condition::value
PUBLIC	?category@error_condition@std@@QBEABVerror_category@2@XZ ; std::error_condition::category
PUBLIC	??8error_condition@std@@QBE_NABV01@@Z		; std::error_condition::operator==
PUBLIC	??0_Generic_error_category@std@@QAE@XZ		; std::_Generic_error_category::_Generic_error_category
PUBLIC	?name@_Generic_error_category@std@@UBEPBDXZ	; std::_Generic_error_category::name
PUBLIC	?message@_Generic_error_category@std@@UBE?AV?$basic_string@DU?$char_traits@D@std@@V?$allocator@D@2@@2@H@Z ; std::_Generic_error_category::message
PUBLIC	??1_Generic_error_category@std@@UAE@XZ		; std::_Generic_error_category::~_Generic_error_category
PUBLIC	??_G_Generic_error_category@std@@UAEPAXI@Z	; std::_Generic_error_category::`scalar deleting destructor'
PUBLIC	??0_Iostream_error_category@std@@QAE@XZ		; std::_Iostream_error_category::_Iostream_error_category
PUBLIC	?name@_Iostream_error_category@std@@UBEPBDXZ	; std::_Iostream_error_category::name
PUBLIC	?message@_Iostream_error_category@std@@UBE?AV?$basic_string@DU?$char_traits@D@std@@V?$allocator@D@2@@2@H@Z ; std::_Iostream_error_category::message
PUBLIC	??1_Iostream_error_category@std@@UAE@XZ		; std::_Iostream_error_category::~_Iostream_error_category
PUBLIC	??_G_Iostream_error_category@std@@UAEPAXI@Z	; std::_Iostream_error_category::`scalar deleting destructor'
PUBLIC	??0_System_error_category@std@@QAE@XZ		; std::_System_error_category::_System_error_category
PUBLIC	?name@_System_error_category@std@@UBEPBDXZ	; std::_System_error_category::name
PUBLIC	?message@_System_error_category@std@@UBE?AV?$basic_string@DU?$char_traits@D@std@@V?$allocator@D@2@@2@H@Z ; std::_System_error_category::message
PUBLIC	?default_error_condition@_System_error_category@std@@UBE?AVerror_condition@2@H@Z ; std::_System_error_category::default_error_condition
PUBLIC	??1_System_error_category@std@@UAE@XZ		; std::_System_error_category::~_System_error_category
PUBLIC	??_G_System_error_category@std@@UAEPAXI@Z	; std::_System_error_category::`scalar deleting destructor'
PUBLIC	?CurrentForegroundColor@ContextMPR@@QAEHXZ	; ContextMPR::CurrentForegroundColor
PUBLIC	?GetDisplayDevice@ImageBuffer@@QAEPAVDisplayDevice@@XZ ; ImageBuffer::GetDisplayDevice
PUBLIC	?targetXres@ImageBuffer@@QAEHXZ			; ImageBuffer::targetXres
PUBLIC	?targetYres@ImageBuffer@@QAEHXZ			; ImageBuffer::targetYres
PUBLIC	?TexHandle@Texture@@QAEKXZ			; Texture::TexHandle
PUBLIC	??0VirtualDisplay@@QAE@XZ			; VirtualDisplay::VirtualDisplay
PUBLIC	??1VirtualDisplay@@UAE@XZ			; VirtualDisplay::~VirtualDisplay
PUBLIC	?Circle@VirtualDisplay@@UAEXMMM@Z		; VirtualDisplay::Circle
PUBLIC	?Arc@VirtualDisplay@@UAEXMMMMM@Z		; VirtualDisplay::Arc
PUBLIC	?TextWidth@VirtualDisplay@@UAEMPAD@Z		; VirtualDisplay::TextWidth
PUBLIC	?TextHeight@VirtualDisplay@@UAEMXZ		; VirtualDisplay::TextHeight
PUBLIC	?SetLineStyle@VirtualDisplay@@UAEXH@Z		; VirtualDisplay::SetLineStyle
PUBLIC	?Color@VirtualDisplay@@UAEKXZ			; VirtualDisplay::Color
PUBLIC	??_GVirtualDisplay@@UAEPAXI@Z			; VirtualDisplay::`scalar deleting destructor'
PUBLIC	??0Render2D@@QAE@XZ				; Render2D::Render2D
PUBLIC	??1Render2D@@UAE@XZ				; Render2D::~Render2D
PUBLIC	?ClearDraw@Render2D@@UAEXXZ			; Render2D::ClearDraw
PUBLIC	?ClearZBuffer@Render2D@@UAEXXZ			; Render2D::ClearZBuffer
PUBLIC	?Color@Render2D@@UAEKXZ				; Render2D::Color
PUBLIC	?SetColor@Render2D@@UAEXK@Z			; Render2D::SetColor
PUBLIC	?SetBackground@Render2D@@UAEXK@Z		; Render2D::SetBackground
PUBLIC	?SetLineStyle@Render2D@@UAEXH@Z			; Render2D::SetLineStyle
PUBLIC	??_GRender2D@@UAEPAXI@Z				; Render2D::`scalar deleting destructor'
PUBLIC	??0Render3D@@QAE@XZ				; Render3D::Render3D
PUBLIC	??1Render3D@@UAE@XZ				; Render3D::~Render3D
PUBLIC	?Cleanup@Render3D@@UAEXXZ			; Render3D::Cleanup
PUBLIC	??_GRender3D@@UAEPAXI@Z				; Render3D::`scalar deleting destructor'
PUBLIC	??0RenderOTW@@QAE@XZ				; RenderOTW::RenderOTW
PUBLIC	??1RenderOTW@@UAE@XZ				; RenderOTW::~RenderOTW
PUBLIC	?SetHazeMode@RenderOTW@@QAEXH@Z			; RenderOTW::SetHazeMode
PUBLIC	?SetDitheringMode@RenderOTW@@QAEXH@Z		; RenderOTW::SetDitheringMode
PUBLIC	?SetFilteringMode@RenderOTW@@QAEXH@Z		; RenderOTW::SetFilteringMode
PUBLIC	??_GRenderOTW@@UAEPAXI@Z			; RenderOTW::`scalar deleting destructor'
PUBLIC	?SetOverrideTexture@TextureDB@@QAEXI@Z		; TextureDB::SetOverrideTexture
PUBLIC	??0TViewPoint@@QAE@XZ				; TViewPoint::TViewPoint
PUBLIC	??1TViewPoint@@QAE@XZ				; TViewPoint::~TViewPoint
PUBLIC	??0RViewPoint@@QAE@XZ				; RViewPoint::RViewPoint
PUBLIC	??1RViewPoint@@QAE@XZ				; RViewPoint::~RViewPoint
PUBLIC	??_GRViewPoint@@QAEPAXI@Z			; RViewPoint::`scalar deleting destructor'
PUBLIC	?Label@DrawableBSP@@QAEPADXZ			; DrawableBSP::Label
PUBLIC	?LabelColor@DrawableBSP@@QAEKXZ			; DrawableBSP::LabelColor
PUBLIC	?GetX@C_Window@@QAEFXZ				; C_Window::GetX
PUBLIC	?GetY@C_Window@@QAEFXZ				; C_Window::GetY
PUBLIC	?GetW@C_Window@@QAEFXZ				; C_Window::GetW
PUBLIC	?GetH@C_Window@@QAEFXZ				; C_Window::GetH
PUBLIC	?GetFront@C_Handler@@QAEPAVImageBuffer@@XZ	; C_Handler::GetFront
PUBLIC	?EntityType@VuEntity@@QBEPAUVuEntityType@@XZ	; VuEntity::EntityType
PUBLIC	?GetDefaultRC@DisplayDevice@@QAEPAVDXContext@@XZ ; DisplayDevice::GetDefaultRC
PUBLIC	?HazingOn@PlayerOptionsClass@@QAEHXZ		; PlayerOptionsClass::HazingOn
PUBLIC	?FilteringOn@PlayerOptionsClass@@QAEHXZ		; PlayerOptionsClass::FilteringOn
PUBLIC	?TerrainDistance@PlayerOptionsClass@@QAEMXZ	; PlayerOptionsClass::TerrainDistance
PUBLIC	?MaxTerrainLevel@PlayerOptionsClass@@QAEHXZ	; PlayerOptionsClass::MaxTerrainLevel
PUBLIC	?ObjectDetailLevel@PlayerOptionsClass@@QAEMXZ	; PlayerOptionsClass::ObjectDetailLevel
PUBLIC	?NumEntities@ACMITape@@QAEHXZ			; ACMITape::NumEntities
PUBLIC	?IsLoaded@ACMITape@@QAEHXZ			; ACMITape::IsLoaded
PUBLIC	?SetScreenCapturing@ACMITape@@QAEXH@Z		; ACMITape::SetScreenCapturing
PUBLIC	?EntityData@ACMITape@@QAEPAUACMIEntityData@@H@Z	; ACMITape::EntityData
PUBLIC	??_GACMITape@@QAEPAXI@Z				; ACMITape::`scalar deleting destructor'
PUBLIC	??0ACMIView@@QAE@XZ				; ACMIView::ACMIView
PUBLIC	??1ACMIView@@QAE@XZ				; ACMIView::~ACMIView
PUBLIC	?Tape@ACMIView@@QAEPAVACMITape@@XZ		; ACMIView::Tape
PUBLIC	?ToggleScreenShot@ACMIView@@QAEXXZ		; ACMIView::ToggleScreenShot
PUBLIC	?ToggleLabel@ACMIView@@QAEXH@Z			; ACMIView::ToggleLabel
PUBLIC	?ToggleHeading@ACMIView@@QAEXH@Z		; ACMIView::ToggleHeading
PUBLIC	?ToggleAirSpeed@ACMIView@@QAEXH@Z		; ACMIView::ToggleAirSpeed
PUBLIC	?ToggleAltitude@ACMIView@@QAEXH@Z		; ACMIView::ToggleAltitude
PUBLIC	?ToggleTurnRate@ACMIView@@QAEXH@Z		; ACMIView::ToggleTurnRate
PUBLIC	?ToggleTurnRadius@ACMIView@@QAEXH@Z		; ACMIView::ToggleTurnRadius
PUBLIC	?ToggleWireFrame@ACMIView@@QAEXH@Z		; ACMIView::ToggleWireFrame
PUBLIC	?TogglePoles@ACMIView@@QAEXH@Z			; ACMIView::TogglePoles
PUBLIC	?ToggleLockLines@ACMIView@@QAEXH@Z		; ACMIView::ToggleLockLines
PUBLIC	?Togglelockrange@ACMIView@@QAEXH@Z		; ACMIView::Togglelockrange
PUBLIC	?InitGraphics@ACMIView@@QAEXPAVC_Window@@@Z	; ACMIView::InitGraphics
PUBLIC	?ExitGraphics@ACMIView@@QAEHXZ			; ACMIView::ExitGraphics
PUBLIC	?GetObjectName@ACMIView@@QAEXPAVSimBaseClass@@PAD@Z ; ACMIView::GetObjectName
PUBLIC	?SetObjectName@ACMIView@@QAEXPAVSimBaseClass@@PAD@Z ; ACMIView::SetObjectName
PUBLIC	?SetListBoxID@ACMIView@@QAEPADHJ@Z		; ACMIView::SetListBoxID
PUBLIC	?ListBoxID@ACMIView@@QAEJHJ@Z			; ACMIView::ListBoxID
PUBLIC	?SetCameraObject@ACMIView@@QAEXH@Z		; ACMIView::SetCameraObject
PUBLIC	?SetTrackingObject@ACMIView@@QAEXH@Z		; ACMIView::SetTrackingObject
PUBLIC	?LoadTape@ACMIView@@QAEHPADH@Z			; ACMIView::LoadTape
PUBLIC	?UnloadTape@ACMIView@@QAEXH@Z			; ACMIView::UnloadTape
PUBLIC	?SetPannerXYZ@ACMIView@@QAEXMMM@Z		; ACMIView::SetPannerXYZ
PUBLIC	?SetPannerAzEl@ACMIView@@QAEXMM@Z		; ACMIView::SetPannerAzEl
PUBLIC	?ResetPanner@ACMIView@@QAEXXZ			; ACMIView::ResetPanner
PUBLIC	?Init@ACMIView@@QAEXXZ				; ACMIView::Init
PUBLIC	?SetupEntityUIMappings@ACMIView@@QAEXXZ		; ACMIView::SetupEntityUIMappings
PUBLIC	?DrawIDTags@ACMIView@@QAEXXZ			; ACMIView::DrawIDTags
PUBLIC	?StopGraphicsLoop@ACMIView@@QAEXXZ		; ACMIView::StopGraphicsLoop
PUBLIC	??$construct@PADAAPAD@?$_Wrap_alloc@V?$allocator@D@std@@@std@@QAEXPAPADAAPAD@Z ; std::_Wrap_alloc<std::allocator<char> >::construct<char *,char * &>
PUBLIC	??$destroy@PAD@?$_Wrap_alloc@V?$allocator@D@std@@@std@@QAEXPAPAD@Z ; std::_Wrap_alloc<std::allocator<char> >::destroy<char *>
PUBLIC	??$addressof@D@std@@YAPADAAD@Z			; std::addressof<char>
PUBLIC	??$_Allocate@D@std@@YAPADIPAD@Z			; std::_Allocate<char>
PUBLIC	??$forward@AAPAD@std@@YAAAPADAAPAD@Z		; std::forward<char * &>
PUBLIC	??$construct@PADAAPAD@?$allocator_traits@V?$allocator@D@std@@@std@@SAXAAV?$allocator@D@1@PAPADAAPAD@Z ; std::allocator_traits<std::allocator<char> >::construct<char *,char * &>
PUBLIC	??$destroy@PAD@?$allocator_traits@V?$allocator@D@std@@@std@@SAXAAV?$allocator@D@1@PAPAD@Z ; std::allocator_traits<std::allocator<char> >::destroy<char *>
PUBLIC	??$construct@PADAAPAD@?$allocator@D@std@@QAEXPAPADAAPAD@Z ; std::allocator<char>::construct<char *,char * &>
PUBLIC	??$destroy@PAD@?$allocator@D@std@@QAEXPAPAD@Z	; std::allocator<char>::destroy<char *>
PUBLIC	??_7error_category@std@@6B@			; std::error_category::`vftable'
PUBLIC	??_7_Generic_error_category@std@@6B@		; std::_Generic_error_category::`vftable'
PUBLIC	??_C@_07DCLBNMLN@generic?$AA@			; `string'
PUBLIC	??_C@_0O@BFJCFAAK@unknown?5error?$AA@		; `string'
PUBLIC	??_7_Iostream_error_category@std@@6B@		; std::_Iostream_error_category::`vftable'
PUBLIC	??_C@_08LLGCOLLL@iostream?$AA@			; `string'
PUBLIC	??_C@_0BG@PADBLCHM@iostream?5stream?5error?$AA@	; `string'
PUBLIC	??_7_System_error_category@std@@6B@		; std::_System_error_category::`vftable'
PUBLIC	??_C@_06FHFOAHML@system?$AA@			; `string'
PUBLIC	?_Generic_object@?$_Error_objects@H@std@@2V_Generic_error_category@2@A ; std::_Error_objects<int>::_Generic_object
PUBLIC	?_Iostream_object@?$_Error_objects@H@std@@2V_Iostream_error_category@2@A ; std::_Error_objects<int>::_Iostream_object
PUBLIC	?_System_object@?$_Error_objects@H@std@@2V_System_error_category@2@A ; std::_Error_objects<int>::_System_object
PUBLIC	?id@?$num_put@DV?$back_insert_iterator@V?$basic_string@DU?$char_traits@D@std@@V?$allocator@D@2@@std@@@std@@@std@@2V0locale@2@A ; std::num_put<char,std::back_insert_iterator<std::basic_string<char,std::char_traits<char>,std::allocator<char> > > >::id
PUBLIC	?id@?$num_put@_WV?$back_insert_iterator@V?$basic_string@_WU?$char_traits@_W@std@@V?$allocator@_W@2@@std@@@std@@@std@@2V0locale@2@A ; std::num_put<wchar_t,std::back_insert_iterator<std::basic_string<wchar_t,std::char_traits<wchar_t>,std::allocator<wchar_t> > > >::id
PUBLIC	??_7VirtualDisplay@@6B@				; VirtualDisplay::`vftable'
PUBLIC	??_7Render2D@@6B@				; Render2D::`vftable'
PUBLIC	??_7Render3D@@6B@				; Render3D::`vftable'
PUBLIC	??_7RenderOTW@@6B@				; RenderOTW::`vftable'
PUBLIC	??_7TViewPoint@@6B@				; TViewPoint::`vftable'
PUBLIC	??_7RViewPoint@@6B@				; RViewPoint::`vftable'
PUBLIC	??_C@_02DKCKIIND@?$CFs?$AA@			; `string'
PUBLIC	??_C@_05OPEIBKFE@?$CFd?5?$CFs?$AA@		; `string'
PUBLIC	??_C@_0DC@DAAKLOGB@InitACMIFile?$CI?$CJ?5?9?9?$DO?5Could?5not?5loa@ ; `string'
PUBLIC	??_C@_0N@PFGGEGHE@WireTile?4GIF?$AA@		; `string'
PUBLIC	?id@?$numpunct@D@std@@2V0locale@2@A		; std::numpunct<char>::id
PUBLIC	?id@?$numpunct@_W@std@@2V0locale@2@A		; std::numpunct<wchar_t>::id
PUBLIC	??_C@_0BI@CFPLBAOH@invalid?5string?5position?$AA@ ; `string'
PUBLIC	??_C@_0BA@JFNIOLAK@string?5too?5long?$AA@	; `string'
PUBLIC	??_R4error_category@std@@6B@			; std::error_category::`RTTI Complete Object Locator'
PUBLIC	??_R0?AVerror_category@std@@@8			; std::error_category `RTTI Type Descriptor'
PUBLIC	??_R3error_category@std@@8			; std::error_category::`RTTI Class Hierarchy Descriptor'
PUBLIC	??_R2error_category@std@@8			; std::error_category::`RTTI Base Class Array'
PUBLIC	??_R1A@?0A@EA@error_category@std@@8		; std::error_category::`RTTI Base Class Descriptor at (0,-1,0,64)'
PUBLIC	??_R4_Generic_error_category@std@@6B@		; std::_Generic_error_category::`RTTI Complete Object Locator'
PUBLIC	??_R0?AV_Generic_error_category@std@@@8		; std::_Generic_error_category `RTTI Type Descriptor'
PUBLIC	??_R3_Generic_error_category@std@@8		; std::_Generic_error_category::`RTTI Class Hierarchy Descriptor'
PUBLIC	??_R2_Generic_error_category@std@@8		; std::_Generic_error_category::`RTTI Base Class Array'
PUBLIC	??_R1A@?0A@EA@_Generic_error_category@std@@8	; std::_Generic_error_category::`RTTI Base Class Descriptor at (0,-1,0,64)'
PUBLIC	??_R4_Iostream_error_category@std@@6B@		; std::_Iostream_error_category::`RTTI Complete Object Locator'
PUBLIC	??_R0?AV_Iostream_error_category@std@@@8	; std::_Iostream_error_category `RTTI Type Descriptor'
PUBLIC	??_R3_Iostream_error_category@std@@8		; std::_Iostream_error_category::`RTTI Class Hierarchy Descriptor'
PUBLIC	??_R2_Iostream_error_category@std@@8		; std::_Iostream_error_category::`RTTI Base Class Array'
PUBLIC	??_R1A@?0A@EA@_Iostream_error_category@std@@8	; std::_Iostream_error_category::`RTTI Base Class Descriptor at (0,-1,0,64)'
PUBLIC	??_R4_System_error_category@std@@6B@		; std::_System_error_category::`RTTI Complete Object Locator'
PUBLIC	??_R0?AV_System_error_category@std@@@8		; std::_System_error_category `RTTI Type Descriptor'
PUBLIC	??_R3_System_error_category@std@@8		; std::_System_error_category::`RTTI Class Hierarchy Descriptor'
PUBLIC	??_R2_System_error_category@std@@8		; std::_System_error_category::`RTTI Base Class Array'
PUBLIC	??_R1A@?0A@EA@_System_error_category@std@@8	; std::_System_error_category::`RTTI Base Class Descriptor at (0,-1,0,64)'
PUBLIC	??_R4Render3D@@6B@				; Render3D::`RTTI Complete Object Locator'
PUBLIC	??_R0?AVRender3D@@@8				; Render3D `RTTI Type Descriptor'
PUBLIC	??_R3Render3D@@8				; Render3D::`RTTI Class Hierarchy Descriptor'
PUBLIC	??_R2Render3D@@8				; Render3D::`RTTI Base Class Array'
PUBLIC	??_R1A@?0A@EA@Render3D@@8			; Render3D::`RTTI Base Class Descriptor at (0,-1,0,64)'
PUBLIC	??_R1A@?0A@EA@Render2D@@8			; Render2D::`RTTI Base Class Descriptor at (0,-1,0,64)'
PUBLIC	??_R0?AVRender2D@@@8				; Render2D `RTTI Type Descriptor'
PUBLIC	??_R3Render2D@@8				; Render2D::`RTTI Class Hierarchy Descriptor'
PUBLIC	??_R2Render2D@@8				; Render2D::`RTTI Base Class Array'
PUBLIC	??_R1A@?0A@EA@VirtualDisplay@@8			; VirtualDisplay::`RTTI Base Class Descriptor at (0,-1,0,64)'
PUBLIC	??_R0?AVVirtualDisplay@@@8			; VirtualDisplay `RTTI Type Descriptor'
PUBLIC	??_R3VirtualDisplay@@8				; VirtualDisplay::`RTTI Class Hierarchy Descriptor'
PUBLIC	??_R2VirtualDisplay@@8				; VirtualDisplay::`RTTI Base Class Array'
PUBLIC	??_R4VirtualDisplay@@6B@			; VirtualDisplay::`RTTI Complete Object Locator'
PUBLIC	??_R4Render2D@@6B@				; Render2D::`RTTI Complete Object Locator'
PUBLIC	??_R4RenderOTW@@6B@				; RenderOTW::`RTTI Complete Object Locator'
PUBLIC	??_R0?AVRenderOTW@@@8				; RenderOTW `RTTI Type Descriptor'
PUBLIC	??_R3RenderOTW@@8				; RenderOTW::`RTTI Class Hierarchy Descriptor'
PUBLIC	??_R2RenderOTW@@8				; RenderOTW::`RTTI Base Class Array'
PUBLIC	??_R1A@?0A@EA@RenderOTW@@8			; RenderOTW::`RTTI Base Class Descriptor at (0,-1,0,64)'
PUBLIC	??_R4RViewPoint@@6B@				; RViewPoint::`RTTI Complete Object Locator'
PUBLIC	??_R0?AVRViewPoint@@@8				; RViewPoint `RTTI Type Descriptor'
PUBLIC	??_R3RViewPoint@@8				; RViewPoint::`RTTI Class Hierarchy Descriptor'
PUBLIC	??_R2RViewPoint@@8				; RViewPoint::`RTTI Base Class Array'
PUBLIC	??_R1A@?0A@EA@RViewPoint@@8			; RViewPoint::`RTTI Base Class Descriptor at (0,-1,0,64)'
PUBLIC	??_R1A@?0A@EA@TViewPoint@@8			; TViewPoint::`RTTI Base Class Descriptor at (0,-1,0,64)'
PUBLIC	??_R0?AVTViewPoint@@@8				; TViewPoint `RTTI Type Descriptor'
PUBLIC	??_R3TViewPoint@@8				; TViewPoint::`RTTI Class Hierarchy Descriptor'
PUBLIC	??_R2TViewPoint@@8				; TViewPoint::`RTTI Base Class Array'
PUBLIC	??_R4TViewPoint@@6B@				; TViewPoint::`RTTI Complete Object Locator'
PUBLIC	__real@00000000
PUBLIC	__real@3f000000
PUBLIC	__real@3f400000
PUBLIC	__real@3f800000
PUBLIC	__real@454cffae
PUBLIC	__real@47801fcd
PUBLIC	__real@47d6d800
PUBLIC	__real@4805ca00
PUBLIC	__real@bf800000
PUBLIC	__real@c66a6000
EXTRN	__purecall:PROC
EXTRN	??2@YAPAXI@Z:PROC				; operator new
EXTRN	??3@YAXPAX@Z:PROC				; operator delete
EXTRN	_atexit:PROC
EXTRN	_memcpy:PROC
EXTRN	_memset:PROC
EXTRN	_strcpy:PROC
EXTRN	_strlen:PROC
EXTRN	_memmove:PROC
EXTRN	__imp__Sleep@4:PROC
EXTRN	_sprintf:PROC
EXTRN	??_V@YAXPAX@Z:PROC				; operator delete[]
EXTRN	??_U@YAPAXI@Z:PROC				; operator new[]
EXTRN	?_Xbad_alloc@std@@YAXXZ:PROC			; std::_Xbad_alloc
EXTRN	?_Xlength_error@std@@YAXPBD@Z:PROC		; std::_Xlength_error
EXTRN	?_Xout_of_range@std@@YAXPBD@Z:PROC		; std::_Xout_of_range
EXTRN	??_Eerror_category@std@@UAEPAXI@Z:PROC		; std::error_category::`vector deleting destructor'
EXTRN	?_Syserror_map@std@@YAPBDH@Z:PROC		; std::_Syserror_map
EXTRN	?_Winerror_map@std@@YAPBDH@Z:PROC		; std::_Winerror_map
EXTRN	??_E_Generic_error_category@std@@UAEPAXI@Z:PROC	; std::_Generic_error_category::`vector deleting destructor'
EXTRN	??_E_Iostream_error_category@std@@UAEPAXI@Z:PROC ; std::_Iostream_error_category::`vector deleting destructor'
EXTRN	??_E_System_error_category@std@@UAEPAXI@Z:PROC	; std::_System_error_category::`vector deleting destructor'
EXTRN	??0ContextMPR@@QAE@XZ:PROC			; ContextMPR::ContextMPR
EXTRN	??1ContextMPR@@UAE@XZ:PROC			; ContextMPR::~ContextMPR
EXTRN	?SetState@ContextMPR@@QAEXGK@Z:PROC		; ContextMPR::SetState
EXTRN	?ClearBuffers@ContextMPR@@QAEXG@Z:PROC		; ContextMPR::ClearBuffers
EXTRN	?SelectForegroundColor@ContextMPR@@QAEXH@Z:PROC	; ContextMPR::SelectForegroundColor
EXTRN	?RestoreState@ContextMPR@@QAEXH@Z:PROC		; ContextMPR::RestoreState
EXTRN	??0Texture@@QAE@XZ:PROC				; Texture::Texture
EXTRN	??1Texture@@QAE@XZ:PROC				; Texture::~Texture
EXTRN	?LoadAndCreate@Texture@@QAEHPADK@Z:PROC		; Texture::LoadAndCreate
EXTRN	?FreeAll@Texture@@QAEXXZ:PROC			; Texture::FreeAll
EXTRN	?FreeImage@Texture@@QAEXXZ:PROC			; Texture::FreeImage
EXTRN	?Setup@VirtualDisplay@@UAEXXZ:PROC		; VirtualDisplay::Setup
EXTRN	?Cleanup@VirtualDisplay@@UAEXXZ:PROC		; VirtualDisplay::Cleanup
EXTRN	?Point@VirtualDisplay@@UAEXMM@Z:PROC		; VirtualDisplay::Point
EXTRN	?Line@VirtualDisplay@@UAEXMMMM@Z:PROC		; VirtualDisplay::Line
EXTRN	?Line@VirtualDisplay@@UAEXMMMMM@Z:PROC		; VirtualDisplay::Line
EXTRN	?Tri@VirtualDisplay@@UAEXMMMMMM@Z:PROC		; VirtualDisplay::Tri
EXTRN	?Oval@VirtualDisplay@@UAEXMMMM@Z:PROC		; VirtualDisplay::Oval
EXTRN	?OvalArc@VirtualDisplay@@UAEXMMMMMM@Z:PROC	; VirtualDisplay::OvalArc
EXTRN	?TextLeft@VirtualDisplay@@UAEXMMPBDH@Z:PROC	; VirtualDisplay::TextLeft
EXTRN	?TextRight@VirtualDisplay@@UAEXMMPBDH@Z:PROC	; VirtualDisplay::TextRight
EXTRN	?TextLeftVertical@VirtualDisplay@@UAEXMMPBDH@Z:PROC ; VirtualDisplay::TextLeftVertical
EXTRN	?TextRightVertical@VirtualDisplay@@UAEXMMPBDH@Z:PROC ; VirtualDisplay::TextRightVertical
EXTRN	?TextCenter@VirtualDisplay@@UAEXMMPBDH@Z:PROC	; VirtualDisplay::TextCenter
EXTRN	?TextCenterVertical@VirtualDisplay@@UAEXMMPBDH@Z:PROC ; VirtualDisplay::TextCenterVertical
EXTRN	?TextWrap@VirtualDisplay@@UAEHMMPBDMM@Z:PROC	; VirtualDisplay::TextWrap
EXTRN	?ScreenTextHeight@VirtualDisplay@@SAHXZ:PROC	; VirtualDisplay::ScreenTextHeight
EXTRN	?ScreenTextWidth@VirtualDisplay@@SAHPBD@Z:PROC	; VirtualDisplay::ScreenTextWidth
EXTRN	?SetViewport@VirtualDisplay@@UAEXMMMM@Z:PROC	; VirtualDisplay::SetViewport
EXTRN	?SetViewportRelative@VirtualDisplay@@UAEXMMMM@Z:PROC ; VirtualDisplay::SetViewportRelative
EXTRN	?Render2DTri@VirtualDisplay@@MAEXMMMMMM@Z:PROC	; VirtualDisplay::Render2DTri
EXTRN	??_EVirtualDisplay@@UAEPAXI@Z:PROC		; VirtualDisplay::`vector deleting destructor'
EXTRN	?Setup@Render2D@@UAEXPAVImageBuffer@@@Z:PROC	; Render2D::Setup
EXTRN	?Cleanup@Render2D@@UAEXXZ:PROC			; Render2D::Cleanup
EXTRN	?SetImageBuffer@Render2D@@UAEXPAVImageBuffer@@@Z:PROC ; Render2D::SetImageBuffer
EXTRN	?StartDraw@Render2D@@UAEXXZ:PROC		; Render2D::StartDraw
EXTRN	?EndDraw@Render2D@@UAEXXZ:PROC			; Render2D::EndDraw
EXTRN	?SetViewport@Render2D@@UAEXMMMM@Z:PROC		; Render2D::SetViewport
EXTRN	?Render2DPoint@Render2D@@UAEXMM@Z:PROC		; Render2D::Render2DPoint
EXTRN	?Render2DLine@Render2D@@UAEXMMMM@Z:PROC		; Render2D::Render2DLine
EXTRN	?Render2DTri@Render2D@@UAEXMMMMMM@Z:PROC	; Render2D::Render2DTri
EXTRN	?ScreenText@Render2D@@UAEXMMPBDH@Z:PROC		; Render2D::ScreenText
EXTRN	??_ERender2D@@UAEPAXI@Z:PROC			; Render2D::`vector deleting destructor'
EXTRN	?Setup@Render3D@@UAEXPAVImageBuffer@@@Z:PROC	; Render3D::Setup
EXTRN	?StartDraw@Render3D@@UAEXXZ:PROC		; Render3D::StartDraw
EXTRN	?SetObjectDetail@Render3D@@QAEXM@Z:PROC		; Render3D::SetObjectDetail
EXTRN	?SetViewport@Render3D@@UAEXMMMM@Z:PROC		; Render3D::SetViewport
EXTRN	?SetObjectTextureState@Render3D@@QAEXH@Z:PROC	; Render3D::SetObjectTextureState
EXTRN	??_ERender3D@@UAEPAXI@Z:PROC			; Render3D::`vector deleting destructor'
EXTRN	?Setup@RenderOTW@@UAEXPAVImageBuffer@@PAVRViewPoint@@@Z:PROC ; RenderOTW::Setup
EXTRN	?Cleanup@RenderOTW@@UAEXXZ:PROC			; RenderOTW::Cleanup
EXTRN	?StartDraw@RenderOTW@@UAEXXZ:PROC		; RenderOTW::StartDraw
EXTRN	?EndDraw@RenderOTW@@UAEXXZ:PROC			; RenderOTW::EndDraw
EXTRN	?SetupStates@RenderOTW@@IAEXXZ:PROC		; RenderOTW::SetupStates
EXTRN	?ComputeVertexColor@RenderOTW@@MAEXPAUTerrainVertex@@PAUTpost@@MMM@Z:PROC ; RenderOTW::ComputeVertexColor
EXTRN	?ProcessColor@RenderOTW@@MAEXPAUTcolor@@@Z:PROC	; RenderOTW::ProcessColor
EXTRN	?DrawSun@RenderOTW@@MAEXXZ:PROC			; RenderOTW::DrawSun
EXTRN	?DrawMoon@RenderOTW@@MAEXXZ:PROC		; RenderOTW::DrawMoon
EXTRN	?DrawStars@RenderOTW@@MAEXXZ:PROC		; RenderOTW::DrawStars
EXTRN	?ComputeHorizonEffect@RenderOTW@@MAEXPAUHorizonRecord@@@Z:PROC ; RenderOTW::ComputeHorizonEffect
EXTRN	?SetTimeOfDayColor@RenderOTW@@MAEXXZ:PROC	; RenderOTW::SetTimeOfDayColor
EXTRN	?AdjustSkyColor@RenderOTW@@MAEXXZ:PROC		; RenderOTW::AdjustSkyColor
EXTRN	??_ERenderOTW@@UAEPAXI@Z:PROC			; RenderOTW::`vector deleting destructor'
EXTRN	?Cleanup@TViewPoint@@UAEXXZ:PROC		; TViewPoint::Cleanup
EXTRN	??0ObjectDisplayList@@QAE@XZ:PROC		; ObjectDisplayList::ObjectDisplayList
EXTRN	??1ObjectDisplayList@@QAE@XZ:PROC		; ObjectDisplayList::~ObjectDisplayList
EXTRN	?Setup@RViewPoint@@QAEXMHH_N@Z:PROC		; RViewPoint::Setup
EXTRN	?Cleanup@RViewPoint@@UAEXXZ:PROC		; RViewPoint::Cleanup
EXTRN	_MonoPrint:PROC
EXTRN	??0ACMITape@@QAE@PADPAVRenderOTW@@PAVRViewPoint@@@Z:PROC ; ACMITape::ACMITape
EXTRN	??1ACMITape@@QAE@XZ:PROC			; ACMITape::~ACMITape
EXTRN	?GetSimTapeEntity@ACMITape@@QAEPAUSimTapeEntity@@H@Z:PROC ; ACMITape::GetSimTapeEntity
EXTRN	?InitUIVector@ACMIView@@QAEXXZ:PROC		; ACMIView::InitUIVector
EXTRN	?Setup@CDXVbManager@@QAEXPAUIDirect3D7@@@Z:PROC	; CDXVbManager::Setup
EXTRN	@__security_check_cookie@4:PROC
EXTRN	__CxxThrowException@8:PROC
EXTRN	___CxxFrameHandler3:PROC
EXTRN	?IMatrix@@3UTrotation@@B:BYTE			; IMatrix
EXTRN	??_7type_info@@6B@:QWORD			; type_info::`vftable'
EXTRN	?TheTerrTextures@@3VTextureDB@@A:BYTE		; TheTerrTextures
EXTRN	?drawLabels@DrawableBSP@@2HA:DWORD		; DrawableBSP::drawLabels
EXTRN	?drawHeading@DrawablePoled@@2HA:DWORD		; DrawablePoled::drawHeading
EXTRN	?drawAlt@DrawablePoled@@2HA:DWORD		; DrawablePoled::drawAlt
EXTRN	?drawSpeed@DrawablePoled@@2HA:DWORD		; DrawablePoled::drawSpeed
EXTRN	?drawTurnRadius@DrawablePoled@@2HA:DWORD	; DrawablePoled::drawTurnRadius
EXTRN	?drawTurnRate@DrawablePoled@@2HA:DWORD		; DrawablePoled::drawTurnRate
EXTRN	?drawPole@DrawablePoled@@2HA:DWORD		; DrawablePoled::drawPole
EXTRN	?drawlockrange@DrawablePoled@@2HA:DWORD		; DrawablePoled::drawlockrange
EXTRN	?drawLabels@DrawablePoint@@2HA:DWORD		; DrawablePoint::drawLabels
EXTRN	?PlayerOptions@@3VPlayerOptionsClass@@A:BYTE	; PlayerOptions
EXTRN	?DisplayOptions@@3VDisplayOptionsClass@@A:BYTE	; DisplayOptions
EXTRN	?TheVbManager@@3VCDXVbManager@@A:BYTE		; TheVbManager
EXTRN	?gMainHandler@@3PAVC_Handler@@A:DWORD		; gMainHandler
EXTRN	___security_cookie:DWORD
EXTRN	__fltused:DWORD
_BSS	SEGMENT
_piecewise_construct DB 01H DUP (?)
_allocator_arg DB 01H DUP (?)
_BSS	ENDS
;	COMDAT ?_Generic_object@?$_Error_objects@H@std@@2V_Generic_error_category@2@A
_BSS	SEGMENT
?_Generic_object@?$_Error_objects@H@std@@2V_Generic_error_category@2@A DD 01H DUP (?) ; std::_Error_objects<int>::_Generic_object
_BSS	ENDS
;	COMDAT ?_Iostream_object@?$_Error_objects@H@std@@2V_Iostream_error_category@2@A
_BSS	SEGMENT
?_Iostream_object@?$_Error_objects@H@std@@2V_Iostream_error_category@2@A DD 01H DUP (?) ; std::_Error_objects<int>::_Iostream_object
_BSS	ENDS
;	COMDAT ?_System_object@?$_Error_objects@H@std@@2V_System_error_category@2@A
_BSS	SEGMENT
?_System_object@?$_Error_objects@H@std@@2V_System_error_category@2@A DD 01H DUP (?) ; std::_Error_objects<int>::_System_object
_BSS	ENDS
;	COMDAT ?id@?$num_put@DV?$back_insert_iterator@V?$basic_string@DU?$char_traits@D@std@@V?$allocator@D@2@@std@@@std@@@std@@2V0locale@2@A
_BSS	SEGMENT
?id@?$num_put@DV?$back_insert_iterator@V?$basic_string@DU?$char_traits@D@std@@V?$allocator@D@2@@std@@@std@@@std@@2V0locale@2@A DD 01H DUP (?) ; std::num_put<char,std::back_insert_iterator<std::basic_string<char,std::char_traits<char>,std::allocator<char> > > >::id
_BSS	ENDS
;	COMDAT ?id@?$num_put@_WV?$back_insert_iterator@V?$basic_string@_WU?$char_traits@_W@std@@V?$allocator@_W@2@@std@@@std@@@std@@2V0locale@2@A
_BSS	SEGMENT
?id@?$num_put@_WV?$back_insert_iterator@V?$basic_string@_WU?$char_traits@_W@std@@V?$allocator@_W@2@@std@@@std@@@std@@2V0locale@2@A DD 01H DUP (?) ; std::num_put<wchar_t,std::back_insert_iterator<std::basic_string<wchar_t,std::char_traits<wchar_t>,std::allocator<wchar_t> > > >::id
_BSS	ENDS
;	COMDAT ?id@?$numpunct@D@std@@2V0locale@2@A
_BSS	SEGMENT
?id@?$numpunct@D@std@@2V0locale@2@A DD 01H DUP (?)	; std::numpunct<char>::id
_BSS	ENDS
;	COMDAT ?id@?$numpunct@_W@std@@2V0locale@2@A
_BSS	SEGMENT
?id@?$numpunct@_W@std@@2V0locale@2@A DD 01H DUP (?)	; std::numpunct<wchar_t>::id
_BSS	ENDS
CRT$XCU	SEGMENT
_piecewise_construct$initializer$ DD FLAT:??__Epiecewise_construct@std@@YAXXZ
CRT$XCU	ENDS
;	COMDAT __real@c66a6000
CONST	SEGMENT
__real@c66a6000 DD 0c66a6000r			; -15000
CONST	ENDS
;	COMDAT __real@bf800000
CONST	SEGMENT
__real@bf800000 DD 0bf800000r			; -1
CONST	ENDS
;	COMDAT __real@4805ca00
CONST	SEGMENT
__real@4805ca00 DD 04805ca00r			; 137000
CONST	ENDS
;	COMDAT __real@47d6d800
CONST	SEGMENT
__real@47d6d800 DD 047d6d800r			; 110000
CONST	ENDS
;	COMDAT __real@47801fcd
CONST	SEGMENT
__real@47801fcd DD 047801fcdr			; 65599.6
CONST	ENDS
;	COMDAT __real@454cffae
CONST	SEGMENT
__real@454cffae DD 0454cffaer			; 3279.98
CONST	ENDS
;	COMDAT __real@3f800000
CONST	SEGMENT
__real@3f800000 DD 03f800000r			; 1
CONST	ENDS
;	COMDAT __real@3f400000
CONST	SEGMENT
__real@3f400000 DD 03f400000r			; 0.75
CONST	ENDS
;	COMDAT __real@3f000000
CONST	SEGMENT
__real@3f000000 DD 03f000000r			; 0.5
CONST	ENDS
;	COMDAT __real@00000000
CONST	SEGMENT
__real@00000000 DD 000000000r			; 0
CONST	ENDS
;	COMDAT ??_R4TViewPoint@@6B@
rdata$r	SEGMENT
??_R4TViewPoint@@6B@ DD 00H				; TViewPoint::`RTTI Complete Object Locator'
	DD	00H
	DD	00H
	DD	FLAT:??_R0?AVTViewPoint@@@8
	DD	FLAT:??_R3TViewPoint@@8
rdata$r	ENDS
;	COMDAT ??_R2TViewPoint@@8
rdata$r	SEGMENT
??_R2TViewPoint@@8 DD FLAT:??_R1A@?0A@EA@TViewPoint@@8	; TViewPoint::`RTTI Base Class Array'
rdata$r	ENDS
;	COMDAT ??_R3TViewPoint@@8
rdata$r	SEGMENT
??_R3TViewPoint@@8 DD 00H				; TViewPoint::`RTTI Class Hierarchy Descriptor'
	DD	00H
	DD	01H
	DD	FLAT:??_R2TViewPoint@@8
rdata$r	ENDS
;	COMDAT ??_R0?AVTViewPoint@@@8
_DATA	SEGMENT
??_R0?AVTViewPoint@@@8 DD FLAT:??_7type_info@@6B@	; TViewPoint `RTTI Type Descriptor'
	DD	00H
	DB	'.?AVTViewPoint@@', 00H
_DATA	ENDS
;	COMDAT ??_R1A@?0A@EA@TViewPoint@@8
rdata$r	SEGMENT
??_R1A@?0A@EA@TViewPoint@@8 DD FLAT:??_R0?AVTViewPoint@@@8 ; TViewPoint::`RTTI Base Class Descriptor at (0,-1,0,64)'
	DD	00H
	DD	00H
	DD	0ffffffffH
	DD	00H
	DD	040H
	DD	FLAT:??_R3TViewPoint@@8
rdata$r	ENDS
;	COMDAT ??_R1A@?0A@EA@RViewPoint@@8
rdata$r	SEGMENT
??_R1A@?0A@EA@RViewPoint@@8 DD FLAT:??_R0?AVRViewPoint@@@8 ; RViewPoint::`RTTI Base Class Descriptor at (0,-1,0,64)'
	DD	01H
	DD	00H
	DD	0ffffffffH
	DD	00H
	DD	040H
	DD	FLAT:??_R3RViewPoint@@8
rdata$r	ENDS
;	COMDAT ??_R2RViewPoint@@8
rdata$r	SEGMENT
??_R2RViewPoint@@8 DD FLAT:??_R1A@?0A@EA@RViewPoint@@8	; RViewPoint::`RTTI Base Class Array'
	DD	FLAT:??_R1A@?0A@EA@TViewPoint@@8
rdata$r	ENDS
;	COMDAT ??_R3RViewPoint@@8
rdata$r	SEGMENT
??_R3RViewPoint@@8 DD 00H				; RViewPoint::`RTTI Class Hierarchy Descriptor'
	DD	00H
	DD	02H
	DD	FLAT:??_R2RViewPoint@@8
rdata$r	ENDS
;	COMDAT ??_R0?AVRViewPoint@@@8
_DATA	SEGMENT
??_R0?AVRViewPoint@@@8 DD FLAT:??_7type_info@@6B@	; RViewPoint `RTTI Type Descriptor'
	DD	00H
	DB	'.?AVRViewPoint@@', 00H
_DATA	ENDS
;	COMDAT ??_R4RViewPoint@@6B@
rdata$r	SEGMENT
??_R4RViewPoint@@6B@ DD 00H				; RViewPoint::`RTTI Complete Object Locator'
	DD	00H
	DD	00H
	DD	FLAT:??_R0?AVRViewPoint@@@8
	DD	FLAT:??_R3RViewPoint@@8
rdata$r	ENDS
;	COMDAT ??_R1A@?0A@EA@RenderOTW@@8
rdata$r	SEGMENT
??_R1A@?0A@EA@RenderOTW@@8 DD FLAT:??_R0?AVRenderOTW@@@8 ; RenderOTW::`RTTI Base Class Descriptor at (0,-1,0,64)'
	DD	03H
	DD	00H
	DD	0ffffffffH
	DD	00H
	DD	040H
	DD	FLAT:??_R3RenderOTW@@8
rdata$r	ENDS
;	COMDAT ??_R2RenderOTW@@8
rdata$r	SEGMENT
??_R2RenderOTW@@8 DD FLAT:??_R1A@?0A@EA@RenderOTW@@8	; RenderOTW::`RTTI Base Class Array'
	DD	FLAT:??_R1A@?0A@EA@Render3D@@8
	DD	FLAT:??_R1A@?0A@EA@Render2D@@8
	DD	FLAT:??_R1A@?0A@EA@VirtualDisplay@@8
rdata$r	ENDS
;	COMDAT ??_R3RenderOTW@@8
rdata$r	SEGMENT
??_R3RenderOTW@@8 DD 00H				; RenderOTW::`RTTI Class Hierarchy Descriptor'
	DD	00H
	DD	04H
	DD	FLAT:??_R2RenderOTW@@8
rdata$r	ENDS
;	COMDAT ??_R0?AVRenderOTW@@@8
_DATA	SEGMENT
??_R0?AVRenderOTW@@@8 DD FLAT:??_7type_info@@6B@	; RenderOTW `RTTI Type Descriptor'
	DD	00H
	DB	'.?AVRenderOTW@@', 00H
_DATA	ENDS
;	COMDAT ??_R4RenderOTW@@6B@
rdata$r	SEGMENT
??_R4RenderOTW@@6B@ DD 00H				; RenderOTW::`RTTI Complete Object Locator'
	DD	00H
	DD	00H
	DD	FLAT:??_R0?AVRenderOTW@@@8
	DD	FLAT:??_R3RenderOTW@@8
rdata$r	ENDS
;	COMDAT ??_R4Render2D@@6B@
rdata$r	SEGMENT
??_R4Render2D@@6B@ DD 00H				; Render2D::`RTTI Complete Object Locator'
	DD	00H
	DD	00H
	DD	FLAT:??_R0?AVRender2D@@@8
	DD	FLAT:??_R3Render2D@@8
rdata$r	ENDS
;	COMDAT ??_R4VirtualDisplay@@6B@
rdata$r	SEGMENT
??_R4VirtualDisplay@@6B@ DD 00H				; VirtualDisplay::`RTTI Complete Object Locator'
	DD	00H
	DD	00H
	DD	FLAT:??_R0?AVVirtualDisplay@@@8
	DD	FLAT:??_R3VirtualDisplay@@8
rdata$r	ENDS
;	COMDAT ??_R2VirtualDisplay@@8
rdata$r	SEGMENT
??_R2VirtualDisplay@@8 DD FLAT:??_R1A@?0A@EA@VirtualDisplay@@8 ; VirtualDisplay::`RTTI Base Class Array'
rdata$r	ENDS
;	COMDAT ??_R3VirtualDisplay@@8
rdata$r	SEGMENT
??_R3VirtualDisplay@@8 DD 00H				; VirtualDisplay::`RTTI Class Hierarchy Descriptor'
	DD	00H
	DD	01H
	DD	FLAT:??_R2VirtualDisplay@@8
rdata$r	ENDS
;	COMDAT ??_R0?AVVirtualDisplay@@@8
_DATA	SEGMENT
??_R0?AVVirtualDisplay@@@8 DD FLAT:??_7type_info@@6B@	; VirtualDisplay `RTTI Type Descriptor'
	DD	00H
	DB	'.?AVVirtualDisplay@@', 00H
_DATA	ENDS
;	COMDAT ??_R1A@?0A@EA@VirtualDisplay@@8
rdata$r	SEGMENT
??_R1A@?0A@EA@VirtualDisplay@@8 DD FLAT:??_R0?AVVirtualDisplay@@@8 ; VirtualDisplay::`RTTI Base Class Descriptor at (0,-1,0,64)'
	DD	00H
	DD	00H
	DD	0ffffffffH
	DD	00H
	DD	040H
	DD	FLAT:??_R3VirtualDisplay@@8
rdata$r	ENDS
;	COMDAT ??_R2Render2D@@8
rdata$r	SEGMENT
??_R2Render2D@@8 DD FLAT:??_R1A@?0A@EA@Render2D@@8	; Render2D::`RTTI Base Class Array'
	DD	FLAT:??_R1A@?0A@EA@VirtualDisplay@@8
rdata$r	ENDS
;	COMDAT ??_R3Render2D@@8
rdata$r	SEGMENT
??_R3Render2D@@8 DD 00H					; Render2D::`RTTI Class Hierarchy Descriptor'
	DD	00H
	DD	02H
	DD	FLAT:??_R2Render2D@@8
rdata$r	ENDS
;	COMDAT ??_R0?AVRender2D@@@8
_DATA	SEGMENT
??_R0?AVRender2D@@@8 DD FLAT:??_7type_info@@6B@		; Render2D `RTTI Type Descriptor'
	DD	00H
	DB	'.?AVRender2D@@', 00H
_DATA	ENDS
;	COMDAT ??_R1A@?0A@EA@Render2D@@8
rdata$r	SEGMENT
??_R1A@?0A@EA@Render2D@@8 DD FLAT:??_R0?AVRender2D@@@8	; Render2D::`RTTI Base Class Descriptor at (0,-1,0,64)'
	DD	01H
	DD	00H
	DD	0ffffffffH
	DD	00H
	DD	040H
	DD	FLAT:??_R3Render2D@@8
rdata$r	ENDS
;	COMDAT ??_R1A@?0A@EA@Render3D@@8
rdata$r	SEGMENT
??_R1A@?0A@EA@Render3D@@8 DD FLAT:??_R0?AVRender3D@@@8	; Render3D::`RTTI Base Class Descriptor at (0,-1,0,64)'
	DD	02H
	DD	00H
	DD	0ffffffffH
	DD	00H
	DD	040H
	DD	FLAT:??_R3Render3D@@8
rdata$r	ENDS
;	COMDAT ??_R2Render3D@@8
rdata$r	SEGMENT
??_R2Render3D@@8 DD FLAT:??_R1A@?0A@EA@Render3D@@8	; Render3D::`RTTI Base Class Array'
	DD	FLAT:??_R1A@?0A@EA@Render2D@@8
	DD	FLAT:??_R1A@?0A@EA@VirtualDisplay@@8
rdata$r	ENDS
;	COMDAT ??_R3Render3D@@8
rdata$r	SEGMENT
??_R3Render3D@@8 DD 00H					; Render3D::`RTTI Class Hierarchy Descriptor'
	DD	00H
	DD	03H
	DD	FLAT:??_R2Render3D@@8
rdata$r	ENDS
;	COMDAT ??_R0?AVRender3D@@@8
_DATA	SEGMENT
??_R0?AVRender3D@@@8 DD FLAT:??_7type_info@@6B@		; Render3D `RTTI Type Descriptor'
	DD	00H
	DB	'.?AVRender3D@@', 00H
_DATA	ENDS
;	COMDAT ??_R4Render3D@@6B@
rdata$r	SEGMENT
??_R4Render3D@@6B@ DD 00H				; Render3D::`RTTI Complete Object Locator'
	DD	00H
	DD	00H
	DD	FLAT:??_R0?AVRender3D@@@8
	DD	FLAT:??_R3Render3D@@8
rdata$r	ENDS
;	COMDAT ??_R1A@?0A@EA@_System_error_category@std@@8
rdata$r	SEGMENT
??_R1A@?0A@EA@_System_error_category@std@@8 DD FLAT:??_R0?AV_System_error_category@std@@@8 ; std::_System_error_category::`RTTI Base Class Descriptor at (0,-1,0,64)'
	DD	02H
	DD	00H
	DD	0ffffffffH
	DD	00H
	DD	040H
	DD	FLAT:??_R3_System_error_category@std@@8
rdata$r	ENDS
;	COMDAT ??_R2_System_error_category@std@@8
rdata$r	SEGMENT
??_R2_System_error_category@std@@8 DD FLAT:??_R1A@?0A@EA@_System_error_category@std@@8 ; std::_System_error_category::`RTTI Base Class Array'
	DD	FLAT:??_R1A@?0A@EA@_Generic_error_category@std@@8
	DD	FLAT:??_R1A@?0A@EA@error_category@std@@8
rdata$r	ENDS
;	COMDAT ??_R3_System_error_category@std@@8
rdata$r	SEGMENT
??_R3_System_error_category@std@@8 DD 00H		; std::_System_error_category::`RTTI Class Hierarchy Descriptor'
	DD	00H
	DD	03H
	DD	FLAT:??_R2_System_error_category@std@@8
rdata$r	ENDS
;	COMDAT ??_R0?AV_System_error_category@std@@@8
_DATA	SEGMENT
??_R0?AV_System_error_category@std@@@8 DD FLAT:??_7type_info@@6B@ ; std::_System_error_category `RTTI Type Descriptor'
	DD	00H
	DB	'.?AV_System_error_category@std@@', 00H
_DATA	ENDS
;	COMDAT ??_R4_System_error_category@std@@6B@
rdata$r	SEGMENT
??_R4_System_error_category@std@@6B@ DD 00H		; std::_System_error_category::`RTTI Complete Object Locator'
	DD	00H
	DD	00H
	DD	FLAT:??_R0?AV_System_error_category@std@@@8
	DD	FLAT:??_R3_System_error_category@std@@8
rdata$r	ENDS
;	COMDAT ??_R1A@?0A@EA@_Iostream_error_category@std@@8
rdata$r	SEGMENT
??_R1A@?0A@EA@_Iostream_error_category@std@@8 DD FLAT:??_R0?AV_Iostream_error_category@std@@@8 ; std::_Iostream_error_category::`RTTI Base Class Descriptor at (0,-1,0,64)'
	DD	02H
	DD	00H
	DD	0ffffffffH
	DD	00H
	DD	040H
	DD	FLAT:??_R3_Iostream_error_category@std@@8
rdata$r	ENDS
;	COMDAT ??_R2_Iostream_error_category@std@@8
rdata$r	SEGMENT
??_R2_Iostream_error_category@std@@8 DD FLAT:??_R1A@?0A@EA@_Iostream_error_category@std@@8 ; std::_Iostream_error_category::`RTTI Base Class Array'
	DD	FLAT:??_R1A@?0A@EA@_Generic_error_category@std@@8
	DD	FLAT:??_R1A@?0A@EA@error_category@std@@8
rdata$r	ENDS
;	COMDAT ??_R3_Iostream_error_category@std@@8
rdata$r	SEGMENT
??_R3_Iostream_error_category@std@@8 DD 00H		; std::_Iostream_error_category::`RTTI Class Hierarchy Descriptor'
	DD	00H
	DD	03H
	DD	FLAT:??_R2_Iostream_error_category@std@@8
rdata$r	ENDS
;	COMDAT ??_R0?AV_Iostream_error_category@std@@@8
_DATA	SEGMENT
??_R0?AV_Iostream_error_category@std@@@8 DD FLAT:??_7type_info@@6B@ ; std::_Iostream_error_category `RTTI Type Descriptor'
	DD	00H
	DB	'.?AV_Iostream_error_category@std@@', 00H
_DATA	ENDS
;	COMDAT ??_R4_Iostream_error_category@std@@6B@
rdata$r	SEGMENT
??_R4_Iostream_error_category@std@@6B@ DD 00H		; std::_Iostream_error_category::`RTTI Complete Object Locator'
	DD	00H
	DD	00H
	DD	FLAT:??_R0?AV_Iostream_error_category@std@@@8
	DD	FLAT:??_R3_Iostream_error_category@std@@8
rdata$r	ENDS
;	COMDAT ??_R1A@?0A@EA@_Generic_error_category@std@@8
rdata$r	SEGMENT
??_R1A@?0A@EA@_Generic_error_category@std@@8 DD FLAT:??_R0?AV_Generic_error_category@std@@@8 ; std::_Generic_error_category::`RTTI Base Class Descriptor at (0,-1,0,64)'
	DD	01H
	DD	00H
	DD	0ffffffffH
	DD	00H
	DD	040H
	DD	FLAT:??_R3_Generic_error_category@std@@8
rdata$r	ENDS
;	COMDAT ??_R2_Generic_error_category@std@@8
rdata$r	SEGMENT
??_R2_Generic_error_category@std@@8 DD FLAT:??_R1A@?0A@EA@_Generic_error_category@std@@8 ; std::_Generic_error_category::`RTTI Base Class Array'
	DD	FLAT:??_R1A@?0A@EA@error_category@std@@8
rdata$r	ENDS
;	COMDAT ??_R3_Generic_error_category@std@@8
rdata$r	SEGMENT
??_R3_Generic_error_category@std@@8 DD 00H		; std::_Generic_error_category::`RTTI Class Hierarchy Descriptor'
	DD	00H
	DD	02H
	DD	FLAT:??_R2_Generic_error_category@std@@8
rdata$r	ENDS
;	COMDAT ??_R0?AV_Generic_error_category@std@@@8
_DATA	SEGMENT
??_R0?AV_Generic_error_category@std@@@8 DD FLAT:??_7type_info@@6B@ ; std::_Generic_error_category `RTTI Type Descriptor'
	DD	00H
	DB	'.?AV_Generic_error_category@std@@', 00H
_DATA	ENDS
;	COMDAT ??_R4_Generic_error_category@std@@6B@
rdata$r	SEGMENT
??_R4_Generic_error_category@std@@6B@ DD 00H		; std::_Generic_error_category::`RTTI Complete Object Locator'
	DD	00H
	DD	00H
	DD	FLAT:??_R0?AV_Generic_error_category@std@@@8
	DD	FLAT:??_R3_Generic_error_category@std@@8
rdata$r	ENDS
;	COMDAT ??_R1A@?0A@EA@error_category@std@@8
rdata$r	SEGMENT
??_R1A@?0A@EA@error_category@std@@8 DD FLAT:??_R0?AVerror_category@std@@@8 ; std::error_category::`RTTI Base Class Descriptor at (0,-1,0,64)'
	DD	00H
	DD	00H
	DD	0ffffffffH
	DD	00H
	DD	040H
	DD	FLAT:??_R3error_category@std@@8
rdata$r	ENDS
;	COMDAT ??_R2error_category@std@@8
rdata$r	SEGMENT
??_R2error_category@std@@8 DD FLAT:??_R1A@?0A@EA@error_category@std@@8 ; std::error_category::`RTTI Base Class Array'
rdata$r	ENDS
;	COMDAT ??_R3error_category@std@@8
rdata$r	SEGMENT
??_R3error_category@std@@8 DD 00H			; std::error_category::`RTTI Class Hierarchy Descriptor'
	DD	00H
	DD	01H
	DD	FLAT:??_R2error_category@std@@8
rdata$r	ENDS
;	COMDAT ??_R0?AVerror_category@std@@@8
_DATA	SEGMENT
??_R0?AVerror_category@std@@@8 DD FLAT:??_7type_info@@6B@ ; std::error_category `RTTI Type Descriptor'
	DD	00H
	DB	'.?AVerror_category@std@@', 00H
_DATA	ENDS
;	COMDAT ??_R4error_category@std@@6B@
rdata$r	SEGMENT
??_R4error_category@std@@6B@ DD 00H			; std::error_category::`RTTI Complete Object Locator'
	DD	00H
	DD	00H
	DD	FLAT:??_R0?AVerror_category@std@@@8
	DD	FLAT:??_R3error_category@std@@8
rdata$r	ENDS
;	COMDAT ??_C@_0BA@JFNIOLAK@string?5too?5long?$AA@
CONST	SEGMENT
??_C@_0BA@JFNIOLAK@string?5too?5long?$AA@ DB 'string too long', 00H ; `string'
CONST	ENDS
;	COMDAT ??_C@_0BI@CFPLBAOH@invalid?5string?5position?$AA@
CONST	SEGMENT
??_C@_0BI@CFPLBAOH@invalid?5string?5position?$AA@ DB 'invalid string posi'
	DB	'tion', 00H					; `string'
CONST	ENDS
;	COMDAT ??_C@_0N@PFGGEGHE@WireTile?4GIF?$AA@
CONST	SEGMENT
??_C@_0N@PFGGEGHE@WireTile?4GIF?$AA@ DB 'WireTile.GIF', 00H ; `string'
CONST	ENDS
;	COMDAT ??_C@_0DC@DAAKLOGB@InitACMIFile?$CI?$CJ?5?9?9?$DO?5Could?5not?5loa@
CONST	SEGMENT
??_C@_0DC@DAAKLOGB@InitACMIFile?$CI?$CJ?5?9?9?$DO?5Could?5not?5loa@ DB 'I'
	DB	'nitACMIFile() --> Could not load ACMI Tape: %s.', 0aH, 00H ; `string'
CONST	ENDS
;	COMDAT ??_C@_05OPEIBKFE@?$CFd?5?$CFs?$AA@
CONST	SEGMENT
??_C@_05OPEIBKFE@?$CFd?5?$CFs?$AA@ DB '%d %s', 00H	; `string'
CONST	ENDS
;	COMDAT ??_C@_02DKCKIIND@?$CFs?$AA@
CONST	SEGMENT
??_C@_02DKCKIIND@?$CFs?$AA@ DB '%s', 00H		; `string'
CONST	ENDS
;	COMDAT ??_7RViewPoint@@6B@
CONST	SEGMENT
??_7RViewPoint@@6B@ DD FLAT:??_R4RViewPoint@@6B@	; RViewPoint::`vftable'
	DD	FLAT:?Cleanup@RViewPoint@@UAEXXZ
CONST	ENDS
;	COMDAT ??_7TViewPoint@@6B@
CONST	SEGMENT
??_7TViewPoint@@6B@ DD FLAT:??_R4TViewPoint@@6B@	; TViewPoint::`vftable'
	DD	FLAT:?Cleanup@TViewPoint@@UAEXXZ
CONST	ENDS
;	COMDAT ??_7RenderOTW@@6B@
CONST	SEGMENT
??_7RenderOTW@@6B@ DD FLAT:??_R4RenderOTW@@6B@		; RenderOTW::`vftable'
	DD	FLAT:??_ERenderOTW@@UAEPAXI@Z
	DD	FLAT:?Setup@VirtualDisplay@@UAEXXZ
	DD	FLAT:?Cleanup@RenderOTW@@UAEXXZ
	DD	FLAT:?StartDraw@RenderOTW@@UAEXXZ
	DD	FLAT:?ClearDraw@Render2D@@UAEXXZ
	DD	FLAT:?EndDraw@RenderOTW@@UAEXXZ
	DD	FLAT:?Point@VirtualDisplay@@UAEXMM@Z
	DD	FLAT:?Line@VirtualDisplay@@UAEXMMMMM@Z
	DD	FLAT:?Line@VirtualDisplay@@UAEXMMMM@Z
	DD	FLAT:?Tri@VirtualDisplay@@UAEXMMMMMM@Z
	DD	FLAT:?Oval@VirtualDisplay@@UAEXMMMM@Z
	DD	FLAT:?OvalArc@VirtualDisplay@@UAEXMMMMMM@Z
	DD	FLAT:?Circle@VirtualDisplay@@UAEXMMM@Z
	DD	FLAT:?Arc@VirtualDisplay@@UAEXMMMMM@Z
	DD	FLAT:?TextLeft@VirtualDisplay@@UAEXMMPBDH@Z
	DD	FLAT:?TextRight@VirtualDisplay@@UAEXMMPBDH@Z
	DD	FLAT:?TextLeftVertical@VirtualDisplay@@UAEXMMPBDH@Z
	DD	FLAT:?TextRightVertical@VirtualDisplay@@UAEXMMPBDH@Z
	DD	FLAT:?TextCenter@VirtualDisplay@@UAEXMMPBDH@Z
	DD	FLAT:?TextCenterVertical@VirtualDisplay@@UAEXMMPBDH@Z
	DD	FLAT:?TextWrap@VirtualDisplay@@UAEHMMPBDMM@Z
	DD	FLAT:?TextWidth@VirtualDisplay@@UAEMPAD@Z
	DD	FLAT:?TextHeight@VirtualDisplay@@UAEMXZ
	DD	FLAT:?SetColor@Render2D@@UAEXK@Z
	DD	FLAT:?SetBackground@Render2D@@UAEXK@Z
	DD	FLAT:?ScreenText@Render2D@@UAEXMMPBDH@Z
	DD	FLAT:?SetLineStyle@Render2D@@UAEXH@Z
	DD	FLAT:?Color@Render2D@@UAEKXZ
	DD	FLAT:?SetViewport@Render3D@@UAEXMMMM@Z
	DD	FLAT:?SetViewportRelative@VirtualDisplay@@UAEXMMMM@Z
	DD	FLAT:?Render2DPoint@Render2D@@UAEXMM@Z
	DD	FLAT:?Render2DLine@Render2D@@UAEXMMMM@Z
	DD	FLAT:?Render2DTri@Render2D@@UAEXMMMMMM@Z
	DD	FLAT:?Setup@Render3D@@UAEXPAVImageBuffer@@@Z
	DD	FLAT:?SetImageBuffer@Render2D@@UAEXPAVImageBuffer@@@Z
	DD	FLAT:?ClearZBuffer@Render2D@@UAEXXZ
	DD	FLAT:?Setup@RenderOTW@@UAEXPAVImageBuffer@@PAVRViewPoint@@@Z
	DD	FLAT:?ComputeVertexColor@RenderOTW@@MAEXPAUTerrainVertex@@PAUTpost@@MMM@Z
	DD	FLAT:?ProcessColor@RenderOTW@@MAEXPAUTcolor@@@Z
	DD	FLAT:?DrawSun@RenderOTW@@MAEXXZ
	DD	FLAT:?DrawMoon@RenderOTW@@MAEXXZ
	DD	FLAT:?DrawStars@RenderOTW@@MAEXXZ
	DD	FLAT:?ComputeHorizonEffect@RenderOTW@@MAEXPAUHorizonRecord@@@Z
	DD	FLAT:?SetTimeOfDayColor@RenderOTW@@MAEXXZ
	DD	FLAT:?AdjustSkyColor@RenderOTW@@MAEXXZ
CONST	ENDS
;	COMDAT ??_7Render3D@@6B@
CONST	SEGMENT
??_7Render3D@@6B@ DD FLAT:??_R4Render3D@@6B@		; Render3D::`vftable'
	DD	FLAT:??_ERender3D@@UAEPAXI@Z
	DD	FLAT:?Setup@VirtualDisplay@@UAEXXZ
	DD	FLAT:?Cleanup@Render3D@@UAEXXZ
	DD	FLAT:?StartDraw@Render3D@@UAEXXZ
	DD	FLAT:?ClearDraw@Render2D@@UAEXXZ
	DD	FLAT:?EndDraw@Render2D@@UAEXXZ
	DD	FLAT:?Point@VirtualDisplay@@UAEXMM@Z
	DD	FLAT:?Line@VirtualDisplay@@UAEXMMMMM@Z
	DD	FLAT:?Line@VirtualDisplay@@UAEXMMMM@Z
	DD	FLAT:?Tri@VirtualDisplay@@UAEXMMMMMM@Z
	DD	FLAT:?Oval@VirtualDisplay@@UAEXMMMM@Z
	DD	FLAT:?OvalArc@VirtualDisplay@@UAEXMMMMMM@Z
	DD	FLAT:?Circle@VirtualDisplay@@UAEXMMM@Z
	DD	FLAT:?Arc@VirtualDisplay@@UAEXMMMMM@Z
	DD	FLAT:?TextLeft@VirtualDisplay@@UAEXMMPBDH@Z
	DD	FLAT:?TextRight@VirtualDisplay@@UAEXMMPBDH@Z
	DD	FLAT:?TextLeftVertical@VirtualDisplay@@UAEXMMPBDH@Z
	DD	FLAT:?TextRightVertical@VirtualDisplay@@UAEXMMPBDH@Z
	DD	FLAT:?TextCenter@VirtualDisplay@@UAEXMMPBDH@Z
	DD	FLAT:?TextCenterVertical@VirtualDisplay@@UAEXMMPBDH@Z
	DD	FLAT:?TextWrap@VirtualDisplay@@UAEHMMPBDMM@Z
	DD	FLAT:?TextWidth@VirtualDisplay@@UAEMPAD@Z
	DD	FLAT:?TextHeight@VirtualDisplay@@UAEMXZ
	DD	FLAT:?SetColor@Render2D@@UAEXK@Z
	DD	FLAT:?SetBackground@Render2D@@UAEXK@Z
	DD	FLAT:?ScreenText@Render2D@@UAEXMMPBDH@Z
	DD	FLAT:?SetLineStyle@Render2D@@UAEXH@Z
	DD	FLAT:?Color@Render2D@@UAEKXZ
	DD	FLAT:?SetViewport@Render3D@@UAEXMMMM@Z
	DD	FLAT:?SetViewportRelative@VirtualDisplay@@UAEXMMMM@Z
	DD	FLAT:?Render2DPoint@Render2D@@UAEXMM@Z
	DD	FLAT:?Render2DLine@Render2D@@UAEXMMMM@Z
	DD	FLAT:?Render2DTri@Render2D@@UAEXMMMMMM@Z
	DD	FLAT:?Setup@Render3D@@UAEXPAVImageBuffer@@@Z
	DD	FLAT:?SetImageBuffer@Render2D@@UAEXPAVImageBuffer@@@Z
	DD	FLAT:?ClearZBuffer@Render2D@@UAEXXZ
CONST	ENDS
;	COMDAT ??_7Render2D@@6B@
CONST	SEGMENT
??_7Render2D@@6B@ DD FLAT:??_R4Render2D@@6B@		; Render2D::`vftable'
	DD	FLAT:??_ERender2D@@UAEPAXI@Z
	DD	FLAT:?Setup@VirtualDisplay@@UAEXXZ
	DD	FLAT:?Cleanup@Render2D@@UAEXXZ
	DD	FLAT:?StartDraw@Render2D@@UAEXXZ
	DD	FLAT:?ClearDraw@Render2D@@UAEXXZ
	DD	FLAT:?EndDraw@Render2D@@UAEXXZ
	DD	FLAT:?Point@VirtualDisplay@@UAEXMM@Z
	DD	FLAT:?Line@VirtualDisplay@@UAEXMMMMM@Z
	DD	FLAT:?Line@VirtualDisplay@@UAEXMMMM@Z
	DD	FLAT:?Tri@VirtualDisplay@@UAEXMMMMMM@Z
	DD	FLAT:?Oval@VirtualDisplay@@UAEXMMMM@Z
	DD	FLAT:?OvalArc@VirtualDisplay@@UAEXMMMMMM@Z
	DD	FLAT:?Circle@VirtualDisplay@@UAEXMMM@Z
	DD	FLAT:?Arc@VirtualDisplay@@UAEXMMMMM@Z
	DD	FLAT:?TextLeft@VirtualDisplay@@UAEXMMPBDH@Z
	DD	FLAT:?TextRight@VirtualDisplay@@UAEXMMPBDH@Z
	DD	FLAT:?TextLeftVertical@VirtualDisplay@@UAEXMMPBDH@Z
	DD	FLAT:?TextRightVertical@VirtualDisplay@@UAEXMMPBDH@Z
	DD	FLAT:?TextCenter@VirtualDisplay@@UAEXMMPBDH@Z
	DD	FLAT:?TextCenterVertical@VirtualDisplay@@UAEXMMPBDH@Z
	DD	FLAT:?TextWrap@VirtualDisplay@@UAEHMMPBDMM@Z
	DD	FLAT:?TextWidth@VirtualDisplay@@UAEMPAD@Z
	DD	FLAT:?TextHeight@VirtualDisplay@@UAEMXZ
	DD	FLAT:?SetColor@Render2D@@UAEXK@Z
	DD	FLAT:?SetBackground@Render2D@@UAEXK@Z
	DD	FLAT:?ScreenText@Render2D@@UAEXMMPBDH@Z
	DD	FLAT:?SetLineStyle@Render2D@@UAEXH@Z
	DD	FLAT:?Color@Render2D@@UAEKXZ
	DD	FLAT:?SetViewport@Render2D@@UAEXMMMM@Z
	DD	FLAT:?SetViewportRelative@VirtualDisplay@@UAEXMMMM@Z
	DD	FLAT:?Render2DPoint@Render2D@@UAEXMM@Z
	DD	FLAT:?Render2DLine@Render2D@@UAEXMMMM@Z
	DD	FLAT:?Render2DTri@Render2D@@UAEXMMMMMM@Z
	DD	FLAT:?Setup@Render2D@@UAEXPAVImageBuffer@@@Z
	DD	FLAT:?SetImageBuffer@Render2D@@UAEXPAVImageBuffer@@@Z
	DD	FLAT:?ClearZBuffer@Render2D@@UAEXXZ
CONST	ENDS
;	COMDAT ??_7VirtualDisplay@@6B@
CONST	SEGMENT
??_7VirtualDisplay@@6B@ DD FLAT:??_R4VirtualDisplay@@6B@ ; VirtualDisplay::`vftable'
	DD	FLAT:??_EVirtualDisplay@@UAEPAXI@Z
	DD	FLAT:?Setup@VirtualDisplay@@UAEXXZ
	DD	FLAT:?Cleanup@VirtualDisplay@@UAEXXZ
	DD	FLAT:__purecall
	DD	FLAT:__purecall
	DD	FLAT:__purecall
	DD	FLAT:?Point@VirtualDisplay@@UAEXMM@Z
	DD	FLAT:?Line@VirtualDisplay@@UAEXMMMMM@Z
	DD	FLAT:?Line@VirtualDisplay@@UAEXMMMM@Z
	DD	FLAT:?Tri@VirtualDisplay@@UAEXMMMMMM@Z
	DD	FLAT:?Oval@VirtualDisplay@@UAEXMMMM@Z
	DD	FLAT:?OvalArc@VirtualDisplay@@UAEXMMMMMM@Z
	DD	FLAT:?Circle@VirtualDisplay@@UAEXMMM@Z
	DD	FLAT:?Arc@VirtualDisplay@@UAEXMMMMM@Z
	DD	FLAT:?TextLeft@VirtualDisplay@@UAEXMMPBDH@Z
	DD	FLAT:?TextRight@VirtualDisplay@@UAEXMMPBDH@Z
	DD	FLAT:?TextLeftVertical@VirtualDisplay@@UAEXMMPBDH@Z
	DD	FLAT:?TextRightVertical@VirtualDisplay@@UAEXMMPBDH@Z
	DD	FLAT:?TextCenter@VirtualDisplay@@UAEXMMPBDH@Z
	DD	FLAT:?TextCenterVertical@VirtualDisplay@@UAEXMMPBDH@Z
	DD	FLAT:?TextWrap@VirtualDisplay@@UAEHMMPBDMM@Z
	DD	FLAT:?TextWidth@VirtualDisplay@@UAEMPAD@Z
	DD	FLAT:?TextHeight@VirtualDisplay@@UAEMXZ
	DD	FLAT:__purecall
	DD	FLAT:__purecall
	DD	FLAT:__purecall
	DD	FLAT:?SetLineStyle@VirtualDisplay@@UAEXH@Z
	DD	FLAT:?Color@VirtualDisplay@@UAEKXZ
	DD	FLAT:?SetViewport@VirtualDisplay@@UAEXMMMM@Z
	DD	FLAT:?SetViewportRelative@VirtualDisplay@@UAEXMMMM@Z
	DD	FLAT:__purecall
	DD	FLAT:__purecall
	DD	FLAT:?Render2DTri@VirtualDisplay@@MAEXMMMMMM@Z
CONST	ENDS
;	COMDAT ??_C@_06FHFOAHML@system?$AA@
CONST	SEGMENT
??_C@_06FHFOAHML@system?$AA@ DB 'system', 00H		; `string'
CONST	ENDS
;	COMDAT ??_7_System_error_category@std@@6B@
CONST	SEGMENT
??_7_System_error_category@std@@6B@ DD FLAT:??_R4_System_error_category@std@@6B@ ; std::_System_error_category::`vftable'
	DD	FLAT:??_E_System_error_category@std@@UAEPAXI@Z
	DD	FLAT:?name@_System_error_category@std@@UBEPBDXZ
	DD	FLAT:?message@_System_error_category@std@@UBE?AV?$basic_string@DU?$char_traits@D@std@@V?$allocator@D@2@@2@H@Z
	DD	FLAT:?default_error_condition@_System_error_category@std@@UBE?AVerror_condition@2@H@Z
	DD	FLAT:?equivalent@error_category@std@@UBE_NABVerror_code@2@H@Z
	DD	FLAT:?equivalent@error_category@std@@UBE_NHABVerror_condition@2@@Z
CONST	ENDS
;	COMDAT ??_C@_0BG@PADBLCHM@iostream?5stream?5error?$AA@
CONST	SEGMENT
??_C@_0BG@PADBLCHM@iostream?5stream?5error?$AA@ DB 'iostream stream error'
	DB	00H						; `string'
CONST	ENDS
;	COMDAT ??_C@_08LLGCOLLL@iostream?$AA@
CONST	SEGMENT
??_C@_08LLGCOLLL@iostream?$AA@ DB 'iostream', 00H	; `string'
CONST	ENDS
;	COMDAT ??_7_Iostream_error_category@std@@6B@
CONST	SEGMENT
??_7_Iostream_error_category@std@@6B@ DD FLAT:??_R4_Iostream_error_category@std@@6B@ ; std::_Iostream_error_category::`vftable'
	DD	FLAT:??_E_Iostream_error_category@std@@UAEPAXI@Z
	DD	FLAT:?name@_Iostream_error_category@std@@UBEPBDXZ
	DD	FLAT:?message@_Iostream_error_category@std@@UBE?AV?$basic_string@DU?$char_traits@D@std@@V?$allocator@D@2@@2@H@Z
	DD	FLAT:?default_error_condition@error_category@std@@UBE?AVerror_condition@2@H@Z
	DD	FLAT:?equivalent@error_category@std@@UBE_NABVerror_code@2@H@Z
	DD	FLAT:?equivalent@error_category@std@@UBE_NHABVerror_condition@2@@Z
CONST	ENDS
;	COMDAT ??_C@_0O@BFJCFAAK@unknown?5error?$AA@
CONST	SEGMENT
??_C@_0O@BFJCFAAK@unknown?5error?$AA@ DB 'unknown error', 00H ; `string'
CONST	ENDS
;	COMDAT ??_C@_07DCLBNMLN@generic?$AA@
CONST	SEGMENT
??_C@_07DCLBNMLN@generic?$AA@ DB 'generic', 00H		; `string'
CONST	ENDS
;	COMDAT ??_7_Generic_error_category@std@@6B@
CONST	SEGMENT
??_7_Generic_error_category@std@@6B@ DD FLAT:??_R4_Generic_error_category@std@@6B@ ; std::_Generic_error_category::`vftable'
	DD	FLAT:??_E_Generic_error_category@std@@UAEPAXI@Z
	DD	FLAT:?name@_Generic_error_category@std@@UBEPBDXZ
	DD	FLAT:?message@_Generic_error_category@std@@UBE?AV?$basic_string@DU?$char_traits@D@std@@V?$allocator@D@2@@2@H@Z
	DD	FLAT:?default_error_condition@error_category@std@@UBE?AVerror_condition@2@H@Z
	DD	FLAT:?equivalent@error_category@std@@UBE_NABVerror_code@2@H@Z
	DD	FLAT:?equivalent@error_category@std@@UBE_NHABVerror_condition@2@@Z
CONST	ENDS
;	COMDAT ??_7error_category@std@@6B@
CONST	SEGMENT
??_7error_category@std@@6B@ DD FLAT:??_R4error_category@std@@6B@ ; std::error_category::`vftable'
	DD	FLAT:??_Eerror_category@std@@UAEPAXI@Z
	DD	FLAT:__purecall
	DD	FLAT:__purecall
	DD	FLAT:?default_error_condition@error_category@std@@UBE?AVerror_condition@2@H@Z
	DD	FLAT:?equivalent@error_category@std@@UBE_NABVerror_code@2@H@Z
	DD	FLAT:?equivalent@error_category@std@@UBE_NHABVerror_condition@2@@Z
CONST	ENDS
;	COMDAT xdata$x
xdata$x	SEGMENT
__unwindtable$??$construct@PADAAPAD@?$allocator@D@std@@QAEXPAPADAAPAD@Z DD 0ffffffffH
	DD	FLAT:__unwindfunclet$??$construct@PADAAPAD@?$allocator@D@std@@QAEXPAPADAAPAD@Z$0
__ehfuncinfo$??$construct@PADAAPAD@?$allocator@D@std@@QAEXPAPADAAPAD@Z DD 019930522H
	DD	01H
	DD	FLAT:__unwindtable$??$construct@PADAAPAD@?$allocator@D@std@@QAEXPAPADAAPAD@Z
	DD	2 DUP(00H)
	DD	2 DUP(00H)
	DD	00H
	DD	01H
xdata$x	ENDS
xdata$x	SEGMENT
__unwindtable$?LoadTape@ACMIView@@QAEHPADH@Z DD 0ffffffffH
	DD	FLAT:__unwindfunclet$?LoadTape@ACMIView@@QAEHPADH@Z$0
__unwindtable$??1ACMIView@@QAE@XZ DD 0ffffffffH
	DD	FLAT:__unwindfunclet$??1ACMIView@@QAE@XZ$0
__unwindtable$??0ACMIView@@QAE@XZ DD 0ffffffffH
	DD	FLAT:__unwindfunclet$??0ACMIView@@QAE@XZ$0
__unwindtable$?InitGraphics@ACMIView@@QAEXPAVC_Window@@@Z DD 0ffffffffH
	DD	FLAT:__unwindfunclet$?InitGraphics@ACMIView@@QAEXPAVC_Window@@@Z$0
	DD	0ffffffffH
	DD	FLAT:__unwindfunclet$?InitGraphics@ACMIView@@QAEXPAVC_Window@@@Z$1
	DD	0ffffffffH
	DD	FLAT:__unwindfunclet$?InitGraphics@ACMIView@@QAEXPAVC_Window@@@Z$2
__ehfuncinfo$?LoadTape@ACMIView@@QAEHPADH@Z DD 019930522H
	DD	01H
	DD	FLAT:__unwindtable$?LoadTape@ACMIView@@QAEHPADH@Z
	DD	2 DUP(00H)
	DD	2 DUP(00H)
	DD	00H
	DD	01H
__ehfuncinfo$?InitGraphics@ACMIView@@QAEXPAVC_Window@@@Z DD 019930522H
	DD	03H
	DD	FLAT:__unwindtable$?InitGraphics@ACMIView@@QAEXPAVC_Window@@@Z
	DD	2 DUP(00H)
	DD	2 DUP(00H)
	DD	00H
	DD	01H
__ehfuncinfo$??1ACMIView@@QAE@XZ DD 019930522H
	DD	01H
	DD	FLAT:__unwindtable$??1ACMIView@@QAE@XZ
	DD	2 DUP(00H)
	DD	2 DUP(00H)
	DD	00H
	DD	01H
__ehfuncinfo$??0ACMIView@@QAE@XZ DD 019930522H
	DD	01H
	DD	FLAT:__unwindtable$??0ACMIView@@QAE@XZ
	DD	2 DUP(00H)
	DD	2 DUP(00H)
	DD	00H
	DD	01H
xdata$x	ENDS
;	COMDAT xdata$x
xdata$x	SEGMENT
__ehfuncinfo$??1RViewPoint@@QAE@XZ DD 019930522H
	DD	06H
	DD	FLAT:__unwindtable$??1RViewPoint@@QAE@XZ
	DD	2 DUP(00H)
	DD	2 DUP(00H)
	DD	00H
	DD	01H
__unwindtable$??1RViewPoint@@QAE@XZ DD 0ffffffffH
	DD	FLAT:__unwindfunclet$??1RViewPoint@@QAE@XZ$0
	DD	00H
	DD	FLAT:__unwindfunclet$??1RViewPoint@@QAE@XZ$1
	DD	01H
	DD	FLAT:__unwindfunclet$??1RViewPoint@@QAE@XZ$2
	DD	02H
	DD	FLAT:__unwindfunclet$??1RViewPoint@@QAE@XZ$3
	DD	03H
	DD	FLAT:__unwindfunclet$??1RViewPoint@@QAE@XZ$4
	DD	04H
	DD	FLAT:__unwindfunclet$??1RViewPoint@@QAE@XZ$5
xdata$x	ENDS
;	COMDAT xdata$x
xdata$x	SEGMENT
__ehfuncinfo$??0RViewPoint@@QAE@XZ DD 019930522H
	DD	06H
	DD	FLAT:__unwindtable$??0RViewPoint@@QAE@XZ
	DD	2 DUP(00H)
	DD	2 DUP(00H)
	DD	00H
	DD	01H
__unwindtable$??0RViewPoint@@QAE@XZ DD 0ffffffffH
	DD	FLAT:__unwindfunclet$??0RViewPoint@@QAE@XZ$0
	DD	00H
	DD	FLAT:__unwindfunclet$??0RViewPoint@@QAE@XZ$1
	DD	01H
	DD	FLAT:__unwindfunclet$??0RViewPoint@@QAE@XZ$2
	DD	02H
	DD	FLAT:__unwindfunclet$??0RViewPoint@@QAE@XZ$3
	DD	03H
	DD	FLAT:__unwindfunclet$??0RViewPoint@@QAE@XZ$4
	DD	04H
	DD	FLAT:__unwindfunclet$??0RViewPoint@@QAE@XZ$5
xdata$x	ENDS
;	COMDAT xdata$x
xdata$x	SEGMENT
__unwindtable$??1RenderOTW@@UAE@XZ DD 0ffffffffH
	DD	FLAT:__unwindfunclet$??1RenderOTW@@UAE@XZ$0
	DD	00H
	DD	FLAT:__unwindfunclet$??1RenderOTW@@UAE@XZ$1
	DD	01H
	DD	FLAT:__unwindfunclet$??1RenderOTW@@UAE@XZ$2
	DD	02H
	DD	FLAT:__unwindfunclet$??1RenderOTW@@UAE@XZ$3
__ehfuncinfo$??1RenderOTW@@UAE@XZ DD 019930522H
	DD	04H
	DD	FLAT:__unwindtable$??1RenderOTW@@UAE@XZ
	DD	2 DUP(00H)
	DD	2 DUP(00H)
	DD	00H
	DD	01H
xdata$x	ENDS
;	COMDAT xdata$x
xdata$x	SEGMENT
__unwindtable$??0RenderOTW@@QAE@XZ DD 0ffffffffH
	DD	FLAT:__unwindfunclet$??0RenderOTW@@QAE@XZ$0
	DD	00H
	DD	FLAT:__unwindfunclet$??0RenderOTW@@QAE@XZ$1
	DD	01H
	DD	FLAT:__unwindfunclet$??0RenderOTW@@QAE@XZ$2
	DD	02H
	DD	FLAT:__unwindfunclet$??0RenderOTW@@QAE@XZ$3
__ehfuncinfo$??0RenderOTW@@QAE@XZ DD 019930522H
	DD	04H
	DD	FLAT:__unwindtable$??0RenderOTW@@QAE@XZ
	DD	2 DUP(00H)
	DD	2 DUP(00H)
	DD	00H
	DD	01H
xdata$x	ENDS
;	COMDAT xdata$x
xdata$x	SEGMENT
__catchsym$?_Copy@?$basic_string@DU?$char_traits@D@std@@V?$allocator@D@2@@std@@QAEXII@Z$5 DD 040H
	DD	00H
	DD	00H
	DD	FLAT:__catch$?_Copy@?$basic_string@DU?$char_traits@D@std@@V?$allocator@D@2@@std@@QAEXII@Z$0
__catchsym$?_Copy@?$basic_string@DU?$char_traits@D@std@@V?$allocator@D@2@@std@@QAEXII@Z$4 DD 040H
	DD	00H
	DD	00H
	DD	FLAT:__catch$?_Copy@?$basic_string@DU?$char_traits@D@std@@V?$allocator@D@2@@std@@QAEXII@Z$1
__unwindtable$?_Copy@?$basic_string@DU?$char_traits@D@std@@V?$allocator@D@2@@std@@QAEXII@Z DD 0ffffffffH
	DD	00H
	DD	0ffffffffH
	DD	00H
	DD	01H
	DD	00H
	DD	01H
	DD	00H
__ehfuncinfo$?_Copy@?$basic_string@DU?$char_traits@D@std@@V?$allocator@D@2@@std@@QAEXII@Z DD 019930522H
	DD	04H
	DD	FLAT:__unwindtable$?_Copy@?$basic_string@DU?$char_traits@D@std@@V?$allocator@D@2@@std@@QAEXII@Z
	DD	02H
	DD	FLAT:__tryblocktable$?_Copy@?$basic_string@DU?$char_traits@D@std@@V?$allocator@D@2@@std@@QAEXII@Z
	DD	2 DUP(00H)
	DD	00H
	DD	01H
__tryblocktable$?_Copy@?$basic_string@DU?$char_traits@D@std@@V?$allocator@D@2@@std@@QAEXII@Z DD 02H
	DD	02H
	DD	03H
	DD	01H
	DD	FLAT:__catchsym$?_Copy@?$basic_string@DU?$char_traits@D@std@@V?$allocator@D@2@@std@@QAEXII@Z$4
	DD	00H
	DD	00H
	DD	03H
	DD	01H
	DD	FLAT:__catchsym$?_Copy@?$basic_string@DU?$char_traits@D@std@@V?$allocator@D@2@@std@@QAEXII@Z$5
xdata$x	ENDS
CRT$XCU	SEGMENT
_allocator_arg$initializer$ DD FLAT:??__Eallocator_arg@std@@YAXXZ
CRT$XCU	ENDS
;	COMDAT CRT$XCU
CRT$XCU	SEGMENT
?_Generic_object$initializer$@?$_Error_objects@H@std@@2P6AXXZA DD FLAT:??__E?_Generic_object@?$_Error_objects@H@std@@2V_Generic_error_category@2@A@@YAXXZ ; std::_Error_objects<int>::_Generic_object$initializer$
CRT$XCU	ENDS
;	COMDAT CRT$XCU
CRT$XCU	SEGMENT
?_Iostream_object$initializer$@?$_Error_objects@H@std@@2P6AXXZA DD FLAT:??__E?_Iostream_object@?$_Error_objects@H@std@@2V_Iostream_error_category@2@A@@YAXXZ ; std::_Error_objects<int>::_Iostream_object$initializer$
CRT$XCU	ENDS
;	COMDAT CRT$XCU
CRT$XCU	SEGMENT
?_System_object$initializer$@?$_Error_objects@H@std@@2P6AXXZA DD FLAT:??__E?_System_object@?$_Error_objects@H@std@@2V_System_error_category@2@A@@YAXXZ ; std::_Error_objects<int>::_System_object$initializer$
CRT$XCU	ENDS
;	COMDAT CRT$XCU
CRT$XCU	SEGMENT
?id$initializer$@?$num_put@DV?$back_insert_iterator@V?$basic_string@DU?$char_traits@D@std@@V?$allocator@D@2@@std@@@std@@@std@@2P6AXXZA DD FLAT:??__E?id@?$num_put@DV?$back_insert_iterator@V?$basic_string@DU?$char_traits@D@std@@V?$allocator@D@2@@std@@@std@@@std@@2V0locale@2@A@@YAXXZ ; std::num_put<char,std::back_insert_iterator<std::basic_string<char,std::char_traits<char>,std::allocator<char> > > >::id$initializer$
CRT$XCU	ENDS
;	COMDAT CRT$XCU
CRT$XCU	SEGMENT
?id$initializer$@?$num_put@_WV?$back_insert_iterator@V?$basic_string@_WU?$char_traits@_W@std@@V?$allocator@_W@2@@std@@@std@@@std@@2P6AXXZA DD FLAT:??__E?id@?$num_put@_WV?$back_insert_iterator@V?$basic_string@_WU?$char_traits@_W@std@@V?$allocator@_W@2@@std@@@std@@@std@@2V0locale@2@A@@YAXXZ ; std::num_put<wchar_t,std::back_insert_iterator<std::basic_string<wchar_t,std::char_traits<wchar_t>,std::allocator<wchar_t> > > >::id$initializer$
CRT$XCU	ENDS
;	COMDAT CRT$XCU
CRT$XCU	SEGMENT
?id$initializer$@?$numpunct@D@std@@2P6AXXZA DD FLAT:??__E?id@?$numpunct@D@std@@2V0locale@2@A@@YAXXZ ; std::numpunct<char>::id$initializer$
CRT$XCU	ENDS
;	COMDAT CRT$XCU
CRT$XCU	SEGMENT
?id$initializer$@?$numpunct@_W@std@@2P6AXXZA DD FLAT:??__E?id@?$numpunct@_W@std@@2V0locale@2@A@@YAXXZ ; std::numpunct<wchar_t>::id$initializer$
CRT$XCU	ENDS
; Function compile flags: /Odtp
; File c:\program files (x86)\microsoft visual studio 11.0\vc\include\xmemory0
;	COMDAT ??$destroy@PAD@?$allocator@D@std@@QAEXPAPAD@Z
_TEXT	SEGMENT
_this$ = -4						; size = 4
__Ptr$ = 8						; size = 4
??$destroy@PAD@?$allocator@D@std@@QAEXPAPAD@Z PROC	; std::allocator<char>::destroy<char *>, COMDAT
; _this$ = ecx

; 621  : 		void destroy(_Uty *_Ptr)

	push	ebp
	mov	ebp, esp
	push	ecx
	mov	DWORD PTR _this$[ebp], ecx

; 622  : 		{	// destroy object at _Ptr
; 623  : 		_Ptr->~_Uty();
; 624  : 		}

	mov	esp, ebp
	pop	ebp
	ret	4
??$destroy@PAD@?$allocator@D@std@@QAEXPAPAD@Z ENDP	; std::allocator<char>::destroy<char *>
_TEXT	ENDS
; Function compile flags: /Odtp
; File c:\program files (x86)\microsoft visual studio 11.0\vc\include\xmemory0
;	COMDAT ??$construct@PADAAPAD@?$allocator@D@std@@QAEXPAPADAAPAD@Z
_TEXT	SEGMENT
$T2 = -28						; size = 4
_this$ = -24						; size = 4
tv73 = -20						; size = 4
$T3 = -16						; size = 4
__$EHRec$ = -12						; size = 12
__Ptr$ = 8						; size = 4
__V0$ = 12						; size = 4
??$construct@PADAAPAD@?$allocator@D@std@@QAEXPAPADAAPAD@Z PROC ; std::allocator<char>::construct<char *,char * &>, COMDAT
; _this$ = ecx

; 617  : _VARIADIC_EXPAND_0X(_ALLOC_MEMBER_CONSTRUCT, , , , )

	push	ebp
	mov	ebp, esp
	push	-1
	push	__ehhandler$??$construct@PADAAPAD@?$allocator@D@std@@QAEXPAPADAAPAD@Z
	mov	eax, DWORD PTR fs:0
	push	eax
	sub	esp, 16					; 00000010H
	mov	eax, DWORD PTR ___security_cookie
	xor	eax, ebp
	push	eax
	lea	eax, DWORD PTR __$EHRec$[ebp]
	mov	DWORD PTR fs:0, eax
	mov	DWORD PTR _this$[ebp], ecx
	mov	eax, DWORD PTR __Ptr$[ebp]
	push	eax
	push	4
	call	??2@YAPAXIPAX@Z				; operator new
	add	esp, 8
	mov	DWORD PTR $T3[ebp], eax
	mov	DWORD PTR __$EHRec$[ebp+8], 0
	cmp	DWORD PTR $T3[ebp], 0
	je	SHORT $LN3@construct
	mov	ecx, DWORD PTR __V0$[ebp]
	push	ecx
	call	??$forward@AAPAD@std@@YAAAPADAAPAD@Z	; std::forward<char * &>
	add	esp, 4
	mov	edx, DWORD PTR $T3[ebp]
	mov	eax, DWORD PTR [eax]
	mov	DWORD PTR [edx], eax
	mov	ecx, DWORD PTR $T3[ebp]
	mov	DWORD PTR tv73[ebp], ecx
	jmp	SHORT $LN4@construct
$LN3@construct:
	mov	DWORD PTR tv73[ebp], 0
$LN4@construct:
	mov	edx, DWORD PTR tv73[ebp]
	mov	DWORD PTR $T2[ebp], edx
	mov	DWORD PTR __$EHRec$[ebp+8], -1
	mov	ecx, DWORD PTR __$EHRec$[ebp]
	mov	DWORD PTR fs:0, ecx
	pop	ecx
	mov	esp, ebp
	pop	ebp
	ret	8
_TEXT	ENDS
;	COMDAT text$x
text$x	SEGMENT
__unwindfunclet$??$construct@PADAAPAD@?$allocator@D@std@@QAEXPAPADAAPAD@Z$0:
	mov	eax, DWORD PTR __Ptr$[ebp]
	push	eax
	mov	eax, DWORD PTR $T3[ebp]
	push	eax
	call	??3@YAXPAX0@Z				; operator delete
	add	esp, 8
	ret	0
__ehhandler$??$construct@PADAAPAD@?$allocator@D@std@@QAEXPAPADAAPAD@Z:
	mov	edx, DWORD PTR [esp+8]
	lea	eax, DWORD PTR [edx+12]
	mov	ecx, DWORD PTR [edx-20]
	xor	ecx, eax
	call	@__security_check_cookie@4
	mov	eax, OFFSET __ehfuncinfo$??$construct@PADAAPAD@?$allocator@D@std@@QAEXPAPADAAPAD@Z
	jmp	___CxxFrameHandler3
text$x	ENDS
??$construct@PADAAPAD@?$allocator@D@std@@QAEXPAPADAAPAD@Z ENDP ; std::allocator<char>::construct<char *,char * &>
; Function compile flags: /Odtp
; File c:\program files (x86)\microsoft visual studio 11.0\vc\include\xlocnum
;	COMDAT ??__E?id@?$numpunct@_W@std@@2V0locale@2@A@@YAXXZ
text$yc	SEGMENT
??__E?id@?$numpunct@_W@std@@2V0locale@2@A@@YAXXZ PROC	; `dynamic initializer for 'std::numpunct<wchar_t>::id'', COMDAT

; 155  : 		void _Getvals(wchar_t, const lconv *_Ptr, _Locinfo::_Cvtvec)

	push	ebp
	mov	ebp, esp
	push	0
	mov	ecx, OFFSET ?id@?$numpunct@_W@std@@2V0locale@2@A ; std::numpunct<wchar_t>::id
	call	??0id@locale@std@@QAE@I@Z		; std::locale::id::id
	pop	ebp
	ret	0
??__E?id@?$numpunct@_W@std@@2V0locale@2@A@@YAXXZ ENDP	; `dynamic initializer for 'std::numpunct<wchar_t>::id''
text$yc	ENDS
; Function compile flags: /Odtp
; File c:\program files (x86)\microsoft visual studio 11.0\vc\include\xlocnum
;	COMDAT ??__E?id@?$numpunct@D@std@@2V0locale@2@A@@YAXXZ
text$yc	SEGMENT
??__E?id@?$numpunct@D@std@@2V0locale@2@A@@YAXXZ PROC	; `dynamic initializer for 'std::numpunct<char>::id'', COMDAT

; 155  : 		void _Getvals(wchar_t, const lconv *_Ptr, _Locinfo::_Cvtvec)

	push	ebp
	mov	ebp, esp
	push	0
	mov	ecx, OFFSET ?id@?$numpunct@D@std@@2V0locale@2@A ; std::numpunct<char>::id
	call	??0id@locale@std@@QAE@I@Z		; std::locale::id::id
	pop	ebp
	ret	0
??__E?id@?$numpunct@D@std@@2V0locale@2@A@@YAXXZ ENDP	; `dynamic initializer for 'std::numpunct<char>::id''
text$yc	ENDS
; Function compile flags: /Odtp
; File c:\program files (x86)\microsoft visual studio 11.0\vc\include\xlocnum
;	COMDAT ??__E?id@?$num_put@_WV?$back_insert_iterator@V?$basic_string@_WU?$char_traits@_W@std@@V?$allocator@_W@2@@std@@@std@@@std@@2V0locale@2@A@@YAXXZ
text$yc	SEGMENT
??__E?id@?$num_put@_WV?$back_insert_iterator@V?$basic_string@_WU?$char_traits@_W@std@@V?$allocator@_W@2@@std@@@std@@@std@@2V0locale@2@A@@YAXXZ PROC ; `dynamic initializer for 'std::num_put<wchar_t,std::back_insert_iterator<std::basic_string<wchar_t,std::char_traits<wchar_t>,std::allocator<wchar_t> > > >::id'', COMDAT

; 155  : 		void _Getvals(wchar_t, const lconv *_Ptr, _Locinfo::_Cvtvec)

	push	ebp
	mov	ebp, esp
	push	0
	mov	ecx, OFFSET ?id@?$num_put@_WV?$back_insert_iterator@V?$basic_string@_WU?$char_traits@_W@std@@V?$allocator@_W@2@@std@@@std@@@std@@2V0locale@2@A ; std::num_put<wchar_t,std::back_insert_iterator<std::basic_string<wchar_t,std::char_traits<wchar_t>,std::allocator<wchar_t> > > >::id
	call	??0id@locale@std@@QAE@I@Z		; std::locale::id::id
	pop	ebp
	ret	0
??__E?id@?$num_put@_WV?$back_insert_iterator@V?$basic_string@_WU?$char_traits@_W@std@@V?$allocator@_W@2@@std@@@std@@@std@@2V0locale@2@A@@YAXXZ ENDP ; `dynamic initializer for 'std::num_put<wchar_t,std::back_insert_iterator<std::basic_string<wchar_t,std::char_traits<wchar_t>,std::allocator<wchar_t> > > >::id''
text$yc	ENDS
; Function compile flags: /Odtp
; File c:\program files (x86)\microsoft visual studio 11.0\vc\include\xlocnum
;	COMDAT ??__E?id@?$num_put@DV?$back_insert_iterator@V?$basic_string@DU?$char_traits@D@std@@V?$allocator@D@2@@std@@@std@@@std@@2V0locale@2@A@@YAXXZ
text$yc	SEGMENT
??__E?id@?$num_put@DV?$back_insert_iterator@V?$basic_string@DU?$char_traits@D@std@@V?$allocator@D@2@@std@@@std@@@std@@2V0locale@2@A@@YAXXZ PROC ; `dynamic initializer for 'std::num_put<char,std::back_insert_iterator<std::basic_string<char,std::char_traits<char>,std::allocator<char> > > >::id'', COMDAT

; 155  : 		void _Getvals(wchar_t, const lconv *_Ptr, _Locinfo::_Cvtvec)

	push	ebp
	mov	ebp, esp
	push	0
	mov	ecx, OFFSET ?id@?$num_put@DV?$back_insert_iterator@V?$basic_string@DU?$char_traits@D@std@@V?$allocator@D@2@@std@@@std@@@std@@2V0locale@2@A ; std::num_put<char,std::back_insert_iterator<std::basic_string<char,std::char_traits<char>,std::allocator<char> > > >::id
	call	??0id@locale@std@@QAE@I@Z		; std::locale::id::id
	pop	ebp
	ret	0
??__E?id@?$num_put@DV?$back_insert_iterator@V?$basic_string@DU?$char_traits@D@std@@V?$allocator@D@2@@std@@@std@@@std@@2V0locale@2@A@@YAXXZ ENDP ; `dynamic initializer for 'std::num_put<char,std::back_insert_iterator<std::basic_string<char,std::char_traits<char>,std::allocator<char> > > >::id''
text$yc	ENDS
; Function compile flags: /Odtp
; File c:\program files (x86)\microsoft visual studio 11.0\vc\include\xmemory0
;	COMDAT ??$destroy@PAD@?$allocator_traits@V?$allocator@D@std@@@std@@SAXAAV?$allocator@D@1@PAPAD@Z
_TEXT	SEGMENT
__Al$ = 8						; size = 4
__Ptr$ = 12						; size = 4
??$destroy@PAD@?$allocator_traits@V?$allocator@D@std@@@std@@SAXAAV?$allocator@D@1@PAPAD@Z PROC ; std::allocator_traits<std::allocator<char> >::destroy<char *>, COMDAT

; 755  : 		static void destroy(_Alloc& _Al, _Uty *_Ptr)

	push	ebp
	mov	ebp, esp

; 756  : 		{	// destroy object at _Ptr
; 757  : 		_Al.destroy(_Ptr);

	mov	eax, DWORD PTR __Ptr$[ebp]
	push	eax
	mov	ecx, DWORD PTR __Al$[ebp]
	call	??$destroy@PAD@?$allocator@D@std@@QAEXPAPAD@Z ; std::allocator<char>::destroy<char *>

; 758  : 		}

	pop	ebp
	ret	0
??$destroy@PAD@?$allocator_traits@V?$allocator@D@std@@@std@@SAXAAV?$allocator@D@1@PAPAD@Z ENDP ; std::allocator_traits<std::allocator<char> >::destroy<char *>
_TEXT	ENDS
; Function compile flags: /Odtp
; File c:\program files (x86)\microsoft visual studio 11.0\vc\include\xmemory0
;	COMDAT ??$construct@PADAAPAD@?$allocator_traits@V?$allocator@D@std@@@std@@SAXAAV?$allocator@D@1@PAPADAAPAD@Z
_TEXT	SEGMENT
__Al$ = 8						; size = 4
__Ptr$ = 12						; size = 4
__V0$ = 16						; size = 4
??$construct@PADAAPAD@?$allocator_traits@V?$allocator@D@std@@@std@@SAXAAV?$allocator@D@1@PAPADAAPAD@Z PROC ; std::allocator_traits<std::allocator<char> >::construct<char *,char * &>, COMDAT

; 751  : _VARIADIC_EXPAND_0X(_ALLOC_TRAITS_SPECIAL_CONSTRUCT, , , , )

	push	ebp
	mov	ebp, esp
	mov	eax, DWORD PTR __V0$[ebp]
	push	eax
	call	??$forward@AAPAD@std@@YAAAPADAAPAD@Z	; std::forward<char * &>
	add	esp, 4
	push	eax
	mov	ecx, DWORD PTR __Ptr$[ebp]
	push	ecx
	mov	ecx, DWORD PTR __Al$[ebp]
	call	??$construct@PADAAPAD@?$allocator@D@std@@QAEXPAPADAAPAD@Z ; std::allocator<char>::construct<char *,char * &>
	pop	ebp
	ret	0
??$construct@PADAAPAD@?$allocator_traits@V?$allocator@D@std@@@std@@SAXAAV?$allocator@D@1@PAPADAAPAD@Z ENDP ; std::allocator_traits<std::allocator<char> >::construct<char *,char * &>
_TEXT	ENDS
; Function compile flags: /Odtp
; File c:\program files (x86)\microsoft visual studio 11.0\vc\include\type_traits
;	COMDAT ??$forward@AAPAD@std@@YAAAPADAAPAD@Z
_TEXT	SEGMENT
__Arg$ = 8						; size = 4
??$forward@AAPAD@std@@YAAAPADAAPAD@Z PROC		; std::forward<char * &>, COMDAT

; 1775 : 	{	// forward an lvalue

	push	ebp
	mov	ebp, esp

; 1776 : 	return (static_cast<_Ty&&>(_Arg));

	mov	eax, DWORD PTR __Arg$[ebp]

; 1777 : 	}

	pop	ebp
	ret	0
??$forward@AAPAD@std@@YAAAPADAAPAD@Z ENDP		; std::forward<char * &>
_TEXT	ENDS
; Function compile flags: /Odtp
;	COMDAT ??__F?_System_object@?$_Error_objects@H@std@@2V_System_error_category@2@A@@YAXXZ
text$yd	SEGMENT
??__F?_System_object@?$_Error_objects@H@std@@2V_System_error_category@2@A@@YAXXZ PROC ; `dynamic atexit destructor for 'std::_Error_objects<int>::_System_object'', COMDAT
	push	ebp
	mov	ebp, esp
	mov	ecx, OFFSET ?_System_object@?$_Error_objects@H@std@@2V_System_error_category@2@A ; std::_Error_objects<int>::_System_object
	call	??1_System_error_category@std@@UAE@XZ
	pop	ebp
	ret	0
??__F?_System_object@?$_Error_objects@H@std@@2V_System_error_category@2@A@@YAXXZ ENDP ; `dynamic atexit destructor for 'std::_Error_objects<int>::_System_object''
text$yd	ENDS
; Function compile flags: /Odtp
; File c:\program files (x86)\microsoft visual studio 11.0\vc\include\xmemory0
;	COMDAT ??__E?_System_object@?$_Error_objects@H@std@@2V_System_error_category@2@A@@YAXXZ
text$yc	SEGMENT
??__E?_System_object@?$_Error_objects@H@std@@2V_System_error_category@2@A@@YAXXZ PROC ; `dynamic initializer for 'std::_Error_objects<int>::_System_object'', COMDAT

; 627  : 		{	// estimate maximum array size

	push	ebp
	mov	ebp, esp
	mov	ecx, OFFSET ?_System_object@?$_Error_objects@H@std@@2V_System_error_category@2@A ; std::_Error_objects<int>::_System_object
	call	??0_System_error_category@std@@QAE@XZ	; std::_System_error_category::_System_error_category
	push	OFFSET ??__F?_System_object@?$_Error_objects@H@std@@2V_System_error_category@2@A@@YAXXZ ; `dynamic atexit destructor for 'std::_Error_objects<int>::_System_object''
	call	_atexit
	add	esp, 4
	pop	ebp
	ret	0
??__E?_System_object@?$_Error_objects@H@std@@2V_System_error_category@2@A@@YAXXZ ENDP ; `dynamic initializer for 'std::_Error_objects<int>::_System_object''
text$yc	ENDS
; Function compile flags: /Odtp
;	COMDAT ??__F?_Iostream_object@?$_Error_objects@H@std@@2V_Iostream_error_category@2@A@@YAXXZ
text$yd	SEGMENT
??__F?_Iostream_object@?$_Error_objects@H@std@@2V_Iostream_error_category@2@A@@YAXXZ PROC ; `dynamic atexit destructor for 'std::_Error_objects<int>::_Iostream_object'', COMDAT
	push	ebp
	mov	ebp, esp
	mov	ecx, OFFSET ?_Iostream_object@?$_Error_objects@H@std@@2V_Iostream_error_category@2@A ; std::_Error_objects<int>::_Iostream_object
	call	??1_Iostream_error_category@std@@UAE@XZ
	pop	ebp
	ret	0
??__F?_Iostream_object@?$_Error_objects@H@std@@2V_Iostream_error_category@2@A@@YAXXZ ENDP ; `dynamic atexit destructor for 'std::_Error_objects<int>::_Iostream_object''
text$yd	ENDS
; Function compile flags: /Odtp
; File c:\program files (x86)\microsoft visual studio 11.0\vc\include\xmemory0
;	COMDAT ??__E?_Iostream_object@?$_Error_objects@H@std@@2V_Iostream_error_category@2@A@@YAXXZ
text$yc	SEGMENT
??__E?_Iostream_object@?$_Error_objects@H@std@@2V_Iostream_error_category@2@A@@YAXXZ PROC ; `dynamic initializer for 'std::_Error_objects<int>::_Iostream_object'', COMDAT

; 627  : 		{	// estimate maximum array size

	push	ebp
	mov	ebp, esp
	mov	ecx, OFFSET ?_Iostream_object@?$_Error_objects@H@std@@2V_Iostream_error_category@2@A ; std::_Error_objects<int>::_Iostream_object
	call	??0_Iostream_error_category@std@@QAE@XZ	; std::_Iostream_error_category::_Iostream_error_category
	push	OFFSET ??__F?_Iostream_object@?$_Error_objects@H@std@@2V_Iostream_error_category@2@A@@YAXXZ ; `dynamic atexit destructor for 'std::_Error_objects<int>::_Iostream_object''
	call	_atexit
	add	esp, 4
	pop	ebp
	ret	0
??__E?_Iostream_object@?$_Error_objects@H@std@@2V_Iostream_error_category@2@A@@YAXXZ ENDP ; `dynamic initializer for 'std::_Error_objects<int>::_Iostream_object''
text$yc	ENDS
; Function compile flags: /Odtp
;	COMDAT ??__F?_Generic_object@?$_Error_objects@H@std@@2V_Generic_error_category@2@A@@YAXXZ
text$yd	SEGMENT
??__F?_Generic_object@?$_Error_objects@H@std@@2V_Generic_error_category@2@A@@YAXXZ PROC ; `dynamic atexit destructor for 'std::_Error_objects<int>::_Generic_object'', COMDAT
	push	ebp
	mov	ebp, esp
	mov	ecx, OFFSET ?_Generic_object@?$_Error_objects@H@std@@2V_Generic_error_category@2@A ; std::_Error_objects<int>::_Generic_object
	call	??1_Generic_error_category@std@@UAE@XZ
	pop	ebp
	ret	0
??__F?_Generic_object@?$_Error_objects@H@std@@2V_Generic_error_category@2@A@@YAXXZ ENDP ; `dynamic atexit destructor for 'std::_Error_objects<int>::_Generic_object''
text$yd	ENDS
; Function compile flags: /Odtp
; File c:\program files (x86)\microsoft visual studio 11.0\vc\include\xmemory0
;	COMDAT ??__E?_Generic_object@?$_Error_objects@H@std@@2V_Generic_error_category@2@A@@YAXXZ
text$yc	SEGMENT
??__E?_Generic_object@?$_Error_objects@H@std@@2V_Generic_error_category@2@A@@YAXXZ PROC ; `dynamic initializer for 'std::_Error_objects<int>::_Generic_object'', COMDAT

; 627  : 		{	// estimate maximum array size

	push	ebp
	mov	ebp, esp
	mov	ecx, OFFSET ?_Generic_object@?$_Error_objects@H@std@@2V_Generic_error_category@2@A ; std::_Error_objects<int>::_Generic_object
	call	??0_Generic_error_category@std@@QAE@XZ	; std::_Generic_error_category::_Generic_error_category
	push	OFFSET ??__F?_Generic_object@?$_Error_objects@H@std@@2V_Generic_error_category@2@A@@YAXXZ ; `dynamic atexit destructor for 'std::_Error_objects<int>::_Generic_object''
	call	_atexit
	add	esp, 4
	pop	ebp
	ret	0
??__E?_Generic_object@?$_Error_objects@H@std@@2V_Generic_error_category@2@A@@YAXXZ ENDP ; `dynamic initializer for 'std::_Error_objects<int>::_Generic_object''
text$yc	ENDS
; Function compile flags: /Odtp
; File c:\program files (x86)\microsoft visual studio 11.0\vc\include\xmemory0
;	COMDAT ??$_Allocate@D@std@@YAPADIPAD@Z
_TEXT	SEGMENT
__Ptr$ = -4						; size = 4
__Count$ = 8						; size = 4
___formal$ = 12						; size = 4
??$_Allocate@D@std@@YAPADIPAD@Z PROC			; std::_Allocate<char>, COMDAT

; 22   : 	{	// allocate storage for _Count elements of type _Ty

	push	ebp
	mov	ebp, esp
	push	ecx

; 23   : 	void *_Ptr = 0;

	mov	DWORD PTR __Ptr$[ebp], 0

; 24   : 
; 25   : 	if (_Count == 0)

	cmp	DWORD PTR __Count$[ebp], 0
	jne	SHORT $LN4@Allocate

; 26   : 		;
; 27   : 	else if (((size_t)(-1) / sizeof (_Ty) < _Count)

	jmp	SHORT $LN3@Allocate
$LN4@Allocate:

; 28   : 		|| (_Ptr = ::operator new(_Count * sizeof (_Ty))) == 0)

	cmp	DWORD PTR __Count$[ebp], -1
	ja	SHORT $LN1@Allocate
	mov	eax, DWORD PTR __Count$[ebp]
	push	eax
	call	??2@YAPAXI@Z				; operator new
	add	esp, 4
	mov	DWORD PTR __Ptr$[ebp], eax
	cmp	DWORD PTR __Ptr$[ebp], 0
	jne	SHORT $LN3@Allocate
$LN1@Allocate:

; 29   : 		_Xbad_alloc();	// report no memory

	call	?_Xbad_alloc@std@@YAXXZ			; std::_Xbad_alloc
$LN3@Allocate:

; 30   : 
; 31   : 	return ((_Ty *)_Ptr);

	mov	eax, DWORD PTR __Ptr$[ebp]
$LN6@Allocate:

; 32   : 	}

	mov	esp, ebp
	pop	ebp
	ret	0
??$_Allocate@D@std@@YAPADIPAD@Z ENDP			; std::_Allocate<char>
_TEXT	ENDS
; Function compile flags: /Odtp
; File c:\program files (x86)\microsoft visual studio 11.0\vc\include\xstddef
;	COMDAT ??$addressof@D@std@@YAPADAAD@Z
_TEXT	SEGMENT
__Val$ = 8						; size = 4
??$addressof@D@std@@YAPADAAD@Z PROC			; std::addressof<char>, COMDAT

; 85   : 	{	// return address of _Val

	push	ebp
	mov	ebp, esp

; 86   : 	return (reinterpret_cast<_Ty *>(
; 87   : 		(&const_cast<char&>(
; 88   : 		reinterpret_cast<const volatile char&>(_Val)))));

	mov	eax, DWORD PTR __Val$[ebp]

; 89   : 	}

	pop	ebp
	ret	0
??$addressof@D@std@@YAPADAAD@Z ENDP			; std::addressof<char>
_TEXT	ENDS
; Function compile flags: /Odtp
; File c:\program files (x86)\microsoft visual studio 11.0\vc\include\xmemory0
;	COMDAT ??$destroy@PAD@?$_Wrap_alloc@V?$allocator@D@std@@@std@@QAEXPAPAD@Z
_TEXT	SEGMENT
_this$ = -4						; size = 4
__Ptr$ = 8						; size = 4
??$destroy@PAD@?$_Wrap_alloc@V?$allocator@D@std@@@std@@QAEXPAPAD@Z PROC ; std::_Wrap_alloc<std::allocator<char> >::destroy<char *>, COMDAT
; _this$ = ecx

; 907  : 		void destroy(_Ty *_Ptr)

	push	ebp
	mov	ebp, esp
	push	ecx
	mov	DWORD PTR _this$[ebp], ecx

; 908  : 		{	// destroy object at _Ptr
; 909  : 		_Mytraits::destroy(*this, _Ptr);

	mov	eax, DWORD PTR __Ptr$[ebp]
	push	eax
	mov	ecx, DWORD PTR _this$[ebp]
	push	ecx
	call	??$destroy@PAD@?$allocator_traits@V?$allocator@D@std@@@std@@SAXAAV?$allocator@D@1@PAPAD@Z ; std::allocator_traits<std::allocator<char> >::destroy<char *>
	add	esp, 8

; 910  : 		}

	mov	esp, ebp
	pop	ebp
	ret	4
??$destroy@PAD@?$_Wrap_alloc@V?$allocator@D@std@@@std@@QAEXPAPAD@Z ENDP ; std::_Wrap_alloc<std::allocator<char> >::destroy<char *>
_TEXT	ENDS
; Function compile flags: /Odtp
; File c:\program files (x86)\microsoft visual studio 11.0\vc\include\xmemory0
;	COMDAT ??$construct@PADAAPAD@?$_Wrap_alloc@V?$allocator@D@std@@@std@@QAEXPAPADAAPAD@Z
_TEXT	SEGMENT
_this$ = -4						; size = 4
__Ptr$ = 8						; size = 4
__V0$ = 12						; size = 4
??$construct@PADAAPAD@?$_Wrap_alloc@V?$allocator@D@std@@@std@@QAEXPAPADAAPAD@Z PROC ; std::_Wrap_alloc<std::allocator<char> >::construct<char *,char * &>, COMDAT
; _this$ = ecx

; 903  : _VARIADIC_EXPAND_0X(_WRAP_ALLOC_CONSTRUCT, , , , )

	push	ebp
	mov	ebp, esp
	push	ecx
	mov	DWORD PTR _this$[ebp], ecx
	mov	eax, DWORD PTR __V0$[ebp]
	push	eax
	call	??$forward@AAPAD@std@@YAAAPADAAPAD@Z	; std::forward<char * &>
	add	esp, 4
	push	eax
	mov	ecx, DWORD PTR __Ptr$[ebp]
	push	ecx
	mov	edx, DWORD PTR _this$[ebp]
	push	edx
	call	??$construct@PADAAPAD@?$allocator_traits@V?$allocator@D@std@@@std@@SAXAAV?$allocator@D@1@PAPADAAPAD@Z ; std::allocator_traits<std::allocator<char> >::construct<char *,char * &>
	add	esp, 12					; 0000000cH
	mov	esp, ebp
	pop	ebp
	ret	8
??$construct@PADAAPAD@?$_Wrap_alloc@V?$allocator@D@std@@@std@@QAEXPAPADAAPAD@Z ENDP ; std::_Wrap_alloc<std::allocator<char> >::construct<char *,char * &>
_TEXT	ENDS
; Function compile flags: /Odtp
; File c:\users\zhitao li\documents\visual studio 2012\projects\freefalcon\acmi\src\acmiview.cpp
_TEXT	SEGMENT
tv145 = -28						; size = 4
$T1 = -24						; size = 4
tv93 = -20						; size = 4
$T2 = -16						; size = 4
$T3 = -12						; size = 4
$T4 = -8						; size = 4
_this$ = -4						; size = 4
?StopGraphicsLoop@ACMIView@@QAEXXZ PROC			; ACMIView::StopGraphicsLoop
; _this$ = ecx

; 576  : {

	push	ebp
	mov	ebp, esp
	sub	esp, 28					; 0000001cH
	mov	DWORD PTR _this$[ebp], ecx

; 577  : 	if(_isReady)

	mov	eax, DWORD PTR _this$[ebp]
	cmp	DWORD PTR [eax+328], 0
	je	$LN5@StopGraphi

; 578  : 	{
; 579  : 		_drawing = FALSE;

	mov	ecx, DWORD PTR _this$[ebp]
	mov	DWORD PTR [ecx+320], 0

; 580  : 		_drawingFinished = TRUE;

	mov	edx, DWORD PTR _this$[ebp]
	mov	DWORD PTR [edx+324], 1

; 581  : 
; 582  : 		// This really scares me.  What is this here?  Are we asking for a race condition???
; 583  : 		Sleep(100);

	push	100					; 00000064H
	call	DWORD PTR __imp__Sleep@4

; 584  : 
; 585  : 
; 586  : 		// Remove all references to the display device
; 587  : 		if(_renderer)

	mov	eax, DWORD PTR _this$[ebp]
	cmp	DWORD PTR [eax+276], 0
	je	SHORT $LN3@StopGraphi

; 588  : 		{
; 589  : 			_renderer->Cleanup();

	mov	ecx, DWORD PTR _this$[ebp]
	mov	edx, DWORD PTR [ecx+276]
	mov	eax, DWORD PTR _this$[ebp]
	mov	edx, DWORD PTR [edx]
	mov	ecx, DWORD PTR [eax+276]
	mov	eax, DWORD PTR [edx+8]
	call	eax

; 590  : 			delete _renderer;

	mov	ecx, DWORD PTR _this$[ebp]
	mov	edx, DWORD PTR [ecx+276]
	mov	DWORD PTR $T2[ebp], edx
	mov	eax, DWORD PTR $T2[ebp]
	mov	DWORD PTR $T4[ebp], eax
	cmp	DWORD PTR $T4[ebp], 0
	je	SHORT $LN7@StopGraphi
	push	1
	mov	ecx, DWORD PTR $T4[ebp]
	mov	edx, DWORD PTR [ecx]
	mov	ecx, DWORD PTR $T4[ebp]
	mov	eax, DWORD PTR [edx]
	call	eax
	mov	DWORD PTR tv93[ebp], eax
	jmp	SHORT $LN8@StopGraphi
$LN7@StopGraphi:
	mov	DWORD PTR tv93[ebp], 0
$LN8@StopGraphi:

; 591  : 			_renderer = NULL;

	mov	ecx, DWORD PTR _this$[ebp]
	mov	DWORD PTR [ecx+276], 0
$LN3@StopGraphi:

; 592  : 		}
; 593  : 
; 594  : 		if(_viewPoint)

	mov	edx, DWORD PTR _this$[ebp]
	cmp	DWORD PTR [edx+272], 0
	je	SHORT $LN2@StopGraphi

; 595  : 		{
; 596  : 			_viewPoint->Cleanup();

	mov	eax, DWORD PTR _this$[ebp]
	mov	ecx, DWORD PTR [eax+272]
	mov	edx, DWORD PTR _this$[ebp]
	mov	eax, DWORD PTR [ecx]
	mov	ecx, DWORD PTR [edx+272]
	mov	edx, DWORD PTR [eax]
	call	edx

; 597  : 			delete _viewPoint;

	mov	eax, DWORD PTR _this$[ebp]
	mov	ecx, DWORD PTR [eax+272]
	mov	DWORD PTR $T1[ebp], ecx
	mov	edx, DWORD PTR $T1[ebp]
	mov	DWORD PTR $T3[ebp], edx
	cmp	DWORD PTR $T3[ebp], 0
	je	SHORT $LN9@StopGraphi
	push	1
	mov	ecx, DWORD PTR $T3[ebp]
	call	??_GRViewPoint@@QAEPAXI@Z
	mov	DWORD PTR tv145[ebp], eax
	jmp	SHORT $LN10@StopGraphi
$LN9@StopGraphi:
	mov	DWORD PTR tv145[ebp], 0
$LN10@StopGraphi:

; 598  : 			_viewPoint = NULL;

	mov	eax, DWORD PTR _this$[ebp]
	mov	DWORD PTR [eax+272], 0
$LN2@StopGraphi:

; 599  : 		}
; 600  : 
; 601  : 
; 602  : 		// Get rid of our texture override
; 603  : 		if ( _doWireFrame )

	mov	ecx, DWORD PTR _this$[ebp]
	cmp	DWORD PTR [ecx+404], 0
	je	SHORT $LN1@StopGraphi

; 604  : 		{
; 605  : 			TheTerrTextures.SetOverrideTexture( NULL );

	push	0
	mov	ecx, OFFSET ?TheTerrTextures@@3VTextureDB@@A ; TheTerrTextures
	call	?SetOverrideTexture@TextureDB@@QAEXI@Z	; TextureDB::SetOverrideTexture

; 606  : 			wireTexture.FreeAll();

	mov	ecx, DWORD PTR _this$[ebp]
	add	ecx, 280				; 00000118H
	call	?FreeAll@Texture@@QAEXXZ		; Texture::FreeAll
$LN1@StopGraphi:

; 607  : 		}
; 608  : 
; 609  : 		_drawingFinished = TRUE;

	mov	edx, DWORD PTR _this$[ebp]
	mov	DWORD PTR [edx+324], 1

; 610  : 		_isReady = FALSE;

	mov	eax, DWORD PTR _this$[ebp]
	mov	DWORD PTR [eax+328], 0
$LN5@StopGraphi:

; 611  : 	}
; 612  : }

	mov	esp, ebp
	pop	ebp
	ret	0
?StopGraphicsLoop@ACMIView@@QAEXXZ ENDP			; ACMIView::StopGraphicsLoop
_TEXT	ENDS
; Function compile flags: /Odtp
; File c:\users\zhitao li\documents\visual studio 2012\projects\freefalcon\acmi\src\acmiview.cpp
_TEXT	SEGMENT
_this$ = -4						; size = 4
?DrawIDTags@ACMIView@@QAEXXZ PROC			; ACMIView::DrawIDTags
; _this$ = ecx

; 632  : {

	push	ebp
	mov	ebp, esp
	push	ecx
	mov	DWORD PTR _this$[ebp], ecx

; 633  : }

	mov	esp, ebp
	pop	ebp
	ret	0
?DrawIDTags@ACMIView@@QAEXXZ ENDP			; ACMIView::DrawIDTags
_TEXT	ENDS
; Function compile flags: /Odtp
; File c:\users\zhitao li\documents\visual studio 2012\projects\freefalcon\acmi\src\acmiview.cpp
_TEXT	SEGMENT
$T1 = -88						; size = 4
_e$ = -84						; size = 4
_numEntities$ = -80					; size = 4
_ep$ = -76						; size = 4
_i$ = -72						; size = 4
_this$ = -68						; size = 4
_tmpStr$ = -64						; size = 60
__$ArrayPad$ = -4					; size = 4
?SetupEntityUIMappings@ACMIView@@QAEXXZ PROC		; ACMIView::SetupEntityUIMappings
; _this$ = ecx

; 210  : {

	push	ebp
	mov	ebp, esp
	sub	esp, 88					; 00000058H
	mov	eax, DWORD PTR ___security_cookie
	xor	eax, ebp
	mov	DWORD PTR __$ArrayPad$[ebp], eax
	mov	DWORD PTR _this$[ebp], ecx

; 211  : 	int				
; 212  : 		i,
; 213  : 		numEntities;
; 214  : 
; 215  : 		// BING 3-21-98
; 216  : 	TCHAR tmpStr[60];
; 217  :  	SimTapeEntity *ep;
; 218  : 
; 219  : 	ACMIEntityData *e;
; 220  : 
; 221  : 
; 222  : //	_tape->_simTapeEntities[i].name;
; 223  : 				
; 224  : 	F4Assert(_entityUIMappings == NULL);
; 225  : 	F4Assert(_tape != NULL && _tape->IsLoaded());
; 226  : 
; 227  : 	numEntities = _tape->NumEntities();

	mov	eax, DWORD PTR _this$[ebp]
	mov	ecx, DWORD PTR [eax+348]
	call	?NumEntities@ACMITape@@QAEHXZ		; ACMITape::NumEntities
	mov	DWORD PTR _numEntities$[ebp], eax

; 228  : 	_entityUIMappings = new ACMIEntityUIMap[numEntities];

	xor	ecx, ecx
	mov	eax, DWORD PTR _numEntities$[ebp]
	mov	edx, 48					; 00000030H
	mul	edx
	seto	cl
	neg	ecx
	or	ecx, eax
	push	ecx
	call	??_U@YAPAXI@Z				; operator new[]
	add	esp, 4
	mov	DWORD PTR $T1[ebp], eax
	mov	eax, DWORD PTR _this$[ebp]
	mov	ecx, DWORD PTR $T1[ebp]
	mov	DWORD PTR [eax], ecx

; 229  : 	F4Assert(_entityUIMappings != NULL);
; 230  : 
; 231  : 	for(i = 0; i < numEntities; i++)

	mov	DWORD PTR _i$[ebp], 0
	jmp	SHORT $LN5@SetupEntit
$LN4@SetupEntit:
	mov	edx, DWORD PTR _i$[ebp]
	add	edx, 1
	mov	DWORD PTR _i$[ebp], edx
$LN5@SetupEntit:
	mov	eax, DWORD PTR _i$[ebp]
	cmp	eax, DWORD PTR _numEntities$[ebp]
	jge	$LN6@SetupEntit

; 232  : 	{
; 233  : 		_entityUIMappings[i].listboxId = -1;

	mov	ecx, DWORD PTR _i$[ebp]
	imul	ecx, 48					; 00000030H
	mov	edx, DWORD PTR _this$[ebp]
	mov	eax, DWORD PTR [edx]
	mov	DWORD PTR [eax+ecx], -1

; 234  : 		_entityUIMappings[i].menuId = -1;

	mov	ecx, DWORD PTR _i$[ebp]
	imul	ecx, 48					; 00000030H
	mov	edx, DWORD PTR _this$[ebp]
	mov	eax, DWORD PTR [edx]
	mov	DWORD PTR [eax+ecx+4], -1

; 235  : 		_entityUIMappings[i].name[0] = 0;

	mov	ecx, DWORD PTR _i$[ebp]
	imul	ecx, 48					; 00000030H
	mov	edx, DWORD PTR _this$[ebp]
	add	ecx, DWORD PTR [edx]
	mov	eax, 1
	imul	eax, 0
	mov	BYTE PTR [ecx+eax+8], 0

; 236  : 
; 237  : 		ep = Tape()->GetSimTapeEntity(i);

	mov	ecx, DWORD PTR _i$[ebp]
	push	ecx
	mov	ecx, DWORD PTR _this$[ebp]
	call	?Tape@ACMIView@@QAEPAVACMITape@@XZ	; ACMIView::Tape
	mov	ecx, eax
	call	?GetSimTapeEntity@ACMITape@@QAEPAUSimTapeEntity@@H@Z ; ACMITape::GetSimTapeEntity
	mov	DWORD PTR _ep$[ebp], eax

; 238  : 
; 239  : 		// we don't want to put chaff and flares into the list boxes
; 240  : 		if ( ep->flags & ( ENTITY_FLAG_CHAFF | ENTITY_FLAG_FLARE ) )

	mov	edx, DWORD PTR _ep$[ebp]
	mov	eax, DWORD PTR [edx+8]
	and	eax, 24					; 00000018H
	je	SHORT $LN2@SetupEntit

; 241  : 			continue;

	jmp	SHORT $LN4@SetupEntit
$LN2@SetupEntit:

; 242  : 
; 243  : 		GetObjectName(ep->objBase, _entityUIMappings[i].name);

	mov	ecx, DWORD PTR _i$[ebp]
	imul	ecx, 48					; 00000030H
	mov	edx, DWORD PTR _this$[ebp]
	mov	eax, DWORD PTR [edx]
	lea	ecx, DWORD PTR [eax+ecx+8]
	push	ecx
	mov	edx, DWORD PTR _ep$[ebp]
	mov	eax, DWORD PTR [edx]
	push	eax
	mov	ecx, DWORD PTR _this$[ebp]
	call	?GetObjectName@ACMIView@@QAEXPAVSimBaseClass@@PAD@Z ; ACMIView::GetObjectName

; 244  : 		if ( _entityUIMappings[i].name[0] == 0 )

	mov	ecx, DWORD PTR _i$[ebp]
	imul	ecx, 48					; 00000030H
	mov	edx, DWORD PTR _this$[ebp]
	mov	eax, DWORD PTR [edx]
	add	eax, ecx
	mov	ecx, 1
	imul	ecx, 0
	movsx	edx, BYTE PTR [eax+ecx+8]
	test	edx, edx
	jne	SHORT $LN1@SetupEntit

; 245  : 			continue;

	jmp	$LN4@SetupEntit
$LN1@SetupEntit:

; 246  : 
; 247  : 		e = Tape()->EntityData( i );

	mov	eax, DWORD PTR _i$[ebp]
	push	eax
	mov	ecx, DWORD PTR _this$[ebp]
	call	?Tape@ACMIView@@QAEPAVACMITape@@XZ	; ACMIView::Tape
	mov	ecx, eax
	call	?EntityData@ACMITape@@QAEPAUACMIEntityData@@H@Z ; ACMITape::EntityData
	mov	DWORD PTR _e$[ebp], eax

; 248  : 		sprintf (tmpStr, "%d %s",e->count, _entityUIMappings[i].name);

	mov	ecx, DWORD PTR _i$[ebp]
	imul	ecx, 48					; 00000030H
	mov	edx, DWORD PTR _this$[ebp]
	mov	eax, DWORD PTR [edx]
	lea	ecx, DWORD PTR [eax+ecx+8]
	push	ecx
	mov	edx, DWORD PTR _e$[ebp]
	mov	eax, DWORD PTR [edx+8]
	push	eax
	push	OFFSET ??_C@_05OPEIBKFE@?$CFd?5?$CFs?$AA@
	lea	ecx, DWORD PTR _tmpStr$[ebp]
	push	ecx
	call	_sprintf
	add	esp, 16					; 00000010H

; 249  : 		// Update the entityUIMappings...
; 250  : 		sprintf(_entityUIMappings[i].name,tmpStr);

	lea	edx, DWORD PTR _tmpStr$[ebp]
	push	edx
	mov	eax, DWORD PTR _i$[ebp]
	imul	eax, 48					; 00000030H
	mov	ecx, DWORD PTR _this$[ebp]
	mov	edx, DWORD PTR [ecx]
	lea	eax, DWORD PTR [edx+eax+8]
	push	eax
	call	_sprintf
	add	esp, 8

; 251  : 		((DrawableBSP*)(ep->objBase->drawPointer))->SetLabel (_entityUIMappings[i].name, ((DrawableBSP*)(ep->objBase->drawPointer))->LabelColor());

	mov	ecx, DWORD PTR _ep$[ebp]
	mov	edx, DWORD PTR [ecx]
	mov	ecx, DWORD PTR [edx+332]
	call	?LabelColor@DrawableBSP@@QAEKXZ		; DrawableBSP::LabelColor
	push	eax
	mov	eax, DWORD PTR _i$[ebp]
	imul	eax, 48					; 00000030H
	mov	ecx, DWORD PTR _this$[ebp]
	mov	edx, DWORD PTR [ecx]
	lea	eax, DWORD PTR [edx+eax+8]
	push	eax
	mov	ecx, DWORD PTR _ep$[ebp]
	mov	edx, DWORD PTR [ecx]
	mov	eax, DWORD PTR [edx+332]
	mov	ecx, DWORD PTR _ep$[ebp]
	mov	edx, DWORD PTR [ecx]
	mov	eax, DWORD PTR [eax]
	mov	ecx, DWORD PTR [edx+332]
	mov	edx, DWORD PTR [eax+8]
	call	edx

; 252  : 	}

	jmp	$LN4@SetupEntit
$LN6@SetupEntit:

; 253  : }

	mov	ecx, DWORD PTR __$ArrayPad$[ebp]
	xor	ecx, ebp
	call	@__security_check_cookie@4
	mov	esp, ebp
	pop	ebp
	ret	0
?SetupEntityUIMappings@ACMIView@@QAEXXZ ENDP		; ACMIView::SetupEntityUIMappings
_TEXT	ENDS
; Function compile flags: /Odtp
; File c:\users\zhitao li\documents\visual studio 2012\projects\freefalcon\acmi\src\acmiview.cpp
_TEXT	SEGMENT
_this$ = -4						; size = 4
?Init@ACMIView@@QAEXXZ PROC				; ACMIView::Init
; _this$ = ecx

; 102  : {

	push	ebp
	mov	ebp, esp
	push	ecx
	mov	DWORD PTR _this$[ebp], ecx

; 103  : 	StopGraphicsLoop();

	mov	ecx, DWORD PTR _this$[ebp]
	call	?StopGraphicsLoop@ACMIView@@QAEXXZ	; ACMIView::StopGraphicsLoop

; 104  : 	UnloadTape( FALSE );

	push	0
	mov	ecx, DWORD PTR _this$[ebp]
	call	?UnloadTape@ACMIView@@QAEXH@Z		; ACMIView::UnloadTape

; 105  : 
; 106  : 	_drawing = FALSE;

	mov	eax, DWORD PTR _this$[ebp]
	mov	DWORD PTR [eax+320], 0

; 107  : 	_drawingFinished = TRUE;

	mov	ecx, DWORD PTR _this$[ebp]
	mov	DWORD PTR [ecx+324], 1

; 108  : 	_viewPoint = NULL;

	mov	edx, DWORD PTR _this$[ebp]
	mov	DWORD PTR [edx+272], 0

; 109  : 	_renderer = NULL;

	mov	eax, DWORD PTR _this$[ebp]
	mov	DWORD PTR [eax+276], 0

; 110  : 
; 111  : 	_objectScale = 1.0F;

	mov	ecx, DWORD PTR _this$[ebp]
	movss	xmm0, DWORD PTR __real@3f800000
	movss	DWORD PTR [ecx+316], xmm0

; 112  : 
; 113  : 	//LRKLUDGE
; 114  : 	_doWeather = FALSE;

	mov	edx, DWORD PTR _this$[ebp]
	mov	DWORD PTR [edx+336], 0

; 115  : 
; 116  : 	memset(_fileName, 0, 40);

	push	40					; 00000028H
	push	0
	mov	eax, DWORD PTR _this$[ebp]
	add	eax, 8
	push	eax
	call	_memset
	add	esp, 12					; 0000000cH

; 117  : 	InitUIVector();

	mov	ecx, DWORD PTR _this$[ebp]
	call	?InitUIVector@ACMIView@@QAEXXZ		; ACMIView::InitUIVector

; 118  : }

	mov	esp, ebp
	pop	ebp
	ret	0
?Init@ACMIView@@QAEXXZ ENDP				; ACMIView::Init
_TEXT	ENDS
; Function compile flags: /Odtp
; File c:\users\zhitao li\documents\visual studio 2012\projects\freefalcon\acmi\src\acmiview.cpp
_TEXT	SEGMENT
_this$ = -4						; size = 4
?ResetPanner@ACMIView@@QAEXXZ PROC			; ACMIView::ResetPanner
; _this$ = ecx

; 653  : {

	push	ebp
	mov	ebp, esp
	push	ecx
	mov	DWORD PTR _this$[ebp], ecx

; 654  : 	_pannerAz = 0.0f;

	mov	eax, DWORD PTR _this$[ebp]
	movss	xmm0, DWORD PTR __real@00000000
	movss	DWORD PTR [eax+364], xmm0

; 655  : 	_pannerEl = 0.0f;

	mov	ecx, DWORD PTR _this$[ebp]
	movss	xmm0, DWORD PTR __real@00000000
	movss	DWORD PTR [ecx+368], xmm0

; 656  : 	_pannerX = 0.0f;

	mov	edx, DWORD PTR _this$[ebp]
	movss	xmm0, DWORD PTR __real@00000000
	movss	DWORD PTR [edx+352], xmm0

; 657  : 	_pannerY = 0.0f;

	mov	eax, DWORD PTR _this$[ebp]
	movss	xmm0, DWORD PTR __real@00000000
	movss	DWORD PTR [eax+356], xmm0

; 658  : 	_pannerZ = 0.0f;

	mov	ecx, DWORD PTR _this$[ebp]
	movss	xmm0, DWORD PTR __real@00000000
	movss	DWORD PTR [ecx+360], xmm0

; 659  : }

	mov	esp, ebp
	pop	ebp
	ret	0
?ResetPanner@ACMIView@@QAEXXZ ENDP			; ACMIView::ResetPanner
_TEXT	ENDS
; Function compile flags: /Odtp
; File c:\users\zhitao li\documents\visual studio 2012\projects\freefalcon\acmi\src\acmiview.cpp
_TEXT	SEGMENT
_this$ = -4						; size = 4
_az$ = 8						; size = 4
_el$ = 12						; size = 4
?SetPannerAzEl@ACMIView@@QAEXMM@Z PROC			; ACMIView::SetPannerAzEl
; _this$ = ecx

; 647  : {

	push	ebp
	mov	ebp, esp
	push	ecx
	mov	DWORD PTR _this$[ebp], ecx

; 648  : 	_pannerAz += az;

	mov	eax, DWORD PTR _this$[ebp]
	movss	xmm0, DWORD PTR [eax+364]
	addss	xmm0, DWORD PTR _az$[ebp]
	mov	ecx, DWORD PTR _this$[ebp]
	movss	DWORD PTR [ecx+364], xmm0

; 649  : 	_pannerEl += el;

	mov	edx, DWORD PTR _this$[ebp]
	movss	xmm0, DWORD PTR [edx+368]
	addss	xmm0, DWORD PTR _el$[ebp]
	mov	eax, DWORD PTR _this$[ebp]
	movss	DWORD PTR [eax+368], xmm0

; 650  : }

	mov	esp, ebp
	pop	ebp
	ret	8
?SetPannerAzEl@ACMIView@@QAEXMM@Z ENDP			; ACMIView::SetPannerAzEl
_TEXT	ENDS
; Function compile flags: /Odtp
; File c:\users\zhitao li\documents\visual studio 2012\projects\freefalcon\acmi\src\acmiview.cpp
_TEXT	SEGMENT
_this$ = -4						; size = 4
_x$ = 8							; size = 4
_y$ = 12						; size = 4
_z$ = 16						; size = 4
?SetPannerXYZ@ACMIView@@QAEXMMM@Z PROC			; ACMIView::SetPannerXYZ
; _this$ = ecx

; 640  : {

	push	ebp
	mov	ebp, esp
	push	ecx
	mov	DWORD PTR _this$[ebp], ecx

; 641  : 	_pannerX += x;

	mov	eax, DWORD PTR _this$[ebp]
	movss	xmm0, DWORD PTR [eax+352]
	addss	xmm0, DWORD PTR _x$[ebp]
	mov	ecx, DWORD PTR _this$[ebp]
	movss	DWORD PTR [ecx+352], xmm0

; 642  : 	_pannerY += y;

	mov	edx, DWORD PTR _this$[ebp]
	movss	xmm0, DWORD PTR [edx+356]
	addss	xmm0, DWORD PTR _y$[ebp]
	mov	eax, DWORD PTR _this$[ebp]
	movss	DWORD PTR [eax+356], xmm0

; 643  : 	_pannerZ += z;

	mov	ecx, DWORD PTR _this$[ebp]
	movss	xmm0, DWORD PTR [ecx+360]
	addss	xmm0, DWORD PTR _z$[ebp]
	mov	edx, DWORD PTR _this$[ebp]
	movss	DWORD PTR [edx+360], xmm0

; 644  : }

	mov	esp, ebp
	pop	ebp
	ret	12					; 0000000cH
?SetPannerXYZ@ACMIView@@QAEXMMM@Z ENDP			; ACMIView::SetPannerXYZ
_TEXT	ENDS
; Function compile flags: /Odtp
; File c:\users\zhitao li\documents\visual studio 2012\projects\freefalcon\acmi\src\acmiview.cpp
_TEXT	SEGMENT
tv78 = -20						; size = 4
$T1 = -16						; size = 4
$T2 = -12						; size = 4
$T3 = -8						; size = 4
_this$ = -4						; size = 4
_reload$ = 8						; size = 4
?UnloadTape@ACMIView@@QAEXH@Z PROC			; ACMIView::UnloadTape
; _this$ = ecx

; 320  : {

	push	ebp
	mov	ebp, esp
	sub	esp, 20					; 00000014H
	mov	DWORD PTR _this$[ebp], ecx

; 321  : 	_tapeHasLoaded = FALSE;

	mov	eax, DWORD PTR _this$[ebp]
	mov	DWORD PTR [eax+332], 0

; 322  : 
; 323  : 
; 324  : 	if ( reload == FALSE )

	cmp	DWORD PTR _reload$[ebp], 0
	jne	SHORT $LN3@UnloadTape

; 325  : 	{
; 326  : 		if(_entityUIMappings)

	mov	ecx, DWORD PTR _this$[ebp]
	cmp	DWORD PTR [ecx], 0
	je	SHORT $LN3@UnloadTape

; 327  : 		{
; 328  : 			delete [] _entityUIMappings;

	mov	edx, DWORD PTR _this$[ebp]
	mov	eax, DWORD PTR [edx]
	mov	DWORD PTR $T2[ebp], eax
	mov	ecx, DWORD PTR $T2[ebp]
	push	ecx
	call	??_V@YAXPAX@Z				; operator delete[]
	add	esp, 4

; 329  : 			_entityUIMappings = NULL;

	mov	edx, DWORD PTR _this$[ebp]
	mov	DWORD PTR [edx], 0
$LN3@UnloadTape:

; 330  : 		}
; 331  : 	}
; 332  : 
; 333  : 	if(_tape)

	mov	eax, DWORD PTR _this$[ebp]
	cmp	DWORD PTR [eax+348], 0
	je	SHORT $LN4@UnloadTape

; 334  : 	{ 
; 335  : 		delete _tape;

	mov	ecx, DWORD PTR _this$[ebp]
	mov	edx, DWORD PTR [ecx+348]
	mov	DWORD PTR $T1[ebp], edx
	mov	eax, DWORD PTR $T1[ebp]
	mov	DWORD PTR $T3[ebp], eax
	cmp	DWORD PTR $T3[ebp], 0
	je	SHORT $LN6@UnloadTape
	push	1
	mov	ecx, DWORD PTR $T3[ebp]
	call	??_GACMITape@@QAEPAXI@Z
	mov	DWORD PTR tv78[ebp], eax
	jmp	SHORT $LN7@UnloadTape
$LN6@UnloadTape:
	mov	DWORD PTR tv78[ebp], 0
$LN7@UnloadTape:

; 336  : 		_tape = NULL;

	mov	ecx, DWORD PTR _this$[ebp]
	mov	DWORD PTR [ecx+348], 0
$LN4@UnloadTape:

; 337  : 	}
; 338  : 
; 339  : }

	mov	esp, ebp
	pop	ebp
	ret	4
?UnloadTape@ACMIView@@QAEXH@Z ENDP			; ACMIView::UnloadTape
_TEXT	ENDS
; Function compile flags: /Odtp
; File c:\users\zhitao li\documents\visual studio 2012\projects\freefalcon\acmi\src\acmiview.cpp
_TEXT	SEGMENT
tv133 = -40						; size = 4
$T2 = -36						; size = 4
$T3 = -32						; size = 4
$T4 = -28						; size = 4
tv92 = -24						; size = 4
$T5 = -20						; size = 4
_this$ = -16						; size = 4
__$EHRec$ = -12						; size = 12
_fname$ = 8						; size = 4
_reload$ = 12						; size = 4
?LoadTape@ACMIView@@QAEHPADH@Z PROC			; ACMIView::LoadTape
; _this$ = ecx

; 260  : {

	push	ebp
	mov	ebp, esp
	push	-1
	push	__ehhandler$?LoadTape@ACMIView@@QAEHPADH@Z
	mov	eax, DWORD PTR fs:0
	push	eax
	sub	esp, 28					; 0000001cH
	mov	eax, DWORD PTR ___security_cookie
	xor	eax, ebp
	push	eax
	lea	eax, DWORD PTR __$EHRec$[ebp]
	mov	DWORD PTR fs:0, eax
	mov	DWORD PTR _this$[ebp], ecx

; 261  : 	_tapeHasLoaded = FALSE;

	mov	eax, DWORD PTR _this$[ebp]
	mov	DWORD PTR [eax+332], 0

; 262  : 
; 263  : 	F4Assert(_tape == NULL);
; 264  : 
; 265  : 	if ( fname[0] )

	mov	ecx, 1
	imul	ecx, 0
	mov	edx, DWORD PTR _fname$[ebp]
	movsx	eax, BYTE PTR [edx+ecx]
	test	eax, eax
	je	SHORT $LN5@LoadTape

; 266  : 		memcpy(_fileName, fname, 40);

	push	40					; 00000028H
	mov	ecx, DWORD PTR _fname$[ebp]
	push	ecx
	mov	edx, DWORD PTR _this$[ebp]
	add	edx, 8
	push	edx
	call	_memcpy
	add	esp, 12					; 0000000cH
$LN5@LoadTape:

; 267  : 
; 268  : 	// do we have a file name?
; 269  : 	if(_fileName[0] == 0)

	mov	eax, 1
	imul	eax, 0
	mov	ecx, DWORD PTR _this$[ebp]
	movsx	edx, BYTE PTR [ecx+eax+8]
	test	edx, edx
	jne	SHORT $LN4@LoadTape

; 270  : 		return FALSE;

	xor	eax, eax
	jmp	$LN6@LoadTape
$LN4@LoadTape:

; 271  : 
; 272  : 	// create the tape from the file
; 273  : 	_tape = new ACMITape(_fileName, _renderer, _viewPoint);

	push	216					; 000000d8H
	call	??2@YAPAXI@Z				; operator new
	add	esp, 4
	mov	DWORD PTR $T5[ebp], eax
	mov	DWORD PTR __$EHRec$[ebp+8], 0
	cmp	DWORD PTR $T5[ebp], 0
	je	SHORT $LN8@LoadTape
	mov	eax, DWORD PTR _this$[ebp]
	mov	ecx, DWORD PTR [eax+272]
	push	ecx
	mov	edx, DWORD PTR _this$[ebp]
	mov	eax, DWORD PTR [edx+276]
	push	eax
	mov	ecx, DWORD PTR _this$[ebp]
	add	ecx, 8
	push	ecx
	mov	ecx, DWORD PTR $T5[ebp]
	call	??0ACMITape@@QAE@PADPAVRenderOTW@@PAVRViewPoint@@@Z ; ACMITape::ACMITape
	mov	DWORD PTR tv92[ebp], eax
	jmp	SHORT $LN9@LoadTape
$LN8@LoadTape:
	mov	DWORD PTR tv92[ebp], 0
$LN9@LoadTape:
	mov	edx, DWORD PTR tv92[ebp]
	mov	DWORD PTR $T3[ebp], edx
	mov	DWORD PTR __$EHRec$[ebp+8], -1
	mov	eax, DWORD PTR _this$[ebp]
	mov	ecx, DWORD PTR $T3[ebp]
	mov	DWORD PTR [eax+348], ecx

; 274  : 	F4Assert(_tape != NULL);
; 275  : 
; 276  : 	// do something go wrong?
; 277  : 	if(!_tape->IsLoaded())

	mov	edx, DWORD PTR _this$[ebp]
	mov	ecx, DWORD PTR [edx+348]
	call	?IsLoaded@ACMITape@@QAEHXZ		; ACMITape::IsLoaded
	test	eax, eax
	jne	SHORT $LN3@LoadTape

; 278  : 	{
; 279  : 		delete _tape;

	mov	eax, DWORD PTR _this$[ebp]
	mov	ecx, DWORD PTR [eax+348]
	mov	DWORD PTR $T2[ebp], ecx
	mov	edx, DWORD PTR $T2[ebp]
	mov	DWORD PTR $T4[ebp], edx
	cmp	DWORD PTR $T4[ebp], 0
	je	SHORT $LN10@LoadTape
	push	1
	mov	ecx, DWORD PTR $T4[ebp]
	call	??_GACMITape@@QAEPAXI@Z
	mov	DWORD PTR tv133[ebp], eax
	jmp	SHORT $LN11@LoadTape
$LN10@LoadTape:
	mov	DWORD PTR tv133[ebp], 0
$LN11@LoadTape:

; 280  : 		_tape = NULL;

	mov	eax, DWORD PTR _this$[ebp]
	mov	DWORD PTR [eax+348], 0

; 281  : 
; 282  : 		MonoPrint
; 283  : 		(
; 284  : 			"InitACMIFile() --> Could not load ACMI Tape: %s.\n",
; 285  : 			_fileName
; 286  : 		);

	mov	ecx, DWORD PTR _this$[ebp]
	add	ecx, 8
	push	ecx
	push	OFFSET ??_C@_0DC@DAAKLOGB@InitACMIFile?$CI?$CJ?5?9?9?$DO?5Could?5not?5loa@
	call	_MonoPrint
	add	esp, 8

; 287  : 
; 288  : 		return FALSE;

	xor	eax, eax
	jmp	SHORT $LN6@LoadTape
$LN3@LoadTape:

; 289  : 	}
; 290  : 
; 291  : 
; 292  : 	if ( reload == FALSE )

	cmp	DWORD PTR _reload$[ebp], 0
	jne	SHORT $LN1@LoadTape

; 293  : 	{
; 294  : 		// Setup our entity UI mappings.
; 295  : 		SetupEntityUIMappings();

	mov	ecx, DWORD PTR _this$[ebp]
	call	?SetupEntityUIMappings@ACMIView@@QAEXXZ	; ACMIView::SetupEntityUIMappings

; 296  : 	
; 297  : 	
; 298  : 		// Set our camera objects.
; 299  : 		SetCameraObject(0);

	push	0
	mov	ecx, DWORD PTR _this$[ebp]
	call	?SetCameraObject@ACMIView@@QAEXH@Z	; ACMIView::SetCameraObject

; 300  : 		SetTrackingObject(0);

	push	0
	mov	ecx, DWORD PTR _this$[ebp]
	call	?SetTrackingObject@ACMIView@@QAEXH@Z	; ACMIView::SetTrackingObject

; 301  : 		ResetPanner();

	mov	ecx, DWORD PTR _this$[ebp]
	call	?ResetPanner@ACMIView@@QAEXXZ		; ACMIView::ResetPanner
$LN1@LoadTape:

; 302  : 	}
; 303  : 	else
; 304  : 	{
; 305  : 
; 306  : 	//	SetupEntityUIMappings(); // JPO fixup.
; 307  : 	}
; 308  : 
; 309  : 	_tapeHasLoaded = TRUE;

	mov	edx, DWORD PTR _this$[ebp]
	mov	DWORD PTR [edx+332], 1

; 310  : 
; 311  : 
; 312  : 	return TRUE;

	mov	eax, 1
$LN6@LoadTape:

; 313  : }

	mov	ecx, DWORD PTR __$EHRec$[ebp]
	mov	DWORD PTR fs:0, ecx
	pop	ecx
	mov	esp, ebp
	pop	ebp
	ret	8
_TEXT	ENDS
text$x	SEGMENT
__unwindfunclet$?LoadTape@ACMIView@@QAEHPADH@Z$0:
	mov	eax, DWORD PTR $T5[ebp]
	push	eax
	call	??3@YAXPAX@Z				; operator delete
	pop	ecx
	ret	0
__ehhandler$?LoadTape@ACMIView@@QAEHPADH@Z:
	mov	edx, DWORD PTR [esp+8]
	lea	eax, DWORD PTR [edx+12]
	mov	ecx, DWORD PTR [edx-32]
	xor	ecx, eax
	call	@__security_check_cookie@4
	mov	eax, OFFSET __ehfuncinfo$?LoadTape@ACMIView@@QAEHPADH@Z
	jmp	___CxxFrameHandler3
text$x	ENDS
?LoadTape@ACMIView@@QAEHPADH@Z ENDP			; ACMIView::LoadTape
; Function compile flags: /Odtp
; File c:\users\zhitao li\documents\visual studio 2012\projects\freefalcon\acmi\src\include\acmvwinl.cpp
;	COMDAT ?SetTrackingObject@ACMIView@@QAEXH@Z
_TEXT	SEGMENT
_this$ = -4						; size = 4
_theObject$ = 8						; size = 4
?SetTrackingObject@ACMIView@@QAEXH@Z PROC		; ACMIView::SetTrackingObject, COMDAT
; _this$ = ecx

; 157  : {

	push	ebp
	mov	ebp, esp
	push	ecx
	mov	DWORD PTR _this$[ebp], ecx

; 158  : 	F4Assert(theObject >= 0);
; 159  : 	F4Assert(theObject < _tape->NumEntities() );
; 160  : 
; 161  : 	_currentEntityCam = theObject;

	mov	eax, DWORD PTR _this$[ebp]
	mov	ecx, DWORD PTR _theObject$[ebp]
	mov	DWORD PTR [eax+312], ecx

; 162  : }

	mov	esp, ebp
	pop	ebp
	ret	4
?SetTrackingObject@ACMIView@@QAEXH@Z ENDP		; ACMIView::SetTrackingObject
_TEXT	ENDS
; Function compile flags: /Odtp
; File c:\users\zhitao li\documents\visual studio 2012\projects\freefalcon\acmi\src\include\acmvwinl.cpp
;	COMDAT ?SetCameraObject@ACMIView@@QAEXH@Z
_TEXT	SEGMENT
_this$ = -4						; size = 4
_theObject$ = 8						; size = 4
?SetCameraObject@ACMIView@@QAEXH@Z PROC			; ACMIView::SetCameraObject, COMDAT
; _this$ = ecx

; 87   : {

	push	ebp
	mov	ebp, esp
	push	ecx
	mov	DWORD PTR _this$[ebp], ecx

; 88   : 	F4Assert(theObject >= 0);
; 89   : 	F4Assert(theObject < _tape->NumEntities() );
; 90   : 
; 91   : 	_currentCam = theObject; 

	mov	eax, DWORD PTR _this$[ebp]
	mov	ecx, DWORD PTR _theObject$[ebp]
	mov	DWORD PTR [eax+308], ecx

; 92   : }

	mov	esp, ebp
	pop	ebp
	ret	4
?SetCameraObject@ACMIView@@QAEXH@Z ENDP			; ACMIView::SetCameraObject
_TEXT	ENDS
; Function compile flags: /Odtp
; File c:\users\zhitao li\documents\visual studio 2012\projects\freefalcon\acmi\src\acmiview.cpp
_TEXT	SEGMENT
tv64 = -12						; size = 4
_this$ = -8						; size = 4
_menuID$ = -4						; size = 4
_objectNum$ = 8						; size = 4
_filter$ = 12						; size = 4
?ListBoxID@ACMIView@@QAEJHJ@Z PROC			; ACMIView::ListBoxID
; _this$ = ecx

; 356  : {

	push	ebp
	mov	ebp, esp
	sub	esp, 12					; 0000000cH
	mov	DWORD PTR _this$[ebp], ecx

; 357  : 	long
; 358  : 		menuID = -1;

	mov	DWORD PTR _menuID$[ebp], -1

; 359  : 
; 360  : 	switch(filter)

	mov	eax, DWORD PTR _filter$[ebp]
	mov	DWORD PTR tv64[ebp], eax
	mov	ecx, DWORD PTR tv64[ebp]
	sub	ecx, 200123				; 00030dbbH
	mov	DWORD PTR tv64[ebp], ecx
	cmp	DWORD PTR tv64[ebp], 23			; 00000017H
	ja	$LN12@ListBoxID
	mov	edx, DWORD PTR tv64[ebp]
	movzx	eax, BYTE PTR $LN16@ListBoxID[edx]
	jmp	DWORD PTR $LN17@ListBoxID[eax*4]
$LN11@ListBoxID:

; 361  : 	{
; 362  : 		case INTERNAL_CAM:
; 363  : 				menuID = _entityUIMappings[objectNum].listboxId;

	mov	ecx, DWORD PTR _objectNum$[ebp]
	imul	ecx, 48					; 00000030H
	mov	edx, DWORD PTR _this$[ebp]
	mov	eax, DWORD PTR [edx]
	mov	ecx, DWORD PTR [eax+ecx]
	mov	DWORD PTR _menuID$[ebp], ecx

; 364  : 			break;

	jmp	$LN12@ListBoxID
$LN10@ListBoxID:

; 365  : 		case EXTERNAL_CAM:
; 366  : 				menuID = _entityUIMappings[objectNum].listboxId;

	mov	edx, DWORD PTR _objectNum$[ebp]
	imul	edx, 48					; 00000030H
	mov	eax, DWORD PTR _this$[ebp]
	mov	ecx, DWORD PTR [eax]
	mov	edx, DWORD PTR [ecx+edx]
	mov	DWORD PTR _menuID$[ebp], edx

; 367  : 			break;

	jmp	$LN12@ListBoxID
$LN9@ListBoxID:

; 368  : 		case CHASE_CAM:
; 369  : 				menuID = _entityUIMappings[objectNum].listboxId;

	mov	eax, DWORD PTR _objectNum$[ebp]
	imul	eax, 48					; 00000030H
	mov	ecx, DWORD PTR _this$[ebp]
	mov	edx, DWORD PTR [ecx]
	mov	eax, DWORD PTR [edx+eax]
	mov	DWORD PTR _menuID$[ebp], eax

; 370  : 			break;

	jmp	$LN12@ListBoxID
$LN8@ListBoxID:

; 371  : 		case WING_CAM:
; 372  : 			/*
; 373  : 			if(_tape->EntityGroup(objectNum) == 0)
; 374  : 			{
; 375  : 				menuID = _entityUIMappings[objectNum].listboxId;
; 376  : 			}
; 377  : 			break;
; 378  : 			*/
; 379  : 		case BANDIT_CAM:
; 380  : 			/*
; 381  : 			if(_tape->EntityGroup(objectNum) == 1)
; 382  : 			{
; 383  : 				menuID = _entityUIMappings[objectNum].listboxId;
; 384  : 			}
; 385  : 			break;
; 386  : 			*/
; 387  : 		case FRIEND_CAM:
; 388  : 			/*
; 389  : 			if(_tape->EntityGroup(objectNum) == 0)
; 390  : 			{
; 391  : 				menuID = _entityUIMappings[objectNum].listboxId;
; 392  : 			}
; 393  : 			break;
; 394  : 			*/
; 395  : 		case GVEHICLE_CAM:
; 396  : 				menuID = _entityUIMappings[objectNum].listboxId;

	mov	ecx, DWORD PTR _objectNum$[ebp]
	imul	ecx, 48					; 00000030H
	mov	edx, DWORD PTR _this$[ebp]
	mov	eax, DWORD PTR [edx]
	mov	ecx, DWORD PTR [eax+ecx]
	mov	DWORD PTR _menuID$[ebp], ecx

; 397  : 			break;

	jmp	$LN12@ListBoxID
$LN7@ListBoxID:

; 398  : 		case THREAT_CAM:
; 399  : 				menuID = _entityUIMappings[objectNum].listboxId;

	mov	edx, DWORD PTR _objectNum$[ebp]
	imul	edx, 48					; 00000030H
	mov	eax, DWORD PTR _this$[ebp]
	mov	ecx, DWORD PTR [eax]
	mov	edx, DWORD PTR [ecx+edx]
	mov	DWORD PTR _menuID$[ebp], edx

; 400  : 			break;

	jmp	SHORT $LN12@ListBoxID
$LN6@ListBoxID:

; 401  : 		case WEAPON_CAM:
; 402  : 				menuID = _entityUIMappings[objectNum].listboxId;

	mov	eax, DWORD PTR _objectNum$[ebp]
	imul	eax, 48					; 00000030H
	mov	ecx, DWORD PTR _this$[ebp]
	mov	edx, DWORD PTR [ecx]
	mov	eax, DWORD PTR [edx+eax]
	mov	DWORD PTR _menuID$[ebp], eax

; 403  : 			break;

	jmp	SHORT $LN12@ListBoxID
$LN5@ListBoxID:

; 404  : 		case TARGET_CAM:
; 405  : 				menuID = _entityUIMappings[objectNum].listboxId;

	mov	ecx, DWORD PTR _objectNum$[ebp]
	imul	ecx, 48					; 00000030H
	mov	edx, DWORD PTR _this$[ebp]
	mov	eax, DWORD PTR [edx]
	mov	ecx, DWORD PTR [eax+ecx]
	mov	DWORD PTR _menuID$[ebp], ecx

; 406  : 			break;

	jmp	SHORT $LN12@ListBoxID
$LN4@ListBoxID:

; 407  : 		case SAT_CAM:
; 408  : 				menuID = _entityUIMappings[objectNum].listboxId;

	mov	edx, DWORD PTR _objectNum$[ebp]
	imul	edx, 48					; 00000030H
	mov	eax, DWORD PTR _this$[ebp]
	mov	ecx, DWORD PTR [eax]
	mov	edx, DWORD PTR [ecx+edx]
	mov	DWORD PTR _menuID$[ebp], edx

; 409  : 			break;

	jmp	SHORT $LN12@ListBoxID
$LN3@ListBoxID:

; 410  : 		case REPLAY_CAM:
; 411  : 				menuID = _entityUIMappings[objectNum].listboxId;

	mov	eax, DWORD PTR _objectNum$[ebp]
	imul	eax, 48					; 00000030H
	mov	ecx, DWORD PTR _this$[ebp]
	mov	edx, DWORD PTR [ecx]
	mov	eax, DWORD PTR [edx+eax]
	mov	DWORD PTR _menuID$[ebp], eax

; 412  : 			break;

	jmp	SHORT $LN12@ListBoxID
$LN2@ListBoxID:

; 413  : 		case DIRECTOR_CAM:
; 414  : 				menuID = _entityUIMappings[objectNum].listboxId;

	mov	ecx, DWORD PTR _objectNum$[ebp]
	imul	ecx, 48					; 00000030H
	mov	edx, DWORD PTR _this$[ebp]
	mov	eax, DWORD PTR [edx]
	mov	ecx, DWORD PTR [eax+ecx]
	mov	DWORD PTR _menuID$[ebp], ecx

; 415  : 			break;

	jmp	SHORT $LN12@ListBoxID
$LN1@ListBoxID:

; 416  : 		case FREE_CAM:
; 417  : 				menuID = _entityUIMappings[objectNum].listboxId;

	mov	edx, DWORD PTR _objectNum$[ebp]
	imul	edx, 48					; 00000030H
	mov	eax, DWORD PTR _this$[ebp]
	mov	ecx, DWORD PTR [eax]
	mov	edx, DWORD PTR [ecx+edx]
	mov	DWORD PTR _menuID$[ebp], edx
$LN12@ListBoxID:

; 418  : 			break;
; 419  : //		default:
; 420  : 	};
; 421  : 
; 422  : 	return(menuID);

	mov	eax, DWORD PTR _menuID$[ebp]

; 423  : }

	mov	esp, ebp
	pop	ebp
	ret	8
	npad	3
$LN17@ListBoxID:
	DD	$LN11@ListBoxID
	DD	$LN10@ListBoxID
	DD	$LN8@ListBoxID
	DD	$LN7@ListBoxID
	DD	$LN6@ListBoxID
	DD	$LN5@ListBoxID
	DD	$LN4@ListBoxID
	DD	$LN1@ListBoxID
	DD	$LN3@ListBoxID
	DD	$LN2@ListBoxID
	DD	$LN9@ListBoxID
	DD	$LN12@ListBoxID
$LN16@ListBoxID:
	DB	0
	DB	1
	DB	2
	DB	2
	DB	2
	DB	2
	DB	3
	DB	4
	DB	5
	DB	6
	DB	7
	DB	8
	DB	9
	DB	11					; 0000000bH
	DB	11					; 0000000bH
	DB	11					; 0000000bH
	DB	11					; 0000000bH
	DB	11					; 0000000bH
	DB	11					; 0000000bH
	DB	11					; 0000000bH
	DB	11					; 0000000bH
	DB	11					; 0000000bH
	DB	11					; 0000000bH
	DB	10					; 0000000aH
?ListBoxID@ACMIView@@QAEJHJ@Z ENDP			; ACMIView::ListBoxID
_TEXT	ENDS
; Function compile flags: /Odtp
; File c:\users\zhitao li\documents\visual studio 2012\projects\freefalcon\acmi\src\acmiview.cpp
_TEXT	SEGMENT
_this$ = -4						; size = 4
_objectNum$ = 8						; size = 4
_listID$ = 12						; size = 4
?SetListBoxID@ACMIView@@QAEPADHJ@Z PROC			; ACMIView::SetListBoxID
; _this$ = ecx

; 346  : {

	push	ebp
	mov	ebp, esp
	push	ecx
	mov	DWORD PTR _this$[ebp], ecx

; 347  : 	_entityUIMappings[objectNum].listboxId = listID;

	mov	eax, DWORD PTR _objectNum$[ebp]
	imul	eax, 48					; 00000030H
	mov	ecx, DWORD PTR _this$[ebp]
	mov	edx, DWORD PTR [ecx]
	mov	ecx, DWORD PTR _listID$[ebp]
	mov	DWORD PTR [edx+eax], ecx

; 348  : 	return(_entityUIMappings[objectNum].name);

	mov	edx, DWORD PTR _objectNum$[ebp]
	imul	edx, 48					; 00000030H
	mov	eax, DWORD PTR _this$[ebp]
	mov	ecx, DWORD PTR [eax]
	lea	eax, DWORD PTR [ecx+edx+8]

; 349  : }

	mov	esp, ebp
	pop	ebp
	ret	8
?SetListBoxID@ACMIView@@QAEPADHJ@Z ENDP			; ACMIView::SetListBoxID
_TEXT	ENDS
; Function compile flags: /Odtp
; File c:\users\zhitao li\documents\visual studio 2012\projects\freefalcon\acmi\src\acmiview.cpp
_TEXT	SEGMENT
_this$ = -8						; size = 4
_classPtr$ = -4						; size = 4
_theObject$ = 8						; size = 4
_tmpStr$ = 12						; size = 4
?SetObjectName@ACMIView@@QAEXPAVSimBaseClass@@PAD@Z PROC ; ACMIView::SetObjectName
; _this$ = ecx

; 184  : {

	push	ebp
	mov	ebp, esp
	sub	esp, 8
	mov	DWORD PTR _this$[ebp], ecx

; 185  : 	Falcon4EntityClassType	
; 186  : 		*classPtr = (Falcon4EntityClassType*)theObject->EntityType();

	mov	ecx, DWORD PTR _theObject$[ebp]
	call	?EntityType@VuEntity@@QBEPAUVuEntityType@@XZ ; VuEntity::EntityType
	mov	DWORD PTR _classPtr$[ebp], eax

; 187  : 
; 188  : 	if(classPtr->dataType == DTYPE_VEHICLE)

	mov	eax, DWORD PTR _classPtr$[ebp]
	movzx	ecx, BYTE PTR [eax+76]
	cmp	ecx, 5
	jne	SHORT $LN3@SetObjectN

; 189  : 	{
; 190  : 		//sprintf(tmpStr, "%s",((VehicleClassDataType*)(classPtr->dataPtr))->Name);
; 191  : 		sprintf(((VehicleClassDataType*)(classPtr->dataPtr))->Name,"%s",tmpStr);

	mov	edx, DWORD PTR _tmpStr$[ebp]
	push	edx
	push	OFFSET ??_C@_02DKCKIIND@?$CFs?$AA@
	mov	eax, DWORD PTR _classPtr$[ebp]
	mov	ecx, DWORD PTR [eax+77]
	add	ecx, 8
	push	ecx
	call	_sprintf
	add	esp, 12					; 0000000cH
	jmp	SHORT $LN4@SetObjectN
$LN3@SetObjectN:

; 192  : 
; 193  : 	}
; 194  : 	else if(classPtr->dataType == DTYPE_WEAPON)

	mov	edx, DWORD PTR _classPtr$[ebp]
	movzx	eax, BYTE PTR [edx+76]
	cmp	eax, 6
	jne	SHORT $LN4@SetObjectN

; 195  : 	{
; 196  : 		//sprintf(tmpStr, "%s",((WeaponClassDataType*)(classPtr->dataPtr))->Name);
; 197  : 		sprintf(((WeaponClassDataType*)(classPtr->dataPtr))->Name,"%s",tmpStr);

	mov	ecx, DWORD PTR _tmpStr$[ebp]
	push	ecx
	push	OFFSET ??_C@_02DKCKIIND@?$CFs?$AA@
	mov	edx, DWORD PTR _classPtr$[ebp]
	mov	eax, DWORD PTR [edx+77]
	add	eax, 12					; 0000000cH
	push	eax
	call	_sprintf
	add	esp, 12					; 0000000cH
$LN4@SetObjectN:

; 198  : 	
; 199  : 	}
; 200  : }

	mov	esp, ebp
	pop	ebp
	ret	8
?SetObjectName@ACMIView@@QAEXPAVSimBaseClass@@PAD@Z ENDP ; ACMIView::SetObjectName
_TEXT	ENDS
; Function compile flags: /Odtp
; File c:\users\zhitao li\documents\visual studio 2012\projects\freefalcon\acmi\src\acmiview.cpp
_TEXT	SEGMENT
_this$ = -8						; size = 4
_classPtr$ = -4						; size = 4
_theObject$ = 8						; size = 4
_tmpStr$ = 12						; size = 4
?GetObjectName@ACMIView@@QAEXPAVSimBaseClass@@PAD@Z PROC ; ACMIView::GetObjectName
; _this$ = ecx

; 431  : {

	push	ebp
	mov	ebp, esp
	sub	esp, 8
	mov	DWORD PTR _this$[ebp], ecx

; 432  : 	Falcon4EntityClassType	
; 433  : 		*classPtr = (Falcon4EntityClassType*)theObject->EntityType();

	mov	ecx, DWORD PTR _theObject$[ebp]
	call	?EntityType@VuEntity@@QBEPAUVuEntityType@@XZ ; VuEntity::EntityType
	mov	DWORD PTR _classPtr$[ebp], eax

; 434  : 
; 435  : 	memset(tmpStr, 0, 40);

	push	40					; 00000028H
	push	0
	mov	eax, DWORD PTR _tmpStr$[ebp]
	push	eax
	call	_memset
	add	esp, 12					; 0000000cH

; 436  : 
; 437  : 	if(classPtr->dataType == DTYPE_VEHICLE || classPtr->dataType == DTYPE_WEAPON) {

	mov	ecx, DWORD PTR _classPtr$[ebp]
	movzx	edx, BYTE PTR [ecx+76]
	cmp	edx, 5
	je	SHORT $LN5@GetObjectN
	mov	eax, DWORD PTR _classPtr$[ebp]
	movzx	ecx, BYTE PTR [eax+76]
	cmp	ecx, 6
	jne	SHORT $LN7@GetObjectN
$LN5@GetObjectN:

; 438  : 
; 439  : 		strcpy(tmpStr, ((DrawableBSP*)theObject->drawPointer)->Label());

	mov	edx, DWORD PTR _theObject$[ebp]
	mov	ecx, DWORD PTR [edx+332]
	call	?Label@DrawableBSP@@QAEPADXZ		; DrawableBSP::Label
	push	eax
	mov	eax, DWORD PTR _tmpStr$[ebp]
	push	eax
	call	_strcpy
	add	esp, 8

; 440  : 		
; 441  : 		if(strlen(tmpStr) == 0) {

	mov	ecx, DWORD PTR _tmpStr$[ebp]
	push	ecx
	call	_strlen
	add	esp, 4
	test	eax, eax
	jne	SHORT $LN7@GetObjectN

; 442  : 			
; 443  : 			if(classPtr->dataType == DTYPE_VEHICLE)

	mov	edx, DWORD PTR _classPtr$[ebp]
	movzx	eax, BYTE PTR [edx+76]
	cmp	eax, 5
	jne	SHORT $LN3@GetObjectN

; 444  : 			{
; 445  : 				sprintf(tmpStr, "%s",((VehicleClassDataType*)(classPtr->dataPtr))->Name);

	mov	ecx, DWORD PTR _classPtr$[ebp]
	mov	edx, DWORD PTR [ecx+77]
	add	edx, 8
	push	edx
	push	OFFSET ??_C@_02DKCKIIND@?$CFs?$AA@
	mov	eax, DWORD PTR _tmpStr$[ebp]
	push	eax
	call	_sprintf
	add	esp, 12					; 0000000cH
	jmp	SHORT $LN7@GetObjectN
$LN3@GetObjectN:

; 446  : 			}
; 447  : 			else if(classPtr->dataType == DTYPE_WEAPON)

	mov	ecx, DWORD PTR _classPtr$[ebp]
	movzx	edx, BYTE PTR [ecx+76]
	cmp	edx, 6
	jne	SHORT $LN7@GetObjectN

; 448  : 			{
; 449  : 				sprintf(tmpStr, "%s",((WeaponClassDataType*)(classPtr->dataPtr))->Name);

	mov	eax, DWORD PTR _classPtr$[ebp]
	mov	ecx, DWORD PTR [eax+77]
	add	ecx, 12					; 0000000cH
	push	ecx
	push	OFFSET ??_C@_02DKCKIIND@?$CFs?$AA@
	mov	edx, DWORD PTR _tmpStr$[ebp]
	push	edx
	call	_sprintf
	add	esp, 12					; 0000000cH
$LN7@GetObjectN:

; 450  : 			}
; 451  : 		}
; 452  : 	}
; 453  : }

	mov	esp, ebp
	pop	ebp
	ret	8
?GetObjectName@ACMIView@@QAEXPAVSimBaseClass@@PAD@Z ENDP ; ACMIView::GetObjectName
_TEXT	ENDS
; Function compile flags: /Odtp
; File c:\users\zhitao li\documents\visual studio 2012\projects\freefalcon\acmi\src\acmiview.cpp
_TEXT	SEGMENT
_this$ = -4						; size = 4
?ExitGraphics@ACMIView@@QAEHXZ PROC			; ACMIView::ExitGraphics
; _this$ = ecx

; 620  : {

	push	ebp
	mov	ebp, esp
	push	ecx
	mov	DWORD PTR _this$[ebp], ecx

; 621  :    StopGraphicsLoop();

	mov	ecx, DWORD PTR _this$[ebp]
	call	?StopGraphicsLoop@ACMIView@@QAEXXZ	; ACMIView::StopGraphicsLoop

; 622  : 
; 623  :    return(1);

	mov	eax, 1

; 624  : }

	mov	esp, ebp
	pop	ebp
	ret	0
?ExitGraphics@ACMIView@@QAEHXZ ENDP			; ACMIView::ExitGraphics
_TEXT	ENDS
; Function compile flags: /Odtp
; File c:\users\zhitao li\documents\visual studio 2012\projects\freefalcon\acmi\src\acmiview.cpp
_TEXT	SEGMENT
$T2 = -132						; size = 4
_b$ = -128						; size = 4
$T3 = -124						; size = 4
_r$ = -120						; size = 4
_l$ = -116						; size = 4
tv370 = -112						; size = 4
_t$ = -108						; size = 4
$T4 = -104						; size = 4
$T5 = -100						; size = 4
$T6 = -96						; size = 4
tv85 = -92						; size = 4
tv93 = -88						; size = 4
tv133 = -84						; size = 4
$T7 = -80						; size = 4
_sw$ = -76						; size = 4
_sh$ = -72						; size = 4
_this$ = -68						; size = 4
_viewRotation$ = -64					; size = 36
_viewPos$ = -28						; size = 12
__$ArrayPad$ = -16					; size = 4
__$EHRec$ = -12						; size = 12
_win$ = 8						; size = 4
?InitGraphics@ACMIView@@QAEXPAVC_Window@@@Z PROC	; ACMIView::InitGraphics
; _this$ = ecx

; 467  : {

	push	ebp
	mov	ebp, esp
	push	-1
	push	__ehhandler$?InitGraphics@ACMIView@@QAEXPAVC_Window@@@Z
	mov	eax, DWORD PTR fs:0
	push	eax
	sub	esp, 120				; 00000078H
	mov	eax, DWORD PTR ___security_cookie
	xor	eax, ebp
	mov	DWORD PTR __$ArrayPad$[ebp], eax
	push	esi
	push	edi
	push	eax
	lea	eax, DWORD PTR __$EHRec$[ebp]
	mov	DWORD PTR fs:0, eax
	mov	DWORD PTR _this$[ebp], ecx

; 468  : 	Tpoint
; 469  : 		viewPos;
; 470  : 
; 471  : 	Trotation
; 472  : 		viewRotation;
; 473  : 
; 474  : 	float				l, t, r, b, sw, sh;
; 475  : 
; 476  : 
; 477  : 	// Preload objects which will need to be instant access
; 478  : 	// DrawableBSP::LockAndLoad(2);
; 479  : 
; 480  : 	//BING 3-20-98
; 481  : 	// SET UP FOR TOGGELING OF LABELS.
; 482  : 	// int doIDTags;
; 483  : 	// doIDTags = 1;
; 484  : 	DrawableBSP::drawLabels =  TRUE;

	mov	DWORD PTR ?drawLabels@DrawableBSP@@2HA, 1 ; DrawableBSP::drawLabels

; 485  : 	DrawablePoint::drawLabels =  FALSE;

	mov	DWORD PTR ?drawLabels@DrawablePoint@@2HA, 0 ; DrawablePoint::drawLabels

; 486  : 
; 487  : 	// Load the terrain texture override image	
; 488  : 	// edg: need to put in switch for wireframe terrain
; 489  : 	if ( _doWireFrame )

	mov	eax, DWORD PTR _this$[ebp]
	cmp	DWORD PTR [eax+404], 0
	je	$LN4@InitGraphi

; 490  : 	{
; 491  : 		wireTexture.LoadAndCreate( "WireTile.GIF", MPR_TI_PALETTE );

	push	128					; 00000080H
	push	OFFSET ??_C@_0N@PFGGEGHE@WireTile?4GIF?$AA@
	mov	ecx, DWORD PTR _this$[ebp]
	add	ecx, 280				; 00000118H
	call	?LoadAndCreate@Texture@@QAEHPADK@Z	; Texture::LoadAndCreate

; 492  : 		wireTexture.FreeImage();

	mov	ecx, DWORD PTR _this$[ebp]
	add	ecx, 280				; 00000118H
	call	?FreeImage@Texture@@QAEXXZ		; Texture::FreeImage

; 493  : 		TheTerrTextures.SetOverrideTexture( wireTexture.TexHandle() );

	mov	ecx, DWORD PTR _this$[ebp]
	add	ecx, 280				; 00000118H
	call	?TexHandle@Texture@@QAEKXZ		; Texture::TexHandle
	push	eax
	mov	ecx, OFFSET ?TheTerrTextures@@3VTextureDB@@A ; TheTerrTextures
	call	?SetOverrideTexture@TextureDB@@QAEXI@Z	; TextureDB::SetOverrideTexture

; 494  : //		_renderer = new RenderWire;
; 495  : 		_renderer = new RenderOTW;

	push	263372					; 000404ccH
	call	??2@YAPAXI@Z				; operator new
	add	esp, 4
	mov	DWORD PTR $T5[ebp], eax
	mov	DWORD PTR __$EHRec$[ebp+8], 0
	cmp	DWORD PTR $T5[ebp], 0
	je	SHORT $LN7@InitGraphi
	mov	ecx, DWORD PTR $T5[ebp]
	call	??0RenderOTW@@QAE@XZ			; RenderOTW::RenderOTW
	mov	DWORD PTR tv85[ebp], eax
	jmp	SHORT $LN8@InitGraphi
$LN7@InitGraphi:
	mov	DWORD PTR tv85[ebp], 0
$LN8@InitGraphi:
	mov	ecx, DWORD PTR tv85[ebp]
	mov	DWORD PTR $T4[ebp], ecx
	mov	DWORD PTR __$EHRec$[ebp+8], -1
	mov	edx, DWORD PTR _this$[ebp]
	mov	eax, DWORD PTR $T4[ebp]
	mov	DWORD PTR [edx+276], eax

; 496  : 	}
; 497  : 	else

	jmp	SHORT $LN3@InitGraphi
$LN4@InitGraphi:

; 498  : 	{
; 499  : 		_renderer = new RenderOTW;

	push	263372					; 000404ccH
	call	??2@YAPAXI@Z				; operator new
	add	esp, 4
	mov	DWORD PTR $T7[ebp], eax
	mov	DWORD PTR __$EHRec$[ebp+8], 1
	cmp	DWORD PTR $T7[ebp], 0
	je	SHORT $LN9@InitGraphi
	mov	ecx, DWORD PTR $T7[ebp]
	call	??0RenderOTW@@QAE@XZ			; RenderOTW::RenderOTW
	mov	DWORD PTR tv93[ebp], eax
	jmp	SHORT $LN10@InitGraphi
$LN9@InitGraphi:
	mov	DWORD PTR tv93[ebp], 0
$LN10@InitGraphi:
	mov	ecx, DWORD PTR tv93[ebp]
	mov	DWORD PTR $T3[ebp], ecx
	mov	DWORD PTR __$EHRec$[ebp+8], -1
	mov	edx, DWORD PTR _this$[ebp]
	mov	eax, DWORD PTR $T3[ebp]
	mov	DWORD PTR [edx+276], eax
$LN3@InitGraphi:

; 500  : 	}
; 501  : 
; 502  : 
; 503  : 	_viewPoint = new RViewPoint;

	push	272					; 00000110H
	call	??2@YAPAXI@Z				; operator new
	add	esp, 4
	mov	DWORD PTR $T6[ebp], eax
	mov	DWORD PTR __$EHRec$[ebp+8], 2
	cmp	DWORD PTR $T6[ebp], 0
	je	SHORT $LN11@InitGraphi
	mov	ecx, DWORD PTR $T6[ebp]
	call	??0RViewPoint@@QAE@XZ			; RViewPoint::RViewPoint
	mov	DWORD PTR tv133[ebp], eax
	jmp	SHORT $LN12@InitGraphi
$LN11@InitGraphi:
	mov	DWORD PTR tv133[ebp], 0
$LN12@InitGraphi:
	mov	ecx, DWORD PTR tv133[ebp]
	mov	DWORD PTR $T2[ebp], ecx
	mov	DWORD PTR __$EHRec$[ebp+8], -1
	mov	edx, DWORD PTR _this$[ebp]
	mov	eax, DWORD PTR $T2[ebp]
	mov	DWORD PTR [edx+272], eax

; 504  : 
; 505  : 
; 506  : 	if ( _doWireFrame == FALSE )

	mov	ecx, DWORD PTR _this$[ebp]
	cmp	DWORD PTR [ecx+404], 0
	jne	$LN2@InitGraphi

; 507  : 	{	
; 508  : 		_viewPoint->Setup( 0.75f * PlayerOptions.TerrainDistance() * FEET_PER_KM,
; 509  : 						  PlayerOptions.MaxTerrainLevel(),
; 510  : 						  4,
; 511  : 						  DisplayOptions.bZBuffering); //JAM 30Dec03

	movzx	edx, BYTE PTR ?DisplayOptions@@3VDisplayOptionsClass@@A+16
	push	edx
	push	4
	mov	ecx, OFFSET ?PlayerOptions@@3VPlayerOptionsClass@@A ; PlayerOptions
	call	?MaxTerrainLevel@PlayerOptionsClass@@QAEHXZ ; PlayerOptionsClass::MaxTerrainLevel
	push	eax
	mov	ecx, OFFSET ?PlayerOptions@@3VPlayerOptionsClass@@A ; PlayerOptions
	call	?TerrainDistance@PlayerOptionsClass@@QAEMXZ ; PlayerOptionsClass::TerrainDistance
	fstp	DWORD PTR tv370[ebp]
	movss	xmm0, DWORD PTR tv370[ebp]
	mulss	xmm0, DWORD PTR __real@3f400000
	mulss	xmm0, DWORD PTR __real@454cffae
	push	ecx
	movss	DWORD PTR [esp], xmm0
	mov	eax, DWORD PTR _this$[ebp]
	mov	ecx, DWORD PTR [eax+272]
	call	?Setup@RViewPoint@@QAEXMHH_N@Z		; RViewPoint::Setup

; 512  : 	
; 513  : 		_renderer->Setup(gMainHandler->GetFront(), _viewPoint);

	mov	ecx, DWORD PTR _this$[ebp]
	mov	edx, DWORD PTR [ecx+272]
	push	edx
	mov	ecx, DWORD PTR ?gMainHandler@@3PAVC_Handler@@A ; gMainHandler
	call	?GetFront@C_Handler@@QAEPAVImageBuffer@@XZ ; C_Handler::GetFront
	push	eax
	mov	eax, DWORD PTR _this$[ebp]
	mov	ecx, DWORD PTR [eax+276]
	mov	edx, DWORD PTR _this$[ebp]
	mov	eax, DWORD PTR [ecx]
	mov	ecx, DWORD PTR [edx+276]
	mov	edx, DWORD PTR [eax+144]
	call	edx

; 514  : 
; 515  : //		_renderer->SetTerrainTextureLevel( PlayerOptions.TextureLevel() );
; 516  : //		_renderer->SetSmoothShadingMode( TRUE );//PlayerOptions.GouraudOn() );
; 517  : 	
; 518  : 		_renderer->SetHazeMode(PlayerOptions.HazingOn());

	mov	ecx, OFFSET ?PlayerOptions@@3VPlayerOptionsClass@@A ; PlayerOptions
	call	?HazingOn@PlayerOptionsClass@@QAEHXZ	; PlayerOptionsClass::HazingOn
	push	eax
	mov	eax, DWORD PTR _this$[ebp]
	mov	ecx, DWORD PTR [eax+276]
	call	?SetHazeMode@RenderOTW@@QAEXH@Z		; RenderOTW::SetHazeMode

; 519  : 		_renderer->SetDitheringMode( PlayerOptions.HazingOn() );

	mov	ecx, OFFSET ?PlayerOptions@@3VPlayerOptionsClass@@A ; PlayerOptions
	call	?HazingOn@PlayerOptionsClass@@QAEHXZ	; PlayerOptionsClass::HazingOn
	push	eax
	mov	ecx, DWORD PTR _this$[ebp]
	mov	ecx, DWORD PTR [ecx+276]
	call	?SetDitheringMode@RenderOTW@@QAEXH@Z	; RenderOTW::SetDitheringMode

; 520  : 	
; 521  : 		_renderer->SetFilteringMode( PlayerOptions.FilteringOn() );

	mov	ecx, OFFSET ?PlayerOptions@@3VPlayerOptionsClass@@A ; PlayerOptions
	call	?FilteringOn@PlayerOptionsClass@@QAEHXZ	; PlayerOptionsClass::FilteringOn
	push	eax
	mov	edx, DWORD PTR _this$[ebp]
	mov	ecx, DWORD PTR [edx+276]
	call	?SetFilteringMode@RenderOTW@@QAEXH@Z	; RenderOTW::SetFilteringMode

; 522  : 		_renderer->SetObjectDetail(PlayerOptions.ObjectDetailLevel() );

	mov	ecx, OFFSET ?PlayerOptions@@3VPlayerOptionsClass@@A ; PlayerOptions
	call	?ObjectDetailLevel@PlayerOptionsClass@@QAEMXZ ; PlayerOptionsClass::ObjectDetailLevel
	push	ecx
	fstp	DWORD PTR [esp]
	mov	eax, DWORD PTR _this$[ebp]
	mov	ecx, DWORD PTR [eax+276]
	call	?SetObjectDetail@Render3D@@QAEXM@Z	; Render3D::SetObjectDetail

; 523  : //		_renderer->SetAlphaMode(PlayerOptions.AlphaOn());
; 524  : 		_renderer->SetObjectTextureState(TRUE);//PlayerOptions.ObjectTexturesOn());

	push	1
	mov	ecx, DWORD PTR _this$[ebp]
	mov	ecx, DWORD PTR [ecx+276]
	call	?SetObjectTextureState@Render3D@@QAEXH@Z ; Render3D::SetObjectTextureState

; 525  : 	}
; 526  : 	else

	jmp	SHORT $LN1@InitGraphi
$LN2@InitGraphi:

; 527  : 	{
; 528  : 		_viewPoint->Setup( 20.0f * FEET_PER_KM,
; 529  : 						  0,
; 530  : 						  2,
; 531  : 						  0.0f );

	push	0
	push	2
	push	0
	push	ecx
	movss	xmm0, DWORD PTR __real@47801fcd
	movss	DWORD PTR [esp], xmm0
	mov	edx, DWORD PTR _this$[ebp]
	mov	ecx, DWORD PTR [edx+272]
	call	?Setup@RViewPoint@@QAEXMHH_N@Z		; RViewPoint::Setup

; 532  : 		_renderer->Setup(gMainHandler->GetFront(), _viewPoint);

	mov	eax, DWORD PTR _this$[ebp]
	mov	ecx, DWORD PTR [eax+272]
	push	ecx
	mov	ecx, DWORD PTR ?gMainHandler@@3PAVC_Handler@@A ; gMainHandler
	call	?GetFront@C_Handler@@QAEPAVImageBuffer@@XZ ; C_Handler::GetFront
	push	eax
	mov	edx, DWORD PTR _this$[ebp]
	mov	eax, DWORD PTR [edx+276]
	mov	ecx, DWORD PTR _this$[ebp]
	mov	edx, DWORD PTR [eax]
	mov	ecx, DWORD PTR [ecx+276]
	mov	eax, DWORD PTR [edx+144]
	call	eax

; 533  : //		_renderer->SetTerrainTextureLevel(2);
; 534  : 		_renderer->SetHazeMode(FALSE);

	push	0
	mov	ecx, DWORD PTR _this$[ebp]
	mov	ecx, DWORD PTR [ecx+276]
	call	?SetHazeMode@RenderOTW@@QAEXH@Z		; RenderOTW::SetHazeMode
$LN1@InitGraphi:

; 535  : //		_renderer->SetSmoothShadingMode(FALSE);
; 536  : 	}
; 537  : 
; 538  : 	TheVbManager.Setup(gMainHandler->GetFront()->GetDisplayDevice()->GetDefaultRC()->m_pD3D);

	mov	ecx, DWORD PTR ?gMainHandler@@3PAVC_Handler@@A ; gMainHandler
	call	?GetFront@C_Handler@@QAEPAVImageBuffer@@XZ ; C_Handler::GetFront
	mov	ecx, eax
	call	?GetDisplayDevice@ImageBuffer@@QAEPAVDisplayDevice@@XZ ; ImageBuffer::GetDisplayDevice
	mov	ecx, eax
	call	?GetDefaultRC@DisplayDevice@@QAEPAVDXContext@@XZ ; DisplayDevice::GetDefaultRC
	mov	edx, DWORD PTR [eax+4]
	push	edx
	mov	ecx, OFFSET ?TheVbManager@@3VCDXVbManager@@A ; TheVbManager
	call	?Setup@CDXVbManager@@QAEXPAUIDirect3D7@@@Z ; CDXVbManager::Setup

; 539  : 
; 540  : 	sw = (float)gMainHandler->GetFront()->targetXres();

	mov	ecx, DWORD PTR ?gMainHandler@@3PAVC_Handler@@A ; gMainHandler
	call	?GetFront@C_Handler@@QAEPAVImageBuffer@@XZ ; C_Handler::GetFront
	mov	ecx, eax
	call	?targetXres@ImageBuffer@@QAEHXZ		; ImageBuffer::targetXres
	cvtsi2ss xmm0, eax
	movss	DWORD PTR _sw$[ebp], xmm0

; 541  : 	sh = (float)gMainHandler->GetFront()->targetYres();

	mov	ecx, DWORD PTR ?gMainHandler@@3PAVC_Handler@@A ; gMainHandler
	call	?GetFront@C_Handler@@QAEPAVImageBuffer@@XZ ; C_Handler::GetFront
	mov	ecx, eax
	call	?targetYres@ImageBuffer@@QAEHXZ		; ImageBuffer::targetYres
	cvtsi2ss xmm0, eax
	movss	DWORD PTR _sh$[ebp], xmm0

; 542  : 
; 543  : 	l = -1.0f +((float) win->GetX() /(sw * 0.5F));

	mov	ecx, DWORD PTR _win$[ebp]
	call	?GetX@C_Window@@QAEFXZ			; C_Window::GetX
	cwde
	cvtsi2ss xmm0, eax
	movss	xmm1, DWORD PTR _sw$[ebp]
	mulss	xmm1, DWORD PTR __real@3f000000
	divss	xmm0, xmm1
	addss	xmm0, DWORD PTR __real@bf800000
	movss	DWORD PTR _l$[ebp], xmm0

; 544  : 	t = 1.0f -((float) win->GetY() /(sh * 0.5F));

	mov	ecx, DWORD PTR _win$[ebp]
	call	?GetY@C_Window@@QAEFXZ			; C_Window::GetY
	movsx	ecx, ax
	cvtsi2ss xmm0, ecx
	movss	xmm1, DWORD PTR _sh$[ebp]
	mulss	xmm1, DWORD PTR __real@3f000000
	divss	xmm0, xmm1
	movss	xmm1, DWORD PTR __real@3f800000
	subss	xmm1, xmm0
	movss	DWORD PTR _t$[ebp], xmm1

; 545  : 	r = 1.0f -((float)(sw-(win->GetX() + win->GetW())) /(sw * 0.5F));

	mov	ecx, DWORD PTR _win$[ebp]
	call	?GetX@C_Window@@QAEFXZ			; C_Window::GetX
	movsx	esi, ax
	mov	ecx, DWORD PTR _win$[ebp]
	call	?GetW@C_Window@@QAEFXZ			; C_Window::GetW
	movsx	edx, ax
	add	esi, edx
	cvtsi2ss xmm0, esi
	movss	xmm1, DWORD PTR _sw$[ebp]
	subss	xmm1, xmm0
	movss	xmm0, DWORD PTR _sw$[ebp]
	mulss	xmm0, DWORD PTR __real@3f000000
	divss	xmm1, xmm0
	movss	xmm0, DWORD PTR __real@3f800000
	subss	xmm0, xmm1
	movss	DWORD PTR _r$[ebp], xmm0

; 546  : 	b = -1.0f +((float)(sh -(win->GetY() + win->GetH())) /(sh * 0.5F));

	mov	ecx, DWORD PTR _win$[ebp]
	call	?GetY@C_Window@@QAEFXZ			; C_Window::GetY
	movsx	esi, ax
	mov	ecx, DWORD PTR _win$[ebp]
	call	?GetH@C_Window@@QAEFXZ			; C_Window::GetH
	cwde
	add	esi, eax
	cvtsi2ss xmm0, esi
	movss	xmm1, DWORD PTR _sh$[ebp]
	subss	xmm1, xmm0
	movss	xmm0, DWORD PTR _sh$[ebp]
	mulss	xmm0, DWORD PTR __real@3f000000
	divss	xmm1, xmm0
	addss	xmm1, DWORD PTR __real@bf800000
	movss	DWORD PTR _b$[ebp], xmm1

; 547  : 	_renderer->SetViewport(l, t, r, b);

	push	ecx
	movss	xmm0, DWORD PTR _b$[ebp]
	movss	DWORD PTR [esp], xmm0
	push	ecx
	movss	xmm0, DWORD PTR _r$[ebp]
	movss	DWORD PTR [esp], xmm0
	push	ecx
	movss	xmm0, DWORD PTR _t$[ebp]
	movss	DWORD PTR [esp], xmm0
	push	ecx
	movss	xmm0, DWORD PTR _l$[ebp]
	movss	DWORD PTR [esp], xmm0
	mov	ecx, DWORD PTR _this$[ebp]
	mov	edx, DWORD PTR [ecx+276]
	mov	eax, DWORD PTR _this$[ebp]
	mov	edx, DWORD PTR [edx]
	mov	ecx, DWORD PTR [eax+276]
	mov	eax, DWORD PTR [edx+112]
	call	eax

; 548  : 
; 549  : 
; 550  : 	_isReady = TRUE;

	mov	ecx, DWORD PTR _this$[ebp]
	mov	DWORD PTR [ecx+328], 1

; 551  : 	_drawing = TRUE;

	mov	edx, DWORD PTR _this$[ebp]
	mov	DWORD PTR [edx+320], 1

; 552  : 	_drawingFinished = FALSE;

	mov	eax, DWORD PTR _this$[ebp]
	mov	DWORD PTR [eax+324], 0

; 553  : 
; 554  : 	_takeScreenShot = FALSE;

	mov	ecx, DWORD PTR _this$[ebp]
	mov	DWORD PTR [ecx+340], 0

; 555  : 	_objectScale = 1.0F;

	mov	edx, DWORD PTR _this$[ebp]
	movss	xmm0, DWORD PTR __real@3f800000
	movss	DWORD PTR [edx+316], xmm0

; 556  : 
; 557  : 	viewRotation = IMatrix;

	mov	ecx, 9
	mov	esi, OFFSET ?IMatrix@@3UTrotation@@B	; IMatrix
	lea	edi, DWORD PTR _viewRotation$[ebp]
	rep movsd

; 558  : 
; 559  : 	// Update object position
; 560  : 	viewPos.x     = 110000.0F;

	movss	xmm0, DWORD PTR __real@47d6d800
	movss	DWORD PTR _viewPos$[ebp], xmm0

; 561  : 	viewPos.y     = 137000.0F;

	movss	xmm0, DWORD PTR __real@4805ca00
	movss	DWORD PTR _viewPos$[ebp+4], xmm0

; 562  : 	viewPos.z     = -15000.0F;

	movss	xmm0, DWORD PTR __real@c66a6000
	movss	DWORD PTR _viewPos$[ebp+8], xmm0

; 563  : 
; 564  : 	_drawingFinished = FALSE;

	mov	eax, DWORD PTR _this$[ebp]
	mov	DWORD PTR [eax+324], 0

; 565  : 	_initialGraphicsLoad = TRUE;

	mov	ecx, DWORD PTR _this$[ebp]
	mov	DWORD PTR [ecx+4], 1

; 566  : 	_drawing = TRUE;

	mov	edx, DWORD PTR _this$[ebp]
	mov	DWORD PTR [edx+320], 1

; 567  : 
; 568  : 	
; 569  : }

	mov	ecx, DWORD PTR __$EHRec$[ebp]
	mov	DWORD PTR fs:0, ecx
	pop	ecx
	pop	edi
	pop	esi
	mov	ecx, DWORD PTR __$ArrayPad$[ebp]
	xor	ecx, ebp
	call	@__security_check_cookie@4
	mov	esp, ebp
	pop	ebp
	ret	4
_TEXT	ENDS
text$x	SEGMENT
__unwindfunclet$?InitGraphics@ACMIView@@QAEXPAVC_Window@@@Z$0:
	mov	eax, DWORD PTR $T5[ebp]
	push	eax
	call	??3@YAXPAX@Z				; operator delete
	pop	ecx
	ret	0
__unwindfunclet$?InitGraphics@ACMIView@@QAEXPAVC_Window@@@Z$1:
	mov	eax, DWORD PTR $T7[ebp]
	push	eax
	call	??3@YAXPAX@Z				; operator delete
	pop	ecx
	ret	0
__unwindfunclet$?InitGraphics@ACMIView@@QAEXPAVC_Window@@@Z$2:
	mov	eax, DWORD PTR $T6[ebp]
	push	eax
	call	??3@YAXPAX@Z				; operator delete
	pop	ecx
	ret	0
__ehhandler$?InitGraphics@ACMIView@@QAEXPAVC_Window@@@Z:
	mov	edx, DWORD PTR [esp+8]
	lea	eax, DWORD PTR [edx+12]
	mov	ecx, DWORD PTR [edx-132]
	xor	ecx, eax
	call	@__security_check_cookie@4
	mov	ecx, DWORD PTR [edx-4]
	xor	ecx, eax
	call	@__security_check_cookie@4
	mov	eax, OFFSET __ehfuncinfo$?InitGraphics@ACMIView@@QAEXPAVC_Window@@@Z
	jmp	___CxxFrameHandler3
text$x	ENDS
?InitGraphics@ACMIView@@QAEXPAVC_Window@@@Z ENDP	; ACMIView::InitGraphics
; Function compile flags: /Odtp
; File c:\users\zhitao li\documents\visual studio 2012\projects\freefalcon\acmi\src\acmiview.cpp
_TEXT	SEGMENT
_this$ = -8						; size = 4
tv65 = -4						; size = 4
_val$ = 8						; size = 4
?Togglelockrange@ACMIView@@QAEXH@Z PROC			; ACMIView::Togglelockrange
; _this$ = ecx

; 176  : {

	push	ebp
	mov	ebp, esp
	sub	esp, 8
	mov	DWORD PTR _this$[ebp], ecx

; 177  : 	DrawablePoled::drawlockrange = val ? TRUE : FALSE;

	cmp	DWORD PTR _val$[ebp], 0
	je	SHORT $LN3@Togglelock
	mov	DWORD PTR tv65[ebp], 1
	jmp	SHORT $LN4@Togglelock
$LN3@Togglelock:
	mov	DWORD PTR tv65[ebp], 0
$LN4@Togglelock:
	mov	eax, DWORD PTR tv65[ebp]
	mov	DWORD PTR ?drawlockrange@DrawablePoled@@2HA, eax ; DrawablePoled::drawlockrange

; 178  : }

	mov	esp, ebp
	pop	ebp
	ret	4
?Togglelockrange@ACMIView@@QAEXH@Z ENDP			; ACMIView::Togglelockrange
_TEXT	ENDS
; Function compile flags: /Odtp
; File c:\users\zhitao li\documents\visual studio 2012\projects\freefalcon\acmi\src\acmiview.cpp
_TEXT	SEGMENT
_this$ = -4						; size = 4
_val$ = 8						; size = 4
?ToggleLockLines@ACMIView@@QAEXH@Z PROC			; ACMIView::ToggleLockLines
; _this$ = ecx

; 161  : {

	push	ebp
	mov	ebp, esp
	push	ecx
	mov	DWORD PTR _this$[ebp], ecx

; 162  : 	_doLockLine = val;

	mov	eax, DWORD PTR _this$[ebp]
	mov	ecx, DWORD PTR _val$[ebp]
	mov	DWORD PTR [eax+408], ecx

; 163  : }

	mov	esp, ebp
	pop	ebp
	ret	4
?ToggleLockLines@ACMIView@@QAEXH@Z ENDP			; ACMIView::ToggleLockLines
_TEXT	ENDS
; Function compile flags: /Odtp
; File c:\users\zhitao li\documents\visual studio 2012\projects\freefalcon\acmi\src\acmiview.cpp
_TEXT	SEGMENT
_this$ = -8						; size = 4
tv65 = -4						; size = 4
_val$ = 8						; size = 4
?TogglePoles@ACMIView@@QAEXH@Z PROC			; ACMIView::TogglePoles
; _this$ = ecx

; 171  : {

	push	ebp
	mov	ebp, esp
	sub	esp, 8
	mov	DWORD PTR _this$[ebp], ecx

; 172  : 	DrawablePoled::drawPole = val ? TRUE : FALSE;

	cmp	DWORD PTR _val$[ebp], 0
	je	SHORT $LN3@TogglePole
	mov	DWORD PTR tv65[ebp], 1
	jmp	SHORT $LN4@TogglePole
$LN3@TogglePole:
	mov	DWORD PTR tv65[ebp], 0
$LN4@TogglePole:
	mov	eax, DWORD PTR tv65[ebp]
	mov	DWORD PTR ?drawPole@DrawablePoled@@2HA, eax ; DrawablePoled::drawPole

; 173  : }

	mov	esp, ebp
	pop	ebp
	ret	4
?TogglePoles@ACMIView@@QAEXH@Z ENDP			; ACMIView::TogglePoles
_TEXT	ENDS
; Function compile flags: /Odtp
; File c:\users\zhitao li\documents\visual studio 2012\projects\freefalcon\acmi\src\acmiview.cpp
_TEXT	SEGMENT
_this$ = -4						; size = 4
_val$ = 8						; size = 4
?ToggleWireFrame@ACMIView@@QAEXH@Z PROC			; ACMIView::ToggleWireFrame
; _this$ = ecx

; 156  : {

	push	ebp
	mov	ebp, esp
	push	ecx
	mov	DWORD PTR _this$[ebp], ecx

; 157  : 	_doWireFrame = val;

	mov	eax, DWORD PTR _this$[ebp]
	mov	ecx, DWORD PTR _val$[ebp]
	mov	DWORD PTR [eax+404], ecx

; 158  : }

	mov	esp, ebp
	pop	ebp
	ret	4
?ToggleWireFrame@ACMIView@@QAEXH@Z ENDP			; ACMIView::ToggleWireFrame
_TEXT	ENDS
; Function compile flags: /Odtp
; File c:\users\zhitao li\documents\visual studio 2012\projects\freefalcon\acmi\src\acmiview.cpp
_TEXT	SEGMENT
_this$ = -8						; size = 4
tv65 = -4						; size = 4
_val$ = 8						; size = 4
?ToggleTurnRadius@ACMIView@@QAEXH@Z PROC		; ACMIView::ToggleTurnRadius
; _this$ = ecx

; 151  : {

	push	ebp
	mov	ebp, esp
	sub	esp, 8
	mov	DWORD PTR _this$[ebp], ecx

; 152  : 	DrawablePoled::drawTurnRadius = val ? TRUE : FALSE;

	cmp	DWORD PTR _val$[ebp], 0
	je	SHORT $LN3@ToggleTurn
	mov	DWORD PTR tv65[ebp], 1
	jmp	SHORT $LN4@ToggleTurn
$LN3@ToggleTurn:
	mov	DWORD PTR tv65[ebp], 0
$LN4@ToggleTurn:
	mov	eax, DWORD PTR tv65[ebp]
	mov	DWORD PTR ?drawTurnRadius@DrawablePoled@@2HA, eax ; DrawablePoled::drawTurnRadius

; 153  : }

	mov	esp, ebp
	pop	ebp
	ret	4
?ToggleTurnRadius@ACMIView@@QAEXH@Z ENDP		; ACMIView::ToggleTurnRadius
_TEXT	ENDS
; Function compile flags: /Odtp
; File c:\users\zhitao li\documents\visual studio 2012\projects\freefalcon\acmi\src\acmiview.cpp
_TEXT	SEGMENT
_this$ = -8						; size = 4
tv65 = -4						; size = 4
_val$ = 8						; size = 4
?ToggleTurnRate@ACMIView@@QAEXH@Z PROC			; ACMIView::ToggleTurnRate
; _this$ = ecx

; 146  : {

	push	ebp
	mov	ebp, esp
	sub	esp, 8
	mov	DWORD PTR _this$[ebp], ecx

; 147  : 	DrawablePoled::drawTurnRate = val ? TRUE : FALSE;

	cmp	DWORD PTR _val$[ebp], 0
	je	SHORT $LN3@ToggleTurn
	mov	DWORD PTR tv65[ebp], 1
	jmp	SHORT $LN4@ToggleTurn
$LN3@ToggleTurn:
	mov	DWORD PTR tv65[ebp], 0
$LN4@ToggleTurn:
	mov	eax, DWORD PTR tv65[ebp]
	mov	DWORD PTR ?drawTurnRate@DrawablePoled@@2HA, eax ; DrawablePoled::drawTurnRate

; 148  : }

	mov	esp, ebp
	pop	ebp
	ret	4
?ToggleTurnRate@ACMIView@@QAEXH@Z ENDP			; ACMIView::ToggleTurnRate
_TEXT	ENDS
; Function compile flags: /Odtp
; File c:\users\zhitao li\documents\visual studio 2012\projects\freefalcon\acmi\src\acmiview.cpp
_TEXT	SEGMENT
_this$ = -8						; size = 4
tv65 = -4						; size = 4
_val$ = 8						; size = 4
?ToggleAltitude@ACMIView@@QAEXH@Z PROC			; ACMIView::ToggleAltitude
; _this$ = ecx

; 136  : {

	push	ebp
	mov	ebp, esp
	sub	esp, 8
	mov	DWORD PTR _this$[ebp], ecx

; 137  : 	DrawablePoled::drawAlt = val ? TRUE : FALSE;

	cmp	DWORD PTR _val$[ebp], 0
	je	SHORT $LN3@ToggleAlti
	mov	DWORD PTR tv65[ebp], 1
	jmp	SHORT $LN4@ToggleAlti
$LN3@ToggleAlti:
	mov	DWORD PTR tv65[ebp], 0
$LN4@ToggleAlti:
	mov	eax, DWORD PTR tv65[ebp]
	mov	DWORD PTR ?drawAlt@DrawablePoled@@2HA, eax ; DrawablePoled::drawAlt

; 138  : }

	mov	esp, ebp
	pop	ebp
	ret	4
?ToggleAltitude@ACMIView@@QAEXH@Z ENDP			; ACMIView::ToggleAltitude
_TEXT	ENDS
; Function compile flags: /Odtp
; File c:\users\zhitao li\documents\visual studio 2012\projects\freefalcon\acmi\src\acmiview.cpp
_TEXT	SEGMENT
_this$ = -8						; size = 4
tv65 = -4						; size = 4
_val$ = 8						; size = 4
?ToggleAirSpeed@ACMIView@@QAEXH@Z PROC			; ACMIView::ToggleAirSpeed
; _this$ = ecx

; 141  : {

	push	ebp
	mov	ebp, esp
	sub	esp, 8
	mov	DWORD PTR _this$[ebp], ecx

; 142  : 	DrawablePoled::drawSpeed = val ? TRUE : FALSE;

	cmp	DWORD PTR _val$[ebp], 0
	je	SHORT $LN3@ToggleAirS
	mov	DWORD PTR tv65[ebp], 1
	jmp	SHORT $LN4@ToggleAirS
$LN3@ToggleAirS:
	mov	DWORD PTR tv65[ebp], 0
$LN4@ToggleAirS:
	mov	eax, DWORD PTR tv65[ebp]
	mov	DWORD PTR ?drawSpeed@DrawablePoled@@2HA, eax ; DrawablePoled::drawSpeed

; 143  : }

	mov	esp, ebp
	pop	ebp
	ret	4
?ToggleAirSpeed@ACMIView@@QAEXH@Z ENDP			; ACMIView::ToggleAirSpeed
_TEXT	ENDS
; Function compile flags: /Odtp
; File c:\users\zhitao li\documents\visual studio 2012\projects\freefalcon\acmi\src\acmiview.cpp
_TEXT	SEGMENT
_this$ = -8						; size = 4
tv65 = -4						; size = 4
_val$ = 8						; size = 4
?ToggleHeading@ACMIView@@QAEXH@Z PROC			; ACMIView::ToggleHeading
; _this$ = ecx

; 131  : {

	push	ebp
	mov	ebp, esp
	sub	esp, 8
	mov	DWORD PTR _this$[ebp], ecx

; 132  : 	DrawablePoled::drawHeading = val ? TRUE : FALSE;

	cmp	DWORD PTR _val$[ebp], 0
	je	SHORT $LN3@ToggleHead
	mov	DWORD PTR tv65[ebp], 1
	jmp	SHORT $LN4@ToggleHead
$LN3@ToggleHead:
	mov	DWORD PTR tv65[ebp], 0
$LN4@ToggleHead:
	mov	eax, DWORD PTR tv65[ebp]
	mov	DWORD PTR ?drawHeading@DrawablePoled@@2HA, eax ; DrawablePoled::drawHeading

; 133  : }

	mov	esp, ebp
	pop	ebp
	ret	4
?ToggleHeading@ACMIView@@QAEXH@Z ENDP			; ACMIView::ToggleHeading
_TEXT	ENDS
; Function compile flags: /Odtp
; File c:\users\zhitao li\documents\visual studio 2012\projects\freefalcon\acmi\src\acmiview.cpp
_TEXT	SEGMENT
_this$ = -8						; size = 4
tv65 = -4						; size = 4
_doIDTags$ = 8						; size = 4
?ToggleLabel@ACMIView@@QAEXH@Z PROC			; ACMIView::ToggleLabel
; _this$ = ecx

; 126  : {

	push	ebp
	mov	ebp, esp
	sub	esp, 8
	mov	DWORD PTR _this$[ebp], ecx

; 127  : 	DrawableBSP::drawLabels = doIDTags ? TRUE : FALSE;

	cmp	DWORD PTR _doIDTags$[ebp], 0
	je	SHORT $LN3@ToggleLabe
	mov	DWORD PTR tv65[ebp], 1
	jmp	SHORT $LN4@ToggleLabe
$LN3@ToggleLabe:
	mov	DWORD PTR tv65[ebp], 0
$LN4@ToggleLabe:
	mov	eax, DWORD PTR tv65[ebp]
	mov	DWORD PTR ?drawLabels@DrawableBSP@@2HA, eax ; DrawableBSP::drawLabels

; 128  : }

	mov	esp, ebp
	pop	ebp
	ret	4
?ToggleLabel@ACMIView@@QAEXH@Z ENDP			; ACMIView::ToggleLabel
_TEXT	ENDS
; Function compile flags: /Odtp
; File c:\users\zhitao li\documents\visual studio 2012\projects\freefalcon\acmi\src\acmiview.cpp
_TEXT	SEGMENT
_this$ = -4						; size = 4
?ToggleScreenShot@ACMIView@@QAEXXZ PROC			; ACMIView::ToggleScreenShot
; _this$ = ecx

; 165  : {

	push	ebp
	mov	ebp, esp
	push	ecx
	mov	DWORD PTR _this$[ebp], ecx

; 166  : 	_takeScreenShot ^= 1;

	mov	eax, DWORD PTR _this$[ebp]
	mov	ecx, DWORD PTR [eax+340]
	xor	ecx, 1
	mov	edx, DWORD PTR _this$[ebp]
	mov	DWORD PTR [edx+340], ecx

; 167  : 	_tape->SetScreenCapturing( _takeScreenShot );

	mov	eax, DWORD PTR _this$[ebp]
	mov	ecx, DWORD PTR [eax+340]
	push	ecx
	mov	edx, DWORD PTR _this$[ebp]
	mov	ecx, DWORD PTR [edx+348]
	call	?SetScreenCapturing@ACMITape@@QAEXH@Z	; ACMITape::SetScreenCapturing

; 168  : };

	mov	esp, ebp
	pop	ebp
	ret	0
?ToggleScreenShot@ACMIView@@QAEXXZ ENDP			; ACMIView::ToggleScreenShot
_TEXT	ENDS
; Function compile flags: /Odtp
; File c:\users\zhitao li\documents\visual studio 2012\projects\freefalcon\acmi\src\include\acmvwinl.cpp
;	COMDAT ?Tape@ACMIView@@QAEPAVACMITape@@XZ
_TEXT	SEGMENT
_this$ = -4						; size = 4
?Tape@ACMIView@@QAEPAVACMITape@@XZ PROC			; ACMIView::Tape, COMDAT
; _this$ = ecx

; 19   : {

	push	ebp
	mov	ebp, esp
	push	ecx
	mov	DWORD PTR _this$[ebp], ecx

; 20   : 	return _tape; 

	mov	eax, DWORD PTR _this$[ebp]
	mov	eax, DWORD PTR [eax+348]

; 21   : }

	mov	esp, ebp
	pop	ebp
	ret	0
?Tape@ACMIView@@QAEPAVACMITape@@XZ ENDP			; ACMIView::Tape
_TEXT	ENDS
; Function compile flags: /Odtp
; File c:\users\zhitao li\documents\visual studio 2012\projects\freefalcon\acmi\src\acmiview.cpp
_TEXT	SEGMENT
_this$ = -16						; size = 4
__$EHRec$ = -12						; size = 12
??1ACMIView@@QAE@XZ PROC				; ACMIView::~ACMIView
; _this$ = ecx

; 91   : {

	push	ebp
	mov	ebp, esp
	push	-1
	push	__ehhandler$??1ACMIView@@QAE@XZ
	mov	eax, DWORD PTR fs:0
	push	eax
	push	ecx
	mov	eax, DWORD PTR ___security_cookie
	xor	eax, ebp
	push	eax
	lea	eax, DWORD PTR __$EHRec$[ebp]
	mov	DWORD PTR fs:0, eax
	mov	DWORD PTR _this$[ebp], ecx
	mov	DWORD PTR __$EHRec$[ebp+8], 0

; 92   : 	Init();

	mov	ecx, DWORD PTR _this$[ebp]
	call	?Init@ACMIView@@QAEXXZ			; ACMIView::Init

; 93   : 
; 94   : 	//acmiView = NULL;
; 95   : }

	mov	DWORD PTR __$EHRec$[ebp+8], -1
	mov	ecx, DWORD PTR _this$[ebp]
	add	ecx, 280				; 00000118H
	call	??1Texture@@QAE@XZ			; Texture::~Texture
	mov	ecx, DWORD PTR __$EHRec$[ebp]
	mov	DWORD PTR fs:0, ecx
	pop	ecx
	mov	esp, ebp
	pop	ebp
	ret	0
_TEXT	ENDS
text$x	SEGMENT
__unwindfunclet$??1ACMIView@@QAE@XZ$0:
	mov	ecx, DWORD PTR _this$[ebp]
	add	ecx, 280				; 00000118H
	jmp	??1Texture@@QAE@XZ			; Texture::~Texture
__ehhandler$??1ACMIView@@QAE@XZ:
	mov	edx, DWORD PTR [esp+8]
	lea	eax, DWORD PTR [edx+12]
	mov	ecx, DWORD PTR [edx-8]
	xor	ecx, eax
	call	@__security_check_cookie@4
	mov	eax, OFFSET __ehfuncinfo$??1ACMIView@@QAE@XZ
	jmp	___CxxFrameHandler3
text$x	ENDS
??1ACMIView@@QAE@XZ ENDP				; ACMIView::~ACMIView
; Function compile flags: /Odtp
; File c:\users\zhitao li\documents\visual studio 2012\projects\freefalcon\acmi\src\acmiview.cpp
_TEXT	SEGMENT
_this$ = -16						; size = 4
__$EHRec$ = -12						; size = 12
??0ACMIView@@QAE@XZ PROC				; ACMIView::ACMIView
; _this$ = ecx

; 55   : {

	push	ebp
	mov	ebp, esp
	push	-1
	push	__ehhandler$??0ACMIView@@QAE@XZ
	mov	eax, DWORD PTR fs:0
	push	eax
	push	ecx
	mov	eax, DWORD PTR ___security_cookie
	xor	eax, ebp
	push	eax
	lea	eax, DWORD PTR __$EHRec$[ebp]
	mov	DWORD PTR fs:0, eax
	mov	DWORD PTR _this$[ebp], ecx
	mov	ecx, DWORD PTR _this$[ebp]
	add	ecx, 280				; 00000118H
	call	??0Texture@@QAE@XZ			; Texture::Texture
	mov	DWORD PTR __$EHRec$[ebp+8], 0

; 56   : 	_platform = NULL;

	mov	eax, DWORD PTR _this$[ebp]
	mov	DWORD PTR [eax+344], 0

; 57   : 	_win = NULL;

	mov	ecx, DWORD PTR _this$[ebp]
	mov	DWORD PTR [ecx+304], 0

; 58   : 
; 59   : 	_tape = NULL;

	mov	edx, DWORD PTR _this$[ebp]
	mov	DWORD PTR [edx+348], 0

; 60   : 	_entityUIMappings = NULL;

	mov	eax, DWORD PTR _this$[ebp]
	mov	DWORD PTR [eax], 0

; 61   : 
; 62   : 	_isReady = FALSE;

	mov	ecx, DWORD PTR _this$[ebp]
	mov	DWORD PTR [ecx+328], 0

; 63   : 	_tapeHasLoaded = FALSE;

	mov	edx, DWORD PTR _this$[ebp]
	mov	DWORD PTR [edx+332], 0

; 64   : 
; 65   : 	_pannerX = 0.0f;

	mov	eax, DWORD PTR _this$[ebp]
	movss	xmm0, DWORD PTR __real@00000000
	movss	DWORD PTR [eax+352], xmm0

; 66   : 	_pannerY = 0.0f;

	mov	ecx, DWORD PTR _this$[ebp]
	movss	xmm0, DWORD PTR __real@00000000
	movss	DWORD PTR [ecx+356], xmm0

; 67   : 	_pannerZ = 0.0f;

	mov	edx, DWORD PTR _this$[ebp]
	movss	xmm0, DWORD PTR __real@00000000
	movss	DWORD PTR [edx+360], xmm0

; 68   : 	_pannerAz = 0.0f;

	mov	eax, DWORD PTR _this$[ebp]
	movss	xmm0, DWORD PTR __real@00000000
	movss	DWORD PTR [eax+364], xmm0

; 69   : 	_pannerEl = 0.0f;

	mov	ecx, DWORD PTR _this$[ebp]
	movss	xmm0, DWORD PTR __real@00000000
	movss	DWORD PTR [ecx+368], xmm0

; 70   : 	_chaseX = 0.0f;

	mov	edx, DWORD PTR _this$[ebp]
	movss	xmm0, DWORD PTR __real@00000000
	movss	DWORD PTR [edx+372], xmm0

; 71   : 	_chaseY = 0.0f;

	mov	eax, DWORD PTR _this$[ebp]
	movss	xmm0, DWORD PTR __real@00000000
	movss	DWORD PTR [eax+376], xmm0

; 72   : 	_chaseZ = 0.0f;

	mov	ecx, DWORD PTR _this$[ebp]
	movss	xmm0, DWORD PTR __real@00000000
	movss	DWORD PTR [ecx+380], xmm0

; 73   : 	_tracking = FALSE;

	mov	edx, DWORD PTR _this$[ebp]
	mov	DWORD PTR [edx+384], 0

; 74   : 
; 75   : 	_doWireFrame = 0;

	mov	eax, DWORD PTR _this$[ebp]
	mov	DWORD PTR [eax+404], 0

; 76   : 	_doLockLine = 0;

	mov	ecx, DWORD PTR _this$[ebp]
	mov	DWORD PTR [ecx+408], 0

; 77   : 
; 78   : 	_camYaw = 0.0f;

	mov	edx, DWORD PTR _this$[ebp]
	movss	xmm0, DWORD PTR __real@00000000
	movss	DWORD PTR [edx+388], xmm0

; 79   : 	_camPitch = 0.0f;

	mov	eax, DWORD PTR _this$[ebp]
	movss	xmm0, DWORD PTR __real@00000000
	movss	DWORD PTR [eax+392], xmm0

; 80   : 	_camRoll = 0.0f;

	mov	ecx, DWORD PTR _this$[ebp]
	movss	xmm0, DWORD PTR __real@00000000
	movss	DWORD PTR [ecx+396], xmm0

; 81   : 
; 82   : 
; 83   : 	Init();

	mov	ecx, DWORD PTR _this$[ebp]
	call	?Init@ACMIView@@QAEXXZ			; ACMIView::Init

; 84   : }

	mov	DWORD PTR __$EHRec$[ebp+8], -1
	mov	eax, DWORD PTR _this$[ebp]
	mov	ecx, DWORD PTR __$EHRec$[ebp]
	mov	DWORD PTR fs:0, ecx
	pop	ecx
	mov	esp, ebp
	pop	ebp
	ret	0
_TEXT	ENDS
text$x	SEGMENT
__unwindfunclet$??0ACMIView@@QAE@XZ$0:
	mov	ecx, DWORD PTR _this$[ebp]
	add	ecx, 280				; 00000118H
	jmp	??1Texture@@QAE@XZ			; Texture::~Texture
__ehhandler$??0ACMIView@@QAE@XZ:
	mov	edx, DWORD PTR [esp+8]
	lea	eax, DWORD PTR [edx+12]
	mov	ecx, DWORD PTR [edx-8]
	xor	ecx, eax
	call	@__security_check_cookie@4
	mov	eax, OFFSET __ehfuncinfo$??0ACMIView@@QAE@XZ
	jmp	___CxxFrameHandler3
text$x	ENDS
??0ACMIView@@QAE@XZ ENDP				; ACMIView::ACMIView
; Function compile flags: /Odtp
;	COMDAT ??_GACMITape@@QAEPAXI@Z
_TEXT	SEGMENT
_this$ = -4						; size = 4
___flags$ = 8						; size = 4
??_GACMITape@@QAEPAXI@Z PROC				; ACMITape::`scalar deleting destructor', COMDAT
; _this$ = ecx
	push	ebp
	mov	ebp, esp
	push	ecx
	mov	DWORD PTR _this$[ebp], ecx
	mov	ecx, DWORD PTR _this$[ebp]
	call	??1ACMITape@@QAE@XZ			; ACMITape::~ACMITape
	mov	eax, DWORD PTR ___flags$[ebp]
	and	eax, 1
	je	SHORT $LN1@scalar
	mov	ecx, DWORD PTR _this$[ebp]
	push	ecx
	call	??3@YAXPAX@Z				; operator delete
	add	esp, 4
$LN1@scalar:
	mov	eax, DWORD PTR _this$[ebp]
	mov	esp, ebp
	pop	ebp
	ret	4
??_GACMITape@@QAEPAXI@Z ENDP				; ACMITape::`scalar deleting destructor'
_TEXT	ENDS
; Function compile flags: /Odtp
; File c:\users\zhitao li\documents\visual studio 2012\projects\freefalcon\acmi\src\include\acmtpinl.cpp
;	COMDAT ?EntityData@ACMITape@@QAEPAUACMIEntityData@@H@Z
_TEXT	SEGMENT
_this$ = -4						; size = 4
_index$ = 8						; size = 4
?EntityData@ACMITape@@QAEPAUACMIEntityData@@H@Z PROC	; ACMITape::EntityData, COMDAT
; _this$ = ecx

; 165  : {

	push	ebp
	mov	ebp, esp
	push	ecx
	mov	DWORD PTR _this$[ebp], ecx

; 166  : 	// F4Assert(_tape != NULL);
; 167  : 	// F4Assert(index >= 0 && index < NumEntities());
; 168  : 
; 169  : 	return
; 170  : 	(
; 171  : 		(ACMIEntityData *)
; 172  : 		(
; 173  : 			((char *)_tape) +
; 174  : 			sizeof(ACMITapeHeader) +
; 175  : 			index * sizeof(ACMIEntityData)
; 176  : 		)
; 177  : 	);

	mov	eax, DWORD PTR _this$[ebp]
	mov	ecx, DWORD PTR [eax+156]
	mov	edx, DWORD PTR _index$[ebp]
	imul	edx, 36					; 00000024H
	lea	eax, DWORD PTR [ecx+edx+80]

; 178  : }

	mov	esp, ebp
	pop	ebp
	ret	4
?EntityData@ACMITape@@QAEPAUACMIEntityData@@H@Z ENDP	; ACMITape::EntityData
_TEXT	ENDS
; Function compile flags: /Odtp
; File c:\users\zhitao li\documents\visual studio 2012\projects\freefalcon\acmi\src\include\acmitape.h
;	COMDAT ?SetScreenCapturing@ACMITape@@QAEXH@Z
_TEXT	SEGMENT
_this$ = -4						; size = 4
_val$ = 8						; size = 4
?SetScreenCapturing@ACMITape@@QAEXH@Z PROC		; ACMITape::SetScreenCapturing, COMDAT
; _this$ = ecx

; 534  : 	{

	push	ebp
	mov	ebp, esp
	push	ecx
	mov	DWORD PTR _this$[ebp], ecx

; 535  : 		_screenCapturing = val;

	mov	eax, DWORD PTR _this$[ebp]
	mov	ecx, DWORD PTR _val$[ebp]
	mov	DWORD PTR [eax+84], ecx

; 536  : 	};

	mov	esp, ebp
	pop	ebp
	ret	4
?SetScreenCapturing@ACMITape@@QAEXH@Z ENDP		; ACMITape::SetScreenCapturing
_TEXT	ENDS
; Function compile flags: /Odtp
; File c:\users\zhitao li\documents\visual studio 2012\projects\freefalcon\acmi\src\include\acmtpinl.cpp
;	COMDAT ?IsLoaded@ACMITape@@QAEHXZ
_TEXT	SEGMENT
_this$ = -4						; size = 4
?IsLoaded@ACMITape@@QAEHXZ PROC				; ACMITape::IsLoaded, COMDAT
; _this$ = ecx

; 40   : {

	push	ebp
	mov	ebp, esp
	push	ecx
	mov	DWORD PTR _this$[ebp], ecx

; 41   : 	if ( _tape == NULL )

	mov	eax, DWORD PTR _this$[ebp]
	cmp	DWORD PTR [eax+156], 0
	jne	SHORT $LN1@IsLoaded

; 42   : 		return FALSE;

	xor	eax, eax
	jmp	SHORT $LN2@IsLoaded
$LN1@IsLoaded:

; 43   : 	return TRUE;

	mov	eax, 1
$LN2@IsLoaded:

; 44   : }

	mov	esp, ebp
	pop	ebp
	ret	0
?IsLoaded@ACMITape@@QAEHXZ ENDP				; ACMITape::IsLoaded
_TEXT	ENDS
; Function compile flags: /Odtp
; File c:\users\zhitao li\documents\visual studio 2012\projects\freefalcon\acmi\src\include\acmtpinl.cpp
;	COMDAT ?NumEntities@ACMITape@@QAEHXZ
_TEXT	SEGMENT
_this$ = -4						; size = 4
?NumEntities@ACMITape@@QAEHXZ PROC			; ACMITape::NumEntities, COMDAT
; _this$ = ecx

; 10   : {

	push	ebp
	mov	ebp, esp
	push	ecx
	mov	DWORD PTR _this$[ebp], ecx

; 11   : 	// F4Assert(_tape != NULL);
; 12   : 
; 13   : 	return _tapeHdr.numEntities;

	mov	eax, DWORD PTR _this$[ebp]
	mov	eax, DWORD PTR [eax+12]

; 14   : }

	mov	esp, ebp
	pop	ebp
	ret	0
?NumEntities@ACMITape@@QAEHXZ ENDP			; ACMITape::NumEntities
_TEXT	ENDS
; Function compile flags: /Odtp
; File c:\users\zhitao li\documents\visual studio 2012\projects\freefalcon\falclib\include\playerop.h
;	COMDAT ?ObjectDetailLevel@PlayerOptionsClass@@QAEMXZ
_TEXT	SEGMENT
_this$ = -4						; size = 4
?ObjectDetailLevel@PlayerOptionsClass@@QAEMXZ PROC	; PlayerOptionsClass::ObjectDetailLevel, COMDAT
; _this$ = ecx

; 132  : 	float ObjectDetailLevel (void)							{ return ObjDetailLevel; }

	push	ebp
	mov	ebp, esp
	push	ecx
	mov	DWORD PTR _this$[ebp], ecx
	mov	eax, DWORD PTR _this$[ebp]
	fld	DWORD PTR [eax+16]
	mov	esp, ebp
	pop	ebp
	ret	0
?ObjectDetailLevel@PlayerOptionsClass@@QAEMXZ ENDP	; PlayerOptionsClass::ObjectDetailLevel
_TEXT	ENDS
; Function compile flags: /Odtp
; File c:\users\zhitao li\documents\visual studio 2012\projects\freefalcon\falclib\include\playerop.h
;	COMDAT ?MaxTerrainLevel@PlayerOptionsClass@@QAEHXZ
_TEXT	SEGMENT
_this$ = -4						; size = 4
?MaxTerrainLevel@PlayerOptionsClass@@QAEHXZ PROC	; PlayerOptionsClass::MaxTerrainLevel, COMDAT
; _this$ = ecx

; 127  : 	int MaxTerrainLevel (void)								{ return DispMaxTerrainLevel; }

	push	ebp
	mov	ebp, esp
	push	ecx
	mov	DWORD PTR _this$[ebp], ecx
	mov	eax, DWORD PTR _this$[ebp]
	mov	eax, DWORD PTR [eax+8]
	mov	esp, ebp
	pop	ebp
	ret	0
?MaxTerrainLevel@PlayerOptionsClass@@QAEHXZ ENDP	; PlayerOptionsClass::MaxTerrainLevel
_TEXT	ENDS
; Function compile flags: /Odtp
; File c:\users\zhitao li\documents\visual studio 2012\projects\freefalcon\falclib\include\playerop.h
;	COMDAT ?TerrainDistance@PlayerOptionsClass@@QAEMXZ
_TEXT	SEGMENT
_this$ = -4						; size = 4
?TerrainDistance@PlayerOptionsClass@@QAEMXZ PROC	; PlayerOptionsClass::TerrainDistance, COMDAT
; _this$ = ecx

; 125  : 	float TerrainDistance (void)							{ return DispTerrainDist; }

	push	ebp
	mov	ebp, esp
	push	ecx
	mov	DWORD PTR _this$[ebp], ecx
	mov	eax, DWORD PTR _this$[ebp]
	fld	DWORD PTR [eax+4]
	mov	esp, ebp
	pop	ebp
	ret	0
?TerrainDistance@PlayerOptionsClass@@QAEMXZ ENDP	; PlayerOptionsClass::TerrainDistance
_TEXT	ENDS
; Function compile flags: /Odtp
; File c:\users\zhitao li\documents\visual studio 2012\projects\freefalcon\falclib\include\playerop.h
;	COMDAT ?FilteringOn@PlayerOptionsClass@@QAEHXZ
_TEXT	SEGMENT
_this$ = -8						; size = 4
tv68 = -4						; size = 4
?FilteringOn@PlayerOptionsClass@@QAEHXZ PROC		; PlayerOptionsClass::FilteringOn, COMDAT
; _this$ = ecx

; 116  : 	int FilteringOn (void)									{ return (DispFlags & DISP_BILINEAR) && TRUE; }

	push	ebp
	mov	ebp, esp
	sub	esp, 8
	mov	DWORD PTR _this$[ebp], ecx
	mov	eax, DWORD PTR _this$[ebp]
	mov	ecx, DWORD PTR [eax]
	and	ecx, 16					; 00000010H
	je	SHORT $LN3@FilteringO
	mov	edx, 1
	test	edx, edx
	je	SHORT $LN3@FilteringO
	mov	DWORD PTR tv68[ebp], 1
	jmp	SHORT $LN4@FilteringO
$LN3@FilteringO:
	mov	DWORD PTR tv68[ebp], 0
$LN4@FilteringO:
	mov	eax, DWORD PTR tv68[ebp]
	mov	esp, ebp
	pop	ebp
	ret	0
?FilteringOn@PlayerOptionsClass@@QAEHXZ ENDP		; PlayerOptionsClass::FilteringOn
_TEXT	ENDS
; Function compile flags: /Odtp
; File c:\users\zhitao li\documents\visual studio 2012\projects\freefalcon\falclib\include\playerop.h
;	COMDAT ?HazingOn@PlayerOptionsClass@@QAEHXZ
_TEXT	SEGMENT
_this$ = -8						; size = 4
tv68 = -4						; size = 4
?HazingOn@PlayerOptionsClass@@QAEHXZ PROC		; PlayerOptionsClass::HazingOn, COMDAT
; _this$ = ecx

; 115  : 	int HazingOn (void)										{ return (DispFlags & DISP_HAZING) && TRUE; }

	push	ebp
	mov	ebp, esp
	sub	esp, 8
	mov	DWORD PTR _this$[ebp], ecx
	mov	eax, DWORD PTR _this$[ebp]
	mov	ecx, DWORD PTR [eax]
	and	ecx, 2
	je	SHORT $LN3@HazingOn
	mov	edx, 1
	test	edx, edx
	je	SHORT $LN3@HazingOn
	mov	DWORD PTR tv68[ebp], 1
	jmp	SHORT $LN4@HazingOn
$LN3@HazingOn:
	mov	DWORD PTR tv68[ebp], 0
$LN4@HazingOn:
	mov	eax, DWORD PTR tv68[ebp]
	mov	esp, ebp
	pop	ebp
	ret	0
?HazingOn@PlayerOptionsClass@@QAEHXZ ENDP		; PlayerOptionsClass::HazingOn
_TEXT	ENDS
; Function compile flags: /Odtp
; File c:\users\zhitao li\documents\visual studio 2012\projects\freefalcon\graphics\include\device.h
;	COMDAT ?GetDefaultRC@DisplayDevice@@QAEPAVDXContext@@XZ
_TEXT	SEGMENT
_this$ = -4						; size = 4
?GetDefaultRC@DisplayDevice@@QAEPAVDXContext@@XZ PROC	; DisplayDevice::GetDefaultRC, COMDAT
; _this$ = ecx

; 29   : 	DXContext *GetDefaultRC( void )			{ return m_DXCtx; };

	push	ebp
	mov	ebp, esp
	push	ecx
	mov	DWORD PTR _this$[ebp], ecx
	mov	eax, DWORD PTR _this$[ebp]
	mov	eax, DWORD PTR [eax]
	mov	esp, ebp
	pop	ebp
	ret	0
?GetDefaultRC@DisplayDevice@@QAEPAVDXContext@@XZ ENDP	; DisplayDevice::GetDefaultRC
_TEXT	ENDS
; Function compile flags: /Odtp
; File c:\users\zhitao li\documents\visual studio 2012\projects\freefalcon\vu2\include\vuentity.h
;	COMDAT ?EntityType@VuEntity@@QBEPAUVuEntityType@@XZ
_TEXT	SEGMENT
_this$ = -4						; size = 4
?EntityType@VuEntity@@QBEPAUVuEntityType@@XZ PROC	; VuEntity::EntityType, COMDAT
; _this$ = ecx

; 176  : 	VuEntityType *EntityType() const { return const_cast<VuEntityType*>(entityTypePtr_); }

	push	ebp
	mov	ebp, esp
	push	ecx
	mov	DWORD PTR _this$[ebp], ecx
	mov	eax, DWORD PTR _this$[ebp]
	mov	eax, DWORD PTR [eax+112]
	mov	esp, ebp
	pop	ebp
	ret	0
?EntityType@VuEntity@@QBEPAUVuEntityType@@XZ ENDP	; VuEntity::EntityType
_TEXT	ENDS
; Function compile flags: /Odtp
; File c:\users\zhitao li\documents\visual studio 2012\projects\freefalcon\ui95\chandler.h
;	COMDAT ?GetFront@C_Handler@@QAEPAVImageBuffer@@XZ
_TEXT	SEGMENT
_this$ = -4						; size = 4
?GetFront@C_Handler@@QAEPAVImageBuffer@@XZ PROC		; C_Handler::GetFront, COMDAT
; _this$ = ecx

; 242  : 		ImageBuffer *GetFront() { return(Front_); }

	push	ebp
	mov	ebp, esp
	push	ecx
	mov	DWORD PTR _this$[ebp], ecx
	mov	eax, DWORD PTR _this$[ebp]
	mov	eax, DWORD PTR [eax+16]
	mov	esp, ebp
	pop	ebp
	ret	0
?GetFront@C_Handler@@QAEPAVImageBuffer@@XZ ENDP		; C_Handler::GetFront
_TEXT	ENDS
; Function compile flags: /Odtp
; File c:\users\zhitao li\documents\visual studio 2012\projects\freefalcon\ui95\cwindow.h
;	COMDAT ?GetH@C_Window@@QAEFXZ
_TEXT	SEGMENT
_this$ = -4						; size = 4
?GetH@C_Window@@QAEFXZ PROC				; C_Window::GetH, COMDAT
; _this$ = ecx

; 313  : 		short GetH() { return(h_); }

	push	ebp
	mov	ebp, esp
	push	ecx
	mov	DWORD PTR _this$[ebp], ecx
	mov	eax, DWORD PTR _this$[ebp]
	mov	ax, WORD PTR [eax+434]
	mov	esp, ebp
	pop	ebp
	ret	0
?GetH@C_Window@@QAEFXZ ENDP				; C_Window::GetH
_TEXT	ENDS
; Function compile flags: /Odtp
; File c:\users\zhitao li\documents\visual studio 2012\projects\freefalcon\ui95\cwindow.h
;	COMDAT ?GetW@C_Window@@QAEFXZ
_TEXT	SEGMENT
_this$ = -4						; size = 4
?GetW@C_Window@@QAEFXZ PROC				; C_Window::GetW, COMDAT
; _this$ = ecx

; 312  : 		short GetW() { return(w_); }

	push	ebp
	mov	ebp, esp
	push	ecx
	mov	DWORD PTR _this$[ebp], ecx
	mov	eax, DWORD PTR _this$[ebp]
	mov	ax, WORD PTR [eax+432]
	mov	esp, ebp
	pop	ebp
	ret	0
?GetW@C_Window@@QAEFXZ ENDP				; C_Window::GetW
_TEXT	ENDS
; Function compile flags: /Odtp
; File c:\users\zhitao li\documents\visual studio 2012\projects\freefalcon\ui95\cwindow.h
;	COMDAT ?GetY@C_Window@@QAEFXZ
_TEXT	SEGMENT
_this$ = -4						; size = 4
?GetY@C_Window@@QAEFXZ PROC				; C_Window::GetY, COMDAT
; _this$ = ecx

; 311  : 		short GetY() { return(y_); }

	push	ebp
	mov	ebp, esp
	push	ecx
	mov	DWORD PTR _this$[ebp], ecx
	mov	eax, DWORD PTR _this$[ebp]
	mov	ax, WORD PTR [eax+430]
	mov	esp, ebp
	pop	ebp
	ret	0
?GetY@C_Window@@QAEFXZ ENDP				; C_Window::GetY
_TEXT	ENDS
; Function compile flags: /Odtp
; File c:\users\zhitao li\documents\visual studio 2012\projects\freefalcon\ui95\cwindow.h
;	COMDAT ?GetX@C_Window@@QAEFXZ
_TEXT	SEGMENT
_this$ = -4						; size = 4
?GetX@C_Window@@QAEFXZ PROC				; C_Window::GetX, COMDAT
; _this$ = ecx

; 310  : 		short GetX() { return(x_); }

	push	ebp
	mov	ebp, esp
	push	ecx
	mov	DWORD PTR _this$[ebp], ecx
	mov	eax, DWORD PTR _this$[ebp]
	mov	ax, WORD PTR [eax+428]
	mov	esp, ebp
	pop	ebp
	ret	0
?GetX@C_Window@@QAEFXZ ENDP				; C_Window::GetX
_TEXT	ENDS
; Function compile flags: /Odtp
; File c:\users\zhitao li\documents\visual studio 2012\projects\freefalcon\graphics\include\drawbsp.h
;	COMDAT ?LabelColor@DrawableBSP@@QAEKXZ
_TEXT	SEGMENT
_this$ = -4						; size = 4
?LabelColor@DrawableBSP@@QAEKXZ PROC			; DrawableBSP::LabelColor, COMDAT
; _this$ = ecx

; 63   : 	DWORD LabelColor()										{ return labelColor; }

	push	ebp
	mov	ebp, esp
	push	ecx
	mov	DWORD PTR _this$[ebp], ecx
	mov	eax, DWORD PTR _this$[ebp]
	mov	eax, DWORD PTR [eax+164]
	mov	esp, ebp
	pop	ebp
	ret	0
?LabelColor@DrawableBSP@@QAEKXZ ENDP			; DrawableBSP::LabelColor
_TEXT	ENDS
; Function compile flags: /Odtp
; File c:\users\zhitao li\documents\visual studio 2012\projects\freefalcon\graphics\include\drawbsp.h
;	COMDAT ?Label@DrawableBSP@@QAEPADXZ
_TEXT	SEGMENT
_this$ = -4						; size = 4
?Label@DrawableBSP@@QAEPADXZ PROC			; DrawableBSP::Label, COMDAT
; _this$ = ecx

; 62   : 	char *Label()											{ return label; }

	push	ebp
	mov	ebp, esp
	push	ecx
	mov	DWORD PTR _this$[ebp], ecx
	mov	eax, DWORD PTR _this$[ebp]
	add	eax, 128				; 00000080H
	mov	esp, ebp
	pop	ebp
	ret	0
?Label@DrawableBSP@@QAEPADXZ ENDP			; DrawableBSP::Label
_TEXT	ENDS
; Function compile flags: /Odtp
;	COMDAT ??_GRViewPoint@@QAEPAXI@Z
_TEXT	SEGMENT
_this$ = -4						; size = 4
___flags$ = 8						; size = 4
??_GRViewPoint@@QAEPAXI@Z PROC				; RViewPoint::`scalar deleting destructor', COMDAT
; _this$ = ecx
	push	ebp
	mov	ebp, esp
	push	ecx
	mov	DWORD PTR _this$[ebp], ecx
	mov	ecx, DWORD PTR _this$[ebp]
	call	??1RViewPoint@@QAE@XZ			; RViewPoint::~RViewPoint
	mov	eax, DWORD PTR ___flags$[ebp]
	and	eax, 1
	je	SHORT $LN1@scalar
	mov	ecx, DWORD PTR _this$[ebp]
	push	ecx
	call	??3@YAXPAX@Z				; operator delete
	add	esp, 4
$LN1@scalar:
	mov	eax, DWORD PTR _this$[ebp]
	mov	esp, ebp
	pop	ebp
	ret	4
??_GRViewPoint@@QAEPAXI@Z ENDP				; RViewPoint::`scalar deleting destructor'
_TEXT	ENDS
; Function compile flags: /Odtp
; File c:\users\zhitao li\documents\visual studio 2012\projects\freefalcon\graphics\include\rviewpnt.h
;	COMDAT ??1RViewPoint@@QAE@XZ
_TEXT	SEGMENT
_this$ = -16						; size = 4
__$EHRec$ = -12						; size = 12
??1RViewPoint@@QAE@XZ PROC				; RViewPoint::~RViewPoint, COMDAT
; _this$ = ecx

; 25   : 	~RViewPoint()	{ ShiAssert( !IsReady() ); };

	push	ebp
	mov	ebp, esp
	push	-1
	push	__ehhandler$??1RViewPoint@@QAE@XZ
	mov	eax, DWORD PTR fs:0
	push	eax
	push	ecx
	mov	eax, DWORD PTR ___security_cookie
	xor	eax, ebp
	push	eax
	lea	eax, DWORD PTR __$EHRec$[ebp]
	mov	DWORD PTR fs:0, eax
	mov	DWORD PTR _this$[ebp], ecx
	mov	eax, DWORD PTR _this$[ebp]
	mov	DWORD PTR [eax], OFFSET ??_7RViewPoint@@6B@
	mov	DWORD PTR __$EHRec$[ebp+8], 5
	mov	ecx, DWORD PTR _this$[ebp]
	add	ecx, 208				; 000000d0H
	call	??1ObjectDisplayList@@QAE@XZ		; ObjectDisplayList::~ObjectDisplayList
	mov	BYTE PTR __$EHRec$[ebp+8], 4
	mov	ecx, DWORD PTR _this$[ebp]
	add	ecx, 168				; 000000a8H
	call	??1Texture@@QAE@XZ			; Texture::~Texture
	mov	BYTE PTR __$EHRec$[ebp+8], 3
	mov	ecx, DWORD PTR _this$[ebp]
	add	ecx, 144				; 00000090H
	call	??1Texture@@QAE@XZ			; Texture::~Texture
	mov	BYTE PTR __$EHRec$[ebp+8], 2
	mov	ecx, DWORD PTR _this$[ebp]
	add	ecx, 120				; 00000078H
	call	??1Texture@@QAE@XZ			; Texture::~Texture
	mov	BYTE PTR __$EHRec$[ebp+8], 1
	mov	ecx, DWORD PTR _this$[ebp]
	add	ecx, 96					; 00000060H
	call	??1Texture@@QAE@XZ			; Texture::~Texture
	mov	BYTE PTR __$EHRec$[ebp+8], 0
	mov	ecx, DWORD PTR _this$[ebp]
	add	ecx, 72					; 00000048H
	call	??1Texture@@QAE@XZ			; Texture::~Texture
	mov	DWORD PTR __$EHRec$[ebp+8], -1
	mov	ecx, DWORD PTR _this$[ebp]
	call	??1TViewPoint@@QAE@XZ			; TViewPoint::~TViewPoint
	mov	ecx, DWORD PTR __$EHRec$[ebp]
	mov	DWORD PTR fs:0, ecx
	pop	ecx
	mov	esp, ebp
	pop	ebp
	ret	0
_TEXT	ENDS
;	COMDAT text$x
text$x	SEGMENT
__unwindfunclet$??1RViewPoint@@QAE@XZ$0:
	mov	ecx, DWORD PTR _this$[ebp]
	jmp	??1TViewPoint@@QAE@XZ			; TViewPoint::~TViewPoint
__unwindfunclet$??1RViewPoint@@QAE@XZ$1:
	mov	ecx, DWORD PTR _this$[ebp]
	add	ecx, 72					; 00000048H
	jmp	??1Texture@@QAE@XZ			; Texture::~Texture
__unwindfunclet$??1RViewPoint@@QAE@XZ$2:
	mov	ecx, DWORD PTR _this$[ebp]
	add	ecx, 96					; 00000060H
	jmp	??1Texture@@QAE@XZ			; Texture::~Texture
__unwindfunclet$??1RViewPoint@@QAE@XZ$3:
	mov	ecx, DWORD PTR _this$[ebp]
	add	ecx, 120				; 00000078H
	jmp	??1Texture@@QAE@XZ			; Texture::~Texture
__unwindfunclet$??1RViewPoint@@QAE@XZ$4:
	mov	ecx, DWORD PTR _this$[ebp]
	add	ecx, 144				; 00000090H
	jmp	??1Texture@@QAE@XZ			; Texture::~Texture
__unwindfunclet$??1RViewPoint@@QAE@XZ$5:
	mov	ecx, DWORD PTR _this$[ebp]
	add	ecx, 168				; 000000a8H
	jmp	??1Texture@@QAE@XZ			; Texture::~Texture
__ehhandler$??1RViewPoint@@QAE@XZ:
	mov	edx, DWORD PTR [esp+8]
	lea	eax, DWORD PTR [edx+12]
	mov	ecx, DWORD PTR [edx-8]
	xor	ecx, eax
	call	@__security_check_cookie@4
	mov	eax, OFFSET __ehfuncinfo$??1RViewPoint@@QAE@XZ
	jmp	___CxxFrameHandler3
text$x	ENDS
??1RViewPoint@@QAE@XZ ENDP				; RViewPoint::~RViewPoint
; Function compile flags: /Odtp
; File c:\users\zhitao li\documents\visual studio 2012\projects\freefalcon\graphics\include\rviewpnt.h
;	COMDAT ??0RViewPoint@@QAE@XZ
_TEXT	SEGMENT
_this$ = -16						; size = 4
__$EHRec$ = -12						; size = 12
??0RViewPoint@@QAE@XZ PROC				; RViewPoint::RViewPoint, COMDAT
; _this$ = ecx

; 24   : 	RViewPoint()	{ objectLists = NULL; nObjectLists = 0; weather = NULL; bZBuffering = FALSE; }; //JAM 10Nov03

	push	ebp
	mov	ebp, esp
	push	-1
	push	__ehhandler$??0RViewPoint@@QAE@XZ
	mov	eax, DWORD PTR fs:0
	push	eax
	push	ecx
	mov	eax, DWORD PTR ___security_cookie
	xor	eax, ebp
	push	eax
	lea	eax, DWORD PTR __$EHRec$[ebp]
	mov	DWORD PTR fs:0, eax
	mov	DWORD PTR _this$[ebp], ecx
	mov	ecx, DWORD PTR _this$[ebp]
	call	??0TViewPoint@@QAE@XZ			; TViewPoint::TViewPoint
	mov	DWORD PTR __$EHRec$[ebp+8], 0
	mov	eax, DWORD PTR _this$[ebp]
	mov	DWORD PTR [eax], OFFSET ??_7RViewPoint@@6B@
	mov	ecx, DWORD PTR _this$[ebp]
	add	ecx, 72					; 00000048H
	call	??0Texture@@QAE@XZ			; Texture::Texture
	mov	BYTE PTR __$EHRec$[ebp+8], 1
	mov	ecx, DWORD PTR _this$[ebp]
	add	ecx, 96					; 00000060H
	call	??0Texture@@QAE@XZ			; Texture::Texture
	mov	BYTE PTR __$EHRec$[ebp+8], 2
	mov	ecx, DWORD PTR _this$[ebp]
	add	ecx, 120				; 00000078H
	call	??0Texture@@QAE@XZ			; Texture::Texture
	mov	BYTE PTR __$EHRec$[ebp+8], 3
	mov	ecx, DWORD PTR _this$[ebp]
	add	ecx, 144				; 00000090H
	call	??0Texture@@QAE@XZ			; Texture::Texture
	mov	BYTE PTR __$EHRec$[ebp+8], 4
	mov	ecx, DWORD PTR _this$[ebp]
	add	ecx, 168				; 000000a8H
	call	??0Texture@@QAE@XZ			; Texture::Texture
	mov	BYTE PTR __$EHRec$[ebp+8], 5
	mov	ecx, DWORD PTR _this$[ebp]
	add	ecx, 208				; 000000d0H
	call	??0ObjectDisplayList@@QAE@XZ		; ObjectDisplayList::ObjectDisplayList
	mov	ecx, DWORD PTR _this$[ebp]
	mov	DWORD PTR [ecx+204], 0
	mov	edx, DWORD PTR _this$[ebp]
	mov	DWORD PTR [edx+200], 0
	mov	eax, DWORD PTR _this$[ebp]
	mov	DWORD PTR [eax+196], 0
	mov	ecx, DWORD PTR _this$[ebp]
	mov	BYTE PTR [ecx+248], 0
	mov	DWORD PTR __$EHRec$[ebp+8], -1
	mov	eax, DWORD PTR _this$[ebp]
	mov	ecx, DWORD PTR __$EHRec$[ebp]
	mov	DWORD PTR fs:0, ecx
	pop	ecx
	mov	esp, ebp
	pop	ebp
	ret	0
_TEXT	ENDS
;	COMDAT text$x
text$x	SEGMENT
__unwindfunclet$??0RViewPoint@@QAE@XZ$0:
	mov	ecx, DWORD PTR _this$[ebp]
	jmp	??1TViewPoint@@QAE@XZ			; TViewPoint::~TViewPoint
__unwindfunclet$??0RViewPoint@@QAE@XZ$1:
	mov	ecx, DWORD PTR _this$[ebp]
	add	ecx, 72					; 00000048H
	jmp	??1Texture@@QAE@XZ			; Texture::~Texture
__unwindfunclet$??0RViewPoint@@QAE@XZ$2:
	mov	ecx, DWORD PTR _this$[ebp]
	add	ecx, 96					; 00000060H
	jmp	??1Texture@@QAE@XZ			; Texture::~Texture
__unwindfunclet$??0RViewPoint@@QAE@XZ$3:
	mov	ecx, DWORD PTR _this$[ebp]
	add	ecx, 120				; 00000078H
	jmp	??1Texture@@QAE@XZ			; Texture::~Texture
__unwindfunclet$??0RViewPoint@@QAE@XZ$4:
	mov	ecx, DWORD PTR _this$[ebp]
	add	ecx, 144				; 00000090H
	jmp	??1Texture@@QAE@XZ			; Texture::~Texture
__unwindfunclet$??0RViewPoint@@QAE@XZ$5:
	mov	ecx, DWORD PTR _this$[ebp]
	add	ecx, 168				; 000000a8H
	jmp	??1Texture@@QAE@XZ			; Texture::~Texture
__ehhandler$??0RViewPoint@@QAE@XZ:
	mov	edx, DWORD PTR [esp+8]
	lea	eax, DWORD PTR [edx+12]
	mov	ecx, DWORD PTR [edx-8]
	xor	ecx, eax
	call	@__security_check_cookie@4
	mov	eax, OFFSET __ehfuncinfo$??0RViewPoint@@QAE@XZ
	jmp	___CxxFrameHandler3
text$x	ENDS
??0RViewPoint@@QAE@XZ ENDP				; RViewPoint::RViewPoint
; Function compile flags: /Odtp
; File c:\users\zhitao li\documents\visual studio 2012\projects\freefalcon\graphics\include\tviewpnt.h
;	COMDAT ??1TViewPoint@@QAE@XZ
_TEXT	SEGMENT
_this$ = -4						; size = 4
??1TViewPoint@@QAE@XZ PROC				; TViewPoint::~TViewPoint, COMDAT
; _this$ = ecx

; 33   : 	~TViewPoint()	{ if (nLists != 0)  Cleanup(); };

	push	ebp
	mov	ebp, esp
	push	ecx
	mov	DWORD PTR _this$[ebp], ecx
	mov	eax, DWORD PTR _this$[ebp]
	mov	DWORD PTR [eax], OFFSET ??_7TViewPoint@@6B@
	mov	ecx, DWORD PTR _this$[ebp]
	cmp	DWORD PTR [ecx+20], 0
	je	SHORT $LN2@TViewPoint
	mov	ecx, DWORD PTR _this$[ebp]
	call	?Cleanup@TViewPoint@@UAEXXZ		; TViewPoint::Cleanup
$LN2@TViewPoint:
	mov	esp, ebp
	pop	ebp
	ret	0
??1TViewPoint@@QAE@XZ ENDP				; TViewPoint::~TViewPoint
_TEXT	ENDS
; Function compile flags: /Odtp
; File c:\users\zhitao li\documents\visual studio 2012\projects\freefalcon\graphics\include\tviewpnt.h
;	COMDAT ??0TViewPoint@@QAE@XZ
_TEXT	SEGMENT
_this$ = -4						; size = 4
??0TViewPoint@@QAE@XZ PROC				; TViewPoint::TViewPoint, COMDAT
; _this$ = ecx

; 32   : 	TViewPoint()	{ nLists = 0; };

	push	ebp
	mov	ebp, esp
	push	ecx
	mov	DWORD PTR _this$[ebp], ecx
	mov	eax, DWORD PTR _this$[ebp]
	mov	DWORD PTR [eax], OFFSET ??_7TViewPoint@@6B@
	mov	ecx, DWORD PTR _this$[ebp]
	mov	DWORD PTR [ecx+20], 0
	mov	eax, DWORD PTR _this$[ebp]
	mov	esp, ebp
	pop	ebp
	ret	0
??0TViewPoint@@QAE@XZ ENDP				; TViewPoint::TViewPoint
_TEXT	ENDS
; Function compile flags: /Odtp
; File c:\users\zhitao li\documents\visual studio 2012\projects\freefalcon\graphics\include\terrtex.h
;	COMDAT ?SetOverrideTexture@TextureDB@@QAEXI@Z
_TEXT	SEGMENT
_this$ = -4						; size = 4
_texHandle$ = 8						; size = 4
?SetOverrideTexture@TextureDB@@QAEXI@Z PROC		; TextureDB::SetOverrideTexture, COMDAT
; _this$ = ecx

; 98   : 	void SetOverrideTexture(UInt texHandle) { overrideHandle = texHandle; };

	push	ebp
	mov	ebp, esp
	push	ecx
	mov	DWORD PTR _this$[ebp], ecx
	mov	eax, DWORD PTR _this$[ebp]
	mov	ecx, DWORD PTR _texHandle$[ebp]
	mov	DWORD PTR [eax+532], ecx
	mov	esp, ebp
	pop	ebp
	ret	4
?SetOverrideTexture@TextureDB@@QAEXI@Z ENDP		; TextureDB::SetOverrideTexture
_TEXT	ENDS
; Function compile flags: /Odtp
;	COMDAT ??_GRenderOTW@@UAEPAXI@Z
_TEXT	SEGMENT
_this$ = -4						; size = 4
___flags$ = 8						; size = 4
??_GRenderOTW@@UAEPAXI@Z PROC				; RenderOTW::`scalar deleting destructor', COMDAT
; _this$ = ecx
	push	ebp
	mov	ebp, esp
	push	ecx
	mov	DWORD PTR _this$[ebp], ecx
	mov	ecx, DWORD PTR _this$[ebp]
	call	??1RenderOTW@@UAE@XZ			; RenderOTW::~RenderOTW
	mov	eax, DWORD PTR ___flags$[ebp]
	and	eax, 1
	je	SHORT $LN1@scalar
	mov	ecx, DWORD PTR _this$[ebp]
	push	ecx
	call	??3@YAXPAX@Z				; operator delete
	add	esp, 4
$LN1@scalar:
	mov	eax, DWORD PTR _this$[ebp]
	mov	esp, ebp
	pop	ebp
	ret	4
??_GRenderOTW@@UAEPAXI@Z ENDP				; RenderOTW::`scalar deleting destructor'
_TEXT	ENDS
; Function compile flags: /Odtp
; File c:\users\zhitao li\documents\visual studio 2012\projects\freefalcon\graphics\include\renderow.h
;	COMDAT ?SetFilteringMode@RenderOTW@@QAEXH@Z
_TEXT	SEGMENT
_this$ = -4						; size = 4
_state$ = 8						; size = 4
?SetFilteringMode@RenderOTW@@QAEXH@Z PROC		; RenderOTW::SetFilteringMode, COMDAT
; _this$ = ecx

; 140  : 	void SetFilteringMode( BOOL state )			{ filtering = state; SetupStates(); };	

	push	ebp
	mov	ebp, esp
	push	ecx
	mov	DWORD PTR _this$[ebp], ecx
	mov	eax, DWORD PTR _this$[ebp]
	mov	ecx, DWORD PTR _state$[ebp]
	mov	DWORD PTR [eax+263104], ecx
	mov	ecx, DWORD PTR _this$[ebp]
	call	?SetupStates@RenderOTW@@IAEXXZ		; RenderOTW::SetupStates
	mov	esp, ebp
	pop	ebp
	ret	4
?SetFilteringMode@RenderOTW@@QAEXH@Z ENDP		; RenderOTW::SetFilteringMode
_TEXT	ENDS
; Function compile flags: /Odtp
; File c:\users\zhitao li\documents\visual studio 2012\projects\freefalcon\graphics\include\renderow.h
;	COMDAT ?SetDitheringMode@RenderOTW@@QAEXH@Z
_TEXT	SEGMENT
_this$ = -4						; size = 4
_state$ = 8						; size = 4
?SetDitheringMode@RenderOTW@@QAEXH@Z PROC		; RenderOTW::SetDitheringMode, COMDAT
; _this$ = ecx

; 137  : 	void SetDitheringMode( BOOL state )			{ dithered = state; SetupStates(); };

	push	ebp
	mov	ebp, esp
	push	ecx
	mov	DWORD PTR _this$[ebp], ecx
	mov	eax, DWORD PTR _this$[ebp]
	mov	ecx, DWORD PTR _state$[ebp]
	mov	DWORD PTR [eax+263092], ecx
	mov	ecx, DWORD PTR _this$[ebp]
	call	?SetupStates@RenderOTW@@IAEXXZ		; RenderOTW::SetupStates
	mov	esp, ebp
	pop	ebp
	ret	4
?SetDitheringMode@RenderOTW@@QAEXH@Z ENDP		; RenderOTW::SetDitheringMode
_TEXT	ENDS
; Function compile flags: /Odtp
; File c:\users\zhitao li\documents\visual studio 2012\projects\freefalcon\graphics\include\renderow.h
;	COMDAT ?SetHazeMode@RenderOTW@@QAEXH@Z
_TEXT	SEGMENT
_this$ = -4						; size = 4
_state$ = 8						; size = 4
?SetHazeMode@RenderOTW@@QAEXH@Z PROC			; RenderOTW::SetHazeMode, COMDAT
; _this$ = ecx

; 122  : 	void SetHazeMode( BOOL state )				{ hazed = state; SetupStates(); };

	push	ebp
	mov	ebp, esp
	push	ecx
	mov	DWORD PTR _this$[ebp], ecx
	mov	eax, DWORD PTR _this$[ebp]
	mov	ecx, DWORD PTR _state$[ebp]
	mov	DWORD PTR [eax+263096], ecx
	mov	ecx, DWORD PTR _this$[ebp]
	call	?SetupStates@RenderOTW@@IAEXXZ		; RenderOTW::SetupStates
	mov	esp, ebp
	pop	ebp
	ret	4
?SetHazeMode@RenderOTW@@QAEXH@Z ENDP			; RenderOTW::SetHazeMode
_TEXT	ENDS
; Function compile flags: /Odtp
; File c:\users\zhitao li\documents\visual studio 2012\projects\freefalcon\graphics\include\renderow.h
;	COMDAT ??1RenderOTW@@UAE@XZ
_TEXT	SEGMENT
_this$ = -16						; size = 4
__$EHRec$ = -12						; size = 12
??1RenderOTW@@UAE@XZ PROC				; RenderOTW::~RenderOTW, COMDAT
; _this$ = ecx

; 107  : 	virtual ~RenderOTW()	{};

	push	ebp
	mov	ebp, esp
	push	-1
	push	__ehhandler$??1RenderOTW@@UAE@XZ
	mov	eax, DWORD PTR fs:0
	push	eax
	push	ecx
	mov	eax, DWORD PTR ___security_cookie
	xor	eax, ebp
	push	eax
	lea	eax, DWORD PTR __$EHRec$[ebp]
	mov	DWORD PTR fs:0, eax
	mov	DWORD PTR _this$[ebp], ecx
	mov	eax, DWORD PTR _this$[ebp]
	mov	DWORD PTR [eax], OFFSET ??_7RenderOTW@@6B@
	mov	DWORD PTR __$EHRec$[ebp+8], 3
	mov	ecx, DWORD PTR _this$[ebp]
	add	ecx, 263324				; 0004049cH
	call	??1Edge@@QAE@XZ				; Edge::~Edge
	mov	BYTE PTR __$EHRec$[ebp+8], 2
	mov	ecx, DWORD PTR _this$[ebp]
	add	ecx, 263312				; 00040490H
	call	??1Edge@@QAE@XZ				; Edge::~Edge
	mov	BYTE PTR __$EHRec$[ebp+8], 1
	mov	ecx, DWORD PTR _this$[ebp]
	add	ecx, 263300				; 00040484H
	call	??1Edge@@QAE@XZ				; Edge::~Edge
	mov	BYTE PTR __$EHRec$[ebp+8], 0
	mov	ecx, DWORD PTR _this$[ebp]
	add	ecx, 263288				; 00040478H
	call	??1Edge@@QAE@XZ				; Edge::~Edge
	mov	DWORD PTR __$EHRec$[ebp+8], -1
	mov	ecx, DWORD PTR _this$[ebp]
	call	??1Render3D@@UAE@XZ			; Render3D::~Render3D
	mov	ecx, DWORD PTR __$EHRec$[ebp]
	mov	DWORD PTR fs:0, ecx
	pop	ecx
	mov	esp, ebp
	pop	ebp
	ret	0
_TEXT	ENDS
;	COMDAT text$x
text$x	SEGMENT
__unwindfunclet$??1RenderOTW@@UAE@XZ$0:
	mov	ecx, DWORD PTR _this$[ebp]
	jmp	??1Render3D@@UAE@XZ			; Render3D::~Render3D
__unwindfunclet$??1RenderOTW@@UAE@XZ$1:
	mov	ecx, DWORD PTR _this$[ebp]
	add	ecx, 263288				; 00040478H
	jmp	??1Edge@@QAE@XZ				; Edge::~Edge
__unwindfunclet$??1RenderOTW@@UAE@XZ$2:
	mov	ecx, DWORD PTR _this$[ebp]
	add	ecx, 263300				; 00040484H
	jmp	??1Edge@@QAE@XZ				; Edge::~Edge
__unwindfunclet$??1RenderOTW@@UAE@XZ$3:
	mov	ecx, DWORD PTR _this$[ebp]
	add	ecx, 263312				; 00040490H
	jmp	??1Edge@@QAE@XZ				; Edge::~Edge
__ehhandler$??1RenderOTW@@UAE@XZ:
	mov	edx, DWORD PTR [esp+8]
	lea	eax, DWORD PTR [edx+12]
	mov	ecx, DWORD PTR [edx-8]
	xor	ecx, eax
	call	@__security_check_cookie@4
	mov	eax, OFFSET __ehfuncinfo$??1RenderOTW@@UAE@XZ
	jmp	___CxxFrameHandler3
text$x	ENDS
??1RenderOTW@@UAE@XZ ENDP				; RenderOTW::~RenderOTW
; Function compile flags: /Odtp
; File c:\users\zhitao li\documents\visual studio 2012\projects\freefalcon\graphics\include\renderow.h
;	COMDAT ??0RenderOTW@@QAE@XZ
_TEXT	SEGMENT
_this$ = -16						; size = 4
__$EHRec$ = -12						; size = 12
??0RenderOTW@@QAE@XZ PROC				; RenderOTW::RenderOTW, COMDAT
; _this$ = ecx

; 106  : 	RenderOTW()				{ skyRoof = FALSE; };

	push	ebp
	mov	ebp, esp
	push	-1
	push	__ehhandler$??0RenderOTW@@QAE@XZ
	mov	eax, DWORD PTR fs:0
	push	eax
	push	ecx
	mov	eax, DWORD PTR ___security_cookie
	xor	eax, ebp
	push	eax
	lea	eax, DWORD PTR __$EHRec$[ebp]
	mov	DWORD PTR fs:0, eax
	mov	DWORD PTR _this$[ebp], ecx
	mov	ecx, DWORD PTR _this$[ebp]
	call	??0Render3D@@QAE@XZ			; Render3D::Render3D
	mov	DWORD PTR __$EHRec$[ebp+8], 0
	mov	eax, DWORD PTR _this$[ebp]
	mov	DWORD PTR [eax], OFFSET ??_7RenderOTW@@6B@
	mov	ecx, DWORD PTR _this$[ebp]
	add	ecx, 263288				; 00040478H
	call	??0Edge@@QAE@XZ				; Edge::Edge
	mov	BYTE PTR __$EHRec$[ebp+8], 1
	mov	ecx, DWORD PTR _this$[ebp]
	add	ecx, 263300				; 00040484H
	call	??0Edge@@QAE@XZ				; Edge::Edge
	mov	BYTE PTR __$EHRec$[ebp+8], 2
	mov	ecx, DWORD PTR _this$[ebp]
	add	ecx, 263312				; 00040490H
	call	??0Edge@@QAE@XZ				; Edge::Edge
	mov	BYTE PTR __$EHRec$[ebp+8], 3
	mov	ecx, DWORD PTR _this$[ebp]
	add	ecx, 263324				; 0004049cH
	call	??0Edge@@QAE@XZ				; Edge::Edge
	mov	ecx, DWORD PTR _this$[ebp]
	mov	DWORD PTR [ecx+263100], 0
	mov	DWORD PTR __$EHRec$[ebp+8], -1
	mov	eax, DWORD PTR _this$[ebp]
	mov	ecx, DWORD PTR __$EHRec$[ebp]
	mov	DWORD PTR fs:0, ecx
	pop	ecx
	mov	esp, ebp
	pop	ebp
	ret	0
_TEXT	ENDS
;	COMDAT text$x
text$x	SEGMENT
__unwindfunclet$??0RenderOTW@@QAE@XZ$0:
	mov	ecx, DWORD PTR _this$[ebp]
	jmp	??1Render3D@@UAE@XZ			; Render3D::~Render3D
__unwindfunclet$??0RenderOTW@@QAE@XZ$1:
	mov	ecx, DWORD PTR _this$[ebp]
	add	ecx, 263288				; 00040478H
	jmp	??1Edge@@QAE@XZ				; Edge::~Edge
__unwindfunclet$??0RenderOTW@@QAE@XZ$2:
	mov	ecx, DWORD PTR _this$[ebp]
	add	ecx, 263300				; 00040484H
	jmp	??1Edge@@QAE@XZ				; Edge::~Edge
__unwindfunclet$??0RenderOTW@@QAE@XZ$3:
	mov	ecx, DWORD PTR _this$[ebp]
	add	ecx, 263312				; 00040490H
	jmp	??1Edge@@QAE@XZ				; Edge::~Edge
__ehhandler$??0RenderOTW@@QAE@XZ:
	mov	edx, DWORD PTR [esp+8]
	lea	eax, DWORD PTR [edx+12]
	mov	ecx, DWORD PTR [edx-8]
	xor	ecx, eax
	call	@__security_check_cookie@4
	mov	eax, OFFSET __ehfuncinfo$??0RenderOTW@@QAE@XZ
	jmp	___CxxFrameHandler3
text$x	ENDS
??0RenderOTW@@QAE@XZ ENDP				; RenderOTW::RenderOTW
; Function compile flags: /Odtp
;	COMDAT ??_GRender3D@@UAEPAXI@Z
_TEXT	SEGMENT
_this$ = -4						; size = 4
___flags$ = 8						; size = 4
??_GRender3D@@UAEPAXI@Z PROC				; Render3D::`scalar deleting destructor', COMDAT
; _this$ = ecx
	push	ebp
	mov	ebp, esp
	push	ecx
	mov	DWORD PTR _this$[ebp], ecx
	mov	ecx, DWORD PTR _this$[ebp]
	call	??1Render3D@@UAE@XZ			; Render3D::~Render3D
	mov	eax, DWORD PTR ___flags$[ebp]
	and	eax, 1
	je	SHORT $LN1@scalar
	mov	ecx, DWORD PTR _this$[ebp]
	push	ecx
	call	??3@YAXPAX@Z				; operator delete
	add	esp, 4
$LN1@scalar:
	mov	eax, DWORD PTR _this$[ebp]
	mov	esp, ebp
	pop	ebp
	ret	4
??_GRender3D@@UAEPAXI@Z ENDP				; Render3D::`scalar deleting destructor'
_TEXT	ENDS
; Function compile flags: /Odtp
; File c:\users\zhitao li\documents\visual studio 2012\projects\freefalcon\graphics\include\render3d.h
;	COMDAT ?Cleanup@Render3D@@UAEXXZ
_TEXT	SEGMENT
_this$ = -4						; size = 4
?Cleanup@Render3D@@UAEXXZ PROC				; Render3D::Cleanup, COMDAT
; _this$ = ecx

; 49   : 	virtual void Cleanup( void )	{ Render2D::Cleanup(); };

	push	ebp
	mov	ebp, esp
	push	ecx
	mov	DWORD PTR _this$[ebp], ecx
	mov	ecx, DWORD PTR _this$[ebp]
	call	?Cleanup@Render2D@@UAEXXZ		; Render2D::Cleanup
	mov	esp, ebp
	pop	ebp
	ret	0
?Cleanup@Render3D@@UAEXXZ ENDP				; Render3D::Cleanup
_TEXT	ENDS
; Function compile flags: /Odtp
; File c:\users\zhitao li\documents\visual studio 2012\projects\freefalcon\graphics\include\render3d.h
;	COMDAT ??1Render3D@@UAE@XZ
_TEXT	SEGMENT
_this$ = -4						; size = 4
??1Render3D@@UAE@XZ PROC				; Render3D::~Render3D, COMDAT
; _this$ = ecx

; 43   : 	virtual ~Render3D()	{};

	push	ebp
	mov	ebp, esp
	push	ecx
	mov	DWORD PTR _this$[ebp], ecx
	mov	eax, DWORD PTR _this$[ebp]
	mov	DWORD PTR [eax], OFFSET ??_7Render3D@@6B@
	mov	ecx, DWORD PTR _this$[ebp]
	call	??1Render2D@@UAE@XZ			; Render2D::~Render2D
	mov	esp, ebp
	pop	ebp
	ret	0
??1Render3D@@UAE@XZ ENDP				; Render3D::~Render3D
_TEXT	ENDS
; Function compile flags: /Odtp
; File c:\users\zhitao li\documents\visual studio 2012\projects\freefalcon\graphics\include\render3d.h
;	COMDAT ??0Render3D@@QAE@XZ
_TEXT	SEGMENT
_this$ = -4						; size = 4
??0Render3D@@QAE@XZ PROC				; Render3D::Render3D, COMDAT
; _this$ = ecx

; 42   : 	Render3D()	{};

	push	ebp
	mov	ebp, esp
	push	ecx
	mov	DWORD PTR _this$[ebp], ecx
	mov	ecx, DWORD PTR _this$[ebp]
	call	??0Render2D@@QAE@XZ			; Render2D::Render2D
	mov	eax, DWORD PTR _this$[ebp]
	mov	DWORD PTR [eax], OFFSET ??_7Render3D@@6B@
	mov	eax, DWORD PTR _this$[ebp]
	mov	esp, ebp
	pop	ebp
	ret	0
??0Render3D@@QAE@XZ ENDP				; Render3D::Render3D
_TEXT	ENDS
; Function compile flags: /Odtp
;	COMDAT ??_GRender2D@@UAEPAXI@Z
_TEXT	SEGMENT
_this$ = -4						; size = 4
___flags$ = 8						; size = 4
??_GRender2D@@UAEPAXI@Z PROC				; Render2D::`scalar deleting destructor', COMDAT
; _this$ = ecx
	push	ebp
	mov	ebp, esp
	push	ecx
	mov	DWORD PTR _this$[ebp], ecx
	mov	ecx, DWORD PTR _this$[ebp]
	call	??1Render2D@@UAE@XZ			; Render2D::~Render2D
	mov	eax, DWORD PTR ___flags$[ebp]
	and	eax, 1
	je	SHORT $LN1@scalar
	mov	ecx, DWORD PTR _this$[ebp]
	push	ecx
	call	??3@YAXPAX@Z				; operator delete
	add	esp, 4
$LN1@scalar:
	mov	eax, DWORD PTR _this$[ebp]
	mov	esp, ebp
	pop	ebp
	ret	4
??_GRender2D@@UAEPAXI@Z ENDP				; Render2D::`scalar deleting destructor'
_TEXT	ENDS
; Function compile flags: /Odtp
; File c:\users\zhitao li\documents\visual studio 2012\projects\freefalcon\graphics\include\render2d.h
;	COMDAT ?SetLineStyle@Render2D@@UAEXH@Z
_TEXT	SEGMENT
_this$ = -4						; size = 4
___formal$ = 8						; size = 4
?SetLineStyle@Render2D@@UAEXH@Z PROC			; Render2D::SetLineStyle, COMDAT
; _this$ = ecx

; 60   : 	virtual void SetLineStyle (int) {};

	push	ebp
	mov	ebp, esp
	push	ecx
	mov	DWORD PTR _this$[ebp], ecx
	mov	esp, ebp
	pop	ebp
	ret	4
?SetLineStyle@Render2D@@UAEXH@Z ENDP			; Render2D::SetLineStyle
_TEXT	ENDS
; Function compile flags: /Odtp
; File c:\users\zhitao li\documents\visual studio 2012\projects\freefalcon\graphics\include\render2d.h
;	COMDAT ?SetBackground@Render2D@@UAEXK@Z
_TEXT	SEGMENT
_this$ = -4						; size = 4
_packedRGBA$ = 8					; size = 4
?SetBackground@Render2D@@UAEXK@Z PROC			; Render2D::SetBackground, COMDAT
; _this$ = ecx

; 50   : 	virtual void SetBackground(DWORD packedRGBA){ context.SetState(MPR_STA_BG_COLOR,packedRGBA); };

	push	ebp
	mov	ebp, esp
	push	ecx
	mov	DWORD PTR _this$[ebp], ecx
	mov	eax, DWORD PTR _packedRGBA$[ebp]
	push	eax
	push	10					; 0000000aH
	mov	ecx, DWORD PTR _this$[ebp]
	add	ecx, 100				; 00000064H
	call	?SetState@ContextMPR@@QAEXGK@Z		; ContextMPR::SetState
	mov	esp, ebp
	pop	ebp
	ret	4
?SetBackground@Render2D@@UAEXK@Z ENDP			; Render2D::SetBackground
_TEXT	ENDS
; Function compile flags: /Odtp
; File c:\users\zhitao li\documents\visual studio 2012\projects\freefalcon\graphics\include\render2d.h
;	COMDAT ?SetColor@Render2D@@UAEXK@Z
_TEXT	SEGMENT
_this$ = -4						; size = 4
_packedRGBA$ = 8					; size = 4
?SetColor@Render2D@@UAEXK@Z PROC			; Render2D::SetColor, COMDAT
; _this$ = ecx

; 49   : 	virtual void SetColor(DWORD packedRGBA)	{ context.RestoreState(STATE_SOLID); context.SelectForegroundColor(packedRGBA); };

	push	ebp
	mov	ebp, esp
	push	ecx
	mov	DWORD PTR _this$[ebp], ecx
	push	0
	mov	ecx, DWORD PTR _this$[ebp]
	add	ecx, 100				; 00000064H
	call	?RestoreState@ContextMPR@@QAEXH@Z	; ContextMPR::RestoreState
	mov	eax, DWORD PTR _packedRGBA$[ebp]
	push	eax
	mov	ecx, DWORD PTR _this$[ebp]
	add	ecx, 100				; 00000064H
	call	?SelectForegroundColor@ContextMPR@@QAEXH@Z ; ContextMPR::SelectForegroundColor
	mov	esp, ebp
	pop	ebp
	ret	4
?SetColor@Render2D@@UAEXK@Z ENDP			; Render2D::SetColor
_TEXT	ENDS
; Function compile flags: /Odtp
; File c:\users\zhitao li\documents\visual studio 2012\projects\freefalcon\graphics\include\render2d.h
;	COMDAT ?Color@Render2D@@UAEKXZ
_TEXT	SEGMENT
_this$ = -4						; size = 4
?Color@Render2D@@UAEKXZ PROC				; Render2D::Color, COMDAT
; _this$ = ecx

; 48   : 	virtual DWORD Color(void) { return context.CurrentForegroundColor(); };

	push	ebp
	mov	ebp, esp
	push	ecx
	mov	DWORD PTR _this$[ebp], ecx
	mov	ecx, DWORD PTR _this$[ebp]
	add	ecx, 100				; 00000064H
	call	?CurrentForegroundColor@ContextMPR@@QAEHXZ ; ContextMPR::CurrentForegroundColor
	mov	esp, ebp
	pop	ebp
	ret	0
?Color@Render2D@@UAEKXZ ENDP				; Render2D::Color
_TEXT	ENDS
; Function compile flags: /Odtp
; File c:\users\zhitao li\documents\visual studio 2012\projects\freefalcon\graphics\include\render2d.h
;	COMDAT ?ClearZBuffer@Render2D@@UAEXXZ
_TEXT	SEGMENT
_this$ = -4						; size = 4
?ClearZBuffer@Render2D@@UAEXXZ PROC			; Render2D::ClearZBuffer, COMDAT
; _this$ = ecx

; 42   : 	virtual void ClearZBuffer( void )	{ context.ClearBuffers( MPR_CI_ZBUFFER ); };

	push	ebp
	mov	ebp, esp
	push	ecx
	mov	DWORD PTR _this$[ebp], ecx
	push	4
	mov	ecx, DWORD PTR _this$[ebp]
	add	ecx, 100				; 00000064H
	call	?ClearBuffers@ContextMPR@@QAEXG@Z	; ContextMPR::ClearBuffers
	mov	esp, ebp
	pop	ebp
	ret	0
?ClearZBuffer@Render2D@@UAEXXZ ENDP			; Render2D::ClearZBuffer
_TEXT	ENDS
; Function compile flags: /Odtp
; File c:\users\zhitao li\documents\visual studio 2012\projects\freefalcon\graphics\include\render2d.h
;	COMDAT ?ClearDraw@Render2D@@UAEXXZ
_TEXT	SEGMENT
_this$ = -4						; size = 4
?ClearDraw@Render2D@@UAEXXZ PROC			; Render2D::ClearDraw, COMDAT
; _this$ = ecx

; 41   : 	virtual void ClearDraw( void )		{ context.ClearBuffers( MPR_CI_DRAW_BUFFER ); };

	push	ebp
	mov	ebp, esp
	push	ecx
	mov	DWORD PTR _this$[ebp], ecx
	push	1
	mov	ecx, DWORD PTR _this$[ebp]
	add	ecx, 100				; 00000064H
	call	?ClearBuffers@ContextMPR@@QAEXG@Z	; ContextMPR::ClearBuffers
	mov	esp, ebp
	pop	ebp
	ret	0
?ClearDraw@Render2D@@UAEXXZ ENDP			; Render2D::ClearDraw
_TEXT	ENDS
; Function compile flags: /Odtp
; File c:\users\zhitao li\documents\visual studio 2012\projects\freefalcon\graphics\include\render2d.h
;	COMDAT ??1Render2D@@UAE@XZ
_TEXT	SEGMENT
_this$ = -4						; size = 4
??1Render2D@@UAE@XZ PROC				; Render2D::~Render2D, COMDAT
; _this$ = ecx

; 32   : 	virtual ~Render2D()	{};

	push	ebp
	mov	ebp, esp
	push	ecx
	mov	DWORD PTR _this$[ebp], ecx
	mov	eax, DWORD PTR _this$[ebp]
	mov	DWORD PTR [eax], OFFSET ??_7Render2D@@6B@
	mov	ecx, DWORD PTR _this$[ebp]
	call	??1VirtualDisplay@@UAE@XZ		; VirtualDisplay::~VirtualDisplay
	mov	esp, ebp
	pop	ebp
	ret	0
??1Render2D@@UAE@XZ ENDP				; Render2D::~Render2D
_TEXT	ENDS
; Function compile flags: /Odtp
; File c:\users\zhitao li\documents\visual studio 2012\projects\freefalcon\graphics\include\render2d.h
;	COMDAT ??0Render2D@@QAE@XZ
_TEXT	SEGMENT
_this$ = -4						; size = 4
??0Render2D@@QAE@XZ PROC				; Render2D::Render2D, COMDAT
; _this$ = ecx

; 31   : 	Render2D()			{};

	push	ebp
	mov	ebp, esp
	push	ecx
	mov	DWORD PTR _this$[ebp], ecx
	mov	ecx, DWORD PTR _this$[ebp]
	call	??0VirtualDisplay@@QAE@XZ		; VirtualDisplay::VirtualDisplay
	mov	eax, DWORD PTR _this$[ebp]
	mov	DWORD PTR [eax], OFFSET ??_7Render2D@@6B@
	mov	eax, DWORD PTR _this$[ebp]
	mov	esp, ebp
	pop	ebp
	ret	0
??0Render2D@@QAE@XZ ENDP				; Render2D::Render2D
_TEXT	ENDS
; Function compile flags: /Odtp
;	COMDAT ??_GVirtualDisplay@@UAEPAXI@Z
_TEXT	SEGMENT
_this$ = -4						; size = 4
___flags$ = 8						; size = 4
??_GVirtualDisplay@@UAEPAXI@Z PROC			; VirtualDisplay::`scalar deleting destructor', COMDAT
; _this$ = ecx
	push	ebp
	mov	ebp, esp
	push	ecx
	mov	DWORD PTR _this$[ebp], ecx
	mov	ecx, DWORD PTR _this$[ebp]
	call	??1VirtualDisplay@@UAE@XZ		; VirtualDisplay::~VirtualDisplay
	mov	eax, DWORD PTR ___flags$[ebp]
	and	eax, 1
	je	SHORT $LN1@scalar
	mov	ecx, DWORD PTR _this$[ebp]
	push	ecx
	call	??3@YAXPAX@Z				; operator delete
	add	esp, 4
$LN1@scalar:
	mov	eax, DWORD PTR _this$[ebp]
	mov	esp, ebp
	pop	ebp
	ret	4
??_GVirtualDisplay@@UAEPAXI@Z ENDP			; VirtualDisplay::`scalar deleting destructor'
_TEXT	ENDS
; Function compile flags: /Odtp
; File c:\users\zhitao li\documents\visual studio 2012\projects\freefalcon\graphics\include\display.h
;	COMDAT ?Color@VirtualDisplay@@UAEKXZ
_TEXT	SEGMENT
_this$ = -4						; size = 4
?Color@VirtualDisplay@@UAEKXZ PROC			; VirtualDisplay::Color, COMDAT
; _this$ = ecx

; 136  : 	virtual DWORD Color( void )	{return 0x0; };

	push	ebp
	mov	ebp, esp
	push	ecx
	mov	DWORD PTR _this$[ebp], ecx
	xor	eax, eax
	mov	esp, ebp
	pop	ebp
	ret	0
?Color@VirtualDisplay@@UAEKXZ ENDP			; VirtualDisplay::Color
_TEXT	ENDS
; Function compile flags: /Odtp
; File c:\users\zhitao li\documents\visual studio 2012\projects\freefalcon\graphics\include\display.h
;	COMDAT ?SetLineStyle@VirtualDisplay@@UAEXH@Z
_TEXT	SEGMENT
_this$ = -4						; size = 4
___formal$ = 8						; size = 4
?SetLineStyle@VirtualDisplay@@UAEXH@Z PROC		; VirtualDisplay::SetLineStyle, COMDAT
; _this$ = ecx

; 135  : 	virtual void SetLineStyle (int) {};

	push	ebp
	mov	ebp, esp
	push	ecx
	mov	DWORD PTR _this$[ebp], ecx
	mov	esp, ebp
	pop	ebp
	ret	4
?SetLineStyle@VirtualDisplay@@UAEXH@Z ENDP		; VirtualDisplay::SetLineStyle
_TEXT	ENDS
; Function compile flags: /Odtp
; File c:\users\zhitao li\documents\visual studio 2012\projects\freefalcon\graphics\include\display.h
;	COMDAT ?TextHeight@VirtualDisplay@@UAEMXZ
_TEXT	SEGMENT
tv71 = -8						; size = 4
_this$ = -4						; size = 4
?TextHeight@VirtualDisplay@@UAEMXZ PROC			; VirtualDisplay::TextHeight, COMDAT
; _this$ = ecx

; 121  : 	virtual float TextHeight(void)			{ return ScreenTextHeight()/scaleY; };		// normalized screen space

	push	ebp
	mov	ebp, esp
	sub	esp, 8
	mov	DWORD PTR _this$[ebp], ecx
	call	?ScreenTextHeight@VirtualDisplay@@SAHXZ	; VirtualDisplay::ScreenTextHeight
	cvtsi2ss xmm0, eax
	mov	eax, DWORD PTR _this$[ebp]
	divss	xmm0, DWORD PTR [eax+36]
	movss	DWORD PTR tv71[ebp], xmm0
	fld	DWORD PTR tv71[ebp]
	mov	esp, ebp
	pop	ebp
	ret	0
?TextHeight@VirtualDisplay@@UAEMXZ ENDP			; VirtualDisplay::TextHeight
_TEXT	ENDS
; Function compile flags: /Odtp
; File c:\users\zhitao li\documents\visual studio 2012\projects\freefalcon\graphics\include\display.h
;	COMDAT ?TextWidth@VirtualDisplay@@UAEMPAD@Z
_TEXT	SEGMENT
tv73 = -8						; size = 4
_this$ = -4						; size = 4
_string$ = 8						; size = 4
?TextWidth@VirtualDisplay@@UAEMPAD@Z PROC		; VirtualDisplay::TextWidth, COMDAT
; _this$ = ecx

; 120  : 	virtual float TextWidth(char *string)	{ return ScreenTextWidth(string)/scaleX; };	// normalized screen space

	push	ebp
	mov	ebp, esp
	sub	esp, 8
	mov	DWORD PTR _this$[ebp], ecx
	mov	eax, DWORD PTR _string$[ebp]
	push	eax
	call	?ScreenTextWidth@VirtualDisplay@@SAHPBD@Z ; VirtualDisplay::ScreenTextWidth
	add	esp, 4
	cvtsi2ss xmm0, eax
	mov	ecx, DWORD PTR _this$[ebp]
	divss	xmm0, DWORD PTR [ecx+32]
	movss	DWORD PTR tv73[ebp], xmm0
	fld	DWORD PTR tv73[ebp]
	mov	esp, ebp
	pop	ebp
	ret	4
?TextWidth@VirtualDisplay@@UAEMPAD@Z ENDP		; VirtualDisplay::TextWidth
_TEXT	ENDS
; Function compile flags: /Odtp
; File c:\users\zhitao li\documents\visual studio 2012\projects\freefalcon\graphics\include\display.h
;	COMDAT ?Arc@VirtualDisplay@@UAEXMMMMM@Z
_TEXT	SEGMENT
_this$ = -4						; size = 4
_x$ = 8							; size = 4
_y$ = 12						; size = 4
_xRadius$ = 16						; size = 4
_start$ = 20						; size = 4
_stop$ = 24						; size = 4
?Arc@VirtualDisplay@@UAEXMMMMM@Z PROC			; VirtualDisplay::Arc, COMDAT
; _this$ = ecx

; 109  : 		{ OvalArc(x, y, xRadius, xRadius*scaleX/scaleY, start, stop); };

	push	ebp
	mov	ebp, esp
	push	ecx
	mov	DWORD PTR _this$[ebp], ecx
	push	ecx
	movss	xmm0, DWORD PTR _stop$[ebp]
	movss	DWORD PTR [esp], xmm0
	push	ecx
	movss	xmm0, DWORD PTR _start$[ebp]
	movss	DWORD PTR [esp], xmm0
	mov	eax, DWORD PTR _this$[ebp]
	movss	xmm0, DWORD PTR _xRadius$[ebp]
	mulss	xmm0, DWORD PTR [eax+32]
	mov	ecx, DWORD PTR _this$[ebp]
	divss	xmm0, DWORD PTR [ecx+36]
	push	ecx
	movss	DWORD PTR [esp], xmm0
	push	ecx
	movss	xmm0, DWORD PTR _xRadius$[ebp]
	movss	DWORD PTR [esp], xmm0
	push	ecx
	movss	xmm0, DWORD PTR _y$[ebp]
	movss	DWORD PTR [esp], xmm0
	push	ecx
	movss	xmm0, DWORD PTR _x$[ebp]
	movss	DWORD PTR [esp], xmm0
	mov	edx, DWORD PTR _this$[ebp]
	mov	eax, DWORD PTR [edx]
	mov	ecx, DWORD PTR _this$[ebp]
	mov	edx, DWORD PTR [eax+44]
	call	edx
	mov	esp, ebp
	pop	ebp
	ret	20					; 00000014H
?Arc@VirtualDisplay@@UAEXMMMMM@Z ENDP			; VirtualDisplay::Arc
_TEXT	ENDS
; Function compile flags: /Odtp
; File c:\users\zhitao li\documents\visual studio 2012\projects\freefalcon\graphics\include\display.h
;	COMDAT ?Circle@VirtualDisplay@@UAEXMMM@Z
_TEXT	SEGMENT
_this$ = -4						; size = 4
_x$ = 8							; size = 4
_y$ = 12						; size = 4
_xRadius$ = 16						; size = 4
?Circle@VirtualDisplay@@UAEXMMM@Z PROC			; VirtualDisplay::Circle, COMDAT
; _this$ = ecx

; 107  : 		{ Oval(x, y, xRadius, xRadius*scaleX/scaleY); };

	push	ebp
	mov	ebp, esp
	push	ecx
	mov	DWORD PTR _this$[ebp], ecx
	mov	eax, DWORD PTR _this$[ebp]
	movss	xmm0, DWORD PTR _xRadius$[ebp]
	mulss	xmm0, DWORD PTR [eax+32]
	mov	ecx, DWORD PTR _this$[ebp]
	divss	xmm0, DWORD PTR [ecx+36]
	push	ecx
	movss	DWORD PTR [esp], xmm0
	push	ecx
	movss	xmm0, DWORD PTR _xRadius$[ebp]
	movss	DWORD PTR [esp], xmm0
	push	ecx
	movss	xmm0, DWORD PTR _y$[ebp]
	movss	DWORD PTR [esp], xmm0
	push	ecx
	movss	xmm0, DWORD PTR _x$[ebp]
	movss	DWORD PTR [esp], xmm0
	mov	edx, DWORD PTR _this$[ebp]
	mov	eax, DWORD PTR [edx]
	mov	ecx, DWORD PTR _this$[ebp]
	mov	edx, DWORD PTR [eax+40]
	call	edx
	mov	esp, ebp
	pop	ebp
	ret	12					; 0000000cH
?Circle@VirtualDisplay@@UAEXMMM@Z ENDP			; VirtualDisplay::Circle
_TEXT	ENDS
; Function compile flags: /Odtp
; File c:\users\zhitao li\documents\visual studio 2012\projects\freefalcon\graphics\include\display.h
;	COMDAT ??1VirtualDisplay@@UAE@XZ
_TEXT	SEGMENT
_this$ = -4						; size = 4
??1VirtualDisplay@@UAE@XZ PROC				; VirtualDisplay::~VirtualDisplay, COMDAT
; _this$ = ecx

; 86   :     virtual ~VirtualDisplay()	{ ShiAssert( ready == FALSE ); }

	push	ebp
	mov	ebp, esp
	push	ecx
	mov	DWORD PTR _this$[ebp], ecx
	mov	eax, DWORD PTR _this$[ebp]
	mov	DWORD PTR [eax], OFFSET ??_7VirtualDisplay@@6B@
	mov	ecx, DWORD PTR _this$[ebp]
	add	ecx, 100				; 00000064H
	call	??1ContextMPR@@UAE@XZ			; ContextMPR::~ContextMPR
	mov	esp, ebp
	pop	ebp
	ret	0
??1VirtualDisplay@@UAE@XZ ENDP				; VirtualDisplay::~VirtualDisplay
_TEXT	ENDS
; Function compile flags: /Odtp
; File c:\users\zhitao li\documents\visual studio 2012\projects\freefalcon\graphics\include\display.h
;	COMDAT ??0VirtualDisplay@@QAE@XZ
_TEXT	SEGMENT
_this$ = -4						; size = 4
??0VirtualDisplay@@QAE@XZ PROC				; VirtualDisplay::VirtualDisplay, COMDAT
; _this$ = ecx

; 85   :     VirtualDisplay()			{ ready = FALSE; tLeft = tTop = tRight = tBottom = txRes = tyRes = 0; }

	push	ebp
	mov	ebp, esp
	push	ecx
	mov	DWORD PTR _this$[ebp], ecx
	mov	eax, DWORD PTR _this$[ebp]
	mov	DWORD PTR [eax], OFFSET ??_7VirtualDisplay@@6B@
	mov	ecx, DWORD PTR _this$[ebp]
	add	ecx, 100				; 00000064H
	call	??0ContextMPR@@QAE@XZ			; ContextMPR::ContextMPR
	mov	ecx, DWORD PTR _this$[ebp]
	mov	DWORD PTR [ecx+92], 0
	mov	edx, DWORD PTR _this$[ebp]
	mov	DWORD PTR [edx+262776], 0
	mov	eax, DWORD PTR _this$[ebp]
	mov	DWORD PTR [eax+262772], 0
	mov	ecx, DWORD PTR _this$[ebp]
	mov	DWORD PTR [ecx+262768], 0
	mov	edx, DWORD PTR _this$[ebp]
	mov	DWORD PTR [edx+262764], 0
	mov	eax, DWORD PTR _this$[ebp]
	mov	DWORD PTR [eax+262760], 0
	mov	ecx, DWORD PTR _this$[ebp]
	mov	DWORD PTR [ecx+262756], 0
	mov	eax, DWORD PTR _this$[ebp]
	mov	esp, ebp
	pop	ebp
	ret	0
??0VirtualDisplay@@QAE@XZ ENDP				; VirtualDisplay::VirtualDisplay
_TEXT	ENDS
; Function compile flags: /Odtp
; File c:\users\zhitao li\documents\visual studio 2012\projects\freefalcon\graphics\include\tex.h
;	COMDAT ?TexHandle@Texture@@QAEKXZ
_TEXT	SEGMENT
_this$ = -4						; size = 4
?TexHandle@Texture@@QAEKXZ PROC				; Texture::TexHandle, COMDAT
; _this$ = ecx

; 60   : 	DWORD TexHandle() { return (DWORD) texHandle; };

	push	ebp
	mov	ebp, esp
	push	ecx
	mov	DWORD PTR _this$[ebp], ecx
	mov	eax, DWORD PTR _this$[ebp]
	mov	eax, DWORD PTR [eax+20]
	mov	esp, ebp
	pop	ebp
	ret	0
?TexHandle@Texture@@QAEKXZ ENDP				; Texture::TexHandle
_TEXT	ENDS
; Function compile flags: /Odtp
; File c:\users\zhitao li\documents\visual studio 2012\projects\freefalcon\graphics\include\imagebuf.h
;	COMDAT ?targetYres@ImageBuffer@@QAEHXZ
_TEXT	SEGMENT
_this$ = -4						; size = 4
?targetYres@ImageBuffer@@QAEHXZ PROC			; ImageBuffer::targetYres, COMDAT
; _this$ = ecx

; 46   : 	int	targetYres()	{ return height; };

	push	ebp
	mov	ebp, esp
	push	ecx
	mov	DWORD PTR _this$[ebp], ecx
	mov	eax, DWORD PTR _this$[ebp]
	mov	eax, DWORD PTR [eax+296]
	mov	esp, ebp
	pop	ebp
	ret	0
?targetYres@ImageBuffer@@QAEHXZ ENDP			; ImageBuffer::targetYres
_TEXT	ENDS
; Function compile flags: /Odtp
; File c:\users\zhitao li\documents\visual studio 2012\projects\freefalcon\graphics\include\imagebuf.h
;	COMDAT ?targetXres@ImageBuffer@@QAEHXZ
_TEXT	SEGMENT
_this$ = -4						; size = 4
?targetXres@ImageBuffer@@QAEHXZ PROC			; ImageBuffer::targetXres, COMDAT
; _this$ = ecx

; 45   : 	int targetXres()	{ return width; };

	push	ebp
	mov	ebp, esp
	push	ecx
	mov	DWORD PTR _this$[ebp], ecx
	mov	eax, DWORD PTR _this$[ebp]
	mov	eax, DWORD PTR [eax+292]
	mov	esp, ebp
	pop	ebp
	ret	0
?targetXres@ImageBuffer@@QAEHXZ ENDP			; ImageBuffer::targetXres
_TEXT	ENDS
; Function compile flags: /Odtp
; File c:\users\zhitao li\documents\visual studio 2012\projects\freefalcon\graphics\include\imagebuf.h
;	COMDAT ?GetDisplayDevice@ImageBuffer@@QAEPAVDisplayDevice@@XZ
_TEXT	SEGMENT
_this$ = -4						; size = 4
?GetDisplayDevice@ImageBuffer@@QAEPAVDisplayDevice@@XZ PROC ; ImageBuffer::GetDisplayDevice, COMDAT
; _this$ = ecx

; 41   : 	DisplayDevice *GetDisplayDevice()	{ return device; };

	push	ebp
	mov	ebp, esp
	push	ecx
	mov	DWORD PTR _this$[ebp], ecx
	mov	eax, DWORD PTR _this$[ebp]
	mov	eax, DWORD PTR [eax+8]
	mov	esp, ebp
	pop	ebp
	ret	0
?GetDisplayDevice@ImageBuffer@@QAEPAVDisplayDevice@@XZ ENDP ; ImageBuffer::GetDisplayDevice
_TEXT	ENDS
; Function compile flags: /Odtp
; File c:\users\zhitao li\documents\visual studio 2012\projects\freefalcon\graphics\include\context.h
;	COMDAT ?CurrentForegroundColor@ContextMPR@@QAEHXZ
_TEXT	SEGMENT
_this$ = -4						; size = 4
?CurrentForegroundColor@ContextMPR@@QAEHXZ PROC		; ContextMPR::CurrentForegroundColor, COMDAT
; _this$ = ecx

; 708  : 	int CurrentForegroundColor(void) {return m_colFG_Raw;};

	push	ebp
	mov	ebp, esp
	push	ecx
	mov	DWORD PTR _this$[ebp], ecx
	mov	eax, DWORD PTR _this$[ebp]
	mov	eax, DWORD PTR [eax+8]
	mov	esp, ebp
	pop	ebp
	ret	0
?CurrentForegroundColor@ContextMPR@@QAEHXZ ENDP		; ContextMPR::CurrentForegroundColor
_TEXT	ENDS
; Function compile flags: /Odtp
;	COMDAT ??_G_System_error_category@std@@UAEPAXI@Z
_TEXT	SEGMENT
_this$ = -4						; size = 4
___flags$ = 8						; size = 4
??_G_System_error_category@std@@UAEPAXI@Z PROC		; std::_System_error_category::`scalar deleting destructor', COMDAT
; _this$ = ecx
	push	ebp
	mov	ebp, esp
	push	ecx
	mov	DWORD PTR _this$[ebp], ecx
	mov	ecx, DWORD PTR _this$[ebp]
	call	??1_System_error_category@std@@UAE@XZ
	mov	eax, DWORD PTR ___flags$[ebp]
	and	eax, 1
	je	SHORT $LN1@scalar
	mov	ecx, DWORD PTR _this$[ebp]
	push	ecx
	call	??3@YAXPAX@Z				; operator delete
	add	esp, 4
$LN1@scalar:
	mov	eax, DWORD PTR _this$[ebp]
	mov	esp, ebp
	pop	ebp
	ret	4
??_G_System_error_category@std@@UAEPAXI@Z ENDP		; std::_System_error_category::`scalar deleting destructor'
_TEXT	ENDS
; Function compile flags: /Odtp
;	COMDAT ??1_System_error_category@std@@UAE@XZ
_TEXT	SEGMENT
_this$ = -4						; size = 4
??1_System_error_category@std@@UAE@XZ PROC		; std::_System_error_category::~_System_error_category, COMDAT
; _this$ = ecx
	push	ebp
	mov	ebp, esp
	push	ecx
	mov	DWORD PTR _this$[ebp], ecx
	mov	ecx, DWORD PTR _this$[ebp]
	call	??1_Generic_error_category@std@@UAE@XZ
	mov	esp, ebp
	pop	ebp
	ret	0
??1_System_error_category@std@@UAE@XZ ENDP		; std::_System_error_category::~_System_error_category
_TEXT	ENDS
; Function compile flags: /Odtp
; File c:\program files (x86)\microsoft visual studio 11.0\vc\include\system_error
;	COMDAT ?default_error_condition@_System_error_category@std@@UBE?AVerror_condition@2@H@Z
_TEXT	SEGMENT
_this$ = -4						; size = 4
___$ReturnUdt$ = 8					; size = 4
__Errval$ = 12						; size = 4
?default_error_condition@_System_error_category@std@@UBE?AVerror_condition@2@H@Z PROC ; std::_System_error_category::default_error_condition, COMDAT
; _this$ = ecx

; 641  : 		{	// make error_condition for error code (generic if possible)

	push	ebp
	mov	ebp, esp
	push	ecx
	mov	DWORD PTR _this$[ebp], ecx

; 642  : 		if (_Syserror_map(_Errval))

	mov	eax, DWORD PTR __Errval$[ebp]
	push	eax
	call	?_Syserror_map@std@@YAPBDH@Z		; std::_Syserror_map
	add	esp, 4
	test	eax, eax
	je	SHORT $LN2@default_er

; 643  : 			return (error_condition(_Errval, generic_category()));

	call	?generic_category@std@@YAABVerror_category@1@XZ ; std::generic_category
	push	eax
	mov	ecx, DWORD PTR __Errval$[ebp]
	push	ecx
	mov	ecx, DWORD PTR ___$ReturnUdt$[ebp]
	call	??0error_condition@std@@QAE@HABVerror_category@1@@Z ; std::error_condition::error_condition
	mov	eax, DWORD PTR ___$ReturnUdt$[ebp]
	jmp	SHORT $LN3@default_er

; 644  : 		else

	jmp	SHORT $LN3@default_er
$LN2@default_er:

; 645  : 			return (error_condition(_Errval, system_category()));

	call	?system_category@std@@YAABVerror_category@1@XZ ; std::system_category
	push	eax
	mov	edx, DWORD PTR __Errval$[ebp]
	push	edx
	mov	ecx, DWORD PTR ___$ReturnUdt$[ebp]
	call	??0error_condition@std@@QAE@HABVerror_category@1@@Z ; std::error_condition::error_condition
	mov	eax, DWORD PTR ___$ReturnUdt$[ebp]
$LN3@default_er:

; 646  : 		}

	mov	esp, ebp
	pop	ebp
	ret	8
?default_error_condition@_System_error_category@std@@UBE?AVerror_condition@2@H@Z ENDP ; std::_System_error_category::default_error_condition
_TEXT	ENDS
; Function compile flags: /Odtp
; File c:\program files (x86)\microsoft visual studio 11.0\vc\include\system_error
;	COMDAT ?message@_System_error_category@std@@UBE?AV?$basic_string@DU?$char_traits@D@std@@V?$allocator@D@2@@2@H@Z
_TEXT	SEGMENT
_this$ = -16						; size = 4
$T1 = -12						; size = 4
tv69 = -8						; size = 4
__Name$ = -4						; size = 4
___$ReturnUdt$ = 8					; size = 4
__Errcode$ = 12						; size = 4
?message@_System_error_category@std@@UBE?AV?$basic_string@DU?$char_traits@D@std@@V?$allocator@D@2@@2@H@Z PROC ; std::_System_error_category::message, COMDAT
; _this$ = ecx

; 634  : 		{	// convert to name of error

	push	ebp
	mov	ebp, esp
	sub	esp, 16					; 00000010H
	mov	DWORD PTR _this$[ebp], ecx
	mov	DWORD PTR $T1[ebp], 0

; 635  : 		const char *_Name = _Winerror_map(_Errcode);

	mov	eax, DWORD PTR __Errcode$[ebp]
	push	eax
	call	?_Winerror_map@std@@YAPBDH@Z		; std::_Winerror_map
	add	esp, 4
	mov	DWORD PTR __Name$[ebp], eax

; 636  : 		return (string(_Name != 0 ? _Name : "unknown error"));

	cmp	DWORD PTR __Name$[ebp], 0
	je	SHORT $LN3@message
	mov	ecx, DWORD PTR __Name$[ebp]
	mov	DWORD PTR tv69[ebp], ecx
	jmp	SHORT $LN4@message
$LN3@message:
	mov	DWORD PTR tv69[ebp], OFFSET ??_C@_0O@BFJCFAAK@unknown?5error?$AA@
$LN4@message:
	mov	edx, DWORD PTR tv69[ebp]
	push	edx
	mov	ecx, DWORD PTR ___$ReturnUdt$[ebp]
	call	??0?$basic_string@DU?$char_traits@D@std@@V?$allocator@D@2@@std@@QAE@PBD@Z ; std::basic_string<char,std::char_traits<char>,std::allocator<char> >::basic_string<char,std::char_traits<char>,std::allocator<char> >
	mov	eax, DWORD PTR $T1[ebp]
	or	eax, 1
	mov	DWORD PTR $T1[ebp], eax
	mov	eax, DWORD PTR ___$ReturnUdt$[ebp]

; 637  : 		}

	mov	esp, ebp
	pop	ebp
	ret	8
?message@_System_error_category@std@@UBE?AV?$basic_string@DU?$char_traits@D@std@@V?$allocator@D@2@@2@H@Z ENDP ; std::_System_error_category::message
_TEXT	ENDS
; Function compile flags: /Odtp
; File c:\program files (x86)\microsoft visual studio 11.0\vc\include\system_error
;	COMDAT ?name@_System_error_category@std@@UBEPBDXZ
_TEXT	SEGMENT
_this$ = -4						; size = 4
?name@_System_error_category@std@@UBEPBDXZ PROC		; std::_System_error_category::name, COMDAT
; _this$ = ecx

; 629  : 		{	// get name of category

	push	ebp
	mov	ebp, esp
	push	ecx
	mov	DWORD PTR _this$[ebp], ecx

; 630  : 		return ("system");

	mov	eax, OFFSET ??_C@_06FHFOAHML@system?$AA@

; 631  : 		}

	mov	esp, ebp
	pop	ebp
	ret	0
?name@_System_error_category@std@@UBEPBDXZ ENDP		; std::_System_error_category::name
_TEXT	ENDS
; Function compile flags: /Odtp
; File c:\program files (x86)\microsoft visual studio 11.0\vc\include\system_error
;	COMDAT ??0_System_error_category@std@@QAE@XZ
_TEXT	SEGMENT
_this$ = -4						; size = 4
??0_System_error_category@std@@QAE@XZ PROC		; std::_System_error_category::_System_error_category, COMDAT
; _this$ = ecx

; 624  : 	_System_error_category()

	push	ebp
	mov	ebp, esp
	push	ecx
	mov	DWORD PTR _this$[ebp], ecx
	mov	ecx, DWORD PTR _this$[ebp]
	call	??0_Generic_error_category@std@@QAE@XZ	; std::_Generic_error_category::_Generic_error_category
	mov	eax, DWORD PTR _this$[ebp]
	mov	DWORD PTR [eax], OFFSET ??_7_System_error_category@std@@6B@

; 625  : 		{	// default constructor
; 626  : 		}

	mov	eax, DWORD PTR _this$[ebp]
	mov	esp, ebp
	pop	ebp
	ret	0
??0_System_error_category@std@@QAE@XZ ENDP		; std::_System_error_category::_System_error_category
_TEXT	ENDS
; Function compile flags: /Odtp
;	COMDAT ??_G_Iostream_error_category@std@@UAEPAXI@Z
_TEXT	SEGMENT
_this$ = -4						; size = 4
___flags$ = 8						; size = 4
??_G_Iostream_error_category@std@@UAEPAXI@Z PROC	; std::_Iostream_error_category::`scalar deleting destructor', COMDAT
; _this$ = ecx
	push	ebp
	mov	ebp, esp
	push	ecx
	mov	DWORD PTR _this$[ebp], ecx
	mov	ecx, DWORD PTR _this$[ebp]
	call	??1_Iostream_error_category@std@@UAE@XZ
	mov	eax, DWORD PTR ___flags$[ebp]
	and	eax, 1
	je	SHORT $LN1@scalar
	mov	ecx, DWORD PTR _this$[ebp]
	push	ecx
	call	??3@YAXPAX@Z				; operator delete
	add	esp, 4
$LN1@scalar:
	mov	eax, DWORD PTR _this$[ebp]
	mov	esp, ebp
	pop	ebp
	ret	4
??_G_Iostream_error_category@std@@UAEPAXI@Z ENDP	; std::_Iostream_error_category::`scalar deleting destructor'
_TEXT	ENDS
; Function compile flags: /Odtp
;	COMDAT ??1_Iostream_error_category@std@@UAE@XZ
_TEXT	SEGMENT
_this$ = -4						; size = 4
??1_Iostream_error_category@std@@UAE@XZ PROC		; std::_Iostream_error_category::~_Iostream_error_category, COMDAT
; _this$ = ecx
	push	ebp
	mov	ebp, esp
	push	ecx
	mov	DWORD PTR _this$[ebp], ecx
	mov	ecx, DWORD PTR _this$[ebp]
	call	??1_Generic_error_category@std@@UAE@XZ
	mov	esp, ebp
	pop	ebp
	ret	0
??1_Iostream_error_category@std@@UAE@XZ ENDP		; std::_Iostream_error_category::~_Iostream_error_category
_TEXT	ENDS
; Function compile flags: /Odtp
; File c:\program files (x86)\microsoft visual studio 11.0\vc\include\system_error
;	COMDAT ?message@_Iostream_error_category@std@@UBE?AV?$basic_string@DU?$char_traits@D@std@@V?$allocator@D@2@@2@H@Z
_TEXT	SEGMENT
_this$ = -8						; size = 4
$T1 = -4						; size = 4
___$ReturnUdt$ = 8					; size = 4
__Errcode$ = 12						; size = 4
?message@_Iostream_error_category@std@@UBE?AV?$basic_string@DU?$char_traits@D@std@@V?$allocator@D@2@@2@H@Z PROC ; std::_Iostream_error_category::message, COMDAT
; _this$ = ecx

; 611  : 		{	// convert to name of error

	push	ebp
	mov	ebp, esp
	sub	esp, 8
	mov	DWORD PTR _this$[ebp], ecx
	mov	DWORD PTR $T1[ebp], 0

; 612  : 		if (_Errcode == (int)io_errc::stream)

	cmp	DWORD PTR __Errcode$[ebp], 1
	jne	SHORT $LN2@message

; 613  : 			return ("iostream stream error");

	push	OFFSET ??_C@_0BG@PADBLCHM@iostream?5stream?5error?$AA@
	mov	ecx, DWORD PTR ___$ReturnUdt$[ebp]
	call	??0?$basic_string@DU?$char_traits@D@std@@V?$allocator@D@2@@std@@QAE@PBD@Z ; std::basic_string<char,std::char_traits<char>,std::allocator<char> >::basic_string<char,std::char_traits<char>,std::allocator<char> >
	mov	eax, DWORD PTR $T1[ebp]
	or	eax, 1
	mov	DWORD PTR $T1[ebp], eax
	mov	eax, DWORD PTR ___$ReturnUdt$[ebp]
	jmp	SHORT $LN3@message

; 614  : 		else

	jmp	SHORT $LN3@message
$LN2@message:

; 615  : 			return (_Generic_error_category::message(_Errcode));

	mov	ecx, DWORD PTR __Errcode$[ebp]
	push	ecx
	mov	edx, DWORD PTR ___$ReturnUdt$[ebp]
	push	edx
	mov	ecx, DWORD PTR _this$[ebp]
	call	?message@_Generic_error_category@std@@UBE?AV?$basic_string@DU?$char_traits@D@std@@V?$allocator@D@2@@2@H@Z ; std::_Generic_error_category::message
	mov	eax, DWORD PTR $T1[ebp]
	or	eax, 1
	mov	DWORD PTR $T1[ebp], eax
	mov	eax, DWORD PTR ___$ReturnUdt$[ebp]
$LN3@message:

; 616  : 		}

	mov	esp, ebp
	pop	ebp
	ret	8
?message@_Iostream_error_category@std@@UBE?AV?$basic_string@DU?$char_traits@D@std@@V?$allocator@D@2@@2@H@Z ENDP ; std::_Iostream_error_category::message
_TEXT	ENDS
; Function compile flags: /Odtp
; File c:\program files (x86)\microsoft visual studio 11.0\vc\include\system_error
;	COMDAT ?name@_Iostream_error_category@std@@UBEPBDXZ
_TEXT	SEGMENT
_this$ = -4						; size = 4
?name@_Iostream_error_category@std@@UBEPBDXZ PROC	; std::_Iostream_error_category::name, COMDAT
; _this$ = ecx

; 606  : 		{	// get name of category

	push	ebp
	mov	ebp, esp
	push	ecx
	mov	DWORD PTR _this$[ebp], ecx

; 607  : 		return ("iostream");

	mov	eax, OFFSET ??_C@_08LLGCOLLL@iostream?$AA@

; 608  : 		}

	mov	esp, ebp
	pop	ebp
	ret	0
?name@_Iostream_error_category@std@@UBEPBDXZ ENDP	; std::_Iostream_error_category::name
_TEXT	ENDS
; Function compile flags: /Odtp
; File c:\program files (x86)\microsoft visual studio 11.0\vc\include\system_error
;	COMDAT ??0_Iostream_error_category@std@@QAE@XZ
_TEXT	SEGMENT
_this$ = -4						; size = 4
??0_Iostream_error_category@std@@QAE@XZ PROC		; std::_Iostream_error_category::_Iostream_error_category, COMDAT
; _this$ = ecx

; 601  : 	_Iostream_error_category()

	push	ebp
	mov	ebp, esp
	push	ecx
	mov	DWORD PTR _this$[ebp], ecx
	mov	ecx, DWORD PTR _this$[ebp]
	call	??0_Generic_error_category@std@@QAE@XZ	; std::_Generic_error_category::_Generic_error_category
	mov	eax, DWORD PTR _this$[ebp]
	mov	DWORD PTR [eax], OFFSET ??_7_Iostream_error_category@std@@6B@

; 602  : 		{	// default constructor
; 603  : 		}

	mov	eax, DWORD PTR _this$[ebp]
	mov	esp, ebp
	pop	ebp
	ret	0
??0_Iostream_error_category@std@@QAE@XZ ENDP		; std::_Iostream_error_category::_Iostream_error_category
_TEXT	ENDS
; Function compile flags: /Odtp
;	COMDAT ??_G_Generic_error_category@std@@UAEPAXI@Z
_TEXT	SEGMENT
_this$ = -4						; size = 4
___flags$ = 8						; size = 4
??_G_Generic_error_category@std@@UAEPAXI@Z PROC		; std::_Generic_error_category::`scalar deleting destructor', COMDAT
; _this$ = ecx
	push	ebp
	mov	ebp, esp
	push	ecx
	mov	DWORD PTR _this$[ebp], ecx
	mov	ecx, DWORD PTR _this$[ebp]
	call	??1_Generic_error_category@std@@UAE@XZ
	mov	eax, DWORD PTR ___flags$[ebp]
	and	eax, 1
	je	SHORT $LN1@scalar
	mov	ecx, DWORD PTR _this$[ebp]
	push	ecx
	call	??3@YAXPAX@Z				; operator delete
	add	esp, 4
$LN1@scalar:
	mov	eax, DWORD PTR _this$[ebp]
	mov	esp, ebp
	pop	ebp
	ret	4
??_G_Generic_error_category@std@@UAEPAXI@Z ENDP		; std::_Generic_error_category::`scalar deleting destructor'
_TEXT	ENDS
; Function compile flags: /Odtp
;	COMDAT ??1_Generic_error_category@std@@UAE@XZ
_TEXT	SEGMENT
_this$ = -4						; size = 4
??1_Generic_error_category@std@@UAE@XZ PROC		; std::_Generic_error_category::~_Generic_error_category, COMDAT
; _this$ = ecx
	push	ebp
	mov	ebp, esp
	push	ecx
	mov	DWORD PTR _this$[ebp], ecx
	mov	ecx, DWORD PTR _this$[ebp]
	call	??1error_category@std@@UAE@XZ		; std::error_category::~error_category
	mov	esp, ebp
	pop	ebp
	ret	0
??1_Generic_error_category@std@@UAE@XZ ENDP		; std::_Generic_error_category::~_Generic_error_category
_TEXT	ENDS
; Function compile flags: /Odtp
; File c:\program files (x86)\microsoft visual studio 11.0\vc\include\system_error
;	COMDAT ?message@_Generic_error_category@std@@UBE?AV?$basic_string@DU?$char_traits@D@std@@V?$allocator@D@2@@2@H@Z
_TEXT	SEGMENT
_this$ = -16						; size = 4
$T1 = -12						; size = 4
tv69 = -8						; size = 4
__Name$ = -4						; size = 4
___$ReturnUdt$ = 8					; size = 4
__Errcode$ = 12						; size = 4
?message@_Generic_error_category@std@@UBE?AV?$basic_string@DU?$char_traits@D@std@@V?$allocator@D@2@@2@H@Z PROC ; std::_Generic_error_category::message, COMDAT
; _this$ = ecx

; 590  : 		{	// convert to name of error

	push	ebp
	mov	ebp, esp
	sub	esp, 16					; 00000010H
	mov	DWORD PTR _this$[ebp], ecx
	mov	DWORD PTR $T1[ebp], 0

; 591  : 		const char *_Name = _Syserror_map(_Errcode);

	mov	eax, DWORD PTR __Errcode$[ebp]
	push	eax
	call	?_Syserror_map@std@@YAPBDH@Z		; std::_Syserror_map
	add	esp, 4
	mov	DWORD PTR __Name$[ebp], eax

; 592  : 		return (string(_Name != 0 ? _Name : "unknown error"));

	cmp	DWORD PTR __Name$[ebp], 0
	je	SHORT $LN3@message
	mov	ecx, DWORD PTR __Name$[ebp]
	mov	DWORD PTR tv69[ebp], ecx
	jmp	SHORT $LN4@message
$LN3@message:
	mov	DWORD PTR tv69[ebp], OFFSET ??_C@_0O@BFJCFAAK@unknown?5error?$AA@
$LN4@message:
	mov	edx, DWORD PTR tv69[ebp]
	push	edx
	mov	ecx, DWORD PTR ___$ReturnUdt$[ebp]
	call	??0?$basic_string@DU?$char_traits@D@std@@V?$allocator@D@2@@std@@QAE@PBD@Z ; std::basic_string<char,std::char_traits<char>,std::allocator<char> >::basic_string<char,std::char_traits<char>,std::allocator<char> >
	mov	eax, DWORD PTR $T1[ebp]
	or	eax, 1
	mov	DWORD PTR $T1[ebp], eax
	mov	eax, DWORD PTR ___$ReturnUdt$[ebp]

; 593  : 		}

	mov	esp, ebp
	pop	ebp
	ret	8
?message@_Generic_error_category@std@@UBE?AV?$basic_string@DU?$char_traits@D@std@@V?$allocator@D@2@@2@H@Z ENDP ; std::_Generic_error_category::message
_TEXT	ENDS
; Function compile flags: /Odtp
; File c:\program files (x86)\microsoft visual studio 11.0\vc\include\system_error
;	COMDAT ?name@_Generic_error_category@std@@UBEPBDXZ
_TEXT	SEGMENT
_this$ = -4						; size = 4
?name@_Generic_error_category@std@@UBEPBDXZ PROC	; std::_Generic_error_category::name, COMDAT
; _this$ = ecx

; 585  : 		{	// get name of category

	push	ebp
	mov	ebp, esp
	push	ecx
	mov	DWORD PTR _this$[ebp], ecx

; 586  : 		return ("generic");

	mov	eax, OFFSET ??_C@_07DCLBNMLN@generic?$AA@

; 587  : 		}

	mov	esp, ebp
	pop	ebp
	ret	0
?name@_Generic_error_category@std@@UBEPBDXZ ENDP	; std::_Generic_error_category::name
_TEXT	ENDS
; Function compile flags: /Odtp
; File c:\program files (x86)\microsoft visual studio 11.0\vc\include\system_error
;	COMDAT ??0_Generic_error_category@std@@QAE@XZ
_TEXT	SEGMENT
_this$ = -4						; size = 4
??0_Generic_error_category@std@@QAE@XZ PROC		; std::_Generic_error_category::_Generic_error_category, COMDAT
; _this$ = ecx

; 580  : 	_Generic_error_category()

	push	ebp
	mov	ebp, esp
	push	ecx
	mov	DWORD PTR _this$[ebp], ecx
	mov	ecx, DWORD PTR _this$[ebp]
	call	??0error_category@std@@QAE@XZ		; std::error_category::error_category
	mov	eax, DWORD PTR _this$[ebp]
	mov	DWORD PTR [eax], OFFSET ??_7_Generic_error_category@std@@6B@

; 581  : 		{	// default constructor
; 582  : 		}

	mov	eax, DWORD PTR _this$[ebp]
	mov	esp, ebp
	pop	ebp
	ret	0
??0_Generic_error_category@std@@QAE@XZ ENDP		; std::_Generic_error_category::_Generic_error_category
_TEXT	ENDS
; Function compile flags: /Odtp
; File c:\program files (x86)\microsoft visual studio 11.0\vc\include\system_error
;	COMDAT ??8error_condition@std@@QBE_NABV01@@Z
_TEXT	SEGMENT
tv78 = -8						; size = 4
_this$ = -4						; size = 4
__Right$ = 8						; size = 4
??8error_condition@std@@QBE_NABV01@@Z PROC		; std::error_condition::operator==, COMDAT
; _this$ = ecx

; 376  : 		{	// test if *this == _Right

	push	ebp
	mov	ebp, esp
	sub	esp, 8
	push	esi
	mov	DWORD PTR _this$[ebp], ecx

; 377  : 		return (category() == _Right.category()
; 378  : 			&& value() == _Right.value());

	mov	ecx, DWORD PTR __Right$[ebp]
	call	?category@error_condition@std@@QBEABVerror_category@2@XZ ; std::error_condition::category
	push	eax
	mov	ecx, DWORD PTR _this$[ebp]
	call	?category@error_condition@std@@QBEABVerror_category@2@XZ ; std::error_condition::category
	mov	ecx, eax
	call	??8error_category@std@@QBE_NABV01@@Z	; std::error_category::operator==
	movzx	eax, al
	test	eax, eax
	je	SHORT $LN3@operator
	mov	ecx, DWORD PTR _this$[ebp]
	call	?value@error_condition@std@@QBEHXZ	; std::error_condition::value
	mov	esi, eax
	mov	ecx, DWORD PTR __Right$[ebp]
	call	?value@error_condition@std@@QBEHXZ	; std::error_condition::value
	cmp	esi, eax
	jne	SHORT $LN3@operator
	mov	DWORD PTR tv78[ebp], 1
	jmp	SHORT $LN4@operator
$LN3@operator:
	mov	DWORD PTR tv78[ebp], 0
$LN4@operator:
	mov	al, BYTE PTR tv78[ebp]

; 379  : 		}

	pop	esi
	mov	esp, ebp
	pop	ebp
	ret	4
??8error_condition@std@@QBE_NABV01@@Z ENDP		; std::error_condition::operator==
_TEXT	ENDS
; Function compile flags: /Odtp
; File c:\program files (x86)\microsoft visual studio 11.0\vc\include\system_error
;	COMDAT ?category@error_condition@std@@QBEABVerror_category@2@XZ
_TEXT	SEGMENT
_this$ = -4						; size = 4
?category@error_condition@std@@QBEABVerror_category@2@XZ PROC ; std::error_condition::category, COMDAT
; _this$ = ecx

; 354  : 		{	// get category

	push	ebp
	mov	ebp, esp
	push	ecx
	mov	DWORD PTR _this$[ebp], ecx

; 355  : 		return (*_Mycat);

	mov	eax, DWORD PTR _this$[ebp]
	mov	eax, DWORD PTR [eax+4]

; 356  : 		}

	mov	esp, ebp
	pop	ebp
	ret	0
?category@error_condition@std@@QBEABVerror_category@2@XZ ENDP ; std::error_condition::category
_TEXT	ENDS
; Function compile flags: /Odtp
; File c:\program files (x86)\microsoft visual studio 11.0\vc\include\system_error
;	COMDAT ?value@error_condition@std@@QBEHXZ
_TEXT	SEGMENT
_this$ = -4						; size = 4
?value@error_condition@std@@QBEHXZ PROC			; std::error_condition::value, COMDAT
; _this$ = ecx

; 349  : 		{	// get error code

	push	ebp
	mov	ebp, esp
	push	ecx
	mov	DWORD PTR _this$[ebp], ecx

; 350  : 		return (_Myval);

	mov	eax, DWORD PTR _this$[ebp]
	mov	eax, DWORD PTR [eax]

; 351  : 		}

	mov	esp, ebp
	pop	ebp
	ret	0
?value@error_condition@std@@QBEHXZ ENDP			; std::error_condition::value
_TEXT	ENDS
; Function compile flags: /Odtp
; File c:\program files (x86)\microsoft visual studio 11.0\vc\include\system_error
;	COMDAT ??0error_condition@std@@QAE@HABVerror_category@1@@Z
_TEXT	SEGMENT
_this$ = -4						; size = 4
__Val$ = 8						; size = 4
__Cat$ = 12						; size = 4
??0error_condition@std@@QAE@HABVerror_category@1@@Z PROC ; std::error_condition::error_condition, COMDAT
; _this$ = ecx

; 316  : 		{	// construct from error code and category

	push	ebp
	mov	ebp, esp
	push	ecx
	mov	DWORD PTR _this$[ebp], ecx
	mov	eax, DWORD PTR _this$[ebp]
	mov	ecx, DWORD PTR __Val$[ebp]
	mov	DWORD PTR [eax], ecx
	mov	edx, DWORD PTR _this$[ebp]
	mov	eax, DWORD PTR __Cat$[ebp]
	mov	DWORD PTR [edx+4], eax

; 317  : 		}

	mov	eax, DWORD PTR _this$[ebp]
	mov	esp, ebp
	pop	ebp
	ret	8
??0error_condition@std@@QAE@HABVerror_category@1@@Z ENDP ; std::error_condition::error_condition
_TEXT	ENDS
; Function compile flags: /Odtp
; File c:\program files (x86)\microsoft visual studio 11.0\vc\include\system_error
;	COMDAT ?category@error_code@std@@QBEABVerror_category@2@XZ
_TEXT	SEGMENT
_this$ = -4						; size = 4
?category@error_code@std@@QBEABVerror_category@2@XZ PROC ; std::error_code::category, COMDAT
; _this$ = ecx

; 256  : 		{	// get category

	push	ebp
	mov	ebp, esp
	push	ecx
	mov	DWORD PTR _this$[ebp], ecx

; 257  : 		return (*_Mycat);

	mov	eax, DWORD PTR _this$[ebp]
	mov	eax, DWORD PTR [eax+4]

; 258  : 		}

	mov	esp, ebp
	pop	ebp
	ret	0
?category@error_code@std@@QBEABVerror_category@2@XZ ENDP ; std::error_code::category
_TEXT	ENDS
; Function compile flags: /Odtp
; File c:\program files (x86)\microsoft visual studio 11.0\vc\include\system_error
;	COMDAT ?value@error_code@std@@QBEHXZ
_TEXT	SEGMENT
_this$ = -4						; size = 4
?value@error_code@std@@QBEHXZ PROC			; std::error_code::value, COMDAT
; _this$ = ecx

; 251  : 		{	// get error code

	push	ebp
	mov	ebp, esp
	push	ecx
	mov	DWORD PTR _this$[ebp], ecx

; 252  : 		return (_Myval);

	mov	eax, DWORD PTR _this$[ebp]
	mov	eax, DWORD PTR [eax]

; 253  : 		}

	mov	esp, ebp
	pop	ebp
	ret	0
?value@error_code@std@@QBEHXZ ENDP			; std::error_code::value
_TEXT	ENDS
; Function compile flags: /Odtp
;	COMDAT ??_Gerror_category@std@@UAEPAXI@Z
_TEXT	SEGMENT
_this$ = -4						; size = 4
___flags$ = 8						; size = 4
??_Gerror_category@std@@UAEPAXI@Z PROC			; std::error_category::`scalar deleting destructor', COMDAT
; _this$ = ecx
	push	ebp
	mov	ebp, esp
	push	ecx
	mov	DWORD PTR _this$[ebp], ecx
	mov	ecx, DWORD PTR _this$[ebp]
	call	??1error_category@std@@UAE@XZ		; std::error_category::~error_category
	mov	eax, DWORD PTR ___flags$[ebp]
	and	eax, 1
	je	SHORT $LN1@scalar
	mov	ecx, DWORD PTR _this$[ebp]
	push	ecx
	call	??3@YAXPAX@Z				; operator delete
	add	esp, 4
$LN1@scalar:
	mov	eax, DWORD PTR _this$[ebp]
	mov	esp, ebp
	pop	ebp
	ret	4
??_Gerror_category@std@@UAEPAXI@Z ENDP			; std::error_category::`scalar deleting destructor'
_TEXT	ENDS
; Function compile flags: /Odtp
; File c:\program files (x86)\microsoft visual studio 11.0\vc\include\system_error
;	COMDAT ??8error_category@std@@QBE_NABV01@@Z
_TEXT	SEGMENT
_this$ = -8						; size = 4
tv65 = -4						; size = 4
__Right$ = 8						; size = 4
??8error_category@std@@QBE_NABV01@@Z PROC		; std::error_category::operator==, COMDAT
; _this$ = ecx

; 184  : 		{	// compare categories for equality

	push	ebp
	mov	ebp, esp
	sub	esp, 8
	mov	DWORD PTR _this$[ebp], ecx

; 185  : 		return (this == &_Right);

	mov	eax, DWORD PTR _this$[ebp]
	cmp	eax, DWORD PTR __Right$[ebp]
	jne	SHORT $LN3@operator
	mov	DWORD PTR tv65[ebp], 1
	jmp	SHORT $LN4@operator
$LN3@operator:
	mov	DWORD PTR tv65[ebp], 0
$LN4@operator:
	mov	al, BYTE PTR tv65[ebp]

; 186  : 		}

	mov	esp, ebp
	pop	ebp
	ret	4
??8error_category@std@@QBE_NABV01@@Z ENDP		; std::error_category::operator==
_TEXT	ENDS
; Function compile flags: /Odtp
; File c:\program files (x86)\microsoft visual studio 11.0\vc\include\system_error
;	COMDAT ?equivalent@error_category@std@@UBE_NABVerror_code@2@H@Z
_TEXT	SEGMENT
_this$ = -8						; size = 4
tv74 = -4						; size = 4
__Code$ = 8						; size = 4
__Errval$ = 12						; size = 4
?equivalent@error_category@std@@UBE_NABVerror_code@2@H@Z PROC ; std::error_category::equivalent, COMDAT
; _this$ = ecx

; 415  : 	{	// test if conditions same for this category

	push	ebp
	mov	ebp, esp
	sub	esp, 8
	mov	DWORD PTR _this$[ebp], ecx

; 416  : 	return (*this == _Code.category() && _Code.value() == _Errval);

	mov	ecx, DWORD PTR __Code$[ebp]
	call	?category@error_code@std@@QBEABVerror_category@2@XZ ; std::error_code::category
	push	eax
	mov	ecx, DWORD PTR _this$[ebp]
	call	??8error_category@std@@QBE_NABV01@@Z	; std::error_category::operator==
	movzx	eax, al
	test	eax, eax
	je	SHORT $LN3@equivalent
	mov	ecx, DWORD PTR __Code$[ebp]
	call	?value@error_code@std@@QBEHXZ		; std::error_code::value
	cmp	eax, DWORD PTR __Errval$[ebp]
	jne	SHORT $LN3@equivalent
	mov	DWORD PTR tv74[ebp], 1
	jmp	SHORT $LN4@equivalent
$LN3@equivalent:
	mov	DWORD PTR tv74[ebp], 0
$LN4@equivalent:
	mov	al, BYTE PTR tv74[ebp]

; 417  : 	}

	mov	esp, ebp
	pop	ebp
	ret	8
?equivalent@error_category@std@@UBE_NABVerror_code@2@H@Z ENDP ; std::error_category::equivalent
_TEXT	ENDS
; Function compile flags: /Odtp
; File c:\program files (x86)\microsoft visual studio 11.0\vc\include\system_error
;	COMDAT ?equivalent@error_category@std@@UBE_NHABVerror_condition@2@@Z
_TEXT	SEGMENT
$T1 = -12						; size = 8
_this$ = -4						; size = 4
__Errval$ = 8						; size = 4
__Cond$ = 12						; size = 4
?equivalent@error_category@std@@UBE_NHABVerror_condition@2@@Z PROC ; std::error_category::equivalent, COMDAT
; _this$ = ecx

; 408  : 	{	// test if error code same condition

	push	ebp
	mov	ebp, esp
	sub	esp, 12					; 0000000cH
	mov	DWORD PTR _this$[ebp], ecx

; 409  : 	return (default_error_condition(_Errval) == _Cond);

	mov	eax, DWORD PTR __Cond$[ebp]
	push	eax
	mov	ecx, DWORD PTR __Errval$[ebp]
	push	ecx
	lea	edx, DWORD PTR $T1[ebp]
	push	edx
	mov	eax, DWORD PTR _this$[ebp]
	mov	edx, DWORD PTR [eax]
	mov	ecx, DWORD PTR _this$[ebp]
	mov	eax, DWORD PTR [edx+12]
	call	eax
	mov	ecx, eax
	call	??8error_condition@std@@QBE_NABV01@@Z	; std::error_condition::operator==

; 410  : 	}

	mov	esp, ebp
	pop	ebp
	ret	8
?equivalent@error_category@std@@UBE_NHABVerror_condition@2@@Z ENDP ; std::error_category::equivalent
_TEXT	ENDS
; Function compile flags: /Odtp
; File c:\program files (x86)\microsoft visual studio 11.0\vc\include\system_error
;	COMDAT ?default_error_condition@error_category@std@@UBE?AVerror_condition@2@H@Z
_TEXT	SEGMENT
_this$ = -4						; size = 4
___$ReturnUdt$ = 8					; size = 4
__Errval$ = 12						; size = 4
?default_error_condition@error_category@std@@UBE?AVerror_condition@2@H@Z PROC ; std::error_category::default_error_condition, COMDAT
; _this$ = ecx

; 401  : 	{	// make error_condition for error code

	push	ebp
	mov	ebp, esp
	push	ecx
	mov	DWORD PTR _this$[ebp], ecx

; 402  : 	return (error_condition(_Errval, *this));

	mov	eax, DWORD PTR _this$[ebp]
	push	eax
	mov	ecx, DWORD PTR __Errval$[ebp]
	push	ecx
	mov	ecx, DWORD PTR ___$ReturnUdt$[ebp]
	call	??0error_condition@std@@QAE@HABVerror_category@1@@Z ; std::error_condition::error_condition
	mov	eax, DWORD PTR ___$ReturnUdt$[ebp]

; 403  : 	}

	mov	esp, ebp
	pop	ebp
	ret	8
?default_error_condition@error_category@std@@UBE?AVerror_condition@2@H@Z ENDP ; std::error_category::default_error_condition
_TEXT	ENDS
; Function compile flags: /Odtp
; File c:\program files (x86)\microsoft visual studio 11.0\vc\include\system_error
;	COMDAT ??1error_category@std@@UAE@XZ
_TEXT	SEGMENT
_this$ = -4						; size = 4
??1error_category@std@@UAE@XZ PROC			; std::error_category::~error_category, COMDAT
; _this$ = ecx

; 167  : 		{	// destroy the object

	push	ebp
	mov	ebp, esp
	push	ecx
	mov	DWORD PTR _this$[ebp], ecx
	mov	eax, DWORD PTR _this$[ebp]
	mov	DWORD PTR [eax], OFFSET ??_7error_category@std@@6B@

; 168  : 		}

	mov	esp, ebp
	pop	ebp
	ret	0
??1error_category@std@@UAE@XZ ENDP			; std::error_category::~error_category
_TEXT	ENDS
; Function compile flags: /Odtp
; File c:\program files (x86)\microsoft visual studio 11.0\vc\include\system_error
;	COMDAT ??0error_category@std@@QAE@XZ
_TEXT	SEGMENT
_this$ = -4						; size = 4
??0error_category@std@@QAE@XZ PROC			; std::error_category::error_category, COMDAT
; _this$ = ecx

; 162  : 	error_category()

	push	ebp
	mov	ebp, esp
	push	ecx
	mov	DWORD PTR _this$[ebp], ecx
	mov	eax, DWORD PTR _this$[ebp]
	mov	DWORD PTR [eax], OFFSET ??_7error_category@std@@6B@

; 163  : 		{	// default constructor
; 164  : 		}

	mov	eax, DWORD PTR _this$[ebp]
	mov	esp, ebp
	pop	ebp
	ret	0
??0error_category@std@@QAE@XZ ENDP			; std::error_category::error_category
_TEXT	ENDS
; Function compile flags: /Odtp
; File c:\program files (x86)\microsoft visual studio 11.0\vc\include\system_error
;	COMDAT ?system_category@std@@YAABVerror_category@1@XZ
_TEXT	SEGMENT
?system_category@std@@YAABVerror_category@1@XZ PROC	; std::system_category, COMDAT

; 679  : 	{	// get system_category

	push	ebp
	mov	ebp, esp

; 680  : 	return (_Error_objects<int>::_System_object);

	mov	eax, OFFSET ?_System_object@?$_Error_objects@H@std@@2V_System_error_category@2@A ; std::_Error_objects<int>::_System_object

; 681  : 	}

	pop	ebp
	ret	0
?system_category@std@@YAABVerror_category@1@XZ ENDP	; std::system_category
_TEXT	ENDS
; Function compile flags: /Odtp
; File c:\program files (x86)\microsoft visual studio 11.0\vc\include\system_error
;	COMDAT ?generic_category@std@@YAABVerror_category@1@XZ
_TEXT	SEGMENT
?generic_category@std@@YAABVerror_category@1@XZ PROC	; std::generic_category, COMDAT

; 669  : 	{	// get generic_category

	push	ebp
	mov	ebp, esp

; 670  : 	return (_Error_objects<int>::_Generic_object);

	mov	eax, OFFSET ?_Generic_object@?$_Error_objects@H@std@@2V_Generic_error_category@2@A ; std::_Error_objects<int>::_Generic_object

; 671  : 	}

	pop	ebp
	ret	0
?generic_category@std@@YAABVerror_category@1@XZ ENDP	; std::generic_category
_TEXT	ENDS
; Function compile flags: /Odtp
; File c:\program files (x86)\microsoft visual studio 11.0\vc\include\xlocale
;	COMDAT ??0id@locale@std@@QAE@I@Z
_TEXT	SEGMENT
_this$ = -4						; size = 4
__Val$ = 8						; size = 4
??0id@locale@std@@QAE@I@Z PROC				; std::locale::id::id, COMDAT
; _this$ = ecx

; 74   : 			{	// construct with specified stamp value

	push	ebp
	mov	ebp, esp
	push	ecx
	mov	DWORD PTR _this$[ebp], ecx
	mov	eax, DWORD PTR _this$[ebp]
	mov	ecx, DWORD PTR __Val$[ebp]
	mov	DWORD PTR [eax], ecx

; 75   : 			}

	mov	eax, DWORD PTR _this$[ebp]
	mov	esp, ebp
	pop	ebp
	ret	4
??0id@locale@std@@QAE@I@Z ENDP				; std::locale::id::id
_TEXT	ENDS
; Function compile flags: /Odtp
; File c:\program files (x86)\microsoft visual studio 11.0\vc\include\xstring
;	COMDAT ?_Xran@?$basic_string@DU?$char_traits@D@std@@V?$allocator@D@2@@std@@QBEXXZ
_TEXT	SEGMENT
_this$ = -4						; size = 4
?_Xran@?$basic_string@DU?$char_traits@D@std@@V?$allocator@D@2@@std@@QBEXXZ PROC ; std::basic_string<char,std::char_traits<char>,std::allocator<char> >::_Xran, COMDAT
; _this$ = ecx

; 2275 : 		{	// report an out_of_range error

	push	ebp
	mov	ebp, esp
	push	ecx
	mov	DWORD PTR _this$[ebp], ecx

; 2276 : 		_Xout_of_range("invalid string position");

	push	OFFSET ??_C@_0BI@CFPLBAOH@invalid?5string?5position?$AA@
	call	?_Xout_of_range@std@@YAXPBD@Z		; std::_Xout_of_range
$LN2@Xran:

; 2277 : 		}

	mov	esp, ebp
	pop	ebp
	ret	0
?_Xran@?$basic_string@DU?$char_traits@D@std@@V?$allocator@D@2@@std@@QBEXXZ ENDP ; std::basic_string<char,std::char_traits<char>,std::allocator<char> >::_Xran
_TEXT	ENDS
; Function compile flags: /Odtp
; File c:\program files (x86)\microsoft visual studio 11.0\vc\include\xstring
;	COMDAT ?_Xlen@?$basic_string@DU?$char_traits@D@std@@V?$allocator@D@2@@std@@QBEXXZ
_TEXT	SEGMENT
_this$ = -4						; size = 4
?_Xlen@?$basic_string@DU?$char_traits@D@std@@V?$allocator@D@2@@std@@QBEXXZ PROC ; std::basic_string<char,std::char_traits<char>,std::allocator<char> >::_Xlen, COMDAT
; _this$ = ecx

; 2270 : 		{	// report a length_error

	push	ebp
	mov	ebp, esp
	push	ecx
	mov	DWORD PTR _this$[ebp], ecx

; 2271 : 		_Xlength_error("string too long");

	push	OFFSET ??_C@_0BA@JFNIOLAK@string?5too?5long?$AA@
	call	?_Xlength_error@std@@YAXPBD@Z		; std::_Xlength_error
$LN2@Xlen:

; 2272 : 		}

	mov	esp, ebp
	pop	ebp
	ret	0
?_Xlen@?$basic_string@DU?$char_traits@D@std@@V?$allocator@D@2@@std@@QBEXXZ ENDP ; std::basic_string<char,std::char_traits<char>,std::allocator<char> >::_Xlen
_TEXT	ENDS
; Function compile flags: /Odtp
; File c:\program files (x86)\microsoft visual studio 11.0\vc\include\xstring
;	COMDAT ?_Tidy@?$basic_string@DU?$char_traits@D@std@@V?$allocator@D@2@@std@@QAEX_NI@Z
_TEXT	SEGMENT
__Ptr$1 = -12						; size = 4
_this$ = -8						; size = 4
$T2 = -2						; size = 1
$T3 = -1						; size = 1
__Built$ = 8						; size = 1
__Newsize$ = 12						; size = 4
?_Tidy@?$basic_string@DU?$char_traits@D@std@@V?$allocator@D@2@@std@@QAEX_NI@Z PROC ; std::basic_string<char,std::char_traits<char>,std::allocator<char> >::_Tidy, COMDAT
; _this$ = ecx

; 2253 : 		{	// initialize buffer, deallocating any storage

	push	ebp
	mov	ebp, esp
	sub	esp, 12					; 0000000cH
	mov	DWORD PTR _this$[ebp], ecx

; 2254 : 		if (!_Built)

	movzx	eax, BYTE PTR __Built$[ebp]
	test	eax, eax
	jne	SHORT $LN4@Tidy
	jmp	SHORT $LN3@Tidy
$LN4@Tidy:

; 2255 : 			;
; 2256 : 		else if (this->_BUF_SIZE <= this->_Myres)

	mov	ecx, DWORD PTR _this$[ebp]
	cmp	DWORD PTR [ecx+20], 16			; 00000010H
	jb	SHORT $LN3@Tidy

; 2257 : 			{	// copy any leftovers to small buffer and deallocate
; 2258 : 			pointer _Ptr = this->_Bx._Ptr;

	mov	edx, DWORD PTR _this$[ebp]
	mov	eax, DWORD PTR [edx]
	mov	DWORD PTR __Ptr$1[ebp], eax

; 2259 : 			this->_Getal().destroy(&this->_Bx._Ptr);

	mov	ecx, DWORD PTR _this$[ebp]
	push	ecx
	lea	edx, DWORD PTR $T3[ebp]
	push	edx
	mov	ecx, DWORD PTR _this$[ebp]
	call	?_Getal@?$_String_alloc@$0A@U?$_String_base_types@DV?$allocator@D@std@@@std@@@std@@QBE?AU?$_Wrap_alloc@V?$allocator@D@std@@@2@XZ ; std::_String_alloc<0,std::_String_base_types<char,std::allocator<char> > >::_Getal
	mov	ecx, eax
	call	??$destroy@PAD@?$_Wrap_alloc@V?$allocator@D@std@@@std@@QAEXPAPAD@Z ; std::_Wrap_alloc<std::allocator<char> >::destroy<char *>

; 2260 : 			if (0 < _Newsize)

	cmp	DWORD PTR __Newsize$[ebp], 0
	jbe	SHORT $LN1@Tidy

; 2261 : 				_Traits::copy(this->_Bx._Buf,
; 2262 : 					_STD addressof(*_Ptr), _Newsize);

	mov	eax, DWORD PTR __Newsize$[ebp]
	push	eax
	mov	ecx, DWORD PTR __Ptr$1[ebp]
	push	ecx
	call	??$addressof@D@std@@YAPADAAD@Z		; std::addressof<char>
	add	esp, 4
	push	eax
	mov	edx, DWORD PTR _this$[ebp]
	push	edx
	call	?copy@?$char_traits@D@std@@SAPADPADPBDI@Z ; std::char_traits<char>::copy
	add	esp, 12					; 0000000cH
$LN1@Tidy:

; 2263 : 			this->_Getal().deallocate(_Ptr, this->_Myres + 1);

	mov	eax, DWORD PTR _this$[ebp]
	mov	ecx, DWORD PTR [eax+20]
	add	ecx, 1
	push	ecx
	mov	edx, DWORD PTR __Ptr$1[ebp]
	push	edx
	lea	eax, DWORD PTR $T2[ebp]
	push	eax
	mov	ecx, DWORD PTR _this$[ebp]
	call	?_Getal@?$_String_alloc@$0A@U?$_String_base_types@DV?$allocator@D@std@@@std@@@std@@QBE?AU?$_Wrap_alloc@V?$allocator@D@std@@@2@XZ ; std::_String_alloc<0,std::_String_base_types<char,std::allocator<char> > >::_Getal
	mov	ecx, eax
	call	?deallocate@?$_Wrap_alloc@V?$allocator@D@std@@@std@@QAEXPADI@Z ; std::_Wrap_alloc<std::allocator<char> >::deallocate
$LN3@Tidy:

; 2264 : 			}
; 2265 : 		this->_Myres = this->_BUF_SIZE - 1;

	mov	ecx, DWORD PTR _this$[ebp]
	mov	DWORD PTR [ecx+20], 15			; 0000000fH

; 2266 : 		_Eos(_Newsize);

	mov	edx, DWORD PTR __Newsize$[ebp]
	push	edx
	mov	ecx, DWORD PTR _this$[ebp]
	call	?_Eos@?$basic_string@DU?$char_traits@D@std@@V?$allocator@D@2@@std@@QAEXI@Z ; std::basic_string<char,std::char_traits<char>,std::allocator<char> >::_Eos

; 2267 : 		}

	mov	esp, ebp
	pop	ebp
	ret	8
?_Tidy@?$basic_string@DU?$char_traits@D@std@@V?$allocator@D@2@@std@@QAEX_NI@Z ENDP ; std::basic_string<char,std::char_traits<char>,std::allocator<char> >::_Tidy
_TEXT	ENDS
; Function compile flags: /Odtp
; File c:\program files (x86)\microsoft visual studio 11.0\vc\include\xstring
;	COMDAT ?_Inside@?$basic_string@DU?$char_traits@D@std@@V?$allocator@D@2@@std@@QAE_NPBD@Z
_TEXT	SEGMENT
_this$ = -4						; size = 4
__Ptr$ = 8						; size = 4
?_Inside@?$basic_string@DU?$char_traits@D@std@@V?$allocator@D@2@@std@@QAE_NPBD@Z PROC ; std::basic_string<char,std::char_traits<char>,std::allocator<char> >::_Inside, COMDAT
; _this$ = ecx

; 2237 : 		{	// test if _Ptr points inside string

	push	ebp
	mov	ebp, esp
	push	ecx
	mov	DWORD PTR _this$[ebp], ecx

; 2238 : 		if (_Ptr == 0 || _Ptr < this->_Myptr()
; 2239 : 			|| this->_Myptr() + this->_Mysize <= _Ptr)

	cmp	DWORD PTR __Ptr$[ebp], 0
	je	SHORT $LN2@Inside
	mov	ecx, DWORD PTR _this$[ebp]
	call	?_Myptr@?$_String_val@U?$_Simple_types@D@std@@@std@@QAEPADXZ ; std::_String_val<std::_Simple_types<char> >::_Myptr
	cmp	DWORD PTR __Ptr$[ebp], eax
	jb	SHORT $LN2@Inside
	mov	ecx, DWORD PTR _this$[ebp]
	call	?_Myptr@?$_String_val@U?$_Simple_types@D@std@@@std@@QAEPADXZ ; std::_String_val<std::_Simple_types<char> >::_Myptr
	mov	ecx, DWORD PTR _this$[ebp]
	add	eax, DWORD PTR [ecx+16]
	cmp	eax, DWORD PTR __Ptr$[ebp]
	ja	SHORT $LN3@Inside
$LN2@Inside:

; 2240 : 			return (false);	// don't ask

	xor	al, al
	jmp	SHORT $LN4@Inside

; 2241 : 		else

	jmp	SHORT $LN4@Inside
$LN3@Inside:

; 2242 : 			return (true);

	mov	al, 1
$LN4@Inside:

; 2243 : 		}

	mov	esp, ebp
	pop	ebp
	ret	4
?_Inside@?$basic_string@DU?$char_traits@D@std@@V?$allocator@D@2@@std@@QAE_NPBD@Z ENDP ; std::basic_string<char,std::char_traits<char>,std::allocator<char> >::_Inside
_TEXT	ENDS
; Function compile flags: /Odtp
; File c:\program files (x86)\microsoft visual studio 11.0\vc\include\xstring
;	COMDAT ?_Grow@?$basic_string@DU?$char_traits@D@std@@V?$allocator@D@2@@std@@QAE_NI_N@Z
_TEXT	SEGMENT
tv136 = -12						; size = 4
tv129 = -8						; size = 4
_this$ = -4						; size = 4
__Newsize$ = 8						; size = 4
__Trim$ = 12						; size = 1
?_Grow@?$basic_string@DU?$char_traits@D@std@@V?$allocator@D@2@@std@@QAE_NI_N@Z PROC ; std::basic_string<char,std::char_traits<char>,std::allocator<char> >::_Grow, COMDAT
; _this$ = ecx

; 2223 : 		{	// ensure buffer is big enough, trim to size if _Trim is true

	push	ebp
	mov	ebp, esp
	sub	esp, 12					; 0000000cH
	mov	DWORD PTR _this$[ebp], ecx

; 2224 : 		if (max_size() < _Newsize)

	mov	ecx, DWORD PTR _this$[ebp]
	call	?max_size@?$basic_string@DU?$char_traits@D@std@@V?$allocator@D@2@@std@@QBEIXZ ; std::basic_string<char,std::char_traits<char>,std::allocator<char> >::max_size
	cmp	eax, DWORD PTR __Newsize$[ebp]
	jae	SHORT $LN6@Grow

; 2225 : 			_Xlen();	// result too long

	mov	ecx, DWORD PTR _this$[ebp]
	call	?_Xlen@?$basic_string@DU?$char_traits@D@std@@V?$allocator@D@2@@std@@QBEXXZ ; std::basic_string<char,std::char_traits<char>,std::allocator<char> >::_Xlen
$LN6@Grow:

; 2226 : 		if (this->_Myres < _Newsize)

	mov	eax, DWORD PTR _this$[ebp]
	mov	ecx, DWORD PTR [eax+20]
	cmp	ecx, DWORD PTR __Newsize$[ebp]
	jae	SHORT $LN5@Grow

; 2227 : 			_Copy(_Newsize, this->_Mysize);	// reallocate to grow

	mov	edx, DWORD PTR _this$[ebp]
	mov	eax, DWORD PTR [edx+16]
	push	eax
	mov	ecx, DWORD PTR __Newsize$[ebp]
	push	ecx
	mov	ecx, DWORD PTR _this$[ebp]
	call	?_Copy@?$basic_string@DU?$char_traits@D@std@@V?$allocator@D@2@@std@@QAEXII@Z ; std::basic_string<char,std::char_traits<char>,std::allocator<char> >::_Copy
	jmp	SHORT $LN4@Grow
$LN5@Grow:

; 2228 : 		else if (_Trim && _Newsize < this->_BUF_SIZE)

	movzx	edx, BYTE PTR __Trim$[ebp]
	test	edx, edx
	je	SHORT $LN3@Grow
	cmp	DWORD PTR __Newsize$[ebp], 16		; 00000010H
	jae	SHORT $LN3@Grow

; 2229 : 			_Tidy(true,	// copy and deallocate if trimming to small string
; 2230 : 				_Newsize < this->_Mysize ? _Newsize : this->_Mysize);

	mov	eax, DWORD PTR _this$[ebp]
	mov	ecx, DWORD PTR __Newsize$[ebp]
	cmp	ecx, DWORD PTR [eax+16]
	jae	SHORT $LN9@Grow
	mov	edx, DWORD PTR __Newsize$[ebp]
	mov	DWORD PTR tv129[ebp], edx
	jmp	SHORT $LN10@Grow
$LN9@Grow:
	mov	eax, DWORD PTR _this$[ebp]
	mov	ecx, DWORD PTR [eax+16]
	mov	DWORD PTR tv129[ebp], ecx
$LN10@Grow:
	mov	edx, DWORD PTR tv129[ebp]
	push	edx
	push	1
	mov	ecx, DWORD PTR _this$[ebp]
	call	?_Tidy@?$basic_string@DU?$char_traits@D@std@@V?$allocator@D@2@@std@@QAEX_NI@Z ; std::basic_string<char,std::char_traits<char>,std::allocator<char> >::_Tidy
	jmp	SHORT $LN4@Grow
$LN3@Grow:

; 2231 : 		else if (_Newsize == 0)

	cmp	DWORD PTR __Newsize$[ebp], 0
	jne	SHORT $LN4@Grow

; 2232 : 			_Eos(0);	// new size is zero, just null terminate

	push	0
	mov	ecx, DWORD PTR _this$[ebp]
	call	?_Eos@?$basic_string@DU?$char_traits@D@std@@V?$allocator@D@2@@std@@QAEXI@Z ; std::basic_string<char,std::char_traits<char>,std::allocator<char> >::_Eos
$LN4@Grow:

; 2233 : 		return (0 < _Newsize);	// return true only if more work to do

	cmp	DWORD PTR __Newsize$[ebp], 0
	jbe	SHORT $LN11@Grow
	mov	DWORD PTR tv136[ebp], 1
	jmp	SHORT $LN12@Grow
$LN11@Grow:
	mov	DWORD PTR tv136[ebp], 0
$LN12@Grow:
	mov	al, BYTE PTR tv136[ebp]
$LN8@Grow:

; 2234 : 		}

	mov	esp, ebp
	pop	ebp
	ret	8
?_Grow@?$basic_string@DU?$char_traits@D@std@@V?$allocator@D@2@@std@@QAE_NI_N@Z ENDP ; std::basic_string<char,std::char_traits<char>,std::allocator<char> >::_Grow
_TEXT	ENDS
; Function compile flags: /Odtp
; File c:\program files (x86)\microsoft visual studio 11.0\vc\include\xstring
;	COMDAT ?_Eos@?$basic_string@DU?$char_traits@D@std@@V?$allocator@D@2@@std@@QAEXI@Z
_TEXT	SEGMENT
_this$ = -8						; size = 4
$T1 = -1						; size = 1
__Newsize$ = 8						; size = 4
?_Eos@?$basic_string@DU?$char_traits@D@std@@V?$allocator@D@2@@std@@QAEXI@Z PROC ; std::basic_string<char,std::char_traits<char>,std::allocator<char> >::_Eos, COMDAT
; _this$ = ecx

; 2217 : 		{	// set new length and null terminator

	push	ebp
	mov	ebp, esp
	sub	esp, 8
	mov	DWORD PTR _this$[ebp], ecx

; 2218 : 		_Traits::assign(this->_Myptr()[this->_Mysize = _Newsize], _Elem());

	mov	BYTE PTR $T1[ebp], 0
	mov	eax, DWORD PTR _this$[ebp]
	mov	ecx, DWORD PTR __Newsize$[ebp]
	mov	DWORD PTR [eax+16], ecx
	lea	edx, DWORD PTR $T1[ebp]
	push	edx
	mov	ecx, DWORD PTR _this$[ebp]
	call	?_Myptr@?$_String_val@U?$_Simple_types@D@std@@@std@@QAEPADXZ ; std::_String_val<std::_Simple_types<char> >::_Myptr
	add	eax, DWORD PTR __Newsize$[ebp]
	push	eax
	call	?assign@?$char_traits@D@std@@SAXAADABD@Z ; std::char_traits<char>::assign
	add	esp, 8

; 2219 : 		}

	mov	esp, ebp
	pop	ebp
	ret	4
?_Eos@?$basic_string@DU?$char_traits@D@std@@V?$allocator@D@2@@std@@QAEXI@Z ENDP ; std::basic_string<char,std::char_traits<char>,std::allocator<char> >::_Eos
_TEXT	ENDS
; Function compile flags: /Odtp
; File c:\program files (x86)\microsoft visual studio 11.0\vc\include\xstring
;	COMDAT ?_Copy@?$basic_string@DU?$char_traits@D@std@@V?$allocator@D@2@@std@@QAEXII@Z
_TEXT	SEGMENT
tv205 = -48						; size = 4
tv204 = -44						; size = 4
tv203 = -40						; size = 4
tv202 = -36						; size = 4
__Ptr$ = -32						; size = 4
__Newres$ = -28						; size = 4
_this$ = -24						; size = 4
$T2 = -19						; size = 1
$T3 = -18						; size = 1
$T4 = -17						; size = 1
__$EHRec$ = -16						; size = 16
__Newsize$ = 8						; size = 4
__Oldlen$ = 12						; size = 4
?_Copy@?$basic_string@DU?$char_traits@D@std@@V?$allocator@D@2@@std@@QAEXII@Z PROC ; std::basic_string<char,std::char_traits<char>,std::allocator<char> >::_Copy, COMDAT
; _this$ = ecx

; 2182 : 		{	// copy _Oldlen elements to newly allocated buffer

	push	ebp
	mov	ebp, esp
	push	-1
	push	__ehhandler$?_Copy@?$basic_string@DU?$char_traits@D@std@@V?$allocator@D@2@@std@@QAEXII@Z
	mov	eax, DWORD PTR fs:0
	push	eax
	push	ecx
	sub	esp, 32					; 00000020H
	push	ebx
	push	esi
	push	edi
	mov	eax, DWORD PTR ___security_cookie
	xor	eax, ebp
	push	eax
	lea	eax, DWORD PTR __$EHRec$[ebp+4]
	mov	DWORD PTR fs:0, eax
	mov	DWORD PTR __$EHRec$[ebp], esp
	mov	DWORD PTR _this$[ebp], ecx

; 2183 : 		size_type _Newres = _Newsize | this->_ALLOC_MASK;

	mov	eax, DWORD PTR __Newsize$[ebp]
	or	eax, 15					; 0000000fH
	mov	DWORD PTR __Newres$[ebp], eax

; 2184 : 		if (max_size() < _Newres)

	mov	ecx, DWORD PTR _this$[ebp]
	call	?max_size@?$basic_string@DU?$char_traits@D@std@@V?$allocator@D@2@@std@@QBEIXZ ; std::basic_string<char,std::char_traits<char>,std::allocator<char> >::max_size
	cmp	eax, DWORD PTR __Newres$[ebp]
	jae	SHORT $LN9@Copy

; 2185 : 			_Newres = _Newsize;	// undo roundup if too big

	mov	ecx, DWORD PTR __Newsize$[ebp]
	mov	DWORD PTR __Newres$[ebp], ecx
	jmp	SHORT $LN8@Copy
$LN9@Copy:

; 2186 : 		else if (this->_Myres / 2 <= _Newres / 3)

	mov	eax, DWORD PTR __Newres$[ebp]
	xor	edx, edx
	mov	ecx, 3
	div	ecx
	mov	edx, DWORD PTR _this$[ebp]
	mov	ecx, DWORD PTR [edx+20]
	shr	ecx, 1
	cmp	ecx, eax
	ja	SHORT $LN7@Copy
	jmp	SHORT $LN8@Copy
$LN7@Copy:

; 2187 : 			;
; 2188 : 		else if (this->_Myres <= max_size() - this->_Myres / 2)

	mov	edx, DWORD PTR _this$[ebp]
	mov	esi, DWORD PTR [edx+20]
	shr	esi, 1
	mov	ecx, DWORD PTR _this$[ebp]
	call	?max_size@?$basic_string@DU?$char_traits@D@std@@V?$allocator@D@2@@std@@QBEIXZ ; std::basic_string<char,std::char_traits<char>,std::allocator<char> >::max_size
	sub	eax, esi
	mov	ecx, DWORD PTR _this$[ebp]
	cmp	DWORD PTR [ecx+20], eax
	ja	SHORT $LN5@Copy

; 2189 : 			_Newres = this->_Myres
; 2190 : 				+ this->_Myres / 2;	// grow exponentially if possible

	mov	edx, DWORD PTR _this$[ebp]
	mov	eax, DWORD PTR [edx+20]
	shr	eax, 1
	mov	ecx, DWORD PTR _this$[ebp]
	add	eax, DWORD PTR [ecx+20]
	mov	DWORD PTR __Newres$[ebp], eax

; 2191 : 		else

	jmp	SHORT $LN8@Copy
$LN5@Copy:

; 2192 : 			_Newres = max_size();	// settle for max_size()

	mov	ecx, DWORD PTR _this$[ebp]
	call	?max_size@?$basic_string@DU?$char_traits@D@std@@V?$allocator@D@2@@std@@QBEIXZ ; std::basic_string<char,std::char_traits<char>,std::allocator<char> >::max_size
	mov	DWORD PTR __Newres$[ebp], eax
$LN8@Copy:

; 2193 : 
; 2194 : 		_Elem *_Ptr;
; 2195 : 		_TRY_BEGIN

	mov	DWORD PTR __$EHRec$[ebp+12], 0

; 2196 : 			_Ptr = this->_Getal().allocate(_Newres + 1);

	lea	edx, DWORD PTR $T4[ebp]
	push	edx
	mov	ecx, DWORD PTR _this$[ebp]
	call	?_Getal@?$_String_alloc@$0A@U?$_String_base_types@DV?$allocator@D@std@@@std@@@std@@QBE?AU?$_Wrap_alloc@V?$allocator@D@std@@@2@XZ ; std::_String_alloc<0,std::_String_base_types<char,std::allocator<char> > >::_Getal
	mov	DWORD PTR tv202[ebp], eax
	mov	eax, DWORD PTR __Newres$[ebp]
	add	eax, 1
	push	eax
	mov	ecx, DWORD PTR tv202[ebp]
	call	?allocate@?$_Wrap_alloc@V?$allocator@D@std@@@std@@QAEPADI@Z ; std::_Wrap_alloc<std::allocator<char> >::allocate
	mov	DWORD PTR tv203[ebp], eax
	mov	ecx, DWORD PTR tv203[ebp]
	mov	DWORD PTR __Ptr$[ebp], ecx
	jmp	SHORT $LN12@Copy
__catch$?_Copy@?$basic_string@DU?$char_traits@D@std@@V?$allocator@D@2@@std@@QAEXII@Z$0:

; 2197 : 		_CATCH_ALL

	mov	DWORD PTR __$EHRec$[ebp], esp

; 2198 : 			_Newres = _Newsize;	// allocation failed, undo roundup and retry

	mov	edx, DWORD PTR __Newsize$[ebp]
	mov	DWORD PTR __Newres$[ebp], edx

; 2199 : 			_TRY_BEGIN

	mov	BYTE PTR __$EHRec$[ebp+12], 2

; 2200 : 				_Ptr = this->_Getal().allocate(_Newres + 1);

	lea	eax, DWORD PTR $T3[ebp]
	push	eax
	mov	ecx, DWORD PTR _this$[ebp]
	call	?_Getal@?$_String_alloc@$0A@U?$_String_base_types@DV?$allocator@D@std@@@std@@@std@@QBE?AU?$_Wrap_alloc@V?$allocator@D@std@@@2@XZ ; std::_String_alloc<0,std::_String_base_types<char,std::allocator<char> > >::_Getal
	mov	DWORD PTR tv204[ebp], eax
	mov	ecx, DWORD PTR __Newres$[ebp]
	add	ecx, 1
	push	ecx
	mov	ecx, DWORD PTR tv204[ebp]
	call	?allocate@?$_Wrap_alloc@V?$allocator@D@std@@@std@@QAEPADI@Z ; std::_Wrap_alloc<std::allocator<char> >::allocate
	mov	DWORD PTR tv205[ebp], eax
	mov	edx, DWORD PTR tv205[ebp]
	mov	DWORD PTR __Ptr$[ebp], edx
	jmp	SHORT $LN14@Copy
__catch$?_Copy@?$basic_string@DU?$char_traits@D@std@@V?$allocator@D@2@@std@@QAEXII@Z$1:

; 2201 : 			_CATCH_ALL
; 2202 : 			_Tidy(true);	// failed again, discard storage and reraise

	push	0
	push	1
	mov	ecx, DWORD PTR _this$[ebp]
	call	?_Tidy@?$basic_string@DU?$char_traits@D@std@@V?$allocator@D@2@@std@@QAEX_NI@Z ; std::basic_string<char,std::char_traits<char>,std::allocator<char> >::_Tidy

; 2203 : 			_RERAISE;

	push	0
	push	0
	call	__CxxThrowException@8

; 2204 : 			_CATCH_END

	mov	eax, $LN17@Copy
	ret	0
$LN14@Copy:
	mov	DWORD PTR __$EHRec$[ebp+12], 1
	jmp	SHORT __tryend$?_Copy@?$basic_string@DU?$char_traits@D@std@@V?$allocator@D@2@@std@@QAEXII@Z$2
$LN17@Copy:
	mov	DWORD PTR __$EHRec$[ebp+12], 1
__tryend$?_Copy@?$basic_string@DU?$char_traits@D@std@@V?$allocator@D@2@@std@@QAEXII@Z$2:

; 2205 : 		_CATCH_END

	mov	eax, $LN19@Copy
	ret	0
$LN12@Copy:
	mov	DWORD PTR __$EHRec$[ebp+12], -1
	jmp	SHORT __tryend$?_Copy@?$basic_string@DU?$char_traits@D@std@@V?$allocator@D@2@@std@@QAEXII@Z$3
$LN19@Copy:
	mov	DWORD PTR __$EHRec$[ebp+12], -1
__tryend$?_Copy@?$basic_string@DU?$char_traits@D@std@@V?$allocator@D@2@@std@@QAEXII@Z$3:

; 2206 : 
; 2207 : 		if (0 < _Oldlen)

	cmp	DWORD PTR __Oldlen$[ebp], 0
	jbe	SHORT $LN1@Copy

; 2208 : 			_Traits::copy(_Ptr, this->_Myptr(),
; 2209 : 				_Oldlen);	// copy existing elements

	mov	eax, DWORD PTR __Oldlen$[ebp]
	push	eax
	mov	ecx, DWORD PTR _this$[ebp]
	call	?_Myptr@?$_String_val@U?$_Simple_types@D@std@@@std@@QAEPADXZ ; std::_String_val<std::_Simple_types<char> >::_Myptr
	push	eax
	mov	ecx, DWORD PTR __Ptr$[ebp]
	push	ecx
	call	?copy@?$char_traits@D@std@@SAPADPADPBDI@Z ; std::char_traits<char>::copy
	add	esp, 12					; 0000000cH
$LN1@Copy:

; 2210 : 		_Tidy(true);

	push	0
	push	1
	mov	ecx, DWORD PTR _this$[ebp]
	call	?_Tidy@?$basic_string@DU?$char_traits@D@std@@V?$allocator@D@2@@std@@QAEX_NI@Z ; std::basic_string<char,std::char_traits<char>,std::allocator<char> >::_Tidy

; 2211 : 		this->_Getal().construct(&this->_Bx._Ptr, _Ptr);

	lea	edx, DWORD PTR __Ptr$[ebp]
	push	edx
	mov	eax, DWORD PTR _this$[ebp]
	push	eax
	lea	ecx, DWORD PTR $T2[ebp]
	push	ecx
	mov	ecx, DWORD PTR _this$[ebp]
	call	?_Getal@?$_String_alloc@$0A@U?$_String_base_types@DV?$allocator@D@std@@@std@@@std@@QBE?AU?$_Wrap_alloc@V?$allocator@D@std@@@2@XZ ; std::_String_alloc<0,std::_String_base_types<char,std::allocator<char> > >::_Getal
	mov	ecx, eax
	call	??$construct@PADAAPAD@?$_Wrap_alloc@V?$allocator@D@std@@@std@@QAEXPAPADAAPAD@Z ; std::_Wrap_alloc<std::allocator<char> >::construct<char *,char * &>

; 2212 : 		this->_Myres = _Newres;

	mov	edx, DWORD PTR _this$[ebp]
	mov	eax, DWORD PTR __Newres$[ebp]
	mov	DWORD PTR [edx+20], eax

; 2213 : 		_Eos(_Oldlen);

	mov	ecx, DWORD PTR __Oldlen$[ebp]
	push	ecx
	mov	ecx, DWORD PTR _this$[ebp]
	call	?_Eos@?$basic_string@DU?$char_traits@D@std@@V?$allocator@D@2@@std@@QAEXI@Z ; std::basic_string<char,std::char_traits<char>,std::allocator<char> >::_Eos
$LN11@Copy:

; 2214 : 		}

	mov	ecx, DWORD PTR __$EHRec$[ebp+4]
	mov	DWORD PTR fs:0, ecx
	pop	ecx
	pop	edi
	pop	esi
	pop	ebx
	mov	esp, ebp
	pop	ebp
	ret	8
_TEXT	ENDS
;	COMDAT text$x
text$x	SEGMENT
__ehhandler$?_Copy@?$basic_string@DU?$char_traits@D@std@@V?$allocator@D@2@@std@@QAEXII@Z:
	mov	edx, DWORD PTR [esp+8]
	lea	eax, DWORD PTR [edx+12]
	mov	ecx, DWORD PTR [edx-52]
	xor	ecx, eax
	call	@__security_check_cookie@4
	mov	eax, OFFSET __ehfuncinfo$?_Copy@?$basic_string@DU?$char_traits@D@std@@V?$allocator@D@2@@std@@QAEXII@Z
	jmp	___CxxFrameHandler3
text$x	ENDS
?_Copy@?$basic_string@DU?$char_traits@D@std@@V?$allocator@D@2@@std@@QAEXII@Z ENDP ; std::basic_string<char,std::char_traits<char>,std::allocator<char> >::_Copy
; Function compile flags: /Odtp
; File c:\program files (x86)\microsoft visual studio 11.0\vc\include\xstring
;	COMDAT ?max_size@?$basic_string@DU?$char_traits@D@std@@V?$allocator@D@2@@std@@QBEIXZ
_TEXT	SEGMENT
_this$ = -16						; size = 4
tv75 = -12						; size = 4
__Num$ = -8						; size = 4
$T1 = -1						; size = 1
?max_size@?$basic_string@DU?$char_traits@D@std@@V?$allocator@D@2@@std@@QBEIXZ PROC ; std::basic_string<char,std::char_traits<char>,std::allocator<char> >::max_size, COMDAT
; _this$ = ecx

; 1737 : 		{	// return maximum possible length of sequence

	push	ebp
	mov	ebp, esp
	sub	esp, 16					; 00000010H
	mov	DWORD PTR _this$[ebp], ecx

; 1738 : 		size_type _Num = this->_Getal().max_size();

	lea	eax, DWORD PTR $T1[ebp]
	push	eax
	mov	ecx, DWORD PTR _this$[ebp]
	call	?_Getal@?$_String_alloc@$0A@U?$_String_base_types@DV?$allocator@D@std@@@std@@@std@@QBE?AU?$_Wrap_alloc@V?$allocator@D@std@@@2@XZ ; std::_String_alloc<0,std::_String_base_types<char,std::allocator<char> > >::_Getal
	mov	ecx, eax
	call	?max_size@?$_Wrap_alloc@V?$allocator@D@std@@@std@@QBEIXZ ; std::_Wrap_alloc<std::allocator<char> >::max_size
	mov	DWORD PTR __Num$[ebp], eax

; 1739 : 		return (_Num <= 1 ? 1 : _Num - 1);

	cmp	DWORD PTR __Num$[ebp], 1
	ja	SHORT $LN3@max_size
	mov	DWORD PTR tv75[ebp], 1
	jmp	SHORT $LN4@max_size
$LN3@max_size:
	mov	ecx, DWORD PTR __Num$[ebp]
	sub	ecx, 1
	mov	DWORD PTR tv75[ebp], ecx
$LN4@max_size:
	mov	eax, DWORD PTR tv75[ebp]

; 1740 : 		}

	mov	esp, ebp
	pop	ebp
	ret	0
?max_size@?$basic_string@DU?$char_traits@D@std@@V?$allocator@D@2@@std@@QBEIXZ ENDP ; std::basic_string<char,std::char_traits<char>,std::allocator<char> >::max_size
_TEXT	ENDS
; Function compile flags: /Odtp
; File c:\program files (x86)\microsoft visual studio 11.0\vc\include\xstring
;	COMDAT ?size@?$basic_string@DU?$char_traits@D@std@@V?$allocator@D@2@@std@@QBEIXZ
_TEXT	SEGMENT
_this$ = -4						; size = 4
?size@?$basic_string@DU?$char_traits@D@std@@V?$allocator@D@2@@std@@QBEIXZ PROC ; std::basic_string<char,std::char_traits<char>,std::allocator<char> >::size, COMDAT
; _this$ = ecx

; 1732 : 		{	// return length of sequence

	push	ebp
	mov	ebp, esp
	push	ecx
	mov	DWORD PTR _this$[ebp], ecx

; 1733 : 		return (this->_Mysize);

	mov	eax, DWORD PTR _this$[ebp]
	mov	eax, DWORD PTR [eax+16]

; 1734 : 		}

	mov	esp, ebp
	pop	ebp
	ret	0
?size@?$basic_string@DU?$char_traits@D@std@@V?$allocator@D@2@@std@@QBEIXZ ENDP ; std::basic_string<char,std::char_traits<char>,std::allocator<char> >::size
_TEXT	ENDS
; Function compile flags: /Odtp
; File c:\program files (x86)\microsoft visual studio 11.0\vc\include\xstring
;	COMDAT ?erase@?$basic_string@DU?$char_traits@D@std@@V?$allocator@D@2@@std@@QAEAAV12@II@Z
_TEXT	SEGMENT
__Newsize$1 = -12					; size = 4
__Ptr$2 = -8						; size = 4
_this$ = -4						; size = 4
__Off$ = 8						; size = 4
__Count$ = 12						; size = 4
?erase@?$basic_string@DU?$char_traits@D@std@@V?$allocator@D@2@@std@@QAEAAV12@II@Z PROC ; std::basic_string<char,std::char_traits<char>,std::allocator<char> >::erase, COMDAT
; _this$ = ecx

; 1317 : 		{	// erase elements [_Off, _Off + _Count)

	push	ebp
	mov	ebp, esp
	sub	esp, 12					; 0000000cH
	mov	DWORD PTR _this$[ebp], ecx

; 1318 : 		if (this->_Mysize < _Off)

	mov	eax, DWORD PTR _this$[ebp]
	mov	ecx, DWORD PTR [eax+16]
	cmp	ecx, DWORD PTR __Off$[ebp]
	jae	SHORT $LN4@erase

; 1319 : 			_Xran();	// _Off off end

	mov	ecx, DWORD PTR _this$[ebp]
	call	?_Xran@?$basic_string@DU?$char_traits@D@std@@V?$allocator@D@2@@std@@QBEXXZ ; std::basic_string<char,std::char_traits<char>,std::allocator<char> >::_Xran
$LN4@erase:

; 1320 : 		if (this->_Mysize - _Off <= _Count)

	mov	edx, DWORD PTR _this$[ebp]
	mov	eax, DWORD PTR [edx+16]
	sub	eax, DWORD PTR __Off$[ebp]
	cmp	eax, DWORD PTR __Count$[ebp]
	ja	SHORT $LN3@erase

; 1321 : 			_Eos(_Off);	// erase elements [_Off, ...)

	mov	ecx, DWORD PTR __Off$[ebp]
	push	ecx
	mov	ecx, DWORD PTR _this$[ebp]
	call	?_Eos@?$basic_string@DU?$char_traits@D@std@@V?$allocator@D@2@@std@@QAEXI@Z ; std::basic_string<char,std::char_traits<char>,std::allocator<char> >::_Eos
	jmp	SHORT $LN2@erase
$LN3@erase:

; 1322 : 		else if (0 < _Count)

	cmp	DWORD PTR __Count$[ebp], 0
	jbe	SHORT $LN2@erase

; 1323 : 			{	// move elements down
; 1324 : 			value_type *_Ptr = this->_Myptr() + _Off;

	mov	ecx, DWORD PTR _this$[ebp]
	call	?_Myptr@?$_String_val@U?$_Simple_types@D@std@@@std@@QAEPADXZ ; std::_String_val<std::_Simple_types<char> >::_Myptr
	add	eax, DWORD PTR __Off$[ebp]
	mov	DWORD PTR __Ptr$2[ebp], eax

; 1325 : 			size_type _Newsize = this->_Mysize - _Count;

	mov	edx, DWORD PTR _this$[ebp]
	mov	eax, DWORD PTR [edx+16]
	sub	eax, DWORD PTR __Count$[ebp]
	mov	DWORD PTR __Newsize$1[ebp], eax

; 1326 : 			_Traits::move(_Ptr, _Ptr + _Count, _Newsize - _Off);

	mov	ecx, DWORD PTR __Newsize$1[ebp]
	sub	ecx, DWORD PTR __Off$[ebp]
	push	ecx
	mov	edx, DWORD PTR __Ptr$2[ebp]
	add	edx, DWORD PTR __Count$[ebp]
	push	edx
	mov	eax, DWORD PTR __Ptr$2[ebp]
	push	eax
	call	?move@?$char_traits@D@std@@SAPADPADPBDI@Z ; std::char_traits<char>::move
	add	esp, 12					; 0000000cH

; 1327 : 			_Eos(_Newsize);

	mov	ecx, DWORD PTR __Newsize$1[ebp]
	push	ecx
	mov	ecx, DWORD PTR _this$[ebp]
	call	?_Eos@?$basic_string@DU?$char_traits@D@std@@V?$allocator@D@2@@std@@QAEXI@Z ; std::basic_string<char,std::char_traits<char>,std::allocator<char> >::_Eos
$LN2@erase:

; 1328 : 			}
; 1329 : 		return (*this);

	mov	eax, DWORD PTR _this$[ebp]
$LN6@erase:

; 1330 : 		}

	mov	esp, ebp
	pop	ebp
	ret	8
?erase@?$basic_string@DU?$char_traits@D@std@@V?$allocator@D@2@@std@@QAEAAV12@II@Z ENDP ; std::basic_string<char,std::char_traits<char>,std::allocator<char> >::erase
_TEXT	ENDS
; Function compile flags: /Odtp
; File c:\program files (x86)\microsoft visual studio 11.0\vc\include\xstring
;	COMDAT ?erase@?$basic_string@DU?$char_traits@D@std@@V?$allocator@D@2@@std@@QAEAAV12@I@Z
_TEXT	SEGMENT
_this$ = -4						; size = 4
__Off$ = 8						; size = 4
?erase@?$basic_string@DU?$char_traits@D@std@@V?$allocator@D@2@@std@@QAEAAV12@I@Z PROC ; std::basic_string<char,std::char_traits<char>,std::allocator<char> >::erase, COMDAT
; _this$ = ecx

; 1309 : 		{	// erase elements [_Off, ...)

	push	ebp
	mov	ebp, esp
	push	ecx
	mov	DWORD PTR _this$[ebp], ecx

; 1310 : 		if (this->_Mysize < _Off)

	mov	eax, DWORD PTR _this$[ebp]
	mov	ecx, DWORD PTR [eax+16]
	cmp	ecx, DWORD PTR __Off$[ebp]
	jae	SHORT $LN1@erase

; 1311 : 			_Xran();	// _Off off end

	mov	ecx, DWORD PTR _this$[ebp]
	call	?_Xran@?$basic_string@DU?$char_traits@D@std@@V?$allocator@D@2@@std@@QBEXXZ ; std::basic_string<char,std::char_traits<char>,std::allocator<char> >::_Xran
$LN1@erase:

; 1312 : 		_Eos(_Off);

	mov	edx, DWORD PTR __Off$[ebp]
	push	edx
	mov	ecx, DWORD PTR _this$[ebp]
	call	?_Eos@?$basic_string@DU?$char_traits@D@std@@V?$allocator@D@2@@std@@QAEXI@Z ; std::basic_string<char,std::char_traits<char>,std::allocator<char> >::_Eos

; 1313 : 		return (*this);

	mov	eax, DWORD PTR _this$[ebp]
$LN3@erase:

; 1314 : 		}

	mov	esp, ebp
	pop	ebp
	ret	4
?erase@?$basic_string@DU?$char_traits@D@std@@V?$allocator@D@2@@std@@QAEAAV12@I@Z ENDP ; std::basic_string<char,std::char_traits<char>,std::allocator<char> >::erase
_TEXT	ENDS
; Function compile flags: /Odtp
; File c:\program files (x86)\microsoft visual studio 11.0\vc\include\xstring
;	COMDAT ?assign@?$basic_string@DU?$char_traits@D@std@@V?$allocator@D@2@@std@@QAEAAV12@PBD@Z
_TEXT	SEGMENT
_this$ = -4						; size = 4
__Ptr$ = 8						; size = 4
?assign@?$basic_string@DU?$char_traits@D@std@@V?$allocator@D@2@@std@@QAEAAV12@PBD@Z PROC ; std::basic_string<char,std::char_traits<char>,std::allocator<char> >::assign, COMDAT
; _this$ = ecx

; 1142 : 		{	// assign [_Ptr, <null>)

	push	ebp
	mov	ebp, esp
	push	ecx
	mov	DWORD PTR _this$[ebp], ecx

; 1143 : 		_DEBUG_POINTER(_Ptr);
; 1144 : 		return (assign(_Ptr, _Traits::length(_Ptr)));

	mov	eax, DWORD PTR __Ptr$[ebp]
	push	eax
	call	?length@?$char_traits@D@std@@SAIPBD@Z	; std::char_traits<char>::length
	add	esp, 4
	push	eax
	mov	ecx, DWORD PTR __Ptr$[ebp]
	push	ecx
	mov	ecx, DWORD PTR _this$[ebp]
	call	?assign@?$basic_string@DU?$char_traits@D@std@@V?$allocator@D@2@@std@@QAEAAV12@PBDI@Z ; std::basic_string<char,std::char_traits<char>,std::allocator<char> >::assign

; 1145 : 		}

	mov	esp, ebp
	pop	ebp
	ret	4
?assign@?$basic_string@DU?$char_traits@D@std@@V?$allocator@D@2@@std@@QAEAAV12@PBD@Z ENDP ; std::basic_string<char,std::char_traits<char>,std::allocator<char> >::assign
_TEXT	ENDS
; Function compile flags: /Odtp
; File c:\program files (x86)\microsoft visual studio 11.0\vc\include\xstring
;	COMDAT ?assign@?$basic_string@DU?$char_traits@D@std@@V?$allocator@D@2@@std@@QAEAAV12@PBDI@Z
_TEXT	SEGMENT
_this$ = -4						; size = 4
__Ptr$ = 8						; size = 4
__Count$ = 12						; size = 4
?assign@?$basic_string@DU?$char_traits@D@std@@V?$allocator@D@2@@std@@QAEAAV12@PBDI@Z PROC ; std::basic_string<char,std::char_traits<char>,std::allocator<char> >::assign, COMDAT
; _this$ = ecx

; 1123 : 		{	// assign [_Ptr, _Ptr + _Count)

	push	ebp
	mov	ebp, esp
	push	ecx
	mov	DWORD PTR _this$[ebp], ecx

; 1124 :  #if _ITERATOR_DEBUG_LEVEL == 2
; 1125 : 		if (_Count != 0)
; 1126 : 			_DEBUG_POINTER(_Ptr);
; 1127 :  #endif /* _ITERATOR_DEBUG_LEVEL == 2 */
; 1128 : 
; 1129 : 		if (_Inside(_Ptr))

	mov	eax, DWORD PTR __Ptr$[ebp]
	push	eax
	mov	ecx, DWORD PTR _this$[ebp]
	call	?_Inside@?$basic_string@DU?$char_traits@D@std@@V?$allocator@D@2@@std@@QAE_NPBD@Z ; std::basic_string<char,std::char_traits<char>,std::allocator<char> >::_Inside
	movzx	ecx, al
	test	ecx, ecx
	je	SHORT $LN2@assign

; 1130 : 			return (assign(*this,
; 1131 : 				_Ptr - this->_Myptr(), _Count));	// substring

	mov	edx, DWORD PTR __Count$[ebp]
	push	edx
	mov	ecx, DWORD PTR _this$[ebp]
	call	?_Myptr@?$_String_val@U?$_Simple_types@D@std@@@std@@QAEPADXZ ; std::_String_val<std::_Simple_types<char> >::_Myptr
	mov	ecx, DWORD PTR __Ptr$[ebp]
	sub	ecx, eax
	push	ecx
	mov	edx, DWORD PTR _this$[ebp]
	push	edx
	mov	ecx, DWORD PTR _this$[ebp]
	call	?assign@?$basic_string@DU?$char_traits@D@std@@V?$allocator@D@2@@std@@QAEAAV12@ABV12@II@Z ; std::basic_string<char,std::char_traits<char>,std::allocator<char> >::assign
	jmp	SHORT $LN3@assign
$LN2@assign:

; 1132 : 
; 1133 : 		if (_Grow(_Count))

	push	0
	mov	eax, DWORD PTR __Count$[ebp]
	push	eax
	mov	ecx, DWORD PTR _this$[ebp]
	call	?_Grow@?$basic_string@DU?$char_traits@D@std@@V?$allocator@D@2@@std@@QAE_NI_N@Z ; std::basic_string<char,std::char_traits<char>,std::allocator<char> >::_Grow
	movzx	ecx, al
	test	ecx, ecx
	je	SHORT $LN1@assign

; 1134 : 			{	// make room and assign new stuff
; 1135 : 			_Traits::copy(this->_Myptr(), _Ptr, _Count);

	mov	edx, DWORD PTR __Count$[ebp]
	push	edx
	mov	eax, DWORD PTR __Ptr$[ebp]
	push	eax
	mov	ecx, DWORD PTR _this$[ebp]
	call	?_Myptr@?$_String_val@U?$_Simple_types@D@std@@@std@@QAEPADXZ ; std::_String_val<std::_Simple_types<char> >::_Myptr
	push	eax
	call	?copy@?$char_traits@D@std@@SAPADPADPBDI@Z ; std::char_traits<char>::copy
	add	esp, 12					; 0000000cH

; 1136 : 			_Eos(_Count);

	mov	ecx, DWORD PTR __Count$[ebp]
	push	ecx
	mov	ecx, DWORD PTR _this$[ebp]
	call	?_Eos@?$basic_string@DU?$char_traits@D@std@@V?$allocator@D@2@@std@@QAEXI@Z ; std::basic_string<char,std::char_traits<char>,std::allocator<char> >::_Eos
$LN1@assign:

; 1137 : 			}
; 1138 : 		return (*this);

	mov	eax, DWORD PTR _this$[ebp]
$LN3@assign:

; 1139 : 		}

	mov	esp, ebp
	pop	ebp
	ret	8
?assign@?$basic_string@DU?$char_traits@D@std@@V?$allocator@D@2@@std@@QAEAAV12@PBDI@Z ENDP ; std::basic_string<char,std::char_traits<char>,std::allocator<char> >::assign
_TEXT	ENDS
; Function compile flags: /Odtp
; File c:\program files (x86)\microsoft visual studio 11.0\vc\include\xstring
;	COMDAT ?assign@?$basic_string@DU?$char_traits@D@std@@V?$allocator@D@2@@std@@QAEAAV12@ABV12@II@Z
_TEXT	SEGMENT
__Num$ = -8						; size = 4
_this$ = -4						; size = 4
__Right$ = 8						; size = 4
__Roff$ = 12						; size = 4
__Count$ = 16						; size = 4
?assign@?$basic_string@DU?$char_traits@D@std@@V?$allocator@D@2@@std@@QAEAAV12@ABV12@II@Z PROC ; std::basic_string<char,std::char_traits<char>,std::allocator<char> >::assign, COMDAT
; _this$ = ecx

; 1104 : 		{	// assign _Right [_Roff, _Roff + _Count)

	push	ebp
	mov	ebp, esp
	sub	esp, 8
	mov	DWORD PTR _this$[ebp], ecx

; 1105 : 		if (_Right.size() < _Roff)

	mov	ecx, DWORD PTR __Right$[ebp]
	call	?size@?$basic_string@DU?$char_traits@D@std@@V?$allocator@D@2@@std@@QBEIXZ ; std::basic_string<char,std::char_traits<char>,std::allocator<char> >::size
	cmp	eax, DWORD PTR __Roff$[ebp]
	jae	SHORT $LN5@assign

; 1106 : 			_Xran();	// _Roff off end

	mov	ecx, DWORD PTR _this$[ebp]
	call	?_Xran@?$basic_string@DU?$char_traits@D@std@@V?$allocator@D@2@@std@@QBEXXZ ; std::basic_string<char,std::char_traits<char>,std::allocator<char> >::_Xran
$LN5@assign:

; 1107 : 		size_type _Num = _Right.size() - _Roff;

	mov	ecx, DWORD PTR __Right$[ebp]
	call	?size@?$basic_string@DU?$char_traits@D@std@@V?$allocator@D@2@@std@@QBEIXZ ; std::basic_string<char,std::char_traits<char>,std::allocator<char> >::size
	sub	eax, DWORD PTR __Roff$[ebp]
	mov	DWORD PTR __Num$[ebp], eax

; 1108 : 		if (_Count < _Num)

	mov	eax, DWORD PTR __Count$[ebp]
	cmp	eax, DWORD PTR __Num$[ebp]
	jae	SHORT $LN4@assign

; 1109 : 			_Num = _Count;	// trim _Num to size

	mov	ecx, DWORD PTR __Count$[ebp]
	mov	DWORD PTR __Num$[ebp], ecx
$LN4@assign:

; 1110 : 
; 1111 : 		if (this == &_Right)

	mov	edx, DWORD PTR _this$[ebp]
	cmp	edx, DWORD PTR __Right$[ebp]
	jne	SHORT $LN3@assign

; 1112 : 			erase((size_type)(_Roff + _Num)), erase(0, _Roff);	// substring

	mov	eax, DWORD PTR __Roff$[ebp]
	add	eax, DWORD PTR __Num$[ebp]
	push	eax
	mov	ecx, DWORD PTR _this$[ebp]
	call	?erase@?$basic_string@DU?$char_traits@D@std@@V?$allocator@D@2@@std@@QAEAAV12@I@Z ; std::basic_string<char,std::char_traits<char>,std::allocator<char> >::erase
	mov	ecx, DWORD PTR __Roff$[ebp]
	push	ecx
	push	0
	mov	ecx, DWORD PTR _this$[ebp]
	call	?erase@?$basic_string@DU?$char_traits@D@std@@V?$allocator@D@2@@std@@QAEAAV12@II@Z ; std::basic_string<char,std::char_traits<char>,std::allocator<char> >::erase
	jmp	SHORT $LN2@assign
$LN3@assign:

; 1113 : 		else if (_Grow(_Num))

	push	0
	mov	edx, DWORD PTR __Num$[ebp]
	push	edx
	mov	ecx, DWORD PTR _this$[ebp]
	call	?_Grow@?$basic_string@DU?$char_traits@D@std@@V?$allocator@D@2@@std@@QAE_NI_N@Z ; std::basic_string<char,std::char_traits<char>,std::allocator<char> >::_Grow
	movzx	eax, al
	test	eax, eax
	je	SHORT $LN2@assign

; 1114 : 			{	// make room and assign new stuff
; 1115 : 			_Traits::copy(this->_Myptr(),
; 1116 : 				_Right._Myptr() + _Roff, _Num);

	mov	ecx, DWORD PTR __Num$[ebp]
	push	ecx
	mov	ecx, DWORD PTR __Right$[ebp]
	call	?_Myptr@?$_String_val@U?$_Simple_types@D@std@@@std@@QBEPBDXZ ; std::_String_val<std::_Simple_types<char> >::_Myptr
	add	eax, DWORD PTR __Roff$[ebp]
	push	eax
	mov	ecx, DWORD PTR _this$[ebp]
	call	?_Myptr@?$_String_val@U?$_Simple_types@D@std@@@std@@QAEPADXZ ; std::_String_val<std::_Simple_types<char> >::_Myptr
	push	eax
	call	?copy@?$char_traits@D@std@@SAPADPADPBDI@Z ; std::char_traits<char>::copy
	add	esp, 12					; 0000000cH

; 1117 : 			_Eos(_Num);

	mov	edx, DWORD PTR __Num$[ebp]
	push	edx
	mov	ecx, DWORD PTR _this$[ebp]
	call	?_Eos@?$basic_string@DU?$char_traits@D@std@@V?$allocator@D@2@@std@@QAEXI@Z ; std::basic_string<char,std::char_traits<char>,std::allocator<char> >::_Eos
$LN2@assign:

; 1118 : 			}
; 1119 : 		return (*this);

	mov	eax, DWORD PTR _this$[ebp]
$LN7@assign:

; 1120 : 		}

	mov	esp, ebp
	pop	ebp
	ret	12					; 0000000cH
?assign@?$basic_string@DU?$char_traits@D@std@@V?$allocator@D@2@@std@@QAEAAV12@ABV12@II@Z ENDP ; std::basic_string<char,std::char_traits<char>,std::allocator<char> >::assign
_TEXT	ENDS
; Function compile flags: /Odtp
; File c:\program files (x86)\microsoft visual studio 11.0\vc\include\xstring
;	COMDAT ??0?$basic_string@DU?$char_traits@D@std@@V?$allocator@D@2@@std@@QAE@PBD@Z
_TEXT	SEGMENT
_this$ = -8						; size = 4
$T1 = -1						; size = 1
__Ptr$ = 8						; size = 4
??0?$basic_string@DU?$char_traits@D@std@@V?$allocator@D@2@@std@@QAE@PBD@Z PROC ; std::basic_string<char,std::char_traits<char>,std::allocator<char> >::basic_string<char,std::char_traits<char>,std::allocator<char> >, COMDAT
; _this$ = ecx

; 791  : 		{	// construct from [_Ptr, <null>)

	push	ebp
	mov	ebp, esp
	sub	esp, 8
	mov	DWORD PTR _this$[ebp], ecx
	lea	ecx, DWORD PTR $T1[ebp]
	call	??0?$allocator@D@std@@QAE@XZ		; std::allocator<char>::allocator<char>
	push	eax
	mov	ecx, DWORD PTR _this$[ebp]
	call	??0?$_String_alloc@$0A@U?$_String_base_types@DV?$allocator@D@std@@@std@@@std@@QAE@ABV?$allocator@D@1@@Z ; std::_String_alloc<0,std::_String_base_types<char,std::allocator<char> > >::_String_alloc<0,std::_String_base_types<char,std::allocator<char> > >

; 792  : 		_Tidy();

	push	0
	push	0
	mov	ecx, DWORD PTR _this$[ebp]
	call	?_Tidy@?$basic_string@DU?$char_traits@D@std@@V?$allocator@D@2@@std@@QAEX_NI@Z ; std::basic_string<char,std::char_traits<char>,std::allocator<char> >::_Tidy

; 793  : 		assign(_Ptr);

	mov	eax, DWORD PTR __Ptr$[ebp]
	push	eax
	mov	ecx, DWORD PTR _this$[ebp]
	call	?assign@?$basic_string@DU?$char_traits@D@std@@V?$allocator@D@2@@std@@QAEAAV12@PBD@Z ; std::basic_string<char,std::char_traits<char>,std::allocator<char> >::assign

; 794  : 		}

	mov	eax, DWORD PTR _this$[ebp]
	mov	esp, ebp
	pop	ebp
	ret	4
??0?$basic_string@DU?$char_traits@D@std@@V?$allocator@D@2@@std@@QAE@PBD@Z ENDP ; std::basic_string<char,std::char_traits<char>,std::allocator<char> >::basic_string<char,std::char_traits<char>,std::allocator<char> >
_TEXT	ENDS
; Function compile flags: /Odtp
; File c:\program files (x86)\microsoft visual studio 11.0\vc\include\xstring
;	COMDAT ?_Getal@?$_String_alloc@$0A@U?$_String_base_types@DV?$allocator@D@std@@@std@@@std@@QBE?AU?$_Wrap_alloc@V?$allocator@D@std@@@2@XZ
_TEXT	SEGMENT
_this$ = -4						; size = 4
___$ReturnUdt$ = 8					; size = 4
?_Getal@?$_String_alloc@$0A@U?$_String_base_types@DV?$allocator@D@std@@@std@@@std@@QBE?AU?$_Wrap_alloc@V?$allocator@D@std@@@2@XZ PROC ; std::_String_alloc<0,std::_String_base_types<char,std::allocator<char> > >::_Getal, COMDAT
; _this$ = ecx

; 688  : 		{	// get reference to allocator

	push	ebp
	mov	ebp, esp
	push	ecx
	mov	DWORD PTR _this$[ebp], ecx

; 689  : 		return (_Alty());

	mov	ecx, DWORD PTR ___$ReturnUdt$[ebp]
	call	??0?$_Wrap_alloc@V?$allocator@D@std@@@std@@QAE@XZ ; std::_Wrap_alloc<std::allocator<char> >::_Wrap_alloc<std::allocator<char> >
	mov	eax, DWORD PTR ___$ReturnUdt$[ebp]

; 690  : 		}

	mov	esp, ebp
	pop	ebp
	ret	4
?_Getal@?$_String_alloc@$0A@U?$_String_base_types@DV?$allocator@D@std@@@std@@@std@@QBE?AU?$_Wrap_alloc@V?$allocator@D@std@@@2@XZ ENDP ; std::_String_alloc<0,std::_String_base_types<char,std::allocator<char> > >::_Getal
_TEXT	ENDS
; Function compile flags: /Odtp
; File c:\program files (x86)\microsoft visual studio 11.0\vc\include\xstring
;	COMDAT ??0?$_String_alloc@$0A@U?$_String_base_types@DV?$allocator@D@std@@@std@@@std@@QAE@ABV?$allocator@D@1@@Z
_TEXT	SEGMENT
_this$ = -4						; size = 4
___formal$ = 8						; size = 4
??0?$_String_alloc@$0A@U?$_String_base_types@DV?$allocator@D@std@@@std@@@std@@QAE@ABV?$allocator@D@1@@Z PROC ; std::_String_alloc<0,std::_String_base_types<char,std::allocator<char> > >::_String_alloc<0,std::_String_base_types<char,std::allocator<char> > >, COMDAT
; _this$ = ecx

; 635  : 	_String_alloc(const _Alloc& = _Alloc())

	push	ebp
	mov	ebp, esp
	push	ecx
	mov	DWORD PTR _this$[ebp], ecx
	mov	ecx, DWORD PTR _this$[ebp]
	call	??0?$_String_val@U?$_Simple_types@D@std@@@std@@QAE@XZ ; std::_String_val<std::_Simple_types<char> >::_String_val<std::_Simple_types<char> >

; 636  : 		{	// construct allocator from _Al
; 637  : 		}

	mov	eax, DWORD PTR _this$[ebp]
	mov	esp, ebp
	pop	ebp
	ret	4
??0?$_String_alloc@$0A@U?$_String_base_types@DV?$allocator@D@std@@@std@@@std@@QAE@ABV?$allocator@D@1@@Z ENDP ; std::_String_alloc<0,std::_String_base_types<char,std::allocator<char> > >::_String_alloc<0,std::_String_base_types<char,std::allocator<char> > >
_TEXT	ENDS
; Function compile flags: /Odtp
; File c:\program files (x86)\microsoft visual studio 11.0\vc\include\xstring
;	COMDAT ?_Myptr@?$_String_val@U?$_Simple_types@D@std@@@std@@QBEPBDXZ
_TEXT	SEGMENT
tv72 = -8						; size = 4
_this$ = -4						; size = 4
?_Myptr@?$_String_val@U?$_Simple_types@D@std@@@std@@QBEPBDXZ PROC ; std::_String_val<std::_Simple_types<char> >::_Myptr, COMDAT
; _this$ = ecx

; 521  : 		{	// determine current pointer to buffer for nonmutable string

	push	ebp
	mov	ebp, esp
	sub	esp, 8
	mov	DWORD PTR _this$[ebp], ecx

; 522  : 		return (this->_BUF_SIZE <= this->_Myres
; 523  : 			? _STD addressof(*this->_Bx._Ptr)
; 524  : 			: this->_Bx._Buf);

	mov	eax, DWORD PTR _this$[ebp]
	cmp	DWORD PTR [eax+20], 16			; 00000010H
	jb	SHORT $LN3@Myptr
	mov	ecx, DWORD PTR _this$[ebp]
	mov	edx, DWORD PTR [ecx]
	push	edx
	call	??$addressof@D@std@@YAPADAAD@Z		; std::addressof<char>
	add	esp, 4
	mov	DWORD PTR tv72[ebp], eax
	jmp	SHORT $LN4@Myptr
$LN3@Myptr:
	mov	eax, DWORD PTR _this$[ebp]
	mov	DWORD PTR tv72[ebp], eax
$LN4@Myptr:
	mov	eax, DWORD PTR tv72[ebp]

; 525  : 		}

	mov	esp, ebp
	pop	ebp
	ret	0
?_Myptr@?$_String_val@U?$_Simple_types@D@std@@@std@@QBEPBDXZ ENDP ; std::_String_val<std::_Simple_types<char> >::_Myptr
_TEXT	ENDS
; Function compile flags: /Odtp
; File c:\program files (x86)\microsoft visual studio 11.0\vc\include\xstring
;	COMDAT ?_Myptr@?$_String_val@U?$_Simple_types@D@std@@@std@@QAEPADXZ
_TEXT	SEGMENT
tv72 = -8						; size = 4
_this$ = -4						; size = 4
?_Myptr@?$_String_val@U?$_Simple_types@D@std@@@std@@QAEPADXZ PROC ; std::_String_val<std::_Simple_types<char> >::_Myptr, COMDAT
; _this$ = ecx

; 514  : 		{	// determine current pointer to buffer for mutable string

	push	ebp
	mov	ebp, esp
	sub	esp, 8
	mov	DWORD PTR _this$[ebp], ecx

; 515  : 		return (this->_BUF_SIZE <= this->_Myres
; 516  : 			? _STD addressof(*this->_Bx._Ptr)
; 517  : 			: this->_Bx._Buf);

	mov	eax, DWORD PTR _this$[ebp]
	cmp	DWORD PTR [eax+20], 16			; 00000010H
	jb	SHORT $LN3@Myptr
	mov	ecx, DWORD PTR _this$[ebp]
	mov	edx, DWORD PTR [ecx]
	push	edx
	call	??$addressof@D@std@@YAPADAAD@Z		; std::addressof<char>
	add	esp, 4
	mov	DWORD PTR tv72[ebp], eax
	jmp	SHORT $LN4@Myptr
$LN3@Myptr:
	mov	eax, DWORD PTR _this$[ebp]
	mov	DWORD PTR tv72[ebp], eax
$LN4@Myptr:
	mov	eax, DWORD PTR tv72[ebp]

; 518  : 		}

	mov	esp, ebp
	pop	ebp
	ret	0
?_Myptr@?$_String_val@U?$_Simple_types@D@std@@@std@@QAEPADXZ ENDP ; std::_String_val<std::_Simple_types<char> >::_Myptr
_TEXT	ENDS
; Function compile flags: /Odtp
; File c:\program files (x86)\microsoft visual studio 11.0\vc\include\xstring
;	COMDAT ??0?$_String_val@U?$_Simple_types@D@std@@@std@@QAE@XZ
_TEXT	SEGMENT
_this$ = -4						; size = 4
??0?$_String_val@U?$_Simple_types@D@std@@@std@@QAE@XZ PROC ; std::_String_val<std::_Simple_types<char> >::_String_val<std::_Simple_types<char> >, COMDAT
; _this$ = ecx

; 496  : 	_String_val()

	push	ebp
	mov	ebp, esp
	push	ecx
	mov	DWORD PTR _this$[ebp], ecx

; 497  : 		{	// initialize values
; 498  : 		_Mysize = 0;

	mov	eax, DWORD PTR _this$[ebp]
	mov	DWORD PTR [eax+16], 0

; 499  : 		_Myres = 0;

	mov	ecx, DWORD PTR _this$[ebp]
	mov	DWORD PTR [ecx+20], 0

; 500  : 		}

	mov	eax, DWORD PTR _this$[ebp]
	mov	esp, ebp
	pop	ebp
	ret	0
??0?$_String_val@U?$_Simple_types@D@std@@@std@@QAE@XZ ENDP ; std::_String_val<std::_Simple_types<char> >::_String_val<std::_Simple_types<char> >
_TEXT	ENDS
; Function compile flags: /Odtp
; File c:\program files (x86)\microsoft visual studio 11.0\vc\include\xmemory0
;	COMDAT ?max_size@?$_Wrap_alloc@V?$allocator@D@std@@@std@@QBEIXZ
_TEXT	SEGMENT
_this$ = -4						; size = 4
?max_size@?$_Wrap_alloc@V?$allocator@D@std@@@std@@QBEIXZ PROC ; std::_Wrap_alloc<std::allocator<char> >::max_size, COMDAT
; _this$ = ecx

; 913  : 		{	// get maximum size

	push	ebp
	mov	ebp, esp
	push	ecx
	mov	DWORD PTR _this$[ebp], ecx

; 914  : 		return (_Mytraits::max_size(*this));

	mov	eax, DWORD PTR _this$[ebp]
	push	eax
	call	?max_size@?$allocator_traits@V?$allocator@D@std@@@std@@SAIABV?$allocator@D@2@@Z ; std::allocator_traits<std::allocator<char> >::max_size
	add	esp, 4

; 915  : 		}

	mov	esp, ebp
	pop	ebp
	ret	0
?max_size@?$_Wrap_alloc@V?$allocator@D@std@@@std@@QBEIXZ ENDP ; std::_Wrap_alloc<std::allocator<char> >::max_size
_TEXT	ENDS
; Function compile flags: /Odtp
; File c:\program files (x86)\microsoft visual studio 11.0\vc\include\xmemory0
;	COMDAT ?deallocate@?$_Wrap_alloc@V?$allocator@D@std@@@std@@QAEXPADI@Z
_TEXT	SEGMENT
_this$ = -4						; size = 4
__Ptr$ = 8						; size = 4
__Count$ = 12						; size = 4
?deallocate@?$_Wrap_alloc@V?$allocator@D@std@@@std@@QAEXPADI@Z PROC ; std::_Wrap_alloc<std::allocator<char> >::deallocate, COMDAT
; _this$ = ecx

; 886  : 		{	// deallocate object at _Ptr, ignore size

	push	ebp
	mov	ebp, esp
	push	ecx
	mov	DWORD PTR _this$[ebp], ecx

; 887  : 		_Mybase::deallocate(_Ptr, _Count);

	mov	eax, DWORD PTR __Count$[ebp]
	push	eax
	mov	ecx, DWORD PTR __Ptr$[ebp]
	push	ecx
	mov	ecx, DWORD PTR _this$[ebp]
	call	?deallocate@?$allocator@D@std@@QAEXPADI@Z ; std::allocator<char>::deallocate

; 888  : 		}

	mov	esp, ebp
	pop	ebp
	ret	8
?deallocate@?$_Wrap_alloc@V?$allocator@D@std@@@std@@QAEXPADI@Z ENDP ; std::_Wrap_alloc<std::allocator<char> >::deallocate
_TEXT	ENDS
; Function compile flags: /Odtp
; File c:\program files (x86)\microsoft visual studio 11.0\vc\include\xmemory0
;	COMDAT ?allocate@?$_Wrap_alloc@V?$allocator@D@std@@@std@@QAEPADI@Z
_TEXT	SEGMENT
_this$ = -4						; size = 4
__Count$ = 8						; size = 4
?allocate@?$_Wrap_alloc@V?$allocator@D@std@@@std@@QAEPADI@Z PROC ; std::_Wrap_alloc<std::allocator<char> >::allocate, COMDAT
; _this$ = ecx

; 875  : 		{	// allocate array of _Count elements

	push	ebp
	mov	ebp, esp
	push	ecx
	mov	DWORD PTR _this$[ebp], ecx

; 876  : 		return (_Mybase::allocate(_Count));

	mov	eax, DWORD PTR __Count$[ebp]
	push	eax
	mov	ecx, DWORD PTR _this$[ebp]
	call	?allocate@?$allocator@D@std@@QAEPADI@Z	; std::allocator<char>::allocate

; 877  : 		}

	mov	esp, ebp
	pop	ebp
	ret	4
?allocate@?$_Wrap_alloc@V?$allocator@D@std@@@std@@QAEPADI@Z ENDP ; std::_Wrap_alloc<std::allocator<char> >::allocate
_TEXT	ENDS
; Function compile flags: /Odtp
; File c:\program files (x86)\microsoft visual studio 11.0\vc\include\xmemory0
;	COMDAT ??0?$_Wrap_alloc@V?$allocator@D@std@@@std@@QAE@XZ
_TEXT	SEGMENT
_this$ = -4						; size = 4
??0?$_Wrap_alloc@V?$allocator@D@std@@@std@@QAE@XZ PROC	; std::_Wrap_alloc<std::allocator<char> >::_Wrap_alloc<std::allocator<char> >, COMDAT
; _this$ = ecx

; 830  : 		{	// construct default allocator (do nothing)

	push	ebp
	mov	ebp, esp
	push	ecx
	mov	DWORD PTR _this$[ebp], ecx
	mov	ecx, DWORD PTR _this$[ebp]
	call	??0?$allocator@D@std@@QAE@XZ		; std::allocator<char>::allocator<char>

; 831  : 		}

	mov	eax, DWORD PTR _this$[ebp]
	mov	esp, ebp
	pop	ebp
	ret	0
??0?$_Wrap_alloc@V?$allocator@D@std@@@std@@QAE@XZ ENDP	; std::_Wrap_alloc<std::allocator<char> >::_Wrap_alloc<std::allocator<char> >
_TEXT	ENDS
; Function compile flags: /Odtp
; File c:\program files (x86)\microsoft visual studio 11.0\vc\include\xmemory0
;	COMDAT ?max_size@?$allocator_traits@V?$allocator@D@std@@@std@@SAIABV?$allocator@D@2@@Z
_TEXT	SEGMENT
__Al$ = 8						; size = 4
?max_size@?$allocator_traits@V?$allocator@D@std@@@std@@SAIABV?$allocator@D@2@@Z PROC ; std::allocator_traits<std::allocator<char> >::max_size, COMDAT

; 761  : 		{	// get maximum size

	push	ebp
	mov	ebp, esp

; 762  : 		return (_Al.max_size());

	mov	ecx, DWORD PTR __Al$[ebp]
	call	?max_size@?$allocator@D@std@@QBEIXZ	; std::allocator<char>::max_size

; 763  : 		}

	pop	ebp
	ret	0
?max_size@?$allocator_traits@V?$allocator@D@std@@@std@@SAIABV?$allocator@D@2@@Z ENDP ; std::allocator_traits<std::allocator<char> >::max_size
_TEXT	ENDS
; Function compile flags: /Odtp
; File c:\program files (x86)\microsoft visual studio 11.0\vc\include\xmemory0
;	COMDAT ?max_size@?$allocator@D@std@@QBEIXZ
_TEXT	SEGMENT
_this$ = -4						; size = 4
?max_size@?$allocator@D@std@@QBEIXZ PROC		; std::allocator<char>::max_size, COMDAT
; _this$ = ecx

; 627  : 		{	// estimate maximum array size

	push	ebp
	mov	ebp, esp
	push	ecx
	mov	DWORD PTR _this$[ebp], ecx

; 628  : 		return ((size_t)(-1) / sizeof (_Ty));

	or	eax, -1

; 629  : 		}

	mov	esp, ebp
	pop	ebp
	ret	0
?max_size@?$allocator@D@std@@QBEIXZ ENDP		; std::allocator<char>::max_size
_TEXT	ENDS
; Function compile flags: /Odtp
; File c:\program files (x86)\microsoft visual studio 11.0\vc\include\xmemory0
;	COMDAT ?allocate@?$allocator@D@std@@QAEPADI@Z
_TEXT	SEGMENT
_this$ = -4						; size = 4
__Count$ = 8						; size = 4
?allocate@?$allocator@D@std@@QAEPADI@Z PROC		; std::allocator<char>::allocate, COMDAT
; _this$ = ecx

; 590  : 		{	// allocate array of _Count elements

	push	ebp
	mov	ebp, esp
	push	ecx
	mov	DWORD PTR _this$[ebp], ecx

; 591  : 		return (_Allocate(_Count, (pointer)0));

	push	0
	mov	eax, DWORD PTR __Count$[ebp]
	push	eax
	call	??$_Allocate@D@std@@YAPADIPAD@Z		; std::_Allocate<char>
	add	esp, 8

; 592  : 		}

	mov	esp, ebp
	pop	ebp
	ret	4
?allocate@?$allocator@D@std@@QAEPADI@Z ENDP		; std::allocator<char>::allocate
_TEXT	ENDS
; Function compile flags: /Odtp
; File c:\program files (x86)\microsoft visual studio 11.0\vc\include\xmemory0
;	COMDAT ?deallocate@?$allocator@D@std@@QAEXPADI@Z
_TEXT	SEGMENT
_this$ = -4						; size = 4
__Ptr$ = 8						; size = 4
___formal$ = 12						; size = 4
?deallocate@?$allocator@D@std@@QAEXPADI@Z PROC		; std::allocator<char>::deallocate, COMDAT
; _this$ = ecx

; 585  : 		{	// deallocate object at _Ptr, ignore size

	push	ebp
	mov	ebp, esp
	push	ecx
	mov	DWORD PTR _this$[ebp], ecx

; 586  : 		::operator delete(_Ptr);

	mov	eax, DWORD PTR __Ptr$[ebp]
	push	eax
	call	??3@YAXPAX@Z				; operator delete
	add	esp, 4

; 587  : 		}

	mov	esp, ebp
	pop	ebp
	ret	8
?deallocate@?$allocator@D@std@@QAEXPADI@Z ENDP		; std::allocator<char>::deallocate
_TEXT	ENDS
; Function compile flags: /Odtp
; File c:\program files (x86)\microsoft visual studio 11.0\vc\include\xmemory0
;	COMDAT ??0?$allocator@D@std@@QAE@XZ
_TEXT	SEGMENT
_this$ = -4						; size = 4
??0?$allocator@D@std@@QAE@XZ PROC			; std::allocator<char>::allocator<char>, COMDAT
; _this$ = ecx

; 565  : 	allocator() _THROW0()

	push	ebp
	mov	ebp, esp
	push	ecx
	mov	DWORD PTR _this$[ebp], ecx

; 566  : 		{	// construct default allocator (do nothing)
; 567  : 		}

	mov	eax, DWORD PTR _this$[ebp]
	mov	esp, ebp
	pop	ebp
	ret	0
??0?$allocator@D@std@@QAE@XZ ENDP			; std::allocator<char>::allocator<char>
_TEXT	ENDS
; Function compile flags: /Odtp
; File c:\program files (x86)\microsoft visual studio 11.0\vc\include\xutility
;	COMDAT ??__Eallocator_arg@std@@YAXXZ
text$yc	SEGMENT
$T1 = -1						; size = 1
??__Eallocator_arg@std@@YAXXZ PROC			; std::`dynamic initializer for 'allocator_arg'', COMDAT

; 3644 : const allocator_arg_t allocator_arg = allocator_arg_t();

	push	ebp
	mov	ebp, esp
	push	ecx
	xor	eax, eax
	mov	BYTE PTR $T1[ebp], al
	mov	esp, ebp
	pop	ebp
	ret	0
??__Eallocator_arg@std@@YAXXZ ENDP			; std::`dynamic initializer for 'allocator_arg''
text$yc	ENDS
; Function compile flags: /Odtp
; File c:\program files (x86)\microsoft visual studio 11.0\vc\include\utility
;	COMDAT ??__Epiecewise_construct@std@@YAXXZ
text$yc	SEGMENT
$T1 = -1						; size = 1
??__Epiecewise_construct@std@@YAXXZ PROC		; std::`dynamic initializer for 'piecewise_construct'', COMDAT

; 65   : 	piecewise_construct_t();

	push	ebp
	mov	ebp, esp
	push	ecx
	xor	eax, eax
	mov	BYTE PTR $T1[ebp], al
	mov	esp, ebp
	pop	ebp
	ret	0
??__Epiecewise_construct@std@@YAXXZ ENDP		; std::`dynamic initializer for 'piecewise_construct''
text$yc	ENDS
; Function compile flags: /Odtp
; File c:\program files (x86)\microsoft visual studio 11.0\vc\include\iosfwd
;	COMDAT ?assign@?$char_traits@D@std@@SAXAADABD@Z
_TEXT	SEGMENT
__Left$ = 8						; size = 4
__Right$ = 12						; size = 4
?assign@?$char_traits@D@std@@SAXAADABD@Z PROC		; std::char_traits<char>::assign, COMDAT

; 563  : 		{	// assign an element

	push	ebp
	mov	ebp, esp

; 564  : 		_Left = _Right;

	mov	eax, DWORD PTR __Left$[ebp]
	mov	ecx, DWORD PTR __Right$[ebp]
	mov	dl, BYTE PTR [ecx]
	mov	BYTE PTR [eax], dl

; 565  : 		}

	pop	ebp
	ret	0
?assign@?$char_traits@D@std@@SAXAADABD@Z ENDP		; std::char_traits<char>::assign
_TEXT	ENDS
; Function compile flags: /Odtp
; File c:\program files (x86)\microsoft visual studio 11.0\vc\include\iosfwd
;	COMDAT ?move@?$char_traits@D@std@@SAPADPADPBDI@Z
_TEXT	SEGMENT
tv69 = -4						; size = 4
__First1$ = 8						; size = 4
__First2$ = 12						; size = 4
__Count$ = 16						; size = 4
?move@?$char_traits@D@std@@SAPADPADPBDI@Z PROC		; std::char_traits<char>::move, COMDAT

; 551  : 		{	// copy [_First2, _First2 + _Count) to [_First1, ...)

	push	ebp
	mov	ebp, esp
	push	ecx

; 552  : 		return (_Count == 0 ? _First1
; 553  : 			: (_Elem *)_CSTD memmove(_First1, _First2, _Count));

	cmp	DWORD PTR __Count$[ebp], 0
	jne	SHORT $LN3@move
	mov	eax, DWORD PTR __First1$[ebp]
	mov	DWORD PTR tv69[ebp], eax
	jmp	SHORT $LN4@move
$LN3@move:
	mov	ecx, DWORD PTR __Count$[ebp]
	push	ecx
	mov	edx, DWORD PTR __First2$[ebp]
	push	edx
	mov	eax, DWORD PTR __First1$[ebp]
	push	eax
	call	_memmove
	add	esp, 12					; 0000000cH
	mov	DWORD PTR tv69[ebp], eax
$LN4@move:
	mov	eax, DWORD PTR tv69[ebp]

; 554  : 		}

	mov	esp, ebp
	pop	ebp
	ret	0
?move@?$char_traits@D@std@@SAPADPADPBDI@Z ENDP		; std::char_traits<char>::move
_TEXT	ENDS
; Function compile flags: /Odtp
; File c:\program files (x86)\microsoft visual studio 11.0\vc\include\iosfwd
;	COMDAT ?copy@?$char_traits@D@std@@SAPADPADPBDI@Z
_TEXT	SEGMENT
tv69 = -4						; size = 4
__First1$ = 8						; size = 4
__First2$ = 12						; size = 4
__Count$ = 16						; size = 4
?copy@?$char_traits@D@std@@SAPADPADPBDI@Z PROC		; std::char_traits<char>::copy, COMDAT

; 528  : 		{	// copy [_First2, _First2 + _Count) to [_First1, ...)

	push	ebp
	mov	ebp, esp
	push	ecx

; 529  : 		return (_Count == 0 ? _First1
; 530  : 			: (_Elem *)_CSTD memcpy(_First1, _First2, _Count));

	cmp	DWORD PTR __Count$[ebp], 0
	jne	SHORT $LN3@copy
	mov	eax, DWORD PTR __First1$[ebp]
	mov	DWORD PTR tv69[ebp], eax
	jmp	SHORT $LN4@copy
$LN3@copy:
	mov	ecx, DWORD PTR __Count$[ebp]
	push	ecx
	mov	edx, DWORD PTR __First2$[ebp]
	push	edx
	mov	eax, DWORD PTR __First1$[ebp]
	push	eax
	call	_memcpy
	add	esp, 12					; 0000000cH
	mov	DWORD PTR tv69[ebp], eax
$LN4@copy:
	mov	eax, DWORD PTR tv69[ebp]

; 531  : 		}

	mov	esp, ebp
	pop	ebp
	ret	0
?copy@?$char_traits@D@std@@SAPADPADPBDI@Z ENDP		; std::char_traits<char>::copy
_TEXT	ENDS
; Function compile flags: /Odtp
; File c:\program files (x86)\microsoft visual studio 11.0\vc\include\iosfwd
;	COMDAT ?length@?$char_traits@D@std@@SAIPBD@Z
_TEXT	SEGMENT
tv68 = -4						; size = 4
__First$ = 8						; size = 4
?length@?$char_traits@D@std@@SAIPBD@Z PROC		; std::char_traits<char>::length, COMDAT

; 521  : 		{	// find length of null-terminated string

	push	ebp
	mov	ebp, esp
	push	ecx

; 522  : 		return (*_First == 0 ? 0
; 523  : 			: _CSTD strlen(_First));

	mov	eax, DWORD PTR __First$[ebp]
	movsx	ecx, BYTE PTR [eax]
	test	ecx, ecx
	jne	SHORT $LN3@length
	mov	DWORD PTR tv68[ebp], 0
	jmp	SHORT $LN4@length
$LN3@length:
	mov	edx, DWORD PTR __First$[ebp]
	push	edx
	call	_strlen
	add	esp, 4
	mov	DWORD PTR tv68[ebp], eax
$LN4@length:
	mov	eax, DWORD PTR tv68[ebp]

; 524  : 		}

	mov	esp, ebp
	pop	ebp
	ret	0
?length@?$char_traits@D@std@@SAIPBD@Z ENDP		; std::char_traits<char>::length
_TEXT	ENDS
; Function compile flags: /Odtp
; File c:\program files (x86)\microsoft visual studio 11.0\vc\include\new
;	COMDAT ??3@YAXPAX0@Z
_TEXT	SEGMENT
___formal$ = 8						; size = 4
___formal$ = 12						; size = 4
??3@YAXPAX0@Z PROC					; operator delete, COMDAT

; 64   : 	{	// delete if placement new fails

	push	ebp
	mov	ebp, esp

; 65   : 	}

	pop	ebp
	ret	0
??3@YAXPAX0@Z ENDP					; operator delete
_TEXT	ENDS
; Function compile flags: /Odtp
; File c:\program files (x86)\microsoft visual studio 11.0\vc\include\new
;	COMDAT ??2@YAPAXIPAX@Z
_TEXT	SEGMENT
___formal$ = 8						; size = 4
__Where$ = 12						; size = 4
??2@YAPAXIPAX@Z PROC					; operator new, COMDAT

; 59   : 	{	// construct array with placement at _Where

	push	ebp
	mov	ebp, esp

; 60   : 	return (_Where);

	mov	eax, DWORD PTR __Where$[ebp]

; 61   : 	}

	pop	ebp
	ret	0
??2@YAPAXIPAX@Z ENDP					; operator new
_TEXT	ENDS
; Function compile flags: /Odtp
; File c:\users\zhitao li\documents\visual studio 2012\projects\freefalcon\graphics\include\edge.h
;	COMDAT ??1Edge@@QAE@XZ
_TEXT	SEGMENT
_this$ = -4						; size = 4
??1Edge@@QAE@XZ PROC					; Edge::~Edge, COMDAT
; _this$ = ecx

; 20   : 	~Edge()	{};

	push	ebp
	mov	ebp, esp
	push	ecx
	mov	DWORD PTR _this$[ebp], ecx
	mov	esp, ebp
	pop	ebp
	ret	0
??1Edge@@QAE@XZ ENDP					; Edge::~Edge
_TEXT	ENDS
; Function compile flags: /Odtp
; File c:\users\zhitao li\documents\visual studio 2012\projects\freefalcon\graphics\include\edge.h
;	COMDAT ??0Edge@@QAE@XZ
_TEXT	SEGMENT
_this$ = -4						; size = 4
??0Edge@@QAE@XZ PROC					; Edge::Edge, COMDAT
; _this$ = ecx

; 19   : 	Edge()	{};

	push	ebp
	mov	ebp, esp
	push	ecx
	mov	DWORD PTR _this$[ebp], ecx
	mov	eax, DWORD PTR _this$[ebp]
	mov	esp, ebp
	pop	ebp
	ret	0
??0Edge@@QAE@XZ ENDP					; Edge::Edge
_TEXT	ENDS
END
