; Listing generated by Microsoft (R) Optimizing Compiler Version 17.00.51106.1 

	TITLE	C:\Users\Zhitao Li\Documents\Visual Studio 2012\Projects\Freefalcon\SIM\Airframe\Airframe.cpp
	.686P
	.XMM
	include listing.inc
	.model	flat

INCLUDELIB LIBCMT
INCLUDELIB OLDNAMES

PUBLIC	?traps@_Num_base@std@@2_NB			; std::_Num_base::traps
PUBLIC	?round_style@_Num_base@std@@2W4float_round_style@2@B ; std::_Num_base::round_style
PUBLIC	?digits@_Num_base@std@@2HB			; std::_Num_base::digits
PUBLIC	?digits10@_Num_base@std@@2HB			; std::_Num_base::digits10
PUBLIC	?max_digits10@_Num_base@std@@2HB		; std::_Num_base::max_digits10
PUBLIC	?max_exponent@_Num_base@std@@2HB		; std::_Num_base::max_exponent
PUBLIC	?max_exponent10@_Num_base@std@@2HB		; std::_Num_base::max_exponent10
PUBLIC	?min_exponent@_Num_base@std@@2HB		; std::_Num_base::min_exponent
PUBLIC	?min_exponent10@_Num_base@std@@2HB		; std::_Num_base::min_exponent10
PUBLIC	?radix@_Num_base@std@@2HB			; std::_Num_base::radix
PUBLIC	?is_bounded@_Num_int_base@std@@2_NB		; std::_Num_int_base::is_bounded
PUBLIC	?is_exact@_Num_int_base@std@@2_NB		; std::_Num_int_base::is_exact
PUBLIC	?is_integer@_Num_int_base@std@@2_NB		; std::_Num_int_base::is_integer
PUBLIC	?is_modulo@_Num_int_base@std@@2_NB		; std::_Num_int_base::is_modulo
PUBLIC	?table_size@?$ctype@D@std@@2IB			; std::ctype<char>::table_size
PUBLIC	?is_specialized@_Num_int_base@std@@2_NB		; std::_Num_int_base::is_specialized
PUBLIC	?radix@_Num_int_base@std@@2HB			; std::_Num_int_base::radix
PUBLIC	?has_denorm@_Num_float_base@std@@2W4float_denorm_style@2@B ; std::_Num_float_base::has_denorm
PUBLIC	?has_denorm_loss@_Num_float_base@std@@2_NB	; std::_Num_float_base::has_denorm_loss
PUBLIC	?SIMDIRTYDATA_INTERVAL@FalconEntity@@2KB	; FalconEntity::SIMDIRTYDATA_INTERVAL
PUBLIC	?CMPDIRTYDATA_INTERVAL@FalconEntity@@2KB	; FalconEntity::CMPDIRTYDATA_INTERVAL
PUBLIC	?has_infinity@_Num_float_base@std@@2_NB		; std::_Num_float_base::has_infinity
PUBLIC	?has_quiet_NaN@_Num_float_base@std@@2_NB	; std::_Num_float_base::has_quiet_NaN
PUBLIC	?has_signaling_NaN@_Num_float_base@std@@2_NB	; std::_Num_float_base::has_signaling_NaN
PUBLIC	?is_bounded@_Num_float_base@std@@2_NB		; std::_Num_float_base::is_bounded
PUBLIC	?is_exact@_Num_float_base@std@@2_NB		; std::_Num_float_base::is_exact
PUBLIC	?is_iec559@_Num_float_base@std@@2_NB		; std::_Num_float_base::is_iec559
PUBLIC	?is_integer@_Num_float_base@std@@2_NB		; std::_Num_float_base::is_integer
PUBLIC	?is_modulo@_Num_float_base@std@@2_NB		; std::_Num_float_base::is_modulo
PUBLIC	?is_signed@_Num_float_base@std@@2_NB		; std::_Num_float_base::is_signed
PUBLIC	?is_specialized@_Num_float_base@std@@2_NB	; std::_Num_float_base::is_specialized
PUBLIC	?tinyness_before@_Num_float_base@std@@2_NB	; std::_Num_float_base::tinyness_before
PUBLIC	?traps@_Num_float_base@std@@2_NB		; std::_Num_float_base::traps
PUBLIC	?round_style@_Num_float_base@std@@2W4float_round_style@2@B ; std::_Num_float_base::round_style
PUBLIC	?radix@_Num_float_base@std@@2HB			; std::_Num_float_base::radix
PUBLIC	?is_signed@?$numeric_limits@D@std@@2_NB		; std::numeric_limits<char>::is_signed
PUBLIC	?digits@?$numeric_limits@D@std@@2HB		; std::numeric_limits<char>::digits
PUBLIC	?digits10@?$numeric_limits@D@std@@2HB		; std::numeric_limits<char>::digits10
PUBLIC	?is_signed@?$numeric_limits@_W@std@@2_NB	; std::numeric_limits<wchar_t>::is_signed
PUBLIC	?digits@?$numeric_limits@_W@std@@2HB		; std::numeric_limits<wchar_t>::digits
PUBLIC	?digits10@?$numeric_limits@_W@std@@2HB		; std::numeric_limits<wchar_t>::digits10
PUBLIC	?is_modulo@?$numeric_limits@_N@std@@2_NB	; std::numeric_limits<bool>::is_modulo
PUBLIC	?is_signed@?$numeric_limits@_N@std@@2_NB	; std::numeric_limits<bool>::is_signed
PUBLIC	?digits@?$numeric_limits@_N@std@@2HB		; std::numeric_limits<bool>::digits
PUBLIC	?digits10@?$numeric_limits@_N@std@@2HB		; std::numeric_limits<bool>::digits10
PUBLIC	?is_signed@?$numeric_limits@C@std@@2_NB		; std::numeric_limits<signed char>::is_signed
PUBLIC	?digits@?$numeric_limits@C@std@@2HB		; std::numeric_limits<signed char>::digits
PUBLIC	?digits10@?$numeric_limits@C@std@@2HB		; std::numeric_limits<signed char>::digits10
PUBLIC	?is_signed@?$numeric_limits@E@std@@2_NB		; std::numeric_limits<unsigned char>::is_signed
PUBLIC	?value@?$integral_constant@_N$0A@@std@@2_NB	; std::integral_constant<bool,0>::value
PUBLIC	?digits@?$numeric_limits@E@std@@2HB		; std::numeric_limits<unsigned char>::digits
PUBLIC	?digits10@?$numeric_limits@E@std@@2HB		; std::numeric_limits<unsigned char>::digits10
PUBLIC	?value@?$integral_constant@_N$00@std@@2_NB	; std::integral_constant<bool,1>::value
PUBLIC	?is_signed@?$numeric_limits@F@std@@2_NB		; std::numeric_limits<short>::is_signed
PUBLIC	?digits@?$numeric_limits@F@std@@2HB		; std::numeric_limits<short>::digits
PUBLIC	?digits10@?$numeric_limits@F@std@@2HB		; std::numeric_limits<short>::digits10
PUBLIC	?is_signed@?$numeric_limits@G@std@@2_NB		; std::numeric_limits<unsigned short>::is_signed
PUBLIC	?digits@?$numeric_limits@G@std@@2HB		; std::numeric_limits<unsigned short>::digits
PUBLIC	?digits10@?$numeric_limits@G@std@@2HB		; std::numeric_limits<unsigned short>::digits10
PUBLIC	?is_signed@?$numeric_limits@H@std@@2_NB		; std::numeric_limits<int>::is_signed
PUBLIC	?value@?$_Sizeof@HU_Nil@std@@U12@U12@U12@U12@U12@U12@@std@@2IB ; std::_Sizeof<int,std::_Nil,std::_Nil,std::_Nil,std::_Nil,std::_Nil,std::_Nil,std::_Nil>::value
PUBLIC	?digits@?$numeric_limits@H@std@@2HB		; std::numeric_limits<int>::digits
PUBLIC	?digits10@?$numeric_limits@H@std@@2HB		; std::numeric_limits<int>::digits10
PUBLIC	?is_signed@?$numeric_limits@I@std@@2_NB		; std::numeric_limits<unsigned int>::is_signed
PUBLIC	?digits@?$numeric_limits@I@std@@2HB		; std::numeric_limits<unsigned int>::digits
PUBLIC	?digits10@?$numeric_limits@I@std@@2HB		; std::numeric_limits<unsigned int>::digits10
PUBLIC	?is_signed@?$numeric_limits@J@std@@2_NB		; std::numeric_limits<long>::is_signed
PUBLIC	?digits@?$numeric_limits@J@std@@2HB		; std::numeric_limits<long>::digits
PUBLIC	?digits10@?$numeric_limits@J@std@@2HB		; std::numeric_limits<long>::digits10
PUBLIC	?is_signed@?$numeric_limits@K@std@@2_NB		; std::numeric_limits<unsigned long>::is_signed
PUBLIC	?digits@?$numeric_limits@K@std@@2HB		; std::numeric_limits<unsigned long>::digits
PUBLIC	?digits10@?$numeric_limits@K@std@@2HB		; std::numeric_limits<unsigned long>::digits10
PUBLIC	?skipws@?$_Iosb@H@std@@2W4_Fmtflags@12@B	; std::_Iosb<int>::skipws
PUBLIC	?unitbuf@?$_Iosb@H@std@@2W4_Fmtflags@12@B	; std::_Iosb<int>::unitbuf
PUBLIC	?uppercase@?$_Iosb@H@std@@2W4_Fmtflags@12@B	; std::_Iosb<int>::uppercase
PUBLIC	?showbase@?$_Iosb@H@std@@2W4_Fmtflags@12@B	; std::_Iosb<int>::showbase
PUBLIC	?showpoint@?$_Iosb@H@std@@2W4_Fmtflags@12@B	; std::_Iosb<int>::showpoint
PUBLIC	?showpos@?$_Iosb@H@std@@2W4_Fmtflags@12@B	; std::_Iosb<int>::showpos
PUBLIC	?left@?$_Iosb@H@std@@2W4_Fmtflags@12@B		; std::_Iosb<int>::left
PUBLIC	?right@?$_Iosb@H@std@@2W4_Fmtflags@12@B		; std::_Iosb<int>::right
PUBLIC	?internal@?$_Iosb@H@std@@2W4_Fmtflags@12@B	; std::_Iosb<int>::internal
PUBLIC	?dec@?$_Iosb@H@std@@2W4_Fmtflags@12@B		; std::_Iosb<int>::dec
PUBLIC	?is_signed@?$numeric_limits@_J@std@@2_NB	; std::numeric_limits<__int64>::is_signed
PUBLIC	?oct@?$_Iosb@H@std@@2W4_Fmtflags@12@B		; std::_Iosb<int>::oct
PUBLIC	?hex@?$_Iosb@H@std@@2W4_Fmtflags@12@B		; std::_Iosb<int>::hex
PUBLIC	?digits@?$numeric_limits@_J@std@@2HB		; std::numeric_limits<__int64>::digits
PUBLIC	?scientific@?$_Iosb@H@std@@2W4_Fmtflags@12@B	; std::_Iosb<int>::scientific
PUBLIC	?digits10@?$numeric_limits@_J@std@@2HB		; std::numeric_limits<__int64>::digits10
PUBLIC	?fixed@?$_Iosb@H@std@@2W4_Fmtflags@12@B		; std::_Iosb<int>::fixed
PUBLIC	?hexfloat@?$_Iosb@H@std@@2W4_Fmtflags@12@B	; std::_Iosb<int>::hexfloat
PUBLIC	?boolalpha@?$_Iosb@H@std@@2W4_Fmtflags@12@B	; std::_Iosb<int>::boolalpha
PUBLIC	?_Stdio@?$_Iosb@H@std@@2W4_Fmtflags@12@B	; std::_Iosb<int>::_Stdio
PUBLIC	?adjustfield@?$_Iosb@H@std@@2W4_Fmtflags@12@B	; std::_Iosb<int>::adjustfield
PUBLIC	?basefield@?$_Iosb@H@std@@2W4_Fmtflags@12@B	; std::_Iosb<int>::basefield
PUBLIC	?floatfield@?$_Iosb@H@std@@2W4_Fmtflags@12@B	; std::_Iosb<int>::floatfield
PUBLIC	?goodbit@?$_Iosb@H@std@@2W4_Iostate@12@B	; std::_Iosb<int>::goodbit
PUBLIC	?eofbit@?$_Iosb@H@std@@2W4_Iostate@12@B		; std::_Iosb<int>::eofbit
PUBLIC	?is_signed@?$numeric_limits@_K@std@@2_NB	; std::numeric_limits<unsigned __int64>::is_signed
PUBLIC	?failbit@?$_Iosb@H@std@@2W4_Iostate@12@B	; std::_Iosb<int>::failbit
PUBLIC	?digits@?$numeric_limits@_K@std@@2HB		; std::numeric_limits<unsigned __int64>::digits
PUBLIC	?badbit@?$_Iosb@H@std@@2W4_Iostate@12@B		; std::_Iosb<int>::badbit
PUBLIC	?_Hardfail@?$_Iosb@H@std@@2W4_Iostate@12@B	; std::_Iosb<int>::_Hardfail
PUBLIC	?digits10@?$numeric_limits@_K@std@@2HB		; std::numeric_limits<unsigned __int64>::digits10
PUBLIC	?in@?$_Iosb@H@std@@2W4_Openmode@12@B		; std::_Iosb<int>::in
PUBLIC	?out@?$_Iosb@H@std@@2W4_Openmode@12@B		; std::_Iosb<int>::out
PUBLIC	?ate@?$_Iosb@H@std@@2W4_Openmode@12@B		; std::_Iosb<int>::ate
PUBLIC	?app@?$_Iosb@H@std@@2W4_Openmode@12@B		; std::_Iosb<int>::app
PUBLIC	?trunc@?$_Iosb@H@std@@2W4_Openmode@12@B		; std::_Iosb<int>::trunc
PUBLIC	?_Nocreate@?$_Iosb@H@std@@2W4_Openmode@12@B	; std::_Iosb<int>::_Nocreate
PUBLIC	?_Noreplace@?$_Iosb@H@std@@2W4_Openmode@12@B	; std::_Iosb<int>::_Noreplace
PUBLIC	?binary@?$_Iosb@H@std@@2W4_Openmode@12@B	; std::_Iosb<int>::binary
PUBLIC	?beg@?$_Iosb@H@std@@2W4_Seekdir@12@B		; std::_Iosb<int>::beg
PUBLIC	?digits@?$numeric_limits@M@std@@2HB		; std::numeric_limits<float>::digits
PUBLIC	?cur@?$_Iosb@H@std@@2W4_Seekdir@12@B		; std::_Iosb<int>::cur
PUBLIC	?digits10@?$numeric_limits@M@std@@2HB		; std::numeric_limits<float>::digits10
PUBLIC	?max_digits10@?$numeric_limits@M@std@@2HB	; std::numeric_limits<float>::max_digits10
PUBLIC	?end@?$_Iosb@H@std@@2W4_Seekdir@12@B		; std::_Iosb<int>::end
PUBLIC	?max_exponent@?$numeric_limits@M@std@@2HB	; std::numeric_limits<float>::max_exponent
PUBLIC	?max_exponent10@?$numeric_limits@M@std@@2HB	; std::numeric_limits<float>::max_exponent10
PUBLIC	?min_exponent@?$numeric_limits@M@std@@2HB	; std::numeric_limits<float>::min_exponent
PUBLIC	?min_exponent10@?$numeric_limits@M@std@@2HB	; std::numeric_limits<float>::min_exponent10
PUBLIC	?_Stream_err@failure@ios_base@std@@0W4io_errc@43@B ; std::ios_base::failure::_Stream_err
PUBLIC	?value@?$integral_constant@I$0A@@std@@2IB	; std::integral_constant<unsigned int,0>::value
PUBLIC	?digits@?$numeric_limits@N@std@@2HB		; std::numeric_limits<double>::digits
PUBLIC	?digits10@?$numeric_limits@N@std@@2HB		; std::numeric_limits<double>::digits10
PUBLIC	?max_digits10@?$numeric_limits@N@std@@2HB	; std::numeric_limits<double>::max_digits10
PUBLIC	?max_exponent@?$numeric_limits@N@std@@2HB	; std::numeric_limits<double>::max_exponent
PUBLIC	?max_exponent10@?$numeric_limits@N@std@@2HB	; std::numeric_limits<double>::max_exponent10
PUBLIC	?min_exponent@?$numeric_limits@N@std@@2HB	; std::numeric_limits<double>::min_exponent
PUBLIC	?min_exponent10@?$numeric_limits@N@std@@2HB	; std::numeric_limits<double>::min_exponent10
PUBLIC	?digits@?$numeric_limits@O@std@@2HB		; std::numeric_limits<long double>::digits
PUBLIC	?digits10@?$numeric_limits@O@std@@2HB		; std::numeric_limits<long double>::digits10
PUBLIC	?max_digits10@?$numeric_limits@O@std@@2HB	; std::numeric_limits<long double>::max_digits10
PUBLIC	?max_exponent@?$numeric_limits@O@std@@2HB	; std::numeric_limits<long double>::max_exponent
PUBLIC	?max_exponent10@?$numeric_limits@O@std@@2HB	; std::numeric_limits<long double>::max_exponent10
PUBLIC	?min_exponent@?$numeric_limits@O@std@@2HB	; std::numeric_limits<long double>::min_exponent
PUBLIC	?min_exponent10@?$numeric_limits@O@std@@2HB	; std::numeric_limits<long double>::min_exponent10
PUBLIC	?value@?$_Sizeof@U_Nil@std@@U12@U12@U12@U12@U12@U12@U12@@std@@2IB ; std::_Sizeof<std::_Nil,std::_Nil,std::_Nil,std::_Nil,std::_Nil,std::_Nil,std::_Nil,std::_Nil>::value
PUBLIC	?collate@?$_Locbase@H@std@@2HB			; std::_Locbase<int>::collate
PUBLIC	?ctype@?$_Locbase@H@std@@2HB			; std::_Locbase<int>::ctype
PUBLIC	?monetary@?$_Locbase@H@std@@2HB			; std::_Locbase<int>::monetary
PUBLIC	?numeric@?$_Locbase@H@std@@2HB			; std::_Locbase<int>::numeric
PUBLIC	?time@?$_Locbase@H@std@@2HB			; std::_Locbase<int>::time
PUBLIC	?messages@?$_Locbase@H@std@@2HB			; std::_Locbase<int>::messages
PUBLIC	?all@?$_Locbase@H@std@@2HB			; std::_Locbase<int>::all
PUBLIC	?none@?$_Locbase@H@std@@2HB			; std::_Locbase<int>::none
PUBLIC	?has_denorm@_Num_base@std@@2W4float_denorm_style@2@B ; std::_Num_base::has_denorm
PUBLIC	?has_denorm_loss@_Num_base@std@@2_NB		; std::_Num_base::has_denorm_loss
PUBLIC	?has_infinity@_Num_base@std@@2_NB		; std::_Num_base::has_infinity
PUBLIC	?has_quiet_NaN@_Num_base@std@@2_NB		; std::_Num_base::has_quiet_NaN
PUBLIC	?has_signaling_NaN@_Num_base@std@@2_NB		; std::_Num_base::has_signaling_NaN
PUBLIC	?is_bounded@_Num_base@std@@2_NB			; std::_Num_base::is_bounded
PUBLIC	?is_exact@_Num_base@std@@2_NB			; std::_Num_base::is_exact
PUBLIC	?is_iec559@_Num_base@std@@2_NB			; std::_Num_base::is_iec559
PUBLIC	?is_integer@_Num_base@std@@2_NB			; std::_Num_base::is_integer
PUBLIC	?is_modulo@_Num_base@std@@2_NB			; std::_Num_base::is_modulo
PUBLIC	?is_signed@_Num_base@std@@2_NB			; std::_Num_base::is_signed
PUBLIC	?is_specialized@_Num_base@std@@2_NB		; std::_Num_base::is_specialized
PUBLIC	?tinyness_before@_Num_base@std@@2_NB		; std::_Num_base::tinyness_before
;	COMDAT ?tinyness_before@_Num_base@std@@2_NB
CONST	SEGMENT
?tinyness_before@_Num_base@std@@2_NB DB 00H		; std::_Num_base::tinyness_before
CONST	ENDS
;	COMDAT ?is_specialized@_Num_base@std@@2_NB
CONST	SEGMENT
?is_specialized@_Num_base@std@@2_NB DB 00H		; std::_Num_base::is_specialized
CONST	ENDS
;	COMDAT ?is_signed@_Num_base@std@@2_NB
CONST	SEGMENT
?is_signed@_Num_base@std@@2_NB DB 00H			; std::_Num_base::is_signed
CONST	ENDS
;	COMDAT ?is_modulo@_Num_base@std@@2_NB
CONST	SEGMENT
?is_modulo@_Num_base@std@@2_NB DB 00H			; std::_Num_base::is_modulo
CONST	ENDS
;	COMDAT ?is_integer@_Num_base@std@@2_NB
CONST	SEGMENT
?is_integer@_Num_base@std@@2_NB DB 00H			; std::_Num_base::is_integer
CONST	ENDS
;	COMDAT ?is_iec559@_Num_base@std@@2_NB
CONST	SEGMENT
?is_iec559@_Num_base@std@@2_NB DB 00H			; std::_Num_base::is_iec559
CONST	ENDS
;	COMDAT ?is_exact@_Num_base@std@@2_NB
CONST	SEGMENT
?is_exact@_Num_base@std@@2_NB DB 00H			; std::_Num_base::is_exact
CONST	ENDS
;	COMDAT ?is_bounded@_Num_base@std@@2_NB
CONST	SEGMENT
?is_bounded@_Num_base@std@@2_NB DB 00H			; std::_Num_base::is_bounded
CONST	ENDS
;	COMDAT ?has_signaling_NaN@_Num_base@std@@2_NB
CONST	SEGMENT
?has_signaling_NaN@_Num_base@std@@2_NB DB 00H		; std::_Num_base::has_signaling_NaN
CONST	ENDS
;	COMDAT ?has_quiet_NaN@_Num_base@std@@2_NB
CONST	SEGMENT
?has_quiet_NaN@_Num_base@std@@2_NB DB 00H		; std::_Num_base::has_quiet_NaN
CONST	ENDS
;	COMDAT ?has_infinity@_Num_base@std@@2_NB
CONST	SEGMENT
?has_infinity@_Num_base@std@@2_NB DB 00H		; std::_Num_base::has_infinity
CONST	ENDS
;	COMDAT ?has_denorm_loss@_Num_base@std@@2_NB
CONST	SEGMENT
?has_denorm_loss@_Num_base@std@@2_NB DB 00H		; std::_Num_base::has_denorm_loss
CONST	ENDS
;	COMDAT ?has_denorm@_Num_base@std@@2W4float_denorm_style@2@B
CONST	SEGMENT
?has_denorm@_Num_base@std@@2W4float_denorm_style@2@B DD 00H ; std::_Num_base::has_denorm
CONST	ENDS
;	COMDAT ?none@?$_Locbase@H@std@@2HB
CONST	SEGMENT
?none@?$_Locbase@H@std@@2HB DD 00H			; std::_Locbase<int>::none
CONST	ENDS
;	COMDAT ?all@?$_Locbase@H@std@@2HB
CONST	SEGMENT
?all@?$_Locbase@H@std@@2HB DD 03fH			; std::_Locbase<int>::all
CONST	ENDS
;	COMDAT ?messages@?$_Locbase@H@std@@2HB
CONST	SEGMENT
?messages@?$_Locbase@H@std@@2HB DD 020H			; std::_Locbase<int>::messages
CONST	ENDS
;	COMDAT ?time@?$_Locbase@H@std@@2HB
CONST	SEGMENT
?time@?$_Locbase@H@std@@2HB DD 010H			; std::_Locbase<int>::time
CONST	ENDS
;	COMDAT ?numeric@?$_Locbase@H@std@@2HB
CONST	SEGMENT
?numeric@?$_Locbase@H@std@@2HB DD 08H			; std::_Locbase<int>::numeric
CONST	ENDS
;	COMDAT ?monetary@?$_Locbase@H@std@@2HB
CONST	SEGMENT
?monetary@?$_Locbase@H@std@@2HB DD 04H			; std::_Locbase<int>::monetary
CONST	ENDS
;	COMDAT ?ctype@?$_Locbase@H@std@@2HB
CONST	SEGMENT
?ctype@?$_Locbase@H@std@@2HB DD 02H			; std::_Locbase<int>::ctype
CONST	ENDS
;	COMDAT ?collate@?$_Locbase@H@std@@2HB
CONST	SEGMENT
?collate@?$_Locbase@H@std@@2HB DD 01H			; std::_Locbase<int>::collate
CONST	ENDS
;	COMDAT ?value@?$_Sizeof@U_Nil@std@@U12@U12@U12@U12@U12@U12@U12@@std@@2IB
CONST	SEGMENT
?value@?$_Sizeof@U_Nil@std@@U12@U12@U12@U12@U12@U12@U12@@std@@2IB DD 00H ; std::_Sizeof<std::_Nil,std::_Nil,std::_Nil,std::_Nil,std::_Nil,std::_Nil,std::_Nil,std::_Nil>::value
CONST	ENDS
;	COMDAT ?min_exponent10@?$numeric_limits@O@std@@2HB
CONST	SEGMENT
?min_exponent10@?$numeric_limits@O@std@@2HB DD 0fffffecdH ; std::numeric_limits<long double>::min_exponent10
CONST	ENDS
;	COMDAT ?min_exponent@?$numeric_limits@O@std@@2HB
CONST	SEGMENT
?min_exponent@?$numeric_limits@O@std@@2HB DD 0fffffc03H	; std::numeric_limits<long double>::min_exponent
CONST	ENDS
;	COMDAT ?max_exponent10@?$numeric_limits@O@std@@2HB
CONST	SEGMENT
?max_exponent10@?$numeric_limits@O@std@@2HB DD 0134H	; std::numeric_limits<long double>::max_exponent10
CONST	ENDS
;	COMDAT ?max_exponent@?$numeric_limits@O@std@@2HB
CONST	SEGMENT
?max_exponent@?$numeric_limits@O@std@@2HB DD 0400H	; std::numeric_limits<long double>::max_exponent
CONST	ENDS
;	COMDAT ?max_digits10@?$numeric_limits@O@std@@2HB
CONST	SEGMENT
?max_digits10@?$numeric_limits@O@std@@2HB DD 011H	; std::numeric_limits<long double>::max_digits10
CONST	ENDS
;	COMDAT ?digits10@?$numeric_limits@O@std@@2HB
CONST	SEGMENT
?digits10@?$numeric_limits@O@std@@2HB DD 0fH		; std::numeric_limits<long double>::digits10
CONST	ENDS
;	COMDAT ?digits@?$numeric_limits@O@std@@2HB
CONST	SEGMENT
?digits@?$numeric_limits@O@std@@2HB DD 035H		; std::numeric_limits<long double>::digits
CONST	ENDS
;	COMDAT ?min_exponent10@?$numeric_limits@N@std@@2HB
CONST	SEGMENT
?min_exponent10@?$numeric_limits@N@std@@2HB DD 0fffffecdH ; std::numeric_limits<double>::min_exponent10
CONST	ENDS
;	COMDAT ?min_exponent@?$numeric_limits@N@std@@2HB
CONST	SEGMENT
?min_exponent@?$numeric_limits@N@std@@2HB DD 0fffffc03H	; std::numeric_limits<double>::min_exponent
CONST	ENDS
;	COMDAT ?max_exponent10@?$numeric_limits@N@std@@2HB
CONST	SEGMENT
?max_exponent10@?$numeric_limits@N@std@@2HB DD 0134H	; std::numeric_limits<double>::max_exponent10
CONST	ENDS
;	COMDAT ?max_exponent@?$numeric_limits@N@std@@2HB
CONST	SEGMENT
?max_exponent@?$numeric_limits@N@std@@2HB DD 0400H	; std::numeric_limits<double>::max_exponent
CONST	ENDS
;	COMDAT ?max_digits10@?$numeric_limits@N@std@@2HB
CONST	SEGMENT
?max_digits10@?$numeric_limits@N@std@@2HB DD 011H	; std::numeric_limits<double>::max_digits10
CONST	ENDS
;	COMDAT ?digits10@?$numeric_limits@N@std@@2HB
CONST	SEGMENT
?digits10@?$numeric_limits@N@std@@2HB DD 0fH		; std::numeric_limits<double>::digits10
CONST	ENDS
;	COMDAT ?digits@?$numeric_limits@N@std@@2HB
CONST	SEGMENT
?digits@?$numeric_limits@N@std@@2HB DD 035H		; std::numeric_limits<double>::digits
CONST	ENDS
;	COMDAT ?value@?$integral_constant@I$0A@@std@@2IB
CONST	SEGMENT
?value@?$integral_constant@I$0A@@std@@2IB DD 00H	; std::integral_constant<unsigned int,0>::value
CONST	ENDS
;	COMDAT ?_Stream_err@failure@ios_base@std@@0W4io_errc@43@B
CONST	SEGMENT
?_Stream_err@failure@ios_base@std@@0W4io_errc@43@B DD 01H ; std::ios_base::failure::_Stream_err
CONST	ENDS
;	COMDAT ?min_exponent10@?$numeric_limits@M@std@@2HB
CONST	SEGMENT
?min_exponent10@?$numeric_limits@M@std@@2HB DD 0ffffffdbH ; std::numeric_limits<float>::min_exponent10
CONST	ENDS
;	COMDAT ?min_exponent@?$numeric_limits@M@std@@2HB
CONST	SEGMENT
?min_exponent@?$numeric_limits@M@std@@2HB DD 0ffffff83H	; std::numeric_limits<float>::min_exponent
CONST	ENDS
;	COMDAT ?max_exponent10@?$numeric_limits@M@std@@2HB
CONST	SEGMENT
?max_exponent10@?$numeric_limits@M@std@@2HB DD 026H	; std::numeric_limits<float>::max_exponent10
CONST	ENDS
;	COMDAT ?max_exponent@?$numeric_limits@M@std@@2HB
CONST	SEGMENT
?max_exponent@?$numeric_limits@M@std@@2HB DD 080H	; std::numeric_limits<float>::max_exponent
CONST	ENDS
;	COMDAT ?end@?$_Iosb@H@std@@2W4_Seekdir@12@B
CONST	SEGMENT
?end@?$_Iosb@H@std@@2W4_Seekdir@12@B DD 02H		; std::_Iosb<int>::end
CONST	ENDS
;	COMDAT ?max_digits10@?$numeric_limits@M@std@@2HB
CONST	SEGMENT
?max_digits10@?$numeric_limits@M@std@@2HB DD 09H	; std::numeric_limits<float>::max_digits10
CONST	ENDS
;	COMDAT ?digits10@?$numeric_limits@M@std@@2HB
CONST	SEGMENT
?digits10@?$numeric_limits@M@std@@2HB DD 06H		; std::numeric_limits<float>::digits10
CONST	ENDS
;	COMDAT ?cur@?$_Iosb@H@std@@2W4_Seekdir@12@B
CONST	SEGMENT
?cur@?$_Iosb@H@std@@2W4_Seekdir@12@B DD 01H		; std::_Iosb<int>::cur
CONST	ENDS
;	COMDAT ?digits@?$numeric_limits@M@std@@2HB
CONST	SEGMENT
?digits@?$numeric_limits@M@std@@2HB DD 018H		; std::numeric_limits<float>::digits
CONST	ENDS
;	COMDAT ?beg@?$_Iosb@H@std@@2W4_Seekdir@12@B
CONST	SEGMENT
?beg@?$_Iosb@H@std@@2W4_Seekdir@12@B DD 00H		; std::_Iosb<int>::beg
CONST	ENDS
;	COMDAT ?binary@?$_Iosb@H@std@@2W4_Openmode@12@B
CONST	SEGMENT
?binary@?$_Iosb@H@std@@2W4_Openmode@12@B DD 020H	; std::_Iosb<int>::binary
CONST	ENDS
;	COMDAT ?_Noreplace@?$_Iosb@H@std@@2W4_Openmode@12@B
CONST	SEGMENT
?_Noreplace@?$_Iosb@H@std@@2W4_Openmode@12@B DD 080H	; std::_Iosb<int>::_Noreplace
CONST	ENDS
;	COMDAT ?_Nocreate@?$_Iosb@H@std@@2W4_Openmode@12@B
CONST	SEGMENT
?_Nocreate@?$_Iosb@H@std@@2W4_Openmode@12@B DD 040H	; std::_Iosb<int>::_Nocreate
CONST	ENDS
;	COMDAT ?trunc@?$_Iosb@H@std@@2W4_Openmode@12@B
CONST	SEGMENT
?trunc@?$_Iosb@H@std@@2W4_Openmode@12@B DD 010H		; std::_Iosb<int>::trunc
CONST	ENDS
;	COMDAT ?app@?$_Iosb@H@std@@2W4_Openmode@12@B
CONST	SEGMENT
?app@?$_Iosb@H@std@@2W4_Openmode@12@B DD 08H		; std::_Iosb<int>::app
CONST	ENDS
;	COMDAT ?ate@?$_Iosb@H@std@@2W4_Openmode@12@B
CONST	SEGMENT
?ate@?$_Iosb@H@std@@2W4_Openmode@12@B DD 04H		; std::_Iosb<int>::ate
CONST	ENDS
;	COMDAT ?out@?$_Iosb@H@std@@2W4_Openmode@12@B
CONST	SEGMENT
?out@?$_Iosb@H@std@@2W4_Openmode@12@B DD 02H		; std::_Iosb<int>::out
CONST	ENDS
;	COMDAT ?in@?$_Iosb@H@std@@2W4_Openmode@12@B
CONST	SEGMENT
?in@?$_Iosb@H@std@@2W4_Openmode@12@B DD 01H		; std::_Iosb<int>::in
CONST	ENDS
;	COMDAT ?digits10@?$numeric_limits@_K@std@@2HB
CONST	SEGMENT
?digits10@?$numeric_limits@_K@std@@2HB DD 013H		; std::numeric_limits<unsigned __int64>::digits10
CONST	ENDS
;	COMDAT ?_Hardfail@?$_Iosb@H@std@@2W4_Iostate@12@B
CONST	SEGMENT
?_Hardfail@?$_Iosb@H@std@@2W4_Iostate@12@B DD 010H	; std::_Iosb<int>::_Hardfail
CONST	ENDS
;	COMDAT ?badbit@?$_Iosb@H@std@@2W4_Iostate@12@B
CONST	SEGMENT
?badbit@?$_Iosb@H@std@@2W4_Iostate@12@B DD 04H		; std::_Iosb<int>::badbit
CONST	ENDS
;	COMDAT ?digits@?$numeric_limits@_K@std@@2HB
CONST	SEGMENT
?digits@?$numeric_limits@_K@std@@2HB DD 040H		; std::numeric_limits<unsigned __int64>::digits
CONST	ENDS
;	COMDAT ?failbit@?$_Iosb@H@std@@2W4_Iostate@12@B
CONST	SEGMENT
?failbit@?$_Iosb@H@std@@2W4_Iostate@12@B DD 02H		; std::_Iosb<int>::failbit
CONST	ENDS
;	COMDAT ?is_signed@?$numeric_limits@_K@std@@2_NB
CONST	SEGMENT
?is_signed@?$numeric_limits@_K@std@@2_NB DB 00H		; std::numeric_limits<unsigned __int64>::is_signed
CONST	ENDS
;	COMDAT ?eofbit@?$_Iosb@H@std@@2W4_Iostate@12@B
CONST	SEGMENT
?eofbit@?$_Iosb@H@std@@2W4_Iostate@12@B DD 01H		; std::_Iosb<int>::eofbit
CONST	ENDS
;	COMDAT ?goodbit@?$_Iosb@H@std@@2W4_Iostate@12@B
CONST	SEGMENT
?goodbit@?$_Iosb@H@std@@2W4_Iostate@12@B DD 00H		; std::_Iosb<int>::goodbit
CONST	ENDS
;	COMDAT ?floatfield@?$_Iosb@H@std@@2W4_Fmtflags@12@B
CONST	SEGMENT
?floatfield@?$_Iosb@H@std@@2W4_Fmtflags@12@B DD 03000H	; std::_Iosb<int>::floatfield
CONST	ENDS
;	COMDAT ?basefield@?$_Iosb@H@std@@2W4_Fmtflags@12@B
CONST	SEGMENT
?basefield@?$_Iosb@H@std@@2W4_Fmtflags@12@B DD 0e00H	; std::_Iosb<int>::basefield
CONST	ENDS
;	COMDAT ?adjustfield@?$_Iosb@H@std@@2W4_Fmtflags@12@B
CONST	SEGMENT
?adjustfield@?$_Iosb@H@std@@2W4_Fmtflags@12@B DD 01c0H	; std::_Iosb<int>::adjustfield
CONST	ENDS
;	COMDAT ?_Stdio@?$_Iosb@H@std@@2W4_Fmtflags@12@B
CONST	SEGMENT
?_Stdio@?$_Iosb@H@std@@2W4_Fmtflags@12@B DD 08000H	; std::_Iosb<int>::_Stdio
CONST	ENDS
;	COMDAT ?boolalpha@?$_Iosb@H@std@@2W4_Fmtflags@12@B
CONST	SEGMENT
?boolalpha@?$_Iosb@H@std@@2W4_Fmtflags@12@B DD 04000H	; std::_Iosb<int>::boolalpha
CONST	ENDS
;	COMDAT ?hexfloat@?$_Iosb@H@std@@2W4_Fmtflags@12@B
CONST	SEGMENT
?hexfloat@?$_Iosb@H@std@@2W4_Fmtflags@12@B DD 03000H	; std::_Iosb<int>::hexfloat
CONST	ENDS
;	COMDAT ?fixed@?$_Iosb@H@std@@2W4_Fmtflags@12@B
CONST	SEGMENT
?fixed@?$_Iosb@H@std@@2W4_Fmtflags@12@B DD 02000H	; std::_Iosb<int>::fixed
CONST	ENDS
;	COMDAT ?digits10@?$numeric_limits@_J@std@@2HB
CONST	SEGMENT
?digits10@?$numeric_limits@_J@std@@2HB DD 012H		; std::numeric_limits<__int64>::digits10
CONST	ENDS
;	COMDAT ?scientific@?$_Iosb@H@std@@2W4_Fmtflags@12@B
CONST	SEGMENT
?scientific@?$_Iosb@H@std@@2W4_Fmtflags@12@B DD 01000H	; std::_Iosb<int>::scientific
CONST	ENDS
;	COMDAT ?digits@?$numeric_limits@_J@std@@2HB
CONST	SEGMENT
?digits@?$numeric_limits@_J@std@@2HB DD 03fH		; std::numeric_limits<__int64>::digits
CONST	ENDS
;	COMDAT ?hex@?$_Iosb@H@std@@2W4_Fmtflags@12@B
CONST	SEGMENT
?hex@?$_Iosb@H@std@@2W4_Fmtflags@12@B DD 0800H		; std::_Iosb<int>::hex
CONST	ENDS
;	COMDAT ?oct@?$_Iosb@H@std@@2W4_Fmtflags@12@B
CONST	SEGMENT
?oct@?$_Iosb@H@std@@2W4_Fmtflags@12@B DD 0400H		; std::_Iosb<int>::oct
CONST	ENDS
;	COMDAT ?is_signed@?$numeric_limits@_J@std@@2_NB
CONST	SEGMENT
?is_signed@?$numeric_limits@_J@std@@2_NB DB 01H		; std::numeric_limits<__int64>::is_signed
CONST	ENDS
;	COMDAT ?dec@?$_Iosb@H@std@@2W4_Fmtflags@12@B
CONST	SEGMENT
?dec@?$_Iosb@H@std@@2W4_Fmtflags@12@B DD 0200H		; std::_Iosb<int>::dec
CONST	ENDS
;	COMDAT ?internal@?$_Iosb@H@std@@2W4_Fmtflags@12@B
CONST	SEGMENT
?internal@?$_Iosb@H@std@@2W4_Fmtflags@12@B DD 0100H	; std::_Iosb<int>::internal
CONST	ENDS
;	COMDAT ?right@?$_Iosb@H@std@@2W4_Fmtflags@12@B
CONST	SEGMENT
?right@?$_Iosb@H@std@@2W4_Fmtflags@12@B DD 080H		; std::_Iosb<int>::right
CONST	ENDS
;	COMDAT ?left@?$_Iosb@H@std@@2W4_Fmtflags@12@B
CONST	SEGMENT
?left@?$_Iosb@H@std@@2W4_Fmtflags@12@B DD 040H		; std::_Iosb<int>::left
CONST	ENDS
;	COMDAT ?showpos@?$_Iosb@H@std@@2W4_Fmtflags@12@B
CONST	SEGMENT
?showpos@?$_Iosb@H@std@@2W4_Fmtflags@12@B DD 020H	; std::_Iosb<int>::showpos
CONST	ENDS
;	COMDAT ?showpoint@?$_Iosb@H@std@@2W4_Fmtflags@12@B
CONST	SEGMENT
?showpoint@?$_Iosb@H@std@@2W4_Fmtflags@12@B DD 010H	; std::_Iosb<int>::showpoint
CONST	ENDS
;	COMDAT ?showbase@?$_Iosb@H@std@@2W4_Fmtflags@12@B
CONST	SEGMENT
?showbase@?$_Iosb@H@std@@2W4_Fmtflags@12@B DD 08H	; std::_Iosb<int>::showbase
CONST	ENDS
;	COMDAT ?uppercase@?$_Iosb@H@std@@2W4_Fmtflags@12@B
CONST	SEGMENT
?uppercase@?$_Iosb@H@std@@2W4_Fmtflags@12@B DD 04H	; std::_Iosb<int>::uppercase
CONST	ENDS
;	COMDAT ?unitbuf@?$_Iosb@H@std@@2W4_Fmtflags@12@B
CONST	SEGMENT
?unitbuf@?$_Iosb@H@std@@2W4_Fmtflags@12@B DD 02H	; std::_Iosb<int>::unitbuf
CONST	ENDS
;	COMDAT ?skipws@?$_Iosb@H@std@@2W4_Fmtflags@12@B
CONST	SEGMENT
?skipws@?$_Iosb@H@std@@2W4_Fmtflags@12@B DD 01H		; std::_Iosb<int>::skipws
CONST	ENDS
;	COMDAT ?digits10@?$numeric_limits@K@std@@2HB
CONST	SEGMENT
?digits10@?$numeric_limits@K@std@@2HB DD 09H		; std::numeric_limits<unsigned long>::digits10
CONST	ENDS
;	COMDAT ?digits@?$numeric_limits@K@std@@2HB
CONST	SEGMENT
?digits@?$numeric_limits@K@std@@2HB DD 020H		; std::numeric_limits<unsigned long>::digits
CONST	ENDS
;	COMDAT ?is_signed@?$numeric_limits@K@std@@2_NB
CONST	SEGMENT
?is_signed@?$numeric_limits@K@std@@2_NB DB 00H		; std::numeric_limits<unsigned long>::is_signed
CONST	ENDS
;	COMDAT ?digits10@?$numeric_limits@J@std@@2HB
CONST	SEGMENT
?digits10@?$numeric_limits@J@std@@2HB DD 09H		; std::numeric_limits<long>::digits10
CONST	ENDS
;	COMDAT ?digits@?$numeric_limits@J@std@@2HB
CONST	SEGMENT
?digits@?$numeric_limits@J@std@@2HB DD 01fH		; std::numeric_limits<long>::digits
CONST	ENDS
;	COMDAT ?is_signed@?$numeric_limits@J@std@@2_NB
CONST	SEGMENT
?is_signed@?$numeric_limits@J@std@@2_NB DB 01H		; std::numeric_limits<long>::is_signed
CONST	ENDS
;	COMDAT ?digits10@?$numeric_limits@I@std@@2HB
CONST	SEGMENT
?digits10@?$numeric_limits@I@std@@2HB DD 09H		; std::numeric_limits<unsigned int>::digits10
CONST	ENDS
;	COMDAT ?digits@?$numeric_limits@I@std@@2HB
CONST	SEGMENT
?digits@?$numeric_limits@I@std@@2HB DD 020H		; std::numeric_limits<unsigned int>::digits
CONST	ENDS
;	COMDAT ?is_signed@?$numeric_limits@I@std@@2_NB
CONST	SEGMENT
?is_signed@?$numeric_limits@I@std@@2_NB DB 00H		; std::numeric_limits<unsigned int>::is_signed
CONST	ENDS
;	COMDAT ?digits10@?$numeric_limits@H@std@@2HB
CONST	SEGMENT
?digits10@?$numeric_limits@H@std@@2HB DD 09H		; std::numeric_limits<int>::digits10
CONST	ENDS
;	COMDAT ?digits@?$numeric_limits@H@std@@2HB
CONST	SEGMENT
?digits@?$numeric_limits@H@std@@2HB DD 01fH		; std::numeric_limits<int>::digits
CONST	ENDS
;	COMDAT ?value@?$_Sizeof@HU_Nil@std@@U12@U12@U12@U12@U12@U12@@std@@2IB
CONST	SEGMENT
?value@?$_Sizeof@HU_Nil@std@@U12@U12@U12@U12@U12@U12@@std@@2IB DD 01H ; std::_Sizeof<int,std::_Nil,std::_Nil,std::_Nil,std::_Nil,std::_Nil,std::_Nil,std::_Nil>::value
CONST	ENDS
;	COMDAT ?is_signed@?$numeric_limits@H@std@@2_NB
CONST	SEGMENT
?is_signed@?$numeric_limits@H@std@@2_NB DB 01H		; std::numeric_limits<int>::is_signed
CONST	ENDS
;	COMDAT ?digits10@?$numeric_limits@G@std@@2HB
CONST	SEGMENT
?digits10@?$numeric_limits@G@std@@2HB DD 04H		; std::numeric_limits<unsigned short>::digits10
CONST	ENDS
;	COMDAT ?digits@?$numeric_limits@G@std@@2HB
CONST	SEGMENT
?digits@?$numeric_limits@G@std@@2HB DD 010H		; std::numeric_limits<unsigned short>::digits
CONST	ENDS
;	COMDAT ?is_signed@?$numeric_limits@G@std@@2_NB
CONST	SEGMENT
?is_signed@?$numeric_limits@G@std@@2_NB DB 00H		; std::numeric_limits<unsigned short>::is_signed
CONST	ENDS
;	COMDAT ?digits10@?$numeric_limits@F@std@@2HB
CONST	SEGMENT
?digits10@?$numeric_limits@F@std@@2HB DD 04H		; std::numeric_limits<short>::digits10
CONST	ENDS
;	COMDAT ?digits@?$numeric_limits@F@std@@2HB
CONST	SEGMENT
?digits@?$numeric_limits@F@std@@2HB DD 0fH		; std::numeric_limits<short>::digits
CONST	ENDS
;	COMDAT ?is_signed@?$numeric_limits@F@std@@2_NB
CONST	SEGMENT
?is_signed@?$numeric_limits@F@std@@2_NB DB 01H		; std::numeric_limits<short>::is_signed
CONST	ENDS
;	COMDAT ?value@?$integral_constant@_N$00@std@@2_NB
CONST	SEGMENT
?value@?$integral_constant@_N$00@std@@2_NB DB 01H	; std::integral_constant<bool,1>::value
CONST	ENDS
;	COMDAT ?digits10@?$numeric_limits@E@std@@2HB
CONST	SEGMENT
?digits10@?$numeric_limits@E@std@@2HB DD 02H		; std::numeric_limits<unsigned char>::digits10
CONST	ENDS
;	COMDAT ?digits@?$numeric_limits@E@std@@2HB
CONST	SEGMENT
?digits@?$numeric_limits@E@std@@2HB DD 08H		; std::numeric_limits<unsigned char>::digits
CONST	ENDS
;	COMDAT ?value@?$integral_constant@_N$0A@@std@@2_NB
CONST	SEGMENT
?value@?$integral_constant@_N$0A@@std@@2_NB DB 00H	; std::integral_constant<bool,0>::value
CONST	ENDS
;	COMDAT ?is_signed@?$numeric_limits@E@std@@2_NB
CONST	SEGMENT
?is_signed@?$numeric_limits@E@std@@2_NB DB 00H		; std::numeric_limits<unsigned char>::is_signed
CONST	ENDS
;	COMDAT ?digits10@?$numeric_limits@C@std@@2HB
CONST	SEGMENT
?digits10@?$numeric_limits@C@std@@2HB DD 02H		; std::numeric_limits<signed char>::digits10
CONST	ENDS
;	COMDAT ?digits@?$numeric_limits@C@std@@2HB
CONST	SEGMENT
?digits@?$numeric_limits@C@std@@2HB DD 07H		; std::numeric_limits<signed char>::digits
CONST	ENDS
;	COMDAT ?is_signed@?$numeric_limits@C@std@@2_NB
CONST	SEGMENT
?is_signed@?$numeric_limits@C@std@@2_NB DB 01H		; std::numeric_limits<signed char>::is_signed
CONST	ENDS
CONST	SEGMENT
_L_2	DD	03f317218r			; 0.693147
CONST	ENDS
;	COMDAT ?digits10@?$numeric_limits@_N@std@@2HB
CONST	SEGMENT
?digits10@?$numeric_limits@_N@std@@2HB DD 00H		; std::numeric_limits<bool>::digits10
CONST	ENDS
;	COMDAT ?digits@?$numeric_limits@_N@std@@2HB
CONST	SEGMENT
?digits@?$numeric_limits@_N@std@@2HB DD 01H		; std::numeric_limits<bool>::digits
CONST	ENDS
;	COMDAT ?is_signed@?$numeric_limits@_N@std@@2_NB
CONST	SEGMENT
?is_signed@?$numeric_limits@_N@std@@2_NB DB 00H		; std::numeric_limits<bool>::is_signed
CONST	ENDS
;	COMDAT ?is_modulo@?$numeric_limits@_N@std@@2_NB
CONST	SEGMENT
?is_modulo@?$numeric_limits@_N@std@@2_NB DB 00H		; std::numeric_limits<bool>::is_modulo
CONST	ENDS
;	COMDAT ?digits10@?$numeric_limits@_W@std@@2HB
CONST	SEGMENT
?digits10@?$numeric_limits@_W@std@@2HB DD 04H		; std::numeric_limits<wchar_t>::digits10
CONST	ENDS
_DATA	SEGMENT
_matrix33_ident DD 03f800000r			; 1
	DD	000000000r			; 0
	DD	000000000r			; 0
	DD	000000000r			; 0
	DD	03f800000r			; 1
	DD	000000000r			; 0
	DD	000000000r			; 0
	DD	000000000r			; 0
	DD	03f800000r			; 1
	ORG $+4
_matrix44_ident DD 03f800000r			; 1
	DD	000000000r			; 0
	DD	000000000r			; 0
	DD	000000000r			; 0
	DD	000000000r			; 0
	DD	03f800000r			; 1
	DD	000000000r			; 0
	DD	000000000r			; 0
	DD	000000000r			; 0
	DD	000000000r			; 0
	DD	03f800000r			; 1
	DD	000000000r			; 0
	DD	000000000r			; 0
	DD	000000000r			; 0
	DD	000000000r			; 0
	DD	03f800000r			; 1
_DATA	ENDS
;	COMDAT ?digits@?$numeric_limits@_W@std@@2HB
CONST	SEGMENT
?digits@?$numeric_limits@_W@std@@2HB DD 010H		; std::numeric_limits<wchar_t>::digits
CONST	ENDS
;	COMDAT ?is_signed@?$numeric_limits@_W@std@@2_NB
CONST	SEGMENT
?is_signed@?$numeric_limits@_W@std@@2_NB DB 00H		; std::numeric_limits<wchar_t>::is_signed
CONST	ENDS
;	COMDAT ?digits10@?$numeric_limits@D@std@@2HB
CONST	SEGMENT
?digits10@?$numeric_limits@D@std@@2HB DD 02H		; std::numeric_limits<char>::digits10
CONST	ENDS
;	COMDAT ?digits@?$numeric_limits@D@std@@2HB
CONST	SEGMENT
?digits@?$numeric_limits@D@std@@2HB DD 07H		; std::numeric_limits<char>::digits
CONST	ENDS
;	COMDAT ?is_signed@?$numeric_limits@D@std@@2_NB
CONST	SEGMENT
?is_signed@?$numeric_limits@D@std@@2_NB DB 01H		; std::numeric_limits<char>::is_signed
CONST	ENDS
;	COMDAT ?radix@_Num_float_base@std@@2HB
CONST	SEGMENT
?radix@_Num_float_base@std@@2HB DD 02H			; std::_Num_float_base::radix
CONST	ENDS
;	COMDAT ?round_style@_Num_float_base@std@@2W4float_round_style@2@B
CONST	SEGMENT
?round_style@_Num_float_base@std@@2W4float_round_style@2@B DD 01H ; std::_Num_float_base::round_style
CONST	ENDS
;	COMDAT ?traps@_Num_float_base@std@@2_NB
CONST	SEGMENT
?traps@_Num_float_base@std@@2_NB DB 00H			; std::_Num_float_base::traps
CONST	ENDS
;	COMDAT ?tinyness_before@_Num_float_base@std@@2_NB
CONST	SEGMENT
?tinyness_before@_Num_float_base@std@@2_NB DB 01H	; std::_Num_float_base::tinyness_before
CONST	ENDS
;	COMDAT ?is_specialized@_Num_float_base@std@@2_NB
CONST	SEGMENT
?is_specialized@_Num_float_base@std@@2_NB DB 01H	; std::_Num_float_base::is_specialized
CONST	ENDS
;	COMDAT ?is_signed@_Num_float_base@std@@2_NB
CONST	SEGMENT
?is_signed@_Num_float_base@std@@2_NB DB 01H		; std::_Num_float_base::is_signed
CONST	ENDS
;	COMDAT ?is_modulo@_Num_float_base@std@@2_NB
CONST	SEGMENT
?is_modulo@_Num_float_base@std@@2_NB DB 00H		; std::_Num_float_base::is_modulo
CONST	ENDS
;	COMDAT ?is_integer@_Num_float_base@std@@2_NB
CONST	SEGMENT
?is_integer@_Num_float_base@std@@2_NB DB 00H		; std::_Num_float_base::is_integer
CONST	ENDS
;	COMDAT ?is_iec559@_Num_float_base@std@@2_NB
CONST	SEGMENT
?is_iec559@_Num_float_base@std@@2_NB DB 01H		; std::_Num_float_base::is_iec559
CONST	ENDS
;	COMDAT ?is_exact@_Num_float_base@std@@2_NB
CONST	SEGMENT
?is_exact@_Num_float_base@std@@2_NB DB 00H		; std::_Num_float_base::is_exact
CONST	ENDS
;	COMDAT ?is_bounded@_Num_float_base@std@@2_NB
CONST	SEGMENT
?is_bounded@_Num_float_base@std@@2_NB DB 01H		; std::_Num_float_base::is_bounded
CONST	ENDS
;	COMDAT ?has_signaling_NaN@_Num_float_base@std@@2_NB
CONST	SEGMENT
?has_signaling_NaN@_Num_float_base@std@@2_NB DB 01H	; std::_Num_float_base::has_signaling_NaN
CONST	ENDS
;	COMDAT ?has_quiet_NaN@_Num_float_base@std@@2_NB
CONST	SEGMENT
?has_quiet_NaN@_Num_float_base@std@@2_NB DB 01H		; std::_Num_float_base::has_quiet_NaN
CONST	ENDS
;	COMDAT ?has_infinity@_Num_float_base@std@@2_NB
CONST	SEGMENT
?has_infinity@_Num_float_base@std@@2_NB DB 01H		; std::_Num_float_base::has_infinity
CONST	ENDS
;	COMDAT ?CMPDIRTYDATA_INTERVAL@FalconEntity@@2KB
CONST	SEGMENT
?CMPDIRTYDATA_INTERVAL@FalconEntity@@2KB DD 0c8H	; FalconEntity::CMPDIRTYDATA_INTERVAL
CONST	ENDS
;	COMDAT ?SIMDIRTYDATA_INTERVAL@FalconEntity@@2KB
CONST	SEGMENT
?SIMDIRTYDATA_INTERVAL@FalconEntity@@2KB DD 0c8H	; FalconEntity::SIMDIRTYDATA_INTERVAL
CONST	ENDS
;	COMDAT ?has_denorm_loss@_Num_float_base@std@@2_NB
CONST	SEGMENT
?has_denorm_loss@_Num_float_base@std@@2_NB DB 01H	; std::_Num_float_base::has_denorm_loss
CONST	ENDS
;	COMDAT ?has_denorm@_Num_float_base@std@@2W4float_denorm_style@2@B
CONST	SEGMENT
?has_denorm@_Num_float_base@std@@2W4float_denorm_style@2@B DD 01H ; std::_Num_float_base::has_denorm
CONST	ENDS
;	COMDAT ?radix@_Num_int_base@std@@2HB
CONST	SEGMENT
?radix@_Num_int_base@std@@2HB DD 02H			; std::_Num_int_base::radix
CONST	ENDS
;	COMDAT ?is_specialized@_Num_int_base@std@@2_NB
CONST	SEGMENT
?is_specialized@_Num_int_base@std@@2_NB DB 01H		; std::_Num_int_base::is_specialized
CONST	ENDS
;	COMDAT ?table_size@?$ctype@D@std@@2IB
CONST	SEGMENT
?table_size@?$ctype@D@std@@2IB DD 0100H			; std::ctype<char>::table_size
CONST	ENDS
;	COMDAT ?is_modulo@_Num_int_base@std@@2_NB
CONST	SEGMENT
?is_modulo@_Num_int_base@std@@2_NB DB 01H		; std::_Num_int_base::is_modulo
CONST	ENDS
;	COMDAT ?is_integer@_Num_int_base@std@@2_NB
CONST	SEGMENT
?is_integer@_Num_int_base@std@@2_NB DB 01H		; std::_Num_int_base::is_integer
CONST	ENDS
;	COMDAT ?is_exact@_Num_int_base@std@@2_NB
CONST	SEGMENT
?is_exact@_Num_int_base@std@@2_NB DB 01H		; std::_Num_int_base::is_exact
CONST	ENDS
;	COMDAT ?is_bounded@_Num_int_base@std@@2_NB
CONST	SEGMENT
?is_bounded@_Num_int_base@std@@2_NB DB 01H		; std::_Num_int_base::is_bounded
CONST	ENDS
;	COMDAT ?radix@_Num_base@std@@2HB
CONST	SEGMENT
?radix@_Num_base@std@@2HB DD 00H			; std::_Num_base::radix
CONST	ENDS
;	COMDAT ?min_exponent10@_Num_base@std@@2HB
CONST	SEGMENT
?min_exponent10@_Num_base@std@@2HB DD 00H		; std::_Num_base::min_exponent10
CONST	ENDS
;	COMDAT ?min_exponent@_Num_base@std@@2HB
CONST	SEGMENT
?min_exponent@_Num_base@std@@2HB DD 00H			; std::_Num_base::min_exponent
CONST	ENDS
;	COMDAT ?max_exponent10@_Num_base@std@@2HB
CONST	SEGMENT
?max_exponent10@_Num_base@std@@2HB DD 00H		; std::_Num_base::max_exponent10
CONST	ENDS
;	COMDAT ?max_exponent@_Num_base@std@@2HB
CONST	SEGMENT
?max_exponent@_Num_base@std@@2HB DD 00H			; std::_Num_base::max_exponent
CONST	ENDS
;	COMDAT ?max_digits10@_Num_base@std@@2HB
CONST	SEGMENT
?max_digits10@_Num_base@std@@2HB DD 00H			; std::_Num_base::max_digits10
CONST	ENDS
;	COMDAT ?digits10@_Num_base@std@@2HB
CONST	SEGMENT
?digits10@_Num_base@std@@2HB DD 00H			; std::_Num_base::digits10
CONST	ENDS
;	COMDAT ?digits@_Num_base@std@@2HB
CONST	SEGMENT
?digits@_Num_base@std@@2HB DD 00H			; std::_Num_base::digits
CONST	ENDS
;	COMDAT ?round_style@_Num_base@std@@2W4float_round_style@2@B
CONST	SEGMENT
?round_style@_Num_base@std@@2W4float_round_style@2@B DD 00H ; std::_Num_base::round_style
CONST	ENDS
;	COMDAT ?traps@_Num_base@std@@2_NB
CONST	SEGMENT
?traps@_Num_base@std@@2_NB DB 00H			; std::_Num_base::traps
CONST	ENDS
PUBLIC	_fabsf
PUBLIC	_atanf
PUBLIC	?atan@@YAMM@Z					; atan
PUBLIC	?fabs@@YAMM@Z					; fabs
PUBLIC	??BVU_SESSION_ID@@QBEKXZ			; VU_SESSION_ID::operator unsigned long
PUBLIC	??BVU_ID@@QBEKXZ				; VU_ID::operator unsigned long
PUBLIC	?SetUpdateTime@VuEntity@@QAEXK@Z		; VuEntity::SetUpdateTime
PUBLIC	?Id@VuEntity@@QBE?AVVU_ID@@XZ			; VuEntity::Id
PUBLIC	?Type@VuEntity@@QBEGXZ				; VuEntity::Type
PUBLIC	?XPos@VuEntity@@QBEMXZ				; VuEntity::XPos
PUBLIC	?YPos@VuEntity@@QBEMXZ				; VuEntity::YPos
PUBLIC	?ZPos@VuEntity@@QBEMXZ				; VuEntity::ZPos
PUBLIC	?XDelta@VuEntity@@QBEMXZ			; VuEntity::XDelta
PUBLIC	?YDelta@VuEntity@@QBEMXZ			; VuEntity::YDelta
PUBLIC	?ZDelta@VuEntity@@QBEMXZ			; VuEntity::ZDelta
PUBLIC	?Yaw@VuEntity@@QBEMXZ				; VuEntity::Yaw
PUBLIC	?Pitch@VuEntity@@QBEMXZ				; VuEntity::Pitch
PUBLIC	?Roll@VuEntity@@QBEMXZ				; VuEntity::Roll
PUBLIC	?LastUpdateTime@VuEntity@@QBEKXZ		; VuEntity::LastUpdateTime
PUBLIC	??2@YAPAXIPAX@Z					; operator new
PUBLIC	??3@YAXPAX0@Z					; operator delete
PUBLIC	?length@?$char_traits@D@std@@SAIPBD@Z		; std::char_traits<char>::length
PUBLIC	?copy@?$char_traits@D@std@@SAPADPADPBDI@Z	; std::char_traits<char>::copy
PUBLIC	?move@?$char_traits@D@std@@SAPADPADPBDI@Z	; std::char_traits<char>::move
PUBLIC	?assign@?$char_traits@D@std@@SAXAADABD@Z	; std::char_traits<char>::assign
PUBLIC	??0?$allocator@D@std@@QAE@XZ			; std::allocator<char>::allocator<char>
PUBLIC	?deallocate@?$allocator@D@std@@QAEXPADI@Z	; std::allocator<char>::deallocate
PUBLIC	?allocate@?$allocator@D@std@@QAEPADI@Z		; std::allocator<char>::allocate
PUBLIC	?max_size@?$allocator@D@std@@QBEIXZ		; std::allocator<char>::max_size
PUBLIC	?max_size@?$allocator_traits@V?$allocator@D@std@@@std@@SAIABV?$allocator@D@2@@Z ; std::allocator_traits<std::allocator<char> >::max_size
PUBLIC	??0?$_Wrap_alloc@V?$allocator@D@std@@@std@@QAE@XZ ; std::_Wrap_alloc<std::allocator<char> >::_Wrap_alloc<std::allocator<char> >
PUBLIC	?allocate@?$_Wrap_alloc@V?$allocator@D@std@@@std@@QAEPADI@Z ; std::_Wrap_alloc<std::allocator<char> >::allocate
PUBLIC	?deallocate@?$_Wrap_alloc@V?$allocator@D@std@@@std@@QAEXPADI@Z ; std::_Wrap_alloc<std::allocator<char> >::deallocate
PUBLIC	?max_size@?$_Wrap_alloc@V?$allocator@D@std@@@std@@QBEIXZ ; std::_Wrap_alloc<std::allocator<char> >::max_size
PUBLIC	??0?$_String_val@U?$_Simple_types@D@std@@@std@@QAE@XZ ; std::_String_val<std::_Simple_types<char> >::_String_val<std::_Simple_types<char> >
PUBLIC	?_Myptr@?$_String_val@U?$_Simple_types@D@std@@@std@@QAEPADXZ ; std::_String_val<std::_Simple_types<char> >::_Myptr
PUBLIC	?_Myptr@?$_String_val@U?$_Simple_types@D@std@@@std@@QBEPBDXZ ; std::_String_val<std::_Simple_types<char> >::_Myptr
PUBLIC	??0?$_String_alloc@$0A@U?$_String_base_types@DV?$allocator@D@std@@@std@@@std@@QAE@ABV?$allocator@D@1@@Z ; std::_String_alloc<0,std::_String_base_types<char,std::allocator<char> > >::_String_alloc<0,std::_String_base_types<char,std::allocator<char> > >
PUBLIC	?_Getal@?$_String_alloc@$0A@U?$_String_base_types@DV?$allocator@D@std@@@std@@@std@@QBE?AU?$_Wrap_alloc@V?$allocator@D@std@@@2@XZ ; std::_String_alloc<0,std::_String_base_types<char,std::allocator<char> > >::_Getal
PUBLIC	??0?$basic_string@DU?$char_traits@D@std@@V?$allocator@D@2@@std@@QAE@PBD@Z ; std::basic_string<char,std::char_traits<char>,std::allocator<char> >::basic_string<char,std::char_traits<char>,std::allocator<char> >
PUBLIC	?assign@?$basic_string@DU?$char_traits@D@std@@V?$allocator@D@2@@std@@QAEAAV12@ABV12@II@Z ; std::basic_string<char,std::char_traits<char>,std::allocator<char> >::assign
PUBLIC	?assign@?$basic_string@DU?$char_traits@D@std@@V?$allocator@D@2@@std@@QAEAAV12@PBDI@Z ; std::basic_string<char,std::char_traits<char>,std::allocator<char> >::assign
PUBLIC	?assign@?$basic_string@DU?$char_traits@D@std@@V?$allocator@D@2@@std@@QAEAAV12@PBD@Z ; std::basic_string<char,std::char_traits<char>,std::allocator<char> >::assign
PUBLIC	?erase@?$basic_string@DU?$char_traits@D@std@@V?$allocator@D@2@@std@@QAEAAV12@I@Z ; std::basic_string<char,std::char_traits<char>,std::allocator<char> >::erase
PUBLIC	?erase@?$basic_string@DU?$char_traits@D@std@@V?$allocator@D@2@@std@@QAEAAV12@II@Z ; std::basic_string<char,std::char_traits<char>,std::allocator<char> >::erase
PUBLIC	?size@?$basic_string@DU?$char_traits@D@std@@V?$allocator@D@2@@std@@QBEIXZ ; std::basic_string<char,std::char_traits<char>,std::allocator<char> >::size
PUBLIC	?max_size@?$basic_string@DU?$char_traits@D@std@@V?$allocator@D@2@@std@@QBEIXZ ; std::basic_string<char,std::char_traits<char>,std::allocator<char> >::max_size
PUBLIC	?_Copy@?$basic_string@DU?$char_traits@D@std@@V?$allocator@D@2@@std@@QAEXII@Z ; std::basic_string<char,std::char_traits<char>,std::allocator<char> >::_Copy
PUBLIC	?_Eos@?$basic_string@DU?$char_traits@D@std@@V?$allocator@D@2@@std@@QAEXI@Z ; std::basic_string<char,std::char_traits<char>,std::allocator<char> >::_Eos
PUBLIC	?_Grow@?$basic_string@DU?$char_traits@D@std@@V?$allocator@D@2@@std@@QAE_NI_N@Z ; std::basic_string<char,std::char_traits<char>,std::allocator<char> >::_Grow
PUBLIC	?_Inside@?$basic_string@DU?$char_traits@D@std@@V?$allocator@D@2@@std@@QAE_NPBD@Z ; std::basic_string<char,std::char_traits<char>,std::allocator<char> >::_Inside
PUBLIC	?_Tidy@?$basic_string@DU?$char_traits@D@std@@V?$allocator@D@2@@std@@QAEX_NI@Z ; std::basic_string<char,std::char_traits<char>,std::allocator<char> >::_Tidy
PUBLIC	?_Xlen@?$basic_string@DU?$char_traits@D@std@@V?$allocator@D@2@@std@@QBEXXZ ; std::basic_string<char,std::char_traits<char>,std::allocator<char> >::_Xlen
PUBLIC	?_Xran@?$basic_string@DU?$char_traits@D@std@@V?$allocator@D@2@@std@@QBEXXZ ; std::basic_string<char,std::char_traits<char>,std::allocator<char> >::_Xran
PUBLIC	?IsSetFalcFlag@FalconEntity@@QAEHH@Z		; FalconEntity::IsSetFalcFlag
PUBLIC	?IsPlayer@FalconEntity@@QAEHXZ			; FalconEntity::IsPlayer
PUBLIC	?mlSinCos@@YAXPAUmlTrig@@M@Z			; mlSinCos
PUBLIC	?checked_atan2@@YANNN@Z				; checked_atan2
PUBLIC	??0GearData@@QAE@XZ				; GearData::GearData
PUBLIC	??1GearData@@QAE@XZ				; GearData::~GearData
PUBLIC	??_EGearData@@QAEPAXI@Z				; GearData::`vector deleting destructor'
PUBLIC	?SetStallConditions@AirframeClass@@AAEXXZ	; AirframeClass::SetStallConditions
PUBLIC	?TEFClose@AirframeClass@@QAEXXZ			; AirframeClass::TEFClose
PUBLIC	?TEFMax@AirframeClass@@QAEXXZ			; AirframeClass::TEFMax
PUBLIC	?TEFInc@AirframeClass@@QAEXXZ			; AirframeClass::TEFInc
PUBLIC	?TEFDec@AirframeClass@@QAEXXZ			; AirframeClass::TEFDec
PUBLIC	?TEFTakeoff@AirframeClass@@QAEXXZ		; AirframeClass::TEFTakeoff
PUBLIC	?TEFLEFStage1@AirframeClass@@QAEXXZ		; AirframeClass::TEFLEFStage1
PUBLIC	?TEFLEFStage2@AirframeClass@@QAEXXZ		; AirframeClass::TEFLEFStage2
PUBLIC	?TEFLEFStage3@AirframeClass@@QAEXXZ		; AirframeClass::TEFLEFStage3
PUBLIC	?LEFClose@AirframeClass@@QAEXXZ			; AirframeClass::LEFClose
PUBLIC	?LEFMax@AirframeClass@@QAEXXZ			; AirframeClass::LEFMax
PUBLIC	?LEFInc@AirframeClass@@QAEXXZ			; AirframeClass::LEFInc
PUBLIC	?LEFDec@AirframeClass@@QAEXXZ			; AirframeClass::LEFDec
PUBLIC	?LEFTakeoff@AirframeClass@@QAEXXZ		; AirframeClass::LEFTakeoff
PUBLIC	?SetFlaps@AirframeClass@@QAEX_N@Z		; AirframeClass::SetFlaps
PUBLIC	?SetFlapsPlayer@AirframeClass@@QAEXXZ		; AirframeClass::SetFlapsPlayer
PUBLIC	?RandomFailureModel@AirframeClass@@QAEXXZ	; AirframeClass::RandomFailureModel
PUBLIC	?CanopyToggle@AirframeClass@@QAEXXZ		; AirframeClass::CanopyToggle
PUBLIC	?TogglePB@AirframeClass@@QAEXXZ			; AirframeClass::TogglePB
PUBLIC	?ToggleHook@AirframeClass@@QAEXXZ		; AirframeClass::ToggleHook
PUBLIC	?HookUp@AirframeClass@@QAEXXZ			; AirframeClass::HookUp
PUBLIC	?HookDown@AirframeClass@@QAEXXZ			; AirframeClass::HookDown
PUBLIC	?SetEngineFlag@AirframeClass@@QAEXW4EngineFlags@1@@Z ; AirframeClass::SetEngineFlag
PUBLIC	?GeneratorOff@AirframeClass@@QAEXW4Generator@1@@Z ; AirframeClass::GeneratorOff
PUBLIC	?GeneratorBreak@AirframeClass@@QAEXW4Generator@1@@Z ; AirframeClass::GeneratorBreak
PUBLIC	??0AirframeClass@@QAE@PAVAircraftClass@@@Z	; AirframeClass::AirframeClass
PUBLIC	??1AirframeClass@@QAE@XZ			; AirframeClass::~AirframeClass
PUBLIC	?Init@AirframeClass@@QAEXH@Z			; AirframeClass::Init
PUBLIC	?InitData@AirframeClass@@QAEXH@Z		; AirframeClass::InitData
PUBLIC	?Reinit@AirframeClass@@QAEXXZ			; AirframeClass::Reinit
PUBLIC	?Exec@AirframeClass@@QAEXXZ			; AirframeClass::Exec
PUBLIC	?RemoteUpdate@AirframeClass@@QAEXXZ		; AirframeClass::RemoteUpdate
PUBLIC	?CalcThrotlPos@AirframeClass@@QAEMM@Z		; AirframeClass::CalcThrotlPos
PUBLIC	?CalcDesAlpha@AirframeClass@@QAEMM@Z		; AirframeClass::CalcDesAlpha
PUBLIC	?CalcDesSpeed@AirframeClass@@QAEMM@Z		; AirframeClass::CalcDesSpeed
PUBLIC	?AddExternalFuel@AirframeClass@@QAEXM@Z		; AirframeClass::AddExternalFuel
PUBLIC	?AddFuel@AirframeClass@@QAEHM@Z			; AirframeClass::AddFuel
PUBLIC	?FindExternalTanks@AirframeClass@@QAEXXZ	; AirframeClass::FindExternalTanks
PUBLIC	?AddWeapon@AirframeClass@@QAEXMMM@Z		; AirframeClass::AddWeapon
PUBLIC	?RemoveWeapon@AirframeClass@@QAEXMMM@Z		; AirframeClass::RemoveWeapon
PUBLIC	?ResetAlpha@AirframeClass@@QAEXXZ		; AirframeClass::ResetAlpha
PUBLIC	?SetFlag@AirframeClass@@QAEXH@Z			; AirframeClass::SetFlag
PUBLIC	?ClearFlag@AirframeClass@@QAEXH@Z		; AirframeClass::ClearFlag
PUBLIC	?IsSet@AirframeClass@@QBEHH@Z			; AirframeClass::IsSet
PUBLIC	?SetPosition@AirframeClass@@QAEXMMM@Z		; AirframeClass::SetPosition
PUBLIC	?ResetFuel@AirframeClass@@QAEXXZ		; AirframeClass::ResetFuel
PUBLIC	?RunHeliModel@AirframeClass@@QAEXXZ		; AirframeClass::RunHeliModel
PUBLIC	?GetParkType@AirframeClass@@QAEHXZ		; AirframeClass::GetParkType
PUBLIC	??_GHeliMMClass@@QAEPAXI@Z			; HeliMMClass::`scalar deleting destructor'
PUBLIC	??0id@locale@std@@QAE@I@Z			; std::locale::id::id
PUBLIC	?generic_category@std@@YAABVerror_category@1@XZ	; std::generic_category
PUBLIC	?system_category@std@@YAABVerror_category@1@XZ	; std::system_category
PUBLIC	??0error_category@std@@QAE@XZ			; std::error_category::error_category
PUBLIC	??1error_category@std@@UAE@XZ			; std::error_category::~error_category
PUBLIC	?default_error_condition@error_category@std@@UBE?AVerror_condition@2@H@Z ; std::error_category::default_error_condition
PUBLIC	?equivalent@error_category@std@@UBE_NHABVerror_condition@2@@Z ; std::error_category::equivalent
PUBLIC	?equivalent@error_category@std@@UBE_NABVerror_code@2@H@Z ; std::error_category::equivalent
PUBLIC	??8error_category@std@@QBE_NABV01@@Z		; std::error_category::operator==
PUBLIC	??_Gerror_category@std@@UAEPAXI@Z		; std::error_category::`scalar deleting destructor'
PUBLIC	?value@error_code@std@@QBEHXZ			; std::error_code::value
PUBLIC	?category@error_code@std@@QBEABVerror_category@2@XZ ; std::error_code::category
PUBLIC	??0error_condition@std@@QAE@HABVerror_category@1@@Z ; std::error_condition::error_condition
PUBLIC	?value@error_condition@std@@QBEHXZ		; std::error_condition::value
PUBLIC	?category@error_condition@std@@QBEABVerror_category@2@XZ ; std::error_condition::category
PUBLIC	??8error_condition@std@@QBE_NABV01@@Z		; std::error_condition::operator==
PUBLIC	??0_Generic_error_category@std@@QAE@XZ		; std::_Generic_error_category::_Generic_error_category
PUBLIC	?name@_Generic_error_category@std@@UBEPBDXZ	; std::_Generic_error_category::name
PUBLIC	?message@_Generic_error_category@std@@UBE?AV?$basic_string@DU?$char_traits@D@std@@V?$allocator@D@2@@2@H@Z ; std::_Generic_error_category::message
PUBLIC	??1_Generic_error_category@std@@UAE@XZ		; std::_Generic_error_category::~_Generic_error_category
PUBLIC	??_G_Generic_error_category@std@@UAEPAXI@Z	; std::_Generic_error_category::`scalar deleting destructor'
PUBLIC	??0_Iostream_error_category@std@@QAE@XZ		; std::_Iostream_error_category::_Iostream_error_category
PUBLIC	?name@_Iostream_error_category@std@@UBEPBDXZ	; std::_Iostream_error_category::name
PUBLIC	?message@_Iostream_error_category@std@@UBE?AV?$basic_string@DU?$char_traits@D@std@@V?$allocator@D@2@@2@H@Z ; std::_Iostream_error_category::message
PUBLIC	??1_Iostream_error_category@std@@UAE@XZ		; std::_Iostream_error_category::~_Iostream_error_category
PUBLIC	??_G_Iostream_error_category@std@@UAEPAXI@Z	; std::_Iostream_error_category::`scalar deleting destructor'
PUBLIC	??0_System_error_category@std@@QAE@XZ		; std::_System_error_category::_System_error_category
PUBLIC	?name@_System_error_category@std@@UBEPBDXZ	; std::_System_error_category::name
PUBLIC	?message@_System_error_category@std@@UBE?AV?$basic_string@DU?$char_traits@D@std@@V?$allocator@D@2@@2@H@Z ; std::_System_error_category::message
PUBLIC	?default_error_condition@_System_error_category@std@@UBE?AVerror_condition@2@H@Z ; std::_System_error_category::default_error_condition
PUBLIC	??1_System_error_category@std@@UAE@XZ		; std::_System_error_category::~_System_error_category
PUBLIC	??_G_System_error_category@std@@UAEPAXI@Z	; std::_System_error_category::`scalar deleting destructor'
PUBLIC	?Name@LogBookData@@QAEPADXZ			; LogBookData::Name
PUBLIC	?SetSwitch@SimMoverClass@@QAEXHH@Z		; SimMoverClass::SetSwitch
PUBLIC	?GetSwitch@SimMoverClass@@QAEHH@Z		; SimMoverClass::GetSwitch
PUBLIC	?IsAcStatusBitsSet@AircraftClass@@QBE_NH@Z	; AircraftClass::IsAcStatusBitsSet
PUBLIC	?AutopilotType@AircraftClass@@QAE?AW4AutoPilotType@1@XZ ; AircraftClass::AutopilotType
PUBLIC	?IsF16@AircraftClass@@QAEHXZ			; AircraftClass::IsF16
PUBLIC	?IsComplex@AircraftClass@@QAEHXZ		; AircraftClass::IsComplex
PUBLIC	?DBrain@AircraftClass@@QAEPAVDigitalBrain@@XZ	; AircraftClass::DBrain
PUBLIC	?GetPlayerEntity@SimulationDriver@@QBEPAVSimMoverClass@@XZ ; SimulationDriver::GetPlayerEntity
PUBLIC	?NumHardpoints@SMSBaseClass@@QAEHXZ		; SMSBaseClass::NumHardpoints
PUBLIC	?IsRecording@ACMIRecorder@@QAEHXZ		; ACMIRecorder::IsRecording
PUBLIC	??$construct@PADAAPAD@?$_Wrap_alloc@V?$allocator@D@std@@@std@@QAEXPAPADAAPAD@Z ; std::_Wrap_alloc<std::allocator<char> >::construct<char *,char * &>
PUBLIC	??$destroy@PAD@?$_Wrap_alloc@V?$allocator@D@std@@@std@@QAEXPAPAD@Z ; std::_Wrap_alloc<std::allocator<char> >::destroy<char *>
PUBLIC	??$addressof@D@std@@YAPADAAD@Z			; std::addressof<char>
PUBLIC	??$_Allocate@D@std@@YAPADIPAD@Z			; std::_Allocate<char>
PUBLIC	??$forward@AAPAD@std@@YAAAPADAAPAD@Z		; std::forward<char * &>
PUBLIC	??$construct@PADAAPAD@?$allocator_traits@V?$allocator@D@std@@@std@@SAXAAV?$allocator@D@1@PAPADAAPAD@Z ; std::allocator_traits<std::allocator<char> >::construct<char *,char * &>
PUBLIC	??$destroy@PAD@?$allocator_traits@V?$allocator@D@std@@@std@@SAXAAV?$allocator@D@1@PAPAD@Z ; std::allocator_traits<std::allocator<char> >::destroy<char *>
PUBLIC	??$construct@PADAAPAD@?$allocator@D@std@@QAEXPAPADAAPAD@Z ; std::allocator<char>::construct<char *,char * &>
PUBLIC	??$destroy@PAD@?$allocator@D@std@@QAEXPAPAD@Z	; std::allocator<char>::destroy<char *>
PUBLIC	??_7error_category@std@@6B@			; std::error_category::`vftable'
PUBLIC	??_7_Generic_error_category@std@@6B@		; std::_Generic_error_category::`vftable'
PUBLIC	??_C@_07DCLBNMLN@generic?$AA@			; `string'
PUBLIC	??_C@_0O@BFJCFAAK@unknown?5error?$AA@		; `string'
PUBLIC	??_7_Iostream_error_category@std@@6B@		; std::_Iostream_error_category::`vftable'
PUBLIC	??_C@_08LLGCOLLL@iostream?$AA@			; `string'
PUBLIC	??_C@_0BG@PADBLCHM@iostream?5stream?5error?$AA@	; `string'
PUBLIC	??_7_System_error_category@std@@6B@		; std::_System_error_category::`vftable'
PUBLIC	??_C@_06FHFOAHML@system?$AA@			; `string'
PUBLIC	?_Generic_object@?$_Error_objects@H@std@@2V_Generic_error_category@2@A ; std::_Error_objects<int>::_Generic_object
PUBLIC	?_Iostream_object@?$_Error_objects@H@std@@2V_Iostream_error_category@2@A ; std::_Error_objects<int>::_Iostream_object
PUBLIC	?_System_object@?$_Error_objects@H@std@@2V_System_error_category@2@A ; std::_Error_objects<int>::_System_object
PUBLIC	?id@?$num_put@DV?$back_insert_iterator@V?$basic_string@DU?$char_traits@D@std@@V?$allocator@D@2@@std@@@std@@@std@@2V0locale@2@A ; std::num_put<char,std::back_insert_iterator<std::basic_string<char,std::char_traits<char>,std::allocator<char> > > >::id
PUBLIC	?id@?$num_put@_WV?$back_insert_iterator@V?$basic_string@_WU?$char_traits@_W@std@@V?$allocator@_W@2@@std@@@std@@@std@@2V0locale@2@A ; std::num_put<wchar_t,std::back_insert_iterator<std::basic_string<wchar_t,std::char_traits<wchar_t>,std::allocator<wchar_t> > > >::id
PUBLIC	??_C@_0CO@IOOKMDAN@Unknown?5airframe?5index?5?$CFd?0?5using@ ; `string'
PUBLIC	??_C@_08NKCODECN@mrsteed0?$AA@			; `string'
PUBLIC	??_C@_08MDDFAFGM@mrsteed1?$AA@			; `string'
PUBLIC	??_C@_08OIBIFGKP@mrsteed2?$AA@			; `string'
PUBLIC	??_C@_0BL@PCECMIL@RemoveWeapon?5W?$CFf?5DI?$CFf?0?5O?$CFf?$AA@ ; `string'
PUBLIC	?id@?$numpunct@D@std@@2V0locale@2@A		; std::numpunct<char>::id
PUBLIC	?id@?$numpunct@_W@std@@2V0locale@2@A		; std::numpunct<wchar_t>::id
PUBLIC	??_C@_0BI@CFPLBAOH@invalid?5string?5position?$AA@ ; `string'
PUBLIC	??_C@_0BA@JFNIOLAK@string?5too?5long?$AA@	; `string'
PUBLIC	??_R4error_category@std@@6B@			; std::error_category::`RTTI Complete Object Locator'
PUBLIC	??_R0?AVerror_category@std@@@8			; std::error_category `RTTI Type Descriptor'
PUBLIC	??_R3error_category@std@@8			; std::error_category::`RTTI Class Hierarchy Descriptor'
PUBLIC	??_R2error_category@std@@8			; std::error_category::`RTTI Base Class Array'
PUBLIC	??_R1A@?0A@EA@error_category@std@@8		; std::error_category::`RTTI Base Class Descriptor at (0,-1,0,64)'
PUBLIC	??_R4_Generic_error_category@std@@6B@		; std::_Generic_error_category::`RTTI Complete Object Locator'
PUBLIC	??_R0?AV_Generic_error_category@std@@@8		; std::_Generic_error_category `RTTI Type Descriptor'
PUBLIC	??_R3_Generic_error_category@std@@8		; std::_Generic_error_category::`RTTI Class Hierarchy Descriptor'
PUBLIC	??_R2_Generic_error_category@std@@8		; std::_Generic_error_category::`RTTI Base Class Array'
PUBLIC	??_R1A@?0A@EA@_Generic_error_category@std@@8	; std::_Generic_error_category::`RTTI Base Class Descriptor at (0,-1,0,64)'
PUBLIC	??_R4_Iostream_error_category@std@@6B@		; std::_Iostream_error_category::`RTTI Complete Object Locator'
PUBLIC	??_R0?AV_Iostream_error_category@std@@@8	; std::_Iostream_error_category `RTTI Type Descriptor'
PUBLIC	??_R3_Iostream_error_category@std@@8		; std::_Iostream_error_category::`RTTI Class Hierarchy Descriptor'
PUBLIC	??_R2_Iostream_error_category@std@@8		; std::_Iostream_error_category::`RTTI Base Class Array'
PUBLIC	??_R1A@?0A@EA@_Iostream_error_category@std@@8	; std::_Iostream_error_category::`RTTI Base Class Descriptor at (0,-1,0,64)'
PUBLIC	??_R4_System_error_category@std@@6B@		; std::_System_error_category::`RTTI Complete Object Locator'
PUBLIC	??_R0?AV_System_error_category@std@@@8		; std::_System_error_category `RTTI Type Descriptor'
PUBLIC	??_R3_System_error_category@std@@8		; std::_System_error_category::`RTTI Class Hierarchy Descriptor'
PUBLIC	??_R2_System_error_category@std@@8		; std::_System_error_category::`RTTI Base Class Array'
PUBLIC	??_R1A@?0A@EA@_System_error_category@std@@8	; std::_System_error_category::`RTTI Base Class Descriptor at (0,-1,0,64)'
PUBLIC	__real@00000000
PUBLIC	__real@0000000000000000
PUBLIC	__real@3a03126f
PUBLIC	__real@3a83126f
PUBLIC	__real@3b03126f
PUBLIC	__real@3c8efa34
PUBLIC	__real@3ca3d70a
PUBLIC	__real@3d4ccccd
PUBLIC	__real@3d99999a
PUBLIC	__real@3d9db22d
PUBLIC	__real@3da3d70a
PUBLIC	__real@3e4ccccd
PUBLIC	__real@3e800000
PUBLIC	__real@3e99999a
PUBLIC	__real@3eaf1aa0
PUBLIC	__real@3ecccccd
PUBLIC	__real@3f000000
PUBLIC	__real@3f17ac60
PUBLIC	__real@3f19999a
PUBLIC	__real@3f400000
PUBLIC	__real@3f51eb85
PUBLIC	__real@3f59999a
PUBLIC	__real@3f666666
PUBLIC	__real@3f7d70a4
PUBLIC	__real@3f800000
PUBLIC	__real@3f866666
PUBLIC	__real@3f8ccccd
PUBLIC	__real@3f99999a
PUBLIC	__real@3fa66666
PUBLIC	__real@3fb999999999999a
PUBLIC	__real@3fc00000
PUBLIC	__real@3fd80b03
PUBLIC	__real@3fe69fbe76c8b439
PUBLIC	__real@3ff0cccccccccccd
PUBLIC	__real@3ff1c433
PUBLIC	__real@3ff921fb54442d18
PUBLIC	__real@40000000
PUBLIC	__real@400921fb54442d18
PUBLIC	__real@40400000
PUBLIC	__real@40533333
PUBLIC	__real@40a00000
PUBLIC	__real@40d55555
PUBLIC	__real@41100000
PUBLIC	__real@41200000
PUBLIC	__real@41700000
PUBLIC	__real@41880000
PUBLIC	__real@41900000
PUBLIC	__real@41a00000
PUBLIC	__real@41b1c71c
PUBLIC	__real@41f00000
PUBLIC	__real@41f80000
PUBLIC	__real@4200b53f
PUBLIC	__real@42055555
PUBLIC	__real@42200000
PUBLIC	__real@42340000
PUBLIC	__real@42652ee1
PUBLIC	__real@42700000
PUBLIC	__real@4280b53f
PUBLIC	__real@42c80000
PUBLIC	__real@430706e2
PUBLIC	__real@43340000
PUBLIC	__real@43480000
PUBLIC	__real@43700000
PUBLIC	__real@437a0000
PUBLIC	__real@43fd2ce8
PUBLIC	__real@447a0000
PUBLIC	__real@448b8e14
PUBLIC	__real@44960000
PUBLIC	__real@458ca000
PUBLIC	__real@45cb2000
PUBLIC	__real@46fffe00
PUBLIC	__real@4adbba00
PUBLIC	__real@8000000000000000
PUBLIC	__real@bf441b76
PUBLIC	__real@bf800000
PUBLIC	__real@bff921fb54442d18
PUBLIC	__real@c1200000
PUBLIC	__real@c1300000
PUBLIC	__real@c1600000
PUBLIC	__real@c1f00000
PUBLIC	__real@c2200000
PUBLIC	__xmm@41f00000000000000000000000000000
PUBLIC	__xmm@80000000800000008000000080000000
EXTRN	??_M@YGXPAXIHP6EX0@Z@Z:PROC			; `eh vector destructor iterator'
EXTRN	__purecall:PROC
EXTRN	??2@YAPAXI@Z:PROC				; operator new
EXTRN	??3@YAXPAX@Z:PROC				; operator delete
EXTRN	_atexit:PROC
EXTRN	_atan:PROC
EXTRN	_fabs:PROC
EXTRN	_rand:PROC
EXTRN	_memcpy:PROC
EXTRN	_memset:PROC
EXTRN	_strlen:PROC
EXTRN	_memmove:PROC
EXTRN	_stricmp:PROC
EXTRN	_MonoPrint:PROC
EXTRN	?SetPosition@VuEntity@@QAEXMMM@Z:PROC		; VuEntity::SetPosition
EXTRN	??_V@YAXPAX@Z:PROC				; operator delete[]
EXTRN	?_Xbad_alloc@std@@YAXXZ:PROC			; std::_Xbad_alloc
EXTRN	?_Xlength_error@std@@YAXPBD@Z:PROC		; std::_Xlength_error
EXTRN	?_Xout_of_range@std@@YAXPBD@Z:PROC		; std::_Xout_of_range
EXTRN	?TwodInterp@SIMLIB_MATH_CLASS@@QAEMMMPBM00HHPAH1@Z:PROC ; SIMLIB_MATH_CLASS::TwodInterp
EXTRN	?Sfx@F4SoundPos@@QAEXHHMM@Z:PROC		; F4SoundPos::Sfx
EXTRN	?ReadData@AirframeClass@@AAEHH@Z:PROC		; AirframeClass::ReadData
EXTRN	?Accelerometers@AirframeClass@@AAEXXZ:PROC	; AirframeClass::Accelerometers
EXTRN	?Aerodynamics@AirframeClass@@AAEXXZ:PROC	; AirframeClass::Aerodynamics
EXTRN	?AeroRead@AirframeClass@@AAEXH@Z:PROC		; AirframeClass::AeroRead
EXTRN	?AuxAeroRead@AirframeClass@@AAEXH@Z:PROC	; AirframeClass::AuxAeroRead
EXTRN	?Atmosphere@AirframeClass@@AAEXXZ:PROC		; AirframeClass::Atmosphere
EXTRN	?Axial@AirframeClass@@AAEXM@Z:PROC		; AirframeClass::Axial
EXTRN	?EngineRead@AirframeClass@@AAEXH@Z:PROC		; AirframeClass::EngineRead
EXTRN	?EquationsOfMotion@AirframeClass@@AAEXM@Z:PROC	; AirframeClass::EquationsOfMotion
EXTRN	?FcsRead@AirframeClass@@AAEXH@Z:PROC		; AirframeClass::FcsRead
EXTRN	?FlightControlSystem@AirframeClass@@AAEXXZ:PROC	; AirframeClass::FlightControlSystem
EXTRN	?Gains@AirframeClass@@AAEXXZ:PROC		; AirframeClass::Gains
EXTRN	?Initialize@AirframeClass@@AAEXXZ:PROC		; AirframeClass::Initialize
EXTRN	?ReInitialize@AirframeClass@@AAEXXZ:PROC	; AirframeClass::ReInitialize
EXTRN	?TrimModel@AirframeClass@@AAEXXZ:PROC		; AirframeClass::TrimModel
EXTRN	?CalculateGroundPlane@AirframeClass@@ABEXPAM0@Z:PROC ; AirframeClass::CalculateGroundPlane
EXTRN	?RunLandingGear@AirframeClass@@AAEXXZ:PROC	; AirframeClass::RunLandingGear
EXTRN	?EngineModel@AirframeClass@@QAEXM@Z:PROC	; AirframeClass::EngineModel
EXTRN	?MultiEngineModel@AirframeClass@@QAEXM@Z:PROC	; AirframeClass::MultiEngineModel
EXTRN	?HydrBreak@AirframeClass@@QAEXH@Z:PROC		; AirframeClass::HydrBreak
EXTRN	?ResetOrientation@AirframeClass@@QAEXXZ:PROC	; AirframeClass::ResetOrientation
EXTRN	?CheckHeight@AirframeClass@@QBEMXZ:PROC		; AirframeClass::CheckHeight
EXTRN	?CalcMuFric@AirframeClass@@QAEMH@Z:PROC		; AirframeClass::CalcMuFric
EXTRN	?ClearFuel@AirframeClass@@QAEXXZ:PROC		; AirframeClass::ClearFuel
EXTRN	?AllocateFuel@AirframeClass@@QAEXM@Z:PROC	; AirframeClass::AllocateFuel
EXTRN	?SimpleModel@AirframeClass@@QAEXXZ:PROC		; AirframeClass::SimpleModel
EXTRN	??0HeliMMClass@@QAE@PAVSimBaseClass@@H@Z:PROC	; HeliMMClass::HeliMMClass
EXTRN	??1HeliMMClass@@QAE@XZ:PROC			; HeliMMClass::~HeliMMClass
EXTRN	?Exec@HeliMMClass@@QAEXXZ:PROC			; HeliMMClass::Exec
EXTRN	?Init@HeliMMClass@@QAEXMMM@Z:PROC		; HeliMMClass::Init
EXTRN	?SetControls@HeliMMClass@@QAEXMMMM@Z:PROC	; HeliMMClass::SetControls
EXTRN	??_Eerror_category@std@@UAEPAXI@Z:PROC		; std::error_category::`vector deleting destructor'
EXTRN	?_Syserror_map@std@@YAPBDH@Z:PROC		; std::_Syserror_map
EXTRN	?_Winerror_map@std@@YAPBDH@Z:PROC		; std::_Winerror_map
EXTRN	??_E_Generic_error_category@std@@UAEPAXI@Z:PROC	; std::_Generic_error_category::`vector deleting destructor'
EXTRN	??_E_Iostream_error_category@std@@UAEPAXI@Z:PROC ; std::_Iostream_error_category::`vector deleting destructor'
EXTRN	??_E_System_error_category@std@@UAEPAXI@Z:PROC	; std::_System_error_category::`vector deleting destructor'
EXTRN	?GetGroundLevel@OTWDriverClass@@QAEMMMPAUTpoint@@@Z:PROC ; OTWDriverClass::GetGroundLevel
EXTRN	?GetGroundType@OTWDriverClass@@QAEHMM@Z:PROC	; OTWDriverClass::GetGroundType
EXTRN	?GetMEA@TMap@@QAEMMM@Z:PROC			; TMap::GetMEA
EXTRN	?ClearAcStatusBits@AircraftClass@@QAEXH@Z:PROC	; AircraftClass::ClearAcStatusBits
EXTRN	?MoveSurfaces@AircraftClass@@QAEXXZ:PROC	; AircraftClass::MoveSurfaces
EXTRN	?GetPlayerAircraft@SimulationDriver@@QBEPAVAircraftClass@@XZ:PROC ; SimulationDriver::GetPlayerAircraft
EXTRN	?CheckLead@DigitalBrain@@QAEXXZ:PROC		; DigitalBrain::CheckLead
EXTRN	?UpdateTaxipoint@DigitalBrain@@QAEXXZ:PROC	; DigitalBrain::UpdateTaxipoint
EXTRN	?ClearFault@FackClass@@QAEXW4type_CSubSystem@@@Z:PROC ; FackClass::ClearFault
EXTRN	?GetFault@FackClass@@QAEHW4type_CSubSystem@@@Z:PROC ; FackClass::GetFault
EXTRN	?RandomFailure@FackClass@@QAEXXZ:PROC		; FackClass::RandomFailure
EXTRN	?SetCaution@FackClass@@QAEXW4type_CSubSystem@@@Z:PROC ; FackClass::SetCaution
EXTRN	?SwitchRecord@ACMIRecorder@@QAEXPAUACMISwitchRecord@@@Z:PROC ; ACMIRecorder::SwitchRecord
EXTRN	?get_air_speed@@YAMMH@Z:PROC			; get_air_speed
EXTRN	@__security_check_cookie@4:PROC
EXTRN	__CxxThrowException@8:PROC
EXTRN	___CxxFrameHandler3:PROC
EXTRN	?vuxGameTime@@3KA:DWORD				; vuxGameTime
EXTRN	?SimLibMinorFrameTime@@3MA:DWORD		; SimLibMinorFrameTime
EXTRN	?SimLibMajorFrameTime@@3MA:DWORD		; SimLibMajorFrameTime
EXTRN	?SimLibElapsedTime@@3KA:DWORD			; SimLibElapsedTime
EXTRN	?SimLibMinorPerMajor@@3HA:DWORD			; SimLibMinorPerMajor
EXTRN	?Math@@3VSIMLIB_MATH_CLASS@@A:BYTE		; Math
EXTRN	?aeroDataset@@3PAVAeroDataSet@@A:DWORD		; aeroDataset
EXTRN	??_7type_info@@6B@:QWORD			; type_info::`vftable'
EXTRN	?LogBook@@3VLogBookData@@A:BYTE			; LogBook
EXTRN	?OTWDriver@@3VOTWDriverClass@@A:BYTE		; OTWDriver
EXTRN	?TheMap@@3VTMap@@A:BYTE				; TheMap
EXTRN	?WeaponDataTable@@3PAUWeaponClassDataType@@A:DWORD ; WeaponDataTable
EXTRN	?SimDriver@@3VSimulationDriver@@A:BYTE		; SimDriver
EXTRN	?g_bRealisticAvionics@@3_NA:BYTE		; g_bRealisticAvionics
EXTRN	?gACMIRec@@3VACMIRecorder@@A:BYTE		; gACMIRec
EXTRN	?acmiSwitch@@3UACMISwitchRecord@@A:BYTE		; acmiSwitch
EXTRN	?g_bCATIIIDefault@@3_NA:BYTE			; g_bCATIIIDefault
EXTRN	?g_fRecoveryAOA@@3MA:DWORD			; g_fRecoveryAOA
EXTRN	?gFuelState@@3KA:DWORD				; gFuelState
EXTRN	?g_fMeanTimeBetweenFailures@@3MA:DWORD		; g_fMeanTimeBetweenFailures
EXTRN	?g_bEnableRandomFailures@@3_NA:BYTE		; g_bEnableRandomFailures
EXTRN	?cockpitFlightData@@3VFlightData@@A:BYTE	; cockpitFlightData
EXTRN	___security_cookie:DWORD
EXTRN	__fltused:DWORD
_BSS	SEGMENT
_piecewise_construct DB 01H DUP (?)
_allocator_arg DB 01H DUP (?)
_BSS	ENDS
;	COMDAT ?_Generic_object@?$_Error_objects@H@std@@2V_Generic_error_category@2@A
_BSS	SEGMENT
?_Generic_object@?$_Error_objects@H@std@@2V_Generic_error_category@2@A DD 01H DUP (?) ; std::_Error_objects<int>::_Generic_object
_BSS	ENDS
;	COMDAT ?_Iostream_object@?$_Error_objects@H@std@@2V_Iostream_error_category@2@A
_BSS	SEGMENT
?_Iostream_object@?$_Error_objects@H@std@@2V_Iostream_error_category@2@A DD 01H DUP (?) ; std::_Error_objects<int>::_Iostream_object
_BSS	ENDS
;	COMDAT ?_System_object@?$_Error_objects@H@std@@2V_System_error_category@2@A
_BSS	SEGMENT
?_System_object@?$_Error_objects@H@std@@2V_System_error_category@2@A DD 01H DUP (?) ; std::_Error_objects<int>::_System_object
_BSS	ENDS
;	COMDAT ?id@?$num_put@DV?$back_insert_iterator@V?$basic_string@DU?$char_traits@D@std@@V?$allocator@D@2@@std@@@std@@@std@@2V0locale@2@A
_BSS	SEGMENT
?id@?$num_put@DV?$back_insert_iterator@V?$basic_string@DU?$char_traits@D@std@@V?$allocator@D@2@@std@@@std@@@std@@2V0locale@2@A DD 01H DUP (?) ; std::num_put<char,std::back_insert_iterator<std::basic_string<char,std::char_traits<char>,std::allocator<char> > > >::id
_BSS	ENDS
;	COMDAT ?id@?$num_put@_WV?$back_insert_iterator@V?$basic_string@_WU?$char_traits@_W@std@@V?$allocator@_W@2@@std@@@std@@@std@@2V0locale@2@A
_BSS	SEGMENT
?id@?$num_put@_WV?$back_insert_iterator@V?$basic_string@_WU?$char_traits@_W@std@@V?$allocator@_W@2@@std@@@std@@@std@@2V0locale@2@A DD 01H DUP (?) ; std::num_put<wchar_t,std::back_insert_iterator<std::basic_string<wchar_t,std::char_traits<wchar_t>,std::allocator<wchar_t> > > >::id
_BSS	ENDS
;	COMDAT ?id@?$numpunct@D@std@@2V0locale@2@A
_BSS	SEGMENT
?id@?$numpunct@D@std@@2V0locale@2@A DD 01H DUP (?)	; std::numpunct<char>::id
_BSS	ENDS
;	COMDAT ?id@?$numpunct@_W@std@@2V0locale@2@A
_BSS	SEGMENT
?id@?$numpunct@_W@std@@2V0locale@2@A DD 01H DUP (?)	; std::numpunct<wchar_t>::id
_BSS	ENDS
CRT$XCU	SEGMENT
_piecewise_construct$initializer$ DD FLAT:??__Epiecewise_construct@std@@YAXXZ
CRT$XCU	ENDS
;	COMDAT __xmm@80000000800000008000000080000000
CONST	SEGMENT
__xmm@80000000800000008000000080000000 DB 00H, 00H, 00H, 080H, 00H, 00H, 00H
	DB	080H, 00H, 00H, 00H, 080H, 00H, 00H, 00H, 080H
CONST	ENDS
;	COMDAT __xmm@41f00000000000000000000000000000
CONST	SEGMENT
__xmm@41f00000000000000000000000000000 DB 00H, 00H, 00H, 00H, 00H, 00H, 00H
	DB	00H, 00H, 00H, 00H, 00H, 00H, 00H, 0f0H, 'A'
CONST	ENDS
;	COMDAT __real@c2200000
CONST	SEGMENT
__real@c2200000 DD 0c2200000r			; -40
CONST	ENDS
;	COMDAT __real@c1f00000
CONST	SEGMENT
__real@c1f00000 DD 0c1f00000r			; -30
CONST	ENDS
;	COMDAT __real@c1600000
CONST	SEGMENT
__real@c1600000 DD 0c1600000r			; -14
CONST	ENDS
;	COMDAT __real@c1300000
CONST	SEGMENT
__real@c1300000 DD 0c1300000r			; -11
CONST	ENDS
;	COMDAT __real@c1200000
CONST	SEGMENT
__real@c1200000 DD 0c1200000r			; -10
CONST	ENDS
;	COMDAT __real@bff921fb54442d18
CONST	SEGMENT
__real@bff921fb54442d18 DQ 0bff921fb54442d18r	; -1.5708
CONST	ENDS
;	COMDAT __real@bf800000
CONST	SEGMENT
__real@bf800000 DD 0bf800000r			; -1
CONST	ENDS
;	COMDAT __real@bf441b76
CONST	SEGMENT
__real@bf441b76 DD 0bf441b76r			; -0.766044
CONST	ENDS
;	COMDAT __real@8000000000000000
CONST	SEGMENT
__real@8000000000000000 DQ 08000000000000000r	; -0
CONST	ENDS
;	COMDAT __real@4adbba00
CONST	SEGMENT
__real@4adbba00 DD 04adbba00r			; 7.2e+006
CONST	ENDS
;	COMDAT __real@46fffe00
CONST	SEGMENT
__real@46fffe00 DD 046fffe00r			; 32767
CONST	ENDS
;	COMDAT __real@45cb2000
CONST	SEGMENT
__real@45cb2000 DD 045cb2000r			; 6500
CONST	ENDS
;	COMDAT __real@458ca000
CONST	SEGMENT
__real@458ca000 DD 0458ca000r			; 4500
CONST	ENDS
;	COMDAT __real@44960000
CONST	SEGMENT
__real@44960000 DD 044960000r			; 1200
CONST	ENDS
;	COMDAT __real@448b8e14
CONST	SEGMENT
__real@448b8e14 DD 0448b8e14r			; 1116.44
CONST	ENDS
;	COMDAT __real@447a0000
CONST	SEGMENT
__real@447a0000 DD 0447a0000r			; 1000
CONST	ENDS
;	COMDAT __real@43fd2ce8
CONST	SEGMENT
__real@43fd2ce8 DD 043fd2ce8r			; 506.351
CONST	ENDS
;	COMDAT __real@437a0000
CONST	SEGMENT
__real@437a0000 DD 0437a0000r			; 250
CONST	ENDS
;	COMDAT __real@43700000
CONST	SEGMENT
__real@43700000 DD 043700000r			; 240
CONST	ENDS
;	COMDAT __real@43480000
CONST	SEGMENT
__real@43480000 DD 043480000r			; 200
CONST	ENDS
;	COMDAT __real@43340000
CONST	SEGMENT
__real@43340000 DD 043340000r			; 180
CONST	ENDS
;	COMDAT __real@430706e2
CONST	SEGMENT
__real@430706e2 DD 0430706e2r			; 135.027
CONST	ENDS
;	COMDAT __real@42c80000
CONST	SEGMENT
__real@42c80000 DD 042c80000r			; 100
CONST	ENDS
;	COMDAT __real@4280b53f
CONST	SEGMENT
__real@4280b53f DD 04280b53fr			; 64.354
CONST	ENDS
;	COMDAT __real@42700000
CONST	SEGMENT
__real@42700000 DD 042700000r			; 60
CONST	ENDS
;	COMDAT __real@42652ee1
CONST	SEGMENT
__real@42652ee1 DD 042652ee1r			; 57.2958
CONST	ENDS
;	COMDAT __real@42340000
CONST	SEGMENT
__real@42340000 DD 042340000r			; 45
CONST	ENDS
;	COMDAT __real@42200000
CONST	SEGMENT
__real@42200000 DD 042200000r			; 40
CONST	ENDS
;	COMDAT __real@42055555
CONST	SEGMENT
__real@42055555 DD 042055555r			; 33.3333
CONST	ENDS
;	COMDAT __real@4200b53f
CONST	SEGMENT
__real@4200b53f DD 04200b53fr			; 32.177
CONST	ENDS
;	COMDAT __real@41f80000
CONST	SEGMENT
__real@41f80000 DD 041f80000r			; 31
CONST	ENDS
;	COMDAT __real@41f00000
CONST	SEGMENT
__real@41f00000 DD 041f00000r			; 30
CONST	ENDS
;	COMDAT __real@41b1c71c
CONST	SEGMENT
__real@41b1c71c DD 041b1c71cr			; 22.2222
CONST	ENDS
;	COMDAT __real@41a00000
CONST	SEGMENT
__real@41a00000 DD 041a00000r			; 20
CONST	ENDS
;	COMDAT __real@41900000
CONST	SEGMENT
__real@41900000 DD 041900000r			; 18
CONST	ENDS
;	COMDAT __real@41880000
CONST	SEGMENT
__real@41880000 DD 041880000r			; 17
CONST	ENDS
;	COMDAT __real@41700000
CONST	SEGMENT
__real@41700000 DD 041700000r			; 15
CONST	ENDS
;	COMDAT __real@41200000
CONST	SEGMENT
__real@41200000 DD 041200000r			; 10
CONST	ENDS
;	COMDAT __real@41100000
CONST	SEGMENT
__real@41100000 DD 041100000r			; 9
CONST	ENDS
;	COMDAT __real@40d55555
CONST	SEGMENT
__real@40d55555 DD 040d55555r			; 6.66667
CONST	ENDS
;	COMDAT __real@40a00000
CONST	SEGMENT
__real@40a00000 DD 040a00000r			; 5
CONST	ENDS
;	COMDAT __real@40533333
CONST	SEGMENT
__real@40533333 DD 040533333r			; 3.3
CONST	ENDS
;	COMDAT __real@40400000
CONST	SEGMENT
__real@40400000 DD 040400000r			; 3
CONST	ENDS
;	COMDAT __real@400921fb54442d18
CONST	SEGMENT
__real@400921fb54442d18 DQ 0400921fb54442d18r	; 3.14159
CONST	ENDS
;	COMDAT __real@40000000
CONST	SEGMENT
__real@40000000 DD 040000000r			; 2
CONST	ENDS
;	COMDAT __real@3ff921fb54442d18
CONST	SEGMENT
__real@3ff921fb54442d18 DQ 03ff921fb54442d18r	; 1.5708
CONST	ENDS
;	COMDAT __real@3ff1c433
CONST	SEGMENT
__real@3ff1c433 DD 03ff1c433r			; 1.8888
CONST	ENDS
;	COMDAT __real@3ff0cccccccccccd
CONST	SEGMENT
__real@3ff0cccccccccccd DQ 03ff0cccccccccccdr	; 1.05
CONST	ENDS
;	COMDAT __real@3fe69fbe76c8b439
CONST	SEGMENT
__real@3fe69fbe76c8b439 DQ 03fe69fbe76c8b439r	; 0.707
CONST	ENDS
;	COMDAT __real@3fd80b03
CONST	SEGMENT
__real@3fd80b03 DD 03fd80b03r			; 1.68784
CONST	ENDS
;	COMDAT __real@3fc00000
CONST	SEGMENT
__real@3fc00000 DD 03fc00000r			; 1.5
CONST	ENDS
;	COMDAT __real@3fb999999999999a
CONST	SEGMENT
__real@3fb999999999999a DQ 03fb999999999999ar	; 0.1
CONST	ENDS
;	COMDAT __real@3fa66666
CONST	SEGMENT
__real@3fa66666 DD 03fa66666r			; 1.3
CONST	ENDS
;	COMDAT __real@3f99999a
CONST	SEGMENT
__real@3f99999a DD 03f99999ar			; 1.2
CONST	ENDS
;	COMDAT __real@3f8ccccd
CONST	SEGMENT
__real@3f8ccccd DD 03f8ccccdr			; 1.1
CONST	ENDS
;	COMDAT __real@3f866666
CONST	SEGMENT
__real@3f866666 DD 03f866666r			; 1.05
CONST	ENDS
;	COMDAT __real@3f800000
CONST	SEGMENT
__real@3f800000 DD 03f800000r			; 1
CONST	ENDS
;	COMDAT __real@3f7d70a4
CONST	SEGMENT
__real@3f7d70a4 DD 03f7d70a4r			; 0.99
CONST	ENDS
;	COMDAT __real@3f666666
CONST	SEGMENT
__real@3f666666 DD 03f666666r			; 0.9
CONST	ENDS
;	COMDAT __real@3f59999a
CONST	SEGMENT
__real@3f59999a DD 03f59999ar			; 0.85
CONST	ENDS
;	COMDAT __real@3f51eb85
CONST	SEGMENT
__real@3f51eb85 DD 03f51eb85r			; 0.82
CONST	ENDS
;	COMDAT __real@3f400000
CONST	SEGMENT
__real@3f400000 DD 03f400000r			; 0.75
CONST	ENDS
;	COMDAT __real@3f19999a
CONST	SEGMENT
__real@3f19999a DD 03f19999ar			; 0.6
CONST	ENDS
;	COMDAT __real@3f17ac60
CONST	SEGMENT
__real@3f17ac60 DD 03f17ac60r			; 0.592474
CONST	ENDS
;	COMDAT __real@3f000000
CONST	SEGMENT
__real@3f000000 DD 03f000000r			; 0.5
CONST	ENDS
;	COMDAT __real@3ecccccd
CONST	SEGMENT
__real@3ecccccd DD 03ecccccdr			; 0.4
CONST	ENDS
;	COMDAT __real@3eaf1aa0
CONST	SEGMENT
__real@3eaf1aa0 DD 03eaf1aa0r			; 0.342
CONST	ENDS
;	COMDAT __real@3e99999a
CONST	SEGMENT
__real@3e99999a DD 03e99999ar			; 0.3
CONST	ENDS
;	COMDAT __real@3e800000
CONST	SEGMENT
__real@3e800000 DD 03e800000r			; 0.25
CONST	ENDS
;	COMDAT __real@3e4ccccd
CONST	SEGMENT
__real@3e4ccccd DD 03e4ccccdr			; 0.2
CONST	ENDS
;	COMDAT __real@3da3d70a
CONST	SEGMENT
__real@3da3d70a DD 03da3d70ar			; 0.08
CONST	ENDS
;	COMDAT __real@3d9db22d
CONST	SEGMENT
__real@3d9db22d DD 03d9db22dr			; 0.077
CONST	ENDS
;	COMDAT __real@3d99999a
CONST	SEGMENT
__real@3d99999a DD 03d99999ar			; 0.075
CONST	ENDS
;	COMDAT __real@3d4ccccd
CONST	SEGMENT
__real@3d4ccccd DD 03d4ccccdr			; 0.05
CONST	ENDS
;	COMDAT __real@3ca3d70a
CONST	SEGMENT
__real@3ca3d70a DD 03ca3d70ar			; 0.02
CONST	ENDS
;	COMDAT __real@3c8efa34
CONST	SEGMENT
__real@3c8efa34 DD 03c8efa34r			; 0.0174533
CONST	ENDS
;	COMDAT __real@3b03126f
CONST	SEGMENT
__real@3b03126f DD 03b03126fr			; 0.002
CONST	ENDS
;	COMDAT __real@3a83126f
CONST	SEGMENT
__real@3a83126f DD 03a83126fr			; 0.001
CONST	ENDS
;	COMDAT __real@3a03126f
CONST	SEGMENT
__real@3a03126f DD 03a03126fr			; 0.0005
CONST	ENDS
;	COMDAT __real@0000000000000000
CONST	SEGMENT
__real@0000000000000000 DQ 00000000000000000r	; 0
CONST	ENDS
;	COMDAT __real@00000000
CONST	SEGMENT
__real@00000000 DD 000000000r			; 0
CONST	ENDS
;	COMDAT ??_R1A@?0A@EA@_System_error_category@std@@8
rdata$r	SEGMENT
??_R1A@?0A@EA@_System_error_category@std@@8 DD FLAT:??_R0?AV_System_error_category@std@@@8 ; std::_System_error_category::`RTTI Base Class Descriptor at (0,-1,0,64)'
	DD	02H
	DD	00H
	DD	0ffffffffH
	DD	00H
	DD	040H
	DD	FLAT:??_R3_System_error_category@std@@8
rdata$r	ENDS
;	COMDAT ??_R2_System_error_category@std@@8
rdata$r	SEGMENT
??_R2_System_error_category@std@@8 DD FLAT:??_R1A@?0A@EA@_System_error_category@std@@8 ; std::_System_error_category::`RTTI Base Class Array'
	DD	FLAT:??_R1A@?0A@EA@_Generic_error_category@std@@8
	DD	FLAT:??_R1A@?0A@EA@error_category@std@@8
rdata$r	ENDS
;	COMDAT ??_R3_System_error_category@std@@8
rdata$r	SEGMENT
??_R3_System_error_category@std@@8 DD 00H		; std::_System_error_category::`RTTI Class Hierarchy Descriptor'
	DD	00H
	DD	03H
	DD	FLAT:??_R2_System_error_category@std@@8
rdata$r	ENDS
;	COMDAT ??_R0?AV_System_error_category@std@@@8
_DATA	SEGMENT
??_R0?AV_System_error_category@std@@@8 DD FLAT:??_7type_info@@6B@ ; std::_System_error_category `RTTI Type Descriptor'
	DD	00H
	DB	'.?AV_System_error_category@std@@', 00H
_DATA	ENDS
;	COMDAT ??_R4_System_error_category@std@@6B@
rdata$r	SEGMENT
??_R4_System_error_category@std@@6B@ DD 00H		; std::_System_error_category::`RTTI Complete Object Locator'
	DD	00H
	DD	00H
	DD	FLAT:??_R0?AV_System_error_category@std@@@8
	DD	FLAT:??_R3_System_error_category@std@@8
rdata$r	ENDS
;	COMDAT ??_R1A@?0A@EA@_Iostream_error_category@std@@8
rdata$r	SEGMENT
??_R1A@?0A@EA@_Iostream_error_category@std@@8 DD FLAT:??_R0?AV_Iostream_error_category@std@@@8 ; std::_Iostream_error_category::`RTTI Base Class Descriptor at (0,-1,0,64)'
	DD	02H
	DD	00H
	DD	0ffffffffH
	DD	00H
	DD	040H
	DD	FLAT:??_R3_Iostream_error_category@std@@8
rdata$r	ENDS
;	COMDAT ??_R2_Iostream_error_category@std@@8
rdata$r	SEGMENT
??_R2_Iostream_error_category@std@@8 DD FLAT:??_R1A@?0A@EA@_Iostream_error_category@std@@8 ; std::_Iostream_error_category::`RTTI Base Class Array'
	DD	FLAT:??_R1A@?0A@EA@_Generic_error_category@std@@8
	DD	FLAT:??_R1A@?0A@EA@error_category@std@@8
rdata$r	ENDS
;	COMDAT ??_R3_Iostream_error_category@std@@8
rdata$r	SEGMENT
??_R3_Iostream_error_category@std@@8 DD 00H		; std::_Iostream_error_category::`RTTI Class Hierarchy Descriptor'
	DD	00H
	DD	03H
	DD	FLAT:??_R2_Iostream_error_category@std@@8
rdata$r	ENDS
;	COMDAT ??_R0?AV_Iostream_error_category@std@@@8
_DATA	SEGMENT
??_R0?AV_Iostream_error_category@std@@@8 DD FLAT:??_7type_info@@6B@ ; std::_Iostream_error_category `RTTI Type Descriptor'
	DD	00H
	DB	'.?AV_Iostream_error_category@std@@', 00H
_DATA	ENDS
;	COMDAT ??_R4_Iostream_error_category@std@@6B@
rdata$r	SEGMENT
??_R4_Iostream_error_category@std@@6B@ DD 00H		; std::_Iostream_error_category::`RTTI Complete Object Locator'
	DD	00H
	DD	00H
	DD	FLAT:??_R0?AV_Iostream_error_category@std@@@8
	DD	FLAT:??_R3_Iostream_error_category@std@@8
rdata$r	ENDS
;	COMDAT ??_R1A@?0A@EA@_Generic_error_category@std@@8
rdata$r	SEGMENT
??_R1A@?0A@EA@_Generic_error_category@std@@8 DD FLAT:??_R0?AV_Generic_error_category@std@@@8 ; std::_Generic_error_category::`RTTI Base Class Descriptor at (0,-1,0,64)'
	DD	01H
	DD	00H
	DD	0ffffffffH
	DD	00H
	DD	040H
	DD	FLAT:??_R3_Generic_error_category@std@@8
rdata$r	ENDS
;	COMDAT ??_R2_Generic_error_category@std@@8
rdata$r	SEGMENT
??_R2_Generic_error_category@std@@8 DD FLAT:??_R1A@?0A@EA@_Generic_error_category@std@@8 ; std::_Generic_error_category::`RTTI Base Class Array'
	DD	FLAT:??_R1A@?0A@EA@error_category@std@@8
rdata$r	ENDS
;	COMDAT ??_R3_Generic_error_category@std@@8
rdata$r	SEGMENT
??_R3_Generic_error_category@std@@8 DD 00H		; std::_Generic_error_category::`RTTI Class Hierarchy Descriptor'
	DD	00H
	DD	02H
	DD	FLAT:??_R2_Generic_error_category@std@@8
rdata$r	ENDS
;	COMDAT ??_R0?AV_Generic_error_category@std@@@8
_DATA	SEGMENT
??_R0?AV_Generic_error_category@std@@@8 DD FLAT:??_7type_info@@6B@ ; std::_Generic_error_category `RTTI Type Descriptor'
	DD	00H
	DB	'.?AV_Generic_error_category@std@@', 00H
_DATA	ENDS
;	COMDAT ??_R4_Generic_error_category@std@@6B@
rdata$r	SEGMENT
??_R4_Generic_error_category@std@@6B@ DD 00H		; std::_Generic_error_category::`RTTI Complete Object Locator'
	DD	00H
	DD	00H
	DD	FLAT:??_R0?AV_Generic_error_category@std@@@8
	DD	FLAT:??_R3_Generic_error_category@std@@8
rdata$r	ENDS
;	COMDAT ??_R1A@?0A@EA@error_category@std@@8
rdata$r	SEGMENT
??_R1A@?0A@EA@error_category@std@@8 DD FLAT:??_R0?AVerror_category@std@@@8 ; std::error_category::`RTTI Base Class Descriptor at (0,-1,0,64)'
	DD	00H
	DD	00H
	DD	0ffffffffH
	DD	00H
	DD	040H
	DD	FLAT:??_R3error_category@std@@8
rdata$r	ENDS
;	COMDAT ??_R2error_category@std@@8
rdata$r	SEGMENT
??_R2error_category@std@@8 DD FLAT:??_R1A@?0A@EA@error_category@std@@8 ; std::error_category::`RTTI Base Class Array'
rdata$r	ENDS
;	COMDAT ??_R3error_category@std@@8
rdata$r	SEGMENT
??_R3error_category@std@@8 DD 00H			; std::error_category::`RTTI Class Hierarchy Descriptor'
	DD	00H
	DD	01H
	DD	FLAT:??_R2error_category@std@@8
rdata$r	ENDS
;	COMDAT ??_R0?AVerror_category@std@@@8
_DATA	SEGMENT
??_R0?AVerror_category@std@@@8 DD FLAT:??_7type_info@@6B@ ; std::error_category `RTTI Type Descriptor'
	DD	00H
	DB	'.?AVerror_category@std@@', 00H
_DATA	ENDS
;	COMDAT ??_R4error_category@std@@6B@
rdata$r	SEGMENT
??_R4error_category@std@@6B@ DD 00H			; std::error_category::`RTTI Complete Object Locator'
	DD	00H
	DD	00H
	DD	FLAT:??_R0?AVerror_category@std@@@8
	DD	FLAT:??_R3error_category@std@@8
rdata$r	ENDS
;	COMDAT ??_C@_0BA@JFNIOLAK@string?5too?5long?$AA@
CONST	SEGMENT
??_C@_0BA@JFNIOLAK@string?5too?5long?$AA@ DB 'string too long', 00H ; `string'
CONST	ENDS
;	COMDAT ??_C@_0BI@CFPLBAOH@invalid?5string?5position?$AA@
CONST	SEGMENT
??_C@_0BI@CFPLBAOH@invalid?5string?5position?$AA@ DB 'invalid string posi'
	DB	'tion', 00H					; `string'
CONST	ENDS
;	COMDAT ??_C@_0BL@PCECMIL@RemoveWeapon?5W?$CFf?5DI?$CFf?0?5O?$CFf?$AA@
CONST	SEGMENT
??_C@_0BL@PCECMIL@RemoveWeapon?5W?$CFf?5DI?$CFf?0?5O?$CFf?$AA@ DB 'Remove'
	DB	'Weapon W%f DI%f, O%f', 00H			; `string'
CONST	ENDS
;	COMDAT ??_C@_08OIBIFGKP@mrsteed2?$AA@
CONST	SEGMENT
??_C@_08OIBIFGKP@mrsteed2?$AA@ DB 'mrsteed2', 00H	; `string'
CONST	ENDS
;	COMDAT ??_C@_08MDDFAFGM@mrsteed1?$AA@
CONST	SEGMENT
??_C@_08MDDFAFGM@mrsteed1?$AA@ DB 'mrsteed1', 00H	; `string'
CONST	ENDS
;	COMDAT ??_C@_08NKCODECN@mrsteed0?$AA@
CONST	SEGMENT
??_C@_08NKCODECN@mrsteed0?$AA@ DB 'mrsteed0', 00H	; `string'
CONST	ENDS
;	COMDAT ??_C@_0CO@IOOKMDAN@Unknown?5airframe?5index?5?$CFd?0?5using@
CONST	SEGMENT
??_C@_0CO@IOOKMDAN@Unknown?5airframe?5index?5?$CFd?0?5using@ DB 'Unknown '
	DB	'airframe index %d, using F16 instead', 0aH, 00H ; `string'
CONST	ENDS
;	COMDAT ??_C@_06FHFOAHML@system?$AA@
CONST	SEGMENT
??_C@_06FHFOAHML@system?$AA@ DB 'system', 00H		; `string'
CONST	ENDS
;	COMDAT ??_7_System_error_category@std@@6B@
CONST	SEGMENT
??_7_System_error_category@std@@6B@ DD FLAT:??_R4_System_error_category@std@@6B@ ; std::_System_error_category::`vftable'
	DD	FLAT:??_E_System_error_category@std@@UAEPAXI@Z
	DD	FLAT:?name@_System_error_category@std@@UBEPBDXZ
	DD	FLAT:?message@_System_error_category@std@@UBE?AV?$basic_string@DU?$char_traits@D@std@@V?$allocator@D@2@@2@H@Z
	DD	FLAT:?default_error_condition@_System_error_category@std@@UBE?AVerror_condition@2@H@Z
	DD	FLAT:?equivalent@error_category@std@@UBE_NABVerror_code@2@H@Z
	DD	FLAT:?equivalent@error_category@std@@UBE_NHABVerror_condition@2@@Z
CONST	ENDS
;	COMDAT ??_C@_0BG@PADBLCHM@iostream?5stream?5error?$AA@
CONST	SEGMENT
??_C@_0BG@PADBLCHM@iostream?5stream?5error?$AA@ DB 'iostream stream error'
	DB	00H						; `string'
CONST	ENDS
;	COMDAT ??_C@_08LLGCOLLL@iostream?$AA@
CONST	SEGMENT
??_C@_08LLGCOLLL@iostream?$AA@ DB 'iostream', 00H	; `string'
CONST	ENDS
;	COMDAT ??_7_Iostream_error_category@std@@6B@
CONST	SEGMENT
??_7_Iostream_error_category@std@@6B@ DD FLAT:??_R4_Iostream_error_category@std@@6B@ ; std::_Iostream_error_category::`vftable'
	DD	FLAT:??_E_Iostream_error_category@std@@UAEPAXI@Z
	DD	FLAT:?name@_Iostream_error_category@std@@UBEPBDXZ
	DD	FLAT:?message@_Iostream_error_category@std@@UBE?AV?$basic_string@DU?$char_traits@D@std@@V?$allocator@D@2@@2@H@Z
	DD	FLAT:?default_error_condition@error_category@std@@UBE?AVerror_condition@2@H@Z
	DD	FLAT:?equivalent@error_category@std@@UBE_NABVerror_code@2@H@Z
	DD	FLAT:?equivalent@error_category@std@@UBE_NHABVerror_condition@2@@Z
CONST	ENDS
;	COMDAT ??_C@_0O@BFJCFAAK@unknown?5error?$AA@
CONST	SEGMENT
??_C@_0O@BFJCFAAK@unknown?5error?$AA@ DB 'unknown error', 00H ; `string'
CONST	ENDS
;	COMDAT ??_C@_07DCLBNMLN@generic?$AA@
CONST	SEGMENT
??_C@_07DCLBNMLN@generic?$AA@ DB 'generic', 00H		; `string'
CONST	ENDS
;	COMDAT ??_7_Generic_error_category@std@@6B@
CONST	SEGMENT
??_7_Generic_error_category@std@@6B@ DD FLAT:??_R4_Generic_error_category@std@@6B@ ; std::_Generic_error_category::`vftable'
	DD	FLAT:??_E_Generic_error_category@std@@UAEPAXI@Z
	DD	FLAT:?name@_Generic_error_category@std@@UBEPBDXZ
	DD	FLAT:?message@_Generic_error_category@std@@UBE?AV?$basic_string@DU?$char_traits@D@std@@V?$allocator@D@2@@2@H@Z
	DD	FLAT:?default_error_condition@error_category@std@@UBE?AVerror_condition@2@H@Z
	DD	FLAT:?equivalent@error_category@std@@UBE_NABVerror_code@2@H@Z
	DD	FLAT:?equivalent@error_category@std@@UBE_NHABVerror_condition@2@@Z
CONST	ENDS
;	COMDAT ??_7error_category@std@@6B@
CONST	SEGMENT
??_7error_category@std@@6B@ DD FLAT:??_R4error_category@std@@6B@ ; std::error_category::`vftable'
	DD	FLAT:??_Eerror_category@std@@UAEPAXI@Z
	DD	FLAT:__purecall
	DD	FLAT:__purecall
	DD	FLAT:?default_error_condition@error_category@std@@UBE?AVerror_condition@2@H@Z
	DD	FLAT:?equivalent@error_category@std@@UBE_NABVerror_code@2@H@Z
	DD	FLAT:?equivalent@error_category@std@@UBE_NHABVerror_condition@2@@Z
CONST	ENDS
;	COMDAT xdata$x
xdata$x	SEGMENT
__unwindtable$??$construct@PADAAPAD@?$allocator@D@std@@QAEXPAPADAAPAD@Z DD 0ffffffffH
	DD	FLAT:__unwindfunclet$??$construct@PADAAPAD@?$allocator@D@std@@QAEXPAPADAAPAD@Z$0
__ehfuncinfo$??$construct@PADAAPAD@?$allocator@D@std@@QAEXPAPADAAPAD@Z DD 019930522H
	DD	01H
	DD	FLAT:__unwindtable$??$construct@PADAAPAD@?$allocator@D@std@@QAEXPAPADAAPAD@Z
	DD	2 DUP(00H)
	DD	2 DUP(00H)
	DD	00H
	DD	01H
xdata$x	ENDS
xdata$x	SEGMENT
__unwindtable$?Reinit@AirframeClass@@QAEXXZ DD 0ffffffffH
	DD	FLAT:__unwindfunclet$?Reinit@AirframeClass@@QAEXXZ$0
	DD	0ffffffffH
	DD	FLAT:__unwindfunclet$?Reinit@AirframeClass@@QAEXXZ$1
	DD	0ffffffffH
	DD	FLAT:__unwindfunclet$?Reinit@AirframeClass@@QAEXXZ$2
	DD	0ffffffffH
	DD	FLAT:__unwindfunclet$?Reinit@AirframeClass@@QAEXXZ$3
__ehfuncinfo$?Reinit@AirframeClass@@QAEXXZ DD 019930522H
	DD	04H
	DD	FLAT:__unwindtable$?Reinit@AirframeClass@@QAEXXZ
	DD	2 DUP(00H)
	DD	2 DUP(00H)
	DD	00H
	DD	01H
xdata$x	ENDS
;	COMDAT xdata$x
xdata$x	SEGMENT
__catchsym$?_Copy@?$basic_string@DU?$char_traits@D@std@@V?$allocator@D@2@@std@@QAEXII@Z$5 DD 040H
	DD	00H
	DD	00H
	DD	FLAT:__catch$?_Copy@?$basic_string@DU?$char_traits@D@std@@V?$allocator@D@2@@std@@QAEXII@Z$0
__catchsym$?_Copy@?$basic_string@DU?$char_traits@D@std@@V?$allocator@D@2@@std@@QAEXII@Z$4 DD 040H
	DD	00H
	DD	00H
	DD	FLAT:__catch$?_Copy@?$basic_string@DU?$char_traits@D@std@@V?$allocator@D@2@@std@@QAEXII@Z$1
__unwindtable$?_Copy@?$basic_string@DU?$char_traits@D@std@@V?$allocator@D@2@@std@@QAEXII@Z DD 0ffffffffH
	DD	00H
	DD	0ffffffffH
	DD	00H
	DD	01H
	DD	00H
	DD	01H
	DD	00H
__ehfuncinfo$?_Copy@?$basic_string@DU?$char_traits@D@std@@V?$allocator@D@2@@std@@QAEXII@Z DD 019930522H
	DD	04H
	DD	FLAT:__unwindtable$?_Copy@?$basic_string@DU?$char_traits@D@std@@V?$allocator@D@2@@std@@QAEXII@Z
	DD	02H
	DD	FLAT:__tryblocktable$?_Copy@?$basic_string@DU?$char_traits@D@std@@V?$allocator@D@2@@std@@QAEXII@Z
	DD	2 DUP(00H)
	DD	00H
	DD	01H
__tryblocktable$?_Copy@?$basic_string@DU?$char_traits@D@std@@V?$allocator@D@2@@std@@QAEXII@Z DD 02H
	DD	02H
	DD	03H
	DD	01H
	DD	FLAT:__catchsym$?_Copy@?$basic_string@DU?$char_traits@D@std@@V?$allocator@D@2@@std@@QAEXII@Z$4
	DD	00H
	DD	00H
	DD	03H
	DD	01H
	DD	FLAT:__catchsym$?_Copy@?$basic_string@DU?$char_traits@D@std@@V?$allocator@D@2@@std@@QAEXII@Z$5
xdata$x	ENDS
CRT$XCU	SEGMENT
_allocator_arg$initializer$ DD FLAT:??__Eallocator_arg@std@@YAXXZ
CRT$XCU	ENDS
;	COMDAT CRT$XCU
CRT$XCU	SEGMENT
?_Generic_object$initializer$@?$_Error_objects@H@std@@2P6AXXZA DD FLAT:??__E?_Generic_object@?$_Error_objects@H@std@@2V_Generic_error_category@2@A@@YAXXZ ; std::_Error_objects<int>::_Generic_object$initializer$
CRT$XCU	ENDS
;	COMDAT CRT$XCU
CRT$XCU	SEGMENT
?_Iostream_object$initializer$@?$_Error_objects@H@std@@2P6AXXZA DD FLAT:??__E?_Iostream_object@?$_Error_objects@H@std@@2V_Iostream_error_category@2@A@@YAXXZ ; std::_Error_objects<int>::_Iostream_object$initializer$
CRT$XCU	ENDS
;	COMDAT CRT$XCU
CRT$XCU	SEGMENT
?_System_object$initializer$@?$_Error_objects@H@std@@2P6AXXZA DD FLAT:??__E?_System_object@?$_Error_objects@H@std@@2V_System_error_category@2@A@@YAXXZ ; std::_Error_objects<int>::_System_object$initializer$
CRT$XCU	ENDS
;	COMDAT CRT$XCU
CRT$XCU	SEGMENT
?id$initializer$@?$num_put@DV?$back_insert_iterator@V?$basic_string@DU?$char_traits@D@std@@V?$allocator@D@2@@std@@@std@@@std@@2P6AXXZA DD FLAT:??__E?id@?$num_put@DV?$back_insert_iterator@V?$basic_string@DU?$char_traits@D@std@@V?$allocator@D@2@@std@@@std@@@std@@2V0locale@2@A@@YAXXZ ; std::num_put<char,std::back_insert_iterator<std::basic_string<char,std::char_traits<char>,std::allocator<char> > > >::id$initializer$
CRT$XCU	ENDS
;	COMDAT CRT$XCU
CRT$XCU	SEGMENT
?id$initializer$@?$num_put@_WV?$back_insert_iterator@V?$basic_string@_WU?$char_traits@_W@std@@V?$allocator@_W@2@@std@@@std@@@std@@2P6AXXZA DD FLAT:??__E?id@?$num_put@_WV?$back_insert_iterator@V?$basic_string@_WU?$char_traits@_W@std@@V?$allocator@_W@2@@std@@@std@@@std@@2V0locale@2@A@@YAXXZ ; std::num_put<wchar_t,std::back_insert_iterator<std::basic_string<wchar_t,std::char_traits<wchar_t>,std::allocator<wchar_t> > > >::id$initializer$
CRT$XCU	ENDS
;	COMDAT CRT$XCU
CRT$XCU	SEGMENT
?id$initializer$@?$numpunct@D@std@@2P6AXXZA DD FLAT:??__E?id@?$numpunct@D@std@@2V0locale@2@A@@YAXXZ ; std::numpunct<char>::id$initializer$
CRT$XCU	ENDS
;	COMDAT CRT$XCU
CRT$XCU	SEGMENT
?id$initializer$@?$numpunct@_W@std@@2P6AXXZA DD FLAT:??__E?id@?$numpunct@_W@std@@2V0locale@2@A@@YAXXZ ; std::numpunct<wchar_t>::id$initializer$
CRT$XCU	ENDS
; Function compile flags: /Odtp
; File c:\program files (x86)\microsoft visual studio 11.0\vc\include\xmemory0
;	COMDAT ??$destroy@PAD@?$allocator@D@std@@QAEXPAPAD@Z
_TEXT	SEGMENT
_this$ = -4						; size = 4
__Ptr$ = 8						; size = 4
??$destroy@PAD@?$allocator@D@std@@QAEXPAPAD@Z PROC	; std::allocator<char>::destroy<char *>, COMDAT
; _this$ = ecx

; 621  : 		void destroy(_Uty *_Ptr)

	push	ebp
	mov	ebp, esp
	push	ecx
	mov	DWORD PTR _this$[ebp], ecx

; 622  : 		{	// destroy object at _Ptr
; 623  : 		_Ptr->~_Uty();
; 624  : 		}

	mov	esp, ebp
	pop	ebp
	ret	4
??$destroy@PAD@?$allocator@D@std@@QAEXPAPAD@Z ENDP	; std::allocator<char>::destroy<char *>
_TEXT	ENDS
; Function compile flags: /Odtp
; File c:\program files (x86)\microsoft visual studio 11.0\vc\include\xmemory0
;	COMDAT ??$construct@PADAAPAD@?$allocator@D@std@@QAEXPAPADAAPAD@Z
_TEXT	SEGMENT
$T2 = -28						; size = 4
_this$ = -24						; size = 4
tv73 = -20						; size = 4
$T3 = -16						; size = 4
__$EHRec$ = -12						; size = 12
__Ptr$ = 8						; size = 4
__V0$ = 12						; size = 4
??$construct@PADAAPAD@?$allocator@D@std@@QAEXPAPADAAPAD@Z PROC ; std::allocator<char>::construct<char *,char * &>, COMDAT
; _this$ = ecx

; 617  : _VARIADIC_EXPAND_0X(_ALLOC_MEMBER_CONSTRUCT, , , , )

	push	ebp
	mov	ebp, esp
	push	-1
	push	__ehhandler$??$construct@PADAAPAD@?$allocator@D@std@@QAEXPAPADAAPAD@Z
	mov	eax, DWORD PTR fs:0
	push	eax
	sub	esp, 16					; 00000010H
	mov	eax, DWORD PTR ___security_cookie
	xor	eax, ebp
	push	eax
	lea	eax, DWORD PTR __$EHRec$[ebp]
	mov	DWORD PTR fs:0, eax
	mov	DWORD PTR _this$[ebp], ecx
	mov	eax, DWORD PTR __Ptr$[ebp]
	push	eax
	push	4
	call	??2@YAPAXIPAX@Z				; operator new
	add	esp, 8
	mov	DWORD PTR $T3[ebp], eax
	mov	DWORD PTR __$EHRec$[ebp+8], 0
	cmp	DWORD PTR $T3[ebp], 0
	je	SHORT $LN3@construct
	mov	ecx, DWORD PTR __V0$[ebp]
	push	ecx
	call	??$forward@AAPAD@std@@YAAAPADAAPAD@Z	; std::forward<char * &>
	add	esp, 4
	mov	edx, DWORD PTR $T3[ebp]
	mov	eax, DWORD PTR [eax]
	mov	DWORD PTR [edx], eax
	mov	ecx, DWORD PTR $T3[ebp]
	mov	DWORD PTR tv73[ebp], ecx
	jmp	SHORT $LN4@construct
$LN3@construct:
	mov	DWORD PTR tv73[ebp], 0
$LN4@construct:
	mov	edx, DWORD PTR tv73[ebp]
	mov	DWORD PTR $T2[ebp], edx
	mov	DWORD PTR __$EHRec$[ebp+8], -1
	mov	ecx, DWORD PTR __$EHRec$[ebp]
	mov	DWORD PTR fs:0, ecx
	pop	ecx
	mov	esp, ebp
	pop	ebp
	ret	8
_TEXT	ENDS
;	COMDAT text$x
text$x	SEGMENT
__unwindfunclet$??$construct@PADAAPAD@?$allocator@D@std@@QAEXPAPADAAPAD@Z$0:
	mov	eax, DWORD PTR __Ptr$[ebp]
	push	eax
	mov	eax, DWORD PTR $T3[ebp]
	push	eax
	call	??3@YAXPAX0@Z				; operator delete
	add	esp, 8
	ret	0
__ehhandler$??$construct@PADAAPAD@?$allocator@D@std@@QAEXPAPADAAPAD@Z:
	mov	edx, DWORD PTR [esp+8]
	lea	eax, DWORD PTR [edx+12]
	mov	ecx, DWORD PTR [edx-20]
	xor	ecx, eax
	call	@__security_check_cookie@4
	mov	eax, OFFSET __ehfuncinfo$??$construct@PADAAPAD@?$allocator@D@std@@QAEXPAPADAAPAD@Z
	jmp	___CxxFrameHandler3
text$x	ENDS
??$construct@PADAAPAD@?$allocator@D@std@@QAEXPAPADAAPAD@Z ENDP ; std::allocator<char>::construct<char *,char * &>
; Function compile flags: /Odtp
; File c:\program files (x86)\microsoft visual studio 11.0\vc\include\xlocnum
;	COMDAT ??__E?id@?$numpunct@_W@std@@2V0locale@2@A@@YAXXZ
text$yc	SEGMENT
??__E?id@?$numpunct@_W@std@@2V0locale@2@A@@YAXXZ PROC	; `dynamic initializer for 'std::numpunct<wchar_t>::id'', COMDAT

; 155  : 		void _Getvals(wchar_t, const lconv *_Ptr, _Locinfo::_Cvtvec)

	push	ebp
	mov	ebp, esp
	push	0
	mov	ecx, OFFSET ?id@?$numpunct@_W@std@@2V0locale@2@A ; std::numpunct<wchar_t>::id
	call	??0id@locale@std@@QAE@I@Z		; std::locale::id::id
	pop	ebp
	ret	0
??__E?id@?$numpunct@_W@std@@2V0locale@2@A@@YAXXZ ENDP	; `dynamic initializer for 'std::numpunct<wchar_t>::id''
text$yc	ENDS
; Function compile flags: /Odtp
; File c:\program files (x86)\microsoft visual studio 11.0\vc\include\xlocnum
;	COMDAT ??__E?id@?$numpunct@D@std@@2V0locale@2@A@@YAXXZ
text$yc	SEGMENT
??__E?id@?$numpunct@D@std@@2V0locale@2@A@@YAXXZ PROC	; `dynamic initializer for 'std::numpunct<char>::id'', COMDAT

; 155  : 		void _Getvals(wchar_t, const lconv *_Ptr, _Locinfo::_Cvtvec)

	push	ebp
	mov	ebp, esp
	push	0
	mov	ecx, OFFSET ?id@?$numpunct@D@std@@2V0locale@2@A ; std::numpunct<char>::id
	call	??0id@locale@std@@QAE@I@Z		; std::locale::id::id
	pop	ebp
	ret	0
??__E?id@?$numpunct@D@std@@2V0locale@2@A@@YAXXZ ENDP	; `dynamic initializer for 'std::numpunct<char>::id''
text$yc	ENDS
; Function compile flags: /Odtp
; File c:\program files (x86)\microsoft visual studio 11.0\vc\include\xlocnum
;	COMDAT ??__E?id@?$num_put@_WV?$back_insert_iterator@V?$basic_string@_WU?$char_traits@_W@std@@V?$allocator@_W@2@@std@@@std@@@std@@2V0locale@2@A@@YAXXZ
text$yc	SEGMENT
??__E?id@?$num_put@_WV?$back_insert_iterator@V?$basic_string@_WU?$char_traits@_W@std@@V?$allocator@_W@2@@std@@@std@@@std@@2V0locale@2@A@@YAXXZ PROC ; `dynamic initializer for 'std::num_put<wchar_t,std::back_insert_iterator<std::basic_string<wchar_t,std::char_traits<wchar_t>,std::allocator<wchar_t> > > >::id'', COMDAT

; 155  : 		void _Getvals(wchar_t, const lconv *_Ptr, _Locinfo::_Cvtvec)

	push	ebp
	mov	ebp, esp
	push	0
	mov	ecx, OFFSET ?id@?$num_put@_WV?$back_insert_iterator@V?$basic_string@_WU?$char_traits@_W@std@@V?$allocator@_W@2@@std@@@std@@@std@@2V0locale@2@A ; std::num_put<wchar_t,std::back_insert_iterator<std::basic_string<wchar_t,std::char_traits<wchar_t>,std::allocator<wchar_t> > > >::id
	call	??0id@locale@std@@QAE@I@Z		; std::locale::id::id
	pop	ebp
	ret	0
??__E?id@?$num_put@_WV?$back_insert_iterator@V?$basic_string@_WU?$char_traits@_W@std@@V?$allocator@_W@2@@std@@@std@@@std@@2V0locale@2@A@@YAXXZ ENDP ; `dynamic initializer for 'std::num_put<wchar_t,std::back_insert_iterator<std::basic_string<wchar_t,std::char_traits<wchar_t>,std::allocator<wchar_t> > > >::id''
text$yc	ENDS
; Function compile flags: /Odtp
; File c:\program files (x86)\microsoft visual studio 11.0\vc\include\xlocnum
;	COMDAT ??__E?id@?$num_put@DV?$back_insert_iterator@V?$basic_string@DU?$char_traits@D@std@@V?$allocator@D@2@@std@@@std@@@std@@2V0locale@2@A@@YAXXZ
text$yc	SEGMENT
??__E?id@?$num_put@DV?$back_insert_iterator@V?$basic_string@DU?$char_traits@D@std@@V?$allocator@D@2@@std@@@std@@@std@@2V0locale@2@A@@YAXXZ PROC ; `dynamic initializer for 'std::num_put<char,std::back_insert_iterator<std::basic_string<char,std::char_traits<char>,std::allocator<char> > > >::id'', COMDAT

; 155  : 		void _Getvals(wchar_t, const lconv *_Ptr, _Locinfo::_Cvtvec)

	push	ebp
	mov	ebp, esp
	push	0
	mov	ecx, OFFSET ?id@?$num_put@DV?$back_insert_iterator@V?$basic_string@DU?$char_traits@D@std@@V?$allocator@D@2@@std@@@std@@@std@@2V0locale@2@A ; std::num_put<char,std::back_insert_iterator<std::basic_string<char,std::char_traits<char>,std::allocator<char> > > >::id
	call	??0id@locale@std@@QAE@I@Z		; std::locale::id::id
	pop	ebp
	ret	0
??__E?id@?$num_put@DV?$back_insert_iterator@V?$basic_string@DU?$char_traits@D@std@@V?$allocator@D@2@@std@@@std@@@std@@2V0locale@2@A@@YAXXZ ENDP ; `dynamic initializer for 'std::num_put<char,std::back_insert_iterator<std::basic_string<char,std::char_traits<char>,std::allocator<char> > > >::id''
text$yc	ENDS
; Function compile flags: /Odtp
; File c:\program files (x86)\microsoft visual studio 11.0\vc\include\xmemory0
;	COMDAT ??$destroy@PAD@?$allocator_traits@V?$allocator@D@std@@@std@@SAXAAV?$allocator@D@1@PAPAD@Z
_TEXT	SEGMENT
__Al$ = 8						; size = 4
__Ptr$ = 12						; size = 4
??$destroy@PAD@?$allocator_traits@V?$allocator@D@std@@@std@@SAXAAV?$allocator@D@1@PAPAD@Z PROC ; std::allocator_traits<std::allocator<char> >::destroy<char *>, COMDAT

; 755  : 		static void destroy(_Alloc& _Al, _Uty *_Ptr)

	push	ebp
	mov	ebp, esp

; 756  : 		{	// destroy object at _Ptr
; 757  : 		_Al.destroy(_Ptr);

	mov	eax, DWORD PTR __Ptr$[ebp]
	push	eax
	mov	ecx, DWORD PTR __Al$[ebp]
	call	??$destroy@PAD@?$allocator@D@std@@QAEXPAPAD@Z ; std::allocator<char>::destroy<char *>

; 758  : 		}

	pop	ebp
	ret	0
??$destroy@PAD@?$allocator_traits@V?$allocator@D@std@@@std@@SAXAAV?$allocator@D@1@PAPAD@Z ENDP ; std::allocator_traits<std::allocator<char> >::destroy<char *>
_TEXT	ENDS
; Function compile flags: /Odtp
; File c:\program files (x86)\microsoft visual studio 11.0\vc\include\xmemory0
;	COMDAT ??$construct@PADAAPAD@?$allocator_traits@V?$allocator@D@std@@@std@@SAXAAV?$allocator@D@1@PAPADAAPAD@Z
_TEXT	SEGMENT
__Al$ = 8						; size = 4
__Ptr$ = 12						; size = 4
__V0$ = 16						; size = 4
??$construct@PADAAPAD@?$allocator_traits@V?$allocator@D@std@@@std@@SAXAAV?$allocator@D@1@PAPADAAPAD@Z PROC ; std::allocator_traits<std::allocator<char> >::construct<char *,char * &>, COMDAT

; 751  : _VARIADIC_EXPAND_0X(_ALLOC_TRAITS_SPECIAL_CONSTRUCT, , , , )

	push	ebp
	mov	ebp, esp
	mov	eax, DWORD PTR __V0$[ebp]
	push	eax
	call	??$forward@AAPAD@std@@YAAAPADAAPAD@Z	; std::forward<char * &>
	add	esp, 4
	push	eax
	mov	ecx, DWORD PTR __Ptr$[ebp]
	push	ecx
	mov	ecx, DWORD PTR __Al$[ebp]
	call	??$construct@PADAAPAD@?$allocator@D@std@@QAEXPAPADAAPAD@Z ; std::allocator<char>::construct<char *,char * &>
	pop	ebp
	ret	0
??$construct@PADAAPAD@?$allocator_traits@V?$allocator@D@std@@@std@@SAXAAV?$allocator@D@1@PAPADAAPAD@Z ENDP ; std::allocator_traits<std::allocator<char> >::construct<char *,char * &>
_TEXT	ENDS
; Function compile flags: /Odtp
; File c:\program files (x86)\microsoft visual studio 11.0\vc\include\type_traits
;	COMDAT ??$forward@AAPAD@std@@YAAAPADAAPAD@Z
_TEXT	SEGMENT
__Arg$ = 8						; size = 4
??$forward@AAPAD@std@@YAAAPADAAPAD@Z PROC		; std::forward<char * &>, COMDAT

; 1775 : 	{	// forward an lvalue

	push	ebp
	mov	ebp, esp

; 1776 : 	return (static_cast<_Ty&&>(_Arg));

	mov	eax, DWORD PTR __Arg$[ebp]

; 1777 : 	}

	pop	ebp
	ret	0
??$forward@AAPAD@std@@YAAAPADAAPAD@Z ENDP		; std::forward<char * &>
_TEXT	ENDS
; Function compile flags: /Odtp
;	COMDAT ??__F?_System_object@?$_Error_objects@H@std@@2V_System_error_category@2@A@@YAXXZ
text$yd	SEGMENT
??__F?_System_object@?$_Error_objects@H@std@@2V_System_error_category@2@A@@YAXXZ PROC ; `dynamic atexit destructor for 'std::_Error_objects<int>::_System_object'', COMDAT
	push	ebp
	mov	ebp, esp
	mov	ecx, OFFSET ?_System_object@?$_Error_objects@H@std@@2V_System_error_category@2@A ; std::_Error_objects<int>::_System_object
	call	??1_System_error_category@std@@UAE@XZ
	pop	ebp
	ret	0
??__F?_System_object@?$_Error_objects@H@std@@2V_System_error_category@2@A@@YAXXZ ENDP ; `dynamic atexit destructor for 'std::_Error_objects<int>::_System_object''
text$yd	ENDS
; Function compile flags: /Odtp
; File c:\program files (x86)\microsoft visual studio 11.0\vc\include\xmemory0
;	COMDAT ??__E?_System_object@?$_Error_objects@H@std@@2V_System_error_category@2@A@@YAXXZ
text$yc	SEGMENT
??__E?_System_object@?$_Error_objects@H@std@@2V_System_error_category@2@A@@YAXXZ PROC ; `dynamic initializer for 'std::_Error_objects<int>::_System_object'', COMDAT

; 627  : 		{	// estimate maximum array size

	push	ebp
	mov	ebp, esp
	mov	ecx, OFFSET ?_System_object@?$_Error_objects@H@std@@2V_System_error_category@2@A ; std::_Error_objects<int>::_System_object
	call	??0_System_error_category@std@@QAE@XZ	; std::_System_error_category::_System_error_category
	push	OFFSET ??__F?_System_object@?$_Error_objects@H@std@@2V_System_error_category@2@A@@YAXXZ ; `dynamic atexit destructor for 'std::_Error_objects<int>::_System_object''
	call	_atexit
	add	esp, 4
	pop	ebp
	ret	0
??__E?_System_object@?$_Error_objects@H@std@@2V_System_error_category@2@A@@YAXXZ ENDP ; `dynamic initializer for 'std::_Error_objects<int>::_System_object''
text$yc	ENDS
; Function compile flags: /Odtp
;	COMDAT ??__F?_Iostream_object@?$_Error_objects@H@std@@2V_Iostream_error_category@2@A@@YAXXZ
text$yd	SEGMENT
??__F?_Iostream_object@?$_Error_objects@H@std@@2V_Iostream_error_category@2@A@@YAXXZ PROC ; `dynamic atexit destructor for 'std::_Error_objects<int>::_Iostream_object'', COMDAT
	push	ebp
	mov	ebp, esp
	mov	ecx, OFFSET ?_Iostream_object@?$_Error_objects@H@std@@2V_Iostream_error_category@2@A ; std::_Error_objects<int>::_Iostream_object
	call	??1_Iostream_error_category@std@@UAE@XZ
	pop	ebp
	ret	0
??__F?_Iostream_object@?$_Error_objects@H@std@@2V_Iostream_error_category@2@A@@YAXXZ ENDP ; `dynamic atexit destructor for 'std::_Error_objects<int>::_Iostream_object''
text$yd	ENDS
; Function compile flags: /Odtp
; File c:\program files (x86)\microsoft visual studio 11.0\vc\include\xmemory0
;	COMDAT ??__E?_Iostream_object@?$_Error_objects@H@std@@2V_Iostream_error_category@2@A@@YAXXZ
text$yc	SEGMENT
??__E?_Iostream_object@?$_Error_objects@H@std@@2V_Iostream_error_category@2@A@@YAXXZ PROC ; `dynamic initializer for 'std::_Error_objects<int>::_Iostream_object'', COMDAT

; 627  : 		{	// estimate maximum array size

	push	ebp
	mov	ebp, esp
	mov	ecx, OFFSET ?_Iostream_object@?$_Error_objects@H@std@@2V_Iostream_error_category@2@A ; std::_Error_objects<int>::_Iostream_object
	call	??0_Iostream_error_category@std@@QAE@XZ	; std::_Iostream_error_category::_Iostream_error_category
	push	OFFSET ??__F?_Iostream_object@?$_Error_objects@H@std@@2V_Iostream_error_category@2@A@@YAXXZ ; `dynamic atexit destructor for 'std::_Error_objects<int>::_Iostream_object''
	call	_atexit
	add	esp, 4
	pop	ebp
	ret	0
??__E?_Iostream_object@?$_Error_objects@H@std@@2V_Iostream_error_category@2@A@@YAXXZ ENDP ; `dynamic initializer for 'std::_Error_objects<int>::_Iostream_object''
text$yc	ENDS
; Function compile flags: /Odtp
;	COMDAT ??__F?_Generic_object@?$_Error_objects@H@std@@2V_Generic_error_category@2@A@@YAXXZ
text$yd	SEGMENT
??__F?_Generic_object@?$_Error_objects@H@std@@2V_Generic_error_category@2@A@@YAXXZ PROC ; `dynamic atexit destructor for 'std::_Error_objects<int>::_Generic_object'', COMDAT
	push	ebp
	mov	ebp, esp
	mov	ecx, OFFSET ?_Generic_object@?$_Error_objects@H@std@@2V_Generic_error_category@2@A ; std::_Error_objects<int>::_Generic_object
	call	??1_Generic_error_category@std@@UAE@XZ
	pop	ebp
	ret	0
??__F?_Generic_object@?$_Error_objects@H@std@@2V_Generic_error_category@2@A@@YAXXZ ENDP ; `dynamic atexit destructor for 'std::_Error_objects<int>::_Generic_object''
text$yd	ENDS
; Function compile flags: /Odtp
; File c:\program files (x86)\microsoft visual studio 11.0\vc\include\xmemory0
;	COMDAT ??__E?_Generic_object@?$_Error_objects@H@std@@2V_Generic_error_category@2@A@@YAXXZ
text$yc	SEGMENT
??__E?_Generic_object@?$_Error_objects@H@std@@2V_Generic_error_category@2@A@@YAXXZ PROC ; `dynamic initializer for 'std::_Error_objects<int>::_Generic_object'', COMDAT

; 627  : 		{	// estimate maximum array size

	push	ebp
	mov	ebp, esp
	mov	ecx, OFFSET ?_Generic_object@?$_Error_objects@H@std@@2V_Generic_error_category@2@A ; std::_Error_objects<int>::_Generic_object
	call	??0_Generic_error_category@std@@QAE@XZ	; std::_Generic_error_category::_Generic_error_category
	push	OFFSET ??__F?_Generic_object@?$_Error_objects@H@std@@2V_Generic_error_category@2@A@@YAXXZ ; `dynamic atexit destructor for 'std::_Error_objects<int>::_Generic_object''
	call	_atexit
	add	esp, 4
	pop	ebp
	ret	0
??__E?_Generic_object@?$_Error_objects@H@std@@2V_Generic_error_category@2@A@@YAXXZ ENDP ; `dynamic initializer for 'std::_Error_objects<int>::_Generic_object''
text$yc	ENDS
; Function compile flags: /Odtp
; File c:\program files (x86)\microsoft visual studio 11.0\vc\include\xmemory0
;	COMDAT ??$_Allocate@D@std@@YAPADIPAD@Z
_TEXT	SEGMENT
__Ptr$ = -4						; size = 4
__Count$ = 8						; size = 4
___formal$ = 12						; size = 4
??$_Allocate@D@std@@YAPADIPAD@Z PROC			; std::_Allocate<char>, COMDAT

; 22   : 	{	// allocate storage for _Count elements of type _Ty

	push	ebp
	mov	ebp, esp
	push	ecx

; 23   : 	void *_Ptr = 0;

	mov	DWORD PTR __Ptr$[ebp], 0

; 24   : 
; 25   : 	if (_Count == 0)

	cmp	DWORD PTR __Count$[ebp], 0
	jne	SHORT $LN4@Allocate

; 26   : 		;
; 27   : 	else if (((size_t)(-1) / sizeof (_Ty) < _Count)

	jmp	SHORT $LN3@Allocate
$LN4@Allocate:

; 28   : 		|| (_Ptr = ::operator new(_Count * sizeof (_Ty))) == 0)

	cmp	DWORD PTR __Count$[ebp], -1
	ja	SHORT $LN1@Allocate
	mov	eax, DWORD PTR __Count$[ebp]
	push	eax
	call	??2@YAPAXI@Z				; operator new
	add	esp, 4
	mov	DWORD PTR __Ptr$[ebp], eax
	cmp	DWORD PTR __Ptr$[ebp], 0
	jne	SHORT $LN3@Allocate
$LN1@Allocate:

; 29   : 		_Xbad_alloc();	// report no memory

	call	?_Xbad_alloc@std@@YAXXZ			; std::_Xbad_alloc
$LN3@Allocate:

; 30   : 
; 31   : 	return ((_Ty *)_Ptr);

	mov	eax, DWORD PTR __Ptr$[ebp]
$LN6@Allocate:

; 32   : 	}

	mov	esp, ebp
	pop	ebp
	ret	0
??$_Allocate@D@std@@YAPADIPAD@Z ENDP			; std::_Allocate<char>
_TEXT	ENDS
; Function compile flags: /Odtp
; File c:\program files (x86)\microsoft visual studio 11.0\vc\include\xstddef
;	COMDAT ??$addressof@D@std@@YAPADAAD@Z
_TEXT	SEGMENT
__Val$ = 8						; size = 4
??$addressof@D@std@@YAPADAAD@Z PROC			; std::addressof<char>, COMDAT

; 85   : 	{	// return address of _Val

	push	ebp
	mov	ebp, esp

; 86   : 	return (reinterpret_cast<_Ty *>(
; 87   : 		(&const_cast<char&>(
; 88   : 		reinterpret_cast<const volatile char&>(_Val)))));

	mov	eax, DWORD PTR __Val$[ebp]

; 89   : 	}

	pop	ebp
	ret	0
??$addressof@D@std@@YAPADAAD@Z ENDP			; std::addressof<char>
_TEXT	ENDS
; Function compile flags: /Odtp
; File c:\program files (x86)\microsoft visual studio 11.0\vc\include\xmemory0
;	COMDAT ??$destroy@PAD@?$_Wrap_alloc@V?$allocator@D@std@@@std@@QAEXPAPAD@Z
_TEXT	SEGMENT
_this$ = -4						; size = 4
__Ptr$ = 8						; size = 4
??$destroy@PAD@?$_Wrap_alloc@V?$allocator@D@std@@@std@@QAEXPAPAD@Z PROC ; std::_Wrap_alloc<std::allocator<char> >::destroy<char *>, COMDAT
; _this$ = ecx

; 907  : 		void destroy(_Ty *_Ptr)

	push	ebp
	mov	ebp, esp
	push	ecx
	mov	DWORD PTR _this$[ebp], ecx

; 908  : 		{	// destroy object at _Ptr
; 909  : 		_Mytraits::destroy(*this, _Ptr);

	mov	eax, DWORD PTR __Ptr$[ebp]
	push	eax
	mov	ecx, DWORD PTR _this$[ebp]
	push	ecx
	call	??$destroy@PAD@?$allocator_traits@V?$allocator@D@std@@@std@@SAXAAV?$allocator@D@1@PAPAD@Z ; std::allocator_traits<std::allocator<char> >::destroy<char *>
	add	esp, 8

; 910  : 		}

	mov	esp, ebp
	pop	ebp
	ret	4
??$destroy@PAD@?$_Wrap_alloc@V?$allocator@D@std@@@std@@QAEXPAPAD@Z ENDP ; std::_Wrap_alloc<std::allocator<char> >::destroy<char *>
_TEXT	ENDS
; Function compile flags: /Odtp
; File c:\program files (x86)\microsoft visual studio 11.0\vc\include\xmemory0
;	COMDAT ??$construct@PADAAPAD@?$_Wrap_alloc@V?$allocator@D@std@@@std@@QAEXPAPADAAPAD@Z
_TEXT	SEGMENT
_this$ = -4						; size = 4
__Ptr$ = 8						; size = 4
__V0$ = 12						; size = 4
??$construct@PADAAPAD@?$_Wrap_alloc@V?$allocator@D@std@@@std@@QAEXPAPADAAPAD@Z PROC ; std::_Wrap_alloc<std::allocator<char> >::construct<char *,char * &>, COMDAT
; _this$ = ecx

; 903  : _VARIADIC_EXPAND_0X(_WRAP_ALLOC_CONSTRUCT, , , , )

	push	ebp
	mov	ebp, esp
	push	ecx
	mov	DWORD PTR _this$[ebp], ecx
	mov	eax, DWORD PTR __V0$[ebp]
	push	eax
	call	??$forward@AAPAD@std@@YAAAPADAAPAD@Z	; std::forward<char * &>
	add	esp, 4
	push	eax
	mov	ecx, DWORD PTR __Ptr$[ebp]
	push	ecx
	mov	edx, DWORD PTR _this$[ebp]
	push	edx
	call	??$construct@PADAAPAD@?$allocator_traits@V?$allocator@D@std@@@std@@SAXAAV?$allocator@D@1@PAPADAAPAD@Z ; std::allocator_traits<std::allocator<char> >::construct<char *,char * &>
	add	esp, 12					; 0000000cH
	mov	esp, ebp
	pop	ebp
	ret	8
??$construct@PADAAPAD@?$_Wrap_alloc@V?$allocator@D@std@@@std@@QAEXPAPADAAPAD@Z ENDP ; std::_Wrap_alloc<std::allocator<char> >::construct<char *,char * &>
_TEXT	ENDS
; Function compile flags: /Odtp
; File c:\users\zhitao li\documents\visual studio 2012\projects\freefalcon\acmi\src\include\acmirec.h
;	COMDAT ?IsRecording@ACMIRecorder@@QAEHXZ
_TEXT	SEGMENT
_this$ = -4						; size = 4
?IsRecording@ACMIRecorder@@QAEHXZ PROC			; ACMIRecorder::IsRecording, COMDAT
; _this$ = ecx

; 319  : 	{

	push	ebp
	mov	ebp, esp
	push	ecx
	mov	DWORD PTR _this$[ebp], ecx

; 320  : 		return _recording;

	mov	eax, DWORD PTR _this$[ebp]
	mov	eax, DWORD PTR [eax+8]

; 321  : 	};

	mov	esp, ebp
	pop	ebp
	ret	0
?IsRecording@ACMIRecorder@@QAEHXZ ENDP			; ACMIRecorder::IsRecording
_TEXT	ENDS
; Function compile flags: /Odtp
; File c:\users\zhitao li\documents\visual studio 2012\projects\freefalcon\sim\include\sms.h
;	COMDAT ?NumHardpoints@SMSBaseClass@@QAEHXZ
_TEXT	SEGMENT
_this$ = -4						; size = 4
?NumHardpoints@SMSBaseClass@@QAEHXZ PROC		; SMSBaseClass::NumHardpoints, COMDAT
; _this$ = ecx

; 87   : 	int NumHardpoints (void) {return numHardpoints;};

	push	ebp
	mov	ebp, esp
	push	ecx
	mov	DWORD PTR _this$[ebp], ecx
	mov	eax, DWORD PTR _this$[ebp]
	mov	eax, DWORD PTR [eax+40]
	mov	esp, ebp
	pop	ebp
	ret	0
?NumHardpoints@SMSBaseClass@@QAEHXZ ENDP		; SMSBaseClass::NumHardpoints
_TEXT	ENDS
; Function compile flags: /Odtp
; File c:\users\zhitao li\documents\visual studio 2012\projects\freefalcon\sim\include\simdrive.h
;	COMDAT ?GetPlayerEntity@SimulationDriver@@QBEPAVSimMoverClass@@XZ
_TEXT	SEGMENT
_this$ = -4						; size = 4
?GetPlayerEntity@SimulationDriver@@QBEPAVSimMoverClass@@XZ PROC ; SimulationDriver::GetPlayerEntity, COMDAT
; _this$ = ecx

; 76   : 	SimMoverClass *GetPlayerEntity() const { return const_cast<SimMoverClass*>(playerEntity); }

	push	ebp
	mov	ebp, esp
	push	ecx
	mov	DWORD PTR _this$[ebp], ecx
	mov	eax, DWORD PTR _this$[ebp]
	mov	eax, DWORD PTR [eax+56]
	mov	esp, ebp
	pop	ebp
	ret	0
?GetPlayerEntity@SimulationDriver@@QBEPAVSimMoverClass@@XZ ENDP ; SimulationDriver::GetPlayerEntity
_TEXT	ENDS
; Function compile flags: /Odtp
; File c:\users\zhitao li\documents\visual studio 2012\projects\freefalcon\sim\include\aircrft.h
;	COMDAT ?DBrain@AircraftClass@@QAEPAVDigitalBrain@@XZ
_TEXT	SEGMENT
_this$ = -4						; size = 4
?DBrain@AircraftClass@@QAEPAVDigitalBrain@@XZ PROC	; AircraftClass::DBrain, COMDAT
; _this$ = ecx

; 624  : 	DigitalBrain *DBrain(void)			{return (DigitalBrain *)theBrain;}

	push	ebp
	mov	ebp, esp
	push	ecx
	mov	DWORD PTR _this$[ebp], ecx
	mov	eax, DWORD PTR _this$[ebp]
	mov	eax, DWORD PTR [eax+672]
	mov	esp, ebp
	pop	ebp
	ret	0
?DBrain@AircraftClass@@QAEPAVDigitalBrain@@XZ ENDP	; AircraftClass::DBrain
_TEXT	ENDS
; Function compile flags: /Odtp
; File c:\users\zhitao li\documents\visual studio 2012\projects\freefalcon\sim\include\aircrft.h
;	COMDAT ?IsComplex@AircraftClass@@QAEHXZ
_TEXT	SEGMENT
_this$ = -8						; size = 4
tv67 = -4						; size = 4
?IsComplex@AircraftClass@@QAEHXZ PROC			; AircraftClass::IsComplex, COMDAT
; _this$ = ecx

; 336  : 	int            IsComplex (void) {return ((acFlags & isComplex) ? TRUE : FALSE);}

	push	ebp
	mov	ebp, esp
	sub	esp, 8
	mov	DWORD PTR _this$[ebp], ecx
	mov	eax, DWORD PTR _this$[ebp]
	mov	ecx, DWORD PTR [eax+964]
	and	ecx, 4
	je	SHORT $LN3@IsComplex
	mov	DWORD PTR tv67[ebp], 1
	jmp	SHORT $LN4@IsComplex
$LN3@IsComplex:
	mov	DWORD PTR tv67[ebp], 0
$LN4@IsComplex:
	mov	eax, DWORD PTR tv67[ebp]
	mov	esp, ebp
	pop	ebp
	ret	0
?IsComplex@AircraftClass@@QAEHXZ ENDP			; AircraftClass::IsComplex
_TEXT	ENDS
; Function compile flags: /Odtp
; File c:\users\zhitao li\documents\visual studio 2012\projects\freefalcon\sim\include\aircrft.h
;	COMDAT ?IsF16@AircraftClass@@QAEHXZ
_TEXT	SEGMENT
_this$ = -8						; size = 4
tv67 = -4						; size = 4
?IsF16@AircraftClass@@QAEHXZ PROC			; AircraftClass::IsF16, COMDAT
; _this$ = ecx

; 335  : 	int            IsF16 (void) {return (acFlags & isF16 ? TRUE : FALSE);}

	push	ebp
	mov	ebp, esp
	sub	esp, 8
	mov	DWORD PTR _this$[ebp], ecx
	mov	eax, DWORD PTR _this$[ebp]
	mov	ecx, DWORD PTR [eax+964]
	and	ecx, 1
	je	SHORT $LN3@IsF16
	mov	DWORD PTR tv67[ebp], 1
	jmp	SHORT $LN4@IsF16
$LN3@IsF16:
	mov	DWORD PTR tv67[ebp], 0
$LN4@IsF16:
	mov	eax, DWORD PTR tv67[ebp]
	mov	esp, ebp
	pop	ebp
	ret	0
?IsF16@AircraftClass@@QAEHXZ ENDP			; AircraftClass::IsF16
_TEXT	ENDS
; Function compile flags: /Odtp
; File c:\users\zhitao li\documents\visual studio 2012\projects\freefalcon\sim\include\aircrft.h
;	COMDAT ?AutopilotType@AircraftClass@@QAE?AW4AutoPilotType@1@XZ
_TEXT	SEGMENT
_this$ = -4						; size = 4
?AutopilotType@AircraftClass@@QAE?AW4AutoPilotType@1@XZ PROC ; AircraftClass::AutopilotType, COMDAT
; _this$ = ecx

; 329  : 	AutoPilotType	AutopilotType (void) {return autopilotType;};

	push	ebp
	mov	ebp, esp
	push	ecx
	mov	DWORD PTR _this$[ebp], ecx
	mov	eax, DWORD PTR _this$[ebp]
	mov	eax, DWORD PTR [eax+968]
	mov	esp, ebp
	pop	ebp
	ret	0
?AutopilotType@AircraftClass@@QAE?AW4AutoPilotType@1@XZ ENDP ; AircraftClass::AutopilotType
_TEXT	ENDS
; Function compile flags: /Odtp
; File c:\users\zhitao li\documents\visual studio 2012\projects\freefalcon\sim\include\aircrft.h
;	COMDAT ?IsAcStatusBitsSet@AircraftClass@@QBE_NH@Z
_TEXT	SEGMENT
_this$ = -8						; size = 4
tv67 = -4						; size = 4
_bits$ = 8						; size = 4
?IsAcStatusBitsSet@AircraftClass@@QBE_NH@Z PROC		; AircraftClass::IsAcStatusBitsSet, COMDAT
; _this$ = ecx

; 170  : 	bool IsAcStatusBitsSet(int bits) const { return (status_bits & bits) == bits; }

	push	ebp
	mov	ebp, esp
	sub	esp, 8
	mov	DWORD PTR _this$[ebp], ecx
	mov	eax, DWORD PTR _this$[ebp]
	mov	ecx, DWORD PTR [eax+760]
	and	ecx, DWORD PTR _bits$[ebp]
	cmp	ecx, DWORD PTR _bits$[ebp]
	jne	SHORT $LN3@IsAcStatus
	mov	DWORD PTR tv67[ebp], 1
	jmp	SHORT $LN4@IsAcStatus
$LN3@IsAcStatus:
	mov	DWORD PTR tv67[ebp], 0
$LN4@IsAcStatus:
	mov	al, BYTE PTR tv67[ebp]
	mov	esp, ebp
	pop	ebp
	ret	4
?IsAcStatusBitsSet@AircraftClass@@QBE_NH@Z ENDP		; AircraftClass::IsAcStatusBitsSet
_TEXT	ENDS
; Function compile flags: /Odtp
; File c:\users\zhitao li\documents\visual studio 2012\projects\freefalcon\sim\include\simmover.h
;	COMDAT ?GetSwitch@SimMoverClass@@QAEHH@Z
_TEXT	SEGMENT
tv69 = -8						; size = 4
_this$ = -4						; size = 4
_num$ = 8						; size = 4
?GetSwitch@SimMoverClass@@QAEHH@Z PROC			; SimMoverClass::GetSwitch, COMDAT
; _this$ = ecx

; 135  : 	int GetSwitch (int num) { return num < numSwitches ? switchData[num] : 0; }

	push	ebp
	mov	ebp, esp
	sub	esp, 8
	mov	DWORD PTR _this$[ebp], ecx
	mov	eax, DWORD PTR _this$[ebp]
	mov	ecx, DWORD PTR _num$[ebp]
	cmp	ecx, DWORD PTR [eax+604]
	jge	SHORT $LN3@GetSwitch
	mov	edx, DWORD PTR _this$[ebp]
	mov	eax, DWORD PTR [edx+592]
	mov	ecx, DWORD PTR _num$[ebp]
	mov	edx, DWORD PTR [eax+ecx*4]
	mov	DWORD PTR tv69[ebp], edx
	jmp	SHORT $LN4@GetSwitch
$LN3@GetSwitch:
	mov	DWORD PTR tv69[ebp], 0
$LN4@GetSwitch:
	mov	eax, DWORD PTR tv69[ebp]
	mov	esp, ebp
	pop	ebp
	ret	4
?GetSwitch@SimMoverClass@@QAEHH@Z ENDP			; SimMoverClass::GetSwitch
_TEXT	ENDS
; Function compile flags: /Odtp
; File c:\users\zhitao li\documents\visual studio 2012\projects\freefalcon\sim\include\simmover.h
;	COMDAT ?SetSwitch@SimMoverClass@@QAEXHH@Z
_TEXT	SEGMENT
_this$ = -4						; size = 4
_num$ = 8						; size = 4
_val$ = 12						; size = 4
?SetSwitch@SimMoverClass@@QAEXHH@Z PROC			; SimMoverClass::SetSwitch, COMDAT
; _this$ = ecx

; 134  : 	void SetSwitch (int num, int val) { ShiAssert(num < numSwitches); if (num < numSwitches) { switchData[num] = val; switchChange[num] = TRUE;} }

	push	ebp
	mov	ebp, esp
	push	ecx
	mov	DWORD PTR _this$[ebp], ecx
	mov	eax, DWORD PTR _this$[ebp]
	mov	ecx, DWORD PTR _num$[ebp]
	cmp	ecx, DWORD PTR [eax+604]
	jge	SHORT $LN2@SetSwitch
	mov	edx, DWORD PTR _this$[ebp]
	mov	eax, DWORD PTR [edx+592]
	mov	ecx, DWORD PTR _num$[ebp]
	mov	edx, DWORD PTR _val$[ebp]
	mov	DWORD PTR [eax+ecx*4], edx
	mov	eax, DWORD PTR _this$[ebp]
	mov	ecx, DWORD PTR [eax+596]
	mov	edx, DWORD PTR _num$[ebp]
	mov	DWORD PTR [ecx+edx*4], 1
$LN2@SetSwitch:
	mov	esp, ebp
	pop	ebp
	ret	8
?SetSwitch@SimMoverClass@@QAEXHH@Z ENDP			; SimMoverClass::SetSwitch
_TEXT	ENDS
; Function compile flags: /Odtp
; File c:\users\zhitao li\documents\visual studio 2012\projects\freefalcon\ui\include\logbook.h
;	COMDAT ?Name@LogBookData@@QAEPADXZ
_TEXT	SEGMENT
_this$ = -4						; size = 4
?Name@LogBookData@@QAEPADXZ PROC			; LogBookData::Name, COMDAT
; _this$ = ecx

; 167  : 	_TCHAR *Name(void)								{return Pilot.Name;}

	push	ebp
	mov	ebp, esp
	push	ecx
	mov	DWORD PTR _this$[ebp], ecx
	mov	eax, DWORD PTR _this$[ebp]
	mov	esp, ebp
	pop	ebp
	ret	0
?Name@LogBookData@@QAEPADXZ ENDP			; LogBookData::Name
_TEXT	ENDS
; Function compile flags: /Odtp
;	COMDAT ??_G_System_error_category@std@@UAEPAXI@Z
_TEXT	SEGMENT
_this$ = -4						; size = 4
___flags$ = 8						; size = 4
??_G_System_error_category@std@@UAEPAXI@Z PROC		; std::_System_error_category::`scalar deleting destructor', COMDAT
; _this$ = ecx
	push	ebp
	mov	ebp, esp
	push	ecx
	mov	DWORD PTR _this$[ebp], ecx
	mov	ecx, DWORD PTR _this$[ebp]
	call	??1_System_error_category@std@@UAE@XZ
	mov	eax, DWORD PTR ___flags$[ebp]
	and	eax, 1
	je	SHORT $LN1@scalar
	mov	ecx, DWORD PTR _this$[ebp]
	push	ecx
	call	??3@YAXPAX@Z				; operator delete
	add	esp, 4
$LN1@scalar:
	mov	eax, DWORD PTR _this$[ebp]
	mov	esp, ebp
	pop	ebp
	ret	4
??_G_System_error_category@std@@UAEPAXI@Z ENDP		; std::_System_error_category::`scalar deleting destructor'
_TEXT	ENDS
; Function compile flags: /Odtp
;	COMDAT ??1_System_error_category@std@@UAE@XZ
_TEXT	SEGMENT
_this$ = -4						; size = 4
??1_System_error_category@std@@UAE@XZ PROC		; std::_System_error_category::~_System_error_category, COMDAT
; _this$ = ecx
	push	ebp
	mov	ebp, esp
	push	ecx
	mov	DWORD PTR _this$[ebp], ecx
	mov	ecx, DWORD PTR _this$[ebp]
	call	??1_Generic_error_category@std@@UAE@XZ
	mov	esp, ebp
	pop	ebp
	ret	0
??1_System_error_category@std@@UAE@XZ ENDP		; std::_System_error_category::~_System_error_category
_TEXT	ENDS
; Function compile flags: /Odtp
; File c:\program files (x86)\microsoft visual studio 11.0\vc\include\system_error
;	COMDAT ?default_error_condition@_System_error_category@std@@UBE?AVerror_condition@2@H@Z
_TEXT	SEGMENT
_this$ = -4						; size = 4
___$ReturnUdt$ = 8					; size = 4
__Errval$ = 12						; size = 4
?default_error_condition@_System_error_category@std@@UBE?AVerror_condition@2@H@Z PROC ; std::_System_error_category::default_error_condition, COMDAT
; _this$ = ecx

; 641  : 		{	// make error_condition for error code (generic if possible)

	push	ebp
	mov	ebp, esp
	push	ecx
	mov	DWORD PTR _this$[ebp], ecx

; 642  : 		if (_Syserror_map(_Errval))

	mov	eax, DWORD PTR __Errval$[ebp]
	push	eax
	call	?_Syserror_map@std@@YAPBDH@Z		; std::_Syserror_map
	add	esp, 4
	test	eax, eax
	je	SHORT $LN2@default_er

; 643  : 			return (error_condition(_Errval, generic_category()));

	call	?generic_category@std@@YAABVerror_category@1@XZ ; std::generic_category
	push	eax
	mov	ecx, DWORD PTR __Errval$[ebp]
	push	ecx
	mov	ecx, DWORD PTR ___$ReturnUdt$[ebp]
	call	??0error_condition@std@@QAE@HABVerror_category@1@@Z ; std::error_condition::error_condition
	mov	eax, DWORD PTR ___$ReturnUdt$[ebp]
	jmp	SHORT $LN3@default_er

; 644  : 		else

	jmp	SHORT $LN3@default_er
$LN2@default_er:

; 645  : 			return (error_condition(_Errval, system_category()));

	call	?system_category@std@@YAABVerror_category@1@XZ ; std::system_category
	push	eax
	mov	edx, DWORD PTR __Errval$[ebp]
	push	edx
	mov	ecx, DWORD PTR ___$ReturnUdt$[ebp]
	call	??0error_condition@std@@QAE@HABVerror_category@1@@Z ; std::error_condition::error_condition
	mov	eax, DWORD PTR ___$ReturnUdt$[ebp]
$LN3@default_er:

; 646  : 		}

	mov	esp, ebp
	pop	ebp
	ret	8
?default_error_condition@_System_error_category@std@@UBE?AVerror_condition@2@H@Z ENDP ; std::_System_error_category::default_error_condition
_TEXT	ENDS
; Function compile flags: /Odtp
; File c:\program files (x86)\microsoft visual studio 11.0\vc\include\system_error
;	COMDAT ?message@_System_error_category@std@@UBE?AV?$basic_string@DU?$char_traits@D@std@@V?$allocator@D@2@@2@H@Z
_TEXT	SEGMENT
_this$ = -16						; size = 4
$T1 = -12						; size = 4
tv69 = -8						; size = 4
__Name$ = -4						; size = 4
___$ReturnUdt$ = 8					; size = 4
__Errcode$ = 12						; size = 4
?message@_System_error_category@std@@UBE?AV?$basic_string@DU?$char_traits@D@std@@V?$allocator@D@2@@2@H@Z PROC ; std::_System_error_category::message, COMDAT
; _this$ = ecx

; 634  : 		{	// convert to name of error

	push	ebp
	mov	ebp, esp
	sub	esp, 16					; 00000010H
	mov	DWORD PTR _this$[ebp], ecx
	mov	DWORD PTR $T1[ebp], 0

; 635  : 		const char *_Name = _Winerror_map(_Errcode);

	mov	eax, DWORD PTR __Errcode$[ebp]
	push	eax
	call	?_Winerror_map@std@@YAPBDH@Z		; std::_Winerror_map
	add	esp, 4
	mov	DWORD PTR __Name$[ebp], eax

; 636  : 		return (string(_Name != 0 ? _Name : "unknown error"));

	cmp	DWORD PTR __Name$[ebp], 0
	je	SHORT $LN3@message
	mov	ecx, DWORD PTR __Name$[ebp]
	mov	DWORD PTR tv69[ebp], ecx
	jmp	SHORT $LN4@message
$LN3@message:
	mov	DWORD PTR tv69[ebp], OFFSET ??_C@_0O@BFJCFAAK@unknown?5error?$AA@
$LN4@message:
	mov	edx, DWORD PTR tv69[ebp]
	push	edx
	mov	ecx, DWORD PTR ___$ReturnUdt$[ebp]
	call	??0?$basic_string@DU?$char_traits@D@std@@V?$allocator@D@2@@std@@QAE@PBD@Z ; std::basic_string<char,std::char_traits<char>,std::allocator<char> >::basic_string<char,std::char_traits<char>,std::allocator<char> >
	mov	eax, DWORD PTR $T1[ebp]
	or	eax, 1
	mov	DWORD PTR $T1[ebp], eax
	mov	eax, DWORD PTR ___$ReturnUdt$[ebp]

; 637  : 		}

	mov	esp, ebp
	pop	ebp
	ret	8
?message@_System_error_category@std@@UBE?AV?$basic_string@DU?$char_traits@D@std@@V?$allocator@D@2@@2@H@Z ENDP ; std::_System_error_category::message
_TEXT	ENDS
; Function compile flags: /Odtp
; File c:\program files (x86)\microsoft visual studio 11.0\vc\include\system_error
;	COMDAT ?name@_System_error_category@std@@UBEPBDXZ
_TEXT	SEGMENT
_this$ = -4						; size = 4
?name@_System_error_category@std@@UBEPBDXZ PROC		; std::_System_error_category::name, COMDAT
; _this$ = ecx

; 629  : 		{	// get name of category

	push	ebp
	mov	ebp, esp
	push	ecx
	mov	DWORD PTR _this$[ebp], ecx

; 630  : 		return ("system");

	mov	eax, OFFSET ??_C@_06FHFOAHML@system?$AA@

; 631  : 		}

	mov	esp, ebp
	pop	ebp
	ret	0
?name@_System_error_category@std@@UBEPBDXZ ENDP		; std::_System_error_category::name
_TEXT	ENDS
; Function compile flags: /Odtp
; File c:\program files (x86)\microsoft visual studio 11.0\vc\include\system_error
;	COMDAT ??0_System_error_category@std@@QAE@XZ
_TEXT	SEGMENT
_this$ = -4						; size = 4
??0_System_error_category@std@@QAE@XZ PROC		; std::_System_error_category::_System_error_category, COMDAT
; _this$ = ecx

; 624  : 	_System_error_category()

	push	ebp
	mov	ebp, esp
	push	ecx
	mov	DWORD PTR _this$[ebp], ecx
	mov	ecx, DWORD PTR _this$[ebp]
	call	??0_Generic_error_category@std@@QAE@XZ	; std::_Generic_error_category::_Generic_error_category
	mov	eax, DWORD PTR _this$[ebp]
	mov	DWORD PTR [eax], OFFSET ??_7_System_error_category@std@@6B@

; 625  : 		{	// default constructor
; 626  : 		}

	mov	eax, DWORD PTR _this$[ebp]
	mov	esp, ebp
	pop	ebp
	ret	0
??0_System_error_category@std@@QAE@XZ ENDP		; std::_System_error_category::_System_error_category
_TEXT	ENDS
; Function compile flags: /Odtp
;	COMDAT ??_G_Iostream_error_category@std@@UAEPAXI@Z
_TEXT	SEGMENT
_this$ = -4						; size = 4
___flags$ = 8						; size = 4
??_G_Iostream_error_category@std@@UAEPAXI@Z PROC	; std::_Iostream_error_category::`scalar deleting destructor', COMDAT
; _this$ = ecx
	push	ebp
	mov	ebp, esp
	push	ecx
	mov	DWORD PTR _this$[ebp], ecx
	mov	ecx, DWORD PTR _this$[ebp]
	call	??1_Iostream_error_category@std@@UAE@XZ
	mov	eax, DWORD PTR ___flags$[ebp]
	and	eax, 1
	je	SHORT $LN1@scalar
	mov	ecx, DWORD PTR _this$[ebp]
	push	ecx
	call	??3@YAXPAX@Z				; operator delete
	add	esp, 4
$LN1@scalar:
	mov	eax, DWORD PTR _this$[ebp]
	mov	esp, ebp
	pop	ebp
	ret	4
??_G_Iostream_error_category@std@@UAEPAXI@Z ENDP	; std::_Iostream_error_category::`scalar deleting destructor'
_TEXT	ENDS
; Function compile flags: /Odtp
;	COMDAT ??1_Iostream_error_category@std@@UAE@XZ
_TEXT	SEGMENT
_this$ = -4						; size = 4
??1_Iostream_error_category@std@@UAE@XZ PROC		; std::_Iostream_error_category::~_Iostream_error_category, COMDAT
; _this$ = ecx
	push	ebp
	mov	ebp, esp
	push	ecx
	mov	DWORD PTR _this$[ebp], ecx
	mov	ecx, DWORD PTR _this$[ebp]
	call	??1_Generic_error_category@std@@UAE@XZ
	mov	esp, ebp
	pop	ebp
	ret	0
??1_Iostream_error_category@std@@UAE@XZ ENDP		; std::_Iostream_error_category::~_Iostream_error_category
_TEXT	ENDS
; Function compile flags: /Odtp
; File c:\program files (x86)\microsoft visual studio 11.0\vc\include\system_error
;	COMDAT ?message@_Iostream_error_category@std@@UBE?AV?$basic_string@DU?$char_traits@D@std@@V?$allocator@D@2@@2@H@Z
_TEXT	SEGMENT
_this$ = -8						; size = 4
$T1 = -4						; size = 4
___$ReturnUdt$ = 8					; size = 4
__Errcode$ = 12						; size = 4
?message@_Iostream_error_category@std@@UBE?AV?$basic_string@DU?$char_traits@D@std@@V?$allocator@D@2@@2@H@Z PROC ; std::_Iostream_error_category::message, COMDAT
; _this$ = ecx

; 611  : 		{	// convert to name of error

	push	ebp
	mov	ebp, esp
	sub	esp, 8
	mov	DWORD PTR _this$[ebp], ecx
	mov	DWORD PTR $T1[ebp], 0

; 612  : 		if (_Errcode == (int)io_errc::stream)

	cmp	DWORD PTR __Errcode$[ebp], 1
	jne	SHORT $LN2@message

; 613  : 			return ("iostream stream error");

	push	OFFSET ??_C@_0BG@PADBLCHM@iostream?5stream?5error?$AA@
	mov	ecx, DWORD PTR ___$ReturnUdt$[ebp]
	call	??0?$basic_string@DU?$char_traits@D@std@@V?$allocator@D@2@@std@@QAE@PBD@Z ; std::basic_string<char,std::char_traits<char>,std::allocator<char> >::basic_string<char,std::char_traits<char>,std::allocator<char> >
	mov	eax, DWORD PTR $T1[ebp]
	or	eax, 1
	mov	DWORD PTR $T1[ebp], eax
	mov	eax, DWORD PTR ___$ReturnUdt$[ebp]
	jmp	SHORT $LN3@message

; 614  : 		else

	jmp	SHORT $LN3@message
$LN2@message:

; 615  : 			return (_Generic_error_category::message(_Errcode));

	mov	ecx, DWORD PTR __Errcode$[ebp]
	push	ecx
	mov	edx, DWORD PTR ___$ReturnUdt$[ebp]
	push	edx
	mov	ecx, DWORD PTR _this$[ebp]
	call	?message@_Generic_error_category@std@@UBE?AV?$basic_string@DU?$char_traits@D@std@@V?$allocator@D@2@@2@H@Z ; std::_Generic_error_category::message
	mov	eax, DWORD PTR $T1[ebp]
	or	eax, 1
	mov	DWORD PTR $T1[ebp], eax
	mov	eax, DWORD PTR ___$ReturnUdt$[ebp]
$LN3@message:

; 616  : 		}

	mov	esp, ebp
	pop	ebp
	ret	8
?message@_Iostream_error_category@std@@UBE?AV?$basic_string@DU?$char_traits@D@std@@V?$allocator@D@2@@2@H@Z ENDP ; std::_Iostream_error_category::message
_TEXT	ENDS
; Function compile flags: /Odtp
; File c:\program files (x86)\microsoft visual studio 11.0\vc\include\system_error
;	COMDAT ?name@_Iostream_error_category@std@@UBEPBDXZ
_TEXT	SEGMENT
_this$ = -4						; size = 4
?name@_Iostream_error_category@std@@UBEPBDXZ PROC	; std::_Iostream_error_category::name, COMDAT
; _this$ = ecx

; 606  : 		{	// get name of category

	push	ebp
	mov	ebp, esp
	push	ecx
	mov	DWORD PTR _this$[ebp], ecx

; 607  : 		return ("iostream");

	mov	eax, OFFSET ??_C@_08LLGCOLLL@iostream?$AA@

; 608  : 		}

	mov	esp, ebp
	pop	ebp
	ret	0
?name@_Iostream_error_category@std@@UBEPBDXZ ENDP	; std::_Iostream_error_category::name
_TEXT	ENDS
; Function compile flags: /Odtp
; File c:\program files (x86)\microsoft visual studio 11.0\vc\include\system_error
;	COMDAT ??0_Iostream_error_category@std@@QAE@XZ
_TEXT	SEGMENT
_this$ = -4						; size = 4
??0_Iostream_error_category@std@@QAE@XZ PROC		; std::_Iostream_error_category::_Iostream_error_category, COMDAT
; _this$ = ecx

; 601  : 	_Iostream_error_category()

	push	ebp
	mov	ebp, esp
	push	ecx
	mov	DWORD PTR _this$[ebp], ecx
	mov	ecx, DWORD PTR _this$[ebp]
	call	??0_Generic_error_category@std@@QAE@XZ	; std::_Generic_error_category::_Generic_error_category
	mov	eax, DWORD PTR _this$[ebp]
	mov	DWORD PTR [eax], OFFSET ??_7_Iostream_error_category@std@@6B@

; 602  : 		{	// default constructor
; 603  : 		}

	mov	eax, DWORD PTR _this$[ebp]
	mov	esp, ebp
	pop	ebp
	ret	0
??0_Iostream_error_category@std@@QAE@XZ ENDP		; std::_Iostream_error_category::_Iostream_error_category
_TEXT	ENDS
; Function compile flags: /Odtp
;	COMDAT ??_G_Generic_error_category@std@@UAEPAXI@Z
_TEXT	SEGMENT
_this$ = -4						; size = 4
___flags$ = 8						; size = 4
??_G_Generic_error_category@std@@UAEPAXI@Z PROC		; std::_Generic_error_category::`scalar deleting destructor', COMDAT
; _this$ = ecx
	push	ebp
	mov	ebp, esp
	push	ecx
	mov	DWORD PTR _this$[ebp], ecx
	mov	ecx, DWORD PTR _this$[ebp]
	call	??1_Generic_error_category@std@@UAE@XZ
	mov	eax, DWORD PTR ___flags$[ebp]
	and	eax, 1
	je	SHORT $LN1@scalar
	mov	ecx, DWORD PTR _this$[ebp]
	push	ecx
	call	??3@YAXPAX@Z				; operator delete
	add	esp, 4
$LN1@scalar:
	mov	eax, DWORD PTR _this$[ebp]
	mov	esp, ebp
	pop	ebp
	ret	4
??_G_Generic_error_category@std@@UAEPAXI@Z ENDP		; std::_Generic_error_category::`scalar deleting destructor'
_TEXT	ENDS
; Function compile flags: /Odtp
;	COMDAT ??1_Generic_error_category@std@@UAE@XZ
_TEXT	SEGMENT
_this$ = -4						; size = 4
??1_Generic_error_category@std@@UAE@XZ PROC		; std::_Generic_error_category::~_Generic_error_category, COMDAT
; _this$ = ecx
	push	ebp
	mov	ebp, esp
	push	ecx
	mov	DWORD PTR _this$[ebp], ecx
	mov	ecx, DWORD PTR _this$[ebp]
	call	??1error_category@std@@UAE@XZ		; std::error_category::~error_category
	mov	esp, ebp
	pop	ebp
	ret	0
??1_Generic_error_category@std@@UAE@XZ ENDP		; std::_Generic_error_category::~_Generic_error_category
_TEXT	ENDS
; Function compile flags: /Odtp
; File c:\program files (x86)\microsoft visual studio 11.0\vc\include\system_error
;	COMDAT ?message@_Generic_error_category@std@@UBE?AV?$basic_string@DU?$char_traits@D@std@@V?$allocator@D@2@@2@H@Z
_TEXT	SEGMENT
_this$ = -16						; size = 4
$T1 = -12						; size = 4
tv69 = -8						; size = 4
__Name$ = -4						; size = 4
___$ReturnUdt$ = 8					; size = 4
__Errcode$ = 12						; size = 4
?message@_Generic_error_category@std@@UBE?AV?$basic_string@DU?$char_traits@D@std@@V?$allocator@D@2@@2@H@Z PROC ; std::_Generic_error_category::message, COMDAT
; _this$ = ecx

; 590  : 		{	// convert to name of error

	push	ebp
	mov	ebp, esp
	sub	esp, 16					; 00000010H
	mov	DWORD PTR _this$[ebp], ecx
	mov	DWORD PTR $T1[ebp], 0

; 591  : 		const char *_Name = _Syserror_map(_Errcode);

	mov	eax, DWORD PTR __Errcode$[ebp]
	push	eax
	call	?_Syserror_map@std@@YAPBDH@Z		; std::_Syserror_map
	add	esp, 4
	mov	DWORD PTR __Name$[ebp], eax

; 592  : 		return (string(_Name != 0 ? _Name : "unknown error"));

	cmp	DWORD PTR __Name$[ebp], 0
	je	SHORT $LN3@message
	mov	ecx, DWORD PTR __Name$[ebp]
	mov	DWORD PTR tv69[ebp], ecx
	jmp	SHORT $LN4@message
$LN3@message:
	mov	DWORD PTR tv69[ebp], OFFSET ??_C@_0O@BFJCFAAK@unknown?5error?$AA@
$LN4@message:
	mov	edx, DWORD PTR tv69[ebp]
	push	edx
	mov	ecx, DWORD PTR ___$ReturnUdt$[ebp]
	call	??0?$basic_string@DU?$char_traits@D@std@@V?$allocator@D@2@@std@@QAE@PBD@Z ; std::basic_string<char,std::char_traits<char>,std::allocator<char> >::basic_string<char,std::char_traits<char>,std::allocator<char> >
	mov	eax, DWORD PTR $T1[ebp]
	or	eax, 1
	mov	DWORD PTR $T1[ebp], eax
	mov	eax, DWORD PTR ___$ReturnUdt$[ebp]

; 593  : 		}

	mov	esp, ebp
	pop	ebp
	ret	8
?message@_Generic_error_category@std@@UBE?AV?$basic_string@DU?$char_traits@D@std@@V?$allocator@D@2@@2@H@Z ENDP ; std::_Generic_error_category::message
_TEXT	ENDS
; Function compile flags: /Odtp
; File c:\program files (x86)\microsoft visual studio 11.0\vc\include\system_error
;	COMDAT ?name@_Generic_error_category@std@@UBEPBDXZ
_TEXT	SEGMENT
_this$ = -4						; size = 4
?name@_Generic_error_category@std@@UBEPBDXZ PROC	; std::_Generic_error_category::name, COMDAT
; _this$ = ecx

; 585  : 		{	// get name of category

	push	ebp
	mov	ebp, esp
	push	ecx
	mov	DWORD PTR _this$[ebp], ecx

; 586  : 		return ("generic");

	mov	eax, OFFSET ??_C@_07DCLBNMLN@generic?$AA@

; 587  : 		}

	mov	esp, ebp
	pop	ebp
	ret	0
?name@_Generic_error_category@std@@UBEPBDXZ ENDP	; std::_Generic_error_category::name
_TEXT	ENDS
; Function compile flags: /Odtp
; File c:\program files (x86)\microsoft visual studio 11.0\vc\include\system_error
;	COMDAT ??0_Generic_error_category@std@@QAE@XZ
_TEXT	SEGMENT
_this$ = -4						; size = 4
??0_Generic_error_category@std@@QAE@XZ PROC		; std::_Generic_error_category::_Generic_error_category, COMDAT
; _this$ = ecx

; 580  : 	_Generic_error_category()

	push	ebp
	mov	ebp, esp
	push	ecx
	mov	DWORD PTR _this$[ebp], ecx
	mov	ecx, DWORD PTR _this$[ebp]
	call	??0error_category@std@@QAE@XZ		; std::error_category::error_category
	mov	eax, DWORD PTR _this$[ebp]
	mov	DWORD PTR [eax], OFFSET ??_7_Generic_error_category@std@@6B@

; 581  : 		{	// default constructor
; 582  : 		}

	mov	eax, DWORD PTR _this$[ebp]
	mov	esp, ebp
	pop	ebp
	ret	0
??0_Generic_error_category@std@@QAE@XZ ENDP		; std::_Generic_error_category::_Generic_error_category
_TEXT	ENDS
; Function compile flags: /Odtp
; File c:\program files (x86)\microsoft visual studio 11.0\vc\include\system_error
;	COMDAT ??8error_condition@std@@QBE_NABV01@@Z
_TEXT	SEGMENT
tv78 = -8						; size = 4
_this$ = -4						; size = 4
__Right$ = 8						; size = 4
??8error_condition@std@@QBE_NABV01@@Z PROC		; std::error_condition::operator==, COMDAT
; _this$ = ecx

; 376  : 		{	// test if *this == _Right

	push	ebp
	mov	ebp, esp
	sub	esp, 8
	push	esi
	mov	DWORD PTR _this$[ebp], ecx

; 377  : 		return (category() == _Right.category()
; 378  : 			&& value() == _Right.value());

	mov	ecx, DWORD PTR __Right$[ebp]
	call	?category@error_condition@std@@QBEABVerror_category@2@XZ ; std::error_condition::category
	push	eax
	mov	ecx, DWORD PTR _this$[ebp]
	call	?category@error_condition@std@@QBEABVerror_category@2@XZ ; std::error_condition::category
	mov	ecx, eax
	call	??8error_category@std@@QBE_NABV01@@Z	; std::error_category::operator==
	movzx	eax, al
	test	eax, eax
	je	SHORT $LN3@operator
	mov	ecx, DWORD PTR _this$[ebp]
	call	?value@error_condition@std@@QBEHXZ	; std::error_condition::value
	mov	esi, eax
	mov	ecx, DWORD PTR __Right$[ebp]
	call	?value@error_condition@std@@QBEHXZ	; std::error_condition::value
	cmp	esi, eax
	jne	SHORT $LN3@operator
	mov	DWORD PTR tv78[ebp], 1
	jmp	SHORT $LN4@operator
$LN3@operator:
	mov	DWORD PTR tv78[ebp], 0
$LN4@operator:
	mov	al, BYTE PTR tv78[ebp]

; 379  : 		}

	pop	esi
	mov	esp, ebp
	pop	ebp
	ret	4
??8error_condition@std@@QBE_NABV01@@Z ENDP		; std::error_condition::operator==
_TEXT	ENDS
; Function compile flags: /Odtp
; File c:\program files (x86)\microsoft visual studio 11.0\vc\include\system_error
;	COMDAT ?category@error_condition@std@@QBEABVerror_category@2@XZ
_TEXT	SEGMENT
_this$ = -4						; size = 4
?category@error_condition@std@@QBEABVerror_category@2@XZ PROC ; std::error_condition::category, COMDAT
; _this$ = ecx

; 354  : 		{	// get category

	push	ebp
	mov	ebp, esp
	push	ecx
	mov	DWORD PTR _this$[ebp], ecx

; 355  : 		return (*_Mycat);

	mov	eax, DWORD PTR _this$[ebp]
	mov	eax, DWORD PTR [eax+4]

; 356  : 		}

	mov	esp, ebp
	pop	ebp
	ret	0
?category@error_condition@std@@QBEABVerror_category@2@XZ ENDP ; std::error_condition::category
_TEXT	ENDS
; Function compile flags: /Odtp
; File c:\program files (x86)\microsoft visual studio 11.0\vc\include\system_error
;	COMDAT ?value@error_condition@std@@QBEHXZ
_TEXT	SEGMENT
_this$ = -4						; size = 4
?value@error_condition@std@@QBEHXZ PROC			; std::error_condition::value, COMDAT
; _this$ = ecx

; 349  : 		{	// get error code

	push	ebp
	mov	ebp, esp
	push	ecx
	mov	DWORD PTR _this$[ebp], ecx

; 350  : 		return (_Myval);

	mov	eax, DWORD PTR _this$[ebp]
	mov	eax, DWORD PTR [eax]

; 351  : 		}

	mov	esp, ebp
	pop	ebp
	ret	0
?value@error_condition@std@@QBEHXZ ENDP			; std::error_condition::value
_TEXT	ENDS
; Function compile flags: /Odtp
; File c:\program files (x86)\microsoft visual studio 11.0\vc\include\system_error
;	COMDAT ??0error_condition@std@@QAE@HABVerror_category@1@@Z
_TEXT	SEGMENT
_this$ = -4						; size = 4
__Val$ = 8						; size = 4
__Cat$ = 12						; size = 4
??0error_condition@std@@QAE@HABVerror_category@1@@Z PROC ; std::error_condition::error_condition, COMDAT
; _this$ = ecx

; 316  : 		{	// construct from error code and category

	push	ebp
	mov	ebp, esp
	push	ecx
	mov	DWORD PTR _this$[ebp], ecx
	mov	eax, DWORD PTR _this$[ebp]
	mov	ecx, DWORD PTR __Val$[ebp]
	mov	DWORD PTR [eax], ecx
	mov	edx, DWORD PTR _this$[ebp]
	mov	eax, DWORD PTR __Cat$[ebp]
	mov	DWORD PTR [edx+4], eax

; 317  : 		}

	mov	eax, DWORD PTR _this$[ebp]
	mov	esp, ebp
	pop	ebp
	ret	8
??0error_condition@std@@QAE@HABVerror_category@1@@Z ENDP ; std::error_condition::error_condition
_TEXT	ENDS
; Function compile flags: /Odtp
; File c:\program files (x86)\microsoft visual studio 11.0\vc\include\system_error
;	COMDAT ?category@error_code@std@@QBEABVerror_category@2@XZ
_TEXT	SEGMENT
_this$ = -4						; size = 4
?category@error_code@std@@QBEABVerror_category@2@XZ PROC ; std::error_code::category, COMDAT
; _this$ = ecx

; 256  : 		{	// get category

	push	ebp
	mov	ebp, esp
	push	ecx
	mov	DWORD PTR _this$[ebp], ecx

; 257  : 		return (*_Mycat);

	mov	eax, DWORD PTR _this$[ebp]
	mov	eax, DWORD PTR [eax+4]

; 258  : 		}

	mov	esp, ebp
	pop	ebp
	ret	0
?category@error_code@std@@QBEABVerror_category@2@XZ ENDP ; std::error_code::category
_TEXT	ENDS
; Function compile flags: /Odtp
; File c:\program files (x86)\microsoft visual studio 11.0\vc\include\system_error
;	COMDAT ?value@error_code@std@@QBEHXZ
_TEXT	SEGMENT
_this$ = -4						; size = 4
?value@error_code@std@@QBEHXZ PROC			; std::error_code::value, COMDAT
; _this$ = ecx

; 251  : 		{	// get error code

	push	ebp
	mov	ebp, esp
	push	ecx
	mov	DWORD PTR _this$[ebp], ecx

; 252  : 		return (_Myval);

	mov	eax, DWORD PTR _this$[ebp]
	mov	eax, DWORD PTR [eax]

; 253  : 		}

	mov	esp, ebp
	pop	ebp
	ret	0
?value@error_code@std@@QBEHXZ ENDP			; std::error_code::value
_TEXT	ENDS
; Function compile flags: /Odtp
;	COMDAT ??_Gerror_category@std@@UAEPAXI@Z
_TEXT	SEGMENT
_this$ = -4						; size = 4
___flags$ = 8						; size = 4
??_Gerror_category@std@@UAEPAXI@Z PROC			; std::error_category::`scalar deleting destructor', COMDAT
; _this$ = ecx
	push	ebp
	mov	ebp, esp
	push	ecx
	mov	DWORD PTR _this$[ebp], ecx
	mov	ecx, DWORD PTR _this$[ebp]
	call	??1error_category@std@@UAE@XZ		; std::error_category::~error_category
	mov	eax, DWORD PTR ___flags$[ebp]
	and	eax, 1
	je	SHORT $LN1@scalar
	mov	ecx, DWORD PTR _this$[ebp]
	push	ecx
	call	??3@YAXPAX@Z				; operator delete
	add	esp, 4
$LN1@scalar:
	mov	eax, DWORD PTR _this$[ebp]
	mov	esp, ebp
	pop	ebp
	ret	4
??_Gerror_category@std@@UAEPAXI@Z ENDP			; std::error_category::`scalar deleting destructor'
_TEXT	ENDS
; Function compile flags: /Odtp
; File c:\program files (x86)\microsoft visual studio 11.0\vc\include\system_error
;	COMDAT ??8error_category@std@@QBE_NABV01@@Z
_TEXT	SEGMENT
_this$ = -8						; size = 4
tv65 = -4						; size = 4
__Right$ = 8						; size = 4
??8error_category@std@@QBE_NABV01@@Z PROC		; std::error_category::operator==, COMDAT
; _this$ = ecx

; 184  : 		{	// compare categories for equality

	push	ebp
	mov	ebp, esp
	sub	esp, 8
	mov	DWORD PTR _this$[ebp], ecx

; 185  : 		return (this == &_Right);

	mov	eax, DWORD PTR _this$[ebp]
	cmp	eax, DWORD PTR __Right$[ebp]
	jne	SHORT $LN3@operator
	mov	DWORD PTR tv65[ebp], 1
	jmp	SHORT $LN4@operator
$LN3@operator:
	mov	DWORD PTR tv65[ebp], 0
$LN4@operator:
	mov	al, BYTE PTR tv65[ebp]

; 186  : 		}

	mov	esp, ebp
	pop	ebp
	ret	4
??8error_category@std@@QBE_NABV01@@Z ENDP		; std::error_category::operator==
_TEXT	ENDS
; Function compile flags: /Odtp
; File c:\program files (x86)\microsoft visual studio 11.0\vc\include\system_error
;	COMDAT ?equivalent@error_category@std@@UBE_NABVerror_code@2@H@Z
_TEXT	SEGMENT
_this$ = -8						; size = 4
tv74 = -4						; size = 4
__Code$ = 8						; size = 4
__Errval$ = 12						; size = 4
?equivalent@error_category@std@@UBE_NABVerror_code@2@H@Z PROC ; std::error_category::equivalent, COMDAT
; _this$ = ecx

; 415  : 	{	// test if conditions same for this category

	push	ebp
	mov	ebp, esp
	sub	esp, 8
	mov	DWORD PTR _this$[ebp], ecx

; 416  : 	return (*this == _Code.category() && _Code.value() == _Errval);

	mov	ecx, DWORD PTR __Code$[ebp]
	call	?category@error_code@std@@QBEABVerror_category@2@XZ ; std::error_code::category
	push	eax
	mov	ecx, DWORD PTR _this$[ebp]
	call	??8error_category@std@@QBE_NABV01@@Z	; std::error_category::operator==
	movzx	eax, al
	test	eax, eax
	je	SHORT $LN3@equivalent
	mov	ecx, DWORD PTR __Code$[ebp]
	call	?value@error_code@std@@QBEHXZ		; std::error_code::value
	cmp	eax, DWORD PTR __Errval$[ebp]
	jne	SHORT $LN3@equivalent
	mov	DWORD PTR tv74[ebp], 1
	jmp	SHORT $LN4@equivalent
$LN3@equivalent:
	mov	DWORD PTR tv74[ebp], 0
$LN4@equivalent:
	mov	al, BYTE PTR tv74[ebp]

; 417  : 	}

	mov	esp, ebp
	pop	ebp
	ret	8
?equivalent@error_category@std@@UBE_NABVerror_code@2@H@Z ENDP ; std::error_category::equivalent
_TEXT	ENDS
; Function compile flags: /Odtp
; File c:\program files (x86)\microsoft visual studio 11.0\vc\include\system_error
;	COMDAT ?equivalent@error_category@std@@UBE_NHABVerror_condition@2@@Z
_TEXT	SEGMENT
$T1 = -12						; size = 8
_this$ = -4						; size = 4
__Errval$ = 8						; size = 4
__Cond$ = 12						; size = 4
?equivalent@error_category@std@@UBE_NHABVerror_condition@2@@Z PROC ; std::error_category::equivalent, COMDAT
; _this$ = ecx

; 408  : 	{	// test if error code same condition

	push	ebp
	mov	ebp, esp
	sub	esp, 12					; 0000000cH
	mov	DWORD PTR _this$[ebp], ecx

; 409  : 	return (default_error_condition(_Errval) == _Cond);

	mov	eax, DWORD PTR __Cond$[ebp]
	push	eax
	mov	ecx, DWORD PTR __Errval$[ebp]
	push	ecx
	lea	edx, DWORD PTR $T1[ebp]
	push	edx
	mov	eax, DWORD PTR _this$[ebp]
	mov	edx, DWORD PTR [eax]
	mov	ecx, DWORD PTR _this$[ebp]
	mov	eax, DWORD PTR [edx+12]
	call	eax
	mov	ecx, eax
	call	??8error_condition@std@@QBE_NABV01@@Z	; std::error_condition::operator==

; 410  : 	}

	mov	esp, ebp
	pop	ebp
	ret	8
?equivalent@error_category@std@@UBE_NHABVerror_condition@2@@Z ENDP ; std::error_category::equivalent
_TEXT	ENDS
; Function compile flags: /Odtp
; File c:\program files (x86)\microsoft visual studio 11.0\vc\include\system_error
;	COMDAT ?default_error_condition@error_category@std@@UBE?AVerror_condition@2@H@Z
_TEXT	SEGMENT
_this$ = -4						; size = 4
___$ReturnUdt$ = 8					; size = 4
__Errval$ = 12						; size = 4
?default_error_condition@error_category@std@@UBE?AVerror_condition@2@H@Z PROC ; std::error_category::default_error_condition, COMDAT
; _this$ = ecx

; 401  : 	{	// make error_condition for error code

	push	ebp
	mov	ebp, esp
	push	ecx
	mov	DWORD PTR _this$[ebp], ecx

; 402  : 	return (error_condition(_Errval, *this));

	mov	eax, DWORD PTR _this$[ebp]
	push	eax
	mov	ecx, DWORD PTR __Errval$[ebp]
	push	ecx
	mov	ecx, DWORD PTR ___$ReturnUdt$[ebp]
	call	??0error_condition@std@@QAE@HABVerror_category@1@@Z ; std::error_condition::error_condition
	mov	eax, DWORD PTR ___$ReturnUdt$[ebp]

; 403  : 	}

	mov	esp, ebp
	pop	ebp
	ret	8
?default_error_condition@error_category@std@@UBE?AVerror_condition@2@H@Z ENDP ; std::error_category::default_error_condition
_TEXT	ENDS
; Function compile flags: /Odtp
; File c:\program files (x86)\microsoft visual studio 11.0\vc\include\system_error
;	COMDAT ??1error_category@std@@UAE@XZ
_TEXT	SEGMENT
_this$ = -4						; size = 4
??1error_category@std@@UAE@XZ PROC			; std::error_category::~error_category, COMDAT
; _this$ = ecx

; 167  : 		{	// destroy the object

	push	ebp
	mov	ebp, esp
	push	ecx
	mov	DWORD PTR _this$[ebp], ecx
	mov	eax, DWORD PTR _this$[ebp]
	mov	DWORD PTR [eax], OFFSET ??_7error_category@std@@6B@

; 168  : 		}

	mov	esp, ebp
	pop	ebp
	ret	0
??1error_category@std@@UAE@XZ ENDP			; std::error_category::~error_category
_TEXT	ENDS
; Function compile flags: /Odtp
; File c:\program files (x86)\microsoft visual studio 11.0\vc\include\system_error
;	COMDAT ??0error_category@std@@QAE@XZ
_TEXT	SEGMENT
_this$ = -4						; size = 4
??0error_category@std@@QAE@XZ PROC			; std::error_category::error_category, COMDAT
; _this$ = ecx

; 162  : 	error_category()

	push	ebp
	mov	ebp, esp
	push	ecx
	mov	DWORD PTR _this$[ebp], ecx
	mov	eax, DWORD PTR _this$[ebp]
	mov	DWORD PTR [eax], OFFSET ??_7error_category@std@@6B@

; 163  : 		{	// default constructor
; 164  : 		}

	mov	eax, DWORD PTR _this$[ebp]
	mov	esp, ebp
	pop	ebp
	ret	0
??0error_category@std@@QAE@XZ ENDP			; std::error_category::error_category
_TEXT	ENDS
; Function compile flags: /Odtp
; File c:\program files (x86)\microsoft visual studio 11.0\vc\include\system_error
;	COMDAT ?system_category@std@@YAABVerror_category@1@XZ
_TEXT	SEGMENT
?system_category@std@@YAABVerror_category@1@XZ PROC	; std::system_category, COMDAT

; 679  : 	{	// get system_category

	push	ebp
	mov	ebp, esp

; 680  : 	return (_Error_objects<int>::_System_object);

	mov	eax, OFFSET ?_System_object@?$_Error_objects@H@std@@2V_System_error_category@2@A ; std::_Error_objects<int>::_System_object

; 681  : 	}

	pop	ebp
	ret	0
?system_category@std@@YAABVerror_category@1@XZ ENDP	; std::system_category
_TEXT	ENDS
; Function compile flags: /Odtp
; File c:\program files (x86)\microsoft visual studio 11.0\vc\include\system_error
;	COMDAT ?generic_category@std@@YAABVerror_category@1@XZ
_TEXT	SEGMENT
?generic_category@std@@YAABVerror_category@1@XZ PROC	; std::generic_category, COMDAT

; 669  : 	{	// get generic_category

	push	ebp
	mov	ebp, esp

; 670  : 	return (_Error_objects<int>::_Generic_object);

	mov	eax, OFFSET ?_Generic_object@?$_Error_objects@H@std@@2V_Generic_error_category@2@A ; std::_Error_objects<int>::_Generic_object

; 671  : 	}

	pop	ebp
	ret	0
?generic_category@std@@YAABVerror_category@1@XZ ENDP	; std::generic_category
_TEXT	ENDS
; Function compile flags: /Odtp
; File c:\program files (x86)\microsoft visual studio 11.0\vc\include\xlocale
;	COMDAT ??0id@locale@std@@QAE@I@Z
_TEXT	SEGMENT
_this$ = -4						; size = 4
__Val$ = 8						; size = 4
??0id@locale@std@@QAE@I@Z PROC				; std::locale::id::id, COMDAT
; _this$ = ecx

; 74   : 			{	// construct with specified stamp value

	push	ebp
	mov	ebp, esp
	push	ecx
	mov	DWORD PTR _this$[ebp], ecx
	mov	eax, DWORD PTR _this$[ebp]
	mov	ecx, DWORD PTR __Val$[ebp]
	mov	DWORD PTR [eax], ecx

; 75   : 			}

	mov	eax, DWORD PTR _this$[ebp]
	mov	esp, ebp
	pop	ebp
	ret	4
??0id@locale@std@@QAE@I@Z ENDP				; std::locale::id::id
_TEXT	ENDS
; Function compile flags: /Odtp
;	COMDAT ??_GHeliMMClass@@QAEPAXI@Z
_TEXT	SEGMENT
_this$ = -4						; size = 4
___flags$ = 8						; size = 4
??_GHeliMMClass@@QAEPAXI@Z PROC				; HeliMMClass::`scalar deleting destructor', COMDAT
; _this$ = ecx
	push	ebp
	mov	ebp, esp
	push	ecx
	mov	DWORD PTR _this$[ebp], ecx
	mov	ecx, DWORD PTR _this$[ebp]
	call	??1HeliMMClass@@QAE@XZ			; HeliMMClass::~HeliMMClass
	mov	eax, DWORD PTR ___flags$[ebp]
	and	eax, 1
	je	SHORT $LN1@scalar
	mov	ecx, DWORD PTR _this$[ebp]
	push	ecx
	call	??3@YAXPAX@Z				; operator delete
	add	esp, 4
$LN1@scalar:
	mov	eax, DWORD PTR _this$[ebp]
	mov	esp, ebp
	pop	ebp
	ret	4
??_GHeliMMClass@@QAEPAXI@Z ENDP				; HeliMMClass::`scalar deleting destructor'
_TEXT	ENDS
; Function compile flags: /Odtp
; File c:\users\zhitao li\documents\visual studio 2012\projects\freefalcon\sim\airframe\airframe.cpp
_TEXT	SEGMENT
_this$ = -8						; size = 4
tv67 = -4						; size = 4
?GetParkType@AirframeClass@@QAEHXZ PROC			; AirframeClass::GetParkType
; _this$ = ecx

; 1823 : {

	push	ebp
	mov	ebp, esp
	sub	esp, 8
	mov	DWORD PTR _this$[ebp], ecx

; 1824 : 	return auxaeroData->largePark ? LargeParkPt : SmallParkPt; 

	mov	eax, DWORD PTR _this$[ebp]
	mov	ecx, DWORD PTR [eax+4]
	cmp	DWORD PTR [ecx+2532], 0
	je	SHORT $LN3@GetParkTyp
	mov	DWORD PTR tv67[ebp], 12			; 0000000cH
	jmp	SHORT $LN4@GetParkTyp
$LN3@GetParkTyp:
	mov	DWORD PTR tv67[ebp], 11			; 0000000bH
$LN4@GetParkTyp:
	mov	eax, DWORD PTR tv67[ebp]

; 1825 : }

	mov	esp, ebp
	pop	ebp
	ret	0
?GetParkType@AirframeClass@@QAEHXZ ENDP			; AirframeClass::GetParkType
_TEXT	ENDS
; Function compile flags: /Odtp
; File c:\users\zhitao li\documents\visual studio 2012\projects\freefalcon\sim\airframe\airframe.cpp
_TEXT	SEGMENT
tv340 = -24						; size = 4
_px$ = -20						; size = 4
_py$ = -16						; size = 4
_pz$ = -12						; size = 4
tv80 = -8						; size = 4
_this$ = -4						; size = 4
?RunHeliModel@AirframeClass@@QAEXXZ PROC		; AirframeClass::RunHeliModel
; _this$ = ecx

; 1143 : {

	push	ebp
	mov	ebp, esp
	sub	esp, 24					; 00000018H
	mov	DWORD PTR _this$[ebp], ecx

; 1144 : 	// continue to model gear
; 1145 : 	Axial(SimLibMajorFrameTime);

	push	ecx
	movss	xmm0, DWORD PTR ?SimLibMajorFrameTime@@3MA
	movss	DWORD PTR [esp], xmm0
	mov	ecx, DWORD PTR _this$[ebp]
	call	?Axial@AirframeClass@@AAEXM@Z		; AirframeClass::Axial

; 1146 : 
; 1147 : 	// continue to model engine for rpm and stuff?
; 1148 : 	EngineModel(SimLibMajorFrameTime);

	push	ecx
	movss	xmm0, DWORD PTR ?SimLibMajorFrameTime@@3MA
	movss	DWORD PTR [esp], xmm0
	mov	ecx, DWORD PTR _this$[ebp]
	call	?EngineModel@AirframeClass@@QAEXM@Z	; AirframeClass::EngineModel

; 1149 : 
; 1150 : 	// rpm is about 0.75 at idle
; 1151 : 	throtl = max( 0.0f, (rpm - 0.75f)/0.25f );

	mov	eax, DWORD PTR _this$[ebp]
	movss	xmm0, DWORD PTR [eax+1212]
	subss	xmm0, DWORD PTR __real@3f400000
	divss	xmm0, DWORD PTR __real@3e800000
	movss	xmm1, DWORD PTR __real@00000000
	comiss	xmm1, xmm0
	jbe	SHORT $LN5@RunHeliMod
	movss	xmm0, DWORD PTR __real@00000000
	movss	DWORD PTR tv80[ebp], xmm0
	jmp	SHORT $LN6@RunHeliMod
$LN5@RunHeliMod:
	mov	ecx, DWORD PTR _this$[ebp]
	movss	xmm0, DWORD PTR [ecx+1212]
	subss	xmm0, DWORD PTR __real@3f400000
	divss	xmm0, DWORD PTR __real@3e800000
	movss	DWORD PTR tv80[ebp], xmm0
$LN6@RunHeliMod:
	mov	edx, DWORD PTR _this$[ebp]
	movss	xmm0, DWORD PTR tv80[ebp]
	movss	DWORD PTR [edx+1512], xmm0

; 1152 : 
; 1153 : 	// set stick values
; 1154 :       hf->SetControls( pstick, rstick, throtl, ypedal );

	mov	eax, DWORD PTR _this$[ebp]
	push	ecx
	movss	xmm0, DWORD PTR [eax+1508]
	movss	DWORD PTR [esp], xmm0
	mov	ecx, DWORD PTR _this$[ebp]
	push	ecx
	movss	xmm0, DWORD PTR [ecx+1512]
	movss	DWORD PTR [esp], xmm0
	mov	edx, DWORD PTR _this$[ebp]
	push	ecx
	movss	xmm0, DWORD PTR [edx+1504]
	movss	DWORD PTR [esp], xmm0
	mov	eax, DWORD PTR _this$[ebp]
	push	ecx
	movss	xmm0, DWORD PTR [eax+1500]
	movss	DWORD PTR [esp], xmm0
	mov	ecx, DWORD PTR _this$[ebp]
	mov	ecx, DWORD PTR [ecx+1812]
	call	?SetControls@HeliMMClass@@QAEXMMMM@Z	; HeliMMClass::SetControls

; 1155 : 
; 1156 : 	// exec the helicopter model
; 1157 : 	hf->Exec();

	mov	edx, DWORD PTR _this$[ebp]
	mov	ecx, DWORD PTR [edx+1812]
	call	?Exec@HeliMMClass@@QAEXXZ		; HeliMMClass::Exec

; 1158 : 
; 1159 : 	// copy over heli vars to af vars
; 1160 : 
; 1161 : 	// x,y,z world coords
; 1162 : 	x = hf->XE.x;

	mov	eax, DWORD PTR _this$[ebp]
	mov	ecx, DWORD PTR [eax+1812]
	mov	edx, DWORD PTR _this$[ebp]
	mov	eax, DWORD PTR [ecx+420]
	mov	DWORD PTR [edx+1108], eax

; 1163 : 	y = hf->XE.y;

	mov	ecx, DWORD PTR _this$[ebp]
	mov	edx, DWORD PTR [ecx+1812]
	mov	eax, DWORD PTR _this$[ebp]
	mov	ecx, DWORD PTR [edx+424]
	mov	DWORD PTR [eax+1112], ecx

; 1164 : 	z = hf->XE.z;

	mov	edx, DWORD PTR _this$[ebp]
	mov	eax, DWORD PTR [edx+1812]
	mov	ecx, DWORD PTR _this$[ebp]
	mov	edx, DWORD PTR [eax+428]
	mov	DWORD PTR [ecx+1116], edx

; 1165 : 
; 1166 : 	// NOTE: 
; 1167 : 	//	p	=	roll rate (around X axis)
; 1168 : 	//	q	=	pitch rate (around Y axis)
; 1169 : 	//	r	=	yaw rate (around Z axis)
; 1170 : 	//	phi	=	roll (around X axis)
; 1171 : 	//	theta=	pitch (around Y axis)
; 1172 : 	//	psi	=	yaw (around Z axis)
; 1173 : 	phi = hf->XE.ax;

	mov	eax, DWORD PTR _this$[ebp]
	mov	ecx, DWORD PTR [eax+1812]
	mov	edx, DWORD PTR _this$[ebp]
	mov	eax, DWORD PTR [ecx+432]
	mov	DWORD PTR [edx+1164], eax

; 1174 : 	theta = hf->XE.ay;

	mov	ecx, DWORD PTR _this$[ebp]
	mov	edx, DWORD PTR [ecx+1812]
	mov	eax, DWORD PTR _this$[ebp]
	mov	ecx, DWORD PTR [edx+436]
	mov	DWORD PTR [eax+1160], ecx

; 1175 : 	psi = hf->XE.az;

	mov	edx, DWORD PTR _this$[ebp]
	mov	eax, DWORD PTR [edx+1812]
	mov	ecx, DWORD PTR _this$[ebp]
	mov	edx, DWORD PTR [eax+440]
	mov	DWORD PTR [ecx+1168], edx

; 1176 : 	p = hf->VE.ax;

	mov	eax, DWORD PTR _this$[ebp]
	mov	ecx, DWORD PTR [eax+1812]
	mov	edx, DWORD PTR _this$[ebp]
	mov	eax, DWORD PTR [ecx+336]
	mov	DWORD PTR [edx+1132], eax

; 1177 : 	q = hf->VE.ay;

	mov	ecx, DWORD PTR _this$[ebp]
	mov	edx, DWORD PTR [ecx+1812]
	mov	eax, DWORD PTR _this$[ebp]
	mov	ecx, DWORD PTR [edx+340]
	mov	DWORD PTR [eax+1136], ecx

; 1178 : 	r = hf->VE.az;

	mov	edx, DWORD PTR _this$[ebp]
	mov	eax, DWORD PTR [edx+1812]
	mov	ecx, DWORD PTR _this$[ebp]
	mov	edx, DWORD PTR [eax+344]
	mov	DWORD PTR [ecx+1140], edx

; 1179 : 
; 1180 : 	// sfr: changed
; 1181 : 	xdot = hf->VE.x;

	mov	eax, DWORD PTR _this$[ebp]
	mov	ecx, DWORD PTR [eax+1812]
	mov	edx, DWORD PTR _this$[ebp]
	mov	eax, DWORD PTR [ecx+324]
	mov	DWORD PTR [edx+1196], eax

; 1182 : 	ydot = hf->VE.y;

	mov	ecx, DWORD PTR _this$[ebp]
	mov	edx, DWORD PTR [ecx+1812]
	mov	eax, DWORD PTR _this$[ebp]
	mov	ecx, DWORD PTR [edx+328]
	mov	DWORD PTR [eax+1200], ecx

; 1183 : 	zdot = hf->VE.z;

	mov	edx, DWORD PTR _this$[ebp]
	mov	eax, DWORD PTR [edx+1812]
	mov	ecx, DWORD PTR _this$[ebp]
	mov	edx, DWORD PTR [eax+332]
	mov	DWORD PTR [ecx+1204], edx

; 1184 : 
; 1185 : 	vcas = hf->GetKias;

	mov	eax, DWORD PTR _this$[ebp]
	mov	ecx, DWORD PTR [eax+1812]
	mov	edx, DWORD PTR _this$[ebp]
	mov	eax, DWORD PTR [ecx+812]
	mov	DWORD PTR [edx+1124], eax

; 1186 : 	alpha = hf->alpha;

	mov	ecx, DWORD PTR _this$[ebp]
	mov	edx, DWORD PTR [ecx+1812]
	mov	eax, DWORD PTR _this$[ebp]
	mov	ecx, DWORD PTR [edx+800]
	mov	DWORD PTR [eax+1152], ecx

; 1187 : 	beta = hf->beta;

	mov	edx, DWORD PTR _this$[ebp]
	mov	eax, DWORD PTR [edx+1812]
	mov	ecx, DWORD PTR _this$[ebp]
	mov	edx, DWORD PTR [eax+804]
	mov	DWORD PTR [ecx+1156], edx

; 1188 : 	gmma = hf->gmma;

	mov	eax, DWORD PTR _this$[ebp]
	mov	ecx, DWORD PTR [eax+1812]
	mov	edx, DWORD PTR _this$[ebp]
	mov	eax, DWORD PTR [ecx+816]
	mov	DWORD PTR [edx+1172], eax

; 1189 : 	mu = hf->mu;

	mov	ecx, DWORD PTR _this$[ebp]
	mov	edx, DWORD PTR [ecx+1812]
	mov	eax, DWORD PTR _this$[ebp]
	mov	ecx, DWORD PTR [edx+820]
	mov	DWORD PTR [eax+1180], ecx

; 1190 : 	sigma = hf->sigma;

	mov	edx, DWORD PTR _this$[ebp]
	mov	eax, DWORD PTR [edx+1812]
	mov	ecx, DWORD PTR _this$[ebp]
	mov	edx, DWORD PTR [eax+824]
	mov	DWORD PTR [ecx+1176], edx

; 1191 : 	vt = hf->vta;

	mov	eax, DWORD PTR _this$[ebp]
	mov	ecx, DWORD PTR [eax+1812]
	mov	edx, DWORD PTR _this$[ebp]
	mov	eax, DWORD PTR [ecx+88]
	mov	DWORD PTR [edx+1120], eax

; 1192 : 
; 1193 : 	// Check for ground contact
; 1194 : 	BIG_SCALAR px = x;

	mov	ecx, DWORD PTR _this$[ebp]
	movss	xmm0, DWORD PTR [ecx+1108]
	movss	DWORD PTR _px$[ebp], xmm0

; 1195 : 	BIG_SCALAR py = y;

	mov	edx, DWORD PTR _this$[ebp]
	movss	xmm0, DWORD PTR [edx+1112]
	movss	DWORD PTR _py$[ebp], xmm0

; 1196 : 	BIG_SCALAR pz = z;

	mov	eax, DWORD PTR _this$[ebp]
	movss	xmm0, DWORD PTR [eax+1116]
	movss	DWORD PTR _pz$[ebp], xmm0

; 1197 : 	if ( (IsSet(InAir)) && (pz > -TheMap.GetMEA(px, py)) )

	push	2
	mov	ecx, DWORD PTR _this$[ebp]
	call	?IsSet@AirframeClass@@QBEHH@Z		; AirframeClass::IsSet
	test	eax, eax
	je	$LN1@RunHeliMod
	push	ecx
	movss	xmm0, DWORD PTR _py$[ebp]
	movss	DWORD PTR [esp], xmm0
	push	ecx
	movss	xmm0, DWORD PTR _px$[ebp]
	movss	DWORD PTR [esp], xmm0
	mov	ecx, OFFSET ?TheMap@@3VTMap@@A		; TheMap
	call	?GetMEA@TMap@@QAEMMM@Z			; TMap::GetMEA
	fstp	DWORD PTR tv340[ebp]
	movss	xmm0, DWORD PTR tv340[ebp]
	xorps	xmm0, DWORD PTR __xmm@80000000800000008000000080000000
	movss	xmm1, DWORD PTR _pz$[ebp]
	comiss	xmm1, xmm0
	jbe	SHORT $LN1@RunHeliMod

; 1198 : 	{
; 1199 : 		//Tpoint normal;
; 1200 : 		//float groundZ;
; 1201 : 		
; 1202 : 		//groundZ = OTWDriver.GetGroundLevel(x, y, &normal);
; 1203 : 		
; 1204 : 		if (pz >= groundZ - 5.0F)

	mov	ecx, DWORD PTR _this$[ebp]
	movss	xmm0, DWORD PTR [ecx+1272]
	subss	xmm0, DWORD PTR __real@40a00000
	movss	xmm1, DWORD PTR _pz$[ebp]
	comiss	xmm1, xmm0
	jb	SHORT $LN1@RunHeliMod

; 1205 : 		{
; 1206 : 			platform->SetPosition(px, py, groundZ - 5.0F);

	mov	edx, DWORD PTR _this$[ebp]
	movss	xmm0, DWORD PTR [edx+1272]
	subss	xmm0, DWORD PTR __real@40a00000
	push	ecx
	movss	DWORD PTR [esp], xmm0
	push	ecx
	movss	xmm0, DWORD PTR _py$[ebp]
	movss	DWORD PTR [esp], xmm0
	push	ecx
	movss	xmm0, DWORD PTR _px$[ebp]
	movss	DWORD PTR [esp], xmm0
	mov	eax, DWORD PTR _this$[ebp]
	mov	ecx, DWORD PTR [eax+1088]
	call	?SetPosition@VuEntity@@QAEXMMM@Z	; VuEntity::SetPosition

; 1207 : 			ClearFlag(InAir);

	push	2
	mov	ecx, DWORD PTR _this$[ebp]
	call	?ClearFlag@AirframeClass@@QAEXH@Z	; AirframeClass::ClearFlag
$LN1@RunHeliMod:

; 1208 : 		}
; 1209 : 	}
; 1210 : }

	mov	esp, ebp
	pop	ebp
	ret	0
?RunHeliModel@AirframeClass@@QAEXXZ ENDP		; AirframeClass::RunHeliModel
_TEXT	ENDS
; Function compile flags: /Odtp
; File c:\users\zhitao li\documents\visual studio 2012\projects\freefalcon\sim\airframe\airframe.cpp
_TEXT	SEGMENT
_lbs$ = -16						; size = 4
_fullfuel$ = -12					; size = 4
_i$1 = -8						; size = 4
_this$ = -4						; size = 4
?ResetFuel@AirframeClass@@QAEXXZ PROC			; AirframeClass::ResetFuel
; _this$ = ecx

; 1312 : {

	push	ebp
	mov	ebp, esp
	sub	esp, 16					; 00000010H
	mov	DWORD PTR _this$[ebp], ecx

; 1313 :         float lbs = aeroDataset[vehicleIndex].inputData[AeroDataSet::InternalFuel] - fuel; // JPO - use the constant...

	mov	eax, DWORD PTR _this$[ebp]
	movsx	ecx, WORD PTR [eax+92]
	imul	ecx, 220				; 000000dcH
	add	ecx, DWORD PTR ?aeroDataset@@3PAVAeroDataSet@@A ; aeroDataset
	mov	edx, 4
	shl	edx, 1
	mov	eax, DWORD PTR _this$[ebp]
	movss	xmm0, DWORD PTR [ecx+edx+16]
	subss	xmm0, DWORD PTR [eax+20]
	movss	DWORD PTR _lbs$[ebp], xmm0

; 1314 : 	weight += lbs;

	mov	ecx, DWORD PTR _this$[ebp]
	movss	xmm0, DWORD PTR [ecx+44]
	addss	xmm0, DWORD PTR _lbs$[ebp]
	mov	edx, DWORD PTR _this$[ebp]
	movss	DWORD PTR [edx+44], xmm0

; 1315 : 	mass += lbs/GRAVITY;

	movss	xmm0, DWORD PTR _lbs$[ebp]
	divss	xmm0, DWORD PTR __real@4200b53f
	mov	eax, DWORD PTR _this$[ebp]
	addss	xmm0, DWORD PTR [eax+40]
	mov	ecx, DWORD PTR _this$[ebp]
	movss	DWORD PTR [ecx+40], xmm0

; 1316 : 
; 1317 : 	float fullfuel = 0;

	movss	xmm0, DWORD PTR __real@00000000
	movss	DWORD PTR _fullfuel$[ebp], xmm0

; 1318 : 	for (int i = 0; i < MAX_FUEL; i++)

	mov	DWORD PTR _i$1[ebp], 0
	jmp	SHORT $LN3@ResetFuel
$LN2@ResetFuel:
	mov	edx, DWORD PTR _i$1[ebp]
	add	edx, 1
	mov	DWORD PTR _i$1[ebp], edx
$LN3@ResetFuel:
	cmp	DWORD PTR _i$1[ebp], 9
	jge	SHORT $LN1@ResetFuel

; 1319 : 		fullfuel += m_tankcap[i];

	mov	eax, DWORD PTR _i$1[ebp]
	mov	ecx, DWORD PTR _this$[ebp]
	movss	xmm0, DWORD PTR _fullfuel$[ebp]
	addss	xmm0, DWORD PTR [ecx+eax*4+1724]
	movss	DWORD PTR _fullfuel$[ebp], xmm0
	jmp	SHORT $LN2@ResetFuel
$LN1@ResetFuel:

; 1320 : 	//fuel = aeroDataset[vehicleIndex].inputData[2];
; 1321 : 	// JPO - (re)allocate the fuel 
; 1322 : 	AllocateFuel(fullfuel);

	push	ecx
	movss	xmm0, DWORD PTR _fullfuel$[ebp]
	movss	DWORD PTR [esp], xmm0
	mov	ecx, DWORD PTR _this$[ebp]
	call	?AllocateFuel@AirframeClass@@QAEXM@Z	; AirframeClass::AllocateFuel

; 1323 : }

	mov	esp, ebp
	pop	ebp
	ret	0
?ResetFuel@AirframeClass@@QAEXXZ ENDP			; AirframeClass::ResetFuel
_TEXT	ENDS
; Function compile flags: /Odtp
; File c:\users\zhitao li\documents\visual studio 2012\projects\freefalcon\sim\airframe\airframe.cpp
_TEXT	SEGMENT
_this$ = -4						; size = 4
_nx$ = 8						; size = 4
_ny$ = 12						; size = 4
_nz$ = 16						; size = 4
?SetPosition@AirframeClass@@QAEXMMM@Z PROC		; AirframeClass::SetPosition
; _this$ = ecx

; 829  : {

	push	ebp
	mov	ebp, esp
	push	ecx
	mov	DWORD PTR _this$[ebp], ecx

; 830  : 	x = nx; y = ny; z = nz;

	mov	eax, DWORD PTR _this$[ebp]
	movss	xmm0, DWORD PTR _nx$[ebp]
	movss	DWORD PTR [eax+1108], xmm0
	mov	ecx, DWORD PTR _this$[ebp]
	movss	xmm0, DWORD PTR _ny$[ebp]
	movss	DWORD PTR [ecx+1112], xmm0
	mov	edx, DWORD PTR _this$[ebp]
	movss	xmm0, DWORD PTR _nz$[ebp]
	movss	DWORD PTR [edx+1116], xmm0

; 831  : }

	mov	esp, ebp
	pop	ebp
	ret	12					; 0000000cH
?SetPosition@AirframeClass@@QAEXMMM@Z ENDP		; AirframeClass::SetPosition
_TEXT	ENDS
; Function compile flags: /Odtp
; File c:\users\zhitao li\documents\visual studio 2012\projects\freefalcon\sim\include\airframe.h
;	COMDAT ?IsSet@AirframeClass@@QBEHH@Z
_TEXT	SEGMENT
_this$ = -8						; size = 4
tv67 = -4						; size = 4
_testFlag$ = 8						; size = 4
?IsSet@AirframeClass@@QBEHH@Z PROC			; AirframeClass::IsSet, COMDAT
; _this$ = ecx

; 1216 : 	int IsSet (int testFlag) const {return flags & testFlag ? 1 : 0;}

	push	ebp
	mov	ebp, esp
	sub	esp, 8
	mov	DWORD PTR _this$[ebp], ecx
	mov	eax, DWORD PTR _this$[ebp]
	mov	ecx, DWORD PTR [eax+88]
	and	ecx, DWORD PTR _testFlag$[ebp]
	je	SHORT $LN3@IsSet
	mov	DWORD PTR tv67[ebp], 1
	jmp	SHORT $LN4@IsSet
$LN3@IsSet:
	mov	DWORD PTR tv67[ebp], 0
$LN4@IsSet:
	mov	eax, DWORD PTR tv67[ebp]
	mov	esp, ebp
	pop	ebp
	ret	4
?IsSet@AirframeClass@@QBEHH@Z ENDP			; AirframeClass::IsSet
_TEXT	ENDS
; Function compile flags: /Odtp
; File c:\users\zhitao li\documents\visual studio 2012\projects\freefalcon\sim\include\airframe.h
;	COMDAT ?ClearFlag@AirframeClass@@QAEXH@Z
_TEXT	SEGMENT
_this$ = -4						; size = 4
_newFlag$ = 8						; size = 4
?ClearFlag@AirframeClass@@QAEXH@Z PROC			; AirframeClass::ClearFlag, COMDAT
; _this$ = ecx

; 1215 : 	void ClearFlag (int newFlag) {flags &= ~newFlag;};

	push	ebp
	mov	ebp, esp
	push	ecx
	mov	DWORD PTR _this$[ebp], ecx
	mov	eax, DWORD PTR _newFlag$[ebp]
	not	eax
	mov	ecx, DWORD PTR _this$[ebp]
	and	eax, DWORD PTR [ecx+88]
	mov	edx, DWORD PTR _this$[ebp]
	mov	DWORD PTR [edx+88], eax
	mov	esp, ebp
	pop	ebp
	ret	4
?ClearFlag@AirframeClass@@QAEXH@Z ENDP			; AirframeClass::ClearFlag
_TEXT	ENDS
; Function compile flags: /Odtp
; File c:\users\zhitao li\documents\visual studio 2012\projects\freefalcon\sim\include\airframe.h
;	COMDAT ?SetFlag@AirframeClass@@QAEXH@Z
_TEXT	SEGMENT
_this$ = -4						; size = 4
_newFlag$ = 8						; size = 4
?SetFlag@AirframeClass@@QAEXH@Z PROC			; AirframeClass::SetFlag, COMDAT
; _this$ = ecx

; 1214 : 	void SetFlag (int newFlag) {flags |= newFlag;};

	push	ebp
	mov	ebp, esp
	push	ecx
	mov	DWORD PTR _this$[ebp], ecx
	mov	eax, DWORD PTR _this$[ebp]
	mov	ecx, DWORD PTR [eax+88]
	or	ecx, DWORD PTR _newFlag$[ebp]
	mov	edx, DWORD PTR _this$[ebp]
	mov	DWORD PTR [edx+88], ecx
	mov	esp, ebp
	pop	ebp
	ret	4
?SetFlag@AirframeClass@@QAEXH@Z ENDP			; AirframeClass::SetFlag
_TEXT	ENDS
; Function compile flags: /Odtp
; File c:\users\zhitao li\documents\visual studio 2012\projects\freefalcon\sim\airframe\airframe.cpp
_TEXT	SEGMENT
_this$ = -4						; size = 4
?ResetAlpha@AirframeClass@@QAEXXZ PROC			; AirframeClass::ResetAlpha
; _this$ = ecx

; 1288 : {

	push	ebp
	mov	ebp, esp
	push	ecx
	mov	DWORD PTR _this$[ebp], ecx

; 1289 : 	oldp02[0] = alpha;

	mov	eax, 4
	imul	eax, 0
	mov	ecx, DWORD PTR _this$[ebp]
	mov	edx, DWORD PTR _this$[ebp]
	mov	edx, DWORD PTR [edx+1152]
	mov	DWORD PTR [ecx+eax+308], edx

; 1290 : 	oldp02[1] = alpha;

	mov	eax, 4
	shl	eax, 0
	mov	ecx, DWORD PTR _this$[ebp]
	mov	edx, DWORD PTR _this$[ebp]
	mov	edx, DWORD PTR [edx+1152]
	mov	DWORD PTR [ecx+eax+308], edx

; 1291 : 	oldp02[2] = alpha;

	mov	eax, 4
	shl	eax, 1
	mov	ecx, DWORD PTR _this$[ebp]
	mov	edx, DWORD PTR _this$[ebp]
	mov	edx, DWORD PTR [edx+1152]
	mov	DWORD PTR [ecx+eax+308], edx

; 1292 : 	oldp02[3] = alpha;

	mov	eax, 4
	imul	eax, 3
	mov	ecx, DWORD PTR _this$[ebp]
	mov	edx, DWORD PTR _this$[ebp]
	mov	edx, DWORD PTR [edx+1152]
	mov	DWORD PTR [ecx+eax+308], edx

; 1293 : 	oldp02[4] = alpha;

	mov	eax, 4
	shl	eax, 2
	mov	ecx, DWORD PTR _this$[ebp]
	mov	edx, DWORD PTR _this$[ebp]
	mov	edx, DWORD PTR [edx+1152]
	mov	DWORD PTR [ecx+eax+308], edx

; 1294 : 	oldp02[5] = alpha;

	mov	eax, 4
	imul	eax, 5
	mov	ecx, DWORD PTR _this$[ebp]
	mov	edx, DWORD PTR _this$[ebp]
	mov	edx, DWORD PTR [edx+1152]
	mov	DWORD PTR [ecx+eax+308], edx

; 1295 : 
; 1296 : 	oldp03[0] = alpha;

	mov	eax, 4
	imul	eax, 0
	mov	ecx, DWORD PTR _this$[ebp]
	mov	edx, DWORD PTR _this$[ebp]
	mov	edx, DWORD PTR [edx+1152]
	mov	DWORD PTR [ecx+eax+332], edx

; 1297 : 	oldp03[1] = alpha;

	mov	eax, 4
	shl	eax, 0
	mov	ecx, DWORD PTR _this$[ebp]
	mov	edx, DWORD PTR _this$[ebp]
	mov	edx, DWORD PTR [edx+1152]
	mov	DWORD PTR [ecx+eax+332], edx

; 1298 : 	oldp03[2] = alpha;

	mov	eax, 4
	shl	eax, 1
	mov	ecx, DWORD PTR _this$[ebp]
	mov	edx, DWORD PTR _this$[ebp]
	mov	edx, DWORD PTR [edx+1152]
	mov	DWORD PTR [ecx+eax+332], edx

; 1299 : 	oldp03[3] = alpha;

	mov	eax, 4
	imul	eax, 3
	mov	ecx, DWORD PTR _this$[ebp]
	mov	edx, DWORD PTR _this$[ebp]
	mov	edx, DWORD PTR [edx+1152]
	mov	DWORD PTR [ecx+eax+332], edx

; 1300 : 	oldp03[4] = alpha;

	mov	eax, 4
	shl	eax, 2
	mov	ecx, DWORD PTR _this$[ebp]
	mov	edx, DWORD PTR _this$[ebp]
	mov	edx, DWORD PTR [edx+1152]
	mov	DWORD PTR [ecx+eax+332], edx

; 1301 : 	oldp03[5] = alpha;

	mov	eax, 4
	imul	eax, 5
	mov	ecx, DWORD PTR _this$[ebp]
	mov	edx, DWORD PTR _this$[ebp]
	mov	edx, DWORD PTR [edx+1152]
	mov	DWORD PTR [ecx+eax+332], edx

; 1302 : 
; 1303 : }

	mov	esp, ebp
	pop	ebp
	ret	0
?ResetAlpha@AirframeClass@@QAEXXZ ENDP			; AirframeClass::ResetAlpha
_TEXT	ENDS
; Function compile flags: /Odtp
; File c:\users\zhitao li\documents\visual studio 2012\projects\freefalcon\sim\airframe\airframe.cpp
_TEXT	SEGMENT
tv135 = -8						; size = 4
_this$ = -4						; size = 4
_Weight$ = 8						; size = 4
_DragIndex$ = 12					; size = 4
_offset$ = 16						; size = 4
?RemoveWeapon@AirframeClass@@QAEXMMM@Z PROC		; AirframeClass::RemoveWeapon
; _this$ = ecx

; 1049 : {

	push	ebp
	mov	ebp, esp
	sub	esp, 8
	mov	DWORD PTR _this$[ebp], ecx

; 1050 : //	ShiAssert(weight - Weight >= emptyWeight + fuel + externalFuel);
; 1051 : 	MonoPrint("RemoveWeapon W%f DI%f, O%f",Weight,DragIndex,offset);

	cvtss2sd xmm0, DWORD PTR _offset$[ebp]
	sub	esp, 8
	movsd	QWORD PTR [esp], xmm0
	cvtss2sd xmm0, DWORD PTR _DragIndex$[ebp]
	sub	esp, 8
	movsd	QWORD PTR [esp], xmm0
	cvtss2sd xmm0, DWORD PTR _Weight$[ebp]
	sub	esp, 8
	movsd	QWORD PTR [esp], xmm0
	push	OFFSET ??_C@_0BL@PCECMIL@RemoveWeapon?5W?$CFf?5DI?$CFf?0?5O?$CFf?$AA@
	call	_MonoPrint
	add	esp, 28					; 0000001cH

; 1052 : 
; 1053 : 	if(weight - Weight < emptyWeight + fuel + externalFuel)

	mov	eax, DWORD PTR _this$[ebp]
	movss	xmm0, DWORD PTR [eax+44]
	subss	xmm0, DWORD PTR _Weight$[ebp]
	mov	ecx, DWORD PTR _this$[ebp]
	mov	edx, DWORD PTR _this$[ebp]
	movss	xmm1, DWORD PTR [ecx+52]
	addss	xmm1, DWORD PTR [edx+20]
	mov	eax, DWORD PTR _this$[ebp]
	addss	xmm1, DWORD PTR [eax+32]
	comiss	xmm1, xmm0
	jbe	SHORT $LN1@RemoveWeap

; 1054 : 		Weight = weight - (emptyWeight + fuel + externalFuel);

	mov	ecx, DWORD PTR _this$[ebp]
	mov	edx, DWORD PTR _this$[ebp]
	movss	xmm0, DWORD PTR [ecx+52]
	addss	xmm0, DWORD PTR [edx+20]
	mov	eax, DWORD PTR _this$[ebp]
	addss	xmm0, DWORD PTR [eax+32]
	mov	ecx, DWORD PTR _this$[ebp]
	movss	xmm1, DWORD PTR [ecx+44]
	subss	xmm1, xmm0
	movss	DWORD PTR _Weight$[ebp], xmm1
$LN1@RemoveWeap:

; 1055 : 
; 1056 : 	weight -= Weight;

	mov	edx, DWORD PTR _this$[ebp]
	movss	xmm0, DWORD PTR [edx+44]
	subss	xmm0, DWORD PTR _Weight$[ebp]
	mov	eax, DWORD PTR _this$[ebp]
	movss	DWORD PTR [eax+44], xmm0

; 1057 : 	mass -= Weight/GRAVITY;

	movss	xmm0, DWORD PTR _Weight$[ebp]
	divss	xmm0, DWORD PTR __real@4200b53f
	mov	ecx, DWORD PTR _this$[ebp]
	movss	xmm1, DWORD PTR [ecx+40]
	subss	xmm1, xmm0
	mov	edx, DWORD PTR _this$[ebp]
	movss	DWORD PTR [edx+40], xmm1

; 1058 : 	dragIndex -= DragIndex; //*(18238.0F/emptyWeight);

	mov	eax, DWORD PTR _this$[ebp]
	movss	xmm0, DWORD PTR [eax+48]
	subss	xmm0, DWORD PTR _DragIndex$[ebp]
	mov	ecx, DWORD PTR _this$[ebp]
	movss	DWORD PTR [ecx+48], xmm0

; 1059 : 	dragIndex = max(dragIndex, 0.0F);

	mov	edx, DWORD PTR _this$[ebp]
	movss	xmm0, DWORD PTR [edx+48]
	comiss	xmm0, DWORD PTR __real@00000000
	jbe	SHORT $LN4@RemoveWeap
	mov	eax, DWORD PTR _this$[ebp]
	movss	xmm0, DWORD PTR [eax+48]
	movss	DWORD PTR tv135[ebp], xmm0
	jmp	SHORT $LN5@RemoveWeap
$LN4@RemoveWeap:
	movss	xmm0, DWORD PTR __real@00000000
	movss	DWORD PTR tv135[ebp], xmm0
$LN5@RemoveWeap:
	mov	ecx, DWORD PTR _this$[ebp]
	movss	xmm0, DWORD PTR tv135[ebp]
	movss	DWORD PTR [ecx+48], xmm0

; 1060 : 
; 1061 : 	loadingFraction = weight/emptyWeight;

	mov	edx, DWORD PTR _this$[ebp]
	mov	eax, DWORD PTR _this$[ebp]
	movss	xmm0, DWORD PTR [edx+44]
	divss	xmm0, DWORD PTR [eax+52]
	mov	ecx, DWORD PTR _this$[ebp]
	movss	DWORD PTR [ecx+1228], xmm0

; 1062 : 	assymetry -= offset*Weight;

	movss	xmm0, DWORD PTR _offset$[ebp]
	mulss	xmm0, DWORD PTR _Weight$[ebp]
	mov	edx, DWORD PTR _this$[ebp]
	movss	xmm1, DWORD PTR [edx+1232]
	subss	xmm1, xmm0
	mov	eax, DWORD PTR _this$[ebp]
	movss	DWORD PTR [eax+1232], xmm1

; 1063 : }

	mov	esp, ebp
	pop	ebp
	ret	12					; 0000000cH
?RemoveWeapon@AirframeClass@@QAEXMMM@Z ENDP		; AirframeClass::RemoveWeapon
_TEXT	ENDS
; Function compile flags: /Odtp
; File c:\users\zhitao li\documents\visual studio 2012\projects\freefalcon\sim\airframe\airframe.cpp
_TEXT	SEGMENT
_this$ = -4						; size = 4
_Weight$ = 8						; size = 4
_DragIndex$ = 12					; size = 4
_offset$ = 16						; size = 4
?AddWeapon@AirframeClass@@QAEXMMM@Z PROC		; AirframeClass::AddWeapon
; _this$ = ecx

; 1031 : {

	push	ebp
	mov	ebp, esp
	push	ecx
	mov	DWORD PTR _this$[ebp], ecx

; 1032 : 	ShiAssert(Weight >= 0.0F);
; 1033 : 	ShiAssert(dragIndex >= 0.0F);
; 1034 : 	ShiAssert(fabs(offset) < 100);
; 1035 : 
; 1036 : 	//MonoPrint("AddWeapon W%f DI%f, O%f",Weight,DragIndex,offset);
; 1037 : 
; 1038 : 	weight += Weight;

	mov	eax, DWORD PTR _this$[ebp]
	movss	xmm0, DWORD PTR [eax+44]
	addss	xmm0, DWORD PTR _Weight$[ebp]
	mov	ecx, DWORD PTR _this$[ebp]
	movss	DWORD PTR [ecx+44], xmm0

; 1039 : 	mass += Weight/GRAVITY;

	movss	xmm0, DWORD PTR _Weight$[ebp]
	divss	xmm0, DWORD PTR __real@4200b53f
	mov	edx, DWORD PTR _this$[ebp]
	addss	xmm0, DWORD PTR [edx+40]
	mov	eax, DWORD PTR _this$[ebp]
	movss	DWORD PTR [eax+40], xmm0

; 1040 : 	dragIndex += DragIndex; //*(18238.0F/emptyWeight); //equate for relative size differences

	mov	ecx, DWORD PTR _this$[ebp]
	movss	xmm0, DWORD PTR [ecx+48]
	addss	xmm0, DWORD PTR _DragIndex$[ebp]
	mov	edx, DWORD PTR _this$[ebp]
	movss	DWORD PTR [edx+48], xmm0

; 1041 : 
; 1042 : 	loadingFraction = weight/emptyWeight;

	mov	eax, DWORD PTR _this$[ebp]
	mov	ecx, DWORD PTR _this$[ebp]
	movss	xmm0, DWORD PTR [eax+44]
	divss	xmm0, DWORD PTR [ecx+52]
	mov	edx, DWORD PTR _this$[ebp]
	movss	DWORD PTR [edx+1228], xmm0

; 1043 : 	assymetry += offset*Weight;

	movss	xmm0, DWORD PTR _offset$[ebp]
	mulss	xmm0, DWORD PTR _Weight$[ebp]
	mov	eax, DWORD PTR _this$[ebp]
	addss	xmm0, DWORD PTR [eax+1232]
	mov	ecx, DWORD PTR _this$[ebp]
	movss	DWORD PTR [ecx+1232], xmm0

; 1044 : 	//TJL 03/12/04 mono
; 1045 : 	//MonoPrint("AddWeapon W%f DI%f Offset%f",Weight,DragIndex,offset);
; 1046 : }

	mov	esp, ebp
	pop	ebp
	ret	12					; 0000000cH
?AddWeapon@AirframeClass@@QAEXMMM@Z ENDP		; AirframeClass::AddWeapon
_TEXT	ENDS
; Function compile flags: /Odtp
; File c:\users\zhitao li\documents\visual studio 2012\projects\freefalcon\sim\airframe\airframe.cpp
_TEXT	SEGMENT
_wd$ = -24						; size = 4
_weapons$ = -20						; size = 4
_center$ = -16						; size = 4
_i$1 = -12						; size = 4
_i$2 = -8						; size = 4
_this$ = -4						; size = 4
?FindExternalTanks@AirframeClass@@QAEXXZ PROC		; AirframeClass::FindExternalTanks
; _this$ = ecx

; 1339 : {

	push	ebp
	mov	ebp, esp
	sub	esp, 24					; 00000018H
	push	esi
	mov	DWORD PTR _this$[ebp], ecx

; 1340 : 	int center = (platform->Sms->NumHardpoints() - 1) / 2 + 1;

	mov	eax, DWORD PTR _this$[ebp]
	mov	ecx, DWORD PTR [eax+1088]
	mov	ecx, DWORD PTR [ecx+940]
	call	?NumHardpoints@SMSBaseClass@@QAEHXZ	; SMSBaseClass::NumHardpoints
	sub	eax, 1
	cdq
	sub	eax, edx
	sar	eax, 1
	add	eax, 1
	mov	DWORD PTR _center$[ebp], eax

; 1341 : 	int weapons = 0;

	mov	DWORD PTR _weapons$[ebp], 0

; 1342 : 
; 1343 : 	// RV - Biker - Check if CL tank is our last weapon (don't count guns)
; 1344 : 	for (int i=center+1; i<platform->Sms->NumHardpoints(); i++) {

	mov	edx, DWORD PTR _center$[ebp]
	add	edx, 1
	mov	DWORD PTR _i$1[ebp], edx
	jmp	SHORT $LN13@FindExtern
$LN12@FindExtern:
	mov	eax, DWORD PTR _i$1[ebp]
	add	eax, 1
	mov	DWORD PTR _i$1[ebp], eax
$LN13@FindExtern:
	mov	ecx, DWORD PTR _this$[ebp]
	mov	edx, DWORD PTR [ecx+1088]
	mov	ecx, DWORD PTR [edx+940]
	call	?NumHardpoints@SMSBaseClass@@QAEHXZ	; SMSBaseClass::NumHardpoints
	cmp	DWORD PTR _i$1[ebp], eax
	jge	SHORT $LN11@FindExtern

; 1345 : 		if (platform->Sms->hardPoint[i] && platform->Sms->hardPoint[i]->GetWeaponType() != wtNone)

	mov	eax, DWORD PTR _this$[ebp]
	mov	ecx, DWORD PTR [eax+1088]
	mov	edx, DWORD PTR [ecx+940]
	mov	eax, DWORD PTR [edx+4]
	mov	ecx, DWORD PTR _i$1[ebp]
	cmp	DWORD PTR [eax+ecx*4], 0
	je	SHORT $LN10@FindExtern
	mov	edx, DWORD PTR _this$[ebp]
	mov	eax, DWORD PTR [edx+1088]
	mov	ecx, DWORD PTR [eax+940]
	mov	edx, DWORD PTR [ecx+4]
	mov	eax, DWORD PTR _i$1[ebp]
	mov	ecx, DWORD PTR [edx+eax*4]
	mov	edx, DWORD PTR _this$[ebp]
	mov	eax, DWORD PTR [edx+1088]
	mov	edx, DWORD PTR [eax+940]
	mov	eax, DWORD PTR [edx+4]
	mov	edx, DWORD PTR _i$1[ebp]
	mov	esi, DWORD PTR [ecx]
	mov	ecx, DWORD PTR [eax+edx*4]
	mov	eax, DWORD PTR [esi+156]
	call	eax
	cmp	eax, 11					; 0000000bH
	je	SHORT $LN10@FindExtern

; 1346 : 			weapons++;

	mov	ecx, DWORD PTR _weapons$[ebp]
	add	ecx, 1
	mov	DWORD PTR _weapons$[ebp], ecx
$LN10@FindExtern:

; 1347 :     }

	jmp	$LN12@FindExtern
$LN11@FindExtern:

; 1348 : 
; 1349 : 	// RV - Biker - We have only one weapon so this should be our center line
; 1350 : 	if (weapons == 1)

	cmp	DWORD PTR _weapons$[ebp], 1
	jne	SHORT $LN9@FindExtern

; 1351 : 		center = platform->Sms->NumHardpoints() - 1;

	mov	edx, DWORD PTR _this$[ebp]
	mov	eax, DWORD PTR [edx+1088]
	mov	ecx, DWORD PTR [eax+940]
	call	?NumHardpoints@SMSBaseClass@@QAEHXZ	; SMSBaseClass::NumHardpoints
	sub	eax, 1
	mov	DWORD PTR _center$[ebp], eax
$LN9@FindExtern:

; 1352 : 
; 1353 :     WeaponClassDataType		*wd;
; 1354 : 
; 1355 :     for (int i=0; i<platform->Sms->NumHardpoints(); i++)

	mov	DWORD PTR _i$2[ebp], 0
	jmp	SHORT $LN8@FindExtern
$LN7@FindExtern:
	mov	ecx, DWORD PTR _i$2[ebp]
	add	ecx, 1
	mov	DWORD PTR _i$2[ebp], ecx
$LN8@FindExtern:
	mov	edx, DWORD PTR _this$[ebp]
	mov	eax, DWORD PTR [edx+1088]
	mov	ecx, DWORD PTR [eax+940]
	call	?NumHardpoints@SMSBaseClass@@QAEHXZ	; SMSBaseClass::NumHardpoints
	cmp	DWORD PTR _i$2[ebp], eax
	jge	$LN6@FindExtern

; 1356 :     {
; 1357 :       // if its a tank - try and guess which one.
; 1358 :       // assume only three possible positions... ?
; 1359 : 		if (platform->Sms->hardPoint[i] && 
; 1360 : 			platform->Sms->hardPoint[i]->GetWeaponClass() == wcTank)

	mov	ecx, DWORD PTR _this$[ebp]
	mov	edx, DWORD PTR [ecx+1088]
	mov	eax, DWORD PTR [edx+940]
	mov	ecx, DWORD PTR [eax+4]
	mov	edx, DWORD PTR _i$2[ebp]
	cmp	DWORD PTR [ecx+edx*4], 0
	je	$LN1@FindExtern
	mov	eax, DWORD PTR _this$[ebp]
	mov	ecx, DWORD PTR [eax+1088]
	mov	edx, DWORD PTR [ecx+940]
	mov	eax, DWORD PTR [edx+4]
	mov	ecx, DWORD PTR _i$2[ebp]
	mov	edx, DWORD PTR [eax+ecx*4]
	mov	eax, DWORD PTR _this$[ebp]
	mov	ecx, DWORD PTR [eax+1088]
	mov	eax, DWORD PTR [ecx+940]
	mov	ecx, DWORD PTR [eax+4]
	mov	eax, DWORD PTR _i$2[ebp]
	mov	edx, DWORD PTR [edx]
	mov	ecx, DWORD PTR [ecx+eax*4]
	mov	eax, DWORD PTR [edx+164]
	call	eax
	cmp	eax, 5
	jne	$LN1@FindExtern

; 1361 : 		{
; 1362 : 			wd = &WeaponDataTable[platform->Sms->hardPoint[i]->weaponId];

	mov	ecx, DWORD PTR _this$[ebp]
	mov	edx, DWORD PTR [ecx+1088]
	mov	eax, DWORD PTR [edx+940]
	mov	ecx, DWORD PTR [eax+4]
	mov	edx, DWORD PTR _i$2[ebp]
	mov	eax, DWORD PTR [ecx+edx*4]
	movsx	ecx, WORD PTR [eax+8]
	imul	ecx, 60					; 0000003cH
	add	ecx, DWORD PTR ?WeaponDataTable@@3PAUWeaponClassDataType@@A ; WeaponDataTable
	mov	DWORD PTR _wd$[ebp], ecx

; 1363 : 			ShiAssert (wd);
; 1364 : 			if (i < center) 

	mov	edx, DWORD PTR _i$2[ebp]
	cmp	edx, DWORD PTR _center$[ebp]
	jge	SHORT $LN4@FindExtern

; 1365 : 				m_tankcap[TANK_LEXT] = wd->Strength;

	mov	eax, DWORD PTR _wd$[ebp]
	movzx	ecx, WORD PTR [eax+2]
	cvtsi2ss xmm0, ecx
	mov	edx, 4
	imul	edx, 7
	mov	eax, DWORD PTR _this$[ebp]
	movss	DWORD PTR [eax+edx+1724], xmm0
	jmp	SHORT $LN1@FindExtern
$LN4@FindExtern:

; 1366 : 			else if (i > center) 

	mov	ecx, DWORD PTR _i$2[ebp]
	cmp	ecx, DWORD PTR _center$[ebp]
	jle	SHORT $LN2@FindExtern

; 1367 : 				m_tankcap[TANK_REXT] = wd->Strength;

	mov	edx, DWORD PTR _wd$[ebp]
	movzx	eax, WORD PTR [edx+2]
	cvtsi2ss xmm0, eax
	mov	ecx, 4
	imul	ecx, 6
	mov	edx, DWORD PTR _this$[ebp]
	movss	DWORD PTR [edx+ecx+1724], xmm0

; 1368 : 			else 

	jmp	SHORT $LN1@FindExtern
$LN2@FindExtern:

; 1369 : 				m_tankcap[TANK_CLINE] = wd->Strength;

	mov	eax, DWORD PTR _wd$[ebp]
	movzx	ecx, WORD PTR [eax+2]
	cvtsi2ss xmm0, ecx
	mov	edx, 4
	shl	edx, 3
	mov	eax, DWORD PTR _this$[ebp]
	movss	DWORD PTR [eax+edx+1724], xmm0
$LN1@FindExtern:

; 1370 : 		}
; 1371 :     }

	jmp	$LN7@FindExtern
$LN6@FindExtern:

; 1372 : }

	pop	esi
	mov	esp, ebp
	pop	ebp
	ret	0
?FindExternalTanks@AirframeClass@@QAEXXZ ENDP		; AirframeClass::FindExternalTanks
_TEXT	ENDS
; Function compile flags: /Odtp
; File c:\users\zhitao li\documents\visual studio 2012\projects\freefalcon\sim\airframe\airframe.cpp
_TEXT	SEGMENT
_wd$ = -28						; size = 4
_weapons$ = -24						; size = 4
_center$ = -20						; size = 4
_i$1 = -16						; size = 4
_i$2 = -12						; size = 4
_maxfuel$ = -8						; size = 4
_this$ = -4						; size = 4
_lbs$ = 8						; size = 4
?AddFuel@AirframeClass@@QAEHM@Z PROC			; AirframeClass::AddFuel
; _this$ = ecx

; 1213 : {

	push	ebp
	mov	ebp, esp
	sub	esp, 28					; 0000001cH
	push	esi
	mov	DWORD PTR _this$[ebp], ecx

; 1214 : 	if(fuel + lbs < 0.0F)

	mov	eax, DWORD PTR _this$[ebp]
	movss	xmm0, DWORD PTR [eax+20]
	addss	xmm0, DWORD PTR _lbs$[ebp]
	movss	xmm1, DWORD PTR __real@00000000
	comiss	xmm1, xmm0
	jbe	SHORT $LN15@AddFuel

; 1215 : 	{
; 1216 : 		lbs = -fuel;

	mov	ecx, DWORD PTR _this$[ebp]
	movss	xmm0, DWORD PTR [ecx+20]
	xorps	xmm0, DWORD PTR __xmm@80000000800000008000000080000000
	movss	DWORD PTR _lbs$[ebp], xmm0
$LN15@AddFuel:

; 1217 : 	}
; 1218 : 
; 1219 : 	//MI fix for filling up too much. We also need to check if we have the tanks on our plane.
; 1220 : 	//float maxfuel = aeroDataset[vehicleIndex].inputData[2] + m_tankcap[TANK_LEXT]+m_tankcap[TANK_REXT]+m_tankcap[TANK_CLINE]; //me123 maeroo for external fuel
; 1221 : 	ShiAssert(platform);
; 1222 : 	ShiAssert(platform->Sms);
; 1223 : 	int center = (platform->Sms->NumHardpoints() - 1) / 2 + 1;

	mov	edx, DWORD PTR _this$[ebp]
	mov	eax, DWORD PTR [edx+1088]
	mov	ecx, DWORD PTR [eax+940]
	call	?NumHardpoints@SMSBaseClass@@QAEHXZ	; SMSBaseClass::NumHardpoints
	sub	eax, 1
	cdq
	sub	eax, edx
	sar	eax, 1
	add	eax, 1
	mov	DWORD PTR _center$[ebp], eax

; 1224 : 	int weapons = 0;

	mov	DWORD PTR _weapons$[ebp], 0

; 1225 : 
; 1226 : 	// RV - Biker - Check if CL tank is our last weapon (don't count guns)
; 1227 : 	for (int i=center+1; i<platform->Sms->NumHardpoints(); i++) {

	mov	ecx, DWORD PTR _center$[ebp]
	add	ecx, 1
	mov	DWORD PTR _i$1[ebp], ecx
	jmp	SHORT $LN14@AddFuel
$LN13@AddFuel:
	mov	edx, DWORD PTR _i$1[ebp]
	add	edx, 1
	mov	DWORD PTR _i$1[ebp], edx
$LN14@AddFuel:
	mov	eax, DWORD PTR _this$[ebp]
	mov	ecx, DWORD PTR [eax+1088]
	mov	ecx, DWORD PTR [ecx+940]
	call	?NumHardpoints@SMSBaseClass@@QAEHXZ	; SMSBaseClass::NumHardpoints
	cmp	DWORD PTR _i$1[ebp], eax
	jge	SHORT $LN12@AddFuel

; 1228 : 		if (platform->Sms->hardPoint[i] && platform->Sms->hardPoint[i]->GetWeaponType() != wtNone)

	mov	edx, DWORD PTR _this$[ebp]
	mov	eax, DWORD PTR [edx+1088]
	mov	ecx, DWORD PTR [eax+940]
	mov	edx, DWORD PTR [ecx+4]
	mov	eax, DWORD PTR _i$1[ebp]
	cmp	DWORD PTR [edx+eax*4], 0
	je	SHORT $LN11@AddFuel
	mov	ecx, DWORD PTR _this$[ebp]
	mov	edx, DWORD PTR [ecx+1088]
	mov	eax, DWORD PTR [edx+940]
	mov	ecx, DWORD PTR [eax+4]
	mov	edx, DWORD PTR _i$1[ebp]
	mov	eax, DWORD PTR [ecx+edx*4]
	mov	ecx, DWORD PTR _this$[ebp]
	mov	edx, DWORD PTR [ecx+1088]
	mov	ecx, DWORD PTR [edx+940]
	mov	edx, DWORD PTR [ecx+4]
	mov	ecx, DWORD PTR _i$1[ebp]
	mov	eax, DWORD PTR [eax]
	mov	ecx, DWORD PTR [edx+ecx*4]
	mov	edx, DWORD PTR [eax+156]
	call	edx
	cmp	eax, 11					; 0000000bH
	je	SHORT $LN11@AddFuel

; 1229 : 			weapons++;

	mov	eax, DWORD PTR _weapons$[ebp]
	add	eax, 1
	mov	DWORD PTR _weapons$[ebp], eax
$LN11@AddFuel:

; 1230 :     }

	jmp	$LN13@AddFuel
$LN12@AddFuel:

; 1231 : 
; 1232 : 	// RV - Biker - We have only one weapon so this should be our center line
; 1233 : 	if (weapons == 1)

	cmp	DWORD PTR _weapons$[ebp], 1
	jne	SHORT $LN10@AddFuel

; 1234 : 		center = platform->Sms->NumHardpoints() - 1;

	mov	ecx, DWORD PTR _this$[ebp]
	mov	edx, DWORD PTR [ecx+1088]
	mov	ecx, DWORD PTR [edx+940]
	call	?NumHardpoints@SMSBaseClass@@QAEHXZ	; SMSBaseClass::NumHardpoints
	sub	eax, 1
	mov	DWORD PTR _center$[ebp], eax
$LN10@AddFuel:

; 1235 : 
; 1236 : 
; 1237 : 	WeaponClassDataType		*wd = NULL;

	mov	DWORD PTR _wd$[ebp], 0

; 1238 : 	float maxfuel = 0.0F;

	movss	xmm0, DWORD PTR __real@00000000
	movss	DWORD PTR _maxfuel$[ebp], xmm0

; 1239 : 	maxfuel += aeroDataset[vehicleIndex].inputData[2];

	mov	eax, DWORD PTR _this$[ebp]
	movsx	ecx, WORD PTR [eax+92]
	imul	ecx, 220				; 000000dcH
	add	ecx, DWORD PTR ?aeroDataset@@3PAVAeroDataSet@@A ; aeroDataset
	mov	edx, 4
	shl	edx, 1
	movss	xmm0, DWORD PTR _maxfuel$[ebp]
	addss	xmm0, DWORD PTR [ecx+edx+16]
	movss	DWORD PTR _maxfuel$[ebp], xmm0

; 1240 : 	
; 1241 :     for (int i=0; i<platform->Sms->NumHardpoints(); i++)

	mov	DWORD PTR _i$2[ebp], 0
	jmp	SHORT $LN9@AddFuel
$LN8@AddFuel:
	mov	eax, DWORD PTR _i$2[ebp]
	add	eax, 1
	mov	DWORD PTR _i$2[ebp], eax
$LN9@AddFuel:
	mov	ecx, DWORD PTR _this$[ebp]
	mov	edx, DWORD PTR [ecx+1088]
	mov	ecx, DWORD PTR [edx+940]
	call	?NumHardpoints@SMSBaseClass@@QAEHXZ	; SMSBaseClass::NumHardpoints
	cmp	DWORD PTR _i$2[ebp], eax
	jge	$LN7@AddFuel

; 1242 :     { 
; 1243 : 		// if its a tank - try and guess which one.
; 1244 : 		// assume only three possible positions... ?
; 1245 : 		if (platform->Sms->hardPoint[i] && 
; 1246 : 			platform->Sms->hardPoint[i]->GetWeaponClass() == wcTank) {

	mov	eax, DWORD PTR _this$[ebp]
	mov	ecx, DWORD PTR [eax+1088]
	mov	edx, DWORD PTR [ecx+940]
	mov	eax, DWORD PTR [edx+4]
	mov	ecx, DWORD PTR _i$2[ebp]
	cmp	DWORD PTR [eax+ecx*4], 0
	je	$LN2@AddFuel
	mov	edx, DWORD PTR _this$[ebp]
	mov	eax, DWORD PTR [edx+1088]
	mov	ecx, DWORD PTR [eax+940]
	mov	edx, DWORD PTR [ecx+4]
	mov	eax, DWORD PTR _i$2[ebp]
	mov	ecx, DWORD PTR [edx+eax*4]
	mov	edx, DWORD PTR _this$[ebp]
	mov	eax, DWORD PTR [edx+1088]
	mov	edx, DWORD PTR [eax+940]
	mov	eax, DWORD PTR [edx+4]
	mov	edx, DWORD PTR _i$2[ebp]
	mov	esi, DWORD PTR [ecx]
	mov	ecx, DWORD PTR [eax+edx*4]
	mov	eax, DWORD PTR [esi+164]
	call	eax
	cmp	eax, 5
	jne	$LN2@AddFuel

; 1247 : 			wd = &WeaponDataTable[platform->Sms->hardPoint[i]->weaponId];

	mov	ecx, DWORD PTR _this$[ebp]
	mov	edx, DWORD PTR [ecx+1088]
	mov	eax, DWORD PTR [edx+940]
	mov	ecx, DWORD PTR [eax+4]
	mov	edx, DWORD PTR _i$2[ebp]
	mov	eax, DWORD PTR [ecx+edx*4]
	movsx	ecx, WORD PTR [eax+8]
	imul	ecx, 60					; 0000003cH
	add	ecx, DWORD PTR ?WeaponDataTable@@3PAUWeaponClassDataType@@A ; WeaponDataTable
	mov	DWORD PTR _wd$[ebp], ecx

; 1248 : 			ShiAssert(wd);
; 1249 : 			if (i < center) 

	mov	edx, DWORD PTR _i$2[ebp]
	cmp	edx, DWORD PTR _center$[ebp]
	jge	SHORT $LN5@AddFuel

; 1250 : 				maxfuel += m_tankcap[TANK_LEXT];

	mov	eax, 4
	imul	eax, 7
	mov	ecx, DWORD PTR _this$[ebp]
	movss	xmm0, DWORD PTR _maxfuel$[ebp]
	addss	xmm0, DWORD PTR [ecx+eax+1724]
	movss	DWORD PTR _maxfuel$[ebp], xmm0
	jmp	SHORT $LN2@AddFuel
$LN5@AddFuel:

; 1251 : 			else if (i > center) 

	mov	edx, DWORD PTR _i$2[ebp]
	cmp	edx, DWORD PTR _center$[ebp]
	jle	SHORT $LN3@AddFuel

; 1252 : 				maxfuel += m_tankcap[TANK_REXT];

	mov	eax, 4
	imul	eax, 6
	mov	ecx, DWORD PTR _this$[ebp]
	movss	xmm0, DWORD PTR _maxfuel$[ebp]
	addss	xmm0, DWORD PTR [ecx+eax+1724]
	movss	DWORD PTR _maxfuel$[ebp], xmm0

; 1253 : 			else 

	jmp	SHORT $LN2@AddFuel
$LN3@AddFuel:

; 1254 : 				maxfuel += m_tankcap[TANK_CLINE];

	mov	edx, 4
	shl	edx, 3
	mov	eax, DWORD PTR _this$[ebp]
	movss	xmm0, DWORD PTR _maxfuel$[ebp]
	addss	xmm0, DWORD PTR [eax+edx+1724]
	movss	DWORD PTR _maxfuel$[ebp], xmm0
$LN2@AddFuel:

; 1255 : 		}
; 1256 :     }

	jmp	$LN8@AddFuel
$LN7@AddFuel:

; 1257 : 
; 1258 : 	if(fuel + lbs + externalFuel > maxfuel)

	mov	ecx, DWORD PTR _this$[ebp]
	movss	xmm0, DWORD PTR [ecx+20]
	addss	xmm0, DWORD PTR _lbs$[ebp]
	mov	edx, DWORD PTR _this$[ebp]
	addss	xmm0, DWORD PTR [edx+32]
	comiss	xmm0, DWORD PTR _maxfuel$[ebp]
	jbe	SHORT $LN1@AddFuel

; 1259 : 	{
; 1260 : 		lbs = maxfuel - (fuel + externalFuel);

	mov	eax, DWORD PTR _this$[ebp]
	mov	ecx, DWORD PTR _this$[ebp]
	movss	xmm0, DWORD PTR [eax+20]
	addss	xmm0, DWORD PTR [ecx+32]
	movss	xmm1, DWORD PTR _maxfuel$[ebp]
	subss	xmm1, xmm0
	movss	DWORD PTR _lbs$[ebp], xmm1

; 1261 : 		weight += lbs;

	mov	edx, DWORD PTR _this$[ebp]
	movss	xmm0, DWORD PTR [edx+44]
	addss	xmm0, DWORD PTR _lbs$[ebp]
	mov	eax, DWORD PTR _this$[ebp]
	movss	DWORD PTR [eax+44], xmm0

; 1262 : 		mass += lbs/GRAVITY;

	movss	xmm0, DWORD PTR _lbs$[ebp]
	divss	xmm0, DWORD PTR __real@4200b53f
	mov	ecx, DWORD PTR _this$[ebp]
	addss	xmm0, DWORD PTR [ecx+40]
	mov	edx, DWORD PTR _this$[ebp]
	movss	DWORD PTR [edx+40], xmm0

; 1263 : 		fuel = maxfuel;

	mov	eax, DWORD PTR _this$[ebp]
	movss	xmm0, DWORD PTR _maxfuel$[ebp]
	movss	DWORD PTR [eax+20], xmm0

; 1264 : 		AllocateFuel(fuel); // JPO - allocate between tanks

	mov	ecx, DWORD PTR _this$[ebp]
	push	ecx
	movss	xmm0, DWORD PTR [ecx+20]
	movss	DWORD PTR [esp], xmm0
	mov	ecx, DWORD PTR _this$[ebp]
	call	?AllocateFuel@AirframeClass@@QAEXM@Z	; AirframeClass::AllocateFuel

; 1265 : 		return FALSE;

	xor	eax, eax
	jmp	SHORT $LN16@AddFuel
$LN1@AddFuel:

; 1266 : 	}
; 1267 : 
; 1268 : 	fuel += lbs;

	mov	edx, DWORD PTR _this$[ebp]
	movss	xmm0, DWORD PTR [edx+20]
	addss	xmm0, DWORD PTR _lbs$[ebp]
	mov	eax, DWORD PTR _this$[ebp]
	movss	DWORD PTR [eax+20], xmm0

; 1269 : 	weight += lbs;

	mov	ecx, DWORD PTR _this$[ebp]
	movss	xmm0, DWORD PTR [ecx+44]
	addss	xmm0, DWORD PTR _lbs$[ebp]
	mov	edx, DWORD PTR _this$[ebp]
	movss	DWORD PTR [edx+44], xmm0

; 1270 : 	mass += lbs/GRAVITY;

	movss	xmm0, DWORD PTR _lbs$[ebp]
	divss	xmm0, DWORD PTR __real@4200b53f
	mov	eax, DWORD PTR _this$[ebp]
	addss	xmm0, DWORD PTR [eax+40]
	mov	ecx, DWORD PTR _this$[ebp]
	movss	DWORD PTR [ecx+40], xmm0

; 1271 : 	AllocateFuel(fuel + externalFuel); // JPO allocate between tanks

	mov	edx, DWORD PTR _this$[ebp]
	mov	eax, DWORD PTR _this$[ebp]
	movss	xmm0, DWORD PTR [edx+20]
	addss	xmm0, DWORD PTR [eax+32]
	push	ecx
	movss	DWORD PTR [esp], xmm0
	mov	ecx, DWORD PTR _this$[ebp]
	call	?AllocateFuel@AirframeClass@@QAEXM@Z	; AirframeClass::AllocateFuel

; 1272 : 	return TRUE;

	mov	eax, 1
$LN16@AddFuel:

; 1273 : }

	pop	esi
	mov	esp, ebp
	pop	ebp
	ret	4
?AddFuel@AirframeClass@@QAEHM@Z ENDP			; AirframeClass::AddFuel
_TEXT	ENDS
; Function compile flags: /Odtp
; File c:\users\zhitao li\documents\visual studio 2012\projects\freefalcon\sim\airframe\airframe.cpp
_TEXT	SEGMENT
_this$ = -4						; size = 4
_lbs$ = 8						; size = 4
?AddExternalFuel@AirframeClass@@QAEXM@Z PROC		; AirframeClass::AddExternalFuel
; _this$ = ecx

; 1276 : {

	push	ebp
	mov	ebp, esp
	push	ecx
	mov	DWORD PTR _this$[ebp], ecx

; 1277 : 	if(externalFuel + lbs < 0.0F)

	mov	eax, DWORD PTR _this$[ebp]
	movss	xmm0, DWORD PTR [eax+32]
	addss	xmm0, DWORD PTR _lbs$[ebp]
	movss	xmm1, DWORD PTR __real@00000000
	comiss	xmm1, xmm0
	jbe	SHORT $LN1@AddExterna

; 1278 : 	{
; 1279 : 		lbs = -externalFuel;

	mov	ecx, DWORD PTR _this$[ebp]
	movss	xmm0, DWORD PTR [ecx+32]
	xorps	xmm0, DWORD PTR __xmm@80000000800000008000000080000000
	movss	DWORD PTR _lbs$[ebp], xmm0
$LN1@AddExterna:

; 1280 : 	}
; 1281 : 
; 1282 : 	externalFuel += lbs;

	mov	edx, DWORD PTR _this$[ebp]
	movss	xmm0, DWORD PTR [edx+32]
	addss	xmm0, DWORD PTR _lbs$[ebp]
	mov	eax, DWORD PTR _this$[ebp]
	movss	DWORD PTR [eax+32], xmm0

; 1283 : 	weight += lbs;

	mov	ecx, DWORD PTR _this$[ebp]
	movss	xmm0, DWORD PTR [ecx+44]
	addss	xmm0, DWORD PTR _lbs$[ebp]
	mov	edx, DWORD PTR _this$[ebp]
	movss	DWORD PTR [edx+44], xmm0

; 1284 : 	mass += lbs/GRAVITY;

	movss	xmm0, DWORD PTR _lbs$[ebp]
	divss	xmm0, DWORD PTR __real@4200b53f
	mov	eax, DWORD PTR _this$[ebp]
	addss	xmm0, DWORD PTR [eax+40]
	mov	ecx, DWORD PTR _this$[ebp]
	movss	DWORD PTR [ecx+40], xmm0

; 1285 : }

	mov	esp, ebp
	pop	ebp
	ret	4
?AddExternalFuel@AirframeClass@@QAEXM@Z ENDP		; AirframeClass::AddExternalFuel
_TEXT	ENDS
; Function compile flags: /Odtp
; File c:\users\zhitao li\documents\visual studio 2012\projects\freefalcon\sim\airframe\airframe.cpp
_TEXT	SEGMENT
_this$ = -4						; size = 4
_desAlpha$ = 8						; size = 4
?CalcDesSpeed@AirframeClass@@QAEMM@Z PROC		; AirframeClass::CalcDesSpeed
; _this$ = ecx

; 1134 : {

	push	ebp
	mov	ebp, esp
	push	ecx
	mov	DWORD PTR _this$[ebp], ecx

; 1135 : 	//MonoPrint("DesVt: %6.2f   Vt: %6.2f    Alpha: %5.2f\n", sqrt( 2.0F*GRAVITY*mass/( area*rho*(cl + (desAlpha - oldp03[2])*clalpha)) ), vt, alpha);
; 1136 : 	if((cl + (desAlpha - oldp03[2])*clalpha) < 0.0F)

	mov	eax, 4
	shl	eax, 1
	mov	ecx, DWORD PTR _this$[ebp]
	movss	xmm0, DWORD PTR _desAlpha$[ebp]
	subss	xmm0, DWORD PTR [ecx+eax+332]
	mov	edx, DWORD PTR _this$[ebp]
	mulss	xmm0, DWORD PTR [edx+144]
	mov	eax, DWORD PTR _this$[ebp]
	addss	xmm0, DWORD PTR [eax+152]
	movss	xmm1, DWORD PTR __real@00000000
	comiss	xmm1, xmm0
	jbe	SHORT $LN2@CalcDesSpe

; 1137 : 		return vt;

	mov	ecx, DWORD PTR _this$[ebp]
	fld	DWORD PTR [ecx+1120]
	jmp	SHORT $LN1@CalcDesSpe

; 1138 : 	else

	jmp	SHORT $LN1@CalcDesSpe
$LN2@CalcDesSpe:

; 1139 : 		return (float)sqrt( 2.0F*GRAVITY*mass/( area*rho*(cl + (desAlpha - oldp03[2])*clalpha)) );

	mov	edx, DWORD PTR _this$[ebp]
	movss	xmm0, DWORD PTR __real@4280b53f
	mulss	xmm0, DWORD PTR [edx+40]
	mov	eax, DWORD PTR _this$[ebp]
	mov	ecx, DWORD PTR _this$[ebp]
	movss	xmm1, DWORD PTR [eax+16]
	mulss	xmm1, DWORD PTR [ecx+1128]
	mov	edx, 4
	shl	edx, 1
	mov	eax, DWORD PTR _this$[ebp]
	movss	xmm2, DWORD PTR _desAlpha$[ebp]
	subss	xmm2, DWORD PTR [eax+edx+332]
	mov	ecx, DWORD PTR _this$[ebp]
	mulss	xmm2, DWORD PTR [ecx+144]
	mov	edx, DWORD PTR _this$[ebp]
	addss	xmm2, DWORD PTR [edx+152]
	mulss	xmm1, xmm2
	divss	xmm0, xmm1
	push	ecx
	movss	DWORD PTR [esp], xmm0
	call	?SqrtSSE@@YAMM@Z			; SqrtSSE
	add	esp, 4
$LN1@CalcDesSpe:

; 1140 : }

	mov	esp, ebp
	pop	ebp
	ret	4
?CalcDesSpeed@AirframeClass@@QAEMM@Z ENDP		; AirframeClass::CalcDesSpeed
_TEXT	ENDS
; Function compile flags: /Odtp
; File c:\users\zhitao li\documents\visual studio 2012\projects\freefalcon\sim\airframe\airframe.cpp
_TEXT	SEGMENT
tv86 = -8						; size = 4
_this$ = -4						; size = 4
_desGs$ = 8						; size = 4
?CalcDesAlpha@AirframeClass@@QAEMM@Z PROC		; AirframeClass::CalcDesAlpha
; _this$ = ecx

; 1129 : {

	push	ebp
	mov	ebp, esp
	sub	esp, 8
	mov	DWORD PTR _this$[ebp], ecx

; 1130 : 	return oldp03[2] + (desGs - nzcgb)*GRAVITY/(qsom*clalpha);

	mov	eax, 4
	shl	eax, 1
	mov	ecx, DWORD PTR _this$[ebp]
	movss	xmm0, DWORD PTR _desGs$[ebp]
	subss	xmm0, DWORD PTR [ecx+1192]
	mulss	xmm0, DWORD PTR __real@4200b53f
	mov	edx, DWORD PTR _this$[ebp]
	mov	ecx, DWORD PTR _this$[ebp]
	movss	xmm1, DWORD PTR [edx+648]
	mulss	xmm1, DWORD PTR [ecx+144]
	divss	xmm0, xmm1
	mov	edx, DWORD PTR _this$[ebp]
	addss	xmm0, DWORD PTR [edx+eax+332]
	movss	DWORD PTR tv86[ebp], xmm0
	fld	DWORD PTR tv86[ebp]

; 1131 : }

	mov	esp, ebp
	pop	ebp
	ret	4
?CalcDesAlpha@AirframeClass@@QAEMM@Z ENDP		; AirframeClass::CalcDesAlpha
_TEXT	ENDS
; Function compile flags: /Odtp
; File c:\users\zhitao li\documents\visual studio 2012\projects\freefalcon\sim\airframe\airframe.cpp
_TEXT	SEGMENT
_newthrotl$ = -80					; size = 4
_groundType$ = -76					; size = 4
_tempqsom$ = -72					; size = 4
_cd$ = -68						; size = 4
tv367 = -64						; size = 4
_MachBreak$ = -60					; size = 4
_AlphaBreak$ = -56					; size = 4
tv308 = -52						; size = 4
tv259 = -48						; size = 4
_th2$ = -44						; size = 4
_drag$ = -40						; size = 4
_Mu_fric$ = -36						; size = 4
_mz$ = -32						; size = 4
_EngAltBreak$ = -28					; size = 4
_EngMachBreak$ = -24					; size = 4
tv85 = -20						; size = 4
_accel$ = -16						; size = 4
_th1$ = -12						; size = 4
_tempMach$ = -8						; size = 4
_this$ = -4						; size = 4
_speed$ = 8						; size = 4
?CalcThrotlPos@AirframeClass@@QAEMM@Z PROC		; AirframeClass::CalcThrotlPos
; _this$ = ecx

; 1066 : {

	push	ebp
	mov	ebp, esp
	sub	esp, 80					; 00000050H
	mov	DWORD PTR _this$[ebp], ecx

; 1067 : 	float tempMach, tempqsom, Mu_fric;
; 1068 : 	float th1,th2, newthrotl, cd, drag, accel = 1.0F;

	movss	xmm0, DWORD PTR __real@3f800000
	movss	DWORD PTR _accel$[ebp], xmm0

; 1069 : 	int EngAltBreak	= 0;

	mov	DWORD PTR _EngAltBreak$[ebp], 0

; 1070 : 	int EngMachBreak = 0;

	mov	DWORD PTR _EngMachBreak$[ebp], 0

; 1071 : 	int	AlphaBreak = 0;

	mov	DWORD PTR _AlphaBreak$[ebp], 0

; 1072 : 	int MachBreak = 0;

	mov	DWORD PTR _MachBreak$[ebp], 0

; 1073 : 	int groundType;
; 1074 : 
; 1075 : 	if ( vt > speed * 1.1f )

	movss	xmm0, DWORD PTR _speed$[ebp]
	mulss	xmm0, DWORD PTR __real@3f8ccccd
	mov	eax, DWORD PTR _this$[ebp]
	movss	xmm1, DWORD PTR [eax+1120]
	comiss	xmm1, xmm0
	jbe	SHORT $LN7@CalcThrotl

; 1076 : 		return 0.0f;

	fldz
	jmp	$LN8@CalcThrotl
$LN7@CalcThrotl:

; 1077 : 
; 1078 : 	if(speed <= 0.0F)

	movss	xmm0, DWORD PTR __real@00000000
	comiss	xmm0, DWORD PTR _speed$[ebp]
	jb	SHORT $LN6@CalcThrotl

; 1079 : 		return 0.0F;

	fldz
	jmp	$LN8@CalcThrotl
$LN6@CalcThrotl:

; 1080 : 
; 1081 : 	if(vt < speed)

	mov	ecx, DWORD PTR _this$[ebp]
	movss	xmm0, DWORD PTR _speed$[ebp]
	comiss	xmm0, DWORD PTR [ecx+1120]
	jbe	$LN5@CalcThrotl

; 1082 : 	{
; 1083 : 		if(vt < 0.2F * speed)

	movss	xmm0, DWORD PTR __real@3e4ccccd
	mulss	xmm0, DWORD PTR _speed$[ebp]
	mov	edx, DWORD PTR _this$[ebp]
	comiss	xmm0, DWORD PTR [edx+1120]
	jbe	SHORT $LN4@CalcThrotl

; 1084 : 		{
; 1085 : 			if(vt < 10.0F)

	mov	eax, DWORD PTR _this$[ebp]
	movss	xmm0, DWORD PTR __real@41200000
	comiss	xmm0, DWORD PTR [eax+1120]
	jbe	SHORT $LN3@CalcThrotl

; 1086 : 				return 1.5F;

	fld	DWORD PTR __real@3fc00000
	jmp	$LN8@CalcThrotl
$LN3@CalcThrotl:

; 1087 : 
; 1088 : 			tempMach = speed*5.0F/AASL;

	movss	xmm0, DWORD PTR _speed$[ebp]
	mulss	xmm0, DWORD PTR __real@40a00000
	divss	xmm0, DWORD PTR __real@448b8e14
	movss	DWORD PTR _tempMach$[ebp], xmm0

; 1089 : 		}
; 1090 : 		else

	jmp	SHORT $LN2@CalcThrotl
$LN4@CalcThrotl:

; 1091 : 			tempMach = (speed * ( speed/vt) )/AASL;	

	mov	ecx, DWORD PTR _this$[ebp]
	movss	xmm0, DWORD PTR _speed$[ebp]
	divss	xmm0, DWORD PTR [ecx+1120]
	mulss	xmm0, DWORD PTR _speed$[ebp]
	divss	xmm0, DWORD PTR __real@448b8e14
	movss	DWORD PTR _tempMach$[ebp], xmm0
$LN2@CalcThrotl:

; 1092 : 
; 1093 : 		accel = 1.2F;

	movss	xmm0, DWORD PTR __real@3f99999a
	movss	DWORD PTR _accel$[ebp], xmm0

; 1094 : 	}
; 1095 : 	else

	jmp	SHORT $LN1@CalcThrotl
$LN5@CalcThrotl:

; 1096 : 		tempMach = speed/AASL;

	movss	xmm0, DWORD PTR _speed$[ebp]
	divss	xmm0, DWORD PTR __real@448b8e14
	movss	DWORD PTR _tempMach$[ebp], xmm0
$LN1@CalcThrotl:

; 1097 : 
; 1098 : 	tempMach = min(tempMach,2.0F);

	movss	xmm0, DWORD PTR __real@40000000
	comiss	xmm0, DWORD PTR _tempMach$[ebp]
	jbe	SHORT $LN10@CalcThrotl
	movss	xmm0, DWORD PTR _tempMach$[ebp]
	movss	DWORD PTR tv85[ebp], xmm0
	jmp	SHORT $LN11@CalcThrotl
$LN10@CalcThrotl:
	movss	xmm0, DWORD PTR __real@40000000
	movss	DWORD PTR tv85[ebp], xmm0
$LN11@CalcThrotl:
	movss	xmm0, DWORD PTR tv85[ebp]
	movss	DWORD PTR _tempMach$[ebp], xmm0

; 1099 : 
; 1100 : 	BIG_SCALAR mz = -platform->ZPos();

	mov	edx, DWORD PTR _this$[ebp]
	mov	ecx, DWORD PTR [edx+1088]
	call	?ZPos@VuEntity@@QBEMXZ			; VuEntity::ZPos
	fstp	DWORD PTR tv308[ebp]
	movss	xmm0, DWORD PTR tv308[ebp]
	xorps	xmm0, DWORD PTR __xmm@80000000800000008000000080000000
	movss	DWORD PTR _mz$[ebp], xmm0

; 1101 : 	th1 = Math.TwodInterp (mz, tempMach, engineData->alt,
; 1102 :     engineData->mach, engineData->thrust[0], engineData->numAlt,
; 1103 : 	engineData->numMach, &EngAltBreak, &EngMachBreak);

	lea	eax, DWORD PTR _EngMachBreak$[ebp]
	push	eax
	lea	ecx, DWORD PTR _EngAltBreak$[ebp]
	push	ecx
	mov	edx, DWORD PTR _this$[ebp]
	mov	eax, DWORD PTR [edx+8]
	mov	ecx, DWORD PTR [eax+8]
	push	ecx
	mov	edx, DWORD PTR _this$[ebp]
	mov	eax, DWORD PTR [edx+8]
	mov	ecx, DWORD PTR [eax+12]
	push	ecx
	mov	edx, DWORD PTR _this$[ebp]
	mov	eax, DWORD PTR [edx+8]
	mov	ecx, 4
	imul	ecx, 0
	mov	edx, DWORD PTR [eax+ecx+28]
	push	edx
	mov	eax, DWORD PTR _this$[ebp]
	mov	ecx, DWORD PTR [eax+8]
	mov	edx, DWORD PTR [ecx+16]
	push	edx
	mov	eax, DWORD PTR _this$[ebp]
	mov	ecx, DWORD PTR [eax+8]
	mov	edx, DWORD PTR [ecx+20]
	push	edx
	push	ecx
	movss	xmm0, DWORD PTR _tempMach$[ebp]
	movss	DWORD PTR [esp], xmm0
	push	ecx
	movss	xmm0, DWORD PTR _mz$[ebp]
	movss	DWORD PTR [esp], xmm0
	mov	ecx, OFFSET ?Math@@3VSIMLIB_MATH_CLASS@@A ; Math
	call	?TwodInterp@SIMLIB_MATH_CLASS@@QAEMMMPBM00HHPAH1@Z ; SIMLIB_MATH_CLASS::TwodInterp
	fstp	DWORD PTR _th1$[ebp]

; 1104 : 	th2 = Math.TwodInterp (mz, tempMach, engineData->alt,
; 1105 : 	engineData->mach, engineData->thrust[1], engineData->numAlt,
; 1106 : 	engineData->numMach, &EngAltBreak, &EngMachBreak);

	lea	eax, DWORD PTR _EngMachBreak$[ebp]
	push	eax
	lea	ecx, DWORD PTR _EngAltBreak$[ebp]
	push	ecx
	mov	edx, DWORD PTR _this$[ebp]
	mov	eax, DWORD PTR [edx+8]
	mov	ecx, DWORD PTR [eax+8]
	push	ecx
	mov	edx, DWORD PTR _this$[ebp]
	mov	eax, DWORD PTR [edx+8]
	mov	ecx, DWORD PTR [eax+12]
	push	ecx
	mov	edx, DWORD PTR _this$[ebp]
	mov	eax, DWORD PTR [edx+8]
	mov	ecx, 4
	shl	ecx, 0
	mov	edx, DWORD PTR [eax+ecx+28]
	push	edx
	mov	eax, DWORD PTR _this$[ebp]
	mov	ecx, DWORD PTR [eax+8]
	mov	edx, DWORD PTR [ecx+16]
	push	edx
	mov	eax, DWORD PTR _this$[ebp]
	mov	ecx, DWORD PTR [eax+8]
	mov	edx, DWORD PTR [ecx+20]
	push	edx
	push	ecx
	movss	xmm0, DWORD PTR _tempMach$[ebp]
	movss	DWORD PTR [esp], xmm0
	push	ecx
	movss	xmm0, DWORD PTR _mz$[ebp]
	movss	DWORD PTR [esp], xmm0
	mov	ecx, OFFSET ?Math@@3VSIMLIB_MATH_CLASS@@A ; Math
	call	?TwodInterp@SIMLIB_MATH_CLASS@@QAEMMMPBM00HHPAH1@Z ; SIMLIB_MATH_CLASS::TwodInterp
	fstp	DWORD PTR _th2$[ebp]

; 1107 : 
; 1108 : 
; 1109 : 	cd = Math.TwodInterp(
; 1110 : 		tempMach, alpha, aeroData->mach, aeroData->alpha,
; 1111 :         aeroData->cdrag, aeroData->numMach, aeroData->numAlpha, &MachBreak, &AlphaBreak
; 1112 : 	) * aeroData->cdFactor;

	lea	eax, DWORD PTR _AlphaBreak$[ebp]
	push	eax
	lea	ecx, DWORD PTR _MachBreak$[ebp]
	push	ecx
	mov	edx, DWORD PTR _this$[ebp]
	mov	eax, DWORD PTR [edx]
	mov	ecx, DWORD PTR [eax+4]
	push	ecx
	mov	edx, DWORD PTR _this$[ebp]
	mov	eax, DWORD PTR [edx]
	mov	ecx, DWORD PTR [eax]
	push	ecx
	mov	edx, DWORD PTR _this$[ebp]
	mov	eax, DWORD PTR [edx]
	mov	ecx, DWORD PTR [eax+20]
	push	ecx
	mov	edx, DWORD PTR _this$[ebp]
	mov	eax, DWORD PTR [edx]
	mov	ecx, DWORD PTR [eax+12]
	push	ecx
	mov	edx, DWORD PTR _this$[ebp]
	mov	eax, DWORD PTR [edx]
	mov	ecx, DWORD PTR [eax+8]
	push	ecx
	mov	edx, DWORD PTR _this$[ebp]
	push	ecx
	movss	xmm0, DWORD PTR [edx+1152]
	movss	DWORD PTR [esp], xmm0
	push	ecx
	movss	xmm0, DWORD PTR _tempMach$[ebp]
	movss	DWORD PTR [esp], xmm0
	mov	ecx, OFFSET ?Math@@3VSIMLIB_MATH_CLASS@@A ; Math
	call	?TwodInterp@SIMLIB_MATH_CLASS@@QAEMMMPBM00HHPAH1@Z ; SIMLIB_MATH_CLASS::TwodInterp
	fstp	DWORD PTR tv367[ebp]
	movss	xmm0, DWORD PTR tv367[ebp]
	mov	eax, DWORD PTR _this$[ebp]
	mov	ecx, DWORD PTR [eax]
	mulss	xmm0, DWORD PTR [ecx+32]
	movss	DWORD PTR _cd$[ebp], xmm0

; 1113 : 
; 1114 : 
; 1115 : 	tempqsom = 0.5F * rho * speed * speed * area/mass;

	mov	edx, DWORD PTR _this$[ebp]
	movss	xmm0, DWORD PTR __real@3f000000
	mulss	xmm0, DWORD PTR [edx+1128]
	mulss	xmm0, DWORD PTR _speed$[ebp]
	mulss	xmm0, DWORD PTR _speed$[ebp]
	mov	eax, DWORD PTR _this$[ebp]
	mulss	xmm0, DWORD PTR [eax+16]
	mov	ecx, DWORD PTR _this$[ebp]
	divss	xmm0, DWORD PTR [ecx+40]
	movss	DWORD PTR _tempqsom$[ebp], xmm0

; 1116 : 
; 1117 : 	drag  = (cd + 0.002F + auxaeroData->CDLDGFactor*gearPos)*tempqsom;

	movss	xmm0, DWORD PTR _cd$[ebp]
	addss	xmm0, DWORD PTR __real@3b03126f
	mov	edx, DWORD PTR _this$[ebp]
	mov	eax, DWORD PTR [edx+4]
	mov	ecx, DWORD PTR _this$[ebp]
	movss	xmm1, DWORD PTR [eax+160]
	mulss	xmm1, DWORD PTR [ecx+1552]
	addss	xmm0, xmm1
	mulss	xmm0, DWORD PTR _tempqsom$[ebp]
	movss	DWORD PTR _drag$[ebp], xmm0

; 1118 : 	 
; 1119 : 	groundType = OTWDriver.GetGroundType ( x, y );

	mov	edx, DWORD PTR _this$[ebp]
	push	ecx
	movss	xmm0, DWORD PTR [edx+1112]
	movss	DWORD PTR [esp], xmm0
	mov	eax, DWORD PTR _this$[ebp]
	push	ecx
	movss	xmm0, DWORD PTR [eax+1108]
	movss	DWORD PTR [esp], xmm0
	mov	ecx, OFFSET ?OTWDriver@@3VOTWDriverClass@@A ; OTWDriver
	call	?GetGroundType@OTWDriverClass@@QAEHMM@Z	; OTWDriverClass::GetGroundType
	mov	DWORD PTR _groundType$[ebp], eax

; 1120 : 
; 1121 : 	Mu_fric = CalcMuFric(groundType);

	mov	ecx, DWORD PTR _groundType$[ebp]
	push	ecx
	mov	ecx, DWORD PTR _this$[ebp]
	call	?CalcMuFric@AirframeClass@@QAEMH@Z	; AirframeClass::CalcMuFric
	fstp	DWORD PTR _Mu_fric$[ebp]

; 1122 : 
; 1123 : 	newthrotl = min( ((drag + Mu_fric*(1.0F - nzcgs)*GRAVITY)/ethrst*mass - th1)/(th2-th1) * accel, 1.5F);

	mov	edx, DWORD PTR _this$[ebp]
	movss	xmm0, DWORD PTR __real@3f800000
	subss	xmm0, DWORD PTR [edx+268]
	mulss	xmm0, DWORD PTR _Mu_fric$[ebp]
	mulss	xmm0, DWORD PTR __real@4200b53f
	addss	xmm0, DWORD PTR _drag$[ebp]
	mov	eax, DWORD PTR _this$[ebp]
	divss	xmm0, DWORD PTR [eax+204]
	mov	ecx, DWORD PTR _this$[ebp]
	mulss	xmm0, DWORD PTR [ecx+40]
	subss	xmm0, DWORD PTR _th1$[ebp]
	movss	xmm1, DWORD PTR _th2$[ebp]
	subss	xmm1, DWORD PTR _th1$[ebp]
	divss	xmm0, xmm1
	mulss	xmm0, DWORD PTR _accel$[ebp]
	movss	xmm1, DWORD PTR __real@3fc00000
	comiss	xmm1, xmm0
	jbe	SHORT $LN12@CalcThrotl
	mov	edx, DWORD PTR _this$[ebp]
	movss	xmm0, DWORD PTR __real@3f800000
	subss	xmm0, DWORD PTR [edx+268]
	mulss	xmm0, DWORD PTR _Mu_fric$[ebp]
	mulss	xmm0, DWORD PTR __real@4200b53f
	addss	xmm0, DWORD PTR _drag$[ebp]
	mov	eax, DWORD PTR _this$[ebp]
	divss	xmm0, DWORD PTR [eax+204]
	mov	ecx, DWORD PTR _this$[ebp]
	mulss	xmm0, DWORD PTR [ecx+40]
	subss	xmm0, DWORD PTR _th1$[ebp]
	movss	xmm1, DWORD PTR _th2$[ebp]
	subss	xmm1, DWORD PTR _th1$[ebp]
	divss	xmm0, xmm1
	mulss	xmm0, DWORD PTR _accel$[ebp]
	movss	DWORD PTR tv259[ebp], xmm0
	jmp	SHORT $LN13@CalcThrotl
$LN12@CalcThrotl:
	movss	xmm0, DWORD PTR __real@3fc00000
	movss	DWORD PTR tv259[ebp], xmm0
$LN13@CalcThrotl:
	movss	xmm0, DWORD PTR tv259[ebp]
	movss	DWORD PTR _newthrotl$[ebp], xmm0

; 1124 : 
; 1125 : 	return newthrotl;

	fld	DWORD PTR _newthrotl$[ebp]
$LN8@CalcThrotl:

; 1126 : }

	mov	esp, ebp
	pop	ebp
	ret	4
?CalcThrotlPos@AirframeClass@@QAEMM@Z ENDP		; AirframeClass::CalcThrotlPos
_TEXT	ENDS
; Function compile flags: /Odtp
; File c:\users\zhitao li\documents\visual studio 2012\projects\freefalcon\sim\airframe\airframe.cpp
_TEXT	SEGMENT
tv646 = -80						; size = 8
_Trig$ = -72						; size = 8
_dt$ = -64						; size = 4
tv815 = -60						; size = 4
tv796 = -56						; size = 4
_height$1 = -52						; size = 4
tv605 = -48						; size = 4
tv604 = -44						; size = 4
tv597 = -40						; size = 4
tv329 = -36						; size = 4
_newZ$2 = -32						; size = 4
tv643 = -28						; size = 4
_xydelta$ = -24						; size = 4
_mag$ = -20						; size = 4
_newSigma$ = -16					; size = 4
_newGamma$ = -12					; size = 4
_pa$ = -8						; size = 4
_this$ = -4						; size = 4
?RemoteUpdate@AirframeClass@@QAEXXZ PROC		; AirframeClass::RemoteUpdate
; _this$ = ecx

; 670  : void AirframeClass::RemoteUpdate(){

	push	ebp
	mov	ebp, esp
	sub	esp, 80					; 00000050H
	mov	DWORD PTR _this$[ebp], ecx

; 671  : 	ObjectGeometry	*pa = &platform->platformAngles;

	mov	eax, DWORD PTR _this$[ebp]
	mov	ecx, DWORD PTR [eax+1088]
	add	ecx, 340				; 00000154H
	mov	DWORD PTR _pa$[ebp], ecx

; 672  : 	mlTrig Trig;
; 673  : 	float newGamma, newSigma;
; 674  : 	float dt;
; 675  : 
; 676  : 	dt = (vuxGameTime - platform->LastUpdateTime ()) / 1000.0F;

	mov	edx, DWORD PTR _this$[ebp]
	mov	ecx, DWORD PTR [edx+1088]
	call	?LastUpdateTime@VuEntity@@QBEKXZ	; VuEntity::LastUpdateTime
	mov	ecx, DWORD PTR ?vuxGameTime@@3KA	; vuxGameTime
	sub	ecx, eax
	mov	DWORD PTR tv643[ebp], ecx
	cvtsi2sd xmm0, DWORD PTR tv643[ebp]
	mov	edx, DWORD PTR tv643[ebp]
	shr	edx, 31					; 0000001fH
	addsd	xmm0, QWORD PTR __xmm@41f00000000000000000000000000000[edx*8]
	movsd	QWORD PTR tv646[ebp], xmm0
	cvtsd2ss xmm0, QWORD PTR tv646[ebp]
	divss	xmm0, DWORD PTR __real@447a0000
	movss	DWORD PTR _dt$[ebp], xmm0

; 677  : 
; 678  : 	platform->SetUpdateTime (vuxGameTime);

	mov	eax, DWORD PTR ?vuxGameTime@@3KA	; vuxGameTime
	push	eax
	mov	ecx, DWORD PTR _this$[ebp]
	mov	ecx, DWORD PTR [ecx+1088]
	call	?SetUpdateTime@VuEntity@@QAEXK@Z	; VuEntity::SetUpdateTime

; 679  : 
; 680  : 	xdot = platform->XDelta();

	mov	edx, DWORD PTR _this$[ebp]
	mov	ecx, DWORD PTR [edx+1088]
	call	?XDelta@VuEntity@@QBEMXZ		; VuEntity::XDelta
	mov	eax, DWORD PTR _this$[ebp]
	fstp	DWORD PTR [eax+1196]

; 681  : 	ydot = platform->YDelta();

	mov	ecx, DWORD PTR _this$[ebp]
	mov	ecx, DWORD PTR [ecx+1088]
	call	?YDelta@VuEntity@@QBEMXZ		; VuEntity::YDelta
	mov	edx, DWORD PTR _this$[ebp]
	fstp	DWORD PTR [edx+1200]

; 682  : 	zdot = platform->ZDelta();

	mov	eax, DWORD PTR _this$[ebp]
	mov	ecx, DWORD PTR [eax+1088]
	call	?ZDelta@VuEntity@@QBEMXZ		; VuEntity::ZDelta
	mov	ecx, DWORD PTR _this$[ebp]
	fstp	DWORD PTR [ecx+1204]

; 683  : 	// sfr: this is wrong, driver does this
; 684  : 	//x = platform->XPos() + xdot * dt;
; 685  : 	//y = platform->YPos() + ydot * dt;
; 686  : 	//z = platform->ZPos() + zdot * dt;
; 687  : 	x = platform->XPos();

	mov	edx, DWORD PTR _this$[ebp]
	mov	ecx, DWORD PTR [edx+1088]
	call	?XPos@VuEntity@@QBEMXZ			; VuEntity::XPos
	mov	eax, DWORD PTR _this$[ebp]
	fstp	DWORD PTR [eax+1108]

; 688  : 	y = platform->YPos();

	mov	ecx, DWORD PTR _this$[ebp]
	mov	ecx, DWORD PTR [ecx+1088]
	call	?YPos@VuEntity@@QBEMXZ			; VuEntity::YPos
	mov	edx, DWORD PTR _this$[ebp]
	fstp	DWORD PTR [edx+1112]

; 689  : 	z = platform->ZPos();

	mov	eax, DWORD PTR _this$[ebp]
	mov	ecx, DWORD PTR [eax+1088]
	call	?ZPos@VuEntity@@QBEMXZ			; VuEntity::ZPos
	mov	ecx, DWORD PTR _this$[ebp]
	fstp	DWORD PTR [ecx+1116]

; 690  : 
; 691  : 	groundAnchorX = x;

	mov	edx, DWORD PTR _this$[ebp]
	mov	eax, DWORD PTR _this$[ebp]
	mov	ecx, DWORD PTR [eax+1108]
	mov	DWORD PTR [edx+112], ecx

; 692  : 	groundAnchorY = y;

	mov	edx, DWORD PTR _this$[ebp]
	mov	eax, DWORD PTR _this$[ebp]
	mov	ecx, DWORD PTR [eax+1112]
	mov	DWORD PTR [edx+116], ecx

; 693  : 	groundDeltaX = 0.0f;

	mov	edx, DWORD PTR _this$[ebp]
	movss	xmm0, DWORD PTR __real@00000000
	movss	DWORD PTR [edx+120], xmm0

; 694  : 	groundDeltaY = 0.0f;

	mov	eax, DWORD PTR _this$[ebp]
	movss	xmm0, DWORD PTR __real@00000000
	movss	DWORD PTR [eax+124], xmm0

; 695  : 
; 696  : 	theta = platform->Pitch();

	mov	ecx, DWORD PTR _this$[ebp]
	mov	ecx, DWORD PTR [ecx+1088]
	call	?Pitch@VuEntity@@QBEMXZ			; VuEntity::Pitch
	mov	edx, DWORD PTR _this$[ebp]
	fstp	DWORD PTR [edx+1160]

; 697  : 	psi = platform->Yaw();

	mov	eax, DWORD PTR _this$[ebp]
	mov	ecx, DWORD PTR [eax+1088]
	call	?Yaw@VuEntity@@QBEMXZ			; VuEntity::Yaw
	mov	ecx, DWORD PTR _this$[ebp]
	fstp	DWORD PTR [ecx+1168]

; 698  : 
; 699  : 	mlSinCos(&Trig, theta);

	mov	edx, DWORD PTR _this$[ebp]
	push	ecx
	movss	xmm0, DWORD PTR [edx+1160]
	movss	DWORD PTR [esp], xmm0
	lea	eax, DWORD PTR _Trig$[ebp]
	push	eax
	call	?mlSinCos@@YAXPAUmlTrig@@M@Z		; mlSinCos
	add	esp, 8

; 700  : 	pa->sinthe = Trig.sin;

	mov	ecx, DWORD PTR _pa$[ebp]
	movss	xmm0, DWORD PTR _Trig$[ebp]
	movss	DWORD PTR [ecx+48], xmm0

; 701  : 	pa->costhe = Trig.cos;

	mov	edx, DWORD PTR _pa$[ebp]
	movss	xmm0, DWORD PTR _Trig$[ebp+4]
	movss	DWORD PTR [edx+52], xmm0

; 702  : 
; 703  : 	mlSinCos(&Trig, psi);

	mov	eax, DWORD PTR _this$[ebp]
	push	ecx
	movss	xmm0, DWORD PTR [eax+1168]
	movss	DWORD PTR [esp], xmm0
	lea	ecx, DWORD PTR _Trig$[ebp]
	push	ecx
	call	?mlSinCos@@YAXPAUmlTrig@@M@Z		; mlSinCos
	add	esp, 8

; 704  : 	pa->sinpsi = Trig.sin;

	mov	edx, DWORD PTR _pa$[ebp]
	movss	xmm0, DWORD PTR _Trig$[ebp]
	movss	DWORD PTR [edx+64], xmm0

; 705  : 	pa->cospsi = Trig.cos;

	mov	eax, DWORD PTR _pa$[ebp]
	movss	xmm0, DWORD PTR _Trig$[ebp+4]
	movss	DWORD PTR [eax+68], xmm0

; 706  : 
; 707  : 	float xydelta = (float)sqrt(xdot*xdot + ydot*ydot);

	mov	ecx, DWORD PTR _this$[ebp]
	mov	edx, DWORD PTR _this$[ebp]
	movss	xmm0, DWORD PTR [ecx+1196]
	mulss	xmm0, DWORD PTR [edx+1196]
	mov	eax, DWORD PTR _this$[ebp]
	mov	ecx, DWORD PTR _this$[ebp]
	movss	xmm1, DWORD PTR [eax+1200]
	mulss	xmm1, DWORD PTR [ecx+1200]
	addss	xmm0, xmm1
	push	ecx
	movss	DWORD PTR [esp], xmm0
	call	?SqrtSSE@@YAMM@Z			; SqrtSSE
	add	esp, 4
	fstp	DWORD PTR _xydelta$[ebp]

; 708  : 
; 709  : 	if (xydelta && !platform->OnGround ()){

	movss	xmm0, DWORD PTR _xydelta$[ebp]
	ucomiss	xmm0, DWORD PTR __real@00000000
	lahf
	test	ah, 68					; 00000044H
	jnp	SHORT $LN15@RemoteUpda
	mov	edx, DWORD PTR _this$[ebp]
	mov	eax, DWORD PTR [edx+1088]
	mov	ecx, DWORD PTR _this$[ebp]
	mov	edx, DWORD PTR [eax]
	mov	ecx, DWORD PTR [ecx+1088]
	mov	eax, DWORD PTR [edx+148]
	call	eax
	test	eax, eax
	jne	SHORT $LN15@RemoteUpda

; 710  : 		newSigma = (float)atan2(ydot, xdot);

	mov	ecx, DWORD PTR _this$[ebp]
	cvtss2sd xmm0, DWORD PTR [ecx+1196]
	sub	esp, 8
	movsd	QWORD PTR [esp], xmm0
	mov	edx, DWORD PTR _this$[ebp]
	cvtss2sd xmm0, DWORD PTR [edx+1200]
	sub	esp, 8
	movsd	QWORD PTR [esp], xmm0
	call	?checked_atan2@@YANNN@Z			; checked_atan2
	add	esp, 16					; 00000010H
	fstp	DWORD PTR _newSigma$[ebp]

; 711  : 	}
; 712  : 	else {

	jmp	SHORT $LN14@RemoteUpda
$LN15@RemoteUpda:

; 713  : 		newSigma = psi;

	mov	eax, DWORD PTR _this$[ebp]
	movss	xmm0, DWORD PTR [eax+1168]
	movss	DWORD PTR _newSigma$[ebp], xmm0
$LN14@RemoteUpda:

; 714  : 	}
; 715  : 
; 716  : 	r = (sigma - newSigma)/SimLibMajorFrameTime;

	mov	ecx, DWORD PTR _this$[ebp]
	movss	xmm0, DWORD PTR [ecx+1176]
	subss	xmm0, DWORD PTR _newSigma$[ebp]
	divss	xmm0, DWORD PTR ?SimLibMajorFrameTime@@3MA
	mov	edx, DWORD PTR _this$[ebp]
	movss	DWORD PTR [edx+1140], xmm0

; 717  : 	sigma = newSigma;

	mov	eax, DWORD PTR _this$[ebp]
	movss	xmm0, DWORD PTR _newSigma$[ebp]
	movss	DWORD PTR [eax+1176], xmm0

; 718  : 
; 719  : 	groundZ = OTWDriver.GetGroundLevel(x, y, &gndNormal);

	mov	ecx, DWORD PTR _this$[ebp]
	add	ecx, 1288				; 00000508H
	push	ecx
	mov	edx, DWORD PTR _this$[ebp]
	push	ecx
	movss	xmm0, DWORD PTR [edx+1112]
	movss	DWORD PTR [esp], xmm0
	mov	eax, DWORD PTR _this$[ebp]
	push	ecx
	movss	xmm0, DWORD PTR [eax+1108]
	movss	DWORD PTR [esp], xmm0
	mov	ecx, OFFSET ?OTWDriver@@3VOTWDriverClass@@A ; OTWDriver
	call	?GetGroundLevel@OTWDriverClass@@QAEMMMPAUTpoint@@@Z ; OTWDriverClass::GetGroundLevel
	mov	ecx, DWORD PTR _this$[ebp]
	fstp	DWORD PTR [ecx+1272]

; 720  : 	float mag = (float)sqrt(gndNormal.x*gndNormal.x + gndNormal.y*gndNormal.y + gndNormal.z*gndNormal.z);

	mov	edx, DWORD PTR _this$[ebp]
	mov	eax, DWORD PTR _this$[ebp]
	movss	xmm0, DWORD PTR [edx+1288]
	mulss	xmm0, DWORD PTR [eax+1288]
	mov	ecx, DWORD PTR _this$[ebp]
	mov	edx, DWORD PTR _this$[ebp]
	movss	xmm1, DWORD PTR [ecx+1292]
	mulss	xmm1, DWORD PTR [edx+1292]
	addss	xmm0, xmm1
	mov	eax, DWORD PTR _this$[ebp]
	mov	ecx, DWORD PTR _this$[ebp]
	movss	xmm1, DWORD PTR [eax+1296]
	mulss	xmm1, DWORD PTR [ecx+1296]
	addss	xmm0, xmm1
	push	ecx
	movss	DWORD PTR [esp], xmm0
	call	?SqrtSSE@@YAMM@Z			; SqrtSSE
	add	esp, 4
	fstp	DWORD PTR _mag$[ebp]

; 721  : 	gndNormal.x /= mag;

	mov	edx, DWORD PTR _this$[ebp]
	movss	xmm0, DWORD PTR [edx+1288]
	divss	xmm0, DWORD PTR _mag$[ebp]
	mov	eax, DWORD PTR _this$[ebp]
	movss	DWORD PTR [eax+1288], xmm0

; 722  : 	gndNormal.y /= mag;

	mov	ecx, DWORD PTR _this$[ebp]
	movss	xmm0, DWORD PTR [ecx+1292]
	divss	xmm0, DWORD PTR _mag$[ebp]
	mov	edx, DWORD PTR _this$[ebp]
	movss	DWORD PTR [edx+1292], xmm0

; 723  : 	gndNormal.z /= mag;

	mov	eax, DWORD PTR _this$[ebp]
	movss	xmm0, DWORD PTR [eax+1296]
	divss	xmm0, DWORD PTR _mag$[ebp]
	mov	ecx, DWORD PTR _this$[ebp]
	movss	DWORD PTR [ecx+1296], xmm0

; 724  : 
; 725  : 	if (platform->OnGround()){

	mov	edx, DWORD PTR _this$[ebp]
	mov	eax, DWORD PTR [edx+1088]
	mov	ecx, DWORD PTR _this$[ebp]
	mov	edx, DWORD PTR [eax]
	mov	ecx, DWORD PTR [ecx+1088]
	mov	eax, DWORD PTR [edx+148]
	call	eax
	test	eax, eax
	je	$LN13@RemoteUpda

; 726  : 		CalculateGroundPlane(&gmma, &mu);

	mov	ecx, DWORD PTR _this$[ebp]
	add	ecx, 1180				; 0000049cH
	push	ecx
	mov	edx, DWORD PTR _this$[ebp]
	add	edx, 1172				; 00000494H
	push	edx
	mov	ecx, DWORD PTR _this$[ebp]
	call	?CalculateGroundPlane@AirframeClass@@ABEXPAM0@Z ; AirframeClass::CalculateGroundPlane

; 727  : 		// sfr: stop plane sink, doest work, function is being called with bad values
; 728  : 		float height = CheckHeight();

	mov	ecx, DWORD PTR _this$[ebp]
	call	?CheckHeight@AirframeClass@@QBEMXZ	; AirframeClass::CheckHeight
	fstp	DWORD PTR _height$1[ebp]

; 729  : 		float newZ = groundZ - height;

	mov	eax, DWORD PTR _this$[ebp]
	movss	xmm0, DWORD PTR [eax+1272]
	subss	xmm0, DWORD PTR _height$1[ebp]
	movss	DWORD PTR _newZ$2[ebp], xmm0

; 730  : 		if (newZ < z){

	mov	ecx, DWORD PTR _this$[ebp]
	movss	xmm0, DWORD PTR [ecx+1116]
	comiss	xmm0, DWORD PTR _newZ$2[ebp]
	jbe	SHORT $LN12@RemoteUpda

; 731  : 			// sfr: only update Z if newZ is higher than current (on carriers for example this doesnt happen)
; 732  : 			// this will probably fix the players sunk on carriers and ground
; 733  : 			z = newZ;

	mov	edx, DWORD PTR _this$[ebp]
	movss	xmm0, DWORD PTR _newZ$2[ebp]
	movss	DWORD PTR [edx+1116], xmm0
$LN12@RemoteUpda:

; 734  : 		}
; 735  : 		q = 0.0F;

	mov	eax, DWORD PTR _this$[ebp]
	movss	xmm0, DWORD PTR __real@00000000
	movss	DWORD PTR [eax+1136], xmm0

; 736  : 		p = 0.0F;

	mov	ecx, DWORD PTR _this$[ebp]
	movss	xmm0, DWORD PTR __real@00000000
	movss	DWORD PTR [ecx+1132], xmm0

; 737  : 		phi = mu;

	mov	edx, DWORD PTR _this$[ebp]
	mov	eax, DWORD PTR _this$[ebp]
	mov	ecx, DWORD PTR [eax+1180]
	mov	DWORD PTR [edx+1164], ecx

; 738  : 	}
; 739  : 	else {

	jmp	$LN11@RemoteUpda
$LN13@RemoteUpda:

; 740  : 		//not strictly true but close enough
; 741  : 		p = (phi - platform->Roll())/SimLibMajorFrameTime;

	mov	edx, DWORD PTR _this$[ebp]
	mov	ecx, DWORD PTR [edx+1088]
	call	?Roll@VuEntity@@QBEMXZ			; VuEntity::Roll
	fstp	DWORD PTR tv796[ebp]
	mov	eax, DWORD PTR _this$[ebp]
	movss	xmm0, DWORD PTR [eax+1164]
	subss	xmm0, DWORD PTR tv796[ebp]
	divss	xmm0, DWORD PTR ?SimLibMajorFrameTime@@3MA
	mov	ecx, DWORD PTR _this$[ebp]
	movss	DWORD PTR [ecx+1132], xmm0

; 742  : 		mu = phi = platform->Roll();

	mov	edx, DWORD PTR _this$[ebp]
	mov	ecx, DWORD PTR [edx+1088]
	call	?Roll@VuEntity@@QBEMXZ			; VuEntity::Roll
	fstp	DWORD PTR tv329[ebp]
	mov	eax, DWORD PTR _this$[ebp]
	movss	xmm0, DWORD PTR tv329[ebp]
	movss	DWORD PTR [eax+1164], xmm0
	mov	ecx, DWORD PTR _this$[ebp]
	movss	xmm0, DWORD PTR tv329[ebp]
	movss	DWORD PTR [ecx+1180], xmm0

; 743  : 
; 744  : 		if (xydelta){

	movss	xmm0, DWORD PTR _xydelta$[ebp]
	ucomiss	xmm0, DWORD PTR __real@00000000
	lahf
	test	ah, 68					; 00000044H
	jnp	SHORT $LN10@RemoteUpda

; 745  : 			newGamma = (float)atan(platform->ZDelta()/xydelta);

	mov	edx, DWORD PTR _this$[ebp]
	mov	ecx, DWORD PTR [edx+1088]
	call	?ZDelta@VuEntity@@QBEMXZ		; VuEntity::ZDelta
	fstp	DWORD PTR tv815[ebp]
	movss	xmm0, DWORD PTR tv815[ebp]
	divss	xmm0, DWORD PTR _xydelta$[ebp]
	push	ecx
	movss	DWORD PTR [esp], xmm0
	call	?atan@@YAMM@Z				; atan
	add	esp, 4
	fstp	DWORD PTR _newGamma$[ebp]
	jmp	SHORT $LN7@RemoteUpda
$LN10@RemoteUpda:

; 746  : 		}
; 747  : 		else if(platform->OnGround ()) {

	mov	eax, DWORD PTR _this$[ebp]
	mov	ecx, DWORD PTR [eax+1088]
	mov	edx, DWORD PTR _this$[ebp]
	mov	eax, DWORD PTR [ecx]
	mov	ecx, DWORD PTR [edx+1088]
	mov	edx, DWORD PTR [eax+148]
	call	edx
	test	eax, eax
	je	SHORT $LN8@RemoteUpda

; 748  : 			newGamma = gmma;

	mov	eax, DWORD PTR _this$[ebp]
	movss	xmm0, DWORD PTR [eax+1172]
	movss	DWORD PTR _newGamma$[ebp], xmm0

; 749  : 		}
; 750  : 		else {

	jmp	SHORT $LN7@RemoteUpda
$LN8@RemoteUpda:

; 751  : 			newGamma = 0.0F;

	movss	xmm0, DWORD PTR __real@00000000
	movss	DWORD PTR _newGamma$[ebp], xmm0

; 752  : 			vt = 300.0F*KNOTS_TO_FTPSEC;

	mov	ecx, DWORD PTR _this$[ebp]
	movss	xmm0, DWORD PTR __real@43fd2ce8
	movss	DWORD PTR [ecx+1120], xmm0
$LN7@RemoteUpda:

; 753  : 		}
; 754  : 
; 755  : 		q = (gmma - newGamma)/SimLibMajorFrameTime;

	mov	edx, DWORD PTR _this$[ebp]
	movss	xmm0, DWORD PTR [edx+1172]
	subss	xmm0, DWORD PTR _newGamma$[ebp]
	divss	xmm0, DWORD PTR ?SimLibMajorFrameTime@@3MA
	mov	eax, DWORD PTR _this$[ebp]
	movss	DWORD PTR [eax+1136], xmm0

; 756  : 		gmma = newGamma;

	mov	ecx, DWORD PTR _this$[ebp]
	movss	xmm0, DWORD PTR _newGamma$[ebp]
	movss	DWORD PTR [ecx+1172], xmm0
$LN11@RemoteUpda:

; 757  : 	}
; 758  : 
; 759  : 	mlSinCos(&Trig, mu);

	mov	edx, DWORD PTR _this$[ebp]
	push	ecx
	movss	xmm0, DWORD PTR [edx+1180]
	movss	DWORD PTR [esp], xmm0
	lea	eax, DWORD PTR _Trig$[ebp]
	push	eax
	call	?mlSinCos@@YAXPAUmlTrig@@M@Z		; mlSinCos
	add	esp, 8

; 760  : 	pa->sinmu = Trig.sin;

	mov	ecx, DWORD PTR _pa$[ebp]
	movss	xmm0, DWORD PTR _Trig$[ebp]
	movss	DWORD PTR [ecx+40], xmm0

; 761  : 	pa->cosmu = Trig.cos;

	mov	edx, DWORD PTR _pa$[ebp]
	movss	xmm0, DWORD PTR _Trig$[ebp+4]
	movss	DWORD PTR [edx+44], xmm0

; 762  : 	pa->sinphi = Trig.sin;

	mov	eax, DWORD PTR _pa$[ebp]
	movss	xmm0, DWORD PTR _Trig$[ebp]
	movss	DWORD PTR [eax+56], xmm0

; 763  : 	pa->cosphi = Trig.cos;

	mov	ecx, DWORD PTR _pa$[ebp]
	movss	xmm0, DWORD PTR _Trig$[ebp+4]
	movss	DWORD PTR [ecx+60], xmm0

; 764  : 
; 765  : 	mlSinCos(&Trig, gmma);

	mov	edx, DWORD PTR _this$[ebp]
	push	ecx
	movss	xmm0, DWORD PTR [edx+1172]
	movss	DWORD PTR [esp], xmm0
	lea	eax, DWORD PTR _Trig$[ebp]
	push	eax
	call	?mlSinCos@@YAXPAUmlTrig@@M@Z		; mlSinCos
	add	esp, 8

; 766  : 	pa->singam = Trig.sin;

	mov	ecx, DWORD PTR _pa$[ebp]
	movss	xmm0, DWORD PTR _Trig$[ebp]
	movss	DWORD PTR [ecx+24], xmm0

; 767  : 	pa->cosgam = Trig.cos;

	mov	edx, DWORD PTR _pa$[ebp]
	movss	xmm0, DWORD PTR _Trig$[ebp+4]
	movss	DWORD PTR [edx+28], xmm0

; 768  : 
; 769  : 	mlSinCos(&Trig, sigma);

	mov	eax, DWORD PTR _this$[ebp]
	push	ecx
	movss	xmm0, DWORD PTR [eax+1176]
	movss	DWORD PTR [esp], xmm0
	lea	ecx, DWORD PTR _Trig$[ebp]
	push	ecx
	call	?mlSinCos@@YAXPAUmlTrig@@M@Z		; mlSinCos
	add	esp, 8

; 770  : 	pa->sinsig = Trig.sin;

	mov	edx, DWORD PTR _pa$[ebp]
	movss	xmm0, DWORD PTR _Trig$[ebp]
	movss	DWORD PTR [edx+32], xmm0

; 771  : 	pa->cossig = Trig.cos;

	mov	eax, DWORD PTR _pa$[ebp]
	movss	xmm0, DWORD PTR _Trig$[ebp+4]
	movss	DWORD PTR [eax+36], xmm0

; 772  : 
; 773  : 	ResetOrientation();	

	mov	ecx, DWORD PTR _this$[ebp]
	call	?ResetOrientation@AirframeClass@@QAEXXZ	; AirframeClass::ResetOrientation

; 774  : 
; 775  : 	platform->dmx[0][0] =  pa->cospsi * pa->costhe;

	mov	ecx, DWORD PTR _pa$[ebp]
	mov	edx, DWORD PTR _pa$[ebp]
	movss	xmm0, DWORD PTR [ecx+68]
	mulss	xmm0, DWORD PTR [edx+52]
	mov	eax, DWORD PTR _this$[ebp]
	mov	ecx, DWORD PTR [eax+1088]
	mov	edx, 12					; 0000000cH
	imul	edx, 0
	lea	eax, DWORD PTR [ecx+edx+296]
	mov	ecx, 4
	imul	ecx, 0
	movss	DWORD PTR [eax+ecx], xmm0

; 776  : 	platform->dmx[0][1] =  pa->sinpsi * pa->costhe;

	mov	edx, DWORD PTR _pa$[ebp]
	mov	eax, DWORD PTR _pa$[ebp]
	movss	xmm0, DWORD PTR [edx+64]
	mulss	xmm0, DWORD PTR [eax+52]
	mov	ecx, DWORD PTR _this$[ebp]
	mov	edx, DWORD PTR [ecx+1088]
	mov	eax, 12					; 0000000cH
	imul	eax, 0
	lea	ecx, DWORD PTR [edx+eax+296]
	mov	edx, 4
	shl	edx, 0
	movss	DWORD PTR [ecx+edx], xmm0

; 777  : 	platform->dmx[0][2] = -pa->sinthe;

	mov	eax, DWORD PTR _pa$[ebp]
	movss	xmm0, DWORD PTR [eax+48]
	xorps	xmm0, DWORD PTR __xmm@80000000800000008000000080000000
	mov	ecx, DWORD PTR _this$[ebp]
	mov	edx, DWORD PTR [ecx+1088]
	mov	eax, 12					; 0000000cH
	imul	eax, 0
	lea	ecx, DWORD PTR [edx+eax+296]
	mov	edx, 4
	shl	edx, 1
	movss	DWORD PTR [ecx+edx], xmm0

; 778  : 	
; 779  : 	platform->dmx[1][0] =  pa->cospsi * pa->sinthe * pa->sinphi - pa->sinpsi * pa->cosphi;

	mov	eax, DWORD PTR _pa$[ebp]
	mov	ecx, DWORD PTR _pa$[ebp]
	movss	xmm0, DWORD PTR [eax+68]
	mulss	xmm0, DWORD PTR [ecx+48]
	mov	edx, DWORD PTR _pa$[ebp]
	mulss	xmm0, DWORD PTR [edx+56]
	mov	eax, DWORD PTR _pa$[ebp]
	mov	ecx, DWORD PTR _pa$[ebp]
	movss	xmm1, DWORD PTR [eax+64]
	mulss	xmm1, DWORD PTR [ecx+60]
	subss	xmm0, xmm1
	mov	edx, DWORD PTR _this$[ebp]
	mov	eax, DWORD PTR [edx+1088]
	mov	ecx, 12					; 0000000cH
	shl	ecx, 0
	lea	edx, DWORD PTR [eax+ecx+296]
	mov	eax, 4
	imul	eax, 0
	movss	DWORD PTR [edx+eax], xmm0

; 780  : 	platform->dmx[1][1] =  pa->cospsi * pa->cosphi + pa->sinpsi * pa->sinthe * pa->sinphi;

	mov	ecx, DWORD PTR _pa$[ebp]
	mov	edx, DWORD PTR _pa$[ebp]
	movss	xmm0, DWORD PTR [ecx+68]
	mulss	xmm0, DWORD PTR [edx+60]
	mov	eax, DWORD PTR _pa$[ebp]
	mov	ecx, DWORD PTR _pa$[ebp]
	movss	xmm1, DWORD PTR [eax+64]
	mulss	xmm1, DWORD PTR [ecx+48]
	mov	edx, DWORD PTR _pa$[ebp]
	mulss	xmm1, DWORD PTR [edx+56]
	addss	xmm0, xmm1
	mov	eax, DWORD PTR _this$[ebp]
	mov	ecx, DWORD PTR [eax+1088]
	mov	edx, 12					; 0000000cH
	shl	edx, 0
	lea	eax, DWORD PTR [ecx+edx+296]
	mov	ecx, 4
	shl	ecx, 0
	movss	DWORD PTR [eax+ecx], xmm0

; 781  : 	platform->dmx[1][2] =  pa->costhe * pa->sinphi;

	mov	edx, DWORD PTR _pa$[ebp]
	mov	eax, DWORD PTR _pa$[ebp]
	movss	xmm0, DWORD PTR [edx+52]
	mulss	xmm0, DWORD PTR [eax+56]
	mov	ecx, DWORD PTR _this$[ebp]
	mov	edx, DWORD PTR [ecx+1088]
	mov	eax, 12					; 0000000cH
	shl	eax, 0
	lea	ecx, DWORD PTR [edx+eax+296]
	mov	edx, 4
	shl	edx, 1
	movss	DWORD PTR [ecx+edx], xmm0

; 782  : 						
; 783  : 	platform->dmx[2][0] =  pa->sinpsi * pa->sinphi + pa->cospsi * pa->sinthe * pa->cosphi;

	mov	eax, DWORD PTR _pa$[ebp]
	mov	ecx, DWORD PTR _pa$[ebp]
	movss	xmm0, DWORD PTR [eax+64]
	mulss	xmm0, DWORD PTR [ecx+56]
	mov	edx, DWORD PTR _pa$[ebp]
	mov	eax, DWORD PTR _pa$[ebp]
	movss	xmm1, DWORD PTR [edx+68]
	mulss	xmm1, DWORD PTR [eax+48]
	mov	ecx, DWORD PTR _pa$[ebp]
	mulss	xmm1, DWORD PTR [ecx+60]
	addss	xmm0, xmm1
	mov	edx, DWORD PTR _this$[ebp]
	mov	eax, DWORD PTR [edx+1088]
	mov	ecx, 12					; 0000000cH
	shl	ecx, 1
	lea	edx, DWORD PTR [eax+ecx+296]
	mov	eax, 4
	imul	eax, 0
	movss	DWORD PTR [edx+eax], xmm0

; 784  : 	platform->dmx[2][1] = -pa->cospsi * pa->sinphi + pa->sinpsi * pa->sinthe * pa->cosphi;

	mov	ecx, DWORD PTR _pa$[ebp]
	movss	xmm0, DWORD PTR [ecx+68]
	xorps	xmm0, DWORD PTR __xmm@80000000800000008000000080000000
	mov	edx, DWORD PTR _pa$[ebp]
	mulss	xmm0, DWORD PTR [edx+56]
	mov	eax, DWORD PTR _pa$[ebp]
	mov	ecx, DWORD PTR _pa$[ebp]
	movss	xmm1, DWORD PTR [eax+64]
	mulss	xmm1, DWORD PTR [ecx+48]
	mov	edx, DWORD PTR _pa$[ebp]
	mulss	xmm1, DWORD PTR [edx+60]
	addss	xmm0, xmm1
	mov	eax, DWORD PTR _this$[ebp]
	mov	ecx, DWORD PTR [eax+1088]
	mov	edx, 12					; 0000000cH
	shl	edx, 1
	lea	eax, DWORD PTR [ecx+edx+296]
	mov	ecx, 4
	shl	ecx, 0
	movss	DWORD PTR [eax+ecx], xmm0

; 785  : 	platform->dmx[2][2] =  pa->costhe * pa->cosphi;

	mov	edx, DWORD PTR _pa$[ebp]
	mov	eax, DWORD PTR _pa$[ebp]
	movss	xmm0, DWORD PTR [edx+52]
	mulss	xmm0, DWORD PTR [eax+60]
	mov	ecx, DWORD PTR _this$[ebp]
	mov	edx, DWORD PTR [ecx+1088]
	mov	eax, 12					; 0000000cH
	shl	eax, 1
	lea	ecx, DWORD PTR [edx+eax+296]
	mov	edx, 4
	shl	edx, 1
	movss	DWORD PTR [ecx+edx], xmm0

; 786  : 
; 787  : 	vcas = get_air_speed(vt * FTPSEC_TO_KNOTS, -1*FloatToInt32(platform->ZPos()));

	mov	eax, DWORD PTR _this$[ebp]
	mov	ecx, DWORD PTR [eax+1088]
	call	?ZPos@VuEntity@@QBEMXZ			; VuEntity::ZPos
	push	ecx
	fstp	DWORD PTR [esp]
	call	?FloatToInt32@@YAHM@Z			; FloatToInt32
	add	esp, 4
	imul	eax, -1
	push	eax
	mov	ecx, DWORD PTR _this$[ebp]
	movss	xmm0, DWORD PTR [ecx+1120]
	mulss	xmm0, DWORD PTR __real@3f17ac60
	push	ecx
	movss	DWORD PTR [esp], xmm0
	call	?get_air_speed@@YAMMH@Z			; get_air_speed
	add	esp, 8
	mov	edx, DWORD PTR _this$[ebp]
	fstp	DWORD PTR [edx+1124]

; 788  : 
; 789  : 	pstick = 0.0F; // (q*vt + platform->platformAngles.cosmu * platform->platformAngles.cosgam * 0.5F)/9.0F;

	mov	eax, DWORD PTR _this$[ebp]
	movss	xmm0, DWORD PTR __real@00000000
	movss	DWORD PTR [eax+1500], xmm0

; 790  : 	rstick = 0.0F; // p/(225.0F*DTR);

	mov	ecx, DWORD PTR _this$[ebp]
	movss	xmm0, DWORD PTR __real@00000000
	movss	DWORD PTR [ecx+1504], xmm0

; 791  : 	ypedal = 0.0F;

	mov	edx, DWORD PTR _this$[ebp]
	movss	xmm0, DWORD PTR __real@00000000
	movss	DWORD PTR [edx+1508], xmm0

; 792  : 	platform->MoveSurfaces();

	mov	eax, DWORD PTR _this$[ebp]
	mov	ecx, DWORD PTR [eax+1088]
	call	?MoveSurfaces@AircraftClass@@QAEXXZ	; AircraftClass::MoveSurfaces

; 793  : 	platform->DBrain()->CheckLead();

	mov	ecx, DWORD PTR _this$[ebp]
	mov	ecx, DWORD PTR [ecx+1088]
	call	?DBrain@AircraftClass@@QAEPAVDigitalBrain@@XZ ; AircraftClass::DBrain
	mov	ecx, eax
	call	?CheckLead@DigitalBrain@@QAEXXZ		; DigitalBrain::CheckLead

; 794  : 	platform->DBrain()->UpdateTaxipoint();	

	mov	edx, DWORD PTR _this$[ebp]
	mov	ecx, DWORD PTR [edx+1088]
	call	?DBrain@AircraftClass@@QAEPAVDigitalBrain@@XZ ; AircraftClass::DBrain
	mov	ecx, eax
	call	?UpdateTaxipoint@DigitalBrain@@QAEXXZ	; DigitalBrain::UpdateTaxipoint

; 795  : 
; 796  : 	if (platform->OnGround ()){

	mov	eax, DWORD PTR _this$[ebp]
	mov	ecx, DWORD PTR [eax+1088]
	mov	edx, DWORD PTR _this$[ebp]
	mov	eax, DWORD PTR [ecx]
	mov	ecx, DWORD PTR [edx+1088]
	mov	edx, DWORD PTR [eax+148]
	call	edx
	test	eax, eax
	je	SHORT $LN6@RemoteUpda

; 797  : 		ClearFlag (InAir);

	push	2
	mov	ecx, DWORD PTR _this$[ebp]
	call	?ClearFlag@AirframeClass@@QAEXH@Z	; AirframeClass::ClearFlag

; 798  : 		if(vt < 80.0F *KNOTS_TO_FTPSEC){

	mov	eax, DWORD PTR _this$[ebp]
	movss	xmm0, DWORD PTR __real@430706e2
	comiss	xmm0, DWORD PTR [eax+1120]
	jbe	SHORT $LN5@RemoteUpda

; 799  : 			SetFlag(Planted);

	push	4096					; 00001000H
	mov	ecx, DWORD PTR _this$[ebp]
	call	?SetFlag@AirframeClass@@QAEXH@Z		; AirframeClass::SetFlag

; 800  : 		}
; 801  : 		else{

	jmp	SHORT $LN4@RemoteUpda
$LN5@RemoteUpda:

; 802  : 			ClearFlag(Planted);

	push	4096					; 00001000H
	mov	ecx, DWORD PTR _this$[ebp]
	call	?ClearFlag@AirframeClass@@QAEXH@Z	; AirframeClass::ClearFlag
$LN4@RemoteUpda:

; 803  : 		}
; 804  : 	}
; 805  : 	else {

	jmp	SHORT $LN3@RemoteUpda
$LN6@RemoteUpda:

; 806  : 		SetFlag (InAir);

	push	2
	mov	ecx, DWORD PTR _this$[ebp]
	call	?SetFlag@AirframeClass@@QAEXH@Z		; AirframeClass::SetFlag

; 807  : 		ClearFlag (Planted);

	push	4096					; 00001000H
	mov	ecx, DWORD PTR _this$[ebp]
	call	?ClearFlag@AirframeClass@@QAEXH@Z	; AirframeClass::ClearFlag
$LN3@RemoteUpda:

; 808  : 	}
; 809  : 
; 810  : 	if (platform->IsAcStatusBitsSet(AircraftClass::ACSTATUS_GEAR_DOWN)){

	push	2
	mov	ecx, DWORD PTR _this$[ebp]
	mov	ecx, DWORD PTR [ecx+1088]
	call	?IsAcStatusBitsSet@AircraftClass@@QBE_NH@Z ; AircraftClass::IsAcStatusBitsSet
	movzx	edx, al
	test	edx, edx
	je	SHORT $LN2@RemoteUpda

; 811  : 		gearHandle = 1.0F;

	mov	eax, DWORD PTR _this$[ebp]
	movss	xmm0, DWORD PTR __real@3f800000
	movss	DWORD PTR [eax+1556], xmm0

; 812  : 		gearPos += 0.3F * SimLibMinorFrameTime;

	movss	xmm0, DWORD PTR __real@3e99999a
	mulss	xmm0, DWORD PTR ?SimLibMinorFrameTime@@3MA
	mov	ecx, DWORD PTR _this$[ebp]
	addss	xmm0, DWORD PTR [ecx+1552]
	mov	edx, DWORD PTR _this$[ebp]
	movss	DWORD PTR [edx+1552], xmm0

; 813  : 	}
; 814  : 	else {

	jmp	SHORT $LN1@RemoteUpda
$LN2@RemoteUpda:

; 815  : 		gearHandle = -1.0F;

	mov	eax, DWORD PTR _this$[ebp]
	movss	xmm0, DWORD PTR __real@bf800000
	movss	DWORD PTR [eax+1556], xmm0

; 816  : 		gearPos -= 0.3F * SimLibMinorFrameTime;

	movss	xmm0, DWORD PTR __real@3e99999a
	mulss	xmm0, DWORD PTR ?SimLibMinorFrameTime@@3MA
	mov	ecx, DWORD PTR _this$[ebp]
	movss	xmm1, DWORD PTR [ecx+1552]
	subss	xmm1, xmm0
	mov	edx, DWORD PTR _this$[ebp]
	movss	DWORD PTR [edx+1552], xmm1
$LN1@RemoteUpda:

; 817  : 	}
; 818  : 
; 819  : 	gearPos = min ( max ( gearPos, 0.0F), 1.0F);

	mov	eax, DWORD PTR _this$[ebp]
	movss	xmm0, DWORD PTR [eax+1552]
	comiss	xmm0, DWORD PTR __real@00000000
	jbe	SHORT $LN18@RemoteUpda
	mov	ecx, DWORD PTR _this$[ebp]
	movss	xmm0, DWORD PTR [ecx+1552]
	movss	DWORD PTR tv597[ebp], xmm0
	jmp	SHORT $LN19@RemoteUpda
$LN18@RemoteUpda:
	movss	xmm0, DWORD PTR __real@00000000
	movss	DWORD PTR tv597[ebp], xmm0
$LN19@RemoteUpda:
	movss	xmm0, DWORD PTR __real@3f800000
	comiss	xmm0, DWORD PTR tv597[ebp]
	jbe	SHORT $LN22@RemoteUpda
	mov	edx, DWORD PTR _this$[ebp]
	movss	xmm0, DWORD PTR [edx+1552]
	comiss	xmm0, DWORD PTR __real@00000000
	jbe	SHORT $LN20@RemoteUpda
	mov	eax, DWORD PTR _this$[ebp]
	movss	xmm0, DWORD PTR [eax+1552]
	movss	DWORD PTR tv604[ebp], xmm0
	jmp	SHORT $LN21@RemoteUpda
$LN20@RemoteUpda:
	movss	xmm0, DWORD PTR __real@00000000
	movss	DWORD PTR tv604[ebp], xmm0
$LN21@RemoteUpda:
	movss	xmm0, DWORD PTR tv604[ebp]
	movss	DWORD PTR tv605[ebp], xmm0
	jmp	SHORT $LN23@RemoteUpda
$LN22@RemoteUpda:
	movss	xmm0, DWORD PTR __real@3f800000
	movss	DWORD PTR tv605[ebp], xmm0
$LN23@RemoteUpda:
	mov	ecx, DWORD PTR _this$[ebp]
	movss	xmm0, DWORD PTR tv605[ebp]
	movss	DWORD PTR [ecx+1552], xmm0

; 820  : 
; 821  : 	// sfr: copy values back from airframe to aircraft
; 822  : 	platform->SetPosition(x, y, z);

	mov	edx, DWORD PTR _this$[ebp]
	push	ecx
	movss	xmm0, DWORD PTR [edx+1116]
	movss	DWORD PTR [esp], xmm0
	mov	eax, DWORD PTR _this$[ebp]
	push	ecx
	movss	xmm0, DWORD PTR [eax+1112]
	movss	DWORD PTR [esp], xmm0
	mov	ecx, DWORD PTR _this$[ebp]
	push	ecx
	movss	xmm0, DWORD PTR [ecx+1108]
	movss	DWORD PTR [esp], xmm0
	mov	edx, DWORD PTR _this$[ebp]
	mov	ecx, DWORD PTR [edx+1088]
	call	?SetPosition@VuEntity@@QAEXMMM@Z	; VuEntity::SetPosition

; 823  : 
; 824  : 	// sfr: run landing gear for remotes too
; 825  : 	RunLandingGear();

	mov	ecx, DWORD PTR _this$[ebp]
	call	?RunLandingGear@AirframeClass@@AAEXXZ	; AirframeClass::RunLandingGear

; 826  : }

	mov	esp, ebp
	pop	ebp
	ret	0
?RemoteUpdate@AirframeClass@@QAEXXZ ENDP		; AirframeClass::RemoteUpdate
_TEXT	ENDS
; Function compile flags: /Odtp
; File c:\users\zhitao li\documents\visual studio 2012\projects\freefalcon\sim\airframe\airframe.cpp
_TEXT	SEGMENT
tv205 = -24						; size = 8
tv201 = -16						; size = 4
_playerAC$ = -12					; size = 4
_i$ = -8						; size = 4
_this$ = -4						; size = 4
?Exec@AirframeClass@@QAEXXZ PROC			; AirframeClass::Exec
; _this$ = ecx

; 597  : {

	push	ebp
	mov	ebp, esp
	sub	esp, 24					; 00000018H
	mov	DWORD PTR _this$[ebp], ecx

; 598  : 	int i;
; 599  : 
; 600  : 	// 2002-03-28 MN for refuel debugging
; 601  : 	AircraftClass *playerAC = SimDriver.GetPlayerAircraft();

	mov	ecx, OFFSET ?SimDriver@@3VSimulationDriver@@A ; SimDriver
	call	?GetPlayerAircraft@SimulationDriver@@QBEPAVAircraftClass@@XZ ; SimulationDriver::GetPlayerAircraft
	mov	DWORD PTR _playerAC$[ebp], eax

; 602  : 	if (gFuelState && (playerAC) && (this == playerAC->af)){

	cmp	DWORD PTR ?gFuelState@@3KA, 0		; gFuelState
	je	SHORT $LN10@Exec
	cmp	DWORD PTR _playerAC$[ebp], 0
	je	SHORT $LN10@Exec
	mov	eax, DWORD PTR _playerAC$[ebp]
	mov	ecx, DWORD PTR _this$[ebp]
	cmp	ecx, DWORD PTR [eax+932]
	jne	SHORT $LN10@Exec

; 603  : 		AllocateFuel(static_cast<float>(gFuelState));

	mov	edx, DWORD PTR ?gFuelState@@3KA		; gFuelState
	mov	DWORD PTR tv201[ebp], edx
	cvtsi2sd xmm0, DWORD PTR tv201[ebp]
	mov	eax, DWORD PTR tv201[ebp]
	shr	eax, 31					; 0000001fH
	addsd	xmm0, QWORD PTR __xmm@41f00000000000000000000000000000[eax*8]
	movsd	QWORD PTR tv205[ebp], xmm0
	cvtsd2ss xmm0, QWORD PTR tv205[ebp]
	push	ecx
	movss	DWORD PTR [esp], xmm0
	mov	ecx, DWORD PTR _this$[ebp]
	call	?AllocateFuel@AirframeClass@@QAEXM@Z	; AirframeClass::AllocateFuel

; 604  : 		gFuelState = 0;

	mov	DWORD PTR ?gFuelState@@3KA, 0		; gFuelState
$LN10@Exec:

; 605  : 	}
; 606  : 
; 607  : 	// helicopter mode easter egg
; 608  : 	if ( hf && simpleMode == SIMPLE_MODE_HF ){

	mov	ecx, DWORD PTR _this$[ebp]
	cmp	DWORD PTR [ecx+1812], 0
	je	SHORT $LN9@Exec
	mov	edx, DWORD PTR _this$[ebp]
	cmp	DWORD PTR [edx+824], 2
	jne	SHORT $LN9@Exec

; 609  : 		RunHeliModel();

	mov	ecx, DWORD PTR _this$[ebp]
	call	?RunHeliModel@AirframeClass@@QAEXXZ	; AirframeClass::RunHeliModel

; 610  : 		return;

	jmp	$LN11@Exec
$LN9@Exec:

; 611  : 	}
; 612  : 
; 613  : 	// sfr: copy data from platform
; 614  : 	x = platform->XPos();

	mov	eax, DWORD PTR _this$[ebp]
	mov	ecx, DWORD PTR [eax+1088]
	call	?XPos@VuEntity@@QBEMXZ			; VuEntity::XPos
	mov	ecx, DWORD PTR _this$[ebp]
	fstp	DWORD PTR [ecx+1108]

; 615  : 	y = platform->YPos();

	mov	edx, DWORD PTR _this$[ebp]
	mov	ecx, DWORD PTR [edx+1088]
	call	?YPos@VuEntity@@QBEMXZ			; VuEntity::YPos
	mov	eax, DWORD PTR _this$[ebp]
	fstp	DWORD PTR [eax+1112]

; 616  : 	z = platform->ZPos();

	mov	ecx, DWORD PTR _this$[ebp]
	mov	ecx, DWORD PTR [ecx+1088]
	call	?ZPos@VuEntity@@QBEMXZ			; VuEntity::ZPos
	mov	edx, DWORD PTR _this$[ebp]
	fstp	DWORD PTR [edx+1116]

; 617  : 	//vt = platform->GetVt();
; 618  : 	xdot = platform->XDelta();

	mov	eax, DWORD PTR _this$[ebp]
	mov	ecx, DWORD PTR [eax+1088]
	call	?XDelta@VuEntity@@QBEMXZ		; VuEntity::XDelta
	mov	ecx, DWORD PTR _this$[ebp]
	fstp	DWORD PTR [ecx+1196]

; 619  : 	ydot = platform->YDelta();

	mov	edx, DWORD PTR _this$[ebp]
	mov	ecx, DWORD PTR [edx+1088]
	call	?YDelta@VuEntity@@QBEMXZ		; VuEntity::YDelta
	mov	eax, DWORD PTR _this$[ebp]
	fstp	DWORD PTR [eax+1200]

; 620  : 	zdot = platform->ZDelta();

	mov	ecx, DWORD PTR _this$[ebp]
	mov	ecx, DWORD PTR [ecx+1088]
	call	?ZDelta@VuEntity@@QBEMXZ		; VuEntity::ZDelta
	mov	edx, DWORD PTR _this$[ebp]
	fstp	DWORD PTR [edx+1204]

; 621  : 		
; 622  : 	// simple flight model for AI's
; 623  : 	if ( simpleMode == SIMPLE_MODE_AF 
; 624  : 		&& !IsSet(AirframeClass::OnObject)
; 625  : 	){

	mov	eax, DWORD PTR _this$[ebp]
	cmp	DWORD PTR [eax+824], 1
	jne	$LN8@Exec
	push	1073741824				; 40000000H
	mov	ecx, DWORD PTR _this$[ebp]
	call	?IsSet@AirframeClass@@QBEHH@Z		; AirframeClass::IsSet
	test	eax, eax
	jne	$LN8@Exec

; 626  : 		// JB carrier
; 627  : 		Atmosphere();

	mov	ecx, DWORD PTR _this$[ebp]
	call	?Atmosphere@AirframeClass@@AAEXXZ	; AirframeClass::Atmosphere

; 628  : 		Aerodynamics();

	mov	ecx, DWORD PTR _this$[ebp]
	call	?Aerodynamics@AirframeClass@@AAEXXZ	; AirframeClass::Aerodynamics

; 629  : 		Axial(SimLibMajorFrameTime);

	push	ecx
	movss	xmm0, DWORD PTR ?SimLibMajorFrameTime@@3MA
	movss	DWORD PTR [esp], xmm0
	mov	ecx, DWORD PTR _this$[ebp]
	call	?Axial@AirframeClass@@AAEXM@Z		; AirframeClass::Axial

; 630  : 		//EngineModel(SimLibMajorFrameTime);
; 631  : 		//TJL 02/07/04 Two Engines
; 632  : 		if(auxaeroData->nEngines == 2){

	mov	ecx, DWORD PTR _this$[ebp]
	mov	edx, DWORD PTR [ecx+4]
	cmp	DWORD PTR [edx+344], 2
	jne	SHORT $LN7@Exec

; 633  : 			MultiEngineModel(SimLibMinorFrameTime);

	push	ecx
	movss	xmm0, DWORD PTR ?SimLibMinorFrameTime@@3MA
	movss	DWORD PTR [esp], xmm0
	mov	ecx, DWORD PTR _this$[ebp]
	call	?MultiEngineModel@AirframeClass@@QAEXM@Z ; AirframeClass::MultiEngineModel

; 634  : 		}
; 635  : 		else {

	jmp	SHORT $LN6@Exec
$LN7@Exec:

; 636  : 			EngineModel(SimLibMinorFrameTime);

	push	ecx
	movss	xmm0, DWORD PTR ?SimLibMinorFrameTime@@3MA
	movss	DWORD PTR [esp], xmm0
	mov	ecx, DWORD PTR _this$[ebp]
	call	?EngineModel@AirframeClass@@QAEXM@Z	; AirframeClass::EngineModel
$LN6@Exec:

; 637  : 		}
; 638  : 		Accelerometers();

	mov	ecx, DWORD PTR _this$[ebp]
	call	?Accelerometers@AirframeClass@@AAEXXZ	; AirframeClass::Accelerometers

; 639  : 
; 640  : 		SimpleModel();

	mov	ecx, DWORD PTR _this$[ebp]
	call	?SimpleModel@AirframeClass@@QAEXXZ	; AirframeClass::SimpleModel

; 641  : 		RunLandingGear(); // MLR 2003-10-16

	mov	ecx, DWORD PTR _this$[ebp]
	call	?RunLandingGear@AirframeClass@@AAEXXZ	; AirframeClass::RunLandingGear

; 642  : 		return;

	jmp	$LN11@Exec
$LN8@Exec:

; 643  : 	}
; 644  : 
; 645  : 	for (i=0; i<SimLibMinorPerMajor; i++)

	mov	DWORD PTR _i$[ebp], 0
	jmp	SHORT $LN5@Exec
$LN4@Exec:
	mov	eax, DWORD PTR _i$[ebp]
	add	eax, 1
	mov	DWORD PTR _i$[ebp], eax
$LN5@Exec:
	mov	ecx, DWORD PTR _i$[ebp]
	cmp	ecx, DWORD PTR ?SimLibMinorPerMajor@@3HA ; SimLibMinorPerMajor
	jge	$LN3@Exec

; 646  : 	{
; 647  : 		Atmosphere();

	mov	ecx, DWORD PTR _this$[ebp]
	call	?Atmosphere@AirframeClass@@AAEXXZ	; AirframeClass::Atmosphere

; 648  : 		FlightControlSystem();

	mov	ecx, DWORD PTR _this$[ebp]
	call	?FlightControlSystem@AirframeClass@@AAEXXZ ; AirframeClass::FlightControlSystem

; 649  : 		Aerodynamics();

	mov	ecx, DWORD PTR _this$[ebp]
	call	?Aerodynamics@AirframeClass@@AAEXXZ	; AirframeClass::Aerodynamics

; 650  : 		//TJL 01/11/04 Two Engines
; 651  : 		if(auxaeroData->nEngines == 2){

	mov	edx, DWORD PTR _this$[ebp]
	mov	eax, DWORD PTR [edx+4]
	cmp	DWORD PTR [eax+344], 2
	jne	SHORT $LN2@Exec

; 652  : 			MultiEngineModel(SimLibMinorFrameTime);

	push	ecx
	movss	xmm0, DWORD PTR ?SimLibMinorFrameTime@@3MA
	movss	DWORD PTR [esp], xmm0
	mov	ecx, DWORD PTR _this$[ebp]
	call	?MultiEngineModel@AirframeClass@@QAEXM@Z ; AirframeClass::MultiEngineModel

; 653  : 		}
; 654  : 		else {

	jmp	SHORT $LN1@Exec
$LN2@Exec:

; 655  : 			EngineModel(SimLibMinorFrameTime);

	push	ecx
	movss	xmm0, DWORD PTR ?SimLibMinorFrameTime@@3MA
	movss	DWORD PTR [esp], xmm0
	mov	ecx, DWORD PTR _this$[ebp]
	call	?EngineModel@AirframeClass@@QAEXM@Z	; AirframeClass::EngineModel
$LN1@Exec:

; 656  : 		}
; 657  : 
; 658  : 		//Wombat778 2-24-04  Random Failures
; 659  : 		RandomFailureModel();

	mov	ecx, DWORD PTR _this$[ebp]
	call	?RandomFailureModel@AirframeClass@@QAEXXZ ; AirframeClass::RandomFailureModel

; 660  : 		SetFlapsPlayer();

	mov	ecx, DWORD PTR _this$[ebp]
	call	?SetFlapsPlayer@AirframeClass@@QAEXXZ	; AirframeClass::SetFlapsPlayer

; 661  : 
; 662  : 
; 663  : 		Accelerometers();

	mov	ecx, DWORD PTR _this$[ebp]
	call	?Accelerometers@AirframeClass@@AAEXXZ	; AirframeClass::Accelerometers

; 664  : 		EquationsOfMotion(SimLibMinorFrameTime);

	push	ecx
	movss	xmm0, DWORD PTR ?SimLibMinorFrameTime@@3MA
	movss	DWORD PTR [esp], xmm0
	mov	ecx, DWORD PTR _this$[ebp]
	call	?EquationsOfMotion@AirframeClass@@AAEXM@Z ; AirframeClass::EquationsOfMotion

; 665  : 	}

	jmp	$LN4@Exec
$LN3@Exec:

; 666  : 
; 667  : 	RunLandingGear(); // MLR 2003-10-16

	mov	ecx, DWORD PTR _this$[ebp]
	call	?RunLandingGear@AirframeClass@@AAEXXZ	; AirframeClass::RunLandingGear
$LN11@Exec:

; 668  : }

	mov	esp, ebp
	pop	ebp
	ret	0
?Exec@AirframeClass@@QAEXXZ ENDP			; AirframeClass::Exec
_TEXT	ENDS
; Function compile flags: /Odtp
; File c:\users\zhitao li\documents\visual studio 2012\projects\freefalcon\sim\airframe\airframe.cpp
_TEXT	SEGMENT
_pz$ = -80						; size = 4
$T2 = -76						; size = 4
$T3 = -72						; size = 4
$T4 = -68						; size = 4
$T5 = -64						; size = 4
_py$ = -60						; size = 4
_px$ = -56						; size = 4
tv218 = -52						; size = 4
tv181 = -48						; size = 4
$T6 = -44						; size = 4
tv166 = -40						; size = 4
$T7 = -36						; size = 4
tv145 = -32						; size = 4
$T8 = -28						; size = 4
tv92 = -24						; size = 4
$T9 = -20						; size = 4
_this$ = -16						; size = 4
__$EHRec$ = -12						; size = 12
?Reinit@AirframeClass@@QAEXXZ PROC			; AirframeClass::Reinit
; _this$ = ecx

; 520  : {

	push	ebp
	mov	ebp, esp
	push	-1
	push	__ehhandler$?Reinit@AirframeClass@@QAEXXZ
	mov	eax, DWORD PTR fs:0
	push	eax
	sub	esp, 68					; 00000044H
	mov	eax, DWORD PTR ___security_cookie
	xor	eax, ebp
	push	eax
	lea	eax, DWORD PTR __$EHRec$[ebp]
	mov	DWORD PTR fs:0, eax
	mov	DWORD PTR _this$[ebp], ecx

; 521  : 	BIG_SCALAR px = x, py = y, pz = z;

	mov	eax, DWORD PTR _this$[ebp]
	movss	xmm0, DWORD PTR [eax+1108]
	movss	DWORD PTR _px$[ebp], xmm0
	mov	ecx, DWORD PTR _this$[ebp]
	movss	xmm0, DWORD PTR [ecx+1112]
	movss	DWORD PTR _py$[ebp], xmm0
	mov	edx, DWORD PTR _this$[ebp]
	movss	xmm0, DWORD PTR [edx+1116]
	movss	DWORD PTR _pz$[ebp], xmm0

; 522  : 	if (simpleMode == SIMPLE_MODE_HF )

	mov	eax, DWORD PTR _this$[ebp]
	cmp	DWORD PTR [eax+824], 2
	jne	$LN19@Reinit

; 523  : 	{
; 524  : 		if ( hf == NULL )

	mov	ecx, DWORD PTR _this$[ebp]
	cmp	DWORD PTR [ecx+1812], 0
	jne	$LN12@Reinit

; 525  : 		{
; 526  : 	    	if ( stricmp( LogBook.Name(), "mrsteed0" ) == 0 )

	push	OFFSET ??_C@_08NKCODECN@mrsteed0?$AA@
	mov	ecx, OFFSET ?LogBook@@3VLogBookData@@A	; LogBook
	call	?Name@LogBookData@@QAEPADXZ		; LogBookData::Name
	push	eax
	call	_stricmp
	add	esp, 8
	test	eax, eax
	jne	SHORT $LN17@Reinit

; 527  : 				hf = new HeliMMClass( platform, A109 );

	push	1088					; 00000440H
	call	??2@YAPAXI@Z				; operator new
	add	esp, 4
	mov	DWORD PTR $T9[ebp], eax
	mov	DWORD PTR __$EHRec$[ebp+8], 0
	cmp	DWORD PTR $T9[ebp], 0
	je	SHORT $LN22@Reinit
	push	0
	mov	edx, DWORD PTR _this$[ebp]
	mov	eax, DWORD PTR [edx+1088]
	push	eax
	mov	ecx, DWORD PTR $T9[ebp]
	call	??0HeliMMClass@@QAE@PAVSimBaseClass@@H@Z ; HeliMMClass::HeliMMClass
	mov	DWORD PTR tv92[ebp], eax
	jmp	SHORT $LN23@Reinit
$LN22@Reinit:
	mov	DWORD PTR tv92[ebp], 0
$LN23@Reinit:
	mov	ecx, DWORD PTR tv92[ebp]
	mov	DWORD PTR $T5[ebp], ecx
	mov	DWORD PTR __$EHRec$[ebp+8], -1
	mov	edx, DWORD PTR _this$[ebp]
	mov	eax, DWORD PTR $T5[ebp]
	mov	DWORD PTR [edx+1812], eax
	jmp	$LN12@Reinit
$LN17@Reinit:

; 528  : 	    	else if ( stricmp( LogBook.Name(), "mrsteed1" ) == 0 )

	push	OFFSET ??_C@_08MDDFAFGM@mrsteed1?$AA@
	mov	ecx, OFFSET ?LogBook@@3VLogBookData@@A	; LogBook
	call	?Name@LogBookData@@QAEPADXZ		; LogBookData::Name
	push	eax
	call	_stricmp
	add	esp, 8
	test	eax, eax
	jne	SHORT $LN15@Reinit

; 529  : 				hf = new HeliMMClass( platform, COBRA );

	push	1088					; 00000440H
	call	??2@YAPAXI@Z				; operator new
	add	esp, 4
	mov	DWORD PTR $T8[ebp], eax
	mov	DWORD PTR __$EHRec$[ebp+8], 1
	cmp	DWORD PTR $T8[ebp], 0
	je	SHORT $LN24@Reinit
	push	1
	mov	ecx, DWORD PTR _this$[ebp]
	mov	edx, DWORD PTR [ecx+1088]
	push	edx
	mov	ecx, DWORD PTR $T8[ebp]
	call	??0HeliMMClass@@QAE@PAVSimBaseClass@@H@Z ; HeliMMClass::HeliMMClass
	mov	DWORD PTR tv145[ebp], eax
	jmp	SHORT $LN25@Reinit
$LN24@Reinit:
	mov	DWORD PTR tv145[ebp], 0
$LN25@Reinit:
	mov	eax, DWORD PTR tv145[ebp]
	mov	DWORD PTR $T4[ebp], eax
	mov	DWORD PTR __$EHRec$[ebp+8], -1
	mov	ecx, DWORD PTR _this$[ebp]
	mov	edx, DWORD PTR $T4[ebp]
	mov	DWORD PTR [ecx+1812], edx
	jmp	$LN12@Reinit
$LN15@Reinit:

; 530  : 	    	else if ( stricmp( LogBook.Name(), "mrsteed2" ) == 0 )

	push	OFFSET ??_C@_08OIBIFGKP@mrsteed2?$AA@
	mov	ecx, OFFSET ?LogBook@@3VLogBookData@@A	; LogBook
	call	?Name@LogBookData@@QAEPADXZ		; LogBookData::Name
	push	eax
	call	_stricmp
	add	esp, 8
	test	eax, eax
	jne	SHORT $LN13@Reinit

; 531  : 				hf = new HeliMMClass( platform, MD500 );

	push	1088					; 00000440H
	call	??2@YAPAXI@Z				; operator new
	add	esp, 4
	mov	DWORD PTR $T7[ebp], eax
	mov	DWORD PTR __$EHRec$[ebp+8], 2
	cmp	DWORD PTR $T7[ebp], 0
	je	SHORT $LN26@Reinit
	push	2
	mov	eax, DWORD PTR _this$[ebp]
	mov	ecx, DWORD PTR [eax+1088]
	push	ecx
	mov	ecx, DWORD PTR $T7[ebp]
	call	??0HeliMMClass@@QAE@PAVSimBaseClass@@H@Z ; HeliMMClass::HeliMMClass
	mov	DWORD PTR tv166[ebp], eax
	jmp	SHORT $LN27@Reinit
$LN26@Reinit:
	mov	DWORD PTR tv166[ebp], 0
$LN27@Reinit:
	mov	edx, DWORD PTR tv166[ebp]
	mov	DWORD PTR $T3[ebp], edx
	mov	DWORD PTR __$EHRec$[ebp+8], -1
	mov	eax, DWORD PTR _this$[ebp]
	mov	ecx, DWORD PTR $T3[ebp]
	mov	DWORD PTR [eax+1812], ecx

; 532  : 			else

	jmp	SHORT $LN12@Reinit
$LN13@Reinit:

; 533  : 				hf = new HeliMMClass( platform, STABLE );

	push	1088					; 00000440H
	call	??2@YAPAXI@Z				; operator new
	add	esp, 4
	mov	DWORD PTR $T6[ebp], eax
	mov	DWORD PTR __$EHRec$[ebp+8], 3
	cmp	DWORD PTR $T6[ebp], 0
	je	SHORT $LN28@Reinit
	push	3
	mov	edx, DWORD PTR _this$[ebp]
	mov	eax, DWORD PTR [edx+1088]
	push	eax
	mov	ecx, DWORD PTR $T6[ebp]
	call	??0HeliMMClass@@QAE@PAVSimBaseClass@@H@Z ; HeliMMClass::HeliMMClass
	mov	DWORD PTR tv181[ebp], eax
	jmp	SHORT $LN29@Reinit
$LN28@Reinit:
	mov	DWORD PTR tv181[ebp], 0
$LN29@Reinit:
	mov	ecx, DWORD PTR tv181[ebp]
	mov	DWORD PTR $T2[ebp], ecx
	mov	DWORD PTR __$EHRec$[ebp+8], -1
	mov	edx, DWORD PTR _this$[ebp]
	mov	eax, DWORD PTR $T2[ebp]
	mov	DWORD PTR [edx+1812], eax
$LN12@Reinit:

; 534  : 		}
; 535  :       	hf->SetControls( 0.0f, 0.0f, 0.0f, 0.0f );

	push	ecx
	movss	xmm0, DWORD PTR __real@00000000
	movss	DWORD PTR [esp], xmm0
	push	ecx
	movss	xmm0, DWORD PTR __real@00000000
	movss	DWORD PTR [esp], xmm0
	push	ecx
	movss	xmm0, DWORD PTR __real@00000000
	movss	DWORD PTR [esp], xmm0
	push	ecx
	movss	xmm0, DWORD PTR __real@00000000
	movss	DWORD PTR [esp], xmm0
	mov	ecx, DWORD PTR _this$[ebp]
	mov	ecx, DWORD PTR [ecx+1812]
	call	?SetControls@HeliMMClass@@QAEXMMMM@Z	; HeliMMClass::SetControls

; 536  : 		hf->Init( px, py, pz );

	push	ecx
	movss	xmm0, DWORD PTR _pz$[ebp]
	movss	DWORD PTR [esp], xmm0
	push	ecx
	movss	xmm0, DWORD PTR _py$[ebp]
	movss	DWORD PTR [esp], xmm0
	push	ecx
	movss	xmm0, DWORD PTR _px$[ebp]
	movss	DWORD PTR [esp], xmm0
	mov	edx, DWORD PTR _this$[ebp]
	mov	ecx, DWORD PTR [edx+1812]
	call	?Init@HeliMMClass@@QAEXMMM@Z		; HeliMMClass::Init
	jmp	$LN7@Reinit
$LN19@Reinit:

; 537  : 	}
; 538  : 	else if (IsSet(InAir)){

	push	2
	mov	ecx, DWORD PTR _this$[ebp]
	call	?IsSet@AirframeClass@@QBEHH@Z		; AirframeClass::IsSet
	test	eax, eax
	je	$LN10@Reinit

; 539  : 		// LRKLUDGE
; 540  : 		//Clamp vt to some minimum value
; 541  : 		if (!platform->IsPlayer()){

	mov	eax, DWORD PTR _this$[ebp]
	mov	ecx, DWORD PTR [eax+1088]
	call	?IsPlayer@FalconEntity@@QAEHXZ		; FalconEntity::IsPlayer
	test	eax, eax
	jne	$LN8@Reinit

; 542  : 			vt		= max (vt, minVcas * 0.6F * KNOTS_TO_FTPSEC);

	mov	ecx, DWORD PTR _this$[ebp]
	movss	xmm0, DWORD PTR [ecx+1120]
	mov	edx, DWORD PTR _this$[ebp]
	movss	xmm1, DWORD PTR [edx+76]
	mulss	xmm1, DWORD PTR __real@3f19999a
	mulss	xmm1, DWORD PTR __real@3fd80b03
	comiss	xmm0, xmm1
	jbe	SHORT $LN30@Reinit
	mov	eax, DWORD PTR _this$[ebp]
	movss	xmm0, DWORD PTR [eax+1120]
	movss	DWORD PTR tv218[ebp], xmm0
	jmp	SHORT $LN31@Reinit
$LN30@Reinit:
	mov	ecx, DWORD PTR _this$[ebp]
	movss	xmm0, DWORD PTR [ecx+76]
	mulss	xmm0, DWORD PTR __real@3f19999a
	mulss	xmm0, DWORD PTR __real@3fd80b03
	movss	DWORD PTR tv218[ebp], xmm0
$LN31@Reinit:
	mov	edx, DWORD PTR _this$[ebp]
	movss	xmm0, DWORD PTR tv218[ebp]
	movss	DWORD PTR [edx+1120], xmm0

; 543  : 			vcas	= vt * FTPSEC_TO_KNOTS;

	mov	eax, DWORD PTR _this$[ebp]
	movss	xmm0, DWORD PTR [eax+1120]
	mulss	xmm0, DWORD PTR __real@3f17ac60
	mov	ecx, DWORD PTR _this$[ebp]
	movss	DWORD PTR [ecx+1124], xmm0

; 544  : 
; 545  : 			if(!IsSet(GearBroken)){

	push	2048					; 00000800H
	mov	ecx, DWORD PTR _this$[ebp]
	call	?IsSet@AirframeClass@@QBEHH@Z		; AirframeClass::IsSet
	test	eax, eax
	jne	SHORT $LN8@Reinit

; 546  : 				gearPos		= 0.0F;

	mov	edx, DWORD PTR _this$[ebp]
	movss	xmm0, DWORD PTR __real@00000000
	movss	DWORD PTR [edx+1552], xmm0

; 547  : 				gearHandle	= -1.0F;

	mov	eax, DWORD PTR _this$[ebp]
	movss	xmm0, DWORD PTR __real@bf800000
	movss	DWORD PTR [eax+1556], xmm0
$LN8@Reinit:

; 548  : 			}
; 549  : 		}		
; 550  : 
; 551  : 		ClearFlag(Trimming);

	push	4
	mov	ecx, DWORD PTR _this$[ebp]
	call	?ClearFlag@AirframeClass@@QAEXH@Z	; AirframeClass::ClearFlag

; 552  : 		ClearFlag(EngineOff);

	push	32768					; 00008000H
	mov	ecx, DWORD PTR _this$[ebp]
	call	?ClearFlag@AirframeClass@@QAEXH@Z	; AirframeClass::ClearFlag

; 553  : 		ClearFlag(EngineOff2);//TJL 01/14/04 Multi-engine

	push	536870912				; 20000000H
	mov	ecx, DWORD PTR _this$[ebp]
	call	?ClearFlag@AirframeClass@@QAEXH@Z	; AirframeClass::ClearFlag

; 554  : 		ReInitialize();

	mov	ecx, DWORD PTR _this$[ebp]
	call	?ReInitialize@AirframeClass@@AAEXXZ	; AirframeClass::ReInitialize

; 555  : 	}
; 556  : 	else {

	jmp	$LN7@Reinit
$LN10@Reinit:

; 557  : 		// Set our anchor point for low speed/high precision maneuvering
; 558  : 		groundAnchorX = px;

	mov	ecx, DWORD PTR _this$[ebp]
	movss	xmm0, DWORD PTR _px$[ebp]
	movss	DWORD PTR [ecx+112], xmm0

; 559  : 		groundAnchorY = py;

	mov	edx, DWORD PTR _this$[ebp]
	movss	xmm0, DWORD PTR _py$[ebp]
	movss	DWORD PTR [edx+116], xmm0

; 560  : 		groundDeltaX = 0.0f;

	mov	eax, DWORD PTR _this$[ebp]
	movss	xmm0, DWORD PTR __real@00000000
	movss	DWORD PTR [eax+120], xmm0

; 561  : 		groundDeltaY = 0.0f;

	mov	ecx, DWORD PTR _this$[ebp]
	movss	xmm0, DWORD PTR __real@00000000
	movss	DWORD PTR [ecx+124], xmm0

; 562  : 
; 563  : 		if(!IsSet(GearBroken))	{

	push	2048					; 00000800H
	mov	ecx, DWORD PTR _this$[ebp]
	call	?IsSet@AirframeClass@@QBEHH@Z		; AirframeClass::IsSet
	test	eax, eax
	jne	SHORT $LN6@Reinit

; 564  : 			gearPos		= 1.0F;

	mov	edx, DWORD PTR _this$[ebp]
	movss	xmm0, DWORD PTR __real@3f800000
	movss	DWORD PTR [edx+1552], xmm0

; 565  : 			gearHandle	= 1.0F;

	mov	eax, DWORD PTR _this$[ebp]
	movss	xmm0, DWORD PTR __real@3f800000
	movss	DWORD PTR [eax+1556], xmm0
$LN6@Reinit:

; 566  : 		}
; 567  : 
; 568  : 		ClearFlag(Trimming);

	push	4
	mov	ecx, DWORD PTR _this$[ebp]
	call	?ClearFlag@AirframeClass@@QAEXH@Z	; AirframeClass::ClearFlag

; 569  : 		ReInitialize();

	mov	ecx, DWORD PTR _this$[ebp]
	call	?ReInitialize@AirframeClass@@AAEXXZ	; AirframeClass::ReInitialize
$LN7@Reinit:

; 570  : 	}
; 571  : 
; 572  : 	//MI CATIII as default
; 573  : 	//if(g_bCATIIIDefault && g_bEnableCATIIIExtension)	MI
; 574  : 	if(g_bCATIIIDefault && g_bRealisticAvionics)

	movzx	ecx, BYTE PTR ?g_bCATIIIDefault@@3_NA	; g_bCATIIIDefault
	test	ecx, ecx
