; Listing generated by Microsoft (R) Optimizing Compiler Version 17.00.51106.1 

	TITLE	C:\Users\Zhitao Li\Documents\Visual Studio 2012\Projects\Freefalcon\SIM\Airframe\Eom.cpp
	.686P
	.XMM
	include listing.inc
	.model	flat

INCLUDELIB LIBCMT
INCLUDELIB OLDNAMES

PUBLIC	?traps@_Num_base@std@@2_NB			; std::_Num_base::traps
PUBLIC	?round_style@_Num_base@std@@2W4float_round_style@2@B ; std::_Num_base::round_style
PUBLIC	?digits@_Num_base@std@@2HB			; std::_Num_base::digits
PUBLIC	?digits10@_Num_base@std@@2HB			; std::_Num_base::digits10
PUBLIC	?max_digits10@_Num_base@std@@2HB		; std::_Num_base::max_digits10
PUBLIC	?max_exponent@_Num_base@std@@2HB		; std::_Num_base::max_exponent
PUBLIC	?max_exponent10@_Num_base@std@@2HB		; std::_Num_base::max_exponent10
PUBLIC	?min_exponent@_Num_base@std@@2HB		; std::_Num_base::min_exponent
PUBLIC	?_Stream_err@failure@ios_base@std@@0W4io_errc@43@B ; std::ios_base::failure::_Stream_err
PUBLIC	?min_exponent10@_Num_base@std@@2HB		; std::_Num_base::min_exponent10
PUBLIC	?radix@_Num_base@std@@2HB			; std::_Num_base::radix
PUBLIC	?is_bounded@_Num_int_base@std@@2_NB		; std::_Num_int_base::is_bounded
PUBLIC	?is_exact@_Num_int_base@std@@2_NB		; std::_Num_int_base::is_exact
PUBLIC	?is_integer@_Num_int_base@std@@2_NB		; std::_Num_int_base::is_integer
PUBLIC	?is_modulo@_Num_int_base@std@@2_NB		; std::_Num_int_base::is_modulo
PUBLIC	?is_specialized@_Num_int_base@std@@2_NB		; std::_Num_int_base::is_specialized
PUBLIC	?radix@_Num_int_base@std@@2HB			; std::_Num_int_base::radix
PUBLIC	?has_denorm@_Num_float_base@std@@2W4float_denorm_style@2@B ; std::_Num_float_base::has_denorm
PUBLIC	?has_denorm_loss@_Num_float_base@std@@2_NB	; std::_Num_float_base::has_denorm_loss
PUBLIC	?SIMDIRTYDATA_INTERVAL@FalconEntity@@2KB	; FalconEntity::SIMDIRTYDATA_INTERVAL
PUBLIC	?CMPDIRTYDATA_INTERVAL@FalconEntity@@2KB	; FalconEntity::CMPDIRTYDATA_INTERVAL
PUBLIC	?has_infinity@_Num_float_base@std@@2_NB		; std::_Num_float_base::has_infinity
PUBLIC	?has_quiet_NaN@_Num_float_base@std@@2_NB	; std::_Num_float_base::has_quiet_NaN
PUBLIC	?has_signaling_NaN@_Num_float_base@std@@2_NB	; std::_Num_float_base::has_signaling_NaN
PUBLIC	?is_bounded@_Num_float_base@std@@2_NB		; std::_Num_float_base::is_bounded
PUBLIC	?is_exact@_Num_float_base@std@@2_NB		; std::_Num_float_base::is_exact
PUBLIC	?is_iec559@_Num_float_base@std@@2_NB		; std::_Num_float_base::is_iec559
PUBLIC	?is_integer@_Num_float_base@std@@2_NB		; std::_Num_float_base::is_integer
PUBLIC	?is_modulo@_Num_float_base@std@@2_NB		; std::_Num_float_base::is_modulo
PUBLIC	?is_signed@_Num_float_base@std@@2_NB		; std::_Num_float_base::is_signed
PUBLIC	?is_specialized@_Num_float_base@std@@2_NB	; std::_Num_float_base::is_specialized
PUBLIC	?tinyness_before@_Num_float_base@std@@2_NB	; std::_Num_float_base::tinyness_before
PUBLIC	?traps@_Num_float_base@std@@2_NB		; std::_Num_float_base::traps
PUBLIC	?round_style@_Num_float_base@std@@2W4float_round_style@2@B ; std::_Num_float_base::round_style
PUBLIC	?radix@_Num_float_base@std@@2HB			; std::_Num_float_base::radix
PUBLIC	?is_signed@?$numeric_limits@D@std@@2_NB		; std::numeric_limits<char>::is_signed
PUBLIC	?digits@?$numeric_limits@D@std@@2HB		; std::numeric_limits<char>::digits
PUBLIC	?digits10@?$numeric_limits@D@std@@2HB		; std::numeric_limits<char>::digits10
PUBLIC	?is_signed@?$numeric_limits@_W@std@@2_NB	; std::numeric_limits<wchar_t>::is_signed
PUBLIC	?digits@?$numeric_limits@_W@std@@2HB		; std::numeric_limits<wchar_t>::digits
PUBLIC	?digits10@?$numeric_limits@_W@std@@2HB		; std::numeric_limits<wchar_t>::digits10
PUBLIC	?gSpeedyGonzales@@3MA				; gSpeedyGonzales
PUBLIC	?GROUND_TOLERANCE@@3MA				; GROUND_TOLERANCE
PUBLIC	?ANG_RATE@@3MA					; ANG_RATE
PUBLIC	?is_modulo@?$numeric_limits@_N@std@@2_NB	; std::numeric_limits<bool>::is_modulo
PUBLIC	?is_signed@?$numeric_limits@_N@std@@2_NB	; std::numeric_limits<bool>::is_signed
PUBLIC	?digits@?$numeric_limits@_N@std@@2HB		; std::numeric_limits<bool>::digits
PUBLIC	?digits10@?$numeric_limits@_N@std@@2HB		; std::numeric_limits<bool>::digits10
PUBLIC	?is_signed@?$numeric_limits@C@std@@2_NB		; std::numeric_limits<signed char>::is_signed
PUBLIC	?digits@?$numeric_limits@C@std@@2HB		; std::numeric_limits<signed char>::digits
PUBLIC	?digits10@?$numeric_limits@C@std@@2HB		; std::numeric_limits<signed char>::digits10
PUBLIC	?is_signed@?$numeric_limits@E@std@@2_NB		; std::numeric_limits<unsigned char>::is_signed
PUBLIC	?value@?$integral_constant@_N$0A@@std@@2_NB	; std::integral_constant<bool,0>::value
PUBLIC	?digits@?$numeric_limits@E@std@@2HB		; std::numeric_limits<unsigned char>::digits
PUBLIC	?digits10@?$numeric_limits@E@std@@2HB		; std::numeric_limits<unsigned char>::digits10
PUBLIC	?collate@?$_Locbase@H@std@@2HB			; std::_Locbase<int>::collate
PUBLIC	?value@?$integral_constant@_N$00@std@@2_NB	; std::integral_constant<bool,1>::value
PUBLIC	?ctype@?$_Locbase@H@std@@2HB			; std::_Locbase<int>::ctype
PUBLIC	?monetary@?$_Locbase@H@std@@2HB			; std::_Locbase<int>::monetary
PUBLIC	?numeric@?$_Locbase@H@std@@2HB			; std::_Locbase<int>::numeric
PUBLIC	?time@?$_Locbase@H@std@@2HB			; std::_Locbase<int>::time
PUBLIC	?messages@?$_Locbase@H@std@@2HB			; std::_Locbase<int>::messages
PUBLIC	?all@?$_Locbase@H@std@@2HB			; std::_Locbase<int>::all
PUBLIC	?none@?$_Locbase@H@std@@2HB			; std::_Locbase<int>::none
PUBLIC	?is_signed@?$numeric_limits@F@std@@2_NB		; std::numeric_limits<short>::is_signed
PUBLIC	?digits@?$numeric_limits@F@std@@2HB		; std::numeric_limits<short>::digits
PUBLIC	?digits10@?$numeric_limits@F@std@@2HB		; std::numeric_limits<short>::digits10
PUBLIC	?is_signed@?$numeric_limits@G@std@@2_NB		; std::numeric_limits<unsigned short>::is_signed
PUBLIC	?digits@?$numeric_limits@G@std@@2HB		; std::numeric_limits<unsigned short>::digits
PUBLIC	?digits10@?$numeric_limits@G@std@@2HB		; std::numeric_limits<unsigned short>::digits10
PUBLIC	?is_signed@?$numeric_limits@H@std@@2_NB		; std::numeric_limits<int>::is_signed
PUBLIC	?value@?$_Sizeof@HU_Nil@std@@U12@U12@U12@U12@U12@U12@@std@@2IB ; std::_Sizeof<int,std::_Nil,std::_Nil,std::_Nil,std::_Nil,std::_Nil,std::_Nil,std::_Nil>::value
PUBLIC	?digits@?$numeric_limits@H@std@@2HB		; std::numeric_limits<int>::digits
PUBLIC	?digits10@?$numeric_limits@H@std@@2HB		; std::numeric_limits<int>::digits10
PUBLIC	?table_size@?$ctype@D@std@@2IB			; std::ctype<char>::table_size
PUBLIC	?is_signed@?$numeric_limits@I@std@@2_NB		; std::numeric_limits<unsigned int>::is_signed
PUBLIC	?digits@?$numeric_limits@I@std@@2HB		; std::numeric_limits<unsigned int>::digits
PUBLIC	?digits10@?$numeric_limits@I@std@@2HB		; std::numeric_limits<unsigned int>::digits10
PUBLIC	?is_signed@?$numeric_limits@J@std@@2_NB		; std::numeric_limits<long>::is_signed
PUBLIC	?digits@?$numeric_limits@J@std@@2HB		; std::numeric_limits<long>::digits
PUBLIC	?digits10@?$numeric_limits@J@std@@2HB		; std::numeric_limits<long>::digits10
PUBLIC	?is_signed@?$numeric_limits@K@std@@2_NB		; std::numeric_limits<unsigned long>::is_signed
PUBLIC	?digits@?$numeric_limits@K@std@@2HB		; std::numeric_limits<unsigned long>::digits
PUBLIC	?digits10@?$numeric_limits@K@std@@2HB		; std::numeric_limits<unsigned long>::digits10
PUBLIC	?is_signed@?$numeric_limits@_J@std@@2_NB	; std::numeric_limits<__int64>::is_signed
PUBLIC	?digits@?$numeric_limits@_J@std@@2HB		; std::numeric_limits<__int64>::digits
PUBLIC	?digits10@?$numeric_limits@_J@std@@2HB		; std::numeric_limits<__int64>::digits10
PUBLIC	?is_signed@?$numeric_limits@_K@std@@2_NB	; std::numeric_limits<unsigned __int64>::is_signed
PUBLIC	?digits@?$numeric_limits@_K@std@@2HB		; std::numeric_limits<unsigned __int64>::digits
PUBLIC	?digits10@?$numeric_limits@_K@std@@2HB		; std::numeric_limits<unsigned __int64>::digits10
PUBLIC	?digits@?$numeric_limits@M@std@@2HB		; std::numeric_limits<float>::digits
PUBLIC	?digits10@?$numeric_limits@M@std@@2HB		; std::numeric_limits<float>::digits10
PUBLIC	?max_digits10@?$numeric_limits@M@std@@2HB	; std::numeric_limits<float>::max_digits10
PUBLIC	?max_exponent@?$numeric_limits@M@std@@2HB	; std::numeric_limits<float>::max_exponent
PUBLIC	?max_exponent10@?$numeric_limits@M@std@@2HB	; std::numeric_limits<float>::max_exponent10
PUBLIC	?min_exponent@?$numeric_limits@M@std@@2HB	; std::numeric_limits<float>::min_exponent
PUBLIC	?min_exponent10@?$numeric_limits@M@std@@2HB	; std::numeric_limits<float>::min_exponent10
PUBLIC	?value@?$integral_constant@I$0A@@std@@2IB	; std::integral_constant<unsigned int,0>::value
PUBLIC	?digits@?$numeric_limits@N@std@@2HB		; std::numeric_limits<double>::digits
PUBLIC	?digits10@?$numeric_limits@N@std@@2HB		; std::numeric_limits<double>::digits10
PUBLIC	?max_digits10@?$numeric_limits@N@std@@2HB	; std::numeric_limits<double>::max_digits10
PUBLIC	?max_exponent@?$numeric_limits@N@std@@2HB	; std::numeric_limits<double>::max_exponent
PUBLIC	?max_exponent10@?$numeric_limits@N@std@@2HB	; std::numeric_limits<double>::max_exponent10
PUBLIC	?min_exponent@?$numeric_limits@N@std@@2HB	; std::numeric_limits<double>::min_exponent
PUBLIC	?min_exponent10@?$numeric_limits@N@std@@2HB	; std::numeric_limits<double>::min_exponent10
PUBLIC	?digits@?$numeric_limits@O@std@@2HB		; std::numeric_limits<long double>::digits
PUBLIC	?digits10@?$numeric_limits@O@std@@2HB		; std::numeric_limits<long double>::digits10
PUBLIC	?max_digits10@?$numeric_limits@O@std@@2HB	; std::numeric_limits<long double>::max_digits10
PUBLIC	?max_exponent@?$numeric_limits@O@std@@2HB	; std::numeric_limits<long double>::max_exponent
PUBLIC	?max_exponent10@?$numeric_limits@O@std@@2HB	; std::numeric_limits<long double>::max_exponent10
PUBLIC	?min_exponent@?$numeric_limits@O@std@@2HB	; std::numeric_limits<long double>::min_exponent
PUBLIC	?min_exponent10@?$numeric_limits@O@std@@2HB	; std::numeric_limits<long double>::min_exponent10
PUBLIC	?value@?$_Sizeof@U_Nil@std@@U12@U12@U12@U12@U12@U12@U12@@std@@2IB ; std::_Sizeof<std::_Nil,std::_Nil,std::_Nil,std::_Nil,std::_Nil,std::_Nil,std::_Nil,std::_Nil>::value
PUBLIC	?skipws@?$_Iosb@H@std@@2W4_Fmtflags@12@B	; std::_Iosb<int>::skipws
PUBLIC	?unitbuf@?$_Iosb@H@std@@2W4_Fmtflags@12@B	; std::_Iosb<int>::unitbuf
PUBLIC	?uppercase@?$_Iosb@H@std@@2W4_Fmtflags@12@B	; std::_Iosb<int>::uppercase
PUBLIC	?showbase@?$_Iosb@H@std@@2W4_Fmtflags@12@B	; std::_Iosb<int>::showbase
PUBLIC	?showpoint@?$_Iosb@H@std@@2W4_Fmtflags@12@B	; std::_Iosb<int>::showpoint
PUBLIC	?showpos@?$_Iosb@H@std@@2W4_Fmtflags@12@B	; std::_Iosb<int>::showpos
PUBLIC	?left@?$_Iosb@H@std@@2W4_Fmtflags@12@B		; std::_Iosb<int>::left
PUBLIC	?right@?$_Iosb@H@std@@2W4_Fmtflags@12@B		; std::_Iosb<int>::right
PUBLIC	?internal@?$_Iosb@H@std@@2W4_Fmtflags@12@B	; std::_Iosb<int>::internal
PUBLIC	?dec@?$_Iosb@H@std@@2W4_Fmtflags@12@B		; std::_Iosb<int>::dec
PUBLIC	?oct@?$_Iosb@H@std@@2W4_Fmtflags@12@B		; std::_Iosb<int>::oct
PUBLIC	?hex@?$_Iosb@H@std@@2W4_Fmtflags@12@B		; std::_Iosb<int>::hex
PUBLIC	?scientific@?$_Iosb@H@std@@2W4_Fmtflags@12@B	; std::_Iosb<int>::scientific
PUBLIC	?fixed@?$_Iosb@H@std@@2W4_Fmtflags@12@B		; std::_Iosb<int>::fixed
PUBLIC	?hexfloat@?$_Iosb@H@std@@2W4_Fmtflags@12@B	; std::_Iosb<int>::hexfloat
PUBLIC	?boolalpha@?$_Iosb@H@std@@2W4_Fmtflags@12@B	; std::_Iosb<int>::boolalpha
PUBLIC	?_Stdio@?$_Iosb@H@std@@2W4_Fmtflags@12@B	; std::_Iosb<int>::_Stdio
PUBLIC	?adjustfield@?$_Iosb@H@std@@2W4_Fmtflags@12@B	; std::_Iosb<int>::adjustfield
PUBLIC	?basefield@?$_Iosb@H@std@@2W4_Fmtflags@12@B	; std::_Iosb<int>::basefield
PUBLIC	?floatfield@?$_Iosb@H@std@@2W4_Fmtflags@12@B	; std::_Iosb<int>::floatfield
PUBLIC	?goodbit@?$_Iosb@H@std@@2W4_Iostate@12@B	; std::_Iosb<int>::goodbit
PUBLIC	?eofbit@?$_Iosb@H@std@@2W4_Iostate@12@B		; std::_Iosb<int>::eofbit
PUBLIC	?failbit@?$_Iosb@H@std@@2W4_Iostate@12@B	; std::_Iosb<int>::failbit
PUBLIC	?badbit@?$_Iosb@H@std@@2W4_Iostate@12@B		; std::_Iosb<int>::badbit
PUBLIC	?_Hardfail@?$_Iosb@H@std@@2W4_Iostate@12@B	; std::_Iosb<int>::_Hardfail
PUBLIC	?has_denorm@_Num_base@std@@2W4float_denorm_style@2@B ; std::_Num_base::has_denorm
PUBLIC	?in@?$_Iosb@H@std@@2W4_Openmode@12@B		; std::_Iosb<int>::in
PUBLIC	?has_denorm_loss@_Num_base@std@@2_NB		; std::_Num_base::has_denorm_loss
PUBLIC	?out@?$_Iosb@H@std@@2W4_Openmode@12@B		; std::_Iosb<int>::out
PUBLIC	?has_infinity@_Num_base@std@@2_NB		; std::_Num_base::has_infinity
PUBLIC	?ate@?$_Iosb@H@std@@2W4_Openmode@12@B		; std::_Iosb<int>::ate
PUBLIC	?has_quiet_NaN@_Num_base@std@@2_NB		; std::_Num_base::has_quiet_NaN
PUBLIC	?app@?$_Iosb@H@std@@2W4_Openmode@12@B		; std::_Iosb<int>::app
PUBLIC	?has_signaling_NaN@_Num_base@std@@2_NB		; std::_Num_base::has_signaling_NaN
PUBLIC	?trunc@?$_Iosb@H@std@@2W4_Openmode@12@B		; std::_Iosb<int>::trunc
PUBLIC	?is_bounded@_Num_base@std@@2_NB			; std::_Num_base::is_bounded
PUBLIC	?_Nocreate@?$_Iosb@H@std@@2W4_Openmode@12@B	; std::_Iosb<int>::_Nocreate
PUBLIC	?is_exact@_Num_base@std@@2_NB			; std::_Num_base::is_exact
PUBLIC	?_Noreplace@?$_Iosb@H@std@@2W4_Openmode@12@B	; std::_Iosb<int>::_Noreplace
PUBLIC	?is_iec559@_Num_base@std@@2_NB			; std::_Num_base::is_iec559
PUBLIC	?binary@?$_Iosb@H@std@@2W4_Openmode@12@B	; std::_Iosb<int>::binary
PUBLIC	?is_integer@_Num_base@std@@2_NB			; std::_Num_base::is_integer
PUBLIC	?beg@?$_Iosb@H@std@@2W4_Seekdir@12@B		; std::_Iosb<int>::beg
PUBLIC	?is_modulo@_Num_base@std@@2_NB			; std::_Num_base::is_modulo
PUBLIC	?cur@?$_Iosb@H@std@@2W4_Seekdir@12@B		; std::_Iosb<int>::cur
PUBLIC	?is_signed@_Num_base@std@@2_NB			; std::_Num_base::is_signed
PUBLIC	?end@?$_Iosb@H@std@@2W4_Seekdir@12@B		; std::_Iosb<int>::end
PUBLIC	?is_specialized@_Num_base@std@@2_NB		; std::_Num_base::is_specialized
PUBLIC	?tinyness_before@_Num_base@std@@2_NB		; std::_Num_base::tinyness_before
_BSS	SEGMENT
_lastVt	DD	01H DUP (?)
_BSS	ENDS
;	COMDAT ?tinyness_before@_Num_base@std@@2_NB
CONST	SEGMENT
?tinyness_before@_Num_base@std@@2_NB DB 00H		; std::_Num_base::tinyness_before
CONST	ENDS
;	COMDAT ?is_specialized@_Num_base@std@@2_NB
CONST	SEGMENT
?is_specialized@_Num_base@std@@2_NB DB 00H		; std::_Num_base::is_specialized
CONST	ENDS
;	COMDAT ?end@?$_Iosb@H@std@@2W4_Seekdir@12@B
CONST	SEGMENT
?end@?$_Iosb@H@std@@2W4_Seekdir@12@B DD 02H		; std::_Iosb<int>::end
CONST	ENDS
;	COMDAT ?is_signed@_Num_base@std@@2_NB
CONST	SEGMENT
?is_signed@_Num_base@std@@2_NB DB 00H			; std::_Num_base::is_signed
CONST	ENDS
;	COMDAT ?cur@?$_Iosb@H@std@@2W4_Seekdir@12@B
CONST	SEGMENT
?cur@?$_Iosb@H@std@@2W4_Seekdir@12@B DD 01H		; std::_Iosb<int>::cur
CONST	ENDS
;	COMDAT ?is_modulo@_Num_base@std@@2_NB
CONST	SEGMENT
?is_modulo@_Num_base@std@@2_NB DB 00H			; std::_Num_base::is_modulo
CONST	ENDS
;	COMDAT ?beg@?$_Iosb@H@std@@2W4_Seekdir@12@B
CONST	SEGMENT
?beg@?$_Iosb@H@std@@2W4_Seekdir@12@B DD 00H		; std::_Iosb<int>::beg
CONST	ENDS
;	COMDAT ?is_integer@_Num_base@std@@2_NB
CONST	SEGMENT
?is_integer@_Num_base@std@@2_NB DB 00H			; std::_Num_base::is_integer
CONST	ENDS
;	COMDAT ?binary@?$_Iosb@H@std@@2W4_Openmode@12@B
CONST	SEGMENT
?binary@?$_Iosb@H@std@@2W4_Openmode@12@B DD 020H	; std::_Iosb<int>::binary
CONST	ENDS
;	COMDAT ?is_iec559@_Num_base@std@@2_NB
CONST	SEGMENT
?is_iec559@_Num_base@std@@2_NB DB 00H			; std::_Num_base::is_iec559
CONST	ENDS
;	COMDAT ?_Noreplace@?$_Iosb@H@std@@2W4_Openmode@12@B
CONST	SEGMENT
?_Noreplace@?$_Iosb@H@std@@2W4_Openmode@12@B DD 080H	; std::_Iosb<int>::_Noreplace
CONST	ENDS
;	COMDAT ?is_exact@_Num_base@std@@2_NB
CONST	SEGMENT
?is_exact@_Num_base@std@@2_NB DB 00H			; std::_Num_base::is_exact
CONST	ENDS
;	COMDAT ?_Nocreate@?$_Iosb@H@std@@2W4_Openmode@12@B
CONST	SEGMENT
?_Nocreate@?$_Iosb@H@std@@2W4_Openmode@12@B DD 040H	; std::_Iosb<int>::_Nocreate
CONST	ENDS
;	COMDAT ?is_bounded@_Num_base@std@@2_NB
CONST	SEGMENT
?is_bounded@_Num_base@std@@2_NB DB 00H			; std::_Num_base::is_bounded
CONST	ENDS
;	COMDAT ?trunc@?$_Iosb@H@std@@2W4_Openmode@12@B
CONST	SEGMENT
?trunc@?$_Iosb@H@std@@2W4_Openmode@12@B DD 010H		; std::_Iosb<int>::trunc
CONST	ENDS
;	COMDAT ?has_signaling_NaN@_Num_base@std@@2_NB
CONST	SEGMENT
?has_signaling_NaN@_Num_base@std@@2_NB DB 00H		; std::_Num_base::has_signaling_NaN
CONST	ENDS
;	COMDAT ?app@?$_Iosb@H@std@@2W4_Openmode@12@B
CONST	SEGMENT
?app@?$_Iosb@H@std@@2W4_Openmode@12@B DD 08H		; std::_Iosb<int>::app
CONST	ENDS
;	COMDAT ?has_quiet_NaN@_Num_base@std@@2_NB
CONST	SEGMENT
?has_quiet_NaN@_Num_base@std@@2_NB DB 00H		; std::_Num_base::has_quiet_NaN
CONST	ENDS
;	COMDAT ?ate@?$_Iosb@H@std@@2W4_Openmode@12@B
CONST	SEGMENT
?ate@?$_Iosb@H@std@@2W4_Openmode@12@B DD 04H		; std::_Iosb<int>::ate
CONST	ENDS
;	COMDAT ?has_infinity@_Num_base@std@@2_NB
CONST	SEGMENT
?has_infinity@_Num_base@std@@2_NB DB 00H		; std::_Num_base::has_infinity
CONST	ENDS
;	COMDAT ?out@?$_Iosb@H@std@@2W4_Openmode@12@B
CONST	SEGMENT
?out@?$_Iosb@H@std@@2W4_Openmode@12@B DD 02H		; std::_Iosb<int>::out
CONST	ENDS
;	COMDAT ?has_denorm_loss@_Num_base@std@@2_NB
CONST	SEGMENT
?has_denorm_loss@_Num_base@std@@2_NB DB 00H		; std::_Num_base::has_denorm_loss
CONST	ENDS
;	COMDAT ?in@?$_Iosb@H@std@@2W4_Openmode@12@B
CONST	SEGMENT
?in@?$_Iosb@H@std@@2W4_Openmode@12@B DD 01H		; std::_Iosb<int>::in
CONST	ENDS
;	COMDAT ?has_denorm@_Num_base@std@@2W4float_denorm_style@2@B
CONST	SEGMENT
?has_denorm@_Num_base@std@@2W4float_denorm_style@2@B DD 00H ; std::_Num_base::has_denorm
CONST	ENDS
;	COMDAT ?_Hardfail@?$_Iosb@H@std@@2W4_Iostate@12@B
CONST	SEGMENT
?_Hardfail@?$_Iosb@H@std@@2W4_Iostate@12@B DD 010H	; std::_Iosb<int>::_Hardfail
CONST	ENDS
;	COMDAT ?badbit@?$_Iosb@H@std@@2W4_Iostate@12@B
CONST	SEGMENT
?badbit@?$_Iosb@H@std@@2W4_Iostate@12@B DD 04H		; std::_Iosb<int>::badbit
CONST	ENDS
;	COMDAT ?failbit@?$_Iosb@H@std@@2W4_Iostate@12@B
CONST	SEGMENT
?failbit@?$_Iosb@H@std@@2W4_Iostate@12@B DD 02H		; std::_Iosb<int>::failbit
CONST	ENDS
;	COMDAT ?eofbit@?$_Iosb@H@std@@2W4_Iostate@12@B
CONST	SEGMENT
?eofbit@?$_Iosb@H@std@@2W4_Iostate@12@B DD 01H		; std::_Iosb<int>::eofbit
CONST	ENDS
;	COMDAT ?goodbit@?$_Iosb@H@std@@2W4_Iostate@12@B
CONST	SEGMENT
?goodbit@?$_Iosb@H@std@@2W4_Iostate@12@B DD 00H		; std::_Iosb<int>::goodbit
CONST	ENDS
;	COMDAT ?floatfield@?$_Iosb@H@std@@2W4_Fmtflags@12@B
CONST	SEGMENT
?floatfield@?$_Iosb@H@std@@2W4_Fmtflags@12@B DD 03000H	; std::_Iosb<int>::floatfield
CONST	ENDS
;	COMDAT ?basefield@?$_Iosb@H@std@@2W4_Fmtflags@12@B
CONST	SEGMENT
?basefield@?$_Iosb@H@std@@2W4_Fmtflags@12@B DD 0e00H	; std::_Iosb<int>::basefield
CONST	ENDS
;	COMDAT ?adjustfield@?$_Iosb@H@std@@2W4_Fmtflags@12@B
CONST	SEGMENT
?adjustfield@?$_Iosb@H@std@@2W4_Fmtflags@12@B DD 01c0H	; std::_Iosb<int>::adjustfield
CONST	ENDS
;	COMDAT ?_Stdio@?$_Iosb@H@std@@2W4_Fmtflags@12@B
CONST	SEGMENT
?_Stdio@?$_Iosb@H@std@@2W4_Fmtflags@12@B DD 08000H	; std::_Iosb<int>::_Stdio
CONST	ENDS
;	COMDAT ?boolalpha@?$_Iosb@H@std@@2W4_Fmtflags@12@B
CONST	SEGMENT
?boolalpha@?$_Iosb@H@std@@2W4_Fmtflags@12@B DD 04000H	; std::_Iosb<int>::boolalpha
CONST	ENDS
;	COMDAT ?hexfloat@?$_Iosb@H@std@@2W4_Fmtflags@12@B
CONST	SEGMENT
?hexfloat@?$_Iosb@H@std@@2W4_Fmtflags@12@B DD 03000H	; std::_Iosb<int>::hexfloat
CONST	ENDS
;	COMDAT ?fixed@?$_Iosb@H@std@@2W4_Fmtflags@12@B
CONST	SEGMENT
?fixed@?$_Iosb@H@std@@2W4_Fmtflags@12@B DD 02000H	; std::_Iosb<int>::fixed
CONST	ENDS
;	COMDAT ?scientific@?$_Iosb@H@std@@2W4_Fmtflags@12@B
CONST	SEGMENT
?scientific@?$_Iosb@H@std@@2W4_Fmtflags@12@B DD 01000H	; std::_Iosb<int>::scientific
CONST	ENDS
;	COMDAT ?hex@?$_Iosb@H@std@@2W4_Fmtflags@12@B
CONST	SEGMENT
?hex@?$_Iosb@H@std@@2W4_Fmtflags@12@B DD 0800H		; std::_Iosb<int>::hex
CONST	ENDS
;	COMDAT ?oct@?$_Iosb@H@std@@2W4_Fmtflags@12@B
CONST	SEGMENT
?oct@?$_Iosb@H@std@@2W4_Fmtflags@12@B DD 0400H		; std::_Iosb<int>::oct
CONST	ENDS
;	COMDAT ?dec@?$_Iosb@H@std@@2W4_Fmtflags@12@B
CONST	SEGMENT
?dec@?$_Iosb@H@std@@2W4_Fmtflags@12@B DD 0200H		; std::_Iosb<int>::dec
CONST	ENDS
;	COMDAT ?internal@?$_Iosb@H@std@@2W4_Fmtflags@12@B
CONST	SEGMENT
?internal@?$_Iosb@H@std@@2W4_Fmtflags@12@B DD 0100H	; std::_Iosb<int>::internal
CONST	ENDS
;	COMDAT ?right@?$_Iosb@H@std@@2W4_Fmtflags@12@B
CONST	SEGMENT
?right@?$_Iosb@H@std@@2W4_Fmtflags@12@B DD 080H		; std::_Iosb<int>::right
CONST	ENDS
;	COMDAT ?left@?$_Iosb@H@std@@2W4_Fmtflags@12@B
CONST	SEGMENT
?left@?$_Iosb@H@std@@2W4_Fmtflags@12@B DD 040H		; std::_Iosb<int>::left
CONST	ENDS
;	COMDAT ?showpos@?$_Iosb@H@std@@2W4_Fmtflags@12@B
CONST	SEGMENT
?showpos@?$_Iosb@H@std@@2W4_Fmtflags@12@B DD 020H	; std::_Iosb<int>::showpos
CONST	ENDS
;	COMDAT ?showpoint@?$_Iosb@H@std@@2W4_Fmtflags@12@B
CONST	SEGMENT
?showpoint@?$_Iosb@H@std@@2W4_Fmtflags@12@B DD 010H	; std::_Iosb<int>::showpoint
CONST	ENDS
;	COMDAT ?showbase@?$_Iosb@H@std@@2W4_Fmtflags@12@B
CONST	SEGMENT
?showbase@?$_Iosb@H@std@@2W4_Fmtflags@12@B DD 08H	; std::_Iosb<int>::showbase
CONST	ENDS
;	COMDAT ?uppercase@?$_Iosb@H@std@@2W4_Fmtflags@12@B
CONST	SEGMENT
?uppercase@?$_Iosb@H@std@@2W4_Fmtflags@12@B DD 04H	; std::_Iosb<int>::uppercase
CONST	ENDS
;	COMDAT ?unitbuf@?$_Iosb@H@std@@2W4_Fmtflags@12@B
CONST	SEGMENT
?unitbuf@?$_Iosb@H@std@@2W4_Fmtflags@12@B DD 02H	; std::_Iosb<int>::unitbuf
CONST	ENDS
;	COMDAT ?skipws@?$_Iosb@H@std@@2W4_Fmtflags@12@B
CONST	SEGMENT
?skipws@?$_Iosb@H@std@@2W4_Fmtflags@12@B DD 01H		; std::_Iosb<int>::skipws
CONST	ENDS
;	COMDAT ?value@?$_Sizeof@U_Nil@std@@U12@U12@U12@U12@U12@U12@U12@@std@@2IB
CONST	SEGMENT
?value@?$_Sizeof@U_Nil@std@@U12@U12@U12@U12@U12@U12@U12@@std@@2IB DD 00H ; std::_Sizeof<std::_Nil,std::_Nil,std::_Nil,std::_Nil,std::_Nil,std::_Nil,std::_Nil,std::_Nil>::value
CONST	ENDS
;	COMDAT ?min_exponent10@?$numeric_limits@O@std@@2HB
CONST	SEGMENT
?min_exponent10@?$numeric_limits@O@std@@2HB DD 0fffffecdH ; std::numeric_limits<long double>::min_exponent10
CONST	ENDS
;	COMDAT ?min_exponent@?$numeric_limits@O@std@@2HB
CONST	SEGMENT
?min_exponent@?$numeric_limits@O@std@@2HB DD 0fffffc03H	; std::numeric_limits<long double>::min_exponent
CONST	ENDS
;	COMDAT ?max_exponent10@?$numeric_limits@O@std@@2HB
CONST	SEGMENT
?max_exponent10@?$numeric_limits@O@std@@2HB DD 0134H	; std::numeric_limits<long double>::max_exponent10
CONST	ENDS
;	COMDAT ?max_exponent@?$numeric_limits@O@std@@2HB
CONST	SEGMENT
?max_exponent@?$numeric_limits@O@std@@2HB DD 0400H	; std::numeric_limits<long double>::max_exponent
CONST	ENDS
;	COMDAT ?max_digits10@?$numeric_limits@O@std@@2HB
CONST	SEGMENT
?max_digits10@?$numeric_limits@O@std@@2HB DD 011H	; std::numeric_limits<long double>::max_digits10
CONST	ENDS
;	COMDAT ?digits10@?$numeric_limits@O@std@@2HB
CONST	SEGMENT
?digits10@?$numeric_limits@O@std@@2HB DD 0fH		; std::numeric_limits<long double>::digits10
CONST	ENDS
;	COMDAT ?digits@?$numeric_limits@O@std@@2HB
CONST	SEGMENT
?digits@?$numeric_limits@O@std@@2HB DD 035H		; std::numeric_limits<long double>::digits
CONST	ENDS
;	COMDAT ?min_exponent10@?$numeric_limits@N@std@@2HB
CONST	SEGMENT
?min_exponent10@?$numeric_limits@N@std@@2HB DD 0fffffecdH ; std::numeric_limits<double>::min_exponent10
CONST	ENDS
;	COMDAT ?min_exponent@?$numeric_limits@N@std@@2HB
CONST	SEGMENT
?min_exponent@?$numeric_limits@N@std@@2HB DD 0fffffc03H	; std::numeric_limits<double>::min_exponent
CONST	ENDS
;	COMDAT ?max_exponent10@?$numeric_limits@N@std@@2HB
CONST	SEGMENT
?max_exponent10@?$numeric_limits@N@std@@2HB DD 0134H	; std::numeric_limits<double>::max_exponent10
CONST	ENDS
;	COMDAT ?max_exponent@?$numeric_limits@N@std@@2HB
CONST	SEGMENT
?max_exponent@?$numeric_limits@N@std@@2HB DD 0400H	; std::numeric_limits<double>::max_exponent
CONST	ENDS
;	COMDAT ?max_digits10@?$numeric_limits@N@std@@2HB
CONST	SEGMENT
?max_digits10@?$numeric_limits@N@std@@2HB DD 011H	; std::numeric_limits<double>::max_digits10
CONST	ENDS
;	COMDAT ?digits10@?$numeric_limits@N@std@@2HB
CONST	SEGMENT
?digits10@?$numeric_limits@N@std@@2HB DD 0fH		; std::numeric_limits<double>::digits10
CONST	ENDS
;	COMDAT ?digits@?$numeric_limits@N@std@@2HB
CONST	SEGMENT
?digits@?$numeric_limits@N@std@@2HB DD 035H		; std::numeric_limits<double>::digits
CONST	ENDS
;	COMDAT ?value@?$integral_constant@I$0A@@std@@2IB
CONST	SEGMENT
?value@?$integral_constant@I$0A@@std@@2IB DD 00H	; std::integral_constant<unsigned int,0>::value
CONST	ENDS
;	COMDAT ?min_exponent10@?$numeric_limits@M@std@@2HB
CONST	SEGMENT
?min_exponent10@?$numeric_limits@M@std@@2HB DD 0ffffffdbH ; std::numeric_limits<float>::min_exponent10
CONST	ENDS
;	COMDAT ?min_exponent@?$numeric_limits@M@std@@2HB
CONST	SEGMENT
?min_exponent@?$numeric_limits@M@std@@2HB DD 0ffffff83H	; std::numeric_limits<float>::min_exponent
CONST	ENDS
;	COMDAT ?max_exponent10@?$numeric_limits@M@std@@2HB
CONST	SEGMENT
?max_exponent10@?$numeric_limits@M@std@@2HB DD 026H	; std::numeric_limits<float>::max_exponent10
CONST	ENDS
;	COMDAT ?max_exponent@?$numeric_limits@M@std@@2HB
CONST	SEGMENT
?max_exponent@?$numeric_limits@M@std@@2HB DD 080H	; std::numeric_limits<float>::max_exponent
CONST	ENDS
;	COMDAT ?max_digits10@?$numeric_limits@M@std@@2HB
CONST	SEGMENT
?max_digits10@?$numeric_limits@M@std@@2HB DD 09H	; std::numeric_limits<float>::max_digits10
CONST	ENDS
;	COMDAT ?digits10@?$numeric_limits@M@std@@2HB
CONST	SEGMENT
?digits10@?$numeric_limits@M@std@@2HB DD 06H		; std::numeric_limits<float>::digits10
CONST	ENDS
;	COMDAT ?digits@?$numeric_limits@M@std@@2HB
CONST	SEGMENT
?digits@?$numeric_limits@M@std@@2HB DD 018H		; std::numeric_limits<float>::digits
CONST	ENDS
;	COMDAT ?digits10@?$numeric_limits@_K@std@@2HB
CONST	SEGMENT
?digits10@?$numeric_limits@_K@std@@2HB DD 013H		; std::numeric_limits<unsigned __int64>::digits10
CONST	ENDS
;	COMDAT ?digits@?$numeric_limits@_K@std@@2HB
CONST	SEGMENT
?digits@?$numeric_limits@_K@std@@2HB DD 040H		; std::numeric_limits<unsigned __int64>::digits
CONST	ENDS
;	COMDAT ?is_signed@?$numeric_limits@_K@std@@2_NB
CONST	SEGMENT
?is_signed@?$numeric_limits@_K@std@@2_NB DB 00H		; std::numeric_limits<unsigned __int64>::is_signed
CONST	ENDS
;	COMDAT ?digits10@?$numeric_limits@_J@std@@2HB
CONST	SEGMENT
?digits10@?$numeric_limits@_J@std@@2HB DD 012H		; std::numeric_limits<__int64>::digits10
CONST	ENDS
;	COMDAT ?digits@?$numeric_limits@_J@std@@2HB
CONST	SEGMENT
?digits@?$numeric_limits@_J@std@@2HB DD 03fH		; std::numeric_limits<__int64>::digits
CONST	ENDS
;	COMDAT ?is_signed@?$numeric_limits@_J@std@@2_NB
CONST	SEGMENT
?is_signed@?$numeric_limits@_J@std@@2_NB DB 01H		; std::numeric_limits<__int64>::is_signed
CONST	ENDS
;	COMDAT ?digits10@?$numeric_limits@K@std@@2HB
CONST	SEGMENT
?digits10@?$numeric_limits@K@std@@2HB DD 09H		; std::numeric_limits<unsigned long>::digits10
CONST	ENDS
;	COMDAT ?digits@?$numeric_limits@K@std@@2HB
CONST	SEGMENT
?digits@?$numeric_limits@K@std@@2HB DD 020H		; std::numeric_limits<unsigned long>::digits
CONST	ENDS
;	COMDAT ?is_signed@?$numeric_limits@K@std@@2_NB
CONST	SEGMENT
?is_signed@?$numeric_limits@K@std@@2_NB DB 00H		; std::numeric_limits<unsigned long>::is_signed
CONST	ENDS
;	COMDAT ?digits10@?$numeric_limits@J@std@@2HB
CONST	SEGMENT
?digits10@?$numeric_limits@J@std@@2HB DD 09H		; std::numeric_limits<long>::digits10
CONST	ENDS
;	COMDAT ?digits@?$numeric_limits@J@std@@2HB
CONST	SEGMENT
?digits@?$numeric_limits@J@std@@2HB DD 01fH		; std::numeric_limits<long>::digits
CONST	ENDS
;	COMDAT ?is_signed@?$numeric_limits@J@std@@2_NB
CONST	SEGMENT
?is_signed@?$numeric_limits@J@std@@2_NB DB 01H		; std::numeric_limits<long>::is_signed
CONST	ENDS
;	COMDAT ?digits10@?$numeric_limits@I@std@@2HB
CONST	SEGMENT
?digits10@?$numeric_limits@I@std@@2HB DD 09H		; std::numeric_limits<unsigned int>::digits10
CONST	ENDS
;	COMDAT ?digits@?$numeric_limits@I@std@@2HB
CONST	SEGMENT
?digits@?$numeric_limits@I@std@@2HB DD 020H		; std::numeric_limits<unsigned int>::digits
CONST	ENDS
;	COMDAT ?is_signed@?$numeric_limits@I@std@@2_NB
CONST	SEGMENT
?is_signed@?$numeric_limits@I@std@@2_NB DB 00H		; std::numeric_limits<unsigned int>::is_signed
CONST	ENDS
;	COMDAT ?table_size@?$ctype@D@std@@2IB
CONST	SEGMENT
?table_size@?$ctype@D@std@@2IB DD 0100H			; std::ctype<char>::table_size
CONST	ENDS
;	COMDAT ?digits10@?$numeric_limits@H@std@@2HB
CONST	SEGMENT
?digits10@?$numeric_limits@H@std@@2HB DD 09H		; std::numeric_limits<int>::digits10
CONST	ENDS
;	COMDAT ?digits@?$numeric_limits@H@std@@2HB
CONST	SEGMENT
?digits@?$numeric_limits@H@std@@2HB DD 01fH		; std::numeric_limits<int>::digits
CONST	ENDS
;	COMDAT ?value@?$_Sizeof@HU_Nil@std@@U12@U12@U12@U12@U12@U12@@std@@2IB
CONST	SEGMENT
?value@?$_Sizeof@HU_Nil@std@@U12@U12@U12@U12@U12@U12@@std@@2IB DD 01H ; std::_Sizeof<int,std::_Nil,std::_Nil,std::_Nil,std::_Nil,std::_Nil,std::_Nil,std::_Nil>::value
CONST	ENDS
;	COMDAT ?is_signed@?$numeric_limits@H@std@@2_NB
CONST	SEGMENT
?is_signed@?$numeric_limits@H@std@@2_NB DB 01H		; std::numeric_limits<int>::is_signed
CONST	ENDS
;	COMDAT ?digits10@?$numeric_limits@G@std@@2HB
CONST	SEGMENT
?digits10@?$numeric_limits@G@std@@2HB DD 04H		; std::numeric_limits<unsigned short>::digits10
CONST	ENDS
;	COMDAT ?digits@?$numeric_limits@G@std@@2HB
CONST	SEGMENT
?digits@?$numeric_limits@G@std@@2HB DD 010H		; std::numeric_limits<unsigned short>::digits
CONST	ENDS
;	COMDAT ?is_signed@?$numeric_limits@G@std@@2_NB
CONST	SEGMENT
?is_signed@?$numeric_limits@G@std@@2_NB DB 00H		; std::numeric_limits<unsigned short>::is_signed
CONST	ENDS
;	COMDAT ?digits10@?$numeric_limits@F@std@@2HB
CONST	SEGMENT
?digits10@?$numeric_limits@F@std@@2HB DD 04H		; std::numeric_limits<short>::digits10
CONST	ENDS
;	COMDAT ?digits@?$numeric_limits@F@std@@2HB
CONST	SEGMENT
?digits@?$numeric_limits@F@std@@2HB DD 0fH		; std::numeric_limits<short>::digits
CONST	ENDS
;	COMDAT ?is_signed@?$numeric_limits@F@std@@2_NB
CONST	SEGMENT
?is_signed@?$numeric_limits@F@std@@2_NB DB 01H		; std::numeric_limits<short>::is_signed
CONST	ENDS
;	COMDAT ?none@?$_Locbase@H@std@@2HB
CONST	SEGMENT
?none@?$_Locbase@H@std@@2HB DD 00H			; std::_Locbase<int>::none
CONST	ENDS
;	COMDAT ?all@?$_Locbase@H@std@@2HB
CONST	SEGMENT
?all@?$_Locbase@H@std@@2HB DD 03fH			; std::_Locbase<int>::all
CONST	ENDS
;	COMDAT ?messages@?$_Locbase@H@std@@2HB
CONST	SEGMENT
?messages@?$_Locbase@H@std@@2HB DD 020H			; std::_Locbase<int>::messages
CONST	ENDS
;	COMDAT ?time@?$_Locbase@H@std@@2HB
CONST	SEGMENT
?time@?$_Locbase@H@std@@2HB DD 010H			; std::_Locbase<int>::time
CONST	ENDS
;	COMDAT ?numeric@?$_Locbase@H@std@@2HB
CONST	SEGMENT
?numeric@?$_Locbase@H@std@@2HB DD 08H			; std::_Locbase<int>::numeric
CONST	ENDS
;	COMDAT ?monetary@?$_Locbase@H@std@@2HB
CONST	SEGMENT
?monetary@?$_Locbase@H@std@@2HB DD 04H			; std::_Locbase<int>::monetary
CONST	ENDS
;	COMDAT ?ctype@?$_Locbase@H@std@@2HB
CONST	SEGMENT
?ctype@?$_Locbase@H@std@@2HB DD 02H			; std::_Locbase<int>::ctype
CONST	ENDS
;	COMDAT ?value@?$integral_constant@_N$00@std@@2_NB
CONST	SEGMENT
?value@?$integral_constant@_N$00@std@@2_NB DB 01H	; std::integral_constant<bool,1>::value
CONST	ENDS
;	COMDAT ?collate@?$_Locbase@H@std@@2HB
CONST	SEGMENT
?collate@?$_Locbase@H@std@@2HB DD 01H			; std::_Locbase<int>::collate
CONST	ENDS
;	COMDAT ?digits10@?$numeric_limits@E@std@@2HB
CONST	SEGMENT
?digits10@?$numeric_limits@E@std@@2HB DD 02H		; std::numeric_limits<unsigned char>::digits10
CONST	ENDS
;	COMDAT ?digits@?$numeric_limits@E@std@@2HB
CONST	SEGMENT
?digits@?$numeric_limits@E@std@@2HB DD 08H		; std::numeric_limits<unsigned char>::digits
CONST	ENDS
;	COMDAT ?value@?$integral_constant@_N$0A@@std@@2_NB
CONST	SEGMENT
?value@?$integral_constant@_N$0A@@std@@2_NB DB 00H	; std::integral_constant<bool,0>::value
CONST	ENDS
;	COMDAT ?is_signed@?$numeric_limits@E@std@@2_NB
CONST	SEGMENT
?is_signed@?$numeric_limits@E@std@@2_NB DB 00H		; std::numeric_limits<unsigned char>::is_signed
CONST	ENDS
;	COMDAT ?digits10@?$numeric_limits@C@std@@2HB
CONST	SEGMENT
?digits10@?$numeric_limits@C@std@@2HB DD 02H		; std::numeric_limits<signed char>::digits10
CONST	ENDS
;	COMDAT ?digits@?$numeric_limits@C@std@@2HB
CONST	SEGMENT
?digits@?$numeric_limits@C@std@@2HB DD 07H		; std::numeric_limits<signed char>::digits
CONST	ENDS
;	COMDAT ?is_signed@?$numeric_limits@C@std@@2_NB
CONST	SEGMENT
?is_signed@?$numeric_limits@C@std@@2_NB DB 01H		; std::numeric_limits<signed char>::is_signed
CONST	ENDS
;	COMDAT ?digits10@?$numeric_limits@_N@std@@2HB
CONST	SEGMENT
?digits10@?$numeric_limits@_N@std@@2HB DD 00H		; std::numeric_limits<bool>::digits10
CONST	ENDS
;	COMDAT ?digits@?$numeric_limits@_N@std@@2HB
CONST	SEGMENT
?digits@?$numeric_limits@_N@std@@2HB DD 01H		; std::numeric_limits<bool>::digits
CONST	ENDS
;	COMDAT ?is_signed@?$numeric_limits@_N@std@@2_NB
CONST	SEGMENT
?is_signed@?$numeric_limits@_N@std@@2_NB DB 00H		; std::numeric_limits<bool>::is_signed
CONST	ENDS
;	COMDAT ?is_modulo@?$numeric_limits@_N@std@@2_NB
CONST	SEGMENT
?is_modulo@?$numeric_limits@_N@std@@2_NB DB 00H		; std::numeric_limits<bool>::is_modulo
CONST	ENDS
CONST	SEGMENT
_NEAR_CLIP DD	03f800000r			; 1
_L_2	DD	03f317218r			; 0.693147
CONST	ENDS
;	COMDAT ?digits10@?$numeric_limits@_W@std@@2HB
CONST	SEGMENT
?digits10@?$numeric_limits@_W@std@@2HB DD 04H		; std::numeric_limits<wchar_t>::digits10
CONST	ENDS
;	COMDAT ?digits@?$numeric_limits@_W@std@@2HB
CONST	SEGMENT
?digits@?$numeric_limits@_W@std@@2HB DD 010H		; std::numeric_limits<wchar_t>::digits
CONST	ENDS
;	COMDAT ?is_signed@?$numeric_limits@_W@std@@2_NB
CONST	SEGMENT
?is_signed@?$numeric_limits@_W@std@@2_NB DB 00H		; std::numeric_limits<wchar_t>::is_signed
CONST	ENDS
_DATA	SEGMENT
_cloudPntList DD 0c5bcc000r			; -6040
	DD	0c4070000r			; -540
	DD	0c694ac00r			; -19030
	DD	0c6de1c00r			; -28430
	DD	0c4dfc000r			; -1790
	DD	046dcc800r			; 28260
	DD	047104200r			; 36930
	DD	045732000r			; 3890
	DD	04744ea00r			; 50410
	DD	045336000r			; 2870
	DD	0c4d48000r			; -1700
	DD	04736da00r			; 46810
	DD	0c763ee00r			; -58350
	DD	0c4d48000r			; -1700
	DD	0c64c1000r			; -13060
	DD	046f2bc00r			; 31070
	DD	045480000r			; 3200
	DD	0c7293800r			; -43320
	DD	0c7bdc400r			; -97160
	DD	0c4d48000r			; -1700
	DD	04576e000r			; 3950
	DD	0c792e000r			; -75200
	DD	0c4bb8000r			; -1500
	DD	047957400r			; 76520
	DD	04759ee00r			; 55790
	DD	0c5a1e000r			; -5180
	DD	0c7a24e00r			; -83100
	DD	0c7473800r			; -51000
	DD	0c3a00000r			; -320
	DD	0c7829100r			; -66850
	DD	047733400r			; 62260
	DD	0c3a00000r			; -320
	DD	047708200r			; 61570
	DD	0c7710e00r			; -61710
	DD	0c550c000r			; -3340
	DD	046fb7c00r			; 32190
	DD	0c7719a00r			; -61850
	DD	0c7483200r			; -51250
	DD	047543a00r			; 54330
	DD	0c5bcc000r			; -6040
	DD	0c7495400r			; -51540
	DD	0c694ac00r			; -19030
	DD	0c6a7a800r			; -21460
	DD	0c74b0200r			; -51970
	DD	0468e8000r			; 18240
	DD	047298800r			; 43400
	DD	0c74bf200r			; -52210
	DD	046bc7000r			; 24120
	DD	0c749f400r			; -51700
	DD	0c74bc000r			; -52160
	DD	046948400r			; 19010
	DD	0c605e800r			; -8570
	DD	0c7488200r			; -51330
	DD	0c74ca600r			; -52390
	DD	04731bc00r			; 45500
	DD	0c7509800r			; -53400
	DD	0c6725800r			; -15510
	DD	0c7719a00r			; -61850
	DD	0c7483200r			; -51250
	DD	047543a00r			; 54330
	DD	047553400r			; 54580
	DD	0c74ddc00r			; -52700
	DD	0479a5600r			; 79020
	DD	047a7e400r			; 85960
	DD	0c74c5600r			; -52310
	DD	0477d4800r			; 64840
	DD	0c7c44500r			; -100490
	DD	0c74d1400r			; -52500
	DD	047ac2600r			; 88140
	DD	0c7a1ae00r			; -82780
	DD	0c749ea00r			; -51690
	DD	0c7bce300r			; -96710
	DD	0c6126800r			; -9370
	DD	0c7495400r			; -51540
	DD	043cd0000r			; 410
	DD	0c6a7a800r			; -21460
	DD	0c74a8a00r			; -51850
	DD	0473fae00r			; 49070
	DD	0457c8000r			; 4040
	DD	0c74e4a00r			; -52810
	DD	047871e00r			; 69180
	DD	0c6cbc000r			; -26080
	DD	0c74bc000r			; -52160
	DD	046984400r			; 19490
	DD	0452fa000r			; 2810
	DD	0c7488200r			; -51330
	DD	0c7081800r			; -34840
	DD	0c7719a00r			; -61850
	DD	0c749d600r			; -51670
	DD	047b17600r			; 90860
	DD	047553400r			; 54580
	DD	0c74ddc00r			; -52700
	DD	0479a5600r			; 79020
	DD	047a7e400r			; 85960
	DD	0c74c5600r			; -52310
	DD	0477d4800r			; 64840
	DD	0c7c44500r			; -100490
	DD	0c74d1400r			; -52500
	DD	047ac2600r			; 88140
	DD	047c04e00r			; 98460
	DD	0c74d1400r			; -52500
	DD	0c732a200r			; -45730
	DD	0467b9000r			; 16100
	DD	0c7487800r			; -51320
	DD	0c749a400r			; -51620
	DD	047636c00r			; 58220
	DD	0c74e0400r			; -52740
	DD	0c760b000r			; -57520
	DD	0c6126800r			; -9370
	DD	0c4070000r			; -540
	DD	043cd0000r			; 410
	DD	0c4e60000r			; -1840
	DD	0c6a30c00r			; -20870
	DD	0470a6600r			; 35430
	DD	0c7230c00r			; -41740
	DD	046924000r			; 18720
	DD	04797d600r			; 77740
	DD	0460d9000r			; 9060
	DD	0c616c800r			; -9650
	DD	0c7921300r			; -74790
_lightningPosList DD 041300000r			; 11
	DD	000000000r			; 0
	DD	040e00000r			; 7
	DD	040a00000r			; 5
	DD	041100000r			; 9
	DD	041000000r			; 8
	DD	041000000r			; 8
	DD	041600000r			; 14
	DD	041800000r			; 16
	DD	041a00000r			; 20
	DD	041200000r			; 10
	DD	041c00000r			; 24
	DD	041300000r			; 11
	DD	041d80000r			; 27
	DD	040c00000r			; 6
	DD	041f00000r			; 30
	DD	040e00000r			; 7
	DD	042040000r			; 33
	DD	03f800000r			; 1
	DD	042180000r			; 38
	DD	040a00000r			; 5
	DD	042280000r			; 42
	DD	040a00000r			; 5
	DD	042340000r			; 45
	DD	041400000r			; 12
	DD	042400000r			; 48
	DD	041a00000r			; 20
	DD	042500000r			; 52
	DD	041a00000r			; 20
	DD	042680000r			; 58
	DD	041b80000r			; 23
	DD	042740000r			; 61
	DD	041b00000r			; 22
	DD	0427c0000r			; 63
	DD	041b00000r			; 22
	DD	042840000r			; 66
	DD	041c80000r			; 25
	DD	042880000r			; 68
	DD	041a00000r			; 20
	DD	0428c0000r			; 70
	DD	041c00000r			; 24
	DD	042960000r			; 75
	DD	041c00000r			; 24
	DD	0429a0000r			; 77
	DD	041f80000r			; 31
	DD	042a00000r			; 80
	DD	041f80000r			; 31
	DD	042a60000r			; 83
	DD	042040000r			; 33
	DD	042b00000r			; 88
	DD	041f80000r			; 31
	DD	042b80000r			; 92
	DD	0423c0000r			; 47
	DD	042ce0000r			; 103
	DD	042380000r			; 46
	DD	042d20000r			; 105
	DD	0423c0000r			; 47
	DD	042d60000r			; 107
	DD	042340000r			; 45
	DD	042e00000r			; 112
	DD	042400000r			; 48
	DD	042e40000r			; 114
	DD	042380000r			; 46
	DD	042ea0000r			; 117
	DD	0422c0000r			; 43
	DD	043000000r			; 128
_matrix33_ident DD 03f800000r			; 1
	DD	000000000r			; 0
	DD	000000000r			; 0
	DD	000000000r			; 0
	DD	03f800000r			; 1
	DD	000000000r			; 0
	DD	000000000r			; 0
	DD	000000000r			; 0
	DD	03f800000r			; 1
?gSpeedyGonzales@@3MA DD 03f800000r		; 1	; gSpeedyGonzales
?GROUND_TOLERANCE@@3MA DD 03dcccccdr		; 0.1	; GROUND_TOLERANCE
?ANG_RATE@@3MA DD 040400000r			; 3	; ANG_RATE
_matrix44_ident DD 03f800000r			; 1
	DD	000000000r			; 0
	DD	000000000r			; 0
	DD	000000000r			; 0
	DD	000000000r			; 0
	DD	03f800000r			; 1
	DD	000000000r			; 0
	DD	000000000r			; 0
	DD	000000000r			; 0
	DD	000000000r			; 0
	DD	03f800000r			; 1
	DD	000000000r			; 0
	DD	000000000r			; 0
	DD	000000000r			; 0
	DD	000000000r			; 0
	DD	03f800000r			; 1
_DATA	ENDS
;	COMDAT ?digits10@?$numeric_limits@D@std@@2HB
CONST	SEGMENT
?digits10@?$numeric_limits@D@std@@2HB DD 02H		; std::numeric_limits<char>::digits10
CONST	ENDS
;	COMDAT ?digits@?$numeric_limits@D@std@@2HB
CONST	SEGMENT
?digits@?$numeric_limits@D@std@@2HB DD 07H		; std::numeric_limits<char>::digits
CONST	ENDS
;	COMDAT ?is_signed@?$numeric_limits@D@std@@2_NB
CONST	SEGMENT
?is_signed@?$numeric_limits@D@std@@2_NB DB 01H		; std::numeric_limits<char>::is_signed
CONST	ENDS
;	COMDAT ?radix@_Num_float_base@std@@2HB
CONST	SEGMENT
?radix@_Num_float_base@std@@2HB DD 02H			; std::_Num_float_base::radix
CONST	ENDS
;	COMDAT ?round_style@_Num_float_base@std@@2W4float_round_style@2@B
CONST	SEGMENT
?round_style@_Num_float_base@std@@2W4float_round_style@2@B DD 01H ; std::_Num_float_base::round_style
CONST	ENDS
;	COMDAT ?traps@_Num_float_base@std@@2_NB
CONST	SEGMENT
?traps@_Num_float_base@std@@2_NB DB 00H			; std::_Num_float_base::traps
CONST	ENDS
;	COMDAT ?tinyness_before@_Num_float_base@std@@2_NB
CONST	SEGMENT
?tinyness_before@_Num_float_base@std@@2_NB DB 01H	; std::_Num_float_base::tinyness_before
CONST	ENDS
;	COMDAT ?is_specialized@_Num_float_base@std@@2_NB
CONST	SEGMENT
?is_specialized@_Num_float_base@std@@2_NB DB 01H	; std::_Num_float_base::is_specialized
CONST	ENDS
;	COMDAT ?is_signed@_Num_float_base@std@@2_NB
CONST	SEGMENT
?is_signed@_Num_float_base@std@@2_NB DB 01H		; std::_Num_float_base::is_signed
CONST	ENDS
;	COMDAT ?is_modulo@_Num_float_base@std@@2_NB
CONST	SEGMENT
?is_modulo@_Num_float_base@std@@2_NB DB 00H		; std::_Num_float_base::is_modulo
CONST	ENDS
;	COMDAT ?is_integer@_Num_float_base@std@@2_NB
CONST	SEGMENT
?is_integer@_Num_float_base@std@@2_NB DB 00H		; std::_Num_float_base::is_integer
CONST	ENDS
;	COMDAT ?is_iec559@_Num_float_base@std@@2_NB
CONST	SEGMENT
?is_iec559@_Num_float_base@std@@2_NB DB 01H		; std::_Num_float_base::is_iec559
CONST	ENDS
;	COMDAT ?is_exact@_Num_float_base@std@@2_NB
CONST	SEGMENT
?is_exact@_Num_float_base@std@@2_NB DB 00H		; std::_Num_float_base::is_exact
CONST	ENDS
;	COMDAT ?is_bounded@_Num_float_base@std@@2_NB
CONST	SEGMENT
?is_bounded@_Num_float_base@std@@2_NB DB 01H		; std::_Num_float_base::is_bounded
CONST	ENDS
;	COMDAT ?has_signaling_NaN@_Num_float_base@std@@2_NB
CONST	SEGMENT
?has_signaling_NaN@_Num_float_base@std@@2_NB DB 01H	; std::_Num_float_base::has_signaling_NaN
CONST	ENDS
;	COMDAT ?has_quiet_NaN@_Num_float_base@std@@2_NB
CONST	SEGMENT
?has_quiet_NaN@_Num_float_base@std@@2_NB DB 01H		; std::_Num_float_base::has_quiet_NaN
CONST	ENDS
;	COMDAT ?has_infinity@_Num_float_base@std@@2_NB
CONST	SEGMENT
?has_infinity@_Num_float_base@std@@2_NB DB 01H		; std::_Num_float_base::has_infinity
CONST	ENDS
;	COMDAT ?CMPDIRTYDATA_INTERVAL@FalconEntity@@2KB
CONST	SEGMENT
?CMPDIRTYDATA_INTERVAL@FalconEntity@@2KB DD 0c8H	; FalconEntity::CMPDIRTYDATA_INTERVAL
CONST	ENDS
;	COMDAT ?SIMDIRTYDATA_INTERVAL@FalconEntity@@2KB
CONST	SEGMENT
?SIMDIRTYDATA_INTERVAL@FalconEntity@@2KB DD 0c8H	; FalconEntity::SIMDIRTYDATA_INTERVAL
CONST	ENDS
;	COMDAT ?has_denorm_loss@_Num_float_base@std@@2_NB
CONST	SEGMENT
?has_denorm_loss@_Num_float_base@std@@2_NB DB 01H	; std::_Num_float_base::has_denorm_loss
CONST	ENDS
;	COMDAT ?has_denorm@_Num_float_base@std@@2W4float_denorm_style@2@B
CONST	SEGMENT
?has_denorm@_Num_float_base@std@@2W4float_denorm_style@2@B DD 01H ; std::_Num_float_base::has_denorm
CONST	ENDS
;	COMDAT ?radix@_Num_int_base@std@@2HB
CONST	SEGMENT
?radix@_Num_int_base@std@@2HB DD 02H			; std::_Num_int_base::radix
CONST	ENDS
;	COMDAT ?is_specialized@_Num_int_base@std@@2_NB
CONST	SEGMENT
?is_specialized@_Num_int_base@std@@2_NB DB 01H		; std::_Num_int_base::is_specialized
CONST	ENDS
;	COMDAT ?is_modulo@_Num_int_base@std@@2_NB
CONST	SEGMENT
?is_modulo@_Num_int_base@std@@2_NB DB 01H		; std::_Num_int_base::is_modulo
CONST	ENDS
;	COMDAT ?is_integer@_Num_int_base@std@@2_NB
CONST	SEGMENT
?is_integer@_Num_int_base@std@@2_NB DB 01H		; std::_Num_int_base::is_integer
CONST	ENDS
;	COMDAT ?is_exact@_Num_int_base@std@@2_NB
CONST	SEGMENT
?is_exact@_Num_int_base@std@@2_NB DB 01H		; std::_Num_int_base::is_exact
CONST	ENDS
;	COMDAT ?is_bounded@_Num_int_base@std@@2_NB
CONST	SEGMENT
?is_bounded@_Num_int_base@std@@2_NB DB 01H		; std::_Num_int_base::is_bounded
CONST	ENDS
;	COMDAT ?radix@_Num_base@std@@2HB
CONST	SEGMENT
?radix@_Num_base@std@@2HB DD 00H			; std::_Num_base::radix
CONST	ENDS
;	COMDAT ?min_exponent10@_Num_base@std@@2HB
CONST	SEGMENT
?min_exponent10@_Num_base@std@@2HB DD 00H		; std::_Num_base::min_exponent10
CONST	ENDS
;	COMDAT ?_Stream_err@failure@ios_base@std@@0W4io_errc@43@B
CONST	SEGMENT
?_Stream_err@failure@ios_base@std@@0W4io_errc@43@B DD 01H ; std::ios_base::failure::_Stream_err
CONST	ENDS
;	COMDAT ?min_exponent@_Num_base@std@@2HB
CONST	SEGMENT
?min_exponent@_Num_base@std@@2HB DD 00H			; std::_Num_base::min_exponent
CONST	ENDS
;	COMDAT ?max_exponent10@_Num_base@std@@2HB
CONST	SEGMENT
?max_exponent10@_Num_base@std@@2HB DD 00H		; std::_Num_base::max_exponent10
CONST	ENDS
;	COMDAT ?max_exponent@_Num_base@std@@2HB
CONST	SEGMENT
?max_exponent@_Num_base@std@@2HB DD 00H			; std::_Num_base::max_exponent
CONST	ENDS
;	COMDAT ?max_digits10@_Num_base@std@@2HB
CONST	SEGMENT
?max_digits10@_Num_base@std@@2HB DD 00H			; std::_Num_base::max_digits10
CONST	ENDS
;	COMDAT ?digits10@_Num_base@std@@2HB
CONST	SEGMENT
?digits10@_Num_base@std@@2HB DD 00H			; std::_Num_base::digits10
CONST	ENDS
;	COMDAT ?digits@_Num_base@std@@2HB
CONST	SEGMENT
?digits@_Num_base@std@@2HB DD 00H			; std::_Num_base::digits
CONST	ENDS
;	COMDAT ?round_style@_Num_base@std@@2W4float_round_style@2@B
CONST	SEGMENT
?round_style@_Num_base@std@@2W4float_round_style@2@B DD 00H ; std::_Num_base::round_style
CONST	ENDS
;	COMDAT ?traps@_Num_base@std@@2_NB
CONST	SEGMENT
?traps@_Num_base@std@@2_NB DB 00H			; std::_Num_base::traps
CONST	ENDS
PUBLIC	_fabsf
PUBLIC	_atanf
PUBLIC	_sinf
PUBLIC	?atan@@YAMM@Z					; atan
PUBLIC	?fabs@@YAMM@Z					; fabs
PUBLIC	?sin@@YAMM@Z					; sin
PUBLIC	?Id@VuEntity@@QBE?AVVU_ID@@XZ			; VuEntity::Id
PUBLIC	?XDelta@VuEntity@@QBEMXZ			; VuEntity::XDelta
PUBLIC	?YDelta@VuEntity@@QBEMXZ			; VuEntity::YDelta
PUBLIC	?ZDelta@VuEntity@@QBEMXZ			; VuEntity::ZDelta
PUBLIC	?Pitch@VuEntity@@QBEMXZ				; VuEntity::Pitch
PUBLIC	?EntityType@VuEntity@@QBEPAUVuEntityType@@XZ	; VuEntity::EntityType
PUBLIC	??2@YAPAXIPAX@Z					; operator new
PUBLIC	??3@YAXPAX0@Z					; operator delete
PUBLIC	?length@?$char_traits@D@std@@SAIPBD@Z		; std::char_traits<char>::length
PUBLIC	?copy@?$char_traits@D@std@@SAPADPADPBDI@Z	; std::char_traits<char>::copy
PUBLIC	?move@?$char_traits@D@std@@SAPADPADPBDI@Z	; std::char_traits<char>::move
PUBLIC	?assign@?$char_traits@D@std@@SAXAADABD@Z	; std::char_traits<char>::assign
PUBLIC	??0?$allocator@D@std@@QAE@XZ			; std::allocator<char>::allocator<char>
PUBLIC	?deallocate@?$allocator@D@std@@QAEXPADI@Z	; std::allocator<char>::deallocate
PUBLIC	?allocate@?$allocator@D@std@@QAEPADI@Z		; std::allocator<char>::allocate
PUBLIC	?max_size@?$allocator@D@std@@QBEIXZ		; std::allocator<char>::max_size
PUBLIC	?max_size@?$allocator_traits@V?$allocator@D@std@@@std@@SAIABV?$allocator@D@2@@Z ; std::allocator_traits<std::allocator<char> >::max_size
PUBLIC	??0?$_Wrap_alloc@V?$allocator@D@std@@@std@@QAE@XZ ; std::_Wrap_alloc<std::allocator<char> >::_Wrap_alloc<std::allocator<char> >
PUBLIC	?allocate@?$_Wrap_alloc@V?$allocator@D@std@@@std@@QAEPADI@Z ; std::_Wrap_alloc<std::allocator<char> >::allocate
PUBLIC	?deallocate@?$_Wrap_alloc@V?$allocator@D@std@@@std@@QAEXPADI@Z ; std::_Wrap_alloc<std::allocator<char> >::deallocate
PUBLIC	?max_size@?$_Wrap_alloc@V?$allocator@D@std@@@std@@QBEIXZ ; std::_Wrap_alloc<std::allocator<char> >::max_size
PUBLIC	??0?$_String_val@U?$_Simple_types@D@std@@@std@@QAE@XZ ; std::_String_val<std::_Simple_types<char> >::_String_val<std::_Simple_types<char> >
PUBLIC	?_Myptr@?$_String_val@U?$_Simple_types@D@std@@@std@@QAEPADXZ ; std::_String_val<std::_Simple_types<char> >::_Myptr
PUBLIC	?_Myptr@?$_String_val@U?$_Simple_types@D@std@@@std@@QBEPBDXZ ; std::_String_val<std::_Simple_types<char> >::_Myptr
PUBLIC	??0?$_String_alloc@$0A@U?$_String_base_types@DV?$allocator@D@std@@@std@@@std@@QAE@ABV?$allocator@D@1@@Z ; std::_String_alloc<0,std::_String_base_types<char,std::allocator<char> > >::_String_alloc<0,std::_String_base_types<char,std::allocator<char> > >
PUBLIC	?_Getal@?$_String_alloc@$0A@U?$_String_base_types@DV?$allocator@D@std@@@std@@@std@@QBE?AU?$_Wrap_alloc@V?$allocator@D@std@@@2@XZ ; std::_String_alloc<0,std::_String_base_types<char,std::allocator<char> > >::_Getal
PUBLIC	??0?$basic_string@DU?$char_traits@D@std@@V?$allocator@D@2@@std@@QAE@PBD@Z ; std::basic_string<char,std::char_traits<char>,std::allocator<char> >::basic_string<char,std::char_traits<char>,std::allocator<char> >
PUBLIC	?assign@?$basic_string@DU?$char_traits@D@std@@V?$allocator@D@2@@std@@QAEAAV12@ABV12@II@Z ; std::basic_string<char,std::char_traits<char>,std::allocator<char> >::assign
PUBLIC	?assign@?$basic_string@DU?$char_traits@D@std@@V?$allocator@D@2@@std@@QAEAAV12@PBDI@Z ; std::basic_string<char,std::char_traits<char>,std::allocator<char> >::assign
PUBLIC	?assign@?$basic_string@DU?$char_traits@D@std@@V?$allocator@D@2@@std@@QAEAAV12@PBD@Z ; std::basic_string<char,std::char_traits<char>,std::allocator<char> >::assign
PUBLIC	?erase@?$basic_string@DU?$char_traits@D@std@@V?$allocator@D@2@@std@@QAEAAV12@I@Z ; std::basic_string<char,std::char_traits<char>,std::allocator<char> >::erase
PUBLIC	?erase@?$basic_string@DU?$char_traits@D@std@@V?$allocator@D@2@@std@@QAEAAV12@II@Z ; std::basic_string<char,std::char_traits<char>,std::allocator<char> >::erase
PUBLIC	?size@?$basic_string@DU?$char_traits@D@std@@V?$allocator@D@2@@std@@QBEIXZ ; std::basic_string<char,std::char_traits<char>,std::allocator<char> >::size
PUBLIC	?max_size@?$basic_string@DU?$char_traits@D@std@@V?$allocator@D@2@@std@@QBEIXZ ; std::basic_string<char,std::char_traits<char>,std::allocator<char> >::max_size
PUBLIC	?_Copy@?$basic_string@DU?$char_traits@D@std@@V?$allocator@D@2@@std@@QAEXII@Z ; std::basic_string<char,std::char_traits<char>,std::allocator<char> >::_Copy
PUBLIC	?_Eos@?$basic_string@DU?$char_traits@D@std@@V?$allocator@D@2@@std@@QAEXI@Z ; std::basic_string<char,std::char_traits<char>,std::allocator<char> >::_Eos
PUBLIC	?_Grow@?$basic_string@DU?$char_traits@D@std@@V?$allocator@D@2@@std@@QAE_NI_N@Z ; std::basic_string<char,std::char_traits<char>,std::allocator<char> >::_Grow
PUBLIC	?_Inside@?$basic_string@DU?$char_traits@D@std@@V?$allocator@D@2@@std@@QAE_NPBD@Z ; std::basic_string<char,std::char_traits<char>,std::allocator<char> >::_Inside
PUBLIC	?_Tidy@?$basic_string@DU?$char_traits@D@std@@V?$allocator@D@2@@std@@QAEX_NI@Z ; std::basic_string<char,std::char_traits<char>,std::allocator<char> >::_Tidy
PUBLIC	?_Xlen@?$basic_string@DU?$char_traits@D@std@@V?$allocator@D@2@@std@@QBEXXZ ; std::basic_string<char,std::char_traits<char>,std::allocator<char> >::_Xlen
PUBLIC	?_Xran@?$basic_string@DU?$char_traits@D@std@@V?$allocator@D@2@@std@@QBEXXZ ; std::basic_string<char,std::char_traits<char>,std::allocator<char> >::_Xran
PUBLIC	??B?$VuBin@VVuSessionEntity@@@@QBE_NXZ		; VuBin<VuSessionEntity>::operator bool
PUBLIC	?get@?$VuBin@VVuSessionEntity@@@@QBEPAVVuSessionEntity@@XZ ; VuBin<VuSessionEntity>::get
PUBLIC	?IsSetFalcFlag@FalconEntity@@QAEHH@Z		; FalconEntity::IsSetFalcFlag
PUBLIC	?IsPlayer@FalconEntity@@QAEHXZ			; FalconEntity::IsPlayer
PUBLIC	?mlSinCos@@YAXPAUmlTrig@@M@Z			; mlSinCos
PUBLIC	?checked_atan2@@YANNN@Z				; checked_atan2
PUBLIC	?CalcBodyRates@AirframeClass@@AAEXM@Z		; AirframeClass::CalcBodyRates
PUBLIC	?EquationsOfMotion@AirframeClass@@AAEXM@Z	; AirframeClass::EquationsOfMotion
PUBLIC	?ResetIntegrators@AirframeClass@@AAEXXZ		; AirframeClass::ResetIntegrators
PUBLIC	?CalculateVt@AirframeClass@@AAEMM@Z		; AirframeClass::CalculateVt
PUBLIC	?SetGroundPosition@AirframeClass@@AAEXMMMM@Z	; AirframeClass::SetGroundPosition
PUBLIC	?CalculateGroundPlane@AirframeClass@@ABEXPAM0@Z	; AirframeClass::CalculateGroundPlane
PUBLIC	?CalcGroundTurnRate@AirframeClass@@AAEXM@Z	; AirframeClass::CalcGroundTurnRate
PUBLIC	?ResetOrientation@AirframeClass@@QAEXXZ		; AirframeClass::ResetOrientation
PUBLIC	?CalcBodyOrientation@AirframeClass@@QAEXM@Z	; AirframeClass::CalcBodyOrientation
PUBLIC	?CheckHeight@AirframeClass@@QBEMXZ		; AirframeClass::CheckHeight
PUBLIC	?CheckGroundImpact@AirframeClass@@QAEXM@Z	; AirframeClass::CheckGroundImpact
PUBLIC	?CalcMuFric@AirframeClass@@QAEMH@Z		; AirframeClass::CalcMuFric
PUBLIC	?NumGear@AirframeClass@@QBEHXZ			; AirframeClass::NumGear
PUBLIC	?GetAeroData@AirframeClass@@QBEMH@Z		; AirframeClass::GetAeroData
PUBLIC	?DragBodypart@AirframeClass@@QAEXXZ		; AirframeClass::DragBodypart
PUBLIC	?SetFlag@AirframeClass@@QAEXH@Z			; AirframeClass::SetFlag
PUBLIC	?ClearFlag@AirframeClass@@QAEXH@Z		; AirframeClass::ClearFlag
PUBLIC	?IsSet@AirframeClass@@QBEHH@Z			; AirframeClass::IsSet
PUBLIC	?get@?$VuBin@VCampBaseClass@@@@QBEPAVCampBaseClass@@XZ ; VuBin<CampBaseClass>::get
PUBLIC	?IsSetFlag@SimBaseClass@@QBEHH@Z		; SimBaseClass::IsSetFlag
PUBLIC	?GetCampaignObject@SimBaseClass@@QAEPAVCampBaseClass@@XZ ; SimBaseClass::GetCampaignObject
PUBLIC	?MaxStrength@SimBaseClass@@QAEMXZ		; SimBaseClass::MaxStrength
PUBLIC	?SetDOF@SimMoverClass@@QAEXHM@Z			; SimMoverClass::SetDOF
PUBLIC	?GetDOFValue@SimMoverClass@@QAEMH@Z		; SimMoverClass::GetDOFValue
PUBLIC	?AutopilotType@AircraftClass@@QAE?AW4AutoPilotType@1@XZ ; AircraftClass::AutopilotType
PUBLIC	?IsComplex@AircraftClass@@QAEHXZ		; AircraftClass::IsComplex
PUBLIC	?DBrain@AircraftClass@@QAEPAVDigitalBrain@@XZ	; AircraftClass::DBrain
PUBLIC	?SetStaticTurbulence@AircraftClass@@QAEXMMM@Z	; AircraftClass::SetStaticTurbulence
PUBLIC	??0id@locale@std@@QAE@I@Z			; std::locale::id::id
PUBLIC	?generic_category@std@@YAABVerror_category@1@XZ	; std::generic_category
PUBLIC	?system_category@std@@YAABVerror_category@1@XZ	; std::system_category
PUBLIC	??0error_category@std@@QAE@XZ			; std::error_category::error_category
PUBLIC	??1error_category@std@@UAE@XZ			; std::error_category::~error_category
PUBLIC	?default_error_condition@error_category@std@@UBE?AVerror_condition@2@H@Z ; std::error_category::default_error_condition
PUBLIC	?equivalent@error_category@std@@UBE_NHABVerror_condition@2@@Z ; std::error_category::equivalent
PUBLIC	?equivalent@error_category@std@@UBE_NABVerror_code@2@H@Z ; std::error_category::equivalent
PUBLIC	??8error_category@std@@QBE_NABV01@@Z		; std::error_category::operator==
PUBLIC	??_Gerror_category@std@@UAEPAXI@Z		; std::error_category::`scalar deleting destructor'
PUBLIC	?value@error_code@std@@QBEHXZ			; std::error_code::value
PUBLIC	?category@error_code@std@@QBEABVerror_category@2@XZ ; std::error_code::category
PUBLIC	??0error_condition@std@@QAE@HABVerror_category@1@@Z ; std::error_condition::error_condition
PUBLIC	?value@error_condition@std@@QBEHXZ		; std::error_condition::value
PUBLIC	?category@error_condition@std@@QBEABVerror_category@2@XZ ; std::error_condition::category
PUBLIC	??8error_condition@std@@QBE_NABV01@@Z		; std::error_condition::operator==
PUBLIC	??0_Generic_error_category@std@@QAE@XZ		; std::_Generic_error_category::_Generic_error_category
PUBLIC	?name@_Generic_error_category@std@@UBEPBDXZ	; std::_Generic_error_category::name
PUBLIC	?message@_Generic_error_category@std@@UBE?AV?$basic_string@DU?$char_traits@D@std@@V?$allocator@D@2@@2@H@Z ; std::_Generic_error_category::message
PUBLIC	??1_Generic_error_category@std@@UAE@XZ		; std::_Generic_error_category::~_Generic_error_category
PUBLIC	??_G_Generic_error_category@std@@UAEPAXI@Z	; std::_Generic_error_category::`scalar deleting destructor'
PUBLIC	??0_Iostream_error_category@std@@QAE@XZ		; std::_Iostream_error_category::_Iostream_error_category
PUBLIC	?name@_Iostream_error_category@std@@UBEPBDXZ	; std::_Iostream_error_category::name
PUBLIC	?message@_Iostream_error_category@std@@UBE?AV?$basic_string@DU?$char_traits@D@std@@V?$allocator@D@2@@2@H@Z ; std::_Iostream_error_category::message
PUBLIC	??1_Iostream_error_category@std@@UAE@XZ		; std::_Iostream_error_category::~_Iostream_error_category
PUBLIC	??_G_Iostream_error_category@std@@UAEPAXI@Z	; std::_Iostream_error_category::`scalar deleting destructor'
PUBLIC	??0_System_error_category@std@@QAE@XZ		; std::_System_error_category::_System_error_category
PUBLIC	?name@_System_error_category@std@@UBEPBDXZ	; std::_System_error_category::name
PUBLIC	?message@_System_error_category@std@@UBE?AV?$basic_string@DU?$char_traits@D@std@@V?$allocator@D@2@@2@H@Z ; std::_System_error_category::message
PUBLIC	?default_error_condition@_System_error_category@std@@UBE?AVerror_condition@2@H@Z ; std::_System_error_category::default_error_condition
PUBLIC	??1_System_error_category@std@@UAE@XZ		; std::_System_error_category::~_System_error_category
PUBLIC	??_G_System_error_category@std@@UAEPAXI@Z	; std::_System_error_category::`scalar deleting destructor'
PUBLIC	?GenerateFastRandom@@YAJXZ			; GenerateFastRandom
PUBLIC	?PRANDFloat@@YAMXZ				; PRANDFloat
PUBLIC	?PRANDFloatPos@@YAMXZ				; PRANDFloatPos
PUBLIC	?Radius@DrawableObject@@QBEMXZ			; DrawableObject::Radius
PUBLIC	?AddTakeOff@FackClass@@QAEXK@Z			; FackClass::AddTakeOff
PUBLIC	?AddLanding@FackClass@@QAEXK@Z			; FackClass::AddLanding
PUBLIC	?GetGame@FalconSessionEntity@@QAEPAVFalconGameEntity@@XZ ; FalconSessionEntity::GetGame
PUBLIC	?InPackage@CampBaseClass@@QAEHXZ		; CampBaseClass::InPackage
PUBLIC	?GetType@CampBaseClass@@QBEEXZ			; CampBaseClass::GetType
PUBLIC	?AnalogIsUsed@SIMLIB_IO_CLASS@@QAE_NW4GameAxis_t@@@Z ; SIMLIB_IO_CLASS::AnalogIsUsed
PUBLIC	?GetPlayerEntity@SimulationDriver@@QBEPAVSimMoverClass@@XZ ; SimulationDriver::GetPlayerEntity
PUBLIC	?SetATCFlag@DigitalBrain@@QAEXH@Z		; DigitalBrain::SetATCFlag
PUBLIC	?IsSetATC@DigitalBrain@@QAEHH@Z			; DigitalBrain::IsSetATC
PUBLIC	?SetATCStatus@DigitalBrain@@QAEXW4AtcStatusEnum@@@Z ; DigitalBrain::SetATCStatus
PUBLIC	?ATCStatus@DigitalBrain@@QAE?AW4AtcStatusEnum@@XZ ; DigitalBrain::ATCStatus
PUBLIC	?SetWaitTimer@DigitalBrain@@QAEXK@Z		; DigitalBrain::SetWaitTimer
PUBLIC	?WaitTime@DigitalBrain@@QAEKXZ			; DigitalBrain::WaitTime
PUBLIC	??$construct@PADAAPAD@?$_Wrap_alloc@V?$allocator@D@std@@@std@@QAEXPAPADAAPAD@Z ; std::_Wrap_alloc<std::allocator<char> >::construct<char *,char * &>
PUBLIC	??$destroy@PAD@?$_Wrap_alloc@V?$allocator@D@std@@@std@@QAEXPAPAD@Z ; std::_Wrap_alloc<std::allocator<char> >::destroy<char *>
PUBLIC	??$addressof@D@std@@YAPADAAD@Z			; std::addressof<char>
PUBLIC	??$_Allocate@D@std@@YAPADIPAD@Z			; std::_Allocate<char>
PUBLIC	??$forward@AAPAD@std@@YAAAPADAAPAD@Z		; std::forward<char * &>
PUBLIC	??$construct@PADAAPAD@?$allocator_traits@V?$allocator@D@std@@@std@@SAXAAV?$allocator@D@1@PAPADAAPAD@Z ; std::allocator_traits<std::allocator<char> >::construct<char *,char * &>
PUBLIC	??$destroy@PAD@?$allocator_traits@V?$allocator@D@std@@@std@@SAXAAV?$allocator@D@1@PAPAD@Z ; std::allocator_traits<std::allocator<char> >::destroy<char *>
PUBLIC	??$construct@PADAAPAD@?$allocator@D@std@@QAEXPAPADAAPAD@Z ; std::allocator<char>::construct<char *,char * &>
PUBLIC	??$destroy@PAD@?$allocator@D@std@@QAEXPAPAD@Z	; std::allocator<char>::destroy<char *>
PUBLIC	??_7error_category@std@@6B@			; std::error_category::`vftable'
PUBLIC	??_7_Generic_error_category@std@@6B@		; std::_Generic_error_category::`vftable'
PUBLIC	??_C@_07DCLBNMLN@generic?$AA@			; `string'
PUBLIC	??_C@_0O@BFJCFAAK@unknown?5error?$AA@		; `string'
PUBLIC	??_7_Iostream_error_category@std@@6B@		; std::_Iostream_error_category::`vftable'
PUBLIC	??_C@_08LLGCOLLL@iostream?$AA@			; `string'
PUBLIC	??_C@_0BG@PADBLCHM@iostream?5stream?5error?$AA@	; `string'
PUBLIC	??_7_System_error_category@std@@6B@		; std::_System_error_category::`vftable'
PUBLIC	??_C@_06FHFOAHML@system?$AA@			; `string'
PUBLIC	?_Generic_object@?$_Error_objects@H@std@@2V_Generic_error_category@2@A ; std::_Error_objects<int>::_Generic_object
PUBLIC	?_Iostream_object@?$_Error_objects@H@std@@2V_Iostream_error_category@2@A ; std::_Error_objects<int>::_Iostream_object
PUBLIC	?_System_object@?$_Error_objects@H@std@@2V_System_error_category@2@A ; std::_Error_objects<int>::_System_object
PUBLIC	?id@?$num_put@DV?$back_insert_iterator@V?$basic_string@DU?$char_traits@D@std@@V?$allocator@D@2@@std@@@std@@@std@@2V0locale@2@A ; std::num_put<char,std::back_insert_iterator<std::basic_string<char,std::char_traits<char>,std::allocator<char> > > >::id
PUBLIC	?id@?$num_put@_WV?$back_insert_iterator@V?$basic_string@_WU?$char_traits@_W@std@@V?$allocator@_W@2@@std@@@std@@@std@@2V0locale@2@A ; std::num_put<wchar_t,std::back_insert_iterator<std::basic_string<wchar_t,std::char_traits<wchar_t>,std::allocator<wchar_t> > > >::id
PUBLIC	?LastRandom@?1??GenerateFastRandom@@YAJXZ@4JA	; `GenerateFastRandom'::`2'::LastRandom
PUBLIC	?id@?$numpunct@D@std@@2V0locale@2@A		; std::numpunct<char>::id
PUBLIC	?id@?$numpunct@_W@std@@2V0locale@2@A		; std::numpunct<wchar_t>::id
PUBLIC	??_C@_0BI@CFPLBAOH@invalid?5string?5position?$AA@ ; `string'
PUBLIC	??_C@_0BA@JFNIOLAK@string?5too?5long?$AA@	; `string'
PUBLIC	??_R4error_category@std@@6B@			; std::error_category::`RTTI Complete Object Locator'
PUBLIC	??_R0?AVerror_category@std@@@8			; std::error_category `RTTI Type Descriptor'
PUBLIC	??_R3error_category@std@@8			; std::error_category::`RTTI Class Hierarchy Descriptor'
PUBLIC	??_R2error_category@std@@8			; std::error_category::`RTTI Base Class Array'
PUBLIC	??_R1A@?0A@EA@error_category@std@@8		; std::error_category::`RTTI Base Class Descriptor at (0,-1,0,64)'
PUBLIC	??_R4_Generic_error_category@std@@6B@		; std::_Generic_error_category::`RTTI Complete Object Locator'
PUBLIC	??_R0?AV_Generic_error_category@std@@@8		; std::_Generic_error_category `RTTI Type Descriptor'
PUBLIC	??_R3_Generic_error_category@std@@8		; std::_Generic_error_category::`RTTI Class Hierarchy Descriptor'
PUBLIC	??_R2_Generic_error_category@std@@8		; std::_Generic_error_category::`RTTI Base Class Array'
PUBLIC	??_R1A@?0A@EA@_Generic_error_category@std@@8	; std::_Generic_error_category::`RTTI Base Class Descriptor at (0,-1,0,64)'
PUBLIC	??_R4_Iostream_error_category@std@@6B@		; std::_Iostream_error_category::`RTTI Complete Object Locator'
PUBLIC	??_R0?AV_Iostream_error_category@std@@@8	; std::_Iostream_error_category `RTTI Type Descriptor'
PUBLIC	??_R3_Iostream_error_category@std@@8		; std::_Iostream_error_category::`RTTI Class Hierarchy Descriptor'
PUBLIC	??_R2_Iostream_error_category@std@@8		; std::_Iostream_error_category::`RTTI Base Class Array'
PUBLIC	??_R1A@?0A@EA@_Iostream_error_category@std@@8	; std::_Iostream_error_category::`RTTI Base Class Descriptor at (0,-1,0,64)'
PUBLIC	??_R4_System_error_category@std@@6B@		; std::_System_error_category::`RTTI Complete Object Locator'
PUBLIC	??_R0?AV_System_error_category@std@@@8		; std::_System_error_category `RTTI Type Descriptor'
PUBLIC	??_R3_System_error_category@std@@8		; std::_System_error_category::`RTTI Class Hierarchy Descriptor'
PUBLIC	??_R2_System_error_category@std@@8		; std::_System_error_category::`RTTI Base Class Array'
PUBLIC	??_R1A@?0A@EA@_System_error_category@std@@8	; std::_System_error_category::`RTTI Base Class Descriptor at (0,-1,0,64)'
PUBLIC	__real@00000000
PUBLIC	__real@0000000000000000
PUBLIC	__real@399d4952
PUBLIC	__real@3a83126f
PUBLIC	__real@3ac49ba6
PUBLIC	__real@3b03126f
PUBLIC	__real@3b449ba6
PUBLIC	__real@3ba3d70a
PUBLIC	__real@3be56042
PUBLIC	__real@3c23d70a
PUBLIC	__real@3c8efa34
PUBLIC	__real@3ca3d70a
PUBLIC	__real@3d23d70a
PUBLIC	__real@3d4ccccd
PUBLIC	__real@3d56774e
PUBLIC	__real@3d75c28f
PUBLIC	__real@3db2b8c1
PUBLIC	__real@3dcccccd
PUBLIC	__real@3e4ccccd
PUBLIC	__real@3e800000
PUBLIC	__real@3e99999a
PUBLIC	__real@3eb2b8c1
PUBLIC	__real@3eb851ec
PUBLIC	__real@3ecccccd
PUBLIC	__real@3ee147ae
PUBLIC	__real@3f000000
PUBLIC	__real@3f0ccccd
PUBLIC	__real@3f0efdca
PUBLIC	__real@3f19999a
PUBLIC	__real@3f400000
PUBLIC	__real@3f4ccccd
PUBLIC	__real@3f59999a
PUBLIC	__real@3f666666
PUBLIC	__real@3f733333
PUBLIC	__real@3f774539
PUBLIC	__real@3f7851ec
PUBLIC	__real@3f7d70a4
PUBLIC	__real@3f800000
PUBLIC	__real@3f8ccccd
PUBLIC	__real@3fa00000
PUBLIC	__real@3fc90fd9
PUBLIC	__real@3fd80b03
PUBLIC	__real@3fe00000
PUBLIC	__real@3febd70a3d70a3d7
PUBLIC	__real@3ff0000000000000
PUBLIC	__real@3ff921fb54442d18
PUBLIC	__real@40000000
PUBLIC	__real@400921fb54442d18
PUBLIC	__real@40400000
PUBLIC	__real@40490fdb
PUBLIC	__real@4060e0dc3c000000
PUBLIC	__real@407b53cf
PUBLIC	__real@40800000
PUBLIC	__real@40900000
PUBLIC	__real@40a00000
PUBLIC	__real@410706e2
PUBLIC	__real@41200000
PUBLIC	__real@4152ac08
PUBLIC	__real@41700000
PUBLIC	__real@418706e2
PUBLIC	__real@41a00000
PUBLIC	__real@41f00000
PUBLIC	__real@4200b53f
PUBLIC	__real@4228c89a
PUBLIC	__real@42340000
PUBLIC	__real@42480000
PUBLIC	__real@42652ee1
PUBLIC	__real@428706e2
PUBLIC	__real@428c0000
PUBLIC	__real@42b40000
PUBLIC	__real@42c80000
PUBLIC	__real@430706e2
PUBLIC	__real@43480000
PUBLIC	__real@435c0000
PUBLIC	__real@438706e2
PUBLIC	__real@43b9a977
PUBLIC	__real@43c80000
PUBLIC	__real@43d2fac1
PUBLIC	__real@43fa0000
PUBLIC	__real@44fa0000
PUBLIC	__real@451c4000
PUBLIC	__real@459c4000
PUBLIC	__real@466a6000
PUBLIC	__real@46afc800
PUBLIC	__real@46fffe00
PUBLIC	__real@471c4000
PUBLIC	__real@477fff00
PUBLIC	__real@47c35000
PUBLIC	__real@481c4000
PUBLIC	__real@48be6e00
PUBLIC	__real@48c35000
PUBLIC	__real@4a742400
PUBLIC	__real@8000000000000000
PUBLIC	__real@ba83126f
PUBLIC	__real@bba3d70a
PUBLIC	__real@bd0ee8d1
PUBLIC	__real@bf000000
PUBLIC	__real@bf800000
PUBLIC	__real@bff921fb54442d18
PUBLIC	__real@c0400000
PUBLIC	__real@c0490fdb
PUBLIC	__real@c07b53cf
PUBLIC	__real@c0800000
PUBLIC	__real@c0900000
PUBLIC	__real@c0a00000
PUBLIC	__real@c1200000
PUBLIC	__real@c1700000
PUBLIC	__real@c200b53f
PUBLIC	__real@c20706e2
PUBLIC	__real@c2340000
PUBLIC	__real@c2b40000
PUBLIC	__xmm@41f00000000000000000000000000000
PUBLIC	__xmm@80000000800000008000000080000000
EXTRN	__purecall:PROC
EXTRN	??2@YAPAXI@Z:PROC				; operator new
EXTRN	??3@YAXPAX@Z:PROC				; operator delete
EXTRN	_atexit:PROC
EXTRN	_atan:PROC
EXTRN	_fabs:PROC
EXTRN	_sin:PROC
EXTRN	_rand:PROC
EXTRN	_memcpy:PROC
EXTRN	_memset:PROC
EXTRN	_strlen:PROC
EXTRN	_memmove:PROC
EXTRN	?_Xbad_alloc@std@@YAXXZ:PROC			; std::_Xbad_alloc
EXTRN	?_Xlength_error@std@@YAXPBD@Z:PROC		; std::_Xlength_error
EXTRN	?_Xout_of_range@std@@YAXPBD@Z:PROC		; std::_Xout_of_range
EXTRN	?Game@VuSessionEntity@@QAEPAVVuGameEntity@@XZ:PROC ; VuSessionEntity::Game
EXTRN	?FLTust@SIMLIB_MATH_CLASS@@QAEMMMMQAM@Z:PROC	; SIMLIB_MATH_CLASS::FLTust
EXTRN	?Sfx@F4SoundPos@@QAEXHHMM@Z:PROC		; F4SoundPos::Sfx
EXTRN	?Sfx@F4SoundPos@@QAEXHHMMMMM@Z:PROC		; F4SoundPos::Sfx
EXTRN	?Trigenometry@AirframeClass@@AAEXXZ:PROC	; AirframeClass::Trigenometry
EXTRN	?TogglePB@AirframeClass@@QAEXXZ:PROC		; AirframeClass::TogglePB
EXTRN	?YawIt@AirframeClass@@QAEXMM@Z:PROC		; AirframeClass::YawIt
EXTRN	?PitchIt@AirframeClass@@QAEXMM@Z:PROC		; AirframeClass::PitchIt
EXTRN	?RollIt@AirframeClass@@QAEXMM@Z:PROC		; AirframeClass::RollIt
EXTRN	?SetFlag@SimBaseClass@@QAEXH@Z:PROC		; SimBaseClass::SetFlag
EXTRN	?UnSetFlag@SimBaseClass@@QAEXH@Z:PROC		; SimBaseClass::UnSetFlag
EXTRN	?LandingCheck@AircraftClass@@QAEHMMH@Z:PROC	; AircraftClass::LandingCheck
EXTRN	?SetPulseTurbulence@AircraftClass@@QAEXMMMM@Z:PROC ; AircraftClass::SetPulseTurbulence
EXTRN	?MatrixMult@@YAXPBUTrotation@@PBUTpoint@@PAU2@@Z:PROC ; MatrixMult
EXTRN	??_Eerror_category@std@@UAEPAXI@Z:PROC		; std::error_category::`vector deleting destructor'
EXTRN	?_Syserror_map@std@@YAPBDH@Z:PROC		; std::_Syserror_map
EXTRN	?_Winerror_map@std@@YAPBDH@Z:PROC		; std::_Winerror_map
EXTRN	??_E_Generic_error_category@std@@UAEPAXI@Z:PROC	; std::_Generic_error_category::`vector deleting destructor'
EXTRN	??_E_Iostream_error_category@std@@UAEPAXI@Z:PROC ; std::_Iostream_error_category::`vector deleting destructor'
EXTRN	??_E_System_error_category@std@@UAEPAXI@Z:PROC	; std::_System_error_category::`vector deleting destructor'
EXTRN	?GetGroundLevel@OTWDriverClass@@QAEMMMPAUTpoint@@@Z:PROC ; OTWDriverClass::GetGroundLevel
EXTRN	?DistanceFromCloudEdge@OTWDriverClass@@QAEMXZ:PROC ; OTWDriverClass::DistanceFromCloudEdge
EXTRN	?SetExitMenu@OTWDriverClass@@QAEXH@Z:PROC	; OTWDriverClass::SetExitMenu
EXTRN	?GetGroundType@OTWDriverClass@@QAEHMM@Z:PROC	; OTWDriverClass::GetGroundType
EXTRN	?AddMflList@FaultClass@@QAEXKW4type_FSubSystem@1@H@Z:PROC ; FaultClass::AddMflList
EXTRN	?SetFault@FackClass@@QAEXW4type_FSubSystem@FaultClass@@W4type_FFunction@3@W4type_FSeverity@3@H@Z:PROC ; FackClass::SetFault
EXTRN	?GetFault@FackClass@@QAEHW4type_CSubSystem@@@Z:PROC ; FackClass::GetFault
EXTRN	?FalconSendMessage@@YAXPAVVuMessage@@H@Z:PROC	; FalconSendMessage
EXTRN	?CreateGroundCollisionMessage@@YAPAVFalconDamageMessage@@PAVSimVehicleClass@@HPAVVuTargetEntity@@@Z:PROC ; CreateGroundCollisionMessage
EXTRN	??0FalconLandingMessage@@QAE@VVU_ID@@PAVVuTargetEntity@@E@Z:PROC ; FalconLandingMessage::FalconLandingMessage
EXTRN	?GetAxisValue@SIMLIB_IO_CLASS@@QAEHW4GameAxis_t@@@Z:PROC ; SIMLIB_IO_CLASS::GetAxisValue
EXTRN	?WindSpeedInFeetPerSecond@WeatherClass@@QAEMPBUTpoint@@@Z:PROC ; WeatherClass::WindSpeedInFeetPerSecond
EXTRN	?WindHeadingAt@WeatherClass@@QAEMPBUTpoint@@@Z:PROC ; WeatherClass::WindHeadingAt
EXTRN	?IsOverRunway@ATCBrain@@QAEHPAVAircraftClass@@@Z:PROC ; ATCBrain::IsOverRunway
EXTRN	?FindNearbyAirbase@@YAPAVObjectiveClass@@FF@Z:PROC ; FindNearbyAirbase
EXTRN	?ConvertSimToGrid@@YAXPAUvector@@PAF1@Z:PROC	; ConvertSimToGrid
EXTRN	?JoystickPlayEffect@@YAHHH@Z:PROC		; JoystickPlayEffect
EXTRN	?JoystickStopEffect@@YAXH@Z:PROC		; JoystickStopEffect
EXTRN	?RegroupAircraft@@YAXPAVAircraftClass@@@Z:PROC	; RegroupAircraft
EXTRN	?GetPlayerAircraft@SimulationDriver@@QBEPAVAircraftClass@@XZ:PROC ; SimulationDriver::GetPlayerAircraft
EXTRN	?SendATCMsg@DigitalBrain@@QAEXW4AtcStatusEnum@@@Z:PROC ; DigitalBrain::SendATCMsg
EXTRN	@__security_check_cookie@4:PROC
EXTRN	__CxxThrowException@8:PROC
EXTRN	___CxxFrameHandler3:PROC
EXTRN	?vuLocalSessionEntity@@3V?$VuBin@VVuSessionEntity@@@@A:DWORD ; vuLocalSessionEntity
EXTRN	?SimLibMinorFrameTime@@3MA:DWORD		; SimLibMinorFrameTime
EXTRN	?SimLibElapsedTime@@3KA:DWORD			; SimLibElapsedTime
EXTRN	?Math@@3VSIMLIB_MATH_CLASS@@A:BYTE		; Math
EXTRN	?aeroDataset@@3PAVAeroDataSet@@A:DWORD		; aeroDataset
EXTRN	?ComplexGearDOF@@3PAHA:BYTE			; ComplexGearDOF
EXTRN	??_7type_info@@6B@:QWORD			; type_info::`vftable'
EXTRN	?OTWDriver@@3VOTWDriverClass@@A:BYTE		; OTWDriver
EXTRN	?UserStickInputs@@3VPilotInputs@@A:BYTE		; UserStickInputs
EXTRN	?IO@@3VSIMLIB_IO_CLASS@@A:BYTE			; IO
EXTRN	?realWeather@@3PAVRealWeather@@A:DWORD		; realWeather
EXTRN	?SimDriver@@3VSimulationDriver@@A:BYTE		; SimDriver
EXTRN	?gPlayerExitMenuShown@@3HA:DWORD		; gPlayerExitMenuShown
EXTRN	?g_bRealisticAvionics@@3_NA:BYTE		; g_bRealisticAvionics
EXTRN	?g_bRollLinkedNWSRudder@@3_NA:BYTE		; g_bRollLinkedNWSRudder
EXTRN	___security_cookie:DWORD
EXTRN	__fltused:DWORD
_BSS	SEGMENT
_piecewise_construct DB 01H DUP (?)
	ALIGN	4

_allocator_arg DB 01H DUP (?)
_BSS	ENDS
;	COMDAT ?_Generic_object@?$_Error_objects@H@std@@2V_Generic_error_category@2@A
_BSS	SEGMENT
?_Generic_object@?$_Error_objects@H@std@@2V_Generic_error_category@2@A DD 01H DUP (?) ; std::_Error_objects<int>::_Generic_object
_BSS	ENDS
;	COMDAT ?_Iostream_object@?$_Error_objects@H@std@@2V_Iostream_error_category@2@A
_BSS	SEGMENT
?_Iostream_object@?$_Error_objects@H@std@@2V_Iostream_error_category@2@A DD 01H DUP (?) ; std::_Error_objects<int>::_Iostream_object
_BSS	ENDS
;	COMDAT ?_System_object@?$_Error_objects@H@std@@2V_System_error_category@2@A
_BSS	SEGMENT
?_System_object@?$_Error_objects@H@std@@2V_System_error_category@2@A DD 01H DUP (?) ; std::_Error_objects<int>::_System_object
_BSS	ENDS
;	COMDAT ?id@?$num_put@DV?$back_insert_iterator@V?$basic_string@DU?$char_traits@D@std@@V?$allocator@D@2@@std@@@std@@@std@@2V0locale@2@A
_BSS	SEGMENT
?id@?$num_put@DV?$back_insert_iterator@V?$basic_string@DU?$char_traits@D@std@@V?$allocator@D@2@@std@@@std@@@std@@2V0locale@2@A DD 01H DUP (?) ; std::num_put<char,std::back_insert_iterator<std::basic_string<char,std::char_traits<char>,std::allocator<char> > > >::id
_BSS	ENDS
;	COMDAT ?id@?$num_put@_WV?$back_insert_iterator@V?$basic_string@_WU?$char_traits@_W@std@@V?$allocator@_W@2@@std@@@std@@@std@@2V0locale@2@A
_BSS	SEGMENT
?id@?$num_put@_WV?$back_insert_iterator@V?$basic_string@_WU?$char_traits@_W@std@@V?$allocator@_W@2@@std@@@std@@@std@@2V0locale@2@A DD 01H DUP (?) ; std::num_put<wchar_t,std::back_insert_iterator<std::basic_string<wchar_t,std::char_traits<wchar_t>,std::allocator<wchar_t> > > >::id
_BSS	ENDS
;	COMDAT ?LastRandom@?1??GenerateFastRandom@@YAJXZ@4JA
_BSS	SEGMENT
?LastRandom@?1??GenerateFastRandom@@YAJXZ@4JA DD 01H DUP (?) ; `GenerateFastRandom'::`2'::LastRandom
_BSS	ENDS
;	COMDAT ?id@?$numpunct@D@std@@2V0locale@2@A
_BSS	SEGMENT
?id@?$numpunct@D@std@@2V0locale@2@A DD 01H DUP (?)	; std::numpunct<char>::id
_BSS	ENDS
;	COMDAT ?id@?$numpunct@_W@std@@2V0locale@2@A
_BSS	SEGMENT
?id@?$numpunct@_W@std@@2V0locale@2@A DD 01H DUP (?)	; std::numpunct<wchar_t>::id
_BSS	ENDS
CRT$XCU	SEGMENT
_piecewise_construct$initializer$ DD FLAT:??__Epiecewise_construct@std@@YAXXZ
CRT$XCU	ENDS
;	COMDAT __xmm@80000000800000008000000080000000
CONST	SEGMENT
__xmm@80000000800000008000000080000000 DB 00H, 00H, 00H, 080H, 00H, 00H, 00H
	DB	080H, 00H, 00H, 00H, 080H, 00H, 00H, 00H, 080H
CONST	ENDS
;	COMDAT __xmm@41f00000000000000000000000000000
CONST	SEGMENT
__xmm@41f00000000000000000000000000000 DB 00H, 00H, 00H, 00H, 00H, 00H, 00H
	DB	00H, 00H, 00H, 00H, 00H, 00H, 00H, 0f0H, 'A'
CONST	ENDS
;	COMDAT __real@c2b40000
CONST	SEGMENT
__real@c2b40000 DD 0c2b40000r			; -90
CONST	ENDS
;	COMDAT __real@c2340000
CONST	SEGMENT
__real@c2340000 DD 0c2340000r			; -45
CONST	ENDS
;	COMDAT __real@c20706e2
CONST	SEGMENT
__real@c20706e2 DD 0c20706e2r			; -33.7567
CONST	ENDS
;	COMDAT __real@c200b53f
CONST	SEGMENT
__real@c200b53f DD 0c200b53fr			; -32.177
CONST	ENDS
;	COMDAT __real@c1700000
CONST	SEGMENT
__real@c1700000 DD 0c1700000r			; -15
CONST	ENDS
;	COMDAT __real@c1200000
CONST	SEGMENT
__real@c1200000 DD 0c1200000r			; -10
CONST	ENDS
;	COMDAT __real@c0a00000
CONST	SEGMENT
__real@c0a00000 DD 0c0a00000r			; -5
CONST	ENDS
;	COMDAT __real@c0900000
CONST	SEGMENT
__real@c0900000 DD 0c0900000r			; -4.5
CONST	ENDS
;	COMDAT __real@c0800000
CONST	SEGMENT
__real@c0800000 DD 0c0800000r			; -4
CONST	ENDS
;	COMDAT __real@c07b53cf
CONST	SEGMENT
__real@c07b53cf DD 0c07b53cfr			; -3.92699
CONST	ENDS
;	COMDAT __real@c0490fdb
CONST	SEGMENT
__real@c0490fdb DD 0c0490fdbr			; -3.14159
CONST	ENDS
;	COMDAT __real@c0400000
CONST	SEGMENT
__real@c0400000 DD 0c0400000r			; -3
CONST	ENDS
;	COMDAT __real@bff921fb54442d18
CONST	SEGMENT
__real@bff921fb54442d18 DQ 0bff921fb54442d18r	; -1.5708
CONST	ENDS
;	COMDAT __real@bf800000
CONST	SEGMENT
__real@bf800000 DD 0bf800000r			; -1
CONST	ENDS
;	COMDAT __real@bf000000
CONST	SEGMENT
__real@bf000000 DD 0bf000000r			; -0.5
CONST	ENDS
;	COMDAT __real@bd0ee8d1
CONST	SEGMENT
__real@bd0ee8d1 DD 0bd0ee8d1r			; -0.03489
CONST	ENDS
;	COMDAT __real@bba3d70a
CONST	SEGMENT
__real@bba3d70a DD 0bba3d70ar			; -0.005
CONST	ENDS
;	COMDAT __real@ba83126f
CONST	SEGMENT
__real@ba83126f DD 0ba83126fr			; -0.001
CONST	ENDS
;	COMDAT __real@8000000000000000
CONST	SEGMENT
__real@8000000000000000 DQ 08000000000000000r	; -0
CONST	ENDS
;	COMDAT __real@4a742400
CONST	SEGMENT
__real@4a742400 DD 04a742400r			; 4e+006
CONST	ENDS
;	COMDAT __real@48c35000
CONST	SEGMENT
__real@48c35000 DD 048c35000r			; 400000
CONST	ENDS
;	COMDAT __real@48be6e00
CONST	SEGMENT
__real@48be6e00 DD 048be6e00r			; 390000
CONST	ENDS
;	COMDAT __real@481c4000
CONST	SEGMENT
__real@481c4000 DD 0481c4000r			; 160000
CONST	ENDS
;	COMDAT __real@47c35000
CONST	SEGMENT
__real@47c35000 DD 047c35000r			; 100000
CONST	ENDS
;	COMDAT __real@477fff00
CONST	SEGMENT
__real@477fff00 DD 0477fff00r			; 65535
CONST	ENDS
;	COMDAT __real@471c4000
CONST	SEGMENT
__real@471c4000 DD 0471c4000r			; 40000
CONST	ENDS
;	COMDAT __real@46fffe00
CONST	SEGMENT
__real@46fffe00 DD 046fffe00r			; 32767
CONST	ENDS
;	COMDAT __real@46afc800
CONST	SEGMENT
__real@46afc800 DD 046afc800r			; 22500
CONST	ENDS
;	COMDAT __real@466a6000
CONST	SEGMENT
__real@466a6000 DD 0466a6000r			; 15000
CONST	ENDS
;	COMDAT __real@459c4000
CONST	SEGMENT
__real@459c4000 DD 0459c4000r			; 5000
CONST	ENDS
;	COMDAT __real@451c4000
CONST	SEGMENT
__real@451c4000 DD 0451c4000r			; 2500
CONST	ENDS
;	COMDAT __real@44fa0000
CONST	SEGMENT
__real@44fa0000 DD 044fa0000r			; 2000
CONST	ENDS
;	COMDAT __real@43fa0000
CONST	SEGMENT
__real@43fa0000 DD 043fa0000r			; 500
CONST	ENDS
;	COMDAT __real@43d2fac1
CONST	SEGMENT
__real@43d2fac1 DD 043d2fac1r			; 421.959
CONST	ENDS
;	COMDAT __real@43c80000
CONST	SEGMENT
__real@43c80000 DD 043c80000r			; 400
CONST	ENDS
;	COMDAT __real@43b9a977
CONST	SEGMENT
__real@43b9a977 DD 043b9a977r			; 371.324
CONST	ENDS
;	COMDAT __real@438706e2
CONST	SEGMENT
__real@438706e2 DD 0438706e2r			; 270.054
CONST	ENDS
;	COMDAT __real@435c0000
CONST	SEGMENT
__real@435c0000 DD 0435c0000r			; 220
CONST	ENDS
;	COMDAT __real@43480000
CONST	SEGMENT
__real@43480000 DD 043480000r			; 200
CONST	ENDS
;	COMDAT __real@430706e2
CONST	SEGMENT
__real@430706e2 DD 0430706e2r			; 135.027
CONST	ENDS
;	COMDAT __real@42c80000
CONST	SEGMENT
__real@42c80000 DD 042c80000r			; 100
CONST	ENDS
;	COMDAT __real@42b40000
CONST	SEGMENT
__real@42b40000 DD 042b40000r			; 90
CONST	ENDS
;	COMDAT __real@428c0000
CONST	SEGMENT
__real@428c0000 DD 0428c0000r			; 70
CONST	ENDS
;	COMDAT __real@428706e2
CONST	SEGMENT
__real@428706e2 DD 0428706e2r			; 67.5134
CONST	ENDS
;	COMDAT __real@42652ee1
CONST	SEGMENT
__real@42652ee1 DD 042652ee1r			; 57.2958
CONST	ENDS
;	COMDAT __real@42480000
CONST	SEGMENT
__real@42480000 DD 042480000r			; 50
CONST	ENDS
;	COMDAT __real@42340000
CONST	SEGMENT
__real@42340000 DD 042340000r			; 45
CONST	ENDS
;	COMDAT __real@4228c89a
CONST	SEGMENT
__real@4228c89a DD 04228c89ar			; 42.1959
CONST	ENDS
;	COMDAT __real@4200b53f
CONST	SEGMENT
__real@4200b53f DD 04200b53fr			; 32.177
CONST	ENDS
;	COMDAT __real@41f00000
CONST	SEGMENT
__real@41f00000 DD 041f00000r			; 30
CONST	ENDS
;	COMDAT __real@41a00000
CONST	SEGMENT
__real@41a00000 DD 041a00000r			; 20
CONST	ENDS
;	COMDAT __real@418706e2
CONST	SEGMENT
__real@418706e2 DD 0418706e2r			; 16.8784
CONST	ENDS
;	COMDAT __real@41700000
CONST	SEGMENT
__real@41700000 DD 041700000r			; 15
CONST	ENDS
;	COMDAT __real@4152ac08
CONST	SEGMENT
__real@4152ac08 DD 04152ac08r			; 13.167
CONST	ENDS
;	COMDAT __real@41200000
CONST	SEGMENT
__real@41200000 DD 041200000r			; 10
CONST	ENDS
;	COMDAT __real@410706e2
CONST	SEGMENT
__real@410706e2 DD 0410706e2r			; 8.43918
CONST	ENDS
;	COMDAT __real@40a00000
CONST	SEGMENT
__real@40a00000 DD 040a00000r			; 5
CONST	ENDS
;	COMDAT __real@40900000
CONST	SEGMENT
__real@40900000 DD 040900000r			; 4.5
CONST	ENDS
;	COMDAT __real@40800000
CONST	SEGMENT
__real@40800000 DD 040800000r			; 4
CONST	ENDS
;	COMDAT __real@407b53cf
CONST	SEGMENT
__real@407b53cf DD 0407b53cfr			; 3.92699
CONST	ENDS
;	COMDAT __real@4060e0dc3c000000
CONST	SEGMENT
__real@4060e0dc3c000000 DQ 04060e0dc3c000000r	; 135.027
CONST	ENDS
;	COMDAT __real@40490fdb
CONST	SEGMENT
__real@40490fdb DD 040490fdbr			; 3.14159
CONST	ENDS
;	COMDAT __real@40400000
CONST	SEGMENT
__real@40400000 DD 040400000r			; 3
CONST	ENDS
;	COMDAT __real@400921fb54442d18
CONST	SEGMENT
__real@400921fb54442d18 DQ 0400921fb54442d18r	; 3.14159
CONST	ENDS
;	COMDAT __real@40000000
CONST	SEGMENT
__real@40000000 DD 040000000r			; 2
CONST	ENDS
;	COMDAT __real@3ff921fb54442d18
CONST	SEGMENT
__real@3ff921fb54442d18 DQ 03ff921fb54442d18r	; 1.5708
CONST	ENDS
;	COMDAT __real@3ff0000000000000
CONST	SEGMENT
__real@3ff0000000000000 DQ 03ff0000000000000r	; 1
CONST	ENDS
;	COMDAT __real@3febd70a3d70a3d7
CONST	SEGMENT
__real@3febd70a3d70a3d7 DQ 03febd70a3d70a3d7r	; 0.87
CONST	ENDS
;	COMDAT __real@3fe00000
CONST	SEGMENT
__real@3fe00000 DD 03fe00000r			; 1.75
CONST	ENDS
;	COMDAT __real@3fd80b03
CONST	SEGMENT
__real@3fd80b03 DD 03fd80b03r			; 1.68784
CONST	ENDS
;	COMDAT __real@3fc90fd9
CONST	SEGMENT
__real@3fc90fd9 DD 03fc90fd9r			; 1.5708
CONST	ENDS
;	COMDAT __real@3fa00000
CONST	SEGMENT
__real@3fa00000 DD 03fa00000r			; 1.25
CONST	ENDS
;	COMDAT __real@3f8ccccd
CONST	SEGMENT
__real@3f8ccccd DD 03f8ccccdr			; 1.1
CONST	ENDS
;	COMDAT __real@3f800000
CONST	SEGMENT
__real@3f800000 DD 03f800000r			; 1
CONST	ENDS
;	COMDAT __real@3f7d70a4
CONST	SEGMENT
__real@3f7d70a4 DD 03f7d70a4r			; 0.99
CONST	ENDS
;	COMDAT __real@3f7851ec
CONST	SEGMENT
__real@3f7851ec DD 03f7851ecr			; 0.97
CONST	ENDS
;	COMDAT __real@3f774539
CONST	SEGMENT
__real@3f774539 DD 03f774539r			; 0.9659
CONST	ENDS
;	COMDAT __real@3f733333
CONST	SEGMENT
__real@3f733333 DD 03f733333r			; 0.95
CONST	ENDS
;	COMDAT __real@3f666666
CONST	SEGMENT
__real@3f666666 DD 03f666666r			; 0.9
CONST	ENDS
;	COMDAT __real@3f59999a
CONST	SEGMENT
__real@3f59999a DD 03f59999ar			; 0.85
CONST	ENDS
;	COMDAT __real@3f4ccccd
CONST	SEGMENT
__real@3f4ccccd DD 03f4ccccdr			; 0.8
CONST	ENDS
;	COMDAT __real@3f400000
CONST	SEGMENT
__real@3f400000 DD 03f400000r			; 0.75
CONST	ENDS
;	COMDAT __real@3f19999a
CONST	SEGMENT
__real@3f19999a DD 03f19999ar			; 0.6
CONST	ENDS
;	COMDAT __real@3f0efdca
CONST	SEGMENT
__real@3f0efdca DD 03f0efdcar			; 0.55856
CONST	ENDS
;	COMDAT __real@3f0ccccd
CONST	SEGMENT
__real@3f0ccccd DD 03f0ccccdr			; 0.55
CONST	ENDS
;	COMDAT __real@3f000000
CONST	SEGMENT
__real@3f000000 DD 03f000000r			; 0.5
CONST	ENDS
;	COMDAT __real@3ee147ae
CONST	SEGMENT
__real@3ee147ae DD 03ee147aer			; 0.44
CONST	ENDS
;	COMDAT __real@3ecccccd
CONST	SEGMENT
__real@3ecccccd DD 03ecccccdr			; 0.4
CONST	ENDS
;	COMDAT __real@3eb851ec
CONST	SEGMENT
__real@3eb851ec DD 03eb851ecr			; 0.36
CONST	ENDS
;	COMDAT __real@3eb2b8c1
CONST	SEGMENT
__real@3eb2b8c1 DD 03eb2b8c1r			; 0.349066
CONST	ENDS
;	COMDAT __real@3e99999a
CONST	SEGMENT
__real@3e99999a DD 03e99999ar			; 0.3
CONST	ENDS
;	COMDAT __real@3e800000
CONST	SEGMENT
__real@3e800000 DD 03e800000r			; 0.25
CONST	ENDS
;	COMDAT __real@3e4ccccd
CONST	SEGMENT
__real@3e4ccccd DD 03e4ccccdr			; 0.2
CONST	ENDS
;	COMDAT __real@3dcccccd
CONST	SEGMENT
__real@3dcccccd DD 03dcccccdr			; 0.1
CONST	ENDS
;	COMDAT __real@3db2b8c1
CONST	SEGMENT
__real@3db2b8c1 DD 03db2b8c1r			; 0.0872665
CONST	ENDS
;	COMDAT __real@3d75c28f
CONST	SEGMENT
__real@3d75c28f DD 03d75c28fr			; 0.06
CONST	ENDS
;	COMDAT __real@3d56774e
CONST	SEGMENT
__real@3d56774e DD 03d56774er			; 0.0523599
CONST	ENDS
;	COMDAT __real@3d4ccccd
CONST	SEGMENT
__real@3d4ccccd DD 03d4ccccdr			; 0.05
CONST	ENDS
;	COMDAT __real@3d23d70a
CONST	SEGMENT
__real@3d23d70a DD 03d23d70ar			; 0.04
CONST	ENDS
;	COMDAT __real@3ca3d70a
CONST	SEGMENT
__real@3ca3d70a DD 03ca3d70ar			; 0.02
CONST	ENDS
;	COMDAT __real@3c8efa34
CONST	SEGMENT
__real@3c8efa34 DD 03c8efa34r			; 0.0174533
CONST	ENDS
;	COMDAT __real@3c23d70a
CONST	SEGMENT
__real@3c23d70a DD 03c23d70ar			; 0.01
CONST	ENDS
;	COMDAT __real@3be56042
CONST	SEGMENT
__real@3be56042 DD 03be56042r			; 0.007
CONST	ENDS
;	COMDAT __real@3ba3d70a
CONST	SEGMENT
__real@3ba3d70a DD 03ba3d70ar			; 0.005
CONST	ENDS
;	COMDAT __real@3b449ba6
CONST	SEGMENT
__real@3b449ba6 DD 03b449ba6r			; 0.003
CONST	ENDS
;	COMDAT __real@3b03126f
CONST	SEGMENT
__real@3b03126f DD 03b03126fr			; 0.002
CONST	ENDS
;	COMDAT __real@3ac49ba6
CONST	SEGMENT
__real@3ac49ba6 DD 03ac49ba6r			; 0.0015
CONST	ENDS
;	COMDAT __real@3a83126f
CONST	SEGMENT
__real@3a83126f DD 03a83126fr			; 0.001
CONST	ENDS
;	COMDAT __real@399d4952
CONST	SEGMENT
__real@399d4952 DD 0399d4952r			; 0.0003
CONST	ENDS
;	COMDAT __real@0000000000000000
CONST	SEGMENT
__real@0000000000000000 DQ 00000000000000000r	; 0
CONST	ENDS
;	COMDAT __real@00000000
CONST	SEGMENT
__real@00000000 DD 000000000r			; 0
CONST	ENDS
;	COMDAT ??_R1A@?0A@EA@_System_error_category@std@@8
rdata$r	SEGMENT
??_R1A@?0A@EA@_System_error_category@std@@8 DD FLAT:??_R0?AV_System_error_category@std@@@8 ; std::_System_error_category::`RTTI Base Class Descriptor at (0,-1,0,64)'
	DD	02H
	DD	00H
	DD	0ffffffffH
	DD	00H
	DD	040H
	DD	FLAT:??_R3_System_error_category@std@@8
rdata$r	ENDS
;	COMDAT ??_R2_System_error_category@std@@8
rdata$r	SEGMENT
??_R2_System_error_category@std@@8 DD FLAT:??_R1A@?0A@EA@_System_error_category@std@@8 ; std::_System_error_category::`RTTI Base Class Array'
	DD	FLAT:??_R1A@?0A@EA@_Generic_error_category@std@@8
	DD	FLAT:??_R1A@?0A@EA@error_category@std@@8
rdata$r	ENDS
;	COMDAT ??_R3_System_error_category@std@@8
rdata$r	SEGMENT
??_R3_System_error_category@std@@8 DD 00H		; std::_System_error_category::`RTTI Class Hierarchy Descriptor'
	DD	00H
	DD	03H
	DD	FLAT:??_R2_System_error_category@std@@8
rdata$r	ENDS
;	COMDAT ??_R0?AV_System_error_category@std@@@8
_DATA	SEGMENT
??_R0?AV_System_error_category@std@@@8 DD FLAT:??_7type_info@@6B@ ; std::_System_error_category `RTTI Type Descriptor'
	DD	00H
	DB	'.?AV_System_error_category@std@@', 00H
_DATA	ENDS
;	COMDAT ??_R4_System_error_category@std@@6B@
rdata$r	SEGMENT
??_R4_System_error_category@std@@6B@ DD 00H		; std::_System_error_category::`RTTI Complete Object Locator'
	DD	00H
	DD	00H
	DD	FLAT:??_R0?AV_System_error_category@std@@@8
	DD	FLAT:??_R3_System_error_category@std@@8
rdata$r	ENDS
;	COMDAT ??_R1A@?0A@EA@_Iostream_error_category@std@@8
rdata$r	SEGMENT
??_R1A@?0A@EA@_Iostream_error_category@std@@8 DD FLAT:??_R0?AV_Iostream_error_category@std@@@8 ; std::_Iostream_error_category::`RTTI Base Class Descriptor at (0,-1,0,64)'
	DD	02H
	DD	00H
	DD	0ffffffffH
	DD	00H
	DD	040H
	DD	FLAT:??_R3_Iostream_error_category@std@@8
rdata$r	ENDS
;	COMDAT ??_R2_Iostream_error_category@std@@8
rdata$r	SEGMENT
??_R2_Iostream_error_category@std@@8 DD FLAT:??_R1A@?0A@EA@_Iostream_error_category@std@@8 ; std::_Iostream_error_category::`RTTI Base Class Array'
	DD	FLAT:??_R1A@?0A@EA@_Generic_error_category@std@@8
	DD	FLAT:??_R1A@?0A@EA@error_category@std@@8
rdata$r	ENDS
;	COMDAT ??_R3_Iostream_error_category@std@@8
rdata$r	SEGMENT
??_R3_Iostream_error_category@std@@8 DD 00H		; std::_Iostream_error_category::`RTTI Class Hierarchy Descriptor'
	DD	00H
	DD	03H
	DD	FLAT:??_R2_Iostream_error_category@std@@8
rdata$r	ENDS
;	COMDAT ??_R0?AV_Iostream_error_category@std@@@8
_DATA	SEGMENT
??_R0?AV_Iostream_error_category@std@@@8 DD FLAT:??_7type_info@@6B@ ; std::_Iostream_error_category `RTTI Type Descriptor'
	DD	00H
	DB	'.?AV_Iostream_error_category@std@@', 00H
_DATA	ENDS
;	COMDAT ??_R4_Iostream_error_category@std@@6B@
rdata$r	SEGMENT
??_R4_Iostream_error_category@std@@6B@ DD 00H		; std::_Iostream_error_category::`RTTI Complete Object Locator'
	DD	00H
	DD	00H
	DD	FLAT:??_R0?AV_Iostream_error_category@std@@@8
	DD	FLAT:??_R3_Iostream_error_category@std@@8
rdata$r	ENDS
;	COMDAT ??_R1A@?0A@EA@_Generic_error_category@std@@8
rdata$r	SEGMENT
??_R1A@?0A@EA@_Generic_error_category@std@@8 DD FLAT:??_R0?AV_Generic_error_category@std@@@8 ; std::_Generic_error_category::`RTTI Base Class Descriptor at (0,-1,0,64)'
	DD	01H
	DD	00H
	DD	0ffffffffH
	DD	00H
	DD	040H
	DD	FLAT:??_R3_Generic_error_category@std@@8
rdata$r	ENDS
;	COMDAT ??_R2_Generic_error_category@std@@8
rdata$r	SEGMENT
??_R2_Generic_error_category@std@@8 DD FLAT:??_R1A@?0A@EA@_Generic_error_category@std@@8 ; std::_Generic_error_category::`RTTI Base Class Array'
	DD	FLAT:??_R1A@?0A@EA@error_category@std@@8
rdata$r	ENDS
;	COMDAT ??_R3_Generic_error_category@std@@8
rdata$r	SEGMENT
??_R3_Generic_error_category@std@@8 DD 00H		; std::_Generic_error_category::`RTTI Class Hierarchy Descriptor'
	DD	00H
	DD	02H
	DD	FLAT:??_R2_Generic_error_category@std@@8
rdata$r	ENDS
;	COMDAT ??_R0?AV_Generic_error_category@std@@@8
_DATA	SEGMENT
??_R0?AV_Generic_error_category@std@@@8 DD FLAT:??_7type_info@@6B@ ; std::_Generic_error_category `RTTI Type Descriptor'
	DD	00H
	DB	'.?AV_Generic_error_category@std@@', 00H
_DATA	ENDS
;	COMDAT ??_R4_Generic_error_category@std@@6B@
rdata$r	SEGMENT
??_R4_Generic_error_category@std@@6B@ DD 00H		; std::_Generic_error_category::`RTTI Complete Object Locator'
	DD	00H
	DD	00H
	DD	FLAT:??_R0?AV_Generic_error_category@std@@@8
	DD	FLAT:??_R3_Generic_error_category@std@@8
rdata$r	ENDS
;	COMDAT ??_R1A@?0A@EA@error_category@std@@8
rdata$r	SEGMENT
??_R1A@?0A@EA@error_category@std@@8 DD FLAT:??_R0?AVerror_category@std@@@8 ; std::error_category::`RTTI Base Class Descriptor at (0,-1,0,64)'
	DD	00H
	DD	00H
	DD	0ffffffffH
	DD	00H
	DD	040H
	DD	FLAT:??_R3error_category@std@@8
rdata$r	ENDS
;	COMDAT ??_R2error_category@std@@8
rdata$r	SEGMENT
??_R2error_category@std@@8 DD FLAT:??_R1A@?0A@EA@error_category@std@@8 ; std::error_category::`RTTI Base Class Array'
rdata$r	ENDS
;	COMDAT ??_R3error_category@std@@8
rdata$r	SEGMENT
??_R3error_category@std@@8 DD 00H			; std::error_category::`RTTI Class Hierarchy Descriptor'
	DD	00H
	DD	01H
	DD	FLAT:??_R2error_category@std@@8
rdata$r	ENDS
;	COMDAT ??_R0?AVerror_category@std@@@8
_DATA	SEGMENT
??_R0?AVerror_category@std@@@8 DD FLAT:??_7type_info@@6B@ ; std::error_category `RTTI Type Descriptor'
	DD	00H
	DB	'.?AVerror_category@std@@', 00H
_DATA	ENDS
;	COMDAT ??_R4error_category@std@@6B@
rdata$r	SEGMENT
??_R4error_category@std@@6B@ DD 00H			; std::error_category::`RTTI Complete Object Locator'
	DD	00H
	DD	00H
	DD	FLAT:??_R0?AVerror_category@std@@@8
	DD	FLAT:??_R3error_category@std@@8
rdata$r	ENDS
;	COMDAT ??_C@_0BA@JFNIOLAK@string?5too?5long?$AA@
CONST	SEGMENT
??_C@_0BA@JFNIOLAK@string?5too?5long?$AA@ DB 'string too long', 00H ; `string'
CONST	ENDS
;	COMDAT ??_C@_0BI@CFPLBAOH@invalid?5string?5position?$AA@
CONST	SEGMENT
??_C@_0BI@CFPLBAOH@invalid?5string?5position?$AA@ DB 'invalid string posi'
	DB	'tion', 00H					; `string'
CONST	ENDS
;	COMDAT ??_C@_06FHFOAHML@system?$AA@
CONST	SEGMENT
??_C@_06FHFOAHML@system?$AA@ DB 'system', 00H		; `string'
CONST	ENDS
;	COMDAT ??_7_System_error_category@std@@6B@
CONST	SEGMENT
??_7_System_error_category@std@@6B@ DD FLAT:??_R4_System_error_category@std@@6B@ ; std::_System_error_category::`vftable'
	DD	FLAT:??_E_System_error_category@std@@UAEPAXI@Z
	DD	FLAT:?name@_System_error_category@std@@UBEPBDXZ
	DD	FLAT:?message@_System_error_category@std@@UBE?AV?$basic_string@DU?$char_traits@D@std@@V?$allocator@D@2@@2@H@Z
	DD	FLAT:?default_error_condition@_System_error_category@std@@UBE?AVerror_condition@2@H@Z
	DD	FLAT:?equivalent@error_category@std@@UBE_NABVerror_code@2@H@Z
	DD	FLAT:?equivalent@error_category@std@@UBE_NHABVerror_condition@2@@Z
CONST	ENDS
;	COMDAT ??_C@_0BG@PADBLCHM@iostream?5stream?5error?$AA@
CONST	SEGMENT
??_C@_0BG@PADBLCHM@iostream?5stream?5error?$AA@ DB 'iostream stream error'
	DB	00H						; `string'
CONST	ENDS
;	COMDAT ??_C@_08LLGCOLLL@iostream?$AA@
CONST	SEGMENT
??_C@_08LLGCOLLL@iostream?$AA@ DB 'iostream', 00H	; `string'
CONST	ENDS
;	COMDAT ??_7_Iostream_error_category@std@@6B@
CONST	SEGMENT
??_7_Iostream_error_category@std@@6B@ DD FLAT:??_R4_Iostream_error_category@std@@6B@ ; std::_Iostream_error_category::`vftable'
	DD	FLAT:??_E_Iostream_error_category@std@@UAEPAXI@Z
	DD	FLAT:?name@_Iostream_error_category@std@@UBEPBDXZ
	DD	FLAT:?message@_Iostream_error_category@std@@UBE?AV?$basic_string@DU?$char_traits@D@std@@V?$allocator@D@2@@2@H@Z
	DD	FLAT:?default_error_condition@error_category@std@@UBE?AVerror_condition@2@H@Z
	DD	FLAT:?equivalent@error_category@std@@UBE_NABVerror_code@2@H@Z
	DD	FLAT:?equivalent@error_category@std@@UBE_NHABVerror_condition@2@@Z
CONST	ENDS
;	COMDAT ??_C@_0O@BFJCFAAK@unknown?5error?$AA@
CONST	SEGMENT
??_C@_0O@BFJCFAAK@unknown?5error?$AA@ DB 'unknown error', 00H ; `string'
CONST	ENDS
;	COMDAT ??_C@_07DCLBNMLN@generic?$AA@
CONST	SEGMENT
??_C@_07DCLBNMLN@generic?$AA@ DB 'generic', 00H		; `string'
CONST	ENDS
;	COMDAT ??_7_Generic_error_category@std@@6B@
CONST	SEGMENT
??_7_Generic_error_category@std@@6B@ DD FLAT:??_R4_Generic_error_category@std@@6B@ ; std::_Generic_error_category::`vftable'
	DD	FLAT:??_E_Generic_error_category@std@@UAEPAXI@Z
	DD	FLAT:?name@_Generic_error_category@std@@UBEPBDXZ
	DD	FLAT:?message@_Generic_error_category@std@@UBE?AV?$basic_string@DU?$char_traits@D@std@@V?$allocator@D@2@@2@H@Z
	DD	FLAT:?default_error_condition@error_category@std@@UBE?AVerror_condition@2@H@Z
	DD	FLAT:?equivalent@error_category@std@@UBE_NABVerror_code@2@H@Z
	DD	FLAT:?equivalent@error_category@std@@UBE_NHABVerror_condition@2@@Z
CONST	ENDS
;	COMDAT ??_7error_category@std@@6B@
CONST	SEGMENT
??_7error_category@std@@6B@ DD FLAT:??_R4error_category@std@@6B@ ; std::error_category::`vftable'
	DD	FLAT:??_Eerror_category@std@@UAEPAXI@Z
	DD	FLAT:__purecall
	DD	FLAT:__purecall
	DD	FLAT:?default_error_condition@error_category@std@@UBE?AVerror_condition@2@H@Z
	DD	FLAT:?equivalent@error_category@std@@UBE_NABVerror_code@2@H@Z
	DD	FLAT:?equivalent@error_category@std@@UBE_NHABVerror_condition@2@@Z
CONST	ENDS
;	COMDAT xdata$x
xdata$x	SEGMENT
__unwindtable$??$construct@PADAAPAD@?$allocator@D@std@@QAEXPAPADAAPAD@Z DD 0ffffffffH
	DD	FLAT:__unwindfunclet$??$construct@PADAAPAD@?$allocator@D@std@@QAEXPAPADAAPAD@Z$0
__ehfuncinfo$??$construct@PADAAPAD@?$allocator@D@std@@QAEXPAPADAAPAD@Z DD 019930522H
	DD	01H
	DD	FLAT:__unwindtable$??$construct@PADAAPAD@?$allocator@D@std@@QAEXPAPADAAPAD@Z
	DD	2 DUP(00H)
	DD	2 DUP(00H)
	DD	00H
	DD	01H
xdata$x	ENDS
xdata$x	SEGMENT
__unwindtable$?CalcMuFric@AirframeClass@@QAEMH@Z DD 0ffffffffH
	DD	FLAT:__unwindfunclet$?CalcMuFric@AirframeClass@@QAEMH@Z$0
__unwindtable$?CheckGroundImpact@AirframeClass@@QAEXM@Z DD 0ffffffffH
	DD	FLAT:__unwindfunclet$?CheckGroundImpact@AirframeClass@@QAEXM@Z$0
__ehfuncinfo$?CalcMuFric@AirframeClass@@QAEMH@Z DD 019930522H
	DD	01H
	DD	FLAT:__unwindtable$?CalcMuFric@AirframeClass@@QAEMH@Z
	DD	2 DUP(00H)
	DD	2 DUP(00H)
	DD	00H
	DD	01H
__ehfuncinfo$?CheckGroundImpact@AirframeClass@@QAEXM@Z DD 019930522H
	DD	01H
	DD	FLAT:__unwindtable$?CheckGroundImpact@AirframeClass@@QAEXM@Z
	DD	2 DUP(00H)
	DD	2 DUP(00H)
	DD	00H
	DD	01H
xdata$x	ENDS
;	COMDAT xdata$x
xdata$x	SEGMENT
__catchsym$?_Copy@?$basic_string@DU?$char_traits@D@std@@V?$allocator@D@2@@std@@QAEXII@Z$5 DD 040H
	DD	00H
	DD	00H
	DD	FLAT:__catch$?_Copy@?$basic_string@DU?$char_traits@D@std@@V?$allocator@D@2@@std@@QAEXII@Z$0
__catchsym$?_Copy@?$basic_string@DU?$char_traits@D@std@@V?$allocator@D@2@@std@@QAEXII@Z$4 DD 040H
	DD	00H
	DD	00H
	DD	FLAT:__catch$?_Copy@?$basic_string@DU?$char_traits@D@std@@V?$allocator@D@2@@std@@QAEXII@Z$1
__unwindtable$?_Copy@?$basic_string@DU?$char_traits@D@std@@V?$allocator@D@2@@std@@QAEXII@Z DD 0ffffffffH
	DD	00H
	DD	0ffffffffH
	DD	00H
	DD	01H
	DD	00H
	DD	01H
	DD	00H
__ehfuncinfo$?_Copy@?$basic_string@DU?$char_traits@D@std@@V?$allocator@D@2@@std@@QAEXII@Z DD 019930522H
	DD	04H
	DD	FLAT:__unwindtable$?_Copy@?$basic_string@DU?$char_traits@D@std@@V?$allocator@D@2@@std@@QAEXII@Z
	DD	02H
	DD	FLAT:__tryblocktable$?_Copy@?$basic_string@DU?$char_traits@D@std@@V?$allocator@D@2@@std@@QAEXII@Z
	DD	2 DUP(00H)
	DD	00H
	DD	01H
__tryblocktable$?_Copy@?$basic_string@DU?$char_traits@D@std@@V?$allocator@D@2@@std@@QAEXII@Z DD 02H
	DD	02H
	DD	03H
	DD	01H
	DD	FLAT:__catchsym$?_Copy@?$basic_string@DU?$char_traits@D@std@@V?$allocator@D@2@@std@@QAEXII@Z$4
	DD	00H
	DD	00H
	DD	03H
	DD	01H
	DD	FLAT:__catchsym$?_Copy@?$basic_string@DU?$char_traits@D@std@@V?$allocator@D@2@@std@@QAEXII@Z$5
xdata$x	ENDS
CRT$XCU	SEGMENT
_allocator_arg$initializer$ DD FLAT:??__Eallocator_arg@std@@YAXXZ
CRT$XCU	ENDS
;	COMDAT CRT$XCU
CRT$XCU	SEGMENT
?_Generic_object$initializer$@?$_Error_objects@H@std@@2P6AXXZA DD FLAT:??__E?_Generic_object@?$_Error_objects@H@std@@2V_Generic_error_category@2@A@@YAXXZ ; std::_Error_objects<int>::_Generic_object$initializer$
CRT$XCU	ENDS
;	COMDAT CRT$XCU
CRT$XCU	SEGMENT
?_Iostream_object$initializer$@?$_Error_objects@H@std@@2P6AXXZA DD FLAT:??__E?_Iostream_object@?$_Error_objects@H@std@@2V_Iostream_error_category@2@A@@YAXXZ ; std::_Error_objects<int>::_Iostream_object$initializer$
CRT$XCU	ENDS
;	COMDAT CRT$XCU
CRT$XCU	SEGMENT
?_System_object$initializer$@?$_Error_objects@H@std@@2P6AXXZA DD FLAT:??__E?_System_object@?$_Error_objects@H@std@@2V_System_error_category@2@A@@YAXXZ ; std::_Error_objects<int>::_System_object$initializer$
CRT$XCU	ENDS
;	COMDAT CRT$XCU
CRT$XCU	SEGMENT
?id$initializer$@?$num_put@DV?$back_insert_iterator@V?$basic_string@DU?$char_traits@D@std@@V?$allocator@D@2@@std@@@std@@@std@@2P6AXXZA DD FLAT:??__E?id@?$num_put@DV?$back_insert_iterator@V?$basic_string@DU?$char_traits@D@std@@V?$allocator@D@2@@std@@@std@@@std@@2V0locale@2@A@@YAXXZ ; std::num_put<char,std::back_insert_iterator<std::basic_string<char,std::char_traits<char>,std::allocator<char> > > >::id$initializer$
CRT$XCU	ENDS
;	COMDAT CRT$XCU
CRT$XCU	SEGMENT
?id$initializer$@?$num_put@_WV?$back_insert_iterator@V?$basic_string@_WU?$char_traits@_W@std@@V?$allocator@_W@2@@std@@@std@@@std@@2P6AXXZA DD FLAT:??__E?id@?$num_put@_WV?$back_insert_iterator@V?$basic_string@_WU?$char_traits@_W@std@@V?$allocator@_W@2@@std@@@std@@@std@@2V0locale@2@A@@YAXXZ ; std::num_put<wchar_t,std::back_insert_iterator<std::basic_string<wchar_t,std::char_traits<wchar_t>,std::allocator<wchar_t> > > >::id$initializer$
CRT$XCU	ENDS
;	COMDAT CRT$XCU
CRT$XCU	SEGMENT
?id$initializer$@?$numpunct@D@std@@2P6AXXZA DD FLAT:??__E?id@?$numpunct@D@std@@2V0locale@2@A@@YAXXZ ; std::numpunct<char>::id$initializer$
CRT$XCU	ENDS
;	COMDAT CRT$XCU
CRT$XCU	SEGMENT
?id$initializer$@?$numpunct@_W@std@@2P6AXXZA DD FLAT:??__E?id@?$numpunct@_W@std@@2V0locale@2@A@@YAXXZ ; std::numpunct<wchar_t>::id$initializer$
CRT$XCU	ENDS
; Function compile flags: /Odtp
; File c:\program files (x86)\microsoft visual studio 11.0\vc\include\xmemory0
;	COMDAT ??$destroy@PAD@?$allocator@D@std@@QAEXPAPAD@Z
_TEXT	SEGMENT
_this$ = -4						; size = 4
__Ptr$ = 8						; size = 4
??$destroy@PAD@?$allocator@D@std@@QAEXPAPAD@Z PROC	; std::allocator<char>::destroy<char *>, COMDAT
; _this$ = ecx

; 621  : 		void destroy(_Uty *_Ptr)

	push	ebp
	mov	ebp, esp
	push	ecx
	mov	DWORD PTR _this$[ebp], ecx

; 622  : 		{	// destroy object at _Ptr
; 623  : 		_Ptr->~_Uty();
; 624  : 		}

	mov	esp, ebp
	pop	ebp
	ret	4
??$destroy@PAD@?$allocator@D@std@@QAEXPAPAD@Z ENDP	; std::allocator<char>::destroy<char *>
_TEXT	ENDS
; Function compile flags: /Odtp
; File c:\program files (x86)\microsoft visual studio 11.0\vc\include\xmemory0
;	COMDAT ??$construct@PADAAPAD@?$allocator@D@std@@QAEXPAPADAAPAD@Z
_TEXT	SEGMENT
$T2 = -28						; size = 4
_this$ = -24						; size = 4
tv73 = -20						; size = 4
$T3 = -16						; size = 4
__$EHRec$ = -12						; size = 12
__Ptr$ = 8						; size = 4
__V0$ = 12						; size = 4
??$construct@PADAAPAD@?$allocator@D@std@@QAEXPAPADAAPAD@Z PROC ; std::allocator<char>::construct<char *,char * &>, COMDAT
; _this$ = ecx

; 617  : _VARIADIC_EXPAND_0X(_ALLOC_MEMBER_CONSTRUCT, , , , )

	push	ebp
	mov	ebp, esp
	push	-1
	push	__ehhandler$??$construct@PADAAPAD@?$allocator@D@std@@QAEXPAPADAAPAD@Z
	mov	eax, DWORD PTR fs:0
	push	eax
	sub	esp, 16					; 00000010H
	mov	eax, DWORD PTR ___security_cookie
	xor	eax, ebp
	push	eax
	lea	eax, DWORD PTR __$EHRec$[ebp]
	mov	DWORD PTR fs:0, eax
	mov	DWORD PTR _this$[ebp], ecx
	mov	eax, DWORD PTR __Ptr$[ebp]
	push	eax
	push	4
	call	??2@YAPAXIPAX@Z				; operator new
	add	esp, 8
	mov	DWORD PTR $T3[ebp], eax
	mov	DWORD PTR __$EHRec$[ebp+8], 0
	cmp	DWORD PTR $T3[ebp], 0
	je	SHORT $LN3@construct
	mov	ecx, DWORD PTR __V0$[ebp]
	push	ecx
	call	??$forward@AAPAD@std@@YAAAPADAAPAD@Z	; std::forward<char * &>
	add	esp, 4
	mov	edx, DWORD PTR $T3[ebp]
	mov	eax, DWORD PTR [eax]
	mov	DWORD PTR [edx], eax
	mov	ecx, DWORD PTR $T3[ebp]
	mov	DWORD PTR tv73[ebp], ecx
	jmp	SHORT $LN4@construct
$LN3@construct:
	mov	DWORD PTR tv73[ebp], 0
$LN4@construct:
	mov	edx, DWORD PTR tv73[ebp]
	mov	DWORD PTR $T2[ebp], edx
	mov	DWORD PTR __$EHRec$[ebp+8], -1
	mov	ecx, DWORD PTR __$EHRec$[ebp]
	mov	DWORD PTR fs:0, ecx
	pop	ecx
	mov	esp, ebp
	pop	ebp
	ret	8
_TEXT	ENDS
;	COMDAT text$x
text$x	SEGMENT
__unwindfunclet$??$construct@PADAAPAD@?$allocator@D@std@@QAEXPAPADAAPAD@Z$0:
	mov	eax, DWORD PTR __Ptr$[ebp]
	push	eax
	mov	eax, DWORD PTR $T3[ebp]
	push	eax
	call	??3@YAXPAX0@Z				; operator delete
	add	esp, 8
	ret	0
__ehhandler$??$construct@PADAAPAD@?$allocator@D@std@@QAEXPAPADAAPAD@Z:
	mov	edx, DWORD PTR [esp+8]
	lea	eax, DWORD PTR [edx+12]
	mov	ecx, DWORD PTR [edx-20]
	xor	ecx, eax
	call	@__security_check_cookie@4
	mov	eax, OFFSET __ehfuncinfo$??$construct@PADAAPAD@?$allocator@D@std@@QAEXPAPADAAPAD@Z
	jmp	___CxxFrameHandler3
text$x	ENDS
??$construct@PADAAPAD@?$allocator@D@std@@QAEXPAPADAAPAD@Z ENDP ; std::allocator<char>::construct<char *,char * &>
; Function compile flags: /Odtp
; File c:\program files (x86)\microsoft visual studio 11.0\vc\include\xlocnum
;	COMDAT ??__E?id@?$numpunct@_W@std@@2V0locale@2@A@@YAXXZ
text$yc	SEGMENT
??__E?id@?$numpunct@_W@std@@2V0locale@2@A@@YAXXZ PROC	; `dynamic initializer for 'std::numpunct<wchar_t>::id'', COMDAT

; 155  : 		void _Getvals(wchar_t, const lconv *_Ptr, _Locinfo::_Cvtvec)

	push	ebp
	mov	ebp, esp
	push	0
	mov	ecx, OFFSET ?id@?$numpunct@_W@std@@2V0locale@2@A ; std::numpunct<wchar_t>::id
	call	??0id@locale@std@@QAE@I@Z		; std::locale::id::id
	pop	ebp
	ret	0
??__E?id@?$numpunct@_W@std@@2V0locale@2@A@@YAXXZ ENDP	; `dynamic initializer for 'std::numpunct<wchar_t>::id''
text$yc	ENDS
; Function compile flags: /Odtp
; File c:\program files (x86)\microsoft visual studio 11.0\vc\include\xlocnum
;	COMDAT ??__E?id@?$numpunct@D@std@@2V0locale@2@A@@YAXXZ
text$yc	SEGMENT
??__E?id@?$numpunct@D@std@@2V0locale@2@A@@YAXXZ PROC	; `dynamic initializer for 'std::numpunct<char>::id'', COMDAT

; 155  : 		void _Getvals(wchar_t, const lconv *_Ptr, _Locinfo::_Cvtvec)

	push	ebp
	mov	ebp, esp
	push	0
	mov	ecx, OFFSET ?id@?$numpunct@D@std@@2V0locale@2@A ; std::numpunct<char>::id
	call	??0id@locale@std@@QAE@I@Z		; std::locale::id::id
	pop	ebp
	ret	0
??__E?id@?$numpunct@D@std@@2V0locale@2@A@@YAXXZ ENDP	; `dynamic initializer for 'std::numpunct<char>::id''
text$yc	ENDS
; Function compile flags: /Odtp
; File c:\program files (x86)\microsoft visual studio 11.0\vc\include\xlocnum
;	COMDAT ??__E?id@?$num_put@_WV?$back_insert_iterator@V?$basic_string@_WU?$char_traits@_W@std@@V?$allocator@_W@2@@std@@@std@@@std@@2V0locale@2@A@@YAXXZ
text$yc	SEGMENT
??__E?id@?$num_put@_WV?$back_insert_iterator@V?$basic_string@_WU?$char_traits@_W@std@@V?$allocator@_W@2@@std@@@std@@@std@@2V0locale@2@A@@YAXXZ PROC ; `dynamic initializer for 'std::num_put<wchar_t,std::back_insert_iterator<std::basic_string<wchar_t,std::char_traits<wchar_t>,std::allocator<wchar_t> > > >::id'', COMDAT

; 155  : 		void _Getvals(wchar_t, const lconv *_Ptr, _Locinfo::_Cvtvec)

	push	ebp
	mov	ebp, esp
	push	0
	mov	ecx, OFFSET ?id@?$num_put@_WV?$back_insert_iterator@V?$basic_string@_WU?$char_traits@_W@std@@V?$allocator@_W@2@@std@@@std@@@std@@2V0locale@2@A ; std::num_put<wchar_t,std::back_insert_iterator<std::basic_string<wchar_t,std::char_traits<wchar_t>,std::allocator<wchar_t> > > >::id
	call	??0id@locale@std@@QAE@I@Z		; std::locale::id::id
	pop	ebp
	ret	0
??__E?id@?$num_put@_WV?$back_insert_iterator@V?$basic_string@_WU?$char_traits@_W@std@@V?$allocator@_W@2@@std@@@std@@@std@@2V0locale@2@A@@YAXXZ ENDP ; `dynamic initializer for 'std::num_put<wchar_t,std::back_insert_iterator<std::basic_string<wchar_t,std::char_traits<wchar_t>,std::allocator<wchar_t> > > >::id''
text$yc	ENDS
; Function compile flags: /Odtp
; File c:\program files (x86)\microsoft visual studio 11.0\vc\include\xlocnum
;	COMDAT ??__E?id@?$num_put@DV?$back_insert_iterator@V?$basic_string@DU?$char_traits@D@std@@V?$allocator@D@2@@std@@@std@@@std@@2V0locale@2@A@@YAXXZ
text$yc	SEGMENT
??__E?id@?$num_put@DV?$back_insert_iterator@V?$basic_string@DU?$char_traits@D@std@@V?$allocator@D@2@@std@@@std@@@std@@2V0locale@2@A@@YAXXZ PROC ; `dynamic initializer for 'std::num_put<char,std::back_insert_iterator<std::basic_string<char,std::char_traits<char>,std::allocator<char> > > >::id'', COMDAT

; 155  : 		void _Getvals(wchar_t, const lconv *_Ptr, _Locinfo::_Cvtvec)

	push	ebp
	mov	ebp, esp
	push	0
	mov	ecx, OFFSET ?id@?$num_put@DV?$back_insert_iterator@V?$basic_string@DU?$char_traits@D@std@@V?$allocator@D@2@@std@@@std@@@std@@2V0locale@2@A ; std::num_put<char,std::back_insert_iterator<std::basic_string<char,std::char_traits<char>,std::allocator<char> > > >::id
	call	??0id@locale@std@@QAE@I@Z		; std::locale::id::id
	pop	ebp
	ret	0
??__E?id@?$num_put@DV?$back_insert_iterator@V?$basic_string@DU?$char_traits@D@std@@V?$allocator@D@2@@std@@@std@@@std@@2V0locale@2@A@@YAXXZ ENDP ; `dynamic initializer for 'std::num_put<char,std::back_insert_iterator<std::basic_string<char,std::char_traits<char>,std::allocator<char> > > >::id''
text$yc	ENDS
; Function compile flags: /Odtp
; File c:\program files (x86)\microsoft visual studio 11.0\vc\include\xmemory0
;	COMDAT ??$destroy@PAD@?$allocator_traits@V?$allocator@D@std@@@std@@SAXAAV?$allocator@D@1@PAPAD@Z
_TEXT	SEGMENT
__Al$ = 8						; size = 4
__Ptr$ = 12						; size = 4
??$destroy@PAD@?$allocator_traits@V?$allocator@D@std@@@std@@SAXAAV?$allocator@D@1@PAPAD@Z PROC ; std::allocator_traits<std::allocator<char> >::destroy<char *>, COMDAT

; 755  : 		static void destroy(_Alloc& _Al, _Uty *_Ptr)

	push	ebp
	mov	ebp, esp

; 756  : 		{	// destroy object at _Ptr
; 757  : 		_Al.destroy(_Ptr);

	mov	eax, DWORD PTR __Ptr$[ebp]
	push	eax
	mov	ecx, DWORD PTR __Al$[ebp]
	call	??$destroy@PAD@?$allocator@D@std@@QAEXPAPAD@Z ; std::allocator<char>::destroy<char *>

; 758  : 		}

	pop	ebp
	ret	0
??$destroy@PAD@?$allocator_traits@V?$allocator@D@std@@@std@@SAXAAV?$allocator@D@1@PAPAD@Z ENDP ; std::allocator_traits<std::allocator<char> >::destroy<char *>
_TEXT	ENDS
; Function compile flags: /Odtp
; File c:\program files (x86)\microsoft visual studio 11.0\vc\include\xmemory0
;	COMDAT ??$construct@PADAAPAD@?$allocator_traits@V?$allocator@D@std@@@std@@SAXAAV?$allocator@D@1@PAPADAAPAD@Z
_TEXT	SEGMENT
__Al$ = 8						; size = 4
__Ptr$ = 12						; size = 4
__V0$ = 16						; size = 4
??$construct@PADAAPAD@?$allocator_traits@V?$allocator@D@std@@@std@@SAXAAV?$allocator@D@1@PAPADAAPAD@Z PROC ; std::allocator_traits<std::allocator<char> >::construct<char *,char * &>, COMDAT

; 751  : _VARIADIC_EXPAND_0X(_ALLOC_TRAITS_SPECIAL_CONSTRUCT, , , , )

	push	ebp
	mov	ebp, esp
	mov	eax, DWORD PTR __V0$[ebp]
	push	eax
	call	??$forward@AAPAD@std@@YAAAPADAAPAD@Z	; std::forward<char * &>
	add	esp, 4
	push	eax
	mov	ecx, DWORD PTR __Ptr$[ebp]
	push	ecx
	mov	ecx, DWORD PTR __Al$[ebp]
	call	??$construct@PADAAPAD@?$allocator@D@std@@QAEXPAPADAAPAD@Z ; std::allocator<char>::construct<char *,char * &>
	pop	ebp
	ret	0
??$construct@PADAAPAD@?$allocator_traits@V?$allocator@D@std@@@std@@SAXAAV?$allocator@D@1@PAPADAAPAD@Z ENDP ; std::allocator_traits<std::allocator<char> >::construct<char *,char * &>
_TEXT	ENDS
; Function compile flags: /Odtp
; File c:\program files (x86)\microsoft visual studio 11.0\vc\include\type_traits
;	COMDAT ??$forward@AAPAD@std@@YAAAPADAAPAD@Z
_TEXT	SEGMENT
__Arg$ = 8						; size = 4
??$forward@AAPAD@std@@YAAAPADAAPAD@Z PROC		; std::forward<char * &>, COMDAT

; 1775 : 	{	// forward an lvalue

	push	ebp
	mov	ebp, esp

; 1776 : 	return (static_cast<_Ty&&>(_Arg));

	mov	eax, DWORD PTR __Arg$[ebp]

; 1777 : 	}

	pop	ebp
	ret	0
??$forward@AAPAD@std@@YAAAPADAAPAD@Z ENDP		; std::forward<char * &>
_TEXT	ENDS
; Function compile flags: /Odtp
;	COMDAT ??__F?_System_object@?$_Error_objects@H@std@@2V_System_error_category@2@A@@YAXXZ
text$yd	SEGMENT
??__F?_System_object@?$_Error_objects@H@std@@2V_System_error_category@2@A@@YAXXZ PROC ; `dynamic atexit destructor for 'std::_Error_objects<int>::_System_object'', COMDAT
	push	ebp
	mov	ebp, esp
	mov	ecx, OFFSET ?_System_object@?$_Error_objects@H@std@@2V_System_error_category@2@A ; std::_Error_objects<int>::_System_object
	call	??1_System_error_category@std@@UAE@XZ
	pop	ebp
	ret	0
??__F?_System_object@?$_Error_objects@H@std@@2V_System_error_category@2@A@@YAXXZ ENDP ; `dynamic atexit destructor for 'std::_Error_objects<int>::_System_object''
text$yd	ENDS
; Function compile flags: /Odtp
; File c:\program files (x86)\microsoft visual studio 11.0\vc\include\xmemory0
;	COMDAT ??__E?_System_object@?$_Error_objects@H@std@@2V_System_error_category@2@A@@YAXXZ
text$yc	SEGMENT
??__E?_System_object@?$_Error_objects@H@std@@2V_System_error_category@2@A@@YAXXZ PROC ; `dynamic initializer for 'std::_Error_objects<int>::_System_object'', COMDAT

; 627  : 		{	// estimate maximum array size

	push	ebp
	mov	ebp, esp
	mov	ecx, OFFSET ?_System_object@?$_Error_objects@H@std@@2V_System_error_category@2@A ; std::_Error_objects<int>::_System_object
	call	??0_System_error_category@std@@QAE@XZ	; std::_System_error_category::_System_error_category
	push	OFFSET ??__F?_System_object@?$_Error_objects@H@std@@2V_System_error_category@2@A@@YAXXZ ; `dynamic atexit destructor for 'std::_Error_objects<int>::_System_object''
	call	_atexit
	add	esp, 4
	pop	ebp
	ret	0
??__E?_System_object@?$_Error_objects@H@std@@2V_System_error_category@2@A@@YAXXZ ENDP ; `dynamic initializer for 'std::_Error_objects<int>::_System_object''
text$yc	ENDS
; Function compile flags: /Odtp
;	COMDAT ??__F?_Iostream_object@?$_Error_objects@H@std@@2V_Iostream_error_category@2@A@@YAXXZ
text$yd	SEGMENT
??__F?_Iostream_object@?$_Error_objects@H@std@@2V_Iostream_error_category@2@A@@YAXXZ PROC ; `dynamic atexit destructor for 'std::_Error_objects<int>::_Iostream_object'', COMDAT
	push	ebp
	mov	ebp, esp
	mov	ecx, OFFSET ?_Iostream_object@?$_Error_objects@H@std@@2V_Iostream_error_category@2@A ; std::_Error_objects<int>::_Iostream_object
	call	??1_Iostream_error_category@std@@UAE@XZ
	pop	ebp
	ret	0
??__F?_Iostream_object@?$_Error_objects@H@std@@2V_Iostream_error_category@2@A@@YAXXZ ENDP ; `dynamic atexit destructor for 'std::_Error_objects<int>::_Iostream_object''
text$yd	ENDS
; Function compile flags: /Odtp
; File c:\program files (x86)\microsoft visual studio 11.0\vc\include\xmemory0
;	COMDAT ??__E?_Iostream_object@?$_Error_objects@H@std@@2V_Iostream_error_category@2@A@@YAXXZ
text$yc	SEGMENT
??__E?_Iostream_object@?$_Error_objects@H@std@@2V_Iostream_error_category@2@A@@YAXXZ PROC ; `dynamic initializer for 'std::_Error_objects<int>::_Iostream_object'', COMDAT

; 627  : 		{	// estimate maximum array size

	push	ebp
	mov	ebp, esp
	mov	ecx, OFFSET ?_Iostream_object@?$_Error_objects@H@std@@2V_Iostream_error_category@2@A ; std::_Error_objects<int>::_Iostream_object
	call	??0_Iostream_error_category@std@@QAE@XZ	; std::_Iostream_error_category::_Iostream_error_category
	push	OFFSET ??__F?_Iostream_object@?$_Error_objects@H@std@@2V_Iostream_error_category@2@A@@YAXXZ ; `dynamic atexit destructor for 'std::_Error_objects<int>::_Iostream_object''
	call	_atexit
	add	esp, 4
	pop	ebp
	ret	0
??__E?_Iostream_object@?$_Error_objects@H@std@@2V_Iostream_error_category@2@A@@YAXXZ ENDP ; `dynamic initializer for 'std::_Error_objects<int>::_Iostream_object''
text$yc	ENDS
; Function compile flags: /Odtp
;	COMDAT ??__F?_Generic_object@?$_Error_objects@H@std@@2V_Generic_error_category@2@A@@YAXXZ
text$yd	SEGMENT
??__F?_Generic_object@?$_Error_objects@H@std@@2V_Generic_error_category@2@A@@YAXXZ PROC ; `dynamic atexit destructor for 'std::_Error_objects<int>::_Generic_object'', COMDAT
	push	ebp
	mov	ebp, esp
	mov	ecx, OFFSET ?_Generic_object@?$_Error_objects@H@std@@2V_Generic_error_category@2@A ; std::_Error_objects<int>::_Generic_object
	call	??1_Generic_error_category@std@@UAE@XZ
	pop	ebp
	ret	0
??__F?_Generic_object@?$_Error_objects@H@std@@2V_Generic_error_category@2@A@@YAXXZ ENDP ; `dynamic atexit destructor for 'std::_Error_objects<int>::_Generic_object''
text$yd	ENDS
; Function compile flags: /Odtp
; File c:\program files (x86)\microsoft visual studio 11.0\vc\include\xmemory0
;	COMDAT ??__E?_Generic_object@?$_Error_objects@H@std@@2V_Generic_error_category@2@A@@YAXXZ
text$yc	SEGMENT
??__E?_Generic_object@?$_Error_objects@H@std@@2V_Generic_error_category@2@A@@YAXXZ PROC ; `dynamic initializer for 'std::_Error_objects<int>::_Generic_object'', COMDAT

; 627  : 		{	// estimate maximum array size

	push	ebp
	mov	ebp, esp
	mov	ecx, OFFSET ?_Generic_object@?$_Error_objects@H@std@@2V_Generic_error_category@2@A ; std::_Error_objects<int>::_Generic_object
	call	??0_Generic_error_category@std@@QAE@XZ	; std::_Generic_error_category::_Generic_error_category
	push	OFFSET ??__F?_Generic_object@?$_Error_objects@H@std@@2V_Generic_error_category@2@A@@YAXXZ ; `dynamic atexit destructor for 'std::_Error_objects<int>::_Generic_object''
	call	_atexit
	add	esp, 4
	pop	ebp
	ret	0
??__E?_Generic_object@?$_Error_objects@H@std@@2V_Generic_error_category@2@A@@YAXXZ ENDP ; `dynamic initializer for 'std::_Error_objects<int>::_Generic_object''
text$yc	ENDS
; Function compile flags: /Odtp
; File c:\program files (x86)\microsoft visual studio 11.0\vc\include\xmemory0
;	COMDAT ??$_Allocate@D@std@@YAPADIPAD@Z
_TEXT	SEGMENT
__Ptr$ = -4						; size = 4
__Count$ = 8						; size = 4
___formal$ = 12						; size = 4
??$_Allocate@D@std@@YAPADIPAD@Z PROC			; std::_Allocate<char>, COMDAT

; 22   : 	{	// allocate storage for _Count elements of type _Ty

	push	ebp
	mov	ebp, esp
	push	ecx

; 23   : 	void *_Ptr = 0;

	mov	DWORD PTR __Ptr$[ebp], 0

; 24   : 
; 25   : 	if (_Count == 0)

	cmp	DWORD PTR __Count$[ebp], 0
	jne	SHORT $LN4@Allocate

; 26   : 		;
; 27   : 	else if (((size_t)(-1) / sizeof (_Ty) < _Count)

	jmp	SHORT $LN3@Allocate
$LN4@Allocate:

; 28   : 		|| (_Ptr = ::operator new(_Count * sizeof (_Ty))) == 0)

	cmp	DWORD PTR __Count$[ebp], -1
	ja	SHORT $LN1@Allocate
	mov	eax, DWORD PTR __Count$[ebp]
	push	eax
	call	??2@YAPAXI@Z				; operator new
	add	esp, 4
	mov	DWORD PTR __Ptr$[ebp], eax
	cmp	DWORD PTR __Ptr$[ebp], 0
	jne	SHORT $LN3@Allocate
$LN1@Allocate:

; 29   : 		_Xbad_alloc();	// report no memory

	call	?_Xbad_alloc@std@@YAXXZ			; std::_Xbad_alloc
$LN3@Allocate:

; 30   : 
; 31   : 	return ((_Ty *)_Ptr);

	mov	eax, DWORD PTR __Ptr$[ebp]
$LN6@Allocate:

; 32   : 	}

	mov	esp, ebp
	pop	ebp
	ret	0
??$_Allocate@D@std@@YAPADIPAD@Z ENDP			; std::_Allocate<char>
_TEXT	ENDS
; Function compile flags: /Odtp
; File c:\program files (x86)\microsoft visual studio 11.0\vc\include\xstddef
;	COMDAT ??$addressof@D@std@@YAPADAAD@Z
_TEXT	SEGMENT
__Val$ = 8						; size = 4
??$addressof@D@std@@YAPADAAD@Z PROC			; std::addressof<char>, COMDAT

; 85   : 	{	// return address of _Val

	push	ebp
	mov	ebp, esp

; 86   : 	return (reinterpret_cast<_Ty *>(
; 87   : 		(&const_cast<char&>(
; 88   : 		reinterpret_cast<const volatile char&>(_Val)))));

	mov	eax, DWORD PTR __Val$[ebp]

; 89   : 	}

	pop	ebp
	ret	0
??$addressof@D@std@@YAPADAAD@Z ENDP			; std::addressof<char>
_TEXT	ENDS
; Function compile flags: /Odtp
; File c:\program files (x86)\microsoft visual studio 11.0\vc\include\xmemory0
;	COMDAT ??$destroy@PAD@?$_Wrap_alloc@V?$allocator@D@std@@@std@@QAEXPAPAD@Z
_TEXT	SEGMENT
_this$ = -4						; size = 4
__Ptr$ = 8						; size = 4
??$destroy@PAD@?$_Wrap_alloc@V?$allocator@D@std@@@std@@QAEXPAPAD@Z PROC ; std::_Wrap_alloc<std::allocator<char> >::destroy<char *>, COMDAT
; _this$ = ecx

; 907  : 		void destroy(_Ty *_Ptr)

	push	ebp
	mov	ebp, esp
	push	ecx
	mov	DWORD PTR _this$[ebp], ecx

; 908  : 		{	// destroy object at _Ptr
; 909  : 		_Mytraits::destroy(*this, _Ptr);

	mov	eax, DWORD PTR __Ptr$[ebp]
	push	eax
	mov	ecx, DWORD PTR _this$[ebp]
	push	ecx
	call	??$destroy@PAD@?$allocator_traits@V?$allocator@D@std@@@std@@SAXAAV?$allocator@D@1@PAPAD@Z ; std::allocator_traits<std::allocator<char> >::destroy<char *>
	add	esp, 8

; 910  : 		}

	mov	esp, ebp
	pop	ebp
	ret	4
??$destroy@PAD@?$_Wrap_alloc@V?$allocator@D@std@@@std@@QAEXPAPAD@Z ENDP ; std::_Wrap_alloc<std::allocator<char> >::destroy<char *>
_TEXT	ENDS
; Function compile flags: /Odtp
; File c:\program files (x86)\microsoft visual studio 11.0\vc\include\xmemory0
;	COMDAT ??$construct@PADAAPAD@?$_Wrap_alloc@V?$allocator@D@std@@@std@@QAEXPAPADAAPAD@Z
_TEXT	SEGMENT
_this$ = -4						; size = 4
__Ptr$ = 8						; size = 4
__V0$ = 12						; size = 4
??$construct@PADAAPAD@?$_Wrap_alloc@V?$allocator@D@std@@@std@@QAEXPAPADAAPAD@Z PROC ; std::_Wrap_alloc<std::allocator<char> >::construct<char *,char * &>, COMDAT
; _this$ = ecx

; 903  : _VARIADIC_EXPAND_0X(_WRAP_ALLOC_CONSTRUCT, , , , )

	push	ebp
	mov	ebp, esp
	push	ecx
	mov	DWORD PTR _this$[ebp], ecx
	mov	eax, DWORD PTR __V0$[ebp]
	push	eax
	call	??$forward@AAPAD@std@@YAAAPADAAPAD@Z	; std::forward<char * &>
	add	esp, 4
	push	eax
	mov	ecx, DWORD PTR __Ptr$[ebp]
	push	ecx
	mov	edx, DWORD PTR _this$[ebp]
	push	edx
	call	??$construct@PADAAPAD@?$allocator_traits@V?$allocator@D@std@@@std@@SAXAAV?$allocator@D@1@PAPADAAPAD@Z ; std::allocator_traits<std::allocator<char> >::construct<char *,char * &>
	add	esp, 12					; 0000000cH
	mov	esp, ebp
	pop	ebp
	ret	8
??$construct@PADAAPAD@?$_Wrap_alloc@V?$allocator@D@std@@@std@@QAEXPAPADAAPAD@Z ENDP ; std::_Wrap_alloc<std::allocator<char> >::construct<char *,char * &>
_TEXT	ENDS
; Function compile flags: /Odtp
; File c:\users\zhitao li\documents\visual studio 2012\projects\freefalcon\sim\include\digi.h
;	COMDAT ?WaitTime@DigitalBrain@@QAEKXZ
_TEXT	SEGMENT
_this$ = -4						; size = 4
?WaitTime@DigitalBrain@@QAEKXZ PROC			; DigitalBrain::WaitTime, COMDAT
; _this$ = ecx

; 767  : 	VU_TIME	WaitTime(void)							{return waittimer;}

	push	ebp
	mov	ebp, esp
	push	ecx
	mov	DWORD PTR _this$[ebp], ecx
	mov	eax, DWORD PTR _this$[ebp]
	mov	eax, DWORD PTR [eax+344]
	mov	esp, ebp
	pop	ebp
	ret	0
?WaitTime@DigitalBrain@@QAEKXZ ENDP			; DigitalBrain::WaitTime
_TEXT	ENDS
; Function compile flags: /Odtp
; File c:\users\zhitao li\documents\visual studio 2012\projects\freefalcon\sim\include\digi.h
;	COMDAT ?SetWaitTimer@DigitalBrain@@QAEXK@Z
_TEXT	SEGMENT
_this$ = -4						; size = 4
_timer$ = 8						; size = 4
?SetWaitTimer@DigitalBrain@@QAEXK@Z PROC		; DigitalBrain::SetWaitTimer, COMDAT
; _this$ = ecx

; 766  : 	void			SetWaitTimer(VU_TIME timer)		{waittimer = timer;}

	push	ebp
	mov	ebp, esp
	push	ecx
	mov	DWORD PTR _this$[ebp], ecx
	mov	eax, DWORD PTR _this$[ebp]
	mov	ecx, DWORD PTR _timer$[ebp]
	mov	DWORD PTR [eax+344], ecx
	mov	esp, ebp
	pop	ebp
	ret	4
?SetWaitTimer@DigitalBrain@@QAEXK@Z ENDP		; DigitalBrain::SetWaitTimer
_TEXT	ENDS
; Function compile flags: /Odtp
; File c:\users\zhitao li\documents\visual studio 2012\projects\freefalcon\sim\include\digi.h
;	COMDAT ?ATCStatus@DigitalBrain@@QAE?AW4AtcStatusEnum@@XZ
_TEXT	SEGMENT
_this$ = -4						; size = 4
?ATCStatus@DigitalBrain@@QAE?AW4AtcStatusEnum@@XZ PROC	; DigitalBrain::ATCStatus, COMDAT
; _this$ = ecx

; 765  : 	AtcStatusEnum	ATCStatus(void)							{return atcstatus;}

	push	ebp
	mov	ebp, esp
	push	ecx
	mov	DWORD PTR _this$[ebp], ecx
	mov	eax, DWORD PTR _this$[ebp]
	mov	eax, DWORD PTR [eax+328]
	mov	esp, ebp
	pop	ebp
	ret	0
?ATCStatus@DigitalBrain@@QAE?AW4AtcStatusEnum@@XZ ENDP	; DigitalBrain::ATCStatus
_TEXT	ENDS
; Function compile flags: /Odtp
; File c:\users\zhitao li\documents\visual studio 2012\projects\freefalcon\sim\include\digi.h
;	COMDAT ?SetATCStatus@DigitalBrain@@QAEXW4AtcStatusEnum@@@Z
_TEXT	SEGMENT
_this$ = -4						; size = 4
_status$ = 8						; size = 4
?SetATCStatus@DigitalBrain@@QAEXW4AtcStatusEnum@@@Z PROC ; DigitalBrain::SetATCStatus, COMDAT
; _this$ = ecx

; 764  : 	void			SetATCStatus(AtcStatusEnum status)		{atcstatus = status;}

	push	ebp
	mov	ebp, esp
	push	ecx
	mov	DWORD PTR _this$[ebp], ecx
	mov	eax, DWORD PTR _this$[ebp]
	mov	ecx, DWORD PTR _status$[ebp]
	mov	DWORD PTR [eax+328], ecx
	mov	esp, ebp
	pop	ebp
	ret	4
?SetATCStatus@DigitalBrain@@QAEXW4AtcStatusEnum@@@Z ENDP ; DigitalBrain::SetATCStatus
_TEXT	ENDS
; Function compile flags: /Odtp
; File c:\users\zhitao li\documents\visual studio 2012\projects\freefalcon\sim\include\digi.h
;	COMDAT ?IsSetATC@DigitalBrain@@QAEHH@Z
_TEXT	SEGMENT
_this$ = -8						; size = 4
tv68 = -4						; size = 4
_flag$ = 8						; size = 4
?IsSetATC@DigitalBrain@@QAEHH@Z PROC			; DigitalBrain::IsSetATC, COMDAT
; _this$ = ecx

; 709  : 	int		IsSetATC(int flag)								{return (atcFlags & flag) && TRUE;}

	push	ebp
	mov	ebp, esp
	sub	esp, 8
	mov	DWORD PTR _this$[ebp], ecx
	mov	eax, DWORD PTR _this$[ebp]
	mov	ecx, DWORD PTR [eax+300]
	and	ecx, DWORD PTR _flag$[ebp]
	je	SHORT $LN3@IsSetATC
	mov	edx, 1
	test	edx, edx
	je	SHORT $LN3@IsSetATC
	mov	DWORD PTR tv68[ebp], 1
	jmp	SHORT $LN4@IsSetATC
$LN3@IsSetATC:
	mov	DWORD PTR tv68[ebp], 0
$LN4@IsSetATC:
	mov	eax, DWORD PTR tv68[ebp]
	mov	esp, ebp
	pop	ebp
	ret	4
?IsSetATC@DigitalBrain@@QAEHH@Z ENDP			; DigitalBrain::IsSetATC
_TEXT	ENDS
; Function compile flags: /Odtp
; File c:\users\zhitao li\documents\visual studio 2012\projects\freefalcon\sim\include\digi.h
;	COMDAT ?SetATCFlag@DigitalBrain@@QAEXH@Z
_TEXT	SEGMENT
_this$ = -4						; size = 4
_flag$ = 8						; size = 4
?SetATCFlag@DigitalBrain@@QAEXH@Z PROC			; DigitalBrain::SetATCFlag, COMDAT
; _this$ = ecx

; 707  : 	void	SetATCFlag(int flag)							{atcFlags |= flag;}

	push	ebp
	mov	ebp, esp
	push	ecx
	mov	DWORD PTR _this$[ebp], ecx
	mov	eax, DWORD PTR _this$[ebp]
	mov	ecx, DWORD PTR [eax+300]
	or	ecx, DWORD PTR _flag$[ebp]
	mov	edx, DWORD PTR _this$[ebp]
	mov	DWORD PTR [edx+300], ecx
	mov	esp, ebp
	pop	ebp
	ret	4
?SetATCFlag@DigitalBrain@@QAEXH@Z ENDP			; DigitalBrain::SetATCFlag
_TEXT	ENDS
; Function compile flags: /Odtp
; File c:\users\zhitao li\documents\visual studio 2012\projects\freefalcon\sim\include\simdrive.h
;	COMDAT ?GetPlayerEntity@SimulationDriver@@QBEPAVSimMoverClass@@XZ
_TEXT	SEGMENT
_this$ = -4						; size = 4
?GetPlayerEntity@SimulationDriver@@QBEPAVSimMoverClass@@XZ PROC ; SimulationDriver::GetPlayerEntity, COMDAT
; _this$ = ecx

; 76   : 	SimMoverClass *GetPlayerEntity() const { return const_cast<SimMoverClass*>(playerEntity); }

	push	ebp
	mov	ebp, esp
	push	ecx
	mov	DWORD PTR _this$[ebp], ecx
	mov	eax, DWORD PTR _this$[ebp]
	mov	eax, DWORD PTR [eax+56]
	mov	esp, ebp
	pop	ebp
	ret	0
?GetPlayerEntity@SimulationDriver@@QBEPAVSimMoverClass@@XZ ENDP ; SimulationDriver::GetPlayerEntity
_TEXT	ENDS
; Function compile flags: /Odtp
; File c:\users\zhitao li\documents\visual studio 2012\projects\freefalcon\sim\include\simio.h
;	COMDAT ?AnalogIsUsed@SIMLIB_IO_CLASS@@QAE_NW4GameAxis_t@@@Z
_TEXT	SEGMENT
_this$ = -4						; size = 4
_id$ = 8						; size = 4
?AnalogIsUsed@SIMLIB_IO_CLASS@@QAE_NW4GameAxis_t@@@Z PROC ; SIMLIB_IO_CLASS::AnalogIsUsed, COMDAT
; _this$ = ecx

; 237  : 	bool	AnalogIsUsed(GameAxis_t id) { return ( analog[id].isUsed); };

	push	ebp
	mov	ebp, esp
	push	ecx
	mov	DWORD PTR _this$[ebp], ecx
	mov	eax, DWORD PTR _id$[ebp]
	imul	eax, 28					; 0000001cH
	mov	ecx, DWORD PTR _this$[ebp]
	mov	al, BYTE PTR [ecx+eax+12]
	mov	esp, ebp
	pop	ebp
	ret	4
?AnalogIsUsed@SIMLIB_IO_CLASS@@QAE_NW4GameAxis_t@@@Z ENDP ; SIMLIB_IO_CLASS::AnalogIsUsed
_TEXT	ENDS
; Function compile flags: /Odtp
; File c:\users\zhitao li\documents\visual studio 2012\projects\freefalcon\campaign\include\campbase.h
;	COMDAT ?GetType@CampBaseClass@@QBEEXZ
_TEXT	SEGMENT
_this$ = -4						; size = 4
?GetType@CampBaseClass@@QBEEXZ PROC			; CampBaseClass::GetType, COMDAT
; _this$ = ecx

; 289  : 	uchar GetType()	const						{	return (EntityType())->classInfo_[VU_TYPE]; }

	push	ebp
	mov	ebp, esp
	push	ecx
	mov	DWORD PTR _this$[ebp], ecx
	mov	ecx, DWORD PTR _this$[ebp]
	call	?EntityType@VuEntity@@QBEPAUVuEntityType@@XZ ; VuEntity::EntityType
	mov	ecx, 1
	shl	ecx, 1
	mov	al, BYTE PTR [eax+ecx+8]
	mov	esp, ebp
	pop	ebp
	ret	0
?GetType@CampBaseClass@@QBEEXZ ENDP			; CampBaseClass::GetType
_TEXT	ENDS
; Function compile flags: /Odtp
; File c:\users\zhitao li\documents\visual studio 2012\projects\freefalcon\campaign\include\campbase.h
;	COMDAT ?InPackage@CampBaseClass@@QAEHXZ
_TEXT	SEGMENT
_this$ = -4						; size = 4
?InPackage@CampBaseClass@@QAEHXZ PROC			; CampBaseClass::InPackage, COMDAT
; _this$ = ecx

; 274  : 	int InPackage (void)						{	return local_flags & CBC_IN_PACKAGE; }		

	push	ebp
	mov	ebp, esp
	push	ecx
	mov	DWORD PTR _this$[ebp], ecx
	mov	eax, DWORD PTR _this$[ebp]
	movsx	eax, WORD PTR [eax+156]
	and	eax, 4
	mov	esp, ebp
	pop	ebp
	ret	0
?InPackage@CampBaseClass@@QAEHXZ ENDP			; CampBaseClass::InPackage
_TEXT	ENDS
; Function compile flags: /Odtp
; File c:\users\zhitao li\documents\visual studio 2012\projects\freefalcon\falclib\include\falcsess.h
;	COMDAT ?GetGame@FalconSessionEntity@@QAEPAVFalconGameEntity@@XZ
_TEXT	SEGMENT
_this$ = -4						; size = 4
?GetGame@FalconSessionEntity@@QAEPAVFalconGameEntity@@XZ PROC ; FalconSessionEntity::GetGame, COMDAT
; _this$ = ecx

; 154  : 	FalconGameEntity* GetGame (void)              { return (FalconGameEntity*)VuSessionEntity::Game(); }

	push	ebp
	mov	ebp, esp
	push	ecx
	mov	DWORD PTR _this$[ebp], ecx
	mov	ecx, DWORD PTR _this$[ebp]
	call	?Game@VuSessionEntity@@QAEPAVVuGameEntity@@XZ ; VuSessionEntity::Game
	mov	esp, ebp
	pop	ebp
	ret	0
?GetGame@FalconSessionEntity@@QAEPAVFalconGameEntity@@XZ ENDP ; FalconSessionEntity::GetGame
_TEXT	ENDS
; Function compile flags: /Odtp
; File c:\users\zhitao li\documents\visual studio 2012\projects\freefalcon\sim\include\fack.h
;	COMDAT ?AddLanding@FackClass@@QAEXK@Z
_TEXT	SEGMENT
_this$ = -4						; size = 4
_thetime$ = 8						; size = 4
?AddLanding@FackClass@@QAEXK@Z PROC			; FackClass::AddLanding, COMDAT
; _this$ = ecx

; 54   :     void	AddLanding(VU_TIME thetime) { mFaults.AddMflList(thetime, FaultClass::landing, 0); };

	push	ebp
	mov	ebp, esp
	push	ecx
	mov	DWORD PTR _this$[ebp], ecx
	push	0
	push	30					; 0000001eH
	mov	eax, DWORD PTR _thetime$[ebp]
	push	eax
	mov	ecx, DWORD PTR _this$[ebp]
	add	ecx, 12					; 0000000cH
	call	?AddMflList@FaultClass@@QAEXKW4type_FSubSystem@1@H@Z ; FaultClass::AddMflList
	mov	esp, ebp
	pop	ebp
	ret	4
?AddLanding@FackClass@@QAEXK@Z ENDP			; FackClass::AddLanding
_TEXT	ENDS
; Function compile flags: /Odtp
; File c:\users\zhitao li\documents\visual studio 2012\projects\freefalcon\sim\include\fack.h
;	COMDAT ?AddTakeOff@FackClass@@QAEXK@Z
_TEXT	SEGMENT
_this$ = -4						; size = 4
_thetime$ = 8						; size = 4
?AddTakeOff@FackClass@@QAEXK@Z PROC			; FackClass::AddTakeOff, COMDAT
; _this$ = ecx

; 53   :     void	AddTakeOff(VU_TIME thetime) { mFaults.AddMflList(thetime, FaultClass::takeoff, 0); };

	push	ebp
	mov	ebp, esp
	push	ecx
	mov	DWORD PTR _this$[ebp], ecx
	push	0
	push	31					; 0000001fH
	mov	eax, DWORD PTR _thetime$[ebp]
	push	eax
	mov	ecx, DWORD PTR _this$[ebp]
	add	ecx, 12					; 0000000cH
	call	?AddMflList@FaultClass@@QAEXKW4type_FSubSystem@1@H@Z ; FaultClass::AddMflList
	mov	esp, ebp
	pop	ebp
	ret	4
?AddTakeOff@FackClass@@QAEXK@Z ENDP			; FackClass::AddTakeOff
_TEXT	ENDS
; Function compile flags: /Odtp
; File c:\users\zhitao li\documents\visual studio 2012\projects\freefalcon\graphics\include\drawobj.h
;	COMDAT ?Radius@DrawableObject@@QBEMXZ
_TEXT	SEGMENT
_this$ = -4						; size = 4
?Radius@DrawableObject@@QBEMXZ PROC			; DrawableObject::Radius, COMDAT
; _this$ = ecx

; 27   : 	float Radius() const { return radius; }

	push	ebp
	mov	ebp, esp
	push	ecx
	mov	DWORD PTR _this$[ebp], ecx
	mov	eax, DWORD PTR _this$[ebp]
	fld	DWORD PTR [eax+16]
	mov	esp, ebp
	pop	ebp
	ret	0
?Radius@DrawableObject@@QBEMXZ ENDP			; DrawableObject::Radius
_TEXT	ENDS
; Function compile flags: /Odtp
; File c:\users\zhitao li\documents\visual studio 2012\projects\freefalcon\falclib\include\fakerand.h
;	COMDAT ?PRANDFloatPos@@YAMXZ
_TEXT	SEGMENT
tv72 = -8						; size = 4
_x$ = -4						; size = 4
?PRANDFloatPos@@YAMXZ PROC				; PRANDFloatPos, COMDAT

; 150  : {

	push	ebp
	mov	ebp, esp
	sub	esp, 8

; 151  : //	return NRANDPOS;
; 152  : 	float	x=	(float)(GenerateFastRandom()&0xffff);

	call	?GenerateFastRandom@@YAJXZ		; GenerateFastRandom
	and	eax, 65535				; 0000ffffH
	cvtsi2ss xmm0, eax
	movss	DWORD PTR _x$[ebp], xmm0

; 153  : 	return( x / 65535.0f);

	movss	xmm0, DWORD PTR _x$[ebp]
	divss	xmm0, DWORD PTR __real@477fff00
	movss	DWORD PTR tv72[ebp], xmm0
	fld	DWORD PTR tv72[ebp]

; 154  : }

	mov	esp, ebp
	pop	ebp
	ret	0
?PRANDFloatPos@@YAMXZ ENDP				; PRANDFloatPos
_TEXT	ENDS
; Function compile flags: /Odtp
; File c:\users\zhitao li\documents\visual studio 2012\projects\freefalcon\falclib\include\fakerand.h
;	COMDAT ?PRANDFloat@@YAMXZ
_TEXT	SEGMENT
tv75 = -8						; size = 4
_x$ = -4						; size = 4
?PRANDFloat@@YAMXZ PROC					; PRANDFloat, COMDAT

; 143  : {

	push	ebp
	mov	ebp, esp
	sub	esp, 8

; 144  : //	return NRAND;
; 145  : 	float	x=	(float)(GenerateFastRandom()&0xffff);

	call	?GenerateFastRandom@@YAJXZ		; GenerateFastRandom
	and	eax, 65535				; 0000ffffH
	cvtsi2ss xmm0, eax
	movss	DWORD PTR _x$[ebp], xmm0

; 146  : 	return( 1 - 2 * x / 65535.0f);

	movss	xmm0, DWORD PTR __real@40000000
	mulss	xmm0, DWORD PTR _x$[ebp]
	divss	xmm0, DWORD PTR __real@477fff00
	movss	xmm1, DWORD PTR __real@3f800000
	subss	xmm1, xmm0
	movss	DWORD PTR tv75[ebp], xmm1
	fld	DWORD PTR tv75[ebp]

; 147  : }

	mov	esp, ebp
	pop	ebp
	ret	0
?PRANDFloat@@YAMXZ ENDP					; PRANDFloat
_TEXT	ENDS
; Function compile flags: /Odtp
; File c:\users\zhitao li\documents\visual studio 2012\projects\freefalcon\falclib\include\fakerand.h
;	COMDAT ?GenerateFastRandom@@YAJXZ
_TEXT	SEGMENT
_FastRandom$ = -4					; size = 4
?GenerateFastRandom@@YAJXZ PROC				; GenerateFastRandom, COMDAT

; 108  : {

	push	ebp
	mov	ebp, esp
	push	ecx

; 109  : 	static long LastRandom;
; 110  : 	long	FastRandom;														// The Random Variable
; 111  : 	_asm {	
; 112  : 			push	edx

	push	edx

; 113  : 			push	eax

	push	eax

; 114  : 			RDTSC

	rdtsc

; 115  : 			add	DWORD PTR FastRandom,edx

	add	DWORD PTR _FastRandom$[ebp], edx

; 116  : 			xor	DWORD PTR FastRandom,eax

	xor	DWORD PTR _FastRandom$[ebp], eax

; 117  : 			mov	eax, DWORD PTR LastRandom

	mov	eax, DWORD PTR ?LastRandom@?1??GenerateFastRandom@@YAJXZ@4JA ; `GenerateFastRandom'::`2'::LastRandom

; 118  : 			add	DWORD PTR FastRandom,eax

	add	DWORD PTR _FastRandom$[ebp], eax

; 119  : 			add	DWORD PTR LastRandom,edx

	add	DWORD PTR ?LastRandom@?1??GenerateFastRandom@@YAJXZ@4JA, edx ; `GenerateFastRandom'::`2'::LastRandom

; 120  : 			pop	eax

	pop	eax

; 121  : 			pop	edx

	pop	edx

; 122  : 	}
; 123  : 	return(FastRandom);

	mov	eax, DWORD PTR _FastRandom$[ebp]

; 124  : }

	mov	esp, ebp
	pop	ebp
	ret	0
?GenerateFastRandom@@YAJXZ ENDP				; GenerateFastRandom
_TEXT	ENDS
; Function compile flags: /Odtp
;	COMDAT ??_G_System_error_category@std@@UAEPAXI@Z
_TEXT	SEGMENT
_this$ = -4						; size = 4
___flags$ = 8						; size = 4
??_G_System_error_category@std@@UAEPAXI@Z PROC		; std::_System_error_category::`scalar deleting destructor', COMDAT
; _this$ = ecx
	push	ebp
	mov	ebp, esp
	push	ecx
	mov	DWORD PTR _this$[ebp], ecx
	mov	ecx, DWORD PTR _this$[ebp]
	call	??1_System_error_category@std@@UAE@XZ
	mov	eax, DWORD PTR ___flags$[ebp]
	and	eax, 1
	je	SHORT $LN1@scalar
	mov	ecx, DWORD PTR _this$[ebp]
	push	ecx
	call	??3@YAXPAX@Z				; operator delete
	add	esp, 4
$LN1@scalar:
	mov	eax, DWORD PTR _this$[ebp]
	mov	esp, ebp
	pop	ebp
	ret	4
??_G_System_error_category@std@@UAEPAXI@Z ENDP		; std::_System_error_category::`scalar deleting destructor'
_TEXT	ENDS
; Function compile flags: /Odtp
;	COMDAT ??1_System_error_category@std@@UAE@XZ
_TEXT	SEGMENT
_this$ = -4						; size = 4
??1_System_error_category@std@@UAE@XZ PROC		; std::_System_error_category::~_System_error_category, COMDAT
; _this$ = ecx
	push	ebp
	mov	ebp, esp
	push	ecx
	mov	DWORD PTR _this$[ebp], ecx
	mov	ecx, DWORD PTR _this$[ebp]
	call	??1_Generic_error_category@std@@UAE@XZ
	mov	esp, ebp
	pop	ebp
	ret	0
??1_System_error_category@std@@UAE@XZ ENDP		; std::_System_error_category::~_System_error_category
_TEXT	ENDS
; Function compile flags: /Odtp
; File c:\program files (x86)\microsoft visual studio 11.0\vc\include\system_error
;	COMDAT ?default_error_condition@_System_error_category@std@@UBE?AVerror_condition@2@H@Z
_TEXT	SEGMENT
_this$ = -4						; size = 4
___$ReturnUdt$ = 8					; size = 4
__Errval$ = 12						; size = 4
?default_error_condition@_System_error_category@std@@UBE?AVerror_condition@2@H@Z PROC ; std::_System_error_category::default_error_condition, COMDAT
; _this$ = ecx

; 641  : 		{	// make error_condition for error code (generic if possible)

	push	ebp
	mov	ebp, esp
	push	ecx
	mov	DWORD PTR _this$[ebp], ecx

; 642  : 		if (_Syserror_map(_Errval))

	mov	eax, DWORD PTR __Errval$[ebp]
	push	eax
	call	?_Syserror_map@std@@YAPBDH@Z		; std::_Syserror_map
	add	esp, 4
	test	eax, eax
	je	SHORT $LN2@default_er

; 643  : 			return (error_condition(_Errval, generic_category()));

	call	?generic_category@std@@YAABVerror_category@1@XZ ; std::generic_category
	push	eax
	mov	ecx, DWORD PTR __Errval$[ebp]
	push	ecx
	mov	ecx, DWORD PTR ___$ReturnUdt$[ebp]
	call	??0error_condition@std@@QAE@HABVerror_category@1@@Z ; std::error_condition::error_condition
	mov	eax, DWORD PTR ___$ReturnUdt$[ebp]
	jmp	SHORT $LN3@default_er

; 644  : 		else

	jmp	SHORT $LN3@default_er
$LN2@default_er:

; 645  : 			return (error_condition(_Errval, system_category()));

	call	?system_category@std@@YAABVerror_category@1@XZ ; std::system_category
	push	eax
	mov	edx, DWORD PTR __Errval$[ebp]
	push	edx
	mov	ecx, DWORD PTR ___$ReturnUdt$[ebp]
	call	??0error_condition@std@@QAE@HABVerror_category@1@@Z ; std::error_condition::error_condition
	mov	eax, DWORD PTR ___$ReturnUdt$[ebp]
$LN3@default_er:

; 646  : 		}

	mov	esp, ebp
	pop	ebp
	ret	8
?default_error_condition@_System_error_category@std@@UBE?AVerror_condition@2@H@Z ENDP ; std::_System_error_category::default_error_condition
_TEXT	ENDS
; Function compile flags: /Odtp
; File c:\program files (x86)\microsoft visual studio 11.0\vc\include\system_error
;	COMDAT ?message@_System_error_category@std@@UBE?AV?$basic_string@DU?$char_traits@D@std@@V?$allocator@D@2@@2@H@Z
_TEXT	SEGMENT
_this$ = -16						; size = 4
$T1 = -12						; size = 4
tv69 = -8						; size = 4
__Name$ = -4						; size = 4
___$ReturnUdt$ = 8					; size = 4
__Errcode$ = 12						; size = 4
?message@_System_error_category@std@@UBE?AV?$basic_string@DU?$char_traits@D@std@@V?$allocator@D@2@@2@H@Z PROC ; std::_System_error_category::message, COMDAT
; _this$ = ecx

; 634  : 		{	// convert to name of error

	push	ebp
	mov	ebp, esp
	sub	esp, 16					; 00000010H
	mov	DWORD PTR _this$[ebp], ecx
	mov	DWORD PTR $T1[ebp], 0

; 635  : 		const char *_Name = _Winerror_map(_Errcode);

	mov	eax, DWORD PTR __Errcode$[ebp]
	push	eax
	call	?_Winerror_map@std@@YAPBDH@Z		; std::_Winerror_map
	add	esp, 4
	mov	DWORD PTR __Name$[ebp], eax

; 636  : 		return (string(_Name != 0 ? _Name : "unknown error"));

	cmp	DWORD PTR __Name$[ebp], 0
	je	SHORT $LN3@message
	mov	ecx, DWORD PTR __Name$[ebp]
	mov	DWORD PTR tv69[ebp], ecx
	jmp	SHORT $LN4@message
$LN3@message:
	mov	DWORD PTR tv69[ebp], OFFSET ??_C@_0O@BFJCFAAK@unknown?5error?$AA@
$LN4@message:
	mov	edx, DWORD PTR tv69[ebp]
	push	edx
	mov	ecx, DWORD PTR ___$ReturnUdt$[ebp]
	call	??0?$basic_string@DU?$char_traits@D@std@@V?$allocator@D@2@@std@@QAE@PBD@Z ; std::basic_string<char,std::char_traits<char>,std::allocator<char> >::basic_string<char,std::char_traits<char>,std::allocator<char> >
	mov	eax, DWORD PTR $T1[ebp]
	or	eax, 1
	mov	DWORD PTR $T1[ebp], eax
	mov	eax, DWORD PTR ___$ReturnUdt$[ebp]

; 637  : 		}

	mov	esp, ebp
	pop	ebp
	ret	8
?message@_System_error_category@std@@UBE?AV?$basic_string@DU?$char_traits@D@std@@V?$allocator@D@2@@2@H@Z ENDP ; std::_System_error_category::message
_TEXT	ENDS
; Function compile flags: /Odtp
; File c:\program files (x86)\microsoft visual studio 11.0\vc\include\system_error
;	COMDAT ?name@_System_error_category@std@@UBEPBDXZ
_TEXT	SEGMENT
_this$ = -4						; size = 4
?name@_System_error_category@std@@UBEPBDXZ PROC		; std::_System_error_category::name, COMDAT
; _this$ = ecx

; 629  : 		{	// get name of category

	push	ebp
	mov	ebp, esp
	push	ecx
	mov	DWORD PTR _this$[ebp], ecx

; 630  : 		return ("system");

	mov	eax, OFFSET ??_C@_06FHFOAHML@system?$AA@

; 631  : 		}

	mov	esp, ebp
	pop	ebp
	ret	0
?name@_System_error_category@std@@UBEPBDXZ ENDP		; std::_System_error_category::name
_TEXT	ENDS
; Function compile flags: /Odtp
; File c:\program files (x86)\microsoft visual studio 11.0\vc\include\system_error
;	COMDAT ??0_System_error_category@std@@QAE@XZ
_TEXT	SEGMENT
_this$ = -4						; size = 4
??0_System_error_category@std@@QAE@XZ PROC		; std::_System_error_category::_System_error_category, COMDAT
; _this$ = ecx

; 624  : 	_System_error_category()

	push	ebp
	mov	ebp, esp
	push	ecx
	mov	DWORD PTR _this$[ebp], ecx
	mov	ecx, DWORD PTR _this$[ebp]
	call	??0_Generic_error_category@std@@QAE@XZ	; std::_Generic_error_category::_Generic_error_category
	mov	eax, DWORD PTR _this$[ebp]
	mov	DWORD PTR [eax], OFFSET ??_7_System_error_category@std@@6B@

; 625  : 		{	// default constructor
; 626  : 		}

	mov	eax, DWORD PTR _this$[ebp]
	mov	esp, ebp
	pop	ebp
	ret	0
??0_System_error_category@std@@QAE@XZ ENDP		; std::_System_error_category::_System_error_category
_TEXT	ENDS
; Function compile flags: /Odtp
;	COMDAT ??_G_Iostream_error_category@std@@UAEPAXI@Z
_TEXT	SEGMENT
_this$ = -4						; size = 4
___flags$ = 8						; size = 4
??_G_Iostream_error_category@std@@UAEPAXI@Z PROC	; std::_Iostream_error_category::`scalar deleting destructor', COMDAT
; _this$ = ecx
	push	ebp
	mov	ebp, esp
	push	ecx
	mov	DWORD PTR _this$[ebp], ecx
	mov	ecx, DWORD PTR _this$[ebp]
	call	??1_Iostream_error_category@std@@UAE@XZ
	mov	eax, DWORD PTR ___flags$[ebp]
	and	eax, 1
	je	SHORT $LN1@scalar
	mov	ecx, DWORD PTR _this$[ebp]
	push	ecx
	call	??3@YAXPAX@Z				; operator delete
	add	esp, 4
$LN1@scalar:
	mov	eax, DWORD PTR _this$[ebp]
	mov	esp, ebp
	pop	ebp
	ret	4
??_G_Iostream_error_category@std@@UAEPAXI@Z ENDP	; std::_Iostream_error_category::`scalar deleting destructor'
_TEXT	ENDS
; Function compile flags: /Odtp
;	COMDAT ??1_Iostream_error_category@std@@UAE@XZ
_TEXT	SEGMENT
_this$ = -4						; size = 4
??1_Iostream_error_category@std@@UAE@XZ PROC		; std::_Iostream_error_category::~_Iostream_error_category, COMDAT
; _this$ = ecx
	push	ebp
	mov	ebp, esp
	push	ecx
	mov	DWORD PTR _this$[ebp], ecx
	mov	ecx, DWORD PTR _this$[ebp]
	call	??1_Generic_error_category@std@@UAE@XZ
	mov	esp, ebp
	pop	ebp
	ret	0
??1_Iostream_error_category@std@@UAE@XZ ENDP		; std::_Iostream_error_category::~_Iostream_error_category
_TEXT	ENDS
; Function compile flags: /Odtp
; File c:\program files (x86)\microsoft visual studio 11.0\vc\include\system_error
;	COMDAT ?message@_Iostream_error_category@std@@UBE?AV?$basic_string@DU?$char_traits@D@std@@V?$allocator@D@2@@2@H@Z
_TEXT	SEGMENT
_this$ = -8						; size = 4
$T1 = -4						; size = 4
___$ReturnUdt$ = 8					; size = 4
__Errcode$ = 12						; size = 4
?message@_Iostream_error_category@std@@UBE?AV?$basic_string@DU?$char_traits@D@std@@V?$allocator@D@2@@2@H@Z PROC ; std::_Iostream_error_category::message, COMDAT
; _this$ = ecx

; 611  : 		{	// convert to name of error

	push	ebp
	mov	ebp, esp
	sub	esp, 8
	mov	DWORD PTR _this$[ebp], ecx
	mov	DWORD PTR $T1[ebp], 0

; 612  : 		if (_Errcode == (int)io_errc::stream)

	cmp	DWORD PTR __Errcode$[ebp], 1
	jne	SHORT $LN2@message

; 613  : 			return ("iostream stream error");

	push	OFFSET ??_C@_0BG@PADBLCHM@iostream?5stream?5error?$AA@
	mov	ecx, DWORD PTR ___$ReturnUdt$[ebp]
	call	??0?$basic_string@DU?$char_traits@D@std@@V?$allocator@D@2@@std@@QAE@PBD@Z ; std::basic_string<char,std::char_traits<char>,std::allocator<char> >::basic_string<char,std::char_traits<char>,std::allocator<char> >
	mov	eax, DWORD PTR $T1[ebp]
	or	eax, 1
	mov	DWORD PTR $T1[ebp], eax
	mov	eax, DWORD PTR ___$ReturnUdt$[ebp]
	jmp	SHORT $LN3@message

; 614  : 		else

	jmp	SHORT $LN3@message
$LN2@message:

; 615  : 			return (_Generic_error_category::message(_Errcode));

	mov	ecx, DWORD PTR __Errcode$[ebp]
	push	ecx
	mov	edx, DWORD PTR ___$ReturnUdt$[ebp]
	push	edx
	mov	ecx, DWORD PTR _this$[ebp]
	call	?message@_Generic_error_category@std@@UBE?AV?$basic_string@DU?$char_traits@D@std@@V?$allocator@D@2@@2@H@Z ; std::_Generic_error_category::message
	mov	eax, DWORD PTR $T1[ebp]
	or	eax, 1
	mov	DWORD PTR $T1[ebp], eax
	mov	eax, DWORD PTR ___$ReturnUdt$[ebp]
$LN3@message:

; 616  : 		}

	mov	esp, ebp
	pop	ebp
	ret	8
?message@_Iostream_error_category@std@@UBE?AV?$basic_string@DU?$char_traits@D@std@@V?$allocator@D@2@@2@H@Z ENDP ; std::_Iostream_error_category::message
_TEXT	ENDS
; Function compile flags: /Odtp
; File c:\program files (x86)\microsoft visual studio 11.0\vc\include\system_error
;	COMDAT ?name@_Iostream_error_category@std@@UBEPBDXZ
_TEXT	SEGMENT
_this$ = -4						; size = 4
?name@_Iostream_error_category@std@@UBEPBDXZ PROC	; std::_Iostream_error_category::name, COMDAT
; _this$ = ecx

; 606  : 		{	// get name of category

	push	ebp
	mov	ebp, esp
	push	ecx
	mov	DWORD PTR _this$[ebp], ecx

; 607  : 		return ("iostream");

	mov	eax, OFFSET ??_C@_08LLGCOLLL@iostream?$AA@

; 608  : 		}

	mov	esp, ebp
	pop	ebp
	ret	0
?name@_Iostream_error_category@std@@UBEPBDXZ ENDP	; std::_Iostream_error_category::name
_TEXT	ENDS
; Function compile flags: /Odtp
; File c:\program files (x86)\microsoft visual studio 11.0\vc\include\system_error
;	COMDAT ??0_Iostream_error_category@std@@QAE@XZ
_TEXT	SEGMENT
_this$ = -4						; size = 4
??0_Iostream_error_category@std@@QAE@XZ PROC		; std::_Iostream_error_category::_Iostream_error_category, COMDAT
; _this$ = ecx

; 601  : 	_Iostream_error_category()

	push	ebp
	mov	ebp, esp
	push	ecx
	mov	DWORD PTR _this$[ebp], ecx
	mov	ecx, DWORD PTR _this$[ebp]
	call	??0_Generic_error_category@std@@QAE@XZ	; std::_Generic_error_category::_Generic_error_category
	mov	eax, DWORD PTR _this$[ebp]
	mov	DWORD PTR [eax], OFFSET ??_7_Iostream_error_category@std@@6B@

; 602  : 		{	// default constructor
; 603  : 		}

	mov	eax, DWORD PTR _this$[ebp]
	mov	esp, ebp
	pop	ebp
	ret	0
??0_Iostream_error_category@std@@QAE@XZ ENDP		; std::_Iostream_error_category::_Iostream_error_category
_TEXT	ENDS
; Function compile flags: /Odtp
;	COMDAT ??_G_Generic_error_category@std@@UAEPAXI@Z
_TEXT	SEGMENT
_this$ = -4						; size = 4
___flags$ = 8						; size = 4
??_G_Generic_error_category@std@@UAEPAXI@Z PROC		; std::_Generic_error_category::`scalar deleting destructor', COMDAT
; _this$ = ecx
	push	ebp
	mov	ebp, esp
	push	ecx
	mov	DWORD PTR _this$[ebp], ecx
	mov	ecx, DWORD PTR _this$[ebp]
	call	??1_Generic_error_category@std@@UAE@XZ
	mov	eax, DWORD PTR ___flags$[ebp]
	and	eax, 1
	je	SHORT $LN1@scalar
	mov	ecx, DWORD PTR _this$[ebp]
	push	ecx
	call	??3@YAXPAX@Z				; operator delete
	add	esp, 4
$LN1@scalar:
	mov	eax, DWORD PTR _this$[ebp]
	mov	esp, ebp
	pop	ebp
	ret	4
??_G_Generic_error_category@std@@UAEPAXI@Z ENDP		; std::_Generic_error_category::`scalar deleting destructor'
_TEXT	ENDS
; Function compile flags: /Odtp
;	COMDAT ??1_Generic_error_category@std@@UAE@XZ
_TEXT	SEGMENT
_this$ = -4						; size = 4
??1_Generic_error_category@std@@UAE@XZ PROC		; std::_Generic_error_category::~_Generic_error_category, COMDAT
; _this$ = ecx
	push	ebp
	mov	ebp, esp
	push	ecx
	mov	DWORD PTR _this$[ebp], ecx
	mov	ecx, DWORD PTR _this$[ebp]
	call	??1error_category@std@@UAE@XZ		; std::error_category::~error_category
	mov	esp, ebp
	pop	ebp
	ret	0
??1_Generic_error_category@std@@UAE@XZ ENDP		; std::_Generic_error_category::~_Generic_error_category
_TEXT	ENDS
; Function compile flags: /Odtp
; File c:\program files (x86)\microsoft visual studio 11.0\vc\include\system_error
;	COMDAT ?message@_Generic_error_category@std@@UBE?AV?$basic_string@DU?$char_traits@D@std@@V?$allocator@D@2@@2@H@Z
_TEXT	SEGMENT
_this$ = -16						; size = 4
$T1 = -12						; size = 4
tv69 = -8						; size = 4
__Name$ = -4						; size = 4
___$ReturnUdt$ = 8					; size = 4
__Errcode$ = 12						; size = 4
?message@_Generic_error_category@std@@UBE?AV?$basic_string@DU?$char_traits@D@std@@V?$allocator@D@2@@2@H@Z PROC ; std::_Generic_error_category::message, COMDAT
; _this$ = ecx

; 590  : 		{	// convert to name of error

	push	ebp
	mov	ebp, esp
	sub	esp, 16					; 00000010H
	mov	DWORD PTR _this$[ebp], ecx
	mov	DWORD PTR $T1[ebp], 0

; 591  : 		const char *_Name = _Syserror_map(_Errcode);

	mov	eax, DWORD PTR __Errcode$[ebp]
	push	eax
	call	?_Syserror_map@std@@YAPBDH@Z		; std::_Syserror_map
	add	esp, 4
	mov	DWORD PTR __Name$[ebp], eax

; 592  : 		return (string(_Name != 0 ? _Name : "unknown error"));

	cmp	DWORD PTR __Name$[ebp], 0
	je	SHORT $LN3@message
	mov	ecx, DWORD PTR __Name$[ebp]
	mov	DWORD PTR tv69[ebp], ecx
	jmp	SHORT $LN4@message
$LN3@message:
	mov	DWORD PTR tv69[ebp], OFFSET ??_C@_0O@BFJCFAAK@unknown?5error?$AA@
$LN4@message:
	mov	edx, DWORD PTR tv69[ebp]
	push	edx
	mov	ecx, DWORD PTR ___$ReturnUdt$[ebp]
	call	??0?$basic_string@DU?$char_traits@D@std@@V?$allocator@D@2@@std@@QAE@PBD@Z ; std::basic_string<char,std::char_traits<char>,std::allocator<char> >::basic_string<char,std::char_traits<char>,std::allocator<char> >
	mov	eax, DWORD PTR $T1[ebp]
	or	eax, 1
	mov	DWORD PTR $T1[ebp], eax
	mov	eax, DWORD PTR ___$ReturnUdt$[ebp]

; 593  : 		}

	mov	esp, ebp
	pop	ebp
	ret	8
?message@_Generic_error_category@std@@UBE?AV?$basic_string@DU?$char_traits@D@std@@V?$allocator@D@2@@2@H@Z ENDP ; std::_Generic_error_category::message
_TEXT	ENDS
; Function compile flags: /Odtp
; File c:\program files (x86)\microsoft visual studio 11.0\vc\include\system_error
;	COMDAT ?name@_Generic_error_category@std@@UBEPBDXZ
_TEXT	SEGMENT
_this$ = -4						; size = 4
?name@_Generic_error_category@std@@UBEPBDXZ PROC	; std::_Generic_error_category::name, COMDAT
; _this$ = ecx

; 585  : 		{	// get name of category

	push	ebp
	mov	ebp, esp
	push	ecx
	mov	DWORD PTR _this$[ebp], ecx

; 586  : 		return ("generic");

	mov	eax, OFFSET ??_C@_07DCLBNMLN@generic?$AA@

; 587  : 		}

	mov	esp, ebp
	pop	ebp
	ret	0
?name@_Generic_error_category@std@@UBEPBDXZ ENDP	; std::_Generic_error_category::name
_TEXT	ENDS
; Function compile flags: /Odtp
; File c:\program files (x86)\microsoft visual studio 11.0\vc\include\system_error
;	COMDAT ??0_Generic_error_category@std@@QAE@XZ
_TEXT	SEGMENT
_this$ = -4						; size = 4
??0_Generic_error_category@std@@QAE@XZ PROC		; std::_Generic_error_category::_Generic_error_category, COMDAT
; _this$ = ecx

; 580  : 	_Generic_error_category()

	push	ebp
	mov	ebp, esp
	push	ecx
	mov	DWORD PTR _this$[ebp], ecx
	mov	ecx, DWORD PTR _this$[ebp]
	call	??0error_category@std@@QAE@XZ		; std::error_category::error_category
	mov	eax, DWORD PTR _this$[ebp]
	mov	DWORD PTR [eax], OFFSET ??_7_Generic_error_category@std@@6B@

; 581  : 		{	// default constructor
; 582  : 		}

	mov	eax, DWORD PTR _this$[ebp]
	mov	esp, ebp
	pop	ebp
	ret	0
??0_Generic_error_category@std@@QAE@XZ ENDP		; std::_Generic_error_category::_Generic_error_category
_TEXT	ENDS
; Function compile flags: /Odtp
; File c:\program files (x86)\microsoft visual studio 11.0\vc\include\system_error
;	COMDAT ??8error_condition@std@@QBE_NABV01@@Z
_TEXT	SEGMENT
tv78 = -8						; size = 4
_this$ = -4						; size = 4
__Right$ = 8						; size = 4
??8error_condition@std@@QBE_NABV01@@Z PROC		; std::error_condition::operator==, COMDAT
; _this$ = ecx

; 376  : 		{	// test if *this == _Right

	push	ebp
	mov	ebp, esp
	sub	esp, 8
	push	esi
	mov	DWORD PTR _this$[ebp], ecx

; 377  : 		return (category() == _Right.category()
; 378  : 			&& value() == _Right.value());

	mov	ecx, DWORD PTR __Right$[ebp]
	call	?category@error_condition@std@@QBEABVerror_category@2@XZ ; std::error_condition::category
	push	eax
	mov	ecx, DWORD PTR _this$[ebp]
	call	?category@error_condition@std@@QBEABVerror_category@2@XZ ; std::error_condition::category
	mov	ecx, eax
	call	??8error_category@std@@QBE_NABV01@@Z	; std::error_category::operator==
	movzx	eax, al
	test	eax, eax
	je	SHORT $LN3@operator
	mov	ecx, DWORD PTR _this$[ebp]
	call	?value@error_condition@std@@QBEHXZ	; std::error_condition::value
	mov	esi, eax
	mov	ecx, DWORD PTR __Right$[ebp]
	call	?value@error_condition@std@@QBEHXZ	; std::error_condition::value
	cmp	esi, eax
	jne	SHORT $LN3@operator
	mov	DWORD PTR tv78[ebp], 1
	jmp	SHORT $LN4@operator
$LN3@operator:
	mov	DWORD PTR tv78[ebp], 0
$LN4@operator:
	mov	al, BYTE PTR tv78[ebp]

; 379  : 		}

	pop	esi
	mov	esp, ebp
	pop	ebp
	ret	4
??8error_condition@std@@QBE_NABV01@@Z ENDP		; std::error_condition::operator==
_TEXT	ENDS
; Function compile flags: /Odtp
; File c:\program files (x86)\microsoft visual studio 11.0\vc\include\system_error
;	COMDAT ?category@error_condition@std@@QBEABVerror_category@2@XZ
_TEXT	SEGMENT
_this$ = -4						; size = 4
?category@error_condition@std@@QBEABVerror_category@2@XZ PROC ; std::error_condition::category, COMDAT
; _this$ = ecx

; 354  : 		{	// get category

	push	ebp
	mov	ebp, esp
	push	ecx
	mov	DWORD PTR _this$[ebp], ecx

; 355  : 		return (*_Mycat);

	mov	eax, DWORD PTR _this$[ebp]
	mov	eax, DWORD PTR [eax+4]

; 356  : 		}

	mov	esp, ebp
	pop	ebp
	ret	0
?category@error_condition@std@@QBEABVerror_category@2@XZ ENDP ; std::error_condition::category
_TEXT	ENDS
; Function compile flags: /Odtp
; File c:\program files (x86)\microsoft visual studio 11.0\vc\include\system_error
;	COMDAT ?value@error_condition@std@@QBEHXZ
_TEXT	SEGMENT
_this$ = -4						; size = 4
?value@error_condition@std@@QBEHXZ PROC			; std::error_condition::value, COMDAT
; _this$ = ecx

; 349  : 		{	// get error code

	push	ebp
	mov	ebp, esp
	push	ecx
	mov	DWORD PTR _this$[ebp], ecx

; 350  : 		return (_Myval);

	mov	eax, DWORD PTR _this$[ebp]
	mov	eax, DWORD PTR [eax]

; 351  : 		}

	mov	esp, ebp
	pop	ebp
	ret	0
?value@error_condition@std@@QBEHXZ ENDP			; std::error_condition::value
_TEXT	ENDS
; Function compile flags: /Odtp
; File c:\program files (x86)\microsoft visual studio 11.0\vc\include\system_error
;	COMDAT ??0error_condition@std@@QAE@HABVerror_category@1@@Z
_TEXT	SEGMENT
_this$ = -4						; size = 4
__Val$ = 8						; size = 4
__Cat$ = 12						; size = 4
??0error_condition@std@@QAE@HABVerror_category@1@@Z PROC ; std::error_condition::error_condition, COMDAT
; _this$ = ecx

; 316  : 		{	// construct from error code and category

	push	ebp
	mov	ebp, esp
	push	ecx
	mov	DWORD PTR _this$[ebp], ecx
	mov	eax, DWORD PTR _this$[ebp]
	mov	ecx, DWORD PTR __Val$[ebp]
	mov	DWORD PTR [eax], ecx
	mov	edx, DWORD PTR _this$[ebp]
	mov	eax, DWORD PTR __Cat$[ebp]
	mov	DWORD PTR [edx+4], eax

; 317  : 		}

	mov	eax, DWORD PTR _this$[ebp]
	mov	esp, ebp
	pop	ebp
	ret	8
??0error_condition@std@@QAE@HABVerror_category@1@@Z ENDP ; std::error_condition::error_condition
_TEXT	ENDS
; Function compile flags: /Odtp
; File c:\program files (x86)\microsoft visual studio 11.0\vc\include\system_error
;	COMDAT ?category@error_code@std@@QBEABVerror_category@2@XZ
_TEXT	SEGMENT
_this$ = -4						; size = 4
?category@error_code@std@@QBEABVerror_category@2@XZ PROC ; std::error_code::category, COMDAT
; _this$ = ecx

; 256  : 		{	// get category

	push	ebp
	mov	ebp, esp
	push	ecx
	mov	DWORD PTR _this$[ebp], ecx

; 257  : 		return (*_Mycat);

	mov	eax, DWORD PTR _this$[ebp]
	mov	eax, DWORD PTR [eax+4]

; 258  : 		}

	mov	esp, ebp
	pop	ebp
	ret	0
?category@error_code@std@@QBEABVerror_category@2@XZ ENDP ; std::error_code::category
_TEXT	ENDS
; Function compile flags: /Odtp
; File c:\program files (x86)\microsoft visual studio 11.0\vc\include\system_error
;	COMDAT ?value@error_code@std@@QBEHXZ
_TEXT	SEGMENT
_this$ = -4						; size = 4
?value@error_code@std@@QBEHXZ PROC			; std::error_code::value, COMDAT
; _this$ = ecx

; 251  : 		{	// get error code

	push	ebp
	mov	ebp, esp
	push	ecx
	mov	DWORD PTR _this$[ebp], ecx

; 252  : 		return (_Myval);

	mov	eax, DWORD PTR _this$[ebp]
	mov	eax, DWORD PTR [eax]

; 253  : 		}

	mov	esp, ebp
	pop	ebp
	ret	0
?value@error_code@std@@QBEHXZ ENDP			; std::error_code::value
_TEXT	ENDS
; Function compile flags: /Odtp
;	COMDAT ??_Gerror_category@std@@UAEPAXI@Z
_TEXT	SEGMENT
_this$ = -4						; size = 4
___flags$ = 8						; size = 4
??_Gerror_category@std@@UAEPAXI@Z PROC			; std::error_category::`scalar deleting destructor', COMDAT
; _this$ = ecx
	push	ebp
	mov	ebp, esp
	push	ecx
	mov	DWORD PTR _this$[ebp], ecx
	mov	ecx, DWORD PTR _this$[ebp]
	call	??1error_category@std@@UAE@XZ		; std::error_category::~error_category
	mov	eax, DWORD PTR ___flags$[ebp]
	and	eax, 1
	je	SHORT $LN1@scalar
	mov	ecx, DWORD PTR _this$[ebp]
	push	ecx
	call	??3@YAXPAX@Z				; operator delete
	add	esp, 4
$LN1@scalar:
	mov	eax, DWORD PTR _this$[ebp]
	mov	esp, ebp
	pop	ebp
	ret	4
??_Gerror_category@std@@UAEPAXI@Z ENDP			; std::error_category::`scalar deleting destructor'
_TEXT	ENDS
; Function compile flags: /Odtp
; File c:\program files (x86)\microsoft visual studio 11.0\vc\include\system_error
;	COMDAT ??8error_category@std@@QBE_NABV01@@Z
_TEXT	SEGMENT
_this$ = -8						; size = 4
tv65 = -4						; size = 4
__Right$ = 8						; size = 4
??8error_category@std@@QBE_NABV01@@Z PROC		; std::error_category::operator==, COMDAT
; _this$ = ecx

; 184  : 		{	// compare categories for equality

	push	ebp
	mov	ebp, esp
	sub	esp, 8
	mov	DWORD PTR _this$[ebp], ecx

; 185  : 		return (this == &_Right);

	mov	eax, DWORD PTR _this$[ebp]
	cmp	eax, DWORD PTR __Right$[ebp]
	jne	SHORT $LN3@operator
	mov	DWORD PTR tv65[ebp], 1
	jmp	SHORT $LN4@operator
$LN3@operator:
	mov	DWORD PTR tv65[ebp], 0
$LN4@operator:
	mov	al, BYTE PTR tv65[ebp]

; 186  : 		}

	mov	esp, ebp
	pop	ebp
	ret	4
??8error_category@std@@QBE_NABV01@@Z ENDP		; std::error_category::operator==
_TEXT	ENDS
; Function compile flags: /Odtp
; File c:\program files (x86)\microsoft visual studio 11.0\vc\include\system_error
;	COMDAT ?equivalent@error_category@std@@UBE_NABVerror_code@2@H@Z
_TEXT	SEGMENT
_this$ = -8						; size = 4
tv74 = -4						; size = 4
__Code$ = 8						; size = 4
__Errval$ = 12						; size = 4
?equivalent@error_category@std@@UBE_NABVerror_code@2@H@Z PROC ; std::error_category::equivalent, COMDAT
; _this$ = ecx

; 415  : 	{	// test if conditions same for this category

	push	ebp
	mov	ebp, esp
	sub	esp, 8
	mov	DWORD PTR _this$[ebp], ecx

; 416  : 	return (*this == _Code.category() && _Code.value() == _Errval);

	mov	ecx, DWORD PTR __Code$[ebp]
	call	?category@error_code@std@@QBEABVerror_category@2@XZ ; std::error_code::category
	push	eax
	mov	ecx, DWORD PTR _this$[ebp]
	call	??8error_category@std@@QBE_NABV01@@Z	; std::error_category::operator==
	movzx	eax, al
	test	eax, eax
	je	SHORT $LN3@equivalent
	mov	ecx, DWORD PTR __Code$[ebp]
	call	?value@error_code@std@@QBEHXZ		; std::error_code::value
	cmp	eax, DWORD PTR __Errval$[ebp]
	jne	SHORT $LN3@equivalent
	mov	DWORD PTR tv74[ebp], 1
	jmp	SHORT $LN4@equivalent
$LN3@equivalent:
	mov	DWORD PTR tv74[ebp], 0
$LN4@equivalent:
	mov	al, BYTE PTR tv74[ebp]

; 417  : 	}

	mov	esp, ebp
	pop	ebp
	ret	8
?equivalent@error_category@std@@UBE_NABVerror_code@2@H@Z ENDP ; std::error_category::equivalent
_TEXT	ENDS
; Function compile flags: /Odtp
; File c:\program files (x86)\microsoft visual studio 11.0\vc\include\system_error
;	COMDAT ?equivalent@error_category@std@@UBE_NHABVerror_condition@2@@Z
_TEXT	SEGMENT
$T1 = -12						; size = 8
_this$ = -4						; size = 4
__Errval$ = 8						; size = 4
__Cond$ = 12						; size = 4
?equivalent@error_category@std@@UBE_NHABVerror_condition@2@@Z PROC ; std::error_category::equivalent, COMDAT
; _this$ = ecx

; 408  : 	{	// test if error code same condition

	push	ebp
	mov	ebp, esp
	sub	esp, 12					; 0000000cH
	mov	DWORD PTR _this$[ebp], ecx

; 409  : 	return (default_error_condition(_Errval) == _Cond);

	mov	eax, DWORD PTR __Cond$[ebp]
	push	eax
	mov	ecx, DWORD PTR __Errval$[ebp]
	push	ecx
	lea	edx, DWORD PTR $T1[ebp]
	push	edx
	mov	eax, DWORD PTR _this$[ebp]
	mov	edx, DWORD PTR [eax]
	mov	ecx, DWORD PTR _this$[ebp]
	mov	eax, DWORD PTR [edx+12]
	call	eax
	mov	ecx, eax
	call	??8error_condition@std@@QBE_NABV01@@Z	; std::error_condition::operator==

; 410  : 	}

	mov	esp, ebp
	pop	ebp
	ret	8
?equivalent@error_category@std@@UBE_NHABVerror_condition@2@@Z ENDP ; std::error_category::equivalent
_TEXT	ENDS
; Function compile flags: /Odtp
; File c:\program files (x86)\microsoft visual studio 11.0\vc\include\system_error
;	COMDAT ?default_error_condition@error_category@std@@UBE?AVerror_condition@2@H@Z
_TEXT	SEGMENT
_this$ = -4						; size = 4
___$ReturnUdt$ = 8					; size = 4
__Errval$ = 12						; size = 4
?default_error_condition@error_category@std@@UBE?AVerror_condition@2@H@Z PROC ; std::error_category::default_error_condition, COMDAT
; _this$ = ecx

; 401  : 	{	// make error_condition for error code

	push	ebp
	mov	ebp, esp
	push	ecx
	mov	DWORD PTR _this$[ebp], ecx

; 402  : 	return (error_condition(_Errval, *this));

	mov	eax, DWORD PTR _this$[ebp]
	push	eax
	mov	ecx, DWORD PTR __Errval$[ebp]
	push	ecx
	mov	ecx, DWORD PTR ___$ReturnUdt$[ebp]
	call	??0error_condition@std@@QAE@HABVerror_category@1@@Z ; std::error_condition::error_condition
	mov	eax, DWORD PTR ___$ReturnUdt$[ebp]

; 403  : 	}

	mov	esp, ebp
	pop	ebp
	ret	8
?default_error_condition@error_category@std@@UBE?AVerror_condition@2@H@Z ENDP ; std::error_category::default_error_condition
_TEXT	ENDS
; Function compile flags: /Odtp
; File c:\program files (x86)\microsoft visual studio 11.0\vc\include\system_error
;	COMDAT ??1error_category@std@@UAE@XZ
_TEXT	SEGMENT
_this$ = -4						; size = 4
??1error_category@std@@UAE@XZ PROC			; std::error_category::~error_category, COMDAT
; _this$ = ecx

; 167  : 		{	// destroy the object

	push	ebp
	mov	ebp, esp
	push	ecx
	mov	DWORD PTR _this$[ebp], ecx
	mov	eax, DWORD PTR _this$[ebp]
	mov	DWORD PTR [eax], OFFSET ??_7error_category@std@@6B@

; 168  : 		}

	mov	esp, ebp
	pop	ebp
	ret	0
??1error_category@std@@UAE@XZ ENDP			; std::error_category::~error_category
_TEXT	ENDS
; Function compile flags: /Odtp
; File c:\program files (x86)\microsoft visual studio 11.0\vc\include\system_error
;	COMDAT ??0error_category@std@@QAE@XZ
_TEXT	SEGMENT
_this$ = -4						; size = 4
??0error_category@std@@QAE@XZ PROC			; std::error_category::error_category, COMDAT
; _this$ = ecx

; 162  : 	error_category()

	push	ebp
	mov	ebp, esp
	push	ecx
	mov	DWORD PTR _this$[ebp], ecx
	mov	eax, DWORD PTR _this$[ebp]
	mov	DWORD PTR [eax], OFFSET ??_7error_category@std@@6B@

; 163  : 		{	// default constructor
; 164  : 		}

	mov	eax, DWORD PTR _this$[ebp]
	mov	esp, ebp
	pop	ebp
	ret	0
??0error_category@std@@QAE@XZ ENDP			; std::error_category::error_category
_TEXT	ENDS
; Function compile flags: /Odtp
; File c:\program files (x86)\microsoft visual studio 11.0\vc\include\system_error
;	COMDAT ?system_category@std@@YAABVerror_category@1@XZ
_TEXT	SEGMENT
?system_category@std@@YAABVerror_category@1@XZ PROC	; std::system_category, COMDAT

; 679  : 	{	// get system_category

	push	ebp
	mov	ebp, esp

; 680  : 	return (_Error_objects<int>::_System_object);

	mov	eax, OFFSET ?_System_object@?$_Error_objects@H@std@@2V_System_error_category@2@A ; std::_Error_objects<int>::_System_object

; 681  : 	}

	pop	ebp
	ret	0
?system_category@std@@YAABVerror_category@1@XZ ENDP	; std::system_category
_TEXT	ENDS
; Function compile flags: /Odtp
; File c:\program files (x86)\microsoft visual studio 11.0\vc\include\system_error
;	COMDAT ?generic_category@std@@YAABVerror_category@1@XZ
_TEXT	SEGMENT
?generic_category@std@@YAABVerror_category@1@XZ PROC	; std::generic_category, COMDAT

; 669  : 	{	// get generic_category

	push	ebp
	mov	ebp, esp

; 670  : 	return (_Error_objects<int>::_Generic_object);

	mov	eax, OFFSET ?_Generic_object@?$_Error_objects@H@std@@2V_Generic_error_category@2@A ; std::_Error_objects<int>::_Generic_object

; 671  : 	}

	pop	ebp
	ret	0
?generic_category@std@@YAABVerror_category@1@XZ ENDP	; std::generic_category
_TEXT	ENDS
; Function compile flags: /Odtp
; File c:\program files (x86)\microsoft visual studio 11.0\vc\include\xlocale
;	COMDAT ??0id@locale@std@@QAE@I@Z
_TEXT	SEGMENT
_this$ = -4						; size = 4
__Val$ = 8						; size = 4
??0id@locale@std@@QAE@I@Z PROC				; std::locale::id::id, COMDAT
; _this$ = ecx

; 74   : 			{	// construct with specified stamp value

	push	ebp
	mov	ebp, esp
	push	ecx
	mov	DWORD PTR _this$[ebp], ecx
	mov	eax, DWORD PTR _this$[ebp]
	mov	ecx, DWORD PTR __Val$[ebp]
	mov	DWORD PTR [eax], ecx

; 75   : 			}

	mov	eax, DWORD PTR _this$[ebp]
	mov	esp, ebp
	pop	ebp
	ret	4
??0id@locale@std@@QAE@I@Z ENDP				; std::locale::id::id
_TEXT	ENDS
; Function compile flags: /Odtp
; File c:\users\zhitao li\documents\visual studio 2012\projects\freefalcon\sim\include\aircrft.h
;	COMDAT ?SetStaticTurbulence@AircraftClass@@QAEXMMM@Z
_TEXT	SEGMENT
_this$ = -4						; size = 4
_RateX$ = 8						; size = 4
_RateY$ = 12						; size = 4
_RateZ$ = 16						; size = 4
?SetStaticTurbulence@AircraftClass@@QAEXMMM@Z PROC	; AircraftClass::SetStaticTurbulence, COMDAT
; _this$ = ecx

; 723  : 	void	SetStaticTurbulence(float RateX, float RateY, float RateZ){ 

	push	ebp
	mov	ebp, esp
	push	ecx
	mov	DWORD PTR _this$[ebp], ecx

; 724  : 		StaticTurbulence.x+=RateX; StaticTurbulence.y+=RateY; StaticTurbulence.z+=RateZ; 

	mov	eax, DWORD PTR _this$[ebp]
	movss	xmm0, DWORD PTR [eax+3600]
	addss	xmm0, DWORD PTR _RateX$[ebp]
	mov	ecx, DWORD PTR _this$[ebp]
	movss	DWORD PTR [ecx+3600], xmm0
	mov	edx, DWORD PTR _this$[ebp]
	movss	xmm0, DWORD PTR [edx+3604]
	addss	xmm0, DWORD PTR _RateY$[ebp]
	mov	eax, DWORD PTR _this$[ebp]
	movss	DWORD PTR [eax+3604], xmm0
	mov	ecx, DWORD PTR _this$[ebp]
	movss	xmm0, DWORD PTR [ecx+3608]
	addss	xmm0, DWORD PTR _RateZ$[ebp]
	mov	edx, DWORD PTR _this$[ebp]
	movss	DWORD PTR [edx+3608], xmm0

; 725  : 	}

	mov	esp, ebp
	pop	ebp
	ret	12					; 0000000cH
?SetStaticTurbulence@AircraftClass@@QAEXMMM@Z ENDP	; AircraftClass::SetStaticTurbulence
_TEXT	ENDS
; Function compile flags: /Odtp
; File c:\users\zhitao li\documents\visual studio 2012\projects\freefalcon\sim\include\aircrft.h
;	COMDAT ?DBrain@AircraftClass@@QAEPAVDigitalBrain@@XZ
_TEXT	SEGMENT
_this$ = -4						; size = 4
?DBrain@AircraftClass@@QAEPAVDigitalBrain@@XZ PROC	; AircraftClass::DBrain, COMDAT
; _this$ = ecx

; 624  : 	DigitalBrain *DBrain(void)			{return (DigitalBrain *)theBrain;}

	push	ebp
	mov	ebp, esp
	push	ecx
	mov	DWORD PTR _this$[ebp], ecx
	mov	eax, DWORD PTR _this$[ebp]
	mov	eax, DWORD PTR [eax+672]
	mov	esp, ebp
	pop	ebp
	ret	0
?DBrain@AircraftClass@@QAEPAVDigitalBrain@@XZ ENDP	; AircraftClass::DBrain
_TEXT	ENDS
; Function compile flags: /Odtp
; File c:\users\zhitao li\documents\visual studio 2012\projects\freefalcon\sim\include\aircrft.h
;	COMDAT ?IsComplex@AircraftClass@@QAEHXZ
_TEXT	SEGMENT
_this$ = -8						; size = 4
tv67 = -4						; size = 4
?IsComplex@AircraftClass@@QAEHXZ PROC			; AircraftClass::IsComplex, COMDAT
; _this$ = ecx

; 336  : 	int            IsComplex (void) {return ((acFlags & isComplex) ? TRUE : FALSE);}

	push	ebp
	mov	ebp, esp
	sub	esp, 8
	mov	DWORD PTR _this$[ebp], ecx
	mov	eax, DWORD PTR _this$[ebp]
	mov	ecx, DWORD PTR [eax+964]
	and	ecx, 4
	je	SHORT $LN3@IsComplex
	mov	DWORD PTR tv67[ebp], 1
	jmp	SHORT $LN4@IsComplex
$LN3@IsComplex:
	mov	DWORD PTR tv67[ebp], 0
$LN4@IsComplex:
	mov	eax, DWORD PTR tv67[ebp]
	mov	esp, ebp
	pop	ebp
	ret	0
?IsComplex@AircraftClass@@QAEHXZ ENDP			; AircraftClass::IsComplex
_TEXT	ENDS
; Function compile flags: /Odtp
; File c:\users\zhitao li\documents\visual studio 2012\projects\freefalcon\sim\include\aircrft.h
;	COMDAT ?AutopilotType@AircraftClass@@QAE?AW4AutoPilotType@1@XZ
_TEXT	SEGMENT
_this$ = -4						; size = 4
?AutopilotType@AircraftClass@@QAE?AW4AutoPilotType@1@XZ PROC ; AircraftClass::AutopilotType, COMDAT
; _this$ = ecx

; 329  : 	AutoPilotType	AutopilotType (void) {return autopilotType;};

	push	ebp
	mov	ebp, esp
	push	ecx
	mov	DWORD PTR _this$[ebp], ecx
	mov	eax, DWORD PTR _this$[ebp]
	mov	eax, DWORD PTR [eax+968]
	mov	esp, ebp
	pop	ebp
	ret	0
?AutopilotType@AircraftClass@@QAE?AW4AutoPilotType@1@XZ ENDP ; AircraftClass::AutopilotType
_TEXT	ENDS
; Function compile flags: /Odtp
; File c:\users\zhitao li\documents\visual studio 2012\projects\freefalcon\sim\include\simmover.h
;	COMDAT ?GetDOFValue@SimMoverClass@@QAEMH@Z
_TEXT	SEGMENT
tv69 = -8						; size = 4
_this$ = -4						; size = 4
_dof$ = 8						; size = 4
?GetDOFValue@SimMoverClass@@QAEMH@Z PROC		; SimMoverClass::GetDOFValue, COMDAT
; _this$ = ecx

; 132  : 	float GetDOFValue (int dof) { ShiAssert(dof < numDofs); return dof < numDofs ? DOFData[dof] : 0;}

	push	ebp
	mov	ebp, esp
	sub	esp, 8
	mov	DWORD PTR _this$[ebp], ecx
	mov	eax, DWORD PTR _this$[ebp]
	mov	ecx, DWORD PTR _dof$[ebp]
	cmp	ecx, DWORD PTR [eax+600]
	jge	SHORT $LN3@GetDOFValu
	mov	edx, DWORD PTR _this$[ebp]
	mov	eax, DWORD PTR [edx+612]
	mov	ecx, DWORD PTR _dof$[ebp]
	movss	xmm0, DWORD PTR [eax+ecx*4]
	movss	DWORD PTR tv69[ebp], xmm0
	jmp	SHORT $LN4@GetDOFValu
$LN3@GetDOFValu:
	movss	xmm0, DWORD PTR __real@00000000
	movss	DWORD PTR tv69[ebp], xmm0
$LN4@GetDOFValu:
	fld	DWORD PTR tv69[ebp]
	mov	esp, ebp
	pop	ebp
	ret	4
?GetDOFValue@SimMoverClass@@QAEMH@Z ENDP		; SimMoverClass::GetDOFValue
_TEXT	ENDS
; Function compile flags: /Odtp
; File c:\users\zhitao li\documents\visual studio 2012\projects\freefalcon\sim\include\simmover.h
;	COMDAT ?SetDOF@SimMoverClass@@QAEXHM@Z
_TEXT	SEGMENT
_this$ = -4						; size = 4
_dof$ = 8						; size = 4
_val$ = 12						; size = 4
?SetDOF@SimMoverClass@@QAEXHM@Z PROC			; SimMoverClass::SetDOF, COMDAT
; _this$ = ecx

; 130  : 	void SetDOF (int dof, float val) { ShiAssert(dof < numDofs); if (dof < numDofs) { DOFData[dof] = val;}}

	push	ebp
	mov	ebp, esp
	push	ecx
	mov	DWORD PTR _this$[ebp], ecx
	mov	eax, DWORD PTR _this$[ebp]
	mov	ecx, DWORD PTR _dof$[ebp]
	cmp	ecx, DWORD PTR [eax+600]
	jge	SHORT $LN1@SetDOF
	mov	edx, DWORD PTR _this$[ebp]
	mov	eax, DWORD PTR [edx+612]
	mov	ecx, DWORD PTR _dof$[ebp]
	movss	xmm0, DWORD PTR _val$[ebp]
	movss	DWORD PTR [eax+ecx*4], xmm0
$LN1@SetDOF:
	mov	esp, ebp
	pop	ebp
	ret	8
?SetDOF@SimMoverClass@@QAEXHM@Z ENDP			; SimMoverClass::SetDOF
_TEXT	ENDS
; Function compile flags: /Odtp
; File c:\users\zhitao li\documents\visual studio 2012\projects\freefalcon\sim\include\simbase.h
;	COMDAT ?MaxStrength@SimBaseClass@@QAEMXZ
_TEXT	SEGMENT
_this$ = -4						; size = 4
?MaxStrength@SimBaseClass@@QAEMXZ PROC			; SimBaseClass::MaxStrength, COMDAT
; _this$ = ecx

; 227  : 	float MaxStrength (void) {return maxStrength;};

	push	ebp
	mov	ebp, esp
	push	ecx
	mov	DWORD PTR _this$[ebp], ecx
	mov	eax, DWORD PTR _this$[ebp]
	fld	DWORD PTR [eax+244]
	mov	esp, ebp
	pop	ebp
	ret	0
?MaxStrength@SimBaseClass@@QAEMXZ ENDP			; SimBaseClass::MaxStrength
_TEXT	ENDS
; Function compile flags: /Odtp
; File c:\users\zhitao li\documents\visual studio 2012\projects\freefalcon\sim\include\simbase.h
;	COMDAT ?GetCampaignObject@SimBaseClass@@QAEPAVCampBaseClass@@XZ
_TEXT	SEGMENT
_this$ = -4						; size = 4
?GetCampaignObject@SimBaseClass@@QAEPAVCampBaseClass@@XZ PROC ; SimBaseClass::GetCampaignObject, COMDAT
; _this$ = ecx

; 212  : 	CampBaseClass *GetCampaignObject (void) { return campaignObject.get(); }

	push	ebp
	mov	ebp, esp
	push	ecx
	mov	DWORD PTR _this$[ebp], ecx
	mov	ecx, DWORD PTR _this$[ebp]
	add	ecx, 144				; 00000090H
	call	?get@?$VuBin@VCampBaseClass@@@@QBEPAVCampBaseClass@@XZ ; VuBin<CampBaseClass>::get
	mov	esp, ebp
	pop	ebp
	ret	0
?GetCampaignObject@SimBaseClass@@QAEPAVCampBaseClass@@XZ ENDP ; SimBaseClass::GetCampaignObject
_TEXT	ENDS
; Function compile flags: /Odtp
; File c:\users\zhitao li\documents\visual studio 2012\projects\freefalcon\sim\include\simbase.h
;	COMDAT ?IsSetFlag@SimBaseClass@@QBEHH@Z
_TEXT	SEGMENT
_this$ = -8						; size = 4
tv68 = -4						; size = 4
_flag$ = 8						; size = 4
?IsSetFlag@SimBaseClass@@QBEHH@Z PROC			; SimBaseClass::IsSetFlag, COMDAT
; _this$ = ecx

; 178  : 	int  IsSetFlag(int flag) const { return ((specialData.flags & flag) ? TRUE : FALSE); }

	push	ebp
	mov	ebp, esp
	sub	esp, 8
	mov	DWORD PTR _this$[ebp], ecx
	mov	eax, DWORD PTR _this$[ebp]
	mov	ecx, DWORD PTR [eax+172]
	and	ecx, DWORD PTR _flag$[ebp]
	je	SHORT $LN3@IsSetFlag
	mov	DWORD PTR tv68[ebp], 1
	jmp	SHORT $LN4@IsSetFlag
$LN3@IsSetFlag:
	mov	DWORD PTR tv68[ebp], 0
$LN4@IsSetFlag:
	mov	eax, DWORD PTR tv68[ebp]
	mov	esp, ebp
	pop	ebp
	ret	4
?IsSetFlag@SimBaseClass@@QBEHH@Z ENDP			; SimBaseClass::IsSetFlag
_TEXT	ENDS
; Function compile flags: /Odtp
; File c:\users\zhitao li\documents\visual studio 2012\projects\freefalcon\vu2\include\vu_templates.h
;	COMDAT ?get@?$VuBin@VCampBaseClass@@@@QBEPAVCampBaseClass@@XZ
_TEXT	SEGMENT
_this$ = -4						; size = 4
?get@?$VuBin@VCampBaseClass@@@@QBEPAVCampBaseClass@@XZ PROC ; VuBin<CampBaseClass>::get, COMDAT
; _this$ = ecx

; 55   : 	E *get() const{

	push	ebp
	mov	ebp, esp
	push	ecx
	mov	DWORD PTR _this$[ebp], ecx

; 56   : 		return e;

	mov	eax, DWORD PTR _this$[ebp]
	mov	eax, DWORD PTR [eax]

; 57   : 	}

	mov	esp, ebp
	pop	ebp
	ret	0
?get@?$VuBin@VCampBaseClass@@@@QBEPAVCampBaseClass@@XZ ENDP ; VuBin<CampBaseClass>::get
_TEXT	ENDS
; Function compile flags: /Odtp
; File c:\users\zhitao li\documents\visual studio 2012\projects\freefalcon\sim\include\airframe.h
;	COMDAT ?IsSet@AirframeClass@@QBEHH@Z
_TEXT	SEGMENT
_this$ = -8						; size = 4
tv67 = -4						; size = 4
_testFlag$ = 8						; size = 4
?IsSet@AirframeClass@@QBEHH@Z PROC			; AirframeClass::IsSet, COMDAT
; _this$ = ecx

; 1216 : 	int IsSet (int testFlag) const {return flags & testFlag ? 1 : 0;}

	push	ebp
	mov	ebp, esp
	sub	esp, 8
	mov	DWORD PTR _this$[ebp], ecx
	mov	eax, DWORD PTR _this$[ebp]
	mov	ecx, DWORD PTR [eax+88]
	and	ecx, DWORD PTR _testFlag$[ebp]
	je	SHORT $LN3@IsSet
	mov	DWORD PTR tv67[ebp], 1
	jmp	SHORT $LN4@IsSet
$LN3@IsSet:
	mov	DWORD PTR tv67[ebp], 0
$LN4@IsSet:
	mov	eax, DWORD PTR tv67[ebp]
	mov	esp, ebp
	pop	ebp
	ret	4
?IsSet@AirframeClass@@QBEHH@Z ENDP			; AirframeClass::IsSet
_TEXT	ENDS
; Function compile flags: /Odtp
; File c:\users\zhitao li\documents\visual studio 2012\projects\freefalcon\sim\include\airframe.h
;	COMDAT ?ClearFlag@AirframeClass@@QAEXH@Z
_TEXT	SEGMENT
_this$ = -4						; size = 4
_newFlag$ = 8						; size = 4
?ClearFlag@AirframeClass@@QAEXH@Z PROC			; AirframeClass::ClearFlag, COMDAT
; _this$ = ecx

; 1215 : 	void ClearFlag (int newFlag) {flags &= ~newFlag;};

	push	ebp
	mov	ebp, esp
	push	ecx
	mov	DWORD PTR _this$[ebp], ecx
	mov	eax, DWORD PTR _newFlag$[ebp]
	not	eax
	mov	ecx, DWORD PTR _this$[ebp]
	and	eax, DWORD PTR [ecx+88]
	mov	edx, DWORD PTR _this$[ebp]
	mov	DWORD PTR [edx+88], eax
	mov	esp, ebp
	pop	ebp
	ret	4
?ClearFlag@AirframeClass@@QAEXH@Z ENDP			; AirframeClass::ClearFlag
_TEXT	ENDS
; Function compile flags: /Odtp
; File c:\users\zhitao li\documents\visual studio 2012\projects\freefalcon\sim\include\airframe.h
;	COMDAT ?SetFlag@AirframeClass@@QAEXH@Z
_TEXT	SEGMENT
_this$ = -4						; size = 4
_newFlag$ = 8						; size = 4
?SetFlag@AirframeClass@@QAEXH@Z PROC			; AirframeClass::SetFlag, COMDAT
; _this$ = ecx

; 1214 : 	void SetFlag (int newFlag) {flags |= newFlag;};

	push	ebp
	mov	ebp, esp
	push	ecx
	mov	DWORD PTR _this$[ebp], ecx
	mov	eax, DWORD PTR _this$[ebp]
	mov	ecx, DWORD PTR [eax+88]
	or	ecx, DWORD PTR _newFlag$[ebp]
	mov	edx, DWORD PTR _this$[ebp]
	mov	DWORD PTR [edx+88], ecx
	mov	esp, ebp
	pop	ebp
	ret	4
?SetFlag@AirframeClass@@QAEXH@Z ENDP			; AirframeClass::SetFlag
_TEXT	ENDS
; Function compile flags: /Odtp
; File c:\users\zhitao li\documents\visual studio 2012\projects\freefalcon\sim\airframe\eom.cpp
_TEXT	SEGMENT
_volume$1 = -84						; size = 4
_message$2 = -80					; size = 4
_pitch$3 = -76						; size = 4
tv95 = -72						; size = 4
tv82 = -68						; size = 4
tv203 = -64						; size = 4
tv73 = -60						; size = 4
tv180 = -56						; size = 4
_Runway$4 = -52						; size = 4
tv140 = -48						; size = 4
_airbase$5 = -44					; size = 4
tv83 = -40						; size = 4
_dmgStrength$6 = -36					; size = 4
tv141 = -32						; size = 4
_gy$7 = -28						; size = 2
_gx$8 = -24						; size = 2
_this$ = -20						; size = 4
_pos$9 = -16						; size = 12
__$ArrayPad$ = -4					; size = 4
?DragBodypart@AirframeClass@@QAEXXZ PROC		; AirframeClass::DragBodypart
; _this$ = ecx

; 1909 : {

	push	ebp
	mov	ebp, esp
	sub	esp, 84					; 00000054H
	mov	eax, DWORD PTR ___security_cookie
	xor	eax, ebp
	mov	DWORD PTR __$ArrayPad$[ebp], eax
	mov	DWORD PTR _this$[ebp], ecx

; 1910 : 	if(vt > 1.0F){

	mov	eax, DWORD PTR _this$[ebp]
	movss	xmm0, DWORD PTR [eax+1120]
	comiss	xmm0, DWORD PTR __real@3f800000
	jbe	$LN10@DragBodypa

; 1911 : 		float pitch, volume;
; 1912 : 		pitch = max(0.2F, min(vt/70.0F, 2.0F));

	mov	ecx, DWORD PTR _this$[ebp]
	movss	xmm0, DWORD PTR [ecx+1120]
	divss	xmm0, DWORD PTR __real@428c0000
	movss	xmm1, DWORD PTR __real@40000000
	comiss	xmm1, xmm0
	jbe	SHORT $LN13@DragBodypa
	mov	edx, DWORD PTR _this$[ebp]
	movss	xmm0, DWORD PTR [edx+1120]
	divss	xmm0, DWORD PTR __real@428c0000
	movss	DWORD PTR tv73[ebp], xmm0
	jmp	SHORT $LN14@DragBodypa
$LN13@DragBodypa:
	movss	xmm0, DWORD PTR __real@40000000
	movss	DWORD PTR tv73[ebp], xmm0
$LN14@DragBodypa:
	movss	xmm0, DWORD PTR __real@3e4ccccd
	comiss	xmm0, DWORD PTR tv73[ebp]
	jbe	SHORT $LN17@DragBodypa
	movss	xmm0, DWORD PTR __real@3e4ccccd
	movss	DWORD PTR tv83[ebp], xmm0
	jmp	SHORT $LN18@DragBodypa
$LN17@DragBodypa:
	mov	eax, DWORD PTR _this$[ebp]
	movss	xmm0, DWORD PTR [eax+1120]
	divss	xmm0, DWORD PTR __real@428c0000
	movss	xmm1, DWORD PTR __real@40000000
	comiss	xmm1, xmm0
	jbe	SHORT $LN15@DragBodypa
	mov	ecx, DWORD PTR _this$[ebp]
	movss	xmm0, DWORD PTR [ecx+1120]
	divss	xmm0, DWORD PTR __real@428c0000
	movss	DWORD PTR tv82[ebp], xmm0
	jmp	SHORT $LN16@DragBodypa
$LN15@DragBodypa:
	movss	xmm0, DWORD PTR __real@40000000
	movss	DWORD PTR tv82[ebp], xmm0
$LN16@DragBodypa:
	movss	xmm0, DWORD PTR tv82[ebp]
	movss	DWORD PTR tv83[ebp], xmm0
$LN18@DragBodypa:
	movss	xmm0, DWORD PTR tv83[ebp]
	movss	DWORD PTR _pitch$3[ebp], xmm0

; 1913 : 		volume = max(0.0F, min(160000.0F - vt*vt, 4000000.0F));

	mov	edx, DWORD PTR _this$[ebp]
	mov	eax, DWORD PTR _this$[ebp]
	movss	xmm0, DWORD PTR [edx+1120]
	mulss	xmm0, DWORD PTR [eax+1120]
	movss	xmm1, DWORD PTR __real@481c4000
	subss	xmm1, xmm0
	movss	xmm0, DWORD PTR __real@4a742400
	comiss	xmm0, xmm1
	jbe	SHORT $LN19@DragBodypa
	mov	ecx, DWORD PTR _this$[ebp]
	mov	edx, DWORD PTR _this$[ebp]
	movss	xmm0, DWORD PTR [ecx+1120]
	mulss	xmm0, DWORD PTR [edx+1120]
	movss	xmm1, DWORD PTR __real@481c4000
	subss	xmm1, xmm0
	movss	DWORD PTR tv95[ebp], xmm1
	jmp	SHORT $LN20@DragBodypa
$LN19@DragBodypa:
	movss	xmm0, DWORD PTR __real@4a742400
	movss	DWORD PTR tv95[ebp], xmm0
$LN20@DragBodypa:
	movss	xmm0, DWORD PTR __real@00000000
	comiss	xmm0, DWORD PTR tv95[ebp]
	jbe	SHORT $LN23@DragBodypa
	movss	xmm0, DWORD PTR __real@00000000
	movss	DWORD PTR tv141[ebp], xmm0
	jmp	SHORT $LN24@DragBodypa
$LN23@DragBodypa:
	mov	eax, DWORD PTR _this$[ebp]
	mov	ecx, DWORD PTR _this$[ebp]
	movss	xmm0, DWORD PTR [eax+1120]
	mulss	xmm0, DWORD PTR [ecx+1120]
	movss	xmm1, DWORD PTR __real@481c4000
	subss	xmm1, xmm0
	movss	xmm0, DWORD PTR __real@4a742400
	comiss	xmm0, xmm1
	jbe	SHORT $LN21@DragBodypa
	mov	edx, DWORD PTR _this$[ebp]
	mov	eax, DWORD PTR _this$[ebp]
	movss	xmm0, DWORD PTR [edx+1120]
	mulss	xmm0, DWORD PTR [eax+1120]
	movss	xmm1, DWORD PTR __real@481c4000
	subss	xmm1, xmm0
	movss	DWORD PTR tv140[ebp], xmm1
	jmp	SHORT $LN22@DragBodypa
$LN21@DragBodypa:
	movss	xmm0, DWORD PTR __real@4a742400
	movss	DWORD PTR tv140[ebp], xmm0
$LN22@DragBodypa:
	movss	xmm0, DWORD PTR tv140[ebp]
	movss	DWORD PTR tv141[ebp], xmm0
$LN24@DragBodypa:
	movss	xmm0, DWORD PTR tv141[ebp]
	movss	DWORD PTR _volume$1[ebp], xmm0

; 1914 : 		platform->SoundPos.Sfx( SFX_TAILSCRAPE, 0 , volume, pitch  );

	push	ecx
	movss	xmm0, DWORD PTR _pitch$3[ebp]
	movss	DWORD PTR [esp], xmm0
	push	ecx
	movss	xmm0, DWORD PTR _volume$1[ebp]
	movss	DWORD PTR [esp], xmm0
	push	0
	push	168					; 000000a8H
	mov	ecx, DWORD PTR _this$[ebp]
	mov	ecx, DWORD PTR [ecx+1088]
	add	ecx, 444				; 000001bcH
	call	?Sfx@F4SoundPos@@QAEXHHMM@Z		; F4SoundPos::Sfx

; 1915 : 
; 1916 : 		if(!IsSet(Simplified)){

	push	8192					; 00002000H
	mov	ecx, DWORD PTR _this$[ebp]
	call	?IsSet@AirframeClass@@QBEHH@Z		; AirframeClass::IsSet
	test	eax, eax
	jne	$LN9@DragBodypa

; 1917 : 			if(platform->pctStrength > 0.5F){

	mov	edx, DWORD PTR _this$[ebp]
	mov	eax, DWORD PTR [edx+1088]
	movss	xmm0, DWORD PTR [eax+292]
	comiss	xmm0, DWORD PTR __real@3f000000
	jbe	$LN7@DragBodypa

; 1918 : 				int dmgStrength = FloatToInt32(max(0.0F,vt * 0.01F*(1.0F - nzcgs))*rand()/(float)RAND_MAX);

	mov	ecx, DWORD PTR _this$[ebp]
	movss	xmm0, DWORD PTR [ecx+1120]
	mulss	xmm0, DWORD PTR __real@3c23d70a
	mov	edx, DWORD PTR _this$[ebp]
	movss	xmm1, DWORD PTR __real@3f800000
	subss	xmm1, DWORD PTR [edx+268]
	mulss	xmm0, xmm1
	movss	xmm1, DWORD PTR __real@00000000
	comiss	xmm1, xmm0
	jbe	SHORT $LN25@DragBodypa
	movss	xmm0, DWORD PTR __real@00000000
	movss	DWORD PTR tv180[ebp], xmm0
	jmp	SHORT $LN26@DragBodypa
$LN25@DragBodypa:
	mov	eax, DWORD PTR _this$[ebp]
	movss	xmm0, DWORD PTR [eax+1120]
	mulss	xmm0, DWORD PTR __real@3c23d70a
	mov	ecx, DWORD PTR _this$[ebp]
	movss	xmm1, DWORD PTR __real@3f800000
	subss	xmm1, DWORD PTR [ecx+268]
	mulss	xmm0, xmm1
	movss	DWORD PTR tv180[ebp], xmm0
$LN26@DragBodypa:
	call	_rand
	cvtsi2ss xmm0, eax
	mulss	xmm0, DWORD PTR tv180[ebp]
	divss	xmm0, DWORD PTR __real@46fffe00
	push	ecx
	movss	DWORD PTR [esp], xmm0
	call	?FloatToInt32@@YAHM@Z			; FloatToInt32
	add	esp, 4
	mov	DWORD PTR _dmgStrength$6[ebp], eax

; 1919 : 				if(dmgStrength){

	cmp	DWORD PTR _dmgStrength$6[ebp], 0
	je	SHORT $LN7@DragBodypa

; 1920 : 					FalconDamageMessage *message = CreateGroundCollisionMessage(platform, dmgStrength);			

	mov	ecx, OFFSET ?vuLocalSessionEntity@@3V?$VuBin@VVuSessionEntity@@@@A ; vuLocalSessionEntity
	call	??B?$VuBin@VVuSessionEntity@@@@QBE_NXZ	; VuBin<VuSessionEntity>::operator bool
	movzx	edx, al
	test	edx, edx
	je	SHORT $LN27@DragBodypa
	mov	ecx, OFFSET ?vuLocalSessionEntity@@3V?$VuBin@VVuSessionEntity@@@@A ; vuLocalSessionEntity
	call	?get@?$VuBin@VVuSessionEntity@@@@QBEPAVVuSessionEntity@@XZ ; VuBin<VuSessionEntity>::get
	mov	ecx, eax
	call	?GetGame@FalconSessionEntity@@QAEPAVFalconGameEntity@@XZ ; FalconSessionEntity::GetGame
	mov	DWORD PTR tv203[ebp], eax
	jmp	SHORT $LN28@DragBodypa
$LN27@DragBodypa:
	mov	DWORD PTR tv203[ebp], 0
$LN28@DragBodypa:
	mov	eax, DWORD PTR tv203[ebp]
	push	eax
	mov	ecx, DWORD PTR _dmgStrength$6[ebp]
	push	ecx
	mov	edx, DWORD PTR _this$[ebp]
	mov	eax, DWORD PTR [edx+1088]
	push	eax
	call	?CreateGroundCollisionMessage@@YAPAVFalconDamageMessage@@PAVSimVehicleClass@@HPAVVuTargetEntity@@@Z ; CreateGroundCollisionMessage
	add	esp, 12					; 0000000cH
	mov	DWORD PTR _message$2[ebp], eax

; 1921 : 					FalconSendMessage (message,FALSE);

	push	0
	mov	ecx, DWORD PTR _message$2[ebp]
	push	ecx
	call	?FalconSendMessage@@YAXPAVVuMessage@@H@Z ; FalconSendMessage
	add	esp, 8
$LN7@DragBodypa:

; 1922 : 				}
; 1923 : 			}
; 1924 : 			xwaero -= 0.4F * (1.0F - nzcgs)*GRAVITY;

	mov	edx, DWORD PTR _this$[ebp]
	movss	xmm0, DWORD PTR __real@3f800000
	subss	xmm0, DWORD PTR [edx+268]
	mulss	xmm0, DWORD PTR __real@3ecccccd
	mulss	xmm0, DWORD PTR __real@4200b53f
	mov	eax, DWORD PTR _this$[ebp]
	movss	xmm1, DWORD PTR [eax+748]
	subss	xmm1, xmm0
	mov	ecx, DWORD PTR _this$[ebp]
	movss	DWORD PTR [ecx+748], xmm1

; 1925 : 		}
; 1926 : 		else

	jmp	SHORT $LN6@DragBodypa
$LN9@DragBodypa:

; 1927 : 			xwaero -= 0.2F * (1.0F - nzcgs)*GRAVITY;

	mov	edx, DWORD PTR _this$[ebp]
	movss	xmm0, DWORD PTR __real@3f800000
	subss	xmm0, DWORD PTR [edx+268]
	mulss	xmm0, DWORD PTR __real@3e4ccccd
	mulss	xmm0, DWORD PTR __real@4200b53f
	mov	eax, DWORD PTR _this$[ebp]
	movss	xmm1, DWORD PTR [eax+748]
	subss	xmm1, xmm0
	mov	ecx, DWORD PTR _this$[ebp]
	movss	DWORD PTR [ecx+748], xmm1
$LN6@DragBodypa:
	jmp	$LN1@DragBodypa
$LN10@DragBodypa:

; 1928 : 	}
; 1929 : 	else if(vt <= 0.0F && platform->DBrain()->ATCStatus() != lCrashed){

	mov	edx, DWORD PTR _this$[ebp]
	movss	xmm0, DWORD PTR __real@00000000
	comiss	xmm0, DWORD PTR [edx+1120]
	jb	$LN1@DragBodypa
	mov	eax, DWORD PTR _this$[ebp]
	mov	ecx, DWORD PTR [eax+1088]
	call	?DBrain@AircraftClass@@QAEPAVDigitalBrain@@XZ ; AircraftClass::DBrain
	mov	ecx, eax
	call	?ATCStatus@DigitalBrain@@QAE?AW4AtcStatusEnum@@XZ ; DigitalBrain::ATCStatus
	cmp	eax, 18					; 00000012H
	je	$LN1@DragBodypa

; 1930 : 		platform->DBrain()->SetATCStatus(lCrashed);

	push	18					; 00000012H
	mov	ecx, DWORD PTR _this$[ebp]
	mov	ecx, DWORD PTR [ecx+1088]
	call	?DBrain@AircraftClass@@QAEPAVDigitalBrain@@XZ ; AircraftClass::DBrain
	mov	ecx, eax
	call	?SetATCStatus@DigitalBrain@@QAEXW4AtcStatusEnum@@@Z ; DigitalBrain::SetATCStatus

; 1931 : 		if(platform != SimDriver.GetPlayerEntity()){

	mov	ecx, OFFSET ?SimDriver@@3VSimulationDriver@@A ; SimDriver
	call	?GetPlayerEntity@SimulationDriver@@QBEPAVSimMoverClass@@XZ ; SimulationDriver::GetPlayerEntity
	mov	edx, DWORD PTR _this$[ebp]
	cmp	DWORD PTR [edx+1088], eax
	je	SHORT $LN3@DragBodypa

; 1932 : 			platform->DBrain()->SetWaitTimer(SimLibElapsedTime + 1 * CampaignMinutes);

	mov	eax, DWORD PTR ?SimLibElapsedTime@@3KA	; SimLibElapsedTime
	add	eax, 60000				; 0000ea60H
	push	eax
	mov	ecx, DWORD PTR _this$[ebp]
	mov	ecx, DWORD PTR [ecx+1088]
	call	?DBrain@AircraftClass@@QAEPAVDigitalBrain@@XZ ; AircraftClass::DBrain
	mov	ecx, eax
	call	?SetWaitTimer@DigitalBrain@@QAEXK@Z	; DigitalBrain::SetWaitTimer
$LN3@DragBodypa:

; 1933 : 		}
; 1934 : 
; 1935 : 		int Runway = 0;

	mov	DWORD PTR _Runway$4[ebp], 0

; 1936 : 		// sfr: fixing xy order
; 1937 : 		GridIndex gx, gy;
; 1938 : 		vector pos = { x, y };

	mov	edx, DWORD PTR _this$[ebp]
	movss	xmm0, DWORD PTR [edx+1108]
	movss	DWORD PTR _pos$9[ebp], xmm0
	mov	eax, DWORD PTR _this$[ebp]
	movss	xmm0, DWORD PTR [eax+1112]
	movss	DWORD PTR _pos$9[ebp+4], xmm0
	xor	ecx, ecx
	mov	DWORD PTR _pos$9[ebp+8], ecx

; 1939 : 		//CX = SimToGrid(y);
; 1940 : 		//CY = SimToGrid(x);
; 1941 : 		ConvertSimToGrid(&pos, &gx, &gy);

	lea	edx, DWORD PTR _gy$7[ebp]
	push	edx
	lea	eax, DWORD PTR _gx$8[ebp]
	push	eax
	lea	ecx, DWORD PTR _pos$9[ebp]
	push	ecx
	call	?ConvertSimToGrid@@YAXPAUvector@@PAF1@Z	; ConvertSimToGrid
	add	esp, 12					; 0000000cH

; 1942 : 		Objective airbase = FindNearbyAirbase(gx, gy);

	movzx	edx, WORD PTR _gy$7[ebp]
	push	edx
	movzx	eax, WORD PTR _gx$8[ebp]
	push	eax
	call	?FindNearbyAirbase@@YAPAVObjectiveClass@@FF@Z ; FindNearbyAirbase
	add	esp, 8
	mov	DWORD PTR _airbase$5[ebp], eax

; 1943 : 		if(airbase){

	cmp	DWORD PTR _airbase$5[ebp], 0
	je	SHORT $LN1@DragBodypa

; 1944 : 			Runway = airbase->brain->IsOverRunway(platform);

	mov	ecx, DWORD PTR _this$[ebp]
	mov	edx, DWORD PTR [ecx+1088]
	push	edx
	mov	eax, DWORD PTR _airbase$5[ebp]
	mov	ecx, DWORD PTR [eax+240]
	call	?IsOverRunway@ATCBrain@@QAEHPAVAircraftClass@@@Z ; ATCBrain::IsOverRunway
	mov	DWORD PTR _Runway$4[ebp], eax

; 1945 : 			if( Runway ){

	cmp	DWORD PTR _Runway$4[ebp], 0
	je	SHORT $LN1@DragBodypa

; 1946 : 				platform->DBrain()->SendATCMsg(lCrashed);

	push	18					; 00000012H
	mov	ecx, DWORD PTR _this$[ebp]
	mov	ecx, DWORD PTR [ecx+1088]
	call	?DBrain@AircraftClass@@QAEPAVDigitalBrain@@XZ ; AircraftClass::DBrain
	mov	ecx, eax
	call	?SendATCMsg@DigitalBrain@@QAEXW4AtcStatusEnum@@@Z ; DigitalBrain::SendATCMsg
$LN1@DragBodypa:

; 1947 : 			}
; 1948 : 		}
; 1949 : 	}	
; 1950 : }

	mov	ecx, DWORD PTR __$ArrayPad$[ebp]
	xor	ecx, ebp
	call	@__security_check_cookie@4
	mov	esp, ebp
	pop	ebp
	ret	0
?DragBodypart@AirframeClass@@QAEXXZ ENDP		; AirframeClass::DragBodypart
_TEXT	ENDS
; Function compile flags: /Odtp
; File c:\users\zhitao li\documents\visual studio 2012\projects\freefalcon\sim\include\airframe.h
;	COMDAT ?GetAeroData@AirframeClass@@QBEMH@Z
_TEXT	SEGMENT
_this$ = -4						; size = 4
_which$ = 8						; size = 4
?GetAeroData@AirframeClass@@QBEMH@Z PROC		; AirframeClass::GetAeroData, COMDAT
; _this$ = ecx

; 1207 : 	float GetAeroData(int which) const { return aeroDataset[vehicleIndex].inputData[which]; }

	push	ebp
	mov	ebp, esp
	push	ecx
	mov	DWORD PTR _this$[ebp], ecx
	mov	eax, DWORD PTR _this$[ebp]
	movsx	ecx, WORD PTR [eax+92]
	imul	ecx, 220				; 000000dcH
	add	ecx, DWORD PTR ?aeroDataset@@3PAVAeroDataSet@@A ; aeroDataset
	mov	edx, DWORD PTR _which$[ebp]
	fld	DWORD PTR [ecx+edx*4+16]
	mov	esp, ebp
	pop	ebp
	ret	4
?GetAeroData@AirframeClass@@QBEMH@Z ENDP		; AirframeClass::GetAeroData
_TEXT	ENDS
; Function compile flags: /Odtp
; File c:\users\zhitao li\documents\visual studio 2012\projects\freefalcon\sim\include\airframe.h
;	COMDAT ?NumGear@AirframeClass@@QBEHXZ
_TEXT	SEGMENT
_this$ = -4						; size = 4
?NumGear@AirframeClass@@QBEHXZ PROC			; AirframeClass::NumGear, COMDAT
; _this$ = ecx

; 1206 : 	int NumGear(void) const	{return FloatToInt32(aeroDataset[vehicleIndex].inputData[AeroDataSet::NumGear]);}

	push	ebp
	mov	ebp, esp
	push	ecx
	mov	DWORD PTR _this$[ebp], ecx
	mov	eax, DWORD PTR _this$[ebp]
	movsx	ecx, WORD PTR [eax+92]
	imul	ecx, 220				; 000000dcH
	add	ecx, DWORD PTR ?aeroDataset@@3PAVAeroDataSet@@A ; aeroDataset
	mov	edx, 4
	imul	edx, 13					; 0000000dH
	push	ecx
	movss	xmm0, DWORD PTR [ecx+edx+16]
	movss	DWORD PTR [esp], xmm0
	call	?FloatToInt32@@YAHM@Z			; FloatToInt32
	add	esp, 4
	mov	esp, ebp
	pop	ebp
	ret	0
?NumGear@AirframeClass@@QBEHXZ ENDP			; AirframeClass::NumGear
_TEXT	ENDS
; Function compile flags: /Odtp
; File c:\users\zhitao li\documents\visual studio 2012\projects\freefalcon\sim\airframe\eom.cpp
_TEXT	SEGMENT
$T2 = -104						; size = 8
tv544 = -96						; size = 4
tv510 = -92						; size = 4
tv508 = -88						; size = 4
tv506 = -84						; size = 4
tv504 = -80						; size = 4
tv502 = -76						; size = 4
$T3 = -72						; size = 4
tv500 = -68						; size = 4
tv355 = -64						; size = 4
tv316 = -60						; size = 4
tv268 = -56						; size = 4
tv254 = -52						; size = 4
$T4 = -48						; size = 4
tv242 = -44						; size = 4
tv162 = -40						; size = 4
tv154 = -36						; size = 4
tv86 = -32						; size = 4
_lmsg$5 = -28						; size = 4
_wheelbrakes$6 = -24					; size = 4
_Mu_fric$ = -20						; size = 4
_this$ = -16						; size = 4
__$EHRec$ = -12						; size = 12
_groundType$ = 8					; size = 4
?CalcMuFric@AirframeClass@@QAEMH@Z PROC			; AirframeClass::CalcMuFric
; _this$ = ecx

; 1085 : {

	push	ebp
	mov	ebp, esp
	push	-1
	push	__ehhandler$?CalcMuFric@AirframeClass@@QAEMH@Z
	mov	eax, DWORD PTR fs:0
	push	eax
	sub	esp, 92					; 0000005cH
	mov	eax, DWORD PTR ___security_cookie
	xor	eax, ebp
	push	eax
	lea	eax, DWORD PTR __$EHRec$[ebp]
	mov	DWORD PTR fs:0, eax
	mov	DWORD PTR _this$[ebp], ecx

; 1086 : 	float Mu_fric;
; 1087 : 	if(IsSet(GearBroken) || gearPos <= 0.3F || platform->platformAngles.cosphi < 0.9659F )

	push	2048					; 00000800H
	mov	ecx, DWORD PTR _this$[ebp]
	call	?IsSet@AirframeClass@@QBEHH@Z		; AirframeClass::IsSet
	test	eax, eax
	jne	SHORT $LN16@CalcMuFric
	mov	eax, DWORD PTR _this$[ebp]
	movss	xmm0, DWORD PTR __real@3e99999a
	comiss	xmm0, DWORD PTR [eax+1552]
	jae	SHORT $LN16@CalcMuFric
	mov	ecx, DWORD PTR _this$[ebp]
	mov	edx, DWORD PTR [ecx+1088]
	movss	xmm0, DWORD PTR __real@3f774539
	comiss	xmm0, DWORD PTR [edx+400]
	jbe	SHORT $LN17@CalcMuFric
$LN16@CalcMuFric:

; 1088 : 	{
; 1089 : 		Mu_fric = (0.6F + 0.3F * (!platform->onFlatFeature && groundType != COVERAGE_ROAD) + 0.1F*IsSet(OverRunway));

	mov	eax, DWORD PTR _this$[ebp]
	mov	ecx, DWORD PTR [eax+1088]
	cmp	DWORD PTR [ecx+668], 0
	jne	SHORT $LN20@CalcMuFric
	cmp	DWORD PTR _groundType$[ebp], 10		; 0000000aH
	je	SHORT $LN20@CalcMuFric
	mov	DWORD PTR tv86[ebp], 1
	jmp	SHORT $LN21@CalcMuFric
$LN20@CalcMuFric:
	mov	DWORD PTR tv86[ebp], 0
$LN21@CalcMuFric:
	cvtsi2ss xmm0, DWORD PTR tv86[ebp]
	mulss	xmm0, DWORD PTR __real@3e99999a
	addss	xmm0, DWORD PTR __real@3f19999a
	push	8388608					; 00800000H
	mov	ecx, DWORD PTR _this$[ebp]
	movss	DWORD PTR tv500[ebp], xmm0
	call	?IsSet@AirframeClass@@QBEHH@Z		; AirframeClass::IsSet
	cvtsi2ss xmm0, eax
	mulss	xmm0, DWORD PTR __real@3dcccccd
	movss	xmm1, DWORD PTR tv500[ebp]
	addss	xmm1, xmm0
	movss	DWORD PTR _Mu_fric$[ebp], xmm1

; 1090 : 	}
; 1091 : 	else

	jmp	$LN1@CalcMuFric
$LN17@CalcMuFric:

; 1092 : 	{
; 1093 : 		//MI check for parking brake
; 1094 : 		if(PBON)			

	mov	edx, DWORD PTR _this$[ebp]
	movzx	eax, BYTE PTR [edx+1616]
	test	eax, eax
	je	SHORT $LN14@CalcMuFric

; 1095 : 			SetFlag(WheelBrakes);

	push	8
	mov	ecx, DWORD PTR _this$[ebp]
	call	?SetFlag@AirframeClass@@QAEXH@Z		; AirframeClass::SetFlag
$LN14@CalcMuFric:

; 1096 : 		//if we've got more then 87% RPM, PB get's unset
; 1097 : 		if(PBON && (rpm >= 0.87))

	mov	ecx, DWORD PTR _this$[ebp]
	movzx	edx, BYTE PTR [ecx+1616]
	test	edx, edx
	je	SHORT $LN13@CalcMuFric
	mov	eax, DWORD PTR _this$[ebp]
	cvtss2sd xmm0, DWORD PTR [eax+1212]
	comisd	xmm0, QWORD PTR __real@3febd70a3d70a3d7
	jb	SHORT $LN13@CalcMuFric

; 1098 : 			TogglePB();

	mov	ecx, DWORD PTR _this$[ebp]
	call	?TogglePB@AirframeClass@@QAEXXZ		; AirframeClass::TogglePB
$LN13@CalcMuFric:

; 1099 : 
; 1100 : 		Mu_fric = 0.0F;

	movss	xmm0, DWORD PTR __real@00000000
	movss	DWORD PTR _Mu_fric$[ebp], xmm0

; 1101 : 		float wheelbrakes;
; 1102 : 		if(NumGear() > 1)

	mov	ecx, DWORD PTR _this$[ebp]
	call	?NumGear@AirframeClass@@QBEHXZ		; AirframeClass::NumGear
	cmp	eax, 1
	jle	$LN12@CalcMuFric

; 1103 : 		{
; 1104 : 			wheelbrakes = IsSet(WheelBrakes)*( (!(gear[1].flags & GearData::GearBroken) && TRUE) + (!(gear[2].flags & GearData::GearBroken) && TRUE) )*0.5F;

	mov	ecx, 28					; 0000001cH
	shl	ecx, 0
	mov	edx, DWORD PTR _this$[ebp]
	mov	eax, DWORD PTR [edx+1256]
	mov	ecx, DWORD PTR [eax+ecx+12]
	and	ecx, 2
	jne	SHORT $LN22@CalcMuFric
	mov	edx, 1
	test	edx, edx
	je	SHORT $LN22@CalcMuFric
	mov	DWORD PTR tv154[ebp], 1
	jmp	SHORT $LN23@CalcMuFric
$LN22@CalcMuFric:
	mov	DWORD PTR tv154[ebp], 0
$LN23@CalcMuFric:
	mov	eax, 28					; 0000001cH
	shl	eax, 1
	mov	ecx, DWORD PTR _this$[ebp]
	mov	edx, DWORD PTR [ecx+1256]
	mov	eax, DWORD PTR [edx+eax+12]
	and	eax, 2
	jne	SHORT $LN24@CalcMuFric
	mov	ecx, 1
	test	ecx, ecx
	je	SHORT $LN24@CalcMuFric
	mov	DWORD PTR tv162[ebp], 1
	jmp	SHORT $LN25@CalcMuFric
$LN24@CalcMuFric:
	mov	DWORD PTR tv162[ebp], 0
$LN25@CalcMuFric:
	push	8
	mov	ecx, DWORD PTR _this$[ebp]
	call	?IsSet@AirframeClass@@QBEHH@Z		; AirframeClass::IsSet
	mov	edx, DWORD PTR tv154[ebp]
	add	edx, DWORD PTR tv162[ebp]
	imul	eax, edx
	cvtsi2ss xmm0, eax
	mulss	xmm0, DWORD PTR __real@3f000000
	movss	DWORD PTR _wheelbrakes$6[ebp], xmm0

; 1105 : 		}
; 1106 : 		else

	jmp	SHORT $LN11@CalcMuFric
$LN12@CalcMuFric:

; 1107 : 			wheelbrakes = (float)IsSet(WheelBrakes);

	push	8
	mov	ecx, DWORD PTR _this$[ebp]
	call	?IsSet@AirframeClass@@QBEHH@Z		; AirframeClass::IsSet
	cvtsi2ss xmm0, eax
	movss	DWORD PTR _wheelbrakes$6[ebp], xmm0
$LN11@CalcMuFric:

; 1108 : 
; 1109 : 		// MD -- 20040106: adding analog wheel brake channel support
; 1110 : 		// Only for player, if wheelbrakes are set other than by the toe brake pressure
; 1111 : 		// (say because parking brake is on), then apply braking full force, otherwise
; 1112 : 		// make it proportional with the analog axis value.  Oh, and AP must be off, since
; 1113 : 		// smart combat AP still wants to use brakes as well.
; 1114 : 		// NB: Right now there is no support for differential braking!
; 1115 : 		// MD -- 20040111: reversed axis direction per testing feedback
; 1116 : 		
; 1117 : 		if (IO.AnalogIsUsed(AXIS_BRAKE_LEFT))

	push	8
	mov	ecx, OFFSET ?IO@@3VSIMLIB_IO_CLASS@@A	; IO
	call	?AnalogIsUsed@SIMLIB_IO_CLASS@@QAE_NW4GameAxis_t@@@Z ; SIMLIB_IO_CLASS::AnalogIsUsed
	movzx	eax, al
	test	eax, eax
	je	SHORT $LN9@CalcMuFric

; 1118 : 			if (platform->IsPlayer() && (wheelbrakes <= 0.1F) && (platform->AutopilotType() == AircraftClass::APOff))

	mov	ecx, DWORD PTR _this$[ebp]
	mov	ecx, DWORD PTR [ecx+1088]
	call	?IsPlayer@FalconEntity@@QAEHXZ		; FalconEntity::IsPlayer
	test	eax, eax
	je	SHORT $LN9@CalcMuFric
	movss	xmm0, DWORD PTR __real@3dcccccd
	comiss	xmm0, DWORD PTR _wheelbrakes$6[ebp]
	jb	SHORT $LN9@CalcMuFric
	mov	edx, DWORD PTR _this$[ebp]
	mov	ecx, DWORD PTR [edx+1088]
	call	?AutopilotType@AircraftClass@@QAE?AW4AutoPilotType@1@XZ ; AircraftClass::AutopilotType
	cmp	eax, 4
	jne	SHORT $LN9@CalcMuFric

; 1119 : 				wheelbrakes = (15000 - IO.GetAxisValue(AXIS_BRAKE_LEFT)) / 15000.0F;  // not quite so binary on/off

	push	8
	mov	ecx, OFFSET ?IO@@3VSIMLIB_IO_CLASS@@A	; IO
	call	?GetAxisValue@SIMLIB_IO_CLASS@@QAEHW4GameAxis_t@@@Z ; SIMLIB_IO_CLASS::GetAxisValue
	mov	ecx, 15000				; 00003a98H
	sub	ecx, eax
	cvtsi2ss xmm0, ecx
	divss	xmm0, DWORD PTR __real@466a6000
	movss	DWORD PTR _wheelbrakes$6[ebp], xmm0
$LN9@CalcMuFric:

; 1120 : 
; 1121 : 		if(!IsSet(OverRunway) )

	push	8388608					; 00800000H
	mov	ecx, DWORD PTR _this$[ebp]
	call	?IsSet@AirframeClass@@QBEHH@Z		; AirframeClass::IsSet
	test	eax, eax
	jne	SHORT $LN8@CalcMuFric

; 1122 : 			Mu_fric += 0.04F - 0.1F *wheelbrakes;

	movss	xmm0, DWORD PTR __real@3dcccccd
	mulss	xmm0, DWORD PTR _wheelbrakes$6[ebp]
	movss	xmm1, DWORD PTR __real@3d23d70a
	subss	xmm1, xmm0
	addss	xmm1, DWORD PTR _Mu_fric$[ebp]
	movss	DWORD PTR _Mu_fric$[ebp], xmm1
$LN8@CalcMuFric:

; 1123 : 
; 1124 : 		if(IsSet(OnObject) && IsSet(Hook)) // JB carrier

	push	1073741824				; 40000000H
	mov	ecx, DWORD PTR _this$[ebp]
	call	?IsSet@AirframeClass@@QBEHH@Z		; AirframeClass::IsSet
	test	eax, eax
	je	$LN7@CalcMuFric
	push	-2147483648				; 80000000H
	mov	ecx, DWORD PTR _this$[ebp]
	call	?IsSet@AirframeClass@@QBEHH@Z		; AirframeClass::IsSet
	test	eax, eax
	je	$LN7@CalcMuFric

; 1125 : 		{
; 1126 : 			if (vt < 40.0F * KNOTS_TO_FTPSEC)

	mov	edx, DWORD PTR _this$[ebp]
	movss	xmm0, DWORD PTR __real@428706e2
	comiss	xmm0, DWORD PTR [edx+1120]
	jbe	$LN6@CalcMuFric

; 1127 : 			{
; 1128 : 				alpha = 0.0F;

	mov	eax, DWORD PTR _this$[ebp]
	movss	xmm0, DWORD PTR __real@00000000
	movss	DWORD PTR [eax+1152], xmm0

; 1129 : 				beta = 0.0F;

	mov	ecx, DWORD PTR _this$[ebp]
	movss	xmm0, DWORD PTR __real@00000000
	movss	DWORD PTR [ecx+1156], xmm0

; 1130 : 				mu = 0.0F;

	mov	edx, DWORD PTR _this$[ebp]
	movss	xmm0, DWORD PTR __real@00000000
	movss	DWORD PTR [edx+1180], xmm0

; 1131 : 			
; 1132 : 				ResetOrientation();

	mov	ecx, DWORD PTR _this$[ebp]
	call	?ResetOrientation@AirframeClass@@QAEXXZ	; AirframeClass::ResetOrientation

; 1133 : 				Trigenometry();

	mov	ecx, DWORD PTR _this$[ebp]
	call	?Trigenometry@AirframeClass@@AAEXXZ	; AirframeClass::Trigenometry

; 1134 : 				//Cobra Set Landing Flag for Carrier ops. Should allow successful missions
; 1135 : 				if (carrierLand == 0)

	mov	eax, DWORD PTR _this$[ebp]
	cmp	DWORD PTR [eax+1496], 0
	jne	$LN5@CalcMuFric

; 1136 : 					{
; 1137 : 					FalconLandingMessage *lmsg = new FalconLandingMessage(platform->Id(), FalconLocalGame);

	push	51					; 00000033H
	call	??2@YAPAXI@Z				; operator new
	add	esp, 4
	mov	DWORD PTR $T4[ebp], eax
	mov	DWORD PTR __$EHRec$[ebp+8], 0
	cmp	DWORD PTR $T4[ebp], 0
	je	SHORT $LN28@CalcMuFric
	mov	ecx, OFFSET ?vuLocalSessionEntity@@3V?$VuBin@VVuSessionEntity@@@@A ; vuLocalSessionEntity
	call	??B?$VuBin@VVuSessionEntity@@@@QBE_NXZ	; VuBin<VuSessionEntity>::operator bool
	movzx	ecx, al
	test	ecx, ecx
	je	SHORT $LN26@CalcMuFric
	mov	ecx, OFFSET ?vuLocalSessionEntity@@3V?$VuBin@VVuSessionEntity@@@@A ; vuLocalSessionEntity
	call	?get@?$VuBin@VVuSessionEntity@@@@QBEPAVVuSessionEntity@@XZ ; VuBin<VuSessionEntity>::get
	mov	ecx, eax
	call	?GetGame@FalconSessionEntity@@QAEPAVFalconGameEntity@@XZ ; FalconSessionEntity::GetGame
	mov	DWORD PTR tv242[ebp], eax
	jmp	SHORT $LN27@CalcMuFric
$LN26@CalcMuFric:
	mov	DWORD PTR tv242[ebp], 0
$LN27@CalcMuFric:
	push	1
	mov	edx, DWORD PTR tv242[ebp]
	push	edx
	lea	eax, DWORD PTR $T2[ebp]
	push	eax
	mov	ecx, DWORD PTR _this$[ebp]
	mov	ecx, DWORD PTR [ecx+1088]
	call	?Id@VuEntity@@QBE?AVVU_ID@@XZ		; VuEntity::Id
	mov	edx, DWORD PTR [eax+4]
	push	edx
	mov	eax, DWORD PTR [eax]
	push	eax
	mov	ecx, DWORD PTR $T4[ebp]
	call	??0FalconLandingMessage@@QAE@VVU_ID@@PAVVuTargetEntity@@E@Z ; FalconLandingMessage::FalconLandingMessage
	mov	DWORD PTR tv254[ebp], eax
	jmp	SHORT $LN29@CalcMuFric
$LN28@CalcMuFric:
	mov	DWORD PTR tv254[ebp], 0
$LN29@CalcMuFric:
	mov	ecx, DWORD PTR tv254[ebp]
	mov	DWORD PTR $T3[ebp], ecx
	mov	DWORD PTR __$EHRec$[ebp+8], -1
	mov	edx, DWORD PTR $T3[ebp]
	mov	DWORD PTR _lmsg$5[ebp], edx

; 1138 : 					lmsg->dataBlock.campID = platform->GetCampaignObject()->GetCampID();

	mov	eax, DWORD PTR _this$[ebp]
	mov	ecx, DWORD PTR [eax+1088]
	call	?GetCampaignObject@SimBaseClass@@QAEPAVCampBaseClass@@XZ ; SimBaseClass::GetCampaignObject
	mov	DWORD PTR tv268[ebp], eax
	mov	ecx, DWORD PTR tv268[ebp]
	mov	edx, DWORD PTR [ecx]
	mov	ecx, DWORD PTR tv268[ebp]
	mov	eax, DWORD PTR [edx+112]
	call	eax
	mov	ecx, DWORD PTR _lmsg$5[ebp]
	mov	WORD PTR [ecx+48], ax

; 1139 : 					lmsg->dataBlock.pilotID = platform->pilotSlot;

	mov	edx, DWORD PTR _this$[ebp]
	mov	eax, DWORD PTR [edx+1088]
	mov	ecx, DWORD PTR _lmsg$5[ebp]
	mov	dl, BYTE PTR [eax+665]
	mov	BYTE PTR [ecx+50], dl

; 1140 : 					FalconSendMessage(lmsg,TRUE);

	push	1
	mov	eax, DWORD PTR _lmsg$5[ebp]
	push	eax
	call	?FalconSendMessage@@YAXPAVVuMessage@@H@Z ; FalconSendMessage
	add	esp, 8

; 1141 : 					carrierLand = 1;

	mov	ecx, DWORD PTR _this$[ebp]
	mov	DWORD PTR [ecx+1496], 1
$LN5@CalcMuFric:

; 1142 : 					}
; 1143 : 			}
; 1144 : 			else 

	jmp	SHORT $LN4@CalcMuFric
$LN6@CalcMuFric:

; 1145 : 				carrierLand = 0;

	mov	edx, DWORD PTR _this$[ebp]
	mov	DWORD PTR [edx+1496], 0
$LN4@CalcMuFric:

; 1146 : 
; 1147 : 			Mu_fric = 20; // JB carrier

	movss	xmm0, DWORD PTR __real@41a00000
	movss	DWORD PTR _Mu_fric$[ebp], xmm0
$LN7@CalcMuFric:

; 1148 : 		}
; 1149 : 
; 1150 : 		if(vt <= 0.1F)

	mov	eax, DWORD PTR _this$[ebp]
	movss	xmm0, DWORD PTR __real@3dcccccd
	comiss	xmm0, DWORD PTR [eax+1120]
	jb	$LN3@CalcMuFric

; 1151 : 			Mu_fric += (0.06F + 0.4F * platform->platformAngles.sinbet + (0.44F + 0.2F*IsSet(OverAirStrip)) *wheelbrakes + (!platform->onFlatFeature && groundType != COVERAGE_ROAD)*(0.4F - 0.1F *IsSet(WheelBrakes)) );

	mov	ecx, DWORD PTR _this$[ebp]
	mov	edx, DWORD PTR [ecx+1088]
	cmp	DWORD PTR [edx+668], 0
	jne	SHORT $LN30@CalcMuFric
	cmp	DWORD PTR _groundType$[ebp], 10		; 0000000aH
	je	SHORT $LN30@CalcMuFric
	mov	DWORD PTR tv316[ebp], 1
	jmp	SHORT $LN31@CalcMuFric
$LN30@CalcMuFric:
	mov	DWORD PTR tv316[ebp], 0
$LN31@CalcMuFric:
	mov	eax, DWORD PTR _this$[ebp]
	mov	ecx, DWORD PTR [eax+1088]
	movss	xmm0, DWORD PTR __real@3ecccccd
	mulss	xmm0, DWORD PTR [ecx+352]
	addss	xmm0, DWORD PTR __real@3d75c28f
	push	67108864				; 04000000H
	mov	ecx, DWORD PTR _this$[ebp]
	movss	DWORD PTR tv502[ebp], xmm0
	call	?IsSet@AirframeClass@@QBEHH@Z		; AirframeClass::IsSet
	cvtsi2ss xmm0, eax
	mulss	xmm0, DWORD PTR __real@3e4ccccd
	addss	xmm0, DWORD PTR __real@3ee147ae
	mulss	xmm0, DWORD PTR _wheelbrakes$6[ebp]
	movss	xmm1, DWORD PTR tv502[ebp]
	addss	xmm1, xmm0
	cvtsi2ss xmm0, DWORD PTR tv316[ebp]
	push	8
	mov	ecx, DWORD PTR _this$[ebp]
	movss	DWORD PTR tv504[ebp], xmm0
	movss	DWORD PTR tv506[ebp], xmm1
	call	?IsSet@AirframeClass@@QBEHH@Z		; AirframeClass::IsSet
	cvtsi2ss xmm0, eax
	mulss	xmm0, DWORD PTR __real@3dcccccd
	movss	xmm1, DWORD PTR __real@3ecccccd
	subss	xmm1, xmm0
	movss	xmm0, DWORD PTR tv504[ebp]
	mulss	xmm0, xmm1
	movss	xmm1, DWORD PTR tv506[ebp]
	addss	xmm1, xmm0
	addss	xmm1, DWORD PTR _Mu_fric$[ebp]
	movss	DWORD PTR _Mu_fric$[ebp], xmm1

; 1152 : 		else

	jmp	$LN2@CalcMuFric
$LN3@CalcMuFric:

; 1153 : 			Mu_fric += (0.04F + 0.5F * platform->platformAngles.sinbet + (0.36F + 0.2F*IsSet(OverAirStrip))*wheelbrakes + (!platform->onFlatFeature && groundType != COVERAGE_ROAD)*(0.4F - 0.1F *IsSet(WheelBrakes)) );

	mov	edx, DWORD PTR _this$[ebp]
	mov	eax, DWORD PTR [edx+1088]
	cmp	DWORD PTR [eax+668], 0
	jne	SHORT $LN32@CalcMuFric
	cmp	DWORD PTR _groundType$[ebp], 10		; 0000000aH
	je	SHORT $LN32@CalcMuFric
	mov	DWORD PTR tv355[ebp], 1
	jmp	SHORT $LN33@CalcMuFric
$LN32@CalcMuFric:
	mov	DWORD PTR tv355[ebp], 0
$LN33@CalcMuFric:
	mov	ecx, DWORD PTR _this$[ebp]
	mov	edx, DWORD PTR [ecx+1088]
	movss	xmm0, DWORD PTR __real@3f000000
	mulss	xmm0, DWORD PTR [edx+352]
	addss	xmm0, DWORD PTR __real@3d23d70a
	push	67108864				; 04000000H
	mov	ecx, DWORD PTR _this$[ebp]
	movss	DWORD PTR tv508[ebp], xmm0
	call	?IsSet@AirframeClass@@QBEHH@Z		; AirframeClass::IsSet
	cvtsi2ss xmm0, eax
	mulss	xmm0, DWORD PTR __real@3e4ccccd
	addss	xmm0, DWORD PTR __real@3eb851ec
	mulss	xmm0, DWORD PTR _wheelbrakes$6[ebp]
	movss	xmm1, DWORD PTR tv508[ebp]
	addss	xmm1, xmm0
	cvtsi2ss xmm0, DWORD PTR tv355[ebp]
	push	8
	mov	ecx, DWORD PTR _this$[ebp]
	movss	DWORD PTR tv510[ebp], xmm0
	movss	DWORD PTR tv544[ebp], xmm1
	call	?IsSet@AirframeClass@@QBEHH@Z		; AirframeClass::IsSet
	cvtsi2ss xmm0, eax
	mulss	xmm0, DWORD PTR __real@3dcccccd
	movss	xmm1, DWORD PTR __real@3ecccccd
	subss	xmm1, xmm0
	movss	xmm0, DWORD PTR tv510[ebp]
	mulss	xmm0, xmm1
	movss	xmm1, DWORD PTR tv544[ebp]
	addss	xmm1, xmm0
	addss	xmm1, DWORD PTR _Mu_fric$[ebp]
	movss	DWORD PTR _Mu_fric$[ebp], xmm1
$LN2@CalcMuFric:

; 1154 : 
; 1155 : 		if(platform->AutopilotType() == AircraftClass::CombatAP)

	mov	eax, DWORD PTR _this$[ebp]
	mov	ecx, DWORD PTR [eax+1088]
	call	?AutopilotType@AircraftClass@@QAE?AW4AutoPilotType@1@XZ ; AircraftClass::AutopilotType
	cmp	eax, 2
	jne	SHORT $LN1@CalcMuFric

; 1156 : 			Mu_fric += 0.4F *IsSet(WheelBrakes);

	push	8
	mov	ecx, DWORD PTR _this$[ebp]
	call	?IsSet@AirframeClass@@QBEHH@Z		; AirframeClass::IsSet
	cvtsi2ss xmm0, eax
	mulss	xmm0, DWORD PTR __real@3ecccccd
	addss	xmm0, DWORD PTR _Mu_fric$[ebp]
	movss	DWORD PTR _Mu_fric$[ebp], xmm0
$LN1@CalcMuFric:

; 1157 : 	}
; 1158 : 	return Mu_fric;

	fld	DWORD PTR _Mu_fric$[ebp]

; 1159 : }

	mov	ecx, DWORD PTR __$EHRec$[ebp]
	mov	DWORD PTR fs:0, ecx
	pop	ecx
	mov	esp, ebp
	pop	ebp
	ret	4
_TEXT	ENDS
text$x	SEGMENT
__unwindfunclet$?CalcMuFric@AirframeClass@@QAEMH@Z$0:
	mov	eax, DWORD PTR $T4[ebp]
	push	eax
	call	??3@YAXPAX@Z				; operator delete
	pop	ecx
	ret	0
__ehhandler$?CalcMuFric@AirframeClass@@QAEMH@Z:
	mov	edx, DWORD PTR [esp+8]
	lea	eax, DWORD PTR [edx+12]
	mov	ecx, DWORD PTR [edx-96]
	xor	ecx, eax
	call	@__security_check_cookie@4
	mov	eax, OFFSET __ehfuncinfo$?CalcMuFric@AirframeClass@@QAEMH@Z
	jmp	___CxxFrameHandler3
text$x	ENDS
?CalcMuFric@AirframeClass@@QAEMH@Z ENDP			; AirframeClass::CalcMuFric
; Function compile flags: /Odtp
; File c:\users\zhitao li\documents\visual studio 2012\projects\freefalcon\sim\airframe\eom.cpp
_TEXT	SEGMENT
$T2 = -268						; size = 8
_relMu$3 = -260						; size = 4
_gndGmma$4 = -256					; size = 4
_noseAngle$ = -252					; size = 4
tv1395 = -248						; size = 4
tv1685 = -244						; size = 4
tv1449 = -240						; size = 4
tv1422 = -236						; size = 4
tv1658 = -232						; size = 4
tv1368 = -228						; size = 4
tv1579 = -224						; size = 4
tv1462 = -220						; size = 4
tv1572 = -216						; size = 4
tv1435 = -212						; size = 4
tv1539 = -208						; size = 4
tv1408 = -204						; size = 4
tv1526 = -200						; size = 4
tv1381 = -196						; size = 4
_pscmd$ = -192						; size = 4
tv1683 = -188						; size = 4
_aoacmd$ = -184						; size = 4
tv1188 = -180						; size = 4
_betcmd$ = -176						; size = 4
$T5 = -172						; size = 4
tv395 = -168						; size = 4
tv527 = -164						; size = 4
_Runway$6 = -160					; size = 4
tv722 = -156						; size = 4
tv407 = -152						; size = 4
tv799 = -148						; size = 4
tv1090 = -144						; size = 4
tv593 = -140						; size = 4
_airbase$7 = -136					; size = 4
$T8 = -132						; size = 4
tv1025 = -128						; size = 4
tv723 = -124						; size = 4
tv974 = -120						; size = 4
tv657 = -116						; size = 4
tv965 = -112						; size = 4
tv592 = -108						; size = 4
_sinImpactAngle$9 = -104				; size = 4
tv421 = -100						; size = 4
tv877 = -96						; size = 4
tv876 = -92						; size = 4
tv1081 = -88						; size = 4
_lmsg$10 = -84						; size = 4
_minHeight$ = -80					; size = 4
_gx$11 = -76						; size = 2
_gy$12 = -72						; size = 2
_tmp$ = -68						; size = 4
_decelFactor$13 = -64					; size = 4
_impactAngle$ = -60					; size = 4
_this$ = -56						; size = 4
_pos$14 = -52						; size = 12
_velocity$ = -40					; size = 12
_noseDir$ = -28						; size = 12
__$ArrayPad$ = -16					; size = 4
__$EHRec$ = -12						; size = 12
_dt$ = 8						; size = 4
?CheckGroundImpact@AirframeClass@@QAEXM@Z PROC		; AirframeClass::CheckGroundImpact
; _this$ = ecx

; 1566 : {

	push	ebp
	mov	ebp, esp
	push	-1
	push	__ehhandler$?CheckGroundImpact@AirframeClass@@QAEXM@Z
	mov	eax, DWORD PTR fs:0
	push	eax
	sub	esp, 256				; 00000100H
	mov	eax, DWORD PTR ___security_cookie
	xor	eax, ebp
	mov	DWORD PTR __$ArrayPad$[ebp], eax
	push	eax
	lea	eax, DWORD PTR __$EHRec$[ebp]
	mov	DWORD PTR fs:0, eax
	mov	DWORD PTR _this$[ebp], ecx

; 1567 : 	Tpoint velocity;
; 1568 : 	Tpoint noseDir;
; 1569 : 	float impactAngle, noseAngle;
; 1570 : 	float tmp;
; 1571 : 	float aoacmd,betcmd,pscmd;
; 1572 :    
; 1573 : 	// JB 010120
; 1574 : 	if (!platform)

	mov	eax, DWORD PTR _this$[ebp]
	cmp	DWORD PTR [eax+1088], 0
	jne	SHORT $LN22@CheckGroun

; 1575 : 		return;

	jmp	$LN23@CheckGroun
$LN22@CheckGroun:

; 1576 : 	// JB 010120
; 1577 : 
; 1578 :    if(platform->drawPointer && z < groundZ - platform->drawPointer->Radius()*2.0F)

	mov	ecx, DWORD PTR _this$[ebp]
	mov	edx, DWORD PTR [ecx+1088]
	cmp	DWORD PTR [edx+332], 0
	je	SHORT $LN21@CheckGroun
	mov	eax, DWORD PTR _this$[ebp]
	mov	ecx, DWORD PTR [eax+1088]
	mov	ecx, DWORD PTR [ecx+332]
	call	?Radius@DrawableObject@@QBEMXZ		; DrawableObject::Radius
	fstp	DWORD PTR tv1188[ebp]
	movss	xmm0, DWORD PTR tv1188[ebp]
	mulss	xmm0, DWORD PTR __real@40000000
	mov	edx, DWORD PTR _this$[ebp]
	movss	xmm1, DWORD PTR [edx+1272]
	subss	xmm1, xmm0
	mov	eax, DWORD PTR _this$[ebp]
	comiss	xmm1, DWORD PTR [eax+1116]
	jbe	SHORT $LN21@CheckGroun

; 1579 : 	   return;

	jmp	$LN23@CheckGroun
$LN21@CheckGroun:

; 1580 : 
; 1581 : 	float minHeight = CheckHeight();

	mov	ecx, DWORD PTR _this$[ebp]
	call	?CheckHeight@AirframeClass@@QBEMXZ	; AirframeClass::CheckHeight
	fstp	DWORD PTR _minHeight$[ebp]

; 1582 : 
; 1583 : 	if (z > groundZ - minHeight + GROUND_TOLERANCE)

	mov	ecx, DWORD PTR _this$[ebp]
	movss	xmm0, DWORD PTR [ecx+1272]
	subss	xmm0, DWORD PTR _minHeight$[ebp]
	addss	xmm0, DWORD PTR ?GROUND_TOLERANCE@@3MA
	mov	edx, DWORD PTR _this$[ebp]
	movss	xmm1, DWORD PTR [edx+1116]
	comiss	xmm1, xmm0
	jbe	$LN4@CheckGroun

; 1584 : 	{			
; 1585 : 		groundType = OTWDriver.GetGroundType ( x, y );

	mov	eax, DWORD PTR _this$[ebp]
	push	ecx
	movss	xmm0, DWORD PTR [eax+1112]
	movss	DWORD PTR [esp], xmm0
	mov	ecx, DWORD PTR _this$[ebp]
	push	ecx
	movss	xmm0, DWORD PTR [ecx+1108]
	movss	DWORD PTR [esp], xmm0
	mov	ecx, OFFSET ?OTWDriver@@3VOTWDriverClass@@A ; OTWDriver
	call	?GetGroundType@OTWDriverClass@@QAEHMM@Z	; OTWDriverClass::GetGroundType
	mov	edx, DWORD PTR _this$[ebp]
	mov	DWORD PTR [edx+1260], eax

; 1586 : 
; 1587 : 		velocity.x = xdot/vt;

	mov	eax, DWORD PTR _this$[ebp]
	mov	ecx, DWORD PTR _this$[ebp]
	movss	xmm0, DWORD PTR [eax+1196]
	divss	xmm0, DWORD PTR [ecx+1120]
	movss	DWORD PTR _velocity$[ebp], xmm0

; 1588 : 		velocity.y = ydot/vt;

	mov	edx, DWORD PTR _this$[ebp]
	mov	eax, DWORD PTR _this$[ebp]
	movss	xmm0, DWORD PTR [edx+1200]
	divss	xmm0, DWORD PTR [eax+1120]
	movss	DWORD PTR _velocity$[ebp+4], xmm0

; 1589 : 		velocity.z = zdot/vt;

	mov	ecx, DWORD PTR _this$[ebp]
	mov	edx, DWORD PTR _this$[ebp]
	movss	xmm0, DWORD PTR [ecx+1204]
	divss	xmm0, DWORD PTR [edx+1120]
	movss	DWORD PTR _velocity$[ebp+8], xmm0

; 1590 : 		
; 1591 : 		noseDir.x = platform->platformAngles.costhe * platform->platformAngles.cospsi;

	mov	eax, DWORD PTR _this$[ebp]
	mov	ecx, DWORD PTR [eax+1088]
	mov	edx, DWORD PTR _this$[ebp]
	mov	eax, DWORD PTR [edx+1088]
	movss	xmm0, DWORD PTR [ecx+392]
	mulss	xmm0, DWORD PTR [eax+408]
	movss	DWORD PTR _noseDir$[ebp], xmm0

; 1592 : 		noseDir.y = platform->platformAngles.costhe * platform->platformAngles.sinpsi;

	mov	ecx, DWORD PTR _this$[ebp]
	mov	edx, DWORD PTR [ecx+1088]
	mov	eax, DWORD PTR _this$[ebp]
	mov	ecx, DWORD PTR [eax+1088]
	movss	xmm0, DWORD PTR [edx+392]
	mulss	xmm0, DWORD PTR [ecx+404]
	movss	DWORD PTR _noseDir$[ebp+4], xmm0

; 1593 : 		noseDir.z = -platform->platformAngles.sinthe;

	mov	edx, DWORD PTR _this$[ebp]
	mov	eax, DWORD PTR [edx+1088]
	movss	xmm0, DWORD PTR [eax+388]
	xorps	xmm0, DWORD PTR __xmm@80000000800000008000000080000000
	movss	DWORD PTR _noseDir$[ebp+8], xmm0

; 1594 : 		tmp = (float)sqrt(noseDir.x*noseDir.x + noseDir.y*noseDir.y + noseDir.z*noseDir.z);

	movss	xmm0, DWORD PTR _noseDir$[ebp]
	mulss	xmm0, DWORD PTR _noseDir$[ebp]
	movss	xmm1, DWORD PTR _noseDir$[ebp+4]
	mulss	xmm1, DWORD PTR _noseDir$[ebp+4]
	addss	xmm0, xmm1
	movss	xmm1, DWORD PTR _noseDir$[ebp+8]
	mulss	xmm1, DWORD PTR _noseDir$[ebp+8]
	addss	xmm0, xmm1
	push	ecx
	movss	DWORD PTR [esp], xmm0
	call	?SqrtSSE@@YAMM@Z			; SqrtSSE
	add	esp, 4
	fstp	DWORD PTR _tmp$[ebp]

; 1595 : 		noseDir.x /= tmp;

	movss	xmm0, DWORD PTR _noseDir$[ebp]
	divss	xmm0, DWORD PTR _tmp$[ebp]
	movss	DWORD PTR _noseDir$[ebp], xmm0

; 1596 : 		noseDir.y /= tmp;

	movss	xmm0, DWORD PTR _noseDir$[ebp+4]
	divss	xmm0, DWORD PTR _tmp$[ebp]
	movss	DWORD PTR _noseDir$[ebp+4], xmm0

; 1597 : 		noseDir.z /= tmp;

	movss	xmm0, DWORD PTR _noseDir$[ebp+8]
	divss	xmm0, DWORD PTR _tmp$[ebp]
	movss	DWORD PTR _noseDir$[ebp+8], xmm0

; 1598 : 		
; 1599 : 		noseAngle = gndNormal.x*noseDir.x + gndNormal.y*noseDir.y + gndNormal.z*noseDir.z;

	mov	ecx, DWORD PTR _this$[ebp]
	movss	xmm0, DWORD PTR [ecx+1288]
	mulss	xmm0, DWORD PTR _noseDir$[ebp]
	mov	edx, DWORD PTR _this$[ebp]
	movss	xmm1, DWORD PTR [edx+1292]
	mulss	xmm1, DWORD PTR _noseDir$[ebp+4]
	addss	xmm0, xmm1
	mov	eax, DWORD PTR _this$[ebp]
	movss	xmm1, DWORD PTR [eax+1296]
	mulss	xmm1, DWORD PTR _noseDir$[ebp+8]
	addss	xmm0, xmm1
	movss	DWORD PTR _noseAngle$[ebp], xmm0

; 1600 : 		impactAngle = gndNormal.x*velocity.x + gndNormal.y*velocity.y + gndNormal.z*velocity.z;

	mov	ecx, DWORD PTR _this$[ebp]
	movss	xmm0, DWORD PTR [ecx+1288]
	mulss	xmm0, DWORD PTR _velocity$[ebp]
	mov	edx, DWORD PTR _this$[ebp]
	movss	xmm1, DWORD PTR [edx+1292]
	mulss	xmm1, DWORD PTR _velocity$[ebp+4]
	addss	xmm0, xmm1
	mov	eax, DWORD PTR _this$[ebp]
	movss	xmm1, DWORD PTR [eax+1296]
	mulss	xmm1, DWORD PTR _velocity$[ebp+8]
	addss	xmm0, xmm1
	movss	DWORD PTR _impactAngle$[ebp], xmm0

; 1601 : 		
; 1602 : 		impactAngle = (float)fabs(impactAngle);

	push	ecx
	movss	xmm0, DWORD PTR _impactAngle$[ebp]
	movss	DWORD PTR [esp], xmm0
	call	?fabs@@YAMM@Z				; fabs
	add	esp, 4
	fstp	DWORD PTR _impactAngle$[ebp]

; 1603 : 		
; 1604 : 		// do the landing check
; 1605 : 		if ( platform->LandingCheck( noseAngle, impactAngle, groundType) )

	mov	ecx, DWORD PTR _this$[ebp]
	mov	edx, DWORD PTR [ecx+1260]
	push	edx
	push	ecx
	movss	xmm0, DWORD PTR _impactAngle$[ebp]
	movss	DWORD PTR [esp], xmm0
	push	ecx
	movss	xmm0, DWORD PTR _noseAngle$[ebp]
	movss	DWORD PTR [esp], xmm0
	mov	eax, DWORD PTR _this$[ebp]
	mov	ecx, DWORD PTR [eax+1088]
	call	?LandingCheck@AircraftClass@@QAEHMMH@Z	; AircraftClass::LandingCheck
	test	eax, eax
	je	$LN19@CheckGroun

; 1606 : 		{
; 1607 : 			// the eagle has landed
; 1608 : 			ClearFlag (InAir);

	push	2
	mov	ecx, DWORD PTR _this$[ebp]
	call	?ClearFlag@AirframeClass@@QAEXH@Z	; AirframeClass::ClearFlag

; 1609 : 			platform->mFaults->AddLanding(SimLibElapsedTime);

	mov	ecx, DWORD PTR ?SimLibElapsedTime@@3KA	; SimLibElapsedTime
	push	ecx
	mov	edx, DWORD PTR _this$[ebp]
	mov	eax, DWORD PTR [edx+1088]
	mov	ecx, DWORD PTR [eax+928]
	call	?AddLanding@FackClass@@QAEXK@Z		; FackClass::AddLanding

; 1610 : 			 // Set our anchor so that when we're moving slowly we can accumulate our position in high precision
; 1611 : 			 groundAnchorX = x;

	mov	ecx, DWORD PTR _this$[ebp]
	mov	edx, DWORD PTR _this$[ebp]
	mov	eax, DWORD PTR [edx+1108]
	mov	DWORD PTR [ecx+112], eax

; 1612 : 			 groundAnchorY = y;

	mov	ecx, DWORD PTR _this$[ebp]
	mov	edx, DWORD PTR _this$[ebp]
	mov	eax, DWORD PTR [edx+1112]
	mov	DWORD PTR [ecx+116], eax

; 1613 : 			 groundDeltaX = 0.0f;

	mov	ecx, DWORD PTR _this$[ebp]
	movss	xmm0, DWORD PTR __real@00000000
	movss	DWORD PTR [ecx+120], xmm0

; 1614 : 			 groundDeltaY = 0.0f;

	mov	edx, DWORD PTR _this$[ebp]
	movss	xmm0, DWORD PTR __real@00000000
	movss	DWORD PTR [edx+124], xmm0

; 1615 : 			platform->SetFlag( ON_GROUND );

	push	128					; 00000080H
	mov	eax, DWORD PTR _this$[ebp]
	mov	ecx, DWORD PTR [eax+1088]
	call	?SetFlag@SimBaseClass@@QAEXH@Z		; SimBaseClass::SetFlag

; 1616 : 			
; 1617 : 			float gndGmma, relMu;
; 1618 : 			
; 1619 : 			CalculateGroundPlane(&gndGmma, &relMu);

	lea	ecx, DWORD PTR _relMu$3[ebp]
	push	ecx
	lea	edx, DWORD PTR _gndGmma$4[ebp]
	push	edx
	mov	ecx, DWORD PTR _this$[ebp]
	call	?CalculateGroundPlane@AirframeClass@@ABEXPAM0@Z ; AirframeClass::CalculateGroundPlane

; 1620 : 			SetGroundPosition(dt, -(vt*KNOTS_TO_FTPSEC)/30.0F, gndGmma, relMu);

	push	ecx
	movss	xmm0, DWORD PTR _relMu$3[ebp]
	movss	DWORD PTR [esp], xmm0
	push	ecx
	movss	xmm0, DWORD PTR _gndGmma$4[ebp]
	movss	DWORD PTR [esp], xmm0
	mov	eax, DWORD PTR _this$[ebp]
	movss	xmm0, DWORD PTR [eax+1120]
	mulss	xmm0, DWORD PTR __real@3fd80b03
	xorps	xmm0, DWORD PTR __xmm@80000000800000008000000080000000
	divss	xmm0, DWORD PTR __real@41f00000
	push	ecx
	movss	DWORD PTR [esp], xmm0
	push	ecx
	movss	xmm0, DWORD PTR _dt$[ebp]
	movss	DWORD PTR [esp], xmm0
	mov	ecx, DWORD PTR _this$[ebp]
	call	?SetGroundPosition@AirframeClass@@AAEXMMMM@Z ; AirframeClass::SetGroundPosition

; 1621 : 			
; 1622 : 			stallMode = None;

	mov	ecx, DWORD PTR _this$[ebp]
	mov	DWORD PTR [ecx+1248], 0

; 1623 : 			slice = 0.0F;

	mov	edx, DWORD PTR _this$[ebp]
	movss	xmm0, DWORD PTR __real@00000000
	movss	DWORD PTR [edx+1308], xmm0

; 1624 : 			pitch = 0.0F;

	mov	eax, DWORD PTR _this$[ebp]
	movss	xmm0, DWORD PTR __real@00000000
	movss	DWORD PTR [eax+1312], xmm0

; 1625 : 
; 1626 : 			if( IsSet(GearBroken) || gearPos <= 0.1F )

	push	2048					; 00000800H
	mov	ecx, DWORD PTR _this$[ebp]
	call	?IsSet@AirframeClass@@QBEHH@Z		; AirframeClass::IsSet
	test	eax, eax
	jne	SHORT $LN17@CheckGroun
	mov	ecx, DWORD PTR _this$[ebp]
	movss	xmm0, DWORD PTR __real@3dcccccd
	comiss	xmm0, DWORD PTR [ecx+1552]
	jb	$LN13@CheckGroun
$LN17@CheckGroun:

; 1627 : 			{
; 1628 : 				// edg note: discovered a crash here.  I'm going to fix it elsewhere, but
; 1629 : 				// protect against it here.  The prob: aircraft is getting init'd, isn't
; 1630 : 				// taking off, and is very close to the ground.  It gets here and doesn't
; 1631 : 				// have a brain yet.   Check here for brain and fix the alt check in
; 1632 : 				// ownmain init.
; 1633 : 				if ( platform->DBrain() && !platform->IsSetFalcFlag(FEC_INVULNERABLE))

	mov	edx, DWORD PTR _this$[ebp]
	mov	ecx, DWORD PTR [edx+1088]
	call	?DBrain@AircraftClass@@QAEPAVDigitalBrain@@XZ ; AircraftClass::DBrain
	test	eax, eax
	je	SHORT $LN15@CheckGroun
	push	32					; 00000020H
	mov	eax, DWORD PTR _this$[ebp]
	mov	ecx, DWORD PTR [eax+1088]
	call	?IsSetFalcFlag@FalconEntity@@QAEHH@Z	; FalconEntity::IsSetFalcFlag
	test	eax, eax
	jne	SHORT $LN15@CheckGroun

; 1634 : 				{
; 1635 : 					platform->DBrain()->SetATCFlag(DigitalBrain::Landed);

	push	1
	mov	ecx, DWORD PTR _this$[ebp]
	mov	ecx, DWORD PTR [ecx+1088]
	call	?DBrain@AircraftClass@@QAEPAVDigitalBrain@@XZ ; AircraftClass::DBrain
	mov	ecx, eax
	call	?SetATCFlag@DigitalBrain@@QAEXH@Z	; DigitalBrain::SetATCFlag

; 1636 : 					platform->DBrain()->SetATCStatus(lCrashed);

	push	18					; 00000012H
	mov	edx, DWORD PTR _this$[ebp]
	mov	ecx, DWORD PTR [edx+1088]
	call	?DBrain@AircraftClass@@QAEPAVDigitalBrain@@XZ ; AircraftClass::DBrain
	mov	ecx, eax
	call	?SetATCStatus@DigitalBrain@@QAEXW4AtcStatusEnum@@@Z ; DigitalBrain::SetATCStatus

; 1637 : 					// KCK NOTE:: Don't set timer for players
; 1638 : 					if(platform != SimDriver.GetPlayerEntity())

	mov	ecx, OFFSET ?SimDriver@@3VSimulationDriver@@A ; SimDriver
	call	?GetPlayerEntity@SimulationDriver@@QBEPAVSimMoverClass@@XZ ; SimulationDriver::GetPlayerEntity
	mov	ecx, DWORD PTR _this$[ebp]
	cmp	DWORD PTR [ecx+1088], eax
	je	SHORT $LN15@CheckGroun

; 1639 : 						platform->DBrain()->SetWaitTimer(SimLibElapsedTime + 1 * CampaignMinutes);

	mov	edx, DWORD PTR ?SimLibElapsedTime@@3KA	; SimLibElapsedTime
	add	edx, 60000				; 0000ea60H
	push	edx
	mov	eax, DWORD PTR _this$[ebp]
	mov	ecx, DWORD PTR [eax+1088]
	call	?DBrain@AircraftClass@@QAEPAVDigitalBrain@@XZ ; AircraftClass::DBrain
	mov	ecx, eax
	call	?SetWaitTimer@DigitalBrain@@QAEXK@Z	; DigitalBrain::SetWaitTimer
$LN15@CheckGroun:

; 1640 : 				}
; 1641 : 
; 1642 : 				int Runway = 0;

	mov	DWORD PTR _Runway$6[ebp], 0

; 1643 : 				// sfr: fixing xy order
; 1644 : 				GridIndex gx, gy;
; 1645 : 				::vector pos = { x, y };

	mov	ecx, DWORD PTR _this$[ebp]
	movss	xmm0, DWORD PTR [ecx+1108]
	movss	DWORD PTR _pos$14[ebp], xmm0
	mov	edx, DWORD PTR _this$[ebp]
	movss	xmm0, DWORD PTR [edx+1112]
	movss	DWORD PTR _pos$14[ebp+4], xmm0
	xor	eax, eax
	mov	DWORD PTR _pos$14[ebp+8], eax

; 1646 : 				//gx = SimToGrid(y);
; 1647 : 				//gy = SimToGrid(x);
; 1648 : 				ConvertSimToGrid(&pos, &gx, &gy);

	lea	ecx, DWORD PTR _gy$12[ebp]
	push	ecx
	lea	edx, DWORD PTR _gx$11[ebp]
	push	edx
	lea	eax, DWORD PTR _pos$14[ebp]
	push	eax
	call	?ConvertSimToGrid@@YAXPAUvector@@PAF1@Z	; ConvertSimToGrid
	add	esp, 12					; 0000000cH

; 1649 : 				Objective airbase = FindNearbyAirbase(gx, gy);

	movzx	ecx, WORD PTR _gy$12[ebp]
	push	ecx
	movzx	edx, WORD PTR _gx$11[ebp]
	push	edx
	call	?FindNearbyAirbase@@YAPAVObjectiveClass@@FF@Z ; FindNearbyAirbase
	add	esp, 8
	mov	DWORD PTR _airbase$7[ebp], eax

; 1650 : 				if(airbase ){

	cmp	DWORD PTR _airbase$7[ebp], 0
	je	SHORT $LN13@CheckGroun

; 1651 : 					Runway = airbase->brain->IsOverRunway(platform);

	mov	eax, DWORD PTR _this$[ebp]
	mov	ecx, DWORD PTR [eax+1088]
	push	ecx
	mov	edx, DWORD PTR _airbase$7[ebp]
	mov	ecx, DWORD PTR [edx+240]
	call	?IsOverRunway@ATCBrain@@QAEHPAVAircraftClass@@@Z ; ATCBrain::IsOverRunway
	mov	DWORD PTR _Runway$6[ebp], eax

; 1652 : 					if( Runway ){

	cmp	DWORD PTR _Runway$6[ebp], 0
	je	SHORT $LN13@CheckGroun

; 1653 : 						platform->DBrain()->SendATCMsg(lCrashed);

	push	18					; 00000012H
	mov	eax, DWORD PTR _this$[ebp]
	mov	ecx, DWORD PTR [eax+1088]
	call	?DBrain@AircraftClass@@QAEPAVDigitalBrain@@XZ ; AircraftClass::DBrain
	mov	ecx, eax
	call	?SendATCMsg@DigitalBrain@@QAEXW4AtcStatusEnum@@@Z ; DigitalBrain::SendATCMsg
$LN13@CheckGroun:

; 1654 : 					}
; 1655 : 				}
; 1656 : 			}
; 1657 : 
; 1658 : 			// Send a landing message
; 1659 : 			// KCK NOTE: I'm only sending this for members with the package flag set.
; 1660 : 			// This means all package elements in single player, but non-necessarily in 
; 1661 : 			// multi-player. But in multi-player we'll at least get all players.
; 1662 : 			if (platform->GetCampaignObject() && platform->GetCampaignObject()->InPackage())

	mov	ecx, DWORD PTR _this$[ebp]
	mov	ecx, DWORD PTR [ecx+1088]
	call	?GetCampaignObject@SimBaseClass@@QAEPAVCampBaseClass@@XZ ; SimBaseClass::GetCampaignObject
	test	eax, eax
	je	$LN12@CheckGroun
	mov	edx, DWORD PTR _this$[ebp]
	mov	ecx, DWORD PTR [edx+1088]
	call	?GetCampaignObject@SimBaseClass@@QAEPAVCampBaseClass@@XZ ; SimBaseClass::GetCampaignObject
	mov	ecx, eax
	call	?InPackage@CampBaseClass@@QAEHXZ	; CampBaseClass::InPackage
	test	eax, eax
	je	$LN12@CheckGroun

; 1663 : 				{
; 1664 : 				FalconLandingMessage *lmsg = new FalconLandingMessage(platform->Id(), FalconLocalGame);

	push	51					; 00000033H
	call	??2@YAPAXI@Z				; operator new
	add	esp, 4
	mov	DWORD PTR $T8[ebp], eax
	mov	DWORD PTR __$EHRec$[ebp+8], 0
	cmp	DWORD PTR $T8[ebp], 0
	je	SHORT $LN27@CheckGroun
	mov	ecx, OFFSET ?vuLocalSessionEntity@@3V?$VuBin@VVuSessionEntity@@@@A ; vuLocalSessionEntity
	call	??B?$VuBin@VVuSessionEntity@@@@QBE_NXZ	; VuBin<VuSessionEntity>::operator bool
	movzx	eax, al
	test	eax, eax
	je	SHORT $LN25@CheckGroun
	mov	ecx, OFFSET ?vuLocalSessionEntity@@3V?$VuBin@VVuSessionEntity@@@@A ; vuLocalSessionEntity
	call	?get@?$VuBin@VVuSessionEntity@@@@QBEPAVVuSessionEntity@@XZ ; VuBin<VuSessionEntity>::get
	mov	ecx, eax
	call	?GetGame@FalconSessionEntity@@QAEPAVFalconGameEntity@@XZ ; FalconSessionEntity::GetGame
	mov	DWORD PTR tv395[ebp], eax
	jmp	SHORT $LN26@CheckGroun
$LN25@CheckGroun:
	mov	DWORD PTR tv395[ebp], 0
$LN26@CheckGroun:
	push	1
	mov	ecx, DWORD PTR tv395[ebp]
	push	ecx
	lea	edx, DWORD PTR $T2[ebp]
	push	edx
	mov	eax, DWORD PTR _this$[ebp]
	mov	ecx, DWORD PTR [eax+1088]
	call	?Id@VuEntity@@QBE?AVVU_ID@@XZ		; VuEntity::Id
	mov	ecx, DWORD PTR [eax+4]
	push	ecx
	mov	edx, DWORD PTR [eax]
	push	edx
	mov	ecx, DWORD PTR $T8[ebp]
	call	??0FalconLandingMessage@@QAE@VVU_ID@@PAVVuTargetEntity@@E@Z ; FalconLandingMessage::FalconLandingMessage
	mov	DWORD PTR tv407[ebp], eax
	jmp	SHORT $LN28@CheckGroun
$LN27@CheckGroun:
	mov	DWORD PTR tv407[ebp], 0
$LN28@CheckGroun:
	mov	eax, DWORD PTR tv407[ebp]
	mov	DWORD PTR $T5[ebp], eax
	mov	DWORD PTR __$EHRec$[ebp+8], -1
	mov	ecx, DWORD PTR $T5[ebp]
	mov	DWORD PTR _lmsg$10[ebp], ecx

; 1665 : 				lmsg->dataBlock.campID = platform->GetCampaignObject()->GetCampID();

	mov	edx, DWORD PTR _this$[ebp]
	mov	ecx, DWORD PTR [edx+1088]
	call	?GetCampaignObject@SimBaseClass@@QAEPAVCampBaseClass@@XZ ; SimBaseClass::GetCampaignObject
	mov	DWORD PTR tv421[ebp], eax
	mov	eax, DWORD PTR tv421[ebp]
	mov	edx, DWORD PTR [eax]
	mov	ecx, DWORD PTR tv421[ebp]
	mov	eax, DWORD PTR [edx+112]
	call	eax
	mov	ecx, DWORD PTR _lmsg$10[ebp]
	mov	WORD PTR [ecx+48], ax

; 1666 : 				lmsg->dataBlock.pilotID = platform->pilotSlot;

	mov	edx, DWORD PTR _this$[ebp]
	mov	eax, DWORD PTR [edx+1088]
	mov	ecx, DWORD PTR _lmsg$10[ebp]
	mov	dl, BYTE PTR [eax+665]
	mov	BYTE PTR [ecx+50], dl

; 1667 : 				FalconSendMessage(lmsg,TRUE);

	push	1
	mov	eax, DWORD PTR _lmsg$10[ebp]
	push	eax
	call	?FalconSendMessage@@YAXPAVVuMessage@@H@Z ; FalconSendMessage
	add	esp, 8
$LN12@CheckGroun:

; 1668 : 				}
; 1669 : 		}
; 1670 : 		else

	jmp	$LN4@CheckGroun
$LN19@CheckGroun:

; 1671 : 		{
; 1672 : 			// we presumably have hit too hard (and taken damage/destruction)
; 1673 : 			// apply some bounce
; 1674 : 			z = groundZ - minHeight -  (vt * impactAngle)/ 20.0F*(1.0F - 0.5F*IsSet(GearBroken));

	mov	ecx, DWORD PTR _this$[ebp]
	movss	xmm0, DWORD PTR [ecx+1272]
	subss	xmm0, DWORD PTR _minHeight$[ebp]
	mov	edx, DWORD PTR _this$[ebp]
	movss	xmm1, DWORD PTR [edx+1120]
	mulss	xmm1, DWORD PTR _impactAngle$[ebp]
	divss	xmm1, DWORD PTR __real@41a00000
	push	2048					; 00000800H
	mov	ecx, DWORD PTR _this$[ebp]
	movss	DWORD PTR tv1683[ebp], xmm0
	movss	DWORD PTR tv1685[ebp], xmm1
	call	?IsSet@AirframeClass@@QBEHH@Z		; AirframeClass::IsSet
	cvtsi2ss xmm0, eax
	mulss	xmm0, DWORD PTR __real@3f000000
	movss	xmm1, DWORD PTR __real@3f800000
	subss	xmm1, xmm0
	movss	xmm0, DWORD PTR tv1685[ebp]
	mulss	xmm0, xmm1
	movss	xmm1, DWORD PTR tv1683[ebp]
	subss	xmm1, xmm0
	mov	eax, DWORD PTR _this$[ebp]
	movss	DWORD PTR [eax+1116], xmm1

; 1675 : 			
; 1676 : 			if(!platform->IsSetFalcFlag(FEC_INVULNERABLE))

	push	32					; 00000020H
	mov	ecx, DWORD PTR _this$[ebp]
	mov	ecx, DWORD PTR [ecx+1088]
	call	?IsSetFalcFlag@FalconEntity@@QAEHH@Z	; FalconEntity::IsSetFalcFlag
	test	eax, eax
	jne	$LN10@CheckGroun

; 1677 : 			{				
; 1678 : 				
; 1679 : 				aoacmd = max(-90.0F, min(90.0F, alpha +  (float)fabs(platform->platformAngles.cosbet * platform->platformAngles.sinthe) * platform->platformAngles.cosphi * 0.1F * vt));//  + q * RTD * dt));

	mov	edx, DWORD PTR _this$[ebp]
	mov	eax, DWORD PTR [edx+1088]
	mov	ecx, DWORD PTR _this$[ebp]
	mov	edx, DWORD PTR [ecx+1088]
	movss	xmm0, DWORD PTR [eax+356]
	mulss	xmm0, DWORD PTR [edx+388]
	push	ecx
	movss	DWORD PTR [esp], xmm0
	call	?fabs@@YAMM@Z				; fabs
	add	esp, 4
	fstp	DWORD PTR tv1368[ebp]
	movss	xmm0, DWORD PTR tv1368[ebp]
	mov	eax, DWORD PTR _this$[ebp]
	mov	ecx, DWORD PTR [eax+1088]
	mulss	xmm0, DWORD PTR [ecx+400]
	mulss	xmm0, DWORD PTR __real@3dcccccd
	mov	edx, DWORD PTR _this$[ebp]
	mulss	xmm0, DWORD PTR [edx+1120]
	mov	eax, DWORD PTR _this$[ebp]
	addss	xmm0, DWORD PTR [eax+1152]
	comiss	xmm0, DWORD PTR __real@42b40000
	jbe	SHORT $LN29@CheckGroun
	movss	xmm0, DWORD PTR __real@42b40000
	movss	DWORD PTR tv527[ebp], xmm0
	jmp	SHORT $LN30@CheckGroun
$LN29@CheckGroun:
	mov	ecx, DWORD PTR _this$[ebp]
	mov	edx, DWORD PTR [ecx+1088]
	mov	eax, DWORD PTR _this$[ebp]
	mov	ecx, DWORD PTR [eax+1088]
	movss	xmm0, DWORD PTR [edx+356]
	mulss	xmm0, DWORD PTR [ecx+388]
	push	ecx
	movss	DWORD PTR [esp], xmm0
	call	?fabs@@YAMM@Z				; fabs
	add	esp, 4
	fstp	DWORD PTR tv1381[ebp]
	movss	xmm0, DWORD PTR tv1381[ebp]
	mov	edx, DWORD PTR _this$[ebp]
	mov	eax, DWORD PTR [edx+1088]
	mulss	xmm0, DWORD PTR [eax+400]
	mulss	xmm0, DWORD PTR __real@3dcccccd
	mov	ecx, DWORD PTR _this$[ebp]
	mulss	xmm0, DWORD PTR [ecx+1120]
	mov	edx, DWORD PTR _this$[ebp]
	addss	xmm0, DWORD PTR [edx+1152]
	movss	DWORD PTR tv527[ebp], xmm0
$LN30@CheckGroun:
	movss	xmm0, DWORD PTR __real@c2b40000
	comiss	xmm0, DWORD PTR tv527[ebp]
	jbe	SHORT $LN33@CheckGroun
	movss	xmm0, DWORD PTR __real@c2b40000
	movss	DWORD PTR tv593[ebp], xmm0
	jmp	$LN34@CheckGroun
$LN33@CheckGroun:
	mov	eax, DWORD PTR _this$[ebp]
	mov	ecx, DWORD PTR [eax+1088]
	mov	edx, DWORD PTR _this$[ebp]
	mov	eax, DWORD PTR [edx+1088]
	movss	xmm0, DWORD PTR [ecx+356]
	mulss	xmm0, DWORD PTR [eax+388]
	push	ecx
	movss	DWORD PTR [esp], xmm0
	call	?fabs@@YAMM@Z				; fabs
	add	esp, 4
	fstp	DWORD PTR tv1395[ebp]
	movss	xmm0, DWORD PTR tv1395[ebp]
	mov	ecx, DWORD PTR _this$[ebp]
	mov	edx, DWORD PTR [ecx+1088]
	mulss	xmm0, DWORD PTR [edx+400]
	mulss	xmm0, DWORD PTR __real@3dcccccd
	mov	eax, DWORD PTR _this$[ebp]
	mulss	xmm0, DWORD PTR [eax+1120]
	mov	ecx, DWORD PTR _this$[ebp]
	addss	xmm0, DWORD PTR [ecx+1152]
	comiss	xmm0, DWORD PTR __real@42b40000
	jbe	SHORT $LN31@CheckGroun
	movss	xmm0, DWORD PTR __real@42b40000
	movss	DWORD PTR tv592[ebp], xmm0
	jmp	SHORT $LN32@CheckGroun
$LN31@CheckGroun:
	mov	edx, DWORD PTR _this$[ebp]
	mov	eax, DWORD PTR [edx+1088]
	mov	ecx, DWORD PTR _this$[ebp]
	mov	edx, DWORD PTR [ecx+1088]
	movss	xmm0, DWORD PTR [eax+356]
	mulss	xmm0, DWORD PTR [edx+388]
	push	ecx
	movss	DWORD PTR [esp], xmm0
	call	?fabs@@YAMM@Z				; fabs
	add	esp, 4
	fstp	DWORD PTR tv1408[ebp]
	movss	xmm0, DWORD PTR tv1408[ebp]
	mov	eax, DWORD PTR _this$[ebp]
	mov	ecx, DWORD PTR [eax+1088]
	mulss	xmm0, DWORD PTR [ecx+400]
	mulss	xmm0, DWORD PTR __real@3dcccccd
	mov	edx, DWORD PTR _this$[ebp]
	mulss	xmm0, DWORD PTR [edx+1120]
	mov	eax, DWORD PTR _this$[ebp]
	addss	xmm0, DWORD PTR [eax+1152]
	movss	DWORD PTR tv592[ebp], xmm0
$LN32@CheckGroun:
	movss	xmm0, DWORD PTR tv592[ebp]
	movss	DWORD PTR tv593[ebp], xmm0
$LN34@CheckGroun:
	movss	xmm0, DWORD PTR tv593[ebp]
	movss	DWORD PTR _aoacmd$[ebp], xmm0

; 1680 : 				betcmd = max(-90.0F,min(90.0F,beta + (float)fabs(platform->platformAngles.cosalp * platform->platformAngles.sinthe) * platform->platformAngles.sinphi * 0.1F * vt));// + r *RTD* dt));

	mov	ecx, DWORD PTR _this$[ebp]
	mov	edx, DWORD PTR [ecx+1088]
	mov	eax, DWORD PTR _this$[ebp]
	mov	ecx, DWORD PTR [eax+1088]
	movss	xmm0, DWORD PTR [edx+344]
	mulss	xmm0, DWORD PTR [ecx+388]
	push	ecx
	movss	DWORD PTR [esp], xmm0
	call	?fabs@@YAMM@Z				; fabs
	add	esp, 4
	fstp	DWORD PTR tv1422[ebp]
	movss	xmm0, DWORD PTR tv1422[ebp]
	mov	edx, DWORD PTR _this$[ebp]
	mov	eax, DWORD PTR [edx+1088]
	mulss	xmm0, DWORD PTR [eax+396]
	mulss	xmm0, DWORD PTR __real@3dcccccd
	mov	ecx, DWORD PTR _this$[ebp]
	mulss	xmm0, DWORD PTR [ecx+1120]
	mov	edx, DWORD PTR _this$[ebp]
	addss	xmm0, DWORD PTR [edx+1156]
	comiss	xmm0, DWORD PTR __real@42b40000
	jbe	SHORT $LN35@CheckGroun
	movss	xmm0, DWORD PTR __real@42b40000
	movss	DWORD PTR tv657[ebp], xmm0
	jmp	SHORT $LN36@CheckGroun
$LN35@CheckGroun:
	mov	eax, DWORD PTR _this$[ebp]
	mov	ecx, DWORD PTR [eax+1088]
	mov	edx, DWORD PTR _this$[ebp]
	mov	eax, DWORD PTR [edx+1088]
	movss	xmm0, DWORD PTR [ecx+344]
	mulss	xmm0, DWORD PTR [eax+388]
	push	ecx
	movss	DWORD PTR [esp], xmm0
	call	?fabs@@YAMM@Z				; fabs
	add	esp, 4
	fstp	DWORD PTR tv1435[ebp]
	movss	xmm0, DWORD PTR tv1435[ebp]
	mov	ecx, DWORD PTR _this$[ebp]
	mov	edx, DWORD PTR [ecx+1088]
	mulss	xmm0, DWORD PTR [edx+396]
	mulss	xmm0, DWORD PTR __real@3dcccccd
	mov	eax, DWORD PTR _this$[ebp]
	mulss	xmm0, DWORD PTR [eax+1120]
	mov	ecx, DWORD PTR _this$[ebp]
	addss	xmm0, DWORD PTR [ecx+1156]
	movss	DWORD PTR tv657[ebp], xmm0
$LN36@CheckGroun:
	movss	xmm0, DWORD PTR __real@c2b40000
	comiss	xmm0, DWORD PTR tv657[ebp]
	jbe	SHORT $LN39@CheckGroun
	movss	xmm0, DWORD PTR __real@c2b40000
	movss	DWORD PTR tv723[ebp], xmm0
	jmp	$LN40@CheckGroun
$LN39@CheckGroun:
	mov	edx, DWORD PTR _this$[ebp]
	mov	eax, DWORD PTR [edx+1088]
	mov	ecx, DWORD PTR _this$[ebp]
	mov	edx, DWORD PTR [ecx+1088]
	movss	xmm0, DWORD PTR [eax+344]
	mulss	xmm0, DWORD PTR [edx+388]
	push	ecx
	movss	DWORD PTR [esp], xmm0
	call	?fabs@@YAMM@Z				; fabs
	add	esp, 4
	fstp	DWORD PTR tv1449[ebp]
	movss	xmm0, DWORD PTR tv1449[ebp]
	mov	eax, DWORD PTR _this$[ebp]
	mov	ecx, DWORD PTR [eax+1088]
	mulss	xmm0, DWORD PTR [ecx+396]
	mulss	xmm0, DWORD PTR __real@3dcccccd
	mov	edx, DWORD PTR _this$[ebp]
	mulss	xmm0, DWORD PTR [edx+1120]
	mov	eax, DWORD PTR _this$[ebp]
	addss	xmm0, DWORD PTR [eax+1156]
	comiss	xmm0, DWORD PTR __real@42b40000
	jbe	SHORT $LN37@CheckGroun
	movss	xmm0, DWORD PTR __real@42b40000
	movss	DWORD PTR tv722[ebp], xmm0
	jmp	SHORT $LN38@CheckGroun
$LN37@CheckGroun:
	mov	ecx, DWORD PTR _this$[ebp]
	mov	edx, DWORD PTR [ecx+1088]
	mov	eax, DWORD PTR _this$[ebp]
	mov	ecx, DWORD PTR [eax+1088]
	movss	xmm0, DWORD PTR [edx+344]
	mulss	xmm0, DWORD PTR [ecx+388]
	push	ecx
	movss	DWORD PTR [esp], xmm0
	call	?fabs@@YAMM@Z				; fabs
	add	esp, 4
	fstp	DWORD PTR tv1462[ebp]
	movss	xmm0, DWORD PTR tv1462[ebp]
	mov	edx, DWORD PTR _this$[ebp]
	mov	eax, DWORD PTR [edx+1088]
	mulss	xmm0, DWORD PTR [eax+396]
	mulss	xmm0, DWORD PTR __real@3dcccccd
	mov	ecx, DWORD PTR _this$[ebp]
	mulss	xmm0, DWORD PTR [ecx+1120]
	mov	edx, DWORD PTR _this$[ebp]
	addss	xmm0, DWORD PTR [edx+1156]
	movss	DWORD PTR tv722[ebp], xmm0
$LN38@CheckGroun:
	movss	xmm0, DWORD PTR tv722[ebp]
	movss	DWORD PTR tv723[ebp], xmm0
$LN40@CheckGroun:
	movss	xmm0, DWORD PTR tv723[ebp]
	movss	DWORD PTR _betcmd$[ebp], xmm0

; 1681 : 				pscmd = max(-225.0F * DTR, min(225.0F * DTR, r - platform->platformAngles.sinbet * platform->platformAngles.sinalp * platform->platformAngles.sinphi * platform->platformAngles.costhe * 0.1F * vt));// + p * RTD));

	mov	eax, DWORD PTR _this$[ebp]
	mov	ecx, DWORD PTR [eax+1088]
	mov	edx, DWORD PTR _this$[ebp]
	mov	eax, DWORD PTR [edx+1088]
	movss	xmm0, DWORD PTR [ecx+352]
	mulss	xmm0, DWORD PTR [eax+340]
	mov	ecx, DWORD PTR _this$[ebp]
	mov	edx, DWORD PTR [ecx+1088]
	mulss	xmm0, DWORD PTR [edx+396]
	mov	eax, DWORD PTR _this$[ebp]
	mov	ecx, DWORD PTR [eax+1088]
	mulss	xmm0, DWORD PTR [ecx+392]
	mulss	xmm0, DWORD PTR __real@3dcccccd
	mov	edx, DWORD PTR _this$[ebp]
	mulss	xmm0, DWORD PTR [edx+1120]
	mov	eax, DWORD PTR _this$[ebp]
	movss	xmm1, DWORD PTR [eax+1140]
	subss	xmm1, xmm0
	comiss	xmm1, DWORD PTR __real@407b53cf
	jbe	SHORT $LN41@CheckGroun
	movss	xmm0, DWORD PTR __real@407b53cf
	movss	DWORD PTR tv799[ebp], xmm0
	jmp	SHORT $LN42@CheckGroun
$LN41@CheckGroun:
	mov	ecx, DWORD PTR _this$[ebp]
	mov	edx, DWORD PTR [ecx+1088]
	mov	eax, DWORD PTR _this$[ebp]
	mov	ecx, DWORD PTR [eax+1088]
	movss	xmm0, DWORD PTR [edx+352]
	mulss	xmm0, DWORD PTR [ecx+340]
	mov	edx, DWORD PTR _this$[ebp]
	mov	eax, DWORD PTR [edx+1088]
	mulss	xmm0, DWORD PTR [eax+396]
	mov	ecx, DWORD PTR _this$[ebp]
	mov	edx, DWORD PTR [ecx+1088]
	mulss	xmm0, DWORD PTR [edx+392]
	mulss	xmm0, DWORD PTR __real@3dcccccd
	mov	eax, DWORD PTR _this$[ebp]
	mulss	xmm0, DWORD PTR [eax+1120]
	mov	ecx, DWORD PTR _this$[ebp]
	movss	xmm1, DWORD PTR [ecx+1140]
	subss	xmm1, xmm0
	movss	DWORD PTR tv799[ebp], xmm1
$LN42@CheckGroun:
	movss	xmm0, DWORD PTR __real@c07b53cf
	comiss	xmm0, DWORD PTR tv799[ebp]
	jbe	SHORT $LN45@CheckGroun
	movss	xmm0, DWORD PTR __real@c07b53cf
	movss	DWORD PTR tv877[ebp], xmm0
	jmp	$LN46@CheckGroun
$LN45@CheckGroun:
	mov	edx, DWORD PTR _this$[ebp]
	mov	eax, DWORD PTR [edx+1088]
	mov	ecx, DWORD PTR _this$[ebp]
	mov	edx, DWORD PTR [ecx+1088]
	movss	xmm0, DWORD PTR [eax+352]
	mulss	xmm0, DWORD PTR [edx+340]
	mov	eax, DWORD PTR _this$[ebp]
	mov	ecx, DWORD PTR [eax+1088]
	mulss	xmm0, DWORD PTR [ecx+396]
	mov	edx, DWORD PTR _this$[ebp]
	mov	eax, DWORD PTR [edx+1088]
	mulss	xmm0, DWORD PTR [eax+392]
	mulss	xmm0, DWORD PTR __real@3dcccccd
	mov	ecx, DWORD PTR _this$[ebp]
	mulss	xmm0, DWORD PTR [ecx+1120]
	mov	edx, DWORD PTR _this$[ebp]
	movss	xmm1, DWORD PTR [edx+1140]
	subss	xmm1, xmm0
	comiss	xmm1, DWORD PTR __real@407b53cf
	jbe	SHORT $LN43@CheckGroun
	movss	xmm0, DWORD PTR __real@407b53cf
	movss	DWORD PTR tv876[ebp], xmm0
	jmp	SHORT $LN44@CheckGroun
$LN43@CheckGroun:
	mov	eax, DWORD PTR _this$[ebp]
	mov	ecx, DWORD PTR [eax+1088]
	mov	edx, DWORD PTR _this$[ebp]
	mov	eax, DWORD PTR [edx+1088]
	movss	xmm0, DWORD PTR [ecx+352]
	mulss	xmm0, DWORD PTR [eax+340]
	mov	ecx, DWORD PTR _this$[ebp]
	mov	edx, DWORD PTR [ecx+1088]
	mulss	xmm0, DWORD PTR [edx+396]
	mov	eax, DWORD PTR _this$[ebp]
	mov	ecx, DWORD PTR [eax+1088]
	mulss	xmm0, DWORD PTR [ecx+392]
	mulss	xmm0, DWORD PTR __real@3dcccccd
	mov	edx, DWORD PTR _this$[ebp]
	mulss	xmm0, DWORD PTR [edx+1120]
	mov	eax, DWORD PTR _this$[ebp]
	movss	xmm1, DWORD PTR [eax+1140]
	subss	xmm1, xmm0
	movss	DWORD PTR tv876[ebp], xmm1
$LN44@CheckGroun:
	movss	xmm0, DWORD PTR tv876[ebp]
	movss	DWORD PTR tv877[ebp], xmm0
$LN46@CheckGroun:
	movss	xmm0, DWORD PTR tv877[ebp]
	movss	DWORD PTR _pscmd$[ebp], xmm0

; 1682 : 				
; 1683 : 				YawIt(betcmd, dt);

	push	ecx
	movss	xmm0, DWORD PTR _dt$[ebp]
	movss	DWORD PTR [esp], xmm0
	push	ecx
	movss	xmm0, DWORD PTR _betcmd$[ebp]
	movss	DWORD PTR [esp], xmm0
	mov	ecx, DWORD PTR _this$[ebp]
	call	?YawIt@AirframeClass@@QAEXMM@Z		; AirframeClass::YawIt

; 1684 : 				PitchIt(aoacmd, dt);

	push	ecx
	movss	xmm0, DWORD PTR _dt$[ebp]
	movss	DWORD PTR [esp], xmm0
	push	ecx
	movss	xmm0, DWORD PTR _aoacmd$[ebp]
	movss	DWORD PTR [esp], xmm0
	mov	ecx, DWORD PTR _this$[ebp]
	call	?PitchIt@AirframeClass@@QAEXMM@Z	; AirframeClass::PitchIt

; 1685 : 				RollIt(pscmd, dt);

	push	ecx
	movss	xmm0, DWORD PTR _dt$[ebp]
	movss	DWORD PTR [esp], xmm0
	push	ecx
	movss	xmm0, DWORD PTR _pscmd$[ebp]
	movss	DWORD PTR [esp], xmm0
	mov	ecx, DWORD PTR _this$[ebp]
	call	?RollIt@AirframeClass@@QAEXMM@Z		; AirframeClass::RollIt

; 1686 : 				
; 1687 : 				slice += (float)fabs(platform->platformAngles.cosalp * platform->platformAngles.sinthe) * platform->platformAngles.sinphi * 0.005F * vt;

	mov	ecx, DWORD PTR _this$[ebp]
	mov	edx, DWORD PTR [ecx+1088]
	mov	eax, DWORD PTR _this$[ebp]
	mov	ecx, DWORD PTR [eax+1088]
	movss	xmm0, DWORD PTR [edx+344]
	mulss	xmm0, DWORD PTR [ecx+388]
	push	ecx
	movss	DWORD PTR [esp], xmm0
	call	?fabs@@YAMM@Z				; fabs
	add	esp, 4
	fstp	DWORD PTR tv1526[ebp]
	movss	xmm0, DWORD PTR tv1526[ebp]
	mov	edx, DWORD PTR _this$[ebp]
	mov	eax, DWORD PTR [edx+1088]
	mulss	xmm0, DWORD PTR [eax+396]
	mulss	xmm0, DWORD PTR __real@3ba3d70a
	mov	ecx, DWORD PTR _this$[ebp]
	mulss	xmm0, DWORD PTR [ecx+1120]
	mov	edx, DWORD PTR _this$[ebp]
	addss	xmm0, DWORD PTR [edx+1308]
	mov	eax, DWORD PTR _this$[ebp]
	movss	DWORD PTR [eax+1308], xmm0

; 1688 : 				pitch += (float)fabs(platform->platformAngles.cosbet * platform->platformAngles.sinthe) * platform->platformAngles.cosphi * -0.005F * vt;

	mov	ecx, DWORD PTR _this$[ebp]
	mov	edx, DWORD PTR [ecx+1088]
	mov	eax, DWORD PTR _this$[ebp]
	mov	ecx, DWORD PTR [eax+1088]
	movss	xmm0, DWORD PTR [edx+356]
	mulss	xmm0, DWORD PTR [ecx+388]
	push	ecx
	movss	DWORD PTR [esp], xmm0
	call	?fabs@@YAMM@Z				; fabs
	add	esp, 4
	fstp	DWORD PTR tv1539[ebp]
	movss	xmm0, DWORD PTR tv1539[ebp]
	mov	edx, DWORD PTR _this$[ebp]
	mov	eax, DWORD PTR [edx+1088]
	mulss	xmm0, DWORD PTR [eax+400]
	mulss	xmm0, DWORD PTR __real@bba3d70a
	mov	ecx, DWORD PTR _this$[ebp]
	mulss	xmm0, DWORD PTR [ecx+1120]
	mov	edx, DWORD PTR _this$[ebp]
	addss	xmm0, DWORD PTR [edx+1312]
	mov	eax, DWORD PTR _this$[ebp]
	movss	DWORD PTR [eax+1312], xmm0

; 1689 : 				
; 1690 : 				float sinImpactAngle;
; 1691 : 				
; 1692 : 				if (impactAngle > 1.0f) // nuke bug type thing

	movss	xmm0, DWORD PTR _impactAngle$[ebp]
	comiss	xmm0, DWORD PTR __real@3f800000
	jbe	SHORT $LN9@CheckGroun

; 1693 : 				    impactAngle = 1.0f; // JPO - else it goes -ve next line

	movss	xmm0, DWORD PTR __real@3f800000
	movss	DWORD PTR _impactAngle$[ebp], xmm0
$LN9@CheckGroun:

; 1694 : 				sinImpactAngle = (float)sqrt(1.0F - impactAngle * impactAngle);

	movss	xmm0, DWORD PTR _impactAngle$[ebp]
	mulss	xmm0, DWORD PTR _impactAngle$[ebp]
	movss	xmm1, DWORD PTR __real@3f800000
	subss	xmm1, xmm0
	push	ecx
	movss	DWORD PTR [esp], xmm1
	call	?SqrtSSE@@YAMM@Z			; SqrtSSE
	add	esp, 4
	fstp	DWORD PTR _sinImpactAngle$9[ebp]

; 1695 : 				
; 1696 : 				//reduce velocity according to impact angle
; 1697 : 				float decelFactor = min(0.99F, (sinImpactAngle * 0.9F + impactAngle * 0.2F));  

	movss	xmm0, DWORD PTR _sinImpactAngle$9[ebp]
	mulss	xmm0, DWORD PTR __real@3f666666
	movss	xmm1, DWORD PTR _impactAngle$[ebp]
	mulss	xmm1, DWORD PTR __real@3e4ccccd
	addss	xmm0, xmm1
	comiss	xmm0, DWORD PTR __real@3f7d70a4
	jbe	SHORT $LN47@CheckGroun
	movss	xmm0, DWORD PTR __real@3f7d70a4
	movss	DWORD PTR tv965[ebp], xmm0
	jmp	SHORT $LN48@CheckGroun
$LN47@CheckGroun:
	movss	xmm0, DWORD PTR _sinImpactAngle$9[ebp]
	mulss	xmm0, DWORD PTR __real@3f666666
	movss	xmm1, DWORD PTR _impactAngle$[ebp]
	mulss	xmm1, DWORD PTR __real@3e4ccccd
	addss	xmm0, xmm1
	movss	DWORD PTR tv965[ebp], xmm0
$LN48@CheckGroun:
	movss	xmm0, DWORD PTR tv965[ebp]
	movss	DWORD PTR _decelFactor$13[ebp], xmm0

; 1698 : 				vt = max(0.001F, decelFactor * vt);

	mov	ecx, DWORD PTR _this$[ebp]
	movss	xmm0, DWORD PTR _decelFactor$13[ebp]
	mulss	xmm0, DWORD PTR [ecx+1120]
	movss	xmm1, DWORD PTR __real@3a83126f
	comiss	xmm1, xmm0
	jbe	SHORT $LN49@CheckGroun
	movss	xmm0, DWORD PTR __real@3a83126f
	movss	DWORD PTR tv974[ebp], xmm0
	jmp	SHORT $LN50@CheckGroun
$LN49@CheckGroun:
	mov	edx, DWORD PTR _this$[ebp]
	movss	xmm0, DWORD PTR _decelFactor$13[ebp]
	mulss	xmm0, DWORD PTR [edx+1120]
	movss	DWORD PTR tv974[ebp], xmm0
$LN50@CheckGroun:
	mov	eax, DWORD PTR _this$[ebp]
	movss	xmm0, DWORD PTR tv974[ebp]
	movss	DWORD PTR [eax+1120], xmm0

; 1699 : 			
; 1700 : 				if(fabs(slice) > 0.6F || fabs(pitch) > 0.6F)

	mov	ecx, DWORD PTR _this$[ebp]
	push	ecx
	movss	xmm0, DWORD PTR [ecx+1308]
	movss	DWORD PTR [esp], xmm0
	call	?fabs@@YAMM@Z				; fabs
	add	esp, 4
	fstp	DWORD PTR tv1572[ebp]
	movss	xmm0, DWORD PTR tv1572[ebp]
	comiss	xmm0, DWORD PTR __real@3f19999a
	ja	SHORT $LN7@CheckGroun
	mov	edx, DWORD PTR _this$[ebp]
	push	ecx
	movss	xmm0, DWORD PTR [edx+1312]
	movss	DWORD PTR [esp], xmm0
	call	?fabs@@YAMM@Z				; fabs
	add	esp, 4
	fstp	DWORD PTR tv1579[ebp]
	movss	xmm0, DWORD PTR tv1579[ebp]
	comiss	xmm0, DWORD PTR __real@3f19999a
	jbe	SHORT $LN8@CheckGroun
$LN7@CheckGroun:

; 1701 : 				{
; 1702 : 					stallMode = Crashing;

	mov	eax, DWORD PTR _this$[ebp]
	mov	DWORD PTR [eax+1248], 1

; 1703 : 					
; 1704 : 					xdot *= decelFactor;

	mov	ecx, DWORD PTR _this$[ebp]
	movss	xmm0, DWORD PTR [ecx+1196]
	mulss	xmm0, DWORD PTR _decelFactor$13[ebp]
	mov	edx, DWORD PTR _this$[ebp]
	movss	DWORD PTR [edx+1196], xmm0

; 1705 : 					ydot *= decelFactor;

	mov	eax, DWORD PTR _this$[ebp]
	movss	xmm0, DWORD PTR [eax+1200]
	mulss	xmm0, DWORD PTR _decelFactor$13[ebp]
	mov	ecx, DWORD PTR _this$[ebp]
	movss	DWORD PTR [ecx+1200], xmm0
$LN8@CheckGroun:

; 1706 : 					ShiAssert(!_isnan(xdot));
; 1707 : 					ShiAssert(!_isnan(ydot));
; 1708 : 				}
; 1709 : 				
; 1710 : 				if(vt < 5.0F)

	mov	edx, DWORD PTR _this$[ebp]
	movss	xmm0, DWORD PTR __real@40a00000
	comiss	xmm0, DWORD PTR [edx+1120]
	jbe	$LN5@CheckGroun

; 1711 : 				{
; 1712 : 					stallMode = None;

	mov	eax, DWORD PTR _this$[ebp]
	mov	DWORD PTR [eax+1248], 0

; 1713 : 					stallMagnitude = 10.0F;

	mov	ecx, DWORD PTR _this$[ebp]
	movss	xmm0, DWORD PTR __real@41200000
	movss	DWORD PTR [ecx+1220], xmm0

; 1714 : 					vt = 0.001F;

	mov	edx, DWORD PTR _this$[ebp]
	movss	xmm0, DWORD PTR __real@3a83126f
	movss	DWORD PTR [edx+1120], xmm0

; 1715 : 					ClearFlag (InAir);

	push	2
	mov	ecx, DWORD PTR _this$[ebp]
	call	?ClearFlag@AirframeClass@@QAEXH@Z	; AirframeClass::ClearFlag

; 1716 : 					// Set our anchor so that when we're moving slowly we can accumulate our position in high precision
; 1717 : 					groundAnchorX = x;

	mov	eax, DWORD PTR _this$[ebp]
	mov	ecx, DWORD PTR _this$[ebp]
	mov	edx, DWORD PTR [ecx+1108]
	mov	DWORD PTR [eax+112], edx

; 1718 : 					groundAnchorY = y;

	mov	eax, DWORD PTR _this$[ebp]
	mov	ecx, DWORD PTR _this$[ebp]
	mov	edx, DWORD PTR [ecx+1112]
	mov	DWORD PTR [eax+116], edx

; 1719 : 					groundDeltaX = 0.0f;

	mov	eax, DWORD PTR _this$[ebp]
	movss	xmm0, DWORD PTR __real@00000000
	movss	DWORD PTR [eax+120], xmm0

; 1720 : 					groundDeltaX = 0.0f;

	mov	ecx, DWORD PTR _this$[ebp]
	movss	xmm0, DWORD PTR __real@00000000
	movss	DWORD PTR [ecx+120], xmm0

; 1721 : 					platform->SetFlag( ON_GROUND );

	push	128					; 00000080H
	mov	edx, DWORD PTR _this$[ebp]
	mov	ecx, DWORD PTR [edx+1088]
	call	?SetFlag@SimBaseClass@@QAEXH@Z		; SimBaseClass::SetFlag

; 1722 : 					slice = 0.0F;

	mov	eax, DWORD PTR _this$[ebp]
	movss	xmm0, DWORD PTR __real@00000000
	movss	DWORD PTR [eax+1308], xmm0

; 1723 : 					pitch = 0.0F;

	mov	ecx, DWORD PTR _this$[ebp]
	movss	xmm0, DWORD PTR __real@00000000
	movss	DWORD PTR [ecx+1312], xmm0

; 1724 : 					if(fuel <= 0.0F)

	mov	edx, DWORD PTR _this$[ebp]
	movss	xmm0, DWORD PTR __real@00000000
	comiss	xmm0, DWORD PTR [edx+20]
	jb	SHORT $LN5@CheckGroun

; 1725 : 					{
; 1726 : 						SetFlag(EngineOff);

	push	32768					; 00008000H
	mov	ecx, DWORD PTR _this$[ebp]
	call	?SetFlag@AirframeClass@@QAEXH@Z		; AirframeClass::SetFlag

; 1727 : 						SetFlag(EngineOff2);//TJL 01/14/04 Multi-engine

	push	536870912				; 20000000H
	mov	ecx, DWORD PTR _this$[ebp]
	call	?SetFlag@AirframeClass@@QAEXH@Z		; AirframeClass::SetFlag
$LN5@CheckGroun:

; 1728 : 					}
; 1729 : 				}
; 1730 : 				gmma = (float)fabs( gmma/(2.0F + !IsSet(GearBroken)) );

	push	2048					; 00000800H
	mov	ecx, DWORD PTR _this$[ebp]
	call	?IsSet@AirframeClass@@QBEHH@Z		; AirframeClass::IsSet
	test	eax, eax
	jne	SHORT $LN51@CheckGroun
	mov	DWORD PTR tv1025[ebp], 1
	jmp	SHORT $LN52@CheckGroun
$LN51@CheckGroun:
	mov	DWORD PTR tv1025[ebp], 0
$LN52@CheckGroun:
	cvtsi2ss xmm0, DWORD PTR tv1025[ebp]
	addss	xmm0, DWORD PTR __real@40000000
	mov	eax, DWORD PTR _this$[ebp]
	movss	xmm1, DWORD PTR [eax+1172]
	divss	xmm1, xmm0
	push	ecx
	movss	DWORD PTR [esp], xmm1
	call	?fabs@@YAMM@Z				; fabs
	add	esp, 4
	mov	ecx, DWORD PTR _this$[ebp]
	fstp	DWORD PTR [ecx+1172]

; 1731 : 				CalcBodyRates(dt);

	push	ecx
	movss	xmm0, DWORD PTR _dt$[ebp]
	movss	DWORD PTR [esp], xmm0
	mov	ecx, DWORD PTR _this$[ebp]
	call	?CalcBodyRates@AirframeClass@@AAEXM@Z	; AirframeClass::CalcBodyRates

; 1732 : 				CalcBodyOrientation(dt);

	push	ecx
	movss	xmm0, DWORD PTR _dt$[ebp]
	movss	DWORD PTR [esp], xmm0
	mov	ecx, DWORD PTR _this$[ebp]
	call	?CalcBodyOrientation@AirframeClass@@QAEXM@Z ; AirframeClass::CalcBodyOrientation

; 1733 : 				Trigenometry();

	mov	ecx, DWORD PTR _this$[ebp]
	call	?Trigenometry@AirframeClass@@AAEXXZ	; AirframeClass::Trigenometry

; 1734 : 				
; 1735 : 			}
; 1736 : 			else

	jmp	$LN4@CheckGroun
$LN10@CheckGroun:

; 1737 : 			{
; 1738 : 				z = groundZ - minHeight - 10.0F;

	mov	edx, DWORD PTR _this$[ebp]
	movss	xmm0, DWORD PTR [edx+1272]
	subss	xmm0, DWORD PTR _minHeight$[ebp]
	subss	xmm0, DWORD PTR __real@41200000
	mov	eax, DWORD PTR _this$[ebp]
	movss	DWORD PTR [eax+1116], xmm0

; 1739 : 				
; 1740 : 				if(stallMode > None)

	mov	ecx, DWORD PTR _this$[ebp]
	cmp	DWORD PTR [ecx+1248], 0
	jle	SHORT $LN3@CheckGroun

; 1741 : 					gmma = 20.0F * DTR;

	mov	edx, DWORD PTR _this$[ebp]
	movss	xmm0, DWORD PTR __real@3eb2b8c1
	movss	DWORD PTR [edx+1172], xmm0
$LN3@CheckGroun:

; 1742 : 				
; 1743 : 				stallMode = None;

	mov	eax, DWORD PTR _this$[ebp]
	mov	DWORD PTR [eax+1248], 0

; 1744 : 				stallMagnitude = 10.0F;

	mov	ecx, DWORD PTR _this$[ebp]
	movss	xmm0, DWORD PTR __real@41200000
	movss	DWORD PTR [ecx+1220], xmm0

; 1745 : 				
; 1746 : 				slice = 0.0F;

	mov	edx, DWORD PTR _this$[ebp]
	movss	xmm0, DWORD PTR __real@00000000
	movss	DWORD PTR [edx+1308], xmm0

; 1747 : 				pitch = 0.0F;

	mov	eax, DWORD PTR _this$[ebp]
	movss	xmm0, DWORD PTR __real@00000000
	movss	DWORD PTR [eax+1312], xmm0

; 1748 : 				
; 1749 : 				if(fuel <= 0.0F)

	mov	ecx, DWORD PTR _this$[ebp]
	movss	xmm0, DWORD PTR __real@00000000
	comiss	xmm0, DWORD PTR [ecx+20]
	jb	$LN2@CheckGroun

; 1750 : 				{
; 1751 : 					gmma = 0.0F;

	mov	edx, DWORD PTR _this$[ebp]
	movss	xmm0, DWORD PTR __real@00000000
	movss	DWORD PTR [edx+1172], xmm0

; 1752 : 					ClearFlag (InAir);

	push	2
	mov	ecx, DWORD PTR _this$[ebp]
	call	?ClearFlag@AirframeClass@@QAEXH@Z	; AirframeClass::ClearFlag

; 1753 : 					// Set our anchor so that when we're moving slowly we can accumulate our position in high precision
; 1754 : 					groundAnchorX = x;

	mov	eax, DWORD PTR _this$[ebp]
	mov	ecx, DWORD PTR _this$[ebp]
	mov	edx, DWORD PTR [ecx+1108]
	mov	DWORD PTR [eax+112], edx

; 1755 : 					groundAnchorY = y;

	mov	eax, DWORD PTR _this$[ebp]
	mov	ecx, DWORD PTR _this$[ebp]
	mov	edx, DWORD PTR [ecx+1112]
	mov	DWORD PTR [eax+116], edx

; 1756 : 					groundDeltaX = 0.0f;

	mov	eax, DWORD PTR _this$[ebp]
	movss	xmm0, DWORD PTR __real@00000000
	movss	DWORD PTR [eax+120], xmm0

; 1757 : 					groundDeltaY = 0.0f;

	mov	ecx, DWORD PTR _this$[ebp]
	movss	xmm0, DWORD PTR __real@00000000
	movss	DWORD PTR [ecx+124], xmm0

; 1758 : 					platform->SetFlag( ON_GROUND );

	push	128					; 00000080H
	mov	edx, DWORD PTR _this$[ebp]
	mov	ecx, DWORD PTR [edx+1088]
	call	?SetFlag@SimBaseClass@@QAEXH@Z		; SimBaseClass::SetFlag

; 1759 : 					SetFlag(EngineOff);

	push	32768					; 00008000H
	mov	ecx, DWORD PTR _this$[ebp]
	call	?SetFlag@AirframeClass@@QAEXH@Z		; AirframeClass::SetFlag

; 1760 : 					SetFlag(EngineOff2);//TJL 01/14/04 Multi-engine

	push	536870912				; 20000000H
	mov	ecx, DWORD PTR _this$[ebp]
	call	?SetFlag@AirframeClass@@QAEXH@Z		; AirframeClass::SetFlag

; 1761 : 				}
; 1762 : 				else

	jmp	SHORT $LN1@CheckGroun
$LN2@CheckGroun:

; 1763 : 				{
; 1764 : 					gmma = max ((float)fabs(gmma/2.0F), 20.0F * DTR);

	mov	eax, DWORD PTR _this$[ebp]
	movss	xmm0, DWORD PTR [eax+1172]
	divss	xmm0, DWORD PTR __real@40000000
	push	ecx
	movss	DWORD PTR [esp], xmm0
	call	?fabs@@YAMM@Z				; fabs
	add	esp, 4
	fstp	DWORD PTR tv1658[ebp]
	movss	xmm0, DWORD PTR tv1658[ebp]
	comiss	xmm0, DWORD PTR __real@3eb2b8c1
	jbe	SHORT $LN53@CheckGroun
	mov	ecx, DWORD PTR _this$[ebp]
	movss	xmm0, DWORD PTR [ecx+1172]
	divss	xmm0, DWORD PTR __real@40000000
	push	ecx
	movss	DWORD PTR [esp], xmm0
	call	?fabs@@YAMM@Z				; fabs
	add	esp, 4
	fstp	DWORD PTR tv1081[ebp]
	jmp	SHORT $LN54@CheckGroun
$LN53@CheckGroun:
	movss	xmm0, DWORD PTR __real@3eb2b8c1
	movss	DWORD PTR tv1081[ebp], xmm0
$LN54@CheckGroun:
	mov	edx, DWORD PTR _this$[ebp]
	movss	xmm0, DWORD PTR tv1081[ebp]
	movss	DWORD PTR [edx+1172], xmm0
$LN1@CheckGroun:

; 1765 : 				}
; 1766 : 				
; 1767 : 				vt = max(vt * 0.75F, 500.0F);

	mov	eax, DWORD PTR _this$[ebp]
	movss	xmm0, DWORD PTR [eax+1120]
	mulss	xmm0, DWORD PTR __real@3f400000
	comiss	xmm0, DWORD PTR __real@43fa0000
	jbe	SHORT $LN55@CheckGroun
	mov	ecx, DWORD PTR _this$[ebp]
	movss	xmm0, DWORD PTR [ecx+1120]
	mulss	xmm0, DWORD PTR __real@3f400000
	movss	DWORD PTR tv1090[ebp], xmm0
	jmp	SHORT $LN56@CheckGroun
$LN55@CheckGroun:
	movss	xmm0, DWORD PTR __real@43fa0000
	movss	DWORD PTR tv1090[ebp], xmm0
$LN56@CheckGroun:
	mov	edx, DWORD PTR _this$[ebp]
	movss	xmm0, DWORD PTR tv1090[ebp]
	movss	DWORD PTR [edx+1120], xmm0

; 1768 : 				
; 1769 : 				ResetIntegrators();

	mov	ecx, DWORD PTR _this$[ebp]
	call	?ResetIntegrators@AirframeClass@@AAEXXZ	; AirframeClass::ResetIntegrators

; 1770 : 				
; 1771 : 				alpha = 5.0F;

	mov	eax, DWORD PTR _this$[ebp]
	movss	xmm0, DWORD PTR __real@40a00000
	movss	DWORD PTR [eax+1152], xmm0

; 1772 : 				beta = 0.0F;

	mov	ecx, DWORD PTR _this$[ebp]
	movss	xmm0, DWORD PTR __real@00000000
	movss	DWORD PTR [ecx+1156], xmm0

; 1773 : 				mu = 0.0F;

	mov	edx, DWORD PTR _this$[ebp]
	movss	xmm0, DWORD PTR __real@00000000
	movss	DWORD PTR [edx+1180], xmm0

; 1774 : 				
; 1775 : 				ResetOrientation();

	mov	ecx, DWORD PTR _this$[ebp]
	call	?ResetOrientation@AirframeClass@@QAEXXZ	; AirframeClass::ResetOrientation

; 1776 : 				Trigenometry();

	mov	ecx, DWORD PTR _this$[ebp]
	call	?Trigenometry@AirframeClass@@AAEXXZ	; AirframeClass::Trigenometry
$LN4@CheckGroun:
$LN23@CheckGroun:

; 1777 : 			}
; 1778 : 		}
; 1779 : 	}
; 1780 : }

	mov	ecx, DWORD PTR __$EHRec$[ebp]
	mov	DWORD PTR fs:0, ecx
	pop	ecx
	mov	ecx, DWORD PTR __$ArrayPad$[ebp]
	xor	ecx, ebp
	call	@__security_check_cookie@4
	mov	esp, ebp
	pop	ebp
	ret	4
_TEXT	ENDS
text$x	SEGMENT
__unwindfunclet$?CheckGroundImpact@AirframeClass@@QAEXM@Z$0:
	mov	eax, DWORD PTR $T8[ebp]
	push	eax
	call	??3@YAXPAX@Z				; operator delete
	pop	ecx
	ret	0
__ehhandler$?CheckGroundImpact@AirframeClass@@QAEXM@Z:
	mov	edx, DWORD PTR [esp+8]
	lea	eax, DWORD PTR [edx+12]
	mov	ecx, DWORD PTR [edx-260]
	xor	ecx, eax
	call	@__security_check_cookie@4
	mov	ecx, DWORD PTR [edx-4]
	xor	ecx, eax
	call	@__security_check_cookie@4
	mov	eax, OFFSET __ehfuncinfo$?CheckGroundImpact@AirframeClass@@QAEXM@Z
	jmp	___CxxFrameHandler3
text$x	ENDS
?CheckGroundImpact@AirframeClass@@QAEXM@Z ENDP		; AirframeClass::CheckGroundImpact
; Function compile flags: /Odtp
; File c:\users\zhitao li\documents\visual studio 2012\projects\freefalcon\sim\airframe\eom.cpp
_TEXT	SEGMENT
tv468 = -124						; size = 4
_nosGearZ$1 = -120					; size = 4
tv413 = -116						; size = 4
_nosGearRng$2 = -112					; size = 4
tv558 = -108						; size = 4
tv407 = -104						; size = 4
_halfspan$ = -100					; size = 4
_gearDof$3 = -96					; size = 4
tv512 = -92						; size = 4
_cosphi_lim$ = -88					; size = 4
_gearHt$ = -84						; size = 4
tv232 = -80						; size = 4
tv132 = -76						; size = 4
_length$ = -72						; size = 4
_best$4 = -68						; size = 4
_deltzWing$ = -64					; size = 4
_deltzGear$ = -60					; size = 4
_deltzBody$ = -56					; size = 4
_cgloc$ = -52						; size = 4
_deltzNose$ = -48					; size = 4
_radius$ = -44						; size = 4
_deltz$ = -40						; size = 4
_i$5 = -36						; size = 4
_this$ = -32						; size = 4
_PtWorldPos$ = -28					; size = 12
_PtRelPos$ = -16					; size = 12
__$ArrayPad$ = -4					; size = 4
?CheckHeight@AirframeClass@@QBEMXZ PROC			; AirframeClass::CheckHeight
; _this$ = ecx

; 1797 : float AirframeClass::CheckHeight(void) const {

	push	ebp
	mov	ebp, esp
	sub	esp, 124				; 0000007cH
	mov	eax, DWORD PTR ___security_cookie
	xor	eax, ebp
	mov	DWORD PTR __$ArrayPad$[ebp], eax
	push	esi
	mov	DWORD PTR _this$[ebp], ecx

; 1798 : 	// JB 010120
; 1799 : 	if (!platform){

	mov	eax, DWORD PTR _this$[ebp]
	cmp	DWORD PTR [eax+1088], 0
	jne	SHORT $LN22@CheckHeigh

; 1800 : 		return 0;

	fldz
	jmp	$LN23@CheckHeigh
$LN22@CheckHeigh:

; 1801 : 	}
; 1802 : 	// JB 010120
; 1803 : 
; 1804 : 	// sfr: removed JB check
; 1805 : 	//if (F4IsBadReadPtr(platform, sizeof(AircraftClass))) // JB 010317 CTD
; 1806 : 	//	return 0;
; 1807 : 
; 1808 : 	float cgloc = GetAeroData(AeroDataSet::CGLoc);

	push	46					; 0000002eH
	mov	ecx, DWORD PTR _this$[ebp]
	call	?GetAeroData@AirframeClass@@QBEMH@Z	; AirframeClass::GetAeroData
	fstp	DWORD PTR _cgloc$[ebp]

; 1809 : 	float length = GetAeroData(AeroDataSet::Length);

	push	47					; 0000002fH
	mov	ecx, DWORD PTR _this$[ebp]
	call	?GetAeroData@AirframeClass@@QBEMH@Z	; AirframeClass::GetAeroData
	fstp	DWORD PTR _length$[ebp]

; 1810 : 	float halfspan = GetAeroData(AeroDataSet::Span)/2.0F;

	push	48					; 00000030H
	mov	ecx, DWORD PTR _this$[ebp]
	call	?GetAeroData@AirframeClass@@QBEMH@Z	; AirframeClass::GetAeroData
	fstp	DWORD PTR tv407[ebp]
	movss	xmm0, DWORD PTR tv407[ebp]
	divss	xmm0, DWORD PTR __real@40000000
	movss	DWORD PTR _halfspan$[ebp], xmm0

; 1811 : 	float radius = GetAeroData(AeroDataSet::FusRadius);

	push	49					; 00000031H
	mov	ecx, DWORD PTR _this$[ebp]
	call	?GetAeroData@AirframeClass@@QBEMH@Z	; AirframeClass::GetAeroData
	fstp	DWORD PTR _radius$[ebp]

; 1812 : 	float gearHt = GetAeroData(AeroDataSet::NosGearZ) - radius;

	push	16					; 00000010H
	mov	ecx, DWORD PTR _this$[ebp]
	call	?GetAeroData@AirframeClass@@QBEMH@Z	; AirframeClass::GetAeroData
	fstp	DWORD PTR tv413[ebp]
	movss	xmm0, DWORD PTR tv413[ebp]
	subss	xmm0, DWORD PTR _radius$[ebp]
	movss	DWORD PTR _gearHt$[ebp], xmm0

; 1813 : 		
; 1814 : 	float deltz = 0.0F;

	movss	xmm0, DWORD PTR __real@00000000
	movss	DWORD PTR _deltz$[ebp], xmm0

; 1815 : 	float deltzNose = 0.0F;

	movss	xmm0, DWORD PTR __real@00000000
	movss	DWORD PTR _deltzNose$[ebp], xmm0

; 1816 : 	float deltzWing = 0.0F;

	movss	xmm0, DWORD PTR __real@00000000
	movss	DWORD PTR _deltzWing$[ebp], xmm0

; 1817 : 	float deltzGear = 0.0F;

	movss	xmm0, DWORD PTR __real@00000000
	movss	DWORD PTR _deltzGear$[ebp], xmm0

; 1818 : 	float deltzBody = 0.0F;

	movss	xmm0, DWORD PTR __real@00000000
	movss	DWORD PTR _deltzBody$[ebp], xmm0

; 1819 : 
; 1820 : 	Tpoint PtWorldPos;
; 1821 : 	Tpoint PtRelPos;
; 1822 : 	
; 1823 : 	float cosphi_lim = max(0.0F,platform->platformAngles.cosphi);

	mov	ecx, DWORD PTR _this$[ebp]
	mov	edx, DWORD PTR [ecx+1088]
	movss	xmm0, DWORD PTR __real@00000000
	comiss	xmm0, DWORD PTR [edx+400]
	jbe	SHORT $LN25@CheckHeigh
	movss	xmm0, DWORD PTR __real@00000000
	movss	DWORD PTR tv132[ebp], xmm0
	jmp	SHORT $LN26@CheckHeigh
$LN25@CheckHeigh:
	mov	eax, DWORD PTR _this$[ebp]
