; Listing generated by Microsoft (R) Optimizing Compiler Version 17.00.51106.1 

	TITLE	C:\Users\Zhitao Li\Documents\Visual Studio 2012\Projects\Freefalcon\SIM\Airframe\Readin.cpp
	.686P
	.XMM
	include listing.inc
	.model	flat

INCLUDELIB LIBCMT
INCLUDELIB OLDNAMES

PUBLIC	??_C@_02MOKMDPNA@42?$AA@			; `string'
PUBLIC	?traps@_Num_base@std@@2_NB			; std::_Num_base::traps
PUBLIC	??_C@_0P@CFIOJJOC@sndWheelBrakes?$AA@		; `string'
PUBLIC	??_C@_09ECGMMJPD@ChaffVec8?$AA@			; `string'
PUBLIC	?round_style@_Num_base@std@@2W4float_round_style@2@B ; std::_Num_base::round_style
PUBLIC	??_C@_03FNHBLAJP@132?$AA@			; `string'
PUBLIC	??_C@_0M@MPFFECC@ChaffCount8?$AA@		; `string'
PUBLIC	??_C@_0N@PKJCCGNC@sndDragChute?$AA@		; `string'
PUBLIC	?digits@_Num_base@std@@2HB			; std::_Num_base::digits
PUBLIC	?digits10@_Num_base@std@@2HB			; std::_Num_base::digits10
PUBLIC	??_C@_09KHKMEOAG@ChaffPos9?$AA@			; `string'
PUBLIC	??_C@_03DBDHDPFK@217?$AA@			; `string'
PUBLIC	??_C@_0M@CFEPOFMO@sndLowSpeed?$AA@		; `string'
PUBLIC	?max_digits10@_Num_base@std@@2HB		; std::_Num_base::max_digits10
PUBLIC	??_C@_09FLHHPILC@ChaffVec9?$AA@			; `string'
PUBLIC	??_C@_03CGMNIGDB@167?$AA@			; `string'
PUBLIC	?max_exponent@_Num_base@std@@2HB		; std::_Num_base::max_exponent
PUBLIC	??_C@_0N@BGPFCKDO@sndFlapStart?$AA@		; `string'
PUBLIC	??_C@_0M@BFOOGFGD@ChaffCount9?$AA@		; `string'
PUBLIC	?max_exponent10@_Num_base@std@@2HB		; std::_Num_base::max_exponent10
PUBLIC	??_C@_03BHHPDANN@145?$AA@			; `string'
PUBLIC	??_C@_0M@JDINFBLP@sndFlapLoop?$AA@		; `string'
PUBLIC	?min_exponent@_Num_base@std@@2HB		; std::_Num_base::min_exponent
PUBLIC	??_C@_0L@DIJBGODA@ChaffPos10?$AA@		; `string'
PUBLIC	?min_exponent10@_Num_base@std@@2HB		; std::_Num_base::min_exponent10
PUBLIC	??_C@_03OGEABJM@144?$AA@			; `string'
PUBLIC	??_C@_0L@PEGBMCBD@ChaffVec10?$AA@		; `string'
PUBLIC	??_C@_0L@ELJFKPMH@sndFlapEnd?$AA@		; `string'
PUBLIC	?radix@_Num_base@std@@2HB			; std::_Num_base::radix
PUBLIC	??_C@_0N@FPLLJMM@ChaffCount10?$AA@		; `string'
PUBLIC	??_C@_03EBCFJHFL@143?$AA@			; `string'
PUBLIC	??_C@_0N@EBOCPMEO@sndHookStart?$AA@		; `string'
PUBLIC	??_C@_08LJHJKHFG@ChaffSeq?$AA@			; `string'
PUBLIC	??_C@_03BPKHKDIO@195?$AA@			; `string'
PUBLIC	??_C@_0M@OMOOAEML@sndHookLoop?$AA@		; `string'
PUBLIC	??_C@_0BA@MFGOPAOI@ChaffDispensers?$AA@		; `string'
PUBLIC	??_C@_03GLMJCMP@194?$AA@			; `string'
PUBLIC	??_C@_0L@ECMNGAIL@sndHookEnd?$AA@		; `string'
PUBLIC	??_C@_0M@BEILKJKA@PilotEyePos?$AA@		; `string'
PUBLIC	??_C@_03EJPNAEAI@193?$AA@			; `string'
PUBLIC	??_C@_07OLKAFLIN@15?50?5?93?$AA@		; `string'
PUBLIC	??_C@_0BC@MDCFBCDL@sndGearCloseStart?$AA@	; `string'
PUBLIC	??_C@_06JLPJEHP@typeAC?$AA@			; `string'
PUBLIC	??_C@_03CFEJFCFP@147?$AA@			; `string'
PUBLIC	??_C@_0L@KLEFPCNC@typeEngine?$AA@		; `string'
PUBLIC	??_C@_0BA@OCOMKPLN@sndGearCloseEnd?$AA@		; `string'
PUBLIC	??_C@_08GIIEEHD@elevRate?$AA@			; `string'
PUBLIC	??_C@_03DMFCGDBO@146?$AA@			; `string'
PUBLIC	??_C@_0BB@DHMKJFFD@sndGearOpenStart?$AA@	; `string'
PUBLIC	?is_bounded@_Num_int_base@std@@2_NB		; std::_Num_int_base::is_bounded
PUBLIC	??_C@_02PEECMOAB@90?$AA@			; `string'
PUBLIC	??_C@_08IFIJBBKG@gunPitch?$AA@			; `string'
PUBLIC	??_C@_03LLMKHPNB@149?$AA@			; `string'
PUBLIC	?is_exact@_Num_int_base@std@@2_NB		; std::_Num_int_base::is_exact
PUBLIC	??_C@_0P@LOPFHBJN@sndGearOpenEnd?$AA@		; `string'
PUBLIC	?is_integer@_Num_int_base@std@@2_NB		; std::_Num_int_base::is_integer
PUBLIC	??_C@_06MOABAJLK@gunYaw?$AA@			; `string'
PUBLIC	??_C@_03GLMKKOKP@150?$AA@			; `string'
PUBLIC	??_C@_0M@NGHBPPNM@sndGearLoop?$AA@		; `string'
PUBLIC	?is_modulo@_Num_int_base@std@@2_NB		; std::_Num_int_base::is_modulo
PUBLIC	??_C@_0BI@FMEAPPJH@MeanTimeBetweenFailures?$AA@	; `string'
PUBLIC	?is_specialized@_Num_int_base@std@@2_NB		; std::_Num_int_base::is_specialized
PUBLIC	??_C@_03KCNBEOJA@148?$AA@			; `string'
PUBLIC	??_C@_0BD@PGJDPFDH@sndCanopyOpenStart?$AA@	; `string'
PUBLIC	??_C@_0L@BAADMPGH@A2GJDAMAlt?$AA@		; `string'
PUBLIC	?radix@_Num_int_base@std@@2HB			; std::_Num_int_base::radix
PUBLIC	??_C@_03GDOAOEGO@271?$AA@			; `string'
PUBLIC	??_C@_07ENLDMLFH@20000?40?$AA@			; `string'
PUBLIC	??_C@_0BB@BLPIILDP@sndCanopyOpenEnd?$AA@	; `string'
PUBLIC	??_C@_0L@KCCAIDHE@A2GJSOWAlt?$AA@		; `string'
PUBLIC	??_C@_03EIMNLHKN@272?$AA@			; `string'
PUBLIC	??_C@_0L@IMIMIECG@A2GHarmAlt?$AA@		; `string'
PUBLIC	??_C@_0BE@IJDLOOBK@sndCanopyCloseStart?$AA@	; `string'
PUBLIC	?has_denorm@_Num_float_base@std@@2W4float_denorm_style@2@B ; std::_Num_float_base::has_denorm
PUBLIC	??_C@_09DHOGLBLI@A2GAGMAlt?$AA@			; `string'
PUBLIC	??_C@_03FBNGIGOM@273?$AA@			; `string'
PUBLIC	?has_denorm_loss@_Num_float_base@std@@2_NB	; std::_Num_float_base::has_denorm_loss
PUBLIC	?SIMDIRTYDATA_INTERVAL@FalconEntity@@2KB	; FalconEntity::SIMDIRTYDATA_INTERVAL
PUBLIC	??_C@_0BC@NKJBGAID@sndCanopyCloseEnd?$AA@	; `string'
PUBLIC	?CMPDIRTYDATA_INTERVAL@FalconEntity@@2KB	; FalconEntity::CMPDIRTYDATA_INTERVAL
PUBLIC	?has_infinity@_Num_float_base@std@@2_NB		; std::_Num_float_base::has_infinity
PUBLIC	??_C@_07PANDICND@18000?40?$AA@			; `string'
PUBLIC	??_C@_09FEGLMJHC@A2GGBUAlt?$AA@			; `string'
PUBLIC	??_C@_03BOJHBACL@274?$AA@			; `string'
PUBLIC	??_C@_0O@NJFJECGK@sndCanopyLoop?$AA@		; `string'
PUBLIC	?has_quiet_NaN@_Num_float_base@std@@2_NB	; std::_Num_float_base::has_quiet_NaN
PUBLIC	??_C@_0N@IKBNFLCE@A2GDumbHDAlt?$AA@		; `string'
PUBLIC	?has_signaling_NaN@_Num_float_base@std@@2_NB	; std::_Num_float_base::has_signaling_NaN
PUBLIC	??_C@_03HIMCBGK@275?$AA@			; `string'
PUBLIC	??_C@_0BD@DBCDKDAO@rollLimitForAiInWP?$AA@	; `string'
PUBLIC	?is_bounded@_Num_float_base@std@@2_NB		; std::_Num_float_base::is_bounded
PUBLIC	??_C@_06IEKPAFEH@1500?40?$AA@			; `string'
PUBLIC	?num_sets@@3HA					; num_sets
PUBLIC	??_C@_0O@CHIMHFMN@A2GClusterAlt?$AA@		; `string'
PUBLIC	??_C@_05NPENMKL@180?40?$AA@			; `string'
PUBLIC	?is_exact@_Num_float_base@std@@2_NB		; std::_Num_float_base::is_exact
PUBLIC	??_C@_0M@BDNEKKIH@flap2Nozzle?$AA@		; `string'
PUBLIC	??_C@_07JBAEODBD@15000?40?$AA@			; `string'
PUBLIC	?is_iec559@_Num_float_base@std@@2_NB		; std::_Num_float_base::is_iec559
PUBLIC	??_C@_0N@BBIMBJDC@A2GDumbLDAlt?$AA@		; `string'
PUBLIC	??_C@_0BG@IGLEDGDF@startGroundAvoidCheck?$AA@	; `string'
PUBLIC	?is_integer@_Num_float_base@std@@2_NB		; std::_Num_float_base::is_integer
PUBLIC	??_C@_0BC@GIKIJCBL@A2GGenericBombAlt?$AA@	; `string'
PUBLIC	??_C@_06EDPNIFNN@3000?40?$AA@			; `string'
PUBLIC	?is_modulo@_Num_float_base@std@@2_NB		; std::_Num_float_base::is_modulo
PUBLIC	??_C@_0M@FGKPDILK@limitPstick?$AA@		; `string'
PUBLIC	??_C@_0BA@DJABIMNG@A2GGunRocketAlt?$AA@		; `string'
PUBLIC	?is_signed@_Num_float_base@std@@2_NB		; std::_Num_float_base::is_signed
PUBLIC	??_C@_0M@OPLFFMKN@refuelSpeed?$AA@		; `string'
PUBLIC	?is_specialized@_Num_float_base@std@@2_NB	; std::_Num_float_base::is_specialized
PUBLIC	??_C@_06EBPKNBCH@8000?40?$AA@			; `string'
PUBLIC	??_C@_0N@PAIKOJBB@A2GCameraAlt?$AA@		; `string'
PUBLIC	??_C@_05ENCMBPNB@310?40?$AA@			; `string'
PUBLIC	?tinyness_before@_Num_float_base@std@@2_NB	; std::_Num_float_base::tinyness_before
PUBLIC	??_C@_0P@ILJLJCH@refuelAltitude?$AA@		; `string'
PUBLIC	??_C@_07FEKDNNJN@12000?40?$AA@			; `string'
PUBLIC	?traps@_Num_float_base@std@@2_NB		; std::_Num_float_base::traps
PUBLIC	??_C@_0BC@ENDOHIN@A2GBombMissileAlt?$AA@	; `string'
PUBLIC	??_C@_07IKOBELMN@22500?40?$AA@			; `string'
PUBLIC	??_C@_0O@DBCENHJH@decelDistance?$AA@		; `string'
PUBLIC	?round_style@_Num_float_base@std@@2W4float_round_style@2@B ; std::_Num_float_base::round_style
PUBLIC	??_C@_07PCNENGCJ@13000?40?$AA@			; `string'
PUBLIC	??_C@_0P@BHKCIPOF@swingwingHinge?$AA@		; `string'
PUBLIC	?radix@_Num_float_base@std@@2HB			; std::_Num_float_base::radix
PUBLIC	??_C@_06NEGCJEPE@1000?40?$AA@			; `string'
PUBLIC	??_C@_0L@NAAENIAH@followRate?$AA@		; `string'
PUBLIC	??_C@_05MDNLPAKC@2?53?50?$AA@			; `string'
PUBLIC	??_C@_0BA@LBFNNHKL@animIntakeRamp1?$AA@		; `string'
PUBLIC	??_C@_04PPICEGLM@20?40?$AA@			; `string'
PUBLIC	??_C@_0BF@HGLAODLE@desiredClosureFactor?$AA@	; `string'
PUBLIC	??_C@_03MJJLKIFB@0?50?$AA@			; `string'
PUBLIC	??_C@_0BA@JKHAIEGI@animIntakeRamp2?$AA@		; `string'
PUBLIC	??_C@_07MMOJHPDH@longLeg?$AA@			; `string'
PUBLIC	??_C@_0BA@IDGLLFCJ@animIntakeRamp3?$AA@		; `string'
PUBLIC	??_C@_05DNIEJHGK@100?40?$AA@			; `string'
PUBLIC	??_C@_08FBPCGKKI@shortLeg?$AA@			; `string'
PUBLIC	??_C@_09FINDEIIK@FTITStart?$AA@			; `string'
PUBLIC	??_C@_04MIFMLGIO@25?40?$AA@			; `string'
PUBLIC	??_C@_0L@OCLCPCAP@refuelRate?$AA@		; `string'
PUBLIC	?is_signed@?$numeric_limits@D@std@@2_NB		; std::numeric_limits<char>::is_signed
PUBLIC	??_C@_08JLHOOBGB@FTITIdle?$AA@			; `string'
PUBLIC	?digits@?$numeric_limits@D@std@@2HB		; std::numeric_limits<char>::digits
PUBLIC	??_C@_04ENKCJKKM@50?40?$AA@			; `string'
PUBLIC	??_C@_03FONCLNOC@7?40?$AA@			; `string'
PUBLIC	??_C@_0P@PILIDGDH@AIBoomDistance?$AA@		; `string'
PUBLIC	??_C@_07IAPMMGPO@FTITMax?$AA@			; `string'
PUBLIC	?digits10@?$numeric_limits@D@std@@2HB		; std::numeric_limits<char>::digits10
PUBLIC	??_C@_06MHLAMJNB@nBooms?$AA@			; `string'
PUBLIC	??_C@_03NHHDBGPN@8?49?$AA@			; `string'
PUBLIC	??_C@_0M@KGIJPBID@criticalAOA?$AA@		; `string'
PUBLIC	??_C@_09PMCLDMMM@BoomRFPos?$AA@			; `string'
PUBLIC	??_C@_06JDDIGKKF@hasIFF?$AA@			; `string'
PUBLIC	??_C@_0BA@DOFPMJEB@BoomStoredAngle?$AA@		; `string'
PUBLIC	??_C@_09FBNADDDH@hasThrRev?$AA@			; `string'
PUBLIC	??_C@_02JODNFKLN@14?$AA@			; `string'
PUBLIC	??_C@_08JPCINJPA@nDrogues?$AA@			; `string'
PUBLIC	??_C@_0N@FBEPJMK@activeDrogue?$AA@		; `string'
PUBLIC	??_C@_09KFONFCCG@DrogueExt?$AA@			; `string'
PUBLIC	??_C@_0M@COLALMJE@DrogueRFPos?$AA@		; `string'
PUBLIC	?is_signed@?$numeric_limits@_W@std@@2_NB	; std::numeric_limits<wchar_t>::is_signed
PUBLIC	??_C@_07OBIGGHGC@?960?50?50?$AA@		; `string'
PUBLIC	??_C@_0L@BCJFBOAG@boomParent?$AA@		; `string'
PUBLIC	?digits@?$numeric_limits@_W@std@@2HB		; std::numeric_limits<wchar_t>::digits
PUBLIC	??_C@_04FLOKFLDL@2211?$AA@			; `string'
PUBLIC	??_C@_0N@ECBFJIGC@drogueParent?$AA@		; `string'
PUBLIC	?digits10@?$numeric_limits@_W@std@@2HB		; std::numeric_limits<wchar_t>::digits10
PUBLIC	??_C@_04FJKMOFGC@2221?$AA@			; `string'
PUBLIC	??_C@_0BA@MANMDKLC@refuelBoomSlot0?$AA@		; `string'
PUBLIC	??_C@_0BC@JJPHKPPK@refuelDrogueSlot0?$AA@	; `string'
PUBLIC	??_C@_0BC@IAOMJOLL@refuelDrogueSlot1?$AA@	; `string'
PUBLIC	??_C@_0BC@KLMBMNHI@refuelDrogueSlot2?$AA@	; `string'
PUBLIC	??_C@_0L@PFDNFINA@tankerType?$AA@		; `string'
PUBLIC	??_C@_01DHDKHMHF@6?$AA@				; `string'
PUBLIC	??_C@_0BE@NBFHNGE@BingoReturnDistance?$AA@	; `string'
PUBLIC	??_C@_0M@NENLEDAF@jokerFactor?$AA@		; `string'
PUBLIC	?is_modulo@?$numeric_limits@_N@std@@2_NB	; std::numeric_limits<bool>::is_modulo
PUBLIC	??_C@_03GJAMENNA@2?40?$AA@			; `string'
PUBLIC	??_C@_0M@BFADDIIA@bingoFactor?$AA@		; `string'
PUBLIC	?is_signed@?$numeric_limits@_N@std@@2_NB	; std::numeric_limits<bool>::is_signed
PUBLIC	?digits@?$numeric_limits@_N@std@@2HB		; std::numeric_limits<bool>::digits
PUBLIC	??_C@_03PENLHFGJ@5?40?$AA@			; `string'
PUBLIC	??_C@_0M@FMDMOCBC@fumesFactor?$AA@		; `string'
PUBLIC	?digits10@?$numeric_limits@_N@std@@2HB		; std::numeric_limits<bool>::digits10
PUBLIC	??_C@_04IPPMMMFO@15?40?$AA@			; `string'
PUBLIC	??_C@_0P@DJFGELM@maxRippleCount?$AA@		; `string'
PUBLIC	??_C@_02CLJDCEPA@19?$AA@			; `string'
PUBLIC	??_C@_09OBOMNAA@largePark?$AA@			; `string'
PUBLIC	??_C@_07FIMPJBEO@HtsAble?$AA@			; `string'
PUBLIC	??_C@_07MCGEMPLL@Has_TFR?$AA@			; `string'
PUBLIC	??_C@_05HHELFMLK@PID_K?$AA@			; `string'
PUBLIC	??_C@_03LOHCHBBO@0?45?$AA@			; `string'
PUBLIC	??_C@_06KHIOFIC@PID_KI?$AA@			; `string'
PUBLIC	??_C@_06LPNGJLMP@PID_KD?$AA@			; `string'
PUBLIC	?is_signed@?$numeric_limits@C@std@@2_NB		; std::numeric_limits<signed char>::is_signed
PUBLIC	?aeroDataset@@3PAVAeroDataSet@@A		; aeroDataset
PUBLIC	?digits@?$numeric_limits@C@std@@2HB		; std::numeric_limits<signed char>::digits
PUBLIC	??_C@_04PALILOBK@0?439?$AA@			; `string'
PUBLIC	??_C@_0M@DLIJHKLF@TFR_LimitMX?$AA@		; `string'
PUBLIC	?digits10@?$numeric_limits@C@std@@2HB		; std::numeric_limits<signed char>::digits10
PUBLIC	??_C@_0L@JIKGOMID@TFR_Corner?$AA@		; `string'
PUBLIC	??_C@_05LIKMLJBB@350?40?$AA@			; `string'
PUBLIC	??_C@_08EFBJNAEE@TFR_Gain?$AA@			; `string'
PUBLIC	??_C@_05DOHCIJGB@0?4010?$AA@			; `string'
PUBLIC	??_C@_08NECPDBAO@EVA_Gain?$AA@			; `string'
PUBLIC	??_C@_0M@EEJLCBEN@TFR_MaxRoll?$AA@		; `string'
PUBLIC	??_C@_09KAGJINIH@TFR_SoftG?$AA@			; `string'
PUBLIC	??_C@_08MMFFFDAK@TFR_MedG?$AA@			; `string'
PUBLIC	??_C@_03EMGHBCAM@4?40?$AA@			; `string'
PUBLIC	??_C@_09LFBFKCAG@TFR_HardG?$AA@			; `string'
PUBLIC	?is_signed@?$numeric_limits@E@std@@2_NB		; std::numeric_limits<unsigned char>::is_signed
PUBLIC	?value@?$integral_constant@_N$0A@@std@@2_NB	; std::integral_constant<bool,0>::value
PUBLIC	?digits@?$numeric_limits@E@std@@2HB		; std::numeric_limits<unsigned char>::digits
PUBLIC	??_C@_03OGGONKIH@6?40?$AA@			; `string'
PUBLIC	??_C@_0O@CHMHNOLI@TFR_Clearance?$AA@		; `string'
PUBLIC	?digits10@?$numeric_limits@E@std@@2HB		; std::numeric_limits<unsigned char>::digits10
PUBLIC	??_C@_0M@DABNCIEI@SlowPercent?$AA@		; `string'
PUBLIC	??_C@_0O@NHMMIMPK@TFR_lookAhead?$AA@		; `string'
PUBLIC	?value@?$integral_constant@_N$00@std@@2_NB	; std::integral_constant<bool,1>::value
PUBLIC	??_C@_06IGFKLLFD@4000?40?$AA@			; `string'
PUBLIC	??_C@_0BA@OFFLPKMJ@EVA1_SoftFactor?$AA@		; `string'
PUBLIC	??_C@_0BA@FIJBJGAH@EVA2_SoftFactor?$AA@		; `string'
PUBLIC	??_C@_0O@DAAIHLKJ@normSpoolRate?$AA@		; `string'
PUBLIC	??_C@_0P@KDGHHFFL@EVA1_MedFactor?$AA@		; `string'
PUBLIC	??_C@_03IMEEBDJM@0?47?$AA@			; `string'
PUBLIC	??_C@_0P@NEPJKHKL@EVA2_MedFactor?$AA@		; `string'
PUBLIC	??_C@_0M@BMNNNKAJ@abSpoolRate?$AA@		; `string'
PUBLIC	??_C@_0BA@PLNCKLKD@EVA1_HardFactor?$AA@		; `string'
PUBLIC	??_C@_03KHGJEAFP@0?44?$AA@			; `string'
PUBLIC	??_C@_0P@BPHNPGDJ@jfsSpoolUpRate?$AA@		; `string'
PUBLIC	?is_signed@?$numeric_limits@F@std@@2_NB		; std::numeric_limits<short>::is_signed
PUBLIC	??_C@_03EJIPIALM@1?42?$AA@			; `string'
PUBLIC	??_C@_0BA@EGBIMHGN@EVA2_HardFactor?$AA@		; `string'
PUBLIC	??_C@_02IHCGGLPM@15?$AA@			; `string'
PUBLIC	??_C@_0BA@DJOOIAFH@jfsSpoolUpLimit?$AA@		; `string'
PUBLIC	?digits@?$numeric_limits@F@std@@2HB		; std::numeric_limits<short>::digits
PUBLIC	??_C@_03BCMHDOBC@0?49?$AA@			; `string'
PUBLIC	??_C@_0BC@KJKEPGBI@TFR_GammaCorrMult?$AA@	; `string'
PUBLIC	??_C@_04FNMPJLCB@0?425?$AA@			; `string'
PUBLIC	?digits10@?$numeric_limits@F@std@@2HB		; std::numeric_limits<short>::digits10
PUBLIC	??_C@_0BB@EJFCDHKA@lightupSpoolRate?$AA@	; `string'
PUBLIC	??_C@_03HLLJOCDO@1?40?$AA@			; `string'
PUBLIC	??_C@_0P@LNAHPDCP@LantirnCameraX?$AA@		; `string'
PUBLIC	??_C@_02PKFBJPLJ@10?$AA@			; `string'
PUBLIC	??_C@_0BC@EOOAIFHM@flameoutSpoolRate?$AA@	; `string'
PUBLIC	??_C@_04LICCDMGM@10?40?$AA@			; `string'
PUBLIC	??_C@_0P@KEBMMCGO@LantirnCameraY?$AA@		; `string'
PUBLIC	??_C@_01BMBHCPLG@5?$AA@				; `string'
PUBLIC	??_C@_0BA@JKCAFAIK@jfsRechargeTime?$AA@		; `string'
PUBLIC	??_C@_0P@IPDBJBKN@LantirnCameraZ?$AA@		; `string'
PUBLIC	??_C@_02PPBOIJDM@60?$AA@			; `string'
PUBLIC	??_C@_0BC@EFCFALDL@jfsMinRechargeRpm?$AA@	; `string'
PUBLIC	??_C@_09NKGPFIFF@MinTGTMAR?$AA@			; `string'
PUBLIC	??_C@_04BAMILDLP@0?412?$AA@			; `string'
PUBLIC	??_C@_0M@PLDHECDF@jfsSpinTime?$AA@		; `string'
PUBLIC	??_C@_0BA@PKBAMLMJ@MaxMARIdedStart?$AA@		; `string'
PUBLIC	??_C@_03HILNGLHG@240?$AA@			; `string'
PUBLIC	??_C@_0N@ONKOFMOJ@AddMARIded5k?$AA@		; `string'
PUBLIC	??_C@_0L@BOINNJLF@mainGenRpm?$AA@		; `string'
PUBLIC	??_C@_0O@LOKKEBFC@AddMARIded18k?$AA@		; `string'
PUBLIC	??_C@_04MJMJEHL@0?463?$AA@			; `string'
PUBLIC	?is_signed@?$numeric_limits@G@std@@2_NB		; std::numeric_limits<unsigned short>::is_signed
PUBLIC	??_C@_0L@NHKBNKDL@stbyGenRpm?$AA@		; `string'
PUBLIC	??_C@_0O@KMBPOOLM@AddMARIded28k?$AA@		; `string'
PUBLIC	?digits@?$numeric_limits@G@std@@2HB		; std::numeric_limits<unsigned short>::digits
PUBLIC	??_C@_03JFFPCCNN@0?46?$AA@			; `string'
PUBLIC	??_C@_0M@FEHMDDOJ@epuBurnTime?$AA@		; `string'
PUBLIC	??_C@_0BA@FCOIDOAL@AddMARIdedSpike?$AA@		; `string'
PUBLIC	?digits10@?$numeric_limits@G@std@@2HB		; std::numeric_limits<unsigned short>::digits10
PUBLIC	??_C@_03PANGFEPN@600?$AA@			; `string'
PUBLIC	??_C@_0BF@ODFMFFPH@DeepStallEngineStall?$AA@	; `string'
PUBLIC	??_C@_0BC@BGDMIBBD@animEngineRPMMult?$AA@	; `string'
PUBLIC	??_C@_01GBGANLPD@0?$AA@				; `string'
PUBLIC	??_C@_0BA@GGHDLECN@animSpoiler1Max?$AA@		; `string'
PUBLIC	??_C@_0BK@PIBAPEKB@engineDamageStopThreshold?$AA@ ; `string'
PUBLIC	??_C@_0BB@LGJJEJBE@animSpoiler1Rate?$AA@	; `string'
PUBLIC	??_C@_02NBHMMMHK@13?$AA@			; `string'
PUBLIC	??_C@_0BP@BNNPMIOP@engineDamageNoRestartThreshold?$AA@ ; `string'
PUBLIC	??_C@_04EHBMEDCO@45?40?$AA@			; `string'
PUBLIC	??_C@_0BL@PPGDIPMM@animSpoiler1OffAtWingSweep?$AA@ ; `string'
PUBLIC	??_C@_02PNFIDHGF@50?$AA@			; `string'
PUBLIC	??_C@_0BJ@CAGNIPEK@engineDamageHitThreshold?$AA@ ; `string'
PUBLIC	??_C@_04DHGCMJMM@70?40?$AA@			; `string'
PUBLIC	??_C@_0BF@EBOAKMDC@animSpoiler1AirBrake?$AA@	; `string'
PUBLIC	??_C@_0N@DFIIMHPH@rollMomentum?$AA@		; `string'
PUBLIC	??_C@_0BA@CBNDMOPN@animSpoiler2Max?$AA@		; `string'
PUBLIC	??_C@_01HIHLOKLC@1?$AA@				; `string'
PUBLIC	??_C@_0O@LFHPEPMA@pitchMomentum?$AA@		; `string'
PUBLIC	??_C@_0BB@DAANDLLK@animSpoiler2Rate?$AA@	; `string'
PUBLIC	?is_signed@?$numeric_limits@H@std@@2_NB		; std::numeric_limits<int>::is_signed
PUBLIC	??_C@_0M@GMHOPBNB@yawMomentum?$AA@		; `string'
PUBLIC	?value@?$_Sizeof@HU_Nil@std@@U12@U12@U12@U12@U12@U12@@std@@2IB ; std::_Sizeof<int,std::_Nil,std::_Nil,std::_Nil,std::_Nil,std::_Nil,std::_Nil,std::_Nil>::value
PUBLIC	??_C@_0BL@NGKLDLDO@animSpoiler2OffAtWingSweep?$AA@ ; `string'
PUBLIC	?digits@?$numeric_limits@H@std@@2HB		; std::numeric_limits<int>::digits
PUBLIC	??_C@_0BA@JBKMIKEN@pitchElasticity?$AA@		; `string'
PUBLIC	??_C@_0BF@KKNHBHDB@animSpoiler2AirBrake?$AA@	; `string'
PUBLIC	?digits10@?$numeric_limits@H@std@@2HB		; std::numeric_limits<int>::digits10
PUBLIC	??_C@_0BA@GDKBHNBP@gearPitchFactor?$AA@		; `string'
PUBLIC	??_C@_0P@FNLOGDCJ@animExhNozIdle?$AA@		; `string'
PUBLIC	??_C@_03NKBOLEBK@0?41?$AA@			; `string'
PUBLIC	??_C@_0N@HNBCOKPJ@rollGearGain?$AA@		; `string'
PUBLIC	??_C@_0O@GMBKLKCJ@animExhNozMil?$AA@		; `string'
PUBLIC	??_C@_0M@CEOENMNP@yawGearGain?$AA@		; `string'
PUBLIC	??_C@_0N@CHEBONCK@animExhNozAB?$AA@		; `string'
PUBLIC	??_C@_0O@PNOFGCMO@pitchGearGain?$AA@		; `string'
PUBLIC	??_C@_0P@GPGFMHEA@animExhNozRate?$AA@		; `string'
PUBLIC	??_C@_03LNMAPFD@0?48?$AA@			; `string'
PUBLIC	??_C@_08CMPNDEFD@sinkRate?$AA@			; `string'
PUBLIC	??_C@_0BB@HIEOGLHC@animStrobeOnTime?$AA@	; `string'
PUBLIC	??_C@_0M@KPLHGFJG@tefMaxAngle?$AA@		; `string'
PUBLIC	??_C@_0BC@EGEJDIA@animStrobeOffTime?$AA@	; `string'
PUBLIC	??_C@_02PIBHCBOA@20?$AA@			; `string'
PUBLIC	??_C@_0BE@CMBBCDAG@animWingFlashOnTime?$AA@	; `string'
PUBLIC	??_C@_0O@BBECKCPK@hasFlapperons?$AA@		; `string'
PUBLIC	?is_signed@?$numeric_limits@I@std@@2_NB		; std::numeric_limits<unsigned int>::is_signed
PUBLIC	??_C@_0BF@FDFIHJON@animWingFlashOffTime?$AA@	; `string'
PUBLIC	??_C@_06JOMEDJPM@hasTef?$AA@			; `string'
PUBLIC	?digits@?$numeric_limits@I@std@@2HB		; std::numeric_limits<unsigned int>::digits
PUBLIC	??_C@_0O@HGEFGCPP@animHookAngle?$AA@		; `string'
PUBLIC	??_C@_01FDFGLJHB@2?$AA@				; `string'
PUBLIC	??_C@_0M@GAGJKOAO@CLtefFactor?$AA@		; `string'
PUBLIC	?digits10@?$numeric_limits@I@std@@2HB		; std::numeric_limits<unsigned int>::digits10
PUBLIC	??_C@_04KACOAHM@60?40?$AA@			; `string'
PUBLIC	??_C@_0N@BEHKKBPD@animHookRate?$AA@		; `string'
PUBLIC	??_C@_04FOELEPEP@0?405?$AA@			; `string'
PUBLIC	??_C@_0M@NKKKEPEL@CDtefFactor?$AA@		; `string'
PUBLIC	??_C@_0BA@DBAFCMAP@animThrRevAngle?$AA@		; `string'
PUBLIC	??_C@_0L@DEAAIGOD@tefNStages?$AA@		; `string'
PUBLIC	??_C@_0P@OGPLCOBN@animThrRevRate?$AA@		; `string'
PUBLIC	??_C@_0L@BBMAHJFH@tefTakeoff?$AA@		; `string'
PUBLIC	??_C@_0BJ@PHCEDKJD@catapultThrustMultiplier?$AA@ ; `string'
PUBLIC	??_C@_07DPNPGDFK@tefRate?$AA@			; `string'
PUBLIC	??_C@_0N@INPHAJJJ@maxLasingAlt?$AA@		; `string'
PUBLIC	??_C@_07JAIBEJME@lefRate?$AA@			; `string'
PUBLIC	??_C@_07BPILOEPA@25000?40?$AA@			; `string'
PUBLIC	??_C@_0BD@BNBKPFBH@hasProgrammableEWS?$AA@	; `string'
PUBLIC	??_C@_06LGJEGIM@hasLef?$AA@			; `string'
PUBLIC	??_C@_0BB@HCDBCALD@dataLinkCapLevel?$AA@	; `string'
PUBLIC	??_C@_09BEMDABCG@lefGround?$AA@			; `string'
PUBLIC	?is_signed@?$numeric_limits@J@std@@2_NB		; std::numeric_limits<long>::is_signed
PUBLIC	??_C@_0BA@DGEKNLDM@animAileronRate?$AA@		; `string'
PUBLIC	??_C@_02NNFLKHCP@?92?$AA@			; `string'
PUBLIC	??_C@_0M@KFKDPOJE@lefMaxAngle?$AA@		; `string'
PUBLIC	?digits@?$numeric_limits@J@std@@2HB		; std::numeric_limits<long>::digits
PUBLIC	??_C@_0BE@DFGIJHMP@animSwingWingStages?$AA@	; `string'
PUBLIC	??_C@_0L@GKGFPKHP@lefMaxMach?$AA@		; `string'
PUBLIC	?digits10@?$numeric_limits@J@std@@2HB		; std::numeric_limits<long>::digits10
PUBLIC	??_C@_0BD@PKGNHJFB@animSwingWingMach1?$AA@	; `string'
PUBLIC	??_C@_0L@CADFKDGN@lefNStages?$AA@		; `string'
PUBLIC	??_C@_0BD@NBEACKJC@animSwingWingMach2?$AA@	; `string'
PUBLIC	??_C@_0M@OONDIOFH@CDlefFactor?$AA@		; `string'
PUBLIC	??_C@_0BD@MIFLBLND@animSwingWingMach3?$AA@	; `string'
PUBLIC	??_C@_03MDAFIFFL@0?40?$AA@			; `string'
PUBLIC	??_C@_0N@PDBJFDOC@CDSPDBFactor?$AA@		; `string'
PUBLIC	??_C@_0BD@IHBKINBE@animSwingWingMach4?$AA@	; `string'
PUBLIC	??_C@_04OLOFDBAC@0?408?$AA@			; `string'
PUBLIC	??_C@_0M@BNIHJKP@CDLDGFactor?$AA@		; `string'
PUBLIC	??_C@_0BD@JOABLMFF@animSwingWingMach5?$AA@	; `string'
PUBLIC	??_C@_04HFGGBMIM@0?406?$AA@			; `string'
PUBLIC	??_C@_0BD@LFCMOPJG@animSwingWingMach6?$AA@	; `string'
PUBLIC	??_C@_0BB@DHHKEFDE@flapGearRelative?$AA@	; `string'
PUBLIC	??_C@_0BD@KMDHNONH@animSwingWingMach7?$AA@	; `string'
PUBLIC	??_C@_0M@JJPLLEKP@maxFlapVcas?$AA@		; `string'
PUBLIC	??_C@_0BD@CLKPMCBI@animSwingWingMach8?$AA@	; `string'
PUBLIC	??_C@_03MCEHLCEK@370?$AA@			; `string'
PUBLIC	?is_signed@?$numeric_limits@K@std@@2_NB		; std::numeric_limits<unsigned long>::is_signed
PUBLIC	??_C@_0O@PIBNEHBN@flapVcasRange?$AA@		; `string'
PUBLIC	??_C@_0BD@DCLEPDFJ@animSwingWingMach9?$AA@	; `string'
PUBLIC	?digits@?$numeric_limits@K@std@@2HB		; std::numeric_limits<unsigned long>::digits
PUBLIC	??_C@_03GPEHNCBN@130?$AA@			; `string'
PUBLIC	??_C@_09KGJKKOAF@area2Span?$AA@			; `string'
PUBLIC	??_C@_0BE@MDNADKOI@animSwingWingMach10?$AA@	; `string'
PUBLIC	?digits10@?$numeric_limits@K@std@@2HB		; std::numeric_limits<unsigned long>::digits10
PUBLIC	??_C@_06DCMGIAFF@0?41066?$AA@			; `string'
PUBLIC	??_C@_0P@CPLAGKKN@rudderMaxAngle?$AA@		; `string'
PUBLIC	??_C@_0BE@PNGKGEPD@animSwingWingAngle1?$AA@	; `string'
PUBLIC	??_C@_0BA@DAANGMOP@aileronMaxAngle?$AA@		; `string'
PUBLIC	??_C@_0BE@NGEHDHDA@animSwingWingAngle2?$AA@	; `string'
PUBLIC	??_C@_0P@NKLPKKNA@elevonMaxAngle?$AA@		; `string'
PUBLIC	??_C@_0BE@MPFMAGHB@animSwingWingAngle3?$AA@	; `string'
PUBLIC	??_C@_0BB@DJMPKOMP@airbrakeMaxAngle?$AA@	; `string'
PUBLIC	??_C@_0BE@IABNJALG@animSwingWingAngle4?$AA@	; `string'
PUBLIC	??_C@_0N@BDJJDEFO@hasSwingWing?$AA@		; `string'
PUBLIC	??_C@_0BE@JJAGKBPH@animSwingWingAngle5?$AA@	; `string'
PUBLIC	??_C@_09LHPHPAOE@isComplex?$AA@			; `string'
PUBLIC	??_C@_0BE@LCCLPCDE@animSwingWingAngle6?$AA@	; `string'
PUBLIC	??_C@_0L@IGFNJGHF@landingAOA?$AA@		; `string'
PUBLIC	??_C@_0BE@KLDAMDHF@animSwingWingAngle7?$AA@	; `string'
PUBLIC	?is_signed@?$numeric_limits@_J@std@@2_NB	; std::numeric_limits<__int64>::is_signed
PUBLIC	??_C@_04GPFMAAKC@12?45?$AA@			; `string'
PUBLIC	??_C@_0BE@CMKINPLK@animSwingWingAngle8?$AA@	; `string'
PUBLIC	??_C@_0M@DIFEIBAM@dragChuteCd?$AA@		; `string'
PUBLIC	?digits@?$numeric_limits@_J@std@@2HB		; std::numeric_limits<__int64>::digits
PUBLIC	??_C@_0BE@DFLDOOPL@animSwingWingAngle9?$AA@	; `string'
PUBLIC	??_C@_0BC@PKELAEPB@dragChuteMaxSpeed?$AA@	; `string'
PUBLIC	?digits10@?$numeric_limits@_J@std@@2HB		; std::numeric_limits<__int64>::digits10
PUBLIC	??_C@_0BF@PLAPPPDB@animSwingWingAngle10?$AA@	; `string'
PUBLIC	??_C@_03GIEOHKMB@170?$AA@			; `string'
PUBLIC	??_C@_0L@KAMCINHG@rollCouple?$AA@		; `string'
PUBLIC	??_C@_0BC@HNONPJMP@animSwingWingRate?$AA@	; `string'
PUBLIC	??_C@_0N@OFNOMJEG@elevatorRoll?$AA@		; `string'
PUBLIC	??_C@_0BB@NDMIICHD@animWheelRadius1?$AA@	; `string'
PUBLIC	??_C@_0P@MBLLMMCL@canopyMaxAngle?$AA@		; `string'
PUBLIC	??_C@_0BB@PIOFNBLA@animWheelRadius2?$AA@	; `string'
PUBLIC	??_C@_0L@LEHPOGME@canopyRate?$AA@		; `string'
PUBLIC	??_C@_0BB@OBPOOAPB@animWheelRadius3?$AA@	; `string'
PUBLIC	??_C@_0BF@EOKHKABM@fuelFlowFactorNormal?$AA@	; `string'
PUBLIC	??_C@_0BB@KOLPHGDG@animWheelRadius4?$AA@	; `string'
PUBLIC	??_C@_0BB@BAAFFDJJ@fuelFlowFactorAb?$AA@	; `string'
PUBLIC	??_C@_0BB@LHKEEHHH@animWheelRadius5?$AA@	; `string'
PUBLIC	??_C@_04FKMGDDPN@0?465?$AA@			; `string'
PUBLIC	??_C@_0M@LMFGAHGM@minFuelFlow?$AA@		; `string'
PUBLIC	??_C@_0BB@JMIJBELE@animWheelRadius6?$AA@	; `string'
PUBLIC	?is_signed@?$numeric_limits@_K@std@@2_NB	; std::numeric_limits<unsigned __int64>::is_signed
PUBLIC	??_C@_04EJDHKJN@1200?$AA@			; `string'
PUBLIC	??_C@_0L@NLINGFML@fuelFwdRes?$AA@		; `string'
PUBLIC	??_C@_0BB@IFJCCFPF@animWheelRadius7?$AA@	; `string'
PUBLIC	?digits@?$numeric_limits@_K@std@@2HB		; std::numeric_limits<unsigned __int64>::digits
PUBLIC	??_C@_0L@LGEABNPJ@fuelAftRes?$AA@		; `string'
PUBLIC	??_C@_0BB@CAKDJDK@animWheelRadius8?$AA@		; `string'
PUBLIC	?digits10@?$numeric_limits@_K@std@@2HB		; std::numeric_limits<unsigned __int64>::digits10
PUBLIC	??_C@_08NMFPHBGK@fuelFwd1?$AA@			; `string'
PUBLIC	??_C@_0BA@BONHMJJA@animRefuelAngle?$AA@		; `string'
PUBLIC	??_C@_08JKPMDOPA@fuelAft1?$AA@			; `string'
PUBLIC	??_C@_0P@FLGCDGCB@animRefuelRate?$AA@		; `string'
PUBLIC	??_C@_0L@FMKDGBMK@fuelWingAl?$AA@		; `string'
PUBLIC	??_C@_02JAFMIPLB@?45?$AA@			; `string'
PUBLIC	??_C@_0BE@LOHOPKAP@fuelGaugeMultiplier?$AA@	; `string'
PUBLIC	??_C@_0L@INKNEIJA@fuelWingFr?$AA@		; `string'
PUBLIC	??_C@_0BB@OCEHNGDA@animGearMaxComp1?$AA@	; `string'
PUBLIC	??_C@_0P@PKEHNODF@fuelFwdResRate?$AA@		; `string'
PUBLIC	??_C@_0BB@MJGKIFPD@animGearMaxComp2?$AA@	; `string'
PUBLIC	??_C@_0P@LHNAGDBB@fuelAftResRate?$AA@		; `string'
PUBLIC	??_C@_0BB@NAHBLELC@animGearMaxComp3?$AA@	; `string'
PUBLIC	??_C@_0N@DJNFJJMH@fuelFwd1Rate?$AA@		; `string'
PUBLIC	??_C@_0BB@JPDACCHF@animGearMaxComp4?$AA@	; `string'
PUBLIC	?digits@?$numeric_limits@M@std@@2HB		; std::numeric_limits<float>::digits
PUBLIC	??_C@_0N@IKHLFJHF@fuelAft1Rate?$AA@		; `string'
PUBLIC	??_C@_0BB@IGCLBDDE@animGearMaxComp5?$AA@	; `string'
PUBLIC	?digits10@?$numeric_limits@M@std@@2HB		; std::numeric_limits<float>::digits10
PUBLIC	??_C@_0P@DNCJAOCD@fuelWingAlRate?$AA@		; `string'
PUBLIC	?max_digits10@?$numeric_limits@M@std@@2HB	; std::numeric_limits<float>::max_digits10
PUBLIC	??_C@_0BB@KNAGEAPH@animGearMaxComp6?$AA@	; `string'
PUBLIC	??_C@_0P@MBFCFDEG@fuelWingFrRate?$AA@		; `string'
PUBLIC	?max_exponent@?$numeric_limits@M@std@@2HB	; std::numeric_limits<float>::max_exponent
PUBLIC	??_C@_0BB@LEBNHBLG@animGearMaxComp7?$AA@	; `string'
PUBLIC	??_C@_0O@BOEKBNKG@fuelClineRate?$AA@		; `string'
PUBLIC	?max_exponent10@?$numeric_limits@M@std@@2HB	; std::numeric_limits<float>::max_exponent10
PUBLIC	??_C@_0BB@DDIFGNHJ@animGearMaxComp8?$AA@	; `string'
PUBLIC	??_C@_0BA@OAFMDLCO@fuelWingExtRate?$AA@		; `string'
PUBLIC	?min_exponent@?$numeric_limits@M@std@@2HB	; std::numeric_limits<float>::min_exponent
PUBLIC	??_C@_0BA@BGGJFIMO@animGearMaxExt1?$AA@		; `string'
PUBLIC	??_C@_0L@GPLMHJDL@fuelMinFwd?$AA@		; `string'
PUBLIC	?min_exponent10@?$numeric_limits@M@std@@2HB	; std::numeric_limits<float>::min_exponent10
PUBLIC	??_C@_0BA@DNEEALAN@animGearMaxExt2?$AA@		; `string'
PUBLIC	??_C@_03FKNPJMHG@400?$AA@			; `string'
PUBLIC	??_C@_0L@KFENJKJE@fuelMinAft?$AA@		; `string'
PUBLIC	??_C@_0BA@CEFPDKEM@animGearMaxExt3?$AA@		; `string'
PUBLIC	??_C@_03HJHPABEB@250?$AA@			; `string'
PUBLIC	??_C@_0BA@GLBOKMIL@animGearMaxExt4?$AA@		; `string'
PUBLIC	??_C@_06GFPDLIKC@nChaff?$AA@			; `string'
PUBLIC	??_C@_0BA@HCAFJNMK@animGearMaxExt5?$AA@		; `string'
PUBLIC	??_C@_06PALMNHLO@nFlare?$AA@			; `string'
PUBLIC	??_C@_0BA@FJCIMOAJ@animGearMaxExt6?$AA@		; `string'
PUBLIC	??_C@_02PJNFELNH@30?$AA@			; `string'
PUBLIC	??_C@_0M@CCKJIKFE@gunLocation?$AA@		; `string'
PUBLIC	??_C@_0BA@EADDPPEI@animGearMaxExt7?$AA@		; `string'
PUBLIC	??_C@_06NOLLDKEA@2?5?92?50?$AA@			; `string'
PUBLIC	??_C@_0L@OOJFIEK@gunTrailID?$AA@		; `string'
PUBLIC	??_C@_0BA@MHKLODIH@animGearMaxExt8?$AA@		; `string'
PUBLIC	??_C@_02ODEKKOPI@11?$AA@			; `string'
PUBLIC	??_C@_08CHIHMDEG@nEngines?$AA@			; `string'
PUBLIC	?value@?$integral_constant@I$0A@@std@@2IB	; std::integral_constant<unsigned int,0>::value
PUBLIC	??_C@_0P@HNEFKLNN@sndExternalVol?$AA@		; `string'
PUBLIC	?digits@?$numeric_limits@N@std@@2HB		; std::numeric_limits<double>::digits
PUBLIC	??_C@_0BA@ECKENMKJ@engine1Location?$AA@		; `string'
PUBLIC	??_C@_07HPLHPJPJ@?92000?40?$AA@			; `string'
PUBLIC	?digits10@?$numeric_limits@N@std@@2HB		; std::numeric_limits<double>::digits10
PUBLIC	??_C@_06OFJBIPP@sndInt?$AA@			; `string'
PUBLIC	??_C@_05JMKGPOEH@0?50?50?$AA@			; `string'
PUBLIC	?max_digits10@?$numeric_limits@N@std@@2HB	; std::numeric_limits<double>::max_digits10
PUBLIC	??_C@_0BA@KJJDGHKK@engine2Location?$AA@		; `string'
PUBLIC	??_C@_0M@BNBFFEKJ@sndIntChart?$AA@		; `string'
PUBLIC	?max_exponent@?$numeric_limits@N@std@@2HB	; std::numeric_limits<double>::max_exponent
PUBLIC	??_C@_0BA@EGFBAMJE@engine3Location?$AA@		; `string'
PUBLIC	??_C@_06KENBBNKG@1?5?50?51?$AA@			; `string'
PUBLIC	??_C@_0O@LFJKKEFE@sndAbIntChart?$AA@		; `string'
PUBLIC	?max_exponent10@?$numeric_limits@N@std@@2HB	; std::numeric_limits<double>::max_exponent10
PUBLIC	??_C@_0BA@KEINBHON@engine4Location?$AA@		; `string'
PUBLIC	??_C@_0M@LKDHOOHO@2?5?50?50?5?51?51?$AA@	; `string'
PUBLIC	??_C@_0N@IIABHKDC@sndInt2Chart?$AA@		; `string'
PUBLIC	?min_exponent@?$numeric_limits@N@std@@2HB	; std::numeric_limits<double>::min_exponent
PUBLIC	??_C@_0BA@ELEPHMND@engine5Location?$AA@		; `string'
PUBLIC	??_C@_0BF@CHCDBLCO@3?5?50?50?5?51?51?5?51?4035?51?$AA@ ; `string'
PUBLIC	?min_exponent10@?$numeric_limits@N@std@@2HB	; std::numeric_limits<double>::min_exponent10
PUBLIC	??_C@_0M@EBPFJPBB@sndExtChart?$AA@		; `string'
PUBLIC	??_C@_0BA@KAHIMHNA@engine6Location?$AA@		; `string'
PUBLIC	??_C@_0O@OJHKGPOM@sndAbExtChart?$AA@		; `string'
PUBLIC	??_C@_0BA@EPLKKMOO@engine7Location?$AA@		; `string'
PUBLIC	??_C@_0N@ENOHKBEH@sndExt2Chart?$AA@		; `string'
PUBLIC	??_C@_0BA@LOLBPHGD@engine8Location?$AA@		; `string'
PUBLIC	??_C@_0BB@ENAFLFLE@sndIntPitchChart?$AA@	; `string'
PUBLIC	??_C@_0N@GBJPGLAA@engineSmokes?$AA@		; `string'
PUBLIC	??_C@_0BA@NOAFKBNG@2?50?50?51?403?51?447?$AA@	; `string'
PUBLIC	??_C@_0BA@GJOOBLIC@wingTipLocation?$AA@		; `string'
PUBLIC	??_C@_0BD@PHHAFNKD@sndAbIntPitchChart?$AA@	; `string'
PUBLIC	??_C@_0BA@DBHKDEEK@vortex1Location?$AA@		; `string'
PUBLIC	??_C@_0BC@LMCHAOEL@sndInt2PitchChart?$AA@	; `string'
PUBLIC	??_C@_0BA@NKENIPEJ@vortex2Location?$AA@		; `string'
PUBLIC	??_C@_0BB@HDBCFNJO@sndExtPitchChart?$AA@	; `string'
PUBLIC	??_C@_0BC@DGPMOPKC@vortexPS1Location?$AA@	; `string'
PUBLIC	??_C@_0BD@MJGHLFIJ@sndAbExtPitchChart?$AA@	; `string'
PUBLIC	?digits@?$numeric_limits@O@std@@2HB		; std::numeric_limits<long double>::digits
PUBLIC	??_C@_0BC@NNMLFEKB@vortexPS2Location?$AA@	; `string'
PUBLIC	?digits10@?$numeric_limits@O@std@@2HB		; std::numeric_limits<long double>::digits10
PUBLIC	??_C@_0BC@GHKCNAHF@sndExt2PitchChart?$AA@	; `string'
PUBLIC	?max_digits10@?$numeric_limits@O@std@@2HB	; std::numeric_limits<long double>::max_digits10
PUBLIC	??_C@_0BC@DCAJDPJP@vortexPS3Location?$AA@	; `string'
PUBLIC	??_C@_07MAHMOCOE@sndInt2?$AA@			; `string'
PUBLIC	?max_exponent@?$numeric_limits@O@std@@2HB	; std::numeric_limits<long double>::max_exponent
PUBLIC	??_C@_0M@BNIPFJKF@largeVortex?$AA@		; `string'
PUBLIC	??_C@_07HAPOAHKG@sndExt2?$AA@			; `string'
PUBLIC	?max_exponent10@?$numeric_limits@O@std@@2HB	; std::numeric_limits<long double>::max_exponent10
PUBLIC	??_C@_0P@BNLDEAKL@vortexAOALimit?$AA@		; `string'
PUBLIC	??_C@_08LLHGAMHC@sndAero1?$AA@			; `string'
PUBLIC	?min_exponent@?$numeric_limits@O@std@@2HB	; std::numeric_limits<long double>::min_exponent
PUBLIC	??_C@_04PPPNPNHD@29?45?$AA@			; `string'
PUBLIC	??_C@_08JAFLFPLB@sndAero2?$AA@			; `string'
PUBLIC	??_C@_0P@MMDNKHLD@refuelLocation?$AA@		; `string'
PUBLIC	?min_exponent10@?$numeric_limits@O@std@@2HB	; std::numeric_limits<long double>::min_exponent10
PUBLIC	??_C@_08IJEAGOPA@sndAero3?$AA@			; `string'
PUBLIC	??_C@_0O@HJBMNCEF@hardpoint1Grp?$AA@		; `string'
PUBLIC	??_C@_08MGABPIDH@sndAero4?$AA@			; `string'
PUBLIC	??_C@_02PGHGPEOM@?91?$AA@			; `string'
PUBLIC	??_C@_0O@DOLMKIJF@hardpoint2Grp?$AA@		; `string'
PUBLIC	??_C@_0BB@PHKDEGGM@sndAero1AOAChart?$AA@	; `string'
PUBLIC	??_C@_0O@DNMIBCF@hardpoint3Grp?$AA@		; `string'
PUBLIC	??_C@_05FHPKCNOC@1?50?50?$AA@			; `string'
PUBLIC	??_C@_0BB@BMJEPNGP@sndAero2AOAChart?$AA@	; `string'
PUBLIC	??_C@_0O@LBPMFNDF@hardpoint4Grp?$AA@		; `string'
PUBLIC	??_C@_0BB@PDFGJGFB@sndAero3AOAChart?$AA@	; `string'
PUBLIC	??_C@_0O@IMJMHEIF@hardpoint5Grp?$AA@		; `string'
PUBLIC	??_C@_0BB@BBIKINCI@sndAero4AOAChart?$AA@	; `string'
PUBLIC	??_C@_0O@MLDMAOFF@hardpoint6Grp?$AA@		; `string'
PUBLIC	??_C@_0BD@FOEMNGH@sndAero1SpeedChart?$AA@	; `string'
PUBLIC	??_C@_0O@PGFMCHOF@hardpoint7Grp?$AA@		; `string'
PUBLIC	??_C@_0BD@HCHKBPJH@sndAero2SpeedChart?$AA@	; `string'
PUBLIC	??_C@_0O@HEAMLADE@hardpoint8Grp?$AA@		; `string'
PUBLIC	??_C@_0BD@OJNPFDPI@sndAero3SpeedChart?$AA@	; `string'
PUBLIC	??_C@_0O@EJGMJJIE@hardpoint9Grp?$AA@		; `string'
PUBLIC	??_C@_0BD@JNEHLKHH@sndAero4SpeedChart?$AA@	; `string'
PUBLIC	??_C@_0P@KGHDDABJ@hardpoint10Grp?$AA@		; `string'
PUBLIC	??_C@_09MBLFJEDF@FlarePos1?$AA@			; `string'
PUBLIC	??_C@_0P@JLBDBJKJ@hardpoint11Grp?$AA@		; `string'
PUBLIC	??_C@_09DNGOCCIB@FlareVec1?$AA@			; `string'
PUBLIC	??_C@_0P@NMLDGDHJ@hardpoint12Grp?$AA@		; `string'
PUBLIC	??_C@_07LEBJIBJH@0?50?5200?$AA@			; `string'
PUBLIC	??_C@_0P@OBNDEKMJ@hardpoint13Grp?$AA@		; `string'
PUBLIC	??_C@_0M@IKOOPPGH@FlareCount1?$AA@		; `string'
PUBLIC	??_C@_0P@FDPDJGNJ@hardpoint14Grp?$AA@		; `string'
PUBLIC	??_C@_09OKJIMHPG@FlarePos2?$AA@			; `string'
PUBLIC	??_C@_0P@GOJDLPGJ@hardpoint15Grp?$AA@		; `string'
PUBLIC	??_C@_09BGEDHBEC@FlareVec2?$AA@			; `string'
PUBLIC	??_C@_0P@CJDDMFLJ@hardpoint16Grp?$AA@		; `string'
PUBLIC	??_C@_0M@KBMDKMKE@FlareCount2?$AA@		; `string'
PUBLIC	??_C@_0BB@DHOGOPLA@hp1SwitchDofRate?$AA@	; `string'
PUBLIC	??_C@_09PDIDPGLH@FlarePos3?$AA@			; `string'
PUBLIC	??_C@_07GHNLPIKD@?91?5?91?50?$AA@		; `string'
PUBLIC	??_C@_09PFIEAAD@FlareVec3?$AA@			; `string'
PUBLIC	??_C@_0BB@CGJLIFMJ@hp2SwitchDofRate?$AA@	; `string'
PUBLIC	??_C@_0M@LINIJNOF@FlareCount3?$AA@		; `string'
PUBLIC	??_C@_0BB@JPGAFOCB@hp3SwitchDofRate?$AA@	; `string'
PUBLIC	??_C@_09LMMCGAHA@FlarePos4?$AA@			; `string'
PUBLIC	??_C@_0BB@EGBFBDL@hp4SwitchDofRate?$AA@		; `string'
PUBLIC	??_C@_09EABJNGME@FlareVec4?$AA@			; `string'
PUBLIC	??_C@_0BB@LNJKIKND@hp5SwitchDofRate?$AA@	; `string'
PUBLIC	??_C@_07HBOJGMJG@0?50?0200?$AA@			; `string'
PUBLIC	??_C@_0BB@KMOHOAKK@hp6SwitchDofRate?$AA@	; `string'
PUBLIC	??_C@_0M@PHJJALCC@FlareCount4?$AA@		; `string'
PUBLIC	??_C@_0BB@BFBMDLEC@hp7SwitchDofRate?$AA@	; `string'
PUBLIC	??_C@_09KFNJFBDB@FlarePos5?$AA@			; `string'
PUBLIC	??_C@_0BB@EBJEPINP@hp8SwitchDofRate?$AA@	; `string'
PUBLIC	??_C@_09FJACOHIF@FlareVec5?$AA@			; `string'
PUBLIC	??_C@_0BB@PIGPCDDH@hp9SwitchDofRate?$AA@	; `string'
PUBLIC	??_C@_0M@OOICDKGD@FlareCount5?$AA@		; `string'
PUBLIC	??_C@_0BC@KBCENNHM@hp10SwitchDofRate?$AA@	; `string'
PUBLIC	??_C@_09IOPEACPC@FlarePos6?$AA@			; `string'
PUBLIC	??_C@_0BC@BINPAGJE@hp11SwitchDofRate?$AA@	; `string'
PUBLIC	??_C@_09HCCPLEEG@FlareVec6?$AA@			; `string'
PUBLIC	??_C@_0BC@JKCGMON@hp12SwitchDofRate?$AA@	; `string'
PUBLIC	??_C@_0M@MFKPGJKA@FlareCount6?$AA@		; `string'
PUBLIC	??_C@_0BC@LAFJLHAF@hp13SwitchDofRate?$AA@	; `string'
PUBLIC	??_C@_09JHOPDDLD@FlarePos7?$AA@			; `string'
PUBLIC	??_C@_0BC@CLFILIBP@hp14SwitchDofRate?$AA@	; `string'
PUBLIC	??_C@_09GLDEIFAH@FlareVec7?$AA@			; `string'
PUBLIC	??_C@_0BC@JCKDGDPH@hp15SwitchDofRate?$AA@	; `string'
PUBLIC	??_C@_0M@NMLEFIOB@FlareCount7?$AA@		; `string'
PUBLIC	??_C@_0BC@IDNOAJIO@hp16SwitchDofRate?$AA@	; `string'
PUBLIC	??_C@_09BAHHCPHM@FlarePos8?$AA@			; `string'
PUBLIC	?value@?$_Sizeof@U_Nil@std@@U12@U12@U12@U12@U12@U12@U12@@std@@2IB ; std::_Sizeof<std::_Nil,std::_Nil,std::_Nil,std::_Nil,std::_Nil,std::_Nil,std::_Nil,std::_Nil>::value
PUBLIC	??_C@_0BB@FBCMCGNM@gunSwitchDofRate?$AA@	; `string'
PUBLIC	??_C@_09OMKMJJMI@FlareVec8?$AA@			; `string'
PUBLIC	??_C@_06FMCEHIIF@sndExt?$AA@			; `string'
PUBLIC	??_C@_0M@FLCMEECO@FlareCount8?$AA@		; `string'
PUBLIC	??_C@_02IEKCLPJC@35?$AA@			; `string'
PUBLIC	??_C@_09JGMBODN@FlarePos9?$AA@			; `string'
PUBLIC	??_C@_07HPCLCPMK@sndWind?$AA@			; `string'
PUBLIC	??_C@_09PFLHKIIJ@FlareVec9?$AA@			; `string'
PUBLIC	??_C@_02NCPIBIBE@33?$AA@			; `string'
PUBLIC	??_C@_08KCLAHOLF@sndAbInt?$AA@			; `string'
PUBLIC	??_C@_0M@ECDHHFGP@FlareCount9?$AA@		; `string'
PUBLIC	??_C@_02PMJKFNFC@40?$AA@			; `string'
PUBLIC	??_C@_08PAMNBOMP@sndAbExt?$AA@			; `string'
PUBLIC	??_C@_0L@IJDEEHEE@FlarePos10?$AA@		; `string'
PUBLIC	??_C@_02CIBHPAJO@39?$AA@			; `string'
PUBLIC	??_C@_08OLGNPELH@sndEject?$AA@			; `string'
PUBLIC	??_C@_0L@EFMEOLGH@FlareVec10?$AA@		; `string'
PUBLIC	??_C@_0BB@GAAOBGJD@sndSpdBrakeStart?$AA@	; `string'
PUBLIC	??_C@_0N@MBKCMPH@FlareCount10?$AA@		; `string'
PUBLIC	??_C@_03HDBDPFNJ@141?$AA@			; `string'
PUBLIC	??_C@_08KIEDNGLO@FlareSeq?$AA@			; `string'
PUBLIC	??_C@_0BA@LEPAGMPP@sndSpdBrakeLoop?$AA@		; `string'
PUBLIC	??_C@_0BA@DGGLFGCB@FlareDispensers?$AA@		; `string'
PUBLIC	??_C@_03GKAIMEJI@140?$AA@			; `string'
PUBLIC	??_C@_0P@DEOJEFLG@sndSpdBrakeEnd?$AA@		; `string'
PUBLIC	??_C@_09GPHFMEAO@ChaffPos1?$AA@			; `string'
PUBLIC	??_C@_03LOIFGJFE@139?$AA@			; `string'
PUBLIC	??_C@_0BA@KJMHCINC@sndSpdBrakeWind?$AA@		; `string'
PUBLIC	??_C@_09JDKOHCLK@ChaffVec1?$AA@			; `string'
PUBLIC	??_C@_03FIDOKGBK@142?$AA@			; `string'
PUBLIC	??_C@_0O@OMNLLOGG@sndOverSpeed1?$AA@		; `string'
PUBLIC	??_C@_0M@NNDHOPGL@ChaffCount1?$AA@		; `string'
PUBLIC	??_C@_03HLMLGGIK@191?$AA@			; `string'
PUBLIC	??_C@_09EEFIJHMN@ChaffPos2?$AA@			; `string'
PUBLIC	??_C@_0O@MHPGONKF@sndOverSpeed2?$AA@		; `string'
PUBLIC	??_C@_09LIIDCBHJ@ChaffVec2?$AA@			; `string'
PUBLIC	??_C@_03FAOGDFEJ@192?$AA@			; `string'
PUBLIC	??_C@_0M@JBGOBJNO@sndGunStart?$AA@		; `string'
PUBLIC	??_C@_0M@PGBKLMKI@ChaffCount2?$AA@		; `string'
PUBLIC	??_C@_02IFGANFKF@25?$AA@			; `string'
PUBLIC	??_C@_0L@BNGDCO@sndGunLoop?$AA@			; `string'
PUBLIC	??_C@_09FNEDKGIM@ChaffPos3?$AA@			; `string'
PUBLIC	??_C@_02KOENIGGG@26?$AA@			; `string'
PUBLIC	??_C@_09NCFIKDEK@sndGunEnd?$AA@			; `string'
PUBLIC	??_C@_09KBJIBADI@ChaffVec3?$AA@			; `string'
PUBLIC	??_C@_02LHFGLHCH@27?$AA@			; `string'
PUBLIC	??_C@_0M@OPABINOJ@ChaffCount3?$AA@		; `string'
PUBLIC	??_C@_0M@LOIBOJMO@sndBBPullup?$AA@		; `string'
PUBLIC	??_C@_09BCACDAEL@ChaffPos4?$AA@			; `string'
PUBLIC	??_C@_02DHMHADDE@68?$AA@			; `string'
PUBLIC	??_C@_0L@CHIDKLOM@sndBBBingo?$AA@		; `string'
PUBLIC	??_C@_09OONJIGPP@ChaffVec4?$AA@			; `string'
PUBLIC	??_C@_02KJEECOLK@66?$AA@			; `string'
PUBLIC	??_C@_0N@IAOBHECM@sndBBWarning?$AA@		; `string'
PUBLIC	??_C@_0M@KAEABLCO@ChaffCount4?$AA@		; `string'
PUBLIC	??_C@_02NEDDNKPP@63?$AA@			; `string'
PUBLIC	??_C@_0N@JPEFCFBI@sndBBCaution?$AA@		; `string'
PUBLIC	?has_denorm@_Num_base@std@@2W4float_denorm_style@2@B ; std::_Num_base::has_denorm
PUBLIC	??_C@_09LBJABAK@ChaffPos5?$AA@			; `string'
PUBLIC	?has_denorm_loss@_Num_base@std@@2_NB		; std::_Num_base::has_denorm_loss
PUBLIC	??_C@_02JLHCEMDI@64?$AA@			; `string'
PUBLIC	??_C@_09PHMCLHLO@ChaffVec5?$AA@			; `string'
PUBLIC	??_C@_0BD@JHICCJCG@sndBBChaffFlareLow?$AA@	; `string'
PUBLIC	?has_infinity@_Num_base@std@@2_NB		; std::_Num_base::has_infinity
PUBLIC	??_C@_0M@LJFLCKGP@ChaffCount5?$AA@		; `string'
PUBLIC	??_C@_03HHOPIPI@184?$AA@			; `string'
PUBLIC	?has_quiet_NaN@_Num_base@std@@2_NB		; std::_Num_base::has_quiet_NaN
PUBLIC	??_C@_0L@MMJDPPMN@sndBBFlare?$AA@		; `string'
PUBLIC	?has_signaling_NaN@_Num_base@std@@2_NB		; std::_Num_base::has_signaling_NaN
PUBLIC	??_C@_09CADEFCMJ@ChaffPos6?$AA@			; `string'
PUBLIC	??_C@_03KHJOFIBF@138?$AA@			; `string'
PUBLIC	??_C@_0BA@KPJJFNID@sndBBChaffFlare?$AA@		; `string'
PUBLIC	?is_bounded@_Num_base@std@@2_NB			; std::_Num_base::is_bounded
PUBLIC	??_C@_09NMOPOEHN@ChaffVec6?$AA@			; `string'
PUBLIC	?is_exact@_Num_base@std@@2_NB			; std::_Num_base::is_exact
PUBLIC	??_C@_03EIDPGODP@183?$AA@			; `string'
PUBLIC	??_C@_0BD@LPKLPDKN@sndBBChaffFlareOut?$AA@	; `string'
PUBLIC	??_C@_0M@JCHGHJKM@ChaffCount6?$AA@		; `string'
PUBLIC	?is_iec559@_Num_base@std@@2_NB			; std::_Num_base::is_iec559
PUBLIC	??_C@_03BOGFMJLJ@185?$AA@			; `string'
PUBLIC	?is_integer@_Num_base@std@@2_NB			; std::_Num_base::is_integer
PUBLIC	??_C@_09DJCPGDII@ChaffPos7?$AA@			; `string'
PUBLIC	??_C@_0O@NPGAECJ@sndBBAltitude?$AA@		; `string'
PUBLIC	?is_modulo@_Num_base@std@@2_NB			; std::_Num_base::is_modulo
PUBLIC	??_C@_09MFPENFDM@ChaffVec7?$AA@			; `string'
PUBLIC	??_C@_02ICGJHNHJ@65?$AA@			; `string'
PUBLIC	??_C@_09GCNBAHFK@sndBBLock?$AA@			; `string'
PUBLIC	?is_signed@_Num_base@std@@2_NB			; std::_Num_base::is_signed
PUBLIC	??_C@_0M@ILGNEION@ChaffCount7?$AA@		; `string'
PUBLIC	?is_specialized@_Num_base@std@@2_NB		; std::_Num_base::is_specialized
PUBLIC	??_C@_02LAFPBPPL@67?$AA@			; `string'
PUBLIC	??_C@_0N@DLEBPOEH@sndTouchDown?$AA@		; `string'
PUBLIC	?tinyness_before@_Num_base@std@@2_NB		; std::_Num_base::tinyness_before
PUBLIC	??_C@_09LOLHHPEH@ChaffPos8?$AA@			; `string'
_BSS	SEGMENT
?num_sets@@3HA DD 01H DUP (?)				; num_sets
?aeroDataset@@3PAVAeroDataSet@@A DD 01H DUP (?)		; aeroDataset
_BSS	ENDS
;	COMDAT ??_C@_09LOLHHPEH@ChaffPos8?$AA@
CONST	SEGMENT
??_C@_09LOLHHPEH@ChaffPos8?$AA@ DB 'ChaffPos8', 00H	; `string'
CONST	ENDS
;	COMDAT ?tinyness_before@_Num_base@std@@2_NB
CONST	SEGMENT
?tinyness_before@_Num_base@std@@2_NB DB 00H		; std::_Num_base::tinyness_before
CONST	ENDS
;	COMDAT ??_C@_0N@DLEBPOEH@sndTouchDown?$AA@
CONST	SEGMENT
??_C@_0N@DLEBPOEH@sndTouchDown?$AA@ DB 'sndTouchDown', 00H ; `string'
CONST	ENDS
;	COMDAT ??_C@_02LAFPBPPL@67?$AA@
CONST	SEGMENT
??_C@_02LAFPBPPL@67?$AA@ DB '67', 00H			; `string'
CONST	ENDS
;	COMDAT ?is_specialized@_Num_base@std@@2_NB
CONST	SEGMENT
?is_specialized@_Num_base@std@@2_NB DB 00H		; std::_Num_base::is_specialized
CONST	ENDS
;	COMDAT ??_C@_0M@ILGNEION@ChaffCount7?$AA@
CONST	SEGMENT
??_C@_0M@ILGNEION@ChaffCount7?$AA@ DB 'ChaffCount7', 00H ; `string'
CONST	ENDS
;	COMDAT ?is_signed@_Num_base@std@@2_NB
CONST	SEGMENT
?is_signed@_Num_base@std@@2_NB DB 00H			; std::_Num_base::is_signed
CONST	ENDS
;	COMDAT ??_C@_09GCNBAHFK@sndBBLock?$AA@
CONST	SEGMENT
??_C@_09GCNBAHFK@sndBBLock?$AA@ DB 'sndBBLock', 00H	; `string'
CONST	ENDS
;	COMDAT ??_C@_02ICGJHNHJ@65?$AA@
CONST	SEGMENT
??_C@_02ICGJHNHJ@65?$AA@ DB '65', 00H			; `string'
CONST	ENDS
;	COMDAT ??_C@_09MFPENFDM@ChaffVec7?$AA@
CONST	SEGMENT
??_C@_09MFPENFDM@ChaffVec7?$AA@ DB 'ChaffVec7', 00H	; `string'
CONST	ENDS
;	COMDAT ?is_modulo@_Num_base@std@@2_NB
CONST	SEGMENT
?is_modulo@_Num_base@std@@2_NB DB 00H			; std::_Num_base::is_modulo
CONST	ENDS
;	COMDAT ??_C@_0O@NPGAECJ@sndBBAltitude?$AA@
CONST	SEGMENT
??_C@_0O@NPGAECJ@sndBBAltitude?$AA@ DB 'sndBBAltitude', 00H ; `string'
CONST	ENDS
;	COMDAT ??_C@_09DJCPGDII@ChaffPos7?$AA@
CONST	SEGMENT
??_C@_09DJCPGDII@ChaffPos7?$AA@ DB 'ChaffPos7', 00H	; `string'
CONST	ENDS
;	COMDAT ?is_integer@_Num_base@std@@2_NB
CONST	SEGMENT
?is_integer@_Num_base@std@@2_NB DB 00H			; std::_Num_base::is_integer
CONST	ENDS
;	COMDAT ??_C@_03BOGFMJLJ@185?$AA@
CONST	SEGMENT
??_C@_03BOGFMJLJ@185?$AA@ DB '185', 00H			; `string'
CONST	ENDS
;	COMDAT ?is_iec559@_Num_base@std@@2_NB
CONST	SEGMENT
?is_iec559@_Num_base@std@@2_NB DB 00H			; std::_Num_base::is_iec559
CONST	ENDS
;	COMDAT ??_C@_0M@JCHGHJKM@ChaffCount6?$AA@
CONST	SEGMENT
??_C@_0M@JCHGHJKM@ChaffCount6?$AA@ DB 'ChaffCount6', 00H ; `string'
CONST	ENDS
;	COMDAT ??_C@_0BD@LPKLPDKN@sndBBChaffFlareOut?$AA@
CONST	SEGMENT
??_C@_0BD@LPKLPDKN@sndBBChaffFlareOut?$AA@ DB 'sndBBChaffFlareOut', 00H ; `string'
CONST	ENDS
;	COMDAT ??_C@_03EIDPGODP@183?$AA@
CONST	SEGMENT
??_C@_03EIDPGODP@183?$AA@ DB '183', 00H			; `string'
CONST	ENDS
;	COMDAT ?is_exact@_Num_base@std@@2_NB
CONST	SEGMENT
?is_exact@_Num_base@std@@2_NB DB 00H			; std::_Num_base::is_exact
CONST	ENDS
;	COMDAT ??_C@_09NMOPOEHN@ChaffVec6?$AA@
CONST	SEGMENT
??_C@_09NMOPOEHN@ChaffVec6?$AA@ DB 'ChaffVec6', 00H	; `string'
CONST	ENDS
;	COMDAT ?is_bounded@_Num_base@std@@2_NB
CONST	SEGMENT
?is_bounded@_Num_base@std@@2_NB DB 00H			; std::_Num_base::is_bounded
CONST	ENDS
;	COMDAT ??_C@_0BA@KPJJFNID@sndBBChaffFlare?$AA@
CONST	SEGMENT
??_C@_0BA@KPJJFNID@sndBBChaffFlare?$AA@ DB 'sndBBChaffFlare', 00H ; `string'
CONST	ENDS
;	COMDAT ??_C@_03KHJOFIBF@138?$AA@
CONST	SEGMENT
??_C@_03KHJOFIBF@138?$AA@ DB '138', 00H			; `string'
CONST	ENDS
;	COMDAT ??_C@_09CADEFCMJ@ChaffPos6?$AA@
CONST	SEGMENT
??_C@_09CADEFCMJ@ChaffPos6?$AA@ DB 'ChaffPos6', 00H	; `string'
CONST	ENDS
;	COMDAT ?has_signaling_NaN@_Num_base@std@@2_NB
CONST	SEGMENT
?has_signaling_NaN@_Num_base@std@@2_NB DB 00H		; std::_Num_base::has_signaling_NaN
CONST	ENDS
;	COMDAT ??_C@_0L@MMJDPPMN@sndBBFlare?$AA@
CONST	SEGMENT
??_C@_0L@MMJDPPMN@sndBBFlare?$AA@ DB 'sndBBFlare', 00H	; `string'
CONST	ENDS
;	COMDAT ?has_quiet_NaN@_Num_base@std@@2_NB
CONST	SEGMENT
?has_quiet_NaN@_Num_base@std@@2_NB DB 00H		; std::_Num_base::has_quiet_NaN
CONST	ENDS
;	COMDAT ??_C@_03HHOPIPI@184?$AA@
CONST	SEGMENT
??_C@_03HHOPIPI@184?$AA@ DB '184', 00H			; `string'
CONST	ENDS
;	COMDAT ??_C@_0M@LJFLCKGP@ChaffCount5?$AA@
CONST	SEGMENT
??_C@_0M@LJFLCKGP@ChaffCount5?$AA@ DB 'ChaffCount5', 00H ; `string'
CONST	ENDS
;	COMDAT ?has_infinity@_Num_base@std@@2_NB
CONST	SEGMENT
?has_infinity@_Num_base@std@@2_NB DB 00H		; std::_Num_base::has_infinity
CONST	ENDS
;	COMDAT ??_C@_0BD@JHICCJCG@sndBBChaffFlareLow?$AA@
CONST	SEGMENT
??_C@_0BD@JHICCJCG@sndBBChaffFlareLow?$AA@ DB 'sndBBChaffFlareLow', 00H ; `string'
CONST	ENDS
;	COMDAT ??_C@_09PHMCLHLO@ChaffVec5?$AA@
CONST	SEGMENT
??_C@_09PHMCLHLO@ChaffVec5?$AA@ DB 'ChaffVec5', 00H	; `string'
CONST	ENDS
;	COMDAT ??_C@_02JLHCEMDI@64?$AA@
CONST	SEGMENT
??_C@_02JLHCEMDI@64?$AA@ DB '64', 00H			; `string'
CONST	ENDS
;	COMDAT ?has_denorm_loss@_Num_base@std@@2_NB
CONST	SEGMENT
?has_denorm_loss@_Num_base@std@@2_NB DB 00H		; std::_Num_base::has_denorm_loss
CONST	ENDS
;	COMDAT ??_C@_09LBJABAK@ChaffPos5?$AA@
CONST	SEGMENT
??_C@_09LBJABAK@ChaffPos5?$AA@ DB 'ChaffPos5', 00H	; `string'
CONST	ENDS
;	COMDAT ?has_denorm@_Num_base@std@@2W4float_denorm_style@2@B
CONST	SEGMENT
?has_denorm@_Num_base@std@@2W4float_denorm_style@2@B DD 00H ; std::_Num_base::has_denorm
CONST	ENDS
;	COMDAT ??_C@_0N@JPEFCFBI@sndBBCaution?$AA@
CONST	SEGMENT
??_C@_0N@JPEFCFBI@sndBBCaution?$AA@ DB 'sndBBCaution', 00H ; `string'
CONST	ENDS
;	COMDAT ??_C@_02NEDDNKPP@63?$AA@
CONST	SEGMENT
??_C@_02NEDDNKPP@63?$AA@ DB '63', 00H			; `string'
CONST	ENDS
;	COMDAT ??_C@_0M@KAEABLCO@ChaffCount4?$AA@
CONST	SEGMENT
??_C@_0M@KAEABLCO@ChaffCount4?$AA@ DB 'ChaffCount4', 00H ; `string'
CONST	ENDS
;	COMDAT ??_C@_0N@IAOBHECM@sndBBWarning?$AA@
CONST	SEGMENT
??_C@_0N@IAOBHECM@sndBBWarning?$AA@ DB 'sndBBWarning', 00H ; `string'
CONST	ENDS
;	COMDAT ??_C@_02KJEECOLK@66?$AA@
CONST	SEGMENT
??_C@_02KJEECOLK@66?$AA@ DB '66', 00H			; `string'
CONST	ENDS
;	COMDAT ??_C@_09OONJIGPP@ChaffVec4?$AA@
CONST	SEGMENT
??_C@_09OONJIGPP@ChaffVec4?$AA@ DB 'ChaffVec4', 00H	; `string'
CONST	ENDS
;	COMDAT ??_C@_0L@CHIDKLOM@sndBBBingo?$AA@
CONST	SEGMENT
??_C@_0L@CHIDKLOM@sndBBBingo?$AA@ DB 'sndBBBingo', 00H	; `string'
CONST	ENDS
;	COMDAT ??_C@_02DHMHADDE@68?$AA@
CONST	SEGMENT
??_C@_02DHMHADDE@68?$AA@ DB '68', 00H			; `string'
CONST	ENDS
;	COMDAT ??_C@_09BCACDAEL@ChaffPos4?$AA@
CONST	SEGMENT
??_C@_09BCACDAEL@ChaffPos4?$AA@ DB 'ChaffPos4', 00H	; `string'
CONST	ENDS
;	COMDAT ??_C@_0M@LOIBOJMO@sndBBPullup?$AA@
CONST	SEGMENT
??_C@_0M@LOIBOJMO@sndBBPullup?$AA@ DB 'sndBBPullup', 00H ; `string'
CONST	ENDS
;	COMDAT ??_C@_0M@OPABINOJ@ChaffCount3?$AA@
CONST	SEGMENT
??_C@_0M@OPABINOJ@ChaffCount3?$AA@ DB 'ChaffCount3', 00H ; `string'
CONST	ENDS
;	COMDAT ??_C@_02LHFGLHCH@27?$AA@
CONST	SEGMENT
??_C@_02LHFGLHCH@27?$AA@ DB '27', 00H			; `string'
CONST	ENDS
;	COMDAT ??_C@_09KBJIBADI@ChaffVec3?$AA@
CONST	SEGMENT
??_C@_09KBJIBADI@ChaffVec3?$AA@ DB 'ChaffVec3', 00H	; `string'
CONST	ENDS
;	COMDAT ??_C@_09NCFIKDEK@sndGunEnd?$AA@
CONST	SEGMENT
??_C@_09NCFIKDEK@sndGunEnd?$AA@ DB 'sndGunEnd', 00H	; `string'
CONST	ENDS
;	COMDAT ??_C@_02KOENIGGG@26?$AA@
CONST	SEGMENT
??_C@_02KOENIGGG@26?$AA@ DB '26', 00H			; `string'
CONST	ENDS
;	COMDAT ??_C@_09FNEDKGIM@ChaffPos3?$AA@
CONST	SEGMENT
??_C@_09FNEDKGIM@ChaffPos3?$AA@ DB 'ChaffPos3', 00H	; `string'
CONST	ENDS
;	COMDAT ??_C@_0L@BNGDCO@sndGunLoop?$AA@
CONST	SEGMENT
??_C@_0L@BNGDCO@sndGunLoop?$AA@ DB 'sndGunLoop', 00H	; `string'
CONST	ENDS
;	COMDAT ??_C@_02IFGANFKF@25?$AA@
CONST	SEGMENT
??_C@_02IFGANFKF@25?$AA@ DB '25', 00H			; `string'
CONST	ENDS
;	COMDAT ??_C@_0M@PGBKLMKI@ChaffCount2?$AA@
CONST	SEGMENT
??_C@_0M@PGBKLMKI@ChaffCount2?$AA@ DB 'ChaffCount2', 00H ; `string'
CONST	ENDS
;	COMDAT ??_C@_0M@JBGOBJNO@sndGunStart?$AA@
CONST	SEGMENT
??_C@_0M@JBGOBJNO@sndGunStart?$AA@ DB 'sndGunStart', 00H ; `string'
CONST	ENDS
;	COMDAT ??_C@_03FAOGDFEJ@192?$AA@
CONST	SEGMENT
??_C@_03FAOGDFEJ@192?$AA@ DB '192', 00H			; `string'
CONST	ENDS
;	COMDAT ??_C@_09LIIDCBHJ@ChaffVec2?$AA@
CONST	SEGMENT
??_C@_09LIIDCBHJ@ChaffVec2?$AA@ DB 'ChaffVec2', 00H	; `string'
CONST	ENDS
;	COMDAT ??_C@_0O@MHPGONKF@sndOverSpeed2?$AA@
CONST	SEGMENT
??_C@_0O@MHPGONKF@sndOverSpeed2?$AA@ DB 'sndOverSpeed2', 00H ; `string'
CONST	ENDS
;	COMDAT ??_C@_09EEFIJHMN@ChaffPos2?$AA@
CONST	SEGMENT
??_C@_09EEFIJHMN@ChaffPos2?$AA@ DB 'ChaffPos2', 00H	; `string'
CONST	ENDS
;	COMDAT ??_C@_03HLMLGGIK@191?$AA@
CONST	SEGMENT
??_C@_03HLMLGGIK@191?$AA@ DB '191', 00H			; `string'
CONST	ENDS
;	COMDAT ??_C@_0M@NNDHOPGL@ChaffCount1?$AA@
CONST	SEGMENT
??_C@_0M@NNDHOPGL@ChaffCount1?$AA@ DB 'ChaffCount1', 00H ; `string'
CONST	ENDS
;	COMDAT ??_C@_0O@OMNLLOGG@sndOverSpeed1?$AA@
CONST	SEGMENT
??_C@_0O@OMNLLOGG@sndOverSpeed1?$AA@ DB 'sndOverSpeed1', 00H ; `string'
CONST	ENDS
;	COMDAT ??_C@_03FIDOKGBK@142?$AA@
CONST	SEGMENT
??_C@_03FIDOKGBK@142?$AA@ DB '142', 00H			; `string'
CONST	ENDS
;	COMDAT ??_C@_09JDKOHCLK@ChaffVec1?$AA@
CONST	SEGMENT
??_C@_09JDKOHCLK@ChaffVec1?$AA@ DB 'ChaffVec1', 00H	; `string'
CONST	ENDS
;	COMDAT ??_C@_0BA@KJMHCINC@sndSpdBrakeWind?$AA@
CONST	SEGMENT
??_C@_0BA@KJMHCINC@sndSpdBrakeWind?$AA@ DB 'sndSpdBrakeWind', 00H ; `string'
CONST	ENDS
;	COMDAT ??_C@_03LOIFGJFE@139?$AA@
CONST	SEGMENT
??_C@_03LOIFGJFE@139?$AA@ DB '139', 00H			; `string'
CONST	ENDS
;	COMDAT ??_C@_09GPHFMEAO@ChaffPos1?$AA@
CONST	SEGMENT
??_C@_09GPHFMEAO@ChaffPos1?$AA@ DB 'ChaffPos1', 00H	; `string'
CONST	ENDS
;	COMDAT ??_C@_0P@DEOJEFLG@sndSpdBrakeEnd?$AA@
CONST	SEGMENT
??_C@_0P@DEOJEFLG@sndSpdBrakeEnd?$AA@ DB 'sndSpdBrakeEnd', 00H ; `string'
CONST	ENDS
;	COMDAT ??_C@_03GKAIMEJI@140?$AA@
CONST	SEGMENT
??_C@_03GKAIMEJI@140?$AA@ DB '140', 00H			; `string'
CONST	ENDS
;	COMDAT ??_C@_0BA@DGGLFGCB@FlareDispensers?$AA@
CONST	SEGMENT
??_C@_0BA@DGGLFGCB@FlareDispensers?$AA@ DB 'FlareDispensers', 00H ; `string'
CONST	ENDS
;	COMDAT ??_C@_0BA@LEPAGMPP@sndSpdBrakeLoop?$AA@
CONST	SEGMENT
??_C@_0BA@LEPAGMPP@sndSpdBrakeLoop?$AA@ DB 'sndSpdBrakeLoop', 00H ; `string'
CONST	ENDS
;	COMDAT ??_C@_08KIEDNGLO@FlareSeq?$AA@
CONST	SEGMENT
??_C@_08KIEDNGLO@FlareSeq?$AA@ DB 'FlareSeq', 00H	; `string'
CONST	ENDS
;	COMDAT ??_C@_03HDBDPFNJ@141?$AA@
CONST	SEGMENT
??_C@_03HDBDPFNJ@141?$AA@ DB '141', 00H			; `string'
CONST	ENDS
;	COMDAT ??_C@_0N@MBKCMPH@FlareCount10?$AA@
CONST	SEGMENT
??_C@_0N@MBKCMPH@FlareCount10?$AA@ DB 'FlareCount10', 00H ; `string'
CONST	ENDS
;	COMDAT ??_C@_0BB@GAAOBGJD@sndSpdBrakeStart?$AA@
CONST	SEGMENT
??_C@_0BB@GAAOBGJD@sndSpdBrakeStart?$AA@ DB 'sndSpdBrakeStart', 00H ; `string'
CONST	ENDS
;	COMDAT ??_C@_0L@EFMEOLGH@FlareVec10?$AA@
CONST	SEGMENT
??_C@_0L@EFMEOLGH@FlareVec10?$AA@ DB 'FlareVec10', 00H	; `string'
CONST	ENDS
;	COMDAT ??_C@_08OLGNPELH@sndEject?$AA@
CONST	SEGMENT
??_C@_08OLGNPELH@sndEject?$AA@ DB 'sndEject', 00H	; `string'
CONST	ENDS
;	COMDAT ??_C@_02CIBHPAJO@39?$AA@
CONST	SEGMENT
??_C@_02CIBHPAJO@39?$AA@ DB '39', 00H			; `string'
CONST	ENDS
;	COMDAT ??_C@_0L@IJDEEHEE@FlarePos10?$AA@
CONST	SEGMENT
??_C@_0L@IJDEEHEE@FlarePos10?$AA@ DB 'FlarePos10', 00H	; `string'
CONST	ENDS
;	COMDAT ??_C@_08PAMNBOMP@sndAbExt?$AA@
CONST	SEGMENT
??_C@_08PAMNBOMP@sndAbExt?$AA@ DB 'sndAbExt', 00H	; `string'
CONST	ENDS
;	COMDAT ??_C@_02PMJKFNFC@40?$AA@
CONST	SEGMENT
??_C@_02PMJKFNFC@40?$AA@ DB '40', 00H			; `string'
CONST	ENDS
;	COMDAT ??_C@_0M@ECDHHFGP@FlareCount9?$AA@
CONST	SEGMENT
??_C@_0M@ECDHHFGP@FlareCount9?$AA@ DB 'FlareCount9', 00H ; `string'
CONST	ENDS
;	COMDAT ??_C@_08KCLAHOLF@sndAbInt?$AA@
CONST	SEGMENT
??_C@_08KCLAHOLF@sndAbInt?$AA@ DB 'sndAbInt', 00H	; `string'
CONST	ENDS
;	COMDAT ??_C@_02NCPIBIBE@33?$AA@
CONST	SEGMENT
??_C@_02NCPIBIBE@33?$AA@ DB '33', 00H			; `string'
CONST	ENDS
;	COMDAT ??_C@_09PFLHKIIJ@FlareVec9?$AA@
CONST	SEGMENT
??_C@_09PFLHKIIJ@FlareVec9?$AA@ DB 'FlareVec9', 00H	; `string'
CONST	ENDS
;	COMDAT ??_C@_07HPCLCPMK@sndWind?$AA@
CONST	SEGMENT
??_C@_07HPCLCPMK@sndWind?$AA@ DB 'sndWind', 00H		; `string'
CONST	ENDS
;	COMDAT ??_C@_09JGMBODN@FlarePos9?$AA@
CONST	SEGMENT
??_C@_09JGMBODN@FlarePos9?$AA@ DB 'FlarePos9', 00H	; `string'
CONST	ENDS
;	COMDAT ??_C@_02IEKCLPJC@35?$AA@
CONST	SEGMENT
??_C@_02IEKCLPJC@35?$AA@ DB '35', 00H			; `string'
CONST	ENDS
;	COMDAT ??_C@_0M@FLCMEECO@FlareCount8?$AA@
CONST	SEGMENT
??_C@_0M@FLCMEECO@FlareCount8?$AA@ DB 'FlareCount8', 00H ; `string'
CONST	ENDS
;	COMDAT ??_C@_06FMCEHIIF@sndExt?$AA@
CONST	SEGMENT
??_C@_06FMCEHIIF@sndExt?$AA@ DB 'sndExt', 00H		; `string'
CONST	ENDS
;	COMDAT ??_C@_09OMKMJJMI@FlareVec8?$AA@
CONST	SEGMENT
??_C@_09OMKMJJMI@FlareVec8?$AA@ DB 'FlareVec8', 00H	; `string'
CONST	ENDS
;	COMDAT ??_C@_0BB@FBCMCGNM@gunSwitchDofRate?$AA@
CONST	SEGMENT
??_C@_0BB@FBCMCGNM@gunSwitchDofRate?$AA@ DB 'gunSwitchDofRate', 00H ; `string'
CONST	ENDS
;	COMDAT ?value@?$_Sizeof@U_Nil@std@@U12@U12@U12@U12@U12@U12@U12@@std@@2IB
CONST	SEGMENT
?value@?$_Sizeof@U_Nil@std@@U12@U12@U12@U12@U12@U12@U12@@std@@2IB DD 00H ; std::_Sizeof<std::_Nil,std::_Nil,std::_Nil,std::_Nil,std::_Nil,std::_Nil,std::_Nil,std::_Nil>::value
CONST	ENDS
;	COMDAT ??_C@_09BAHHCPHM@FlarePos8?$AA@
CONST	SEGMENT
??_C@_09BAHHCPHM@FlarePos8?$AA@ DB 'FlarePos8', 00H	; `string'
CONST	ENDS
;	COMDAT ??_C@_0BC@IDNOAJIO@hp16SwitchDofRate?$AA@
CONST	SEGMENT
??_C@_0BC@IDNOAJIO@hp16SwitchDofRate?$AA@ DB 'hp16SwitchDofRate', 00H ; `string'
CONST	ENDS
;	COMDAT ??_C@_0M@NMLEFIOB@FlareCount7?$AA@
CONST	SEGMENT
??_C@_0M@NMLEFIOB@FlareCount7?$AA@ DB 'FlareCount7', 00H ; `string'
CONST	ENDS
;	COMDAT ??_C@_0BC@JCKDGDPH@hp15SwitchDofRate?$AA@
CONST	SEGMENT
??_C@_0BC@JCKDGDPH@hp15SwitchDofRate?$AA@ DB 'hp15SwitchDofRate', 00H ; `string'
CONST	ENDS
;	COMDAT ??_C@_09GLDEIFAH@FlareVec7?$AA@
CONST	SEGMENT
??_C@_09GLDEIFAH@FlareVec7?$AA@ DB 'FlareVec7', 00H	; `string'
CONST	ENDS
;	COMDAT ??_C@_0BC@CLFILIBP@hp14SwitchDofRate?$AA@
CONST	SEGMENT
??_C@_0BC@CLFILIBP@hp14SwitchDofRate?$AA@ DB 'hp14SwitchDofRate', 00H ; `string'
CONST	ENDS
;	COMDAT ??_C@_09JHOPDDLD@FlarePos7?$AA@
CONST	SEGMENT
??_C@_09JHOPDDLD@FlarePos7?$AA@ DB 'FlarePos7', 00H	; `string'
CONST	ENDS
;	COMDAT ??_C@_0BC@LAFJLHAF@hp13SwitchDofRate?$AA@
CONST	SEGMENT
??_C@_0BC@LAFJLHAF@hp13SwitchDofRate?$AA@ DB 'hp13SwitchDofRate', 00H ; `string'
CONST	ENDS
;	COMDAT ??_C@_0M@MFKPGJKA@FlareCount6?$AA@
CONST	SEGMENT
??_C@_0M@MFKPGJKA@FlareCount6?$AA@ DB 'FlareCount6', 00H ; `string'
CONST	ENDS
;	COMDAT ??_C@_0BC@JKCGMON@hp12SwitchDofRate?$AA@
CONST	SEGMENT
??_C@_0BC@JKCGMON@hp12SwitchDofRate?$AA@ DB 'hp12SwitchDofRate', 00H ; `string'
CONST	ENDS
;	COMDAT ??_C@_09HCCPLEEG@FlareVec6?$AA@
CONST	SEGMENT
??_C@_09HCCPLEEG@FlareVec6?$AA@ DB 'FlareVec6', 00H	; `string'
CONST	ENDS
;	COMDAT ??_C@_0BC@BINPAGJE@hp11SwitchDofRate?$AA@
CONST	SEGMENT
??_C@_0BC@BINPAGJE@hp11SwitchDofRate?$AA@ DB 'hp11SwitchDofRate', 00H ; `string'
CONST	ENDS
;	COMDAT ??_C@_09IOPEACPC@FlarePos6?$AA@
CONST	SEGMENT
??_C@_09IOPEACPC@FlarePos6?$AA@ DB 'FlarePos6', 00H	; `string'
CONST	ENDS
;	COMDAT ??_C@_0BC@KBCENNHM@hp10SwitchDofRate?$AA@
CONST	SEGMENT
??_C@_0BC@KBCENNHM@hp10SwitchDofRate?$AA@ DB 'hp10SwitchDofRate', 00H ; `string'
CONST	ENDS
;	COMDAT ??_C@_0M@OOICDKGD@FlareCount5?$AA@
CONST	SEGMENT
??_C@_0M@OOICDKGD@FlareCount5?$AA@ DB 'FlareCount5', 00H ; `string'
CONST	ENDS
;	COMDAT ??_C@_0BB@PIGPCDDH@hp9SwitchDofRate?$AA@
CONST	SEGMENT
??_C@_0BB@PIGPCDDH@hp9SwitchDofRate?$AA@ DB 'hp9SwitchDofRate', 00H ; `string'
CONST	ENDS
;	COMDAT ??_C@_09FJACOHIF@FlareVec5?$AA@
CONST	SEGMENT
??_C@_09FJACOHIF@FlareVec5?$AA@ DB 'FlareVec5', 00H	; `string'
CONST	ENDS
;	COMDAT ??_C@_0BB@EBJEPINP@hp8SwitchDofRate?$AA@
CONST	SEGMENT
??_C@_0BB@EBJEPINP@hp8SwitchDofRate?$AA@ DB 'hp8SwitchDofRate', 00H ; `string'
CONST	ENDS
;	COMDAT ??_C@_09KFNJFBDB@FlarePos5?$AA@
CONST	SEGMENT
??_C@_09KFNJFBDB@FlarePos5?$AA@ DB 'FlarePos5', 00H	; `string'
CONST	ENDS
;	COMDAT ??_C@_0BB@BFBMDLEC@hp7SwitchDofRate?$AA@
CONST	SEGMENT
??_C@_0BB@BFBMDLEC@hp7SwitchDofRate?$AA@ DB 'hp7SwitchDofRate', 00H ; `string'
CONST	ENDS
;	COMDAT ??_C@_0M@PHJJALCC@FlareCount4?$AA@
CONST	SEGMENT
??_C@_0M@PHJJALCC@FlareCount4?$AA@ DB 'FlareCount4', 00H ; `string'
CONST	ENDS
;	COMDAT ??_C@_0BB@KMOHOAKK@hp6SwitchDofRate?$AA@
CONST	SEGMENT
??_C@_0BB@KMOHOAKK@hp6SwitchDofRate?$AA@ DB 'hp6SwitchDofRate', 00H ; `string'
CONST	ENDS
;	COMDAT ??_C@_07HBOJGMJG@0?50?0200?$AA@
CONST	SEGMENT
??_C@_07HBOJGMJG@0?50?0200?$AA@ DB '0 0,200', 00H	; `string'
CONST	ENDS
;	COMDAT ??_C@_0BB@LNJKIKND@hp5SwitchDofRate?$AA@
CONST	SEGMENT
??_C@_0BB@LNJKIKND@hp5SwitchDofRate?$AA@ DB 'hp5SwitchDofRate', 00H ; `string'
CONST	ENDS
;	COMDAT ??_C@_09EABJNGME@FlareVec4?$AA@
CONST	SEGMENT
??_C@_09EABJNGME@FlareVec4?$AA@ DB 'FlareVec4', 00H	; `string'
CONST	ENDS
;	COMDAT ??_C@_0BB@EGBFBDL@hp4SwitchDofRate?$AA@
CONST	SEGMENT
??_C@_0BB@EGBFBDL@hp4SwitchDofRate?$AA@ DB 'hp4SwitchDofRate', 00H ; `string'
CONST	ENDS
;	COMDAT ??_C@_09LMMCGAHA@FlarePos4?$AA@
CONST	SEGMENT
??_C@_09LMMCGAHA@FlarePos4?$AA@ DB 'FlarePos4', 00H	; `string'
CONST	ENDS
;	COMDAT ??_C@_0BB@JPGAFOCB@hp3SwitchDofRate?$AA@
CONST	SEGMENT
??_C@_0BB@JPGAFOCB@hp3SwitchDofRate?$AA@ DB 'hp3SwitchDofRate', 00H ; `string'
CONST	ENDS
;	COMDAT ??_C@_0M@LINIJNOF@FlareCount3?$AA@
CONST	SEGMENT
??_C@_0M@LINIJNOF@FlareCount3?$AA@ DB 'FlareCount3', 00H ; `string'
CONST	ENDS
;	COMDAT ??_C@_0BB@CGJLIFMJ@hp2SwitchDofRate?$AA@
CONST	SEGMENT
??_C@_0BB@CGJLIFMJ@hp2SwitchDofRate?$AA@ DB 'hp2SwitchDofRate', 00H ; `string'
CONST	ENDS
;	COMDAT ??_C@_09PFIEAAD@FlareVec3?$AA@
CONST	SEGMENT
??_C@_09PFIEAAD@FlareVec3?$AA@ DB 'FlareVec3', 00H	; `string'
CONST	ENDS
;	COMDAT ??_C@_07GHNLPIKD@?91?5?91?50?$AA@
CONST	SEGMENT
??_C@_07GHNLPIKD@?91?5?91?50?$AA@ DB '-1 -1 0', 00H	; `string'
CONST	ENDS
;	COMDAT ??_C@_09PDIDPGLH@FlarePos3?$AA@
CONST	SEGMENT
??_C@_09PDIDPGLH@FlarePos3?$AA@ DB 'FlarePos3', 00H	; `string'
CONST	ENDS
;	COMDAT ??_C@_0BB@DHOGOPLA@hp1SwitchDofRate?$AA@
CONST	SEGMENT
??_C@_0BB@DHOGOPLA@hp1SwitchDofRate?$AA@ DB 'hp1SwitchDofRate', 00H ; `string'
CONST	ENDS
;	COMDAT ??_C@_0M@KBMDKMKE@FlareCount2?$AA@
CONST	SEGMENT
??_C@_0M@KBMDKMKE@FlareCount2?$AA@ DB 'FlareCount2', 00H ; `string'
CONST	ENDS
;	COMDAT ??_C@_0P@CJDDMFLJ@hardpoint16Grp?$AA@
CONST	SEGMENT
??_C@_0P@CJDDMFLJ@hardpoint16Grp?$AA@ DB 'hardpoint16Grp', 00H ; `string'
CONST	ENDS
;	COMDAT ??_C@_09BGEDHBEC@FlareVec2?$AA@
CONST	SEGMENT
??_C@_09BGEDHBEC@FlareVec2?$AA@ DB 'FlareVec2', 00H	; `string'
CONST	ENDS
;	COMDAT ??_C@_0P@GOJDLPGJ@hardpoint15Grp?$AA@
CONST	SEGMENT
??_C@_0P@GOJDLPGJ@hardpoint15Grp?$AA@ DB 'hardpoint15Grp', 00H ; `string'
CONST	ENDS
;	COMDAT ??_C@_09OKJIMHPG@FlarePos2?$AA@
CONST	SEGMENT
??_C@_09OKJIMHPG@FlarePos2?$AA@ DB 'FlarePos2', 00H	; `string'
CONST	ENDS
;	COMDAT ??_C@_0P@FDPDJGNJ@hardpoint14Grp?$AA@
CONST	SEGMENT
??_C@_0P@FDPDJGNJ@hardpoint14Grp?$AA@ DB 'hardpoint14Grp', 00H ; `string'
CONST	ENDS
;	COMDAT ??_C@_0M@IKOOPPGH@FlareCount1?$AA@
CONST	SEGMENT
??_C@_0M@IKOOPPGH@FlareCount1?$AA@ DB 'FlareCount1', 00H ; `string'
CONST	ENDS
;	COMDAT ??_C@_0P@OBNDEKMJ@hardpoint13Grp?$AA@
CONST	SEGMENT
??_C@_0P@OBNDEKMJ@hardpoint13Grp?$AA@ DB 'hardpoint13Grp', 00H ; `string'
CONST	ENDS
;	COMDAT ??_C@_07LEBJIBJH@0?50?5200?$AA@
CONST	SEGMENT
??_C@_07LEBJIBJH@0?50?5200?$AA@ DB '0 0 200', 00H	; `string'
CONST	ENDS
;	COMDAT ??_C@_0P@NMLDGDHJ@hardpoint12Grp?$AA@
CONST	SEGMENT
??_C@_0P@NMLDGDHJ@hardpoint12Grp?$AA@ DB 'hardpoint12Grp', 00H ; `string'
CONST	ENDS
;	COMDAT ??_C@_09DNGOCCIB@FlareVec1?$AA@
CONST	SEGMENT
??_C@_09DNGOCCIB@FlareVec1?$AA@ DB 'FlareVec1', 00H	; `string'
CONST	ENDS
;	COMDAT ??_C@_0P@JLBDBJKJ@hardpoint11Grp?$AA@
CONST	SEGMENT
??_C@_0P@JLBDBJKJ@hardpoint11Grp?$AA@ DB 'hardpoint11Grp', 00H ; `string'
CONST	ENDS
;	COMDAT ??_C@_09MBLFJEDF@FlarePos1?$AA@
CONST	SEGMENT
??_C@_09MBLFJEDF@FlarePos1?$AA@ DB 'FlarePos1', 00H	; `string'
CONST	ENDS
;	COMDAT ??_C@_0P@KGHDDABJ@hardpoint10Grp?$AA@
CONST	SEGMENT
??_C@_0P@KGHDDABJ@hardpoint10Grp?$AA@ DB 'hardpoint10Grp', 00H ; `string'
CONST	ENDS
;	COMDAT ??_C@_0BD@JNEHLKHH@sndAero4SpeedChart?$AA@
CONST	SEGMENT
??_C@_0BD@JNEHLKHH@sndAero4SpeedChart?$AA@ DB 'sndAero4SpeedChart', 00H ; `string'
CONST	ENDS
;	COMDAT ??_C@_0O@EJGMJJIE@hardpoint9Grp?$AA@
CONST	SEGMENT
??_C@_0O@EJGMJJIE@hardpoint9Grp?$AA@ DB 'hardpoint9Grp', 00H ; `string'
CONST	ENDS
;	COMDAT ??_C@_0BD@OJNPFDPI@sndAero3SpeedChart?$AA@
CONST	SEGMENT
??_C@_0BD@OJNPFDPI@sndAero3SpeedChart?$AA@ DB 'sndAero3SpeedChart', 00H ; `string'
CONST	ENDS
;	COMDAT ??_C@_0O@HEAMLADE@hardpoint8Grp?$AA@
CONST	SEGMENT
??_C@_0O@HEAMLADE@hardpoint8Grp?$AA@ DB 'hardpoint8Grp', 00H ; `string'
CONST	ENDS
;	COMDAT ??_C@_0BD@HCHKBPJH@sndAero2SpeedChart?$AA@
CONST	SEGMENT
??_C@_0BD@HCHKBPJH@sndAero2SpeedChart?$AA@ DB 'sndAero2SpeedChart', 00H ; `string'
CONST	ENDS
;	COMDAT ??_C@_0O@PGFMCHOF@hardpoint7Grp?$AA@
CONST	SEGMENT
??_C@_0O@PGFMCHOF@hardpoint7Grp?$AA@ DB 'hardpoint7Grp', 00H ; `string'
CONST	ENDS
;	COMDAT ??_C@_0BD@FOEMNGH@sndAero1SpeedChart?$AA@
CONST	SEGMENT
??_C@_0BD@FOEMNGH@sndAero1SpeedChart?$AA@ DB 'sndAero1SpeedChart', 00H ; `string'
CONST	ENDS
;	COMDAT ??_C@_0O@MLDMAOFF@hardpoint6Grp?$AA@
CONST	SEGMENT
??_C@_0O@MLDMAOFF@hardpoint6Grp?$AA@ DB 'hardpoint6Grp', 00H ; `string'
CONST	ENDS
;	COMDAT ??_C@_0BB@BBIKINCI@sndAero4AOAChart?$AA@
CONST	SEGMENT
??_C@_0BB@BBIKINCI@sndAero4AOAChart?$AA@ DB 'sndAero4AOAChart', 00H ; `string'
CONST	ENDS
;	COMDAT ??_C@_0O@IMJMHEIF@hardpoint5Grp?$AA@
CONST	SEGMENT
??_C@_0O@IMJMHEIF@hardpoint5Grp?$AA@ DB 'hardpoint5Grp', 00H ; `string'
CONST	ENDS
;	COMDAT ??_C@_0BB@PDFGJGFB@sndAero3AOAChart?$AA@
CONST	SEGMENT
??_C@_0BB@PDFGJGFB@sndAero3AOAChart?$AA@ DB 'sndAero3AOAChart', 00H ; `string'
CONST	ENDS
;	COMDAT ??_C@_0O@LBPMFNDF@hardpoint4Grp?$AA@
CONST	SEGMENT
??_C@_0O@LBPMFNDF@hardpoint4Grp?$AA@ DB 'hardpoint4Grp', 00H ; `string'
CONST	ENDS
;	COMDAT ??_C@_0BB@BMJEPNGP@sndAero2AOAChart?$AA@
CONST	SEGMENT
??_C@_0BB@BMJEPNGP@sndAero2AOAChart?$AA@ DB 'sndAero2AOAChart', 00H ; `string'
CONST	ENDS
;	COMDAT ??_C@_05FHPKCNOC@1?50?50?$AA@
CONST	SEGMENT
??_C@_05FHPKCNOC@1?50?50?$AA@ DB '1 0 0', 00H		; `string'
CONST	ENDS
;	COMDAT ??_C@_0O@DNMIBCF@hardpoint3Grp?$AA@
CONST	SEGMENT
??_C@_0O@DNMIBCF@hardpoint3Grp?$AA@ DB 'hardpoint3Grp', 00H ; `string'
CONST	ENDS
;	COMDAT ??_C@_0BB@PHKDEGGM@sndAero1AOAChart?$AA@
CONST	SEGMENT
??_C@_0BB@PHKDEGGM@sndAero1AOAChart?$AA@ DB 'sndAero1AOAChart', 00H ; `string'
CONST	ENDS
;	COMDAT ??_C@_0O@DOLMKIJF@hardpoint2Grp?$AA@
CONST	SEGMENT
??_C@_0O@DOLMKIJF@hardpoint2Grp?$AA@ DB 'hardpoint2Grp', 00H ; `string'
CONST	ENDS
;	COMDAT ??_C@_02PGHGPEOM@?91?$AA@
CONST	SEGMENT
??_C@_02PGHGPEOM@?91?$AA@ DB '-1', 00H			; `string'
CONST	ENDS
;	COMDAT ??_C@_08MGABPIDH@sndAero4?$AA@
CONST	SEGMENT
??_C@_08MGABPIDH@sndAero4?$AA@ DB 'sndAero4', 00H	; `string'
CONST	ENDS
;	COMDAT ??_C@_0O@HJBMNCEF@hardpoint1Grp?$AA@
CONST	SEGMENT
??_C@_0O@HJBMNCEF@hardpoint1Grp?$AA@ DB 'hardpoint1Grp', 00H ; `string'
CONST	ENDS
;	COMDAT ??_C@_08IJEAGOPA@sndAero3?$AA@
CONST	SEGMENT
??_C@_08IJEAGOPA@sndAero3?$AA@ DB 'sndAero3', 00H	; `string'
CONST	ENDS
;	COMDAT ?min_exponent10@?$numeric_limits@O@std@@2HB
CONST	SEGMENT
?min_exponent10@?$numeric_limits@O@std@@2HB DD 0fffffecdH ; std::numeric_limits<long double>::min_exponent10
CONST	ENDS
;	COMDAT ??_C@_0P@MMDNKHLD@refuelLocation?$AA@
CONST	SEGMENT
??_C@_0P@MMDNKHLD@refuelLocation?$AA@ DB 'refuelLocation', 00H ; `string'
CONST	ENDS
;	COMDAT ??_C@_08JAFLFPLB@sndAero2?$AA@
CONST	SEGMENT
??_C@_08JAFLFPLB@sndAero2?$AA@ DB 'sndAero2', 00H	; `string'
CONST	ENDS
;	COMDAT ??_C@_04PPPNPNHD@29?45?$AA@
CONST	SEGMENT
??_C@_04PPPNPNHD@29?45?$AA@ DB '29.5', 00H		; `string'
CONST	ENDS
;	COMDAT ?min_exponent@?$numeric_limits@O@std@@2HB
CONST	SEGMENT
?min_exponent@?$numeric_limits@O@std@@2HB DD 0fffffc03H	; std::numeric_limits<long double>::min_exponent
CONST	ENDS
;	COMDAT ??_C@_08LLHGAMHC@sndAero1?$AA@
CONST	SEGMENT
??_C@_08LLHGAMHC@sndAero1?$AA@ DB 'sndAero1', 00H	; `string'
CONST	ENDS
;	COMDAT ??_C@_0P@BNLDEAKL@vortexAOALimit?$AA@
CONST	SEGMENT
??_C@_0P@BNLDEAKL@vortexAOALimit?$AA@ DB 'vortexAOALimit', 00H ; `string'
CONST	ENDS
;	COMDAT ?max_exponent10@?$numeric_limits@O@std@@2HB
CONST	SEGMENT
?max_exponent10@?$numeric_limits@O@std@@2HB DD 0134H	; std::numeric_limits<long double>::max_exponent10
CONST	ENDS
;	COMDAT ??_C@_07HAPOAHKG@sndExt2?$AA@
CONST	SEGMENT
??_C@_07HAPOAHKG@sndExt2?$AA@ DB 'sndExt2', 00H		; `string'
CONST	ENDS
;	COMDAT ??_C@_0M@BNIPFJKF@largeVortex?$AA@
CONST	SEGMENT
??_C@_0M@BNIPFJKF@largeVortex?$AA@ DB 'largeVortex', 00H ; `string'
CONST	ENDS
;	COMDAT ?max_exponent@?$numeric_limits@O@std@@2HB
CONST	SEGMENT
?max_exponent@?$numeric_limits@O@std@@2HB DD 0400H	; std::numeric_limits<long double>::max_exponent
CONST	ENDS
;	COMDAT ??_C@_07MAHMOCOE@sndInt2?$AA@
CONST	SEGMENT
??_C@_07MAHMOCOE@sndInt2?$AA@ DB 'sndInt2', 00H		; `string'
CONST	ENDS
;	COMDAT ??_C@_0BC@DCAJDPJP@vortexPS3Location?$AA@
CONST	SEGMENT
??_C@_0BC@DCAJDPJP@vortexPS3Location?$AA@ DB 'vortexPS3Location', 00H ; `string'
CONST	ENDS
;	COMDAT ?max_digits10@?$numeric_limits@O@std@@2HB
CONST	SEGMENT
?max_digits10@?$numeric_limits@O@std@@2HB DD 011H	; std::numeric_limits<long double>::max_digits10
CONST	ENDS
;	COMDAT ??_C@_0BC@GHKCNAHF@sndExt2PitchChart?$AA@
CONST	SEGMENT
??_C@_0BC@GHKCNAHF@sndExt2PitchChart?$AA@ DB 'sndExt2PitchChart', 00H ; `string'
CONST	ENDS
;	COMDAT ?digits10@?$numeric_limits@O@std@@2HB
CONST	SEGMENT
?digits10@?$numeric_limits@O@std@@2HB DD 0fH		; std::numeric_limits<long double>::digits10
CONST	ENDS
;	COMDAT ??_C@_0BC@NNMLFEKB@vortexPS2Location?$AA@
CONST	SEGMENT
??_C@_0BC@NNMLFEKB@vortexPS2Location?$AA@ DB 'vortexPS2Location', 00H ; `string'
CONST	ENDS
;	COMDAT ?digits@?$numeric_limits@O@std@@2HB
CONST	SEGMENT
?digits@?$numeric_limits@O@std@@2HB DD 035H		; std::numeric_limits<long double>::digits
CONST	ENDS
;	COMDAT ??_C@_0BD@MJGHLFIJ@sndAbExtPitchChart?$AA@
CONST	SEGMENT
??_C@_0BD@MJGHLFIJ@sndAbExtPitchChart?$AA@ DB 'sndAbExtPitchChart', 00H ; `string'
CONST	ENDS
;	COMDAT ??_C@_0BC@DGPMOPKC@vortexPS1Location?$AA@
CONST	SEGMENT
??_C@_0BC@DGPMOPKC@vortexPS1Location?$AA@ DB 'vortexPS1Location', 00H ; `string'
CONST	ENDS
;	COMDAT ??_C@_0BB@HDBCFNJO@sndExtPitchChart?$AA@
CONST	SEGMENT
??_C@_0BB@HDBCFNJO@sndExtPitchChart?$AA@ DB 'sndExtPitchChart', 00H ; `string'
CONST	ENDS
;	COMDAT ??_C@_0BA@NKENIPEJ@vortex2Location?$AA@
CONST	SEGMENT
??_C@_0BA@NKENIPEJ@vortex2Location?$AA@ DB 'vortex2Location', 00H ; `string'
CONST	ENDS
;	COMDAT ??_C@_0BC@LMCHAOEL@sndInt2PitchChart?$AA@
CONST	SEGMENT
??_C@_0BC@LMCHAOEL@sndInt2PitchChart?$AA@ DB 'sndInt2PitchChart', 00H ; `string'
CONST	ENDS
;	COMDAT ??_C@_0BA@DBHKDEEK@vortex1Location?$AA@
CONST	SEGMENT
??_C@_0BA@DBHKDEEK@vortex1Location?$AA@ DB 'vortex1Location', 00H ; `string'
CONST	ENDS
;	COMDAT ??_C@_0BD@PHHAFNKD@sndAbIntPitchChart?$AA@
CONST	SEGMENT
??_C@_0BD@PHHAFNKD@sndAbIntPitchChart?$AA@ DB 'sndAbIntPitchChart', 00H ; `string'
CONST	ENDS
;	COMDAT ??_C@_0BA@GJOOBLIC@wingTipLocation?$AA@
CONST	SEGMENT
??_C@_0BA@GJOOBLIC@wingTipLocation?$AA@ DB 'wingTipLocation', 00H ; `string'
CONST	ENDS
;	COMDAT ??_C@_0BA@NOAFKBNG@2?50?50?51?403?51?447?$AA@
CONST	SEGMENT
??_C@_0BA@NOAFKBNG@2?50?50?51?403?51?447?$AA@ DB '2 0 0 1.03 1.47', 00H ; `string'
CONST	ENDS
;	COMDAT ??_C@_0N@GBJPGLAA@engineSmokes?$AA@
CONST	SEGMENT
??_C@_0N@GBJPGLAA@engineSmokes?$AA@ DB 'engineSmokes', 00H ; `string'
CONST	ENDS
;	COMDAT ??_C@_0BB@ENAFLFLE@sndIntPitchChart?$AA@
CONST	SEGMENT
??_C@_0BB@ENAFLFLE@sndIntPitchChart?$AA@ DB 'sndIntPitchChart', 00H ; `string'
CONST	ENDS
;	COMDAT ??_C@_0BA@LOLBPHGD@engine8Location?$AA@
CONST	SEGMENT
??_C@_0BA@LOLBPHGD@engine8Location?$AA@ DB 'engine8Location', 00H ; `string'
CONST	ENDS
;	COMDAT ??_C@_0N@ENOHKBEH@sndExt2Chart?$AA@
CONST	SEGMENT
??_C@_0N@ENOHKBEH@sndExt2Chart?$AA@ DB 'sndExt2Chart', 00H ; `string'
CONST	ENDS
;	COMDAT ??_C@_0BA@EPLKKMOO@engine7Location?$AA@
CONST	SEGMENT
??_C@_0BA@EPLKKMOO@engine7Location?$AA@ DB 'engine7Location', 00H ; `string'
CONST	ENDS
;	COMDAT ??_C@_0O@OJHKGPOM@sndAbExtChart?$AA@
CONST	SEGMENT
??_C@_0O@OJHKGPOM@sndAbExtChart?$AA@ DB 'sndAbExtChart', 00H ; `string'
CONST	ENDS
;	COMDAT ??_C@_0BA@KAHIMHNA@engine6Location?$AA@
CONST	SEGMENT
??_C@_0BA@KAHIMHNA@engine6Location?$AA@ DB 'engine6Location', 00H ; `string'
CONST	ENDS
;	COMDAT ??_C@_0M@EBPFJPBB@sndExtChart?$AA@
CONST	SEGMENT
??_C@_0M@EBPFJPBB@sndExtChart?$AA@ DB 'sndExtChart', 00H ; `string'
CONST	ENDS
;	COMDAT ?min_exponent10@?$numeric_limits@N@std@@2HB
CONST	SEGMENT
?min_exponent10@?$numeric_limits@N@std@@2HB DD 0fffffecdH ; std::numeric_limits<double>::min_exponent10
CONST	ENDS
;	COMDAT ??_C@_0BF@CHCDBLCO@3?5?50?50?5?51?51?5?51?4035?51?$AA@
CONST	SEGMENT
??_C@_0BF@CHCDBLCO@3?5?50?50?5?51?51?5?51?4035?51?$AA@ DB '3  0 0  1 1  1'
	DB	'.035 1', 00H				; `string'
CONST	ENDS
;	COMDAT ??_C@_0BA@ELEPHMND@engine5Location?$AA@
CONST	SEGMENT
??_C@_0BA@ELEPHMND@engine5Location?$AA@ DB 'engine5Location', 00H ; `string'
CONST	ENDS
;	COMDAT ?min_exponent@?$numeric_limits@N@std@@2HB
CONST	SEGMENT
?min_exponent@?$numeric_limits@N@std@@2HB DD 0fffffc03H	; std::numeric_limits<double>::min_exponent
CONST	ENDS
;	COMDAT ??_C@_0N@IIABHKDC@sndInt2Chart?$AA@
CONST	SEGMENT
??_C@_0N@IIABHKDC@sndInt2Chart?$AA@ DB 'sndInt2Chart', 00H ; `string'
CONST	ENDS
;	COMDAT ??_C@_0M@LKDHOOHO@2?5?50?50?5?51?51?$AA@
CONST	SEGMENT
??_C@_0M@LKDHOOHO@2?5?50?50?5?51?51?$AA@ DB '2  0 0  1 1', 00H ; `string'
CONST	ENDS
;	COMDAT ??_C@_0BA@KEINBHON@engine4Location?$AA@
CONST	SEGMENT
??_C@_0BA@KEINBHON@engine4Location?$AA@ DB 'engine4Location', 00H ; `string'
CONST	ENDS
;	COMDAT ?max_exponent10@?$numeric_limits@N@std@@2HB
CONST	SEGMENT
?max_exponent10@?$numeric_limits@N@std@@2HB DD 0134H	; std::numeric_limits<double>::max_exponent10
CONST	ENDS
;	COMDAT ??_C@_0O@LFJKKEFE@sndAbIntChart?$AA@
CONST	SEGMENT
??_C@_0O@LFJKKEFE@sndAbIntChart?$AA@ DB 'sndAbIntChart', 00H ; `string'
CONST	ENDS
;	COMDAT ??_C@_06KENBBNKG@1?5?50?51?$AA@
CONST	SEGMENT
??_C@_06KENBBNKG@1?5?50?51?$AA@ DB '1  0 1', 00H	; `string'
CONST	ENDS
;	COMDAT ??_C@_0BA@EGFBAMJE@engine3Location?$AA@
CONST	SEGMENT
??_C@_0BA@EGFBAMJE@engine3Location?$AA@ DB 'engine3Location', 00H ; `string'
CONST	ENDS
;	COMDAT ?max_exponent@?$numeric_limits@N@std@@2HB
CONST	SEGMENT
?max_exponent@?$numeric_limits@N@std@@2HB DD 0400H	; std::numeric_limits<double>::max_exponent
CONST	ENDS
;	COMDAT ??_C@_0M@BNBFFEKJ@sndIntChart?$AA@
CONST	SEGMENT
??_C@_0M@BNBFFEKJ@sndIntChart?$AA@ DB 'sndIntChart', 00H ; `string'
CONST	ENDS
;	COMDAT ??_C@_0BA@KJJDGHKK@engine2Location?$AA@
CONST	SEGMENT
??_C@_0BA@KJJDGHKK@engine2Location?$AA@ DB 'engine2Location', 00H ; `string'
CONST	ENDS
;	COMDAT ?max_digits10@?$numeric_limits@N@std@@2HB
CONST	SEGMENT
?max_digits10@?$numeric_limits@N@std@@2HB DD 011H	; std::numeric_limits<double>::max_digits10
CONST	ENDS
;	COMDAT ??_C@_05JMKGPOEH@0?50?50?$AA@
CONST	SEGMENT
??_C@_05JMKGPOEH@0?50?50?$AA@ DB '0 0 0', 00H		; `string'
CONST	ENDS
;	COMDAT ??_C@_06OFJBIPP@sndInt?$AA@
CONST	SEGMENT
??_C@_06OFJBIPP@sndInt?$AA@ DB 'sndInt', 00H		; `string'
CONST	ENDS
;	COMDAT ?digits10@?$numeric_limits@N@std@@2HB
CONST	SEGMENT
?digits10@?$numeric_limits@N@std@@2HB DD 0fH		; std::numeric_limits<double>::digits10
CONST	ENDS
;	COMDAT ??_C@_07HPLHPJPJ@?92000?40?$AA@
CONST	SEGMENT
??_C@_07HPLHPJPJ@?92000?40?$AA@ DB '-2000.0', 00H	; `string'
CONST	ENDS
;	COMDAT ??_C@_0BA@ECKENMKJ@engine1Location?$AA@
CONST	SEGMENT
??_C@_0BA@ECKENMKJ@engine1Location?$AA@ DB 'engine1Location', 00H ; `string'
CONST	ENDS
;	COMDAT ?digits@?$numeric_limits@N@std@@2HB
CONST	SEGMENT
?digits@?$numeric_limits@N@std@@2HB DD 035H		; std::numeric_limits<double>::digits
CONST	ENDS
;	COMDAT ??_C@_0P@HNEFKLNN@sndExternalVol?$AA@
CONST	SEGMENT
??_C@_0P@HNEFKLNN@sndExternalVol?$AA@ DB 'sndExternalVol', 00H ; `string'
CONST	ENDS
;	COMDAT ?value@?$integral_constant@I$0A@@std@@2IB
CONST	SEGMENT
?value@?$integral_constant@I$0A@@std@@2IB DD 00H	; std::integral_constant<unsigned int,0>::value
CONST	ENDS
;	COMDAT ??_C@_08CHIHMDEG@nEngines?$AA@
CONST	SEGMENT
??_C@_08CHIHMDEG@nEngines?$AA@ DB 'nEngines', 00H	; `string'
CONST	ENDS
;	COMDAT ??_C@_02ODEKKOPI@11?$AA@
CONST	SEGMENT
??_C@_02ODEKKOPI@11?$AA@ DB '11', 00H			; `string'
CONST	ENDS
;	COMDAT ??_C@_0BA@MHKLODIH@animGearMaxExt8?$AA@
CONST	SEGMENT
??_C@_0BA@MHKLODIH@animGearMaxExt8?$AA@ DB 'animGearMaxExt8', 00H ; `string'
CONST	ENDS
;	COMDAT ??_C@_0L@OOJFIEK@gunTrailID?$AA@
CONST	SEGMENT
??_C@_0L@OOJFIEK@gunTrailID?$AA@ DB 'gunTrailID', 00H	; `string'
CONST	ENDS
;	COMDAT ??_C@_06NOLLDKEA@2?5?92?50?$AA@
CONST	SEGMENT
??_C@_06NOLLDKEA@2?5?92?50?$AA@ DB '2 -2 0', 00H	; `string'
CONST	ENDS
;	COMDAT ??_C@_0BA@EADDPPEI@animGearMaxExt7?$AA@
CONST	SEGMENT
??_C@_0BA@EADDPPEI@animGearMaxExt7?$AA@ DB 'animGearMaxExt7', 00H ; `string'
CONST	ENDS
;	COMDAT ??_C@_0M@CCKJIKFE@gunLocation?$AA@
CONST	SEGMENT
??_C@_0M@CCKJIKFE@gunLocation?$AA@ DB 'gunLocation', 00H ; `string'
CONST	ENDS
;	COMDAT ??_C@_02PJNFELNH@30?$AA@
CONST	SEGMENT
??_C@_02PJNFELNH@30?$AA@ DB '30', 00H			; `string'
CONST	ENDS
;	COMDAT ??_C@_0BA@FJCIMOAJ@animGearMaxExt6?$AA@
CONST	SEGMENT
??_C@_0BA@FJCIMOAJ@animGearMaxExt6?$AA@ DB 'animGearMaxExt6', 00H ; `string'
CONST	ENDS
;	COMDAT ??_C@_06PALMNHLO@nFlare?$AA@
CONST	SEGMENT
??_C@_06PALMNHLO@nFlare?$AA@ DB 'nFlare', 00H		; `string'
CONST	ENDS
;	COMDAT ??_C@_0BA@HCAFJNMK@animGearMaxExt5?$AA@
CONST	SEGMENT
??_C@_0BA@HCAFJNMK@animGearMaxExt5?$AA@ DB 'animGearMaxExt5', 00H ; `string'
CONST	ENDS
;	COMDAT ??_C@_06GFPDLIKC@nChaff?$AA@
CONST	SEGMENT
??_C@_06GFPDLIKC@nChaff?$AA@ DB 'nChaff', 00H		; `string'
CONST	ENDS
;	COMDAT ??_C@_0BA@GLBOKMIL@animGearMaxExt4?$AA@
CONST	SEGMENT
??_C@_0BA@GLBOKMIL@animGearMaxExt4?$AA@ DB 'animGearMaxExt4', 00H ; `string'
CONST	ENDS
;	COMDAT ??_C@_03HJHPABEB@250?$AA@
CONST	SEGMENT
??_C@_03HJHPABEB@250?$AA@ DB '250', 00H			; `string'
CONST	ENDS
;	COMDAT ??_C@_0BA@CEFPDKEM@animGearMaxExt3?$AA@
CONST	SEGMENT
??_C@_0BA@CEFPDKEM@animGearMaxExt3?$AA@ DB 'animGearMaxExt3', 00H ; `string'
CONST	ENDS
;	COMDAT ??_C@_0L@KFENJKJE@fuelMinAft?$AA@
CONST	SEGMENT
??_C@_0L@KFENJKJE@fuelMinAft?$AA@ DB 'fuelMinAft', 00H	; `string'
CONST	ENDS
;	COMDAT ??_C@_03FKNPJMHG@400?$AA@
CONST	SEGMENT
??_C@_03FKNPJMHG@400?$AA@ DB '400', 00H			; `string'
CONST	ENDS
;	COMDAT ??_C@_0BA@DNEEALAN@animGearMaxExt2?$AA@
CONST	SEGMENT
??_C@_0BA@DNEEALAN@animGearMaxExt2?$AA@ DB 'animGearMaxExt2', 00H ; `string'
CONST	ENDS
;	COMDAT ?min_exponent10@?$numeric_limits@M@std@@2HB
CONST	SEGMENT
?min_exponent10@?$numeric_limits@M@std@@2HB DD 0ffffffdbH ; std::numeric_limits<float>::min_exponent10
CONST	ENDS
;	COMDAT ??_C@_0L@GPLMHJDL@fuelMinFwd?$AA@
CONST	SEGMENT
??_C@_0L@GPLMHJDL@fuelMinFwd?$AA@ DB 'fuelMinFwd', 00H	; `string'
CONST	ENDS
;	COMDAT ??_C@_0BA@BGGJFIMO@animGearMaxExt1?$AA@
CONST	SEGMENT
??_C@_0BA@BGGJFIMO@animGearMaxExt1?$AA@ DB 'animGearMaxExt1', 00H ; `string'
CONST	ENDS
;	COMDAT ?min_exponent@?$numeric_limits@M@std@@2HB
CONST	SEGMENT
?min_exponent@?$numeric_limits@M@std@@2HB DD 0ffffff83H	; std::numeric_limits<float>::min_exponent
CONST	ENDS
;	COMDAT ??_C@_0BA@OAFMDLCO@fuelWingExtRate?$AA@
CONST	SEGMENT
??_C@_0BA@OAFMDLCO@fuelWingExtRate?$AA@ DB 'fuelWingExtRate', 00H ; `string'
CONST	ENDS
;	COMDAT ??_C@_0BB@DDIFGNHJ@animGearMaxComp8?$AA@
CONST	SEGMENT
??_C@_0BB@DDIFGNHJ@animGearMaxComp8?$AA@ DB 'animGearMaxComp8', 00H ; `string'
CONST	ENDS
;	COMDAT ?max_exponent10@?$numeric_limits@M@std@@2HB
CONST	SEGMENT
?max_exponent10@?$numeric_limits@M@std@@2HB DD 026H	; std::numeric_limits<float>::max_exponent10
CONST	ENDS
;	COMDAT ??_C@_0O@BOEKBNKG@fuelClineRate?$AA@
CONST	SEGMENT
??_C@_0O@BOEKBNKG@fuelClineRate?$AA@ DB 'fuelClineRate', 00H ; `string'
CONST	ENDS
;	COMDAT ??_C@_0BB@LEBNHBLG@animGearMaxComp7?$AA@
CONST	SEGMENT
??_C@_0BB@LEBNHBLG@animGearMaxComp7?$AA@ DB 'animGearMaxComp7', 00H ; `string'
CONST	ENDS
;	COMDAT ?max_exponent@?$numeric_limits@M@std@@2HB
CONST	SEGMENT
?max_exponent@?$numeric_limits@M@std@@2HB DD 080H	; std::numeric_limits<float>::max_exponent
CONST	ENDS
;	COMDAT ??_C@_0P@MBFCFDEG@fuelWingFrRate?$AA@
CONST	SEGMENT
??_C@_0P@MBFCFDEG@fuelWingFrRate?$AA@ DB 'fuelWingFrRate', 00H ; `string'
CONST	ENDS
;	COMDAT ??_C@_0BB@KNAGEAPH@animGearMaxComp6?$AA@
CONST	SEGMENT
??_C@_0BB@KNAGEAPH@animGearMaxComp6?$AA@ DB 'animGearMaxComp6', 00H ; `string'
CONST	ENDS
;	COMDAT ?max_digits10@?$numeric_limits@M@std@@2HB
CONST	SEGMENT
?max_digits10@?$numeric_limits@M@std@@2HB DD 09H	; std::numeric_limits<float>::max_digits10
CONST	ENDS
;	COMDAT ??_C@_0P@DNCJAOCD@fuelWingAlRate?$AA@
CONST	SEGMENT
??_C@_0P@DNCJAOCD@fuelWingAlRate?$AA@ DB 'fuelWingAlRate', 00H ; `string'
CONST	ENDS
;	COMDAT ?digits10@?$numeric_limits@M@std@@2HB
CONST	SEGMENT
?digits10@?$numeric_limits@M@std@@2HB DD 06H		; std::numeric_limits<float>::digits10
CONST	ENDS
;	COMDAT ??_C@_0BB@IGCLBDDE@animGearMaxComp5?$AA@
CONST	SEGMENT
??_C@_0BB@IGCLBDDE@animGearMaxComp5?$AA@ DB 'animGearMaxComp5', 00H ; `string'
CONST	ENDS
;	COMDAT ??_C@_0N@IKHLFJHF@fuelAft1Rate?$AA@
CONST	SEGMENT
??_C@_0N@IKHLFJHF@fuelAft1Rate?$AA@ DB 'fuelAft1Rate', 00H ; `string'
CONST	ENDS
;	COMDAT ?digits@?$numeric_limits@M@std@@2HB
CONST	SEGMENT
?digits@?$numeric_limits@M@std@@2HB DD 018H		; std::numeric_limits<float>::digits
CONST	ENDS
;	COMDAT ??_C@_0BB@JPDACCHF@animGearMaxComp4?$AA@
CONST	SEGMENT
??_C@_0BB@JPDACCHF@animGearMaxComp4?$AA@ DB 'animGearMaxComp4', 00H ; `string'
CONST	ENDS
;	COMDAT ??_C@_0N@DJNFJJMH@fuelFwd1Rate?$AA@
CONST	SEGMENT
??_C@_0N@DJNFJJMH@fuelFwd1Rate?$AA@ DB 'fuelFwd1Rate', 00H ; `string'
CONST	ENDS
;	COMDAT ??_C@_0BB@NAHBLELC@animGearMaxComp3?$AA@
CONST	SEGMENT
??_C@_0BB@NAHBLELC@animGearMaxComp3?$AA@ DB 'animGearMaxComp3', 00H ; `string'
CONST	ENDS
;	COMDAT ??_C@_0P@LHNAGDBB@fuelAftResRate?$AA@
CONST	SEGMENT
??_C@_0P@LHNAGDBB@fuelAftResRate?$AA@ DB 'fuelAftResRate', 00H ; `string'
CONST	ENDS
;	COMDAT ??_C@_0BB@MJGKIFPD@animGearMaxComp2?$AA@
CONST	SEGMENT
??_C@_0BB@MJGKIFPD@animGearMaxComp2?$AA@ DB 'animGearMaxComp2', 00H ; `string'
CONST	ENDS
;	COMDAT ??_C@_0P@PKEHNODF@fuelFwdResRate?$AA@
CONST	SEGMENT
??_C@_0P@PKEHNODF@fuelFwdResRate?$AA@ DB 'fuelFwdResRate', 00H ; `string'
CONST	ENDS
;	COMDAT ??_C@_0BB@OCEHNGDA@animGearMaxComp1?$AA@
CONST	SEGMENT
??_C@_0BB@OCEHNGDA@animGearMaxComp1?$AA@ DB 'animGearMaxComp1', 00H ; `string'
CONST	ENDS
;	COMDAT ??_C@_0L@INKNEIJA@fuelWingFr?$AA@
CONST	SEGMENT
??_C@_0L@INKNEIJA@fuelWingFr?$AA@ DB 'fuelWingFr', 00H	; `string'
CONST	ENDS
;	COMDAT ??_C@_0BE@LOHOPKAP@fuelGaugeMultiplier?$AA@
CONST	SEGMENT
??_C@_0BE@LOHOPKAP@fuelGaugeMultiplier?$AA@ DB 'fuelGaugeMultiplier', 00H ; `string'
CONST	ENDS
;	COMDAT ??_C@_02JAFMIPLB@?45?$AA@
CONST	SEGMENT
??_C@_02JAFMIPLB@?45?$AA@ DB '.5', 00H			; `string'
CONST	ENDS
;	COMDAT ??_C@_0L@FMKDGBMK@fuelWingAl?$AA@
CONST	SEGMENT
??_C@_0L@FMKDGBMK@fuelWingAl?$AA@ DB 'fuelWingAl', 00H	; `string'
CONST	ENDS
;	COMDAT ??_C@_0P@FLGCDGCB@animRefuelRate?$AA@
CONST	SEGMENT
??_C@_0P@FLGCDGCB@animRefuelRate?$AA@ DB 'animRefuelRate', 00H ; `string'
CONST	ENDS
;	COMDAT ??_C@_08JKPMDOPA@fuelAft1?$AA@
CONST	SEGMENT
??_C@_08JKPMDOPA@fuelAft1?$AA@ DB 'fuelAft1', 00H	; `string'
CONST	ENDS
;	COMDAT ??_C@_0BA@BONHMJJA@animRefuelAngle?$AA@
CONST	SEGMENT
??_C@_0BA@BONHMJJA@animRefuelAngle?$AA@ DB 'animRefuelAngle', 00H ; `string'
CONST	ENDS
;	COMDAT ??_C@_08NMFPHBGK@fuelFwd1?$AA@
CONST	SEGMENT
??_C@_08NMFPHBGK@fuelFwd1?$AA@ DB 'fuelFwd1', 00H	; `string'
CONST	ENDS
;	COMDAT ?digits10@?$numeric_limits@_K@std@@2HB
CONST	SEGMENT
?digits10@?$numeric_limits@_K@std@@2HB DD 013H		; std::numeric_limits<unsigned __int64>::digits10
CONST	ENDS
;	COMDAT ??_C@_0BB@CAKDJDK@animWheelRadius8?$AA@
CONST	SEGMENT
??_C@_0BB@CAKDJDK@animWheelRadius8?$AA@ DB 'animWheelRadius8', 00H ; `string'
CONST	ENDS
;	COMDAT ??_C@_0L@LGEABNPJ@fuelAftRes?$AA@
CONST	SEGMENT
??_C@_0L@LGEABNPJ@fuelAftRes?$AA@ DB 'fuelAftRes', 00H	; `string'
CONST	ENDS
;	COMDAT ?digits@?$numeric_limits@_K@std@@2HB
CONST	SEGMENT
?digits@?$numeric_limits@_K@std@@2HB DD 040H		; std::numeric_limits<unsigned __int64>::digits
CONST	ENDS
;	COMDAT ??_C@_0BB@IFJCCFPF@animWheelRadius7?$AA@
CONST	SEGMENT
??_C@_0BB@IFJCCFPF@animWheelRadius7?$AA@ DB 'animWheelRadius7', 00H ; `string'
CONST	ENDS
;	COMDAT ??_C@_0L@NLINGFML@fuelFwdRes?$AA@
CONST	SEGMENT
??_C@_0L@NLINGFML@fuelFwdRes?$AA@ DB 'fuelFwdRes', 00H	; `string'
CONST	ENDS
;	COMDAT ??_C@_04EJDHKJN@1200?$AA@
CONST	SEGMENT
??_C@_04EJDHKJN@1200?$AA@ DB '1200', 00H		; `string'
CONST	ENDS
;	COMDAT ?is_signed@?$numeric_limits@_K@std@@2_NB
CONST	SEGMENT
?is_signed@?$numeric_limits@_K@std@@2_NB DB 00H		; std::numeric_limits<unsigned __int64>::is_signed
CONST	ENDS
;	COMDAT ??_C@_0BB@JMIJBELE@animWheelRadius6?$AA@
CONST	SEGMENT
??_C@_0BB@JMIJBELE@animWheelRadius6?$AA@ DB 'animWheelRadius6', 00H ; `string'
CONST	ENDS
;	COMDAT ??_C@_0M@LMFGAHGM@minFuelFlow?$AA@
CONST	SEGMENT
??_C@_0M@LMFGAHGM@minFuelFlow?$AA@ DB 'minFuelFlow', 00H ; `string'
CONST	ENDS
;	COMDAT ??_C@_04FKMGDDPN@0?465?$AA@
CONST	SEGMENT
??_C@_04FKMGDDPN@0?465?$AA@ DB '0.65', 00H		; `string'
CONST	ENDS
;	COMDAT ??_C@_0BB@LHKEEHHH@animWheelRadius5?$AA@
CONST	SEGMENT
??_C@_0BB@LHKEEHHH@animWheelRadius5?$AA@ DB 'animWheelRadius5', 00H ; `string'
CONST	ENDS
;	COMDAT ??_C@_0BB@BAAFFDJJ@fuelFlowFactorAb?$AA@
CONST	SEGMENT
??_C@_0BB@BAAFFDJJ@fuelFlowFactorAb?$AA@ DB 'fuelFlowFactorAb', 00H ; `string'
CONST	ENDS
;	COMDAT ??_C@_0BB@KOLPHGDG@animWheelRadius4?$AA@
CONST	SEGMENT
??_C@_0BB@KOLPHGDG@animWheelRadius4?$AA@ DB 'animWheelRadius4', 00H ; `string'
CONST	ENDS
;	COMDAT ??_C@_0BF@EOKHKABM@fuelFlowFactorNormal?$AA@
CONST	SEGMENT
??_C@_0BF@EOKHKABM@fuelFlowFactorNormal?$AA@ DB 'fuelFlowFactorNormal', 00H ; `string'
CONST	ENDS
;	COMDAT ??_C@_0BB@OBPOOAPB@animWheelRadius3?$AA@
CONST	SEGMENT
??_C@_0BB@OBPOOAPB@animWheelRadius3?$AA@ DB 'animWheelRadius3', 00H ; `string'
CONST	ENDS
;	COMDAT ??_C@_0L@LEHPOGME@canopyRate?$AA@
CONST	SEGMENT
??_C@_0L@LEHPOGME@canopyRate?$AA@ DB 'canopyRate', 00H	; `string'
CONST	ENDS
;	COMDAT ??_C@_0BB@PIOFNBLA@animWheelRadius2?$AA@
CONST	SEGMENT
??_C@_0BB@PIOFNBLA@animWheelRadius2?$AA@ DB 'animWheelRadius2', 00H ; `string'
CONST	ENDS
;	COMDAT ??_C@_0P@MBLLMMCL@canopyMaxAngle?$AA@
CONST	SEGMENT
??_C@_0P@MBLLMMCL@canopyMaxAngle?$AA@ DB 'canopyMaxAngle', 00H ; `string'
CONST	ENDS
;	COMDAT ??_C@_0BB@NDMIICHD@animWheelRadius1?$AA@
CONST	SEGMENT
??_C@_0BB@NDMIICHD@animWheelRadius1?$AA@ DB 'animWheelRadius1', 00H ; `string'
CONST	ENDS
;	COMDAT ??_C@_0N@OFNOMJEG@elevatorRoll?$AA@
CONST	SEGMENT
??_C@_0N@OFNOMJEG@elevatorRoll?$AA@ DB 'elevatorRoll', 00H ; `string'
CONST	ENDS
;	COMDAT ??_C@_0BC@HNONPJMP@animSwingWingRate?$AA@
CONST	SEGMENT
??_C@_0BC@HNONPJMP@animSwingWingRate?$AA@ DB 'animSwingWingRate', 00H ; `string'
CONST	ENDS
;	COMDAT ??_C@_0L@KAMCINHG@rollCouple?$AA@
CONST	SEGMENT
??_C@_0L@KAMCINHG@rollCouple?$AA@ DB 'rollCouple', 00H	; `string'
CONST	ENDS
;	COMDAT ??_C@_03GIEOHKMB@170?$AA@
CONST	SEGMENT
??_C@_03GIEOHKMB@170?$AA@ DB '170', 00H			; `string'
CONST	ENDS
;	COMDAT ??_C@_0BF@PLAPPPDB@animSwingWingAngle10?$AA@
CONST	SEGMENT
??_C@_0BF@PLAPPPDB@animSwingWingAngle10?$AA@ DB 'animSwingWingAngle10', 00H ; `string'
CONST	ENDS
;	COMDAT ?digits10@?$numeric_limits@_J@std@@2HB
CONST	SEGMENT
?digits10@?$numeric_limits@_J@std@@2HB DD 012H		; std::numeric_limits<__int64>::digits10
CONST	ENDS
;	COMDAT ??_C@_0BC@PKELAEPB@dragChuteMaxSpeed?$AA@
CONST	SEGMENT
??_C@_0BC@PKELAEPB@dragChuteMaxSpeed?$AA@ DB 'dragChuteMaxSpeed', 00H ; `string'
CONST	ENDS
;	COMDAT ??_C@_0BE@DFLDOOPL@animSwingWingAngle9?$AA@
CONST	SEGMENT
??_C@_0BE@DFLDOOPL@animSwingWingAngle9?$AA@ DB 'animSwingWingAngle9', 00H ; `string'
CONST	ENDS
;	COMDAT ?digits@?$numeric_limits@_J@std@@2HB
CONST	SEGMENT
?digits@?$numeric_limits@_J@std@@2HB DD 03fH		; std::numeric_limits<__int64>::digits
CONST	ENDS
;	COMDAT ??_C@_0M@DIFEIBAM@dragChuteCd?$AA@
CONST	SEGMENT
??_C@_0M@DIFEIBAM@dragChuteCd?$AA@ DB 'dragChuteCd', 00H ; `string'
CONST	ENDS
;	COMDAT ??_C@_0BE@CMKINPLK@animSwingWingAngle8?$AA@
CONST	SEGMENT
??_C@_0BE@CMKINPLK@animSwingWingAngle8?$AA@ DB 'animSwingWingAngle8', 00H ; `string'
CONST	ENDS
;	COMDAT ??_C@_04GPFMAAKC@12?45?$AA@
CONST	SEGMENT
??_C@_04GPFMAAKC@12?45?$AA@ DB '12.5', 00H		; `string'
CONST	ENDS
;	COMDAT ?is_signed@?$numeric_limits@_J@std@@2_NB
CONST	SEGMENT
?is_signed@?$numeric_limits@_J@std@@2_NB DB 01H		; std::numeric_limits<__int64>::is_signed
CONST	ENDS
;	COMDAT ??_C@_0BE@KLDAMDHF@animSwingWingAngle7?$AA@
CONST	SEGMENT
??_C@_0BE@KLDAMDHF@animSwingWingAngle7?$AA@ DB 'animSwingWingAngle7', 00H ; `string'
CONST	ENDS
;	COMDAT ??_C@_0L@IGFNJGHF@landingAOA?$AA@
CONST	SEGMENT
??_C@_0L@IGFNJGHF@landingAOA?$AA@ DB 'landingAOA', 00H	; `string'
CONST	ENDS
;	COMDAT ??_C@_0BE@LCCLPCDE@animSwingWingAngle6?$AA@
CONST	SEGMENT
??_C@_0BE@LCCLPCDE@animSwingWingAngle6?$AA@ DB 'animSwingWingAngle6', 00H ; `string'
CONST	ENDS
;	COMDAT ??_C@_09LHPHPAOE@isComplex?$AA@
CONST	SEGMENT
??_C@_09LHPHPAOE@isComplex?$AA@ DB 'isComplex', 00H	; `string'
CONST	ENDS
;	COMDAT ??_C@_0BE@JJAGKBPH@animSwingWingAngle5?$AA@
CONST	SEGMENT
??_C@_0BE@JJAGKBPH@animSwingWingAngle5?$AA@ DB 'animSwingWingAngle5', 00H ; `string'
CONST	ENDS
;	COMDAT ??_C@_0N@BDJJDEFO@hasSwingWing?$AA@
CONST	SEGMENT
??_C@_0N@BDJJDEFO@hasSwingWing?$AA@ DB 'hasSwingWing', 00H ; `string'
CONST	ENDS
;	COMDAT ??_C@_0BE@IABNJALG@animSwingWingAngle4?$AA@
CONST	SEGMENT
??_C@_0BE@IABNJALG@animSwingWingAngle4?$AA@ DB 'animSwingWingAngle4', 00H ; `string'
CONST	ENDS
;	COMDAT ??_C@_0BB@DJMPKOMP@airbrakeMaxAngle?$AA@
CONST	SEGMENT
??_C@_0BB@DJMPKOMP@airbrakeMaxAngle?$AA@ DB 'airbrakeMaxAngle', 00H ; `string'
CONST	ENDS
;	COMDAT ??_C@_0BE@MPFMAGHB@animSwingWingAngle3?$AA@
CONST	SEGMENT
??_C@_0BE@MPFMAGHB@animSwingWingAngle3?$AA@ DB 'animSwingWingAngle3', 00H ; `string'
CONST	ENDS
;	COMDAT ??_C@_0P@NKLPKKNA@elevonMaxAngle?$AA@
CONST	SEGMENT
??_C@_0P@NKLPKKNA@elevonMaxAngle?$AA@ DB 'elevonMaxAngle', 00H ; `string'
CONST	ENDS
;	COMDAT ??_C@_0BE@NGEHDHDA@animSwingWingAngle2?$AA@
CONST	SEGMENT
??_C@_0BE@NGEHDHDA@animSwingWingAngle2?$AA@ DB 'animSwingWingAngle2', 00H ; `string'
CONST	ENDS
;	COMDAT ??_C@_0BA@DAANGMOP@aileronMaxAngle?$AA@
CONST	SEGMENT
??_C@_0BA@DAANGMOP@aileronMaxAngle?$AA@ DB 'aileronMaxAngle', 00H ; `string'
CONST	ENDS
;	COMDAT ??_C@_0BE@PNGKGEPD@animSwingWingAngle1?$AA@
CONST	SEGMENT
??_C@_0BE@PNGKGEPD@animSwingWingAngle1?$AA@ DB 'animSwingWingAngle1', 00H ; `string'
CONST	ENDS
;	COMDAT ??_C@_0P@CPLAGKKN@rudderMaxAngle?$AA@
CONST	SEGMENT
??_C@_0P@CPLAGKKN@rudderMaxAngle?$AA@ DB 'rudderMaxAngle', 00H ; `string'
CONST	ENDS
;	COMDAT ??_C@_06DCMGIAFF@0?41066?$AA@
CONST	SEGMENT
??_C@_06DCMGIAFF@0?41066?$AA@ DB '0.1066', 00H		; `string'
CONST	ENDS
;	COMDAT ?digits10@?$numeric_limits@K@std@@2HB
CONST	SEGMENT
?digits10@?$numeric_limits@K@std@@2HB DD 09H		; std::numeric_limits<unsigned long>::digits10
CONST	ENDS
;	COMDAT ??_C@_0BE@MDNADKOI@animSwingWingMach10?$AA@
CONST	SEGMENT
??_C@_0BE@MDNADKOI@animSwingWingMach10?$AA@ DB 'animSwingWingMach10', 00H ; `string'
CONST	ENDS
;	COMDAT ??_C@_09KGJKKOAF@area2Span?$AA@
CONST	SEGMENT
??_C@_09KGJKKOAF@area2Span?$AA@ DB 'area2Span', 00H	; `string'
CONST	ENDS
;	COMDAT ??_C@_03GPEHNCBN@130?$AA@
CONST	SEGMENT
??_C@_03GPEHNCBN@130?$AA@ DB '130', 00H			; `string'
CONST	ENDS
;	COMDAT ?digits@?$numeric_limits@K@std@@2HB
CONST	SEGMENT
?digits@?$numeric_limits@K@std@@2HB DD 020H		; std::numeric_limits<unsigned long>::digits
CONST	ENDS
;	COMDAT ??_C@_0BD@DCLEPDFJ@animSwingWingMach9?$AA@
CONST	SEGMENT
??_C@_0BD@DCLEPDFJ@animSwingWingMach9?$AA@ DB 'animSwingWingMach9', 00H ; `string'
CONST	ENDS
;	COMDAT ??_C@_0O@PIBNEHBN@flapVcasRange?$AA@
CONST	SEGMENT
??_C@_0O@PIBNEHBN@flapVcasRange?$AA@ DB 'flapVcasRange', 00H ; `string'
CONST	ENDS
;	COMDAT ?is_signed@?$numeric_limits@K@std@@2_NB
CONST	SEGMENT
?is_signed@?$numeric_limits@K@std@@2_NB DB 00H		; std::numeric_limits<unsigned long>::is_signed
CONST	ENDS
;	COMDAT ??_C@_03MCEHLCEK@370?$AA@
CONST	SEGMENT
??_C@_03MCEHLCEK@370?$AA@ DB '370', 00H			; `string'
CONST	ENDS
;	COMDAT ??_C@_0BD@CLKPMCBI@animSwingWingMach8?$AA@
CONST	SEGMENT
??_C@_0BD@CLKPMCBI@animSwingWingMach8?$AA@ DB 'animSwingWingMach8', 00H ; `string'
CONST	ENDS
;	COMDAT ??_C@_0M@JJPLLEKP@maxFlapVcas?$AA@
CONST	SEGMENT
??_C@_0M@JJPLLEKP@maxFlapVcas?$AA@ DB 'maxFlapVcas', 00H ; `string'
CONST	ENDS
;	COMDAT ??_C@_0BD@KMDHNONH@animSwingWingMach7?$AA@
CONST	SEGMENT
??_C@_0BD@KMDHNONH@animSwingWingMach7?$AA@ DB 'animSwingWingMach7', 00H ; `string'
CONST	ENDS
;	COMDAT ??_C@_0BB@DHHKEFDE@flapGearRelative?$AA@
CONST	SEGMENT
??_C@_0BB@DHHKEFDE@flapGearRelative?$AA@ DB 'flapGearRelative', 00H ; `string'
CONST	ENDS
;	COMDAT ??_C@_0BD@LFCMOPJG@animSwingWingMach6?$AA@
CONST	SEGMENT
??_C@_0BD@LFCMOPJG@animSwingWingMach6?$AA@ DB 'animSwingWingMach6', 00H ; `string'
CONST	ENDS
;	COMDAT ??_C@_04HFGGBMIM@0?406?$AA@
CONST	SEGMENT
??_C@_04HFGGBMIM@0?406?$AA@ DB '0.06', 00H		; `string'
CONST	ENDS
;	COMDAT ??_C@_0BD@JOABLMFF@animSwingWingMach5?$AA@
CONST	SEGMENT
??_C@_0BD@JOABLMFF@animSwingWingMach5?$AA@ DB 'animSwingWingMach5', 00H ; `string'
CONST	ENDS
;	COMDAT ??_C@_0M@BNIHJKP@CDLDGFactor?$AA@
CONST	SEGMENT
??_C@_0M@BNIHJKP@CDLDGFactor?$AA@ DB 'CDLDGFactor', 00H	; `string'
CONST	ENDS
;	COMDAT ??_C@_04OLOFDBAC@0?408?$AA@
CONST	SEGMENT
??_C@_04OLOFDBAC@0?408?$AA@ DB '0.08', 00H		; `string'
CONST	ENDS
;	COMDAT ??_C@_0BD@IHBKINBE@animSwingWingMach4?$AA@
CONST	SEGMENT
??_C@_0BD@IHBKINBE@animSwingWingMach4?$AA@ DB 'animSwingWingMach4', 00H ; `string'
CONST	ENDS
;	COMDAT ??_C@_0N@PDBJFDOC@CDSPDBFactor?$AA@
CONST	SEGMENT
??_C@_0N@PDBJFDOC@CDSPDBFactor?$AA@ DB 'CDSPDBFactor', 00H ; `string'
CONST	ENDS
;	COMDAT ??_C@_03MDAFIFFL@0?40?$AA@
CONST	SEGMENT
??_C@_03MDAFIFFL@0?40?$AA@ DB '0.0', 00H		; `string'
CONST	ENDS
;	COMDAT ??_C@_0BD@MIFLBLND@animSwingWingMach3?$AA@
CONST	SEGMENT
??_C@_0BD@MIFLBLND@animSwingWingMach3?$AA@ DB 'animSwingWingMach3', 00H ; `string'
CONST	ENDS
;	COMDAT ??_C@_0M@OONDIOFH@CDlefFactor?$AA@
CONST	SEGMENT
??_C@_0M@OONDIOFH@CDlefFactor?$AA@ DB 'CDlefFactor', 00H ; `string'
CONST	ENDS
;	COMDAT ??_C@_0BD@NBEACKJC@animSwingWingMach2?$AA@
CONST	SEGMENT
??_C@_0BD@NBEACKJC@animSwingWingMach2?$AA@ DB 'animSwingWingMach2', 00H ; `string'
CONST	ENDS
;	COMDAT ??_C@_0L@CADFKDGN@lefNStages?$AA@
CONST	SEGMENT
??_C@_0L@CADFKDGN@lefNStages?$AA@ DB 'lefNStages', 00H	; `string'
CONST	ENDS
;	COMDAT ??_C@_0BD@PKGNHJFB@animSwingWingMach1?$AA@
CONST	SEGMENT
??_C@_0BD@PKGNHJFB@animSwingWingMach1?$AA@ DB 'animSwingWingMach1', 00H ; `string'
CONST	ENDS
;	COMDAT ?digits10@?$numeric_limits@J@std@@2HB
CONST	SEGMENT
?digits10@?$numeric_limits@J@std@@2HB DD 09H		; std::numeric_limits<long>::digits10
CONST	ENDS
;	COMDAT ??_C@_0L@GKGFPKHP@lefMaxMach?$AA@
CONST	SEGMENT
??_C@_0L@GKGFPKHP@lefMaxMach?$AA@ DB 'lefMaxMach', 00H	; `string'
CONST	ENDS
;	COMDAT ??_C@_0BE@DFGIJHMP@animSwingWingStages?$AA@
CONST	SEGMENT
??_C@_0BE@DFGIJHMP@animSwingWingStages?$AA@ DB 'animSwingWingStages', 00H ; `string'
CONST	ENDS
;	COMDAT ?digits@?$numeric_limits@J@std@@2HB
CONST	SEGMENT
?digits@?$numeric_limits@J@std@@2HB DD 01fH		; std::numeric_limits<long>::digits
CONST	ENDS
;	COMDAT ??_C@_0M@KFKDPOJE@lefMaxAngle?$AA@
CONST	SEGMENT
??_C@_0M@KFKDPOJE@lefMaxAngle?$AA@ DB 'lefMaxAngle', 00H ; `string'
CONST	ENDS
;	COMDAT ??_C@_02NNFLKHCP@?92?$AA@
CONST	SEGMENT
??_C@_02NNFLKHCP@?92?$AA@ DB '-2', 00H			; `string'
CONST	ENDS
;	COMDAT ??_C@_0BA@DGEKNLDM@animAileronRate?$AA@
CONST	SEGMENT
??_C@_0BA@DGEKNLDM@animAileronRate?$AA@ DB 'animAileronRate', 00H ; `string'
CONST	ENDS
;	COMDAT ?is_signed@?$numeric_limits@J@std@@2_NB
CONST	SEGMENT
?is_signed@?$numeric_limits@J@std@@2_NB DB 01H		; std::numeric_limits<long>::is_signed
CONST	ENDS
;	COMDAT ??_C@_09BEMDABCG@lefGround?$AA@
CONST	SEGMENT
??_C@_09BEMDABCG@lefGround?$AA@ DB 'lefGround', 00H	; `string'
CONST	ENDS
;	COMDAT ??_C@_0BB@HCDBCALD@dataLinkCapLevel?$AA@
CONST	SEGMENT
??_C@_0BB@HCDBCALD@dataLinkCapLevel?$AA@ DB 'dataLinkCapLevel', 00H ; `string'
CONST	ENDS
;	COMDAT ??_C@_06LGJEGIM@hasLef?$AA@
CONST	SEGMENT
??_C@_06LGJEGIM@hasLef?$AA@ DB 'hasLef', 00H		; `string'
CONST	ENDS
;	COMDAT ??_C@_0BD@BNBKPFBH@hasProgrammableEWS?$AA@
CONST	SEGMENT
??_C@_0BD@BNBKPFBH@hasProgrammableEWS?$AA@ DB 'hasProgrammableEWS', 00H ; `string'
CONST	ENDS
;	COMDAT ??_C@_07BPILOEPA@25000?40?$AA@
CONST	SEGMENT
??_C@_07BPILOEPA@25000?40?$AA@ DB '25000.0', 00H	; `string'
CONST	ENDS
;	COMDAT ??_C@_07JAIBEJME@lefRate?$AA@
CONST	SEGMENT
??_C@_07JAIBEJME@lefRate?$AA@ DB 'lefRate', 00H		; `string'
CONST	ENDS
;	COMDAT ??_C@_0N@INPHAJJJ@maxLasingAlt?$AA@
CONST	SEGMENT
??_C@_0N@INPHAJJJ@maxLasingAlt?$AA@ DB 'maxLasingAlt', 00H ; `string'
CONST	ENDS
;	COMDAT ??_C@_07DPNPGDFK@tefRate?$AA@
CONST	SEGMENT
??_C@_07DPNPGDFK@tefRate?$AA@ DB 'tefRate', 00H		; `string'
CONST	ENDS
;	COMDAT ??_C@_0BJ@PHCEDKJD@catapultThrustMultiplier?$AA@
CONST	SEGMENT
??_C@_0BJ@PHCEDKJD@catapultThrustMultiplier?$AA@ DB 'catapultThrustMultip'
	DB	'lier', 00H					; `string'
CONST	ENDS
;	COMDAT ??_C@_0L@BBMAHJFH@tefTakeoff?$AA@
CONST	SEGMENT
??_C@_0L@BBMAHJFH@tefTakeoff?$AA@ DB 'tefTakeoff', 00H	; `string'
CONST	ENDS
;	COMDAT ??_C@_0P@OGPLCOBN@animThrRevRate?$AA@
CONST	SEGMENT
??_C@_0P@OGPLCOBN@animThrRevRate?$AA@ DB 'animThrRevRate', 00H ; `string'
CONST	ENDS
;	COMDAT ??_C@_0L@DEAAIGOD@tefNStages?$AA@
CONST	SEGMENT
??_C@_0L@DEAAIGOD@tefNStages?$AA@ DB 'tefNStages', 00H	; `string'
CONST	ENDS
;	COMDAT ??_C@_0BA@DBAFCMAP@animThrRevAngle?$AA@
CONST	SEGMENT
??_C@_0BA@DBAFCMAP@animThrRevAngle?$AA@ DB 'animThrRevAngle', 00H ; `string'
CONST	ENDS
;	COMDAT ??_C@_0M@NKKKEPEL@CDtefFactor?$AA@
CONST	SEGMENT
??_C@_0M@NKKKEPEL@CDtefFactor?$AA@ DB 'CDtefFactor', 00H ; `string'
CONST	ENDS
;	COMDAT ??_C@_04FOELEPEP@0?405?$AA@
CONST	SEGMENT
??_C@_04FOELEPEP@0?405?$AA@ DB '0.05', 00H		; `string'
CONST	ENDS
;	COMDAT ??_C@_0N@BEHKKBPD@animHookRate?$AA@
CONST	SEGMENT
??_C@_0N@BEHKKBPD@animHookRate?$AA@ DB 'animHookRate', 00H ; `string'
CONST	ENDS
;	COMDAT ??_C@_04KACOAHM@60?40?$AA@
CONST	SEGMENT
??_C@_04KACOAHM@60?40?$AA@ DB '60.0', 00H		; `string'
CONST	ENDS
;	COMDAT ?digits10@?$numeric_limits@I@std@@2HB
CONST	SEGMENT
?digits10@?$numeric_limits@I@std@@2HB DD 09H		; std::numeric_limits<unsigned int>::digits10
CONST	ENDS
;	COMDAT ??_C@_0M@GAGJKOAO@CLtefFactor?$AA@
CONST	SEGMENT
??_C@_0M@GAGJKOAO@CLtefFactor?$AA@ DB 'CLtefFactor', 00H ; `string'
CONST	ENDS
;	COMDAT ??_C@_01FDFGLJHB@2?$AA@
CONST	SEGMENT
??_C@_01FDFGLJHB@2?$AA@ DB '2', 00H			; `string'
CONST	ENDS
;	COMDAT ??_C@_0O@HGEFGCPP@animHookAngle?$AA@
CONST	SEGMENT
??_C@_0O@HGEFGCPP@animHookAngle?$AA@ DB 'animHookAngle', 00H ; `string'
CONST	ENDS
;	COMDAT ?digits@?$numeric_limits@I@std@@2HB
CONST	SEGMENT
?digits@?$numeric_limits@I@std@@2HB DD 020H		; std::numeric_limits<unsigned int>::digits
CONST	ENDS
;	COMDAT ??_C@_06JOMEDJPM@hasTef?$AA@
CONST	SEGMENT
??_C@_06JOMEDJPM@hasTef?$AA@ DB 'hasTef', 00H		; `string'
CONST	ENDS
;	COMDAT ??_C@_0BF@FDFIHJON@animWingFlashOffTime?$AA@
CONST	SEGMENT
??_C@_0BF@FDFIHJON@animWingFlashOffTime?$AA@ DB 'animWingFlashOffTime', 00H ; `string'
CONST	ENDS
;	COMDAT ?is_signed@?$numeric_limits@I@std@@2_NB
CONST	SEGMENT
?is_signed@?$numeric_limits@I@std@@2_NB DB 00H		; std::numeric_limits<unsigned int>::is_signed
CONST	ENDS
;	COMDAT ??_C@_0O@BBECKCPK@hasFlapperons?$AA@
CONST	SEGMENT
??_C@_0O@BBECKCPK@hasFlapperons?$AA@ DB 'hasFlapperons', 00H ; `string'
CONST	ENDS
;	COMDAT ??_C@_0BE@CMBBCDAG@animWingFlashOnTime?$AA@
CONST	SEGMENT
??_C@_0BE@CMBBCDAG@animWingFlashOnTime?$AA@ DB 'animWingFlashOnTime', 00H ; `string'
CONST	ENDS
;	COMDAT ??_C@_02PIBHCBOA@20?$AA@
CONST	SEGMENT
??_C@_02PIBHCBOA@20?$AA@ DB '20', 00H			; `string'
CONST	ENDS
;	COMDAT ??_C@_0BC@EGEJDIA@animStrobeOffTime?$AA@
CONST	SEGMENT
??_C@_0BC@EGEJDIA@animStrobeOffTime?$AA@ DB 'animStrobeOffTime', 00H ; `string'
CONST	ENDS
;	COMDAT ??_C@_0M@KPLHGFJG@tefMaxAngle?$AA@
CONST	SEGMENT
??_C@_0M@KPLHGFJG@tefMaxAngle?$AA@ DB 'tefMaxAngle', 00H ; `string'
CONST	ENDS
;	COMDAT ??_C@_0BB@HIEOGLHC@animStrobeOnTime?$AA@
CONST	SEGMENT
??_C@_0BB@HIEOGLHC@animStrobeOnTime?$AA@ DB 'animStrobeOnTime', 00H ; `string'
CONST	ENDS
;	COMDAT ??_C@_08CMPNDEFD@sinkRate?$AA@
CONST	SEGMENT
??_C@_08CMPNDEFD@sinkRate?$AA@ DB 'sinkRate', 00H	; `string'
CONST	ENDS
;	COMDAT ??_C@_03LNMAPFD@0?48?$AA@
CONST	SEGMENT
??_C@_03LNMAPFD@0?48?$AA@ DB '0.8', 00H			; `string'
CONST	ENDS
;	COMDAT ??_C@_0P@GPGFMHEA@animExhNozRate?$AA@
CONST	SEGMENT
??_C@_0P@GPGFMHEA@animExhNozRate?$AA@ DB 'animExhNozRate', 00H ; `string'
CONST	ENDS
;	COMDAT ??_C@_0O@PNOFGCMO@pitchGearGain?$AA@
CONST	SEGMENT
??_C@_0O@PNOFGCMO@pitchGearGain?$AA@ DB 'pitchGearGain', 00H ; `string'
CONST	ENDS
;	COMDAT ??_C@_0N@CHEBONCK@animExhNozAB?$AA@
CONST	SEGMENT
??_C@_0N@CHEBONCK@animExhNozAB?$AA@ DB 'animExhNozAB', 00H ; `string'
CONST	ENDS
;	COMDAT ??_C@_0M@CEOENMNP@yawGearGain?$AA@
CONST	SEGMENT
??_C@_0M@CEOENMNP@yawGearGain?$AA@ DB 'yawGearGain', 00H ; `string'
CONST	ENDS
;	COMDAT ??_C@_0O@GMBKLKCJ@animExhNozMil?$AA@
CONST	SEGMENT
??_C@_0O@GMBKLKCJ@animExhNozMil?$AA@ DB 'animExhNozMil', 00H ; `string'
CONST	ENDS
;	COMDAT ??_C@_0N@HNBCOKPJ@rollGearGain?$AA@
CONST	SEGMENT
??_C@_0N@HNBCOKPJ@rollGearGain?$AA@ DB 'rollGearGain', 00H ; `string'
CONST	ENDS
;	COMDAT ??_C@_03NKBOLEBK@0?41?$AA@
CONST	SEGMENT
??_C@_03NKBOLEBK@0?41?$AA@ DB '0.1', 00H		; `string'
CONST	ENDS
;	COMDAT ??_C@_0P@FNLOGDCJ@animExhNozIdle?$AA@
CONST	SEGMENT
??_C@_0P@FNLOGDCJ@animExhNozIdle?$AA@ DB 'animExhNozIdle', 00H ; `string'
CONST	ENDS
;	COMDAT ??_C@_0BA@GDKBHNBP@gearPitchFactor?$AA@
CONST	SEGMENT
??_C@_0BA@GDKBHNBP@gearPitchFactor?$AA@ DB 'gearPitchFactor', 00H ; `string'
CONST	ENDS
;	COMDAT ?digits10@?$numeric_limits@H@std@@2HB
CONST	SEGMENT
?digits10@?$numeric_limits@H@std@@2HB DD 09H		; std::numeric_limits<int>::digits10
CONST	ENDS
;	COMDAT ??_C@_0BF@KKNHBHDB@animSpoiler2AirBrake?$AA@
CONST	SEGMENT
??_C@_0BF@KKNHBHDB@animSpoiler2AirBrake?$AA@ DB 'animSpoiler2AirBrake', 00H ; `string'
CONST	ENDS
;	COMDAT ??_C@_0BA@JBKMIKEN@pitchElasticity?$AA@
CONST	SEGMENT
??_C@_0BA@JBKMIKEN@pitchElasticity?$AA@ DB 'pitchElasticity', 00H ; `string'
CONST	ENDS
;	COMDAT ?digits@?$numeric_limits@H@std@@2HB
CONST	SEGMENT
?digits@?$numeric_limits@H@std@@2HB DD 01fH		; std::numeric_limits<int>::digits
CONST	ENDS
;	COMDAT ??_C@_0BL@NGKLDLDO@animSpoiler2OffAtWingSweep?$AA@
CONST	SEGMENT
??_C@_0BL@NGKLDLDO@animSpoiler2OffAtWingSweep?$AA@ DB 'animSpoiler2OffAtW'
	DB	'ingSweep', 00H				; `string'
CONST	ENDS
;	COMDAT ?value@?$_Sizeof@HU_Nil@std@@U12@U12@U12@U12@U12@U12@@std@@2IB
CONST	SEGMENT
?value@?$_Sizeof@HU_Nil@std@@U12@U12@U12@U12@U12@U12@@std@@2IB DD 01H ; std::_Sizeof<int,std::_Nil,std::_Nil,std::_Nil,std::_Nil,std::_Nil,std::_Nil,std::_Nil>::value
CONST	ENDS
;	COMDAT ??_C@_0M@GMHOPBNB@yawMomentum?$AA@
CONST	SEGMENT
??_C@_0M@GMHOPBNB@yawMomentum?$AA@ DB 'yawMomentum', 00H ; `string'
CONST	ENDS
;	COMDAT ?is_signed@?$numeric_limits@H@std@@2_NB
CONST	SEGMENT
?is_signed@?$numeric_limits@H@std@@2_NB DB 01H		; std::numeric_limits<int>::is_signed
CONST	ENDS
;	COMDAT ??_C@_0BB@DAANDLLK@animSpoiler2Rate?$AA@
CONST	SEGMENT
??_C@_0BB@DAANDLLK@animSpoiler2Rate?$AA@ DB 'animSpoiler2Rate', 00H ; `string'
CONST	ENDS
;	COMDAT ??_C@_0O@LFHPEPMA@pitchMomentum?$AA@
CONST	SEGMENT
??_C@_0O@LFHPEPMA@pitchMomentum?$AA@ DB 'pitchMomentum', 00H ; `string'
CONST	ENDS
;	COMDAT ??_C@_01HIHLOKLC@1?$AA@
CONST	SEGMENT
??_C@_01HIHLOKLC@1?$AA@ DB '1', 00H			; `string'
CONST	ENDS
;	COMDAT ??_C@_0BA@CBNDMOPN@animSpoiler2Max?$AA@
CONST	SEGMENT
??_C@_0BA@CBNDMOPN@animSpoiler2Max?$AA@ DB 'animSpoiler2Max', 00H ; `string'
CONST	ENDS
;	COMDAT ??_C@_0N@DFIIMHPH@rollMomentum?$AA@
CONST	SEGMENT
??_C@_0N@DFIIMHPH@rollMomentum?$AA@ DB 'rollMomentum', 00H ; `string'
CONST	ENDS
;	COMDAT ??_C@_0BF@EBOAKMDC@animSpoiler1AirBrake?$AA@
CONST	SEGMENT
??_C@_0BF@EBOAKMDC@animSpoiler1AirBrake?$AA@ DB 'animSpoiler1AirBrake', 00H ; `string'
CONST	ENDS
;	COMDAT ??_C@_04DHGCMJMM@70?40?$AA@
CONST	SEGMENT
??_C@_04DHGCMJMM@70?40?$AA@ DB '70.0', 00H		; `string'
CONST	ENDS
;	COMDAT ??_C@_0BJ@CAGNIPEK@engineDamageHitThreshold?$AA@
CONST	SEGMENT
??_C@_0BJ@CAGNIPEK@engineDamageHitThreshold?$AA@ DB 'engineDamageHitThres'
	DB	'hold', 00H					; `string'
CONST	ENDS
;	COMDAT ??_C@_02PNFIDHGF@50?$AA@
CONST	SEGMENT
??_C@_02PNFIDHGF@50?$AA@ DB '50', 00H			; `string'
CONST	ENDS
;	COMDAT ??_C@_0BL@PPGDIPMM@animSpoiler1OffAtWingSweep?$AA@
CONST	SEGMENT
??_C@_0BL@PPGDIPMM@animSpoiler1OffAtWingSweep?$AA@ DB 'animSpoiler1OffAtW'
	DB	'ingSweep', 00H				; `string'
CONST	ENDS
;	COMDAT ??_C@_04EHBMEDCO@45?40?$AA@
CONST	SEGMENT
??_C@_04EHBMEDCO@45?40?$AA@ DB '45.0', 00H		; `string'
CONST	ENDS
;	COMDAT ??_C@_0BP@BNNPMIOP@engineDamageNoRestartThreshold?$AA@
CONST	SEGMENT
??_C@_0BP@BNNPMIOP@engineDamageNoRestartThreshold?$AA@ DB 'engineDamageNo'
	DB	'RestartThreshold', 00H			; `string'
CONST	ENDS
;	COMDAT ??_C@_02NBHMMMHK@13?$AA@
CONST	SEGMENT
??_C@_02NBHMMMHK@13?$AA@ DB '13', 00H			; `string'
CONST	ENDS
;	COMDAT ??_C@_0BB@LGJJEJBE@animSpoiler1Rate?$AA@
CONST	SEGMENT
??_C@_0BB@LGJJEJBE@animSpoiler1Rate?$AA@ DB 'animSpoiler1Rate', 00H ; `string'
CONST	ENDS
;	COMDAT ??_C@_0BK@PIBAPEKB@engineDamageStopThreshold?$AA@
CONST	SEGMENT
??_C@_0BK@PIBAPEKB@engineDamageStopThreshold?$AA@ DB 'engineDamageStopThr'
	DB	'eshold', 00H				; `string'
CONST	ENDS
;	COMDAT ??_C@_0BA@GGHDLECN@animSpoiler1Max?$AA@
CONST	SEGMENT
??_C@_0BA@GGHDLECN@animSpoiler1Max?$AA@ DB 'animSpoiler1Max', 00H ; `string'
CONST	ENDS
;	COMDAT ??_C@_01GBGANLPD@0?$AA@
CONST	SEGMENT
??_C@_01GBGANLPD@0?$AA@ DB '0', 00H			; `string'
CONST	ENDS
;	COMDAT ??_C@_0BC@BGDMIBBD@animEngineRPMMult?$AA@
CONST	SEGMENT
??_C@_0BC@BGDMIBBD@animEngineRPMMult?$AA@ DB 'animEngineRPMMult', 00H ; `string'
CONST	ENDS
;	COMDAT ??_C@_0BF@ODFMFFPH@DeepStallEngineStall?$AA@
CONST	SEGMENT
??_C@_0BF@ODFMFFPH@DeepStallEngineStall?$AA@ DB 'DeepStallEngineStall', 00H ; `string'
CONST	ENDS
;	COMDAT ??_C@_03PANGFEPN@600?$AA@
CONST	SEGMENT
??_C@_03PANGFEPN@600?$AA@ DB '600', 00H			; `string'
CONST	ENDS
;	COMDAT ?digits10@?$numeric_limits@G@std@@2HB
CONST	SEGMENT
?digits10@?$numeric_limits@G@std@@2HB DD 04H		; std::numeric_limits<unsigned short>::digits10
CONST	ENDS
;	COMDAT ??_C@_0BA@FCOIDOAL@AddMARIdedSpike?$AA@
CONST	SEGMENT
??_C@_0BA@FCOIDOAL@AddMARIdedSpike?$AA@ DB 'AddMARIdedSpike', 00H ; `string'
CONST	ENDS
;	COMDAT ??_C@_0M@FEHMDDOJ@epuBurnTime?$AA@
CONST	SEGMENT
??_C@_0M@FEHMDDOJ@epuBurnTime?$AA@ DB 'epuBurnTime', 00H ; `string'
CONST	ENDS
;	COMDAT ??_C@_03JFFPCCNN@0?46?$AA@
CONST	SEGMENT
??_C@_03JFFPCCNN@0?46?$AA@ DB '0.6', 00H		; `string'
CONST	ENDS
;	COMDAT ?digits@?$numeric_limits@G@std@@2HB
CONST	SEGMENT
?digits@?$numeric_limits@G@std@@2HB DD 010H		; std::numeric_limits<unsigned short>::digits
CONST	ENDS
;	COMDAT ??_C@_0O@KMBPOOLM@AddMARIded28k?$AA@
CONST	SEGMENT
??_C@_0O@KMBPOOLM@AddMARIded28k?$AA@ DB 'AddMARIded28k', 00H ; `string'
CONST	ENDS
;	COMDAT ??_C@_0L@NHKBNKDL@stbyGenRpm?$AA@
CONST	SEGMENT
??_C@_0L@NHKBNKDL@stbyGenRpm?$AA@ DB 'stbyGenRpm', 00H	; `string'
CONST	ENDS
;	COMDAT ?is_signed@?$numeric_limits@G@std@@2_NB
CONST	SEGMENT
?is_signed@?$numeric_limits@G@std@@2_NB DB 00H		; std::numeric_limits<unsigned short>::is_signed
CONST	ENDS
;	COMDAT ??_C@_04MJMJEHL@0?463?$AA@
CONST	SEGMENT
??_C@_04MJMJEHL@0?463?$AA@ DB '0.63', 00H		; `string'
CONST	ENDS
;	COMDAT ??_C@_0O@LOKKEBFC@AddMARIded18k?$AA@
CONST	SEGMENT
??_C@_0O@LOKKEBFC@AddMARIded18k?$AA@ DB 'AddMARIded18k', 00H ; `string'
CONST	ENDS
;	COMDAT ??_C@_0L@BOINNJLF@mainGenRpm?$AA@
CONST	SEGMENT
??_C@_0L@BOINNJLF@mainGenRpm?$AA@ DB 'mainGenRpm', 00H	; `string'
CONST	ENDS
;	COMDAT ??_C@_0N@ONKOFMOJ@AddMARIded5k?$AA@
CONST	SEGMENT
??_C@_0N@ONKOFMOJ@AddMARIded5k?$AA@ DB 'AddMARIded5k', 00H ; `string'
CONST	ENDS
;	COMDAT ??_C@_03HILNGLHG@240?$AA@
CONST	SEGMENT
??_C@_03HILNGLHG@240?$AA@ DB '240', 00H			; `string'
CONST	ENDS
;	COMDAT ??_C@_0BA@PKBAMLMJ@MaxMARIdedStart?$AA@
CONST	SEGMENT
??_C@_0BA@PKBAMLMJ@MaxMARIdedStart?$AA@ DB 'MaxMARIdedStart', 00H ; `string'
CONST	ENDS
;	COMDAT ??_C@_0M@PLDHECDF@jfsSpinTime?$AA@
CONST	SEGMENT
??_C@_0M@PLDHECDF@jfsSpinTime?$AA@ DB 'jfsSpinTime', 00H ; `string'
CONST	ENDS
;	COMDAT ??_C@_04BAMILDLP@0?412?$AA@
CONST	SEGMENT
??_C@_04BAMILDLP@0?412?$AA@ DB '0.12', 00H		; `string'
CONST	ENDS
;	COMDAT ??_C@_09NKGPFIFF@MinTGTMAR?$AA@
CONST	SEGMENT
??_C@_09NKGPFIFF@MinTGTMAR?$AA@ DB 'MinTGTMAR', 00H	; `string'
CONST	ENDS
;	COMDAT ??_C@_0BC@EFCFALDL@jfsMinRechargeRpm?$AA@
CONST	SEGMENT
??_C@_0BC@EFCFALDL@jfsMinRechargeRpm?$AA@ DB 'jfsMinRechargeRpm', 00H ; `string'
CONST	ENDS
;	COMDAT ??_C@_02PPBOIJDM@60?$AA@
CONST	SEGMENT
??_C@_02PPBOIJDM@60?$AA@ DB '60', 00H			; `string'
CONST	ENDS
;	COMDAT ??_C@_0P@IPDBJBKN@LantirnCameraZ?$AA@
CONST	SEGMENT
??_C@_0P@IPDBJBKN@LantirnCameraZ?$AA@ DB 'LantirnCameraZ', 00H ; `string'
CONST	ENDS
;	COMDAT ??_C@_0BA@JKCAFAIK@jfsRechargeTime?$AA@
CONST	SEGMENT
??_C@_0BA@JKCAFAIK@jfsRechargeTime?$AA@ DB 'jfsRechargeTime', 00H ; `string'
CONST	ENDS
;	COMDAT ??_C@_01BMBHCPLG@5?$AA@
CONST	SEGMENT
??_C@_01BMBHCPLG@5?$AA@ DB '5', 00H			; `string'
CONST	ENDS
;	COMDAT ??_C@_0P@KEBMMCGO@LantirnCameraY?$AA@
CONST	SEGMENT
??_C@_0P@KEBMMCGO@LantirnCameraY?$AA@ DB 'LantirnCameraY', 00H ; `string'
CONST	ENDS
;	COMDAT ??_C@_04LICCDMGM@10?40?$AA@
CONST	SEGMENT
??_C@_04LICCDMGM@10?40?$AA@ DB '10.0', 00H		; `string'
CONST	ENDS
;	COMDAT ??_C@_0BC@EOOAIFHM@flameoutSpoolRate?$AA@
CONST	SEGMENT
??_C@_0BC@EOOAIFHM@flameoutSpoolRate?$AA@ DB 'flameoutSpoolRate', 00H ; `string'
CONST	ENDS
;	COMDAT ??_C@_02PKFBJPLJ@10?$AA@
CONST	SEGMENT
??_C@_02PKFBJPLJ@10?$AA@ DB '10', 00H			; `string'
CONST	ENDS
;	COMDAT ??_C@_0P@LNAHPDCP@LantirnCameraX?$AA@
CONST	SEGMENT
??_C@_0P@LNAHPDCP@LantirnCameraX?$AA@ DB 'LantirnCameraX', 00H ; `string'
CONST	ENDS
;	COMDAT ??_C@_03HLLJOCDO@1?40?$AA@
CONST	SEGMENT
??_C@_03HLLJOCDO@1?40?$AA@ DB '1.0', 00H		; `string'
CONST	ENDS
;	COMDAT ??_C@_0BB@EJFCDHKA@lightupSpoolRate?$AA@
CONST	SEGMENT
??_C@_0BB@EJFCDHKA@lightupSpoolRate?$AA@ DB 'lightupSpoolRate', 00H ; `string'
CONST	ENDS
;	COMDAT ?digits10@?$numeric_limits@F@std@@2HB
CONST	SEGMENT
?digits10@?$numeric_limits@F@std@@2HB DD 04H		; std::numeric_limits<short>::digits10
CONST	ENDS
;	COMDAT ??_C@_04FNMPJLCB@0?425?$AA@
CONST	SEGMENT
??_C@_04FNMPJLCB@0?425?$AA@ DB '0.25', 00H		; `string'
CONST	ENDS
;	COMDAT ??_C@_0BC@KJKEPGBI@TFR_GammaCorrMult?$AA@
CONST	SEGMENT
??_C@_0BC@KJKEPGBI@TFR_GammaCorrMult?$AA@ DB 'TFR_GammaCorrMult', 00H ; `string'
CONST	ENDS
;	COMDAT ??_C@_03BCMHDOBC@0?49?$AA@
CONST	SEGMENT
??_C@_03BCMHDOBC@0?49?$AA@ DB '0.9', 00H		; `string'
CONST	ENDS
;	COMDAT ?digits@?$numeric_limits@F@std@@2HB
CONST	SEGMENT
?digits@?$numeric_limits@F@std@@2HB DD 0fH		; std::numeric_limits<short>::digits
CONST	ENDS
;	COMDAT ??_C@_0BA@DJOOIAFH@jfsSpoolUpLimit?$AA@
CONST	SEGMENT
??_C@_0BA@DJOOIAFH@jfsSpoolUpLimit?$AA@ DB 'jfsSpoolUpLimit', 00H ; `string'
CONST	ENDS
;	COMDAT ??_C@_02IHCGGLPM@15?$AA@
CONST	SEGMENT
??_C@_02IHCGGLPM@15?$AA@ DB '15', 00H			; `string'
CONST	ENDS
;	COMDAT ??_C@_0BA@EGBIMHGN@EVA2_HardFactor?$AA@
CONST	SEGMENT
??_C@_0BA@EGBIMHGN@EVA2_HardFactor?$AA@ DB 'EVA2_HardFactor', 00H ; `string'
CONST	ENDS
;	COMDAT ??_C@_03EJIPIALM@1?42?$AA@
CONST	SEGMENT
??_C@_03EJIPIALM@1?42?$AA@ DB '1.2', 00H		; `string'
CONST	ENDS
;	COMDAT ?is_signed@?$numeric_limits@F@std@@2_NB
CONST	SEGMENT
?is_signed@?$numeric_limits@F@std@@2_NB DB 01H		; std::numeric_limits<short>::is_signed
CONST	ENDS
;	COMDAT ??_C@_0P@BPHNPGDJ@jfsSpoolUpRate?$AA@
CONST	SEGMENT
??_C@_0P@BPHNPGDJ@jfsSpoolUpRate?$AA@ DB 'jfsSpoolUpRate', 00H ; `string'
CONST	ENDS
;	COMDAT ??_C@_03KHGJEAFP@0?44?$AA@
CONST	SEGMENT
??_C@_03KHGJEAFP@0?44?$AA@ DB '0.4', 00H		; `string'
CONST	ENDS
;	COMDAT ??_C@_0BA@PLNCKLKD@EVA1_HardFactor?$AA@
CONST	SEGMENT
??_C@_0BA@PLNCKLKD@EVA1_HardFactor?$AA@ DB 'EVA1_HardFactor', 00H ; `string'
CONST	ENDS
;	COMDAT ??_C@_0M@BMNNNKAJ@abSpoolRate?$AA@
CONST	SEGMENT
??_C@_0M@BMNNNKAJ@abSpoolRate?$AA@ DB 'abSpoolRate', 00H ; `string'
CONST	ENDS
;	COMDAT ??_C@_0P@NEPJKHKL@EVA2_MedFactor?$AA@
CONST	SEGMENT
??_C@_0P@NEPJKHKL@EVA2_MedFactor?$AA@ DB 'EVA2_MedFactor', 00H ; `string'
CONST	ENDS
;	COMDAT ??_C@_03IMEEBDJM@0?47?$AA@
CONST	SEGMENT
??_C@_03IMEEBDJM@0?47?$AA@ DB '0.7', 00H		; `string'
CONST	ENDS
;	COMDAT ??_C@_0P@KDGHHFFL@EVA1_MedFactor?$AA@
CONST	SEGMENT
??_C@_0P@KDGHHFFL@EVA1_MedFactor?$AA@ DB 'EVA1_MedFactor', 00H ; `string'
CONST	ENDS
;	COMDAT ??_C@_0O@DAAIHLKJ@normSpoolRate?$AA@
CONST	SEGMENT
??_C@_0O@DAAIHLKJ@normSpoolRate?$AA@ DB 'normSpoolRate', 00H ; `string'
CONST	ENDS
;	COMDAT ??_C@_0BA@FIJBJGAH@EVA2_SoftFactor?$AA@
CONST	SEGMENT
??_C@_0BA@FIJBJGAH@EVA2_SoftFactor?$AA@ DB 'EVA2_SoftFactor', 00H ; `string'
CONST	ENDS
;	COMDAT ??_C@_0BA@OFFLPKMJ@EVA1_SoftFactor?$AA@
CONST	SEGMENT
??_C@_0BA@OFFLPKMJ@EVA1_SoftFactor?$AA@ DB 'EVA1_SoftFactor', 00H ; `string'
CONST	ENDS
;	COMDAT ??_C@_06IGFKLLFD@4000?40?$AA@
CONST	SEGMENT
??_C@_06IGFKLLFD@4000?40?$AA@ DB '4000.0', 00H		; `string'
CONST	ENDS
;	COMDAT ?value@?$integral_constant@_N$00@std@@2_NB
CONST	SEGMENT
?value@?$integral_constant@_N$00@std@@2_NB DB 01H	; std::integral_constant<bool,1>::value
CONST	ENDS
;	COMDAT ??_C@_0O@NHMMIMPK@TFR_lookAhead?$AA@
CONST	SEGMENT
??_C@_0O@NHMMIMPK@TFR_lookAhead?$AA@ DB 'TFR_lookAhead', 00H ; `string'
CONST	ENDS
;	COMDAT ??_C@_0M@DABNCIEI@SlowPercent?$AA@
CONST	SEGMENT
??_C@_0M@DABNCIEI@SlowPercent?$AA@ DB 'SlowPercent', 00H ; `string'
CONST	ENDS
;	COMDAT ?digits10@?$numeric_limits@E@std@@2HB
CONST	SEGMENT
?digits10@?$numeric_limits@E@std@@2HB DD 02H		; std::numeric_limits<unsigned char>::digits10
CONST	ENDS
;	COMDAT ??_C@_0O@CHMHNOLI@TFR_Clearance?$AA@
CONST	SEGMENT
??_C@_0O@CHMHNOLI@TFR_Clearance?$AA@ DB 'TFR_Clearance', 00H ; `string'
CONST	ENDS
;	COMDAT ??_C@_03OGGONKIH@6?40?$AA@
CONST	SEGMENT
??_C@_03OGGONKIH@6?40?$AA@ DB '6.0', 00H		; `string'
CONST	ENDS
;	COMDAT ?digits@?$numeric_limits@E@std@@2HB
CONST	SEGMENT
?digits@?$numeric_limits@E@std@@2HB DD 08H		; std::numeric_limits<unsigned char>::digits
CONST	ENDS
;	COMDAT ?value@?$integral_constant@_N$0A@@std@@2_NB
CONST	SEGMENT
?value@?$integral_constant@_N$0A@@std@@2_NB DB 00H	; std::integral_constant<bool,0>::value
CONST	ENDS
;	COMDAT ?is_signed@?$numeric_limits@E@std@@2_NB
CONST	SEGMENT
?is_signed@?$numeric_limits@E@std@@2_NB DB 00H		; std::numeric_limits<unsigned char>::is_signed
CONST	ENDS
;	COMDAT ??_C@_09LFBFKCAG@TFR_HardG?$AA@
CONST	SEGMENT
??_C@_09LFBFKCAG@TFR_HardG?$AA@ DB 'TFR_HardG', 00H	; `string'
CONST	ENDS
;	COMDAT ??_C@_03EMGHBCAM@4?40?$AA@
CONST	SEGMENT
??_C@_03EMGHBCAM@4?40?$AA@ DB '4.0', 00H		; `string'
CONST	ENDS
;	COMDAT ??_C@_08MMFFFDAK@TFR_MedG?$AA@
CONST	SEGMENT
??_C@_08MMFFFDAK@TFR_MedG?$AA@ DB 'TFR_MedG', 00H	; `string'
CONST	ENDS
;	COMDAT ??_C@_09KAGJINIH@TFR_SoftG?$AA@
CONST	SEGMENT
??_C@_09KAGJINIH@TFR_SoftG?$AA@ DB 'TFR_SoftG', 00H	; `string'
CONST	ENDS
;	COMDAT ??_C@_0M@EEJLCBEN@TFR_MaxRoll?$AA@
CONST	SEGMENT
??_C@_0M@EEJLCBEN@TFR_MaxRoll?$AA@ DB 'TFR_MaxRoll', 00H ; `string'
CONST	ENDS
;	COMDAT ??_C@_08NECPDBAO@EVA_Gain?$AA@
CONST	SEGMENT
??_C@_08NECPDBAO@EVA_Gain?$AA@ DB 'EVA_Gain', 00H	; `string'
CONST	ENDS
;	COMDAT ??_C@_05DOHCIJGB@0?4010?$AA@
CONST	SEGMENT
??_C@_05DOHCIJGB@0?4010?$AA@ DB '0.010', 00H		; `string'
CONST	ENDS
;	COMDAT ??_C@_08EFBJNAEE@TFR_Gain?$AA@
CONST	SEGMENT
??_C@_08EFBJNAEE@TFR_Gain?$AA@ DB 'TFR_Gain', 00H	; `string'
CONST	ENDS
;	COMDAT ??_C@_05LIKMLJBB@350?40?$AA@
CONST	SEGMENT
??_C@_05LIKMLJBB@350?40?$AA@ DB '350.0', 00H		; `string'
CONST	ENDS
;	COMDAT ??_C@_0L@JIKGOMID@TFR_Corner?$AA@
CONST	SEGMENT
??_C@_0L@JIKGOMID@TFR_Corner?$AA@ DB 'TFR_Corner', 00H	; `string'
CONST	ENDS
;	COMDAT ?digits10@?$numeric_limits@C@std@@2HB
CONST	SEGMENT
?digits10@?$numeric_limits@C@std@@2HB DD 02H		; std::numeric_limits<signed char>::digits10
CONST	ENDS
;	COMDAT ??_C@_0M@DLIJHKLF@TFR_LimitMX?$AA@
CONST	SEGMENT
??_C@_0M@DLIJHKLF@TFR_LimitMX?$AA@ DB 'TFR_LimitMX', 00H ; `string'
CONST	ENDS
;	COMDAT ??_C@_04PALILOBK@0?439?$AA@
CONST	SEGMENT
??_C@_04PALILOBK@0?439?$AA@ DB '0.39', 00H		; `string'
CONST	ENDS
;	COMDAT ?digits@?$numeric_limits@C@std@@2HB
CONST	SEGMENT
?digits@?$numeric_limits@C@std@@2HB DD 07H		; std::numeric_limits<signed char>::digits
CONST	ENDS
;	COMDAT ?is_signed@?$numeric_limits@C@std@@2_NB
CONST	SEGMENT
?is_signed@?$numeric_limits@C@std@@2_NB DB 01H		; std::numeric_limits<signed char>::is_signed
CONST	ENDS
;	COMDAT ??_C@_06LPNGJLMP@PID_KD?$AA@
CONST	SEGMENT
??_C@_06LPNGJLMP@PID_KD?$AA@ DB 'PID_KD', 00H		; `string'
CONST	ENDS
;	COMDAT ??_C@_06KHIOFIC@PID_KI?$AA@
CONST	SEGMENT
??_C@_06KHIOFIC@PID_KI?$AA@ DB 'PID_KI', 00H		; `string'
CONST	ENDS
;	COMDAT ??_C@_03LOHCHBBO@0?45?$AA@
CONST	SEGMENT
??_C@_03LOHCHBBO@0?45?$AA@ DB '0.5', 00H		; `string'
CONST	ENDS
CONST	SEGMENT
_L_2	DD	03f317218r			; 0.693147
	ORG $+4
_AuxAeroDataDesc DD FLAT:??_C@_0O@DAAIHLKJ@normSpoolRate?$AA@
	DD	01H
	DD	0cH
	DD	FLAT:??_C@_03IMEEBDJM@0?47?$AA@
	DD	FLAT:??_C@_0M@BMNNNKAJ@abSpoolRate?$AA@
	DD	01H
	DD	010H
	DD	FLAT:??_C@_03KHGJEAFP@0?44?$AA@
	DD	FLAT:??_C@_0P@BPHNPGDJ@jfsSpoolUpRate?$AA@
	DD	01H
	DD	014H
	DD	FLAT:??_C@_02IHCGGLPM@15?$AA@
	DD	FLAT:??_C@_0BA@DJOOIAFH@jfsSpoolUpLimit?$AA@
	DD	01H
	DD	018H
	DD	FLAT:??_C@_04FNMPJLCB@0?425?$AA@
	DD	FLAT:??_C@_0BB@EJFCDHKA@lightupSpoolRate?$AA@
	DD	01H
	DD	01cH
	DD	FLAT:??_C@_02PKFBJPLJ@10?$AA@
	DD	FLAT:??_C@_0BC@EOOAIFHM@flameoutSpoolRate?$AA@
	DD	01H
	DD	020H
	DD	FLAT:??_C@_01BMBHCPLG@5?$AA@
	DD	FLAT:??_C@_0BA@JKCAFAIK@jfsRechargeTime?$AA@
	DD	01H
	DD	024H
	DD	FLAT:??_C@_02PPBOIJDM@60?$AA@
	DD	FLAT:??_C@_0BC@EFCFALDL@jfsMinRechargeRpm?$AA@
	DD	01H
	DD	028H
	DD	FLAT:??_C@_04BAMILDLP@0?412?$AA@
	DD	FLAT:??_C@_0M@PLDHECDF@jfsSpinTime?$AA@
	DD	01H
	DD	038H
	DD	FLAT:??_C@_03HILNGLHG@240?$AA@
	DD	FLAT:??_C@_0L@BOINNJLF@mainGenRpm?$AA@
	DD	01H
	DD	02cH
	DD	FLAT:??_C@_04MJMJEHL@0?463?$AA@
	DD	FLAT:??_C@_0L@NHKBNKDL@stbyGenRpm?$AA@
	DD	01H
	DD	030H
	DD	FLAT:??_C@_03JFFPCCNN@0?46?$AA@
	DD	FLAT:??_C@_0M@FEHMDDOJ@epuBurnTime?$AA@
	DD	01H
	DD	034H
	DD	FLAT:??_C@_03PANGFEPN@600?$AA@
	DD	FLAT:??_C@_0BF@ODFMFFPH@DeepStallEngineStall?$AA@
	DD	00H
	DD	03cH
	DD	FLAT:??_C@_01GBGANLPD@0?$AA@
	DD	FLAT:??_C@_0BK@PIBAPEKB@engineDamageStopThreshold?$AA@
	DD	00H
	DD	040H
	DD	FLAT:??_C@_02NBHMMMHK@13?$AA@
	DD	FLAT:??_C@_0BP@BNNPMIOP@engineDamageNoRestartThreshold?$AA@
	DD	00H
	DD	044H
	DD	FLAT:??_C@_02PNFIDHGF@50?$AA@
	DD	FLAT:??_C@_0BJ@CAGNIPEK@engineDamageHitThreshold?$AA@
	DD	00H
	DD	048H
	DD	FLAT:??_C@_01GBGANLPD@0?$AA@
	DD	FLAT:??_C@_0N@DFIIMHPH@rollMomentum?$AA@
	DD	01H
	DD	0bcH
	DD	FLAT:??_C@_01HIHLOKLC@1?$AA@
	DD	FLAT:??_C@_0O@LFHPEPMA@pitchMomentum?$AA@
	DD	01H
	DD	0c0H
	DD	FLAT:??_C@_01HIHLOKLC@1?$AA@
	DD	FLAT:??_C@_0M@GMHOPBNB@yawMomentum?$AA@
	DD	01H
	DD	0c4H
	DD	FLAT:??_C@_01HIHLOKLC@1?$AA@
	DD	FLAT:??_C@_0BA@JBKMIKEN@pitchElasticity?$AA@
	DD	01H
	DD	0c8H
	DD	FLAT:??_C@_01HIHLOKLC@1?$AA@
	DD	FLAT:??_C@_0BA@GDKBHNBP@gearPitchFactor?$AA@
	DD	01H
	DD	0d0H
	DD	FLAT:??_C@_03NKBOLEBK@0?41?$AA@
	DD	FLAT:??_C@_0N@HNBCOKPJ@rollGearGain?$AA@
	DD	01H
	DD	0d4H
	DD	FLAT:??_C@_03JFFPCCNN@0?46?$AA@
	DD	FLAT:??_C@_0M@CEOENMNP@yawGearGain?$AA@
	DD	01H
	DD	0d8H
	DD	FLAT:??_C@_03JFFPCCNN@0?46?$AA@
	DD	FLAT:??_C@_0O@PNOFGCMO@pitchGearGain?$AA@
	DD	01H
	DD	0dcH
	DD	FLAT:??_C@_03LNMAPFD@0?48?$AA@
	DD	FLAT:??_C@_08CMPNDEFD@sinkRate?$AA@
	DD	01H
	DD	0ccH
	DD	FLAT:??_C@_02IHCGGLPM@15?$AA@
	DD	FLAT:??_C@_0M@KPLHGFJG@tefMaxAngle?$AA@
	DD	01H
	DD	064H
	DD	FLAT:??_C@_02PIBHCBOA@20?$AA@
	DD	FLAT:??_C@_0O@BBECKCPK@hasFlapperons?$AA@
	DD	00H
	DD	058H
	DD	FLAT:??_C@_01HIHLOKLC@1?$AA@
	DD	FLAT:??_C@_06JOMEDJPM@hasTef?$AA@
	DD	00H
	DD	054H
	DD	FLAT:??_C@_01FDFGLJHB@2?$AA@
	DD	FLAT:??_C@_0M@GAGJKOAO@CLtefFactor?$AA@
	DD	01H
	DD	090H
	DD	FLAT:??_C@_04FOELEPEP@0?405?$AA@
	DD	FLAT:??_C@_0M@NKKKEPEL@CDtefFactor?$AA@
	DD	01H
	DD	094H
	DD	FLAT:??_C@_04FOELEPEP@0?405?$AA@
	DD	FLAT:??_C@_0L@DEAAIGOD@tefNStages?$AA@
	DD	00H
	DD	06cH
	DD	FLAT:??_C@_01FDFGLJHB@2?$AA@
	DD	FLAT:??_C@_0L@BBMAHJFH@tefTakeoff?$AA@
	DD	01H
	DD	078H
	DD	FLAT:??_C@_01GBGANLPD@0?$AA@
	DD	FLAT:??_C@_07DPNPGDFK@tefRate?$AA@
	DD	01H
	DD	074H
	DD	FLAT:??_C@_01BMBHCPLG@5?$AA@
	DD	FLAT:??_C@_07JAIBEJME@lefRate?$AA@
	DD	01H
	DD	07cH
	DD	FLAT:??_C@_01BMBHCPLG@5?$AA@
	DD	FLAT:??_C@_06LGJEGIM@hasLef?$AA@
	DD	00H
	DD	050H
	DD	FLAT:??_C@_01FDFGLJHB@2?$AA@
	DD	FLAT:??_C@_09BEMDABCG@lefGround?$AA@
	DD	01H
	DD	0a8H
	DD	FLAT:??_C@_02NNFLKHCP@?92?$AA@
	DD	FLAT:??_C@_0M@KFKDPOJE@lefMaxAngle?$AA@
	DD	01H
	DD	068H
	DD	FLAT:??_C@_02PIBHCBOA@20?$AA@
	DD	FLAT:??_C@_0L@GKGFPKHP@lefMaxMach?$AA@
	DD	01H
	DD	0acH
	DD	FLAT:??_C@_03KHGJEAFP@0?44?$AA@
	DD	FLAT:??_C@_0L@CADFKDGN@lefNStages?$AA@
	DD	00H
	DD	070H
	DD	FLAT:??_C@_01HIHLOKLC@1?$AA@
	DD	FLAT:??_C@_0M@OONDIOFH@CDlefFactor?$AA@
	DD	01H
	DD	098H
	DD	FLAT:??_C@_03MDAFIFFL@0?40?$AA@
	DD	FLAT:??_C@_0N@PDBJFDOC@CDSPDBFactor?$AA@
	DD	01H
	DD	09cH
	DD	FLAT:??_C@_04OLOFDBAC@0?408?$AA@
	DD	FLAT:??_C@_0M@BNIHJKP@CDLDGFactor?$AA@
	DD	01H
	DD	0a0H
	DD	FLAT:??_C@_04HFGGBMIM@0?406?$AA@
	DD	FLAT:??_C@_0BB@DHHKEFDE@flapGearRelative?$AA@
	DD	00H
	DD	0b0H
	DD	FLAT:??_C@_01HIHLOKLC@1?$AA@
	DD	FLAT:??_C@_0M@JJPLLEKP@maxFlapVcas?$AA@
	DD	01H
	DD	0b4H
	DD	FLAT:??_C@_03MCEHLCEK@370?$AA@
	DD	FLAT:??_C@_0O@PIBNEHBN@flapVcasRange?$AA@
	DD	01H
	DD	0b8H
	DD	FLAT:??_C@_03GPEHNCBN@130?$AA@
	DD	FLAT:??_C@_09KGJKKOAF@area2Span?$AA@
	DD	01H
	DD	0a4H
	DD	FLAT:??_C@_06DCMGIAFF@0?41066?$AA@
	DD	FLAT:??_C@_0P@CPLAGKKN@rudderMaxAngle?$AA@
	DD	01H
	DD	080H
	DD	FLAT:??_C@_02PIBHCBOA@20?$AA@
	DD	FLAT:??_C@_0BA@DAANGMOP@aileronMaxAngle?$AA@
	DD	01H
	DD	084H
	DD	FLAT:??_C@_02PIBHCBOA@20?$AA@
	DD	FLAT:??_C@_0P@NKLPKKNA@elevonMaxAngle?$AA@
	DD	01H
	DD	088H
	DD	FLAT:??_C@_02PIBHCBOA@20?$AA@
	DD	FLAT:??_C@_0BB@DJMPKOMP@airbrakeMaxAngle?$AA@
	DD	01H
	DD	08cH
	DD	FLAT:??_C@_02PPBOIJDM@60?$AA@
	DD	FLAT:??_C@_0N@BDJJDEFO@hasSwingWing?$AA@
	DD	00H
	DD	05cH
	DD	FLAT:??_C@_01GBGANLPD@0?$AA@
	DD	FLAT:??_C@_09LHPHPAOE@isComplex?$AA@
	DD	00H
	DD	060H
	DD	FLAT:??_C@_01GBGANLPD@0?$AA@
	DD	FLAT:??_C@_0L@IGFNJGHF@landingAOA?$AA@
	DD	01H
	DD	0e0H
	DD	FLAT:??_C@_04GPFMAAKC@12?45?$AA@
	DD	FLAT:??_C@_0M@DIFEIBAM@dragChuteCd?$AA@
	DD	01H
	DD	0e4H
	DD	FLAT:??_C@_01GBGANLPD@0?$AA@
	DD	FLAT:??_C@_0BC@PKELAEPB@dragChuteMaxSpeed?$AA@
	DD	01H
	DD	0e8H
	DD	FLAT:??_C@_03GIEOHKMB@170?$AA@
	DD	FLAT:??_C@_0L@KAMCINHG@rollCouple?$AA@
	DD	01H
	DD	0ecH
	DD	FLAT:??_C@_01GBGANLPD@0?$AA@
	DD	FLAT:??_C@_0N@OFNOMJEG@elevatorRoll?$AA@
	DD	00H
	DD	0f0H
	DD	FLAT:??_C@_01HIHLOKLC@1?$AA@
	DD	FLAT:??_C@_0P@MBLLMMCL@canopyMaxAngle?$AA@
	DD	01H
	DD	0f4H
	DD	FLAT:??_C@_02PIBHCBOA@20?$AA@
	DD	FLAT:??_C@_0L@LEHPOGME@canopyRate?$AA@
	DD	01H
	DD	0f8H
	DD	FLAT:??_C@_01BMBHCPLG@5?$AA@
	DD	FLAT:??_C@_0BF@EOKHKABM@fuelFlowFactorNormal?$AA@
	DD	01H
	DD	00H
	DD	FLAT:??_C@_04FNMPJLCB@0?425?$AA@
	DD	FLAT:??_C@_0BB@BAAFFDJJ@fuelFlowFactorAb?$AA@
	DD	01H
	DD	04H
	DD	FLAT:??_C@_04FKMGDDPN@0?465?$AA@
	DD	FLAT:??_C@_0M@LMFGAHGM@minFuelFlow?$AA@
	DD	01H
	DD	08H
	DD	FLAT:??_C@_04EJDHKJN@1200?$AA@
	DD	FLAT:??_C@_0L@NLINGFML@fuelFwdRes?$AA@
	DD	01H
	DD	0fcH
	DD	FLAT:??_C@_01GBGANLPD@0?$AA@
	DD	FLAT:??_C@_0L@LGEABNPJ@fuelAftRes?$AA@
	DD	01H
	DD	0100H
	DD	FLAT:??_C@_01GBGANLPD@0?$AA@
	DD	FLAT:??_C@_08NMFPHBGK@fuelFwd1?$AA@
	DD	01H
	DD	0104H
	DD	FLAT:??_C@_01GBGANLPD@0?$AA@
	DD	FLAT:??_C@_08JKPMDOPA@fuelAft1?$AA@
	DD	01H
	DD	0108H
	DD	FLAT:??_C@_01GBGANLPD@0?$AA@
	DD	FLAT:??_C@_0L@FMKDGBMK@fuelWingAl?$AA@
	DD	01H
	DD	010cH
	DD	FLAT:??_C@_01GBGANLPD@0?$AA@
	DD	FLAT:??_C@_0L@INKNEIJA@fuelWingFr?$AA@
	DD	01H
	DD	0110H
	DD	FLAT:??_C@_01GBGANLPD@0?$AA@
	DD	FLAT:??_C@_0P@PKEHNODF@fuelFwdResRate?$AA@
	DD	01H
	DD	0114H
	DD	FLAT:??_C@_01GBGANLPD@0?$AA@
	DD	FLAT:??_C@_0P@LHNAGDBB@fuelAftResRate?$AA@
	DD	01H
	DD	0118H
	DD	FLAT:??_C@_01GBGANLPD@0?$AA@
	DD	FLAT:??_C@_0N@DJNFJJMH@fuelFwd1Rate?$AA@
	DD	01H
	DD	011cH
	DD	FLAT:??_C@_01GBGANLPD@0?$AA@
	DD	FLAT:??_C@_0N@IKHLFJHF@fuelAft1Rate?$AA@
	DD	01H
	DD	0120H
	DD	FLAT:??_C@_01GBGANLPD@0?$AA@
	DD	FLAT:??_C@_0P@DNCJAOCD@fuelWingAlRate?$AA@
	DD	01H
	DD	0124H
	DD	FLAT:??_C@_01GBGANLPD@0?$AA@
	DD	FLAT:??_C@_0P@MBFCFDEG@fuelWingFrRate?$AA@
	DD	01H
	DD	0128H
	DD	FLAT:??_C@_01GBGANLPD@0?$AA@
	DD	FLAT:??_C@_0O@BOEKBNKG@fuelClineRate?$AA@
	DD	01H
	DD	012cH
	DD	FLAT:??_C@_01GBGANLPD@0?$AA@
	DD	FLAT:??_C@_0BA@OAFMDLCO@fuelWingExtRate?$AA@
	DD	01H
	DD	0130H
	DD	FLAT:??_C@_01GBGANLPD@0?$AA@
	DD	FLAT:??_C@_0L@GPLMHJDL@fuelMinFwd?$AA@
	DD	01H
	DD	0134H
	DD	FLAT:??_C@_03FKNPJMHG@400?$AA@
	DD	FLAT:??_C@_0L@KFENJKJE@fuelMinAft?$AA@
	DD	01H
	DD	0138H
	DD	FLAT:??_C@_03HJHPABEB@250?$AA@
	DD	FLAT:??_C@_06GFPDLIKC@nChaff?$AA@
	DD	00H
	DD	01d4H
	DD	FLAT:??_C@_02PPBOIJDM@60?$AA@
	DD	FLAT:??_C@_06PALMNHLO@nFlare?$AA@
	DD	00H
	DD	01d8H
	DD	FLAT:??_C@_02PJNFELNH@30?$AA@
	DD	FLAT:??_C@_0M@CCKJIKFE@gunLocation?$AA@
	DD	04H
	DD	013cH
	DD	FLAT:??_C@_06NOLLDKEA@2?5?92?50?$AA@
	DD	FLAT:??_C@_0L@OOJFIEK@gunTrailID?$AA@
	DD	00H
	DD	0148H
	DD	FLAT:??_C@_02ODEKKOPI@11?$AA@
	DD	FLAT:??_C@_08CHIHMDEG@nEngines?$AA@
	DD	00H
	DD	0158H
	DD	FLAT:??_C@_01HIHLOKLC@1?$AA@
	DD	FLAT:??_C@_0BA@ECKENMKJ@engine1Location?$AA@
	DD	04H
	DD	015cH
	DD	FLAT:??_C@_05JMKGPOEH@0?50?50?$AA@
	DD	FLAT:??_C@_0BA@KJJDGHKK@engine2Location?$AA@
	DD	04H
	DD	0168H
	DD	FLAT:??_C@_05JMKGPOEH@0?50?50?$AA@
	DD	FLAT:??_C@_0BA@EGFBAMJE@engine3Location?$AA@
	DD	04H
	DD	0174H
	DD	FLAT:??_C@_05JMKGPOEH@0?50?50?$AA@
	DD	FLAT:??_C@_0BA@KEINBHON@engine4Location?$AA@
	DD	04H
	DD	0180H
	DD	FLAT:??_C@_05JMKGPOEH@0?50?50?$AA@
	DD	FLAT:??_C@_0BA@ELEPHMND@engine5Location?$AA@
	DD	04H
	DD	018cH
	DD	FLAT:??_C@_05JMKGPOEH@0?50?50?$AA@
	DD	FLAT:??_C@_0BA@KAHIMHNA@engine6Location?$AA@
	DD	04H
	DD	0198H
	DD	FLAT:??_C@_05JMKGPOEH@0?50?50?$AA@
	DD	FLAT:??_C@_0BA@EPLKKMOO@engine7Location?$AA@
	DD	04H
	DD	01a4H
	DD	FLAT:??_C@_05JMKGPOEH@0?50?50?$AA@
	DD	FLAT:??_C@_0BA@LOLBPHGD@engine8Location?$AA@
	DD	04H
	DD	01b0H
	DD	FLAT:??_C@_05JMKGPOEH@0?50?50?$AA@
	DD	FLAT:??_C@_0N@GBJPGLAA@engineSmokes?$AA@
	DD	00H
	DD	0154H
	DD	FLAT:??_C@_01GBGANLPD@0?$AA@
	DD	FLAT:??_C@_0BA@GJOOBLIC@wingTipLocation?$AA@
	DD	04H
	DD	01bcH
	DD	FLAT:??_C@_05JMKGPOEH@0?50?50?$AA@
	DD	FLAT:??_C@_0BA@DBHKDEEK@vortex1Location?$AA@
	DD	04H
	DD	021cH
	DD	FLAT:??_C@_05JMKGPOEH@0?50?50?$AA@
	DD	FLAT:??_C@_0BA@NKENIPEJ@vortex2Location?$AA@
	DD	04H
	DD	0228H
	DD	FLAT:??_C@_05JMKGPOEH@0?50?50?$AA@
	DD	FLAT:??_C@_0BC@DGPMOPKC@vortexPS1Location?$AA@
	DD	04H
	DD	0234H
	DD	FLAT:??_C@_05JMKGPOEH@0?50?50?$AA@
	DD	FLAT:??_C@_0BC@NNMLFEKB@vortexPS2Location?$AA@
	DD	04H
	DD	0240H
	DD	FLAT:??_C@_05JMKGPOEH@0?50?50?$AA@
	DD	FLAT:??_C@_0BC@DCAJDPJP@vortexPS3Location?$AA@
	DD	04H
	DD	024cH
	DD	FLAT:??_C@_05JMKGPOEH@0?50?50?$AA@
	DD	FLAT:??_C@_0M@BNIPFJKF@largeVortex?$AA@
	DD	00H
	DD	0258H
	DD	FLAT:??_C@_01GBGANLPD@0?$AA@
	DD	FLAT:??_C@_0P@BNLDEAKL@vortexAOALimit?$AA@
	DD	04H
	DD	025cH
	DD	FLAT:??_C@_04PPPNPNHD@29?45?$AA@
	DD	FLAT:??_C@_0P@MMDNKHLD@refuelLocation?$AA@
	DD	04H
	DD	01c8H
	DD	FLAT:??_C@_05JMKGPOEH@0?50?50?$AA@
	DD	FLAT:??_C@_0O@HJBMNCEF@hardpoint1Grp?$AA@
	DD	00H
	DD	01dcH
	DD	FLAT:??_C@_02PGHGPEOM@?91?$AA@
	DD	FLAT:??_C@_0O@DOLMKIJF@hardpoint2Grp?$AA@
	DD	00H
	DD	01e0H
	DD	FLAT:??_C@_02PGHGPEOM@?91?$AA@
	DD	FLAT:??_C@_0O@DNMIBCF@hardpoint3Grp?$AA@
	DD	00H
	DD	01e4H
	DD	FLAT:??_C@_02PGHGPEOM@?91?$AA@
	DD	FLAT:??_C@_0O@LBPMFNDF@hardpoint4Grp?$AA@
	DD	00H
	DD	01e8H
	DD	FLAT:??_C@_02PGHGPEOM@?91?$AA@
	DD	FLAT:??_C@_0O@IMJMHEIF@hardpoint5Grp?$AA@
	DD	00H
	DD	01ecH
	DD	FLAT:??_C@_02PGHGPEOM@?91?$AA@
	DD	FLAT:??_C@_0O@MLDMAOFF@hardpoint6Grp?$AA@
	DD	00H
	DD	01f0H
	DD	FLAT:??_C@_02PGHGPEOM@?91?$AA@
	DD	FLAT:??_C@_0O@PGFMCHOF@hardpoint7Grp?$AA@
	DD	00H
	DD	01f4H
	DD	FLAT:??_C@_02PGHGPEOM@?91?$AA@
	DD	FLAT:??_C@_0O@HEAMLADE@hardpoint8Grp?$AA@
	DD	00H
	DD	01f8H
	DD	FLAT:??_C@_02PGHGPEOM@?91?$AA@
	DD	FLAT:??_C@_0O@EJGMJJIE@hardpoint9Grp?$AA@
	DD	00H
	DD	01fcH
	DD	FLAT:??_C@_02PGHGPEOM@?91?$AA@
	DD	FLAT:??_C@_0P@KGHDDABJ@hardpoint10Grp?$AA@
	DD	00H
	DD	0200H
	DD	FLAT:??_C@_02PGHGPEOM@?91?$AA@
	DD	FLAT:??_C@_0P@JLBDBJKJ@hardpoint11Grp?$AA@
	DD	00H
	DD	0204H
	DD	FLAT:??_C@_02PGHGPEOM@?91?$AA@
	DD	FLAT:??_C@_0P@NMLDGDHJ@hardpoint12Grp?$AA@
	DD	00H
	DD	0208H
	DD	FLAT:??_C@_02PGHGPEOM@?91?$AA@
	DD	FLAT:??_C@_0P@OBNDEKMJ@hardpoint13Grp?$AA@
	DD	00H
	DD	020cH
	DD	FLAT:??_C@_02PGHGPEOM@?91?$AA@
	DD	FLAT:??_C@_0P@FDPDJGNJ@hardpoint14Grp?$AA@
	DD	00H
	DD	0210H
	DD	FLAT:??_C@_02PGHGPEOM@?91?$AA@
	DD	FLAT:??_C@_0P@GOJDLPGJ@hardpoint15Grp?$AA@
	DD	00H
	DD	0214H
	DD	FLAT:??_C@_02PGHGPEOM@?91?$AA@
	DD	FLAT:??_C@_0P@CJDDMFLJ@hardpoint16Grp?$AA@
	DD	00H
	DD	0218H
	DD	FLAT:??_C@_02PGHGPEOM@?91?$AA@
	DD	FLAT:??_C@_0BB@DHOGOPLA@hp1SwitchDofRate?$AA@
	DD	04H
	DD	0a58H
	DD	FLAT:??_C@_07GHNLPIKD@?91?5?91?50?$AA@
	DD	FLAT:??_C@_0BB@CGJLIFMJ@hp2SwitchDofRate?$AA@
	DD	04H
	DD	0a64H
	DD	FLAT:??_C@_07GHNLPIKD@?91?5?91?50?$AA@
	DD	FLAT:??_C@_0BB@JPGAFOCB@hp3SwitchDofRate?$AA@
	DD	04H
	DD	0a70H
	DD	FLAT:??_C@_07GHNLPIKD@?91?5?91?50?$AA@
	DD	FLAT:??_C@_0BB@EGBFBDL@hp4SwitchDofRate?$AA@
	DD	04H
	DD	0a7cH
	DD	FLAT:??_C@_07GHNLPIKD@?91?5?91?50?$AA@
	DD	FLAT:??_C@_0BB@LNJKIKND@hp5SwitchDofRate?$AA@
	DD	04H
	DD	0a88H
	DD	FLAT:??_C@_07GHNLPIKD@?91?5?91?50?$AA@
	DD	FLAT:??_C@_0BB@KMOHOAKK@hp6SwitchDofRate?$AA@
	DD	04H
	DD	0a94H
	DD	FLAT:??_C@_07GHNLPIKD@?91?5?91?50?$AA@
	DD	FLAT:??_C@_0BB@BFBMDLEC@hp7SwitchDofRate?$AA@
	DD	04H
	DD	0aa0H
	DD	FLAT:??_C@_07GHNLPIKD@?91?5?91?50?$AA@
	DD	FLAT:??_C@_0BB@EBJEPINP@hp8SwitchDofRate?$AA@
	DD	04H
	DD	0aacH
	DD	FLAT:??_C@_07GHNLPIKD@?91?5?91?50?$AA@
	DD	FLAT:??_C@_0BB@PIGPCDDH@hp9SwitchDofRate?$AA@
	DD	04H
	DD	0ab8H
	DD	FLAT:??_C@_07GHNLPIKD@?91?5?91?50?$AA@
	DD	FLAT:??_C@_0BC@KBCENNHM@hp10SwitchDofRate?$AA@
	DD	04H
	DD	0ac4H
	DD	FLAT:??_C@_07GHNLPIKD@?91?5?91?50?$AA@
	DD	FLAT:??_C@_0BC@BINPAGJE@hp11SwitchDofRate?$AA@
	DD	04H
	DD	0ad0H
	DD	FLAT:??_C@_07GHNLPIKD@?91?5?91?50?$AA@
	DD	FLAT:??_C@_0BC@JKCGMON@hp12SwitchDofRate?$AA@
	DD	04H
	DD	0adcH
	DD	FLAT:??_C@_07GHNLPIKD@?91?5?91?50?$AA@
	DD	FLAT:??_C@_0BC@LAFJLHAF@hp13SwitchDofRate?$AA@
	DD	04H
	DD	0ae8H
	DD	FLAT:??_C@_07GHNLPIKD@?91?5?91?50?$AA@
	DD	FLAT:??_C@_0BC@CLFILIBP@hp14SwitchDofRate?$AA@
	DD	04H
	DD	0af4H
	DD	FLAT:??_C@_07GHNLPIKD@?91?5?91?50?$AA@
	DD	FLAT:??_C@_0BC@JCKDGDPH@hp15SwitchDofRate?$AA@
	DD	04H
	DD	0b00H
	DD	FLAT:??_C@_07GHNLPIKD@?91?5?91?50?$AA@
	DD	FLAT:??_C@_0BC@IDNOAJIO@hp16SwitchDofRate?$AA@
	DD	04H
	DD	0b0cH
	DD	FLAT:??_C@_07GHNLPIKD@?91?5?91?50?$AA@
	DD	FLAT:??_C@_0BB@FBCMCGNM@gunSwitchDofRate?$AA@
	DD	06H
	DD	0b18H
	DD	FLAT:??_C@_07GHNLPIKD@?91?5?91?50?$AA@
	DD	FLAT:??_C@_06FMCEHIIF@sndExt?$AA@
	DD	00H
	DD	0274H
	DD	FLAT:??_C@_02IEKCLPJC@35?$AA@
	DD	FLAT:??_C@_07HPCLCPMK@sndWind?$AA@
	DD	00H
	DD	0280H
	DD	FLAT:??_C@_02NCPIBIBE@33?$AA@
	DD	FLAT:??_C@_08KCLAHOLF@sndAbInt?$AA@
	DD	00H
	DD	026cH
	DD	FLAT:??_C@_02PMJKFNFC@40?$AA@
	DD	FLAT:??_C@_08PAMNBOMP@sndAbExt?$AA@
	DD	00H
	DD	0278H
	DD	FLAT:??_C@_02CIBHPAJO@39?$AA@
	DD	FLAT:??_C@_08OLGNPELH@sndEject?$AA@
	DD	00H
	DD	0928H
	DD	FLAT:??_C@_01BMBHCPLG@5?$AA@
	DD	FLAT:??_C@_0BB@GAAOBGJD@sndSpdBrakeStart?$AA@
	DD	00H
	DD	092cH
	DD	FLAT:??_C@_03HDBDPFNJ@141?$AA@
	DD	FLAT:??_C@_0BA@LEPAGMPP@sndSpdBrakeLoop?$AA@
	DD	00H
	DD	0930H
	DD	FLAT:??_C@_03GKAIMEJI@140?$AA@
	DD	FLAT:??_C@_0P@DEOJEFLG@sndSpdBrakeEnd?$AA@
	DD	00H
	DD	0934H
	DD	FLAT:??_C@_03LOIFGJFE@139?$AA@
	DD	FLAT:??_C@_0BA@KJMHCINC@sndSpdBrakeWind?$AA@
	DD	00H
	DD	0938H
	DD	FLAT:??_C@_03FIDOKGBK@142?$AA@
	DD	FLAT:??_C@_0O@OMNLLOGG@sndOverSpeed1?$AA@
	DD	00H
	DD	093cH
	DD	FLAT:??_C@_03HLMLGGIK@191?$AA@
	DD	FLAT:??_C@_0O@MHPGONKF@sndOverSpeed2?$AA@
	DD	00H
	DD	0940H
	DD	FLAT:??_C@_03FAOGDFEJ@192?$AA@
	DD	FLAT:??_C@_0M@JBGOBJNO@sndGunStart?$AA@
	DD	00H
	DD	0944H
	DD	FLAT:??_C@_02IFGANFKF@25?$AA@
	DD	FLAT:??_C@_0L@BNGDCO@sndGunLoop?$AA@
	DD	00H
	DD	0948H
	DD	FLAT:??_C@_02KOENIGGG@26?$AA@
	DD	FLAT:??_C@_09NCFIKDEK@sndGunEnd?$AA@
	DD	00H
	DD	094cH
	DD	FLAT:??_C@_02LHFGLHCH@27?$AA@
	DD	FLAT:??_C@_0M@LOIBOJMO@sndBBPullup?$AA@
	DD	00H
	DD	0950H
	DD	FLAT:??_C@_02DHMHADDE@68?$AA@
	DD	FLAT:??_C@_0L@CHIDKLOM@sndBBBingo?$AA@
	DD	00H
	DD	0954H
	DD	FLAT:??_C@_02KJEECOLK@66?$AA@
	DD	FLAT:??_C@_0N@IAOBHECM@sndBBWarning?$AA@
	DD	00H
	DD	0958H
	DD	FLAT:??_C@_02NEDDNKPP@63?$AA@
	DD	FLAT:??_C@_0N@JPEFCFBI@sndBBCaution?$AA@
	DD	00H
	DD	095cH
	DD	FLAT:??_C@_02JLHCEMDI@64?$AA@
	DD	FLAT:??_C@_0BD@JHICCJCG@sndBBChaffFlareLow?$AA@
	DD	00H
	DD	0960H
	DD	FLAT:??_C@_03HHOPIPI@184?$AA@
	DD	FLAT:??_C@_0L@MMJDPPMN@sndBBFlare?$AA@
	DD	00H
	DD	0964H
	DD	FLAT:??_C@_03KHJOFIBF@138?$AA@
	DD	FLAT:??_C@_0BA@KPJJFNID@sndBBChaffFlare?$AA@
	DD	00H
	DD	0968H
	DD	FLAT:??_C@_03EIDPGODP@183?$AA@
	DD	FLAT:??_C@_0BD@LPKLPDKN@sndBBChaffFlareOut?$AA@
	DD	00H
	DD	096cH
	DD	FLAT:??_C@_03BOGFMJLJ@185?$AA@
	DD	FLAT:??_C@_0O@NPGAECJ@sndBBAltitude?$AA@
	DD	00H
	DD	0970H
	DD	FLAT:??_C@_02ICGJHNHJ@65?$AA@
	DD	FLAT:??_C@_09GCNBAHFK@sndBBLock?$AA@
	DD	00H
	DD	0974H
	DD	FLAT:??_C@_02LAFPBPPL@67?$AA@
	DD	FLAT:??_C@_0N@DLEBPOEH@sndTouchDown?$AA@
	DD	00H
	DD	0978H
	DD	FLAT:??_C@_02MOKMDPNA@42?$AA@
	DD	FLAT:??_C@_0P@CFIOJJOC@sndWheelBrakes?$AA@
	DD	00H
	DD	097cH
	DD	FLAT:??_C@_03FNHBLAJP@132?$AA@
	DD	FLAT:??_C@_0N@PKJCCGNC@sndDragChute?$AA@
	DD	00H
	DD	0980H
	DD	FLAT:??_C@_03DBDHDPFK@217?$AA@
	DD	FLAT:??_C@_0M@CFEPOFMO@sndLowSpeed?$AA@
	DD	00H
	DD	0984H
	DD	FLAT:??_C@_03CGMNIGDB@167?$AA@
	DD	FLAT:??_C@_0N@BGPFCKDO@sndFlapStart?$AA@
	DD	00H
	DD	0988H
	DD	FLAT:??_C@_03BHHPDANN@145?$AA@
	DD	FLAT:??_C@_0M@JDINFBLP@sndFlapLoop?$AA@
	DD	00H
	DD	098cH
	DD	FLAT:??_C@_03OGEABJM@144?$AA@
	DD	FLAT:??_C@_0L@ELJFKPMH@sndFlapEnd?$AA@
	DD	00H
	DD	0990H
	DD	FLAT:??_C@_03EBCFJHFL@143?$AA@
	DD	FLAT:??_C@_0N@EBOCPMEO@sndHookStart?$AA@
	DD	00H
	DD	0994H
	DD	FLAT:??_C@_03BPKHKDIO@195?$AA@
	DD	FLAT:??_C@_0M@OMOOAEML@sndHookLoop?$AA@
	DD	00H
	DD	0998H
	DD	FLAT:??_C@_03GLMJCMP@194?$AA@
	DD	FLAT:??_C@_0L@ECMNGAIL@sndHookEnd?$AA@
	DD	00H
	DD	099cH
	DD	FLAT:??_C@_03EJPNAEAI@193?$AA@
	DD	FLAT:??_C@_0BC@MDCFBCDL@sndGearCloseStart?$AA@
	DD	00H
	DD	09a0H
	DD	FLAT:??_C@_03CFEJFCFP@147?$AA@
	DD	FLAT:??_C@_0BA@OCOMKPLN@sndGearCloseEnd?$AA@
	DD	00H
	DD	09a4H
	DD	FLAT:??_C@_03DMFCGDBO@146?$AA@
	DD	FLAT:??_C@_0BB@DHMKJFFD@sndGearOpenStart?$AA@
	DD	00H
	DD	09a8H
	DD	FLAT:??_C@_03LLMKHPNB@149?$AA@
	DD	FLAT:??_C@_0P@LOPFHBJN@sndGearOpenEnd?$AA@
	DD	00H
	DD	09acH
	DD	FLAT:??_C@_03GLMKKOKP@150?$AA@
	DD	FLAT:??_C@_0M@NGHBPPNM@sndGearLoop?$AA@
	DD	00H
	DD	09b0H
	DD	FLAT:??_C@_03KCNBEOJA@148?$AA@
	DD	FLAT:??_C@_0BD@PGJDPFDH@sndCanopyOpenStart?$AA@
	DD	00H
	DD	09b4H
	DD	FLAT:??_C@_03GDOAOEGO@271?$AA@
	DD	FLAT:??_C@_0BB@BLPIILDP@sndCanopyOpenEnd?$AA@
	DD	00H
	DD	09b8H
	DD	FLAT:??_C@_03EIMNLHKN@272?$AA@
	DD	FLAT:??_C@_0BE@IJDLOOBK@sndCanopyCloseStart?$AA@
	DD	00H
	DD	09bcH
	DD	FLAT:??_C@_03FBNGIGOM@273?$AA@
	DD	FLAT:??_C@_0BC@NKJBGAID@sndCanopyCloseEnd?$AA@
	DD	00H
	DD	09c0H
	DD	FLAT:??_C@_03BOJHBACL@274?$AA@
	DD	FLAT:??_C@_0O@NJFJECGK@sndCanopyLoop?$AA@
	DD	00H
	DD	09c4H
	DD	FLAT:??_C@_03HIMCBGK@275?$AA@
	DD	FLAT:??_C@_0BD@DBCDKDAO@rollLimitForAiInWP?$AA@
	DD	01H
	DD	09c8H
	DD	FLAT:??_C@_05NPENMKL@180?40?$AA@
	DD	FLAT:??_C@_0M@BDNEKKIH@flap2Nozzle?$AA@
	DD	00H
	DD	09ccH
	DD	FLAT:??_C@_01GBGANLPD@0?$AA@
	DD	FLAT:??_C@_0BG@IGLEDGDF@startGroundAvoidCheck?$AA@
	DD	01H
	DD	09d0H
	DD	FLAT:??_C@_06EDPNIFNN@3000?40?$AA@
	DD	FLAT:??_C@_0M@FGKPDILK@limitPstick?$AA@
	DD	00H
	DD	09d4H
	DD	FLAT:??_C@_01HIHLOKLC@1?$AA@
	DD	FLAT:??_C@_0M@OPLFFMKN@refuelSpeed?$AA@
	DD	01H
	DD	09d8H
	DD	FLAT:??_C@_05ENCMBPNB@310?40?$AA@
	DD	FLAT:??_C@_0P@ILJLJCH@refuelAltitude?$AA@
	DD	01H
	DD	09dcH
	DD	FLAT:??_C@_07IKOBELMN@22500?40?$AA@
	DD	FLAT:??_C@_0O@DBCENHJH@decelDistance?$AA@
	DD	01H
	DD	09e8H
	DD	FLAT:??_C@_06NEGCJEPE@1000?40?$AA@
	DD	FLAT:??_C@_0L@NAAENIAH@followRate?$AA@
	DD	01H
	DD	09ecH
	DD	FLAT:??_C@_04PPICEGLM@20?40?$AA@
	DD	FLAT:??_C@_0BF@HGLAODLE@desiredClosureFactor?$AA@
	DD	01H
	DD	09f0H
	DD	FLAT:??_C@_04FNMPJLCB@0?425?$AA@
	DD	FLAT:??_C@_07MMOJHPDH@longLeg?$AA@
	DD	01H
	DD	09f4H
	DD	FLAT:??_C@_05DNIEJHGK@100?40?$AA@
	DD	FLAT:??_C@_08FBPCGKKI@shortLeg?$AA@
	DD	01H
	DD	09f8H
	DD	FLAT:??_C@_04MIFMLGIO@25?40?$AA@
	DD	FLAT:??_C@_0L@OCLCPCAP@refuelRate?$AA@
	DD	01H
	DD	09fcH
	DD	FLAT:??_C@_04ENKCJKKM@50?40?$AA@
	DD	FLAT:??_C@_0P@PILIDGDH@AIBoomDistance?$AA@
	DD	01H
	DD	0a00H
	DD	FLAT:??_C@_04ENKCJKKM@50?40?$AA@
	DD	FLAT:??_C@_06MHLAMJNB@nBooms?$AA@
	DD	00H
	DD	0a14H
	DD	FLAT:??_C@_01HIHLOKLC@1?$AA@
	DD	FLAT:??_C@_09PMCLDMMM@BoomRFPos?$AA@
	DD	04H
	DD	0a34H
	DD	FLAT:??_C@_05JMKGPOEH@0?50?50?$AA@
	DD	FLAT:??_C@_0BA@DOFPMJEB@BoomStoredAngle?$AA@
	DD	01H
	DD	0a24H
	DD	FLAT:??_C@_02JODNFKLN@14?$AA@
	DD	FLAT:??_C@_08JPCINJPA@nDrogues?$AA@
	DD	00H
	DD	0a18H
	DD	FLAT:??_C@_01GBGANLPD@0?$AA@
	DD	FLAT:??_C@_0N@FBEPJMK@activeDrogue?$AA@
	DD	00H
	DD	0a1cH
	DD	FLAT:??_C@_01HIHLOKLC@1?$AA@
	DD	FLAT:??_C@_09KFONFCCG@DrogueExt?$AA@
	DD	01H
	DD	0a20H
	DD	FLAT:??_C@_02PMJKFNFC@40?$AA@
	DD	FLAT:??_C@_0M@COLALMJE@DrogueRFPos?$AA@
	DD	04H
	DD	0a28H
	DD	FLAT:??_C@_07OBIGGHGC@?960?50?50?$AA@
	DD	FLAT:??_C@_0L@BCJFBOAG@boomParent?$AA@
	DD	00H
	DD	0a50H
	DD	FLAT:??_C@_04FLOKFLDL@2211?$AA@
	DD	FLAT:??_C@_0N@ECBFJIGC@drogueParent?$AA@
	DD	00H
	DD	0a54H
	DD	FLAT:??_C@_04FJKMOFGC@2221?$AA@
	DD	FLAT:??_C@_0BA@MANMDKLC@refuelBoomSlot0?$AA@
	DD	00H
	DD	0b24H
	DD	FLAT:??_C@_01GBGANLPD@0?$AA@
	DD	FLAT:??_C@_0BC@JJPHKPPK@refuelDrogueSlot0?$AA@
	DD	00H
	DD	0b28H
	DD	FLAT:??_C@_01GBGANLPD@0?$AA@
	DD	FLAT:??_C@_0BC@IAOMJOLL@refuelDrogueSlot1?$AA@
	DD	00H
	DD	0b2cH
	DD	FLAT:??_C@_01HIHLOKLC@1?$AA@
	DD	FLAT:??_C@_0BC@KLMBMNHI@refuelDrogueSlot2?$AA@
	DD	00H
	DD	0b30H
	DD	FLAT:??_C@_01FDFGLJHB@2?$AA@
	DD	FLAT:??_C@_0L@PFDNFINA@tankerType?$AA@
	DD	00H
	DD	0b34H
	DD	FLAT:??_C@_01DHDKHMHF@6?$AA@
	DD	FLAT:??_C@_0BE@NBFHNGE@BingoReturnDistance?$AA@
	DD	01H
	DD	0a04H
	DD	FLAT:??_C@_03MDAFIFFL@0?40?$AA@
	DD	FLAT:??_C@_0M@NENLEDAF@jokerFactor?$AA@
	DD	01H
	DD	0a08H
	DD	FLAT:??_C@_03GJAMENNA@2?40?$AA@
	DD	FLAT:??_C@_0M@BFADDIIA@bingoFactor?$AA@
	DD	01H
	DD	0a0cH
	DD	FLAT:??_C@_03PENLHFGJ@5?40?$AA@
	DD	FLAT:??_C@_0M@FMDMOCBC@fumesFactor?$AA@
	DD	01H
	DD	0a10H
	DD	FLAT:??_C@_04IPPMMMFO@15?40?$AA@
	DD	FLAT:??_C@_0P@DJFGELM@maxRippleCount?$AA@
	DD	00H
	DD	09e0H
	DD	FLAT:??_C@_02CLJDCEPA@19?$AA@
	DD	FLAT:??_C@_09OBOMNAA@largePark?$AA@
	DD	00H
	DD	09e4H
	DD	FLAT:??_C@_01GBGANLPD@0?$AA@
	DD	FLAT:??_C@_07FIMPJBEO@HtsAble?$AA@
	DD	00H
	DD	0260H
	DD	FLAT:??_C@_01GBGANLPD@0?$AA@
	DD	FLAT:??_C@_07MCGEMPLL@Has_TFR?$AA@
	DD	00H
	DD	0b38H
	DD	FLAT:??_C@_01GBGANLPD@0?$AA@
	DD	FLAT:??_C@_05HHELFMLK@PID_K?$AA@
	DD	01H
	DD	0b3cH
	DD	FLAT:??_C@_03LOHCHBBO@0?45?$AA@
	DD	FLAT:??_C@_06KHIOFIC@PID_KI?$AA@
	DD	01H
	DD	0b40H
	DD	FLAT:??_C@_03MDAFIFFL@0?40?$AA@
	DD	FLAT:??_C@_06LPNGJLMP@PID_KD?$AA@
	DD	01H
	DD	0b44H
	DD	FLAT:??_C@_04PALILOBK@0?439?$AA@
	DD	FLAT:??_C@_0M@DLIJHKLF@TFR_LimitMX?$AA@
	DD	00H
	DD	0b48H
	DD	FLAT:??_C@_01GBGANLPD@0?$AA@
	DD	FLAT:??_C@_0L@JIKGOMID@TFR_Corner?$AA@
	DD	01H
	DD	0b4cH
	DD	FLAT:??_C@_05LIKMLJBB@350?40?$AA@
	DD	FLAT:??_C@_08EFBJNAEE@TFR_Gain?$AA@
	DD	01H
	DD	0b50H
	DD	FLAT:??_C@_05DOHCIJGB@0?4010?$AA@
	DD	FLAT:??_C@_08NECPDBAO@EVA_Gain?$AA@
	DD	01H
	DD	0b54H
	DD	FLAT:??_C@_03PENLHFGJ@5?40?$AA@
	DD	FLAT:??_C@_0M@EEJLCBEN@TFR_MaxRoll?$AA@
	DD	01H
	DD	0b58H
	DD	FLAT:??_C@_04PPICEGLM@20?40?$AA@
	DD	FLAT:??_C@_09KAGJINIH@TFR_SoftG?$AA@
	DD	01H
	DD	0b5cH
	DD	FLAT:??_C@_03GJAMENNA@2?40?$AA@
	DD	FLAT:??_C@_08MMFFFDAK@TFR_MedG?$AA@
	DD	01H
	DD	0b60H
	DD	FLAT:??_C@_03EMGHBCAM@4?40?$AA@
	DD	FLAT:??_C@_09LFBFKCAG@TFR_HardG?$AA@
	DD	01H
	DD	0b64H
	DD	FLAT:??_C@_03OGGONKIH@6?40?$AA@
	DD	FLAT:??_C@_0O@CHMHNOLI@TFR_Clearance?$AA@
	DD	01H
	DD	0b68H
	DD	FLAT:??_C@_04PPICEGLM@20?40?$AA@
	DD	FLAT:??_C@_0M@DABNCIEI@SlowPercent?$AA@
	DD	01H
	DD	0b6cH
	DD	FLAT:??_C@_03MDAFIFFL@0?40?$AA@
	DD	FLAT:??_C@_0O@NHMMIMPK@TFR_lookAhead?$AA@
	DD	01H
	DD	0b70H
	DD	FLAT:??_C@_06IGFKLLFD@4000?40?$AA@
	DD	FLAT:??_C@_0BA@OFFLPKMJ@EVA1_SoftFactor?$AA@
	DD	01H
	DD	0b74H
	DD	FLAT:??_C@_03JFFPCCNN@0?46?$AA@
	DD	FLAT:??_C@_0BA@FIJBJGAH@EVA2_SoftFactor?$AA@
	DD	01H
	DD	0b78H
	DD	FLAT:??_C@_03KHGJEAFP@0?44?$AA@
	DD	FLAT:??_C@_0P@KDGHHFFL@EVA1_MedFactor?$AA@
	DD	01H
	DD	0b7cH
	DD	FLAT:??_C@_03LNMAPFD@0?48?$AA@
	DD	FLAT:??_C@_0P@NEPJKHKL@EVA2_MedFactor?$AA@
	DD	01H
	DD	0b80H
	DD	FLAT:??_C@_03JFFPCCNN@0?46?$AA@
	DD	FLAT:??_C@_0BA@PLNCKLKD@EVA1_HardFactor?$AA@
	DD	01H
	DD	0b84H
	DD	FLAT:??_C@_03EJIPIALM@1?42?$AA@
	DD	FLAT:??_C@_0BA@EGBIMHGN@EVA2_HardFactor?$AA@
	DD	01H
	DD	0b88H
	DD	FLAT:??_C@_03BCMHDOBC@0?49?$AA@
	DD	FLAT:??_C@_0BC@KJKEPGBI@TFR_GammaCorrMult?$AA@
	DD	01H
	DD	0b8cH
	DD	FLAT:??_C@_03HLLJOCDO@1?40?$AA@
	DD	FLAT:??_C@_0P@LNAHPDCP@LantirnCameraX?$AA@
	DD	01H
	DD	0b90H
	DD	FLAT:??_C@_04LICCDMGM@10?40?$AA@
	DD	FLAT:??_C@_0P@KEBMMCGO@LantirnCameraY?$AA@
	DD	01H
	DD	0b94H
	DD	FLAT:??_C@_03GJAMENNA@2?40?$AA@
	DD	FLAT:??_C@_0P@IPDBJBKN@LantirnCameraZ?$AA@
	DD	01H
	DD	0b98H
	DD	FLAT:??_C@_03PENLHFGJ@5?40?$AA@
	DD	FLAT:??_C@_09NKGPFIFF@MinTGTMAR?$AA@
	DD	01H
	DD	0b9cH
	DD	FLAT:??_C@_03MDAFIFFL@0?40?$AA@
	DD	FLAT:??_C@_0BA@PKBAMLMJ@MaxMARIdedStart?$AA@
	DD	01H
	DD	0ba0H
	DD	FLAT:??_C@_03MDAFIFFL@0?40?$AA@
	DD	FLAT:??_C@_0N@ONKOFMOJ@AddMARIded5k?$AA@
	DD	01H
	DD	0ba4H
	DD	FLAT:??_C@_03MDAFIFFL@0?40?$AA@
	DD	FLAT:??_C@_0O@LOKKEBFC@AddMARIded18k?$AA@
	DD	01H
	DD	0ba8H
	DD	FLAT:??_C@_03MDAFIFFL@0?40?$AA@
	DD	FLAT:??_C@_0O@KMBPOOLM@AddMARIded28k?$AA@
	DD	01H
	DD	0bacH
	DD	FLAT:??_C@_03MDAFIFFL@0?40?$AA@
	DD	FLAT:??_C@_0BA@FCOIDOAL@AddMARIdedSpike?$AA@
	DD	01H
	DD	0bb0H
	DD	FLAT:??_C@_03MDAFIFFL@0?40?$AA@
	DD	FLAT:??_C@_0BC@BGDMIBBD@animEngineRPMMult?$AA@
	DD	01H
	DD	0bb4H
	DD	FLAT:??_C@_06NEGCJEPE@1000?40?$AA@
	DD	FLAT:??_C@_0BA@GGHDLECN@animSpoiler1Max?$AA@
	DD	01H
	DD	0bb8H
	DD	FLAT:??_C@_03MDAFIFFL@0?40?$AA@
	DD	FLAT:??_C@_0BB@LGJJEJBE@animSpoiler1Rate?$AA@
	DD	01H
	DD	0bbcH
	DD	FLAT:??_C@_04EHBMEDCO@45?40?$AA@
	DD	FLAT:??_C@_0BL@PPGDIPMM@animSpoiler1OffAtWingSweep?$AA@
	DD	01H
	DD	0bc0H
	DD	FLAT:??_C@_04DHGCMJMM@70?40?$AA@
	DD	FLAT:??_C@_0BF@EBOAKMDC@animSpoiler1AirBrake?$AA@
	DD	00H
	DD	0bc4H
	DD	FLAT:??_C@_01HIHLOKLC@1?$AA@
	DD	FLAT:??_C@_0BA@CBNDMOPN@animSpoiler2Max?$AA@
	DD	01H
	DD	0bc8H
	DD	FLAT:??_C@_03MDAFIFFL@0?40?$AA@
	DD	FLAT:??_C@_0BB@DAANDLLK@animSpoiler2Rate?$AA@
	DD	01H
	DD	0bccH
	DD	FLAT:??_C@_04PPICEGLM@20?40?$AA@
	DD	FLAT:??_C@_0BL@NGKLDLDO@animSpoiler2OffAtWingSweep?$AA@
	DD	01H
	DD	0bd0H
	DD	FLAT:??_C@_04EHBMEDCO@45?40?$AA@
	DD	FLAT:??_C@_0BF@KKNHBHDB@animSpoiler2AirBrake?$AA@
	DD	00H
	DD	0bd4H
	DD	FLAT:??_C@_01HIHLOKLC@1?$AA@
	DD	FLAT:??_C@_0P@FNLOGDCJ@animExhNozIdle?$AA@
	DD	01H
	DD	0bd8H
	DD	FLAT:??_C@_03MDAFIFFL@0?40?$AA@
	DD	FLAT:??_C@_0O@GMBKLKCJ@animExhNozMil?$AA@
	DD	01H
	DD	0bdcH
	DD	FLAT:??_C@_04LICCDMGM@10?40?$AA@
	DD	FLAT:??_C@_0N@CHEBONCK@animExhNozAB?$AA@
	DD	01H
	DD	0be0H
	DD	FLAT:??_C@_03MDAFIFFL@0?40?$AA@
	DD	FLAT:??_C@_0P@GPGFMHEA@animExhNozRate?$AA@
	DD	01H
	DD	0be4H
	DD	FLAT:??_C@_03PENLHFGJ@5?40?$AA@
	DD	FLAT:??_C@_0BB@HIEOGLHC@animStrobeOnTime?$AA@
	DD	01H
	DD	0becH
	DD	FLAT:??_C@_04OLOFDBAC@0?408?$AA@
	DD	FLAT:??_C@_0BC@EGEJDIA@animStrobeOffTime?$AA@
	DD	01H
	DD	0bf0H
	DD	FLAT:??_C@_03GJAMENNA@2?40?$AA@
	DD	FLAT:??_C@_0BE@CMBBCDAG@animWingFlashOnTime?$AA@
	DD	01H
	DD	0bf4H
	DD	FLAT:??_C@_03KHGJEAFP@0?44?$AA@
	DD	FLAT:??_C@_0BF@FDFIHJON@animWingFlashOffTime?$AA@
	DD	01H
	DD	0bf8H
	DD	FLAT:??_C@_03LOHCHBBO@0?45?$AA@
	DD	FLAT:??_C@_0O@HGEFGCPP@animHookAngle?$AA@
	DD	01H
	DD	0bfcH
	DD	FLAT:??_C@_04KACOAHM@60?40?$AA@
	DD	FLAT:??_C@_0N@BEHKKBPD@animHookRate?$AA@
	DD	01H
	DD	0c00H
	DD	FLAT:??_C@_04LICCDMGM@10?40?$AA@
	DD	FLAT:??_C@_0BA@DBAFCMAP@animThrRevAngle?$AA@
	DD	01H
	DD	0c04H
	DD	FLAT:??_C@_04KACOAHM@60?40?$AA@
	DD	FLAT:??_C@_0P@OGPLCOBN@animThrRevRate?$AA@
	DD	01H
	DD	0c08H
	DD	FLAT:??_C@_04LICCDMGM@10?40?$AA@
	DD	FLAT:??_C@_0BJ@PHCEDKJD@catapultThrustMultiplier?$AA@
	DD	01H
	DD	0a40H
	DD	FLAT:??_C@_03EMGHBCAM@4?40?$AA@
	DD	FLAT:??_C@_0N@INPHAJJJ@maxLasingAlt?$AA@
	DD	01H
	DD	0a48H
	DD	FLAT:??_C@_07BPILOEPA@25000?40?$AA@
	DD	FLAT:??_C@_0BD@BNBKPFBH@hasProgrammableEWS?$AA@
	DD	00H
	DD	0a4cH
	DD	FLAT:??_C@_01HIHLOKLC@1?$AA@
	DD	FLAT:??_C@_0BB@HCDBCALD@dataLinkCapLevel?$AA@
	DD	00H
	DD	0a44H
	DD	FLAT:??_C@_01HIHLOKLC@1?$AA@
	DD	FLAT:??_C@_0BA@DGEKNLDM@animAileronRate?$AA@
	DD	01H
	DD	0be8H
	DD	FLAT:??_C@_04EHBMEDCO@45?40?$AA@
	DD	FLAT:??_C@_0BE@DFGIJHMP@animSwingWingStages?$AA@
	DD	00H
	DD	0c0cH
	DD	FLAT:??_C@_01FDFGLJHB@2?$AA@
	DD	FLAT:??_C@_0BD@PKGNHJFB@animSwingWingMach1?$AA@
	DD	01H
	DD	0c14H
	DD	FLAT:??_C@_03JFFPCCNN@0?46?$AA@
	DD	FLAT:??_C@_0BD@NBEACKJC@animSwingWingMach2?$AA@
	DD	01H
	DD	0c18H
	DD	FLAT:??_C@_03LNMAPFD@0?48?$AA@
	DD	FLAT:??_C@_0BD@MIFLBLND@animSwingWingMach3?$AA@
	DD	01H
	DD	0c1cH
	DD	FLAT:??_C@_03MDAFIFFL@0?40?$AA@
	DD	FLAT:??_C@_0BD@IHBKINBE@animSwingWingMach4?$AA@
	DD	01H
	DD	0c20H
	DD	FLAT:??_C@_03MDAFIFFL@0?40?$AA@
	DD	FLAT:??_C@_0BD@JOABLMFF@animSwingWingMach5?$AA@
	DD	01H
	DD	0c24H
	DD	FLAT:??_C@_03MDAFIFFL@0?40?$AA@
	DD	FLAT:??_C@_0BD@LFCMOPJG@animSwingWingMach6?$AA@
	DD	01H
	DD	0c28H
	DD	FLAT:??_C@_03MDAFIFFL@0?40?$AA@
	DD	FLAT:??_C@_0BD@KMDHNONH@animSwingWingMach7?$AA@
	DD	01H
	DD	0c2cH
	DD	FLAT:??_C@_03MDAFIFFL@0?40?$AA@
	DD	FLAT:??_C@_0BD@CLKPMCBI@animSwingWingMach8?$AA@
	DD	01H
	DD	0c30H
	DD	FLAT:??_C@_03MDAFIFFL@0?40?$AA@
	DD	FLAT:??_C@_0BD@DCLEPDFJ@animSwingWingMach9?$AA@
	DD	01H
	DD	0c34H
	DD	FLAT:??_C@_03MDAFIFFL@0?40?$AA@
	DD	FLAT:??_C@_0BE@MDNADKOI@animSwingWingMach10?$AA@
	DD	01H
	DD	0c38H
	DD	FLAT:??_C@_03MDAFIFFL@0?40?$AA@
	DD	FLAT:??_C@_0BE@PNGKGEPD@animSwingWingAngle1?$AA@
	DD	01H
	DD	0c3cH
	DD	FLAT:??_C@_04MIFMLGIO@25?40?$AA@
	DD	FLAT:??_C@_0BE@NGEHDHDA@animSwingWingAngle2?$AA@
	DD	01H
	DD	0c40H
	DD	FLAT:??_C@_04ENKCJKKM@50?40?$AA@
	DD	FLAT:??_C@_0BE@MPFMAGHB@animSwingWingAngle3?$AA@
	DD	01H
	DD	0c44H
	DD	FLAT:??_C@_03MDAFIFFL@0?40?$AA@
	DD	FLAT:??_C@_0BE@IABNJALG@animSwingWingAngle4?$AA@
	DD	01H
	DD	0c48H
	DD	FLAT:??_C@_03MDAFIFFL@0?40?$AA@
	DD	FLAT:??_C@_0BE@JJAGKBPH@animSwingWingAngle5?$AA@
	DD	01H
	DD	0c4cH
	DD	FLAT:??_C@_03MDAFIFFL@0?40?$AA@
	DD	FLAT:??_C@_0BE@LCCLPCDE@animSwingWingAngle6?$AA@
	DD	01H
	DD	0c50H
	DD	FLAT:??_C@_03MDAFIFFL@0?40?$AA@
	DD	FLAT:??_C@_0BE@KLDAMDHF@animSwingWingAngle7?$AA@
	DD	01H
	DD	0c54H
	DD	FLAT:??_C@_03MDAFIFFL@0?40?$AA@
	DD	FLAT:??_C@_0BE@CMKINPLK@animSwingWingAngle8?$AA@
	DD	01H
	DD	0c58H
	DD	FLAT:??_C@_03MDAFIFFL@0?40?$AA@
	DD	FLAT:??_C@_0BE@DFLDOOPL@animSwingWingAngle9?$AA@
	DD	01H
	DD	0c5cH
	DD	FLAT:??_C@_03MDAFIFFL@0?40?$AA@
	DD	FLAT:??_C@_0BF@PLAPPPDB@animSwingWingAngle10?$AA@
	DD	01H
	DD	0c60H
	DD	FLAT:??_C@_03MDAFIFFL@0?40?$AA@
	DD	FLAT:??_C@_0BC@HNONPJMP@animSwingWingRate?$AA@
	DD	01H
	DD	0c10H
	DD	FLAT:??_C@_03PENLHFGJ@5?40?$AA@
	DD	FLAT:??_C@_0BB@NDMIICHD@animWheelRadius1?$AA@
	DD	01H
	DD	0c64H
	DD	FLAT:??_C@_03MDAFIFFL@0?40?$AA@
	DD	FLAT:??_C@_0BB@PIOFNBLA@animWheelRadius2?$AA@
	DD	01H
	DD	0c68H
	DD	FLAT:??_C@_03MDAFIFFL@0?40?$AA@
	DD	FLAT:??_C@_0BB@OBPOOAPB@animWheelRadius3?$AA@
	DD	01H
	DD	0c6cH
	DD	FLAT:??_C@_03MDAFIFFL@0?40?$AA@
	DD	FLAT:??_C@_0BB@KOLPHGDG@animWheelRadius4?$AA@
	DD	01H
	DD	0c70H
	DD	FLAT:??_C@_03MDAFIFFL@0?40?$AA@
	DD	FLAT:??_C@_0BB@LHKEEHHH@animWheelRadius5?$AA@
	DD	01H
	DD	0c74H
	DD	FLAT:??_C@_03MDAFIFFL@0?40?$AA@
	DD	FLAT:??_C@_0BB@JMIJBELE@animWheelRadius6?$AA@
	DD	01H
	DD	0c78H
	DD	FLAT:??_C@_03MDAFIFFL@0?40?$AA@
	DD	FLAT:??_C@_0BB@IFJCCFPF@animWheelRadius7?$AA@
	DD	01H
	DD	0c7cH
	DD	FLAT:??_C@_03MDAFIFFL@0?40?$AA@
	DD	FLAT:??_C@_0BB@CAKDJDK@animWheelRadius8?$AA@
	DD	01H
	DD	0c80H
	DD	FLAT:??_C@_03MDAFIFFL@0?40?$AA@
	DD	FLAT:??_C@_0BA@BONHMJJA@animRefuelAngle?$AA@
	DD	01H
	DD	0c84H
	DD	FLAT:??_C@_03HLLJOCDO@1?40?$AA@
	DD	FLAT:??_C@_0P@FLGCDGCB@animRefuelRate?$AA@
	DD	01H
	DD	0c88H
	DD	FLAT:??_C@_02JAFMIPLB@?45?$AA@
	DD	FLAT:??_C@_0BE@LOHOPKAP@fuelGaugeMultiplier?$AA@
	DD	01H
	DD	0c8cH
	DD	FLAT:??_C@_02PKFBJPLJ@10?$AA@
	DD	FLAT:??_C@_0BB@OCEHNGDA@animGearMaxComp1?$AA@
	DD	01H
	DD	0c90H
	DD	FLAT:??_C@_03MDAFIFFL@0?40?$AA@
	DD	FLAT:??_C@_0BB@MJGKIFPD@animGearMaxComp2?$AA@
	DD	01H
	DD	0c94H
	DD	FLAT:??_C@_03MDAFIFFL@0?40?$AA@
	DD	FLAT:??_C@_0BB@NAHBLELC@animGearMaxComp3?$AA@
	DD	01H
	DD	0c98H
	DD	FLAT:??_C@_03MDAFIFFL@0?40?$AA@
	DD	FLAT:??_C@_0BB@JPDACCHF@animGearMaxComp4?$AA@
	DD	01H
	DD	0c9cH
	DD	FLAT:??_C@_03MDAFIFFL@0?40?$AA@
	DD	FLAT:??_C@_0BB@IGCLBDDE@animGearMaxComp5?$AA@
	DD	01H
	DD	0ca0H
	DD	FLAT:??_C@_03MDAFIFFL@0?40?$AA@
	DD	FLAT:??_C@_0BB@KNAGEAPH@animGearMaxComp6?$AA@
	DD	01H
	DD	0ca4H
	DD	FLAT:??_C@_03MDAFIFFL@0?40?$AA@
	DD	FLAT:??_C@_0BB@LEBNHBLG@animGearMaxComp7?$AA@
	DD	01H
	DD	0ca8H
	DD	FLAT:??_C@_03MDAFIFFL@0?40?$AA@
	DD	FLAT:??_C@_0BB@DDIFGNHJ@animGearMaxComp8?$AA@
	DD	01H
	DD	0cacH
	DD	FLAT:??_C@_03MDAFIFFL@0?40?$AA@
	DD	FLAT:??_C@_0BA@BGGJFIMO@animGearMaxExt1?$AA@
	DD	01H
	DD	0cb0H
	DD	FLAT:??_C@_03MDAFIFFL@0?40?$AA@
	DD	FLAT:??_C@_0BA@DNEEALAN@animGearMaxExt2?$AA@
	DD	01H
	DD	0cb4H
	DD	FLAT:??_C@_03MDAFIFFL@0?40?$AA@
	DD	FLAT:??_C@_0BA@CEFPDKEM@animGearMaxExt3?$AA@
	DD	01H
	DD	0cb8H
	DD	FLAT:??_C@_03MDAFIFFL@0?40?$AA@
	DD	FLAT:??_C@_0BA@GLBOKMIL@animGearMaxExt4?$AA@
	DD	01H
	DD	0cbcH
	DD	FLAT:??_C@_03MDAFIFFL@0?40?$AA@
	DD	FLAT:??_C@_0BA@HCAFJNMK@animGearMaxExt5?$AA@
	DD	01H
	DD	0cc0H
	DD	FLAT:??_C@_03MDAFIFFL@0?40?$AA@
	DD	FLAT:??_C@_0BA@FJCIMOAJ@animGearMaxExt6?$AA@
	DD	01H
	DD	0cc4H
	DD	FLAT:??_C@_03MDAFIFFL@0?40?$AA@
	DD	FLAT:??_C@_0BA@EADDPPEI@animGearMaxExt7?$AA@
	DD	01H
	DD	0cc8H
	DD	FLAT:??_C@_03MDAFIFFL@0?40?$AA@
	DD	FLAT:??_C@_0BA@MHKLODIH@animGearMaxExt8?$AA@
	DD	01H
	DD	0cccH
	DD	FLAT:??_C@_03MDAFIFFL@0?40?$AA@
	DD	FLAT:??_C@_0P@HNEFKLNN@sndExternalVol?$AA@
	DD	01H
	DD	0674H
	DD	FLAT:??_C@_07HPLHPJPJ@?92000?40?$AA@
	DD	FLAT:??_C@_06OFJBIPP@sndInt?$AA@
	DD	00H
	DD	0268H
	DD	FLAT:??_C@_02PGHGPEOM@?91?$AA@
	DD	FLAT:??_C@_0M@BNBFFEKJ@sndIntChart?$AA@
	DD	06H
	DD	0284H
	DD	FLAT:??_C@_06KENBBNKG@1?5?50?51?$AA@
	DD	FLAT:??_C@_0O@LFJKKEFE@sndAbIntChart?$AA@
	DD	06H
	DD	02d8H
	DD	FLAT:??_C@_0M@LKDHOOHO@2?5?50?50?5?51?51?$AA@
	DD	FLAT:??_C@_0N@IIABHKDC@sndInt2Chart?$AA@
	DD	06H
	DD	032cH
	DD	FLAT:??_C@_0BF@CHCDBLCO@3?5?50?50?5?51?51?5?51?4035?51?$AA@
	DD	FLAT:??_C@_0M@EBPFJPBB@sndExtChart?$AA@
	DD	06H
	DD	0380H
	DD	FLAT:??_C@_06KENBBNKG@1?5?50?51?$AA@
	DD	FLAT:??_C@_0O@OJHKGPOM@sndAbExtChart?$AA@
	DD	06H
	DD	03d4H
	DD	FLAT:??_C@_0M@LKDHOOHO@2?5?50?50?5?51?51?$AA@
	DD	FLAT:??_C@_0N@ENOHKBEH@sndExt2Chart?$AA@
	DD	06H
	DD	0428H
	DD	FLAT:??_C@_0BF@CHCDBLCO@3?5?50?50?5?51?51?5?51?4035?51?$AA@
	DD	FLAT:??_C@_0BB@ENAFLFLE@sndIntPitchChart?$AA@
	DD	06H
	DD	047cH
	DD	FLAT:??_C@_0BA@NOAFKBNG@2?50?50?51?403?51?447?$AA@
	DD	FLAT:??_C@_0BD@PHHAFNKD@sndAbIntPitchChart?$AA@
	DD	06H
	DD	04d0H
	DD	FLAT:??_C@_0BA@NOAFKBNG@2?50?50?51?403?51?447?$AA@
	DD	FLAT:??_C@_0BC@LMCHAOEL@sndInt2PitchChart?$AA@
	DD	06H
	DD	0524H
	DD	FLAT:??_C@_0BA@NOAFKBNG@2?50?50?51?403?51?447?$AA@
	DD	FLAT:??_C@_0BB@HDBCFNJO@sndExtPitchChart?$AA@
	DD	06H
	DD	0578H
	DD	FLAT:??_C@_0BA@NOAFKBNG@2?50?50?51?403?51?447?$AA@
	DD	FLAT:??_C@_0BD@MJGHLFIJ@sndAbExtPitchChart?$AA@
	DD	06H
	DD	05ccH
	DD	FLAT:??_C@_0BA@NOAFKBNG@2?50?50?51?403?51?447?$AA@
	DD	FLAT:??_C@_0BC@GHKCNAHF@sndExt2PitchChart?$AA@
	DD	06H
	DD	0620H
	DD	FLAT:??_C@_0BA@NOAFKBNG@2?50?50?51?403?51?447?$AA@
	DD	FLAT:??_C@_07MAHMOCOE@sndInt2?$AA@
	DD	00H
	DD	0270H
	DD	FLAT:??_C@_01GBGANLPD@0?$AA@
	DD	FLAT:??_C@_07HAPOAHKG@sndExt2?$AA@
	DD	00H
	DD	027cH
	DD	FLAT:??_C@_01GBGANLPD@0?$AA@
	DD	FLAT:??_C@_08LLHGAMHC@sndAero1?$AA@
	DD	00H
	DD	0678H
	DD	FLAT:??_C@_01GBGANLPD@0?$AA@
	DD	FLAT:??_C@_08JAFLFPLB@sndAero2?$AA@
	DD	00H
	DD	067cH
	DD	FLAT:??_C@_01GBGANLPD@0?$AA@
	DD	FLAT:??_C@_08IJEAGOPA@sndAero3?$AA@
	DD	00H
	DD	0680H
	DD	FLAT:??_C@_01GBGANLPD@0?$AA@
	DD	FLAT:??_C@_08MGABPIDH@sndAero4?$AA@
	DD	00H
	DD	0684H
	DD	FLAT:??_C@_01GBGANLPD@0?$AA@
	DD	FLAT:??_C@_0BB@PHKDEGGM@sndAero1AOAChart?$AA@
	DD	06H
	DD	07d8H
	DD	FLAT:??_C@_05FHPKCNOC@1?50?50?$AA@
	DD	FLAT:??_C@_0BB@BMJEPNGP@sndAero2AOAChart?$AA@
	DD	06H
	DD	082cH
	DD	FLAT:??_C@_05FHPKCNOC@1?50?50?$AA@
	DD	FLAT:??_C@_0BB@PDFGJGFB@sndAero3AOAChart?$AA@
	DD	06H
	DD	0880H
	DD	FLAT:??_C@_05FHPKCNOC@1?50?50?$AA@
	DD	FLAT:??_C@_0BB@BBIKINCI@sndAero4AOAChart?$AA@
	DD	06H
	DD	08d4H
	DD	FLAT:??_C@_05FHPKCNOC@1?50?50?$AA@
	DD	FLAT:??_C@_0BD@FOEMNGH@sndAero1SpeedChart?$AA@
	DD	06H
	DD	0688H
	DD	FLAT:??_C@_05FHPKCNOC@1?50?50?$AA@
	DD	FLAT:??_C@_0BD@HCHKBPJH@sndAero2SpeedChart?$AA@
	DD	06H
	DD	06dcH
	DD	FLAT:??_C@_05FHPKCNOC@1?50?50?$AA@
	DD	FLAT:??_C@_0BD@OJNPFDPI@sndAero3SpeedChart?$AA@
	DD	06H
	DD	0730H
	DD	FLAT:??_C@_05FHPKCNOC@1?50?50?$AA@
	DD	FLAT:??_C@_0BD@JNEHLKHH@sndAero4SpeedChart?$AA@
	DD	06H
	DD	0784H
	DD	FLAT:??_C@_05FHPKCNOC@1?50?50?$AA@
	DD	FLAT:??_C@_09MBLFJEDF@FlarePos1?$AA@
	DD	04H
	DD	0cd0H
	DD	FLAT:??_C@_05JMKGPOEH@0?50?50?$AA@
	DD	FLAT:??_C@_09DNGOCCIB@FlareVec1?$AA@
	DD	04H
	DD	0d48H
	DD	FLAT:??_C@_07LEBJIBJH@0?50?5200?$AA@
	DD	FLAT:??_C@_0M@IKOOPPGH@FlareCount1?$AA@
	DD	00H
	DD	0dc0H
	DD	FLAT:??_C@_02PJNFELNH@30?$AA@
	DD	FLAT:??_C@_09OKJIMHPG@FlarePos2?$AA@
	DD	04H
	DD	0cdcH
	DD	FLAT:??_C@_05JMKGPOEH@0?50?50?$AA@
	DD	FLAT:??_C@_09BGEDHBEC@FlareVec2?$AA@
	DD	04H
	DD	0d54H
	DD	FLAT:??_C@_07LEBJIBJH@0?50?5200?$AA@
	DD	FLAT:??_C@_0M@KBMDKMKE@FlareCount2?$AA@
	DD	00H
	DD	0dc4H
	DD	FLAT:??_C@_02PJNFELNH@30?$AA@
	DD	FLAT:??_C@_09PDIDPGLH@FlarePos3?$AA@
	DD	04H
	DD	0ce8H
	DD	FLAT:??_C@_05JMKGPOEH@0?50?50?$AA@
	DD	FLAT:??_C@_09PFIEAAD@FlareVec3?$AA@
	DD	04H
	DD	0d60H
	DD	FLAT:??_C@_07LEBJIBJH@0?50?5200?$AA@
	DD	FLAT:??_C@_0M@LINIJNOF@FlareCount3?$AA@
	DD	00H
	DD	0dc8H
	DD	FLAT:??_C@_02PJNFELNH@30?$AA@
	DD	FLAT:??_C@_09LMMCGAHA@FlarePos4?$AA@
	DD	04H
	DD	0cf4H
	DD	FLAT:??_C@_05JMKGPOEH@0?50?50?$AA@
	DD	FLAT:??_C@_09EABJNGME@FlareVec4?$AA@
	DD	04H
	DD	0d6cH
	DD	FLAT:??_C@_07HBOJGMJG@0?50?0200?$AA@
	DD	FLAT:??_C@_0M@PHJJALCC@FlareCount4?$AA@
	DD	00H
	DD	0dccH
	DD	FLAT:??_C@_02PJNFELNH@30?$AA@
	DD	FLAT:??_C@_09KFNJFBDB@FlarePos5?$AA@
	DD	04H
	DD	0d00H
	DD	FLAT:??_C@_05JMKGPOEH@0?50?50?$AA@
	DD	FLAT:??_C@_09FJACOHIF@FlareVec5?$AA@
	DD	04H
	DD	0d78H
	DD	FLAT:??_C@_07LEBJIBJH@0?50?5200?$AA@
	DD	FLAT:??_C@_0M@OOICDKGD@FlareCount5?$AA@
	DD	00H
	DD	0dd0H
	DD	FLAT:??_C@_02PJNFELNH@30?$AA@
	DD	FLAT:??_C@_09IOPEACPC@FlarePos6?$AA@
	DD	04H
	DD	0d0cH
	DD	FLAT:??_C@_05JMKGPOEH@0?50?50?$AA@
	DD	FLAT:??_C@_09HCCPLEEG@FlareVec6?$AA@
	DD	04H
	DD	0d84H
	DD	FLAT:??_C@_07LEBJIBJH@0?50?5200?$AA@
	DD	FLAT:??_C@_0M@MFKPGJKA@FlareCount6?$AA@
	DD	00H
	DD	0dd4H
	DD	FLAT:??_C@_02PJNFELNH@30?$AA@
	DD	FLAT:??_C@_09JHOPDDLD@FlarePos7?$AA@
	DD	04H
	DD	0d18H
	DD	FLAT:??_C@_05JMKGPOEH@0?50?50?$AA@
	DD	FLAT:??_C@_09GLDEIFAH@FlareVec7?$AA@
	DD	04H
	DD	0d90H
	DD	FLAT:??_C@_07LEBJIBJH@0?50?5200?$AA@
	DD	FLAT:??_C@_0M@NMLEFIOB@FlareCount7?$AA@
	DD	00H
	DD	0dd8H
	DD	FLAT:??_C@_02PJNFELNH@30?$AA@
	DD	FLAT:??_C@_09BAHHCPHM@FlarePos8?$AA@
	DD	04H
	DD	0d24H
	DD	FLAT:??_C@_05JMKGPOEH@0?50?50?$AA@
	DD	FLAT:??_C@_09OMKMJJMI@FlareVec8?$AA@
	DD	04H
	DD	0d9cH
	DD	FLAT:??_C@_07LEBJIBJH@0?50?5200?$AA@
	DD	FLAT:??_C@_0M@FLCMEECO@FlareCount8?$AA@
	DD	00H
	DD	0ddcH
	DD	FLAT:??_C@_02PJNFELNH@30?$AA@
	DD	FLAT:??_C@_09JGMBODN@FlarePos9?$AA@
	DD	04H
	DD	0d30H
	DD	FLAT:??_C@_05JMKGPOEH@0?50?50?$AA@
	DD	FLAT:??_C@_09PFLHKIIJ@FlareVec9?$AA@
	DD	04H
	DD	0da8H
	DD	FLAT:??_C@_07LEBJIBJH@0?50?5200?$AA@
	DD	FLAT:??_C@_0M@ECDHHFGP@FlareCount9?$AA@
	DD	00H
	DD	0de0H
	DD	FLAT:??_C@_02PJNFELNH@30?$AA@
	DD	FLAT:??_C@_0L@IJDEEHEE@FlarePos10?$AA@
	DD	04H
	DD	0d3cH
	DD	FLAT:??_C@_05JMKGPOEH@0?50?50?$AA@
	DD	FLAT:??_C@_0L@EFMEOLGH@FlareVec10?$AA@
	DD	04H
	DD	0db4H
	DD	FLAT:??_C@_07LEBJIBJH@0?50?5200?$AA@
	DD	FLAT:??_C@_0N@MBKCMPH@FlareCount10?$AA@
	DD	00H
	DD	0de4H
	DD	FLAT:??_C@_02PJNFELNH@30?$AA@
	DD	FLAT:??_C@_08KIEDNGLO@FlareSeq?$AA@
	DD	00H
	DD	0decH
	DD	FLAT:??_C@_01GBGANLPD@0?$AA@
	DD	FLAT:??_C@_0BA@DGGLFGCB@FlareDispensers?$AA@
	DD	00H
	DD	0de8H
	DD	FLAT:??_C@_01HIHLOKLC@1?$AA@
	DD	FLAT:??_C@_09GPHFMEAO@ChaffPos1?$AA@
	DD	04H
	DD	0df0H
	DD	FLAT:??_C@_05JMKGPOEH@0?50?50?$AA@
	DD	FLAT:??_C@_09JDKOHCLK@ChaffVec1?$AA@
	DD	04H
	DD	0e68H
	DD	FLAT:??_C@_07LEBJIBJH@0?50?5200?$AA@
	DD	FLAT:??_C@_0M@NNDHOPGL@ChaffCount1?$AA@
	DD	00H
	DD	0ee0H
	DD	FLAT:??_C@_02PJNFELNH@30?$AA@
	DD	FLAT:??_C@_09EEFIJHMN@ChaffPos2?$AA@
	DD	04H
	DD	0dfcH
	DD	FLAT:??_C@_05JMKGPOEH@0?50?50?$AA@
	DD	FLAT:??_C@_09LIIDCBHJ@ChaffVec2?$AA@
	DD	04H
	DD	0e74H
	DD	FLAT:??_C@_07LEBJIBJH@0?50?5200?$AA@
	DD	FLAT:??_C@_0M@PGBKLMKI@ChaffCount2?$AA@
	DD	00H
	DD	0ee4H
	DD	FLAT:??_C@_02PJNFELNH@30?$AA@
	DD	FLAT:??_C@_09FNEDKGIM@ChaffPos3?$AA@
	DD	04H
	DD	0e08H
	DD	FLAT:??_C@_05JMKGPOEH@0?50?50?$AA@
	DD	FLAT:??_C@_09KBJIBADI@ChaffVec3?$AA@
	DD	04H
	DD	0e80H
	DD	FLAT:??_C@_07LEBJIBJH@0?50?5200?$AA@
	DD	FLAT:??_C@_0M@OPABINOJ@ChaffCount3?$AA@
	DD	00H
	DD	0ee8H
	DD	FLAT:??_C@_02PJNFELNH@30?$AA@
	DD	FLAT:??_C@_09BCACDAEL@ChaffPos4?$AA@
	DD	04H
	DD	0e14H
	DD	FLAT:??_C@_05JMKGPOEH@0?50?50?$AA@
	DD	FLAT:??_C@_09OONJIGPP@ChaffVec4?$AA@
	DD	04H
	DD	0e8cH
	DD	FLAT:??_C@_07LEBJIBJH@0?50?5200?$AA@
	DD	FLAT:??_C@_0M@KAEABLCO@ChaffCount4?$AA@
	DD	00H
	DD	0eecH
	DD	FLAT:??_C@_02PJNFELNH@30?$AA@
	DD	FLAT:??_C@_09LBJABAK@ChaffPos5?$AA@
	DD	04H
	DD	0e20H
	DD	FLAT:??_C@_05JMKGPOEH@0?50?50?$AA@
	DD	FLAT:??_C@_09PHMCLHLO@ChaffVec5?$AA@
	DD	04H
	DD	0e98H
	DD	FLAT:??_C@_07LEBJIBJH@0?50?5200?$AA@
	DD	FLAT:??_C@_0M@LJFLCKGP@ChaffCount5?$AA@
	DD	00H
	DD	0ef0H
	DD	FLAT:??_C@_02PJNFELNH@30?$AA@
	DD	FLAT:??_C@_09CADEFCMJ@ChaffPos6?$AA@
	DD	04H
	DD	0e2cH
	DD	FLAT:??_C@_05JMKGPOEH@0?50?50?$AA@
	DD	FLAT:??_C@_09NMOPOEHN@ChaffVec6?$AA@
	DD	04H
	DD	0ea4H
	DD	FLAT:??_C@_07LEBJIBJH@0?50?5200?$AA@
	DD	FLAT:??_C@_0M@JCHGHJKM@ChaffCount6?$AA@
	DD	00H
	DD	0ef4H
	DD	FLAT:??_C@_02PJNFELNH@30?$AA@
	DD	FLAT:??_C@_09DJCPGDII@ChaffPos7?$AA@
	DD	04H
	DD	0e38H
	DD	FLAT:??_C@_05JMKGPOEH@0?50?50?$AA@
	DD	FLAT:??_C@_09MFPENFDM@ChaffVec7?$AA@
	DD	04H
	DD	0eb0H
	DD	FLAT:??_C@_07LEBJIBJH@0?50?5200?$AA@
	DD	FLAT:??_C@_0M@ILGNEION@ChaffCount7?$AA@
	DD	00H
	DD	0ef8H
	DD	FLAT:??_C@_02PJNFELNH@30?$AA@
	DD	FLAT:??_C@_09LOLHHPEH@ChaffPos8?$AA@
	DD	04H
	DD	0e44H
	DD	FLAT:??_C@_05JMKGPOEH@0?50?50?$AA@
	DD	FLAT:??_C@_09ECGMMJPD@ChaffVec8?$AA@
	DD	04H
	DD	0ebcH
	DD	FLAT:??_C@_07LEBJIBJH@0?50?5200?$AA@
	DD	FLAT:??_C@_0M@MPFFECC@ChaffCount8?$AA@
	DD	00H
	DD	0efcH
	DD	FLAT:??_C@_02PJNFELNH@30?$AA@
	DD	FLAT:??_C@_09KHKMEOAG@ChaffPos9?$AA@
	DD	04H
	DD	0e50H
	DD	FLAT:??_C@_05JMKGPOEH@0?50?50?$AA@
	DD	FLAT:??_C@_09FLHHPILC@ChaffVec9?$AA@
	DD	04H
	DD	0ec8H
	DD	FLAT:??_C@_07LEBJIBJH@0?50?5200?$AA@
	DD	FLAT:??_C@_0M@BFOOGFGD@ChaffCount9?$AA@
	DD	00H
	DD	0f00H
	DD	FLAT:??_C@_02PJNFELNH@30?$AA@
	DD	FLAT:??_C@_0L@DIJBGODA@ChaffPos10?$AA@
	DD	04H
	DD	0e5cH
	DD	FLAT:??_C@_05JMKGPOEH@0?50?50?$AA@
	DD	FLAT:??_C@_0L@PEGBMCBD@ChaffVec10?$AA@
	DD	04H
	DD	0ed4H
	DD	FLAT:??_C@_07LEBJIBJH@0?50?5200?$AA@
	DD	FLAT:??_C@_0N@FPLLJMM@ChaffCount10?$AA@
	DD	00H
	DD	0f04H
	DD	FLAT:??_C@_02PJNFELNH@30?$AA@
	DD	FLAT:??_C@_08LJHJKHFG@ChaffSeq?$AA@
	DD	00H
	DD	0f0cH
	DD	FLAT:??_C@_01GBGANLPD@0?$AA@
	DD	FLAT:??_C@_0BA@MFGOPAOI@ChaffDispensers?$AA@
	DD	00H
	DD	0f08H
	DD	FLAT:??_C@_01HIHLOKLC@1?$AA@
	DD	FLAT:??_C@_0M@BEILKJKA@PilotEyePos?$AA@
	DD	04H
	DD	0f10H
	DD	FLAT:??_C@_07OLKAFLIN@15?50?5?93?$AA@
	DD	FLAT:??_C@_06JLPJEHP@typeAC?$AA@
	DD	00H
	DD	0f28H
	DD	FLAT:??_C@_01GBGANLPD@0?$AA@
	DD	FLAT:??_C@_0L@KLEFPCNC@typeEngine?$AA@
	DD	00H
	DD	0f2cH
	DD	FLAT:??_C@_01GBGANLPD@0?$AA@
	DD	FLAT:??_C@_08GIIEEHD@elevRate?$AA@
	DD	01H
	DD	04cH
	DD	FLAT:??_C@_02PEECMOAB@90?$AA@
	DD	FLAT:??_C@_08IFIJBBKG@gunPitch?$AA@
	DD	01H
	DD	014cH
	DD	FLAT:??_C@_01GBGANLPD@0?$AA@
	DD	FLAT:??_C@_06MOABAJLK@gunYaw?$AA@
	DD	01H
	DD	0150H
	DD	FLAT:??_C@_01GBGANLPD@0?$AA@
	DD	FLAT:??_C@_0BI@FMEAPPJH@MeanTimeBetweenFailures?$AA@
	DD	01H
	DD	0264H
	DD	FLAT:??_C@_01GBGANLPD@0?$AA@
	DD	FLAT:??_C@_0L@BAADMPGH@A2GJDAMAlt?$AA@
	DD	01H
	DD	0f30H
	DD	FLAT:??_C@_07ENLDMLFH@20000?40?$AA@
	DD	FLAT:??_C@_0L@KCCAIDHE@A2GJSOWAlt?$AA@
	DD	01H
	DD	0f34H
	DD	FLAT:??_C@_07BPILOEPA@25000?40?$AA@
	DD	FLAT:??_C@_0L@IMIMIECG@A2GHarmAlt?$AA@
	DD	01H
	DD	0f38H
	DD	FLAT:??_C@_07ENLDMLFH@20000?40?$AA@
	DD	FLAT:??_C@_09DHOGLBLI@A2GAGMAlt?$AA@
	DD	01H
	DD	0f3cH
	DD	FLAT:??_C@_07PANDICND@18000?40?$AA@
	DD	FLAT:??_C@_09FEGLMJHC@A2GGBUAlt?$AA@
	DD	01H
	DD	0f40H
	DD	FLAT:??_C@_07PANDICND@18000?40?$AA@
	DD	FLAT:??_C@_0N@IKBNFLCE@A2GDumbHDAlt?$AA@
	DD	01H
	DD	0f44H
	DD	FLAT:??_C@_06IEKPAFEH@1500?40?$AA@
	DD	FLAT:??_C@_0O@CHIMHFMN@A2GClusterAlt?$AA@
	DD	01H
	DD	0f48H
	DD	FLAT:??_C@_07JBAEODBD@15000?40?$AA@
	DD	FLAT:??_C@_0N@BBIMBJDC@A2GDumbLDAlt?$AA@
	DD	01H
	DD	0f4cH
	DD	FLAT:??_C@_07JBAEODBD@15000?40?$AA@
	DD	FLAT:??_C@_0BC@GIKIJCBL@A2GGenericBombAlt?$AA@
	DD	01H
	DD	0f50H
	DD	FLAT:??_C@_06NEGCJEPE@1000?40?$AA@
	DD	FLAT:??_C@_0BA@DJABIMNG@A2GGunRocketAlt?$AA@
	DD	01H
	DD	0f54H
	DD	FLAT:??_C@_06EBPKNBCH@8000?40?$AA@
	DD	FLAT:??_C@_0N@PAIKOJBB@A2GCameraAlt?$AA@
	DD	01H
	DD	0f58H
	DD	FLAT:??_C@_07FEKDNNJN@12000?40?$AA@
	DD	FLAT:??_C@_0BC@ENDOHIN@A2GBombMissileAlt?$AA@
	DD	01H
	DD	0f5cH
	DD	FLAT:??_C@_07PCNENGCJ@13000?40?$AA@
	DD	FLAT:??_C@_0P@BHKCIPOF@swingwingHinge?$AA@
	DD	04H
	DD	0f1cH
	DD	FLAT:??_C@_05MDNLPAKC@2?53?50?$AA@
	DD	FLAT:??_C@_0BA@LBFNNHKL@animIntakeRamp1?$AA@
	DD	07H
	DD	0f60H
	DD	FLAT:??_C@_03MJJLKIFB@0?50?$AA@
	DD	FLAT:??_C@_0BA@JKHAIEGI@animIntakeRamp2?$AA@
	DD	07H
	DD	0f78H
	DD	FLAT:??_C@_03MJJLKIFB@0?50?$AA@
	DD	FLAT:??_C@_0BA@IDGLLFCJ@animIntakeRamp3?$AA@
	DD	07H
	DD	0f90H
	DD	FLAT:??_C@_03MJJLKIFB@0?50?$AA@
	DD	FLAT:??_C@_09FINDEIIK@FTITStart?$AA@
	DD	01H
	DD	0fa8H
	DD	FLAT:??_C@_03PENLHFGJ@5?40?$AA@
	DD	FLAT:??_C@_08JLHOOBGB@FTITIdle?$AA@
	DD	01H
	DD	0facH
	DD	FLAT:??_C@_03FONCLNOC@7?40?$AA@
	DD	FLAT:??_C@_07IAPMMGPO@FTITMax?$AA@
	DD	01H
	DD	0fb0H
	DD	FLAT:??_C@_03NHHDBGPN@8?49?$AA@
	DD	FLAT:??_C@_0M@KGIJPBID@criticalAOA?$AA@
	DD	01H
	DD	0fb4H
	DD	FLAT:??_C@_03MDAFIFFL@0?40?$AA@
	DD	FLAT:??_C@_06JDDIGKKF@hasIFF?$AA@
	DD	00H
	DD	0fb8H
	DD	FLAT:??_C@_01GBGANLPD@0?$AA@
	DD	FLAT:??_C@_09FBNADDDH@hasThrRev?$AA@
	DD	00H
	DD	0fbcH
	DD	FLAT:??_C@_01GBGANLPD@0?$AA@
	DD	00H
	ORG $+12
CONST	ENDS
;	COMDAT ??_C@_05HHELFMLK@PID_K?$AA@
CONST	SEGMENT
??_C@_05HHELFMLK@PID_K?$AA@ DB 'PID_K', 00H		; `string'
CONST	ENDS
;	COMDAT ??_C@_07MCGEMPLL@Has_TFR?$AA@
CONST	SEGMENT
??_C@_07MCGEMPLL@Has_TFR?$AA@ DB 'Has_TFR', 00H		; `string'
CONST	ENDS
;	COMDAT ??_C@_07FIMPJBEO@HtsAble?$AA@
CONST	SEGMENT
??_C@_07FIMPJBEO@HtsAble?$AA@ DB 'HtsAble', 00H		; `string'
CONST	ENDS
;	COMDAT ??_C@_09OBOMNAA@largePark?$AA@
CONST	SEGMENT
??_C@_09OBOMNAA@largePark?$AA@ DB 'largePark', 00H	; `string'
CONST	ENDS
;	COMDAT ??_C@_02CLJDCEPA@19?$AA@
CONST	SEGMENT
??_C@_02CLJDCEPA@19?$AA@ DB '19', 00H			; `string'
CONST	ENDS
;	COMDAT ??_C@_0P@DJFGELM@maxRippleCount?$AA@
CONST	SEGMENT
??_C@_0P@DJFGELM@maxRippleCount?$AA@ DB 'maxRippleCount', 00H ; `string'
CONST	ENDS
;	COMDAT ??_C@_04IPPMMMFO@15?40?$AA@
CONST	SEGMENT
??_C@_04IPPMMMFO@15?40?$AA@ DB '15.0', 00H		; `string'
CONST	ENDS
;	COMDAT ?digits10@?$numeric_limits@_N@std@@2HB
CONST	SEGMENT
?digits10@?$numeric_limits@_N@std@@2HB DD 00H		; std::numeric_limits<bool>::digits10
CONST	ENDS
;	COMDAT ??_C@_0M@FMDMOCBC@fumesFactor?$AA@
CONST	SEGMENT
??_C@_0M@FMDMOCBC@fumesFactor?$AA@ DB 'fumesFactor', 00H ; `string'
CONST	ENDS
;	COMDAT ??_C@_03PENLHFGJ@5?40?$AA@
CONST	SEGMENT
??_C@_03PENLHFGJ@5?40?$AA@ DB '5.0', 00H		; `string'
CONST	ENDS
;	COMDAT ?digits@?$numeric_limits@_N@std@@2HB
CONST	SEGMENT
?digits@?$numeric_limits@_N@std@@2HB DD 01H		; std::numeric_limits<bool>::digits
CONST	ENDS
;	COMDAT ?is_signed@?$numeric_limits@_N@std@@2_NB
CONST	SEGMENT
?is_signed@?$numeric_limits@_N@std@@2_NB DB 00H		; std::numeric_limits<bool>::is_signed
CONST	ENDS
;	COMDAT ??_C@_0M@BFADDIIA@bingoFactor?$AA@
CONST	SEGMENT
??_C@_0M@BFADDIIA@bingoFactor?$AA@ DB 'bingoFactor', 00H ; `string'
CONST	ENDS
;	COMDAT ??_C@_03GJAMENNA@2?40?$AA@
CONST	SEGMENT
??_C@_03GJAMENNA@2?40?$AA@ DB '2.0', 00H		; `string'
CONST	ENDS
;	COMDAT ?is_modulo@?$numeric_limits@_N@std@@2_NB
CONST	SEGMENT
?is_modulo@?$numeric_limits@_N@std@@2_NB DB 00H		; std::numeric_limits<bool>::is_modulo
CONST	ENDS
;	COMDAT ??_C@_0M@NENLEDAF@jokerFactor?$AA@
CONST	SEGMENT
??_C@_0M@NENLEDAF@jokerFactor?$AA@ DB 'jokerFactor', 00H ; `string'
CONST	ENDS
;	COMDAT ??_C@_0BE@NBFHNGE@BingoReturnDistance?$AA@
CONST	SEGMENT
??_C@_0BE@NBFHNGE@BingoReturnDistance?$AA@ DB 'BingoReturnDistance', 00H ; `string'
CONST	ENDS
;	COMDAT ??_C@_01DHDKHMHF@6?$AA@
CONST	SEGMENT
??_C@_01DHDKHMHF@6?$AA@ DB '6', 00H			; `string'
CONST	ENDS
;	COMDAT ??_C@_0L@PFDNFINA@tankerType?$AA@
CONST	SEGMENT
??_C@_0L@PFDNFINA@tankerType?$AA@ DB 'tankerType', 00H	; `string'
CONST	ENDS
;	COMDAT ??_C@_0BC@KLMBMNHI@refuelDrogueSlot2?$AA@
CONST	SEGMENT
??_C@_0BC@KLMBMNHI@refuelDrogueSlot2?$AA@ DB 'refuelDrogueSlot2', 00H ; `string'
CONST	ENDS
;	COMDAT ??_C@_0BC@IAOMJOLL@refuelDrogueSlot1?$AA@
CONST	SEGMENT
??_C@_0BC@IAOMJOLL@refuelDrogueSlot1?$AA@ DB 'refuelDrogueSlot1', 00H ; `string'
CONST	ENDS
;	COMDAT ??_C@_0BC@JJPHKPPK@refuelDrogueSlot0?$AA@
CONST	SEGMENT
??_C@_0BC@JJPHKPPK@refuelDrogueSlot0?$AA@ DB 'refuelDrogueSlot0', 00H ; `string'
CONST	ENDS
;	COMDAT ??_C@_0BA@MANMDKLC@refuelBoomSlot0?$AA@
CONST	SEGMENT
??_C@_0BA@MANMDKLC@refuelBoomSlot0?$AA@ DB 'refuelBoomSlot0', 00H ; `string'
CONST	ENDS
;	COMDAT ??_C@_04FJKMOFGC@2221?$AA@
CONST	SEGMENT
??_C@_04FJKMOFGC@2221?$AA@ DB '2221', 00H		; `string'
CONST	ENDS
;	COMDAT ?digits10@?$numeric_limits@_W@std@@2HB
CONST	SEGMENT
?digits10@?$numeric_limits@_W@std@@2HB DD 04H		; std::numeric_limits<wchar_t>::digits10
CONST	ENDS
;	COMDAT ??_C@_0N@ECBFJIGC@drogueParent?$AA@
CONST	SEGMENT
??_C@_0N@ECBFJIGC@drogueParent?$AA@ DB 'drogueParent', 00H ; `string'
CONST	ENDS
;	COMDAT ??_C@_04FLOKFLDL@2211?$AA@
CONST	SEGMENT
??_C@_04FLOKFLDL@2211?$AA@ DB '2211', 00H		; `string'
CONST	ENDS
_DATA	SEGMENT
_matrix33_ident DD 03f800000r			; 1
	DD	000000000r			; 0
	DD	000000000r			; 0
	DD	000000000r			; 0
	DD	03f800000r			; 1
	DD	000000000r			; 0
	DD	000000000r			; 0
	DD	000000000r			; 0
	DD	03f800000r			; 1
	ORG $+4
_matrix44_ident DD 03f800000r			; 1
	DD	000000000r			; 0
	DD	000000000r			; 0
	DD	000000000r			; 0
	DD	000000000r			; 0
	DD	03f800000r			; 1
	DD	000000000r			; 0
	DD	000000000r			; 0
	DD	000000000r			; 0
	DD	000000000r			; 0
	DD	03f800000r			; 1
	DD	000000000r			; 0
	DD	000000000r			; 0
	DD	000000000r			; 0
	DD	000000000r			; 0
	DD	03f800000r			; 1
_DATA	ENDS
;	COMDAT ?digits@?$numeric_limits@_W@std@@2HB
CONST	SEGMENT
?digits@?$numeric_limits@_W@std@@2HB DD 010H		; std::numeric_limits<wchar_t>::digits
CONST	ENDS
;	COMDAT ??_C@_0L@BCJFBOAG@boomParent?$AA@
CONST	SEGMENT
??_C@_0L@BCJFBOAG@boomParent?$AA@ DB 'boomParent', 00H	; `string'
CONST	ENDS
;	COMDAT ??_C@_07OBIGGHGC@?960?50?50?$AA@
CONST	SEGMENT
??_C@_07OBIGGHGC@?960?50?50?$AA@ DB '-60 0 0', 00H	; `string'
CONST	ENDS
;	COMDAT ?is_signed@?$numeric_limits@_W@std@@2_NB
CONST	SEGMENT
?is_signed@?$numeric_limits@_W@std@@2_NB DB 00H		; std::numeric_limits<wchar_t>::is_signed
CONST	ENDS
;	COMDAT ??_C@_0M@COLALMJE@DrogueRFPos?$AA@
CONST	SEGMENT
??_C@_0M@COLALMJE@DrogueRFPos?$AA@ DB 'DrogueRFPos', 00H ; `string'
CONST	ENDS
;	COMDAT ??_C@_09KFONFCCG@DrogueExt?$AA@
CONST	SEGMENT
??_C@_09KFONFCCG@DrogueExt?$AA@ DB 'DrogueExt', 00H	; `string'
CONST	ENDS
;	COMDAT ??_C@_0N@FBEPJMK@activeDrogue?$AA@
CONST	SEGMENT
??_C@_0N@FBEPJMK@activeDrogue?$AA@ DB 'activeDrogue', 00H ; `string'
CONST	ENDS
;	COMDAT ??_C@_08JPCINJPA@nDrogues?$AA@
CONST	SEGMENT
??_C@_08JPCINJPA@nDrogues?$AA@ DB 'nDrogues', 00H	; `string'
CONST	ENDS
;	COMDAT ??_C@_02JODNFKLN@14?$AA@
CONST	SEGMENT
??_C@_02JODNFKLN@14?$AA@ DB '14', 00H			; `string'
CONST	ENDS
;	COMDAT ??_C@_09FBNADDDH@hasThrRev?$AA@
CONST	SEGMENT
??_C@_09FBNADDDH@hasThrRev?$AA@ DB 'hasThrRev', 00H	; `string'
CONST	ENDS
;	COMDAT ??_C@_0BA@DOFPMJEB@BoomStoredAngle?$AA@
CONST	SEGMENT
??_C@_0BA@DOFPMJEB@BoomStoredAngle?$AA@ DB 'BoomStoredAngle', 00H ; `string'
CONST	ENDS
;	COMDAT ??_C@_06JDDIGKKF@hasIFF?$AA@
CONST	SEGMENT
??_C@_06JDDIGKKF@hasIFF?$AA@ DB 'hasIFF', 00H		; `string'
CONST	ENDS
;	COMDAT ??_C@_09PMCLDMMM@BoomRFPos?$AA@
CONST	SEGMENT
??_C@_09PMCLDMMM@BoomRFPos?$AA@ DB 'BoomRFPos', 00H	; `string'
CONST	ENDS
;	COMDAT ??_C@_0M@KGIJPBID@criticalAOA?$AA@
CONST	SEGMENT
??_C@_0M@KGIJPBID@criticalAOA?$AA@ DB 'criticalAOA', 00H ; `string'
CONST	ENDS
;	COMDAT ??_C@_03NHHDBGPN@8?49?$AA@
CONST	SEGMENT
??_C@_03NHHDBGPN@8?49?$AA@ DB '8.9', 00H		; `string'
CONST	ENDS
;	COMDAT ??_C@_06MHLAMJNB@nBooms?$AA@
CONST	SEGMENT
??_C@_06MHLAMJNB@nBooms?$AA@ DB 'nBooms', 00H		; `string'
CONST	ENDS
;	COMDAT ?digits10@?$numeric_limits@D@std@@2HB
CONST	SEGMENT
?digits10@?$numeric_limits@D@std@@2HB DD 02H		; std::numeric_limits<char>::digits10
CONST	ENDS
;	COMDAT ??_C@_07IAPMMGPO@FTITMax?$AA@
CONST	SEGMENT
??_C@_07IAPMMGPO@FTITMax?$AA@ DB 'FTITMax', 00H		; `string'
CONST	ENDS
;	COMDAT ??_C@_0P@PILIDGDH@AIBoomDistance?$AA@
CONST	SEGMENT
??_C@_0P@PILIDGDH@AIBoomDistance?$AA@ DB 'AIBoomDistance', 00H ; `string'
CONST	ENDS
;	COMDAT ??_C@_03FONCLNOC@7?40?$AA@
CONST	SEGMENT
??_C@_03FONCLNOC@7?40?$AA@ DB '7.0', 00H		; `string'
CONST	ENDS
;	COMDAT ??_C@_04ENKCJKKM@50?40?$AA@
CONST	SEGMENT
??_C@_04ENKCJKKM@50?40?$AA@ DB '50.0', 00H		; `string'
CONST	ENDS
;	COMDAT ?digits@?$numeric_limits@D@std@@2HB
CONST	SEGMENT
?digits@?$numeric_limits@D@std@@2HB DD 07H		; std::numeric_limits<char>::digits
CONST	ENDS
;	COMDAT ??_C@_08JLHOOBGB@FTITIdle?$AA@
CONST	SEGMENT
??_C@_08JLHOOBGB@FTITIdle?$AA@ DB 'FTITIdle', 00H	; `string'
CONST	ENDS
;	COMDAT ?is_signed@?$numeric_limits@D@std@@2_NB
CONST	SEGMENT
?is_signed@?$numeric_limits@D@std@@2_NB DB 01H		; std::numeric_limits<char>::is_signed
CONST	ENDS
;	COMDAT ??_C@_0L@OCLCPCAP@refuelRate?$AA@
CONST	SEGMENT
??_C@_0L@OCLCPCAP@refuelRate?$AA@ DB 'refuelRate', 00H	; `string'
CONST	ENDS
;	COMDAT ??_C@_04MIFMLGIO@25?40?$AA@
CONST	SEGMENT
??_C@_04MIFMLGIO@25?40?$AA@ DB '25.0', 00H		; `string'
CONST	ENDS
;	COMDAT ??_C@_09FINDEIIK@FTITStart?$AA@
CONST	SEGMENT
??_C@_09FINDEIIK@FTITStart?$AA@ DB 'FTITStart', 00H	; `string'
CONST	ENDS
;	COMDAT ??_C@_08FBPCGKKI@shortLeg?$AA@
CONST	SEGMENT
??_C@_08FBPCGKKI@shortLeg?$AA@ DB 'shortLeg', 00H	; `string'
CONST	ENDS
;	COMDAT ??_C@_05DNIEJHGK@100?40?$AA@
CONST	SEGMENT
??_C@_05DNIEJHGK@100?40?$AA@ DB '100.0', 00H		; `string'
CONST	ENDS
;	COMDAT ??_C@_0BA@IDGLLFCJ@animIntakeRamp3?$AA@
CONST	SEGMENT
??_C@_0BA@IDGLLFCJ@animIntakeRamp3?$AA@ DB 'animIntakeRamp3', 00H ; `string'
CONST	ENDS
;	COMDAT ??_C@_07MMOJHPDH@longLeg?$AA@
CONST	SEGMENT
??_C@_07MMOJHPDH@longLeg?$AA@ DB 'longLeg', 00H		; `string'
CONST	ENDS
;	COMDAT ??_C@_0BA@JKHAIEGI@animIntakeRamp2?$AA@
CONST	SEGMENT
??_C@_0BA@JKHAIEGI@animIntakeRamp2?$AA@ DB 'animIntakeRamp2', 00H ; `string'
CONST	ENDS
;	COMDAT ??_C@_03MJJLKIFB@0?50?$AA@
CONST	SEGMENT
??_C@_03MJJLKIFB@0?50?$AA@ DB '0 0', 00H		; `string'
CONST	ENDS
;	COMDAT ??_C@_0BF@HGLAODLE@desiredClosureFactor?$AA@
CONST	SEGMENT
??_C@_0BF@HGLAODLE@desiredClosureFactor?$AA@ DB 'desiredClosureFactor', 00H ; `string'
CONST	ENDS
;	COMDAT ??_C@_04PPICEGLM@20?40?$AA@
CONST	SEGMENT
??_C@_04PPICEGLM@20?40?$AA@ DB '20.0', 00H		; `string'
CONST	ENDS
;	COMDAT ??_C@_0BA@LBFNNHKL@animIntakeRamp1?$AA@
CONST	SEGMENT
??_C@_0BA@LBFNNHKL@animIntakeRamp1?$AA@ DB 'animIntakeRamp1', 00H ; `string'
CONST	ENDS
;	COMDAT ??_C@_05MDNLPAKC@2?53?50?$AA@
CONST	SEGMENT
??_C@_05MDNLPAKC@2?53?50?$AA@ DB '2 3 0', 00H		; `string'
CONST	ENDS
;	COMDAT ??_C@_0L@NAAENIAH@followRate?$AA@
CONST	SEGMENT
??_C@_0L@NAAENIAH@followRate?$AA@ DB 'followRate', 00H	; `string'
CONST	ENDS
;	COMDAT ??_C@_06NEGCJEPE@1000?40?$AA@
CONST	SEGMENT
??_C@_06NEGCJEPE@1000?40?$AA@ DB '1000.0', 00H		; `string'
CONST	ENDS
;	COMDAT ?radix@_Num_float_base@std@@2HB
CONST	SEGMENT
?radix@_Num_float_base@std@@2HB DD 02H			; std::_Num_float_base::radix
CONST	ENDS
;	COMDAT ??_C@_0P@BHKCIPOF@swingwingHinge?$AA@
CONST	SEGMENT
??_C@_0P@BHKCIPOF@swingwingHinge?$AA@ DB 'swingwingHinge', 00H ; `string'
CONST	ENDS
;	COMDAT ??_C@_07PCNENGCJ@13000?40?$AA@
CONST	SEGMENT
??_C@_07PCNENGCJ@13000?40?$AA@ DB '13000.0', 00H	; `string'
CONST	ENDS
;	COMDAT ?round_style@_Num_float_base@std@@2W4float_round_style@2@B
CONST	SEGMENT
?round_style@_Num_float_base@std@@2W4float_round_style@2@B DD 01H ; std::_Num_float_base::round_style
CONST	ENDS
;	COMDAT ??_C@_0O@DBCENHJH@decelDistance?$AA@
CONST	SEGMENT
??_C@_0O@DBCENHJH@decelDistance?$AA@ DB 'decelDistance', 00H ; `string'
CONST	ENDS
;	COMDAT ??_C@_07IKOBELMN@22500?40?$AA@
CONST	SEGMENT
??_C@_07IKOBELMN@22500?40?$AA@ DB '22500.0', 00H	; `string'
CONST	ENDS
;	COMDAT ??_C@_0BC@ENDOHIN@A2GBombMissileAlt?$AA@
CONST	SEGMENT
??_C@_0BC@ENDOHIN@A2GBombMissileAlt?$AA@ DB 'A2GBombMissileAlt', 00H ; `string'
CONST	ENDS
;	COMDAT ?traps@_Num_float_base@std@@2_NB
CONST	SEGMENT
?traps@_Num_float_base@std@@2_NB DB 00H			; std::_Num_float_base::traps
CONST	ENDS
;	COMDAT ??_C@_07FEKDNNJN@12000?40?$AA@
CONST	SEGMENT
??_C@_07FEKDNNJN@12000?40?$AA@ DB '12000.0', 00H	; `string'
CONST	ENDS
;	COMDAT ??_C@_0P@ILJLJCH@refuelAltitude?$AA@
CONST	SEGMENT
??_C@_0P@ILJLJCH@refuelAltitude?$AA@ DB 'refuelAltitude', 00H ; `string'
CONST	ENDS
;	COMDAT ?tinyness_before@_Num_float_base@std@@2_NB
CONST	SEGMENT
?tinyness_before@_Num_float_base@std@@2_NB DB 01H	; std::_Num_float_base::tinyness_before
CONST	ENDS
;	COMDAT ??_C@_05ENCMBPNB@310?40?$AA@
CONST	SEGMENT
??_C@_05ENCMBPNB@310?40?$AA@ DB '310.0', 00H		; `string'
CONST	ENDS
;	COMDAT ??_C@_0N@PAIKOJBB@A2GCameraAlt?$AA@
CONST	SEGMENT
??_C@_0N@PAIKOJBB@A2GCameraAlt?$AA@ DB 'A2GCameraAlt', 00H ; `string'
CONST	ENDS
;	COMDAT ??_C@_06EBPKNBCH@8000?40?$AA@
CONST	SEGMENT
??_C@_06EBPKNBCH@8000?40?$AA@ DB '8000.0', 00H		; `string'
CONST	ENDS
;	COMDAT ?is_specialized@_Num_float_base@std@@2_NB
CONST	SEGMENT
?is_specialized@_Num_float_base@std@@2_NB DB 01H	; std::_Num_float_base::is_specialized
CONST	ENDS
;	COMDAT ??_C@_0M@OPLFFMKN@refuelSpeed?$AA@
CONST	SEGMENT
??_C@_0M@OPLFFMKN@refuelSpeed?$AA@ DB 'refuelSpeed', 00H ; `string'
CONST	ENDS
;	COMDAT ?is_signed@_Num_float_base@std@@2_NB
CONST	SEGMENT
?is_signed@_Num_float_base@std@@2_NB DB 01H		; std::_Num_float_base::is_signed
CONST	ENDS
;	COMDAT ??_C@_0BA@DJABIMNG@A2GGunRocketAlt?$AA@
CONST	SEGMENT
??_C@_0BA@DJABIMNG@A2GGunRocketAlt?$AA@ DB 'A2GGunRocketAlt', 00H ; `string'
CONST	ENDS
;	COMDAT ??_C@_0M@FGKPDILK@limitPstick?$AA@
CONST	SEGMENT
??_C@_0M@FGKPDILK@limitPstick?$AA@ DB 'limitPstick', 00H ; `string'
CONST	ENDS
;	COMDAT ?is_modulo@_Num_float_base@std@@2_NB
CONST	SEGMENT
?is_modulo@_Num_float_base@std@@2_NB DB 00H		; std::_Num_float_base::is_modulo
CONST	ENDS
;	COMDAT ??_C@_06EDPNIFNN@3000?40?$AA@
CONST	SEGMENT
??_C@_06EDPNIFNN@3000?40?$AA@ DB '3000.0', 00H		; `string'
CONST	ENDS
;	COMDAT ??_C@_0BC@GIKIJCBL@A2GGenericBombAlt?$AA@
CONST	SEGMENT
??_C@_0BC@GIKIJCBL@A2GGenericBombAlt?$AA@ DB 'A2GGenericBombAlt', 00H ; `string'
CONST	ENDS
;	COMDAT ?is_integer@_Num_float_base@std@@2_NB
CONST	SEGMENT
?is_integer@_Num_float_base@std@@2_NB DB 00H		; std::_Num_float_base::is_integer
CONST	ENDS
;	COMDAT ??_C@_0BG@IGLEDGDF@startGroundAvoidCheck?$AA@
CONST	SEGMENT
??_C@_0BG@IGLEDGDF@startGroundAvoidCheck?$AA@ DB 'startGroundAvoidCheck', 00H ; `string'
CONST	ENDS
;	COMDAT ??_C@_0N@BBIMBJDC@A2GDumbLDAlt?$AA@
CONST	SEGMENT
??_C@_0N@BBIMBJDC@A2GDumbLDAlt?$AA@ DB 'A2GDumbLDAlt', 00H ; `string'
CONST	ENDS
;	COMDAT ?is_iec559@_Num_float_base@std@@2_NB
CONST	SEGMENT
?is_iec559@_Num_float_base@std@@2_NB DB 01H		; std::_Num_float_base::is_iec559
CONST	ENDS
;	COMDAT ??_C@_07JBAEODBD@15000?40?$AA@
CONST	SEGMENT
??_C@_07JBAEODBD@15000?40?$AA@ DB '15000.0', 00H	; `string'
CONST	ENDS
;	COMDAT ??_C@_0M@BDNEKKIH@flap2Nozzle?$AA@
CONST	SEGMENT
??_C@_0M@BDNEKKIH@flap2Nozzle?$AA@ DB 'flap2Nozzle', 00H ; `string'
CONST	ENDS
;	COMDAT ?is_exact@_Num_float_base@std@@2_NB
CONST	SEGMENT
?is_exact@_Num_float_base@std@@2_NB DB 00H		; std::_Num_float_base::is_exact
CONST	ENDS
;	COMDAT ??_C@_05NPENMKL@180?40?$AA@
CONST	SEGMENT
??_C@_05NPENMKL@180?40?$AA@ DB '180.0', 00H		; `string'
CONST	ENDS
;	COMDAT ??_C@_0O@CHIMHFMN@A2GClusterAlt?$AA@
CONST	SEGMENT
??_C@_0O@CHIMHFMN@A2GClusterAlt?$AA@ DB 'A2GClusterAlt', 00H ; `string'
CONST	ENDS
;	COMDAT ??_C@_06IEKPAFEH@1500?40?$AA@
CONST	SEGMENT
??_C@_06IEKPAFEH@1500?40?$AA@ DB '1500.0', 00H		; `string'
CONST	ENDS
;	COMDAT ?is_bounded@_Num_float_base@std@@2_NB
CONST	SEGMENT
?is_bounded@_Num_float_base@std@@2_NB DB 01H		; std::_Num_float_base::is_bounded
CONST	ENDS
;	COMDAT ??_C@_0BD@DBCDKDAO@rollLimitForAiInWP?$AA@
CONST	SEGMENT
??_C@_0BD@DBCDKDAO@rollLimitForAiInWP?$AA@ DB 'rollLimitForAiInWP', 00H ; `string'
CONST	ENDS
;	COMDAT ??_C@_03HIMCBGK@275?$AA@
CONST	SEGMENT
??_C@_03HIMCBGK@275?$AA@ DB '275', 00H			; `string'
CONST	ENDS
;	COMDAT ?has_signaling_NaN@_Num_float_base@std@@2_NB
CONST	SEGMENT
?has_signaling_NaN@_Num_float_base@std@@2_NB DB 01H	; std::_Num_float_base::has_signaling_NaN
CONST	ENDS
;	COMDAT ??_C@_0N@IKBNFLCE@A2GDumbHDAlt?$AA@
CONST	SEGMENT
??_C@_0N@IKBNFLCE@A2GDumbHDAlt?$AA@ DB 'A2GDumbHDAlt', 00H ; `string'
CONST	ENDS
;	COMDAT ?has_quiet_NaN@_Num_float_base@std@@2_NB
CONST	SEGMENT
?has_quiet_NaN@_Num_float_base@std@@2_NB DB 01H		; std::_Num_float_base::has_quiet_NaN
CONST	ENDS
;	COMDAT ??_C@_0O@NJFJECGK@sndCanopyLoop?$AA@
CONST	SEGMENT
??_C@_0O@NJFJECGK@sndCanopyLoop?$AA@ DB 'sndCanopyLoop', 00H ; `string'
CONST	ENDS
;	COMDAT ??_C@_03BOJHBACL@274?$AA@
CONST	SEGMENT
??_C@_03BOJHBACL@274?$AA@ DB '274', 00H			; `string'
CONST	ENDS
;	COMDAT ??_C@_09FEGLMJHC@A2GGBUAlt?$AA@
CONST	SEGMENT
??_C@_09FEGLMJHC@A2GGBUAlt?$AA@ DB 'A2GGBUAlt', 00H	; `string'
CONST	ENDS
;	COMDAT ??_C@_07PANDICND@18000?40?$AA@
CONST	SEGMENT
??_C@_07PANDICND@18000?40?$AA@ DB '18000.0', 00H	; `string'
CONST	ENDS
;	COMDAT ?has_infinity@_Num_float_base@std@@2_NB
CONST	SEGMENT
?has_infinity@_Num_float_base@std@@2_NB DB 01H		; std::_Num_float_base::has_infinity
CONST	ENDS
;	COMDAT ?CMPDIRTYDATA_INTERVAL@FalconEntity@@2KB
CONST	SEGMENT
?CMPDIRTYDATA_INTERVAL@FalconEntity@@2KB DD 0c8H	; FalconEntity::CMPDIRTYDATA_INTERVAL
CONST	ENDS
;	COMDAT ??_C@_0BC@NKJBGAID@sndCanopyCloseEnd?$AA@
CONST	SEGMENT
??_C@_0BC@NKJBGAID@sndCanopyCloseEnd?$AA@ DB 'sndCanopyCloseEnd', 00H ; `string'
CONST	ENDS
;	COMDAT ?SIMDIRTYDATA_INTERVAL@FalconEntity@@2KB
CONST	SEGMENT
?SIMDIRTYDATA_INTERVAL@FalconEntity@@2KB DD 0c8H	; FalconEntity::SIMDIRTYDATA_INTERVAL
CONST	ENDS
;	COMDAT ?has_denorm_loss@_Num_float_base@std@@2_NB
CONST	SEGMENT
?has_denorm_loss@_Num_float_base@std@@2_NB DB 01H	; std::_Num_float_base::has_denorm_loss
CONST	ENDS
;	COMDAT ??_C@_03FBNGIGOM@273?$AA@
CONST	SEGMENT
??_C@_03FBNGIGOM@273?$AA@ DB '273', 00H			; `string'
CONST	ENDS
;	COMDAT ??_C@_09DHOGLBLI@A2GAGMAlt?$AA@
CONST	SEGMENT
??_C@_09DHOGLBLI@A2GAGMAlt?$AA@ DB 'A2GAGMAlt', 00H	; `string'
CONST	ENDS
;	COMDAT ?has_denorm@_Num_float_base@std@@2W4float_denorm_style@2@B
CONST	SEGMENT
?has_denorm@_Num_float_base@std@@2W4float_denorm_style@2@B DD 01H ; std::_Num_float_base::has_denorm
CONST	ENDS
;	COMDAT ??_C@_0BE@IJDLOOBK@sndCanopyCloseStart?$AA@
CONST	SEGMENT
??_C@_0BE@IJDLOOBK@sndCanopyCloseStart?$AA@ DB 'sndCanopyCloseStart', 00H ; `string'
CONST	ENDS
;	COMDAT ??_C@_0L@IMIMIECG@A2GHarmAlt?$AA@
CONST	SEGMENT
??_C@_0L@IMIMIECG@A2GHarmAlt?$AA@ DB 'A2GHarmAlt', 00H	; `string'
CONST	ENDS
;	COMDAT ??_C@_03EIMNLHKN@272?$AA@
CONST	SEGMENT
??_C@_03EIMNLHKN@272?$AA@ DB '272', 00H			; `string'
CONST	ENDS
;	COMDAT ??_C@_0L@KCCAIDHE@A2GJSOWAlt?$AA@
CONST	SEGMENT
??_C@_0L@KCCAIDHE@A2GJSOWAlt?$AA@ DB 'A2GJSOWAlt', 00H	; `string'
CONST	ENDS
;	COMDAT ??_C@_0BB@BLPIILDP@sndCanopyOpenEnd?$AA@
CONST	SEGMENT
??_C@_0BB@BLPIILDP@sndCanopyOpenEnd?$AA@ DB 'sndCanopyOpenEnd', 00H ; `string'
CONST	ENDS
;	COMDAT ??_C@_07ENLDMLFH@20000?40?$AA@
CONST	SEGMENT
??_C@_07ENLDMLFH@20000?40?$AA@ DB '20000.0', 00H	; `string'
CONST	ENDS
;	COMDAT ??_C@_03GDOAOEGO@271?$AA@
CONST	SEGMENT
??_C@_03GDOAOEGO@271?$AA@ DB '271', 00H			; `string'
CONST	ENDS
;	COMDAT ?radix@_Num_int_base@std@@2HB
CONST	SEGMENT
?radix@_Num_int_base@std@@2HB DD 02H			; std::_Num_int_base::radix
CONST	ENDS
;	COMDAT ??_C@_0L@BAADMPGH@A2GJDAMAlt?$AA@
CONST	SEGMENT
??_C@_0L@BAADMPGH@A2GJDAMAlt?$AA@ DB 'A2GJDAMAlt', 00H	; `string'
CONST	ENDS
;	COMDAT ??_C@_0BD@PGJDPFDH@sndCanopyOpenStart?$AA@
CONST	SEGMENT
??_C@_0BD@PGJDPFDH@sndCanopyOpenStart?$AA@ DB 'sndCanopyOpenStart', 00H ; `string'
CONST	ENDS
;	COMDAT ??_C@_03KCNBEOJA@148?$AA@
CONST	SEGMENT
??_C@_03KCNBEOJA@148?$AA@ DB '148', 00H			; `string'
CONST	ENDS
;	COMDAT ?is_specialized@_Num_int_base@std@@2_NB
CONST	SEGMENT
?is_specialized@_Num_int_base@std@@2_NB DB 01H		; std::_Num_int_base::is_specialized
CONST	ENDS
;	COMDAT ??_C@_0BI@FMEAPPJH@MeanTimeBetweenFailures?$AA@
CONST	SEGMENT
??_C@_0BI@FMEAPPJH@MeanTimeBetweenFailures?$AA@ DB 'MeanTimeBetweenFailur'
	DB	'es', 00H					; `string'
CONST	ENDS
;	COMDAT ?is_modulo@_Num_int_base@std@@2_NB
CONST	SEGMENT
?is_modulo@_Num_int_base@std@@2_NB DB 01H		; std::_Num_int_base::is_modulo
CONST	ENDS
;	COMDAT ??_C@_0M@NGHBPPNM@sndGearLoop?$AA@
CONST	SEGMENT
??_C@_0M@NGHBPPNM@sndGearLoop?$AA@ DB 'sndGearLoop', 00H ; `string'
CONST	ENDS
;	COMDAT ??_C@_03GLMKKOKP@150?$AA@
CONST	SEGMENT
??_C@_03GLMKKOKP@150?$AA@ DB '150', 00H			; `string'
CONST	ENDS
;	COMDAT ??_C@_06MOABAJLK@gunYaw?$AA@
CONST	SEGMENT
??_C@_06MOABAJLK@gunYaw?$AA@ DB 'gunYaw', 00H		; `string'
CONST	ENDS
;	COMDAT ?is_integer@_Num_int_base@std@@2_NB
CONST	SEGMENT
?is_integer@_Num_int_base@std@@2_NB DB 01H		; std::_Num_int_base::is_integer
CONST	ENDS
;	COMDAT ??_C@_0P@LOPFHBJN@sndGearOpenEnd?$AA@
CONST	SEGMENT
??_C@_0P@LOPFHBJN@sndGearOpenEnd?$AA@ DB 'sndGearOpenEnd', 00H ; `string'
CONST	ENDS
;	COMDAT ?is_exact@_Num_int_base@std@@2_NB
CONST	SEGMENT
?is_exact@_Num_int_base@std@@2_NB DB 01H		; std::_Num_int_base::is_exact
CONST	ENDS
;	COMDAT ??_C@_03LLMKHPNB@149?$AA@
CONST	SEGMENT
??_C@_03LLMKHPNB@149?$AA@ DB '149', 00H			; `string'
CONST	ENDS
;	COMDAT ??_C@_08IFIJBBKG@gunPitch?$AA@
CONST	SEGMENT
??_C@_08IFIJBBKG@gunPitch?$AA@ DB 'gunPitch', 00H	; `string'
CONST	ENDS
;	COMDAT ??_C@_02PEECMOAB@90?$AA@
CONST	SEGMENT
??_C@_02PEECMOAB@90?$AA@ DB '90', 00H			; `string'
CONST	ENDS
;	COMDAT ?is_bounded@_Num_int_base@std@@2_NB
CONST	SEGMENT
?is_bounded@_Num_int_base@std@@2_NB DB 01H		; std::_Num_int_base::is_bounded
CONST	ENDS
;	COMDAT ??_C@_0BB@DHMKJFFD@sndGearOpenStart?$AA@
CONST	SEGMENT
??_C@_0BB@DHMKJFFD@sndGearOpenStart?$AA@ DB 'sndGearOpenStart', 00H ; `string'
CONST	ENDS
;	COMDAT ??_C@_03DMFCGDBO@146?$AA@
CONST	SEGMENT
??_C@_03DMFCGDBO@146?$AA@ DB '146', 00H			; `string'
CONST	ENDS
;	COMDAT ??_C@_08GIIEEHD@elevRate?$AA@
CONST	SEGMENT
??_C@_08GIIEEHD@elevRate?$AA@ DB 'elevRate', 00H	; `string'
CONST	ENDS
;	COMDAT ??_C@_0BA@OCOMKPLN@sndGearCloseEnd?$AA@
CONST	SEGMENT
??_C@_0BA@OCOMKPLN@sndGearCloseEnd?$AA@ DB 'sndGearCloseEnd', 00H ; `string'
CONST	ENDS
;	COMDAT ??_C@_0L@KLEFPCNC@typeEngine?$AA@
CONST	SEGMENT
??_C@_0L@KLEFPCNC@typeEngine?$AA@ DB 'typeEngine', 00H	; `string'
CONST	ENDS
;	COMDAT ??_C@_03CFEJFCFP@147?$AA@
CONST	SEGMENT
??_C@_03CFEJFCFP@147?$AA@ DB '147', 00H			; `string'
CONST	ENDS
;	COMDAT ??_C@_06JLPJEHP@typeAC?$AA@
CONST	SEGMENT
??_C@_06JLPJEHP@typeAC?$AA@ DB 'typeAC', 00H		; `string'
CONST	ENDS
;	COMDAT ??_C@_0BC@MDCFBCDL@sndGearCloseStart?$AA@
CONST	SEGMENT
??_C@_0BC@MDCFBCDL@sndGearCloseStart?$AA@ DB 'sndGearCloseStart', 00H ; `string'
CONST	ENDS
;	COMDAT ??_C@_07OLKAFLIN@15?50?5?93?$AA@
CONST	SEGMENT
??_C@_07OLKAFLIN@15?50?5?93?$AA@ DB '15 0 -3', 00H	; `string'
CONST	ENDS
;	COMDAT ??_C@_03EJPNAEAI@193?$AA@
CONST	SEGMENT
??_C@_03EJPNAEAI@193?$AA@ DB '193', 00H			; `string'
CONST	ENDS
;	COMDAT ??_C@_0M@BEILKJKA@PilotEyePos?$AA@
CONST	SEGMENT
??_C@_0M@BEILKJKA@PilotEyePos?$AA@ DB 'PilotEyePos', 00H ; `string'
CONST	ENDS
;	COMDAT ??_C@_0L@ECMNGAIL@sndHookEnd?$AA@
CONST	SEGMENT
??_C@_0L@ECMNGAIL@sndHookEnd?$AA@ DB 'sndHookEnd', 00H	; `string'
CONST	ENDS
;	COMDAT ??_C@_03GLMJCMP@194?$AA@
CONST	SEGMENT
??_C@_03GLMJCMP@194?$AA@ DB '194', 00H			; `string'
CONST	ENDS
;	COMDAT ??_C@_0BA@MFGOPAOI@ChaffDispensers?$AA@
CONST	SEGMENT
??_C@_0BA@MFGOPAOI@ChaffDispensers?$AA@ DB 'ChaffDispensers', 00H ; `string'
CONST	ENDS
;	COMDAT ??_C@_0M@OMOOAEML@sndHookLoop?$AA@
CONST	SEGMENT
??_C@_0M@OMOOAEML@sndHookLoop?$AA@ DB 'sndHookLoop', 00H ; `string'
CONST	ENDS
;	COMDAT ??_C@_03BPKHKDIO@195?$AA@
CONST	SEGMENT
??_C@_03BPKHKDIO@195?$AA@ DB '195', 00H			; `string'
CONST	ENDS
;	COMDAT ??_C@_08LJHJKHFG@ChaffSeq?$AA@
CONST	SEGMENT
??_C@_08LJHJKHFG@ChaffSeq?$AA@ DB 'ChaffSeq', 00H	; `string'
CONST	ENDS
;	COMDAT ??_C@_0N@EBOCPMEO@sndHookStart?$AA@
CONST	SEGMENT
??_C@_0N@EBOCPMEO@sndHookStart?$AA@ DB 'sndHookStart', 00H ; `string'
CONST	ENDS
;	COMDAT ??_C@_03EBCFJHFL@143?$AA@
CONST	SEGMENT
??_C@_03EBCFJHFL@143?$AA@ DB '143', 00H			; `string'
CONST	ENDS
;	COMDAT ??_C@_0N@FPLLJMM@ChaffCount10?$AA@
CONST	SEGMENT
??_C@_0N@FPLLJMM@ChaffCount10?$AA@ DB 'ChaffCount10', 00H ; `string'
CONST	ENDS
;	COMDAT ?radix@_Num_base@std@@2HB
CONST	SEGMENT
?radix@_Num_base@std@@2HB DD 00H			; std::_Num_base::radix
CONST	ENDS
;	COMDAT ??_C@_0L@ELJFKPMH@sndFlapEnd?$AA@
CONST	SEGMENT
??_C@_0L@ELJFKPMH@sndFlapEnd?$AA@ DB 'sndFlapEnd', 00H	; `string'
CONST	ENDS
;	COMDAT ??_C@_0L@PEGBMCBD@ChaffVec10?$AA@
CONST	SEGMENT
??_C@_0L@PEGBMCBD@ChaffVec10?$AA@ DB 'ChaffVec10', 00H	; `string'
CONST	ENDS
;	COMDAT ??_C@_03OGEABJM@144?$AA@
CONST	SEGMENT
??_C@_03OGEABJM@144?$AA@ DB '144', 00H			; `string'
CONST	ENDS
;	COMDAT ?min_exponent10@_Num_base@std@@2HB
CONST	SEGMENT
?min_exponent10@_Num_base@std@@2HB DD 00H		; std::_Num_base::min_exponent10
CONST	ENDS
;	COMDAT ??_C@_0L@DIJBGODA@ChaffPos10?$AA@
CONST	SEGMENT
??_C@_0L@DIJBGODA@ChaffPos10?$AA@ DB 'ChaffPos10', 00H	; `string'
CONST	ENDS
;	COMDAT ?min_exponent@_Num_base@std@@2HB
CONST	SEGMENT
?min_exponent@_Num_base@std@@2HB DD 00H			; std::_Num_base::min_exponent
CONST	ENDS
;	COMDAT ??_C@_0M@JDINFBLP@sndFlapLoop?$AA@
CONST	SEGMENT
??_C@_0M@JDINFBLP@sndFlapLoop?$AA@ DB 'sndFlapLoop', 00H ; `string'
CONST	ENDS
;	COMDAT ??_C@_03BHHPDANN@145?$AA@
CONST	SEGMENT
??_C@_03BHHPDANN@145?$AA@ DB '145', 00H			; `string'
CONST	ENDS
;	COMDAT ?max_exponent10@_Num_base@std@@2HB
CONST	SEGMENT
?max_exponent10@_Num_base@std@@2HB DD 00H		; std::_Num_base::max_exponent10
CONST	ENDS
;	COMDAT ??_C@_0M@BFOOGFGD@ChaffCount9?$AA@
CONST	SEGMENT
??_C@_0M@BFOOGFGD@ChaffCount9?$AA@ DB 'ChaffCount9', 00H ; `string'
CONST	ENDS
;	COMDAT ??_C@_0N@BGPFCKDO@sndFlapStart?$AA@
CONST	SEGMENT
??_C@_0N@BGPFCKDO@sndFlapStart?$AA@ DB 'sndFlapStart', 00H ; `string'
CONST	ENDS
;	COMDAT ?max_exponent@_Num_base@std@@2HB
CONST	SEGMENT
?max_exponent@_Num_base@std@@2HB DD 00H			; std::_Num_base::max_exponent
CONST	ENDS
;	COMDAT ??_C@_03CGMNIGDB@167?$AA@
CONST	SEGMENT
??_C@_03CGMNIGDB@167?$AA@ DB '167', 00H			; `string'
CONST	ENDS
;	COMDAT ??_C@_09FLHHPILC@ChaffVec9?$AA@
CONST	SEGMENT
??_C@_09FLHHPILC@ChaffVec9?$AA@ DB 'ChaffVec9', 00H	; `string'
CONST	ENDS
;	COMDAT ?max_digits10@_Num_base@std@@2HB
CONST	SEGMENT
?max_digits10@_Num_base@std@@2HB DD 00H			; std::_Num_base::max_digits10
CONST	ENDS
;	COMDAT ??_C@_0M@CFEPOFMO@sndLowSpeed?$AA@
CONST	SEGMENT
??_C@_0M@CFEPOFMO@sndLowSpeed?$AA@ DB 'sndLowSpeed', 00H ; `string'
CONST	ENDS
;	COMDAT ??_C@_03DBDHDPFK@217?$AA@
CONST	SEGMENT
??_C@_03DBDHDPFK@217?$AA@ DB '217', 00H			; `string'
CONST	ENDS
;	COMDAT ??_C@_09KHKMEOAG@ChaffPos9?$AA@
CONST	SEGMENT
??_C@_09KHKMEOAG@ChaffPos9?$AA@ DB 'ChaffPos9', 00H	; `string'
CONST	ENDS
;	COMDAT ?digits10@_Num_base@std@@2HB
CONST	SEGMENT
?digits10@_Num_base@std@@2HB DD 00H			; std::_Num_base::digits10
CONST	ENDS
;	COMDAT ?digits@_Num_base@std@@2HB
CONST	SEGMENT
?digits@_Num_base@std@@2HB DD 00H			; std::_Num_base::digits
CONST	ENDS
;	COMDAT ??_C@_0N@PKJCCGNC@sndDragChute?$AA@
CONST	SEGMENT
??_C@_0N@PKJCCGNC@sndDragChute?$AA@ DB 'sndDragChute', 00H ; `string'
CONST	ENDS
;	COMDAT ??_C@_0M@MPFFECC@ChaffCount8?$AA@
CONST	SEGMENT
??_C@_0M@MPFFECC@ChaffCount8?$AA@ DB 'ChaffCount8', 00H	; `string'
CONST	ENDS
;	COMDAT ??_C@_03FNHBLAJP@132?$AA@
CONST	SEGMENT
??_C@_03FNHBLAJP@132?$AA@ DB '132', 00H			; `string'
CONST	ENDS
;	COMDAT ?round_style@_Num_base@std@@2W4float_round_style@2@B
CONST	SEGMENT
?round_style@_Num_base@std@@2W4float_round_style@2@B DD 00H ; std::_Num_base::round_style
CONST	ENDS
;	COMDAT ??_C@_09ECGMMJPD@ChaffVec8?$AA@
CONST	SEGMENT
??_C@_09ECGMMJPD@ChaffVec8?$AA@ DB 'ChaffVec8', 00H	; `string'
CONST	ENDS
;	COMDAT ??_C@_0P@CFIOJJOC@sndWheelBrakes?$AA@
CONST	SEGMENT
??_C@_0P@CFIOJJOC@sndWheelBrakes?$AA@ DB 'sndWheelBrakes', 00H ; `string'
CONST	ENDS
;	COMDAT ?traps@_Num_base@std@@2_NB
CONST	SEGMENT
?traps@_Num_base@std@@2_NB DB 00H			; std::_Num_base::traps
CONST	ENDS
;	COMDAT ??_C@_02MOKMDPNA@42?$AA@
CONST	SEGMENT
??_C@_02MOKMDPNA@42?$AA@ DB '42', 00H			; `string'
CONST	ENDS
PUBLIC	??1AeroDataSet@@QAE@XZ				; AeroDataSet::~AeroDataSet
PUBLIC	??_EAeroDataSet@@QAEPAXI@Z			; AeroDataSet::`vector deleting destructor'
PUBLIC	?ReadAllAirframeData@@YAXXZ			; ReadAllAirframeData
PUBLIC	?FreeAllAirframeData@@YAXXZ			; FreeAllAirframeData
PUBLIC	?AirframeAeroRead@@YAPAVAeroData@@PAVSimlibFileClass@@@Z ; AirframeAeroRead
PUBLIC	?AirframeAuxAeroRead@@YAPAVAuxAeroData@@PAVSimlibFileClass@@@Z ; AirframeAuxAeroRead
PUBLIC	?AirframeEngineRead@@YAPAVEngineData@@PAVSimlibFileClass@@@Z ; AirframeEngineRead
PUBLIC	?AirframeFcsRead@@YAPAVRollData@@PAVSimlibFileClass@@@Z ; AirframeFcsRead
PUBLIC	?ReadData@@YAXPAMPAVSimlibFileClass@@@Z		; ReadData
PUBLIC	??1AeroData@@QAE@XZ				; AeroData::~AeroData
PUBLIC	??_GAeroData@@QAEPAXI@Z				; AeroData::`scalar deleting destructor'
PUBLIC	??0animIntakeData@AuxAeroData@@QAE@XZ		; AuxAeroData::animIntakeData::animIntakeData
PUBLIC	??1animIntakeData@AuxAeroData@@QAE@XZ		; AuxAeroData::animIntakeData::~animIntakeData
PUBLIC	??0AuxAeroData@@QAE@XZ				; AuxAeroData::AuxAeroData
PUBLIC	??1AuxAeroData@@QAE@XZ				; AuxAeroData::~AuxAeroData
PUBLIC	??_GAuxAeroData@@QAEPAXI@Z			; AuxAeroData::`scalar deleting destructor'
PUBLIC	??1EngineData@@QAE@XZ				; EngineData::~EngineData
PUBLIC	??_GEngineData@@QAEPAXI@Z			; EngineData::`scalar deleting destructor'
PUBLIC	??1RollData@@QAE@XZ				; RollData::~RollData
PUBLIC	??_GRollData@@QAEPAXI@Z				; RollData::`scalar deleting destructor'
PUBLIC	??1GearData@@QAE@XZ				; GearData::~GearData
PUBLIC	??_EGearData@@QAEPAXI@Z				; GearData::`vector deleting destructor'
PUBLIC	?ReadData@AirframeClass@@AAEHH@Z		; AirframeClass::ReadData
PUBLIC	?AeroRead@AirframeClass@@AAEXH@Z		; AirframeClass::AeroRead
PUBLIC	?AuxAeroRead@AirframeClass@@AAEXH@Z		; AirframeClass::AuxAeroRead
PUBLIC	?EngineRead@AirframeClass@@AAEXH@Z		; AirframeClass::EngineRead
PUBLIC	?FcsRead@AirframeClass@@AAEXH@Z			; AirframeClass::FcsRead
PUBLIC	?ReSetMaxRoll@AirframeClass@@QAEXXZ		; AirframeClass::ReSetMaxRoll
PUBLIC	?SetFlag@AirframeClass@@QAEXH@Z			; AirframeClass::SetFlag
PUBLIC	??_GLimiterMgrClass@@QAEPAXI@Z			; LimiterMgrClass::`scalar deleting destructor'
PUBLIC	?AirframeDataInitializeStorage@@YAXXZ		; AirframeDataInitializeStorage
PUBLIC	?AirframeDataReleaseStorage@@YAXXZ		; AirframeDataReleaseStorage
PUBLIC	??_C@_0M@LHMEIHDK@actypes?4lst?$AA@		; `string'
PUBLIC	??_C@_0L@BCHIDEAF@sim?2acdata?$AA@		; `string'
PUBLIC	??_C@_06EOBIOCBK@?$CFs?2?$CFs?$AA?$AA@		; `string'
PUBLIC	??_C@_09KGGGMDAE@?$CFs?2?$CFs?4dat?$AA@		; `string'
PUBLIC	??_C@_06NOBGLFED@engopt?$AA@			; `string'
PUBLIC	??_C@_08DAPAIJJC@fuelflow?$AA@			; `string'
PUBLIC	__real@00000000
PUBLIC	__real@3c8efa34
PUBLIC	__real@3f17ac60
PUBLIC	__real@3f800000
PUBLIC	__real@3fc00000
PUBLIC	__real@40400000
PUBLIC	__real@42c80000
EXTRN	??_L@YGXPAXIHP6EX0@Z1@Z:PROC			; `eh vector constructor iterator'
EXTRN	??_M@YGXPAXIHP6EX0@Z@Z:PROC			; `eh vector destructor iterator'
EXTRN	??2@YAPAXI@Z:PROC				; operator new
EXTRN	??3@YAXPAX@Z:PROC				; operator delete
EXTRN	_sprintf:PROC
EXTRN	_atof:PROC
EXTRN	_atoi:PROC
EXTRN	_stricmp:PROC
EXTRN	??_V@YAXPAX@Z:PROC				; operator delete[]
EXTRN	??_U@YAPAXI@Z:PROC				; operator new[]
EXTRN	??0LookupTable@@QAE@XZ:PROC			; LookupTable::LookupTable
EXTRN	??1LookupTable@@QAE@XZ:PROC			; LookupTable::~LookupTable
EXTRN	??0TwoDimensionTable@@QAE@XZ:PROC		; TwoDimensionTable::TwoDimensionTable
EXTRN	??1TwoDimensionTable@@QAE@XZ:PROC		; TwoDimensionTable::~TwoDimensionTable
EXTRN	??0GearData@@QAE@XZ:PROC			; GearData::GearData
EXTRN	?SetPosition@AirframeClass@@QAEXMMM@Z:PROC	; AirframeClass::SetPosition
EXTRN	?Open@SimlibFileClass@@SAPAV1@PADH@Z:PROC	; SimlibFileClass::Open
EXTRN	?ReadLine@SimlibFileClass@@QAEHPADH@Z:PROC	; SimlibFileClass::ReadLine
EXTRN	?GetNext@SimlibFileClass@@QAEPADXZ:PROC		; SimlibFileClass::GetNext
EXTRN	?Close@SimlibFileClass@@QAEHXZ:PROC		; SimlibFileClass::Close
EXTRN	??0LimiterMgrClass@@QAE@H@Z:PROC		; LimiterMgrClass::LimiterMgrClass
EXTRN	??1LimiterMgrClass@@QAE@XZ:PROC			; LimiterMgrClass::~LimiterMgrClass
EXTRN	?ReadLimiters@LimiterMgrClass@@QAEHPAVSimlibFileClass@@H@Z:PROC ; LimiterMgrClass::ReadLimiters
EXTRN	?ParseSimlibFile@@YA_NPAXPBUInputDataDesc@@PAVSimlibFileClass@@@Z:PROC ; ParseSimlibFile
EXTRN	@__security_check_cookie@4:PROC
EXTRN	___CxxFrameHandler3:PROC
EXTRN	?gLimiterMgr@@3PAVLimiterMgrClass@@A:DWORD	; gLimiterMgr
EXTRN	___security_cookie:DWORD
EXTRN	__fltused:DWORD
_BSS	SEGMENT
_piecewise_construct DB 01H DUP (?)
	ALIGN	4

_allocator_arg DB 01H DUP (?)
_BSS	ENDS
CRT$XCU	SEGMENT
_piecewise_construct$initializer$ DD FLAT:??__Epiecewise_construct@std@@YAXXZ
CRT$XCU	ENDS
;	COMDAT __real@42c80000
CONST	SEGMENT
__real@42c80000 DD 042c80000r			; 100
CONST	ENDS
;	COMDAT __real@40400000
CONST	SEGMENT
__real@40400000 DD 040400000r			; 3
CONST	ENDS
;	COMDAT __real@3fc00000
CONST	SEGMENT
__real@3fc00000 DD 03fc00000r			; 1.5
CONST	ENDS
;	COMDAT __real@3f800000
CONST	SEGMENT
__real@3f800000 DD 03f800000r			; 1
CONST	ENDS
;	COMDAT __real@3f17ac60
CONST	SEGMENT
__real@3f17ac60 DD 03f17ac60r			; 0.592474
CONST	ENDS
;	COMDAT __real@3c8efa34
CONST	SEGMENT
__real@3c8efa34 DD 03c8efa34r			; 0.0174533
CONST	ENDS
;	COMDAT __real@00000000
CONST	SEGMENT
__real@00000000 DD 000000000r			; 0
CONST	ENDS
;	COMDAT ??_C@_08DAPAIJJC@fuelflow?$AA@
CONST	SEGMENT
??_C@_08DAPAIJJC@fuelflow?$AA@ DB 'fuelflow', 00H	; `string'
CONST	ENDS
;	COMDAT ??_C@_06NOBGLFED@engopt?$AA@
CONST	SEGMENT
??_C@_06NOBGLFED@engopt?$AA@ DB 'engopt', 00H		; `string'
CONST	ENDS
;	COMDAT ??_C@_09KGGGMDAE@?$CFs?2?$CFs?4dat?$AA@
CONST	SEGMENT
??_C@_09KGGGMDAE@?$CFs?2?$CFs?4dat?$AA@ DB '%s\%s.dat', 00H ; `string'
CONST	ENDS
;	COMDAT ??_C@_06EOBIOCBK@?$CFs?2?$CFs?$AA?$AA@
CONST	SEGMENT
??_C@_06EOBIOCBK@?$CFs?2?$CFs?$AA?$AA@ DB '%s\%s', 00H, 00H ; `string'
CONST	ENDS
;	COMDAT ??_C@_0L@BCHIDEAF@sim?2acdata?$AA@
CONST	SEGMENT
??_C@_0L@BCHIDEAF@sim?2acdata?$AA@ DB 'sim\acdata', 00H	; `string'
CONST	ENDS
;	COMDAT ??_C@_0M@LHMEIHDK@actypes?4lst?$AA@
CONST	SEGMENT
??_C@_0M@LHMEIHDK@actypes?4lst?$AA@ DB 'actypes.lst', 00H ; `string'
CONST	ENDS
;	COMDAT xdata$x
xdata$x	SEGMENT
__ehfuncinfo$??1AuxAeroData@@QAE@XZ DD 019930522H
	DD	0eH
	DD	FLAT:__unwindtable$??1AuxAeroData@@QAE@XZ
	DD	2 DUP(00H)
	DD	2 DUP(00H)
	DD	00H
	DD	01H
__unwindtable$??1AuxAeroData@@QAE@XZ DD 0ffffffffH
	DD	FLAT:__unwindfunclet$??1AuxAeroData@@QAE@XZ$0
	DD	00H
	DD	FLAT:__unwindfunclet$??1AuxAeroData@@QAE@XZ$1
	DD	01H
	DD	FLAT:__unwindfunclet$??1AuxAeroData@@QAE@XZ$2
	DD	02H
	DD	FLAT:__unwindfunclet$??1AuxAeroData@@QAE@XZ$3
	DD	03H
	DD	FLAT:__unwindfunclet$??1AuxAeroData@@QAE@XZ$4
	DD	04H
	DD	FLAT:__unwindfunclet$??1AuxAeroData@@QAE@XZ$5
	DD	05H
	DD	FLAT:__unwindfunclet$??1AuxAeroData@@QAE@XZ$6
	DD	06H
	DD	FLAT:__unwindfunclet$??1AuxAeroData@@QAE@XZ$7
	DD	07H
	DD	FLAT:__unwindfunclet$??1AuxAeroData@@QAE@XZ$8
	DD	08H
	DD	FLAT:__unwindfunclet$??1AuxAeroData@@QAE@XZ$9
	DD	09H
	DD	FLAT:__unwindfunclet$??1AuxAeroData@@QAE@XZ$10
	DD	0aH
	DD	FLAT:__unwindfunclet$??1AuxAeroData@@QAE@XZ$11
	DD	0bH
	DD	FLAT:__unwindfunclet$??1AuxAeroData@@QAE@XZ$12
	DD	0cH
	DD	FLAT:__unwindfunclet$??1AuxAeroData@@QAE@XZ$13
xdata$x	ENDS
;	COMDAT xdata$x
xdata$x	SEGMENT
__ehfuncinfo$??0AuxAeroData@@QAE@XZ DD 019930522H
	DD	0eH
	DD	FLAT:__unwindtable$??0AuxAeroData@@QAE@XZ
	DD	2 DUP(00H)
	DD	2 DUP(00H)
	DD	00H
	DD	01H
__unwindtable$??0AuxAeroData@@QAE@XZ DD 0ffffffffH
	DD	FLAT:__unwindfunclet$??0AuxAeroData@@QAE@XZ$0
	DD	00H
	DD	FLAT:__unwindfunclet$??0AuxAeroData@@QAE@XZ$1
	DD	01H
	DD	FLAT:__unwindfunclet$??0AuxAeroData@@QAE@XZ$2
	DD	02H
	DD	FLAT:__unwindfunclet$??0AuxAeroData@@QAE@XZ$3
	DD	03H
	DD	FLAT:__unwindfunclet$??0AuxAeroData@@QAE@XZ$4
	DD	04H
	DD	FLAT:__unwindfunclet$??0AuxAeroData@@QAE@XZ$5
	DD	05H
	DD	FLAT:__unwindfunclet$??0AuxAeroData@@QAE@XZ$6
	DD	06H
	DD	FLAT:__unwindfunclet$??0AuxAeroData@@QAE@XZ$7
	DD	07H
	DD	FLAT:__unwindfunclet$??0AuxAeroData@@QAE@XZ$8
	DD	08H
	DD	FLAT:__unwindfunclet$??0AuxAeroData@@QAE@XZ$9
	DD	09H
	DD	FLAT:__unwindfunclet$??0AuxAeroData@@QAE@XZ$10
	DD	0aH
	DD	FLAT:__unwindfunclet$??0AuxAeroData@@QAE@XZ$11
	DD	0bH
	DD	FLAT:__unwindfunclet$??0AuxAeroData@@QAE@XZ$12
	DD	0cH
	DD	FLAT:__unwindfunclet$??0AuxAeroData@@QAE@XZ$13
xdata$x	ENDS
xdata$x	SEGMENT
__unwindtable$?ReadData@AirframeClass@@AAEHH@Z DD 0ffffffffH
	DD	FLAT:__unwindfunclet$?ReadData@AirframeClass@@AAEHH@Z$0
__unwindtable$?AirframeAuxAeroRead@@YAPAVAuxAeroData@@PAVSimlibFileClass@@@Z DD 0ffffffffH
	DD	FLAT:__unwindfunclet$?AirframeAuxAeroRead@@YAPAVAuxAeroData@@PAVSimlibFileClass@@@Z$0
__unwindtable$?ReadAllAirframeData@@YAXXZ DD 0ffffffffH
	DD	FLAT:__unwindfunclet$?ReadAllAirframeData@@YAXXZ$0
__ehfuncinfo$?ReadData@AirframeClass@@AAEHH@Z DD 019930522H
	DD	01H
	DD	FLAT:__unwindtable$?ReadData@AirframeClass@@AAEHH@Z
	DD	2 DUP(00H)
	DD	2 DUP(00H)
	DD	00H
	DD	01H
__ehfuncinfo$?AirframeAuxAeroRead@@YAPAVAuxAeroData@@PAVSimlibFileClass@@@Z DD 019930522H
	DD	01H
	DD	FLAT:__unwindtable$?AirframeAuxAeroRead@@YAPAVAuxAeroData@@PAVSimlibFileClass@@@Z
	DD	2 DUP(00H)
	DD	2 DUP(00H)
	DD	00H
	DD	01H
__ehfuncinfo$?ReadAllAirframeData@@YAXXZ DD 019930522H
	DD	01H
	DD	FLAT:__unwindtable$?ReadAllAirframeData@@YAXXZ
	DD	2 DUP(00H)
	DD	2 DUP(00H)
	DD	00H
	DD	01H
xdata$x	ENDS
CRT$XCU	SEGMENT
_allocator_arg$initializer$ DD FLAT:??__Eallocator_arg@std@@YAXXZ
CRT$XCU	ENDS
; Function compile flags: /Odtp
; File c:\users\zhitao li\documents\visual studio 2012\projects\freefalcon\sim\airframe\readin.cpp
_TEXT	SEGMENT
?AirframeDataReleaseStorage@@YAXXZ PROC			; AirframeDataReleaseStorage

; 72   : {

	push	ebp
	mov	ebp, esp

; 73   : #ifdef USE_SH_POOLS
; 74   :    MemPoolFree( AirframeDataPool );
; 75   : #endif
; 76   : }

	pop	ebp
	ret	0
?AirframeDataReleaseStorage@@YAXXZ ENDP			; AirframeDataReleaseStorage
_TEXT	ENDS
; Function compile flags: /Odtp
; File c:\users\zhitao li\documents\visual studio 2012\projects\freefalcon\sim\airframe\readin.cpp
_TEXT	SEGMENT
?AirframeDataInitializeStorage@@YAXXZ PROC		; AirframeDataInitializeStorage

; 65   : {

	push	ebp
	mov	ebp, esp

; 66   : #ifdef USE_SH_POOLS
; 67   :    AirframeDataPool = MemPoolInit( 0 );
; 68   : #endif
; 69   : }

	pop	ebp
	ret	0
?AirframeDataInitializeStorage@@YAXXZ ENDP		; AirframeDataInitializeStorage
_TEXT	ENDS
; Function compile flags: /Odtp
;	COMDAT ??_GLimiterMgrClass@@QAEPAXI@Z
_TEXT	SEGMENT
_this$ = -4						; size = 4
___flags$ = 8						; size = 4
??_GLimiterMgrClass@@QAEPAXI@Z PROC			; LimiterMgrClass::`scalar deleting destructor', COMDAT
; _this$ = ecx
	push	ebp
	mov	ebp, esp
	push	ecx
	mov	DWORD PTR _this$[ebp], ecx
	mov	ecx, DWORD PTR _this$[ebp]
	call	??1LimiterMgrClass@@QAE@XZ		; LimiterMgrClass::~LimiterMgrClass
	mov	eax, DWORD PTR ___flags$[ebp]
	and	eax, 1
	je	SHORT $LN1@scalar
	mov	ecx, DWORD PTR _this$[ebp]
	push	ecx
	call	??3@YAXPAX@Z				; operator delete
	add	esp, 4
$LN1@scalar:
	mov	eax, DWORD PTR _this$[ebp]
	mov	esp, ebp
	pop	ebp
	ret	4
??_GLimiterMgrClass@@QAEPAXI@Z ENDP			; LimiterMgrClass::`scalar deleting destructor'
_TEXT	ENDS
; Function compile flags: /Odtp
; File c:\users\zhitao li\documents\visual studio 2012\projects\freefalcon\sim\include\airframe.h
;	COMDAT ?SetFlag@AirframeClass@@QAEXH@Z
_TEXT	SEGMENT
_this$ = -4						; size = 4
_newFlag$ = 8						; size = 4
?SetFlag@AirframeClass@@QAEXH@Z PROC			; AirframeClass::SetFlag, COMDAT
; _this$ = ecx

; 1214 : 	void SetFlag (int newFlag) {flags |= newFlag;};

	push	ebp
	mov	ebp, esp
	push	ecx
	mov	DWORD PTR _this$[ebp], ecx
	mov	eax, DWORD PTR _this$[ebp]
	mov	ecx, DWORD PTR [eax+88]
	or	ecx, DWORD PTR _newFlag$[ebp]
	mov	edx, DWORD PTR _this$[ebp]
	mov	DWORD PTR [edx+88], ecx
	mov	esp, ebp
	pop	ebp
	ret	4
?SetFlag@AirframeClass@@QAEXH@Z ENDP			; AirframeClass::SetFlag
_TEXT	ENDS
; Function compile flags: /Odtp
; File c:\users\zhitao li\documents\visual studio 2012\projects\freefalcon\sim\airframe\readin.cpp
_TEXT	SEGMENT
_this$ = -4						; size = 4
?ReSetMaxRoll@AirframeClass@@QAEXXZ PROC		; AirframeClass::ReSetMaxRoll
; _this$ = ecx

; 60   : {

	push	ebp
	mov	ebp, esp
	push	ecx
	mov	DWORD PTR _this$[ebp], ecx

; 61   :    maxRoll = aeroDataset[vehicleIndex].inputData[AeroDataSet::MaxRoll];

	mov	eax, DWORD PTR _this$[ebp]
	movsx	ecx, WORD PTR [eax+92]
	imul	ecx, 220				; 000000dcH
	add	ecx, DWORD PTR ?aeroDataset@@3PAVAeroDataSet@@A ; aeroDataset
	mov	edx, 4
	shl	edx, 3
	mov	eax, DWORD PTR _this$[ebp]
	mov	ecx, DWORD PTR [ecx+edx+16]
	mov	DWORD PTR [eax+64], ecx

; 62   : }

	mov	esp, ebp
	pop	ebp
	ret	0
?ReSetMaxRoll@AirframeClass@@QAEXXZ ENDP		; AirframeClass::ReSetMaxRoll
_TEXT	ENDS
; Function compile flags: /Odtp
; File c:\users\zhitao li\documents\visual studio 2012\projects\freefalcon\sim\airframe\readin.cpp
_TEXT	SEGMENT
_this$ = -4						; size = 4
_idx$ = 8						; size = 4
?FcsRead@AirframeClass@@AAEXH@Z PROC			; AirframeClass::FcsRead
; _this$ = ecx

; 336  : {

	push	ebp
	mov	ebp, esp
	push	ecx
	mov	DWORD PTR _this$[ebp], ecx

; 337  : 	ShiAssert(idx < num_sets);
; 338  : 	if (idx >= num_sets)

	mov	eax, DWORD PTR _idx$[ebp]
	cmp	eax, DWORD PTR ?num_sets@@3HA		; num_sets
	jl	SHORT $LN1@FcsRead

; 339  : 		return;

	jmp	SHORT $LN2@FcsRead
$LN1@FcsRead:

; 340  : 
; 341  : 	rollCmd = aeroDataset[idx].fcsData;

	mov	ecx, DWORD PTR _idx$[ebp]
	imul	ecx, 220				; 000000dcH
	mov	edx, DWORD PTR _this$[ebp]
	mov	eax, DWORD PTR ?aeroDataset@@3PAVAeroDataSet@@A ; aeroDataset
	mov	ecx, DWORD PTR [eax+ecx]
	mov	DWORD PTR [edx+12], ecx
$LN2@FcsRead:

; 342  : }

	mov	esp, ebp
	pop	ebp
	ret	4
?FcsRead@AirframeClass@@AAEXH@Z ENDP			; AirframeClass::FcsRead
_TEXT	ENDS
; Function compile flags: /Odtp
; File c:\users\zhitao li\documents\visual studio 2012\projects\freefalcon\sim\airframe\readin.cpp
_TEXT	SEGMENT
_this$ = -4						; size = 4
_idx$ = 8						; size = 4
?EngineRead@AirframeClass@@AAEXH@Z PROC			; AirframeClass::EngineRead
; _this$ = ecx

; 308  : {

	push	ebp
	mov	ebp, esp
	push	ecx
	mov	DWORD PTR _this$[ebp], ecx

; 309  : 	ShiAssert(idx < num_sets);
; 310  : 	if (idx >= num_sets)

	mov	eax, DWORD PTR _idx$[ebp]
	cmp	eax, DWORD PTR ?num_sets@@3HA		; num_sets
	jl	SHORT $LN1@EngineRead

; 311  : 		return;

	jmp	SHORT $LN2@EngineRead
$LN1@EngineRead:

; 312  : 
; 313  : 	engineData = aeroDataset[idx].engineData;

	mov	ecx, DWORD PTR _idx$[ebp]
	imul	ecx, 220				; 000000dcH
	mov	edx, DWORD PTR _this$[ebp]
	mov	eax, DWORD PTR ?aeroDataset@@3PAVAeroDataSet@@A ; aeroDataset
	mov	ecx, DWORD PTR [eax+ecx+12]
	mov	DWORD PTR [edx+8], ecx
$LN2@EngineRead:

; 314  : }

	mov	esp, ebp
	pop	ebp
	ret	4
?EngineRead@AirframeClass@@AAEXH@Z ENDP			; AirframeClass::EngineRead
_TEXT	ENDS
; Function compile flags: /Odtp
; File c:\users\zhitao li\documents\visual studio 2012\projects\freefalcon\sim\airframe\readin.cpp
_TEXT	SEGMENT
_this$ = -4						; size = 4
_idx$ = 8						; size = 4
?AuxAeroRead@AirframeClass@@AAEXH@Z PROC		; AirframeClass::AuxAeroRead
; _this$ = ecx

; 280  : {

	push	ebp
	mov	ebp, esp
	push	ecx
	mov	DWORD PTR _this$[ebp], ecx

; 281  : 	ShiAssert(idx < num_sets);
; 282  : 	if (idx >= num_sets)

	mov	eax, DWORD PTR _idx$[ebp]
	cmp	eax, DWORD PTR ?num_sets@@3HA		; num_sets
	jl	SHORT $LN1@AuxAeroRea

; 283  : 		return;

	jmp	SHORT $LN2@AuxAeroRea
$LN1@AuxAeroRea:

; 284  : 		
; 285  : 	auxaeroData = aeroDataset[idx].auxaeroData;

	mov	ecx, DWORD PTR _idx$[ebp]
	imul	ecx, 220				; 000000dcH
	mov	edx, DWORD PTR _this$[ebp]
	mov	eax, DWORD PTR ?aeroDataset@@3PAVAeroDataSet@@A ; aeroDataset
	mov	ecx, DWORD PTR [eax+ecx+8]
	mov	DWORD PTR [edx+4], ecx
$LN2@AuxAeroRea:

; 286  : }

	mov	esp, ebp
	pop	ebp
	ret	4
?AuxAeroRead@AirframeClass@@AAEXH@Z ENDP		; AirframeClass::AuxAeroRead
_TEXT	ENDS
; Function compile flags: /Odtp
; File c:\users\zhitao li\documents\visual studio 2012\projects\freefalcon\sim\airframe\readin.cpp
_TEXT	SEGMENT
_this$ = -4						; size = 4
_idx$ = 8						; size = 4
?AeroRead@AirframeClass@@AAEXH@Z PROC			; AirframeClass::AeroRead
; _this$ = ecx

; 271  : {

	push	ebp
	mov	ebp, esp
	push	ecx
	mov	DWORD PTR _this$[ebp], ecx

; 272  : 	ShiAssert(idx < num_sets);
; 273  : 	if (idx >= num_sets)

	mov	eax, DWORD PTR _idx$[ebp]
	cmp	eax, DWORD PTR ?num_sets@@3HA		; num_sets
	jl	SHORT $LN1@AeroRead

; 274  : 		return;

	jmp	SHORT $LN2@AeroRead
$LN1@AeroRead:

; 275  : 
; 276  : 	aeroData = aeroDataset[idx].aeroData;

	mov	ecx, DWORD PTR _idx$[ebp]
	imul	ecx, 220				; 000000dcH
	mov	edx, DWORD PTR _this$[ebp]
	mov	eax, DWORD PTR ?aeroDataset@@3PAVAeroDataSet@@A ; aeroDataset
	mov	ecx, DWORD PTR [eax+ecx+4]
	mov	DWORD PTR [edx], ecx
$LN2@AeroRead:

; 277  : }

	mov	esp, ebp
	pop	ebp
	ret	4
?AeroRead@AirframeClass@@AAEXH@Z ENDP			; AirframeClass::AeroRead
_TEXT	ENDS
; Function compile flags: /Odtp
; File c:\users\zhitao li\documents\visual studio 2012\projects\freefalcon\sim\airframe\readin.cpp
_TEXT	SEGMENT
$T2 = -36						; size = 4
tv254 = -32						; size = 4
$T3 = -28						; size = 4
$T4 = -24						; size = 4
_i$5 = -20						; size = 4
_this$ = -16						; size = 4
__$EHRec$ = -12						; size = 12
_idx$ = 8						; size = 4
?ReadData@AirframeClass@@AAEHH@Z PROC			; AirframeClass::ReadData
; _this$ = ecx

; 99   : {

	push	ebp
	mov	ebp, esp
	push	-1
	push	__ehhandler$?ReadData@AirframeClass@@AAEHH@Z
	mov	eax, DWORD PTR fs:0
	push	eax
	sub	esp, 24					; 00000018H
	mov	eax, DWORD PTR ___security_cookie
	xor	eax, ebp
	push	eax
	lea	eax, DWORD PTR __$EHRec$[ebp]
	mov	DWORD PTR fs:0, eax
	mov	DWORD PTR _this$[ebp], ecx

; 100  : 	ShiAssert(idx < num_sets);
; 101  : 	if (idx >= num_sets)

	mov	eax, DWORD PTR _idx$[ebp]
	cmp	eax, DWORD PTR ?num_sets@@3HA		; num_sets
	jl	SHORT $LN10@ReadData

; 102  : 		return 0;

	xor	eax, eax
	jmp	$LN11@ReadData
$LN10@ReadData:

; 103  : 
; 104  : 	vehicleIndex = (short)idx;

	mov	ecx, DWORD PTR _this$[ebp]
	mov	dx, WORD PTR _idx$[ebp]
	mov	WORD PTR [ecx+92], dx

; 105  :    /*----------------------------*/
; 106  :    /* Initialize Inertial Coords */
; 107  :    /*----------------------------*/
; 108  :    mach    = initialMach;

	mov	eax, DWORD PTR _this$[ebp]
	mov	ecx, DWORD PTR _this$[ebp]
	mov	edx, DWORD PTR [ecx+1328]
	mov	DWORD PTR [eax+1144], edx

; 109  :    if (mach > 3.0F)

	mov	eax, DWORD PTR _this$[ebp]
	movss	xmm0, DWORD PTR [eax+1144]
	comiss	xmm0, DWORD PTR __real@40400000
	jbe	SHORT $LN9@ReadData

; 110  :       mach *= FTPSEC_TO_KNOTS;

	mov	ecx, DWORD PTR _this$[ebp]
	movss	xmm0, DWORD PTR [ecx+1144]
	mulss	xmm0, DWORD PTR __real@3f17ac60
	mov	edx, DWORD PTR _this$[ebp]
	movss	DWORD PTR [edx+1144], xmm0
$LN9@ReadData:

; 111  : 
; 112  :    SetPosition(initialX, initialY, initialZ);

	mov	eax, DWORD PTR _this$[ebp]
	push	ecx
	movss	xmm0, DWORD PTR [eax+1324]
	movss	DWORD PTR [esp], xmm0
	mov	ecx, DWORD PTR _this$[ebp]
	push	ecx
	movss	xmm0, DWORD PTR [ecx+1320]
	movss	DWORD PTR [esp], xmm0
	mov	edx, DWORD PTR _this$[ebp]
	push	ecx
	movss	xmm0, DWORD PTR [edx+1316]
	movss	DWORD PTR [esp], xmm0
	mov	ecx, DWORD PTR _this$[ebp]
	call	?SetPosition@AirframeClass@@QAEXMMM@Z	; AirframeClass::SetPosition

; 113  :    sigma   = initialPsi;

	mov	eax, DWORD PTR _this$[ebp]
	mov	ecx, DWORD PTR _this$[ebp]
	mov	edx, DWORD PTR [ecx+1332]
	mov	DWORD PTR [eax+1176], edx

; 114  : 
; 115  :    emptyWeight = weight = aeroDataset[idx].inputData[AeroDataSet::EmptyWeight];

	mov	eax, DWORD PTR _idx$[ebp]
	imul	eax, 220				; 000000dcH
	add	eax, DWORD PTR ?aeroDataset@@3PAVAeroDataSet@@A ; aeroDataset
	mov	ecx, 4
	imul	ecx, 0
	mov	edx, DWORD PTR _this$[ebp]
	mov	eax, DWORD PTR [eax+ecx+16]
	mov	DWORD PTR [edx+44], eax
	mov	ecx, DWORD PTR _this$[ebp]
	mov	edx, DWORD PTR _this$[ebp]
	mov	eax, DWORD PTR [edx+44]
	mov	DWORD PTR [ecx+52], eax

; 116  :    area = aeroDataset[idx].inputData[AeroDataSet::Area];

	mov	ecx, DWORD PTR _idx$[ebp]
	imul	ecx, 220				; 000000dcH
	add	ecx, DWORD PTR ?aeroDataset@@3PAVAeroDataSet@@A ; aeroDataset
	mov	edx, 4
	shl	edx, 0
	mov	eax, DWORD PTR _this$[ebp]
	mov	ecx, DWORD PTR [ecx+edx+16]
	mov	DWORD PTR [eax+16], ecx

; 117  :    if (initialFuel < 0.0F)

	mov	edx, DWORD PTR _this$[ebp]
	movss	xmm0, DWORD PTR __real@00000000
	comiss	xmm0, DWORD PTR [edx+1336]
	jbe	SHORT $LN8@ReadData

; 118  :    {
; 119  : 	   fuel = aeroDataset[idx].inputData[AeroDataSet::InternalFuel];

	mov	eax, DWORD PTR _idx$[ebp]
	imul	eax, 220				; 000000dcH
	add	eax, DWORD PTR ?aeroDataset@@3PAVAeroDataSet@@A ; aeroDataset
	mov	ecx, 4
	shl	ecx, 1
	mov	edx, DWORD PTR _this$[ebp]
	mov	eax, DWORD PTR [eax+ecx+16]
	mov	DWORD PTR [edx+20], eax
	jmp	$LN5@ReadData
$LN8@ReadData:

; 120  :    }
; 121  :    else if (initialFuel > aeroDataset[idx].inputData[AeroDataSet::InternalFuel])

	mov	ecx, DWORD PTR _idx$[ebp]
	imul	ecx, 220				; 000000dcH
	add	ecx, DWORD PTR ?aeroDataset@@3PAVAeroDataSet@@A ; aeroDataset
	mov	edx, 4
	shl	edx, 1
	mov	eax, DWORD PTR _this$[ebp]
	movss	xmm0, DWORD PTR [eax+1336]
	comiss	xmm0, DWORD PTR [ecx+edx+16]
	jbe	SHORT $LN6@ReadData

; 122  :    {
; 123  :       fuel = aeroDataset[idx].inputData[AeroDataSet::InternalFuel];

	mov	ecx, DWORD PTR _idx$[ebp]
	imul	ecx, 220				; 000000dcH
	add	ecx, DWORD PTR ?aeroDataset@@3PAVAeroDataSet@@A ; aeroDataset
	mov	edx, 4
	shl	edx, 1
	mov	eax, DWORD PTR _this$[ebp]
	mov	ecx, DWORD PTR [ecx+edx+16]
	mov	DWORD PTR [eax+20], ecx

; 124  :       externalFuel = initialFuel - aeroDataset[idx].inputData[AeroDataSet::InternalFuel];

	mov	edx, DWORD PTR _idx$[ebp]
	imul	edx, 220				; 000000dcH
	add	edx, DWORD PTR ?aeroDataset@@3PAVAeroDataSet@@A ; aeroDataset
	mov	eax, 4
	shl	eax, 1
	mov	ecx, DWORD PTR _this$[ebp]
	movss	xmm0, DWORD PTR [ecx+1336]
	subss	xmm0, DWORD PTR [edx+eax+16]
	mov	edx, DWORD PTR _this$[ebp]
	movss	DWORD PTR [edx+32], xmm0

; 125  :    }
; 126  :    else

	jmp	SHORT $LN5@ReadData
$LN6@ReadData:

; 127  :    {
; 128  :       fuel = initialFuel;

	mov	eax, DWORD PTR _this$[ebp]
	mov	ecx, DWORD PTR _this$[ebp]
	mov	edx, DWORD PTR [ecx+1336]
	mov	DWORD PTR [eax+20], edx
$LN5@ReadData:

; 129  :    }
; 130  : 
; 131  :    weight += (fuel + externalFuel);

	mov	eax, DWORD PTR _this$[ebp]
	mov	ecx, DWORD PTR _this$[ebp]
	movss	xmm0, DWORD PTR [eax+20]
	addss	xmm0, DWORD PTR [ecx+32]
	mov	edx, DWORD PTR _this$[ebp]
	addss	xmm0, DWORD PTR [edx+44]
	mov	eax, DWORD PTR _this$[ebp]
	movss	DWORD PTR [eax+44], xmm0

; 132  : 
; 133  :    aoamax = aeroDataset[idx].inputData[AeroDataSet::AOAMax];

	mov	ecx, DWORD PTR _idx$[ebp]
	imul	ecx, 220				; 000000dcH
	add	ecx, DWORD PTR ?aeroDataset@@3PAVAeroDataSet@@A ; aeroDataset
	mov	edx, 4
	imul	edx, 3
	mov	eax, DWORD PTR _this$[ebp]
	mov	ecx, DWORD PTR [ecx+edx+16]
	mov	DWORD PTR [eax+168], ecx

; 134  :    aoamin = aeroDataset[idx].inputData[AeroDataSet::AOAMin];

	mov	edx, DWORD PTR _idx$[ebp]
	imul	edx, 220				; 000000dcH
	add	edx, DWORD PTR ?aeroDataset@@3PAVAeroDataSet@@A ; aeroDataset
	mov	eax, 4
	shl	eax, 2
	mov	ecx, DWORD PTR _this$[ebp]
	mov	edx, DWORD PTR [edx+eax+16]
	mov	DWORD PTR [ecx+172], edx

; 135  :    betmax = aeroDataset[idx].inputData[AeroDataSet::BetaMax];

	mov	eax, DWORD PTR _idx$[ebp]
	imul	eax, 220				; 000000dcH
	add	eax, DWORD PTR ?aeroDataset@@3PAVAeroDataSet@@A ; aeroDataset
	mov	ecx, 4
	imul	ecx, 5
	mov	edx, DWORD PTR _this$[ebp]
	mov	eax, DWORD PTR [eax+ecx+16]
	mov	DWORD PTR [edx+176], eax

; 136  :    betmin = aeroDataset[idx].inputData[AeroDataSet::BetaMin];

	mov	ecx, DWORD PTR _idx$[ebp]
	imul	ecx, 220				; 000000dcH
	add	ecx, DWORD PTR ?aeroDataset@@3PAVAeroDataSet@@A ; aeroDataset
	mov	edx, 4
	imul	edx, 6
	mov	eax, DWORD PTR _this$[ebp]
	mov	ecx, DWORD PTR [ecx+edx+16]
	mov	DWORD PTR [eax+180], ecx

; 137  :    curMaxGs = maxGs = aeroDataset[idx].inputData[AeroDataSet::MaxGs];

	mov	edx, DWORD PTR _idx$[ebp]
	imul	edx, 220				; 000000dcH
	add	edx, DWORD PTR ?aeroDataset@@3PAVAeroDataSet@@A ; aeroDataset
	mov	eax, 4
	imul	eax, 7
	mov	ecx, DWORD PTR _this$[ebp]
	mov	edx, DWORD PTR [edx+eax+16]
	mov	DWORD PTR [ecx+60], edx
	mov	eax, DWORD PTR _this$[ebp]
	mov	ecx, DWORD PTR _this$[ebp]
	mov	edx, DWORD PTR [ecx+60]
	mov	DWORD PTR [eax+1244], edx

; 138  :    maxRoll = aeroDataset[idx].inputData[AeroDataSet::MaxRoll];

	mov	eax, DWORD PTR _idx$[ebp]
	imul	eax, 220				; 000000dcH
	add	eax, DWORD PTR ?aeroDataset@@3PAVAeroDataSet@@A ; aeroDataset
	mov	ecx, 4
	shl	ecx, 3
	mov	edx, DWORD PTR _this$[ebp]
	mov	eax, DWORD PTR [eax+ecx+16]
	mov	DWORD PTR [edx+64], eax

; 139  :    minVcas = aeroDataset[idx].inputData[AeroDataSet::MinVcas];

	mov	ecx, DWORD PTR _idx$[ebp]
	imul	ecx, 220				; 000000dcH
	add	ecx, DWORD PTR ?aeroDataset@@3PAVAeroDataSet@@A ; aeroDataset
	mov	edx, 4
	imul	edx, 9
	mov	eax, DWORD PTR _this$[ebp]
	mov	ecx, DWORD PTR [ecx+edx+16]
	mov	DWORD PTR [eax+76], ecx

; 140  :    curMaxStoreSpeed = maxVcas = aeroDataset[idx].inputData[AeroDataSet::MaxVcas];//me123 addet curMaxVcas

	mov	edx, DWORD PTR _idx$[ebp]
	imul	edx, 220				; 000000dcH
	add	edx, DWORD PTR ?aeroDataset@@3PAVAeroDataSet@@A ; aeroDataset
	mov	eax, 4
	imul	eax, 10					; 0000000aH
	mov	ecx, DWORD PTR _this$[ebp]
	mov	edx, DWORD PTR [edx+eax+16]
	mov	DWORD PTR [ecx+80], edx
	mov	eax, DWORD PTR _this$[ebp]
	mov	ecx, DWORD PTR _this$[ebp]
	mov	edx, DWORD PTR [ecx+80]
	mov	DWORD PTR [eax+1612], edx

; 141  :    cornerVcas = aeroDataset[idx].inputData[AeroDataSet::CornerVcas];

	mov	eax, DWORD PTR _idx$[ebp]
	imul	eax, 220				; 000000dcH
	add	eax, DWORD PTR ?aeroDataset@@3PAVAeroDataSet@@A ; aeroDataset
	mov	ecx, 4
	imul	ecx, 11					; 0000000bH
	mov	edx, DWORD PTR _this$[ebp]
	mov	eax, DWORD PTR [eax+ecx+16]
	mov	DWORD PTR [edx+84], eax

; 142  : 
; 143  :    gear = new GearData[FloatToInt32(aeroDataset[idx].inputData[AeroDataSet::NumGear])];

	mov	ecx, DWORD PTR _idx$[ebp]
	imul	ecx, 220				; 000000dcH
	add	ecx, DWORD PTR ?aeroDataset@@3PAVAeroDataSet@@A ; aeroDataset
	mov	edx, 4
	imul	edx, 13					; 0000000dH
	push	ecx
	movss	xmm0, DWORD PTR [ecx+edx+16]
	movss	DWORD PTR [esp], xmm0
	call	?FloatToInt32@@YAHM@Z			; FloatToInt32
	add	esp, 4
	mov	DWORD PTR $T3[ebp], eax
	xor	ecx, ecx
	mov	eax, DWORD PTR $T3[ebp]
	mov	edx, 28					; 0000001cH
	mul	edx
	seto	cl
	neg	ecx
	or	ecx, eax
	xor	eax, eax
	add	ecx, 4
	setb	al
	neg	eax
	or	eax, ecx
	push	eax
	call	??_U@YAPAXI@Z				; operator new[]
	add	esp, 4
	mov	DWORD PTR $T4[ebp], eax
	mov	DWORD PTR __$EHRec$[ebp+8], 0
	cmp	DWORD PTR $T4[ebp], 0
	je	SHORT $LN13@ReadData
	mov	ecx, DWORD PTR $T4[ebp]
	mov	edx, DWORD PTR $T3[ebp]
	mov	DWORD PTR [ecx], edx
	push	OFFSET ??1GearData@@QAE@XZ		; GearData::~GearData
	push	OFFSET ??0GearData@@QAE@XZ		; GearData::GearData
	mov	eax, DWORD PTR $T3[ebp]
	push	eax
	push	28					; 0000001cH
	mov	ecx, DWORD PTR $T4[ebp]
	add	ecx, 4
	push	ecx
	call	??_L@YGXPAXIHP6EX0@Z1@Z
	mov	edx, DWORD PTR $T4[ebp]
	add	edx, 4
	mov	DWORD PTR tv254[ebp], edx
	jmp	SHORT $LN14@ReadData
$LN13@ReadData:
	mov	DWORD PTR tv254[ebp], 0
$LN14@ReadData:
	mov	eax, DWORD PTR tv254[ebp]
	mov	DWORD PTR $T2[ebp], eax
	mov	DWORD PTR __$EHRec$[ebp+8], -1
	mov	ecx, DWORD PTR _this$[ebp]
	mov	edx, DWORD PTR $T2[ebp]
	mov	DWORD PTR [ecx+1256], edx

; 144  : 
; 145  :    for (int i = 0; i < aeroDataset[idx].inputData[AeroDataSet::NumGear]; i++){

	mov	DWORD PTR _i$5[ebp], 0
	jmp	SHORT $LN4@ReadData
$LN3@ReadData:
	mov	eax, DWORD PTR _i$5[ebp]
	add	eax, 1
	mov	DWORD PTR _i$5[ebp], eax
$LN4@ReadData:
	cvtsi2ss xmm0, DWORD PTR _i$5[ebp]
	mov	ecx, DWORD PTR _idx$[ebp]
	imul	ecx, 220				; 000000dcH
	add	ecx, DWORD PTR ?aeroDataset@@3PAVAeroDataSet@@A ; aeroDataset
	mov	edx, 4
	imul	edx, 13					; 0000000dH
	movss	xmm1, DWORD PTR [ecx+edx+16]
	comiss	xmm1, xmm0
	jbe	SHORT $LN2@ReadData

; 146  : 	   gear[i].strength	= 100.0F;	//how many hitpoints it has left

	mov	eax, DWORD PTR _i$5[ebp]
	imul	eax, 28					; 0000001cH
	mov	ecx, DWORD PTR _this$[ebp]
	mov	edx, DWORD PTR [ecx+1256]
	movss	xmm0, DWORD PTR __real@42c80000
	movss	DWORD PTR [edx+eax], xmm0

; 147  : 	   gear[i].vel		= 0.0F;		//at what rate is it currently compressing/extending in ft/s

	mov	eax, DWORD PTR _i$5[ebp]
	imul	eax, 28					; 0000001cH
	mov	ecx, DWORD PTR _this$[ebp]
	mov	edx, DWORD PTR [ecx+1256]
	movss	xmm0, DWORD PTR __real@00000000
	movss	DWORD PTR [edx+eax+4], xmm0

; 148  : 	   gear[i].obstacle	= 0.0F;		//rock height/rut depth

	mov	eax, DWORD PTR _i$5[ebp]
	imul	eax, 28					; 0000001cH
	mov	ecx, DWORD PTR _this$[ebp]
	mov	edx, DWORD PTR [ecx+1256]
	movss	xmm0, DWORD PTR __real@00000000
	movss	DWORD PTR [edx+eax+8], xmm0

; 149  : 	   gear[i].flags	= 0;

	mov	eax, DWORD PTR _i$5[ebp]
	imul	eax, 28					; 0000001cH
	mov	ecx, DWORD PTR _this$[ebp]
	mov	edx, DWORD PTR [ecx+1256]
	mov	DWORD PTR [edx+eax+12], 0

; 150  :    }

	jmp	$LN3@ReadData
$LN2@ReadData:

; 151  : 
; 152  :    if(aeroDataset[idx].inputData[AeroDataSet::NumGear] > 1)

	mov	eax, DWORD PTR _idx$[ebp]
	imul	eax, 220				; 000000dcH
	add	eax, DWORD PTR ?aeroDataset@@3PAVAeroDataSet@@A ; aeroDataset
	mov	ecx, 4
	imul	ecx, 13					; 0000000dH
	movss	xmm0, DWORD PTR [eax+ecx+16]
	comiss	xmm0, DWORD PTR __real@3f800000
	jbe	SHORT $LN1@ReadData

; 153  : 	   SetFlag(HasComplexGear);

	push	16777216				; 01000000H
	mov	ecx, DWORD PTR _this$[ebp]
	call	?SetFlag@AirframeClass@@QAEXH@Z		; AirframeClass::SetFlag
$LN1@ReadData:

; 154  :    return (0);

	xor	eax, eax
$LN11@ReadData:

; 155  : }

	mov	ecx, DWORD PTR __$EHRec$[ebp]
	mov	DWORD PTR fs:0, ecx
	pop	ecx
	mov	esp, ebp
	pop	ebp
	ret	4
_TEXT	ENDS
text$x	SEGMENT
__unwindfunclet$?ReadData@AirframeClass@@AAEHH@Z$0:
	mov	eax, DWORD PTR $T4[ebp]
	push	eax
	call	??_V@YAXPAX@Z				; operator delete[]
	pop	ecx
	ret	0
__ehhandler$?ReadData@AirframeClass@@AAEHH@Z:
	mov	edx, DWORD PTR [esp+8]
	lea	eax, DWORD PTR [edx+12]
	mov	ecx, DWORD PTR [edx-28]
	xor	ecx, eax
	call	@__security_check_cookie@4
	mov	eax, OFFSET __ehfuncinfo$?ReadData@AirframeClass@@AAEHH@Z
	jmp	___CxxFrameHandler3
text$x	ENDS
?ReadData@AirframeClass@@AAEHH@Z ENDP			; AirframeClass::ReadData
; Function compile flags: /Odtp
;	COMDAT ??_EGearData@@QAEPAXI@Z
_TEXT	SEGMENT
_this$ = -4						; size = 4
___flags$ = 8						; size = 4
??_EGearData@@QAEPAXI@Z PROC				; GearData::`vector deleting destructor', COMDAT
; _this$ = ecx
	push	ebp
	mov	ebp, esp
	push	ecx
	mov	DWORD PTR _this$[ebp], ecx
	mov	eax, DWORD PTR ___flags$[ebp]
	and	eax, 2
	je	SHORT $LN3@vector
	push	OFFSET ??1GearData@@QAE@XZ		; GearData::~GearData
	mov	ecx, DWORD PTR _this$[ebp]
	mov	edx, DWORD PTR [ecx-4]
	push	edx
	push	28					; 0000001cH
	mov	eax, DWORD PTR _this$[ebp]
	push	eax
	call	??_M@YGXPAXIHP6EX0@Z@Z
	mov	ecx, DWORD PTR ___flags$[ebp]
	and	ecx, 1
	je	SHORT $LN2@vector
	mov	edx, DWORD PTR _this$[ebp]
	sub	edx, 4
	push	edx
	call	??_V@YAXPAX@Z				; operator delete[]
	add	esp, 4
$LN2@vector:
	mov	eax, DWORD PTR _this$[ebp]
	sub	eax, 4
	jmp	SHORT $LN4@vector
$LN3@vector:
	mov	ecx, DWORD PTR _this$[ebp]
	call	??1GearData@@QAE@XZ			; GearData::~GearData
	mov	eax, DWORD PTR ___flags$[ebp]
	and	eax, 1
	je	SHORT $LN1@vector
	mov	ecx, DWORD PTR _this$[ebp]
	push	ecx
	call	??3@YAXPAX@Z				; operator delete
	add	esp, 4
$LN1@vector:
	mov	eax, DWORD PTR _this$[ebp]
$LN4@vector:
	mov	esp, ebp
	pop	ebp
	ret	4
??_EGearData@@QAEPAXI@Z ENDP				; GearData::`vector deleting destructor'
_TEXT	ENDS
; Function compile flags: /Odtp
; File c:\users\zhitao li\documents\visual studio 2012\projects\freefalcon\sim\include\airframe.h
;	COMDAT ??1GearData@@QAE@XZ
_TEXT	SEGMENT
_this$ = -4						; size = 4
??1GearData@@QAE@XZ PROC				; GearData::~GearData, COMDAT
; _this$ = ecx

; 505  : 	~GearData(void) {}

	push	ebp
	mov	ebp, esp
	push	ecx
	mov	DWORD PTR _this$[ebp], ecx
	mov	esp, ebp
	pop	ebp
	ret	0
??1GearData@@QAE@XZ ENDP				; GearData::~GearData
_TEXT	ENDS
; Function compile flags: /Odtp
;	COMDAT ??_GRollData@@QAEPAXI@Z
_TEXT	SEGMENT
_this$ = -4						; size = 4
___flags$ = 8						; size = 4
??_GRollData@@QAEPAXI@Z PROC				; RollData::`scalar deleting destructor', COMDAT
; _this$ = ecx
	push	ebp
	mov	ebp, esp
	push	ecx
	mov	DWORD PTR _this$[ebp], ecx
	mov	ecx, DWORD PTR _this$[ebp]
	call	??1RollData@@QAE@XZ			; RollData::~RollData
	mov	eax, DWORD PTR ___flags$[ebp]
	and	eax, 1
	je	SHORT $LN1@scalar
	mov	ecx, DWORD PTR _this$[ebp]
	push	ecx
	call	??3@YAXPAX@Z				; operator delete
	add	esp, 4
$LN1@scalar:
	mov	eax, DWORD PTR _this$[ebp]
	mov	esp, ebp
	pop	ebp
	ret	4
??_GRollData@@QAEPAXI@Z ENDP				; RollData::`scalar deleting destructor'
_TEXT	ENDS
; Function compile flags: /Odtp
; File c:\users\zhitao li\documents\visual studio 2012\projects\freefalcon\sim\include\airframe.h
;	COMDAT ??1RollData@@QAE@XZ
_TEXT	SEGMENT
$T1 = -16						; size = 4
$T2 = -12						; size = 4
$T3 = -8						; size = 4
_this$ = -4						; size = 4
??1RollData@@QAE@XZ PROC				; RollData::~RollData, COMDAT
; _this$ = ecx

; 480  : 	~RollData(void) {delete alpha; delete qbar; delete roll;};

	push	ebp
	mov	ebp, esp
	sub	esp, 16					; 00000010H
	mov	DWORD PTR _this$[ebp], ecx
	mov	eax, DWORD PTR _this$[ebp]
	mov	ecx, DWORD PTR [eax+8]
	mov	DWORD PTR $T3[ebp], ecx
	mov	edx, DWORD PTR $T3[ebp]
	push	edx
	call	??3@YAXPAX@Z				; operator delete
	add	esp, 4
	mov	eax, DWORD PTR _this$[ebp]
	mov	ecx, DWORD PTR [eax+12]
	mov	DWORD PTR $T2[ebp], ecx
	mov	edx, DWORD PTR $T2[ebp]
	push	edx
	call	??3@YAXPAX@Z				; operator delete
	add	esp, 4
	mov	eax, DWORD PTR _this$[ebp]
	mov	ecx, DWORD PTR [eax+16]
	mov	DWORD PTR $T1[ebp], ecx
	mov	edx, DWORD PTR $T1[ebp]
	push	edx
	call	??3@YAXPAX@Z				; operator delete
	add	esp, 4
	mov	esp, ebp
	pop	ebp
	ret	0
??1RollData@@QAE@XZ ENDP				; RollData::~RollData
_TEXT	ENDS
; Function compile flags: /Odtp
;	COMDAT ??_GEngineData@@QAEPAXI@Z
_TEXT	SEGMENT
_this$ = -4						; size = 4
___flags$ = 8						; size = 4
??_GEngineData@@QAEPAXI@Z PROC				; EngineData::`scalar deleting destructor', COMDAT
; _this$ = ecx
	push	ebp
	mov	ebp, esp
	push	ecx
	mov	DWORD PTR _this$[ebp], ecx
	mov	ecx, DWORD PTR _this$[ebp]
	call	??1EngineData@@QAE@XZ			; EngineData::~EngineData
	mov	eax, DWORD PTR ___flags$[ebp]
	and	eax, 1
	je	SHORT $LN1@scalar
	mov	ecx, DWORD PTR _this$[ebp]
	push	ecx
	call	??3@YAXPAX@Z				; operator delete
	add	esp, 4
$LN1@scalar:
	mov	eax, DWORD PTR _this$[ebp]
	mov	esp, ebp
	pop	ebp
	ret	4
??_GEngineData@@QAEPAXI@Z ENDP				; EngineData::`scalar deleting destructor'
_TEXT	ENDS
; Function compile flags: /Odtp
; File c:\users\zhitao li\documents\visual studio 2012\projects\freefalcon\sim\airframe\readin.cpp
_TEXT	SEGMENT
$T1 = -36						; size = 4
$T2 = -32						; size = 4
$T3 = -28						; size = 4
$T4 = -24						; size = 4
$T5 = -20						; size = 4
$T6 = -16						; size = 4
$T7 = -12						; size = 4
$T8 = -8						; size = 4
_this$ = -4						; size = 4
??1EngineData@@QAE@XZ PROC				; EngineData::~EngineData
; _this$ = ecx

; 1192 : {

	push	ebp
	mov	ebp, esp
	sub	esp, 36					; 00000024H
	mov	DWORD PTR _this$[ebp], ecx

; 1193 : 	delete mach; 

	mov	eax, DWORD PTR _this$[ebp]
	mov	ecx, DWORD PTR [eax+16]
	mov	DWORD PTR $T8[ebp], ecx
	mov	edx, DWORD PTR $T8[ebp]
	push	edx
	call	??3@YAXPAX@Z				; operator delete
	add	esp, 4

; 1194 : 	delete alt; 

	mov	eax, DWORD PTR _this$[ebp]
	mov	ecx, DWORD PTR [eax+20]
	mov	DWORD PTR $T7[ebp], ecx
	mov	edx, DWORD PTR $T7[ebp]
	push	edx
	call	??3@YAXPAX@Z				; operator delete
	add	esp, 4

; 1195 : 	delete[] thrust[0];

	mov	eax, 4
	imul	eax, 0
	mov	ecx, DWORD PTR _this$[ebp]
	mov	edx, DWORD PTR [ecx+eax+28]
	mov	DWORD PTR $T6[ebp], edx
	mov	eax, DWORD PTR $T6[ebp]
	push	eax
	call	??_V@YAXPAX@Z				; operator delete[]
	add	esp, 4

; 1196 : 	delete[] thrust[1]; 

	mov	ecx, 4
	shl	ecx, 0
	mov	edx, DWORD PTR _this$[ebp]
	mov	eax, DWORD PTR [edx+ecx+28]
	mov	DWORD PTR $T5[ebp], eax
	mov	ecx, DWORD PTR $T5[ebp]
	push	ecx
	call	??_V@YAXPAX@Z				; operator delete[]
	add	esp, 4

; 1197 : 	delete[] thrust[2];

	mov	edx, 4
	shl	edx, 1
	mov	eax, DWORD PTR _this$[ebp]
	mov	ecx, DWORD PTR [eax+edx+28]
	mov	DWORD PTR $T4[ebp], ecx
	mov	edx, DWORD PTR $T4[ebp]
	push	edx
	call	??_V@YAXPAX@Z				; operator delete[]
	add	esp, 4

; 1198 : 	if (hasFuelFlow){

	mov	eax, DWORD PTR _this$[ebp]
	cmp	DWORD PTR [eax+52], 0
	je	SHORT $LN2@EngineData

; 1199 : 		delete[] fuelflow[0]; 

	mov	ecx, 4
	imul	ecx, 0
	mov	edx, DWORD PTR _this$[ebp]
	mov	eax, DWORD PTR [edx+ecx+40]
	mov	DWORD PTR $T3[ebp], eax
	mov	ecx, DWORD PTR $T3[ebp]
	push	ecx
	call	??_V@YAXPAX@Z				; operator delete[]
	add	esp, 4

; 1200 : 		delete[] fuelflow[1]; 

	mov	edx, 4
	shl	edx, 0
	mov	eax, DWORD PTR _this$[ebp]
	mov	ecx, DWORD PTR [eax+edx+40]
	mov	DWORD PTR $T2[ebp], ecx
	mov	edx, DWORD PTR $T2[ebp]
	push	edx
	call	??_V@YAXPAX@Z				; operator delete[]
	add	esp, 4

; 1201 : 		delete[] fuelflow[2];

	mov	eax, 4
	shl	eax, 1
	mov	ecx, DWORD PTR _this$[ebp]
	mov	edx, DWORD PTR [ecx+eax+40]
	mov	DWORD PTR $T1[ebp], edx
	mov	eax, DWORD PTR $T1[ebp]
	push	eax
	call	??_V@YAXPAX@Z				; operator delete[]
	add	esp, 4
$LN2@EngineData:

; 1202 : 	}
; 1203 : };

	mov	esp, ebp
	pop	ebp
	ret	0
??1EngineData@@QAE@XZ ENDP				; EngineData::~EngineData
_TEXT	ENDS
; Function compile flags: /Odtp
;	COMDAT ??_GAuxAeroData@@QAEPAXI@Z
_TEXT	SEGMENT
_this$ = -4						; size = 4
___flags$ = 8						; size = 4
??_GAuxAeroData@@QAEPAXI@Z PROC				; AuxAeroData::`scalar deleting destructor', COMDAT
; _this$ = ecx
	push	ebp
	mov	ebp, esp
	push	ecx
	mov	DWORD PTR _this$[ebp], ecx
	mov	ecx, DWORD PTR _this$[ebp]
	call	??1AuxAeroData@@QAE@XZ
	mov	eax, DWORD PTR ___flags$[ebp]
	and	eax, 1
	je	SHORT $LN1@scalar
	mov	ecx, DWORD PTR _this$[ebp]
	push	ecx
	call	??3@YAXPAX@Z				; operator delete
	add	esp, 4
$LN1@scalar:
	mov	eax, DWORD PTR _this$[ebp]
	mov	esp, ebp
	pop	ebp
	ret	4
??_GAuxAeroData@@QAEPAXI@Z ENDP				; AuxAeroData::`scalar deleting destructor'
_TEXT	ENDS
; Function compile flags: /Odtp
;	COMDAT ??1AuxAeroData@@QAE@XZ
_TEXT	SEGMENT
_this$ = -16						; size = 4
__$EHRec$ = -12						; size = 12
??1AuxAeroData@@QAE@XZ PROC				; AuxAeroData::~AuxAeroData, COMDAT
; _this$ = ecx
	push	ebp
	mov	ebp, esp
	push	-1
	push	__ehhandler$??1AuxAeroData@@QAE@XZ
	mov	eax, DWORD PTR fs:0
	push	eax
	push	ecx
	mov	eax, DWORD PTR ___security_cookie
	xor	eax, ebp
	push	eax
	lea	eax, DWORD PTR __$EHRec$[ebp]
	mov	DWORD PTR fs:0, eax
	mov	DWORD PTR _this$[ebp], ecx
	mov	DWORD PTR __$EHRec$[ebp+8], 13		; 0000000dH
	push	OFFSET ??1animIntakeData@AuxAeroData@@QAE@XZ
	push	3
	push	24					; 00000018H
	mov	eax, DWORD PTR _this$[ebp]
	add	eax, 3936				; 00000f60H
	push	eax
	call	??_M@YGXPAXIHP6EX0@Z@Z
	mov	BYTE PTR __$EHRec$[ebp+8], 12		; 0000000cH
	push	OFFSET ??1LookupTable@@QAE@XZ		; LookupTable::~LookupTable
	push	4
	push	84					; 00000054H
	mov	ecx, DWORD PTR _this$[ebp]
	add	ecx, 2008				; 000007d8H
	push	ecx
	call	??_M@YGXPAXIHP6EX0@Z@Z
	mov	BYTE PTR __$EHRec$[ebp+8], 11		; 0000000bH
	push	OFFSET ??1LookupTable@@QAE@XZ		; LookupTable::~LookupTable
	push	4
	push	84					; 00000054H
	mov	edx, DWORD PTR _this$[ebp]
	add	edx, 1672				; 00000688H
	push	edx
	call	??_M@YGXPAXIHP6EX0@Z@Z
	mov	BYTE PTR __$EHRec$[ebp+8], 10		; 0000000aH
	mov	ecx, DWORD PTR _this$[ebp]
	add	ecx, 1568				; 00000620H
	call	??1LookupTable@@QAE@XZ			; LookupTable::~LookupTable
	mov	BYTE PTR __$EHRec$[ebp+8], 9
	mov	ecx, DWORD PTR _this$[ebp]
	add	ecx, 1484				; 000005ccH
	call	??1LookupTable@@QAE@XZ			; LookupTable::~LookupTable
	mov	BYTE PTR __$EHRec$[ebp+8], 8
	mov	ecx, DWORD PTR _this$[ebp]
	add	ecx, 1400				; 00000578H
	call	??1LookupTable@@QAE@XZ			; LookupTable::~LookupTable
	mov	BYTE PTR __$EHRec$[ebp+8], 7
	mov	ecx, DWORD PTR _this$[ebp]
	add	ecx, 1316				; 00000524H
	call	??1LookupTable@@QAE@XZ			; LookupTable::~LookupTable
	mov	BYTE PTR __$EHRec$[ebp+8], 6
	mov	ecx, DWORD PTR _this$[ebp]
	add	ecx, 1232				; 000004d0H
	call	??1LookupTable@@QAE@XZ			; LookupTable::~LookupTable
	mov	BYTE PTR __$EHRec$[ebp+8], 5
	mov	ecx, DWORD PTR _this$[ebp]
	add	ecx, 1148				; 0000047cH
	call	??1LookupTable@@QAE@XZ			; LookupTable::~LookupTable
	mov	BYTE PTR __$EHRec$[ebp+8], 4
	mov	ecx, DWORD PTR _this$[ebp]
	add	ecx, 1064				; 00000428H
	call	??1LookupTable@@QAE@XZ			; LookupTable::~LookupTable
	mov	BYTE PTR __$EHRec$[ebp+8], 3
	mov	ecx, DWORD PTR _this$[ebp]
	add	ecx, 980				; 000003d4H
	call	??1LookupTable@@QAE@XZ			; LookupTable::~LookupTable
	mov	BYTE PTR __$EHRec$[ebp+8], 2
	mov	ecx, DWORD PTR _this$[ebp]
	add	ecx, 896				; 00000380H
	call	??1LookupTable@@QAE@XZ			; LookupTable::~LookupTable
	mov	BYTE PTR __$EHRec$[ebp+8], 1
	mov	ecx, DWORD PTR _this$[ebp]
	add	ecx, 812				; 0000032cH
	call	??1LookupTable@@QAE@XZ			; LookupTable::~LookupTable
	mov	BYTE PTR __$EHRec$[ebp+8], 0
	mov	ecx, DWORD PTR _this$[ebp]
	add	ecx, 728				; 000002d8H
	call	??1LookupTable@@QAE@XZ			; LookupTable::~LookupTable
	mov	DWORD PTR __$EHRec$[ebp+8], -1
	mov	ecx, DWORD PTR _this$[ebp]
	add	ecx, 644				; 00000284H
	call	??1LookupTable@@QAE@XZ			; LookupTable::~LookupTable
	mov	ecx, DWORD PTR __$EHRec$[ebp]
	mov	DWORD PTR fs:0, ecx
	pop	ecx
	mov	esp, ebp
	pop	ebp
	ret	0
_TEXT	ENDS
;	COMDAT text$x
text$x	SEGMENT
__unwindfunclet$??1AuxAeroData@@QAE@XZ$0:
	mov	ecx, DWORD PTR _this$[ebp]
	add	ecx, 644				; 00000284H
	jmp	??1LookupTable@@QAE@XZ			; LookupTable::~LookupTable
__unwindfunclet$??1AuxAeroData@@QAE@XZ$1:
	mov	ecx, DWORD PTR _this$[ebp]
	add	ecx, 728				; 000002d8H
	jmp	??1LookupTable@@QAE@XZ			; LookupTable::~LookupTable
__unwindfunclet$??1AuxAeroData@@QAE@XZ$2:
	mov	ecx, DWORD PTR _this$[ebp]
	add	ecx, 812				; 0000032cH
	jmp	??1LookupTable@@QAE@XZ			; LookupTable::~LookupTable
__unwindfunclet$??1AuxAeroData@@QAE@XZ$3:
	mov	ecx, DWORD PTR _this$[ebp]
	add	ecx, 896				; 00000380H
	jmp	??1LookupTable@@QAE@XZ			; LookupTable::~LookupTable
__unwindfunclet$??1AuxAeroData@@QAE@XZ$4:
	mov	ecx, DWORD PTR _this$[ebp]
	add	ecx, 980				; 000003d4H
	jmp	??1LookupTable@@QAE@XZ			; LookupTable::~LookupTable
__unwindfunclet$??1AuxAeroData@@QAE@XZ$5:
	mov	ecx, DWORD PTR _this$[ebp]
	add	ecx, 1064				; 00000428H
	jmp	??1LookupTable@@QAE@XZ			; LookupTable::~LookupTable
__unwindfunclet$??1AuxAeroData@@QAE@XZ$6:
	mov	ecx, DWORD PTR _this$[ebp]
	add	ecx, 1148				; 0000047cH
	jmp	??1LookupTable@@QAE@XZ			; LookupTable::~LookupTable
__unwindfunclet$??1AuxAeroData@@QAE@XZ$7:
	mov	ecx, DWORD PTR _this$[ebp]
	add	ecx, 1232				; 000004d0H
	jmp	??1LookupTable@@QAE@XZ			; LookupTable::~LookupTable
__unwindfunclet$??1AuxAeroData@@QAE@XZ$8:
	mov	ecx, DWORD PTR _this$[ebp]
	add	ecx, 1316				; 00000524H
	jmp	??1LookupTable@@QAE@XZ			; LookupTable::~LookupTable
__unwindfunclet$??1AuxAeroData@@QAE@XZ$9:
	mov	ecx, DWORD PTR _this$[ebp]
	add	ecx, 1400				; 00000578H
	jmp	??1LookupTable@@QAE@XZ			; LookupTable::~LookupTable
__unwindfunclet$??1AuxAeroData@@QAE@XZ$10:
	mov	ecx, DWORD PTR _this$[ebp]
	add	ecx, 1484				; 000005ccH
	jmp	??1LookupTable@@QAE@XZ			; LookupTable::~LookupTable
__unwindfunclet$??1AuxAeroData@@QAE@XZ$11:
	mov	ecx, DWORD PTR _this$[ebp]
	add	ecx, 1568				; 00000620H
	jmp	??1LookupTable@@QAE@XZ			; LookupTable::~LookupTable
__unwindfunclet$??1AuxAeroData@@QAE@XZ$12:
	push	OFFSET ??1LookupTable@@QAE@XZ		; LookupTable::~LookupTable
	push	4
	push	84					; 00000054H
	mov	eax, DWORD PTR _this$[ebp]
	add	eax, 1672				; 00000688H
	push	eax
	call	??_M@YGXPAXIHP6EX0@Z@Z
	ret	0
__unwindfunclet$??1AuxAeroData@@QAE@XZ$13:
	push	OFFSET ??1LookupTable@@QAE@XZ		; LookupTable::~LookupTable
	push	4
	push	84					; 00000054H
	mov	eax, DWORD PTR _this$[ebp]
	add	eax, 2008				; 000007d8H
	push	eax
	call	??_M@YGXPAXIHP6EX0@Z@Z
	ret	0
__ehhandler$??1AuxAeroData@@QAE@XZ:
	mov	edx, DWORD PTR [esp+8]
	lea	eax, DWORD PTR [edx+12]
	mov	ecx, DWORD PTR [edx-8]
	xor	ecx, eax
	call	@__security_check_cookie@4
	mov	eax, OFFSET __ehfuncinfo$??1AuxAeroData@@QAE@XZ
	jmp	___CxxFrameHandler3
text$x	ENDS
??1AuxAeroData@@QAE@XZ ENDP				; AuxAeroData::~AuxAeroData
; Function compile flags: /Odtp
;	COMDAT ??0AuxAeroData@@QAE@XZ
_TEXT	SEGMENT
_this$ = -16						; size = 4
__$EHRec$ = -12						; size = 12
??0AuxAeroData@@QAE@XZ PROC				; AuxAeroData::AuxAeroData, COMDAT
; _this$ = ecx
	push	ebp
	mov	ebp, esp
	push	-1
	push	__ehhandler$??0AuxAeroData@@QAE@XZ
	mov	eax, DWORD PTR fs:0
	push	eax
	push	ecx
	mov	eax, DWORD PTR ___security_cookie
	xor	eax, ebp
	push	eax
	lea	eax, DWORD PTR __$EHRec$[ebp]
	mov	DWORD PTR fs:0, eax
	mov	DWORD PTR _this$[ebp], ecx
	mov	ecx, DWORD PTR _this$[ebp]
	add	ecx, 644				; 00000284H
	call	??0LookupTable@@QAE@XZ			; LookupTable::LookupTable
	mov	DWORD PTR __$EHRec$[ebp+8], 0
	mov	ecx, DWORD PTR _this$[ebp]
	add	ecx, 728				; 000002d8H
	call	??0LookupTable@@QAE@XZ			; LookupTable::LookupTable
	mov	BYTE PTR __$EHRec$[ebp+8], 1
	mov	ecx, DWORD PTR _this$[ebp]
	add	ecx, 812				; 0000032cH
	call	??0LookupTable@@QAE@XZ			; LookupTable::LookupTable
	mov	BYTE PTR __$EHRec$[ebp+8], 2
	mov	ecx, DWORD PTR _this$[ebp]
	add	ecx, 896				; 00000380H
	call	??0LookupTable@@QAE@XZ			; LookupTable::LookupTable
	mov	BYTE PTR __$EHRec$[ebp+8], 3
	mov	ecx, DWORD PTR _this$[ebp]
	add	ecx, 980				; 000003d4H
	call	??0LookupTable@@QAE@XZ			; LookupTable::LookupTable
	mov	BYTE PTR __$EHRec$[ebp+8], 4
	mov	ecx, DWORD PTR _this$[ebp]
	add	ecx, 1064				; 00000428H
	call	??0LookupTable@@QAE@XZ			; LookupTable::LookupTable
	mov	BYTE PTR __$EHRec$[ebp+8], 5
	mov	ecx, DWORD PTR _this$[ebp]
	add	ecx, 1148				; 0000047cH
	call	??0LookupTable@@QAE@XZ			; LookupTable::LookupTable
	mov	BYTE PTR __$EHRec$[ebp+8], 6
	mov	ecx, DWORD PTR _this$[ebp]
	add	ecx, 1232				; 000004d0H
	call	??0LookupTable@@QAE@XZ			; LookupTable::LookupTable
	mov	BYTE PTR __$EHRec$[ebp+8], 7
	mov	ecx, DWORD PTR _this$[ebp]
	add	ecx, 1316				; 00000524H
	call	??0LookupTable@@QAE@XZ			; LookupTable::LookupTable
	mov	BYTE PTR __$EHRec$[ebp+8], 8
	mov	ecx, DWORD PTR _this$[ebp]
	add	ecx, 1400				; 00000578H
	call	??0LookupTable@@QAE@XZ			; LookupTable::LookupTable
	mov	BYTE PTR __$EHRec$[ebp+8], 9
	mov	ecx, DWORD PTR _this$[ebp]
	add	ecx, 1484				; 000005ccH
	call	??0LookupTable@@QAE@XZ			; LookupTable::LookupTable
	mov	BYTE PTR __$EHRec$[ebp+8], 10		; 0000000aH
	mov	ecx, DWORD PTR _this$[ebp]
	add	ecx, 1568				; 00000620H
	call	??0LookupTable@@QAE@XZ			; LookupTable::LookupTable
	mov	BYTE PTR __$EHRec$[ebp+8], 11		; 0000000bH
	push	OFFSET ??1LookupTable@@QAE@XZ		; LookupTable::~LookupTable
	push	OFFSET ??0LookupTable@@QAE@XZ		; LookupTable::LookupTable
	push	4
	push	84					; 00000054H
	mov	eax, DWORD PTR _this$[ebp]
	add	eax, 1672				; 00000688H
	push	eax
	call	??_L@YGXPAXIHP6EX0@Z1@Z
	mov	BYTE PTR __$EHRec$[ebp+8], 12		; 0000000cH
	push	OFFSET ??1LookupTable@@QAE@XZ		; LookupTable::~LookupTable
	push	OFFSET ??0LookupTable@@QAE@XZ		; LookupTable::LookupTable
	push	4
	push	84					; 00000054H
	mov	ecx, DWORD PTR _this$[ebp]
	add	ecx, 2008				; 000007d8H
	push	ecx
	call	??_L@YGXPAXIHP6EX0@Z1@Z
	mov	BYTE PTR __$EHRec$[ebp+8], 13		; 0000000dH
	push	OFFSET ??1animIntakeData@AuxAeroData@@QAE@XZ
	push	OFFSET ??0animIntakeData@AuxAeroData@@QAE@XZ
	push	3
	push	24					; 00000018H
	mov	edx, DWORD PTR _this$[ebp]
	add	edx, 3936				; 00000f60H
	push	edx
	call	??_L@YGXPAXIHP6EX0@Z1@Z
	mov	DWORD PTR __$EHRec$[ebp+8], -1
	mov	eax, DWORD PTR _this$[ebp]
	mov	ecx, DWORD PTR __$EHRec$[ebp]
	mov	DWORD PTR fs:0, ecx
	pop	ecx
	mov	esp, ebp
	pop	ebp
	ret	0
_TEXT	ENDS
;	COMDAT text$x
text$x	SEGMENT
__unwindfunclet$??0AuxAeroData@@QAE@XZ$0:
	mov	ecx, DWORD PTR _this$[ebp]
	add	ecx, 644				; 00000284H
	jmp	??1LookupTable@@QAE@XZ			; LookupTable::~LookupTable
__unwindfunclet$??0AuxAeroData@@QAE@XZ$1:
	mov	ecx, DWORD PTR _this$[ebp]
	add	ecx, 728				; 000002d8H
	jmp	??1LookupTable@@QAE@XZ			; LookupTable::~LookupTable
__unwindfunclet$??0AuxAeroData@@QAE@XZ$2:
	mov	ecx, DWORD PTR _this$[ebp]
	add	ecx, 812				; 0000032cH
	jmp	??1LookupTable@@QAE@XZ			; LookupTable::~LookupTable
__unwindfunclet$??0AuxAeroData@@QAE@XZ$3:
	mov	ecx, DWORD PTR _this$[ebp]
	add	ecx, 896				; 00000380H
	jmp	??1LookupTable@@QAE@XZ			; LookupTable::~LookupTable
__unwindfunclet$??0AuxAeroData@@QAE@XZ$4:
	mov	ecx, DWORD PTR _this$[ebp]
	add	ecx, 980				; 000003d4H
	jmp	??1LookupTable@@QAE@XZ			; LookupTable::~LookupTable
__unwindfunclet$??0AuxAeroData@@QAE@XZ$5:
	mov	ecx, DWORD PTR _this$[ebp]
	add	ecx, 1064				; 00000428H
	jmp	??1LookupTable@@QAE@XZ			; LookupTable::~LookupTable
__unwindfunclet$??0AuxAeroData@@QAE@XZ$6:
	mov	ecx, DWORD PTR _this$[ebp]
	add	ecx, 1148				; 0000047cH
	jmp	??1LookupTable@@QAE@XZ			; LookupTable::~LookupTable
__unwindfunclet$??0AuxAeroData@@QAE@XZ$7:
	mov	ecx, DWORD PTR _this$[ebp]
	add	ecx, 1232				; 000004d0H
	jmp	??1LookupTable@@QAE@XZ			; LookupTable::~LookupTable
__unwindfunclet$??0AuxAeroData@@QAE@XZ$8:
	mov	ecx, DWORD PTR _this$[ebp]
	add	ecx, 1316				; 00000524H
	jmp	??1LookupTable@@QAE@XZ			; LookupTable::~LookupTable
__unwindfunclet$??0AuxAeroData@@QAE@XZ$9:
	mov	ecx, DWORD PTR _this$[ebp]
	add	ecx, 1400				; 00000578H
	jmp	??1LookupTable@@QAE@XZ			; LookupTable::~LookupTable
__unwindfunclet$??0AuxAeroData@@QAE@XZ$10:
	mov	ecx, DWORD PTR _this$[ebp]
	add	ecx, 1484				; 000005ccH
	jmp	??1LookupTable@@QAE@XZ			; LookupTable::~LookupTable
__unwindfunclet$??0AuxAeroData@@QAE@XZ$11:
	mov	ecx, DWORD PTR _this$[ebp]
	add	ecx, 1568				; 00000620H
	jmp	??1LookupTable@@QAE@XZ			; LookupTable::~LookupTable
__unwindfunclet$??0AuxAeroData@@QAE@XZ$12:
	push	OFFSET ??1LookupTable@@QAE@XZ		; LookupTable::~LookupTable
	push	4
	push	84					; 00000054H
	mov	eax, DWORD PTR _this$[ebp]
	add	eax, 1672				; 00000688H
	push	eax
	call	??_M@YGXPAXIHP6EX0@Z@Z
	ret	0
__unwindfunclet$??0AuxAeroData@@QAE@XZ$13:
	push	OFFSET ??1LookupTable@@QAE@XZ		; LookupTable::~LookupTable
	push	4
	push	84					; 00000054H
	mov	eax, DWORD PTR _this$[ebp]
	add	eax, 2008				; 000007d8H
	push	eax
	call	??_M@YGXPAXIHP6EX0@Z@Z
	ret	0
__ehhandler$??0AuxAeroData@@QAE@XZ:
	mov	edx, DWORD PTR [esp+8]
	lea	eax, DWORD PTR [edx+12]
	mov	ecx, DWORD PTR [edx-8]
	xor	ecx, eax
	call	@__security_check_cookie@4
	mov	eax, OFFSET __ehfuncinfo$??0AuxAeroData@@QAE@XZ
	jmp	___CxxFrameHandler3
text$x	ENDS
??0AuxAeroData@@QAE@XZ ENDP				; AuxAeroData::AuxAeroData
; Function compile flags: /Odtp
;	COMDAT ??1animIntakeData@AuxAeroData@@QAE@XZ
_TEXT	SEGMENT
_this$ = -4						; size = 4
??1animIntakeData@AuxAeroData@@QAE@XZ PROC		; AuxAeroData::animIntakeData::~animIntakeData, COMDAT
; _this$ = ecx
	push	ebp
	mov	ebp, esp
	push	ecx
	mov	DWORD PTR _this$[ebp], ecx
	mov	ecx, DWORD PTR _this$[ebp]
	call	??1TwoDimensionTable@@QAE@XZ		; TwoDimensionTable::~TwoDimensionTable
	mov	esp, ebp
	pop	ebp
	ret	0
??1animIntakeData@AuxAeroData@@QAE@XZ ENDP		; AuxAeroData::animIntakeData::~animIntakeData
_TEXT	ENDS
; Function compile flags: /Odtp
;	COMDAT ??0animIntakeData@AuxAeroData@@QAE@XZ
_TEXT	SEGMENT
_this$ = -4						; size = 4
??0animIntakeData@AuxAeroData@@QAE@XZ PROC		; AuxAeroData::animIntakeData::animIntakeData, COMDAT
; _this$ = ecx
	push	ebp
	mov	ebp, esp
	push	ecx
	mov	DWORD PTR _this$[ebp], ecx
	mov	ecx, DWORD PTR _this$[ebp]
	call	??0TwoDimensionTable@@QAE@XZ		; TwoDimensionTable::TwoDimensionTable
	mov	eax, DWORD PTR _this$[ebp]
	mov	esp, ebp
	pop	ebp
	ret	0
??0animIntakeData@AuxAeroData@@QAE@XZ ENDP		; AuxAeroData::animIntakeData::animIntakeData
_TEXT	ENDS
; Function compile flags: /Odtp
;	COMDAT ??_GAeroData@@QAEPAXI@Z
_TEXT	SEGMENT
_this$ = -4						; size = 4
___flags$ = 8						; size = 4
??_GAeroData@@QAEPAXI@Z PROC				; AeroData::`scalar deleting destructor', COMDAT
; _this$ = ecx
	push	ebp
	mov	ebp, esp
	push	ecx
	mov	DWORD PTR _this$[ebp], ecx
	mov	ecx, DWORD PTR _this$[ebp]
	call	??1AeroData@@QAE@XZ			; AeroData::~AeroData
	mov	eax, DWORD PTR ___flags$[ebp]
	and	eax, 1
	je	SHORT $LN1@scalar
	mov	ecx, DWORD PTR _this$[ebp]
	push	ecx
	call	??3@YAXPAX@Z				; operator delete
	add	esp, 4
$LN1@scalar:
	mov	eax, DWORD PTR _this$[ebp]
	mov	esp, ebp
	pop	ebp
	ret	4
??_GAeroData@@QAEPAXI@Z ENDP				; AeroData::`scalar deleting destructor'
_TEXT	ENDS
; Function compile flags: /Odtp
; File c:\users\zhitao li\documents\visual studio 2012\projects\freefalcon\sim\include\airframe.h
;	COMDAT ??1AeroData@@QAE@XZ
_TEXT	SEGMENT
$T1 = -24						; size = 4
$T2 = -20						; size = 4
$T3 = -16						; size = 4
$T4 = -12						; size = 4
$T5 = -8						; size = 4
_this$ = -4						; size = 4
??1AeroData@@QAE@XZ PROC				; AeroData::~AeroData, COMDAT
; _this$ = ecx

; 40   : 	~AeroData (void) {delete mach; delete alpha; delete clift;

	push	ebp
	mov	ebp, esp
	sub	esp, 24					; 00000018H
	mov	DWORD PTR _this$[ebp], ecx
	mov	eax, DWORD PTR _this$[ebp]
	mov	ecx, DWORD PTR [eax+8]
	mov	DWORD PTR $T5[ebp], ecx
	mov	edx, DWORD PTR $T5[ebp]
	push	edx
	call	??3@YAXPAX@Z				; operator delete
	add	esp, 4
	mov	eax, DWORD PTR _this$[ebp]
	mov	ecx, DWORD PTR [eax+12]
	mov	DWORD PTR $T4[ebp], ecx
	mov	edx, DWORD PTR $T4[ebp]
	push	edx
	call	??3@YAXPAX@Z				; operator delete
	add	esp, 4
	mov	eax, DWORD PTR _this$[ebp]
	mov	ecx, DWORD PTR [eax+16]
	mov	DWORD PTR $T3[ebp], ecx
	mov	edx, DWORD PTR $T3[ebp]
	push	edx
	call	??3@YAXPAX@Z				; operator delete
	add	esp, 4

; 41   : 	delete cdrag; delete cy; };

	mov	eax, DWORD PTR _this$[ebp]
	mov	ecx, DWORD PTR [eax+20]
	mov	DWORD PTR $T2[ebp], ecx
	mov	edx, DWORD PTR $T2[ebp]
	push	edx
	call	??3@YAXPAX@Z				; operator delete
	add	esp, 4
	mov	eax, DWORD PTR _this$[ebp]
	mov	ecx, DWORD PTR [eax+24]
	mov	DWORD PTR $T1[ebp], ecx
	mov	edx, DWORD PTR $T1[ebp]
	push	edx
	call	??3@YAXPAX@Z				; operator delete
	add	esp, 4
	mov	esp, ebp
	pop	ebp
	ret	0
??1AeroData@@QAE@XZ ENDP				; AeroData::~AeroData
_TEXT	ENDS
; Function compile flags: /Odtp
; File c:\users\zhitao li\documents\visual studio 2012\projects\freefalcon\sim\airframe\readin.cpp
_TEXT	SEGMENT
tv350 = -104						; size = 8
tv325 = -96						; size = 8
tv415 = -88						; size = 4
tv409 = -84						; size = 4
tv403 = -80						; size = 4
tv397 = -76						; size = 4
tv391 = -72						; size = 4
tv385 = -68						; size = 4
tv379 = -64						; size = 4
tv373 = -60						; size = 4
tv367 = -56						; size = 4
tv357 = -52						; size = 4
tv344 = -48						; size = 4
tv338 = -44						; size = 4
tv332 = -40						; size = 4
tv319 = -36						; size = 4
tv313 = -32						; size = 4
tv307 = -28						; size = 4
tv301 = -24						; size = 4
tv295 = -20						; size = 4
tv289 = -16						; size = 4
tv283 = -12						; size = 4
tv277 = -8						; size = 4
_i$1 = -4						; size = 4
_inputData$ = 8						; size = 4
_inputFile$ = 12					; size = 4
?ReadData@@YAXPAMPAVSimlibFileClass@@@Z PROC		; ReadData

; 158  : {

	push	ebp
	mov	ebp, esp
	sub	esp, 104				; 00000068H

; 159  :    /*-----------------*/
; 160  :    /* Read in Weight */
; 161  :    /*-----------------*/
; 162  :    inputData[AeroDataSet::EmptyWeight] = (float)atof (inputFile->GetNext());

	mov	ecx, DWORD PTR _inputFile$[ebp]
	call	?GetNext@SimlibFileClass@@QAEPADXZ	; SimlibFileClass::GetNext
	push	eax
	call	_atof
	add	esp, 4
	fstp	DWORD PTR tv277[ebp]
	fld	DWORD PTR tv277[ebp]
	mov	eax, 4
	imul	eax, 0
	mov	ecx, DWORD PTR _inputData$[ebp]
	fstp	DWORD PTR [ecx+eax]

; 163  : 
; 164  :    /*------------------*/
; 165  :    /* Read in Ref Area */
; 166  :    /*------------------*/
; 167  :    inputData[AeroDataSet::Area] = (float)atof (inputFile->GetNext());

	mov	ecx, DWORD PTR _inputFile$[ebp]
	call	?GetNext@SimlibFileClass@@QAEPADXZ	; SimlibFileClass::GetNext
	push	eax
	call	_atof
	add	esp, 4
	fstp	DWORD PTR tv283[ebp]
	fld	DWORD PTR tv283[ebp]
	mov	edx, 4
	shl	edx, 0
	mov	eax, DWORD PTR _inputData$[ebp]
	fstp	DWORD PTR [eax+edx]

; 168  : 
; 169  :    /*--------------*/
; 170  :    /* Read in Fuel */
; 171  :    /*--------------*/
; 172  :    inputData[AeroDataSet::InternalFuel] = (float)atof (inputFile->GetNext());

	mov	ecx, DWORD PTR _inputFile$[ebp]
	call	?GetNext@SimlibFileClass@@QAEPADXZ	; SimlibFileClass::GetNext
	push	eax
	call	_atof
	add	esp, 4
	fstp	DWORD PTR tv289[ebp]
	fld	DWORD PTR tv289[ebp]
	mov	ecx, 4
	shl	ecx, 1
	mov	edx, DWORD PTR _inputData$[ebp]
	fstp	DWORD PTR [edx+ecx]

; 173  : 
; 174  :    /*--------------------------------*/
; 175  :    /* read in angle of attack limits */
; 176  :    /*--------------------------------*/
; 177  : 
; 178  :    /*----------------*/
; 179  :    /* Read in AOAmax */
; 180  :    /*----------------*/
; 181  :    inputData[AeroDataSet::AOAMax] = (float)atof (inputFile->GetNext());

	mov	ecx, DWORD PTR _inputFile$[ebp]
	call	?GetNext@SimlibFileClass@@QAEPADXZ	; SimlibFileClass::GetNext
	push	eax
	call	_atof
	add	esp, 4
	fstp	DWORD PTR tv295[ebp]
	fld	DWORD PTR tv295[ebp]
	mov	eax, 4
	imul	eax, 3
	mov	ecx, DWORD PTR _inputData$[ebp]
	fstp	DWORD PTR [ecx+eax]

; 182  : 
; 183  :    /*----------------*/
; 184  :    /* Read in AOAmin */
; 185  :    /*----------------*/
; 186  :    inputData[AeroDataSet::AOAMin] = (float)atof (inputFile->GetNext());

	mov	ecx, DWORD PTR _inputFile$[ebp]
	call	?GetNext@SimlibFileClass@@QAEPADXZ	; SimlibFileClass::GetNext
	push	eax
	call	_atof
	add	esp, 4
	fstp	DWORD PTR tv301[ebp]
	fld	DWORD PTR tv301[ebp]
	mov	edx, 4
	shl	edx, 2
	mov	eax, DWORD PTR _inputData$[ebp]
	fstp	DWORD PTR [eax+edx]

; 187  : 
; 188  :    /*-----------------*/
; 189  :    /* Read in BETAmax */
; 190  :    /*-----------------*/
; 191  :    inputData[AeroDataSet::BetaMax] = (float)atof (inputFile->GetNext());

	mov	ecx, DWORD PTR _inputFile$[ebp]
	call	?GetNext@SimlibFileClass@@QAEPADXZ	; SimlibFileClass::GetNext
	push	eax
	call	_atof
	add	esp, 4
	fstp	DWORD PTR tv307[ebp]
	fld	DWORD PTR tv307[ebp]
	mov	ecx, 4
	imul	ecx, 5
	mov	edx, DWORD PTR _inputData$[ebp]
	fstp	DWORD PTR [edx+ecx]

; 192  : 
; 193  :    /*-----------------*/
; 194  :    /* Read in BETAmin */
; 195  :    /*-----------------*/
; 196  :    inputData[AeroDataSet::BetaMin] = (float)atof (inputFile->GetNext());

	mov	ecx, DWORD PTR _inputFile$[ebp]
	call	?GetNext@SimlibFileClass@@QAEPADXZ	; SimlibFileClass::GetNext
	push	eax
	call	_atof
	add	esp, 4
	fstp	DWORD PTR tv313[ebp]
	fld	DWORD PTR tv313[ebp]
	mov	eax, 4
	imul	eax, 6
	mov	ecx, DWORD PTR _inputData$[ebp]
	fstp	DWORD PTR [ecx+eax]

; 197  : 
; 198  :    /*-----------------*/
; 199  :    /* Read in Max G's */
; 200  :    /*-----------------*/
; 201  :    inputData[AeroDataSet::MaxGs] = (float)atof (inputFile->GetNext());

	mov	ecx, DWORD PTR _inputFile$[ebp]
	call	?GetNext@SimlibFileClass@@QAEPADXZ	; SimlibFileClass::GetNext
	push	eax
	call	_atof
	add	esp, 4
	fstp	DWORD PTR tv319[ebp]
	fld	DWORD PTR tv319[ebp]
	mov	edx, 4
	imul	edx, 7
	mov	eax, DWORD PTR _inputData$[ebp]
	fstp	DWORD PTR [eax+edx]

; 202  : 
; 203  :    /*------------------*/
; 204  :    /* Read in Max Roll */
; 205  :    /*------------------*/
; 206  :    inputData[AeroDataSet::MaxRoll] = (float)atof (inputFile->GetNext()) * DTR;

	mov	ecx, DWORD PTR _inputFile$[ebp]
	call	?GetNext@SimlibFileClass@@QAEPADXZ	; SimlibFileClass::GetNext
	push	eax
	call	_atof
	add	esp, 4
	fstp	QWORD PTR tv325[ebp]
	movsd	xmm0, QWORD PTR tv325[ebp]
	cvtsd2ss xmm0, xmm0
	mulss	xmm0, DWORD PTR __real@3c8efa34
	mov	ecx, 4
	shl	ecx, 3
	mov	edx, DWORD PTR _inputData$[ebp]
	movss	DWORD PTR [edx+ecx], xmm0

; 207  : 
; 208  :    /*-------------------*/
; 209  :    /* Read in Min Speed */
; 210  :    /*-------------------*/
; 211  :    inputData[AeroDataSet::MinVcas] = (float)atof (inputFile->GetNext());

	mov	ecx, DWORD PTR _inputFile$[ebp]
	call	?GetNext@SimlibFileClass@@QAEPADXZ	; SimlibFileClass::GetNext
	push	eax
	call	_atof
	add	esp, 4
	fstp	DWORD PTR tv332[ebp]
	fld	DWORD PTR tv332[ebp]
	mov	eax, 4
	imul	eax, 9
	mov	ecx, DWORD PTR _inputData$[ebp]
	fstp	DWORD PTR [ecx+eax]

; 212  : 
; 213  :    /*-------------------*/
; 214  :    /* Read in Max Speed */
; 215  :    /*-------------------*/
; 216  :    inputData[AeroDataSet::MaxVcas] = (float)atof (inputFile->GetNext());

	mov	ecx, DWORD PTR _inputFile$[ebp]
	call	?GetNext@SimlibFileClass@@QAEPADXZ	; SimlibFileClass::GetNext
	push	eax
	call	_atof
	add	esp, 4
	fstp	DWORD PTR tv338[ebp]
	fld	DWORD PTR tv338[ebp]
	mov	edx, 4
	imul	edx, 10					; 0000000aH
	mov	eax, DWORD PTR _inputData$[ebp]
	fstp	DWORD PTR [eax+edx]

; 217  : 
; 218  :    /*----------------------*/
; 219  :    /* Read in Corner Speed */
; 220  :    /*----------------------*/
; 221  :    inputData[AeroDataSet::CornerVcas] = (float)atof (inputFile->GetNext());

	mov	ecx, DWORD PTR _inputFile$[ebp]
	call	?GetNext@SimlibFileClass@@QAEPADXZ	; SimlibFileClass::GetNext
	push	eax
	call	_atof
	add	esp, 4
	fstp	DWORD PTR tv344[ebp]
	fld	DWORD PTR tv344[ebp]
	mov	ecx, 4
	imul	ecx, 11					; 0000000bH
	mov	edx, DWORD PTR _inputData$[ebp]
	fstp	DWORD PTR [edx+ecx]

; 222  : 
; 223  :    /*-------------------*/
; 224  :    /* Read in Theta Max */
; 225  :    /*-------------------*/
; 226  :    inputData[AeroDataSet::ThetaMax] = (float)atof (inputFile->GetNext()) * DTR;

	mov	ecx, DWORD PTR _inputFile$[ebp]
	call	?GetNext@SimlibFileClass@@QAEPADXZ	; SimlibFileClass::GetNext
	push	eax
	call	_atof
	add	esp, 4
	fstp	QWORD PTR tv350[ebp]
	movsd	xmm0, QWORD PTR tv350[ebp]
	cvtsd2ss xmm0, xmm0
	mulss	xmm0, DWORD PTR __real@3c8efa34
	mov	eax, 4
	imul	eax, 12					; 0000000cH
	mov	ecx, DWORD PTR _inputData$[ebp]
	movss	DWORD PTR [ecx+eax], xmm0

; 227  : 
; 228  :    /*-------------------*/
; 229  :    /* Read in NumGear	*/
; 230  :    /*-------------------*/
; 231  :    inputData[AeroDataSet::NumGear] = (float)atof (inputFile->GetNext());

	mov	ecx, DWORD PTR _inputFile$[ebp]
	call	?GetNext@SimlibFileClass@@QAEPADXZ	; SimlibFileClass::GetNext
	push	eax
	call	_atof
	add	esp, 4
	fstp	DWORD PTR tv357[ebp]
	fld	DWORD PTR tv357[ebp]
	mov	edx, 4
	imul	edx, 13					; 0000000dH
	mov	eax, DWORD PTR _inputData$[ebp]
	fstp	DWORD PTR [eax+edx]

; 232  : 
; 233  :    /*-------------------*/
; 234  :    /* Read in GearPos	*/
; 235  :    /*-------------------*/
; 236  :    for(int i = 0; i < inputData[AeroDataSet::NumGear]; i++)

	mov	DWORD PTR _i$1[ebp], 0
	jmp	SHORT $LN3@ReadData
$LN2@ReadData:
	mov	ecx, DWORD PTR _i$1[ebp]
	add	ecx, 1
	mov	DWORD PTR _i$1[ebp], ecx
$LN3@ReadData:
	cvtsi2ss xmm0, DWORD PTR _i$1[ebp]
	mov	edx, 4
	imul	edx, 13					; 0000000dH
	mov	eax, DWORD PTR _inputData$[ebp]
	movss	xmm1, DWORD PTR [eax+edx]
	comiss	xmm1, xmm0
	jbe	$LN1@ReadData

; 237  :    {
; 238  : 		inputData[AeroDataSet::NosGearX + i*4] = (float)atof (inputFile->GetNext());

	mov	ecx, DWORD PTR _inputFile$[ebp]
	call	?GetNext@SimlibFileClass@@QAEPADXZ	; SimlibFileClass::GetNext
	push	eax
	call	_atof
	add	esp, 4
	fstp	DWORD PTR tv367[ebp]
	fld	DWORD PTR tv367[ebp]
	mov	ecx, DWORD PTR _i$1[ebp]
	shl	ecx, 2
	mov	edx, DWORD PTR _inputData$[ebp]
	fstp	DWORD PTR [edx+ecx*4+56]

; 239  : 		inputData[AeroDataSet::NosGearY + i*4] = (float)atof (inputFile->GetNext());

	mov	ecx, DWORD PTR _inputFile$[ebp]
	call	?GetNext@SimlibFileClass@@QAEPADXZ	; SimlibFileClass::GetNext
	push	eax
	call	_atof
	add	esp, 4
	fstp	DWORD PTR tv373[ebp]
	fld	DWORD PTR tv373[ebp]
	mov	eax, DWORD PTR _i$1[ebp]
	shl	eax, 2
	mov	ecx, DWORD PTR _inputData$[ebp]
	fstp	DWORD PTR [ecx+eax*4+60]

; 240  : 		inputData[AeroDataSet::NosGearZ + i*4] = (float)atof (inputFile->GetNext());

	mov	ecx, DWORD PTR _inputFile$[ebp]
	call	?GetNext@SimlibFileClass@@QAEPADXZ	; SimlibFileClass::GetNext
	push	eax
	call	_atof
	add	esp, 4
	fstp	DWORD PTR tv379[ebp]
	fld	DWORD PTR tv379[ebp]
	mov	edx, DWORD PTR _i$1[ebp]
	shl	edx, 2
	mov	eax, DWORD PTR _inputData$[ebp]
	fstp	DWORD PTR [eax+edx*4+64]

; 241  : 		inputData[AeroDataSet::NosGearRng + i*4] = (float)atof (inputFile->GetNext());

	mov	ecx, DWORD PTR _inputFile$[ebp]
	call	?GetNext@SimlibFileClass@@QAEPADXZ	; SimlibFileClass::GetNext
	push	eax
	call	_atof
	add	esp, 4
	fstp	DWORD PTR tv385[ebp]
	fld	DWORD PTR tv385[ebp]
	mov	ecx, DWORD PTR _i$1[ebp]
	shl	ecx, 2
	mov	edx, DWORD PTR _inputData$[ebp]
	fstp	DWORD PTR [edx+ecx*4+68]

; 242  :    }

	jmp	$LN2@ReadData
$LN1@ReadData:

; 243  : 
; 244  :    inputData[AeroDataSet::CGLoc] = (float)atof (inputFile->GetNext());

	mov	ecx, DWORD PTR _inputFile$[ebp]
	call	?GetNext@SimlibFileClass@@QAEPADXZ	; SimlibFileClass::GetNext
	push	eax
	call	_atof
	add	esp, 4
	fstp	DWORD PTR tv391[ebp]
	fld	DWORD PTR tv391[ebp]
	mov	eax, 4
	imul	eax, 46					; 0000002eH
	mov	ecx, DWORD PTR _inputData$[ebp]
	fstp	DWORD PTR [ecx+eax]

; 245  :    inputData[AeroDataSet::Length] = (float)atof (inputFile->GetNext());

	mov	ecx, DWORD PTR _inputFile$[ebp]
	call	?GetNext@SimlibFileClass@@QAEPADXZ	; SimlibFileClass::GetNext
	push	eax
	call	_atof
	add	esp, 4
	fstp	DWORD PTR tv397[ebp]
	fld	DWORD PTR tv397[ebp]
	mov	edx, 4
	imul	edx, 47					; 0000002fH
	mov	eax, DWORD PTR _inputData$[ebp]
	fstp	DWORD PTR [eax+edx]

; 246  :    inputData[AeroDataSet::Span] = (float)atof (inputFile->GetNext());

	mov	ecx, DWORD PTR _inputFile$[ebp]
	call	?GetNext@SimlibFileClass@@QAEPADXZ	; SimlibFileClass::GetNext
	push	eax
	call	_atof
	add	esp, 4
	fstp	DWORD PTR tv403[ebp]
	fld	DWORD PTR tv403[ebp]
	mov	ecx, 4
	imul	ecx, 48					; 00000030H
	mov	edx, DWORD PTR _inputData$[ebp]
	fstp	DWORD PTR [edx+ecx]

; 247  :    inputData[AeroDataSet::FusRadius] = (float)atof (inputFile->GetNext());

	mov	ecx, DWORD PTR _inputFile$[ebp]
	call	?GetNext@SimlibFileClass@@QAEPADXZ	; SimlibFileClass::GetNext
	push	eax
	call	_atof
	add	esp, 4
	fstp	DWORD PTR tv409[ebp]
	fld	DWORD PTR tv409[ebp]
	mov	eax, 4
	imul	eax, 49					; 00000031H
	mov	ecx, DWORD PTR _inputData$[ebp]
	fstp	DWORD PTR [ecx+eax]

; 248  :    inputData[AeroDataSet::TailHt] = (float)atof (inputFile->GetNext());

	mov	ecx, DWORD PTR _inputFile$[ebp]
	call	?GetNext@SimlibFileClass@@QAEPADXZ	; SimlibFileClass::GetNext
	push	eax
	call	_atof
	add	esp, 4
	fstp	DWORD PTR tv415[ebp]
	fld	DWORD PTR tv415[ebp]
	mov	edx, 4
	imul	edx, 50					; 00000032H
	mov	eax, DWORD PTR _inputData$[ebp]
	fstp	DWORD PTR [eax+edx]

; 249  : }

	mov	esp, ebp
	pop	ebp
	ret	0
?ReadData@@YAXPAMPAVSimlibFileClass@@@Z ENDP		; ReadData
_TEXT	ENDS
; Function compile flags: /Odtp
; File c:\users\zhitao li\documents\visual studio 2012\projects\freefalcon\sim\airframe\readin.cpp
_TEXT	SEGMENT
tv261 = -60						; size = 8
_scale$ = -52						; size = 4
$T1 = -48						; size = 4
tv233 = -44						; size = 4
$T2 = -40						; size = 4
tv207 = -36						; size = 4
$T3 = -32						; size = 4
tv67 = -28						; size = 4
$T4 = -24						; size = 4
_numAlpha$ = -20					; size = 4
_numQbar$ = -16						; size = 4
_qbar$ = -12						; size = 4
_alpha$ = -8						; size = 4
_rollCmd$ = -4						; size = 4
_inputFile$ = 8						; size = 4
?AirframeFcsRead@@YAPAVRollData@@PAVSimlibFileClass@@@Z PROC ; AirframeFcsRead

; 1400 : {

	push	ebp
	mov	ebp, esp
	sub	esp, 60					; 0000003cH

; 1401 : int numAlpha, numQbar;
; 1402 : int alpha, qbar;
; 1403 : RollData *rollCmd;
; 1404 : float scale;
; 1405 : 
; 1406 :    /*-------------------------------------*/
; 1407 :    /* Allocate storage for Roll rate Data */
; 1408 :    /*-------------------------------------*/
; 1409 :    rollCmd = new RollData;

	push	20					; 00000014H
	call	??2@YAPAXI@Z				; operator new
	add	esp, 4
	mov	DWORD PTR $T4[ebp], eax
	cmp	DWORD PTR $T4[ebp], 0
	je	SHORT $LN15@AirframeFc
	mov	eax, DWORD PTR $T4[ebp]
	mov	DWORD PTR tv67[ebp], eax
	jmp	SHORT $LN16@AirframeFc
$LN15@AirframeFc:
	mov	DWORD PTR tv67[ebp], 0
$LN16@AirframeFc:
	mov	ecx, DWORD PTR tv67[ebp]
	mov	DWORD PTR _rollCmd$[ebp], ecx

; 1410 : 
; 1411 :    /*--------------------------------*/
; 1412 :    /* Read in number of alpha Breaks */
; 1413 :    /*--------------------------------*/
; 1414 :    rollCmd->numAlpha = atoi(inputFile->GetNext());

	mov	ecx, DWORD PTR _inputFile$[ebp]
	call	?GetNext@SimlibFileClass@@QAEPADXZ	; SimlibFileClass::GetNext
	push	eax
	call	_atoi
	add	esp, 4
	mov	edx, DWORD PTR _rollCmd$[ebp]
	mov	DWORD PTR [edx], eax

; 1415 :    numAlpha = rollCmd->numAlpha;

	mov	eax, DWORD PTR _rollCmd$[ebp]
	mov	ecx, DWORD PTR [eax]
	mov	DWORD PTR _numAlpha$[ebp], ecx

; 1416 : 
; 1417 :    /*---------------------------------------*/
; 1418 :    /* Reserve storage for alpha breakpoints */
; 1419 :    /*---------------------------------------*/
; 1420 : 	#ifdef USE_SH_POOLS
; 1421 : 	rollCmd->alpha = (float *)MemAllocPtr(gReadInMemPool, sizeof(float)*numAlpha,0);
; 1422 : 	#else
; 1423 :    	rollCmd->alpha = new float[numAlpha];

	xor	ecx, ecx
	mov	eax, DWORD PTR _numAlpha$[ebp]
	mov	edx, 4
	mul	edx
	seto	cl
	neg	ecx
	or	ecx, eax
	push	ecx
	call	??_U@YAPAXI@Z				; operator new[]
	add	esp, 4
	mov	DWORD PTR $T3[ebp], eax
	mov	eax, DWORD PTR _rollCmd$[ebp]
	mov	ecx, DWORD PTR $T3[ebp]
	mov	DWORD PTR [eax+8], ecx

; 1424 : 	#endif
; 1425 : 
; 1426 :    /*-------------------------------*/
; 1427 :    /* Read in the alpha breakpoints */
; 1428 :    /*-------------------------------*/
; 1429 :    for(alpha=0; alpha<numAlpha; alpha++)

	mov	DWORD PTR _alpha$[ebp], 0
	jmp	SHORT $LN12@AirframeFc
$LN11@AirframeFc:
	mov	edx, DWORD PTR _alpha$[ebp]
	add	edx, 1
	mov	DWORD PTR _alpha$[ebp], edx
$LN12@AirframeFc:
	mov	eax, DWORD PTR _alpha$[ebp]
	cmp	eax, DWORD PTR _numAlpha$[ebp]
	jge	SHORT $LN10@AirframeFc

; 1430 :    {
; 1431 :       rollCmd->alpha[alpha] = (float)atof(inputFile->GetNext());

	mov	ecx, DWORD PTR _inputFile$[ebp]
	call	?GetNext@SimlibFileClass@@QAEPADXZ	; SimlibFileClass::GetNext
	push	eax
	call	_atof
	add	esp, 4
	fstp	DWORD PTR tv207[ebp]
	fld	DWORD PTR tv207[ebp]
	mov	ecx, DWORD PTR _rollCmd$[ebp]
	mov	edx, DWORD PTR [ecx+8]
	mov	eax, DWORD PTR _alpha$[ebp]
	fstp	DWORD PTR [edx+eax*4]

; 1432 :    }

	jmp	SHORT $LN11@AirframeFc
$LN10@AirframeFc:

; 1433 : 
; 1434 :    /*-------------------------------*/
; 1435 :    /* Read in number of qbar Breaks */
; 1436 :    /*-------------------------------*/
; 1437 :    rollCmd->numQbar = atoi(inputFile->GetNext());

	mov	ecx, DWORD PTR _inputFile$[ebp]
	call	?GetNext@SimlibFileClass@@QAEPADXZ	; SimlibFileClass::GetNext
	push	eax
	call	_atoi
	add	esp, 4
	mov	ecx, DWORD PTR _rollCmd$[ebp]
	mov	DWORD PTR [ecx+4], eax

; 1438 :    numQbar = rollCmd->numQbar;

	mov	edx, DWORD PTR _rollCmd$[ebp]
	mov	eax, DWORD PTR [edx+4]
	mov	DWORD PTR _numQbar$[ebp], eax

; 1439 : 
; 1440 :    /*---------------------------------------*/
; 1441 :    /* Reserve storage for qbar breakpoints */
; 1442 :    /*---------------------------------------*/
; 1443 : 	#ifdef USE_SH_POOLS
; 1444 : 	rollCmd->qbar = (float *)MemAllocPtr(gReadInMemPool, sizeof(float)*numQbar,0);
; 1445 : 	#else
; 1446 :    	rollCmd->qbar = new float[numQbar];

	xor	ecx, ecx
	mov	eax, DWORD PTR _numQbar$[ebp]
	mov	edx, 4
	mul	edx
	seto	cl
	neg	ecx
	or	ecx, eax
	push	ecx
	call	??_U@YAPAXI@Z				; operator new[]
	add	esp, 4
	mov	DWORD PTR $T2[ebp], eax
	mov	eax, DWORD PTR _rollCmd$[ebp]
	mov	ecx, DWORD PTR $T2[ebp]
	mov	DWORD PTR [eax+12], ecx

; 1447 : 	#endif
; 1448 : 
; 1449 :    /*-------------------------------*/
; 1450 :    /* Read in the qbar breakpoints */
; 1451 :    /*-------------------------------*/
; 1452 :    for(qbar=0; qbar<numQbar; qbar++)

	mov	DWORD PTR _qbar$[ebp], 0
	jmp	SHORT $LN9@AirframeFc
$LN8@AirframeFc:
	mov	edx, DWORD PTR _qbar$[ebp]
	add	edx, 1
	mov	DWORD PTR _qbar$[ebp], edx
$LN9@AirframeFc:
	mov	eax, DWORD PTR _qbar$[ebp]
	cmp	eax, DWORD PTR _numQbar$[ebp]
	jge	SHORT $LN7@AirframeFc

; 1453 :    {
; 1454 :       rollCmd->qbar[qbar] = (float)atof(inputFile->GetNext());

	mov	ecx, DWORD PTR _inputFile$[ebp]
	call	?GetNext@SimlibFileClass@@QAEPADXZ	; SimlibFileClass::GetNext
	push	eax
	call	_atof
	add	esp, 4
	fstp	DWORD PTR tv233[ebp]
	fld	DWORD PTR tv233[ebp]
	mov	ecx, DWORD PTR _rollCmd$[ebp]
	mov	edx, DWORD PTR [ecx+12]
	mov	eax, DWORD PTR _qbar$[ebp]
	fstp	DWORD PTR [edx+eax*4]

; 1455 :    }

	jmp	SHORT $LN8@AirframeFc
$LN7@AirframeFc:

; 1456 : 
; 1457 :    /*-------------------------------------*/
; 1458 :    /* Allocate memeory for roll rate data */
; 1459 :    /*-------------------------------------*/
; 1460 : 	#ifdef USE_SH_POOLS
; 1461 : 	rollCmd->roll = (float *)MemAllocPtr(gReadInMemPool, sizeof(float)*numQbar*numAlpha,0);
; 1462 : 	#else
; 1463 :    	rollCmd->roll = new float[numAlpha*numQbar];

	mov	eax, DWORD PTR _numAlpha$[ebp]
	imul	eax, DWORD PTR _numQbar$[ebp]
	xor	ecx, ecx
	mov	edx, 4
	mul	edx
	seto	cl
	neg	ecx
	or	ecx, eax
	push	ecx
	call	??_U@YAPAXI@Z				; operator new[]
	add	esp, 4
	mov	DWORD PTR $T1[ebp], eax
	mov	eax, DWORD PTR _rollCmd$[ebp]
	mov	ecx, DWORD PTR $T1[ebp]
	mov	DWORD PTR [eax+16], ecx

; 1464 : 	#endif
; 1465 : 
; 1466 :    /*-------------------*/
; 1467 :    /* read in roll rate */
; 1468 :    /*-------------------*/
; 1469 :    scale = (float)atof(inputFile->GetNext());

	mov	ecx, DWORD PTR _inputFile$[ebp]
	call	?GetNext@SimlibFileClass@@QAEPADXZ	; SimlibFileClass::GetNext
	push	eax
	call	_atof
	add	esp, 4
	fstp	DWORD PTR _scale$[ebp]

; 1470 :    for (alpha=0; alpha<numAlpha; alpha++)

	mov	DWORD PTR _alpha$[ebp], 0
	jmp	SHORT $LN6@AirframeFc
$LN5@AirframeFc:
	mov	edx, DWORD PTR _alpha$[ebp]
	add	edx, 1
	mov	DWORD PTR _alpha$[ebp], edx
$LN6@AirframeFc:
	mov	eax, DWORD PTR _alpha$[ebp]
	cmp	eax, DWORD PTR _numAlpha$[ebp]
	jge	SHORT $LN4@AirframeFc

; 1471 :    {
; 1472 :       for (qbar=0; qbar<numQbar; qbar++)

	mov	DWORD PTR _qbar$[ebp], 0
	jmp	SHORT $LN3@AirframeFc
$LN2@AirframeFc:
	mov	ecx, DWORD PTR _qbar$[ebp]
	add	ecx, 1
	mov	DWORD PTR _qbar$[ebp], ecx
$LN3@AirframeFc:
	mov	edx, DWORD PTR _qbar$[ebp]
	cmp	edx, DWORD PTR _numQbar$[ebp]
	jge	SHORT $LN1@AirframeFc

; 1473 :       {
; 1474 :          rollCmd->roll[alpha*numQbar + qbar] = (float)atof(inputFile->GetNext()) * scale;

	mov	ecx, DWORD PTR _inputFile$[ebp]
	call	?GetNext@SimlibFileClass@@QAEPADXZ	; SimlibFileClass::GetNext
	push	eax
	call	_atof
	add	esp, 4
	fstp	QWORD PTR tv261[ebp]
	movsd	xmm0, QWORD PTR tv261[ebp]
	cvtsd2ss xmm0, xmm0
	mulss	xmm0, DWORD PTR _scale$[ebp]
	mov	eax, DWORD PTR _alpha$[ebp]
	imul	eax, DWORD PTR _numQbar$[ebp]
	add	eax, DWORD PTR _qbar$[ebp]
	mov	ecx, DWORD PTR _rollCmd$[ebp]
	mov	edx, DWORD PTR [ecx+16]
	movss	DWORD PTR [edx+eax*4], xmm0

; 1475 :       }

	jmp	SHORT $LN2@AirframeFc
$LN1@AirframeFc:

; 1476 :    }

	jmp	SHORT $LN5@AirframeFc
$LN4@AirframeFc:

; 1477 : 
; 1478 :    return (rollCmd);

	mov	eax, DWORD PTR _rollCmd$[ebp]

; 1479 : }

	mov	esp, ebp
	pop	ebp
	ret	0
?AirframeFcsRead@@YAPAVRollData@@PAVSimlibFileClass@@@Z ENDP ; AirframeFcsRead
_TEXT	ENDS
; Function compile flags: /Odtp
; File c:\users\zhitao li\documents\visual studio 2012\projects\freefalcon\sim\airframe\readin.cpp
_TEXT	SEGMENT
tv511 = -84						; size = 4
$T1 = -80						; size = 4
$T2 = -76						; size = 4
$T3 = -72						; size = 4
tv453 = -68						; size = 4
$T4 = -64						; size = 4
$T5 = -60						; size = 4
$T6 = -56						; size = 4
tv397 = -52						; size = 4
$T7 = -48						; size = 4
tv371 = -44						; size = 4
$T8 = -40						; size = 4
tv67 = -36						; size = 4
$T9 = -32						; size = 4
_tok$ = -28						; size = 4
_i$ = -24						; size = 4
_numAlt$ = -20						; size = 4
_numMach$ = -16						; size = 4
_mach$ = -12						; size = 4
_alt$ = -8						; size = 4
_engineData$ = -4					; size = 4
_inputFile$ = 8						; size = 4
?AirframeEngineRead@@YAPAVEngineData@@PAVSimlibFileClass@@@Z PROC ; AirframeEngineRead

; 1226 : {

	push	ebp
	mov	ebp, esp
	sub	esp, 84					; 00000054H
	push	esi
	push	edi

; 1227 : int numMach, numAlt;
; 1228 : int i, mach, alt;
; 1229 : EngineData *engineData;
; 1230 :    char *tok;
; 1231 : 
; 1232 :    /*-------------------------------------------------*/
; 1233 :    /* Allocate a block of memeory for the engine data */
; 1234 :    /*-------------------------------------------------*/
; 1235 :    engineData = new EngineData;

	push	56					; 00000038H
	call	??2@YAPAXI@Z				; operator new
	add	esp, 4
	mov	DWORD PTR $T9[ebp], eax
	cmp	DWORD PTR $T9[ebp], 0
	je	SHORT $LN38@AirframeEn
	mov	eax, DWORD PTR $T9[ebp]
	mov	DWORD PTR tv67[ebp], eax
	jmp	SHORT $LN39@AirframeEn
$LN38@AirframeEn:
	mov	DWORD PTR tv67[ebp], 0
$LN39@AirframeEn:
	mov	ecx, DWORD PTR tv67[ebp]
	mov	DWORD PTR _engineData$[ebp], ecx

; 1236 : 
; 1237 :    engineData->fuelflow[0] = 0; // MLR 5/17/2004 - 

	mov	edx, 4
	imul	edx, 0
	mov	eax, DWORD PTR _engineData$[ebp]
	mov	DWORD PTR [eax+edx+40], 0

; 1238 :    engineData->fuelflow[1] = 0;

	mov	ecx, 4
	shl	ecx, 0
	mov	edx, DWORD PTR _engineData$[ebp]
	mov	DWORD PTR [edx+ecx+40], 0

; 1239 :    engineData->fuelflow[2] = 0;

	mov	eax, 4
	shl	eax, 1
	mov	ecx, DWORD PTR _engineData$[ebp]
	mov	DWORD PTR [ecx+eax+40], 0

; 1240 : 
; 1241 : 	engineData->hasFuelFlow = 0;

	mov	edx, DWORD PTR _engineData$[ebp]
	mov	DWORD PTR [edx+52], 0

; 1242 : 
; 1243 :    tok = inputFile->GetNext(); // MLR 5/17/2004 - 

	mov	ecx, DWORD PTR _inputFile$[ebp]
	call	?GetNext@SimlibFileClass@@QAEPADXZ	; SimlibFileClass::GetNext
	mov	DWORD PTR _tok$[ebp], eax
$LN35@AirframeEn:

; 1244 :    while(stricmp(tok,"engopt")==0)

	push	OFFSET ??_C@_06NOBGLFED@engopt?$AA@
	mov	eax, DWORD PTR _tok$[ebp]
	push	eax
	call	_stricmp
	add	esp, 8
	test	eax, eax
	jne	SHORT $LN34@AirframeEn

; 1245 :    {
; 1246 : 	   tok = inputFile->GetNext();

	mov	ecx, DWORD PTR _inputFile$[ebp]
	call	?GetNext@SimlibFileClass@@QAEPADXZ	; SimlibFileClass::GetNext
	mov	DWORD PTR _tok$[ebp], eax

; 1247 : 	   if(stricmp(tok,"fuelflow")==0)

	push	OFFSET ??_C@_08DAPAIJJC@fuelflow?$AA@
	mov	ecx, DWORD PTR _tok$[ebp]
	push	ecx
	call	_stricmp
	add	esp, 8
	test	eax, eax
	jne	SHORT $LN33@AirframeEn

; 1248 : 	   {
; 1249 : 		    engineData->hasFuelFlow = 1;

	mov	edx, DWORD PTR _engineData$[ebp]
	mov	DWORD PTR [edx+52], 1

; 1250 : 			tok = inputFile->GetNext();

	mov	ecx, DWORD PTR _inputFile$[ebp]
	call	?GetNext@SimlibFileClass@@QAEPADXZ	; SimlibFileClass::GetNext
	mov	DWORD PTR _tok$[ebp], eax
$LN33@AirframeEn:

; 1251 : 	   }  
; 1252 :    }

	jmp	SHORT $LN35@AirframeEn
$LN34@AirframeEn:

; 1253 : 
; 1254 :    /*-------------------------*/
; 1255 :    /* Read in thrust modifier */
; 1256 :    /*-------------------------*/
; 1257 :    engineData->thrustFactor = (float)atof(tok);

	mov	eax, DWORD PTR _tok$[ebp]
	push	eax
	call	_atof
	add	esp, 4
	mov	ecx, DWORD PTR _engineData$[ebp]
	fstp	DWORD PTR [ecx]

; 1258 : 
; 1259 :    /*----------------------------*/
; 1260 :    /* Read in fuel flow modifier */
; 1261 :    /*----------------------------*/
; 1262 :    engineData->fuelFlowFactor = (float)atof(inputFile->GetNext());

	mov	ecx, DWORD PTR _inputFile$[ebp]
	call	?GetNext@SimlibFileClass@@QAEPADXZ	; SimlibFileClass::GetNext
	push	eax
	call	_atof
	add	esp, 4
	mov	edx, DWORD PTR _engineData$[ebp]
	fstp	DWORD PTR [edx+4]

; 1263 : 
; 1264 :    /*-------------------------*/
; 1265 :    /* Read in Num Mach Breaks */
; 1266 :    /*-------------------------*/
; 1267 :    engineData->numMach = atoi(inputFile->GetNext());

	mov	ecx, DWORD PTR _inputFile$[ebp]
	call	?GetNext@SimlibFileClass@@QAEPADXZ	; SimlibFileClass::GetNext
	push	eax
	call	_atoi
	add	esp, 4
	mov	ecx, DWORD PTR _engineData$[ebp]
	mov	DWORD PTR [ecx+8], eax

; 1268 :    numMach = engineData->numMach;

	mov	edx, DWORD PTR _engineData$[ebp]
	mov	eax, DWORD PTR [edx+8]
	mov	DWORD PTR _numMach$[ebp], eax

; 1269 : 
; 1270 :    /*-------------------------------------------*/
; 1271 :    /* Allocate storage for the mach breakpoints */
; 1272 :    /*-------------------------------------------*/
; 1273 : 	#ifdef USE_SH_POOLS
; 1274 : 	engineData->mach = (float *)MemAllocPtr(gReadInMemPool, sizeof(float)*numMach,0);
; 1275 : 	#else
; 1276 :    	engineData->mach = new float[numMach];

	xor	ecx, ecx
	mov	eax, DWORD PTR _numMach$[ebp]
	mov	edx, 4
	mul	edx
	seto	cl
	neg	ecx
	or	ecx, eax
	push	ecx
	call	??_U@YAPAXI@Z				; operator new[]
	add	esp, 4
	mov	DWORD PTR $T8[ebp], eax
	mov	eax, DWORD PTR _engineData$[ebp]
	mov	ecx, DWORD PTR $T8[ebp]
	mov	DWORD PTR [eax+16], ecx

; 1277 : 	#endif
; 1278 : 
; 1279 :    /*------------------------------*/
; 1280 :    /* Read in the Mach breakpoints */
; 1281 :    /*------------------------------*/
; 1282 :    for (mach=0; mach<numMach; mach++)

	mov	DWORD PTR _mach$[ebp], 0
	jmp	SHORT $LN32@AirframeEn
$LN31@AirframeEn:
	mov	edx, DWORD PTR _mach$[ebp]
	add	edx, 1
	mov	DWORD PTR _mach$[ebp], edx
$LN32@AirframeEn:
	mov	eax, DWORD PTR _mach$[ebp]
	cmp	eax, DWORD PTR _numMach$[ebp]
	jge	SHORT $LN30@AirframeEn

; 1283 :    {
; 1284 :       engineData->mach[mach] = (float)atof(inputFile->GetNext());

	mov	ecx, DWORD PTR _inputFile$[ebp]
	call	?GetNext@SimlibFileClass@@QAEPADXZ	; SimlibFileClass::GetNext
	push	eax
	call	_atof
	add	esp, 4
	fstp	DWORD PTR tv371[ebp]
	fld	DWORD PTR tv371[ebp]
	mov	ecx, DWORD PTR _engineData$[ebp]
	mov	edx, DWORD PTR [ecx+16]
	mov	eax, DWORD PTR _mach$[ebp]
	fstp	DWORD PTR [edx+eax*4]

; 1285 :    }

	jmp	SHORT $LN31@AirframeEn
$LN30@AirframeEn:

; 1286 : 
; 1287 :    /*------------------------*/
; 1288 :    /* Read in Num Alt Breaks */
; 1289 :    /*------------------------*/
; 1290 :    engineData->numAlt = atoi(inputFile->GetNext());

	mov	ecx, DWORD PTR _inputFile$[ebp]
	call	?GetNext@SimlibFileClass@@QAEPADXZ	; SimlibFileClass::GetNext
	push	eax
	call	_atoi
	add	esp, 4
	mov	ecx, DWORD PTR _engineData$[ebp]
	mov	DWORD PTR [ecx+12], eax

; 1291 :    numAlt = engineData->numAlt;

	mov	edx, DWORD PTR _engineData$[ebp]
	mov	eax, DWORD PTR [edx+12]
	mov	DWORD PTR _numAlt$[ebp], eax

; 1292 : 
; 1293 :    /*-------------------------------------------*/
; 1294 :    /* Allocate storage for the alt breakpoints */
; 1295 :    /*-------------------------------------------*/
; 1296 : 	#ifdef USE_SH_POOLS
; 1297 : 	engineData->alt = (float *)MemAllocPtr(gReadInMemPool, sizeof(float)*numAlt,0);
; 1298 : 	#else
; 1299 :    	engineData->alt = new float[numAlt];

	xor	ecx, ecx
	mov	eax, DWORD PTR _numAlt$[ebp]
	mov	edx, 4
	mul	edx
	seto	cl
	neg	ecx
	or	ecx, eax
	push	ecx
	call	??_U@YAPAXI@Z				; operator new[]
	add	esp, 4
	mov	DWORD PTR $T7[ebp], eax
	mov	eax, DWORD PTR _engineData$[ebp]
	mov	ecx, DWORD PTR $T7[ebp]
	mov	DWORD PTR [eax+20], ecx

; 1300 : 	#endif
; 1301 : 
; 1302 :    /*------------------------------*/
; 1303 :    /* Read in the Mach breakpoints */
; 1304 :    /*------------------------------*/
; 1305 :    for (alt=0; alt<numAlt; alt++)

	mov	DWORD PTR _alt$[ebp], 0
	jmp	SHORT $LN29@AirframeEn
$LN28@AirframeEn:
	mov	edx, DWORD PTR _alt$[ebp]
	add	edx, 1
	mov	DWORD PTR _alt$[ebp], edx
$LN29@AirframeEn:
	mov	eax, DWORD PTR _alt$[ebp]
	cmp	eax, DWORD PTR _numAlt$[ebp]
	jge	SHORT $LN27@AirframeEn

; 1306 :    {
; 1307 :       engineData->alt[alt] = (float)atof(inputFile->GetNext());

	mov	ecx, DWORD PTR _inputFile$[ebp]
	call	?GetNext@SimlibFileClass@@QAEPADXZ	; SimlibFileClass::GetNext
	push	eax
	call	_atof
	add	esp, 4
	fstp	DWORD PTR tv397[ebp]
	fld	DWORD PTR tv397[ebp]
	mov	ecx, DWORD PTR _engineData$[ebp]
	mov	edx, DWORD PTR [ecx+20]
	mov	eax, DWORD PTR _alt$[ebp]
	fstp	DWORD PTR [edx+eax*4]

; 1308 :    }

	jmp	SHORT $LN28@AirframeEn
$LN27@AirframeEn:

; 1309 : 
; 1310 :    /*----------------------------------------------*/
; 1311 :    /* Allocate Storage for three thrust data sets  */
; 1312 :    /* Set 0 - Idle                                 */
; 1313 :    /* Set 1 - Mil                                  */
; 1314 :    /* Set 2 - AB                                   */
; 1315 :    /*----------------------------------------------*/
; 1316 : 	#ifdef USE_SH_POOLS
; 1317 : 	engineData->thrust[0] = (float *)MemAllocPtr(gReadInMemPool, sizeof(float)*numMach*numAlt,0);
; 1318 : 	engineData->thrust[1] = (float *)MemAllocPtr(gReadInMemPool, sizeof(float)*numMach*numAlt,0);
; 1319 : 	engineData->thrust[2] = (float *)MemAllocPtr(gReadInMemPool, sizeof(float)*numMach*numAlt,0);
; 1320 : 	#else
; 1321 :    	engineData->thrust[0] = new float[numMach*numAlt];

	mov	eax, DWORD PTR _numMach$[ebp]
	imul	eax, DWORD PTR _numAlt$[ebp]
	xor	ecx, ecx
	mov	edx, 4
	mul	edx
	seto	cl
	neg	ecx
	or	ecx, eax
	push	ecx
	call	??_U@YAPAXI@Z				; operator new[]
	add	esp, 4
	mov	DWORD PTR $T6[ebp], eax
	mov	eax, 4
	imul	eax, 0
	mov	ecx, DWORD PTR _engineData$[ebp]
	mov	edx, DWORD PTR $T6[ebp]
	mov	DWORD PTR [ecx+eax+28], edx

; 1322 :    	engineData->thrust[1] = new float[numMach*numAlt];

	mov	eax, DWORD PTR _numMach$[ebp]
	imul	eax, DWORD PTR _numAlt$[ebp]
	xor	ecx, ecx
	mov	edx, 4
	mul	edx
	seto	cl
	neg	ecx
	or	ecx, eax
	push	ecx
	call	??_U@YAPAXI@Z				; operator new[]
	add	esp, 4
	mov	DWORD PTR $T5[ebp], eax
	mov	eax, 4
	shl	eax, 0
	mov	ecx, DWORD PTR _engineData$[ebp]
	mov	edx, DWORD PTR $T5[ebp]
	mov	DWORD PTR [ecx+eax+28], edx

; 1323 :    	engineData->thrust[2] = new float[numMach*numAlt];

	mov	eax, DWORD PTR _numMach$[ebp]
	imul	eax, DWORD PTR _numAlt$[ebp]
	xor	ecx, ecx
	mov	edx, 4
	mul	edx
	seto	cl
	neg	ecx
	or	ecx, eax
	push	ecx
	call	??_U@YAPAXI@Z				; operator new[]
	add	esp, 4
	mov	DWORD PTR $T4[ebp], eax
	mov	eax, 4
	shl	eax, 1
	mov	ecx, DWORD PTR _engineData$[ebp]
	mov	edx, DWORD PTR $T4[ebp]
	mov	DWORD PTR [ecx+eax+28], edx

; 1324 : 	#endif
; 1325 : 
; 1326 :    /*-------------------------*/
; 1327 :    /* Read in the thrust data */
; 1328 :    /*-------------------------*/
; 1329 :    for (i=0; i<3; i++)

	mov	DWORD PTR _i$[ebp], 0
	jmp	SHORT $LN26@AirframeEn
$LN25@AirframeEn:
	mov	eax, DWORD PTR _i$[ebp]
	add	eax, 1
	mov	DWORD PTR _i$[ebp], eax
$LN26@AirframeEn:
	cmp	DWORD PTR _i$[ebp], 3
	jge	SHORT $LN24@AirframeEn

; 1330 :    {
; 1331 :       for (alt=0; alt<numAlt; alt++)

	mov	DWORD PTR _alt$[ebp], 0
	jmp	SHORT $LN23@AirframeEn
$LN22@AirframeEn:
	mov	ecx, DWORD PTR _alt$[ebp]
	add	ecx, 1
	mov	DWORD PTR _alt$[ebp], ecx
$LN23@AirframeEn:
	mov	edx, DWORD PTR _alt$[ebp]
	cmp	edx, DWORD PTR _numAlt$[ebp]
	jge	SHORT $LN21@AirframeEn

; 1332 :       {
; 1333 :          for (mach=0; mach<numMach; mach++)

	mov	DWORD PTR _mach$[ebp], 0
	jmp	SHORT $LN20@AirframeEn
$LN19@AirframeEn:
	mov	eax, DWORD PTR _mach$[ebp]
	add	eax, 1
	mov	DWORD PTR _mach$[ebp], eax
$LN20@AirframeEn:
	mov	ecx, DWORD PTR _mach$[ebp]
	cmp	ecx, DWORD PTR _numMach$[ebp]
	jge	SHORT $LN18@AirframeEn

; 1334 :          {
; 1335 :             engineData->thrust[i][alt*numMach + mach] =
; 1336 :                (float)atof(inputFile->GetNext());

	mov	ecx, DWORD PTR _inputFile$[ebp]
	call	?GetNext@SimlibFileClass@@QAEPADXZ	; SimlibFileClass::GetNext
	push	eax
	call	_atof
	add	esp, 4
	fstp	DWORD PTR tv453[ebp]
	fld	DWORD PTR tv453[ebp]
	mov	edx, DWORD PTR _alt$[ebp]
	imul	edx, DWORD PTR _numMach$[ebp]
	add	edx, DWORD PTR _mach$[ebp]
	mov	eax, DWORD PTR _i$[ebp]
	mov	ecx, DWORD PTR _engineData$[ebp]
	mov	eax, DWORD PTR [ecx+eax*4+28]
	fstp	DWORD PTR [eax+edx*4]

; 1337 :          }

	jmp	SHORT $LN19@AirframeEn
$LN18@AirframeEn:

; 1338 :       }

	jmp	SHORT $LN22@AirframeEn
$LN21@AirframeEn:

; 1339 :    }

	jmp	SHORT $LN25@AirframeEn
$LN24@AirframeEn:

; 1340 : 
; 1341 :    if(engineData->hasFuelFlow) // MLR 5/16/2004 - 

	mov	ecx, DWORD PTR _engineData$[ebp]
	cmp	DWORD PTR [ecx+52], 0
	je	$LN14@AirframeEn

; 1342 :    {
; 1343 : 
; 1344 : #ifdef USE_SH_POOLS
; 1345 : 	   engineData->fuelflow[0] = (float *)MemAllocPtr(gReadInMemPool, sizeof(float)*numMach*numAlt,0);
; 1346 : 	   engineData->fuelflow[1] = (float *)MemAllocPtr(gReadInMemPool, sizeof(float)*numMach*numAlt,0);
; 1347 : 	   engineData->fuelflow[2] = (float *)MemAllocPtr(gReadInMemPool, sizeof(float)*numMach*numAlt,0);
; 1348 : #else
; 1349 : 	   engineData->fuelflow[0] = new float[numMach*numAlt];

	mov	eax, DWORD PTR _numMach$[ebp]
	imul	eax, DWORD PTR _numAlt$[ebp]
	xor	ecx, ecx
	mov	edx, 4
	mul	edx
	seto	cl
	neg	ecx
	or	ecx, eax
	push	ecx
	call	??_U@YAPAXI@Z				; operator new[]
	add	esp, 4
	mov	DWORD PTR $T3[ebp], eax
	mov	eax, 4
	imul	eax, 0
	mov	ecx, DWORD PTR _engineData$[ebp]
	mov	edx, DWORD PTR $T3[ebp]
	mov	DWORD PTR [ecx+eax+40], edx

; 1350 : 	   engineData->fuelflow[1] = new float[numMach*numAlt];

	mov	eax, DWORD PTR _numMach$[ebp]
	imul	eax, DWORD PTR _numAlt$[ebp]
	xor	ecx, ecx
	mov	edx, 4
	mul	edx
	seto	cl
	neg	ecx
	or	ecx, eax
	push	ecx
	call	??_U@YAPAXI@Z				; operator new[]
	add	esp, 4
	mov	DWORD PTR $T2[ebp], eax
	mov	eax, 4
	shl	eax, 0
	mov	ecx, DWORD PTR _engineData$[ebp]
	mov	edx, DWORD PTR $T2[ebp]
	mov	DWORD PTR [ecx+eax+40], edx

; 1351 : 	   engineData->fuelflow[2] = new float[numMach*numAlt];

	mov	eax, DWORD PTR _numMach$[ebp]
	imul	eax, DWORD PTR _numAlt$[ebp]
	xor	ecx, ecx
	mov	edx, 4
	mul	edx
	seto	cl
	neg	ecx
	or	ecx, eax
	push	ecx
	call	??_U@YAPAXI@Z				; operator new[]
	add	esp, 4
	mov	DWORD PTR $T1[ebp], eax
	mov	eax, 4
	shl	eax, 1
	mov	ecx, DWORD PTR _engineData$[ebp]
	mov	edx, DWORD PTR $T1[ebp]
	mov	DWORD PTR [ecx+eax+40], edx

; 1352 : #endif
; 1353 : 	   
; 1354 : 	   /*---------------------------*/
; 1355 : 	   /* Read in the fuelflow data */
; 1356 : 	   /*---------------------------*/
; 1357 : 	   for (i=0; i<3; i++)

	mov	DWORD PTR _i$[ebp], 0
	jmp	SHORT $LN16@AirframeEn
$LN15@AirframeEn:
	mov	eax, DWORD PTR _i$[ebp]
	add	eax, 1
	mov	DWORD PTR _i$[ebp], eax
$LN16@AirframeEn:
	cmp	DWORD PTR _i$[ebp], 3
	jge	SHORT $LN14@AirframeEn

; 1358 : 	   {
; 1359 : 		   for (alt=0; alt<numAlt; alt++)

	mov	DWORD PTR _alt$[ebp], 0
	jmp	SHORT $LN13@AirframeEn
$LN12@AirframeEn:
	mov	ecx, DWORD PTR _alt$[ebp]
	add	ecx, 1
	mov	DWORD PTR _alt$[ebp], ecx
$LN13@AirframeEn:
	mov	edx, DWORD PTR _alt$[ebp]
	cmp	edx, DWORD PTR _numAlt$[ebp]
	jge	SHORT $LN11@AirframeEn

; 1360 : 		   {
; 1361 : 			   for (mach=0; mach<numMach; mach++)

	mov	DWORD PTR _mach$[ebp], 0
	jmp	SHORT $LN10@AirframeEn
$LN9@AirframeEn:
	mov	eax, DWORD PTR _mach$[ebp]
	add	eax, 1
	mov	DWORD PTR _mach$[ebp], eax
$LN10@AirframeEn:
	mov	ecx, DWORD PTR _mach$[ebp]
	cmp	ecx, DWORD PTR _numMach$[ebp]
	jge	SHORT $LN8@AirframeEn

; 1362 : 			   {
; 1363 : 				   engineData->fuelflow[i][alt*numMach + mach] =
; 1364 : 					   (float)atof(inputFile->GetNext());

	mov	ecx, DWORD PTR _inputFile$[ebp]
	call	?GetNext@SimlibFileClass@@QAEPADXZ	; SimlibFileClass::GetNext
	push	eax
	call	_atof
	add	esp, 4
	fstp	DWORD PTR tv511[ebp]
	fld	DWORD PTR tv511[ebp]
	mov	edx, DWORD PTR _alt$[ebp]
	imul	edx, DWORD PTR _numMach$[ebp]
	add	edx, DWORD PTR _mach$[ebp]
	mov	eax, DWORD PTR _i$[ebp]
	mov	ecx, DWORD PTR _engineData$[ebp]
	mov	eax, DWORD PTR [ecx+eax*4+40]
	fstp	DWORD PTR [eax+edx*4]

; 1365 : 			   }

	jmp	SHORT $LN9@AirframeEn
$LN8@AirframeEn:

; 1366 : 		   }

	jmp	SHORT $LN12@AirframeEn
$LN11@AirframeEn:

; 1367 : 	   }

	jmp	SHORT $LN15@AirframeEn
$LN14@AirframeEn:

; 1368 :    }
; 1369 : 
; 1370 : 	// JB 010706
; 1371 : 	engineData->hasAB = false;

	mov	ecx, DWORD PTR _engineData$[ebp]
	mov	BYTE PTR [ecx+24], 0

; 1372 : 	for (alt=0; alt<numAlt && !engineData->hasAB; alt++)

	mov	DWORD PTR _alt$[ebp], 0
	jmp	SHORT $LN7@AirframeEn
$LN6@AirframeEn:
	mov	edx, DWORD PTR _alt$[ebp]
	add	edx, 1
	mov	DWORD PTR _alt$[ebp], edx
$LN7@AirframeEn:
	mov	eax, DWORD PTR _alt$[ebp]
	cmp	eax, DWORD PTR _numAlt$[ebp]
	jge	SHORT $LN5@AirframeEn
	mov	ecx, DWORD PTR _engineData$[ebp]
	movzx	edx, BYTE PTR [ecx+24]
	test	edx, edx
	jne	SHORT $LN5@AirframeEn

; 1373 : 		for (mach=0; mach<numMach && !engineData->hasAB; mach++)

	mov	DWORD PTR _mach$[ebp], 0
	jmp	SHORT $LN4@AirframeEn
$LN3@AirframeEn:
	mov	eax, DWORD PTR _mach$[ebp]
	add	eax, 1
	mov	DWORD PTR _mach$[ebp], eax
$LN4@AirframeEn:
	mov	ecx, DWORD PTR _mach$[ebp]
	cmp	ecx, DWORD PTR _numMach$[ebp]
	jge	SHORT $LN2@AirframeEn
	mov	edx, DWORD PTR _engineData$[ebp]
	movzx	eax, BYTE PTR [edx+24]
	test	eax, eax
	jne	SHORT $LN2@AirframeEn

; 1374 : 			if (engineData->thrust[1][alt*numMach + mach] != engineData->thrust[2][alt*numMach + mach])

	mov	ecx, 4
	shl	ecx, 0
	mov	edx, DWORD PTR _alt$[ebp]
	imul	edx, DWORD PTR _numMach$[ebp]
	add	edx, DWORD PTR _mach$[ebp]
	mov	eax, DWORD PTR _engineData$[ebp]
	mov	ecx, DWORD PTR [eax+ecx+28]
	mov	eax, 4
	shl	eax, 1
	mov	esi, DWORD PTR _alt$[ebp]
	imul	esi, DWORD PTR _numMach$[ebp]
	add	esi, DWORD PTR _mach$[ebp]
	mov	edi, DWORD PTR _engineData$[ebp]
	mov	eax, DWORD PTR [edi+eax+28]
	movss	xmm0, DWORD PTR [ecx+edx*4]
	ucomiss	xmm0, DWORD PTR [eax+esi*4]
	lahf
	test	ah, 68					; 00000044H
	jnp	SHORT $LN1@AirframeEn

; 1375 : 				engineData->hasAB = true;

	mov	ecx, DWORD PTR _engineData$[ebp]
	mov	BYTE PTR [ecx+24], 1
$LN1@AirframeEn:

; 1376 : 
; 1377 :    return (engineData);

	jmp	SHORT $LN3@AirframeEn
$LN2@AirframeEn:
	jmp	$LN6@AirframeEn
$LN5@AirframeEn:
	mov	eax, DWORD PTR _engineData$[ebp]

; 1378 : }

	pop	edi
	pop	esi
	mov	esp, ebp
	pop	ebp
	ret	0
?AirframeEngineRead@@YAPAVEngineData@@PAVSimlibFileClass@@@Z ENDP ; AirframeEngineRead
_TEXT	ENDS
; Function compile flags: /Odtp
; File c:\users\zhitao li\documents\visual studio 2012\projects\freefalcon\sim\airframe\readin.cpp
_TEXT	SEGMENT
$T2 = -28						; size = 4
_auxaeroData$ = -24					; size = 4
tv71 = -20						; size = 4
$T3 = -16						; size = 4
__$EHRec$ = -12						; size = 12
_inputFile$ = 8						; size = 4
?AirframeAuxAeroRead@@YAPAVAuxAeroData@@PAVSimlibFileClass@@@Z PROC ; AirframeAuxAeroRead

; 1141 : {

	push	ebp
	mov	ebp, esp
	push	-1
	push	__ehhandler$?AirframeAuxAeroRead@@YAPAVAuxAeroData@@PAVSimlibFileClass@@@Z
	mov	eax, DWORD PTR fs:0
	push	eax
	sub	esp, 16					; 00000010H
	mov	eax, DWORD PTR ___security_cookie
	xor	eax, ebp
	push	eax
	lea	eax, DWORD PTR __$EHRec$[ebp]
	mov	DWORD PTR fs:0, eax

; 1142 : 	AuxAeroData *auxaeroData;
; 1143 : 
; 1144 : 	auxaeroData = new AuxAeroData;

	push	4032					; 00000fc0H
	call	??2@YAPAXI@Z				; operator new
	add	esp, 4
	mov	DWORD PTR $T3[ebp], eax
	mov	DWORD PTR __$EHRec$[ebp+8], 0
	cmp	DWORD PTR $T3[ebp], 0
	je	SHORT $LN4@AirframeAu
	mov	ecx, DWORD PTR $T3[ebp]
	call	??0AuxAeroData@@QAE@XZ
	mov	DWORD PTR tv71[ebp], eax
	jmp	SHORT $LN5@AirframeAu
$LN4@AirframeAu:
	mov	DWORD PTR tv71[ebp], 0
$LN5@AirframeAu:
	mov	eax, DWORD PTR tv71[ebp]
	mov	DWORD PTR $T2[ebp], eax
	mov	DWORD PTR __$EHRec$[ebp+8], -1
	mov	ecx, DWORD PTR $T2[ebp]
	mov	DWORD PTR _auxaeroData$[ebp], ecx

; 1145 : 
; 1146 : 	if (ParseSimlibFile(auxaeroData, AuxAeroDataDesc, inputFile) == false) {

	mov	edx, DWORD PTR _inputFile$[ebp]
	push	edx
	push	OFFSET _AuxAeroDataDesc
	mov	eax, DWORD PTR _auxaeroData$[ebp]
	push	eax
	call	?ParseSimlibFile@@YA_NPAXPBUInputDataDesc@@PAVSimlibFileClass@@@Z ; ParseSimlibFile
	add	esp, 12					; 0000000cH

; 1147 : //	    F4Assert(!"Bad parsing of aux aero data");
; 1148 : 	}
; 1149 : 
; 1150 : 	// RV - Biker - That does not work so remove it
; 1151 : 	// MLR 2/5/2004 - Load defaults as needed
; 1152 : 	//if(auxaeroData->A2GJDAMAlt<0)
; 1153 : 	//	auxaeroData->A2GJDAMAlt=g_fA2GJDAMAlt;
; 1154 : 	//
; 1155 : 	//if(auxaeroData->A2GJSOWAlt<0)
; 1156 : 	//	auxaeroData->A2GJSOWAlt=g_fA2GJSOWAlt;
; 1157 : 	//
; 1158 : 	//if(auxaeroData->A2GHarmAlt<0)
; 1159 : 	//	auxaeroData->A2GHarmAlt=g_fA2GHarmAlt;
; 1160 : 	//
; 1161 : 	//if(auxaeroData->A2GAGMAlt<0)
; 1162 : 	//	auxaeroData->A2GAGMAlt=g_fA2GAGMAlt;
; 1163 : 	//
; 1164 : 	//if(auxaeroData->A2GGBUAlt<0)
; 1165 : 	//	auxaeroData->A2GGBUAlt=g_fA2GGBUAlt;
; 1166 : 	//
; 1167 : 	//if(auxaeroData->A2GDumbHDAlt<0)
; 1168 : 	//	auxaeroData->A2GDumbHDAlt=g_fA2GDumbHDAlt;
; 1169 : 	//
; 1170 : 	//if(auxaeroData->A2GClusterAlt<0)
; 1171 : 	//	auxaeroData->A2GClusterAlt=g_fA2GClusterAlt;
; 1172 : 	//
; 1173 : 	//if(auxaeroData->A2GDumbLDAlt<0)
; 1174 : 	//	auxaeroData->A2GDumbLDAlt=g_fA2GDumbLDAlt;
; 1175 : 	//
; 1176 : 	//if(auxaeroData->A2GGenericBombAlt<0)
; 1177 : 	//	auxaeroData->A2GGenericBombAlt=g_fA2GGenericBombAlt;
; 1178 : 	//
; 1179 : 	//if(auxaeroData->A2GGunRocketAlt<0)
; 1180 : 	//	auxaeroData->A2GGunRocketAlt=g_fA2GGunRocketAlt;
; 1181 : 	//
; 1182 : 	//if(auxaeroData->A2GCameraAlt<0)
; 1183 : 	//	auxaeroData->A2GCameraAlt=g_fA2GCameraAlt;
; 1184 : 	//
; 1185 : 	//if(auxaeroData->A2GBombMissileAlt<0)
; 1186 : 	//	auxaeroData->A2GBombMissileAlt=g_fBombMissileAltitude;*/
; 1187 : 
; 1188 : 	return (auxaeroData);

	mov	eax, DWORD PTR _auxaeroData$[ebp]

; 1189 : }

	mov	ecx, DWORD PTR __$EHRec$[ebp]
	mov	DWORD PTR fs:0, ecx
	pop	ecx
	mov	esp, ebp
	pop	ebp
	ret	0
_TEXT	ENDS
text$x	SEGMENT
__unwindfunclet$?AirframeAuxAeroRead@@YAPAVAuxAeroData@@PAVSimlibFileClass@@@Z$0:
	mov	eax, DWORD PTR $T3[ebp]
	push	eax
	call	??3@YAXPAX@Z				; operator delete
	pop	ecx
	ret	0
__ehhandler$?AirframeAuxAeroRead@@YAPAVAuxAeroData@@PAVSimlibFileClass@@@Z:
	mov	edx, DWORD PTR [esp+8]
	lea	eax, DWORD PTR [edx+12]
	mov	ecx, DWORD PTR [edx-20]
	xor	ecx, eax
	call	@__security_check_cookie@4
	mov	eax, OFFSET __ehfuncinfo$?AirframeAuxAeroRead@@YAPAVAuxAeroData@@PAVSimlibFileClass@@@Z
	jmp	___CxxFrameHandler3
text$x	ENDS
?AirframeAuxAeroRead@@YAPAVAuxAeroData@@PAVSimlibFileClass@@@Z ENDP ; AirframeAuxAeroRead
; Function compile flags: /Odtp
; File c:\users\zhitao li\documents\visual studio 2012\projects\freefalcon\sim\airframe\readin.cpp
_TEXT	SEGMENT
tv356 = -76						; size = 8
tv386 = -68						; size = 4
$T1 = -64						; size = 4
$T2 = -60						; size = 4
tv327 = -56						; size = 4
$T3 = -52						; size = 4
tv298 = -48						; size = 4
$T4 = -44						; size = 4
tv271 = -40						; size = 4
$T5 = -36						; size = 4
tv67 = -32						; size = 4
$T6 = -28						; size = 4
_numMach$ = -24						; size = 4
_i$ = -20						; size = 4
_numAlpha$ = -16					; size = 4
_alpha$ = -12						; size = 4
_mach$ = -8						; size = 4
_aeroData$ = -4						; size = 4
_inputFile$ = 8						; size = 4
?AirframeAeroRead@@YAPAVAeroData@@PAVSimlibFileClass@@@Z PROC ; AirframeAeroRead

; 455  : {

	push	ebp
	mov	ebp, esp
	sub	esp, 76					; 0000004cH

; 456  : int i, numMach, numAlpha;
; 457  : int mach, alpha;
; 458  : AeroData *aeroData;
; 459  : 
; 460  :    /*-----------------------------------------------*/
; 461  :    /* Allocate a block of memeory for the aero data */
; 462  :    /*-----------------------------------------------*/
; 463  :    aeroData = new AeroData;

	push	40					; 00000028H
	call	??2@YAPAXI@Z				; operator new
	add	esp, 4
	mov	DWORD PTR $T6[ebp], eax
	cmp	DWORD PTR $T6[ebp], 0
	je	SHORT $LN27@AirframeAe
	mov	eax, DWORD PTR $T6[ebp]
	mov	DWORD PTR tv67[ebp], eax
	jmp	SHORT $LN28@AirframeAe
$LN27@AirframeAe:
	mov	DWORD PTR tv67[ebp], 0
$LN28@AirframeAe:
	mov	ecx, DWORD PTR tv67[ebp]
	mov	DWORD PTR _aeroData$[ebp], ecx

; 464  : 
; 465  :    /*-------------------------*/
; 466  :    /* Read in Num Mach Breaks */
; 467  :    /*-------------------------*/
; 468  :    aeroData->numMach = atoi(inputFile->GetNext());

	mov	ecx, DWORD PTR _inputFile$[ebp]
	call	?GetNext@SimlibFileClass@@QAEPADXZ	; SimlibFileClass::GetNext
	push	eax
	call	_atoi
	add	esp, 4
	mov	edx, DWORD PTR _aeroData$[ebp]
	mov	DWORD PTR [edx], eax

; 469  :    numMach = aeroData->numMach;

	mov	eax, DWORD PTR _aeroData$[ebp]
	mov	ecx, DWORD PTR [eax]
	mov	DWORD PTR _numMach$[ebp], ecx

; 470  : 
; 471  :    /*-------------------------------------------*/
; 472  :    /* Allocate storage for the mach breakpoints */
; 473  :    /*-------------------------------------------*/
; 474  : 	#ifdef USE_SH_POOLS
; 475  : 	aeroData->mach = (float *)MemAllocPtr(gReadInMemPool, sizeof(float)*aeroData->numMach,0);
; 476  : 	#else
; 477  :     aeroData->mach = new float[aeroData->numMach];

	xor	ecx, ecx
	mov	edx, DWORD PTR _aeroData$[ebp]
	mov	eax, DWORD PTR [edx]
	mov	edx, 4
	mul	edx
	seto	cl
	neg	ecx
	or	ecx, eax
	push	ecx
	call	??_U@YAPAXI@Z				; operator new[]
	add	esp, 4
	mov	DWORD PTR $T5[ebp], eax
	mov	eax, DWORD PTR _aeroData$[ebp]
	mov	ecx, DWORD PTR $T5[ebp]
	mov	DWORD PTR [eax+8], ecx

; 478  : 	#endif
; 479  : 
; 480  :    /*------------------------------*/
; 481  :    /* Read in the Mach breakpoints */
; 482  :    /*------------------------------*/
; 483  :    for (i=0; i<numMach; i++)

	mov	DWORD PTR _i$[ebp], 0
	jmp	SHORT $LN24@AirframeAe
$LN23@AirframeAe:
	mov	edx, DWORD PTR _i$[ebp]
	add	edx, 1
	mov	DWORD PTR _i$[ebp], edx
$LN24@AirframeAe:
	mov	eax, DWORD PTR _i$[ebp]
	cmp	eax, DWORD PTR _numMach$[ebp]
	jge	SHORT $LN22@AirframeAe

; 484  :    {
; 485  :       aeroData->mach[i] = (float)atof(inputFile->GetNext());

	mov	ecx, DWORD PTR _inputFile$[ebp]
	call	?GetNext@SimlibFileClass@@QAEPADXZ	; SimlibFileClass::GetNext
	push	eax
	call	_atof
	add	esp, 4
	fstp	DWORD PTR tv271[ebp]
	fld	DWORD PTR tv271[ebp]
	mov	ecx, DWORD PTR _aeroData$[ebp]
	mov	edx, DWORD PTR [ecx+8]
	mov	eax, DWORD PTR _i$[ebp]
	fstp	DWORD PTR [edx+eax*4]

; 486  :    }

	jmp	SHORT $LN23@AirframeAe
$LN22@AirframeAe:

; 487  : 
; 488  :    /*--------------------------*/
; 489  :    /* Read in Num Alpha Breaks */
; 490  :    /*--------------------------*/
; 491  :    aeroData->numAlpha = atoi(inputFile->GetNext());

	mov	ecx, DWORD PTR _inputFile$[ebp]
	call	?GetNext@SimlibFileClass@@QAEPADXZ	; SimlibFileClass::GetNext
	push	eax
	call	_atoi
	add	esp, 4
	mov	ecx, DWORD PTR _aeroData$[ebp]
	mov	DWORD PTR [ecx+4], eax

; 492  :    numAlpha = aeroData->numAlpha;

	mov	edx, DWORD PTR _aeroData$[ebp]
	mov	eax, DWORD PTR [edx+4]
	mov	DWORD PTR _numAlpha$[ebp], eax

; 493  : 
; 494  :    /*--------------------------------------------*/
; 495  :    /* Allocate storage for the Alpha breakpoints */
; 496  :    /*--------------------------------------------*/
; 497  : 	#ifdef USE_SH_POOLS
; 498  : 	aeroData->alpha = (float *)MemAllocPtr(gReadInMemPool, sizeof(float)*aeroData->numAlpha,0);
; 499  : 	#else
; 500  :     aeroData->alpha = new float[aeroData->numAlpha];

	xor	ecx, ecx
	mov	edx, DWORD PTR _aeroData$[ebp]
	mov	eax, DWORD PTR [edx+4]
	mov	edx, 4
	mul	edx
	seto	cl
	neg	ecx
	or	ecx, eax
	push	ecx
	call	??_U@YAPAXI@Z				; operator new[]
	add	esp, 4
	mov	DWORD PTR $T4[ebp], eax
	mov	eax, DWORD PTR _aeroData$[ebp]
	mov	ecx, DWORD PTR $T4[ebp]
	mov	DWORD PTR [eax+12], ecx

; 501  : 	#endif
; 502  : 
; 503  :    /*-------------------------------*/
; 504  :    /* Read in the Alpha breakpoints */
; 505  :    /*-------------------------------*/
; 506  :    for (i=0; i<numAlpha; i++)

	mov	DWORD PTR _i$[ebp], 0
	jmp	SHORT $LN21@AirframeAe
$LN20@AirframeAe:
	mov	edx, DWORD PTR _i$[ebp]
	add	edx, 1
	mov	DWORD PTR _i$[ebp], edx
$LN21@AirframeAe:
	mov	eax, DWORD PTR _i$[ebp]
	cmp	eax, DWORD PTR _numAlpha$[ebp]
	jge	SHORT $LN19@AirframeAe

; 507  :    {
; 508  :       aeroData->alpha[i] = (float)atof(inputFile->GetNext());

	mov	ecx, DWORD PTR _inputFile$[ebp]
	call	?GetNext@SimlibFileClass@@QAEPADXZ	; SimlibFileClass::GetNext
	push	eax
	call	_atof
	add	esp, 4
	fstp	DWORD PTR tv298[ebp]
	fld	DWORD PTR tv298[ebp]
	mov	ecx, DWORD PTR _aeroData$[ebp]
	mov	edx, DWORD PTR [ecx+12]
	mov	eax, DWORD PTR _i$[ebp]
	fstp	DWORD PTR [edx+eax*4]

; 509  :    }

	jmp	SHORT $LN20@AirframeAe
$LN19@AirframeAe:

; 510  : 
; 511  :    /*---------------------------------*/
; 512  :    /* Allocate memeory for CLIFT data */
; 513  :    /*---------------------------------*/
; 514  : 	#ifdef USE_SH_POOLS
; 515  : 	aeroData->clift = (float *)MemAllocPtr(gReadInMemPool, sizeof(float)*numMach*numAlpha,0);
; 516  : 	#else
; 517  :    	aeroData->clift =  new float[numAlpha*numMach];

	mov	eax, DWORD PTR _numAlpha$[ebp]
	imul	eax, DWORD PTR _numMach$[ebp]
	xor	ecx, ecx
	mov	edx, 4
	mul	edx
	seto	cl
	neg	ecx
	or	ecx, eax
	push	ecx
	call	??_U@YAPAXI@Z				; operator new[]
	add	esp, 4
	mov	DWORD PTR $T3[ebp], eax
	mov	eax, DWORD PTR _aeroData$[ebp]
	mov	ecx, DWORD PTR $T3[ebp]
	mov	DWORD PTR [eax+16], ecx

; 518  : 	#endif
; 519  : 
; 520  :    /*-----------------------*/        
; 521  :    /* Read in lift modifier */
; 522  :    /*-----------------------*/
; 523  :    aeroData->clFactor = (float)atof(inputFile->GetNext());

	mov	ecx, DWORD PTR _inputFile$[ebp]
	call	?GetNext@SimlibFileClass@@QAEPADXZ	; SimlibFileClass::GetNext
	push	eax
	call	_atof
	add	esp, 4
	mov	edx, DWORD PTR _aeroData$[ebp]
	fstp	DWORD PTR [edx+28]

; 524  : 
; 525  :    /*--------------------------*/
; 526  :    /* read in lift coefficient */
; 527  :    /*--------------------------*/
; 528  :    for (mach=0; mach<numMach; mach++)

	mov	DWORD PTR _mach$[ebp], 0
	jmp	SHORT $LN18@AirframeAe
$LN17@AirframeAe:
	mov	eax, DWORD PTR _mach$[ebp]
	add	eax, 1
	mov	DWORD PTR _mach$[ebp], eax
$LN18@AirframeAe:
	mov	ecx, DWORD PTR _mach$[ebp]
	cmp	ecx, DWORD PTR _numMach$[ebp]
	jge	SHORT $LN16@AirframeAe

; 529  :    {
; 530  :       for (alpha=0; alpha<numAlpha; alpha++)

	mov	DWORD PTR _alpha$[ebp], 0
	jmp	SHORT $LN15@AirframeAe
$LN14@AirframeAe:
	mov	edx, DWORD PTR _alpha$[ebp]
	add	edx, 1
	mov	DWORD PTR _alpha$[ebp], edx
$LN15@AirframeAe:
	mov	eax, DWORD PTR _alpha$[ebp]
	cmp	eax, DWORD PTR _numAlpha$[ebp]
	jge	SHORT $LN13@AirframeAe

; 531  :       {
; 532  :          aeroData->clift[mach*numAlpha + alpha] = (float)atof(inputFile->GetNext());

	mov	ecx, DWORD PTR _inputFile$[ebp]
	call	?GetNext@SimlibFileClass@@QAEPADXZ	; SimlibFileClass::GetNext
	push	eax
	call	_atof
	add	esp, 4
	fstp	DWORD PTR tv327[ebp]
	fld	DWORD PTR tv327[ebp]
	mov	ecx, DWORD PTR _mach$[ebp]
	imul	ecx, DWORD PTR _numAlpha$[ebp]
	add	ecx, DWORD PTR _alpha$[ebp]
	mov	edx, DWORD PTR _aeroData$[ebp]
	mov	eax, DWORD PTR [edx+16]
	fstp	DWORD PTR [eax+ecx*4]

; 533  :       }

	jmp	SHORT $LN14@AirframeAe
$LN13@AirframeAe:

; 534  :    }

	jmp	SHORT $LN17@AirframeAe
$LN16@AirframeAe:

; 535  : 
; 536  :    /*---------------------------------*/
; 537  :    /* Allocate memeory for CDRAG data */
; 538  :    /*---------------------------------*/
; 539  : 	#ifdef USE_SH_POOLS
; 540  : 	aeroData->cdrag = (float *)MemAllocPtr(gReadInMemPool, sizeof(float)*numMach*numAlpha,0);
; 541  : 	#else
; 542  :    	aeroData->cdrag = new float[numAlpha*numMach];

	mov	eax, DWORD PTR _numAlpha$[ebp]
	imul	eax, DWORD PTR _numMach$[ebp]
	xor	ecx, ecx
	mov	edx, 4
	mul	edx
	seto	cl
	neg	ecx
	or	ecx, eax
	push	ecx
	call	??_U@YAPAXI@Z				; operator new[]
	add	esp, 4
	mov	DWORD PTR $T2[ebp], eax
	mov	eax, DWORD PTR _aeroData$[ebp]
	mov	ecx, DWORD PTR $T2[ebp]
	mov	DWORD PTR [eax+20], ecx

; 543  : 	#endif
; 544  : 
; 545  :    /*-----------------------*/        
; 546  :    /* Read in drag modifier */
; 547  :    /*-----------------------*/
; 548  :    aeroData->cdFactor = (float)atof(inputFile->GetNext());

	mov	ecx, DWORD PTR _inputFile$[ebp]
	call	?GetNext@SimlibFileClass@@QAEPADXZ	; SimlibFileClass::GetNext
	push	eax
	call	_atof
	add	esp, 4
	mov	edx, DWORD PTR _aeroData$[ebp]
	fstp	DWORD PTR [edx+32]

; 549  : 
; 550  :    /*--------------------------*/
; 551  :    /* read in DRAG coefficient */
; 552  :    /*--------------------------*/
; 553  :    for (mach=0; mach<numMach; mach++)

	mov	DWORD PTR _mach$[ebp], 0
	jmp	SHORT $LN12@AirframeAe
$LN11@AirframeAe:
	mov	eax, DWORD PTR _mach$[ebp]
	add	eax, 1
	mov	DWORD PTR _mach$[ebp], eax
$LN12@AirframeAe:
	mov	ecx, DWORD PTR _mach$[ebp]
	cmp	ecx, DWORD PTR _numMach$[ebp]
	jge	SHORT $LN10@AirframeAe

; 554  :    {
; 555  :       for (alpha=0; alpha<numAlpha; alpha++)

	mov	DWORD PTR _alpha$[ebp], 0
	jmp	SHORT $LN9@AirframeAe
$LN8@AirframeAe:
	mov	edx, DWORD PTR _alpha$[ebp]
	add	edx, 1
	mov	DWORD PTR _alpha$[ebp], edx
$LN9@AirframeAe:
	mov	eax, DWORD PTR _alpha$[ebp]
	cmp	eax, DWORD PTR _numAlpha$[ebp]
	jge	SHORT $LN7@AirframeAe

; 556  :       {
; 557  :          aeroData->cdrag[mach*numAlpha + alpha] = (float)atof(inputFile->GetNext()) * 1.5F;

	mov	ecx, DWORD PTR _inputFile$[ebp]
	call	?GetNext@SimlibFileClass@@QAEPADXZ	; SimlibFileClass::GetNext
	push	eax
	call	_atof
	add	esp, 4
	fstp	QWORD PTR tv356[ebp]
	movsd	xmm0, QWORD PTR tv356[ebp]
	cvtsd2ss xmm0, xmm0
	mulss	xmm0, DWORD PTR __real@3fc00000
	mov	ecx, DWORD PTR _mach$[ebp]
	imul	ecx, DWORD PTR _numAlpha$[ebp]
	add	ecx, DWORD PTR _alpha$[ebp]
	mov	edx, DWORD PTR _aeroData$[ebp]
	mov	eax, DWORD PTR [edx+20]
	movss	DWORD PTR [eax+ecx*4], xmm0

; 558  :       }

	jmp	SHORT $LN8@AirframeAe
$LN7@AirframeAe:

; 559  :    }

	jmp	SHORT $LN11@AirframeAe
$LN10@AirframeAe:

; 560  : 
; 561  :    /*------------------------------*/
; 562  :    /* Allocate memeory for CY data */
; 563  :    /*------------------------------*/
; 564  : 	#ifdef USE_SH_POOLS
; 565  : 	aeroData->cy = (float *)MemAllocPtr(gReadInMemPool, sizeof(float)*numMach*numAlpha,0);
; 566  : 	#else
; 567  :    	aeroData->cy = new float[numAlpha*numMach];

	mov	eax, DWORD PTR _numAlpha$[ebp]
	imul	eax, DWORD PTR _numMach$[ebp]
	xor	ecx, ecx
	mov	edx, 4
	mul	edx
	seto	cl
	neg	ecx
	or	ecx, eax
	push	ecx
	call	??_U@YAPAXI@Z				; operator new[]
	add	esp, 4
	mov	DWORD PTR $T1[ebp], eax
	mov	eax, DWORD PTR _aeroData$[ebp]
	mov	ecx, DWORD PTR $T1[ebp]
	mov	DWORD PTR [eax+24], ecx

; 568  : 	#endif
; 569  : 
; 570  :    /*----------------------*/        
; 571  :    /* Read in yaw modifier */
; 572  :    /*----------------------*/
; 573  :    aeroData->cyFactor = (float)atof(inputFile->GetNext());

	mov	ecx, DWORD PTR _inputFile$[ebp]
	call	?GetNext@SimlibFileClass@@QAEPADXZ	; SimlibFileClass::GetNext
	push	eax
	call	_atof
	add	esp, 4
	mov	edx, DWORD PTR _aeroData$[ebp]
	fstp	DWORD PTR [edx+36]

; 574  : 
; 575  :    /*------------------------*/
; 576  :    /* read in cy coefficient */
; 577  :    /*------------------------*/
; 578  :    for (mach=0; mach<numMach; mach++)

	mov	DWORD PTR _mach$[ebp], 0
	jmp	SHORT $LN6@AirframeAe
$LN5@AirframeAe:
	mov	eax, DWORD PTR _mach$[ebp]
	add	eax, 1
	mov	DWORD PTR _mach$[ebp], eax
$LN6@AirframeAe:
	mov	ecx, DWORD PTR _mach$[ebp]
	cmp	ecx, DWORD PTR _numMach$[ebp]
	jge	SHORT $LN4@AirframeAe

; 579  :    {
; 580  :       for (alpha=0; alpha<numAlpha; alpha++)

	mov	DWORD PTR _alpha$[ebp], 0
	jmp	SHORT $LN3@AirframeAe
$LN2@AirframeAe:
	mov	edx, DWORD PTR _alpha$[ebp]
	add	edx, 1
	mov	DWORD PTR _alpha$[ebp], edx
$LN3@AirframeAe:
	mov	eax, DWORD PTR _alpha$[ebp]
	cmp	eax, DWORD PTR _numAlpha$[ebp]
	jge	SHORT $LN1@AirframeAe

; 581  :       {
; 582  :          aeroData->cy[mach*numAlpha + alpha] = (float)atof(inputFile->GetNext());

	mov	ecx, DWORD PTR _inputFile$[ebp]
	call	?GetNext@SimlibFileClass@@QAEPADXZ	; SimlibFileClass::GetNext
	push	eax
	call	_atof
	add	esp, 4
	fstp	DWORD PTR tv386[ebp]
	fld	DWORD PTR tv386[ebp]
	mov	ecx, DWORD PTR _mach$[ebp]
	imul	ecx, DWORD PTR _numAlpha$[ebp]
	add	ecx, DWORD PTR _alpha$[ebp]
	mov	edx, DWORD PTR _aeroData$[ebp]
	mov	eax, DWORD PTR [edx+24]
	fstp	DWORD PTR [eax+ecx*4]

; 583  :       }

	jmp	SHORT $LN2@AirframeAe
$LN1@AirframeAe:

; 584  :    }

	jmp	SHORT $LN5@AirframeAe
$LN4@AirframeAe:

; 585  : 
; 586  :    return (aeroData);

	mov	eax, DWORD PTR _aeroData$[ebp]

; 587  : }

	mov	esp, ebp
	pop	ebp
	ret	0
?AirframeAeroRead@@YAPAVAeroData@@PAVSimlibFileClass@@@Z ENDP ; AirframeAeroRead
_TEXT	ENDS
; Function compile flags: /Odtp
; File c:\users\zhitao li\documents\visual studio 2012\projects\freefalcon\sim\airframe\readin.cpp
_TEXT	SEGMENT
tv68 = -12						; size = 4
$T1 = -8						; size = 4
$T2 = -4						; size = 4
?FreeAllAirframeData@@YAXXZ PROC			; FreeAllAirframeData

; 428  : {

	push	ebp
	mov	ebp, esp
	sub	esp, 12					; 0000000cH

; 429  :    delete [] aeroDataset;

	mov	eax, DWORD PTR ?aeroDataset@@3PAVAeroDataSet@@A ; aeroDataset
	mov	DWORD PTR $T1[ebp], eax
	mov	ecx, DWORD PTR $T1[ebp]
	mov	DWORD PTR $T2[ebp], ecx
	cmp	DWORD PTR $T2[ebp], 0
	je	SHORT $LN3@FreeAllAir
	push	3
	mov	ecx, DWORD PTR $T2[ebp]
	call	??_EAeroDataSet@@QAEPAXI@Z
	mov	DWORD PTR tv68[ebp], eax
	jmp	SHORT $LN4@FreeAllAir
$LN3@FreeAllAir:
	mov	DWORD PTR tv68[ebp], 0
$LN4@FreeAllAir:

; 430  : 
; 431  :    // Deallocate pools
; 432  :    AirframeDataReleaseStorage();

	call	?AirframeDataReleaseStorage@@YAXXZ	; AirframeDataReleaseStorage

; 433  : }

	mov	esp, ebp
	pop	ebp
	ret	0
?FreeAllAirframeData@@YAXXZ ENDP			; FreeAllAirframeData
_TEXT	ENDS
; Function compile flags: /Odtp
; File c:\users\zhitao li\documents\visual studio 2012\projects\freefalcon\sim\airframe\readin.cpp
_TEXT	SEGMENT
$T2 = -852						; size = 4
$T3 = -848						; size = 4
$T4 = -844						; size = 4
tv95 = -840						; size = 4
$T5 = -836						; size = 4
$T6 = -832						; size = 4
$T7 = -828						; size = 4
tv89 = -824						; size = 4
$T8 = -820						; size = 4
tv136 = -816						; size = 4
$T9 = -812						; size = 4
_aclist$ = -808						; size = 4
_i$ = -804						; size = 4
_inputFile$ = -800					; size = 4
_fName$ = -796						; size = 260
_fileName$ = -536					; size = 260
_buffer$ = -276						; size = 260
__$ArrayPad$ = -16					; size = 4
__$EHRec$ = -12						; size = 12
?ReadAllAirframeData@@YAXXZ PROC			; ReadAllAirframeData

; 364  : {

	push	ebp
	mov	ebp, esp
	push	-1
	push	__ehhandler$?ReadAllAirframeData@@YAXXZ
	mov	eax, DWORD PTR fs:0
	push	eax
	sub	esp, 840				; 00000348H
	mov	eax, DWORD PTR ___security_cookie
	xor	eax, ebp
	mov	DWORD PTR __$ArrayPad$[ebp], eax
	push	eax
	lea	eax, DWORD PTR __$EHRec$[ebp]
	mov	DWORD PTR fs:0, eax

; 365  : int i;
; 366  : SimlibFileClass* aclist;
; 367  : SimlibFileClass* inputFile;
; 368  : SimlibFileName buffer;
; 369  : SimlibFileName fileName;
; 370  : SimlibFileName fName;
; 371  : 
; 372  :    // Allocate pools
; 373  :    AirframeDataInitializeStorage();

	call	?AirframeDataInitializeStorage@@YAXXZ	; AirframeDataInitializeStorage

; 374  : 
; 375  :    /*-----------------*/
; 376  :    /* open input file */
; 377  :    /*-----------------*/
; 378  :    sprintf (fileName, "%s\\%s\0", AIRFRAME_DIR, AIRFRAME_DATASET);

	push	OFFSET ??_C@_0M@LHMEIHDK@actypes?4lst?$AA@
	push	OFFSET ??_C@_0L@BCHIDEAF@sim?2acdata?$AA@
	push	OFFSET ??_C@_06EOBIOCBK@?$CFs?2?$CFs?$AA?$AA@
	lea	eax, DWORD PTR _fileName$[ebp]
	push	eax
	call	_sprintf
	add	esp, 16					; 00000010H

; 379  :    aclist = SimlibFileClass::Open (fileName, SIMLIB_READ);

	push	4
	lea	ecx, DWORD PTR _fileName$[ebp]
	push	ecx
	call	?Open@SimlibFileClass@@SAPAV1@PADH@Z	; SimlibFileClass::Open
	add	esp, 8
	mov	DWORD PTR _aclist$[ebp], eax

; 380  : 	num_sets = atoi(aclist->GetNext());

	mov	ecx, DWORD PTR _aclist$[ebp]
	call	?GetNext@SimlibFileClass@@QAEPADXZ	; SimlibFileClass::GetNext
	push	eax
	call	_atoi
	add	esp, 4
	mov	DWORD PTR ?num_sets@@3HA, eax		; num_sets

; 381  : 
; 382  : 	/*
; 383  : 	#ifdef USE_SH_POOLS
; 384  : 	aeroDataset = (AeroDataSet *)MemAllocPtr(AirFrameDataPool, sizeof(AeroDataSet)*num_sets,0);
; 385  : 	#else
; 386  : 	aeroDataset = new AeroDataSet[num_sets];
; 387  : 	#endif
; 388  : 	*/
; 389  : 
; 390  : 	aeroDataset = new AeroDataSet[num_sets];

	mov	edx, DWORD PTR ?num_sets@@3HA		; num_sets
	mov	DWORD PTR $T8[ebp], edx
	xor	ecx, ecx
	mov	eax, DWORD PTR $T8[ebp]
	mov	edx, 220				; 000000dcH
	mul	edx
	seto	cl
	neg	ecx
	or	ecx, eax
	xor	eax, eax
	add	ecx, 4
	setb	al
	neg	eax
	or	eax, ecx
	push	eax
	call	??_U@YAPAXI@Z				; operator new[]
	add	esp, 4
	mov	DWORD PTR $T9[ebp], eax
	cmp	DWORD PTR $T9[ebp], 0
	je	SHORT $LN7@ReadAllAir
	mov	ecx, DWORD PTR $T9[ebp]
	mov	edx, DWORD PTR $T8[ebp]
	mov	DWORD PTR [ecx], edx
	mov	eax, DWORD PTR $T9[ebp]
	add	eax, 4
	mov	DWORD PTR tv89[ebp], eax
	jmp	SHORT $LN8@ReadAllAir
$LN7@ReadAllAir:
	mov	DWORD PTR tv89[ebp], 0
$LN8@ReadAllAir:
	mov	ecx, DWORD PTR tv89[ebp]
	mov	DWORD PTR ?aeroDataset@@3PAVAeroDataSet@@A, ecx ; aeroDataset

; 391  : 
; 392  : 	if(gLimiterMgr)

	cmp	DWORD PTR ?gLimiterMgr@@3PAVLimiterMgrClass@@A, 0 ; gLimiterMgr
	je	SHORT $LN4@ReadAllAir

; 393  : 		delete gLimiterMgr;

	mov	edx, DWORD PTR ?gLimiterMgr@@3PAVLimiterMgrClass@@A ; gLimiterMgr
	mov	DWORD PTR $T2[ebp], edx
	mov	eax, DWORD PTR $T2[ebp]
	mov	DWORD PTR $T6[ebp], eax
	cmp	DWORD PTR $T6[ebp], 0
	je	SHORT $LN9@ReadAllAir
	push	1
	mov	ecx, DWORD PTR $T6[ebp]
	call	??_GLimiterMgrClass@@QAEPAXI@Z
	mov	DWORD PTR tv95[ebp], eax
	jmp	SHORT $LN4@ReadAllAir
$LN9@ReadAllAir:
	mov	DWORD PTR tv95[ebp], 0
$LN4@ReadAllAir:

; 394  : 
; 395  : 	gLimiterMgr = new LimiterMgrClass(num_sets);

	push	8
	call	??2@YAPAXI@Z				; operator new
	add	esp, 4
	mov	DWORD PTR $T7[ebp], eax
	mov	DWORD PTR __$EHRec$[ebp+8], 0
	cmp	DWORD PTR $T7[ebp], 0
	je	SHORT $LN11@ReadAllAir
	mov	ecx, DWORD PTR ?num_sets@@3HA		; num_sets
	push	ecx
	mov	ecx, DWORD PTR $T7[ebp]
	call	??0LimiterMgrClass@@QAE@H@Z		; LimiterMgrClass::LimiterMgrClass
	mov	DWORD PTR tv136[ebp], eax
	jmp	SHORT $LN12@ReadAllAir
$LN11@ReadAllAir:
	mov	DWORD PTR tv136[ebp], 0
$LN12@ReadAllAir:
	mov	edx, DWORD PTR tv136[ebp]
	mov	DWORD PTR $T4[ebp], edx
	mov	DWORD PTR __$EHRec$[ebp+8], -1
	mov	eax, DWORD PTR $T4[ebp]
	mov	DWORD PTR ?gLimiterMgr@@3PAVLimiterMgrClass@@A, eax ; gLimiterMgr

; 396  : 
; 397  : 	/*--------------------------*/
; 398  : 	/* Do each file in the list */
; 399  : 	/*--------------------------*/
; 400  : 	for (i=0; i<num_sets; i++)

	mov	DWORD PTR _i$[ebp], 0
	jmp	SHORT $LN3@ReadAllAir
$LN2@ReadAllAir:
	mov	ecx, DWORD PTR _i$[ebp]
	add	ecx, 1
	mov	DWORD PTR _i$[ebp], ecx
$LN3@ReadAllAir:
	mov	edx, DWORD PTR _i$[ebp]
	cmp	edx, DWORD PTR ?num_sets@@3HA		; num_sets
	jge	$LN1@ReadAllAir

; 401  : 	{
; 402  : 		aclist->ReadLine(buffer, 80);

	push	80					; 00000050H
	lea	eax, DWORD PTR _buffer$[ebp]
	push	eax
	mov	ecx, DWORD PTR _aclist$[ebp]
	call	?ReadLine@SimlibFileClass@@QAEHPADH@Z	; SimlibFileClass::ReadLine

; 403  : 		
; 404  : 		/*-----------------*/
; 405  : 		/* open input file */
; 406  : 		/*-----------------*/
; 407  : 		sprintf (fName, "%s\\%s.dat", AIRFRAME_DIR, buffer);

	lea	ecx, DWORD PTR _buffer$[ebp]
	push	ecx
	push	OFFSET ??_C@_0L@BCHIDEAF@sim?2acdata?$AA@
	push	OFFSET ??_C@_09KGGGMDAE@?$CFs?2?$CFs?4dat?$AA@
	lea	edx, DWORD PTR _fName$[ebp]
	push	edx
	call	_sprintf
	add	esp, 16					; 00000010H

; 408  : 		inputFile = SimlibFileClass::Open (fName, SIMLIB_READ);

	push	4
	lea	eax, DWORD PTR _fName$[ebp]
	push	eax
	call	?Open@SimlibFileClass@@SAPAV1@PADH@Z	; SimlibFileClass::Open
	add	esp, 8
	mov	DWORD PTR _inputFile$[ebp], eax

; 409  : 		
; 410  : 		F4Assert (inputFile);
; 411  : 		ReadData(aeroDataset[i].inputData, inputFile);

	mov	ecx, DWORD PTR _inputFile$[ebp]
	push	ecx
	mov	edx, DWORD PTR _i$[ebp]
	imul	edx, 220				; 000000dcH
	mov	eax, DWORD PTR ?aeroDataset@@3PAVAeroDataSet@@A ; aeroDataset
	lea	ecx, DWORD PTR [eax+edx+16]
	push	ecx
	call	?ReadData@@YAXPAMPAVSimlibFileClass@@@Z	; ReadData
	add	esp, 8

; 412  : 		aeroDataset[i].aeroData = AirframeAeroRead(inputFile);

	mov	edx, DWORD PTR _inputFile$[ebp]
	push	edx
	call	?AirframeAeroRead@@YAPAVAeroData@@PAVSimlibFileClass@@@Z ; AirframeAeroRead
	add	esp, 4
	mov	ecx, DWORD PTR _i$[ebp]
	imul	ecx, 220				; 000000dcH
	mov	edx, DWORD PTR ?aeroDataset@@3PAVAeroDataSet@@A ; aeroDataset
	mov	DWORD PTR [edx+ecx+4], eax

; 413  : 		aeroDataset[i].engineData = AirframeEngineRead(inputFile);

	mov	eax, DWORD PTR _inputFile$[ebp]
	push	eax
	call	?AirframeEngineRead@@YAPAVEngineData@@PAVSimlibFileClass@@@Z ; AirframeEngineRead
	add	esp, 4
	mov	ecx, DWORD PTR _i$[ebp]
	imul	ecx, 220				; 000000dcH
	mov	edx, DWORD PTR ?aeroDataset@@3PAVAeroDataSet@@A ; aeroDataset
	mov	DWORD PTR [edx+ecx+12], eax

; 414  : 		aeroDataset[i].fcsData = AirframeFcsRead(inputFile);

	mov	eax, DWORD PTR _inputFile$[ebp]
	push	eax
	call	?AirframeFcsRead@@YAPAVRollData@@PAVSimlibFileClass@@@Z ; AirframeFcsRead
	add	esp, 4
	mov	ecx, DWORD PTR _i$[ebp]
	imul	ecx, 220				; 000000dcH
	mov	edx, DWORD PTR ?aeroDataset@@3PAVAeroDataSet@@A ; aeroDataset
	mov	DWORD PTR [edx+ecx], eax

; 415  : 		gLimiterMgr->ReadLimiters(inputFile, i);

	mov	eax, DWORD PTR _i$[ebp]
	push	eax
	mov	ecx, DWORD PTR _inputFile$[ebp]
	push	ecx
	mov	ecx, DWORD PTR ?gLimiterMgr@@3PAVLimiterMgrClass@@A ; gLimiterMgr
	call	?ReadLimiters@LimiterMgrClass@@QAEHPAVSimlibFileClass@@H@Z ; LimiterMgrClass::ReadLimiters

; 416  : 		aeroDataset[i].auxaeroData = AirframeAuxAeroRead(inputFile); // JB 010714

	mov	edx, DWORD PTR _inputFile$[ebp]
	push	edx
	call	?AirframeAuxAeroRead@@YAPAVAuxAeroData@@PAVSimlibFileClass@@@Z ; AirframeAuxAeroRead
	add	esp, 4
	mov	ecx, DWORD PTR _i$[ebp]
	imul	ecx, 220				; 000000dcH
	mov	edx, DWORD PTR ?aeroDataset@@3PAVAeroDataSet@@A ; aeroDataset
	mov	DWORD PTR [edx+ecx+8], eax

; 417  : 		inputFile->Close ();

	mov	ecx, DWORD PTR _inputFile$[ebp]
	call	?Close@SimlibFileClass@@QAEHXZ		; SimlibFileClass::Close

; 418  : 		delete inputFile;

	mov	eax, DWORD PTR _inputFile$[ebp]
	mov	DWORD PTR $T5[ebp], eax
	mov	ecx, DWORD PTR $T5[ebp]
	push	ecx
	call	??3@YAXPAX@Z				; operator delete
	add	esp, 4

; 419  : 		inputFile = NULL;

	mov	DWORD PTR _inputFile$[ebp], 0

; 420  : 	}

	jmp	$LN2@ReadAllAir
$LN1@ReadAllAir:

; 421  : 
; 422  : 	aclist->Close ();

	mov	ecx, DWORD PTR _aclist$[ebp]
	call	?Close@SimlibFileClass@@QAEHXZ		; SimlibFileClass::Close

; 423  :    delete aclist;

	mov	edx, DWORD PTR _aclist$[ebp]
	mov	DWORD PTR $T3[ebp], edx
	mov	eax, DWORD PTR $T3[ebp]
	push	eax
	call	??3@YAXPAX@Z				; operator delete
	add	esp, 4

; 424  :    aclist = NULL;

	mov	DWORD PTR _aclist$[ebp], 0

; 425  : }

	mov	ecx, DWORD PTR __$EHRec$[ebp]
	mov	DWORD PTR fs:0, ecx
	pop	ecx
	mov	ecx, DWORD PTR __$ArrayPad$[ebp]
	xor	ecx, ebp
	call	@__security_check_cookie@4
	mov	esp, ebp
	pop	ebp
	ret	0
_TEXT	ENDS
text$x	SEGMENT
__unwindfunclet$?ReadAllAirframeData@@YAXXZ$0:
	mov	eax, DWORD PTR $T7[ebp]
	push	eax
	call	??3@YAXPAX@Z				; operator delete
	pop	ecx
	ret	0
__ehhandler$?ReadAllAirframeData@@YAXXZ:
	mov	edx, DWORD PTR [esp+8]
	lea	eax, DWORD PTR [edx+12]
	mov	ecx, DWORD PTR [edx-844]
	xor	ecx, eax
	call	@__security_check_cookie@4
	mov	ecx, DWORD PTR [edx-4]
	xor	ecx, eax
	call	@__security_check_cookie@4
	mov	eax, OFFSET __ehfuncinfo$?ReadAllAirframeData@@YAXXZ
	jmp	___CxxFrameHandler3
text$x	ENDS
?ReadAllAirframeData@@YAXXZ ENDP			; ReadAllAirframeData
; Function compile flags: /Odtp
;	COMDAT ??_EAeroDataSet@@QAEPAXI@Z
_TEXT	SEGMENT
_this$ = -4						; size = 4
___flags$ = 8						; size = 4
??_EAeroDataSet@@QAEPAXI@Z PROC				; AeroDataSet::`vector deleting destructor', COMDAT
; _this$ = ecx
	push	ebp
	mov	ebp, esp
	push	ecx
	mov	DWORD PTR _this$[ebp], ecx
	mov	eax, DWORD PTR ___flags$[ebp]
	and	eax, 2
	je	SHORT $LN3@vector
	push	OFFSET ??1AeroDataSet@@QAE@XZ		; AeroDataSet::~AeroDataSet
	mov	ecx, DWORD PTR _this$[ebp]
	mov	edx, DWORD PTR [ecx-4]
	push	edx
	push	220					; 000000dcH
	mov	eax, DWORD PTR _this$[ebp]
	push	eax
	call	??_M@YGXPAXIHP6EX0@Z@Z
	mov	ecx, DWORD PTR ___flags$[ebp]
	and	ecx, 1
	je	SHORT $LN2@vector
	mov	edx, DWORD PTR _this$[ebp]
	sub	edx, 4
	push	edx
	call	??_V@YAXPAX@Z				; operator delete[]
	add	esp, 4
$LN2@vector:
	mov	eax, DWORD PTR _this$[ebp]
	sub	eax, 4
	jmp	SHORT $LN4@vector
$LN3@vector:
	mov	ecx, DWORD PTR _this$[ebp]
	call	??1AeroDataSet@@QAE@XZ			; AeroDataSet::~AeroDataSet
	mov	eax, DWORD PTR ___flags$[ebp]
	and	eax, 1
	je	SHORT $LN1@vector
	mov	ecx, DWORD PTR _this$[ebp]
	push	ecx
	call	??3@YAXPAX@Z				; operator delete
	add	esp, 4
$LN1@vector:
	mov	eax, DWORD PTR _this$[ebp]
$LN4@vector:
	mov	esp, ebp
	pop	ebp
	ret	4
??_EAeroDataSet@@QAEPAXI@Z ENDP				; AeroDataSet::`vector deleting destructor'
_TEXT	ENDS
; Function compile flags: /Odtp
; File c:\users\zhitao li\documents\visual studio 2012\projects\freefalcon\sim\airframe\readin.cpp
_TEXT	SEGMENT
tv87 = -52						; size = 4
$T1 = -48						; size = 4
tv81 = -44						; size = 4
$T2 = -40						; size = 4
tv75 = -36						; size = 4
$T3 = -32						; size = 4
tv69 = -28						; size = 4
$T4 = -24						; size = 4
$T5 = -20						; size = 4
$T6 = -16						; size = 4
$T7 = -12						; size = 4
$T8 = -8						; size = 4
_this$ = -4						; size = 4
??1AeroDataSet@@QAE@XZ PROC				; AeroDataSet::~AeroDataSet
; _this$ = ecx

; 52   : {

	push	ebp
	mov	ebp, esp
	sub	esp, 52					; 00000034H
	mov	DWORD PTR _this$[ebp], ecx

; 53   : 	delete fcsData; 

	mov	eax, DWORD PTR _this$[ebp]
	mov	ecx, DWORD PTR [eax]
	mov	DWORD PTR $T4[ebp], ecx
	mov	edx, DWORD PTR $T4[ebp]
	mov	DWORD PTR $T8[ebp], edx
	cmp	DWORD PTR $T8[ebp], 0
	je	SHORT $LN3@AeroDataSe
	push	1
	mov	ecx, DWORD PTR $T8[ebp]
	call	??_GRollData@@QAEPAXI@Z
	mov	DWORD PTR tv69[ebp], eax
	jmp	SHORT $LN4@AeroDataSe
$LN3@AeroDataSe:
	mov	DWORD PTR tv69[ebp], 0
$LN4@AeroDataSe:

; 54   : 	delete aeroData;

	mov	eax, DWORD PTR _this$[ebp]
	mov	ecx, DWORD PTR [eax+4]
	mov	DWORD PTR $T3[ebp], ecx
	mov	edx, DWORD PTR $T3[ebp]
	mov	DWORD PTR $T7[ebp], edx
	cmp	DWORD PTR $T7[ebp], 0
	je	SHORT $LN5@AeroDataSe
	push	1
	mov	ecx, DWORD PTR $T7[ebp]
	call	??_GAeroData@@QAEPAXI@Z
	mov	DWORD PTR tv75[ebp], eax
	jmp	SHORT $LN6@AeroDataSe
$LN5@AeroDataSe:
	mov	DWORD PTR tv75[ebp], 0
$LN6@AeroDataSe:

; 55   : 	delete auxaeroData; // JB 010714 

	mov	eax, DWORD PTR _this$[ebp]
	mov	ecx, DWORD PTR [eax+8]
	mov	DWORD PTR $T2[ebp], ecx
	mov	edx, DWORD PTR $T2[ebp]
	mov	DWORD PTR $T6[ebp], edx
	cmp	DWORD PTR $T6[ebp], 0
	je	SHORT $LN7@AeroDataSe
	push	1
	mov	ecx, DWORD PTR $T6[ebp]
	call	??_GAuxAeroData@@QAEPAXI@Z
	mov	DWORD PTR tv81[ebp], eax
	jmp	SHORT $LN8@AeroDataSe
$LN7@AeroDataSe:
	mov	DWORD PTR tv81[ebp], 0
$LN8@AeroDataSe:

; 56   : 	delete engineData; 

	mov	eax, DWORD PTR _this$[ebp]
	mov	ecx, DWORD PTR [eax+12]
	mov	DWORD PTR $T1[ebp], ecx
	mov	edx, DWORD PTR $T1[ebp]
	mov	DWORD PTR $T5[ebp], edx
	cmp	DWORD PTR $T5[ebp], 0
	je	SHORT $LN9@AeroDataSe
	push	1
	mov	ecx, DWORD PTR $T5[ebp]
	call	??_GEngineData@@QAEPAXI@Z
	mov	DWORD PTR tv87[ebp], eax
	jmp	SHORT $LN1@AeroDataSe
$LN9@AeroDataSe:
	mov	DWORD PTR tv87[ebp], 0
$LN1@AeroDataSe:

; 57   : }

	mov	esp, ebp
	pop	ebp
	ret	0
??1AeroDataSet@@QAE@XZ ENDP				; AeroDataSet::~AeroDataSet
_TEXT	ENDS
; Function compile flags: /Odtp
; File c:\program files (x86)\microsoft visual studio 11.0\vc\include\xutility
;	COMDAT ??__Eallocator_arg@std@@YAXXZ
text$yc	SEGMENT
$T1 = -1						; size = 1
??__Eallocator_arg@std@@YAXXZ PROC			; std::`dynamic initializer for 'allocator_arg'', COMDAT

; 3644 : const allocator_arg_t allocator_arg = allocator_arg_t();

	push	ebp
	mov	ebp, esp
	push	ecx
	xor	eax, eax
	mov	BYTE PTR $T1[ebp], al
	mov	esp, ebp
	pop	ebp
	ret	0
??__Eallocator_arg@std@@YAXXZ ENDP			; std::`dynamic initializer for 'allocator_arg''
text$yc	ENDS
; Function compile flags: /Odtp
; File c:\program files (x86)\microsoft visual studio 11.0\vc\include\utility
;	COMDAT ??__Epiecewise_construct@std@@YAXXZ
text$yc	SEGMENT
$T1 = -1						; size = 1
??__Epiecewise_construct@std@@YAXXZ PROC		; std::`dynamic initializer for 'piecewise_construct'', COMDAT

; 65   : 	piecewise_construct_t();

	push	ebp
	mov	ebp, esp
	push	ecx
	xor	eax, eax
	mov	BYTE PTR $T1[ebp], al
	mov	esp, ebp
	pop	ebp
	ret	0
??__Epiecewise_construct@std@@YAXXZ ENDP		; std::`dynamic initializer for 'piecewise_construct''
text$yc	ENDS
; Function compile flags: /Odtp
; File c:\users\zhitao li\documents\visual studio 2012\projects\freefalcon\mathlib\math.h
_TEXT	SEGMENT
_x$ = 8							; size = 4
?FloatToInt32@@YAHM@Z PROC				; FloatToInt32

; 179  : {

	push	ebp
	mov	ebp, esp

; 180  : #if WIN32
; 181  :   __asm {
; 182  :     fld dword ptr [x];

	fld	DWORD PTR _x$[ebp]

; 183  :     fistp dword ptr [x];

	fistp	DWORD PTR _x$[ebp]

; 184  :     mov eax,dword ptr [x];

	mov	eax, DWORD PTR _x$[ebp]

; 185  :   }
; 186  : #else 
; 187  : 	return static_cast<int>(x);	
; 188  : #endif
; 189  : }

	pop	ebp
	ret	0
?FloatToInt32@@YAHM@Z ENDP				; FloatToInt32
_TEXT	ENDS
END
