; Listing generated by Microsoft (R) Optimizing Compiler Version 17.00.51106.1 

	TITLE	C:\Users\Zhitao Li\Documents\Visual Studio 2012\Projects\Freefalcon\SIM\Aircraft\Damage.cpp
	.686P
	.XMM
	include listing.inc
	.model	flat

INCLUDELIB LIBCMT
INCLUDELIB OLDNAMES

PUBLIC	?traps@_Num_base@std@@2_NB			; std::_Num_base::traps
PUBLIC	?round_style@_Num_base@std@@2W4float_round_style@2@B ; std::_Num_base::round_style
PUBLIC	?digits@_Num_base@std@@2HB			; std::_Num_base::digits
PUBLIC	?digits10@_Num_base@std@@2HB			; std::_Num_base::digits10
PUBLIC	?table_size@?$ctype@D@std@@2IB			; std::ctype<char>::table_size
PUBLIC	?max_digits10@_Num_base@std@@2HB		; std::_Num_base::max_digits10
PUBLIC	?max_exponent@_Num_base@std@@2HB		; std::_Num_base::max_exponent
PUBLIC	?max_exponent10@_Num_base@std@@2HB		; std::_Num_base::max_exponent10
PUBLIC	?min_exponent@_Num_base@std@@2HB		; std::_Num_base::min_exponent
PUBLIC	?min_exponent10@_Num_base@std@@2HB		; std::_Num_base::min_exponent10
PUBLIC	?radix@_Num_base@std@@2HB			; std::_Num_base::radix
PUBLIC	?is_bounded@_Num_int_base@std@@2_NB		; std::_Num_int_base::is_bounded
PUBLIC	?is_exact@_Num_int_base@std@@2_NB		; std::_Num_int_base::is_exact
PUBLIC	?is_integer@_Num_int_base@std@@2_NB		; std::_Num_int_base::is_integer
PUBLIC	?is_modulo@_Num_int_base@std@@2_NB		; std::_Num_int_base::is_modulo
PUBLIC	?is_specialized@_Num_int_base@std@@2_NB		; std::_Num_int_base::is_specialized
PUBLIC	?radix@_Num_int_base@std@@2HB			; std::_Num_int_base::radix
PUBLIC	?has_denorm@_Num_float_base@std@@2W4float_denorm_style@2@B ; std::_Num_float_base::has_denorm
PUBLIC	?has_denorm_loss@_Num_float_base@std@@2_NB	; std::_Num_float_base::has_denorm_loss
PUBLIC	?SIMDIRTYDATA_INTERVAL@FalconEntity@@2KB	; FalconEntity::SIMDIRTYDATA_INTERVAL
PUBLIC	?CMPDIRTYDATA_INTERVAL@FalconEntity@@2KB	; FalconEntity::CMPDIRTYDATA_INTERVAL
PUBLIC	?has_infinity@_Num_float_base@std@@2_NB		; std::_Num_float_base::has_infinity
PUBLIC	?has_quiet_NaN@_Num_float_base@std@@2_NB	; std::_Num_float_base::has_quiet_NaN
PUBLIC	?has_signaling_NaN@_Num_float_base@std@@2_NB	; std::_Num_float_base::has_signaling_NaN
PUBLIC	?is_bounded@_Num_float_base@std@@2_NB		; std::_Num_float_base::is_bounded
PUBLIC	?is_exact@_Num_float_base@std@@2_NB		; std::_Num_float_base::is_exact
PUBLIC	?is_iec559@_Num_float_base@std@@2_NB		; std::_Num_float_base::is_iec559
PUBLIC	?is_integer@_Num_float_base@std@@2_NB		; std::_Num_float_base::is_integer
PUBLIC	?is_modulo@_Num_float_base@std@@2_NB		; std::_Num_float_base::is_modulo
PUBLIC	?is_signed@_Num_float_base@std@@2_NB		; std::_Num_float_base::is_signed
PUBLIC	?is_specialized@_Num_float_base@std@@2_NB	; std::_Num_float_base::is_specialized
PUBLIC	?tinyness_before@_Num_float_base@std@@2_NB	; std::_Num_float_base::tinyness_before
PUBLIC	?traps@_Num_float_base@std@@2_NB		; std::_Num_float_base::traps
PUBLIC	?round_style@_Num_float_base@std@@2W4float_round_style@2@B ; std::_Num_float_base::round_style
PUBLIC	?radix@_Num_float_base@std@@2HB			; std::_Num_float_base::radix
PUBLIC	?is_signed@?$numeric_limits@D@std@@2_NB		; std::numeric_limits<char>::is_signed
PUBLIC	?digits@?$numeric_limits@D@std@@2HB		; std::numeric_limits<char>::digits
PUBLIC	?digits10@?$numeric_limits@D@std@@2HB		; std::numeric_limits<char>::digits10
PUBLIC	?is_signed@?$numeric_limits@_W@std@@2_NB	; std::numeric_limits<wchar_t>::is_signed
PUBLIC	?digits@?$numeric_limits@_W@std@@2HB		; std::numeric_limits<wchar_t>::digits
PUBLIC	?digits10@?$numeric_limits@_W@std@@2HB		; std::numeric_limits<wchar_t>::digits10
PUBLIC	?is_modulo@?$numeric_limits@_N@std@@2_NB	; std::numeric_limits<bool>::is_modulo
PUBLIC	?is_signed@?$numeric_limits@_N@std@@2_NB	; std::numeric_limits<bool>::is_signed
PUBLIC	?digits@?$numeric_limits@_N@std@@2HB		; std::numeric_limits<bool>::digits
PUBLIC	?digits10@?$numeric_limits@_N@std@@2HB		; std::numeric_limits<bool>::digits10
PUBLIC	?is_signed@?$numeric_limits@C@std@@2_NB		; std::numeric_limits<signed char>::is_signed
PUBLIC	?digits@?$numeric_limits@C@std@@2HB		; std::numeric_limits<signed char>::digits
PUBLIC	?digits10@?$numeric_limits@C@std@@2HB		; std::numeric_limits<signed char>::digits10
PUBLIC	?is_signed@?$numeric_limits@E@std@@2_NB		; std::numeric_limits<unsigned char>::is_signed
PUBLIC	?value@?$integral_constant@_N$0A@@std@@2_NB	; std::integral_constant<bool,0>::value
PUBLIC	?digits@?$numeric_limits@E@std@@2HB		; std::numeric_limits<unsigned char>::digits
PUBLIC	?digits10@?$numeric_limits@E@std@@2HB		; std::numeric_limits<unsigned char>::digits10
PUBLIC	?value@?$integral_constant@_N$00@std@@2_NB	; std::integral_constant<bool,1>::value
PUBLIC	?is_signed@?$numeric_limits@F@std@@2_NB		; std::numeric_limits<short>::is_signed
PUBLIC	?digits@?$numeric_limits@F@std@@2HB		; std::numeric_limits<short>::digits
PUBLIC	?digits10@?$numeric_limits@F@std@@2HB		; std::numeric_limits<short>::digits10
PUBLIC	?flag_keep_smoke_trails@@3HA			; flag_keep_smoke_trails
PUBLIC	?minwingvortexalt@@3MA				; minwingvortexalt
PUBLIC	?maxwingvortexalt@@3MA				; maxwingvortexalt
PUBLIC	?wingvortexAlpha@@3MA				; wingvortexAlpha
PUBLIC	?wingvortexgs@@3MA				; wingvortexgs
PUBLIC	?wingvortexAlphaHigh@@3MA			; wingvortexAlphaHigh
PUBLIC	?wingvortexAlphaLimit@@3MA			; wingvortexAlphaLimit
PUBLIC	?wingvtxTrailSizeCx@@3MA			; wingvtxTrailSizeCx
PUBLIC	?wingvtxTrailAlphaCx@@3MA			; wingvtxTrailAlphaCx
PUBLIC	?is_signed@?$numeric_limits@G@std@@2_NB		; std::numeric_limits<unsigned short>::is_signed
PUBLIC	?vortexAOA@@3MA					; vortexAOA
PUBLIC	?vortexAOALimit@@3MA				; vortexAOALimit
PUBLIC	?vortexMinSpeedLimit@@3MA			; vortexMinSpeedLimit
PUBLIC	?vortexMaxaltLimit@@3MA				; vortexMaxaltLimit
PUBLIC	?digits@?$numeric_limits@G@std@@2HB		; std::numeric_limits<unsigned short>::digits
PUBLIC	?vortexG@@3MA					; vortexG
PUBLIC	?vortex1AlphaCx@@3MA				; vortex1AlphaCx
PUBLIC	?vortex1SizeCx@@3MA				; vortex1SizeCx
PUBLIC	?vortex2AlphaCx@@3MA				; vortex2AlphaCx
PUBLIC	?vortex2SizeCx@@3MA				; vortex2SizeCx
PUBLIC	?digits10@?$numeric_limits@G@std@@2HB		; std::numeric_limits<unsigned short>::digits10
PUBLIC	?engineTrailSize@@3MA				; engineTrailSize
PUBLIC	?engineTrailAlpha@@3MA				; engineTrailAlpha
PUBLIC	?engineTrailMargin@@3MA				; engineTrailMargin
PUBLIC	?engineTrailRPMFactor@@3MA			; engineTrailRPMFactor
PUBLIC	?damageTrailSizeCx@@3MA				; damageTrailSizeCx
PUBLIC	?damageTrailAlphaCx@@3MA			; damageTrailAlphaCx
PUBLIC	?contrailMargin@@3MA				; contrailMargin
PUBLIC	?contrailLowValue@@3MA				; contrailLowValue
PUBLIC	?contrailHighValue@@3MA				; contrailHighValue
PUBLIC	?contrailLow10Percent@@3MA			; contrailLow10Percent
PUBLIC	?contrailLow90Percent@@3MA			; contrailLow90Percent
PUBLIC	?contrailHigh110Percent@@3MA			; contrailHigh110Percent
PUBLIC	?orientation@@3PAUTrotation@@A			; orientation
PUBLIC	?is_signed@?$numeric_limits@H@std@@2_NB		; std::numeric_limits<int>::is_signed
PUBLIC	?value@?$_Sizeof@HU_Nil@std@@U12@U12@U12@U12@U12@U12@@std@@2IB ; std::_Sizeof<int,std::_Nil,std::_Nil,std::_Nil,std::_Nil,std::_Nil,std::_Nil,std::_Nil>::value
PUBLIC	?digits@?$numeric_limits@H@std@@2HB		; std::numeric_limits<int>::digits
PUBLIC	?digits10@?$numeric_limits@H@std@@2HB		; std::numeric_limits<int>::digits10
PUBLIC	?is_signed@?$numeric_limits@I@std@@2_NB		; std::numeric_limits<unsigned int>::is_signed
PUBLIC	?digits@?$numeric_limits@I@std@@2HB		; std::numeric_limits<unsigned int>::digits
PUBLIC	?digits10@?$numeric_limits@I@std@@2HB		; std::numeric_limits<unsigned int>::digits10
PUBLIC	?skipws@?$_Iosb@H@std@@2W4_Fmtflags@12@B	; std::_Iosb<int>::skipws
PUBLIC	?unitbuf@?$_Iosb@H@std@@2W4_Fmtflags@12@B	; std::_Iosb<int>::unitbuf
PUBLIC	?uppercase@?$_Iosb@H@std@@2W4_Fmtflags@12@B	; std::_Iosb<int>::uppercase
PUBLIC	?showbase@?$_Iosb@H@std@@2W4_Fmtflags@12@B	; std::_Iosb<int>::showbase
PUBLIC	?is_signed@?$numeric_limits@J@std@@2_NB		; std::numeric_limits<long>::is_signed
PUBLIC	?showpoint@?$_Iosb@H@std@@2W4_Fmtflags@12@B	; std::_Iosb<int>::showpoint
PUBLIC	?digits@?$numeric_limits@J@std@@2HB		; std::numeric_limits<long>::digits
PUBLIC	?showpos@?$_Iosb@H@std@@2W4_Fmtflags@12@B	; std::_Iosb<int>::showpos
PUBLIC	?digits10@?$numeric_limits@J@std@@2HB		; std::numeric_limits<long>::digits10
PUBLIC	?left@?$_Iosb@H@std@@2W4_Fmtflags@12@B		; std::_Iosb<int>::left
PUBLIC	?right@?$_Iosb@H@std@@2W4_Fmtflags@12@B		; std::_Iosb<int>::right
PUBLIC	?internal@?$_Iosb@H@std@@2W4_Fmtflags@12@B	; std::_Iosb<int>::internal
PUBLIC	?dec@?$_Iosb@H@std@@2W4_Fmtflags@12@B		; std::_Iosb<int>::dec
PUBLIC	?oct@?$_Iosb@H@std@@2W4_Fmtflags@12@B		; std::_Iosb<int>::oct
PUBLIC	?hex@?$_Iosb@H@std@@2W4_Fmtflags@12@B		; std::_Iosb<int>::hex
PUBLIC	?scientific@?$_Iosb@H@std@@2W4_Fmtflags@12@B	; std::_Iosb<int>::scientific
PUBLIC	?fixed@?$_Iosb@H@std@@2W4_Fmtflags@12@B		; std::_Iosb<int>::fixed
PUBLIC	?hexfloat@?$_Iosb@H@std@@2W4_Fmtflags@12@B	; std::_Iosb<int>::hexfloat
PUBLIC	?boolalpha@?$_Iosb@H@std@@2W4_Fmtflags@12@B	; std::_Iosb<int>::boolalpha
PUBLIC	?is_signed@?$numeric_limits@K@std@@2_NB		; std::numeric_limits<unsigned long>::is_signed
PUBLIC	?_Stdio@?$_Iosb@H@std@@2W4_Fmtflags@12@B	; std::_Iosb<int>::_Stdio
PUBLIC	?adjustfield@?$_Iosb@H@std@@2W4_Fmtflags@12@B	; std::_Iosb<int>::adjustfield
PUBLIC	?digits@?$numeric_limits@K@std@@2HB		; std::numeric_limits<unsigned long>::digits
PUBLIC	?basefield@?$_Iosb@H@std@@2W4_Fmtflags@12@B	; std::_Iosb<int>::basefield
PUBLIC	?digits10@?$numeric_limits@K@std@@2HB		; std::numeric_limits<unsigned long>::digits10
PUBLIC	?floatfield@?$_Iosb@H@std@@2W4_Fmtflags@12@B	; std::_Iosb<int>::floatfield
PUBLIC	?goodbit@?$_Iosb@H@std@@2W4_Iostate@12@B	; std::_Iosb<int>::goodbit
PUBLIC	?eofbit@?$_Iosb@H@std@@2W4_Iostate@12@B		; std::_Iosb<int>::eofbit
PUBLIC	?failbit@?$_Iosb@H@std@@2W4_Iostate@12@B	; std::_Iosb<int>::failbit
PUBLIC	?badbit@?$_Iosb@H@std@@2W4_Iostate@12@B		; std::_Iosb<int>::badbit
PUBLIC	?_Hardfail@?$_Iosb@H@std@@2W4_Iostate@12@B	; std::_Iosb<int>::_Hardfail
PUBLIC	?in@?$_Iosb@H@std@@2W4_Openmode@12@B		; std::_Iosb<int>::in
PUBLIC	?out@?$_Iosb@H@std@@2W4_Openmode@12@B		; std::_Iosb<int>::out
PUBLIC	?ate@?$_Iosb@H@std@@2W4_Openmode@12@B		; std::_Iosb<int>::ate
PUBLIC	?is_signed@?$numeric_limits@_J@std@@2_NB	; std::numeric_limits<__int64>::is_signed
PUBLIC	?app@?$_Iosb@H@std@@2W4_Openmode@12@B		; std::_Iosb<int>::app
PUBLIC	?digits@?$numeric_limits@_J@std@@2HB		; std::numeric_limits<__int64>::digits
PUBLIC	?trunc@?$_Iosb@H@std@@2W4_Openmode@12@B		; std::_Iosb<int>::trunc
PUBLIC	?digits10@?$numeric_limits@_J@std@@2HB		; std::numeric_limits<__int64>::digits10
PUBLIC	?_Nocreate@?$_Iosb@H@std@@2W4_Openmode@12@B	; std::_Iosb<int>::_Nocreate
PUBLIC	?_Noreplace@?$_Iosb@H@std@@2W4_Openmode@12@B	; std::_Iosb<int>::_Noreplace
PUBLIC	?binary@?$_Iosb@H@std@@2W4_Openmode@12@B	; std::_Iosb<int>::binary
PUBLIC	?beg@?$_Iosb@H@std@@2W4_Seekdir@12@B		; std::_Iosb<int>::beg
PUBLIC	?cur@?$_Iosb@H@std@@2W4_Seekdir@12@B		; std::_Iosb<int>::cur
PUBLIC	?end@?$_Iosb@H@std@@2W4_Seekdir@12@B		; std::_Iosb<int>::end
PUBLIC	?is_signed@?$numeric_limits@_K@std@@2_NB	; std::numeric_limits<unsigned __int64>::is_signed
PUBLIC	?digits@?$numeric_limits@_K@std@@2HB		; std::numeric_limits<unsigned __int64>::digits
PUBLIC	?digits10@?$numeric_limits@_K@std@@2HB		; std::numeric_limits<unsigned __int64>::digits10
PUBLIC	?_Stream_err@failure@ios_base@std@@0W4io_errc@43@B ; std::ios_base::failure::_Stream_err
PUBLIC	?digits@?$numeric_limits@M@std@@2HB		; std::numeric_limits<float>::digits
PUBLIC	?digits10@?$numeric_limits@M@std@@2HB		; std::numeric_limits<float>::digits10
PUBLIC	?max_digits10@?$numeric_limits@M@std@@2HB	; std::numeric_limits<float>::max_digits10
PUBLIC	?max_exponent@?$numeric_limits@M@std@@2HB	; std::numeric_limits<float>::max_exponent
PUBLIC	?max_exponent10@?$numeric_limits@M@std@@2HB	; std::numeric_limits<float>::max_exponent10
PUBLIC	?min_exponent@?$numeric_limits@M@std@@2HB	; std::numeric_limits<float>::min_exponent
PUBLIC	?min_exponent10@?$numeric_limits@M@std@@2HB	; std::numeric_limits<float>::min_exponent10
PUBLIC	?value@?$integral_constant@I$0A@@std@@2IB	; std::integral_constant<unsigned int,0>::value
PUBLIC	?digits@?$numeric_limits@N@std@@2HB		; std::numeric_limits<double>::digits
PUBLIC	?digits10@?$numeric_limits@N@std@@2HB		; std::numeric_limits<double>::digits10
PUBLIC	?max_digits10@?$numeric_limits@N@std@@2HB	; std::numeric_limits<double>::max_digits10
PUBLIC	?max_exponent@?$numeric_limits@N@std@@2HB	; std::numeric_limits<double>::max_exponent
PUBLIC	?max_exponent10@?$numeric_limits@N@std@@2HB	; std::numeric_limits<double>::max_exponent10
PUBLIC	?min_exponent@?$numeric_limits@N@std@@2HB	; std::numeric_limits<double>::min_exponent
PUBLIC	?min_exponent10@?$numeric_limits@N@std@@2HB	; std::numeric_limits<double>::min_exponent10
PUBLIC	?digits@?$numeric_limits@O@std@@2HB		; std::numeric_limits<long double>::digits
PUBLIC	?digits10@?$numeric_limits@O@std@@2HB		; std::numeric_limits<long double>::digits10
PUBLIC	?max_digits10@?$numeric_limits@O@std@@2HB	; std::numeric_limits<long double>::max_digits10
PUBLIC	?max_exponent@?$numeric_limits@O@std@@2HB	; std::numeric_limits<long double>::max_exponent
PUBLIC	?max_exponent10@?$numeric_limits@O@std@@2HB	; std::numeric_limits<long double>::max_exponent10
PUBLIC	?min_exponent@?$numeric_limits@O@std@@2HB	; std::numeric_limits<long double>::min_exponent
PUBLIC	?min_exponent10@?$numeric_limits@O@std@@2HB	; std::numeric_limits<long double>::min_exponent10
PUBLIC	?value@?$_Sizeof@U_Nil@std@@U12@U12@U12@U12@U12@U12@U12@@std@@2IB ; std::_Sizeof<std::_Nil,std::_Nil,std::_Nil,std::_Nil,std::_Nil,std::_Nil,std::_Nil,std::_Nil>::value
PUBLIC	?collate@?$_Locbase@H@std@@2HB			; std::_Locbase<int>::collate
PUBLIC	?ctype@?$_Locbase@H@std@@2HB			; std::_Locbase<int>::ctype
PUBLIC	?monetary@?$_Locbase@H@std@@2HB			; std::_Locbase<int>::monetary
PUBLIC	?numeric@?$_Locbase@H@std@@2HB			; std::_Locbase<int>::numeric
PUBLIC	?time@?$_Locbase@H@std@@2HB			; std::_Locbase<int>::time
PUBLIC	?messages@?$_Locbase@H@std@@2HB			; std::_Locbase<int>::messages
PUBLIC	?all@?$_Locbase@H@std@@2HB			; std::_Locbase<int>::all
PUBLIC	?none@?$_Locbase@H@std@@2HB			; std::_Locbase<int>::none
PUBLIC	?has_denorm@_Num_base@std@@2W4float_denorm_style@2@B ; std::_Num_base::has_denorm
PUBLIC	?has_denorm_loss@_Num_base@std@@2_NB		; std::_Num_base::has_denorm_loss
PUBLIC	?has_infinity@_Num_base@std@@2_NB		; std::_Num_base::has_infinity
PUBLIC	?has_quiet_NaN@_Num_base@std@@2_NB		; std::_Num_base::has_quiet_NaN
PUBLIC	?has_signaling_NaN@_Num_base@std@@2_NB		; std::_Num_base::has_signaling_NaN
PUBLIC	?is_bounded@_Num_base@std@@2_NB			; std::_Num_base::is_bounded
PUBLIC	?is_exact@_Num_base@std@@2_NB			; std::_Num_base::is_exact
PUBLIC	?is_iec559@_Num_base@std@@2_NB			; std::_Num_base::is_iec559
PUBLIC	?is_integer@_Num_base@std@@2_NB			; std::_Num_base::is_integer
PUBLIC	?is_modulo@_Num_base@std@@2_NB			; std::_Num_base::is_modulo
PUBLIC	?is_signed@_Num_base@std@@2_NB			; std::_Num_base::is_signed
PUBLIC	?is_specialized@_Num_base@std@@2_NB		; std::_Num_base::is_specialized
PUBLIC	?tinyness_before@_Num_base@std@@2_NB		; std::_Num_base::tinyness_before
_BSS	SEGMENT
?flag_keep_smoke_trails@@3HA DD 01H DUP (?)		; flag_keep_smoke_trails
?minwingvortexalt@@3MA DD 01H DUP (?)			; minwingvortexalt
?vortex1AlphaCx@@3MA DD 01H DUP (?)			; vortex1AlphaCx
?vortex1SizeCx@@3MA DD 01H DUP (?)			; vortex1SizeCx
?vortex2AlphaCx@@3MA DD 01H DUP (?)			; vortex2AlphaCx
?vortex2SizeCx@@3MA DD 01H DUP (?)			; vortex2SizeCx
?contrailLowValue@@3MA DD 01H DUP (?)			; contrailLowValue
?contrailHighValue@@3MA DD 01H DUP (?)			; contrailHighValue
?contrailLow10Percent@@3MA DD 01H DUP (?)		; contrailLow10Percent
?contrailLow90Percent@@3MA DD 01H DUP (?)		; contrailLow90Percent
?contrailHigh110Percent@@3MA DD 01H DUP (?)		; contrailHigh110Percent
?orientation@@3PAUTrotation@@A DD 01H DUP (?)		; orientation
_BSS	ENDS
;	COMDAT ?tinyness_before@_Num_base@std@@2_NB
CONST	SEGMENT
?tinyness_before@_Num_base@std@@2_NB DB 00H		; std::_Num_base::tinyness_before
CONST	ENDS
;	COMDAT ?is_specialized@_Num_base@std@@2_NB
CONST	SEGMENT
?is_specialized@_Num_base@std@@2_NB DB 00H		; std::_Num_base::is_specialized
CONST	ENDS
;	COMDAT ?is_signed@_Num_base@std@@2_NB
CONST	SEGMENT
?is_signed@_Num_base@std@@2_NB DB 00H			; std::_Num_base::is_signed
CONST	ENDS
;	COMDAT ?is_modulo@_Num_base@std@@2_NB
CONST	SEGMENT
?is_modulo@_Num_base@std@@2_NB DB 00H			; std::_Num_base::is_modulo
CONST	ENDS
;	COMDAT ?is_integer@_Num_base@std@@2_NB
CONST	SEGMENT
?is_integer@_Num_base@std@@2_NB DB 00H			; std::_Num_base::is_integer
CONST	ENDS
;	COMDAT ?is_iec559@_Num_base@std@@2_NB
CONST	SEGMENT
?is_iec559@_Num_base@std@@2_NB DB 00H			; std::_Num_base::is_iec559
CONST	ENDS
;	COMDAT ?is_exact@_Num_base@std@@2_NB
CONST	SEGMENT
?is_exact@_Num_base@std@@2_NB DB 00H			; std::_Num_base::is_exact
CONST	ENDS
;	COMDAT ?is_bounded@_Num_base@std@@2_NB
CONST	SEGMENT
?is_bounded@_Num_base@std@@2_NB DB 00H			; std::_Num_base::is_bounded
CONST	ENDS
;	COMDAT ?has_signaling_NaN@_Num_base@std@@2_NB
CONST	SEGMENT
?has_signaling_NaN@_Num_base@std@@2_NB DB 00H		; std::_Num_base::has_signaling_NaN
CONST	ENDS
;	COMDAT ?has_quiet_NaN@_Num_base@std@@2_NB
CONST	SEGMENT
?has_quiet_NaN@_Num_base@std@@2_NB DB 00H		; std::_Num_base::has_quiet_NaN
CONST	ENDS
;	COMDAT ?has_infinity@_Num_base@std@@2_NB
CONST	SEGMENT
?has_infinity@_Num_base@std@@2_NB DB 00H		; std::_Num_base::has_infinity
CONST	ENDS
;	COMDAT ?has_denorm_loss@_Num_base@std@@2_NB
CONST	SEGMENT
?has_denorm_loss@_Num_base@std@@2_NB DB 00H		; std::_Num_base::has_denorm_loss
CONST	ENDS
;	COMDAT ?has_denorm@_Num_base@std@@2W4float_denorm_style@2@B
CONST	SEGMENT
?has_denorm@_Num_base@std@@2W4float_denorm_style@2@B DD 00H ; std::_Num_base::has_denorm
CONST	ENDS
;	COMDAT ?none@?$_Locbase@H@std@@2HB
CONST	SEGMENT
?none@?$_Locbase@H@std@@2HB DD 00H			; std::_Locbase<int>::none
CONST	ENDS
;	COMDAT ?all@?$_Locbase@H@std@@2HB
CONST	SEGMENT
?all@?$_Locbase@H@std@@2HB DD 03fH			; std::_Locbase<int>::all
CONST	ENDS
;	COMDAT ?messages@?$_Locbase@H@std@@2HB
CONST	SEGMENT
?messages@?$_Locbase@H@std@@2HB DD 020H			; std::_Locbase<int>::messages
CONST	ENDS
;	COMDAT ?time@?$_Locbase@H@std@@2HB
CONST	SEGMENT
?time@?$_Locbase@H@std@@2HB DD 010H			; std::_Locbase<int>::time
CONST	ENDS
;	COMDAT ?numeric@?$_Locbase@H@std@@2HB
CONST	SEGMENT
?numeric@?$_Locbase@H@std@@2HB DD 08H			; std::_Locbase<int>::numeric
CONST	ENDS
;	COMDAT ?monetary@?$_Locbase@H@std@@2HB
CONST	SEGMENT
?monetary@?$_Locbase@H@std@@2HB DD 04H			; std::_Locbase<int>::monetary
CONST	ENDS
;	COMDAT ?ctype@?$_Locbase@H@std@@2HB
CONST	SEGMENT
?ctype@?$_Locbase@H@std@@2HB DD 02H			; std::_Locbase<int>::ctype
CONST	ENDS
;	COMDAT ?collate@?$_Locbase@H@std@@2HB
CONST	SEGMENT
?collate@?$_Locbase@H@std@@2HB DD 01H			; std::_Locbase<int>::collate
CONST	ENDS
;	COMDAT ?value@?$_Sizeof@U_Nil@std@@U12@U12@U12@U12@U12@U12@U12@@std@@2IB
CONST	SEGMENT
?value@?$_Sizeof@U_Nil@std@@U12@U12@U12@U12@U12@U12@U12@@std@@2IB DD 00H ; std::_Sizeof<std::_Nil,std::_Nil,std::_Nil,std::_Nil,std::_Nil,std::_Nil,std::_Nil,std::_Nil>::value
CONST	ENDS
;	COMDAT ?min_exponent10@?$numeric_limits@O@std@@2HB
CONST	SEGMENT
?min_exponent10@?$numeric_limits@O@std@@2HB DD 0fffffecdH ; std::numeric_limits<long double>::min_exponent10
CONST	ENDS
;	COMDAT ?min_exponent@?$numeric_limits@O@std@@2HB
CONST	SEGMENT
?min_exponent@?$numeric_limits@O@std@@2HB DD 0fffffc03H	; std::numeric_limits<long double>::min_exponent
CONST	ENDS
;	COMDAT ?max_exponent10@?$numeric_limits@O@std@@2HB
CONST	SEGMENT
?max_exponent10@?$numeric_limits@O@std@@2HB DD 0134H	; std::numeric_limits<long double>::max_exponent10
CONST	ENDS
;	COMDAT ?max_exponent@?$numeric_limits@O@std@@2HB
CONST	SEGMENT
?max_exponent@?$numeric_limits@O@std@@2HB DD 0400H	; std::numeric_limits<long double>::max_exponent
CONST	ENDS
;	COMDAT ?max_digits10@?$numeric_limits@O@std@@2HB
CONST	SEGMENT
?max_digits10@?$numeric_limits@O@std@@2HB DD 011H	; std::numeric_limits<long double>::max_digits10
CONST	ENDS
;	COMDAT ?digits10@?$numeric_limits@O@std@@2HB
CONST	SEGMENT
?digits10@?$numeric_limits@O@std@@2HB DD 0fH		; std::numeric_limits<long double>::digits10
CONST	ENDS
;	COMDAT ?digits@?$numeric_limits@O@std@@2HB
CONST	SEGMENT
?digits@?$numeric_limits@O@std@@2HB DD 035H		; std::numeric_limits<long double>::digits
CONST	ENDS
;	COMDAT ?min_exponent10@?$numeric_limits@N@std@@2HB
CONST	SEGMENT
?min_exponent10@?$numeric_limits@N@std@@2HB DD 0fffffecdH ; std::numeric_limits<double>::min_exponent10
CONST	ENDS
;	COMDAT ?min_exponent@?$numeric_limits@N@std@@2HB
CONST	SEGMENT
?min_exponent@?$numeric_limits@N@std@@2HB DD 0fffffc03H	; std::numeric_limits<double>::min_exponent
CONST	ENDS
;	COMDAT ?max_exponent10@?$numeric_limits@N@std@@2HB
CONST	SEGMENT
?max_exponent10@?$numeric_limits@N@std@@2HB DD 0134H	; std::numeric_limits<double>::max_exponent10
CONST	ENDS
;	COMDAT ?max_exponent@?$numeric_limits@N@std@@2HB
CONST	SEGMENT
?max_exponent@?$numeric_limits@N@std@@2HB DD 0400H	; std::numeric_limits<double>::max_exponent
CONST	ENDS
;	COMDAT ?max_digits10@?$numeric_limits@N@std@@2HB
CONST	SEGMENT
?max_digits10@?$numeric_limits@N@std@@2HB DD 011H	; std::numeric_limits<double>::max_digits10
CONST	ENDS
;	COMDAT ?digits10@?$numeric_limits@N@std@@2HB
CONST	SEGMENT
?digits10@?$numeric_limits@N@std@@2HB DD 0fH		; std::numeric_limits<double>::digits10
CONST	ENDS
;	COMDAT ?digits@?$numeric_limits@N@std@@2HB
CONST	SEGMENT
?digits@?$numeric_limits@N@std@@2HB DD 035H		; std::numeric_limits<double>::digits
CONST	ENDS
;	COMDAT ?value@?$integral_constant@I$0A@@std@@2IB
CONST	SEGMENT
?value@?$integral_constant@I$0A@@std@@2IB DD 00H	; std::integral_constant<unsigned int,0>::value
CONST	ENDS
;	COMDAT ?min_exponent10@?$numeric_limits@M@std@@2HB
CONST	SEGMENT
?min_exponent10@?$numeric_limits@M@std@@2HB DD 0ffffffdbH ; std::numeric_limits<float>::min_exponent10
CONST	ENDS
;	COMDAT ?min_exponent@?$numeric_limits@M@std@@2HB
CONST	SEGMENT
?min_exponent@?$numeric_limits@M@std@@2HB DD 0ffffff83H	; std::numeric_limits<float>::min_exponent
CONST	ENDS
;	COMDAT ?max_exponent10@?$numeric_limits@M@std@@2HB
CONST	SEGMENT
?max_exponent10@?$numeric_limits@M@std@@2HB DD 026H	; std::numeric_limits<float>::max_exponent10
CONST	ENDS
;	COMDAT ?max_exponent@?$numeric_limits@M@std@@2HB
CONST	SEGMENT
?max_exponent@?$numeric_limits@M@std@@2HB DD 080H	; std::numeric_limits<float>::max_exponent
CONST	ENDS
;	COMDAT ?max_digits10@?$numeric_limits@M@std@@2HB
CONST	SEGMENT
?max_digits10@?$numeric_limits@M@std@@2HB DD 09H	; std::numeric_limits<float>::max_digits10
CONST	ENDS
;	COMDAT ?digits10@?$numeric_limits@M@std@@2HB
CONST	SEGMENT
?digits10@?$numeric_limits@M@std@@2HB DD 06H		; std::numeric_limits<float>::digits10
CONST	ENDS
;	COMDAT ?digits@?$numeric_limits@M@std@@2HB
CONST	SEGMENT
?digits@?$numeric_limits@M@std@@2HB DD 018H		; std::numeric_limits<float>::digits
CONST	ENDS
;	COMDAT ?_Stream_err@failure@ios_base@std@@0W4io_errc@43@B
CONST	SEGMENT
?_Stream_err@failure@ios_base@std@@0W4io_errc@43@B DD 01H ; std::ios_base::failure::_Stream_err
CONST	ENDS
;	COMDAT ?digits10@?$numeric_limits@_K@std@@2HB
CONST	SEGMENT
?digits10@?$numeric_limits@_K@std@@2HB DD 013H		; std::numeric_limits<unsigned __int64>::digits10
CONST	ENDS
;	COMDAT ?digits@?$numeric_limits@_K@std@@2HB
CONST	SEGMENT
?digits@?$numeric_limits@_K@std@@2HB DD 040H		; std::numeric_limits<unsigned __int64>::digits
CONST	ENDS
;	COMDAT ?is_signed@?$numeric_limits@_K@std@@2_NB
CONST	SEGMENT
?is_signed@?$numeric_limits@_K@std@@2_NB DB 00H		; std::numeric_limits<unsigned __int64>::is_signed
CONST	ENDS
;	COMDAT ?end@?$_Iosb@H@std@@2W4_Seekdir@12@B
CONST	SEGMENT
?end@?$_Iosb@H@std@@2W4_Seekdir@12@B DD 02H		; std::_Iosb<int>::end
CONST	ENDS
;	COMDAT ?cur@?$_Iosb@H@std@@2W4_Seekdir@12@B
CONST	SEGMENT
?cur@?$_Iosb@H@std@@2W4_Seekdir@12@B DD 01H		; std::_Iosb<int>::cur
CONST	ENDS
;	COMDAT ?beg@?$_Iosb@H@std@@2W4_Seekdir@12@B
CONST	SEGMENT
?beg@?$_Iosb@H@std@@2W4_Seekdir@12@B DD 00H		; std::_Iosb<int>::beg
CONST	ENDS
;	COMDAT ?binary@?$_Iosb@H@std@@2W4_Openmode@12@B
CONST	SEGMENT
?binary@?$_Iosb@H@std@@2W4_Openmode@12@B DD 020H	; std::_Iosb<int>::binary
CONST	ENDS
;	COMDAT ?_Noreplace@?$_Iosb@H@std@@2W4_Openmode@12@B
CONST	SEGMENT
?_Noreplace@?$_Iosb@H@std@@2W4_Openmode@12@B DD 080H	; std::_Iosb<int>::_Noreplace
CONST	ENDS
;	COMDAT ?_Nocreate@?$_Iosb@H@std@@2W4_Openmode@12@B
CONST	SEGMENT
?_Nocreate@?$_Iosb@H@std@@2W4_Openmode@12@B DD 040H	; std::_Iosb<int>::_Nocreate
CONST	ENDS
;	COMDAT ?digits10@?$numeric_limits@_J@std@@2HB
CONST	SEGMENT
?digits10@?$numeric_limits@_J@std@@2HB DD 012H		; std::numeric_limits<__int64>::digits10
CONST	ENDS
;	COMDAT ?trunc@?$_Iosb@H@std@@2W4_Openmode@12@B
CONST	SEGMENT
?trunc@?$_Iosb@H@std@@2W4_Openmode@12@B DD 010H		; std::_Iosb<int>::trunc
CONST	ENDS
;	COMDAT ?digits@?$numeric_limits@_J@std@@2HB
CONST	SEGMENT
?digits@?$numeric_limits@_J@std@@2HB DD 03fH		; std::numeric_limits<__int64>::digits
CONST	ENDS
;	COMDAT ?app@?$_Iosb@H@std@@2W4_Openmode@12@B
CONST	SEGMENT
?app@?$_Iosb@H@std@@2W4_Openmode@12@B DD 08H		; std::_Iosb<int>::app
CONST	ENDS
;	COMDAT ?is_signed@?$numeric_limits@_J@std@@2_NB
CONST	SEGMENT
?is_signed@?$numeric_limits@_J@std@@2_NB DB 01H		; std::numeric_limits<__int64>::is_signed
CONST	ENDS
;	COMDAT ?ate@?$_Iosb@H@std@@2W4_Openmode@12@B
CONST	SEGMENT
?ate@?$_Iosb@H@std@@2W4_Openmode@12@B DD 04H		; std::_Iosb<int>::ate
CONST	ENDS
;	COMDAT ?out@?$_Iosb@H@std@@2W4_Openmode@12@B
CONST	SEGMENT
?out@?$_Iosb@H@std@@2W4_Openmode@12@B DD 02H		; std::_Iosb<int>::out
CONST	ENDS
;	COMDAT ?in@?$_Iosb@H@std@@2W4_Openmode@12@B
CONST	SEGMENT
?in@?$_Iosb@H@std@@2W4_Openmode@12@B DD 01H		; std::_Iosb<int>::in
CONST	ENDS
;	COMDAT ?_Hardfail@?$_Iosb@H@std@@2W4_Iostate@12@B
CONST	SEGMENT
?_Hardfail@?$_Iosb@H@std@@2W4_Iostate@12@B DD 010H	; std::_Iosb<int>::_Hardfail
CONST	ENDS
;	COMDAT ?badbit@?$_Iosb@H@std@@2W4_Iostate@12@B
CONST	SEGMENT
?badbit@?$_Iosb@H@std@@2W4_Iostate@12@B DD 04H		; std::_Iosb<int>::badbit
CONST	ENDS
;	COMDAT ?failbit@?$_Iosb@H@std@@2W4_Iostate@12@B
CONST	SEGMENT
?failbit@?$_Iosb@H@std@@2W4_Iostate@12@B DD 02H		; std::_Iosb<int>::failbit
CONST	ENDS
;	COMDAT ?eofbit@?$_Iosb@H@std@@2W4_Iostate@12@B
CONST	SEGMENT
?eofbit@?$_Iosb@H@std@@2W4_Iostate@12@B DD 01H		; std::_Iosb<int>::eofbit
CONST	ENDS
;	COMDAT ?goodbit@?$_Iosb@H@std@@2W4_Iostate@12@B
CONST	SEGMENT
?goodbit@?$_Iosb@H@std@@2W4_Iostate@12@B DD 00H		; std::_Iosb<int>::goodbit
CONST	ENDS
;	COMDAT ?floatfield@?$_Iosb@H@std@@2W4_Fmtflags@12@B
CONST	SEGMENT
?floatfield@?$_Iosb@H@std@@2W4_Fmtflags@12@B DD 03000H	; std::_Iosb<int>::floatfield
CONST	ENDS
;	COMDAT ?digits10@?$numeric_limits@K@std@@2HB
CONST	SEGMENT
?digits10@?$numeric_limits@K@std@@2HB DD 09H		; std::numeric_limits<unsigned long>::digits10
CONST	ENDS
;	COMDAT ?basefield@?$_Iosb@H@std@@2W4_Fmtflags@12@B
CONST	SEGMENT
?basefield@?$_Iosb@H@std@@2W4_Fmtflags@12@B DD 0e00H	; std::_Iosb<int>::basefield
CONST	ENDS
;	COMDAT ?digits@?$numeric_limits@K@std@@2HB
CONST	SEGMENT
?digits@?$numeric_limits@K@std@@2HB DD 020H		; std::numeric_limits<unsigned long>::digits
CONST	ENDS
;	COMDAT ?adjustfield@?$_Iosb@H@std@@2W4_Fmtflags@12@B
CONST	SEGMENT
?adjustfield@?$_Iosb@H@std@@2W4_Fmtflags@12@B DD 01c0H	; std::_Iosb<int>::adjustfield
CONST	ENDS
;	COMDAT ?_Stdio@?$_Iosb@H@std@@2W4_Fmtflags@12@B
CONST	SEGMENT
?_Stdio@?$_Iosb@H@std@@2W4_Fmtflags@12@B DD 08000H	; std::_Iosb<int>::_Stdio
CONST	ENDS
;	COMDAT ?is_signed@?$numeric_limits@K@std@@2_NB
CONST	SEGMENT
?is_signed@?$numeric_limits@K@std@@2_NB DB 00H		; std::numeric_limits<unsigned long>::is_signed
CONST	ENDS
;	COMDAT ?boolalpha@?$_Iosb@H@std@@2W4_Fmtflags@12@B
CONST	SEGMENT
?boolalpha@?$_Iosb@H@std@@2W4_Fmtflags@12@B DD 04000H	; std::_Iosb<int>::boolalpha
CONST	ENDS
;	COMDAT ?hexfloat@?$_Iosb@H@std@@2W4_Fmtflags@12@B
CONST	SEGMENT
?hexfloat@?$_Iosb@H@std@@2W4_Fmtflags@12@B DD 03000H	; std::_Iosb<int>::hexfloat
CONST	ENDS
;	COMDAT ?fixed@?$_Iosb@H@std@@2W4_Fmtflags@12@B
CONST	SEGMENT
?fixed@?$_Iosb@H@std@@2W4_Fmtflags@12@B DD 02000H	; std::_Iosb<int>::fixed
CONST	ENDS
;	COMDAT ?scientific@?$_Iosb@H@std@@2W4_Fmtflags@12@B
CONST	SEGMENT
?scientific@?$_Iosb@H@std@@2W4_Fmtflags@12@B DD 01000H	; std::_Iosb<int>::scientific
CONST	ENDS
;	COMDAT ?hex@?$_Iosb@H@std@@2W4_Fmtflags@12@B
CONST	SEGMENT
?hex@?$_Iosb@H@std@@2W4_Fmtflags@12@B DD 0800H		; std::_Iosb<int>::hex
CONST	ENDS
;	COMDAT ?oct@?$_Iosb@H@std@@2W4_Fmtflags@12@B
CONST	SEGMENT
?oct@?$_Iosb@H@std@@2W4_Fmtflags@12@B DD 0400H		; std::_Iosb<int>::oct
CONST	ENDS
;	COMDAT ?dec@?$_Iosb@H@std@@2W4_Fmtflags@12@B
CONST	SEGMENT
?dec@?$_Iosb@H@std@@2W4_Fmtflags@12@B DD 0200H		; std::_Iosb<int>::dec
CONST	ENDS
;	COMDAT ?internal@?$_Iosb@H@std@@2W4_Fmtflags@12@B
CONST	SEGMENT
?internal@?$_Iosb@H@std@@2W4_Fmtflags@12@B DD 0100H	; std::_Iosb<int>::internal
CONST	ENDS
;	COMDAT ?right@?$_Iosb@H@std@@2W4_Fmtflags@12@B
CONST	SEGMENT
?right@?$_Iosb@H@std@@2W4_Fmtflags@12@B DD 080H		; std::_Iosb<int>::right
CONST	ENDS
;	COMDAT ?left@?$_Iosb@H@std@@2W4_Fmtflags@12@B
CONST	SEGMENT
?left@?$_Iosb@H@std@@2W4_Fmtflags@12@B DD 040H		; std::_Iosb<int>::left
CONST	ENDS
;	COMDAT ?digits10@?$numeric_limits@J@std@@2HB
CONST	SEGMENT
?digits10@?$numeric_limits@J@std@@2HB DD 09H		; std::numeric_limits<long>::digits10
CONST	ENDS
;	COMDAT ?showpos@?$_Iosb@H@std@@2W4_Fmtflags@12@B
CONST	SEGMENT
?showpos@?$_Iosb@H@std@@2W4_Fmtflags@12@B DD 020H	; std::_Iosb<int>::showpos
CONST	ENDS
;	COMDAT ?digits@?$numeric_limits@J@std@@2HB
CONST	SEGMENT
?digits@?$numeric_limits@J@std@@2HB DD 01fH		; std::numeric_limits<long>::digits
CONST	ENDS
;	COMDAT ?showpoint@?$_Iosb@H@std@@2W4_Fmtflags@12@B
CONST	SEGMENT
?showpoint@?$_Iosb@H@std@@2W4_Fmtflags@12@B DD 010H	; std::_Iosb<int>::showpoint
CONST	ENDS
;	COMDAT ?is_signed@?$numeric_limits@J@std@@2_NB
CONST	SEGMENT
?is_signed@?$numeric_limits@J@std@@2_NB DB 01H		; std::numeric_limits<long>::is_signed
CONST	ENDS
;	COMDAT ?showbase@?$_Iosb@H@std@@2W4_Fmtflags@12@B
CONST	SEGMENT
?showbase@?$_Iosb@H@std@@2W4_Fmtflags@12@B DD 08H	; std::_Iosb<int>::showbase
CONST	ENDS
;	COMDAT ?uppercase@?$_Iosb@H@std@@2W4_Fmtflags@12@B
CONST	SEGMENT
?uppercase@?$_Iosb@H@std@@2W4_Fmtflags@12@B DD 04H	; std::_Iosb<int>::uppercase
CONST	ENDS
;	COMDAT ?unitbuf@?$_Iosb@H@std@@2W4_Fmtflags@12@B
CONST	SEGMENT
?unitbuf@?$_Iosb@H@std@@2W4_Fmtflags@12@B DD 02H	; std::_Iosb<int>::unitbuf
CONST	ENDS
;	COMDAT ?skipws@?$_Iosb@H@std@@2W4_Fmtflags@12@B
CONST	SEGMENT
?skipws@?$_Iosb@H@std@@2W4_Fmtflags@12@B DD 01H		; std::_Iosb<int>::skipws
CONST	ENDS
;	COMDAT ?digits10@?$numeric_limits@I@std@@2HB
CONST	SEGMENT
?digits10@?$numeric_limits@I@std@@2HB DD 09H		; std::numeric_limits<unsigned int>::digits10
CONST	ENDS
;	COMDAT ?digits@?$numeric_limits@I@std@@2HB
CONST	SEGMENT
?digits@?$numeric_limits@I@std@@2HB DD 020H		; std::numeric_limits<unsigned int>::digits
CONST	ENDS
;	COMDAT ?is_signed@?$numeric_limits@I@std@@2_NB
CONST	SEGMENT
?is_signed@?$numeric_limits@I@std@@2_NB DB 00H		; std::numeric_limits<unsigned int>::is_signed
CONST	ENDS
;	COMDAT ?digits10@?$numeric_limits@H@std@@2HB
CONST	SEGMENT
?digits10@?$numeric_limits@H@std@@2HB DD 09H		; std::numeric_limits<int>::digits10
CONST	ENDS
;	COMDAT ?digits@?$numeric_limits@H@std@@2HB
CONST	SEGMENT
?digits@?$numeric_limits@H@std@@2HB DD 01fH		; std::numeric_limits<int>::digits
CONST	ENDS
;	COMDAT ?value@?$_Sizeof@HU_Nil@std@@U12@U12@U12@U12@U12@U12@@std@@2IB
CONST	SEGMENT
?value@?$_Sizeof@HU_Nil@std@@U12@U12@U12@U12@U12@U12@@std@@2IB DD 01H ; std::_Sizeof<int,std::_Nil,std::_Nil,std::_Nil,std::_Nil,std::_Nil,std::_Nil,std::_Nil>::value
CONST	ENDS
;	COMDAT ?is_signed@?$numeric_limits@H@std@@2_NB
CONST	SEGMENT
?is_signed@?$numeric_limits@H@std@@2_NB DB 01H		; std::numeric_limits<int>::is_signed
CONST	ENDS
;	COMDAT ?digits10@?$numeric_limits@G@std@@2HB
CONST	SEGMENT
?digits10@?$numeric_limits@G@std@@2HB DD 04H		; std::numeric_limits<unsigned short>::digits10
CONST	ENDS
;	COMDAT ?digits@?$numeric_limits@G@std@@2HB
CONST	SEGMENT
?digits@?$numeric_limits@G@std@@2HB DD 010H		; std::numeric_limits<unsigned short>::digits
CONST	ENDS
;	COMDAT ?is_signed@?$numeric_limits@G@std@@2_NB
CONST	SEGMENT
?is_signed@?$numeric_limits@G@std@@2_NB DB 00H		; std::numeric_limits<unsigned short>::is_signed
CONST	ENDS
;	COMDAT ?digits10@?$numeric_limits@F@std@@2HB
CONST	SEGMENT
?digits10@?$numeric_limits@F@std@@2HB DD 04H		; std::numeric_limits<short>::digits10
CONST	ENDS
;	COMDAT ?digits@?$numeric_limits@F@std@@2HB
CONST	SEGMENT
?digits@?$numeric_limits@F@std@@2HB DD 0fH		; std::numeric_limits<short>::digits
CONST	ENDS
;	COMDAT ?is_signed@?$numeric_limits@F@std@@2_NB
CONST	SEGMENT
?is_signed@?$numeric_limits@F@std@@2_NB DB 01H		; std::numeric_limits<short>::is_signed
CONST	ENDS
;	COMDAT ?value@?$integral_constant@_N$00@std@@2_NB
CONST	SEGMENT
?value@?$integral_constant@_N$00@std@@2_NB DB 01H	; std::integral_constant<bool,1>::value
CONST	ENDS
;	COMDAT ?digits10@?$numeric_limits@E@std@@2HB
CONST	SEGMENT
?digits10@?$numeric_limits@E@std@@2HB DD 02H		; std::numeric_limits<unsigned char>::digits10
CONST	ENDS
;	COMDAT ?digits@?$numeric_limits@E@std@@2HB
CONST	SEGMENT
?digits@?$numeric_limits@E@std@@2HB DD 08H		; std::numeric_limits<unsigned char>::digits
CONST	ENDS
;	COMDAT ?value@?$integral_constant@_N$0A@@std@@2_NB
CONST	SEGMENT
?value@?$integral_constant@_N$0A@@std@@2_NB DB 00H	; std::integral_constant<bool,0>::value
CONST	ENDS
;	COMDAT ?is_signed@?$numeric_limits@E@std@@2_NB
CONST	SEGMENT
?is_signed@?$numeric_limits@E@std@@2_NB DB 00H		; std::numeric_limits<unsigned char>::is_signed
CONST	ENDS
;	COMDAT ?digits10@?$numeric_limits@C@std@@2HB
CONST	SEGMENT
?digits10@?$numeric_limits@C@std@@2HB DD 02H		; std::numeric_limits<signed char>::digits10
CONST	ENDS
;	COMDAT ?digits@?$numeric_limits@C@std@@2HB
CONST	SEGMENT
?digits@?$numeric_limits@C@std@@2HB DD 07H		; std::numeric_limits<signed char>::digits
CONST	ENDS
;	COMDAT ?is_signed@?$numeric_limits@C@std@@2_NB
CONST	SEGMENT
?is_signed@?$numeric_limits@C@std@@2_NB DB 01H		; std::numeric_limits<signed char>::is_signed
CONST	ENDS
CONST	SEGMENT
_L_2	DD	03f317218r			; 0.693147
_NEAR_CLIP DD	03f800000r			; 1
CONST	ENDS
;	COMDAT ?digits10@?$numeric_limits@_N@std@@2HB
CONST	SEGMENT
?digits10@?$numeric_limits@_N@std@@2HB DD 00H		; std::numeric_limits<bool>::digits10
CONST	ENDS
;	COMDAT ?digits@?$numeric_limits@_N@std@@2HB
CONST	SEGMENT
?digits@?$numeric_limits@_N@std@@2HB DD 01H		; std::numeric_limits<bool>::digits
CONST	ENDS
;	COMDAT ?is_signed@?$numeric_limits@_N@std@@2_NB
CONST	SEGMENT
?is_signed@?$numeric_limits@_N@std@@2_NB DB 00H		; std::numeric_limits<bool>::is_signed
CONST	ENDS
;	COMDAT ?is_modulo@?$numeric_limits@_N@std@@2_NB
CONST	SEGMENT
?is_modulo@?$numeric_limits@_N@std@@2_NB DB 00H		; std::numeric_limits<bool>::is_modulo
CONST	ENDS
;	COMDAT ?digits10@?$numeric_limits@_W@std@@2HB
CONST	SEGMENT
?digits10@?$numeric_limits@_W@std@@2HB DD 04H		; std::numeric_limits<wchar_t>::digits10
CONST	ENDS
;	COMDAT ?digits@?$numeric_limits@_W@std@@2HB
CONST	SEGMENT
?digits@?$numeric_limits@_W@std@@2HB DD 010H		; std::numeric_limits<wchar_t>::digits
CONST	ENDS
;	COMDAT ?is_signed@?$numeric_limits@_W@std@@2_NB
CONST	SEGMENT
?is_signed@?$numeric_limits@_W@std@@2_NB DB 00H		; std::numeric_limits<wchar_t>::is_signed
CONST	ENDS
_DATA	SEGMENT
_matrix33_ident DD 03f800000r			; 1
	DD	000000000r			; 0
	DD	000000000r			; 0
	DD	000000000r			; 0
	DD	03f800000r			; 1
	DD	000000000r			; 0
	DD	000000000r			; 0
	DD	000000000r			; 0
	DD	03f800000r			; 1
?maxwingvortexalt@@3MA DD 046c35000r		; 25000	; maxwingvortexalt
?wingvortexAlpha@@3MA DD 041400000r		; 12	; wingvortexAlpha
?wingvortexgs@@3MA DD 040600000r		; 3.5	; wingvortexgs
?wingvortexAlphaHigh@@3MA DD 041a00000r		; 20	; wingvortexAlphaHigh
?wingvortexAlphaLimit@@3MA DD 041ec0000r	; 29.5	; wingvortexAlphaLimit
?wingvtxTrailSizeCx@@3MA DD 03f800000r		; 1	; wingvtxTrailSizeCx
?wingvtxTrailAlphaCx@@3MA DD 03f800000r		; 1	; wingvtxTrailAlphaCx
?vortexAOA@@3MA DD 041a00000r			; 20	; vortexAOA
?vortexAOALimit@@3MA DD 041ec0000r		; 29.5	; vortexAOALimit
?vortexMinSpeedLimit@@3MA DD 043160000r		; 150	; vortexMinSpeedLimit
?vortexMaxaltLimit@@3MA DD 04708b800r		; 35000	; vortexMaxaltLimit
?vortexG@@3MA DD 040a00000r			; 5	; vortexG
?engineTrailSize@@3MA DD 03f800000r		; 1	; engineTrailSize
?engineTrailAlpha@@3MA DD 03f800000r		; 1	; engineTrailAlpha
?engineTrailMargin@@3MA DD 03f800000r		; 1	; engineTrailMargin
?engineTrailRPMFactor@@3MA DD 03f800000r	; 1	; engineTrailRPMFactor
?damageTrailSizeCx@@3MA DD 03f800000r		; 1	; damageTrailSizeCx
?damageTrailAlphaCx@@3MA DD 03f800000r		; 1	; damageTrailAlphaCx
?contrailMargin@@3MA DD 03f800000r		; 1	; contrailMargin
_matrix44_ident DD 03f800000r			; 1
	DD	000000000r			; 0
	DD	000000000r			; 0
	DD	000000000r			; 0
	DD	000000000r			; 0
	DD	03f800000r			; 1
	DD	000000000r			; 0
	DD	000000000r			; 0
	DD	000000000r			; 0
	DD	000000000r			; 0
	DD	03f800000r			; 1
	DD	000000000r			; 0
	DD	000000000r			; 0
	DD	000000000r			; 0
	DD	000000000r			; 0
	DD	03f800000r			; 1
_cloudPntList DD 0c5bcc000r			; -6040
	DD	0c4070000r			; -540
	DD	0c694ac00r			; -19030
	DD	0c6de1c00r			; -28430
	DD	0c4dfc000r			; -1790
	DD	046dcc800r			; 28260
	DD	047104200r			; 36930
	DD	045732000r			; 3890
	DD	04744ea00r			; 50410
	DD	045336000r			; 2870
	DD	0c4d48000r			; -1700
	DD	04736da00r			; 46810
	DD	0c763ee00r			; -58350
	DD	0c4d48000r			; -1700
	DD	0c64c1000r			; -13060
	DD	046f2bc00r			; 31070
	DD	045480000r			; 3200
	DD	0c7293800r			; -43320
	DD	0c7bdc400r			; -97160
	DD	0c4d48000r			; -1700
	DD	04576e000r			; 3950
	DD	0c792e000r			; -75200
	DD	0c4bb8000r			; -1500
	DD	047957400r			; 76520
	DD	04759ee00r			; 55790
	DD	0c5a1e000r			; -5180
	DD	0c7a24e00r			; -83100
	DD	0c7473800r			; -51000
	DD	0c3a00000r			; -320
	DD	0c7829100r			; -66850
	DD	047733400r			; 62260
	DD	0c3a00000r			; -320
	DD	047708200r			; 61570
	DD	0c7710e00r			; -61710
	DD	0c550c000r			; -3340
	DD	046fb7c00r			; 32190
	DD	0c7719a00r			; -61850
	DD	0c7483200r			; -51250
	DD	047543a00r			; 54330
	DD	0c5bcc000r			; -6040
	DD	0c7495400r			; -51540
	DD	0c694ac00r			; -19030
	DD	0c6a7a800r			; -21460
	DD	0c74b0200r			; -51970
	DD	0468e8000r			; 18240
	DD	047298800r			; 43400
	DD	0c74bf200r			; -52210
	DD	046bc7000r			; 24120
	DD	0c749f400r			; -51700
	DD	0c74bc000r			; -52160
	DD	046948400r			; 19010
	DD	0c605e800r			; -8570
	DD	0c7488200r			; -51330
	DD	0c74ca600r			; -52390
	DD	04731bc00r			; 45500
	DD	0c7509800r			; -53400
	DD	0c6725800r			; -15510
	DD	0c7719a00r			; -61850
	DD	0c7483200r			; -51250
	DD	047543a00r			; 54330
	DD	047553400r			; 54580
	DD	0c74ddc00r			; -52700
	DD	0479a5600r			; 79020
	DD	047a7e400r			; 85960
	DD	0c74c5600r			; -52310
	DD	0477d4800r			; 64840
	DD	0c7c44500r			; -100490
	DD	0c74d1400r			; -52500
	DD	047ac2600r			; 88140
	DD	0c7a1ae00r			; -82780
	DD	0c749ea00r			; -51690
	DD	0c7bce300r			; -96710
	DD	0c6126800r			; -9370
	DD	0c7495400r			; -51540
	DD	043cd0000r			; 410
	DD	0c6a7a800r			; -21460
	DD	0c74a8a00r			; -51850
	DD	0473fae00r			; 49070
	DD	0457c8000r			; 4040
	DD	0c74e4a00r			; -52810
	DD	047871e00r			; 69180
	DD	0c6cbc000r			; -26080
	DD	0c74bc000r			; -52160
	DD	046984400r			; 19490
	DD	0452fa000r			; 2810
	DD	0c7488200r			; -51330
	DD	0c7081800r			; -34840
	DD	0c7719a00r			; -61850
	DD	0c749d600r			; -51670
	DD	047b17600r			; 90860
	DD	047553400r			; 54580
	DD	0c74ddc00r			; -52700
	DD	0479a5600r			; 79020
	DD	047a7e400r			; 85960
	DD	0c74c5600r			; -52310
	DD	0477d4800r			; 64840
	DD	0c7c44500r			; -100490
	DD	0c74d1400r			; -52500
	DD	047ac2600r			; 88140
	DD	047c04e00r			; 98460
	DD	0c74d1400r			; -52500
	DD	0c732a200r			; -45730
	DD	0467b9000r			; 16100
	DD	0c7487800r			; -51320
	DD	0c749a400r			; -51620
	DD	047636c00r			; 58220
	DD	0c74e0400r			; -52740
	DD	0c760b000r			; -57520
	DD	0c6126800r			; -9370
	DD	0c4070000r			; -540
	DD	043cd0000r			; 410
	DD	0c4e60000r			; -1840
	DD	0c6a30c00r			; -20870
	DD	0470a6600r			; 35430
	DD	0c7230c00r			; -41740
	DD	046924000r			; 18720
	DD	04797d600r			; 77740
	DD	0460d9000r			; 9060
	DD	0c616c800r			; -9650
	DD	0c7921300r			; -74790
_lightningPosList DD 041300000r			; 11
	DD	000000000r			; 0
	DD	040e00000r			; 7
	DD	040a00000r			; 5
	DD	041100000r			; 9
	DD	041000000r			; 8
	DD	041000000r			; 8
	DD	041600000r			; 14
	DD	041800000r			; 16
	DD	041a00000r			; 20
	DD	041200000r			; 10
	DD	041c00000r			; 24
	DD	041300000r			; 11
	DD	041d80000r			; 27
	DD	040c00000r			; 6
	DD	041f00000r			; 30
	DD	040e00000r			; 7
	DD	042040000r			; 33
	DD	03f800000r			; 1
	DD	042180000r			; 38
	DD	040a00000r			; 5
	DD	042280000r			; 42
	DD	040a00000r			; 5
	DD	042340000r			; 45
	DD	041400000r			; 12
	DD	042400000r			; 48
	DD	041a00000r			; 20
	DD	042500000r			; 52
	DD	041a00000r			; 20
	DD	042680000r			; 58
	DD	041b80000r			; 23
	DD	042740000r			; 61
	DD	041b00000r			; 22
	DD	0427c0000r			; 63
	DD	041b00000r			; 22
	DD	042840000r			; 66
	DD	041c80000r			; 25
	DD	042880000r			; 68
	DD	041a00000r			; 20
	DD	0428c0000r			; 70
	DD	041c00000r			; 24
	DD	042960000r			; 75
	DD	041c00000r			; 24
	DD	0429a0000r			; 77
	DD	041f80000r			; 31
	DD	042a00000r			; 80
	DD	041f80000r			; 31
	DD	042a60000r			; 83
	DD	042040000r			; 33
	DD	042b00000r			; 88
	DD	041f80000r			; 31
	DD	042b80000r			; 92
	DD	0423c0000r			; 47
	DD	042ce0000r			; 103
	DD	042380000r			; 46
	DD	042d20000r			; 105
	DD	0423c0000r			; 47
	DD	042d60000r			; 107
	DD	042340000r			; 45
	DD	042e00000r			; 112
	DD	042400000r			; 48
	DD	042e40000r			; 114
	DD	042380000r			; 46
	DD	042ea0000r			; 117
	DD	0422c0000r			; 43
	DD	043000000r			; 128
_DATA	ENDS
;	COMDAT ?digits10@?$numeric_limits@D@std@@2HB
CONST	SEGMENT
?digits10@?$numeric_limits@D@std@@2HB DD 02H		; std::numeric_limits<char>::digits10
CONST	ENDS
;	COMDAT ?digits@?$numeric_limits@D@std@@2HB
CONST	SEGMENT
?digits@?$numeric_limits@D@std@@2HB DD 07H		; std::numeric_limits<char>::digits
CONST	ENDS
;	COMDAT ?is_signed@?$numeric_limits@D@std@@2_NB
CONST	SEGMENT
?is_signed@?$numeric_limits@D@std@@2_NB DB 01H		; std::numeric_limits<char>::is_signed
CONST	ENDS
;	COMDAT ?radix@_Num_float_base@std@@2HB
CONST	SEGMENT
?radix@_Num_float_base@std@@2HB DD 02H			; std::_Num_float_base::radix
CONST	ENDS
;	COMDAT ?round_style@_Num_float_base@std@@2W4float_round_style@2@B
CONST	SEGMENT
?round_style@_Num_float_base@std@@2W4float_round_style@2@B DD 01H ; std::_Num_float_base::round_style
CONST	ENDS
;	COMDAT ?traps@_Num_float_base@std@@2_NB
CONST	SEGMENT
?traps@_Num_float_base@std@@2_NB DB 00H			; std::_Num_float_base::traps
CONST	ENDS
;	COMDAT ?tinyness_before@_Num_float_base@std@@2_NB
CONST	SEGMENT
?tinyness_before@_Num_float_base@std@@2_NB DB 01H	; std::_Num_float_base::tinyness_before
CONST	ENDS
;	COMDAT ?is_specialized@_Num_float_base@std@@2_NB
CONST	SEGMENT
?is_specialized@_Num_float_base@std@@2_NB DB 01H	; std::_Num_float_base::is_specialized
CONST	ENDS
;	COMDAT ?is_signed@_Num_float_base@std@@2_NB
CONST	SEGMENT
?is_signed@_Num_float_base@std@@2_NB DB 01H		; std::_Num_float_base::is_signed
CONST	ENDS
;	COMDAT ?is_modulo@_Num_float_base@std@@2_NB
CONST	SEGMENT
?is_modulo@_Num_float_base@std@@2_NB DB 00H		; std::_Num_float_base::is_modulo
CONST	ENDS
;	COMDAT ?is_integer@_Num_float_base@std@@2_NB
CONST	SEGMENT
?is_integer@_Num_float_base@std@@2_NB DB 00H		; std::_Num_float_base::is_integer
CONST	ENDS
;	COMDAT ?is_iec559@_Num_float_base@std@@2_NB
CONST	SEGMENT
?is_iec559@_Num_float_base@std@@2_NB DB 01H		; std::_Num_float_base::is_iec559
CONST	ENDS
;	COMDAT ?is_exact@_Num_float_base@std@@2_NB
CONST	SEGMENT
?is_exact@_Num_float_base@std@@2_NB DB 00H		; std::_Num_float_base::is_exact
CONST	ENDS
;	COMDAT ?is_bounded@_Num_float_base@std@@2_NB
CONST	SEGMENT
?is_bounded@_Num_float_base@std@@2_NB DB 01H		; std::_Num_float_base::is_bounded
CONST	ENDS
;	COMDAT ?has_signaling_NaN@_Num_float_base@std@@2_NB
CONST	SEGMENT
?has_signaling_NaN@_Num_float_base@std@@2_NB DB 01H	; std::_Num_float_base::has_signaling_NaN
CONST	ENDS
;	COMDAT ?has_quiet_NaN@_Num_float_base@std@@2_NB
CONST	SEGMENT
?has_quiet_NaN@_Num_float_base@std@@2_NB DB 01H		; std::_Num_float_base::has_quiet_NaN
CONST	ENDS
;	COMDAT ?has_infinity@_Num_float_base@std@@2_NB
CONST	SEGMENT
?has_infinity@_Num_float_base@std@@2_NB DB 01H		; std::_Num_float_base::has_infinity
CONST	ENDS
;	COMDAT ?CMPDIRTYDATA_INTERVAL@FalconEntity@@2KB
CONST	SEGMENT
?CMPDIRTYDATA_INTERVAL@FalconEntity@@2KB DD 0c8H	; FalconEntity::CMPDIRTYDATA_INTERVAL
CONST	ENDS
;	COMDAT ?SIMDIRTYDATA_INTERVAL@FalconEntity@@2KB
CONST	SEGMENT
?SIMDIRTYDATA_INTERVAL@FalconEntity@@2KB DD 0c8H	; FalconEntity::SIMDIRTYDATA_INTERVAL
CONST	ENDS
;	COMDAT ?has_denorm_loss@_Num_float_base@std@@2_NB
CONST	SEGMENT
?has_denorm_loss@_Num_float_base@std@@2_NB DB 01H	; std::_Num_float_base::has_denorm_loss
CONST	ENDS
;	COMDAT ?has_denorm@_Num_float_base@std@@2W4float_denorm_style@2@B
CONST	SEGMENT
?has_denorm@_Num_float_base@std@@2W4float_denorm_style@2@B DD 01H ; std::_Num_float_base::has_denorm
CONST	ENDS
;	COMDAT ?radix@_Num_int_base@std@@2HB
CONST	SEGMENT
?radix@_Num_int_base@std@@2HB DD 02H			; std::_Num_int_base::radix
CONST	ENDS
;	COMDAT ?is_specialized@_Num_int_base@std@@2_NB
CONST	SEGMENT
?is_specialized@_Num_int_base@std@@2_NB DB 01H		; std::_Num_int_base::is_specialized
CONST	ENDS
;	COMDAT ?is_modulo@_Num_int_base@std@@2_NB
CONST	SEGMENT
?is_modulo@_Num_int_base@std@@2_NB DB 01H		; std::_Num_int_base::is_modulo
CONST	ENDS
;	COMDAT ?is_integer@_Num_int_base@std@@2_NB
CONST	SEGMENT
?is_integer@_Num_int_base@std@@2_NB DB 01H		; std::_Num_int_base::is_integer
CONST	ENDS
;	COMDAT ?is_exact@_Num_int_base@std@@2_NB
CONST	SEGMENT
?is_exact@_Num_int_base@std@@2_NB DB 01H		; std::_Num_int_base::is_exact
CONST	ENDS
;	COMDAT ?is_bounded@_Num_int_base@std@@2_NB
CONST	SEGMENT
?is_bounded@_Num_int_base@std@@2_NB DB 01H		; std::_Num_int_base::is_bounded
CONST	ENDS
;	COMDAT ?radix@_Num_base@std@@2HB
CONST	SEGMENT
?radix@_Num_base@std@@2HB DD 00H			; std::_Num_base::radix
CONST	ENDS
;	COMDAT ?min_exponent10@_Num_base@std@@2HB
CONST	SEGMENT
?min_exponent10@_Num_base@std@@2HB DD 00H		; std::_Num_base::min_exponent10
CONST	ENDS
;	COMDAT ?min_exponent@_Num_base@std@@2HB
CONST	SEGMENT
?min_exponent@_Num_base@std@@2HB DD 00H			; std::_Num_base::min_exponent
CONST	ENDS
;	COMDAT ?max_exponent10@_Num_base@std@@2HB
CONST	SEGMENT
?max_exponent10@_Num_base@std@@2HB DD 00H		; std::_Num_base::max_exponent10
CONST	ENDS
;	COMDAT ?max_exponent@_Num_base@std@@2HB
CONST	SEGMENT
?max_exponent@_Num_base@std@@2HB DD 00H			; std::_Num_base::max_exponent
CONST	ENDS
;	COMDAT ?max_digits10@_Num_base@std@@2HB
CONST	SEGMENT
?max_digits10@_Num_base@std@@2HB DD 00H			; std::_Num_base::max_digits10
CONST	ENDS
;	COMDAT ?table_size@?$ctype@D@std@@2IB
CONST	SEGMENT
?table_size@?$ctype@D@std@@2IB DD 0100H			; std::ctype<char>::table_size
CONST	ENDS
;	COMDAT ?digits10@_Num_base@std@@2HB
CONST	SEGMENT
?digits10@_Num_base@std@@2HB DD 00H			; std::_Num_base::digits10
CONST	ENDS
;	COMDAT ?digits@_Num_base@std@@2HB
CONST	SEGMENT
?digits@_Num_base@std@@2HB DD 00H			; std::_Num_base::digits
CONST	ENDS
;	COMDAT ?round_style@_Num_base@std@@2W4float_round_style@2@B
CONST	SEGMENT
?round_style@_Num_base@std@@2W4float_round_style@2@B DD 00H ; std::_Num_base::round_style
CONST	ENDS
;	COMDAT ?traps@_Num_base@std@@2_NB
CONST	SEGMENT
?traps@_Num_base@std@@2_NB DB 00H			; std::_Num_base::traps
CONST	ENDS
PUBLIC	_fabsf
PUBLIC	_asinf
PUBLIC	_cosf
PUBLIC	_sinf
PUBLIC	?abs@@YAMM@Z					; abs
PUBLIC	?asin@@YAMM@Z					; asin
PUBLIC	?cos@@YAMM@Z					; cos
PUBLIC	?fabs@@YAMM@Z					; fabs
PUBLIC	?sin@@YAMM@Z					; sin
PUBLIC	?SetYPR@VuEntity@@QAEXMMM@Z			; VuEntity::SetYPR
PUBLIC	?SetYPRDelta@VuEntity@@QAEXMMM@Z		; VuEntity::SetYPRDelta
PUBLIC	?Id@VuEntity@@QBE?AVVU_ID@@XZ			; VuEntity::Id
PUBLIC	?Type@VuEntity@@QBEGXZ				; VuEntity::Type
PUBLIC	?XPos@VuEntity@@QBEMXZ				; VuEntity::XPos
PUBLIC	?YPos@VuEntity@@QBEMXZ				; VuEntity::YPos
PUBLIC	?ZPos@VuEntity@@QBEMXZ				; VuEntity::ZPos
PUBLIC	?XDelta@VuEntity@@QBEMXZ			; VuEntity::XDelta
PUBLIC	?YDelta@VuEntity@@QBEMXZ			; VuEntity::YDelta
PUBLIC	?ZDelta@VuEntity@@QBEMXZ			; VuEntity::ZDelta
PUBLIC	?Yaw@VuEntity@@QBEMXZ				; VuEntity::Yaw
PUBLIC	?Pitch@VuEntity@@QBEMXZ				; VuEntity::Pitch
PUBLIC	?Roll@VuEntity@@QBEMXZ				; VuEntity::Roll
PUBLIC	?YawDelta@VuEntity@@QBEMXZ			; VuEntity::YawDelta
PUBLIC	?EntityType@VuEntity@@QBEPAUVuEntityType@@XZ	; VuEntity::EntityType
PUBLIC	??2@YAPAXIPAX@Z					; operator new
PUBLIC	??3@YAXPAX0@Z					; operator delete
PUBLIC	?length@?$char_traits@D@std@@SAIPBD@Z		; std::char_traits<char>::length
PUBLIC	?copy@?$char_traits@D@std@@SAPADPADPBDI@Z	; std::char_traits<char>::copy
PUBLIC	?move@?$char_traits@D@std@@SAPADPADPBDI@Z	; std::char_traits<char>::move
PUBLIC	?assign@?$char_traits@D@std@@SAXAADABD@Z	; std::char_traits<char>::assign
PUBLIC	??0?$allocator@D@std@@QAE@XZ			; std::allocator<char>::allocator<char>
PUBLIC	?deallocate@?$allocator@D@std@@QAEXPADI@Z	; std::allocator<char>::deallocate
PUBLIC	?allocate@?$allocator@D@std@@QAEPADI@Z		; std::allocator<char>::allocate
PUBLIC	?max_size@?$allocator@D@std@@QBEIXZ		; std::allocator<char>::max_size
PUBLIC	?max_size@?$allocator_traits@V?$allocator@D@std@@@std@@SAIABV?$allocator@D@2@@Z ; std::allocator_traits<std::allocator<char> >::max_size
PUBLIC	??0?$_Wrap_alloc@V?$allocator@D@std@@@std@@QAE@XZ ; std::_Wrap_alloc<std::allocator<char> >::_Wrap_alloc<std::allocator<char> >
PUBLIC	?allocate@?$_Wrap_alloc@V?$allocator@D@std@@@std@@QAEPADI@Z ; std::_Wrap_alloc<std::allocator<char> >::allocate
PUBLIC	?deallocate@?$_Wrap_alloc@V?$allocator@D@std@@@std@@QAEXPADI@Z ; std::_Wrap_alloc<std::allocator<char> >::deallocate
PUBLIC	?max_size@?$_Wrap_alloc@V?$allocator@D@std@@@std@@QBEIXZ ; std::_Wrap_alloc<std::allocator<char> >::max_size
PUBLIC	??0?$_String_val@U?$_Simple_types@D@std@@@std@@QAE@XZ ; std::_String_val<std::_Simple_types<char> >::_String_val<std::_Simple_types<char> >
PUBLIC	?_Myptr@?$_String_val@U?$_Simple_types@D@std@@@std@@QAEPADXZ ; std::_String_val<std::_Simple_types<char> >::_Myptr
PUBLIC	?_Myptr@?$_String_val@U?$_Simple_types@D@std@@@std@@QBEPBDXZ ; std::_String_val<std::_Simple_types<char> >::_Myptr
PUBLIC	??0?$_String_alloc@$0A@U?$_String_base_types@DV?$allocator@D@std@@@std@@@std@@QAE@ABV?$allocator@D@1@@Z ; std::_String_alloc<0,std::_String_base_types<char,std::allocator<char> > >::_String_alloc<0,std::_String_base_types<char,std::allocator<char> > >
PUBLIC	?_Getal@?$_String_alloc@$0A@U?$_String_base_types@DV?$allocator@D@std@@@std@@@std@@QBE?AU?$_Wrap_alloc@V?$allocator@D@std@@@2@XZ ; std::_String_alloc<0,std::_String_base_types<char,std::allocator<char> > >::_Getal
PUBLIC	??0?$basic_string@DU?$char_traits@D@std@@V?$allocator@D@2@@std@@QAE@PBD@Z ; std::basic_string<char,std::char_traits<char>,std::allocator<char> >::basic_string<char,std::char_traits<char>,std::allocator<char> >
PUBLIC	?assign@?$basic_string@DU?$char_traits@D@std@@V?$allocator@D@2@@std@@QAEAAV12@ABV12@II@Z ; std::basic_string<char,std::char_traits<char>,std::allocator<char> >::assign
PUBLIC	?assign@?$basic_string@DU?$char_traits@D@std@@V?$allocator@D@2@@std@@QAEAAV12@PBDI@Z ; std::basic_string<char,std::char_traits<char>,std::allocator<char> >::assign
PUBLIC	?assign@?$basic_string@DU?$char_traits@D@std@@V?$allocator@D@2@@std@@QAEAAV12@PBD@Z ; std::basic_string<char,std::char_traits<char>,std::allocator<char> >::assign
PUBLIC	?erase@?$basic_string@DU?$char_traits@D@std@@V?$allocator@D@2@@std@@QAEAAV12@I@Z ; std::basic_string<char,std::char_traits<char>,std::allocator<char> >::erase
PUBLIC	?erase@?$basic_string@DU?$char_traits@D@std@@V?$allocator@D@2@@std@@QAEAAV12@II@Z ; std::basic_string<char,std::char_traits<char>,std::allocator<char> >::erase
PUBLIC	?size@?$basic_string@DU?$char_traits@D@std@@V?$allocator@D@2@@std@@QBEIXZ ; std::basic_string<char,std::char_traits<char>,std::allocator<char> >::size
PUBLIC	?max_size@?$basic_string@DU?$char_traits@D@std@@V?$allocator@D@2@@std@@QBEIXZ ; std::basic_string<char,std::char_traits<char>,std::allocator<char> >::max_size
PUBLIC	?_Copy@?$basic_string@DU?$char_traits@D@std@@V?$allocator@D@2@@std@@QAEXII@Z ; std::basic_string<char,std::char_traits<char>,std::allocator<char> >::_Copy
PUBLIC	?_Eos@?$basic_string@DU?$char_traits@D@std@@V?$allocator@D@2@@std@@QAEXI@Z ; std::basic_string<char,std::char_traits<char>,std::allocator<char> >::_Eos
PUBLIC	?_Grow@?$basic_string@DU?$char_traits@D@std@@V?$allocator@D@2@@std@@QAE_NI_N@Z ; std::basic_string<char,std::char_traits<char>,std::allocator<char> >::_Grow
PUBLIC	?_Inside@?$basic_string@DU?$char_traits@D@std@@V?$allocator@D@2@@std@@QAE_NPBD@Z ; std::basic_string<char,std::char_traits<char>,std::allocator<char> >::_Inside
PUBLIC	?_Tidy@?$basic_string@DU?$char_traits@D@std@@V?$allocator@D@2@@std@@QAEX_NI@Z ; std::basic_string<char,std::char_traits<char>,std::allocator<char> >::_Tidy
PUBLIC	?_Xlen@?$basic_string@DU?$char_traits@D@std@@V?$allocator@D@2@@std@@QBEXXZ ; std::basic_string<char,std::char_traits<char>,std::allocator<char> >::_Xlen
PUBLIC	?_Xran@?$basic_string@DU?$char_traits@D@std@@V?$allocator@D@2@@std@@QBEXXZ ; std::basic_string<char,std::char_traits<char>,std::allocator<char> >::_Xran
PUBLIC	??B?$VuBin@VVuSessionEntity@@@@QBE_NXZ		; VuBin<VuSessionEntity>::operator bool
PUBLIC	?get@?$VuBin@VVuSessionEntity@@@@QBEPAVVuSessionEntity@@XZ ; VuBin<VuSessionEntity>::get
PUBLIC	?RequestOutOfBandTransmit@VuMessage@@QAEXXZ	; VuMessage::RequestOutOfBandTransmit
PUBLIC	?IsSim@FalconEntity@@QAEHXZ			; FalconEntity::IsSim
PUBLIC	?IsSetFalcFlag@FalconEntity@@QAEHH@Z		; FalconEntity::IsSetFalcFlag
PUBLIC	?mlSinCos@@YAXPAUmlTrig@@M@Z			; mlSinCos
PUBLIC	?checked_atan2@@YANNN@Z				; checked_atan2
PUBLIC	??0id@locale@std@@QAE@I@Z			; std::locale::id::id
PUBLIC	?generic_category@std@@YAABVerror_category@1@XZ	; std::generic_category
PUBLIC	?system_category@std@@YAABVerror_category@1@XZ	; std::system_category
PUBLIC	??0error_category@std@@QAE@XZ			; std::error_category::error_category
PUBLIC	??1error_category@std@@UAE@XZ			; std::error_category::~error_category
PUBLIC	?default_error_condition@error_category@std@@UBE?AVerror_condition@2@H@Z ; std::error_category::default_error_condition
PUBLIC	?equivalent@error_category@std@@UBE_NHABVerror_condition@2@@Z ; std::error_category::equivalent
PUBLIC	?equivalent@error_category@std@@UBE_NABVerror_code@2@H@Z ; std::error_category::equivalent
PUBLIC	??8error_category@std@@QBE_NABV01@@Z		; std::error_category::operator==
PUBLIC	??_Gerror_category@std@@UAEPAXI@Z		; std::error_category::`scalar deleting destructor'
PUBLIC	?value@error_code@std@@QBEHXZ			; std::error_code::value
PUBLIC	?category@error_code@std@@QBEABVerror_category@2@XZ ; std::error_code::category
PUBLIC	??0error_condition@std@@QAE@HABVerror_category@1@@Z ; std::error_condition::error_condition
PUBLIC	?value@error_condition@std@@QBEHXZ		; std::error_condition::value
PUBLIC	?category@error_condition@std@@QBEABVerror_category@2@XZ ; std::error_condition::category
PUBLIC	??8error_condition@std@@QBE_NABV01@@Z		; std::error_condition::operator==
PUBLIC	??0_Generic_error_category@std@@QAE@XZ		; std::_Generic_error_category::_Generic_error_category
PUBLIC	?name@_Generic_error_category@std@@UBEPBDXZ	; std::_Generic_error_category::name
PUBLIC	?message@_Generic_error_category@std@@UBE?AV?$basic_string@DU?$char_traits@D@std@@V?$allocator@D@2@@2@H@Z ; std::_Generic_error_category::message
PUBLIC	??1_Generic_error_category@std@@UAE@XZ		; std::_Generic_error_category::~_Generic_error_category
PUBLIC	??_G_Generic_error_category@std@@UAEPAXI@Z	; std::_Generic_error_category::`scalar deleting destructor'
PUBLIC	??0_Iostream_error_category@std@@QAE@XZ		; std::_Iostream_error_category::_Iostream_error_category
PUBLIC	?name@_Iostream_error_category@std@@UBEPBDXZ	; std::_Iostream_error_category::name
PUBLIC	?message@_Iostream_error_category@std@@UBE?AV?$basic_string@DU?$char_traits@D@std@@V?$allocator@D@2@@2@H@Z ; std::_Iostream_error_category::message
PUBLIC	??1_Iostream_error_category@std@@UAE@XZ		; std::_Iostream_error_category::~_Iostream_error_category
PUBLIC	??_G_Iostream_error_category@std@@UAEPAXI@Z	; std::_Iostream_error_category::`scalar deleting destructor'
PUBLIC	??0_System_error_category@std@@QAE@XZ		; std::_System_error_category::_System_error_category
PUBLIC	?name@_System_error_category@std@@UBEPBDXZ	; std::_System_error_category::name
PUBLIC	?message@_System_error_category@std@@UBE?AV?$basic_string@DU?$char_traits@D@std@@V?$allocator@D@2@@2@H@Z ; std::_System_error_category::message
PUBLIC	?default_error_condition@_System_error_category@std@@UBE?AVerror_condition@2@H@Z ; std::_System_error_category::default_error_condition
PUBLIC	??1_System_error_category@std@@UAE@XZ		; std::_System_error_category::~_System_error_category
PUBLIC	??_G_System_error_category@std@@UAEPAXI@Z	; std::_System_error_category::`scalar deleting destructor'
PUBLIC	?Radius@DrawableObject@@QBEMXZ			; DrawableObject::Radius
PUBLIC	?GetNumSlots@DrawableBSP@@QAEHXZ		; DrawableBSP::GetNumSlots
PUBLIC	?GetNumDynamicVertices@DrawableBSP@@QAEHXZ	; DrawableBSP::GetNumDynamicVertices
PUBLIC	?GenerateFastRandom@@YAJXZ			; GenerateFastRandom
PUBLIC	?PRANDInt5@@YAHXZ				; PRANDInt5
PUBLIC	?PRANDInt3@@YAHXZ				; PRANDInt3
PUBLIC	?PRANDFloat@@YAMXZ				; PRANDFloat
PUBLIC	?PRANDFloatPos@@YAMXZ				; PRANDFloatPos
PUBLIC	?GetDomain@SimBaseClass@@QBEEXZ			; SimBaseClass::GetDomain
PUBLIC	?GetClass@SimBaseClass@@QBEEXZ			; SimBaseClass::GetClass
PUBLIC	?GetType@SimBaseClass@@QBEEXZ			; SimBaseClass::GetType
PUBLIC	?GetSType@SimBaseClass@@QBEEXZ			; SimBaseClass::GetSType
PUBLIC	?GetSPType@SimBaseClass@@QBEEXZ			; SimBaseClass::GetSPType
PUBLIC	?IsSetFlag@SimBaseClass@@QBEHH@Z		; SimBaseClass::IsSetFlag
PUBLIC	?PowerOutput@SimBaseClass@@QAEMXZ		; SimBaseClass::PowerOutput
PUBLIC	?get@?$VuBin@VFalconEntity@@@@QBEPAVFalconEntity@@XZ ; VuBin<FalconEntity>::get
PUBLIC	?GetDOFValue@SimMoverClass@@QAEMH@Z		; SimMoverClass::GetDOFValue
PUBLIC	?LEFOn@AircraftClass@@QAEXW4LEFStateFlags@1@@Z	; AircraftClass::LEFOn
PUBLIC	?LEFState@AircraftClass@@QAEHW4LEFStateFlags@1@@Z ; AircraftClass::LEFState
PUBLIC	?IsF16@AircraftClass@@QAEHXZ			; AircraftClass::IsF16
PUBLIC	?IsComplex@AircraftClass@@QAEHXZ		; AircraftClass::IsComplex
PUBLIC	?ApplyDamage@AircraftClass@@UAEXPAVFalconDamageMessage@@@Z ; AircraftClass::ApplyDamage
PUBLIC	?SetColorContrail@AircraftClass@@QAEXH@Z	; AircraftClass::SetColorContrail
PUBLIC	?AddEngineTrails@AircraftClass@@QAEXHPAK0@Z	; AircraftClass::AddEngineTrails
PUBLIC	?CancelEngineTrails@AircraftClass@@QAEXPAK0@Z	; AircraftClass::CancelEngineTrails
PUBLIC	?InitDamageStation@AircraftClass@@QAEXXZ	; AircraftClass::InitDamageStation
PUBLIC	?CleanupDamageStation@AircraftClass@@QAEXXZ	; AircraftClass::CleanupDamageStation
PUBLIC	?CleanupVortex@AircraftClass@@QAEXXZ		; AircraftClass::CleanupVortex
PUBLIC	?RunExplosion@AircraftClass@@QAEXXZ		; AircraftClass::RunExplosion
PUBLIC	?ShowDamage@AircraftClass@@QAEXXZ		; AircraftClass::ShowDamage
PUBLIC	?CleanupDamage@AircraftClass@@QAEXXZ		; AircraftClass::CleanupDamage
PUBLIC	?CheckObjectCollision@AircraftClass@@QAEXXZ	; AircraftClass::CheckObjectCollision
PUBLIC	?DBrain@AircraftClass@@QAEPAVDigitalBrain@@XZ	; AircraftClass::DBrain
PUBLIC	?RunCautionChecks@AircraftClass@@QAEXXZ		; AircraftClass::RunCautionChecks
PUBLIC	?AddFault@AircraftClass@@QAEXHIHH@Z		; AircraftClass::AddFault
PUBLIC	?SetDamageF16PieceType@AircraftClass@@IAEHPAUDamageF16PieceStructure@@HHHM@Z ; AircraftClass::SetDamageF16PieceType
PUBLIC	?CreateDamageF16Piece@AircraftClass@@IAEHPAUDamageF16PieceStructure@@PAH@Z ; AircraftClass::CreateDamageF16Piece
PUBLIC	?CreateDamageF16Effects@AircraftClass@@IAEHXZ	; AircraftClass::CreateDamageF16Effects
PUBLIC	?SetupDamageF16Effects@AircraftClass@@IAEXPAUDamageF16PieceStructure@@@Z ; AircraftClass::SetupDamageF16Effects
PUBLIC	?GetPlayerEntity@FalconSessionEntity@@QBEPAVFalconEntity@@XZ ; FalconSessionEntity::GetPlayerEntity
PUBLIC	?GetGame@FalconSessionEntity@@QAEPAVFalconGameEntity@@XZ ; FalconSessionEntity::GetGame
PUBLIC	?GetPlayerEntity@SimulationDriver@@QBEPAVSimMoverClass@@XZ ; SimulationDriver::GetPlayerEntity
PUBLIC	?SetATCFlag@DigitalBrain@@QAEXH@Z		; DigitalBrain::SetATCFlag
PUBLIC	?SetATCStatus@DigitalBrain@@QAEXW4AtcStatusEnum@@@Z ; DigitalBrain::SetATCStatus
PUBLIC	?SetWaitTimer@DigitalBrain@@QAEXK@Z		; DigitalBrain::SetWaitTimer
PUBLIC	?Thrust@AirframeClass@@QAEMXZ			; AirframeClass::Thrust
PUBLIC	?GeneratorOff@AirframeClass@@QAEXW4Generator@1@@Z ; AirframeClass::GeneratorOff
PUBLIC	?GeneratorBreak@AirframeClass@@QAEXW4Generator@1@@Z ; AirframeClass::GeneratorBreak
PUBLIC	?GetAeroData@AirframeClass@@QBEMH@Z		; AirframeClass::GetAeroData
PUBLIC	?SetFlag@AirframeClass@@QAEXH@Z			; AirframeClass::SetFlag
PUBLIC	?ClearFlag@AirframeClass@@QAEXH@Z		; AirframeClass::ClearFlag
PUBLIC	?IsSet@AirframeClass@@QBEHH@Z			; AirframeClass::IsSet
PUBLIC	?CollisionsOn@PlayerOptionsClass@@QAEHXZ	; PlayerOptionsClass::CollisionsOn
PUBLIC	?Scale@OTWDriverClass@@QAEMXZ			; OTWDriverClass::Scale
PUBLIC	?SetChaseAzEl@OTWDriverClass@@QAEXMM@Z		; OTWDriverClass::SetChaseAzEl
PUBLIC	?BaseData@SimObjectType@@QAEPAVFalconEntity@@XZ	; SimObjectType::BaseData
PUBLIC	?Parent@SimWeaponClass@@QAEPAVFalconEntity@@XZ	; SimWeaponClass::Parent
PUBLIC	?BreakRecord@AircraftTurbulence@@QAEXXZ		; AircraftTurbulence::BreakRecord
PUBLIC	?Online@UIComms@@QAEHXZ				; UIComms::Online
PUBLIC	?Get3DDistance@@YAMAAUTpoint@@0@Z		; Get3DDistance
PUBLIC	?Get3DMiddle@@YA?AUTpoint@@AAU1@0@Z		; Get3DMiddle
PUBLIC	?AssignACOrientation@@YAXAAPAUTrotation@@AAUTpoint@@11_N@Z ; AssignACOrientation
PUBLIC	??$construct@PADAAPAD@?$_Wrap_alloc@V?$allocator@D@std@@@std@@QAEXPAPADAAPAD@Z ; std::_Wrap_alloc<std::allocator<char> >::construct<char *,char * &>
PUBLIC	??$destroy@PAD@?$_Wrap_alloc@V?$allocator@D@std@@@std@@QAEXPAPAD@Z ; std::_Wrap_alloc<std::allocator<char> >::destroy<char *>
PUBLIC	??$addressof@D@std@@YAPADAAD@Z			; std::addressof<char>
PUBLIC	??$_Allocate@D@std@@YAPADIPAD@Z			; std::_Allocate<char>
PUBLIC	??$forward@AAPAD@std@@YAAAPADAAPAD@Z		; std::forward<char * &>
PUBLIC	??$construct@PADAAPAD@?$allocator_traits@V?$allocator@D@std@@@std@@SAXAAV?$allocator@D@1@PAPADAAPAD@Z ; std::allocator_traits<std::allocator<char> >::construct<char *,char * &>
PUBLIC	??$destroy@PAD@?$allocator_traits@V?$allocator@D@std@@@std@@SAXAAV?$allocator@D@1@PAPAD@Z ; std::allocator_traits<std::allocator<char> >::destroy<char *>
PUBLIC	??$construct@PADAAPAD@?$allocator@D@std@@QAEXPAPADAAPAD@Z ; std::allocator<char>::construct<char *,char * &>
PUBLIC	??$destroy@PAD@?$allocator@D@std@@QAEXPAPAD@Z	; std::allocator<char>::destroy<char *>
PUBLIC	??_7error_category@std@@6B@			; std::error_category::`vftable'
PUBLIC	??_7_Generic_error_category@std@@6B@		; std::_Generic_error_category::`vftable'
PUBLIC	??_C@_07DCLBNMLN@generic?$AA@			; `string'
PUBLIC	??_C@_0O@BFJCFAAK@unknown?5error?$AA@		; `string'
PUBLIC	??_7_Iostream_error_category@std@@6B@		; std::_Iostream_error_category::`vftable'
PUBLIC	??_C@_08LLGCOLLL@iostream?$AA@			; `string'
PUBLIC	??_C@_0BG@PADBLCHM@iostream?5stream?5error?$AA@	; `string'
PUBLIC	??_7_System_error_category@std@@6B@		; std::_System_error_category::`vftable'
PUBLIC	??_C@_06FHFOAHML@system?$AA@			; `string'
PUBLIC	?_Generic_object@?$_Error_objects@H@std@@2V_Generic_error_category@2@A ; std::_Error_objects<int>::_Generic_object
PUBLIC	?_Iostream_object@?$_Error_objects@H@std@@2V_Iostream_error_category@2@A ; std::_Error_objects<int>::_Iostream_object
PUBLIC	?_System_object@?$_Error_objects@H@std@@2V_System_error_category@2@A ; std::_Error_objects<int>::_System_object
PUBLIC	?id@?$num_put@DV?$back_insert_iterator@V?$basic_string@DU?$char_traits@D@std@@V?$allocator@D@2@@std@@@std@@@std@@2V0locale@2@A ; std::num_put<char,std::back_insert_iterator<std::basic_string<char,std::char_traits<char>,std::allocator<char> > > >::id
PUBLIC	?id@?$num_put@_WV?$back_insert_iterator@V?$basic_string@_WU?$char_traits@_W@std@@V?$allocator@_W@2@@std@@@std@@@std@@2V0locale@2@A ; std::num_put<wchar_t,std::back_insert_iterator<std::basic_string<wchar_t,std::char_traits<wchar_t>,std::allocator<wchar_t> > > >::id
PUBLIC	?LastRandom@?1??GenerateFastRandom@@YAJXZ@4JA	; `GenerateFastRandom'::`2'::LastRandom
PUBLIC	?id@?$numpunct@D@std@@2V0locale@2@A		; std::numpunct<char>::id
PUBLIC	?id@?$numpunct@_W@std@@2V0locale@2@A		; std::numpunct<wchar_t>::id
PUBLIC	??_C@_0BI@CFPLBAOH@invalid?5string?5position?$AA@ ; `string'
PUBLIC	??_C@_0BA@JFNIOLAK@string?5too?5long?$AA@	; `string'
PUBLIC	??_R4error_category@std@@6B@			; std::error_category::`RTTI Complete Object Locator'
PUBLIC	??_R0?AVerror_category@std@@@8			; std::error_category `RTTI Type Descriptor'
PUBLIC	??_R3error_category@std@@8			; std::error_category::`RTTI Class Hierarchy Descriptor'
PUBLIC	??_R2error_category@std@@8			; std::error_category::`RTTI Base Class Array'
PUBLIC	??_R1A@?0A@EA@error_category@std@@8		; std::error_category::`RTTI Base Class Descriptor at (0,-1,0,64)'
PUBLIC	??_R4_Generic_error_category@std@@6B@		; std::_Generic_error_category::`RTTI Complete Object Locator'
PUBLIC	??_R0?AV_Generic_error_category@std@@@8		; std::_Generic_error_category `RTTI Type Descriptor'
PUBLIC	??_R3_Generic_error_category@std@@8		; std::_Generic_error_category::`RTTI Class Hierarchy Descriptor'
PUBLIC	??_R2_Generic_error_category@std@@8		; std::_Generic_error_category::`RTTI Base Class Array'
PUBLIC	??_R1A@?0A@EA@_Generic_error_category@std@@8	; std::_Generic_error_category::`RTTI Base Class Descriptor at (0,-1,0,64)'
PUBLIC	??_R4_Iostream_error_category@std@@6B@		; std::_Iostream_error_category::`RTTI Complete Object Locator'
PUBLIC	??_R0?AV_Iostream_error_category@std@@@8	; std::_Iostream_error_category `RTTI Type Descriptor'
PUBLIC	??_R3_Iostream_error_category@std@@8		; std::_Iostream_error_category::`RTTI Class Hierarchy Descriptor'
PUBLIC	??_R2_Iostream_error_category@std@@8		; std::_Iostream_error_category::`RTTI Base Class Array'
PUBLIC	??_R1A@?0A@EA@_Iostream_error_category@std@@8	; std::_Iostream_error_category::`RTTI Base Class Descriptor at (0,-1,0,64)'
PUBLIC	??_R4_System_error_category@std@@6B@		; std::_System_error_category::`RTTI Complete Object Locator'
PUBLIC	??_R0?AV_System_error_category@std@@@8		; std::_System_error_category `RTTI Type Descriptor'
PUBLIC	??_R3_System_error_category@std@@8		; std::_System_error_category::`RTTI Class Hierarchy Descriptor'
PUBLIC	??_R2_System_error_category@std@@8		; std::_System_error_category::`RTTI Base Class Array'
PUBLIC	??_R1A@?0A@EA@_System_error_category@std@@8	; std::_System_error_category::`RTTI Base Class Descriptor at (0,-1,0,64)'
PUBLIC	__real@00000000
PUBLIC	__real@0000000000000000
PUBLIC	__real@360637bd
PUBLIC	__real@3727c5ac
PUBLIC	__real@38d1b717
PUBLIC	__real@3c8efa34
PUBLIC	__real@3cf5c28f
PUBLIC	__real@3db2b8c1
PUBLIC	__real@3dcccccd
PUBLIC	__real@3e19999a
PUBLIC	__real@3e32b8c1
PUBLIC	__real@3e4ccccd
PUBLIC	__real@3e800000
PUBLIC	__real@3e860a91
PUBLIC	__real@3ecccccd
PUBLIC	__real@3f000000
PUBLIC	__real@3f060a91
PUBLIC	__real@3f19999a
PUBLIC	__real@3f32b8c1
PUBLIC	__real@3f400000
PUBLIC	__real@3f4ccccd
PUBLIC	__real@3f555555
PUBLIC	__real@3f5f66f1
PUBLIC	__real@3f666666
PUBLIC	__real@3f75be09
PUBLIC	__real@3f75c28f
PUBLIC	__real@3f800000
PUBLIC	__real@3f880000
PUBLIC	__real@3f900000
PUBLIC	__real@3f91361d
PUBLIC	__real@3f9c61a9
PUBLIC	__real@3fa00000
PUBLIC	__real@3fc00000
PUBLIC	__real@3feccccccccccccd
PUBLIC	__real@3ff5be09
PUBLIC	__real@3ff921fb54442d18
PUBLIC	__real@40000000
PUBLIC	__real@40060a91
PUBLIC	__real@400921fb54442d18
PUBLIC	__real@400c000000000000
PUBLIC	__real@40200000
PUBLIC	__real@40400000
PUBLIC	__real@4046d3f0
PUBLIC	__real@40490fd9
PUBLIC	__real@40700000
PUBLIC	__real@40800000
PUBLIC	__real@40900000
PUBLIC	__real@4096cbe3
PUBLIC	__real@40a00000
PUBLIC	__real@40c90fd9
PUBLIC	__real@40e00000
PUBLIC	__real@40f00000
PUBLIC	__real@40fb53cf
PUBLIC	__real@41000000
PUBLIC	__real@41080000
PUBLIC	__real@41100000
PUBLIC	__real@41200000
PUBLIC	__real@41700000
PUBLIC	__real@41a00000
PUBLIC	__real@41c80000
PUBLIC	__real@41f00000
PUBLIC	__real@420c0000
PUBLIC	__real@42200000
PUBLIC	__real@42340000
PUBLIC	__real@42480000
PUBLIC	__real@42652ee1
PUBLIC	__real@42700000
PUBLIC	__real@42a00000
PUBLIC	__real@42aa0000
PUBLIC	__real@42b40000
PUBLIC	__real@42f00000
PUBLIC	__real@43340000
PUBLIC	__real@43480000
PUBLIC	__real@437a0000
PUBLIC	__real@43960000
PUBLIC	__real@43fa0000
PUBLIC	__real@447a0000
PUBLIC	__real@451c4000
PUBLIC	__real@459c4000
PUBLIC	__real@45bde1b0
PUBLIC	__real@461c4000
PUBLIC	__real@462be000
PUBLIC	__real@466a6000
PUBLIC	__real@46c35000
PUBLIC	__real@477fff00
PUBLIC	__real@8000000000000000
PUBLIC	__real@bc23d70a
PUBLIC	__real@bdb2b8c1
PUBLIC	__real@bf400000
PUBLIC	__real@bff921fb54442d18
PUBLIC	__real@c046d3f0
PUBLIC	__real@c0c90fd9
PUBLIC	__real@c0e00000
PUBLIC	__real@c0fb53cf
PUBLIC	__real@c1200000
PUBLIC	__real@c2340000
PUBLIC	__real@c2480000
PUBLIC	__real@c2b40000
PUBLIC	__real@c3340000
PUBLIC	__real@c3480000
PUBLIC	__real@c3fa0000
PUBLIC	__xmm@80000000800000008000000080000000
EXTRN	__purecall:PROC
EXTRN	??2@YAPAXI@Z:PROC				; operator new
EXTRN	??3@YAXPAX@Z:PROC				; operator delete
EXTRN	_atexit:PROC
EXTRN	_asin:PROC
EXTRN	_atan:PROC
EXTRN	_cos:PROC
EXTRN	_fabs:PROC
EXTRN	_sin:PROC
EXTRN	_rand:PROC
EXTRN	_memcpy:PROC
EXTRN	_strlen:PROC
EXTRN	_memmove:PROC
EXTRN	?F4IsBadReadPtr@@YA_NPBXI@Z:PROC		; F4IsBadReadPtr
EXTRN	?SetPosition@VuEntity@@QAEXMMM@Z:PROC		; VuEntity::SetPosition
EXTRN	?SetDelta@VuEntity@@QAEXMMM@Z:PROC		; VuEntity::SetDelta
EXTRN	?IsLocal@VuEntity@@QBEEXZ:PROC			; VuEntity::IsLocal
EXTRN	?_Xbad_alloc@std@@YAXXZ:PROC			; std::_Xbad_alloc
EXTRN	?_Xlength_error@std@@YAXPBD@Z:PROC		; std::_Xlength_error
EXTRN	?_Xout_of_range@std@@YAXPBD@Z:PROC		; std::_Xout_of_range
EXTRN	?Find@VuDatabase@@QBEPAVVuEntity@@VVU_ID@@@Z:PROC ; VuDatabase::Find
EXTRN	?Game@VuSessionEntity@@QAEPAVVuGameEntity@@XZ:PROC ; VuSessionEntity::Game
EXTRN	??_Eerror_category@std@@UAEPAXI@Z:PROC		; std::error_category::`vector deleting destructor'
EXTRN	?_Syserror_map@std@@YAPBDH@Z:PROC		; std::_Syserror_map
EXTRN	?_Winerror_map@std@@YAPBDH@Z:PROC		; std::_Winerror_map
EXTRN	??_E_Generic_error_category@std@@UAEPAXI@Z:PROC	; std::_Generic_error_category::`vector deleting destructor'
EXTRN	??_E_Iostream_error_category@std@@UAEPAXI@Z:PROC ; std::_Iostream_error_category::`vector deleting destructor'
EXTRN	??_E_System_error_category@std@@UAEPAXI@Z:PROC	; std::_System_error_category::`vector deleting destructor'
EXTRN	?GetChildOffset@DrawableBSP@@QAEXHPAUTpoint@@@Z:PROC ; DrawableBSP::GetChildOffset
EXTRN	?SetDOFangle@DrawableBSP@@QAEXHM@Z:PROC		; DrawableBSP::SetDOFangle
EXTRN	?SetSwitchMask@DrawableBSP@@QAEXHK@Z:PROC	; DrawableBSP::SetSwitchMask
EXTRN	?GetDOFangle@DrawableBSP@@QAEMH@Z:PROC		; DrawableBSP::GetDOFangle
EXTRN	?GetDynamicCoords@DrawableBSP@@QAEXHPAM00@Z:PROC ; DrawableBSP::GetDynamicCoords
EXTRN	?GetBoundingBox@DrawableBSP@@QAEXPAUTpoint@@0@Z:PROC ; DrawableBSP::GetBoundingBox
EXTRN	?MatrixMult@@YAXPBUTrotation@@PBUTpoint@@PAU2@@Z:PROC ; MatrixMult
EXTRN	?Sfx@F4SoundPos@@QAEXHHMM@Z:PROC		; F4SoundPos::Sfx
EXTRN	?PS_AddParticleEx@DrawableParticleSys@@SAXHPAUTpoint@@0@Z:PROC ; DrawableParticleSys::PS_AddParticleEx
EXTRN	?PS_KillTrail@DrawableParticleSys@@SAXK@Z:PROC	; DrawableParticleSys::PS_KillTrail
EXTRN	?PS_EmitTrail@DrawableParticleSys@@SAKKHMMMMM@Z:PROC ; DrawableParticleSys::PS_EmitTrail
EXTRN	?FalconSendMessage@@YAXPAVVuMessage@@H@Z:PROC	; FalconSendMessage
EXTRN	?SetFlag@SimBaseClass@@QAEXH@Z:PROC		; SimBaseClass::SetFlag
EXTRN	?UnSetFlag@SimBaseClass@@QAEXH@Z:PROC		; SimBaseClass::UnSetFlag
EXTRN	?ApplyDamage@SimVehicleClass@@UAEXPAVFalconDamageMessage@@@Z:PROC ; SimVehicleClass::ApplyDamage
EXTRN	?SetAutopilot@AircraftClass@@QAEXW4AutoPilotType@1@@Z:PROC ; AircraftClass::SetAutopilot
EXTRN	?LandingCheck@AircraftClass@@QAEHMMH@Z:PROC	; AircraftClass::LandingCheck
EXTRN	??0FalconDamageMessage@@QAE@VVU_ID@@PAVVuTargetEntity@@E@Z:PROC ; FalconDamageMessage::FalconDamageMessage
EXTRN	?MapVisId@@YAKK@Z:PROC				; MapVisId
EXTRN	??0SimStaticClass@@QAE@H@Z:PROC			; SimStaticClass::SimStaticClass
EXTRN	?CalculateGroundPlane@AirframeClass@@ABEXPAM0@Z:PROC ; AirframeClass::CalculateGroundPlane
EXTRN	?EngineTrail@AirframeClass@@QAEHXZ:PROC		; AirframeClass::EngineTrail
EXTRN	?HydrBreak@AirframeClass@@QAEXH@Z:PROC		; AirframeClass::HydrBreak
EXTRN	?ResetOrientation@AirframeClass@@QAEXXZ:PROC	; AirframeClass::ResetOrientation
EXTRN	?GetGroundLevel@OTWDriverClass@@QAEMMMPAUTpoint@@@Z:PROC ; OTWDriverClass::GetGroundLevel
EXTRN	?GetApproxGroundLevel@OTWDriverClass@@QAEMMM@Z:PROC ; OTWDriverClass::GetApproxGroundLevel
EXTRN	?CreateVisualObject@OTWDriverClass@@QAEXPAVSimBaseClass@@HPAUTpoint@@PAUTrotation@@M@Z:PROC ; OTWDriverClass::CreateVisualObject
EXTRN	?AddSfxRequest@OTWDriverClass@@QAEXPAVSfxClass@@@Z:PROC ; OTWDriverClass::AddSfxRequest
EXTRN	??0SfxClass@@QAE@HHPAVSimBaseClass@@MMPAUTpoint@@MM@Z:PROC ; SfxClass::SfxClass
EXTRN	?GetParentAircraft@EjectedPilotClass@@QAEPAVAircraftClass@@XZ:PROC ; EjectedPilotClass::GetParentAircraft
EXTRN	?SetFault@FackClass@@QAEXHH@Z:PROC		; FackClass::SetFault
EXTRN	?GetFault@FackClass@@QAEHW4type_FSubSystem@FaultClass@@@Z:PROC ; FackClass::GetFault
EXTRN	?JoystickPlayEffect@@YAHHH@Z:PROC		; JoystickPlayEffect
EXTRN	?RecordPosition@AircraftTurbulence@@QAEXMMMM@Z:PROC ; AircraftTurbulence::RecordPosition
EXTRN	?CalcTransformMatrix@@YAXPAVSimBaseClass@@@Z:PROC ; CalcTransformMatrix
EXTRN	@__security_check_cookie@4:PROC
EXTRN	__CxxThrowException@8:PROC
EXTRN	___CxxFrameHandler3:PROC
EXTRN	?vuDatabase@@3PAVVuDatabase@@A:DWORD		; vuDatabase
EXTRN	?vuLocalSessionEntity@@3V?$VuBin@VVuSessionEntity@@@@A:DWORD ; vuLocalSessionEntity
EXTRN	?SimLibMajorFrameTime@@3MA:DWORD		; SimLibMajorFrameTime
EXTRN	?SimLibElapsedTime@@3KA:DWORD			; SimLibElapsedTime
EXTRN	??_7type_info@@6B@:QWORD			; type_info::`vftable'
EXTRN	?Origin@@3UTpoint@@B:BYTE			; Origin
EXTRN	?IMatrix@@3UTrotation@@B:BYTE			; IMatrix
EXTRN	?Falcon4ClassTable@@3PAUFalcon4EntityClassType@@A:DWORD ; Falcon4ClassTable
EXTRN	?SimDriver@@3VSimulationDriver@@A:BYTE		; SimDriver
EXTRN	?aeroDataset@@3PAVAeroDataSet@@A:DWORD		; aeroDataset
EXTRN	?PlayerOptions@@3VPlayerOptionsClass@@A:BYTE	; PlayerOptions
EXTRN	?OTWDriver@@3VOTWDriverClass@@A:BYTE		; OTWDriver
EXTRN	?g_bRealisticAvionics@@3_NA:BYTE		; g_bRealisticAvionics
EXTRN	?realWeather@@3PAVRealWeather@@A:DWORD		; realWeather
EXTRN	?g_intellivibeData@@3VIntellivibeData@@A:BYTE	; g_intellivibeData
EXTRN	?gSharedIntellivibe@@3PAXA:DWORD		; gSharedIntellivibe
EXTRN	?g_bDisableFunkyChicken@@3_NA:BYTE		; g_bDisableFunkyChicken
EXTRN	?gCommsMgr@@3PAVUIComms@@A:DWORD		; gCommsMgr
EXTRN	?g_fCarrierStartTolerance@@3MA:DWORD		; g_fCarrierStartTolerance
EXTRN	?g_bWakeTurbulence@@3_NA:BYTE			; g_bWakeTurbulence
EXTRN	?g_bNewDamageEffects@@3_NA:BYTE			; g_bNewDamageEffects
EXTRN	___security_cookie:DWORD
EXTRN	__fltused:DWORD
_BSS	SEGMENT
_piecewise_construct DB 01H DUP (?)
	ALIGN	4

_allocator_arg DB 01H DUP (?)
_BSS	ENDS
;	COMDAT ?_Generic_object@?$_Error_objects@H@std@@2V_Generic_error_category@2@A
_BSS	SEGMENT
?_Generic_object@?$_Error_objects@H@std@@2V_Generic_error_category@2@A DD 01H DUP (?) ; std::_Error_objects<int>::_Generic_object
_BSS	ENDS
;	COMDAT ?_Iostream_object@?$_Error_objects@H@std@@2V_Iostream_error_category@2@A
_BSS	SEGMENT
?_Iostream_object@?$_Error_objects@H@std@@2V_Iostream_error_category@2@A DD 01H DUP (?) ; std::_Error_objects<int>::_Iostream_object
_BSS	ENDS
;	COMDAT ?_System_object@?$_Error_objects@H@std@@2V_System_error_category@2@A
_BSS	SEGMENT
?_System_object@?$_Error_objects@H@std@@2V_System_error_category@2@A DD 01H DUP (?) ; std::_Error_objects<int>::_System_object
_BSS	ENDS
;	COMDAT ?id@?$num_put@DV?$back_insert_iterator@V?$basic_string@DU?$char_traits@D@std@@V?$allocator@D@2@@std@@@std@@@std@@2V0locale@2@A
_BSS	SEGMENT
?id@?$num_put@DV?$back_insert_iterator@V?$basic_string@DU?$char_traits@D@std@@V?$allocator@D@2@@std@@@std@@@std@@2V0locale@2@A DD 01H DUP (?) ; std::num_put<char,std::back_insert_iterator<std::basic_string<char,std::char_traits<char>,std::allocator<char> > > >::id
_BSS	ENDS
;	COMDAT ?id@?$num_put@_WV?$back_insert_iterator@V?$basic_string@_WU?$char_traits@_W@std@@V?$allocator@_W@2@@std@@@std@@@std@@2V0locale@2@A
_BSS	SEGMENT
?id@?$num_put@_WV?$back_insert_iterator@V?$basic_string@_WU?$char_traits@_W@std@@V?$allocator@_W@2@@std@@@std@@@std@@2V0locale@2@A DD 01H DUP (?) ; std::num_put<wchar_t,std::back_insert_iterator<std::basic_string<wchar_t,std::char_traits<wchar_t>,std::allocator<wchar_t> > > >::id
_BSS	ENDS
;	COMDAT ?LastRandom@?1??GenerateFastRandom@@YAJXZ@4JA
_BSS	SEGMENT
?LastRandom@?1??GenerateFastRandom@@YAJXZ@4JA DD 01H DUP (?) ; `GenerateFastRandom'::`2'::LastRandom
_BSS	ENDS
;	COMDAT ?id@?$numpunct@D@std@@2V0locale@2@A
_BSS	SEGMENT
?id@?$numpunct@D@std@@2V0locale@2@A DD 01H DUP (?)	; std::numpunct<char>::id
_BSS	ENDS
;	COMDAT ?id@?$numpunct@_W@std@@2V0locale@2@A
_BSS	SEGMENT
?id@?$numpunct@_W@std@@2V0locale@2@A DD 01H DUP (?)	; std::numpunct<wchar_t>::id
_BSS	ENDS
CRT$XCU	SEGMENT
_piecewise_construct$initializer$ DD FLAT:??__Epiecewise_construct@std@@YAXXZ
CRT$XCU	ENDS
;	COMDAT __xmm@80000000800000008000000080000000
CONST	SEGMENT
__xmm@80000000800000008000000080000000 DB 00H, 00H, 00H, 080H, 00H, 00H, 00H
	DB	080H, 00H, 00H, 00H, 080H, 00H, 00H, 00H, 080H
CONST	ENDS
;	COMDAT __real@c3fa0000
CONST	SEGMENT
__real@c3fa0000 DD 0c3fa0000r			; -500
CONST	ENDS
;	COMDAT __real@c3480000
CONST	SEGMENT
__real@c3480000 DD 0c3480000r			; -200
CONST	ENDS
;	COMDAT __real@c3340000
CONST	SEGMENT
__real@c3340000 DD 0c3340000r			; -180
CONST	ENDS
;	COMDAT __real@c2b40000
CONST	SEGMENT
__real@c2b40000 DD 0c2b40000r			; -90
CONST	ENDS
;	COMDAT __real@c2480000
CONST	SEGMENT
__real@c2480000 DD 0c2480000r			; -50
CONST	ENDS
;	COMDAT __real@c2340000
CONST	SEGMENT
__real@c2340000 DD 0c2340000r			; -45
CONST	ENDS
;	COMDAT __real@c1200000
CONST	SEGMENT
__real@c1200000 DD 0c1200000r			; -10
CONST	ENDS
;	COMDAT __real@c0fb53cf
CONST	SEGMENT
__real@c0fb53cf DD 0c0fb53cfr			; -7.85398
CONST	ENDS
;	COMDAT __real@c0e00000
CONST	SEGMENT
__real@c0e00000 DD 0c0e00000r			; -7
CONST	ENDS
;	COMDAT __real@c0c90fd9
CONST	SEGMENT
__real@c0c90fd9 DD 0c0c90fd9r			; -6.28318
CONST	ENDS
;	COMDAT __real@c046d3f0
CONST	SEGMENT
__real@c046d3f0 DD 0c046d3f0r			; -3.10669
CONST	ENDS
;	COMDAT __real@bff921fb54442d18
CONST	SEGMENT
__real@bff921fb54442d18 DQ 0bff921fb54442d18r	; -1.5708
CONST	ENDS
;	COMDAT __real@bf400000
CONST	SEGMENT
__real@bf400000 DD 0bf400000r			; -0.75
CONST	ENDS
;	COMDAT __real@bdb2b8c1
CONST	SEGMENT
__real@bdb2b8c1 DD 0bdb2b8c1r			; -0.0872665
CONST	ENDS
;	COMDAT __real@bc23d70a
CONST	SEGMENT
__real@bc23d70a DD 0bc23d70ar			; -0.01
CONST	ENDS
;	COMDAT __real@8000000000000000
CONST	SEGMENT
__real@8000000000000000 DQ 08000000000000000r	; -0
CONST	ENDS
;	COMDAT __real@477fff00
CONST	SEGMENT
__real@477fff00 DD 0477fff00r			; 65535
CONST	ENDS
;	COMDAT __real@46c35000
CONST	SEGMENT
__real@46c35000 DD 046c35000r			; 25000
CONST	ENDS
;	COMDAT __real@466a6000
CONST	SEGMENT
__real@466a6000 DD 0466a6000r			; 15000
CONST	ENDS
;	COMDAT __real@462be000
CONST	SEGMENT
__real@462be000 DD 0462be000r			; 11000
CONST	ENDS
;	COMDAT __real@461c4000
CONST	SEGMENT
__real@461c4000 DD 0461c4000r			; 10000
CONST	ENDS
;	COMDAT __real@45bde1b0
CONST	SEGMENT
__real@45bde1b0 DD 045bde1b0r			; 6076.21
CONST	ENDS
;	COMDAT __real@459c4000
CONST	SEGMENT
__real@459c4000 DD 0459c4000r			; 5000
CONST	ENDS
;	COMDAT __real@451c4000
CONST	SEGMENT
__real@451c4000 DD 0451c4000r			; 2500
CONST	ENDS
;	COMDAT __real@447a0000
CONST	SEGMENT
__real@447a0000 DD 0447a0000r			; 1000
CONST	ENDS
;	COMDAT __real@43fa0000
CONST	SEGMENT
__real@43fa0000 DD 043fa0000r			; 500
CONST	ENDS
;	COMDAT __real@43960000
CONST	SEGMENT
__real@43960000 DD 043960000r			; 300
CONST	ENDS
;	COMDAT __real@437a0000
CONST	SEGMENT
__real@437a0000 DD 0437a0000r			; 250
CONST	ENDS
;	COMDAT __real@43480000
CONST	SEGMENT
__real@43480000 DD 043480000r			; 200
CONST	ENDS
;	COMDAT __real@43340000
CONST	SEGMENT
__real@43340000 DD 043340000r			; 180
CONST	ENDS
;	COMDAT __real@42f00000
CONST	SEGMENT
__real@42f00000 DD 042f00000r			; 120
CONST	ENDS
;	COMDAT __real@42b40000
CONST	SEGMENT
__real@42b40000 DD 042b40000r			; 90
CONST	ENDS
;	COMDAT __real@42aa0000
CONST	SEGMENT
__real@42aa0000 DD 042aa0000r			; 85
CONST	ENDS
;	COMDAT __real@42a00000
CONST	SEGMENT
__real@42a00000 DD 042a00000r			; 80
CONST	ENDS
;	COMDAT __real@42700000
CONST	SEGMENT
__real@42700000 DD 042700000r			; 60
CONST	ENDS
;	COMDAT __real@42652ee1
CONST	SEGMENT
__real@42652ee1 DD 042652ee1r			; 57.2958
CONST	ENDS
;	COMDAT __real@42480000
CONST	SEGMENT
__real@42480000 DD 042480000r			; 50
CONST	ENDS
;	COMDAT __real@42340000
CONST	SEGMENT
__real@42340000 DD 042340000r			; 45
CONST	ENDS
;	COMDAT __real@42200000
CONST	SEGMENT
__real@42200000 DD 042200000r			; 40
CONST	ENDS
;	COMDAT __real@420c0000
CONST	SEGMENT
__real@420c0000 DD 0420c0000r			; 35
CONST	ENDS
;	COMDAT __real@41f00000
CONST	SEGMENT
__real@41f00000 DD 041f00000r			; 30
CONST	ENDS
;	COMDAT __real@41c80000
CONST	SEGMENT
__real@41c80000 DD 041c80000r			; 25
CONST	ENDS
;	COMDAT __real@41a00000
CONST	SEGMENT
__real@41a00000 DD 041a00000r			; 20
CONST	ENDS
;	COMDAT __real@41700000
CONST	SEGMENT
__real@41700000 DD 041700000r			; 15
CONST	ENDS
;	COMDAT __real@41200000
CONST	SEGMENT
__real@41200000 DD 041200000r			; 10
CONST	ENDS
;	COMDAT __real@41100000
CONST	SEGMENT
__real@41100000 DD 041100000r			; 9
CONST	ENDS
;	COMDAT __real@41080000
CONST	SEGMENT
__real@41080000 DD 041080000r			; 8.5
CONST	ENDS
;	COMDAT __real@41000000
CONST	SEGMENT
__real@41000000 DD 041000000r			; 8
CONST	ENDS
;	COMDAT __real@40fb53cf
CONST	SEGMENT
__real@40fb53cf DD 040fb53cfr			; 7.85398
CONST	ENDS
;	COMDAT __real@40f00000
CONST	SEGMENT
__real@40f00000 DD 040f00000r			; 7.5
CONST	ENDS
;	COMDAT __real@40e00000
CONST	SEGMENT
__real@40e00000 DD 040e00000r			; 7
CONST	ENDS
;	COMDAT __real@40c90fd9
CONST	SEGMENT
__real@40c90fd9 DD 040c90fd9r			; 6.28318
CONST	ENDS
;	COMDAT __real@40a00000
CONST	SEGMENT
__real@40a00000 DD 040a00000r			; 5
CONST	ENDS
;	COMDAT __real@4096cbe3
CONST	SEGMENT
__real@4096cbe3 DD 04096cbe3r			; 4.71239
CONST	ENDS
;	COMDAT __real@40900000
CONST	SEGMENT
__real@40900000 DD 040900000r			; 4.5
CONST	ENDS
;	COMDAT __real@40800000
CONST	SEGMENT
__real@40800000 DD 040800000r			; 4
CONST	ENDS
;	COMDAT __real@40700000
CONST	SEGMENT
__real@40700000 DD 040700000r			; 3.75
CONST	ENDS
;	COMDAT __real@40490fd9
CONST	SEGMENT
__real@40490fd9 DD 040490fd9r			; 3.14159
CONST	ENDS
;	COMDAT __real@4046d3f0
CONST	SEGMENT
__real@4046d3f0 DD 04046d3f0r			; 3.10669
CONST	ENDS
;	COMDAT __real@40400000
CONST	SEGMENT
__real@40400000 DD 040400000r			; 3
CONST	ENDS
;	COMDAT __real@40200000
CONST	SEGMENT
__real@40200000 DD 040200000r			; 2.5
CONST	ENDS
;	COMDAT __real@400c000000000000
CONST	SEGMENT
__real@400c000000000000 DQ 0400c000000000000r	; 3.5
CONST	ENDS
;	COMDAT __real@400921fb54442d18
CONST	SEGMENT
__real@400921fb54442d18 DQ 0400921fb54442d18r	; 3.14159
CONST	ENDS
;	COMDAT __real@40060a91
CONST	SEGMENT
__real@40060a91 DD 040060a91r			; 2.09439
CONST	ENDS
;	COMDAT __real@40000000
CONST	SEGMENT
__real@40000000 DD 040000000r			; 2
CONST	ENDS
;	COMDAT __real@3ff921fb54442d18
CONST	SEGMENT
__real@3ff921fb54442d18 DQ 03ff921fb54442d18r	; 1.5708
CONST	ENDS
;	COMDAT __real@3ff5be09
CONST	SEGMENT
__real@3ff5be09 DD 03ff5be09r			; 1.91986
CONST	ENDS
;	COMDAT __real@3feccccccccccccd
CONST	SEGMENT
__real@3feccccccccccccd DQ 03feccccccccccccdr	; 0.9
CONST	ENDS
;	COMDAT __real@3fc00000
CONST	SEGMENT
__real@3fc00000 DD 03fc00000r			; 1.5
CONST	ENDS
;	COMDAT __real@3fa00000
CONST	SEGMENT
__real@3fa00000 DD 03fa00000r			; 1.25
CONST	ENDS
;	COMDAT __real@3f9c61a9
CONST	SEGMENT
__real@3f9c61a9 DD 03f9c61a9r			; 1.22173
CONST	ENDS
;	COMDAT __real@3f91361d
CONST	SEGMENT
__real@3f91361d DD 03f91361dr			; 1.13446
CONST	ENDS
;	COMDAT __real@3f900000
CONST	SEGMENT
__real@3f900000 DD 03f900000r			; 1.125
CONST	ENDS
;	COMDAT __real@3f880000
CONST	SEGMENT
__real@3f880000 DD 03f880000r			; 1.0625
CONST	ENDS
;	COMDAT __real@3f800000
CONST	SEGMENT
__real@3f800000 DD 03f800000r			; 1
CONST	ENDS
;	COMDAT __real@3f75c28f
CONST	SEGMENT
__real@3f75c28f DD 03f75c28fr			; 0.96
CONST	ENDS
;	COMDAT __real@3f75be09
CONST	SEGMENT
__real@3f75be09 DD 03f75be09r			; 0.959931
CONST	ENDS
;	COMDAT __real@3f666666
CONST	SEGMENT
__real@3f666666 DD 03f666666r			; 0.9
CONST	ENDS
;	COMDAT __real@3f5f66f1
CONST	SEGMENT
__real@3f5f66f1 DD 03f5f66f1r			; 0.872665
CONST	ENDS
;	COMDAT __real@3f555555
CONST	SEGMENT
__real@3f555555 DD 03f555555r			; 0.833333
CONST	ENDS
;	COMDAT __real@3f4ccccd
CONST	SEGMENT
__real@3f4ccccd DD 03f4ccccdr			; 0.8
CONST	ENDS
;	COMDAT __real@3f400000
CONST	SEGMENT
__real@3f400000 DD 03f400000r			; 0.75
CONST	ENDS
;	COMDAT __real@3f32b8c1
CONST	SEGMENT
__real@3f32b8c1 DD 03f32b8c1r			; 0.698132
CONST	ENDS
;	COMDAT __real@3f19999a
CONST	SEGMENT
__real@3f19999a DD 03f19999ar			; 0.6
CONST	ENDS
;	COMDAT __real@3f060a91
CONST	SEGMENT
__real@3f060a91 DD 03f060a91r			; 0.523599
CONST	ENDS
;	COMDAT __real@3f000000
CONST	SEGMENT
__real@3f000000 DD 03f000000r			; 0.5
CONST	ENDS
;	COMDAT __real@3ecccccd
CONST	SEGMENT
__real@3ecccccd DD 03ecccccdr			; 0.4
CONST	ENDS
;	COMDAT __real@3e860a91
CONST	SEGMENT
__real@3e860a91 DD 03e860a91r			; 0.261799
CONST	ENDS
;	COMDAT __real@3e800000
CONST	SEGMENT
__real@3e800000 DD 03e800000r			; 0.25
CONST	ENDS
;	COMDAT __real@3e4ccccd
CONST	SEGMENT
__real@3e4ccccd DD 03e4ccccdr			; 0.2
CONST	ENDS
;	COMDAT __real@3e32b8c1
CONST	SEGMENT
__real@3e32b8c1 DD 03e32b8c1r			; 0.174533
CONST	ENDS
;	COMDAT __real@3e19999a
CONST	SEGMENT
__real@3e19999a DD 03e19999ar			; 0.15
CONST	ENDS
;	COMDAT __real@3dcccccd
CONST	SEGMENT
__real@3dcccccd DD 03dcccccdr			; 0.1
CONST	ENDS
;	COMDAT __real@3db2b8c1
CONST	SEGMENT
__real@3db2b8c1 DD 03db2b8c1r			; 0.0872665
CONST	ENDS
;	COMDAT __real@3cf5c28f
CONST	SEGMENT
__real@3cf5c28f DD 03cf5c28fr			; 0.03
CONST	ENDS
;	COMDAT __real@3c8efa34
CONST	SEGMENT
__real@3c8efa34 DD 03c8efa34r			; 0.0174533
CONST	ENDS
;	COMDAT __real@38d1b717
CONST	SEGMENT
__real@38d1b717 DD 038d1b717r			; 0.0001
CONST	ENDS
;	COMDAT __real@3727c5ac
CONST	SEGMENT
__real@3727c5ac DD 03727c5acr			; 1e-005
CONST	ENDS
;	COMDAT __real@360637bd
CONST	SEGMENT
__real@360637bd DD 0360637bdr			; 2e-006
CONST	ENDS
;	COMDAT __real@0000000000000000
CONST	SEGMENT
__real@0000000000000000 DQ 00000000000000000r	; 0
CONST	ENDS
;	COMDAT __real@00000000
CONST	SEGMENT
__real@00000000 DD 000000000r			; 0
CONST	ENDS
;	COMDAT ??_R1A@?0A@EA@_System_error_category@std@@8
rdata$r	SEGMENT
??_R1A@?0A@EA@_System_error_category@std@@8 DD FLAT:??_R0?AV_System_error_category@std@@@8 ; std::_System_error_category::`RTTI Base Class Descriptor at (0,-1,0,64)'
	DD	02H
	DD	00H
	DD	0ffffffffH
	DD	00H
	DD	040H
	DD	FLAT:??_R3_System_error_category@std@@8
rdata$r	ENDS
;	COMDAT ??_R2_System_error_category@std@@8
rdata$r	SEGMENT
??_R2_System_error_category@std@@8 DD FLAT:??_R1A@?0A@EA@_System_error_category@std@@8 ; std::_System_error_category::`RTTI Base Class Array'
	DD	FLAT:??_R1A@?0A@EA@_Generic_error_category@std@@8
	DD	FLAT:??_R1A@?0A@EA@error_category@std@@8
rdata$r	ENDS
;	COMDAT ??_R3_System_error_category@std@@8
rdata$r	SEGMENT
??_R3_System_error_category@std@@8 DD 00H		; std::_System_error_category::`RTTI Class Hierarchy Descriptor'
	DD	00H
	DD	03H
	DD	FLAT:??_R2_System_error_category@std@@8
rdata$r	ENDS
;	COMDAT ??_R0?AV_System_error_category@std@@@8
_DATA	SEGMENT
??_R0?AV_System_error_category@std@@@8 DD FLAT:??_7type_info@@6B@ ; std::_System_error_category `RTTI Type Descriptor'
	DD	00H
	DB	'.?AV_System_error_category@std@@', 00H
_DATA	ENDS
;	COMDAT ??_R4_System_error_category@std@@6B@
rdata$r	SEGMENT
??_R4_System_error_category@std@@6B@ DD 00H		; std::_System_error_category::`RTTI Complete Object Locator'
	DD	00H
	DD	00H
	DD	FLAT:??_R0?AV_System_error_category@std@@@8
	DD	FLAT:??_R3_System_error_category@std@@8
rdata$r	ENDS
;	COMDAT ??_R1A@?0A@EA@_Iostream_error_category@std@@8
rdata$r	SEGMENT
??_R1A@?0A@EA@_Iostream_error_category@std@@8 DD FLAT:??_R0?AV_Iostream_error_category@std@@@8 ; std::_Iostream_error_category::`RTTI Base Class Descriptor at (0,-1,0,64)'
	DD	02H
	DD	00H
	DD	0ffffffffH
	DD	00H
	DD	040H
	DD	FLAT:??_R3_Iostream_error_category@std@@8
rdata$r	ENDS
;	COMDAT ??_R2_Iostream_error_category@std@@8
rdata$r	SEGMENT
??_R2_Iostream_error_category@std@@8 DD FLAT:??_R1A@?0A@EA@_Iostream_error_category@std@@8 ; std::_Iostream_error_category::`RTTI Base Class Array'
	DD	FLAT:??_R1A@?0A@EA@_Generic_error_category@std@@8
	DD	FLAT:??_R1A@?0A@EA@error_category@std@@8
rdata$r	ENDS
;	COMDAT ??_R3_Iostream_error_category@std@@8
rdata$r	SEGMENT
??_R3_Iostream_error_category@std@@8 DD 00H		; std::_Iostream_error_category::`RTTI Class Hierarchy Descriptor'
	DD	00H
	DD	03H
	DD	FLAT:??_R2_Iostream_error_category@std@@8
rdata$r	ENDS
;	COMDAT ??_R0?AV_Iostream_error_category@std@@@8
_DATA	SEGMENT
??_R0?AV_Iostream_error_category@std@@@8 DD FLAT:??_7type_info@@6B@ ; std::_Iostream_error_category `RTTI Type Descriptor'
	DD	00H
	DB	'.?AV_Iostream_error_category@std@@', 00H
_DATA	ENDS
;	COMDAT ??_R4_Iostream_error_category@std@@6B@
rdata$r	SEGMENT
??_R4_Iostream_error_category@std@@6B@ DD 00H		; std::_Iostream_error_category::`RTTI Complete Object Locator'
	DD	00H
	DD	00H
	DD	FLAT:??_R0?AV_Iostream_error_category@std@@@8
	DD	FLAT:??_R3_Iostream_error_category@std@@8
rdata$r	ENDS
;	COMDAT ??_R1A@?0A@EA@_Generic_error_category@std@@8
rdata$r	SEGMENT
??_R1A@?0A@EA@_Generic_error_category@std@@8 DD FLAT:??_R0?AV_Generic_error_category@std@@@8 ; std::_Generic_error_category::`RTTI Base Class Descriptor at (0,-1,0,64)'
	DD	01H
	DD	00H
	DD	0ffffffffH
	DD	00H
	DD	040H
	DD	FLAT:??_R3_Generic_error_category@std@@8
rdata$r	ENDS
;	COMDAT ??_R2_Generic_error_category@std@@8
rdata$r	SEGMENT
??_R2_Generic_error_category@std@@8 DD FLAT:??_R1A@?0A@EA@_Generic_error_category@std@@8 ; std::_Generic_error_category::`RTTI Base Class Array'
	DD	FLAT:??_R1A@?0A@EA@error_category@std@@8
rdata$r	ENDS
;	COMDAT ??_R3_Generic_error_category@std@@8
rdata$r	SEGMENT
??_R3_Generic_error_category@std@@8 DD 00H		; std::_Generic_error_category::`RTTI Class Hierarchy Descriptor'
	DD	00H
	DD	02H
	DD	FLAT:??_R2_Generic_error_category@std@@8
rdata$r	ENDS
;	COMDAT ??_R0?AV_Generic_error_category@std@@@8
_DATA	SEGMENT
??_R0?AV_Generic_error_category@std@@@8 DD FLAT:??_7type_info@@6B@ ; std::_Generic_error_category `RTTI Type Descriptor'
	DD	00H
	DB	'.?AV_Generic_error_category@std@@', 00H
_DATA	ENDS
;	COMDAT ??_R4_Generic_error_category@std@@6B@
rdata$r	SEGMENT
??_R4_Generic_error_category@std@@6B@ DD 00H		; std::_Generic_error_category::`RTTI Complete Object Locator'
	DD	00H
	DD	00H
	DD	FLAT:??_R0?AV_Generic_error_category@std@@@8
	DD	FLAT:??_R3_Generic_error_category@std@@8
rdata$r	ENDS
;	COMDAT ??_R1A@?0A@EA@error_category@std@@8
rdata$r	SEGMENT
??_R1A@?0A@EA@error_category@std@@8 DD FLAT:??_R0?AVerror_category@std@@@8 ; std::error_category::`RTTI Base Class Descriptor at (0,-1,0,64)'
	DD	00H
	DD	00H
	DD	0ffffffffH
	DD	00H
	DD	040H
	DD	FLAT:??_R3error_category@std@@8
rdata$r	ENDS
;	COMDAT ??_R2error_category@std@@8
rdata$r	SEGMENT
??_R2error_category@std@@8 DD FLAT:??_R1A@?0A@EA@error_category@std@@8 ; std::error_category::`RTTI Base Class Array'
rdata$r	ENDS
;	COMDAT ??_R3error_category@std@@8
rdata$r	SEGMENT
??_R3error_category@std@@8 DD 00H			; std::error_category::`RTTI Class Hierarchy Descriptor'
	DD	00H
	DD	01H
	DD	FLAT:??_R2error_category@std@@8
rdata$r	ENDS
;	COMDAT ??_R0?AVerror_category@std@@@8
_DATA	SEGMENT
??_R0?AVerror_category@std@@@8 DD FLAT:??_7type_info@@6B@ ; std::error_category `RTTI Type Descriptor'
	DD	00H
	DB	'.?AVerror_category@std@@', 00H
_DATA	ENDS
;	COMDAT ??_R4error_category@std@@6B@
rdata$r	SEGMENT
??_R4error_category@std@@6B@ DD 00H			; std::error_category::`RTTI Complete Object Locator'
	DD	00H
	DD	00H
	DD	FLAT:??_R0?AVerror_category@std@@@8
	DD	FLAT:??_R3error_category@std@@8
rdata$r	ENDS
;	COMDAT ??_C@_0BA@JFNIOLAK@string?5too?5long?$AA@
CONST	SEGMENT
??_C@_0BA@JFNIOLAK@string?5too?5long?$AA@ DB 'string too long', 00H ; `string'
CONST	ENDS
;	COMDAT ??_C@_0BI@CFPLBAOH@invalid?5string?5position?$AA@
CONST	SEGMENT
??_C@_0BI@CFPLBAOH@invalid?5string?5position?$AA@ DB 'invalid string posi'
	DB	'tion', 00H					; `string'
CONST	ENDS
;	COMDAT ??_C@_06FHFOAHML@system?$AA@
CONST	SEGMENT
??_C@_06FHFOAHML@system?$AA@ DB 'system', 00H		; `string'
CONST	ENDS
;	COMDAT ??_7_System_error_category@std@@6B@
CONST	SEGMENT
??_7_System_error_category@std@@6B@ DD FLAT:??_R4_System_error_category@std@@6B@ ; std::_System_error_category::`vftable'
	DD	FLAT:??_E_System_error_category@std@@UAEPAXI@Z
	DD	FLAT:?name@_System_error_category@std@@UBEPBDXZ
	DD	FLAT:?message@_System_error_category@std@@UBE?AV?$basic_string@DU?$char_traits@D@std@@V?$allocator@D@2@@2@H@Z
	DD	FLAT:?default_error_condition@_System_error_category@std@@UBE?AVerror_condition@2@H@Z
	DD	FLAT:?equivalent@error_category@std@@UBE_NABVerror_code@2@H@Z
	DD	FLAT:?equivalent@error_category@std@@UBE_NHABVerror_condition@2@@Z
CONST	ENDS
;	COMDAT ??_C@_0BG@PADBLCHM@iostream?5stream?5error?$AA@
CONST	SEGMENT
??_C@_0BG@PADBLCHM@iostream?5stream?5error?$AA@ DB 'iostream stream error'
	DB	00H						; `string'
CONST	ENDS
;	COMDAT ??_C@_08LLGCOLLL@iostream?$AA@
CONST	SEGMENT
??_C@_08LLGCOLLL@iostream?$AA@ DB 'iostream', 00H	; `string'
CONST	ENDS
;	COMDAT ??_7_Iostream_error_category@std@@6B@
CONST	SEGMENT
??_7_Iostream_error_category@std@@6B@ DD FLAT:??_R4_Iostream_error_category@std@@6B@ ; std::_Iostream_error_category::`vftable'
	DD	FLAT:??_E_Iostream_error_category@std@@UAEPAXI@Z
	DD	FLAT:?name@_Iostream_error_category@std@@UBEPBDXZ
	DD	FLAT:?message@_Iostream_error_category@std@@UBE?AV?$basic_string@DU?$char_traits@D@std@@V?$allocator@D@2@@2@H@Z
	DD	FLAT:?default_error_condition@error_category@std@@UBE?AVerror_condition@2@H@Z
	DD	FLAT:?equivalent@error_category@std@@UBE_NABVerror_code@2@H@Z
	DD	FLAT:?equivalent@error_category@std@@UBE_NHABVerror_condition@2@@Z
CONST	ENDS
;	COMDAT ??_C@_0O@BFJCFAAK@unknown?5error?$AA@
CONST	SEGMENT
??_C@_0O@BFJCFAAK@unknown?5error?$AA@ DB 'unknown error', 00H ; `string'
CONST	ENDS
;	COMDAT ??_C@_07DCLBNMLN@generic?$AA@
CONST	SEGMENT
??_C@_07DCLBNMLN@generic?$AA@ DB 'generic', 00H		; `string'
CONST	ENDS
;	COMDAT ??_7_Generic_error_category@std@@6B@
CONST	SEGMENT
??_7_Generic_error_category@std@@6B@ DD FLAT:??_R4_Generic_error_category@std@@6B@ ; std::_Generic_error_category::`vftable'
	DD	FLAT:??_E_Generic_error_category@std@@UAEPAXI@Z
	DD	FLAT:?name@_Generic_error_category@std@@UBEPBDXZ
	DD	FLAT:?message@_Generic_error_category@std@@UBE?AV?$basic_string@DU?$char_traits@D@std@@V?$allocator@D@2@@2@H@Z
	DD	FLAT:?default_error_condition@error_category@std@@UBE?AVerror_condition@2@H@Z
	DD	FLAT:?equivalent@error_category@std@@UBE_NABVerror_code@2@H@Z
	DD	FLAT:?equivalent@error_category@std@@UBE_NHABVerror_condition@2@@Z
CONST	ENDS
;	COMDAT ??_7error_category@std@@6B@
CONST	SEGMENT
??_7error_category@std@@6B@ DD FLAT:??_R4error_category@std@@6B@ ; std::error_category::`vftable'
	DD	FLAT:??_Eerror_category@std@@UAEPAXI@Z
	DD	FLAT:__purecall
	DD	FLAT:__purecall
	DD	FLAT:?default_error_condition@error_category@std@@UBE?AVerror_condition@2@H@Z
	DD	FLAT:?equivalent@error_category@std@@UBE_NABVerror_code@2@H@Z
	DD	FLAT:?equivalent@error_category@std@@UBE_NHABVerror_condition@2@@Z
CONST	ENDS
;	COMDAT xdata$x
xdata$x	SEGMENT
__unwindtable$??$construct@PADAAPAD@?$allocator@D@std@@QAEXPAPADAAPAD@Z DD 0ffffffffH
	DD	FLAT:__unwindfunclet$??$construct@PADAAPAD@?$allocator@D@std@@QAEXPAPADAAPAD@Z$0
__ehfuncinfo$??$construct@PADAAPAD@?$allocator@D@std@@QAEXPAPADAAPAD@Z DD 019930522H
	DD	01H
	DD	FLAT:__unwindtable$??$construct@PADAAPAD@?$allocator@D@std@@QAEXPAPADAAPAD@Z
	DD	2 DUP(00H)
	DD	2 DUP(00H)
	DD	00H
	DD	01H
xdata$x	ENDS
xdata$x	SEGMENT
__unwindtable$?RunExplosion@AircraftClass@@QAEXXZ DD 0ffffffffH
	DD	FLAT:__unwindfunclet$?RunExplosion@AircraftClass@@QAEXXZ$0
__unwindtable$?SetupDamageF16Effects@AircraftClass@@IAEXPAUDamageF16PieceStructure@@@Z DD 0ffffffffH
	DD	FLAT:__unwindfunclet$?SetupDamageF16Effects@AircraftClass@@IAEXPAUDamageF16PieceStructure@@@Z$0
	DD	0ffffffffH
	DD	FLAT:__unwindfunclet$?SetupDamageF16Effects@AircraftClass@@IAEXPAUDamageF16PieceStructure@@@Z$1
__unwindtable$?CheckObjectCollision@AircraftClass@@QAEXXZ DD 0ffffffffH
	DD	FLAT:__unwindfunclet$?CheckObjectCollision@AircraftClass@@QAEXXZ$0
	DD	0ffffffffH
	DD	FLAT:__unwindfunclet$?CheckObjectCollision@AircraftClass@@QAEXXZ$1
__ehfuncinfo$?SetupDamageF16Effects@AircraftClass@@IAEXPAUDamageF16PieceStructure@@@Z DD 019930522H
	DD	02H
	DD	FLAT:__unwindtable$?SetupDamageF16Effects@AircraftClass@@IAEXPAUDamageF16PieceStructure@@@Z
	DD	2 DUP(00H)
	DD	2 DUP(00H)
	DD	00H
	DD	01H
__ehfuncinfo$?CheckObjectCollision@AircraftClass@@QAEXXZ DD 019930522H
	DD	02H
	DD	FLAT:__unwindtable$?CheckObjectCollision@AircraftClass@@QAEXXZ
	DD	2 DUP(00H)
	DD	2 DUP(00H)
	DD	00H
	DD	01H
__ehfuncinfo$?RunExplosion@AircraftClass@@QAEXXZ DD 019930522H
	DD	01H
	DD	FLAT:__unwindtable$?RunExplosion@AircraftClass@@QAEXXZ
	DD	2 DUP(00H)
	DD	2 DUP(00H)
	DD	00H
	DD	01H
xdata$x	ENDS
;	COMDAT xdata$x
xdata$x	SEGMENT
__catchsym$?_Copy@?$basic_string@DU?$char_traits@D@std@@V?$allocator@D@2@@std@@QAEXII@Z$5 DD 040H
	DD	00H
	DD	00H
	DD	FLAT:__catch$?_Copy@?$basic_string@DU?$char_traits@D@std@@V?$allocator@D@2@@std@@QAEXII@Z$0
__catchsym$?_Copy@?$basic_string@DU?$char_traits@D@std@@V?$allocator@D@2@@std@@QAEXII@Z$4 DD 040H
	DD	00H
	DD	00H
	DD	FLAT:__catch$?_Copy@?$basic_string@DU?$char_traits@D@std@@V?$allocator@D@2@@std@@QAEXII@Z$1
__unwindtable$?_Copy@?$basic_string@DU?$char_traits@D@std@@V?$allocator@D@2@@std@@QAEXII@Z DD 0ffffffffH
	DD	00H
	DD	0ffffffffH
	DD	00H
	DD	01H
	DD	00H
	DD	01H
	DD	00H
__ehfuncinfo$?_Copy@?$basic_string@DU?$char_traits@D@std@@V?$allocator@D@2@@std@@QAEXII@Z DD 019930522H
	DD	04H
	DD	FLAT:__unwindtable$?_Copy@?$basic_string@DU?$char_traits@D@std@@V?$allocator@D@2@@std@@QAEXII@Z
	DD	02H
	DD	FLAT:__tryblocktable$?_Copy@?$basic_string@DU?$char_traits@D@std@@V?$allocator@D@2@@std@@QAEXII@Z
	DD	2 DUP(00H)
	DD	00H
	DD	01H
__tryblocktable$?_Copy@?$basic_string@DU?$char_traits@D@std@@V?$allocator@D@2@@std@@QAEXII@Z DD 02H
	DD	02H
	DD	03H
	DD	01H
	DD	FLAT:__catchsym$?_Copy@?$basic_string@DU?$char_traits@D@std@@V?$allocator@D@2@@std@@QAEXII@Z$4
	DD	00H
	DD	00H
	DD	03H
	DD	01H
	DD	FLAT:__catchsym$?_Copy@?$basic_string@DU?$char_traits@D@std@@V?$allocator@D@2@@std@@QAEXII@Z$5
xdata$x	ENDS
CRT$XCU	SEGMENT
_allocator_arg$initializer$ DD FLAT:??__Eallocator_arg@std@@YAXXZ
CRT$XCU	ENDS
;	COMDAT CRT$XCU
CRT$XCU	SEGMENT
?_Generic_object$initializer$@?$_Error_objects@H@std@@2P6AXXZA DD FLAT:??__E?_Generic_object@?$_Error_objects@H@std@@2V_Generic_error_category@2@A@@YAXXZ ; std::_Error_objects<int>::_Generic_object$initializer$
CRT$XCU	ENDS
;	COMDAT CRT$XCU
CRT$XCU	SEGMENT
?_Iostream_object$initializer$@?$_Error_objects@H@std@@2P6AXXZA DD FLAT:??__E?_Iostream_object@?$_Error_objects@H@std@@2V_Iostream_error_category@2@A@@YAXXZ ; std::_Error_objects<int>::_Iostream_object$initializer$
CRT$XCU	ENDS
;	COMDAT CRT$XCU
CRT$XCU	SEGMENT
?_System_object$initializer$@?$_Error_objects@H@std@@2P6AXXZA DD FLAT:??__E?_System_object@?$_Error_objects@H@std@@2V_System_error_category@2@A@@YAXXZ ; std::_Error_objects<int>::_System_object$initializer$
CRT$XCU	ENDS
;	COMDAT CRT$XCU
CRT$XCU	SEGMENT
?id$initializer$@?$num_put@DV?$back_insert_iterator@V?$basic_string@DU?$char_traits@D@std@@V?$allocator@D@2@@std@@@std@@@std@@2P6AXXZA DD FLAT:??__E?id@?$num_put@DV?$back_insert_iterator@V?$basic_string@DU?$char_traits@D@std@@V?$allocator@D@2@@std@@@std@@@std@@2V0locale@2@A@@YAXXZ ; std::num_put<char,std::back_insert_iterator<std::basic_string<char,std::char_traits<char>,std::allocator<char> > > >::id$initializer$
CRT$XCU	ENDS
;	COMDAT CRT$XCU
CRT$XCU	SEGMENT
?id$initializer$@?$num_put@_WV?$back_insert_iterator@V?$basic_string@_WU?$char_traits@_W@std@@V?$allocator@_W@2@@std@@@std@@@std@@2P6AXXZA DD FLAT:??__E?id@?$num_put@_WV?$back_insert_iterator@V?$basic_string@_WU?$char_traits@_W@std@@V?$allocator@_W@2@@std@@@std@@@std@@2V0locale@2@A@@YAXXZ ; std::num_put<wchar_t,std::back_insert_iterator<std::basic_string<wchar_t,std::char_traits<wchar_t>,std::allocator<wchar_t> > > >::id$initializer$
CRT$XCU	ENDS
;	COMDAT CRT$XCU
CRT$XCU	SEGMENT
?id$initializer$@?$numpunct@D@std@@2P6AXXZA DD FLAT:??__E?id@?$numpunct@D@std@@2V0locale@2@A@@YAXXZ ; std::numpunct<char>::id$initializer$
CRT$XCU	ENDS
;	COMDAT CRT$XCU
CRT$XCU	SEGMENT
?id$initializer$@?$numpunct@_W@std@@2P6AXXZA DD FLAT:??__E?id@?$numpunct@_W@std@@2V0locale@2@A@@YAXXZ ; std::numpunct<wchar_t>::id$initializer$
CRT$XCU	ENDS
; Function compile flags: /Odtp
; File c:\program files (x86)\microsoft visual studio 11.0\vc\include\xmemory0
;	COMDAT ??$destroy@PAD@?$allocator@D@std@@QAEXPAPAD@Z
_TEXT	SEGMENT
_this$ = -4						; size = 4
__Ptr$ = 8						; size = 4
??$destroy@PAD@?$allocator@D@std@@QAEXPAPAD@Z PROC	; std::allocator<char>::destroy<char *>, COMDAT
; _this$ = ecx

; 621  : 		void destroy(_Uty *_Ptr)

	push	ebp
	mov	ebp, esp
	push	ecx
	mov	DWORD PTR _this$[ebp], ecx

; 622  : 		{	// destroy object at _Ptr
; 623  : 		_Ptr->~_Uty();
; 624  : 		}

	mov	esp, ebp
	pop	ebp
	ret	4
??$destroy@PAD@?$allocator@D@std@@QAEXPAPAD@Z ENDP	; std::allocator<char>::destroy<char *>
_TEXT	ENDS
; Function compile flags: /Odtp
; File c:\program files (x86)\microsoft visual studio 11.0\vc\include\xmemory0
;	COMDAT ??$construct@PADAAPAD@?$allocator@D@std@@QAEXPAPADAAPAD@Z
_TEXT	SEGMENT
$T2 = -28						; size = 4
_this$ = -24						; size = 4
tv73 = -20						; size = 4
$T3 = -16						; size = 4
__$EHRec$ = -12						; size = 12
__Ptr$ = 8						; size = 4
__V0$ = 12						; size = 4
??$construct@PADAAPAD@?$allocator@D@std@@QAEXPAPADAAPAD@Z PROC ; std::allocator<char>::construct<char *,char * &>, COMDAT
; _this$ = ecx

; 617  : _VARIADIC_EXPAND_0X(_ALLOC_MEMBER_CONSTRUCT, , , , )

	push	ebp
	mov	ebp, esp
	push	-1
	push	__ehhandler$??$construct@PADAAPAD@?$allocator@D@std@@QAEXPAPADAAPAD@Z
	mov	eax, DWORD PTR fs:0
	push	eax
	sub	esp, 16					; 00000010H
	mov	eax, DWORD PTR ___security_cookie
	xor	eax, ebp
	push	eax
	lea	eax, DWORD PTR __$EHRec$[ebp]
	mov	DWORD PTR fs:0, eax
	mov	DWORD PTR _this$[ebp], ecx
	mov	eax, DWORD PTR __Ptr$[ebp]
	push	eax
	push	4
	call	??2@YAPAXIPAX@Z				; operator new
	add	esp, 8
	mov	DWORD PTR $T3[ebp], eax
	mov	DWORD PTR __$EHRec$[ebp+8], 0
	cmp	DWORD PTR $T3[ebp], 0
	je	SHORT $LN3@construct
	mov	ecx, DWORD PTR __V0$[ebp]
	push	ecx
	call	??$forward@AAPAD@std@@YAAAPADAAPAD@Z	; std::forward<char * &>
	add	esp, 4
	mov	edx, DWORD PTR $T3[ebp]
	mov	eax, DWORD PTR [eax]
	mov	DWORD PTR [edx], eax
	mov	ecx, DWORD PTR $T3[ebp]
	mov	DWORD PTR tv73[ebp], ecx
	jmp	SHORT $LN4@construct
$LN3@construct:
	mov	DWORD PTR tv73[ebp], 0
$LN4@construct:
	mov	edx, DWORD PTR tv73[ebp]
	mov	DWORD PTR $T2[ebp], edx
	mov	DWORD PTR __$EHRec$[ebp+8], -1
	mov	ecx, DWORD PTR __$EHRec$[ebp]
	mov	DWORD PTR fs:0, ecx
	pop	ecx
	mov	esp, ebp
	pop	ebp
	ret	8
_TEXT	ENDS
;	COMDAT text$x
text$x	SEGMENT
__unwindfunclet$??$construct@PADAAPAD@?$allocator@D@std@@QAEXPAPADAAPAD@Z$0:
	mov	eax, DWORD PTR __Ptr$[ebp]
	push	eax
	mov	eax, DWORD PTR $T3[ebp]
	push	eax
	call	??3@YAXPAX0@Z				; operator delete
	add	esp, 8
	ret	0
__ehhandler$??$construct@PADAAPAD@?$allocator@D@std@@QAEXPAPADAAPAD@Z:
	mov	edx, DWORD PTR [esp+8]
	lea	eax, DWORD PTR [edx+12]
	mov	ecx, DWORD PTR [edx-20]
	xor	ecx, eax
	call	@__security_check_cookie@4
	mov	eax, OFFSET __ehfuncinfo$??$construct@PADAAPAD@?$allocator@D@std@@QAEXPAPADAAPAD@Z
	jmp	___CxxFrameHandler3
text$x	ENDS
??$construct@PADAAPAD@?$allocator@D@std@@QAEXPAPADAAPAD@Z ENDP ; std::allocator<char>::construct<char *,char * &>
; Function compile flags: /Odtp
; File c:\program files (x86)\microsoft visual studio 11.0\vc\include\xlocnum
;	COMDAT ??__E?id@?$numpunct@_W@std@@2V0locale@2@A@@YAXXZ
text$yc	SEGMENT
??__E?id@?$numpunct@_W@std@@2V0locale@2@A@@YAXXZ PROC	; `dynamic initializer for 'std::numpunct<wchar_t>::id'', COMDAT

; 155  : 		void _Getvals(wchar_t, const lconv *_Ptr, _Locinfo::_Cvtvec)

	push	ebp
	mov	ebp, esp
	push	0
	mov	ecx, OFFSET ?id@?$numpunct@_W@std@@2V0locale@2@A ; std::numpunct<wchar_t>::id
	call	??0id@locale@std@@QAE@I@Z		; std::locale::id::id
	pop	ebp
	ret	0
??__E?id@?$numpunct@_W@std@@2V0locale@2@A@@YAXXZ ENDP	; `dynamic initializer for 'std::numpunct<wchar_t>::id''
text$yc	ENDS
; Function compile flags: /Odtp
; File c:\program files (x86)\microsoft visual studio 11.0\vc\include\xlocnum
;	COMDAT ??__E?id@?$numpunct@D@std@@2V0locale@2@A@@YAXXZ
text$yc	SEGMENT
??__E?id@?$numpunct@D@std@@2V0locale@2@A@@YAXXZ PROC	; `dynamic initializer for 'std::numpunct<char>::id'', COMDAT

; 155  : 		void _Getvals(wchar_t, const lconv *_Ptr, _Locinfo::_Cvtvec)

	push	ebp
	mov	ebp, esp
	push	0
	mov	ecx, OFFSET ?id@?$numpunct@D@std@@2V0locale@2@A ; std::numpunct<char>::id
	call	??0id@locale@std@@QAE@I@Z		; std::locale::id::id
	pop	ebp
	ret	0
??__E?id@?$numpunct@D@std@@2V0locale@2@A@@YAXXZ ENDP	; `dynamic initializer for 'std::numpunct<char>::id''
text$yc	ENDS
; Function compile flags: /Odtp
; File c:\program files (x86)\microsoft visual studio 11.0\vc\include\xlocnum
;	COMDAT ??__E?id@?$num_put@_WV?$back_insert_iterator@V?$basic_string@_WU?$char_traits@_W@std@@V?$allocator@_W@2@@std@@@std@@@std@@2V0locale@2@A@@YAXXZ
text$yc	SEGMENT
??__E?id@?$num_put@_WV?$back_insert_iterator@V?$basic_string@_WU?$char_traits@_W@std@@V?$allocator@_W@2@@std@@@std@@@std@@2V0locale@2@A@@YAXXZ PROC ; `dynamic initializer for 'std::num_put<wchar_t,std::back_insert_iterator<std::basic_string<wchar_t,std::char_traits<wchar_t>,std::allocator<wchar_t> > > >::id'', COMDAT

; 155  : 		void _Getvals(wchar_t, const lconv *_Ptr, _Locinfo::_Cvtvec)

	push	ebp
	mov	ebp, esp
	push	0
	mov	ecx, OFFSET ?id@?$num_put@_WV?$back_insert_iterator@V?$basic_string@_WU?$char_traits@_W@std@@V?$allocator@_W@2@@std@@@std@@@std@@2V0locale@2@A ; std::num_put<wchar_t,std::back_insert_iterator<std::basic_string<wchar_t,std::char_traits<wchar_t>,std::allocator<wchar_t> > > >::id
	call	??0id@locale@std@@QAE@I@Z		; std::locale::id::id
	pop	ebp
	ret	0
??__E?id@?$num_put@_WV?$back_insert_iterator@V?$basic_string@_WU?$char_traits@_W@std@@V?$allocator@_W@2@@std@@@std@@@std@@2V0locale@2@A@@YAXXZ ENDP ; `dynamic initializer for 'std::num_put<wchar_t,std::back_insert_iterator<std::basic_string<wchar_t,std::char_traits<wchar_t>,std::allocator<wchar_t> > > >::id''
text$yc	ENDS
; Function compile flags: /Odtp
; File c:\program files (x86)\microsoft visual studio 11.0\vc\include\xlocnum
;	COMDAT ??__E?id@?$num_put@DV?$back_insert_iterator@V?$basic_string@DU?$char_traits@D@std@@V?$allocator@D@2@@std@@@std@@@std@@2V0locale@2@A@@YAXXZ
text$yc	SEGMENT
??__E?id@?$num_put@DV?$back_insert_iterator@V?$basic_string@DU?$char_traits@D@std@@V?$allocator@D@2@@std@@@std@@@std@@2V0locale@2@A@@YAXXZ PROC ; `dynamic initializer for 'std::num_put<char,std::back_insert_iterator<std::basic_string<char,std::char_traits<char>,std::allocator<char> > > >::id'', COMDAT

; 155  : 		void _Getvals(wchar_t, const lconv *_Ptr, _Locinfo::_Cvtvec)

	push	ebp
	mov	ebp, esp
	push	0
	mov	ecx, OFFSET ?id@?$num_put@DV?$back_insert_iterator@V?$basic_string@DU?$char_traits@D@std@@V?$allocator@D@2@@std@@@std@@@std@@2V0locale@2@A ; std::num_put<char,std::back_insert_iterator<std::basic_string<char,std::char_traits<char>,std::allocator<char> > > >::id
	call	??0id@locale@std@@QAE@I@Z		; std::locale::id::id
	pop	ebp
	ret	0
??__E?id@?$num_put@DV?$back_insert_iterator@V?$basic_string@DU?$char_traits@D@std@@V?$allocator@D@2@@std@@@std@@@std@@2V0locale@2@A@@YAXXZ ENDP ; `dynamic initializer for 'std::num_put<char,std::back_insert_iterator<std::basic_string<char,std::char_traits<char>,std::allocator<char> > > >::id''
text$yc	ENDS
; Function compile flags: /Odtp
; File c:\program files (x86)\microsoft visual studio 11.0\vc\include\xmemory0
;	COMDAT ??$destroy@PAD@?$allocator_traits@V?$allocator@D@std@@@std@@SAXAAV?$allocator@D@1@PAPAD@Z
_TEXT	SEGMENT
__Al$ = 8						; size = 4
__Ptr$ = 12						; size = 4
??$destroy@PAD@?$allocator_traits@V?$allocator@D@std@@@std@@SAXAAV?$allocator@D@1@PAPAD@Z PROC ; std::allocator_traits<std::allocator<char> >::destroy<char *>, COMDAT

; 755  : 		static void destroy(_Alloc& _Al, _Uty *_Ptr)

	push	ebp
	mov	ebp, esp

; 756  : 		{	// destroy object at _Ptr
; 757  : 		_Al.destroy(_Ptr);

	mov	eax, DWORD PTR __Ptr$[ebp]
	push	eax
	mov	ecx, DWORD PTR __Al$[ebp]
	call	??$destroy@PAD@?$allocator@D@std@@QAEXPAPAD@Z ; std::allocator<char>::destroy<char *>

; 758  : 		}

	pop	ebp
	ret	0
??$destroy@PAD@?$allocator_traits@V?$allocator@D@std@@@std@@SAXAAV?$allocator@D@1@PAPAD@Z ENDP ; std::allocator_traits<std::allocator<char> >::destroy<char *>
_TEXT	ENDS
; Function compile flags: /Odtp
; File c:\program files (x86)\microsoft visual studio 11.0\vc\include\xmemory0
;	COMDAT ??$construct@PADAAPAD@?$allocator_traits@V?$allocator@D@std@@@std@@SAXAAV?$allocator@D@1@PAPADAAPAD@Z
_TEXT	SEGMENT
__Al$ = 8						; size = 4
__Ptr$ = 12						; size = 4
__V0$ = 16						; size = 4
??$construct@PADAAPAD@?$allocator_traits@V?$allocator@D@std@@@std@@SAXAAV?$allocator@D@1@PAPADAAPAD@Z PROC ; std::allocator_traits<std::allocator<char> >::construct<char *,char * &>, COMDAT

; 751  : _VARIADIC_EXPAND_0X(_ALLOC_TRAITS_SPECIAL_CONSTRUCT, , , , )

	push	ebp
	mov	ebp, esp
	mov	eax, DWORD PTR __V0$[ebp]
	push	eax
	call	??$forward@AAPAD@std@@YAAAPADAAPAD@Z	; std::forward<char * &>
	add	esp, 4
	push	eax
	mov	ecx, DWORD PTR __Ptr$[ebp]
	push	ecx
	mov	ecx, DWORD PTR __Al$[ebp]
	call	??$construct@PADAAPAD@?$allocator@D@std@@QAEXPAPADAAPAD@Z ; std::allocator<char>::construct<char *,char * &>
	pop	ebp
	ret	0
??$construct@PADAAPAD@?$allocator_traits@V?$allocator@D@std@@@std@@SAXAAV?$allocator@D@1@PAPADAAPAD@Z ENDP ; std::allocator_traits<std::allocator<char> >::construct<char *,char * &>
_TEXT	ENDS
; Function compile flags: /Odtp
; File c:\program files (x86)\microsoft visual studio 11.0\vc\include\type_traits
;	COMDAT ??$forward@AAPAD@std@@YAAAPADAAPAD@Z
_TEXT	SEGMENT
__Arg$ = 8						; size = 4
??$forward@AAPAD@std@@YAAAPADAAPAD@Z PROC		; std::forward<char * &>, COMDAT

; 1775 : 	{	// forward an lvalue

	push	ebp
	mov	ebp, esp

; 1776 : 	return (static_cast<_Ty&&>(_Arg));

	mov	eax, DWORD PTR __Arg$[ebp]

; 1777 : 	}

	pop	ebp
	ret	0
??$forward@AAPAD@std@@YAAAPADAAPAD@Z ENDP		; std::forward<char * &>
_TEXT	ENDS
; Function compile flags: /Odtp
;	COMDAT ??__F?_System_object@?$_Error_objects@H@std@@2V_System_error_category@2@A@@YAXXZ
text$yd	SEGMENT
??__F?_System_object@?$_Error_objects@H@std@@2V_System_error_category@2@A@@YAXXZ PROC ; `dynamic atexit destructor for 'std::_Error_objects<int>::_System_object'', COMDAT
	push	ebp
	mov	ebp, esp
	mov	ecx, OFFSET ?_System_object@?$_Error_objects@H@std@@2V_System_error_category@2@A ; std::_Error_objects<int>::_System_object
	call	??1_System_error_category@std@@UAE@XZ
	pop	ebp
	ret	0
??__F?_System_object@?$_Error_objects@H@std@@2V_System_error_category@2@A@@YAXXZ ENDP ; `dynamic atexit destructor for 'std::_Error_objects<int>::_System_object''
text$yd	ENDS
; Function compile flags: /Odtp
; File c:\program files (x86)\microsoft visual studio 11.0\vc\include\xmemory0
;	COMDAT ??__E?_System_object@?$_Error_objects@H@std@@2V_System_error_category@2@A@@YAXXZ
text$yc	SEGMENT
??__E?_System_object@?$_Error_objects@H@std@@2V_System_error_category@2@A@@YAXXZ PROC ; `dynamic initializer for 'std::_Error_objects<int>::_System_object'', COMDAT

; 627  : 		{	// estimate maximum array size

	push	ebp
	mov	ebp, esp
	mov	ecx, OFFSET ?_System_object@?$_Error_objects@H@std@@2V_System_error_category@2@A ; std::_Error_objects<int>::_System_object
	call	??0_System_error_category@std@@QAE@XZ	; std::_System_error_category::_System_error_category
	push	OFFSET ??__F?_System_object@?$_Error_objects@H@std@@2V_System_error_category@2@A@@YAXXZ ; `dynamic atexit destructor for 'std::_Error_objects<int>::_System_object''
	call	_atexit
	add	esp, 4
	pop	ebp
	ret	0
??__E?_System_object@?$_Error_objects@H@std@@2V_System_error_category@2@A@@YAXXZ ENDP ; `dynamic initializer for 'std::_Error_objects<int>::_System_object''
text$yc	ENDS
; Function compile flags: /Odtp
;	COMDAT ??__F?_Iostream_object@?$_Error_objects@H@std@@2V_Iostream_error_category@2@A@@YAXXZ
text$yd	SEGMENT
??__F?_Iostream_object@?$_Error_objects@H@std@@2V_Iostream_error_category@2@A@@YAXXZ PROC ; `dynamic atexit destructor for 'std::_Error_objects<int>::_Iostream_object'', COMDAT
	push	ebp
	mov	ebp, esp
	mov	ecx, OFFSET ?_Iostream_object@?$_Error_objects@H@std@@2V_Iostream_error_category@2@A ; std::_Error_objects<int>::_Iostream_object
	call	??1_Iostream_error_category@std@@UAE@XZ
	pop	ebp
	ret	0
??__F?_Iostream_object@?$_Error_objects@H@std@@2V_Iostream_error_category@2@A@@YAXXZ ENDP ; `dynamic atexit destructor for 'std::_Error_objects<int>::_Iostream_object''
text$yd	ENDS
; Function compile flags: /Odtp
; File c:\program files (x86)\microsoft visual studio 11.0\vc\include\xmemory0
;	COMDAT ??__E?_Iostream_object@?$_Error_objects@H@std@@2V_Iostream_error_category@2@A@@YAXXZ
text$yc	SEGMENT
??__E?_Iostream_object@?$_Error_objects@H@std@@2V_Iostream_error_category@2@A@@YAXXZ PROC ; `dynamic initializer for 'std::_Error_objects<int>::_Iostream_object'', COMDAT

; 627  : 		{	// estimate maximum array size

	push	ebp
	mov	ebp, esp
	mov	ecx, OFFSET ?_Iostream_object@?$_Error_objects@H@std@@2V_Iostream_error_category@2@A ; std::_Error_objects<int>::_Iostream_object
	call	??0_Iostream_error_category@std@@QAE@XZ	; std::_Iostream_error_category::_Iostream_error_category
	push	OFFSET ??__F?_Iostream_object@?$_Error_objects@H@std@@2V_Iostream_error_category@2@A@@YAXXZ ; `dynamic atexit destructor for 'std::_Error_objects<int>::_Iostream_object''
	call	_atexit
	add	esp, 4
	pop	ebp
	ret	0
??__E?_Iostream_object@?$_Error_objects@H@std@@2V_Iostream_error_category@2@A@@YAXXZ ENDP ; `dynamic initializer for 'std::_Error_objects<int>::_Iostream_object''
text$yc	ENDS
; Function compile flags: /Odtp
;	COMDAT ??__F?_Generic_object@?$_Error_objects@H@std@@2V_Generic_error_category@2@A@@YAXXZ
text$yd	SEGMENT
??__F?_Generic_object@?$_Error_objects@H@std@@2V_Generic_error_category@2@A@@YAXXZ PROC ; `dynamic atexit destructor for 'std::_Error_objects<int>::_Generic_object'', COMDAT
	push	ebp
	mov	ebp, esp
	mov	ecx, OFFSET ?_Generic_object@?$_Error_objects@H@std@@2V_Generic_error_category@2@A ; std::_Error_objects<int>::_Generic_object
	call	??1_Generic_error_category@std@@UAE@XZ
	pop	ebp
	ret	0
??__F?_Generic_object@?$_Error_objects@H@std@@2V_Generic_error_category@2@A@@YAXXZ ENDP ; `dynamic atexit destructor for 'std::_Error_objects<int>::_Generic_object''
text$yd	ENDS
; Function compile flags: /Odtp
; File c:\program files (x86)\microsoft visual studio 11.0\vc\include\xmemory0
;	COMDAT ??__E?_Generic_object@?$_Error_objects@H@std@@2V_Generic_error_category@2@A@@YAXXZ
text$yc	SEGMENT
??__E?_Generic_object@?$_Error_objects@H@std@@2V_Generic_error_category@2@A@@YAXXZ PROC ; `dynamic initializer for 'std::_Error_objects<int>::_Generic_object'', COMDAT

; 627  : 		{	// estimate maximum array size

	push	ebp
	mov	ebp, esp
	mov	ecx, OFFSET ?_Generic_object@?$_Error_objects@H@std@@2V_Generic_error_category@2@A ; std::_Error_objects<int>::_Generic_object
	call	??0_Generic_error_category@std@@QAE@XZ	; std::_Generic_error_category::_Generic_error_category
	push	OFFSET ??__F?_Generic_object@?$_Error_objects@H@std@@2V_Generic_error_category@2@A@@YAXXZ ; `dynamic atexit destructor for 'std::_Error_objects<int>::_Generic_object''
	call	_atexit
	add	esp, 4
	pop	ebp
	ret	0
??__E?_Generic_object@?$_Error_objects@H@std@@2V_Generic_error_category@2@A@@YAXXZ ENDP ; `dynamic initializer for 'std::_Error_objects<int>::_Generic_object''
text$yc	ENDS
; Function compile flags: /Odtp
; File c:\program files (x86)\microsoft visual studio 11.0\vc\include\xmemory0
;	COMDAT ??$_Allocate@D@std@@YAPADIPAD@Z
_TEXT	SEGMENT
__Ptr$ = -4						; size = 4
__Count$ = 8						; size = 4
___formal$ = 12						; size = 4
??$_Allocate@D@std@@YAPADIPAD@Z PROC			; std::_Allocate<char>, COMDAT

; 22   : 	{	// allocate storage for _Count elements of type _Ty

	push	ebp
	mov	ebp, esp
	push	ecx

; 23   : 	void *_Ptr = 0;

	mov	DWORD PTR __Ptr$[ebp], 0

; 24   : 
; 25   : 	if (_Count == 0)

	cmp	DWORD PTR __Count$[ebp], 0
	jne	SHORT $LN4@Allocate

; 26   : 		;
; 27   : 	else if (((size_t)(-1) / sizeof (_Ty) < _Count)

	jmp	SHORT $LN3@Allocate
$LN4@Allocate:

; 28   : 		|| (_Ptr = ::operator new(_Count * sizeof (_Ty))) == 0)

	cmp	DWORD PTR __Count$[ebp], -1
	ja	SHORT $LN1@Allocate
	mov	eax, DWORD PTR __Count$[ebp]
	push	eax
	call	??2@YAPAXI@Z				; operator new
	add	esp, 4
	mov	DWORD PTR __Ptr$[ebp], eax
	cmp	DWORD PTR __Ptr$[ebp], 0
	jne	SHORT $LN3@Allocate
$LN1@Allocate:

; 29   : 		_Xbad_alloc();	// report no memory

	call	?_Xbad_alloc@std@@YAXXZ			; std::_Xbad_alloc
$LN3@Allocate:

; 30   : 
; 31   : 	return ((_Ty *)_Ptr);

	mov	eax, DWORD PTR __Ptr$[ebp]
$LN6@Allocate:

; 32   : 	}

	mov	esp, ebp
	pop	ebp
	ret	0
??$_Allocate@D@std@@YAPADIPAD@Z ENDP			; std::_Allocate<char>
_TEXT	ENDS
; Function compile flags: /Odtp
; File c:\program files (x86)\microsoft visual studio 11.0\vc\include\xstddef
;	COMDAT ??$addressof@D@std@@YAPADAAD@Z
_TEXT	SEGMENT
__Val$ = 8						; size = 4
??$addressof@D@std@@YAPADAAD@Z PROC			; std::addressof<char>, COMDAT

; 85   : 	{	// return address of _Val

	push	ebp
	mov	ebp, esp

; 86   : 	return (reinterpret_cast<_Ty *>(
; 87   : 		(&const_cast<char&>(
; 88   : 		reinterpret_cast<const volatile char&>(_Val)))));

	mov	eax, DWORD PTR __Val$[ebp]

; 89   : 	}

	pop	ebp
	ret	0
??$addressof@D@std@@YAPADAAD@Z ENDP			; std::addressof<char>
_TEXT	ENDS
; Function compile flags: /Odtp
; File c:\program files (x86)\microsoft visual studio 11.0\vc\include\xmemory0
;	COMDAT ??$destroy@PAD@?$_Wrap_alloc@V?$allocator@D@std@@@std@@QAEXPAPAD@Z
_TEXT	SEGMENT
_this$ = -4						; size = 4
__Ptr$ = 8						; size = 4
??$destroy@PAD@?$_Wrap_alloc@V?$allocator@D@std@@@std@@QAEXPAPAD@Z PROC ; std::_Wrap_alloc<std::allocator<char> >::destroy<char *>, COMDAT
; _this$ = ecx

; 907  : 		void destroy(_Ty *_Ptr)

	push	ebp
	mov	ebp, esp
	push	ecx
	mov	DWORD PTR _this$[ebp], ecx

; 908  : 		{	// destroy object at _Ptr
; 909  : 		_Mytraits::destroy(*this, _Ptr);

	mov	eax, DWORD PTR __Ptr$[ebp]
	push	eax
	mov	ecx, DWORD PTR _this$[ebp]
	push	ecx
	call	??$destroy@PAD@?$allocator_traits@V?$allocator@D@std@@@std@@SAXAAV?$allocator@D@1@PAPAD@Z ; std::allocator_traits<std::allocator<char> >::destroy<char *>
	add	esp, 8

; 910  : 		}

	mov	esp, ebp
	pop	ebp
	ret	4
??$destroy@PAD@?$_Wrap_alloc@V?$allocator@D@std@@@std@@QAEXPAPAD@Z ENDP ; std::_Wrap_alloc<std::allocator<char> >::destroy<char *>
_TEXT	ENDS
; Function compile flags: /Odtp
; File c:\program files (x86)\microsoft visual studio 11.0\vc\include\xmemory0
;	COMDAT ??$construct@PADAAPAD@?$_Wrap_alloc@V?$allocator@D@std@@@std@@QAEXPAPADAAPAD@Z
_TEXT	SEGMENT
_this$ = -4						; size = 4
__Ptr$ = 8						; size = 4
__V0$ = 12						; size = 4
??$construct@PADAAPAD@?$_Wrap_alloc@V?$allocator@D@std@@@std@@QAEXPAPADAAPAD@Z PROC ; std::_Wrap_alloc<std::allocator<char> >::construct<char *,char * &>, COMDAT
; _this$ = ecx

; 903  : _VARIADIC_EXPAND_0X(_WRAP_ALLOC_CONSTRUCT, , , , )

	push	ebp
	mov	ebp, esp
	push	ecx
	mov	DWORD PTR _this$[ebp], ecx
	mov	eax, DWORD PTR __V0$[ebp]
	push	eax
	call	??$forward@AAPAD@std@@YAAAPADAAPAD@Z	; std::forward<char * &>
	add	esp, 4
	push	eax
	mov	ecx, DWORD PTR __Ptr$[ebp]
	push	ecx
	mov	edx, DWORD PTR _this$[ebp]
	push	edx
	call	??$construct@PADAAPAD@?$allocator_traits@V?$allocator@D@std@@@std@@SAXAAV?$allocator@D@1@PAPADAAPAD@Z ; std::allocator_traits<std::allocator<char> >::construct<char *,char * &>
	add	esp, 12					; 0000000cH
	mov	esp, ebp
	pop	ebp
	ret	8
??$construct@PADAAPAD@?$_Wrap_alloc@V?$allocator@D@std@@@std@@QAEXPAPADAAPAD@Z ENDP ; std::_Wrap_alloc<std::allocator<char> >::construct<char *,char * &>
_TEXT	ENDS
; Function compile flags: /Odtp
; File c:\users\zhitao li\documents\visual studio 2012\projects\freefalcon\sim\aircraft\damage.cpp
_TEXT	SEGMENT
_orientation$ = 8					; size = 4
_origin$ = 12						; size = 4
_position$ = 16						; size = 4
_worldPosition$ = 20					; size = 4
_right$ = 24						; size = 1
?AssignACOrientation@@YAXAAPAUTrotation@@AAUTpoint@@11_N@Z PROC ; AssignACOrientation

; 3379 : {

	push	ebp
	mov	ebp, esp

; 3380 : 	// FRB - not now
; 3381 : 	if (!orientation)

	mov	eax, DWORD PTR _orientation$[ebp]
	cmp	DWORD PTR [eax], 0
	jne	SHORT $LN3@AssignACOr

; 3382 : 		return;

	jmp	$LN4@AssignACOr
$LN3@AssignACOr:

; 3383 : 
; 3384 : 	if ( right )

	movzx	ecx, BYTE PTR _right$[ebp]
	test	ecx, ecx
	je	$LN2@AssignACOr

; 3385 : 	{
; 3386 : 		position.x = orientation->M11*origin.x + orientation->M12*origin.y + orientation->M13*origin.z + worldPosition.x;

	mov	edx, DWORD PTR _orientation$[ebp]
	mov	eax, DWORD PTR [edx]
	mov	ecx, DWORD PTR _origin$[ebp]
	movss	xmm0, DWORD PTR [eax]
	mulss	xmm0, DWORD PTR [ecx]
	mov	edx, DWORD PTR _orientation$[ebp]
	mov	eax, DWORD PTR [edx]
	mov	ecx, DWORD PTR _origin$[ebp]
	movss	xmm1, DWORD PTR [eax+4]
	mulss	xmm1, DWORD PTR [ecx+4]
	addss	xmm0, xmm1
	mov	edx, DWORD PTR _orientation$[ebp]
	mov	eax, DWORD PTR [edx]
	mov	ecx, DWORD PTR _origin$[ebp]
	movss	xmm1, DWORD PTR [eax+8]
	mulss	xmm1, DWORD PTR [ecx+8]
	addss	xmm0, xmm1
	mov	edx, DWORD PTR _worldPosition$[ebp]
	addss	xmm0, DWORD PTR [edx]
	mov	eax, DWORD PTR _position$[ebp]
	movss	DWORD PTR [eax], xmm0

; 3387 : 		position.y = orientation->M21*origin.x + orientation->M22*origin.y + orientation->M23*origin.z + worldPosition.y;

	mov	ecx, DWORD PTR _orientation$[ebp]
	mov	edx, DWORD PTR [ecx]
	mov	eax, DWORD PTR _origin$[ebp]
	movss	xmm0, DWORD PTR [edx+12]
	mulss	xmm0, DWORD PTR [eax]
	mov	ecx, DWORD PTR _orientation$[ebp]
	mov	edx, DWORD PTR [ecx]
	mov	eax, DWORD PTR _origin$[ebp]
	movss	xmm1, DWORD PTR [edx+16]
	mulss	xmm1, DWORD PTR [eax+4]
	addss	xmm0, xmm1
	mov	ecx, DWORD PTR _orientation$[ebp]
	mov	edx, DWORD PTR [ecx]
	mov	eax, DWORD PTR _origin$[ebp]
	movss	xmm1, DWORD PTR [edx+20]
	mulss	xmm1, DWORD PTR [eax+8]
	addss	xmm0, xmm1
	mov	ecx, DWORD PTR _worldPosition$[ebp]
	addss	xmm0, DWORD PTR [ecx+4]
	mov	edx, DWORD PTR _position$[ebp]
	movss	DWORD PTR [edx+4], xmm0

; 3388 : 		position.z = orientation->M31*origin.x + orientation->M32*origin.y + orientation->M33*origin.z + worldPosition.z;

	mov	eax, DWORD PTR _orientation$[ebp]
	mov	ecx, DWORD PTR [eax]
	mov	edx, DWORD PTR _origin$[ebp]
	movss	xmm0, DWORD PTR [ecx+24]
	mulss	xmm0, DWORD PTR [edx]
	mov	eax, DWORD PTR _orientation$[ebp]
	mov	ecx, DWORD PTR [eax]
	mov	edx, DWORD PTR _origin$[ebp]
	movss	xmm1, DWORD PTR [ecx+28]
	mulss	xmm1, DWORD PTR [edx+4]
	addss	xmm0, xmm1
	mov	eax, DWORD PTR _orientation$[ebp]
	mov	ecx, DWORD PTR [eax]
	mov	edx, DWORD PTR _origin$[ebp]
	movss	xmm1, DWORD PTR [ecx+32]
	mulss	xmm1, DWORD PTR [edx+8]
	addss	xmm0, xmm1
	mov	eax, DWORD PTR _worldPosition$[ebp]
	addss	xmm0, DWORD PTR [eax+8]
	mov	ecx, DWORD PTR _position$[ebp]
	movss	DWORD PTR [ecx+8], xmm0

; 3389 : 	}
; 3390 : 	else

	jmp	$LN1@AssignACOr
$LN2@AssignACOr:

; 3391 : 	{
; 3392 : 		position.x = orientation->M11*origin.x + orientation->M12*-origin.y + orientation->M13*origin.z + worldPosition.x;

	mov	edx, DWORD PTR _orientation$[ebp]
	mov	eax, DWORD PTR [edx]
	mov	ecx, DWORD PTR _origin$[ebp]
	movss	xmm0, DWORD PTR [eax]
	mulss	xmm0, DWORD PTR [ecx]
	mov	edx, DWORD PTR _orientation$[ebp]
	mov	eax, DWORD PTR [edx]
	mov	ecx, DWORD PTR _origin$[ebp]
	movss	xmm1, DWORD PTR [ecx+4]
	xorps	xmm1, DWORD PTR __xmm@80000000800000008000000080000000
	mulss	xmm1, DWORD PTR [eax+4]
	addss	xmm0, xmm1
	mov	edx, DWORD PTR _orientation$[ebp]
	mov	eax, DWORD PTR [edx]
	mov	ecx, DWORD PTR _origin$[ebp]
	movss	xmm1, DWORD PTR [eax+8]
	mulss	xmm1, DWORD PTR [ecx+8]
	addss	xmm0, xmm1
	mov	edx, DWORD PTR _worldPosition$[ebp]
	addss	xmm0, DWORD PTR [edx]
	mov	eax, DWORD PTR _position$[ebp]
	movss	DWORD PTR [eax], xmm0

; 3393 : 		position.y = orientation->M21*origin.x + orientation->M22*-origin.y + orientation->M23*origin.z + worldPosition.y;

	mov	ecx, DWORD PTR _orientation$[ebp]
	mov	edx, DWORD PTR [ecx]
	mov	eax, DWORD PTR _origin$[ebp]
	movss	xmm0, DWORD PTR [edx+12]
	mulss	xmm0, DWORD PTR [eax]
	mov	ecx, DWORD PTR _orientation$[ebp]
	mov	edx, DWORD PTR [ecx]
	mov	eax, DWORD PTR _origin$[ebp]
	movss	xmm1, DWORD PTR [eax+4]
	xorps	xmm1, DWORD PTR __xmm@80000000800000008000000080000000
	mulss	xmm1, DWORD PTR [edx+16]
	addss	xmm0, xmm1
	mov	ecx, DWORD PTR _orientation$[ebp]
	mov	edx, DWORD PTR [ecx]
	mov	eax, DWORD PTR _origin$[ebp]
	movss	xmm1, DWORD PTR [edx+20]
	mulss	xmm1, DWORD PTR [eax+8]
	addss	xmm0, xmm1
	mov	ecx, DWORD PTR _worldPosition$[ebp]
	addss	xmm0, DWORD PTR [ecx+4]
	mov	edx, DWORD PTR _position$[ebp]
	movss	DWORD PTR [edx+4], xmm0

; 3394 : 		position.z = orientation->M31*origin.x + orientation->M32*-origin.y + orientation->M33*origin.z + worldPosition.z;

	mov	eax, DWORD PTR _orientation$[ebp]
	mov	ecx, DWORD PTR [eax]
	mov	edx, DWORD PTR _origin$[ebp]
	movss	xmm0, DWORD PTR [ecx+24]
	mulss	xmm0, DWORD PTR [edx]
	mov	eax, DWORD PTR _orientation$[ebp]
	mov	ecx, DWORD PTR [eax]
	mov	edx, DWORD PTR _origin$[ebp]
	movss	xmm1, DWORD PTR [edx+4]
	xorps	xmm1, DWORD PTR __xmm@80000000800000008000000080000000
	mulss	xmm1, DWORD PTR [ecx+28]
	addss	xmm0, xmm1
	mov	eax, DWORD PTR _orientation$[ebp]
	mov	ecx, DWORD PTR [eax]
	mov	edx, DWORD PTR _origin$[ebp]
	movss	xmm1, DWORD PTR [ecx+32]
	mulss	xmm1, DWORD PTR [edx+8]
	addss	xmm0, xmm1
	mov	eax, DWORD PTR _worldPosition$[ebp]
	addss	xmm0, DWORD PTR [eax+8]
	mov	ecx, DWORD PTR _position$[ebp]
	movss	DWORD PTR [ecx+8], xmm0
$LN1@AssignACOr:
$LN4@AssignACOr:

; 3395 : 	}
; 3396 : }

	pop	ebp
	ret	0
?AssignACOrientation@@YAXAAPAUTrotation@@AAUTpoint@@11_N@Z ENDP ; AssignACOrientation
_TEXT	ENDS
; Function compile flags: /Odtp
; File c:\users\zhitao li\documents\visual studio 2012\projects\freefalcon\sim\aircraft\damage.cpp
_TEXT	SEGMENT
_middle$ = -16						; size = 12
__$ArrayPad$ = -4					; size = 4
$T1 = 8							; size = 4
_a$ = 12						; size = 4
_b$ = 16						; size = 4
?Get3DMiddle@@YA?AUTpoint@@AAU1@0@Z PROC		; Get3DMiddle

; 3367 : {

	push	ebp
	mov	ebp, esp
	sub	esp, 16					; 00000010H
	mov	eax, DWORD PTR ___security_cookie
	xor	eax, ebp
	mov	DWORD PTR __$ArrayPad$[ebp], eax

; 3368 : 	Tpoint middle;
; 3369 : 
; 3370 : 	middle.x = (a.x + b.x) / 2.0f;

	mov	eax, DWORD PTR _a$[ebp]
	mov	ecx, DWORD PTR _b$[ebp]
	movss	xmm0, DWORD PTR [eax]
	addss	xmm0, DWORD PTR [ecx]
	divss	xmm0, DWORD PTR __real@40000000
	movss	DWORD PTR _middle$[ebp], xmm0

; 3371 : 	middle.y = (a.y + b.y) / 2.0f;

	mov	edx, DWORD PTR _a$[ebp]
	mov	eax, DWORD PTR _b$[ebp]
	movss	xmm0, DWORD PTR [edx+4]
	addss	xmm0, DWORD PTR [eax+4]
	divss	xmm0, DWORD PTR __real@40000000
	movss	DWORD PTR _middle$[ebp+4], xmm0

; 3372 : 	middle.z = (a.z + b.z) / 2.0f;

	mov	ecx, DWORD PTR _a$[ebp]
	mov	edx, DWORD PTR _b$[ebp]
	movss	xmm0, DWORD PTR [ecx+8]
	addss	xmm0, DWORD PTR [edx+8]
	divss	xmm0, DWORD PTR __real@40000000
	movss	DWORD PTR _middle$[ebp+8], xmm0

; 3373 : 
; 3374 : 	return middle;

	mov	eax, DWORD PTR $T1[ebp]
	mov	ecx, DWORD PTR _middle$[ebp]
	mov	DWORD PTR [eax], ecx
	mov	edx, DWORD PTR _middle$[ebp+4]
	mov	DWORD PTR [eax+4], edx
	mov	ecx, DWORD PTR _middle$[ebp+8]
	mov	DWORD PTR [eax+8], ecx
	mov	eax, DWORD PTR $T1[ebp]

; 3375 : }

	mov	ecx, DWORD PTR __$ArrayPad$[ebp]
	xor	ecx, ebp
	call	@__security_check_cookie@4
	mov	esp, ebp
	pop	ebp
	ret	0
?Get3DMiddle@@YA?AUTpoint@@AAU1@0@Z ENDP		; Get3DMiddle
_TEXT	ENDS
; Function compile flags: /Odtp
; File c:\users\zhitao li\documents\visual studio 2012\projects\freefalcon\sim\aircraft\damage.cpp
_TEXT	SEGMENT
_dz$ = -12						; size = 4
_dy$ = -8						; size = 4
_dx$ = -4						; size = 4
_a$ = 8							; size = 4
_b$ = 12						; size = 4
?Get3DDistance@@YAMAAUTpoint@@0@Z PROC			; Get3DDistance

; 3358 : {

	push	ebp
	mov	ebp, esp
	sub	esp, 12					; 0000000cH

; 3359 : 	float	dx = a.x - b.x;

	mov	eax, DWORD PTR _a$[ebp]
	mov	ecx, DWORD PTR _b$[ebp]
	movss	xmm0, DWORD PTR [eax]
	subss	xmm0, DWORD PTR [ecx]
	movss	DWORD PTR _dx$[ebp], xmm0

; 3360 : 	float	dy = a.y - b.y;

	mov	edx, DWORD PTR _a$[ebp]
	mov	eax, DWORD PTR _b$[ebp]
	movss	xmm0, DWORD PTR [edx+4]
	subss	xmm0, DWORD PTR [eax+4]
	movss	DWORD PTR _dy$[ebp], xmm0

; 3361 : 	float	dz = a.z - b.z;

	mov	ecx, DWORD PTR _a$[ebp]
	mov	edx, DWORD PTR _b$[ebp]
	movss	xmm0, DWORD PTR [ecx+8]
	subss	xmm0, DWORD PTR [edx+8]
	movss	DWORD PTR _dz$[ebp], xmm0

; 3362 : 
; 3363 : 	return sqrtf( dx * dx + dy * dy + dz * dz);

	movss	xmm0, DWORD PTR _dx$[ebp]
	mulss	xmm0, DWORD PTR _dx$[ebp]
	movss	xmm1, DWORD PTR _dy$[ebp]
	mulss	xmm1, DWORD PTR _dy$[ebp]
	addss	xmm0, xmm1
	movss	xmm1, DWORD PTR _dz$[ebp]
	mulss	xmm1, DWORD PTR _dz$[ebp]
	addss	xmm0, xmm1
	push	ecx
	movss	DWORD PTR [esp], xmm0
	call	?SqrtSSE@@YAMM@Z			; SqrtSSE
	add	esp, 4

; 3364 : }

	mov	esp, ebp
	pop	ebp
	ret	0
?Get3DDistance@@YAMAAUTpoint@@0@Z ENDP			; Get3DDistance
_TEXT	ENDS
; Function compile flags: /Odtp
; File c:\users\zhitao li\documents\visual studio 2012\projects\freefalcon\ui\include\uicomms.h
;	COMDAT ?Online@UIComms@@QAEHXZ
_TEXT	SEGMENT
_this$ = -4						; size = 4
?Online@UIComms@@QAEHXZ PROC				; UIComms::Online, COMDAT
; _this$ = ecx

; 118  : 		BOOL Online()					{ return(Online_); }

	push	ebp
	mov	ebp, esp
	push	ecx
	mov	DWORD PTR _this$[ebp], ecx
	mov	eax, DWORD PTR _this$[ebp]
	mov	eax, DWORD PTR [eax+64]
	mov	esp, ebp
	pop	ebp
	ret	0
?Online@UIComms@@QAEHXZ ENDP				; UIComms::Online
_TEXT	ENDS
; Function compile flags: /Odtp
; File c:\users\zhitao li\documents\visual studio 2012\projects\freefalcon\sim\include\acturbulence.h
;	COMDAT ?BreakRecord@AircraftTurbulence@@QAEXXZ
_TEXT	SEGMENT
_this$ = -4						; size = 4
?BreakRecord@AircraftTurbulence@@QAEXXZ PROC		; AircraftTurbulence::BreakRecord, COMDAT
; _this$ = ecx

; 28   : 	void BreakRecord(void) {breakRecord = 1;}

	push	ebp
	mov	ebp, esp
	push	ecx
	mov	DWORD PTR _this$[ebp], ecx
	mov	eax, DWORD PTR _this$[ebp]
	mov	DWORD PTR [eax+60], 1
	mov	esp, ebp
	pop	ebp
	ret	0
?BreakRecord@AircraftTurbulence@@QAEXXZ ENDP		; AircraftTurbulence::BreakRecord
_TEXT	ENDS
; Function compile flags: /Odtp
; File c:\users\zhitao li\documents\visual studio 2012\projects\freefalcon\sim\include\simweapn.h
;	COMDAT ?Parent@SimWeaponClass@@QAEPAVFalconEntity@@XZ
_TEXT	SEGMENT
_this$ = -4						; size = 4
?Parent@SimWeaponClass@@QAEPAVFalconEntity@@XZ PROC	; SimWeaponClass::Parent, COMDAT
; _this$ = ecx

; 45   : 	FalconEntity* Parent(void) { return parent.get(); }

	push	ebp
	mov	ebp, esp
	push	ecx
	mov	DWORD PTR _this$[ebp], ecx
	mov	ecx, DWORD PTR _this$[ebp]
	add	ecx, 688				; 000002b0H
	call	?get@?$VuBin@VFalconEntity@@@@QBEPAVFalconEntity@@XZ ; VuBin<FalconEntity>::get
	mov	esp, ebp
	pop	ebp
	ret	0
?Parent@SimWeaponClass@@QAEPAVFalconEntity@@XZ ENDP	; SimWeaponClass::Parent
_TEXT	ENDS
; Function compile flags: /Odtp
; File c:\users\zhitao li\documents\visual studio 2012\projects\freefalcon\sim\include\object.h
;	COMDAT ?BaseData@SimObjectType@@QAEPAVFalconEntity@@XZ
_TEXT	SEGMENT
_this$ = -4						; size = 4
?BaseData@SimObjectType@@QAEPAVFalconEntity@@XZ PROC	; SimObjectType::BaseData, COMDAT
; _this$ = ecx

; 92   : 	FalconEntity* BaseData(void) { return baseData.get(); };

	push	ebp
	mov	ebp, esp
	push	ecx
	mov	DWORD PTR _this$[ebp], ecx
	mov	ecx, DWORD PTR _this$[ebp]
	call	?get@?$VuBin@VFalconEntity@@@@QBEPAVFalconEntity@@XZ ; VuBin<FalconEntity>::get
	mov	esp, ebp
	pop	ebp
	ret	0
?BaseData@SimObjectType@@QAEPAVFalconEntity@@XZ ENDP	; SimObjectType::BaseData
_TEXT	ENDS
; Function compile flags: /Odtp
; File c:\users\zhitao li\documents\visual studio 2012\projects\freefalcon\sim\include\otwdrive.h
;	COMDAT ?SetChaseAzEl@OTWDriverClass@@QAEXMM@Z
_TEXT	SEGMENT
_this$ = -4						; size = 4
_az$ = 8						; size = 4
_el$ = 12						; size = 4
?SetChaseAzEl@OTWDriverClass@@QAEXMM@Z PROC		; OTWDriverClass::SetChaseAzEl, COMDAT
; _this$ = ecx

; 475  : 	  {

	push	ebp
	mov	ebp, esp
	push	ecx
	mov	DWORD PTR _this$[ebp], ecx

; 476  : 			chaseAz = az;

	mov	eax, DWORD PTR _this$[ebp]
	movss	xmm0, DWORD PTR _az$[ebp]
	movss	DWORD PTR [eax+32284], xmm0

; 477  : 			chaseEl = el;

	mov	ecx, DWORD PTR _this$[ebp]
	movss	xmm0, DWORD PTR _el$[ebp]
	movss	DWORD PTR [ecx+32288], xmm0

; 478  : 	  }

	mov	esp, ebp
	pop	ebp
	ret	8
?SetChaseAzEl@OTWDriverClass@@QAEXMM@Z ENDP		; OTWDriverClass::SetChaseAzEl
_TEXT	ENDS
; Function compile flags: /Odtp
; File c:\users\zhitao li\documents\visual studio 2012\projects\freefalcon\sim\include\otwdrive.h
;	COMDAT ?Scale@OTWDriverClass@@QAEMXZ
_TEXT	SEGMENT
_this$ = -4						; size = 4
?Scale@OTWDriverClass@@QAEMXZ PROC			; OTWDriverClass::Scale, COMDAT
; _this$ = ecx

; 342  :       float Scale (void) { return objectScale;};

	push	ebp
	mov	ebp, esp
	push	ecx
	mov	DWORD PTR _this$[ebp], ecx
	mov	eax, DWORD PTR _this$[ebp]
	fld	DWORD PTR [eax+32124]
	mov	esp, ebp
	pop	ebp
	ret	0
?Scale@OTWDriverClass@@QAEMXZ ENDP			; OTWDriverClass::Scale
_TEXT	ENDS
; Function compile flags: /Odtp
; File c:\users\zhitao li\documents\visual studio 2012\projects\freefalcon\falclib\include\playerop.h
;	COMDAT ?CollisionsOn@PlayerOptionsClass@@QAEHXZ
_TEXT	SEGMENT
_this$ = -8						; size = 4
tv68 = -4						; size = 4
?CollisionsOn@PlayerOptionsClass@@QAEHXZ PROC		; PlayerOptionsClass::CollisionsOn, COMDAT
; _this$ = ecx

; 153  : 	int CollisionsOn (void)									{ return !(SimFlags & SIM_NO_COLLISIONS) && TRUE; }

	push	ebp
	mov	ebp, esp
	sub	esp, 8
	mov	DWORD PTR _this$[ebp], ecx
	mov	eax, DWORD PTR _this$[ebp]
	mov	ecx, DWORD PTR [eax+52]
	and	ecx, 32					; 00000020H
	jne	SHORT $LN3@Collisions
	mov	edx, 1
	test	edx, edx
	je	SHORT $LN3@Collisions
	mov	DWORD PTR tv68[ebp], 1
	jmp	SHORT $LN4@Collisions
$LN3@Collisions:
	mov	DWORD PTR tv68[ebp], 0
$LN4@Collisions:
	mov	eax, DWORD PTR tv68[ebp]
	mov	esp, ebp
	pop	ebp
	ret	0
?CollisionsOn@PlayerOptionsClass@@QAEHXZ ENDP		; PlayerOptionsClass::CollisionsOn
_TEXT	ENDS
; Function compile flags: /Odtp
; File c:\users\zhitao li\documents\visual studio 2012\projects\freefalcon\sim\include\airframe.h
;	COMDAT ?IsSet@AirframeClass@@QBEHH@Z
_TEXT	SEGMENT
_this$ = -8						; size = 4
tv67 = -4						; size = 4
_testFlag$ = 8						; size = 4
?IsSet@AirframeClass@@QBEHH@Z PROC			; AirframeClass::IsSet, COMDAT
; _this$ = ecx

; 1216 : 	int IsSet (int testFlag) const {return flags & testFlag ? 1 : 0;}

	push	ebp
	mov	ebp, esp
	sub	esp, 8
	mov	DWORD PTR _this$[ebp], ecx
	mov	eax, DWORD PTR _this$[ebp]
	mov	ecx, DWORD PTR [eax+88]
	and	ecx, DWORD PTR _testFlag$[ebp]
	je	SHORT $LN3@IsSet
	mov	DWORD PTR tv67[ebp], 1
	jmp	SHORT $LN4@IsSet
$LN3@IsSet:
	mov	DWORD PTR tv67[ebp], 0
$LN4@IsSet:
	mov	eax, DWORD PTR tv67[ebp]
	mov	esp, ebp
	pop	ebp
	ret	4
?IsSet@AirframeClass@@QBEHH@Z ENDP			; AirframeClass::IsSet
_TEXT	ENDS
; Function compile flags: /Odtp
; File c:\users\zhitao li\documents\visual studio 2012\projects\freefalcon\sim\include\airframe.h
;	COMDAT ?ClearFlag@AirframeClass@@QAEXH@Z
_TEXT	SEGMENT
_this$ = -4						; size = 4
_newFlag$ = 8						; size = 4
?ClearFlag@AirframeClass@@QAEXH@Z PROC			; AirframeClass::ClearFlag, COMDAT
; _this$ = ecx

; 1215 : 	void ClearFlag (int newFlag) {flags &= ~newFlag;};

	push	ebp
	mov	ebp, esp
	push	ecx
	mov	DWORD PTR _this$[ebp], ecx
	mov	eax, DWORD PTR _newFlag$[ebp]
	not	eax
	mov	ecx, DWORD PTR _this$[ebp]
	and	eax, DWORD PTR [ecx+88]
	mov	edx, DWORD PTR _this$[ebp]
	mov	DWORD PTR [edx+88], eax
	mov	esp, ebp
	pop	ebp
	ret	4
?ClearFlag@AirframeClass@@QAEXH@Z ENDP			; AirframeClass::ClearFlag
_TEXT	ENDS
; Function compile flags: /Odtp
; File c:\users\zhitao li\documents\visual studio 2012\projects\freefalcon\sim\include\airframe.h
;	COMDAT ?SetFlag@AirframeClass@@QAEXH@Z
_TEXT	SEGMENT
_this$ = -4						; size = 4
_newFlag$ = 8						; size = 4
?SetFlag@AirframeClass@@QAEXH@Z PROC			; AirframeClass::SetFlag, COMDAT
; _this$ = ecx

; 1214 : 	void SetFlag (int newFlag) {flags |= newFlag;};

	push	ebp
	mov	ebp, esp
	push	ecx
	mov	DWORD PTR _this$[ebp], ecx
	mov	eax, DWORD PTR _this$[ebp]
	mov	ecx, DWORD PTR [eax+88]
	or	ecx, DWORD PTR _newFlag$[ebp]
	mov	edx, DWORD PTR _this$[ebp]
	mov	DWORD PTR [edx+88], ecx
	mov	esp, ebp
	pop	ebp
	ret	4
?SetFlag@AirframeClass@@QAEXH@Z ENDP			; AirframeClass::SetFlag
_TEXT	ENDS
; Function compile flags: /Odtp
; File c:\users\zhitao li\documents\visual studio 2012\projects\freefalcon\sim\include\airframe.h
;	COMDAT ?GetAeroData@AirframeClass@@QBEMH@Z
_TEXT	SEGMENT
_this$ = -4						; size = 4
_which$ = 8						; size = 4
?GetAeroData@AirframeClass@@QBEMH@Z PROC		; AirframeClass::GetAeroData, COMDAT
; _this$ = ecx

; 1207 : 	float GetAeroData(int which) const { return aeroDataset[vehicleIndex].inputData[which]; }

	push	ebp
	mov	ebp, esp
	push	ecx
	mov	DWORD PTR _this$[ebp], ecx
	mov	eax, DWORD PTR _this$[ebp]
	movsx	ecx, WORD PTR [eax+92]
	imul	ecx, 220				; 000000dcH
	add	ecx, DWORD PTR ?aeroDataset@@3PAVAeroDataSet@@A ; aeroDataset
	mov	edx, DWORD PTR _which$[ebp]
	fld	DWORD PTR [ecx+edx*4+16]
	mov	esp, ebp
	pop	ebp
	ret	4
?GetAeroData@AirframeClass@@QBEMH@Z ENDP		; AirframeClass::GetAeroData
_TEXT	ENDS
; Function compile flags: /Odtp
; File c:\users\zhitao li\documents\visual studio 2012\projects\freefalcon\sim\include\airframe.h
;	COMDAT ?GeneratorBreak@AirframeClass@@QAEXW4Generator@1@@Z
_TEXT	SEGMENT
_this$ = -4						; size = 4
_gen$ = 8						; size = 4
?GeneratorBreak@AirframeClass@@QAEXW4Generator@1@@Z PROC ; AirframeClass::GeneratorBreak, COMDAT
; _this$ = ecx

; 1134 : 	void GeneratorBreak(Generator gen) { generators |= (gen<<1); GeneratorOff(gen);  };

	push	ebp
	mov	ebp, esp
	push	ecx
	mov	DWORD PTR _this$[ebp], ecx
	mov	eax, DWORD PTR _gen$[ebp]
	shl	eax, 1
	mov	ecx, DWORD PTR _this$[ebp]
	or	eax, DWORD PTR [ecx+1804]
	mov	edx, DWORD PTR _this$[ebp]
	mov	DWORD PTR [edx+1804], eax
	mov	eax, DWORD PTR _gen$[ebp]
	push	eax
	mov	ecx, DWORD PTR _this$[ebp]
	call	?GeneratorOff@AirframeClass@@QAEXW4Generator@1@@Z ; AirframeClass::GeneratorOff
	mov	esp, ebp
	pop	ebp
	ret	4
?GeneratorBreak@AirframeClass@@QAEXW4Generator@1@@Z ENDP ; AirframeClass::GeneratorBreak
_TEXT	ENDS
; Function compile flags: /Odtp
; File c:\users\zhitao li\documents\visual studio 2012\projects\freefalcon\sim\include\airframe.h
;	COMDAT ?GeneratorOff@AirframeClass@@QAEXW4Generator@1@@Z
_TEXT	SEGMENT
_this$ = -4						; size = 4
_gen$ = 8						; size = 4
?GeneratorOff@AirframeClass@@QAEXW4Generator@1@@Z PROC	; AirframeClass::GeneratorOff, COMDAT
; _this$ = ecx

; 1133 : 	void GeneratorOff (Generator gen) { generators &= ~gen; };

	push	ebp
	mov	ebp, esp
	push	ecx
	mov	DWORD PTR _this$[ebp], ecx
	mov	eax, DWORD PTR _gen$[ebp]
	not	eax
	mov	ecx, DWORD PTR _this$[ebp]
	and	eax, DWORD PTR [ecx+1804]
	mov	edx, DWORD PTR _this$[ebp]
	mov	DWORD PTR [edx+1804], eax
	mov	esp, ebp
	pop	ebp
	ret	4
?GeneratorOff@AirframeClass@@QAEXW4Generator@1@@Z ENDP	; AirframeClass::GeneratorOff
_TEXT	ENDS
; Function compile flags: /Odtp
; File c:\users\zhitao li\documents\visual studio 2012\projects\freefalcon\sim\include\airframe.h
;	COMDAT ?Thrust@AirframeClass@@QAEMXZ
_TEXT	SEGMENT
_this$ = -4						; size = 4
?Thrust@AirframeClass@@QAEMXZ PROC			; AirframeClass::Thrust, COMDAT
; _this$ = ecx

; 840  : 	float Thrust() { return thrust; };

	push	ebp
	mov	ebp, esp
	push	ecx
	mov	DWORD PTR _this$[ebp], ecx
	mov	eax, DWORD PTR _this$[ebp]
	fld	DWORD PTR [eax+188]
	mov	esp, ebp
	pop	ebp
	ret	0
?Thrust@AirframeClass@@QAEMXZ ENDP			; AirframeClass::Thrust
_TEXT	ENDS
; Function compile flags: /Odtp
; File c:\users\zhitao li\documents\visual studio 2012\projects\freefalcon\sim\include\digi.h
;	COMDAT ?SetWaitTimer@DigitalBrain@@QAEXK@Z
_TEXT	SEGMENT
_this$ = -4						; size = 4
_timer$ = 8						; size = 4
?SetWaitTimer@DigitalBrain@@QAEXK@Z PROC		; DigitalBrain::SetWaitTimer, COMDAT
; _this$ = ecx

; 766  : 	void			SetWaitTimer(VU_TIME timer)		{waittimer = timer;}

	push	ebp
	mov	ebp, esp
	push	ecx
	mov	DWORD PTR _this$[ebp], ecx
	mov	eax, DWORD PTR _this$[ebp]
	mov	ecx, DWORD PTR _timer$[ebp]
	mov	DWORD PTR [eax+344], ecx
	mov	esp, ebp
	pop	ebp
	ret	4
?SetWaitTimer@DigitalBrain@@QAEXK@Z ENDP		; DigitalBrain::SetWaitTimer
_TEXT	ENDS
; Function compile flags: /Odtp
; File c:\users\zhitao li\documents\visual studio 2012\projects\freefalcon\sim\include\digi.h
;	COMDAT ?SetATCStatus@DigitalBrain@@QAEXW4AtcStatusEnum@@@Z
_TEXT	SEGMENT
_this$ = -4						; size = 4
_status$ = 8						; size = 4
?SetATCStatus@DigitalBrain@@QAEXW4AtcStatusEnum@@@Z PROC ; DigitalBrain::SetATCStatus, COMDAT
; _this$ = ecx

; 764  : 	void			SetATCStatus(AtcStatusEnum status)		{atcstatus = status;}

	push	ebp
	mov	ebp, esp
	push	ecx
	mov	DWORD PTR _this$[ebp], ecx
	mov	eax, DWORD PTR _this$[ebp]
	mov	ecx, DWORD PTR _status$[ebp]
	mov	DWORD PTR [eax+328], ecx
	mov	esp, ebp
	pop	ebp
	ret	4
?SetATCStatus@DigitalBrain@@QAEXW4AtcStatusEnum@@@Z ENDP ; DigitalBrain::SetATCStatus
_TEXT	ENDS
; Function compile flags: /Odtp
; File c:\users\zhitao li\documents\visual studio 2012\projects\freefalcon\sim\include\digi.h
;	COMDAT ?SetATCFlag@DigitalBrain@@QAEXH@Z
_TEXT	SEGMENT
_this$ = -4						; size = 4
_flag$ = 8						; size = 4
?SetATCFlag@DigitalBrain@@QAEXH@Z PROC			; DigitalBrain::SetATCFlag, COMDAT
; _this$ = ecx

; 707  : 	void	SetATCFlag(int flag)							{atcFlags |= flag;}

	push	ebp
	mov	ebp, esp
	push	ecx
	mov	DWORD PTR _this$[ebp], ecx
	mov	eax, DWORD PTR _this$[ebp]
	mov	ecx, DWORD PTR [eax+300]
	or	ecx, DWORD PTR _flag$[ebp]
	mov	edx, DWORD PTR _this$[ebp]
	mov	DWORD PTR [edx+300], ecx
	mov	esp, ebp
	pop	ebp
	ret	4
?SetATCFlag@DigitalBrain@@QAEXH@Z ENDP			; DigitalBrain::SetATCFlag
_TEXT	ENDS
; Function compile flags: /Odtp
; File c:\users\zhitao li\documents\visual studio 2012\projects\freefalcon\sim\include\simdrive.h
;	COMDAT ?GetPlayerEntity@SimulationDriver@@QBEPAVSimMoverClass@@XZ
_TEXT	SEGMENT
_this$ = -4						; size = 4
?GetPlayerEntity@SimulationDriver@@QBEPAVSimMoverClass@@XZ PROC ; SimulationDriver::GetPlayerEntity, COMDAT
; _this$ = ecx

; 76   : 	SimMoverClass *GetPlayerEntity() const { return const_cast<SimMoverClass*>(playerEntity); }

	push	ebp
	mov	ebp, esp
	push	ecx
	mov	DWORD PTR _this$[ebp], ecx
	mov	eax, DWORD PTR _this$[ebp]
	mov	eax, DWORD PTR [eax+56]
	mov	esp, ebp
	pop	ebp
	ret	0
?GetPlayerEntity@SimulationDriver@@QBEPAVSimMoverClass@@XZ ENDP ; SimulationDriver::GetPlayerEntity
_TEXT	ENDS
; Function compile flags: /Odtp
; File c:\users\zhitao li\documents\visual studio 2012\projects\freefalcon\falclib\include\falcsess.h
;	COMDAT ?GetGame@FalconSessionEntity@@QAEPAVFalconGameEntity@@XZ
_TEXT	SEGMENT
_this$ = -4						; size = 4
?GetGame@FalconSessionEntity@@QAEPAVFalconGameEntity@@XZ PROC ; FalconSessionEntity::GetGame, COMDAT
; _this$ = ecx

; 154  : 	FalconGameEntity* GetGame (void)              { return (FalconGameEntity*)VuSessionEntity::Game(); }

	push	ebp
	mov	ebp, esp
	push	ecx
	mov	DWORD PTR _this$[ebp], ecx
	mov	ecx, DWORD PTR _this$[ebp]
	call	?Game@VuSessionEntity@@QAEPAVVuGameEntity@@XZ ; VuSessionEntity::Game
	mov	esp, ebp
	pop	ebp
	ret	0
?GetGame@FalconSessionEntity@@QAEPAVFalconGameEntity@@XZ ENDP ; FalconSessionEntity::GetGame
_TEXT	ENDS
; Function compile flags: /Odtp
; File c:\users\zhitao li\documents\visual studio 2012\projects\freefalcon\falclib\include\falcsess.h
;	COMDAT ?GetPlayerEntity@FalconSessionEntity@@QBEPAVFalconEntity@@XZ
_TEXT	SEGMENT
_this$ = -4						; size = 4
?GetPlayerEntity@FalconSessionEntity@@QBEPAVFalconEntity@@XZ PROC ; FalconSessionEntity::GetPlayerEntity, COMDAT
; _this$ = ecx

; 138  : 	FalconEntity* GetPlayerEntity(void) const     { return playerEntityPtr.get(); }

	push	ebp
	mov	ebp, esp
	push	ecx
	mov	DWORD PTR _this$[ebp], ecx
	mov	ecx, DWORD PTR _this$[ebp]
	add	ecx, 484				; 000001e4H
	call	?get@?$VuBin@VFalconEntity@@@@QBEPAVFalconEntity@@XZ ; VuBin<FalconEntity>::get
	mov	esp, ebp
	pop	ebp
	ret	0
?GetPlayerEntity@FalconSessionEntity@@QBEPAVFalconEntity@@XZ ENDP ; FalconSessionEntity::GetPlayerEntity
_TEXT	ENDS
; Function compile flags: /Odtp
; File c:\users\zhitao li\documents\visual studio 2012\projects\freefalcon\sim\aircraft\damage.cpp
_TEXT	SEGMENT
$T2 = -76						; size = 4
$T3 = -72						; size = 4
tv132 = -68						; size = 4
$T4 = -64						; size = 4
tv272 = -60						; size = 4
$T5 = -56						; size = 4
_this$ = -52						; size = 4
_ptr$ = -48						; size = 4
_tmpSimBase$ = -44					; size = 4
_piececenter$ = -40					; size = 12
_slot$ = -28						; size = 12
__$ArrayPad$ = -16					; size = 4
__$EHRec$ = -12						; size = 12
_piece$ = 8						; size = 4
?SetupDamageF16Effects@AircraftClass@@IAEXPAUDamageF16PieceStructure@@@Z PROC ; AircraftClass::SetupDamageF16Effects
; _this$ = ecx

; 1037 : {

	push	ebp
	mov	ebp, esp
	push	-1
	push	__ehhandler$?SetupDamageF16Effects@AircraftClass@@IAEXPAUDamageF16PieceStructure@@@Z
	mov	eax, DWORD PTR fs:0
	push	eax
	sub	esp, 64					; 00000040H
	mov	eax, DWORD PTR ___security_cookie
	xor	eax, ebp
	mov	DWORD PTR __$ArrayPad$[ebp], eax
	push	eax
	lea	eax, DWORD PTR __$EHRec$[ebp]
	mov	DWORD PTR fs:0, eax
	mov	DWORD PTR _this$[ebp], ecx

; 1038 : 	Tpoint slot;
; 1039 : 	Tpoint piececenter;
; 1040 : 	piececenter.x = XPos();

	mov	ecx, DWORD PTR _this$[ebp]
	call	?XPos@VuEntity@@QBEMXZ			; VuEntity::XPos
	fstp	DWORD PTR _piececenter$[ebp]

; 1041 : 	piececenter.y = YPos();

	mov	ecx, DWORD PTR _this$[ebp]
	call	?YPos@VuEntity@@QBEMXZ			; VuEntity::YPos
	fstp	DWORD PTR _piececenter$[ebp+4]

; 1042 : 	piececenter.z = ZPos();

	mov	ecx, DWORD PTR _this$[ebp]
	call	?ZPos@VuEntity@@QBEMXZ			; VuEntity::ZPos
	fstp	DWORD PTR _piececenter$[ebp+8]

; 1043 : 
; 1044 : 	SimBaseClass *tmpSimBase = new SimStaticClass(Type());//new SimBaseClass(Type());

	push	592					; 00000250H
	call	??2@YAPAXI@Z				; operator new
	add	esp, 4
	mov	DWORD PTR $T4[ebp], eax
	mov	DWORD PTR __$EHRec$[ebp+8], 0
	cmp	DWORD PTR $T4[ebp], 0
	je	SHORT $LN14@SetupDamag
	mov	ecx, DWORD PTR _this$[ebp]
	call	?Type@VuEntity@@QBEGXZ			; VuEntity::Type
	movzx	eax, ax
	push	eax
	mov	ecx, DWORD PTR $T4[ebp]
	call	??0SimStaticClass@@QAE@H@Z		; SimStaticClass::SimStaticClass
	mov	DWORD PTR tv132[ebp], eax
	jmp	SHORT $LN15@SetupDamag
$LN14@SetupDamag:
	mov	DWORD PTR tv132[ebp], 0
$LN15@SetupDamag:
	mov	ecx, DWORD PTR tv132[ebp]
	mov	DWORD PTR $T2[ebp], ecx
	mov	DWORD PTR __$EHRec$[ebp+8], -1
	mov	edx, DWORD PTR $T2[ebp]
	mov	DWORD PTR _tmpSimBase$[ebp], edx

; 1045 : 	tmpSimBase -> SetYPR (Yaw(), 0.0f, 0.0f);

	push	ecx
	movss	xmm0, DWORD PTR __real@00000000
	movss	DWORD PTR [esp], xmm0
	push	ecx
	movss	xmm0, DWORD PTR __real@00000000
	movss	DWORD PTR [esp], xmm0
	mov	ecx, DWORD PTR _this$[ebp]
	call	?Yaw@VuEntity@@QBEMXZ			; VuEntity::Yaw
	push	ecx
	fstp	DWORD PTR [esp]
	mov	ecx, DWORD PTR _tmpSimBase$[ebp]
	call	?SetYPR@VuEntity@@QAEXMMM@Z		; VuEntity::SetYPR

; 1046 : 	CalcTransformMatrix (tmpSimBase);

	mov	eax, DWORD PTR _tmpSimBase$[ebp]
	push	eax
	call	?CalcTransformMatrix@@YAXPAVSimBaseClass@@@Z ; CalcTransformMatrix
	add	esp, 4

; 1047 : 	OTWDriver.CreateVisualObject(tmpSimBase, piece->damage, &piececenter, (Trotation *) &tmpSimBase->dmx, OTWDriver.Scale());

	mov	ecx, OFFSET ?OTWDriver@@3VOTWDriverClass@@A ; OTWDriver
	call	?Scale@OTWDriverClass@@QAEMXZ		; OTWDriverClass::Scale
	push	ecx
	fstp	DWORD PTR [esp]
	mov	ecx, DWORD PTR _tmpSimBase$[ebp]
	add	ecx, 296				; 00000128H
	push	ecx
	lea	edx, DWORD PTR _piececenter$[ebp]
	push	edx
	mov	eax, DWORD PTR _piece$[ebp]
	mov	ecx, DWORD PTR [eax+8]
	push	ecx
	mov	edx, DWORD PTR _tmpSimBase$[ebp]
	push	edx
	mov	ecx, OFFSET ?OTWDriver@@3VOTWDriverClass@@A ; OTWDriver
	call	?CreateVisualObject@OTWDriverClass@@QAEXPAVSimBaseClass@@HPAUTpoint@@PAUTrotation@@M@Z ; OTWDriverClass::CreateVisualObject

; 1048 : 
; 1049 : 	DrawableBSP *ptr = (DrawableBSP *) tmpSimBase -> drawPointer;

	mov	eax, DWORD PTR _tmpSimBase$[ebp]
	mov	ecx, DWORD PTR [eax+332]
	mov	DWORD PTR _ptr$[ebp], ecx

; 1050 : 	ptr -> SetSwitchMask(DAMAGEF16_SWITCH, piece->mask);

	mov	edx, DWORD PTR _piece$[ebp]
	mov	eax, DWORD PTR [edx]
	push	eax
	push	0
	mov	ecx, DWORD PTR _ptr$[ebp]
	call	?SetSwitchMask@DrawableBSP@@QAEXHK@Z	; DrawableBSP::SetSwitchMask

; 1051 : 	if (piece -> mask & DAMAGEF16_BACK) {

	mov	ecx, DWORD PTR _piece$[ebp]
	mov	edx, DWORD PTR [ecx]
	and	edx, 16					; 00000010H
	je	SHORT $LN11@SetupDamag

; 1052 : 		if (piece -> mask & DAMAGEF16_FRONT) {

	mov	eax, DWORD PTR _piece$[ebp]
	mov	ecx, DWORD PTR [eax]
	and	ecx, 32					; 00000020H
	je	SHORT $LN10@SetupDamag

; 1053 : 			if (!(piece -> mask & DAMAGEF16_NOSE)) {

	mov	edx, DWORD PTR _piece$[ebp]
	mov	eax, DWORD PTR [edx]
	and	eax, 64					; 00000040H
	jne	SHORT $LN9@SetupDamag

; 1054 : 				ptr -> SetSwitchMask(DAMAGEF16_NOSEBREAK_SWITCH, 1);

	push	1
	push	1
	mov	ecx, DWORD PTR _ptr$[ebp]
	call	?SetSwitchMask@DrawableBSP@@QAEXHK@Z	; DrawableBSP::SetSwitchMask
$LN9@SetupDamag:

; 1055 : 			}
; 1056 : //			ptr -> SetSwitchMask(DAMAGEF16_CANOPYBREAK_SWITCH, 1);
; 1057 : 		}
; 1058 : 		else {

	jmp	SHORT $LN8@SetupDamag
$LN10@SetupDamag:

; 1059 : 			ptr -> SetSwitchMask(DAMAGEF16_FRONTBREAK_SWITCH, 1);

	push	1
	push	2
	mov	ecx, DWORD PTR _ptr$[ebp]
	call	?SetSwitchMask@DrawableBSP@@QAEXHK@Z	; DrawableBSP::SetSwitchMask
$LN8@SetupDamag:

; 1060 : 		}
; 1061 : 		if (!(piece -> mask & DAMAGEF16_RWING)) {

	mov	ecx, DWORD PTR _piece$[ebp]
	mov	edx, DWORD PTR [ecx]
	and	edx, 1
	jne	SHORT $LN7@SetupDamag

; 1062 : 			ptr -> SetSwitchMask(DAMAGEF16_RWINGBREAK_SWITCH, 1);

	push	1
	push	4
	mov	ecx, DWORD PTR _ptr$[ebp]
	call	?SetSwitchMask@DrawableBSP@@QAEXHK@Z	; DrawableBSP::SetSwitchMask
$LN7@SetupDamag:

; 1063 : 		}
; 1064 : 		if (!(piece -> mask & DAMAGEF16_LWING)) {

	mov	eax, DWORD PTR _piece$[ebp]
	mov	ecx, DWORD PTR [eax]
	and	ecx, 2
	jne	SHORT $LN6@SetupDamag

; 1065 : 			ptr -> SetSwitchMask(DAMAGEF16_LWINGBREAK_SWITCH, 1);

	push	1
	push	3
	mov	ecx, DWORD PTR _ptr$[ebp]
	call	?SetSwitchMask@DrawableBSP@@QAEXHK@Z	; DrawableBSP::SetSwitchMask
$LN6@SetupDamag:

; 1066 : 		}
; 1067 : 	}

	jmp	SHORT $LN1@SetupDamag
$LN11@SetupDamag:

; 1068 : 	else if (piece -> mask & DAMAGEF16_FRONT) {

	mov	edx, DWORD PTR _piece$[ebp]
	mov	eax, DWORD PTR [edx]
	and	eax, 32					; 00000020H
	je	SHORT $LN4@SetupDamag

; 1069 : 		if (!(piece -> mask & DAMAGEF16_NOSE)) {

	mov	ecx, DWORD PTR _piece$[ebp]
	mov	edx, DWORD PTR [ecx]
	and	edx, 64					; 00000040H
	jne	SHORT $LN3@SetupDamag

; 1070 : 			ptr -> SetSwitchMask(DAMAGEF16_NOSEBREAK_SWITCH, 1);

	push	1
	push	1
	mov	ecx, DWORD PTR _ptr$[ebp]
	call	?SetSwitchMask@DrawableBSP@@QAEXHK@Z	; DrawableBSP::SetSwitchMask
$LN3@SetupDamag:

; 1071 : 		}
; 1072 : 		ptr -> SetSwitchMask(DAMAGEF16_FRONTBREAK_SWITCH, 1);

	push	1
	push	2
	mov	ecx, DWORD PTR _ptr$[ebp]
	call	?SetSwitchMask@DrawableBSP@@QAEXHK@Z	; DrawableBSP::SetSwitchMask
	jmp	SHORT $LN1@SetupDamag
$LN4@SetupDamag:

; 1073 : //		ptr -> SetSwitchMask(DAMAGEF16_CANOPYBREAK_SWITCH, 1);
; 1074 : 	}
; 1075 : 	else if (piece -> mask & DAMAGEF16_NOSE) {

	mov	eax, DWORD PTR _piece$[ebp]
	mov	ecx, DWORD PTR [eax]
	and	ecx, 64					; 00000040H
	je	SHORT $LN1@SetupDamag

; 1076 : 		ptr -> SetSwitchMask(DAMAGEF16_NOSEBREAK_SWITCH, 1);

	push	1
	push	1
	mov	ecx, DWORD PTR _ptr$[ebp]
	call	?SetSwitchMask@DrawableBSP@@QAEXHK@Z	; DrawableBSP::SetSwitchMask
$LN1@SetupDamag:

; 1077 : 	}
; 1078 : 
; 1079 : 	ptr -> GetChildOffset(piece->index, &slot);

	lea	edx, DWORD PTR _slot$[ebp]
	push	edx
	mov	eax, DWORD PTR _piece$[ebp]
	mov	ecx, DWORD PTR [eax+4]
	push	ecx
	mov	ecx, DWORD PTR _ptr$[ebp]
	call	?GetChildOffset@DrawableBSP@@QAEXHPAUTpoint@@@Z ; DrawableBSP::GetChildOffset

; 1080 : 	slot.x = -slot.x;

	movss	xmm0, DWORD PTR _slot$[ebp]
	xorps	xmm0, DWORD PTR __xmm@80000000800000008000000080000000
	movss	DWORD PTR _slot$[ebp], xmm0

; 1081 : 	slot.y = -slot.y;

	movss	xmm0, DWORD PTR _slot$[ebp+4]
	xorps	xmm0, DWORD PTR __xmm@80000000800000008000000080000000
	movss	DWORD PTR _slot$[ebp+4], xmm0

; 1082 : 	slot.z = -slot.z;

	movss	xmm0, DWORD PTR _slot$[ebp+8]
	xorps	xmm0, DWORD PTR __xmm@80000000800000008000000080000000
	movss	DWORD PTR _slot$[ebp+8], xmm0

; 1083 : 
; 1084 : 	tmpSimBase -> SetPosition (piececenter.x, piececenter.y, piececenter.z);

	push	ecx
	movss	xmm0, DWORD PTR _piececenter$[ebp+8]
	movss	DWORD PTR [esp], xmm0
	push	ecx
	movss	xmm0, DWORD PTR _piececenter$[ebp+4]
	movss	DWORD PTR [esp], xmm0
	push	ecx
	movss	xmm0, DWORD PTR _piececenter$[ebp]
	movss	DWORD PTR [esp], xmm0
	mov	ecx, DWORD PTR _tmpSimBase$[ebp]
	call	?SetPosition@VuEntity@@QAEXMMM@Z	; VuEntity::SetPosition

; 1085 : 	tmpSimBase->SetDelta (piece->dx, piece->dy, piece->dz);

	mov	edx, DWORD PTR _piece$[ebp]
	push	ecx
	movss	xmm0, DWORD PTR [edx+32]
	movss	DWORD PTR [esp], xmm0
	mov	eax, DWORD PTR _piece$[ebp]
	push	ecx
	movss	xmm0, DWORD PTR [eax+28]
	movss	DWORD PTR [esp], xmm0
	mov	ecx, DWORD PTR _piece$[ebp]
	push	ecx
	movss	xmm0, DWORD PTR [ecx+24]
	movss	DWORD PTR [esp], xmm0
	mov	ecx, DWORD PTR _tmpSimBase$[ebp]
	call	?SetDelta@VuEntity@@QAEXMMM@Z		; VuEntity::SetDelta

; 1086 : 	tmpSimBase->SetYPRDelta (piece->yd, piece->pd, piece->rd);

	mov	edx, DWORD PTR _piece$[ebp]
	push	ecx
	movss	xmm0, DWORD PTR [edx+44]
	movss	DWORD PTR [esp], xmm0
	mov	eax, DWORD PTR _piece$[ebp]
	push	ecx
	movss	xmm0, DWORD PTR [eax+40]
	movss	DWORD PTR [esp], xmm0
	mov	ecx, DWORD PTR _piece$[ebp]
	push	ecx
	movss	xmm0, DWORD PTR [ecx+36]
	movss	DWORD PTR [esp], xmm0
	mov	ecx, DWORD PTR _tmpSimBase$[ebp]
	call	?SetYPRDelta@VuEntity@@QAEXMMM@Z	; VuEntity::SetYPRDelta

; 1087 : 	OTWDriver.AddSfxRequest( 
; 1088 : 		new SfxClass(
; 1089 : 										piece->sfxtype, piece->sfxflag, tmpSimBase, 
; 1090 : 										piece->lifetime, OTWDriver.Scale(),
; 1091 : 										&slot, piece -> pitch, piece -> roll
; 1092 : 										  )
; 1093 : 							);

	push	192					; 000000c0H
	call	??2@YAPAXI@Z				; operator new
	add	esp, 4
	mov	DWORD PTR $T5[ebp], eax
	mov	DWORD PTR __$EHRec$[ebp+8], 1
	cmp	DWORD PTR $T5[ebp], 0
	je	SHORT $LN16@SetupDamag
	mov	edx, DWORD PTR _piece$[ebp]
	push	ecx
	movss	xmm0, DWORD PTR [edx+52]
	movss	DWORD PTR [esp], xmm0
	mov	eax, DWORD PTR _piece$[ebp]
	push	ecx
	movss	xmm0, DWORD PTR [eax+48]
	movss	DWORD PTR [esp], xmm0
	lea	ecx, DWORD PTR _slot$[ebp]
	push	ecx
	mov	ecx, OFFSET ?OTWDriver@@3VOTWDriverClass@@A ; OTWDriver
	call	?Scale@OTWDriverClass@@QAEMXZ		; OTWDriverClass::Scale
	push	ecx
	fstp	DWORD PTR [esp]
	mov	edx, DWORD PTR _piece$[ebp]
	push	ecx
	movss	xmm0, DWORD PTR [edx+20]
	movss	DWORD PTR [esp], xmm0
	mov	eax, DWORD PTR _tmpSimBase$[ebp]
	push	eax
	mov	ecx, DWORD PTR _piece$[ebp]
	mov	edx, DWORD PTR [ecx+12]
	push	edx
	mov	eax, DWORD PTR _piece$[ebp]
	mov	ecx, DWORD PTR [eax+16]
	push	ecx
	mov	ecx, DWORD PTR $T5[ebp]
	call	??0SfxClass@@QAE@HHPAVSimBaseClass@@MMPAUTpoint@@MM@Z ; SfxClass::SfxClass
	mov	DWORD PTR tv272[ebp], eax
	jmp	SHORT $LN17@SetupDamag
$LN16@SetupDamag:
	mov	DWORD PTR tv272[ebp], 0
$LN17@SetupDamag:
	mov	edx, DWORD PTR tv272[ebp]
	mov	DWORD PTR $T3[ebp], edx
	mov	DWORD PTR __$EHRec$[ebp+8], -1
	mov	eax, DWORD PTR $T3[ebp]
	push	eax
	mov	ecx, OFFSET ?OTWDriver@@3VOTWDriverClass@@A ; OTWDriver
	call	?AddSfxRequest@OTWDriverClass@@QAEXPAVSfxClass@@@Z ; OTWDriverClass::AddSfxRequest

; 1094 : }

	mov	ecx, DWORD PTR __$EHRec$[ebp]
	mov	DWORD PTR fs:0, ecx
	pop	ecx
	mov	ecx, DWORD PTR __$ArrayPad$[ebp]
	xor	ecx, ebp
	call	@__security_check_cookie@4
	mov	esp, ebp
	pop	ebp
	ret	4
_TEXT	ENDS
text$x	SEGMENT
__unwindfunclet$?SetupDamageF16Effects@AircraftClass@@IAEXPAUDamageF16PieceStructure@@@Z$0:
	mov	eax, DWORD PTR $T4[ebp]
	push	eax
	call	??3@YAXPAX@Z				; operator delete
	pop	ecx
	ret	0
__unwindfunclet$?SetupDamageF16Effects@AircraftClass@@IAEXPAUDamageF16PieceStructure@@@Z$1:
	mov	eax, DWORD PTR $T5[ebp]
	push	eax
	call	??3@YAXPAX@Z				; operator delete
	pop	ecx
	ret	0
__ehhandler$?SetupDamageF16Effects@AircraftClass@@IAEXPAUDamageF16PieceStructure@@@Z:
	mov	edx, DWORD PTR [esp+8]
	lea	eax, DWORD PTR [edx+12]
	mov	ecx, DWORD PTR [edx-68]
	xor	ecx, eax
	call	@__security_check_cookie@4
	mov	ecx, DWORD PTR [edx-4]
	xor	ecx, eax
	call	@__security_check_cookie@4
	mov	eax, OFFSET __ehfuncinfo$?SetupDamageF16Effects@AircraftClass@@IAEXPAUDamageF16PieceStructure@@@Z
	jmp	___CxxFrameHandler3
text$x	ENDS
?SetupDamageF16Effects@AircraftClass@@IAEXPAUDamageF16PieceStructure@@@Z ENDP ; AircraftClass::SetupDamageF16Effects
; Function compile flags: /Odtp
; File c:\users\zhitao li\documents\visual studio 2012\projects\freefalcon\sim\aircraft\damage.cpp
_TEXT	SEGMENT
tv149 = -416						; size = 4
_groundZ$ = -412					; size = 4
_numpiece$ = -408					; size = 4
_i$ = -404						; size = 4
_this$ = -400						; size = 4
_piece$ = -396						; size = 392
__$ArrayPad$ = -4					; size = 4
?CreateDamageF16Effects@AircraftClass@@IAEHXZ PROC	; AircraftClass::CreateDamageF16Effects
; _this$ = ecx

; 1097 : {

	push	ebp
	mov	ebp, esp
	sub	esp, 416				; 000001a0H
	mov	eax, DWORD PTR ___security_cookie
	xor	eax, ebp
	mov	DWORD PTR __$ArrayPad$[ebp], eax
	mov	DWORD PTR _this$[ebp], ecx

; 1098 : 	if (!IsF16()) return 0;

	mov	ecx, DWORD PTR _this$[ebp]
	call	?IsF16@AircraftClass@@QAEHXZ		; AircraftClass::IsF16
	test	eax, eax
	jne	SHORT $LN6@CreateDama
	xor	eax, eax
	jmp	$LN7@CreateDama
$LN6@CreateDama:

; 1099 : 
; 1100 : 	float groundZ = OTWDriver.GetApproxGroundLevel (XPos(), YPos());

	mov	ecx, DWORD PTR _this$[ebp]
	call	?YPos@VuEntity@@QBEMXZ			; VuEntity::YPos
	push	ecx
	fstp	DWORD PTR [esp]
	mov	ecx, DWORD PTR _this$[ebp]
	call	?XPos@VuEntity@@QBEMXZ			; VuEntity::XPos
	push	ecx
	fstp	DWORD PTR [esp]
	mov	ecx, OFFSET ?OTWDriver@@3VOTWDriverClass@@A ; OTWDriver
	call	?GetApproxGroundLevel@OTWDriverClass@@QAEMMM@Z ; OTWDriverClass::GetApproxGroundLevel
	fstp	DWORD PTR _groundZ$[ebp]

; 1101 : 	if (  ZPos() - groundZ  < -500.0f ) return 0;	// not ground explosion

	mov	ecx, DWORD PTR _this$[ebp]
	call	?ZPos@VuEntity@@QBEMXZ			; VuEntity::ZPos
	fstp	DWORD PTR tv149[ebp]
	movss	xmm0, DWORD PTR tv149[ebp]
	subss	xmm0, DWORD PTR _groundZ$[ebp]
	movss	xmm1, DWORD PTR __real@c3fa0000
	comiss	xmm1, xmm0
	jbe	SHORT $LN5@CreateDama
	xor	eax, eax
	jmp	$LN7@CreateDama
$LN5@CreateDama:

; 1102 : 
; 1103 : 	DamageF16PieceStructure piece[7];
; 1104 : 	int	i = DAMAGEF16_ALL;

	mov	DWORD PTR _i$[ebp], 127			; 0000007fH

; 1105 : 	int numpiece = CreateDamageF16Piece (piece, &i);

	lea	eax, DWORD PTR _i$[ebp]
	push	eax
	lea	ecx, DWORD PTR _piece$[ebp]
	push	ecx
	mov	ecx, DWORD PTR _this$[ebp]
	call	?CreateDamageF16Piece@AircraftClass@@IAEHPAUDamageF16PieceStructure@@PAH@Z ; AircraftClass::CreateDamageF16Piece
	mov	DWORD PTR _numpiece$[ebp], eax

; 1106 : 	if (!numpiece) return 0;

	cmp	DWORD PTR _numpiece$[ebp], 0
	jne	SHORT $LN4@CreateDama
	xor	eax, eax
	jmp	SHORT $LN7@CreateDama
$LN4@CreateDama:

; 1107 : 
; 1108 : 	for (i=0; i < numpiece; i++) 

	mov	DWORD PTR _i$[ebp], 0
	jmp	SHORT $LN3@CreateDama
$LN2@CreateDama:
	mov	edx, DWORD PTR _i$[ebp]
	add	edx, 1
	mov	DWORD PTR _i$[ebp], edx
$LN3@CreateDama:
	mov	eax, DWORD PTR _i$[ebp]
	cmp	eax, DWORD PTR _numpiece$[ebp]
	jge	SHORT $LN1@CreateDama

; 1109 : 		SetupDamageF16Effects (&(piece[i]));

	mov	ecx, DWORD PTR _i$[ebp]
	imul	ecx, 56					; 00000038H
	lea	edx, DWORD PTR _piece$[ebp+ecx]
	push	edx
	mov	ecx, DWORD PTR _this$[ebp]
	call	?SetupDamageF16Effects@AircraftClass@@IAEXPAUDamageF16PieceStructure@@@Z ; AircraftClass::SetupDamageF16Effects
	jmp	SHORT $LN2@CreateDama
$LN1@CreateDama:

; 1110 : 
; 1111 : 	return 1;

	mov	eax, 1
$LN7@CreateDama:

; 1112 : }

	mov	ecx, DWORD PTR __$ArrayPad$[ebp]
	xor	ecx, ebp
	call	@__security_check_cookie@4
	mov	esp, ebp
	pop	ebp
	ret	0
?CreateDamageF16Effects@AircraftClass@@IAEHXZ ENDP	; AircraftClass::CreateDamageF16Effects
_TEXT	ENDS
; Function compile flags: /Odtp
; File c:\users\zhitao li\documents\visual studio 2012\projects\freefalcon\sim\aircraft\damage.cpp
_TEXT	SEGMENT
_j$1 = -116						; size = 4
tv1129 = -112						; size = 4
tv1122 = -108						; size = 4
tv1116 = -104						; size = 4
tv1110 = -100						; size = 4
tv1165 = -96						; size = 4
tv763 = -92						; size = 4
tv1167 = -88						; size = 4
tv759 = -84						; size = 4
tv1161 = -80						; size = 4
tv755 = -76						; size = 4
tv1163 = -72						; size = 4
tv751 = -68						; size = 4
tv747 = -64						; size = 4
tv1159 = -60						; size = 4
tv743 = -56						; size = 4
_range1$ = -52						; size = 4
_k$2 = -48						; size = 4
_range2$ = -44						; size = 4
_range$ = -40						; size = 4
_l$3 = -36						; size = 4
_r$ = -32						; size = 4
_p$ = -28						; size = 4
_i$4 = -24						; size = 4
_damagetype$ = -20					; size = 4
_speed$ = -16						; size = 4
_this$ = -12						; size = 4
_dirflag$ = -8						; size = 4
_numpiece$ = -4						; size = 4
_piece$ = 8						; size = 4
_mask$ = 12						; size = 4
?CreateDamageF16Piece@AircraftClass@@IAEHPAUDamageF16PieceStructure@@PAH@Z PROC ; AircraftClass::CreateDamageF16Piece
; _this$ = ecx

; 861  : {

	push	ebp
	mov	ebp, esp
	sub	esp, 116				; 00000074H
	mov	DWORD PTR _this$[ebp], ecx

; 862  : 	float p = (float)asin(dmx[0][2]);

	mov	eax, 12					; 0000000cH
	imul	eax, 0
	mov	ecx, DWORD PTR _this$[ebp]
	lea	edx, DWORD PTR [ecx+eax+296]
	mov	eax, 4
	shl	eax, 1
	push	ecx
	movss	xmm0, DWORD PTR [edx+eax]
	movss	DWORD PTR [esp], xmm0
	call	?asin@@YAMM@Z				; asin
	add	esp, 4
	fstp	DWORD PTR _p$[ebp]

; 863  : 	if (p > 70.0f*DTR) return 0;	

	movss	xmm0, DWORD PTR _p$[ebp]
	comiss	xmm0, DWORD PTR __real@3f9c61a9
	jbe	SHORT $LN52@CreateDama
	xor	eax, eax
	jmp	$LN53@CreateDama
$LN52@CreateDama:

; 864  : 
; 865  : 	float r = (float)atan2(dmx[1][2], dmx[2][2]);

	mov	ecx, 12					; 0000000cH
	shl	ecx, 1
	mov	edx, DWORD PTR _this$[ebp]
	lea	eax, DWORD PTR [edx+ecx+296]
	mov	ecx, 4
	shl	ecx, 1
	cvtss2sd xmm0, DWORD PTR [eax+ecx]
	sub	esp, 8
	movsd	QWORD PTR [esp], xmm0
	mov	edx, 12					; 0000000cH
	shl	edx, 0
	mov	eax, DWORD PTR _this$[ebp]
	lea	ecx, DWORD PTR [eax+edx+296]
	mov	edx, 4
	shl	edx, 1
	cvtss2sd xmm0, DWORD PTR [ecx+edx]
	sub	esp, 8
	movsd	QWORD PTR [esp], xmm0
	call	?checked_atan2@@YANNN@Z			; checked_atan2
	add	esp, 16					; 00000010H
	fstp	DWORD PTR _r$[ebp]

; 866  : 	float range = 5.0f * DTR;

	movss	xmm0, DWORD PTR __real@3db2b8c1
	movss	DWORD PTR _range$[ebp], xmm0

; 867  : 	float range1 = 15.0f * DTR;

	movss	xmm0, DWORD PTR __real@3e860a91
	movss	DWORD PTR _range1$[ebp], xmm0

; 868  : 	float range2 = 50.0f * DTR;

	movss	xmm0, DWORD PTR __real@3f5f66f1
	movss	DWORD PTR _range2$[ebp], xmm0

; 869  : 	int	damagetype = 0;

	mov	DWORD PTR _damagetype$[ebp], 0

; 870  : 
; 871  : 	if (r > range) {

	movss	xmm0, DWORD PTR _r$[ebp]
	comiss	xmm0, DWORD PTR _range$[ebp]
	jbe	SHORT $LN51@CreateDama

; 872  : 		damagetype |= 0x2;		// right

	mov	eax, DWORD PTR _damagetype$[ebp]
	or	eax, 2
	mov	DWORD PTR _damagetype$[ebp], eax

; 873  : 		if (r > range2) damagetype |= 0x10;

	movss	xmm0, DWORD PTR _r$[ebp]
	comiss	xmm0, DWORD PTR _range2$[ebp]
	jbe	SHORT $LN50@CreateDama
	mov	ecx, DWORD PTR _damagetype$[ebp]
	or	ecx, 16					; 00000010H
	mov	DWORD PTR _damagetype$[ebp], ecx
$LN50@CreateDama:

; 874  : 	}

	jmp	SHORT $LN47@CreateDama
$LN51@CreateDama:

; 875  : 	else if (r < -range) {

	movss	xmm0, DWORD PTR _range$[ebp]
	xorps	xmm0, DWORD PTR __xmm@80000000800000008000000080000000
	comiss	xmm0, DWORD PTR _r$[ebp]
	jbe	SHORT $LN47@CreateDama

; 876  : 		damagetype |= 0x1;		// left

	mov	edx, DWORD PTR _damagetype$[ebp]
	or	edx, 1
	mov	DWORD PTR _damagetype$[ebp], edx

; 877  : 		if (r < -range2) damagetype |= 0x10;

	movss	xmm0, DWORD PTR _range2$[ebp]
	xorps	xmm0, DWORD PTR __xmm@80000000800000008000000080000000
	comiss	xmm0, DWORD PTR _r$[ebp]
	jbe	SHORT $LN47@CreateDama
	mov	eax, DWORD PTR _damagetype$[ebp]
	or	eax, 16					; 00000010H
	mov	DWORD PTR _damagetype$[ebp], eax
$LN47@CreateDama:

; 878  : 	}
; 879  : 
; 880  : 	if (p > range) {

	movss	xmm0, DWORD PTR _p$[ebp]
	comiss	xmm0, DWORD PTR _range$[ebp]
	jbe	SHORT $LN42@CreateDama

; 881  : 		if (p > range2) damagetype |= 0x1c;

	movss	xmm0, DWORD PTR _p$[ebp]
	comiss	xmm0, DWORD PTR _range2$[ebp]
	jbe	SHORT $LN45@CreateDama
	mov	ecx, DWORD PTR _damagetype$[ebp]
	or	ecx, 28					; 0000001cH
	mov	DWORD PTR _damagetype$[ebp], ecx
	jmp	SHORT $LN42@CreateDama
$LN45@CreateDama:

; 882  : 		else if (p > range1) damagetype |= 0x8;

	movss	xmm0, DWORD PTR _p$[ebp]
	comiss	xmm0, DWORD PTR _range1$[ebp]
	jbe	SHORT $LN43@CreateDama
	mov	edx, DWORD PTR _damagetype$[ebp]
	or	edx, 8
	mov	DWORD PTR _damagetype$[ebp], edx
	jmp	SHORT $LN42@CreateDama
$LN43@CreateDama:

; 883  : 		else damagetype |= 0x4;

	mov	eax, DWORD PTR _damagetype$[ebp]
	or	eax, 4
	mov	DWORD PTR _damagetype$[ebp], eax
$LN42@CreateDama:

; 884  : 	}
; 885  : 	float speed = (float)sqrt(XDelta()*XDelta()+YDelta()*YDelta()+ZDelta()*ZDelta());

	mov	ecx, DWORD PTR _this$[ebp]
	call	?XDelta@VuEntity@@QBEMXZ		; VuEntity::XDelta
	fstp	DWORD PTR tv743[ebp]
	movss	xmm0, DWORD PTR tv743[ebp]
	mov	ecx, DWORD PTR _this$[ebp]
	movss	DWORD PTR tv1159[ebp], xmm0
	call	?XDelta@VuEntity@@QBEMXZ		; VuEntity::XDelta
	fstp	DWORD PTR tv747[ebp]
	movss	xmm0, DWORD PTR tv1159[ebp]
	mulss	xmm0, DWORD PTR tv747[ebp]
	mov	ecx, DWORD PTR _this$[ebp]
	movss	DWORD PTR tv1161[ebp], xmm0
	call	?YDelta@VuEntity@@QBEMXZ		; VuEntity::YDelta
	fstp	DWORD PTR tv751[ebp]
	movss	xmm0, DWORD PTR tv751[ebp]
	mov	ecx, DWORD PTR _this$[ebp]
	movss	DWORD PTR tv1163[ebp], xmm0
	call	?YDelta@VuEntity@@QBEMXZ		; VuEntity::YDelta
	fstp	DWORD PTR tv755[ebp]
	movss	xmm0, DWORD PTR tv1163[ebp]
	mulss	xmm0, DWORD PTR tv755[ebp]
	movss	xmm1, DWORD PTR tv1161[ebp]
	addss	xmm1, xmm0
	mov	ecx, DWORD PTR _this$[ebp]
	movss	DWORD PTR tv1165[ebp], xmm1
	call	?ZDelta@VuEntity@@QBEMXZ		; VuEntity::ZDelta
	fstp	DWORD PTR tv759[ebp]
	movss	xmm0, DWORD PTR tv759[ebp]
	mov	ecx, DWORD PTR _this$[ebp]
	movss	DWORD PTR tv1167[ebp], xmm0
	call	?ZDelta@VuEntity@@QBEMXZ		; VuEntity::ZDelta
	fstp	DWORD PTR tv763[ebp]
	movss	xmm0, DWORD PTR tv1167[ebp]
	mulss	xmm0, DWORD PTR tv763[ebp]
	movss	xmm1, DWORD PTR tv1165[ebp]
	addss	xmm1, xmm0
	push	ecx
	movss	DWORD PTR [esp], xmm1
	call	?SqrtSSE@@YAMM@Z			; SqrtSSE
	add	esp, 4
	fstp	DWORD PTR _speed$[ebp]

; 886  : 	if (damagetype) {

	cmp	DWORD PTR _damagetype$[ebp], 0
	je	SHORT $LN37@CreateDama

; 887  : 		if (speed > 200.0f && speed < 500.0f) {

	movss	xmm0, DWORD PTR _speed$[ebp]
	comiss	xmm0, DWORD PTR __real@43480000
	jbe	SHORT $LN40@CreateDama
	movss	xmm0, DWORD PTR __real@43fa0000
	comiss	xmm0, DWORD PTR _speed$[ebp]
	jbe	SHORT $LN40@CreateDama

; 888  : 			if (damagetype & 0x4) damagetype |= 8;

	mov	ecx, DWORD PTR _damagetype$[ebp]
	and	ecx, 4
	je	SHORT $LN39@CreateDama
	mov	edx, DWORD PTR _damagetype$[ebp]
	or	edx, 8
	mov	DWORD PTR _damagetype$[ebp], edx
$LN39@CreateDama:

; 889  : 		}

	jmp	SHORT $LN37@CreateDama
$LN40@CreateDama:

; 890  : 		else if (speed > 500.0f) damagetype |= 0x10;

	movss	xmm0, DWORD PTR _speed$[ebp]
	comiss	xmm0, DWORD PTR __real@43fa0000
	jbe	SHORT $LN37@CreateDama
	mov	eax, DWORD PTR _damagetype$[ebp]
	or	eax, 16					; 00000010H
	mov	DWORD PTR _damagetype$[ebp], eax
$LN37@CreateDama:

; 891  : 	}
; 892  : 
; 893  : 	int dirflag = DAMAGEF16_TOFRONT;

	mov	DWORD PTR _dirflag$[ebp], 4

; 894  : 	int	numpiece = 0;

	mov	DWORD PTR _numpiece$[ebp], 0

; 895  : 	if (damagetype & 0x10) 

	mov	ecx, DWORD PTR _damagetype$[ebp]
	and	ecx, 16					; 00000010H
	je	$LN36@CreateDama

; 896  : 	{			// full damage
; 897  : 		if (damagetype & 0xc) {			// damage to the front

	mov	edx, DWORD PTR _damagetype$[ebp]
	and	edx, 12					; 0000000cH
	je	$LN35@CreateDama

; 898  : 			dirflag = DAMAGEF16_TOFRONT;

	mov	DWORD PTR _dirflag$[ebp], 4

; 899  : 			numpiece += SetDamageF16PieceType (&(piece[numpiece]), DAMAGEF16_LWING, dirflag, *mask, speed);

	push	ecx
	movss	xmm0, DWORD PTR _speed$[ebp]
	movss	DWORD PTR [esp], xmm0
	mov	eax, DWORD PTR _mask$[ebp]
	mov	ecx, DWORD PTR [eax]
	push	ecx
	mov	edx, DWORD PTR _dirflag$[ebp]
	push	edx
	push	2
	mov	eax, DWORD PTR _numpiece$[ebp]
	imul	eax, 56					; 00000038H
	add	eax, DWORD PTR _piece$[ebp]
	push	eax
	mov	ecx, DWORD PTR _this$[ebp]
	call	?SetDamageF16PieceType@AircraftClass@@IAEHPAUDamageF16PieceStructure@@HHHM@Z ; AircraftClass::SetDamageF16PieceType
	add	eax, DWORD PTR _numpiece$[ebp]
	mov	DWORD PTR _numpiece$[ebp], eax

; 900  : 			numpiece += SetDamageF16PieceType (&(piece[numpiece]), DAMAGEF16_LSTAB, dirflag, *mask, speed);

	push	ecx
	movss	xmm0, DWORD PTR _speed$[ebp]
	movss	DWORD PTR [esp], xmm0
	mov	ecx, DWORD PTR _mask$[ebp]
	mov	edx, DWORD PTR [ecx]
	push	edx
	mov	eax, DWORD PTR _dirflag$[ebp]
	push	eax
	push	4
	mov	ecx, DWORD PTR _numpiece$[ebp]
	imul	ecx, 56					; 00000038H
	add	ecx, DWORD PTR _piece$[ebp]
	push	ecx
	mov	ecx, DWORD PTR _this$[ebp]
	call	?SetDamageF16PieceType@AircraftClass@@IAEHPAUDamageF16PieceStructure@@HHHM@Z ; AircraftClass::SetDamageF16PieceType
	add	eax, DWORD PTR _numpiece$[ebp]
	mov	DWORD PTR _numpiece$[ebp], eax

; 901  : 			numpiece += SetDamageF16PieceType (&(piece[numpiece]), DAMAGEF16_RWING, dirflag, *mask, speed);

	push	ecx
	movss	xmm0, DWORD PTR _speed$[ebp]
	movss	DWORD PTR [esp], xmm0
	mov	edx, DWORD PTR _mask$[ebp]
	mov	eax, DWORD PTR [edx]
	push	eax
	mov	ecx, DWORD PTR _dirflag$[ebp]
	push	ecx
	push	1
	mov	edx, DWORD PTR _numpiece$[ebp]
	imul	edx, 56					; 00000038H
	add	edx, DWORD PTR _piece$[ebp]
	push	edx
	mov	ecx, DWORD PTR _this$[ebp]
	call	?SetDamageF16PieceType@AircraftClass@@IAEHPAUDamageF16PieceStructure@@HHHM@Z ; AircraftClass::SetDamageF16PieceType
	add	eax, DWORD PTR _numpiece$[ebp]
	mov	DWORD PTR _numpiece$[ebp], eax

; 902  : 			numpiece += SetDamageF16PieceType (&(piece[numpiece]), DAMAGEF16_RSTAB, dirflag, *mask, speed);

	push	ecx
	movss	xmm0, DWORD PTR _speed$[ebp]
	movss	DWORD PTR [esp], xmm0
	mov	eax, DWORD PTR _mask$[ebp]
	mov	ecx, DWORD PTR [eax]
	push	ecx
	mov	edx, DWORD PTR _dirflag$[ebp]
	push	edx
	push	8
	mov	eax, DWORD PTR _numpiece$[ebp]
	imul	eax, 56					; 00000038H
	add	eax, DWORD PTR _piece$[ebp]
	push	eax
	mov	ecx, DWORD PTR _this$[ebp]
	call	?SetDamageF16PieceType@AircraftClass@@IAEHPAUDamageF16PieceStructure@@HHHM@Z ; AircraftClass::SetDamageF16PieceType
	add	eax, DWORD PTR _numpiece$[ebp]
	mov	DWORD PTR _numpiece$[ebp], eax

; 903  : 			numpiece += SetDamageF16PieceType (&(piece[numpiece]), DAMAGEF16_NOSE,  dirflag, *mask, speed);

	push	ecx
	movss	xmm0, DWORD PTR _speed$[ebp]
	movss	DWORD PTR [esp], xmm0
	mov	ecx, DWORD PTR _mask$[ebp]
	mov	edx, DWORD PTR [ecx]
	push	edx
	mov	eax, DWORD PTR _dirflag$[ebp]
	push	eax
	push	64					; 00000040H
	mov	ecx, DWORD PTR _numpiece$[ebp]
	imul	ecx, 56					; 00000038H
	add	ecx, DWORD PTR _piece$[ebp]
	push	ecx
	mov	ecx, DWORD PTR _this$[ebp]
	call	?SetDamageF16PieceType@AircraftClass@@IAEHPAUDamageF16PieceStructure@@HHHM@Z ; AircraftClass::SetDamageF16PieceType
	add	eax, DWORD PTR _numpiece$[ebp]
	mov	DWORD PTR _numpiece$[ebp], eax

; 904  : 			numpiece += SetDamageF16PieceType (&(piece[numpiece]), DAMAGEF16_FRONT, dirflag, *mask, speed);

	push	ecx
	movss	xmm0, DWORD PTR _speed$[ebp]
	movss	DWORD PTR [esp], xmm0
	mov	edx, DWORD PTR _mask$[ebp]
	mov	eax, DWORD PTR [edx]
	push	eax
	mov	ecx, DWORD PTR _dirflag$[ebp]
	push	ecx
	push	32					; 00000020H
	mov	edx, DWORD PTR _numpiece$[ebp]
	imul	edx, 56					; 00000038H
	add	edx, DWORD PTR _piece$[ebp]
	push	edx
	mov	ecx, DWORD PTR _this$[ebp]
	call	?SetDamageF16PieceType@AircraftClass@@IAEHPAUDamageF16PieceStructure@@HHHM@Z ; AircraftClass::SetDamageF16PieceType
	add	eax, DWORD PTR _numpiece$[ebp]
	mov	DWORD PTR _numpiece$[ebp], eax

; 905  : 			numpiece += SetDamageF16PieceType (&(piece[numpiece]), DAMAGEF16_BACK,  dirflag, *mask, speed);

	push	ecx
	movss	xmm0, DWORD PTR _speed$[ebp]
	movss	DWORD PTR [esp], xmm0
	mov	eax, DWORD PTR _mask$[ebp]
	mov	ecx, DWORD PTR [eax]
	push	ecx
	mov	edx, DWORD PTR _dirflag$[ebp]
	push	edx
	push	16					; 00000010H
	mov	eax, DWORD PTR _numpiece$[ebp]
	imul	eax, 56					; 00000038H
	add	eax, DWORD PTR _piece$[ebp]
	push	eax
	mov	ecx, DWORD PTR _this$[ebp]
	call	?SetDamageF16PieceType@AircraftClass@@IAEHPAUDamageF16PieceStructure@@HHHM@Z ; AircraftClass::SetDamageF16PieceType
	add	eax, DWORD PTR _numpiece$[ebp]
	mov	DWORD PTR _numpiece$[ebp], eax

; 906  : 			*mask &= DAMAGEF16_BACK;

	mov	ecx, DWORD PTR _mask$[ebp]
	mov	edx, DWORD PTR [ecx]
	and	edx, 16					; 00000010H
	mov	eax, DWORD PTR _mask$[ebp]
	mov	DWORD PTR [eax], edx
	jmp	$LN33@CreateDama
$LN35@CreateDama:

; 907  : 		}
; 908  : 		else if (damagetype & 0x3)

	mov	ecx, DWORD PTR _damagetype$[ebp]
	and	ecx, 3
	je	$LN33@CreateDama

; 909  : 		{	// damage to the left or right
; 910  : 			if (damagetype & 0x1)

	mov	edx, DWORD PTR _damagetype$[ebp]
	and	edx, 1
	je	SHORT $LN32@CreateDama

; 911  : 				dirflag = DAMAGEF16_TOLEFT;

	mov	DWORD PTR _dirflag$[ebp], 1

; 912  : 			else

	jmp	SHORT $LN31@CreateDama
$LN32@CreateDama:

; 913  : 				dirflag = DAMAGEF16_TORIGHT;

	mov	DWORD PTR _dirflag$[ebp], 2
$LN31@CreateDama:

; 914  : 
; 915  : 			numpiece += SetDamageF16PieceType (&(piece[numpiece]), DAMAGEF16_LWING, dirflag, *mask, speed);

	push	ecx
	movss	xmm0, DWORD PTR _speed$[ebp]
	movss	DWORD PTR [esp], xmm0
	mov	eax, DWORD PTR _mask$[ebp]
	mov	ecx, DWORD PTR [eax]
	push	ecx
	mov	edx, DWORD PTR _dirflag$[ebp]
	push	edx
	push	2
	mov	eax, DWORD PTR _numpiece$[ebp]
	imul	eax, 56					; 00000038H
	add	eax, DWORD PTR _piece$[ebp]
	push	eax
	mov	ecx, DWORD PTR _this$[ebp]
	call	?SetDamageF16PieceType@AircraftClass@@IAEHPAUDamageF16PieceStructure@@HHHM@Z ; AircraftClass::SetDamageF16PieceType
	add	eax, DWORD PTR _numpiece$[ebp]
	mov	DWORD PTR _numpiece$[ebp], eax

; 916  : 			numpiece += SetDamageF16PieceType (&(piece[numpiece]), DAMAGEF16_LSTAB, dirflag, *mask, speed);

	push	ecx
	movss	xmm0, DWORD PTR _speed$[ebp]
	movss	DWORD PTR [esp], xmm0
	mov	ecx, DWORD PTR _mask$[ebp]
	mov	edx, DWORD PTR [ecx]
	push	edx
	mov	eax, DWORD PTR _dirflag$[ebp]
	push	eax
	push	4
	mov	ecx, DWORD PTR _numpiece$[ebp]
	imul	ecx, 56					; 00000038H
	add	ecx, DWORD PTR _piece$[ebp]
	push	ecx
	mov	ecx, DWORD PTR _this$[ebp]
	call	?SetDamageF16PieceType@AircraftClass@@IAEHPAUDamageF16PieceStructure@@HHHM@Z ; AircraftClass::SetDamageF16PieceType
	add	eax, DWORD PTR _numpiece$[ebp]
	mov	DWORD PTR _numpiece$[ebp], eax

; 917  : 			numpiece += SetDamageF16PieceType (&(piece[numpiece]), DAMAGEF16_RWING, dirflag, *mask, speed);

	push	ecx
	movss	xmm0, DWORD PTR _speed$[ebp]
	movss	DWORD PTR [esp], xmm0
	mov	edx, DWORD PTR _mask$[ebp]
	mov	eax, DWORD PTR [edx]
	push	eax
	mov	ecx, DWORD PTR _dirflag$[ebp]
	push	ecx
	push	1
	mov	edx, DWORD PTR _numpiece$[ebp]
	imul	edx, 56					; 00000038H
	add	edx, DWORD PTR _piece$[ebp]
	push	edx
	mov	ecx, DWORD PTR _this$[ebp]
	call	?SetDamageF16PieceType@AircraftClass@@IAEHPAUDamageF16PieceStructure@@HHHM@Z ; AircraftClass::SetDamageF16PieceType
	add	eax, DWORD PTR _numpiece$[ebp]
	mov	DWORD PTR _numpiece$[ebp], eax

; 918  : 			numpiece += SetDamageF16PieceType (&(piece[numpiece]), DAMAGEF16_RSTAB, dirflag, *mask, speed);

	push	ecx
	movss	xmm0, DWORD PTR _speed$[ebp]
	movss	DWORD PTR [esp], xmm0
	mov	eax, DWORD PTR _mask$[ebp]
	mov	ecx, DWORD PTR [eax]
	push	ecx
	mov	edx, DWORD PTR _dirflag$[ebp]
	push	edx
	push	8
	mov	eax, DWORD PTR _numpiece$[ebp]
	imul	eax, 56					; 00000038H
	add	eax, DWORD PTR _piece$[ebp]
	push	eax
	mov	ecx, DWORD PTR _this$[ebp]
	call	?SetDamageF16PieceType@AircraftClass@@IAEHPAUDamageF16PieceStructure@@HHHM@Z ; AircraftClass::SetDamageF16PieceType
	add	eax, DWORD PTR _numpiece$[ebp]
	mov	DWORD PTR _numpiece$[ebp], eax

; 919  : 			numpiece += SetDamageF16PieceType (&(piece[numpiece]), DAMAGEF16_ONLYBODY, dirflag, *mask, speed);

	push	ecx
	movss	xmm0, DWORD PTR _speed$[ebp]
	movss	DWORD PTR [esp], xmm0
	mov	ecx, DWORD PTR _mask$[ebp]
	mov	edx, DWORD PTR [ecx]
	push	edx
	mov	eax, DWORD PTR _dirflag$[ebp]
	push	eax
	push	112					; 00000070H
	mov	ecx, DWORD PTR _numpiece$[ebp]
	imul	ecx, 56					; 00000038H
	add	ecx, DWORD PTR _piece$[ebp]
	push	ecx
	mov	ecx, DWORD PTR _this$[ebp]
	call	?SetDamageF16PieceType@AircraftClass@@IAEHPAUDamageF16PieceStructure@@HHHM@Z ; AircraftClass::SetDamageF16PieceType
	add	eax, DWORD PTR _numpiece$[ebp]
	mov	DWORD PTR _numpiece$[ebp], eax

; 920  : 			*mask &= DAMAGEF16_ONLYBODY;

	mov	edx, DWORD PTR _mask$[ebp]
	mov	eax, DWORD PTR [edx]
	and	eax, 112				; 00000070H
	mov	ecx, DWORD PTR _mask$[ebp]
	mov	DWORD PTR [ecx], eax
$LN33@CreateDama:

; 921  : 		}
; 922  : 	}
; 923  : 	else

	jmp	$LN15@CreateDama
$LN36@CreateDama:

; 924  : 	{
; 925  : 		if (damagetype & 0x1)

	mov	edx, DWORD PTR _damagetype$[ebp]
	and	edx, 1
	je	$LN29@CreateDama

; 926  : 		{				// damage to the left
; 927  : 			dirflag = DAMAGEF16_TOLEFT;

	mov	DWORD PTR _dirflag$[ebp], 1

; 928  : 			if (damagetype & 0x4) {			// damage to the nose

	mov	eax, DWORD PTR _damagetype$[ebp]
	and	eax, 4
	je	$LN28@CreateDama

; 929  : 				dirflag |= DAMAGEF16_TOFRONT;

	mov	ecx, DWORD PTR _dirflag$[ebp]
	or	ecx, 4
	mov	DWORD PTR _dirflag$[ebp], ecx

; 930  : 				numpiece += SetDamageF16PieceType (&(piece[numpiece]), DAMAGEF16_LWING, dirflag, *mask, speed);

	push	ecx
	movss	xmm0, DWORD PTR _speed$[ebp]
	movss	DWORD PTR [esp], xmm0
	mov	edx, DWORD PTR _mask$[ebp]
	mov	eax, DWORD PTR [edx]
	push	eax
	mov	ecx, DWORD PTR _dirflag$[ebp]
	push	ecx
	push	2
	mov	edx, DWORD PTR _numpiece$[ebp]
	imul	edx, 56					; 00000038H
	add	edx, DWORD PTR _piece$[ebp]
	push	edx
	mov	ecx, DWORD PTR _this$[ebp]
	call	?SetDamageF16PieceType@AircraftClass@@IAEHPAUDamageF16PieceStructure@@HHHM@Z ; AircraftClass::SetDamageF16PieceType
	add	eax, DWORD PTR _numpiece$[ebp]
	mov	DWORD PTR _numpiece$[ebp], eax

; 931  : 				numpiece += SetDamageF16PieceType (&(piece[numpiece]), DAMAGEF16_LSTAB, dirflag, *mask, speed);

	push	ecx
	movss	xmm0, DWORD PTR _speed$[ebp]
	movss	DWORD PTR [esp], xmm0
	mov	eax, DWORD PTR _mask$[ebp]
	mov	ecx, DWORD PTR [eax]
	push	ecx
	mov	edx, DWORD PTR _dirflag$[ebp]
	push	edx
	push	4
	mov	eax, DWORD PTR _numpiece$[ebp]
	imul	eax, 56					; 00000038H
	add	eax, DWORD PTR _piece$[ebp]
	push	eax
	mov	ecx, DWORD PTR _this$[ebp]
	call	?SetDamageF16PieceType@AircraftClass@@IAEHPAUDamageF16PieceStructure@@HHHM@Z ; AircraftClass::SetDamageF16PieceType
	add	eax, DWORD PTR _numpiece$[ebp]
	mov	DWORD PTR _numpiece$[ebp], eax

; 932  : 				numpiece += SetDamageF16PieceType (&(piece[numpiece]), DAMAGEF16_NOSE, dirflag, *mask, speed);

	push	ecx
	movss	xmm0, DWORD PTR _speed$[ebp]
	movss	DWORD PTR [esp], xmm0
	mov	ecx, DWORD PTR _mask$[ebp]
	mov	edx, DWORD PTR [ecx]
	push	edx
	mov	eax, DWORD PTR _dirflag$[ebp]
	push	eax
	push	64					; 00000040H
	mov	ecx, DWORD PTR _numpiece$[ebp]
	imul	ecx, 56					; 00000038H
	add	ecx, DWORD PTR _piece$[ebp]
	push	ecx
	mov	ecx, DWORD PTR _this$[ebp]
	call	?SetDamageF16PieceType@AircraftClass@@IAEHPAUDamageF16PieceStructure@@HHHM@Z ; AircraftClass::SetDamageF16PieceType
	add	eax, DWORD PTR _numpiece$[ebp]
	mov	DWORD PTR _numpiece$[ebp], eax

; 933  : 				numpiece += SetDamageF16PieceType (&(piece[numpiece]), DAMAGEF16_NOLEFTANDNOSE, dirflag, *mask, speed);

	push	ecx
	movss	xmm0, DWORD PTR _speed$[ebp]
	movss	DWORD PTR [esp], xmm0
	mov	edx, DWORD PTR _mask$[ebp]
	mov	eax, DWORD PTR [edx]
	push	eax
	mov	ecx, DWORD PTR _dirflag$[ebp]
	push	ecx
	push	57					; 00000039H
	mov	edx, DWORD PTR _numpiece$[ebp]
	imul	edx, 56					; 00000038H
	add	edx, DWORD PTR _piece$[ebp]
	push	edx
	mov	ecx, DWORD PTR _this$[ebp]
	call	?SetDamageF16PieceType@AircraftClass@@IAEHPAUDamageF16PieceStructure@@HHHM@Z ; AircraftClass::SetDamageF16PieceType
	add	eax, DWORD PTR _numpiece$[ebp]
	mov	DWORD PTR _numpiece$[ebp], eax

; 934  : 				*mask &= DAMAGEF16_NOLEFTANDNOSE;

	mov	eax, DWORD PTR _mask$[ebp]
	mov	ecx, DWORD PTR [eax]
	and	ecx, 57					; 00000039H
	mov	edx, DWORD PTR _mask$[ebp]
	mov	DWORD PTR [edx], ecx
	jmp	$LN25@CreateDama
$LN28@CreateDama:

; 935  : 			}
; 936  : 			else if (damagetype & 0x8) {	// damage to the front

	mov	eax, DWORD PTR _damagetype$[ebp]
	and	eax, 8
	je	$LN26@CreateDama

; 937  : 				dirflag |= DAMAGEF16_TOFRONT;

	mov	ecx, DWORD PTR _dirflag$[ebp]
	or	ecx, 4
	mov	DWORD PTR _dirflag$[ebp], ecx

; 938  : 				numpiece += SetDamageF16PieceType (&(piece[numpiece]), DAMAGEF16_LWING, dirflag, *mask, speed);

	push	ecx
	movss	xmm0, DWORD PTR _speed$[ebp]
	movss	DWORD PTR [esp], xmm0
	mov	edx, DWORD PTR _mask$[ebp]
	mov	eax, DWORD PTR [edx]
	push	eax
	mov	ecx, DWORD PTR _dirflag$[ebp]
	push	ecx
	push	2
	mov	edx, DWORD PTR _numpiece$[ebp]
	imul	edx, 56					; 00000038H
	add	edx, DWORD PTR _piece$[ebp]
	push	edx
	mov	ecx, DWORD PTR _this$[ebp]
	call	?SetDamageF16PieceType@AircraftClass@@IAEHPAUDamageF16PieceStructure@@HHHM@Z ; AircraftClass::SetDamageF16PieceType
	add	eax, DWORD PTR _numpiece$[ebp]
	mov	DWORD PTR _numpiece$[ebp], eax

; 939  : 				numpiece += SetDamageF16PieceType (&(piece[numpiece]), DAMAGEF16_LSTAB, dirflag, *mask, speed);

	push	ecx
	movss	xmm0, DWORD PTR _speed$[ebp]
	movss	DWORD PTR [esp], xmm0
	mov	eax, DWORD PTR _mask$[ebp]
	mov	ecx, DWORD PTR [eax]
	push	ecx
	mov	edx, DWORD PTR _dirflag$[ebp]
	push	edx
	push	4
	mov	eax, DWORD PTR _numpiece$[ebp]
	imul	eax, 56					; 00000038H
	add	eax, DWORD PTR _piece$[ebp]
	push	eax
	mov	ecx, DWORD PTR _this$[ebp]
	call	?SetDamageF16PieceType@AircraftClass@@IAEHPAUDamageF16PieceStructure@@HHHM@Z ; AircraftClass::SetDamageF16PieceType
	add	eax, DWORD PTR _numpiece$[ebp]
	mov	DWORD PTR _numpiece$[ebp], eax

; 940  : 				numpiece += SetDamageF16PieceType (&(piece[numpiece]), DAMAGEF16_NOSE, dirflag, *mask, speed);

	push	ecx
	movss	xmm0, DWORD PTR _speed$[ebp]
	movss	DWORD PTR [esp], xmm0
	mov	ecx, DWORD PTR _mask$[ebp]
	mov	edx, DWORD PTR [ecx]
	push	edx
	mov	eax, DWORD PTR _dirflag$[ebp]
	push	eax
	push	64					; 00000040H
	mov	ecx, DWORD PTR _numpiece$[ebp]
	imul	ecx, 56					; 00000038H
	add	ecx, DWORD PTR _piece$[ebp]
	push	ecx
	mov	ecx, DWORD PTR _this$[ebp]
	call	?SetDamageF16PieceType@AircraftClass@@IAEHPAUDamageF16PieceStructure@@HHHM@Z ; AircraftClass::SetDamageF16PieceType
	add	eax, DWORD PTR _numpiece$[ebp]
	mov	DWORD PTR _numpiece$[ebp], eax

; 941  : 				numpiece += SetDamageF16PieceType (&(piece[numpiece]), DAMAGEF16_FRONT, dirflag, *mask, speed);

	push	ecx
	movss	xmm0, DWORD PTR _speed$[ebp]
	movss	DWORD PTR [esp], xmm0
	mov	edx, DWORD PTR _mask$[ebp]
	mov	eax, DWORD PTR [edx]
	push	eax
	mov	ecx, DWORD PTR _dirflag$[ebp]
	push	ecx
	push	32					; 00000020H
	mov	edx, DWORD PTR _numpiece$[ebp]
	imul	edx, 56					; 00000038H
	add	edx, DWORD PTR _piece$[ebp]
	push	edx
	mov	ecx, DWORD PTR _this$[ebp]
	call	?SetDamageF16PieceType@AircraftClass@@IAEHPAUDamageF16PieceStructure@@HHHM@Z ; AircraftClass::SetDamageF16PieceType
	add	eax, DWORD PTR _numpiece$[ebp]
	mov	DWORD PTR _numpiece$[ebp], eax

; 942  : 				numpiece += SetDamageF16PieceType (&(piece[numpiece]), DAMAGEF16_BACKWITHRIGHT, dirflag, *mask, speed);

	push	ecx
	movss	xmm0, DWORD PTR _speed$[ebp]
	movss	DWORD PTR [esp], xmm0
	mov	eax, DWORD PTR _mask$[ebp]
	mov	ecx, DWORD PTR [eax]
	push	ecx
	mov	edx, DWORD PTR _dirflag$[ebp]
	push	edx
	push	25					; 00000019H
	mov	eax, DWORD PTR _numpiece$[ebp]
	imul	eax, 56					; 00000038H
	add	eax, DWORD PTR _piece$[ebp]
	push	eax
	mov	ecx, DWORD PTR _this$[ebp]
	call	?SetDamageF16PieceType@AircraftClass@@IAEHPAUDamageF16PieceStructure@@HHHM@Z ; AircraftClass::SetDamageF16PieceType
	add	eax, DWORD PTR _numpiece$[ebp]
	mov	DWORD PTR _numpiece$[ebp], eax

; 943  : 				*mask &= DAMAGEF16_BACKWITHRIGHT;

	mov	ecx, DWORD PTR _mask$[ebp]
	mov	edx, DWORD PTR [ecx]
	and	edx, 25					; 00000019H
	mov	eax, DWORD PTR _mask$[ebp]
	mov	DWORD PTR [eax], edx

; 944  : 			}
; 945  : 			else {

	jmp	$LN25@CreateDama
$LN26@CreateDama:

; 946  : 				numpiece += SetDamageF16PieceType (&(piece[numpiece]), DAMAGEF16_LWING, dirflag, *mask, speed);

	push	ecx
	movss	xmm0, DWORD PTR _speed$[ebp]
	movss	DWORD PTR [esp], xmm0
	mov	ecx, DWORD PTR _mask$[ebp]
	mov	edx, DWORD PTR [ecx]
	push	edx
	mov	eax, DWORD PTR _dirflag$[ebp]
	push	eax
	push	2
	mov	ecx, DWORD PTR _numpiece$[ebp]
	imul	ecx, 56					; 00000038H
	add	ecx, DWORD PTR _piece$[ebp]
	push	ecx
	mov	ecx, DWORD PTR _this$[ebp]
	call	?SetDamageF16PieceType@AircraftClass@@IAEHPAUDamageF16PieceStructure@@HHHM@Z ; AircraftClass::SetDamageF16PieceType
	add	eax, DWORD PTR _numpiece$[ebp]
	mov	DWORD PTR _numpiece$[ebp], eax

; 947  : 				numpiece += SetDamageF16PieceType (&(piece[numpiece]), DAMAGEF16_LSTAB, dirflag, *mask, speed);

	push	ecx
	movss	xmm0, DWORD PTR _speed$[ebp]
	movss	DWORD PTR [esp], xmm0
	mov	edx, DWORD PTR _mask$[ebp]
	mov	eax, DWORD PTR [edx]
	push	eax
	mov	ecx, DWORD PTR _dirflag$[ebp]
	push	ecx
	push	4
	mov	edx, DWORD PTR _numpiece$[ebp]
	imul	edx, 56					; 00000038H
	add	edx, DWORD PTR _piece$[ebp]
	push	edx
	mov	ecx, DWORD PTR _this$[ebp]
	call	?SetDamageF16PieceType@AircraftClass@@IAEHPAUDamageF16PieceStructure@@HHHM@Z ; AircraftClass::SetDamageF16PieceType
	add	eax, DWORD PTR _numpiece$[ebp]
	mov	DWORD PTR _numpiece$[ebp], eax

; 948  : 				numpiece += SetDamageF16PieceType (&(piece[numpiece]), DAMAGEF16_NOLEFT, dirflag, *mask, speed);

	push	ecx
	movss	xmm0, DWORD PTR _speed$[ebp]
	movss	DWORD PTR [esp], xmm0
	mov	eax, DWORD PTR _mask$[ebp]
	mov	ecx, DWORD PTR [eax]
	push	ecx
	mov	edx, DWORD PTR _dirflag$[ebp]
	push	edx
	push	121					; 00000079H
	mov	eax, DWORD PTR _numpiece$[ebp]
	imul	eax, 56					; 00000038H
	add	eax, DWORD PTR _piece$[ebp]
	push	eax
	mov	ecx, DWORD PTR _this$[ebp]
	call	?SetDamageF16PieceType@AircraftClass@@IAEHPAUDamageF16PieceStructure@@HHHM@Z ; AircraftClass::SetDamageF16PieceType
	add	eax, DWORD PTR _numpiece$[ebp]
	mov	DWORD PTR _numpiece$[ebp], eax

; 949  : 				*mask &= DAMAGEF16_NOLEFT;

	mov	ecx, DWORD PTR _mask$[ebp]
	mov	edx, DWORD PTR [ecx]
	and	edx, 121				; 00000079H
	mov	eax, DWORD PTR _mask$[ebp]
	mov	DWORD PTR [eax], edx
$LN25@CreateDama:

; 950  : 			}

	jmp	$LN15@CreateDama
$LN29@CreateDama:

; 951  : 		}
; 952  : 		else if (damagetype & 0x2)

	mov	ecx, DWORD PTR _damagetype$[ebp]
	and	ecx, 2
	je	$LN23@CreateDama

; 953  : 		{		// damage to the right
; 954  : 			dirflag = DAMAGEF16_TORIGHT;

	mov	DWORD PTR _dirflag$[ebp], 2

; 955  : 			if (damagetype & 0x4) {			// damage to the nose

	mov	edx, DWORD PTR _damagetype$[ebp]
	and	edx, 4
	je	$LN22@CreateDama

; 956  : 				dirflag |= DAMAGEF16_TOFRONT;

	mov	eax, DWORD PTR _dirflag$[ebp]
	or	eax, 4
	mov	DWORD PTR _dirflag$[ebp], eax

; 957  : 				numpiece += SetDamageF16PieceType (&(piece[numpiece]), DAMAGEF16_RWING, dirflag, *mask, speed);

	push	ecx
	movss	xmm0, DWORD PTR _speed$[ebp]
	movss	DWORD PTR [esp], xmm0
	mov	ecx, DWORD PTR _mask$[ebp]
	mov	edx, DWORD PTR [ecx]
	push	edx
	mov	eax, DWORD PTR _dirflag$[ebp]
	push	eax
	push	1
	mov	ecx, DWORD PTR _numpiece$[ebp]
	imul	ecx, 56					; 00000038H
	add	ecx, DWORD PTR _piece$[ebp]
	push	ecx
	mov	ecx, DWORD PTR _this$[ebp]
	call	?SetDamageF16PieceType@AircraftClass@@IAEHPAUDamageF16PieceStructure@@HHHM@Z ; AircraftClass::SetDamageF16PieceType
	add	eax, DWORD PTR _numpiece$[ebp]
	mov	DWORD PTR _numpiece$[ebp], eax

; 958  : 				numpiece += SetDamageF16PieceType (&(piece[numpiece]), DAMAGEF16_RSTAB, dirflag, *mask, speed);

	push	ecx
	movss	xmm0, DWORD PTR _speed$[ebp]
	movss	DWORD PTR [esp], xmm0
	mov	edx, DWORD PTR _mask$[ebp]
	mov	eax, DWORD PTR [edx]
	push	eax
	mov	ecx, DWORD PTR _dirflag$[ebp]
	push	ecx
	push	8
	mov	edx, DWORD PTR _numpiece$[ebp]
	imul	edx, 56					; 00000038H
	add	edx, DWORD PTR _piece$[ebp]
	push	edx
	mov	ecx, DWORD PTR _this$[ebp]
	call	?SetDamageF16PieceType@AircraftClass@@IAEHPAUDamageF16PieceStructure@@HHHM@Z ; AircraftClass::SetDamageF16PieceType
	add	eax, DWORD PTR _numpiece$[ebp]
	mov	DWORD PTR _numpiece$[ebp], eax

; 959  : 				numpiece += SetDamageF16PieceType (&(piece[numpiece]), DAMAGEF16_NOSE, dirflag, *mask, speed);

	push	ecx
	movss	xmm0, DWORD PTR _speed$[ebp]
	movss	DWORD PTR [esp], xmm0
	mov	eax, DWORD PTR _mask$[ebp]
	mov	ecx, DWORD PTR [eax]
	push	ecx
	mov	edx, DWORD PTR _dirflag$[ebp]
	push	edx
	push	64					; 00000040H
	mov	eax, DWORD PTR _numpiece$[ebp]
	imul	eax, 56					; 00000038H
	add	eax, DWORD PTR _piece$[ebp]
	push	eax
	mov	ecx, DWORD PTR _this$[ebp]
	call	?SetDamageF16PieceType@AircraftClass@@IAEHPAUDamageF16PieceStructure@@HHHM@Z ; AircraftClass::SetDamageF16PieceType
	add	eax, DWORD PTR _numpiece$[ebp]
	mov	DWORD PTR _numpiece$[ebp], eax

; 960  : 				numpiece += SetDamageF16PieceType (&(piece[numpiece]), DAMAGEF16_NORIGHTANDNOSE, dirflag, *mask, speed);

	push	ecx
	movss	xmm0, DWORD PTR _speed$[ebp]
	movss	DWORD PTR [esp], xmm0
	mov	ecx, DWORD PTR _mask$[ebp]
	mov	edx, DWORD PTR [ecx]
	push	edx
	mov	eax, DWORD PTR _dirflag$[ebp]
	push	eax
	push	54					; 00000036H
	mov	ecx, DWORD PTR _numpiece$[ebp]
	imul	ecx, 56					; 00000038H
	add	ecx, DWORD PTR _piece$[ebp]
	push	ecx
	mov	ecx, DWORD PTR _this$[ebp]
	call	?SetDamageF16PieceType@AircraftClass@@IAEHPAUDamageF16PieceStructure@@HHHM@Z ; AircraftClass::SetDamageF16PieceType
	add	eax, DWORD PTR _numpiece$[ebp]
	mov	DWORD PTR _numpiece$[ebp], eax

; 961  : 				*mask &= DAMAGEF16_NORIGHTANDNOSE;

	mov	edx, DWORD PTR _mask$[ebp]
	mov	eax, DWORD PTR [edx]
	and	eax, 54					; 00000036H
	mov	ecx, DWORD PTR _mask$[ebp]
	mov	DWORD PTR [ecx], eax
	jmp	$LN19@CreateDama
$LN22@CreateDama:

; 962  : 			}
; 963  : 			else if (damagetype & 0x8) {	// damage to the front

	mov	edx, DWORD PTR _damagetype$[ebp]
	and	edx, 8
	je	$LN20@CreateDama

; 964  : 				dirflag |= DAMAGEF16_TOFRONT;

	mov	eax, DWORD PTR _dirflag$[ebp]
	or	eax, 4
	mov	DWORD PTR _dirflag$[ebp], eax

; 965  : 				numpiece += SetDamageF16PieceType (&(piece[numpiece]), DAMAGEF16_RWING, dirflag, *mask, speed);

	push	ecx
	movss	xmm0, DWORD PTR _speed$[ebp]
	movss	DWORD PTR [esp], xmm0
	mov	ecx, DWORD PTR _mask$[ebp]
	mov	edx, DWORD PTR [ecx]
	push	edx
	mov	eax, DWORD PTR _dirflag$[ebp]
	push	eax
	push	1
	mov	ecx, DWORD PTR _numpiece$[ebp]
	imul	ecx, 56					; 00000038H
	add	ecx, DWORD PTR _piece$[ebp]
	push	ecx
	mov	ecx, DWORD PTR _this$[ebp]
	call	?SetDamageF16PieceType@AircraftClass@@IAEHPAUDamageF16PieceStructure@@HHHM@Z ; AircraftClass::SetDamageF16PieceType
	add	eax, DWORD PTR _numpiece$[ebp]
	mov	DWORD PTR _numpiece$[ebp], eax

; 966  : 				numpiece += SetDamageF16PieceType (&(piece[numpiece]), DAMAGEF16_RSTAB, dirflag, *mask, speed);

	push	ecx
	movss	xmm0, DWORD PTR _speed$[ebp]
	movss	DWORD PTR [esp], xmm0
	mov	edx, DWORD PTR _mask$[ebp]
	mov	eax, DWORD PTR [edx]
	push	eax
	mov	ecx, DWORD PTR _dirflag$[ebp]
	push	ecx
	push	8
	mov	edx, DWORD PTR _numpiece$[ebp]
	imul	edx, 56					; 00000038H
	add	edx, DWORD PTR _piece$[ebp]
	push	edx
	mov	ecx, DWORD PTR _this$[ebp]
	call	?SetDamageF16PieceType@AircraftClass@@IAEHPAUDamageF16PieceStructure@@HHHM@Z ; AircraftClass::SetDamageF16PieceType
	add	eax, DWORD PTR _numpiece$[ebp]
	mov	DWORD PTR _numpiece$[ebp], eax

; 967  : 				numpiece += SetDamageF16PieceType (&(piece[numpiece]), DAMAGEF16_NOSE, dirflag, *mask, speed);

	push	ecx
	movss	xmm0, DWORD PTR _speed$[ebp]
	movss	DWORD PTR [esp], xmm0
	mov	eax, DWORD PTR _mask$[ebp]
	mov	ecx, DWORD PTR [eax]
	push	ecx
	mov	edx, DWORD PTR _dirflag$[ebp]
	push	edx
	push	64					; 00000040H
	mov	eax, DWORD PTR _numpiece$[ebp]
	imul	eax, 56					; 00000038H
	add	eax, DWORD PTR _piece$[ebp]
	push	eax
	mov	ecx, DWORD PTR _this$[ebp]
	call	?SetDamageF16PieceType@AircraftClass@@IAEHPAUDamageF16PieceStructure@@HHHM@Z ; AircraftClass::SetDamageF16PieceType
	add	eax, DWORD PTR _numpiece$[ebp]
	mov	DWORD PTR _numpiece$[ebp], eax

; 968  : 				numpiece += SetDamageF16PieceType (&(piece[numpiece]), DAMAGEF16_FRONT, dirflag, *mask, speed);

	push	ecx
	movss	xmm0, DWORD PTR _speed$[ebp]
	movss	DWORD PTR [esp], xmm0
	mov	ecx, DWORD PTR _mask$[ebp]
	mov	edx, DWORD PTR [ecx]
	push	edx
	mov	eax, DWORD PTR _dirflag$[ebp]
	push	eax
	push	32					; 00000020H
	mov	ecx, DWORD PTR _numpiece$[ebp]
	imul	ecx, 56					; 00000038H
	add	ecx, DWORD PTR _piece$[ebp]
	push	ecx
	mov	ecx, DWORD PTR _this$[ebp]
	call	?SetDamageF16PieceType@AircraftClass@@IAEHPAUDamageF16PieceStructure@@HHHM@Z ; AircraftClass::SetDamageF16PieceType
	add	eax, DWORD PTR _numpiece$[ebp]
	mov	DWORD PTR _numpiece$[ebp], eax

; 969  : 				numpiece += SetDamageF16PieceType (&(piece[numpiece]), DAMAGEF16_BACKWITHLEFT, dirflag, *mask, speed);

	push	ecx
	movss	xmm0, DWORD PTR _speed$[ebp]
	movss	DWORD PTR [esp], xmm0
	mov	edx, DWORD PTR _mask$[ebp]
	mov	eax, DWORD PTR [edx]
	push	eax
	mov	ecx, DWORD PTR _dirflag$[ebp]
	push	ecx
	push	22					; 00000016H
	mov	edx, DWORD PTR _numpiece$[ebp]
	imul	edx, 56					; 00000038H
	add	edx, DWORD PTR _piece$[ebp]
	push	edx
	mov	ecx, DWORD PTR _this$[ebp]
	call	?SetDamageF16PieceType@AircraftClass@@IAEHPAUDamageF16PieceStructure@@HHHM@Z ; AircraftClass::SetDamageF16PieceType
	add	eax, DWORD PTR _numpiece$[ebp]
	mov	DWORD PTR _numpiece$[ebp], eax

; 970  : 				*mask &= DAMAGEF16_BACKWITHLEFT;

	mov	eax, DWORD PTR _mask$[ebp]
	mov	ecx, DWORD PTR [eax]
	and	ecx, 22					; 00000016H
	mov	edx, DWORD PTR _mask$[ebp]
	mov	DWORD PTR [edx], ecx

; 971  : 			}
; 972  : 			else {

	jmp	$LN19@CreateDama
$LN20@CreateDama:

; 973  : 				numpiece += SetDamageF16PieceType (&(piece[numpiece]), DAMAGEF16_RWING, dirflag, *mask, speed);

	push	ecx
	movss	xmm0, DWORD PTR _speed$[ebp]
	movss	DWORD PTR [esp], xmm0
	mov	eax, DWORD PTR _mask$[ebp]
	mov	ecx, DWORD PTR [eax]
	push	ecx
	mov	edx, DWORD PTR _dirflag$[ebp]
	push	edx
	push	1
	mov	eax, DWORD PTR _numpiece$[ebp]
	imul	eax, 56					; 00000038H
	add	eax, DWORD PTR _piece$[ebp]
	push	eax
	mov	ecx, DWORD PTR _this$[ebp]
	call	?SetDamageF16PieceType@AircraftClass@@IAEHPAUDamageF16PieceStructure@@HHHM@Z ; AircraftClass::SetDamageF16PieceType
	add	eax, DWORD PTR _numpiece$[ebp]
	mov	DWORD PTR _numpiece$[ebp], eax

; 974  : 				numpiece += SetDamageF16PieceType (&(piece[numpiece]), DAMAGEF16_RSTAB, dirflag, *mask, speed);

	push	ecx
	movss	xmm0, DWORD PTR _speed$[ebp]
	movss	DWORD PTR [esp], xmm0
	mov	ecx, DWORD PTR _mask$[ebp]
	mov	edx, DWORD PTR [ecx]
	push	edx
	mov	eax, DWORD PTR _dirflag$[ebp]
	push	eax
	push	8
	mov	ecx, DWORD PTR _numpiece$[ebp]
	imul	ecx, 56					; 00000038H
	add	ecx, DWORD PTR _piece$[ebp]
	push	ecx
	mov	ecx, DWORD PTR _this$[ebp]
	call	?SetDamageF16PieceType@AircraftClass@@IAEHPAUDamageF16PieceStructure@@HHHM@Z ; AircraftClass::SetDamageF16PieceType
	add	eax, DWORD PTR _numpiece$[ebp]
	mov	DWORD PTR _numpiece$[ebp], eax

; 975  : 				numpiece += SetDamageF16PieceType (&(piece[numpiece]), DAMAGEF16_NORIGHT, dirflag, *mask, speed);

	push	ecx
	movss	xmm0, DWORD PTR _speed$[ebp]
	movss	DWORD PTR [esp], xmm0
	mov	edx, DWORD PTR _mask$[ebp]
	mov	eax, DWORD PTR [edx]
	push	eax
	mov	ecx, DWORD PTR _dirflag$[ebp]
	push	ecx
	push	118					; 00000076H
	mov	edx, DWORD PTR _numpiece$[ebp]
	imul	edx, 56					; 00000038H
	add	edx, DWORD PTR _piece$[ebp]
	push	edx
	mov	ecx, DWORD PTR _this$[ebp]
	call	?SetDamageF16PieceType@AircraftClass@@IAEHPAUDamageF16PieceStructure@@HHHM@Z ; AircraftClass::SetDamageF16PieceType
	add	eax, DWORD PTR _numpiece$[ebp]
	mov	DWORD PTR _numpiece$[ebp], eax

; 976  : 				*mask &= DAMAGEF16_NORIGHT;

	mov	eax, DWORD PTR _mask$[ebp]
	mov	ecx, DWORD PTR [eax]
	and	ecx, 118				; 00000076H
	mov	edx, DWORD PTR _mask$[ebp]
	mov	DWORD PTR [edx], ecx
$LN19@CreateDama:

; 977  : 			}

	jmp	$LN15@CreateDama
$LN23@CreateDama:

; 978  : 		}
; 979  : 		else if (damagetype & 0x4)

	mov	eax, DWORD PTR _damagetype$[ebp]
	and	eax, 4
	je	SHORT $LN17@CreateDama

; 980  : 		{		// damage to the nose
; 981  : 			dirflag = DAMAGEF16_TOFRONT;

	mov	DWORD PTR _dirflag$[ebp], 4

; 982  : 			numpiece += SetDamageF16PieceType (&(piece[numpiece]), DAMAGEF16_NOSE, dirflag, *mask, speed);

	push	ecx
	movss	xmm0, DWORD PTR _speed$[ebp]
	movss	DWORD PTR [esp], xmm0
	mov	ecx, DWORD PTR _mask$[ebp]
	mov	edx, DWORD PTR [ecx]
	push	edx
	mov	eax, DWORD PTR _dirflag$[ebp]
	push	eax
	push	64					; 00000040H
	mov	ecx, DWORD PTR _numpiece$[ebp]
	imul	ecx, 56					; 00000038H
	add	ecx, DWORD PTR _piece$[ebp]
	push	ecx
	mov	ecx, DWORD PTR _this$[ebp]
	call	?SetDamageF16PieceType@AircraftClass@@IAEHPAUDamageF16PieceStructure@@HHHM@Z ; AircraftClass::SetDamageF16PieceType
	add	eax, DWORD PTR _numpiece$[ebp]
	mov	DWORD PTR _numpiece$[ebp], eax

; 983  : 			numpiece += SetDamageF16PieceType (&(piece[numpiece]), DAMAGEF16_NONOSE, dirflag, *mask, speed);

	push	ecx
	movss	xmm0, DWORD PTR _speed$[ebp]
	movss	DWORD PTR [esp], xmm0
	mov	edx, DWORD PTR _mask$[ebp]
	mov	eax, DWORD PTR [edx]
	push	eax
	mov	ecx, DWORD PTR _dirflag$[ebp]
	push	ecx
	push	63					; 0000003fH
	mov	edx, DWORD PTR _numpiece$[ebp]
	imul	edx, 56					; 00000038H
	add	edx, DWORD PTR _piece$[ebp]
	push	edx
	mov	ecx, DWORD PTR _this$[ebp]
	call	?SetDamageF16PieceType@AircraftClass@@IAEHPAUDamageF16PieceStructure@@HHHM@Z ; AircraftClass::SetDamageF16PieceType
	add	eax, DWORD PTR _numpiece$[ebp]
	mov	DWORD PTR _numpiece$[ebp], eax

; 984  : 			*mask &= DAMAGEF16_NONOSE;

	mov	eax, DWORD PTR _mask$[ebp]
	mov	ecx, DWORD PTR [eax]
	and	ecx, 63					; 0000003fH
	mov	edx, DWORD PTR _mask$[ebp]
	mov	DWORD PTR [edx], ecx
	jmp	$LN15@CreateDama
$LN17@CreateDama:

; 985  : 		}
; 986  : 		else if (damagetype & 0x8)

	mov	eax, DWORD PTR _damagetype$[ebp]
	and	eax, 8
	je	$LN15@CreateDama

; 987  : 		{		// damage to the front
; 988  : 			dirflag = DAMAGEF16_TOFRONT;

	mov	DWORD PTR _dirflag$[ebp], 4

; 989  : 			numpiece += SetDamageF16PieceType (&(piece[numpiece]), DAMAGEF16_NOSE, dirflag, *mask, speed);

	push	ecx
	movss	xmm0, DWORD PTR _speed$[ebp]
	movss	DWORD PTR [esp], xmm0
	mov	ecx, DWORD PTR _mask$[ebp]
	mov	edx, DWORD PTR [ecx]
	push	edx
	mov	eax, DWORD PTR _dirflag$[ebp]
	push	eax
	push	64					; 00000040H
	mov	ecx, DWORD PTR _numpiece$[ebp]
	imul	ecx, 56					; 00000038H
	add	ecx, DWORD PTR _piece$[ebp]
	push	ecx
	mov	ecx, DWORD PTR _this$[ebp]
	call	?SetDamageF16PieceType@AircraftClass@@IAEHPAUDamageF16PieceStructure@@HHHM@Z ; AircraftClass::SetDamageF16PieceType
	add	eax, DWORD PTR _numpiece$[ebp]
	mov	DWORD PTR _numpiece$[ebp], eax

; 990  : 			numpiece += SetDamageF16PieceType (&(piece[numpiece]), DAMAGEF16_FRONT, dirflag, *mask, speed);

	push	ecx
	movss	xmm0, DWORD PTR _speed$[ebp]
	movss	DWORD PTR [esp], xmm0
	mov	edx, DWORD PTR _mask$[ebp]
	mov	eax, DWORD PTR [edx]
	push	eax
	mov	ecx, DWORD PTR _dirflag$[ebp]
	push	ecx
	push	32					; 00000020H
	mov	edx, DWORD PTR _numpiece$[ebp]
	imul	edx, 56					; 00000038H
	add	edx, DWORD PTR _piece$[ebp]
	push	edx
	mov	ecx, DWORD PTR _this$[ebp]
	call	?SetDamageF16PieceType@AircraftClass@@IAEHPAUDamageF16PieceStructure@@HHHM@Z ; AircraftClass::SetDamageF16PieceType
	add	eax, DWORD PTR _numpiece$[ebp]
	mov	DWORD PTR _numpiece$[ebp], eax

; 991  : 			numpiece += SetDamageF16PieceType (&(piece[numpiece]), DAMAGEF16_BACKWITHWING, dirflag, *mask, speed);

	push	ecx
	movss	xmm0, DWORD PTR _speed$[ebp]
	movss	DWORD PTR [esp], xmm0
	mov	eax, DWORD PTR _mask$[ebp]
	mov	ecx, DWORD PTR [eax]
	push	ecx
	mov	edx, DWORD PTR _dirflag$[ebp]
	push	edx
	push	31					; 0000001fH
	mov	eax, DWORD PTR _numpiece$[ebp]
	imul	eax, 56					; 00000038H
	add	eax, DWORD PTR _piece$[ebp]
	push	eax
	mov	ecx, DWORD PTR _this$[ebp]
	call	?SetDamageF16PieceType@AircraftClass@@IAEHPAUDamageF16PieceStructure@@HHHM@Z ; AircraftClass::SetDamageF16PieceType
	add	eax, DWORD PTR _numpiece$[ebp]
	mov	DWORD PTR _numpiece$[ebp], eax

; 992  : 			*mask &= DAMAGEF16_BACKWITHWING;

	mov	ecx, DWORD PTR _mask$[ebp]
	mov	edx, DWORD PTR [ecx]
	and	edx, 31					; 0000001fH
	mov	eax, DWORD PTR _mask$[ebp]
	mov	DWORD PTR [eax], edx
$LN15@CreateDama:

; 993  : 		}
; 994  : 	}
; 995  : 
; 996  : 	if (!numpiece) {	// if no damage, randomized damage parts

	cmp	DWORD PTR _numpiece$[ebp], 0
	jne	$LN14@CreateDama

; 997  : 		int i = DAMAGEF16_BACK;

	mov	DWORD PTR _i$4[ebp], 16			; 00000010H

; 998  : 		if (p > 0.0f) {

	movss	xmm0, DWORD PTR _p$[ebp]
	comiss	xmm0, DWORD PTR __real@00000000
	jbe	SHORT $LN11@CreateDama

; 999  : 			if (PRANDFloatPos() > 0.5f) {

	call	?PRANDFloatPos@@YAMXZ			; PRANDFloatPos
	fstp	DWORD PTR tv1110[ebp]
	movss	xmm0, DWORD PTR tv1110[ebp]
	comiss	xmm0, DWORD PTR __real@3f000000
	jbe	SHORT $LN11@CreateDama

; 1000 : 				dirflag |= DAMAGEF16_TOFRONT;

	mov	ecx, DWORD PTR _dirflag$[ebp]
	or	ecx, 4
	mov	DWORD PTR _dirflag$[ebp], ecx

; 1001 : 				i |= DAMAGEF16_FRONT;

	mov	edx, DWORD PTR _i$4[ebp]
	or	edx, 32					; 00000020H
	mov	DWORD PTR _i$4[ebp], edx

; 1002 : 				if (PRANDFloatPos() > 0.5f) {

	call	?PRANDFloatPos@@YAMXZ			; PRANDFloatPos
	fstp	DWORD PTR tv1116[ebp]
	movss	xmm0, DWORD PTR tv1116[ebp]
	comiss	xmm0, DWORD PTR __real@3f000000
	jbe	SHORT $LN11@CreateDama

; 1003 : 					i |= DAMAGEF16_NOSE;

	mov	eax, DWORD PTR _i$4[ebp]
	or	eax, 64					; 00000040H
	mov	DWORD PTR _i$4[ebp], eax
$LN11@CreateDama:

; 1004 : 				}
; 1005 : 			}
; 1006 : 		}
; 1007 : 		if (r > 0.0f) {

	movss	xmm0, DWORD PTR _r$[ebp]
	comiss	xmm0, DWORD PTR __real@00000000
	jbe	SHORT $LN10@CreateDama

; 1008 : 			if (PRANDFloatPos() > 0.5f) {

	call	?PRANDFloatPos@@YAMXZ			; PRANDFloatPos
	fstp	DWORD PTR tv1122[ebp]
	movss	xmm0, DWORD PTR tv1122[ebp]
	comiss	xmm0, DWORD PTR __real@3f000000
	jbe	SHORT $LN9@CreateDama

; 1009 : 				dirflag |= DAMAGEF16_TORIGHT;

	mov	ecx, DWORD PTR _dirflag$[ebp]
	or	ecx, 2
	mov	DWORD PTR _dirflag$[ebp], ecx

; 1010 : 				i |= DAMAGEF16_LWING | DAMAGEF16_LSTAB;

	mov	edx, DWORD PTR _i$4[ebp]
	or	edx, 6
	mov	DWORD PTR _i$4[ebp], edx
	jmp	SHORT $LN8@CreateDama
$LN9@CreateDama:

; 1011 : 			}
; 1012 : 			else i |= DAMAGEF16_RWING | DAMAGEF16_RSTAB;

	mov	eax, DWORD PTR _i$4[ebp]
	or	eax, 9
	mov	DWORD PTR _i$4[ebp], eax
$LN8@CreateDama:

; 1013 : 		}
; 1014 : 		else {

	jmp	SHORT $LN5@CreateDama
$LN10@CreateDama:

; 1015 : 			if (PRANDFloatPos() > 0.5f) {

	call	?PRANDFloatPos@@YAMXZ			; PRANDFloatPos
	fstp	DWORD PTR tv1129[ebp]
	movss	xmm0, DWORD PTR tv1129[ebp]
	comiss	xmm0, DWORD PTR __real@3f000000
	jbe	SHORT $LN6@CreateDama

; 1016 : 				dirflag |= DAMAGEF16_TOLEFT;

	mov	ecx, DWORD PTR _dirflag$[ebp]
	or	ecx, 1
	mov	DWORD PTR _dirflag$[ebp], ecx

; 1017 : 				i |= DAMAGEF16_RWING | DAMAGEF16_RSTAB;

	mov	edx, DWORD PTR _i$4[ebp]
	or	edx, 9
	mov	DWORD PTR _i$4[ebp], edx
	jmp	SHORT $LN5@CreateDama
$LN6@CreateDama:

; 1018 : 			}
; 1019 : 			else i |= DAMAGEF16_LWING | DAMAGEF16_LSTAB;

	mov	eax, DWORD PTR _i$4[ebp]
	or	eax, 6
	mov	DWORD PTR _i$4[ebp], eax
$LN5@CreateDama:

; 1020 : 		}
; 1021 : 		int j = i ^ 0x7f;

	mov	ecx, DWORD PTR _i$4[ebp]
	xor	ecx, 127				; 0000007fH
	mov	DWORD PTR _j$1[ebp], ecx

; 1022 : 		int k;
; 1023 : 		int l = 1;

	mov	DWORD PTR _l$3[ebp], 1

; 1024 : 		for (k=0; k < 7; k++) {

	mov	DWORD PTR _k$2[ebp], 0
	jmp	SHORT $LN4@CreateDama
$LN3@CreateDama:
	mov	edx, DWORD PTR _k$2[ebp]
	add	edx, 1
	mov	DWORD PTR _k$2[ebp], edx
$LN4@CreateDama:
	cmp	DWORD PTR _k$2[ebp], 7
	jge	SHORT $LN2@CreateDama

; 1025 : 			if (l & j) {

	mov	eax, DWORD PTR _l$3[ebp]
	and	eax, DWORD PTR _j$1[ebp]
	je	SHORT $LN1@CreateDama

; 1026 : 				numpiece += SetDamageF16PieceType (&(piece[numpiece]), l, dirflag, *mask, speed);

	push	ecx
	movss	xmm0, DWORD PTR _speed$[ebp]
	movss	DWORD PTR [esp], xmm0
	mov	ecx, DWORD PTR _mask$[ebp]
	mov	edx, DWORD PTR [ecx]
	push	edx
	mov	eax, DWORD PTR _dirflag$[ebp]
	push	eax
	mov	ecx, DWORD PTR _l$3[ebp]
	push	ecx
	mov	edx, DWORD PTR _numpiece$[ebp]
	imul	edx, 56					; 00000038H
	add	edx, DWORD PTR _piece$[ebp]
	push	edx
	mov	ecx, DWORD PTR _this$[ebp]
	call	?SetDamageF16PieceType@AircraftClass@@IAEHPAUDamageF16PieceStructure@@HHHM@Z ; AircraftClass::SetDamageF16PieceType
	add	eax, DWORD PTR _numpiece$[ebp]
	mov	DWORD PTR _numpiece$[ebp], eax
$LN1@CreateDama:

; 1027 : 			}
; 1028 : 			l <<= 1;

	mov	eax, DWORD PTR _l$3[ebp]
	shl	eax, 1
	mov	DWORD PTR _l$3[ebp], eax

; 1029 : 		}

	jmp	SHORT $LN3@CreateDama
$LN2@CreateDama:

; 1030 : 		numpiece += SetDamageF16PieceType (&(piece[numpiece]), i, dirflag, *mask, speed);

	push	ecx
	movss	xmm0, DWORD PTR _speed$[ebp]
	movss	DWORD PTR [esp], xmm0
	mov	ecx, DWORD PTR _mask$[ebp]
	mov	edx, DWORD PTR [ecx]
	push	edx
	mov	eax, DWORD PTR _dirflag$[ebp]
	push	eax
	mov	ecx, DWORD PTR _i$4[ebp]
	push	ecx
	mov	edx, DWORD PTR _numpiece$[ebp]
	imul	edx, 56					; 00000038H
	add	edx, DWORD PTR _piece$[ebp]
	push	edx
	mov	ecx, DWORD PTR _this$[ebp]
	call	?SetDamageF16PieceType@AircraftClass@@IAEHPAUDamageF16PieceStructure@@HHHM@Z ; AircraftClass::SetDamageF16PieceType
	add	eax, DWORD PTR _numpiece$[ebp]
	mov	DWORD PTR _numpiece$[ebp], eax

; 1031 : 		*mask &= i;

	mov	eax, DWORD PTR _mask$[ebp]
	mov	ecx, DWORD PTR [eax]
	and	ecx, DWORD PTR _i$4[ebp]
	mov	edx, DWORD PTR _mask$[ebp]
	mov	DWORD PTR [edx], ecx
$LN14@CreateDama:

; 1032 : 	}
; 1033 : 	return numpiece;

	mov	eax, DWORD PTR _numpiece$[ebp]
$LN53@CreateDama:

; 1034 : }

	mov	esp, ebp
	pop	ebp
	ret	8
?CreateDamageF16Piece@AircraftClass@@IAEHPAUDamageF16PieceStructure@@PAH@Z ENDP ; AircraftClass::CreateDamageF16Piece
_TEXT	ENDS
; Function compile flags: /Odtp
; File c:\users\zhitao li\documents\visual studio 2012\projects\freefalcon\sim\aircraft\damage.cpp
_TEXT	SEGMENT
tv689 = -96						; size = 4
tv682 = -92						; size = 4
tv675 = -88						; size = 4
tv644 = -84						; size = 4
tv635 = -80						; size = 4
tv628 = -76						; size = 4
tv608 = -72						; size = 4
tv601 = -68						; size = 4
tv579 = -64						; size = 4
tv572 = -60						; size = 4
tv550 = -56						; size = 4
tv543 = -52						; size = 4
tv524 = -48						; size = 4
tv516 = -44						; size = 4
tv482 = -40						; size = 4
tv433 = -36						; size = 4
tv394 = -32						; size = 4
_this$ = -28						; size = 4
tv83 = -24						; size = 4
_s$ = -20						; size = 4
_angle2$ = -16						; size = 4
_angle1$ = -12						; size = 4
_roll$ = -8						; size = 4
_angle$ = -4						; size = 4
_piece$ = 8						; size = 4
_type$ = 12						; size = 4
_flag$ = 16						; size = 4
_mask$ = 20						; size = 4
_speed$ = 24						; size = 4
?SetDamageF16PieceType@AircraftClass@@IAEHPAUDamageF16PieceStructure@@HHHM@Z PROC ; AircraftClass::SetDamageF16PieceType
; _this$ = ecx

; 614  : {

	push	ebp
	mov	ebp, esp
	sub	esp, 96					; 00000060H
	mov	DWORD PTR _this$[ebp], ecx

; 615  : 	if (!(type & mask)) return 0;

	mov	eax, DWORD PTR _type$[ebp]
	and	eax, DWORD PTR _mask$[ebp]
	jne	SHORT $LN40@SetDamageF
	xor	eax, eax
	jmp	$LN41@SetDamageF
$LN40@SetDamageF:

; 616  : 
; 617  : 	piece -> damage = MapVisId(DAMAGEF16_ID);

	push	1288					; 00000508H
	call	?MapVisId@@YAKK@Z			; MapVisId
	add	esp, 4
	mov	ecx, DWORD PTR _piece$[ebp]
	mov	DWORD PTR [ecx+8], eax

; 618  : 	piece -> mask = type;

	mov	edx, DWORD PTR _piece$[ebp]
	mov	eax, DWORD PTR _type$[ebp]
	mov	DWORD PTR [edx], eax

; 619  : 	piece -> sfxtype = SFX_SMOKING_PART;

	mov	ecx, DWORD PTR _piece$[ebp]
	mov	DWORD PTR [ecx+16], 3

; 620  : 	piece -> sfxflag = SFX_F16CRASHLANDING | SFX_MOVES | SFX_BOUNCES;

	mov	edx, DWORD PTR _piece$[ebp]
	mov	DWORD PTR [edx+12], -2147483615		; 80000021H

; 621  : 	piece -> lifetime = 300.0f;

	mov	eax, DWORD PTR _piece$[ebp]
	movss	xmm0, DWORD PTR __real@43960000
	movss	DWORD PTR [eax+20], xmm0

; 622  : 
; 623  : 	piece -> pitch = 0.0f;

	mov	ecx, DWORD PTR _piece$[ebp]
	movss	xmm0, DWORD PTR __real@00000000
	movss	DWORD PTR [ecx+48], xmm0

; 624  : 	piece -> roll = 0.0f;

	mov	edx, DWORD PTR _piece$[ebp]
	movss	xmm0, DWORD PTR __real@00000000
	movss	DWORD PTR [edx+52], xmm0

; 625  : 
; 626  : 	piece -> yd = 0.0f;

	mov	eax, DWORD PTR _piece$[ebp]
	movss	xmm0, DWORD PTR __real@00000000
	movss	DWORD PTR [eax+36], xmm0

; 627  : 	piece -> pd = 0.0f;

	mov	ecx, DWORD PTR _piece$[ebp]
	movss	xmm0, DWORD PTR __real@00000000
	movss	DWORD PTR [ecx+40], xmm0

; 628  : 	piece -> rd = 0.0f;

	mov	edx, DWORD PTR _piece$[ebp]
	movss	xmm0, DWORD PTR __real@00000000
	movss	DWORD PTR [edx+44], xmm0

; 629  : 
; 630  : 	piece -> dx = 1.0f;

	mov	eax, DWORD PTR _piece$[ebp]
	movss	xmm0, DWORD PTR __real@3f800000
	movss	DWORD PTR [eax+24], xmm0

; 631  : 	piece -> dy = 1.0f;

	mov	ecx, DWORD PTR _piece$[ebp]
	movss	xmm0, DWORD PTR __real@3f800000
	movss	DWORD PTR [ecx+28], xmm0

; 632  : 	piece -> dz = 1.0f;

	mov	edx, DWORD PTR _piece$[ebp]
	movss	xmm0, DWORD PTR __real@3f800000
	movss	DWORD PTR [edx+32], xmm0

; 633  : 
; 634  : 	float angle=0.0F, angle1=0.0F, angle2=0.0F, roll=0.0F;

	movss	xmm0, DWORD PTR __real@00000000
	movss	DWORD PTR _angle$[ebp], xmm0
	movss	xmm0, DWORD PTR __real@00000000
	movss	DWORD PTR _angle1$[ebp], xmm0
	movss	xmm0, DWORD PTR __real@00000000
	movss	DWORD PTR _angle2$[ebp], xmm0
	movss	xmm0, DWORD PTR __real@00000000
	movss	DWORD PTR _roll$[ebp], xmm0

; 635  : 
; 636  : 	if (PRANDFloatPos() > 0.5f)

	call	?PRANDFloatPos@@YAMXZ			; PRANDFloatPos
	fstp	DWORD PTR tv394[ebp]
	movss	xmm0, DWORD PTR tv394[ebp]
	comiss	xmm0, DWORD PTR __real@3f000000
	jbe	SHORT $LN39@SetDamageF

; 637  : 		roll = 110.0f * DTR;

	movss	xmm0, DWORD PTR __real@3ff5be09
	movss	DWORD PTR _roll$[ebp], xmm0

; 638  : 	else

	jmp	SHORT $LN38@SetDamageF
$LN39@SetDamageF:

; 639  : 		roll = 40.0f * DTR;

	movss	xmm0, DWORD PTR __real@3f32b8c1
	movss	DWORD PTR _roll$[ebp], xmm0
$LN38@SetDamageF:

; 640  : 
; 641  : 	angle1 = 0.0f;

	movss	xmm0, DWORD PTR __real@00000000
	movss	DWORD PTR _angle1$[ebp], xmm0

; 642  : 	angle2 = 0.0f;

	movss	xmm0, DWORD PTR __real@00000000
	movss	DWORD PTR _angle2$[ebp], xmm0

; 643  : 	switch (type) {

	mov	eax, DWORD PTR _type$[ebp]
	mov	DWORD PTR tv83[ebp], eax
	mov	ecx, DWORD PTR tv83[ebp]
	sub	ecx, 1
	mov	DWORD PTR tv83[ebp], ecx
	cmp	DWORD PTR tv83[ebp], 120		; 00000078H
	ja	$LN6@SetDamageF
	mov	edx, DWORD PTR tv83[ebp]
	movzx	eax, BYTE PTR $LN43@SetDamageF[edx]
	jmp	DWORD PTR $LN44@SetDamageF[eax*4]
$LN35@SetDamageF:

; 644  : 		case DAMAGEF16_NOLEFTANDNOSE:
; 645  : 		case DAMAGEF16_NOLEFT:
; 646  : 			piece -> sfxflag |= SFX_F16CRASH_OBJECT;

	mov	ecx, DWORD PTR _piece$[ebp]
	mov	edx, DWORD PTR [ecx+12]
	or	edx, 1073741824				; 40000000H
	mov	eax, DWORD PTR _piece$[ebp]
	mov	DWORD PTR [eax+12], edx

; 647  : 			piece -> roll = -roll;

	movss	xmm0, DWORD PTR _roll$[ebp]
	xorps	xmm0, DWORD PTR __xmm@80000000800000008000000080000000
	mov	ecx, DWORD PTR _piece$[ebp]
	movss	DWORD PTR [ecx+52], xmm0

; 648  : 			piece -> index = DAMAGEF16_FRONT_SLOTINDEX;

	mov	edx, DWORD PTR _piece$[ebp]
	mov	DWORD PTR [edx+4], 1

; 649  : 			speed += 20.0f;

	movss	xmm0, DWORD PTR _speed$[ebp]
	addss	xmm0, DWORD PTR __real@41a00000
	movss	DWORD PTR _speed$[ebp], xmm0

; 650  : 			angle = 270.0f * DTR;

	movss	xmm0, DWORD PTR __real@4096cbe3
	movss	DWORD PTR _angle$[ebp], xmm0

; 651  : 			piece -> dz = 2.0f;

	mov	eax, DWORD PTR _piece$[ebp]
	movss	xmm0, DWORD PTR __real@40000000
	movss	DWORD PTR [eax+32], xmm0

; 652  : 			piece -> dx = 0.75f;

	mov	ecx, DWORD PTR _piece$[ebp]
	movss	xmm0, DWORD PTR __real@3f400000
	movss	DWORD PTR [ecx+24], xmm0

; 653  : 			break;

	jmp	$LN36@SetDamageF
$LN34@SetDamageF:

; 654  : 
; 655  : 		case DAMAGEF16_NORIGHTANDNOSE:
; 656  : 		case DAMAGEF16_NORIGHT:
; 657  : 			piece -> sfxflag |= SFX_F16CRASH_OBJECT;

	mov	edx, DWORD PTR _piece$[ebp]
	mov	eax, DWORD PTR [edx+12]
	or	eax, 1073741824				; 40000000H
	mov	ecx, DWORD PTR _piece$[ebp]
	mov	DWORD PTR [ecx+12], eax

; 658  : 			piece -> roll = roll;

	mov	edx, DWORD PTR _piece$[ebp]
	movss	xmm0, DWORD PTR _roll$[ebp]
	movss	DWORD PTR [edx+52], xmm0

; 659  : 			piece -> index = DAMAGEF16_FRONT_SLOTINDEX;

	mov	eax, DWORD PTR _piece$[ebp]
	mov	DWORD PTR [eax+4], 1

; 660  : 			speed += 20.0f;

	movss	xmm0, DWORD PTR _speed$[ebp]
	addss	xmm0, DWORD PTR __real@41a00000
	movss	DWORD PTR _speed$[ebp], xmm0

; 661  : 			angle = 270.0f * DTR;

	movss	xmm0, DWORD PTR __real@4096cbe3
	movss	DWORD PTR _angle$[ebp], xmm0

; 662  : 			piece -> dz = 2.0f;

	mov	ecx, DWORD PTR _piece$[ebp]
	movss	xmm0, DWORD PTR __real@40000000
	movss	DWORD PTR [ecx+32], xmm0

; 663  : 			piece -> dx = 0.75f;

	mov	edx, DWORD PTR _piece$[ebp]
	movss	xmm0, DWORD PTR __real@3f400000
	movss	DWORD PTR [edx+24], xmm0

; 664  : 			break;

	jmp	$LN36@SetDamageF
$LN33@SetDamageF:

; 665  : 
; 666  : 		case DAMAGEF16_ONLYBODY:
; 667  : 			piece -> sfxflag |= SFX_F16CRASH_OBJECT;

	mov	eax, DWORD PTR _piece$[ebp]
	mov	ecx, DWORD PTR [eax+12]
	or	ecx, 1073741824				; 40000000H
	mov	edx, DWORD PTR _piece$[ebp]
	mov	DWORD PTR [edx+12], ecx

; 668  : 			if (PRANDFloatPos() > 0.5f) roll = -roll;

	call	?PRANDFloatPos@@YAMXZ			; PRANDFloatPos
	fstp	DWORD PTR tv433[ebp]
	movss	xmm0, DWORD PTR tv433[ebp]
	comiss	xmm0, DWORD PTR __real@3f000000
	jbe	SHORT $LN32@SetDamageF
	movss	xmm0, DWORD PTR _roll$[ebp]
	xorps	xmm0, DWORD PTR __xmm@80000000800000008000000080000000
	movss	DWORD PTR _roll$[ebp], xmm0
$LN32@SetDamageF:

; 669  : 			piece -> roll = roll;

	mov	eax, DWORD PTR _piece$[ebp]
	movss	xmm0, DWORD PTR _roll$[ebp]
	movss	DWORD PTR [eax+52], xmm0

; 670  : 			piece -> index = DAMAGEF16_FRONT_SLOTINDEX;

	mov	ecx, DWORD PTR _piece$[ebp]
	mov	DWORD PTR [ecx+4], 1

; 671  : 			speed += 20.0f;

	movss	xmm0, DWORD PTR _speed$[ebp]
	addss	xmm0, DWORD PTR __real@41a00000
	movss	DWORD PTR _speed$[ebp], xmm0

; 672  : 			angle = 360.0f * DTR;

	movss	xmm0, DWORD PTR __real@40c90fd9
	movss	DWORD PTR _angle$[ebp], xmm0

; 673  : 			piece -> dz = 1.5f;

	mov	edx, DWORD PTR _piece$[ebp]
	movss	xmm0, DWORD PTR __real@3fc00000
	movss	DWORD PTR [edx+32], xmm0

; 674  : 			piece -> dx = 0.75f;

	mov	eax, DWORD PTR _piece$[ebp]
	movss	xmm0, DWORD PTR __real@3f400000
	movss	DWORD PTR [eax+24], xmm0

; 675  : 			break;

	jmp	$LN36@SetDamageF
$LN31@SetDamageF:

; 676  : 
; 677  : 		case DAMAGEF16_NONOSE:
; 678  : 			piece -> sfxflag |= SFX_F16CRASH_OBJECT;

	mov	ecx, DWORD PTR _piece$[ebp]
	mov	edx, DWORD PTR [ecx+12]
	or	edx, 1073741824				; 40000000H
	mov	eax, DWORD PTR _piece$[ebp]
	mov	DWORD PTR [eax+12], edx

; 679  : 			piece -> index = DAMAGEF16_FRONT_SLOTINDEX;

	mov	ecx, DWORD PTR _piece$[ebp]
	mov	DWORD PTR [ecx+4], 1

; 680  : 			speed += 10.0f;

	movss	xmm0, DWORD PTR _speed$[ebp]
	addss	xmm0, DWORD PTR __real@41200000
	movss	DWORD PTR _speed$[ebp], xmm0

; 681  : 			angle = 270.0f * DTR;

	movss	xmm0, DWORD PTR __real@4096cbe3
	movss	DWORD PTR _angle$[ebp], xmm0

; 682  : 			piece -> dz = 1.25f;

	mov	edx, DWORD PTR _piece$[ebp]
	movss	xmm0, DWORD PTR __real@3fa00000
	movss	DWORD PTR [edx+32], xmm0

; 683  : 			piece -> dx = 0.5f;

	mov	eax, DWORD PTR _piece$[ebp]
	movss	xmm0, DWORD PTR __real@3f000000
	movss	DWORD PTR [eax+24], xmm0

; 684  : 			break;

	jmp	$LN36@SetDamageF
$LN30@SetDamageF:

; 685  : 
; 686  : 		case DAMAGEF16_BACKWITHWING:
; 687  : 			piece -> index = DAMAGEF16_BACK_SLOTINDEX;

	mov	ecx, DWORD PTR _piece$[ebp]
	mov	DWORD PTR [ecx+4], 2

; 688  : 			speed += 15.0f;

	movss	xmm0, DWORD PTR _speed$[ebp]
	addss	xmm0, DWORD PTR __real@41700000
	movss	DWORD PTR _speed$[ebp], xmm0

; 689  : 			angle = 270.0f * DTR;

	movss	xmm0, DWORD PTR __real@4096cbe3
	movss	DWORD PTR _angle$[ebp], xmm0

; 690  : 			piece -> dz = 2.0f;

	mov	edx, DWORD PTR _piece$[ebp]
	movss	xmm0, DWORD PTR __real@40000000
	movss	DWORD PTR [edx+32], xmm0

; 691  : 			piece -> dx = 0.75f;

	mov	eax, DWORD PTR _piece$[ebp]
	movss	xmm0, DWORD PTR __real@3f400000
	movss	DWORD PTR [eax+24], xmm0

; 692  : 			break;

	jmp	$LN36@SetDamageF
$LN29@SetDamageF:

; 693  : 
; 694  : 		case DAMAGEF16_BACKWITHLEFT:
; 695  : 			piece -> roll = roll;

	mov	ecx, DWORD PTR _piece$[ebp]
	movss	xmm0, DWORD PTR _roll$[ebp]
	movss	DWORD PTR [ecx+52], xmm0

; 696  : 			piece -> index = DAMAGEF16_BACK_SLOTINDEX;

	mov	edx, DWORD PTR _piece$[ebp]
	mov	DWORD PTR [edx+4], 2

; 697  : 			speed += 15.0f;

	movss	xmm0, DWORD PTR _speed$[ebp]
	addss	xmm0, DWORD PTR __real@41700000
	movss	DWORD PTR _speed$[ebp], xmm0

; 698  : 			angle = 270.0f * DTR;

	movss	xmm0, DWORD PTR __real@4096cbe3
	movss	DWORD PTR _angle$[ebp], xmm0

; 699  : 			piece -> dz = 2.0f;

	mov	eax, DWORD PTR _piece$[ebp]
	movss	xmm0, DWORD PTR __real@40000000
	movss	DWORD PTR [eax+32], xmm0

; 700  : 			piece -> dx = 0.75f;

	mov	ecx, DWORD PTR _piece$[ebp]
	movss	xmm0, DWORD PTR __real@3f400000
	movss	DWORD PTR [ecx+24], xmm0

; 701  : 			break;

	jmp	$LN36@SetDamageF
$LN28@SetDamageF:

; 702  : 
; 703  : 		case DAMAGEF16_BACKWITHRIGHT:
; 704  : 			piece -> roll = -roll;

	movss	xmm0, DWORD PTR _roll$[ebp]
	xorps	xmm0, DWORD PTR __xmm@80000000800000008000000080000000
	mov	edx, DWORD PTR _piece$[ebp]
	movss	DWORD PTR [edx+52], xmm0

; 705  : 			piece -> index = DAMAGEF16_BACK_SLOTINDEX;

	mov	eax, DWORD PTR _piece$[ebp]
	mov	DWORD PTR [eax+4], 2

; 706  : 			speed += 15.0f;

	movss	xmm0, DWORD PTR _speed$[ebp]
	addss	xmm0, DWORD PTR __real@41700000
	movss	DWORD PTR _speed$[ebp], xmm0

; 707  : 			angle = 270.0f * DTR;

	movss	xmm0, DWORD PTR __real@4096cbe3
	movss	DWORD PTR _angle$[ebp], xmm0

; 708  : 			piece -> dz = 2.0f;

	mov	ecx, DWORD PTR _piece$[ebp]
	movss	xmm0, DWORD PTR __real@40000000
	movss	DWORD PTR [ecx+32], xmm0

; 709  : 			piece -> dx = 0.75f;

	mov	edx, DWORD PTR _piece$[ebp]
	movss	xmm0, DWORD PTR __real@3f400000
	movss	DWORD PTR [edx+24], xmm0

; 710  : 			break;

	jmp	$LN36@SetDamageF
$LN27@SetDamageF:

; 711  : 
; 712  : 		case DAMAGEF16_BACK:
; 713  : 			if (PRANDFloatPos() > 0.5f) roll = -roll;

	call	?PRANDFloatPos@@YAMXZ			; PRANDFloatPos
	fstp	DWORD PTR tv482[ebp]
	movss	xmm0, DWORD PTR tv482[ebp]
	comiss	xmm0, DWORD PTR __real@3f000000
	jbe	SHORT $LN26@SetDamageF
	movss	xmm0, DWORD PTR _roll$[ebp]
	xorps	xmm0, DWORD PTR __xmm@80000000800000008000000080000000
	movss	DWORD PTR _roll$[ebp], xmm0
$LN26@SetDamageF:

; 714  : 			piece -> roll = roll;

	mov	eax, DWORD PTR _piece$[ebp]
	movss	xmm0, DWORD PTR _roll$[ebp]
	movss	DWORD PTR [eax+52], xmm0

; 715  : 			piece -> index = DAMAGEF16_BACK_SLOTINDEX;

	mov	ecx, DWORD PTR _piece$[ebp]
	mov	DWORD PTR [ecx+4], 2

; 716  : 			speed += 25.0f;

	movss	xmm0, DWORD PTR _speed$[ebp]
	addss	xmm0, DWORD PTR __real@41c80000
	movss	DWORD PTR _speed$[ebp], xmm0

; 717  : 			angle = 360.0f * DTR;

	movss	xmm0, DWORD PTR __real@40c90fd9
	movss	DWORD PTR _angle$[ebp], xmm0

; 718  : 			piece -> dz = 1.25f;

	mov	edx, DWORD PTR _piece$[ebp]
	movss	xmm0, DWORD PTR __real@3fa00000
	movss	DWORD PTR [edx+32], xmm0

; 719  : 			piece -> dx = 0.75f;

	mov	eax, DWORD PTR _piece$[ebp]
	movss	xmm0, DWORD PTR __real@3f400000
	movss	DWORD PTR [eax+24], xmm0

; 720  : 			break;

	jmp	$LN36@SetDamageF
$LN25@SetDamageF:

; 721  : 
; 722  : 		case DAMAGEF16_FRONT:
; 723  : 			piece -> sfxflag |= SFX_F16CRASH_OBJECT;

	mov	ecx, DWORD PTR _piece$[ebp]
	mov	edx, DWORD PTR [ecx+12]
	or	edx, 1073741824				; 40000000H
	mov	eax, DWORD PTR _piece$[ebp]
	mov	DWORD PTR [eax+12], edx

; 724  : 			piece -> roll = 40.0f*DTR;

	mov	ecx, DWORD PTR _piece$[ebp]
	movss	xmm0, DWORD PTR __real@3f32b8c1
	movss	DWORD PTR [ecx+52], xmm0

; 725  : 			piece -> index = DAMAGEF16_FRONT_SLOTINDEX;

	mov	edx, DWORD PTR _piece$[ebp]
	mov	DWORD PTR [edx+4], 1

; 726  : 			speed += 30.0f;

	movss	xmm0, DWORD PTR _speed$[ebp]
	addss	xmm0, DWORD PTR __real@41f00000
	movss	DWORD PTR _speed$[ebp], xmm0

; 727  : 			angle = 360.0f * DTR;

	movss	xmm0, DWORD PTR __real@40c90fd9
	movss	DWORD PTR _angle$[ebp], xmm0

; 728  : 			piece -> dz = 1.125f;

	mov	eax, DWORD PTR _piece$[ebp]
	movss	xmm0, DWORD PTR __real@3f900000
	movss	DWORD PTR [eax+32], xmm0

; 729  : 			break;

	jmp	$LN36@SetDamageF
$LN24@SetDamageF:

; 730  : 
; 731  : 		case DAMAGEF16_NOSE:
; 732  : 			piece -> pitch = -5.0f*DTR;

	mov	ecx, DWORD PTR _piece$[ebp]
	movss	xmm0, DWORD PTR __real@bdb2b8c1
	movss	DWORD PTR [ecx+48], xmm0

; 733  : 			piece -> sfxflag |= SFX_BOUNCES;

	mov	edx, DWORD PTR _piece$[ebp]
	mov	eax, DWORD PTR [edx+12]
	or	eax, 32					; 00000020H
	mov	ecx, DWORD PTR _piece$[ebp]
	mov	DWORD PTR [ecx+12], eax

; 734  : 			piece -> index = DAMAGEF16_NOSE_SLOTINDEX;

	mov	edx, DWORD PTR _piece$[ebp]
	mov	DWORD PTR [edx+4], 0

; 735  : 			speed += 50.0f;

	movss	xmm0, DWORD PTR _speed$[ebp]
	addss	xmm0, DWORD PTR __real@42480000
	movss	DWORD PTR _speed$[ebp], xmm0

; 736  : 			angle = 450.0f * DTR;

	movss	xmm0, DWORD PTR __real@40fb53cf
	movss	DWORD PTR _angle$[ebp], xmm0

; 737  : 			piece -> dx = 1.5f;

	mov	eax, DWORD PTR _piece$[ebp]
	movss	xmm0, DWORD PTR __real@3fc00000
	movss	DWORD PTR [eax+24], xmm0

; 738  : 			piece -> dx += PRANDFloatPos();

	call	?PRANDFloatPos@@YAMXZ			; PRANDFloatPos
	fstp	DWORD PTR tv516[ebp]
	mov	ecx, DWORD PTR _piece$[ebp]
	movss	xmm0, DWORD PTR tv516[ebp]
	addss	xmm0, DWORD PTR [ecx+24]
	mov	edx, DWORD PTR _piece$[ebp]
	movss	DWORD PTR [edx+24], xmm0

; 739  : 			if (flag & DAMAGEF16_TOLEFTRIGHT) {

	mov	eax, DWORD PTR _flag$[ebp]
	and	eax, 3
	je	SHORT $LN23@SetDamageF

; 740  : 				piece -> dy += PRANDFloatPos();

	call	?PRANDFloatPos@@YAMXZ			; PRANDFloatPos
	fstp	DWORD PTR tv524[ebp]
	mov	ecx, DWORD PTR _piece$[ebp]
	movss	xmm0, DWORD PTR tv524[ebp]
	addss	xmm0, DWORD PTR [ecx+28]
	mov	edx, DWORD PTR _piece$[ebp]
	movss	DWORD PTR [edx+28], xmm0
$LN23@SetDamageF:

; 741  : 			}
; 742  : 			break;

	jmp	$LN36@SetDamageF
$LN22@SetDamageF:

; 743  : 
; 744  : 		case DAMAGEF16_RWING:
; 745  : 			piece -> sfxflag |= SFX_BOUNCES;

	mov	eax, DWORD PTR _piece$[ebp]
	mov	ecx, DWORD PTR [eax+12]
	or	ecx, 32					; 00000020H
	mov	edx, DWORD PTR _piece$[ebp]
	mov	DWORD PTR [edx+12], ecx

; 746  : 			piece -> index = DAMAGEF16_RWING_SLOTINDEX;

	mov	eax, DWORD PTR _piece$[ebp]
	mov	DWORD PTR [eax+4], 3

; 747  : 			if (flag & DAMAGEF16_TOLEFT) {

	mov	ecx, DWORD PTR _flag$[ebp]
	and	ecx, 1
	je	SHORT $LN21@SetDamageF

; 748  : 				speed += 30.0f;

	movss	xmm0, DWORD PTR _speed$[ebp]
	addss	xmm0, DWORD PTR __real@41f00000
	movss	DWORD PTR _speed$[ebp], xmm0

; 749  : 				piece -> dy = 0.75f;

	mov	edx, DWORD PTR _piece$[ebp]
	movss	xmm0, DWORD PTR __real@3f400000
	movss	DWORD PTR [edx+28], xmm0

; 750  : 			}
; 751  : 			else {

	jmp	SHORT $LN20@SetDamageF
$LN21@SetDamageF:

; 752  : 				speed += 40.0f;

	movss	xmm0, DWORD PTR _speed$[ebp]
	addss	xmm0, DWORD PTR __real@42200000
	movss	DWORD PTR _speed$[ebp], xmm0

; 753  : 				piece -> dy = 1.5f;

	mov	eax, DWORD PTR _piece$[ebp]
	movss	xmm0, DWORD PTR __real@3fc00000
	movss	DWORD PTR [eax+28], xmm0
$LN20@SetDamageF:

; 754  : 			}
; 755  : 			if (flag & DAMAGEF16_TOFRONT) {

	mov	ecx, DWORD PTR _flag$[ebp]
	and	ecx, 4
	je	SHORT $LN19@SetDamageF

; 756  : 				piece -> dx += PRANDFloatPos();

	call	?PRANDFloatPos@@YAMXZ			; PRANDFloatPos
	fstp	DWORD PTR tv543[ebp]
	mov	edx, DWORD PTR _piece$[ebp]
	movss	xmm0, DWORD PTR tv543[ebp]
	addss	xmm0, DWORD PTR [edx+24]
	mov	eax, DWORD PTR _piece$[ebp]
	movss	DWORD PTR [eax+24], xmm0
$LN19@SetDamageF:

; 757  : 			}
; 758  : 			piece -> dy += PRANDFloatPos();

	call	?PRANDFloatPos@@YAMXZ			; PRANDFloatPos
	fstp	DWORD PTR tv550[ebp]
	mov	ecx, DWORD PTR _piece$[ebp]
	movss	xmm0, DWORD PTR tv550[ebp]
	addss	xmm0, DWORD PTR [ecx+28]
	mov	edx, DWORD PTR _piece$[ebp]
	movss	DWORD PTR [edx+28], xmm0

; 759  : 			angle = 360.0f * DTR;

	movss	xmm0, DWORD PTR __real@40c90fd9
	movss	DWORD PTR _angle$[ebp], xmm0

; 760  : 			piece -> dz = 1.0625f;

	mov	eax, DWORD PTR _piece$[ebp]
	movss	xmm0, DWORD PTR __real@3f880000
	movss	DWORD PTR [eax+32], xmm0

; 761  : 			break;

	jmp	$LN36@SetDamageF
$LN18@SetDamageF:

; 762  : 
; 763  : 		case DAMAGEF16_LWING:
; 764  : 			piece -> sfxflag |= SFX_BOUNCES;

	mov	ecx, DWORD PTR _piece$[ebp]
	mov	edx, DWORD PTR [ecx+12]
	or	edx, 32					; 00000020H
	mov	eax, DWORD PTR _piece$[ebp]
	mov	DWORD PTR [eax+12], edx

; 765  : 			piece -> index = DAMAGEF16_LWING_SLOTINDEX;

	mov	ecx, DWORD PTR _piece$[ebp]
	mov	DWORD PTR [ecx+4], 4

; 766  : 			if (flag & DAMAGEF16_TORIGHT) {

	mov	edx, DWORD PTR _flag$[ebp]
	and	edx, 2
	je	SHORT $LN17@SetDamageF

; 767  : 				speed += 30.0f;

	movss	xmm0, DWORD PTR _speed$[ebp]
	addss	xmm0, DWORD PTR __real@41f00000
	movss	DWORD PTR _speed$[ebp], xmm0

; 768  : 				piece -> dy = 0.75f;

	mov	eax, DWORD PTR _piece$[ebp]
	movss	xmm0, DWORD PTR __real@3f400000
	movss	DWORD PTR [eax+28], xmm0

; 769  : 			}
; 770  : 			else {

	jmp	SHORT $LN16@SetDamageF
$LN17@SetDamageF:

; 771  : 				speed += 40.0f;

	movss	xmm0, DWORD PTR _speed$[ebp]
	addss	xmm0, DWORD PTR __real@42200000
	movss	DWORD PTR _speed$[ebp], xmm0

; 772  : 				piece -> dy = 1.5f;

	mov	ecx, DWORD PTR _piece$[ebp]
	movss	xmm0, DWORD PTR __real@3fc00000
	movss	DWORD PTR [ecx+28], xmm0
$LN16@SetDamageF:

; 773  : 			}
; 774  : 			if (flag & DAMAGEF16_TOFRONT) {

	mov	edx, DWORD PTR _flag$[ebp]
	and	edx, 4
	je	SHORT $LN15@SetDamageF

; 775  : 				piece -> dx += PRANDFloatPos();

	call	?PRANDFloatPos@@YAMXZ			; PRANDFloatPos
	fstp	DWORD PTR tv572[ebp]
	mov	eax, DWORD PTR _piece$[ebp]
	movss	xmm0, DWORD PTR tv572[ebp]
	addss	xmm0, DWORD PTR [eax+24]
	mov	ecx, DWORD PTR _piece$[ebp]
	movss	DWORD PTR [ecx+24], xmm0
$LN15@SetDamageF:

; 776  : 			}
; 777  : 			piece -> dy += PRANDFloatPos();

	call	?PRANDFloatPos@@YAMXZ			; PRANDFloatPos
	fstp	DWORD PTR tv579[ebp]
	mov	edx, DWORD PTR _piece$[ebp]
	movss	xmm0, DWORD PTR tv579[ebp]
	addss	xmm0, DWORD PTR [edx+28]
	mov	eax, DWORD PTR _piece$[ebp]
	movss	DWORD PTR [eax+28], xmm0

; 778  : 			angle = -360.0f * DTR;

	movss	xmm0, DWORD PTR __real@c0c90fd9
	movss	DWORD PTR _angle$[ebp], xmm0

; 779  : 			piece -> dz = 1.0625f;

	mov	ecx, DWORD PTR _piece$[ebp]
	movss	xmm0, DWORD PTR __real@3f880000
	movss	DWORD PTR [ecx+32], xmm0

; 780  : 			break;

	jmp	$LN36@SetDamageF
$LN14@SetDamageF:

; 781  : 
; 782  : 		case DAMAGEF16_LSTAB:
; 783  : 			piece -> sfxflag |= SFX_BOUNCES;

	mov	edx, DWORD PTR _piece$[ebp]
	mov	eax, DWORD PTR [edx+12]
	or	eax, 32					; 00000020H
	mov	ecx, DWORD PTR _piece$[ebp]
	mov	DWORD PTR [ecx+12], eax

; 784  : 			piece -> index = DAMAGEF16_LSTAB_SLOTINDEX;

	mov	edx, DWORD PTR _piece$[ebp]
	mov	DWORD PTR [edx+4], 5

; 785  : 			if (flag & DAMAGEF16_TORIGHT) {

	mov	eax, DWORD PTR _flag$[ebp]
	and	eax, 2
	je	SHORT $LN13@SetDamageF

; 786  : 				speed += 40.0f;

	movss	xmm0, DWORD PTR _speed$[ebp]
	addss	xmm0, DWORD PTR __real@42200000
	movss	DWORD PTR _speed$[ebp], xmm0

; 787  : 				piece -> dy = 0.75f;

	mov	ecx, DWORD PTR _piece$[ebp]
	movss	xmm0, DWORD PTR __real@3f400000
	movss	DWORD PTR [ecx+28], xmm0

; 788  : 			}
; 789  : 			else {

	jmp	SHORT $LN12@SetDamageF
$LN13@SetDamageF:

; 790  : 				speed += 50.0f;

	movss	xmm0, DWORD PTR _speed$[ebp]
	addss	xmm0, DWORD PTR __real@42480000
	movss	DWORD PTR _speed$[ebp], xmm0

; 791  : 				piece -> dy = 1.5f;

	mov	edx, DWORD PTR _piece$[ebp]
	movss	xmm0, DWORD PTR __real@3fc00000
	movss	DWORD PTR [edx+28], xmm0
$LN12@SetDamageF:

; 792  : 			}
; 793  : 			if (flag & DAMAGEF16_TOFRONT) {

	mov	eax, DWORD PTR _flag$[ebp]
	and	eax, 4
	je	SHORT $LN11@SetDamageF

; 794  : 				piece -> dx += PRANDFloatPos();

	call	?PRANDFloatPos@@YAMXZ			; PRANDFloatPos
	fstp	DWORD PTR tv601[ebp]
	mov	ecx, DWORD PTR _piece$[ebp]
	movss	xmm0, DWORD PTR tv601[ebp]
	addss	xmm0, DWORD PTR [ecx+24]
	mov	edx, DWORD PTR _piece$[ebp]
	movss	DWORD PTR [edx+24], xmm0
$LN11@SetDamageF:

; 795  : 			}
; 796  : 			piece -> dy += PRANDFloatPos();

	call	?PRANDFloatPos@@YAMXZ			; PRANDFloatPos
	fstp	DWORD PTR tv608[ebp]
	mov	eax, DWORD PTR _piece$[ebp]
	movss	xmm0, DWORD PTR tv608[ebp]
	addss	xmm0, DWORD PTR [eax+28]
	mov	ecx, DWORD PTR _piece$[ebp]
	movss	DWORD PTR [ecx+28], xmm0

; 797  : 			angle = -450.0f * DTR;

	movss	xmm0, DWORD PTR __real@c0fb53cf
	movss	DWORD PTR _angle$[ebp], xmm0

; 798  : 			break;

	jmp	$LN36@SetDamageF
$LN10@SetDamageF:

; 799  : 
; 800  : 		case DAMAGEF16_RSTAB:
; 801  : 			piece -> sfxflag |= SFX_BOUNCES;

	mov	edx, DWORD PTR _piece$[ebp]
	mov	eax, DWORD PTR [edx+12]
	or	eax, 32					; 00000020H
	mov	ecx, DWORD PTR _piece$[ebp]
	mov	DWORD PTR [ecx+12], eax

; 802  : 			piece -> index = DAMAGEF16_RSTAB_SLOTINDEX;

	mov	edx, DWORD PTR _piece$[ebp]
	mov	DWORD PTR [edx+4], 6

; 803  : 			if (flag & DAMAGEF16_TOLEFT) {

	mov	eax, DWORD PTR _flag$[ebp]
	and	eax, 1
	je	SHORT $LN9@SetDamageF

; 804  : 				speed += 40.0f;

	movss	xmm0, DWORD PTR _speed$[ebp]
	addss	xmm0, DWORD PTR __real@42200000
	movss	DWORD PTR _speed$[ebp], xmm0

; 805  : 				piece -> dy = 0.75f;

	mov	ecx, DWORD PTR _piece$[ebp]
	movss	xmm0, DWORD PTR __real@3f400000
	movss	DWORD PTR [ecx+28], xmm0

; 806  : 			}
; 807  : 			else {

	jmp	SHORT $LN8@SetDamageF
$LN9@SetDamageF:

; 808  : 				speed += 50.0f;

	movss	xmm0, DWORD PTR _speed$[ebp]
	addss	xmm0, DWORD PTR __real@42480000
	movss	DWORD PTR _speed$[ebp], xmm0

; 809  : 				piece -> dy = 1.5f;

	mov	edx, DWORD PTR _piece$[ebp]
	movss	xmm0, DWORD PTR __real@3fc00000
	movss	DWORD PTR [edx+28], xmm0
$LN8@SetDamageF:

; 810  : 			}
; 811  : 			if (flag & DAMAGEF16_TOFRONT) {

	mov	eax, DWORD PTR _flag$[ebp]
	and	eax, 4
	je	SHORT $LN7@SetDamageF

; 812  : 				piece -> dx += PRANDFloatPos();

	call	?PRANDFloatPos@@YAMXZ			; PRANDFloatPos
	fstp	DWORD PTR tv628[ebp]
	mov	ecx, DWORD PTR _piece$[ebp]
	movss	xmm0, DWORD PTR tv628[ebp]
	addss	xmm0, DWORD PTR [ecx+24]
	mov	edx, DWORD PTR _piece$[ebp]
	movss	DWORD PTR [edx+24], xmm0
$LN7@SetDamageF:

; 813  : 			}
; 814  : 			piece -> dy += PRANDFloatPos();

	call	?PRANDFloatPos@@YAMXZ			; PRANDFloatPos
	fstp	DWORD PTR tv635[ebp]
	mov	eax, DWORD PTR _piece$[ebp]
	movss	xmm0, DWORD PTR tv635[ebp]
	addss	xmm0, DWORD PTR [eax+28]
	mov	ecx, DWORD PTR _piece$[ebp]
	movss	DWORD PTR [ecx+28], xmm0

; 815  : 			angle = 450.0f * DTR;

	movss	xmm0, DWORD PTR __real@40fb53cf
	movss	DWORD PTR _angle$[ebp], xmm0

; 816  : 			break;

	jmp	SHORT $LN36@SetDamageF
$LN6@SetDamageF:

; 817  : 
; 818  : 		default:
; 819  : 			angle = 0.0F;

	movss	xmm0, DWORD PTR __real@00000000
	movss	DWORD PTR _angle$[ebp], xmm0
$LN36@SetDamageF:

; 820  : 		break;
; 821  : 	}
; 822  : 
; 823  : 	speed += 50.0f * PRANDFloatPos();

	call	?PRANDFloatPos@@YAMXZ			; PRANDFloatPos
	fstp	DWORD PTR tv644[ebp]
	movss	xmm0, DWORD PTR tv644[ebp]
	mulss	xmm0, DWORD PTR __real@42480000
	addss	xmm0, DWORD PTR _speed$[ebp]
	movss	DWORD PTR _speed$[ebp], xmm0

; 824  : 
; 825  : 	angle1 = 180.0f * DTR;

	movss	xmm0, DWORD PTR __real@40490fd9
	movss	DWORD PTR _angle1$[ebp], xmm0

; 826  : 	angle2 = 360.0f * DTR;

	movss	xmm0, DWORD PTR __real@40c90fd9
	movss	DWORD PTR _angle2$[ebp], xmm0

; 827  : 	float s = speed * 0.1f;

	movss	xmm0, DWORD PTR _speed$[ebp]
	mulss	xmm0, DWORD PTR __real@3dcccccd
	movss	DWORD PTR _s$[ebp], xmm0

; 828  : 	if (s > 8.0f) s = 8.0f;

	movss	xmm0, DWORD PTR _s$[ebp]
	comiss	xmm0, DWORD PTR __real@41000000
	jbe	SHORT $LN5@SetDamageF
	movss	xmm0, DWORD PTR __real@41000000
	movss	DWORD PTR _s$[ebp], xmm0
$LN5@SetDamageF:

; 829  : 	s = 1.0f / (9.0f - s);

	movss	xmm0, DWORD PTR __real@41100000
	subss	xmm0, DWORD PTR _s$[ebp]
	movss	xmm1, DWORD PTR __real@3f800000
	divss	xmm1, xmm0
	movss	DWORD PTR _s$[ebp], xmm1

; 830  : 	angle *= s;

	movss	xmm0, DWORD PTR _angle$[ebp]
	mulss	xmm0, DWORD PTR _s$[ebp]
	movss	DWORD PTR _angle$[ebp], xmm0

; 831  : 	angle1 *= s;

	movss	xmm0, DWORD PTR _angle1$[ebp]
	mulss	xmm0, DWORD PTR _s$[ebp]
	movss	DWORD PTR _angle1$[ebp], xmm0

; 832  : 	angle2 *= s;

	movss	xmm0, DWORD PTR _angle2$[ebp]
	mulss	xmm0, DWORD PTR _s$[ebp]
	movss	DWORD PTR _angle2$[ebp], xmm0

; 833  : 	if (flag & DAMAGEF16_TOLEFTRIGHT) {

	mov	edx, DWORD PTR _flag$[ebp]
	and	edx, 3
	je	SHORT $LN2@SetDamageF

; 834  : 		if (flag & DAMAGEF16_TOFRONT) {

	mov	eax, DWORD PTR _flag$[ebp]
	and	eax, 4
	je	SHORT $LN3@SetDamageF

; 835  : 			angle *= 2.5f;

	movss	xmm0, DWORD PTR _angle$[ebp]
	mulss	xmm0, DWORD PTR __real@40200000
	movss	DWORD PTR _angle$[ebp], xmm0

; 836  : 			angle1 *= 2.0f;

	movss	xmm0, DWORD PTR _angle1$[ebp]
	mulss	xmm0, DWORD PTR __real@40000000
	movss	DWORD PTR _angle1$[ebp], xmm0

; 837  : 			angle2 *= 1.5f;

	movss	xmm0, DWORD PTR _angle2$[ebp]
	mulss	xmm0, DWORD PTR __real@3fc00000
	movss	DWORD PTR _angle2$[ebp], xmm0
$LN3@SetDamageF:

; 838  : 		}
; 839  : 		if (flag & DAMAGEF16_TOLEFT) {

	mov	ecx, DWORD PTR _flag$[ebp]
	and	ecx, 1
	je	SHORT $LN2@SetDamageF

; 840  : 			angle = -angle;

	movss	xmm0, DWORD PTR _angle$[ebp]
	xorps	xmm0, DWORD PTR __xmm@80000000800000008000000080000000
	movss	DWORD PTR _angle$[ebp], xmm0

; 841  : 			angle1 = -angle1;

	movss	xmm0, DWORD PTR _angle1$[ebp]
	xorps	xmm0, DWORD PTR __xmm@80000000800000008000000080000000
	movss	DWORD PTR _angle1$[ebp], xmm0

; 842  : 			angle2 = -angle2;

	movss	xmm0, DWORD PTR _angle2$[ebp]
	xorps	xmm0, DWORD PTR __xmm@80000000800000008000000080000000
	movss	DWORD PTR _angle2$[ebp], xmm0
$LN2@SetDamageF:

; 843  : 		}
; 844  : 	}
; 845  : 	piece -> yd = angle;

	mov	edx, DWORD PTR _piece$[ebp]
	movss	xmm0, DWORD PTR _angle$[ebp]
	movss	DWORD PTR [edx+36], xmm0

; 846  : 	piece -> pd = angle1;

	mov	eax, DWORD PTR _piece$[ebp]
	movss	xmm0, DWORD PTR _angle1$[ebp]
	movss	DWORD PTR [eax+40], xmm0

; 847  : 	piece -> rd = angle2;

	mov	ecx, DWORD PTR _piece$[ebp]
	movss	xmm0, DWORD PTR _angle2$[ebp]
	movss	DWORD PTR [ecx+44], xmm0

; 848  : 
; 849  : 	piece -> dx *= XDelta();

	mov	ecx, DWORD PTR _this$[ebp]
	call	?XDelta@VuEntity@@QBEMXZ		; VuEntity::XDelta
	fstp	DWORD PTR tv675[ebp]
	mov	edx, DWORD PTR _piece$[ebp]
	movss	xmm0, DWORD PTR tv675[ebp]
	mulss	xmm0, DWORD PTR [edx+24]
	mov	eax, DWORD PTR _piece$[ebp]
	movss	DWORD PTR [eax+24], xmm0

; 850  : 	piece -> dy *= YDelta();

	mov	ecx, DWORD PTR _this$[ebp]
	call	?YDelta@VuEntity@@QBEMXZ		; VuEntity::YDelta
	fstp	DWORD PTR tv682[ebp]
	mov	ecx, DWORD PTR _piece$[ebp]
	movss	xmm0, DWORD PTR tv682[ebp]
	mulss	xmm0, DWORD PTR [ecx+28]
	mov	edx, DWORD PTR _piece$[ebp]
	movss	DWORD PTR [edx+28], xmm0

; 851  : 	piece -> dz *= ZDelta();

	mov	ecx, DWORD PTR _this$[ebp]
	call	?ZDelta@VuEntity@@QBEMXZ		; VuEntity::ZDelta
	fstp	DWORD PTR tv689[ebp]
	mov	eax, DWORD PTR _piece$[ebp]
	movss	xmm0, DWORD PTR tv689[ebp]
	mulss	xmm0, DWORD PTR [eax+32]
	mov	ecx, DWORD PTR _piece$[ebp]
	movss	DWORD PTR [ecx+32], xmm0

; 852  : 
; 853  : 	if ( this != SimDriver.GetPlayerEntity() ) {

	mov	ecx, OFFSET ?SimDriver@@3VSimulationDriver@@A ; SimDriver
	call	?GetPlayerEntity@SimulationDriver@@QBEPAVSimMoverClass@@XZ ; SimulationDriver::GetPlayerEntity
	cmp	DWORD PTR _this$[ebp], eax
	je	SHORT $LN1@SetDamageF

; 854  : 		piece -> sfxflag &= ~SFX_F16CRASH_OBJECT;

	mov	edx, DWORD PTR _piece$[ebp]
	mov	eax, DWORD PTR [edx+12]
	and	eax, -1073741825			; bfffffffH
	mov	ecx, DWORD PTR _piece$[ebp]
	mov	DWORD PTR [ecx+12], eax
$LN1@SetDamageF:

; 855  : 	}
; 856  : 
; 857  : 	return 1;

	mov	eax, 1
$LN41@SetDamageF:

; 858  : }

	mov	esp, ebp
	pop	ebp
	ret	20					; 00000014H
	npad	1
$LN44@SetDamageF:
	DD	$LN22@SetDamageF
	DD	$LN18@SetDamageF
	DD	$LN14@SetDamageF
	DD	$LN10@SetDamageF
	DD	$LN27@SetDamageF
	DD	$LN29@SetDamageF
	DD	$LN28@SetDamageF
	DD	$LN30@SetDamageF
	DD	$LN25@SetDamageF
	DD	$LN34@SetDamageF
	DD	$LN35@SetDamageF
	DD	$LN31@SetDamageF
	DD	$LN24@SetDamageF
	DD	$LN33@SetDamageF
	DD	$LN6@SetDamageF
$LN43@SetDamageF:
	DB	0
	DB	1
	DB	14					; 0000000eH
	DB	2
	DB	14					; 0000000eH
	DB	14					; 0000000eH
	DB	14					; 0000000eH
	DB	3
	DB	14					; 0000000eH
	DB	14					; 0000000eH
	DB	14					; 0000000eH
	DB	14					; 0000000eH
	DB	14					; 0000000eH
	DB	14					; 0000000eH
	DB	14					; 0000000eH
	DB	4
	DB	14					; 0000000eH
	DB	14					; 0000000eH
	DB	14					; 0000000eH
	DB	14					; 0000000eH
	DB	14					; 0000000eH
	DB	5
	DB	14					; 0000000eH
	DB	14					; 0000000eH
	DB	6
	DB	14					; 0000000eH
	DB	14					; 0000000eH
	DB	14					; 0000000eH
	DB	14					; 0000000eH
	DB	14					; 0000000eH
	DB	7
	DB	8
	DB	14					; 0000000eH
	DB	14					; 0000000eH
	DB	14					; 0000000eH
	DB	14					; 0000000eH
	DB	14					; 0000000eH
	DB	14					; 0000000eH
	DB	14					; 0000000eH
	DB	14					; 0000000eH
	DB	14					; 0000000eH
	DB	14					; 0000000eH
	DB	14					; 0000000eH
	DB	14					; 0000000eH
	DB	14					; 0000000eH
	DB	14					; 0000000eH
	DB	14					; 0000000eH
	DB	14					; 0000000eH
	DB	14					; 0000000eH
	DB	14					; 0000000eH
	DB	14					; 0000000eH
	DB	14					; 0000000eH
	DB	14					; 0000000eH
	DB	9
	DB	14					; 0000000eH
	DB	14					; 0000000eH
	DB	10					; 0000000aH
	DB	14					; 0000000eH
	DB	14					; 0000000eH
	DB	14					; 0000000eH
	DB	14					; 0000000eH
	DB	14					; 0000000eH
	DB	11					; 0000000bH
	DB	12					; 0000000cH
	DB	14					; 0000000eH
	DB	14					; 0000000eH
	DB	14					; 0000000eH
	DB	14					; 0000000eH
	DB	14					; 0000000eH
	DB	14					; 0000000eH
	DB	14					; 0000000eH
	DB	14					; 0000000eH
	DB	14					; 0000000eH
	DB	14					; 0000000eH
	DB	14					; 0000000eH
	DB	14					; 0000000eH
	DB	14					; 0000000eH
	DB	14					; 0000000eH
	DB	14					; 0000000eH
	DB	14					; 0000000eH
	DB	14					; 0000000eH
	DB	14					; 0000000eH
	DB	14					; 0000000eH
	DB	14					; 0000000eH
	DB	14					; 0000000eH
	DB	14					; 0000000eH
	DB	14					; 0000000eH
	DB	14					; 0000000eH
	DB	14					; 0000000eH
	DB	14					; 0000000eH
	DB	14					; 0000000eH
	DB	14					; 0000000eH
	DB	14					; 0000000eH
	DB	14					; 0000000eH
	DB	14					; 0000000eH
	DB	14					; 0000000eH
	DB	14					; 0000000eH
	DB	14					; 0000000eH
	DB	14					; 0000000eH
	DB	14					; 0000000eH
	DB	14					; 0000000eH
	DB	14					; 0000000eH
	DB	14					; 0000000eH
	DB	14					; 0000000eH
	DB	14					; 0000000eH
	DB	14					; 0000000eH
	DB	14					; 0000000eH
	DB	14					; 0000000eH
	DB	14					; 0000000eH
	DB	14					; 0000000eH
	DB	14					; 0000000eH
	DB	13					; 0000000dH
	DB	14					; 0000000eH
	DB	14					; 0000000eH
	DB	14					; 0000000eH
	DB	14					; 0000000eH
	DB	14					; 0000000eH
	DB	9
	DB	14					; 0000000eH
	DB	14					; 0000000eH
	DB	10					; 0000000aH
?SetDamageF16PieceType@AircraftClass@@IAEHPAUDamageF16PieceStructure@@HHHM@Z ENDP ; AircraftClass::SetDamageF16PieceType
_TEXT	ENDS
; Function compile flags: /Odtp
; File c:\users\zhitao li\documents\visual studio 2012\projects\freefalcon\sim\aircraft\damage.cpp
_TEXT	SEGMENT
tv70 = -12						; size = 4
_i$ = -8						; size = 4
_this$ = -4						; size = 4
_failures$ = 8						; size = 4
_failuresPossible$ = 12					; size = 4
___formal$ = 16						; size = 4
___formal$ = 20						; size = 4
?AddFault@AircraftClass@@QAEXHIHH@Z PROC		; AircraftClass::AddFault
; _this$ = ecx

; 3213 : {

	push	ebp
	mov	ebp, esp
	sub	esp, 12					; 0000000cH
	mov	DWORD PTR _this$[ebp], ecx

; 3214 :     int i;
; 3215 :     
; 3216 :     //	failures = numToBreak * (float)rand() / (float)RAND_MAX;
; 3217 :     
; 3218 :     for(i = 0; i < failures; i++)

	mov	DWORD PTR _i$[ebp], 0
	jmp	SHORT $LN9@AddFault
$LN8@AddFault:
	mov	eax, DWORD PTR _i$[ebp]
	add	eax, 1
	mov	DWORD PTR _i$[ebp], eax
$LN9@AddFault:
	mov	ecx, DWORD PTR _i$[ebp]
	cmp	ecx, DWORD PTR _failures$[ebp]
	jge	SHORT $LN7@AddFault

; 3219 :     {
; 3220 : 	mFaults->SetFault(failuresPossible, !isDigital);

	mov	edx, DWORD PTR _this$[ebp]
	cmp	DWORD PTR [edx+948], 0
	jne	SHORT $LN12@AddFault
	mov	DWORD PTR tv70[ebp], 1
	jmp	SHORT $LN13@AddFault
$LN12@AddFault:
	mov	DWORD PTR tv70[ebp], 0
$LN13@AddFault:
	mov	eax, DWORD PTR tv70[ebp]
	push	eax
	mov	ecx, DWORD PTR _failuresPossible$[ebp]
	push	ecx
	mov	edx, DWORD PTR _this$[ebp]
	mov	ecx, DWORD PTR [edx+928]
	call	?SetFault@FackClass@@QAEXHH@Z		; FackClass::SetFault

; 3221 :     }

	jmp	SHORT $LN8@AddFault
$LN7@AddFault:

; 3222 :     // JPO - break hydraulics occasionally
; 3223 :     if ((failuresPossible & FaultClass::eng_fault) &&
; 3224 : 	(mFaults->GetFault(FaultClass::eng_fault) & FaultClass::hydr))  {

	mov	eax, DWORD PTR _failuresPossible$[ebp]
	and	eax, 8
	je	SHORT $LN6@AddFault
	push	8
	mov	ecx, DWORD PTR _this$[ebp]
	mov	ecx, DWORD PTR [ecx+928]
	call	?GetFault@FackClass@@QAEHW4type_FSubSystem@FaultClass@@@Z ; FackClass::GetFault
	and	eax, 32768				; 00008000H
	je	SHORT $LN6@AddFault

; 3225 : 	if (rand() % 100 < 20) { // 20% failure chance of A system

	call	_rand
	cdq
	mov	ecx, 100				; 00000064H
	idiv	ecx
	cmp	edx, 20					; 00000014H
	jge	SHORT $LN5@AddFault

; 3226 : 	    af->HydrBreak (AirframeClass::HYDR_A_SYSTEM);

	push	1
	mov	edx, DWORD PTR _this$[ebp]
	mov	ecx, DWORD PTR [edx+932]
	call	?HydrBreak@AirframeClass@@QAEXH@Z	; AirframeClass::HydrBreak
$LN5@AddFault:

; 3227 : 	}
; 3228 : 	if (rand() % 100 < 20) { // 20% failure chance of B system

	call	_rand
	cdq
	mov	ecx, 100				; 00000064H
	idiv	ecx
	cmp	edx, 20					; 00000014H
	jge	SHORT $LN6@AddFault

; 3229 : 	    af->HydrBreak (AirframeClass::HYDR_B_SYSTEM);

	push	2
	mov	edx, DWORD PTR _this$[ebp]
	mov	ecx, DWORD PTR [edx+932]
	call	?HydrBreak@AirframeClass@@QAEXH@Z	; AirframeClass::HydrBreak
$LN6@AddFault:

; 3230 : 	}
; 3231 :     }
; 3232 :     // also break the generators now and then
; 3233 :     if (failuresPossible & FaultClass::eng_fault) {

	mov	eax, DWORD PTR _failuresPossible$[ebp]
	and	eax, 8
	je	SHORT $LN10@AddFault

; 3234 : 	if (rand() % 7 == 1)

	call	_rand
	cdq
	mov	ecx, 7
	idiv	ecx
	cmp	edx, 1
	jne	SHORT $LN2@AddFault

; 3235 : 	    af->GeneratorBreak(AirframeClass::GenStdby);

	push	64					; 00000040H
	mov	edx, DWORD PTR _this$[ebp]
	mov	ecx, DWORD PTR [edx+932]
	call	?GeneratorBreak@AirframeClass@@QAEXW4Generator@1@@Z ; AirframeClass::GeneratorBreak
$LN2@AddFault:

; 3236 : 	if (rand() % 7 == 1)

	call	_rand
	cdq
	mov	ecx, 7
	idiv	ecx
	cmp	edx, 1
	jne	SHORT $LN10@AddFault

; 3237 : 	    af->GeneratorBreak(AirframeClass::GenMain);

	push	1024					; 00000400H
	mov	edx, DWORD PTR _this$[ebp]
	mov	ecx, DWORD PTR [edx+932]
	call	?GeneratorBreak@AirframeClass@@QAEXW4Generator@1@@Z ; AirframeClass::GeneratorBreak
$LN10@AddFault:

; 3238 :     }
; 3239 : #if 0
; 3240 : int failedThing;
; 3241 : int i, j = 0;
; 3242 : int failedThings[FaultClass::NumFaultListSubSystems];
; 3243 : BOOL Found;
; 3244 : int canFail;
; 3245 : int numFunctions = 0;
; 3246 : int failedFunc;
; 3247 : 
; 3248 : 	failures = numToBreak * (float)rand() / (float)RAND_MAX;
; 3249 : 
; 3250 : 	for(i = 0; i < FaultClass::NumFaultListSubSystems; i++) {
; 3251 :       if(failuresPossible & (1 << i)) {
; 3252 : 			failedThings[j] = i;
; 3253 : 			j++;
; 3254 : 		}
; 3255 : 	}
; 3256 :    
; 3257 : 	for(i = 0; i < failures; i++) {
; 3258 : 		Found = FALSE;
; 3259 : 
; 3260 : 		do {
; 3261 : 			failedThing = j * (float)rand() / (float)RAND_MAX;
; 3262 :          numFunctions = 0;
; 3263 : 
; 3264 : 			if(failedThings[failedThing] != -1) {
; 3265 :             // FLCS is a special case, as it has 1 informational fault which MUST happen first
; 3266 :             if ((FaultClass::type_FSubSystem)failedThings[failedThing] == FaultClass::flcs_fault &&
; 3267 :                !mFaults->GetFault(FaultClass::flcs_fault))
; 3268 :             {
; 3269 :                failedFunc = 1;
; 3270 :                numFunctions = -1;
; 3271 :                while (failedFunc)
; 3272 :                {
; 3273 :                   numFunctions ++;
; 3274 :                   if (FaultClass::sngl & (1 << numFunctions))
; 3275 :                      failedFunc --;
; 3276 :                }
; 3277 :             }
; 3278 :             else
; 3279 :             {
; 3280 :                canFail   = mFaults->Breakable((FaultClass::type_FSubSystem)failedThings[failedThing]);
; 3281 : 
; 3282 :                // How many functions?
; 3283 :                while (canFail)
; 3284 :                {
; 3285 :                   if (canFail & 0x1)
; 3286 :                      numFunctions ++;
; 3287 :                   canFail = canFail >> 1;
; 3288 :                }
; 3289 : 
; 3290 :                // pick 1 of canFail things
; 3291 :                failedFunc = numFunctions * (float)rand() / (float)RAND_MAX + 1;
; 3292 : 
; 3293 :                // Find that function
; 3294 :                canFail   = mFaults->Breakable((FaultClass::type_FSubSystem)failedThings[failedThing]);
; 3295 :                numFunctions = -1;
; 3296 :                while (failedFunc)
; 3297 :                {
; 3298 :                   numFunctions ++;
; 3299 :                   if (canFail & (1 << numFunctions))
; 3300 :                      failedFunc --;
; 3301 :                }
; 3302 :             }
; 3303 : 
; 3304 : 				mFaults->SetFault((FaultClass::type_FSubSystem)failedThings[failedThing],
; 3305 : 						(FaultClass::type_FFunction) (1 << numFunctions),	
; 3306 : 						(FaultClass::type_FSeverity) FaultClass::fail,
; 3307 : 						!isDigital);	// none, fail for now
; 3308 : 	if (failedThings[failedThing] == FaultClass::eng_fault &&
; 3309 : 		(1 << numFunctions) == hydr) {
; 3310 : 		if (rand() % 100 < 20) { // 20% failure chance of A system
; 3311 : 			af->HydrBreak (Airframe::HYDR_A_SYSTEM);
; 3312 : 		}
; 3313 : 		if (rand() % 100 < 20) { // 20% failure chance of B system
; 3314 : 			af->HydrBreak (Airframe::HYDR_B_SYSTEM);
; 3315 : 		}
; 3316 : 	}
; 3317 : 
; 3318 :             MonoPrint ("Failed %s %s\n", FaultClass::mpFSubSystemNames[failedThings[failedThing]],
; 3319 :                FaultClass::mpFFunctionNames[numFunctions+1]);
; 3320 : 				failedThings[failedThing] = -1;
; 3321 : 				Found = TRUE;
; 3322 : 			}
; 3323 : 		}
; 3324 : 		while(Found = FALSE);
; 3325 : 	}
; 3326 : #endif
; 3327 : }

	mov	esp, ebp
	pop	ebp
	ret	16					; 00000010H
?AddFault@AircraftClass@@QAEXHIHH@Z ENDP		; AircraftClass::AddFault
_TEXT	ENDS
; Function compile flags: /Odtp
; File c:\users\zhitao li\documents\visual studio 2012\projects\freefalcon\sim\aircraft\damage.cpp
_TEXT	SEGMENT
_this$ = -4						; size = 4
?RunCautionChecks@AircraftClass@@QAEXXZ PROC		; AircraftClass::RunCautionChecks
; _this$ = ecx

; 3330 : {

	push	ebp
	mov	ebp, esp
	push	ecx
	mov	DWORD PTR _this$[ebp], ecx

; 3331 : }

	mov	esp, ebp
	pop	ebp
	ret	0
?RunCautionChecks@AircraftClass@@QAEXXZ ENDP		; AircraftClass::RunCautionChecks
_TEXT	ENDS
; Function compile flags: /Odtp
; File c:\users\zhitao li\documents\visual studio 2012\projects\freefalcon\sim\include\aircrft.h
;	COMDAT ?DBrain@AircraftClass@@QAEPAVDigitalBrain@@XZ
_TEXT	SEGMENT
_this$ = -4						; size = 4
?DBrain@AircraftClass@@QAEPAVDigitalBrain@@XZ PROC	; AircraftClass::DBrain, COMDAT
; _this$ = ecx

; 624  : 	DigitalBrain *DBrain(void)			{return (DigitalBrain *)theBrain;}

	push	ebp
	mov	ebp, esp
	push	ecx
	mov	DWORD PTR _this$[ebp], ecx
	mov	eax, DWORD PTR _this$[ebp]
	mov	eax, DWORD PTR [eax+672]
	mov	esp, ebp
	pop	ebp
	ret	0
?DBrain@AircraftClass@@QAEPAVDigitalBrain@@XZ ENDP	; AircraftClass::DBrain
_TEXT	ENDS
; Function compile flags: /Odtp
; File c:\users\zhitao li\documents\visual studio 2012\projects\freefalcon\sim\aircraft\damage.cpp
_TEXT	SEGMENT
$T2 = -928						; size = 8
$T3 = -920						; size = 8
$T4 = -912						; size = 8
$T5 = -904						; size = 8
$T6 = -896						; size = 8
$T7 = -888						; size = 8
$T8 = -880						; size = 8
$T9 = -872						; size = 8
_gndGmma$10 = -864					; size = 4
_relMu$11 = -860					; size = 4
tv2309 = -856						; size = 4
tv2209 = -852						; size = 4
tv3232 = -848						; size = 4
tv2724 = -844						; size = 4
tv2305 = -840						; size = 4
tv2483 = -836						; size = 4
tv2301 = -832						; size = 4
tv2702 = -828						; size = 4
tv3166 = -824						; size = 4
tv2532 = -820						; size = 4
tv2297 = -816						; size = 4
tv2416 = -812						; size = 4
tv2293 = -808						; size = 4
tv3244 = -804						; size = 4
tv3164 = -800						; size = 4
tv2589 = -796						; size = 4
tv2289 = -792						; size = 4
tv2567 = -788						; size = 4
tv2283 = -784						; size = 4
tv2508 = -780						; size = 4
tv2266 = -776						; size = 4
tv2452 = -772						; size = 4
tv3162 = -768						; size = 4
tv2750 = -764						; size = 4
tv2261 = -760						; size = 4
tv2720 = -756						; size = 4
tv2247 = -752						; size = 4
tv2706 = -748						; size = 4
tv3160 = -744						; size = 4
tv2597 = -740						; size = 4
tv2243 = -736						; size = 4
tv2585 = -732						; size = 4
tv2239 = -728						; size = 4
tv2571 = -724						; size = 4
tv3158 = -720						; size = 4
tv2536 = -716						; size = 4
tv2235 = -712						; size = 4
tv2521 = -708						; size = 4
tv2231 = -704						; size = 4
tv2496 = -700						; size = 4
tv3156 = -696						; size = 4
tv2472 = -692						; size = 4
tv2227 = -688						; size = 4
tv2426 = -684						; size = 4
tv2215 = -680						; size = 4
tv2403 = -676						; size = 4
tv3154 = -672						; size = 4
tv2745 = -668						; size = 4
tv2695 = -664						; size = 4
tv3246 = -660						; size = 4
tv2689 = -656						; size = 4
tv2715 = -652						; size = 4
tv2641 = -648						; size = 4
tv2711 = -644						; size = 4
tv2629 = -640						; size = 4
tv3242 = -636						; size = 4
tv2617 = -632						; size = 4
tv2328 = -628						; size = 4
tv2605 = -624						; size = 4
tv2647 = -620						; size = 4
tv3260 = -616						; size = 4
tv2635 = -612						; size = 4
tv3137 = -608						; size = 4
tv2623 = -604						; size = 4
tv3262 = -600						; size = 4
tv2611 = -596						; size = 4
tv3129 = -592						; size = 4
tv2601 = -588						; size = 4
tv3256 = -584						; size = 4
tv2593 = -580						; size = 4
tv3122 = -576						; size = 4
tv3240 = -572						; size = 4
tv3258 = -568						; size = 4
tv2580 = -564						; size = 4
tv3114 = -560						; size = 4
tv2576 = -556						; size = 4
$T12 = -552						; size = 4
tv3236 = -548						; size = 4
tv3252 = -544						; size = 4
tv2541 = -540						; size = 4
tv3033 = -536						; size = 4
tv3234 = -532						; size = 4
tv3254 = -528						; size = 4
tv2528 = -524						; size = 4
tv3025 = -520						; size = 4
tv2515 = -516						; size = 4
tv3248 = -512						; size = 4
tv2501 = -508						; size = 4
tv3018 = -504						; size = 4
tv2490 = -500						; size = 4
tv3250 = -496						; size = 4
tv2478 = -492						; size = 4
tv3010 = -488						; size = 4
tv2463 = -484						; size = 4
$T13 = -480						; size = 4
tv2443 = -476						; size = 4
tv2888 = -472						; size = 4
tv2422 = -468						; size = 4
tv2864 = -464						; size = 4
tv2410 = -460						; size = 4
tv2771 = -456						; size = 4
tv2755 = -452						; size = 4
tv3238 = -448						; size = 4
tv1423 = -444						; size = 4
tv533 = -440						; size = 4
$T14 = -436						; size = 4
tv1706 = -432						; size = 4
tv1412 = -428						; size = 4
tv1717 = -424						; size = 4
_noseAngle$15 = -420					; size = 4
tv536 = -416						; size = 4
_gearOffset$16 = -412					; size = 4
tv1887 = -408						; size = 4
tv949 = -404						; size = 4
$T17 = -400						; size = 4
tv540 = -396						; size = 4
tv517 = -392						; size = 4
tv539 = -388						; size = 4
tv1668 = -384						; size = 4
_tmp$18 = -380						; size = 4
_numDynamics$19 = -376					; size = 4
_objData$ = -372					; size = 4
_deltaX$20 = -368					; size = 4
_impactAngle$21 = -364					; size = 4
_deltaY$22 = -360					; size = 4
_vt$23 = -356						; size = 4
_obj$ = -352						; size = 4
_changeval$24 = -348					; size = 4
_numSlots$25 = -344					; size = 4
_onCatPosition$26 = -338				; size = 1
_setOnObject$ = -337					; size = 1
_relVel$27 = -336					; size = 4
_cdof$28 = -332						; size = 4
_message$ = -328					; size = 4
_theObject$ = -324					; size = 4
_this$ = -320						; size = 4
_pos$29 = -316						; size = 12
_maxB$30 = -304						; size = 12
_pos$31 = -292						; size = 12
_noseGear$32 = -280					; size = 12
