; Listing generated by Microsoft (R) Optimizing Compiler Version 17.00.51106.1 

	TITLE	C:\Users\Zhitao Li\Documents\Visual Studio 2012\Projects\Freefalcon\SIM\Aircraft\gndHndl.cpp
	.686P
	.XMM
	include listing.inc
	.model	flat

INCLUDELIB LIBCMT
INCLUDELIB OLDNAMES

PUBLIC	?collate@?$_Locbase@H@std@@2HB			; std::_Locbase<int>::collate
PUBLIC	?traps@_Num_base@std@@2_NB			; std::_Num_base::traps
PUBLIC	?ctype@?$_Locbase@H@std@@2HB			; std::_Locbase<int>::ctype
PUBLIC	?monetary@?$_Locbase@H@std@@2HB			; std::_Locbase<int>::monetary
PUBLIC	?round_style@_Num_base@std@@2W4float_round_style@2@B ; std::_Num_base::round_style
PUBLIC	?numeric@?$_Locbase@H@std@@2HB			; std::_Locbase<int>::numeric
PUBLIC	?digits@_Num_base@std@@2HB			; std::_Num_base::digits
PUBLIC	?time@?$_Locbase@H@std@@2HB			; std::_Locbase<int>::time
PUBLIC	?messages@?$_Locbase@H@std@@2HB			; std::_Locbase<int>::messages
PUBLIC	?digits10@_Num_base@std@@2HB			; std::_Num_base::digits10
PUBLIC	?all@?$_Locbase@H@std@@2HB			; std::_Locbase<int>::all
PUBLIC	?max_digits10@_Num_base@std@@2HB		; std::_Num_base::max_digits10
PUBLIC	?none@?$_Locbase@H@std@@2HB			; std::_Locbase<int>::none
PUBLIC	?max_exponent@_Num_base@std@@2HB		; std::_Num_base::max_exponent
PUBLIC	?max_exponent10@_Num_base@std@@2HB		; std::_Num_base::max_exponent10
PUBLIC	?min_exponent@_Num_base@std@@2HB		; std::_Num_base::min_exponent
PUBLIC	?min_exponent10@_Num_base@std@@2HB		; std::_Num_base::min_exponent10
PUBLIC	?radix@_Num_base@std@@2HB			; std::_Num_base::radix
PUBLIC	?is_bounded@_Num_int_base@std@@2_NB		; std::_Num_int_base::is_bounded
PUBLIC	?is_exact@_Num_int_base@std@@2_NB		; std::_Num_int_base::is_exact
PUBLIC	?is_integer@_Num_int_base@std@@2_NB		; std::_Num_int_base::is_integer
PUBLIC	?is_modulo@_Num_int_base@std@@2_NB		; std::_Num_int_base::is_modulo
PUBLIC	?is_specialized@_Num_int_base@std@@2_NB		; std::_Num_int_base::is_specialized
PUBLIC	?radix@_Num_int_base@std@@2HB			; std::_Num_int_base::radix
PUBLIC	?has_denorm@_Num_float_base@std@@2W4float_denorm_style@2@B ; std::_Num_float_base::has_denorm
PUBLIC	?has_denorm_loss@_Num_float_base@std@@2_NB	; std::_Num_float_base::has_denorm_loss
PUBLIC	?SIMDIRTYDATA_INTERVAL@FalconEntity@@2KB	; FalconEntity::SIMDIRTYDATA_INTERVAL
PUBLIC	?CMPDIRTYDATA_INTERVAL@FalconEntity@@2KB	; FalconEntity::CMPDIRTYDATA_INTERVAL
PUBLIC	?has_infinity@_Num_float_base@std@@2_NB		; std::_Num_float_base::has_infinity
PUBLIC	?has_quiet_NaN@_Num_float_base@std@@2_NB	; std::_Num_float_base::has_quiet_NaN
PUBLIC	?has_signaling_NaN@_Num_float_base@std@@2_NB	; std::_Num_float_base::has_signaling_NaN
PUBLIC	?is_bounded@_Num_float_base@std@@2_NB		; std::_Num_float_base::is_bounded
PUBLIC	?is_exact@_Num_float_base@std@@2_NB		; std::_Num_float_base::is_exact
PUBLIC	?is_iec559@_Num_float_base@std@@2_NB		; std::_Num_float_base::is_iec559
PUBLIC	?is_integer@_Num_float_base@std@@2_NB		; std::_Num_float_base::is_integer
PUBLIC	?is_modulo@_Num_float_base@std@@2_NB		; std::_Num_float_base::is_modulo
PUBLIC	?is_signed@_Num_float_base@std@@2_NB		; std::_Num_float_base::is_signed
PUBLIC	?is_specialized@_Num_float_base@std@@2_NB	; std::_Num_float_base::is_specialized
PUBLIC	?tinyness_before@_Num_float_base@std@@2_NB	; std::_Num_float_base::tinyness_before
PUBLIC	?traps@_Num_float_base@std@@2_NB		; std::_Num_float_base::traps
PUBLIC	?round_style@_Num_float_base@std@@2W4float_round_style@2@B ; std::_Num_float_base::round_style
PUBLIC	?table_size@?$ctype@D@std@@2IB			; std::ctype<char>::table_size
PUBLIC	?radix@_Num_float_base@std@@2HB			; std::_Num_float_base::radix
PUBLIC	?is_signed@?$numeric_limits@D@std@@2_NB		; std::numeric_limits<char>::is_signed
PUBLIC	?digits@?$numeric_limits@D@std@@2HB		; std::numeric_limits<char>::digits
PUBLIC	?digits10@?$numeric_limits@D@std@@2HB		; std::numeric_limits<char>::digits10
PUBLIC	?is_signed@?$numeric_limits@_W@std@@2_NB	; std::numeric_limits<wchar_t>::is_signed
PUBLIC	?digits@?$numeric_limits@_W@std@@2HB		; std::numeric_limits<wchar_t>::digits
PUBLIC	?digits10@?$numeric_limits@_W@std@@2HB		; std::numeric_limits<wchar_t>::digits10
PUBLIC	?is_modulo@?$numeric_limits@_N@std@@2_NB	; std::numeric_limits<bool>::is_modulo
PUBLIC	?is_signed@?$numeric_limits@_N@std@@2_NB	; std::numeric_limits<bool>::is_signed
PUBLIC	?digits@?$numeric_limits@_N@std@@2HB		; std::numeric_limits<bool>::digits
PUBLIC	?digits10@?$numeric_limits@_N@std@@2HB		; std::numeric_limits<bool>::digits10
PUBLIC	?is_signed@?$numeric_limits@C@std@@2_NB		; std::numeric_limits<signed char>::is_signed
PUBLIC	?digits@?$numeric_limits@C@std@@2HB		; std::numeric_limits<signed char>::digits
PUBLIC	?digits10@?$numeric_limits@C@std@@2HB		; std::numeric_limits<signed char>::digits10
PUBLIC	?is_signed@?$numeric_limits@E@std@@2_NB		; std::numeric_limits<unsigned char>::is_signed
PUBLIC	?value@?$integral_constant@_N$0A@@std@@2_NB	; std::integral_constant<bool,0>::value
PUBLIC	?digits@?$numeric_limits@E@std@@2HB		; std::numeric_limits<unsigned char>::digits
PUBLIC	?digits10@?$numeric_limits@E@std@@2HB		; std::numeric_limits<unsigned char>::digits10
PUBLIC	?value@?$integral_constant@_N$00@std@@2_NB	; std::integral_constant<bool,1>::value
PUBLIC	?is_signed@?$numeric_limits@F@std@@2_NB		; std::numeric_limits<short>::is_signed
PUBLIC	?digits@?$numeric_limits@F@std@@2HB		; std::numeric_limits<short>::digits
PUBLIC	?digits10@?$numeric_limits@F@std@@2HB		; std::numeric_limits<short>::digits10
PUBLIC	?is_signed@?$numeric_limits@G@std@@2_NB		; std::numeric_limits<unsigned short>::is_signed
PUBLIC	?digits@?$numeric_limits@G@std@@2HB		; std::numeric_limits<unsigned short>::digits
PUBLIC	?digits10@?$numeric_limits@G@std@@2HB		; std::numeric_limits<unsigned short>::digits10
PUBLIC	?is_signed@?$numeric_limits@H@std@@2_NB		; std::numeric_limits<int>::is_signed
PUBLIC	?value@?$_Sizeof@HU_Nil@std@@U12@U12@U12@U12@U12@U12@@std@@2IB ; std::_Sizeof<int,std::_Nil,std::_Nil,std::_Nil,std::_Nil,std::_Nil,std::_Nil,std::_Nil>::value
PUBLIC	?digits@?$numeric_limits@H@std@@2HB		; std::numeric_limits<int>::digits
PUBLIC	?digits10@?$numeric_limits@H@std@@2HB		; std::numeric_limits<int>::digits10
PUBLIC	?is_signed@?$numeric_limits@I@std@@2_NB		; std::numeric_limits<unsigned int>::is_signed
PUBLIC	?digits@?$numeric_limits@I@std@@2HB		; std::numeric_limits<unsigned int>::digits
PUBLIC	?digits10@?$numeric_limits@I@std@@2HB		; std::numeric_limits<unsigned int>::digits10
PUBLIC	?is_signed@?$numeric_limits@J@std@@2_NB		; std::numeric_limits<long>::is_signed
PUBLIC	?digits@?$numeric_limits@J@std@@2HB		; std::numeric_limits<long>::digits
PUBLIC	?digits10@?$numeric_limits@J@std@@2HB		; std::numeric_limits<long>::digits10
PUBLIC	?is_signed@?$numeric_limits@K@std@@2_NB		; std::numeric_limits<unsigned long>::is_signed
PUBLIC	?digits@?$numeric_limits@K@std@@2HB		; std::numeric_limits<unsigned long>::digits
PUBLIC	?digits10@?$numeric_limits@K@std@@2HB		; std::numeric_limits<unsigned long>::digits10
PUBLIC	?is_signed@?$numeric_limits@_J@std@@2_NB	; std::numeric_limits<__int64>::is_signed
PUBLIC	?digits@?$numeric_limits@_J@std@@2HB		; std::numeric_limits<__int64>::digits
PUBLIC	?digits10@?$numeric_limits@_J@std@@2HB		; std::numeric_limits<__int64>::digits10
PUBLIC	?skipws@?$_Iosb@H@std@@2W4_Fmtflags@12@B	; std::_Iosb<int>::skipws
PUBLIC	?unitbuf@?$_Iosb@H@std@@2W4_Fmtflags@12@B	; std::_Iosb<int>::unitbuf
PUBLIC	?uppercase@?$_Iosb@H@std@@2W4_Fmtflags@12@B	; std::_Iosb<int>::uppercase
PUBLIC	?is_signed@?$numeric_limits@_K@std@@2_NB	; std::numeric_limits<unsigned __int64>::is_signed
PUBLIC	?showbase@?$_Iosb@H@std@@2W4_Fmtflags@12@B	; std::_Iosb<int>::showbase
PUBLIC	?showpoint@?$_Iosb@H@std@@2W4_Fmtflags@12@B	; std::_Iosb<int>::showpoint
PUBLIC	?digits@?$numeric_limits@_K@std@@2HB		; std::numeric_limits<unsigned __int64>::digits
PUBLIC	?showpos@?$_Iosb@H@std@@2W4_Fmtflags@12@B	; std::_Iosb<int>::showpos
PUBLIC	?digits10@?$numeric_limits@_K@std@@2HB		; std::numeric_limits<unsigned __int64>::digits10
PUBLIC	?left@?$_Iosb@H@std@@2W4_Fmtflags@12@B		; std::_Iosb<int>::left
PUBLIC	?right@?$_Iosb@H@std@@2W4_Fmtflags@12@B		; std::_Iosb<int>::right
PUBLIC	?internal@?$_Iosb@H@std@@2W4_Fmtflags@12@B	; std::_Iosb<int>::internal
PUBLIC	?dec@?$_Iosb@H@std@@2W4_Fmtflags@12@B		; std::_Iosb<int>::dec
PUBLIC	?oct@?$_Iosb@H@std@@2W4_Fmtflags@12@B		; std::_Iosb<int>::oct
PUBLIC	?hex@?$_Iosb@H@std@@2W4_Fmtflags@12@B		; std::_Iosb<int>::hex
PUBLIC	?scientific@?$_Iosb@H@std@@2W4_Fmtflags@12@B	; std::_Iosb<int>::scientific
PUBLIC	?fixed@?$_Iosb@H@std@@2W4_Fmtflags@12@B		; std::_Iosb<int>::fixed
PUBLIC	?hexfloat@?$_Iosb@H@std@@2W4_Fmtflags@12@B	; std::_Iosb<int>::hexfloat
PUBLIC	?boolalpha@?$_Iosb@H@std@@2W4_Fmtflags@12@B	; std::_Iosb<int>::boolalpha
PUBLIC	?digits@?$numeric_limits@M@std@@2HB		; std::numeric_limits<float>::digits
PUBLIC	?_Stdio@?$_Iosb@H@std@@2W4_Fmtflags@12@B	; std::_Iosb<int>::_Stdio
PUBLIC	?digits10@?$numeric_limits@M@std@@2HB		; std::numeric_limits<float>::digits10
PUBLIC	?adjustfield@?$_Iosb@H@std@@2W4_Fmtflags@12@B	; std::_Iosb<int>::adjustfield
PUBLIC	?max_digits10@?$numeric_limits@M@std@@2HB	; std::numeric_limits<float>::max_digits10
PUBLIC	?basefield@?$_Iosb@H@std@@2W4_Fmtflags@12@B	; std::_Iosb<int>::basefield
PUBLIC	?floatfield@?$_Iosb@H@std@@2W4_Fmtflags@12@B	; std::_Iosb<int>::floatfield
PUBLIC	?max_exponent@?$numeric_limits@M@std@@2HB	; std::numeric_limits<float>::max_exponent
PUBLIC	?max_exponent10@?$numeric_limits@M@std@@2HB	; std::numeric_limits<float>::max_exponent10
PUBLIC	?goodbit@?$_Iosb@H@std@@2W4_Iostate@12@B	; std::_Iosb<int>::goodbit
PUBLIC	?min_exponent@?$numeric_limits@M@std@@2HB	; std::numeric_limits<float>::min_exponent
PUBLIC	?eofbit@?$_Iosb@H@std@@2W4_Iostate@12@B		; std::_Iosb<int>::eofbit
PUBLIC	?failbit@?$_Iosb@H@std@@2W4_Iostate@12@B	; std::_Iosb<int>::failbit
PUBLIC	?min_exponent10@?$numeric_limits@M@std@@2HB	; std::numeric_limits<float>::min_exponent10
PUBLIC	?badbit@?$_Iosb@H@std@@2W4_Iostate@12@B		; std::_Iosb<int>::badbit
PUBLIC	?_Hardfail@?$_Iosb@H@std@@2W4_Iostate@12@B	; std::_Iosb<int>::_Hardfail
PUBLIC	?in@?$_Iosb@H@std@@2W4_Openmode@12@B		; std::_Iosb<int>::in
PUBLIC	?out@?$_Iosb@H@std@@2W4_Openmode@12@B		; std::_Iosb<int>::out
PUBLIC	?ate@?$_Iosb@H@std@@2W4_Openmode@12@B		; std::_Iosb<int>::ate
PUBLIC	?app@?$_Iosb@H@std@@2W4_Openmode@12@B		; std::_Iosb<int>::app
PUBLIC	?trunc@?$_Iosb@H@std@@2W4_Openmode@12@B		; std::_Iosb<int>::trunc
PUBLIC	?_Nocreate@?$_Iosb@H@std@@2W4_Openmode@12@B	; std::_Iosb<int>::_Nocreate
PUBLIC	?_Noreplace@?$_Iosb@H@std@@2W4_Openmode@12@B	; std::_Iosb<int>::_Noreplace
PUBLIC	?value@?$integral_constant@I$0A@@std@@2IB	; std::integral_constant<unsigned int,0>::value
PUBLIC	?digits@?$numeric_limits@N@std@@2HB		; std::numeric_limits<double>::digits
PUBLIC	?binary@?$_Iosb@H@std@@2W4_Openmode@12@B	; std::_Iosb<int>::binary
PUBLIC	?digits10@?$numeric_limits@N@std@@2HB		; std::numeric_limits<double>::digits10
PUBLIC	?max_digits10@?$numeric_limits@N@std@@2HB	; std::numeric_limits<double>::max_digits10
PUBLIC	?beg@?$_Iosb@H@std@@2W4_Seekdir@12@B		; std::_Iosb<int>::beg
PUBLIC	?cur@?$_Iosb@H@std@@2W4_Seekdir@12@B		; std::_Iosb<int>::cur
PUBLIC	?max_exponent@?$numeric_limits@N@std@@2HB	; std::numeric_limits<double>::max_exponent
PUBLIC	?end@?$_Iosb@H@std@@2W4_Seekdir@12@B		; std::_Iosb<int>::end
PUBLIC	?max_exponent10@?$numeric_limits@N@std@@2HB	; std::numeric_limits<double>::max_exponent10
PUBLIC	?min_exponent@?$numeric_limits@N@std@@2HB	; std::numeric_limits<double>::min_exponent
PUBLIC	?min_exponent10@?$numeric_limits@N@std@@2HB	; std::numeric_limits<double>::min_exponent10
PUBLIC	?_Stream_err@failure@ios_base@std@@0W4io_errc@43@B ; std::ios_base::failure::_Stream_err
PUBLIC	?digits@?$numeric_limits@O@std@@2HB		; std::numeric_limits<long double>::digits
PUBLIC	?digits10@?$numeric_limits@O@std@@2HB		; std::numeric_limits<long double>::digits10
PUBLIC	?max_digits10@?$numeric_limits@O@std@@2HB	; std::numeric_limits<long double>::max_digits10
PUBLIC	?max_exponent@?$numeric_limits@O@std@@2HB	; std::numeric_limits<long double>::max_exponent
PUBLIC	?max_exponent10@?$numeric_limits@O@std@@2HB	; std::numeric_limits<long double>::max_exponent10
PUBLIC	?min_exponent@?$numeric_limits@O@std@@2HB	; std::numeric_limits<long double>::min_exponent
PUBLIC	?min_exponent10@?$numeric_limits@O@std@@2HB	; std::numeric_limits<long double>::min_exponent10
PUBLIC	?value@?$_Sizeof@U_Nil@std@@U12@U12@U12@U12@U12@U12@U12@@std@@2IB ; std::_Sizeof<std::_Nil,std::_Nil,std::_Nil,std::_Nil,std::_Nil,std::_Nil,std::_Nil,std::_Nil>::value
PUBLIC	?has_denorm@_Num_base@std@@2W4float_denorm_style@2@B ; std::_Num_base::has_denorm
PUBLIC	?has_denorm_loss@_Num_base@std@@2_NB		; std::_Num_base::has_denorm_loss
PUBLIC	?has_infinity@_Num_base@std@@2_NB		; std::_Num_base::has_infinity
PUBLIC	?has_quiet_NaN@_Num_base@std@@2_NB		; std::_Num_base::has_quiet_NaN
PUBLIC	?has_signaling_NaN@_Num_base@std@@2_NB		; std::_Num_base::has_signaling_NaN
PUBLIC	?is_bounded@_Num_base@std@@2_NB			; std::_Num_base::is_bounded
PUBLIC	?is_exact@_Num_base@std@@2_NB			; std::_Num_base::is_exact
PUBLIC	?is_iec559@_Num_base@std@@2_NB			; std::_Num_base::is_iec559
PUBLIC	?is_integer@_Num_base@std@@2_NB			; std::_Num_base::is_integer
PUBLIC	?is_modulo@_Num_base@std@@2_NB			; std::_Num_base::is_modulo
PUBLIC	?is_signed@_Num_base@std@@2_NB			; std::_Num_base::is_signed
PUBLIC	?is_specialized@_Num_base@std@@2_NB		; std::_Num_base::is_specialized
PUBLIC	?tinyness_before@_Num_base@std@@2_NB		; std::_Num_base::tinyness_before
;	COMDAT ?tinyness_before@_Num_base@std@@2_NB
CONST	SEGMENT
?tinyness_before@_Num_base@std@@2_NB DB 00H		; std::_Num_base::tinyness_before
CONST	ENDS
;	COMDAT ?is_specialized@_Num_base@std@@2_NB
CONST	SEGMENT
?is_specialized@_Num_base@std@@2_NB DB 00H		; std::_Num_base::is_specialized
CONST	ENDS
;	COMDAT ?is_signed@_Num_base@std@@2_NB
CONST	SEGMENT
?is_signed@_Num_base@std@@2_NB DB 00H			; std::_Num_base::is_signed
CONST	ENDS
;	COMDAT ?is_modulo@_Num_base@std@@2_NB
CONST	SEGMENT
?is_modulo@_Num_base@std@@2_NB DB 00H			; std::_Num_base::is_modulo
CONST	ENDS
;	COMDAT ?is_integer@_Num_base@std@@2_NB
CONST	SEGMENT
?is_integer@_Num_base@std@@2_NB DB 00H			; std::_Num_base::is_integer
CONST	ENDS
;	COMDAT ?is_iec559@_Num_base@std@@2_NB
CONST	SEGMENT
?is_iec559@_Num_base@std@@2_NB DB 00H			; std::_Num_base::is_iec559
CONST	ENDS
;	COMDAT ?is_exact@_Num_base@std@@2_NB
CONST	SEGMENT
?is_exact@_Num_base@std@@2_NB DB 00H			; std::_Num_base::is_exact
CONST	ENDS
;	COMDAT ?is_bounded@_Num_base@std@@2_NB
CONST	SEGMENT
?is_bounded@_Num_base@std@@2_NB DB 00H			; std::_Num_base::is_bounded
CONST	ENDS
;	COMDAT ?has_signaling_NaN@_Num_base@std@@2_NB
CONST	SEGMENT
?has_signaling_NaN@_Num_base@std@@2_NB DB 00H		; std::_Num_base::has_signaling_NaN
CONST	ENDS
;	COMDAT ?has_quiet_NaN@_Num_base@std@@2_NB
CONST	SEGMENT
?has_quiet_NaN@_Num_base@std@@2_NB DB 00H		; std::_Num_base::has_quiet_NaN
CONST	ENDS
;	COMDAT ?has_infinity@_Num_base@std@@2_NB
CONST	SEGMENT
?has_infinity@_Num_base@std@@2_NB DB 00H		; std::_Num_base::has_infinity
CONST	ENDS
;	COMDAT ?has_denorm_loss@_Num_base@std@@2_NB
CONST	SEGMENT
?has_denorm_loss@_Num_base@std@@2_NB DB 00H		; std::_Num_base::has_denorm_loss
CONST	ENDS
;	COMDAT ?has_denorm@_Num_base@std@@2W4float_denorm_style@2@B
CONST	SEGMENT
?has_denorm@_Num_base@std@@2W4float_denorm_style@2@B DD 00H ; std::_Num_base::has_denorm
CONST	ENDS
;	COMDAT ?value@?$_Sizeof@U_Nil@std@@U12@U12@U12@U12@U12@U12@U12@@std@@2IB
CONST	SEGMENT
?value@?$_Sizeof@U_Nil@std@@U12@U12@U12@U12@U12@U12@U12@@std@@2IB DD 00H ; std::_Sizeof<std::_Nil,std::_Nil,std::_Nil,std::_Nil,std::_Nil,std::_Nil,std::_Nil,std::_Nil>::value
CONST	ENDS
;	COMDAT ?min_exponent10@?$numeric_limits@O@std@@2HB
CONST	SEGMENT
?min_exponent10@?$numeric_limits@O@std@@2HB DD 0fffffecdH ; std::numeric_limits<long double>::min_exponent10
CONST	ENDS
;	COMDAT ?min_exponent@?$numeric_limits@O@std@@2HB
CONST	SEGMENT
?min_exponent@?$numeric_limits@O@std@@2HB DD 0fffffc03H	; std::numeric_limits<long double>::min_exponent
CONST	ENDS
;	COMDAT ?max_exponent10@?$numeric_limits@O@std@@2HB
CONST	SEGMENT
?max_exponent10@?$numeric_limits@O@std@@2HB DD 0134H	; std::numeric_limits<long double>::max_exponent10
CONST	ENDS
;	COMDAT ?max_exponent@?$numeric_limits@O@std@@2HB
CONST	SEGMENT
?max_exponent@?$numeric_limits@O@std@@2HB DD 0400H	; std::numeric_limits<long double>::max_exponent
CONST	ENDS
;	COMDAT ?max_digits10@?$numeric_limits@O@std@@2HB
CONST	SEGMENT
?max_digits10@?$numeric_limits@O@std@@2HB DD 011H	; std::numeric_limits<long double>::max_digits10
CONST	ENDS
;	COMDAT ?digits10@?$numeric_limits@O@std@@2HB
CONST	SEGMENT
?digits10@?$numeric_limits@O@std@@2HB DD 0fH		; std::numeric_limits<long double>::digits10
CONST	ENDS
;	COMDAT ?digits@?$numeric_limits@O@std@@2HB
CONST	SEGMENT
?digits@?$numeric_limits@O@std@@2HB DD 035H		; std::numeric_limits<long double>::digits
CONST	ENDS
;	COMDAT ?_Stream_err@failure@ios_base@std@@0W4io_errc@43@B
CONST	SEGMENT
?_Stream_err@failure@ios_base@std@@0W4io_errc@43@B DD 01H ; std::ios_base::failure::_Stream_err
CONST	ENDS
;	COMDAT ?min_exponent10@?$numeric_limits@N@std@@2HB
CONST	SEGMENT
?min_exponent10@?$numeric_limits@N@std@@2HB DD 0fffffecdH ; std::numeric_limits<double>::min_exponent10
CONST	ENDS
;	COMDAT ?min_exponent@?$numeric_limits@N@std@@2HB
CONST	SEGMENT
?min_exponent@?$numeric_limits@N@std@@2HB DD 0fffffc03H	; std::numeric_limits<double>::min_exponent
CONST	ENDS
;	COMDAT ?max_exponent10@?$numeric_limits@N@std@@2HB
CONST	SEGMENT
?max_exponent10@?$numeric_limits@N@std@@2HB DD 0134H	; std::numeric_limits<double>::max_exponent10
CONST	ENDS
;	COMDAT ?end@?$_Iosb@H@std@@2W4_Seekdir@12@B
CONST	SEGMENT
?end@?$_Iosb@H@std@@2W4_Seekdir@12@B DD 02H		; std::_Iosb<int>::end
CONST	ENDS
;	COMDAT ?max_exponent@?$numeric_limits@N@std@@2HB
CONST	SEGMENT
?max_exponent@?$numeric_limits@N@std@@2HB DD 0400H	; std::numeric_limits<double>::max_exponent
CONST	ENDS
;	COMDAT ?cur@?$_Iosb@H@std@@2W4_Seekdir@12@B
CONST	SEGMENT
?cur@?$_Iosb@H@std@@2W4_Seekdir@12@B DD 01H		; std::_Iosb<int>::cur
CONST	ENDS
;	COMDAT ?beg@?$_Iosb@H@std@@2W4_Seekdir@12@B
CONST	SEGMENT
?beg@?$_Iosb@H@std@@2W4_Seekdir@12@B DD 00H		; std::_Iosb<int>::beg
CONST	ENDS
;	COMDAT ?max_digits10@?$numeric_limits@N@std@@2HB
CONST	SEGMENT
?max_digits10@?$numeric_limits@N@std@@2HB DD 011H	; std::numeric_limits<double>::max_digits10
CONST	ENDS
;	COMDAT ?digits10@?$numeric_limits@N@std@@2HB
CONST	SEGMENT
?digits10@?$numeric_limits@N@std@@2HB DD 0fH		; std::numeric_limits<double>::digits10
CONST	ENDS
;	COMDAT ?binary@?$_Iosb@H@std@@2W4_Openmode@12@B
CONST	SEGMENT
?binary@?$_Iosb@H@std@@2W4_Openmode@12@B DD 020H	; std::_Iosb<int>::binary
CONST	ENDS
;	COMDAT ?digits@?$numeric_limits@N@std@@2HB
CONST	SEGMENT
?digits@?$numeric_limits@N@std@@2HB DD 035H		; std::numeric_limits<double>::digits
CONST	ENDS
;	COMDAT ?value@?$integral_constant@I$0A@@std@@2IB
CONST	SEGMENT
?value@?$integral_constant@I$0A@@std@@2IB DD 00H	; std::integral_constant<unsigned int,0>::value
CONST	ENDS
;	COMDAT ?_Noreplace@?$_Iosb@H@std@@2W4_Openmode@12@B
CONST	SEGMENT
?_Noreplace@?$_Iosb@H@std@@2W4_Openmode@12@B DD 080H	; std::_Iosb<int>::_Noreplace
CONST	ENDS
;	COMDAT ?_Nocreate@?$_Iosb@H@std@@2W4_Openmode@12@B
CONST	SEGMENT
?_Nocreate@?$_Iosb@H@std@@2W4_Openmode@12@B DD 040H	; std::_Iosb<int>::_Nocreate
CONST	ENDS
;	COMDAT ?trunc@?$_Iosb@H@std@@2W4_Openmode@12@B
CONST	SEGMENT
?trunc@?$_Iosb@H@std@@2W4_Openmode@12@B DD 010H		; std::_Iosb<int>::trunc
CONST	ENDS
;	COMDAT ?app@?$_Iosb@H@std@@2W4_Openmode@12@B
CONST	SEGMENT
?app@?$_Iosb@H@std@@2W4_Openmode@12@B DD 08H		; std::_Iosb<int>::app
CONST	ENDS
;	COMDAT ?ate@?$_Iosb@H@std@@2W4_Openmode@12@B
CONST	SEGMENT
?ate@?$_Iosb@H@std@@2W4_Openmode@12@B DD 04H		; std::_Iosb<int>::ate
CONST	ENDS
;	COMDAT ?out@?$_Iosb@H@std@@2W4_Openmode@12@B
CONST	SEGMENT
?out@?$_Iosb@H@std@@2W4_Openmode@12@B DD 02H		; std::_Iosb<int>::out
CONST	ENDS
;	COMDAT ?in@?$_Iosb@H@std@@2W4_Openmode@12@B
CONST	SEGMENT
?in@?$_Iosb@H@std@@2W4_Openmode@12@B DD 01H		; std::_Iosb<int>::in
CONST	ENDS
;	COMDAT ?_Hardfail@?$_Iosb@H@std@@2W4_Iostate@12@B
CONST	SEGMENT
?_Hardfail@?$_Iosb@H@std@@2W4_Iostate@12@B DD 010H	; std::_Iosb<int>::_Hardfail
CONST	ENDS
;	COMDAT ?badbit@?$_Iosb@H@std@@2W4_Iostate@12@B
CONST	SEGMENT
?badbit@?$_Iosb@H@std@@2W4_Iostate@12@B DD 04H		; std::_Iosb<int>::badbit
CONST	ENDS
;	COMDAT ?min_exponent10@?$numeric_limits@M@std@@2HB
CONST	SEGMENT
?min_exponent10@?$numeric_limits@M@std@@2HB DD 0ffffffdbH ; std::numeric_limits<float>::min_exponent10
CONST	ENDS
;	COMDAT ?failbit@?$_Iosb@H@std@@2W4_Iostate@12@B
CONST	SEGMENT
?failbit@?$_Iosb@H@std@@2W4_Iostate@12@B DD 02H		; std::_Iosb<int>::failbit
CONST	ENDS
;	COMDAT ?eofbit@?$_Iosb@H@std@@2W4_Iostate@12@B
CONST	SEGMENT
?eofbit@?$_Iosb@H@std@@2W4_Iostate@12@B DD 01H		; std::_Iosb<int>::eofbit
CONST	ENDS
;	COMDAT ?min_exponent@?$numeric_limits@M@std@@2HB
CONST	SEGMENT
?min_exponent@?$numeric_limits@M@std@@2HB DD 0ffffff83H	; std::numeric_limits<float>::min_exponent
CONST	ENDS
;	COMDAT ?goodbit@?$_Iosb@H@std@@2W4_Iostate@12@B
CONST	SEGMENT
?goodbit@?$_Iosb@H@std@@2W4_Iostate@12@B DD 00H		; std::_Iosb<int>::goodbit
CONST	ENDS
;	COMDAT ?max_exponent10@?$numeric_limits@M@std@@2HB
CONST	SEGMENT
?max_exponent10@?$numeric_limits@M@std@@2HB DD 026H	; std::numeric_limits<float>::max_exponent10
CONST	ENDS
;	COMDAT ?max_exponent@?$numeric_limits@M@std@@2HB
CONST	SEGMENT
?max_exponent@?$numeric_limits@M@std@@2HB DD 080H	; std::numeric_limits<float>::max_exponent
CONST	ENDS
;	COMDAT ?floatfield@?$_Iosb@H@std@@2W4_Fmtflags@12@B
CONST	SEGMENT
?floatfield@?$_Iosb@H@std@@2W4_Fmtflags@12@B DD 03000H	; std::_Iosb<int>::floatfield
CONST	ENDS
;	COMDAT ?basefield@?$_Iosb@H@std@@2W4_Fmtflags@12@B
CONST	SEGMENT
?basefield@?$_Iosb@H@std@@2W4_Fmtflags@12@B DD 0e00H	; std::_Iosb<int>::basefield
CONST	ENDS
;	COMDAT ?max_digits10@?$numeric_limits@M@std@@2HB
CONST	SEGMENT
?max_digits10@?$numeric_limits@M@std@@2HB DD 09H	; std::numeric_limits<float>::max_digits10
CONST	ENDS
;	COMDAT ?adjustfield@?$_Iosb@H@std@@2W4_Fmtflags@12@B
CONST	SEGMENT
?adjustfield@?$_Iosb@H@std@@2W4_Fmtflags@12@B DD 01c0H	; std::_Iosb<int>::adjustfield
CONST	ENDS
;	COMDAT ?digits10@?$numeric_limits@M@std@@2HB
CONST	SEGMENT
?digits10@?$numeric_limits@M@std@@2HB DD 06H		; std::numeric_limits<float>::digits10
CONST	ENDS
;	COMDAT ?_Stdio@?$_Iosb@H@std@@2W4_Fmtflags@12@B
CONST	SEGMENT
?_Stdio@?$_Iosb@H@std@@2W4_Fmtflags@12@B DD 08000H	; std::_Iosb<int>::_Stdio
CONST	ENDS
;	COMDAT ?digits@?$numeric_limits@M@std@@2HB
CONST	SEGMENT
?digits@?$numeric_limits@M@std@@2HB DD 018H		; std::numeric_limits<float>::digits
CONST	ENDS
;	COMDAT ?boolalpha@?$_Iosb@H@std@@2W4_Fmtflags@12@B
CONST	SEGMENT
?boolalpha@?$_Iosb@H@std@@2W4_Fmtflags@12@B DD 04000H	; std::_Iosb<int>::boolalpha
CONST	ENDS
;	COMDAT ?hexfloat@?$_Iosb@H@std@@2W4_Fmtflags@12@B
CONST	SEGMENT
?hexfloat@?$_Iosb@H@std@@2W4_Fmtflags@12@B DD 03000H	; std::_Iosb<int>::hexfloat
CONST	ENDS
;	COMDAT ?fixed@?$_Iosb@H@std@@2W4_Fmtflags@12@B
CONST	SEGMENT
?fixed@?$_Iosb@H@std@@2W4_Fmtflags@12@B DD 02000H	; std::_Iosb<int>::fixed
CONST	ENDS
;	COMDAT ?scientific@?$_Iosb@H@std@@2W4_Fmtflags@12@B
CONST	SEGMENT
?scientific@?$_Iosb@H@std@@2W4_Fmtflags@12@B DD 01000H	; std::_Iosb<int>::scientific
CONST	ENDS
;	COMDAT ?hex@?$_Iosb@H@std@@2W4_Fmtflags@12@B
CONST	SEGMENT
?hex@?$_Iosb@H@std@@2W4_Fmtflags@12@B DD 0800H		; std::_Iosb<int>::hex
CONST	ENDS
;	COMDAT ?oct@?$_Iosb@H@std@@2W4_Fmtflags@12@B
CONST	SEGMENT
?oct@?$_Iosb@H@std@@2W4_Fmtflags@12@B DD 0400H		; std::_Iosb<int>::oct
CONST	ENDS
;	COMDAT ?dec@?$_Iosb@H@std@@2W4_Fmtflags@12@B
CONST	SEGMENT
?dec@?$_Iosb@H@std@@2W4_Fmtflags@12@B DD 0200H		; std::_Iosb<int>::dec
CONST	ENDS
;	COMDAT ?internal@?$_Iosb@H@std@@2W4_Fmtflags@12@B
CONST	SEGMENT
?internal@?$_Iosb@H@std@@2W4_Fmtflags@12@B DD 0100H	; std::_Iosb<int>::internal
CONST	ENDS
;	COMDAT ?right@?$_Iosb@H@std@@2W4_Fmtflags@12@B
CONST	SEGMENT
?right@?$_Iosb@H@std@@2W4_Fmtflags@12@B DD 080H		; std::_Iosb<int>::right
CONST	ENDS
;	COMDAT ?left@?$_Iosb@H@std@@2W4_Fmtflags@12@B
CONST	SEGMENT
?left@?$_Iosb@H@std@@2W4_Fmtflags@12@B DD 040H		; std::_Iosb<int>::left
CONST	ENDS
;	COMDAT ?digits10@?$numeric_limits@_K@std@@2HB
CONST	SEGMENT
?digits10@?$numeric_limits@_K@std@@2HB DD 013H		; std::numeric_limits<unsigned __int64>::digits10
CONST	ENDS
;	COMDAT ?showpos@?$_Iosb@H@std@@2W4_Fmtflags@12@B
CONST	SEGMENT
?showpos@?$_Iosb@H@std@@2W4_Fmtflags@12@B DD 020H	; std::_Iosb<int>::showpos
CONST	ENDS
;	COMDAT ?digits@?$numeric_limits@_K@std@@2HB
CONST	SEGMENT
?digits@?$numeric_limits@_K@std@@2HB DD 040H		; std::numeric_limits<unsigned __int64>::digits
CONST	ENDS
;	COMDAT ?showpoint@?$_Iosb@H@std@@2W4_Fmtflags@12@B
CONST	SEGMENT
?showpoint@?$_Iosb@H@std@@2W4_Fmtflags@12@B DD 010H	; std::_Iosb<int>::showpoint
CONST	ENDS
;	COMDAT ?showbase@?$_Iosb@H@std@@2W4_Fmtflags@12@B
CONST	SEGMENT
?showbase@?$_Iosb@H@std@@2W4_Fmtflags@12@B DD 08H	; std::_Iosb<int>::showbase
CONST	ENDS
;	COMDAT ?is_signed@?$numeric_limits@_K@std@@2_NB
CONST	SEGMENT
?is_signed@?$numeric_limits@_K@std@@2_NB DB 00H		; std::numeric_limits<unsigned __int64>::is_signed
CONST	ENDS
;	COMDAT ?uppercase@?$_Iosb@H@std@@2W4_Fmtflags@12@B
CONST	SEGMENT
?uppercase@?$_Iosb@H@std@@2W4_Fmtflags@12@B DD 04H	; std::_Iosb<int>::uppercase
CONST	ENDS
;	COMDAT ?unitbuf@?$_Iosb@H@std@@2W4_Fmtflags@12@B
CONST	SEGMENT
?unitbuf@?$_Iosb@H@std@@2W4_Fmtflags@12@B DD 02H	; std::_Iosb<int>::unitbuf
CONST	ENDS
;	COMDAT ?skipws@?$_Iosb@H@std@@2W4_Fmtflags@12@B
CONST	SEGMENT
?skipws@?$_Iosb@H@std@@2W4_Fmtflags@12@B DD 01H		; std::_Iosb<int>::skipws
CONST	ENDS
;	COMDAT ?digits10@?$numeric_limits@_J@std@@2HB
CONST	SEGMENT
?digits10@?$numeric_limits@_J@std@@2HB DD 012H		; std::numeric_limits<__int64>::digits10
CONST	ENDS
;	COMDAT ?digits@?$numeric_limits@_J@std@@2HB
CONST	SEGMENT
?digits@?$numeric_limits@_J@std@@2HB DD 03fH		; std::numeric_limits<__int64>::digits
CONST	ENDS
;	COMDAT ?is_signed@?$numeric_limits@_J@std@@2_NB
CONST	SEGMENT
?is_signed@?$numeric_limits@_J@std@@2_NB DB 01H		; std::numeric_limits<__int64>::is_signed
CONST	ENDS
;	COMDAT ?digits10@?$numeric_limits@K@std@@2HB
CONST	SEGMENT
?digits10@?$numeric_limits@K@std@@2HB DD 09H		; std::numeric_limits<unsigned long>::digits10
CONST	ENDS
;	COMDAT ?digits@?$numeric_limits@K@std@@2HB
CONST	SEGMENT
?digits@?$numeric_limits@K@std@@2HB DD 020H		; std::numeric_limits<unsigned long>::digits
CONST	ENDS
;	COMDAT ?is_signed@?$numeric_limits@K@std@@2_NB
CONST	SEGMENT
?is_signed@?$numeric_limits@K@std@@2_NB DB 00H		; std::numeric_limits<unsigned long>::is_signed
CONST	ENDS
;	COMDAT ?digits10@?$numeric_limits@J@std@@2HB
CONST	SEGMENT
?digits10@?$numeric_limits@J@std@@2HB DD 09H		; std::numeric_limits<long>::digits10
CONST	ENDS
;	COMDAT ?digits@?$numeric_limits@J@std@@2HB
CONST	SEGMENT
?digits@?$numeric_limits@J@std@@2HB DD 01fH		; std::numeric_limits<long>::digits
CONST	ENDS
;	COMDAT ?is_signed@?$numeric_limits@J@std@@2_NB
CONST	SEGMENT
?is_signed@?$numeric_limits@J@std@@2_NB DB 01H		; std::numeric_limits<long>::is_signed
CONST	ENDS
;	COMDAT ?digits10@?$numeric_limits@I@std@@2HB
CONST	SEGMENT
?digits10@?$numeric_limits@I@std@@2HB DD 09H		; std::numeric_limits<unsigned int>::digits10
CONST	ENDS
;	COMDAT ?digits@?$numeric_limits@I@std@@2HB
CONST	SEGMENT
?digits@?$numeric_limits@I@std@@2HB DD 020H		; std::numeric_limits<unsigned int>::digits
CONST	ENDS
;	COMDAT ?is_signed@?$numeric_limits@I@std@@2_NB
CONST	SEGMENT
?is_signed@?$numeric_limits@I@std@@2_NB DB 00H		; std::numeric_limits<unsigned int>::is_signed
CONST	ENDS
;	COMDAT ?digits10@?$numeric_limits@H@std@@2HB
CONST	SEGMENT
?digits10@?$numeric_limits@H@std@@2HB DD 09H		; std::numeric_limits<int>::digits10
CONST	ENDS
;	COMDAT ?digits@?$numeric_limits@H@std@@2HB
CONST	SEGMENT
?digits@?$numeric_limits@H@std@@2HB DD 01fH		; std::numeric_limits<int>::digits
CONST	ENDS
;	COMDAT ?value@?$_Sizeof@HU_Nil@std@@U12@U12@U12@U12@U12@U12@@std@@2IB
CONST	SEGMENT
?value@?$_Sizeof@HU_Nil@std@@U12@U12@U12@U12@U12@U12@@std@@2IB DD 01H ; std::_Sizeof<int,std::_Nil,std::_Nil,std::_Nil,std::_Nil,std::_Nil,std::_Nil,std::_Nil>::value
CONST	ENDS
;	COMDAT ?is_signed@?$numeric_limits@H@std@@2_NB
CONST	SEGMENT
?is_signed@?$numeric_limits@H@std@@2_NB DB 01H		; std::numeric_limits<int>::is_signed
CONST	ENDS
;	COMDAT ?digits10@?$numeric_limits@G@std@@2HB
CONST	SEGMENT
?digits10@?$numeric_limits@G@std@@2HB DD 04H		; std::numeric_limits<unsigned short>::digits10
CONST	ENDS
;	COMDAT ?digits@?$numeric_limits@G@std@@2HB
CONST	SEGMENT
?digits@?$numeric_limits@G@std@@2HB DD 010H		; std::numeric_limits<unsigned short>::digits
CONST	ENDS
;	COMDAT ?is_signed@?$numeric_limits@G@std@@2_NB
CONST	SEGMENT
?is_signed@?$numeric_limits@G@std@@2_NB DB 00H		; std::numeric_limits<unsigned short>::is_signed
CONST	ENDS
;	COMDAT ?digits10@?$numeric_limits@F@std@@2HB
CONST	SEGMENT
?digits10@?$numeric_limits@F@std@@2HB DD 04H		; std::numeric_limits<short>::digits10
CONST	ENDS
;	COMDAT ?digits@?$numeric_limits@F@std@@2HB
CONST	SEGMENT
?digits@?$numeric_limits@F@std@@2HB DD 0fH		; std::numeric_limits<short>::digits
CONST	ENDS
;	COMDAT ?is_signed@?$numeric_limits@F@std@@2_NB
CONST	SEGMENT
?is_signed@?$numeric_limits@F@std@@2_NB DB 01H		; std::numeric_limits<short>::is_signed
CONST	ENDS
_DATA	SEGMENT
_matrix44_ident DD 03f800000r			; 1
	DD	000000000r			; 0
	DD	000000000r			; 0
	DD	000000000r			; 0
	DD	000000000r			; 0
	DD	03f800000r			; 1
	DD	000000000r			; 0
	DD	000000000r			; 0
	DD	000000000r			; 0
	DD	000000000r			; 0
	DD	03f800000r			; 1
	DD	000000000r			; 0
	DD	000000000r			; 0
	DD	000000000r			; 0
	DD	000000000r			; 0
	DD	03f800000r			; 1
_matrix33_ident DD 03f800000r			; 1
	DD	000000000r			; 0
	DD	000000000r			; 0
	DD	000000000r			; 0
	DD	03f800000r			; 1
	DD	000000000r			; 0
	DD	000000000r			; 0
	DD	000000000r			; 0
	DD	03f800000r			; 1
_DATA	ENDS
;	COMDAT ?value@?$integral_constant@_N$00@std@@2_NB
CONST	SEGMENT
?value@?$integral_constant@_N$00@std@@2_NB DB 01H	; std::integral_constant<bool,1>::value
CONST	ENDS
;	COMDAT ?digits10@?$numeric_limits@E@std@@2HB
CONST	SEGMENT
?digits10@?$numeric_limits@E@std@@2HB DD 02H		; std::numeric_limits<unsigned char>::digits10
CONST	ENDS
;	COMDAT ?digits@?$numeric_limits@E@std@@2HB
CONST	SEGMENT
?digits@?$numeric_limits@E@std@@2HB DD 08H		; std::numeric_limits<unsigned char>::digits
CONST	ENDS
;	COMDAT ?value@?$integral_constant@_N$0A@@std@@2_NB
CONST	SEGMENT
?value@?$integral_constant@_N$0A@@std@@2_NB DB 00H	; std::integral_constant<bool,0>::value
CONST	ENDS
;	COMDAT ?is_signed@?$numeric_limits@E@std@@2_NB
CONST	SEGMENT
?is_signed@?$numeric_limits@E@std@@2_NB DB 00H		; std::numeric_limits<unsigned char>::is_signed
CONST	ENDS
;	COMDAT ?digits10@?$numeric_limits@C@std@@2HB
CONST	SEGMENT
?digits10@?$numeric_limits@C@std@@2HB DD 02H		; std::numeric_limits<signed char>::digits10
CONST	ENDS
;	COMDAT ?digits@?$numeric_limits@C@std@@2HB
CONST	SEGMENT
?digits@?$numeric_limits@C@std@@2HB DD 07H		; std::numeric_limits<signed char>::digits
CONST	ENDS
;	COMDAT ?is_signed@?$numeric_limits@C@std@@2_NB
CONST	SEGMENT
?is_signed@?$numeric_limits@C@std@@2_NB DB 01H		; std::numeric_limits<signed char>::is_signed
CONST	ENDS
CONST	SEGMENT
_L_2	DD	03f317218r			; 0.693147
CONST	ENDS
;	COMDAT ?digits10@?$numeric_limits@_N@std@@2HB
CONST	SEGMENT
?digits10@?$numeric_limits@_N@std@@2HB DD 00H		; std::numeric_limits<bool>::digits10
CONST	ENDS
;	COMDAT ?digits@?$numeric_limits@_N@std@@2HB
CONST	SEGMENT
?digits@?$numeric_limits@_N@std@@2HB DD 01H		; std::numeric_limits<bool>::digits
CONST	ENDS
;	COMDAT ?is_signed@?$numeric_limits@_N@std@@2_NB
CONST	SEGMENT
?is_signed@?$numeric_limits@_N@std@@2_NB DB 00H		; std::numeric_limits<bool>::is_signed
CONST	ENDS
;	COMDAT ?is_modulo@?$numeric_limits@_N@std@@2_NB
CONST	SEGMENT
?is_modulo@?$numeric_limits@_N@std@@2_NB DB 00H		; std::numeric_limits<bool>::is_modulo
CONST	ENDS
;	COMDAT ?digits10@?$numeric_limits@_W@std@@2HB
CONST	SEGMENT
?digits10@?$numeric_limits@_W@std@@2HB DD 04H		; std::numeric_limits<wchar_t>::digits10
CONST	ENDS
;	COMDAT ?digits@?$numeric_limits@_W@std@@2HB
CONST	SEGMENT
?digits@?$numeric_limits@_W@std@@2HB DD 010H		; std::numeric_limits<wchar_t>::digits
CONST	ENDS
;	COMDAT ?is_signed@?$numeric_limits@_W@std@@2_NB
CONST	SEGMENT
?is_signed@?$numeric_limits@_W@std@@2_NB DB 00H		; std::numeric_limits<wchar_t>::is_signed
CONST	ENDS
;	COMDAT ?digits10@?$numeric_limits@D@std@@2HB
CONST	SEGMENT
?digits10@?$numeric_limits@D@std@@2HB DD 02H		; std::numeric_limits<char>::digits10
CONST	ENDS
;	COMDAT ?digits@?$numeric_limits@D@std@@2HB
CONST	SEGMENT
?digits@?$numeric_limits@D@std@@2HB DD 07H		; std::numeric_limits<char>::digits
CONST	ENDS
;	COMDAT ?is_signed@?$numeric_limits@D@std@@2_NB
CONST	SEGMENT
?is_signed@?$numeric_limits@D@std@@2_NB DB 01H		; std::numeric_limits<char>::is_signed
CONST	ENDS
;	COMDAT ?radix@_Num_float_base@std@@2HB
CONST	SEGMENT
?radix@_Num_float_base@std@@2HB DD 02H			; std::_Num_float_base::radix
CONST	ENDS
;	COMDAT ?table_size@?$ctype@D@std@@2IB
CONST	SEGMENT
?table_size@?$ctype@D@std@@2IB DD 0100H			; std::ctype<char>::table_size
CONST	ENDS
;	COMDAT ?round_style@_Num_float_base@std@@2W4float_round_style@2@B
CONST	SEGMENT
?round_style@_Num_float_base@std@@2W4float_round_style@2@B DD 01H ; std::_Num_float_base::round_style
CONST	ENDS
;	COMDAT ?traps@_Num_float_base@std@@2_NB
CONST	SEGMENT
?traps@_Num_float_base@std@@2_NB DB 00H			; std::_Num_float_base::traps
CONST	ENDS
;	COMDAT ?tinyness_before@_Num_float_base@std@@2_NB
CONST	SEGMENT
?tinyness_before@_Num_float_base@std@@2_NB DB 01H	; std::_Num_float_base::tinyness_before
CONST	ENDS
;	COMDAT ?is_specialized@_Num_float_base@std@@2_NB
CONST	SEGMENT
?is_specialized@_Num_float_base@std@@2_NB DB 01H	; std::_Num_float_base::is_specialized
CONST	ENDS
;	COMDAT ?is_signed@_Num_float_base@std@@2_NB
CONST	SEGMENT
?is_signed@_Num_float_base@std@@2_NB DB 01H		; std::_Num_float_base::is_signed
CONST	ENDS
;	COMDAT ?is_modulo@_Num_float_base@std@@2_NB
CONST	SEGMENT
?is_modulo@_Num_float_base@std@@2_NB DB 00H		; std::_Num_float_base::is_modulo
CONST	ENDS
;	COMDAT ?is_integer@_Num_float_base@std@@2_NB
CONST	SEGMENT
?is_integer@_Num_float_base@std@@2_NB DB 00H		; std::_Num_float_base::is_integer
CONST	ENDS
;	COMDAT ?is_iec559@_Num_float_base@std@@2_NB
CONST	SEGMENT
?is_iec559@_Num_float_base@std@@2_NB DB 01H		; std::_Num_float_base::is_iec559
CONST	ENDS
;	COMDAT ?is_exact@_Num_float_base@std@@2_NB
CONST	SEGMENT
?is_exact@_Num_float_base@std@@2_NB DB 00H		; std::_Num_float_base::is_exact
CONST	ENDS
;	COMDAT ?is_bounded@_Num_float_base@std@@2_NB
CONST	SEGMENT
?is_bounded@_Num_float_base@std@@2_NB DB 01H		; std::_Num_float_base::is_bounded
CONST	ENDS
;	COMDAT ?has_signaling_NaN@_Num_float_base@std@@2_NB
CONST	SEGMENT
?has_signaling_NaN@_Num_float_base@std@@2_NB DB 01H	; std::_Num_float_base::has_signaling_NaN
CONST	ENDS
;	COMDAT ?has_quiet_NaN@_Num_float_base@std@@2_NB
CONST	SEGMENT
?has_quiet_NaN@_Num_float_base@std@@2_NB DB 01H		; std::_Num_float_base::has_quiet_NaN
CONST	ENDS
;	COMDAT ?has_infinity@_Num_float_base@std@@2_NB
CONST	SEGMENT
?has_infinity@_Num_float_base@std@@2_NB DB 01H		; std::_Num_float_base::has_infinity
CONST	ENDS
;	COMDAT ?CMPDIRTYDATA_INTERVAL@FalconEntity@@2KB
CONST	SEGMENT
?CMPDIRTYDATA_INTERVAL@FalconEntity@@2KB DD 0c8H	; FalconEntity::CMPDIRTYDATA_INTERVAL
CONST	ENDS
;	COMDAT ?SIMDIRTYDATA_INTERVAL@FalconEntity@@2KB
CONST	SEGMENT
?SIMDIRTYDATA_INTERVAL@FalconEntity@@2KB DD 0c8H	; FalconEntity::SIMDIRTYDATA_INTERVAL
CONST	ENDS
;	COMDAT ?has_denorm_loss@_Num_float_base@std@@2_NB
CONST	SEGMENT
?has_denorm_loss@_Num_float_base@std@@2_NB DB 01H	; std::_Num_float_base::has_denorm_loss
CONST	ENDS
;	COMDAT ?has_denorm@_Num_float_base@std@@2W4float_denorm_style@2@B
CONST	SEGMENT
?has_denorm@_Num_float_base@std@@2W4float_denorm_style@2@B DD 01H ; std::_Num_float_base::has_denorm
CONST	ENDS
;	COMDAT ?radix@_Num_int_base@std@@2HB
CONST	SEGMENT
?radix@_Num_int_base@std@@2HB DD 02H			; std::_Num_int_base::radix
CONST	ENDS
;	COMDAT ?is_specialized@_Num_int_base@std@@2_NB
CONST	SEGMENT
?is_specialized@_Num_int_base@std@@2_NB DB 01H		; std::_Num_int_base::is_specialized
CONST	ENDS
;	COMDAT ?is_modulo@_Num_int_base@std@@2_NB
CONST	SEGMENT
?is_modulo@_Num_int_base@std@@2_NB DB 01H		; std::_Num_int_base::is_modulo
CONST	ENDS
;	COMDAT ?is_integer@_Num_int_base@std@@2_NB
CONST	SEGMENT
?is_integer@_Num_int_base@std@@2_NB DB 01H		; std::_Num_int_base::is_integer
CONST	ENDS
;	COMDAT ?is_exact@_Num_int_base@std@@2_NB
CONST	SEGMENT
?is_exact@_Num_int_base@std@@2_NB DB 01H		; std::_Num_int_base::is_exact
CONST	ENDS
;	COMDAT ?is_bounded@_Num_int_base@std@@2_NB
CONST	SEGMENT
?is_bounded@_Num_int_base@std@@2_NB DB 01H		; std::_Num_int_base::is_bounded
CONST	ENDS
;	COMDAT ?radix@_Num_base@std@@2HB
CONST	SEGMENT
?radix@_Num_base@std@@2HB DD 00H			; std::_Num_base::radix
CONST	ENDS
;	COMDAT ?min_exponent10@_Num_base@std@@2HB
CONST	SEGMENT
?min_exponent10@_Num_base@std@@2HB DD 00H		; std::_Num_base::min_exponent10
CONST	ENDS
;	COMDAT ?min_exponent@_Num_base@std@@2HB
CONST	SEGMENT
?min_exponent@_Num_base@std@@2HB DD 00H			; std::_Num_base::min_exponent
CONST	ENDS
;	COMDAT ?max_exponent10@_Num_base@std@@2HB
CONST	SEGMENT
?max_exponent10@_Num_base@std@@2HB DD 00H		; std::_Num_base::max_exponent10
CONST	ENDS
;	COMDAT ?max_exponent@_Num_base@std@@2HB
CONST	SEGMENT
?max_exponent@_Num_base@std@@2HB DD 00H			; std::_Num_base::max_exponent
CONST	ENDS
;	COMDAT ?none@?$_Locbase@H@std@@2HB
CONST	SEGMENT
?none@?$_Locbase@H@std@@2HB DD 00H			; std::_Locbase<int>::none
CONST	ENDS
;	COMDAT ?max_digits10@_Num_base@std@@2HB
CONST	SEGMENT
?max_digits10@_Num_base@std@@2HB DD 00H			; std::_Num_base::max_digits10
CONST	ENDS
;	COMDAT ?all@?$_Locbase@H@std@@2HB
CONST	SEGMENT
?all@?$_Locbase@H@std@@2HB DD 03fH			; std::_Locbase<int>::all
CONST	ENDS
;	COMDAT ?digits10@_Num_base@std@@2HB
CONST	SEGMENT
?digits10@_Num_base@std@@2HB DD 00H			; std::_Num_base::digits10
CONST	ENDS
;	COMDAT ?messages@?$_Locbase@H@std@@2HB
CONST	SEGMENT
?messages@?$_Locbase@H@std@@2HB DD 020H			; std::_Locbase<int>::messages
CONST	ENDS
;	COMDAT ?time@?$_Locbase@H@std@@2HB
CONST	SEGMENT
?time@?$_Locbase@H@std@@2HB DD 010H			; std::_Locbase<int>::time
CONST	ENDS
;	COMDAT ?digits@_Num_base@std@@2HB
CONST	SEGMENT
?digits@_Num_base@std@@2HB DD 00H			; std::_Num_base::digits
CONST	ENDS
;	COMDAT ?numeric@?$_Locbase@H@std@@2HB
CONST	SEGMENT
?numeric@?$_Locbase@H@std@@2HB DD 08H			; std::_Locbase<int>::numeric
CONST	ENDS
;	COMDAT ?round_style@_Num_base@std@@2W4float_round_style@2@B
CONST	SEGMENT
?round_style@_Num_base@std@@2W4float_round_style@2@B DD 00H ; std::_Num_base::round_style
CONST	ENDS
;	COMDAT ?monetary@?$_Locbase@H@std@@2HB
CONST	SEGMENT
?monetary@?$_Locbase@H@std@@2HB DD 04H			; std::_Locbase<int>::monetary
CONST	ENDS
;	COMDAT ?ctype@?$_Locbase@H@std@@2HB
CONST	SEGMENT
?ctype@?$_Locbase@H@std@@2HB DD 02H			; std::_Locbase<int>::ctype
CONST	ENDS
;	COMDAT ?traps@_Num_base@std@@2_NB
CONST	SEGMENT
?traps@_Num_base@std@@2_NB DB 00H			; std::_Num_base::traps
CONST	ENDS
;	COMDAT ?collate@?$_Locbase@H@std@@2HB
CONST	SEGMENT
?collate@?$_Locbase@H@std@@2HB DD 01H			; std::_Locbase<int>::collate
CONST	ENDS
PUBLIC	_fabsf
PUBLIC	?fabs@@YAMM@Z					; fabs
PUBLIC	?SetYPR@VuEntity@@QAEXMMM@Z			; VuEntity::SetYPR
PUBLIC	?SetYPRDelta@VuEntity@@QAEXMMM@Z		; VuEntity::SetYPRDelta
PUBLIC	?Id@VuEntity@@QBE?AVVU_ID@@XZ			; VuEntity::Id
PUBLIC	?Type@VuEntity@@QBEGXZ				; VuEntity::Type
PUBLIC	?XPos@VuEntity@@QBEMXZ				; VuEntity::XPos
PUBLIC	?YPos@VuEntity@@QBEMXZ				; VuEntity::YPos
PUBLIC	?ZPos@VuEntity@@QBEMXZ				; VuEntity::ZPos
PUBLIC	?XDelta@VuEntity@@QBEMXZ			; VuEntity::XDelta
PUBLIC	?YDelta@VuEntity@@QBEMXZ			; VuEntity::YDelta
PUBLIC	?ZDelta@VuEntity@@QBEMXZ			; VuEntity::ZDelta
PUBLIC	?Yaw@VuEntity@@QBEMXZ				; VuEntity::Yaw
PUBLIC	??2@YAPAXIPAX@Z					; operator new
PUBLIC	??3@YAXPAX0@Z					; operator delete
PUBLIC	?length@?$char_traits@D@std@@SAIPBD@Z		; std::char_traits<char>::length
PUBLIC	?copy@?$char_traits@D@std@@SAPADPADPBDI@Z	; std::char_traits<char>::copy
PUBLIC	?move@?$char_traits@D@std@@SAPADPADPBDI@Z	; std::char_traits<char>::move
PUBLIC	?assign@?$char_traits@D@std@@SAXAADABD@Z	; std::char_traits<char>::assign
PUBLIC	??0?$allocator@D@std@@QAE@XZ			; std::allocator<char>::allocator<char>
PUBLIC	?deallocate@?$allocator@D@std@@QAEXPADI@Z	; std::allocator<char>::deallocate
PUBLIC	?allocate@?$allocator@D@std@@QAEPADI@Z		; std::allocator<char>::allocate
PUBLIC	?max_size@?$allocator@D@std@@QBEIXZ		; std::allocator<char>::max_size
PUBLIC	?max_size@?$allocator_traits@V?$allocator@D@std@@@std@@SAIABV?$allocator@D@2@@Z ; std::allocator_traits<std::allocator<char> >::max_size
PUBLIC	??0?$_Wrap_alloc@V?$allocator@D@std@@@std@@QAE@XZ ; std::_Wrap_alloc<std::allocator<char> >::_Wrap_alloc<std::allocator<char> >
PUBLIC	?allocate@?$_Wrap_alloc@V?$allocator@D@std@@@std@@QAEPADI@Z ; std::_Wrap_alloc<std::allocator<char> >::allocate
PUBLIC	?deallocate@?$_Wrap_alloc@V?$allocator@D@std@@@std@@QAEXPADI@Z ; std::_Wrap_alloc<std::allocator<char> >::deallocate
PUBLIC	?max_size@?$_Wrap_alloc@V?$allocator@D@std@@@std@@QBEIXZ ; std::_Wrap_alloc<std::allocator<char> >::max_size
PUBLIC	??0?$_String_val@U?$_Simple_types@D@std@@@std@@QAE@XZ ; std::_String_val<std::_Simple_types<char> >::_String_val<std::_Simple_types<char> >
PUBLIC	?_Myptr@?$_String_val@U?$_Simple_types@D@std@@@std@@QAEPADXZ ; std::_String_val<std::_Simple_types<char> >::_Myptr
PUBLIC	?_Myptr@?$_String_val@U?$_Simple_types@D@std@@@std@@QBEPBDXZ ; std::_String_val<std::_Simple_types<char> >::_Myptr
PUBLIC	??0?$_String_alloc@$0A@U?$_String_base_types@DV?$allocator@D@std@@@std@@@std@@QAE@ABV?$allocator@D@1@@Z ; std::_String_alloc<0,std::_String_base_types<char,std::allocator<char> > >::_String_alloc<0,std::_String_base_types<char,std::allocator<char> > >
PUBLIC	?_Getal@?$_String_alloc@$0A@U?$_String_base_types@DV?$allocator@D@std@@@std@@@std@@QBE?AU?$_Wrap_alloc@V?$allocator@D@std@@@2@XZ ; std::_String_alloc<0,std::_String_base_types<char,std::allocator<char> > >::_Getal
PUBLIC	??0?$basic_string@DU?$char_traits@D@std@@V?$allocator@D@2@@std@@QAE@PBD@Z ; std::basic_string<char,std::char_traits<char>,std::allocator<char> >::basic_string<char,std::char_traits<char>,std::allocator<char> >
PUBLIC	?assign@?$basic_string@DU?$char_traits@D@std@@V?$allocator@D@2@@std@@QAEAAV12@ABV12@II@Z ; std::basic_string<char,std::char_traits<char>,std::allocator<char> >::assign
PUBLIC	?assign@?$basic_string@DU?$char_traits@D@std@@V?$allocator@D@2@@std@@QAEAAV12@PBDI@Z ; std::basic_string<char,std::char_traits<char>,std::allocator<char> >::assign
PUBLIC	?assign@?$basic_string@DU?$char_traits@D@std@@V?$allocator@D@2@@std@@QAEAAV12@PBD@Z ; std::basic_string<char,std::char_traits<char>,std::allocator<char> >::assign
PUBLIC	?erase@?$basic_string@DU?$char_traits@D@std@@V?$allocator@D@2@@std@@QAEAAV12@I@Z ; std::basic_string<char,std::char_traits<char>,std::allocator<char> >::erase
PUBLIC	?erase@?$basic_string@DU?$char_traits@D@std@@V?$allocator@D@2@@std@@QAEAAV12@II@Z ; std::basic_string<char,std::char_traits<char>,std::allocator<char> >::erase
PUBLIC	?size@?$basic_string@DU?$char_traits@D@std@@V?$allocator@D@2@@std@@QBEIXZ ; std::basic_string<char,std::char_traits<char>,std::allocator<char> >::size
PUBLIC	?max_size@?$basic_string@DU?$char_traits@D@std@@V?$allocator@D@2@@std@@QBEIXZ ; std::basic_string<char,std::char_traits<char>,std::allocator<char> >::max_size
PUBLIC	?_Copy@?$basic_string@DU?$char_traits@D@std@@V?$allocator@D@2@@std@@QAEXII@Z ; std::basic_string<char,std::char_traits<char>,std::allocator<char> >::_Copy
PUBLIC	?_Eos@?$basic_string@DU?$char_traits@D@std@@V?$allocator@D@2@@std@@QAEXI@Z ; std::basic_string<char,std::char_traits<char>,std::allocator<char> >::_Eos
PUBLIC	?_Grow@?$basic_string@DU?$char_traits@D@std@@V?$allocator@D@2@@std@@QAE_NI_N@Z ; std::basic_string<char,std::char_traits<char>,std::allocator<char> >::_Grow
PUBLIC	?_Inside@?$basic_string@DU?$char_traits@D@std@@V?$allocator@D@2@@std@@QAE_NPBD@Z ; std::basic_string<char,std::char_traits<char>,std::allocator<char> >::_Inside
PUBLIC	?_Tidy@?$basic_string@DU?$char_traits@D@std@@V?$allocator@D@2@@std@@QAEX_NI@Z ; std::basic_string<char,std::char_traits<char>,std::allocator<char> >::_Tidy
PUBLIC	?_Xlen@?$basic_string@DU?$char_traits@D@std@@V?$allocator@D@2@@std@@QBEXXZ ; std::basic_string<char,std::char_traits<char>,std::allocator<char> >::_Xlen
PUBLIC	?_Xran@?$basic_string@DU?$char_traits@D@std@@V?$allocator@D@2@@std@@QBEXXZ ; std::basic_string<char,std::char_traits<char>,std::allocator<char> >::_Xran
PUBLIC	??B?$VuBin@VVuSessionEntity@@@@QBE_NXZ		; VuBin<VuSessionEntity>::operator bool
PUBLIC	?get@?$VuBin@VVuSessionEntity@@@@QBEPAVVuSessionEntity@@XZ ; VuBin<VuSessionEntity>::get
PUBLIC	?RequestOutOfBandTransmit@VuMessage@@QAEXXZ	; VuMessage::RequestOutOfBandTransmit
PUBLIC	?IsSetFalcFlag@FalconEntity@@QAEHH@Z		; FalconEntity::IsSetFalcFlag
PUBLIC	?Radius@DrawableObject@@QBEMXZ			; DrawableObject::Radius
PUBLIC	?GetPosition@DrawableObject@@QAEXPAUTpoint@@@Z	; DrawableObject::GetPosition
PUBLIC	??0id@locale@std@@QAE@I@Z			; std::locale::id::id
PUBLIC	?generic_category@std@@YAABVerror_category@1@XZ	; std::generic_category
PUBLIC	?system_category@std@@YAABVerror_category@1@XZ	; std::system_category
PUBLIC	??0error_category@std@@QAE@XZ			; std::error_category::error_category
PUBLIC	??1error_category@std@@UAE@XZ			; std::error_category::~error_category
PUBLIC	?default_error_condition@error_category@std@@UBE?AVerror_condition@2@H@Z ; std::error_category::default_error_condition
PUBLIC	?equivalent@error_category@std@@UBE_NHABVerror_condition@2@@Z ; std::error_category::equivalent
PUBLIC	?equivalent@error_category@std@@UBE_NABVerror_code@2@H@Z ; std::error_category::equivalent
PUBLIC	??8error_category@std@@QBE_NABV01@@Z		; std::error_category::operator==
PUBLIC	??_Gerror_category@std@@UAEPAXI@Z		; std::error_category::`scalar deleting destructor'
PUBLIC	?value@error_code@std@@QBEHXZ			; std::error_code::value
PUBLIC	?category@error_code@std@@QBEABVerror_category@2@XZ ; std::error_code::category
PUBLIC	??0error_condition@std@@QAE@HABVerror_category@1@@Z ; std::error_condition::error_condition
PUBLIC	?value@error_condition@std@@QBEHXZ		; std::error_condition::value
PUBLIC	?category@error_condition@std@@QBEABVerror_category@2@XZ ; std::error_condition::category
PUBLIC	??8error_condition@std@@QBE_NABV01@@Z		; std::error_condition::operator==
PUBLIC	??0_Generic_error_category@std@@QAE@XZ		; std::_Generic_error_category::_Generic_error_category
PUBLIC	?name@_Generic_error_category@std@@UBEPBDXZ	; std::_Generic_error_category::name
PUBLIC	?message@_Generic_error_category@std@@UBE?AV?$basic_string@DU?$char_traits@D@std@@V?$allocator@D@2@@2@H@Z ; std::_Generic_error_category::message
PUBLIC	??1_Generic_error_category@std@@UAE@XZ		; std::_Generic_error_category::~_Generic_error_category
PUBLIC	??_G_Generic_error_category@std@@UAEPAXI@Z	; std::_Generic_error_category::`scalar deleting destructor'
PUBLIC	??0_Iostream_error_category@std@@QAE@XZ		; std::_Iostream_error_category::_Iostream_error_category
PUBLIC	?name@_Iostream_error_category@std@@UBEPBDXZ	; std::_Iostream_error_category::name
PUBLIC	?message@_Iostream_error_category@std@@UBE?AV?$basic_string@DU?$char_traits@D@std@@V?$allocator@D@2@@2@H@Z ; std::_Iostream_error_category::message
PUBLIC	??1_Iostream_error_category@std@@UAE@XZ		; std::_Iostream_error_category::~_Iostream_error_category
PUBLIC	??_G_Iostream_error_category@std@@UAEPAXI@Z	; std::_Iostream_error_category::`scalar deleting destructor'
PUBLIC	??0_System_error_category@std@@QAE@XZ		; std::_System_error_category::_System_error_category
PUBLIC	?name@_System_error_category@std@@UBEPBDXZ	; std::_System_error_category::name
PUBLIC	?message@_System_error_category@std@@UBE?AV?$basic_string@DU?$char_traits@D@std@@V?$allocator@D@2@@2@H@Z ; std::_System_error_category::message
PUBLIC	?default_error_condition@_System_error_category@std@@UBE?AVerror_condition@2@H@Z ; std::_System_error_category::default_error_condition
PUBLIC	??1_System_error_category@std@@UAE@XZ		; std::_System_error_category::~_System_error_category
PUBLIC	??_G_System_error_category@std@@UAEPAXI@Z	; std::_System_error_category::`scalar deleting destructor'
PUBLIC	?GenerateFastRandom@@YAJXZ			; GenerateFastRandom
PUBLIC	?PRANDFloat@@YAMXZ				; PRANDFloat
PUBLIC	?get@?$VuBin@VCampBaseClass@@@@QBEPAVCampBaseClass@@XZ ; VuBin<CampBaseClass>::get
PUBLIC	?GetCampaignObject@SimBaseClass@@QAEPAVCampBaseClass@@XZ ; SimBaseClass::GetCampaignObject
PUBLIC	?SetDOF@SimMoverClass@@QAEXHM@Z			; SimMoverClass::SetDOF
PUBLIC	?LandingCheck@AircraftClass@@QAEHMMH@Z		; AircraftClass::LandingCheck
PUBLIC	?GroundFeatureCheck@AircraftClass@@QAEXM@Z	; AircraftClass::GroundFeatureCheck
PUBLIC	?OnGroundInit@AircraftClass@@QAEXPAVSimInitDataClass@@@Z ; AircraftClass::OnGroundInit
PUBLIC	?CheckPersistantCollision@AircraftClass@@QAEXXZ	; AircraftClass::CheckPersistantCollision
PUBLIC	?Fuel@AirframeClass@@QAEMXZ			; AirframeClass::Fuel
PUBLIC	?NumGear@AirframeClass@@QBEHXZ			; AirframeClass::NumGear
PUBLIC	?SetFlag@AirframeClass@@QAEXH@Z			; AirframeClass::SetFlag
PUBLIC	?ClearFlag@AirframeClass@@QAEXH@Z		; AirframeClass::ClearFlag
PUBLIC	?IsSet@AirframeClass@@QBEHH@Z			; AirframeClass::IsSet
PUBLIC	?GetGame@FalconSessionEntity@@QAEPAVFalconGameEntity@@XZ ; FalconSessionEntity::GetGame
PUBLIC	?GetComponents@CampBaseClass@@QBEPAVTailInsertList@@XZ ; CampBaseClass::GetComponents
PUBLIC	?GetOwner@CampBaseClass@@QAEEXZ			; CampBaseClass::GetOwner
PUBLIC	?IsAggregate@CampBaseClass@@QAEHXZ		; CampBaseClass::IsAggregate
PUBLIC	?GetPlayerEntity@SimulationDriver@@QBEPAVSimMoverClass@@XZ ; SimulationDriver::GetPlayerEntity
PUBLIC	?InUse@SimPersistantClass@@QAEHXZ		; SimPersistantClass::InUse
PUBLIC	?Online@UIComms@@QAEHXZ				; UIComms::Online
PUBLIC	??$construct@PADAAPAD@?$_Wrap_alloc@V?$allocator@D@std@@@std@@QAEXPAPADAAPAD@Z ; std::_Wrap_alloc<std::allocator<char> >::construct<char *,char * &>
PUBLIC	??$destroy@PAD@?$_Wrap_alloc@V?$allocator@D@std@@@std@@QAEXPAPAD@Z ; std::_Wrap_alloc<std::allocator<char> >::destroy<char *>
PUBLIC	??$addressof@D@std@@YAPADAAD@Z			; std::addressof<char>
PUBLIC	??$_Allocate@D@std@@YAPADIPAD@Z			; std::_Allocate<char>
PUBLIC	??$forward@AAPAD@std@@YAAAPADAAPAD@Z		; std::forward<char * &>
PUBLIC	??$construct@PADAAPAD@?$allocator_traits@V?$allocator@D@std@@@std@@SAXAAV?$allocator@D@1@PAPADAAPAD@Z ; std::allocator_traits<std::allocator<char> >::construct<char *,char * &>
PUBLIC	??$destroy@PAD@?$allocator_traits@V?$allocator@D@std@@@std@@SAXAAV?$allocator@D@1@PAPAD@Z ; std::allocator_traits<std::allocator<char> >::destroy<char *>
PUBLIC	??$construct@PADAAPAD@?$allocator@D@std@@QAEXPAPADAAPAD@Z ; std::allocator<char>::construct<char *,char * &>
PUBLIC	??$destroy@PAD@?$allocator@D@std@@QAEXPAPAD@Z	; std::allocator<char>::destroy<char *>
PUBLIC	??_7error_category@std@@6B@			; std::error_category::`vftable'
PUBLIC	??_7_Generic_error_category@std@@6B@		; std::_Generic_error_category::`vftable'
PUBLIC	??_C@_07DCLBNMLN@generic?$AA@			; `string'
PUBLIC	??_C@_0O@BFJCFAAK@unknown?5error?$AA@		; `string'
PUBLIC	??_7_Iostream_error_category@std@@6B@		; std::_Iostream_error_category::`vftable'
PUBLIC	??_C@_08LLGCOLLL@iostream?$AA@			; `string'
PUBLIC	??_C@_0BG@PADBLCHM@iostream?5stream?5error?$AA@	; `string'
PUBLIC	??_7_System_error_category@std@@6B@		; std::_System_error_category::`vftable'
PUBLIC	??_C@_06FHFOAHML@system?$AA@			; `string'
PUBLIC	?_Generic_object@?$_Error_objects@H@std@@2V_Generic_error_category@2@A ; std::_Error_objects<int>::_Generic_object
PUBLIC	?_Iostream_object@?$_Error_objects@H@std@@2V_Iostream_error_category@2@A ; std::_Error_objects<int>::_Iostream_object
PUBLIC	?_System_object@?$_Error_objects@H@std@@2V_System_error_category@2@A ; std::_Error_objects<int>::_System_object
PUBLIC	?id@?$num_put@DV?$back_insert_iterator@V?$basic_string@DU?$char_traits@D@std@@V?$allocator@D@2@@std@@@std@@@std@@2V0locale@2@A ; std::num_put<char,std::back_insert_iterator<std::basic_string<char,std::char_traits<char>,std::allocator<char> > > >::id
PUBLIC	?id@?$num_put@_WV?$back_insert_iterator@V?$basic_string@_WU?$char_traits@_W@std@@V?$allocator@_W@2@@std@@@std@@@std@@2V0locale@2@A ; std::num_put<wchar_t,std::back_insert_iterator<std::basic_string<wchar_t,std::char_traits<wchar_t>,std::allocator<wchar_t> > > >::id
PUBLIC	?LastRandom@?1??GenerateFastRandom@@YAJXZ@4JA	; `GenerateFastRandom'::`2'::LastRandom
PUBLIC	??_C@_04HCDDPBNL@TRUE?$AA@			; `string'
PUBLIC	??_C@_05MAJJAKPI@FALSE?$AA@			; `string'
PUBLIC	??_C@_0BP@LFJINNKA@LandingCheck?5onFlatFeature?5?$CFs?6?$AA@ ; `string'
PUBLIC	?id@?$numpunct@D@std@@2V0locale@2@A		; std::numpunct<char>::id
PUBLIC	?id@?$numpunct@_W@std@@2V0locale@2@A		; std::numpunct<wchar_t>::id
PUBLIC	??_C@_0BI@CFPLBAOH@invalid?5string?5position?$AA@ ; `string'
PUBLIC	??_C@_0BA@JFNIOLAK@string?5too?5long?$AA@	; `string'
PUBLIC	??_R4error_category@std@@6B@			; std::error_category::`RTTI Complete Object Locator'
PUBLIC	??_R0?AVerror_category@std@@@8			; std::error_category `RTTI Type Descriptor'
PUBLIC	??_R3error_category@std@@8			; std::error_category::`RTTI Class Hierarchy Descriptor'
PUBLIC	??_R2error_category@std@@8			; std::error_category::`RTTI Base Class Array'
PUBLIC	??_R1A@?0A@EA@error_category@std@@8		; std::error_category::`RTTI Base Class Descriptor at (0,-1,0,64)'
PUBLIC	??_R4_Generic_error_category@std@@6B@		; std::_Generic_error_category::`RTTI Complete Object Locator'
PUBLIC	??_R0?AV_Generic_error_category@std@@@8		; std::_Generic_error_category `RTTI Type Descriptor'
PUBLIC	??_R3_Generic_error_category@std@@8		; std::_Generic_error_category::`RTTI Class Hierarchy Descriptor'
PUBLIC	??_R2_Generic_error_category@std@@8		; std::_Generic_error_category::`RTTI Base Class Array'
PUBLIC	??_R1A@?0A@EA@_Generic_error_category@std@@8	; std::_Generic_error_category::`RTTI Base Class Descriptor at (0,-1,0,64)'
PUBLIC	??_R4_Iostream_error_category@std@@6B@		; std::_Iostream_error_category::`RTTI Complete Object Locator'
PUBLIC	??_R0?AV_Iostream_error_category@std@@@8	; std::_Iostream_error_category `RTTI Type Descriptor'
PUBLIC	??_R3_Iostream_error_category@std@@8		; std::_Iostream_error_category::`RTTI Class Hierarchy Descriptor'
PUBLIC	??_R2_Iostream_error_category@std@@8		; std::_Iostream_error_category::`RTTI Base Class Array'
PUBLIC	??_R1A@?0A@EA@_Iostream_error_category@std@@8	; std::_Iostream_error_category::`RTTI Base Class Descriptor at (0,-1,0,64)'
PUBLIC	??_R4_System_error_category@std@@6B@		; std::_System_error_category::`RTTI Complete Object Locator'
PUBLIC	??_R0?AV_System_error_category@std@@@8		; std::_System_error_category `RTTI Type Descriptor'
PUBLIC	??_R3_System_error_category@std@@8		; std::_System_error_category::`RTTI Class Hierarchy Descriptor'
PUBLIC	??_R2_System_error_category@std@@8		; std::_System_error_category::`RTTI Base Class Array'
PUBLIC	??_R1A@?0A@EA@_System_error_category@std@@8	; std::_System_error_category::`RTTI Base Class Descriptor at (0,-1,0,64)'
PUBLIC	__real@00000000
PUBLIC	__real@3bc49ba6
PUBLIC	__real@3c23d70a
PUBLIC	__real@3ca3d70a
PUBLIC	__real@3cf5c28f
PUBLIC	__real@3d4ccccd
PUBLIC	__real@3dcccccd
PUBLIC	__real@3e4ccccd
PUBLIC	__real@3e77b4a2
PUBLIC	__real@3f000000
PUBLIC	__real@3f4ccccd
PUBLIC	__real@3f70a3d7
PUBLIC	__real@3f800000
PUBLIC	__real@3fa00000
PUBLIC	__real@3fe00000
PUBLIC	__real@40000000
PUBLIC	__real@40400000
PUBLIC	__real@40800000
PUBLIC	__real@40a00000
PUBLIC	__real@41a00000
PUBLIC	__real@42480000
PUBLIC	__real@42c80000
PUBLIC	__real@437a0000
PUBLIC	__real@447a0000
PUBLIC	__real@46fffe00
PUBLIC	__real@477fff00
PUBLIC	__real@bc23d70a
PUBLIC	__real@c1400000
PUBLIC	__xmm@80000000800000008000000080000000
EXTRN	__purecall:PROC
EXTRN	??2@YAPAXI@Z:PROC				; operator new
EXTRN	??3@YAXPAX@Z:PROC				; operator delete
EXTRN	_atexit:PROC
EXTRN	_fabs:PROC
EXTRN	_rand:PROC
EXTRN	_memcpy:PROC
EXTRN	_strlen:PROC
EXTRN	_memmove:PROC
EXTRN	_MonoPrint:PROC
EXTRN	?SetPosition@VuEntity@@QAEXMMM@Z:PROC		; VuEntity::SetPosition
EXTRN	?SetDelta@VuEntity@@QAEXMMM@Z:PROC		; VuEntity::SetDelta
EXTRN	?_Xbad_alloc@std@@YAXXZ:PROC			; std::_Xbad_alloc
EXTRN	?_Xlength_error@std@@YAXPBD@Z:PROC		; std::_Xlength_error
EXTRN	?_Xout_of_range@std@@YAXPBD@Z:PROC		; std::_Xout_of_range
EXTRN	?Game@VuSessionEntity@@QAEPAVVuGameEntity@@XZ:PROC ; VuSessionEntity::Game
EXTRN	??_Eerror_category@std@@UAEPAXI@Z:PROC		; std::error_category::`vector deleting destructor'
EXTRN	?_Syserror_map@std@@YAPBDH@Z:PROC		; std::_Syserror_map
EXTRN	?_Winerror_map@std@@YAPBDH@Z:PROC		; std::_Winerror_map
EXTRN	??_E_Generic_error_category@std@@UAEPAXI@Z:PROC	; std::_Generic_error_category::`vector deleting destructor'
EXTRN	??_E_Iostream_error_category@std@@UAEPAXI@Z:PROC ; std::_Iostream_error_category::`vector deleting destructor'
EXTRN	??_E_System_error_category@std@@UAEPAXI@Z:PROC	; std::_System_error_category::`vector deleting destructor'
EXTRN	?Sfx@F4SoundPos@@QAEXHHMM@Z:PROC		; F4SoundPos::Sfx
EXTRN	?PS_AddParticleEx@DrawableParticleSys@@SAXHPAUTpoint@@0@Z:PROC ; DrawableParticleSys::PS_AddParticleEx
EXTRN	?SetFlag@SimBaseClass@@QAEXH@Z:PROC		; SimBaseClass::SetFlag
EXTRN	?SetAcStatusBits@AircraftClass@@QAEXH@Z:PROC	; AircraftClass::SetAcStatusBits
EXTRN	?SetPulseTurbulence@AircraftClass@@QAEXMMMM@Z:PROC ; AircraftClass::SetPulseTurbulence
EXTRN	?CheckHeight@AirframeClass@@QBEMXZ:PROC		; AirframeClass::CheckHeight
EXTRN	?GetGroundLevel@OTWDriverClass@@QAEMMMPAUTpoint@@@Z:PROC ; OTWDriverClass::GetGroundLevel
EXTRN	?FalconSendMessage@@YAXPAVVuMessage@@H@Z:PROC	; FalconSendMessage
EXTRN	?GetComponentLead@CampBaseClass@@QAEPAVSimBaseClass@@XZ:PROC ; CampBaseClass::GetComponentLead
EXTRN	?GetVehicleClassData@@YAPAUVehicleClassDataType@@H@Z:PROC ; GetVehicleClassData
EXTRN	??0FalconDamageMessage@@QAE@VVU_ID@@PAVVuTargetEntity@@E@Z:PROC ; FalconDamageMessage::FalconDamageMessage
EXTRN	?CreateGroundCollisionMessage@@YAPAVFalconDamageMessage@@PAVSimVehicleClass@@HPAVVuTargetEntity@@@Z:PROC ; CreateGroundCollisionMessage
EXTRN	?SetFault@FackClass@@QAEXW4type_FSubSystem@FaultClass@@W4type_FFunction@3@W4type_FSeverity@3@H@Z:PROC ; FackClass::SetFault
EXTRN	?RipOffWeapons@SMSClass@@QAEXM@Z:PROC		; SMSClass::RipOffWeapons
EXTRN	@__security_check_cookie@4:PROC
EXTRN	__CxxThrowException@8:PROC
EXTRN	___CxxFrameHandler3:PROC
EXTRN	?vuLocalSessionEntity@@3V?$VuBin@VVuSessionEntity@@@@A:DWORD ; vuLocalSessionEntity
EXTRN	?SimLibMinorFrameTime@@3MA:DWORD		; SimLibMinorFrameTime
EXTRN	??_7type_info@@6B@:QWORD			; type_info::`vftable'
EXTRN	?ComplexGearDOF@@3PAHA:BYTE			; ComplexGearDOF
EXTRN	?aeroDataset@@3PAVAeroDataSet@@A:DWORD		; aeroDataset
EXTRN	?OTWDriver@@3VOTWDriverClass@@A:BYTE		; OTWDriver
EXTRN	?SimDriver@@3VSimulationDriver@@A:BYTE		; SimDriver
EXTRN	?gCommsMgr@@3PAVUIComms@@A:DWORD		; gCommsMgr
EXTRN	?PersistantObjects@@3PAVSimPersistantClass@@A:DWORD ; PersistantObjects
EXTRN	___security_cookie:DWORD
EXTRN	__fltused:DWORD
_BSS	SEGMENT
_piecewise_construct DB 01H DUP (?)
_allocator_arg DB 01H DUP (?)
_BSS	ENDS
;	COMDAT ?_Generic_object@?$_Error_objects@H@std@@2V_Generic_error_category@2@A
_BSS	SEGMENT
?_Generic_object@?$_Error_objects@H@std@@2V_Generic_error_category@2@A DD 01H DUP (?) ; std::_Error_objects<int>::_Generic_object
_BSS	ENDS
;	COMDAT ?_Iostream_object@?$_Error_objects@H@std@@2V_Iostream_error_category@2@A
_BSS	SEGMENT
?_Iostream_object@?$_Error_objects@H@std@@2V_Iostream_error_category@2@A DD 01H DUP (?) ; std::_Error_objects<int>::_Iostream_object
_BSS	ENDS
;	COMDAT ?_System_object@?$_Error_objects@H@std@@2V_System_error_category@2@A
_BSS	SEGMENT
?_System_object@?$_Error_objects@H@std@@2V_System_error_category@2@A DD 01H DUP (?) ; std::_Error_objects<int>::_System_object
_BSS	ENDS
;	COMDAT ?id@?$num_put@DV?$back_insert_iterator@V?$basic_string@DU?$char_traits@D@std@@V?$allocator@D@2@@std@@@std@@@std@@2V0locale@2@A
_BSS	SEGMENT
?id@?$num_put@DV?$back_insert_iterator@V?$basic_string@DU?$char_traits@D@std@@V?$allocator@D@2@@std@@@std@@@std@@2V0locale@2@A DD 01H DUP (?) ; std::num_put<char,std::back_insert_iterator<std::basic_string<char,std::char_traits<char>,std::allocator<char> > > >::id
_BSS	ENDS
;	COMDAT ?id@?$num_put@_WV?$back_insert_iterator@V?$basic_string@_WU?$char_traits@_W@std@@V?$allocator@_W@2@@std@@@std@@@std@@2V0locale@2@A
_BSS	SEGMENT
?id@?$num_put@_WV?$back_insert_iterator@V?$basic_string@_WU?$char_traits@_W@std@@V?$allocator@_W@2@@std@@@std@@@std@@2V0locale@2@A DD 01H DUP (?) ; std::num_put<wchar_t,std::back_insert_iterator<std::basic_string<wchar_t,std::char_traits<wchar_t>,std::allocator<wchar_t> > > >::id
_BSS	ENDS
;	COMDAT ?LastRandom@?1??GenerateFastRandom@@YAJXZ@4JA
_BSS	SEGMENT
?LastRandom@?1??GenerateFastRandom@@YAJXZ@4JA DD 01H DUP (?) ; `GenerateFastRandom'::`2'::LastRandom
_BSS	ENDS
;	COMDAT ?id@?$numpunct@D@std@@2V0locale@2@A
_BSS	SEGMENT
?id@?$numpunct@D@std@@2V0locale@2@A DD 01H DUP (?)	; std::numpunct<char>::id
_BSS	ENDS
;	COMDAT ?id@?$numpunct@_W@std@@2V0locale@2@A
_BSS	SEGMENT
?id@?$numpunct@_W@std@@2V0locale@2@A DD 01H DUP (?)	; std::numpunct<wchar_t>::id
_BSS	ENDS
CRT$XCU	SEGMENT
_piecewise_construct$initializer$ DD FLAT:??__Epiecewise_construct@std@@YAXXZ
CRT$XCU	ENDS
;	COMDAT __xmm@80000000800000008000000080000000
CONST	SEGMENT
__xmm@80000000800000008000000080000000 DB 00H, 00H, 00H, 080H, 00H, 00H, 00H
	DB	080H, 00H, 00H, 00H, 080H, 00H, 00H, 00H, 080H
CONST	ENDS
;	COMDAT __real@c1400000
CONST	SEGMENT
__real@c1400000 DD 0c1400000r			; -12
CONST	ENDS
;	COMDAT __real@bc23d70a
CONST	SEGMENT
__real@bc23d70a DD 0bc23d70ar			; -0.01
CONST	ENDS
;	COMDAT __real@477fff00
CONST	SEGMENT
__real@477fff00 DD 0477fff00r			; 65535
CONST	ENDS
;	COMDAT __real@46fffe00
CONST	SEGMENT
__real@46fffe00 DD 046fffe00r			; 32767
CONST	ENDS
;	COMDAT __real@447a0000
CONST	SEGMENT
__real@447a0000 DD 0447a0000r			; 1000
CONST	ENDS
;	COMDAT __real@437a0000
CONST	SEGMENT
__real@437a0000 DD 0437a0000r			; 250
CONST	ENDS
;	COMDAT __real@42c80000
CONST	SEGMENT
__real@42c80000 DD 042c80000r			; 100
CONST	ENDS
;	COMDAT __real@42480000
CONST	SEGMENT
__real@42480000 DD 042480000r			; 50
CONST	ENDS
;	COMDAT __real@41a00000
CONST	SEGMENT
__real@41a00000 DD 041a00000r			; 20
CONST	ENDS
;	COMDAT __real@40a00000
CONST	SEGMENT
__real@40a00000 DD 040a00000r			; 5
CONST	ENDS
;	COMDAT __real@40800000
CONST	SEGMENT
__real@40800000 DD 040800000r			; 4
CONST	ENDS
;	COMDAT __real@40400000
CONST	SEGMENT
__real@40400000 DD 040400000r			; 3
CONST	ENDS
;	COMDAT __real@40000000
CONST	SEGMENT
__real@40000000 DD 040000000r			; 2
CONST	ENDS
;	COMDAT __real@3fe00000
CONST	SEGMENT
__real@3fe00000 DD 03fe00000r			; 1.75
CONST	ENDS
;	COMDAT __real@3fa00000
CONST	SEGMENT
__real@3fa00000 DD 03fa00000r			; 1.25
CONST	ENDS
;	COMDAT __real@3f800000
CONST	SEGMENT
__real@3f800000 DD 03f800000r			; 1
CONST	ENDS
;	COMDAT __real@3f70a3d7
CONST	SEGMENT
__real@3f70a3d7 DD 03f70a3d7r			; 0.94
CONST	ENDS
;	COMDAT __real@3f4ccccd
CONST	SEGMENT
__real@3f4ccccd DD 03f4ccccdr			; 0.8
CONST	ENDS
;	COMDAT __real@3f000000
CONST	SEGMENT
__real@3f000000 DD 03f000000r			; 0.5
CONST	ENDS
;	COMDAT __real@3e77b4a2
CONST	SEGMENT
__real@3e77b4a2 DD 03e77b4a2r			; 0.2419
CONST	ENDS
;	COMDAT __real@3e4ccccd
CONST	SEGMENT
__real@3e4ccccd DD 03e4ccccdr			; 0.2
CONST	ENDS
;	COMDAT __real@3dcccccd
CONST	SEGMENT
__real@3dcccccd DD 03dcccccdr			; 0.1
CONST	ENDS
;	COMDAT __real@3d4ccccd
CONST	SEGMENT
__real@3d4ccccd DD 03d4ccccdr			; 0.05
CONST	ENDS
;	COMDAT __real@3cf5c28f
CONST	SEGMENT
__real@3cf5c28f DD 03cf5c28fr			; 0.03
CONST	ENDS
;	COMDAT __real@3ca3d70a
CONST	SEGMENT
__real@3ca3d70a DD 03ca3d70ar			; 0.02
CONST	ENDS
;	COMDAT __real@3c23d70a
CONST	SEGMENT
__real@3c23d70a DD 03c23d70ar			; 0.01
CONST	ENDS
;	COMDAT __real@3bc49ba6
CONST	SEGMENT
__real@3bc49ba6 DD 03bc49ba6r			; 0.006
CONST	ENDS
;	COMDAT __real@00000000
CONST	SEGMENT
__real@00000000 DD 000000000r			; 0
CONST	ENDS
;	COMDAT ??_R1A@?0A@EA@_System_error_category@std@@8
rdata$r	SEGMENT
??_R1A@?0A@EA@_System_error_category@std@@8 DD FLAT:??_R0?AV_System_error_category@std@@@8 ; std::_System_error_category::`RTTI Base Class Descriptor at (0,-1,0,64)'
	DD	02H
	DD	00H
	DD	0ffffffffH
	DD	00H
	DD	040H
	DD	FLAT:??_R3_System_error_category@std@@8
rdata$r	ENDS
;	COMDAT ??_R2_System_error_category@std@@8
rdata$r	SEGMENT
??_R2_System_error_category@std@@8 DD FLAT:??_R1A@?0A@EA@_System_error_category@std@@8 ; std::_System_error_category::`RTTI Base Class Array'
	DD	FLAT:??_R1A@?0A@EA@_Generic_error_category@std@@8
	DD	FLAT:??_R1A@?0A@EA@error_category@std@@8
rdata$r	ENDS
;	COMDAT ??_R3_System_error_category@std@@8
rdata$r	SEGMENT
??_R3_System_error_category@std@@8 DD 00H		; std::_System_error_category::`RTTI Class Hierarchy Descriptor'
	DD	00H
	DD	03H
	DD	FLAT:??_R2_System_error_category@std@@8
rdata$r	ENDS
;	COMDAT ??_R0?AV_System_error_category@std@@@8
_DATA	SEGMENT
??_R0?AV_System_error_category@std@@@8 DD FLAT:??_7type_info@@6B@ ; std::_System_error_category `RTTI Type Descriptor'
	DD	00H
	DB	'.?AV_System_error_category@std@@', 00H
_DATA	ENDS
;	COMDAT ??_R4_System_error_category@std@@6B@
rdata$r	SEGMENT
??_R4_System_error_category@std@@6B@ DD 00H		; std::_System_error_category::`RTTI Complete Object Locator'
	DD	00H
	DD	00H
	DD	FLAT:??_R0?AV_System_error_category@std@@@8
	DD	FLAT:??_R3_System_error_category@std@@8
rdata$r	ENDS
;	COMDAT ??_R1A@?0A@EA@_Iostream_error_category@std@@8
rdata$r	SEGMENT
??_R1A@?0A@EA@_Iostream_error_category@std@@8 DD FLAT:??_R0?AV_Iostream_error_category@std@@@8 ; std::_Iostream_error_category::`RTTI Base Class Descriptor at (0,-1,0,64)'
	DD	02H
	DD	00H
	DD	0ffffffffH
	DD	00H
	DD	040H
	DD	FLAT:??_R3_Iostream_error_category@std@@8
rdata$r	ENDS
;	COMDAT ??_R2_Iostream_error_category@std@@8
rdata$r	SEGMENT
??_R2_Iostream_error_category@std@@8 DD FLAT:??_R1A@?0A@EA@_Iostream_error_category@std@@8 ; std::_Iostream_error_category::`RTTI Base Class Array'
	DD	FLAT:??_R1A@?0A@EA@_Generic_error_category@std@@8
	DD	FLAT:??_R1A@?0A@EA@error_category@std@@8
rdata$r	ENDS
;	COMDAT ??_R3_Iostream_error_category@std@@8
rdata$r	SEGMENT
??_R3_Iostream_error_category@std@@8 DD 00H		; std::_Iostream_error_category::`RTTI Class Hierarchy Descriptor'
	DD	00H
	DD	03H
	DD	FLAT:??_R2_Iostream_error_category@std@@8
rdata$r	ENDS
;	COMDAT ??_R0?AV_Iostream_error_category@std@@@8
_DATA	SEGMENT
??_R0?AV_Iostream_error_category@std@@@8 DD FLAT:??_7type_info@@6B@ ; std::_Iostream_error_category `RTTI Type Descriptor'
	DD	00H
	DB	'.?AV_Iostream_error_category@std@@', 00H
_DATA	ENDS
;	COMDAT ??_R4_Iostream_error_category@std@@6B@
rdata$r	SEGMENT
??_R4_Iostream_error_category@std@@6B@ DD 00H		; std::_Iostream_error_category::`RTTI Complete Object Locator'
	DD	00H
	DD	00H
	DD	FLAT:??_R0?AV_Iostream_error_category@std@@@8
	DD	FLAT:??_R3_Iostream_error_category@std@@8
rdata$r	ENDS
;	COMDAT ??_R1A@?0A@EA@_Generic_error_category@std@@8
rdata$r	SEGMENT
??_R1A@?0A@EA@_Generic_error_category@std@@8 DD FLAT:??_R0?AV_Generic_error_category@std@@@8 ; std::_Generic_error_category::`RTTI Base Class Descriptor at (0,-1,0,64)'
	DD	01H
	DD	00H
	DD	0ffffffffH
	DD	00H
	DD	040H
	DD	FLAT:??_R3_Generic_error_category@std@@8
rdata$r	ENDS
;	COMDAT ??_R2_Generic_error_category@std@@8
rdata$r	SEGMENT
??_R2_Generic_error_category@std@@8 DD FLAT:??_R1A@?0A@EA@_Generic_error_category@std@@8 ; std::_Generic_error_category::`RTTI Base Class Array'
	DD	FLAT:??_R1A@?0A@EA@error_category@std@@8
rdata$r	ENDS
;	COMDAT ??_R3_Generic_error_category@std@@8
rdata$r	SEGMENT
??_R3_Generic_error_category@std@@8 DD 00H		; std::_Generic_error_category::`RTTI Class Hierarchy Descriptor'
	DD	00H
	DD	02H
	DD	FLAT:??_R2_Generic_error_category@std@@8
rdata$r	ENDS
;	COMDAT ??_R0?AV_Generic_error_category@std@@@8
_DATA	SEGMENT
??_R0?AV_Generic_error_category@std@@@8 DD FLAT:??_7type_info@@6B@ ; std::_Generic_error_category `RTTI Type Descriptor'
	DD	00H
	DB	'.?AV_Generic_error_category@std@@', 00H
_DATA	ENDS
;	COMDAT ??_R4_Generic_error_category@std@@6B@
rdata$r	SEGMENT
??_R4_Generic_error_category@std@@6B@ DD 00H		; std::_Generic_error_category::`RTTI Complete Object Locator'
	DD	00H
	DD	00H
	DD	FLAT:??_R0?AV_Generic_error_category@std@@@8
	DD	FLAT:??_R3_Generic_error_category@std@@8
rdata$r	ENDS
;	COMDAT ??_R1A@?0A@EA@error_category@std@@8
rdata$r	SEGMENT
??_R1A@?0A@EA@error_category@std@@8 DD FLAT:??_R0?AVerror_category@std@@@8 ; std::error_category::`RTTI Base Class Descriptor at (0,-1,0,64)'
	DD	00H
	DD	00H
	DD	0ffffffffH
	DD	00H
	DD	040H
	DD	FLAT:??_R3error_category@std@@8
rdata$r	ENDS
;	COMDAT ??_R2error_category@std@@8
rdata$r	SEGMENT
??_R2error_category@std@@8 DD FLAT:??_R1A@?0A@EA@error_category@std@@8 ; std::error_category::`RTTI Base Class Array'
rdata$r	ENDS
;	COMDAT ??_R3error_category@std@@8
rdata$r	SEGMENT
??_R3error_category@std@@8 DD 00H			; std::error_category::`RTTI Class Hierarchy Descriptor'
	DD	00H
	DD	01H
	DD	FLAT:??_R2error_category@std@@8
rdata$r	ENDS
;	COMDAT ??_R0?AVerror_category@std@@@8
_DATA	SEGMENT
??_R0?AVerror_category@std@@@8 DD FLAT:??_7type_info@@6B@ ; std::error_category `RTTI Type Descriptor'
	DD	00H
	DB	'.?AVerror_category@std@@', 00H
_DATA	ENDS
;	COMDAT ??_R4error_category@std@@6B@
rdata$r	SEGMENT
??_R4error_category@std@@6B@ DD 00H			; std::error_category::`RTTI Complete Object Locator'
	DD	00H
	DD	00H
	DD	FLAT:??_R0?AVerror_category@std@@@8
	DD	FLAT:??_R3error_category@std@@8
rdata$r	ENDS
;	COMDAT ??_C@_0BA@JFNIOLAK@string?5too?5long?$AA@
CONST	SEGMENT
??_C@_0BA@JFNIOLAK@string?5too?5long?$AA@ DB 'string too long', 00H ; `string'
CONST	ENDS
;	COMDAT ??_C@_0BI@CFPLBAOH@invalid?5string?5position?$AA@
CONST	SEGMENT
??_C@_0BI@CFPLBAOH@invalid?5string?5position?$AA@ DB 'invalid string posi'
	DB	'tion', 00H					; `string'
CONST	ENDS
;	COMDAT ??_C@_0BP@LFJINNKA@LandingCheck?5onFlatFeature?5?$CFs?6?$AA@
CONST	SEGMENT
??_C@_0BP@LFJINNKA@LandingCheck?5onFlatFeature?5?$CFs?6?$AA@ DB 'LandingC'
	DB	'heck onFlatFeature %s', 0aH, 00H		; `string'
CONST	ENDS
;	COMDAT ??_C@_05MAJJAKPI@FALSE?$AA@
CONST	SEGMENT
??_C@_05MAJJAKPI@FALSE?$AA@ DB 'FALSE', 00H		; `string'
CONST	ENDS
;	COMDAT ??_C@_04HCDDPBNL@TRUE?$AA@
CONST	SEGMENT
??_C@_04HCDDPBNL@TRUE?$AA@ DB 'TRUE', 00H		; `string'
CONST	ENDS
;	COMDAT ??_C@_06FHFOAHML@system?$AA@
CONST	SEGMENT
??_C@_06FHFOAHML@system?$AA@ DB 'system', 00H		; `string'
CONST	ENDS
;	COMDAT ??_7_System_error_category@std@@6B@
CONST	SEGMENT
??_7_System_error_category@std@@6B@ DD FLAT:??_R4_System_error_category@std@@6B@ ; std::_System_error_category::`vftable'
	DD	FLAT:??_E_System_error_category@std@@UAEPAXI@Z
	DD	FLAT:?name@_System_error_category@std@@UBEPBDXZ
	DD	FLAT:?message@_System_error_category@std@@UBE?AV?$basic_string@DU?$char_traits@D@std@@V?$allocator@D@2@@2@H@Z
	DD	FLAT:?default_error_condition@_System_error_category@std@@UBE?AVerror_condition@2@H@Z
	DD	FLAT:?equivalent@error_category@std@@UBE_NABVerror_code@2@H@Z
	DD	FLAT:?equivalent@error_category@std@@UBE_NHABVerror_condition@2@@Z
CONST	ENDS
;	COMDAT ??_C@_0BG@PADBLCHM@iostream?5stream?5error?$AA@
CONST	SEGMENT
??_C@_0BG@PADBLCHM@iostream?5stream?5error?$AA@ DB 'iostream stream error'
	DB	00H						; `string'
CONST	ENDS
;	COMDAT ??_C@_08LLGCOLLL@iostream?$AA@
CONST	SEGMENT
??_C@_08LLGCOLLL@iostream?$AA@ DB 'iostream', 00H	; `string'
CONST	ENDS
;	COMDAT ??_7_Iostream_error_category@std@@6B@
CONST	SEGMENT
??_7_Iostream_error_category@std@@6B@ DD FLAT:??_R4_Iostream_error_category@std@@6B@ ; std::_Iostream_error_category::`vftable'
	DD	FLAT:??_E_Iostream_error_category@std@@UAEPAXI@Z
	DD	FLAT:?name@_Iostream_error_category@std@@UBEPBDXZ
	DD	FLAT:?message@_Iostream_error_category@std@@UBE?AV?$basic_string@DU?$char_traits@D@std@@V?$allocator@D@2@@2@H@Z
	DD	FLAT:?default_error_condition@error_category@std@@UBE?AVerror_condition@2@H@Z
	DD	FLAT:?equivalent@error_category@std@@UBE_NABVerror_code@2@H@Z
	DD	FLAT:?equivalent@error_category@std@@UBE_NHABVerror_condition@2@@Z
CONST	ENDS
;	COMDAT ??_C@_0O@BFJCFAAK@unknown?5error?$AA@
CONST	SEGMENT
??_C@_0O@BFJCFAAK@unknown?5error?$AA@ DB 'unknown error', 00H ; `string'
CONST	ENDS
;	COMDAT ??_C@_07DCLBNMLN@generic?$AA@
CONST	SEGMENT
??_C@_07DCLBNMLN@generic?$AA@ DB 'generic', 00H		; `string'
CONST	ENDS
;	COMDAT ??_7_Generic_error_category@std@@6B@
CONST	SEGMENT
??_7_Generic_error_category@std@@6B@ DD FLAT:??_R4_Generic_error_category@std@@6B@ ; std::_Generic_error_category::`vftable'
	DD	FLAT:??_E_Generic_error_category@std@@UAEPAXI@Z
	DD	FLAT:?name@_Generic_error_category@std@@UBEPBDXZ
	DD	FLAT:?message@_Generic_error_category@std@@UBE?AV?$basic_string@DU?$char_traits@D@std@@V?$allocator@D@2@@2@H@Z
	DD	FLAT:?default_error_condition@error_category@std@@UBE?AVerror_condition@2@H@Z
	DD	FLAT:?equivalent@error_category@std@@UBE_NABVerror_code@2@H@Z
	DD	FLAT:?equivalent@error_category@std@@UBE_NHABVerror_condition@2@@Z
CONST	ENDS
;	COMDAT ??_7error_category@std@@6B@
CONST	SEGMENT
??_7error_category@std@@6B@ DD FLAT:??_R4error_category@std@@6B@ ; std::error_category::`vftable'
	DD	FLAT:??_Eerror_category@std@@UAEPAXI@Z
	DD	FLAT:__purecall
	DD	FLAT:__purecall
	DD	FLAT:?default_error_condition@error_category@std@@UBE?AVerror_condition@2@H@Z
	DD	FLAT:?equivalent@error_category@std@@UBE_NABVerror_code@2@H@Z
	DD	FLAT:?equivalent@error_category@std@@UBE_NHABVerror_condition@2@@Z
CONST	ENDS
;	COMDAT xdata$x
xdata$x	SEGMENT
__unwindtable$??$construct@PADAAPAD@?$allocator@D@std@@QAEXPAPADAAPAD@Z DD 0ffffffffH
	DD	FLAT:__unwindfunclet$??$construct@PADAAPAD@?$allocator@D@std@@QAEXPAPADAAPAD@Z$0
__ehfuncinfo$??$construct@PADAAPAD@?$allocator@D@std@@QAEXPAPADAAPAD@Z DD 019930522H
	DD	01H
	DD	FLAT:__unwindtable$??$construct@PADAAPAD@?$allocator@D@std@@QAEXPAPADAAPAD@Z
	DD	2 DUP(00H)
	DD	2 DUP(00H)
	DD	00H
	DD	01H
xdata$x	ENDS
xdata$x	SEGMENT
__unwindtable$?CheckPersistantCollision@AircraftClass@@QAEXXZ DD 0ffffffffH
	DD	FLAT:__unwindfunclet$?CheckPersistantCollision@AircraftClass@@QAEXXZ$0
__unwindtable$?GroundFeatureCheck@AircraftClass@@QAEXM@Z DD 0ffffffffH
	DD	FLAT:__unwindfunclet$?GroundFeatureCheck@AircraftClass@@QAEXM@Z$0
	DD	0ffffffffH
	DD	FLAT:__unwindfunclet$?GroundFeatureCheck@AircraftClass@@QAEXM@Z$1
__ehfuncinfo$?CheckPersistantCollision@AircraftClass@@QAEXXZ DD 019930522H
	DD	01H
	DD	FLAT:__unwindtable$?CheckPersistantCollision@AircraftClass@@QAEXXZ
	DD	2 DUP(00H)
	DD	2 DUP(00H)
	DD	00H
	DD	01H
__ehfuncinfo$?GroundFeatureCheck@AircraftClass@@QAEXM@Z DD 019930522H
	DD	02H
	DD	FLAT:__unwindtable$?GroundFeatureCheck@AircraftClass@@QAEXM@Z
	DD	2 DUP(00H)
	DD	2 DUP(00H)
	DD	00H
	DD	01H
xdata$x	ENDS
;	COMDAT xdata$x
xdata$x	SEGMENT
__catchsym$?_Copy@?$basic_string@DU?$char_traits@D@std@@V?$allocator@D@2@@std@@QAEXII@Z$5 DD 040H
	DD	00H
	DD	00H
	DD	FLAT:__catch$?_Copy@?$basic_string@DU?$char_traits@D@std@@V?$allocator@D@2@@std@@QAEXII@Z$0
__catchsym$?_Copy@?$basic_string@DU?$char_traits@D@std@@V?$allocator@D@2@@std@@QAEXII@Z$4 DD 040H
	DD	00H
	DD	00H
	DD	FLAT:__catch$?_Copy@?$basic_string@DU?$char_traits@D@std@@V?$allocator@D@2@@std@@QAEXII@Z$1
__unwindtable$?_Copy@?$basic_string@DU?$char_traits@D@std@@V?$allocator@D@2@@std@@QAEXII@Z DD 0ffffffffH
	DD	00H
	DD	0ffffffffH
	DD	00H
	DD	01H
	DD	00H
	DD	01H
	DD	00H
__ehfuncinfo$?_Copy@?$basic_string@DU?$char_traits@D@std@@V?$allocator@D@2@@std@@QAEXII@Z DD 019930522H
	DD	04H
	DD	FLAT:__unwindtable$?_Copy@?$basic_string@DU?$char_traits@D@std@@V?$allocator@D@2@@std@@QAEXII@Z
	DD	02H
	DD	FLAT:__tryblocktable$?_Copy@?$basic_string@DU?$char_traits@D@std@@V?$allocator@D@2@@std@@QAEXII@Z
	DD	2 DUP(00H)
	DD	00H
	DD	01H
__tryblocktable$?_Copy@?$basic_string@DU?$char_traits@D@std@@V?$allocator@D@2@@std@@QAEXII@Z DD 02H
	DD	02H
	DD	03H
	DD	01H
	DD	FLAT:__catchsym$?_Copy@?$basic_string@DU?$char_traits@D@std@@V?$allocator@D@2@@std@@QAEXII@Z$4
	DD	00H
	DD	00H
	DD	03H
	DD	01H
	DD	FLAT:__catchsym$?_Copy@?$basic_string@DU?$char_traits@D@std@@V?$allocator@D@2@@std@@QAEXII@Z$5
xdata$x	ENDS
CRT$XCU	SEGMENT
_allocator_arg$initializer$ DD FLAT:??__Eallocator_arg@std@@YAXXZ
CRT$XCU	ENDS
;	COMDAT CRT$XCU
CRT$XCU	SEGMENT
?_Generic_object$initializer$@?$_Error_objects@H@std@@2P6AXXZA DD FLAT:??__E?_Generic_object@?$_Error_objects@H@std@@2V_Generic_error_category@2@A@@YAXXZ ; std::_Error_objects<int>::_Generic_object$initializer$
CRT$XCU	ENDS
;	COMDAT CRT$XCU
CRT$XCU	SEGMENT
?_Iostream_object$initializer$@?$_Error_objects@H@std@@2P6AXXZA DD FLAT:??__E?_Iostream_object@?$_Error_objects@H@std@@2V_Iostream_error_category@2@A@@YAXXZ ; std::_Error_objects<int>::_Iostream_object$initializer$
CRT$XCU	ENDS
;	COMDAT CRT$XCU
CRT$XCU	SEGMENT
?_System_object$initializer$@?$_Error_objects@H@std@@2P6AXXZA DD FLAT:??__E?_System_object@?$_Error_objects@H@std@@2V_System_error_category@2@A@@YAXXZ ; std::_Error_objects<int>::_System_object$initializer$
CRT$XCU	ENDS
;	COMDAT CRT$XCU
CRT$XCU	SEGMENT
?id$initializer$@?$num_put@DV?$back_insert_iterator@V?$basic_string@DU?$char_traits@D@std@@V?$allocator@D@2@@std@@@std@@@std@@2P6AXXZA DD FLAT:??__E?id@?$num_put@DV?$back_insert_iterator@V?$basic_string@DU?$char_traits@D@std@@V?$allocator@D@2@@std@@@std@@@std@@2V0locale@2@A@@YAXXZ ; std::num_put<char,std::back_insert_iterator<std::basic_string<char,std::char_traits<char>,std::allocator<char> > > >::id$initializer$
CRT$XCU	ENDS
;	COMDAT CRT$XCU
CRT$XCU	SEGMENT
?id$initializer$@?$num_put@_WV?$back_insert_iterator@V?$basic_string@_WU?$char_traits@_W@std@@V?$allocator@_W@2@@std@@@std@@@std@@2P6AXXZA DD FLAT:??__E?id@?$num_put@_WV?$back_insert_iterator@V?$basic_string@_WU?$char_traits@_W@std@@V?$allocator@_W@2@@std@@@std@@@std@@2V0locale@2@A@@YAXXZ ; std::num_put<wchar_t,std::back_insert_iterator<std::basic_string<wchar_t,std::char_traits<wchar_t>,std::allocator<wchar_t> > > >::id$initializer$
CRT$XCU	ENDS
;	COMDAT CRT$XCU
CRT$XCU	SEGMENT
?id$initializer$@?$numpunct@D@std@@2P6AXXZA DD FLAT:??__E?id@?$numpunct@D@std@@2V0locale@2@A@@YAXXZ ; std::numpunct<char>::id$initializer$
CRT$XCU	ENDS
;	COMDAT CRT$XCU
CRT$XCU	SEGMENT
?id$initializer$@?$numpunct@_W@std@@2P6AXXZA DD FLAT:??__E?id@?$numpunct@_W@std@@2V0locale@2@A@@YAXXZ ; std::numpunct<wchar_t>::id$initializer$
CRT$XCU	ENDS
; Function compile flags: /Odtp
; File c:\program files (x86)\microsoft visual studio 11.0\vc\include\xmemory0
;	COMDAT ??$destroy@PAD@?$allocator@D@std@@QAEXPAPAD@Z
_TEXT	SEGMENT
_this$ = -4						; size = 4
__Ptr$ = 8						; size = 4
??$destroy@PAD@?$allocator@D@std@@QAEXPAPAD@Z PROC	; std::allocator<char>::destroy<char *>, COMDAT
; _this$ = ecx

; 621  : 		void destroy(_Uty *_Ptr)

	push	ebp
	mov	ebp, esp
	push	ecx
	mov	DWORD PTR _this$[ebp], ecx

; 622  : 		{	// destroy object at _Ptr
; 623  : 		_Ptr->~_Uty();
; 624  : 		}

	mov	esp, ebp
	pop	ebp
	ret	4
??$destroy@PAD@?$allocator@D@std@@QAEXPAPAD@Z ENDP	; std::allocator<char>::destroy<char *>
_TEXT	ENDS
; Function compile flags: /Odtp
; File c:\program files (x86)\microsoft visual studio 11.0\vc\include\xmemory0
;	COMDAT ??$construct@PADAAPAD@?$allocator@D@std@@QAEXPAPADAAPAD@Z
_TEXT	SEGMENT
$T2 = -28						; size = 4
_this$ = -24						; size = 4
tv73 = -20						; size = 4
$T3 = -16						; size = 4
__$EHRec$ = -12						; size = 12
__Ptr$ = 8						; size = 4
__V0$ = 12						; size = 4
??$construct@PADAAPAD@?$allocator@D@std@@QAEXPAPADAAPAD@Z PROC ; std::allocator<char>::construct<char *,char * &>, COMDAT
; _this$ = ecx

; 617  : _VARIADIC_EXPAND_0X(_ALLOC_MEMBER_CONSTRUCT, , , , )

	push	ebp
	mov	ebp, esp
	push	-1
	push	__ehhandler$??$construct@PADAAPAD@?$allocator@D@std@@QAEXPAPADAAPAD@Z
	mov	eax, DWORD PTR fs:0
	push	eax
	sub	esp, 16					; 00000010H
	mov	eax, DWORD PTR ___security_cookie
	xor	eax, ebp
	push	eax
	lea	eax, DWORD PTR __$EHRec$[ebp]
	mov	DWORD PTR fs:0, eax
	mov	DWORD PTR _this$[ebp], ecx
	mov	eax, DWORD PTR __Ptr$[ebp]
	push	eax
	push	4
	call	??2@YAPAXIPAX@Z				; operator new
	add	esp, 8
	mov	DWORD PTR $T3[ebp], eax
	mov	DWORD PTR __$EHRec$[ebp+8], 0
	cmp	DWORD PTR $T3[ebp], 0
	je	SHORT $LN3@construct
	mov	ecx, DWORD PTR __V0$[ebp]
	push	ecx
	call	??$forward@AAPAD@std@@YAAAPADAAPAD@Z	; std::forward<char * &>
	add	esp, 4
	mov	edx, DWORD PTR $T3[ebp]
	mov	eax, DWORD PTR [eax]
	mov	DWORD PTR [edx], eax
	mov	ecx, DWORD PTR $T3[ebp]
	mov	DWORD PTR tv73[ebp], ecx
	jmp	SHORT $LN4@construct
$LN3@construct:
	mov	DWORD PTR tv73[ebp], 0
$LN4@construct:
	mov	edx, DWORD PTR tv73[ebp]
	mov	DWORD PTR $T2[ebp], edx
	mov	DWORD PTR __$EHRec$[ebp+8], -1
	mov	ecx, DWORD PTR __$EHRec$[ebp]
	mov	DWORD PTR fs:0, ecx
	pop	ecx
	mov	esp, ebp
	pop	ebp
	ret	8
_TEXT	ENDS
;	COMDAT text$x
text$x	SEGMENT
__unwindfunclet$??$construct@PADAAPAD@?$allocator@D@std@@QAEXPAPADAAPAD@Z$0:
	mov	eax, DWORD PTR __Ptr$[ebp]
	push	eax
	mov	eax, DWORD PTR $T3[ebp]
	push	eax
	call	??3@YAXPAX0@Z				; operator delete
	add	esp, 8
	ret	0
__ehhandler$??$construct@PADAAPAD@?$allocator@D@std@@QAEXPAPADAAPAD@Z:
	mov	edx, DWORD PTR [esp+8]
	lea	eax, DWORD PTR [edx+12]
	mov	ecx, DWORD PTR [edx-20]
	xor	ecx, eax
	call	@__security_check_cookie@4
	mov	eax, OFFSET __ehfuncinfo$??$construct@PADAAPAD@?$allocator@D@std@@QAEXPAPADAAPAD@Z
	jmp	___CxxFrameHandler3
text$x	ENDS
??$construct@PADAAPAD@?$allocator@D@std@@QAEXPAPADAAPAD@Z ENDP ; std::allocator<char>::construct<char *,char * &>
; Function compile flags: /Odtp
; File c:\program files (x86)\microsoft visual studio 11.0\vc\include\xlocnum
;	COMDAT ??__E?id@?$numpunct@_W@std@@2V0locale@2@A@@YAXXZ
text$yc	SEGMENT
??__E?id@?$numpunct@_W@std@@2V0locale@2@A@@YAXXZ PROC	; `dynamic initializer for 'std::numpunct<wchar_t>::id'', COMDAT

; 155  : 		void _Getvals(wchar_t, const lconv *_Ptr, _Locinfo::_Cvtvec)

	push	ebp
	mov	ebp, esp
	push	0
	mov	ecx, OFFSET ?id@?$numpunct@_W@std@@2V0locale@2@A ; std::numpunct<wchar_t>::id
	call	??0id@locale@std@@QAE@I@Z		; std::locale::id::id
	pop	ebp
	ret	0
??__E?id@?$numpunct@_W@std@@2V0locale@2@A@@YAXXZ ENDP	; `dynamic initializer for 'std::numpunct<wchar_t>::id''
text$yc	ENDS
; Function compile flags: /Odtp
; File c:\program files (x86)\microsoft visual studio 11.0\vc\include\xlocnum
;	COMDAT ??__E?id@?$numpunct@D@std@@2V0locale@2@A@@YAXXZ
text$yc	SEGMENT
??__E?id@?$numpunct@D@std@@2V0locale@2@A@@YAXXZ PROC	; `dynamic initializer for 'std::numpunct<char>::id'', COMDAT

; 155  : 		void _Getvals(wchar_t, const lconv *_Ptr, _Locinfo::_Cvtvec)

	push	ebp
	mov	ebp, esp
	push	0
	mov	ecx, OFFSET ?id@?$numpunct@D@std@@2V0locale@2@A ; std::numpunct<char>::id
	call	??0id@locale@std@@QAE@I@Z		; std::locale::id::id
	pop	ebp
	ret	0
??__E?id@?$numpunct@D@std@@2V0locale@2@A@@YAXXZ ENDP	; `dynamic initializer for 'std::numpunct<char>::id''
text$yc	ENDS
; Function compile flags: /Odtp
; File c:\program files (x86)\microsoft visual studio 11.0\vc\include\xlocnum
;	COMDAT ??__E?id@?$num_put@_WV?$back_insert_iterator@V?$basic_string@_WU?$char_traits@_W@std@@V?$allocator@_W@2@@std@@@std@@@std@@2V0locale@2@A@@YAXXZ
text$yc	SEGMENT
??__E?id@?$num_put@_WV?$back_insert_iterator@V?$basic_string@_WU?$char_traits@_W@std@@V?$allocator@_W@2@@std@@@std@@@std@@2V0locale@2@A@@YAXXZ PROC ; `dynamic initializer for 'std::num_put<wchar_t,std::back_insert_iterator<std::basic_string<wchar_t,std::char_traits<wchar_t>,std::allocator<wchar_t> > > >::id'', COMDAT

; 155  : 		void _Getvals(wchar_t, const lconv *_Ptr, _Locinfo::_Cvtvec)

	push	ebp
	mov	ebp, esp
	push	0
	mov	ecx, OFFSET ?id@?$num_put@_WV?$back_insert_iterator@V?$basic_string@_WU?$char_traits@_W@std@@V?$allocator@_W@2@@std@@@std@@@std@@2V0locale@2@A ; std::num_put<wchar_t,std::back_insert_iterator<std::basic_string<wchar_t,std::char_traits<wchar_t>,std::allocator<wchar_t> > > >::id
	call	??0id@locale@std@@QAE@I@Z		; std::locale::id::id
	pop	ebp
	ret	0
??__E?id@?$num_put@_WV?$back_insert_iterator@V?$basic_string@_WU?$char_traits@_W@std@@V?$allocator@_W@2@@std@@@std@@@std@@2V0locale@2@A@@YAXXZ ENDP ; `dynamic initializer for 'std::num_put<wchar_t,std::back_insert_iterator<std::basic_string<wchar_t,std::char_traits<wchar_t>,std::allocator<wchar_t> > > >::id''
text$yc	ENDS
; Function compile flags: /Odtp
; File c:\program files (x86)\microsoft visual studio 11.0\vc\include\xlocnum
;	COMDAT ??__E?id@?$num_put@DV?$back_insert_iterator@V?$basic_string@DU?$char_traits@D@std@@V?$allocator@D@2@@std@@@std@@@std@@2V0locale@2@A@@YAXXZ
text$yc	SEGMENT
??__E?id@?$num_put@DV?$back_insert_iterator@V?$basic_string@DU?$char_traits@D@std@@V?$allocator@D@2@@std@@@std@@@std@@2V0locale@2@A@@YAXXZ PROC ; `dynamic initializer for 'std::num_put<char,std::back_insert_iterator<std::basic_string<char,std::char_traits<char>,std::allocator<char> > > >::id'', COMDAT

; 155  : 		void _Getvals(wchar_t, const lconv *_Ptr, _Locinfo::_Cvtvec)

	push	ebp
	mov	ebp, esp
	push	0
	mov	ecx, OFFSET ?id@?$num_put@DV?$back_insert_iterator@V?$basic_string@DU?$char_traits@D@std@@V?$allocator@D@2@@std@@@std@@@std@@2V0locale@2@A ; std::num_put<char,std::back_insert_iterator<std::basic_string<char,std::char_traits<char>,std::allocator<char> > > >::id
	call	??0id@locale@std@@QAE@I@Z		; std::locale::id::id
	pop	ebp
	ret	0
??__E?id@?$num_put@DV?$back_insert_iterator@V?$basic_string@DU?$char_traits@D@std@@V?$allocator@D@2@@std@@@std@@@std@@2V0locale@2@A@@YAXXZ ENDP ; `dynamic initializer for 'std::num_put<char,std::back_insert_iterator<std::basic_string<char,std::char_traits<char>,std::allocator<char> > > >::id''
text$yc	ENDS
; Function compile flags: /Odtp
; File c:\program files (x86)\microsoft visual studio 11.0\vc\include\xmemory0
;	COMDAT ??$destroy@PAD@?$allocator_traits@V?$allocator@D@std@@@std@@SAXAAV?$allocator@D@1@PAPAD@Z
_TEXT	SEGMENT
__Al$ = 8						; size = 4
__Ptr$ = 12						; size = 4
??$destroy@PAD@?$allocator_traits@V?$allocator@D@std@@@std@@SAXAAV?$allocator@D@1@PAPAD@Z PROC ; std::allocator_traits<std::allocator<char> >::destroy<char *>, COMDAT

; 755  : 		static void destroy(_Alloc& _Al, _Uty *_Ptr)

	push	ebp
	mov	ebp, esp

; 756  : 		{	// destroy object at _Ptr
; 757  : 		_Al.destroy(_Ptr);

	mov	eax, DWORD PTR __Ptr$[ebp]
	push	eax
	mov	ecx, DWORD PTR __Al$[ebp]
	call	??$destroy@PAD@?$allocator@D@std@@QAEXPAPAD@Z ; std::allocator<char>::destroy<char *>

; 758  : 		}

	pop	ebp
	ret	0
??$destroy@PAD@?$allocator_traits@V?$allocator@D@std@@@std@@SAXAAV?$allocator@D@1@PAPAD@Z ENDP ; std::allocator_traits<std::allocator<char> >::destroy<char *>
_TEXT	ENDS
; Function compile flags: /Odtp
; File c:\program files (x86)\microsoft visual studio 11.0\vc\include\xmemory0
;	COMDAT ??$construct@PADAAPAD@?$allocator_traits@V?$allocator@D@std@@@std@@SAXAAV?$allocator@D@1@PAPADAAPAD@Z
_TEXT	SEGMENT
__Al$ = 8						; size = 4
__Ptr$ = 12						; size = 4
__V0$ = 16						; size = 4
??$construct@PADAAPAD@?$allocator_traits@V?$allocator@D@std@@@std@@SAXAAV?$allocator@D@1@PAPADAAPAD@Z PROC ; std::allocator_traits<std::allocator<char> >::construct<char *,char * &>, COMDAT

; 751  : _VARIADIC_EXPAND_0X(_ALLOC_TRAITS_SPECIAL_CONSTRUCT, , , , )

	push	ebp
	mov	ebp, esp
	mov	eax, DWORD PTR __V0$[ebp]
	push	eax
	call	??$forward@AAPAD@std@@YAAAPADAAPAD@Z	; std::forward<char * &>
	add	esp, 4
	push	eax
	mov	ecx, DWORD PTR __Ptr$[ebp]
	push	ecx
	mov	ecx, DWORD PTR __Al$[ebp]
	call	??$construct@PADAAPAD@?$allocator@D@std@@QAEXPAPADAAPAD@Z ; std::allocator<char>::construct<char *,char * &>
	pop	ebp
	ret	0
??$construct@PADAAPAD@?$allocator_traits@V?$allocator@D@std@@@std@@SAXAAV?$allocator@D@1@PAPADAAPAD@Z ENDP ; std::allocator_traits<std::allocator<char> >::construct<char *,char * &>
_TEXT	ENDS
; Function compile flags: /Odtp
; File c:\program files (x86)\microsoft visual studio 11.0\vc\include\type_traits
;	COMDAT ??$forward@AAPAD@std@@YAAAPADAAPAD@Z
_TEXT	SEGMENT
__Arg$ = 8						; size = 4
??$forward@AAPAD@std@@YAAAPADAAPAD@Z PROC		; std::forward<char * &>, COMDAT

; 1775 : 	{	// forward an lvalue

	push	ebp
	mov	ebp, esp

; 1776 : 	return (static_cast<_Ty&&>(_Arg));

	mov	eax, DWORD PTR __Arg$[ebp]

; 1777 : 	}

	pop	ebp
	ret	0
??$forward@AAPAD@std@@YAAAPADAAPAD@Z ENDP		; std::forward<char * &>
_TEXT	ENDS
; Function compile flags: /Odtp
;	COMDAT ??__F?_System_object@?$_Error_objects@H@std@@2V_System_error_category@2@A@@YAXXZ
text$yd	SEGMENT
??__F?_System_object@?$_Error_objects@H@std@@2V_System_error_category@2@A@@YAXXZ PROC ; `dynamic atexit destructor for 'std::_Error_objects<int>::_System_object'', COMDAT
	push	ebp
	mov	ebp, esp
	mov	ecx, OFFSET ?_System_object@?$_Error_objects@H@std@@2V_System_error_category@2@A ; std::_Error_objects<int>::_System_object
	call	??1_System_error_category@std@@UAE@XZ
	pop	ebp
	ret	0
??__F?_System_object@?$_Error_objects@H@std@@2V_System_error_category@2@A@@YAXXZ ENDP ; `dynamic atexit destructor for 'std::_Error_objects<int>::_System_object''
text$yd	ENDS
; Function compile flags: /Odtp
; File c:\program files (x86)\microsoft visual studio 11.0\vc\include\xmemory0
;	COMDAT ??__E?_System_object@?$_Error_objects@H@std@@2V_System_error_category@2@A@@YAXXZ
text$yc	SEGMENT
??__E?_System_object@?$_Error_objects@H@std@@2V_System_error_category@2@A@@YAXXZ PROC ; `dynamic initializer for 'std::_Error_objects<int>::_System_object'', COMDAT

; 627  : 		{	// estimate maximum array size

	push	ebp
	mov	ebp, esp
	mov	ecx, OFFSET ?_System_object@?$_Error_objects@H@std@@2V_System_error_category@2@A ; std::_Error_objects<int>::_System_object
	call	??0_System_error_category@std@@QAE@XZ	; std::_System_error_category::_System_error_category
	push	OFFSET ??__F?_System_object@?$_Error_objects@H@std@@2V_System_error_category@2@A@@YAXXZ ; `dynamic atexit destructor for 'std::_Error_objects<int>::_System_object''
	call	_atexit
	add	esp, 4
	pop	ebp
	ret	0
??__E?_System_object@?$_Error_objects@H@std@@2V_System_error_category@2@A@@YAXXZ ENDP ; `dynamic initializer for 'std::_Error_objects<int>::_System_object''
text$yc	ENDS
; Function compile flags: /Odtp
;	COMDAT ??__F?_Iostream_object@?$_Error_objects@H@std@@2V_Iostream_error_category@2@A@@YAXXZ
text$yd	SEGMENT
??__F?_Iostream_object@?$_Error_objects@H@std@@2V_Iostream_error_category@2@A@@YAXXZ PROC ; `dynamic atexit destructor for 'std::_Error_objects<int>::_Iostream_object'', COMDAT
	push	ebp
	mov	ebp, esp
	mov	ecx, OFFSET ?_Iostream_object@?$_Error_objects@H@std@@2V_Iostream_error_category@2@A ; std::_Error_objects<int>::_Iostream_object
	call	??1_Iostream_error_category@std@@UAE@XZ
	pop	ebp
	ret	0
??__F?_Iostream_object@?$_Error_objects@H@std@@2V_Iostream_error_category@2@A@@YAXXZ ENDP ; `dynamic atexit destructor for 'std::_Error_objects<int>::_Iostream_object''
text$yd	ENDS
; Function compile flags: /Odtp
; File c:\program files (x86)\microsoft visual studio 11.0\vc\include\xmemory0
;	COMDAT ??__E?_Iostream_object@?$_Error_objects@H@std@@2V_Iostream_error_category@2@A@@YAXXZ
text$yc	SEGMENT
??__E?_Iostream_object@?$_Error_objects@H@std@@2V_Iostream_error_category@2@A@@YAXXZ PROC ; `dynamic initializer for 'std::_Error_objects<int>::_Iostream_object'', COMDAT

; 627  : 		{	// estimate maximum array size

	push	ebp
	mov	ebp, esp
	mov	ecx, OFFSET ?_Iostream_object@?$_Error_objects@H@std@@2V_Iostream_error_category@2@A ; std::_Error_objects<int>::_Iostream_object
	call	??0_Iostream_error_category@std@@QAE@XZ	; std::_Iostream_error_category::_Iostream_error_category
	push	OFFSET ??__F?_Iostream_object@?$_Error_objects@H@std@@2V_Iostream_error_category@2@A@@YAXXZ ; `dynamic atexit destructor for 'std::_Error_objects<int>::_Iostream_object''
	call	_atexit
	add	esp, 4
	pop	ebp
	ret	0
??__E?_Iostream_object@?$_Error_objects@H@std@@2V_Iostream_error_category@2@A@@YAXXZ ENDP ; `dynamic initializer for 'std::_Error_objects<int>::_Iostream_object''
text$yc	ENDS
; Function compile flags: /Odtp
;	COMDAT ??__F?_Generic_object@?$_Error_objects@H@std@@2V_Generic_error_category@2@A@@YAXXZ
text$yd	SEGMENT
??__F?_Generic_object@?$_Error_objects@H@std@@2V_Generic_error_category@2@A@@YAXXZ PROC ; `dynamic atexit destructor for 'std::_Error_objects<int>::_Generic_object'', COMDAT
	push	ebp
	mov	ebp, esp
	mov	ecx, OFFSET ?_Generic_object@?$_Error_objects@H@std@@2V_Generic_error_category@2@A ; std::_Error_objects<int>::_Generic_object
	call	??1_Generic_error_category@std@@UAE@XZ
	pop	ebp
	ret	0
??__F?_Generic_object@?$_Error_objects@H@std@@2V_Generic_error_category@2@A@@YAXXZ ENDP ; `dynamic atexit destructor for 'std::_Error_objects<int>::_Generic_object''
text$yd	ENDS
; Function compile flags: /Odtp
; File c:\program files (x86)\microsoft visual studio 11.0\vc\include\xmemory0
;	COMDAT ??__E?_Generic_object@?$_Error_objects@H@std@@2V_Generic_error_category@2@A@@YAXXZ
text$yc	SEGMENT
??__E?_Generic_object@?$_Error_objects@H@std@@2V_Generic_error_category@2@A@@YAXXZ PROC ; `dynamic initializer for 'std::_Error_objects<int>::_Generic_object'', COMDAT

; 627  : 		{	// estimate maximum array size

	push	ebp
	mov	ebp, esp
	mov	ecx, OFFSET ?_Generic_object@?$_Error_objects@H@std@@2V_Generic_error_category@2@A ; std::_Error_objects<int>::_Generic_object
	call	??0_Generic_error_category@std@@QAE@XZ	; std::_Generic_error_category::_Generic_error_category
	push	OFFSET ??__F?_Generic_object@?$_Error_objects@H@std@@2V_Generic_error_category@2@A@@YAXXZ ; `dynamic atexit destructor for 'std::_Error_objects<int>::_Generic_object''
	call	_atexit
	add	esp, 4
	pop	ebp
	ret	0
??__E?_Generic_object@?$_Error_objects@H@std@@2V_Generic_error_category@2@A@@YAXXZ ENDP ; `dynamic initializer for 'std::_Error_objects<int>::_Generic_object''
text$yc	ENDS
; Function compile flags: /Odtp
; File c:\program files (x86)\microsoft visual studio 11.0\vc\include\xmemory0
;	COMDAT ??$_Allocate@D@std@@YAPADIPAD@Z
_TEXT	SEGMENT
__Ptr$ = -4						; size = 4
__Count$ = 8						; size = 4
___formal$ = 12						; size = 4
??$_Allocate@D@std@@YAPADIPAD@Z PROC			; std::_Allocate<char>, COMDAT

; 22   : 	{	// allocate storage for _Count elements of type _Ty

	push	ebp
	mov	ebp, esp
	push	ecx

; 23   : 	void *_Ptr = 0;

	mov	DWORD PTR __Ptr$[ebp], 0

; 24   : 
; 25   : 	if (_Count == 0)

	cmp	DWORD PTR __Count$[ebp], 0
	jne	SHORT $LN4@Allocate

; 26   : 		;
; 27   : 	else if (((size_t)(-1) / sizeof (_Ty) < _Count)

	jmp	SHORT $LN3@Allocate
$LN4@Allocate:

; 28   : 		|| (_Ptr = ::operator new(_Count * sizeof (_Ty))) == 0)

	cmp	DWORD PTR __Count$[ebp], -1
	ja	SHORT $LN1@Allocate
	mov	eax, DWORD PTR __Count$[ebp]
	push	eax
	call	??2@YAPAXI@Z				; operator new
	add	esp, 4
	mov	DWORD PTR __Ptr$[ebp], eax
	cmp	DWORD PTR __Ptr$[ebp], 0
	jne	SHORT $LN3@Allocate
$LN1@Allocate:

; 29   : 		_Xbad_alloc();	// report no memory

	call	?_Xbad_alloc@std@@YAXXZ			; std::_Xbad_alloc
$LN3@Allocate:

; 30   : 
; 31   : 	return ((_Ty *)_Ptr);

	mov	eax, DWORD PTR __Ptr$[ebp]
$LN6@Allocate:

; 32   : 	}

	mov	esp, ebp
	pop	ebp
	ret	0
??$_Allocate@D@std@@YAPADIPAD@Z ENDP			; std::_Allocate<char>
_TEXT	ENDS
; Function compile flags: /Odtp
; File c:\program files (x86)\microsoft visual studio 11.0\vc\include\xstddef
;	COMDAT ??$addressof@D@std@@YAPADAAD@Z
_TEXT	SEGMENT
__Val$ = 8						; size = 4
??$addressof@D@std@@YAPADAAD@Z PROC			; std::addressof<char>, COMDAT

; 85   : 	{	// return address of _Val

	push	ebp
	mov	ebp, esp

; 86   : 	return (reinterpret_cast<_Ty *>(
; 87   : 		(&const_cast<char&>(
; 88   : 		reinterpret_cast<const volatile char&>(_Val)))));

	mov	eax, DWORD PTR __Val$[ebp]

; 89   : 	}

	pop	ebp
	ret	0
??$addressof@D@std@@YAPADAAD@Z ENDP			; std::addressof<char>
_TEXT	ENDS
; Function compile flags: /Odtp
; File c:\program files (x86)\microsoft visual studio 11.0\vc\include\xmemory0
;	COMDAT ??$destroy@PAD@?$_Wrap_alloc@V?$allocator@D@std@@@std@@QAEXPAPAD@Z
_TEXT	SEGMENT
_this$ = -4						; size = 4
__Ptr$ = 8						; size = 4
??$destroy@PAD@?$_Wrap_alloc@V?$allocator@D@std@@@std@@QAEXPAPAD@Z PROC ; std::_Wrap_alloc<std::allocator<char> >::destroy<char *>, COMDAT
; _this$ = ecx

; 907  : 		void destroy(_Ty *_Ptr)

	push	ebp
	mov	ebp, esp
	push	ecx
	mov	DWORD PTR _this$[ebp], ecx

; 908  : 		{	// destroy object at _Ptr
; 909  : 		_Mytraits::destroy(*this, _Ptr);

	mov	eax, DWORD PTR __Ptr$[ebp]
	push	eax
	mov	ecx, DWORD PTR _this$[ebp]
	push	ecx
	call	??$destroy@PAD@?$allocator_traits@V?$allocator@D@std@@@std@@SAXAAV?$allocator@D@1@PAPAD@Z ; std::allocator_traits<std::allocator<char> >::destroy<char *>
	add	esp, 8

; 910  : 		}

	mov	esp, ebp
	pop	ebp
	ret	4
??$destroy@PAD@?$_Wrap_alloc@V?$allocator@D@std@@@std@@QAEXPAPAD@Z ENDP ; std::_Wrap_alloc<std::allocator<char> >::destroy<char *>
_TEXT	ENDS
; Function compile flags: /Odtp
; File c:\program files (x86)\microsoft visual studio 11.0\vc\include\xmemory0
;	COMDAT ??$construct@PADAAPAD@?$_Wrap_alloc@V?$allocator@D@std@@@std@@QAEXPAPADAAPAD@Z
_TEXT	SEGMENT
_this$ = -4						; size = 4
__Ptr$ = 8						; size = 4
__V0$ = 12						; size = 4
??$construct@PADAAPAD@?$_Wrap_alloc@V?$allocator@D@std@@@std@@QAEXPAPADAAPAD@Z PROC ; std::_Wrap_alloc<std::allocator<char> >::construct<char *,char * &>, COMDAT
; _this$ = ecx

; 903  : _VARIADIC_EXPAND_0X(_WRAP_ALLOC_CONSTRUCT, , , , )

	push	ebp
	mov	ebp, esp
	push	ecx
	mov	DWORD PTR _this$[ebp], ecx
	mov	eax, DWORD PTR __V0$[ebp]
	push	eax
	call	??$forward@AAPAD@std@@YAAAPADAAPAD@Z	; std::forward<char * &>
	add	esp, 4
	push	eax
	mov	ecx, DWORD PTR __Ptr$[ebp]
	push	ecx
	mov	edx, DWORD PTR _this$[ebp]
	push	edx
	call	??$construct@PADAAPAD@?$allocator_traits@V?$allocator@D@std@@@std@@SAXAAV?$allocator@D@1@PAPADAAPAD@Z ; std::allocator_traits<std::allocator<char> >::construct<char *,char * &>
	add	esp, 12					; 0000000cH
	mov	esp, ebp
	pop	ebp
	ret	8
??$construct@PADAAPAD@?$_Wrap_alloc@V?$allocator@D@std@@@std@@QAEXPAPADAAPAD@Z ENDP ; std::_Wrap_alloc<std::allocator<char> >::construct<char *,char * &>
_TEXT	ENDS
; Function compile flags: /Odtp
; File c:\users\zhitao li\documents\visual studio 2012\projects\freefalcon\ui\include\uicomms.h
;	COMDAT ?Online@UIComms@@QAEHXZ
_TEXT	SEGMENT
_this$ = -4						; size = 4
?Online@UIComms@@QAEHXZ PROC				; UIComms::Online, COMDAT
; _this$ = ecx

; 118  : 		BOOL Online()					{ return(Online_); }

	push	ebp
	mov	ebp, esp
	push	ecx
	mov	DWORD PTR _this$[ebp], ecx
	mov	eax, DWORD PTR _this$[ebp]
	mov	eax, DWORD PTR [eax+64]
	mov	esp, ebp
	pop	ebp
	ret	0
?Online@UIComms@@QAEHXZ ENDP				; UIComms::Online
_TEXT	ENDS
; Function compile flags: /Odtp
; File c:\users\zhitao li\documents\visual studio 2012\projects\freefalcon\campaign\include\persist.h
;	COMDAT ?InUse@SimPersistantClass@@QAEHXZ
_TEXT	SEGMENT
_this$ = -4						; size = 4
?InUse@SimPersistantClass@@QAEHXZ PROC			; SimPersistantClass::InUse, COMDAT
; _this$ = ecx

; 80   : 		int InUse (void)						{ return flags & SPLF_IN_USE; }

	push	ebp
	mov	ebp, esp
	push	ecx
	mov	DWORD PTR _this$[ebp], ecx
	mov	eax, DWORD PTR _this$[ebp]
	movsx	eax, WORD PTR [eax+26]
	and	eax, 4
	mov	esp, ebp
	pop	ebp
	ret	0
?InUse@SimPersistantClass@@QAEHXZ ENDP			; SimPersistantClass::InUse
_TEXT	ENDS
; Function compile flags: /Odtp
; File c:\users\zhitao li\documents\visual studio 2012\projects\freefalcon\sim\include\simdrive.h
;	COMDAT ?GetPlayerEntity@SimulationDriver@@QBEPAVSimMoverClass@@XZ
_TEXT	SEGMENT
_this$ = -4						; size = 4
?GetPlayerEntity@SimulationDriver@@QBEPAVSimMoverClass@@XZ PROC ; SimulationDriver::GetPlayerEntity, COMDAT
; _this$ = ecx

; 76   : 	SimMoverClass *GetPlayerEntity() const { return const_cast<SimMoverClass*>(playerEntity); }

	push	ebp
	mov	ebp, esp
	push	ecx
	mov	DWORD PTR _this$[ebp], ecx
	mov	eax, DWORD PTR _this$[ebp]
	mov	eax, DWORD PTR [eax+56]
	mov	esp, ebp
	pop	ebp
	ret	0
?GetPlayerEntity@SimulationDriver@@QBEPAVSimMoverClass@@XZ ENDP ; SimulationDriver::GetPlayerEntity
_TEXT	ENDS
; Function compile flags: /Odtp
; File c:\users\zhitao li\documents\visual studio 2012\projects\freefalcon\campaign\include\campbase.h
;	COMDAT ?IsAggregate@CampBaseClass@@QAEHXZ
_TEXT	SEGMENT
_this$ = -4						; size = 4
?IsAggregate@CampBaseClass@@QAEHXZ PROC			; CampBaseClass::IsAggregate, COMDAT
; _this$ = ecx

; 278  : 	int IsAggregate (void)						{	return local_flags & CBC_AGGREGATE; }

	push	ebp
	mov	ebp, esp
	push	ecx
	mov	DWORD PTR _this$[ebp], ecx
	mov	eax, DWORD PTR _this$[ebp]
	movsx	eax, WORD PTR [eax+156]
	and	eax, 128				; 00000080H
	mov	esp, ebp
	pop	ebp
	ret	0
?IsAggregate@CampBaseClass@@QAEHXZ ENDP			; CampBaseClass::IsAggregate
_TEXT	ENDS
; Function compile flags: /Odtp
; File c:\users\zhitao li\documents\visual studio 2012\projects\freefalcon\campaign\include\campbase.h
;	COMDAT ?GetOwner@CampBaseClass@@QAEEXZ
_TEXT	SEGMENT
_this$ = -4						; size = 4
?GetOwner@CampBaseClass@@QAEEXZ PROC			; CampBaseClass::GetOwner, COMDAT
; _this$ = ecx

; 241  : 	Control GetOwner (void)										{	return owner; }			// Old form

	push	ebp
	mov	ebp, esp
	push	ecx
	mov	DWORD PTR _this$[ebp], ecx
	mov	eax, DWORD PTR _this$[ebp]
	mov	al, BYTE PTR [eax+154]
	mov	esp, ebp
	pop	ebp
	ret	0
?GetOwner@CampBaseClass@@QAEEXZ ENDP			; CampBaseClass::GetOwner
_TEXT	ENDS
; Function compile flags: /Odtp
; File c:\users\zhitao li\documents\visual studio 2012\projects\freefalcon\campaign\include\campbase.h
;	COMDAT ?GetComponents@CampBaseClass@@QBEPAVTailInsertList@@XZ
_TEXT	SEGMENT
_this$ = -4						; size = 4
?GetComponents@CampBaseClass@@QBEPAVTailInsertList@@XZ PROC ; CampBaseClass::GetComponents, COMDAT
; _this$ = ecx

; 141  : 	TailInsertList *GetComponents() const		{	return components; }

	push	ebp
	mov	ebp, esp
	push	ecx
	mov	DWORD PTR _this$[ebp], ecx
	mov	eax, DWORD PTR _this$[ebp]
	mov	eax, DWORD PTR [eax+160]
	mov	esp, ebp
	pop	ebp
	ret	0
?GetComponents@CampBaseClass@@QBEPAVTailInsertList@@XZ ENDP ; CampBaseClass::GetComponents
_TEXT	ENDS
; Function compile flags: /Odtp
; File c:\users\zhitao li\documents\visual studio 2012\projects\freefalcon\falclib\include\falcsess.h
;	COMDAT ?GetGame@FalconSessionEntity@@QAEPAVFalconGameEntity@@XZ
_TEXT	SEGMENT
_this$ = -4						; size = 4
?GetGame@FalconSessionEntity@@QAEPAVFalconGameEntity@@XZ PROC ; FalconSessionEntity::GetGame, COMDAT
; _this$ = ecx

; 154  : 	FalconGameEntity* GetGame (void)              { return (FalconGameEntity*)VuSessionEntity::Game(); }

	push	ebp
	mov	ebp, esp
	push	ecx
	mov	DWORD PTR _this$[ebp], ecx
	mov	ecx, DWORD PTR _this$[ebp]
	call	?Game@VuSessionEntity@@QAEPAVVuGameEntity@@XZ ; VuSessionEntity::Game
	mov	esp, ebp
	pop	ebp
	ret	0
?GetGame@FalconSessionEntity@@QAEPAVFalconGameEntity@@XZ ENDP ; FalconSessionEntity::GetGame
_TEXT	ENDS
; Function compile flags: /Odtp
; File c:\users\zhitao li\documents\visual studio 2012\projects\freefalcon\sim\include\airframe.h
;	COMDAT ?IsSet@AirframeClass@@QBEHH@Z
_TEXT	SEGMENT
_this$ = -8						; size = 4
tv67 = -4						; size = 4
_testFlag$ = 8						; size = 4
?IsSet@AirframeClass@@QBEHH@Z PROC			; AirframeClass::IsSet, COMDAT
; _this$ = ecx

; 1216 : 	int IsSet (int testFlag) const {return flags & testFlag ? 1 : 0;}

	push	ebp
	mov	ebp, esp
	sub	esp, 8
	mov	DWORD PTR _this$[ebp], ecx
	mov	eax, DWORD PTR _this$[ebp]
	mov	ecx, DWORD PTR [eax+88]
	and	ecx, DWORD PTR _testFlag$[ebp]
	je	SHORT $LN3@IsSet
	mov	DWORD PTR tv67[ebp], 1
	jmp	SHORT $LN4@IsSet
$LN3@IsSet:
	mov	DWORD PTR tv67[ebp], 0
$LN4@IsSet:
	mov	eax, DWORD PTR tv67[ebp]
	mov	esp, ebp
	pop	ebp
	ret	4
?IsSet@AirframeClass@@QBEHH@Z ENDP			; AirframeClass::IsSet
_TEXT	ENDS
; Function compile flags: /Odtp
; File c:\users\zhitao li\documents\visual studio 2012\projects\freefalcon\sim\include\airframe.h
;	COMDAT ?ClearFlag@AirframeClass@@QAEXH@Z
_TEXT	SEGMENT
_this$ = -4						; size = 4
_newFlag$ = 8						; size = 4
?ClearFlag@AirframeClass@@QAEXH@Z PROC			; AirframeClass::ClearFlag, COMDAT
; _this$ = ecx

; 1215 : 	void ClearFlag (int newFlag) {flags &= ~newFlag;};

	push	ebp
	mov	ebp, esp
	push	ecx
	mov	DWORD PTR _this$[ebp], ecx
	mov	eax, DWORD PTR _newFlag$[ebp]
	not	eax
	mov	ecx, DWORD PTR _this$[ebp]
	and	eax, DWORD PTR [ecx+88]
	mov	edx, DWORD PTR _this$[ebp]
	mov	DWORD PTR [edx+88], eax
	mov	esp, ebp
	pop	ebp
	ret	4
?ClearFlag@AirframeClass@@QAEXH@Z ENDP			; AirframeClass::ClearFlag
_TEXT	ENDS
; Function compile flags: /Odtp
; File c:\users\zhitao li\documents\visual studio 2012\projects\freefalcon\sim\include\airframe.h
;	COMDAT ?SetFlag@AirframeClass@@QAEXH@Z
_TEXT	SEGMENT
_this$ = -4						; size = 4
_newFlag$ = 8						; size = 4
?SetFlag@AirframeClass@@QAEXH@Z PROC			; AirframeClass::SetFlag, COMDAT
; _this$ = ecx

; 1214 : 	void SetFlag (int newFlag) {flags |= newFlag;};

	push	ebp
	mov	ebp, esp
	push	ecx
	mov	DWORD PTR _this$[ebp], ecx
	mov	eax, DWORD PTR _this$[ebp]
	mov	ecx, DWORD PTR [eax+88]
	or	ecx, DWORD PTR _newFlag$[ebp]
	mov	edx, DWORD PTR _this$[ebp]
	mov	DWORD PTR [edx+88], ecx
	mov	esp, ebp
	pop	ebp
	ret	4
?SetFlag@AirframeClass@@QAEXH@Z ENDP			; AirframeClass::SetFlag
_TEXT	ENDS
; Function compile flags: /Odtp
; File c:\users\zhitao li\documents\visual studio 2012\projects\freefalcon\sim\include\airframe.h
;	COMDAT ?NumGear@AirframeClass@@QBEHXZ
_TEXT	SEGMENT
_this$ = -4						; size = 4
?NumGear@AirframeClass@@QBEHXZ PROC			; AirframeClass::NumGear, COMDAT
; _this$ = ecx

; 1206 : 	int NumGear(void) const	{return FloatToInt32(aeroDataset[vehicleIndex].inputData[AeroDataSet::NumGear]);}

	push	ebp
	mov	ebp, esp
	push	ecx
	mov	DWORD PTR _this$[ebp], ecx
	mov	eax, DWORD PTR _this$[ebp]
	movsx	ecx, WORD PTR [eax+92]
	imul	ecx, 220				; 000000dcH
	add	ecx, DWORD PTR ?aeroDataset@@3PAVAeroDataSet@@A ; aeroDataset
	mov	edx, 4
	imul	edx, 13					; 0000000dH
	push	ecx
	movss	xmm0, DWORD PTR [ecx+edx+16]
	movss	DWORD PTR [esp], xmm0
	call	?FloatToInt32@@YAHM@Z			; FloatToInt32
	add	esp, 4
	mov	esp, ebp
	pop	ebp
	ret	0
?NumGear@AirframeClass@@QBEHXZ ENDP			; AirframeClass::NumGear
_TEXT	ENDS
; Function compile flags: /Odtp
; File c:\users\zhitao li\documents\visual studio 2012\projects\freefalcon\sim\include\airframe.h
;	COMDAT ?Fuel@AirframeClass@@QAEMXZ
_TEXT	SEGMENT
_this$ = -4						; size = 4
?Fuel@AirframeClass@@QAEMXZ PROC			; AirframeClass::Fuel, COMDAT
; _this$ = ecx

; 1183 : 	float Fuel (void) {return fuel;};

	push	ebp
	mov	ebp, esp
	push	ecx
	mov	DWORD PTR _this$[ebp], ecx
	mov	eax, DWORD PTR _this$[ebp]
	fld	DWORD PTR [eax+20]
	mov	esp, ebp
	pop	ebp
	ret	0
?Fuel@AirframeClass@@QAEMXZ ENDP			; AirframeClass::Fuel
_TEXT	ENDS
; Function compile flags: /Odtp
; File c:\users\zhitao li\documents\visual studio 2012\projects\freefalcon\sim\aircraft\gndhndl.cpp
_TEXT	SEGMENT
$T2 = -128						; size = 8
$T3 = -120						; size = 8
$T4 = -112						; size = 8
$T5 = -104						; size = 8
tv383 = -96						; size = 4
tv388 = -92						; size = 4
tv378 = -88						; size = 4
tv373 = -84						; size = 4
tv393 = -80						; size = 4
$T6 = -76						; size = 4
tv368 = -72						; size = 4
_testP$ = -68						; size = 4
tv187 = -64						; size = 4
tv280 = -60						; size = 4
$T7 = -56						; size = 4
tv210 = -52						; size = 4
tv176 = -48						; size = 4
_radius$ = -44						; size = 4
_i$ = -40						; size = 4
_message$ = -36						; size = 4
_this$ = -32						; size = 4
_fpos$ = -28						; size = 12
__$ArrayPad$ = -16					; size = 4
__$EHRec$ = -12						; size = 12
?CheckPersistantCollision@AircraftClass@@QAEXXZ PROC	; AircraftClass::CheckPersistantCollision
; _this$ = ecx

; 518  : {

	push	ebp
	mov	ebp, esp
	push	-1
	push	__ehhandler$?CheckPersistantCollision@AircraftClass@@QAEXXZ
	mov	eax, DWORD PTR fs:0
	push	eax
	sub	esp, 116				; 00000074H
	mov	eax, DWORD PTR ___security_cookie
	xor	eax, ebp
	mov	DWORD PTR __$ArrayPad$[ebp], eax
	push	eax
	lea	eax, DWORD PTR __$EHRec$[ebp]
	mov	DWORD PTR fs:0, eax
	mov	DWORD PTR _this$[ebp], ecx

; 519  : 	int i;
; 520  : 	SimPersistantClass *testP;
; 521  : 	float radius;
; 522  : 	Tpoint fpos;
; 523  : 	FalconDamageMessage* message;
; 524  : 	
; 525  : 	
; 526  : 	for (i = 0; i < MAX_PERSISTANT_OBJECTS; i++){

	mov	DWORD PTR _i$[ebp], 0
	jmp	SHORT $LN6@CheckPersi
$LN5@CheckPersi:
	mov	eax, DWORD PTR _i$[ebp]
	add	eax, 1
	mov	DWORD PTR _i$[ebp], eax
$LN6@CheckPersi:
	cmp	DWORD PTR _i$[ebp], 5000		; 00001388H
	jge	$LN4@CheckPersi

; 527  : 		// get the object
; 528  : 		if (!PersistantObjects[i].InUse() || !PersistantObjects[i].drawPointer){

	mov	ecx, DWORD PTR _i$[ebp]
	imul	ecx, 28					; 0000001cH
	add	ecx, DWORD PTR ?PersistantObjects@@3PAVSimPersistantClass@@A ; PersistantObjects
	call	?InUse@SimPersistantClass@@QAEHXZ	; SimPersistantClass::InUse
	test	eax, eax
	je	SHORT $LN2@CheckPersi
	mov	ecx, DWORD PTR _i$[ebp]
	imul	ecx, 28					; 0000001cH
	mov	edx, DWORD PTR ?PersistantObjects@@3PAVSimPersistantClass@@A ; PersistantObjects
	cmp	DWORD PTR [edx+ecx+8], 0
	jne	SHORT $LN3@CheckPersi
$LN2@CheckPersi:

; 529  : 			continue;

	jmp	SHORT $LN5@CheckPersi
$LN3@CheckPersi:

; 530  : 		}
; 531  : 		
; 532  : 		testP = &PersistantObjects[i];

	mov	eax, DWORD PTR _i$[ebp]
	imul	eax, 28					; 0000001cH
	add	eax, DWORD PTR ?PersistantObjects@@3PAVSimPersistantClass@@A ; PersistantObjects
	mov	DWORD PTR _testP$[ebp], eax

; 533  : 		
; 534  : 		// get feature's radius and position
; 535  : 		radius = testP->drawPointer->Radius();

	mov	ecx, DWORD PTR _testP$[ebp]
	mov	ecx, DWORD PTR [ecx+8]
	call	?Radius@DrawableObject@@QBEMXZ		; DrawableObject::Radius
	fstp	DWORD PTR _radius$[ebp]

; 536  : 		testP->drawPointer->GetPosition( &fpos );

	lea	edx, DWORD PTR _fpos$[ebp]
	push	edx
	mov	eax, DWORD PTR _testP$[ebp]
	mov	ecx, DWORD PTR [eax+8]
	call	?GetPosition@DrawableObject@@QAEXPAUTpoint@@@Z ; DrawableObject::GetPosition

; 537  : 		
; 538  : 		// test with gross level bounds of object
; 539  : 		if (fabs (XPos() - fpos.x) < radius  &&
; 540  : 			fabs (YPos() - fpos.y) < radius  &&
; 541  : 			fabs (ZPos() - fpos.z) < radius  )

	mov	ecx, DWORD PTR _this$[ebp]
	call	?XPos@VuEntity@@QBEMXZ			; VuEntity::XPos
	fstp	DWORD PTR tv368[ebp]
	movss	xmm0, DWORD PTR tv368[ebp]
	subss	xmm0, DWORD PTR _fpos$[ebp]
	push	ecx
	movss	DWORD PTR [esp], xmm0
	call	?fabs@@YAMM@Z				; fabs
	add	esp, 4
	fstp	DWORD PTR tv373[ebp]
	movss	xmm0, DWORD PTR _radius$[ebp]
	comiss	xmm0, DWORD PTR tv373[ebp]
	jbe	$LN1@CheckPersi
	mov	ecx, DWORD PTR _this$[ebp]
	call	?YPos@VuEntity@@QBEMXZ			; VuEntity::YPos
	fstp	DWORD PTR tv378[ebp]
	movss	xmm0, DWORD PTR tv378[ebp]
	subss	xmm0, DWORD PTR _fpos$[ebp+4]
	push	ecx
	movss	DWORD PTR [esp], xmm0
	call	?fabs@@YAMM@Z				; fabs
	add	esp, 4
	fstp	DWORD PTR tv383[ebp]
	movss	xmm0, DWORD PTR _radius$[ebp]
	comiss	xmm0, DWORD PTR tv383[ebp]
	jbe	$LN1@CheckPersi
	mov	ecx, DWORD PTR _this$[ebp]
	call	?ZPos@VuEntity@@QBEMXZ			; VuEntity::ZPos
	fstp	DWORD PTR tv388[ebp]
	movss	xmm0, DWORD PTR tv388[ebp]
	subss	xmm0, DWORD PTR _fpos$[ebp+8]
	push	ecx
	movss	DWORD PTR [esp], xmm0
	call	?fabs@@YAMM@Z				; fabs
	add	esp, 4
	fstp	DWORD PTR tv393[ebp]
	movss	xmm0, DWORD PTR _radius$[ebp]
	comiss	xmm0, DWORD PTR tv393[ebp]
	jbe	$LN1@CheckPersi

; 542  : 		{
; 543  :             message = new FalconDamageMessage (Id(), FalconLocalGame );

	push	98					; 00000062H
	call	??2@YAPAXI@Z				; operator new
	add	esp, 4
	mov	DWORD PTR $T7[ebp], eax
	mov	DWORD PTR __$EHRec$[ebp+8], 0
	cmp	DWORD PTR $T7[ebp], 0
	je	SHORT $LN11@CheckPersi
	mov	ecx, OFFSET ?vuLocalSessionEntity@@3V?$VuBin@VVuSessionEntity@@@@A ; vuLocalSessionEntity
	call	??B?$VuBin@VVuSessionEntity@@@@QBE_NXZ	; VuBin<VuSessionEntity>::operator bool
	movzx	ecx, al
	test	ecx, ecx
	je	SHORT $LN9@CheckPersi
	mov	ecx, OFFSET ?vuLocalSessionEntity@@3V?$VuBin@VVuSessionEntity@@@@A ; vuLocalSessionEntity
	call	?get@?$VuBin@VVuSessionEntity@@@@QBEPAVVuSessionEntity@@XZ ; VuBin<VuSessionEntity>::get
	mov	ecx, eax
	call	?GetGame@FalconSessionEntity@@QAEPAVFalconGameEntity@@XZ ; FalconSessionEntity::GetGame
	mov	DWORD PTR tv176[ebp], eax
	jmp	SHORT $LN10@CheckPersi
$LN9@CheckPersi:
	mov	DWORD PTR tv176[ebp], 0
$LN10@CheckPersi:
	push	1
	mov	edx, DWORD PTR tv176[ebp]
	push	edx
	lea	eax, DWORD PTR $T5[ebp]
	push	eax
	mov	ecx, DWORD PTR _this$[ebp]
	call	?Id@VuEntity@@QBE?AVVU_ID@@XZ		; VuEntity::Id
	mov	ecx, DWORD PTR [eax+4]
	push	ecx
	mov	edx, DWORD PTR [eax]
	push	edx
	mov	ecx, DWORD PTR $T7[ebp]
	call	??0FalconDamageMessage@@QAE@VVU_ID@@PAVVuTargetEntity@@E@Z ; FalconDamageMessage::FalconDamageMessage
	mov	DWORD PTR tv187[ebp], eax
	jmp	SHORT $LN12@CheckPersi
$LN11@CheckPersi:
	mov	DWORD PTR tv187[ebp], 0
$LN12@CheckPersi:
	mov	eax, DWORD PTR tv187[ebp]
	mov	DWORD PTR $T6[ebp], eax
	mov	DWORD PTR __$EHRec$[ebp+8], -1
	mov	ecx, DWORD PTR $T6[ebp]
	mov	DWORD PTR _message$[ebp], ecx

; 544  :             message->dataBlock.fEntityID  = Id();

	lea	edx, DWORD PTR $T2[ebp]
	push	edx
	mov	ecx, DWORD PTR _this$[ebp]
	call	?Id@VuEntity@@QBE?AVVU_ID@@XZ		; VuEntity::Id
	mov	ecx, DWORD PTR [eax]
	mov	edx, DWORD PTR [eax+4]
	mov	eax, DWORD PTR _message$[ebp]
	mov	DWORD PTR [eax+74], ecx
	mov	DWORD PTR [eax+78], edx

; 545  : 			ShiAssert(GetCampaignObject());
; 546  :             message->dataBlock.fCampID = ((CampBaseClass*)(GetCampaignObject()))->GetCampID();

	mov	ecx, DWORD PTR _this$[ebp]
	call	?GetCampaignObject@SimBaseClass@@QAEPAVCampBaseClass@@XZ ; SimBaseClass::GetCampaignObject
	mov	DWORD PTR tv210[ebp], eax
	mov	ecx, DWORD PTR tv210[ebp]
	mov	edx, DWORD PTR [ecx]
	mov	ecx, DWORD PTR tv210[ebp]
	mov	eax, DWORD PTR [edx+112]
	call	eax
	mov	ecx, DWORD PTR _message$[ebp]
	mov	WORD PTR [ecx+82], ax

; 547  :             message->dataBlock.fSide   = ((CampBaseClass*)(GetCampaignObject()))->GetOwner();

	mov	ecx, DWORD PTR _this$[ebp]
	call	?GetCampaignObject@SimBaseClass@@QAEPAVCampBaseClass@@XZ ; SimBaseClass::GetCampaignObject
	mov	ecx, eax
	call	?GetOwner@CampBaseClass@@QAEEXZ		; CampBaseClass::GetOwner
	mov	edx, DWORD PTR _message$[ebp]
	mov	BYTE PTR [edx+87], al

; 548  :             message->dataBlock.fPilotID   = pilotSlot;

	mov	eax, DWORD PTR _message$[ebp]
	mov	ecx, DWORD PTR _this$[ebp]
	mov	dl, BYTE PTR [ecx+665]
	mov	BYTE PTR [eax+84], dl

; 549  :             message->dataBlock.fIndex     = Type();

	mov	ecx, DWORD PTR _this$[ebp]
	call	?Type@VuEntity@@QBEGXZ			; VuEntity::Type
	mov	ecx, DWORD PTR _message$[ebp]
	mov	WORD PTR [ecx+85], ax

; 550  :             message->dataBlock.fWeaponID  = Type();

	mov	ecx, DWORD PTR _this$[ebp]
	call	?Type@VuEntity@@QBEGXZ			; VuEntity::Type
	mov	edx, DWORD PTR _message$[ebp]
	mov	WORD PTR [edx+88], ax

; 551  :             message->dataBlock.fWeaponUID = Id();

	lea	eax, DWORD PTR $T3[ebp]
	push	eax
	mov	ecx, DWORD PTR _this$[ebp]
	call	?Id@VuEntity@@QBE?AVVU_ID@@XZ		; VuEntity::Id
	mov	ecx, DWORD PTR [eax]
	mov	edx, DWORD PTR [eax+4]
	mov	eax, DWORD PTR _message$[ebp]
	mov	DWORD PTR [eax+90], ecx
	mov	DWORD PTR [eax+94], edx

; 552  : 			
; 553  :             message->dataBlock.dEntityID  = Id();

	lea	ecx, DWORD PTR $T4[ebp]
	push	ecx
	mov	ecx, DWORD PTR _this$[ebp]
	call	?Id@VuEntity@@QBE?AVVU_ID@@XZ		; VuEntity::Id
	mov	edx, DWORD PTR [eax]
	mov	eax, DWORD PTR [eax+4]
	mov	ecx, DWORD PTR _message$[ebp]
	mov	DWORD PTR [ecx+60], edx
	mov	DWORD PTR [ecx+64], eax

; 554  :             message->dataBlock.dCampID = ((CampBaseClass*)(GetCampaignObject()))->GetCampID();

	mov	ecx, DWORD PTR _this$[ebp]
	call	?GetCampaignObject@SimBaseClass@@QAEPAVCampBaseClass@@XZ ; SimBaseClass::GetCampaignObject
	mov	DWORD PTR tv280[ebp], eax
	mov	edx, DWORD PTR tv280[ebp]
	mov	eax, DWORD PTR [edx]
	mov	ecx, DWORD PTR tv280[ebp]
	mov	edx, DWORD PTR [eax+112]
	call	edx
	mov	ecx, DWORD PTR _message$[ebp]
	mov	WORD PTR [ecx+68], ax

; 555  :             message->dataBlock.dSide   = ((CampBaseClass*)(GetCampaignObject()))->GetOwner();

	mov	ecx, DWORD PTR _this$[ebp]
	call	?GetCampaignObject@SimBaseClass@@QAEPAVCampBaseClass@@XZ ; SimBaseClass::GetCampaignObject
	mov	ecx, eax
	call	?GetOwner@CampBaseClass@@QAEEXZ		; CampBaseClass::GetOwner
	mov	edx, DWORD PTR _message$[ebp]
	mov	BYTE PTR [edx+73], al

; 556  :             message->dataBlock.dPilotID   = pilotSlot;

	mov	eax, DWORD PTR _message$[ebp]
	mov	ecx, DWORD PTR _this$[ebp]
	mov	dl, BYTE PTR [ecx+665]
	mov	BYTE PTR [eax+70], dl

; 557  :             message->dataBlock.dIndex     = Type();

	mov	ecx, DWORD PTR _this$[ebp]
	call	?Type@VuEntity@@QBEGXZ			; VuEntity::Type
	mov	ecx, DWORD PTR _message$[ebp]
	mov	WORD PTR [ecx+71], ax

; 558  :             message->dataBlock.damageType = FalconDamageType::GroundCollisionDamage;

	mov	edx, DWORD PTR _message$[ebp]
	mov	DWORD PTR [edx+48], 5

; 559  : 			
; 560  :             // for now use maxStrength as amount of damage.
; 561  :             // later we'll want to add other factors into the equation --
; 562  :             // on ground, speed, etc....
; 563  :             message->dataBlock.damageStrength = maxStrength * af->vt/250.0f;

	mov	eax, DWORD PTR _this$[ebp]
	mov	ecx, DWORD PTR [eax+932]
	mov	edx, DWORD PTR _this$[ebp]
	movss	xmm0, DWORD PTR [edx+244]
	mulss	xmm0, DWORD PTR [ecx+1120]
	divss	xmm0, DWORD PTR __real@437a0000
	mov	eax, DWORD PTR _message$[ebp]
	movss	DWORD PTR [eax+52], xmm0

; 564  :             message->dataBlock.damageRandomFact = PRANDFloat();

	call	?PRANDFloat@@YAMXZ			; PRANDFloat
	mov	ecx, DWORD PTR _message$[ebp]
	fstp	DWORD PTR [ecx+56]

; 565  : 			message->RequestOutOfBandTransmit ();

	mov	ecx, DWORD PTR _message$[ebp]
	call	?RequestOutOfBandTransmit@VuMessage@@QAEXXZ ; VuMessage::RequestOutOfBandTransmit

; 566  :             FalconSendMessage (message,TRUE);

	push	1
	mov	edx, DWORD PTR _message$[ebp]
	push	edx
	call	?FalconSendMessage@@YAXPAVVuMessage@@H@Z ; FalconSendMessage
	add	esp, 8

; 567  : 			
; 568  :             // "bounce" the aircraft
; 569  :             af->z -= 5.0f;

	mov	eax, DWORD PTR _this$[ebp]
	mov	ecx, DWORD PTR [eax+932]
	movss	xmm0, DWORD PTR [ecx+1116]
	subss	xmm0, DWORD PTR __real@40a00000
	mov	edx, DWORD PTR _this$[ebp]
	mov	eax, DWORD PTR [edx+932]
	movss	DWORD PTR [eax+1116], xmm0

; 570  : 			
; 571  : 			return;

	jmp	SHORT $LN7@CheckPersi
$LN1@CheckPersi:

; 572  : 		}
; 573  : 	}

	jmp	$LN5@CheckPersi
$LN4@CheckPersi:
$LN7@CheckPersi:

; 574  : 	
; 575  : }

	mov	ecx, DWORD PTR __$EHRec$[ebp]
	mov	DWORD PTR fs:0, ecx
	pop	ecx
	mov	ecx, DWORD PTR __$ArrayPad$[ebp]
	xor	ecx, ebp
	call	@__security_check_cookie@4
	mov	esp, ebp
	pop	ebp
	ret	0
_TEXT	ENDS
text$x	SEGMENT
__unwindfunclet$?CheckPersistantCollision@AircraftClass@@QAEXXZ$0:
	mov	eax, DWORD PTR $T7[ebp]
	push	eax
	call	??3@YAXPAX@Z				; operator delete
	pop	ecx
	ret	0
__ehhandler$?CheckPersistantCollision@AircraftClass@@QAEXXZ:
	mov	edx, DWORD PTR [esp+8]
	lea	eax, DWORD PTR [edx+12]
	mov	ecx, DWORD PTR [edx-120]
	xor	ecx, eax
	call	@__security_check_cookie@4
	mov	ecx, DWORD PTR [edx-4]
	xor	ecx, eax
	call	@__security_check_cookie@4
	mov	eax, OFFSET __ehfuncinfo$?CheckPersistantCollision@AircraftClass@@QAEXXZ
	jmp	___CxxFrameHandler3
text$x	ENDS
?CheckPersistantCollision@AircraftClass@@QAEXXZ ENDP	; AircraftClass::CheckPersistantCollision
; Function compile flags: /Odtp
; File c:\users\zhitao li\documents\visual studio 2012\projects\freefalcon\sim\aircraft\gndhndl.cpp
_TEXT	SEGMENT
tv532 = -80						; size = 4
tv517 = -76						; size = 4
tv534 = -72						; size = 4
tv513 = -68						; size = 4
tv509 = -64						; size = 4
tv530 = -60						; size = 4
tv505 = -56						; size = 4
tv465 = -52						; size = 4
tv453 = -48						; size = 4
tv420 = -44						; size = 4
_nextY$ = -40						; size = 4
tv222 = -36						; size = 4
_nextX$ = -32						; size = 4
tv211 = -28						; size = 4
tv185 = -24						; size = 4
tv174 = -20						; size = 4
_psi$ = -16						; size = 4
_carrier$ = -12						; size = 4
_ent$ = -8						; size = 4
_this$ = -4						; size = 4
_initData$ = 8						; size = 4
?OnGroundInit@AircraftClass@@QAEXPAVSimInitDataClass@@@Z PROC ; AircraftClass::OnGroundInit
; _this$ = ecx

; 36   : {

	push	ebp
	mov	ebp, esp
	sub	esp, 80					; 00000050H
	mov	DWORD PTR _this$[ebp], ecx

; 37   : 	float nextX, nextY;
; 38   : 	float psi;
; 39   : 	CampEntity ent;
; 40   : 	SimBaseClass *carrier;
; 41   : 	
; 42   : 	// set lights and gear
; 43   : 	SetAcStatusBits(
; 44   : 		ACSTATUS_EXT_LIGHTS | ACSTATUS_GEAR_DOWN | ACSTATUS_EXT_NAVLIGHTS | ACSTATUS_EXT_NAVLIGHTSFLASH
; 45   : 	);

	push	78					; 0000004eH
	mov	ecx, DWORD PTR _this$[ebp]
	call	?SetAcStatusBits@AircraftClass@@QAEXH@Z	; AircraftClass::SetAcStatusBits

; 46   : 
; 47   : 	//curGroundPt = initData->ptIndex - 1;
; 48   : 	af->ClearFlag(AirframeClass::InAir);

	push	2
	mov	eax, DWORD PTR _this$[ebp]
	mov	ecx, DWORD PTR [eax+932]
	call	?ClearFlag@AirframeClass@@QAEXH@Z	; AirframeClass::ClearFlag

; 49   : 	af->SetFlag (AirframeClass::Planted);

	push	4096					; 00001000H
	mov	ecx, DWORD PTR _this$[ebp]
	mov	ecx, DWORD PTR [ecx+932]
	call	?SetFlag@AirframeClass@@QAEXH@Z		; AirframeClass::SetFlag

; 50   : 	af->SetFlag (AirframeClass::ThrottleCheck);

	push	65536					; 00010000H
	mov	edx, DWORD PTR _this$[ebp]
	mov	ecx, DWORD PTR [edx+932]
	call	?SetFlag@AirframeClass@@QAEXH@Z		; AirframeClass::SetFlag

; 51   : 	af->SetFlag (AirframeClass::EngineOff);

	push	32768					; 00008000H
	mov	eax, DWORD PTR _this$[ebp]
	mov	ecx, DWORD PTR [eax+932]
	call	?SetFlag@AirframeClass@@QAEXH@Z		; AirframeClass::SetFlag

; 52   : 	af->SetFlag(AirframeClass::EngineOff2);//TJL 01/22/04 multi-engine

	push	536870912				; 20000000H
	mov	ecx, DWORD PTR _this$[ebp]
	mov	ecx, DWORD PTR [ecx+932]
	call	?SetFlag@AirframeClass@@QAEXH@Z		; AirframeClass::SetFlag

; 53   : 	af->zdot = 0.0F;

	mov	edx, DWORD PTR _this$[ebp]
	mov	eax, DWORD PTR [edx+932]
	movss	xmm0, DWORD PTR __real@00000000
	movss	DWORD PTR [eax+1204], xmm0

; 54   : 	af->gearPos = 1.0f;

	mov	ecx, DWORD PTR _this$[ebp]
	mov	edx, DWORD PTR [ecx+932]
	movss	xmm0, DWORD PTR __real@3f800000
	movss	DWORD PTR [edx+1552], xmm0

; 55   : 	SetFlag (ON_GROUND);

	push	128					; 00000080H
	mov	ecx, DWORD PTR _this$[ebp]
	call	?SetFlag@SimBaseClass@@QAEXH@Z		; SimBaseClass::SetFlag

; 56   : 	
; 57   : 	// Find our airbase;
; 58   : 	ent = ((Flight)(initData->campBase))->GetUnitAirbase();

	mov	eax, DWORD PTR _initData$[ebp]
	mov	ecx, DWORD PTR [eax+12]
	mov	edx, DWORD PTR _initData$[ebp]
	mov	eax, DWORD PTR [ecx]
	mov	ecx, DWORD PTR [edx+12]
	mov	edx, DWORD PTR [eax+704]
	call	edx
	mov	DWORD PTR _ent$[ebp], eax

; 59   : 
; 60   : 	// check to see if our entity airbase is really a task force
; 61   : 	if ((ent) && (ent->IsTaskForce())){

	cmp	DWORD PTR _ent$[ebp], 0
	je	$LN5@OnGroundIn
	mov	eax, DWORD PTR _ent$[ebp]
	mov	edx, DWORD PTR [eax]
	mov	ecx, DWORD PTR _ent$[ebp]
	mov	eax, DWORD PTR [edx+264]
	call	eax
	test	eax, eax
	je	$LN5@OnGroundIn

; 62   : 		// try and get the carrier's position, otherwise just use the
; 63   : 		// task force position
; 64   : 		if ( !ent->IsAggregate() && ent->GetComponents() && (carrier = ent->GetComponentLead()) != NULL ){

	mov	ecx, DWORD PTR _ent$[ebp]
	call	?IsAggregate@CampBaseClass@@QAEHXZ	; CampBaseClass::IsAggregate
	test	eax, eax
	jne	$LN4@OnGroundIn
	mov	ecx, DWORD PTR _ent$[ebp]
	call	?GetComponents@CampBaseClass@@QBEPAVTailInsertList@@XZ ; CampBaseClass::GetComponents
	test	eax, eax
	je	$LN4@OnGroundIn
	mov	ecx, DWORD PTR _ent$[ebp]
	call	?GetComponentLead@CampBaseClass@@QAEPAVSimBaseClass@@XZ ; CampBaseClass::GetComponentLead
	mov	DWORD PTR _carrier$[ebp], eax
	cmp	DWORD PTR _carrier$[ebp], 0
	je	$LN4@OnGroundIn

; 65   : 			psi = carrier->Yaw();

	mov	ecx, DWORD PTR _carrier$[ebp]
	call	?Yaw@VuEntity@@QBEMXZ			; VuEntity::Yaw
	fstp	DWORD PTR _psi$[ebp]

; 66   : 			af->initialX = nextX = af->x = initData->x = carrier->XPos();

	mov	ecx, DWORD PTR _carrier$[ebp]
	call	?XPos@VuEntity@@QBEMXZ			; VuEntity::XPos
	fstp	DWORD PTR tv174[ebp]
	mov	ecx, DWORD PTR _initData$[ebp]
	movss	xmm0, DWORD PTR tv174[ebp]
	movss	DWORD PTR [ecx+56], xmm0
	mov	edx, DWORD PTR _this$[ebp]
	mov	eax, DWORD PTR [edx+932]
	movss	xmm0, DWORD PTR tv174[ebp]
	movss	DWORD PTR [eax+1108], xmm0
	movss	xmm0, DWORD PTR tv174[ebp]
	movss	DWORD PTR _nextX$[ebp], xmm0
	mov	ecx, DWORD PTR _this$[ebp]
	mov	edx, DWORD PTR [ecx+932]
	movss	xmm0, DWORD PTR _nextX$[ebp]
	movss	DWORD PTR [edx+1316], xmm0

; 67   : 			af->initialY = nextY = af->y = initData->y = carrier->YPos();

	mov	ecx, DWORD PTR _carrier$[ebp]
	call	?YPos@VuEntity@@QBEMXZ			; VuEntity::YPos
	fstp	DWORD PTR tv185[ebp]
	mov	eax, DWORD PTR _initData$[ebp]
	movss	xmm0, DWORD PTR tv185[ebp]
	movss	DWORD PTR [eax+60], xmm0
	mov	ecx, DWORD PTR _this$[ebp]
	mov	edx, DWORD PTR [ecx+932]
	movss	xmm0, DWORD PTR tv185[ebp]
	movss	DWORD PTR [edx+1112], xmm0
	movss	xmm0, DWORD PTR tv185[ebp]
	movss	DWORD PTR _nextY$[ebp], xmm0
	mov	eax, DWORD PTR _this$[ebp]
	mov	ecx, DWORD PTR [eax+932]
	movss	xmm0, DWORD PTR _nextY$[ebp]
	movss	DWORD PTR [ecx+1320], xmm0

; 68   : 	   		initData->z = OTWDriver.GetGroundLevel(initData->x, initData->y) -20.0f;

	push	0
	mov	edx, DWORD PTR _initData$[ebp]
	push	ecx
	movss	xmm0, DWORD PTR [edx+60]
	movss	DWORD PTR [esp], xmm0
	mov	eax, DWORD PTR _initData$[ebp]
	push	ecx
	movss	xmm0, DWORD PTR [eax+56]
	movss	DWORD PTR [esp], xmm0
	mov	ecx, OFFSET ?OTWDriver@@3VOTWDriverClass@@A ; OTWDriver
	call	?GetGroundLevel@OTWDriverClass@@QAEMMMPAUTpoint@@@Z ; OTWDriverClass::GetGroundLevel
	fstp	DWORD PTR tv420[ebp]
	movss	xmm0, DWORD PTR tv420[ebp]
	subss	xmm0, DWORD PTR __real@41a00000
	mov	ecx, DWORD PTR _initData$[ebp]
	movss	DWORD PTR [ecx+64], xmm0

; 69   : 		}
; 70   : 		else {

	jmp	$LN3@OnGroundIn
$LN4@OnGroundIn:

; 71   : 			psi = ent->Yaw();

	mov	ecx, DWORD PTR _ent$[ebp]
	call	?Yaw@VuEntity@@QBEMXZ			; VuEntity::Yaw
	fstp	DWORD PTR _psi$[ebp]

; 72   : 			af->initialX = nextX = af->x = initData->x = ent->XPos();

	mov	ecx, DWORD PTR _ent$[ebp]
	call	?XPos@VuEntity@@QBEMXZ			; VuEntity::XPos
	fstp	DWORD PTR tv211[ebp]
	mov	edx, DWORD PTR _initData$[ebp]
	movss	xmm0, DWORD PTR tv211[ebp]
	movss	DWORD PTR [edx+56], xmm0
	mov	eax, DWORD PTR _this$[ebp]
	mov	ecx, DWORD PTR [eax+932]
	movss	xmm0, DWORD PTR tv211[ebp]
	movss	DWORD PTR [ecx+1108], xmm0
	movss	xmm0, DWORD PTR tv211[ebp]
	movss	DWORD PTR _nextX$[ebp], xmm0
	mov	edx, DWORD PTR _this$[ebp]
	mov	eax, DWORD PTR [edx+932]
	movss	xmm0, DWORD PTR _nextX$[ebp]
	movss	DWORD PTR [eax+1316], xmm0

; 73   : 			af->initialY = nextY = af->y = initData->y = ent->YPos();

	mov	ecx, DWORD PTR _ent$[ebp]
	call	?YPos@VuEntity@@QBEMXZ			; VuEntity::YPos
	fstp	DWORD PTR tv222[ebp]
	mov	ecx, DWORD PTR _initData$[ebp]
	movss	xmm0, DWORD PTR tv222[ebp]
	movss	DWORD PTR [ecx+60], xmm0
	mov	edx, DWORD PTR _this$[ebp]
	mov	eax, DWORD PTR [edx+932]
	movss	xmm0, DWORD PTR tv222[ebp]
	movss	DWORD PTR [eax+1112], xmm0
	movss	xmm0, DWORD PTR tv222[ebp]
	movss	DWORD PTR _nextY$[ebp], xmm0
	mov	ecx, DWORD PTR _this$[ebp]
	mov	edx, DWORD PTR [ecx+932]
	movss	xmm0, DWORD PTR _nextY$[ebp]
	movss	DWORD PTR [edx+1320], xmm0

; 74   : 	   		initData->z = OTWDriver.GetGroundLevel(initData->x, initData->y) -20.0f;

	push	0
	mov	eax, DWORD PTR _initData$[ebp]
	push	ecx
	movss	xmm0, DWORD PTR [eax+60]
	movss	DWORD PTR [esp], xmm0
	mov	ecx, DWORD PTR _initData$[ebp]
	push	ecx
	movss	xmm0, DWORD PTR [ecx+56]
	movss	DWORD PTR [esp], xmm0
	mov	ecx, OFFSET ?OTWDriver@@3VOTWDriverClass@@A ; OTWDriver
	call	?GetGroundLevel@OTWDriverClass@@QAEMMMPAUTpoint@@@Z ; OTWDriverClass::GetGroundLevel
	fstp	DWORD PTR tv453[ebp]
	movss	xmm0, DWORD PTR tv453[ebp]
	subss	xmm0, DWORD PTR __real@41a00000
	mov	edx, DWORD PTR _initData$[ebp]
	movss	DWORD PTR [edx+64], xmm0
$LN3@OnGroundIn:

; 75   : 		}
; 76   : 	}
; 77   : 	else {

	jmp	SHORT $LN2@OnGroundIn
$LN5@OnGroundIn:

; 78   : 		// Set the heading
; 79   : 		//TranslatePointData(ent, initData->ptIndex - 1, &nextX, &nextY);
; 80   : 		//psi = atan2 (nextY-initData->y, nextX-initData->x);
; 81   : 		psi = initData->heading;

	mov	eax, DWORD PTR _initData$[ebp]
	movss	xmm0, DWORD PTR [eax+68]
	movss	DWORD PTR _psi$[ebp], xmm0
$LN2@OnGroundIn:

; 82   : 	}
; 83   : 	
; 84   : 	// Set position and velocity
; 85   : 	//   initData->z = OTWDriver.GetGroundLevel(initData->x, initData->y);
; 86   : 	af->initialPsi = psi;

	mov	ecx, DWORD PTR _this$[ebp]
	mov	edx, DWORD PTR [ecx+932]
	movss	xmm0, DWORD PTR _psi$[ebp]
	movss	DWORD PTR [edx+1332], xmm0

; 87   : 	af->initialMach = 0.0F;

	mov	eax, DWORD PTR _this$[ebp]
	mov	ecx, DWORD PTR [eax+932]
	movss	xmm0, DWORD PTR __real@00000000
	movss	DWORD PTR [ecx+1328], xmm0

; 88   : 	// sfr: try to fix sink
; 89   : 	af->initialZ    = initData->z - af->CheckHeight();

	mov	edx, DWORD PTR _this$[ebp]
	mov	ecx, DWORD PTR [edx+932]
	call	?CheckHeight@AirframeClass@@QBEMXZ	; AirframeClass::CheckHeight
	fstp	DWORD PTR tv465[ebp]
	mov	eax, DWORD PTR _initData$[ebp]
	movss	xmm0, DWORD PTR [eax+64]
	subss	xmm0, DWORD PTR tv465[ebp]
	mov	ecx, DWORD PTR _this$[ebp]
	mov	edx, DWORD PTR [ecx+932]
	movss	DWORD PTR [edx+1324], xmm0

; 90   : 	SetPosition (initData->x, initData->y, af->initialZ);

	mov	eax, DWORD PTR _this$[ebp]
	mov	ecx, DWORD PTR [eax+932]
	push	ecx
	movss	xmm0, DWORD PTR [ecx+1324]
	movss	DWORD PTR [esp], xmm0
	mov	edx, DWORD PTR _initData$[ebp]
	push	ecx
	movss	xmm0, DWORD PTR [edx+60]
	movss	DWORD PTR [esp], xmm0
	mov	eax, DWORD PTR _initData$[ebp]
	push	ecx
	movss	xmm0, DWORD PTR [eax+56]
	movss	DWORD PTR [esp], xmm0
	mov	ecx, DWORD PTR _this$[ebp]
	call	?SetPosition@VuEntity@@QAEXMMM@Z	; VuEntity::SetPosition

; 91   : 	SetYPR(psi, 0.0F, 0.0F);

	push	ecx
	movss	xmm0, DWORD PTR __real@00000000
	movss	DWORD PTR [esp], xmm0
	push	ecx
	movss	xmm0, DWORD PTR __real@00000000
	movss	DWORD PTR [esp], xmm0
	push	ecx
	movss	xmm0, DWORD PTR _psi$[ebp]
	movss	DWORD PTR [esp], xmm0
	mov	ecx, DWORD PTR _this$[ebp]
	call	?SetYPR@VuEntity@@QAEXMMM@Z		; VuEntity::SetYPR

; 92   : 	SetDelta (0.0f, 0.0F, 0.0F);

	push	ecx
	movss	xmm0, DWORD PTR __real@00000000
	movss	DWORD PTR [esp], xmm0
	push	ecx
	movss	xmm0, DWORD PTR __real@00000000
	movss	DWORD PTR [esp], xmm0
	push	ecx
	movss	xmm0, DWORD PTR __real@00000000
	movss	DWORD PTR [esp], xmm0
	mov	ecx, DWORD PTR _this$[ebp]
	call	?SetDelta@VuEntity@@QAEXMMM@Z		; VuEntity::SetDelta

; 93   : 	af->xdot = XDelta();

	mov	ecx, DWORD PTR _this$[ebp]
	call	?XDelta@VuEntity@@QBEMXZ		; VuEntity::XDelta
	mov	ecx, DWORD PTR _this$[ebp]
	mov	edx, DWORD PTR [ecx+932]
	fstp	DWORD PTR [edx+1196]

; 94   : 	af->ydot = YDelta();

	mov	ecx, DWORD PTR _this$[ebp]
	call	?YDelta@VuEntity@@QBEMXZ		; VuEntity::YDelta
	mov	eax, DWORD PTR _this$[ebp]
	mov	ecx, DWORD PTR [eax+932]
	fstp	DWORD PTR [ecx+1200]

; 95   : 	af->zdot = ZDelta();

	mov	ecx, DWORD PTR _this$[ebp]
	call	?ZDelta@VuEntity@@QBEMXZ		; VuEntity::ZDelta
	mov	edx, DWORD PTR _this$[ebp]
	mov	eax, DWORD PTR [edx+932]
	fstp	DWORD PTR [eax+1204]

; 96   : 	af->vt = 0.0F;

	mov	ecx, DWORD PTR _this$[ebp]
	mov	edx, DWORD PTR [ecx+932]
	movss	xmm0, DWORD PTR __real@00000000
	movss	DWORD PTR [edx+1120], xmm0

; 97   : 	if (isDigital){

	mov	eax, DWORD PTR _this$[ebp]
	cmp	DWORD PTR [eax+948], 0
	je	SHORT $LN1@OnGroundIn

; 98   : 		af->initialMach = (float)sqrt(XDelta()*XDelta() + YDelta()*YDelta());

	mov	ecx, DWORD PTR _this$[ebp]
	call	?XDelta@VuEntity@@QBEMXZ		; VuEntity::XDelta
	fstp	DWORD PTR tv505[ebp]
	movss	xmm0, DWORD PTR tv505[ebp]
	mov	ecx, DWORD PTR _this$[ebp]
	movss	DWORD PTR tv530[ebp], xmm0
	call	?XDelta@VuEntity@@QBEMXZ		; VuEntity::XDelta
	fstp	DWORD PTR tv509[ebp]
	movss	xmm0, DWORD PTR tv530[ebp]
	mulss	xmm0, DWORD PTR tv509[ebp]
	mov	ecx, DWORD PTR _this$[ebp]
	movss	DWORD PTR tv532[ebp], xmm0
	call	?YDelta@VuEntity@@QBEMXZ		; VuEntity::YDelta
	fstp	DWORD PTR tv513[ebp]
	movss	xmm0, DWORD PTR tv513[ebp]
	mov	ecx, DWORD PTR _this$[ebp]
	movss	DWORD PTR tv534[ebp], xmm0
	call	?YDelta@VuEntity@@QBEMXZ		; VuEntity::YDelta
	fstp	DWORD PTR tv517[ebp]
	movss	xmm0, DWORD PTR tv534[ebp]
	mulss	xmm0, DWORD PTR tv517[ebp]
	movss	xmm1, DWORD PTR tv532[ebp]
	addss	xmm1, xmm0
	push	ecx
	movss	DWORD PTR [esp], xmm1
	call	?SqrtSSE@@YAMM@Z			; SqrtSSE
	add	esp, 4
	mov	ecx, DWORD PTR _this$[ebp]
	mov	edx, DWORD PTR [ecx+932]
	fstp	DWORD PTR [edx+1328]
$LN1@OnGroundIn:

; 99   : 	}
; 100  : 	SetYPRDelta (0.0F, 0.0F, 0.0F);

	push	ecx
	movss	xmm0, DWORD PTR __real@00000000
	movss	DWORD PTR [esp], xmm0
	push	ecx
	movss	xmm0, DWORD PTR __real@00000000
	movss	DWORD PTR [esp], xmm0
	push	ecx
	movss	xmm0, DWORD PTR __real@00000000
	movss	DWORD PTR [esp], xmm0
	mov	ecx, DWORD PTR _this$[ebp]
	call	?SetYPRDelta@VuEntity@@QAEXMMM@Z	; VuEntity::SetYPRDelta

; 101  : }

	mov	esp, ebp
	pop	ebp
	ret	4
?OnGroundInit@AircraftClass@@QAEXPAVSimInitDataClass@@@Z ENDP ; AircraftClass::OnGroundInit
_TEXT	ENDS
; Function compile flags: /Odtp
; File c:\users\zhitao li\documents\visual studio 2012\projects\freefalcon\sim\aircraft\gndhndl.cpp
_TEXT	SEGMENT
$T2 = -144						; size = 8
$T3 = -136						; size = 8
$T4 = -128						; size = 8
$T5 = -120						; size = 8
$T6 = -112						; size = 8
$T7 = -104						; size = 8
$T8 = -96						; size = 8
$T9 = -88						; size = 8
$T10 = -80						; size = 4
$T11 = -76						; size = 4
tv163 = -72						; size = 4
tv336 = -68						; size = 4
tv436 = -64						; size = 4
tv243 = -60						; size = 4
tv152 = -56						; size = 4
tv299 = -52						; size = 4
tv347 = -48						; size = 4
tv182 = -44						; size = 4
$T12 = -40						; size = 4
$T13 = -36						; size = 4
tv483 = -32						; size = 4
tv370 = -28						; size = 4
_hitFeature$ = -24					; size = 4
_message$ = -20						; size = 4
_this$ = -16						; size = 4
__$EHRec$ = -12						; size = 12
_groundZ$ = 8						; size = 4
?GroundFeatureCheck@AircraftClass@@QAEXM@Z PROC		; AircraftClass::GroundFeatureCheck
; _this$ = ecx

; 432  : {

	push	ebp
	mov	ebp, esp
	push	-1
	push	__ehhandler$?GroundFeatureCheck@AircraftClass@@QAEXM@Z
	mov	eax, DWORD PTR fs:0
	push	eax
	sub	esp, 132				; 00000084H
	mov	eax, DWORD PTR ___security_cookie
	xor	eax, ebp
	push	eax
	lea	eax, DWORD PTR __$EHRec$[ebp]
	mov	DWORD PTR fs:0, eax
	mov	DWORD PTR _this$[ebp], ecx

; 433  : 	FalconDamageMessage* message;
; 434  : 	SimBaseClass *hitFeature;
; 435  : 	
; 436  : 	if (OnGround() && af->vcas <= 50.0f  && gCommsMgr && gCommsMgr->Online()) // JB 010107

	mov	eax, DWORD PTR _this$[ebp]
	mov	edx, DWORD PTR [eax]
	mov	ecx, DWORD PTR _this$[ebp]
	mov	eax, DWORD PTR [edx+148]
	call	eax
	test	eax, eax
	je	SHORT $LN4@GroundFeat
	mov	ecx, DWORD PTR _this$[ebp]
	mov	edx, DWORD PTR [ecx+932]
	movss	xmm0, DWORD PTR __real@42480000
	comiss	xmm0, DWORD PTR [edx+1124]
	jb	SHORT $LN4@GroundFeat
	cmp	DWORD PTR ?gCommsMgr@@3PAVUIComms@@A, 0	; gCommsMgr
	je	SHORT $LN4@GroundFeat
	mov	ecx, DWORD PTR ?gCommsMgr@@3PAVUIComms@@A ; gCommsMgr
	call	?Online@UIComms@@QAEHXZ			; UIComms::Online
	test	eax, eax
	je	SHORT $LN4@GroundFeat

; 437  : 		return; // JB 010107

	jmp	$LN5@GroundFeat
$LN4@GroundFeat:

; 438  : 
; 439  : 	// Decide if we hit anything
; 440  : 	hitFeature = FeatureCollision( groundZ );

	push	ecx
	movss	xmm0, DWORD PTR _groundZ$[ebp]
	movss	DWORD PTR [esp], xmm0
	mov	eax, DWORD PTR _this$[ebp]
	mov	edx, DWORD PTR [eax]
	mov	ecx, DWORD PTR _this$[ebp]
	mov	eax, DWORD PTR [edx+444]
	call	eax
	mov	DWORD PTR _hitFeature$[ebp], eax

; 441  : 	if (!hitFeature)

	cmp	DWORD PTR _hitFeature$[ebp], 0
	jne	SHORT $LN3@GroundFeat

; 442  : 	{
; 443  : 		if ( onFlatFeature == TRUE )

	mov	ecx, DWORD PTR _this$[ebp]
	cmp	DWORD PTR [ecx+668], 1
	jne	SHORT $LN2@GroundFeat

; 444  : 			CheckPersistantCollision();

	mov	ecx, DWORD PTR _this$[ebp]
	call	?CheckPersistantCollision@AircraftClass@@QAEXXZ ; AircraftClass::CheckPersistantCollision
$LN2@GroundFeat:

; 445  : 		return;

	jmp	$LN5@GroundFeat
$LN3@GroundFeat:

; 446  : 	}
; 447  : 	
; 448  : 	// send message to self
; 449  : 	// VuTargetEntity *owner_session = (VuTargetEntity*)vuDatabase->Find(OwnerId());
; 450  : 	message = new FalconDamageMessage (Id(), FalconLocalGame );

	push	98					; 00000062H
	call	??2@YAPAXI@Z				; operator new
	add	esp, 4
	mov	DWORD PTR $T13[ebp], eax
	mov	DWORD PTR __$EHRec$[ebp+8], 0
	cmp	DWORD PTR $T13[ebp], 0
	je	SHORT $LN9@GroundFeat
	mov	ecx, OFFSET ?vuLocalSessionEntity@@3V?$VuBin@VVuSessionEntity@@@@A ; vuLocalSessionEntity
	call	??B?$VuBin@VVuSessionEntity@@@@QBE_NXZ	; VuBin<VuSessionEntity>::operator bool
	movzx	edx, al
	test	edx, edx
	je	SHORT $LN7@GroundFeat
	mov	ecx, OFFSET ?vuLocalSessionEntity@@3V?$VuBin@VVuSessionEntity@@@@A ; vuLocalSessionEntity
	call	?get@?$VuBin@VVuSessionEntity@@@@QBEPAVVuSessionEntity@@XZ ; VuBin<VuSessionEntity>::get
	mov	ecx, eax
	call	?GetGame@FalconSessionEntity@@QAEPAVFalconGameEntity@@XZ ; FalconSessionEntity::GetGame
	mov	DWORD PTR tv152[ebp], eax
	jmp	SHORT $LN8@GroundFeat
$LN7@GroundFeat:
	mov	DWORD PTR tv152[ebp], 0
$LN8@GroundFeat:
	push	1
	mov	eax, DWORD PTR tv152[ebp]
	push	eax
	lea	ecx, DWORD PTR $T5[ebp]
	push	ecx
	mov	ecx, DWORD PTR _this$[ebp]
	call	?Id@VuEntity@@QBE?AVVU_ID@@XZ		; VuEntity::Id
	mov	edx, DWORD PTR [eax+4]
	push	edx
	mov	eax, DWORD PTR [eax]
	push	eax
	mov	ecx, DWORD PTR $T13[ebp]
	call	??0FalconDamageMessage@@QAE@VVU_ID@@PAVVuTargetEntity@@E@Z ; FalconDamageMessage::FalconDamageMessage
	mov	DWORD PTR tv163[ebp], eax
	jmp	SHORT $LN10@GroundFeat
$LN9@GroundFeat:
	mov	DWORD PTR tv163[ebp], 0
$LN10@GroundFeat:
	mov	ecx, DWORD PTR tv163[ebp]
	mov	DWORD PTR $T11[ebp], ecx
	mov	DWORD PTR __$EHRec$[ebp+8], -1
	mov	edx, DWORD PTR $T11[ebp]
	mov	DWORD PTR _message$[ebp], edx

; 451  : 	message->dataBlock.fEntityID  = hitFeature->Id();

	lea	eax, DWORD PTR $T7[ebp]
	push	eax
	mov	ecx, DWORD PTR _hitFeature$[ebp]
	call	?Id@VuEntity@@QBE?AVVU_ID@@XZ		; VuEntity::Id
	mov	ecx, DWORD PTR [eax]
	mov	edx, DWORD PTR [eax+4]
	mov	eax, DWORD PTR _message$[ebp]
	mov	DWORD PTR [eax+74], ecx
	mov	DWORD PTR [eax+78], edx

; 452  : 	ShiAssert(hitFeature->GetCampaignObject());
; 453  : 	message->dataBlock.fCampID = ((CampBaseClass*)(hitFeature->GetCampaignObject()))->GetCampID();

	mov	ecx, DWORD PTR _hitFeature$[ebp]
	call	?GetCampaignObject@SimBaseClass@@QAEPAVCampBaseClass@@XZ ; SimBaseClass::GetCampaignObject
	mov	DWORD PTR tv182[ebp], eax
	mov	ecx, DWORD PTR tv182[ebp]
	mov	edx, DWORD PTR [ecx]
	mov	ecx, DWORD PTR tv182[ebp]
	mov	eax, DWORD PTR [edx+112]
	call	eax
	mov	ecx, DWORD PTR _message$[ebp]
	mov	WORD PTR [ecx+82], ax

; 454  : 	message->dataBlock.fSide   = ((CampBaseClass*)(hitFeature->GetCampaignObject()))->GetOwner();

	mov	ecx, DWORD PTR _hitFeature$[ebp]
	call	?GetCampaignObject@SimBaseClass@@QAEPAVCampBaseClass@@XZ ; SimBaseClass::GetCampaignObject
	mov	ecx, eax
	call	?GetOwner@CampBaseClass@@QAEEXZ		; CampBaseClass::GetOwner
	mov	edx, DWORD PTR _message$[ebp]
	mov	BYTE PTR [edx+87], al

; 455  : 	message->dataBlock.fPilotID   = 255;

	mov	eax, DWORD PTR _message$[ebp]
	mov	BYTE PTR [eax+84], 255			; 000000ffH

; 456  : 	message->dataBlock.fIndex     = hitFeature->Type();

	mov	ecx, DWORD PTR _hitFeature$[ebp]
	call	?Type@VuEntity@@QBEGXZ			; VuEntity::Type
	mov	ecx, DWORD PTR _message$[ebp]
	mov	WORD PTR [ecx+85], ax

; 457  : 	message->dataBlock.fWeaponID  = hitFeature->Type();

	mov	ecx, DWORD PTR _hitFeature$[ebp]
	call	?Type@VuEntity@@QBEGXZ			; VuEntity::Type
	mov	edx, DWORD PTR _message$[ebp]
	mov	WORD PTR [edx+88], ax

; 458  : 	message->dataBlock.fWeaponUID = hitFeature->Id();

	lea	eax, DWORD PTR $T3[ebp]
	push	eax
	mov	ecx, DWORD PTR _hitFeature$[ebp]
	call	?Id@VuEntity@@QBE?AVVU_ID@@XZ		; VuEntity::Id
	mov	ecx, DWORD PTR [eax]
	mov	edx, DWORD PTR [eax+4]
	mov	eax, DWORD PTR _message$[ebp]
	mov	DWORD PTR [eax+90], ecx
	mov	DWORD PTR [eax+94], edx

; 459  : 	
; 460  : 	message->dataBlock.dEntityID  = Id();

	lea	ecx, DWORD PTR $T9[ebp]
	push	ecx
	mov	ecx, DWORD PTR _this$[ebp]
	call	?Id@VuEntity@@QBE?AVVU_ID@@XZ		; VuEntity::Id
	mov	edx, DWORD PTR [eax]
	mov	eax, DWORD PTR [eax+4]
	mov	ecx, DWORD PTR _message$[ebp]
	mov	DWORD PTR [ecx+60], edx
	mov	DWORD PTR [ecx+64], eax

; 461  : 	ShiAssert(GetCampaignObject());
; 462  : 	message->dataBlock.dCampID = ((CampBaseClass*)(GetCampaignObject()))->GetCampID();

	mov	ecx, DWORD PTR _this$[ebp]
	call	?GetCampaignObject@SimBaseClass@@QAEPAVCampBaseClass@@XZ ; SimBaseClass::GetCampaignObject
	mov	DWORD PTR tv243[ebp], eax
	mov	edx, DWORD PTR tv243[ebp]
	mov	eax, DWORD PTR [edx]
	mov	ecx, DWORD PTR tv243[ebp]
	mov	edx, DWORD PTR [eax+112]
	call	edx
	mov	ecx, DWORD PTR _message$[ebp]
	mov	WORD PTR [ecx+68], ax

; 463  : 	message->dataBlock.dSide   = ((CampBaseClass*)(GetCampaignObject()))->GetOwner();

	mov	ecx, DWORD PTR _this$[ebp]
	call	?GetCampaignObject@SimBaseClass@@QAEPAVCampBaseClass@@XZ ; SimBaseClass::GetCampaignObject
	mov	ecx, eax
	call	?GetOwner@CampBaseClass@@QAEEXZ		; CampBaseClass::GetOwner
	mov	edx, DWORD PTR _message$[ebp]
	mov	BYTE PTR [edx+73], al

; 464  : 	message->dataBlock.dPilotID   = pilotSlot;

	mov	eax, DWORD PTR _message$[ebp]
	mov	ecx, DWORD PTR _this$[ebp]
	mov	dl, BYTE PTR [ecx+665]
	mov	BYTE PTR [eax+70], dl

; 465  : 	message->dataBlock.dIndex     = Type();

	mov	ecx, DWORD PTR _this$[ebp]
	call	?Type@VuEntity@@QBEGXZ			; VuEntity::Type
	mov	ecx, DWORD PTR _message$[ebp]
	mov	WORD PTR [ecx+71], ax

; 466  : 	message->dataBlock.damageType = FalconDamageType::FeatureCollisionDamage;	

	mov	edx, DWORD PTR _message$[ebp]
	mov	DWORD PTR [edx+48], 7

; 467  : 	message->dataBlock.damageStrength = min(1000.0F, af->vt * 0.5F + af->vt * af->vt * 0.02F );	

	mov	eax, DWORD PTR _this$[ebp]
	mov	ecx, DWORD PTR [eax+932]
	movss	xmm0, DWORD PTR [ecx+1120]
	mulss	xmm0, DWORD PTR __real@3f000000
	mov	edx, DWORD PTR _this$[ebp]
	mov	eax, DWORD PTR [edx+932]
	mov	ecx, DWORD PTR _this$[ebp]
	mov	edx, DWORD PTR [ecx+932]
	movss	xmm1, DWORD PTR [eax+1120]
	mulss	xmm1, DWORD PTR [edx+1120]
	mulss	xmm1, DWORD PTR __real@3ca3d70a
	addss	xmm0, xmm1
	comiss	xmm0, DWORD PTR __real@447a0000
	jbe	SHORT $LN11@GroundFeat
	movss	xmm0, DWORD PTR __real@447a0000
	movss	DWORD PTR tv299[ebp], xmm0
	jmp	SHORT $LN12@GroundFeat
$LN11@GroundFeat:
	mov	eax, DWORD PTR _this$[ebp]
	mov	ecx, DWORD PTR [eax+932]
	movss	xmm0, DWORD PTR [ecx+1120]
	mulss	xmm0, DWORD PTR __real@3f000000
	mov	edx, DWORD PTR _this$[ebp]
	mov	eax, DWORD PTR [edx+932]
	mov	ecx, DWORD PTR _this$[ebp]
	mov	edx, DWORD PTR [ecx+932]
	movss	xmm1, DWORD PTR [eax+1120]
	mulss	xmm1, DWORD PTR [edx+1120]
	mulss	xmm1, DWORD PTR __real@3ca3d70a
	addss	xmm0, xmm1
	movss	DWORD PTR tv299[ebp], xmm0
$LN12@GroundFeat:
	mov	eax, DWORD PTR _message$[ebp]
	movss	xmm0, DWORD PTR tv299[ebp]
	movss	DWORD PTR [eax+52], xmm0

; 468  : 	message->dataBlock.damageRandomFact = 1.0f;

	mov	ecx, DWORD PTR _message$[ebp]
	movss	xmm0, DWORD PTR __real@3f800000
	movss	DWORD PTR [ecx+56], xmm0

; 469  : 	message->RequestOutOfBandTransmit ();

	mov	ecx, DWORD PTR _message$[ebp]
	call	?RequestOutOfBandTransmit@VuMessage@@QAEXXZ ; VuMessage::RequestOutOfBandTransmit

; 470  : 	FalconSendMessage (message,TRUE);

	push	1
	mov	edx, DWORD PTR _message$[ebp]
	push	edx
	call	?FalconSendMessage@@YAXPAVVuMessage@@H@Z ; FalconSendMessage
	add	esp, 8

; 471  : 	
; 472  : 	// send message to feature
; 473  : 	// owner_session = (VuTargetEntity*)vuDatabase->Find(hitFeature->OwnerId());
; 474  : 	message = new FalconDamageMessage (hitFeature->Id(), FalconLocalGame );

	push	98					; 00000062H
	call	??2@YAPAXI@Z				; operator new
	add	esp, 4
	mov	DWORD PTR $T12[ebp], eax
	mov	DWORD PTR __$EHRec$[ebp+8], 1
	cmp	DWORD PTR $T12[ebp], 0
	je	SHORT $LN15@GroundFeat
	mov	ecx, OFFSET ?vuLocalSessionEntity@@3V?$VuBin@VVuSessionEntity@@@@A ; vuLocalSessionEntity
	call	??B?$VuBin@VVuSessionEntity@@@@QBE_NXZ	; VuBin<VuSessionEntity>::operator bool
	movzx	eax, al
	test	eax, eax
	je	SHORT $LN13@GroundFeat
	mov	ecx, OFFSET ?vuLocalSessionEntity@@3V?$VuBin@VVuSessionEntity@@@@A ; vuLocalSessionEntity
	call	?get@?$VuBin@VVuSessionEntity@@@@QBEPAVVuSessionEntity@@XZ ; VuBin<VuSessionEntity>::get
	mov	ecx, eax
	call	?GetGame@FalconSessionEntity@@QAEPAVFalconGameEntity@@XZ ; FalconSessionEntity::GetGame
	mov	DWORD PTR tv336[ebp], eax
	jmp	SHORT $LN14@GroundFeat
$LN13@GroundFeat:
	mov	DWORD PTR tv336[ebp], 0
$LN14@GroundFeat:
	push	1
	mov	ecx, DWORD PTR tv336[ebp]
	push	ecx
	lea	edx, DWORD PTR $T8[ebp]
	push	edx
	mov	ecx, DWORD PTR _hitFeature$[ebp]
	call	?Id@VuEntity@@QBE?AVVU_ID@@XZ		; VuEntity::Id
	mov	ecx, DWORD PTR [eax+4]
	push	ecx
	mov	edx, DWORD PTR [eax]
	push	edx
	mov	ecx, DWORD PTR $T12[ebp]
	call	??0FalconDamageMessage@@QAE@VVU_ID@@PAVVuTargetEntity@@E@Z ; FalconDamageMessage::FalconDamageMessage
	mov	DWORD PTR tv347[ebp], eax
	jmp	SHORT $LN16@GroundFeat
$LN15@GroundFeat:
	mov	DWORD PTR tv347[ebp], 0
$LN16@GroundFeat:
	mov	eax, DWORD PTR tv347[ebp]
	mov	DWORD PTR $T10[ebp], eax
	mov	DWORD PTR __$EHRec$[ebp+8], -1
	mov	ecx, DWORD PTR $T10[ebp]
	mov	DWORD PTR _message$[ebp], ecx

; 475  : 	message->dataBlock.fEntityID  = Id();

	lea	edx, DWORD PTR $T6[ebp]
	push	edx
	mov	ecx, DWORD PTR _this$[ebp]
	call	?Id@VuEntity@@QBE?AVVU_ID@@XZ		; VuEntity::Id
	mov	ecx, DWORD PTR [eax]
	mov	edx, DWORD PTR [eax+4]
	mov	eax, DWORD PTR _message$[ebp]
	mov	DWORD PTR [eax+74], ecx
	mov	DWORD PTR [eax+78], edx

; 476  : 	message->dataBlock.fCampID = ((CampBaseClass*)(GetCampaignObject()))->GetCampID();

	mov	ecx, DWORD PTR _this$[ebp]
	call	?GetCampaignObject@SimBaseClass@@QAEPAVCampBaseClass@@XZ ; SimBaseClass::GetCampaignObject
	mov	DWORD PTR tv370[ebp], eax
	mov	ecx, DWORD PTR tv370[ebp]
	mov	edx, DWORD PTR [ecx]
	mov	ecx, DWORD PTR tv370[ebp]
	mov	eax, DWORD PTR [edx+112]
	call	eax
	mov	ecx, DWORD PTR _message$[ebp]
	mov	WORD PTR [ecx+82], ax

; 477  : 	message->dataBlock.fSide   = ((CampBaseClass*)(GetCampaignObject()))->GetOwner();

	mov	ecx, DWORD PTR _this$[ebp]
	call	?GetCampaignObject@SimBaseClass@@QAEPAVCampBaseClass@@XZ ; SimBaseClass::GetCampaignObject
	mov	ecx, eax
	call	?GetOwner@CampBaseClass@@QAEEXZ		; CampBaseClass::GetOwner
	mov	edx, DWORD PTR _message$[ebp]
	mov	BYTE PTR [edx+87], al

; 478  : 	message->dataBlock.fPilotID   = pilotSlot;

	mov	eax, DWORD PTR _message$[ebp]
	mov	ecx, DWORD PTR _this$[ebp]
	mov	dl, BYTE PTR [ecx+665]
	mov	BYTE PTR [eax+84], dl

; 479  : 	message->dataBlock.fIndex     = Type();

	mov	ecx, DWORD PTR _this$[ebp]
	call	?Type@VuEntity@@QBEGXZ			; VuEntity::Type
	mov	ecx, DWORD PTR _message$[ebp]
	mov	WORD PTR [ecx+85], ax

; 480  : 	message->dataBlock.fWeaponID  = Type();

	mov	ecx, DWORD PTR _this$[ebp]
	call	?Type@VuEntity@@QBEGXZ			; VuEntity::Type
	mov	edx, DWORD PTR _message$[ebp]
	mov	WORD PTR [edx+88], ax

; 481  : 	message->dataBlock.fWeaponUID = hitFeature->Id();

	lea	eax, DWORD PTR $T4[ebp]
	push	eax
	mov	ecx, DWORD PTR _hitFeature$[ebp]
	call	?Id@VuEntity@@QBE?AVVU_ID@@XZ		; VuEntity::Id
	mov	ecx, DWORD PTR [eax]
	mov	edx, DWORD PTR [eax+4]
	mov	eax, DWORD PTR _message$[ebp]
	mov	DWORD PTR [eax+90], ecx
	mov	DWORD PTR [eax+94], edx

; 482  : 	
; 483  : 	message->dataBlock.dEntityID  = hitFeature->Id();

	lea	ecx, DWORD PTR $T2[ebp]
	push	ecx
	mov	ecx, DWORD PTR _hitFeature$[ebp]
	call	?Id@VuEntity@@QBE?AVVU_ID@@XZ		; VuEntity::Id
	mov	edx, DWORD PTR [eax]
	mov	eax, DWORD PTR [eax+4]
	mov	ecx, DWORD PTR _message$[ebp]
	mov	DWORD PTR [ecx+60], edx
	mov	DWORD PTR [ecx+64], eax

; 484  : 	message->dataBlock.dCampID = ((CampBaseClass*)(hitFeature->GetCampaignObject()))->GetCampID();

	mov	ecx, DWORD PTR _hitFeature$[ebp]
	call	?GetCampaignObject@SimBaseClass@@QAEPAVCampBaseClass@@XZ ; SimBaseClass::GetCampaignObject
	mov	DWORD PTR tv436[ebp], eax
	mov	edx, DWORD PTR tv436[ebp]
	mov	eax, DWORD PTR [edx]
	mov	ecx, DWORD PTR tv436[ebp]
	mov	edx, DWORD PTR [eax+112]
	call	edx
	mov	ecx, DWORD PTR _message$[ebp]
	mov	WORD PTR [ecx+68], ax

; 485  : 	message->dataBlock.dSide   = ((CampBaseClass*)(hitFeature->GetCampaignObject()))->GetOwner();

	mov	ecx, DWORD PTR _hitFeature$[ebp]
	call	?GetCampaignObject@SimBaseClass@@QAEPAVCampBaseClass@@XZ ; SimBaseClass::GetCampaignObject
	mov	ecx, eax
	call	?GetOwner@CampBaseClass@@QAEEXZ		; CampBaseClass::GetOwner
	mov	edx, DWORD PTR _message$[ebp]
	mov	BYTE PTR [edx+73], al

; 486  : 	message->dataBlock.dPilotID   = 255;

	mov	eax, DWORD PTR _message$[ebp]
	mov	BYTE PTR [eax+70], 255			; 000000ffH

; 487  : 	message->dataBlock.dIndex     = hitFeature->Type();

	mov	ecx, DWORD PTR _hitFeature$[ebp]
	call	?Type@VuEntity@@QBEGXZ			; VuEntity::Type
	mov	ecx, DWORD PTR _message$[ebp]
	mov	WORD PTR [ecx+71], ax

; 488  : 	message->dataBlock.damageType = FalconDamageType::ObjectCollisionDamage;	

	mov	edx, DWORD PTR _message$[ebp]
	mov	DWORD PTR [edx+48], 6

; 489  : 	message->dataBlock.damageStrength = min(1000.0F, af->vt * 0.5F + af->vt * af->vt * 0.02F );

	mov	eax, DWORD PTR _this$[ebp]
	mov	ecx, DWORD PTR [eax+932]
	movss	xmm0, DWORD PTR [ecx+1120]
	mulss	xmm0, DWORD PTR __real@3f000000
	mov	edx, DWORD PTR _this$[ebp]
	mov	eax, DWORD PTR [edx+932]
	mov	ecx, DWORD PTR _this$[ebp]
	mov	edx, DWORD PTR [ecx+932]
	movss	xmm1, DWORD PTR [eax+1120]
	mulss	xmm1, DWORD PTR [edx+1120]
	mulss	xmm1, DWORD PTR __real@3ca3d70a
	addss	xmm0, xmm1
	comiss	xmm0, DWORD PTR __real@447a0000
	jbe	SHORT $LN17@GroundFeat
	movss	xmm0, DWORD PTR __real@447a0000
	movss	DWORD PTR tv483[ebp], xmm0
	jmp	SHORT $LN18@GroundFeat
$LN17@GroundFeat:
	mov	eax, DWORD PTR _this$[ebp]
	mov	ecx, DWORD PTR [eax+932]
	movss	xmm0, DWORD PTR [ecx+1120]
	mulss	xmm0, DWORD PTR __real@3f000000
	mov	edx, DWORD PTR _this$[ebp]
	mov	eax, DWORD PTR [edx+932]
	mov	ecx, DWORD PTR _this$[ebp]
	mov	edx, DWORD PTR [ecx+932]
	movss	xmm1, DWORD PTR [eax+1120]
	mulss	xmm1, DWORD PTR [edx+1120]
	mulss	xmm1, DWORD PTR __real@3ca3d70a
	addss	xmm0, xmm1
	movss	DWORD PTR tv483[ebp], xmm0
$LN18@GroundFeat:
	mov	eax, DWORD PTR _message$[ebp]
	movss	xmm0, DWORD PTR tv483[ebp]
	movss	DWORD PTR [eax+52], xmm0

; 490  : 	message->dataBlock.damageRandomFact = 1.0f;

	mov	ecx, DWORD PTR _message$[ebp]
	movss	xmm0, DWORD PTR __real@3f800000
	movss	DWORD PTR [ecx+56], xmm0

; 491  : 	message->RequestOutOfBandTransmit ();

	mov	ecx, DWORD PTR _message$[ebp]
	call	?RequestOutOfBandTransmit@VuMessage@@QAEXXZ ; VuMessage::RequestOutOfBandTransmit

; 492  : 	FalconSendMessage (message,TRUE);

	push	1
	mov	edx, DWORD PTR _message$[ebp]
	push	edx
	call	?FalconSendMessage@@YAXPAVVuMessage@@H@Z ; FalconSendMessage
	add	esp, 8

; 493  : 
; 494  : 	if ( OnGround() )

	mov	eax, DWORD PTR _this$[ebp]
	mov	edx, DWORD PTR [eax]
	mov	ecx, DWORD PTR _this$[ebp]
	mov	eax, DWORD PTR [edx+148]
	call	eax
	test	eax, eax
	je	$LN1@GroundFeat

; 495  : 	{
; 496  : 		// poke airframe data so we don't go through features
; 497  : 		af->xdot = -af->xdot;

	mov	ecx, DWORD PTR _this$[ebp]
	mov	edx, DWORD PTR [ecx+932]
	movss	xmm0, DWORD PTR [edx+1196]
	xorps	xmm0, DWORD PTR __xmm@80000000800000008000000080000000
	mov	eax, DWORD PTR _this$[ebp]
	mov	ecx, DWORD PTR [eax+932]
	movss	DWORD PTR [ecx+1196], xmm0

; 498  : 		af->ydot = -af->ydot;

	mov	edx, DWORD PTR _this$[ebp]
	mov	eax, DWORD PTR [edx+932]
	movss	xmm0, DWORD PTR [eax+1200]
	xorps	xmm0, DWORD PTR __xmm@80000000800000008000000080000000
	mov	ecx, DWORD PTR _this$[ebp]
	mov	edx, DWORD PTR [ecx+932]
	movss	DWORD PTR [edx+1200], xmm0

; 499  : 		af->x += af->xdot * 3.0F * SimLibMinorFrameTime;

	mov	eax, DWORD PTR _this$[ebp]
	mov	ecx, DWORD PTR [eax+932]
	mov	edx, DWORD PTR _this$[ebp]
	mov	eax, DWORD PTR [edx+932]
	movss	xmm0, DWORD PTR [eax+1196]
	mulss	xmm0, DWORD PTR __real@40400000
	mulss	xmm0, DWORD PTR ?SimLibMinorFrameTime@@3MA
	addss	xmm0, DWORD PTR [ecx+1108]
	mov	ecx, DWORD PTR _this$[ebp]
	mov	edx, DWORD PTR [ecx+932]
	movss	DWORD PTR [edx+1108], xmm0

; 500  : 		af->y += af->ydot * 3.0F * SimLibMinorFrameTime;

	mov	eax, DWORD PTR _this$[ebp]
	mov	ecx, DWORD PTR [eax+932]
	mov	edx, DWORD PTR _this$[ebp]
	mov	eax, DWORD PTR [edx+932]
	movss	xmm0, DWORD PTR [eax+1200]
	mulss	xmm0, DWORD PTR __real@40400000
	mulss	xmm0, DWORD PTR ?SimLibMinorFrameTime@@3MA
	addss	xmm0, DWORD PTR [ecx+1112]
	mov	ecx, DWORD PTR _this$[ebp]
	mov	edx, DWORD PTR [ecx+932]
	movss	DWORD PTR [edx+1112], xmm0

; 501  : 		af->vt = 0.0f;

	mov	eax, DWORD PTR _this$[ebp]
	mov	ecx, DWORD PTR [eax+932]
	movss	xmm0, DWORD PTR __real@00000000
	movss	DWORD PTR [ecx+1120], xmm0
$LN1@GroundFeat:
$LN5@GroundFeat:

; 502  : 	}	
; 503  : }

	mov	ecx, DWORD PTR __$EHRec$[ebp]
	mov	DWORD PTR fs:0, ecx
	pop	ecx
	mov	esp, ebp
	pop	ebp
	ret	4
_TEXT	ENDS
text$x	SEGMENT
__unwindfunclet$?GroundFeatureCheck@AircraftClass@@QAEXM@Z$0:
	mov	eax, DWORD PTR $T13[ebp]
	push	eax
	call	??3@YAXPAX@Z				; operator delete
	pop	ecx
	ret	0
__unwindfunclet$?GroundFeatureCheck@AircraftClass@@QAEXM@Z$1:
	mov	eax, DWORD PTR $T12[ebp]
	push	eax
	call	??3@YAXPAX@Z				; operator delete
	pop	ecx
	ret	0
__ehhandler$?GroundFeatureCheck@AircraftClass@@QAEXM@Z:
	mov	edx, DWORD PTR [esp+8]
	lea	eax, DWORD PTR [edx+12]
	mov	ecx, DWORD PTR [edx-136]
	xor	ecx, eax
	call	@__security_check_cookie@4
	mov	eax, OFFSET __ehfuncinfo$?GroundFeatureCheck@AircraftClass@@QAEXM@Z
	jmp	___CxxFrameHandler3
text$x	ENDS
?GroundFeatureCheck@AircraftClass@@QAEXM@Z ENDP		; AircraftClass::GroundFeatureCheck
; Function compile flags: /Odtp
; File c:\users\zhitao li\documents\visual studio 2012\projects\freefalcon\sim\aircraft\gndhndl.cpp
_TEXT	SEGMENT
tv1730 = -172						; size = 4
tv1732 = -168						; size = 4
tv1277 = -164						; size = 4
tv1444 = -160						; size = 4
tv1740 = -156						; size = 4
tv1734 = -152						; size = 4
tv1736 = -148						; size = 4
tv1410 = -144						; size = 4
tv1618 = -140						; size = 4
tv1379 = -136						; size = 4
tv1738 = -132						; size = 4
tv1330 = -128						; size = 4
tv1485 = -124						; size = 4
tv1728 = -120						; size = 4
tv173 = -116						; size = 4
tv568 = -112						; size = 4
tv302 = -108						; size = 4
tv718 = -104						; size = 4
tv1081 = -100						; size = 4
tv388 = -96						; size = 4
tv1024 = -92						; size = 4
tv647 = -88						; size = 4
tv943 = -84						; size = 4
tv435 = -80						; size = 4
tv83 = -76						; size = 4
tv270 = -72						; size = 4
tv876 = -68						; size = 4
tv898 = -64						; size = 4
_impactTest$ = -60					; size = 4
_gearAbsorption$ = -56					; size = 4
_i$1 = -52						; size = 4
_vc$ = -48						; size = 4
_i$2 = -44						; size = 4
_sinkRate$ = -40					; size = 4
_message$ = -36						; size = 4
_this$ = -32						; size = 4
_pos$ = -28						; size = 12
_vec$ = -16						; size = 12
__$ArrayPad$ = -4					; size = 4
_noseAngle$ = 8						; size = 4
_impactAngle$ = 12					; size = 4
_groundType$ = 16					; size = 4
?LandingCheck@AircraftClass@@QAEHMMH@Z PROC		; AircraftClass::LandingCheck
; _this$ = ecx

; 104  : {

	push	ebp
	mov	ebp, esp
	sub	esp, 172				; 000000acH
	mov	eax, DWORD PTR ___security_cookie
	xor	eax, ebp
	mov	DWORD PTR __$ArrayPad$[ebp], eax
	mov	DWORD PTR _this$[ebp], ecx

; 105  : 	VehicleClassDataType* vc;
; 106  : 	FalconDamageMessage* message;
; 107  : 	float sinkRate = af->auxaeroData->sinkRate; // JPO

	mov	eax, DWORD PTR _this$[ebp]
	mov	ecx, DWORD PTR [eax+932]
	mov	edx, DWORD PTR [ecx+4]
	movss	xmm0, DWORD PTR [edx+204]
	movss	DWORD PTR _sinkRate$[ebp], xmm0

; 108  : 	// Allow 14 degree error cos(14) = 0.9702 sin(14) = 0.2419
; 109  : 	float impactTest = 0.2419f;

	movss	xmm0, DWORD PTR __real@3e77b4a2
	movss	DWORD PTR _impactTest$[ebp], xmm0

; 110  : 	float gearAbsorption;
; 111  : 	Tpoint pos, vec;
; 112  : 	
; 113  : 	FeatureCollision(af->groundZ); // JPO force a check for onFlatFeature now!

	mov	eax, DWORD PTR _this$[ebp]
	mov	ecx, DWORD PTR [eax+932]
	push	ecx
	movss	xmm0, DWORD PTR [ecx+1272]
	movss	DWORD PTR [esp], xmm0
	mov	edx, DWORD PTR _this$[ebp]
	mov	eax, DWORD PTR [edx]
	mov	ecx, DWORD PTR _this$[ebp]
	mov	edx, DWORD PTR [eax+444]
	call	edx

; 114  : 	// Check for landing
; 115  : 	MonoPrint ("LandingCheck onFlatFeature %s\n", onFlatFeature == TRUE ? "TRUE" : "FALSE");

	mov	eax, DWORD PTR _this$[ebp]
	cmp	DWORD PTR [eax+668], 1
	jne	SHORT $LN54@LandingChe
	mov	DWORD PTR tv83[ebp], OFFSET ??_C@_04HCDDPBNL@TRUE?$AA@
	jmp	SHORT $LN55@LandingChe
$LN54@LandingChe:
	mov	DWORD PTR tv83[ebp], OFFSET ??_C@_05MAJJAKPI@FALSE?$AA@
$LN55@LandingChe:
	mov	ecx, DWORD PTR tv83[ebp]
	push	ecx
	push	OFFSET ??_C@_0BP@LFJINNKA@LandingCheck?5onFlatFeature?5?$CFs?6?$AA@
	call	_MonoPrint
	add	esp, 8

; 116  : 	if (af->IsSet(AirframeClass::Simplified))

	push	8192					; 00002000H
	mov	edx, DWORD PTR _this$[ebp]
	mov	ecx, DWORD PTR [edx+932]
	call	?IsSet@AirframeClass@@QBEHH@Z		; AirframeClass::IsSet
	test	eax, eax
	je	SHORT $LN51@LandingChe

; 117  : 	{
; 118  : 		sinkRate *= 2.0F;

	movss	xmm0, DWORD PTR _sinkRate$[ebp]
	mulss	xmm0, DWORD PTR __real@40000000
	movss	DWORD PTR _sinkRate$[ebp], xmm0
	jmp	SHORT $LN49@LandingChe
$LN51@LandingChe:

; 119  : 	}
; 120  : 	else if(af->IsSet(AirframeClass::IsDigital))

	push	1
	mov	eax, DWORD PTR _this$[ebp]
	mov	ecx, DWORD PTR [eax+932]
	call	?IsSet@AirframeClass@@QBEHH@Z		; AirframeClass::IsSet
	test	eax, eax
	je	SHORT $LN49@LandingChe

; 121  : 	{
; 122  : 		impactTest *= 2.0F;

	movss	xmm0, DWORD PTR _impactTest$[ebp]
	mulss	xmm0, DWORD PTR __real@40000000
	movss	DWORD PTR _impactTest$[ebp], xmm0

; 123  : 		sinkRate *= 2.0F;

	movss	xmm0, DWORD PTR _sinkRate$[ebp]
	mulss	xmm0, DWORD PTR __real@40000000
	movss	DWORD PTR _sinkRate$[ebp], xmm0
$LN49@LandingChe:

; 124  : 	}
; 125  : 
; 126  : 	if(IsSetFalcFlag(FEC_INVULNERABLE))

	push	32					; 00000020H
	mov	ecx, DWORD PTR _this$[ebp]
	call	?IsSetFalcFlag@FalconEntity@@QAEHH@Z	; FalconEntity::IsSetFalcFlag
	test	eax, eax
	je	SHORT $LN48@LandingChe

; 127  : 		sinkRate *= 2.0F;

	movss	xmm0, DWORD PTR _sinkRate$[ebp]
	mulss	xmm0, DWORD PTR __real@40000000
	movss	DWORD PTR _sinkRate$[ebp], xmm0
$LN48@LandingChe:

; 128  : 	
; 129  : 	if (groundType == COVERAGE_WATER ||
; 130  : 	    groundType == COVERAGE_RIVER ||
; 131  : 	    ( !onFlatFeature && 
; 132  : 	    !af->IsSet(AirframeClass::OverRunway) &&
; 133  : 	    (groundType == COVERAGE_THINFOREST || 
; 134  : 	    groundType == COVERAGE_THICKFOREST || 
; 135  : 	    groundType == COVERAGE_ROCKY ||
; 136  : 	    groundType == COVERAGE_URBAN)) )

	cmp	DWORD PTR _groundType$[ebp], 1
	je	SHORT $LN45@LandingChe
	cmp	DWORD PTR _groundType$[ebp], 2
	je	SHORT $LN45@LandingChe
	mov	ecx, DWORD PTR _this$[ebp]
	cmp	DWORD PTR [ecx+668], 0
	jne	$LN47@LandingChe
	push	8388608					; 00800000H
	mov	edx, DWORD PTR _this$[ebp]
	mov	ecx, DWORD PTR [edx+932]
	call	?IsSet@AirframeClass@@QBEHH@Z		; AirframeClass::IsSet
	test	eax, eax
	jne	$LN47@LandingChe
	cmp	DWORD PTR _groundType$[ebp], 6
	je	SHORT $LN45@LandingChe
	cmp	DWORD PTR _groundType$[ebp], 7
	je	SHORT $LN45@LandingChe
	cmp	DWORD PTR _groundType$[ebp], 8
	je	SHORT $LN45@LandingChe
	cmp	DWORD PTR _groundType$[ebp], 9
	jne	$LN47@LandingChe
$LN45@LandingChe:

; 137  : 	{
; 138  : 		message = CreateGroundCollisionMessage(this, FloatToInt32(maxStrength));

	mov	ecx, OFFSET ?vuLocalSessionEntity@@3V?$VuBin@VVuSessionEntity@@@@A ; vuLocalSessionEntity
	call	??B?$VuBin@VVuSessionEntity@@@@QBE_NXZ	; VuBin<VuSessionEntity>::operator bool
	movzx	eax, al
	test	eax, eax
	je	SHORT $LN56@LandingChe
	mov	ecx, OFFSET ?vuLocalSessionEntity@@3V?$VuBin@VVuSessionEntity@@@@A ; vuLocalSessionEntity
	call	?get@?$VuBin@VVuSessionEntity@@@@QBEPAVVuSessionEntity@@XZ ; VuBin<VuSessionEntity>::get
	mov	ecx, eax
	call	?GetGame@FalconSessionEntity@@QAEPAVFalconGameEntity@@XZ ; FalconSessionEntity::GetGame
	mov	DWORD PTR tv173[ebp], eax
	jmp	SHORT $LN57@LandingChe
$LN56@LandingChe:
	mov	DWORD PTR tv173[ebp], 0
$LN57@LandingChe:
	mov	ecx, DWORD PTR tv173[ebp]
	push	ecx
	mov	edx, DWORD PTR _this$[ebp]
	push	ecx
	movss	xmm0, DWORD PTR [edx+244]
	movss	DWORD PTR [esp], xmm0
	call	?FloatToInt32@@YAHM@Z			; FloatToInt32
	add	esp, 4
	push	eax
	mov	eax, DWORD PTR _this$[ebp]
	push	eax
	call	?CreateGroundCollisionMessage@@YAPAVFalconDamageMessage@@PAVSimVehicleClass@@HPAVVuTargetEntity@@@Z ; CreateGroundCollisionMessage
	add	esp, 12					; 0000000cH
	mov	DWORD PTR _message$[ebp], eax

; 139  : 
; 140  : 		//we are not allowed to come to a stop on the water
; 141  : 		if(af->vt < 0.5F && (groundType == COVERAGE_WATER || groundType == COVERAGE_RIVER ))

	mov	ecx, DWORD PTR _this$[ebp]
	mov	edx, DWORD PTR [ecx+932]
	movss	xmm0, DWORD PTR __real@3f000000
	comiss	xmm0, DWORD PTR [edx+1120]
	jbe	SHORT $LN44@LandingChe
	cmp	DWORD PTR _groundType$[ebp], 1
	je	SHORT $LN43@LandingChe
	cmp	DWORD PTR _groundType$[ebp], 2
	jne	SHORT $LN44@LandingChe
$LN43@LandingChe:

; 142  : 			message->dataBlock.damageStrength = maxStrength;

	mov	eax, DWORD PTR _message$[ebp]
	mov	ecx, DWORD PTR _this$[ebp]
	mov	edx, DWORD PTR [ecx+244]
	mov	DWORD PTR [eax+52], edx
	jmp	$LN35@LandingChe
$LN44@LandingChe:

; 143  : 		else if((float)rand()/(float)RAND_MAX < 0.01F)

	call	_rand
	cvtsi2ss xmm0, eax
	divss	xmm0, DWORD PTR __real@46fffe00
	movss	xmm1, DWORD PTR __real@3c23d70a
	comiss	xmm1, xmm0
	jbe	$LN41@LandingChe

; 144  : 		{
; 145  : 			vc = GetVehicleClassData(Type() - VU_LAST_ENTITY_TYPE);

	mov	ecx, DWORD PTR _this$[ebp]
	call	?Type@VuEntity@@QBEGXZ			; VuEntity::Type
	movzx	eax, ax
	sub	eax, 100				; 00000064H
	push	eax
	call	?GetVehicleClassData@@YAPAUVehicleClassDataType@@H@Z ; GetVehicleClassData
	add	esp, 4
	mov	DWORD PTR _vc$[ebp], eax

; 146  : 
; 147  : 			if( (float)rand()/(float)RAND_MAX < af->vt * impactAngle * 0.02F * af->Fuel()/vc->FuelWt )

	call	_rand
	cvtsi2ss xmm0, eax
	divss	xmm0, DWORD PTR __real@46fffe00
	mov	ecx, DWORD PTR _this$[ebp]
	mov	edx, DWORD PTR [ecx+932]
	movss	xmm1, DWORD PTR [edx+1120]
	mulss	xmm1, DWORD PTR _impactAngle$[ebp]
	mulss	xmm1, DWORD PTR __real@3ca3d70a
	mov	eax, DWORD PTR _this$[ebp]
	mov	ecx, DWORD PTR [eax+932]
	movss	DWORD PTR tv1728[ebp], xmm0
	movss	DWORD PTR tv1730[ebp], xmm1
	call	?Fuel@AirframeClass@@QAEMXZ		; AirframeClass::Fuel
	fstp	DWORD PTR tv1277[ebp]
	movss	xmm0, DWORD PTR tv1730[ebp]
	mulss	xmm0, DWORD PTR tv1277[ebp]
	mov	ecx, DWORD PTR _vc$[ebp]
	cvtsi2ss xmm1, DWORD PTR [ecx+40]
	divss	xmm0, xmm1
	movss	xmm1, DWORD PTR tv1728[ebp]
	comiss	xmm0, xmm1
	jbe	SHORT $LN40@LandingChe

; 148  : 				message->dataBlock.damageStrength = maxStrength;

	mov	edx, DWORD PTR _message$[ebp]
	mov	eax, DWORD PTR _this$[ebp]
	mov	ecx, DWORD PTR [eax+244]
	mov	DWORD PTR [edx+52], ecx
$LN40@LandingChe:

; 149  : 		}
; 150  : 		else

	jmp	$LN35@LandingChe
$LN41@LandingChe:

; 151  : 		{
; 152  : 			if(groundType == COVERAGE_WATER	|| groundType == COVERAGE_RIVER)

	cmp	DWORD PTR _groundType$[ebp], 1
	je	SHORT $LN37@LandingChe
	cmp	DWORD PTR _groundType$[ebp], 2
	jne	$LN38@LandingChe
$LN37@LandingChe:

; 153  : 				message->dataBlock.damageStrength = min(1000.0F, af->vt * impactAngle * 0.1F + 
; 154  : 												af->vt * af->vt * impactAngle * impactAngle * 0.02F);

	mov	edx, DWORD PTR _this$[ebp]
	mov	eax, DWORD PTR [edx+932]
	movss	xmm0, DWORD PTR [eax+1120]
	mulss	xmm0, DWORD PTR _impactAngle$[ebp]
	mulss	xmm0, DWORD PTR __real@3dcccccd
	mov	ecx, DWORD PTR _this$[ebp]
	mov	edx, DWORD PTR [ecx+932]
	mov	eax, DWORD PTR _this$[ebp]
	mov	ecx, DWORD PTR [eax+932]
	movss	xmm1, DWORD PTR [edx+1120]
	mulss	xmm1, DWORD PTR [ecx+1120]
	mulss	xmm1, DWORD PTR _impactAngle$[ebp]
	mulss	xmm1, DWORD PTR _impactAngle$[ebp]
	mulss	xmm1, DWORD PTR __real@3ca3d70a
	addss	xmm0, xmm1
	comiss	xmm0, DWORD PTR __real@447a0000
	jbe	SHORT $LN58@LandingChe
	movss	xmm0, DWORD PTR __real@447a0000
	movss	DWORD PTR tv270[ebp], xmm0
	jmp	SHORT $LN59@LandingChe
$LN58@LandingChe:
	mov	edx, DWORD PTR _this$[ebp]
	mov	eax, DWORD PTR [edx+932]
	movss	xmm0, DWORD PTR [eax+1120]
	mulss	xmm0, DWORD PTR _impactAngle$[ebp]
	mulss	xmm0, DWORD PTR __real@3dcccccd
	mov	ecx, DWORD PTR _this$[ebp]
	mov	edx, DWORD PTR [ecx+932]
	mov	eax, DWORD PTR _this$[ebp]
	mov	ecx, DWORD PTR [eax+932]
	movss	xmm1, DWORD PTR [edx+1120]
	mulss	xmm1, DWORD PTR [ecx+1120]
	mulss	xmm1, DWORD PTR _impactAngle$[ebp]
	mulss	xmm1, DWORD PTR _impactAngle$[ebp]
	mulss	xmm1, DWORD PTR __real@3ca3d70a
	addss	xmm0, xmm1
	movss	DWORD PTR tv270[ebp], xmm0
$LN59@LandingChe:
	mov	edx, DWORD PTR _message$[ebp]
	movss	xmm0, DWORD PTR tv270[ebp]
	movss	DWORD PTR [edx+52], xmm0

; 155  : 			else

	jmp	$LN36@LandingChe
$LN38@LandingChe:

; 156  : 				message->dataBlock.damageStrength = min(1000.0F, af->vt * impactAngle * 0.1F + 
; 157  : 												af->vt * af->vt * impactAngle * impactAngle * 0.05F);

	mov	eax, DWORD PTR _this$[ebp]
	mov	ecx, DWORD PTR [eax+932]
	movss	xmm0, DWORD PTR [ecx+1120]
	mulss	xmm0, DWORD PTR _impactAngle$[ebp]
	mulss	xmm0, DWORD PTR __real@3dcccccd
	mov	edx, DWORD PTR _this$[ebp]
	mov	eax, DWORD PTR [edx+932]
	mov	ecx, DWORD PTR _this$[ebp]
	mov	edx, DWORD PTR [ecx+932]
	movss	xmm1, DWORD PTR [eax+1120]
	mulss	xmm1, DWORD PTR [edx+1120]
	mulss	xmm1, DWORD PTR _impactAngle$[ebp]
	mulss	xmm1, DWORD PTR _impactAngle$[ebp]
	mulss	xmm1, DWORD PTR __real@3d4ccccd
	addss	xmm0, xmm1
	comiss	xmm0, DWORD PTR __real@447a0000
	jbe	SHORT $LN60@LandingChe
	movss	xmm0, DWORD PTR __real@447a0000
	movss	DWORD PTR tv302[ebp], xmm0
	jmp	SHORT $LN61@LandingChe
$LN60@LandingChe:
	mov	eax, DWORD PTR _this$[ebp]
	mov	ecx, DWORD PTR [eax+932]
	movss	xmm0, DWORD PTR [ecx+1120]
	mulss	xmm0, DWORD PTR _impactAngle$[ebp]
	mulss	xmm0, DWORD PTR __real@3dcccccd
	mov	edx, DWORD PTR _this$[ebp]
	mov	eax, DWORD PTR [edx+932]
	mov	ecx, DWORD PTR _this$[ebp]
	mov	edx, DWORD PTR [ecx+932]
	movss	xmm1, DWORD PTR [eax+1120]
	mulss	xmm1, DWORD PTR [edx+1120]
	mulss	xmm1, DWORD PTR _impactAngle$[ebp]
	mulss	xmm1, DWORD PTR _impactAngle$[ebp]
	mulss	xmm1, DWORD PTR __real@3d4ccccd
	addss	xmm0, xmm1
	movss	DWORD PTR tv302[ebp], xmm0
$LN61@LandingChe:
	mov	eax, DWORD PTR _message$[ebp]
	movss	xmm0, DWORD PTR tv302[ebp]
	movss	DWORD PTR [eax+52], xmm0
$LN36@LandingChe:

; 158  : 
; 159  : 			if(message->dataBlock.damageStrength < 1.0F && (float)rand()/(float)RAND_MAX < 0.2F)

	mov	ecx, DWORD PTR _message$[ebp]
	movss	xmm0, DWORD PTR __real@3f800000
	comiss	xmm0, DWORD PTR [ecx+52]
	jbe	SHORT $LN35@LandingChe
	call	_rand
	cvtsi2ss xmm0, eax
	divss	xmm0, DWORD PTR __real@46fffe00
	movss	xmm1, DWORD PTR __real@3e4ccccd
	comiss	xmm1, xmm0
	jbe	SHORT $LN35@LandingChe

; 160  : 				message->dataBlock.damageStrength = 1.0F;

	mov	edx, DWORD PTR _message$[ebp]
	movss	xmm0, DWORD PTR __real@3f800000
	movss	DWORD PTR [edx+52], xmm0
$LN35@LandingChe:

; 161  : 		}
; 162  : 
; 163  : 		if(!IsSetFalcFlag(FEC_INVULNERABLE))

	push	32					; 00000020H
	mov	ecx, DWORD PTR _this$[ebp]
	call	?IsSetFalcFlag@FalconEntity@@QAEHH@Z	; FalconEntity::IsSetFalcFlag
	test	eax, eax
	jne	SHORT $LN34@LandingChe

; 164  : 		{
; 165  : 			af->SetFlag(AirframeClass::EngineOff);

	push	32768					; 00008000H
	mov	eax, DWORD PTR _this$[ebp]
	mov	ecx, DWORD PTR [eax+932]
	call	?SetFlag@AirframeClass@@QAEXH@Z		; AirframeClass::SetFlag

; 166  : 			af->SetFlag(AirframeClass::EngineOff2);//TJL 01/22/04 multi-engine

	push	536870912				; 20000000H
	mov	ecx, DWORD PTR _this$[ebp]
	mov	ecx, DWORD PTR [ecx+932]
	call	?SetFlag@AirframeClass@@QAEXH@Z		; AirframeClass::SetFlag

; 167  : 			mFaults->SetFault(FaultClass::eng_fault,
; 168  : 								FaultClass::fl_out, FaultClass::fail, FALSE);

	push	0
	push	2
	push	-2147483648				; 80000000H
	push	8
	mov	edx, DWORD PTR _this$[ebp]
	mov	ecx, DWORD PTR [edx+928]
	call	?SetFault@FackClass@@QAEXW4type_FSubSystem@FaultClass@@W4type_FFunction@3@W4type_FSeverity@3@H@Z ; FackClass::SetFault

; 169  : 			Sms->RipOffWeapons(noseAngle);

	push	ecx
	movss	xmm0, DWORD PTR _noseAngle$[ebp]
	movss	DWORD PTR [esp], xmm0
	mov	eax, DWORD PTR _this$[ebp]
	mov	ecx, DWORD PTR [eax+940]
	call	?RipOffWeapons@SMSClass@@QAEXM@Z	; SMSClass::RipOffWeapons
$LN34@LandingChe:

; 170  : 		}
; 171  : 		
; 172  : 		message->dataBlock.damageRandomFact = 0.0F;

	mov	ecx, DWORD PTR _message$[ebp]
	movss	xmm0, DWORD PTR __real@00000000
	movss	DWORD PTR [ecx+56], xmm0

; 173  : 		
; 174  : 		FalconSendMessage (message,TRUE);		

	push	1
	mov	edx, DWORD PTR _message$[ebp]
	push	edx
	call	?FalconSendMessage@@YAXPAVVuMessage@@H@Z ; FalconSendMessage
	add	esp, 8

; 175  : 		return FALSE;

	xor	eax, eax
	jmp	$LN1@LandingChe
$LN47@LandingChe:

; 176  : 	}
; 177  : 	
; 178  : 	
; 179  : 	
; 180  : 	if (fabs(noseAngle) >= impactTest || 
; 181  : 		(!af->IsSet(AirframeClass::OnObject) && platformAngles.sinthe < 0.0F || platformAngles.sinthe < -0.01F) || // JB carrier
; 182  : 		platformAngles.cosphi < 0.94F)

	push	ecx
	movss	xmm0, DWORD PTR _noseAngle$[ebp]
	movss	DWORD PTR [esp], xmm0
	call	?fabs@@YAMM@Z				; fabs
	add	esp, 4
	fstp	DWORD PTR tv1330[ebp]
	movss	xmm0, DWORD PTR tv1330[ebp]
	comiss	xmm0, DWORD PTR _impactTest$[ebp]
	jae	SHORT $LN32@LandingChe
	push	1073741824				; 40000000H
	mov	eax, DWORD PTR _this$[ebp]
	mov	ecx, DWORD PTR [eax+932]
	call	?IsSet@AirframeClass@@QBEHH@Z		; AirframeClass::IsSet
	test	eax, eax
	jne	SHORT $LN31@LandingChe
	mov	ecx, DWORD PTR _this$[ebp]
	movss	xmm0, DWORD PTR __real@00000000
	comiss	xmm0, DWORD PTR [ecx+388]
	ja	SHORT $LN32@LandingChe
$LN31@LandingChe:
	mov	edx, DWORD PTR _this$[ebp]
	movss	xmm0, DWORD PTR __real@bc23d70a
	comiss	xmm0, DWORD PTR [edx+388]
	ja	SHORT $LN32@LandingChe
	mov	eax, DWORD PTR _this$[ebp]
	movss	xmm0, DWORD PTR __real@3f70a3d7
	comiss	xmm0, DWORD PTR [eax+400]
	jbe	$LN33@LandingChe
$LN32@LandingChe:

; 183  : 	{
; 184  : 		// planted right into ground
; 185  : 		// edg note: don't set exploding any more.
; 186  : 		// all collision problems must now go thru ApplyDamage
; 187  : 		message = CreateGroundCollisionMessage(this, FloatToInt32(maxStrength));

	mov	ecx, OFFSET ?vuLocalSessionEntity@@3V?$VuBin@VVuSessionEntity@@@@A ; vuLocalSessionEntity
	call	??B?$VuBin@VVuSessionEntity@@@@QBE_NXZ	; VuBin<VuSessionEntity>::operator bool
	movzx	ecx, al
	test	ecx, ecx
	je	SHORT $LN62@LandingChe
	mov	ecx, OFFSET ?vuLocalSessionEntity@@3V?$VuBin@VVuSessionEntity@@@@A ; vuLocalSessionEntity
	call	?get@?$VuBin@VVuSessionEntity@@@@QBEPAVVuSessionEntity@@XZ ; VuBin<VuSessionEntity>::get
	mov	ecx, eax
	call	?GetGame@FalconSessionEntity@@QAEPAVFalconGameEntity@@XZ ; FalconSessionEntity::GetGame
	mov	DWORD PTR tv388[ebp], eax
	jmp	SHORT $LN63@LandingChe
$LN62@LandingChe:
	mov	DWORD PTR tv388[ebp], 0
$LN63@LandingChe:
	mov	edx, DWORD PTR tv388[ebp]
	push	edx
	mov	eax, DWORD PTR _this$[ebp]
	push	ecx
	movss	xmm0, DWORD PTR [eax+244]
	movss	DWORD PTR [esp], xmm0
	call	?FloatToInt32@@YAHM@Z			; FloatToInt32
	add	esp, 4
	push	eax
	mov	ecx, DWORD PTR _this$[ebp]
	push	ecx
	call	?CreateGroundCollisionMessage@@YAPAVFalconDamageMessage@@PAVSimVehicleClass@@HPAVVuTargetEntity@@@Z ; CreateGroundCollisionMessage
	add	esp, 12					; 0000000cH
	mov	DWORD PTR _message$[ebp], eax

; 188  : 		message->dataBlock.damageStrength =  min(1000.0F, af->vt * impactAngle * 0.1F + 
; 189  : 											af->vt * af->vt * impactAngle * impactAngle * 0.02F);

	mov	edx, DWORD PTR _this$[ebp]
	mov	eax, DWORD PTR [edx+932]
	movss	xmm0, DWORD PTR [eax+1120]
	mulss	xmm0, DWORD PTR _impactAngle$[ebp]
	mulss	xmm0, DWORD PTR __real@3dcccccd
	mov	ecx, DWORD PTR _this$[ebp]
	mov	edx, DWORD PTR [ecx+932]
	mov	eax, DWORD PTR _this$[ebp]
	mov	ecx, DWORD PTR [eax+932]
	movss	xmm1, DWORD PTR [edx+1120]
	mulss	xmm1, DWORD PTR [ecx+1120]
	mulss	xmm1, DWORD PTR _impactAngle$[ebp]
	mulss	xmm1, DWORD PTR _impactAngle$[ebp]
	mulss	xmm1, DWORD PTR __real@3ca3d70a
	addss	xmm0, xmm1
	comiss	xmm0, DWORD PTR __real@447a0000
	jbe	SHORT $LN64@LandingChe
	movss	xmm0, DWORD PTR __real@447a0000
	movss	DWORD PTR tv435[ebp], xmm0
	jmp	SHORT $LN65@LandingChe
$LN64@LandingChe:
	mov	edx, DWORD PTR _this$[ebp]
	mov	eax, DWORD PTR [edx+932]
	movss	xmm0, DWORD PTR [eax+1120]
	mulss	xmm0, DWORD PTR _impactAngle$[ebp]
	mulss	xmm0, DWORD PTR __real@3dcccccd
	mov	ecx, DWORD PTR _this$[ebp]
	mov	edx, DWORD PTR [ecx+932]
	mov	eax, DWORD PTR _this$[ebp]
	mov	ecx, DWORD PTR [eax+932]
	movss	xmm1, DWORD PTR [edx+1120]
	mulss	xmm1, DWORD PTR [ecx+1120]
	mulss	xmm1, DWORD PTR _impactAngle$[ebp]
	mulss	xmm1, DWORD PTR _impactAngle$[ebp]
	mulss	xmm1, DWORD PTR __real@3ca3d70a
	addss	xmm0, xmm1
	movss	DWORD PTR tv435[ebp], xmm0
$LN65@LandingChe:
	mov	edx, DWORD PTR _message$[ebp]
	movss	xmm0, DWORD PTR tv435[ebp]
	movss	DWORD PTR [edx+52], xmm0

; 190  : 		if(message->dataBlock.damageStrength < 1.0F && (float)rand()/(float)RAND_MAX < 0.2F)

	mov	eax, DWORD PTR _message$[ebp]
	movss	xmm0, DWORD PTR __real@3f800000
	comiss	xmm0, DWORD PTR [eax+52]
	jbe	SHORT $LN30@LandingChe
	call	_rand
	cvtsi2ss xmm0, eax
	divss	xmm0, DWORD PTR __real@46fffe00
	movss	xmm1, DWORD PTR __real@3e4ccccd
	comiss	xmm1, xmm0
	jbe	SHORT $LN30@LandingChe

; 191  : 			message->dataBlock.damageStrength = 1.0F;

	mov	ecx, DWORD PTR _message$[ebp]
	movss	xmm0, DWORD PTR __real@3f800000
	movss	DWORD PTR [ecx+52], xmm0
$LN30@LandingChe:

; 192  : 		
; 193  : 		vc = GetVehicleClassData(Type() - VU_LAST_ENTITY_TYPE);

	mov	ecx, DWORD PTR _this$[ebp]
	call	?Type@VuEntity@@QBEGXZ			; VuEntity::Type
	movzx	edx, ax
	sub	edx, 100				; 00000064H
	push	edx
	call	?GetVehicleClassData@@YAPAUVehicleClassDataType@@H@Z ; GetVehicleClassData
	add	esp, 4
	mov	DWORD PTR _vc$[ebp], eax

; 194  : 
; 195  : 		if((float)rand()/(float)RAND_MAX < 0.02F)

	call	_rand
	cvtsi2ss xmm0, eax
	divss	xmm0, DWORD PTR __real@46fffe00
	movss	xmm1, DWORD PTR __real@3ca3d70a
	comiss	xmm1, xmm0
	jbe	$LN28@LandingChe

; 196  : 		{
; 197  : 			if( (float)rand()/(float)RAND_MAX < af->vt * impactAngle * 0.02F * af->Fuel()/vc->FuelWt )

	call	_rand
	cvtsi2ss xmm0, eax
	divss	xmm0, DWORD PTR __real@46fffe00
	mov	eax, DWORD PTR _this$[ebp]
	mov	ecx, DWORD PTR [eax+932]
	movss	xmm1, DWORD PTR [ecx+1120]
	mulss	xmm1, DWORD PTR _impactAngle$[ebp]
	mulss	xmm1, DWORD PTR __real@3ca3d70a
	mov	edx, DWORD PTR _this$[ebp]
	mov	ecx, DWORD PTR [edx+932]
	movss	DWORD PTR tv1732[ebp], xmm0
	movss	DWORD PTR tv1734[ebp], xmm1
	call	?Fuel@AirframeClass@@QAEMXZ		; AirframeClass::Fuel
	fstp	DWORD PTR tv1379[ebp]
	movss	xmm0, DWORD PTR tv1734[ebp]
	mulss	xmm0, DWORD PTR tv1379[ebp]
	mov	eax, DWORD PTR _vc$[ebp]
	cvtsi2ss xmm1, DWORD PTR [eax+40]
	divss	xmm0, xmm1
	movss	xmm1, DWORD PTR tv1732[ebp]
	comiss	xmm0, xmm1
	jbe	SHORT $LN28@LandingChe

; 198  : 				message->dataBlock.damageStrength = 1000.0F;

	mov	ecx, DWORD PTR _message$[ebp]
	movss	xmm0, DWORD PTR __real@447a0000
	movss	DWORD PTR [ecx+52], xmm0
$LN28@LandingChe:

; 199  : 		}
; 200  : 		FalconSendMessage (message,TRUE);

	push	1
	mov	edx, DWORD PTR _message$[ebp]
	push	edx
	call	?FalconSendMessage@@YAXPAVVuMessage@@H@Z ; FalconSendMessage
	add	esp, 8

; 201  : 
; 202  : 		if(!IsSetFalcFlag(FEC_INVULNERABLE))

	push	32					; 00000020H
	mov	ecx, DWORD PTR _this$[ebp]
	call	?IsSetFalcFlag@FalconEntity@@QAEHH@Z	; FalconEntity::IsSetFalcFlag
	test	eax, eax
	jne	SHORT $LN27@LandingChe

; 203  : 		{
; 204  : 			af->SetFlag(AirframeClass::EngineOff);

	push	32768					; 00008000H
	mov	eax, DWORD PTR _this$[ebp]
	mov	ecx, DWORD PTR [eax+932]
	call	?SetFlag@AirframeClass@@QAEXH@Z		; AirframeClass::SetFlag

; 205  : 			af->SetFlag(AirframeClass::EngineOff2);//TJL 01/22/04 multi-engine

	push	536870912				; 20000000H
	mov	ecx, DWORD PTR _this$[ebp]
	mov	ecx, DWORD PTR [ecx+932]
	call	?SetFlag@AirframeClass@@QAEXH@Z		; AirframeClass::SetFlag

; 206  : 			mFaults->SetFault(FaultClass::eng_fault,
; 207  : 								FaultClass::fl_out, FaultClass::fail, FALSE);

	push	0
	push	2
	push	-2147483648				; 80000000H
	push	8
	mov	edx, DWORD PTR _this$[ebp]
	mov	ecx, DWORD PTR [edx+928]
	call	?SetFault@FackClass@@QAEXW4type_FSubSystem@FaultClass@@W4type_FFunction@3@W4type_FSeverity@3@H@Z ; FackClass::SetFault

; 208  : 			Sms->RipOffWeapons(noseAngle);

	push	ecx
	movss	xmm0, DWORD PTR _noseAngle$[ebp]
	movss	DWORD PTR [esp], xmm0
	mov	eax, DWORD PTR _this$[ebp]
	mov	ecx, DWORD PTR [eax+940]
	call	?RipOffWeapons@SMSClass@@QAEXM@Z	; SMSClass::RipOffWeapons
$LN27@LandingChe:

; 209  : 		}
; 210  : 		return FALSE;

	xor	eax, eax
	jmp	$LN1@LandingChe
$LN33@LandingChe:

; 211  : 	}
; 212  : 	
; 213  : 	if( af->gearPos > 0.8F && af->IsSet(AirframeClass::IsDigital) )

	mov	ecx, DWORD PTR _this$[ebp]
	mov	edx, DWORD PTR [ecx+932]
	movss	xmm0, DWORD PTR [edx+1552]
	comiss	xmm0, DWORD PTR __real@3f4ccccd
	jbe	$LN26@LandingChe
	push	1
	mov	eax, DWORD PTR _this$[ebp]
	mov	ecx, DWORD PTR [eax+932]
	call	?IsSet@AirframeClass@@QBEHH@Z		; AirframeClass::IsSet
	test	eax, eax
	je	$LN26@LandingChe

; 214  : 	{
; 215  : 		
; 216  : //		if(!af->auxaeroData->animWheelRadius[0]) // only play the sound of the radius is 0, otherwise it'll be played in airframe::RunLandingGear()
; 217  : 			SoundPos.Sfx(af->auxaeroData->sndTouchDown);

	push	ecx
	movss	xmm0, DWORD PTR __real@00000000
	movss	DWORD PTR [esp], xmm0
	push	ecx
	movss	xmm0, DWORD PTR __real@3f800000
	movss	DWORD PTR [esp], xmm0
	push	0
	mov	ecx, DWORD PTR _this$[ebp]
	mov	edx, DWORD PTR [ecx+932]
	mov	eax, DWORD PTR [edx+4]
	mov	ecx, DWORD PTR [eax+2424]
	push	ecx
	mov	ecx, DWORD PTR _this$[ebp]
	add	ecx, 444				; 000001bcH
	call	?Sfx@F4SoundPos@@QAEXHHMM@Z		; F4SoundPos::Sfx

; 218  : 
; 219  : 		pos.x = XPos();

	mov	ecx, DWORD PTR _this$[ebp]
	call	?XPos@VuEntity@@QBEMXZ			; VuEntity::XPos
	fstp	DWORD PTR _pos$[ebp]

; 220  : 		pos.y = YPos();

	mov	ecx, DWORD PTR _this$[ebp]
	call	?YPos@VuEntity@@QBEMXZ			; VuEntity::YPos
	fstp	DWORD PTR _pos$[ebp+4]

; 221  : 		pos.z = ZPos() + 4.0f;

	mov	ecx, DWORD PTR _this$[ebp]
	call	?ZPos@VuEntity@@QBEMXZ			; VuEntity::ZPos
	fstp	DWORD PTR tv1410[ebp]
	movss	xmm0, DWORD PTR tv1410[ebp]
	addss	xmm0, DWORD PTR __real@40800000
	movss	DWORD PTR _pos$[ebp+8], xmm0

; 222  : 		vec.x = 0.0f;

	movss	xmm0, DWORD PTR __real@00000000
	movss	DWORD PTR _vec$[ebp], xmm0

; 223  : 		vec.y = 0.0f;

	movss	xmm0, DWORD PTR __real@00000000
	movss	DWORD PTR _vec$[ebp+4], xmm0

; 224  : 		vec.z = -12.0f;

	movss	xmm0, DWORD PTR __real@c1400000
	movss	DWORD PTR _vec$[ebp+8], xmm0

; 225  : 
; 226  : 		/*
; 227  : 		OTWDriver.AddSfxRequest(
; 228  : 				new SfxClass ( SFX_LANDING_SMOKE,		// type
; 229  : 				SFX_MOVES | SFX_NO_GROUND_CHECK | SFX_NO_DOWN_VECTOR | SFX_USES_GRAVITY,
; 230  : 				&pos,					// world pos
; 231  : 				&vec,					// vel vector
; 232  : 				5.3f,					// time to live
; 233  : 				5.0f ) );				// scale
; 234  : 				*/
; 235  : 		DrawableParticleSys::PS_AddParticleEx((SFX_LANDING_SMOKE + 1),
; 236  : 												&pos,
; 237  : 												&vec);

	lea	edx, DWORD PTR _vec$[ebp]
	push	edx
	lea	eax, DWORD PTR _pos$[ebp]
	push	eax
	push	59					; 0000003bH
	call	?PS_AddParticleEx@DrawableParticleSys@@SAXHPAUTpoint@@0@Z ; DrawableParticleSys::PS_AddParticleEx
	add	esp, 12					; 0000000cH

; 238  : 		return TRUE;

	mov	eax, 1
	jmp	$LN1@LandingChe
$LN26@LandingChe:

; 239  : 	}
; 240  : 
; 241  : 	if (af->vt * impactAngle < sinkRate *(1.25F - (!
; 242  : 		(af->IsSet(AirframeClass::OverRunway)
; 243  : 		|| af->IsSet(AirframeClass::OnObject)) // JB carrier
; 244  : 		&& 
; 245  : 		!onFlatFeature && groundType != COVERAGE_ROAD) * 0.5F) && af->gearPos > 0.8F)

	push	8388608					; 00800000H
	mov	ecx, DWORD PTR _this$[ebp]
	mov	ecx, DWORD PTR [ecx+932]
	call	?IsSet@AirframeClass@@QBEHH@Z		; AirframeClass::IsSet
	test	eax, eax
	jne	SHORT $LN66@LandingChe
	push	1073741824				; 40000000H
	mov	edx, DWORD PTR _this$[ebp]
	mov	ecx, DWORD PTR [edx+932]
	call	?IsSet@AirframeClass@@QBEHH@Z		; AirframeClass::IsSet
	test	eax, eax
	jne	SHORT $LN66@LandingChe
	mov	eax, DWORD PTR _this$[ebp]
	cmp	DWORD PTR [eax+668], 0
	jne	SHORT $LN66@LandingChe
	cmp	DWORD PTR _groundType$[ebp], 10		; 0000000aH
	je	SHORT $LN66@LandingChe
	mov	DWORD PTR tv568[ebp], 1
	jmp	SHORT $LN67@LandingChe
$LN66@LandingChe:
	mov	DWORD PTR tv568[ebp], 0
$LN67@LandingChe:
	mov	ecx, DWORD PTR _this$[ebp]
	mov	edx, DWORD PTR [ecx+932]
	movss	xmm0, DWORD PTR [edx+1120]
	mulss	xmm0, DWORD PTR _impactAngle$[ebp]
	cvtsi2ss xmm1, DWORD PTR tv568[ebp]
	mulss	xmm1, DWORD PTR __real@3f000000
	movss	xmm2, DWORD PTR __real@3fa00000
	subss	xmm2, xmm1
	mulss	xmm2, DWORD PTR _sinkRate$[ebp]
	comiss	xmm2, xmm0
	jbe	$LN25@LandingChe
	mov	eax, DWORD PTR _this$[ebp]
	mov	ecx, DWORD PTR [eax+932]
	movss	xmm0, DWORD PTR [ecx+1552]
	comiss	xmm0, DWORD PTR __real@3f4ccccd
	jbe	$LN25@LandingChe

; 246  : 	{
; 247  : 		// ok touchdown
; 248  : 		
; 249  :        if (af->vt * impactAngle > 1.0F)

	mov	edx, DWORD PTR _this$[ebp]
	mov	eax, DWORD PTR [edx+932]
	movss	xmm0, DWORD PTR [eax+1120]
	mulss	xmm0, DWORD PTR _impactAngle$[ebp]
	comiss	xmm0, DWORD PTR __real@3f800000
	jbe	SHORT $LN24@LandingChe

; 250  :     		//if(!af->auxaeroData->animWheelRadius[0])
; 251  : 			   SoundPos.Sfx( af->auxaeroData->sndTouchDown );

	push	ecx
	movss	xmm0, DWORD PTR __real@00000000
	movss	DWORD PTR [esp], xmm0
	push	ecx
	movss	xmm0, DWORD PTR __real@3f800000
	movss	DWORD PTR [esp], xmm0
	push	0
	mov	ecx, DWORD PTR _this$[ebp]
	mov	edx, DWORD PTR [ecx+932]
	mov	eax, DWORD PTR [edx+4]
	mov	ecx, DWORD PTR [eax+2424]
	push	ecx
	mov	ecx, DWORD PTR _this$[ebp]
	add	ecx, 444				; 000001bcH
	call	?Sfx@F4SoundPos@@QAEXHHMM@Z		; F4SoundPos::Sfx
$LN24@LandingChe:

; 252  : 
; 253  : 		pos.x = XPos();

	mov	ecx, DWORD PTR _this$[ebp]
	call	?XPos@VuEntity@@QBEMXZ			; VuEntity::XPos
	fstp	DWORD PTR _pos$[ebp]

; 254  : 		pos.y = YPos();

	mov	ecx, DWORD PTR _this$[ebp]
	call	?YPos@VuEntity@@QBEMXZ			; VuEntity::YPos
	fstp	DWORD PTR _pos$[ebp+4]

; 255  : 		pos.z = ZPos() + 4.0f;

	mov	ecx, DWORD PTR _this$[ebp]
	call	?ZPos@VuEntity@@QBEMXZ			; VuEntity::ZPos
	fstp	DWORD PTR tv1444[ebp]
	movss	xmm0, DWORD PTR tv1444[ebp]
	addss	xmm0, DWORD PTR __real@40800000
	movss	DWORD PTR _pos$[ebp+8], xmm0

; 256  : 		vec.x = 0.0f;

	movss	xmm0, DWORD PTR __real@00000000
	movss	DWORD PTR _vec$[ebp], xmm0

; 257  : 		vec.y = 0.0f;

	movss	xmm0, DWORD PTR __real@00000000
	movss	DWORD PTR _vec$[ebp+4], xmm0

; 258  : 		vec.z = -12.0f;

	movss	xmm0, DWORD PTR __real@c1400000
	movss	DWORD PTR _vec$[ebp+8], xmm0

; 259  : 
; 260  : 		/*
; 261  : 		OTWDriver.AddSfxRequest(
; 262  : 				new SfxClass ( SFX_LANDING_SMOKE,		// type
; 263  : 				SFX_MOVES | SFX_NO_GROUND_CHECK | SFX_NO_DOWN_VECTOR | SFX_USES_GRAVITY,
; 264  : 				&pos,					// world pos
; 265  : 				&vec,					// vel vector
; 266  : 				5.3f,					// time to live
; 267  : 				5.0f ) );				// scale
; 268  : 				*/
; 269  : 		DrawableParticleSys::PS_AddParticleEx((SFX_LANDING_SMOKE + 1),
; 270  : 												&pos,
; 271  : 												&vec);

	lea	edx, DWORD PTR _vec$[ebp]
	push	edx
	lea	eax, DWORD PTR _pos$[ebp]
	push	eax
	push	59					; 0000003bH
	call	?PS_AddParticleEx@DrawableParticleSys@@SAXHPAUTpoint@@0@Z ; DrawableParticleSys::PS_AddParticleEx

; 272  : 
; 273  : 		SetPulseTurbulence(0.2f, 0.2f, 1.0f * af->vt * impactAngle, 1.0f);

	add	esp, 8
	movss	xmm0, DWORD PTR __real@3f800000
	movss	DWORD PTR [esp], xmm0
	mov	ecx, DWORD PTR _this$[ebp]
	mov	edx, DWORD PTR [ecx+932]
	movss	xmm0, DWORD PTR __real@3f800000
	mulss	xmm0, DWORD PTR [edx+1120]
	mulss	xmm0, DWORD PTR _impactAngle$[ebp]
	push	ecx
	movss	DWORD PTR [esp], xmm0
	push	ecx
	movss	xmm0, DWORD PTR __real@3e4ccccd
	movss	DWORD PTR [esp], xmm0
	push	ecx
	movss	xmm0, DWORD PTR __real@3e4ccccd
	movss	DWORD PTR [esp], xmm0
	mov	ecx, DWORD PTR _this$[ebp]
	call	?SetPulseTurbulence@AircraftClass@@QAEXMMMM@Z ; AircraftClass::SetPulseTurbulence

; 274  : 
; 275  : 		return TRUE;

	mov	eax, 1
	jmp	$LN1@LandingChe

; 276  : 	}
; 277  : 	else if(af->vt * impactAngle < sinkRate * 1.75F *(1.0F - (!

	jmp	$LN1@LandingChe
$LN25@LandingChe:

; 278  : 		(af->IsSet(AirframeClass::OverRunway) 
; 279  : 		|| af->IsSet(AirframeClass::OnObject)) // JB carrier
; 280  : 		&& !onFlatFeature && groundType != COVERAGE_ROAD) * 0.5F) && af->gearPos > 0.8F)

	push	8388608					; 00800000H
	mov	eax, DWORD PTR _this$[ebp]
	mov	ecx, DWORD PTR [eax+932]
	call	?IsSet@AirframeClass@@QBEHH@Z		; AirframeClass::IsSet
	test	eax, eax
	jne	SHORT $LN68@LandingChe
	push	1073741824				; 40000000H
	mov	ecx, DWORD PTR _this$[ebp]
	mov	ecx, DWORD PTR [ecx+932]
	call	?IsSet@AirframeClass@@QBEHH@Z		; AirframeClass::IsSet
	test	eax, eax
	jne	SHORT $LN68@LandingChe
	mov	edx, DWORD PTR _this$[ebp]
	cmp	DWORD PTR [edx+668], 0
	jne	SHORT $LN68@LandingChe
	cmp	DWORD PTR _groundType$[ebp], 10		; 0000000aH
	je	SHORT $LN68@LandingChe
	mov	DWORD PTR tv647[ebp], 1
	jmp	SHORT $LN69@LandingChe
$LN68@LandingChe:
	mov	DWORD PTR tv647[ebp], 0
$LN69@LandingChe:
	mov	eax, DWORD PTR _this$[ebp]
	mov	ecx, DWORD PTR [eax+932]
	movss	xmm0, DWORD PTR [ecx+1120]
	mulss	xmm0, DWORD PTR _impactAngle$[ebp]
	movss	xmm1, DWORD PTR _sinkRate$[ebp]
	mulss	xmm1, DWORD PTR __real@3fe00000
	cvtsi2ss xmm2, DWORD PTR tv647[ebp]
	mulss	xmm2, DWORD PTR __real@3f000000
	movss	xmm3, DWORD PTR __real@3f800000
	subss	xmm3, xmm2
	mulss	xmm1, xmm3
	comiss	xmm1, xmm0
	jbe	$LN22@LandingChe
	mov	edx, DWORD PTR _this$[ebp]
	mov	eax, DWORD PTR [edx+932]
	movss	xmm0, DWORD PTR [eax+1552]
	comiss	xmm0, DWORD PTR __real@3f4ccccd
	jbe	$LN22@LandingChe

; 281  : 	{
; 282  : 		//bounce
; 283  : 		
; 284  : 		//if(!af->auxaeroData->animWheelRadius[0])
; 285  : 			SoundPos.Sfx( af->auxaeroData->sndTouchDown);

	push	ecx
	movss	xmm0, DWORD PTR __real@00000000
	movss	DWORD PTR [esp], xmm0
	push	ecx
	movss	xmm0, DWORD PTR __real@3f800000
	movss	DWORD PTR [esp], xmm0
	push	0
	mov	ecx, DWORD PTR _this$[ebp]
	mov	edx, DWORD PTR [ecx+932]
	mov	eax, DWORD PTR [edx+4]
	mov	ecx, DWORD PTR [eax+2424]
	push	ecx
	mov	ecx, DWORD PTR _this$[ebp]
	add	ecx, 444				; 000001bcH
	call	?Sfx@F4SoundPos@@QAEXHHMM@Z		; F4SoundPos::Sfx

; 286  : 		
; 287  : 
; 288  : 		pos.x = XPos();

	mov	ecx, DWORD PTR _this$[ebp]
	call	?XPos@VuEntity@@QBEMXZ			; VuEntity::XPos
	fstp	DWORD PTR _pos$[ebp]

; 289  : 		pos.y = YPos();

	mov	ecx, DWORD PTR _this$[ebp]
	call	?YPos@VuEntity@@QBEMXZ			; VuEntity::YPos
	fstp	DWORD PTR _pos$[ebp+4]

; 290  : 		pos.z = ZPos() + 4.0f;;

	mov	ecx, DWORD PTR _this$[ebp]
	call	?ZPos@VuEntity@@QBEMXZ			; VuEntity::ZPos
	fstp	DWORD PTR tv1485[ebp]
	movss	xmm0, DWORD PTR tv1485[ebp]
	addss	xmm0, DWORD PTR __real@40800000
	movss	DWORD PTR _pos$[ebp+8], xmm0

; 291  : 		vec.x = 0.0f;

	movss	xmm0, DWORD PTR __real@00000000
	movss	DWORD PTR _vec$[ebp], xmm0

; 292  : 		vec.y = 0.0f;

	movss	xmm0, DWORD PTR __real@00000000
	movss	DWORD PTR _vec$[ebp+4], xmm0

; 293  : 		vec.z = -12.0f;

	movss	xmm0, DWORD PTR __real@c1400000
	movss	DWORD PTR _vec$[ebp+8], xmm0

; 294  : 
; 295  : 		/*
; 296  : 		OTWDriver.AddSfxRequest(
; 297  : 				new SfxClass ( SFX_LANDING_SMOKE,		// type
; 298  : 				SFX_MOVES | SFX_NO_GROUND_CHECK | SFX_NO_DOWN_VECTOR | SFX_USES_GRAVITY,
; 299  : 				&pos,					// world pos
; 300  : 				&vec,					// vel vector
; 301  : 				5.3f,					// time to live
; 302  : 				5.0f ) );				// scale
; 303  : 				*/
; 304  : 		DrawableParticleSys::PS_AddParticleEx((SFX_LANDING_SMOKE + 1),
; 305  : 												&pos,
; 306  : 												&vec);

	lea	edx, DWORD PTR _vec$[ebp]
	push	edx
	lea	eax, DWORD PTR _pos$[ebp]
	push	eax
	push	59					; 0000003bH
	call	?PS_AddParticleEx@DrawableParticleSys@@SAXHPAUTpoint@@0@Z ; DrawableParticleSys::PS_AddParticleEx
	add	esp, 12					; 0000000cH

; 307  : 
; 308  : 		if (groundType == COVERAGE_OBJECT) // JB carrier

	cmp	DWORD PTR _groundType$[ebp], 15		; 0000000fH
	jne	SHORT $LN21@LandingChe

; 309  : 			return TRUE; // JB carrier

	mov	eax, 1
	jmp	$LN1@LandingChe
$LN21@LandingChe:

; 310  : 
; 311  : 		SetPulseTurbulence(0.2f, 0.2f, 1.0f * af->vt * impactAngle, 1.0f);

	push	ecx
	movss	xmm0, DWORD PTR __real@3f800000
	movss	DWORD PTR [esp], xmm0
	mov	ecx, DWORD PTR _this$[ebp]
	mov	edx, DWORD PTR [ecx+932]
	movss	xmm0, DWORD PTR __real@3f800000
	mulss	xmm0, DWORD PTR [edx+1120]
	mulss	xmm0, DWORD PTR _impactAngle$[ebp]
	push	ecx
	movss	DWORD PTR [esp], xmm0
	push	ecx
	movss	xmm0, DWORD PTR __real@3e4ccccd
	movss	DWORD PTR [esp], xmm0
	push	ecx
	movss	xmm0, DWORD PTR __real@3e4ccccd
	movss	DWORD PTR [esp], xmm0
	mov	ecx, DWORD PTR _this$[ebp]
	call	?SetPulseTurbulence@AircraftClass@@QAEXMMMM@Z ; AircraftClass::SetPulseTurbulence

; 312  : 
; 313  : 		return FALSE;

	xor	eax, eax
	jmp	$LN1@LandingChe
	jmp	$LN1@LandingChe
$LN22@LandingChe:

; 314  : 	}
; 315  : 	else if(af->vt * impactAngle < sinkRate * 3.0F *(1.0F - (!af->IsSet(AirframeClass::OverRunway) && !onFlatFeature && groundType != COVERAGE_ROAD) * 0.5F) && af->gearPos > 0.8F)

	push	8388608					; 00800000H
	mov	eax, DWORD PTR _this$[ebp]
	mov	ecx, DWORD PTR [eax+932]
	call	?IsSet@AirframeClass@@QBEHH@Z		; AirframeClass::IsSet
	test	eax, eax
	jne	SHORT $LN70@LandingChe
	mov	ecx, DWORD PTR _this$[ebp]
	cmp	DWORD PTR [ecx+668], 0
	jne	SHORT $LN70@LandingChe
	cmp	DWORD PTR _groundType$[ebp], 10		; 0000000aH
	je	SHORT $LN70@LandingChe
	mov	DWORD PTR tv718[ebp], 1
	jmp	SHORT $LN71@LandingChe
$LN70@LandingChe:
	mov	DWORD PTR tv718[ebp], 0
$LN71@LandingChe:
	mov	edx, DWORD PTR _this$[ebp]
	mov	eax, DWORD PTR [edx+932]
	movss	xmm0, DWORD PTR [eax+1120]
	mulss	xmm0, DWORD PTR _impactAngle$[ebp]
	movss	xmm1, DWORD PTR _sinkRate$[ebp]
	mulss	xmm1, DWORD PTR __real@40400000
	cvtsi2ss xmm2, DWORD PTR tv718[ebp]
	mulss	xmm2, DWORD PTR __real@3f000000
	movss	xmm3, DWORD PTR __real@3f800000
	subss	xmm3, xmm2
	mulss	xmm1, xmm3
	comiss	xmm1, xmm0
	jbe	$LN19@LandingChe
	mov	ecx, DWORD PTR _this$[ebp]
	mov	edx, DWORD PTR [ecx+932]
	movss	xmm0, DWORD PTR [edx+1552]
	comiss	xmm0, DWORD PTR __real@3f4ccccd
	jbe	$LN19@LandingChe

; 316  : 	{
; 317  : 		//we hit too hard for the landing gear, crunch!		
; 318  : 		
; 319  : 		//if(!af->auxaeroData->animWheelRadius[0])
; 320  : 			SoundPos.Sfx( af->auxaeroData->sndTouchDown );

	push	ecx
	movss	xmm0, DWORD PTR __real@00000000
	movss	DWORD PTR [esp], xmm0
	push	ecx
	movss	xmm0, DWORD PTR __real@3f800000
	movss	DWORD PTR [esp], xmm0
	push	0
	mov	eax, DWORD PTR _this$[ebp]
	mov	ecx, DWORD PTR [eax+932]
	mov	edx, DWORD PTR [ecx+4]
	mov	eax, DWORD PTR [edx+2424]
	push	eax
	mov	ecx, DWORD PTR _this$[ebp]
	add	ecx, 444				; 000001bcH
	call	?Sfx@F4SoundPos@@QAEXHHMM@Z		; F4SoundPos::Sfx

; 321  : 		
; 322  : 		SoundPos.Sfx( SFX_IMPACTG3 + rand() % 4);

	push	ecx
	movss	xmm0, DWORD PTR __real@00000000
	movss	DWORD PTR [esp], xmm0
	push	ecx
	movss	xmm0, DWORD PTR __real@3f800000
	movss	DWORD PTR [esp], xmm0
	push	0
	call	_rand
	and	eax, -2147483645			; 80000003H
	jns	SHORT $LN82@LandingChe
	dec	eax
	or	eax, -4					; fffffffcH
	inc	eax
$LN82@LandingChe:
	add	eax, 111				; 0000006fH
	push	eax
	mov	ecx, DWORD PTR _this$[ebp]
	add	ecx, 444				; 000001bcH
	call	?Sfx@F4SoundPos@@QAEXHHMM@Z		; F4SoundPos::Sfx

; 323  : 		
; 324  : 		// edg note: I would have liked to put this stuff in faults, but
; 325  : 		// as far as I can tell we don't know xyz position there.
; 326  : 		if ( !IsSetFalcFlag(FEC_INVULNERABLE) && !af->IsSet( AirframeClass::GearBroken ) ){				    

	push	32					; 00000020H
	mov	ecx, DWORD PTR _this$[ebp]
	call	?IsSetFalcFlag@FalconEntity@@QAEHH@Z	; FalconEntity::IsSetFalcFlag
	test	eax, eax
	jne	$LN17@LandingChe
	push	2048					; 00000800H
	mov	ecx, DWORD PTR _this$[ebp]
	mov	ecx, DWORD PTR [ecx+932]
	call	?IsSet@AirframeClass@@QBEHH@Z		; AirframeClass::IsSet
	test	eax, eax
	jne	$LN17@LandingChe

; 327  : 			af->SetFlag(AirframeClass::EngineOff);

	push	32768					; 00008000H
	mov	edx, DWORD PTR _this$[ebp]
	mov	ecx, DWORD PTR [edx+932]
	call	?SetFlag@AirframeClass@@QAEXH@Z		; AirframeClass::SetFlag

; 328  : 			af->SetFlag(AirframeClass::EngineOff2);//TJL 01/22/04 multi-engine

	push	536870912				; 20000000H
	mov	eax, DWORD PTR _this$[ebp]
	mov	ecx, DWORD PTR [eax+932]
	call	?SetFlag@AirframeClass@@QAEXH@Z		; AirframeClass::SetFlag

; 329  : 			mFaults->SetFault(FaultClass::eng_fault, FaultClass::fl_out, FaultClass::fail, FALSE);

	push	0
	push	2
	push	-2147483648				; 80000000H
	push	8
	mov	ecx, DWORD PTR _this$[ebp]
	mov	ecx, DWORD PTR [ecx+928]
	call	?SetFault@FackClass@@QAEXW4type_FSubSystem@FaultClass@@W4type_FFunction@3@W4type_FSeverity@3@H@Z ; FackClass::SetFault

; 330  : 
; 331  : 			if(!af->IsSet( AirframeClass::GearBroken )){

	push	2048					; 00000800H
	mov	edx, DWORD PTR _this$[ebp]
	mov	ecx, DWORD PTR [edx+932]
	call	?IsSet@AirframeClass@@QBEHH@Z		; AirframeClass::IsSet
	test	eax, eax
	jne	$LN17@LandingChe

; 332  : 				af->gearPos = 0.2F;

	mov	eax, DWORD PTR _this$[ebp]
	mov	ecx, DWORD PTR [eax+932]
	movss	xmm0, DWORD PTR __real@3e4ccccd
	movss	DWORD PTR [ecx+1552], xmm0

; 333  : 				for(int i = 0; i < af->NumGear(); i++){

	mov	DWORD PTR _i$2[ebp], 0
	jmp	SHORT $LN16@LandingChe
$LN15@LandingChe:
	mov	edx, DWORD PTR _i$2[ebp]
	add	edx, 1
	mov	DWORD PTR _i$2[ebp], edx
$LN16@LandingChe:
	mov	eax, DWORD PTR _this$[ebp]
	mov	ecx, DWORD PTR [eax+932]
	call	?NumGear@AirframeClass@@QBEHXZ		; AirframeClass::NumGear
	cmp	DWORD PTR _i$2[ebp], eax
	jge	SHORT $LN14@LandingChe

; 334  : 					af->gear[i].flags |= GearData::GearProblem;

	mov	ecx, DWORD PTR _this$[ebp]
	mov	edx, DWORD PTR [ecx+932]
	mov	eax, DWORD PTR _i$2[ebp]
	imul	eax, 28					; 0000001cH
	mov	ecx, DWORD PTR [edx+1256]
	mov	edx, DWORD PTR [ecx+eax+12]
	or	edx, 15					; 0000000fH
	mov	eax, DWORD PTR _this$[ebp]
	mov	ecx, DWORD PTR [eax+932]
	mov	eax, DWORD PTR _i$2[ebp]
	imul	eax, 28					; 0000001cH
	mov	ecx, DWORD PTR [ecx+1256]
	mov	DWORD PTR [ecx+eax+12], edx

; 335  : 					SetDOF(ComplexGearDOF[i]/*COMP_NOS_GEAR + i*/, 0.0F);

	push	ecx
	movss	xmm0, DWORD PTR __real@00000000
	movss	DWORD PTR [esp], xmm0
	mov	edx, DWORD PTR _i$2[ebp]
	mov	eax, DWORD PTR ?ComplexGearDOF@@3PAHA[edx*4]
	push	eax
	mov	ecx, DWORD PTR _this$[ebp]
	call	?SetDOF@SimMoverClass@@QAEXHM@Z		; SimMoverClass::SetDOF

; 336  : 				}

	jmp	SHORT $LN15@LandingChe
$LN14@LandingChe:

; 337  : 
; 338  : 				mFaults->SetFault(FaultClass::gear_fault,
; 339  : 					FaultClass::ldgr, FaultClass::fail, TRUE);

	push	1
	push	2
	push	1073741824				; 40000000H
	push	15					; 0000000fH
	mov	ecx, DWORD PTR _this$[ebp]
	mov	ecx, DWORD PTR [ecx+928]
	call	?SetFault@FackClass@@QAEXW4type_FSubSystem@FaultClass@@W4type_FFunction@3@W4type_FSeverity@3@H@Z ; FackClass::SetFault

; 340  : 
; 341  : 				// gear breaks sound
; 342  : 				SoundPos.Sfx( SFX_BIND );

	push	ecx
	movss	xmm0, DWORD PTR __real@00000000
	movss	DWORD PTR [esp], xmm0
	push	ecx
	movss	xmm0, DWORD PTR __real@3f800000
	movss	DWORD PTR [esp], xmm0
	push	0
	push	132					; 00000084H
	mov	ecx, DWORD PTR _this$[ebp]
	add	ecx, 444				; 000001bcH
	call	?Sfx@F4SoundPos@@QAEXHHMM@Z		; F4SoundPos::Sfx

; 343  : 				
; 344  : 				af->SetFlag (AirframeClass::GearBroken);

	push	2048					; 00000800H
	mov	edx, DWORD PTR _this$[ebp]
	mov	ecx, DWORD PTR [edx+932]
	call	?SetFlag@AirframeClass@@QAEXH@Z		; AirframeClass::SetFlag
$LN17@LandingChe:

; 345  : 			}
; 346  : 		}
; 347  : 		SetPulseTurbulence(0.5f, 0.5f, 3.0f * af->vt * impactAngle, 3.0f);

	push	ecx
	movss	xmm0, DWORD PTR __real@40400000
	movss	DWORD PTR [esp], xmm0
	mov	eax, DWORD PTR _this$[ebp]
	mov	ecx, DWORD PTR [eax+932]
	movss	xmm0, DWORD PTR __real@40400000
	mulss	xmm0, DWORD PTR [ecx+1120]
	mulss	xmm0, DWORD PTR _impactAngle$[ebp]
	push	ecx
	movss	DWORD PTR [esp], xmm0
	push	ecx
	movss	xmm0, DWORD PTR __real@3f000000
	movss	DWORD PTR [esp], xmm0
	push	ecx
	movss	xmm0, DWORD PTR __real@3f000000
	movss	DWORD PTR [esp], xmm0
	mov	ecx, DWORD PTR _this$[ebp]
	call	?SetPulseTurbulence@AircraftClass@@QAEXMMMM@Z ; AircraftClass::SetPulseTurbulence

; 348  : 		return TRUE;

	mov	eax, 1
	jmp	$LN1@LandingChe

; 349  : 	}
; 350  : 	else

	jmp	$LN1@LandingChe
$LN19@LandingChe:

; 351  : 	{		
; 352  : 		SoundPos.Sfx( SFX_IMPACTG3 + rand() % 4 );

	push	ecx
	movss	xmm0, DWORD PTR __real@00000000
	movss	DWORD PTR [esp], xmm0
	push	ecx
	movss	xmm0, DWORD PTR __real@3f800000
	movss	DWORD PTR [esp], xmm0
	push	0
	call	_rand
	and	eax, -2147483645			; 80000003H
	jns	SHORT $LN83@LandingChe
	dec	eax
	or	eax, -4					; fffffffcH
	inc	eax
$LN83@LandingChe:
	add	eax, 111				; 0000006fH
	push	eax
	mov	ecx, DWORD PTR _this$[ebp]
	add	ecx, 444				; 000001bcH
	call	?Sfx@F4SoundPos@@QAEXHHMM@Z		; F4SoundPos::Sfx

; 353  : 		
; 354  : 		if(!IsSetFalcFlag(FEC_INVULNERABLE))

	push	32					; 00000020H
	mov	ecx, DWORD PTR _this$[ebp]
	call	?IsSetFalcFlag@FalconEntity@@QAEHH@Z	; FalconEntity::IsSetFalcFlag
	test	eax, eax
	jne	$LN12@LandingChe

; 355  : 		{
; 356  : 			// we're taking damage.....		
; 357  : 			message = CreateGroundCollisionMessage(this, FloatToInt32(maxStrength));

	mov	ecx, OFFSET ?vuLocalSessionEntity@@3V?$VuBin@VVuSessionEntity@@@@A ; vuLocalSessionEntity
	call	??B?$VuBin@VVuSessionEntity@@@@QBE_NXZ	; VuBin<VuSessionEntity>::operator bool
	movzx	edx, al
	test	edx, edx
	je	SHORT $LN72@LandingChe
	mov	ecx, OFFSET ?vuLocalSessionEntity@@3V?$VuBin@VVuSessionEntity@@@@A ; vuLocalSessionEntity
	call	?get@?$VuBin@VVuSessionEntity@@@@QBEPAVVuSessionEntity@@XZ ; VuBin<VuSessionEntity>::get
	mov	ecx, eax
	call	?GetGame@FalconSessionEntity@@QAEPAVFalconGameEntity@@XZ ; FalconSessionEntity::GetGame
	mov	DWORD PTR tv876[ebp], eax
	jmp	SHORT $LN73@LandingChe
$LN72@LandingChe:
	mov	DWORD PTR tv876[ebp], 0
$LN73@LandingChe:
	mov	eax, DWORD PTR tv876[ebp]
	push	eax
	mov	ecx, DWORD PTR _this$[ebp]
	push	ecx
	movss	xmm0, DWORD PTR [ecx+244]
	movss	DWORD PTR [esp], xmm0
	call	?FloatToInt32@@YAHM@Z			; FloatToInt32
	add	esp, 4
	push	eax
	mov	edx, DWORD PTR _this$[ebp]
	push	edx
	call	?CreateGroundCollisionMessage@@YAPAVFalconDamageMessage@@PAVSimVehicleClass@@HPAVVuTargetEntity@@@Z ; CreateGroundCollisionMessage
	add	esp, 12					; 0000000cH
	mov	DWORD PTR _message$[ebp], eax

; 358  : 			
; 359  : 			gearAbsorption = sinkRate * 3.0F * !af->IsSet(AirframeClass::GearBroken) * af->gearPos;

	push	2048					; 00000800H
	mov	eax, DWORD PTR _this$[ebp]
	mov	ecx, DWORD PTR [eax+932]
	call	?IsSet@AirframeClass@@QBEHH@Z		; AirframeClass::IsSet
	test	eax, eax
	jne	SHORT $LN74@LandingChe
	mov	DWORD PTR tv898[ebp], 1
	jmp	SHORT $LN75@LandingChe
$LN74@LandingChe:
	mov	DWORD PTR tv898[ebp], 0
$LN75@LandingChe:
	movss	xmm0, DWORD PTR _sinkRate$[ebp]
	mulss	xmm0, DWORD PTR __real@40400000
	cvtsi2ss xmm1, DWORD PTR tv898[ebp]
	mulss	xmm0, xmm1
	mov	ecx, DWORD PTR _this$[ebp]
	mov	edx, DWORD PTR [ecx+932]
	mulss	xmm0, DWORD PTR [edx+1552]
	movss	DWORD PTR _gearAbsorption$[ebp], xmm0

; 360  : 			
; 361  : 			message->dataBlock.damageStrength = min(1000.0F, af->vt * impactAngle * 0.1F + 
; 362  : 												(af->vt * impactAngle - gearAbsorption) * 
; 363  : 												(af->vt * impactAngle - gearAbsorption) * 0.006F );

	mov	eax, DWORD PTR _this$[ebp]
	mov	ecx, DWORD PTR [eax+932]
	movss	xmm0, DWORD PTR [ecx+1120]
	mulss	xmm0, DWORD PTR _impactAngle$[ebp]
	mulss	xmm0, DWORD PTR __real@3dcccccd
	mov	edx, DWORD PTR _this$[ebp]
	mov	eax, DWORD PTR [edx+932]
	movss	xmm1, DWORD PTR [eax+1120]
	mulss	xmm1, DWORD PTR _impactAngle$[ebp]
	subss	xmm1, DWORD PTR _gearAbsorption$[ebp]
	mov	ecx, DWORD PTR _this$[ebp]
	mov	edx, DWORD PTR [ecx+932]
	movss	xmm2, DWORD PTR [edx+1120]
	mulss	xmm2, DWORD PTR _impactAngle$[ebp]
	subss	xmm2, DWORD PTR _gearAbsorption$[ebp]
	mulss	xmm1, xmm2
	mulss	xmm1, DWORD PTR __real@3bc49ba6
	addss	xmm0, xmm1
	comiss	xmm0, DWORD PTR __real@447a0000
	jbe	SHORT $LN76@LandingChe
	movss	xmm0, DWORD PTR __real@447a0000
	movss	DWORD PTR tv943[ebp], xmm0
	jmp	SHORT $LN77@LandingChe
$LN76@LandingChe:
	mov	eax, DWORD PTR _this$[ebp]
	mov	ecx, DWORD PTR [eax+932]
	movss	xmm0, DWORD PTR [ecx+1120]
	mulss	xmm0, DWORD PTR _impactAngle$[ebp]
	mulss	xmm0, DWORD PTR __real@3dcccccd
	mov	edx, DWORD PTR _this$[ebp]
	mov	eax, DWORD PTR [edx+932]
	movss	xmm1, DWORD PTR [eax+1120]
	mulss	xmm1, DWORD PTR _impactAngle$[ebp]
	subss	xmm1, DWORD PTR _gearAbsorption$[ebp]
	mov	ecx, DWORD PTR _this$[ebp]
	mov	edx, DWORD PTR [ecx+932]
	movss	xmm2, DWORD PTR [edx+1120]
	mulss	xmm2, DWORD PTR _impactAngle$[ebp]
	subss	xmm2, DWORD PTR _gearAbsorption$[ebp]
	mulss	xmm1, xmm2
	mulss	xmm1, DWORD PTR __real@3bc49ba6
	addss	xmm0, xmm1
	movss	DWORD PTR tv943[ebp], xmm0
$LN77@LandingChe:
	mov	eax, DWORD PTR _message$[ebp]
	movss	xmm0, DWORD PTR tv943[ebp]
	movss	DWORD PTR [eax+52], xmm0

; 364  : 
; 365  : 			if(message->dataBlock.damageStrength < 1.0F && (float)rand()/(float)RAND_MAX < 0.2F)

	mov	ecx, DWORD PTR _message$[ebp]
	movss	xmm0, DWORD PTR __real@3f800000
	comiss	xmm0, DWORD PTR [ecx+52]
	jbe	SHORT $LN11@LandingChe
	call	_rand
	cvtsi2ss xmm0, eax
	divss	xmm0, DWORD PTR __real@46fffe00
	movss	xmm1, DWORD PTR __real@3e4ccccd
	comiss	xmm1, xmm0
	jbe	SHORT $LN11@LandingChe

; 366  : 			{
; 367  : 				message->dataBlock.damageStrength = 1.0F;

	mov	edx, DWORD PTR _message$[ebp]
	movss	xmm0, DWORD PTR __real@3f800000
	movss	DWORD PTR [edx+52], xmm0
$LN11@LandingChe:

; 368  : 			}
; 369  : 
; 370  : 			vc = GetVehicleClassData(Type() - VU_LAST_ENTITY_TYPE);

	mov	ecx, DWORD PTR _this$[ebp]
	call	?Type@VuEntity@@QBEGXZ			; VuEntity::Type
	movzx	eax, ax
	sub	eax, 100				; 00000064H
	push	eax
	call	?GetVehicleClassData@@YAPAUVehicleClassDataType@@H@Z ; GetVehicleClassData
	add	esp, 4
	mov	DWORD PTR _vc$[ebp], eax

; 371  : 
; 372  : 			if((float)rand()/(float)RAND_MAX < 0.03F)

	call	_rand
	cvtsi2ss xmm0, eax
	divss	xmm0, DWORD PTR __real@46fffe00
	movss	xmm1, DWORD PTR __real@3cf5c28f
	comiss	xmm1, xmm0
	jbe	$LN9@LandingChe

; 373  : 			{
; 374  : 				if( (float)rand()/(float)RAND_MAX < af->vt * impactAngle * 0.02F * af->Fuel()/vc->FuelWt )

	call	_rand
	cvtsi2ss xmm0, eax
	divss	xmm0, DWORD PTR __real@46fffe00
	mov	ecx, DWORD PTR _this$[ebp]
	mov	edx, DWORD PTR [ecx+932]
	movss	xmm1, DWORD PTR [edx+1120]
	mulss	xmm1, DWORD PTR _impactAngle$[ebp]
	mulss	xmm1, DWORD PTR __real@3ca3d70a
	mov	eax, DWORD PTR _this$[ebp]
	mov	ecx, DWORD PTR [eax+932]
	movss	DWORD PTR tv1736[ebp], xmm0
	movss	DWORD PTR tv1738[ebp], xmm1
	call	?Fuel@AirframeClass@@QAEMXZ		; AirframeClass::Fuel
	fstp	DWORD PTR tv1618[ebp]
	movss	xmm0, DWORD PTR tv1738[ebp]
	mulss	xmm0, DWORD PTR tv1618[ebp]
	mov	ecx, DWORD PTR _vc$[ebp]
	cvtsi2ss xmm1, DWORD PTR [ecx+40]
	divss	xmm0, xmm1
	movss	xmm1, DWORD PTR tv1736[ebp]
	comiss	xmm0, xmm1
	jbe	SHORT $LN9@LandingChe

; 375  : 					message->dataBlock.damageStrength = 1000.0F;

	mov	edx, DWORD PTR _message$[ebp]
	movss	xmm0, DWORD PTR __real@447a0000
	movss	DWORD PTR [edx+52], xmm0
$LN9@LandingChe:

; 376  : 			}
; 377  : 
; 378  : 			// RV - Biker - Damage for AI when crashed into gound
; 379  : 			if(af->IsSet(AirframeClass::IsDigital))

	push	1
	mov	eax, DWORD PTR _this$[ebp]
	mov	ecx, DWORD PTR [eax+932]
	call	?IsSet@AirframeClass@@QBEHH@Z		; AirframeClass::IsSet
	test	eax, eax
	je	$LN8@LandingChe

; 380  : 				message->dataBlock.damageStrength = max(message->dataBlock.damageStrength, maxStrength*(1.0f+(rand()%50)/100.0f));

	mov	ecx, DWORD PTR _message$[ebp]
	movss	xmm0, DWORD PTR [ecx+52]
	movss	DWORD PTR tv1740[ebp], xmm0
	call	_rand
	cdq
	mov	ecx, 50					; 00000032H
	idiv	ecx
	cvtsi2ss xmm0, edx
	divss	xmm0, DWORD PTR __real@42c80000
	addss	xmm0, DWORD PTR __real@3f800000
	mov	edx, DWORD PTR _this$[ebp]
	mulss	xmm0, DWORD PTR [edx+244]
	movss	xmm1, DWORD PTR tv1740[ebp]
	comiss	xmm1, xmm0
	jbe	SHORT $LN78@LandingChe
	mov	eax, DWORD PTR _message$[ebp]
	movss	xmm0, DWORD PTR [eax+52]
	movss	DWORD PTR tv1024[ebp], xmm0
	jmp	SHORT $LN79@LandingChe
$LN78@LandingChe:
	call	_rand
	cdq
	mov	ecx, 50					; 00000032H
	idiv	ecx
	cvtsi2ss xmm0, edx
	divss	xmm0, DWORD PTR __real@42c80000
	addss	xmm0, DWORD PTR __real@3f800000
	mov	edx, DWORD PTR _this$[ebp]
	mulss	xmm0, DWORD PTR [edx+244]
	movss	DWORD PTR tv1024[ebp], xmm0
$LN79@LandingChe:
	mov	eax, DWORD PTR _message$[ebp]
	movss	xmm0, DWORD PTR tv1024[ebp]
	movss	DWORD PTR [eax+52], xmm0
$LN8@LandingChe:

; 381  : 			
; 382  : 			FalconSendMessage (message,TRUE);

	push	1
	mov	ecx, DWORD PTR _message$[ebp]
	push	ecx
	call	?FalconSendMessage@@YAXPAVVuMessage@@H@Z ; FalconSendMessage
	add	esp, 8

; 383  : 
; 384  : 			if (message->dataBlock.damageStrength > 20.0F)

	mov	edx, DWORD PTR _message$[ebp]
	movss	xmm0, DWORD PTR [edx+52]
	comiss	xmm0, DWORD PTR __real@41a00000
	jbe	SHORT $LN7@LandingChe

; 385  : 			{
; 386  : 				af->SetFlag(AirframeClass::EngineOff);

	push	32768					; 00008000H
	mov	eax, DWORD PTR _this$[ebp]
	mov	ecx, DWORD PTR [eax+932]
	call	?SetFlag@AirframeClass@@QAEXH@Z		; AirframeClass::SetFlag

; 387  : 				af->SetFlag(AirframeClass::EngineOff2);//TJL 01/22/04 multi-engine

	push	536870912				; 20000000H
	mov	ecx, DWORD PTR _this$[ebp]
	mov	ecx, DWORD PTR [ecx+932]
	call	?SetFlag@AirframeClass@@QAEXH@Z		; AirframeClass::SetFlag

; 388  : 				mFaults->SetFault(FaultClass::eng_fault,
; 389  : 								FaultClass::fl_out, FaultClass::fail, FALSE);

	push	0
	push	2
	push	-2147483648				; 80000000H
	push	8
	mov	edx, DWORD PTR _this$[ebp]
	mov	ecx, DWORD PTR [edx+928]
	call	?SetFault@FackClass@@QAEXW4type_FSubSystem@FaultClass@@W4type_FFunction@3@W4type_FSeverity@3@H@Z ; FackClass::SetFault
$LN7@LandingChe:

; 390  : 			}
; 391  : 			
; 392  : 			if (!af->IsSet( AirframeClass::GearBroken ) &&  af->gearPos > 0.0F){				    

	push	2048					; 00000800H
	mov	eax, DWORD PTR _this$[ebp]
	mov	ecx, DWORD PTR [eax+932]
	call	?IsSet@AirframeClass@@QBEHH@Z		; AirframeClass::IsSet
	test	eax, eax
	jne	$LN6@LandingChe
	mov	ecx, DWORD PTR _this$[ebp]
	mov	edx, DWORD PTR [ecx+932]
	movss	xmm0, DWORD PTR [edx+1552]
	comiss	xmm0, DWORD PTR __real@00000000
	jbe	$LN6@LandingChe

; 393  : 				af->gearPos = 0.2F;

	mov	eax, DWORD PTR _this$[ebp]
	mov	ecx, DWORD PTR [eax+932]
	movss	xmm0, DWORD PTR __real@3e4ccccd
	movss	DWORD PTR [ecx+1552], xmm0

; 394  : 				for(int i = 0; i < af->NumGear(); i++){

	mov	DWORD PTR _i$1[ebp], 0
	jmp	SHORT $LN5@LandingChe
$LN4@LandingChe:
	mov	edx, DWORD PTR _i$1[ebp]
	add	edx, 1
	mov	DWORD PTR _i$1[ebp], edx
$LN5@LandingChe:
	mov	eax, DWORD PTR _this$[ebp]
	mov	ecx, DWORD PTR [eax+932]
	call	?NumGear@AirframeClass@@QBEHXZ		; AirframeClass::NumGear
	cmp	DWORD PTR _i$1[ebp], eax
	jge	SHORT $LN3@LandingChe

; 395  : 					af->gear[i].flags |= GearData::GearProblem;

	mov	ecx, DWORD PTR _this$[ebp]
	mov	edx, DWORD PTR [ecx+932]
	mov	eax, DWORD PTR _i$1[ebp]
	imul	eax, 28					; 0000001cH
	mov	ecx, DWORD PTR [edx+1256]
	mov	edx, DWORD PTR [ecx+eax+12]
	or	edx, 15					; 0000000fH
	mov	eax, DWORD PTR _this$[ebp]
	mov	ecx, DWORD PTR [eax+932]
	mov	eax, DWORD PTR _i$1[ebp]
	imul	eax, 28					; 0000001cH
	mov	ecx, DWORD PTR [ecx+1256]
	mov	DWORD PTR [ecx+eax+12], edx

; 396  : 				}

	jmp	SHORT $LN4@LandingChe
$LN3@LandingChe:

; 397  : 				// JPO - change to only play for us.
; 398  : 				mFaults->SetFault(FaultClass::gear_fault,
; 399  : 					FaultClass::ldgr, FaultClass::fail, this == SimDriver.GetPlayerEntity());

	mov	ecx, OFFSET ?SimDriver@@3VSimulationDriver@@A ; SimDriver
	call	?GetPlayerEntity@SimulationDriver@@QBEPAVSimMoverClass@@XZ ; SimulationDriver::GetPlayerEntity
	cmp	DWORD PTR _this$[ebp], eax
	jne	SHORT $LN80@LandingChe
	mov	DWORD PTR tv1081[ebp], 1
	jmp	SHORT $LN81@LandingChe
$LN80@LandingChe:
	mov	DWORD PTR tv1081[ebp], 0
$LN81@LandingChe:
	mov	edx, DWORD PTR tv1081[ebp]
	push	edx
	push	2
	push	1073741824				; 40000000H
	push	15					; 0000000fH
	mov	eax, DWORD PTR _this$[ebp]
	mov	ecx, DWORD PTR [eax+928]
	call	?SetFault@FackClass@@QAEXW4type_FSubSystem@FaultClass@@W4type_FFunction@3@W4type_FSeverity@3@H@Z ; FackClass::SetFault

; 400  : 				
; 401  : 				// gear breaks sound
; 402  : 				SoundPos.Sfx( af->auxaeroData->sndWheelBrakes );

	push	ecx
	movss	xmm0, DWORD PTR __real@00000000
	movss	DWORD PTR [esp], xmm0
	push	ecx
	movss	xmm0, DWORD PTR __real@3f800000
	movss	DWORD PTR [esp], xmm0
	push	0
	mov	ecx, DWORD PTR _this$[ebp]
	mov	edx, DWORD PTR [ecx+932]
	mov	eax, DWORD PTR [edx+4]
	mov	ecx, DWORD PTR [eax+2428]
	push	ecx
	mov	ecx, DWORD PTR _this$[ebp]
	add	ecx, 444				; 000001bcH
	call	?Sfx@F4SoundPos@@QAEXHHMM@Z		; F4SoundPos::Sfx

; 403  : 				
; 404  : 				af->SetFlag (AirframeClass::GearBroken);

	push	2048					; 00000800H
	mov	edx, DWORD PTR _this$[ebp]
	mov	ecx, DWORD PTR [edx+932]
	call	?SetFlag@AirframeClass@@QAEXH@Z		; AirframeClass::SetFlag
$LN6@LandingChe:

; 405  : 			}
; 406  : 			
; 407  : 			Sms->RipOffWeapons(noseAngle);

	push	ecx
	movss	xmm0, DWORD PTR _noseAngle$[ebp]
	movss	DWORD PTR [esp], xmm0
	mov	eax, DWORD PTR _this$[ebp]
	mov	ecx, DWORD PTR [eax+940]
	call	?RipOffWeapons@SMSClass@@QAEXM@Z	; SMSClass::RipOffWeapons
$LN12@LandingChe:

; 408  : 		}
; 409  : 
; 410  : 		SetPulseTurbulence(0.5f, 0.5f, 3.0f * af->vt * impactAngle, 3.0f);

	push	ecx
	movss	xmm0, DWORD PTR __real@40400000
	movss	DWORD PTR [esp], xmm0
	mov	ecx, DWORD PTR _this$[ebp]
	mov	edx, DWORD PTR [ecx+932]
	movss	xmm0, DWORD PTR __real@40400000
	mulss	xmm0, DWORD PTR [edx+1120]
	mulss	xmm0, DWORD PTR _impactAngle$[ebp]
	push	ecx
	movss	DWORD PTR [esp], xmm0
	push	ecx
	movss	xmm0, DWORD PTR __real@3f000000
	movss	DWORD PTR [esp], xmm0
	push	ecx
	movss	xmm0, DWORD PTR __real@3f000000
	movss	DWORD PTR [esp], xmm0
	mov	ecx, DWORD PTR _this$[ebp]
	call	?SetPulseTurbulence@AircraftClass@@QAEXMMMM@Z ; AircraftClass::SetPulseTurbulence

; 411  : 
; 412  : 		if(af->vt * impactAngle < sinkRate * 2.0F)			

	mov	eax, DWORD PTR _this$[ebp]
	mov	ecx, DWORD PTR [eax+932]
	movss	xmm0, DWORD PTR [ecx+1120]
	mulss	xmm0, DWORD PTR _impactAngle$[ebp]
	movss	xmm1, DWORD PTR _sinkRate$[ebp]
	mulss	xmm1, DWORD PTR __real@40000000
	comiss	xmm1, xmm0
	jbe	SHORT $LN2@LandingChe

; 413  : 			return TRUE;

	mov	eax, 1
	jmp	SHORT $LN1@LandingChe

; 414  : 		else

	jmp	SHORT $LN1@LandingChe
$LN2@LandingChe:

; 415  : 			return FALSE;

	xor	eax, eax
$LN1@LandingChe:

; 416  : 	}
; 417  : }

	mov	ecx, DWORD PTR __$ArrayPad$[ebp]
	xor	ecx, ebp
	call	@__security_check_cookie@4
	mov	esp, ebp
	pop	ebp
	ret	12					; 0000000cH
?LandingCheck@AircraftClass@@QAEHMMH@Z ENDP		; AircraftClass::LandingCheck
_TEXT	ENDS
; Function compile flags: /Odtp
; File c:\users\zhitao li\documents\visual studio 2012\projects\freefalcon\sim\include\simmover.h
;	COMDAT ?SetDOF@SimMoverClass@@QAEXHM@Z
_TEXT	SEGMENT
_this$ = -4						; size = 4
_dof$ = 8						; size = 4
_val$ = 12						; size = 4
?SetDOF@SimMoverClass@@QAEXHM@Z PROC			; SimMoverClass::SetDOF, COMDAT
; _this$ = ecx

; 130  : 	void SetDOF (int dof, float val) { ShiAssert(dof < numDofs); if (dof < numDofs) { DOFData[dof] = val;}}

	push	ebp
	mov	ebp, esp
	push	ecx
	mov	DWORD PTR _this$[ebp], ecx
	mov	eax, DWORD PTR _this$[ebp]
	mov	ecx, DWORD PTR _dof$[ebp]
	cmp	ecx, DWORD PTR [eax+600]
	jge	SHORT $LN1@SetDOF
	mov	edx, DWORD PTR _this$[ebp]
	mov	eax, DWORD PTR [edx+612]
	mov	ecx, DWORD PTR _dof$[ebp]
	movss	xmm0, DWORD PTR _val$[ebp]
	movss	DWORD PTR [eax+ecx*4], xmm0
$LN1@SetDOF:
	mov	esp, ebp
	pop	ebp
	ret	8
?SetDOF@SimMoverClass@@QAEXHM@Z ENDP			; SimMoverClass::SetDOF
_TEXT	ENDS
; Function compile flags: /Odtp
; File c:\users\zhitao li\documents\visual studio 2012\projects\freefalcon\sim\include\simbase.h
;	COMDAT ?GetCampaignObject@SimBaseClass@@QAEPAVCampBaseClass@@XZ
_TEXT	SEGMENT
_this$ = -4						; size = 4
?GetCampaignObject@SimBaseClass@@QAEPAVCampBaseClass@@XZ PROC ; SimBaseClass::GetCampaignObject, COMDAT
; _this$ = ecx

; 212  : 	CampBaseClass *GetCampaignObject (void) { return campaignObject.get(); }

	push	ebp
	mov	ebp, esp
	push	ecx
	mov	DWORD PTR _this$[ebp], ecx
	mov	ecx, DWORD PTR _this$[ebp]
	add	ecx, 144				; 00000090H
	call	?get@?$VuBin@VCampBaseClass@@@@QBEPAVCampBaseClass@@XZ ; VuBin<CampBaseClass>::get
	mov	esp, ebp
	pop	ebp
	ret	0
?GetCampaignObject@SimBaseClass@@QAEPAVCampBaseClass@@XZ ENDP ; SimBaseClass::GetCampaignObject
_TEXT	ENDS
; Function compile flags: /Odtp
; File c:\users\zhitao li\documents\visual studio 2012\projects\freefalcon\vu2\include\vu_templates.h
;	COMDAT ?get@?$VuBin@VCampBaseClass@@@@QBEPAVCampBaseClass@@XZ
_TEXT	SEGMENT
_this$ = -4						; size = 4
?get@?$VuBin@VCampBaseClass@@@@QBEPAVCampBaseClass@@XZ PROC ; VuBin<CampBaseClass>::get, COMDAT
; _this$ = ecx

; 55   : 	E *get() const{

	push	ebp
	mov	ebp, esp
	push	ecx
	mov	DWORD PTR _this$[ebp], ecx

; 56   : 		return e;

	mov	eax, DWORD PTR _this$[ebp]
	mov	eax, DWORD PTR [eax]

; 57   : 	}

	mov	esp, ebp
	pop	ebp
	ret	0
?get@?$VuBin@VCampBaseClass@@@@QBEPAVCampBaseClass@@XZ ENDP ; VuBin<CampBaseClass>::get
_TEXT	ENDS
; Function compile flags: /Odtp
; File c:\users\zhitao li\documents\visual studio 2012\projects\freefalcon\falclib\include\fakerand.h
;	COMDAT ?PRANDFloat@@YAMXZ
_TEXT	SEGMENT
tv75 = -8						; size = 4
_x$ = -4						; size = 4
?PRANDFloat@@YAMXZ PROC					; PRANDFloat, COMDAT

; 143  : {

	push	ebp
	mov	ebp, esp
	sub	esp, 8

; 144  : //	return NRAND;
; 145  : 	float	x=	(float)(GenerateFastRandom()&0xffff);

	call	?GenerateFastRandom@@YAJXZ		; GenerateFastRandom
	and	eax, 65535				; 0000ffffH
	cvtsi2ss xmm0, eax
	movss	DWORD PTR _x$[ebp], xmm0

; 146  : 	return( 1 - 2 * x / 65535.0f);

	movss	xmm0, DWORD PTR __real@40000000
	mulss	xmm0, DWORD PTR _x$[ebp]
	divss	xmm0, DWORD PTR __real@477fff00
	movss	xmm1, DWORD PTR __real@3f800000
	subss	xmm1, xmm0
	movss	DWORD PTR tv75[ebp], xmm1
	fld	DWORD PTR tv75[ebp]

; 147  : }

	mov	esp, ebp
	pop	ebp
	ret	0
?PRANDFloat@@YAMXZ ENDP					; PRANDFloat
_TEXT	ENDS
; Function compile flags: /Odtp
; File c:\users\zhitao li\documents\visual studio 2012\projects\freefalcon\falclib\include\fakerand.h
;	COMDAT ?GenerateFastRandom@@YAJXZ
_TEXT	SEGMENT
_FastRandom$ = -4					; size = 4
?GenerateFastRandom@@YAJXZ PROC				; GenerateFastRandom, COMDAT

; 108  : {

	push	ebp
	mov	ebp, esp
	push	ecx

; 109  : 	static long LastRandom;
; 110  : 	long	FastRandom;														// The Random Variable
; 111  : 	_asm {	
; 112  : 			push	edx

	push	edx

; 113  : 			push	eax

	push	eax

; 114  : 			RDTSC

	rdtsc

; 115  : 			add	DWORD PTR FastRandom,edx

	add	DWORD PTR _FastRandom$[ebp], edx

; 116  : 			xor	DWORD PTR FastRandom,eax

	xor	DWORD PTR _FastRandom$[ebp], eax

; 117  : 			mov	eax, DWORD PTR LastRandom

	mov	eax, DWORD PTR ?LastRandom@?1??GenerateFastRandom@@YAJXZ@4JA ; `GenerateFastRandom'::`2'::LastRandom

; 118  : 			add	DWORD PTR FastRandom,eax

	add	DWORD PTR _FastRandom$[ebp], eax

; 119  : 			add	DWORD PTR LastRandom,edx

	add	DWORD PTR ?LastRandom@?1??GenerateFastRandom@@YAJXZ@4JA, edx ; `GenerateFastRandom'::`2'::LastRandom

; 120  : 			pop	eax

	pop	eax

; 121  : 			pop	edx

	pop	edx

; 122  : 	}
; 123  : 	return(FastRandom);

	mov	eax, DWORD PTR _FastRandom$[ebp]

; 124  : }

	mov	esp, ebp
	pop	ebp
	ret	0
?GenerateFastRandom@@YAJXZ ENDP				; GenerateFastRandom
_TEXT	ENDS
; Function compile flags: /Odtp
;	COMDAT ??_G_System_error_category@std@@UAEPAXI@Z
_TEXT	SEGMENT
_this$ = -4						; size = 4
___flags$ = 8						; size = 4
??_G_System_error_category@std@@UAEPAXI@Z PROC		; std::_System_error_category::`scalar deleting destructor', COMDAT
; _this$ = ecx
	push	ebp
	mov	ebp, esp
	push	ecx
	mov	DWORD PTR _this$[ebp], ecx
	mov	ecx, DWORD PTR _this$[ebp]
	call	??1_System_error_category@std@@UAE@XZ
	mov	eax, DWORD PTR ___flags$[ebp]
	and	eax, 1
	je	SHORT $LN1@scalar
	mov	ecx, DWORD PTR _this$[ebp]
	push	ecx
	call	??3@YAXPAX@Z				; operator delete
	add	esp, 4
$LN1@scalar:
	mov	eax, DWORD PTR _this$[ebp]
	mov	esp, ebp
	pop	ebp
	ret	4
??_G_System_error_category@std@@UAEPAXI@Z ENDP		; std::_System_error_category::`scalar deleting destructor'
_TEXT	ENDS
; Function compile flags: /Odtp
;	COMDAT ??1_System_error_category@std@@UAE@XZ
_TEXT	SEGMENT
_this$ = -4						; size = 4
??1_System_error_category@std@@UAE@XZ PROC		; std::_System_error_category::~_System_error_category, COMDAT
; _this$ = ecx
	push	ebp
	mov	ebp, esp
	push	ecx
	mov	DWORD PTR _this$[ebp], ecx
	mov	ecx, DWORD PTR _this$[ebp]
	call	??1_Generic_error_category@std@@UAE@XZ
	mov	esp, ebp
	pop	ebp
	ret	0
??1_System_error_category@std@@UAE@XZ ENDP		; std::_System_error_category::~_System_error_category
_TEXT	ENDS
; Function compile flags: /Odtp
; File c:\program files (x86)\microsoft visual studio 11.0\vc\include\system_error
;	COMDAT ?default_error_condition@_System_error_category@std@@UBE?AVerror_condition@2@H@Z
_TEXT	SEGMENT
_this$ = -4						; size = 4
___$ReturnUdt$ = 8					; size = 4
__Errval$ = 12						; size = 4
?default_error_condition@_System_error_category@std@@UBE?AVerror_condition@2@H@Z PROC ; std::_System_error_category::default_error_condition, COMDAT
; _this$ = ecx

; 641  : 		{	// make error_condition for error code (generic if possible)

	push	ebp
	mov	ebp, esp
	push	ecx
	mov	DWORD PTR _this$[ebp], ecx

; 642  : 		if (_Syserror_map(_Errval))

	mov	eax, DWORD PTR __Errval$[ebp]
	push	eax
	call	?_Syserror_map@std@@YAPBDH@Z		; std::_Syserror_map
	add	esp, 4
	test	eax, eax
	je	SHORT $LN2@default_er

; 643  : 			return (error_condition(_Errval, generic_category()));

	call	?generic_category@std@@YAABVerror_category@1@XZ ; std::generic_category
	push	eax
	mov	ecx, DWORD PTR __Errval$[ebp]
	push	ecx
	mov	ecx, DWORD PTR ___$ReturnUdt$[ebp]
	call	??0error_condition@std@@QAE@HABVerror_category@1@@Z ; std::error_condition::error_condition
	mov	eax, DWORD PTR ___$ReturnUdt$[ebp]
	jmp	SHORT $LN3@default_er

; 644  : 		else

	jmp	SHORT $LN3@default_er
$LN2@default_er:

; 645  : 			return (error_condition(_Errval, system_category()));

	call	?system_category@std@@YAABVerror_category@1@XZ ; std::system_category
	push	eax
	mov	edx, DWORD PTR __Errval$[ebp]
	push	edx
	mov	ecx, DWORD PTR ___$ReturnUdt$[ebp]
	call	??0error_condition@std@@QAE@HABVerror_category@1@@Z ; std::error_condition::error_condition
	mov	eax, DWORD PTR ___$ReturnUdt$[ebp]
$LN3@default_er:

; 646  : 		}

	mov	esp, ebp
	pop	ebp
	ret	8
?default_error_condition@_System_error_category@std@@UBE?AVerror_condition@2@H@Z ENDP ; std::_System_error_category::default_error_condition
_TEXT	ENDS
; Function compile flags: /Odtp
; File c:\program files (x86)\microsoft visual studio 11.0\vc\include\system_error
;	COMDAT ?message@_System_error_category@std@@UBE?AV?$basic_string@DU?$char_traits@D@std@@V?$allocator@D@2@@2@H@Z
_TEXT	SEGMENT
_this$ = -16						; size = 4
$T1 = -12						; size = 4
tv69 = -8						; size = 4
__Name$ = -4						; size = 4
___$ReturnUdt$ = 8					; size = 4
__Errcode$ = 12						; size = 4
?message@_System_error_category@std@@UBE?AV?$basic_string@DU?$char_traits@D@std@@V?$allocator@D@2@@2@H@Z PROC ; std::_System_error_category::message, COMDAT
; _this$ = ecx

; 634  : 		{	// convert to name of error

	push	ebp
	mov	ebp, esp
	sub	esp, 16					; 00000010H
	mov	DWORD PTR _this$[ebp], ecx
	mov	DWORD PTR $T1[ebp], 0

; 635  : 		const char *_Name = _Winerror_map(_Errcode);

	mov	eax, DWORD PTR __Errcode$[ebp]
	push	eax
	call	?_Winerror_map@std@@YAPBDH@Z		; std::_Winerror_map
	add	esp, 4
	mov	DWORD PTR __Name$[ebp], eax

; 636  : 		return (string(_Name != 0 ? _Name : "unknown error"));

	cmp	DWORD PTR __Name$[ebp], 0
	je	SHORT $LN3@message
	mov	ecx, DWORD PTR __Name$[ebp]
	mov	DWORD PTR tv69[ebp], ecx
	jmp	SHORT $LN4@message
$LN3@message:
	mov	DWORD PTR tv69[ebp], OFFSET ??_C@_0O@BFJCFAAK@unknown?5error?$AA@
$LN4@message:
	mov	edx, DWORD PTR tv69[ebp]
	push	edx
	mov	ecx, DWORD PTR ___$ReturnUdt$[ebp]
	call	??0?$basic_string@DU?$char_traits@D@std@@V?$allocator@D@2@@std@@QAE@PBD@Z ; std::basic_string<char,std::char_traits<char>,std::allocator<char> >::basic_string<char,std::char_traits<char>,std::allocator<char> >
	mov	eax, DWORD PTR $T1[ebp]
	or	eax, 1
	mov	DWORD PTR $T1[ebp], eax
	mov	eax, DWORD PTR ___$ReturnUdt$[ebp]

; 637  : 		}

	mov	esp, ebp
	pop	ebp
	ret	8
?message@_System_error_category@std@@UBE?AV?$basic_string@DU?$char_traits@D@std@@V?$allocator@D@2@@2@H@Z ENDP ; std::_System_error_category::message
_TEXT	ENDS
; Function compile flags: /Odtp
; File c:\program files (x86)\microsoft visual studio 11.0\vc\include\system_error
;	COMDAT ?name@_System_error_category@std@@UBEPBDXZ
_TEXT	SEGMENT
_this$ = -4						; size = 4
?name@_System_error_category@std@@UBEPBDXZ PROC		; std::_System_error_category::name, COMDAT
; _this$ = ecx

; 629  : 		{	// get name of category

	push	ebp
	mov	ebp, esp
	push	ecx
	mov	DWORD PTR _this$[ebp], ecx

; 630  : 		return ("system");

	mov	eax, OFFSET ??_C@_06FHFOAHML@system?$AA@

; 631  : 		}

	mov	esp, ebp
	pop	ebp
	ret	0
?name@_System_error_category@std@@UBEPBDXZ ENDP		; std::_System_error_category::name
_TEXT	ENDS
; Function compile flags: /Odtp
; File c:\program files (x86)\microsoft visual studio 11.0\vc\include\system_error
;	COMDAT ??0_System_error_category@std@@QAE@XZ
_TEXT	SEGMENT
_this$ = -4						; size = 4
??0_System_error_category@std@@QAE@XZ PROC		; std::_System_error_category::_System_error_category, COMDAT
; _this$ = ecx

; 624  : 	_System_error_category()

	push	ebp
	mov	ebp, esp
	push	ecx
	mov	DWORD PTR _this$[ebp], ecx
	mov	ecx, DWORD PTR _this$[ebp]
	call	??0_Generic_error_category@std@@QAE@XZ	; std::_Generic_error_category::_Generic_error_category
	mov	eax, DWORD PTR _this$[ebp]
	mov	DWORD PTR [eax], OFFSET ??_7_System_error_category@std@@6B@

; 625  : 		{	// default constructor
; 626  : 		}

	mov	eax, DWORD PTR _this$[ebp]
	mov	esp, ebp
	pop	ebp
	ret	0
??0_System_error_category@std@@QAE@XZ ENDP		; std::_System_error_category::_System_error_category
_TEXT	ENDS
; Function compile flags: /Odtp
;	COMDAT ??_G_Iostream_error_category@std@@UAEPAXI@Z
_TEXT	SEGMENT
_this$ = -4						; size = 4
___flags$ = 8						; size = 4
??_G_Iostream_error_category@std@@UAEPAXI@Z PROC	; std::_Iostream_error_category::`scalar deleting destructor', COMDAT
; _this$ = ecx
	push	ebp
	mov	ebp, esp
	push	ecx
	mov	DWORD PTR _this$[ebp], ecx
	mov	ecx, DWORD PTR _this$[ebp]
	call	??1_Iostream_error_category@std@@UAE@XZ
	mov	eax, DWORD PTR ___flags$[ebp]
	and	eax, 1
	je	SHORT $LN1@scalar
	mov	ecx, DWORD PTR _this$[ebp]
	push	ecx
	call	??3@YAXPAX@Z				; operator delete
	add	esp, 4
$LN1@scalar:
	mov	eax, DWORD PTR _this$[ebp]
	mov	esp, ebp
	pop	ebp
	ret	4
??_G_Iostream_error_category@std@@UAEPAXI@Z ENDP	; std::_Iostream_error_category::`scalar deleting destructor'
_TEXT	ENDS
; Function compile flags: /Odtp
;	COMDAT ??1_Iostream_error_category@std@@UAE@XZ
_TEXT	SEGMENT
_this$ = -4						; size = 4
??1_Iostream_error_category@std@@UAE@XZ PROC		; std::_Iostream_error_category::~_Iostream_error_category, COMDAT
; _this$ = ecx
	push	ebp
	mov	ebp, esp
	push	ecx
	mov	DWORD PTR _this$[ebp], ecx
	mov	ecx, DWORD PTR _this$[ebp]
	call	??1_Generic_error_category@std@@UAE@XZ
	mov	esp, ebp
	pop	ebp
	ret	0
??1_Iostream_error_category@std@@UAE@XZ ENDP		; std::_Iostream_error_category::~_Iostream_error_category
_TEXT	ENDS
; Function compile flags: /Odtp
; File c:\program files (x86)\microsoft visual studio 11.0\vc\include\system_error
;	COMDAT ?message@_Iostream_error_category@std@@UBE?AV?$basic_string@DU?$char_traits@D@std@@V?$allocator@D@2@@2@H@Z
_TEXT	SEGMENT
_this$ = -8						; size = 4
$T1 = -4						; size = 4
___$ReturnUdt$ = 8					; size = 4
__Errcode$ = 12						; size = 4
?message@_Iostream_error_category@std@@UBE?AV?$basic_string@DU?$char_traits@D@std@@V?$allocator@D@2@@2@H@Z PROC ; std::_Iostream_error_category::message, COMDAT
; _this$ = ecx

; 611  : 		{	// convert to name of error

	push	ebp
	mov	ebp, esp
	sub	esp, 8
	mov	DWORD PTR _this$[ebp], ecx
	mov	DWORD PTR $T1[ebp], 0

; 612  : 		if (_Errcode == (int)io_errc::stream)

	cmp	DWORD PTR __Errcode$[ebp], 1
	jne	SHORT $LN2@message

; 613  : 			return ("iostream stream error");

	push	OFFSET ??_C@_0BG@PADBLCHM@iostream?5stream?5error?$AA@
	mov	ecx, DWORD PTR ___$ReturnUdt$[ebp]
	call	??0?$basic_string@DU?$char_traits@D@std@@V?$allocator@D@2@@std@@QAE@PBD@Z ; std::basic_string<char,std::char_traits<char>,std::allocator<char> >::basic_string<char,std::char_traits<char>,std::allocator<char> >
	mov	eax, DWORD PTR $T1[ebp]
	or	eax, 1
	mov	DWORD PTR $T1[ebp], eax
	mov	eax, DWORD PTR ___$ReturnUdt$[ebp]
	jmp	SHORT $LN3@message

; 614  : 		else

	jmp	SHORT $LN3@message
$LN2@message:

; 615  : 			return (_Generic_error_category::message(_Errcode));

	mov	ecx, DWORD PTR __Errcode$[ebp]
	push	ecx
	mov	edx, DWORD PTR ___$ReturnUdt$[ebp]
	push	edx
	mov	ecx, DWORD PTR _this$[ebp]
	call	?message@_Generic_error_category@std@@UBE?AV?$basic_string@DU?$char_traits@D@std@@V?$allocator@D@2@@2@H@Z ; std::_Generic_error_category::message
	mov	eax, DWORD PTR $T1[ebp]
	or	eax, 1
	mov	DWORD PTR $T1[ebp], eax
	mov	eax, DWORD PTR ___$ReturnUdt$[ebp]
$LN3@message:

; 616  : 		}

	mov	esp, ebp
	pop	ebp
	ret	8
?message@_Iostream_error_category@std@@UBE?AV?$basic_string@DU?$char_traits@D@std@@V?$allocator@D@2@@2@H@Z ENDP ; std::_Iostream_error_category::message
_TEXT	ENDS
; Function compile flags: /Odtp
; File c:\program files (x86)\microsoft visual studio 11.0\vc\include\system_error
;	COMDAT ?name@_Iostream_error_category@std@@UBEPBDXZ
_TEXT	SEGMENT
_this$ = -4						; size = 4
?name@_Iostream_error_category@std@@UBEPBDXZ PROC	; std::_Iostream_error_category::name, COMDAT
; _this$ = ecx

; 606  : 		{	// get name of category

	push	ebp
	mov	ebp, esp
	push	ecx
	mov	DWORD PTR _this$[ebp], ecx

; 607  : 		return ("iostream");

	mov	eax, OFFSET ??_C@_08LLGCOLLL@iostream?$AA@

; 608  : 		}

	mov	esp, ebp
	pop	ebp
	ret	0
?name@_Iostream_error_category@std@@UBEPBDXZ ENDP	; std::_Iostream_error_category::name
_TEXT	ENDS
; Function compile flags: /Odtp
; File c:\program files (x86)\microsoft visual studio 11.0\vc\include\system_error
;	COMDAT ??0_Iostream_error_category@std@@QAE@XZ
_TEXT	SEGMENT
_this$ = -4						; size = 4
??0_Iostream_error_category@std@@QAE@XZ PROC		; std::_Iostream_error_category::_Iostream_error_category, COMDAT
; _this$ = ecx

; 601  : 	_Iostream_error_category()

	push	ebp
	mov	ebp, esp
	push	ecx
	mov	DWORD PTR _this$[ebp], ecx
	mov	ecx, DWORD PTR _this$[ebp]
	call	??0_Generic_error_category@std@@QAE@XZ	; std::_Generic_error_category::_Generic_error_category
	mov	eax, DWORD PTR _this$[ebp]
	mov	DWORD PTR [eax], OFFSET ??_7_Iostream_error_category@std@@6B@

; 602  : 		{	// default constructor
; 603  : 		}

	mov	eax, DWORD PTR _this$[ebp]
	mov	esp, ebp
	pop	ebp
	ret	0
??0_Iostream_error_category@std@@QAE@XZ ENDP		; std::_Iostream_error_category::_Iostream_error_category
_TEXT	ENDS
; Function compile flags: /Odtp
;	COMDAT ??_G_Generic_error_category@std@@UAEPAXI@Z
_TEXT	SEGMENT
_this$ = -4						; size = 4
___flags$ = 8						; size = 4
??_G_Generic_error_category@std@@UAEPAXI@Z PROC		; std::_Generic_error_category::`scalar deleting destructor', COMDAT
; _this$ = ecx
	push	ebp
	mov	ebp, esp
	push	ecx
	mov	DWORD PTR _this$[ebp], ecx
	mov	ecx, DWORD PTR _this$[ebp]
	call	??1_Generic_error_category@std@@UAE@XZ
	mov	eax, DWORD PTR ___flags$[ebp]
	and	eax, 1
	je	SHORT $LN1@scalar
	mov	ecx, DWORD PTR _this$[ebp]
	push	ecx
	call	??3@YAXPAX@Z				; operator delete
	add	esp, 4
$LN1@scalar:
	mov	eax, DWORD PTR _this$[ebp]
	mov	esp, ebp
	pop	ebp
	ret	4
??_G_Generic_error_category@std@@UAEPAXI@Z ENDP		; std::_Generic_error_category::`scalar deleting destructor'
_TEXT	ENDS
; Function compile flags: /Odtp
;	COMDAT ??1_Generic_error_category@std@@UAE@XZ
_TEXT	SEGMENT
_this$ = -4						; size = 4
??1_Generic_error_category@std@@UAE@XZ PROC		; std::_Generic_error_category::~_Generic_error_category, COMDAT
; _this$ = ecx
	push	ebp
	mov	ebp, esp
	push	ecx
	mov	DWORD PTR _this$[ebp], ecx
	mov	ecx, DWORD PTR _this$[ebp]
	call	??1error_category@std@@UAE@XZ		; std::error_category::~error_category
	mov	esp, ebp
	pop	ebp
	ret	0
??1_Generic_error_category@std@@UAE@XZ ENDP		; std::_Generic_error_category::~_Generic_error_category
_TEXT	ENDS
; Function compile flags: /Odtp
; File c:\program files (x86)\microsoft visual studio 11.0\vc\include\system_error
;	COMDAT ?message@_Generic_error_category@std@@UBE?AV?$basic_string@DU?$char_traits@D@std@@V?$allocator@D@2@@2@H@Z
_TEXT	SEGMENT
_this$ = -16						; size = 4
$T1 = -12						; size = 4
tv69 = -8						; size = 4
__Name$ = -4						; size = 4
___$ReturnUdt$ = 8					; size = 4
__Errcode$ = 12						; size = 4
?message@_Generic_error_category@std@@UBE?AV?$basic_string@DU?$char_traits@D@std@@V?$allocator@D@2@@2@H@Z PROC ; std::_Generic_error_category::message, COMDAT
; _this$ = ecx

; 590  : 		{	// convert to name of error

	push	ebp
	mov	ebp, esp
	sub	esp, 16					; 00000010H
	mov	DWORD PTR _this$[ebp], ecx
	mov	DWORD PTR $T1[ebp], 0

; 591  : 		const char *_Name = _Syserror_map(_Errcode);

	mov	eax, DWORD PTR __Errcode$[ebp]
	push	eax
	call	?_Syserror_map@std@@YAPBDH@Z		; std::_Syserror_map
	add	esp, 4
	mov	DWORD PTR __Name$[ebp], eax

; 592  : 		return (string(_Name != 0 ? _Name : "unknown error"));

	cmp	DWORD PTR __Name$[ebp], 0
	je	SHORT $LN3@message
	mov	ecx, DWORD PTR __Name$[ebp]
	mov	DWORD PTR tv69[ebp], ecx
	jmp	SHORT $LN4@message
$LN3@message:
	mov	DWORD PTR tv69[ebp], OFFSET ??_C@_0O@BFJCFAAK@unknown?5error?$AA@
$LN4@message:
	mov	edx, DWORD PTR tv69[ebp]
	push	edx
	mov	ecx, DWORD PTR ___$ReturnUdt$[ebp]
	call	??0?$basic_string@DU?$char_traits@D@std@@V?$allocator@D@2@@std@@QAE@PBD@Z ; std::basic_string<char,std::char_traits<char>,std::allocator<char> >::basic_string<char,std::char_traits<char>,std::allocator<char> >
	mov	eax, DWORD PTR $T1[ebp]
	or	eax, 1
	mov	DWORD PTR $T1[ebp], eax
	mov	eax, DWORD PTR ___$ReturnUdt$[ebp]

; 593  : 		}

	mov	esp, ebp
	pop	ebp
	ret	8
?message@_Generic_error_category@std@@UBE?AV?$basic_string@DU?$char_traits@D@std@@V?$allocator@D@2@@2@H@Z ENDP ; std::_Generic_error_category::message
_TEXT	ENDS
; Function compile flags: /Odtp
; File c:\program files (x86)\microsoft visual studio 11.0\vc\include\system_error
;	COMDAT ?name@_Generic_error_category@std@@UBEPBDXZ
_TEXT	SEGMENT
_this$ = -4						; size = 4
?name@_Generic_error_category@std@@UBEPBDXZ PROC	; std::_Generic_error_category::name, COMDAT
; _this$ = ecx

; 585  : 		{	// get name of category

	push	ebp
	mov	ebp, esp
	push	ecx
	mov	DWORD PTR _this$[ebp], ecx

; 586  : 		return ("generic");

	mov	eax, OFFSET ??_C@_07DCLBNMLN@generic?$AA@

; 587  : 		}

	mov	esp, ebp
	pop	ebp
	ret	0
?name@_Generic_error_category@std@@UBEPBDXZ ENDP	; std::_Generic_error_category::name
_TEXT	ENDS
; Function compile flags: /Odtp
; File c:\program files (x86)\microsoft visual studio 11.0\vc\include\system_error
;	COMDAT ??0_Generic_error_category@std@@QAE@XZ
_TEXT	SEGMENT
_this$ = -4						; size = 4
??0_Generic_error_category@std@@QAE@XZ PROC		; std::_Generic_error_category::_Generic_error_category, COMDAT
; _this$ = ecx

; 580  : 	_Generic_error_category()

	push	ebp
	mov	ebp, esp
	push	ecx
	mov	DWORD PTR _this$[ebp], ecx
	mov	ecx, DWORD PTR _this$[ebp]
	call	??0error_category@std@@QAE@XZ		; std::error_category::error_category
	mov	eax, DWORD PTR _this$[ebp]
	mov	DWORD PTR [eax], OFFSET ??_7_Generic_error_category@std@@6B@

; 581  : 		{	// default constructor
; 582  : 		}

	mov	eax, DWORD PTR _this$[ebp]
	mov	esp, ebp
	pop	ebp
	ret	0
??0_Generic_error_category@std@@QAE@XZ ENDP		; std::_Generic_error_category::_Generic_error_category
_TEXT	ENDS
; Function compile flags: /Odtp
; File c:\program files (x86)\microsoft visual studio 11.0\vc\include\system_error
;	COMDAT ??8error_condition@std@@QBE_NABV01@@Z
_TEXT	SEGMENT
tv78 = -8						; size = 4
_this$ = -4						; size = 4
__Right$ = 8						; size = 4
??8error_condition@std@@QBE_NABV01@@Z PROC		; std::error_condition::operator==, COMDAT
; _this$ = ecx

; 376  : 		{	// test if *this == _Right

	push	ebp
	mov	ebp, esp
	sub	esp, 8
	push	esi
	mov	DWORD PTR _this$[ebp], ecx

; 377  : 		return (category() == _Right.category()
; 378  : 			&& value() == _Right.value());

	mov	ecx, DWORD PTR __Right$[ebp]
	call	?category@error_condition@std@@QBEABVerror_category@2@XZ ; std::error_condition::category
	push	eax
	mov	ecx, DWORD PTR _this$[ebp]
	call	?category@error_condition@std@@QBEABVerror_category@2@XZ ; std::error_condition::category
	mov	ecx, eax
	call	??8error_category@std@@QBE_NABV01@@Z	; std::error_category::operator==
	movzx	eax, al
	test	eax, eax
	je	SHORT $LN3@operator
	mov	ecx, DWORD PTR _this$[ebp]
	call	?value@error_condition@std@@QBEHXZ	; std::error_condition::value
	mov	esi, eax
	mov	ecx, DWORD PTR __Right$[ebp]
	call	?value@error_condition@std@@QBEHXZ	; std::error_condition::value
	cmp	esi, eax
	jne	SHORT $LN3@operator
	mov	DWORD PTR tv78[ebp], 1
	jmp	SHORT $LN4@operator
$LN3@operator:
	mov	DWORD PTR tv78[ebp], 0
$LN4@operator:
	mov	al, BYTE PTR tv78[ebp]

; 379  : 		}

	pop	esi
	mov	esp, ebp
	pop	ebp
	ret	4
??8error_condition@std@@QBE_NABV01@@Z ENDP		; std::error_condition::operator==
_TEXT	ENDS
; Function compile flags: /Odtp
; File c:\program files (x86)\microsoft visual studio 11.0\vc\include\system_error
;	COMDAT ?category@error_condition@std@@QBEABVerror_category@2@XZ
_TEXT	SEGMENT
_this$ = -4						; size = 4
?category@error_condition@std@@QBEABVerror_category@2@XZ PROC ; std::error_condition::category, COMDAT
; _this$ = ecx

; 354  : 		{	// get category

	push	ebp
	mov	ebp, esp
	push	ecx
	mov	DWORD PTR _this$[ebp], ecx

; 355  : 		return (*_Mycat);

	mov	eax, DWORD PTR _this$[ebp]
	mov	eax, DWORD PTR [eax+4]

; 356  : 		}

	mov	esp, ebp
	pop	ebp
	ret	0
?category@error_condition@std@@QBEABVerror_category@2@XZ ENDP ; std::error_condition::category
_TEXT	ENDS
; Function compile flags: /Odtp
; File c:\program files (x86)\microsoft visual studio 11.0\vc\include\system_error
;	COMDAT ?value@error_condition@std@@QBEHXZ
_TEXT	SEGMENT
_this$ = -4						; size = 4
?value@error_condition@std@@QBEHXZ PROC			; std::error_condition::value, COMDAT
; _this$ = ecx

; 349  : 		{	// get error code

	push	ebp
	mov	ebp, esp
	push	ecx
	mov	DWORD PTR _this$[ebp], ecx

; 350  : 		return (_Myval);

	mov	eax, DWORD PTR _this$[ebp]
	mov	eax, DWORD PTR [eax]

; 351  : 		}

	mov	esp, ebp
	pop	ebp
	ret	0
?value@error_condition@std@@QBEHXZ ENDP			; std::error_condition::value
_TEXT	ENDS
; Function compile flags: /Odtp
; File c:\program files (x86)\microsoft visual studio 11.0\vc\include\system_error
;	COMDAT ??0error_condition@std@@QAE@HABVerror_category@1@@Z
_TEXT	SEGMENT
_this$ = -4						; size = 4
__Val$ = 8						; size = 4
__Cat$ = 12						; size = 4
??0error_condition@std@@QAE@HABVerror_category@1@@Z PROC ; std::error_condition::error_condition, COMDAT
; _this$ = ecx

; 316  : 		{	// construct from error code and category

	push	ebp
	mov	ebp, esp
	push	ecx
	mov	DWORD PTR _this$[ebp], ecx
	mov	eax, DWORD PTR _this$[ebp]
	mov	ecx, DWORD PTR __Val$[ebp]
	mov	DWORD PTR [eax], ecx
	mov	edx, DWORD PTR _this$[ebp]
	mov	eax, DWORD PTR __Cat$[ebp]
	mov	DWORD PTR [edx+4], eax

; 317  : 		}

	mov	eax, DWORD PTR _this$[ebp]
	mov	esp, ebp
	pop	ebp
	ret	8
??0error_condition@std@@QAE@HABVerror_category@1@@Z ENDP ; std::error_condition::error_condition
_TEXT	ENDS
; Function compile flags: /Odtp
; File c:\program files (x86)\microsoft visual studio 11.0\vc\include\system_error
;	COMDAT ?category@error_code@std@@QBEABVerror_category@2@XZ
_TEXT	SEGMENT
_this$ = -4						; size = 4
?category@error_code@std@@QBEABVerror_category@2@XZ PROC ; std::error_code::category, COMDAT
; _this$ = ecx

; 256  : 		{	// get category

	push	ebp
	mov	ebp, esp
	push	ecx
	mov	DWORD PTR _this$[ebp], ecx

; 257  : 		return (*_Mycat);

	mov	eax, DWORD PTR _this$[ebp]
	mov	eax, DWORD PTR [eax+4]

; 258  : 		}

	mov	esp, ebp
	pop	ebp
	ret	0
?category@error_code@std@@QBEABVerror_category@2@XZ ENDP ; std::error_code::category
_TEXT	ENDS
; Function compile flags: /Odtp
; File c:\program files (x86)\microsoft visual studio 11.0\vc\include\system_error
;	COMDAT ?value@error_code@std@@QBEHXZ
_TEXT	SEGMENT
_this$ = -4						; size = 4
?value@error_code@std@@QBEHXZ PROC			; std::error_code::value, COMDAT
; _this$ = ecx

; 251  : 		{	// get error code

	push	ebp
	mov	ebp, esp
	push	ecx
	mov	DWORD PTR _this$[ebp], ecx

; 252  : 		return (_Myval);

	mov	eax, DWORD PTR _this$[ebp]
	mov	eax, DWORD PTR [eax]

; 253  : 		}

	mov	esp, ebp
	pop	ebp
	ret	0
?value@error_code@std@@QBEHXZ ENDP			; std::error_code::value
_TEXT	ENDS
; Function compile flags: /Odtp
;	COMDAT ??_Gerror_category@std@@UAEPAXI@Z
_TEXT	SEGMENT
_this$ = -4						; size = 4
___flags$ = 8						; size = 4
??_Gerror_category@std@@UAEPAXI@Z PROC			; std::error_category::`scalar deleting destructor', COMDAT
; _this$ = ecx
	push	ebp
	mov	ebp, esp
	push	ecx
	mov	DWORD PTR _this$[ebp], ecx
	mov	ecx, DWORD PTR _this$[ebp]
	call	??1error_category@std@@UAE@XZ		; std::error_category::~error_category
	mov	eax, DWORD PTR ___flags$[ebp]
	and	eax, 1
	je	SHORT $LN1@scalar
	mov	ecx, DWORD PTR _this$[ebp]
	push	ecx
	call	??3@YAXPAX@Z				; operator delete
	add	esp, 4
$LN1@scalar:
	mov	eax, DWORD PTR _this$[ebp]
	mov	esp, ebp
	pop	ebp
	ret	4
??_Gerror_category@std@@UAEPAXI@Z ENDP			; std::error_category::`scalar deleting destructor'
_TEXT	ENDS
; Function compile flags: /Odtp
; File c:\program files (x86)\microsoft visual studio 11.0\vc\include\system_error
;	COMDAT ??8error_category@std@@QBE_NABV01@@Z
_TEXT	SEGMENT
_this$ = -8						; size = 4
tv65 = -4						; size = 4
__Right$ = 8						; size = 4
??8error_category@std@@QBE_NABV01@@Z PROC		; std::error_category::operator==, COMDAT
; _this$ = ecx

; 184  : 		{	// compare categories for equality

	push	ebp
	mov	ebp, esp
	sub	esp, 8
	mov	DWORD PTR _this$[ebp], ecx

; 185  : 		return (this == &_Right);

	mov	eax, DWORD PTR _this$[ebp]
	cmp	eax, DWORD PTR __Right$[ebp]
	jne	SHORT $LN3@operator
	mov	DWORD PTR tv65[ebp], 1
	jmp	SHORT $LN4@operator
$LN3@operator:
	mov	DWORD PTR tv65[ebp], 0
$LN4@operator:
	mov	al, BYTE PTR tv65[ebp]

; 186  : 		}

	mov	esp, ebp
	pop	ebp
	ret	4
??8error_category@std@@QBE_NABV01@@Z ENDP		; std::error_category::operator==
_TEXT	ENDS
; Function compile flags: /Odtp
; File c:\program files (x86)\microsoft visual studio 11.0\vc\include\system_error
;	COMDAT ?equivalent@error_category@std@@UBE_NABVerror_code@2@H@Z
_TEXT	SEGMENT
_this$ = -8						; size = 4
tv74 = -4						; size = 4
__Code$ = 8						; size = 4
__Errval$ = 12						; size = 4
?equivalent@error_category@std@@UBE_NABVerror_code@2@H@Z PROC ; std::error_category::equivalent, COMDAT
; _this$ = ecx

; 415  : 	{	// test if conditions same for this category

	push	ebp
	mov	ebp, esp
	sub	esp, 8
	mov	DWORD PTR _this$[ebp], ecx

; 416  : 	return (*this == _Code.category() && _Code.value() == _Errval);

	mov	ecx, DWORD PTR __Code$[ebp]
	call	?category@error_code@std@@QBEABVerror_category@2@XZ ; std::error_code::category
	push	eax
	mov	ecx, DWORD PTR _this$[ebp]
	call	??8error_category@std@@QBE_NABV01@@Z	; std::error_category::operator==
	movzx	eax, al
	test	eax, eax
	je	SHORT $LN3@equivalent
	mov	ecx, DWORD PTR __Code$[ebp]
	call	?value@error_code@std@@QBEHXZ		; std::error_code::value
	cmp	eax, DWORD PTR __Errval$[ebp]
	jne	SHORT $LN3@equivalent
	mov	DWORD PTR tv74[ebp], 1
	jmp	SHORT $LN4@equivalent
$LN3@equivalent:
	mov	DWORD PTR tv74[ebp], 0
$LN4@equivalent:
	mov	al, BYTE PTR tv74[ebp]

; 417  : 	}

	mov	esp, ebp
	pop	ebp
	ret	8
?equivalent@error_category@std@@UBE_NABVerror_code@2@H@Z ENDP ; std::error_category::equivalent
_TEXT	ENDS
; Function compile flags: /Odtp
; File c:\program files (x86)\microsoft visual studio 11.0\vc\include\system_error
;	COMDAT ?equivalent@error_category@std@@UBE_NHABVerror_condition@2@@Z
_TEXT	SEGMENT
$T1 = -12						; size = 8
_this$ = -4						; size = 4
__Errval$ = 8						; size = 4
__Cond$ = 12						; size = 4
?equivalent@error_category@std@@UBE_NHABVerror_condition@2@@Z PROC ; std::error_category::equivalent, COMDAT
; _this$ = ecx

; 408  : 	{	// test if error code same condition

	push	ebp
	mov	ebp, esp
	sub	esp, 12					; 0000000cH
	mov	DWORD PTR _this$[ebp], ecx

; 409  : 	return (default_error_condition(_Errval) == _Cond);

	mov	eax, DWORD PTR __Cond$[ebp]
	push	eax
	mov	ecx, DWORD PTR __Errval$[ebp]
	push	ecx
	lea	edx, DWORD PTR $T1[ebp]
	push	edx
	mov	eax, DWORD PTR _this$[ebp]
	mov	edx, DWORD PTR [eax]
	mov	ecx, DWORD PTR _this$[ebp]
	mov	eax, DWORD PTR [edx+12]
	call	eax
	mov	ecx, eax
	call	??8error_condition@std@@QBE_NABV01@@Z	; std::error_condition::operator==

; 410  : 	}

	mov	esp, ebp
	pop	ebp
	ret	8
?equivalent@error_category@std@@UBE_NHABVerror_condition@2@@Z ENDP ; std::error_category::equivalent
_TEXT	ENDS
; Function compile flags: /Odtp
; File c:\program files (x86)\microsoft visual studio 11.0\vc\include\system_error
;	COMDAT ?default_error_condition@error_category@std@@UBE?AVerror_condition@2@H@Z
_TEXT	SEGMENT
_this$ = -4						; size = 4
___$ReturnUdt$ = 8					; size = 4
__Errval$ = 12						; size = 4
?default_error_condition@error_category@std@@UBE?AVerror_condition@2@H@Z PROC ; std::error_category::default_error_condition, COMDAT
; _this$ = ecx

; 401  : 	{	// make error_condition for error code

	push	ebp
	mov	ebp, esp
	push	ecx
	mov	DWORD PTR _this$[ebp], ecx

; 402  : 	return (error_condition(_Errval, *this));

	mov	eax, DWORD PTR _this$[ebp]
	push	eax
	mov	ecx, DWORD PTR __Errval$[ebp]
	push	ecx
	mov	ecx, DWORD PTR ___$ReturnUdt$[ebp]
	call	??0error_condition@std@@QAE@HABVerror_category@1@@Z ; std::error_condition::error_condition
	mov	eax, DWORD PTR ___$ReturnUdt$[ebp]

; 403  : 	}

	mov	esp, ebp
	pop	ebp
	ret	8
?default_error_condition@error_category@std@@UBE?AVerror_condition@2@H@Z ENDP ; std::error_category::default_error_condition
_TEXT	ENDS
; Function compile flags: /Odtp
; File c:\program files (x86)\microsoft visual studio 11.0\vc\include\system_error
;	COMDAT ??1error_category@std@@UAE@XZ
_TEXT	SEGMENT
_this$ = -4						; size = 4
??1error_category@std@@UAE@XZ PROC			; std::error_category::~error_category, COMDAT
; _this$ = ecx

; 167  : 		{	// destroy the object

	push	ebp
	mov	ebp, esp
	push	ecx
	mov	DWORD PTR _this$[ebp], ecx
	mov	eax, DWORD PTR _this$[ebp]
	mov	DWORD PTR [eax], OFFSET ??_7error_category@std@@6B@

; 168  : 		}

	mov	esp, ebp
	pop	ebp
	ret	0
??1error_category@std@@UAE@XZ ENDP			; std::error_category::~error_category
_TEXT	ENDS
; Function compile flags: /Odtp
; File c:\program files (x86)\microsoft visual studio 11.0\vc\include\system_error
;	COMDAT ??0error_category@std@@QAE@XZ
_TEXT	SEGMENT
_this$ = -4						; size = 4
??0error_category@std@@QAE@XZ PROC			; std::error_category::error_category, COMDAT
; _this$ = ecx

; 162  : 	error_category()

	push	ebp
	mov	ebp, esp
	push	ecx
	mov	DWORD PTR _this$[ebp], ecx
	mov	eax, DWORD PTR _this$[ebp]
	mov	DWORD PTR [eax], OFFSET ??_7error_category@std@@6B@

; 163  : 		{	// default constructor
; 164  : 		}

	mov	eax, DWORD PTR _this$[ebp]
	mov	esp, ebp
	pop	ebp
	ret	0
??0error_category@std@@QAE@XZ ENDP			; std::error_category::error_category
_TEXT	ENDS
; Function compile flags: /Odtp
; File c:\program files (x86)\microsoft visual studio 11.0\vc\include\system_error
;	COMDAT ?system_category@std@@YAABVerror_category@1@XZ
_TEXT	SEGMENT
?system_category@std@@YAABVerror_category@1@XZ PROC	; std::system_category, COMDAT

; 679  : 	{	// get system_category

	push	ebp
	mov	ebp, esp

; 680  : 	return (_Error_objects<int>::_System_object);

	mov	eax, OFFSET ?_System_object@?$_Error_objects@H@std@@2V_System_error_category@2@A ; std::_Error_objects<int>::_System_object

; 681  : 	}

	pop	ebp
	ret	0
?system_category@std@@YAABVerror_category@1@XZ ENDP	; std::system_category
_TEXT	ENDS
; Function compile flags: /Odtp
; File c:\program files (x86)\microsoft visual studio 11.0\vc\include\system_error
;	COMDAT ?generic_category@std@@YAABVerror_category@1@XZ
_TEXT	SEGMENT
?generic_category@std@@YAABVerror_category@1@XZ PROC	; std::generic_category, COMDAT

; 669  : 	{	// get generic_category

	push	ebp
	mov	ebp, esp

; 670  : 	return (_Error_objects<int>::_Generic_object);

	mov	eax, OFFSET ?_Generic_object@?$_Error_objects@H@std@@2V_Generic_error_category@2@A ; std::_Error_objects<int>::_Generic_object

; 671  : 	}

	pop	ebp
	ret	0
?generic_category@std@@YAABVerror_category@1@XZ ENDP	; std::generic_category
_TEXT	ENDS
; Function compile flags: /Odtp
; File c:\program files (x86)\microsoft visual studio 11.0\vc\include\xlocale
;	COMDAT ??0id@locale@std@@QAE@I@Z
_TEXT	SEGMENT
_this$ = -4						; size = 4
__Val$ = 8						; size = 4
??0id@locale@std@@QAE@I@Z PROC				; std::locale::id::id, COMDAT
; _this$ = ecx

; 74   : 			{	// construct with specified stamp value

	push	ebp
	mov	ebp, esp
	push	ecx
	mov	DWORD PTR _this$[ebp], ecx
	mov	eax, DWORD PTR _this$[ebp]
	mov	ecx, DWORD PTR __Val$[ebp]
	mov	DWORD PTR [eax], ecx

; 75   : 			}

	mov	eax, DWORD PTR _this$[ebp]
	mov	esp, ebp
	pop	ebp
	ret	4
??0id@locale@std@@QAE@I@Z ENDP				; std::locale::id::id
_TEXT	ENDS
; Function compile flags: /Odtp
; File c:\users\zhitao li\documents\visual studio 2012\projects\freefalcon\graphics\include\drawobj.h
;	COMDAT ?GetPosition@DrawableObject@@QAEXPAUTpoint@@@Z
_TEXT	SEGMENT
_this$ = -4						; size = 4
_pos$ = 8						; size = 4
?GetPosition@DrawableObject@@QAEXPAUTpoint@@@Z PROC	; DrawableObject::GetPosition, COMDAT
; _this$ = ecx

; 28   : 	void GetPosition(Tpoint* pos){ *pos = position; }

	push	ebp
	mov	ebp, esp
	push	ecx
	mov	DWORD PTR _this$[ebp], ecx
	mov	eax, DWORD PTR _this$[ebp]
	add	eax, 4
	mov	ecx, DWORD PTR _pos$[ebp]
	mov	edx, DWORD PTR [eax]
	mov	DWORD PTR [ecx], edx
	mov	edx, DWORD PTR [eax+4]
	mov	DWORD PTR [ecx+4], edx
	mov	eax, DWORD PTR [eax+8]
	mov	DWORD PTR [ecx+8], eax
	mov	esp, ebp
	pop	ebp
	ret	4
?GetPosition@DrawableObject@@QAEXPAUTpoint@@@Z ENDP	; DrawableObject::GetPosition
_TEXT	ENDS
; Function compile flags: /Odtp
; File c:\users\zhitao li\documents\visual studio 2012\projects\freefalcon\graphics\include\drawobj.h
;	COMDAT ?Radius@DrawableObject@@QBEMXZ
_TEXT	SEGMENT
_this$ = -4						; size = 4
?Radius@DrawableObject@@QBEMXZ PROC			; DrawableObject::Radius, COMDAT
; _this$ = ecx

; 27   : 	float Radius() const { return radius; }

	push	ebp
	mov	ebp, esp
	push	ecx
	mov	DWORD PTR _this$[ebp], ecx
	mov	eax, DWORD PTR _this$[ebp]
	fld	DWORD PTR [eax+16]
	mov	esp, ebp
	pop	ebp
	ret	0
?Radius@DrawableObject@@QBEMXZ ENDP			; DrawableObject::Radius
_TEXT	ENDS
; Function compile flags: /Odtp
; File c:\users\zhitao li\documents\visual studio 2012\projects\freefalcon\falclib\include\falcent.h
;	COMDAT ?IsSetFalcFlag@FalconEntity@@QAEHH@Z
_TEXT	SEGMENT
_this$ = -4						; size = 4
_flag$ = 8						; size = 4
?IsSetFalcFlag@FalconEntity@@QAEHH@Z PROC		; FalconEntity::IsSetFalcFlag, COMDAT
; _this$ = ecx

; 112  : 	int IsSetFalcFlag (int flag)				{ return falconFlags & flag; };

	push	ebp
	mov	ebp, esp
	push	ecx
	mov	DWORD PTR _this$[ebp], ecx
	mov	eax, DWORD PTR _this$[ebp]
	movzx	eax, BYTE PTR [eax+136]
	and	eax, DWORD PTR _flag$[ebp]
	mov	esp, ebp
	pop	ebp
	ret	4
?IsSetFalcFlag@FalconEntity@@QAEHH@Z ENDP		; FalconEntity::IsSetFalcFlag
_TEXT	ENDS
; Function compile flags: /Odtp
; File c:\users\zhitao li\documents\visual studio 2012\projects\freefalcon\vu2\include\vuevent.h
;	COMDAT ?RequestOutOfBandTransmit@VuMessage@@QAEXXZ
_TEXT	SEGMENT
_this$ = -4						; size = 4
?RequestOutOfBandTransmit@VuMessage@@QAEXXZ PROC	; VuMessage::RequestOutOfBandTransmit, COMDAT
; _this$ = ecx

; 181  : 	void RequestOutOfBandTransmit() { flags_ |= VU_OUT_OF_BAND_MSG_FLAG; }

	push	ebp
	mov	ebp, esp
	push	ecx
	mov	DWORD PTR _this$[ebp], ecx
	mov	eax, DWORD PTR _this$[ebp]
	movzx	ecx, BYTE PTR [eax+6]
	or	ecx, 2
	mov	edx, DWORD PTR _this$[ebp]
	mov	BYTE PTR [edx+6], cl
	mov	esp, ebp
	pop	ebp
	ret	0
?RequestOutOfBandTransmit@VuMessage@@QAEXXZ ENDP	; VuMessage::RequestOutOfBandTransmit
_TEXT	ENDS
; Function compile flags: /Odtp
; File c:\users\zhitao li\documents\visual studio 2012\projects\freefalcon\vu2\include\vu_templates.h
;	COMDAT ?get@?$VuBin@VVuSessionEntity@@@@QBEPAVVuSessionEntity@@XZ
_TEXT	SEGMENT
_this$ = -4						; size = 4
?get@?$VuBin@VVuSessionEntity@@@@QBEPAVVuSessionEntity@@XZ PROC ; VuBin<VuSessionEntity>::get, COMDAT
; _this$ = ecx

; 55   : 	E *get() const{

	push	ebp
	mov	ebp, esp
	push	ecx
	mov	DWORD PTR _this$[ebp], ecx

; 56   : 		return e;

	mov	eax, DWORD PTR _this$[ebp]
	mov	eax, DWORD PTR [eax]

; 57   : 	}

	mov	esp, ebp
	pop	ebp
	ret	0
?get@?$VuBin@VVuSessionEntity@@@@QBEPAVVuSessionEntity@@XZ ENDP ; VuBin<VuSessionEntity>::get
_TEXT	ENDS
; Function compile flags: /Odtp
; File c:\users\zhitao li\documents\visual studio 2012\projects\freefalcon\vu2\include\vu_templates.h
;	COMDAT ??B?$VuBin@VVuSessionEntity@@@@QBE_NXZ
_TEXT	SEGMENT
_this$ = -8						; size = 4
tv66 = -4						; size = 4
??B?$VuBin@VVuSessionEntity@@@@QBE_NXZ PROC		; VuBin<VuSessionEntity>::operator bool, COMDAT
; _this$ = ecx

; 40   : 	operator bool() const{

	push	ebp
	mov	ebp, esp
	sub	esp, 8
	mov	DWORD PTR _this$[ebp], ecx

; 41   : 		return e != NULL;

	mov	eax, DWORD PTR _this$[ebp]
	cmp	DWORD PTR [eax], 0
	je	SHORT $LN3@operator
	mov	DWORD PTR tv66[ebp], 1
	jmp	SHORT $LN4@operator
$LN3@operator:
	mov	DWORD PTR tv66[ebp], 0
$LN4@operator:
	mov	al, BYTE PTR tv66[ebp]

; 42   : 	}

	mov	esp, ebp
	pop	ebp
	ret	0
??B?$VuBin@VVuSessionEntity@@@@QBE_NXZ ENDP		; VuBin<VuSessionEntity>::operator bool
_TEXT	ENDS
; Function compile flags: /Odtp
; File c:\program files (x86)\microsoft visual studio 11.0\vc\include\xstring
;	COMDAT ?_Xran@?$basic_string@DU?$char_traits@D@std@@V?$allocator@D@2@@std@@QBEXXZ
_TEXT	SEGMENT
_this$ = -4						; size = 4
?_Xran@?$basic_string@DU?$char_traits@D@std@@V?$allocator@D@2@@std@@QBEXXZ PROC ; std::basic_string<char,std::char_traits<char>,std::allocator<char> >::_Xran, COMDAT
; _this$ = ecx

; 2275 : 		{	// report an out_of_range error

	push	ebp
	mov	ebp, esp
	push	ecx
	mov	DWORD PTR _this$[ebp], ecx

; 2276 : 		_Xout_of_range("invalid string position");

	push	OFFSET ??_C@_0BI@CFPLBAOH@invalid?5string?5position?$AA@
	call	?_Xout_of_range@std@@YAXPBD@Z		; std::_Xout_of_range
$LN2@Xran:

; 2277 : 		}

	mov	esp, ebp
	pop	ebp
	ret	0
?_Xran@?$basic_string@DU?$char_traits@D@std@@V?$allocator@D@2@@std@@QBEXXZ ENDP ; std::basic_string<char,std::char_traits<char>,std::allocator<char> >::_Xran
_TEXT	ENDS
; Function compile flags: /Odtp
; File c:\program files (x86)\microsoft visual studio 11.0\vc\include\xstring
;	COMDAT ?_Xlen@?$basic_string@DU?$char_traits@D@std@@V?$allocator@D@2@@std@@QBEXXZ
_TEXT	SEGMENT
_this$ = -4						; size = 4
?_Xlen@?$basic_string@DU?$char_traits@D@std@@V?$allocator@D@2@@std@@QBEXXZ PROC ; std::basic_string<char,std::char_traits<char>,std::allocator<char> >::_Xlen, COMDAT
; _this$ = ecx

; 2270 : 		{	// report a length_error

	push	ebp
	mov	ebp, esp
	push	ecx
	mov	DWORD PTR _this$[ebp], ecx

; 2271 : 		_Xlength_error("string too long");

	push	OFFSET ??_C@_0BA@JFNIOLAK@string?5too?5long?$AA@
	call	?_Xlength_error@std@@YAXPBD@Z		; std::_Xlength_error
$LN2@Xlen:

; 2272 : 		}

	mov	esp, ebp
	pop	ebp
	ret	0
?_Xlen@?$basic_string@DU?$char_traits@D@std@@V?$allocator@D@2@@std@@QBEXXZ ENDP ; std::basic_string<char,std::char_traits<char>,std::allocator<char> >::_Xlen
_TEXT	ENDS
; Function compile flags: /Odtp
; File c:\program files (x86)\microsoft visual studio 11.0\vc\include\xstring
;	COMDAT ?_Tidy@?$basic_string@DU?$char_traits@D@std@@V?$allocator@D@2@@std@@QAEX_NI@Z
_TEXT	SEGMENT
__Ptr$1 = -12						; size = 4
_this$ = -8						; size = 4
$T2 = -2						; size = 1
$T3 = -1						; size = 1
__Built$ = 8						; size = 1
__Newsize$ = 12						; size = 4
?_Tidy@?$basic_string@DU?$char_traits@D@std@@V?$allocator@D@2@@std@@QAEX_NI@Z PROC ; std::basic_string<char,std::char_traits<char>,std::allocator<char> >::_Tidy, COMDAT
; _this$ = ecx

; 2253 : 		{	// initialize buffer, deallocating any storage

	push	ebp
	mov	ebp, esp
	sub	esp, 12					; 0000000cH
	mov	DWORD PTR _this$[ebp], ecx

; 2254 : 		if (!_Built)

	movzx	eax, BYTE PTR __Built$[ebp]
	test	eax, eax
	jne	SHORT $LN4@Tidy
	jmp	SHORT $LN3@Tidy
$LN4@Tidy:

; 2255 : 			;
; 2256 : 		else if (this->_BUF_SIZE <= this->_Myres)

	mov	ecx, DWORD PTR _this$[ebp]
	cmp	DWORD PTR [ecx+20], 16			; 00000010H
	jb	SHORT $LN3@Tidy

; 2257 : 			{	// copy any leftovers to small buffer and deallocate
; 2258 : 			pointer _Ptr = this->_Bx._Ptr;

	mov	edx, DWORD PTR _this$[ebp]
	mov	eax, DWORD PTR [edx]
	mov	DWORD PTR __Ptr$1[ebp], eax

; 2259 : 			this->_Getal().destroy(&this->_Bx._Ptr);

	mov	ecx, DWORD PTR _this$[ebp]
	push	ecx
	lea	edx, DWORD PTR $T3[ebp]
	push	edx
	mov	ecx, DWORD PTR _this$[ebp]
