; Listing generated by Microsoft (R) Optimizing Compiler Version 17.00.51106.1 

	TITLE	C:\Users\Zhitao Li\Documents\Visual Studio 2012\Projects\Freefalcon\SIM\RADAR\Bscope.cpp
	.686P
	.XMM
	include listing.inc
	.model	flat

INCLUDELIB LIBCMT
INCLUDELIB OLDNAMES

PUBLIC	?ate@?$_Iosb@H@std@@2W4_Openmode@12@B		; std::_Iosb<int>::ate
PUBLIC	?traps@_Num_base@std@@2_NB			; std::_Num_base::traps
PUBLIC	?round_style@_Num_base@std@@2W4float_round_style@2@B ; std::_Num_base::round_style
PUBLIC	?app@?$_Iosb@H@std@@2W4_Openmode@12@B		; std::_Iosb<int>::app
PUBLIC	?trunc@?$_Iosb@H@std@@2W4_Openmode@12@B		; std::_Iosb<int>::trunc
PUBLIC	?digits@_Num_base@std@@2HB			; std::_Num_base::digits
PUBLIC	?_Nocreate@?$_Iosb@H@std@@2W4_Openmode@12@B	; std::_Iosb<int>::_Nocreate
PUBLIC	?digits10@_Num_base@std@@2HB			; std::_Num_base::digits10
PUBLIC	?_Noreplace@?$_Iosb@H@std@@2W4_Openmode@12@B	; std::_Iosb<int>::_Noreplace
PUBLIC	?max_digits10@_Num_base@std@@2HB		; std::_Num_base::max_digits10
PUBLIC	?max_exponent@_Num_base@std@@2HB		; std::_Num_base::max_exponent
PUBLIC	?binary@?$_Iosb@H@std@@2W4_Openmode@12@B	; std::_Iosb<int>::binary
PUBLIC	?max_exponent10@_Num_base@std@@2HB		; std::_Num_base::max_exponent10
PUBLIC	?beg@?$_Iosb@H@std@@2W4_Seekdir@12@B		; std::_Iosb<int>::beg
PUBLIC	?min_exponent@_Num_base@std@@2HB		; std::_Num_base::min_exponent
PUBLIC	?cur@?$_Iosb@H@std@@2W4_Seekdir@12@B		; std::_Iosb<int>::cur
PUBLIC	?min_exponent10@_Num_base@std@@2HB		; std::_Num_base::min_exponent10
PUBLIC	?end@?$_Iosb@H@std@@2W4_Seekdir@12@B		; std::_Iosb<int>::end
PUBLIC	?radix@_Num_base@std@@2HB			; std::_Num_base::radix
PUBLIC	?_Stream_err@failure@ios_base@std@@0W4io_errc@43@B ; std::ios_base::failure::_Stream_err
PUBLIC	?is_bounded@_Num_int_base@std@@2_NB		; std::_Num_int_base::is_bounded
PUBLIC	?is_exact@_Num_int_base@std@@2_NB		; std::_Num_int_base::is_exact
PUBLIC	?is_integer@_Num_int_base@std@@2_NB		; std::_Num_int_base::is_integer
PUBLIC	?is_modulo@_Num_int_base@std@@2_NB		; std::_Num_int_base::is_modulo
PUBLIC	?is_specialized@_Num_int_base@std@@2_NB		; std::_Num_int_base::is_specialized
PUBLIC	?radix@_Num_int_base@std@@2HB			; std::_Num_int_base::radix
PUBLIC	?has_denorm@_Num_float_base@std@@2W4float_denorm_style@2@B ; std::_Num_float_base::has_denorm
PUBLIC	?has_denorm_loss@_Num_float_base@std@@2_NB	; std::_Num_float_base::has_denorm_loss
PUBLIC	?SIMDIRTYDATA_INTERVAL@FalconEntity@@2KB	; FalconEntity::SIMDIRTYDATA_INTERVAL
PUBLIC	?CMPDIRTYDATA_INTERVAL@FalconEntity@@2KB	; FalconEntity::CMPDIRTYDATA_INTERVAL
PUBLIC	?has_infinity@_Num_float_base@std@@2_NB		; std::_Num_float_base::has_infinity
PUBLIC	?has_quiet_NaN@_Num_float_base@std@@2_NB	; std::_Num_float_base::has_quiet_NaN
PUBLIC	?has_signaling_NaN@_Num_float_base@std@@2_NB	; std::_Num_float_base::has_signaling_NaN
PUBLIC	?is_bounded@_Num_float_base@std@@2_NB		; std::_Num_float_base::is_bounded
PUBLIC	?is_exact@_Num_float_base@std@@2_NB		; std::_Num_float_base::is_exact
PUBLIC	?is_iec559@_Num_float_base@std@@2_NB		; std::_Num_float_base::is_iec559
PUBLIC	?is_integer@_Num_float_base@std@@2_NB		; std::_Num_float_base::is_integer
PUBLIC	?is_modulo@_Num_float_base@std@@2_NB		; std::_Num_float_base::is_modulo
PUBLIC	?is_signed@_Num_float_base@std@@2_NB		; std::_Num_float_base::is_signed
PUBLIC	?is_specialized@_Num_float_base@std@@2_NB	; std::_Num_float_base::is_specialized
PUBLIC	?tinyness_before@_Num_float_base@std@@2_NB	; std::_Num_float_base::tinyness_before
PUBLIC	?traps@_Num_float_base@std@@2_NB		; std::_Num_float_base::traps
PUBLIC	?round_style@_Num_float_base@std@@2W4float_round_style@2@B ; std::_Num_float_base::round_style
PUBLIC	?radix@_Num_float_base@std@@2HB			; std::_Num_float_base::radix
PUBLIC	?is_signed@?$numeric_limits@D@std@@2_NB		; std::numeric_limits<char>::is_signed
PUBLIC	?digits@?$numeric_limits@D@std@@2HB		; std::numeric_limits<char>::digits
PUBLIC	?digits10@?$numeric_limits@D@std@@2HB		; std::numeric_limits<char>::digits10
PUBLIC	?is_signed@?$numeric_limits@_W@std@@2_NB	; std::numeric_limits<wchar_t>::is_signed
PUBLIC	?digits@?$numeric_limits@_W@std@@2HB		; std::numeric_limits<wchar_t>::digits
PUBLIC	?digits10@?$numeric_limits@_W@std@@2HB		; std::numeric_limits<wchar_t>::digits10
PUBLIC	?is_modulo@?$numeric_limits@_N@std@@2_NB	; std::numeric_limits<bool>::is_modulo
PUBLIC	?is_signed@?$numeric_limits@_N@std@@2_NB	; std::numeric_limits<bool>::is_signed
PUBLIC	?digits@?$numeric_limits@_N@std@@2HB		; std::numeric_limits<bool>::digits
PUBLIC	?digits10@?$numeric_limits@_N@std@@2HB		; std::numeric_limits<bool>::digits10
PUBLIC	?is_signed@?$numeric_limits@C@std@@2_NB		; std::numeric_limits<signed char>::is_signed
PUBLIC	?digits@?$numeric_limits@C@std@@2HB		; std::numeric_limits<signed char>::digits
PUBLIC	?digits10@?$numeric_limits@C@std@@2HB		; std::numeric_limits<signed char>::digits10
PUBLIC	?is_signed@?$numeric_limits@E@std@@2_NB		; std::numeric_limits<unsigned char>::is_signed
PUBLIC	?value@?$integral_constant@_N$0A@@std@@2_NB	; std::integral_constant<bool,0>::value
PUBLIC	?digits@?$numeric_limits@E@std@@2HB		; std::numeric_limits<unsigned char>::digits
PUBLIC	?digits10@?$numeric_limits@E@std@@2HB		; std::numeric_limits<unsigned char>::digits10
PUBLIC	?value@?$integral_constant@_N$00@std@@2_NB	; std::integral_constant<bool,1>::value
PUBLIC	?is_signed@?$numeric_limits@F@std@@2_NB		; std::numeric_limits<short>::is_signed
PUBLIC	?digits@?$numeric_limits@F@std@@2HB		; std::numeric_limits<short>::digits
PUBLIC	?digits10@?$numeric_limits@F@std@@2HB		; std::numeric_limits<short>::digits10
PUBLIC	?collate@?$_Locbase@H@std@@2HB			; std::_Locbase<int>::collate
PUBLIC	?ctype@?$_Locbase@H@std@@2HB			; std::_Locbase<int>::ctype
PUBLIC	?monetary@?$_Locbase@H@std@@2HB			; std::_Locbase<int>::monetary
PUBLIC	?numeric@?$_Locbase@H@std@@2HB			; std::_Locbase<int>::numeric
PUBLIC	?time@?$_Locbase@H@std@@2HB			; std::_Locbase<int>::time
PUBLIC	?messages@?$_Locbase@H@std@@2HB			; std::_Locbase<int>::messages
PUBLIC	?all@?$_Locbase@H@std@@2HB			; std::_Locbase<int>::all
PUBLIC	?none@?$_Locbase@H@std@@2HB			; std::_Locbase<int>::none
PUBLIC	?is_signed@?$numeric_limits@G@std@@2_NB		; std::numeric_limits<unsigned short>::is_signed
PUBLIC	?digits@?$numeric_limits@G@std@@2HB		; std::numeric_limits<unsigned short>::digits
PUBLIC	?digits10@?$numeric_limits@G@std@@2HB		; std::numeric_limits<unsigned short>::digits10
PUBLIC	?is_signed@?$numeric_limits@H@std@@2_NB		; std::numeric_limits<int>::is_signed
PUBLIC	?value@?$_Sizeof@HU_Nil@std@@U12@U12@U12@U12@U12@U12@@std@@2IB ; std::_Sizeof<int,std::_Nil,std::_Nil,std::_Nil,std::_Nil,std::_Nil,std::_Nil,std::_Nil>::value
PUBLIC	?digits@?$numeric_limits@H@std@@2HB		; std::numeric_limits<int>::digits
PUBLIC	?digits10@?$numeric_limits@H@std@@2HB		; std::numeric_limits<int>::digits10
PUBLIC	?is_signed@?$numeric_limits@I@std@@2_NB		; std::numeric_limits<unsigned int>::is_signed
PUBLIC	?digits@?$numeric_limits@I@std@@2HB		; std::numeric_limits<unsigned int>::digits
PUBLIC	?digits10@?$numeric_limits@I@std@@2HB		; std::numeric_limits<unsigned int>::digits10
PUBLIC	?table_size@?$ctype@D@std@@2IB			; std::ctype<char>::table_size
PUBLIC	?is_signed@?$numeric_limits@J@std@@2_NB		; std::numeric_limits<long>::is_signed
PUBLIC	?digits@?$numeric_limits@J@std@@2HB		; std::numeric_limits<long>::digits
PUBLIC	?digits10@?$numeric_limits@J@std@@2HB		; std::numeric_limits<long>::digits10
PUBLIC	?is_signed@?$numeric_limits@K@std@@2_NB		; std::numeric_limits<unsigned long>::is_signed
PUBLIC	?digits@?$numeric_limits@K@std@@2HB		; std::numeric_limits<unsigned long>::digits
PUBLIC	?digits10@?$numeric_limits@K@std@@2HB		; std::numeric_limits<unsigned long>::digits10
PUBLIC	?tmpColor@@3KA					; tmpColor
PUBLIC	?is_signed@?$numeric_limits@_J@std@@2_NB	; std::numeric_limits<__int64>::is_signed
PUBLIC	?digits@?$numeric_limits@_J@std@@2HB		; std::numeric_limits<__int64>::digits
PUBLIC	?digits10@?$numeric_limits@_J@std@@2HB		; std::numeric_limits<__int64>::digits10
PUBLIC	?is_signed@?$numeric_limits@_K@std@@2_NB	; std::numeric_limits<unsigned __int64>::is_signed
PUBLIC	?digits@?$numeric_limits@_K@std@@2HB		; std::numeric_limits<unsigned __int64>::digits
PUBLIC	?digits10@?$numeric_limits@_K@std@@2HB		; std::numeric_limits<unsigned __int64>::digits10
PUBLIC	?digits@?$numeric_limits@M@std@@2HB		; std::numeric_limits<float>::digits
PUBLIC	?digits10@?$numeric_limits@M@std@@2HB		; std::numeric_limits<float>::digits10
PUBLIC	?max_digits10@?$numeric_limits@M@std@@2HB	; std::numeric_limits<float>::max_digits10
PUBLIC	?max_exponent@?$numeric_limits@M@std@@2HB	; std::numeric_limits<float>::max_exponent
PUBLIC	?max_exponent10@?$numeric_limits@M@std@@2HB	; std::numeric_limits<float>::max_exponent10
PUBLIC	?min_exponent@?$numeric_limits@M@std@@2HB	; std::numeric_limits<float>::min_exponent
PUBLIC	?min_exponent10@?$numeric_limits@M@std@@2HB	; std::numeric_limits<float>::min_exponent10
PUBLIC	?value@?$integral_constant@I$0A@@std@@2IB	; std::integral_constant<unsigned int,0>::value
PUBLIC	?digits@?$numeric_limits@N@std@@2HB		; std::numeric_limits<double>::digits
PUBLIC	?digits10@?$numeric_limits@N@std@@2HB		; std::numeric_limits<double>::digits10
PUBLIC	?max_digits10@?$numeric_limits@N@std@@2HB	; std::numeric_limits<double>::max_digits10
PUBLIC	?max_exponent@?$numeric_limits@N@std@@2HB	; std::numeric_limits<double>::max_exponent
PUBLIC	?max_exponent10@?$numeric_limits@N@std@@2HB	; std::numeric_limits<double>::max_exponent10
PUBLIC	?min_exponent@?$numeric_limits@N@std@@2HB	; std::numeric_limits<double>::min_exponent
PUBLIC	?min_exponent10@?$numeric_limits@N@std@@2HB	; std::numeric_limits<double>::min_exponent10
PUBLIC	?digits@?$numeric_limits@O@std@@2HB		; std::numeric_limits<long double>::digits
PUBLIC	?digits10@?$numeric_limits@O@std@@2HB		; std::numeric_limits<long double>::digits10
PUBLIC	?max_digits10@?$numeric_limits@O@std@@2HB	; std::numeric_limits<long double>::max_digits10
PUBLIC	?max_exponent@?$numeric_limits@O@std@@2HB	; std::numeric_limits<long double>::max_exponent
PUBLIC	?max_exponent10@?$numeric_limits@O@std@@2HB	; std::numeric_limits<long double>::max_exponent10
PUBLIC	?min_exponent@?$numeric_limits@O@std@@2HB	; std::numeric_limits<long double>::min_exponent
PUBLIC	?min_exponent10@?$numeric_limits@O@std@@2HB	; std::numeric_limits<long double>::min_exponent10
PUBLIC	?value@?$_Sizeof@U_Nil@std@@U12@U12@U12@U12@U12@U12@U12@@std@@2IB ; std::_Sizeof<std::_Nil,std::_Nil,std::_Nil,std::_Nil,std::_Nil,std::_Nil,std::_Nil,std::_Nil>::value
PUBLIC	?skipws@?$_Iosb@H@std@@2W4_Fmtflags@12@B	; std::_Iosb<int>::skipws
PUBLIC	?unitbuf@?$_Iosb@H@std@@2W4_Fmtflags@12@B	; std::_Iosb<int>::unitbuf
PUBLIC	?uppercase@?$_Iosb@H@std@@2W4_Fmtflags@12@B	; std::_Iosb<int>::uppercase
PUBLIC	?showbase@?$_Iosb@H@std@@2W4_Fmtflags@12@B	; std::_Iosb<int>::showbase
PUBLIC	?showpoint@?$_Iosb@H@std@@2W4_Fmtflags@12@B	; std::_Iosb<int>::showpoint
PUBLIC	?showpos@?$_Iosb@H@std@@2W4_Fmtflags@12@B	; std::_Iosb<int>::showpos
PUBLIC	?left@?$_Iosb@H@std@@2W4_Fmtflags@12@B		; std::_Iosb<int>::left
PUBLIC	?right@?$_Iosb@H@std@@2W4_Fmtflags@12@B		; std::_Iosb<int>::right
PUBLIC	?internal@?$_Iosb@H@std@@2W4_Fmtflags@12@B	; std::_Iosb<int>::internal
PUBLIC	?dec@?$_Iosb@H@std@@2W4_Fmtflags@12@B		; std::_Iosb<int>::dec
PUBLIC	?oct@?$_Iosb@H@std@@2W4_Fmtflags@12@B		; std::_Iosb<int>::oct
PUBLIC	?hex@?$_Iosb@H@std@@2W4_Fmtflags@12@B		; std::_Iosb<int>::hex
PUBLIC	?scientific@?$_Iosb@H@std@@2W4_Fmtflags@12@B	; std::_Iosb<int>::scientific
PUBLIC	?fixed@?$_Iosb@H@std@@2W4_Fmtflags@12@B		; std::_Iosb<int>::fixed
PUBLIC	?hexfloat@?$_Iosb@H@std@@2W4_Fmtflags@12@B	; std::_Iosb<int>::hexfloat
PUBLIC	?boolalpha@?$_Iosb@H@std@@2W4_Fmtflags@12@B	; std::_Iosb<int>::boolalpha
PUBLIC	?has_denorm@_Num_base@std@@2W4float_denorm_style@2@B ; std::_Num_base::has_denorm
PUBLIC	?_Stdio@?$_Iosb@H@std@@2W4_Fmtflags@12@B	; std::_Iosb<int>::_Stdio
PUBLIC	?has_denorm_loss@_Num_base@std@@2_NB		; std::_Num_base::has_denorm_loss
PUBLIC	?adjustfield@?$_Iosb@H@std@@2W4_Fmtflags@12@B	; std::_Iosb<int>::adjustfield
PUBLIC	?has_infinity@_Num_base@std@@2_NB		; std::_Num_base::has_infinity
PUBLIC	?basefield@?$_Iosb@H@std@@2W4_Fmtflags@12@B	; std::_Iosb<int>::basefield
PUBLIC	?has_quiet_NaN@_Num_base@std@@2_NB		; std::_Num_base::has_quiet_NaN
PUBLIC	?floatfield@?$_Iosb@H@std@@2W4_Fmtflags@12@B	; std::_Iosb<int>::floatfield
PUBLIC	?has_signaling_NaN@_Num_base@std@@2_NB		; std::_Num_base::has_signaling_NaN
PUBLIC	?is_bounded@_Num_base@std@@2_NB			; std::_Num_base::is_bounded
PUBLIC	?goodbit@?$_Iosb@H@std@@2W4_Iostate@12@B	; std::_Iosb<int>::goodbit
PUBLIC	?is_exact@_Num_base@std@@2_NB			; std::_Num_base::is_exact
PUBLIC	?eofbit@?$_Iosb@H@std@@2W4_Iostate@12@B		; std::_Iosb<int>::eofbit
PUBLIC	?is_iec559@_Num_base@std@@2_NB			; std::_Num_base::is_iec559
PUBLIC	?failbit@?$_Iosb@H@std@@2W4_Iostate@12@B	; std::_Iosb<int>::failbit
PUBLIC	?is_integer@_Num_base@std@@2_NB			; std::_Num_base::is_integer
PUBLIC	?badbit@?$_Iosb@H@std@@2W4_Iostate@12@B		; std::_Iosb<int>::badbit
PUBLIC	?is_modulo@_Num_base@std@@2_NB			; std::_Num_base::is_modulo
PUBLIC	?_Hardfail@?$_Iosb@H@std@@2W4_Iostate@12@B	; std::_Iosb<int>::_Hardfail
PUBLIC	?is_signed@_Num_base@std@@2_NB			; std::_Num_base::is_signed
PUBLIC	?in@?$_Iosb@H@std@@2W4_Openmode@12@B		; std::_Iosb<int>::in
PUBLIC	?is_specialized@_Num_base@std@@2_NB		; std::_Num_base::is_specialized
PUBLIC	?out@?$_Iosb@H@std@@2W4_Openmode@12@B		; std::_Iosb<int>::out
PUBLIC	?tinyness_before@_Num_base@std@@2_NB		; std::_Num_base::tinyness_before
_BSS	SEGMENT
?tmpColor@@3KA DD 01H DUP (?)				; tmpColor
_BSS	ENDS
;	COMDAT ?tinyness_before@_Num_base@std@@2_NB
CONST	SEGMENT
?tinyness_before@_Num_base@std@@2_NB DB 00H		; std::_Num_base::tinyness_before
CONST	ENDS
;	COMDAT ?out@?$_Iosb@H@std@@2W4_Openmode@12@B
CONST	SEGMENT
?out@?$_Iosb@H@std@@2W4_Openmode@12@B DD 02H		; std::_Iosb<int>::out
CONST	ENDS
;	COMDAT ?is_specialized@_Num_base@std@@2_NB
CONST	SEGMENT
?is_specialized@_Num_base@std@@2_NB DB 00H		; std::_Num_base::is_specialized
CONST	ENDS
;	COMDAT ?in@?$_Iosb@H@std@@2W4_Openmode@12@B
CONST	SEGMENT
?in@?$_Iosb@H@std@@2W4_Openmode@12@B DD 01H		; std::_Iosb<int>::in
CONST	ENDS
;	COMDAT ?is_signed@_Num_base@std@@2_NB
CONST	SEGMENT
?is_signed@_Num_base@std@@2_NB DB 00H			; std::_Num_base::is_signed
CONST	ENDS
;	COMDAT ?_Hardfail@?$_Iosb@H@std@@2W4_Iostate@12@B
CONST	SEGMENT
?_Hardfail@?$_Iosb@H@std@@2W4_Iostate@12@B DD 010H	; std::_Iosb<int>::_Hardfail
CONST	ENDS
;	COMDAT ?is_modulo@_Num_base@std@@2_NB
CONST	SEGMENT
?is_modulo@_Num_base@std@@2_NB DB 00H			; std::_Num_base::is_modulo
CONST	ENDS
;	COMDAT ?badbit@?$_Iosb@H@std@@2W4_Iostate@12@B
CONST	SEGMENT
?badbit@?$_Iosb@H@std@@2W4_Iostate@12@B DD 04H		; std::_Iosb<int>::badbit
CONST	ENDS
;	COMDAT ?is_integer@_Num_base@std@@2_NB
CONST	SEGMENT
?is_integer@_Num_base@std@@2_NB DB 00H			; std::_Num_base::is_integer
CONST	ENDS
;	COMDAT ?failbit@?$_Iosb@H@std@@2W4_Iostate@12@B
CONST	SEGMENT
?failbit@?$_Iosb@H@std@@2W4_Iostate@12@B DD 02H		; std::_Iosb<int>::failbit
CONST	ENDS
;	COMDAT ?is_iec559@_Num_base@std@@2_NB
CONST	SEGMENT
?is_iec559@_Num_base@std@@2_NB DB 00H			; std::_Num_base::is_iec559
CONST	ENDS
;	COMDAT ?eofbit@?$_Iosb@H@std@@2W4_Iostate@12@B
CONST	SEGMENT
?eofbit@?$_Iosb@H@std@@2W4_Iostate@12@B DD 01H		; std::_Iosb<int>::eofbit
CONST	ENDS
;	COMDAT ?is_exact@_Num_base@std@@2_NB
CONST	SEGMENT
?is_exact@_Num_base@std@@2_NB DB 00H			; std::_Num_base::is_exact
CONST	ENDS
;	COMDAT ?goodbit@?$_Iosb@H@std@@2W4_Iostate@12@B
CONST	SEGMENT
?goodbit@?$_Iosb@H@std@@2W4_Iostate@12@B DD 00H		; std::_Iosb<int>::goodbit
CONST	ENDS
;	COMDAT ?is_bounded@_Num_base@std@@2_NB
CONST	SEGMENT
?is_bounded@_Num_base@std@@2_NB DB 00H			; std::_Num_base::is_bounded
CONST	ENDS
;	COMDAT ?has_signaling_NaN@_Num_base@std@@2_NB
CONST	SEGMENT
?has_signaling_NaN@_Num_base@std@@2_NB DB 00H		; std::_Num_base::has_signaling_NaN
CONST	ENDS
;	COMDAT ?floatfield@?$_Iosb@H@std@@2W4_Fmtflags@12@B
CONST	SEGMENT
?floatfield@?$_Iosb@H@std@@2W4_Fmtflags@12@B DD 03000H	; std::_Iosb<int>::floatfield
CONST	ENDS
;	COMDAT ?has_quiet_NaN@_Num_base@std@@2_NB
CONST	SEGMENT
?has_quiet_NaN@_Num_base@std@@2_NB DB 00H		; std::_Num_base::has_quiet_NaN
CONST	ENDS
;	COMDAT ?basefield@?$_Iosb@H@std@@2W4_Fmtflags@12@B
CONST	SEGMENT
?basefield@?$_Iosb@H@std@@2W4_Fmtflags@12@B DD 0e00H	; std::_Iosb<int>::basefield
CONST	ENDS
;	COMDAT ?has_infinity@_Num_base@std@@2_NB
CONST	SEGMENT
?has_infinity@_Num_base@std@@2_NB DB 00H		; std::_Num_base::has_infinity
CONST	ENDS
;	COMDAT ?adjustfield@?$_Iosb@H@std@@2W4_Fmtflags@12@B
CONST	SEGMENT
?adjustfield@?$_Iosb@H@std@@2W4_Fmtflags@12@B DD 01c0H	; std::_Iosb<int>::adjustfield
CONST	ENDS
;	COMDAT ?has_denorm_loss@_Num_base@std@@2_NB
CONST	SEGMENT
?has_denorm_loss@_Num_base@std@@2_NB DB 00H		; std::_Num_base::has_denorm_loss
CONST	ENDS
;	COMDAT ?_Stdio@?$_Iosb@H@std@@2W4_Fmtflags@12@B
CONST	SEGMENT
?_Stdio@?$_Iosb@H@std@@2W4_Fmtflags@12@B DD 08000H	; std::_Iosb<int>::_Stdio
CONST	ENDS
;	COMDAT ?has_denorm@_Num_base@std@@2W4float_denorm_style@2@B
CONST	SEGMENT
?has_denorm@_Num_base@std@@2W4float_denorm_style@2@B DD 00H ; std::_Num_base::has_denorm
CONST	ENDS
;	COMDAT ?boolalpha@?$_Iosb@H@std@@2W4_Fmtflags@12@B
CONST	SEGMENT
?boolalpha@?$_Iosb@H@std@@2W4_Fmtflags@12@B DD 04000H	; std::_Iosb<int>::boolalpha
CONST	ENDS
;	COMDAT ?hexfloat@?$_Iosb@H@std@@2W4_Fmtflags@12@B
CONST	SEGMENT
?hexfloat@?$_Iosb@H@std@@2W4_Fmtflags@12@B DD 03000H	; std::_Iosb<int>::hexfloat
CONST	ENDS
;	COMDAT ?fixed@?$_Iosb@H@std@@2W4_Fmtflags@12@B
CONST	SEGMENT
?fixed@?$_Iosb@H@std@@2W4_Fmtflags@12@B DD 02000H	; std::_Iosb<int>::fixed
CONST	ENDS
;	COMDAT ?scientific@?$_Iosb@H@std@@2W4_Fmtflags@12@B
CONST	SEGMENT
?scientific@?$_Iosb@H@std@@2W4_Fmtflags@12@B DD 01000H	; std::_Iosb<int>::scientific
CONST	ENDS
;	COMDAT ?hex@?$_Iosb@H@std@@2W4_Fmtflags@12@B
CONST	SEGMENT
?hex@?$_Iosb@H@std@@2W4_Fmtflags@12@B DD 0800H		; std::_Iosb<int>::hex
CONST	ENDS
;	COMDAT ?oct@?$_Iosb@H@std@@2W4_Fmtflags@12@B
CONST	SEGMENT
?oct@?$_Iosb@H@std@@2W4_Fmtflags@12@B DD 0400H		; std::_Iosb<int>::oct
CONST	ENDS
;	COMDAT ?dec@?$_Iosb@H@std@@2W4_Fmtflags@12@B
CONST	SEGMENT
?dec@?$_Iosb@H@std@@2W4_Fmtflags@12@B DD 0200H		; std::_Iosb<int>::dec
CONST	ENDS
;	COMDAT ?internal@?$_Iosb@H@std@@2W4_Fmtflags@12@B
CONST	SEGMENT
?internal@?$_Iosb@H@std@@2W4_Fmtflags@12@B DD 0100H	; std::_Iosb<int>::internal
CONST	ENDS
;	COMDAT ?right@?$_Iosb@H@std@@2W4_Fmtflags@12@B
CONST	SEGMENT
?right@?$_Iosb@H@std@@2W4_Fmtflags@12@B DD 080H		; std::_Iosb<int>::right
CONST	ENDS
;	COMDAT ?left@?$_Iosb@H@std@@2W4_Fmtflags@12@B
CONST	SEGMENT
?left@?$_Iosb@H@std@@2W4_Fmtflags@12@B DD 040H		; std::_Iosb<int>::left
CONST	ENDS
;	COMDAT ?showpos@?$_Iosb@H@std@@2W4_Fmtflags@12@B
CONST	SEGMENT
?showpos@?$_Iosb@H@std@@2W4_Fmtflags@12@B DD 020H	; std::_Iosb<int>::showpos
CONST	ENDS
;	COMDAT ?showpoint@?$_Iosb@H@std@@2W4_Fmtflags@12@B
CONST	SEGMENT
?showpoint@?$_Iosb@H@std@@2W4_Fmtflags@12@B DD 010H	; std::_Iosb<int>::showpoint
CONST	ENDS
;	COMDAT ?showbase@?$_Iosb@H@std@@2W4_Fmtflags@12@B
CONST	SEGMENT
?showbase@?$_Iosb@H@std@@2W4_Fmtflags@12@B DD 08H	; std::_Iosb<int>::showbase
CONST	ENDS
;	COMDAT ?uppercase@?$_Iosb@H@std@@2W4_Fmtflags@12@B
CONST	SEGMENT
?uppercase@?$_Iosb@H@std@@2W4_Fmtflags@12@B DD 04H	; std::_Iosb<int>::uppercase
CONST	ENDS
;	COMDAT ?unitbuf@?$_Iosb@H@std@@2W4_Fmtflags@12@B
CONST	SEGMENT
?unitbuf@?$_Iosb@H@std@@2W4_Fmtflags@12@B DD 02H	; std::_Iosb<int>::unitbuf
CONST	ENDS
;	COMDAT ?skipws@?$_Iosb@H@std@@2W4_Fmtflags@12@B
CONST	SEGMENT
?skipws@?$_Iosb@H@std@@2W4_Fmtflags@12@B DD 01H		; std::_Iosb<int>::skipws
CONST	ENDS
;	COMDAT ?value@?$_Sizeof@U_Nil@std@@U12@U12@U12@U12@U12@U12@U12@@std@@2IB
CONST	SEGMENT
?value@?$_Sizeof@U_Nil@std@@U12@U12@U12@U12@U12@U12@U12@@std@@2IB DD 00H ; std::_Sizeof<std::_Nil,std::_Nil,std::_Nil,std::_Nil,std::_Nil,std::_Nil,std::_Nil,std::_Nil>::value
CONST	ENDS
;	COMDAT ?min_exponent10@?$numeric_limits@O@std@@2HB
CONST	SEGMENT
?min_exponent10@?$numeric_limits@O@std@@2HB DD 0fffffecdH ; std::numeric_limits<long double>::min_exponent10
CONST	ENDS
;	COMDAT ?min_exponent@?$numeric_limits@O@std@@2HB
CONST	SEGMENT
?min_exponent@?$numeric_limits@O@std@@2HB DD 0fffffc03H	; std::numeric_limits<long double>::min_exponent
CONST	ENDS
;	COMDAT ?max_exponent10@?$numeric_limits@O@std@@2HB
CONST	SEGMENT
?max_exponent10@?$numeric_limits@O@std@@2HB DD 0134H	; std::numeric_limits<long double>::max_exponent10
CONST	ENDS
;	COMDAT ?max_exponent@?$numeric_limits@O@std@@2HB
CONST	SEGMENT
?max_exponent@?$numeric_limits@O@std@@2HB DD 0400H	; std::numeric_limits<long double>::max_exponent
CONST	ENDS
;	COMDAT ?max_digits10@?$numeric_limits@O@std@@2HB
CONST	SEGMENT
?max_digits10@?$numeric_limits@O@std@@2HB DD 011H	; std::numeric_limits<long double>::max_digits10
CONST	ENDS
;	COMDAT ?digits10@?$numeric_limits@O@std@@2HB
CONST	SEGMENT
?digits10@?$numeric_limits@O@std@@2HB DD 0fH		; std::numeric_limits<long double>::digits10
CONST	ENDS
;	COMDAT ?digits@?$numeric_limits@O@std@@2HB
CONST	SEGMENT
?digits@?$numeric_limits@O@std@@2HB DD 035H		; std::numeric_limits<long double>::digits
CONST	ENDS
;	COMDAT ?min_exponent10@?$numeric_limits@N@std@@2HB
CONST	SEGMENT
?min_exponent10@?$numeric_limits@N@std@@2HB DD 0fffffecdH ; std::numeric_limits<double>::min_exponent10
CONST	ENDS
;	COMDAT ?min_exponent@?$numeric_limits@N@std@@2HB
CONST	SEGMENT
?min_exponent@?$numeric_limits@N@std@@2HB DD 0fffffc03H	; std::numeric_limits<double>::min_exponent
CONST	ENDS
;	COMDAT ?max_exponent10@?$numeric_limits@N@std@@2HB
CONST	SEGMENT
?max_exponent10@?$numeric_limits@N@std@@2HB DD 0134H	; std::numeric_limits<double>::max_exponent10
CONST	ENDS
;	COMDAT ?max_exponent@?$numeric_limits@N@std@@2HB
CONST	SEGMENT
?max_exponent@?$numeric_limits@N@std@@2HB DD 0400H	; std::numeric_limits<double>::max_exponent
CONST	ENDS
;	COMDAT ?max_digits10@?$numeric_limits@N@std@@2HB
CONST	SEGMENT
?max_digits10@?$numeric_limits@N@std@@2HB DD 011H	; std::numeric_limits<double>::max_digits10
CONST	ENDS
;	COMDAT ?digits10@?$numeric_limits@N@std@@2HB
CONST	SEGMENT
?digits10@?$numeric_limits@N@std@@2HB DD 0fH		; std::numeric_limits<double>::digits10
CONST	ENDS
;	COMDAT ?digits@?$numeric_limits@N@std@@2HB
CONST	SEGMENT
?digits@?$numeric_limits@N@std@@2HB DD 035H		; std::numeric_limits<double>::digits
CONST	ENDS
;	COMDAT ?value@?$integral_constant@I$0A@@std@@2IB
CONST	SEGMENT
?value@?$integral_constant@I$0A@@std@@2IB DD 00H	; std::integral_constant<unsigned int,0>::value
CONST	ENDS
;	COMDAT ?min_exponent10@?$numeric_limits@M@std@@2HB
CONST	SEGMENT
?min_exponent10@?$numeric_limits@M@std@@2HB DD 0ffffffdbH ; std::numeric_limits<float>::min_exponent10
CONST	ENDS
;	COMDAT ?min_exponent@?$numeric_limits@M@std@@2HB
CONST	SEGMENT
?min_exponent@?$numeric_limits@M@std@@2HB DD 0ffffff83H	; std::numeric_limits<float>::min_exponent
CONST	ENDS
;	COMDAT ?max_exponent10@?$numeric_limits@M@std@@2HB
CONST	SEGMENT
?max_exponent10@?$numeric_limits@M@std@@2HB DD 026H	; std::numeric_limits<float>::max_exponent10
CONST	ENDS
;	COMDAT ?max_exponent@?$numeric_limits@M@std@@2HB
CONST	SEGMENT
?max_exponent@?$numeric_limits@M@std@@2HB DD 080H	; std::numeric_limits<float>::max_exponent
CONST	ENDS
;	COMDAT ?max_digits10@?$numeric_limits@M@std@@2HB
CONST	SEGMENT
?max_digits10@?$numeric_limits@M@std@@2HB DD 09H	; std::numeric_limits<float>::max_digits10
CONST	ENDS
;	COMDAT ?digits10@?$numeric_limits@M@std@@2HB
CONST	SEGMENT
?digits10@?$numeric_limits@M@std@@2HB DD 06H		; std::numeric_limits<float>::digits10
CONST	ENDS
;	COMDAT ?digits@?$numeric_limits@M@std@@2HB
CONST	SEGMENT
?digits@?$numeric_limits@M@std@@2HB DD 018H		; std::numeric_limits<float>::digits
CONST	ENDS
;	COMDAT ?digits10@?$numeric_limits@_K@std@@2HB
CONST	SEGMENT
?digits10@?$numeric_limits@_K@std@@2HB DD 013H		; std::numeric_limits<unsigned __int64>::digits10
CONST	ENDS
;	COMDAT ?digits@?$numeric_limits@_K@std@@2HB
CONST	SEGMENT
?digits@?$numeric_limits@_K@std@@2HB DD 040H		; std::numeric_limits<unsigned __int64>::digits
CONST	ENDS
;	COMDAT ?is_signed@?$numeric_limits@_K@std@@2_NB
CONST	SEGMENT
?is_signed@?$numeric_limits@_K@std@@2_NB DB 00H		; std::numeric_limits<unsigned __int64>::is_signed
CONST	ENDS
;	COMDAT ?digits10@?$numeric_limits@_J@std@@2HB
CONST	SEGMENT
?digits10@?$numeric_limits@_J@std@@2HB DD 012H		; std::numeric_limits<__int64>::digits10
CONST	ENDS
;	COMDAT ?digits@?$numeric_limits@_J@std@@2HB
CONST	SEGMENT
?digits@?$numeric_limits@_J@std@@2HB DD 03fH		; std::numeric_limits<__int64>::digits
CONST	ENDS
;	COMDAT ?is_signed@?$numeric_limits@_J@std@@2_NB
CONST	SEGMENT
?is_signed@?$numeric_limits@_J@std@@2_NB DB 01H		; std::numeric_limits<__int64>::is_signed
CONST	ENDS
_DATA	SEGMENT
_DisplayAreaViewLeft DD 0bf4ccccdr		; -0.8
_fpass	DD	01H
_steerpoint DD	0bd4ccccdr			; -0.05
	DD	0bcf5c28fr			; -0.03
	DD	0bd4ccccdr			; -0.05
	DD	0bc23d70ar			; -0.01
	DD	0bcf5c28fr			; -0.03
	DD	0bc23d70ar			; -0.01
	DD	0bcf5c28fr			; -0.03
	DD	03cf5c28fr			; 0.03
	DD	0bc23d70ar			; -0.01
	DD	03cf5c28fr			; 0.03
	DD	0bc23d70ar			; -0.01
	DD	03d4ccccdr			; 0.05
	DD	03c23d70ar			; 0.01
	DD	03d4ccccdr			; 0.05
	DD	03c23d70ar			; 0.01
	DD	03cf5c28fr			; 0.03
	DD	03cf5c28fr			; 0.03
	DD	03cf5c28fr			; 0.03
	DD	03cf5c28fr			; 0.03
	DD	0bc23d70ar			; -0.01
	DD	03d4ccccdr			; 0.05
	DD	0bc23d70ar			; -0.01
	DD	03d4ccccdr			; 0.05
	DD	0bcf5c28fr			; -0.03
_elMark	DD	000000000r			; 0
	DD	03ca3d70ar			; 0.02
	DD	000000000r			; 0
	DD	0bca3d70ar			; -0.02
	DD	000000000r			; 0
	DD	000000000r			; 0
	DD	03d23d70ar			; 0.04
	DD	000000000r			; 0
_DATA	ENDS
;	COMDAT ?digits10@?$numeric_limits@K@std@@2HB
CONST	SEGMENT
?digits10@?$numeric_limits@K@std@@2HB DD 09H		; std::numeric_limits<unsigned long>::digits10
CONST	ENDS
;	COMDAT ?digits@?$numeric_limits@K@std@@2HB
CONST	SEGMENT
?digits@?$numeric_limits@K@std@@2HB DD 020H		; std::numeric_limits<unsigned long>::digits
CONST	ENDS
;	COMDAT ?is_signed@?$numeric_limits@K@std@@2_NB
CONST	SEGMENT
?is_signed@?$numeric_limits@K@std@@2_NB DB 00H		; std::numeric_limits<unsigned long>::is_signed
CONST	ENDS
;	COMDAT ?digits10@?$numeric_limits@J@std@@2HB
CONST	SEGMENT
?digits10@?$numeric_limits@J@std@@2HB DD 09H		; std::numeric_limits<long>::digits10
CONST	ENDS
;	COMDAT ?digits@?$numeric_limits@J@std@@2HB
CONST	SEGMENT
?digits@?$numeric_limits@J@std@@2HB DD 01fH		; std::numeric_limits<long>::digits
CONST	ENDS
;	COMDAT ?is_signed@?$numeric_limits@J@std@@2_NB
CONST	SEGMENT
?is_signed@?$numeric_limits@J@std@@2_NB DB 01H		; std::numeric_limits<long>::is_signed
CONST	ENDS
;	COMDAT ?table_size@?$ctype@D@std@@2IB
CONST	SEGMENT
?table_size@?$ctype@D@std@@2IB DD 0100H			; std::ctype<char>::table_size
CONST	ENDS
;	COMDAT ?digits10@?$numeric_limits@I@std@@2HB
CONST	SEGMENT
?digits10@?$numeric_limits@I@std@@2HB DD 09H		; std::numeric_limits<unsigned int>::digits10
CONST	ENDS
;	COMDAT ?digits@?$numeric_limits@I@std@@2HB
CONST	SEGMENT
?digits@?$numeric_limits@I@std@@2HB DD 020H		; std::numeric_limits<unsigned int>::digits
CONST	ENDS
;	COMDAT ?is_signed@?$numeric_limits@I@std@@2_NB
CONST	SEGMENT
?is_signed@?$numeric_limits@I@std@@2_NB DB 00H		; std::numeric_limits<unsigned int>::is_signed
CONST	ENDS
;	COMDAT ?digits10@?$numeric_limits@H@std@@2HB
CONST	SEGMENT
?digits10@?$numeric_limits@H@std@@2HB DD 09H		; std::numeric_limits<int>::digits10
CONST	ENDS
;	COMDAT ?digits@?$numeric_limits@H@std@@2HB
CONST	SEGMENT
?digits@?$numeric_limits@H@std@@2HB DD 01fH		; std::numeric_limits<int>::digits
CONST	ENDS
;	COMDAT ?value@?$_Sizeof@HU_Nil@std@@U12@U12@U12@U12@U12@U12@@std@@2IB
CONST	SEGMENT
?value@?$_Sizeof@HU_Nil@std@@U12@U12@U12@U12@U12@U12@@std@@2IB DD 01H ; std::_Sizeof<int,std::_Nil,std::_Nil,std::_Nil,std::_Nil,std::_Nil,std::_Nil,std::_Nil>::value
CONST	ENDS
;	COMDAT ?is_signed@?$numeric_limits@H@std@@2_NB
CONST	SEGMENT
?is_signed@?$numeric_limits@H@std@@2_NB DB 01H		; std::numeric_limits<int>::is_signed
CONST	ENDS
;	COMDAT ?digits10@?$numeric_limits@G@std@@2HB
CONST	SEGMENT
?digits10@?$numeric_limits@G@std@@2HB DD 04H		; std::numeric_limits<unsigned short>::digits10
CONST	ENDS
;	COMDAT ?digits@?$numeric_limits@G@std@@2HB
CONST	SEGMENT
?digits@?$numeric_limits@G@std@@2HB DD 010H		; std::numeric_limits<unsigned short>::digits
CONST	ENDS
;	COMDAT ?is_signed@?$numeric_limits@G@std@@2_NB
CONST	SEGMENT
?is_signed@?$numeric_limits@G@std@@2_NB DB 00H		; std::numeric_limits<unsigned short>::is_signed
CONST	ENDS
;	COMDAT ?none@?$_Locbase@H@std@@2HB
CONST	SEGMENT
?none@?$_Locbase@H@std@@2HB DD 00H			; std::_Locbase<int>::none
CONST	ENDS
;	COMDAT ?all@?$_Locbase@H@std@@2HB
CONST	SEGMENT
?all@?$_Locbase@H@std@@2HB DD 03fH			; std::_Locbase<int>::all
CONST	ENDS
;	COMDAT ?messages@?$_Locbase@H@std@@2HB
CONST	SEGMENT
?messages@?$_Locbase@H@std@@2HB DD 020H			; std::_Locbase<int>::messages
CONST	ENDS
;	COMDAT ?time@?$_Locbase@H@std@@2HB
CONST	SEGMENT
?time@?$_Locbase@H@std@@2HB DD 010H			; std::_Locbase<int>::time
CONST	ENDS
;	COMDAT ?numeric@?$_Locbase@H@std@@2HB
CONST	SEGMENT
?numeric@?$_Locbase@H@std@@2HB DD 08H			; std::_Locbase<int>::numeric
CONST	ENDS
;	COMDAT ?monetary@?$_Locbase@H@std@@2HB
CONST	SEGMENT
?monetary@?$_Locbase@H@std@@2HB DD 04H			; std::_Locbase<int>::monetary
CONST	ENDS
;	COMDAT ?ctype@?$_Locbase@H@std@@2HB
CONST	SEGMENT
?ctype@?$_Locbase@H@std@@2HB DD 02H			; std::_Locbase<int>::ctype
CONST	ENDS
;	COMDAT ?collate@?$_Locbase@H@std@@2HB
CONST	SEGMENT
?collate@?$_Locbase@H@std@@2HB DD 01H			; std::_Locbase<int>::collate
CONST	ENDS
;	COMDAT ?digits10@?$numeric_limits@F@std@@2HB
CONST	SEGMENT
?digits10@?$numeric_limits@F@std@@2HB DD 04H		; std::numeric_limits<short>::digits10
CONST	ENDS
;	COMDAT ?digits@?$numeric_limits@F@std@@2HB
CONST	SEGMENT
?digits@?$numeric_limits@F@std@@2HB DD 0fH		; std::numeric_limits<short>::digits
CONST	ENDS
;	COMDAT ?is_signed@?$numeric_limits@F@std@@2_NB
CONST	SEGMENT
?is_signed@?$numeric_limits@F@std@@2_NB DB 01H		; std::numeric_limits<short>::is_signed
CONST	ENDS
;	COMDAT ?value@?$integral_constant@_N$00@std@@2_NB
CONST	SEGMENT
?value@?$integral_constant@_N$00@std@@2_NB DB 01H	; std::integral_constant<bool,1>::value
CONST	ENDS
;	COMDAT ?digits10@?$numeric_limits@E@std@@2HB
CONST	SEGMENT
?digits10@?$numeric_limits@E@std@@2HB DD 02H		; std::numeric_limits<unsigned char>::digits10
CONST	ENDS
;	COMDAT ?digits@?$numeric_limits@E@std@@2HB
CONST	SEGMENT
?digits@?$numeric_limits@E@std@@2HB DD 08H		; std::numeric_limits<unsigned char>::digits
CONST	ENDS
;	COMDAT ?value@?$integral_constant@_N$0A@@std@@2_NB
CONST	SEGMENT
?value@?$integral_constant@_N$0A@@std@@2_NB DB 00H	; std::integral_constant<bool,0>::value
CONST	ENDS
;	COMDAT ?is_signed@?$numeric_limits@E@std@@2_NB
CONST	SEGMENT
?is_signed@?$numeric_limits@E@std@@2_NB DB 00H		; std::numeric_limits<unsigned char>::is_signed
CONST	ENDS
;	COMDAT ?digits10@?$numeric_limits@C@std@@2HB
CONST	SEGMENT
?digits10@?$numeric_limits@C@std@@2HB DD 02H		; std::numeric_limits<signed char>::digits10
CONST	ENDS
;	COMDAT ?digits@?$numeric_limits@C@std@@2HB
CONST	SEGMENT
?digits@?$numeric_limits@C@std@@2HB DD 07H		; std::numeric_limits<signed char>::digits
CONST	ENDS
;	COMDAT ?is_signed@?$numeric_limits@C@std@@2_NB
CONST	SEGMENT
?is_signed@?$numeric_limits@C@std@@2_NB DB 01H		; std::numeric_limits<signed char>::is_signed
CONST	ENDS
CONST	SEGMENT
_L_2	DD	03f317218r			; 0.693147
_NEAR_CLIP DD	03f800000r			; 1
_DisplayAreaViewTop DD 03f400000r		; 0.75
_DisplayAreaViewBottom DD 0bf2e147br		; -0.68
_DisplayAreaViewRight DD 03f3851ecr		; 0.72
_GM_OVERSCAN DD	03e4ccccdr			; 0.2
CONST	ENDS
;	COMDAT ?digits10@?$numeric_limits@_N@std@@2HB
CONST	SEGMENT
?digits10@?$numeric_limits@_N@std@@2HB DD 00H		; std::numeric_limits<bool>::digits10
CONST	ENDS
;	COMDAT ?digits@?$numeric_limits@_N@std@@2HB
CONST	SEGMENT
?digits@?$numeric_limits@_N@std@@2HB DD 01H		; std::numeric_limits<bool>::digits
CONST	ENDS
;	COMDAT ?is_signed@?$numeric_limits@_N@std@@2_NB
CONST	SEGMENT
?is_signed@?$numeric_limits@_N@std@@2_NB DB 00H		; std::numeric_limits<bool>::is_signed
CONST	ENDS
;	COMDAT ?is_modulo@?$numeric_limits@_N@std@@2_NB
CONST	SEGMENT
?is_modulo@?$numeric_limits@_N@std@@2_NB DB 00H		; std::numeric_limits<bool>::is_modulo
CONST	ENDS
;	COMDAT ?digits10@?$numeric_limits@_W@std@@2HB
CONST	SEGMENT
?digits10@?$numeric_limits@_W@std@@2HB DD 04H		; std::numeric_limits<wchar_t>::digits10
CONST	ENDS
;	COMDAT ?digits@?$numeric_limits@_W@std@@2HB
CONST	SEGMENT
?digits@?$numeric_limits@_W@std@@2HB DD 010H		; std::numeric_limits<wchar_t>::digits
CONST	ENDS
;	COMDAT ?is_signed@?$numeric_limits@_W@std@@2_NB
CONST	SEGMENT
?is_signed@?$numeric_limits@_W@std@@2_NB DB 00H		; std::numeric_limits<wchar_t>::is_signed
CONST	ENDS
;	COMDAT ?digits10@?$numeric_limits@D@std@@2HB
CONST	SEGMENT
?digits10@?$numeric_limits@D@std@@2HB DD 02H		; std::numeric_limits<char>::digits10
CONST	ENDS
;	COMDAT ?digits@?$numeric_limits@D@std@@2HB
CONST	SEGMENT
?digits@?$numeric_limits@D@std@@2HB DD 07H		; std::numeric_limits<char>::digits
CONST	ENDS
;	COMDAT ?is_signed@?$numeric_limits@D@std@@2_NB
CONST	SEGMENT
?is_signed@?$numeric_limits@D@std@@2_NB DB 01H		; std::numeric_limits<char>::is_signed
CONST	ENDS
;	COMDAT ?radix@_Num_float_base@std@@2HB
CONST	SEGMENT
?radix@_Num_float_base@std@@2HB DD 02H			; std::_Num_float_base::radix
CONST	ENDS
;	COMDAT ?round_style@_Num_float_base@std@@2W4float_round_style@2@B
CONST	SEGMENT
?round_style@_Num_float_base@std@@2W4float_round_style@2@B DD 01H ; std::_Num_float_base::round_style
CONST	ENDS
;	COMDAT ?traps@_Num_float_base@std@@2_NB
CONST	SEGMENT
?traps@_Num_float_base@std@@2_NB DB 00H			; std::_Num_float_base::traps
CONST	ENDS
;	COMDAT ?tinyness_before@_Num_float_base@std@@2_NB
CONST	SEGMENT
?tinyness_before@_Num_float_base@std@@2_NB DB 01H	; std::_Num_float_base::tinyness_before
CONST	ENDS
;	COMDAT ?is_specialized@_Num_float_base@std@@2_NB
CONST	SEGMENT
?is_specialized@_Num_float_base@std@@2_NB DB 01H	; std::_Num_float_base::is_specialized
CONST	ENDS
;	COMDAT ?is_signed@_Num_float_base@std@@2_NB
CONST	SEGMENT
?is_signed@_Num_float_base@std@@2_NB DB 01H		; std::_Num_float_base::is_signed
CONST	ENDS
;	COMDAT ?is_modulo@_Num_float_base@std@@2_NB
CONST	SEGMENT
?is_modulo@_Num_float_base@std@@2_NB DB 00H		; std::_Num_float_base::is_modulo
CONST	ENDS
;	COMDAT ?is_integer@_Num_float_base@std@@2_NB
CONST	SEGMENT
?is_integer@_Num_float_base@std@@2_NB DB 00H		; std::_Num_float_base::is_integer
CONST	ENDS
;	COMDAT ?is_iec559@_Num_float_base@std@@2_NB
CONST	SEGMENT
?is_iec559@_Num_float_base@std@@2_NB DB 01H		; std::_Num_float_base::is_iec559
CONST	ENDS
;	COMDAT ?is_exact@_Num_float_base@std@@2_NB
CONST	SEGMENT
?is_exact@_Num_float_base@std@@2_NB DB 00H		; std::_Num_float_base::is_exact
CONST	ENDS
;	COMDAT ?is_bounded@_Num_float_base@std@@2_NB
CONST	SEGMENT
?is_bounded@_Num_float_base@std@@2_NB DB 01H		; std::_Num_float_base::is_bounded
CONST	ENDS
;	COMDAT ?has_signaling_NaN@_Num_float_base@std@@2_NB
CONST	SEGMENT
?has_signaling_NaN@_Num_float_base@std@@2_NB DB 01H	; std::_Num_float_base::has_signaling_NaN
CONST	ENDS
;	COMDAT ?has_quiet_NaN@_Num_float_base@std@@2_NB
CONST	SEGMENT
?has_quiet_NaN@_Num_float_base@std@@2_NB DB 01H		; std::_Num_float_base::has_quiet_NaN
CONST	ENDS
;	COMDAT ?has_infinity@_Num_float_base@std@@2_NB
CONST	SEGMENT
?has_infinity@_Num_float_base@std@@2_NB DB 01H		; std::_Num_float_base::has_infinity
CONST	ENDS
;	COMDAT ?CMPDIRTYDATA_INTERVAL@FalconEntity@@2KB
CONST	SEGMENT
?CMPDIRTYDATA_INTERVAL@FalconEntity@@2KB DD 0c8H	; FalconEntity::CMPDIRTYDATA_INTERVAL
CONST	ENDS
;	COMDAT ?SIMDIRTYDATA_INTERVAL@FalconEntity@@2KB
CONST	SEGMENT
?SIMDIRTYDATA_INTERVAL@FalconEntity@@2KB DD 0c8H	; FalconEntity::SIMDIRTYDATA_INTERVAL
CONST	ENDS
;	COMDAT ?has_denorm_loss@_Num_float_base@std@@2_NB
CONST	SEGMENT
?has_denorm_loss@_Num_float_base@std@@2_NB DB 01H	; std::_Num_float_base::has_denorm_loss
CONST	ENDS
;	COMDAT ?has_denorm@_Num_float_base@std@@2W4float_denorm_style@2@B
CONST	SEGMENT
?has_denorm@_Num_float_base@std@@2W4float_denorm_style@2@B DD 01H ; std::_Num_float_base::has_denorm
CONST	ENDS
;	COMDAT ?radix@_Num_int_base@std@@2HB
CONST	SEGMENT
?radix@_Num_int_base@std@@2HB DD 02H			; std::_Num_int_base::radix
CONST	ENDS
;	COMDAT ?is_specialized@_Num_int_base@std@@2_NB
CONST	SEGMENT
?is_specialized@_Num_int_base@std@@2_NB DB 01H		; std::_Num_int_base::is_specialized
CONST	ENDS
;	COMDAT ?is_modulo@_Num_int_base@std@@2_NB
CONST	SEGMENT
?is_modulo@_Num_int_base@std@@2_NB DB 01H		; std::_Num_int_base::is_modulo
CONST	ENDS
;	COMDAT ?is_integer@_Num_int_base@std@@2_NB
CONST	SEGMENT
?is_integer@_Num_int_base@std@@2_NB DB 01H		; std::_Num_int_base::is_integer
CONST	ENDS
;	COMDAT ?is_exact@_Num_int_base@std@@2_NB
CONST	SEGMENT
?is_exact@_Num_int_base@std@@2_NB DB 01H		; std::_Num_int_base::is_exact
CONST	ENDS
;	COMDAT ?is_bounded@_Num_int_base@std@@2_NB
CONST	SEGMENT
?is_bounded@_Num_int_base@std@@2_NB DB 01H		; std::_Num_int_base::is_bounded
CONST	ENDS
;	COMDAT ?_Stream_err@failure@ios_base@std@@0W4io_errc@43@B
CONST	SEGMENT
?_Stream_err@failure@ios_base@std@@0W4io_errc@43@B DD 01H ; std::ios_base::failure::_Stream_err
CONST	ENDS
;	COMDAT ?radix@_Num_base@std@@2HB
CONST	SEGMENT
?radix@_Num_base@std@@2HB DD 00H			; std::_Num_base::radix
CONST	ENDS
;	COMDAT ?end@?$_Iosb@H@std@@2W4_Seekdir@12@B
CONST	SEGMENT
?end@?$_Iosb@H@std@@2W4_Seekdir@12@B DD 02H		; std::_Iosb<int>::end
CONST	ENDS
;	COMDAT ?min_exponent10@_Num_base@std@@2HB
CONST	SEGMENT
?min_exponent10@_Num_base@std@@2HB DD 00H		; std::_Num_base::min_exponent10
CONST	ENDS
;	COMDAT ?cur@?$_Iosb@H@std@@2W4_Seekdir@12@B
CONST	SEGMENT
?cur@?$_Iosb@H@std@@2W4_Seekdir@12@B DD 01H		; std::_Iosb<int>::cur
CONST	ENDS
;	COMDAT ?min_exponent@_Num_base@std@@2HB
CONST	SEGMENT
?min_exponent@_Num_base@std@@2HB DD 00H			; std::_Num_base::min_exponent
CONST	ENDS
;	COMDAT ?beg@?$_Iosb@H@std@@2W4_Seekdir@12@B
CONST	SEGMENT
?beg@?$_Iosb@H@std@@2W4_Seekdir@12@B DD 00H		; std::_Iosb<int>::beg
CONST	ENDS
;	COMDAT ?max_exponent10@_Num_base@std@@2HB
CONST	SEGMENT
?max_exponent10@_Num_base@std@@2HB DD 00H		; std::_Num_base::max_exponent10
CONST	ENDS
;	COMDAT ?binary@?$_Iosb@H@std@@2W4_Openmode@12@B
CONST	SEGMENT
?binary@?$_Iosb@H@std@@2W4_Openmode@12@B DD 020H	; std::_Iosb<int>::binary
CONST	ENDS
;	COMDAT ?max_exponent@_Num_base@std@@2HB
CONST	SEGMENT
?max_exponent@_Num_base@std@@2HB DD 00H			; std::_Num_base::max_exponent
CONST	ENDS
;	COMDAT ?max_digits10@_Num_base@std@@2HB
CONST	SEGMENT
?max_digits10@_Num_base@std@@2HB DD 00H			; std::_Num_base::max_digits10
CONST	ENDS
;	COMDAT ?_Noreplace@?$_Iosb@H@std@@2W4_Openmode@12@B
CONST	SEGMENT
?_Noreplace@?$_Iosb@H@std@@2W4_Openmode@12@B DD 080H	; std::_Iosb<int>::_Noreplace
CONST	ENDS
;	COMDAT ?digits10@_Num_base@std@@2HB
CONST	SEGMENT
?digits10@_Num_base@std@@2HB DD 00H			; std::_Num_base::digits10
CONST	ENDS
;	COMDAT ?_Nocreate@?$_Iosb@H@std@@2W4_Openmode@12@B
CONST	SEGMENT
?_Nocreate@?$_Iosb@H@std@@2W4_Openmode@12@B DD 040H	; std::_Iosb<int>::_Nocreate
CONST	ENDS
;	COMDAT ?digits@_Num_base@std@@2HB
CONST	SEGMENT
?digits@_Num_base@std@@2HB DD 00H			; std::_Num_base::digits
CONST	ENDS
;	COMDAT ?trunc@?$_Iosb@H@std@@2W4_Openmode@12@B
CONST	SEGMENT
?trunc@?$_Iosb@H@std@@2W4_Openmode@12@B DD 010H		; std::_Iosb<int>::trunc
CONST	ENDS
;	COMDAT ?app@?$_Iosb@H@std@@2W4_Openmode@12@B
CONST	SEGMENT
?app@?$_Iosb@H@std@@2W4_Openmode@12@B DD 08H		; std::_Iosb<int>::app
CONST	ENDS
;	COMDAT ?round_style@_Num_base@std@@2W4float_round_style@2@B
CONST	SEGMENT
?round_style@_Num_base@std@@2W4float_round_style@2@B DD 00H ; std::_Num_base::round_style
CONST	ENDS
;	COMDAT ?traps@_Num_base@std@@2_NB
CONST	SEGMENT
?traps@_Num_base@std@@2_NB DB 00H			; std::_Num_base::traps
CONST	ENDS
;	COMDAT ?ate@?$_Iosb@H@std@@2W4_Openmode@12@B
CONST	SEGMENT
?ate@?$_Iosb@H@std@@2W4_Openmode@12@B DD 04H		; std::_Iosb<int>::ate
CONST	ENDS
PUBLIC	_fabsf
PUBLIC	_ceilf
PUBLIC	_cosf
PUBLIC	_floorf
PUBLIC	_sinf
PUBLIC	?ceil@@YAMM@Z					; ceil
PUBLIC	?cos@@YAMM@Z					; cos
PUBLIC	?fabs@@YAMM@Z					; fabs
PUBLIC	?floor@@YAMM@Z					; floor
PUBLIC	?sin@@YAMM@Z					; sin
PUBLIC	??8VU_SESSION_ID@@QBEHABV0@@Z			; VU_SESSION_ID::operator==
PUBLIC	??8VU_ID@@QBE_NABV0@@Z				; VU_ID::operator==
PUBLIC	?Id@VuEntity@@QBE?AVVU_ID@@XZ			; VuEntity::Id
PUBLIC	?XPos@VuEntity@@QBEMXZ				; VuEntity::XPos
PUBLIC	?YPos@VuEntity@@QBEMXZ				; VuEntity::YPos
PUBLIC	?ZPos@VuEntity@@QBEMXZ				; VuEntity::ZPos
PUBLIC	?Yaw@VuEntity@@QBEMXZ				; VuEntity::Yaw
PUBLIC	?Pitch@VuEntity@@QBEMXZ				; VuEntity::Pitch
PUBLIC	?Roll@VuEntity@@QBEMXZ				; VuEntity::Roll
PUBLIC	?EntityType@VuEntity@@QBEPAUVuEntityType@@XZ	; VuEntity::EntityType
PUBLIC	??2@YAPAXIPAX@Z					; operator new
PUBLIC	??3@YAXPAX0@Z					; operator delete
PUBLIC	?length@?$char_traits@D@std@@SAIPBD@Z		; std::char_traits<char>::length
PUBLIC	?copy@?$char_traits@D@std@@SAPADPADPBDI@Z	; std::char_traits<char>::copy
PUBLIC	?move@?$char_traits@D@std@@SAPADPADPBDI@Z	; std::char_traits<char>::move
PUBLIC	?assign@?$char_traits@D@std@@SAXAADABD@Z	; std::char_traits<char>::assign
PUBLIC	??0?$allocator@D@std@@QAE@XZ			; std::allocator<char>::allocator<char>
PUBLIC	?deallocate@?$allocator@D@std@@QAEXPADI@Z	; std::allocator<char>::deallocate
PUBLIC	?allocate@?$allocator@D@std@@QAEPADI@Z		; std::allocator<char>::allocate
PUBLIC	?max_size@?$allocator@D@std@@QBEIXZ		; std::allocator<char>::max_size
PUBLIC	?max_size@?$allocator_traits@V?$allocator@D@std@@@std@@SAIABV?$allocator@D@2@@Z ; std::allocator_traits<std::allocator<char> >::max_size
PUBLIC	??0?$_Wrap_alloc@V?$allocator@D@std@@@std@@QAE@XZ ; std::_Wrap_alloc<std::allocator<char> >::_Wrap_alloc<std::allocator<char> >
PUBLIC	?allocate@?$_Wrap_alloc@V?$allocator@D@std@@@std@@QAEPADI@Z ; std::_Wrap_alloc<std::allocator<char> >::allocate
PUBLIC	?deallocate@?$_Wrap_alloc@V?$allocator@D@std@@@std@@QAEXPADI@Z ; std::_Wrap_alloc<std::allocator<char> >::deallocate
PUBLIC	?max_size@?$_Wrap_alloc@V?$allocator@D@std@@@std@@QBEIXZ ; std::_Wrap_alloc<std::allocator<char> >::max_size
PUBLIC	??0?$_String_val@U?$_Simple_types@D@std@@@std@@QAE@XZ ; std::_String_val<std::_Simple_types<char> >::_String_val<std::_Simple_types<char> >
PUBLIC	?_Myptr@?$_String_val@U?$_Simple_types@D@std@@@std@@QAEPADXZ ; std::_String_val<std::_Simple_types<char> >::_Myptr
PUBLIC	?_Myptr@?$_String_val@U?$_Simple_types@D@std@@@std@@QBEPBDXZ ; std::_String_val<std::_Simple_types<char> >::_Myptr
PUBLIC	??0?$_String_alloc@$0A@U?$_String_base_types@DV?$allocator@D@std@@@std@@@std@@QAE@ABV?$allocator@D@1@@Z ; std::_String_alloc<0,std::_String_base_types<char,std::allocator<char> > >::_String_alloc<0,std::_String_base_types<char,std::allocator<char> > >
PUBLIC	?_Getal@?$_String_alloc@$0A@U?$_String_base_types@DV?$allocator@D@std@@@std@@@std@@QBE?AU?$_Wrap_alloc@V?$allocator@D@std@@@2@XZ ; std::_String_alloc<0,std::_String_base_types<char,std::allocator<char> > >::_Getal
PUBLIC	??0?$basic_string@DU?$char_traits@D@std@@V?$allocator@D@2@@std@@QAE@PBD@Z ; std::basic_string<char,std::char_traits<char>,std::allocator<char> >::basic_string<char,std::char_traits<char>,std::allocator<char> >
PUBLIC	?assign@?$basic_string@DU?$char_traits@D@std@@V?$allocator@D@2@@std@@QAEAAV12@ABV12@II@Z ; std::basic_string<char,std::char_traits<char>,std::allocator<char> >::assign
PUBLIC	?assign@?$basic_string@DU?$char_traits@D@std@@V?$allocator@D@2@@std@@QAEAAV12@PBDI@Z ; std::basic_string<char,std::char_traits<char>,std::allocator<char> >::assign
PUBLIC	?assign@?$basic_string@DU?$char_traits@D@std@@V?$allocator@D@2@@std@@QAEAAV12@PBD@Z ; std::basic_string<char,std::char_traits<char>,std::allocator<char> >::assign
PUBLIC	?erase@?$basic_string@DU?$char_traits@D@std@@V?$allocator@D@2@@std@@QAEAAV12@I@Z ; std::basic_string<char,std::char_traits<char>,std::allocator<char> >::erase
PUBLIC	?erase@?$basic_string@DU?$char_traits@D@std@@V?$allocator@D@2@@std@@QAEAAV12@II@Z ; std::basic_string<char,std::char_traits<char>,std::allocator<char> >::erase
PUBLIC	?size@?$basic_string@DU?$char_traits@D@std@@V?$allocator@D@2@@std@@QBEIXZ ; std::basic_string<char,std::char_traits<char>,std::allocator<char> >::size
PUBLIC	?max_size@?$basic_string@DU?$char_traits@D@std@@V?$allocator@D@2@@std@@QBEIXZ ; std::basic_string<char,std::char_traits<char>,std::allocator<char> >::max_size
PUBLIC	?_Copy@?$basic_string@DU?$char_traits@D@std@@V?$allocator@D@2@@std@@QAEXII@Z ; std::basic_string<char,std::char_traits<char>,std::allocator<char> >::_Copy
PUBLIC	?_Eos@?$basic_string@DU?$char_traits@D@std@@V?$allocator@D@2@@std@@QAEXI@Z ; std::basic_string<char,std::char_traits<char>,std::allocator<char> >::_Eos
PUBLIC	?_Grow@?$basic_string@DU?$char_traits@D@std@@V?$allocator@D@2@@std@@QAE_NI_N@Z ; std::basic_string<char,std::char_traits<char>,std::allocator<char> >::_Grow
PUBLIC	?_Inside@?$basic_string@DU?$char_traits@D@std@@V?$allocator@D@2@@std@@QAE_NPBD@Z ; std::basic_string<char,std::char_traits<char>,std::allocator<char> >::_Inside
PUBLIC	?_Tidy@?$basic_string@DU?$char_traits@D@std@@V?$allocator@D@2@@std@@QAEX_NI@Z ; std::basic_string<char,std::char_traits<char>,std::allocator<char> >::_Tidy
PUBLIC	?_Xlen@?$basic_string@DU?$char_traits@D@std@@V?$allocator@D@2@@std@@QBEXXZ ; std::basic_string<char,std::char_traits<char>,std::allocator<char> >::_Xlen
PUBLIC	?_Xran@?$basic_string@DU?$char_traits@D@std@@V?$allocator@D@2@@std@@QBEXXZ ; std::basic_string<char,std::char_traits<char>,std::allocator<char> >::_Xran
PUBLIC	?IsSim@FalconEntity@@QAEHXZ			; FalconEntity::IsSim
PUBLIC	?mlSinCos@@YAXPAUmlTrig@@M@Z			; mlSinCos
PUBLIC	?checked_atan2@@YANNN@Z				; checked_atan2
PUBLIC	?IsSOI@DrawableClass@@QAEHXZ			; DrawableClass::IsSOI
PUBLIC	?CurMode@MFDClass@@QAE?AW4MfdMode@1@XZ		; MFDClass::CurMode
PUBLIC	?GetTGPWarning@MFDClass@@QAEHXZ			; MFDClass::GetTGPWarning
PUBLIC	?BaseData@SimObjectType@@QAEPAVFalconEntity@@XZ	; SimObjectType::BaseData
PUBLIC	?get@?$VuBin@VFalconEntity@@@@QBEPAVFalconEntity@@XZ ; VuBin<FalconEntity>::get
PUBLIC	?Display@RadarDopplerClass@@UAEXPAVVirtualDisplay@@@Z ; RadarDopplerClass::Display
PUBLIC	?GetBuggedData@RadarDopplerClass@@UAEHPAM000@Z	; RadarDopplerClass::GetBuggedData
PUBLIC	?AABottomRow@RadarDopplerClass@@IAEXXZ		; RadarDopplerClass::AABottomRow
PUBLIC	?IsSet@RadarDopplerClass@@QAEHH@Z		; RadarDopplerClass::IsSet
PUBLIC	?ToggleFlag@RadarDopplerClass@@QAEXH@Z		; RadarDopplerClass::ToggleFlag
PUBLIC	?TargetToXY@RadarDopplerClass@@QAEXPAVSimObjectLocalData@@HMPAM1@Z ; RadarDopplerClass::TargetToXY
PUBLIC	?IsAADcltBit@RadarDopplerClass@@IAEHH@Z		; RadarDopplerClass::IsAADcltBit
PUBLIC	?IsAADclt@RadarDopplerClass@@IAEHH@Z		; RadarDopplerClass::IsAADclt
PUBLIC	?IsIFFFlags@RadarDopplerClass@@IAEHH@Z		; RadarDopplerClass::IsIFFFlags
PUBLIC	?DrawRangeTicks@RadarDopplerClass@@IAEXXZ	; RadarDopplerClass::DrawRangeTicks
PUBLIC	?DrawRangeArrows@RadarDopplerClass@@IAEXXZ	; RadarDopplerClass::DrawRangeArrows
PUBLIC	?DrawRange@RadarDopplerClass@@IAEXXZ		; RadarDopplerClass::DrawRange
PUBLIC	?DrawAzLimitMarkers@RadarDopplerClass@@IAEXXZ	; RadarDopplerClass::DrawAzLimitMarkers
PUBLIC	?DrawACQCursor@RadarDopplerClass@@IAEXXZ	; RadarDopplerClass::DrawACQCursor
PUBLIC	?DrawSlewCursor@RadarDopplerClass@@IAEXXZ	; RadarDopplerClass::DrawSlewCursor
PUBLIC	?DrawCollisionSteering@RadarDopplerClass@@IAEXPAVSimObjectType@@M@Z ; RadarDopplerClass::DrawCollisionSteering
PUBLIC	?DrawSteerpoint@RadarDopplerClass@@IAEXXZ	; RadarDopplerClass::DrawSteerpoint
PUBLIC	?DrawBars@RadarDopplerClass@@IAEXXZ		; RadarDopplerClass::DrawBars
PUBLIC	?RWSDisplay@RadarDopplerClass@@IAEXXZ		; RadarDopplerClass::RWSDisplay
PUBLIC	?TWSDisplay@RadarDopplerClass@@IAEXXZ		; RadarDopplerClass::TWSDisplay
PUBLIC	?STTDisplay@RadarDopplerClass@@IAEXXZ		; RadarDopplerClass::STTDisplay
PUBLIC	?VSModeDisplay@RadarDopplerClass@@IAEXXZ	; RadarDopplerClass::VSModeDisplay
PUBLIC	?VSDisplay@RadarDopplerClass@@IAEXXZ		; RadarDopplerClass::VSDisplay
PUBLIC	?ACMDisplay@RadarDopplerClass@@IAEXXZ		; RadarDopplerClass::ACMDisplay
PUBLIC	?SAMDisplay@RadarDopplerClass@@IAEXXZ		; RadarDopplerClass::SAMDisplay
PUBLIC	?STBYDisplay@RadarDopplerClass@@IAEXXZ		; RadarDopplerClass::STBYDisplay
PUBLIC	?AGRangingDisplay@RadarDopplerClass@@IAEXXZ	; RadarDopplerClass::AGRangingDisplay
PUBLIC	?DrawReference@RadarDopplerClass@@IAEXPAVVirtualDisplay@@@Z ; RadarDopplerClass::DrawReference
PUBLIC	?DrawDLZSymbol@RadarDopplerClass@@IAEXXZ	; RadarDopplerClass::DrawDLZSymbol
PUBLIC	?DrawSymbol@RadarDopplerClass@@IAEXHMHH@Z	; RadarDopplerClass::DrawSymbol
PUBLIC	?IsUnderCursor@RadarDopplerClass@@IAEHPAVSimObjectType@@M@Z ; RadarDopplerClass::IsUnderCursor
PUBLIC	?IsUnderVSCursor@RadarDopplerClass@@IAEHPAVSimObjectType@@M@Z ; RadarDopplerClass::IsUnderVSCursor
PUBLIC	?DrawWaterline@RadarDopplerClass@@IAEXXZ	; RadarDopplerClass::DrawWaterline
PUBLIC	?DrawScanMarkers@RadarDopplerClass@@IAEXXZ	; RadarDopplerClass::DrawScanMarkers
PUBLIC	?DrawAzElTicks@RadarDopplerClass@@IAEXXZ	; RadarDopplerClass::DrawAzElTicks
PUBLIC	?DrawTargets@RadarDopplerClass@@IAEXXZ		; RadarDopplerClass::DrawTargets
PUBLIC	?GetInterogate@RadarDopplerClass@@QAEHPAVSimObjectType@@0@Z ; RadarDopplerClass::GetInterogate
PUBLIC	?SetInterogateTimer@RadarDopplerClass@@QAEXH@Z	; RadarDopplerClass::SetInterogateTimer
PUBLIC	?DrawIFFStatus@RadarDopplerClass@@QAEXXZ	; RadarDopplerClass::DrawIFFStatus
PUBLIC	?UpdateLOSScan@RadarDopplerClass@@QAEXXZ	; RadarDopplerClass::UpdateLOSScan
PUBLIC	?GetCurScanMode@RadarDopplerClass@@QAEHH@Z	; RadarDopplerClass::GetCurScanMode
PUBLIC	?GetBuggedIFF@RadarDopplerClass@@QAEXPAM0PAH@Z	; RadarDopplerClass::GetBuggedIFF
PUBLIC	?DrawNCTR@RadarDopplerClass@@IAEX_N@Z		; RadarDopplerClass::DrawNCTR
PUBLIC	?get@?$VuBin@VCampBaseClass@@@@QBEPAVCampBaseClass@@XZ ; VuBin<CampBaseClass>::get
PUBLIC	?GetCampaignObject@SimBaseClass@@QAEPAVCampBaseClass@@XZ ; SimBaseClass::GetCampaignObject
PUBLIC	??0id@locale@std@@QAE@I@Z			; std::locale::id::id
PUBLIC	?generic_category@std@@YAABVerror_category@1@XZ	; std::generic_category
PUBLIC	?system_category@std@@YAABVerror_category@1@XZ	; std::system_category
PUBLIC	??0error_category@std@@QAE@XZ			; std::error_category::error_category
PUBLIC	??1error_category@std@@UAE@XZ			; std::error_category::~error_category
PUBLIC	?default_error_condition@error_category@std@@UBE?AVerror_condition@2@H@Z ; std::error_category::default_error_condition
PUBLIC	?equivalent@error_category@std@@UBE_NHABVerror_condition@2@@Z ; std::error_category::equivalent
PUBLIC	?equivalent@error_category@std@@UBE_NABVerror_code@2@H@Z ; std::error_category::equivalent
PUBLIC	??8error_category@std@@QBE_NABV01@@Z		; std::error_category::operator==
PUBLIC	??_Gerror_category@std@@UAEPAXI@Z		; std::error_category::`scalar deleting destructor'
PUBLIC	?value@error_code@std@@QBEHXZ			; std::error_code::value
PUBLIC	?category@error_code@std@@QBEABVerror_category@2@XZ ; std::error_code::category
PUBLIC	??0error_condition@std@@QAE@HABVerror_category@1@@Z ; std::error_condition::error_condition
PUBLIC	?value@error_condition@std@@QBEHXZ		; std::error_condition::value
PUBLIC	?category@error_condition@std@@QBEABVerror_category@2@XZ ; std::error_condition::category
PUBLIC	??8error_condition@std@@QBE_NABV01@@Z		; std::error_condition::operator==
PUBLIC	??0_Generic_error_category@std@@QAE@XZ		; std::_Generic_error_category::_Generic_error_category
PUBLIC	?name@_Generic_error_category@std@@UBEPBDXZ	; std::_Generic_error_category::name
PUBLIC	?message@_Generic_error_category@std@@UBE?AV?$basic_string@DU?$char_traits@D@std@@V?$allocator@D@2@@2@H@Z ; std::_Generic_error_category::message
PUBLIC	??1_Generic_error_category@std@@UAE@XZ		; std::_Generic_error_category::~_Generic_error_category
PUBLIC	??_G_Generic_error_category@std@@UAEPAXI@Z	; std::_Generic_error_category::`scalar deleting destructor'
PUBLIC	??0_Iostream_error_category@std@@QAE@XZ		; std::_Iostream_error_category::_Iostream_error_category
PUBLIC	?name@_Iostream_error_category@std@@UBEPBDXZ	; std::_Iostream_error_category::name
PUBLIC	?message@_Iostream_error_category@std@@UBE?AV?$basic_string@DU?$char_traits@D@std@@V?$allocator@D@2@@2@H@Z ; std::_Iostream_error_category::message
PUBLIC	??1_Iostream_error_category@std@@UAE@XZ		; std::_Iostream_error_category::~_Iostream_error_category
PUBLIC	??_G_Iostream_error_category@std@@UAEPAXI@Z	; std::_Iostream_error_category::`scalar deleting destructor'
PUBLIC	??0_System_error_category@std@@QAE@XZ		; std::_System_error_category::_System_error_category
PUBLIC	?name@_System_error_category@std@@UBEPBDXZ	; std::_System_error_category::name
PUBLIC	?message@_System_error_category@std@@UBE?AV?$basic_string@DU?$char_traits@D@std@@V?$allocator@D@2@@2@H@Z ; std::_System_error_category::message
PUBLIC	?default_error_condition@_System_error_category@std@@UBE?AVerror_condition@2@H@Z ; std::_System_error_category::default_error_condition
PUBLIC	??1_System_error_category@std@@UAE@XZ		; std::_System_error_category::~_System_error_category
PUBLIC	??_G_System_error_category@std@@UAEPAXI@Z	; std::_System_error_category::`scalar deleting destructor'
PUBLIC	?CenterOriginInViewport@VirtualDisplay@@QAEXXZ	; VirtualDisplay::CenterOriginInViewport
PUBLIC	?ZeroRotationAboutOrigin@VirtualDisplay@@QAEXXZ	; VirtualDisplay::ZeroRotationAboutOrigin
PUBLIC	??B?$VuBin@VSimWeaponClass@@@@QBE_NXZ		; VuBin<SimWeaponClass>::operator bool
PUBLIC	?GetMasterMode@FireControlComputer@@QAE?AW4FCCMasterMode@1@XZ ; FireControlComputer::GetMasterMode
PUBLIC	?IsAGMasterMode@FireControlComputer@@QAEHXZ	; FireControlComputer::IsAGMasterMode
PUBLIC	?GetSubMode@FireControlComputer@@QAE?AW4FCCSubMode@1@XZ ; FireControlComputer::GetSubMode
PUBLIC	?INSState@AircraftClass@@QAEHW4INSAlignFlags@1@@Z ; AircraftClass::INSState
PUBLIC	?CurStationOK@SMSBaseClass@@QAEHXZ		; SMSBaseClass::CurStationOK
PUBLIC	?MasterArm@SMSBaseClass@@QAE?AW4MasterArmState@1@XZ ; SMSBaseClass::MasterArm
PUBLIC	?TStance@TeamClass@@QAEHE@Z			; TeamClass::TStance
PUBLIC	??$construct@PADAAPAD@?$_Wrap_alloc@V?$allocator@D@std@@@std@@QAEXPAPADAAPAD@Z ; std::_Wrap_alloc<std::allocator<char> >::construct<char *,char * &>
PUBLIC	??$destroy@PAD@?$_Wrap_alloc@V?$allocator@D@std@@@std@@QAEXPAPAD@Z ; std::_Wrap_alloc<std::allocator<char> >::destroy<char *>
PUBLIC	??$addressof@D@std@@YAPADAAD@Z			; std::addressof<char>
PUBLIC	??$_Allocate@D@std@@YAPADIPAD@Z			; std::_Allocate<char>
PUBLIC	??$forward@AAPAD@std@@YAAAPADAAPAD@Z		; std::forward<char * &>
PUBLIC	??$construct@PADAAPAD@?$allocator_traits@V?$allocator@D@std@@@std@@SAXAAV?$allocator@D@1@PAPADAAPAD@Z ; std::allocator_traits<std::allocator<char> >::construct<char *,char * &>
PUBLIC	??$destroy@PAD@?$allocator_traits@V?$allocator@D@std@@@std@@SAXAAV?$allocator@D@1@PAPAD@Z ; std::allocator_traits<std::allocator<char> >::destroy<char *>
PUBLIC	??$construct@PADAAPAD@?$allocator@D@std@@QAEXPAPADAAPAD@Z ; std::allocator<char>::construct<char *,char * &>
PUBLIC	??$destroy@PAD@?$allocator@D@std@@QAEXPAPAD@Z	; std::allocator<char>::destroy<char *>
PUBLIC	??_C@_00CNPNBAHC@?$AA@				; `string'
PUBLIC	??_7error_category@std@@6B@			; std::error_category::`vftable'
PUBLIC	??_7_Generic_error_category@std@@6B@		; std::_Generic_error_category::`vftable'
PUBLIC	??_C@_07DCLBNMLN@generic?$AA@			; `string'
PUBLIC	??_C@_0O@BFJCFAAK@unknown?5error?$AA@		; `string'
PUBLIC	??_7_Iostream_error_category@std@@6B@		; std::_Iostream_error_category::`vftable'
PUBLIC	??_C@_08LLGCOLLL@iostream?$AA@			; `string'
PUBLIC	??_C@_0BG@PADBLCHM@iostream?5stream?5error?$AA@	; `string'
PUBLIC	??_7_System_error_category@std@@6B@		; std::_System_error_category::`vftable'
PUBLIC	??_C@_06FHFOAHML@system?$AA@			; `string'
PUBLIC	?_Generic_object@?$_Error_objects@H@std@@2V_Generic_error_category@2@A ; std::_Error_objects<int>::_Generic_object
PUBLIC	?_Iostream_object@?$_Error_objects@H@std@@2V_Iostream_error_category@2@A ; std::_Error_objects<int>::_Iostream_object
PUBLIC	?_System_object@?$_Error_objects@H@std@@2V_System_error_category@2@A ; std::_Error_objects<int>::_System_object
PUBLIC	??_C@_02DPKJAMEF@?$CFd?$AA@			; `string'
PUBLIC	?id@?$num_put@DV?$back_insert_iterator@V?$basic_string@DU?$char_traits@D@std@@V?$allocator@D@2@@std@@@std@@@std@@2V0locale@2@A ; std::num_put<char,std::back_insert_iterator<std::basic_string<char,std::char_traits<char>,std::allocator<char> > > >::id
PUBLIC	?id@?$num_put@_WV?$back_insert_iterator@V?$basic_string@_WU?$char_traits@_W@std@@V?$allocator@_W@2@@std@@@std@@@std@@2V0locale@2@A ; std::num_put<wchar_t,std::back_insert_iterator<std::basic_string<wchar_t,std::char_traits<wchar_t>,std::allocator<wchar_t> > > >::id
PUBLIC	??_C@_02PMJKFNFC@40?$AA@			; `string'
PUBLIC	??_C@_07MBJCAOMB@NOT?5SOI?$AA@			; `string'
PUBLIC	??_C@_06MNCBBDMH@NO?5RAD?$AA@			; `string'
PUBLIC	??_C@_03MPPIHBHJ@OFF?$AA@			; `string'
PUBLIC	??_C@_04BKGGJKLP@STBY?$AA@			; `string'
PUBLIC	??_C@_04PGDFOHNL@OVRD?$AA@			; `string'
PUBLIC	??_C@_04GKDMIDBA@CNTL?$AA@			; `string'
PUBLIC	??_C@_04CAJPJFIH@BARO?$AA@			; `string'
PUBLIC	??_C@_02DCDGKAKK@CZ?$AA@			; `string'
PUBLIC	??_C@_02NEPPOLFA@SP?$AA@			; `string'
PUBLIC	??_C@_03NGANFLJH@STP?$AA@			; `string'
PUBLIC	??_C@_03DFLOHKFG@GM?5?$AA@			; `string'
PUBLIC	??_C@_03HOONMGKE@GMT?$AA@			; `string'
PUBLIC	??_C@_03JIDALBMA@SEA?$AA@			; `string'
PUBLIC	??_C@_03MKBIBNGK@ACM?$AA@			; `string'
PUBLIC	??_C@_03MLKDMENG@VS?5?$AA@			; `string'
PUBLIC	??_C@_03EHNKNBGI@RWS?$AA@			; `string'
PUBLIC	??_C@_03GCLBIOLE@TWS?$AA@			; `string'
PUBLIC	??_C@_01HMGJMAIH@B?$AA@				; `string'
PUBLIC	??_C@_04GHNNFJCK@?$CF?40f?$AA@			; `string'
PUBLIC	??_C@_01FHEEJDEE@A?$AA@				; `string'
PUBLIC	??_C@_03HNPFBMKG@CRM?$AA@			; `string'
PUBLIC	??_C@_03PBNHDDCP@LRS?$AA@			; `string'
PUBLIC	??_C@_03KKGFKKLA@EXP?$AA@			; `string'
PUBLIC	??_C@_04DHIGGNDH@NORM?$AA@			; `string'
PUBLIC	??_C@_04EECJBCEN@CTNL?$AA@			; `string'
PUBLIC	??_C@_04NAGNMPFG@SCAN?$AA@			; `string'
PUBLIC	??_C@_04IEFNNOGI@LOSE?$AA@			; `string'
PUBLIC	??_C@_04OGKJMPGK@?$CF02d?$AA@			; `string'
PUBLIC	??_C@_08JJDNADML@?$CF02?40f?$CFc?$AA@		; `string'
PUBLIC	??_C@_06EKMMACPN@?$CF03?40f?$AA@		; `string'
PUBLIC	??_C@_07BGJOHMOK@?$CL?$CF03?40f?$AA@		; `string'
PUBLIC	??_C@_02PIBHCBOA@20?$AA@			; `string'
PUBLIC	??_C@_04BEAHNOME@SLEW?$AA@			; `string'
PUBLIC	??_C@_04DKKPAKDO@BORE?$AA@			; `string'
PUBLIC	??_C@_02PPBOIJDM@60?$AA@			; `string'
PUBLIC	??_C@_02PJBJHKHI@VS?$AA@			; `string'
PUBLIC	??_C@_03NGKKNPKC@VSR?$AA@			; `string'
PUBLIC	??_C@_01JOAMLHOP@?9?$AA@			; `string'
PUBLIC	??_C@_04OHGLKFFN@?$CF03d?$AA@			; `string'
PUBLIC	??_C@_04OEOPHBDD@?$CF01d?$AA@			; `string'
PUBLIC	??_C@_05EOFIDACN@?$CF?40f?5?$AA@		; `string'
PUBLIC	??_C@_05JOALCFMH@?$CF?40fM?$AA@			; `string'
PUBLIC	??_C@_05HNPPPMAM@?$CF?40fF?$AA@			; `string'
PUBLIC	??_C@_05NEDJNGFN@A?$CF?40f?$AA@			; `string'
PUBLIC	??_C@_05IHCCEFHF@T?$CF?40f?$AA@			; `string'
PUBLIC	??_C@_05GIKHMFID@L?$CF?40f?$AA@			; `string'
PUBLIC	??_C@_04LKFIONEM@DCLT?$AA@			; `string'
PUBLIC	??_C@_03DNJPAHKI@SIM?$AA@			; `string'
PUBLIC	??_C@_03KDFFCEML@RDY?$AA@			; `string'
PUBLIC	??_C@_03JKFBEHPN@MAL?$AA@			; `string'
PUBLIC	??_C@_05DHIGAFHJ@QUIET?$AA@			; `string'
PUBLIC	??_C@_06MNODKNNC@SILENT?$AA@			; `string'
PUBLIC	??_C@_03OONHJAKL@SMS?$AA@			; `string'
PUBLIC	??_C@_04IILMDFMO@MENU?$AA@			; `string'
PUBLIC	??_C@_04NLFHDAEB@SWAP?$AA@			; `string'
PUBLIC	??_C@_04FHGBBHOC@?$CF?44s?$AA@			; `string'
PUBLIC	??_C@_04KANAGHPN@UNKN?$AA@			; `string'
PUBLIC	??_C@_02DKCKIIND@?$CFs?$AA@			; `string'
PUBLIC	??_C@_04DBNKAKHO@WAIT?$AA@			; `string'
PUBLIC	??_C@_03ELLLCI@AGR?$AA@				; `string'
PUBLIC	??_C@_02PKFBJPLJ@10?$AA@			; `string'
PUBLIC	??_C@_01HIHLOKLC@1?$AA@				; `string'
PUBLIC	?id@?$numpunct@D@std@@2V0locale@2@A		; std::numpunct<char>::id
PUBLIC	?id@?$numpunct@_W@std@@2V0locale@2@A		; std::numpunct<wchar_t>::id
PUBLIC	??_C@_0BI@CFPLBAOH@invalid?5string?5position?$AA@ ; `string'
PUBLIC	??_C@_0BA@JFNIOLAK@string?5too?5long?$AA@	; `string'
PUBLIC	??_R4error_category@std@@6B@			; std::error_category::`RTTI Complete Object Locator'
PUBLIC	??_R0?AVerror_category@std@@@8			; std::error_category `RTTI Type Descriptor'
PUBLIC	??_R3error_category@std@@8			; std::error_category::`RTTI Class Hierarchy Descriptor'
PUBLIC	??_R2error_category@std@@8			; std::error_category::`RTTI Base Class Array'
PUBLIC	??_R1A@?0A@EA@error_category@std@@8		; std::error_category::`RTTI Base Class Descriptor at (0,-1,0,64)'
PUBLIC	??_R4_Generic_error_category@std@@6B@		; std::_Generic_error_category::`RTTI Complete Object Locator'
PUBLIC	??_R0?AV_Generic_error_category@std@@@8		; std::_Generic_error_category `RTTI Type Descriptor'
PUBLIC	??_R3_Generic_error_category@std@@8		; std::_Generic_error_category::`RTTI Class Hierarchy Descriptor'
PUBLIC	??_R2_Generic_error_category@std@@8		; std::_Generic_error_category::`RTTI Base Class Array'
PUBLIC	??_R1A@?0A@EA@_Generic_error_category@std@@8	; std::_Generic_error_category::`RTTI Base Class Descriptor at (0,-1,0,64)'
PUBLIC	??_R4_Iostream_error_category@std@@6B@		; std::_Iostream_error_category::`RTTI Complete Object Locator'
PUBLIC	??_R0?AV_Iostream_error_category@std@@@8	; std::_Iostream_error_category `RTTI Type Descriptor'
PUBLIC	??_R3_Iostream_error_category@std@@8		; std::_Iostream_error_category::`RTTI Class Hierarchy Descriptor'
PUBLIC	??_R2_Iostream_error_category@std@@8		; std::_Iostream_error_category::`RTTI Base Class Array'
PUBLIC	??_R1A@?0A@EA@_Iostream_error_category@std@@8	; std::_Iostream_error_category::`RTTI Base Class Descriptor at (0,-1,0,64)'
PUBLIC	??_R4_System_error_category@std@@6B@		; std::_System_error_category::`RTTI Complete Object Locator'
PUBLIC	??_R0?AV_System_error_category@std@@@8		; std::_System_error_category `RTTI Type Descriptor'
PUBLIC	??_R3_System_error_category@std@@8		; std::_System_error_category::`RTTI Class Hierarchy Descriptor'
PUBLIC	??_R2_System_error_category@std@@8		; std::_System_error_category::`RTTI Base Class Array'
PUBLIC	??_R1A@?0A@EA@_System_error_category@std@@8	; std::_System_error_category::`RTTI Base Class Descriptor at (0,-1,0,64)'
PUBLIC	__real@00000000
PUBLIC	__real@0000000000000000
PUBLIC	__real@3a83126f
PUBLIC	__real@3ba3d70a
PUBLIC	__real@3c23d70a
PUBLIC	__real@3c75c28f
PUBLIC	__real@3c8efa34
PUBLIC	__real@3ca3d70a
PUBLIC	__real@3ccccccd
PUBLIC	__real@3cf5c28f
PUBLIC	__real@3d0f5c29
PUBLIC	__real@3d23d70a
PUBLIC	__real@3d4ccccd
PUBLIC	__real@3d75c28f
PUBLIC	__real@3d851eb8
PUBLIC	__real@3d8f5c29
PUBLIC	__real@3db020c5
PUBLIC	__real@3db851ec
PUBLIC	__real@3dcccccd
PUBLIC	__real@3de147ae
PUBLIC	__real@3e051eb8
PUBLIC	__real@3e19999a
PUBLIC	__real@3e4ccccd
PUBLIC	__real@3e4d87ab
PUBLIC	__real@3e6147ae
PUBLIC	__real@3e800000
PUBLIC	__real@3ecccccd
PUBLIC	__real@3ee66666
PUBLIC	__real@3f000000
PUBLIC	__real@3f060a91
PUBLIC	__real@3f17ac60
PUBLIC	__real@3f333333
PUBLIC	__real@3f400000
PUBLIC	__real@3f490fd9
PUBLIC	__real@3f4ccccd
PUBLIC	__real@3f50624dd2f1a9fc
PUBLIC	__real@3f59999a
PUBLIC	__real@3f600000
PUBLIC	__real@3f747647
PUBLIC	__real@3f7d70a4
PUBLIC	__real@3f800000
PUBLIC	__real@3f860a91
PUBLIC	__real@3fa47ae147ae147b
PUBLIC	__real@3fe0000000000000
PUBLIC	__real@3ff0000000000000
PUBLIC	__real@3ff33333
PUBLIC	__real@3ff921fb54442d18
PUBLIC	__real@40000000
PUBLIC	__real@40060a91
PUBLIC	__real@400921fb54442d18
PUBLIC	__real@40200000
PUBLIC	__real@4039000000000000
PUBLIC	__real@40490fd9
PUBLIC	__real@40800000
PUBLIC	__real@4096cbe3
PUBLIC	__real@40c00000
PUBLIC	__real@40c90fd9
PUBLIC	__real@41200000
PUBLIC	__real@41380000
PUBLIC	__real@41400000
PUBLIC	__real@41900000
PUBLIC	__real@42652ee1
PUBLIC	__real@42c60000
PUBLIC	__real@43b40000
PUBLIC	__real@43fa0000
PUBLIC	__real@447a0000
PUBLIC	__real@44bb8000
PUBLIC	__real@44c80000
PUBLIC	__real@459c4000
PUBLIC	__real@45bde000
PUBLIC	__real@46bde1b0
PUBLIC	__real@46ed5a1c
PUBLIC	__real@8000000000000000
PUBLIC	__real@bca3d70a
PUBLIC	__real@bccccccd
PUBLIC	__real@bcf5c28f
PUBLIC	__real@bd23d70a
PUBLIC	__real@bd4ccccd
PUBLIC	__real@bd6147ae
PUBLIC	__real@bd75c28f
PUBLIC	__real@be19999a
PUBLIC	__real@be570a3d
PUBLIC	__real@bf000000
PUBLIC	__real@bf451eb8
PUBLIC	__real@bf490fd9
PUBLIC	__real@bf4ccccd
PUBLIC	__real@bf547ae1
PUBLIC	__real@bf600000
PUBLIC	__real@bf666666
PUBLIC	__real@bf7d70a4
PUBLIC	__real@bf800000
PUBLIC	__real@bf860a91
PUBLIC	__real@bff921fb54442d18
PUBLIC	__real@c0000000
PUBLIC	__real@c039000000000000
PUBLIC	__real@c0490fd9
PUBLIC	__real@c1900000
PUBLIC	__real@c2c60000
PUBLIC	__real@c47a0000
PUBLIC	__real@c4bb8000
PUBLIC	__xmm@41f00000000000000000000000000000
PUBLIC	__xmm@80000000800000008000000080000000
EXTRN	__purecall:PROC
EXTRN	??2@YAPAXI@Z:PROC				; operator new
EXTRN	??3@YAXPAX@Z:PROC				; operator delete
EXTRN	_atexit:PROC
EXTRN	_sprintf:PROC
EXTRN	_atan:PROC
EXTRN	_cos:PROC
EXTRN	_fabs:PROC
EXTRN	_sin:PROC
EXTRN	_ceil:PROC
EXTRN	_floor:PROC
EXTRN	_memcpy:PROC
EXTRN	_strlen:PROC
EXTRN	_memmove:PROC
EXTRN	?F4IsBadCodePtr@@YA_NPAX@Z:PROC			; F4IsBadCodePtr
EXTRN	?_Xbad_alloc@std@@YAXXZ:PROC			; std::_Xbad_alloc
EXTRN	?_Xlength_error@std@@YAXPBD@Z:PROC		; std::_Xlength_error
EXTRN	?_Xout_of_range@std@@YAXPBD@Z:PROC		; std::_Xout_of_range
EXTRN	?TargetAz@@YAMPAVFalconEntity@@MM@Z:PROC	; TargetAz
EXTRN	?TargetAz@@YAMPAVFalconEntity@@PAVSimObjectType@@@Z:PROC ; TargetAz
EXTRN	?TargetEl@@YAMPAVFalconEntity@@PAVSimObjectType@@@Z:PROC ; TargetEl
EXTRN	?FindCollisionPoint@@YAHPAVSimBaseClass@@0PAUvector@@M@Z:PROC ; FindCollisionPoint
EXTRN	?LabelButton@DrawableClass@@QAEXHPAD0H@Z:PROC	; DrawableClass::LabelButton
EXTRN	?DrawBorder@DrawableClass@@QAEXXZ:PROC		; DrawableClass::DrawBorder
EXTRN	?GetButtonPos@DrawableClass@@QAEXHPAM0@Z:PROC	; DrawableClass::GetButtonPos
EXTRN	?GetMfdColor@DrawableClass@@QAEIW4MfdColor@@@Z:PROC ; DrawableClass::GetMfdColor
EXTRN	?GetAgedMfdColor@DrawableClass@@QAEIW4MfdColor@@H@Z:PROC ; DrawableClass::GetAgedMfdColor
EXTRN	?DefaultLabel@MfdDrawable@@QAEXH@Z:PROC		; MfdDrawable::DefaultLabel
EXTRN	?DrawRedBreak@MfdDrawable@@QAEXPAVVirtualDisplay@@@Z:PROC ; MfdDrawable::DrawRedBreak
EXTRN	?TGPAttitudeWarning@MfdDrawable@@QAEXPAVVirtualDisplay@@@Z:PROC ; MfdDrawable::TGPAttitudeWarning
EXTRN	?GetLocation@WayPointClass@@QBEXPAM00@Z:PROC	; WayPointClass::GetLocation
EXTRN	?DrawRCRCount@RadarDopplerClass@@QAEXXZ:PROC	; RadarDopplerClass::DrawRCRCount
EXTRN	?GMDisplay@RadarDopplerClass@@IAEXXZ:PROC	; RadarDopplerClass::GMDisplay
EXTRN	?MENUDisplay@RadarDopplerClass@@IAEXXZ:PROC	; RadarDopplerClass::MENUDisplay
EXTRN	?DropGMTrack@RadarDopplerClass@@IAEXXZ:PROC	; RadarDopplerClass::DropGMTrack
EXTRN	??_Eerror_category@std@@UAEPAXI@Z:PROC		; std::error_category::`vector deleting destructor'
EXTRN	?_Syserror_map@std@@YAPBDH@Z:PROC		; std::_Syserror_map
EXTRN	?_Winerror_map@std@@YAPBDH@Z:PROC		; std::_Winerror_map
EXTRN	??_E_Generic_error_category@std@@UAEPAXI@Z:PROC	; std::_Generic_error_category::`vector deleting destructor'
EXTRN	??_E_Iostream_error_category@std@@UAEPAXI@Z:PROC ; std::_Iostream_error_category::`vector deleting destructor'
EXTRN	??_E_System_error_category@std@@UAEPAXI@Z:PROC	; std::_System_error_category::`vector deleting destructor'
EXTRN	?AdjustOriginInViewport@VirtualDisplay@@QAEXMM@Z:PROC ; VirtualDisplay::AdjustOriginInViewport
EXTRN	?AdjustRotationAboutOrigin@VirtualDisplay@@QAEXM@Z:PROC ; VirtualDisplay::AdjustRotationAboutOrigin
EXTRN	?GetViewport@VirtualDisplay@@QAEXPAM000@Z:PROC	; VirtualDisplay::GetViewport
EXTRN	?GetBullseyeSimLocation@CampaignClass@@QAEXPAM0@Z:PROC ; CampaignClass::GetBullseyeSimLocation
EXTRN	?LastMissileWillMiss@FireControlComputer@@QAEHM@Z:PROC ; FireControlComputer::LastMissileWillMiss
EXTRN	?GetMainMasterMode@FireControlComputer@@QAE?AW4MASTERMODES@@XZ:PROC ; FireControlComputer::GetMainMasterMode
EXTRN	?Aim120ASECRadius@FireControlComputer@@QAEMM@Z:PROC ; FireControlComputer::Aim120ASECRadius
EXTRN	?SetSpotted@CampBaseClass@@QAEXEKH@Z:PROC	; CampBaseClass::SetSpotted
EXTRN	?GetPlayerAircraft@SimulationDriver@@QBEPAVAircraftClass@@XZ:PROC ; SimulationDriver::GetPlayerAircraft
EXTRN	?GetFault@FackClass@@QAEHW4type_FSubSystem@FaultClass@@@Z:PROC ; FackClass::GetFault
EXTRN	?GetFault@FackClass@@QAEHW4type_CSubSystem@@@Z:PROC ; FackClass::GetFault
EXTRN	?StationOK@SMSBaseClass@@QAEHH@Z:PROC		; SMSBaseClass::StationOK
EXTRN	?DrawBullseyeData@@YAXPAVVirtualDisplay@@MM@Z:PROC ; DrawBullseyeData
EXTRN	?DrawCursorBullseyeData@@YAXPAVVirtualDisplay@@MM@Z:PROC ; DrawCursorBullseyeData
EXTRN	?DrawBullseyeCircle@@YAXPAVVirtualDisplay@@MM@Z:PROC ; DrawBullseyeCircle
EXTRN	?DrawSteerPointCursorData@@YAXPAVVirtualDisplay@@PAVFalconEntity@@MM@Z:PROC ; DrawSteerPointCursorData
EXTRN	@__security_check_cookie@4:PROC
EXTRN	__CxxThrowException@8:PROC
EXTRN	___CxxFrameHandler3:PROC
EXTRN	?vuxRealTime@@3KA:DWORD				; vuxRealTime
EXTRN	?SimLibElapsedTime@@3KA:DWORD			; SimLibElapsedTime
EXTRN	?g_bRealisticAvionics@@3_NA:BYTE		; g_bRealisticAvionics
EXTRN	?MfdDisplay@@3PAPAVMFDClass@@A:BYTE		; MfdDisplay
EXTRN	??_7type_info@@6B@:QWORD			; type_info::`vftable'
EXTRN	?OTWDriver@@3VOTWDriverClass@@A:BYTE		; OTWDriver
EXTRN	?TheCampaign@@3VCampaignClass@@A:BYTE		; TheCampaign
EXTRN	?SimDriver@@3VSimulationDriver@@A:BYTE		; SimDriver
EXTRN	?TheHud@@3PAVHudClass@@A:DWORD			; TheHud
EXTRN	?TeamInfo@@3PAPAVTeamClass@@A:BYTE		; TeamInfo
EXTRN	?g_bEPAFRadarCues@@3_NA:BYTE			; g_bEPAFRadarCues
EXTRN	?g_bRadarJamChevrons@@3_NA:BYTE			; g_bRadarJamChevrons
EXTRN	?g_bEnableGRCursorBullseye@@3_NA:BYTE		; g_bEnableGRCursorBullseye
EXTRN	?g_fRadarScale@@3MA:DWORD			; g_fRadarScale
EXTRN	?g_bnewAMRAAMdlz@@3_NA:BYTE			; g_bnewAMRAAMdlz
EXTRN	?g_bINS@@3_NA:BYTE				; g_bINS
EXTRN	___security_cookie:DWORD
EXTRN	__fltused:DWORD
_BSS	SEGMENT
_piecewise_construct DB 01H DUP (?)
	ALIGN	4

_allocator_arg DB 01H DUP (?)
_BSS	ENDS
;	COMDAT ?_Generic_object@?$_Error_objects@H@std@@2V_Generic_error_category@2@A
_BSS	SEGMENT
?_Generic_object@?$_Error_objects@H@std@@2V_Generic_error_category@2@A DD 01H DUP (?) ; std::_Error_objects<int>::_Generic_object
_BSS	ENDS
;	COMDAT ?_Iostream_object@?$_Error_objects@H@std@@2V_Iostream_error_category@2@A
_BSS	SEGMENT
?_Iostream_object@?$_Error_objects@H@std@@2V_Iostream_error_category@2@A DD 01H DUP (?) ; std::_Error_objects<int>::_Iostream_object
_BSS	ENDS
;	COMDAT ?_System_object@?$_Error_objects@H@std@@2V_System_error_category@2@A
_BSS	SEGMENT
?_System_object@?$_Error_objects@H@std@@2V_System_error_category@2@A DD 01H DUP (?) ; std::_Error_objects<int>::_System_object
_BSS	ENDS
;	COMDAT ?id@?$num_put@DV?$back_insert_iterator@V?$basic_string@DU?$char_traits@D@std@@V?$allocator@D@2@@std@@@std@@@std@@2V0locale@2@A
_BSS	SEGMENT
?id@?$num_put@DV?$back_insert_iterator@V?$basic_string@DU?$char_traits@D@std@@V?$allocator@D@2@@std@@@std@@@std@@2V0locale@2@A DD 01H DUP (?) ; std::num_put<char,std::back_insert_iterator<std::basic_string<char,std::char_traits<char>,std::allocator<char> > > >::id
_BSS	ENDS
;	COMDAT ?id@?$num_put@_WV?$back_insert_iterator@V?$basic_string@_WU?$char_traits@_W@std@@V?$allocator@_W@2@@std@@@std@@@std@@2V0locale@2@A
_BSS	SEGMENT
?id@?$num_put@_WV?$back_insert_iterator@V?$basic_string@_WU?$char_traits@_W@std@@V?$allocator@_W@2@@std@@@std@@@std@@2V0locale@2@A DD 01H DUP (?) ; std::num_put<wchar_t,std::back_insert_iterator<std::basic_string<wchar_t,std::char_traits<wchar_t>,std::allocator<wchar_t> > > >::id
_BSS	ENDS
_BSS	SEGMENT
	ALIGN	4

_GM_OVERSCAN_RNG DD 01H DUP (?)
_GM_OVERSCAN_H DD 01H DUP (?)
_GM_OVERSCAN_V DD 01H DUP (?)
_disDeg	DD	01H DUP (?)
_elReacqMark DD	06H DUP (?)
_cursor	DD	018H DUP (?)
_BSS	ENDS
;	COMDAT ?CursorSize@?3??DrawACQCursor@RadarDopplerClass@@IAEXXZ@4MA
_BSS	SEGMENT
?CursorSize@?3??DrawACQCursor@RadarDopplerClass@@IAEXXZ@4MA DD 01H DUP (?) ; `RadarDopplerClass::DrawACQCursor'::`4'::CursorSize
_BSS	ENDS
;	COMDAT ?TextLeftPos@?6??DrawACQCursor@RadarDopplerClass@@IAEXXZ@4MA
_BSS	SEGMENT
?TextLeftPos@?6??DrawACQCursor@RadarDopplerClass@@IAEXXZ@4MA DD 01H DUP (?) ; `RadarDopplerClass::DrawACQCursor'::`7'::TextLeftPos
_BSS	ENDS
;	COMDAT ?trackTriH@?1??DrawSymbol@RadarDopplerClass@@IAEXHMHH@Z@4MB
_BSS	SEGMENT
?trackTriH@?1??DrawSymbol@RadarDopplerClass@@IAEXHMHH@Z@4MB DD 01H DUP (?) ; `RadarDopplerClass::DrawSymbol'::`2'::trackTriH
_BSS	ENDS
;	COMDAT ?$S1@?1??DrawSymbol@RadarDopplerClass@@IAEXHMHH@Z@4IA
_BSS	SEGMENT
?$S1@?1??DrawSymbol@RadarDopplerClass@@IAEXHMHH@Z@4IA DD 01H DUP (?) ; `RadarDopplerClass::DrawSymbol'::`2'::$S1
_BSS	ENDS
;	COMDAT ?trackTriV@?1??DrawSymbol@RadarDopplerClass@@IAEXHMHH@Z@4MB
_BSS	SEGMENT
?trackTriV@?1??DrawSymbol@RadarDopplerClass@@IAEXHMHH@Z@4MB DD 01H DUP (?) ; `RadarDopplerClass::DrawSymbol'::`2'::trackTriV
_BSS	ENDS
;	COMDAT ?rangeInv@?3??DrawDLZSymbol@RadarDopplerClass@@IAEXXZ@4MA
_BSS	SEGMENT
?rangeInv@?3??DrawDLZSymbol@RadarDopplerClass@@IAEXXZ@4MA DD 01H DUP (?) ; `RadarDopplerClass::DrawDLZSymbol'::`4'::rangeInv
_BSS	ENDS
;	COMDAT ?$S2@?3??DrawDLZSymbol@RadarDopplerClass@@IAEXXZ@4IA
_BSS	SEGMENT
?$S2@?3??DrawDLZSymbol@RadarDopplerClass@@IAEXXZ@4IA DD 01H DUP (?) ; `RadarDopplerClass::DrawDLZSymbol'::`4'::$S2
_BSS	ENDS
;	COMDAT ?id@?$numpunct@D@std@@2V0locale@2@A
_BSS	SEGMENT
?id@?$numpunct@D@std@@2V0locale@2@A DD 01H DUP (?)	; std::numpunct<char>::id
_BSS	ENDS
;	COMDAT ?id@?$numpunct@_W@std@@2V0locale@2@A
_BSS	SEGMENT
?id@?$numpunct@_W@std@@2V0locale@2@A DD 01H DUP (?)	; std::numpunct<wchar_t>::id
_BSS	ENDS
CRT$XCU	SEGMENT
_piecewise_construct$initializer$ DD FLAT:??__Epiecewise_construct@std@@YAXXZ
CRT$XCU	ENDS
;	COMDAT __xmm@80000000800000008000000080000000
CONST	SEGMENT
__xmm@80000000800000008000000080000000 DB 00H, 00H, 00H, 080H, 00H, 00H, 00H
	DB	080H, 00H, 00H, 00H, 080H, 00H, 00H, 00H, 080H
CONST	ENDS
;	COMDAT __xmm@41f00000000000000000000000000000
CONST	SEGMENT
__xmm@41f00000000000000000000000000000 DB 00H, 00H, 00H, 00H, 00H, 00H, 00H
	DB	00H, 00H, 00H, 00H, 00H, 00H, 00H, 0f0H, 'A'
CONST	ENDS
;	COMDAT __real@c4bb8000
CONST	SEGMENT
__real@c4bb8000 DD 0c4bb8000r			; -1500
CONST	ENDS
;	COMDAT __real@c47a0000
CONST	SEGMENT
__real@c47a0000 DD 0c47a0000r			; -1000
CONST	ENDS
;	COMDAT __real@c2c60000
CONST	SEGMENT
__real@c2c60000 DD 0c2c60000r			; -99
CONST	ENDS
;	COMDAT __real@c1900000
CONST	SEGMENT
__real@c1900000 DD 0c1900000r			; -18
CONST	ENDS
;	COMDAT __real@c0490fd9
CONST	SEGMENT
__real@c0490fd9 DD 0c0490fd9r			; -3.14159
CONST	ENDS
;	COMDAT __real@c039000000000000
CONST	SEGMENT
__real@c039000000000000 DQ 0c039000000000000r	; -25
CONST	ENDS
;	COMDAT __real@c0000000
CONST	SEGMENT
__real@c0000000 DD 0c0000000r			; -2
CONST	ENDS
;	COMDAT __real@bff921fb54442d18
CONST	SEGMENT
__real@bff921fb54442d18 DQ 0bff921fb54442d18r	; -1.5708
CONST	ENDS
;	COMDAT __real@bf860a91
CONST	SEGMENT
__real@bf860a91 DD 0bf860a91r			; -1.0472
CONST	ENDS
;	COMDAT __real@bf800000
CONST	SEGMENT
__real@bf800000 DD 0bf800000r			; -1
CONST	ENDS
;	COMDAT __real@bf7d70a4
CONST	SEGMENT
__real@bf7d70a4 DD 0bf7d70a4r			; -0.99
CONST	ENDS
;	COMDAT __real@bf666666
CONST	SEGMENT
__real@bf666666 DD 0bf666666r			; -0.9
CONST	ENDS
;	COMDAT __real@bf600000
CONST	SEGMENT
__real@bf600000 DD 0bf600000r			; -0.875
CONST	ENDS
;	COMDAT __real@bf547ae1
CONST	SEGMENT
__real@bf547ae1 DD 0bf547ae1r			; -0.83
CONST	ENDS
;	COMDAT __real@bf4ccccd
CONST	SEGMENT
__real@bf4ccccd DD 0bf4ccccdr			; -0.8
CONST	ENDS
;	COMDAT __real@bf490fd9
CONST	SEGMENT
__real@bf490fd9 DD 0bf490fd9r			; -0.785398
CONST	ENDS
;	COMDAT __real@bf451eb8
CONST	SEGMENT
__real@bf451eb8 DD 0bf451eb8r			; -0.77
CONST	ENDS
;	COMDAT __real@bf000000
CONST	SEGMENT
__real@bf000000 DD 0bf000000r			; -0.5
CONST	ENDS
;	COMDAT __real@be570a3d
CONST	SEGMENT
__real@be570a3d DD 0be570a3dr			; -0.21
CONST	ENDS
;	COMDAT __real@be19999a
CONST	SEGMENT
__real@be19999a DD 0be19999ar			; -0.15
CONST	ENDS
;	COMDAT __real@bd75c28f
CONST	SEGMENT
__real@bd75c28f DD 0bd75c28fr			; -0.06
CONST	ENDS
;	COMDAT __real@bd6147ae
CONST	SEGMENT
__real@bd6147ae DD 0bd6147aer			; -0.055
CONST	ENDS
;	COMDAT __real@bd4ccccd
CONST	SEGMENT
__real@bd4ccccd DD 0bd4ccccdr			; -0.05
CONST	ENDS
;	COMDAT __real@bd23d70a
CONST	SEGMENT
__real@bd23d70a DD 0bd23d70ar			; -0.04
CONST	ENDS
;	COMDAT __real@bcf5c28f
CONST	SEGMENT
__real@bcf5c28f DD 0bcf5c28fr			; -0.03
CONST	ENDS
;	COMDAT __real@bccccccd
CONST	SEGMENT
__real@bccccccd DD 0bccccccdr			; -0.025
CONST	ENDS
;	COMDAT __real@bca3d70a
CONST	SEGMENT
__real@bca3d70a DD 0bca3d70ar			; -0.02
CONST	ENDS
;	COMDAT __real@8000000000000000
CONST	SEGMENT
__real@8000000000000000 DQ 08000000000000000r	; -0
CONST	ENDS
;	COMDAT __real@46ed5a1c
CONST	SEGMENT
__real@46ed5a1c DD 046ed5a1cr			; 30381.1
CONST	ENDS
;	COMDAT __real@46bde1b0
CONST	SEGMENT
__real@46bde1b0 DD 046bde1b0r			; 24304.8
CONST	ENDS
;	COMDAT __real@45bde000
CONST	SEGMENT
__real@45bde000 DD 045bde000r			; 6076
CONST	ENDS
;	COMDAT __real@459c4000
CONST	SEGMENT
__real@459c4000 DD 0459c4000r			; 5000
CONST	ENDS
;	COMDAT __real@44c80000
CONST	SEGMENT
__real@44c80000 DD 044c80000r			; 1600
CONST	ENDS
;	COMDAT __real@44bb8000
CONST	SEGMENT
__real@44bb8000 DD 044bb8000r			; 1500
CONST	ENDS
;	COMDAT __real@447a0000
CONST	SEGMENT
__real@447a0000 DD 0447a0000r			; 1000
CONST	ENDS
;	COMDAT __real@43fa0000
CONST	SEGMENT
__real@43fa0000 DD 043fa0000r			; 500
CONST	ENDS
;	COMDAT __real@43b40000
CONST	SEGMENT
__real@43b40000 DD 043b40000r			; 360
CONST	ENDS
;	COMDAT __real@42c60000
CONST	SEGMENT
__real@42c60000 DD 042c60000r			; 99
CONST	ENDS
;	COMDAT __real@42652ee1
CONST	SEGMENT
__real@42652ee1 DD 042652ee1r			; 57.2958
CONST	ENDS
;	COMDAT __real@41900000
CONST	SEGMENT
__real@41900000 DD 041900000r			; 18
CONST	ENDS
;	COMDAT __real@41400000
CONST	SEGMENT
__real@41400000 DD 041400000r			; 12
CONST	ENDS
;	COMDAT __real@41380000
CONST	SEGMENT
__real@41380000 DD 041380000r			; 11.5
CONST	ENDS
;	COMDAT __real@41200000
CONST	SEGMENT
__real@41200000 DD 041200000r			; 10
CONST	ENDS
;	COMDAT __real@40c90fd9
CONST	SEGMENT
__real@40c90fd9 DD 040c90fd9r			; 6.28318
CONST	ENDS
;	COMDAT __real@40c00000
CONST	SEGMENT
__real@40c00000 DD 040c00000r			; 6
CONST	ENDS
;	COMDAT __real@4096cbe3
CONST	SEGMENT
__real@4096cbe3 DD 04096cbe3r			; 4.71239
CONST	ENDS
;	COMDAT __real@40800000
CONST	SEGMENT
__real@40800000 DD 040800000r			; 4
CONST	ENDS
;	COMDAT __real@40490fd9
CONST	SEGMENT
__real@40490fd9 DD 040490fd9r			; 3.14159
CONST	ENDS
;	COMDAT __real@4039000000000000
CONST	SEGMENT
__real@4039000000000000 DQ 04039000000000000r	; 25
CONST	ENDS
;	COMDAT __real@40200000
CONST	SEGMENT
__real@40200000 DD 040200000r			; 2.5
CONST	ENDS
;	COMDAT __real@400921fb54442d18
CONST	SEGMENT
__real@400921fb54442d18 DQ 0400921fb54442d18r	; 3.14159
CONST	ENDS
;	COMDAT __real@40060a91
CONST	SEGMENT
__real@40060a91 DD 040060a91r			; 2.09439
CONST	ENDS
;	COMDAT __real@40000000
CONST	SEGMENT
__real@40000000 DD 040000000r			; 2
CONST	ENDS
;	COMDAT __real@3ff921fb54442d18
CONST	SEGMENT
__real@3ff921fb54442d18 DQ 03ff921fb54442d18r	; 1.5708
CONST	ENDS
;	COMDAT __real@3ff33333
CONST	SEGMENT
__real@3ff33333 DD 03ff33333r			; 1.9
CONST	ENDS
;	COMDAT __real@3ff0000000000000
CONST	SEGMENT
__real@3ff0000000000000 DQ 03ff0000000000000r	; 1
CONST	ENDS
;	COMDAT __real@3fe0000000000000
CONST	SEGMENT
__real@3fe0000000000000 DQ 03fe0000000000000r	; 0.5
CONST	ENDS
;	COMDAT __real@3fa47ae147ae147b
CONST	SEGMENT
__real@3fa47ae147ae147b DQ 03fa47ae147ae147br	; 0.04
CONST	ENDS
;	COMDAT __real@3f860a91
CONST	SEGMENT
__real@3f860a91 DD 03f860a91r			; 1.0472
CONST	ENDS
;	COMDAT __real@3f800000
CONST	SEGMENT
__real@3f800000 DD 03f800000r			; 1
CONST	ENDS
;	COMDAT __real@3f7d70a4
CONST	SEGMENT
__real@3f7d70a4 DD 03f7d70a4r			; 0.99
CONST	ENDS
;	COMDAT __real@3f747647
CONST	SEGMENT
__real@3f747647 DD 03f747647r			; 0.95493
CONST	ENDS
;	COMDAT __real@3f600000
CONST	SEGMENT
__real@3f600000 DD 03f600000r			; 0.875
CONST	ENDS
;	COMDAT __real@3f59999a
CONST	SEGMENT
__real@3f59999a DD 03f59999ar			; 0.85
CONST	ENDS
;	COMDAT __real@3f50624dd2f1a9fc
CONST	SEGMENT
__real@3f50624dd2f1a9fc DQ 03f50624dd2f1a9fcr	; 0.001
CONST	ENDS
;	COMDAT __real@3f4ccccd
CONST	SEGMENT
__real@3f4ccccd DD 03f4ccccdr			; 0.8
CONST	ENDS
;	COMDAT __real@3f490fd9
CONST	SEGMENT
__real@3f490fd9 DD 03f490fd9r			; 0.785398
CONST	ENDS
;	COMDAT __real@3f400000
CONST	SEGMENT
__real@3f400000 DD 03f400000r			; 0.75
CONST	ENDS
;	COMDAT __real@3f333333
CONST	SEGMENT
__real@3f333333 DD 03f333333r			; 0.7
CONST	ENDS
;	COMDAT __real@3f17ac60
CONST	SEGMENT
__real@3f17ac60 DD 03f17ac60r			; 0.592474
CONST	ENDS
;	COMDAT __real@3f060a91
CONST	SEGMENT
__real@3f060a91 DD 03f060a91r			; 0.523599
CONST	ENDS
;	COMDAT __real@3f000000
CONST	SEGMENT
__real@3f000000 DD 03f000000r			; 0.5
CONST	ENDS
;	COMDAT __real@3ee66666
CONST	SEGMENT
__real@3ee66666 DD 03ee66666r			; 0.45
CONST	ENDS
;	COMDAT __real@3ecccccd
CONST	SEGMENT
__real@3ecccccd DD 03ecccccdr			; 0.4
CONST	ENDS
;	COMDAT __real@3e800000
CONST	SEGMENT
__real@3e800000 DD 03e800000r			; 0.25
CONST	ENDS
;	COMDAT __real@3e6147ae
CONST	SEGMENT
__real@3e6147ae DD 03e6147aer			; 0.22
CONST	ENDS
;	COMDAT __real@3e4d87ab
CONST	SEGMENT
__real@3e4d87ab DD 03e4d87abr			; 0.200713
CONST	ENDS
;	COMDAT __real@3e4ccccd
CONST	SEGMENT
__real@3e4ccccd DD 03e4ccccdr			; 0.2
CONST	ENDS
;	COMDAT __real@3e19999a
CONST	SEGMENT
__real@3e19999a DD 03e19999ar			; 0.15
CONST	ENDS
;	COMDAT __real@3e051eb8
CONST	SEGMENT
__real@3e051eb8 DD 03e051eb8r			; 0.13
CONST	ENDS
;	COMDAT __real@3de147ae
CONST	SEGMENT
__real@3de147ae DD 03de147aer			; 0.11
CONST	ENDS
;	COMDAT __real@3dcccccd
CONST	SEGMENT
__real@3dcccccd DD 03dcccccdr			; 0.1
CONST	ENDS
;	COMDAT __real@3db851ec
CONST	SEGMENT
__real@3db851ec DD 03db851ecr			; 0.09
CONST	ENDS
;	COMDAT __real@3db020c5
CONST	SEGMENT
__real@3db020c5 DD 03db020c5r			; 0.086
CONST	ENDS
;	COMDAT __real@3d8f5c29
CONST	SEGMENT
__real@3d8f5c29 DD 03d8f5c29r			; 0.07
CONST	ENDS
;	COMDAT __real@3d851eb8
CONST	SEGMENT
__real@3d851eb8 DD 03d851eb8r			; 0.065
CONST	ENDS
;	COMDAT __real@3d75c28f
CONST	SEGMENT
__real@3d75c28f DD 03d75c28fr			; 0.06
CONST	ENDS
;	COMDAT __real@3d4ccccd
CONST	SEGMENT
__real@3d4ccccd DD 03d4ccccdr			; 0.05
CONST	ENDS
;	COMDAT __real@3d23d70a
CONST	SEGMENT
__real@3d23d70a DD 03d23d70ar			; 0.04
CONST	ENDS
;	COMDAT __real@3d0f5c29
CONST	SEGMENT
__real@3d0f5c29 DD 03d0f5c29r			; 0.035
CONST	ENDS
;	COMDAT __real@3cf5c28f
CONST	SEGMENT
__real@3cf5c28f DD 03cf5c28fr			; 0.03
CONST	ENDS
;	COMDAT __real@3ccccccd
CONST	SEGMENT
__real@3ccccccd DD 03ccccccdr			; 0.025
CONST	ENDS
;	COMDAT __real@3ca3d70a
CONST	SEGMENT
__real@3ca3d70a DD 03ca3d70ar			; 0.02
CONST	ENDS
;	COMDAT __real@3c8efa34
CONST	SEGMENT
__real@3c8efa34 DD 03c8efa34r			; 0.0174533
CONST	ENDS
;	COMDAT __real@3c75c28f
CONST	SEGMENT
__real@3c75c28f DD 03c75c28fr			; 0.015
CONST	ENDS
;	COMDAT __real@3c23d70a
CONST	SEGMENT
__real@3c23d70a DD 03c23d70ar			; 0.01
CONST	ENDS
;	COMDAT __real@3ba3d70a
CONST	SEGMENT
__real@3ba3d70a DD 03ba3d70ar			; 0.005
CONST	ENDS
;	COMDAT __real@3a83126f
CONST	SEGMENT
__real@3a83126f DD 03a83126fr			; 0.001
CONST	ENDS
;	COMDAT __real@0000000000000000
CONST	SEGMENT
__real@0000000000000000 DQ 00000000000000000r	; 0
CONST	ENDS
;	COMDAT __real@00000000
CONST	SEGMENT
__real@00000000 DD 000000000r			; 0
CONST	ENDS
;	COMDAT ??_R1A@?0A@EA@_System_error_category@std@@8
rdata$r	SEGMENT
??_R1A@?0A@EA@_System_error_category@std@@8 DD FLAT:??_R0?AV_System_error_category@std@@@8 ; std::_System_error_category::`RTTI Base Class Descriptor at (0,-1,0,64)'
	DD	02H
	DD	00H
	DD	0ffffffffH
	DD	00H
	DD	040H
	DD	FLAT:??_R3_System_error_category@std@@8
rdata$r	ENDS
;	COMDAT ??_R2_System_error_category@std@@8
rdata$r	SEGMENT
??_R2_System_error_category@std@@8 DD FLAT:??_R1A@?0A@EA@_System_error_category@std@@8 ; std::_System_error_category::`RTTI Base Class Array'
	DD	FLAT:??_R1A@?0A@EA@_Generic_error_category@std@@8
	DD	FLAT:??_R1A@?0A@EA@error_category@std@@8
rdata$r	ENDS
;	COMDAT ??_R3_System_error_category@std@@8
rdata$r	SEGMENT
??_R3_System_error_category@std@@8 DD 00H		; std::_System_error_category::`RTTI Class Hierarchy Descriptor'
	DD	00H
	DD	03H
	DD	FLAT:??_R2_System_error_category@std@@8
rdata$r	ENDS
;	COMDAT ??_R0?AV_System_error_category@std@@@8
_DATA	SEGMENT
??_R0?AV_System_error_category@std@@@8 DD FLAT:??_7type_info@@6B@ ; std::_System_error_category `RTTI Type Descriptor'
	DD	00H
	DB	'.?AV_System_error_category@std@@', 00H
_DATA	ENDS
;	COMDAT ??_R4_System_error_category@std@@6B@
rdata$r	SEGMENT
??_R4_System_error_category@std@@6B@ DD 00H		; std::_System_error_category::`RTTI Complete Object Locator'
	DD	00H
	DD	00H
	DD	FLAT:??_R0?AV_System_error_category@std@@@8
	DD	FLAT:??_R3_System_error_category@std@@8
rdata$r	ENDS
;	COMDAT ??_R1A@?0A@EA@_Iostream_error_category@std@@8
rdata$r	SEGMENT
??_R1A@?0A@EA@_Iostream_error_category@std@@8 DD FLAT:??_R0?AV_Iostream_error_category@std@@@8 ; std::_Iostream_error_category::`RTTI Base Class Descriptor at (0,-1,0,64)'
	DD	02H
	DD	00H
	DD	0ffffffffH
	DD	00H
	DD	040H
	DD	FLAT:??_R3_Iostream_error_category@std@@8
rdata$r	ENDS
;	COMDAT ??_R2_Iostream_error_category@std@@8
rdata$r	SEGMENT
??_R2_Iostream_error_category@std@@8 DD FLAT:??_R1A@?0A@EA@_Iostream_error_category@std@@8 ; std::_Iostream_error_category::`RTTI Base Class Array'
	DD	FLAT:??_R1A@?0A@EA@_Generic_error_category@std@@8
	DD	FLAT:??_R1A@?0A@EA@error_category@std@@8
rdata$r	ENDS
;	COMDAT ??_R3_Iostream_error_category@std@@8
rdata$r	SEGMENT
??_R3_Iostream_error_category@std@@8 DD 00H		; std::_Iostream_error_category::`RTTI Class Hierarchy Descriptor'
	DD	00H
	DD	03H
	DD	FLAT:??_R2_Iostream_error_category@std@@8
rdata$r	ENDS
;	COMDAT ??_R0?AV_Iostream_error_category@std@@@8
_DATA	SEGMENT
??_R0?AV_Iostream_error_category@std@@@8 DD FLAT:??_7type_info@@6B@ ; std::_Iostream_error_category `RTTI Type Descriptor'
	DD	00H
	DB	'.?AV_Iostream_error_category@std@@', 00H
_DATA	ENDS
;	COMDAT ??_R4_Iostream_error_category@std@@6B@
rdata$r	SEGMENT
??_R4_Iostream_error_category@std@@6B@ DD 00H		; std::_Iostream_error_category::`RTTI Complete Object Locator'
	DD	00H
	DD	00H
	DD	FLAT:??_R0?AV_Iostream_error_category@std@@@8
	DD	FLAT:??_R3_Iostream_error_category@std@@8
rdata$r	ENDS
;	COMDAT ??_R1A@?0A@EA@_Generic_error_category@std@@8
rdata$r	SEGMENT
??_R1A@?0A@EA@_Generic_error_category@std@@8 DD FLAT:??_R0?AV_Generic_error_category@std@@@8 ; std::_Generic_error_category::`RTTI Base Class Descriptor at (0,-1,0,64)'
	DD	01H
	DD	00H
	DD	0ffffffffH
	DD	00H
	DD	040H
	DD	FLAT:??_R3_Generic_error_category@std@@8
rdata$r	ENDS
;	COMDAT ??_R2_Generic_error_category@std@@8
rdata$r	SEGMENT
??_R2_Generic_error_category@std@@8 DD FLAT:??_R1A@?0A@EA@_Generic_error_category@std@@8 ; std::_Generic_error_category::`RTTI Base Class Array'
	DD	FLAT:??_R1A@?0A@EA@error_category@std@@8
rdata$r	ENDS
;	COMDAT ??_R3_Generic_error_category@std@@8
rdata$r	SEGMENT
??_R3_Generic_error_category@std@@8 DD 00H		; std::_Generic_error_category::`RTTI Class Hierarchy Descriptor'
	DD	00H
	DD	02H
	DD	FLAT:??_R2_Generic_error_category@std@@8
rdata$r	ENDS
;	COMDAT ??_R0?AV_Generic_error_category@std@@@8
_DATA	SEGMENT
??_R0?AV_Generic_error_category@std@@@8 DD FLAT:??_7type_info@@6B@ ; std::_Generic_error_category `RTTI Type Descriptor'
	DD	00H
	DB	'.?AV_Generic_error_category@std@@', 00H
_DATA	ENDS
;	COMDAT ??_R4_Generic_error_category@std@@6B@
rdata$r	SEGMENT
??_R4_Generic_error_category@std@@6B@ DD 00H		; std::_Generic_error_category::`RTTI Complete Object Locator'
	DD	00H
	DD	00H
	DD	FLAT:??_R0?AV_Generic_error_category@std@@@8
	DD	FLAT:??_R3_Generic_error_category@std@@8
rdata$r	ENDS
;	COMDAT ??_R1A@?0A@EA@error_category@std@@8
rdata$r	SEGMENT
??_R1A@?0A@EA@error_category@std@@8 DD FLAT:??_R0?AVerror_category@std@@@8 ; std::error_category::`RTTI Base Class Descriptor at (0,-1,0,64)'
	DD	00H
	DD	00H
	DD	0ffffffffH
	DD	00H
	DD	040H
	DD	FLAT:??_R3error_category@std@@8
rdata$r	ENDS
;	COMDAT ??_R2error_category@std@@8
rdata$r	SEGMENT
??_R2error_category@std@@8 DD FLAT:??_R1A@?0A@EA@error_category@std@@8 ; std::error_category::`RTTI Base Class Array'
rdata$r	ENDS
;	COMDAT ??_R3error_category@std@@8
rdata$r	SEGMENT
??_R3error_category@std@@8 DD 00H			; std::error_category::`RTTI Class Hierarchy Descriptor'
	DD	00H
	DD	01H
	DD	FLAT:??_R2error_category@std@@8
rdata$r	ENDS
;	COMDAT ??_R0?AVerror_category@std@@@8
_DATA	SEGMENT
??_R0?AVerror_category@std@@@8 DD FLAT:??_7type_info@@6B@ ; std::error_category `RTTI Type Descriptor'
	DD	00H
	DB	'.?AVerror_category@std@@', 00H
_DATA	ENDS
;	COMDAT ??_R4error_category@std@@6B@
rdata$r	SEGMENT
??_R4error_category@std@@6B@ DD 00H			; std::error_category::`RTTI Complete Object Locator'
	DD	00H
	DD	00H
	DD	FLAT:??_R0?AVerror_category@std@@@8
	DD	FLAT:??_R3error_category@std@@8
rdata$r	ENDS
;	COMDAT ??_C@_0BA@JFNIOLAK@string?5too?5long?$AA@
CONST	SEGMENT
??_C@_0BA@JFNIOLAK@string?5too?5long?$AA@ DB 'string too long', 00H ; `string'
CONST	ENDS
;	COMDAT ??_C@_0BI@CFPLBAOH@invalid?5string?5position?$AA@
CONST	SEGMENT
??_C@_0BI@CFPLBAOH@invalid?5string?5position?$AA@ DB 'invalid string posi'
	DB	'tion', 00H					; `string'
CONST	ENDS
;	COMDAT ??_C@_01HIHLOKLC@1?$AA@
CONST	SEGMENT
??_C@_01HIHLOKLC@1?$AA@ DB '1', 00H			; `string'
CONST	ENDS
;	COMDAT ??_C@_02PKFBJPLJ@10?$AA@
CONST	SEGMENT
??_C@_02PKFBJPLJ@10?$AA@ DB '10', 00H			; `string'
CONST	ENDS
;	COMDAT ?OverLap@?6??AGRangingDisplay@RadarDopplerClass@@IAEXXZ@4MB
CONST	SEGMENT
?OverLap@?6??AGRangingDisplay@RadarDopplerClass@@IAEXXZ@4MB DD 03bf5c28fr ; 0.0075 ; `RadarDopplerClass::AGRangingDisplay'::`7'::OverLap
CONST	ENDS
;	COMDAT ?MinPos@?6??AGRangingDisplay@RadarDopplerClass@@IAEXXZ@4MB
CONST	SEGMENT
?MinPos@?6??AGRangingDisplay@RadarDopplerClass@@IAEXXZ@4MB DD 03c75c28fr ; 0.015 ; `RadarDopplerClass::AGRangingDisplay'::`7'::MinPos
CONST	ENDS
;	COMDAT ?MaxPos@?6??AGRangingDisplay@RadarDopplerClass@@IAEXXZ@4MB
CONST	SEGMENT
?MaxPos@?6??AGRangingDisplay@RadarDopplerClass@@IAEXXZ@4MB DD 03d3851ecr ; 0.045 ; `RadarDopplerClass::AGRangingDisplay'::`7'::MaxPos
CONST	ENDS
;	COMDAT ??_C@_03ELLLCI@AGR?$AA@
CONST	SEGMENT
??_C@_03ELLLCI@AGR?$AA@ DB 'AGR', 00H			; `string'
CONST	ENDS
;	COMDAT ??_C@_04DBNKAKHO@WAIT?$AA@
CONST	SEGMENT
??_C@_04DBNKAKHO@WAIT?$AA@ DB 'WAIT', 00H		; `string'
CONST	ENDS
;	COMDAT ??_C@_02DKCKIIND@?$CFs?$AA@
CONST	SEGMENT
??_C@_02DKCKIIND@?$CFs?$AA@ DB '%s', 00H		; `string'
CONST	ENDS
;	COMDAT ??_C@_04KANAGHPN@UNKN?$AA@
CONST	SEGMENT
??_C@_04KANAGHPN@UNKN?$AA@ DB 'UNKN', 00H		; `string'
CONST	ENDS
;	COMDAT ??_C@_04FHGBBHOC@?$CF?44s?$AA@
CONST	SEGMENT
??_C@_04FHGBBHOC@?$CF?44s?$AA@ DB '%.4s', 00H		; `string'
CONST	ENDS
;	COMDAT ??_C@_04NLFHDAEB@SWAP?$AA@
CONST	SEGMENT
??_C@_04NLFHDAEB@SWAP?$AA@ DB 'SWAP', 00H		; `string'
CONST	ENDS
;	COMDAT ??_C@_04IILMDFMO@MENU?$AA@
CONST	SEGMENT
??_C@_04IILMDFMO@MENU?$AA@ DB 'MENU', 00H		; `string'
CONST	ENDS
;	COMDAT ??_C@_03OONHJAKL@SMS?$AA@
CONST	SEGMENT
??_C@_03OONHJAKL@SMS?$AA@ DB 'SMS', 00H			; `string'
CONST	ENDS
;	COMDAT ??_C@_06MNODKNNC@SILENT?$AA@
CONST	SEGMENT
??_C@_06MNODKNNC@SILENT?$AA@ DB 'SILENT', 00H		; `string'
CONST	ENDS
;	COMDAT ??_C@_05DHIGAFHJ@QUIET?$AA@
CONST	SEGMENT
??_C@_05DHIGAFHJ@QUIET?$AA@ DB 'QUIET', 00H		; `string'
CONST	ENDS
;	COMDAT ??_C@_03JKFBEHPN@MAL?$AA@
CONST	SEGMENT
??_C@_03JKFBEHPN@MAL?$AA@ DB 'MAL', 00H			; `string'
CONST	ENDS
;	COMDAT ??_C@_03KDFFCEML@RDY?$AA@
CONST	SEGMENT
??_C@_03KDFFCEML@RDY?$AA@ DB 'RDY', 00H			; `string'
CONST	ENDS
;	COMDAT ??_C@_03DNJPAHKI@SIM?$AA@
CONST	SEGMENT
??_C@_03DNJPAHKI@SIM?$AA@ DB 'SIM', 00H			; `string'
CONST	ENDS
;	COMDAT ??_C@_04LKFIONEM@DCLT?$AA@
CONST	SEGMENT
??_C@_04LKFIONEM@DCLT?$AA@ DB 'DCLT', 00H		; `string'
CONST	ENDS
;	COMDAT ??_C@_05GIKHMFID@L?$CF?40f?$AA@
CONST	SEGMENT
??_C@_05GIKHMFID@L?$CF?40f?$AA@ DB 'L%.0f', 00H		; `string'
CONST	ENDS
;	COMDAT ??_C@_05IHCCEFHF@T?$CF?40f?$AA@
CONST	SEGMENT
??_C@_05IHCCEFHF@T?$CF?40f?$AA@ DB 'T%.0f', 00H		; `string'
CONST	ENDS
;	COMDAT ??_C@_05NEDJNGFN@A?$CF?40f?$AA@
CONST	SEGMENT
??_C@_05NEDJNGFN@A?$CF?40f?$AA@ DB 'A%.0f', 00H		; `string'
CONST	ENDS
;	COMDAT ??_C@_05HNPPPMAM@?$CF?40fF?$AA@
CONST	SEGMENT
??_C@_05HNPPPMAM@?$CF?40fF?$AA@ DB '%.0fF', 00H		; `string'
CONST	ENDS
;	COMDAT ??_C@_05JOALCFMH@?$CF?40fM?$AA@
CONST	SEGMENT
??_C@_05JOALCFMH@?$CF?40fM?$AA@ DB '%.0fM', 00H		; `string'
CONST	ENDS
;	COMDAT ??_C@_05EOFIDACN@?$CF?40f?5?$AA@
CONST	SEGMENT
??_C@_05EOFIDACN@?$CF?40f?5?$AA@ DB '%.0f ', 00H	; `string'
CONST	ENDS
;	COMDAT ?height@?3??DrawDLZSymbol@RadarDopplerClass@@IAEXXZ@4MA
_DATA	SEGMENT
?height@?3??DrawDLZSymbol@RadarDopplerClass@@IAEXXZ@4MA DD 03fb33333r ; 1.4 ; `RadarDopplerClass::DrawDLZSymbol'::`4'::height
_DATA	ENDS
;	COMDAT ?width@?3??DrawDLZSymbol@RadarDopplerClass@@IAEXXZ@4MA
_DATA	SEGMENT
?width@?3??DrawDLZSymbol@RadarDopplerClass@@IAEXXZ@4MA DD 03dcccccdr ; 0.1 ; `RadarDopplerClass::DrawDLZSymbol'::`4'::width
_DATA	ENDS
;	COMDAT ?bottomEdge@?3??DrawDLZSymbol@RadarDopplerClass@@IAEXXZ@4MA
_DATA	SEGMENT
?bottomEdge@?3??DrawDLZSymbol@RadarDopplerClass@@IAEXXZ@4MA DD 0bf000000r ; -0.5 ; `RadarDopplerClass::DrawDLZSymbol'::`4'::bottomEdge
_DATA	ENDS
;	COMDAT ?rightEdge@?3??DrawDLZSymbol@RadarDopplerClass@@IAEXXZ@4MA
_DATA	SEGMENT
?rightEdge@?3??DrawDLZSymbol@RadarDopplerClass@@IAEXXZ@4MA DD 03f666666r ; 0.9 ; `RadarDopplerClass::DrawDLZSymbol'::`4'::rightEdge
_DATA	ENDS
;	COMDAT ?leftEdge@?3??DrawDLZSymbol@RadarDopplerClass@@IAEXXZ@4MA
_DATA	SEGMENT
?leftEdge@?3??DrawDLZSymbol@RadarDopplerClass@@IAEXXZ@4MA DD 03f6147aer ; 0.88 ; `RadarDopplerClass::DrawDLZSymbol'::`4'::leftEdge
_DATA	ENDS
;	COMDAT ?OverLap@?BE@??DrawCollisionSteering@RadarDopplerClass@@IAEXPAVSimObjectType@@M@Z@4MB
CONST	SEGMENT
?OverLap@?BE@??DrawCollisionSteering@RadarDopplerClass@@IAEXPAVSimObjectType@@M@Z@4MB DD 03bf5c28fr ; 0.0075 ; `RadarDopplerClass::DrawCollisionSteering'::`20'::OverLap
CONST	ENDS
;	COMDAT ?MinPos@?BE@??DrawCollisionSteering@RadarDopplerClass@@IAEXPAVSimObjectType@@M@Z@4MB
CONST	SEGMENT
?MinPos@?BE@??DrawCollisionSteering@RadarDopplerClass@@IAEXPAVSimObjectType@@M@Z@4MB DD 03c75c28fr ; 0.015 ; `RadarDopplerClass::DrawCollisionSteering'::`20'::MinPos
CONST	ENDS
;	COMDAT ?MaxPos@?BE@??DrawCollisionSteering@RadarDopplerClass@@IAEXPAVSimObjectType@@M@Z@4MB
CONST	SEGMENT
?MaxPos@?BE@??DrawCollisionSteering@RadarDopplerClass@@IAEXPAVSimObjectType@@M@Z@4MB DD 03d3851ecr ; 0.045 ; `RadarDopplerClass::DrawCollisionSteering'::`20'::MaxPos
CONST	ENDS
;	COMDAT ?trackScale@?1??DrawSymbol@RadarDopplerClass@@IAEXHMHH@Z@4MB
CONST	SEGMENT
?trackScale@?1??DrawSymbol@RadarDopplerClass@@IAEXHMHH@Z@4MB DD 03dcccccdr ; 0.1 ; `RadarDopplerClass::DrawSymbol'::`2'::trackScale
CONST	ENDS
;	COMDAT ?hitSizeH@?1??DrawSymbol@RadarDopplerClass@@IAEXHMHH@Z@4MB
CONST	SEGMENT
?hitSizeH@?1??DrawSymbol@RadarDopplerClass@@IAEXHMHH@Z@4MB DD 03dcccccdr ; 0.1 ; `RadarDopplerClass::DrawSymbol'::`2'::hitSizeH
CONST	ENDS
;	COMDAT ?hitSizeW@?1??DrawSymbol@RadarDopplerClass@@IAEXHMHH@Z@4MB
CONST	SEGMENT
?hitSizeW@?1??DrawSymbol@RadarDopplerClass@@IAEXHMHH@Z@4MB DD 03da3d70ar ; 0.08 ; `RadarDopplerClass::DrawSymbol'::`2'::hitSizeW
CONST	ENDS
;	COMDAT ?jamNewDelta@?1??DrawSymbol@RadarDopplerClass@@IAEXHMHH@Z@4MB
CONST	SEGMENT
?jamNewDelta@?1??DrawSymbol@RadarDopplerClass@@IAEXHMHH@Z@4MB DD 03d75c28fr ; 0.06 ; `RadarDopplerClass::DrawSymbol'::`2'::jamNewDelta
CONST	ENDS
;	COMDAT ?jamNewSizeV@?1??DrawSymbol@RadarDopplerClass@@IAEXHMHH@Z@4MB
CONST	SEGMENT
?jamNewSizeV@?1??DrawSymbol@RadarDopplerClass@@IAEXHMHH@Z@4MB DD 03d23d70ar ; 0.04 ; `RadarDopplerClass::DrawSymbol'::`2'::jamNewSizeV
CONST	ENDS
;	COMDAT ?jamNewSizeH@?1??DrawSymbol@RadarDopplerClass@@IAEXHMHH@Z@4MB
CONST	SEGMENT
?jamNewSizeH@?1??DrawSymbol@RadarDopplerClass@@IAEXHMHH@Z@4MB DD 03d75c28fr ; 0.06 ; `RadarDopplerClass::DrawSymbol'::`2'::jamNewSizeH
CONST	ENDS
;	COMDAT ?jamSizeH@?1??DrawSymbol@RadarDopplerClass@@IAEXHMHH@Z@4MB
CONST	SEGMENT
?jamSizeH@?1??DrawSymbol@RadarDopplerClass@@IAEXHMHH@Z@4MB DD 03e23d70ar ; 0.16 ; `RadarDopplerClass::DrawSymbol'::`2'::jamSizeH
CONST	ENDS
;	COMDAT ?jamSizeW@?1??DrawSymbol@RadarDopplerClass@@IAEXHMHH@Z@4MB
CONST	SEGMENT
?jamSizeW@?1??DrawSymbol@RadarDopplerClass@@IAEXHMHH@Z@4MB DD 03df5c28fr ; 0.12 ; `RadarDopplerClass::DrawSymbol'::`2'::jamSizeW
CONST	ENDS
;	COMDAT ?tgtSize@?1??DrawSymbol@RadarDopplerClass@@IAEXHMHH@Z@4MB
CONST	SEGMENT
?tgtSize@?1??DrawSymbol@RadarDopplerClass@@IAEXHMHH@Z@4MB DD 03d23d70ar ; 0.04 ; `RadarDopplerClass::DrawSymbol'::`2'::tgtSize
CONST	ENDS
;	COMDAT ??_C@_04OEOPHBDD@?$CF01d?$AA@
CONST	SEGMENT
??_C@_04OEOPHBDD@?$CF01d?$AA@ DB '%01d', 00H		; `string'
CONST	ENDS
;	COMDAT ??_C@_04OHGLKFFN@?$CF03d?$AA@
CONST	SEGMENT
??_C@_04OHGLKFFN@?$CF03d?$AA@ DB '%03d', 00H		; `string'
CONST	ENDS
;	COMDAT ??_C@_01JOAMLHOP@?9?$AA@
CONST	SEGMENT
??_C@_01JOAMLHOP@?9?$AA@ DB '-', 00H			; `string'
CONST	ENDS
;	COMDAT ??_C@_03NGKKNPKC@VSR?$AA@
CONST	SEGMENT
??_C@_03NGKKNPKC@VSR?$AA@ DB 'VSR', 00H			; `string'
CONST	ENDS
;	COMDAT ??_C@_02PJBJHKHI@VS?$AA@
CONST	SEGMENT
??_C@_02PJBJHKHI@VS?$AA@ DB 'VS', 00H			; `string'
CONST	ENDS
;	COMDAT ??_C@_02PPBOIJDM@60?$AA@
CONST	SEGMENT
??_C@_02PPBOIJDM@60?$AA@ DB '60', 00H			; `string'
CONST	ENDS
;	COMDAT ??_C@_04DKKPAKDO@BORE?$AA@
CONST	SEGMENT
??_C@_04DKKPAKDO@BORE?$AA@ DB 'BORE', 00H		; `string'
CONST	ENDS
;	COMDAT ??_C@_04BEAHNOME@SLEW?$AA@
CONST	SEGMENT
??_C@_04BEAHNOME@SLEW?$AA@ DB 'SLEW', 00H		; `string'
CONST	ENDS
;	COMDAT ??_C@_02PIBHCBOA@20?$AA@
CONST	SEGMENT
??_C@_02PIBHCBOA@20?$AA@ DB '20', 00H			; `string'
CONST	ENDS
;	COMDAT ??_C@_07BGJOHMOK@?$CL?$CF03?40f?$AA@
CONST	SEGMENT
??_C@_07BGJOHMOK@?$CL?$CF03?40f?$AA@ DB '+%03.0f', 00H	; `string'
CONST	ENDS
;	COMDAT ??_C@_06EKMMACPN@?$CF03?40f?$AA@
CONST	SEGMENT
??_C@_06EKMMACPN@?$CF03?40f?$AA@ DB '%03.0f', 00H	; `string'
CONST	ENDS
;	COMDAT ??_C@_08JJDNADML@?$CF02?40f?$CFc?$AA@
CONST	SEGMENT
??_C@_08JJDNADML@?$CF02?40f?$CFc?$AA@ DB '%02.0f%c', 00H ; `string'
CONST	ENDS
;	COMDAT ??_C@_04OGKJMPGK@?$CF02d?$AA@
CONST	SEGMENT
??_C@_04OGKJMPGK@?$CF02d?$AA@ DB '%02d', 00H		; `string'
CONST	ENDS
;	COMDAT ??_C@_04IEFNNOGI@LOSE?$AA@
CONST	SEGMENT
??_C@_04IEFNNOGI@LOSE?$AA@ DB 'LOSE', 00H		; `string'
CONST	ENDS
;	COMDAT ??_C@_04NAGNMPFG@SCAN?$AA@
CONST	SEGMENT
??_C@_04NAGNMPFG@SCAN?$AA@ DB 'SCAN', 00H		; `string'
CONST	ENDS
;	COMDAT ??_C@_04EECJBCEN@CTNL?$AA@
CONST	SEGMENT
??_C@_04EECJBCEN@CTNL?$AA@ DB 'CTNL', 00H		; `string'
CONST	ENDS
;	COMDAT ??_C@_04DHIGGNDH@NORM?$AA@
CONST	SEGMENT
??_C@_04DHIGGNDH@NORM?$AA@ DB 'NORM', 00H		; `string'
CONST	ENDS
;	COMDAT ??_C@_03KKGFKKLA@EXP?$AA@
CONST	SEGMENT
??_C@_03KKGFKKLA@EXP?$AA@ DB 'EXP', 00H			; `string'
CONST	ENDS
;	COMDAT ??_C@_03PBNHDDCP@LRS?$AA@
CONST	SEGMENT
??_C@_03PBNHDDCP@LRS?$AA@ DB 'LRS', 00H			; `string'
CONST	ENDS
;	COMDAT ??_C@_03HNPFBMKG@CRM?$AA@
CONST	SEGMENT
??_C@_03HNPFBMKG@CRM?$AA@ DB 'CRM', 00H			; `string'
CONST	ENDS
;	COMDAT ?arrowW@?1??DrawRangeArrows@RadarDopplerClass@@IAEXXZ@4MB
CONST	SEGMENT
?arrowW@?1??DrawRangeArrows@RadarDopplerClass@@IAEXXZ@4MB DD 03d315b57r ; 0.0433 ; `RadarDopplerClass::DrawRangeArrows'::`2'::arrowW
CONST	ENDS
;	COMDAT ?arrowH@?1??DrawRangeArrows@RadarDopplerClass@@IAEXXZ@4MB
CONST	SEGMENT
?arrowH@?1??DrawRangeArrows@RadarDopplerClass@@IAEXXZ@4MB DD 03d19999ar ; 0.0375 ; `RadarDopplerClass::DrawRangeArrows'::`2'::arrowH
CONST	ENDS
;	COMDAT ?Hstop@?1??DrawRangeTicks@RadarDopplerClass@@IAEXXZ@4MB
CONST	SEGMENT
?Hstop@?1??DrawRangeTicks@RadarDopplerClass@@IAEXXZ@4MB DD 03f7ae148r ; 0.98 ; `RadarDopplerClass::DrawRangeTicks'::`2'::Hstop
CONST	ENDS
;	COMDAT ?Hstart@?1??DrawRangeTicks@RadarDopplerClass@@IAEXXZ@4MB
CONST	SEGMENT
?Hstart@?1??DrawRangeTicks@RadarDopplerClass@@IAEXXZ@4MB DD 03f666666r ; 0.9 ; `RadarDopplerClass::DrawRangeTicks'::`2'::Hstart
CONST	ENDS
;	COMDAT ?width@?O@??DrawScanMarkers@RadarDopplerClass@@IAEXXZ@4MB
CONST	SEGMENT
?width@?O@??DrawScanMarkers@RadarDopplerClass@@IAEXXZ@4MB DD 03ca3d70ar ; 0.02 ; `RadarDopplerClass::DrawScanMarkers'::`14'::width
CONST	ENDS
;	COMDAT ?width@?8??DrawScanMarkers@RadarDopplerClass@@IAEXXZ@4MB
CONST	SEGMENT
?width@?8??DrawScanMarkers@RadarDopplerClass@@IAEXXZ@4MB DD 03ca3d70ar ; 0.02 ; `RadarDopplerClass::DrawScanMarkers'::`9'::width
CONST	ENDS
;	COMDAT ?Height@?1??DrawWaterline@RadarDopplerClass@@IAEXXZ@4MB
CONST	SEGMENT
?Height@?1??DrawWaterline@RadarDopplerClass@@IAEXXZ@4MB DD 03d23d70ar ; 0.04 ; `RadarDopplerClass::DrawWaterline'::`2'::Height
CONST	ENDS
;	COMDAT ?OutsideEdge@?1??DrawWaterline@RadarDopplerClass@@IAEXXZ@4MB
CONST	SEGMENT
?OutsideEdge@?1??DrawWaterline@RadarDopplerClass@@IAEXXZ@4MB DD 03ecccccdr ; 0.4 ; `RadarDopplerClass::DrawWaterline'::`2'::OutsideEdge
CONST	ENDS
;	COMDAT ?InsideEdge@?1??DrawWaterline@RadarDopplerClass@@IAEXXZ@4MB
CONST	SEGMENT
?InsideEdge@?1??DrawWaterline@RadarDopplerClass@@IAEXXZ@4MB DD 03da3d70ar ; 0.08 ; `RadarDopplerClass::DrawWaterline'::`2'::InsideEdge
CONST	ENDS
;	COMDAT ??_C@_01FHEEJDEE@A?$AA@
CONST	SEGMENT
??_C@_01FHEEJDEE@A?$AA@ DB 'A', 00H			; `string'
CONST	ENDS
;	COMDAT ??_C@_04GHNNFJCK@?$CF?40f?$AA@
CONST	SEGMENT
??_C@_04GHNNFJCK@?$CF?40f?$AA@ DB '%.0f', 00H		; `string'
CONST	ENDS
;	COMDAT ??_C@_01HMGJMAIH@B?$AA@
CONST	SEGMENT
??_C@_01HMGJMAIH@B?$AA@ DB 'B', 00H			; `string'
CONST	ENDS
;	COMDAT ??_C@_03GCLBIOLE@TWS?$AA@
CONST	SEGMENT
??_C@_03GCLBIOLE@TWS?$AA@ DB 'TWS', 00H			; `string'
CONST	ENDS
;	COMDAT ??_C@_03EHNKNBGI@RWS?$AA@
CONST	SEGMENT
??_C@_03EHNKNBGI@RWS?$AA@ DB 'RWS', 00H			; `string'
CONST	ENDS
;	COMDAT ??_C@_03MLKDMENG@VS?5?$AA@
CONST	SEGMENT
??_C@_03MLKDMENG@VS?5?$AA@ DB 'VS ', 00H		; `string'
CONST	ENDS
;	COMDAT ??_C@_03MKBIBNGK@ACM?$AA@
CONST	SEGMENT
??_C@_03MKBIBNGK@ACM?$AA@ DB 'ACM', 00H			; `string'
CONST	ENDS
;	COMDAT ??_C@_03JIDALBMA@SEA?$AA@
CONST	SEGMENT
??_C@_03JIDALBMA@SEA?$AA@ DB 'SEA', 00H			; `string'
CONST	ENDS
;	COMDAT ??_C@_03HOONMGKE@GMT?$AA@
CONST	SEGMENT
??_C@_03HOONMGKE@GMT?$AA@ DB 'GMT', 00H			; `string'
CONST	ENDS
;	COMDAT ??_C@_03DFLOHKFG@GM?5?$AA@
CONST	SEGMENT
??_C@_03DFLOHKFG@GM?5?$AA@ DB 'GM ', 00H		; `string'
CONST	ENDS
;	COMDAT ??_C@_03NGANFLJH@STP?$AA@
CONST	SEGMENT
??_C@_03NGANFLJH@STP?$AA@ DB 'STP', 00H			; `string'
CONST	ENDS
;	COMDAT ??_C@_02NEPPOLFA@SP?$AA@
CONST	SEGMENT
??_C@_02NEPPOLFA@SP?$AA@ DB 'SP', 00H			; `string'
CONST	ENDS
;	COMDAT ??_C@_02DCDGKAKK@CZ?$AA@
CONST	SEGMENT
??_C@_02DCDGKAKK@CZ?$AA@ DB 'CZ', 00H			; `string'
CONST	ENDS
;	COMDAT ??_C@_04CAJPJFIH@BARO?$AA@
CONST	SEGMENT
??_C@_04CAJPJFIH@BARO?$AA@ DB 'BARO', 00H		; `string'
CONST	ENDS
;	COMDAT ??_C@_04GKDMIDBA@CNTL?$AA@
CONST	SEGMENT
??_C@_04GKDMIDBA@CNTL?$AA@ DB 'CNTL', 00H		; `string'
CONST	ENDS
;	COMDAT ??_C@_04PGDFOHNL@OVRD?$AA@
CONST	SEGMENT
??_C@_04PGDFOHNL@OVRD?$AA@ DB 'OVRD', 00H		; `string'
CONST	ENDS
;	COMDAT ??_C@_04BKGGJKLP@STBY?$AA@
CONST	SEGMENT
??_C@_04BKGGJKLP@STBY?$AA@ DB 'STBY', 00H		; `string'
CONST	ENDS
;	COMDAT ??_C@_03MPPIHBHJ@OFF?$AA@
CONST	SEGMENT
??_C@_03MPPIHBHJ@OFF?$AA@ DB 'OFF', 00H			; `string'
CONST	ENDS
;	COMDAT ??_C@_06MNCBBDMH@NO?5RAD?$AA@
CONST	SEGMENT
??_C@_06MNCBBDMH@NO?5RAD?$AA@ DB 'NO RAD', 00H		; `string'
CONST	ENDS
;	COMDAT ??_C@_07MBJCAOMB@NOT?5SOI?$AA@
CONST	SEGMENT
??_C@_07MBJCAOMB@NOT?5SOI?$AA@ DB 'NOT SOI', 00H	; `string'
CONST	ENDS
;	COMDAT ??_C@_02PMJKFNFC@40?$AA@
CONST	SEGMENT
??_C@_02PMJKFNFC@40?$AA@ DB '40', 00H			; `string'
CONST	ENDS
;	COMDAT ??_C@_02DPKJAMEF@?$CFd?$AA@
CONST	SEGMENT
??_C@_02DPKJAMEF@?$CFd?$AA@ DB '%d', 00H		; `string'
CONST	ENDS
;	COMDAT ??_C@_06FHFOAHML@system?$AA@
CONST	SEGMENT
??_C@_06FHFOAHML@system?$AA@ DB 'system', 00H		; `string'
CONST	ENDS
;	COMDAT ??_7_System_error_category@std@@6B@
CONST	SEGMENT
??_7_System_error_category@std@@6B@ DD FLAT:??_R4_System_error_category@std@@6B@ ; std::_System_error_category::`vftable'
	DD	FLAT:??_E_System_error_category@std@@UAEPAXI@Z
	DD	FLAT:?name@_System_error_category@std@@UBEPBDXZ
	DD	FLAT:?message@_System_error_category@std@@UBE?AV?$basic_string@DU?$char_traits@D@std@@V?$allocator@D@2@@2@H@Z
	DD	FLAT:?default_error_condition@_System_error_category@std@@UBE?AVerror_condition@2@H@Z
	DD	FLAT:?equivalent@error_category@std@@UBE_NABVerror_code@2@H@Z
	DD	FLAT:?equivalent@error_category@std@@UBE_NHABVerror_condition@2@@Z
CONST	ENDS
;	COMDAT ??_C@_0BG@PADBLCHM@iostream?5stream?5error?$AA@
CONST	SEGMENT
??_C@_0BG@PADBLCHM@iostream?5stream?5error?$AA@ DB 'iostream stream error'
	DB	00H						; `string'
CONST	ENDS
;	COMDAT ??_C@_08LLGCOLLL@iostream?$AA@
CONST	SEGMENT
??_C@_08LLGCOLLL@iostream?$AA@ DB 'iostream', 00H	; `string'
CONST	ENDS
;	COMDAT ??_7_Iostream_error_category@std@@6B@
CONST	SEGMENT
??_7_Iostream_error_category@std@@6B@ DD FLAT:??_R4_Iostream_error_category@std@@6B@ ; std::_Iostream_error_category::`vftable'
	DD	FLAT:??_E_Iostream_error_category@std@@UAEPAXI@Z
	DD	FLAT:?name@_Iostream_error_category@std@@UBEPBDXZ
	DD	FLAT:?message@_Iostream_error_category@std@@UBE?AV?$basic_string@DU?$char_traits@D@std@@V?$allocator@D@2@@2@H@Z
	DD	FLAT:?default_error_condition@error_category@std@@UBE?AVerror_condition@2@H@Z
	DD	FLAT:?equivalent@error_category@std@@UBE_NABVerror_code@2@H@Z
	DD	FLAT:?equivalent@error_category@std@@UBE_NHABVerror_condition@2@@Z
CONST	ENDS
;	COMDAT ??_C@_0O@BFJCFAAK@unknown?5error?$AA@
CONST	SEGMENT
??_C@_0O@BFJCFAAK@unknown?5error?$AA@ DB 'unknown error', 00H ; `string'
CONST	ENDS
;	COMDAT ??_C@_07DCLBNMLN@generic?$AA@
CONST	SEGMENT
??_C@_07DCLBNMLN@generic?$AA@ DB 'generic', 00H		; `string'
CONST	ENDS
;	COMDAT ??_7_Generic_error_category@std@@6B@
CONST	SEGMENT
??_7_Generic_error_category@std@@6B@ DD FLAT:??_R4_Generic_error_category@std@@6B@ ; std::_Generic_error_category::`vftable'
	DD	FLAT:??_E_Generic_error_category@std@@UAEPAXI@Z
	DD	FLAT:?name@_Generic_error_category@std@@UBEPBDXZ
	DD	FLAT:?message@_Generic_error_category@std@@UBE?AV?$basic_string@DU?$char_traits@D@std@@V?$allocator@D@2@@2@H@Z
	DD	FLAT:?default_error_condition@error_category@std@@UBE?AVerror_condition@2@H@Z
	DD	FLAT:?equivalent@error_category@std@@UBE_NABVerror_code@2@H@Z
	DD	FLAT:?equivalent@error_category@std@@UBE_NHABVerror_condition@2@@Z
CONST	ENDS
;	COMDAT ??_7error_category@std@@6B@
CONST	SEGMENT
??_7error_category@std@@6B@ DD FLAT:??_R4error_category@std@@6B@ ; std::error_category::`vftable'
	DD	FLAT:??_Eerror_category@std@@UAEPAXI@Z
	DD	FLAT:__purecall
	DD	FLAT:__purecall
	DD	FLAT:?default_error_condition@error_category@std@@UBE?AVerror_condition@2@H@Z
	DD	FLAT:?equivalent@error_category@std@@UBE_NABVerror_code@2@H@Z
	DD	FLAT:?equivalent@error_category@std@@UBE_NHABVerror_condition@2@@Z
CONST	ENDS
;	COMDAT ??_C@_00CNPNBAHC@?$AA@
CONST	SEGMENT
??_C@_00CNPNBAHC@?$AA@ DB 00H				; `string'
CONST	ENDS
;	COMDAT xdata$x
xdata$x	SEGMENT
__unwindtable$??$construct@PADAAPAD@?$allocator@D@std@@QAEXPAPADAAPAD@Z DD 0ffffffffH
	DD	FLAT:__unwindfunclet$??$construct@PADAAPAD@?$allocator@D@std@@QAEXPAPADAAPAD@Z$0
__ehfuncinfo$??$construct@PADAAPAD@?$allocator@D@std@@QAEXPAPADAAPAD@Z DD 019930522H
	DD	01H
	DD	FLAT:__unwindtable$??$construct@PADAAPAD@?$allocator@D@std@@QAEXPAPADAAPAD@Z
	DD	2 DUP(00H)
	DD	2 DUP(00H)
	DD	00H
	DD	01H
xdata$x	ENDS
xdata$x	SEGMENT
__unwindtable$?DrawSymbol@RadarDopplerClass@@IAEXHMHH@Z DD 0ffffffffH
	DD	FLAT:__unwindfunclet$?DrawSymbol@RadarDopplerClass@@IAEXHMHH@Z$0
	DD	0ffffffffH
	DD	FLAT:__unwindfunclet$?DrawSymbol@RadarDopplerClass@@IAEXHMHH@Z$1
__ehfuncinfo$?DrawSymbol@RadarDopplerClass@@IAEXHMHH@Z DD 019930522H
	DD	02H
	DD	FLAT:__unwindtable$?DrawSymbol@RadarDopplerClass@@IAEXHMHH@Z
	DD	2 DUP(00H)
	DD	2 DUP(00H)
	DD	00H
	DD	01H
xdata$x	ENDS
;	COMDAT xdata$x
xdata$x	SEGMENT
__catchsym$?_Copy@?$basic_string@DU?$char_traits@D@std@@V?$allocator@D@2@@std@@QAEXII@Z$5 DD 040H
	DD	00H
	DD	00H
	DD	FLAT:__catch$?_Copy@?$basic_string@DU?$char_traits@D@std@@V?$allocator@D@2@@std@@QAEXII@Z$0
__catchsym$?_Copy@?$basic_string@DU?$char_traits@D@std@@V?$allocator@D@2@@std@@QAEXII@Z$4 DD 040H
	DD	00H
	DD	00H
	DD	FLAT:__catch$?_Copy@?$basic_string@DU?$char_traits@D@std@@V?$allocator@D@2@@std@@QAEXII@Z$1
__unwindtable$?_Copy@?$basic_string@DU?$char_traits@D@std@@V?$allocator@D@2@@std@@QAEXII@Z DD 0ffffffffH
	DD	00H
	DD	0ffffffffH
	DD	00H
	DD	01H
	DD	00H
	DD	01H
	DD	00H
__ehfuncinfo$?_Copy@?$basic_string@DU?$char_traits@D@std@@V?$allocator@D@2@@std@@QAEXII@Z DD 019930522H
	DD	04H
	DD	FLAT:__unwindtable$?_Copy@?$basic_string@DU?$char_traits@D@std@@V?$allocator@D@2@@std@@QAEXII@Z
	DD	02H
	DD	FLAT:__tryblocktable$?_Copy@?$basic_string@DU?$char_traits@D@std@@V?$allocator@D@2@@std@@QAEXII@Z
	DD	2 DUP(00H)
	DD	00H
	DD	01H
__tryblocktable$?_Copy@?$basic_string@DU?$char_traits@D@std@@V?$allocator@D@2@@std@@QAEXII@Z DD 02H
	DD	02H
	DD	03H
	DD	01H
	DD	FLAT:__catchsym$?_Copy@?$basic_string@DU?$char_traits@D@std@@V?$allocator@D@2@@std@@QAEXII@Z$4
	DD	00H
	DD	00H
	DD	03H
	DD	01H
	DD	FLAT:__catchsym$?_Copy@?$basic_string@DU?$char_traits@D@std@@V?$allocator@D@2@@std@@QAEXII@Z$5
xdata$x	ENDS
CRT$XCU	SEGMENT
_allocator_arg$initializer$ DD FLAT:??__Eallocator_arg@std@@YAXXZ
CRT$XCU	ENDS
CRT$XCU	SEGMENT
_GM_OVERSCAN_RNG$initializer$ DD FLAT:??__EGM_OVERSCAN_RNG@@YAXXZ
CRT$XCU	ENDS
CRT$XCU	SEGMENT
_GM_OVERSCAN_H$initializer$ DD FLAT:??__EGM_OVERSCAN_H@@YAXXZ
CRT$XCU	ENDS
CRT$XCU	SEGMENT
_GM_OVERSCAN_V$initializer$ DD FLAT:??__EGM_OVERSCAN_V@@YAXXZ
CRT$XCU	ENDS
;	COMDAT CRT$XCU
CRT$XCU	SEGMENT
?_Generic_object$initializer$@?$_Error_objects@H@std@@2P6AXXZA DD FLAT:??__E?_Generic_object@?$_Error_objects@H@std@@2V_Generic_error_category@2@A@@YAXXZ ; std::_Error_objects<int>::_Generic_object$initializer$
CRT$XCU	ENDS
;	COMDAT CRT$XCU
CRT$XCU	SEGMENT
?_Iostream_object$initializer$@?$_Error_objects@H@std@@2P6AXXZA DD FLAT:??__E?_Iostream_object@?$_Error_objects@H@std@@2V_Iostream_error_category@2@A@@YAXXZ ; std::_Error_objects<int>::_Iostream_object$initializer$
CRT$XCU	ENDS
;	COMDAT CRT$XCU
CRT$XCU	SEGMENT
?_System_object$initializer$@?$_Error_objects@H@std@@2P6AXXZA DD FLAT:??__E?_System_object@?$_Error_objects@H@std@@2V_System_error_category@2@A@@YAXXZ ; std::_Error_objects<int>::_System_object$initializer$
CRT$XCU	ENDS
;	COMDAT CRT$XCU
CRT$XCU	SEGMENT
?id$initializer$@?$num_put@DV?$back_insert_iterator@V?$basic_string@DU?$char_traits@D@std@@V?$allocator@D@2@@std@@@std@@@std@@2P6AXXZA DD FLAT:??__E?id@?$num_put@DV?$back_insert_iterator@V?$basic_string@DU?$char_traits@D@std@@V?$allocator@D@2@@std@@@std@@@std@@2V0locale@2@A@@YAXXZ ; std::num_put<char,std::back_insert_iterator<std::basic_string<char,std::char_traits<char>,std::allocator<char> > > >::id$initializer$
CRT$XCU	ENDS
;	COMDAT CRT$XCU
CRT$XCU	SEGMENT
?id$initializer$@?$num_put@_WV?$back_insert_iterator@V?$basic_string@_WU?$char_traits@_W@std@@V?$allocator@_W@2@@std@@@std@@@std@@2P6AXXZA DD FLAT:??__E?id@?$num_put@_WV?$back_insert_iterator@V?$basic_string@_WU?$char_traits@_W@std@@V?$allocator@_W@2@@std@@@std@@@std@@2V0locale@2@A@@YAXXZ ; std::num_put<wchar_t,std::back_insert_iterator<std::basic_string<wchar_t,std::char_traits<wchar_t>,std::allocator<wchar_t> > > >::id$initializer$
CRT$XCU	ENDS
;	COMDAT CRT$XCU
CRT$XCU	SEGMENT
?id$initializer$@?$numpunct@D@std@@2P6AXXZA DD FLAT:??__E?id@?$numpunct@D@std@@2V0locale@2@A@@YAXXZ ; std::numpunct<char>::id$initializer$
CRT$XCU	ENDS
;	COMDAT CRT$XCU
CRT$XCU	SEGMENT
?id$initializer$@?$numpunct@_W@std@@2P6AXXZA DD FLAT:??__E?id@?$numpunct@_W@std@@2V0locale@2@A@@YAXXZ ; std::numpunct<wchar_t>::id$initializer$
CRT$XCU	ENDS
; Function compile flags: /Odtp
; File c:\program files (x86)\microsoft visual studio 11.0\vc\include\xmemory0
;	COMDAT ??$destroy@PAD@?$allocator@D@std@@QAEXPAPAD@Z
_TEXT	SEGMENT
_this$ = -4						; size = 4
__Ptr$ = 8						; size = 4
??$destroy@PAD@?$allocator@D@std@@QAEXPAPAD@Z PROC	; std::allocator<char>::destroy<char *>, COMDAT
; _this$ = ecx

; 621  : 		void destroy(_Uty *_Ptr)

	push	ebp
	mov	ebp, esp
	push	ecx
	mov	DWORD PTR _this$[ebp], ecx

; 622  : 		{	// destroy object at _Ptr
; 623  : 		_Ptr->~_Uty();
; 624  : 		}

	mov	esp, ebp
	pop	ebp
	ret	4
??$destroy@PAD@?$allocator@D@std@@QAEXPAPAD@Z ENDP	; std::allocator<char>::destroy<char *>
_TEXT	ENDS
; Function compile flags: /Odtp
; File c:\program files (x86)\microsoft visual studio 11.0\vc\include\xmemory0
;	COMDAT ??$construct@PADAAPAD@?$allocator@D@std@@QAEXPAPADAAPAD@Z
_TEXT	SEGMENT
$T2 = -28						; size = 4
_this$ = -24						; size = 4
tv73 = -20						; size = 4
$T3 = -16						; size = 4
__$EHRec$ = -12						; size = 12
__Ptr$ = 8						; size = 4
__V0$ = 12						; size = 4
??$construct@PADAAPAD@?$allocator@D@std@@QAEXPAPADAAPAD@Z PROC ; std::allocator<char>::construct<char *,char * &>, COMDAT
; _this$ = ecx

; 617  : _VARIADIC_EXPAND_0X(_ALLOC_MEMBER_CONSTRUCT, , , , )

	push	ebp
	mov	ebp, esp
	push	-1
	push	__ehhandler$??$construct@PADAAPAD@?$allocator@D@std@@QAEXPAPADAAPAD@Z
	mov	eax, DWORD PTR fs:0
	push	eax
	sub	esp, 16					; 00000010H
	mov	eax, DWORD PTR ___security_cookie
	xor	eax, ebp
	push	eax
	lea	eax, DWORD PTR __$EHRec$[ebp]
	mov	DWORD PTR fs:0, eax
	mov	DWORD PTR _this$[ebp], ecx
	mov	eax, DWORD PTR __Ptr$[ebp]
	push	eax
	push	4
	call	??2@YAPAXIPAX@Z				; operator new
	add	esp, 8
	mov	DWORD PTR $T3[ebp], eax
	mov	DWORD PTR __$EHRec$[ebp+8], 0
	cmp	DWORD PTR $T3[ebp], 0
	je	SHORT $LN3@construct
	mov	ecx, DWORD PTR __V0$[ebp]
	push	ecx
	call	??$forward@AAPAD@std@@YAAAPADAAPAD@Z	; std::forward<char * &>
	add	esp, 4
	mov	edx, DWORD PTR $T3[ebp]
	mov	eax, DWORD PTR [eax]
	mov	DWORD PTR [edx], eax
	mov	ecx, DWORD PTR $T3[ebp]
	mov	DWORD PTR tv73[ebp], ecx
	jmp	SHORT $LN4@construct
$LN3@construct:
	mov	DWORD PTR tv73[ebp], 0
$LN4@construct:
	mov	edx, DWORD PTR tv73[ebp]
	mov	DWORD PTR $T2[ebp], edx
	mov	DWORD PTR __$EHRec$[ebp+8], -1
	mov	ecx, DWORD PTR __$EHRec$[ebp]
	mov	DWORD PTR fs:0, ecx
	pop	ecx
	mov	esp, ebp
	pop	ebp
	ret	8
_TEXT	ENDS
;	COMDAT text$x
text$x	SEGMENT
__unwindfunclet$??$construct@PADAAPAD@?$allocator@D@std@@QAEXPAPADAAPAD@Z$0:
	mov	eax, DWORD PTR __Ptr$[ebp]
	push	eax
	mov	eax, DWORD PTR $T3[ebp]
	push	eax
	call	??3@YAXPAX0@Z				; operator delete
	add	esp, 8
	ret	0
__ehhandler$??$construct@PADAAPAD@?$allocator@D@std@@QAEXPAPADAAPAD@Z:
	mov	edx, DWORD PTR [esp+8]
	lea	eax, DWORD PTR [edx+12]
	mov	ecx, DWORD PTR [edx-20]
	xor	ecx, eax
	call	@__security_check_cookie@4
	mov	eax, OFFSET __ehfuncinfo$??$construct@PADAAPAD@?$allocator@D@std@@QAEXPAPADAAPAD@Z
	jmp	___CxxFrameHandler3
text$x	ENDS
??$construct@PADAAPAD@?$allocator@D@std@@QAEXPAPADAAPAD@Z ENDP ; std::allocator<char>::construct<char *,char * &>
; Function compile flags: /Odtp
; File c:\program files (x86)\microsoft visual studio 11.0\vc\include\xlocnum
;	COMDAT ??__E?id@?$numpunct@_W@std@@2V0locale@2@A@@YAXXZ
text$yc	SEGMENT
??__E?id@?$numpunct@_W@std@@2V0locale@2@A@@YAXXZ PROC	; `dynamic initializer for 'std::numpunct<wchar_t>::id'', COMDAT

; 155  : 		void _Getvals(wchar_t, const lconv *_Ptr, _Locinfo::_Cvtvec)

	push	ebp
	mov	ebp, esp
	push	0
	mov	ecx, OFFSET ?id@?$numpunct@_W@std@@2V0locale@2@A ; std::numpunct<wchar_t>::id
	call	??0id@locale@std@@QAE@I@Z		; std::locale::id::id
	pop	ebp
	ret	0
??__E?id@?$numpunct@_W@std@@2V0locale@2@A@@YAXXZ ENDP	; `dynamic initializer for 'std::numpunct<wchar_t>::id''
text$yc	ENDS
; Function compile flags: /Odtp
; File c:\program files (x86)\microsoft visual studio 11.0\vc\include\xlocnum
;	COMDAT ??__E?id@?$numpunct@D@std@@2V0locale@2@A@@YAXXZ
text$yc	SEGMENT
??__E?id@?$numpunct@D@std@@2V0locale@2@A@@YAXXZ PROC	; `dynamic initializer for 'std::numpunct<char>::id'', COMDAT

; 155  : 		void _Getvals(wchar_t, const lconv *_Ptr, _Locinfo::_Cvtvec)

	push	ebp
	mov	ebp, esp
	push	0
	mov	ecx, OFFSET ?id@?$numpunct@D@std@@2V0locale@2@A ; std::numpunct<char>::id
	call	??0id@locale@std@@QAE@I@Z		; std::locale::id::id
	pop	ebp
	ret	0
??__E?id@?$numpunct@D@std@@2V0locale@2@A@@YAXXZ ENDP	; `dynamic initializer for 'std::numpunct<char>::id''
text$yc	ENDS
; Function compile flags: /Odtp
; File c:\program files (x86)\microsoft visual studio 11.0\vc\include\xlocnum
;	COMDAT ??__E?id@?$num_put@_WV?$back_insert_iterator@V?$basic_string@_WU?$char_traits@_W@std@@V?$allocator@_W@2@@std@@@std@@@std@@2V0locale@2@A@@YAXXZ
text$yc	SEGMENT
??__E?id@?$num_put@_WV?$back_insert_iterator@V?$basic_string@_WU?$char_traits@_W@std@@V?$allocator@_W@2@@std@@@std@@@std@@2V0locale@2@A@@YAXXZ PROC ; `dynamic initializer for 'std::num_put<wchar_t,std::back_insert_iterator<std::basic_string<wchar_t,std::char_traits<wchar_t>,std::allocator<wchar_t> > > >::id'', COMDAT

; 155  : 		void _Getvals(wchar_t, const lconv *_Ptr, _Locinfo::_Cvtvec)

	push	ebp
	mov	ebp, esp
	push	0
	mov	ecx, OFFSET ?id@?$num_put@_WV?$back_insert_iterator@V?$basic_string@_WU?$char_traits@_W@std@@V?$allocator@_W@2@@std@@@std@@@std@@2V0locale@2@A ; std::num_put<wchar_t,std::back_insert_iterator<std::basic_string<wchar_t,std::char_traits<wchar_t>,std::allocator<wchar_t> > > >::id
	call	??0id@locale@std@@QAE@I@Z		; std::locale::id::id
	pop	ebp
	ret	0
??__E?id@?$num_put@_WV?$back_insert_iterator@V?$basic_string@_WU?$char_traits@_W@std@@V?$allocator@_W@2@@std@@@std@@@std@@2V0locale@2@A@@YAXXZ ENDP ; `dynamic initializer for 'std::num_put<wchar_t,std::back_insert_iterator<std::basic_string<wchar_t,std::char_traits<wchar_t>,std::allocator<wchar_t> > > >::id''
text$yc	ENDS
; Function compile flags: /Odtp
; File c:\program files (x86)\microsoft visual studio 11.0\vc\include\xlocnum
;	COMDAT ??__E?id@?$num_put@DV?$back_insert_iterator@V?$basic_string@DU?$char_traits@D@std@@V?$allocator@D@2@@std@@@std@@@std@@2V0locale@2@A@@YAXXZ
text$yc	SEGMENT
??__E?id@?$num_put@DV?$back_insert_iterator@V?$basic_string@DU?$char_traits@D@std@@V?$allocator@D@2@@std@@@std@@@std@@2V0locale@2@A@@YAXXZ PROC ; `dynamic initializer for 'std::num_put<char,std::back_insert_iterator<std::basic_string<char,std::char_traits<char>,std::allocator<char> > > >::id'', COMDAT

; 155  : 		void _Getvals(wchar_t, const lconv *_Ptr, _Locinfo::_Cvtvec)

	push	ebp
	mov	ebp, esp
	push	0
	mov	ecx, OFFSET ?id@?$num_put@DV?$back_insert_iterator@V?$basic_string@DU?$char_traits@D@std@@V?$allocator@D@2@@std@@@std@@@std@@2V0locale@2@A ; std::num_put<char,std::back_insert_iterator<std::basic_string<char,std::char_traits<char>,std::allocator<char> > > >::id
	call	??0id@locale@std@@QAE@I@Z		; std::locale::id::id
	pop	ebp
	ret	0
??__E?id@?$num_put@DV?$back_insert_iterator@V?$basic_string@DU?$char_traits@D@std@@V?$allocator@D@2@@std@@@std@@@std@@2V0locale@2@A@@YAXXZ ENDP ; `dynamic initializer for 'std::num_put<char,std::back_insert_iterator<std::basic_string<char,std::char_traits<char>,std::allocator<char> > > >::id''
text$yc	ENDS
; Function compile flags: /Odtp
; File c:\program files (x86)\microsoft visual studio 11.0\vc\include\xmemory0
;	COMDAT ??$destroy@PAD@?$allocator_traits@V?$allocator@D@std@@@std@@SAXAAV?$allocator@D@1@PAPAD@Z
_TEXT	SEGMENT
__Al$ = 8						; size = 4
__Ptr$ = 12						; size = 4
??$destroy@PAD@?$allocator_traits@V?$allocator@D@std@@@std@@SAXAAV?$allocator@D@1@PAPAD@Z PROC ; std::allocator_traits<std::allocator<char> >::destroy<char *>, COMDAT

; 755  : 		static void destroy(_Alloc& _Al, _Uty *_Ptr)

	push	ebp
	mov	ebp, esp

; 756  : 		{	// destroy object at _Ptr
; 757  : 		_Al.destroy(_Ptr);

	mov	eax, DWORD PTR __Ptr$[ebp]
	push	eax
	mov	ecx, DWORD PTR __Al$[ebp]
	call	??$destroy@PAD@?$allocator@D@std@@QAEXPAPAD@Z ; std::allocator<char>::destroy<char *>

; 758  : 		}

	pop	ebp
	ret	0
??$destroy@PAD@?$allocator_traits@V?$allocator@D@std@@@std@@SAXAAV?$allocator@D@1@PAPAD@Z ENDP ; std::allocator_traits<std::allocator<char> >::destroy<char *>
_TEXT	ENDS
; Function compile flags: /Odtp
; File c:\program files (x86)\microsoft visual studio 11.0\vc\include\xmemory0
;	COMDAT ??$construct@PADAAPAD@?$allocator_traits@V?$allocator@D@std@@@std@@SAXAAV?$allocator@D@1@PAPADAAPAD@Z
_TEXT	SEGMENT
__Al$ = 8						; size = 4
__Ptr$ = 12						; size = 4
__V0$ = 16						; size = 4
??$construct@PADAAPAD@?$allocator_traits@V?$allocator@D@std@@@std@@SAXAAV?$allocator@D@1@PAPADAAPAD@Z PROC ; std::allocator_traits<std::allocator<char> >::construct<char *,char * &>, COMDAT

; 751  : _VARIADIC_EXPAND_0X(_ALLOC_TRAITS_SPECIAL_CONSTRUCT, , , , )

	push	ebp
	mov	ebp, esp
	mov	eax, DWORD PTR __V0$[ebp]
	push	eax
	call	??$forward@AAPAD@std@@YAAAPADAAPAD@Z	; std::forward<char * &>
	add	esp, 4
	push	eax
	mov	ecx, DWORD PTR __Ptr$[ebp]
	push	ecx
	mov	ecx, DWORD PTR __Al$[ebp]
	call	??$construct@PADAAPAD@?$allocator@D@std@@QAEXPAPADAAPAD@Z ; std::allocator<char>::construct<char *,char * &>
	pop	ebp
	ret	0
??$construct@PADAAPAD@?$allocator_traits@V?$allocator@D@std@@@std@@SAXAAV?$allocator@D@1@PAPADAAPAD@Z ENDP ; std::allocator_traits<std::allocator<char> >::construct<char *,char * &>
_TEXT	ENDS
; Function compile flags: /Odtp
; File c:\program files (x86)\microsoft visual studio 11.0\vc\include\type_traits
;	COMDAT ??$forward@AAPAD@std@@YAAAPADAAPAD@Z
_TEXT	SEGMENT
__Arg$ = 8						; size = 4
??$forward@AAPAD@std@@YAAAPADAAPAD@Z PROC		; std::forward<char * &>, COMDAT

; 1775 : 	{	// forward an lvalue

	push	ebp
	mov	ebp, esp

; 1776 : 	return (static_cast<_Ty&&>(_Arg));

	mov	eax, DWORD PTR __Arg$[ebp]

; 1777 : 	}

	pop	ebp
	ret	0
??$forward@AAPAD@std@@YAAAPADAAPAD@Z ENDP		; std::forward<char * &>
_TEXT	ENDS
; Function compile flags: /Odtp
;	COMDAT ??__F?_System_object@?$_Error_objects@H@std@@2V_System_error_category@2@A@@YAXXZ
text$yd	SEGMENT
??__F?_System_object@?$_Error_objects@H@std@@2V_System_error_category@2@A@@YAXXZ PROC ; `dynamic atexit destructor for 'std::_Error_objects<int>::_System_object'', COMDAT
	push	ebp
	mov	ebp, esp
	mov	ecx, OFFSET ?_System_object@?$_Error_objects@H@std@@2V_System_error_category@2@A ; std::_Error_objects<int>::_System_object
	call	??1_System_error_category@std@@UAE@XZ
	pop	ebp
	ret	0
??__F?_System_object@?$_Error_objects@H@std@@2V_System_error_category@2@A@@YAXXZ ENDP ; `dynamic atexit destructor for 'std::_Error_objects<int>::_System_object''
text$yd	ENDS
; Function compile flags: /Odtp
; File c:\program files (x86)\microsoft visual studio 11.0\vc\include\xmemory0
;	COMDAT ??__E?_System_object@?$_Error_objects@H@std@@2V_System_error_category@2@A@@YAXXZ
text$yc	SEGMENT
??__E?_System_object@?$_Error_objects@H@std@@2V_System_error_category@2@A@@YAXXZ PROC ; `dynamic initializer for 'std::_Error_objects<int>::_System_object'', COMDAT

; 627  : 		{	// estimate maximum array size

	push	ebp
	mov	ebp, esp
	mov	ecx, OFFSET ?_System_object@?$_Error_objects@H@std@@2V_System_error_category@2@A ; std::_Error_objects<int>::_System_object
	call	??0_System_error_category@std@@QAE@XZ	; std::_System_error_category::_System_error_category
	push	OFFSET ??__F?_System_object@?$_Error_objects@H@std@@2V_System_error_category@2@A@@YAXXZ ; `dynamic atexit destructor for 'std::_Error_objects<int>::_System_object''
	call	_atexit
	add	esp, 4
	pop	ebp
	ret	0
??__E?_System_object@?$_Error_objects@H@std@@2V_System_error_category@2@A@@YAXXZ ENDP ; `dynamic initializer for 'std::_Error_objects<int>::_System_object''
text$yc	ENDS
; Function compile flags: /Odtp
;	COMDAT ??__F?_Iostream_object@?$_Error_objects@H@std@@2V_Iostream_error_category@2@A@@YAXXZ
text$yd	SEGMENT
??__F?_Iostream_object@?$_Error_objects@H@std@@2V_Iostream_error_category@2@A@@YAXXZ PROC ; `dynamic atexit destructor for 'std::_Error_objects<int>::_Iostream_object'', COMDAT
	push	ebp
	mov	ebp, esp
	mov	ecx, OFFSET ?_Iostream_object@?$_Error_objects@H@std@@2V_Iostream_error_category@2@A ; std::_Error_objects<int>::_Iostream_object
	call	??1_Iostream_error_category@std@@UAE@XZ
	pop	ebp
	ret	0
??__F?_Iostream_object@?$_Error_objects@H@std@@2V_Iostream_error_category@2@A@@YAXXZ ENDP ; `dynamic atexit destructor for 'std::_Error_objects<int>::_Iostream_object''
text$yd	ENDS
; Function compile flags: /Odtp
; File c:\program files (x86)\microsoft visual studio 11.0\vc\include\xmemory0
;	COMDAT ??__E?_Iostream_object@?$_Error_objects@H@std@@2V_Iostream_error_category@2@A@@YAXXZ
text$yc	SEGMENT
??__E?_Iostream_object@?$_Error_objects@H@std@@2V_Iostream_error_category@2@A@@YAXXZ PROC ; `dynamic initializer for 'std::_Error_objects<int>::_Iostream_object'', COMDAT

; 627  : 		{	// estimate maximum array size

	push	ebp
	mov	ebp, esp
	mov	ecx, OFFSET ?_Iostream_object@?$_Error_objects@H@std@@2V_Iostream_error_category@2@A ; std::_Error_objects<int>::_Iostream_object
	call	??0_Iostream_error_category@std@@QAE@XZ	; std::_Iostream_error_category::_Iostream_error_category
	push	OFFSET ??__F?_Iostream_object@?$_Error_objects@H@std@@2V_Iostream_error_category@2@A@@YAXXZ ; `dynamic atexit destructor for 'std::_Error_objects<int>::_Iostream_object''
	call	_atexit
	add	esp, 4
	pop	ebp
	ret	0
??__E?_Iostream_object@?$_Error_objects@H@std@@2V_Iostream_error_category@2@A@@YAXXZ ENDP ; `dynamic initializer for 'std::_Error_objects<int>::_Iostream_object''
text$yc	ENDS
; Function compile flags: /Odtp
;	COMDAT ??__F?_Generic_object@?$_Error_objects@H@std@@2V_Generic_error_category@2@A@@YAXXZ
text$yd	SEGMENT
??__F?_Generic_object@?$_Error_objects@H@std@@2V_Generic_error_category@2@A@@YAXXZ PROC ; `dynamic atexit destructor for 'std::_Error_objects<int>::_Generic_object'', COMDAT
	push	ebp
	mov	ebp, esp
	mov	ecx, OFFSET ?_Generic_object@?$_Error_objects@H@std@@2V_Generic_error_category@2@A ; std::_Error_objects<int>::_Generic_object
	call	??1_Generic_error_category@std@@UAE@XZ
	pop	ebp
	ret	0
??__F?_Generic_object@?$_Error_objects@H@std@@2V_Generic_error_category@2@A@@YAXXZ ENDP ; `dynamic atexit destructor for 'std::_Error_objects<int>::_Generic_object''
text$yd	ENDS
; Function compile flags: /Odtp
; File c:\program files (x86)\microsoft visual studio 11.0\vc\include\xmemory0
;	COMDAT ??__E?_Generic_object@?$_Error_objects@H@std@@2V_Generic_error_category@2@A@@YAXXZ
text$yc	SEGMENT
??__E?_Generic_object@?$_Error_objects@H@std@@2V_Generic_error_category@2@A@@YAXXZ PROC ; `dynamic initializer for 'std::_Error_objects<int>::_Generic_object'', COMDAT

; 627  : 		{	// estimate maximum array size

	push	ebp
	mov	ebp, esp
	mov	ecx, OFFSET ?_Generic_object@?$_Error_objects@H@std@@2V_Generic_error_category@2@A ; std::_Error_objects<int>::_Generic_object
	call	??0_Generic_error_category@std@@QAE@XZ	; std::_Generic_error_category::_Generic_error_category
	push	OFFSET ??__F?_Generic_object@?$_Error_objects@H@std@@2V_Generic_error_category@2@A@@YAXXZ ; `dynamic atexit destructor for 'std::_Error_objects<int>::_Generic_object''
	call	_atexit
	add	esp, 4
	pop	ebp
	ret	0
??__E?_Generic_object@?$_Error_objects@H@std@@2V_Generic_error_category@2@A@@YAXXZ ENDP ; `dynamic initializer for 'std::_Error_objects<int>::_Generic_object''
text$yc	ENDS
; Function compile flags: /Odtp
; File c:\program files (x86)\microsoft visual studio 11.0\vc\include\xmemory0
;	COMDAT ??$_Allocate@D@std@@YAPADIPAD@Z
_TEXT	SEGMENT
__Ptr$ = -4						; size = 4
__Count$ = 8						; size = 4
___formal$ = 12						; size = 4
??$_Allocate@D@std@@YAPADIPAD@Z PROC			; std::_Allocate<char>, COMDAT

; 22   : 	{	// allocate storage for _Count elements of type _Ty

	push	ebp
	mov	ebp, esp
	push	ecx

; 23   : 	void *_Ptr = 0;

	mov	DWORD PTR __Ptr$[ebp], 0

; 24   : 
; 25   : 	if (_Count == 0)

	cmp	DWORD PTR __Count$[ebp], 0
	jne	SHORT $LN4@Allocate

; 26   : 		;
; 27   : 	else if (((size_t)(-1) / sizeof (_Ty) < _Count)

	jmp	SHORT $LN3@Allocate
$LN4@Allocate:

; 28   : 		|| (_Ptr = ::operator new(_Count * sizeof (_Ty))) == 0)

	cmp	DWORD PTR __Count$[ebp], -1
	ja	SHORT $LN1@Allocate
	mov	eax, DWORD PTR __Count$[ebp]
	push	eax
	call	??2@YAPAXI@Z				; operator new
	add	esp, 4
	mov	DWORD PTR __Ptr$[ebp], eax
	cmp	DWORD PTR __Ptr$[ebp], 0
	jne	SHORT $LN3@Allocate
$LN1@Allocate:

; 29   : 		_Xbad_alloc();	// report no memory

	call	?_Xbad_alloc@std@@YAXXZ			; std::_Xbad_alloc
$LN3@Allocate:

; 30   : 
; 31   : 	return ((_Ty *)_Ptr);

	mov	eax, DWORD PTR __Ptr$[ebp]
$LN6@Allocate:

; 32   : 	}

	mov	esp, ebp
	pop	ebp
	ret	0
??$_Allocate@D@std@@YAPADIPAD@Z ENDP			; std::_Allocate<char>
_TEXT	ENDS
; Function compile flags: /Odtp
; File c:\program files (x86)\microsoft visual studio 11.0\vc\include\xstddef
;	COMDAT ??$addressof@D@std@@YAPADAAD@Z
_TEXT	SEGMENT
__Val$ = 8						; size = 4
??$addressof@D@std@@YAPADAAD@Z PROC			; std::addressof<char>, COMDAT

; 85   : 	{	// return address of _Val

	push	ebp
	mov	ebp, esp

; 86   : 	return (reinterpret_cast<_Ty *>(
; 87   : 		(&const_cast<char&>(
; 88   : 		reinterpret_cast<const volatile char&>(_Val)))));

	mov	eax, DWORD PTR __Val$[ebp]

; 89   : 	}

	pop	ebp
	ret	0
??$addressof@D@std@@YAPADAAD@Z ENDP			; std::addressof<char>
_TEXT	ENDS
; Function compile flags: /Odtp
; File c:\program files (x86)\microsoft visual studio 11.0\vc\include\xmemory0
;	COMDAT ??$destroy@PAD@?$_Wrap_alloc@V?$allocator@D@std@@@std@@QAEXPAPAD@Z
_TEXT	SEGMENT
_this$ = -4						; size = 4
__Ptr$ = 8						; size = 4
??$destroy@PAD@?$_Wrap_alloc@V?$allocator@D@std@@@std@@QAEXPAPAD@Z PROC ; std::_Wrap_alloc<std::allocator<char> >::destroy<char *>, COMDAT
; _this$ = ecx

; 907  : 		void destroy(_Ty *_Ptr)

	push	ebp
	mov	ebp, esp
	push	ecx
	mov	DWORD PTR _this$[ebp], ecx

; 908  : 		{	// destroy object at _Ptr
; 909  : 		_Mytraits::destroy(*this, _Ptr);

	mov	eax, DWORD PTR __Ptr$[ebp]
	push	eax
	mov	ecx, DWORD PTR _this$[ebp]
	push	ecx
	call	??$destroy@PAD@?$allocator_traits@V?$allocator@D@std@@@std@@SAXAAV?$allocator@D@1@PAPAD@Z ; std::allocator_traits<std::allocator<char> >::destroy<char *>
	add	esp, 8

; 910  : 		}

	mov	esp, ebp
	pop	ebp
	ret	4
??$destroy@PAD@?$_Wrap_alloc@V?$allocator@D@std@@@std@@QAEXPAPAD@Z ENDP ; std::_Wrap_alloc<std::allocator<char> >::destroy<char *>
_TEXT	ENDS
; Function compile flags: /Odtp
; File c:\program files (x86)\microsoft visual studio 11.0\vc\include\xmemory0
;	COMDAT ??$construct@PADAAPAD@?$_Wrap_alloc@V?$allocator@D@std@@@std@@QAEXPAPADAAPAD@Z
_TEXT	SEGMENT
_this$ = -4						; size = 4
__Ptr$ = 8						; size = 4
__V0$ = 12						; size = 4
??$construct@PADAAPAD@?$_Wrap_alloc@V?$allocator@D@std@@@std@@QAEXPAPADAAPAD@Z PROC ; std::_Wrap_alloc<std::allocator<char> >::construct<char *,char * &>, COMDAT
; _this$ = ecx

; 903  : _VARIADIC_EXPAND_0X(_WRAP_ALLOC_CONSTRUCT, , , , )

	push	ebp
	mov	ebp, esp
	push	ecx
	mov	DWORD PTR _this$[ebp], ecx
	mov	eax, DWORD PTR __V0$[ebp]
	push	eax
	call	??$forward@AAPAD@std@@YAAAPADAAPAD@Z	; std::forward<char * &>
	add	esp, 4
	push	eax
	mov	ecx, DWORD PTR __Ptr$[ebp]
	push	ecx
	mov	edx, DWORD PTR _this$[ebp]
	push	edx
	call	??$construct@PADAAPAD@?$allocator_traits@V?$allocator@D@std@@@std@@SAXAAV?$allocator@D@1@PAPADAAPAD@Z ; std::allocator_traits<std::allocator<char> >::construct<char *,char * &>
	add	esp, 12					; 0000000cH
	mov	esp, ebp
	pop	ebp
	ret	8
??$construct@PADAAPAD@?$_Wrap_alloc@V?$allocator@D@std@@@std@@QAEXPAPADAAPAD@Z ENDP ; std::_Wrap_alloc<std::allocator<char> >::construct<char *,char * &>
_TEXT	ENDS
; Function compile flags: /Odtp
; File c:\users\zhitao li\documents\visual studio 2012\projects\freefalcon\campaign\include\team.h
;	COMDAT ?TStance@TeamClass@@QAEHE@Z
_TEXT	SEGMENT
_this$ = -4						; size = 4
_team$ = 8						; size = 1
?TStance@TeamClass@@QAEHE@Z PROC			; TeamClass::TStance, COMDAT
; _this$ = ecx

; 317  : 	int TStance(Team team)						{ return stance[team]; }

	push	ebp
	mov	ebp, esp
	push	ecx
	mov	DWORD PTR _this$[ebp], ecx
	movzx	eax, BYTE PTR _team$[ebp]
	mov	ecx, DWORD PTR _this$[ebp]
	movsx	eax, WORD PTR [ecx+eax*2+580]
	mov	esp, ebp
	pop	ebp
	ret	4
?TStance@TeamClass@@QAEHE@Z ENDP			; TeamClass::TStance
_TEXT	ENDS
; Function compile flags: /Odtp
; File c:\users\zhitao li\documents\visual studio 2012\projects\freefalcon\sim\include\sms.h
;	COMDAT ?MasterArm@SMSBaseClass@@QAE?AW4MasterArmState@1@XZ
_TEXT	SEGMENT
_this$ = -4						; size = 4
?MasterArm@SMSBaseClass@@QAE?AW4MasterArmState@1@XZ PROC ; SMSBaseClass::MasterArm, COMDAT
; _this$ = ecx

; 92   : 	MasterArmState MasterArm(void) {return masterArm;};

	push	ebp
	mov	ebp, esp
	push	ecx
	mov	DWORD PTR _this$[ebp], ecx
	mov	eax, DWORD PTR _this$[ebp]
	mov	eax, DWORD PTR [eax+8]
	mov	esp, ebp
	pop	ebp
	ret	0
?MasterArm@SMSBaseClass@@QAE?AW4MasterArmState@1@XZ ENDP ; SMSBaseClass::MasterArm
_TEXT	ENDS
; Function compile flags: /Odtp
; File c:\users\zhitao li\documents\visual studio 2012\projects\freefalcon\sim\include\sms.h
;	COMDAT ?CurStationOK@SMSBaseClass@@QAEHXZ
_TEXT	SEGMENT
_this$ = -4						; size = 4
?CurStationOK@SMSBaseClass@@QAEHXZ PROC			; SMSBaseClass::CurStationOK, COMDAT
; _this$ = ecx

; 85   : 	int CurStationOK (void) { return StationOK(curHardpoint); };

	push	ebp
	mov	ebp, esp
	push	ecx
	mov	DWORD PTR _this$[ebp], ecx
	mov	eax, DWORD PTR _this$[ebp]
	mov	ecx, DWORD PTR [eax+44]
	push	ecx
	mov	ecx, DWORD PTR _this$[ebp]
	call	?StationOK@SMSBaseClass@@QAEHH@Z	; SMSBaseClass::StationOK
	mov	esp, ebp
	pop	ebp
	ret	0
?CurStationOK@SMSBaseClass@@QAEHXZ ENDP			; SMSBaseClass::CurStationOK
_TEXT	ENDS
; Function compile flags: /Odtp
; File c:\users\zhitao li\documents\visual studio 2012\projects\freefalcon\sim\include\aircrft.h
;	COMDAT ?INSState@AircraftClass@@QAEHW4INSAlignFlags@1@@Z
_TEXT	SEGMENT
_this$ = -8						; size = 4
tv67 = -4						; size = 4
_fl$ = 8						; size = 4
?INSState@AircraftClass@@QAEHW4INSAlignFlags@1@@Z PROC	; AircraftClass::INSState, COMDAT
; _this$ = ecx

; 211  : 	int INSState(INSAlignFlags fl) { return (INSFlags & fl) == (unsigned int)fl ? 1 : 0; };

	push	ebp
	mov	ebp, esp
	sub	esp, 8
	mov	DWORD PTR _this$[ebp], ecx
	mov	eax, DWORD PTR _this$[ebp]
	mov	ecx, DWORD PTR [eax+768]
	and	ecx, DWORD PTR _fl$[ebp]
	cmp	ecx, DWORD PTR _fl$[ebp]
	jne	SHORT $LN3@INSState
	mov	DWORD PTR tv67[ebp], 1
	jmp	SHORT $LN4@INSState
$LN3@INSState:
	mov	DWORD PTR tv67[ebp], 0
$LN4@INSState:
	mov	eax, DWORD PTR tv67[ebp]
	mov	esp, ebp
	pop	ebp
	ret	4
?INSState@AircraftClass@@QAEHW4INSAlignFlags@1@@Z ENDP	; AircraftClass::INSState
_TEXT	ENDS
; Function compile flags: /Odtp
; File c:\users\zhitao li\documents\visual studio 2012\projects\freefalcon\sim\include\fcc.h
;	COMDAT ?GetSubMode@FireControlComputer@@QAE?AW4FCCSubMode@1@XZ
_TEXT	SEGMENT
_this$ = -4						; size = 4
?GetSubMode@FireControlComputer@@QAE?AW4FCCSubMode@1@XZ PROC ; FireControlComputer::GetSubMode, COMDAT
; _this$ = ecx

; 281  : 	FCCSubMode GetSubMode (void) {return (subMode);};

	push	ebp
	mov	ebp, esp
	push	ecx
	mov	DWORD PTR _this$[ebp], ecx
	mov	eax, DWORD PTR _this$[ebp]
	mov	eax, DWORD PTR [eax+148]
	mov	esp, ebp
	pop	ebp
	ret	0
?GetSubMode@FireControlComputer@@QAE?AW4FCCSubMode@1@XZ ENDP ; FireControlComputer::GetSubMode
_TEXT	ENDS
; Function compile flags: /Odtp
; File c:\users\zhitao li\documents\visual studio 2012\projects\freefalcon\sim\include\fcc.h
;	COMDAT ?IsAGMasterMode@FireControlComputer@@QAEHXZ
_TEXT	SEGMENT
_this$ = -8						; size = 4
tv67 = -4						; size = 4
?IsAGMasterMode@FireControlComputer@@QAEHXZ PROC	; FireControlComputer::IsAGMasterMode, COMDAT
; _this$ = ecx

; 278  : 	int IsAGMasterMode() { return GetMainMasterMode() == MM_AG; };

	push	ebp
	mov	ebp, esp
	sub	esp, 8
	mov	DWORD PTR _this$[ebp], ecx
	mov	ecx, DWORD PTR _this$[ebp]
	call	?GetMainMasterMode@FireControlComputer@@QAE?AW4MASTERMODES@@XZ ; FireControlComputer::GetMainMasterMode
	test	eax, eax
	jne	SHORT $LN3@IsAGMaster
	mov	DWORD PTR tv67[ebp], 1
	jmp	SHORT $LN4@IsAGMaster
$LN3@IsAGMaster:
	mov	DWORD PTR tv67[ebp], 0
$LN4@IsAGMaster:
	mov	eax, DWORD PTR tv67[ebp]
	mov	esp, ebp
	pop	ebp
	ret	0
?IsAGMasterMode@FireControlComputer@@QAEHXZ ENDP	; FireControlComputer::IsAGMasterMode
_TEXT	ENDS
; Function compile flags: /Odtp
; File c:\users\zhitao li\documents\visual studio 2012\projects\freefalcon\sim\include\fcc.h
;	COMDAT ?GetMasterMode@FireControlComputer@@QAE?AW4FCCMasterMode@1@XZ
_TEXT	SEGMENT
_this$ = -4						; size = 4
?GetMasterMode@FireControlComputer@@QAE?AW4FCCMasterMode@1@XZ PROC ; FireControlComputer::GetMasterMode, COMDAT
; _this$ = ecx

; 276  : 	FCCMasterMode GetMasterMode (void) {return (masterMode);};

	push	ebp
	mov	ebp, esp
	push	ecx
	mov	DWORD PTR _this$[ebp], ecx
	mov	eax, DWORD PTR _this$[ebp]
	mov	eax, DWORD PTR [eax+144]
	mov	esp, ebp
	pop	ebp
	ret	0
?GetMasterMode@FireControlComputer@@QAE?AW4FCCMasterMode@1@XZ ENDP ; FireControlComputer::GetMasterMode
_TEXT	ENDS
; Function compile flags: /Odtp
; File c:\users\zhitao li\documents\visual studio 2012\projects\freefalcon\vu2\include\vu_templates.h
;	COMDAT ??B?$VuBin@VSimWeaponClass@@@@QBE_NXZ
_TEXT	SEGMENT
_this$ = -8						; size = 4
tv66 = -4						; size = 4
??B?$VuBin@VSimWeaponClass@@@@QBE_NXZ PROC		; VuBin<SimWeaponClass>::operator bool, COMDAT
; _this$ = ecx

; 40   : 	operator bool() const{

	push	ebp
	mov	ebp, esp
	sub	esp, 8
	mov	DWORD PTR _this$[ebp], ecx

; 41   : 		return e != NULL;

	mov	eax, DWORD PTR _this$[ebp]
	cmp	DWORD PTR [eax], 0
	je	SHORT $LN3@operator
	mov	DWORD PTR tv66[ebp], 1
	jmp	SHORT $LN4@operator
$LN3@operator:
	mov	DWORD PTR tv66[ebp], 0
$LN4@operator:
	mov	al, BYTE PTR tv66[ebp]

; 42   : 	}

	mov	esp, ebp
	pop	ebp
	ret	0
??B?$VuBin@VSimWeaponClass@@@@QBE_NXZ ENDP		; VuBin<SimWeaponClass>::operator bool
_TEXT	ENDS
; Function compile flags: /Odtp
; File c:\users\zhitao li\documents\visual studio 2012\projects\freefalcon\graphics\include\gmcomposit.h
;	COMDAT ??__EGM_OVERSCAN_V@@YAXXZ
text$yc	SEGMENT
??__EGM_OVERSCAN_V@@YAXXZ PROC				; `dynamic initializer for 'GM_OVERSCAN_V'', COMDAT

; 21   : static const float	GM_OVERSCAN_V		= 1.0f + GM_OVERSCAN + GM_OVERSCAN;

	push	ebp
	mov	ebp, esp
	movss	xmm0, DWORD PTR __real@3f800000
	addss	xmm0, DWORD PTR _GM_OVERSCAN
	addss	xmm0, DWORD PTR _GM_OVERSCAN
	movss	DWORD PTR _GM_OVERSCAN_V, xmm0
	pop	ebp
	ret	0
??__EGM_OVERSCAN_V@@YAXXZ ENDP				; `dynamic initializer for 'GM_OVERSCAN_V''
text$yc	ENDS
; Function compile flags: /Odtp
; File c:\users\zhitao li\documents\visual studio 2012\projects\freefalcon\graphics\include\gmcomposit.h
;	COMDAT ??__EGM_OVERSCAN_H@@YAXXZ
text$yc	SEGMENT
??__EGM_OVERSCAN_H@@YAXXZ PROC				; `dynamic initializer for 'GM_OVERSCAN_H'', COMDAT

; 20   : static const float	GM_OVERSCAN_H		= 1.0f + GM_OVERSCAN;

	push	ebp
	mov	ebp, esp
	movss	xmm0, DWORD PTR _GM_OVERSCAN
	addss	xmm0, DWORD PTR __real@3f800000
	movss	DWORD PTR _GM_OVERSCAN_H, xmm0
	pop	ebp
	ret	0
??__EGM_OVERSCAN_H@@YAXXZ ENDP				; `dynamic initializer for 'GM_OVERSCAN_H''
text$yc	ENDS
; Function compile flags: /Odtp
; File c:\users\zhitao li\documents\visual studio 2012\projects\freefalcon\graphics\include\gmcomposit.h
;	COMDAT ??__EGM_OVERSCAN_RNG@@YAXXZ
text$yc	SEGMENT
??__EGM_OVERSCAN_RNG@@YAXXZ PROC			; `dynamic initializer for 'GM_OVERSCAN_RNG'', COMDAT

; 19   : static const float	GM_OVERSCAN_RNG		= 1.0f + GM_OVERSCAN;

	push	ebp
	mov	ebp, esp
	movss	xmm0, DWORD PTR _GM_OVERSCAN
	addss	xmm0, DWORD PTR __real@3f800000
	movss	DWORD PTR _GM_OVERSCAN_RNG, xmm0
	pop	ebp
	ret	0
??__EGM_OVERSCAN_RNG@@YAXXZ ENDP			; `dynamic initializer for 'GM_OVERSCAN_RNG''
text$yc	ENDS
; Function compile flags: /Odtp
; File c:\users\zhitao li\documents\visual studio 2012\projects\freefalcon\graphics\include\display.h
;	COMDAT ?ZeroRotationAboutOrigin@VirtualDisplay@@QAEXXZ
_TEXT	SEGMENT
_this$ = -4						; size = 4
?ZeroRotationAboutOrigin@VirtualDisplay@@QAEXXZ PROC	; VirtualDisplay::ZeroRotationAboutOrigin, COMDAT
; _this$ = ecx

; 144  :     void ZeroRotationAboutOrigin( void ) { dmatrix.rotation01 = dmatrix.rotation10 = 0.0f, dmatrix.rotation00 = dmatrix.rotation11 = 1.0f; };

	push	ebp
	mov	ebp, esp
	push	ecx
	mov	DWORD PTR _this$[ebp], ecx
	mov	eax, DWORD PTR _this$[ebp]
	movss	xmm0, DWORD PTR __real@00000000
	movss	DWORD PTR [eax+84], xmm0
	mov	ecx, DWORD PTR _this$[ebp]
	movss	xmm0, DWORD PTR __real@00000000
	movss	DWORD PTR [ecx+80], xmm0
	mov	edx, DWORD PTR _this$[ebp]
	movss	xmm0, DWORD PTR __real@3f800000
	movss	DWORD PTR [edx+88], xmm0
	mov	eax, DWORD PTR _this$[ebp]
	movss	xmm0, DWORD PTR __real@3f800000
	movss	DWORD PTR [eax+76], xmm0
	mov	esp, ebp
	pop	ebp
	ret	0
?ZeroRotationAboutOrigin@VirtualDisplay@@QAEXXZ ENDP	; VirtualDisplay::ZeroRotationAboutOrigin
_TEXT	ENDS
; Function compile flags: /Odtp
; File c:\users\zhitao li\documents\visual studio 2012\projects\freefalcon\graphics\include\display.h
;	COMDAT ?CenterOriginInViewport@VirtualDisplay@@QAEXXZ
_TEXT	SEGMENT
_this$ = -4						; size = 4
?CenterOriginInViewport@VirtualDisplay@@QAEXXZ PROC	; VirtualDisplay::CenterOriginInViewport, COMDAT
; _this$ = ecx

; 143  : 	void CenterOriginInViewport( void )  { dmatrix.translationX = 0.0f; dmatrix.translationY = 0.0f; };

	push	ebp
	mov	ebp, esp
	push	ecx
	mov	DWORD PTR _this$[ebp], ecx
	mov	eax, DWORD PTR _this$[ebp]
	movss	xmm0, DWORD PTR __real@00000000
	movss	DWORD PTR [eax+68], xmm0
	mov	ecx, DWORD PTR _this$[ebp]
	movss	xmm0, DWORD PTR __real@00000000
	movss	DWORD PTR [ecx+72], xmm0
	mov	esp, ebp
	pop	ebp
	ret	0
?CenterOriginInViewport@VirtualDisplay@@QAEXXZ ENDP	; VirtualDisplay::CenterOriginInViewport
_TEXT	ENDS
; Function compile flags: /Odtp
;	COMDAT ??_G_System_error_category@std@@UAEPAXI@Z
_TEXT	SEGMENT
_this$ = -4						; size = 4
___flags$ = 8						; size = 4
??_G_System_error_category@std@@UAEPAXI@Z PROC		; std::_System_error_category::`scalar deleting destructor', COMDAT
; _this$ = ecx
	push	ebp
	mov	ebp, esp
	push	ecx
	mov	DWORD PTR _this$[ebp], ecx
	mov	ecx, DWORD PTR _this$[ebp]
	call	??1_System_error_category@std@@UAE@XZ
	mov	eax, DWORD PTR ___flags$[ebp]
	and	eax, 1
	je	SHORT $LN1@scalar
	mov	ecx, DWORD PTR _this$[ebp]
	push	ecx
	call	??3@YAXPAX@Z				; operator delete
	add	esp, 4
$LN1@scalar:
	mov	eax, DWORD PTR _this$[ebp]
	mov	esp, ebp
	pop	ebp
	ret	4
??_G_System_error_category@std@@UAEPAXI@Z ENDP		; std::_System_error_category::`scalar deleting destructor'
_TEXT	ENDS
; Function compile flags: /Odtp
;	COMDAT ??1_System_error_category@std@@UAE@XZ
_TEXT	SEGMENT
_this$ = -4						; size = 4
??1_System_error_category@std@@UAE@XZ PROC		; std::_System_error_category::~_System_error_category, COMDAT
; _this$ = ecx
	push	ebp
	mov	ebp, esp
	push	ecx
	mov	DWORD PTR _this$[ebp], ecx
	mov	ecx, DWORD PTR _this$[ebp]
	call	??1_Generic_error_category@std@@UAE@XZ
	mov	esp, ebp
	pop	ebp
	ret	0
??1_System_error_category@std@@UAE@XZ ENDP		; std::_System_error_category::~_System_error_category
_TEXT	ENDS
; Function compile flags: /Odtp
; File c:\program files (x86)\microsoft visual studio 11.0\vc\include\system_error
;	COMDAT ?default_error_condition@_System_error_category@std@@UBE?AVerror_condition@2@H@Z
_TEXT	SEGMENT
_this$ = -4						; size = 4
___$ReturnUdt$ = 8					; size = 4
__Errval$ = 12						; size = 4
?default_error_condition@_System_error_category@std@@UBE?AVerror_condition@2@H@Z PROC ; std::_System_error_category::default_error_condition, COMDAT
; _this$ = ecx

; 641  : 		{	// make error_condition for error code (generic if possible)

	push	ebp
	mov	ebp, esp
	push	ecx
	mov	DWORD PTR _this$[ebp], ecx

; 642  : 		if (_Syserror_map(_Errval))

	mov	eax, DWORD PTR __Errval$[ebp]
	push	eax
	call	?_Syserror_map@std@@YAPBDH@Z		; std::_Syserror_map
	add	esp, 4
	test	eax, eax
	je	SHORT $LN2@default_er

; 643  : 			return (error_condition(_Errval, generic_category()));

	call	?generic_category@std@@YAABVerror_category@1@XZ ; std::generic_category
	push	eax
	mov	ecx, DWORD PTR __Errval$[ebp]
	push	ecx
	mov	ecx, DWORD PTR ___$ReturnUdt$[ebp]
	call	??0error_condition@std@@QAE@HABVerror_category@1@@Z ; std::error_condition::error_condition
	mov	eax, DWORD PTR ___$ReturnUdt$[ebp]
	jmp	SHORT $LN3@default_er

; 644  : 		else

	jmp	SHORT $LN3@default_er
$LN2@default_er:

; 645  : 			return (error_condition(_Errval, system_category()));

	call	?system_category@std@@YAABVerror_category@1@XZ ; std::system_category
	push	eax
	mov	edx, DWORD PTR __Errval$[ebp]
	push	edx
	mov	ecx, DWORD PTR ___$ReturnUdt$[ebp]
	call	??0error_condition@std@@QAE@HABVerror_category@1@@Z ; std::error_condition::error_condition
	mov	eax, DWORD PTR ___$ReturnUdt$[ebp]
$LN3@default_er:

; 646  : 		}

	mov	esp, ebp
	pop	ebp
	ret	8
?default_error_condition@_System_error_category@std@@UBE?AVerror_condition@2@H@Z ENDP ; std::_System_error_category::default_error_condition
_TEXT	ENDS
; Function compile flags: /Odtp
; File c:\program files (x86)\microsoft visual studio 11.0\vc\include\system_error
;	COMDAT ?message@_System_error_category@std@@UBE?AV?$basic_string@DU?$char_traits@D@std@@V?$allocator@D@2@@2@H@Z
_TEXT	SEGMENT
_this$ = -16						; size = 4
$T1 = -12						; size = 4
tv69 = -8						; size = 4
__Name$ = -4						; size = 4
___$ReturnUdt$ = 8					; size = 4
__Errcode$ = 12						; size = 4
?message@_System_error_category@std@@UBE?AV?$basic_string@DU?$char_traits@D@std@@V?$allocator@D@2@@2@H@Z PROC ; std::_System_error_category::message, COMDAT
; _this$ = ecx

; 634  : 		{	// convert to name of error

	push	ebp
	mov	ebp, esp
	sub	esp, 16					; 00000010H
	mov	DWORD PTR _this$[ebp], ecx
	mov	DWORD PTR $T1[ebp], 0

; 635  : 		const char *_Name = _Winerror_map(_Errcode);

	mov	eax, DWORD PTR __Errcode$[ebp]
	push	eax
	call	?_Winerror_map@std@@YAPBDH@Z		; std::_Winerror_map
	add	esp, 4
	mov	DWORD PTR __Name$[ebp], eax

; 636  : 		return (string(_Name != 0 ? _Name : "unknown error"));

	cmp	DWORD PTR __Name$[ebp], 0
	je	SHORT $LN3@message
	mov	ecx, DWORD PTR __Name$[ebp]
	mov	DWORD PTR tv69[ebp], ecx
	jmp	SHORT $LN4@message
$LN3@message:
	mov	DWORD PTR tv69[ebp], OFFSET ??_C@_0O@BFJCFAAK@unknown?5error?$AA@
$LN4@message:
	mov	edx, DWORD PTR tv69[ebp]
	push	edx
	mov	ecx, DWORD PTR ___$ReturnUdt$[ebp]
	call	??0?$basic_string@DU?$char_traits@D@std@@V?$allocator@D@2@@std@@QAE@PBD@Z ; std::basic_string<char,std::char_traits<char>,std::allocator<char> >::basic_string<char,std::char_traits<char>,std::allocator<char> >
	mov	eax, DWORD PTR $T1[ebp]
	or	eax, 1
	mov	DWORD PTR $T1[ebp], eax
	mov	eax, DWORD PTR ___$ReturnUdt$[ebp]

; 637  : 		}

	mov	esp, ebp
	pop	ebp
	ret	8
?message@_System_error_category@std@@UBE?AV?$basic_string@DU?$char_traits@D@std@@V?$allocator@D@2@@2@H@Z ENDP ; std::_System_error_category::message
_TEXT	ENDS
; Function compile flags: /Odtp
; File c:\program files (x86)\microsoft visual studio 11.0\vc\include\system_error
;	COMDAT ?name@_System_error_category@std@@UBEPBDXZ
_TEXT	SEGMENT
_this$ = -4						; size = 4
?name@_System_error_category@std@@UBEPBDXZ PROC		; std::_System_error_category::name, COMDAT
; _this$ = ecx

; 629  : 		{	// get name of category

	push	ebp
	mov	ebp, esp
	push	ecx
	mov	DWORD PTR _this$[ebp], ecx

; 630  : 		return ("system");

	mov	eax, OFFSET ??_C@_06FHFOAHML@system?$AA@

; 631  : 		}

	mov	esp, ebp
	pop	ebp
	ret	0
?name@_System_error_category@std@@UBEPBDXZ ENDP		; std::_System_error_category::name
_TEXT	ENDS
; Function compile flags: /Odtp
; File c:\program files (x86)\microsoft visual studio 11.0\vc\include\system_error
;	COMDAT ??0_System_error_category@std@@QAE@XZ
_TEXT	SEGMENT
_this$ = -4						; size = 4
??0_System_error_category@std@@QAE@XZ PROC		; std::_System_error_category::_System_error_category, COMDAT
; _this$ = ecx

; 624  : 	_System_error_category()

	push	ebp
	mov	ebp, esp
	push	ecx
	mov	DWORD PTR _this$[ebp], ecx
	mov	ecx, DWORD PTR _this$[ebp]
	call	??0_Generic_error_category@std@@QAE@XZ	; std::_Generic_error_category::_Generic_error_category
	mov	eax, DWORD PTR _this$[ebp]
	mov	DWORD PTR [eax], OFFSET ??_7_System_error_category@std@@6B@

; 625  : 		{	// default constructor
; 626  : 		}

	mov	eax, DWORD PTR _this$[ebp]
	mov	esp, ebp
	pop	ebp
	ret	0
??0_System_error_category@std@@QAE@XZ ENDP		; std::_System_error_category::_System_error_category
_TEXT	ENDS
; Function compile flags: /Odtp
;	COMDAT ??_G_Iostream_error_category@std@@UAEPAXI@Z
_TEXT	SEGMENT
_this$ = -4						; size = 4
___flags$ = 8						; size = 4
??_G_Iostream_error_category@std@@UAEPAXI@Z PROC	; std::_Iostream_error_category::`scalar deleting destructor', COMDAT
; _this$ = ecx
	push	ebp
	mov	ebp, esp
	push	ecx
	mov	DWORD PTR _this$[ebp], ecx
	mov	ecx, DWORD PTR _this$[ebp]
	call	??1_Iostream_error_category@std@@UAE@XZ
	mov	eax, DWORD PTR ___flags$[ebp]
	and	eax, 1
	je	SHORT $LN1@scalar
	mov	ecx, DWORD PTR _this$[ebp]
	push	ecx
	call	??3@YAXPAX@Z				; operator delete
	add	esp, 4
$LN1@scalar:
	mov	eax, DWORD PTR _this$[ebp]
	mov	esp, ebp
	pop	ebp
	ret	4
??_G_Iostream_error_category@std@@UAEPAXI@Z ENDP	; std::_Iostream_error_category::`scalar deleting destructor'
_TEXT	ENDS
; Function compile flags: /Odtp
;	COMDAT ??1_Iostream_error_category@std@@UAE@XZ
_TEXT	SEGMENT
_this$ = -4						; size = 4
??1_Iostream_error_category@std@@UAE@XZ PROC		; std::_Iostream_error_category::~_Iostream_error_category, COMDAT
; _this$ = ecx
	push	ebp
	mov	ebp, esp
	push	ecx
	mov	DWORD PTR _this$[ebp], ecx
	mov	ecx, DWORD PTR _this$[ebp]
	call	??1_Generic_error_category@std@@UAE@XZ
	mov	esp, ebp
	pop	ebp
	ret	0
??1_Iostream_error_category@std@@UAE@XZ ENDP		; std::_Iostream_error_category::~_Iostream_error_category
_TEXT	ENDS
; Function compile flags: /Odtp
; File c:\program files (x86)\microsoft visual studio 11.0\vc\include\system_error
;	COMDAT ?message@_Iostream_error_category@std@@UBE?AV?$basic_string@DU?$char_traits@D@std@@V?$allocator@D@2@@2@H@Z
_TEXT	SEGMENT
_this$ = -8						; size = 4
$T1 = -4						; size = 4
___$ReturnUdt$ = 8					; size = 4
__Errcode$ = 12						; size = 4
?message@_Iostream_error_category@std@@UBE?AV?$basic_string@DU?$char_traits@D@std@@V?$allocator@D@2@@2@H@Z PROC ; std::_Iostream_error_category::message, COMDAT
; _this$ = ecx

; 611  : 		{	// convert to name of error

	push	ebp
	mov	ebp, esp
	sub	esp, 8
	mov	DWORD PTR _this$[ebp], ecx
	mov	DWORD PTR $T1[ebp], 0

; 612  : 		if (_Errcode == (int)io_errc::stream)

	cmp	DWORD PTR __Errcode$[ebp], 1
	jne	SHORT $LN2@message

; 613  : 			return ("iostream stream error");

	push	OFFSET ??_C@_0BG@PADBLCHM@iostream?5stream?5error?$AA@
	mov	ecx, DWORD PTR ___$ReturnUdt$[ebp]
	call	??0?$basic_string@DU?$char_traits@D@std@@V?$allocator@D@2@@std@@QAE@PBD@Z ; std::basic_string<char,std::char_traits<char>,std::allocator<char> >::basic_string<char,std::char_traits<char>,std::allocator<char> >
	mov	eax, DWORD PTR $T1[ebp]
	or	eax, 1
	mov	DWORD PTR $T1[ebp], eax
	mov	eax, DWORD PTR ___$ReturnUdt$[ebp]
	jmp	SHORT $LN3@message

; 614  : 		else

	jmp	SHORT $LN3@message
$LN2@message:

; 615  : 			return (_Generic_error_category::message(_Errcode));

	mov	ecx, DWORD PTR __Errcode$[ebp]
	push	ecx
	mov	edx, DWORD PTR ___$ReturnUdt$[ebp]
	push	edx
	mov	ecx, DWORD PTR _this$[ebp]
	call	?message@_Generic_error_category@std@@UBE?AV?$basic_string@DU?$char_traits@D@std@@V?$allocator@D@2@@2@H@Z ; std::_Generic_error_category::message
	mov	eax, DWORD PTR $T1[ebp]
	or	eax, 1
	mov	DWORD PTR $T1[ebp], eax
	mov	eax, DWORD PTR ___$ReturnUdt$[ebp]
$LN3@message:

; 616  : 		}

	mov	esp, ebp
	pop	ebp
	ret	8
?message@_Iostream_error_category@std@@UBE?AV?$basic_string@DU?$char_traits@D@std@@V?$allocator@D@2@@2@H@Z ENDP ; std::_Iostream_error_category::message
_TEXT	ENDS
; Function compile flags: /Odtp
; File c:\program files (x86)\microsoft visual studio 11.0\vc\include\system_error
;	COMDAT ?name@_Iostream_error_category@std@@UBEPBDXZ
_TEXT	SEGMENT
_this$ = -4						; size = 4
?name@_Iostream_error_category@std@@UBEPBDXZ PROC	; std::_Iostream_error_category::name, COMDAT
; _this$ = ecx

; 606  : 		{	// get name of category

	push	ebp
	mov	ebp, esp
	push	ecx
	mov	DWORD PTR _this$[ebp], ecx

; 607  : 		return ("iostream");

	mov	eax, OFFSET ??_C@_08LLGCOLLL@iostream?$AA@

; 608  : 		}

	mov	esp, ebp
	pop	ebp
	ret	0
?name@_Iostream_error_category@std@@UBEPBDXZ ENDP	; std::_Iostream_error_category::name
_TEXT	ENDS
; Function compile flags: /Odtp
; File c:\program files (x86)\microsoft visual studio 11.0\vc\include\system_error
;	COMDAT ??0_Iostream_error_category@std@@QAE@XZ
_TEXT	SEGMENT
_this$ = -4						; size = 4
??0_Iostream_error_category@std@@QAE@XZ PROC		; std::_Iostream_error_category::_Iostream_error_category, COMDAT
; _this$ = ecx

; 601  : 	_Iostream_error_category()

	push	ebp
	mov	ebp, esp
	push	ecx
	mov	DWORD PTR _this$[ebp], ecx
	mov	ecx, DWORD PTR _this$[ebp]
	call	??0_Generic_error_category@std@@QAE@XZ	; std::_Generic_error_category::_Generic_error_category
	mov	eax, DWORD PTR _this$[ebp]
	mov	DWORD PTR [eax], OFFSET ??_7_Iostream_error_category@std@@6B@

; 602  : 		{	// default constructor
; 603  : 		}

	mov	eax, DWORD PTR _this$[ebp]
	mov	esp, ebp
	pop	ebp
	ret	0
??0_Iostream_error_category@std@@QAE@XZ ENDP		; std::_Iostream_error_category::_Iostream_error_category
_TEXT	ENDS
; Function compile flags: /Odtp
;	COMDAT ??_G_Generic_error_category@std@@UAEPAXI@Z
_TEXT	SEGMENT
_this$ = -4						; size = 4
___flags$ = 8						; size = 4
??_G_Generic_error_category@std@@UAEPAXI@Z PROC		; std::_Generic_error_category::`scalar deleting destructor', COMDAT
; _this$ = ecx
	push	ebp
	mov	ebp, esp
	push	ecx
	mov	DWORD PTR _this$[ebp], ecx
	mov	ecx, DWORD PTR _this$[ebp]
	call	??1_Generic_error_category@std@@UAE@XZ
	mov	eax, DWORD PTR ___flags$[ebp]
	and	eax, 1
	je	SHORT $LN1@scalar
	mov	ecx, DWORD PTR _this$[ebp]
	push	ecx
	call	??3@YAXPAX@Z				; operator delete
	add	esp, 4
$LN1@scalar:
	mov	eax, DWORD PTR _this$[ebp]
	mov	esp, ebp
	pop	ebp
	ret	4
??_G_Generic_error_category@std@@UAEPAXI@Z ENDP		; std::_Generic_error_category::`scalar deleting destructor'
_TEXT	ENDS
; Function compile flags: /Odtp
;	COMDAT ??1_Generic_error_category@std@@UAE@XZ
_TEXT	SEGMENT
_this$ = -4						; size = 4
??1_Generic_error_category@std@@UAE@XZ PROC		; std::_Generic_error_category::~_Generic_error_category, COMDAT
; _this$ = ecx
	push	ebp
	mov	ebp, esp
	push	ecx
	mov	DWORD PTR _this$[ebp], ecx
	mov	ecx, DWORD PTR _this$[ebp]
	call	??1error_category@std@@UAE@XZ		; std::error_category::~error_category
	mov	esp, ebp
	pop	ebp
	ret	0
??1_Generic_error_category@std@@UAE@XZ ENDP		; std::_Generic_error_category::~_Generic_error_category
_TEXT	ENDS
; Function compile flags: /Odtp
; File c:\program files (x86)\microsoft visual studio 11.0\vc\include\system_error
;	COMDAT ?message@_Generic_error_category@std@@UBE?AV?$basic_string@DU?$char_traits@D@std@@V?$allocator@D@2@@2@H@Z
_TEXT	SEGMENT
_this$ = -16						; size = 4
$T1 = -12						; size = 4
tv69 = -8						; size = 4
__Name$ = -4						; size = 4
___$ReturnUdt$ = 8					; size = 4
__Errcode$ = 12						; size = 4
?message@_Generic_error_category@std@@UBE?AV?$basic_string@DU?$char_traits@D@std@@V?$allocator@D@2@@2@H@Z PROC ; std::_Generic_error_category::message, COMDAT
; _this$ = ecx

; 590  : 		{	// convert to name of error

	push	ebp
	mov	ebp, esp
	sub	esp, 16					; 00000010H
	mov	DWORD PTR _this$[ebp], ecx
	mov	DWORD PTR $T1[ebp], 0

; 591  : 		const char *_Name = _Syserror_map(_Errcode);

	mov	eax, DWORD PTR __Errcode$[ebp]
	push	eax
	call	?_Syserror_map@std@@YAPBDH@Z		; std::_Syserror_map
	add	esp, 4
	mov	DWORD PTR __Name$[ebp], eax

; 592  : 		return (string(_Name != 0 ? _Name : "unknown error"));

	cmp	DWORD PTR __Name$[ebp], 0
	je	SHORT $LN3@message
	mov	ecx, DWORD PTR __Name$[ebp]
	mov	DWORD PTR tv69[ebp], ecx
	jmp	SHORT $LN4@message
$LN3@message:
	mov	DWORD PTR tv69[ebp], OFFSET ??_C@_0O@BFJCFAAK@unknown?5error?$AA@
$LN4@message:
	mov	edx, DWORD PTR tv69[ebp]
	push	edx
	mov	ecx, DWORD PTR ___$ReturnUdt$[ebp]
	call	??0?$basic_string@DU?$char_traits@D@std@@V?$allocator@D@2@@std@@QAE@PBD@Z ; std::basic_string<char,std::char_traits<char>,std::allocator<char> >::basic_string<char,std::char_traits<char>,std::allocator<char> >
	mov	eax, DWORD PTR $T1[ebp]
	or	eax, 1
	mov	DWORD PTR $T1[ebp], eax
	mov	eax, DWORD PTR ___$ReturnUdt$[ebp]

; 593  : 		}

	mov	esp, ebp
	pop	ebp
	ret	8
?message@_Generic_error_category@std@@UBE?AV?$basic_string@DU?$char_traits@D@std@@V?$allocator@D@2@@2@H@Z ENDP ; std::_Generic_error_category::message
_TEXT	ENDS
; Function compile flags: /Odtp
; File c:\program files (x86)\microsoft visual studio 11.0\vc\include\system_error
;	COMDAT ?name@_Generic_error_category@std@@UBEPBDXZ
_TEXT	SEGMENT
_this$ = -4						; size = 4
?name@_Generic_error_category@std@@UBEPBDXZ PROC	; std::_Generic_error_category::name, COMDAT
; _this$ = ecx

; 585  : 		{	// get name of category

	push	ebp
	mov	ebp, esp
	push	ecx
	mov	DWORD PTR _this$[ebp], ecx

; 586  : 		return ("generic");

	mov	eax, OFFSET ??_C@_07DCLBNMLN@generic?$AA@

; 587  : 		}

	mov	esp, ebp
	pop	ebp
	ret	0
?name@_Generic_error_category@std@@UBEPBDXZ ENDP	; std::_Generic_error_category::name
_TEXT	ENDS
; Function compile flags: /Odtp
; File c:\program files (x86)\microsoft visual studio 11.0\vc\include\system_error
;	COMDAT ??0_Generic_error_category@std@@QAE@XZ
_TEXT	SEGMENT
_this$ = -4						; size = 4
??0_Generic_error_category@std@@QAE@XZ PROC		; std::_Generic_error_category::_Generic_error_category, COMDAT
; _this$ = ecx

; 580  : 	_Generic_error_category()

	push	ebp
	mov	ebp, esp
	push	ecx
	mov	DWORD PTR _this$[ebp], ecx
	mov	ecx, DWORD PTR _this$[ebp]
	call	??0error_category@std@@QAE@XZ		; std::error_category::error_category
	mov	eax, DWORD PTR _this$[ebp]
	mov	DWORD PTR [eax], OFFSET ??_7_Generic_error_category@std@@6B@

; 581  : 		{	// default constructor
; 582  : 		}

	mov	eax, DWORD PTR _this$[ebp]
	mov	esp, ebp
	pop	ebp
	ret	0
??0_Generic_error_category@std@@QAE@XZ ENDP		; std::_Generic_error_category::_Generic_error_category
_TEXT	ENDS
; Function compile flags: /Odtp
; File c:\program files (x86)\microsoft visual studio 11.0\vc\include\system_error
;	COMDAT ??8error_condition@std@@QBE_NABV01@@Z
_TEXT	SEGMENT
tv78 = -8						; size = 4
_this$ = -4						; size = 4
__Right$ = 8						; size = 4
??8error_condition@std@@QBE_NABV01@@Z PROC		; std::error_condition::operator==, COMDAT
; _this$ = ecx

; 376  : 		{	// test if *this == _Right

	push	ebp
	mov	ebp, esp
	sub	esp, 8
	push	esi
	mov	DWORD PTR _this$[ebp], ecx

; 377  : 		return (category() == _Right.category()
; 378  : 			&& value() == _Right.value());

	mov	ecx, DWORD PTR __Right$[ebp]
	call	?category@error_condition@std@@QBEABVerror_category@2@XZ ; std::error_condition::category
	push	eax
	mov	ecx, DWORD PTR _this$[ebp]
	call	?category@error_condition@std@@QBEABVerror_category@2@XZ ; std::error_condition::category
	mov	ecx, eax
	call	??8error_category@std@@QBE_NABV01@@Z	; std::error_category::operator==
	movzx	eax, al
	test	eax, eax
	je	SHORT $LN3@operator
	mov	ecx, DWORD PTR _this$[ebp]
	call	?value@error_condition@std@@QBEHXZ	; std::error_condition::value
	mov	esi, eax
	mov	ecx, DWORD PTR __Right$[ebp]
	call	?value@error_condition@std@@QBEHXZ	; std::error_condition::value
	cmp	esi, eax
	jne	SHORT $LN3@operator
	mov	DWORD PTR tv78[ebp], 1
	jmp	SHORT $LN4@operator
$LN3@operator:
	mov	DWORD PTR tv78[ebp], 0
$LN4@operator:
	mov	al, BYTE PTR tv78[ebp]

; 379  : 		}

	pop	esi
	mov	esp, ebp
	pop	ebp
	ret	4
??8error_condition@std@@QBE_NABV01@@Z ENDP		; std::error_condition::operator==
_TEXT	ENDS
; Function compile flags: /Odtp
; File c:\program files (x86)\microsoft visual studio 11.0\vc\include\system_error
;	COMDAT ?category@error_condition@std@@QBEABVerror_category@2@XZ
_TEXT	SEGMENT
_this$ = -4						; size = 4
?category@error_condition@std@@QBEABVerror_category@2@XZ PROC ; std::error_condition::category, COMDAT
; _this$ = ecx

; 354  : 		{	// get category

	push	ebp
	mov	ebp, esp
	push	ecx
	mov	DWORD PTR _this$[ebp], ecx

; 355  : 		return (*_Mycat);

	mov	eax, DWORD PTR _this$[ebp]
	mov	eax, DWORD PTR [eax+4]

; 356  : 		}

	mov	esp, ebp
	pop	ebp
	ret	0
?category@error_condition@std@@QBEABVerror_category@2@XZ ENDP ; std::error_condition::category
_TEXT	ENDS
; Function compile flags: /Odtp
; File c:\program files (x86)\microsoft visual studio 11.0\vc\include\system_error
;	COMDAT ?value@error_condition@std@@QBEHXZ
_TEXT	SEGMENT
_this$ = -4						; size = 4
?value@error_condition@std@@QBEHXZ PROC			; std::error_condition::value, COMDAT
; _this$ = ecx

; 349  : 		{	// get error code

	push	ebp
	mov	ebp, esp
	push	ecx
	mov	DWORD PTR _this$[ebp], ecx

; 350  : 		return (_Myval);

	mov	eax, DWORD PTR _this$[ebp]
	mov	eax, DWORD PTR [eax]

; 351  : 		}

	mov	esp, ebp
	pop	ebp
	ret	0
?value@error_condition@std@@QBEHXZ ENDP			; std::error_condition::value
_TEXT	ENDS
; Function compile flags: /Odtp
; File c:\program files (x86)\microsoft visual studio 11.0\vc\include\system_error
;	COMDAT ??0error_condition@std@@QAE@HABVerror_category@1@@Z
_TEXT	SEGMENT
_this$ = -4						; size = 4
__Val$ = 8						; size = 4
__Cat$ = 12						; size = 4
??0error_condition@std@@QAE@HABVerror_category@1@@Z PROC ; std::error_condition::error_condition, COMDAT
; _this$ = ecx

; 316  : 		{	// construct from error code and category

	push	ebp
	mov	ebp, esp
	push	ecx
	mov	DWORD PTR _this$[ebp], ecx
	mov	eax, DWORD PTR _this$[ebp]
	mov	ecx, DWORD PTR __Val$[ebp]
	mov	DWORD PTR [eax], ecx
	mov	edx, DWORD PTR _this$[ebp]
	mov	eax, DWORD PTR __Cat$[ebp]
	mov	DWORD PTR [edx+4], eax

; 317  : 		}

	mov	eax, DWORD PTR _this$[ebp]
	mov	esp, ebp
	pop	ebp
	ret	8
??0error_condition@std@@QAE@HABVerror_category@1@@Z ENDP ; std::error_condition::error_condition
_TEXT	ENDS
; Function compile flags: /Odtp
; File c:\program files (x86)\microsoft visual studio 11.0\vc\include\system_error
;	COMDAT ?category@error_code@std@@QBEABVerror_category@2@XZ
_TEXT	SEGMENT
_this$ = -4						; size = 4
?category@error_code@std@@QBEABVerror_category@2@XZ PROC ; std::error_code::category, COMDAT
; _this$ = ecx

; 256  : 		{	// get category

	push	ebp
	mov	ebp, esp
	push	ecx
	mov	DWORD PTR _this$[ebp], ecx

; 257  : 		return (*_Mycat);

	mov	eax, DWORD PTR _this$[ebp]
	mov	eax, DWORD PTR [eax+4]

; 258  : 		}

	mov	esp, ebp
	pop	ebp
	ret	0
?category@error_code@std@@QBEABVerror_category@2@XZ ENDP ; std::error_code::category
_TEXT	ENDS
; Function compile flags: /Odtp
; File c:\program files (x86)\microsoft visual studio 11.0\vc\include\system_error
;	COMDAT ?value@error_code@std@@QBEHXZ
_TEXT	SEGMENT
_this$ = -4						; size = 4
?value@error_code@std@@QBEHXZ PROC			; std::error_code::value, COMDAT
; _this$ = ecx

; 251  : 		{	// get error code

	push	ebp
	mov	ebp, esp
	push	ecx
	mov	DWORD PTR _this$[ebp], ecx

; 252  : 		return (_Myval);

	mov	eax, DWORD PTR _this$[ebp]
	mov	eax, DWORD PTR [eax]

; 253  : 		}

	mov	esp, ebp
	pop	ebp
	ret	0
?value@error_code@std@@QBEHXZ ENDP			; std::error_code::value
_TEXT	ENDS
; Function compile flags: /Odtp
;	COMDAT ??_Gerror_category@std@@UAEPAXI@Z
_TEXT	SEGMENT
_this$ = -4						; size = 4
___flags$ = 8						; size = 4
??_Gerror_category@std@@UAEPAXI@Z PROC			; std::error_category::`scalar deleting destructor', COMDAT
; _this$ = ecx
	push	ebp
	mov	ebp, esp
	push	ecx
	mov	DWORD PTR _this$[ebp], ecx
	mov	ecx, DWORD PTR _this$[ebp]
	call	??1error_category@std@@UAE@XZ		; std::error_category::~error_category
	mov	eax, DWORD PTR ___flags$[ebp]
	and	eax, 1
	je	SHORT $LN1@scalar
	mov	ecx, DWORD PTR _this$[ebp]
	push	ecx
	call	??3@YAXPAX@Z				; operator delete
	add	esp, 4
$LN1@scalar:
	mov	eax, DWORD PTR _this$[ebp]
	mov	esp, ebp
	pop	ebp
	ret	4
??_Gerror_category@std@@UAEPAXI@Z ENDP			; std::error_category::`scalar deleting destructor'
_TEXT	ENDS
; Function compile flags: /Odtp
; File c:\program files (x86)\microsoft visual studio 11.0\vc\include\system_error
;	COMDAT ??8error_category@std@@QBE_NABV01@@Z
_TEXT	SEGMENT
_this$ = -8						; size = 4
tv65 = -4						; size = 4
__Right$ = 8						; size = 4
??8error_category@std@@QBE_NABV01@@Z PROC		; std::error_category::operator==, COMDAT
; _this$ = ecx

; 184  : 		{	// compare categories for equality

	push	ebp
	mov	ebp, esp
	sub	esp, 8
	mov	DWORD PTR _this$[ebp], ecx

; 185  : 		return (this == &_Right);

	mov	eax, DWORD PTR _this$[ebp]
	cmp	eax, DWORD PTR __Right$[ebp]
	jne	SHORT $LN3@operator
	mov	DWORD PTR tv65[ebp], 1
	jmp	SHORT $LN4@operator
$LN3@operator:
	mov	DWORD PTR tv65[ebp], 0
$LN4@operator:
	mov	al, BYTE PTR tv65[ebp]

; 186  : 		}

	mov	esp, ebp
	pop	ebp
	ret	4
??8error_category@std@@QBE_NABV01@@Z ENDP		; std::error_category::operator==
_TEXT	ENDS
; Function compile flags: /Odtp
; File c:\program files (x86)\microsoft visual studio 11.0\vc\include\system_error
;	COMDAT ?equivalent@error_category@std@@UBE_NABVerror_code@2@H@Z
_TEXT	SEGMENT
_this$ = -8						; size = 4
tv74 = -4						; size = 4
__Code$ = 8						; size = 4
__Errval$ = 12						; size = 4
?equivalent@error_category@std@@UBE_NABVerror_code@2@H@Z PROC ; std::error_category::equivalent, COMDAT
; _this$ = ecx

; 415  : 	{	// test if conditions same for this category

	push	ebp
	mov	ebp, esp
	sub	esp, 8
	mov	DWORD PTR _this$[ebp], ecx

; 416  : 	return (*this == _Code.category() && _Code.value() == _Errval);

	mov	ecx, DWORD PTR __Code$[ebp]
	call	?category@error_code@std@@QBEABVerror_category@2@XZ ; std::error_code::category
	push	eax
	mov	ecx, DWORD PTR _this$[ebp]
	call	??8error_category@std@@QBE_NABV01@@Z	; std::error_category::operator==
	movzx	eax, al
	test	eax, eax
	je	SHORT $LN3@equivalent
	mov	ecx, DWORD PTR __Code$[ebp]
	call	?value@error_code@std@@QBEHXZ		; std::error_code::value
	cmp	eax, DWORD PTR __Errval$[ebp]
	jne	SHORT $LN3@equivalent
	mov	DWORD PTR tv74[ebp], 1
	jmp	SHORT $LN4@equivalent
$LN3@equivalent:
	mov	DWORD PTR tv74[ebp], 0
$LN4@equivalent:
	mov	al, BYTE PTR tv74[ebp]

; 417  : 	}

	mov	esp, ebp
	pop	ebp
	ret	8
?equivalent@error_category@std@@UBE_NABVerror_code@2@H@Z ENDP ; std::error_category::equivalent
_TEXT	ENDS
; Function compile flags: /Odtp
; File c:\program files (x86)\microsoft visual studio 11.0\vc\include\system_error
;	COMDAT ?equivalent@error_category@std@@UBE_NHABVerror_condition@2@@Z
_TEXT	SEGMENT
$T1 = -12						; size = 8
_this$ = -4						; size = 4
__Errval$ = 8						; size = 4
__Cond$ = 12						; size = 4
?equivalent@error_category@std@@UBE_NHABVerror_condition@2@@Z PROC ; std::error_category::equivalent, COMDAT
; _this$ = ecx

; 408  : 	{	// test if error code same condition

	push	ebp
	mov	ebp, esp
	sub	esp, 12					; 0000000cH
	mov	DWORD PTR _this$[ebp], ecx

; 409  : 	return (default_error_condition(_Errval) == _Cond);

	mov	eax, DWORD PTR __Cond$[ebp]
	push	eax
	mov	ecx, DWORD PTR __Errval$[ebp]
	push	ecx
	lea	edx, DWORD PTR $T1[ebp]
	push	edx
	mov	eax, DWORD PTR _this$[ebp]
	mov	edx, DWORD PTR [eax]
	mov	ecx, DWORD PTR _this$[ebp]
	mov	eax, DWORD PTR [edx+12]
	call	eax
	mov	ecx, eax
	call	??8error_condition@std@@QBE_NABV01@@Z	; std::error_condition::operator==

; 410  : 	}

	mov	esp, ebp
	pop	ebp
	ret	8
?equivalent@error_category@std@@UBE_NHABVerror_condition@2@@Z ENDP ; std::error_category::equivalent
_TEXT	ENDS
; Function compile flags: /Odtp
; File c:\program files (x86)\microsoft visual studio 11.0\vc\include\system_error
;	COMDAT ?default_error_condition@error_category@std@@UBE?AVerror_condition@2@H@Z
_TEXT	SEGMENT
_this$ = -4						; size = 4
___$ReturnUdt$ = 8					; size = 4
__Errval$ = 12						; size = 4
?default_error_condition@error_category@std@@UBE?AVerror_condition@2@H@Z PROC ; std::error_category::default_error_condition, COMDAT
; _this$ = ecx

; 401  : 	{	// make error_condition for error code

	push	ebp
	mov	ebp, esp
	push	ecx
	mov	DWORD PTR _this$[ebp], ecx

; 402  : 	return (error_condition(_Errval, *this));

	mov	eax, DWORD PTR _this$[ebp]
	push	eax
	mov	ecx, DWORD PTR __Errval$[ebp]
	push	ecx
	mov	ecx, DWORD PTR ___$ReturnUdt$[ebp]
	call	??0error_condition@std@@QAE@HABVerror_category@1@@Z ; std::error_condition::error_condition
	mov	eax, DWORD PTR ___$ReturnUdt$[ebp]

; 403  : 	}

	mov	esp, ebp
	pop	ebp
	ret	8
?default_error_condition@error_category@std@@UBE?AVerror_condition@2@H@Z ENDP ; std::error_category::default_error_condition
_TEXT	ENDS
; Function compile flags: /Odtp
; File c:\program files (x86)\microsoft visual studio 11.0\vc\include\system_error
;	COMDAT ??1error_category@std@@UAE@XZ
_TEXT	SEGMENT
_this$ = -4						; size = 4
??1error_category@std@@UAE@XZ PROC			; std::error_category::~error_category, COMDAT
; _this$ = ecx

; 167  : 		{	// destroy the object

	push	ebp
	mov	ebp, esp
	push	ecx
	mov	DWORD PTR _this$[ebp], ecx
	mov	eax, DWORD PTR _this$[ebp]
	mov	DWORD PTR [eax], OFFSET ??_7error_category@std@@6B@

; 168  : 		}

	mov	esp, ebp
	pop	ebp
	ret	0
??1error_category@std@@UAE@XZ ENDP			; std::error_category::~error_category
_TEXT	ENDS
; Function compile flags: /Odtp
; File c:\program files (x86)\microsoft visual studio 11.0\vc\include\system_error
;	COMDAT ??0error_category@std@@QAE@XZ
_TEXT	SEGMENT
_this$ = -4						; size = 4
??0error_category@std@@QAE@XZ PROC			; std::error_category::error_category, COMDAT
; _this$ = ecx

; 162  : 	error_category()

	push	ebp
	mov	ebp, esp
	push	ecx
	mov	DWORD PTR _this$[ebp], ecx
	mov	eax, DWORD PTR _this$[ebp]
	mov	DWORD PTR [eax], OFFSET ??_7error_category@std@@6B@

; 163  : 		{	// default constructor
; 164  : 		}

	mov	eax, DWORD PTR _this$[ebp]
	mov	esp, ebp
	pop	ebp
	ret	0
??0error_category@std@@QAE@XZ ENDP			; std::error_category::error_category
_TEXT	ENDS
; Function compile flags: /Odtp
; File c:\program files (x86)\microsoft visual studio 11.0\vc\include\system_error
;	COMDAT ?system_category@std@@YAABVerror_category@1@XZ
_TEXT	SEGMENT
?system_category@std@@YAABVerror_category@1@XZ PROC	; std::system_category, COMDAT

; 679  : 	{	// get system_category

	push	ebp
	mov	ebp, esp

; 680  : 	return (_Error_objects<int>::_System_object);

	mov	eax, OFFSET ?_System_object@?$_Error_objects@H@std@@2V_System_error_category@2@A ; std::_Error_objects<int>::_System_object

; 681  : 	}

	pop	ebp
	ret	0
?system_category@std@@YAABVerror_category@1@XZ ENDP	; std::system_category
_TEXT	ENDS
; Function compile flags: /Odtp
; File c:\program files (x86)\microsoft visual studio 11.0\vc\include\system_error
;	COMDAT ?generic_category@std@@YAABVerror_category@1@XZ
_TEXT	SEGMENT
?generic_category@std@@YAABVerror_category@1@XZ PROC	; std::generic_category, COMDAT

; 669  : 	{	// get generic_category

	push	ebp
	mov	ebp, esp

; 670  : 	return (_Error_objects<int>::_Generic_object);

	mov	eax, OFFSET ?_Generic_object@?$_Error_objects@H@std@@2V_Generic_error_category@2@A ; std::_Error_objects<int>::_Generic_object

; 671  : 	}

	pop	ebp
	ret	0
?generic_category@std@@YAABVerror_category@1@XZ ENDP	; std::generic_category
_TEXT	ENDS
; Function compile flags: /Odtp
; File c:\program files (x86)\microsoft visual studio 11.0\vc\include\xlocale
;	COMDAT ??0id@locale@std@@QAE@I@Z
_TEXT	SEGMENT
_this$ = -4						; size = 4
__Val$ = 8						; size = 4
??0id@locale@std@@QAE@I@Z PROC				; std::locale::id::id, COMDAT
; _this$ = ecx

; 74   : 			{	// construct with specified stamp value

	push	ebp
	mov	ebp, esp
	push	ecx
	mov	DWORD PTR _this$[ebp], ecx
	mov	eax, DWORD PTR _this$[ebp]
	mov	ecx, DWORD PTR __Val$[ebp]
	mov	DWORD PTR [eax], ecx

; 75   : 			}

	mov	eax, DWORD PTR _this$[ebp]
	mov	esp, ebp
	pop	ebp
	ret	4
??0id@locale@std@@QAE@I@Z ENDP				; std::locale::id::id
_TEXT	ENDS
; Function compile flags: /Odtp
; File c:\users\zhitao li\documents\visual studio 2012\projects\freefalcon\sim\include\simbase.h
;	COMDAT ?GetCampaignObject@SimBaseClass@@QAEPAVCampBaseClass@@XZ
_TEXT	SEGMENT
_this$ = -4						; size = 4
?GetCampaignObject@SimBaseClass@@QAEPAVCampBaseClass@@XZ PROC ; SimBaseClass::GetCampaignObject, COMDAT
; _this$ = ecx

; 212  : 	CampBaseClass *GetCampaignObject (void) { return campaignObject.get(); }

	push	ebp
	mov	ebp, esp
	push	ecx
	mov	DWORD PTR _this$[ebp], ecx
	mov	ecx, DWORD PTR _this$[ebp]
	add	ecx, 144				; 00000090H
	call	?get@?$VuBin@VCampBaseClass@@@@QBEPAVCampBaseClass@@XZ ; VuBin<CampBaseClass>::get
	mov	esp, ebp
	pop	ebp
	ret	0
?GetCampaignObject@SimBaseClass@@QAEPAVCampBaseClass@@XZ ENDP ; SimBaseClass::GetCampaignObject
_TEXT	ENDS
; Function compile flags: /Odtp
; File c:\users\zhitao li\documents\visual studio 2012\projects\freefalcon\vu2\include\vu_templates.h
;	COMDAT ?get@?$VuBin@VCampBaseClass@@@@QBEPAVCampBaseClass@@XZ
_TEXT	SEGMENT
_this$ = -4						; size = 4
?get@?$VuBin@VCampBaseClass@@@@QBEPAVCampBaseClass@@XZ PROC ; VuBin<CampBaseClass>::get, COMDAT
; _this$ = ecx

; 55   : 	E *get() const{

	push	ebp
	mov	ebp, esp
	push	ecx
	mov	DWORD PTR _this$[ebp], ecx

; 56   : 		return e;

	mov	eax, DWORD PTR _this$[ebp]
	mov	eax, DWORD PTR [eax]

; 57   : 	}

	mov	esp, ebp
	pop	ebp
	ret	0
?get@?$VuBin@VCampBaseClass@@@@QBEPAVCampBaseClass@@XZ ENDP ; VuBin<CampBaseClass>::get
_TEXT	ENDS
; Function compile flags: /Odtp
; File c:\users\zhitao li\documents\visual studio 2012\projects\freefalcon\sim\radar\bscope.cpp
_TEXT	SEGMENT
tv354 = -52						; size = 4
tv346 = -48						; size = 4
tv163 = -44						; size = 4
_classPtr$ = -40					; size = 4
_campBase$1 = -36					; size = 4
_this$ = -32						; size = 4
_string$ = -28						; size = 24
__$ArrayPad$ = -4					; size = 4
_TWS$ = 8						; size = 1
?DrawNCTR@RadarDopplerClass@@IAEX_N@Z PROC		; RadarDopplerClass::DrawNCTR
; _this$ = ecx

; 2907 : {

	push	ebp
	mov	ebp, esp
	sub	esp, 52					; 00000034H
	mov	eax, DWORD PTR ___security_cookie
	xor	eax, ebp
	mov	DWORD PTR __$ArrayPad$[ebp], eax
	mov	DWORD PTR _this$[ebp], ecx

; 2908 : 	// 2002-02-25 ADDED BY S.G. If not capable of handling NCTR, then don't do it!
; 2909 : 	if (!(radarData->flag & RAD_NCTR))

	mov	eax, DWORD PTR _this$[ebp]
	mov	ecx, DWORD PTR [eax+80]
	movsx	edx, WORD PTR [ecx+56]
	and	edx, 1
	jne	SHORT $LN11@DrawNCTR

; 2910 : 		return;

	jmp	$LN12@DrawNCTR
$LN11@DrawNCTR:

; 2911 : 	// END OF ADDED SECTION 2002-02-25
; 2912 : 
; 2913 : 	display->SetColor(GetMfdColor (MFD_DEFAULT));

	push	0
	mov	ecx, DWORD PTR _this$[ebp]
	call	?GetMfdColor@DrawableClass@@QAEIW4MfdColor@@@Z ; DrawableClass::GetMfdColor
	push	eax
	mov	eax, DWORD PTR _this$[ebp]
	mov	ecx, DWORD PTR [eax+20]
	mov	edx, DWORD PTR _this$[ebp]
	mov	eax, DWORD PTR [ecx]
	mov	ecx, DWORD PTR [edx+20]
	mov	edx, DWORD PTR [eax+92]
	call	edx

; 2914 : #if 0 // old code
; 2915 : 	display->Tri(0.0F, 0.8F, 0.0F, 0.75F, nctrData*NCTR_BAR_WIDTH, 0.8F);
; 2916 : 	display->Tri(0.0F, 0.75F, nctrData*NCTR_BAR_WIDTH, 0.75F, nctrData*NCTR_BAR_WIDTH, 0.8F);
; 2917 : #else
; 2918 : 	// JPO start with some checks.
; 2919 : 	ShiAssert(FALSE == F4IsBadReadPtr(lockedTarget, sizeof *lockedTarget));
; 2920 : 	ShiAssert(lockedTarget->BaseData() != NULL);
; 2921 : 
; 2922 : 	// Marco Edit - here we display our NCTR data INSTEAD of the bar
; 2923 : 	// This was grabbed from Radar360.cpp (Easy Avionics radar/*	  
; 2924 : 	Falcon4EntityClassType *classPtr;
; 2925 : 	char string[24];
; 2926 : 	classPtr = (Falcon4EntityClassType*)lockedTarget->BaseData()->EntityType();

	mov	eax, DWORD PTR _this$[ebp]
	mov	ecx, DWORD PTR [eax+48]
	call	?BaseData@SimObjectType@@QAEPAVFalconEntity@@XZ ; SimObjectType::BaseData
	mov	ecx, eax
	call	?EntityType@VuEntity@@QBEPAUVuEntityType@@XZ ; VuEntity::EntityType
	mov	DWORD PTR _classPtr$[ebp], eax

; 2927 : 	ShiAssert(FALSE == F4IsBadReadPtr(classPtr, sizeof *classPtr));
; 2928 : 
; 2929 : 	// NCTR strength > 2.5 for TWS, 1.9 for NCTR
; 2930 : 	if (lockedTarget->BaseData()->IsSim() && 
; 2931 : 					!((SimBaseClass*)lockedTarget->BaseData())->IsExploding() && 
; 2932 : 					((!TWS && ReturnStrength(lockedTarget) > 1.9f)
; 2933 : 					 || (TWS && ReturnStrength(lockedTarget) > 2.5f)))

	mov	ecx, DWORD PTR _this$[ebp]
	mov	ecx, DWORD PTR [ecx+48]
	call	?BaseData@SimObjectType@@QAEPAVFalconEntity@@XZ ; SimObjectType::BaseData
	mov	ecx, eax
	call	?IsSim@FalconEntity@@QAEHXZ		; FalconEntity::IsSim
	test	eax, eax
	je	$LN10@DrawNCTR
	mov	edx, DWORD PTR _this$[ebp]
	mov	ecx, DWORD PTR [edx+48]
	call	?BaseData@SimObjectType@@QAEPAVFalconEntity@@XZ ; SimObjectType::BaseData
	mov	DWORD PTR tv163[ebp], eax
	mov	eax, DWORD PTR tv163[ebp]
	mov	edx, DWORD PTR [eax]
	mov	ecx, DWORD PTR tv163[ebp]
	mov	eax, DWORD PTR [edx+208]
	call	eax
	test	eax, eax
	jne	$LN10@DrawNCTR
	movzx	ecx, BYTE PTR _TWS$[ebp]
	test	ecx, ecx
	jne	SHORT $LN8@DrawNCTR
	mov	edx, DWORD PTR _this$[ebp]
	mov	eax, DWORD PTR [edx+48]
	push	eax
	mov	ecx, DWORD PTR _this$[ebp]
	mov	edx, DWORD PTR [ecx]
	mov	ecx, DWORD PTR _this$[ebp]
	mov	eax, DWORD PTR [edx+76]
	call	eax
	fstp	DWORD PTR tv346[ebp]
	movss	xmm0, DWORD PTR tv346[ebp]
	comiss	xmm0, DWORD PTR __real@3ff33333
	ja	SHORT $LN9@DrawNCTR
$LN8@DrawNCTR:
	movzx	ecx, BYTE PTR _TWS$[ebp]
	test	ecx, ecx
	je	$LN10@DrawNCTR
	mov	edx, DWORD PTR _this$[ebp]
	mov	eax, DWORD PTR [edx+48]
	push	eax
	mov	ecx, DWORD PTR _this$[ebp]
	mov	edx, DWORD PTR [ecx]
	mov	ecx, DWORD PTR _this$[ebp]
	mov	eax, DWORD PTR [edx+76]
	call	eax
	fstp	DWORD PTR tv354[ebp]
	movss	xmm0, DWORD PTR tv354[ebp]
	comiss	xmm0, DWORD PTR __real@40200000
	jbe	$LN10@DrawNCTR
$LN9@DrawNCTR:

; 2934 : 	{
; 2935 : 		if(
; 2936 : #if 1 // original marco
; 2937 : 						(lockedTargetData->ataFrom * RTD > -25.0 && 
; 2938 : 						 lockedTargetData->ataFrom * RTD < 25.0) &&
; 2939 : 						(lockedTargetData->elFrom * RTD > -25.0 && 
; 2940 : 						 lockedTargetData->elFrom * RTD < 25.0) )

	mov	ecx, DWORD PTR _this$[ebp]
	mov	edx, DWORD PTR [ecx+176]
	movss	xmm0, DWORD PTR [edx+4]
	mulss	xmm0, DWORD PTR __real@42652ee1
	cvtss2sd xmm0, xmm0
	comisd	xmm0, QWORD PTR __real@c039000000000000
	jbe	$LN7@DrawNCTR
	mov	eax, DWORD PTR _this$[ebp]
	mov	ecx, DWORD PTR [eax+176]
	movss	xmm0, DWORD PTR [ecx+4]
	mulss	xmm0, DWORD PTR __real@42652ee1
	cvtss2sd xmm0, xmm0
	movsd	xmm1, QWORD PTR __real@4039000000000000
	comisd	xmm1, xmm0
	jbe	$LN7@DrawNCTR
	mov	edx, DWORD PTR _this$[ebp]
	mov	eax, DWORD PTR [edx+176]
	movss	xmm0, DWORD PTR [eax+32]
	mulss	xmm0, DWORD PTR __real@42652ee1
	cvtss2sd xmm0, xmm0
	comisd	xmm0, QWORD PTR __real@c039000000000000
	jbe	$LN7@DrawNCTR
	mov	ecx, DWORD PTR _this$[ebp]
	mov	edx, DWORD PTR [ecx+176]
	movss	xmm0, DWORD PTR [edx+32]
	mulss	xmm0, DWORD PTR __real@42652ee1
	cvtss2sd xmm0, xmm0
	movsd	xmm1, QWORD PTR __real@4039000000000000
	comisd	xmm1, xmm0
	jbe	$LN7@DrawNCTR

; 2941 : #else // me123 suggestion
; 2942 : 			lockedTargetData->ataFrom*RTD < 45.0f)
; 2943 : #endif
; 2944 : 			{
; 2945 : 				// 5 = DTYPE_VEHICLE
; 2946 : 				if (classPtr->dataType == 5) 

	mov	eax, DWORD PTR _classPtr$[ebp]
	movzx	ecx, BYTE PTR [eax+76]
	cmp	ecx, 5
	jne	$LN6@DrawNCTR

; 2947 : 				{
; 2948 : 					ShiAssert(FALSE == F4IsBadReadPtr(classPtr->dataPtr, sizeof(VehicleClassDataType)));
; 2949 : 					sprintf (string, "%.4s", &((VehicleClassDataType*)(classPtr->dataPtr))->Name[15]);

	mov	edx, DWORD PTR _classPtr$[ebp]
	mov	eax, DWORD PTR [edx+77]
	mov	ecx, 1
	imul	ecx, 15					; 0000000fH
	lea	edx, DWORD PTR [eax+ecx+8]
	push	edx
	push	OFFSET ??_C@_04FHGBBHOC@?$CF?44s?$AA@
	lea	eax, DWORD PTR _string$[ebp]
	push	eax
	call	_sprintf
	add	esp, 12					; 0000000cH

; 2950 : 					// 2002-02-25 ADDED BY S.G. If we get the type of the vehicle, then we've identified it (this code is not CPU intensive, even if ran on every frame)
; 2951 : 					CampBaseClass *campBase;
; 2952 : 					if (lockedTarget->BaseData()->IsSim())

	mov	ecx, DWORD PTR _this$[ebp]
	mov	ecx, DWORD PTR [ecx+48]
	call	?BaseData@SimObjectType@@QAEPAVFalconEntity@@XZ ; SimObjectType::BaseData
	mov	ecx, eax
	call	?IsSim@FalconEntity@@QAEHXZ		; FalconEntity::IsSim
	test	eax, eax
	je	SHORT $LN5@DrawNCTR

; 2953 : 						campBase = ((SimBaseClass *)lockedTarget->BaseData())->GetCampaignObject();

	mov	edx, DWORD PTR _this$[ebp]
	mov	ecx, DWORD PTR [edx+48]
	call	?BaseData@SimObjectType@@QAEPAVFalconEntity@@XZ ; SimObjectType::BaseData
	mov	ecx, eax
	call	?GetCampaignObject@SimBaseClass@@QAEPAVCampBaseClass@@XZ ; SimBaseClass::GetCampaignObject
	mov	DWORD PTR _campBase$1[ebp], eax

; 2954 : 					else

	jmp	SHORT $LN4@DrawNCTR
$LN5@DrawNCTR:

; 2955 : 						campBase = ((CampBaseClass *)lockedTarget->BaseData());

	mov	eax, DWORD PTR _this$[ebp]
	mov	ecx, DWORD PTR [eax+48]
	call	?BaseData@SimObjectType@@QAEPAVFalconEntity@@XZ ; SimObjectType::BaseData
	mov	DWORD PTR _campBase$1[ebp], eax
$LN4@DrawNCTR:

; 2956 : 					campBase->SetSpotted(platform->GetTeam(), TheCampaign.CurrentTime, 1);

	push	1
	mov	ecx, DWORD PTR ?TheCampaign@@3VCampaignClass@@A
	push	ecx
	mov	edx, DWORD PTR _this$[ebp]
	mov	eax, DWORD PTR [edx+32]
	mov	ecx, DWORD PTR _this$[ebp]
	mov	edx, DWORD PTR [eax]
	mov	ecx, DWORD PTR [ecx+32]
	mov	eax, DWORD PTR [edx+116]
	call	eax
	movzx	ecx, al
	push	ecx
	mov	ecx, DWORD PTR _campBase$1[ebp]
	call	?SetSpotted@CampBaseClass@@QAEXEKH@Z	; CampBaseClass::SetSpotted

; 2957 : 					// END OF ADDED SECTION 2002-02-25
; 2958 : 				}
; 2959 : 				else

	jmp	SHORT $LN3@DrawNCTR
$LN6@DrawNCTR:

; 2960 : 					sprintf(string, "%s", "UNKN");

	push	OFFSET ??_C@_04KANAGHPN@UNKN?$AA@
	push	OFFSET ??_C@_02DKCKIIND@?$CFs?$AA@
	lea	edx, DWORD PTR _string$[ebp]
	push	edx
	call	_sprintf
	add	esp, 12					; 0000000cH
$LN3@DrawNCTR:

; 2961 : 			}
; 2962 : 		else

	jmp	SHORT $LN2@DrawNCTR
$LN7@DrawNCTR:

; 2963 : 			sprintf(string, "%s", "UNKN");

	push	OFFSET ??_C@_04KANAGHPN@UNKN?$AA@
	push	OFFSET ??_C@_02DKCKIIND@?$CFs?$AA@
	lea	eax, DWORD PTR _string$[ebp]
	push	eax
	call	_sprintf
	add	esp, 12					; 0000000cH
$LN2@DrawNCTR:

; 2964 : 	}
; 2965 : 	else 

	jmp	SHORT $LN1@DrawNCTR
$LN10@DrawNCTR:

; 2966 : 	{
; 2967 : 		sprintf (string, "%s", "WAIT");

	push	OFFSET ??_C@_04DBNKAKHO@WAIT?$AA@
	push	OFFSET ??_C@_02DKCKIIND@?$CFs?$AA@
	lea	ecx, DWORD PTR _string$[ebp]
	push	ecx
	call	_sprintf
	add	esp, 12					; 0000000cH
$LN1@DrawNCTR:

; 2968 : 	}
; 2969 : 	ShiAssert( strlen(string) < sizeof(string) );
; 2970 : 	display->TextCenter(0.0F, 0.75F, string);

	push	0
	lea	edx, DWORD PTR _string$[ebp]
	push	edx
	push	ecx
	movss	xmm0, DWORD PTR __real@3f400000
	movss	DWORD PTR [esp], xmm0
	push	ecx
	movss	xmm0, DWORD PTR __real@00000000
	movss	DWORD PTR [esp], xmm0
	mov	eax, DWORD PTR _this$[ebp]
	mov	ecx, DWORD PTR [eax+20]
	mov	edx, DWORD PTR _this$[ebp]
	mov	eax, DWORD PTR [ecx]
	mov	ecx, DWORD PTR [edx+20]
	mov	edx, DWORD PTR [eax+72]
	call	edx
$LN12@DrawNCTR:

; 2971 : 	// End Marco Edit
; 2972 : #endif
; 2973 : }

	mov	ecx, DWORD PTR __$ArrayPad$[ebp]
	xor	ecx, ebp
	call	@__security_check_cookie@4
	mov	esp, ebp
	pop	ebp
	ret	4
?DrawNCTR@RadarDopplerClass@@IAEX_N@Z ENDP		; RadarDopplerClass::DrawNCTR
_TEXT	ENDS
; Function compile flags: /Odtp
; File c:\users\zhitao li\documents\visual studio 2012\projects\freefalcon\sim\radar\bscope.cpp
_TEXT	SEGMENT
_this$ = -4						; size = 4
_x$ = 8							; size = 4
_y$ = 12						; size = 4
_type$ = 16						; size = 4
?GetBuggedIFF@RadarDopplerClass@@QAEXPAM0PAH@Z PROC	; RadarDopplerClass::GetBuggedIFF
; _this$ = ecx

; 3160 : {

	push	ebp
	mov	ebp, esp
	push	ecx
	mov	DWORD PTR _this$[ebp], ecx

; 3161 : }

	mov	esp, ebp
	pop	ebp
	ret	12					; 0000000cH
?GetBuggedIFF@RadarDopplerClass@@QAEXPAM0PAH@Z ENDP	; RadarDopplerClass::GetBuggedIFF
_TEXT	ENDS
; Function compile flags: /Odtp
; File c:\users\zhitao li\documents\visual studio 2012\projects\freefalcon\sim\radar\bscope.cpp
_TEXT	SEGMENT
_this$ = -4						; size = 4
_i$ = 8							; size = 4
?GetCurScanMode@RadarDopplerClass@@QAEHH@Z PROC		; RadarDopplerClass::GetCurScanMode
; _this$ = ecx

; 846  : {

	push	ebp
	mov	ebp, esp
	push	ecx
	mov	DWORD PTR _this$[ebp], ecx

; 847  : 	return 0;

	xor	eax, eax

; 848  : }

	mov	esp, ebp
	pop	ebp
	ret	4
?GetCurScanMode@RadarDopplerClass@@QAEHH@Z ENDP		; RadarDopplerClass::GetCurScanMode
_TEXT	ENDS
; Function compile flags: /Odtp
; File c:\users\zhitao li\documents\visual studio 2012\projects\freefalcon\sim\radar\bscope.cpp
_TEXT	SEGMENT
_this$ = -4						; size = 4
?UpdateLOSScan@RadarDopplerClass@@QAEXXZ PROC		; RadarDopplerClass::UpdateLOSScan
; _this$ = ecx

; 3156 : {

	push	ebp
	mov	ebp, esp
	push	ecx
	mov	DWORD PTR _this$[ebp], ecx

; 3157 : }

	mov	esp, ebp
	pop	ebp
	ret	0
?UpdateLOSScan@RadarDopplerClass@@QAEXXZ ENDP		; RadarDopplerClass::UpdateLOSScan
_TEXT	ENDS
; Function compile flags: /Odtp
; File c:\users\zhitao li\documents\visual studio 2012\projects\freefalcon\sim\radar\bscope.cpp
_TEXT	SEGMENT
_this$ = -4						; size = 4
?DrawIFFStatus@RadarDopplerClass@@QAEXXZ PROC		; RadarDopplerClass::DrawIFFStatus
; _this$ = ecx

; 843  : {

	push	ebp
	mov	ebp, esp
	push	ecx
	mov	DWORD PTR _this$[ebp], ecx

; 844  : }

	mov	esp, ebp
	pop	ebp
	ret	0
?DrawIFFStatus@RadarDopplerClass@@QAEXXZ ENDP		; RadarDopplerClass::DrawIFFStatus
_TEXT	ENDS
; Function compile flags: /Odtp
; File c:\users\zhitao li\documents\visual studio 2012\projects\freefalcon\sim\radar\bscope.cpp
_TEXT	SEGMENT
_this$ = -4						; size = 4
_Dir$ = 8						; size = 4
?SetInterogateTimer@RadarDopplerClass@@QAEXH@Z PROC	; RadarDopplerClass::SetInterogateTimer
; _this$ = ecx

; 3152 : {

	push	ebp
	mov	ebp, esp
	push	ecx
	mov	DWORD PTR _this$[ebp], ecx

; 3153 : }

	mov	esp, ebp
	pop	ebp
	ret	4
?SetInterogateTimer@RadarDopplerClass@@QAEXH@Z ENDP	; RadarDopplerClass::SetInterogateTimer
_TEXT	ENDS
; Function compile flags: /Odtp
; File c:\users\zhitao li\documents\visual studio 2012\projects\freefalcon\sim\radar\bscope.cpp
_TEXT	SEGMENT
_this$ = -8						; size = 4
_retval$ = -4						; size = 4
_rdrObj$ = 8						; size = 4
_lockedTarget$ = 12					; size = 4
?GetInterogate@RadarDopplerClass@@QAEHPAVSimObjectType@@0@Z PROC ; RadarDopplerClass::GetInterogate
; _this$ = ecx

; 576  : {

	push	ebp
	mov	ebp, esp
	sub	esp, 8
	mov	DWORD PTR _this$[ebp], ecx

; 577  : 	int retval = -1;

	mov	DWORD PTR _retval$[ebp], -1

; 578  : 	return retval;

	mov	eax, DWORD PTR _retval$[ebp]

; 579  : }

	mov	esp, ebp
	pop	ebp
	ret	8
?GetInterogate@RadarDopplerClass@@QAEHPAVSimObjectType@@0@Z ENDP ; RadarDopplerClass::GetInterogate
_TEXT	ENDS
; Function compile flags: /Odtp
; File c:\users\zhitao li\documents\visual studio 2012\projects\freefalcon\sim\radar\bscope.cpp
_TEXT	SEGMENT
_az$ = -12						; size = 4
_theTarget$ = -8					; size = 4
_this$ = -4						; size = 4
?DrawTargets@RadarDopplerClass@@IAEXXZ PROC		; RadarDopplerClass::DrawTargets
; _this$ = ecx

; 551  : {

	push	ebp
	mov	ebp, esp
	sub	esp, 12					; 0000000cH
	mov	DWORD PTR _this$[ebp], ecx

; 552  : 	float az;
; 553  : 	SimObjectType* theTarget = platform->targetList;

	mov	eax, DWORD PTR _this$[ebp]
	mov	ecx, DWORD PTR [eax+32]
	mov	edx, DWORD PTR [ecx+660]
	mov	DWORD PTR _theTarget$[ebp], edx
$LN3@DrawTarget:

; 554  : 
; 555  : 	while (theTarget)

	cmp	DWORD PTR _theTarget$[ebp], 0
	je	$LN2@DrawTarget

; 556  : 	{
; 557  : 		if (theTarget->localData->sensorState[Radar] == SensorTrack)

	mov	eax, DWORD PTR _theTarget$[ebp]
	mov	ecx, DWORD PTR [eax+12]
	mov	edx, 4
	shl	edx, 0
	cmp	DWORD PTR [ecx+edx+192], 3
	jne	$LN1@DrawTarget

; 558  : 		{
; 559  : 			az = TargetAz (platform, theTarget->BaseData()->XPos(),
; 560  : 							theTarget->BaseData()->YPos());

	mov	ecx, DWORD PTR _theTarget$[ebp]
	call	?BaseData@SimObjectType@@QAEPAVFalconEntity@@XZ ; SimObjectType::BaseData
	mov	ecx, eax
	call	?YPos@VuEntity@@QBEMXZ			; VuEntity::YPos
	push	ecx
	fstp	DWORD PTR [esp]
	mov	ecx, DWORD PTR _theTarget$[ebp]
	call	?BaseData@SimObjectType@@QAEPAVFalconEntity@@XZ ; SimObjectType::BaseData
	mov	ecx, eax
	call	?XPos@VuEntity@@QBEMXZ			; VuEntity::XPos
	push	ecx
	fstp	DWORD PTR [esp]
	mov	eax, DWORD PTR _this$[ebp]
	mov	ecx, DWORD PTR [eax+32]
	push	ecx
	call	?TargetAz@@YAMPAVFalconEntity@@MM@Z	; TargetAz
	add	esp, 12					; 0000000cH
	fstp	DWORD PTR _az$[ebp]

; 561  : 
; 562  : 			display->AdjustOriginInViewport (az * disDeg,
; 563  : 							-1.0F + 2.0F * theTarget->localData->range / tdisplayRange);

	mov	edx, DWORD PTR _theTarget$[ebp]
	mov	eax, DWORD PTR [edx+12]
	movss	xmm0, DWORD PTR __real@40000000
	mulss	xmm0, DWORD PTR [eax+44]
	mov	ecx, DWORD PTR _this$[ebp]
	divss	xmm0, DWORD PTR [ecx+264]
	addss	xmm0, DWORD PTR __real@bf800000
	push	ecx
	movss	DWORD PTR [esp], xmm0
	movss	xmm0, DWORD PTR _az$[ebp]
	mulss	xmm0, DWORD PTR _disDeg
	push	ecx
	movss	DWORD PTR [esp], xmm0
	mov	edx, DWORD PTR _this$[ebp]
	mov	ecx, DWORD PTR [edx+20]
	call	?AdjustOriginInViewport@VirtualDisplay@@QAEXMM@Z ; VirtualDisplay::AdjustOriginInViewport

; 564  : 			display->Line (-0.025F, -0.025F, -0.025F,  0.025F);

	push	ecx
	movss	xmm0, DWORD PTR __real@3ccccccd
	movss	DWORD PTR [esp], xmm0
	push	ecx
	movss	xmm0, DWORD PTR __real@bccccccd
	movss	DWORD PTR [esp], xmm0
	push	ecx
	movss	xmm0, DWORD PTR __real@bccccccd
	movss	DWORD PTR [esp], xmm0
	push	ecx
	movss	xmm0, DWORD PTR __real@bccccccd
	movss	DWORD PTR [esp], xmm0
	mov	eax, DWORD PTR _this$[ebp]
	mov	ecx, DWORD PTR [eax+20]
	mov	edx, DWORD PTR _this$[ebp]
	mov	eax, DWORD PTR [ecx]
	mov	ecx, DWORD PTR [edx+20]
	mov	edx, DWORD PTR [eax+32]
	call	edx

; 565  : 			display->Line ( 0.025F, -0.025F,  0.025F,  0.025F);

	push	ecx
	movss	xmm0, DWORD PTR __real@3ccccccd
	movss	DWORD PTR [esp], xmm0
	push	ecx
	movss	xmm0, DWORD PTR __real@3ccccccd
	movss	DWORD PTR [esp], xmm0
	push	ecx
	movss	xmm0, DWORD PTR __real@bccccccd
	movss	DWORD PTR [esp], xmm0
	push	ecx
	movss	xmm0, DWORD PTR __real@3ccccccd
	movss	DWORD PTR [esp], xmm0
	mov	eax, DWORD PTR _this$[ebp]
	mov	ecx, DWORD PTR [eax+20]
	mov	edx, DWORD PTR _this$[ebp]
	mov	eax, DWORD PTR [ecx]
	mov	ecx, DWORD PTR [edx+20]
	mov	edx, DWORD PTR [eax+32]
	call	edx

; 566  : 			display->Line (-0.025F, -0.025F,  0.025F, -0.025F);

	push	ecx
	movss	xmm0, DWORD PTR __real@bccccccd
	movss	DWORD PTR [esp], xmm0
	push	ecx
	movss	xmm0, DWORD PTR __real@3ccccccd
	movss	DWORD PTR [esp], xmm0
	push	ecx
	movss	xmm0, DWORD PTR __real@bccccccd
	movss	DWORD PTR [esp], xmm0
	push	ecx
	movss	xmm0, DWORD PTR __real@bccccccd
	movss	DWORD PTR [esp], xmm0
	mov	eax, DWORD PTR _this$[ebp]
	mov	ecx, DWORD PTR [eax+20]
	mov	edx, DWORD PTR _this$[ebp]
	mov	eax, DWORD PTR [ecx]
	mov	ecx, DWORD PTR [edx+20]
	mov	edx, DWORD PTR [eax+32]
	call	edx

; 567  : 			display->Line ( 0.025F,  0.025F, -0.025F,  0.025F);

	push	ecx
	movss	xmm0, DWORD PTR __real@3ccccccd
	movss	DWORD PTR [esp], xmm0
	push	ecx
	movss	xmm0, DWORD PTR __real@bccccccd
	movss	DWORD PTR [esp], xmm0
	push	ecx
	movss	xmm0, DWORD PTR __real@3ccccccd
	movss	DWORD PTR [esp], xmm0
	push	ecx
	movss	xmm0, DWORD PTR __real@3ccccccd
	movss	DWORD PTR [esp], xmm0
	mov	eax, DWORD PTR _this$[ebp]
	mov	ecx, DWORD PTR [eax+20]
	mov	edx, DWORD PTR _this$[ebp]
	mov	eax, DWORD PTR [ecx]
	mov	ecx, DWORD PTR [edx+20]
	mov	edx, DWORD PTR [eax+32]
	call	edx

; 568  : 			display->CenterOriginInViewport();

	mov	eax, DWORD PTR _this$[ebp]
	mov	ecx, DWORD PTR [eax+20]
	call	?CenterOriginInViewport@VirtualDisplay@@QAEXXZ ; VirtualDisplay::CenterOriginInViewport
$LN1@DrawTarget:

; 569  : 		}
; 570  : 
; 571  : 		theTarget = theTarget->next;

	mov	ecx, DWORD PTR _theTarget$[ebp]
	mov	edx, DWORD PTR [ecx+16]
	mov	DWORD PTR _theTarget$[ebp], edx

; 572  : 	}

	jmp	$LN3@DrawTarget
$LN2@DrawTarget:

; 573  : }

	mov	esp, ebp
	pop	ebp
	ret	0
?DrawTargets@RadarDopplerClass@@IAEXXZ ENDP		; RadarDopplerClass::DrawTargets
_TEXT	ENDS
; Function compile flags: /Odtp
; File c:\users\zhitao li\documents\visual studio 2012\projects\freefalcon\sim\radar\bscope.cpp
_TEXT	SEGMENT
_posStep$ = -16						; size = 4
_i$ = -12						; size = 4
_this$ = -8						; size = 4
_curPos$ = -4						; size = 4
?DrawAzElTicks@RadarDopplerClass@@IAEXXZ PROC		; RadarDopplerClass::DrawAzElTicks
; _this$ = ecx

; 582  : {

	push	ebp
	mov	ebp, esp
	sub	esp, 16					; 00000010H
	mov	DWORD PTR _this$[ebp], ecx

; 583  : 	int i;
; 584  : 	float posStep;
; 585  : 	float curPos;
; 586  : 
; 587  : 	if (IsAADclt(AzBar)) return;

	push	32768					; 00008000H
	mov	ecx, DWORD PTR _this$[ebp]
	call	?IsAADclt@RadarDopplerClass@@IAEHH@Z	; RadarDopplerClass::IsAADclt
	test	eax, eax
	je	SHORT $LN18@DrawAzElTi
	jmp	$LN19@DrawAzElTi
$LN18@DrawAzElTi:

; 588  : 	/*------------------------------------------*/
; 589  : 	/* elevation ticks -30 deg to +30 by 10 deg */
; 590  : 	/*------------------------------------------*/
; 591  : 	display->SetColor(GetMfdColor(MFD_LABELS));

	push	0
	mov	ecx, DWORD PTR _this$[ebp]
	call	?GetMfdColor@DrawableClass@@QAEIW4MfdColor@@@Z ; DrawableClass::GetMfdColor
	push	eax
	mov	eax, DWORD PTR _this$[ebp]
	mov	ecx, DWORD PTR [eax+20]
	mov	edx, DWORD PTR _this$[ebp]
	mov	eax, DWORD PTR [ecx]
	mov	ecx, DWORD PTR [edx+20]
	mov	edx, DWORD PTR [eax+92]
	call	edx

; 592  : 	//MI
; 593  : 	if(!g_bRealisticAvionics)

	movzx	eax, BYTE PTR ?g_bRealisticAvionics@@3_NA ; g_bRealisticAvionics
	test	eax, eax
	jne	$LN17@DrawAzElTi

; 594  : 	{
; 595  : 		posStep = (DisplayAreaViewTop - DisplayAreaViewBottom) / 6.0F;

	movss	xmm0, DWORD PTR _DisplayAreaViewTop
	subss	xmm0, DWORD PTR _DisplayAreaViewBottom
	divss	xmm0, DWORD PTR __real@40c00000
	movss	DWORD PTR _posStep$[ebp], xmm0

; 596  : 		curPos = DisplayAreaViewBottom;

	movss	xmm0, DWORD PTR _DisplayAreaViewBottom
	movss	DWORD PTR _curPos$[ebp], xmm0

; 597  : 		for (i=0; i<7; i++)

	mov	DWORD PTR _i$[ebp], 0
	jmp	SHORT $LN16@DrawAzElTi
$LN15@DrawAzElTi:
	mov	ecx, DWORD PTR _i$[ebp]
	add	ecx, 1
	mov	DWORD PTR _i$[ebp], ecx
$LN16@DrawAzElTi:
	cmp	DWORD PTR _i$[ebp], 7
	jge	SHORT $LN14@DrawAzElTi

; 598  : 		{
; 599  : 			if (1 != i)

	cmp	DWORD PTR _i$[ebp], 1
	je	SHORT $LN13@DrawAzElTi

; 600  : 				display->Line (DisplayAreaViewLeft - 0.01F, curPos,
; 601  : 								DisplayAreaViewLeft - 0.04F, curPos);

	push	ecx
	movss	xmm0, DWORD PTR _curPos$[ebp]
	movss	DWORD PTR [esp], xmm0
	movss	xmm0, DWORD PTR _DisplayAreaViewLeft
	subss	xmm0, DWORD PTR __real@3d23d70a
	push	ecx
	movss	DWORD PTR [esp], xmm0
	push	ecx
	movss	xmm0, DWORD PTR _curPos$[ebp]
	movss	DWORD PTR [esp], xmm0
	movss	xmm0, DWORD PTR _DisplayAreaViewLeft
	subss	xmm0, DWORD PTR __real@3c23d70a
	push	ecx
	movss	DWORD PTR [esp], xmm0
	mov	edx, DWORD PTR _this$[ebp]
	mov	eax, DWORD PTR [edx+20]
	mov	ecx, DWORD PTR _this$[ebp]
	mov	edx, DWORD PTR [eax]
	mov	ecx, DWORD PTR [ecx+20]
	mov	eax, DWORD PTR [edx+32]
	call	eax
$LN13@DrawAzElTi:

; 602  : 			curPos += posStep;

	movss	xmm0, DWORD PTR _curPos$[ebp]
	addss	xmm0, DWORD PTR _posStep$[ebp]
	movss	DWORD PTR _curPos$[ebp], xmm0

; 603  : 		}

	jmp	SHORT $LN15@DrawAzElTi
$LN14@DrawAzElTi:

; 604  : 	}
; 605  : 	else

	jmp	$LN9@DrawAzElTi
$LN17@DrawAzElTi:

; 606  : 	{
; 607  : 		posStep = (DisplayAreaViewTop - DisplayAreaViewBottom) / 12.0F;

	movss	xmm0, DWORD PTR _DisplayAreaViewTop
	subss	xmm0, DWORD PTR _DisplayAreaViewBottom
	divss	xmm0, DWORD PTR __real@41400000
	movss	DWORD PTR _posStep$[ebp], xmm0

; 608  : 		curPos = 0;

	movss	xmm0, DWORD PTR __real@00000000
	movss	DWORD PTR _curPos$[ebp], xmm0

; 609  : 		display->Line(DisplayAreaViewLeft + 0.05F, curPos, DisplayAreaViewLeft - 0.04F, curPos);

	push	ecx
	movss	xmm0, DWORD PTR _curPos$[ebp]
	movss	DWORD PTR [esp], xmm0
	movss	xmm0, DWORD PTR _DisplayAreaViewLeft
	subss	xmm0, DWORD PTR __real@3d23d70a
	push	ecx
	movss	DWORD PTR [esp], xmm0
	push	ecx
	movss	xmm0, DWORD PTR _curPos$[ebp]
	movss	DWORD PTR [esp], xmm0
	movss	xmm0, DWORD PTR _DisplayAreaViewLeft
	addss	xmm0, DWORD PTR __real@3d4ccccd
	push	ecx
	movss	DWORD PTR [esp], xmm0
	mov	ecx, DWORD PTR _this$[ebp]
	mov	edx, DWORD PTR [ecx+20]
	mov	eax, DWORD PTR _this$[ebp]
	mov	edx, DWORD PTR [edx]
	mov	ecx, DWORD PTR [eax+20]
	mov	eax, DWORD PTR [edx+32]
	call	eax

; 610  : 		for (i = 0; i < 4; i++)

	mov	DWORD PTR _i$[ebp], 0
	jmp	SHORT $LN11@DrawAzElTi
$LN10@DrawAzElTi:
	mov	ecx, DWORD PTR _i$[ebp]
	add	ecx, 1
	mov	DWORD PTR _i$[ebp], ecx
$LN11@DrawAzElTi:
	cmp	DWORD PTR _i$[ebp], 4
	jge	$LN9@DrawAzElTi

; 611  : 		{
; 612  : 			display->Line(DisplayAreaViewLeft + 0.01F, curPos,
; 613  : 							DisplayAreaViewLeft - 0.04F, curPos);

	push	ecx
	movss	xmm0, DWORD PTR _curPos$[ebp]
	movss	DWORD PTR [esp], xmm0
	movss	xmm0, DWORD PTR _DisplayAreaViewLeft
	subss	xmm0, DWORD PTR __real@3d23d70a
	push	ecx
	movss	DWORD PTR [esp], xmm0
	push	ecx
	movss	xmm0, DWORD PTR _curPos$[ebp]
	movss	DWORD PTR [esp], xmm0
	movss	xmm0, DWORD PTR _DisplayAreaViewLeft
	addss	xmm0, DWORD PTR __real@3c23d70a
	push	ecx
	movss	DWORD PTR [esp], xmm0
	mov	edx, DWORD PTR _this$[ebp]
	mov	eax, DWORD PTR [edx+20]
	mov	ecx, DWORD PTR _this$[ebp]
	mov	edx, DWORD PTR [eax]
	mov	ecx, DWORD PTR [ecx+20]
	mov	eax, DWORD PTR [edx+32]
	call	eax

; 614  : 			display->Line(DisplayAreaViewLeft + 0.01F, -curPos,
; 615  : 							DisplayAreaViewLeft - 0.04F, -curPos);

	movss	xmm0, DWORD PTR _curPos$[ebp]
	xorps	xmm0, DWORD PTR __xmm@80000000800000008000000080000000
	push	ecx
	movss	DWORD PTR [esp], xmm0
	movss	xmm0, DWORD PTR _DisplayAreaViewLeft
	subss	xmm0, DWORD PTR __real@3d23d70a
	push	ecx
	movss	DWORD PTR [esp], xmm0
	movss	xmm0, DWORD PTR _curPos$[ebp]
	xorps	xmm0, DWORD PTR __xmm@80000000800000008000000080000000
	push	ecx
	movss	DWORD PTR [esp], xmm0
	movss	xmm0, DWORD PTR _DisplayAreaViewLeft
	addss	xmm0, DWORD PTR __real@3c23d70a
	push	ecx
	movss	DWORD PTR [esp], xmm0
	mov	ecx, DWORD PTR _this$[ebp]
	mov	edx, DWORD PTR [ecx+20]
	mov	eax, DWORD PTR _this$[ebp]
	mov	edx, DWORD PTR [edx]
	mov	ecx, DWORD PTR [eax+20]
	mov	eax, DWORD PTR [edx+32]
	call	eax

; 616  : 			curPos += posStep;

	movss	xmm0, DWORD PTR _curPos$[ebp]
	addss	xmm0, DWORD PTR _posStep$[ebp]
	movss	DWORD PTR _curPos$[ebp], xmm0

; 617  : 		}

	jmp	$LN10@DrawAzElTi
$LN9@DrawAzElTi:

; 618  : 	}
; 619  : 
; 620  : 	/*----------------------------------------*/
; 621  : 	/* Azimuth ticks -30 deg to +30 by 10 deg */
; 622  : 	/*----------------------------------------*/
; 623  : 	if(!g_bRealisticAvionics)	//MI this is not correct

	movzx	ecx, BYTE PTR ?g_bRealisticAvionics@@3_NA ; g_bRealisticAvionics
	test	ecx, ecx
	jne	$LN8@DrawAzElTi

; 624  : 	{
; 625  : 		posStep = (DisplayAreaViewRight - DisplayAreaViewLeft) / 6.0F;

	movss	xmm0, DWORD PTR _DisplayAreaViewRight
	subss	xmm0, DWORD PTR _DisplayAreaViewLeft
	divss	xmm0, DWORD PTR __real@40c00000
	movss	DWORD PTR _posStep$[ebp], xmm0

; 626  : 		curPos = DisplayAreaViewLeft;

	movss	xmm0, DWORD PTR _DisplayAreaViewLeft
	movss	DWORD PTR _curPos$[ebp], xmm0

; 627  : 		for (i=0; i<7; i++)

	mov	DWORD PTR _i$[ebp], 0
	jmp	SHORT $LN7@DrawAzElTi
$LN6@DrawAzElTi:
	mov	edx, DWORD PTR _i$[ebp]
	add	edx, 1
	mov	DWORD PTR _i$[ebp], edx
$LN7@DrawAzElTi:
	cmp	DWORD PTR _i$[ebp], 7
	jge	SHORT $LN5@DrawAzElTi

; 628  : 		{ 
; 629  : 			display->Line (curPos, DisplayAreaViewBottom - 0.01F, 
; 630  : 							curPos, DisplayAreaViewBottom - 0.04F);

	movss	xmm0, DWORD PTR _DisplayAreaViewBottom
	subss	xmm0, DWORD PTR __real@3d23d70a
	push	ecx
	movss	DWORD PTR [esp], xmm0
	push	ecx
	movss	xmm0, DWORD PTR _curPos$[ebp]
	movss	DWORD PTR [esp], xmm0
	movss	xmm0, DWORD PTR _DisplayAreaViewBottom
	subss	xmm0, DWORD PTR __real@3c23d70a
	push	ecx
	movss	DWORD PTR [esp], xmm0
	push	ecx
	movss	xmm0, DWORD PTR _curPos$[ebp]
	movss	DWORD PTR [esp], xmm0
	mov	eax, DWORD PTR _this$[ebp]
	mov	ecx, DWORD PTR [eax+20]
	mov	edx, DWORD PTR _this$[ebp]
	mov	eax, DWORD PTR [ecx]
	mov	ecx, DWORD PTR [edx+20]
	mov	edx, DWORD PTR [eax+32]
	call	edx

; 631  : 			curPos += posStep;	

	movss	xmm0, DWORD PTR _curPos$[ebp]
	addss	xmm0, DWORD PTR _posStep$[ebp]
	movss	DWORD PTR _curPos$[ebp], xmm0

; 632  : 		}

	jmp	SHORT $LN6@DrawAzElTi
$LN5@DrawAzElTi:

; 633  : 	}
; 634  : 	else

	jmp	$LN1@DrawAzElTi
$LN8@DrawAzElTi:

; 635  : 	{
; 636  : 		//our scope has 120, not only 60
; 637  : 		posStep = (DisplayAreaViewRight - DisplayAreaViewLeft) / 12.0F;

	movss	xmm0, DWORD PTR _DisplayAreaViewRight
	subss	xmm0, DWORD PTR _DisplayAreaViewLeft
	divss	xmm0, DWORD PTR __real@41400000
	movss	DWORD PTR _posStep$[ebp], xmm0

; 638  : 		curPos = 0;

	movss	xmm0, DWORD PTR __real@00000000
	movss	DWORD PTR _curPos$[ebp], xmm0

; 639  : 		display->Line(curPos, DisplayAreaViewBottom - 0.15F,
; 640  : 						curPos, DisplayAreaViewBottom - 0.06F);

	movss	xmm0, DWORD PTR _DisplayAreaViewBottom
	subss	xmm0, DWORD PTR __real@3d75c28f
	push	ecx
	movss	DWORD PTR [esp], xmm0
	push	ecx
	movss	xmm0, DWORD PTR _curPos$[ebp]
	movss	DWORD PTR [esp], xmm0
	movss	xmm0, DWORD PTR _DisplayAreaViewBottom
	subss	xmm0, DWORD PTR __real@3e19999a
	push	ecx
	movss	DWORD PTR [esp], xmm0
	push	ecx
	movss	xmm0, DWORD PTR _curPos$[ebp]
	movss	DWORD PTR [esp], xmm0
	mov	eax, DWORD PTR _this$[ebp]
	mov	ecx, DWORD PTR [eax+20]
	mov	edx, DWORD PTR _this$[ebp]
	mov	eax, DWORD PTR [ecx]
	mov	ecx, DWORD PTR [edx+20]
	mov	edx, DWORD PTR [eax+32]
	call	edx

; 641  : 		for(i = 0; i < 4; i++)

	mov	DWORD PTR _i$[ebp], 0
	jmp	SHORT $LN3@DrawAzElTi
$LN2@DrawAzElTi:
	mov	eax, DWORD PTR _i$[ebp]
	add	eax, 1
	mov	DWORD PTR _i$[ebp], eax
$LN3@DrawAzElTi:
	cmp	DWORD PTR _i$[ebp], 4
	jge	$LN1@DrawAzElTi

; 642  : 		{
; 643  : 			display->Line(curPos, DisplayAreaViewBottom - 0.15F,
; 644  : 							curPos, DisplayAreaViewBottom - 0.10F);

	movss	xmm0, DWORD PTR _DisplayAreaViewBottom
	subss	xmm0, DWORD PTR __real@3dcccccd
	push	ecx
	movss	DWORD PTR [esp], xmm0
	push	ecx
	movss	xmm0, DWORD PTR _curPos$[ebp]
	movss	DWORD PTR [esp], xmm0
	movss	xmm0, DWORD PTR _DisplayAreaViewBottom
	subss	xmm0, DWORD PTR __real@3e19999a
	push	ecx
	movss	DWORD PTR [esp], xmm0
	push	ecx
	movss	xmm0, DWORD PTR _curPos$[ebp]
	movss	DWORD PTR [esp], xmm0
	mov	ecx, DWORD PTR _this$[ebp]
	mov	edx, DWORD PTR [ecx+20]
	mov	eax, DWORD PTR _this$[ebp]
	mov	edx, DWORD PTR [edx]
	mov	ecx, DWORD PTR [eax+20]
	mov	eax, DWORD PTR [edx+32]
	call	eax

; 645  : 			display->Line(-curPos, DisplayAreaViewBottom - 0.15F,
; 646  : 							-curPos, DisplayAreaViewBottom - 0.10F);

	movss	xmm0, DWORD PTR _DisplayAreaViewBottom
	subss	xmm0, DWORD PTR __real@3dcccccd
	push	ecx
	movss	DWORD PTR [esp], xmm0
	movss	xmm0, DWORD PTR _curPos$[ebp]
	xorps	xmm0, DWORD PTR __xmm@80000000800000008000000080000000
	push	ecx
	movss	DWORD PTR [esp], xmm0
	movss	xmm0, DWORD PTR _DisplayAreaViewBottom
	subss	xmm0, DWORD PTR __real@3e19999a
	push	ecx
	movss	DWORD PTR [esp], xmm0
	movss	xmm0, DWORD PTR _curPos$[ebp]
	xorps	xmm0, DWORD PTR __xmm@80000000800000008000000080000000
	push	ecx
	movss	DWORD PTR [esp], xmm0
	mov	ecx, DWORD PTR _this$[ebp]
	mov	edx, DWORD PTR [ecx+20]
	mov	eax, DWORD PTR _this$[ebp]
	mov	edx, DWORD PTR [edx]
	mov	ecx, DWORD PTR [eax+20]
	mov	eax, DWORD PTR [edx+32]
	call	eax

; 647  : 			curPos += posStep;

	movss	xmm0, DWORD PTR _curPos$[ebp]
	addss	xmm0, DWORD PTR _posStep$[ebp]
	movss	DWORD PTR _curPos$[ebp], xmm0

; 648  : 		}

	jmp	$LN2@DrawAzElTi
$LN1@DrawAzElTi:
$LN19@DrawAzElTi:

; 649  : 	}
; 650  : 
; 651  : }

	mov	esp, ebp
	pop	ebp
	ret	0
?DrawAzElTicks@RadarDopplerClass@@IAEXXZ ENDP		; RadarDopplerClass::DrawAzElTicks
_TEXT	ENDS
; Function compile flags: /Odtp
; File c:\users\zhitao li\documents\visual studio 2012\projects\freefalcon\sim\radar\bscope.cpp
_TEXT	SEGMENT
_yPos$ = -12						; size = 4
_curPos$ = -8						; size = 4
_this$ = -4						; size = 4
?DrawScanMarkers@RadarDopplerClass@@IAEXXZ PROC		; RadarDopplerClass::DrawScanMarkers
; _this$ = ecx

; 706  : {

	push	ebp
	mov	ebp, esp
	sub	esp, 12					; 0000000cH
	mov	DWORD PTR _this$[ebp], ecx

; 707  : 	float yPos;
; 708  : 	float curPos;
; 709  : 	if (IsAADclt(AzBar)) return;

	push	32768					; 00008000H
	mov	ecx, DWORD PTR _this$[ebp]
	call	?IsAADclt@RadarDopplerClass@@IAEHH@Z	; RadarDopplerClass::IsAADclt
	test	eax, eax
	je	SHORT $LN6@DrawScanMa
	jmp	$LN7@DrawScanMa
$LN6@DrawScanMa:

; 710  : 	display->SetColor(GetMfdColor (MFD_ANTENNA_AZEL));

	push	4
	mov	ecx, DWORD PTR _this$[ebp]
	call	?GetMfdColor@DrawableClass@@QAEIW4MfdColor@@@Z ; DrawableClass::GetMfdColor
	push	eax
	mov	eax, DWORD PTR _this$[ebp]
	mov	ecx, DWORD PTR [eax+20]
	mov	edx, DWORD PTR _this$[ebp]
	mov	eax, DWORD PTR [ecx]
	mov	ecx, DWORD PTR [edx+20]
	mov	edx, DWORD PTR [eax+92]
	call	edx

; 711  : 	/*----------------*/
; 712  : 	/* Az Scan Marker */
; 713  : 	/*----------------*/
; 714  : 	curPos = (DisplayAreaViewRight - DisplayAreaViewLeft) / (2.0F * MAX_ANT_EL) * (beamAz + seekerAzCenter);

	movss	xmm0, DWORD PTR _DisplayAreaViewRight
	subss	xmm0, DWORD PTR _DisplayAreaViewLeft
	divss	xmm0, DWORD PTR __real@40060a91
	mov	eax, DWORD PTR _this$[ebp]
	mov	ecx, DWORD PTR _this$[ebp]
	movss	xmm1, DWORD PTR [eax+196]
	addss	xmm1, DWORD PTR [ecx+56]
	mulss	xmm0, xmm1
	movss	DWORD PTR _curPos$[ebp], xmm0

; 715  : 	curPos += (DisplayAreaViewRight + DisplayAreaViewLeft) * 0.5F;

	movss	xmm0, DWORD PTR _DisplayAreaViewRight
	addss	xmm0, DWORD PTR _DisplayAreaViewLeft
	mulss	xmm0, DWORD PTR __real@3f000000
	addss	xmm0, DWORD PTR _curPos$[ebp]
	movss	DWORD PTR _curPos$[ebp], xmm0

; 716  : 	//MI this is the other way around in reality
; 717  : 	if(!g_bRealisticAvionics)

	movzx	edx, BYTE PTR ?g_bRealisticAvionics@@3_NA ; g_bRealisticAvionics
	test	edx, edx
	jne	$LN5@DrawScanMa

; 718  : 	{
; 719  : 		display->Line (curPos, DisplayAreaViewBottom - 0.04F, curPos, DisplayAreaViewBottom - 0.07F);

	movss	xmm0, DWORD PTR _DisplayAreaViewBottom
	subss	xmm0, DWORD PTR __real@3d8f5c29
	push	ecx
	movss	DWORD PTR [esp], xmm0
	push	ecx
	movss	xmm0, DWORD PTR _curPos$[ebp]
	movss	DWORD PTR [esp], xmm0
	movss	xmm0, DWORD PTR _DisplayAreaViewBottom
	subss	xmm0, DWORD PTR __real@3d23d70a
	push	ecx
	movss	DWORD PTR [esp], xmm0
	push	ecx
	movss	xmm0, DWORD PTR _curPos$[ebp]
	movss	DWORD PTR [esp], xmm0
	mov	eax, DWORD PTR _this$[ebp]
	mov	ecx, DWORD PTR [eax+20]
	mov	edx, DWORD PTR _this$[ebp]
	mov	eax, DWORD PTR [ecx]
	mov	ecx, DWORD PTR [edx+20]
	mov	edx, DWORD PTR [eax+32]
	call	edx

; 720  : 		display->Line (curPos - 0.015F, DisplayAreaViewBottom - 0.07F, curPos + 0.015F, DisplayAreaViewBottom - 0.07F);

	movss	xmm0, DWORD PTR _DisplayAreaViewBottom
	subss	xmm0, DWORD PTR __real@3d8f5c29
	push	ecx
	movss	DWORD PTR [esp], xmm0
	movss	xmm0, DWORD PTR _curPos$[ebp]
	addss	xmm0, DWORD PTR __real@3c75c28f
	push	ecx
	movss	DWORD PTR [esp], xmm0
	movss	xmm0, DWORD PTR _DisplayAreaViewBottom
	subss	xmm0, DWORD PTR __real@3d8f5c29
	push	ecx
	movss	DWORD PTR [esp], xmm0
	movss	xmm0, DWORD PTR _curPos$[ebp]
	subss	xmm0, DWORD PTR __real@3c75c28f
	push	ecx
	movss	DWORD PTR [esp], xmm0
	mov	eax, DWORD PTR _this$[ebp]
	mov	ecx, DWORD PTR [eax+20]
	mov	edx, DWORD PTR _this$[ebp]
	mov	eax, DWORD PTR [ecx]
	mov	ecx, DWORD PTR [edx+20]
	mov	edx, DWORD PTR [eax+32]
	call	edx

; 721  : 	}
; 722  : 	else

	jmp	$LN4@DrawScanMa
$LN5@DrawScanMa:

; 723  : 	{
; 724  : 		const static float width = 0.02F;
; 725  : 		//vertical line
; 726  : 		display->Tri(curPos - width/2, DisplayAreaViewBottom - 0.15F, curPos + width/2, DisplayAreaViewBottom - 0.15F, curPos + width/2, DisplayAreaViewBottom - 0.22F);

	movss	xmm0, DWORD PTR _DisplayAreaViewBottom
	subss	xmm0, DWORD PTR __real@3e6147ae
	push	ecx
	movss	DWORD PTR [esp], xmm0
	movss	xmm0, DWORD PTR ?width@?8??DrawScanMarkers@RadarDopplerClass@@IAEXXZ@4MB
	divss	xmm0, DWORD PTR __real@40000000
	addss	xmm0, DWORD PTR _curPos$[ebp]
	push	ecx
	movss	DWORD PTR [esp], xmm0
	movss	xmm0, DWORD PTR _DisplayAreaViewBottom
	subss	xmm0, DWORD PTR __real@3e19999a
	push	ecx
	movss	DWORD PTR [esp], xmm0
	movss	xmm0, DWORD PTR ?width@?8??DrawScanMarkers@RadarDopplerClass@@IAEXXZ@4MB
	divss	xmm0, DWORD PTR __real@40000000
	addss	xmm0, DWORD PTR _curPos$[ebp]
	push	ecx
	movss	DWORD PTR [esp], xmm0
	movss	xmm0, DWORD PTR _DisplayAreaViewBottom
	subss	xmm0, DWORD PTR __real@3e19999a
	push	ecx
	movss	DWORD PTR [esp], xmm0
	movss	xmm0, DWORD PTR ?width@?8??DrawScanMarkers@RadarDopplerClass@@IAEXXZ@4MB
	divss	xmm0, DWORD PTR __real@40000000
	movss	xmm1, DWORD PTR _curPos$[ebp]
	subss	xmm1, xmm0
	push	ecx
	movss	DWORD PTR [esp], xmm1
	mov	eax, DWORD PTR _this$[ebp]
	mov	ecx, DWORD PTR [eax+20]
	mov	edx, DWORD PTR _this$[ebp]
	mov	eax, DWORD PTR [ecx]
	mov	ecx, DWORD PTR [edx+20]
	mov	edx, DWORD PTR [eax+36]
	call	edx

; 727  : 		display->Tri(curPos + width/2, DisplayAreaViewBottom - 0.22F, curPos - width/2, DisplayAreaViewBottom - 0.22F, curPos - width/2, DisplayAreaViewBottom - 0.15F);

	movss	xmm0, DWORD PTR _DisplayAreaViewBottom
	subss	xmm0, DWORD PTR __real@3e19999a
	push	ecx
	movss	DWORD PTR [esp], xmm0
	movss	xmm0, DWORD PTR ?width@?8??DrawScanMarkers@RadarDopplerClass@@IAEXXZ@4MB
	divss	xmm0, DWORD PTR __real@40000000
	movss	xmm1, DWORD PTR _curPos$[ebp]
	subss	xmm1, xmm0
	push	ecx
	movss	DWORD PTR [esp], xmm1
	movss	xmm0, DWORD PTR _DisplayAreaViewBottom
	subss	xmm0, DWORD PTR __real@3e6147ae
	push	ecx
	movss	DWORD PTR [esp], xmm0
	movss	xmm0, DWORD PTR ?width@?8??DrawScanMarkers@RadarDopplerClass@@IAEXXZ@4MB
	divss	xmm0, DWORD PTR __real@40000000
	movss	xmm1, DWORD PTR _curPos$[ebp]
	subss	xmm1, xmm0
	push	ecx
	movss	DWORD PTR [esp], xmm1
	movss	xmm0, DWORD PTR _DisplayAreaViewBottom
	subss	xmm0, DWORD PTR __real@3e6147ae
	push	ecx
	movss	DWORD PTR [esp], xmm0
	movss	xmm0, DWORD PTR ?width@?8??DrawScanMarkers@RadarDopplerClass@@IAEXXZ@4MB
	divss	xmm0, DWORD PTR __real@40000000
	addss	xmm0, DWORD PTR _curPos$[ebp]
	push	ecx
	movss	DWORD PTR [esp], xmm0
	mov	eax, DWORD PTR _this$[ebp]
	mov	ecx, DWORD PTR [eax+20]
	mov	edx, DWORD PTR _this$[ebp]
	mov	eax, DWORD PTR [ecx]
	mov	ecx, DWORD PTR [edx+20]
	mov	edx, DWORD PTR [eax+36]
	call	edx

; 728  : 		//"T" Line
; 729  : 		display->Tri(curPos - width*2, DisplayAreaViewBottom - 0.15F + width/2, curPos + width*2, DisplayAreaViewBottom - 0.15F + width/2, curPos + width*2, DisplayAreaViewBottom - 0.15F - width/2);

	movss	xmm0, DWORD PTR _DisplayAreaViewBottom
	subss	xmm0, DWORD PTR __real@3e19999a
	movss	xmm1, DWORD PTR ?width@?8??DrawScanMarkers@RadarDopplerClass@@IAEXXZ@4MB
	divss	xmm1, DWORD PTR __real@40000000
	subss	xmm0, xmm1
	push	ecx
	movss	DWORD PTR [esp], xmm0
	movss	xmm0, DWORD PTR ?width@?8??DrawScanMarkers@RadarDopplerClass@@IAEXXZ@4MB
	mulss	xmm0, DWORD PTR __real@40000000
	addss	xmm0, DWORD PTR _curPos$[ebp]
	push	ecx
	movss	DWORD PTR [esp], xmm0
	movss	xmm0, DWORD PTR _DisplayAreaViewBottom
	subss	xmm0, DWORD PTR __real@3e19999a
	movss	xmm1, DWORD PTR ?width@?8??DrawScanMarkers@RadarDopplerClass@@IAEXXZ@4MB
	divss	xmm1, DWORD PTR __real@40000000
	addss	xmm0, xmm1
	push	ecx
	movss	DWORD PTR [esp], xmm0
	movss	xmm0, DWORD PTR ?width@?8??DrawScanMarkers@RadarDopplerClass@@IAEXXZ@4MB
	mulss	xmm0, DWORD PTR __real@40000000
	addss	xmm0, DWORD PTR _curPos$[ebp]
	push	ecx
	movss	DWORD PTR [esp], xmm0
	movss	xmm0, DWORD PTR _DisplayAreaViewBottom
	subss	xmm0, DWORD PTR __real@3e19999a
	movss	xmm1, DWORD PTR ?width@?8??DrawScanMarkers@RadarDopplerClass@@IAEXXZ@4MB
	divss	xmm1, DWORD PTR __real@40000000
	addss	xmm0, xmm1
	push	ecx
	movss	DWORD PTR [esp], xmm0
	movss	xmm0, DWORD PTR ?width@?8??DrawScanMarkers@RadarDopplerClass@@IAEXXZ@4MB
	mulss	xmm0, DWORD PTR __real@40000000
	movss	xmm1, DWORD PTR _curPos$[ebp]
	subss	xmm1, xmm0
	push	ecx
	movss	DWORD PTR [esp], xmm1
	mov	eax, DWORD PTR _this$[ebp]
	mov	ecx, DWORD PTR [eax+20]
	mov	edx, DWORD PTR _this$[ebp]
	mov	eax, DWORD PTR [ecx]
	mov	ecx, DWORD PTR [edx+20]
	mov	edx, DWORD PTR [eax+36]
	call	edx

; 730  : 		display->Tri(curPos + width*2, DisplayAreaViewBottom - 0.15F - width/2, curPos - width*2, DisplayAreaViewBottom - 0.15F - width/2, curPos - width*2, DisplayAreaViewBottom - 0.15F + width/2);

	movss	xmm0, DWORD PTR _DisplayAreaViewBottom
	subss	xmm0, DWORD PTR __real@3e19999a
	movss	xmm1, DWORD PTR ?width@?8??DrawScanMarkers@RadarDopplerClass@@IAEXXZ@4MB
	divss	xmm1, DWORD PTR __real@40000000
	addss	xmm0, xmm1
	push	ecx
	movss	DWORD PTR [esp], xmm0
	movss	xmm0, DWORD PTR ?width@?8??DrawScanMarkers@RadarDopplerClass@@IAEXXZ@4MB
	mulss	xmm0, DWORD PTR __real@40000000
	movss	xmm1, DWORD PTR _curPos$[ebp]
	subss	xmm1, xmm0
	push	ecx
	movss	DWORD PTR [esp], xmm1
	movss	xmm0, DWORD PTR _DisplayAreaViewBottom
	subss	xmm0, DWORD PTR __real@3e19999a
	movss	xmm1, DWORD PTR ?width@?8??DrawScanMarkers@RadarDopplerClass@@IAEXXZ@4MB
	divss	xmm1, DWORD PTR __real@40000000
	subss	xmm0, xmm1
	push	ecx
	movss	DWORD PTR [esp], xmm0
	movss	xmm0, DWORD PTR ?width@?8??DrawScanMarkers@RadarDopplerClass@@IAEXXZ@4MB
	mulss	xmm0, DWORD PTR __real@40000000
	movss	xmm1, DWORD PTR _curPos$[ebp]
	subss	xmm1, xmm0
	push	ecx
	movss	DWORD PTR [esp], xmm1
	movss	xmm0, DWORD PTR _DisplayAreaViewBottom
	subss	xmm0, DWORD PTR __real@3e19999a
	movss	xmm1, DWORD PTR ?width@?8??DrawScanMarkers@RadarDopplerClass@@IAEXXZ@4MB
	divss	xmm1, DWORD PTR __real@40000000
	subss	xmm0, xmm1
	push	ecx
	movss	DWORD PTR [esp], xmm0
	movss	xmm0, DWORD PTR ?width@?8??DrawScanMarkers@RadarDopplerClass@@IAEXXZ@4MB
	mulss	xmm0, DWORD PTR __real@40000000
	addss	xmm0, DWORD PTR _curPos$[ebp]
	push	ecx
	movss	DWORD PTR [esp], xmm0
	mov	eax, DWORD PTR _this$[ebp]
	mov	ecx, DWORD PTR [eax+20]
	mov	edx, DWORD PTR _this$[ebp]
	mov	eax, DWORD PTR [ecx]
	mov	ecx, DWORD PTR [edx+20]
	mov	edx, DWORD PTR [eax+36]
	call	edx
$LN4@DrawScanMa:

; 731  : 	}
; 732  : 
; 733  : 	/*----------------*/
; 734  : 	/* El Scan Marker */
; 735  : 	/*----------------*/
; 736  : 	//MI this is the other way around in reality
; 737  : 	curPos = (DisplayAreaViewTop - DisplayAreaViewBottom) / (2.0F * MAX_ANT_EL) * (beamEl + seekerElCenter);

	movss	xmm0, DWORD PTR _DisplayAreaViewTop
	subss	xmm0, DWORD PTR _DisplayAreaViewBottom
	divss	xmm0, DWORD PTR __real@40060a91
	mov	eax, DWORD PTR _this$[ebp]
	mov	ecx, DWORD PTR _this$[ebp]
	movss	xmm1, DWORD PTR [eax+200]
	addss	xmm1, DWORD PTR [ecx+60]
	mulss	xmm0, xmm1
	movss	DWORD PTR _curPos$[ebp], xmm0

; 738  : 	curPos += (DisplayAreaViewTop + DisplayAreaViewBottom) * 0.5F;

	movss	xmm0, DWORD PTR _DisplayAreaViewTop
	addss	xmm0, DWORD PTR _DisplayAreaViewBottom
	mulss	xmm0, DWORD PTR __real@3f000000
	addss	xmm0, DWORD PTR _curPos$[ebp]
	movss	DWORD PTR _curPos$[ebp], xmm0

; 739  : 	if(!g_bRealisticAvionics)

	movzx	edx, BYTE PTR ?g_bRealisticAvionics@@3_NA ; g_bRealisticAvionics
	test	edx, edx
	jne	$LN3@DrawScanMa

; 740  : 	{
; 741  : 		display->Line (DisplayAreaViewLeft - 0.04F, curPos, DisplayAreaViewLeft - 0.07F, curPos);

	push	ecx
	movss	xmm0, DWORD PTR _curPos$[ebp]
	movss	DWORD PTR [esp], xmm0
	movss	xmm0, DWORD PTR _DisplayAreaViewLeft
	subss	xmm0, DWORD PTR __real@3d8f5c29
	push	ecx
	movss	DWORD PTR [esp], xmm0
	push	ecx
	movss	xmm0, DWORD PTR _curPos$[ebp]
	movss	DWORD PTR [esp], xmm0
	movss	xmm0, DWORD PTR _DisplayAreaViewLeft
	subss	xmm0, DWORD PTR __real@3d23d70a
	push	ecx
	movss	DWORD PTR [esp], xmm0
	mov	eax, DWORD PTR _this$[ebp]
	mov	ecx, DWORD PTR [eax+20]
	mov	edx, DWORD PTR _this$[ebp]
	mov	eax, DWORD PTR [ecx]
	mov	ecx, DWORD PTR [edx+20]
	mov	edx, DWORD PTR [eax+32]
	call	edx

; 742  : 		display->Line (DisplayAreaViewLeft - 0.07F, curPos + 0.015F, DisplayAreaViewLeft - 0.07F, curPos - 0.015F);

	movss	xmm0, DWORD PTR _curPos$[ebp]
	subss	xmm0, DWORD PTR __real@3c75c28f
	push	ecx
	movss	DWORD PTR [esp], xmm0
	movss	xmm0, DWORD PTR _DisplayAreaViewLeft
	subss	xmm0, DWORD PTR __real@3d8f5c29
	push	ecx
	movss	DWORD PTR [esp], xmm0
	movss	xmm0, DWORD PTR _curPos$[ebp]
	addss	xmm0, DWORD PTR __real@3c75c28f
	push	ecx
	movss	DWORD PTR [esp], xmm0
	movss	xmm0, DWORD PTR _DisplayAreaViewLeft
	subss	xmm0, DWORD PTR __real@3d8f5c29
	push	ecx
	movss	DWORD PTR [esp], xmm0
	mov	eax, DWORD PTR _this$[ebp]
	mov	ecx, DWORD PTR [eax+20]
	mov	edx, DWORD PTR _this$[ebp]
	mov	eax, DWORD PTR [ecx]
	mov	ecx, DWORD PTR [edx+20]
	mov	edx, DWORD PTR [eax+32]
	call	edx

; 743  : 	}
; 744  : 	else

	jmp	$LN2@DrawScanMa
$LN3@DrawScanMa:

; 745  : 	{
; 746  : 		const static float width = 0.02F;
; 747  : 		//horizontal line
; 748  : 		display->Tri(DisplayAreaViewLeft - 0.04F, curPos + width/2, DisplayAreaViewLeft - 0.11F, curPos + width/2, DisplayAreaViewLeft - 0.04F, curPos - width/2);

	movss	xmm0, DWORD PTR ?width@?O@??DrawScanMarkers@RadarDopplerClass@@IAEXXZ@4MB
	divss	xmm0, DWORD PTR __real@40000000
	movss	xmm1, DWORD PTR _curPos$[ebp]
	subss	xmm1, xmm0
	push	ecx
	movss	DWORD PTR [esp], xmm1
	movss	xmm0, DWORD PTR _DisplayAreaViewLeft
	subss	xmm0, DWORD PTR __real@3d23d70a
	push	ecx
	movss	DWORD PTR [esp], xmm0
	movss	xmm0, DWORD PTR ?width@?O@??DrawScanMarkers@RadarDopplerClass@@IAEXXZ@4MB
	divss	xmm0, DWORD PTR __real@40000000
	addss	xmm0, DWORD PTR _curPos$[ebp]
	push	ecx
	movss	DWORD PTR [esp], xmm0
	movss	xmm0, DWORD PTR _DisplayAreaViewLeft
	subss	xmm0, DWORD PTR __real@3de147ae
	push	ecx
	movss	DWORD PTR [esp], xmm0
	movss	xmm0, DWORD PTR ?width@?O@??DrawScanMarkers@RadarDopplerClass@@IAEXXZ@4MB
	divss	xmm0, DWORD PTR __real@40000000
	addss	xmm0, DWORD PTR _curPos$[ebp]
	push	ecx
	movss	DWORD PTR [esp], xmm0
	movss	xmm0, DWORD PTR _DisplayAreaViewLeft
	subss	xmm0, DWORD PTR __real@3d23d70a
	push	ecx
	movss	DWORD PTR [esp], xmm0
	mov	eax, DWORD PTR _this$[ebp]
	mov	ecx, DWORD PTR [eax+20]
	mov	edx, DWORD PTR _this$[ebp]
	mov	eax, DWORD PTR [ecx]
	mov	ecx, DWORD PTR [edx+20]
	mov	edx, DWORD PTR [eax+36]
	call	edx

; 749  : 		display->Tri(DisplayAreaViewLeft - 0.04F, curPos - width/2, DisplayAreaViewLeft - 0.11F, curPos - width/2, DisplayAreaViewLeft - 0.11F, curPos + width/2);

	movss	xmm0, DWORD PTR ?width@?O@??DrawScanMarkers@RadarDopplerClass@@IAEXXZ@4MB
	divss	xmm0, DWORD PTR __real@40000000
	addss	xmm0, DWORD PTR _curPos$[ebp]
	push	ecx
	movss	DWORD PTR [esp], xmm0
	movss	xmm0, DWORD PTR _DisplayAreaViewLeft
	subss	xmm0, DWORD PTR __real@3de147ae
	push	ecx
	movss	DWORD PTR [esp], xmm0
	movss	xmm0, DWORD PTR ?width@?O@??DrawScanMarkers@RadarDopplerClass@@IAEXXZ@4MB
	divss	xmm0, DWORD PTR __real@40000000
	movss	xmm1, DWORD PTR _curPos$[ebp]
	subss	xmm1, xmm0
	push	ecx
	movss	DWORD PTR [esp], xmm1
	movss	xmm0, DWORD PTR _DisplayAreaViewLeft
	subss	xmm0, DWORD PTR __real@3de147ae
	push	ecx
	movss	DWORD PTR [esp], xmm0
	movss	xmm0, DWORD PTR ?width@?O@??DrawScanMarkers@RadarDopplerClass@@IAEXXZ@4MB
	divss	xmm0, DWORD PTR __real@40000000
	movss	xmm1, DWORD PTR _curPos$[ebp]
	subss	xmm1, xmm0
	push	ecx
	movss	DWORD PTR [esp], xmm1
	movss	xmm0, DWORD PTR _DisplayAreaViewLeft
	subss	xmm0, DWORD PTR __real@3d23d70a
	push	ecx
	movss	DWORD PTR [esp], xmm0
	mov	eax, DWORD PTR _this$[ebp]
	mov	ecx, DWORD PTR [eax+20]
	mov	edx, DWORD PTR _this$[ebp]
	mov	eax, DWORD PTR [ecx]
	mov	ecx, DWORD PTR [edx+20]
	mov	edx, DWORD PTR [eax+36]
	call	edx

; 750  : 		//vertical line
; 751  : 		display->Tri(DisplayAreaViewLeft - 0.04F + width/2, curPos + width*2, DisplayAreaViewLeft - 0.04F - width/2, curPos + width*2, DisplayAreaViewLeft - 0.04F + width/2, curPos - width*2);

	movss	xmm0, DWORD PTR ?width@?O@??DrawScanMarkers@RadarDopplerClass@@IAEXXZ@4MB
	mulss	xmm0, DWORD PTR __real@40000000
	movss	xmm1, DWORD PTR _curPos$[ebp]
	subss	xmm1, xmm0
	push	ecx
	movss	DWORD PTR [esp], xmm1
	movss	xmm0, DWORD PTR _DisplayAreaViewLeft
	subss	xmm0, DWORD PTR __real@3d23d70a
	movss	xmm1, DWORD PTR ?width@?O@??DrawScanMarkers@RadarDopplerClass@@IAEXXZ@4MB
	divss	xmm1, DWORD PTR __real@40000000
	addss	xmm0, xmm1
	push	ecx
	movss	DWORD PTR [esp], xmm0
	movss	xmm0, DWORD PTR ?width@?O@??DrawScanMarkers@RadarDopplerClass@@IAEXXZ@4MB
	mulss	xmm0, DWORD PTR __real@40000000
	addss	xmm0, DWORD PTR _curPos$[ebp]
	push	ecx
	movss	DWORD PTR [esp], xmm0
	movss	xmm0, DWORD PTR _DisplayAreaViewLeft
	subss	xmm0, DWORD PTR __real@3d23d70a
	movss	xmm1, DWORD PTR ?width@?O@??DrawScanMarkers@RadarDopplerClass@@IAEXXZ@4MB
	divss	xmm1, DWORD PTR __real@40000000
	subss	xmm0, xmm1
	push	ecx
	movss	DWORD PTR [esp], xmm0
	movss	xmm0, DWORD PTR ?width@?O@??DrawScanMarkers@RadarDopplerClass@@IAEXXZ@4MB
	mulss	xmm0, DWORD PTR __real@40000000
	addss	xmm0, DWORD PTR _curPos$[ebp]
	push	ecx
	movss	DWORD PTR [esp], xmm0
	movss	xmm0, DWORD PTR _DisplayAreaViewLeft
	subss	xmm0, DWORD PTR __real@3d23d70a
	movss	xmm1, DWORD PTR ?width@?O@??DrawScanMarkers@RadarDopplerClass@@IAEXXZ@4MB
	divss	xmm1, DWORD PTR __real@40000000
	addss	xmm0, xmm1
	push	ecx
	movss	DWORD PTR [esp], xmm0
	mov	eax, DWORD PTR _this$[ebp]
	mov	ecx, DWORD PTR [eax+20]
	mov	edx, DWORD PTR _this$[ebp]
	mov	eax, DWORD PTR [ecx]
	mov	ecx, DWORD PTR [edx+20]
	mov	edx, DWORD PTR [eax+36]
	call	edx

; 752  : 		display->Tri(DisplayAreaViewLeft - 0.04F + width/2, curPos - width*2, DisplayAreaViewLeft - 0.04F - width/2, curPos - width*2, DisplayAreaViewLeft - 0.04F - width/2, curPos + width*2);

	movss	xmm0, DWORD PTR ?width@?O@??DrawScanMarkers@RadarDopplerClass@@IAEXXZ@4MB
	mulss	xmm0, DWORD PTR __real@40000000
	addss	xmm0, DWORD PTR _curPos$[ebp]
	push	ecx
	movss	DWORD PTR [esp], xmm0
	movss	xmm0, DWORD PTR _DisplayAreaViewLeft
	subss	xmm0, DWORD PTR __real@3d23d70a
	movss	xmm1, DWORD PTR ?width@?O@??DrawScanMarkers@RadarDopplerClass@@IAEXXZ@4MB
	divss	xmm1, DWORD PTR __real@40000000
	subss	xmm0, xmm1
	push	ecx
	movss	DWORD PTR [esp], xmm0
	movss	xmm0, DWORD PTR ?width@?O@??DrawScanMarkers@RadarDopplerClass@@IAEXXZ@4MB
	mulss	xmm0, DWORD PTR __real@40000000
	movss	xmm1, DWORD PTR _curPos$[ebp]
	subss	xmm1, xmm0
	push	ecx
	movss	DWORD PTR [esp], xmm1
	movss	xmm0, DWORD PTR _DisplayAreaViewLeft
	subss	xmm0, DWORD PTR __real@3d23d70a
	movss	xmm1, DWORD PTR ?width@?O@??DrawScanMarkers@RadarDopplerClass@@IAEXXZ@4MB
	divss	xmm1, DWORD PTR __real@40000000
	subss	xmm0, xmm1
	push	ecx
	movss	DWORD PTR [esp], xmm0
	movss	xmm0, DWORD PTR ?width@?O@??DrawScanMarkers@RadarDopplerClass@@IAEXXZ@4MB
	mulss	xmm0, DWORD PTR __real@40000000
	movss	xmm1, DWORD PTR _curPos$[ebp]
	subss	xmm1, xmm0
	push	ecx
	movss	DWORD PTR [esp], xmm1
	movss	xmm0, DWORD PTR _DisplayAreaViewLeft
	subss	xmm0, DWORD PTR __real@3d23d70a
	movss	xmm1, DWORD PTR ?width@?O@??DrawScanMarkers@RadarDopplerClass@@IAEXXZ@4MB
	divss	xmm1, DWORD PTR __real@40000000
	addss	xmm0, xmm1
	push	ecx
	movss	DWORD PTR [esp], xmm0
	mov	eax, DWORD PTR _this$[ebp]
	mov	ecx, DWORD PTR [eax+20]
	mov	edx, DWORD PTR _this$[ebp]
	mov	eax, DWORD PTR [ecx]
	mov	ecx, DWORD PTR [edx+20]
	mov	edx, DWORD PTR [eax+36]
	call	edx
$LN2@DrawScanMa:

; 753  : 	}
; 754  : 	/*--------------------------------------------------*/
; 755  : 	/* elevation reaquisition marker, remains on screen */
; 756  : 	/* for 10 sec after loss of target Track            */
; 757  : 	/*--------------------------------------------------*/
; 758  : 	if (reacqFlag)

	mov	eax, DWORD PTR _this$[ebp]
	cmp	DWORD PTR [eax+192], 0
	je	$LN1@DrawScanMa

; 759  : 	{
; 760  : 		display->SetColor(GetMfdColor (MFD_FCR_REAQ_IND));

	push	4
	mov	ecx, DWORD PTR _this$[ebp]
	call	?GetMfdColor@DrawableClass@@QAEIW4MfdColor@@@Z ; DrawableClass::GetMfdColor
	push	eax
	mov	ecx, DWORD PTR _this$[ebp]
	mov	edx, DWORD PTR [ecx+20]
	mov	eax, DWORD PTR _this$[ebp]
	mov	edx, DWORD PTR [edx]
	mov	ecx, DWORD PTR [eax+20]
	mov	eax, DWORD PTR [edx+92]
	call	eax

; 761  : 		yPos = (DisplayAreaViewTop - DisplayAreaViewBottom) / (2.0F * MAX_ANT_EL) * reacqEl;

	movss	xmm0, DWORD PTR _DisplayAreaViewTop
	subss	xmm0, DWORD PTR _DisplayAreaViewBottom
	divss	xmm0, DWORD PTR __real@40060a91
	mov	ecx, DWORD PTR _this$[ebp]
	mulss	xmm0, DWORD PTR [ecx+484]
	movss	DWORD PTR _yPos$[ebp], xmm0

; 762  : 		yPos += (DisplayAreaViewTop + DisplayAreaViewBottom) * 0.5F;

	movss	xmm0, DWORD PTR _DisplayAreaViewTop
	addss	xmm0, DWORD PTR _DisplayAreaViewBottom
	mulss	xmm0, DWORD PTR __real@3f000000
	addss	xmm0, DWORD PTR _yPos$[ebp]
	movss	DWORD PTR _yPos$[ebp], xmm0

; 763  : 		display->AdjustOriginInViewport(DisplayAreaViewLeft, yPos);

	push	ecx
	movss	xmm0, DWORD PTR _yPos$[ebp]
	movss	DWORD PTR [esp], xmm0
	push	ecx
	movss	xmm0, DWORD PTR _DisplayAreaViewLeft
	movss	DWORD PTR [esp], xmm0
	mov	edx, DWORD PTR _this$[ebp]
	mov	ecx, DWORD PTR [edx+20]
	call	?AdjustOriginInViewport@VirtualDisplay@@QAEXMM@Z ; VirtualDisplay::AdjustOriginInViewport

; 764  : 		display->Line (elReacqMark[0][0], elReacqMark[0][1],
; 765  : 						elReacqMark[1][0], elReacqMark[1][1]);

	mov	eax, 8
	shl	eax, 0
	mov	ecx, 4
	shl	ecx, 0
	push	ecx
	movss	xmm0, DWORD PTR _elReacqMark[eax+ecx]
	movss	DWORD PTR [esp], xmm0
	mov	edx, 8
	shl	edx, 0
	mov	eax, 4
	imul	eax, 0
	push	ecx
	movss	xmm0, DWORD PTR _elReacqMark[edx+eax]
	movss	DWORD PTR [esp], xmm0
	mov	ecx, 8
	imul	ecx, 0
	mov	edx, 4
	shl	edx, 0
	push	ecx
	movss	xmm0, DWORD PTR _elReacqMark[ecx+edx]
	movss	DWORD PTR [esp], xmm0
	mov	eax, 8
	imul	eax, 0
	mov	ecx, 4
	imul	ecx, 0
	push	ecx
	movss	xmm0, DWORD PTR _elReacqMark[eax+ecx]
	movss	DWORD PTR [esp], xmm0
	mov	edx, DWORD PTR _this$[ebp]
	mov	eax, DWORD PTR [edx+20]
	mov	ecx, DWORD PTR _this$[ebp]
	mov	edx, DWORD PTR [eax]
	mov	ecx, DWORD PTR [ecx+20]
	mov	eax, DWORD PTR [edx+32]
	call	eax

; 766  : 		display->Line (elReacqMark[2][0], elReacqMark[2][1],
; 767  : 						elReacqMark[1][0], elReacqMark[1][1]);

	mov	ecx, 8
	shl	ecx, 0
	mov	edx, 4
	shl	edx, 0
	push	ecx
	movss	xmm0, DWORD PTR _elReacqMark[ecx+edx]
	movss	DWORD PTR [esp], xmm0
	mov	eax, 8
	shl	eax, 0
	mov	ecx, 4
	imul	ecx, 0
	push	ecx
	movss	xmm0, DWORD PTR _elReacqMark[eax+ecx]
	movss	DWORD PTR [esp], xmm0
	mov	edx, 8
	shl	edx, 1
	mov	eax, 4
	shl	eax, 0
	push	ecx
	movss	xmm0, DWORD PTR _elReacqMark[edx+eax]
	movss	DWORD PTR [esp], xmm0
	mov	ecx, 8
	shl	ecx, 1
	mov	edx, 4
	imul	edx, 0
	push	ecx
	movss	xmm0, DWORD PTR _elReacqMark[ecx+edx]
	movss	DWORD PTR [esp], xmm0
	mov	eax, DWORD PTR _this$[ebp]
	mov	ecx, DWORD PTR [eax+20]
	mov	edx, DWORD PTR _this$[ebp]
	mov	eax, DWORD PTR [ecx]
	mov	ecx, DWORD PTR [edx+20]
	mov	edx, DWORD PTR [eax+32]
	call	edx

; 768  : 		display->CenterOriginInViewport();

	mov	eax, DWORD PTR _this$[ebp]
	mov	ecx, DWORD PTR [eax+20]
	call	?CenterOriginInViewport@VirtualDisplay@@QAEXXZ ; VirtualDisplay::CenterOriginInViewport
$LN1@DrawScanMa:
$LN7@DrawScanMa:

; 769  : 	}
; 770  : }

	mov	esp, ebp
	pop	ebp
	ret	0
?DrawScanMarkers@RadarDopplerClass@@IAEXXZ ENDP		; RadarDopplerClass::DrawScanMarkers
_TEXT	ENDS
; Function compile flags: /Odtp
; File c:\users\zhitao li\documents\visual studio 2012\projects\freefalcon\sim\radar\bscope.cpp
_TEXT	SEGMENT
tv274 = -16						; size = 4
_yPos$ = -12						; size = 4
_theta$ = -8						; size = 4
_this$ = -4						; size = 4
?DrawWaterline@RadarDopplerClass@@IAEXXZ PROC		; RadarDopplerClass::DrawWaterline
; _this$ = ecx

; 675  : {

	push	ebp
	mov	ebp, esp
	sub	esp, 16					; 00000010H
	mov	DWORD PTR _this$[ebp], ecx

; 676  : 	float yPos, theta;
; 677  : 
; 678  : 	static const float	InsideEdge	= 0.08f;
; 679  : 	static const float	OutsideEdge	= 0.40f;
; 680  : 	static const float	Height		= 0.04f;
; 681  : 
; 682  : 	display->SetColor(GetMfdColor( MFD_RADAR_WATERLINE )); // RV - I-Hawk - Draw in blue

	push	6
	mov	ecx, DWORD PTR _this$[ebp]
	call	?GetMfdColor@DrawableClass@@QAEIW4MfdColor@@@Z ; DrawableClass::GetMfdColor
	push	eax
	mov	eax, DWORD PTR _this$[ebp]
	mov	ecx, DWORD PTR [eax+20]
	mov	edx, DWORD PTR _this$[ebp]
	mov	eax, DWORD PTR [ecx]
	mov	ecx, DWORD PTR [edx+20]
	mov	edx, DWORD PTR [eax+92]
	call	edx

; 683  : 
; 684  : 	theta  = platform->Pitch();

	mov	eax, DWORD PTR _this$[ebp]
	mov	ecx, DWORD PTR [eax+32]
	call	?Pitch@VuEntity@@QBEMXZ			; VuEntity::Pitch
	fstp	DWORD PTR _theta$[ebp]

; 685  : 	if(theta > 45.0F * DTR)

	movss	xmm0, DWORD PTR _theta$[ebp]
	comiss	xmm0, DWORD PTR __real@3f490fd9
	jbe	SHORT $LN3@DrawWaterl

; 686  : 		theta = 45.0F * DTR;

	movss	xmm0, DWORD PTR __real@3f490fd9
	movss	DWORD PTR _theta$[ebp], xmm0
	jmp	SHORT $LN1@DrawWaterl
$LN3@DrawWaterl:

; 687  : 	else if(theta < -45.0F * DTR)

	movss	xmm0, DWORD PTR __real@bf490fd9
	comiss	xmm0, DWORD PTR _theta$[ebp]
	jbe	SHORT $LN1@DrawWaterl

; 688  : 		theta = -45.0F * DTR;

	movss	xmm0, DWORD PTR __real@bf490fd9
	movss	DWORD PTR _theta$[ebp], xmm0
$LN1@DrawWaterl:

; 689  : 
; 690  : 	yPos = -disDeg * theta;							  

	movss	xmm0, DWORD PTR _disDeg
	xorps	xmm0, DWORD PTR __xmm@80000000800000008000000080000000
	mulss	xmm0, DWORD PTR _theta$[ebp]
	movss	DWORD PTR _yPos$[ebp], xmm0

; 691  : 
; 692  : 	display->AdjustOriginInViewport (0.0F, yPos);

	push	ecx
	movss	xmm0, DWORD PTR _yPos$[ebp]
	movss	DWORD PTR [esp], xmm0
	push	ecx
	movss	xmm0, DWORD PTR __real@00000000
	movss	DWORD PTR [esp], xmm0
	mov	ecx, DWORD PTR _this$[ebp]
	mov	ecx, DWORD PTR [ecx+20]
	call	?AdjustOriginInViewport@VirtualDisplay@@QAEXMM@Z ; VirtualDisplay::AdjustOriginInViewport

; 693  : 	display->AdjustRotationAboutOrigin (-platform->Roll());

	mov	edx, DWORD PTR _this$[ebp]
	mov	ecx, DWORD PTR [edx+32]
	call	?Roll@VuEntity@@QBEMXZ			; VuEntity::Roll
	fstp	DWORD PTR tv274[ebp]
	movss	xmm0, DWORD PTR tv274[ebp]
	xorps	xmm0, DWORD PTR __xmm@80000000800000008000000080000000
	push	ecx
	movss	DWORD PTR [esp], xmm0
	mov	eax, DWORD PTR _this$[ebp]
	mov	ecx, DWORD PTR [eax+20]
	call	?AdjustRotationAboutOrigin@VirtualDisplay@@QAEXM@Z ; VirtualDisplay::AdjustRotationAboutOrigin

; 694  : 
; 695  : 	display->Line(	OutsideEdge,	-Height,	OutsideEdge,	0.0f);

	push	ecx
	movss	xmm0, DWORD PTR __real@00000000
	movss	DWORD PTR [esp], xmm0
	push	ecx
	movss	xmm0, DWORD PTR ?OutsideEdge@?1??DrawWaterline@RadarDopplerClass@@IAEXXZ@4MB
	movss	DWORD PTR [esp], xmm0
	movss	xmm0, DWORD PTR ?Height@?1??DrawWaterline@RadarDopplerClass@@IAEXXZ@4MB
	xorps	xmm0, DWORD PTR __xmm@80000000800000008000000080000000
	push	ecx
	movss	DWORD PTR [esp], xmm0
	push	ecx
	movss	xmm0, DWORD PTR ?OutsideEdge@?1??DrawWaterline@RadarDopplerClass@@IAEXXZ@4MB
	movss	DWORD PTR [esp], xmm0
	mov	ecx, DWORD PTR _this$[ebp]
	mov	edx, DWORD PTR [ecx+20]
	mov	eax, DWORD PTR _this$[ebp]
	mov	edx, DWORD PTR [edx]
	mov	ecx, DWORD PTR [eax+20]
	mov	eax, DWORD PTR [edx+32]
	call	eax

; 696  : 	display->Line(	OutsideEdge,	0.0f,		InsideEdge,		0.0f);

	push	ecx
	movss	xmm0, DWORD PTR __real@00000000
	movss	DWORD PTR [esp], xmm0
	push	ecx
	movss	xmm0, DWORD PTR ?InsideEdge@?1??DrawWaterline@RadarDopplerClass@@IAEXXZ@4MB
	movss	DWORD PTR [esp], xmm0
	push	ecx
	movss	xmm0, DWORD PTR __real@00000000
	movss	DWORD PTR [esp], xmm0
	push	ecx
	movss	xmm0, DWORD PTR ?OutsideEdge@?1??DrawWaterline@RadarDopplerClass@@IAEXXZ@4MB
	movss	DWORD PTR [esp], xmm0
	mov	ecx, DWORD PTR _this$[ebp]
	mov	edx, DWORD PTR [ecx+20]
	mov	eax, DWORD PTR _this$[ebp]
	mov	edx, DWORD PTR [edx]
	mov	ecx, DWORD PTR [eax+20]
	mov	eax, DWORD PTR [edx+32]
	call	eax

; 697  : 	display->Line(	-OutsideEdge,	-Height,	-OutsideEdge,	0.0f);

	push	ecx
	movss	xmm0, DWORD PTR __real@00000000
	movss	DWORD PTR [esp], xmm0
	movss	xmm0, DWORD PTR ?OutsideEdge@?1??DrawWaterline@RadarDopplerClass@@IAEXXZ@4MB
	xorps	xmm0, DWORD PTR __xmm@80000000800000008000000080000000
	push	ecx
	movss	DWORD PTR [esp], xmm0
	movss	xmm0, DWORD PTR ?Height@?1??DrawWaterline@RadarDopplerClass@@IAEXXZ@4MB
	xorps	xmm0, DWORD PTR __xmm@80000000800000008000000080000000
	push	ecx
	movss	DWORD PTR [esp], xmm0
	movss	xmm0, DWORD PTR ?OutsideEdge@?1??DrawWaterline@RadarDopplerClass@@IAEXXZ@4MB
	xorps	xmm0, DWORD PTR __xmm@80000000800000008000000080000000
	push	ecx
	movss	DWORD PTR [esp], xmm0
	mov	ecx, DWORD PTR _this$[ebp]
	mov	edx, DWORD PTR [ecx+20]
	mov	eax, DWORD PTR _this$[ebp]
	mov	edx, DWORD PTR [edx]
	mov	ecx, DWORD PTR [eax+20]
	mov	eax, DWORD PTR [edx+32]
	call	eax

; 698  : 	display->Line(	-OutsideEdge,	0.0f,		-InsideEdge,	0.0f);

	push	ecx
	movss	xmm0, DWORD PTR __real@00000000
	movss	DWORD PTR [esp], xmm0
	movss	xmm0, DWORD PTR ?InsideEdge@?1??DrawWaterline@RadarDopplerClass@@IAEXXZ@4MB
	xorps	xmm0, DWORD PTR __xmm@80000000800000008000000080000000
	push	ecx
	movss	DWORD PTR [esp], xmm0
	push	ecx
	movss	xmm0, DWORD PTR __real@00000000
	movss	DWORD PTR [esp], xmm0
	movss	xmm0, DWORD PTR ?OutsideEdge@?1??DrawWaterline@RadarDopplerClass@@IAEXXZ@4MB
	xorps	xmm0, DWORD PTR __xmm@80000000800000008000000080000000
	push	ecx
	movss	DWORD PTR [esp], xmm0
	mov	ecx, DWORD PTR _this$[ebp]
	mov	edx, DWORD PTR [ecx+20]
	mov	eax, DWORD PTR _this$[ebp]
	mov	edx, DWORD PTR [edx]
	mov	ecx, DWORD PTR [eax+20]
	mov	eax, DWORD PTR [edx+32]
	call	eax

; 699  : 
; 700  : 	display->ZeroRotationAboutOrigin();

	mov	ecx, DWORD PTR _this$[ebp]
	mov	ecx, DWORD PTR [ecx+20]
	call	?ZeroRotationAboutOrigin@VirtualDisplay@@QAEXXZ ; VirtualDisplay::ZeroRotationAboutOrigin

; 701  : 	display->CenterOriginInViewport();

	mov	edx, DWORD PTR _this$[ebp]
	mov	ecx, DWORD PTR [edx+20]
	call	?CenterOriginInViewport@VirtualDisplay@@QAEXXZ ; VirtualDisplay::CenterOriginInViewport

; 702  : 	display->SetColor( tmpColor ); // RV - I-Hawk - Return to green

	mov	eax, DWORD PTR ?tmpColor@@3KA		; tmpColor
	push	eax
	mov	ecx, DWORD PTR _this$[ebp]
	mov	edx, DWORD PTR [ecx+20]
	mov	eax, DWORD PTR _this$[ebp]
	mov	edx, DWORD PTR [edx]
	mov	ecx, DWORD PTR [eax+20]
	mov	eax, DWORD PTR [edx+92]
	call	eax

; 703  : }

	mov	esp, ebp
	pop	ebp
	ret	0
?DrawWaterline@RadarDopplerClass@@IAEXXZ ENDP		; RadarDopplerClass::DrawWaterline
_TEXT	ENDS
; Function compile flags: /Odtp
; File c:\users\zhitao li\documents\visual studio 2012\projects\freefalcon\sim\radar\bscope.cpp
_TEXT	SEGMENT
tv180 = -36						; size = 4
_yPos$ = -32						; size = 4
tv172 = -28						; size = 4
_xPos$ = -24						; size = 4
_retval$ = -20						; size = 4
tv83 = -16						; size = 4
tv82 = -12						; size = 4
_this$ = -8						; size = 4
_az$ = -4						; size = 4
_rdrObj$ = 8						; size = 4
_heading$ = 12						; size = 4
?IsUnderVSCursor@RadarDopplerClass@@IAEHPAVSimObjectType@@M@Z PROC ; RadarDopplerClass::IsUnderVSCursor
; _this$ = ecx

; 2467 : {

	push	ebp
	mov	ebp, esp
	sub	esp, 36					; 00000024H
	push	esi
	mov	DWORD PTR _this$[ebp], ecx

; 2468 : 	float az, xPos, yPos;
; 2469 : 	int retval = FALSE;

	mov	DWORD PTR _retval$[ebp], 0

; 2470 : 
; 2471 : 	if (rdrObj->localData->rdrDetect)

	mov	eax, DWORD PTR _rdrObj$[ebp]
	mov	ecx, DWORD PTR [eax+12]
	cmp	DWORD PTR [ecx+140], 0
	je	$LN1@IsUnderVSC

; 2472 : 	{
; 2473 : 		/*-----------------------------------------------*/
; 2474 : 		/* azimuth corrected for ownship heading changes */
; 2475 : 		/*-----------------------------------------------*/
; 2476 : 		az = rdrObj->localData->rdrX[0] + (rdrObj->localData->rdrHd[0] - heading);

	mov	edx, DWORD PTR _rdrObj$[ebp]
	mov	eax, DWORD PTR [edx+12]
	mov	ecx, 4
	imul	ecx, 0
	mov	edx, DWORD PTR _rdrObj$[ebp]
	mov	edx, DWORD PTR [edx+12]
	mov	esi, 4
	imul	esi, 0
	movss	xmm0, DWORD PTR [edx+esi+120]
	subss	xmm0, DWORD PTR _heading$[ebp]
	addss	xmm0, DWORD PTR [eax+ecx+88]
	movss	DWORD PTR _az$[ebp], xmm0

; 2477 : 		az = RES180(az);

	movss	xmm0, DWORD PTR _az$[ebp]
	comiss	xmm0, DWORD PTR __real@40490fd9
	jbe	SHORT $LN7@IsUnderVSC
	movss	xmm0, DWORD PTR _az$[ebp]
	subss	xmm0, DWORD PTR __real@40c90fd9
	movss	DWORD PTR tv83[ebp], xmm0
	jmp	SHORT $LN8@IsUnderVSC
$LN7@IsUnderVSC:
	movss	xmm0, DWORD PTR __real@c0490fd9
	comiss	xmm0, DWORD PTR _az$[ebp]
	jbe	SHORT $LN5@IsUnderVSC
	movss	xmm0, DWORD PTR _az$[ebp]
	addss	xmm0, DWORD PTR __real@40c90fd9
	movss	DWORD PTR tv82[ebp], xmm0
	jmp	SHORT $LN6@IsUnderVSC
$LN5@IsUnderVSC:
	movss	xmm0, DWORD PTR _az$[ebp]
	movss	DWORD PTR tv82[ebp], xmm0
$LN6@IsUnderVSC:
	movss	xmm0, DWORD PTR tv82[ebp]
	movss	DWORD PTR tv83[ebp], xmm0
$LN8@IsUnderVSC:
	movss	xmm0, DWORD PTR tv83[ebp]
	movss	DWORD PTR _az$[ebp], xmm0

; 2478 : 
; 2479 : 		/*---------------------------------*/
; 2480 : 		/* find x and y location on bscope */
; 2481 : 		/*---------------------------------*/
; 2482 : 		xPos = disDeg*az;

	movss	xmm0, DWORD PTR _disDeg
	mulss	xmm0, DWORD PTR _az$[ebp]
	movss	DWORD PTR _xPos$[ebp], xmm0

; 2483 : 		yPos = -AZL + 2.0F*AZL*(rdrObj->localData->rdrY[0] / displayRange);

	mov	eax, DWORD PTR _rdrObj$[ebp]
	mov	ecx, DWORD PTR [eax+12]
	mov	edx, 4
	imul	edx, 0
	mov	eax, DWORD PTR _this$[ebp]
	movss	xmm0, DWORD PTR [ecx+edx+104]
	divss	xmm0, DWORD PTR [eax+212]
	mulss	xmm0, DWORD PTR __real@40000000
	addss	xmm0, DWORD PTR __real@bf800000
	movss	DWORD PTR _yPos$[ebp], xmm0

; 2484 : 		if (fabs (xPos - cursorX) < 0.04 && fabs (yPos - cursorY) < 0.04)

	mov	ecx, DWORD PTR _this$[ebp]
	movss	xmm0, DWORD PTR _xPos$[ebp]
	subss	xmm0, DWORD PTR [ecx+220]
	push	ecx
	movss	DWORD PTR [esp], xmm0
	call	?fabs@@YAMM@Z				; fabs
	add	esp, 4
	fstp	DWORD PTR tv172[ebp]
	movss	xmm0, DWORD PTR tv172[ebp]
	cvtss2sd xmm0, xmm0
	movsd	xmm1, QWORD PTR __real@3fa47ae147ae147b
	comisd	xmm1, xmm0
	jbe	SHORT $LN1@IsUnderVSC
	mov	edx, DWORD PTR _this$[ebp]
	movss	xmm0, DWORD PTR _yPos$[ebp]
	subss	xmm0, DWORD PTR [edx+224]
	push	ecx
	movss	DWORD PTR [esp], xmm0
	call	?fabs@@YAMM@Z				; fabs
	add	esp, 4
	fstp	DWORD PTR tv180[ebp]
	movss	xmm0, DWORD PTR tv180[ebp]
	cvtss2sd xmm0, xmm0
	movsd	xmm1, QWORD PTR __real@3fa47ae147ae147b
	comisd	xmm1, xmm0
	jbe	SHORT $LN1@IsUnderVSC

; 2485 : 			retval = TRUE;

	mov	DWORD PTR _retval$[ebp], 1
$LN1@IsUnderVSC:

; 2486 : 	}
; 2487 : 
; 2488 : 	return (retval);

	mov	eax, DWORD PTR _retval$[ebp]

; 2489 : }

	pop	esi
	mov	esp, ebp
	pop	ebp
	ret	8
?IsUnderVSCursor@RadarDopplerClass@@IAEHPAVSimObjectType@@M@Z ENDP ; RadarDopplerClass::IsUnderVSCursor
_TEXT	ENDS
; Function compile flags: /Odtp
; File c:\users\zhitao li\documents\visual studio 2012\projects\freefalcon\sim\radar\bscope.cpp
_TEXT	SEGMENT
_retval$ = -44						; size = 4
_tgty$1 = -40						; size = 4
_tgtx$2 = -36						; size = 4
tv83 = -32						; size = 4
tv82 = -28						; size = 4
_dy$3 = -24						; size = 4
_dx$4 = -20						; size = 4
_yPos$ = -16						; size = 4
_xPos$ = -12						; size = 4
_az$ = -8						; size = 4
_this$ = -4						; size = 4
_rdrObj$ = 8						; size = 4
_heading$ = 12						; size = 4
?IsUnderCursor@RadarDopplerClass@@IAEHPAVSimObjectType@@M@Z PROC ; RadarDopplerClass::IsUnderCursor
; _this$ = ecx

; 2422 : {

	push	ebp
	mov	ebp, esp
	sub	esp, 44					; 0000002cH
	push	esi
	mov	DWORD PTR _this$[ebp], ecx

; 2423 : 	float az, xPos, yPos;
; 2424 : 	int retval = FALSE;

	mov	DWORD PTR _retval$[ebp], 0

; 2425 : 
; 2426 : 	if (rdrObj->localData->rdrDetect)

	mov	eax, DWORD PTR _rdrObj$[ebp]
	mov	ecx, DWORD PTR [eax+12]
	cmp	DWORD PTR [ecx+140], 0
	je	$LN1@IsUnderCur

; 2427 : 	{
; 2428 : 		/*-----------------------------------------------*/
; 2429 : 		/* azimuth corrected for ownship heading changes */
; 2430 : 		/*-----------------------------------------------*/
; 2431 : 		az = rdrObj->localData->rdrX[0] + (rdrObj->localData->rdrHd[0] - heading);

	mov	edx, DWORD PTR _rdrObj$[ebp]
	mov	eax, DWORD PTR [edx+12]
	mov	ecx, 4
	imul	ecx, 0
	mov	edx, DWORD PTR _rdrObj$[ebp]
	mov	edx, DWORD PTR [edx+12]
	mov	esi, 4
	imul	esi, 0
	movss	xmm0, DWORD PTR [edx+esi+120]
	subss	xmm0, DWORD PTR _heading$[ebp]
	addss	xmm0, DWORD PTR [eax+ecx+88]
	movss	DWORD PTR _az$[ebp], xmm0

; 2432 : 		az = RES180(az);

	movss	xmm0, DWORD PTR _az$[ebp]
	comiss	xmm0, DWORD PTR __real@40490fd9
	jbe	SHORT $LN8@IsUnderCur
	movss	xmm0, DWORD PTR _az$[ebp]
	subss	xmm0, DWORD PTR __real@40c90fd9
	movss	DWORD PTR tv83[ebp], xmm0
	jmp	SHORT $LN9@IsUnderCur
$LN8@IsUnderCur:
	movss	xmm0, DWORD PTR __real@c0490fd9
	comiss	xmm0, DWORD PTR _az$[ebp]
	jbe	SHORT $LN6@IsUnderCur
	movss	xmm0, DWORD PTR _az$[ebp]
	addss	xmm0, DWORD PTR __real@40c90fd9
	movss	DWORD PTR tv82[ebp], xmm0
	jmp	SHORT $LN7@IsUnderCur
$LN6@IsUnderCur:
	movss	xmm0, DWORD PTR _az$[ebp]
	movss	DWORD PTR tv82[ebp], xmm0
$LN7@IsUnderCur:
	movss	xmm0, DWORD PTR tv82[ebp]
	movss	DWORD PTR tv83[ebp], xmm0
$LN9@IsUnderCur:
	movss	xmm0, DWORD PTR tv83[ebp]
	movss	DWORD PTR _az$[ebp], xmm0

; 2433 : 
; 2434 : 		/*---------------------------------*/
; 2435 : 		/* find x and y location on bscope */
; 2436 : 		/*---------------------------------*/
; 2437 : 		xPos = disDeg*az;

	movss	xmm0, DWORD PTR _disDeg
	mulss	xmm0, DWORD PTR _az$[ebp]
	movss	DWORD PTR _xPos$[ebp], xmm0

; 2438 : 		yPos = -AZL + 2.0F*AZL*(rdrObj->localData->rdrY[0] / tdisplayRange);

	mov	eax, DWORD PTR _rdrObj$[ebp]
	mov	ecx, DWORD PTR [eax+12]
	mov	edx, 4
	imul	edx, 0
	mov	eax, DWORD PTR _this$[ebp]
	movss	xmm0, DWORD PTR [ecx+edx+104]
	divss	xmm0, DWORD PTR [eax+264]
	mulss	xmm0, DWORD PTR __real@40000000
	addss	xmm0, DWORD PTR __real@bf800000
	movss	DWORD PTR _yPos$[ebp], xmm0

; 2439 : 
; 2440 : 		// MD -- 20040714: This function needs to worry about EXP modes for use with RWS and TWS
; 2441 : 		// when there is a locked target (SAM or TWS with a bug respectively) so now we adjust
; 2442 : 		// for EXP if need be.
; 2443 : 		if(IsSet(EXP) && lockedTargetData)

	push	2
	mov	ecx, DWORD PTR _this$[ebp]
	call	?IsSet@RadarDopplerClass@@QAEHH@Z	; RadarDopplerClass::IsSet
	test	eax, eax
	je	$LN2@IsUnderCur
	mov	ecx, DWORD PTR _this$[ebp]
	cmp	DWORD PTR [ecx+176], 0
	je	$LN2@IsUnderCur

; 2444 : 		{
; 2445 : 			float tgtx, tgty;
; 2446 : 
; 2447 : 			// work out where on the display the target is
; 2448 : 			TargetToXY(lockedTargetData, 0, tdisplayRange, &tgtx, &tgty);

	lea	edx, DWORD PTR _tgty$1[ebp]
	push	edx
	lea	eax, DWORD PTR _tgtx$2[ebp]
	push	eax
	mov	ecx, DWORD PTR _this$[ebp]
	push	ecx
	movss	xmm0, DWORD PTR [ecx+264]
	movss	DWORD PTR [esp], xmm0
	push	0
	mov	edx, DWORD PTR _this$[ebp]
	mov	eax, DWORD PTR [edx+176]
	push	eax
	mov	ecx, DWORD PTR _this$[ebp]
	call	?TargetToXY@RadarDopplerClass@@QAEXPAVSimObjectLocalData@@HMPAM1@Z ; RadarDopplerClass::TargetToXY

; 2449 : 
; 2450 : 			float dx = xPos - tgtx;

	movss	xmm0, DWORD PTR _xPos$[ebp]
	subss	xmm0, DWORD PTR _tgtx$2[ebp]
	movss	DWORD PTR _dx$4[ebp], xmm0

; 2451 : 			float dy = yPos - tgty;

	movss	xmm0, DWORD PTR _yPos$[ebp]
	subss	xmm0, DWORD PTR _tgty$1[ebp]
	movss	DWORD PTR _dy$3[ebp], xmm0

; 2452 : 			dx *= 4; // zoom factor

	movss	xmm0, DWORD PTR _dx$4[ebp]
	mulss	xmm0, DWORD PTR __real@40800000
	movss	DWORD PTR _dx$4[ebp], xmm0

; 2453 : 			dy *= 4;

	movss	xmm0, DWORD PTR _dy$3[ebp]
	mulss	xmm0, DWORD PTR __real@40800000
	movss	DWORD PTR _dy$3[ebp], xmm0

; 2454 : 			xPos = tgtx + dx;

	movss	xmm0, DWORD PTR _tgtx$2[ebp]
	addss	xmm0, DWORD PTR _dx$4[ebp]
	movss	DWORD PTR _xPos$[ebp], xmm0

; 2455 : 			yPos = tgty + dy;

	movss	xmm0, DWORD PTR _tgty$1[ebp]
	addss	xmm0, DWORD PTR _dy$3[ebp]
	movss	DWORD PTR _yPos$[ebp], xmm0
$LN2@IsUnderCur:

; 2456 : 		}
; 2457 : 
; 2458 : 		if (xPos > cursorX - 0.02F  && xPos < cursorX + 0.02F  &&
; 2459 : 						yPos > cursorY - 0.04F  && yPos < cursorY + 0.04F )

	mov	ecx, DWORD PTR _this$[ebp]
	movss	xmm0, DWORD PTR [ecx+220]
	subss	xmm0, DWORD PTR __real@3ca3d70a
	movss	xmm1, DWORD PTR _xPos$[ebp]
	comiss	xmm1, xmm0
	jbe	SHORT $LN1@IsUnderCur
	mov	edx, DWORD PTR _this$[ebp]
	movss	xmm0, DWORD PTR [edx+220]
	addss	xmm0, DWORD PTR __real@3ca3d70a
	comiss	xmm0, DWORD PTR _xPos$[ebp]
	jbe	SHORT $LN1@IsUnderCur
	mov	eax, DWORD PTR _this$[ebp]
	movss	xmm0, DWORD PTR [eax+224]
	subss	xmm0, DWORD PTR __real@3d23d70a
	movss	xmm1, DWORD PTR _yPos$[ebp]
	comiss	xmm1, xmm0
	jbe	SHORT $LN1@IsUnderCur
	mov	ecx, DWORD PTR _this$[ebp]
	movss	xmm0, DWORD PTR [ecx+224]
	addss	xmm0, DWORD PTR __real@3d23d70a
	comiss	xmm0, DWORD PTR _yPos$[ebp]
	jbe	SHORT $LN1@IsUnderCur

; 2460 : 			retval = TRUE;

	mov	DWORD PTR _retval$[ebp], 1
$LN1@IsUnderCur:

; 2461 : 	}
; 2462 : 
; 2463 : 	return (retval);

	mov	eax, DWORD PTR _retval$[ebp]

; 2464 : }

	pop	esi
	mov	esp, ebp
	pop	ebp
	ret	8
?IsUnderCursor@RadarDopplerClass@@IAEHPAVSimObjectType@@M@Z ENDP ; RadarDopplerClass::IsUnderCursor
_TEXT	ENDS
; Function compile flags: /Odtp
; File c:\users\zhitao li\documents\visual studio 2012\projects\freefalcon\sim\radar\bscope.cpp
_TEXT	SEGMENT
_OldScaleX$ = -44					; size = 4
_OldScaleY$ = -40					; size = 4
_flashOff$ = -36					; size = 4
tv1000 = -32						; size = 4
tv991 = -28						; size = 4
tv312 = -24						; size = 4
tv139 = -20						; size = 4
_this$ = -16						; size = 4
__$EHRec$ = -12						; size = 12
_type$ = 8						; size = 4
_schweemLen$ = 12					; size = 4
_age$ = 16						; size = 4
_flash$ = 20						; size = 4
?DrawSymbol@RadarDopplerClass@@IAEXHMHH@Z PROC		; RadarDopplerClass::DrawSymbol
; _this$ = ecx

; 2270 : {

	push	ebp
	mov	ebp, esp
	push	-1
	push	__ehhandler$?DrawSymbol@RadarDopplerClass@@IAEXHMHH@Z
	mov	eax, DWORD PTR fs:0
	push	eax
	sub	esp, 32					; 00000020H
	mov	eax, DWORD PTR ___security_cookie
	xor	eax, ebp
	push	eax
	lea	eax, DWORD PTR __$EHRec$[ebp]
	mov	DWORD PTR fs:0, eax
	mov	DWORD PTR _this$[ebp], ecx

; 2271 : 	static const float tgtSize = 0.04f;
; 2272 : 	static const float jamSizeW = 0.12f;
; 2273 : 	static const float jamSizeH = 0.16f;
; 2274 : 	static const float jamNewSizeH = 0.06f;
; 2275 : 	static const float jamNewSizeV = 0.04f;
; 2276 : 	static const float jamNewDelta = 0.06f;
; 2277 : 	static const float hitSizeW = 0.08f;
; 2278 : 	static const float hitSizeH = 0.1f;
; 2279 : 	static const float trackScale = 0.1f;
; 2280 : 	static const float trackTriH = trackScale * (float)cos( DTR * 30.0f );

	mov	eax, DWORD PTR ?$S1@?1??DrawSymbol@RadarDopplerClass@@IAEXHMHH@Z@4IA
	and	eax, 1
	jne	SHORT $LN33@DrawSymbol
	mov	ecx, DWORD PTR ?$S1@?1??DrawSymbol@RadarDopplerClass@@IAEXHMHH@Z@4IA
	or	ecx, 1
	mov	DWORD PTR ?$S1@?1??DrawSymbol@RadarDopplerClass@@IAEXHMHH@Z@4IA, ecx
	mov	DWORD PTR __$EHRec$[ebp+8], 0
	push	ecx
	movss	xmm0, DWORD PTR __real@3f060a91
	movss	DWORD PTR [esp], xmm0
	call	?cos@@YAMM@Z				; cos
	add	esp, 4
	fstp	DWORD PTR tv991[ebp]
	movss	xmm0, DWORD PTR tv991[ebp]
	mulss	xmm0, DWORD PTR ?trackScale@?1??DrawSymbol@RadarDopplerClass@@IAEXHMHH@Z@4MB
	movss	DWORD PTR ?trackTriH@?1??DrawSymbol@RadarDopplerClass@@IAEXHMHH@Z@4MB, xmm0
	mov	DWORD PTR __$EHRec$[ebp+8], -1
$LN33@DrawSymbol:

; 2281 : 	static const float trackTriV = trackScale * (float)sin( DTR * 30.0f );

	mov	edx, DWORD PTR ?$S1@?1??DrawSymbol@RadarDopplerClass@@IAEXHMHH@Z@4IA
	and	edx, 2
	jne	SHORT $LN32@DrawSymbol
	mov	eax, DWORD PTR ?$S1@?1??DrawSymbol@RadarDopplerClass@@IAEXHMHH@Z@4IA
	or	eax, 2
	mov	DWORD PTR ?$S1@?1??DrawSymbol@RadarDopplerClass@@IAEXHMHH@Z@4IA, eax
	mov	DWORD PTR __$EHRec$[ebp+8], 1
	push	ecx
	movss	xmm0, DWORD PTR __real@3f060a91
	movss	DWORD PTR [esp], xmm0
	call	?sin@@YAMM@Z				; sin
	add	esp, 4
	fstp	DWORD PTR tv1000[ebp]
	movss	xmm0, DWORD PTR tv1000[ebp]
	mulss	xmm0, DWORD PTR ?trackScale@?1??DrawSymbol@RadarDopplerClass@@IAEXHMHH@Z@4MB
	movss	DWORD PTR ?trackTriV@?1??DrawSymbol@RadarDopplerClass@@IAEXHMHH@Z@4MB, xmm0
	mov	DWORD PTR __$EHRec$[ebp+8], -1
$LN32@DrawSymbol:

; 2282 : 	// MD -- 20040121: use flash parameter to pass flash enable
; 2283 : 	int flashOff = flash * (vuxRealTime & 0x200);  

	mov	ecx, DWORD PTR ?vuxRealTime@@3KA	; vuxRealTime
	and	ecx, 512				; 00000200H
	imul	ecx, DWORD PTR _flash$[ebp]
	mov	DWORD PTR _flashOff$[ebp], ecx

; 2284 : 	/*-------------*/
; 2285 : 	/* draw symbol */
; 2286 : 	/*-------------*/
; 2287 : 	if ((type == FlashBug || type == FlashTrack) && flashOff)

	cmp	DWORD PTR _type$[ebp], 8
	je	SHORT $LN30@DrawSymbol
	cmp	DWORD PTR _type$[ebp], 4
	jne	SHORT $LN31@DrawSymbol
$LN30@DrawSymbol:
	cmp	DWORD PTR _flashOff$[ebp], 0
	je	SHORT $LN31@DrawSymbol

; 2288 : 		return;

	jmp	$LN34@DrawSymbol
$LN31@DrawSymbol:

; 2289 : 
; 2290 : 	// RV - RED - WARNING...!!!!				
; 2291 : 	// THIS IS KINDA A HACK - The 2D MFDs may be stretched by pit scaling
; 2292 : 	// Rings would became ovals ( as it should be ) but later they r turned by AC Yaw...
; 2293 : 	// This make the Oval to physically turn...
; 2294 : 	// To avoid this, we remove ANY ASPECT RATION SCALING in the NAV MODE MFD making Scale X = Scale Y
; 2295 : 	// saving it and restoring after gfx Draw
; 2296 : 	// This is the fastest and more harmless way to fix till new code
; 2297 : 	// and works fine, as the draw is then stretched by Texture drawing...
; 2298 : 	float	OldScaleX=display->scaleX, OldScaleY=display->scaleY;

	mov	edx, DWORD PTR _this$[ebp]
	mov	eax, DWORD PTR [edx+20]
	movss	xmm0, DWORD PTR [eax+32]
	movss	DWORD PTR _OldScaleX$[ebp], xmm0
	mov	ecx, DWORD PTR _this$[ebp]
	mov	edx, DWORD PTR [ecx+20]
	movss	xmm0, DWORD PTR [edx+36]
	movss	DWORD PTR _OldScaleY$[ebp], xmm0

; 2299 : 	display->scaleY=display->scaleX;

	mov	eax, DWORD PTR _this$[ebp]
	mov	ecx, DWORD PTR [eax+20]
	mov	edx, DWORD PTR _this$[ebp]
	mov	eax, DWORD PTR [edx+20]
	mov	ecx, DWORD PTR [ecx+32]
	mov	DWORD PTR [eax+36], ecx

; 2300 : 
; 2301 : 	switch(type)

	mov	edx, DWORD PTR _type$[ebp]
	mov	DWORD PTR tv139[ebp], edx
	mov	eax, DWORD PTR tv139[ebp]
	sub	eax, 1
	mov	DWORD PTR tv139[ebp], eax
	cmp	DWORD PTR tv139[ebp], 18		; 00000012H
	ja	$LN28@DrawSymbol
	mov	ecx, DWORD PTR tv139[ebp]
	movzx	edx, BYTE PTR $LN38@DrawSymbol[ecx]
	jmp	DWORD PTR $LN41@DrawSymbol[edx*4]
$LN27@DrawSymbol:

; 2302 : 	{
; 2303 : 			case FlashBug:
; 2304 : 			case AimFlash:
; 2305 : 			case AimRel:
; 2306 : 					display->SetColor(GetAgedMfdColor(MFD_FCR_BUGGED_FLASH_TAIL, age));

	mov	eax, DWORD PTR _age$[ebp]
	push	eax
	push	2
	mov	ecx, DWORD PTR _this$[ebp]
	call	?GetAgedMfdColor@DrawableClass@@QAEIW4MfdColor@@H@Z ; DrawableClass::GetAgedMfdColor
	push	eax
	mov	ecx, DWORD PTR _this$[ebp]
	mov	edx, DWORD PTR [ecx+20]
	mov	eax, DWORD PTR _this$[ebp]
	mov	edx, DWORD PTR [edx]
	mov	ecx, DWORD PTR [eax+20]
	mov	eax, DWORD PTR [edx+92]
	call	eax

; 2307 : 					display->Circle(0.0F, 0.0F, g_fRadarScale * trackScale);  // MD -- 20040202: fix the oversize circles

	movss	xmm0, DWORD PTR ?g_fRadarScale@@3MA
	mulss	xmm0, DWORD PTR ?trackScale@?1??DrawSymbol@RadarDopplerClass@@IAEXHMHH@Z@4MB
	push	ecx
	movss	DWORD PTR [esp], xmm0
	push	ecx
	movss	xmm0, DWORD PTR __real@00000000
	movss	DWORD PTR [esp], xmm0
	push	ecx
	movss	xmm0, DWORD PTR __real@00000000
	movss	DWORD PTR [esp], xmm0
	mov	ecx, DWORD PTR _this$[ebp]
	mov	edx, DWORD PTR [ecx+20]
	mov	eax, DWORD PTR _this$[ebp]
	mov	edx, DWORD PTR [edx]
	mov	ecx, DWORD PTR [eax+20]
	mov	eax, DWORD PTR [edx+48]
	call	eax

; 2308 : 					break;

	jmp	$LN28@DrawSymbol
$LN26@DrawSymbol:

; 2309 : 			case Bug:
; 2310 : 					display->SetColor(GetAgedMfdColor(MFD_FCR_BUGGED, age));

	mov	ecx, DWORD PTR _age$[ebp]
	push	ecx
	push	3
	mov	ecx, DWORD PTR _this$[ebp]
	call	?GetAgedMfdColor@DrawableClass@@QAEIW4MfdColor@@H@Z ; DrawableClass::GetAgedMfdColor
	push	eax
	mov	edx, DWORD PTR _this$[ebp]
	mov	eax, DWORD PTR [edx+20]
	mov	ecx, DWORD PTR _this$[ebp]
	mov	edx, DWORD PTR [eax]
	mov	ecx, DWORD PTR [ecx+20]
	mov	eax, DWORD PTR [edx+92]
	call	eax

; 2311 : 					display->Circle(0.0F, 0.0F, g_fRadarScale * trackScale);  // MD -- 20040202: fix the oversize circles

	movss	xmm0, DWORD PTR ?g_fRadarScale@@3MA
	mulss	xmm0, DWORD PTR ?trackScale@?1??DrawSymbol@RadarDopplerClass@@IAEXHMHH@Z@4MB
	push	ecx
	movss	DWORD PTR [esp], xmm0
	push	ecx
	movss	xmm0, DWORD PTR __real@00000000
	movss	DWORD PTR [esp], xmm0
	push	ecx
	movss	xmm0, DWORD PTR __real@00000000
	movss	DWORD PTR [esp], xmm0
	mov	ecx, DWORD PTR _this$[ebp]
	mov	edx, DWORD PTR [ecx+20]
	mov	eax, DWORD PTR _this$[ebp]
	mov	edx, DWORD PTR [edx]
	mov	ecx, DWORD PTR [eax+20]
	mov	eax, DWORD PTR [edx+48]
	call	eax

; 2312 : 					break;

	jmp	$LN28@DrawSymbol
$LN25@DrawSymbol:

; 2313 : 			case HitInd:
; 2314 : 					display->SetColor(GetAgedMfdColor(MFD_KILL_X, age));

	mov	ecx, DWORD PTR _age$[ebp]
	push	ecx
	push	2
	mov	ecx, DWORD PTR _this$[ebp]
	call	?GetAgedMfdColor@DrawableClass@@QAEIW4MfdColor@@H@Z ; DrawableClass::GetAgedMfdColor
	push	eax
	mov	edx, DWORD PTR _this$[ebp]
	mov	eax, DWORD PTR [edx+20]
	mov	ecx, DWORD PTR _this$[ebp]
	mov	edx, DWORD PTR [eax]
	mov	ecx, DWORD PTR [ecx+20]
	mov	eax, DWORD PTR [edx+92]
	call	eax

; 2315 : 					break;

	jmp	$LN28@DrawSymbol
$LN24@DrawSymbol:

; 2316 : 			case FlashTrack:
; 2317 : 					display->SetColor(GetAgedMfdColor(MFD_FCR_UNK_TRACK_FLASH, age));

	mov	ecx, DWORD PTR _age$[ebp]
	push	ecx
	push	2
	mov	ecx, DWORD PTR _this$[ebp]
	call	?GetAgedMfdColor@DrawableClass@@QAEIW4MfdColor@@H@Z ; DrawableClass::GetAgedMfdColor
	push	eax
	mov	edx, DWORD PTR _this$[ebp]
	mov	eax, DWORD PTR [edx+20]
	mov	ecx, DWORD PTR _this$[ebp]
	mov	edx, DWORD PTR [eax]
	mov	ecx, DWORD PTR [ecx+20]
	mov	eax, DWORD PTR [edx+92]
	call	eax

; 2318 : 					break;

	jmp	SHORT $LN28@DrawSymbol
$LN23@DrawSymbol:

; 2319 : 			case Track:
; 2320 : 					display->SetColor(GetAgedMfdColor(MFD_FCR_UNK_TRACK, age));

	mov	ecx, DWORD PTR _age$[ebp]
	push	ecx
	push	3
	mov	ecx, DWORD PTR _this$[ebp]
	call	?GetAgedMfdColor@DrawableClass@@QAEIW4MfdColor@@H@Z ; DrawableClass::GetAgedMfdColor
	push	eax
	mov	edx, DWORD PTR _this$[ebp]
	mov	eax, DWORD PTR [edx+20]
	mov	ecx, DWORD PTR _this$[ebp]
	mov	edx, DWORD PTR [eax]
	mov	ecx, DWORD PTR [ecx+20]
	mov	eax, DWORD PTR [edx+92]
	call	eax

; 2321 : 					break;

	jmp	SHORT $LN28@DrawSymbol
$LN22@DrawSymbol:

; 2322 : 			case  Solid:
; 2323 : 			case Jam:
; 2324 : 			case  Det:
; 2325 : 					display->SetColor(GetAgedMfdColor(MFD_FCR_UNK_TRACK, age));

	mov	ecx, DWORD PTR _age$[ebp]
	push	ecx
	push	3
	mov	ecx, DWORD PTR _this$[ebp]
	call	?GetAgedMfdColor@DrawableClass@@QAEIW4MfdColor@@H@Z ; DrawableClass::GetAgedMfdColor
	push	eax
	mov	edx, DWORD PTR _this$[ebp]
	mov	eax, DWORD PTR [edx+20]
	mov	ecx, DWORD PTR _this$[ebp]
	mov	edx, DWORD PTR [eax]
	mov	ecx, DWORD PTR [ecx+20]
	mov	eax, DWORD PTR [edx+92]
	call	eax

; 2326 : 					break;

	jmp	SHORT $LN28@DrawSymbol
$LN21@DrawSymbol:

; 2327 : 					//Cobra 11/20/04
; 2328 : 			case InterogateFriend:
; 2329 : 					display->SetColor(GetAgedMfdColor(MFD_IFFFREIENDLY, age));

	mov	ecx, DWORD PTR _age$[ebp]
	push	ecx
	push	0
	mov	ecx, DWORD PTR _this$[ebp]
	call	?GetAgedMfdColor@DrawableClass@@QAEIW4MfdColor@@H@Z ; DrawableClass::GetAgedMfdColor
	push	eax
	mov	edx, DWORD PTR _this$[ebp]
	mov	eax, DWORD PTR [edx+20]
	mov	ecx, DWORD PTR _this$[ebp]
	mov	edx, DWORD PTR [eax]
	mov	ecx, DWORD PTR [ecx+20]
	mov	eax, DWORD PTR [edx+92]
	call	eax
$LN28@DrawSymbol:

; 2330 : 					break;
; 2331 : 
; 2332 : 	} /*switch*/
; 2333 : 	switch(type)

	mov	ecx, DWORD PTR _type$[ebp]
	mov	DWORD PTR tv312[ebp], ecx
	mov	edx, DWORD PTR tv312[ebp]
	sub	edx, 1
	mov	DWORD PTR tv312[ebp], edx
	cmp	DWORD PTR tv312[ebp], 18		; 00000012H
	ja	$LN19@DrawSymbol
	mov	eax, DWORD PTR tv312[ebp]
	movzx	ecx, BYTE PTR $LN39@DrawSymbol[eax]
	jmp	DWORD PTR $LN42@DrawSymbol[ecx*4]
$LN18@DrawSymbol:

; 2334 : 	{
; 2335 : 			case AimFlash: // jpo draw filled square
; 2336 : 			case AimRel:
; 2337 : 					if (g_bRealisticAvionics && (type == AimRel || vuxRealTime & 0x080)) {	//MI changed from || flash

	movzx	edx, BYTE PTR ?g_bRealisticAvionics@@3_NA ; g_bRealisticAvionics
	test	edx, edx
	je	$LN17@DrawSymbol
	cmp	DWORD PTR _type$[ebp], 16		; 00000010H
	je	SHORT $LN16@DrawSymbol
	mov	eax, DWORD PTR ?vuxRealTime@@3KA	; vuxRealTime
	and	eax, 128				; 00000080H
	je	$LN17@DrawSymbol
$LN16@DrawSymbol:

; 2338 : 						display->Tri(g_fRadarScale * trackTriH/2.0f, g_fRadarScale * -trackTriV, //tail flashes faster then flash
; 2339 : 										g_fRadarScale * trackTriH/2.0f, g_fRadarScale * -trackTriV-0.035f, 
; 2340 : 										g_fRadarScale * -trackTriH/2.0f, g_fRadarScale * -trackTriV);

	movss	xmm0, DWORD PTR ?trackTriV@?1??DrawSymbol@RadarDopplerClass@@IAEXHMHH@Z@4MB
	xorps	xmm0, DWORD PTR __xmm@80000000800000008000000080000000
	mulss	xmm0, DWORD PTR ?g_fRadarScale@@3MA
	push	ecx
	movss	DWORD PTR [esp], xmm0
	movss	xmm0, DWORD PTR ?trackTriH@?1??DrawSymbol@RadarDopplerClass@@IAEXHMHH@Z@4MB
	xorps	xmm0, DWORD PTR __xmm@80000000800000008000000080000000
	mulss	xmm0, DWORD PTR ?g_fRadarScale@@3MA
	divss	xmm0, DWORD PTR __real@40000000
	push	ecx
	movss	DWORD PTR [esp], xmm0
	movss	xmm0, DWORD PTR ?trackTriV@?1??DrawSymbol@RadarDopplerClass@@IAEXHMHH@Z@4MB
	xorps	xmm0, DWORD PTR __xmm@80000000800000008000000080000000
	mulss	xmm0, DWORD PTR ?g_fRadarScale@@3MA
	subss	xmm0, DWORD PTR __real@3d0f5c29
	push	ecx
	movss	DWORD PTR [esp], xmm0
	movss	xmm0, DWORD PTR ?g_fRadarScale@@3MA
	mulss	xmm0, DWORD PTR ?trackTriH@?1??DrawSymbol@RadarDopplerClass@@IAEXHMHH@Z@4MB
	divss	xmm0, DWORD PTR __real@40000000
	push	ecx
	movss	DWORD PTR [esp], xmm0
	movss	xmm0, DWORD PTR ?trackTriV@?1??DrawSymbol@RadarDopplerClass@@IAEXHMHH@Z@4MB
	xorps	xmm0, DWORD PTR __xmm@80000000800000008000000080000000
	mulss	xmm0, DWORD PTR ?g_fRadarScale@@3MA
	push	ecx
	movss	DWORD PTR [esp], xmm0
	movss	xmm0, DWORD PTR ?g_fRadarScale@@3MA
	mulss	xmm0, DWORD PTR ?trackTriH@?1??DrawSymbol@RadarDopplerClass@@IAEXHMHH@Z@4MB
	divss	xmm0, DWORD PTR __real@40000000
	push	ecx
	movss	DWORD PTR [esp], xmm0
	mov	ecx, DWORD PTR _this$[ebp]
	mov	edx, DWORD PTR [ecx+20]
	mov	eax, DWORD PTR _this$[ebp]
	mov	edx, DWORD PTR [edx]
	mov	ecx, DWORD PTR [eax+20]
	mov	eax, DWORD PTR [edx+36]
	call	eax

; 2341 : 						display->Tri(g_fRadarScale * -trackTriH/2.0f, g_fRadarScale * -trackTriV, 
; 2342 : 										g_fRadarScale * -trackTriH/2.0f, g_fRadarScale * -trackTriV-0.035f, 
; 2343 : 										g_fRadarScale * trackTriH/2.0f, g_fRadarScale * -trackTriV-0.035f);

	movss	xmm0, DWORD PTR ?trackTriV@?1??DrawSymbol@RadarDopplerClass@@IAEXHMHH@Z@4MB
	xorps	xmm0, DWORD PTR __xmm@80000000800000008000000080000000
	mulss	xmm0, DWORD PTR ?g_fRadarScale@@3MA
	subss	xmm0, DWORD PTR __real@3d0f5c29
	push	ecx
	movss	DWORD PTR [esp], xmm0
	movss	xmm0, DWORD PTR ?g_fRadarScale@@3MA
	mulss	xmm0, DWORD PTR ?trackTriH@?1??DrawSymbol@RadarDopplerClass@@IAEXHMHH@Z@4MB
	divss	xmm0, DWORD PTR __real@40000000
	push	ecx
	movss	DWORD PTR [esp], xmm0
	movss	xmm0, DWORD PTR ?trackTriV@?1??DrawSymbol@RadarDopplerClass@@IAEXHMHH@Z@4MB
	xorps	xmm0, DWORD PTR __xmm@80000000800000008000000080000000
	mulss	xmm0, DWORD PTR ?g_fRadarScale@@3MA
	subss	xmm0, DWORD PTR __real@3d0f5c29
	push	ecx
	movss	DWORD PTR [esp], xmm0
	movss	xmm0, DWORD PTR ?trackTriH@?1??DrawSymbol@RadarDopplerClass@@IAEXHMHH@Z@4MB
	xorps	xmm0, DWORD PTR __xmm@80000000800000008000000080000000
	mulss	xmm0, DWORD PTR ?g_fRadarScale@@3MA
	divss	xmm0, DWORD PTR __real@40000000
	push	ecx
	movss	DWORD PTR [esp], xmm0
	movss	xmm0, DWORD PTR ?trackTriV@?1??DrawSymbol@RadarDopplerClass@@IAEXHMHH@Z@4MB
	xorps	xmm0, DWORD PTR __xmm@80000000800000008000000080000000
	mulss	xmm0, DWORD PTR ?g_fRadarScale@@3MA
	push	ecx
	movss	DWORD PTR [esp], xmm0
	movss	xmm0, DWORD PTR ?trackTriH@?1??DrawSymbol@RadarDopplerClass@@IAEXHMHH@Z@4MB
	xorps	xmm0, DWORD PTR __xmm@80000000800000008000000080000000
	mulss	xmm0, DWORD PTR ?g_fRadarScale@@3MA
	divss	xmm0, DWORD PTR __real@40000000
	push	ecx
	movss	DWORD PTR [esp], xmm0
	mov	ecx, DWORD PTR _this$[ebp]
	mov	edx, DWORD PTR [ecx+20]
	mov	eax, DWORD PTR _this$[ebp]
	mov	edx, DWORD PTR [edx]
	mov	ecx, DWORD PTR [eax+20]
	mov	eax, DWORD PTR [edx+36]
	call	eax
$LN17@DrawSymbol:

; 2344 : 					}
; 2345 : 					// fall
; 2346 : 			case FlashBug:
; 2347 : 			case Bug:
; 2348 : 			case FlashTrack:
; 2349 : 			case Track:
; 2350 : 					if (g_bRealisticAvionics) {

	movzx	ecx, BYTE PTR ?g_bRealisticAvionics@@3_NA ; g_bRealisticAvionics
	test	ecx, ecx
	je	$LN14@DrawSymbol

; 2351 : 						if (g_bEPAFRadarCues) { // draw a Square.

	movzx	edx, BYTE PTR ?g_bEPAFRadarCues@@3_NA	; g_bEPAFRadarCues
	test	edx, edx
	je	$LN13@DrawSymbol

; 2352 : 							display->Line(g_fRadarScale * tgtSize, g_fRadarScale * tgtSize, g_fRadarScale * -tgtSize, g_fRadarScale * tgtSize);

	movss	xmm0, DWORD PTR ?g_fRadarScale@@3MA
	mulss	xmm0, DWORD PTR ?tgtSize@?1??DrawSymbol@RadarDopplerClass@@IAEXHMHH@Z@4MB
	push	ecx
	movss	DWORD PTR [esp], xmm0
	movss	xmm0, DWORD PTR ?tgtSize@?1??DrawSymbol@RadarDopplerClass@@IAEXHMHH@Z@4MB
	xorps	xmm0, DWORD PTR __xmm@80000000800000008000000080000000
	mulss	xmm0, DWORD PTR ?g_fRadarScale@@3MA
	push	ecx
	movss	DWORD PTR [esp], xmm0
	movss	xmm0, DWORD PTR ?g_fRadarScale@@3MA
	mulss	xmm0, DWORD PTR ?tgtSize@?1??DrawSymbol@RadarDopplerClass@@IAEXHMHH@Z@4MB
	push	ecx
	movss	DWORD PTR [esp], xmm0
	movss	xmm0, DWORD PTR ?g_fRadarScale@@3MA
	mulss	xmm0, DWORD PTR ?tgtSize@?1??DrawSymbol@RadarDopplerClass@@IAEXHMHH@Z@4MB
	push	ecx
	movss	DWORD PTR [esp], xmm0
	mov	eax, DWORD PTR _this$[ebp]
	mov	ecx, DWORD PTR [eax+20]
	mov	edx, DWORD PTR _this$[ebp]
	mov	eax, DWORD PTR [ecx]
	mov	ecx, DWORD PTR [edx+20]
	mov	edx, DWORD PTR [eax+32]
	call	edx

; 2353 : 							display->Line(g_fRadarScale *  -tgtSize, g_fRadarScale * tgtSize, g_fRadarScale * -tgtSize, g_fRadarScale * -tgtSize),
; 2354 : 									display->Line(g_fRadarScale *  -tgtSize, g_fRadarScale * -tgtSize, g_fRadarScale * tgtSize, g_fRadarScale * -tgtSize),
; 2355 : 									display->Line(g_fRadarScale *  tgtSize, g_fRadarScale * -tgtSize, g_fRadarScale * tgtSize, g_fRadarScale * tgtSize);

	movss	xmm0, DWORD PTR ?tgtSize@?1??DrawSymbol@RadarDopplerClass@@IAEXHMHH@Z@4MB
	xorps	xmm0, DWORD PTR __xmm@80000000800000008000000080000000
	mulss	xmm0, DWORD PTR ?g_fRadarScale@@3MA
	push	ecx
	movss	DWORD PTR [esp], xmm0
	movss	xmm0, DWORD PTR ?tgtSize@?1??DrawSymbol@RadarDopplerClass@@IAEXHMHH@Z@4MB
	xorps	xmm0, DWORD PTR __xmm@80000000800000008000000080000000
	mulss	xmm0, DWORD PTR ?g_fRadarScale@@3MA
	push	ecx
	movss	DWORD PTR [esp], xmm0
	movss	xmm0, DWORD PTR ?g_fRadarScale@@3MA
	mulss	xmm0, DWORD PTR ?tgtSize@?1??DrawSymbol@RadarDopplerClass@@IAEXHMHH@Z@4MB
	push	ecx
	movss	DWORD PTR [esp], xmm0
	movss	xmm0, DWORD PTR ?tgtSize@?1??DrawSymbol@RadarDopplerClass@@IAEXHMHH@Z@4MB
	xorps	xmm0, DWORD PTR __xmm@80000000800000008000000080000000
	mulss	xmm0, DWORD PTR ?g_fRadarScale@@3MA
	push	ecx
	movss	DWORD PTR [esp], xmm0
	mov	eax, DWORD PTR _this$[ebp]
	mov	ecx, DWORD PTR [eax+20]
	mov	edx, DWORD PTR _this$[ebp]
	mov	eax, DWORD PTR [ecx]
	mov	ecx, DWORD PTR [edx+20]
	mov	edx, DWORD PTR [eax+32]
	call	edx
	movss	xmm0, DWORD PTR ?tgtSize@?1??DrawSymbol@RadarDopplerClass@@IAEXHMHH@Z@4MB
	xorps	xmm0, DWORD PTR __xmm@80000000800000008000000080000000
	mulss	xmm0, DWORD PTR ?g_fRadarScale@@3MA
	push	ecx
	movss	DWORD PTR [esp], xmm0
	movss	xmm0, DWORD PTR ?g_fRadarScale@@3MA
	mulss	xmm0, DWORD PTR ?tgtSize@?1??DrawSymbol@RadarDopplerClass@@IAEXHMHH@Z@4MB
	push	ecx
	movss	DWORD PTR [esp], xmm0
	movss	xmm0, DWORD PTR ?tgtSize@?1??DrawSymbol@RadarDopplerClass@@IAEXHMHH@Z@4MB
	xorps	xmm0, DWORD PTR __xmm@80000000800000008000000080000000
	mulss	xmm0, DWORD PTR ?g_fRadarScale@@3MA
	push	ecx
	movss	DWORD PTR [esp], xmm0
	movss	xmm0, DWORD PTR ?tgtSize@?1??DrawSymbol@RadarDopplerClass@@IAEXHMHH@Z@4MB
	xorps	xmm0, DWORD PTR __xmm@80000000800000008000000080000000
	mulss	xmm0, DWORD PTR ?g_fRadarScale@@3MA
	push	ecx
	movss	DWORD PTR [esp], xmm0
	mov	eax, DWORD PTR _this$[ebp]
	mov	ecx, DWORD PTR [eax+20]
	mov	edx, DWORD PTR _this$[ebp]
	mov	eax, DWORD PTR [ecx]
	mov	ecx, DWORD PTR [edx+20]
	mov	edx, DWORD PTR [eax+32]
	call	edx
	movss	xmm0, DWORD PTR ?g_fRadarScale@@3MA
	mulss	xmm0, DWORD PTR ?tgtSize@?1??DrawSymbol@RadarDopplerClass@@IAEXHMHH@Z@4MB
	push	ecx
	movss	DWORD PTR [esp], xmm0
	movss	xmm0, DWORD PTR ?g_fRadarScale@@3MA
	mulss	xmm0, DWORD PTR ?tgtSize@?1??DrawSymbol@RadarDopplerClass@@IAEXHMHH@Z@4MB
	push	ecx
	movss	DWORD PTR [esp], xmm0
	movss	xmm0, DWORD PTR ?tgtSize@?1??DrawSymbol@RadarDopplerClass@@IAEXHMHH@Z@4MB
	xorps	xmm0, DWORD PTR __xmm@80000000800000008000000080000000
	mulss	xmm0, DWORD PTR ?g_fRadarScale@@3MA
	push	ecx
	movss	DWORD PTR [esp], xmm0
	movss	xmm0, DWORD PTR ?g_fRadarScale@@3MA
	mulss	xmm0, DWORD PTR ?tgtSize@?1??DrawSymbol@RadarDopplerClass@@IAEXHMHH@Z@4MB
	push	ecx
	movss	DWORD PTR [esp], xmm0
	mov	eax, DWORD PTR _this$[ebp]
	mov	ecx, DWORD PTR [eax+20]
	mov	edx, DWORD PTR _this$[ebp]
	mov	eax, DWORD PTR [ecx]
	mov	ecx, DWORD PTR [edx+20]
	mov	edx, DWORD PTR [eax+32]
	call	edx

; 2356 : 							display->Line (0.0f, g_fRadarScale * tgtSize, 0.0f, g_fRadarScale * (tgtSize + DD_LENGTH*schweemLen));

	movss	xmm0, DWORD PTR __real@3e4ccccd
	mulss	xmm0, DWORD PTR _schweemLen$[ebp]
	addss	xmm0, DWORD PTR ?tgtSize@?1??DrawSymbol@RadarDopplerClass@@IAEXHMHH@Z@4MB
	mulss	xmm0, DWORD PTR ?g_fRadarScale@@3MA
	push	ecx
	movss	DWORD PTR [esp], xmm0
	push	ecx
	movss	xmm0, DWORD PTR __real@00000000
	movss	DWORD PTR [esp], xmm0
	movss	xmm0, DWORD PTR ?g_fRadarScale@@3MA
	mulss	xmm0, DWORD PTR ?tgtSize@?1??DrawSymbol@RadarDopplerClass@@IAEXHMHH@Z@4MB
	push	ecx
	movss	DWORD PTR [esp], xmm0
	push	ecx
	movss	xmm0, DWORD PTR __real@00000000
	movss	DWORD PTR [esp], xmm0
	mov	eax, DWORD PTR _this$[ebp]
	mov	ecx, DWORD PTR [eax+20]
	mov	edx, DWORD PTR _this$[ebp]
	mov	eax, DWORD PTR [ecx]
	mov	ecx, DWORD PTR [edx+20]
	mov	edx, DWORD PTR [eax+32]
	call	edx

; 2357 : 						}
; 2358 : 						else { // draw a hollow triange

	jmp	$LN12@DrawSymbol
$LN13@DrawSymbol:

; 2359 : 							display->Line(0.0f, g_fRadarScale * trackScale, g_fRadarScale * trackTriH, g_fRadarScale * -trackTriV);

	movss	xmm0, DWORD PTR ?trackTriV@?1??DrawSymbol@RadarDopplerClass@@IAEXHMHH@Z@4MB
	xorps	xmm0, DWORD PTR __xmm@80000000800000008000000080000000
	mulss	xmm0, DWORD PTR ?g_fRadarScale@@3MA
	push	ecx
	movss	DWORD PTR [esp], xmm0
	movss	xmm0, DWORD PTR ?g_fRadarScale@@3MA
	mulss	xmm0, DWORD PTR ?trackTriH@?1??DrawSymbol@RadarDopplerClass@@IAEXHMHH@Z@4MB
	push	ecx
	movss	DWORD PTR [esp], xmm0
	movss	xmm0, DWORD PTR ?g_fRadarScale@@3MA
	mulss	xmm0, DWORD PTR ?trackScale@?1??DrawSymbol@RadarDopplerClass@@IAEXHMHH@Z@4MB
	push	ecx
	movss	DWORD PTR [esp], xmm0
	push	ecx
	movss	xmm0, DWORD PTR __real@00000000
	movss	DWORD PTR [esp], xmm0
	mov	eax, DWORD PTR _this$[ebp]
	mov	ecx, DWORD PTR [eax+20]
	mov	edx, DWORD PTR _this$[ebp]
	mov	eax, DWORD PTR [ecx]
	mov	ecx, DWORD PTR [edx+20]
	mov	edx, DWORD PTR [eax+32]
	call	edx

; 2360 : 							display->Line(g_fRadarScale * trackTriH, g_fRadarScale * -trackTriV, g_fRadarScale * -trackTriH, g_fRadarScale * -trackTriV);

	movss	xmm0, DWORD PTR ?trackTriV@?1??DrawSymbol@RadarDopplerClass@@IAEXHMHH@Z@4MB
	xorps	xmm0, DWORD PTR __xmm@80000000800000008000000080000000
	mulss	xmm0, DWORD PTR ?g_fRadarScale@@3MA
	push	ecx
	movss	DWORD PTR [esp], xmm0
	movss	xmm0, DWORD PTR ?trackTriH@?1??DrawSymbol@RadarDopplerClass@@IAEXHMHH@Z@4MB
	xorps	xmm0, DWORD PTR __xmm@80000000800000008000000080000000
	mulss	xmm0, DWORD PTR ?g_fRadarScale@@3MA
	push	ecx
	movss	DWORD PTR [esp], xmm0
	movss	xmm0, DWORD PTR ?trackTriV@?1??DrawSymbol@RadarDopplerClass@@IAEXHMHH@Z@4MB
	xorps	xmm0, DWORD PTR __xmm@80000000800000008000000080000000
	mulss	xmm0, DWORD PTR ?g_fRadarScale@@3MA
	push	ecx
	movss	DWORD PTR [esp], xmm0
	movss	xmm0, DWORD PTR ?g_fRadarScale@@3MA
	mulss	xmm0, DWORD PTR ?trackTriH@?1??DrawSymbol@RadarDopplerClass@@IAEXHMHH@Z@4MB
	push	ecx
	movss	DWORD PTR [esp], xmm0
	mov	eax, DWORD PTR _this$[ebp]
	mov	ecx, DWORD PTR [eax+20]
	mov	edx, DWORD PTR _this$[ebp]
	mov	eax, DWORD PTR [ecx]
	mov	ecx, DWORD PTR [edx+20]
	mov	edx, DWORD PTR [eax+32]
	call	edx

; 2361 : 							display->Line(g_fRadarScale * -trackTriH, g_fRadarScale * -trackTriV, 0.0f, g_fRadarScale * trackScale);

	movss	xmm0, DWORD PTR ?g_fRadarScale@@3MA
	mulss	xmm0, DWORD PTR ?trackScale@?1??DrawSymbol@RadarDopplerClass@@IAEXHMHH@Z@4MB
	push	ecx
	movss	DWORD PTR [esp], xmm0
	push	ecx
	movss	xmm0, DWORD PTR __real@00000000
	movss	DWORD PTR [esp], xmm0
	movss	xmm0, DWORD PTR ?trackTriV@?1??DrawSymbol@RadarDopplerClass@@IAEXHMHH@Z@4MB
	xorps	xmm0, DWORD PTR __xmm@80000000800000008000000080000000
	mulss	xmm0, DWORD PTR ?g_fRadarScale@@3MA
	push	ecx
	movss	DWORD PTR [esp], xmm0
	movss	xmm0, DWORD PTR ?trackTriH@?1??DrawSymbol@RadarDopplerClass@@IAEXHMHH@Z@4MB
	xorps	xmm0, DWORD PTR __xmm@80000000800000008000000080000000
	mulss	xmm0, DWORD PTR ?g_fRadarScale@@3MA
	push	ecx
	movss	DWORD PTR [esp], xmm0
	mov	eax, DWORD PTR _this$[ebp]
	mov	ecx, DWORD PTR [eax+20]
	mov	edx, DWORD PTR _this$[ebp]
	mov	eax, DWORD PTR [ecx]
	mov	ecx, DWORD PTR [edx+20]
	mov	edx, DWORD PTR [eax+32]
	call	edx

; 2362 : 							display->Line (0.0f, g_fRadarScale * trackScale, 0.0f, g_fRadarScale * (trackScale + DD_LENGTH*schweemLen));

	movss	xmm0, DWORD PTR __real@3e4ccccd
	mulss	xmm0, DWORD PTR _schweemLen$[ebp]
	addss	xmm0, DWORD PTR ?trackScale@?1??DrawSymbol@RadarDopplerClass@@IAEXHMHH@Z@4MB
	mulss	xmm0, DWORD PTR ?g_fRadarScale@@3MA
	push	ecx
	movss	DWORD PTR [esp], xmm0
	push	ecx
	movss	xmm0, DWORD PTR __real@00000000
	movss	DWORD PTR [esp], xmm0
	movss	xmm0, DWORD PTR ?g_fRadarScale@@3MA
	mulss	xmm0, DWORD PTR ?trackScale@?1??DrawSymbol@RadarDopplerClass@@IAEXHMHH@Z@4MB
	push	ecx
	movss	DWORD PTR [esp], xmm0
	push	ecx
	movss	xmm0, DWORD PTR __real@00000000
	movss	DWORD PTR [esp], xmm0
	mov	eax, DWORD PTR _this$[ebp]
	mov	ecx, DWORD PTR [eax+20]
	mov	edx, DWORD PTR _this$[ebp]
	mov	eax, DWORD PTR [ecx]
	mov	ecx, DWORD PTR [edx+20]
	mov	edx, DWORD PTR [eax+32]
	call	edx
$LN12@DrawSymbol:

; 2363 : 						}
; 2364 : 					}
; 2365 : 					else {

	jmp	$LN11@DrawSymbol
$LN14@DrawSymbol:

; 2366 : 						display->Tri (0.0f, g_fRadarScale * trackScale, g_fRadarScale * trackTriH, g_fRadarScale * -trackTriV, g_fRadarScale * -trackTriH, g_fRadarScale * -trackTriV);

	movss	xmm0, DWORD PTR ?trackTriV@?1??DrawSymbol@RadarDopplerClass@@IAEXHMHH@Z@4MB
	xorps	xmm0, DWORD PTR __xmm@80000000800000008000000080000000
	mulss	xmm0, DWORD PTR ?g_fRadarScale@@3MA
	push	ecx
	movss	DWORD PTR [esp], xmm0
	movss	xmm0, DWORD PTR ?trackTriH@?1??DrawSymbol@RadarDopplerClass@@IAEXHMHH@Z@4MB
	xorps	xmm0, DWORD PTR __xmm@80000000800000008000000080000000
	mulss	xmm0, DWORD PTR ?g_fRadarScale@@3MA
	push	ecx
	movss	DWORD PTR [esp], xmm0
	movss	xmm0, DWORD PTR ?trackTriV@?1??DrawSymbol@RadarDopplerClass@@IAEXHMHH@Z@4MB
	xorps	xmm0, DWORD PTR __xmm@80000000800000008000000080000000
	mulss	xmm0, DWORD PTR ?g_fRadarScale@@3MA
	push	ecx
	movss	DWORD PTR [esp], xmm0
	movss	xmm0, DWORD PTR ?g_fRadarScale@@3MA
	mulss	xmm0, DWORD PTR ?trackTriH@?1??DrawSymbol@RadarDopplerClass@@IAEXHMHH@Z@4MB
	push	ecx
	movss	DWORD PTR [esp], xmm0
	movss	xmm0, DWORD PTR ?g_fRadarScale@@3MA
	mulss	xmm0, DWORD PTR ?trackScale@?1??DrawSymbol@RadarDopplerClass@@IAEXHMHH@Z@4MB
	push	ecx
	movss	DWORD PTR [esp], xmm0
	push	ecx
	movss	xmm0, DWORD PTR __real@00000000
	movss	DWORD PTR [esp], xmm0
	mov	eax, DWORD PTR _this$[ebp]
	mov	ecx, DWORD PTR [eax+20]
	mov	edx, DWORD PTR _this$[ebp]
	mov	eax, DWORD PTR [ecx]
	mov	ecx, DWORD PTR [edx+20]
	mov	edx, DWORD PTR [eax+36]
	call	edx

; 2367 : 						display->Line (0.0f, g_fRadarScale * trackScale, 0.0f, g_fRadarScale * (trackScale + DD_LENGTH*schweemLen));

	movss	xmm0, DWORD PTR __real@3e4ccccd
	mulss	xmm0, DWORD PTR _schweemLen$[ebp]
	addss	xmm0, DWORD PTR ?trackScale@?1??DrawSymbol@RadarDopplerClass@@IAEXHMHH@Z@4MB
	mulss	xmm0, DWORD PTR ?g_fRadarScale@@3MA
	push	ecx
	movss	DWORD PTR [esp], xmm0
	push	ecx
	movss	xmm0, DWORD PTR __real@00000000
	movss	DWORD PTR [esp], xmm0
	movss	xmm0, DWORD PTR ?g_fRadarScale@@3MA
	mulss	xmm0, DWORD PTR ?trackScale@?1??DrawSymbol@RadarDopplerClass@@IAEXHMHH@Z@4MB
	push	ecx
	movss	DWORD PTR [esp], xmm0
	push	ecx
	movss	xmm0, DWORD PTR __real@00000000
	movss	DWORD PTR [esp], xmm0
	mov	eax, DWORD PTR _this$[ebp]
	mov	ecx, DWORD PTR [eax+20]
	mov	edx, DWORD PTR _this$[ebp]
	mov	eax, DWORD PTR [ecx]
	mov	ecx, DWORD PTR [edx+20]
	mov	edx, DWORD PTR [eax+32]
	call	edx
$LN11@DrawSymbol:

; 2368 : 					}
; 2369 : 					break;

	jmp	$LN19@DrawSymbol
$LN10@DrawSymbol:

; 2370 : 			case  Solid:
; 2371 : 					display->Tri (g_fRadarScale * tgtSize, g_fRadarScale * tgtSize, g_fRadarScale * -tgtSize, g_fRadarScale * tgtSize, g_fRadarScale * -tgtSize, g_fRadarScale * -tgtSize);

	movss	xmm0, DWORD PTR ?tgtSize@?1??DrawSymbol@RadarDopplerClass@@IAEXHMHH@Z@4MB
	xorps	xmm0, DWORD PTR __xmm@80000000800000008000000080000000
	mulss	xmm0, DWORD PTR ?g_fRadarScale@@3MA
	push	ecx
	movss	DWORD PTR [esp], xmm0
	movss	xmm0, DWORD PTR ?tgtSize@?1??DrawSymbol@RadarDopplerClass@@IAEXHMHH@Z@4MB
	xorps	xmm0, DWORD PTR __xmm@80000000800000008000000080000000
	mulss	xmm0, DWORD PTR ?g_fRadarScale@@3MA
	push	ecx
	movss	DWORD PTR [esp], xmm0
	movss	xmm0, DWORD PTR ?g_fRadarScale@@3MA
	mulss	xmm0, DWORD PTR ?tgtSize@?1??DrawSymbol@RadarDopplerClass@@IAEXHMHH@Z@4MB
	push	ecx
	movss	DWORD PTR [esp], xmm0
	movss	xmm0, DWORD PTR ?tgtSize@?1??DrawSymbol@RadarDopplerClass@@IAEXHMHH@Z@4MB
	xorps	xmm0, DWORD PTR __xmm@80000000800000008000000080000000
	mulss	xmm0, DWORD PTR ?g_fRadarScale@@3MA
	push	ecx
	movss	DWORD PTR [esp], xmm0
	movss	xmm0, DWORD PTR ?g_fRadarScale@@3MA
	mulss	xmm0, DWORD PTR ?tgtSize@?1??DrawSymbol@RadarDopplerClass@@IAEXHMHH@Z@4MB
	push	ecx
	movss	DWORD PTR [esp], xmm0
	movss	xmm0, DWORD PTR ?g_fRadarScale@@3MA
	mulss	xmm0, DWORD PTR ?tgtSize@?1??DrawSymbol@RadarDopplerClass@@IAEXHMHH@Z@4MB
	push	ecx
	movss	DWORD PTR [esp], xmm0
	mov	eax, DWORD PTR _this$[ebp]
	mov	ecx, DWORD PTR [eax+20]
	mov	edx, DWORD PTR _this$[ebp]
	mov	eax, DWORD PTR [ecx]
	mov	ecx, DWORD PTR [edx+20]
	mov	edx, DWORD PTR [eax+36]
	call	edx

; 2372 : 					display->Tri (g_fRadarScale * tgtSize, g_fRadarScale * tgtSize, g_fRadarScale * tgtSize, g_fRadarScale * -tgtSize, g_fRadarScale * -tgtSize, g_fRadarScale * -tgtSize);

	movss	xmm0, DWORD PTR ?tgtSize@?1??DrawSymbol@RadarDopplerClass@@IAEXHMHH@Z@4MB
	xorps	xmm0, DWORD PTR __xmm@80000000800000008000000080000000
	mulss	xmm0, DWORD PTR ?g_fRadarScale@@3MA
	push	ecx
	movss	DWORD PTR [esp], xmm0
	movss	xmm0, DWORD PTR ?tgtSize@?1??DrawSymbol@RadarDopplerClass@@IAEXHMHH@Z@4MB
	xorps	xmm0, DWORD PTR __xmm@80000000800000008000000080000000
	mulss	xmm0, DWORD PTR ?g_fRadarScale@@3MA
	push	ecx
	movss	DWORD PTR [esp], xmm0
	movss	xmm0, DWORD PTR ?tgtSize@?1??DrawSymbol@RadarDopplerClass@@IAEXHMHH@Z@4MB
	xorps	xmm0, DWORD PTR __xmm@80000000800000008000000080000000
	mulss	xmm0, DWORD PTR ?g_fRadarScale@@3MA
	push	ecx
	movss	DWORD PTR [esp], xmm0
	movss	xmm0, DWORD PTR ?g_fRadarScale@@3MA
	mulss	xmm0, DWORD PTR ?tgtSize@?1??DrawSymbol@RadarDopplerClass@@IAEXHMHH@Z@4MB
	push	ecx
	movss	DWORD PTR [esp], xmm0
	movss	xmm0, DWORD PTR ?g_fRadarScale@@3MA
	mulss	xmm0, DWORD PTR ?tgtSize@?1??DrawSymbol@RadarDopplerClass@@IAEXHMHH@Z@4MB
	push	ecx
	movss	DWORD PTR [esp], xmm0
	movss	xmm0, DWORD PTR ?g_fRadarScale@@3MA
	mulss	xmm0, DWORD PTR ?tgtSize@?1??DrawSymbol@RadarDopplerClass@@IAEXHMHH@Z@4MB
	push	ecx
	movss	DWORD PTR [esp], xmm0
	mov	eax, DWORD PTR _this$[ebp]
	mov	ecx, DWORD PTR [eax+20]
	mov	edx, DWORD PTR _this$[ebp]
	mov	eax, DWORD PTR [ecx]
	mov	ecx, DWORD PTR [edx+20]
	mov	edx, DWORD PTR [eax+36]
	call	edx

; 2373 : 					break;

	jmp	$LN19@DrawSymbol
$LN9@DrawSymbol:

; 2374 : 
; 2375 : 			case HitInd: // new symbol
; 2376 : 					display->Line( g_fRadarScale * -hitSizeW,  g_fRadarScale * hitSizeH, g_fRadarScale * hitSizeW, g_fRadarScale * -hitSizeH );

	movss	xmm0, DWORD PTR ?hitSizeH@?1??DrawSymbol@RadarDopplerClass@@IAEXHMHH@Z@4MB
	xorps	xmm0, DWORD PTR __xmm@80000000800000008000000080000000
	mulss	xmm0, DWORD PTR ?g_fRadarScale@@3MA
	push	ecx
	movss	DWORD PTR [esp], xmm0
	movss	xmm0, DWORD PTR ?g_fRadarScale@@3MA
	mulss	xmm0, DWORD PTR ?hitSizeW@?1??DrawSymbol@RadarDopplerClass@@IAEXHMHH@Z@4MB
	push	ecx
	movss	DWORD PTR [esp], xmm0
	movss	xmm0, DWORD PTR ?g_fRadarScale@@3MA
	mulss	xmm0, DWORD PTR ?hitSizeH@?1??DrawSymbol@RadarDopplerClass@@IAEXHMHH@Z@4MB
	push	ecx
	movss	DWORD PTR [esp], xmm0
	movss	xmm0, DWORD PTR ?hitSizeW@?1??DrawSymbol@RadarDopplerClass@@IAEXHMHH@Z@4MB
	xorps	xmm0, DWORD PTR __xmm@80000000800000008000000080000000
	mulss	xmm0, DWORD PTR ?g_fRadarScale@@3MA
	push	ecx
	movss	DWORD PTR [esp], xmm0
	mov	eax, DWORD PTR _this$[ebp]
	mov	ecx, DWORD PTR [eax+20]
	mov	edx, DWORD PTR _this$[ebp]
	mov	eax, DWORD PTR [ecx]
	mov	ecx, DWORD PTR [edx+20]
	mov	edx, DWORD PTR [eax+32]
	call	edx

; 2377 : 					display->Line( g_fRadarScale *  hitSizeW,  g_fRadarScale * hitSizeH, g_fRadarScale * -hitSizeW, g_fRadarScale * -hitSizeH );

	movss	xmm0, DWORD PTR ?hitSizeH@?1??DrawSymbol@RadarDopplerClass@@IAEXHMHH@Z@4MB
	xorps	xmm0, DWORD PTR __xmm@80000000800000008000000080000000
	mulss	xmm0, DWORD PTR ?g_fRadarScale@@3MA
	push	ecx
	movss	DWORD PTR [esp], xmm0
	movss	xmm0, DWORD PTR ?hitSizeW@?1??DrawSymbol@RadarDopplerClass@@IAEXHMHH@Z@4MB
	xorps	xmm0, DWORD PTR __xmm@80000000800000008000000080000000
	mulss	xmm0, DWORD PTR ?g_fRadarScale@@3MA
	push	ecx
	movss	DWORD PTR [esp], xmm0
	movss	xmm0, DWORD PTR ?g_fRadarScale@@3MA
	mulss	xmm0, DWORD PTR ?hitSizeH@?1??DrawSymbol@RadarDopplerClass@@IAEXHMHH@Z@4MB
	push	ecx
	movss	DWORD PTR [esp], xmm0
	movss	xmm0, DWORD PTR ?g_fRadarScale@@3MA
	mulss	xmm0, DWORD PTR ?hitSizeW@?1??DrawSymbol@RadarDopplerClass@@IAEXHMHH@Z@4MB
	push	ecx
	movss	DWORD PTR [esp], xmm0
	mov	eax, DWORD PTR _this$[ebp]
	mov	ecx, DWORD PTR [eax+20]
	mov	edx, DWORD PTR _this$[ebp]
	mov	eax, DWORD PTR [ecx]
	mov	ecx, DWORD PTR [edx+20]
	mov	edx, DWORD PTR [eax+32]
	call	edx

; 2378 : 					break;

	jmp	$LN19@DrawSymbol
$LN8@DrawSymbol:

; 2379 : 
; 2380 : 			case Jam:
; 2381 : 					if (g_bRadarJamChevrons) { // JPO two chevrons pointing up.

	movzx	eax, BYTE PTR ?g_bRadarJamChevrons@@3_NA ; g_bRadarJamChevrons
	test	eax, eax
	je	$LN7@DrawSymbol

; 2382 : 						display->Line(g_fRadarScale * -jamNewSizeH, g_fRadarScale * -jamNewSizeV, 0, 0);

	push	ecx
	movss	xmm0, DWORD PTR __real@00000000
	movss	DWORD PTR [esp], xmm0
	push	ecx
	movss	xmm0, DWORD PTR __real@00000000
	movss	DWORD PTR [esp], xmm0
	movss	xmm0, DWORD PTR ?jamNewSizeV@?1??DrawSymbol@RadarDopplerClass@@IAEXHMHH@Z@4MB
	xorps	xmm0, DWORD PTR __xmm@80000000800000008000000080000000
	mulss	xmm0, DWORD PTR ?g_fRadarScale@@3MA
	push	ecx
	movss	DWORD PTR [esp], xmm0
	movss	xmm0, DWORD PTR ?jamNewSizeH@?1??DrawSymbol@RadarDopplerClass@@IAEXHMHH@Z@4MB
	xorps	xmm0, DWORD PTR __xmm@80000000800000008000000080000000
	mulss	xmm0, DWORD PTR ?g_fRadarScale@@3MA
	push	ecx
	movss	DWORD PTR [esp], xmm0
	mov	ecx, DWORD PTR _this$[ebp]
	mov	edx, DWORD PTR [ecx+20]
	mov	eax, DWORD PTR _this$[ebp]
	mov	edx, DWORD PTR [edx]
	mov	ecx, DWORD PTR [eax+20]
	mov	eax, DWORD PTR [edx+32]
	call	eax

; 2383 : 						display->Line(0, 0, g_fRadarScale * jamNewSizeH, g_fRadarScale * -jamNewSizeV);

	movss	xmm0, DWORD PTR ?jamNewSizeV@?1??DrawSymbol@RadarDopplerClass@@IAEXHMHH@Z@4MB
	xorps	xmm0, DWORD PTR __xmm@80000000800000008000000080000000
	mulss	xmm0, DWORD PTR ?g_fRadarScale@@3MA
	push	ecx
	movss	DWORD PTR [esp], xmm0
	movss	xmm0, DWORD PTR ?g_fRadarScale@@3MA
	mulss	xmm0, DWORD PTR ?jamNewSizeH@?1??DrawSymbol@RadarDopplerClass@@IAEXHMHH@Z@4MB
	push	ecx
	movss	DWORD PTR [esp], xmm0
	push	ecx
	movss	xmm0, DWORD PTR __real@00000000
	movss	DWORD PTR [esp], xmm0
	push	ecx
	movss	xmm0, DWORD PTR __real@00000000
	movss	DWORD PTR [esp], xmm0
	mov	ecx, DWORD PTR _this$[ebp]
	mov	edx, DWORD PTR [ecx+20]
	mov	eax, DWORD PTR _this$[ebp]
	mov	edx, DWORD PTR [edx]
	mov	ecx, DWORD PTR [eax+20]
	mov	eax, DWORD PTR [edx+32]
	call	eax

; 2384 : 						display->Line(g_fRadarScale * -jamNewSizeH, g_fRadarScale * (-jamNewSizeV+jamNewDelta), 0, g_fRadarScale * jamNewDelta);

	movss	xmm0, DWORD PTR ?g_fRadarScale@@3MA
	mulss	xmm0, DWORD PTR ?jamNewDelta@?1??DrawSymbol@RadarDopplerClass@@IAEXHMHH@Z@4MB
	push	ecx
	movss	DWORD PTR [esp], xmm0
	push	ecx
	movss	xmm0, DWORD PTR __real@00000000
	movss	DWORD PTR [esp], xmm0
	movss	xmm0, DWORD PTR ?jamNewSizeV@?1??DrawSymbol@RadarDopplerClass@@IAEXHMHH@Z@4MB
	xorps	xmm0, DWORD PTR __xmm@80000000800000008000000080000000
	addss	xmm0, DWORD PTR ?jamNewDelta@?1??DrawSymbol@RadarDopplerClass@@IAEXHMHH@Z@4MB
	mulss	xmm0, DWORD PTR ?g_fRadarScale@@3MA
	push	ecx
	movss	DWORD PTR [esp], xmm0
	movss	xmm0, DWORD PTR ?jamNewSizeH@?1??DrawSymbol@RadarDopplerClass@@IAEXHMHH@Z@4MB
	xorps	xmm0, DWORD PTR __xmm@80000000800000008000000080000000
	mulss	xmm0, DWORD PTR ?g_fRadarScale@@3MA
	push	ecx
	movss	DWORD PTR [esp], xmm0
	mov	ecx, DWORD PTR _this$[ebp]
	mov	edx, DWORD PTR [ecx+20]
	mov	eax, DWORD PTR _this$[ebp]
	mov	edx, DWORD PTR [edx]
	mov	ecx, DWORD PTR [eax+20]
	mov	eax, DWORD PTR [edx+32]
	call	eax

; 2385 : 						display->Line(0, g_fRadarScale * jamNewDelta, g_fRadarScale * jamNewSizeH, g_fRadarScale * -jamNewSizeV+jamNewDelta);

	movss	xmm0, DWORD PTR ?jamNewSizeV@?1??DrawSymbol@RadarDopplerClass@@IAEXHMHH@Z@4MB
	xorps	xmm0, DWORD PTR __xmm@80000000800000008000000080000000
	mulss	xmm0, DWORD PTR ?g_fRadarScale@@3MA
	addss	xmm0, DWORD PTR ?jamNewDelta@?1??DrawSymbol@RadarDopplerClass@@IAEXHMHH@Z@4MB
	push	ecx
	movss	DWORD PTR [esp], xmm0
	movss	xmm0, DWORD PTR ?g_fRadarScale@@3MA
	mulss	xmm0, DWORD PTR ?jamNewSizeH@?1??DrawSymbol@RadarDopplerClass@@IAEXHMHH@Z@4MB
	push	ecx
	movss	DWORD PTR [esp], xmm0
	movss	xmm0, DWORD PTR ?g_fRadarScale@@3MA
	mulss	xmm0, DWORD PTR ?jamNewDelta@?1??DrawSymbol@RadarDopplerClass@@IAEXHMHH@Z@4MB
	push	ecx
	movss	DWORD PTR [esp], xmm0
	push	ecx
	movss	xmm0, DWORD PTR __real@00000000
	movss	DWORD PTR [esp], xmm0
	mov	ecx, DWORD PTR _this$[ebp]
	mov	edx, DWORD PTR [ecx+20]
	mov	eax, DWORD PTR _this$[ebp]
	mov	edx, DWORD PTR [edx]
	mov	ecx, DWORD PTR [eax+20]
	mov	eax, DWORD PTR [edx+32]
	call	eax

; 2386 : 					}
; 2387 : 					else {

	jmp	$LN6@DrawSymbol
$LN7@DrawSymbol:

; 2388 : 						display->Line( g_fRadarScale * -jamSizeW,  g_fRadarScale * jamSizeH,  g_fRadarScale * jamSizeW, g_fRadarScale * -jamSizeH );

	movss	xmm0, DWORD PTR ?jamSizeH@?1??DrawSymbol@RadarDopplerClass@@IAEXHMHH@Z@4MB
	xorps	xmm0, DWORD PTR __xmm@80000000800000008000000080000000
	mulss	xmm0, DWORD PTR ?g_fRadarScale@@3MA
	push	ecx
	movss	DWORD PTR [esp], xmm0
	movss	xmm0, DWORD PTR ?g_fRadarScale@@3MA
	mulss	xmm0, DWORD PTR ?jamSizeW@?1??DrawSymbol@RadarDopplerClass@@IAEXHMHH@Z@4MB
	push	ecx
	movss	DWORD PTR [esp], xmm0
	movss	xmm0, DWORD PTR ?g_fRadarScale@@3MA
	mulss	xmm0, DWORD PTR ?jamSizeH@?1??DrawSymbol@RadarDopplerClass@@IAEXHMHH@Z@4MB
	push	ecx
	movss	DWORD PTR [esp], xmm0
	movss	xmm0, DWORD PTR ?jamSizeW@?1??DrawSymbol@RadarDopplerClass@@IAEXHMHH@Z@4MB
	xorps	xmm0, DWORD PTR __xmm@80000000800000008000000080000000
	mulss	xmm0, DWORD PTR ?g_fRadarScale@@3MA
	push	ecx
	movss	DWORD PTR [esp], xmm0
	mov	ecx, DWORD PTR _this$[ebp]
	mov	edx, DWORD PTR [ecx+20]
	mov	eax, DWORD PTR _this$[ebp]
	mov	edx, DWORD PTR [edx]
	mov	ecx, DWORD PTR [eax+20]
	mov	eax, DWORD PTR [edx+32]
	call	eax

; 2389 : 						display->Line( g_fRadarScale *  jamSizeW,  g_fRadarScale * jamSizeH, g_fRadarScale * -jamSizeW, g_fRadarScale * -jamSizeH );

	movss	xmm0, DWORD PTR ?jamSizeH@?1??DrawSymbol@RadarDopplerClass@@IAEXHMHH@Z@4MB
	xorps	xmm0, DWORD PTR __xmm@80000000800000008000000080000000
	mulss	xmm0, DWORD PTR ?g_fRadarScale@@3MA
	push	ecx
	movss	DWORD PTR [esp], xmm0
	movss	xmm0, DWORD PTR ?jamSizeW@?1??DrawSymbol@RadarDopplerClass@@IAEXHMHH@Z@4MB
	xorps	xmm0, DWORD PTR __xmm@80000000800000008000000080000000
	mulss	xmm0, DWORD PTR ?g_fRadarScale@@3MA
	push	ecx
	movss	DWORD PTR [esp], xmm0
	movss	xmm0, DWORD PTR ?g_fRadarScale@@3MA
	mulss	xmm0, DWORD PTR ?jamSizeH@?1??DrawSymbol@RadarDopplerClass@@IAEXHMHH@Z@4MB
	push	ecx
	movss	DWORD PTR [esp], xmm0
	movss	xmm0, DWORD PTR ?g_fRadarScale@@3MA
	mulss	xmm0, DWORD PTR ?jamSizeW@?1??DrawSymbol@RadarDopplerClass@@IAEXHMHH@Z@4MB
	push	ecx
	movss	DWORD PTR [esp], xmm0
	mov	ecx, DWORD PTR _this$[ebp]
	mov	edx, DWORD PTR [ecx+20]
	mov	eax, DWORD PTR _this$[ebp]
	mov	edx, DWORD PTR [edx]
	mov	ecx, DWORD PTR [eax+20]
	mov	eax, DWORD PTR [edx+32]
	call	eax
$LN6@DrawSymbol:

; 2390 : 					}
; 2391 : 					break;//Cobra This was missing!!!

	jmp	$LN19@DrawSymbol
$LN5@DrawSymbol:

; 2392 : 
; 2393 : 			case  Det:
; 2394 : 					if(!g_bRealisticAvionics)

	movzx	ecx, BYTE PTR ?g_bRealisticAvionics@@3_NA ; g_bRealisticAvionics
	test	ecx, ecx
	jne	SHORT $LN4@DrawSymbol

; 2395 : 					{
; 2396 : 						display->Line (g_fRadarScale * -tgtSize, 0.0f, g_fRadarScale * tgtSize, 0.0f);

	push	ecx
	movss	xmm0, DWORD PTR __real@00000000
	movss	DWORD PTR [esp], xmm0
	movss	xmm0, DWORD PTR ?g_fRadarScale@@3MA
	mulss	xmm0, DWORD PTR ?tgtSize@?1??DrawSymbol@RadarDopplerClass@@IAEXHMHH@Z@4MB
	push	ecx
	movss	DWORD PTR [esp], xmm0
	push	ecx
	movss	xmm0, DWORD PTR __real@00000000
	movss	DWORD PTR [esp], xmm0
	movss	xmm0, DWORD PTR ?tgtSize@?1??DrawSymbol@RadarDopplerClass@@IAEXHMHH@Z@4MB
	xorps	xmm0, DWORD PTR __xmm@80000000800000008000000080000000
	mulss	xmm0, DWORD PTR ?g_fRadarScale@@3MA
	push	ecx
	movss	DWORD PTR [esp], xmm0
	mov	edx, DWORD PTR _this$[ebp]
	mov	eax, DWORD PTR [edx+20]
	mov	ecx, DWORD PTR _this$[ebp]
	mov	edx, DWORD PTR [eax]
	mov	ecx, DWORD PTR [ecx+20]
	mov	eax, DWORD PTR [edx+32]
	call	eax

; 2397 : 					}
; 2398 : 					else

	jmp	$LN3@DrawSymbol
$LN4@DrawSymbol:

; 2399 : 					{
; 2400 : 						//MI we get squares here too
; 2401 : 						display->Tri (g_fRadarScale * tgtSize, g_fRadarScale * tgtSize, g_fRadarScale * -tgtSize, g_fRadarScale * tgtSize, g_fRadarScale * -tgtSize, g_fRadarScale * -tgtSize);

	movss	xmm0, DWORD PTR ?tgtSize@?1??DrawSymbol@RadarDopplerClass@@IAEXHMHH@Z@4MB
	xorps	xmm0, DWORD PTR __xmm@80000000800000008000000080000000
	mulss	xmm0, DWORD PTR ?g_fRadarScale@@3MA
	push	ecx
	movss	DWORD PTR [esp], xmm0
	movss	xmm0, DWORD PTR ?tgtSize@?1??DrawSymbol@RadarDopplerClass@@IAEXHMHH@Z@4MB
	xorps	xmm0, DWORD PTR __xmm@80000000800000008000000080000000
	mulss	xmm0, DWORD PTR ?g_fRadarScale@@3MA
	push	ecx
	movss	DWORD PTR [esp], xmm0
	movss	xmm0, DWORD PTR ?g_fRadarScale@@3MA
	mulss	xmm0, DWORD PTR ?tgtSize@?1??DrawSymbol@RadarDopplerClass@@IAEXHMHH@Z@4MB
	push	ecx
	movss	DWORD PTR [esp], xmm0
	movss	xmm0, DWORD PTR ?tgtSize@?1??DrawSymbol@RadarDopplerClass@@IAEXHMHH@Z@4MB
	xorps	xmm0, DWORD PTR __xmm@80000000800000008000000080000000
	mulss	xmm0, DWORD PTR ?g_fRadarScale@@3MA
	push	ecx
	movss	DWORD PTR [esp], xmm0
	movss	xmm0, DWORD PTR ?g_fRadarScale@@3MA
	mulss	xmm0, DWORD PTR ?tgtSize@?1??DrawSymbol@RadarDopplerClass@@IAEXHMHH@Z@4MB
	push	ecx
	movss	DWORD PTR [esp], xmm0
	movss	xmm0, DWORD PTR ?g_fRadarScale@@3MA
	mulss	xmm0, DWORD PTR ?tgtSize@?1??DrawSymbol@RadarDopplerClass@@IAEXHMHH@Z@4MB
	push	ecx
	movss	DWORD PTR [esp], xmm0
	mov	ecx, DWORD PTR _this$[ebp]
	mov	edx, DWORD PTR [ecx+20]
	mov	eax, DWORD PTR _this$[ebp]
	mov	edx, DWORD PTR [edx]
	mov	ecx, DWORD PTR [eax+20]
	mov	eax, DWORD PTR [edx+36]
	call	eax

; 2402 : 						display->Tri (g_fRadarScale * tgtSize, g_fRadarScale * tgtSize, g_fRadarScale * tgtSize, g_fRadarScale * -tgtSize, g_fRadarScale * -tgtSize, g_fRadarScale * -tgtSize);

	movss	xmm0, DWORD PTR ?tgtSize@?1??DrawSymbol@RadarDopplerClass@@IAEXHMHH@Z@4MB
	xorps	xmm0, DWORD PTR __xmm@80000000800000008000000080000000
	mulss	xmm0, DWORD PTR ?g_fRadarScale@@3MA
	push	ecx
	movss	DWORD PTR [esp], xmm0
	movss	xmm0, DWORD PTR ?tgtSize@?1??DrawSymbol@RadarDopplerClass@@IAEXHMHH@Z@4MB
	xorps	xmm0, DWORD PTR __xmm@80000000800000008000000080000000
	mulss	xmm0, DWORD PTR ?g_fRadarScale@@3MA
	push	ecx
	movss	DWORD PTR [esp], xmm0
	movss	xmm0, DWORD PTR ?tgtSize@?1??DrawSymbol@RadarDopplerClass@@IAEXHMHH@Z@4MB
	xorps	xmm0, DWORD PTR __xmm@80000000800000008000000080000000
	mulss	xmm0, DWORD PTR ?g_fRadarScale@@3MA
	push	ecx
	movss	DWORD PTR [esp], xmm0
	movss	xmm0, DWORD PTR ?g_fRadarScale@@3MA
	mulss	xmm0, DWORD PTR ?tgtSize@?1??DrawSymbol@RadarDopplerClass@@IAEXHMHH@Z@4MB
	push	ecx
	movss	DWORD PTR [esp], xmm0
	movss	xmm0, DWORD PTR ?g_fRadarScale@@3MA
	mulss	xmm0, DWORD PTR ?tgtSize@?1??DrawSymbol@RadarDopplerClass@@IAEXHMHH@Z@4MB
	push	ecx
	movss	DWORD PTR [esp], xmm0
	movss	xmm0, DWORD PTR ?g_fRadarScale@@3MA
	mulss	xmm0, DWORD PTR ?tgtSize@?1??DrawSymbol@RadarDopplerClass@@IAEXHMHH@Z@4MB
	push	ecx
	movss	DWORD PTR [esp], xmm0
	mov	ecx, DWORD PTR _this$[ebp]
	mov	edx, DWORD PTR [ecx+20]
	mov	eax, DWORD PTR _this$[ebp]
	mov	edx, DWORD PTR [edx]
	mov	ecx, DWORD PTR [eax+20]
	mov	eax, DWORD PTR [edx+36]
	call	eax
$LN3@DrawSymbol:

; 2403 : 					}
; 2404 : 
; 2405 : 					break;

	jmp	SHORT $LN19@DrawSymbol

; 2406 : 			case InterogateUnk:
; 2407 : 			case InterogateFoe:
; 2408 : 					break;

	jmp	SHORT $LN19@DrawSymbol
$LN1@DrawSymbol:

; 2409 : 			case InterogateFriend:
; 2410 : 					//Cobra Adding stuff here 11/20/04
; 2411 : 					{
; 2412 : 						display->Circle(0.0F, 0.0F, 0.03F);

	push	ecx
	movss	xmm0, DWORD PTR __real@3cf5c28f
	movss	DWORD PTR [esp], xmm0
	push	ecx
	movss	xmm0, DWORD PTR __real@00000000
	movss	DWORD PTR [esp], xmm0
	push	ecx
	movss	xmm0, DWORD PTR __real@00000000
	movss	DWORD PTR [esp], xmm0
	mov	ecx, DWORD PTR _this$[ebp]
	mov	edx, DWORD PTR [ecx+20]
	mov	eax, DWORD PTR _this$[ebp]
	mov	edx, DWORD PTR [edx]
	mov	ecx, DWORD PTR [eax+20]
	mov	eax, DWORD PTR [edx+48]
	call	eax
$LN19@DrawSymbol:

; 2413 : 					}
; 2414 : 					break;
; 2415 : 	} /*switch*/
; 2416 : 
; 2417 : 	display->scaleY=OldScaleY, display->scaleX=OldScaleX;

	mov	ecx, DWORD PTR _this$[ebp]
	mov	edx, DWORD PTR [ecx+20]
	movss	xmm0, DWORD PTR _OldScaleY$[ebp]
	movss	DWORD PTR [edx+36], xmm0
	mov	eax, DWORD PTR _this$[ebp]
	mov	ecx, DWORD PTR [eax+20]
	movss	xmm0, DWORD PTR _OldScaleX$[ebp]
	movss	DWORD PTR [ecx+32], xmm0
$LN34@DrawSymbol:

; 2418 : 
; 2419 : }

	mov	ecx, DWORD PTR __$EHRec$[ebp]
	mov	DWORD PTR fs:0, ecx
	pop	ecx
	mov	esp, ebp
	pop	ebp
	ret	16					; 00000010H
	npad	3
$LN41@DrawSymbol:
	DD	$LN22@DrawSymbol
	DD	$LN23@DrawSymbol
	DD	$LN24@DrawSymbol
	DD	$LN26@DrawSymbol
	DD	$LN27@DrawSymbol
	DD	$LN25@DrawSymbol
	DD	$LN21@DrawSymbol
	DD	$LN28@DrawSymbol
$LN38@DrawSymbol:
	DB	0
	DB	0
	DB	1
	DB	2
	DB	7
	DB	7
	DB	3
	DB	4
	DB	7
	DB	7
	DB	7
	DB	7
	DB	7
	DB	0
	DB	5
	DB	4
	DB	4
	DB	7
	DB	6
	npad	1
$LN42@DrawSymbol:
	DD	$LN5@DrawSymbol
	DD	$LN10@DrawSymbol
	DD	$LN17@DrawSymbol
	DD	$LN8@DrawSymbol
	DD	$LN9@DrawSymbol
	DD	$LN18@DrawSymbol
	DD	$LN1@DrawSymbol
	DD	$LN19@DrawSymbol
$LN39@DrawSymbol:
	DB	0
	DB	1
	DB	2
	DB	2
	DB	7
	DB	7
	DB	2
	DB	2
	DB	7
	DB	7
	DB	7
	DB	7
	DB	7
	DB	3
	DB	4
	DB	5
	DB	5
	DB	7
	DB	6
_TEXT	ENDS
text$x	SEGMENT
__unwindfunclet$?DrawSymbol@RadarDopplerClass@@IAEXHMHH@Z$0:
	mov	eax, DWORD PTR ?$S1@?1??DrawSymbol@RadarDopplerClass@@IAEXHMHH@Z@4IA
	and	eax, -2					; fffffffeH
	mov	DWORD PTR ?$S1@?1??DrawSymbol@RadarDopplerClass@@IAEXHMHH@Z@4IA, eax
	ret	0
__unwindfunclet$?DrawSymbol@RadarDopplerClass@@IAEXHMHH@Z$1:
	mov	eax, DWORD PTR ?$S1@?1??DrawSymbol@RadarDopplerClass@@IAEXHMHH@Z@4IA
	and	eax, -3					; fffffffdH
	mov	DWORD PTR ?$S1@?1??DrawSymbol@RadarDopplerClass@@IAEXHMHH@Z@4IA, eax
	ret	0
__ehhandler$?DrawSymbol@RadarDopplerClass@@IAEXHMHH@Z:
	mov	edx, DWORD PTR [esp+8]
	lea	eax, DWORD PTR [edx+12]
	mov	ecx, DWORD PTR [edx-36]
	xor	ecx, eax
	call	@__security_check_cookie@4
	mov	eax, OFFSET __ehfuncinfo$?DrawSymbol@RadarDopplerClass@@IAEXHMHH@Z
	jmp	___CxxFrameHandler3
text$x	ENDS
?DrawSymbol@RadarDopplerClass@@IAEXHMHH@Z ENDP		; RadarDopplerClass::DrawSymbol
; Function compile flags: /Odtp
; File c:\users\zhitao li\documents\visual studio 2012\projects\freefalcon\sim\radar\bscope.cpp
_TEXT	SEGMENT
tv1819 = -180						; size = 4
_color$ = -176						; size = 4
tv1790 = -172						; size = 4
tv142 = -168						; size = 4
tv144 = -164						; size = 4
tv467 = -160						; size = 4
tv589 = -156						; size = 4
tv411 = -152						; size = 4
tv1008 = -148						; size = 4
tv563 = -144						; size = 4
tv1007 = -140						; size = 4
tv509 = -136						; size = 4
tv994 = -132						; size = 4
tv453 = -128						; size = 4
tv968 = -124						; size = 4
tv148 = -120						; size = 4
tv967 = -116						; size = 4
tv586 = -112						; size = 4
tv954 = -108						; size = 4
tv562 = -104						; size = 4
tv825 = -100						; size = 4
tv510 = -96						; size = 4
tv824 = -92						; size = 4
tv496 = -88						; size = 4
tv821 = -84						; size = 4
tv466 = -80						; size = 4
tv717 = -76						; size = 4
tv412 = -72						; size = 4
tv716 = -68						; size = 4
tv398 = -64						; size = 4
tv713 = -60						; size = 4
tv146 = -56						; size = 4
tv590 = -52						; size = 4
tv549 = -48						; size = 4
_textbottom$ = -44					; size = 4
_rNeMin$ = -40						; size = 4
_rNeMax$ = -36						; size = 4
_rMin$ = -32						; size = 4
_rMax$ = -28						; size = 4
_pFCC$ = -24						; size = 4
_yOffset$ = -20						; size = 4
_this$ = -16						; size = 4
_tmpStr$ = -12						; size = 8
__$ArrayPad$ = -4					; size = 4
?DrawDLZSymbol@RadarDopplerClass@@IAEXXZ PROC		; RadarDopplerClass::DrawDLZSymbol
; _this$ = ecx

; 2626 : {

	push	ebp
	mov	ebp, esp
	sub	esp, 180				; 000000b4H
	mov	eax, DWORD PTR ___security_cookie
	xor	eax, ebp
	mov	DWORD PTR __$ArrayPad$[ebp], eax
	mov	DWORD PTR _this$[ebp], ecx

; 2627 : 	if (IsAADclt(Dlz)) return;

	push	128					; 00000080H
	mov	ecx, DWORD PTR _this$[ebp]
	call	?IsAADclt@RadarDopplerClass@@IAEHH@Z	; RadarDopplerClass::IsAADclt
	test	eax, eax
	je	SHORT $LN30@DrawDLZSym
	jmp	$LN31@DrawDLZSym
$LN30@DrawDLZSym:

; 2628 : 	FireControlComputer* pFCC = ((SimVehicleClass*)platform)->GetFCC();

	mov	eax, DWORD PTR _this$[ebp]
	mov	ecx, DWORD PTR [eax+32]
	mov	edx, DWORD PTR _this$[ebp]
	mov	eax, DWORD PTR [ecx]
	mov	ecx, DWORD PTR [edx+32]
	mov	edx, DWORD PTR [eax+460]
	call	edx
	mov	DWORD PTR _pFCC$[ebp], eax

; 2629 : 	char  tmpStr[8];
; 2630 : 	float rMin;
; 2631 : 	float rMax;
; 2632 : 	float rNeMin;
; 2633 : 	float rNeMax;
; 2634 : 	float yOffset;
; 2635 : 	static float leftEdge   = 0.88F;  // .9F
; 2636 : 	static float rightEdge  = 0.90F;
; 2637 : 	static float bottomEdge = -0.5F;
; 2638 : 	static float width      = 0.10F;  //.05
; 2639 : 	static float height     = 1.4F;
; 2640 : 	static float rangeInv = 1.0F / tdisplayRange;

	mov	eax, DWORD PTR ?$S2@?3??DrawDLZSymbol@RadarDopplerClass@@IAEXXZ@4IA
	and	eax, 1
	jne	SHORT $LN29@DrawDLZSym
	mov	ecx, DWORD PTR ?$S2@?3??DrawDLZSymbol@RadarDopplerClass@@IAEXXZ@4IA
	or	ecx, 1
	mov	DWORD PTR ?$S2@?3??DrawDLZSymbol@RadarDopplerClass@@IAEXXZ@4IA, ecx
	mov	edx, DWORD PTR _this$[ebp]
	movss	xmm0, DWORD PTR __real@3f800000
	divss	xmm0, DWORD PTR [edx+264]
	movss	DWORD PTR ?rangeInv@?3??DrawDLZSymbol@RadarDopplerClass@@IAEXXZ@4MA, xmm0
$LN29@DrawDLZSym:

; 2641 : 	float textbottom;
; 2642 : 	int color = display->Color();

	mov	eax, DWORD PTR _this$[ebp]
	mov	ecx, DWORD PTR [eax+20]
	mov	edx, DWORD PTR _this$[ebp]
	mov	eax, DWORD PTR [ecx]
	mov	ecx, DWORD PTR [edx+20]
	mov	edx, DWORD PTR [eax+108]
	call	edx
	mov	DWORD PTR _color$[ebp], eax

; 2643 : 	rMax   = pFCC->missileRMax * rangeInv;

	mov	eax, DWORD PTR _pFCC$[ebp]
	movss	xmm0, DWORD PTR [eax+288]
	mulss	xmm0, DWORD PTR ?rangeInv@?3??DrawDLZSymbol@RadarDopplerClass@@IAEXXZ@4MA
	movss	DWORD PTR _rMax$[ebp], xmm0

; 2644 : 	rMin   = pFCC->missileRMin * rangeInv;

	mov	ecx, DWORD PTR _pFCC$[ebp]
	movss	xmm0, DWORD PTR [ecx+292]
	mulss	xmm0, DWORD PTR ?rangeInv@?3??DrawDLZSymbol@RadarDopplerClass@@IAEXXZ@4MA
	movss	DWORD PTR _rMin$[ebp], xmm0

; 2645 : 	rNeMax = pFCC->missileRneMax * rangeInv; // Marco Edit * 0.70f;//me123 addet *0.70 ;

	mov	edx, DWORD PTR _pFCC$[ebp]
	movss	xmm0, DWORD PTR [edx+296]
	mulss	xmm0, DWORD PTR ?rangeInv@?3??DrawDLZSymbol@RadarDopplerClass@@IAEXXZ@4MA
	movss	DWORD PTR _rNeMax$[ebp], xmm0

; 2646 : 	rNeMin = pFCC->missileRneMin * rangeInv;

	mov	eax, DWORD PTR _pFCC$[ebp]
	movss	xmm0, DWORD PTR [eax+300]
	mulss	xmm0, DWORD PTR ?rangeInv@?3??DrawDLZSymbol@RadarDopplerClass@@IAEXXZ@4MA
	movss	DWORD PTR _rNeMin$[ebp], xmm0

; 2647 : 
; 2648 : 	ShiAssert(lockedTargetData != NULL);
; 2649 : 	// Clamp in place
; 2650 : 	rMin = min (rMin, 1.0F);

	movss	xmm0, DWORD PTR __real@3f800000
	comiss	xmm0, DWORD PTR _rMin$[ebp]
	jbe	SHORT $LN33@DrawDLZSym
	movss	xmm0, DWORD PTR _rMin$[ebp]
	movss	DWORD PTR tv142[ebp], xmm0
	jmp	SHORT $LN34@DrawDLZSym
$LN33@DrawDLZSym:
	movss	xmm0, DWORD PTR __real@3f800000
	movss	DWORD PTR tv142[ebp], xmm0
$LN34@DrawDLZSym:
	movss	xmm0, DWORD PTR tv142[ebp]
	movss	DWORD PTR _rMin$[ebp], xmm0

; 2651 : 	rMax = min (rMax, 1.0F);

	movss	xmm0, DWORD PTR __real@3f800000
	comiss	xmm0, DWORD PTR _rMax$[ebp]
	jbe	SHORT $LN35@DrawDLZSym
	movss	xmm0, DWORD PTR _rMax$[ebp]
	movss	DWORD PTR tv144[ebp], xmm0
	jmp	SHORT $LN36@DrawDLZSym
$LN35@DrawDLZSym:
	movss	xmm0, DWORD PTR __real@3f800000
	movss	DWORD PTR tv144[ebp], xmm0
$LN36@DrawDLZSym:
	movss	xmm0, DWORD PTR tv144[ebp]
	movss	DWORD PTR _rMax$[ebp], xmm0

; 2652 : 	rNeMin = min (rNeMin, 1.0F);

	movss	xmm0, DWORD PTR __real@3f800000
	comiss	xmm0, DWORD PTR _rNeMin$[ebp]
	jbe	SHORT $LN37@DrawDLZSym
	movss	xmm0, DWORD PTR _rNeMin$[ebp]
	movss	DWORD PTR tv146[ebp], xmm0
	jmp	SHORT $LN38@DrawDLZSym
$LN37@DrawDLZSym:
	movss	xmm0, DWORD PTR __real@3f800000
	movss	DWORD PTR tv146[ebp], xmm0
$LN38@DrawDLZSym:
	movss	xmm0, DWORD PTR tv146[ebp]
	movss	DWORD PTR _rNeMin$[ebp], xmm0

; 2653 : 	rNeMax = min (rNeMax, 1.0F);

	movss	xmm0, DWORD PTR __real@3f800000
	comiss	xmm0, DWORD PTR _rNeMax$[ebp]
	jbe	SHORT $LN39@DrawDLZSym
	movss	xmm0, DWORD PTR _rNeMax$[ebp]
	movss	DWORD PTR tv148[ebp], xmm0
	jmp	SHORT $LN40@DrawDLZSym
$LN39@DrawDLZSym:
	movss	xmm0, DWORD PTR __real@3f800000
	movss	DWORD PTR tv148[ebp], xmm0
$LN40@DrawDLZSym:
	movss	xmm0, DWORD PTR tv148[ebp]
	movss	DWORD PTR _rNeMax$[ebp], xmm0

; 2654 : 	display -> SetColor(GetMfdColor(MFD_DLZ));

	push	1
	mov	ecx, DWORD PTR _this$[ebp]
	call	?GetMfdColor@DrawableClass@@QAEIW4MfdColor@@@Z ; DrawableClass::GetMfdColor
	push	eax
	mov	ecx, DWORD PTR _this$[ebp]
	mov	edx, DWORD PTR [ecx+20]
	mov	eax, DWORD PTR _this$[ebp]
	mov	edx, DWORD PTR [edx]
	mov	ecx, DWORD PTR [eax+20]
	mov	eax, DWORD PTR [edx+92]
	call	eax

; 2655 : 	// Rmin/Rmax
; 2656 : 	textbottom = bottomEdge + rMin * height;

	movss	xmm0, DWORD PTR _rMin$[ebp]
	mulss	xmm0, DWORD PTR ?height@?3??DrawDLZSymbol@RadarDopplerClass@@IAEXXZ@4MA
	addss	xmm0, DWORD PTR ?bottomEdge@?3??DrawDLZSymbol@RadarDopplerClass@@IAEXXZ@4MA
	movss	DWORD PTR _textbottom$[ebp], xmm0

; 2657 : 	if ((SimDriver.GetPlayerAircraft()->Sms->MasterArm() == SMSBaseClass::Arm) || (SimDriver.GetPlayerAircraft()->Sms->MasterArm() == SMSBaseClass::Sim))

	mov	ecx, OFFSET ?SimDriver@@3VSimulationDriver@@A ; SimDriver
	call	?GetPlayerAircraft@SimulationDriver@@QBEPAVAircraftClass@@XZ ; SimulationDriver::GetPlayerAircraft
	mov	ecx, DWORD PTR [eax+940]
	call	?MasterArm@SMSBaseClass@@QAE?AW4MasterArmState@1@XZ ; SMSBaseClass::MasterArm
	cmp	eax, 2
	je	SHORT $LN27@DrawDLZSym
	mov	ecx, OFFSET ?SimDriver@@3VSimulationDriver@@A ; SimDriver
	call	?GetPlayerAircraft@SimulationDriver@@QBEPAVAircraftClass@@XZ ; SimulationDriver::GetPlayerAircraft
	mov	ecx, DWORD PTR [eax+940]
	call	?MasterArm@SMSBaseClass@@QAE?AW4MasterArmState@1@XZ ; SMSBaseClass::MasterArm
	cmp	eax, 1
	jne	$LN28@DrawDLZSym
$LN27@DrawDLZSym:

; 2658 : 	{
; 2659 : 		if(g_bnewAMRAAMdlz)

	movzx	ecx, BYTE PTR ?g_bnewAMRAAMdlz@@3_NA	; g_bnewAMRAAMdlz
	test	ecx, ecx
	je	$LN26@DrawDLZSym

; 2660 : 		{
; 2661 : 			display->Line (leftEdge, textbottom, leftEdge + width, bottomEdge + rMin * height);

	movss	xmm0, DWORD PTR _rMin$[ebp]
	mulss	xmm0, DWORD PTR ?height@?3??DrawDLZSymbol@RadarDopplerClass@@IAEXXZ@4MA
	addss	xmm0, DWORD PTR ?bottomEdge@?3??DrawDLZSymbol@RadarDopplerClass@@IAEXXZ@4MA
	push	ecx
	movss	DWORD PTR [esp], xmm0
	movss	xmm0, DWORD PTR ?leftEdge@?3??DrawDLZSymbol@RadarDopplerClass@@IAEXXZ@4MA
	addss	xmm0, DWORD PTR ?width@?3??DrawDLZSymbol@RadarDopplerClass@@IAEXXZ@4MA
	push	ecx
	movss	DWORD PTR [esp], xmm0
	push	ecx
	movss	xmm0, DWORD PTR _textbottom$[ebp]
	movss	DWORD PTR [esp], xmm0
	push	ecx
	movss	xmm0, DWORD PTR ?leftEdge@?3??DrawDLZSymbol@RadarDopplerClass@@IAEXXZ@4MA
	movss	DWORD PTR [esp], xmm0
	mov	edx, DWORD PTR _this$[ebp]
	mov	eax, DWORD PTR [edx+20]
	mov	ecx, DWORD PTR _this$[ebp]
	mov	edx, DWORD PTR [eax]
	mov	ecx, DWORD PTR [ecx+20]
	mov	eax, DWORD PTR [edx+32]
	call	eax

; 2662 : 			display->Line (leftEdge, textbottom, leftEdge, bottomEdge + (rMax * .75F) * height);

	movss	xmm0, DWORD PTR _rMax$[ebp]
	mulss	xmm0, DWORD PTR __real@3f400000
	mulss	xmm0, DWORD PTR ?height@?3??DrawDLZSymbol@RadarDopplerClass@@IAEXXZ@4MA
	addss	xmm0, DWORD PTR ?bottomEdge@?3??DrawDLZSymbol@RadarDopplerClass@@IAEXXZ@4MA
	push	ecx
	movss	DWORD PTR [esp], xmm0
	push	ecx
	movss	xmm0, DWORD PTR ?leftEdge@?3??DrawDLZSymbol@RadarDopplerClass@@IAEXXZ@4MA
	movss	DWORD PTR [esp], xmm0
	push	ecx
	movss	xmm0, DWORD PTR _textbottom$[ebp]
	movss	DWORD PTR [esp], xmm0
	push	ecx
	movss	xmm0, DWORD PTR ?leftEdge@?3??DrawDLZSymbol@RadarDopplerClass@@IAEXXZ@4MA
	movss	DWORD PTR [esp], xmm0
	mov	ecx, DWORD PTR _this$[ebp]
	mov	edx, DWORD PTR [ecx+20]
	mov	eax, DWORD PTR _this$[ebp]
	mov	edx, DWORD PTR [edx]
	mov	ecx, DWORD PTR [eax+20]
	mov	eax, DWORD PTR [edx+32]
	call	eax

; 2663 : 			display->Line (leftEdge, bottomEdge + (rMax * .75F) * height, leftEdge + width, bottomEdge + (rMax * .75F) * height);

	movss	xmm0, DWORD PTR _rMax$[ebp]
	mulss	xmm0, DWORD PTR __real@3f400000
	mulss	xmm0, DWORD PTR ?height@?3??DrawDLZSymbol@RadarDopplerClass@@IAEXXZ@4MA
	addss	xmm0, DWORD PTR ?bottomEdge@?3??DrawDLZSymbol@RadarDopplerClass@@IAEXXZ@4MA
	push	ecx
	movss	DWORD PTR [esp], xmm0
	movss	xmm0, DWORD PTR ?leftEdge@?3??DrawDLZSymbol@RadarDopplerClass@@IAEXXZ@4MA
	addss	xmm0, DWORD PTR ?width@?3??DrawDLZSymbol@RadarDopplerClass@@IAEXXZ@4MA
	push	ecx
	movss	DWORD PTR [esp], xmm0
	movss	xmm0, DWORD PTR _rMax$[ebp]
	mulss	xmm0, DWORD PTR __real@3f400000
	mulss	xmm0, DWORD PTR ?height@?3??DrawDLZSymbol@RadarDopplerClass@@IAEXXZ@4MA
	addss	xmm0, DWORD PTR ?bottomEdge@?3??DrawDLZSymbol@RadarDopplerClass@@IAEXXZ@4MA
	push	ecx
	movss	DWORD PTR [esp], xmm0
	push	ecx
	movss	xmm0, DWORD PTR ?leftEdge@?3??DrawDLZSymbol@RadarDopplerClass@@IAEXXZ@4MA
	movss	DWORD PTR [esp], xmm0
	mov	ecx, DWORD PTR _this$[ebp]
	mov	edx, DWORD PTR [ecx+20]
	mov	eax, DWORD PTR _this$[ebp]
	mov	edx, DWORD PTR [edx]
	mov	ecx, DWORD PTR [eax+20]
	mov	eax, DWORD PTR [edx+32]
	call	eax

; 2664 : 		}
; 2665 : 		else   // Old stuff

	jmp	$LN25@DrawDLZSym
$LN26@DrawDLZSym:

; 2666 : 		{
; 2667 : 			display->Line (leftEdge, textbottom, leftEdge + width, bottomEdge + rMin * height);

	movss	xmm0, DWORD PTR _rMin$[ebp]
	mulss	xmm0, DWORD PTR ?height@?3??DrawDLZSymbol@RadarDopplerClass@@IAEXXZ@4MA
	addss	xmm0, DWORD PTR ?bottomEdge@?3??DrawDLZSymbol@RadarDopplerClass@@IAEXXZ@4MA
	push	ecx
	movss	DWORD PTR [esp], xmm0
	movss	xmm0, DWORD PTR ?leftEdge@?3??DrawDLZSymbol@RadarDopplerClass@@IAEXXZ@4MA
	addss	xmm0, DWORD PTR ?width@?3??DrawDLZSymbol@RadarDopplerClass@@IAEXXZ@4MA
	push	ecx
	movss	DWORD PTR [esp], xmm0
	push	ecx
	movss	xmm0, DWORD PTR _textbottom$[ebp]
	movss	DWORD PTR [esp], xmm0
	push	ecx
	movss	xmm0, DWORD PTR ?leftEdge@?3??DrawDLZSymbol@RadarDopplerClass@@IAEXXZ@4MA
	movss	DWORD PTR [esp], xmm0
	mov	ecx, DWORD PTR _this$[ebp]
	mov	edx, DWORD PTR [ecx+20]
	mov	eax, DWORD PTR _this$[ebp]
	mov	edx, DWORD PTR [edx]
	mov	ecx, DWORD PTR [eax+20]
	mov	eax, DWORD PTR [edx+32]
	call	eax

; 2668 : 			display->Line (leftEdge, textbottom, leftEdge, bottomEdge + rMax * height);

	movss	xmm0, DWORD PTR _rMax$[ebp]
	mulss	xmm0, DWORD PTR ?height@?3??DrawDLZSymbol@RadarDopplerClass@@IAEXXZ@4MA
	addss	xmm0, DWORD PTR ?bottomEdge@?3??DrawDLZSymbol@RadarDopplerClass@@IAEXXZ@4MA
	push	ecx
	movss	DWORD PTR [esp], xmm0
	push	ecx
	movss	xmm0, DWORD PTR ?leftEdge@?3??DrawDLZSymbol@RadarDopplerClass@@IAEXXZ@4MA
	movss	DWORD PTR [esp], xmm0
	push	ecx
	movss	xmm0, DWORD PTR _textbottom$[ebp]
	movss	DWORD PTR [esp], xmm0
	push	ecx
	movss	xmm0, DWORD PTR ?leftEdge@?3??DrawDLZSymbol@RadarDopplerClass@@IAEXXZ@4MA
	movss	DWORD PTR [esp], xmm0
	mov	ecx, DWORD PTR _this$[ebp]
	mov	edx, DWORD PTR [ecx+20]
	mov	eax, DWORD PTR _this$[ebp]
	mov	edx, DWORD PTR [edx]
	mov	ecx, DWORD PTR [eax+20]
	mov	eax, DWORD PTR [edx+32]
	call	eax

; 2669 : 			display->Line (leftEdge, bottomEdge + rMax * height, leftEdge + width, bottomEdge + rMax * height);

	movss	xmm0, DWORD PTR _rMax$[ebp]
	mulss	xmm0, DWORD PTR ?height@?3??DrawDLZSymbol@RadarDopplerClass@@IAEXXZ@4MA
	addss	xmm0, DWORD PTR ?bottomEdge@?3??DrawDLZSymbol@RadarDopplerClass@@IAEXXZ@4MA
	push	ecx
	movss	DWORD PTR [esp], xmm0
	movss	xmm0, DWORD PTR ?leftEdge@?3??DrawDLZSymbol@RadarDopplerClass@@IAEXXZ@4MA
	addss	xmm0, DWORD PTR ?width@?3??DrawDLZSymbol@RadarDopplerClass@@IAEXXZ@4MA
	push	ecx
	movss	DWORD PTR [esp], xmm0
	movss	xmm0, DWORD PTR _rMax$[ebp]
	mulss	xmm0, DWORD PTR ?height@?3??DrawDLZSymbol@RadarDopplerClass@@IAEXXZ@4MA
	addss	xmm0, DWORD PTR ?bottomEdge@?3??DrawDLZSymbol@RadarDopplerClass@@IAEXXZ@4MA
	push	ecx
	movss	DWORD PTR [esp], xmm0
	push	ecx
	movss	xmm0, DWORD PTR ?leftEdge@?3??DrawDLZSymbol@RadarDopplerClass@@IAEXXZ@4MA
	movss	DWORD PTR [esp], xmm0
	mov	ecx, DWORD PTR _this$[ebp]
	mov	edx, DWORD PTR [ecx+20]
	mov	eax, DWORD PTR _this$[ebp]
	mov	edx, DWORD PTR [edx]
	mov	ecx, DWORD PTR [eax+20]
	mov	eax, DWORD PTR [edx+32]
	call	eax
$LN25@DrawDLZSym:

; 2670 : 		}
; 2671 : 
; 2672 : 		// Range Caret
; 2673 : 		yOffset = bottomEdge + lockedTargetData->range * rangeInv * height;

	mov	ecx, DWORD PTR _this$[ebp]
	mov	edx, DWORD PTR [ecx+176]
	movss	xmm0, DWORD PTR [edx+44]
	mulss	xmm0, DWORD PTR ?rangeInv@?3??DrawDLZSymbol@RadarDopplerClass@@IAEXXZ@4MA
	mulss	xmm0, DWORD PTR ?height@?3??DrawDLZSymbol@RadarDopplerClass@@IAEXXZ@4MA
	addss	xmm0, DWORD PTR ?bottomEdge@?3??DrawDLZSymbol@RadarDopplerClass@@IAEXXZ@4MA
	movss	DWORD PTR _yOffset$[ebp], xmm0

; 2674 : 		if (g_bRealisticAvionics) { // draw a >

	movzx	eax, BYTE PTR ?g_bRealisticAvionics@@3_NA ; g_bRealisticAvionics
	test	eax, eax
	je	$LN24@DrawDLZSym

; 2675 : 			display->Line (leftEdge, yOffset, leftEdge - 0.05F, yOffset - 0.05F);

	movss	xmm0, DWORD PTR _yOffset$[ebp]
	subss	xmm0, DWORD PTR __real@3d4ccccd
	push	ecx
	movss	DWORD PTR [esp], xmm0
	movss	xmm0, DWORD PTR ?leftEdge@?3??DrawDLZSymbol@RadarDopplerClass@@IAEXXZ@4MA
	subss	xmm0, DWORD PTR __real@3d4ccccd
	push	ecx
	movss	DWORD PTR [esp], xmm0
	push	ecx
	movss	xmm0, DWORD PTR _yOffset$[ebp]
	movss	DWORD PTR [esp], xmm0
	push	ecx
	movss	xmm0, DWORD PTR ?leftEdge@?3??DrawDLZSymbol@RadarDopplerClass@@IAEXXZ@4MA
	movss	DWORD PTR [esp], xmm0
	mov	ecx, DWORD PTR _this$[ebp]
	mov	edx, DWORD PTR [ecx+20]
	mov	eax, DWORD PTR _this$[ebp]
	mov	edx, DWORD PTR [edx]
	mov	ecx, DWORD PTR [eax+20]
	mov	eax, DWORD PTR [edx+32]
	call	eax

; 2676 : 			display->Line (leftEdge, yOffset, leftEdge - 0.05F, yOffset + 0.05F);

	movss	xmm0, DWORD PTR _yOffset$[ebp]
	addss	xmm0, DWORD PTR __real@3d4ccccd
	push	ecx
	movss	DWORD PTR [esp], xmm0
	movss	xmm0, DWORD PTR ?leftEdge@?3??DrawDLZSymbol@RadarDopplerClass@@IAEXXZ@4MA
	subss	xmm0, DWORD PTR __real@3d4ccccd
	push	ecx
	movss	DWORD PTR [esp], xmm0
	push	ecx
	movss	xmm0, DWORD PTR _yOffset$[ebp]
	movss	DWORD PTR [esp], xmm0
	push	ecx
	movss	xmm0, DWORD PTR ?leftEdge@?3??DrawDLZSymbol@RadarDopplerClass@@IAEXXZ@4MA
	movss	DWORD PTR [esp], xmm0
	mov	ecx, DWORD PTR _this$[ebp]
	mov	edx, DWORD PTR [ecx+20]
	mov	eax, DWORD PTR _this$[ebp]
	mov	edx, DWORD PTR [edx]
	mov	ecx, DWORD PTR [eax+20]
	mov	eax, DWORD PTR [edx+32]
	call	eax

; 2677 : 		}
; 2678 : 		else { // draw a |-

	jmp	$LN23@DrawDLZSym
$LN24@DrawDLZSym:

; 2679 : 			display->Line (leftEdge, yOffset, leftEdge - 0.05F, yOffset);

	push	ecx
	movss	xmm0, DWORD PTR _yOffset$[ebp]
	movss	DWORD PTR [esp], xmm0
	movss	xmm0, DWORD PTR ?leftEdge@?3??DrawDLZSymbol@RadarDopplerClass@@IAEXXZ@4MA
	subss	xmm0, DWORD PTR __real@3d4ccccd
	push	ecx
	movss	DWORD PTR [esp], xmm0
	push	ecx
	movss	xmm0, DWORD PTR _yOffset$[ebp]
	movss	DWORD PTR [esp], xmm0
	push	ecx
	movss	xmm0, DWORD PTR ?leftEdge@?3??DrawDLZSymbol@RadarDopplerClass@@IAEXXZ@4MA
	movss	DWORD PTR [esp], xmm0
	mov	ecx, DWORD PTR _this$[ebp]
	mov	edx, DWORD PTR [ecx+20]
	mov	eax, DWORD PTR _this$[ebp]
	mov	edx, DWORD PTR [edx]
	mov	ecx, DWORD PTR [eax+20]
	mov	eax, DWORD PTR [edx+32]
	call	eax

; 2680 : 			display->Line (leftEdge - 0.05F, yOffset + 0.05F, leftEdge - 0.05F, yOffset - 0.05F);

	movss	xmm0, DWORD PTR _yOffset$[ebp]
	subss	xmm0, DWORD PTR __real@3d4ccccd
	push	ecx
	movss	DWORD PTR [esp], xmm0
	movss	xmm0, DWORD PTR ?leftEdge@?3??DrawDLZSymbol@RadarDopplerClass@@IAEXXZ@4MA
	subss	xmm0, DWORD PTR __real@3d4ccccd
	push	ecx
	movss	DWORD PTR [esp], xmm0
	movss	xmm0, DWORD PTR _yOffset$[ebp]
	addss	xmm0, DWORD PTR __real@3d4ccccd
	push	ecx
	movss	DWORD PTR [esp], xmm0
	movss	xmm0, DWORD PTR ?leftEdge@?3??DrawDLZSymbol@RadarDopplerClass@@IAEXXZ@4MA
	subss	xmm0, DWORD PTR __real@3d4ccccd
	push	ecx
	movss	DWORD PTR [esp], xmm0
	mov	ecx, DWORD PTR _this$[ebp]
	mov	edx, DWORD PTR [ecx+20]
	mov	eax, DWORD PTR _this$[ebp]
	mov	edx, DWORD PTR [edx]
	mov	ecx, DWORD PTR [eax+20]
	mov	eax, DWORD PTR [edx+32]
	call	eax
$LN23@DrawDLZSym:

; 2681 : 		}
; 2682 : 
; 2683 : 		if(g_bnewAMRAAMdlz)

	movzx	ecx, BYTE PTR ?g_bnewAMRAAMdlz@@3_NA	; g_bnewAMRAAMdlz
	test	ecx, ecx
	je	$LN22@DrawDLZSym

; 2684 : 		{
; 2685 : 			sprintf (tmpStr, "%.0f ", max ( min (-lockedTargetData->rangedot * FTPSEC_TO_KNOTS, 1500.0F), -1500.0F));

	mov	edx, DWORD PTR _this$[ebp]
	mov	eax, DWORD PTR [edx+176]
	movss	xmm0, DWORD PTR [eax+48]
	xorps	xmm0, DWORD PTR __xmm@80000000800000008000000080000000
	mulss	xmm0, DWORD PTR __real@3f17ac60
	movss	xmm1, DWORD PTR __real@44bb8000
	comiss	xmm1, xmm0
	jbe	SHORT $LN41@DrawDLZSym
	mov	ecx, DWORD PTR _this$[ebp]
	mov	edx, DWORD PTR [ecx+176]
	movss	xmm0, DWORD PTR [edx+48]
	xorps	xmm0, DWORD PTR __xmm@80000000800000008000000080000000
	mulss	xmm0, DWORD PTR __real@3f17ac60
	movss	DWORD PTR tv398[ebp], xmm0
	jmp	SHORT $LN42@DrawDLZSym
$LN41@DrawDLZSym:
	movss	xmm0, DWORD PTR __real@44bb8000
	movss	DWORD PTR tv398[ebp], xmm0
$LN42@DrawDLZSym:
	movss	xmm0, DWORD PTR tv398[ebp]
	comiss	xmm0, DWORD PTR __real@c4bb8000
	jbe	SHORT $LN45@DrawDLZSym
	mov	eax, DWORD PTR _this$[ebp]
	mov	ecx, DWORD PTR [eax+176]
	movss	xmm0, DWORD PTR [ecx+48]
	xorps	xmm0, DWORD PTR __xmm@80000000800000008000000080000000
	mulss	xmm0, DWORD PTR __real@3f17ac60
	movss	xmm1, DWORD PTR __real@44bb8000
	comiss	xmm1, xmm0
	jbe	SHORT $LN43@DrawDLZSym
	mov	edx, DWORD PTR _this$[ebp]
	mov	eax, DWORD PTR [edx+176]
	movss	xmm0, DWORD PTR [eax+48]
	xorps	xmm0, DWORD PTR __xmm@80000000800000008000000080000000
	mulss	xmm0, DWORD PTR __real@3f17ac60
	movss	DWORD PTR tv411[ebp], xmm0
	jmp	SHORT $LN44@DrawDLZSym
$LN43@DrawDLZSym:
	movss	xmm0, DWORD PTR __real@44bb8000
	movss	DWORD PTR tv411[ebp], xmm0
$LN44@DrawDLZSym:
	movss	xmm0, DWORD PTR tv411[ebp]
	movss	DWORD PTR tv412[ebp], xmm0
	jmp	SHORT $LN46@DrawDLZSym
$LN45@DrawDLZSym:
	movss	xmm0, DWORD PTR __real@c4bb8000
	movss	DWORD PTR tv412[ebp], xmm0
$LN46@DrawDLZSym:
	cvtss2sd xmm0, DWORD PTR tv412[ebp]
	sub	esp, 8
	movsd	QWORD PTR [esp], xmm0
	push	OFFSET ??_C@_05EOFIDACN@?$CF?40f?5?$AA@
	lea	ecx, DWORD PTR _tmpStr$[ebp]
	push	ecx
	call	_sprintf
	add	esp, 16					; 00000010H

; 2686 : 			display->TextRightVertical (leftEdge - 0.015F, yOffset, tmpStr);

	push	0
	lea	edx, DWORD PTR _tmpStr$[ebp]
	push	edx
	push	ecx
	movss	xmm0, DWORD PTR _yOffset$[ebp]
	movss	DWORD PTR [esp], xmm0
	movss	xmm0, DWORD PTR ?leftEdge@?3??DrawDLZSymbol@RadarDopplerClass@@IAEXXZ@4MA
	subss	xmm0, DWORD PTR __real@3c75c28f
	push	ecx
	movss	DWORD PTR [esp], xmm0
	mov	eax, DWORD PTR _this$[ebp]
	mov	ecx, DWORD PTR [eax+20]
	mov	edx, DWORD PTR _this$[ebp]
	mov	eax, DWORD PTR [ecx]
	mov	ecx, DWORD PTR [edx+20]
	mov	edx, DWORD PTR [eax+68]
	call	edx

; 2687 : 
; 2688 : 			// Draw "A"/"F"-pole range for missile on the rail below closure (which is done above on line 2339)
; 2689 : 			// "A" is not used to avoid confusion w/ AMRAAM active indications
; 2690 : 			if (pFCC->nextMissileImpactTime > 0.0F)

	mov	eax, DWORD PTR _pFCC$[ebp]
	movss	xmm0, DWORD PTR [eax+272]
	comiss	xmm0, DWORD PTR __real@00000000
	jbe	$LN21@DrawDLZSym

; 2691 : 			{
; 2692 : 				if (pFCC->nextMissileImpactTime > pFCC->lastmissileActiveTime)

	mov	ecx, DWORD PTR _pFCC$[ebp]
	mov	edx, DWORD PTR _pFCC$[ebp]
	movss	xmm0, DWORD PTR [ecx+272]
	comiss	xmm0, DWORD PTR [edx+276]
	jbe	$LN20@DrawDLZSym

; 2693 : 				{
; 2694 : 					sprintf (tmpStr, "%.0fM", (lockedTargetData->range / 6076) - (( max ( min (-lockedTargetData->rangedot * FTPSEC_TO_KNOTS, 1500.0F), -1500.0F)/6076 * (pFCC->nextMissileImpactTime - pFCC->lastmissileActiveTime) )));

	mov	eax, DWORD PTR _this$[ebp]
	mov	ecx, DWORD PTR [eax+176]
	movss	xmm0, DWORD PTR [ecx+48]
	xorps	xmm0, DWORD PTR __xmm@80000000800000008000000080000000
	mulss	xmm0, DWORD PTR __real@3f17ac60
	movss	xmm1, DWORD PTR __real@44bb8000
	comiss	xmm1, xmm0
	jbe	SHORT $LN47@DrawDLZSym
	mov	edx, DWORD PTR _this$[ebp]
	mov	eax, DWORD PTR [edx+176]
	movss	xmm0, DWORD PTR [eax+48]
	xorps	xmm0, DWORD PTR __xmm@80000000800000008000000080000000
	mulss	xmm0, DWORD PTR __real@3f17ac60
	movss	DWORD PTR tv453[ebp], xmm0
	jmp	SHORT $LN48@DrawDLZSym
$LN47@DrawDLZSym:
	movss	xmm0, DWORD PTR __real@44bb8000
	movss	DWORD PTR tv453[ebp], xmm0
$LN48@DrawDLZSym:
	movss	xmm0, DWORD PTR tv453[ebp]
	comiss	xmm0, DWORD PTR __real@c4bb8000
	jbe	SHORT $LN51@DrawDLZSym
	mov	ecx, DWORD PTR _this$[ebp]
	mov	edx, DWORD PTR [ecx+176]
	movss	xmm0, DWORD PTR [edx+48]
	xorps	xmm0, DWORD PTR __xmm@80000000800000008000000080000000
	mulss	xmm0, DWORD PTR __real@3f17ac60
	movss	xmm1, DWORD PTR __real@44bb8000
	comiss	xmm1, xmm0
	jbe	SHORT $LN49@DrawDLZSym
	mov	eax, DWORD PTR _this$[ebp]
	mov	ecx, DWORD PTR [eax+176]
	movss	xmm0, DWORD PTR [ecx+48]
	xorps	xmm0, DWORD PTR __xmm@80000000800000008000000080000000
	mulss	xmm0, DWORD PTR __real@3f17ac60
	movss	DWORD PTR tv466[ebp], xmm0
	jmp	SHORT $LN50@DrawDLZSym
$LN49@DrawDLZSym:
	movss	xmm0, DWORD PTR __real@44bb8000
	movss	DWORD PTR tv466[ebp], xmm0
$LN50@DrawDLZSym:
	movss	xmm0, DWORD PTR tv466[ebp]
	movss	DWORD PTR tv467[ebp], xmm0
	jmp	SHORT $LN52@DrawDLZSym
$LN51@DrawDLZSym:
	movss	xmm0, DWORD PTR __real@c4bb8000
	movss	DWORD PTR tv467[ebp], xmm0
$LN52@DrawDLZSym:
	mov	edx, DWORD PTR _this$[ebp]
	mov	eax, DWORD PTR [edx+176]
	movss	xmm0, DWORD PTR [eax+44]
	divss	xmm0, DWORD PTR __real@45bde000
	movss	xmm1, DWORD PTR tv467[ebp]
	divss	xmm1, DWORD PTR __real@45bde000
	mov	ecx, DWORD PTR _pFCC$[ebp]
	mov	edx, DWORD PTR _pFCC$[ebp]
	movss	xmm2, DWORD PTR [ecx+272]
	subss	xmm2, DWORD PTR [edx+276]
	mulss	xmm1, xmm2
	subss	xmm0, xmm1
	cvtss2sd xmm0, xmm0
	sub	esp, 8
	movsd	QWORD PTR [esp], xmm0
	push	OFFSET ??_C@_05JOALCFMH@?$CF?40fM?$AA@
	lea	eax, DWORD PTR _tmpStr$[ebp]
	push	eax
	call	_sprintf
	add	esp, 16					; 00000010H

; 2695 : 				}
; 2696 : 				else

	jmp	$LN19@DrawDLZSym
$LN20@DrawDLZSym:

; 2697 : 				{
; 2698 : 					sprintf (tmpStr, "%.0fF", (lockedTargetData->range / 6076) - (( max ( min (-lockedTargetData->rangedot * FTPSEC_TO_KNOTS, 1500.0F), -1500.0F)/6076 * pFCC->nextMissileImpactTime )));

	mov	ecx, DWORD PTR _this$[ebp]
	mov	edx, DWORD PTR [ecx+176]
	movss	xmm0, DWORD PTR [edx+48]
	xorps	xmm0, DWORD PTR __xmm@80000000800000008000000080000000
	mulss	xmm0, DWORD PTR __real@3f17ac60
	movss	xmm1, DWORD PTR __real@44bb8000
	comiss	xmm1, xmm0
	jbe	SHORT $LN53@DrawDLZSym
	mov	eax, DWORD PTR _this$[ebp]
	mov	ecx, DWORD PTR [eax+176]
	movss	xmm0, DWORD PTR [ecx+48]
	xorps	xmm0, DWORD PTR __xmm@80000000800000008000000080000000
	mulss	xmm0, DWORD PTR __real@3f17ac60
	movss	DWORD PTR tv496[ebp], xmm0
	jmp	SHORT $LN54@DrawDLZSym
$LN53@DrawDLZSym:
	movss	xmm0, DWORD PTR __real@44bb8000
	movss	DWORD PTR tv496[ebp], xmm0
$LN54@DrawDLZSym:
	movss	xmm0, DWORD PTR tv496[ebp]
	comiss	xmm0, DWORD PTR __real@c4bb8000
	jbe	SHORT $LN57@DrawDLZSym
	mov	edx, DWORD PTR _this$[ebp]
	mov	eax, DWORD PTR [edx+176]
	movss	xmm0, DWORD PTR [eax+48]
	xorps	xmm0, DWORD PTR __xmm@80000000800000008000000080000000
	mulss	xmm0, DWORD PTR __real@3f17ac60
	movss	xmm1, DWORD PTR __real@44bb8000
	comiss	xmm1, xmm0
	jbe	SHORT $LN55@DrawDLZSym
	mov	ecx, DWORD PTR _this$[ebp]
	mov	edx, DWORD PTR [ecx+176]
	movss	xmm0, DWORD PTR [edx+48]
	xorps	xmm0, DWORD PTR __xmm@80000000800000008000000080000000
	mulss	xmm0, DWORD PTR __real@3f17ac60
	movss	DWORD PTR tv509[ebp], xmm0
	jmp	SHORT $LN56@DrawDLZSym
$LN55@DrawDLZSym:
	movss	xmm0, DWORD PTR __real@44bb8000
	movss	DWORD PTR tv509[ebp], xmm0
$LN56@DrawDLZSym:
	movss	xmm0, DWORD PTR tv509[ebp]
	movss	DWORD PTR tv510[ebp], xmm0
	jmp	SHORT $LN58@DrawDLZSym
$LN57@DrawDLZSym:
	movss	xmm0, DWORD PTR __real@c4bb8000
	movss	DWORD PTR tv510[ebp], xmm0
$LN58@DrawDLZSym:
	mov	eax, DWORD PTR _this$[ebp]
	mov	ecx, DWORD PTR [eax+176]
	movss	xmm0, DWORD PTR [ecx+44]
	divss	xmm0, DWORD PTR __real@45bde000
	movss	xmm1, DWORD PTR tv510[ebp]
	divss	xmm1, DWORD PTR __real@45bde000
	mov	edx, DWORD PTR _pFCC$[ebp]
	mulss	xmm1, DWORD PTR [edx+272]
	subss	xmm0, xmm1
	cvtss2sd xmm0, xmm0
	sub	esp, 8
	movsd	QWORD PTR [esp], xmm0
	push	OFFSET ??_C@_05HNPPPMAM@?$CF?40fF?$AA@
	lea	eax, DWORD PTR _tmpStr$[ebp]
	push	eax
	call	_sprintf
	add	esp, 16					; 00000010H
$LN19@DrawDLZSym:

; 2699 : 				}
; 2700 : 				ShiAssert (strlen(tmpStr) < sizeof(tmpStr));
; 2701 : 				display->TextRightVertical (leftEdge - 0.06F, yOffset - 0.09F, tmpStr);

	push	0
	lea	ecx, DWORD PTR _tmpStr$[ebp]
	push	ecx
	movss	xmm0, DWORD PTR _yOffset$[ebp]
	subss	xmm0, DWORD PTR __real@3db851ec
	push	ecx
	movss	DWORD PTR [esp], xmm0
	movss	xmm0, DWORD PTR ?leftEdge@?3??DrawDLZSymbol@RadarDopplerClass@@IAEXXZ@4MA
	subss	xmm0, DWORD PTR __real@3d75c28f
	push	ecx
	movss	DWORD PTR [esp], xmm0
	mov	edx, DWORD PTR _this$[ebp]
	mov	eax, DWORD PTR [edx+20]
	mov	ecx, DWORD PTR _this$[ebp]
	mov	edx, DWORD PTR [eax]
	mov	ecx, DWORD PTR [ecx+20]
	mov	eax, DWORD PTR [edx+68]
	call	eax
$LN21@DrawDLZSym:

; 2702 : 			}
; 2703 : 		}
; 2704 : 		else

	jmp	$LN18@DrawDLZSym
$LN22@DrawDLZSym:

; 2705 : 		{
; 2706 : 			sprintf (tmpStr, "%.0f ", max ( min (-lockedTargetData->rangedot * FTPSEC_TO_KNOTS, 1500.0F), -1500.0F));

	mov	ecx, DWORD PTR _this$[ebp]
	mov	edx, DWORD PTR [ecx+176]
	movss	xmm0, DWORD PTR [edx+48]
	xorps	xmm0, DWORD PTR __xmm@80000000800000008000000080000000
	mulss	xmm0, DWORD PTR __real@3f17ac60
	movss	xmm1, DWORD PTR __real@44bb8000
	comiss	xmm1, xmm0
	jbe	SHORT $LN59@DrawDLZSym
	mov	eax, DWORD PTR _this$[ebp]
	mov	ecx, DWORD PTR [eax+176]
	movss	xmm0, DWORD PTR [ecx+48]
	xorps	xmm0, DWORD PTR __xmm@80000000800000008000000080000000
	mulss	xmm0, DWORD PTR __real@3f17ac60
	movss	DWORD PTR tv549[ebp], xmm0
	jmp	SHORT $LN60@DrawDLZSym
$LN59@DrawDLZSym:
	movss	xmm0, DWORD PTR __real@44bb8000
	movss	DWORD PTR tv549[ebp], xmm0
$LN60@DrawDLZSym:
	movss	xmm0, DWORD PTR tv549[ebp]
	comiss	xmm0, DWORD PTR __real@c4bb8000
	jbe	SHORT $LN63@DrawDLZSym
	mov	edx, DWORD PTR _this$[ebp]
	mov	eax, DWORD PTR [edx+176]
	movss	xmm0, DWORD PTR [eax+48]
	xorps	xmm0, DWORD PTR __xmm@80000000800000008000000080000000
	mulss	xmm0, DWORD PTR __real@3f17ac60
	movss	xmm1, DWORD PTR __real@44bb8000
	comiss	xmm1, xmm0
	jbe	SHORT $LN61@DrawDLZSym
	mov	ecx, DWORD PTR _this$[ebp]
	mov	edx, DWORD PTR [ecx+176]
	movss	xmm0, DWORD PTR [edx+48]
	xorps	xmm0, DWORD PTR __xmm@80000000800000008000000080000000
	mulss	xmm0, DWORD PTR __real@3f17ac60
	movss	DWORD PTR tv562[ebp], xmm0
	jmp	SHORT $LN62@DrawDLZSym
$LN61@DrawDLZSym:
	movss	xmm0, DWORD PTR __real@44bb8000
	movss	DWORD PTR tv562[ebp], xmm0
$LN62@DrawDLZSym:
	movss	xmm0, DWORD PTR tv562[ebp]
	movss	DWORD PTR tv563[ebp], xmm0
	jmp	SHORT $LN64@DrawDLZSym
$LN63@DrawDLZSym:
	movss	xmm0, DWORD PTR __real@c4bb8000
	movss	DWORD PTR tv563[ebp], xmm0
$LN64@DrawDLZSym:
	cvtss2sd xmm0, DWORD PTR tv563[ebp]
	sub	esp, 8
	movsd	QWORD PTR [esp], xmm0
	push	OFFSET ??_C@_05EOFIDACN@?$CF?40f?5?$AA@
	lea	eax, DWORD PTR _tmpStr$[ebp]
	push	eax
	call	_sprintf
	add	esp, 16					; 00000010H

; 2707 : 			display->TextRightVertical (leftEdge - 0.05F, yOffset, tmpStr);

	push	0
	lea	ecx, DWORD PTR _tmpStr$[ebp]
	push	ecx
	push	ecx
	movss	xmm0, DWORD PTR _yOffset$[ebp]
	movss	DWORD PTR [esp], xmm0
	movss	xmm0, DWORD PTR ?leftEdge@?3??DrawDLZSymbol@RadarDopplerClass@@IAEXXZ@4MA
	subss	xmm0, DWORD PTR __real@3d4ccccd
	push	ecx
	movss	DWORD PTR [esp], xmm0
	mov	edx, DWORD PTR _this$[ebp]
	mov	eax, DWORD PTR [edx+20]
	mov	ecx, DWORD PTR _this$[ebp]
	mov	edx, DWORD PTR [eax]
	mov	ecx, DWORD PTR [ecx+20]
	mov	eax, DWORD PTR [edx+68]
	call	eax
$LN18@DrawDLZSym:

; 2708 : 		}
; 2709 : 
; 2710 : 
; 2711 : 		if(g_bnewAMRAAMdlz)

	movzx	ecx, BYTE PTR ?g_bnewAMRAAMdlz@@3_NA	; g_bnewAMRAAMdlz
	test	ecx, ecx
	je	$LN17@DrawDLZSym

; 2712 : 		{
; 2713 : 			// Raero - Max Missile Kinematic Range
; 2714 : 			yOffset = rMax;

	movss	xmm0, DWORD PTR _rMax$[ebp]
	movss	DWORD PTR _yOffset$[ebp], xmm0

; 2715 : 			yOffset = min ( max ( 0.0F, yOffset), 1.0F);

	movss	xmm0, DWORD PTR __real@00000000
	comiss	xmm0, DWORD PTR _yOffset$[ebp]
	jbe	SHORT $LN65@DrawDLZSym
	movss	xmm0, DWORD PTR __real@00000000
	movss	DWORD PTR tv586[ebp], xmm0
	jmp	SHORT $LN66@DrawDLZSym
$LN65@DrawDLZSym:
	movss	xmm0, DWORD PTR _yOffset$[ebp]
	movss	DWORD PTR tv586[ebp], xmm0
$LN66@DrawDLZSym:
	movss	xmm0, DWORD PTR __real@3f800000
	comiss	xmm0, DWORD PTR tv586[ebp]
	jbe	SHORT $LN69@DrawDLZSym
	movss	xmm0, DWORD PTR __real@00000000
	comiss	xmm0, DWORD PTR _yOffset$[ebp]
	jbe	SHORT $LN67@DrawDLZSym
	movss	xmm0, DWORD PTR __real@00000000
	movss	DWORD PTR tv589[ebp], xmm0
	jmp	SHORT $LN68@DrawDLZSym
$LN67@DrawDLZSym:
	movss	xmm0, DWORD PTR _yOffset$[ebp]
	movss	DWORD PTR tv589[ebp], xmm0
$LN68@DrawDLZSym:
	movss	xmm0, DWORD PTR tv589[ebp]
	movss	DWORD PTR tv590[ebp], xmm0
	jmp	SHORT $LN70@DrawDLZSym
$LN69@DrawDLZSym:
	movss	xmm0, DWORD PTR __real@3f800000
	movss	DWORD PTR tv590[ebp], xmm0
$LN70@DrawDLZSym:
	movss	xmm0, DWORD PTR tv590[ebp]
	movss	DWORD PTR _yOffset$[ebp], xmm0

; 2716 : 			yOffset = bottomEdge + yOffset * height;

	movss	xmm0, DWORD PTR _yOffset$[ebp]
	mulss	xmm0, DWORD PTR ?height@?3??DrawDLZSymbol@RadarDopplerClass@@IAEXXZ@4MA
	addss	xmm0, DWORD PTR ?bottomEdge@?3??DrawDLZSymbol@RadarDopplerClass@@IAEXXZ@4MA
	movss	DWORD PTR _yOffset$[ebp], xmm0

; 2717 : 			display->Line (rightEdge, yOffset, rightEdge + 0.05F, yOffset + 0.05F);

	movss	xmm0, DWORD PTR _yOffset$[ebp]
	addss	xmm0, DWORD PTR __real@3d4ccccd
	push	ecx
	movss	DWORD PTR [esp], xmm0
	movss	xmm0, DWORD PTR ?rightEdge@?3??DrawDLZSymbol@RadarDopplerClass@@IAEXXZ@4MA
	addss	xmm0, DWORD PTR __real@3d4ccccd
	push	ecx
	movss	DWORD PTR [esp], xmm0
	push	ecx
	movss	xmm0, DWORD PTR _yOffset$[ebp]
	movss	DWORD PTR [esp], xmm0
	push	ecx
	movss	xmm0, DWORD PTR ?rightEdge@?3??DrawDLZSymbol@RadarDopplerClass@@IAEXXZ@4MA
	movss	DWORD PTR [esp], xmm0
	mov	edx, DWORD PTR _this$[ebp]
	mov	eax, DWORD PTR [edx+20]
	mov	ecx, DWORD PTR _this$[ebp]
	mov	edx, DWORD PTR [eax]
	mov	ecx, DWORD PTR [ecx+20]
	mov	eax, DWORD PTR [edx+32]
	call	eax

; 2718 : 			display->Line (rightEdge, yOffset, rightEdge + 0.05F, yOffset - 0.05F);

	movss	xmm0, DWORD PTR _yOffset$[ebp]
	subss	xmm0, DWORD PTR __real@3d4ccccd
	push	ecx
	movss	DWORD PTR [esp], xmm0
	movss	xmm0, DWORD PTR ?rightEdge@?3??DrawDLZSymbol@RadarDopplerClass@@IAEXXZ@4MA
	addss	xmm0, DWORD PTR __real@3d4ccccd
	push	ecx
	movss	DWORD PTR [esp], xmm0
	push	ecx
	movss	xmm0, DWORD PTR _yOffset$[ebp]
	movss	DWORD PTR [esp], xmm0
	push	ecx
	movss	xmm0, DWORD PTR ?rightEdge@?3??DrawDLZSymbol@RadarDopplerClass@@IAEXXZ@4MA
	movss	DWORD PTR [esp], xmm0
	mov	ecx, DWORD PTR _this$[ebp]
	mov	edx, DWORD PTR [ecx+20]
	mov	eax, DWORD PTR _this$[ebp]
	mov	edx, DWORD PTR [edx]
	mov	ecx, DWORD PTR [eax+20]
	mov	eax, DWORD PTR [edx+32]
	call	eax

; 2719 : 			display->Line (rightEdge + 0.05F, yOffset - 0.05F, rightEdge + 0.05F, yOffset + 0.05F);

	movss	xmm0, DWORD PTR _yOffset$[ebp]
	addss	xmm0, DWORD PTR __real@3d4ccccd
	push	ecx
	movss	DWORD PTR [esp], xmm0
	movss	xmm0, DWORD PTR ?rightEdge@?3??DrawDLZSymbol@RadarDopplerClass@@IAEXXZ@4MA
	addss	xmm0, DWORD PTR __real@3d4ccccd
	push	ecx
	movss	DWORD PTR [esp], xmm0
	movss	xmm0, DWORD PTR _yOffset$[ebp]
	subss	xmm0, DWORD PTR __real@3d4ccccd
	push	ecx
	movss	DWORD PTR [esp], xmm0
	movss	xmm0, DWORD PTR ?rightEdge@?3??DrawDLZSymbol@RadarDopplerClass@@IAEXXZ@4MA
	addss	xmm0, DWORD PTR __real@3d4ccccd
	push	ecx
	movss	DWORD PTR [esp], xmm0
	mov	ecx, DWORD PTR _this$[ebp]
	mov	edx, DWORD PTR [ecx+20]
	mov	eax, DWORD PTR _this$[ebp]
	mov	edx, DWORD PTR [edx]
	mov	ecx, DWORD PTR [eax+20]
	mov	eax, DWORD PTR [edx+32]
	call	eax

; 2720 : 
; 2721 : 
; 2722 : 			// No Escape Zone
; 2723 : 			display->Line (leftEdge, bottomEdge + rMin * height, leftEdge + width - .06f, bottomEdge + rMin * height);

	movss	xmm0, DWORD PTR _rMin$[ebp]
	mulss	xmm0, DWORD PTR ?height@?3??DrawDLZSymbol@RadarDopplerClass@@IAEXXZ@4MA
	addss	xmm0, DWORD PTR ?bottomEdge@?3??DrawDLZSymbol@RadarDopplerClass@@IAEXXZ@4MA
	push	ecx
	movss	DWORD PTR [esp], xmm0
	movss	xmm0, DWORD PTR ?leftEdge@?3??DrawDLZSymbol@RadarDopplerClass@@IAEXXZ@4MA
	addss	xmm0, DWORD PTR ?width@?3??DrawDLZSymbol@RadarDopplerClass@@IAEXXZ@4MA
	subss	xmm0, DWORD PTR __real@3d75c28f
	push	ecx
	movss	DWORD PTR [esp], xmm0
	movss	xmm0, DWORD PTR _rMin$[ebp]
	mulss	xmm0, DWORD PTR ?height@?3??DrawDLZSymbol@RadarDopplerClass@@IAEXXZ@4MA
	addss	xmm0, DWORD PTR ?bottomEdge@?3??DrawDLZSymbol@RadarDopplerClass@@IAEXXZ@4MA
	push	ecx
	movss	DWORD PTR [esp], xmm0
	push	ecx
	movss	xmm0, DWORD PTR ?leftEdge@?3??DrawDLZSymbol@RadarDopplerClass@@IAEXXZ@4MA
	movss	DWORD PTR [esp], xmm0
	mov	ecx, DWORD PTR _this$[ebp]
	mov	edx, DWORD PTR [ecx+20]
	mov	eax, DWORD PTR _this$[ebp]
	mov	edx, DWORD PTR [edx]
	mov	ecx, DWORD PTR [eax+20]
	mov	eax, DWORD PTR [edx+32]
	call	eax

; 2724 : 			display->Line (leftEdge, bottomEdge + rNeMax * height, leftEdge + width - .06f, bottomEdge + rNeMax * height);

	movss	xmm0, DWORD PTR _rNeMax$[ebp]
	mulss	xmm0, DWORD PTR ?height@?3??DrawDLZSymbol@RadarDopplerClass@@IAEXXZ@4MA
	addss	xmm0, DWORD PTR ?bottomEdge@?3??DrawDLZSymbol@RadarDopplerClass@@IAEXXZ@4MA
	push	ecx
	movss	DWORD PTR [esp], xmm0
	movss	xmm0, DWORD PTR ?leftEdge@?3??DrawDLZSymbol@RadarDopplerClass@@IAEXXZ@4MA
	addss	xmm0, DWORD PTR ?width@?3??DrawDLZSymbol@RadarDopplerClass@@IAEXXZ@4MA
	subss	xmm0, DWORD PTR __real@3d75c28f
	push	ecx
	movss	DWORD PTR [esp], xmm0
	movss	xmm0, DWORD PTR _rNeMax$[ebp]
	mulss	xmm0, DWORD PTR ?height@?3??DrawDLZSymbol@RadarDopplerClass@@IAEXXZ@4MA
	addss	xmm0, DWORD PTR ?bottomEdge@?3??DrawDLZSymbol@RadarDopplerClass@@IAEXXZ@4MA
	push	ecx
	movss	DWORD PTR [esp], xmm0
	push	ecx
	movss	xmm0, DWORD PTR ?leftEdge@?3??DrawDLZSymbol@RadarDopplerClass@@IAEXXZ@4MA
	movss	DWORD PTR [esp], xmm0
	mov	ecx, DWORD PTR _this$[ebp]
	mov	edx, DWORD PTR [ecx+20]
	mov	eax, DWORD PTR _this$[ebp]
	mov	edx, DWORD PTR [edx]
	mov	ecx, DWORD PTR [eax+20]
	mov	eax, DWORD PTR [edx+32]
	call	eax

; 2725 : 			display->Line (leftEdge + width - .06f, bottomEdge + rMin * height, leftEdge + width - .06f, bottomEdge + rNeMax * height);

	movss	xmm0, DWORD PTR _rNeMax$[ebp]
	mulss	xmm0, DWORD PTR ?height@?3??DrawDLZSymbol@RadarDopplerClass@@IAEXXZ@4MA
	addss	xmm0, DWORD PTR ?bottomEdge@?3??DrawDLZSymbol@RadarDopplerClass@@IAEXXZ@4MA
	push	ecx
	movss	DWORD PTR [esp], xmm0
	movss	xmm0, DWORD PTR ?leftEdge@?3??DrawDLZSymbol@RadarDopplerClass@@IAEXXZ@4MA
	addss	xmm0, DWORD PTR ?width@?3??DrawDLZSymbol@RadarDopplerClass@@IAEXXZ@4MA
	subss	xmm0, DWORD PTR __real@3d75c28f
	push	ecx
	movss	DWORD PTR [esp], xmm0
	movss	xmm0, DWORD PTR _rMin$[ebp]
	mulss	xmm0, DWORD PTR ?height@?3??DrawDLZSymbol@RadarDopplerClass@@IAEXXZ@4MA
	addss	xmm0, DWORD PTR ?bottomEdge@?3??DrawDLZSymbol@RadarDopplerClass@@IAEXXZ@4MA
	push	ecx
	movss	DWORD PTR [esp], xmm0
	movss	xmm0, DWORD PTR ?leftEdge@?3??DrawDLZSymbol@RadarDopplerClass@@IAEXXZ@4MA
	addss	xmm0, DWORD PTR ?width@?3??DrawDLZSymbol@RadarDopplerClass@@IAEXXZ@4MA
	subss	xmm0, DWORD PTR __real@3d75c28f
	push	ecx
	movss	DWORD PTR [esp], xmm0
	mov	ecx, DWORD PTR _this$[ebp]
	mov	edx, DWORD PTR [ecx+20]
	mov	eax, DWORD PTR _this$[ebp]
	mov	edx, DWORD PTR [edx]
	mov	ecx, DWORD PTR [eax+20]
	mov	eax, DWORD PTR [edx+32]
	call	eax

; 2726 : 
; 2727 : 			// Used to be AMRAAM active seeker range - kludge never worked right to begin with
; 2728 : 			// Now it's Ropt - Max Launch Range. NOTE: KLUDGE, sorta :( Assumes optimum a/c steering and high quality termination criteria
; 2729 : 			yOffset = rMax * .85F;

	movss	xmm0, DWORD PTR _rMax$[ebp]
	mulss	xmm0, DWORD PTR __real@3f59999a
	movss	DWORD PTR _yOffset$[ebp], xmm0

; 2730 : 			yOffset = min ( max ( 0.0F, yOffset), 1.0F);

	movss	xmm0, DWORD PTR __real@00000000
	comiss	xmm0, DWORD PTR _yOffset$[ebp]
	jbe	SHORT $LN71@DrawDLZSym
	movss	xmm0, DWORD PTR __real@00000000
	movss	DWORD PTR tv713[ebp], xmm0
	jmp	SHORT $LN72@DrawDLZSym
$LN71@DrawDLZSym:
	movss	xmm0, DWORD PTR _yOffset$[ebp]
	movss	DWORD PTR tv713[ebp], xmm0
$LN72@DrawDLZSym:
	movss	xmm0, DWORD PTR __real@3f800000
	comiss	xmm0, DWORD PTR tv713[ebp]
	jbe	SHORT $LN75@DrawDLZSym
	movss	xmm0, DWORD PTR __real@00000000
	comiss	xmm0, DWORD PTR _yOffset$[ebp]
	jbe	SHORT $LN73@DrawDLZSym
	movss	xmm0, DWORD PTR __real@00000000
	movss	DWORD PTR tv716[ebp], xmm0
	jmp	SHORT $LN74@DrawDLZSym
$LN73@DrawDLZSym:
	movss	xmm0, DWORD PTR _yOffset$[ebp]
	movss	DWORD PTR tv716[ebp], xmm0
$LN74@DrawDLZSym:
	movss	xmm0, DWORD PTR tv716[ebp]
	movss	DWORD PTR tv717[ebp], xmm0
	jmp	SHORT $LN76@DrawDLZSym
$LN75@DrawDLZSym:
	movss	xmm0, DWORD PTR __real@3f800000
	movss	DWORD PTR tv717[ebp], xmm0
$LN76@DrawDLZSym:
	movss	xmm0, DWORD PTR tv717[ebp]
	movss	DWORD PTR _yOffset$[ebp], xmm0

; 2731 : 			yOffset = bottomEdge + yOffset * height;

	movss	xmm0, DWORD PTR _yOffset$[ebp]
	mulss	xmm0, DWORD PTR ?height@?3??DrawDLZSymbol@RadarDopplerClass@@IAEXXZ@4MA
	addss	xmm0, DWORD PTR ?bottomEdge@?3??DrawDLZSymbol@RadarDopplerClass@@IAEXXZ@4MA
	movss	DWORD PTR _yOffset$[ebp], xmm0

; 2732 : 			display -> SetColor(GetMfdColor(MFD_STEER_ERROR_CUE));

	push	1
	mov	ecx, DWORD PTR _this$[ebp]
	call	?GetMfdColor@DrawableClass@@QAEIW4MfdColor@@@Z ; DrawableClass::GetMfdColor
	push	eax
	mov	ecx, DWORD PTR _this$[ebp]
	mov	edx, DWORD PTR [ecx+20]
	mov	eax, DWORD PTR _this$[ebp]
	mov	edx, DWORD PTR [edx]
	mov	ecx, DWORD PTR [eax+20]
	mov	eax, DWORD PTR [edx+92]
	call	eax

; 2733 : 			display->Circle (leftEdge, yOffset, 0.04F);

	push	ecx
	movss	xmm0, DWORD PTR __real@3d23d70a
	movss	DWORD PTR [esp], xmm0
	push	ecx
	movss	xmm0, DWORD PTR _yOffset$[ebp]
	movss	DWORD PTR [esp], xmm0
	push	ecx
	movss	xmm0, DWORD PTR ?leftEdge@?3??DrawDLZSymbol@RadarDopplerClass@@IAEXXZ@4MA
	movss	DWORD PTR [esp], xmm0
	mov	ecx, DWORD PTR _this$[ebp]
	mov	edx, DWORD PTR [ecx+20]
	mov	eax, DWORD PTR _this$[ebp]
	mov	edx, DWORD PTR [edx]
	mov	ecx, DWORD PTR [eax+20]
	mov	eax, DWORD PTR [edx+48]
	call	eax

; 2734 : 		}
; 2735 : 		else

	jmp	$LN16@DrawDLZSym
$LN17@DrawDLZSym:

; 2736 : 		{
; 2737 : 			display->Line (leftEdge, bottomEdge + rNeMin * height, leftEdge + width - .06f, bottomEdge + rNeMin * height);

	movss	xmm0, DWORD PTR _rNeMin$[ebp]
	mulss	xmm0, DWORD PTR ?height@?3??DrawDLZSymbol@RadarDopplerClass@@IAEXXZ@4MA
	addss	xmm0, DWORD PTR ?bottomEdge@?3??DrawDLZSymbol@RadarDopplerClass@@IAEXXZ@4MA
	push	ecx
	movss	DWORD PTR [esp], xmm0
	movss	xmm0, DWORD PTR ?leftEdge@?3??DrawDLZSymbol@RadarDopplerClass@@IAEXXZ@4MA
	addss	xmm0, DWORD PTR ?width@?3??DrawDLZSymbol@RadarDopplerClass@@IAEXXZ@4MA
	subss	xmm0, DWORD PTR __real@3d75c28f
	push	ecx
	movss	DWORD PTR [esp], xmm0
	movss	xmm0, DWORD PTR _rNeMin$[ebp]
	mulss	xmm0, DWORD PTR ?height@?3??DrawDLZSymbol@RadarDopplerClass@@IAEXXZ@4MA
	addss	xmm0, DWORD PTR ?bottomEdge@?3??DrawDLZSymbol@RadarDopplerClass@@IAEXXZ@4MA
	push	ecx
	movss	DWORD PTR [esp], xmm0
	push	ecx
	movss	xmm0, DWORD PTR ?leftEdge@?3??DrawDLZSymbol@RadarDopplerClass@@IAEXXZ@4MA
	movss	DWORD PTR [esp], xmm0
	mov	ecx, DWORD PTR _this$[ebp]
	mov	edx, DWORD PTR [ecx+20]
	mov	eax, DWORD PTR _this$[ebp]
	mov	edx, DWORD PTR [edx]
	mov	ecx, DWORD PTR [eax+20]
	mov	eax, DWORD PTR [edx+32]
	call	eax

; 2738 : 			display->Line (leftEdge, bottomEdge + rNeMax * height, leftEdge + width - .06f, bottomEdge + rNeMax * height);

	movss	xmm0, DWORD PTR _rNeMax$[ebp]
	mulss	xmm0, DWORD PTR ?height@?3??DrawDLZSymbol@RadarDopplerClass@@IAEXXZ@4MA
	addss	xmm0, DWORD PTR ?bottomEdge@?3??DrawDLZSymbol@RadarDopplerClass@@IAEXXZ@4MA
	push	ecx
	movss	DWORD PTR [esp], xmm0
	movss	xmm0, DWORD PTR ?leftEdge@?3??DrawDLZSymbol@RadarDopplerClass@@IAEXXZ@4MA
	addss	xmm0, DWORD PTR ?width@?3??DrawDLZSymbol@RadarDopplerClass@@IAEXXZ@4MA
	subss	xmm0, DWORD PTR __real@3d75c28f
	push	ecx
	movss	DWORD PTR [esp], xmm0
	movss	xmm0, DWORD PTR _rNeMax$[ebp]
	mulss	xmm0, DWORD PTR ?height@?3??DrawDLZSymbol@RadarDopplerClass@@IAEXXZ@4MA
	addss	xmm0, DWORD PTR ?bottomEdge@?3??DrawDLZSymbol@RadarDopplerClass@@IAEXXZ@4MA
	push	ecx
	movss	DWORD PTR [esp], xmm0
	push	ecx
	movss	xmm0, DWORD PTR ?leftEdge@?3??DrawDLZSymbol@RadarDopplerClass@@IAEXXZ@4MA
	movss	DWORD PTR [esp], xmm0
	mov	ecx, DWORD PTR _this$[ebp]
	mov	edx, DWORD PTR [ecx+20]
	mov	eax, DWORD PTR _this$[ebp]
	mov	edx, DWORD PTR [edx]
	mov	ecx, DWORD PTR [eax+20]
	mov	eax, DWORD PTR [edx+32]
	call	eax

; 2739 : 			display->Line (leftEdge + width - .06f, bottomEdge + rNeMin * height, leftEdge + width - .06f, bottomEdge + rNeMax * height);

	movss	xmm0, DWORD PTR _rNeMax$[ebp]
	mulss	xmm0, DWORD PTR ?height@?3??DrawDLZSymbol@RadarDopplerClass@@IAEXXZ@4MA
	addss	xmm0, DWORD PTR ?bottomEdge@?3??DrawDLZSymbol@RadarDopplerClass@@IAEXXZ@4MA
	push	ecx
	movss	DWORD PTR [esp], xmm0
	movss	xmm0, DWORD PTR ?leftEdge@?3??DrawDLZSymbol@RadarDopplerClass@@IAEXXZ@4MA
	addss	xmm0, DWORD PTR ?width@?3??DrawDLZSymbol@RadarDopplerClass@@IAEXXZ@4MA
	subss	xmm0, DWORD PTR __real@3d75c28f
	push	ecx
	movss	DWORD PTR [esp], xmm0
	movss	xmm0, DWORD PTR _rNeMin$[ebp]
	mulss	xmm0, DWORD PTR ?height@?3??DrawDLZSymbol@RadarDopplerClass@@IAEXXZ@4MA
	addss	xmm0, DWORD PTR ?bottomEdge@?3??DrawDLZSymbol@RadarDopplerClass@@IAEXXZ@4MA
	push	ecx
	movss	DWORD PTR [esp], xmm0
	movss	xmm0, DWORD PTR ?leftEdge@?3??DrawDLZSymbol@RadarDopplerClass@@IAEXXZ@4MA
	addss	xmm0, DWORD PTR ?width@?3??DrawDLZSymbol@RadarDopplerClass@@IAEXXZ@4MA
	subss	xmm0, DWORD PTR __real@3d75c28f
	push	ecx
	movss	DWORD PTR [esp], xmm0
	mov	ecx, DWORD PTR _this$[ebp]
	mov	edx, DWORD PTR [ecx+20]
	mov	eax, DWORD PTR _this$[ebp]
	mov	edx, DWORD PTR [edx]
	mov	ecx, DWORD PTR [eax+20]
	mov	eax, DWORD PTR [edx+32]
	call	eax

; 2740 : 			// Range for immediate Active
; 2741 : 			//LRKLUDGE
; 2742 : 			yOffset = pFCC->missileActiveRange * rangeInv;

	mov	ecx, DWORD PTR _pFCC$[ebp]
	movss	xmm0, DWORD PTR [ecx+284]
	mulss	xmm0, DWORD PTR ?rangeInv@?3??DrawDLZSymbol@RadarDopplerClass@@IAEXXZ@4MA
	movss	DWORD PTR _yOffset$[ebp], xmm0

; 2743 : 			yOffset = min ( max ( 0.0F, yOffset), 1.0F);

	movss	xmm0, DWORD PTR __real@00000000
	comiss	xmm0, DWORD PTR _yOffset$[ebp]
	jbe	SHORT $LN77@DrawDLZSym
	movss	xmm0, DWORD PTR __real@00000000
	movss	DWORD PTR tv821[ebp], xmm0
	jmp	SHORT $LN78@DrawDLZSym
$LN77@DrawDLZSym:
	movss	xmm0, DWORD PTR _yOffset$[ebp]
	movss	DWORD PTR tv821[ebp], xmm0
$LN78@DrawDLZSym:
	movss	xmm0, DWORD PTR __real@3f800000
	comiss	xmm0, DWORD PTR tv821[ebp]
	jbe	SHORT $LN81@DrawDLZSym
	movss	xmm0, DWORD PTR __real@00000000
	comiss	xmm0, DWORD PTR _yOffset$[ebp]
	jbe	SHORT $LN79@DrawDLZSym
	movss	xmm0, DWORD PTR __real@00000000
	movss	DWORD PTR tv824[ebp], xmm0
	jmp	SHORT $LN80@DrawDLZSym
$LN79@DrawDLZSym:
	movss	xmm0, DWORD PTR _yOffset$[ebp]
	movss	DWORD PTR tv824[ebp], xmm0
$LN80@DrawDLZSym:
	movss	xmm0, DWORD PTR tv824[ebp]
	movss	DWORD PTR tv825[ebp], xmm0
	jmp	SHORT $LN82@DrawDLZSym
$LN81@DrawDLZSym:
	movss	xmm0, DWORD PTR __real@3f800000
	movss	DWORD PTR tv825[ebp], xmm0
$LN82@DrawDLZSym:
	movss	xmm0, DWORD PTR tv825[ebp]
	movss	DWORD PTR _yOffset$[ebp], xmm0

; 2744 : 			yOffset = bottomEdge + yOffset * height;

	movss	xmm0, DWORD PTR _yOffset$[ebp]
	mulss	xmm0, DWORD PTR ?height@?3??DrawDLZSymbol@RadarDopplerClass@@IAEXXZ@4MA
	addss	xmm0, DWORD PTR ?bottomEdge@?3??DrawDLZSymbol@RadarDopplerClass@@IAEXXZ@4MA
	movss	DWORD PTR _yOffset$[ebp], xmm0

; 2745 : 			display -> SetColor(GetMfdColor(MFD_STEER_ERROR_CUE));

	push	1
	mov	ecx, DWORD PTR _this$[ebp]
	call	?GetMfdColor@DrawableClass@@QAEIW4MfdColor@@@Z ; DrawableClass::GetMfdColor
	push	eax
	mov	edx, DWORD PTR _this$[ebp]
	mov	eax, DWORD PTR [edx+20]
	mov	ecx, DWORD PTR _this$[ebp]
	mov	edx, DWORD PTR [eax]
	mov	ecx, DWORD PTR [ecx+20]
	mov	eax, DWORD PTR [edx+92]
	call	eax

; 2746 : 			display->Circle (leftEdge, yOffset, 0.02F);

	push	ecx
	movss	xmm0, DWORD PTR __real@3ca3d70a
	movss	DWORD PTR [esp], xmm0
	push	ecx
	movss	xmm0, DWORD PTR _yOffset$[ebp]
	movss	DWORD PTR [esp], xmm0
	push	ecx
	movss	xmm0, DWORD PTR ?leftEdge@?3??DrawDLZSymbol@RadarDopplerClass@@IAEXXZ@4MA
	movss	DWORD PTR [esp], xmm0
	mov	ecx, DWORD PTR _this$[ebp]
	mov	edx, DWORD PTR [ecx+20]
	mov	eax, DWORD PTR _this$[ebp]
	mov	edx, DWORD PTR [edx]
	mov	ecx, DWORD PTR [eax+20]
	mov	eax, DWORD PTR [edx+48]
	call	eax
$LN16@DrawDLZSym:

; 2747 : 		}
; 2748 : 
; 2749 : 		// Draw the ASEC symbol. if its flashing, or outside the NE zone JPO
; 2750 : 		if (g_bRealisticAvionics && ((vuxRealTime & 0x200) || lockedTargetData->range > pFCC->missileRneMax*0.7f ||
; 2751 : 								lockedTargetData->range < pFCC->missileRneMin)) 

	movzx	ecx, BYTE PTR ?g_bRealisticAvionics@@3_NA ; g_bRealisticAvionics
	test	ecx, ecx
	je	$LN15@DrawDLZSym
	mov	edx, DWORD PTR ?vuxRealTime@@3KA	; vuxRealTime
	and	edx, 512				; 00000200H
	jne	SHORT $LN14@DrawDLZSym
	mov	eax, DWORD PTR _this$[ebp]
	mov	ecx, DWORD PTR [eax+176]
	mov	edx, DWORD PTR _pFCC$[ebp]
	movss	xmm0, DWORD PTR [edx+296]
	mulss	xmm0, DWORD PTR __real@3f333333
	movss	xmm1, DWORD PTR [ecx+44]
	comiss	xmm1, xmm0
	ja	SHORT $LN14@DrawDLZSym
	mov	eax, DWORD PTR _this$[ebp]
	mov	ecx, DWORD PTR [eax+176]
	mov	edx, DWORD PTR _pFCC$[ebp]
	movss	xmm0, DWORD PTR [edx+300]
	comiss	xmm0, DWORD PTR [ecx+44]
	jbe	SHORT $LN15@DrawDLZSym
$LN14@DrawDLZSym:

; 2752 : 		{
; 2753 : 			display -> SetColor(GetMfdColor(MFD_STEER_ERROR_CUE));

	push	1
	mov	ecx, DWORD PTR _this$[ebp]
	call	?GetMfdColor@DrawableClass@@QAEIW4MfdColor@@@Z ; DrawableClass::GetMfdColor
	push	eax
	mov	eax, DWORD PTR _this$[ebp]
	mov	ecx, DWORD PTR [eax+20]
	mov	edx, DWORD PTR _this$[ebp]
	mov	eax, DWORD PTR [ecx]
	mov	ecx, DWORD PTR [edx+20]
	mov	edx, DWORD PTR [eax+92]
	call	edx

; 2754 : 			display->Circle(0.0f, 0.0f, pFCC->Aim120ASECRadius(lockedTargetData->range));

	mov	eax, DWORD PTR _this$[ebp]
	mov	ecx, DWORD PTR [eax+176]
	push	ecx
	movss	xmm0, DWORD PTR [ecx+44]
	movss	DWORD PTR [esp], xmm0
	mov	ecx, DWORD PTR _pFCC$[ebp]
	call	?Aim120ASECRadius@FireControlComputer@@QAEMM@Z ; FireControlComputer::Aim120ASECRadius
	push	ecx
	fstp	DWORD PTR [esp]
	push	ecx
	movss	xmm0, DWORD PTR __real@00000000
	movss	DWORD PTR [esp], xmm0
	push	ecx
	movss	xmm0, DWORD PTR __real@00000000
	movss	DWORD PTR [esp], xmm0
	mov	edx, DWORD PTR _this$[ebp]
	mov	eax, DWORD PTR [edx+20]
	mov	ecx, DWORD PTR _this$[ebp]
	mov	edx, DWORD PTR [eax]
	mov	ecx, DWORD PTR [ecx+20]
	mov	eax, DWORD PTR [edx+48]
	call	eax
$LN15@DrawDLZSym:

; 2755 : 		}
; 2756 : 
; 2757 : 		display -> SetColor(GetMfdColor(MFD_DLZ));

	push	1
	mov	ecx, DWORD PTR _this$[ebp]
	call	?GetMfdColor@DrawableClass@@QAEIW4MfdColor@@@Z ; DrawableClass::GetMfdColor
	push	eax
	mov	ecx, DWORD PTR _this$[ebp]
	mov	edx, DWORD PTR [ecx+20]
	mov	eax, DWORD PTR _this$[ebp]
	mov	edx, DWORD PTR [edx]
	mov	ecx, DWORD PTR [eax+20]
	mov	eax, DWORD PTR [edx+92]
	call	eax

; 2758 : 
; 2759 : 
; 2760 : 		if(g_bnewAMRAAMdlz)

	movzx	ecx, BYTE PTR ?g_bnewAMRAAMdlz@@3_NA	; g_bnewAMRAAMdlz
	test	ecx, ecx
	je	$LN13@DrawDLZSym

; 2761 : 		{
; 2762 : 			// Draw "A"/"F"-pole range for missile in flight -- "A" is not used to avoid confusion w/ AMRAAM active indications
; 2763 : 			if (pFCC->lastMissileImpactTime > 0.0F)

	mov	edx, DWORD PTR _pFCC$[ebp]
	movss	xmm0, DWORD PTR [edx+268]
	comiss	xmm0, DWORD PTR __real@00000000
	jbe	$LN12@DrawDLZSym

; 2764 : 			{
; 2765 : 				if (pFCC->lastMissileImpactTime > pFCC->lastmissileActiveTime)

	mov	eax, DWORD PTR _pFCC$[ebp]
	mov	ecx, DWORD PTR _pFCC$[ebp]
	movss	xmm0, DWORD PTR [eax+268]
	comiss	xmm0, DWORD PTR [ecx+276]
	jbe	$LN11@DrawDLZSym

; 2766 : 				{
; 2767 : 					sprintf (tmpStr, "%.0fM", (lockedTargetData->range / 6076) - (( max ( min (-lockedTargetData->rangedot * FTPSEC_TO_KNOTS, 1500.0F), -1500.0F)/6076 * pFCC->lastmissileActiveTime )));

	mov	edx, DWORD PTR _this$[ebp]
	mov	eax, DWORD PTR [edx+176]
	movss	xmm0, DWORD PTR [eax+48]
	xorps	xmm0, DWORD PTR __xmm@80000000800000008000000080000000
	mulss	xmm0, DWORD PTR __real@3f17ac60
	movss	xmm1, DWORD PTR __real@44bb8000
	comiss	xmm1, xmm0
	jbe	SHORT $LN83@DrawDLZSym
	mov	ecx, DWORD PTR _this$[ebp]
	mov	edx, DWORD PTR [ecx+176]
	movss	xmm0, DWORD PTR [edx+48]
	xorps	xmm0, DWORD PTR __xmm@80000000800000008000000080000000
	mulss	xmm0, DWORD PTR __real@3f17ac60
	movss	DWORD PTR tv954[ebp], xmm0
	jmp	SHORT $LN84@DrawDLZSym
$LN83@DrawDLZSym:
	movss	xmm0, DWORD PTR __real@44bb8000
	movss	DWORD PTR tv954[ebp], xmm0
$LN84@DrawDLZSym:
	movss	xmm0, DWORD PTR tv954[ebp]
	comiss	xmm0, DWORD PTR __real@c4bb8000
	jbe	SHORT $LN87@DrawDLZSym
	mov	eax, DWORD PTR _this$[ebp]
	mov	ecx, DWORD PTR [eax+176]
	movss	xmm0, DWORD PTR [ecx+48]
	xorps	xmm0, DWORD PTR __xmm@80000000800000008000000080000000
	mulss	xmm0, DWORD PTR __real@3f17ac60
	movss	xmm1, DWORD PTR __real@44bb8000
	comiss	xmm1, xmm0
	jbe	SHORT $LN85@DrawDLZSym
	mov	edx, DWORD PTR _this$[ebp]
	mov	eax, DWORD PTR [edx+176]
	movss	xmm0, DWORD PTR [eax+48]
	xorps	xmm0, DWORD PTR __xmm@80000000800000008000000080000000
	mulss	xmm0, DWORD PTR __real@3f17ac60
	movss	DWORD PTR tv967[ebp], xmm0
	jmp	SHORT $LN86@DrawDLZSym
$LN85@DrawDLZSym:
	movss	xmm0, DWORD PTR __real@44bb8000
	movss	DWORD PTR tv967[ebp], xmm0
$LN86@DrawDLZSym:
	movss	xmm0, DWORD PTR tv967[ebp]
	movss	DWORD PTR tv968[ebp], xmm0
	jmp	SHORT $LN88@DrawDLZSym
$LN87@DrawDLZSym:
	movss	xmm0, DWORD PTR __real@c4bb8000
	movss	DWORD PTR tv968[ebp], xmm0
$LN88@DrawDLZSym:
	mov	ecx, DWORD PTR _this$[ebp]
	mov	edx, DWORD PTR [ecx+176]
	movss	xmm0, DWORD PTR [edx+44]
	divss	xmm0, DWORD PTR __real@45bde000
	movss	xmm1, DWORD PTR tv968[ebp]
	divss	xmm1, DWORD PTR __real@45bde000
	mov	eax, DWORD PTR _pFCC$[ebp]
	mulss	xmm1, DWORD PTR [eax+276]
	subss	xmm0, xmm1
	cvtss2sd xmm0, xmm0
	sub	esp, 8
	movsd	QWORD PTR [esp], xmm0
	push	OFFSET ??_C@_05JOALCFMH@?$CF?40fM?$AA@
	lea	ecx, DWORD PTR _tmpStr$[ebp]
	push	ecx
	call	_sprintf
	add	esp, 16					; 00000010H

; 2768 : 				}
; 2769 : 				else

	jmp	$LN10@DrawDLZSym
$LN11@DrawDLZSym:

; 2770 : 				{
; 2771 : 					sprintf (tmpStr, "%.0fF", (lockedTargetData->range / 6076) - (( max ( min (-lockedTargetData->rangedot * FTPSEC_TO_KNOTS, 1500.0F), -1500.0F)/6076 * pFCC->lastMissileImpactTime )));

	mov	edx, DWORD PTR _this$[ebp]
	mov	eax, DWORD PTR [edx+176]
	movss	xmm0, DWORD PTR [eax+48]
	xorps	xmm0, DWORD PTR __xmm@80000000800000008000000080000000
	mulss	xmm0, DWORD PTR __real@3f17ac60
	movss	xmm1, DWORD PTR __real@44bb8000
	comiss	xmm1, xmm0
	jbe	SHORT $LN89@DrawDLZSym
	mov	ecx, DWORD PTR _this$[ebp]
	mov	edx, DWORD PTR [ecx+176]
	movss	xmm0, DWORD PTR [edx+48]
	xorps	xmm0, DWORD PTR __xmm@80000000800000008000000080000000
	mulss	xmm0, DWORD PTR __real@3f17ac60
	movss	DWORD PTR tv994[ebp], xmm0
	jmp	SHORT $LN90@DrawDLZSym
$LN89@DrawDLZSym:
	movss	xmm0, DWORD PTR __real@44bb8000
	movss	DWORD PTR tv994[ebp], xmm0
$LN90@DrawDLZSym:
	movss	xmm0, DWORD PTR tv994[ebp]
	comiss	xmm0, DWORD PTR __real@c4bb8000
	jbe	SHORT $LN93@DrawDLZSym
	mov	eax, DWORD PTR _this$[ebp]
	mov	ecx, DWORD PTR [eax+176]
	movss	xmm0, DWORD PTR [ecx+48]
	xorps	xmm0, DWORD PTR __xmm@80000000800000008000000080000000
	mulss	xmm0, DWORD PTR __real@3f17ac60
	movss	xmm1, DWORD PTR __real@44bb8000
	comiss	xmm1, xmm0
	jbe	SHORT $LN91@DrawDLZSym
	mov	edx, DWORD PTR _this$[ebp]
	mov	eax, DWORD PTR [edx+176]
	movss	xmm0, DWORD PTR [eax+48]
	xorps	xmm0, DWORD PTR __xmm@80000000800000008000000080000000
	mulss	xmm0, DWORD PTR __real@3f17ac60
	movss	DWORD PTR tv1007[ebp], xmm0
	jmp	SHORT $LN92@DrawDLZSym
$LN91@DrawDLZSym:
	movss	xmm0, DWORD PTR __real@44bb8000
	movss	DWORD PTR tv1007[ebp], xmm0
$LN92@DrawDLZSym:
	movss	xmm0, DWORD PTR tv1007[ebp]
	movss	DWORD PTR tv1008[ebp], xmm0
	jmp	SHORT $LN94@DrawDLZSym
$LN93@DrawDLZSym:
	movss	xmm0, DWORD PTR __real@c4bb8000
	movss	DWORD PTR tv1008[ebp], xmm0
$LN94@DrawDLZSym:
	mov	ecx, DWORD PTR _this$[ebp]
	mov	edx, DWORD PTR [ecx+176]
	movss	xmm0, DWORD PTR [edx+44]
	divss	xmm0, DWORD PTR __real@45bde000
	movss	xmm1, DWORD PTR tv1008[ebp]
	divss	xmm1, DWORD PTR __real@45bde000
	mov	eax, DWORD PTR _pFCC$[ebp]
	mulss	xmm1, DWORD PTR [eax+268]
	subss	xmm0, xmm1
	cvtss2sd xmm0, xmm0
	sub	esp, 8
	movsd	QWORD PTR [esp], xmm0
	push	OFFSET ??_C@_05HNPPPMAM@?$CF?40fF?$AA@
	lea	ecx, DWORD PTR _tmpStr$[ebp]
	push	ecx
	call	_sprintf
	add	esp, 16					; 00000010H
$LN10@DrawDLZSym:

; 2772 : 				}
; 2773 : 				ShiAssert (strlen(tmpStr) < sizeof(tmpStr));
; 2774 : 				display->TextRight (leftEdge + width, bottomEdge + 0.25F * display->TextHeight(), tmpStr);

	push	0
	lea	edx, DWORD PTR _tmpStr$[ebp]
	push	edx
	mov	eax, DWORD PTR _this$[ebp]
	mov	ecx, DWORD PTR [eax+20]
	mov	edx, DWORD PTR _this$[ebp]
	mov	eax, DWORD PTR [ecx]
	mov	ecx, DWORD PTR [edx+20]
	mov	edx, DWORD PTR [eax+88]
	call	edx
	fstp	DWORD PTR tv1790[ebp]
	movss	xmm0, DWORD PTR tv1790[ebp]
	mulss	xmm0, DWORD PTR __real@3e800000
	addss	xmm0, DWORD PTR ?bottomEdge@?3??DrawDLZSymbol@RadarDopplerClass@@IAEXXZ@4MA
	push	ecx
	movss	DWORD PTR [esp], xmm0
	movss	xmm0, DWORD PTR ?leftEdge@?3??DrawDLZSymbol@RadarDopplerClass@@IAEXXZ@4MA
	addss	xmm0, DWORD PTR ?width@?3??DrawDLZSymbol@RadarDopplerClass@@IAEXXZ@4MA
	push	ecx
	movss	DWORD PTR [esp], xmm0
	mov	eax, DWORD PTR _this$[ebp]
	mov	ecx, DWORD PTR [eax+20]
	mov	edx, DWORD PTR _this$[ebp]
	mov	eax, DWORD PTR [ecx]
	mov	ecx, DWORD PTR [edx+20]
	mov	edx, DWORD PTR [eax+60]
	call	edx
$LN12@DrawDLZSym:

; 2775 : 			}
; 2776 : 		}
; 2777 : 		else

	jmp	$LN8@DrawDLZSym
$LN13@DrawDLZSym:

; 2778 : 		{
; 2779 : 			// Draw Time to die strings
; 2780 : 			if (pFCC->nextMissileImpactTime > 0.0F)

	mov	eax, DWORD PTR _pFCC$[ebp]
	movss	xmm0, DWORD PTR [eax+272]
	comiss	xmm0, DWORD PTR __real@00000000
	jbe	$LN8@DrawDLZSym

; 2781 : 			{
; 2782 : 				if (pFCC->nextMissileImpactTime > pFCC->lastmissileActiveTime)

	mov	ecx, DWORD PTR _pFCC$[ebp]
	mov	edx, DWORD PTR _pFCC$[ebp]
	movss	xmm0, DWORD PTR [ecx+272]
	comiss	xmm0, DWORD PTR [edx+276]
	jbe	SHORT $LN7@DrawDLZSym

; 2783 : 				{
; 2784 : 					sprintf (tmpStr, "A%.0f", pFCC->nextMissileImpactTime - pFCC->lastmissileActiveTime);

	mov	eax, DWORD PTR _pFCC$[ebp]
	mov	ecx, DWORD PTR _pFCC$[ebp]
	movss	xmm0, DWORD PTR [eax+272]
	subss	xmm0, DWORD PTR [ecx+276]
	cvtss2sd xmm0, xmm0
	sub	esp, 8
	movsd	QWORD PTR [esp], xmm0
	push	OFFSET ??_C@_05NEDJNGFN@A?$CF?40f?$AA@
	lea	edx, DWORD PTR _tmpStr$[ebp]
	push	edx
	call	_sprintf
	add	esp, 16					; 00000010H

; 2785 : 				}
; 2786 : 				else

	jmp	SHORT $LN6@DrawDLZSym
$LN7@DrawDLZSym:

; 2787 : 				{
; 2788 : 					sprintf (tmpStr, "T%.0f", pFCC->nextMissileImpactTime);

	mov	eax, DWORD PTR _pFCC$[ebp]
	cvtss2sd xmm0, DWORD PTR [eax+272]
	sub	esp, 8
	movsd	QWORD PTR [esp], xmm0
	push	OFFSET ??_C@_05IHCCEFHF@T?$CF?40f?$AA@
	lea	ecx, DWORD PTR _tmpStr$[ebp]
	push	ecx
	call	_sprintf
	add	esp, 16					; 00000010H
$LN6@DrawDLZSym:

; 2789 : 				}
; 2790 : 				ShiAssert (strlen(tmpStr) < sizeof(tmpStr));
; 2791 : 				display->TextRight (leftEdge + width, bottomEdge + 0.25F * display->TextHeight(), tmpStr);

	push	0
	lea	edx, DWORD PTR _tmpStr$[ebp]
	push	edx
	mov	eax, DWORD PTR _this$[ebp]
	mov	ecx, DWORD PTR [eax+20]
	mov	edx, DWORD PTR _this$[ebp]
	mov	eax, DWORD PTR [ecx]
	mov	ecx, DWORD PTR [edx+20]
	mov	edx, DWORD PTR [eax+88]
	call	edx
	fstp	DWORD PTR tv1819[ebp]
	movss	xmm0, DWORD PTR tv1819[ebp]
	mulss	xmm0, DWORD PTR __real@3e800000
	addss	xmm0, DWORD PTR ?bottomEdge@?3??DrawDLZSymbol@RadarDopplerClass@@IAEXXZ@4MA
	push	ecx
	movss	DWORD PTR [esp], xmm0
	movss	xmm0, DWORD PTR ?leftEdge@?3??DrawDLZSymbol@RadarDopplerClass@@IAEXXZ@4MA
	addss	xmm0, DWORD PTR ?width@?3??DrawDLZSymbol@RadarDopplerClass@@IAEXXZ@4MA
	push	ecx
	movss	DWORD PTR [esp], xmm0
	mov	eax, DWORD PTR _this$[ebp]
	mov	ecx, DWORD PTR [eax+20]
	mov	edx, DWORD PTR _this$[ebp]
	mov	eax, DWORD PTR [ecx]
	mov	ecx, DWORD PTR [edx+20]
	mov	edx, DWORD PTR [eax+60]
	call	edx
$LN8@DrawDLZSym:

; 2792 : 			}
; 2793 : 		}
; 2794 : 
; 2795 : 		if (pFCC->lastMissileImpactTime > 0.0F)

	mov	eax, DWORD PTR _pFCC$[ebp]
	movss	xmm0, DWORD PTR [eax+268]
	comiss	xmm0, DWORD PTR __real@00000000
	jbe	$LN5@DrawDLZSym

; 2796 : 		{
; 2797 : 			// lose indications
; 2798 : 			if (pFCC->LastMissileWillMiss(lockedTargetData->range)) { // JPO lose indication

	mov	ecx, DWORD PTR _this$[ebp]
	mov	edx, DWORD PTR [ecx+176]
	push	ecx
	movss	xmm0, DWORD PTR [edx+44]
	movss	DWORD PTR [esp], xmm0
	mov	ecx, DWORD PTR _pFCC$[ebp]
	call	?LastMissileWillMiss@FireControlComputer@@QAEHM@Z ; FireControlComputer::LastMissileWillMiss
	test	eax, eax
	je	SHORT $LN4@DrawDLZSym

; 2799 : 				sprintf (tmpStr, "L%.0f", pFCC->lastMissileImpactTime);

	mov	eax, DWORD PTR _pFCC$[ebp]
	cvtss2sd xmm0, DWORD PTR [eax+268]
	sub	esp, 8
	movsd	QWORD PTR [esp], xmm0
	push	OFFSET ??_C@_05GIKHMFID@L?$CF?40f?$AA@
	lea	ecx, DWORD PTR _tmpStr$[ebp]
	push	ecx
	call	_sprintf
	add	esp, 16					; 00000010H
	jmp	SHORT $LN1@DrawDLZSym
$LN4@DrawDLZSym:

; 2800 : 			}
; 2801 : 			else if (pFCC->lastMissileImpactTime > pFCC->lastmissileActiveTime)

	mov	edx, DWORD PTR _pFCC$[ebp]
	mov	eax, DWORD PTR _pFCC$[ebp]
	movss	xmm0, DWORD PTR [edx+268]
	comiss	xmm0, DWORD PTR [eax+276]
	jbe	SHORT $LN2@DrawDLZSym

; 2802 : 			{
; 2803 : 				sprintf (tmpStr, "A%.0f", pFCC->lastMissileImpactTime - pFCC->lastmissileActiveTime);

	mov	ecx, DWORD PTR _pFCC$[ebp]
	mov	edx, DWORD PTR _pFCC$[ebp]
	movss	xmm0, DWORD PTR [ecx+268]
	subss	xmm0, DWORD PTR [edx+276]
	cvtss2sd xmm0, xmm0
	sub	esp, 8
	movsd	QWORD PTR [esp], xmm0
	push	OFFSET ??_C@_05NEDJNGFN@A?$CF?40f?$AA@
	lea	eax, DWORD PTR _tmpStr$[ebp]
	push	eax
	call	_sprintf
	add	esp, 16					; 00000010H

; 2804 : 			}
; 2805 : 			else

	jmp	SHORT $LN1@DrawDLZSym
$LN2@DrawDLZSym:

; 2806 : 			{
; 2807 : 				sprintf (tmpStr, "T%.0f", pFCC->lastMissileImpactTime);

	mov	ecx, DWORD PTR _pFCC$[ebp]
	cvtss2sd xmm0, DWORD PTR [ecx+268]
	sub	esp, 8
	movsd	QWORD PTR [esp], xmm0
	push	OFFSET ??_C@_05IHCCEFHF@T?$CF?40f?$AA@
	lea	edx, DWORD PTR _tmpStr$[ebp]
	push	edx
	call	_sprintf
	add	esp, 16					; 00000010H
$LN1@DrawDLZSym:

; 2808 : 			}
; 2809 : 			ShiAssert (strlen(tmpStr) < sizeof(tmpStr));
; 2810 : 			//       display->TextRight (leftEdge + width, textbottom - 2.1 * display->TextHeight(), tmpStr);
; 2811 : 			display->TextRight (leftEdge + width, bottomEdge - 0.1F, tmpStr);

	push	0
	lea	eax, DWORD PTR _tmpStr$[ebp]
	push	eax
	movss	xmm0, DWORD PTR ?bottomEdge@?3??DrawDLZSymbol@RadarDopplerClass@@IAEXXZ@4MA
	subss	xmm0, DWORD PTR __real@3dcccccd
	push	ecx
	movss	DWORD PTR [esp], xmm0
	movss	xmm0, DWORD PTR ?leftEdge@?3??DrawDLZSymbol@RadarDopplerClass@@IAEXXZ@4MA
	addss	xmm0, DWORD PTR ?width@?3??DrawDLZSymbol@RadarDopplerClass@@IAEXXZ@4MA
	push	ecx
	movss	DWORD PTR [esp], xmm0
	mov	ecx, DWORD PTR _this$[ebp]
	mov	edx, DWORD PTR [ecx+20]
	mov	eax, DWORD PTR _this$[ebp]
	mov	edx, DWORD PTR [edx]
	mov	ecx, DWORD PTR [eax+20]
	mov	eax, DWORD PTR [edx+60]
	call	eax
$LN5@DrawDLZSym:

; 2812 : 		}
; 2813 : 		display->SetColor(color);

	mov	ecx, DWORD PTR _color$[ebp]
	push	ecx
	mov	edx, DWORD PTR _this$[ebp]
	mov	eax, DWORD PTR [edx+20]
	mov	ecx, DWORD PTR _this$[ebp]
	mov	edx, DWORD PTR [eax]
	mov	ecx, DWORD PTR [ecx+20]
	mov	eax, DWORD PTR [edx+92]
	call	eax
$LN28@DrawDLZSym:
$LN31@DrawDLZSym:

; 2814 : 	}
; 2815 : }

	mov	ecx, DWORD PTR __$ArrayPad$[ebp]
	xor	ecx, ebp
	call	@__security_check_cookie@4
	mov	esp, ebp
	pop	ebp
	ret	0
?DrawDLZSymbol@RadarDopplerClass@@IAEXXZ ENDP		; RadarDopplerClass::DrawDLZSymbol
_TEXT	ENDS
; Function compile flags: /Odtp
; File c:\users\zhitao li\documents\visual studio 2012\projects\freefalcon\sim\radar\bscope.cpp
_TEXT	SEGMENT
tv492 = -188						; size = 8
tv477 = -180						; size = 4
_yPos$1 = -176						; size = 4
tv471 = -172						; size = 4
tv507 = -168						; size = 4
tv497 = -164						; size = 4
tv583 = -160						; size = 4
tv529 = -156						; size = 4
tv483 = -152						; size = 4
_dy$2 = -148						; size = 4
tv316 = -144						; size = 4
_dx$3 = -140						; size = 4
tv317 = -136						; size = 4
tv82 = -132						; size = 4
_tgtx$4 = -128						; size = 4
_xlen$ = -124						; size = 4
tv313 = -120						; size = 4
_RefAngle$ = -116					; size = 4
_yref$ = -112						; size = 4
_self$ = -108						; size = 4
_xref$ = -104						; size = 4
_FCC$ = -100						; size = 4
_y$ = -96						; size = 4
_i$5 = -92						; size = 4
_x$ = -88						; size = 4
_this$ = -84						; size = 4
_xPos$6 = -80						; size = 4
_offset$ = -76						; size = 4
_collPoint$7 = -72					; size = 12
_deltay$ = -60						; size = 28
_deltax$ = -32						; size = 28
__$ArrayPad$ = -4					; size = 4
_display$ = 8						; size = 4
?DrawReference@RadarDopplerClass@@IAEXPAVVirtualDisplay@@@Z PROC ; RadarDopplerClass::DrawReference
; _this$ = ecx

; 3042 : {

	push	ebp
	mov	ebp, esp
	sub	esp, 188				; 000000bcH
	mov	eax, DWORD PTR ___security_cookie
	xor	eax, ebp
	mov	DWORD PTR __$ArrayPad$[ebp], eax
	mov	DWORD PTR _this$[ebp], ecx

; 3043 : 	AircraftClass* self = SimDriver.GetPlayerAircraft();

	mov	ecx, OFFSET ?SimDriver@@3VSimulationDriver@@A ; SimDriver
	call	?GetPlayerAircraft@SimulationDriver@@QBEPAVAircraftClass@@XZ ; SimulationDriver::GetPlayerAircraft
	mov	DWORD PTR _self$[ebp], eax

; 3044 : 	if(!self)

	cmp	DWORD PTR _self$[ebp], 0
	jne	SHORT $LN23@DrawRefere

; 3045 : 		return;

	jmp	$LN24@DrawRefere
$LN23@DrawRefere:

; 3046 : 
; 3047 : 	const float yref = -0.8f;

	movss	xmm0, DWORD PTR __real@bf4ccccd
	movss	DWORD PTR _yref$[ebp], xmm0

; 3048 : 	const float xref = -0.9f;

	movss	xmm0, DWORD PTR __real@bf666666
	movss	DWORD PTR _xref$[ebp], xmm0

; 3049 : 	const float deltax[] = { 0.05f,  0.02f, 0.02f, 0.005f,  0.02f, 0.02f, 0.05f };

	movss	xmm0, DWORD PTR __real@3d4ccccd
	movss	DWORD PTR _deltax$[ebp], xmm0
	movss	xmm0, DWORD PTR __real@3ca3d70a
	movss	DWORD PTR _deltax$[ebp+4], xmm0
	movss	xmm0, DWORD PTR __real@3ca3d70a
	movss	DWORD PTR _deltax$[ebp+8], xmm0
	movss	xmm0, DWORD PTR __real@3ba3d70a
	movss	DWORD PTR _deltax$[ebp+12], xmm0
	movss	xmm0, DWORD PTR __real@3ca3d70a
	movss	DWORD PTR _deltax$[ebp+16], xmm0
	movss	xmm0, DWORD PTR __real@3ca3d70a
	movss	DWORD PTR _deltax$[ebp+20], xmm0
	movss	xmm0, DWORD PTR __real@3d4ccccd
	movss	DWORD PTR _deltax$[ebp+24], xmm0

; 3050 : 	const float deltay[] = { 0.00f, -0.05f, 0.05f, 0.00f, -0.05f, 0.05f, 0.00f };

	movss	xmm0, DWORD PTR __real@00000000
	movss	DWORD PTR _deltay$[ebp], xmm0
	movss	xmm0, DWORD PTR __real@bd4ccccd
	movss	DWORD PTR _deltay$[ebp+4], xmm0
	movss	xmm0, DWORD PTR __real@3d4ccccd
	movss	DWORD PTR _deltay$[ebp+8], xmm0
	movss	xmm0, DWORD PTR __real@00000000
	movss	DWORD PTR _deltay$[ebp+12], xmm0
	movss	xmm0, DWORD PTR __real@bd4ccccd
	movss	DWORD PTR _deltay$[ebp+16], xmm0
	movss	xmm0, DWORD PTR __real@3d4ccccd
	movss	DWORD PTR _deltay$[ebp+20], xmm0
	movss	xmm0, DWORD PTR __real@00000000
	movss	DWORD PTR _deltay$[ebp+24], xmm0

; 3051 : 	const float RefAngle = 45.0f * DTR;

	movss	xmm0, DWORD PTR __real@3f490fd9
	movss	DWORD PTR _RefAngle$[ebp], xmm0

; 3052 : 	float x = xref, y = yref;

	movss	xmm0, DWORD PTR _xref$[ebp]
	movss	DWORD PTR _x$[ebp], xmm0
	movss	xmm0, DWORD PTR _yref$[ebp]
	movss	DWORD PTR _y$[ebp], xmm0

; 3053 : 
; 3054 : 	float offset = 0.0f;

	movss	xmm0, DWORD PTR __real@00000000
	movss	DWORD PTR _offset$[ebp], xmm0

; 3055 : 
; 3056 : 	ShiAssert(self != NULL && TheHud != NULL);
; 3057 : 	if (TheHud->waypointValid) 

	mov	eax, DWORD PTR ?TheHud@@3PAVHudClass@@A	; TheHud
	movsx	ecx, BYTE PTR [eax+4952]
	test	ecx, ecx
	je	SHORT $LN22@DrawRefere

; 3058 : 	{
; 3059 : 		offset = TheHud->waypointBearing / RefAngle;

	mov	edx, DWORD PTR ?TheHud@@3PAVHudClass@@A	; TheHud
	movss	xmm0, DWORD PTR [edx+4940]
	divss	xmm0, DWORD PTR _RefAngle$[ebp]
	movss	DWORD PTR _offset$[ebp], xmm0
$LN22@DrawRefere:

; 3060 : 	}
; 3061 : 	FireControlComputer *FCC = self->GetFCC();

	mov	eax, DWORD PTR _self$[ebp]
	mov	edx, DWORD PTR [eax]
	mov	ecx, DWORD PTR _self$[ebp]
	mov	eax, DWORD PTR [edx+460]
	call	eax
	mov	DWORD PTR _FCC$[ebp], eax

; 3062 : 	ShiAssert(FCC != NULL);
; 3063 : 	switch (FCC->GetMasterMode() )

	mov	ecx, DWORD PTR _FCC$[ebp]
	call	?GetMasterMode@FireControlComputer@@QAE?AW4FCCMasterMode@1@XZ ; FireControlComputer::GetMasterMode
	mov	DWORD PTR tv82[ebp], eax
	cmp	DWORD PTR tv82[ebp], 13			; 0000000dH
	ja	$LN7@DrawRefere
	mov	ecx, DWORD PTR tv82[ebp]
	movzx	edx, BYTE PTR $LN32@DrawRefere[ecx]
	jmp	DWORD PTR $LN33@DrawRefere[edx*4]
$LN19@DrawRefere:

; 3064 : 	{
; 3065 : 			case FireControlComputer::AirGroundBomb:
; 3066 : 			case FireControlComputer::AirGroundRocket: // MLR 4/3/2004 - 
; 3067 : 			case FireControlComputer::AirGroundLaser:
; 3068 : 			case FireControlComputer::AirGroundCamera:
; 3069 : 					if (FCC->inRange) 

	mov	eax, DWORD PTR _FCC$[ebp]
	cmp	DWORD PTR [eax+216], 0
	je	SHORT $LN18@DrawRefere

; 3070 : 					{
; 3071 : 						offset = FCC->airGroundBearing / RefAngle;

	mov	ecx, DWORD PTR _FCC$[ebp]
	movss	xmm0, DWORD PTR [ecx+336]
	divss	xmm0, DWORD PTR _RefAngle$[ebp]
	movss	DWORD PTR _offset$[ebp], xmm0
$LN18@DrawRefere:

; 3072 : 					}
; 3073 : 					break;

	jmp	$LN20@DrawRefere
$LN17@DrawRefere:

; 3074 : 			case FireControlComputer::Dogfight:
; 3075 : 			case FireControlComputer::MissileOverride:
; 3076 : 			case FireControlComputer::AAGun:
; 3077 : 					//case (FireControlComputer::Gun && FCC->GetSubMode() != FireControlComputer::STRAF):
; 3078 : 					{
; 3079 : 						if(lockedTarget && lockedTarget->BaseData() && !FCC->IsAGMasterMode())

	mov	edx, DWORD PTR _this$[ebp]
	cmp	DWORD PTR [edx+48], 0
	je	$LN8@DrawRefere
	mov	eax, DWORD PTR _this$[ebp]
	mov	ecx, DWORD PTR [eax+48]
	call	?BaseData@SimObjectType@@QAEPAVFalconEntity@@XZ ; SimObjectType::BaseData
	test	eax, eax
	je	$LN8@DrawRefere
	mov	ecx, DWORD PTR _FCC$[ebp]
	call	?IsAGMasterMode@FireControlComputer@@QAEHXZ ; FireControlComputer::IsAGMasterMode
	test	eax, eax
	jne	$LN8@DrawRefere

; 3080 : 						{ 
; 3081 : 							float   dx = 0.0F, dy = 0.0F, xPos = 0.0F, tgtx = 0.0F, yPos = 0.0F;

	movss	xmm0, DWORD PTR __real@00000000
	movss	DWORD PTR _dx$3[ebp], xmm0
	movss	xmm0, DWORD PTR __real@00000000
	movss	DWORD PTR _dy$2[ebp], xmm0
	movss	xmm0, DWORD PTR __real@00000000
	movss	DWORD PTR _xPos$6[ebp], xmm0
	movss	xmm0, DWORD PTR __real@00000000
	movss	DWORD PTR _tgtx$4[ebp], xmm0
	movss	xmm0, DWORD PTR __real@00000000
	movss	DWORD PTR _yPos$1[ebp], xmm0

; 3082 : 							vector  collPoint;
; 3083 : 							TargetToXY(lockedTargetData, 0, tdisplayRange, &tgtx, &yPos);

	lea	ecx, DWORD PTR _yPos$1[ebp]
	push	ecx
	lea	edx, DWORD PTR _tgtx$4[ebp]
	push	edx
	mov	eax, DWORD PTR _this$[ebp]
	push	ecx
	movss	xmm0, DWORD PTR [eax+264]
	movss	DWORD PTR [esp], xmm0
	push	0
	mov	ecx, DWORD PTR _this$[ebp]
	mov	edx, DWORD PTR [ecx+176]
	push	edx
	mov	ecx, DWORD PTR _this$[ebp]
	call	?TargetToXY@RadarDopplerClass@@QAEXPAVSimObjectLocalData@@HMPAM1@Z ; RadarDopplerClass::TargetToXY

; 3084 : 							if (FindCollisionPoint ((SimBaseClass*)lockedTarget->BaseData(), platform, &collPoint))

	push	ecx
	movss	xmm0, DWORD PTR __real@00000000
	movss	DWORD PTR [esp], xmm0
	lea	eax, DWORD PTR _collPoint$7[ebp]
	push	eax
	mov	ecx, DWORD PTR _this$[ebp]
	mov	edx, DWORD PTR [ecx+32]
	push	edx
	mov	eax, DWORD PTR _this$[ebp]
	mov	ecx, DWORD PTR [eax+48]
	call	?BaseData@SimObjectType@@QAEPAVFalconEntity@@XZ ; SimObjectType::BaseData
	push	eax
	call	?FindCollisionPoint@@YAHPAVSimBaseClass@@0PAUvector@@M@Z ; FindCollisionPoint
	add	esp, 16					; 00000010H
	test	eax, eax
	je	$LN12@DrawRefere

; 3085 : 							{// me123 status ok. Looks like collision point is returned in World Coords.  We need to
; 3086 : 								// make it relative to ownship so subtract out ownship pos 1st....
; 3087 : 
; 3088 : 								//me123 addet next three lines
; 3089 : 								collPoint.x -= platform->XPos();

	mov	ecx, DWORD PTR _this$[ebp]
	mov	ecx, DWORD PTR [ecx+32]
	call	?XPos@VuEntity@@QBEMXZ			; VuEntity::XPos
	fstp	DWORD PTR tv471[ebp]
	movss	xmm0, DWORD PTR _collPoint$7[ebp]
	subss	xmm0, DWORD PTR tv471[ebp]
	movss	DWORD PTR _collPoint$7[ebp], xmm0

; 3090 : 								collPoint.y -= platform->YPos();

	mov	edx, DWORD PTR _this$[ebp]
	mov	ecx, DWORD PTR [edx+32]
	call	?YPos@VuEntity@@QBEMXZ			; VuEntity::YPos
	fstp	DWORD PTR tv477[ebp]
	movss	xmm0, DWORD PTR _collPoint$7[ebp+4]
	subss	xmm0, DWORD PTR tv477[ebp]
	movss	DWORD PTR _collPoint$7[ebp+4], xmm0

; 3091 : 								collPoint.z -= platform->ZPos();

	mov	eax, DWORD PTR _this$[ebp]
	mov	ecx, DWORD PTR [eax+32]
	call	?ZPos@VuEntity@@QBEMXZ			; VuEntity::ZPos
	fstp	DWORD PTR tv483[ebp]
	movss	xmm0, DWORD PTR _collPoint$7[ebp+8]
	subss	xmm0, DWORD PTR tv483[ebp]
	movss	DWORD PTR _collPoint$7[ebp+8], xmm0

; 3092 : 
; 3093 : 								dx = collPoint.x;

	movss	xmm0, DWORD PTR _collPoint$7[ebp]
	movss	DWORD PTR _dx$3[ebp], xmm0

; 3094 : 								dy = collPoint.y;

	movss	xmm0, DWORD PTR _collPoint$7[ebp+4]
	movss	DWORD PTR _dy$2[ebp], xmm0

; 3095 : 
; 3096 : 
; 3097 : 
; 3098 : 								xPos = (float)atan2 (dy,dx) - platform->Yaw();

	cvtss2sd xmm0, DWORD PTR _dx$3[ebp]
	sub	esp, 8
	movsd	QWORD PTR [esp], xmm0
	cvtss2sd xmm0, DWORD PTR _dy$2[ebp]
	sub	esp, 8
	movsd	QWORD PTR [esp], xmm0
	call	?checked_atan2@@YANNN@Z			; checked_atan2
	add	esp, 16					; 00000010H
	fstp	QWORD PTR tv492[ebp]
	movsd	xmm0, QWORD PTR tv492[ebp]
	cvtsd2ss xmm0, xmm0
	mov	ecx, DWORD PTR _this$[ebp]
	mov	ecx, DWORD PTR [ecx+32]
	movss	DWORD PTR tv583[ebp], xmm0
	call	?Yaw@VuEntity@@QBEMXZ			; VuEntity::Yaw
	fstp	DWORD PTR tv497[ebp]
	movss	xmm0, DWORD PTR tv583[ebp]
	subss	xmm0, DWORD PTR tv497[ebp]
	movss	DWORD PTR _xPos$6[ebp], xmm0

; 3099 : 
; 3100 : 								if (xPos > (180.0F * DTR))

	movss	xmm0, DWORD PTR _xPos$6[ebp]
	comiss	xmm0, DWORD PTR __real@40490fd9
	jbe	SHORT $LN14@DrawRefere

; 3101 : 									xPos -= 360.0F * DTR;

	movss	xmm0, DWORD PTR _xPos$6[ebp]
	subss	xmm0, DWORD PTR __real@40c90fd9
	movss	DWORD PTR _xPos$6[ebp], xmm0
	jmp	SHORT $LN12@DrawRefere
$LN14@DrawRefere:

; 3102 : 								else if (xPos < (-180.0F * DTR))

	movss	xmm0, DWORD PTR __real@c0490fd9
	comiss	xmm0, DWORD PTR _xPos$6[ebp]
	jbe	SHORT $LN12@DrawRefere

; 3103 : 									xPos += 360.0F * DTR;

	movss	xmm0, DWORD PTR _xPos$6[ebp]
	addss	xmm0, DWORD PTR __real@40c90fd9
	movss	DWORD PTR _xPos$6[ebp], xmm0
$LN12@DrawRefere:

; 3104 : 							}
; 3105 : 
; 3106 : 							/*---------------------------*/
; 3107 : 							/* steering point screen x,y */
; 3108 : 							/*---------------------------*/
; 3109 : 							if (fabs(xPos) < (60.0F * DTR))

	push	ecx
	movss	xmm0, DWORD PTR _xPos$6[ebp]
	movss	DWORD PTR [esp], xmm0
	call	?fabs@@YAMM@Z				; fabs
	add	esp, 4
	fstp	DWORD PTR tv507[ebp]
	movss	xmm0, DWORD PTR __real@3f860a91
	comiss	xmm0, DWORD PTR tv507[ebp]
	jbe	$LN11@DrawRefere

; 3110 : 							{
; 3111 : 								xPos = xPos / (60.0F * DTR);

	movss	xmm0, DWORD PTR _xPos$6[ebp]
	divss	xmm0, DWORD PTR __real@3f860a91
	movss	DWORD PTR _xPos$6[ebp], xmm0

; 3112 : 								xPos += tgtx;

	movss	xmm0, DWORD PTR _xPos$6[ebp]
	addss	xmm0, DWORD PTR _tgtx$4[ebp]
	movss	DWORD PTR _xPos$6[ebp], xmm0

; 3113 : 
; 3114 : 								offset = xPos;

	movss	xmm0, DWORD PTR _xPos$6[ebp]
	movss	DWORD PTR _offset$[ebp], xmm0

; 3115 : 								offset -= TargetAz (platform, lockedTarget->BaseData()->XPos(),
; 3116 : 												lockedTarget->BaseData()->YPos());

	mov	edx, DWORD PTR _this$[ebp]
	mov	ecx, DWORD PTR [edx+48]
	call	?BaseData@SimObjectType@@QAEPAVFalconEntity@@XZ ; SimObjectType::BaseData
	mov	ecx, eax
	call	?YPos@VuEntity@@QBEMXZ			; VuEntity::YPos
	push	ecx
	fstp	DWORD PTR [esp]
	mov	eax, DWORD PTR _this$[ebp]
	mov	ecx, DWORD PTR [eax+48]
	call	?BaseData@SimObjectType@@QAEPAVFalconEntity@@XZ ; SimObjectType::BaseData
	mov	ecx, eax
	call	?XPos@VuEntity@@QBEMXZ			; VuEntity::XPos
	push	ecx
	fstp	DWORD PTR [esp]
	mov	ecx, DWORD PTR _this$[ebp]
	mov	edx, DWORD PTR [ecx+32]
	push	edx
	call	?TargetAz@@YAMPAVFalconEntity@@MM@Z	; TargetAz
	add	esp, 12					; 0000000cH
	fstp	DWORD PTR tv529[ebp]
	movss	xmm0, DWORD PTR _offset$[ebp]
	subss	xmm0, DWORD PTR tv529[ebp]
	movss	DWORD PTR _offset$[ebp], xmm0
	jmp	SHORT $LN8@DrawRefere
$LN11@DrawRefere:

; 3117 : 							}
; 3118 : 							else if(xPos > (60 * DTR))

	movss	xmm0, DWORD PTR _xPos$6[ebp]
	comiss	xmm0, DWORD PTR __real@3f860a91
	jbe	SHORT $LN9@DrawRefere

; 3119 : 								offset = 1;

	movss	xmm0, DWORD PTR __real@3f800000
	movss	DWORD PTR _offset$[ebp], xmm0

; 3120 : 							else

	jmp	SHORT $LN8@DrawRefere
$LN9@DrawRefere:

; 3121 : 								offset = -1;

	movss	xmm0, DWORD PTR __real@bf800000
	movss	DWORD PTR _offset$[ebp], xmm0
$LN8@DrawRefere:

; 3122 : 						}
; 3123 : 					}
; 3124 : 					break;

	jmp	SHORT $LN20@DrawRefere
$LN7@DrawRefere:

; 3125 : 			case FireControlComputer::Nav:
; 3126 : 			case FireControlComputer::ILS:
; 3127 : 			default:	//Catch all the other stuff
; 3128 : 					if (TheHud->waypointValid) 

	mov	eax, DWORD PTR ?TheHud@@3PAVHudClass@@A	; TheHud
	movsx	ecx, BYTE PTR [eax+4952]
	test	ecx, ecx
	je	SHORT $LN6@DrawRefere

; 3129 : 					{ 
; 3130 : 						offset = TheHud->waypointBearing / RefAngle;

	mov	edx, DWORD PTR ?TheHud@@3PAVHudClass@@A	; TheHud
	movss	xmm0, DWORD PTR [edx+4940]
	divss	xmm0, DWORD PTR _RefAngle$[ebp]
	movss	DWORD PTR _offset$[ebp], xmm0
$LN6@DrawRefere:
$LN20@DrawRefere:

; 3131 : 					} 
; 3132 : 					break;
; 3133 : 	}
; 3134 : 
; 3135 : 	offset = min ( max (offset, -1.0F), 1.0F);

	movss	xmm0, DWORD PTR _offset$[ebp]
	comiss	xmm0, DWORD PTR __real@bf800000
	jbe	SHORT $LN26@DrawRefere
	movss	xmm0, DWORD PTR _offset$[ebp]
	movss	DWORD PTR tv313[ebp], xmm0
	jmp	SHORT $LN27@DrawRefere
$LN26@DrawRefere:
	movss	xmm0, DWORD PTR __real@bf800000
	movss	DWORD PTR tv313[ebp], xmm0
$LN27@DrawRefere:
	movss	xmm0, DWORD PTR __real@3f800000
	comiss	xmm0, DWORD PTR tv313[ebp]
	jbe	SHORT $LN30@DrawRefere
	movss	xmm0, DWORD PTR _offset$[ebp]
	comiss	xmm0, DWORD PTR __real@bf800000
	jbe	SHORT $LN28@DrawRefere
	movss	xmm0, DWORD PTR _offset$[ebp]
	movss	DWORD PTR tv316[ebp], xmm0
	jmp	SHORT $LN29@DrawRefere
$LN28@DrawRefere:
	movss	xmm0, DWORD PTR __real@bf800000
	movss	DWORD PTR tv316[ebp], xmm0
$LN29@DrawRefere:
	movss	xmm0, DWORD PTR tv316[ebp]
	movss	DWORD PTR tv317[ebp], xmm0
	jmp	SHORT $LN31@DrawRefere
$LN30@DrawRefere:
	movss	xmm0, DWORD PTR __real@3f800000
	movss	DWORD PTR tv317[ebp], xmm0
$LN31@DrawRefere:
	movss	xmm0, DWORD PTR tv317[ebp]
	movss	DWORD PTR _offset$[ebp], xmm0

; 3136 : 	for (int i = 0; i < sizeof(deltax)/sizeof(deltax[0]); i++) 

	mov	DWORD PTR _i$5[ebp], 0
	jmp	SHORT $LN5@DrawRefere
$LN4@DrawRefere:
	mov	eax, DWORD PTR _i$5[ebp]
	add	eax, 1
	mov	DWORD PTR _i$5[ebp], eax
$LN5@DrawRefere:
	cmp	DWORD PTR _i$5[ebp], 7
	jae	SHORT $LN3@DrawRefere

; 3137 : 	{
; 3138 : 		display->Line(x, y, x+deltax[i], y+deltay[i]);

	mov	ecx, DWORD PTR _i$5[ebp]
	movss	xmm0, DWORD PTR _y$[ebp]
	addss	xmm0, DWORD PTR _deltay$[ebp+ecx*4]
	push	ecx
	movss	DWORD PTR [esp], xmm0
	mov	edx, DWORD PTR _i$5[ebp]
	movss	xmm0, DWORD PTR _x$[ebp]
	addss	xmm0, DWORD PTR _deltax$[ebp+edx*4]
	push	ecx
	movss	DWORD PTR [esp], xmm0
	push	ecx
	movss	xmm0, DWORD PTR _y$[ebp]
	movss	DWORD PTR [esp], xmm0
	push	ecx
	movss	xmm0, DWORD PTR _x$[ebp]
	movss	DWORD PTR [esp], xmm0
	mov	eax, DWORD PTR _display$[ebp]
	mov	edx, DWORD PTR [eax]
	mov	ecx, DWORD PTR _display$[ebp]
	mov	eax, DWORD PTR [edx+32]
	call	eax

; 3139 : 		x += deltax[i]; y += deltay[i];

	mov	ecx, DWORD PTR _i$5[ebp]
	movss	xmm0, DWORD PTR _x$[ebp]
	addss	xmm0, DWORD PTR _deltax$[ebp+ecx*4]
	movss	DWORD PTR _x$[ebp], xmm0
	mov	edx, DWORD PTR _i$5[ebp]
	movss	xmm0, DWORD PTR _y$[ebp]
	addss	xmm0, DWORD PTR _deltay$[ebp+edx*4]
	movss	DWORD PTR _y$[ebp], xmm0

; 3140 : 	}

	jmp	$LN4@DrawRefere
$LN3@DrawRefere:

; 3141 : 	float xlen = (x - xref);

	movss	xmm0, DWORD PTR _x$[ebp]
	subss	xmm0, DWORD PTR _xref$[ebp]
	movss	DWORD PTR _xlen$[ebp], xmm0

; 3142 : 	x = xref + xlen/2 + offset * xlen/2.0f;

	movss	xmm0, DWORD PTR _xlen$[ebp]
	divss	xmm0, DWORD PTR __real@40000000
	addss	xmm0, DWORD PTR _xref$[ebp]
	movss	xmm1, DWORD PTR _offset$[ebp]
	mulss	xmm1, DWORD PTR _xlen$[ebp]
	divss	xmm1, DWORD PTR __real@40000000
	addss	xmm0, xmm1
	movss	DWORD PTR _x$[ebp], xmm0

; 3143 : 	if(g_bINS)

	movzx	eax, BYTE PTR ?g_bINS@@3_NA		; g_bINS
	test	eax, eax
	je	SHORT $LN1@DrawRefere

; 3144 : 	{
; 3145 : 		if(SimDriver.GetPlayerAircraft() && !SimDriver.GetPlayerAircraft()->INSState(AircraftClass::INS_HSD_STUFF))

	mov	ecx, OFFSET ?SimDriver@@3VSimulationDriver@@A ; SimDriver
	call	?GetPlayerAircraft@SimulationDriver@@QBEPAVAircraftClass@@XZ ; SimulationDriver::GetPlayerAircraft
	test	eax, eax
	je	SHORT $LN1@DrawRefere
	push	4096					; 00001000H
	mov	ecx, OFFSET ?SimDriver@@3VSimulationDriver@@A ; SimDriver
	call	?GetPlayerAircraft@SimulationDriver@@QBEPAVAircraftClass@@XZ ; SimulationDriver::GetPlayerAircraft
	mov	ecx, eax
	call	?INSState@AircraftClass@@QAEHW4INSAlignFlags@1@@Z ; AircraftClass::INSState
	test	eax, eax
	jne	SHORT $LN1@DrawRefere

; 3146 : 			return;

	jmp	SHORT $LN24@DrawRefere
$LN1@DrawRefere:

; 3147 : 	}
; 3148 : 	display->Line(x, yref + 0.086f, x, yref - 0.13f);

	movss	xmm0, DWORD PTR _yref$[ebp]
	subss	xmm0, DWORD PTR __real@3e051eb8
	push	ecx
	movss	DWORD PTR [esp], xmm0
	push	ecx
	movss	xmm0, DWORD PTR _x$[ebp]
	movss	DWORD PTR [esp], xmm0
	movss	xmm0, DWORD PTR _yref$[ebp]
	addss	xmm0, DWORD PTR __real@3db020c5
	push	ecx
	movss	DWORD PTR [esp], xmm0
	push	ecx
	movss	xmm0, DWORD PTR _x$[ebp]
	movss	DWORD PTR [esp], xmm0
	mov	ecx, DWORD PTR _display$[ebp]
	mov	edx, DWORD PTR [ecx]
	mov	ecx, DWORD PTR _display$[ebp]
	mov	eax, DWORD PTR [edx+32]
	call	eax
$LN24@DrawRefere:

; 3149 : }

	mov	ecx, DWORD PTR __$ArrayPad$[ebp]
	xor	ecx, ebp
	call	@__security_check_cookie@4
	mov	esp, ebp
	pop	ebp
	ret	4
	npad	1
$LN33@DrawRefere:
	DD	$LN17@DrawRefere
	DD	$LN19@DrawRefere
	DD	$LN7@DrawRefere
$LN32@DrawRefere:
	DB	0
	DB	2
	DB	2
	DB	2
	DB	2
	DB	1
	DB	2
	DB	2
	DB	1
	DB	0
	DB	0
	DB	1
	DB	2
	DB	1
?DrawReference@RadarDopplerClass@@IAEXPAVVirtualDisplay@@@Z ENDP ; RadarDopplerClass::DrawReference
_TEXT	ENDS
; Function compile flags: /Odtp
; File c:\users\zhitao li\documents\visual studio 2012\projects\freefalcon\sim\radar\bscope.cpp
_TEXT	SEGMENT
_cX$ = -20						; size = 4
_cY$ = -16						; size = 4
tv328 = -12						; size = 4
_FCC$ = -8						; size = 4
_this$ = -4						; size = 4
?AGRangingDisplay@RadarDopplerClass@@IAEXXZ PROC	; RadarDopplerClass::AGRangingDisplay
; _this$ = ecx

; 2976 : {

	push	ebp
	mov	ebp, esp
	sub	esp, 20					; 00000014H
	mov	DWORD PTR _this$[ebp], ecx

; 2977 : 	//if we have a lock, we loose it here
; 2978 : 	DropGMTrack();

	mov	ecx, DWORD PTR _this$[ebp]
	call	?DropGMTrack@RadarDopplerClass@@IAEXXZ	; RadarDopplerClass::DropGMTrack

; 2979 : 	float cX, cY;
; 2980 : 
; 2981 : 	GetCursorPosition (&cX, &cY);

	lea	eax, DWORD PTR _cY$[ebp]
	push	eax
	lea	ecx, DWORD PTR _cX$[ebp]
	push	ecx
	mov	edx, DWORD PTR _this$[ebp]
	mov	eax, DWORD PTR [edx]
	mov	ecx, DWORD PTR _this$[ebp]
	mov	edx, DWORD PTR [eax+204]
	call	edx

; 2982 : 
; 2983 : 	FireControlComputer* FCC = ((SimVehicleClass*)platform)->GetFCC();

	mov	eax, DWORD PTR _this$[ebp]
	mov	ecx, DWORD PTR [eax+32]
	mov	edx, DWORD PTR _this$[ebp]
	mov	eax, DWORD PTR [ecx]
	mov	ecx, DWORD PTR [edx+32]
	mov	edx, DWORD PTR [eax+460]
	call	edx
	mov	DWORD PTR _FCC$[ebp], eax

; 2984 : 	if(!FCC)

	cmp	DWORD PTR _FCC$[ebp], 0
	jne	SHORT $LN7@AGRangingD

; 2985 : 		return;

	jmp	$LN8@AGRangingD
$LN7@AGRangingD:

; 2986 : 	display->SetColor(GetMfdColor(MFD_LABELS));

	push	0
	mov	ecx, DWORD PTR _this$[ebp]
	call	?GetMfdColor@DrawableClass@@QAEIW4MfdColor@@@Z ; DrawableClass::GetMfdColor
	push	eax
	mov	eax, DWORD PTR _this$[ebp]
	mov	ecx, DWORD PTR [eax+20]
	mov	edx, DWORD PTR _this$[ebp]
	mov	eax, DWORD PTR [ecx]
	mov	ecx, DWORD PTR [edx+20]
	mov	edx, DWORD PTR [eax+92]
	call	edx

; 2987 : 	LabelButton(0, "AGR");

	push	0
	push	0
	push	OFFSET ??_C@_03ELLLCI@AGR?$AA@
	push	0
	mov	ecx, DWORD PTR _this$[ebp]
	call	?LabelButton@DrawableClass@@QAEXHPAD0H@Z ; DrawableClass::LabelButton

; 2988 : 	if(!IsSOI())

	mov	ecx, DWORD PTR _this$[ebp]
	call	?IsSOI@DrawableClass@@QAEHXZ		; DrawableClass::IsSOI
	test	eax, eax
	jne	SHORT $LN6@AGRangingD

; 2989 : 		display->TextCenter(0.0F, 0.4F, "NOT SOI");

	push	0
	push	OFFSET ??_C@_07MBJCAOMB@NOT?5SOI?$AA@
	push	ecx
	movss	xmm0, DWORD PTR __real@3ecccccd
	movss	DWORD PTR [esp], xmm0
	push	ecx
	movss	xmm0, DWORD PTR __real@00000000
	movss	DWORD PTR [esp], xmm0
	mov	eax, DWORD PTR _this$[ebp]
	mov	ecx, DWORD PTR [eax+20]
	mov	edx, DWORD PTR _this$[ebp]
	mov	eax, DWORD PTR [ecx]
	mov	ecx, DWORD PTR [edx+20]
	mov	edx, DWORD PTR [eax+72]
	call	edx

; 2990 : 	else

	jmp	SHORT $LN5@AGRangingD
$LN6@AGRangingD:

; 2991 : 		DrawBorder();

	mov	ecx, DWORD PTR _this$[ebp]
	call	?DrawBorder@DrawableClass@@QAEXXZ	; DrawableClass::DrawBorder
$LN5@AGRangingD:

; 2992 : 	DrawWaterline();

	mov	ecx, DWORD PTR _this$[ebp]
	call	?DrawWaterline@RadarDopplerClass@@IAEXXZ ; RadarDopplerClass::DrawWaterline

; 2993 : 	display->SetColor(GetMfdColor (MFD_ATTACK_STEERING_CUE));

	push	1
	mov	ecx, DWORD PTR _this$[ebp]
	call	?GetMfdColor@DrawableClass@@QAEIW4MfdColor@@@Z ; DrawableClass::GetMfdColor
	push	eax
	mov	eax, DWORD PTR _this$[ebp]
	mov	ecx, DWORD PTR [eax+20]
	mov	edx, DWORD PTR _this$[ebp]
	mov	eax, DWORD PTR [ecx]
	mov	ecx, DWORD PTR [edx+20]
	mov	edx, DWORD PTR [eax+92]
	call	edx

; 2994 : 	display->AdjustOriginInViewport(FCC->groundPipperAz, FCC->groundPipperEl);

	mov	eax, DWORD PTR _FCC$[ebp]
	push	ecx
	movss	xmm0, DWORD PTR [eax+392]
	movss	DWORD PTR [esp], xmm0
	mov	ecx, DWORD PTR _FCC$[ebp]
	push	ecx
	movss	xmm0, DWORD PTR [ecx+388]
	movss	DWORD PTR [esp], xmm0
	mov	edx, DWORD PTR _this$[ebp]
	mov	ecx, DWORD PTR [edx+20]
	call	?AdjustOriginInViewport@VirtualDisplay@@QAEXMM@Z ; VirtualDisplay::AdjustOriginInViewport

; 2995 : 	// draw maltese cross
; 2996 : 	static const float MaxPos = 0.045f;
; 2997 : 	static const float MinPos = 0.015f;
; 2998 : 	static const float OverLap = 0.0075f;
; 2999 : 	display->Tri(-MinPos, -MaxPos,  MinPos, -MaxPos, 0, OverLap); // triangle one down

	push	ecx
	movss	xmm0, DWORD PTR ?OverLap@?6??AGRangingDisplay@RadarDopplerClass@@IAEXXZ@4MB
	movss	DWORD PTR [esp], xmm0
	push	ecx
	movss	xmm0, DWORD PTR __real@00000000
	movss	DWORD PTR [esp], xmm0
	movss	xmm0, DWORD PTR ?MaxPos@?6??AGRangingDisplay@RadarDopplerClass@@IAEXXZ@4MB
	xorps	xmm0, DWORD PTR __xmm@80000000800000008000000080000000
	push	ecx
	movss	DWORD PTR [esp], xmm0
	push	ecx
	movss	xmm0, DWORD PTR ?MinPos@?6??AGRangingDisplay@RadarDopplerClass@@IAEXXZ@4MB
	movss	DWORD PTR [esp], xmm0
	movss	xmm0, DWORD PTR ?MaxPos@?6??AGRangingDisplay@RadarDopplerClass@@IAEXXZ@4MB
	xorps	xmm0, DWORD PTR __xmm@80000000800000008000000080000000
	push	ecx
	movss	DWORD PTR [esp], xmm0
	movss	xmm0, DWORD PTR ?MinPos@?6??AGRangingDisplay@RadarDopplerClass@@IAEXXZ@4MB
	xorps	xmm0, DWORD PTR __xmm@80000000800000008000000080000000
	push	ecx
	movss	DWORD PTR [esp], xmm0
	mov	eax, DWORD PTR _this$[ebp]
	mov	ecx, DWORD PTR [eax+20]
	mov	edx, DWORD PTR _this$[ebp]
	mov	eax, DWORD PTR [ecx]
	mov	ecx, DWORD PTR [edx+20]
	mov	edx, DWORD PTR [eax+36]
	call	edx

; 3000 : 	display->Tri(-MinPos,  MaxPos,  MinPos,  MaxPos, 0, -OverLap); // triangle two up

	movss	xmm0, DWORD PTR ?OverLap@?6??AGRangingDisplay@RadarDopplerClass@@IAEXXZ@4MB
	xorps	xmm0, DWORD PTR __xmm@80000000800000008000000080000000
	push	ecx
	movss	DWORD PTR [esp], xmm0
	push	ecx
	movss	xmm0, DWORD PTR __real@00000000
	movss	DWORD PTR [esp], xmm0
	push	ecx
	movss	xmm0, DWORD PTR ?MaxPos@?6??AGRangingDisplay@RadarDopplerClass@@IAEXXZ@4MB
	movss	DWORD PTR [esp], xmm0
	push	ecx
	movss	xmm0, DWORD PTR ?MinPos@?6??AGRangingDisplay@RadarDopplerClass@@IAEXXZ@4MB
	movss	DWORD PTR [esp], xmm0
	push	ecx
	movss	xmm0, DWORD PTR ?MaxPos@?6??AGRangingDisplay@RadarDopplerClass@@IAEXXZ@4MB
	movss	DWORD PTR [esp], xmm0
	movss	xmm0, DWORD PTR ?MinPos@?6??AGRangingDisplay@RadarDopplerClass@@IAEXXZ@4MB
	xorps	xmm0, DWORD PTR __xmm@80000000800000008000000080000000
	push	ecx
	movss	DWORD PTR [esp], xmm0
	mov	eax, DWORD PTR _this$[ebp]
	mov	ecx, DWORD PTR [eax+20]
	mov	edx, DWORD PTR _this$[ebp]
	mov	eax, DWORD PTR [ecx]
	mov	ecx, DWORD PTR [edx+20]
	mov	edx, DWORD PTR [eax+36]
	call	edx

; 3001 : 	display->Tri(-MaxPos, -MinPos, -MaxPos,  MinPos, OverLap, 0); // triangle three left

	push	ecx
	movss	xmm0, DWORD PTR __real@00000000
	movss	DWORD PTR [esp], xmm0
	push	ecx
	movss	xmm0, DWORD PTR ?OverLap@?6??AGRangingDisplay@RadarDopplerClass@@IAEXXZ@4MB
	movss	DWORD PTR [esp], xmm0
	push	ecx
	movss	xmm0, DWORD PTR ?MinPos@?6??AGRangingDisplay@RadarDopplerClass@@IAEXXZ@4MB
	movss	DWORD PTR [esp], xmm0
	movss	xmm0, DWORD PTR ?MaxPos@?6??AGRangingDisplay@RadarDopplerClass@@IAEXXZ@4MB
	xorps	xmm0, DWORD PTR __xmm@80000000800000008000000080000000
	push	ecx
	movss	DWORD PTR [esp], xmm0
	movss	xmm0, DWORD PTR ?MinPos@?6??AGRangingDisplay@RadarDopplerClass@@IAEXXZ@4MB
	xorps	xmm0, DWORD PTR __xmm@80000000800000008000000080000000
	push	ecx
	movss	DWORD PTR [esp], xmm0
	movss	xmm0, DWORD PTR ?MaxPos@?6??AGRangingDisplay@RadarDopplerClass@@IAEXXZ@4MB
	xorps	xmm0, DWORD PTR __xmm@80000000800000008000000080000000
	push	ecx
	movss	DWORD PTR [esp], xmm0
	mov	eax, DWORD PTR _this$[ebp]
	mov	ecx, DWORD PTR [eax+20]
	mov	edx, DWORD PTR _this$[ebp]
	mov	eax, DWORD PTR [ecx]
	mov	ecx, DWORD PTR [edx+20]
	mov	edx, DWORD PTR [eax+36]
	call	edx

; 3002 : 	display->Tri( MaxPos, -MinPos,  MaxPos,  MinPos, -OverLap, 0); // triangle four right

	push	ecx
	movss	xmm0, DWORD PTR __real@00000000
	movss	DWORD PTR [esp], xmm0
	movss	xmm0, DWORD PTR ?OverLap@?6??AGRangingDisplay@RadarDopplerClass@@IAEXXZ@4MB
	xorps	xmm0, DWORD PTR __xmm@80000000800000008000000080000000
	push	ecx
	movss	DWORD PTR [esp], xmm0
	push	ecx
	movss	xmm0, DWORD PTR ?MinPos@?6??AGRangingDisplay@RadarDopplerClass@@IAEXXZ@4MB
	movss	DWORD PTR [esp], xmm0
	push	ecx
	movss	xmm0, DWORD PTR ?MaxPos@?6??AGRangingDisplay@RadarDopplerClass@@IAEXXZ@4MB
	movss	DWORD PTR [esp], xmm0
	movss	xmm0, DWORD PTR ?MinPos@?6??AGRangingDisplay@RadarDopplerClass@@IAEXXZ@4MB
	xorps	xmm0, DWORD PTR __xmm@80000000800000008000000080000000
	push	ecx
	movss	DWORD PTR [esp], xmm0
	push	ecx
	movss	xmm0, DWORD PTR ?MaxPos@?6??AGRangingDisplay@RadarDopplerClass@@IAEXXZ@4MB
	movss	DWORD PTR [esp], xmm0
	mov	eax, DWORD PTR _this$[ebp]
	mov	ecx, DWORD PTR [eax+20]
	mov	edx, DWORD PTR _this$[ebp]
	mov	eax, DWORD PTR [ecx]
	mov	ecx, DWORD PTR [edx+20]
	mov	edx, DWORD PTR [eax+36]
	call	edx

; 3003 : 	display->AdjustOriginInViewport(-FCC->groundPipperAz, -FCC->groundPipperEl);

	mov	eax, DWORD PTR _FCC$[ebp]
	movss	xmm0, DWORD PTR [eax+392]
	xorps	xmm0, DWORD PTR __xmm@80000000800000008000000080000000
	push	ecx
	movss	DWORD PTR [esp], xmm0
	mov	ecx, DWORD PTR _FCC$[ebp]
	movss	xmm0, DWORD PTR [ecx+388]
	xorps	xmm0, DWORD PTR __xmm@80000000800000008000000080000000
	push	ecx
	movss	DWORD PTR [esp], xmm0
	mov	edx, DWORD PTR _this$[ebp]
	mov	ecx, DWORD PTR [edx+20]
	call	?AdjustOriginInViewport@VirtualDisplay@@QAEXMM@Z ; VirtualDisplay::AdjustOriginInViewport

; 3004 : 
; 3005 : 	display->SetColor(GetMfdColor(MFD_LABELS));

	push	0
	mov	ecx, DWORD PTR _this$[ebp]
	call	?GetMfdColor@DrawableClass@@QAEIW4MfdColor@@@Z ; DrawableClass::GetMfdColor
	push	eax
	mov	eax, DWORD PTR _this$[ebp]
	mov	ecx, DWORD PTR [eax+20]
	mov	edx, DWORD PTR _this$[ebp]
	mov	eax, DWORD PTR [ecx]
	mov	ecx, DWORD PTR [edx+20]
	mov	edx, DWORD PTR [eax+92]
	call	edx

; 3006 : 	LabelButton(3, "OVRD", NULL, !isEmitting);

	mov	eax, DWORD PTR _this$[ebp]
	cmp	DWORD PTR [eax+76], 0
	jne	SHORT $LN10@AGRangingD
	mov	DWORD PTR tv328[ebp], 1
	jmp	SHORT $LN11@AGRangingD
$LN10@AGRangingD:
	mov	DWORD PTR tv328[ebp], 0
$LN11@AGRangingD:
	mov	ecx, DWORD PTR tv328[ebp]
	push	ecx
	push	0
	push	OFFSET ??_C@_04PGDFOHNL@OVRD?$AA@
	push	3
	mov	ecx, DWORD PTR _this$[ebp]
	call	?LabelButton@DrawableClass@@QAEXHPAD0H@Z ; DrawableClass::LabelButton

; 3007 : 
; 3008 : 	LabelButton(4, "CNTL", NULL, IsSet(CtlMode));

	push	2097152					; 00200000H
	mov	ecx, DWORD PTR _this$[ebp]
	call	?IsSet@RadarDopplerClass@@QAEHH@Z	; RadarDopplerClass::IsSet
	push	eax
	push	0
	push	OFFSET ??_C@_04GKDMIDBA@CNTL?$AA@
	push	4
	mov	ecx, DWORD PTR _this$[ebp]
	call	?LabelButton@DrawableClass@@QAEXHPAD0H@Z ; DrawableClass::LabelButton

; 3009 : 
; 3010 : 	if (IsSet(MenuMode|CtlMode)) 

	push	3145728					; 00300000H
	mov	ecx, DWORD PTR _this$[ebp]
	call	?IsSet@RadarDopplerClass@@QAEHH@Z	; RadarDopplerClass::IsSet
	test	eax, eax
	je	SHORT $LN4@AGRangingD

; 3011 : 	{
; 3012 : 		MENUDisplay();

	mov	ecx, DWORD PTR _this$[ebp]
	call	?MENUDisplay@RadarDopplerClass@@IAEXXZ	; RadarDopplerClass::MENUDisplay

; 3013 : 		return;

	jmp	$LN8@AGRangingD
$LN4@AGRangingD:

; 3014 : 	}
; 3015 : 	LabelButton(5, "BARO");

	push	0
	push	0
	push	OFFSET ??_C@_04CAJPJFIH@BARO?$AA@
	push	5
	mov	ecx, DWORD PTR _this$[ebp]
	call	?LabelButton@DrawableClass@@QAEXHPAD0H@Z ; DrawableClass::LabelButton

; 3016 : 	LabelButton(8, "CZ");

	push	0
	push	0
	push	OFFSET ??_C@_02DCDGKAKK@CZ?$AA@
	push	8
	mov	ecx, DWORD PTR _this$[ebp]
	call	?LabelButton@DrawableClass@@QAEXHPAD0H@Z ; DrawableClass::LabelButton

; 3017 : 	LabelButton(19,"","10");

	push	0
	push	OFFSET ??_C@_02PKFBJPLJ@10?$AA@
	push	OFFSET ??_C@_00CNPNBAHC@?$AA@
	push	19					; 00000013H
	mov	ecx, DWORD PTR _this$[ebp]
	call	?LabelButton@DrawableClass@@QAEXHPAD0H@Z ; DrawableClass::LabelButton

; 3018 : 	LabelButton(17,"A","1");

	push	0
	push	OFFSET ??_C@_01HIHLOKLC@1?$AA@
	push	OFFSET ??_C@_01FHEEJDEE@A?$AA@
	push	17					; 00000011H
	mov	ecx, DWORD PTR _this$[ebp]
	call	?LabelButton@DrawableClass@@QAEXHPAD0H@Z ; DrawableClass::LabelButton

; 3019 : 	if (mode != OFF) 

	mov	edx, DWORD PTR _this$[ebp]
	cmp	DWORD PTR [edx+184], 0
	je	SHORT $LN3@AGRangingD

; 3020 : 	{
; 3021 : 		LabelButton(7, "SP");

	push	0
	push	0
	push	OFFSET ??_C@_02NEPPOLFA@SP?$AA@
	push	7
	mov	ecx, DWORD PTR _this$[ebp]
	call	?LabelButton@DrawableClass@@QAEXHPAD0H@Z ; DrawableClass::LabelButton

; 3022 : 		LabelButton(9, "STP");

	push	0
	push	0
	push	OFFSET ??_C@_03NGANFLJH@STP?$AA@
	push	9
	mov	ecx, DWORD PTR _this$[ebp]
	call	?LabelButton@DrawableClass@@QAEXHPAD0H@Z ; DrawableClass::LabelButton
$LN3@AGRangingD:

; 3023 : 	}
; 3024 : 
; 3025 : 	DrawAzElTicks();

	mov	ecx, DWORD PTR _this$[ebp]
	call	?DrawAzElTicks@RadarDopplerClass@@IAEXXZ ; RadarDopplerClass::DrawAzElTicks

; 3026 : 	DrawScanMarkers();

	mov	ecx, DWORD PTR _this$[ebp]
	call	?DrawScanMarkers@RadarDopplerClass@@IAEXXZ ; RadarDopplerClass::DrawScanMarkers

; 3027 : 	display->SetColor(GetMfdColor(MFD_LABELS));

	push	0
	mov	ecx, DWORD PTR _this$[ebp]
	call	?GetMfdColor@DrawableClass@@QAEIW4MfdColor@@@Z ; DrawableClass::GetMfdColor
	push	eax
	mov	eax, DWORD PTR _this$[ebp]
	mov	ecx, DWORD PTR [eax+20]
	mov	edx, DWORD PTR _this$[ebp]
	mov	eax, DWORD PTR [ecx]
	mov	ecx, DWORD PTR [edx+20]
	mov	edx, DWORD PTR [eax+92]
	call	edx

; 3028 : 	AABottomRow ();

	mov	ecx, DWORD PTR _this$[ebp]
	call	?AABottomRow@RadarDopplerClass@@IAEXXZ	; RadarDopplerClass::AABottomRow

; 3029 : 	scanDir = ScanNone;

	mov	eax, DWORD PTR _this$[ebp]
	movss	xmm0, DWORD PTR __real@00000000
	movss	DWORD PTR [eax+252], xmm0

; 3030 : 	beamAz = FCC->groundPipperAz;

	mov	ecx, DWORD PTR _this$[ebp]
	mov	edx, DWORD PTR _FCC$[ebp]
	mov	eax, DWORD PTR [edx+388]
	mov	DWORD PTR [ecx+196], eax

; 3031 : 	beamEl = FCC->groundPipperEl;

	mov	ecx, DWORD PTR _this$[ebp]
	mov	edx, DWORD PTR _FCC$[ebp]
	mov	eax, DWORD PTR [edx+392]
	mov	DWORD PTR [ecx+200], eax

; 3032 : 
; 3033 : 	display->SetColor(GetMfdColor(MFD_BULLSEYE));

	push	4
	mov	ecx, DWORD PTR _this$[ebp]
	call	?GetMfdColor@DrawableClass@@QAEIW4MfdColor@@@Z ; DrawableClass::GetMfdColor
	push	eax
	mov	ecx, DWORD PTR _this$[ebp]
	mov	edx, DWORD PTR [ecx+20]
	mov	eax, DWORD PTR _this$[ebp]
	mov	edx, DWORD PTR [edx]
	mov	ecx, DWORD PTR [eax+20]
	mov	eax, DWORD PTR [edx+92]
	call	eax

; 3034 : 	if(OTWDriver.pCockpitManager && OTWDriver.pCockpitManager->mpIcp &&
; 3035 : 					OTWDriver.pCockpitManager->mpIcp->ShowBullseyeInfo)

	cmp	DWORD PTR ?OTWDriver@@3VOTWDriverClass@@A+33684, 0
	je	SHORT $LN2@AGRangingD
	mov	ecx, DWORD PTR ?OTWDriver@@3VOTWDriverClass@@A+33684
	cmp	DWORD PTR [ecx+688], 0
	je	SHORT $LN2@AGRangingD
	mov	edx, DWORD PTR ?OTWDriver@@3VOTWDriverClass@@A+33684
	mov	eax, DWORD PTR [edx+688]
	movzx	ecx, BYTE PTR [eax+300]
	test	ecx, ecx
	je	SHORT $LN2@AGRangingD

; 3036 : 		DrawBullseyeCircle(display, cX, cY);

	push	ecx
	movss	xmm0, DWORD PTR _cY$[ebp]
	movss	DWORD PTR [esp], xmm0
	push	ecx
	movss	xmm0, DWORD PTR _cX$[ebp]
	movss	DWORD PTR [esp], xmm0
	mov	edx, DWORD PTR _this$[ebp]
	mov	eax, DWORD PTR [edx+20]
	push	eax
	call	?DrawBullseyeCircle@@YAXPAVVirtualDisplay@@MM@Z ; DrawBullseyeCircle
	add	esp, 12					; 0000000cH

; 3037 : 	else

	jmp	SHORT $LN1@AGRangingD
$LN2@AGRangingD:

; 3038 : 		DrawReference(display);

	mov	ecx, DWORD PTR _this$[ebp]
	mov	edx, DWORD PTR [ecx+20]
	push	edx
	mov	ecx, DWORD PTR _this$[ebp]
	call	?DrawReference@RadarDopplerClass@@IAEXPAVVirtualDisplay@@@Z ; RadarDopplerClass::DrawReference
$LN1@AGRangingD:
$LN8@AGRangingD:

; 3039 : }

	mov	esp, ebp
	pop	ebp
	ret	0
?AGRangingDisplay@RadarDopplerClass@@IAEXXZ ENDP	; RadarDopplerClass::AGRangingDisplay
_TEXT	ENDS
; Function compile flags: /Odtp
; File c:\users\zhitao li\documents\visual studio 2012\projects\freefalcon\sim\radar\bscope.cpp
_TEXT	SEGMENT
_cX$ = -16						; size = 4
_cY$ = -12						; size = 4
tv94 = -8						; size = 4
_this$ = -4						; size = 4
?STBYDisplay@RadarDopplerClass@@IAEXXZ PROC		; RadarDopplerClass::STBYDisplay
; _this$ = ecx

; 501  : {

	push	ebp
	mov	ebp, esp
	sub	esp, 16					; 00000010H
	mov	DWORD PTR _this$[ebp], ecx

; 502  : 	float cX, cY;
; 503  : 	display->SetColor(GetMfdColor(MFD_LABELS));

	push	0
	mov	ecx, DWORD PTR _this$[ebp]
	call	?GetMfdColor@DrawableClass@@QAEIW4MfdColor@@@Z ; DrawableClass::GetMfdColor
	push	eax
	mov	eax, DWORD PTR _this$[ebp]
	mov	ecx, DWORD PTR [eax+20]
	mov	edx, DWORD PTR _this$[ebp]
	mov	eax, DWORD PTR [ecx]
	mov	ecx, DWORD PTR [edx+20]
	mov	edx, DWORD PTR [eax+92]
	call	edx

; 504  : 	if (g_bRealisticAvionics) 

	movzx	eax, BYTE PTR ?g_bRealisticAvionics@@3_NA ; g_bRealisticAvionics
	test	eax, eax
	je	$LN7@STBYDispla

; 505  : 	{
; 506  : 		LabelButton(0, mode == OFF ? "OFF" : "STBY");

	mov	ecx, DWORD PTR _this$[ebp]
	cmp	DWORD PTR [ecx+184], 0
	jne	SHORT $LN10@STBYDispla
	mov	DWORD PTR tv94[ebp], OFFSET ??_C@_03MPPIHBHJ@OFF?$AA@
	jmp	SHORT $LN11@STBYDispla
$LN10@STBYDispla:
	mov	DWORD PTR tv94[ebp], OFFSET ??_C@_04BKGGJKLP@STBY?$AA@
$LN11@STBYDispla:
	push	0
	push	0
	mov	edx, DWORD PTR tv94[ebp]
	push	edx
	push	0
	mov	ecx, DWORD PTR _this$[ebp]
	call	?LabelButton@DrawableClass@@QAEXHPAD0H@Z ; DrawableClass::LabelButton

; 507  : 		if (mode != OFF)

	mov	eax, DWORD PTR _this$[ebp]
	cmp	DWORD PTR [eax+184], 0
	je	SHORT $LN6@STBYDispla

; 508  : 		{
; 509  : 			//LabelButton(3, "OVRD", NULL, !isEmitting);
; 510  : 			LabelButton(3, "OVRD");

	push	0
	push	0
	push	OFFSET ??_C@_04PGDFOHNL@OVRD?$AA@
	push	3
	mov	ecx, DWORD PTR _this$[ebp]
	call	?LabelButton@DrawableClass@@QAEXHPAD0H@Z ; DrawableClass::LabelButton

; 511  : 			LabelButton(4, "CNTL", NULL, IsSet(CtlMode));

	push	2097152					; 00200000H
	mov	ecx, DWORD PTR _this$[ebp]
	call	?IsSet@RadarDopplerClass@@QAEHH@Z	; RadarDopplerClass::IsSet
	push	eax
	push	0
	push	OFFSET ??_C@_04GKDMIDBA@CNTL?$AA@
	push	4
	mov	ecx, DWORD PTR _this$[ebp]
	call	?LabelButton@DrawableClass@@QAEXHPAD0H@Z ; DrawableClass::LabelButton
$LN6@STBYDispla:

; 512  : 		}
; 513  : 		if (IsSet(MenuMode|CtlMode)) 

	push	3145728					; 00300000H
	mov	ecx, DWORD PTR _this$[ebp]
	call	?IsSet@RadarDopplerClass@@QAEHH@Z	; RadarDopplerClass::IsSet
	test	eax, eax
	je	SHORT $LN5@STBYDispla

; 514  : 		{
; 515  : 			MENUDisplay();

	mov	ecx, DWORD PTR _this$[ebp]
	call	?MENUDisplay@RadarDopplerClass@@IAEXXZ	; RadarDopplerClass::MENUDisplay

; 516  : 			return;

	jmp	$LN8@STBYDispla
$LN5@STBYDispla:

; 517  : 		}
; 518  : 		LabelButton(5, "BARO");

	push	0
	push	0
	push	OFFSET ??_C@_04CAJPJFIH@BARO?$AA@
	push	5
	mov	ecx, DWORD PTR _this$[ebp]
	call	?LabelButton@DrawableClass@@QAEXHPAD0H@Z ; DrawableClass::LabelButton

; 519  : 		LabelButton(8, "CZ");

	push	0
	push	0
	push	OFFSET ??_C@_02DCDGKAKK@CZ?$AA@
	push	8
	mov	ecx, DWORD PTR _this$[ebp]
	call	?LabelButton@DrawableClass@@QAEXHPAD0H@Z ; DrawableClass::LabelButton

; 520  : 		if (mode != OFF) 

	mov	ecx, DWORD PTR _this$[ebp]
	cmp	DWORD PTR [ecx+184], 0
	je	SHORT $LN4@STBYDispla

; 521  : 		{
; 522  : 			LabelButton(7, "SP");

	push	0
	push	0
	push	OFFSET ??_C@_02NEPPOLFA@SP?$AA@
	push	7
	mov	ecx, DWORD PTR _this$[ebp]
	call	?LabelButton@DrawableClass@@QAEXHPAD0H@Z ; DrawableClass::LabelButton

; 523  : 			LabelButton(9, "STP");

	push	0
	push	0
	push	OFFSET ??_C@_03NGANFLJH@STP?$AA@
	push	9
	mov	ecx, DWORD PTR _this$[ebp]
	call	?LabelButton@DrawableClass@@QAEXHPAD0H@Z ; DrawableClass::LabelButton
$LN4@STBYDispla:

; 524  : 		}
; 525  : 		DrawBars();

	mov	ecx, DWORD PTR _this$[ebp]
	call	?DrawBars@RadarDopplerClass@@IAEXXZ	; RadarDopplerClass::DrawBars

; 526  : 		DrawRange();

	mov	ecx, DWORD PTR _this$[ebp]
	call	?DrawRange@RadarDopplerClass@@IAEXXZ	; RadarDopplerClass::DrawRange

; 527  : 		DrawRangeArrows();

	mov	ecx, DWORD PTR _this$[ebp]
	call	?DrawRangeArrows@RadarDopplerClass@@IAEXXZ ; RadarDopplerClass::DrawRangeArrows

; 528  : 		GetCursorPosition (&cX, &cY);

	lea	edx, DWORD PTR _cY$[ebp]
	push	edx
	lea	eax, DWORD PTR _cX$[ebp]
	push	eax
	mov	ecx, DWORD PTR _this$[ebp]
	mov	edx, DWORD PTR [ecx]
	mov	ecx, DWORD PTR _this$[ebp]
	mov	eax, DWORD PTR [edx+204]
	call	eax

; 529  : 		if(OTWDriver.pCockpitManager && OTWDriver.pCockpitManager->mpIcp &&
; 530  : 						OTWDriver.pCockpitManager->mpIcp->ShowBullseyeInfo)

	cmp	DWORD PTR ?OTWDriver@@3VOTWDriverClass@@A+33684, 0
	je	SHORT $LN3@STBYDispla
	mov	ecx, DWORD PTR ?OTWDriver@@3VOTWDriverClass@@A+33684
	cmp	DWORD PTR [ecx+688], 0
	je	SHORT $LN3@STBYDispla
	mov	edx, DWORD PTR ?OTWDriver@@3VOTWDriverClass@@A+33684
	mov	eax, DWORD PTR [edx+688]
	movzx	ecx, BYTE PTR [eax+300]
	test	ecx, ecx
	je	SHORT $LN3@STBYDispla

; 531  : 			DrawBullseyeCircle(display, cX, cY);

	push	ecx
	movss	xmm0, DWORD PTR _cY$[ebp]
	movss	DWORD PTR [esp], xmm0
	push	ecx
	movss	xmm0, DWORD PTR _cX$[ebp]
	movss	DWORD PTR [esp], xmm0
	mov	edx, DWORD PTR _this$[ebp]
	mov	eax, DWORD PTR [edx+20]
	push	eax
	call	?DrawBullseyeCircle@@YAXPAVVirtualDisplay@@MM@Z ; DrawBullseyeCircle
	add	esp, 12					; 0000000cH

; 532  : 		else

	jmp	SHORT $LN2@STBYDispla
$LN3@STBYDispla:

; 533  : 			DrawReference(display);

	mov	ecx, DWORD PTR _this$[ebp]
	mov	edx, DWORD PTR [ecx+20]
	push	edx
	mov	ecx, DWORD PTR _this$[ebp]
	call	?DrawReference@RadarDopplerClass@@IAEXPAVVirtualDisplay@@@Z ; RadarDopplerClass::DrawReference
$LN2@STBYDispla:

; 534  : 
; 535  : 	}
; 536  : 	else 

	jmp	$LN1@STBYDispla
$LN7@STBYDispla:

; 537  : 	{
; 538  : 		LabelButton (5,  "GM ");

	push	0
	push	0
	push	OFFSET ??_C@_03DFLOHKFG@GM?5?$AA@
	push	5
	mov	ecx, DWORD PTR _this$[ebp]
	call	?LabelButton@DrawableClass@@QAEXHPAD0H@Z ; DrawableClass::LabelButton

; 539  : 		LabelButton (6,  "GMT");

	push	0
	push	0
	push	OFFSET ??_C@_03HOONMGKE@GMT?$AA@
	push	6
	mov	ecx, DWORD PTR _this$[ebp]
	call	?LabelButton@DrawableClass@@QAEXHPAD0H@Z ; DrawableClass::LabelButton

; 540  : 		LabelButton (7,  "SEA");

	push	0
	push	0
	push	OFFSET ??_C@_03JIDALBMA@SEA?$AA@
	push	7
	mov	ecx, DWORD PTR _this$[ebp]
	call	?LabelButton@DrawableClass@@QAEXHPAD0H@Z ; DrawableClass::LabelButton

; 541  : 		LabelButton (16, "ACM");

	push	0
	push	0
	push	OFFSET ??_C@_03MKBIBNGK@ACM?$AA@
	push	16					; 00000010H
	mov	ecx, DWORD PTR _this$[ebp]
	call	?LabelButton@DrawableClass@@QAEXHPAD0H@Z ; DrawableClass::LabelButton

; 542  : 		LabelButton (17, "VS ");

	push	0
	push	0
	push	OFFSET ??_C@_03MLKDMENG@VS?5?$AA@
	push	17					; 00000011H
	mov	ecx, DWORD PTR _this$[ebp]
	call	?LabelButton@DrawableClass@@QAEXHPAD0H@Z ; DrawableClass::LabelButton

; 543  : 		LabelButton (18, "RWS");

	push	0
	push	0
	push	OFFSET ??_C@_03EHNKNBGI@RWS?$AA@
	push	18					; 00000012H
	mov	ecx, DWORD PTR _this$[ebp]
	call	?LabelButton@DrawableClass@@QAEXHPAD0H@Z ; DrawableClass::LabelButton

; 544  : 		LabelButton (19, "TWS");

	push	0
	push	0
	push	OFFSET ??_C@_03GCLBIOLE@TWS?$AA@
	push	19					; 00000013H
	mov	ecx, DWORD PTR _this$[ebp]
	call	?LabelButton@DrawableClass@@QAEXHPAD0H@Z ; DrawableClass::LabelButton
$LN1@STBYDispla:

; 545  : 	}
; 546  : 	AABottomRow ();

	mov	ecx, DWORD PTR _this$[ebp]
	call	?AABottomRow@RadarDopplerClass@@IAEXXZ	; RadarDopplerClass::AABottomRow
$LN8@STBYDispla:

; 547  : }

	mov	esp, ebp
	pop	ebp
	ret	0
?STBYDisplay@RadarDopplerClass@@IAEXXZ ENDP		; RadarDopplerClass::STBYDisplay
_TEXT	ENDS
; Function compile flags: /Odtp
; File c:\users\zhitao li\documents\visual studio 2012\projects\freefalcon\sim\radar\bscope.cpp
_TEXT	SEGMENT
tv863 = -124						; size = 4
tv882 = -120						; size = 4
tv963 = -116						; size = 4
tv912 = -112						; size = 4
tv809 = -108						; size = 4
_pFCC$ = -104						; size = 4
tv189 = -100						; size = 4
tv426 = -96						; size = 4
tv266 = -92						; size = 4
tv177 = -88						; size = 4
tv365 = -84						; size = 4
tv412 = -80						; size = 4
tv461 = -76						; size = 4
tv378 = -72						; size = 4
tv460 = -68						; size = 4
tv267 = -64						; size = 4
tv455 = -60						; size = 4
tv253 = -56						; size = 4
tv441 = -52						; size = 4
tv207 = -48						; size = 4
tv431 = -44						; size = 4
tv379 = -40						; size = 4
tv272 = -33						; size = 1
_ang$ = -32						; size = 4
_this$ = -28						; size = 4
_str$ = -24						; size = 20
__$ArrayPad$ = -4					; size = 4
?SAMDisplay@RadarDopplerClass@@IAEXXZ PROC		; RadarDopplerClass::SAMDisplay
; _this$ = ecx

; 1171 : {

	push	ebp
	mov	ebp, esp
	sub	esp, 124				; 0000007cH
	mov	eax, DWORD PTR ___security_cookie
	xor	eax, ebp
	mov	DWORD PTR __$ArrayPad$[ebp], eax
	mov	DWORD PTR _this$[ebp], ecx

; 1172 : 	float ang;
; 1173 : 	char str[20];
; 1174 : 	FireControlComputer* pFCC = ((SimVehicleClass*)platform)->GetFCC();

	mov	eax, DWORD PTR _this$[ebp]
	mov	ecx, DWORD PTR [eax+32]
	mov	edx, DWORD PTR _this$[ebp]
	mov	eax, DWORD PTR [ecx]
	mov	ecx, DWORD PTR [edx+32]
	mov	edx, DWORD PTR [eax+460]
	call	edx
	mov	DWORD PTR _pFCC$[ebp], eax

; 1175 : 
; 1176 : 
; 1177 : 	if (!lockedTarget)

	mov	eax, DWORD PTR _this$[ebp]
	cmp	DWORD PTR [eax+48], 0
	jne	SHORT $LN19@SAMDisplay

; 1178 : 		return;

	jmp	$LN20@SAMDisplay
	jmp	$LN8@SAMDisplay
$LN19@SAMDisplay:

; 1179 : 	else if (IsSet(STTingTarget))

	push	65536					; 00010000H
	mov	ecx, DWORD PTR _this$[ebp]
	call	?IsSet@RadarDopplerClass@@QAEHH@Z	; RadarDopplerClass::IsSet
	test	eax, eax
	je	$LN17@SAMDisplay

; 1180 : 	{
; 1181 : 		display->SetColor(GetMfdColor(MFD_LABELS));

	push	0
	mov	ecx, DWORD PTR _this$[ebp]
	call	?GetMfdColor@DrawableClass@@QAEIW4MfdColor@@@Z ; DrawableClass::GetMfdColor
	push	eax
	mov	ecx, DWORD PTR _this$[ebp]
	mov	edx, DWORD PTR [ecx+20]
	mov	eax, DWORD PTR _this$[ebp]
	mov	edx, DWORD PTR [edx]
	mov	ecx, DWORD PTR [eax+20]
	mov	eax, DWORD PTR [edx+92]
	call	eax

; 1182 : 		if(IsAADclt(MajorMode) == FALSE) LabelButton (0, "CRM");

	push	1
	mov	ecx, DWORD PTR _this$[ebp]
	call	?IsAADclt@RadarDopplerClass@@IAEHH@Z	; RadarDopplerClass::IsAADclt
	test	eax, eax
	jne	SHORT $LN16@SAMDisplay
	push	0
	push	0
	push	OFFSET ??_C@_03HNPFBMKG@CRM?$AA@
	push	0
	mov	ecx, DWORD PTR _this$[ebp]
	call	?LabelButton@DrawableClass@@QAEXHPAD0H@Z ; DrawableClass::LabelButton
$LN16@SAMDisplay:

; 1183 : 		if (IsAADclt(SubMode) == FALSE)

	push	2
	mov	ecx, DWORD PTR _this$[ebp]
	call	?IsAADclt@RadarDopplerClass@@IAEHH@Z	; RadarDopplerClass::IsAADclt
	test	eax, eax
	jne	SHORT $LN13@SAMDisplay

; 1184 : 		{
; 1185 : 			//MI
; 1186 : 			if(lockedTarget)

	mov	ecx, DWORD PTR _this$[ebp]
	cmp	DWORD PTR [ecx+48], 0
	je	SHORT $LN14@SAMDisplay

; 1187 : 				LabelButton (1, prevMode == LRS ? "LRS" : "RWS");

	mov	edx, DWORD PTR _this$[ebp]
	cmp	DWORD PTR [edx+88], 3
	jne	SHORT $LN22@SAMDisplay
	mov	DWORD PTR tv177[ebp], OFFSET ??_C@_03PBNHDDCP@LRS?$AA@
	jmp	SHORT $LN23@SAMDisplay
$LN22@SAMDisplay:
	mov	DWORD PTR tv177[ebp], OFFSET ??_C@_03EHNKNBGI@RWS?$AA@
$LN23@SAMDisplay:
	push	0
	push	0
	mov	eax, DWORD PTR tv177[ebp]
	push	eax
	push	1
	mov	ecx, DWORD PTR _this$[ebp]
	call	?LabelButton@DrawableClass@@QAEXHPAD0H@Z ; DrawableClass::LabelButton

; 1188 : 			else

	jmp	SHORT $LN13@SAMDisplay
$LN14@SAMDisplay:

; 1189 : 				LabelButton (1, mode == LRS ? "LRS" : "RWS");

	mov	ecx, DWORD PTR _this$[ebp]
	cmp	DWORD PTR [ecx+184], 3
	jne	SHORT $LN24@SAMDisplay
	mov	DWORD PTR tv189[ebp], OFFSET ??_C@_03PBNHDDCP@LRS?$AA@
	jmp	SHORT $LN25@SAMDisplay
$LN24@SAMDisplay:
	mov	DWORD PTR tv189[ebp], OFFSET ??_C@_03EHNKNBGI@RWS?$AA@
$LN25@SAMDisplay:
	push	0
	push	0
	mov	edx, DWORD PTR tv189[ebp]
	push	edx
	push	1
	mov	ecx, DWORD PTR _this$[ebp]
	call	?LabelButton@DrawableClass@@QAEXHPAD0H@Z ; DrawableClass::LabelButton
$LN13@SAMDisplay:

; 1190 : 		}
; 1191 : 		//LabelButton (2, "NORM");
; 1192 : 		if(IsAADclt(Ovrd) == FALSE) LabelButton (3, "OVRD", NULL, !isEmitting); // JPO 

	push	8
	mov	ecx, DWORD PTR _this$[ebp]
	call	?IsAADclt@RadarDopplerClass@@IAEHH@Z	; RadarDopplerClass::IsAADclt
	test	eax, eax
	jne	SHORT $LN12@SAMDisplay
	mov	eax, DWORD PTR _this$[ebp]
	cmp	DWORD PTR [eax+76], 0
	jne	SHORT $LN26@SAMDisplay
	mov	DWORD PTR tv207[ebp], 1
	jmp	SHORT $LN27@SAMDisplay
$LN26@SAMDisplay:
	mov	DWORD PTR tv207[ebp], 0
$LN27@SAMDisplay:
	mov	ecx, DWORD PTR tv207[ebp]
	push	ecx
	push	0
	push	OFFSET ??_C@_04PGDFOHNL@OVRD?$AA@
	push	3
	mov	ecx, DWORD PTR _this$[ebp]
	call	?LabelButton@DrawableClass@@QAEXHPAD0H@Z ; DrawableClass::LabelButton
$LN12@SAMDisplay:

; 1193 : 		if(IsAADclt(Cntl) == FALSE) LabelButton (4, "CTNL", NULL, IsSet(CtlMode));

	push	16					; 00000010H
	mov	ecx, DWORD PTR _this$[ebp]
	call	?IsAADclt@RadarDopplerClass@@IAEHH@Z	; RadarDopplerClass::IsAADclt
	test	eax, eax
	jne	SHORT $LN11@SAMDisplay
	push	2097152					; 00200000H
	mov	ecx, DWORD PTR _this$[ebp]
	call	?IsSet@RadarDopplerClass@@QAEHH@Z	; RadarDopplerClass::IsSet
	push	eax
	push	0
	push	OFFSET ??_C@_04EECJBCEN@CTNL?$AA@
	push	4
	mov	ecx, DWORD PTR _this$[ebp]
	call	?LabelButton@DrawableClass@@QAEXHPAD0H@Z ; DrawableClass::LabelButton
$LN11@SAMDisplay:

; 1194 : 		if (IsSet(MenuMode|CtlMode)) {

	push	3145728					; 00300000H
	mov	ecx, DWORD PTR _this$[ebp]
	call	?IsSet@RadarDopplerClass@@QAEHH@Z	; RadarDopplerClass::IsSet
	test	eax, eax
	je	SHORT $LN10@SAMDisplay

; 1195 : 			MENUDisplay ();

	mov	ecx, DWORD PTR _this$[ebp]
	call	?MENUDisplay@RadarDopplerClass@@IAEXXZ	; RadarDopplerClass::MENUDisplay

; 1196 : 		} else {

	jmp	SHORT $LN9@SAMDisplay
$LN10@SAMDisplay:

; 1197 : 			// OSS Button Labels
; 1198 : 			AABottomRow ();

	mov	ecx, DWORD PTR _this$[ebp]
	call	?AABottomRow@RadarDopplerClass@@IAEXXZ	; RadarDopplerClass::AABottomRow
$LN9@SAMDisplay:

; 1199 : 		}
; 1200 : 		STTDisplay();

	mov	ecx, DWORD PTR _this$[ebp]
	call	?STTDisplay@RadarDopplerClass@@IAEXXZ	; RadarDopplerClass::STTDisplay

; 1201 : 	}
; 1202 :    else

	jmp	$LN8@SAMDisplay
$LN17@SAMDisplay:

; 1203 :    {
; 1204 :       // DLZ?
; 1205 :       if (pFCC->GetSubMode() == FireControlComputer::Aim120 && pFCC->missileTarget)

	mov	ecx, DWORD PTR _pFCC$[ebp]
	call	?GetSubMode@FireControlComputer@@QAE?AW4FCCSubMode@1@XZ ; FireControlComputer::GetSubMode
	cmp	eax, 6
	jne	SHORT $LN7@SAMDisplay
	mov	edx, DWORD PTR _pFCC$[ebp]
	movsx	eax, BYTE PTR [edx+192]
	test	eax, eax
	je	SHORT $LN7@SAMDisplay

; 1206 :          DrawDLZSymbol();

	mov	ecx, DWORD PTR _this$[ebp]
	call	?DrawDLZSymbol@RadarDopplerClass@@IAEXXZ ; RadarDopplerClass::DrawDLZSymbol
$LN7@SAMDisplay:

; 1207 : 
; 1208 : 	   /*---------------------*/
; 1209 : 	   /* Sam Mode Track data */
; 1210 : 	   /*---------------------*/
; 1211 : 	   // Aspect
; 1212 :        ang = max ( min (lockedTargetData->aspect * RTD * 0.1F, 18.0F), -18.0F);

	mov	ecx, DWORD PTR _this$[ebp]
	mov	edx, DWORD PTR [ecx+176]
	movss	xmm0, DWORD PTR [edx+68]
	mulss	xmm0, DWORD PTR __real@42652ee1
	mulss	xmm0, DWORD PTR __real@3dcccccd
	movss	xmm1, DWORD PTR __real@41900000
	comiss	xmm1, xmm0
	jbe	SHORT $LN28@SAMDisplay
	mov	eax, DWORD PTR _this$[ebp]
	mov	ecx, DWORD PTR [eax+176]
	movss	xmm0, DWORD PTR [ecx+68]
	mulss	xmm0, DWORD PTR __real@42652ee1
	mulss	xmm0, DWORD PTR __real@3dcccccd
	movss	DWORD PTR tv253[ebp], xmm0
	jmp	SHORT $LN29@SAMDisplay
$LN28@SAMDisplay:
	movss	xmm0, DWORD PTR __real@41900000
	movss	DWORD PTR tv253[ebp], xmm0
$LN29@SAMDisplay:
	movss	xmm0, DWORD PTR tv253[ebp]
	comiss	xmm0, DWORD PTR __real@c1900000
	jbe	SHORT $LN32@SAMDisplay
	mov	edx, DWORD PTR _this$[ebp]
	mov	eax, DWORD PTR [edx+176]
	movss	xmm0, DWORD PTR [eax+68]
	mulss	xmm0, DWORD PTR __real@42652ee1
	mulss	xmm0, DWORD PTR __real@3dcccccd
	movss	xmm1, DWORD PTR __real@41900000
	comiss	xmm1, xmm0
	jbe	SHORT $LN30@SAMDisplay
	mov	ecx, DWORD PTR _this$[ebp]
	mov	edx, DWORD PTR [ecx+176]
	movss	xmm0, DWORD PTR [edx+68]
	mulss	xmm0, DWORD PTR __real@42652ee1
	mulss	xmm0, DWORD PTR __real@3dcccccd
	movss	DWORD PTR tv266[ebp], xmm0
	jmp	SHORT $LN31@SAMDisplay
$LN30@SAMDisplay:
	movss	xmm0, DWORD PTR __real@41900000
	movss	DWORD PTR tv266[ebp], xmm0
$LN31@SAMDisplay:
	movss	xmm0, DWORD PTR tv266[ebp]
	movss	DWORD PTR tv267[ebp], xmm0
	jmp	SHORT $LN33@SAMDisplay
$LN32@SAMDisplay:
	movss	xmm0, DWORD PTR __real@c1900000
	movss	DWORD PTR tv267[ebp], xmm0
$LN33@SAMDisplay:
	movss	xmm0, DWORD PTR tv267[ebp]
	movss	DWORD PTR _ang$[ebp], xmm0

; 1213 : 	   sprintf (str, "%02.0f%c", ang, (lockedTargetData->azFrom > 0.0F ? 'R' : 'L'));

	mov	eax, DWORD PTR _this$[ebp]
	mov	ecx, DWORD PTR [eax+176]
	movss	xmm0, DWORD PTR [ecx+20]
	comiss	xmm0, DWORD PTR __real@00000000
	jbe	SHORT $LN34@SAMDisplay
	mov	BYTE PTR tv272[ebp], 82			; 00000052H
	jmp	SHORT $LN35@SAMDisplay
$LN34@SAMDisplay:
	mov	BYTE PTR tv272[ebp], 76			; 0000004cH
$LN35@SAMDisplay:
	movsx	edx, BYTE PTR tv272[ebp]
	push	edx
	cvtss2sd xmm0, DWORD PTR _ang$[ebp]
	sub	esp, 8
	movsd	QWORD PTR [esp], xmm0
	push	OFFSET ??_C@_08JJDNADML@?$CF02?40f?$CFc?$AA@
	lea	eax, DWORD PTR _str$[ebp]
	push	eax
	call	_sprintf
	add	esp, 20					; 00000014H

; 1214 : 	   ShiAssert( strlen(str) < sizeof(str) );
; 1215 :       display->TextLeft(-0.875F, SECOND_LINE_Y, str);

	push	0
	lea	ecx, DWORD PTR _str$[ebp]
	push	ecx
	push	ecx
	movss	xmm0, DWORD PTR __real@3f4ccccd
	movss	DWORD PTR [esp], xmm0
	push	ecx
	movss	xmm0, DWORD PTR __real@bf600000
	movss	DWORD PTR [esp], xmm0
	mov	edx, DWORD PTR _this$[ebp]
	mov	eax, DWORD PTR [edx+20]
	mov	ecx, DWORD PTR _this$[ebp]
	mov	edx, DWORD PTR [eax]
	mov	ecx, DWORD PTR [ecx+20]
	mov	eax, DWORD PTR [edx+56]
	call	eax

; 1216 : 
; 1217 : 	   // Heading
; 1218 : 	   ang = int(((lockedTarget->BaseData()->Yaw()*RTD*.1f)+.5f))*10.0F;

	mov	ecx, DWORD PTR _this$[ebp]
	mov	ecx, DWORD PTR [ecx+48]
	call	?BaseData@SimObjectType@@QAEPAVFalconEntity@@XZ ; SimObjectType::BaseData
	mov	ecx, eax
	call	?Yaw@VuEntity@@QBEMXZ			; VuEntity::Yaw
	fstp	DWORD PTR tv809[ebp]
	movss	xmm0, DWORD PTR tv809[ebp]
	mulss	xmm0, DWORD PTR __real@42652ee1
	mulss	xmm0, DWORD PTR __real@3dcccccd
	addss	xmm0, DWORD PTR __real@3f000000
	cvttss2si edx, xmm0
	cvtsi2ss xmm0, edx
	mulss	xmm0, DWORD PTR __real@41200000
	movss	DWORD PTR _ang$[ebp], xmm0

; 1219 :       if(ang < 0.0F)

	movss	xmm0, DWORD PTR __real@00000000
	comiss	xmm0, DWORD PTR _ang$[ebp]
	jbe	SHORT $LN6@SAMDisplay

; 1220 :          ang += 360.0F;

	movss	xmm0, DWORD PTR _ang$[ebp]
	addss	xmm0, DWORD PTR __real@43b40000
	movss	DWORD PTR _ang$[ebp], xmm0
$LN6@SAMDisplay:

; 1221 : 	   sprintf (str, "%03.0f", ang);

	cvtss2sd xmm0, DWORD PTR _ang$[ebp]
	sub	esp, 8
	movsd	QWORD PTR [esp], xmm0
	push	OFFSET ??_C@_06EKMMACPN@?$CF03?40f?$AA@
	lea	eax, DWORD PTR _str$[ebp]
	push	eax
	call	_sprintf
	add	esp, 16					; 00000010H

; 1222 : 	   ShiAssert( strlen(str) < sizeof(str) );
; 1223 : 	   display->TextLeft(-0.5F, SECOND_LINE_Y, str);

	push	0
	lea	ecx, DWORD PTR _str$[ebp]
	push	ecx
	push	ecx
	movss	xmm0, DWORD PTR __real@3f4ccccd
	movss	DWORD PTR [esp], xmm0
	push	ecx
	movss	xmm0, DWORD PTR __real@bf000000
	movss	DWORD PTR [esp], xmm0
	mov	edx, DWORD PTR _this$[ebp]
	mov	eax, DWORD PTR [edx+20]
	mov	ecx, DWORD PTR _this$[ebp]
	mov	edx, DWORD PTR [eax]
	mov	ecx, DWORD PTR [ecx+20]
	mov	eax, DWORD PTR [edx+56]
	call	eax

; 1224 : 
; 1225 : 
; 1226 : 	   // Closure
; 1227 : 	   display->SetColor(GetMfdColor (MFD_TGT_CLOSURE_RATE));

	push	1
	mov	ecx, DWORD PTR _this$[ebp]
	call	?GetMfdColor@DrawableClass@@QAEIW4MfdColor@@@Z ; DrawableClass::GetMfdColor
	push	eax
	mov	ecx, DWORD PTR _this$[ebp]
	mov	edx, DWORD PTR [ecx+20]
	mov	eax, DWORD PTR _this$[ebp]
	mov	edx, DWORD PTR [edx]
	mov	ecx, DWORD PTR [eax+20]
	mov	eax, DWORD PTR [edx+92]
	call	eax

; 1228 :       ang = max ( min (-lockedTargetData->rangedot * FTPSEC_TO_KNOTS, 1500.0F), -1500.0F);

	mov	ecx, DWORD PTR _this$[ebp]
	mov	edx, DWORD PTR [ecx+176]
	movss	xmm0, DWORD PTR [edx+48]
	xorps	xmm0, DWORD PTR __xmm@80000000800000008000000080000000
	mulss	xmm0, DWORD PTR __real@3f17ac60
	movss	xmm1, DWORD PTR __real@44bb8000
	comiss	xmm1, xmm0
	jbe	SHORT $LN36@SAMDisplay
	mov	eax, DWORD PTR _this$[ebp]
	mov	ecx, DWORD PTR [eax+176]
	movss	xmm0, DWORD PTR [ecx+48]
	xorps	xmm0, DWORD PTR __xmm@80000000800000008000000080000000
	mulss	xmm0, DWORD PTR __real@3f17ac60
	movss	DWORD PTR tv365[ebp], xmm0
	jmp	SHORT $LN37@SAMDisplay
$LN36@SAMDisplay:
	movss	xmm0, DWORD PTR __real@44bb8000
	movss	DWORD PTR tv365[ebp], xmm0
$LN37@SAMDisplay:
	movss	xmm0, DWORD PTR tv365[ebp]
	comiss	xmm0, DWORD PTR __real@c4bb8000
	jbe	SHORT $LN40@SAMDisplay
	mov	edx, DWORD PTR _this$[ebp]
	mov	eax, DWORD PTR [edx+176]
	movss	xmm0, DWORD PTR [eax+48]
	xorps	xmm0, DWORD PTR __xmm@80000000800000008000000080000000
	mulss	xmm0, DWORD PTR __real@3f17ac60
	movss	xmm1, DWORD PTR __real@44bb8000
	comiss	xmm1, xmm0
	jbe	SHORT $LN38@SAMDisplay
	mov	ecx, DWORD PTR _this$[ebp]
	mov	edx, DWORD PTR [ecx+176]
	movss	xmm0, DWORD PTR [edx+48]
	xorps	xmm0, DWORD PTR __xmm@80000000800000008000000080000000
	mulss	xmm0, DWORD PTR __real@3f17ac60
	movss	DWORD PTR tv378[ebp], xmm0
	jmp	SHORT $LN39@SAMDisplay
$LN38@SAMDisplay:
	movss	xmm0, DWORD PTR __real@44bb8000
	movss	DWORD PTR tv378[ebp], xmm0
$LN39@SAMDisplay:
	movss	xmm0, DWORD PTR tv378[ebp]
	movss	DWORD PTR tv379[ebp], xmm0
	jmp	SHORT $LN41@SAMDisplay
$LN40@SAMDisplay:
	movss	xmm0, DWORD PTR __real@c4bb8000
	movss	DWORD PTR tv379[ebp], xmm0
$LN41@SAMDisplay:
	movss	xmm0, DWORD PTR tv379[ebp]
	movss	DWORD PTR _ang$[ebp], xmm0

; 1229 : 	  if (ang > 0)//Cobra at the + to closure

	movss	xmm0, DWORD PTR _ang$[ebp]
	comiss	xmm0, DWORD PTR __real@00000000
	jbe	SHORT $LN5@SAMDisplay

; 1230 : 		  {
; 1231 : 		  sprintf (str, "+%03.0f", ang);

	cvtss2sd xmm0, DWORD PTR _ang$[ebp]
	sub	esp, 8
	movsd	QWORD PTR [esp], xmm0
	push	OFFSET ??_C@_07BGJOHMOK@?$CL?$CF03?40f?$AA@
	lea	eax, DWORD PTR _str$[ebp]
	push	eax
	call	_sprintf
	add	esp, 16					; 00000010H

; 1232 : 		  }
; 1233 : 	  else

	jmp	SHORT $LN4@SAMDisplay
$LN5@SAMDisplay:

; 1234 : 		  {
; 1235 : 		sprintf (str, "%03.0f", ang);

	cvtss2sd xmm0, DWORD PTR _ang$[ebp]
	sub	esp, 8
	movsd	QWORD PTR [esp], xmm0
	push	OFFSET ??_C@_06EKMMACPN@?$CF03?40f?$AA@
	lea	ecx, DWORD PTR _str$[ebp]
	push	ecx
	call	_sprintf
	add	esp, 16					; 00000010H
$LN4@SAMDisplay:

; 1236 : 		  }
; 1237 : 	   ShiAssert( strlen(str) < sizeof(str) );
; 1238 :       display->TextRight (0.875F, SECOND_LINE_Y, str);

	push	0
	lea	edx, DWORD PTR _str$[ebp]
	push	edx
	push	ecx
	movss	xmm0, DWORD PTR __real@3f4ccccd
	movss	DWORD PTR [esp], xmm0
	push	ecx
	movss	xmm0, DWORD PTR __real@3f600000
	movss	DWORD PTR [esp], xmm0
	mov	eax, DWORD PTR _this$[ebp]
	mov	ecx, DWORD PTR [eax+20]
	mov	edx, DWORD PTR _this$[ebp]
	mov	eax, DWORD PTR [ecx]
	mov	ecx, DWORD PTR [edx+20]
	mov	edx, DWORD PTR [eax+60]
	call	edx

; 1239 : 
; 1240 : 	   // TAS
; 1241 :        ang = max ( min (lockedTarget->BaseData()->GetKias(), 1000.0F), -1000.0F);

	mov	eax, DWORD PTR _this$[ebp]
	mov	ecx, DWORD PTR [eax+48]
	call	?BaseData@SimObjectType@@QAEPAVFalconEntity@@XZ ; SimObjectType::BaseData
	mov	DWORD PTR tv412[ebp], eax
	mov	ecx, DWORD PTR tv412[ebp]
	mov	edx, DWORD PTR [ecx]
	mov	ecx, DWORD PTR tv412[ebp]
	mov	eax, DWORD PTR [edx+224]
	call	eax
	fstp	DWORD PTR tv863[ebp]
	movss	xmm0, DWORD PTR __real@447a0000
	comiss	xmm0, DWORD PTR tv863[ebp]
	jbe	SHORT $LN42@SAMDisplay
	mov	ecx, DWORD PTR _this$[ebp]
	mov	ecx, DWORD PTR [ecx+48]
	call	?BaseData@SimObjectType@@QAEPAVFalconEntity@@XZ ; SimObjectType::BaseData
	mov	DWORD PTR tv426[ebp], eax
	mov	edx, DWORD PTR tv426[ebp]
	mov	eax, DWORD PTR [edx]
	mov	ecx, DWORD PTR tv426[ebp]
	mov	edx, DWORD PTR [eax+224]
	call	edx
	fstp	DWORD PTR tv431[ebp]
	jmp	SHORT $LN43@SAMDisplay
$LN42@SAMDisplay:
	movss	xmm0, DWORD PTR __real@447a0000
	movss	DWORD PTR tv431[ebp], xmm0
$LN43@SAMDisplay:
	movss	xmm0, DWORD PTR tv431[ebp]
	comiss	xmm0, DWORD PTR __real@c47a0000
	jbe	SHORT $LN46@SAMDisplay
	mov	eax, DWORD PTR _this$[ebp]
	mov	ecx, DWORD PTR [eax+48]
	call	?BaseData@SimObjectType@@QAEPAVFalconEntity@@XZ ; SimObjectType::BaseData
	mov	DWORD PTR tv441[ebp], eax
	mov	ecx, DWORD PTR tv441[ebp]
	mov	edx, DWORD PTR [ecx]
	mov	ecx, DWORD PTR tv441[ebp]
	mov	eax, DWORD PTR [edx+224]
	call	eax
	fstp	DWORD PTR tv882[ebp]
	movss	xmm0, DWORD PTR __real@447a0000
	comiss	xmm0, DWORD PTR tv882[ebp]
	jbe	SHORT $LN44@SAMDisplay
	mov	ecx, DWORD PTR _this$[ebp]
	mov	ecx, DWORD PTR [ecx+48]
	call	?BaseData@SimObjectType@@QAEPAVFalconEntity@@XZ ; SimObjectType::BaseData
	mov	DWORD PTR tv455[ebp], eax
	mov	edx, DWORD PTR tv455[ebp]
	mov	eax, DWORD PTR [edx]
	mov	ecx, DWORD PTR tv455[ebp]
	mov	edx, DWORD PTR [eax+224]
	call	edx
	fstp	DWORD PTR tv460[ebp]
	jmp	SHORT $LN45@SAMDisplay
$LN44@SAMDisplay:
	movss	xmm0, DWORD PTR __real@447a0000
	movss	DWORD PTR tv460[ebp], xmm0
$LN45@SAMDisplay:
	movss	xmm0, DWORD PTR tv460[ebp]
	movss	DWORD PTR tv461[ebp], xmm0
	jmp	SHORT $LN47@SAMDisplay
$LN46@SAMDisplay:
	movss	xmm0, DWORD PTR __real@c47a0000
	movss	DWORD PTR tv461[ebp], xmm0
$LN47@SAMDisplay:
	movss	xmm0, DWORD PTR tv461[ebp]
	movss	DWORD PTR _ang$[ebp], xmm0

; 1242 : 	   sprintf (str, "%03.0f", ang);

	cvtss2sd xmm0, DWORD PTR _ang$[ebp]
	sub	esp, 8
	movsd	QWORD PTR [esp], xmm0
	push	OFFSET ??_C@_06EKMMACPN@?$CF03?40f?$AA@
	lea	eax, DWORD PTR _str$[ebp]
	push	eax
	call	_sprintf
	add	esp, 16					; 00000010H

; 1243 : 	   ShiAssert( strlen(str) < sizeof(str) );
; 1244 :       display->TextRight (0.45F, SECOND_LINE_Y, str);

	push	0
	lea	ecx, DWORD PTR _str$[ebp]
	push	ecx
	push	ecx
	movss	xmm0, DWORD PTR __real@3f4ccccd
	movss	DWORD PTR [esp], xmm0
	push	ecx
	movss	xmm0, DWORD PTR __real@3ee66666
	movss	DWORD PTR [esp], xmm0
	mov	edx, DWORD PTR _this$[ebp]
	mov	eax, DWORD PTR [edx+20]
	mov	ecx, DWORD PTR _this$[ebp]
	mov	edx, DWORD PTR [eax]
	mov	ecx, DWORD PTR [ecx+20]
	mov	eax, DWORD PTR [edx+60]
	call	eax

; 1245 : 
; 1246 : 	   // SAM Target Elevation
; 1247 : 	   display->AdjustOriginInViewport (-0.83F, TargetEl(platform,
; 1248 : 		   lockedTarget) * disDeg);

	mov	ecx, DWORD PTR _this$[ebp]
	mov	edx, DWORD PTR [ecx+48]
	push	edx
	mov	eax, DWORD PTR _this$[ebp]
	mov	ecx, DWORD PTR [eax+32]
	push	ecx
	call	?TargetEl@@YAMPAVFalconEntity@@PAVSimObjectType@@@Z ; TargetEl
	add	esp, 8
	fstp	DWORD PTR tv912[ebp]
	movss	xmm0, DWORD PTR tv912[ebp]
	mulss	xmm0, DWORD PTR _disDeg
	push	ecx
	movss	DWORD PTR [esp], xmm0
	push	ecx
	movss	xmm0, DWORD PTR __real@bf547ae1
	movss	DWORD PTR [esp], xmm0
	mov	edx, DWORD PTR _this$[ebp]
	mov	ecx, DWORD PTR [edx+20]
	call	?AdjustOriginInViewport@VirtualDisplay@@QAEXMM@Z ; VirtualDisplay::AdjustOriginInViewport

; 1249 : 	   display->Line (elMark[0][0], elMark[0][1], elMark[1][0], elMark[1][1]);

	mov	eax, 8
	shl	eax, 0
	mov	ecx, 4
	shl	ecx, 0
	push	ecx
	movss	xmm0, DWORD PTR _elMark[eax+ecx]
	movss	DWORD PTR [esp], xmm0
	mov	edx, 8
	shl	edx, 0
	mov	eax, 4
	imul	eax, 0
	push	ecx
	movss	xmm0, DWORD PTR _elMark[edx+eax]
	movss	DWORD PTR [esp], xmm0
	mov	ecx, 8
	imul	ecx, 0
	mov	edx, 4
	shl	edx, 0
	push	ecx
	movss	xmm0, DWORD PTR _elMark[ecx+edx]
	movss	DWORD PTR [esp], xmm0
	mov	eax, 8
	imul	eax, 0
	mov	ecx, 4
	imul	ecx, 0
	push	ecx
	movss	xmm0, DWORD PTR _elMark[eax+ecx]
	movss	DWORD PTR [esp], xmm0
	mov	edx, DWORD PTR _this$[ebp]
	mov	eax, DWORD PTR [edx+20]
	mov	ecx, DWORD PTR _this$[ebp]
	mov	edx, DWORD PTR [eax]
	mov	ecx, DWORD PTR [ecx+20]
	mov	eax, DWORD PTR [edx+32]
	call	eax

; 1250 : 	   display->Line (elMark[2][0], elMark[2][1], elMark[3][0], elMark[3][1]);

	mov	ecx, 8
	imul	ecx, 3
	mov	edx, 4
	shl	edx, 0
	push	ecx
	movss	xmm0, DWORD PTR _elMark[ecx+edx]
	movss	DWORD PTR [esp], xmm0
	mov	eax, 8
	imul	eax, 3
	mov	ecx, 4
	imul	ecx, 0
	push	ecx
	movss	xmm0, DWORD PTR _elMark[eax+ecx]
	movss	DWORD PTR [esp], xmm0
	mov	edx, 8
	shl	edx, 1
	mov	eax, 4
	shl	eax, 0
	push	ecx
	movss	xmm0, DWORD PTR _elMark[edx+eax]
	movss	DWORD PTR [esp], xmm0
	mov	ecx, 8
	shl	ecx, 1
	mov	edx, 4
	imul	edx, 0
	push	ecx
	movss	xmm0, DWORD PTR _elMark[ecx+edx]
	movss	DWORD PTR [esp], xmm0
	mov	eax, DWORD PTR _this$[ebp]
	mov	ecx, DWORD PTR [eax+20]
	mov	edx, DWORD PTR _this$[ebp]
	mov	eax, DWORD PTR [ecx]
	mov	ecx, DWORD PTR [edx+20]
	mov	edx, DWORD PTR [eax+32]
	call	edx

; 1251 : 	   display->CenterOriginInViewport();

	mov	eax, DWORD PTR _this$[ebp]
	mov	ecx, DWORD PTR [eax+20]
	call	?CenterOriginInViewport@VirtualDisplay@@QAEXXZ ; VirtualDisplay::CenterOriginInViewport

; 1252 : 
; 1253 : 	   // SAM Target Azimuth
; 1254 : 	   display->AdjustOriginInViewport (TargetAz(platform,
; 1255 : 		   lockedTarget) * disDeg, -0.77F);

	push	ecx
	movss	xmm0, DWORD PTR __real@bf451eb8
	movss	DWORD PTR [esp], xmm0
	mov	ecx, DWORD PTR _this$[ebp]
	mov	edx, DWORD PTR [ecx+48]
	push	edx
	mov	eax, DWORD PTR _this$[ebp]
	mov	ecx, DWORD PTR [eax+32]
	push	ecx
	call	?TargetAz@@YAMPAVFalconEntity@@PAVSimObjectType@@@Z ; TargetAz
	add	esp, 8
	fstp	DWORD PTR tv963[ebp]
	movss	xmm0, DWORD PTR tv963[ebp]
	mulss	xmm0, DWORD PTR _disDeg
	push	ecx
	movss	DWORD PTR [esp], xmm0
	mov	edx, DWORD PTR _this$[ebp]
	mov	ecx, DWORD PTR [edx+20]
	call	?AdjustOriginInViewport@VirtualDisplay@@QAEXMM@Z ; VirtualDisplay::AdjustOriginInViewport

; 1256 : 	   display->AdjustRotationAboutOrigin(270.0F * DTR);

	push	ecx
	movss	xmm0, DWORD PTR __real@4096cbe3
	movss	DWORD PTR [esp], xmm0
	mov	eax, DWORD PTR _this$[ebp]
	mov	ecx, DWORD PTR [eax+20]
	call	?AdjustRotationAboutOrigin@VirtualDisplay@@QAEXM@Z ; VirtualDisplay::AdjustRotationAboutOrigin

; 1257 : 	   display->Line (elMark[0][0], elMark[0][1], elMark[1][0], elMark[1][1]);

	mov	ecx, 8
	shl	ecx, 0
	mov	edx, 4
	shl	edx, 0
	push	ecx
	movss	xmm0, DWORD PTR _elMark[ecx+edx]
	movss	DWORD PTR [esp], xmm0
	mov	eax, 8
	shl	eax, 0
	mov	ecx, 4
	imul	ecx, 0
	push	ecx
	movss	xmm0, DWORD PTR _elMark[eax+ecx]
	movss	DWORD PTR [esp], xmm0
	mov	edx, 8
	imul	edx, 0
	mov	eax, 4
	shl	eax, 0
	push	ecx
	movss	xmm0, DWORD PTR _elMark[edx+eax]
	movss	DWORD PTR [esp], xmm0
	mov	ecx, 8
	imul	ecx, 0
	mov	edx, 4
	imul	edx, 0
	push	ecx
	movss	xmm0, DWORD PTR _elMark[ecx+edx]
	movss	DWORD PTR [esp], xmm0
	mov	eax, DWORD PTR _this$[ebp]
	mov	ecx, DWORD PTR [eax+20]
	mov	edx, DWORD PTR _this$[ebp]
	mov	eax, DWORD PTR [ecx]
	mov	ecx, DWORD PTR [edx+20]
	mov	edx, DWORD PTR [eax+32]
	call	edx

; 1258 : 	   display->Line (elMark[2][0], elMark[2][1], elMark[3][0], elMark[3][1]);

	mov	eax, 8
	imul	eax, 3
	mov	ecx, 4
	shl	ecx, 0
	push	ecx
	movss	xmm0, DWORD PTR _elMark[eax+ecx]
	movss	DWORD PTR [esp], xmm0
	mov	edx, 8
	imul	edx, 3
	mov	eax, 4
	imul	eax, 0
	push	ecx
	movss	xmm0, DWORD PTR _elMark[edx+eax]
	movss	DWORD PTR [esp], xmm0
	mov	ecx, 8
	shl	ecx, 1
	mov	edx, 4
	shl	edx, 0
	push	ecx
	movss	xmm0, DWORD PTR _elMark[ecx+edx]
	movss	DWORD PTR [esp], xmm0
	mov	eax, 8
	shl	eax, 1
	mov	ecx, 4
	imul	ecx, 0
	push	ecx
	movss	xmm0, DWORD PTR _elMark[eax+ecx]
	movss	DWORD PTR [esp], xmm0
	mov	edx, DWORD PTR _this$[ebp]
	mov	eax, DWORD PTR [edx+20]
	mov	ecx, DWORD PTR _this$[ebp]
	mov	edx, DWORD PTR [eax]
	mov	ecx, DWORD PTR [ecx+20]
	mov	eax, DWORD PTR [edx+32]
	call	eax

; 1259 : 	   display->ZeroRotationAboutOrigin();

	mov	ecx, DWORD PTR _this$[ebp]
	mov	ecx, DWORD PTR [ecx+20]
	call	?ZeroRotationAboutOrigin@VirtualDisplay@@QAEXXZ ; VirtualDisplay::ZeroRotationAboutOrigin

; 1260 : 	   display->CenterOriginInViewport();

	mov	edx, DWORD PTR _this$[ebp]
	mov	ecx, DWORD PTR [edx+20]
	call	?CenterOriginInViewport@VirtualDisplay@@QAEXXZ ; VirtualDisplay::CenterOriginInViewport

; 1261 : 
; 1262 : 		// Add NCTR data for any bugged target
; 1263 : 		if(lockedTargetData->rdrSy[0] == Track || lockedTargetData->rdrSy[0] ==FlashTrack)

	mov	eax, DWORD PTR _this$[ebp]
	mov	ecx, DWORD PTR [eax+176]
	mov	edx, 4
	imul	edx, 0
	cmp	DWORD PTR [ecx+edx+72], 3
	je	SHORT $LN2@SAMDisplay
	mov	eax, DWORD PTR _this$[ebp]
	mov	ecx, DWORD PTR [eax+176]
	mov	edx, 4
	imul	edx, 0
	cmp	DWORD PTR [ecx+edx+72], 4
	jne	SHORT $LN3@SAMDisplay
$LN2@SAMDisplay:

; 1264 : 		{
; 1265 : 			DrawNCTR(true);

	push	1
	mov	ecx, DWORD PTR _this$[ebp]
	call	?DrawNCTR@RadarDopplerClass@@IAEX_N@Z	; RadarDopplerClass::DrawNCTR
$LN3@SAMDisplay:

; 1266 : 		}
; 1267 : 
; 1268 : 		if (subMode == SAM_AUTO_MODE && lockedTargetData->range)

	mov	eax, DWORD PTR _this$[ebp]
	cmp	DWORD PTR [eax+504], 11			; 0000000bH
	jne	SHORT $LN1@SAMDisplay
	mov	ecx, DWORD PTR _this$[ebp]
	mov	edx, DWORD PTR [ecx+176]
	movss	xmm0, DWORD PTR [edx+44]
	ucomiss	xmm0, DWORD PTR __real@00000000
	lahf
	test	ah, 68					; 00000044H
	jnp	SHORT $LN1@SAMDisplay

; 1269 : 		{
; 1270 : 			TargetToXY(lockedTargetData, 0, tdisplayRange, &cursorX, &cursorY);

	mov	eax, DWORD PTR _this$[ebp]
	add	eax, 224				; 000000e0H
	push	eax
	mov	ecx, DWORD PTR _this$[ebp]
	add	ecx, 220				; 000000dcH
	push	ecx
	mov	edx, DWORD PTR _this$[ebp]
	push	ecx
	movss	xmm0, DWORD PTR [edx+264]
	movss	DWORD PTR [esp], xmm0
	push	0
	mov	eax, DWORD PTR _this$[ebp]
	mov	ecx, DWORD PTR [eax+176]
	push	ecx
	mov	ecx, DWORD PTR _this$[ebp]
	call	?TargetToXY@RadarDopplerClass@@QAEXPAVSimObjectLocalData@@HMPAM1@Z ; RadarDopplerClass::TargetToXY
$LN1@SAMDisplay:

; 1271 : 			//cursorY += 0.09F;
; 1272 : 		}
; 1273 : 
; 1274 : 		// Add the rest of the RWS blips
; 1275 : 		RWSDisplay();

	mov	ecx, DWORD PTR _this$[ebp]
	call	?RWSDisplay@RadarDopplerClass@@IAEXXZ	; RadarDopplerClass::RWSDisplay

; 1276 : 
; 1277 : 		// Add Azimuth limit markers
; 1278 : 		DrawAzLimitMarkers();

	mov	ecx, DWORD PTR _this$[ebp]
	call	?DrawAzLimitMarkers@RadarDopplerClass@@IAEXXZ ; RadarDopplerClass::DrawAzLimitMarkers
$LN8@SAMDisplay:
$LN20@SAMDisplay:

; 1279 : 	}
; 1280 : }

	mov	ecx, DWORD PTR __$ArrayPad$[ebp]
	xor	ecx, ebp
	call	@__security_check_cookie@4
	mov	esp, ebp
	pop	ebp
	ret	0
?SAMDisplay@RadarDopplerClass@@IAEXXZ ENDP		; RadarDopplerClass::SAMDisplay
_TEXT	ENDS
; Function compile flags: /Odtp
; File c:\users\zhitao li\documents\visual studio 2012\projects\freefalcon\sim\radar\bscope.cpp
_TEXT	SEGMENT
tv187 = -12						; size = 4
tv133 = -8						; size = 4
_this$ = -4						; size = 4
?ACMDisplay@RadarDopplerClass@@IAEXXZ PROC		; RadarDopplerClass::ACMDisplay
; _this$ = ecx

; 1283 : {

	push	ebp
	mov	ebp, esp
	sub	esp, 12					; 0000000cH
	mov	DWORD PTR _this$[ebp], ecx

; 1284 : 	display->SetColor(GetMfdColor (MFD_LABELS));

	push	0
	mov	ecx, DWORD PTR _this$[ebp]
	call	?GetMfdColor@DrawableClass@@QAEIW4MfdColor@@@Z ; DrawableClass::GetMfdColor
	push	eax
	mov	eax, DWORD PTR _this$[ebp]
	mov	ecx, DWORD PTR [eax+20]
	mov	edx, DWORD PTR _this$[ebp]
	mov	eax, DWORD PTR [ecx]
	mov	ecx, DWORD PTR [edx+20]
	mov	edx, DWORD PTR [eax+92]
	call	edx

; 1285 : 
; 1286 : 	// OSS Button Labels
; 1287 : 	if(IsAADclt(MajorMode) == FALSE) LabelButton (0, "ACM");

	push	1
	mov	ecx, DWORD PTR _this$[ebp]
	call	?IsAADclt@RadarDopplerClass@@IAEHH@Z	; RadarDopplerClass::IsAADclt
	test	eax, eax
	jne	SHORT $LN16@ACMDisplay
	push	0
	push	0
	push	OFFSET ??_C@_03MKBIBNGK@ACM?$AA@
	push	0
	mov	ecx, DWORD PTR _this$[ebp]
	call	?LabelButton@DrawableClass@@QAEXHPAD0H@Z ; DrawableClass::LabelButton
$LN16@ACMDisplay:

; 1288 : 
; 1289 : 	if(IsAADclt(SubMode) == FALSE) {

	push	2
	mov	ecx, DWORD PTR _this$[ebp]
	call	?IsAADclt@RadarDopplerClass@@IAEHH@Z	; RadarDopplerClass::IsAADclt
	test	eax, eax
	jne	SHORT $LN13@ACMDisplay

; 1290 : 		switch (mode)

	mov	eax, DWORD PTR _this$[ebp]
	mov	ecx, DWORD PTR [eax+184]
	mov	DWORD PTR tv133[ebp], ecx
	mov	edx, DWORD PTR tv133[ebp]
	sub	edx, 6
	mov	DWORD PTR tv133[ebp], edx
	cmp	DWORD PTR tv133[ebp], 3
	ja	SHORT $LN13@ACMDisplay
	mov	eax, DWORD PTR tv133[ebp]
	jmp	DWORD PTR $LN21@ACMDisplay[eax*4]
$LN12@ACMDisplay:

; 1291 : 		{
; 1292 : 				case ACM_30x20:
; 1293 : 						LabelButton(1, "20");

	push	0
	push	0
	push	OFFSET ??_C@_02PIBHCBOA@20?$AA@
	push	1
	mov	ecx, DWORD PTR _this$[ebp]
	call	?LabelButton@DrawableClass@@QAEXHPAD0H@Z ; DrawableClass::LabelButton

; 1294 : 						break;

	jmp	SHORT $LN13@ACMDisplay
$LN11@ACMDisplay:

; 1295 : 
; 1296 : 				case ACM_SLEW:
; 1297 : 						LabelButton(1, "SLEW");

	push	0
	push	0
	push	OFFSET ??_C@_04BEAHNOME@SLEW?$AA@
	push	1
	mov	ecx, DWORD PTR _this$[ebp]
	call	?LabelButton@DrawableClass@@QAEXHPAD0H@Z ; DrawableClass::LabelButton

; 1298 : 						break;

	jmp	SHORT $LN13@ACMDisplay
$LN10@ACMDisplay:

; 1299 : 
; 1300 : 				case ACM_BORE:
; 1301 : 						LabelButton(1, "BORE");

	push	0
	push	0
	push	OFFSET ??_C@_04DKKPAKDO@BORE?$AA@
	push	1
	mov	ecx, DWORD PTR _this$[ebp]
	call	?LabelButton@DrawableClass@@QAEXHPAD0H@Z ; DrawableClass::LabelButton

; 1302 : 						break;

	jmp	SHORT $LN13@ACMDisplay
$LN9@ACMDisplay:

; 1303 : 
; 1304 : 				case ACM_10x60:
; 1305 : 						LabelButton(1, "60");

	push	0
	push	0
	push	OFFSET ??_C@_02PPBOIJDM@60?$AA@
	push	1
	mov	ecx, DWORD PTR _this$[ebp]
	call	?LabelButton@DrawableClass@@QAEXHPAD0H@Z ; DrawableClass::LabelButton
$LN13@ACMDisplay:

; 1306 : 						break;
; 1307 : 		}
; 1308 : 	}
; 1309 : 	if(IsAADclt(Ovrd) == FALSE) LabelButton (3, "OVRD", NULL, !isEmitting);

	push	8
	mov	ecx, DWORD PTR _this$[ebp]
	call	?IsAADclt@RadarDopplerClass@@IAEHH@Z	; RadarDopplerClass::IsAADclt
	test	eax, eax
	jne	SHORT $LN8@ACMDisplay
	mov	ecx, DWORD PTR _this$[ebp]
	cmp	DWORD PTR [ecx+76], 0
	jne	SHORT $LN19@ACMDisplay
	mov	DWORD PTR tv187[ebp], 1
	jmp	SHORT $LN20@ACMDisplay
$LN19@ACMDisplay:
	mov	DWORD PTR tv187[ebp], 0
$LN20@ACMDisplay:
	mov	edx, DWORD PTR tv187[ebp]
	push	edx
	push	0
	push	OFFSET ??_C@_04PGDFOHNL@OVRD?$AA@
	push	3
	mov	ecx, DWORD PTR _this$[ebp]
	call	?LabelButton@DrawableClass@@QAEXHPAD0H@Z ; DrawableClass::LabelButton
$LN8@ACMDisplay:

; 1310 : 	if(IsAADclt(Cntl) == FALSE) LabelButton (4, "CTNL", NULL, IsSet(CtlMode));

	push	16					; 00000010H
	mov	ecx, DWORD PTR _this$[ebp]
	call	?IsAADclt@RadarDopplerClass@@IAEHH@Z	; RadarDopplerClass::IsAADclt
	test	eax, eax
	jne	SHORT $LN7@ACMDisplay
	push	2097152					; 00200000H
	mov	ecx, DWORD PTR _this$[ebp]
	call	?IsSet@RadarDopplerClass@@QAEHH@Z	; RadarDopplerClass::IsSet
	push	eax
	push	0
	push	OFFSET ??_C@_04EECJBCEN@CTNL?$AA@
	push	4
	mov	ecx, DWORD PTR _this$[ebp]
	call	?LabelButton@DrawableClass@@QAEXHPAD0H@Z ; DrawableClass::LabelButton
$LN7@ACMDisplay:

; 1311 : 	if (IsSet(MenuMode|CtlMode)) {

	push	3145728					; 00300000H
	mov	ecx, DWORD PTR _this$[ebp]
	call	?IsSet@RadarDopplerClass@@QAEHH@Z	; RadarDopplerClass::IsSet
	test	eax, eax
	je	SHORT $LN6@ACMDisplay

; 1312 : 		MENUDisplay ();

	mov	ecx, DWORD PTR _this$[ebp]
	call	?MENUDisplay@RadarDopplerClass@@IAEXXZ	; RadarDopplerClass::MENUDisplay

; 1313 : 	} else 

	jmp	SHORT $LN5@ACMDisplay
$LN6@ACMDisplay:

; 1314 : 		AABottomRow ();

	mov	ecx, DWORD PTR _this$[ebp]
	call	?AABottomRow@RadarDopplerClass@@IAEXXZ	; RadarDopplerClass::AABottomRow
$LN5@ACMDisplay:

; 1315 : 
; 1316 : 
; 1317 : 	if (IsSet(STTingTarget))

	push	65536					; 00010000H
	mov	ecx, DWORD PTR _this$[ebp]
	call	?IsSet@RadarDopplerClass@@QAEHH@Z	; RadarDopplerClass::IsSet
	test	eax, eax
	je	SHORT $LN4@ACMDisplay

; 1318 : 		STTDisplay();

	mov	ecx, DWORD PTR _this$[ebp]
	call	?STTDisplay@RadarDopplerClass@@IAEXXZ	; RadarDopplerClass::STTDisplay

; 1319 : 	else

	jmp	SHORT $LN1@ACMDisplay
$LN4@ACMDisplay:

; 1320 : 	{
; 1321 : 		if (mode != ACM_BORE)

	mov	eax, DWORD PTR _this$[ebp]
	cmp	DWORD PTR [eax+184], 8
	je	SHORT $LN2@ACMDisplay

; 1322 : 		{
; 1323 : 			// Set the viewport
; 1324 : 			display->SetViewportRelative (DisplayAreaViewLeft, DisplayAreaViewTop, DisplayAreaViewRight, DisplayAreaViewBottom);

	push	ecx
	movss	xmm0, DWORD PTR _DisplayAreaViewBottom
	movss	DWORD PTR [esp], xmm0
	push	ecx
	movss	xmm0, DWORD PTR _DisplayAreaViewRight
	movss	DWORD PTR [esp], xmm0
	push	ecx
	movss	xmm0, DWORD PTR _DisplayAreaViewTop
	movss	DWORD PTR [esp], xmm0
	push	ecx
	movss	xmm0, DWORD PTR _DisplayAreaViewLeft
	movss	DWORD PTR [esp], xmm0
	mov	ecx, DWORD PTR _this$[ebp]
	mov	edx, DWORD PTR [ecx+20]
	mov	eax, DWORD PTR _this$[ebp]
	mov	edx, DWORD PTR [edx]
	mov	ecx, DWORD PTR [eax+20]
	mov	eax, DWORD PTR [edx+116]
	call	eax

; 1325 : 			DrawAzLimitMarkers();

	mov	ecx, DWORD PTR _this$[ebp]
	call	?DrawAzLimitMarkers@RadarDopplerClass@@IAEXXZ ; RadarDopplerClass::DrawAzLimitMarkers
$LN2@ACMDisplay:

; 1326 : 		}
; 1327 : 
; 1328 : 		if (mode == ACM_SLEW)

	mov	ecx, DWORD PTR _this$[ebp]
	cmp	DWORD PTR [ecx+184], 7
	jne	SHORT $LN1@ACMDisplay

; 1329 : 			DrawSlewCursor();

	mov	ecx, DWORD PTR _this$[ebp]
	call	?DrawSlewCursor@RadarDopplerClass@@IAEXXZ ; RadarDopplerClass::DrawSlewCursor
$LN1@ACMDisplay:

; 1330 : 	}
; 1331 : }

	mov	esp, ebp
	pop	ebp
	ret	0
	npad	1
$LN21@ACMDisplay:
	DD	$LN12@ACMDisplay
	DD	$LN11@ACMDisplay
	DD	$LN10@ACMDisplay
	DD	$LN9@ACMDisplay
?ACMDisplay@RadarDopplerClass@@IAEXXZ ENDP		; RadarDopplerClass::ACMDisplay
_TEXT	ENDS
; Function compile flags: /Odtp
; File c:\users\zhitao li\documents\visual studio 2012\projects\freefalcon\sim\radar\bscope.cpp
_TEXT	SEGMENT
$T1 = -76						; size = 8
_pFCC$ = -68						; size = 4
_alt$ = -64						; size = 4
tv482 = -60						; size = 4
tv475 = -56						; size = 4
_tmpColor$ = -52					; size = 4
tv508 = -48						; size = 4
_xPos$ = -44						; size = 4
_yPos$ = -40						; size = 4
tv206 = -36						; size = 4
tv375 = -32						; size = 4
_rdrData$ = -28						; size = 4
_i$ = -24						; size = 4
_rdrObj$ = -20						; size = 4
_this$ = -16						; size = 4
_str$ = -12						; size = 8
__$ArrayPad$ = -4					; size = 4
?VSDisplay@RadarDopplerClass@@IAEXXZ PROC		; RadarDopplerClass::VSDisplay
; _this$ = ecx

; 1903 : {

	push	ebp
	mov	ebp, esp
	sub	esp, 76					; 0000004cH
	mov	eax, DWORD PTR ___security_cookie
	xor	eax, ebp
	mov	DWORD PTR __$ArrayPad$[ebp], eax
	mov	DWORD PTR _this$[ebp], ecx

; 1904 : 	int   i;
; 1905 : 	float xPos, yPos;
; 1906 : 	SimObjectType* rdrObj = platform->targetList;

	mov	eax, DWORD PTR _this$[ebp]
	mov	ecx, DWORD PTR [eax+32]
	mov	edx, DWORD PTR [ecx+660]
	mov	DWORD PTR _rdrObj$[ebp], edx

; 1907 : 	SimObjectLocalData* rdrData;
; 1908 : 	float alt;
; 1909 : 	char str[8];
; 1910 : 	int tmpColor = display->Color();

	mov	eax, DWORD PTR _this$[ebp]
	mov	ecx, DWORD PTR [eax+20]
	mov	edx, DWORD PTR _this$[ebp]
	mov	eax, DWORD PTR [ecx]
	mov	ecx, DWORD PTR [edx+20]
	mov	edx, DWORD PTR [eax+108]
	call	edx
	mov	DWORD PTR _tmpColor$[ebp], eax

; 1911 : 	FireControlComputer* pFCC = ((SimVehicleClass*)platform)->GetFCC();

	mov	eax, DWORD PTR _this$[ebp]
	mov	ecx, DWORD PTR [eax+32]
	mov	edx, DWORD PTR _this$[ebp]
	mov	eax, DWORD PTR [ecx]
	mov	ecx, DWORD PTR [edx+32]
	mov	edx, DWORD PTR [eax+460]
	call	edx
	mov	DWORD PTR _pFCC$[ebp], eax

; 1912 : 	//MI
; 1913 : 	Pointer = 0;

	mov	eax, DWORD PTR _this$[ebp]
	mov	DWORD PTR [eax+596], 0

; 1914 : 
; 1915 : 	display->SetColor(GetMfdColor (MFD_LABELS));

	push	0
	mov	ecx, DWORD PTR _this$[ebp]
	call	?GetMfdColor@DrawableClass@@QAEIW4MfdColor@@@Z ; DrawableClass::GetMfdColor
	push	eax
	mov	ecx, DWORD PTR _this$[ebp]
	mov	edx, DWORD PTR [ecx+20]
	mov	eax, DWORD PTR _this$[ebp]
	mov	edx, DWORD PTR [edx]
	mov	ecx, DWORD PTR [eax+20]
	mov	eax, DWORD PTR [edx+92]
	call	eax

; 1916 : 
; 1917 : 	// OSS Button Labels
; 1918 : 
; 1919 : 	if(IsAADclt(MajorMode) == FALSE) LabelButton (0, "CRM");

	push	1
	mov	ecx, DWORD PTR _this$[ebp]
	call	?IsAADclt@RadarDopplerClass@@IAEHH@Z	; RadarDopplerClass::IsAADclt
	test	eax, eax
	jne	SHORT $LN21@VSDisplay
	push	0
	push	0
	push	OFFSET ??_C@_03HNPFBMKG@CRM?$AA@
	push	0
	mov	ecx, DWORD PTR _this$[ebp]
	call	?LabelButton@DrawableClass@@QAEXHPAD0H@Z ; DrawableClass::LabelButton
$LN21@VSDisplay:

; 1920 : 	//MI this is VSR, not VS
; 1921 : 	if(!g_bRealisticAvionics)

	movzx	ecx, BYTE PTR ?g_bRealisticAvionics@@3_NA ; g_bRealisticAvionics
	test	ecx, ecx
	jne	SHORT $LN20@VSDisplay

; 1922 : 	{
; 1923 : 		if(IsAADclt(SubMode) == FALSE) LabelButton (1, "VS");

	push	2
	mov	ecx, DWORD PTR _this$[ebp]
	call	?IsAADclt@RadarDopplerClass@@IAEHH@Z	; RadarDopplerClass::IsAADclt
	test	eax, eax
	jne	SHORT $LN19@VSDisplay
	push	0
	push	0
	push	OFFSET ??_C@_02PJBJHKHI@VS?$AA@
	push	1
	mov	ecx, DWORD PTR _this$[ebp]
	call	?LabelButton@DrawableClass@@QAEXHPAD0H@Z ; DrawableClass::LabelButton
$LN19@VSDisplay:

; 1924 : 	}
; 1925 : 	else

	jmp	SHORT $LN17@VSDisplay
$LN20@VSDisplay:

; 1926 : 	{
; 1927 : 		if(IsAADclt(SubMode) == FALSE) LabelButton (1, "VSR");

	push	2
	mov	ecx, DWORD PTR _this$[ebp]
	call	?IsAADclt@RadarDopplerClass@@IAEHH@Z	; RadarDopplerClass::IsAADclt
	test	eax, eax
	jne	SHORT $LN17@VSDisplay
	push	0
	push	0
	push	OFFSET ??_C@_03NGKKNPKC@VSR?$AA@
	push	1
	mov	ecx, DWORD PTR _this$[ebp]
	call	?LabelButton@DrawableClass@@QAEXHPAD0H@Z ; DrawableClass::LabelButton
$LN17@VSDisplay:

; 1928 : 	}
; 1929 : 
; 1930 : 	if(IsAADclt(Ovrd) == FALSE) LabelButton (3, "OVRD", NULL, !isEmitting);

	push	8
	mov	ecx, DWORD PTR _this$[ebp]
	call	?IsAADclt@RadarDopplerClass@@IAEHH@Z	; RadarDopplerClass::IsAADclt
	test	eax, eax
	jne	SHORT $LN16@VSDisplay
	mov	edx, DWORD PTR _this$[ebp]
	cmp	DWORD PTR [edx+76], 0
	jne	SHORT $LN24@VSDisplay
	mov	DWORD PTR tv206[ebp], 1
	jmp	SHORT $LN25@VSDisplay
$LN24@VSDisplay:
	mov	DWORD PTR tv206[ebp], 0
$LN25@VSDisplay:
	mov	eax, DWORD PTR tv206[ebp]
	push	eax
	push	0
	push	OFFSET ??_C@_04PGDFOHNL@OVRD?$AA@
	push	3
	mov	ecx, DWORD PTR _this$[ebp]
	call	?LabelButton@DrawableClass@@QAEXHPAD0H@Z ; DrawableClass::LabelButton
$LN16@VSDisplay:

; 1931 : 	if(IsAADclt(Cntl) == FALSE) LabelButton (4, "CTNL", NULL, IsSet(CtlMode));

	push	16					; 00000010H
	mov	ecx, DWORD PTR _this$[ebp]
	call	?IsAADclt@RadarDopplerClass@@IAEHH@Z	; RadarDopplerClass::IsAADclt
	test	eax, eax
	jne	SHORT $LN15@VSDisplay
	push	2097152					; 00200000H
	mov	ecx, DWORD PTR _this$[ebp]
	call	?IsSet@RadarDopplerClass@@QAEHH@Z	; RadarDopplerClass::IsSet
	push	eax
	push	0
	push	OFFSET ??_C@_04EECJBCEN@CTNL?$AA@
	push	4
	mov	ecx, DWORD PTR _this$[ebp]
	call	?LabelButton@DrawableClass@@QAEXHPAD0H@Z ; DrawableClass::LabelButton
$LN15@VSDisplay:

; 1932 : 	if (IsSet(MenuMode|CtlMode)) 

	push	3145728					; 00300000H
	mov	ecx, DWORD PTR _this$[ebp]
	call	?IsSet@RadarDopplerClass@@QAEHH@Z	; RadarDopplerClass::IsSet
	test	eax, eax
	je	SHORT $LN14@VSDisplay

; 1933 : 		MENUDisplay();

	mov	ecx, DWORD PTR _this$[ebp]
	call	?MENUDisplay@RadarDopplerClass@@IAEXXZ	; RadarDopplerClass::MENUDisplay

; 1934 : 	else

	jmp	SHORT $LN13@VSDisplay
$LN14@VSDisplay:

; 1935 : 		AABottomRow ();

	mov	ecx, DWORD PTR _this$[ebp]
	call	?AABottomRow@RadarDopplerClass@@IAEXXZ	; RadarDopplerClass::AABottomRow
$LN13@VSDisplay:

; 1936 : 
; 1937 : 	if (IsSet(STTingTarget))

	push	65536					; 00010000H
	mov	ecx, DWORD PTR _this$[ebp]
	call	?IsSet@RadarDopplerClass@@QAEHH@Z	; RadarDopplerClass::IsSet
	test	eax, eax
	je	SHORT $LN12@VSDisplay

; 1938 : 	{
; 1939 : 		STTDisplay();

	mov	ecx, DWORD PTR _this$[ebp]
	call	?STTDisplay@RadarDopplerClass@@IAEXXZ	; RadarDopplerClass::STTDisplay

; 1940 : 	}
; 1941 : 	else

	jmp	$LN9@VSDisplay
$LN12@VSDisplay:

; 1942 : 	{
; 1943 : 		// Set the viewport
; 1944 : 		display->SetViewportRelative (DisplayAreaViewLeft, DisplayAreaViewTop, DisplayAreaViewRight, DisplayAreaViewBottom);

	push	ecx
	movss	xmm0, DWORD PTR _DisplayAreaViewBottom
	movss	DWORD PTR [esp], xmm0
	push	ecx
	movss	xmm0, DWORD PTR _DisplayAreaViewRight
	movss	DWORD PTR [esp], xmm0
	push	ecx
	movss	xmm0, DWORD PTR _DisplayAreaViewTop
	movss	DWORD PTR [esp], xmm0
	push	ecx
	movss	xmm0, DWORD PTR _DisplayAreaViewLeft
	movss	DWORD PTR [esp], xmm0
	mov	ecx, DWORD PTR _this$[ebp]
	mov	edx, DWORD PTR [ecx+20]
	mov	eax, DWORD PTR _this$[ebp]
	mov	edx, DWORD PTR [edx]
	mov	ecx, DWORD PTR [eax+20]
	mov	eax, DWORD PTR [edx+116]
	call	eax

; 1945 : 		DrawAzLimitMarkers();

	mov	ecx, DWORD PTR _this$[ebp]
	call	?DrawAzLimitMarkers@RadarDopplerClass@@IAEXXZ ; RadarDopplerClass::DrawAzLimitMarkers
$LN10@VSDisplay:

; 1946 : 
; 1947 : 		/*-----------------*/
; 1948 : 		/* for all objects */
; 1949 : 		/*-----------------*/
; 1950 : 		while (rdrObj)

	cmp	DWORD PTR _rdrObj$[ebp], 0
	je	$LN9@VSDisplay

; 1951 : 		{
; 1952 : 			rdrData = rdrObj->localData;

	mov	ecx, DWORD PTR _rdrObj$[ebp]
	mov	edx, DWORD PTR [ecx+12]
	mov	DWORD PTR _rdrData$[ebp], edx

; 1953 : 
; 1954 : 			/*-------------------------*/
; 1955 : 			/* show target and history */
; 1956 : 			/*-------------------------*/
; 1957 : 			for (i=histno-1; i>=0; i--)// dynamic history

	mov	eax, DWORD PTR _this$[ebp]
	mov	ecx, DWORD PTR [eax+552]
	sub	ecx, 1
	mov	DWORD PTR _i$[ebp], ecx
	jmp	SHORT $LN8@VSDisplay
$LN7@VSDisplay:
	mov	edx, DWORD PTR _i$[ebp]
	sub	edx, 1
	mov	DWORD PTR _i$[ebp], edx
$LN8@VSDisplay:
	cmp	DWORD PTR _i$[ebp], 0
	jl	$LN6@VSDisplay

; 1958 : 			{
; 1959 : 				if (rdrData->rdrY[i] > 1.0)

	mov	eax, DWORD PTR _i$[ebp]
	mov	ecx, DWORD PTR _rdrData$[ebp]
	cvtss2sd xmm0, DWORD PTR [ecx+eax*4+104]
	comisd	xmm0, QWORD PTR __real@3ff0000000000000
	jbe	$LN3@VSDisplay

; 1960 : 				{
; 1961 : 					//MI
; 1962 : 					Pointer++;

	mov	edx, DWORD PTR _this$[ebp]
	mov	eax, DWORD PTR [edx+596]
	add	eax, 1
	mov	ecx, DWORD PTR _this$[ebp]
	mov	DWORD PTR [ecx+596], eax

; 1963 : 					if(Pointer > 19)

	mov	edx, DWORD PTR _this$[ebp]
	cmp	DWORD PTR [edx+596], 19			; 00000013H
	jle	SHORT $LN4@VSDisplay

; 1964 : 						Pointer = 0;

	mov	eax, DWORD PTR _this$[ebp]
	mov	DWORD PTR [eax+596], 0
$LN4@VSDisplay:

; 1965 : 					TargetToXY(rdrData, i, displayRange, &xPos, &yPos);

	lea	ecx, DWORD PTR _yPos$[ebp]
	push	ecx
	lea	edx, DWORD PTR _xPos$[ebp]
	push	edx
	mov	eax, DWORD PTR _this$[ebp]
	push	ecx
	movss	xmm0, DWORD PTR [eax+212]
	movss	DWORD PTR [esp], xmm0
	mov	ecx, DWORD PTR _i$[ebp]
	push	ecx
	mov	edx, DWORD PTR _rdrData$[ebp]
	push	edx
	mov	ecx, DWORD PTR _this$[ebp]
	call	?TargetToXY@RadarDopplerClass@@QAEXPAVSimObjectLocalData@@HMPAM1@Z ; RadarDopplerClass::TargetToXY

; 1966 : 					/*----------------------------*/
; 1967 : 					/* keep objects on the screen */
; 1968 : 					/*----------------------------*/
; 1969 : 					if (fabs(xPos) < AZL && fabs(yPos) < AZL)

	push	ecx
	movss	xmm0, DWORD PTR _xPos$[ebp]
	movss	DWORD PTR [esp], xmm0
	call	?fabs@@YAMM@Z				; fabs
	add	esp, 4
	fstp	DWORD PTR tv475[ebp]
	movss	xmm0, DWORD PTR __real@3f800000
	comiss	xmm0, DWORD PTR tv475[ebp]
	jbe	$LN3@VSDisplay
	push	ecx
	movss	xmm0, DWORD PTR _yPos$[ebp]
	movss	DWORD PTR [esp], xmm0
	call	?fabs@@YAMM@Z				; fabs
	add	esp, 4
	fstp	DWORD PTR tv482[ebp]
	movss	xmm0, DWORD PTR __real@3f800000
	comiss	xmm0, DWORD PTR tv482[ebp]
	jbe	$LN3@VSDisplay

; 1970 : 					{
; 1971 : 						display->AdjustOriginInViewport (xPos, yPos);

	push	ecx
	movss	xmm0, DWORD PTR _yPos$[ebp]
	movss	DWORD PTR [esp], xmm0
	push	ecx
	movss	xmm0, DWORD PTR _xPos$[ebp]
	movss	DWORD PTR [esp], xmm0
	mov	eax, DWORD PTR _this$[ebp]
	mov	ecx, DWORD PTR [eax+20]
	call	?AdjustOriginInViewport@VirtualDisplay@@QAEXMM@Z ; VirtualDisplay::AdjustOriginInViewport

; 1972 : 						// JPO work out the track color by reducing each component in turn
; 1973 : 						DrawSymbol(rdrData->rdrSy[i], 0.0F, i);

	push	0
	mov	ecx, DWORD PTR _i$[ebp]
	push	ecx
	push	ecx
	movss	xmm0, DWORD PTR __real@00000000
	movss	DWORD PTR [esp], xmm0
	mov	edx, DWORD PTR _i$[ebp]
	mov	eax, DWORD PTR _rdrData$[ebp]
	mov	ecx, DWORD PTR [eax+edx*4+72]
	push	ecx
	mov	ecx, DWORD PTR _this$[ebp]
	call	?DrawSymbol@RadarDopplerClass@@IAEXHMHH@Z ; RadarDopplerClass::DrawSymbol

; 1974 : 						display->SetColor(GetMfdColor(MFD_UNKNOWN)); // JPO draw in yellow

	push	3
	mov	ecx, DWORD PTR _this$[ebp]
	call	?GetMfdColor@DrawableClass@@QAEIW4MfdColor@@@Z ; DrawableClass::GetMfdColor
	push	eax
	mov	edx, DWORD PTR _this$[ebp]
	mov	eax, DWORD PTR [edx+20]
	mov	ecx, DWORD PTR _this$[ebp]
	mov	edx, DWORD PTR [eax]
	mov	ecx, DWORD PTR [ecx+20]
	mov	eax, DWORD PTR [edx+92]
	call	eax

; 1975 : 
; 1976 : 						if (rdrObj->BaseData()->Id() == targetUnderCursor)

	mov	ecx, DWORD PTR _this$[ebp]
	add	ecx, 36					; 00000024H
	push	ecx
	lea	edx, DWORD PTR $T1[ebp]
	push	edx
	mov	ecx, DWORD PTR _rdrObj$[ebp]
	call	?BaseData@SimObjectType@@QAEPAVFalconEntity@@XZ ; SimObjectType::BaseData
	mov	ecx, eax
	call	?Id@VuEntity@@QBE?AVVU_ID@@XZ		; VuEntity::Id
	mov	ecx, eax
	call	??8VU_ID@@QBE_NABV0@@Z			; VU_ID::operator==
	movzx	eax, al
	test	eax, eax
	je	$LN2@VSDisplay

; 1977 : 						{
; 1978 : 							alt  = -rdrObj->BaseData()->ZPos();

	mov	ecx, DWORD PTR _rdrObj$[ebp]
	call	?BaseData@SimObjectType@@QAEPAVFalconEntity@@XZ ; SimObjectType::BaseData
	mov	ecx, eax
	call	?ZPos@VuEntity@@QBEMXZ			; VuEntity::ZPos
	fstp	DWORD PTR tv508[ebp]
	movss	xmm0, DWORD PTR tv508[ebp]
	xorps	xmm0, DWORD PTR __xmm@80000000800000008000000080000000
	movss	DWORD PTR _alt$[ebp], xmm0

; 1979 : 							sprintf(str,"%02d",(int)((alt + 500.0F)*0.001));

	movss	xmm0, DWORD PTR _alt$[ebp]
	addss	xmm0, DWORD PTR __real@43fa0000
	cvtss2sd xmm0, xmm0
	mulsd	xmm0, QWORD PTR __real@3f50624dd2f1a9fc
	cvttsd2si ecx, xmm0
	push	ecx
	push	OFFSET ??_C@_04OGKJMPGK@?$CF02d?$AA@
	lea	edx, DWORD PTR _str$[ebp]
	push	edx
	call	_sprintf
	add	esp, 12					; 0000000cH

; 1980 : 							ShiAssert (strlen(str) < sizeof(str));
; 1981 : 							display->TextCenter(0.0F, -0.05F, str);

	push	0
	lea	eax, DWORD PTR _str$[ebp]
	push	eax
	push	ecx
	movss	xmm0, DWORD PTR __real@bd4ccccd
	movss	DWORD PTR [esp], xmm0
	push	ecx
	movss	xmm0, DWORD PTR __real@00000000
	movss	DWORD PTR [esp], xmm0
	mov	ecx, DWORD PTR _this$[ebp]
	mov	edx, DWORD PTR [ecx+20]
	mov	eax, DWORD PTR _this$[ebp]
	mov	edx, DWORD PTR [edx]
	mov	ecx, DWORD PTR [eax+20]
	mov	eax, DWORD PTR [edx+72]
	call	eax
$LN2@VSDisplay:

; 1982 : 						}
; 1983 : 
; 1984 : 						// SCR 9/9/98  If target is jamming, indicate such
; 1985 : 						if (rdrObj->BaseData()->IsSPJamming())

	mov	ecx, DWORD PTR _rdrObj$[ebp]
	call	?BaseData@SimObjectType@@QAEPAVFalconEntity@@XZ ; SimObjectType::BaseData
	mov	DWORD PTR tv375[ebp], eax
	mov	ecx, DWORD PTR tv375[ebp]
	mov	edx, DWORD PTR [ecx]
	mov	ecx, DWORD PTR tv375[ebp]
	mov	eax, DWORD PTR [edx+268]
	call	eax
	test	eax, eax
	je	SHORT $LN1@VSDisplay

; 1986 : 						{
; 1987 : 							DrawSymbol( Jam, 0.0f, 0 );

	push	0
	push	0
	push	ecx
	movss	xmm0, DWORD PTR __real@00000000
	movss	DWORD PTR [esp], xmm0
	push	14					; 0000000eH
	mov	ecx, DWORD PTR _this$[ebp]
	call	?DrawSymbol@RadarDopplerClass@@IAEXHMHH@Z ; RadarDopplerClass::DrawSymbol
$LN1@VSDisplay:

; 1988 : 						}
; 1989 : 						display->SetColor(tmpColor);

	mov	ecx, DWORD PTR _tmpColor$[ebp]
	push	ecx
	mov	edx, DWORD PTR _this$[ebp]
	mov	eax, DWORD PTR [edx+20]
	mov	ecx, DWORD PTR _this$[ebp]
	mov	edx, DWORD PTR [eax]
	mov	ecx, DWORD PTR [ecx+20]
	mov	eax, DWORD PTR [edx+92]
	call	eax

; 1990 : 						display->CenterOriginInViewport();

	mov	ecx, DWORD PTR _this$[ebp]
	mov	ecx, DWORD PTR [ecx+20]
	call	?CenterOriginInViewport@VirtualDisplay@@QAEXXZ ; VirtualDisplay::CenterOriginInViewport
$LN3@VSDisplay:

; 1991 : 					}
; 1992 : 				}
; 1993 : 			}

	jmp	$LN7@VSDisplay
$LN6@VSDisplay:

; 1994 : 			rdrObj = rdrObj->next;

	mov	edx, DWORD PTR _rdrObj$[ebp]
	mov	eax, DWORD PTR [edx+16]
	mov	DWORD PTR _rdrObj$[ebp], eax

; 1995 : 		}

	jmp	$LN10@VSDisplay
$LN9@VSDisplay:

; 1996 : 	}
; 1997 : }

	mov	ecx, DWORD PTR __$ArrayPad$[ebp]
	xor	ecx, ebp
	call	@__security_check_cookie@4
	mov	esp, ebp
	pop	ebp
	ret	0
?VSDisplay@RadarDopplerClass@@IAEXXZ ENDP		; RadarDopplerClass::VSDisplay
_TEXT	ENDS
; Function compile flags: /Odtp
; File c:\users\zhitao li\documents\visual studio 2012\projects\freefalcon\sim\radar\bscope.cpp
_TEXT	SEGMENT
tv171 = -8						; size = 4
_this$ = -4						; size = 4
?VSModeDisplay@RadarDopplerClass@@IAEXXZ PROC		; RadarDopplerClass::VSModeDisplay
; _this$ = ecx

; 1737 : {

	push	ebp
	mov	ebp, esp
	sub	esp, 8
	mov	DWORD PTR _this$[ebp], ecx

; 1738 : 	display->SetColor(GetMfdColor (MFD_LABELS));

	push	0
	mov	ecx, DWORD PTR _this$[ebp]
	call	?GetMfdColor@DrawableClass@@QAEIW4MfdColor@@@Z ; DrawableClass::GetMfdColor
	push	eax
	mov	eax, DWORD PTR _this$[ebp]
	mov	ecx, DWORD PTR [eax+20]
	mov	edx, DWORD PTR _this$[ebp]
	mov	eax, DWORD PTR [ecx]
	mov	ecx, DWORD PTR [edx+20]
	mov	edx, DWORD PTR [eax+92]
	call	edx

; 1739 : 	// OSS Button Labels
; 1740 : 	if(IsAADclt(MajorMode) == FALSE) LabelButton (0, "CRM");

	push	1
	mov	ecx, DWORD PTR _this$[ebp]
	call	?IsAADclt@RadarDopplerClass@@IAEHH@Z	; RadarDopplerClass::IsAADclt
	test	eax, eax
	jne	SHORT $LN10@VSModeDisp
	push	0
	push	0
	push	OFFSET ??_C@_03HNPFBMKG@CRM?$AA@
	push	0
	mov	ecx, DWORD PTR _this$[ebp]
	call	?LabelButton@DrawableClass@@QAEXHPAD0H@Z ; DrawableClass::LabelButton
$LN10@VSModeDisp:

; 1741 : 	//MI this is labeled VSR, not VS
; 1742 : 	if(!g_bRealisticAvionics)

	movzx	eax, BYTE PTR ?g_bRealisticAvionics@@3_NA ; g_bRealisticAvionics
	test	eax, eax
	jne	SHORT $LN9@VSModeDisp

; 1743 : 	{
; 1744 : 		if(IsAADclt(SubMode) == FALSE) LabelButton (1, "VS");

	push	2
	mov	ecx, DWORD PTR _this$[ebp]
	call	?IsAADclt@RadarDopplerClass@@IAEHH@Z	; RadarDopplerClass::IsAADclt
	test	eax, eax
	jne	SHORT $LN8@VSModeDisp
	push	0
	push	0
	push	OFFSET ??_C@_02PJBJHKHI@VS?$AA@
	push	1
	mov	ecx, DWORD PTR _this$[ebp]
	call	?LabelButton@DrawableClass@@QAEXHPAD0H@Z ; DrawableClass::LabelButton
$LN8@VSModeDisp:

; 1745 : 	}
; 1746 : 	else

	jmp	SHORT $LN7@VSModeDisp
$LN9@VSModeDisp:

; 1747 : 	{
; 1748 : 		if(IsAADclt(SubMode) == FALSE) LabelButton (1, "VSR");

	push	2
	mov	ecx, DWORD PTR _this$[ebp]
	call	?IsAADclt@RadarDopplerClass@@IAEHH@Z	; RadarDopplerClass::IsAADclt
	test	eax, eax
	jne	SHORT $LN7@VSModeDisp
	push	0
	push	0
	push	OFFSET ??_C@_03NGKKNPKC@VSR?$AA@
	push	1
	mov	ecx, DWORD PTR _this$[ebp]
	call	?LabelButton@DrawableClass@@QAEXHPAD0H@Z ; DrawableClass::LabelButton
$LN7@VSModeDisp:

; 1749 : 	}
; 1750 : 
; 1751 : 	if(IsAADclt(Ovrd) == FALSE) LabelButton (3, "OVRD", NULL, !isEmitting);

	push	8
	mov	ecx, DWORD PTR _this$[ebp]
	call	?IsAADclt@RadarDopplerClass@@IAEHH@Z	; RadarDopplerClass::IsAADclt
	test	eax, eax
	jne	SHORT $LN5@VSModeDisp
	mov	ecx, DWORD PTR _this$[ebp]
	cmp	DWORD PTR [ecx+76], 0
	jne	SHORT $LN13@VSModeDisp
	mov	DWORD PTR tv171[ebp], 1
	jmp	SHORT $LN14@VSModeDisp
$LN13@VSModeDisp:
	mov	DWORD PTR tv171[ebp], 0
$LN14@VSModeDisp:
	mov	edx, DWORD PTR tv171[ebp]
	push	edx
	push	0
	push	OFFSET ??_C@_04PGDFOHNL@OVRD?$AA@
	push	3
	mov	ecx, DWORD PTR _this$[ebp]
	call	?LabelButton@DrawableClass@@QAEXHPAD0H@Z ; DrawableClass::LabelButton
$LN5@VSModeDisp:

; 1752 : 	if(IsAADclt(Cntl) == FALSE) LabelButton (4, "CTNL", NULL, IsSet(CtlMode));

	push	16					; 00000010H
	mov	ecx, DWORD PTR _this$[ebp]
	call	?IsAADclt@RadarDopplerClass@@IAEHH@Z	; RadarDopplerClass::IsAADclt
	test	eax, eax
	jne	SHORT $LN4@VSModeDisp
	push	2097152					; 00200000H
	mov	ecx, DWORD PTR _this$[ebp]
	call	?IsSet@RadarDopplerClass@@QAEHH@Z	; RadarDopplerClass::IsSet
	push	eax
	push	0
	push	OFFSET ??_C@_04EECJBCEN@CTNL?$AA@
	push	4
	mov	ecx, DWORD PTR _this$[ebp]
	call	?LabelButton@DrawableClass@@QAEXHPAD0H@Z ; DrawableClass::LabelButton
$LN4@VSModeDisp:

; 1753 : 	if (IsSet(MenuMode|CtlMode))

	push	3145728					; 00300000H
	mov	ecx, DWORD PTR _this$[ebp]
	call	?IsSet@RadarDopplerClass@@QAEHH@Z	; RadarDopplerClass::IsSet
	test	eax, eax
	je	SHORT $LN3@VSModeDisp

; 1754 : 		MENUDisplay();

	mov	ecx, DWORD PTR _this$[ebp]
	call	?MENUDisplay@RadarDopplerClass@@IAEXXZ	; RadarDopplerClass::MENUDisplay

; 1755 : 	else

	jmp	SHORT $LN2@VSModeDisp
$LN3@VSModeDisp:

; 1756 : 		AABottomRow ();

	mov	ecx, DWORD PTR _this$[ebp]
	call	?AABottomRow@RadarDopplerClass@@IAEXXZ	; RadarDopplerClass::AABottomRow
$LN2@VSModeDisp:

; 1757 : 
; 1758 : 	if (IsSet(STTingTarget))

	push	65536					; 00010000H
	mov	ecx, DWORD PTR _this$[ebp]
	call	?IsSet@RadarDopplerClass@@QAEHH@Z	; RadarDopplerClass::IsSet
	test	eax, eax
	je	SHORT $LN11@VSModeDisp

; 1759 : 		STTDisplay();

	mov	ecx, DWORD PTR _this$[ebp]
	call	?STTDisplay@RadarDopplerClass@@IAEXXZ	; RadarDopplerClass::STTDisplay
$LN11@VSModeDisp:

; 1760 : }

	mov	esp, ebp
	pop	ebp
	ret	0
?VSModeDisplay@RadarDopplerClass@@IAEXXZ ENDP		; RadarDopplerClass::VSModeDisplay
_TEXT	ENDS
; Function compile flags: /Odtp
; File c:\users\zhitao li\documents\visual studio 2012\projects\freefalcon\sim\radar\bscope.cpp
_TEXT	SEGMENT
tv902 = -136						; size = 8
tv927 = -128						; size = 4
tv794 = -124						; size = 4
tv826 = -120						; size = 4
_tmpColor$ = -116					; size = 4
tv699 = -112						; size = 4
_bcol$1 = -108						; size = 4
tv820 = -104						; size = 4
_alt$ = -100						; size = 4
tv813 = -96						; size = 4
tv873 = -92						; size = 4
tv833 = -88						; size = 4
tv801 = -84						; size = 4
tv255 = -80						; size = 4
tv332 = -76						; size = 4
tv591 = -72						; size = 4
tv289 = -68						; size = 4
tv241 = -64						; size = 4
tv319 = -60						; size = 4
tv438 = -56						; size = 4
tv254 = -52						; size = 4
_yPos$ = -48						; size = 4
tv899 = -44						; size = 4
_vt$ = -40						; size = 4
_xPos$ = -36						; size = 4
_pFCC$ = -32						; size = 4
tv161 = -25						; size = 1
_ang$ = -24						; size = 4
_this$ = -20						; size = 4
_str$ = -16						; size = 12
__$ArrayPad$ = -4					; size = 4
?STTDisplay@RadarDopplerClass@@IAEXXZ PROC		; RadarDopplerClass::STTDisplay
; _this$ = ecx

; 1763 : {

	push	ebp
	mov	ebp, esp
	sub	esp, 136				; 00000088H
	mov	eax, DWORD PTR ___security_cookie
	xor	eax, ebp
	mov	DWORD PTR __$ArrayPad$[ebp], eax
	mov	DWORD PTR _this$[ebp], ecx

; 1764 : 	float xPos, yPos, alt;
; 1765 : 	char  str[12];
; 1766 : 	float ang, vt;
; 1767 : 	FireControlComputer* pFCC = ((SimVehicleClass*)platform)->GetFCC();

	mov	eax, DWORD PTR _this$[ebp]
	mov	ecx, DWORD PTR [eax+32]
	mov	edx, DWORD PTR _this$[ebp]
	mov	eax, DWORD PTR [ecx]
	mov	ecx, DWORD PTR [edx+32]
	mov	edx, DWORD PTR [eax+460]
	call	edx
	mov	DWORD PTR _pFCC$[ebp], eax

; 1768 : 	int tmpColor = display->Color();

	mov	eax, DWORD PTR _this$[ebp]
	mov	ecx, DWORD PTR [eax+20]
	mov	edx, DWORD PTR _this$[ebp]
	mov	eax, DWORD PTR [ecx]
	mov	ecx, DWORD PTR [edx+20]
	mov	edx, DWORD PTR [eax+108]
	call	edx
	mov	DWORD PTR _tmpColor$[ebp], eax

; 1769 : 	//MI
; 1770 : 	Pointer = 0;

	mov	eax, DWORD PTR _this$[ebp]
	mov	DWORD PTR [eax+596], 0

; 1771 : 
; 1772 : 	if (!lockedTarget)

	mov	ecx, DWORD PTR _this$[ebp]
	cmp	DWORD PTR [ecx+48], 0
	jne	SHORT $LN22@STTDisplay

; 1773 : 		return;

	jmp	$LN23@STTDisplay
$LN22@STTDisplay:

; 1774 : 
; 1775 : 	if (pFCC->GetSubMode() == FireControlComputer::Aim120 && pFCC->missileTarget)

	mov	ecx, DWORD PTR _pFCC$[ebp]
	call	?GetSubMode@FireControlComputer@@QAE?AW4FCCSubMode@1@XZ ; FireControlComputer::GetSubMode
	cmp	eax, 6
	jne	SHORT $LN21@STTDisplay
	mov	edx, DWORD PTR _pFCC$[ebp]
	movsx	eax, BYTE PTR [edx+192]
	test	eax, eax
	je	SHORT $LN21@STTDisplay

; 1776 : 		DrawDLZSymbol();

	mov	ecx, DWORD PTR _this$[ebp]
	call	?DrawDLZSymbol@RadarDopplerClass@@IAEXXZ ; RadarDopplerClass::DrawDLZSymbol
$LN21@STTDisplay:

; 1777 : 
; 1778 : 	display->SetColor(GetMfdColor (MFD_TGT_CLOSURE_RATE));

	push	1
	mov	ecx, DWORD PTR _this$[ebp]
	call	?GetMfdColor@DrawableClass@@QAEIW4MfdColor@@@Z ; DrawableClass::GetMfdColor
	push	eax
	mov	ecx, DWORD PTR _this$[ebp]
	mov	edx, DWORD PTR [ecx+20]
	mov	eax, DWORD PTR _this$[ebp]
	mov	edx, DWORD PTR [edx]
	mov	ecx, DWORD PTR [eax+20]
	mov	eax, DWORD PTR [edx+92]
	call	eax

; 1779 : 
; 1780 : 	// Aspect 
; 1781 : 	sprintf (str, "%02.0f%c", (lockedTargetData->aspect * RTD) * 0.1F,
; 1782 : 					(lockedTargetData->azFrom > 0.0F ? 'R' : 'L'));

	mov	ecx, DWORD PTR _this$[ebp]
	mov	edx, DWORD PTR [ecx+176]
	movss	xmm0, DWORD PTR [edx+20]
	comiss	xmm0, DWORD PTR __real@00000000
	jbe	SHORT $LN25@STTDisplay
	mov	BYTE PTR tv161[ebp], 82			; 00000052H
	jmp	SHORT $LN26@STTDisplay
$LN25@STTDisplay:
	mov	BYTE PTR tv161[ebp], 76			; 0000004cH
$LN26@STTDisplay:
	movsx	eax, BYTE PTR tv161[ebp]
	push	eax
	mov	ecx, DWORD PTR _this$[ebp]
	mov	edx, DWORD PTR [ecx+176]
	movss	xmm0, DWORD PTR [edx+68]
	mulss	xmm0, DWORD PTR __real@42652ee1
	mulss	xmm0, DWORD PTR __real@3dcccccd
	cvtss2sd xmm0, xmm0
	sub	esp, 8
	movsd	QWORD PTR [esp], xmm0
	push	OFFSET ??_C@_08JJDNADML@?$CF02?40f?$CFc?$AA@
	lea	eax, DWORD PTR _str$[ebp]
	push	eax
	call	_sprintf
	add	esp, 20					; 00000014H

; 1783 : 	display->TextLeft(-0.875F, SECOND_LINE_Y, str);

	push	0
	lea	ecx, DWORD PTR _str$[ebp]
	push	ecx
	push	ecx
	movss	xmm0, DWORD PTR __real@3f4ccccd
	movss	DWORD PTR [esp], xmm0
	push	ecx
	movss	xmm0, DWORD PTR __real@bf600000
	movss	DWORD PTR [esp], xmm0
	mov	edx, DWORD PTR _this$[ebp]
	mov	eax, DWORD PTR [edx+20]
	mov	ecx, DWORD PTR _this$[ebp]
	mov	edx, DWORD PTR [eax]
	mov	ecx, DWORD PTR [ecx+20]
	mov	eax, DWORD PTR [edx+56]
	call	eax

; 1784 : 	ShiAssert (strlen(str) < sizeof(str));
; 1785 : 
; 1786 : 	// Heading 
; 1787 : 	ang = static_cast<int>(((lockedTarget->BaseData()->Yaw()*RTD*.1f)+.5f))*10.0F;

	mov	ecx, DWORD PTR _this$[ebp]
	mov	ecx, DWORD PTR [ecx+48]
	call	?BaseData@SimObjectType@@QAEPAVFalconEntity@@XZ ; SimObjectType::BaseData
	mov	ecx, eax
	call	?Yaw@VuEntity@@QBEMXZ			; VuEntity::Yaw
	fstp	DWORD PTR tv699[ebp]
	movss	xmm0, DWORD PTR tv699[ebp]
	mulss	xmm0, DWORD PTR __real@42652ee1
	mulss	xmm0, DWORD PTR __real@3dcccccd
	addss	xmm0, DWORD PTR __real@3f000000
	cvttss2si edx, xmm0
	cvtsi2ss xmm0, edx
	mulss	xmm0, DWORD PTR __real@41200000
	movss	DWORD PTR _ang$[ebp], xmm0

; 1788 : 	if (ang < 0.0){

	cvtss2sd xmm0, DWORD PTR _ang$[ebp]
	movsd	xmm1, QWORD PTR __real@0000000000000000
	comisd	xmm1, xmm0
	jbe	SHORT $LN20@STTDisplay

; 1789 : 		ang += 360.0F;

	movss	xmm0, DWORD PTR _ang$[ebp]
	addss	xmm0, DWORD PTR __real@43b40000
	movss	DWORD PTR _ang$[ebp], xmm0
$LN20@STTDisplay:

; 1790 : 	}
; 1791 : 	sprintf (str, "%03.0f", ang);

	cvtss2sd xmm0, DWORD PTR _ang$[ebp]
	sub	esp, 8
	movsd	QWORD PTR [esp], xmm0
	push	OFFSET ??_C@_06EKMMACPN@?$CF03?40f?$AA@
	lea	eax, DWORD PTR _str$[ebp]
	push	eax
	call	_sprintf
	add	esp, 16					; 00000010H

; 1792 : 	ShiAssert (strlen(str) < sizeof(str));
; 1793 : 	display->TextLeft(-0.5F, SECOND_LINE_Y, str);

	push	0
	lea	ecx, DWORD PTR _str$[ebp]
	push	ecx
	push	ecx
	movss	xmm0, DWORD PTR __real@3f4ccccd
	movss	DWORD PTR [esp], xmm0
	push	ecx
	movss	xmm0, DWORD PTR __real@bf000000
	movss	DWORD PTR [esp], xmm0
	mov	edx, DWORD PTR _this$[ebp]
	mov	eax, DWORD PTR [edx+20]
	mov	ecx, DWORD PTR _this$[ebp]
	mov	edx, DWORD PTR [eax]
	mov	ecx, DWORD PTR [ecx+20]
	mov	eax, DWORD PTR [edx+56]
	call	eax

; 1794 : 
; 1795 : 	// Closure 
; 1796 : 	/*sprintf (str, "%03.0f", -lockedTargetData->rangedot * FTPSEC_TO_KNOTS);
; 1797 : 	ShiAssert (strlen(str) < sizeof(str));
; 1798 : 	display->TextRight (0.875F, SECOND_LINE_Y, str);*/
; 1799 : 	ang = max ( min (-lockedTargetData->rangedot * FTPSEC_TO_KNOTS, 1500.0F), -1500.0F);

	mov	ecx, DWORD PTR _this$[ebp]
	mov	edx, DWORD PTR [ecx+176]
	movss	xmm0, DWORD PTR [edx+48]
	xorps	xmm0, DWORD PTR __xmm@80000000800000008000000080000000
	mulss	xmm0, DWORD PTR __real@3f17ac60
	movss	xmm1, DWORD PTR __real@44bb8000
	comiss	xmm1, xmm0
	jbe	SHORT $LN27@STTDisplay
	mov	eax, DWORD PTR _this$[ebp]
	mov	ecx, DWORD PTR [eax+176]
	movss	xmm0, DWORD PTR [ecx+48]
	xorps	xmm0, DWORD PTR __xmm@80000000800000008000000080000000
	mulss	xmm0, DWORD PTR __real@3f17ac60
	movss	DWORD PTR tv241[ebp], xmm0
	jmp	SHORT $LN28@STTDisplay
$LN27@STTDisplay:
	movss	xmm0, DWORD PTR __real@44bb8000
	movss	DWORD PTR tv241[ebp], xmm0
$LN28@STTDisplay:
	movss	xmm0, DWORD PTR tv241[ebp]
	comiss	xmm0, DWORD PTR __real@c4bb8000
	jbe	SHORT $LN31@STTDisplay
	mov	edx, DWORD PTR _this$[ebp]
	mov	eax, DWORD PTR [edx+176]
	movss	xmm0, DWORD PTR [eax+48]
	xorps	xmm0, DWORD PTR __xmm@80000000800000008000000080000000
	mulss	xmm0, DWORD PTR __real@3f17ac60
	movss	xmm1, DWORD PTR __real@44bb8000
	comiss	xmm1, xmm0
	jbe	SHORT $LN29@STTDisplay
	mov	ecx, DWORD PTR _this$[ebp]
	mov	edx, DWORD PTR [ecx+176]
	movss	xmm0, DWORD PTR [edx+48]
	xorps	xmm0, DWORD PTR __xmm@80000000800000008000000080000000
	mulss	xmm0, DWORD PTR __real@3f17ac60
	movss	DWORD PTR tv254[ebp], xmm0
	jmp	SHORT $LN30@STTDisplay
$LN29@STTDisplay:
	movss	xmm0, DWORD PTR __real@44bb8000
	movss	DWORD PTR tv254[ebp], xmm0
$LN30@STTDisplay:
	movss	xmm0, DWORD PTR tv254[ebp]
	movss	DWORD PTR tv255[ebp], xmm0
	jmp	SHORT $LN32@STTDisplay
$LN31@STTDisplay:
	movss	xmm0, DWORD PTR __real@c4bb8000
	movss	DWORD PTR tv255[ebp], xmm0
$LN32@STTDisplay:
	movss	xmm0, DWORD PTR tv255[ebp]
	movss	DWORD PTR _ang$[ebp], xmm0

; 1800 : 	if (ang > 0){

	movss	xmm0, DWORD PTR _ang$[ebp]
	comiss	xmm0, DWORD PTR __real@00000000
	jbe	SHORT $LN19@STTDisplay

; 1801 : 		//Cobra at the + to closure	
; 1802 : 		sprintf (str, "+%03.0f", ang);

	cvtss2sd xmm0, DWORD PTR _ang$[ebp]
	sub	esp, 8
	movsd	QWORD PTR [esp], xmm0
	push	OFFSET ??_C@_07BGJOHMOK@?$CL?$CF03?40f?$AA@
	lea	eax, DWORD PTR _str$[ebp]
	push	eax
	call	_sprintf
	add	esp, 16					; 00000010H

; 1803 : 	}
; 1804 : 	else {

	jmp	SHORT $LN18@STTDisplay
$LN19@STTDisplay:

; 1805 : 		sprintf (str, "%03.0f", ang);

	cvtss2sd xmm0, DWORD PTR _ang$[ebp]
	sub	esp, 8
	movsd	QWORD PTR [esp], xmm0
	push	OFFSET ??_C@_06EKMMACPN@?$CF03?40f?$AA@
	lea	ecx, DWORD PTR _str$[ebp]
	push	ecx
	call	_sprintf
	add	esp, 16					; 00000010H
$LN18@STTDisplay:

; 1806 : 	}
; 1807 : 	ShiAssert( strlen(str) < sizeof(str) );
; 1808 :     display->TextRight (0.875F, SECOND_LINE_Y, str);

	push	0
	lea	edx, DWORD PTR _str$[ebp]
	push	edx
	push	ecx
	movss	xmm0, DWORD PTR __real@3f4ccccd
	movss	DWORD PTR [esp], xmm0
	push	ecx
	movss	xmm0, DWORD PTR __real@3f600000
	movss	DWORD PTR [esp], xmm0
	mov	eax, DWORD PTR _this$[ebp]
	mov	ecx, DWORD PTR [eax+20]
	mov	edx, DWORD PTR _this$[ebp]
	mov	eax, DWORD PTR [ecx]
	mov	ecx, DWORD PTR [edx+20]
	mov	edx, DWORD PTR [eax+60]
	call	edx

; 1809 : 
; 1810 : 	// TAS 
; 1811 : 	sprintf (str, "%03.0f", lockedTarget->BaseData()->GetKias());

	mov	eax, DWORD PTR _this$[ebp]
	mov	ecx, DWORD PTR [eax+48]
	call	?BaseData@SimObjectType@@QAEPAVFalconEntity@@XZ ; SimObjectType::BaseData
	mov	DWORD PTR tv289[ebp], eax
	mov	ecx, DWORD PTR tv289[ebp]
	mov	edx, DWORD PTR [ecx]
	mov	ecx, DWORD PTR tv289[ebp]
	mov	eax, DWORD PTR [edx+224]
	call	eax
	sub	esp, 8
	fstp	QWORD PTR [esp]
	push	OFFSET ??_C@_06EKMMACPN@?$CF03?40f?$AA@
	lea	ecx, DWORD PTR _str$[ebp]
	push	ecx
	call	_sprintf
	add	esp, 16					; 00000010H

; 1812 : 	ShiAssert (strlen(str) < sizeof(str));
; 1813 : 	display->TextRight (0.45F, SECOND_LINE_Y, str);

	push	0
	lea	edx, DWORD PTR _str$[ebp]
	push	edx
	push	ecx
	movss	xmm0, DWORD PTR __real@3f4ccccd
	movss	DWORD PTR [esp], xmm0
	push	ecx
	movss	xmm0, DWORD PTR __real@3ee66666
	movss	DWORD PTR [esp], xmm0
	mov	eax, DWORD PTR _this$[ebp]
	mov	ecx, DWORD PTR [eax+20]
	mov	edx, DWORD PTR _this$[ebp]
	mov	eax, DWORD PTR [ecx]
	mov	ecx, DWORD PTR [edx+20]
	mov	edx, DWORD PTR [eax+60]
	call	edx

; 1814 : 
; 1815 : 	// Add NCTR data for any bugged target //me123 addet check on ground & jamming
; 1816 : 	if (!lockedTarget->BaseData()->OnGround() || !lockedTarget->BaseData()->IsSPJamming()){

	mov	eax, DWORD PTR _this$[ebp]
	mov	ecx, DWORD PTR [eax+48]
	call	?BaseData@SimObjectType@@QAEPAVFalconEntity@@XZ ; SimObjectType::BaseData
	mov	DWORD PTR tv319[ebp], eax
	mov	ecx, DWORD PTR tv319[ebp]
	mov	edx, DWORD PTR [ecx]
	mov	ecx, DWORD PTR tv319[ebp]
	mov	eax, DWORD PTR [edx+148]
	call	eax
	test	eax, eax
	je	SHORT $LN16@STTDisplay
	mov	ecx, DWORD PTR _this$[ebp]
	mov	ecx, DWORD PTR [ecx+48]
	call	?BaseData@SimObjectType@@QAEPAVFalconEntity@@XZ ; SimObjectType::BaseData
	mov	DWORD PTR tv332[ebp], eax
	mov	edx, DWORD PTR tv332[ebp]
	mov	eax, DWORD PTR [edx]
	mov	ecx, DWORD PTR tv332[ebp]
	mov	edx, DWORD PTR [eax+268]
	call	edx
	test	eax, eax
	jne	SHORT $LN17@STTDisplay
$LN16@STTDisplay:

; 1817 : 		DrawNCTR(false);

	push	0
	mov	ecx, DWORD PTR _this$[ebp]
	call	?DrawNCTR@RadarDopplerClass@@IAEX_N@Z	; RadarDopplerClass::DrawNCTR
$LN17@STTDisplay:

; 1818 : 	}
; 1819 : 	// Set the viewport
; 1820 : 	display->SetViewportRelative(
; 1821 : 		DisplayAreaViewLeft, DisplayAreaViewTop, DisplayAreaViewRight, DisplayAreaViewBottom
; 1822 : 	);

	push	ecx
	movss	xmm0, DWORD PTR _DisplayAreaViewBottom
	movss	DWORD PTR [esp], xmm0
	push	ecx
	movss	xmm0, DWORD PTR _DisplayAreaViewRight
	movss	DWORD PTR [esp], xmm0
	push	ecx
	movss	xmm0, DWORD PTR _DisplayAreaViewTop
	movss	DWORD PTR [esp], xmm0
	push	ecx
	movss	xmm0, DWORD PTR _DisplayAreaViewLeft
	movss	DWORD PTR [esp], xmm0
	mov	eax, DWORD PTR _this$[ebp]
	mov	ecx, DWORD PTR [eax+20]
	mov	edx, DWORD PTR _this$[ebp]
	mov	eax, DWORD PTR [ecx]
	mov	ecx, DWORD PTR [edx+20]
	mov	edx, DWORD PTR [eax+116]
	call	edx

; 1823 : 
; 1824 : 	/*-------------------------*/
; 1825 : 	/* show target and history */
; 1826 : 	/*-------------------------*/
; 1827 : 	if (lockedTargetData->rdrY[0] > 1.0)

	mov	eax, DWORD PTR _this$[ebp]
	mov	ecx, DWORD PTR [eax+176]
	mov	edx, 4
	imul	edx, 0
	cvtss2sd xmm0, DWORD PTR [ecx+edx+104]
	comisd	xmm0, QWORD PTR __real@3ff0000000000000
	jbe	$LN14@STTDisplay

; 1828 : 	{
; 1829 : 		TargetToXY(lockedTargetData, 0, tdisplayRange, &xPos, &yPos);

	lea	eax, DWORD PTR _yPos$[ebp]
	push	eax
	lea	ecx, DWORD PTR _xPos$[ebp]
	push	ecx
	mov	edx, DWORD PTR _this$[ebp]
	push	ecx
	movss	xmm0, DWORD PTR [edx+264]
	movss	DWORD PTR [esp], xmm0
	push	0
	mov	eax, DWORD PTR _this$[ebp]
	mov	ecx, DWORD PTR [eax+176]
	push	ecx
	mov	ecx, DWORD PTR _this$[ebp]
	call	?TargetToXY@RadarDopplerClass@@QAEXPAVSimObjectLocalData@@HMPAM1@Z ; RadarDopplerClass::TargetToXY

; 1830 : 
; 1831 : 		/*----------------------------*/
; 1832 : 		/* keep objects on the screen */
; 1833 : 		/*----------------------------*/
; 1834 : 		if (fabs(xPos) < AZL && fabs(yPos) < AZL)

	push	ecx
	movss	xmm0, DWORD PTR _xPos$[ebp]
	movss	DWORD PTR [esp], xmm0
	call	?fabs@@YAMM@Z				; fabs
	add	esp, 4
	fstp	DWORD PTR tv794[ebp]
	movss	xmm0, DWORD PTR __real@3f800000
	comiss	xmm0, DWORD PTR tv794[ebp]
	jbe	$LN14@STTDisplay
	push	ecx
	movss	xmm0, DWORD PTR _yPos$[ebp]
	movss	DWORD PTR [esp], xmm0
	call	?fabs@@YAMM@Z				; fabs
	add	esp, 4
	fstp	DWORD PTR tv801[ebp]
	movss	xmm0, DWORD PTR __real@3f800000
	comiss	xmm0, DWORD PTR tv801[ebp]
	jbe	$LN14@STTDisplay

; 1835 : 		{
; 1836 : 			display->AdjustOriginInViewport (xPos, yPos);

	push	ecx
	movss	xmm0, DWORD PTR _yPos$[ebp]
	movss	DWORD PTR [esp], xmm0
	push	ecx
	movss	xmm0, DWORD PTR _xPos$[ebp]
	movss	DWORD PTR [esp], xmm0
	mov	edx, DWORD PTR _this$[ebp]
	mov	ecx, DWORD PTR [edx+20]
	call	?AdjustOriginInViewport@VirtualDisplay@@QAEXMM@Z ; VirtualDisplay::AdjustOriginInViewport

; 1837 : 			// This _should_ be right -- based on 2D angle between target velocity
; 1838 : 			// and our line of sight to target  SCR 10/27/97
; 1839 : 			ang = lockedTarget->BaseData()->Yaw() - lockedTargetData->rdrX[0] - platform->Yaw();

	mov	eax, DWORD PTR _this$[ebp]
	mov	ecx, DWORD PTR [eax+48]
	call	?BaseData@SimObjectType@@QAEPAVFalconEntity@@XZ ; SimObjectType::BaseData
	mov	ecx, eax
	call	?Yaw@VuEntity@@QBEMXZ			; VuEntity::Yaw
	fstp	DWORD PTR tv813[ebp]
	movss	xmm0, DWORD PTR tv813[ebp]
	mov	ecx, DWORD PTR _this$[ebp]
	mov	edx, DWORD PTR [ecx+176]
	mov	eax, 4
	imul	eax, 0
	subss	xmm0, DWORD PTR [edx+eax+88]
	mov	ecx, DWORD PTR _this$[ebp]
	mov	ecx, DWORD PTR [ecx+32]
	movss	DWORD PTR tv927[ebp], xmm0
	call	?Yaw@VuEntity@@QBEMXZ			; VuEntity::Yaw
	fstp	DWORD PTR tv820[ebp]
	movss	xmm0, DWORD PTR tv927[ebp]
	subss	xmm0, DWORD PTR tv820[ebp]
	movss	DWORD PTR _ang$[ebp], xmm0

; 1840 : 			if (ang >= 0.0){

	cvtss2sd xmm0, DWORD PTR _ang$[ebp]
	comisd	xmm0, QWORD PTR __real@0000000000000000
	jb	SHORT $LN13@STTDisplay

; 1841 : 				ang = SCH_ANG_INC*(float)floor(ang/(SCH_ANG_INC * DTR));

	movss	xmm0, DWORD PTR _ang$[ebp]
	divss	xmm0, DWORD PTR __real@3e4d87ab
	push	ecx
	movss	DWORD PTR [esp], xmm0
	call	?floor@@YAMM@Z				; floor
	add	esp, 4
	fstp	DWORD PTR tv826[ebp]
	movss	xmm0, DWORD PTR tv826[ebp]
	mulss	xmm0, DWORD PTR __real@41380000
	movss	DWORD PTR _ang$[ebp], xmm0

; 1842 : 			}
; 1843 : 			else{

	jmp	SHORT $LN12@STTDisplay
$LN13@STTDisplay:

; 1844 : 				ang = SCH_ANG_INC*(float)ceil(ang/(SCH_ANG_INC * DTR));

	movss	xmm0, DWORD PTR _ang$[ebp]
	divss	xmm0, DWORD PTR __real@3e4d87ab
	push	ecx
	movss	DWORD PTR [esp], xmm0
	call	?ceil@@YAMM@Z				; ceil
	add	esp, 4
	fstp	DWORD PTR tv833[ebp]
	movss	xmm0, DWORD PTR tv833[ebp]
	mulss	xmm0, DWORD PTR __real@41380000
	movss	DWORD PTR _ang$[ebp], xmm0
$LN12@STTDisplay:

; 1845 : 			}
; 1846 : 			display->AdjustRotationAboutOrigin (ang * DTR);

	movss	xmm0, DWORD PTR _ang$[ebp]
	mulss	xmm0, DWORD PTR __real@3c8efa34
	push	ecx
	movss	DWORD PTR [esp], xmm0
	mov	edx, DWORD PTR _this$[ebp]
	mov	ecx, DWORD PTR [edx+20]
	call	?AdjustRotationAboutOrigin@VirtualDisplay@@QAEXM@Z ; VirtualDisplay::AdjustRotationAboutOrigin

; 1847 : 
; 1848 : 			vt = lockedTarget->BaseData()->GetVt();

	mov	eax, DWORD PTR _this$[ebp]
	mov	ecx, DWORD PTR [eax+48]
	call	?BaseData@SimObjectType@@QAEPAVFalconEntity@@XZ ; SimObjectType::BaseData
	mov	DWORD PTR tv438[ebp], eax
	mov	ecx, DWORD PTR tv438[ebp]
	mov	edx, DWORD PTR [ecx]
	mov	ecx, DWORD PTR tv438[ebp]
	mov	eax, DWORD PTR [edx+220]
	call	eax
	fstp	DWORD PTR _vt$[ebp]

; 1849 : 			display->SetColor(GetMfdColor(MFD_UNKNOWN));

	push	3
	mov	ecx, DWORD PTR _this$[ebp]
	call	?GetMfdColor@DrawableClass@@QAEIW4MfdColor@@@Z ; DrawableClass::GetMfdColor
	push	eax
	mov	ecx, DWORD PTR _this$[ebp]
	mov	edx, DWORD PTR [ecx+20]
	mov	eax, DWORD PTR _this$[ebp]
	mov	edx, DWORD PTR [edx]
	mov	ecx, DWORD PTR [eax+20]
	mov	eax, DWORD PTR [edx+92]
	call	eax

; 1850 : 			if (pFCC->lastMissileImpactTime > 0.0F) 

	mov	ecx, DWORD PTR _pFCC$[ebp]
	movss	xmm0, DWORD PTR [ecx+268]
	comiss	xmm0, DWORD PTR __real@00000000
	jbe	SHORT $LN11@STTDisplay

; 1851 : 			{ // Aim Target
; 1852 : 				if (pFCC->lastMissileImpactTime > pFCC->lastmissileActiveTime){

	mov	edx, DWORD PTR _pFCC$[ebp]
	mov	eax, DWORD PTR _pFCC$[ebp]
	movss	xmm0, DWORD PTR [edx+268]
	comiss	xmm0, DWORD PTR [eax+276]
	jbe	SHORT $LN10@STTDisplay

; 1853 : 					DrawSymbol(AimRel, vt/SCH_FACT, 0);

	push	0
	push	0
	movss	xmm0, DWORD PTR _vt$[ebp]
	divss	xmm0, DWORD PTR __real@44c80000
	push	ecx
	movss	DWORD PTR [esp], xmm0
	push	16					; 00000010H
	mov	ecx, DWORD PTR _this$[ebp]
	call	?DrawSymbol@RadarDopplerClass@@IAEXHMHH@Z ; RadarDopplerClass::DrawSymbol

; 1854 : 				}
; 1855 : 				else {

	jmp	SHORT $LN9@STTDisplay
$LN10@STTDisplay:

; 1856 : 					DrawSymbol(AimFlash, vt/SCH_FACT, 0);

	push	0
	push	0
	movss	xmm0, DWORD PTR _vt$[ebp]
	divss	xmm0, DWORD PTR __real@44c80000
	push	ecx
	movss	DWORD PTR [esp], xmm0
	push	17					; 00000011H
	mov	ecx, DWORD PTR _this$[ebp]
	call	?DrawSymbol@RadarDopplerClass@@IAEXHMHH@Z ; RadarDopplerClass::DrawSymbol
$LN9@STTDisplay:

; 1857 : 				}
; 1858 : 			}
; 1859 : 			else {	     

	jmp	SHORT $LN8@STTDisplay
$LN11@STTDisplay:

; 1860 : 				DrawSymbol(Bug, vt/SCH_FACT, 0);

	push	0
	push	0
	movss	xmm0, DWORD PTR _vt$[ebp]
	divss	xmm0, DWORD PTR __real@44c80000
	push	ecx
	movss	DWORD PTR [esp], xmm0
	push	7
	mov	ecx, DWORD PTR _this$[ebp]
	call	?DrawSymbol@RadarDopplerClass@@IAEXHMHH@Z ; RadarDopplerClass::DrawSymbol
$LN8@STTDisplay:

; 1861 : 			}
; 1862 : 
; 1863 : 			int bcol = display->Color();

	mov	ecx, DWORD PTR _this$[ebp]
	mov	edx, DWORD PTR [ecx+20]
	mov	eax, DWORD PTR _this$[ebp]
	mov	edx, DWORD PTR [edx]
	mov	ecx, DWORD PTR [eax+20]
	mov	eax, DWORD PTR [edx+108]
	call	eax
	mov	DWORD PTR _bcol$1[ebp], eax

; 1864 : 			// Marco Edit - Rotation is rotating the CATA symbol
; 1865 : 			display->ZeroRotationAboutOrigin();

	mov	ecx, DWORD PTR _this$[ebp]
	mov	ecx, DWORD PTR [ecx+20]
	call	?ZeroRotationAboutOrigin@VirtualDisplay@@QAEXXZ ; VirtualDisplay::ZeroRotationAboutOrigin

; 1866 : 			DrawCollisionSteering(lockedTarget, xPos);

	push	ecx
	movss	xmm0, DWORD PTR _xPos$[ebp]
	movss	DWORD PTR [esp], xmm0
	mov	edx, DWORD PTR _this$[ebp]
	mov	eax, DWORD PTR [edx+48]
	push	eax
	mov	ecx, DWORD PTR _this$[ebp]
	call	?DrawCollisionSteering@RadarDopplerClass@@IAEXPAVSimObjectType@@M@Z ; RadarDopplerClass::DrawCollisionSteering

; 1867 : 			//display->ZeroRotationAboutOrigin();
; 1868 : 
; 1869 : 			alt  = -lockedTarget->BaseData()->ZPos();

	mov	ecx, DWORD PTR _this$[ebp]
	mov	ecx, DWORD PTR [ecx+48]
	call	?BaseData@SimObjectType@@QAEPAVFalconEntity@@XZ ; SimObjectType::BaseData
	mov	ecx, eax
	call	?ZPos@VuEntity@@QBEMXZ			; VuEntity::ZPos
	fstp	DWORD PTR tv873[ebp]
	movss	xmm0, DWORD PTR tv873[ebp]
	xorps	xmm0, DWORD PTR __xmm@80000000800000008000000080000000
	movss	DWORD PTR _alt$[ebp], xmm0

; 1870 : 			// draw lose indication
; 1871 : 			if (pFCC->LastMissileWillMiss(lockedTargetData->range) && (vuxRealTime & 0x180)){

	mov	edx, DWORD PTR _this$[ebp]
	mov	eax, DWORD PTR [edx+176]
	push	ecx
	movss	xmm0, DWORD PTR [eax+44]
	movss	DWORD PTR [esp], xmm0
	mov	ecx, DWORD PTR _pFCC$[ebp]
	call	?LastMissileWillMiss@FireControlComputer@@QAEHM@Z ; FireControlComputer::LastMissileWillMiss
	test	eax, eax
	je	SHORT $LN7@STTDisplay
	mov	ecx, DWORD PTR ?vuxRealTime@@3KA	; vuxRealTime
	and	ecx, 384				; 00000180H
	je	SHORT $LN7@STTDisplay

; 1872 : 				sprintf (str, "LOSE");

	push	OFFSET ??_C@_04IEFNNOGI@LOSE?$AA@
	lea	edx, DWORD PTR _str$[ebp]
	push	edx
	call	_sprintf
	add	esp, 8

; 1873 : 			}
; 1874 : 			else {

	jmp	SHORT $LN6@STTDisplay
$LN7@STTDisplay:

; 1875 : 				sprintf(str,"%02d",(int)((alt + 500.0F)*0.001));

	movss	xmm0, DWORD PTR _alt$[ebp]
	addss	xmm0, DWORD PTR __real@43fa0000
	cvtss2sd xmm0, xmm0
	mulsd	xmm0, QWORD PTR __real@3f50624dd2f1a9fc
	cvttsd2si eax, xmm0
	push	eax
	push	OFFSET ??_C@_04OGKJMPGK@?$CF02d?$AA@
	lea	ecx, DWORD PTR _str$[ebp]
	push	ecx
	call	_sprintf
	add	esp, 12					; 0000000cH
$LN6@STTDisplay:

; 1876 : 			}
; 1877 : 			ShiAssert (strlen(str) < sizeof(str));
; 1878 : 			display->SetColor(bcol);

	mov	edx, DWORD PTR _bcol$1[ebp]
	push	edx
	mov	eax, DWORD PTR _this$[ebp]
	mov	ecx, DWORD PTR [eax+20]
	mov	edx, DWORD PTR _this$[ebp]
	mov	eax, DWORD PTR [ecx]
	mov	ecx, DWORD PTR [edx+20]
	mov	edx, DWORD PTR [eax+92]
	call	edx

; 1879 : 			display->TextCenter(0.0F, -0.15F, str);

	push	0
	lea	eax, DWORD PTR _str$[ebp]
	push	eax
	push	ecx
	movss	xmm0, DWORD PTR __real@be19999a
	movss	DWORD PTR [esp], xmm0
	push	ecx
	movss	xmm0, DWORD PTR __real@00000000
	movss	DWORD PTR [esp], xmm0
	mov	ecx, DWORD PTR _this$[ebp]
	mov	edx, DWORD PTR [ecx+20]
	mov	eax, DWORD PTR _this$[ebp]
	mov	edx, DWORD PTR [edx]
	mov	ecx, DWORD PTR [eax+20]
	mov	eax, DWORD PTR [edx+72]
	call	eax

; 1880 : 			// draw hit indication
; 1881 : 			if (pFCC->MissileImpactTimeFlash > SimLibElapsedTime) { // Draw X

	mov	ecx, DWORD PTR _pFCC$[ebp]
	mov	edx, DWORD PTR [ecx+396]
	cmp	edx, DWORD PTR ?SimLibElapsedTime@@3KA	; SimLibElapsedTime
	jbe	SHORT $LN4@STTDisplay

; 1882 : 				if (pFCC->MissileImpactTimeFlash-SimLibElapsedTime > 5.0f * CampaignSeconds ||
; 1883 : 								(vuxRealTime & 0x200)) {

	mov	eax, DWORD PTR _pFCC$[ebp]
	mov	ecx, DWORD PTR [eax+396]
	sub	ecx, DWORD PTR ?SimLibElapsedTime@@3KA	; SimLibElapsedTime
	mov	DWORD PTR tv899[ebp], ecx
	cvtsi2sd xmm0, DWORD PTR tv899[ebp]
	mov	edx, DWORD PTR tv899[ebp]
	shr	edx, 31					; 0000001fH
	addsd	xmm0, QWORD PTR __xmm@41f00000000000000000000000000000[edx*8]
	movsd	QWORD PTR tv902[ebp], xmm0
	cvtsd2ss xmm0, QWORD PTR tv902[ebp]
	comiss	xmm0, DWORD PTR __real@459c4000
	ja	SHORT $LN3@STTDisplay
	mov	eax, DWORD PTR ?vuxRealTime@@3KA	; vuxRealTime
	and	eax, 512				; 00000200H
	je	SHORT $LN4@STTDisplay
$LN3@STTDisplay:

; 1884 : 					DrawSymbol(HitInd, 0, 0);

	push	0
	push	0
	push	ecx
	movss	xmm0, DWORD PTR __real@00000000
	movss	DWORD PTR [esp], xmm0
	push	15					; 0000000fH
	mov	ecx, DWORD PTR _this$[ebp]
	call	?DrawSymbol@RadarDopplerClass@@IAEXHMHH@Z ; RadarDopplerClass::DrawSymbol
$LN4@STTDisplay:

; 1885 : 				}
; 1886 : 			}
; 1887 : 
; 1888 : 			// SCR 9/9/98  If target is jamming, indicate such
; 1889 : 			if (lockedTarget->BaseData()->IsSPJamming())

	mov	ecx, DWORD PTR _this$[ebp]
	mov	ecx, DWORD PTR [ecx+48]
	call	?BaseData@SimObjectType@@QAEPAVFalconEntity@@XZ ; SimObjectType::BaseData
	mov	DWORD PTR tv591[ebp], eax
	mov	edx, DWORD PTR tv591[ebp]
	mov	eax, DWORD PTR [edx]
	mov	ecx, DWORD PTR tv591[ebp]
	mov	edx, DWORD PTR [eax+268]
	call	edx
	test	eax, eax
	je	SHORT $LN2@STTDisplay

; 1890 : 			{
; 1891 : 				DrawSymbol( Jam, 0.0f, 0);

	push	0
	push	0
	push	ecx
	movss	xmm0, DWORD PTR __real@00000000
	movss	DWORD PTR [esp], xmm0
	push	14					; 0000000eH
	mov	ecx, DWORD PTR _this$[ebp]
	call	?DrawSymbol@RadarDopplerClass@@IAEXHMHH@Z ; RadarDopplerClass::DrawSymbol
$LN2@STTDisplay:

; 1892 : 			}
; 1893 : 			display->CenterOriginInViewport();

	mov	eax, DWORD PTR _this$[ebp]
	mov	ecx, DWORD PTR [eax+20]
	call	?CenterOriginInViewport@VirtualDisplay@@QAEXXZ ; VirtualDisplay::CenterOriginInViewport

; 1894 : 			display->SetColor(tmpColor);

	mov	ecx, DWORD PTR _tmpColor$[ebp]
	push	ecx
	mov	edx, DWORD PTR _this$[ebp]
	mov	eax, DWORD PTR [edx+20]
	mov	ecx, DWORD PTR _this$[ebp]
	mov	edx, DWORD PTR [eax]
	mov	ecx, DWORD PTR [ecx+20]
	mov	eax, DWORD PTR [edx+92]
	call	eax
$LN14@STTDisplay:

; 1895 : 		}
; 1896 : 	}
; 1897 : 	//MI
; 1898 : 	Pointer++;

	mov	ecx, DWORD PTR _this$[ebp]
	mov	edx, DWORD PTR [ecx+596]
	add	edx, 1
	mov	eax, DWORD PTR _this$[ebp]
	mov	DWORD PTR [eax+596], edx

; 1899 : 	if(Pointer > 19){ Pointer = 0; }

	mov	ecx, DWORD PTR _this$[ebp]
	cmp	DWORD PTR [ecx+596], 19			; 00000013H
	jle	SHORT $LN1@STTDisplay
	mov	edx, DWORD PTR _this$[ebp]
	mov	DWORD PTR [edx+596], 0
$LN1@STTDisplay:
$LN23@STTDisplay:

; 1900 : }

	mov	ecx, DWORD PTR __$ArrayPad$[ebp]
	xor	ecx, ebp
	call	@__security_check_cookie@4
	mov	esp, ebp
	pop	ebp
	ret	0
?STTDisplay@RadarDopplerClass@@IAEXXZ ENDP		; RadarDopplerClass::STTDisplay
_TEXT	ENDS
; Function compile flags: /Odtp
; File c:\users\zhitao li\documents\visual studio 2012\projects\freefalcon\sim\radar\bscope.cpp
_TEXT	SEGMENT
$T1 = -308						; size = 8
tv1768 = -300						; size = 8
tv1757 = -292						; size = 8
tv1912 = -284						; size = 8
tv1739 = -276						; size = 8
tv1687 = -268						; size = 4
tv1490 = -264						; size = 4
tv1681 = -260						; size = 4
tv1629 = -256						; size = 4
tv1674 = -252						; size = 4
tv1650 = -248						; size = 4
tv2016 = -244						; size = 4
_tmpColor$ = -240					; size = 4
tv1656 = -236						; size = 4
tv1932 = -232						; size = 4
tv1636 = -228						; size = 4
tv1883 = -224						; size = 4
tv1509 = -220						; size = 4
tv1694 = -216						; size = 4
tv1443 = -212						; size = 4
tv444 = -208						; size = 4
tv473 = -204						; size = 4
tv416 = -200						; size = 4
tv757 = -196						; size = 4
tv402 = -192						; size = 4
tv1735 = -188						; size = 4
tv321 = -184						; size = 4
tv492 = -180						; size = 4
tv220 = -176						; size = 4
tv458 = -172						; size = 4
tv969 = -168						; size = 4
tv813 = -164						; size = 4
tv949 = -160						; size = 4
tv195 = -156						; size = 4
tv902 = -152						; size = 4
tv487 = -148						; size = 4
tv882 = -144						; size = 4
tv463 = -140						; size = 4
tv1764 = -136						; size = 4
tv202 = -132						; size = 4
tv1753 = -128						; size = 4
tv415 = -124						; size = 4
tv1909 = -120						; size = 4
tv322 = -116						; size = 4
tv1061 = -112						; size = 4
tv308 = -108						; size = 4
tv1044 = -104						; size = 4
tv1024 = -100						; size = 4
tv493 = -96						; size = 4
_dx$2 = -92						; size = 4
_dy$3 = -88						; size = 4
_alt$ = -84						; size = 4
_iff$ = -80						; size = 4
_yPos$ = -76						; size = 4
_self$ = -72						; size = 4
_xPos$ = -68						; size = 4
_i$4 = -64						; size = 4
_pFCC$ = -60						; size = 4
_vt$ = -56						; size = 4
tv327 = -49						; size = 1
_tgty$ = -48						; size = 4
_tgtx$ = -44						; size = 4
_brange$ = -40						; size = 4
_ang$ = -36						; size = 4
_isCpl$5 = -29						; size = 1
_rdrObj$ = -28						; size = 4
_rdrData$ = -24						; size = 4
_this$ = -20						; size = 4
_str$ = -16						; size = 12
__$ArrayPad$ = -4					; size = 4
?TWSDisplay@RadarDopplerClass@@IAEXXZ PROC		; RadarDopplerClass::TWSDisplay
; _this$ = ecx

; 1334 : {

	push	ebp
	mov	ebp, esp
	sub	esp, 308				; 00000134H
	mov	eax, DWORD PTR ___security_cookie
	xor	eax, ebp
	mov	DWORD PTR __$ArrayPad$[ebp], eax
	mov	DWORD PTR _this$[ebp], ecx

; 1335 : 	float xPos, yPos, alt;
; 1336 : 	char  str[12];
; 1337 : 	float ang, vt;
; 1338 : 	SimObjectType* rdrObj = platform->targetList;

	mov	eax, DWORD PTR _this$[ebp]
	mov	ecx, DWORD PTR [eax+32]
	mov	edx, DWORD PTR [ecx+660]
	mov	DWORD PTR _rdrObj$[ebp], edx

; 1339 : 	SimObjectLocalData* rdrData;
; 1340 : 	FireControlComputer* pFCC = ((SimVehicleClass*)platform)->GetFCC();

	mov	eax, DWORD PTR _this$[ebp]
	mov	ecx, DWORD PTR [eax+32]
	mov	edx, DWORD PTR _this$[ebp]
	mov	eax, DWORD PTR [ecx]
	mov	ecx, DWORD PTR [edx+32]
	mov	edx, DWORD PTR [eax+460]
	call	edx
	mov	DWORD PTR _pFCC$[ebp], eax

; 1341 : 	int tmpColor = display->Color(); 

	mov	eax, DWORD PTR _this$[ebp]
	mov	ecx, DWORD PTR [eax+20]
	mov	edx, DWORD PTR _this$[ebp]
	mov	eax, DWORD PTR [ecx]
	mov	ecx, DWORD PTR [edx+20]
	mov	edx, DWORD PTR [eax+108]
	call	edx
	mov	DWORD PTR _tmpColor$[ebp], eax

; 1342 : 	AircraftClass* self = SimDriver.GetPlayerAircraft();//Cobra 11/20/04

	mov	ecx, OFFSET ?SimDriver@@3VSimulationDriver@@A ; SimDriver
	call	?GetPlayerAircraft@SimulationDriver@@QBEPAVAircraftClass@@XZ ; SimulationDriver::GetPlayerAircraft
	mov	DWORD PTR _self$[ebp], eax

; 1343 : 	int iff = self->GetiffEnabled();//Cobra 11/20/04

	mov	eax, DWORD PTR _self$[ebp]
	mov	edx, DWORD PTR [eax]
	mov	ecx, DWORD PTR _self$[ebp]
	mov	eax, DWORD PTR [edx+476]
	call	eax
	mov	DWORD PTR _iff$[ebp], eax

; 1344 : 
; 1345 : 	// MD -- 20040120: move the OSB labeling up a bit so that we can do STT and then bail out of 
; 1346 : 	// this display mode (else go on to normal TWS display).
; 1347 : 
; 1348 : 	display->SetColor(GetMfdColor (MFD_LABELS));

	push	0
	mov	ecx, DWORD PTR _this$[ebp]
	call	?GetMfdColor@DrawableClass@@QAEIW4MfdColor@@@Z ; DrawableClass::GetMfdColor
	push	eax
	mov	ecx, DWORD PTR _this$[ebp]
	mov	edx, DWORD PTR [ecx+20]
	mov	eax, DWORD PTR _this$[ebp]
	mov	edx, DWORD PTR [edx]
	mov	ecx, DWORD PTR [eax+20]
	mov	eax, DWORD PTR [edx+92]
	call	eax

; 1349 : 
; 1350 : 	// OSS Button Labels
; 1351 : 	if(IsAADclt(MajorMode) == FALSE) { LabelButton (0, "CRM"); }

	push	1
	mov	ecx, DWORD PTR _this$[ebp]
	call	?IsAADclt@RadarDopplerClass@@IAEHH@Z	; RadarDopplerClass::IsAADclt
	test	eax, eax
	jne	SHORT $LN76@TWSDisplay
	push	0
	push	0
	push	OFFSET ??_C@_03HNPFBMKG@CRM?$AA@
	push	0
	mov	ecx, DWORD PTR _this$[ebp]
	call	?LabelButton@DrawableClass@@QAEXHPAD0H@Z ; DrawableClass::LabelButton
$LN76@TWSDisplay:

; 1352 : 	if(IsAADclt(SubMode) == FALSE)   { LabelButton (1, "TWS"); }

	push	2
	mov	ecx, DWORD PTR _this$[ebp]
	call	?IsAADclt@RadarDopplerClass@@IAEHH@Z	; RadarDopplerClass::IsAADclt
	test	eax, eax
	jne	SHORT $LN75@TWSDisplay
	push	0
	push	0
	push	OFFSET ??_C@_03GCLBIOLE@TWS?$AA@
	push	1
	mov	ecx, DWORD PTR _this$[ebp]
	call	?LabelButton@DrawableClass@@QAEXHPAD0H@Z ; DrawableClass::LabelButton
$LN75@TWSDisplay:

; 1353 : 	if (IsAADclt(Fov) == FALSE){

	push	4
	mov	ecx, DWORD PTR _this$[ebp]
	call	?IsAADclt@RadarDopplerClass@@IAEHH@Z	; RadarDopplerClass::IsAADclt
	test	eax, eax
	jne	SHORT $LN74@TWSDisplay

; 1354 : 		// flash faster
; 1355 : 		LabelButton (2, IsSet(EXP) ? "EXP" : "NORM", NULL, IsSet(EXP) ? (vuxRealTime & 0x080) : 0);

	push	2
	mov	ecx, DWORD PTR _this$[ebp]
	call	?IsSet@RadarDopplerClass@@QAEHH@Z	; RadarDopplerClass::IsSet
	test	eax, eax
	je	SHORT $LN79@TWSDisplay
	mov	ecx, DWORD PTR ?vuxRealTime@@3KA	; vuxRealTime
	and	ecx, 128				; 00000080H
	mov	DWORD PTR tv195[ebp], ecx
	jmp	SHORT $LN80@TWSDisplay
$LN79@TWSDisplay:
	mov	DWORD PTR tv195[ebp], 0
$LN80@TWSDisplay:
	push	2
	mov	ecx, DWORD PTR _this$[ebp]
	call	?IsSet@RadarDopplerClass@@QAEHH@Z	; RadarDopplerClass::IsSet
	test	eax, eax
	je	SHORT $LN81@TWSDisplay
	mov	DWORD PTR tv202[ebp], OFFSET ??_C@_03KKGFKKLA@EXP?$AA@
	jmp	SHORT $LN82@TWSDisplay
$LN81@TWSDisplay:
	mov	DWORD PTR tv202[ebp], OFFSET ??_C@_04DHIGGNDH@NORM?$AA@
$LN82@TWSDisplay:
	mov	edx, DWORD PTR tv195[ebp]
	push	edx
	push	0
	mov	eax, DWORD PTR tv202[ebp]
	push	eax
	push	2
	mov	ecx, DWORD PTR _this$[ebp]
	call	?LabelButton@DrawableClass@@QAEXHPAD0H@Z ; DrawableClass::LabelButton
$LN74@TWSDisplay:

; 1356 : 	}
; 1357 : 	if(IsAADclt(Ovrd) == FALSE)      { LabelButton (3, "OVRD", NULL, !isEmitting); }

	push	8
	mov	ecx, DWORD PTR _this$[ebp]
	call	?IsAADclt@RadarDopplerClass@@IAEHH@Z	; RadarDopplerClass::IsAADclt
	test	eax, eax
	jne	SHORT $LN73@TWSDisplay
	mov	ecx, DWORD PTR _this$[ebp]
	cmp	DWORD PTR [ecx+76], 0
	jne	SHORT $LN83@TWSDisplay
	mov	DWORD PTR tv220[ebp], 1
	jmp	SHORT $LN84@TWSDisplay
$LN83@TWSDisplay:
	mov	DWORD PTR tv220[ebp], 0
$LN84@TWSDisplay:
	mov	edx, DWORD PTR tv220[ebp]
	push	edx
	push	0
	push	OFFSET ??_C@_04PGDFOHNL@OVRD?$AA@
	push	3
	mov	ecx, DWORD PTR _this$[ebp]
	call	?LabelButton@DrawableClass@@QAEXHPAD0H@Z ; DrawableClass::LabelButton
$LN73@TWSDisplay:

; 1358 : 	if(IsAADclt(Cntl) == FALSE)      { LabelButton (4, "CTNL", NULL, IsSet(CtlMode)); }

	push	16					; 00000010H
	mov	ecx, DWORD PTR _this$[ebp]
	call	?IsAADclt@RadarDopplerClass@@IAEHH@Z	; RadarDopplerClass::IsAADclt
	test	eax, eax
	jne	SHORT $LN72@TWSDisplay
	push	2097152					; 00200000H
	mov	ecx, DWORD PTR _this$[ebp]
	call	?IsSet@RadarDopplerClass@@QAEHH@Z	; RadarDopplerClass::IsSet
	push	eax
	push	0
	push	OFFSET ??_C@_04EECJBCEN@CTNL?$AA@
	push	4
	mov	ecx, DWORD PTR _this$[ebp]
	call	?LabelButton@DrawableClass@@QAEXHPAD0H@Z ; DrawableClass::LabelButton
$LN72@TWSDisplay:

; 1359 : 	if (IsSet(MenuMode|CtlMode)){

	push	3145728					; 00300000H
	mov	ecx, DWORD PTR _this$[ebp]
	call	?IsSet@RadarDopplerClass@@QAEHH@Z	; RadarDopplerClass::IsSet
	test	eax, eax
	je	SHORT $LN71@TWSDisplay

; 1360 : 		MENUDisplay();

	mov	ecx, DWORD PTR _this$[ebp]
	call	?MENUDisplay@RadarDopplerClass@@IAEXXZ	; RadarDopplerClass::MENUDisplay

; 1361 : 	} 
; 1362 : 	else {

	jmp	SHORT $LN70@TWSDisplay
$LN71@TWSDisplay:

; 1363 : 		AABottomRow ();

	mov	ecx, DWORD PTR _this$[ebp]
	call	?AABottomRow@RadarDopplerClass@@IAEXXZ	; RadarDopplerClass::AABottomRow
$LN70@TWSDisplay:

; 1364 : 	}
; 1365 : 
; 1366 : 	// MD -- 20040120: use the STTmode() display if we are locked (versus merely bugged)
; 1367 : 	if (lockedTarget && IsSet(STTingTarget))

	mov	eax, DWORD PTR _this$[ebp]
	cmp	DWORD PTR [eax+48], 0
	je	SHORT $LN69@TWSDisplay
	push	65536					; 00010000H
	mov	ecx, DWORD PTR _this$[ebp]
	call	?IsSet@RadarDopplerClass@@QAEHH@Z	; RadarDopplerClass::IsSet
	test	eax, eax
	je	SHORT $LN69@TWSDisplay

; 1368 : 	{
; 1369 : 		STTDisplay();

	mov	ecx, DWORD PTR _this$[ebp]
	call	?STTDisplay@RadarDopplerClass@@IAEXXZ	; RadarDopplerClass::STTDisplay

; 1370 : 		return;

	jmp	$LN77@TWSDisplay
$LN69@TWSDisplay:

; 1371 : 	}
; 1372 : 
; 1373 : 	//Cobra 11/20/04
; 1374 : 	if (iff && (self->iffModeChallenge != 99)){

	cmp	DWORD PTR _iff$[ebp], 0
	je	SHORT $LN68@TWSDisplay
	mov	ecx, DWORD PTR _self$[ebp]
	cmp	DWORD PTR [ecx+908], 99			; 00000063H
	je	SHORT $LN68@TWSDisplay

; 1375 : 		LabelButton (16,"SCAN");

	push	0
	push	0
	push	OFFSET ??_C@_04NAGNMPFG@SCAN?$AA@
	push	16					; 00000010H
	mov	ecx, DWORD PTR _this$[ebp]
	call	?LabelButton@DrawableClass@@QAEXHPAD0H@Z ; DrawableClass::LabelButton
$LN68@TWSDisplay:

; 1376 : 	}
; 1377 : 
; 1378 : 	//MI
; 1379 : 	Pointer = 0;

	mov	edx, DWORD PTR _this$[ebp]
	mov	DWORD PTR [edx+596], 0

; 1380 : 
; 1381 : 	if (fovStepCmd){

	mov	eax, DWORD PTR _this$[ebp]
	cmp	DWORD PTR [eax+160], 0
	je	SHORT $LN67@TWSDisplay

; 1382 : 		fovStepCmd = 0;

	mov	ecx, DWORD PTR _this$[ebp]
	mov	DWORD PTR [ecx+160], 0

; 1383 : 		ToggleFlag(EXP);

	push	2
	mov	ecx, DWORD PTR _this$[ebp]
	call	?ToggleFlag@RadarDopplerClass@@QAEXH@Z	; RadarDopplerClass::ToggleFlag
$LN67@TWSDisplay:

; 1384 : 	}
; 1385 : 
; 1386 : 	// Labels / Text
; 1387 : 	if (lockedTargetData){

	mov	edx, DWORD PTR _this$[ebp]
	cmp	DWORD PTR [edx+176], 0
	je	$LN62@TWSDisplay

; 1388 : 		display->SetColor(GetMfdColor (MFD_TGT_CLOSURE_RATE));

	push	1
	mov	ecx, DWORD PTR _this$[ebp]
	call	?GetMfdColor@DrawableClass@@QAEIW4MfdColor@@@Z ; DrawableClass::GetMfdColor
	push	eax
	mov	eax, DWORD PTR _this$[ebp]
	mov	ecx, DWORD PTR [eax+20]
	mov	edx, DWORD PTR _this$[ebp]
	mov	eax, DWORD PTR [ecx]
	mov	ecx, DWORD PTR [edx+20]
	mov	edx, DWORD PTR [eax+92]
	call	edx

; 1389 : 
; 1390 : 		// Aspect
; 1391 : 		ang = max ( min (lockedTargetData->aspect * RTD * 0.1F, 18.0F), -18.0F);

	mov	eax, DWORD PTR _this$[ebp]
	mov	ecx, DWORD PTR [eax+176]
	movss	xmm0, DWORD PTR [ecx+68]
	mulss	xmm0, DWORD PTR __real@42652ee1
	mulss	xmm0, DWORD PTR __real@3dcccccd
	movss	xmm1, DWORD PTR __real@41900000
	comiss	xmm1, xmm0
	jbe	SHORT $LN85@TWSDisplay
	mov	edx, DWORD PTR _this$[ebp]
	mov	eax, DWORD PTR [edx+176]
	movss	xmm0, DWORD PTR [eax+68]
	mulss	xmm0, DWORD PTR __real@42652ee1
	mulss	xmm0, DWORD PTR __real@3dcccccd
	movss	DWORD PTR tv308[ebp], xmm0
	jmp	SHORT $LN86@TWSDisplay
$LN85@TWSDisplay:
	movss	xmm0, DWORD PTR __real@41900000
	movss	DWORD PTR tv308[ebp], xmm0
$LN86@TWSDisplay:
	movss	xmm0, DWORD PTR tv308[ebp]
	comiss	xmm0, DWORD PTR __real@c1900000
	jbe	SHORT $LN89@TWSDisplay
	mov	ecx, DWORD PTR _this$[ebp]
	mov	edx, DWORD PTR [ecx+176]
	movss	xmm0, DWORD PTR [edx+68]
	mulss	xmm0, DWORD PTR __real@42652ee1
	mulss	xmm0, DWORD PTR __real@3dcccccd
	movss	xmm1, DWORD PTR __real@41900000
	comiss	xmm1, xmm0
	jbe	SHORT $LN87@TWSDisplay
	mov	eax, DWORD PTR _this$[ebp]
	mov	ecx, DWORD PTR [eax+176]
	movss	xmm0, DWORD PTR [ecx+68]
	mulss	xmm0, DWORD PTR __real@42652ee1
	mulss	xmm0, DWORD PTR __real@3dcccccd
	movss	DWORD PTR tv321[ebp], xmm0
	jmp	SHORT $LN88@TWSDisplay
$LN87@TWSDisplay:
	movss	xmm0, DWORD PTR __real@41900000
	movss	DWORD PTR tv321[ebp], xmm0
$LN88@TWSDisplay:
	movss	xmm0, DWORD PTR tv321[ebp]
	movss	DWORD PTR tv322[ebp], xmm0
	jmp	SHORT $LN90@TWSDisplay
$LN89@TWSDisplay:
	movss	xmm0, DWORD PTR __real@c1900000
	movss	DWORD PTR tv322[ebp], xmm0
$LN90@TWSDisplay:
	movss	xmm0, DWORD PTR tv322[ebp]
	movss	DWORD PTR _ang$[ebp], xmm0

; 1392 : 		sprintf (str, "%02.0f%c", ang, (lockedTargetData->azFrom > 0.0F ? 'R' : 'L'));

	mov	edx, DWORD PTR _this$[ebp]
	mov	eax, DWORD PTR [edx+176]
	movss	xmm0, DWORD PTR [eax+20]
	comiss	xmm0, DWORD PTR __real@00000000
	jbe	SHORT $LN91@TWSDisplay
	mov	BYTE PTR tv327[ebp], 82			; 00000052H
	jmp	SHORT $LN92@TWSDisplay
$LN91@TWSDisplay:
	mov	BYTE PTR tv327[ebp], 76			; 0000004cH
$LN92@TWSDisplay:
	movsx	ecx, BYTE PTR tv327[ebp]
	push	ecx
	cvtss2sd xmm0, DWORD PTR _ang$[ebp]
	sub	esp, 8
	movsd	QWORD PTR [esp], xmm0
	push	OFFSET ??_C@_08JJDNADML@?$CF02?40f?$CFc?$AA@
	lea	edx, DWORD PTR _str$[ebp]
	push	edx
	call	_sprintf
	add	esp, 20					; 00000014H

; 1393 : 		ShiAssert (strlen(str) < sizeof(str));
; 1394 : 		display->TextLeft(-0.875F, SECOND_LINE_Y, str);

	push	0
	lea	eax, DWORD PTR _str$[ebp]
	push	eax
	push	ecx
	movss	xmm0, DWORD PTR __real@3f4ccccd
	movss	DWORD PTR [esp], xmm0
	push	ecx
	movss	xmm0, DWORD PTR __real@bf600000
	movss	DWORD PTR [esp], xmm0
	mov	ecx, DWORD PTR _this$[ebp]
	mov	edx, DWORD PTR [ecx+20]
	mov	eax, DWORD PTR _this$[ebp]
	mov	edx, DWORD PTR [edx]
	mov	ecx, DWORD PTR [eax+20]
	mov	eax, DWORD PTR [edx+56]
	call	eax

; 1395 : 
; 1396 : 		// Heading
; 1397 : 		ang = ((((lockedTarget->BaseData()->Yaw()*RTD*.1f)+.5f))*10.0F);

	mov	ecx, DWORD PTR _this$[ebp]
	mov	ecx, DWORD PTR [ecx+48]
	call	?BaseData@SimObjectType@@QAEPAVFalconEntity@@XZ ; SimObjectType::BaseData
	mov	ecx, eax
	call	?Yaw@VuEntity@@QBEMXZ			; VuEntity::Yaw
	fstp	DWORD PTR tv1443[ebp]
	movss	xmm0, DWORD PTR tv1443[ebp]
	mulss	xmm0, DWORD PTR __real@42652ee1
	mulss	xmm0, DWORD PTR __real@3dcccccd
	addss	xmm0, DWORD PTR __real@3f000000
	mulss	xmm0, DWORD PTR __real@41200000
	movss	DWORD PTR _ang$[ebp], xmm0

; 1398 : 		if (ang < 0.0){ ang += 360.0F; }

	cvtss2sd xmm0, DWORD PTR _ang$[ebp]
	movsd	xmm1, QWORD PTR __real@0000000000000000
	comisd	xmm1, xmm0
	jbe	SHORT $LN65@TWSDisplay
	movss	xmm0, DWORD PTR _ang$[ebp]
	addss	xmm0, DWORD PTR __real@43b40000
	movss	DWORD PTR _ang$[ebp], xmm0
$LN65@TWSDisplay:

; 1399 : 		sprintf (str, "%03.0f", ang);

	cvtss2sd xmm0, DWORD PTR _ang$[ebp]
	sub	esp, 8
	movsd	QWORD PTR [esp], xmm0
	push	OFFSET ??_C@_06EKMMACPN@?$CF03?40f?$AA@
	lea	edx, DWORD PTR _str$[ebp]
	push	edx
	call	_sprintf
	add	esp, 16					; 00000010H

; 1400 : 		ShiAssert (strlen(str) < sizeof(str));
; 1401 : 		display->TextLeft(-0.5F, SECOND_LINE_Y, str);

	push	0
	lea	eax, DWORD PTR _str$[ebp]
	push	eax
	push	ecx
	movss	xmm0, DWORD PTR __real@3f4ccccd
	movss	DWORD PTR [esp], xmm0
	push	ecx
	movss	xmm0, DWORD PTR __real@bf000000
	movss	DWORD PTR [esp], xmm0
	mov	ecx, DWORD PTR _this$[ebp]
	mov	edx, DWORD PTR [ecx+20]
	mov	eax, DWORD PTR _this$[ebp]
	mov	edx, DWORD PTR [edx]
	mov	ecx, DWORD PTR [eax+20]
	mov	eax, DWORD PTR [edx+56]
	call	eax

; 1402 : 
; 1403 : 		// Closure
; 1404 : 		ang = max( min( -lockedTargetData->rangedot * FTPSEC_TO_KNOTS, 1500.0F), -1500.0F);

	mov	ecx, DWORD PTR _this$[ebp]
	mov	edx, DWORD PTR [ecx+176]
	movss	xmm0, DWORD PTR [edx+48]
	xorps	xmm0, DWORD PTR __xmm@80000000800000008000000080000000
	mulss	xmm0, DWORD PTR __real@3f17ac60
	movss	xmm1, DWORD PTR __real@44bb8000
	comiss	xmm1, xmm0
	jbe	SHORT $LN93@TWSDisplay
	mov	eax, DWORD PTR _this$[ebp]
	mov	ecx, DWORD PTR [eax+176]
	movss	xmm0, DWORD PTR [ecx+48]
	xorps	xmm0, DWORD PTR __xmm@80000000800000008000000080000000
	mulss	xmm0, DWORD PTR __real@3f17ac60
	movss	DWORD PTR tv402[ebp], xmm0
	jmp	SHORT $LN94@TWSDisplay
$LN93@TWSDisplay:
	movss	xmm0, DWORD PTR __real@44bb8000
	movss	DWORD PTR tv402[ebp], xmm0
$LN94@TWSDisplay:
	movss	xmm0, DWORD PTR tv402[ebp]
	comiss	xmm0, DWORD PTR __real@c4bb8000
	jbe	SHORT $LN97@TWSDisplay
	mov	edx, DWORD PTR _this$[ebp]
	mov	eax, DWORD PTR [edx+176]
	movss	xmm0, DWORD PTR [eax+48]
	xorps	xmm0, DWORD PTR __xmm@80000000800000008000000080000000
	mulss	xmm0, DWORD PTR __real@3f17ac60
	movss	xmm1, DWORD PTR __real@44bb8000
	comiss	xmm1, xmm0
	jbe	SHORT $LN95@TWSDisplay
	mov	ecx, DWORD PTR _this$[ebp]
	mov	edx, DWORD PTR [ecx+176]
	movss	xmm0, DWORD PTR [edx+48]
	xorps	xmm0, DWORD PTR __xmm@80000000800000008000000080000000
	mulss	xmm0, DWORD PTR __real@3f17ac60
	movss	DWORD PTR tv415[ebp], xmm0
	jmp	SHORT $LN96@TWSDisplay
$LN95@TWSDisplay:
	movss	xmm0, DWORD PTR __real@44bb8000
	movss	DWORD PTR tv415[ebp], xmm0
$LN96@TWSDisplay:
	movss	xmm0, DWORD PTR tv415[ebp]
	movss	DWORD PTR tv416[ebp], xmm0
	jmp	SHORT $LN98@TWSDisplay
$LN97@TWSDisplay:
	movss	xmm0, DWORD PTR __real@c4bb8000
	movss	DWORD PTR tv416[ebp], xmm0
$LN98@TWSDisplay:
	movss	xmm0, DWORD PTR tv416[ebp]
	movss	DWORD PTR _ang$[ebp], xmm0

; 1405 : 		sprintf (str, "%03.0f", ang);

	cvtss2sd xmm0, DWORD PTR _ang$[ebp]
	sub	esp, 8
	movsd	QWORD PTR [esp], xmm0
	push	OFFSET ??_C@_06EKMMACPN@?$CF03?40f?$AA@
	lea	eax, DWORD PTR _str$[ebp]
	push	eax
	call	_sprintf
	add	esp, 16					; 00000010H

; 1406 : 		ShiAssert (strlen(str) < sizeof(str));
; 1407 : 		display->TextRight (0.875F, SECOND_LINE_Y, str);

	push	0
	lea	ecx, DWORD PTR _str$[ebp]
	push	ecx
	push	ecx
	movss	xmm0, DWORD PTR __real@3f4ccccd
	movss	DWORD PTR [esp], xmm0
	push	ecx
	movss	xmm0, DWORD PTR __real@3f600000
	movss	DWORD PTR [esp], xmm0
	mov	edx, DWORD PTR _this$[ebp]
	mov	eax, DWORD PTR [edx+20]
	mov	ecx, DWORD PTR _this$[ebp]
	mov	edx, DWORD PTR [eax]
	mov	ecx, DWORD PTR [ecx+20]
	mov	eax, DWORD PTR [edx+60]
	call	eax

; 1408 : 
; 1409 : 		// TAS
; 1410 : 		ang = max( min( lockedTarget->BaseData()->GetKias(), 1500.0F), -1500.0F);

	mov	ecx, DWORD PTR _this$[ebp]
	mov	ecx, DWORD PTR [ecx+48]
	call	?BaseData@SimObjectType@@QAEPAVFalconEntity@@XZ ; SimObjectType::BaseData
	mov	DWORD PTR tv444[ebp], eax
	mov	edx, DWORD PTR tv444[ebp]
	mov	eax, DWORD PTR [edx]
	mov	ecx, DWORD PTR tv444[ebp]
	mov	edx, DWORD PTR [eax+224]
	call	edx
	fstp	DWORD PTR tv1490[ebp]
	movss	xmm0, DWORD PTR __real@44bb8000
	comiss	xmm0, DWORD PTR tv1490[ebp]
	jbe	SHORT $LN99@TWSDisplay
	mov	eax, DWORD PTR _this$[ebp]
	mov	ecx, DWORD PTR [eax+48]
	call	?BaseData@SimObjectType@@QAEPAVFalconEntity@@XZ ; SimObjectType::BaseData
	mov	DWORD PTR tv458[ebp], eax
	mov	ecx, DWORD PTR tv458[ebp]
	mov	edx, DWORD PTR [ecx]
	mov	ecx, DWORD PTR tv458[ebp]
	mov	eax, DWORD PTR [edx+224]
	call	eax
	fstp	DWORD PTR tv463[ebp]
	jmp	SHORT $LN100@TWSDisplay
$LN99@TWSDisplay:
	movss	xmm0, DWORD PTR __real@44bb8000
	movss	DWORD PTR tv463[ebp], xmm0
$LN100@TWSDisplay:
	movss	xmm0, DWORD PTR tv463[ebp]
	comiss	xmm0, DWORD PTR __real@c4bb8000
	jbe	$LN103@TWSDisplay
	mov	ecx, DWORD PTR _this$[ebp]
	mov	ecx, DWORD PTR [ecx+48]
	call	?BaseData@SimObjectType@@QAEPAVFalconEntity@@XZ ; SimObjectType::BaseData
	mov	DWORD PTR tv473[ebp], eax
	mov	edx, DWORD PTR tv473[ebp]
	mov	eax, DWORD PTR [edx]
	mov	ecx, DWORD PTR tv473[ebp]
	mov	edx, DWORD PTR [eax+224]
	call	edx
	fstp	DWORD PTR tv1509[ebp]
	movss	xmm0, DWORD PTR __real@44bb8000
	comiss	xmm0, DWORD PTR tv1509[ebp]
	jbe	SHORT $LN101@TWSDisplay
	mov	eax, DWORD PTR _this$[ebp]
	mov	ecx, DWORD PTR [eax+48]
	call	?BaseData@SimObjectType@@QAEPAVFalconEntity@@XZ ; SimObjectType::BaseData
	mov	DWORD PTR tv487[ebp], eax
	mov	ecx, DWORD PTR tv487[ebp]
	mov	edx, DWORD PTR [ecx]
	mov	ecx, DWORD PTR tv487[ebp]
	mov	eax, DWORD PTR [edx+224]
	call	eax
	fstp	DWORD PTR tv492[ebp]
	jmp	SHORT $LN102@TWSDisplay
$LN101@TWSDisplay:
	movss	xmm0, DWORD PTR __real@44bb8000
	movss	DWORD PTR tv492[ebp], xmm0
$LN102@TWSDisplay:
	movss	xmm0, DWORD PTR tv492[ebp]
	movss	DWORD PTR tv493[ebp], xmm0
	jmp	SHORT $LN104@TWSDisplay
$LN103@TWSDisplay:
	movss	xmm0, DWORD PTR __real@c4bb8000
	movss	DWORD PTR tv493[ebp], xmm0
$LN104@TWSDisplay:
	movss	xmm0, DWORD PTR tv493[ebp]
	movss	DWORD PTR _ang$[ebp], xmm0

; 1411 : 		sprintf (str, "%03.0f", ang);

	cvtss2sd xmm0, DWORD PTR _ang$[ebp]
	sub	esp, 8
	movsd	QWORD PTR [esp], xmm0
	push	OFFSET ??_C@_06EKMMACPN@?$CF03?40f?$AA@
	lea	ecx, DWORD PTR _str$[ebp]
	push	ecx
	call	_sprintf
	add	esp, 16					; 00000010H

; 1412 : 		ShiAssert (strlen(str) < sizeof(str));
; 1413 : 		display->TextRight (0.45F, SECOND_LINE_Y, str);

	push	0
	lea	edx, DWORD PTR _str$[ebp]
	push	edx
	push	ecx
	movss	xmm0, DWORD PTR __real@3f4ccccd
	movss	DWORD PTR [esp], xmm0
	push	ecx
	movss	xmm0, DWORD PTR __real@3ee66666
	movss	DWORD PTR [esp], xmm0
	mov	eax, DWORD PTR _this$[ebp]
	mov	ecx, DWORD PTR [eax+20]
	mov	edx, DWORD PTR _this$[ebp]
	mov	eax, DWORD PTR [ecx]
	mov	ecx, DWORD PTR [edx+20]
	mov	edx, DWORD PTR [eax+60]
	call	edx

; 1414 : 
; 1415 : 		// Add NCTR data for any bugged target
; 1416 : 		if (lockedTargetData->rdrSy[0] == Bug || lockedTargetData->rdrSy[0] == FlashBug)

	mov	eax, DWORD PTR _this$[ebp]
	mov	ecx, DWORD PTR [eax+176]
	mov	edx, 4
	imul	edx, 0
	cmp	DWORD PTR [ecx+edx+72], 7
	je	SHORT $LN63@TWSDisplay
	mov	eax, DWORD PTR _this$[ebp]
	mov	ecx, DWORD PTR [eax+176]
	mov	edx, 4
	imul	edx, 0
	cmp	DWORD PTR [ecx+edx+72], 8
	jne	SHORT $LN62@TWSDisplay
$LN63@TWSDisplay:

; 1417 : 		{
; 1418 : 			DrawNCTR(true);

	push	1
	mov	ecx, DWORD PTR _this$[ebp]
	call	?DrawNCTR@RadarDopplerClass@@IAEX_N@Z	; RadarDopplerClass::DrawNCTR

; 1419 : 			// JPO - also do AIM120 DLZ
; 1420 : 			if (pFCC->GetSubMode() == FireControlComputer::Aim120 && pFCC->missileTarget)

	mov	ecx, DWORD PTR _pFCC$[ebp]
	call	?GetSubMode@FireControlComputer@@QAE?AW4FCCSubMode@1@XZ ; FireControlComputer::GetSubMode
	cmp	eax, 6
	jne	SHORT $LN62@TWSDisplay
	mov	eax, DWORD PTR _pFCC$[ebp]
	movsx	ecx, BYTE PTR [eax+192]
	test	ecx, ecx
	je	SHORT $LN62@TWSDisplay

; 1421 : 				DrawDLZSymbol();

	mov	ecx, DWORD PTR _this$[ebp]
	call	?DrawDLZSymbol@RadarDopplerClass@@IAEXXZ ; RadarDopplerClass::DrawDLZSymbol
$LN62@TWSDisplay:

; 1422 : 		}
; 1423 : 	}
; 1424 : 
; 1425 : 	// Draw in the drawing area only
; 1426 : 	display->SetViewportRelative (
; 1427 : 		DisplayAreaViewLeft, DisplayAreaViewTop, DisplayAreaViewRight, DisplayAreaViewBottom
; 1428 : 	);

	push	ecx
	movss	xmm0, DWORD PTR _DisplayAreaViewBottom
	movss	DWORD PTR [esp], xmm0
	push	ecx
	movss	xmm0, DWORD PTR _DisplayAreaViewRight
	movss	DWORD PTR [esp], xmm0
	push	ecx
	movss	xmm0, DWORD PTR _DisplayAreaViewTop
	movss	DWORD PTR [esp], xmm0
	push	ecx
	movss	xmm0, DWORD PTR _DisplayAreaViewLeft
	movss	DWORD PTR [esp], xmm0
	mov	edx, DWORD PTR _this$[ebp]
	mov	eax, DWORD PTR [edx+20]
	mov	ecx, DWORD PTR _this$[ebp]
	mov	edx, DWORD PTR [eax]
	mov	ecx, DWORD PTR [ecx+20]
	mov	eax, DWORD PTR [edx+116]
	call	eax

; 1429 : 
; 1430 : 	float tgtx, tgty;
; 1431 : 	float brange;
; 1432 : 	if (IsSet(EXP)) {

	push	2
	mov	ecx, DWORD PTR _this$[ebp]
	call	?IsSet@RadarDopplerClass@@QAEHH@Z	; RadarDopplerClass::IsSet
	test	eax, eax
	je	$LN61@TWSDisplay

; 1433 : 		if (lockedTargetData) {

	mov	ecx, DWORD PTR _this$[ebp]
	cmp	DWORD PTR [ecx+176], 0
	je	SHORT $LN60@TWSDisplay

; 1434 : 			// work out where on the display the target is
; 1435 : 			TargetToXY(lockedTargetData, 0, tdisplayRange, &tgtx, &tgty);

	lea	edx, DWORD PTR _tgty$[ebp]
	push	edx
	lea	eax, DWORD PTR _tgtx$[ebp]
	push	eax
	mov	ecx, DWORD PTR _this$[ebp]
	push	ecx
	movss	xmm0, DWORD PTR [ecx+264]
	movss	DWORD PTR [esp], xmm0
	push	0
	mov	edx, DWORD PTR _this$[ebp]
	mov	eax, DWORD PTR [edx+176]
	push	eax
	mov	ecx, DWORD PTR _this$[ebp]
	call	?TargetToXY@RadarDopplerClass@@QAEXPAVSimObjectLocalData@@HMPAM1@Z ; RadarDopplerClass::TargetToXY

; 1436 : 		}
; 1437 : 		else {

	jmp	SHORT $LN59@TWSDisplay
$LN60@TWSDisplay:

; 1438 : 			tgtx = cursorX;

	mov	ecx, DWORD PTR _this$[ebp]
	movss	xmm0, DWORD PTR [ecx+220]
	movss	DWORD PTR _tgtx$[ebp], xmm0

; 1439 : 			tgty = cursorY;

	mov	edx, DWORD PTR _this$[ebp]
	movss	xmm0, DWORD PTR [edx+224]
	movss	DWORD PTR _tgty$[ebp], xmm0
$LN59@TWSDisplay:

; 1440 : 		}
; 1441 : 		// draw the box
; 1442 : 		brange = 2.0f * 2 * NM_TO_FT / tdisplayRange;

	mov	eax, DWORD PTR _this$[ebp]
	movss	xmm0, DWORD PTR __real@46bde1b0
	divss	xmm0, DWORD PTR [eax+264]
	movss	DWORD PTR _brange$[ebp], xmm0

; 1443 : 		display->Line(tgtx - brange, tgty - brange, tgtx + brange, tgty - brange);

	movss	xmm0, DWORD PTR _tgty$[ebp]
	subss	xmm0, DWORD PTR _brange$[ebp]
	push	ecx
	movss	DWORD PTR [esp], xmm0
	movss	xmm0, DWORD PTR _tgtx$[ebp]
	addss	xmm0, DWORD PTR _brange$[ebp]
	push	ecx
	movss	DWORD PTR [esp], xmm0
	movss	xmm0, DWORD PTR _tgty$[ebp]
	subss	xmm0, DWORD PTR _brange$[ebp]
	push	ecx
	movss	DWORD PTR [esp], xmm0
	movss	xmm0, DWORD PTR _tgtx$[ebp]
	subss	xmm0, DWORD PTR _brange$[ebp]
	push	ecx
	movss	DWORD PTR [esp], xmm0
	mov	ecx, DWORD PTR _this$[ebp]
	mov	edx, DWORD PTR [ecx+20]
	mov	eax, DWORD PTR _this$[ebp]
	mov	edx, DWORD PTR [edx]
	mov	ecx, DWORD PTR [eax+20]
	mov	eax, DWORD PTR [edx+32]
	call	eax

; 1444 : 		display->Line(tgtx + brange, tgty - brange, tgtx + brange, tgty + brange);

	movss	xmm0, DWORD PTR _tgty$[ebp]
	addss	xmm0, DWORD PTR _brange$[ebp]
	push	ecx
	movss	DWORD PTR [esp], xmm0
	movss	xmm0, DWORD PTR _tgtx$[ebp]
	addss	xmm0, DWORD PTR _brange$[ebp]
	push	ecx
	movss	DWORD PTR [esp], xmm0
	movss	xmm0, DWORD PTR _tgty$[ebp]
	subss	xmm0, DWORD PTR _brange$[ebp]
	push	ecx
	movss	DWORD PTR [esp], xmm0
	movss	xmm0, DWORD PTR _tgtx$[ebp]
	addss	xmm0, DWORD PTR _brange$[ebp]
	push	ecx
	movss	DWORD PTR [esp], xmm0
	mov	ecx, DWORD PTR _this$[ebp]
	mov	edx, DWORD PTR [ecx+20]
	mov	eax, DWORD PTR _this$[ebp]
	mov	edx, DWORD PTR [edx]
	mov	ecx, DWORD PTR [eax+20]
	mov	eax, DWORD PTR [edx+32]
	call	eax

; 1445 : 		display->Line(tgtx + brange, tgty + brange, tgtx - brange, tgty + brange);

	movss	xmm0, DWORD PTR _tgty$[ebp]
	addss	xmm0, DWORD PTR _brange$[ebp]
	push	ecx
	movss	DWORD PTR [esp], xmm0
	movss	xmm0, DWORD PTR _tgtx$[ebp]
	subss	xmm0, DWORD PTR _brange$[ebp]
	push	ecx
	movss	DWORD PTR [esp], xmm0
	movss	xmm0, DWORD PTR _tgty$[ebp]
	addss	xmm0, DWORD PTR _brange$[ebp]
	push	ecx
	movss	DWORD PTR [esp], xmm0
	movss	xmm0, DWORD PTR _tgtx$[ebp]
	addss	xmm0, DWORD PTR _brange$[ebp]
	push	ecx
	movss	DWORD PTR [esp], xmm0
	mov	ecx, DWORD PTR _this$[ebp]
	mov	edx, DWORD PTR [ecx+20]
	mov	eax, DWORD PTR _this$[ebp]
	mov	edx, DWORD PTR [edx]
	mov	ecx, DWORD PTR [eax+20]
	mov	eax, DWORD PTR [edx+32]
	call	eax

; 1446 : 		display->Line(tgtx - brange, tgty + brange, tgtx - brange, tgty - brange);

	movss	xmm0, DWORD PTR _tgty$[ebp]
	subss	xmm0, DWORD PTR _brange$[ebp]
	push	ecx
	movss	DWORD PTR [esp], xmm0
	movss	xmm0, DWORD PTR _tgtx$[ebp]
	subss	xmm0, DWORD PTR _brange$[ebp]
	push	ecx
	movss	DWORD PTR [esp], xmm0
	movss	xmm0, DWORD PTR _tgty$[ebp]
	addss	xmm0, DWORD PTR _brange$[ebp]
	push	ecx
	movss	DWORD PTR [esp], xmm0
	movss	xmm0, DWORD PTR _tgtx$[ebp]
	subss	xmm0, DWORD PTR _brange$[ebp]
	push	ecx
	movss	DWORD PTR [esp], xmm0
	mov	ecx, DWORD PTR _this$[ebp]
	mov	edx, DWORD PTR [ecx+20]
	mov	eax, DWORD PTR _this$[ebp]
	mov	edx, DWORD PTR [edx]
	mov	ecx, DWORD PTR [eax+20]
	mov	eax, DWORD PTR [edx+32]
	call	eax

; 1447 : 	}
; 1448 : 	else {

	jmp	SHORT $LN58@TWSDisplay
$LN61@TWSDisplay:

; 1449 : 		brange = 0;

	movss	xmm0, DWORD PTR __real@00000000
	movss	DWORD PTR _brange$[ebp], xmm0

; 1450 : 		tgtx = 0; tgty = 0;

	movss	xmm0, DWORD PTR __real@00000000
	movss	DWORD PTR _tgtx$[ebp], xmm0
	movss	xmm0, DWORD PTR __real@00000000
	movss	DWORD PTR _tgty$[ebp], xmm0
$LN58@TWSDisplay:

; 1451 : 	}
; 1452 : 
; 1453 : 	/*-----------------*/
; 1454 : 	/* for all objects */
; 1455 : 	/*-----------------*/
; 1456 : 	while (rdrObj)

	cmp	DWORD PTR _rdrObj$[ebp], 0
	je	$LN56@TWSDisplay

; 1457 : 	{
; 1458 : 		rdrData = rdrObj->localData;

	mov	ecx, DWORD PTR _rdrObj$[ebp]
	mov	edx, DWORD PTR [ecx+12]
	mov	DWORD PTR _rdrData$[ebp], edx

; 1459 : 		//Cobra We put this here becuase > 1.0 below won't let us in the loop at times.
; 1460 : 		 //if (!rdrData->rdrSy[0] >= Det) Cobra fix warning C4804
; 1461 : 		if (!(rdrData->rdrSy[0] >= Det))

	mov	eax, 4
	imul	eax, 0
	mov	ecx, DWORD PTR _rdrData$[ebp]
	cmp	DWORD PTR [ecx+eax+72], 1
	jge	SHORT $LN55@TWSDisplay

; 1462 : 			{
; 1463 : 				rdrData->interrogated = FALSE;

	mov	edx, DWORD PTR _rdrData$[ebp]
	mov	DWORD PTR [edx+156], 0
$LN55@TWSDisplay:

; 1464 : 			}
; 1465 : 		//End
; 1466 : 
; 1467 : 
; 1468 : 		/*-------------------------*/
; 1469 : 		/* show target and history */
; 1470 : 		/*-------------------------*/
; 1471 : 		if (rdrData->rdrY[0] > 1.0)

	mov	eax, 4
	imul	eax, 0
	mov	ecx, DWORD PTR _rdrData$[ebp]
	cvtss2sd xmm0, DWORD PTR [ecx+eax+104]
	comisd	xmm0, QWORD PTR __real@3ff0000000000000
	jbe	$LN53@TWSDisplay

; 1472 : 		{
; 1473 : 			TargetToXY(rdrData, 0, tdisplayRange, &xPos, &yPos);

	lea	edx, DWORD PTR _yPos$[ebp]
	push	edx
	lea	eax, DWORD PTR _xPos$[ebp]
	push	eax
	mov	ecx, DWORD PTR _this$[ebp]
	push	ecx
	movss	xmm0, DWORD PTR [ecx+264]
	movss	DWORD PTR [esp], xmm0
	push	0
	mov	edx, DWORD PTR _rdrData$[ebp]
	push	edx
	mov	ecx, DWORD PTR _this$[ebp]
	call	?TargetToXY@RadarDopplerClass@@QAEXPAVSimObjectLocalData@@HMPAM1@Z ; RadarDopplerClass::TargetToXY

; 1474 : 
; 1475 : 			/*----------------------------*/
; 1476 : 			/* keep objects on the screen */
; 1477 : 			/*----------------------------*/
; 1478 : 			if (fabs(xPos) < AZL && fabs(yPos) < AZL)

	push	ecx
	movss	xmm0, DWORD PTR _xPos$[ebp]
	movss	DWORD PTR [esp], xmm0
	call	?fabs@@YAMM@Z				; fabs
	add	esp, 4
	fstp	DWORD PTR tv1629[ebp]
	movss	xmm0, DWORD PTR __real@3f800000
	comiss	xmm0, DWORD PTR tv1629[ebp]
	jbe	$LN53@TWSDisplay
	push	ecx
	movss	xmm0, DWORD PTR _yPos$[ebp]
	movss	DWORD PTR [esp], xmm0
	call	?fabs@@YAMM@Z				; fabs
	add	esp, 4
	fstp	DWORD PTR tv1636[ebp]
	movss	xmm0, DWORD PTR __real@3f800000
	comiss	xmm0, DWORD PTR tv1636[ebp]
	jbe	$LN53@TWSDisplay

; 1479 : 			{
; 1480 : 				if (IsSet(EXP)) 

	push	2
	mov	ecx, DWORD PTR _this$[ebp]
	call	?IsSet@RadarDopplerClass@@QAEHH@Z	; RadarDopplerClass::IsSet
	test	eax, eax
	je	$LN51@TWSDisplay

; 1481 : #if 0	// check if its in the box
; 1482 : 					&& 
; 1483 : 							xPos > tgtx - brange && xPos < tgtx + brange &&
; 1484 : 							yPos > tgty - brange && yPos < tgty + brange
; 1485 : #endif
; 1486 : 							{ 
; 1487 : 								float dx = xPos - tgtx;

	movss	xmm0, DWORD PTR _xPos$[ebp]
	subss	xmm0, DWORD PTR _tgtx$[ebp]
	movss	DWORD PTR _dx$2[ebp], xmm0

; 1488 : 								float dy = yPos - tgty;

	movss	xmm0, DWORD PTR _yPos$[ebp]
	subss	xmm0, DWORD PTR _tgty$[ebp]
	movss	DWORD PTR _dy$3[ebp], xmm0

; 1489 : 								dx *= 4; // zoom factor

	movss	xmm0, DWORD PTR _dx$2[ebp]
	mulss	xmm0, DWORD PTR __real@40800000
	movss	DWORD PTR _dx$2[ebp], xmm0

; 1490 : 								dy *= 4;

	movss	xmm0, DWORD PTR _dy$3[ebp]
	mulss	xmm0, DWORD PTR __real@40800000
	movss	DWORD PTR _dy$3[ebp], xmm0

; 1491 : 								xPos = tgtx + dx;

	movss	xmm0, DWORD PTR _tgtx$[ebp]
	addss	xmm0, DWORD PTR _dx$2[ebp]
	movss	DWORD PTR _xPos$[ebp], xmm0

; 1492 : 								yPos = tgty + dy;

	movss	xmm0, DWORD PTR _tgty$[ebp]
	addss	xmm0, DWORD PTR _dy$3[ebp]
	movss	DWORD PTR _yPos$[ebp], xmm0

; 1493 : 								if (fabs(xPos) > AZL || fabs(yPos) > AZL) 

	push	ecx
	movss	xmm0, DWORD PTR _xPos$[ebp]
	movss	DWORD PTR [esp], xmm0
	call	?fabs@@YAMM@Z				; fabs
	add	esp, 4
	fstp	DWORD PTR tv1650[ebp]
	movss	xmm0, DWORD PTR tv1650[ebp]
	comiss	xmm0, DWORD PTR __real@3f800000
	ja	SHORT $LN50@TWSDisplay
	push	ecx
	movss	xmm0, DWORD PTR _yPos$[ebp]
	movss	DWORD PTR [esp], xmm0
	call	?fabs@@YAMM@Z				; fabs
	add	esp, 4
	fstp	DWORD PTR tv1656[ebp]
	movss	xmm0, DWORD PTR tv1656[ebp]
	comiss	xmm0, DWORD PTR __real@3f800000
	jbe	SHORT $LN51@TWSDisplay
$LN50@TWSDisplay:

; 1494 : 								{
; 1495 : 									rdrObj = rdrObj->next;

	mov	eax, DWORD PTR _rdrObj$[ebp]
	mov	ecx, DWORD PTR [eax+16]
	mov	DWORD PTR _rdrObj$[ebp], ecx

; 1496 : 									continue;

	jmp	$LN58@TWSDisplay
$LN51@TWSDisplay:

; 1497 : 								}
; 1498 : 							}
; 1499 : 
; 1500 : 				//Mi
; 1501 : 				Pointer++;

	mov	edx, DWORD PTR _this$[ebp]
	mov	eax, DWORD PTR [edx+596]
	add	eax, 1
	mov	ecx, DWORD PTR _this$[ebp]
	mov	DWORD PTR [ecx+596], eax

; 1502 : 				if(Pointer > 19)

	mov	edx, DWORD PTR _this$[ebp]
	cmp	DWORD PTR [edx+596], 19			; 00000013H
	jle	SHORT $LN49@TWSDisplay

; 1503 : 					Pointer = 0;

	mov	eax, DWORD PTR _this$[ebp]
	mov	DWORD PTR [eax+596], 0
$LN49@TWSDisplay:

; 1504 : 
; 1505 : 				display->AdjustOriginInViewport (xPos, yPos);

	push	ecx
	movss	xmm0, DWORD PTR _yPos$[ebp]
	movss	DWORD PTR [esp], xmm0
	push	ecx
	movss	xmm0, DWORD PTR _xPos$[ebp]
	movss	DWORD PTR [esp], xmm0
	mov	ecx, DWORD PTR _this$[ebp]
	mov	ecx, DWORD PTR [ecx+20]
	call	?AdjustOriginInViewport@VirtualDisplay@@QAEXMM@Z ; VirtualDisplay::AdjustOriginInViewport

; 1506 : 				if (rdrData->rdrSy[0] >= Track)

	mov	edx, 4
	imul	edx, 0
	mov	eax, DWORD PTR _rdrData$[ebp]
	cmp	DWORD PTR [eax+edx+72], 3
	jl	$LN48@TWSDisplay

; 1507 : 				{
; 1508 : 					// This _should_ be right -- based on 2D angle between target velocity
; 1509 : 					// and our line of sight to target  SCR 10/27/97
; 1510 : 					ang = rdrObj->BaseData()->Yaw() - rdrData->rdrX[0] - platform->Yaw();

	mov	ecx, DWORD PTR _rdrObj$[ebp]
	call	?BaseData@SimObjectType@@QAEPAVFalconEntity@@XZ ; SimObjectType::BaseData
	mov	ecx, eax
	call	?Yaw@VuEntity@@QBEMXZ			; VuEntity::Yaw
	fstp	DWORD PTR tv1674[ebp]
	movss	xmm0, DWORD PTR tv1674[ebp]
	mov	ecx, 4
	imul	ecx, 0
	mov	edx, DWORD PTR _rdrData$[ebp]
	subss	xmm0, DWORD PTR [edx+ecx+88]
	mov	eax, DWORD PTR _this$[ebp]
	mov	ecx, DWORD PTR [eax+32]
	movss	DWORD PTR tv2016[ebp], xmm0
	call	?Yaw@VuEntity@@QBEMXZ			; VuEntity::Yaw
	fstp	DWORD PTR tv1681[ebp]
	movss	xmm0, DWORD PTR tv2016[ebp]
	subss	xmm0, DWORD PTR tv1681[ebp]
	movss	DWORD PTR _ang$[ebp], xmm0

; 1511 : 					if (ang >= 0.0)

	cvtss2sd xmm0, DWORD PTR _ang$[ebp]
	comisd	xmm0, QWORD PTR __real@0000000000000000
	jb	SHORT $LN47@TWSDisplay

; 1512 : 						ang = SCH_ANG_INC*(float)floor(ang/(SCH_ANG_INC * DTR));

	movss	xmm0, DWORD PTR _ang$[ebp]
	divss	xmm0, DWORD PTR __real@3e4d87ab
	push	ecx
	movss	DWORD PTR [esp], xmm0
	call	?floor@@YAMM@Z				; floor
	add	esp, 4
	fstp	DWORD PTR tv1687[ebp]
	movss	xmm0, DWORD PTR tv1687[ebp]
	mulss	xmm0, DWORD PTR __real@41380000
	movss	DWORD PTR _ang$[ebp], xmm0

; 1513 : 					else

	jmp	SHORT $LN46@TWSDisplay
$LN47@TWSDisplay:

; 1514 : 						ang = SCH_ANG_INC*(float)ceil(ang/(SCH_ANG_INC * DTR));

	movss	xmm0, DWORD PTR _ang$[ebp]
	divss	xmm0, DWORD PTR __real@3e4d87ab
	push	ecx
	movss	DWORD PTR [esp], xmm0
	call	?ceil@@YAMM@Z				; ceil
	add	esp, 4
	fstp	DWORD PTR tv1694[ebp]
	movss	xmm0, DWORD PTR tv1694[ebp]
	mulss	xmm0, DWORD PTR __real@41380000
	movss	DWORD PTR _ang$[ebp], xmm0
$LN46@TWSDisplay:

; 1515 : 					display->AdjustRotationAboutOrigin (ang * DTR);

	movss	xmm0, DWORD PTR _ang$[ebp]
	mulss	xmm0, DWORD PTR __real@3c8efa34
	push	ecx
	movss	DWORD PTR [esp], xmm0
	mov	ecx, DWORD PTR _this$[ebp]
	mov	ecx, DWORD PTR [ecx+20]
	call	?AdjustRotationAboutOrigin@VirtualDisplay@@QAEXM@Z ; VirtualDisplay::AdjustRotationAboutOrigin
$LN48@TWSDisplay:

; 1516 : 				}
; 1517 : 				//Cobra
; 1518 : 				if (g_bRealisticAvionics)

	movzx	edx, BYTE PTR ?g_bRealisticAvionics@@3_NA ; g_bRealisticAvionics
	test	edx, edx
	je	SHORT $LN44@TWSDisplay

; 1519 : 				{
; 1520 : 					if (rdrData->rdrSy[0] >= Track && self->interrogating)

	mov	eax, 4
	imul	eax, 0
	mov	ecx, DWORD PTR _rdrData$[ebp]
	cmp	DWORD PTR [ecx+eax+72], 3
	jl	SHORT $LN44@TWSDisplay
	mov	edx, DWORD PTR _self$[ebp]
	movzx	eax, BYTE PTR [edx+900]
	test	eax, eax
	je	SHORT $LN44@TWSDisplay

; 1521 : 					{
; 1522 : 						rdrData->interrogated = TRUE;

	mov	ecx, DWORD PTR _rdrData$[ebp]
	mov	DWORD PTR [ecx+156], 1
$LN44@TWSDisplay:

; 1523 : 					}
; 1524 : 				}
; 1525 : 
; 1526 : 				vt = rdrObj->BaseData()->GetVt();

	mov	ecx, DWORD PTR _rdrObj$[ebp]
	call	?BaseData@SimObjectType@@QAEPAVFalconEntity@@XZ ; SimObjectType::BaseData
	mov	DWORD PTR tv757[ebp], eax
	mov	edx, DWORD PTR tv757[ebp]
	mov	eax, DWORD PTR [edx]
	mov	ecx, DWORD PTR tv757[ebp]
	mov	edx, DWORD PTR [eax+220]
	call	edx
	fstp	DWORD PTR _vt$[ebp]

; 1527 : 				if (rdrObj == lockedTarget && 
; 1528 : 								pFCC->lastMissileImpactTime > 0.0F) 

	mov	eax, DWORD PTR _this$[ebp]
	mov	ecx, DWORD PTR _rdrObj$[ebp]
	cmp	ecx, DWORD PTR [eax+48]
	jne	SHORT $LN43@TWSDisplay
	mov	edx, DWORD PTR _pFCC$[ebp]
	movss	xmm0, DWORD PTR [edx+268]
	comiss	xmm0, DWORD PTR __real@00000000
	jbe	SHORT $LN43@TWSDisplay

; 1529 : 				{ // Aim Target
; 1530 : 					if (pFCC->lastMissileImpactTime > pFCC->lastmissileActiveTime)

	mov	eax, DWORD PTR _pFCC$[ebp]
	mov	ecx, DWORD PTR _pFCC$[ebp]
	movss	xmm0, DWORD PTR [eax+268]
	comiss	xmm0, DWORD PTR [ecx+276]
	jbe	SHORT $LN42@TWSDisplay

; 1531 : 						DrawSymbol(AimRel, vt/SCH_FACT, 0);

	push	0
	push	0
	movss	xmm0, DWORD PTR _vt$[ebp]
	divss	xmm0, DWORD PTR __real@44c80000
	push	ecx
	movss	DWORD PTR [esp], xmm0
	push	16					; 00000010H
	mov	ecx, DWORD PTR _this$[ebp]
	call	?DrawSymbol@RadarDopplerClass@@IAEXHMHH@Z ; RadarDopplerClass::DrawSymbol

; 1532 : 					else

	jmp	SHORT $LN41@TWSDisplay
$LN42@TWSDisplay:

; 1533 : 						DrawSymbol(AimFlash, vt/SCH_FACT, 0);

	push	0
	push	0
	movss	xmm0, DWORD PTR _vt$[ebp]
	divss	xmm0, DWORD PTR __real@44c80000
	push	ecx
	movss	DWORD PTR [esp], xmm0
	push	17					; 00000011H
	mov	ecx, DWORD PTR _this$[ebp]
	call	?DrawSymbol@RadarDopplerClass@@IAEXHMHH@Z ; RadarDopplerClass::DrawSymbol
$LN41@TWSDisplay:

; 1534 : 				}
; 1535 : 				else

	jmp	$LN15@TWSDisplay
$LN43@TWSDisplay:

; 1536 : 				{
; 1537 : 					/*if (rdrData->TWSTrackFileOpen)
; 1538 : 					  {
; 1539 : 					  if (rdrData->extrapolateStart && (SimLibElapsedTime > (rdrData->extrapolateStart + TwsFlashTime)))
; 1540 : 					// MD -- 20040121: provide data for flash check
; 1541 : 					DrawSymbol(rdrData->rdrSy[0], vt/SCH_FACT, 0, 1);  
; 1542 : 					else
; 1543 : 					DrawSymbol(rdrData->rdrSy[0], vt/SCH_FACT, 0);
; 1544 : 					}
; 1545 : 					else
; 1546 : 					{
; 1547 : 					// search targets are drawn with history
; 1548 : 					for (int i=histno-1; i>=0; i--)
; 1549 : 					{
; 1550 : 					DrawSymbol(rdrData->rdrSy[i], vt/SCH_FACT, 0);
; 1551 : 					}
; 1552 : 					}*/
; 1553 : 					//Cobra 11/20/04 Rewrite for IFF
; 1554 : 
; 1555 : 					//Add more here
; 1556 : 					//Cobra 11/21/04 Are they interrogated?
; 1557 : 					bool isCpl = TRUE;

	mov	BYTE PTR _isCpl$5[ebp], 1

; 1558 : 					if (IsIFFFlags(Dcpl))

	push	1
	mov	ecx, DWORD PTR _this$[ebp]
	call	?IsIFFFlags@RadarDopplerClass@@IAEHH@Z	; RadarDopplerClass::IsIFFFlags
	test	eax, eax
	je	SHORT $LN39@TWSDisplay

; 1559 : 						isCpl = FALSE;

	mov	BYTE PTR _isCpl$5[ebp], 0
$LN39@TWSDisplay:

; 1560 : 
; 1561 : 					if (g_bRealisticAvionics)

	movzx	edx, BYTE PTR ?g_bRealisticAvionics@@3_NA ; g_bRealisticAvionics
	test	edx, edx
	je	$LN30@TWSDisplay

; 1562 : 					{
; 1563 : 						if (rdrData->rdrSy[0] >= Det && self->interrogating && isCpl)

	mov	eax, 4
	imul	eax, 0
	mov	ecx, DWORD PTR _rdrData$[ebp]
	cmp	DWORD PTR [ecx+eax+72], 1
	jl	SHORT $LN37@TWSDisplay
	mov	edx, DWORD PTR _self$[ebp]
	movzx	eax, BYTE PTR [edx+900]
	test	eax, eax
	je	SHORT $LN37@TWSDisplay
	movzx	ecx, BYTE PTR _isCpl$5[ebp]
	test	ecx, ecx
	je	SHORT $LN37@TWSDisplay

; 1564 : 						{
; 1565 : 							rdrData->interrogated = TRUE;

	mov	edx, DWORD PTR _rdrData$[ebp]
	mov	DWORD PTR [edx+156], 1
	jmp	$LN33@TWSDisplay
$LN37@TWSDisplay:

; 1566 : 						}
; 1567 : 						//else if (!rdrData->rdrSy[0] >= Det && isCpl) Cobra fix warning C4804
; 1568 : 						else if ((!(rdrData->rdrSy[0] >= Det)) && isCpl)

	mov	eax, 4
	imul	eax, 0
	mov	ecx, DWORD PTR _rdrData$[ebp]
	cmp	DWORD PTR [ecx+eax+72], 1
	jge	SHORT $LN35@TWSDisplay
	movzx	edx, BYTE PTR _isCpl$5[ebp]
	test	edx, edx
	je	SHORT $LN35@TWSDisplay

; 1569 : 						{
; 1570 : 							rdrData->interrogated = FALSE;

	mov	eax, DWORD PTR _rdrData$[ebp]
	mov	DWORD PTR [eax+156], 0
	jmp	$LN33@TWSDisplay
$LN35@TWSDisplay:

; 1571 : 						}
; 1572 : 						else if (self->interrogating && !rdrObj->BaseData()->OnGround())

	mov	ecx, DWORD PTR _self$[ebp]
	movzx	edx, BYTE PTR [ecx+900]
	test	edx, edx
	je	$LN33@TWSDisplay
	mov	ecx, DWORD PTR _rdrObj$[ebp]
	call	?BaseData@SimObjectType@@QAEPAVFalconEntity@@XZ ; SimObjectType::BaseData
	mov	DWORD PTR tv813[ebp], eax
	mov	eax, DWORD PTR tv813[ebp]
	mov	edx, DWORD PTR [eax]
	mov	ecx, DWORD PTR tv813[ebp]
	mov	eax, DWORD PTR [edx+148]
	call	eax
	test	eax, eax
	jne	SHORT $LN33@TWSDisplay

; 1573 : 						{
; 1574 : 							rdrData->interrogated = TRUE;

	mov	ecx, DWORD PTR _rdrData$[ebp]
	mov	DWORD PTR [ecx+156], 1

; 1575 : 							wipeIFF = TRUE;

	mov	edx, DWORD PTR _this$[ebp]
	mov	BYTE PTR [edx+180], 1

; 1576 : 							iffTimer = SimLibElapsedTime + 5000.0f;

	mov	eax, DWORD PTR ?SimLibElapsedTime@@3KA	; SimLibElapsedTime
	mov	DWORD PTR tv1735[ebp], eax
	cvtsi2sd xmm0, DWORD PTR tv1735[ebp]
	mov	ecx, DWORD PTR tv1735[ebp]
	shr	ecx, 31					; 0000001fH
	addsd	xmm0, QWORD PTR __xmm@41f00000000000000000000000000000[ecx*8]
	movsd	QWORD PTR tv1739[ebp], xmm0
	cvtsd2ss xmm0, QWORD PTR tv1739[ebp]
	addss	xmm0, DWORD PTR __real@459c4000
	mov	edx, DWORD PTR _this$[ebp]
	movss	DWORD PTR [edx+236], xmm0
$LN33@TWSDisplay:

; 1577 : 						}
; 1578 : 							
; 1579 : 						//if (wipeIFF == TRUE && (!rdrData->rdrSy[0] >= Det) && isCpl) Cobra fix warning C4804
; 1580 : 						if (wipeIFF == TRUE && ((!(rdrData->rdrSy[0] >= Det)) && isCpl))

	mov	eax, DWORD PTR _this$[ebp]
	movzx	ecx, BYTE PTR [eax+180]
	cmp	ecx, 1
	jne	SHORT $LN32@TWSDisplay
	mov	edx, 4
	imul	edx, 0
	mov	eax, DWORD PTR _rdrData$[ebp]
	cmp	DWORD PTR [eax+edx+72], 1
	jge	SHORT $LN32@TWSDisplay
	movzx	ecx, BYTE PTR _isCpl$5[ebp]
	test	ecx, ecx
	je	SHORT $LN32@TWSDisplay

; 1581 : 						{
; 1582 : 							rdrData->interrogated = FALSE;

	mov	edx, DWORD PTR _rdrData$[ebp]
	mov	DWORD PTR [edx+156], 0

; 1583 : 							wipeIFF = FALSE;

	mov	eax, DWORD PTR _this$[ebp]
	mov	BYTE PTR [eax+180], 0

; 1584 : 						}
; 1585 : 						//else if (wipeIFF == TRUE && (!rdrData->rdrSy[0] >= Det) Cobra fix warning C4804
; 1586 : 						else if (wipeIFF == TRUE && (!(rdrData->rdrSy[0] >= Det))

	jmp	$LN30@TWSDisplay
$LN32@TWSDisplay:

; 1587 : 							&& (iffTimer < SimLibElapsedTime))

	mov	ecx, DWORD PTR _this$[ebp]
	movzx	edx, BYTE PTR [ecx+180]
	cmp	edx, 1
	jne	$LN30@TWSDisplay
	mov	eax, 4
	imul	eax, 0
	mov	ecx, DWORD PTR _rdrData$[ebp]
	cmp	DWORD PTR [ecx+eax+72], 1
	jge	$LN30@TWSDisplay
	mov	edx, DWORD PTR ?SimLibElapsedTime@@3KA	; SimLibElapsedTime
	mov	DWORD PTR tv1753[ebp], edx
	cvtsi2sd xmm0, DWORD PTR tv1753[ebp]
	mov	eax, DWORD PTR tv1753[ebp]
	shr	eax, 31					; 0000001fH
	addsd	xmm0, QWORD PTR __xmm@41f00000000000000000000000000000[eax*8]
	movsd	QWORD PTR tv1757[ebp], xmm0
	cvtsd2ss xmm0, QWORD PTR tv1757[ebp]
	mov	ecx, DWORD PTR _this$[ebp]
	comiss	xmm0, DWORD PTR [ecx+236]
	jbe	SHORT $LN30@TWSDisplay

; 1588 : 						{
; 1589 : 							rdrData->interrogated = FALSE;

	mov	edx, DWORD PTR _rdrData$[ebp]
	mov	DWORD PTR [edx+156], 0

; 1590 : 							iffTimer = (float)SimLibElapsedTime;

	mov	eax, DWORD PTR ?SimLibElapsedTime@@3KA	; SimLibElapsedTime
	mov	DWORD PTR tv1764[ebp], eax
	cvtsi2sd xmm0, DWORD PTR tv1764[ebp]
	mov	ecx, DWORD PTR tv1764[ebp]
	shr	ecx, 31					; 0000001fH
	addsd	xmm0, QWORD PTR __xmm@41f00000000000000000000000000000[ecx*8]
	movsd	QWORD PTR tv1768[ebp], xmm0
	cvtsd2ss xmm0, QWORD PTR tv1768[ebp]
	mov	edx, DWORD PTR _this$[ebp]
	movss	DWORD PTR [edx+236], xmm0
$LN30@TWSDisplay:

; 1591 : 						}
; 1592 : 					}
; 1593 : 					//End
; 1594 : 
; 1595 : 					if (rdrData->TWSTrackFileOpen)

	mov	eax, DWORD PTR _rdrData$[ebp]
	cmp	DWORD PTR [eax+56], 0
	je	$LN29@TWSDisplay

; 1596 : 					{
; 1597 : 						if (rdrData->extrapolateStart && (SimLibElapsedTime > (rdrData->extrapolateStart + TwsFlashTime)))

	mov	ecx, DWORD PTR _rdrData$[ebp]
	cmp	DWORD PTR [ecx+144], 0
	je	$LN28@TWSDisplay
	mov	edx, DWORD PTR _rdrData$[ebp]
	mov	eax, DWORD PTR [edx+144]
	add	eax, 8000				; 00001f40H
	cmp	DWORD PTR ?SimLibElapsedTime@@3KA, eax	; SimLibElapsedTime
	jbe	$LN28@TWSDisplay

; 1598 : 						{
; 1599 : 							if (
; 1600 : 								rdrData->interrogated && 
; 1601 : 								TeamInfo[platform->GetTeam()]->TStance(rdrObj->BaseData()->GetTeam()) == Allied &&
; 1602 : 								iff
; 1603 : 							){

	mov	ecx, DWORD PTR _rdrData$[ebp]
	cmp	DWORD PTR [ecx+156], 0
	je	SHORT $LN27@TWSDisplay
	mov	ecx, DWORD PTR _rdrObj$[ebp]
	call	?BaseData@SimObjectType@@QAEPAVFalconEntity@@XZ ; SimObjectType::BaseData
	mov	DWORD PTR tv882[ebp], eax
	mov	edx, DWORD PTR tv882[ebp]
	mov	eax, DWORD PTR [edx]
	mov	ecx, DWORD PTR tv882[ebp]
	mov	edx, DWORD PTR [eax+116]
	call	edx
	movzx	eax, al
	push	eax
	mov	ecx, DWORD PTR _this$[ebp]
	mov	edx, DWORD PTR [ecx+32]
	mov	eax, DWORD PTR _this$[ebp]
	mov	edx, DWORD PTR [edx]
	mov	ecx, DWORD PTR [eax+32]
	mov	eax, DWORD PTR [edx+116]
	call	eax
	movzx	ecx, al
	mov	ecx, DWORD PTR ?TeamInfo@@3PAPAVTeamClass@@A[ecx*4]
	call	?TStance@TeamClass@@QAEHE@Z		; TeamClass::TStance
	cmp	eax, 1
	jne	SHORT $LN27@TWSDisplay
	cmp	DWORD PTR _iff$[ebp], 0
	je	SHORT $LN27@TWSDisplay

; 1604 : 								DrawSymbol(InterogateFriend, vt/SCH_FACT, 0, 1);

	push	1
	push	0
	movss	xmm0, DWORD PTR _vt$[ebp]
	divss	xmm0, DWORD PTR __real@44c80000
	push	ecx
	movss	DWORD PTR [esp], xmm0
	push	19					; 00000013H
	mov	ecx, DWORD PTR _this$[ebp]
	call	?DrawSymbol@RadarDopplerClass@@IAEXHMHH@Z ; RadarDopplerClass::DrawSymbol

; 1605 : 							}
; 1606 : 							//Cobra added this
; 1607 : 							else if (

	jmp	$LN24@TWSDisplay
$LN27@TWSDisplay:

; 1608 : 								rdrData->rdrSy[0] == Det && 
; 1609 : 								rdrObj->BaseData()->IsSPJamming()
; 1610 : 							){								

	mov	edx, 4
	imul	edx, 0
	mov	eax, DWORD PTR _rdrData$[ebp]
	cmp	DWORD PTR [eax+edx+72], 1
	jne	SHORT $LN25@TWSDisplay
	mov	ecx, DWORD PTR _rdrObj$[ebp]
	call	?BaseData@SimObjectType@@QAEPAVFalconEntity@@XZ ; SimObjectType::BaseData
	mov	DWORD PTR tv902[ebp], eax
	mov	ecx, DWORD PTR tv902[ebp]
	mov	edx, DWORD PTR [ecx]
	mov	ecx, DWORD PTR tv902[ebp]
	mov	eax, DWORD PTR [edx+268]
	call	eax
	test	eax, eax
	je	SHORT $LN25@TWSDisplay

; 1611 : 								DrawSymbol( Jam, 0.0f, 0);

	push	0
	push	0
	push	ecx
	movss	xmm0, DWORD PTR __real@00000000
	movss	DWORD PTR [esp], xmm0
	push	14					; 0000000eH
	mov	ecx, DWORD PTR _this$[ebp]
	call	?DrawSymbol@RadarDopplerClass@@IAEXHMHH@Z ; RadarDopplerClass::DrawSymbol

; 1612 : 							}//end
; 1613 : 							else

	jmp	SHORT $LN24@TWSDisplay
$LN25@TWSDisplay:

; 1614 : 							{
; 1615 : 								// sfr: speed here, triplicated below... =(
; 1616 : 								DrawSymbol(rdrData->rdrSy[0], vt/SCH_FACT, 0, 1);  

	push	1
	push	0
	movss	xmm0, DWORD PTR _vt$[ebp]
	divss	xmm0, DWORD PTR __real@44c80000
	push	ecx
	movss	DWORD PTR [esp], xmm0
	mov	ecx, 4
	imul	ecx, 0
	mov	edx, DWORD PTR _rdrData$[ebp]
	mov	eax, DWORD PTR [edx+ecx+72]
	push	eax
	mov	ecx, DWORD PTR _this$[ebp]
	call	?DrawSymbol@RadarDopplerClass@@IAEXHMHH@Z ; RadarDopplerClass::DrawSymbol
$LN24@TWSDisplay:

; 1617 : 							}
; 1618 : 						}
; 1619 : 						else

	jmp	$LN19@TWSDisplay
$LN28@TWSDisplay:

; 1620 : 						{
; 1621 : 							if ( 
; 1622 : 								rdrData->interrogated && 
; 1623 : 								TeamInfo[platform->GetTeam()]->TStance(rdrObj->BaseData()->GetTeam()) == Allied && 
; 1624 : 								iff)

	mov	ecx, DWORD PTR _rdrData$[ebp]
	cmp	DWORD PTR [ecx+156], 0
	je	SHORT $LN22@TWSDisplay
	mov	ecx, DWORD PTR _rdrObj$[ebp]
	call	?BaseData@SimObjectType@@QAEPAVFalconEntity@@XZ ; SimObjectType::BaseData
	mov	DWORD PTR tv949[ebp], eax
	mov	edx, DWORD PTR tv949[ebp]
	mov	eax, DWORD PTR [edx]
	mov	ecx, DWORD PTR tv949[ebp]
	mov	edx, DWORD PTR [eax+116]
	call	edx
	movzx	eax, al
	push	eax
	mov	ecx, DWORD PTR _this$[ebp]
	mov	edx, DWORD PTR [ecx+32]
	mov	eax, DWORD PTR _this$[ebp]
	mov	edx, DWORD PTR [edx]
	mov	ecx, DWORD PTR [eax+32]
	mov	eax, DWORD PTR [edx+116]
	call	eax
	movzx	ecx, al
	mov	ecx, DWORD PTR ?TeamInfo@@3PAPAVTeamClass@@A[ecx*4]
	call	?TStance@TeamClass@@QAEHE@Z		; TeamClass::TStance
	cmp	eax, 1
	jne	SHORT $LN22@TWSDisplay
	cmp	DWORD PTR _iff$[ebp], 0
	je	SHORT $LN22@TWSDisplay

; 1625 : 							{
; 1626 : 								DrawSymbol(InterogateFriend, vt/SCH_FACT, 0);

	push	0
	push	0
	movss	xmm0, DWORD PTR _vt$[ebp]
	divss	xmm0, DWORD PTR __real@44c80000
	push	ecx
	movss	DWORD PTR [esp], xmm0
	push	19					; 00000013H
	mov	ecx, DWORD PTR _this$[ebp]
	call	?DrawSymbol@RadarDopplerClass@@IAEXHMHH@Z ; RadarDopplerClass::DrawSymbol
	jmp	$LN19@TWSDisplay
$LN22@TWSDisplay:

; 1627 : 							}
; 1628 : 							else if (rdrData->rdrSy[0] == Det && rdrObj->BaseData()->IsSPJamming())//Cobra added this

	mov	edx, 4
	imul	edx, 0
	mov	eax, DWORD PTR _rdrData$[ebp]
	cmp	DWORD PTR [eax+edx+72], 1
	jne	SHORT $LN20@TWSDisplay
	mov	ecx, DWORD PTR _rdrObj$[ebp]
	call	?BaseData@SimObjectType@@QAEPAVFalconEntity@@XZ ; SimObjectType::BaseData
	mov	DWORD PTR tv969[ebp], eax
	mov	ecx, DWORD PTR tv969[ebp]
	mov	edx, DWORD PTR [ecx]
	mov	ecx, DWORD PTR tv969[ebp]
	mov	eax, DWORD PTR [edx+268]
	call	eax
	test	eax, eax
	je	SHORT $LN20@TWSDisplay

; 1629 : 							{
; 1630 : 								DrawSymbol( Jam, 0.0f, 0);

	push	0
	push	0
	push	ecx
	movss	xmm0, DWORD PTR __real@00000000
	movss	DWORD PTR [esp], xmm0
	push	14					; 0000000eH
	mov	ecx, DWORD PTR _this$[ebp]
	call	?DrawSymbol@RadarDopplerClass@@IAEXHMHH@Z ; RadarDopplerClass::DrawSymbol

; 1631 : 							}//end
; 1632 : 							else

	jmp	SHORT $LN19@TWSDisplay
$LN20@TWSDisplay:

; 1633 : 							{
; 1634 : 								DrawSymbol(rdrData->rdrSy[0], vt/SCH_FACT, 0);

	push	0
	push	0
	movss	xmm0, DWORD PTR _vt$[ebp]
	divss	xmm0, DWORD PTR __real@44c80000
	push	ecx
	movss	DWORD PTR [esp], xmm0
	mov	ecx, 4
	imul	ecx, 0
	mov	edx, DWORD PTR _rdrData$[ebp]
	mov	eax, DWORD PTR [edx+ecx+72]
	push	eax
	mov	ecx, DWORD PTR _this$[ebp]
	call	?DrawSymbol@RadarDopplerClass@@IAEXHMHH@Z ; RadarDopplerClass::DrawSymbol
$LN19@TWSDisplay:

; 1635 : 							}
; 1636 : 
; 1637 : 						}
; 1638 : 					}
; 1639 : 					else

	jmp	$LN15@TWSDisplay
$LN29@TWSDisplay:

; 1640 : 						/*{
; 1641 : 						// search targets are drawn with history
; 1642 : 						for (int i=histno-1; i>=0; i--)
; 1643 : 						{
; 1644 : 						DrawSymbol(rdrData->rdrSy[i], vt/SCH_FACT, 0);
; 1645 : 						}
; 1646 : 						}*/
; 1647 : 						//Cobra 11/20/04 IFF
; 1648 : 					{
; 1649 : 						for (int i=histno-1; i>=0; i--)

	mov	ecx, DWORD PTR _this$[ebp]
	mov	edx, DWORD PTR [ecx+552]
	sub	edx, 1
	mov	DWORD PTR _i$4[ebp], edx
	jmp	SHORT $LN17@TWSDisplay
$LN16@TWSDisplay:
	mov	eax, DWORD PTR _i$4[ebp]
	sub	eax, 1
	mov	DWORD PTR _i$4[ebp], eax
$LN17@TWSDisplay:
	cmp	DWORD PTR _i$4[ebp], 0
	jl	$LN15@TWSDisplay

; 1650 : 						{
; 1651 : 
; 1652 : 							//This works, but we need more
; 1653 : 							/*if (g_bRealisticAvionics)
; 1654 : 							  {
; 1655 : 							  if (rdrData->rdrSy[i] >= Det && self->interrogating)
; 1656 : 							  {
; 1657 : 							  rdrData->interrogated = TRUE;
; 1658 : 							  }
; 1659 : 							  }*/
; 1660 : 
; 1661 : 							if ( rdrData->rdrSy[i] >= Det && rdrData->interrogated && TeamInfo[platform->GetTeam()]->TStance(rdrObj->BaseData()->GetTeam()) == Allied  && iff)

	mov	ecx, DWORD PTR _i$4[ebp]
	mov	edx, DWORD PTR _rdrData$[ebp]
	cmp	DWORD PTR [edx+ecx*4+72], 1
	jl	SHORT $LN14@TWSDisplay
	mov	eax, DWORD PTR _rdrData$[ebp]
	cmp	DWORD PTR [eax+156], 0
	je	SHORT $LN14@TWSDisplay
	mov	ecx, DWORD PTR _rdrObj$[ebp]
	call	?BaseData@SimObjectType@@QAEPAVFalconEntity@@XZ ; SimObjectType::BaseData
	mov	DWORD PTR tv1024[ebp], eax
	mov	ecx, DWORD PTR tv1024[ebp]
	mov	edx, DWORD PTR [ecx]
	mov	ecx, DWORD PTR tv1024[ebp]
	mov	eax, DWORD PTR [edx+116]
	call	eax
	movzx	ecx, al
	push	ecx
	mov	edx, DWORD PTR _this$[ebp]
	mov	eax, DWORD PTR [edx+32]
	mov	ecx, DWORD PTR _this$[ebp]
	mov	edx, DWORD PTR [eax]
	mov	ecx, DWORD PTR [ecx+32]
	mov	eax, DWORD PTR [edx+116]
	call	eax
	movzx	ecx, al
	mov	ecx, DWORD PTR ?TeamInfo@@3PAPAVTeamClass@@A[ecx*4]
	call	?TStance@TeamClass@@QAEHE@Z		; TeamClass::TStance
	cmp	eax, 1
	jne	SHORT $LN14@TWSDisplay
	cmp	DWORD PTR _iff$[ebp], 0
	je	SHORT $LN14@TWSDisplay

; 1662 : 							{
; 1663 : 								DrawSymbol(InterogateFriend, vt/SCH_FACT, 0);

	push	0
	push	0
	movss	xmm0, DWORD PTR _vt$[ebp]
	divss	xmm0, DWORD PTR __real@44c80000
	push	ecx
	movss	DWORD PTR [esp], xmm0
	push	19					; 00000013H
	mov	ecx, DWORD PTR _this$[ebp]
	call	?DrawSymbol@RadarDopplerClass@@IAEXHMHH@Z ; RadarDopplerClass::DrawSymbol
	jmp	$LN9@TWSDisplay
$LN14@TWSDisplay:

; 1664 : 							}
; 1665 : 							else if (rdrData->rdrSy[i] == Det && rdrObj->BaseData()->IsSPJamming())//Cobra added this

	mov	edx, DWORD PTR _i$4[ebp]
	mov	eax, DWORD PTR _rdrData$[ebp]
	cmp	DWORD PTR [eax+edx*4+72], 1
	jne	SHORT $LN12@TWSDisplay
	mov	ecx, DWORD PTR _rdrObj$[ebp]
	call	?BaseData@SimObjectType@@QAEPAVFalconEntity@@XZ ; SimObjectType::BaseData
	mov	DWORD PTR tv1044[ebp], eax
	mov	ecx, DWORD PTR tv1044[ebp]
	mov	edx, DWORD PTR [ecx]
	mov	ecx, DWORD PTR tv1044[ebp]
	mov	eax, DWORD PTR [edx+268]
	call	eax
	test	eax, eax
	je	SHORT $LN12@TWSDisplay

; 1666 : 							{
; 1667 : 								DrawSymbol( Jam, 0.0f, 0);

	push	0
	push	0
	push	ecx
	movss	xmm0, DWORD PTR __real@00000000
	movss	DWORD PTR [esp], xmm0
	push	14					; 0000000eH
	mov	ecx, DWORD PTR _this$[ebp]
	call	?DrawSymbol@RadarDopplerClass@@IAEXHMHH@Z ; RadarDopplerClass::DrawSymbol
	jmp	$LN9@TWSDisplay
$LN12@TWSDisplay:

; 1668 : 							}//end
; 1669 : 							else if (rdrData->rdrSy[i] == Solid && rdrObj->BaseData()->IsSPJamming())

	mov	ecx, DWORD PTR _i$4[ebp]
	mov	edx, DWORD PTR _rdrData$[ebp]
	cmp	DWORD PTR [edx+ecx*4+72], 2
	jne	SHORT $LN10@TWSDisplay
	mov	ecx, DWORD PTR _rdrObj$[ebp]
	call	?BaseData@SimObjectType@@QAEPAVFalconEntity@@XZ ; SimObjectType::BaseData
	mov	DWORD PTR tv1061[ebp], eax
	mov	eax, DWORD PTR tv1061[ebp]
	mov	edx, DWORD PTR [eax]
	mov	ecx, DWORD PTR tv1061[ebp]
	mov	eax, DWORD PTR [edx+268]
	call	eax
	test	eax, eax
	je	SHORT $LN10@TWSDisplay

; 1670 : 							{
; 1671 : 								DrawSymbol( Jam, 0.0f, 0);//Cobra fixed for jamming aircraft

	push	0
	push	0
	push	ecx
	movss	xmm0, DWORD PTR __real@00000000
	movss	DWORD PTR [esp], xmm0
	push	14					; 0000000eH
	mov	ecx, DWORD PTR _this$[ebp]
	call	?DrawSymbol@RadarDopplerClass@@IAEXHMHH@Z ; RadarDopplerClass::DrawSymbol

; 1672 : 								DrawSymbol(rdrData->rdrSy[i], vt/SCH_FACT, 0);

	push	0
	push	0
	movss	xmm0, DWORD PTR _vt$[ebp]
	divss	xmm0, DWORD PTR __real@44c80000
	push	ecx
	movss	DWORD PTR [esp], xmm0
	mov	ecx, DWORD PTR _i$4[ebp]
	mov	edx, DWORD PTR _rdrData$[ebp]
	mov	eax, DWORD PTR [edx+ecx*4+72]
	push	eax
	mov	ecx, DWORD PTR _this$[ebp]
	call	?DrawSymbol@RadarDopplerClass@@IAEXHMHH@Z ; RadarDopplerClass::DrawSymbol

; 1673 : 							}
; 1674 : 							else

	jmp	SHORT $LN9@TWSDisplay
$LN10@TWSDisplay:

; 1675 : 							{
; 1676 : 								DrawSymbol(rdrData->rdrSy[i], vt/SCH_FACT, 0);

	push	0
	push	0
	movss	xmm0, DWORD PTR _vt$[ebp]
	divss	xmm0, DWORD PTR __real@44c80000
	push	ecx
	movss	DWORD PTR [esp], xmm0
	mov	ecx, DWORD PTR _i$4[ebp]
	mov	edx, DWORD PTR _rdrData$[ebp]
	mov	eax, DWORD PTR [edx+ecx*4+72]
	push	eax
	mov	ecx, DWORD PTR _this$[ebp]
	call	?DrawSymbol@RadarDopplerClass@@IAEXHMHH@Z ; RadarDopplerClass::DrawSymbol
$LN9@TWSDisplay:

; 1677 : 							}
; 1678 : 						}

	jmp	$LN16@TWSDisplay
$LN15@TWSDisplay:

; 1679 : 					}
; 1680 : 				}
; 1681 : 
; 1682 : 				display->ZeroRotationAboutOrigin();

	mov	ecx, DWORD PTR _this$[ebp]
	mov	ecx, DWORD PTR [ecx+20]
	call	?ZeroRotationAboutOrigin@VirtualDisplay@@QAEXXZ ; VirtualDisplay::ZeroRotationAboutOrigin

; 1683 : 
; 1684 : 				if (rdrData->rdrSy[0] >= Track)

	mov	edx, 4
	imul	edx, 0
	mov	eax, DWORD PTR _rdrData$[ebp]
	cmp	DWORD PTR [eax+edx+72], 3
	jl	$LN3@TWSDisplay

; 1685 : 				{
; 1686 : 					if (rdrData->rdrSy[0] >= Bug)

	mov	ecx, 4
	imul	ecx, 0
	mov	edx, DWORD PTR _rdrData$[ebp]
	cmp	DWORD PTR [edx+ecx+72], 7
	jl	SHORT $LN7@TWSDisplay

; 1687 : 					{
; 1688 : 						DrawCollisionSteering(rdrObj, xPos);

	push	ecx
	movss	xmm0, DWORD PTR _xPos$[ebp]
	movss	DWORD PTR [esp], xmm0
	mov	eax, DWORD PTR _rdrObj$[ebp]
	push	eax
	mov	ecx, DWORD PTR _this$[ebp]
	call	?DrawCollisionSteering@RadarDopplerClass@@IAEXPAVSimObjectType@@M@Z ; RadarDopplerClass::DrawCollisionSteering
$LN7@TWSDisplay:

; 1689 : 					}
; 1690 : 					alt  = -rdrObj->BaseData()->ZPos();

	mov	ecx, DWORD PTR _rdrObj$[ebp]
	call	?BaseData@SimObjectType@@QAEPAVFalconEntity@@XZ ; SimObjectType::BaseData
	mov	ecx, eax
	call	?ZPos@VuEntity@@QBEMXZ			; VuEntity::ZPos
	fstp	DWORD PTR tv1883[ebp]
	movss	xmm0, DWORD PTR tv1883[ebp]
	xorps	xmm0, DWORD PTR __xmm@80000000800000008000000080000000
	movss	DWORD PTR _alt$[ebp], xmm0

; 1691 : 					if (rdrObj == lockedTarget &&
; 1692 : 									pFCC->LastMissileWillMiss(lockedTargetData->range) &&
; 1693 : 									(vuxRealTime & 0x180))

	mov	ecx, DWORD PTR _this$[ebp]
	mov	edx, DWORD PTR _rdrObj$[ebp]
	cmp	edx, DWORD PTR [ecx+48]
	jne	SHORT $LN6@TWSDisplay
	mov	eax, DWORD PTR _this$[ebp]
	mov	ecx, DWORD PTR [eax+176]
	push	ecx
	movss	xmm0, DWORD PTR [ecx+44]
	movss	DWORD PTR [esp], xmm0
	mov	ecx, DWORD PTR _pFCC$[ebp]
	call	?LastMissileWillMiss@FireControlComputer@@QAEHM@Z ; FireControlComputer::LastMissileWillMiss
	test	eax, eax
	je	SHORT $LN6@TWSDisplay
	mov	edx, DWORD PTR ?vuxRealTime@@3KA	; vuxRealTime
	and	edx, 384				; 00000180H
	je	SHORT $LN6@TWSDisplay

; 1694 : 						sprintf (str, "LOSE");

	push	OFFSET ??_C@_04IEFNNOGI@LOSE?$AA@
	lea	eax, DWORD PTR _str$[ebp]
	push	eax
	call	_sprintf
	add	esp, 8

; 1695 : 					else 

	jmp	SHORT $LN5@TWSDisplay
$LN6@TWSDisplay:

; 1696 : 						sprintf(str,"%02d",(int)((alt + 500.0F)*0.001));

	movss	xmm0, DWORD PTR _alt$[ebp]
	addss	xmm0, DWORD PTR __real@43fa0000
	cvtss2sd xmm0, xmm0
	mulsd	xmm0, QWORD PTR __real@3f50624dd2f1a9fc
	cvttsd2si ecx, xmm0
	push	ecx
	push	OFFSET ??_C@_04OGKJMPGK@?$CF02d?$AA@
	lea	edx, DWORD PTR _str$[ebp]
	push	edx
	call	_sprintf
	add	esp, 12					; 0000000cH
$LN5@TWSDisplay:

; 1697 : 					ShiAssert (strlen(str) < sizeof(str));
; 1698 : 					display->TextCenter(0.0F, -0.05F, str);

	push	0
	lea	eax, DWORD PTR _str$[ebp]
	push	eax
	push	ecx
	movss	xmm0, DWORD PTR __real@bd4ccccd
	movss	DWORD PTR [esp], xmm0
	push	ecx
	movss	xmm0, DWORD PTR __real@00000000
	movss	DWORD PTR [esp], xmm0
	mov	ecx, DWORD PTR _this$[ebp]
	mov	edx, DWORD PTR [ecx+20]
	mov	eax, DWORD PTR _this$[ebp]
	mov	edx, DWORD PTR [edx]
	mov	ecx, DWORD PTR [eax+20]
	mov	eax, DWORD PTR [edx+72]
	call	eax

; 1699 : 
; 1700 : 					// JPO - draw hit ind.
; 1701 : 					if (rdrObj == lockedTarget &&
; 1702 : 									pFCC->MissileImpactTimeFlash > SimLibElapsedTime) { // Draw X

	mov	ecx, DWORD PTR _this$[ebp]
	mov	edx, DWORD PTR _rdrObj$[ebp]
	cmp	edx, DWORD PTR [ecx+48]
	jne	SHORT $LN3@TWSDisplay
	mov	eax, DWORD PTR _pFCC$[ebp]
	mov	ecx, DWORD PTR [eax+396]
	cmp	ecx, DWORD PTR ?SimLibElapsedTime@@3KA	; SimLibElapsedTime
	jbe	SHORT $LN3@TWSDisplay

; 1703 : 						if (pFCC->MissileImpactTimeFlash-SimLibElapsedTime  > 5.0f * CampaignSeconds ||
; 1704 : 										(vuxRealTime & 0x200)) 

	mov	edx, DWORD PTR _pFCC$[ebp]
	mov	eax, DWORD PTR [edx+396]
	sub	eax, DWORD PTR ?SimLibElapsedTime@@3KA	; SimLibElapsedTime
	mov	DWORD PTR tv1909[ebp], eax
	cvtsi2sd xmm0, DWORD PTR tv1909[ebp]
	mov	ecx, DWORD PTR tv1909[ebp]
	shr	ecx, 31					; 0000001fH
	addsd	xmm0, QWORD PTR __xmm@41f00000000000000000000000000000[ecx*8]
	movsd	QWORD PTR tv1912[ebp], xmm0
	cvtsd2ss xmm0, QWORD PTR tv1912[ebp]
	comiss	xmm0, DWORD PTR __real@459c4000
	ja	SHORT $LN2@TWSDisplay
	mov	edx, DWORD PTR ?vuxRealTime@@3KA	; vuxRealTime
	and	edx, 512				; 00000200H
	je	SHORT $LN3@TWSDisplay
$LN2@TWSDisplay:

; 1705 : 						{
; 1706 : 							DrawSymbol(HitInd, 0, 0);

	push	0
	push	0
	push	ecx
	movss	xmm0, DWORD PTR __real@00000000
	movss	DWORD PTR [esp], xmm0
	push	15					; 0000000fH
	mov	ecx, DWORD PTR _this$[ebp]
	call	?DrawSymbol@RadarDopplerClass@@IAEXHMHH@Z ; RadarDopplerClass::DrawSymbol
$LN3@TWSDisplay:

; 1707 : 						}
; 1708 : 					}
; 1709 : 				}
; 1710 : 
; 1711 : 				display->SetColor(GetMfdColor(MFD_UNKNOWN));

	push	3
	mov	ecx, DWORD PTR _this$[ebp]
	call	?GetMfdColor@DrawableClass@@QAEIW4MfdColor@@@Z ; DrawableClass::GetMfdColor
	push	eax
	mov	eax, DWORD PTR _this$[ebp]
	mov	ecx, DWORD PTR [eax+20]
	mov	edx, DWORD PTR _this$[ebp]
	mov	eax, DWORD PTR [ecx]
	mov	ecx, DWORD PTR [edx+20]
	mov	edx, DWORD PTR [eax+92]
	call	edx

; 1712 : 				/*------------------------------------*/
; 1713 : 				/* target under cursor, show altitude */
; 1714 : 				/*------------------------------------*/
; 1715 : 				if (rdrObj->BaseData()->Id() == targetUnderCursor)

	mov	eax, DWORD PTR _this$[ebp]
	add	eax, 36					; 00000024H
	push	eax
	lea	ecx, DWORD PTR $T1[ebp]
	push	ecx
	mov	ecx, DWORD PTR _rdrObj$[ebp]
	call	?BaseData@SimObjectType@@QAEPAVFalconEntity@@XZ ; SimObjectType::BaseData
	mov	ecx, eax
	call	?Id@VuEntity@@QBE?AVVU_ID@@XZ		; VuEntity::Id
	mov	ecx, eax
	call	??8VU_ID@@QBE_NABV0@@Z			; VU_ID::operator==
	movzx	edx, al
	test	edx, edx
	je	$LN1@TWSDisplay

; 1716 : 				{
; 1717 : 					alt  = -rdrObj->BaseData()->ZPos();

	mov	ecx, DWORD PTR _rdrObj$[ebp]
	call	?BaseData@SimObjectType@@QAEPAVFalconEntity@@XZ ; SimObjectType::BaseData
	mov	ecx, eax
	call	?ZPos@VuEntity@@QBEMXZ			; VuEntity::ZPos
	fstp	DWORD PTR tv1932[ebp]
	movss	xmm0, DWORD PTR tv1932[ebp]
	xorps	xmm0, DWORD PTR __xmm@80000000800000008000000080000000
	movss	DWORD PTR _alt$[ebp], xmm0

; 1718 : 					sprintf(str,"%02d",(int)((alt + 500.0F)*0.001));

	movss	xmm0, DWORD PTR _alt$[ebp]
	addss	xmm0, DWORD PTR __real@43fa0000
	cvtss2sd xmm0, xmm0
	mulsd	xmm0, QWORD PTR __real@3f50624dd2f1a9fc
	cvttsd2si eax, xmm0
	push	eax
	push	OFFSET ??_C@_04OGKJMPGK@?$CF02d?$AA@
	lea	ecx, DWORD PTR _str$[ebp]
	push	ecx
	call	_sprintf
	add	esp, 12					; 0000000cH

; 1719 : 					ShiAssert (strlen(str) < sizeof(str));
; 1720 : 					display->TextCenter(0.0F, -0.05F, str);

	push	0
	lea	edx, DWORD PTR _str$[ebp]
	push	edx
	push	ecx
	movss	xmm0, DWORD PTR __real@bd4ccccd
	movss	DWORD PTR [esp], xmm0
	push	ecx
	movss	xmm0, DWORD PTR __real@00000000
	movss	DWORD PTR [esp], xmm0
	mov	eax, DWORD PTR _this$[ebp]
	mov	ecx, DWORD PTR [eax+20]
	mov	edx, DWORD PTR _this$[ebp]
	mov	eax, DWORD PTR [ecx]
	mov	ecx, DWORD PTR [edx+20]
	mov	edx, DWORD PTR [eax+72]
	call	edx
$LN1@TWSDisplay:

; 1721 : 				}
; 1722 : 
; 1723 : 				// SCR 9/9/98  If target is jamming, indicate such (radar hit or no)
; 1724 : 				/*if (rdrObj->BaseData()->IsSPJamming())
; 1725 : 				  {
; 1726 : 				  DrawSymbol( Jam, 0.0f, 0);
; 1727 : 				  }*/ //Cobra removed and moved above
; 1728 : 				display->CenterOriginInViewport();

	mov	eax, DWORD PTR _this$[ebp]
	mov	ecx, DWORD PTR [eax+20]
	call	?CenterOriginInViewport@VirtualDisplay@@QAEXXZ ; VirtualDisplay::CenterOriginInViewport

; 1729 : 				display->SetColor(tmpColor);		

	mov	ecx, DWORD PTR _tmpColor$[ebp]
	push	ecx
	mov	edx, DWORD PTR _this$[ebp]
	mov	eax, DWORD PTR [edx+20]
	mov	ecx, DWORD PTR _this$[ebp]
	mov	edx, DWORD PTR [eax]
	mov	ecx, DWORD PTR [ecx+20]
	mov	eax, DWORD PTR [edx+92]
	call	eax
$LN53@TWSDisplay:

; 1730 : 			}
; 1731 : 		}
; 1732 : 		rdrObj = rdrObj->next;

	mov	ecx, DWORD PTR _rdrObj$[ebp]
	mov	edx, DWORD PTR [ecx+16]
	mov	DWORD PTR _rdrObj$[ebp], edx

; 1733 : 	}

	jmp	$LN58@TWSDisplay
$LN56@TWSDisplay:
$LN77@TWSDisplay:

; 1734 : }

	mov	ecx, DWORD PTR __$ArrayPad$[ebp]
	xor	ecx, ebp
	call	@__security_check_cookie@4
	mov	esp, ebp
	pop	ebp
	ret	0
?TWSDisplay@RadarDopplerClass@@IAEXXZ ENDP		; RadarDopplerClass::TWSDisplay
_TEXT	ENDS
; Function compile flags: /Odtp
; File c:\users\zhitao li\documents\visual studio 2012\projects\freefalcon\sim\radar\bscope.cpp
_TEXT	SEGMENT
$T1 = -256						; size = 8
$T2 = -248						; size = 8
tv1355 = -240						; size = 8
tv1344 = -232						; size = 8
tv1510 = -224						; size = 8
tv1326 = -216						; size = 8
tv1296 = -208						; size = 4
tv1444 = -204						; size = 4
tv1289 = -200						; size = 4
tv1467 = -196						; size = 4
tv1557 = -192						; size = 4
tv1244 = -188						; size = 4
tv1237 = -184						; size = 4
tv1283 = -180						; size = 4
_tmpColor$ = -176					; size = 4
tv1276 = -172						; size = 4
tv1528 = -168						; size = 4
tv1258 = -164						; size = 4
tv1489 = -160						; size = 4
tv1264 = -156						; size = 4
tv230 = -152						; size = 4
tv547 = -148						; size = 4
tv1507 = -144						; size = 4
tv213 = -140						; size = 4
tv719 = -136						; size = 4
tv255 = -132						; size = 4
tv701 = -128						; size = 4
tv1322 = -124						; size = 4
tv681 = -120						; size = 4
tv514 = -116						; size = 4
tv638 = -112						; size = 4
tv237 = -108						; size = 4
tv1351 = -104						; size = 4
tv201 = -100						; size = 4
tv1340 = -96						; size = 4
_dx$3 = -92						; size = 4
_iff$ = -88						; size = 4
_dy$4 = -84						; size = 4
_self$ = -80						; size = 4
_yPos$ = -76						; size = 4
_ang$ = -72						; size = 4
_pFCC$ = -68						; size = 4
_xPos$ = -64						; size = 4
_alt$ = -60						; size = 4
_isCpl$ = -53						; size = 1
_vt$ = -52						; size = 4
_tgty$ = -48						; size = 4
_tgtx$ = -44						; size = 4
_brange$ = -40						; size = 4
_isCpl$5 = -33						; size = 1
_rdrData$ = -32						; size = 4
_rdrObj$ = -28						; size = 4
_i$ = -24						; size = 4
_this$ = -20						; size = 4
_str$ = -16						; size = 12
__$ArrayPad$ = -4					; size = 4
?RWSDisplay@RadarDopplerClass@@IAEXXZ PROC		; RadarDopplerClass::RWSDisplay
; _this$ = ecx

; 850  : {

	push	ebp
	mov	ebp, esp
	sub	esp, 256				; 00000100H
	mov	eax, DWORD PTR ___security_cookie
	xor	eax, ebp
	mov	DWORD PTR __$ArrayPad$[ebp], eax
	mov	DWORD PTR _this$[ebp], ecx

; 851  : 	int   i;
; 852  : 	float xPos, yPos, alt;
; 853  : 	char  str[12];
; 854  : 	float ang, vt;
; 855  : 	SimObjectType* rdrObj = platform->targetList;

	mov	eax, DWORD PTR _this$[ebp]
	mov	ecx, DWORD PTR [eax+32]
	mov	edx, DWORD PTR [ecx+660]
	mov	DWORD PTR _rdrObj$[ebp], edx

; 856  : 	SimObjectLocalData* rdrData;
; 857  : 	int tmpColor = display->Color();

	mov	eax, DWORD PTR _this$[ebp]
	mov	ecx, DWORD PTR [eax+20]
	mov	edx, DWORD PTR _this$[ebp]
	mov	eax, DWORD PTR [ecx]
	mov	ecx, DWORD PTR [edx+20]
	mov	edx, DWORD PTR [eax+108]
	call	edx
	mov	DWORD PTR _tmpColor$[ebp], eax

; 858  : 	FireControlComputer* pFCC = ((SimVehicleClass*)platform)->GetFCC();

	mov	eax, DWORD PTR _this$[ebp]
	mov	ecx, DWORD PTR [eax+32]
	mov	edx, DWORD PTR _this$[ebp]
	mov	eax, DWORD PTR [ecx]
	mov	ecx, DWORD PTR [edx+32]
	mov	edx, DWORD PTR [eax+460]
	call	edx
	mov	DWORD PTR _pFCC$[ebp], eax

; 859  : 	AircraftClass* self = SimDriver.GetPlayerAircraft();//Cobra 11/20/04

	mov	ecx, OFFSET ?SimDriver@@3VSimulationDriver@@A ; SimDriver
	call	?GetPlayerAircraft@SimulationDriver@@QBEPAVAircraftClass@@XZ ; SimulationDriver::GetPlayerAircraft
	mov	DWORD PTR _self$[ebp], eax

; 860  : 	int iff = self->GetiffEnabled();//Cobra 11/20/04

	mov	eax, DWORD PTR _self$[ebp]
	mov	edx, DWORD PTR [eax]
	mov	ecx, DWORD PTR _self$[ebp]
	mov	eax, DWORD PTR [edx+476]
	call	eax
	mov	DWORD PTR _iff$[ebp], eax

; 861  : 	bool isCpl = TRUE;

	mov	BYTE PTR _isCpl$[ebp], 1

; 862  : 	if (IsIFFFlags(Dcpl))

	push	1
	mov	ecx, DWORD PTR _this$[ebp]
	call	?IsIFFFlags@RadarDopplerClass@@IAEHH@Z	; RadarDopplerClass::IsIFFFlags
	test	eax, eax
	je	SHORT $LN71@RWSDisplay

; 863  : 		isCpl = FALSE;

	mov	BYTE PTR _isCpl$[ebp], 0
$LN71@RWSDisplay:

; 864  : 
; 865  : 	//MI
; 866  : 	Pointer = 0;

	mov	ecx, DWORD PTR _this$[ebp]
	mov	DWORD PTR [ecx+596], 0

; 867  : 
; 868  : 	//MI added EXP FOV
; 869  : 	if (fovStepCmd)

	mov	edx, DWORD PTR _this$[ebp]
	cmp	DWORD PTR [edx+160], 0
	je	SHORT $LN70@RWSDisplay

; 870  : 	{
; 871  : 		fovStepCmd = 0;

	mov	eax, DWORD PTR _this$[ebp]
	mov	DWORD PTR [eax+160], 0

; 872  : 		ToggleFlag(EXP);

	push	2
	mov	ecx, DWORD PTR _this$[ebp]
	call	?ToggleFlag@RadarDopplerClass@@QAEXH@Z	; RadarDopplerClass::ToggleFlag
$LN70@RWSDisplay:

; 873  : 	}
; 874  : 	//MI to disable it
; 875  : 	//if(IsSet(EXP)&& !g_bMLU)
; 876  : 	//	ToggleFlag(EXP);
; 877  : 
; 878  : 	display->SetColor(GetMfdColor(MFD_LABELS));

	push	0
	mov	ecx, DWORD PTR _this$[ebp]
	call	?GetMfdColor@DrawableClass@@QAEIW4MfdColor@@@Z ; DrawableClass::GetMfdColor
	push	eax
	mov	ecx, DWORD PTR _this$[ebp]
	mov	edx, DWORD PTR [ecx+20]
	mov	eax, DWORD PTR _this$[ebp]
	mov	edx, DWORD PTR [edx]
	mov	ecx, DWORD PTR [eax+20]
	mov	eax, DWORD PTR [edx+92]
	call	eax

; 879  : 	// OSS Button Labels
; 880  : 	if (IsAADclt(MajorMode) == FALSE) 

	push	1
	mov	ecx, DWORD PTR _this$[ebp]
	call	?IsAADclt@RadarDopplerClass@@IAEHH@Z	; RadarDopplerClass::IsAADclt
	test	eax, eax
	jne	SHORT $LN69@RWSDisplay

; 881  : 		LabelButton (0, "CRM");

	push	0
	push	0
	push	OFFSET ??_C@_03HNPFBMKG@CRM?$AA@
	push	0
	mov	ecx, DWORD PTR _this$[ebp]
	call	?LabelButton@DrawableClass@@QAEXHPAD0H@Z ; DrawableClass::LabelButton
$LN69@RWSDisplay:

; 882  : 	if (IsAADclt(SubMode) == FALSE)

	push	2
	mov	ecx, DWORD PTR _this$[ebp]
	call	?IsAADclt@RadarDopplerClass@@IAEHH@Z	; RadarDopplerClass::IsAADclt
	test	eax, eax
	jne	SHORT $LN66@RWSDisplay

; 883  : 	{
; 884  : 		//MI
; 885  : 		if(lockedTarget)

	mov	ecx, DWORD PTR _this$[ebp]
	cmp	DWORD PTR [ecx+48], 0
	je	SHORT $LN67@RWSDisplay

; 886  : 			LabelButton (1, prevMode == LRS ? "LRS" : "RWS");

	mov	edx, DWORD PTR _this$[ebp]
	cmp	DWORD PTR [edx+88], 3
	jne	SHORT $LN74@RWSDisplay
	mov	DWORD PTR tv201[ebp], OFFSET ??_C@_03PBNHDDCP@LRS?$AA@
	jmp	SHORT $LN75@RWSDisplay
$LN74@RWSDisplay:
	mov	DWORD PTR tv201[ebp], OFFSET ??_C@_03EHNKNBGI@RWS?$AA@
$LN75@RWSDisplay:
	push	0
	push	0
	mov	eax, DWORD PTR tv201[ebp]
	push	eax
	push	1
	mov	ecx, DWORD PTR _this$[ebp]
	call	?LabelButton@DrawableClass@@QAEXHPAD0H@Z ; DrawableClass::LabelButton

; 887  : 		else

	jmp	SHORT $LN66@RWSDisplay
$LN67@RWSDisplay:

; 888  : 			LabelButton (1, mode == LRS ? "LRS" : "RWS");

	mov	ecx, DWORD PTR _this$[ebp]
	cmp	DWORD PTR [ecx+184], 3
	jne	SHORT $LN76@RWSDisplay
	mov	DWORD PTR tv213[ebp], OFFSET ??_C@_03PBNHDDCP@LRS?$AA@
	jmp	SHORT $LN77@RWSDisplay
$LN76@RWSDisplay:
	mov	DWORD PTR tv213[ebp], OFFSET ??_C@_03EHNKNBGI@RWS?$AA@
$LN77@RWSDisplay:
	push	0
	push	0
	mov	edx, DWORD PTR tv213[ebp]
	push	edx
	push	1
	mov	ecx, DWORD PTR _this$[ebp]
	call	?LabelButton@DrawableClass@@QAEXHPAD0H@Z ; DrawableClass::LabelButton
$LN66@RWSDisplay:

; 889  : 	}
; 890  : 	//MI added EXP mode to RWS
; 891  : 	if (IsAADclt(Fov) == FALSE)

	push	4
	mov	ecx, DWORD PTR _this$[ebp]
	call	?IsAADclt@RadarDopplerClass@@IAEHH@Z	; RadarDopplerClass::IsAADclt
	test	eax, eax
	jne	SHORT $LN65@RWSDisplay

; 892  : 		LabelButton (2, IsSet(EXP) ? "EXP" : "NORM", NULL, IsSet(EXP) ? (vuxRealTime & 0x080) : 0);

	push	2
	mov	ecx, DWORD PTR _this$[ebp]
	call	?IsSet@RadarDopplerClass@@QAEHH@Z	; RadarDopplerClass::IsSet
	test	eax, eax
	je	SHORT $LN78@RWSDisplay
	mov	eax, DWORD PTR ?vuxRealTime@@3KA	; vuxRealTime
	and	eax, 128				; 00000080H
	mov	DWORD PTR tv230[ebp], eax
	jmp	SHORT $LN79@RWSDisplay
$LN78@RWSDisplay:
	mov	DWORD PTR tv230[ebp], 0
$LN79@RWSDisplay:
	push	2
	mov	ecx, DWORD PTR _this$[ebp]
	call	?IsSet@RadarDopplerClass@@QAEHH@Z	; RadarDopplerClass::IsSet
	test	eax, eax
	je	SHORT $LN80@RWSDisplay
	mov	DWORD PTR tv237[ebp], OFFSET ??_C@_03KKGFKKLA@EXP?$AA@
	jmp	SHORT $LN81@RWSDisplay
$LN80@RWSDisplay:
	mov	DWORD PTR tv237[ebp], OFFSET ??_C@_04DHIGGNDH@NORM?$AA@
$LN81@RWSDisplay:
	mov	ecx, DWORD PTR tv230[ebp]
	push	ecx
	push	0
	mov	edx, DWORD PTR tv237[ebp]
	push	edx
	push	2
	mov	ecx, DWORD PTR _this$[ebp]
	call	?LabelButton@DrawableClass@@QAEXHPAD0H@Z ; DrawableClass::LabelButton
$LN65@RWSDisplay:

; 893  : 	if (IsAADclt(Ovrd) == FALSE) LabelButton (3, "OVRD", NULL, isEmitting == 0);

	push	8
	mov	ecx, DWORD PTR _this$[ebp]
	call	?IsAADclt@RadarDopplerClass@@IAEHH@Z	; RadarDopplerClass::IsAADclt
	test	eax, eax
	jne	SHORT $LN64@RWSDisplay
	mov	eax, DWORD PTR _this$[ebp]
	cmp	DWORD PTR [eax+76], 0
	jne	SHORT $LN82@RWSDisplay
	mov	DWORD PTR tv255[ebp], 1
	jmp	SHORT $LN83@RWSDisplay
$LN82@RWSDisplay:
	mov	DWORD PTR tv255[ebp], 0
$LN83@RWSDisplay:
	mov	ecx, DWORD PTR tv255[ebp]
	push	ecx
	push	0
	push	OFFSET ??_C@_04PGDFOHNL@OVRD?$AA@
	push	3
	mov	ecx, DWORD PTR _this$[ebp]
	call	?LabelButton@DrawableClass@@QAEXHPAD0H@Z ; DrawableClass::LabelButton
$LN64@RWSDisplay:

; 894  : 	if (IsAADclt(Cntl) == FALSE) LabelButton (4, "CTNL", NULL, IsSet(CtlMode));

	push	16					; 00000010H
	mov	ecx, DWORD PTR _this$[ebp]
	call	?IsAADclt@RadarDopplerClass@@IAEHH@Z	; RadarDopplerClass::IsAADclt
	test	eax, eax
	jne	SHORT $LN63@RWSDisplay
	push	2097152					; 00200000H
	mov	ecx, DWORD PTR _this$[ebp]
	call	?IsSet@RadarDopplerClass@@QAEHH@Z	; RadarDopplerClass::IsSet
	push	eax
	push	0
	push	OFFSET ??_C@_04EECJBCEN@CTNL?$AA@
	push	4
	mov	ecx, DWORD PTR _this$[ebp]
	call	?LabelButton@DrawableClass@@QAEXHPAD0H@Z ; DrawableClass::LabelButton
$LN63@RWSDisplay:

; 895  : 	if (IsSet(MenuMode|CtlMode)) {

	push	3145728					; 00300000H
	mov	ecx, DWORD PTR _this$[ebp]
	call	?IsSet@RadarDopplerClass@@QAEHH@Z	; RadarDopplerClass::IsSet
	test	eax, eax
	je	SHORT $LN62@RWSDisplay

; 896  : 		MENUDisplay ();

	mov	ecx, DWORD PTR _this$[ebp]
	call	?MENUDisplay@RadarDopplerClass@@IAEXXZ	; RadarDopplerClass::MENUDisplay

; 897  : 	}
; 898  : 	else {

	jmp	SHORT $LN61@RWSDisplay
$LN62@RWSDisplay:

; 899  : 		AABottomRow ();

	mov	ecx, DWORD PTR _this$[ebp]
	call	?AABottomRow@RadarDopplerClass@@IAEXXZ	; RadarDopplerClass::AABottomRow
$LN61@RWSDisplay:

; 900  : 	}
; 901  : 	//Cobra 11/20/04
; 902  : 	if (iff && (self->iffModeChallenge != 99))

	cmp	DWORD PTR _iff$[ebp], 0
	je	SHORT $LN60@RWSDisplay
	mov	edx, DWORD PTR _self$[ebp]
	cmp	DWORD PTR [edx+908], 99			; 00000063H
	je	SHORT $LN60@RWSDisplay

; 903  : 		LabelButton (16,"SCAN");

	push	0
	push	0
	push	OFFSET ??_C@_04NAGNMPFG@SCAN?$AA@
	push	16					; 00000010H
	mov	ecx, DWORD PTR _this$[ebp]
	call	?LabelButton@DrawableClass@@QAEXHPAD0H@Z ; DrawableClass::LabelButton
$LN60@RWSDisplay:

; 904  : 
; 905  : 	// Set the viewport
; 906  : 	display->SetViewportRelative (DisplayAreaViewLeft, DisplayAreaViewTop, DisplayAreaViewRight, DisplayAreaViewBottom);

	push	ecx
	movss	xmm0, DWORD PTR _DisplayAreaViewBottom
	movss	DWORD PTR [esp], xmm0
	push	ecx
	movss	xmm0, DWORD PTR _DisplayAreaViewRight
	movss	DWORD PTR [esp], xmm0
	push	ecx
	movss	xmm0, DWORD PTR _DisplayAreaViewTop
	movss	DWORD PTR [esp], xmm0
	push	ecx
	movss	xmm0, DWORD PTR _DisplayAreaViewLeft
	movss	DWORD PTR [esp], xmm0
	mov	eax, DWORD PTR _this$[ebp]
	mov	ecx, DWORD PTR [eax+20]
	mov	edx, DWORD PTR _this$[ebp]
	mov	eax, DWORD PTR [ecx]
	mov	ecx, DWORD PTR [edx+20]
	mov	edx, DWORD PTR [eax+116]
	call	edx

; 907  : 
; 908  : 	//MI
; 909  : 	float tgtx, tgty;
; 910  : 	float brange;
; 911  : 	if (IsSet(EXP)) 

	push	2
	mov	ecx, DWORD PTR _this$[ebp]
	call	?IsSet@RadarDopplerClass@@QAEHH@Z	; RadarDopplerClass::IsSet
	test	eax, eax
	je	$LN59@RWSDisplay

; 912  : 	{
; 913  : 		if (lockedTargetData) 

	mov	eax, DWORD PTR _this$[ebp]
	cmp	DWORD PTR [eax+176], 0
	je	SHORT $LN58@RWSDisplay

; 914  : 		{
; 915  : 			// work out where on the display the target is
; 916  : 			TargetToXY(lockedTargetData, 0, tdisplayRange, &tgtx, &tgty);

	lea	ecx, DWORD PTR _tgty$[ebp]
	push	ecx
	lea	edx, DWORD PTR _tgtx$[ebp]
	push	edx
	mov	eax, DWORD PTR _this$[ebp]
	push	ecx
	movss	xmm0, DWORD PTR [eax+264]
	movss	DWORD PTR [esp], xmm0
	push	0
	mov	ecx, DWORD PTR _this$[ebp]
	mov	edx, DWORD PTR [ecx+176]
	push	edx
	mov	ecx, DWORD PTR _this$[ebp]
	call	?TargetToXY@RadarDopplerClass@@QAEXPAVSimObjectLocalData@@HMPAM1@Z ; RadarDopplerClass::TargetToXY

; 917  : 		}
; 918  : 		else 

	jmp	SHORT $LN57@RWSDisplay
$LN58@RWSDisplay:

; 919  : 		{
; 920  : 			tgtx = cursorX;

	mov	eax, DWORD PTR _this$[ebp]
	movss	xmm0, DWORD PTR [eax+220]
	movss	DWORD PTR _tgtx$[ebp], xmm0

; 921  : 			tgty = cursorY;

	mov	ecx, DWORD PTR _this$[ebp]
	movss	xmm0, DWORD PTR [ecx+224]
	movss	DWORD PTR _tgty$[ebp], xmm0
$LN57@RWSDisplay:

; 922  : 		}
; 923  : 		// draw the box
; 924  : 		brange = 2.0f * 2 * NM_TO_FT / tdisplayRange;

	mov	edx, DWORD PTR _this$[ebp]
	movss	xmm0, DWORD PTR __real@46bde1b0
	divss	xmm0, DWORD PTR [edx+264]
	movss	DWORD PTR _brange$[ebp], xmm0

; 925  : 		display->Line(tgtx - brange, tgty - brange, tgtx + brange, tgty - brange);

	movss	xmm0, DWORD PTR _tgty$[ebp]
	subss	xmm0, DWORD PTR _brange$[ebp]
	push	ecx
	movss	DWORD PTR [esp], xmm0
	movss	xmm0, DWORD PTR _tgtx$[ebp]
	addss	xmm0, DWORD PTR _brange$[ebp]
	push	ecx
	movss	DWORD PTR [esp], xmm0
	movss	xmm0, DWORD PTR _tgty$[ebp]
	subss	xmm0, DWORD PTR _brange$[ebp]
	push	ecx
	movss	DWORD PTR [esp], xmm0
	movss	xmm0, DWORD PTR _tgtx$[ebp]
	subss	xmm0, DWORD PTR _brange$[ebp]
	push	ecx
	movss	DWORD PTR [esp], xmm0
	mov	eax, DWORD PTR _this$[ebp]
	mov	ecx, DWORD PTR [eax+20]
	mov	edx, DWORD PTR _this$[ebp]
	mov	eax, DWORD PTR [ecx]
	mov	ecx, DWORD PTR [edx+20]
	mov	edx, DWORD PTR [eax+32]
	call	edx

; 926  : 		display->Line(tgtx + brange, tgty - brange, tgtx + brange, tgty + brange);

	movss	xmm0, DWORD PTR _tgty$[ebp]
	addss	xmm0, DWORD PTR _brange$[ebp]
	push	ecx
	movss	DWORD PTR [esp], xmm0
	movss	xmm0, DWORD PTR _tgtx$[ebp]
	addss	xmm0, DWORD PTR _brange$[ebp]
	push	ecx
	movss	DWORD PTR [esp], xmm0
	movss	xmm0, DWORD PTR _tgty$[ebp]
	subss	xmm0, DWORD PTR _brange$[ebp]
	push	ecx
	movss	DWORD PTR [esp], xmm0
	movss	xmm0, DWORD PTR _tgtx$[ebp]
	addss	xmm0, DWORD PTR _brange$[ebp]
	push	ecx
	movss	DWORD PTR [esp], xmm0
	mov	eax, DWORD PTR _this$[ebp]
	mov	ecx, DWORD PTR [eax+20]
	mov	edx, DWORD PTR _this$[ebp]
	mov	eax, DWORD PTR [ecx]
	mov	ecx, DWORD PTR [edx+20]
	mov	edx, DWORD PTR [eax+32]
	call	edx

; 927  : 		display->Line(tgtx + brange, tgty + brange, tgtx - brange, tgty + brange);

	movss	xmm0, DWORD PTR _tgty$[ebp]
	addss	xmm0, DWORD PTR _brange$[ebp]
	push	ecx
	movss	DWORD PTR [esp], xmm0
	movss	xmm0, DWORD PTR _tgtx$[ebp]
	subss	xmm0, DWORD PTR _brange$[ebp]
	push	ecx
	movss	DWORD PTR [esp], xmm0
	movss	xmm0, DWORD PTR _tgty$[ebp]
	addss	xmm0, DWORD PTR _brange$[ebp]
	push	ecx
	movss	DWORD PTR [esp], xmm0
	movss	xmm0, DWORD PTR _tgtx$[ebp]
	addss	xmm0, DWORD PTR _brange$[ebp]
	push	ecx
	movss	DWORD PTR [esp], xmm0
	mov	eax, DWORD PTR _this$[ebp]
	mov	ecx, DWORD PTR [eax+20]
	mov	edx, DWORD PTR _this$[ebp]
	mov	eax, DWORD PTR [ecx]
	mov	ecx, DWORD PTR [edx+20]
	mov	edx, DWORD PTR [eax+32]
	call	edx

; 928  : 		display->Line(tgtx - brange, tgty + brange, tgtx - brange, tgty - brange);

	movss	xmm0, DWORD PTR _tgty$[ebp]
	subss	xmm0, DWORD PTR _brange$[ebp]
	push	ecx
	movss	DWORD PTR [esp], xmm0
	movss	xmm0, DWORD PTR _tgtx$[ebp]
	subss	xmm0, DWORD PTR _brange$[ebp]
	push	ecx
	movss	DWORD PTR [esp], xmm0
	movss	xmm0, DWORD PTR _tgty$[ebp]
	addss	xmm0, DWORD PTR _brange$[ebp]
	push	ecx
	movss	DWORD PTR [esp], xmm0
	movss	xmm0, DWORD PTR _tgtx$[ebp]
	subss	xmm0, DWORD PTR _brange$[ebp]
	push	ecx
	movss	DWORD PTR [esp], xmm0
	mov	eax, DWORD PTR _this$[ebp]
	mov	ecx, DWORD PTR [eax+20]
	mov	edx, DWORD PTR _this$[ebp]
	mov	eax, DWORD PTR [ecx]
	mov	ecx, DWORD PTR [edx+20]
	mov	edx, DWORD PTR [eax+32]
	call	edx

; 929  : 	}
; 930  : 	else 

	jmp	SHORT $LN56@RWSDisplay
$LN59@RWSDisplay:

; 931  : 	{
; 932  : 		brange = 0;

	movss	xmm0, DWORD PTR __real@00000000
	movss	DWORD PTR _brange$[ebp], xmm0

; 933  : 		tgtx = 0; tgty = 0;

	movss	xmm0, DWORD PTR __real@00000000
	movss	DWORD PTR _tgtx$[ebp], xmm0
	movss	xmm0, DWORD PTR __real@00000000
	movss	DWORD PTR _tgty$[ebp], xmm0
$LN56@RWSDisplay:

; 934  : 	}
; 935  : 
; 936  : 	/*-----------------*/
; 937  : 	/* for all objects */
; 938  : 	/*-----------------*/
; 939  : 	while (rdrObj)

	cmp	DWORD PTR _rdrObj$[ebp], 0
	je	$LN54@RWSDisplay

; 940  : 	{
; 941  : 		rdrData = rdrObj->localData;

	mov	eax, DWORD PTR _rdrObj$[ebp]
	mov	ecx, DWORD PTR [eax+12]
	mov	DWORD PTR _rdrData$[ebp], ecx

; 942  : 
; 943  : 		if (F4IsBadCodePtr((FARPROC) rdrObj->BaseData())) // JB 010317 CTD

	mov	ecx, DWORD PTR _rdrObj$[ebp]
	call	?BaseData@SimObjectType@@QAEPAVFalconEntity@@XZ ; SimObjectType::BaseData
	push	eax
	call	?F4IsBadCodePtr@@YA_NPAX@Z		; F4IsBadCodePtr
	add	esp, 4
	movzx	edx, al
	test	edx, edx
	je	SHORT $LN53@RWSDisplay

; 944  : 		{
; 945  : 			rdrObj = rdrObj->next;

	mov	eax, DWORD PTR _rdrObj$[ebp]
	mov	ecx, DWORD PTR [eax+16]
	mov	DWORD PTR _rdrObj$[ebp], ecx

; 946  : 			continue;

	jmp	SHORT $LN56@RWSDisplay
$LN53@RWSDisplay:

; 947  : 		}
; 948  : 
; 949  : 		/*-------------------------*/
; 950  : 		/* show target and history */
; 951  : 		/*-------------------------*/
; 952  : 		for (i=histno-1; i>=0; i--) // JPO - history is now dynamic

	mov	edx, DWORD PTR _this$[ebp]
	mov	eax, DWORD PTR [edx+552]
	sub	eax, 1
	mov	DWORD PTR _i$[ebp], eax
	jmp	SHORT $LN52@RWSDisplay
$LN51@RWSDisplay:
	mov	ecx, DWORD PTR _i$[ebp]
	sub	ecx, 1
	mov	DWORD PTR _i$[ebp], ecx
$LN52@RWSDisplay:
	cmp	DWORD PTR _i$[ebp], 0
	jl	$LN50@RWSDisplay

; 953  : 		{
; 954  : 			if (rdrData->rdrY[i] > 1.0)

	mov	edx, DWORD PTR _i$[ebp]
	mov	eax, DWORD PTR _rdrData$[ebp]
	cvtss2sd xmm0, DWORD PTR [eax+edx*4+104]
	comisd	xmm0, QWORD PTR __real@3ff0000000000000
	jbe	$LN47@RWSDisplay

; 955  : 			{
; 956  : 				TargetToXY(rdrData, i, tdisplayRange, &xPos, &yPos);

	lea	ecx, DWORD PTR _yPos$[ebp]
	push	ecx
	lea	edx, DWORD PTR _xPos$[ebp]
	push	edx
	mov	eax, DWORD PTR _this$[ebp]
	push	ecx
	movss	xmm0, DWORD PTR [eax+264]
	movss	DWORD PTR [esp], xmm0
	mov	ecx, DWORD PTR _i$[ebp]
	push	ecx
	mov	edx, DWORD PTR _rdrData$[ebp]
	push	edx
	mov	ecx, DWORD PTR _this$[ebp]
	call	?TargetToXY@RadarDopplerClass@@QAEXPAVSimObjectLocalData@@HMPAM1@Z ; RadarDopplerClass::TargetToXY

; 957  : 
; 958  : 				//Mi
; 959  : 				Pointer++;

	mov	eax, DWORD PTR _this$[ebp]
	mov	ecx, DWORD PTR [eax+596]
	add	ecx, 1
	mov	edx, DWORD PTR _this$[ebp]
	mov	DWORD PTR [edx+596], ecx

; 960  : 				if(Pointer > 19)

	mov	eax, DWORD PTR _this$[ebp]
	cmp	DWORD PTR [eax+596], 19			; 00000013H
	jle	SHORT $LN48@RWSDisplay

; 961  : 					Pointer = 0;

	mov	ecx, DWORD PTR _this$[ebp]
	mov	DWORD PTR [ecx+596], 0
$LN48@RWSDisplay:

; 962  : 				/*----------------------------*/
; 963  : 				/* keep objects on the screen */
; 964  : 				/*----------------------------*/
; 965  : 				if (fabs(xPos) < AZL && fabs(yPos) < AZL)

	push	ecx
	movss	xmm0, DWORD PTR _xPos$[ebp]
	movss	DWORD PTR [esp], xmm0
	call	?fabs@@YAMM@Z				; fabs
	add	esp, 4
	fstp	DWORD PTR tv1237[ebp]
	movss	xmm0, DWORD PTR __real@3f800000
	comiss	xmm0, DWORD PTR tv1237[ebp]
	jbe	$LN47@RWSDisplay
	push	ecx
	movss	xmm0, DWORD PTR _yPos$[ebp]
	movss	DWORD PTR [esp], xmm0
	call	?fabs@@YAMM@Z				; fabs
	add	esp, 4
	fstp	DWORD PTR tv1244[ebp]
	movss	xmm0, DWORD PTR __real@3f800000
	comiss	xmm0, DWORD PTR tv1244[ebp]
	jbe	$LN47@RWSDisplay

; 966  : 				{
; 967  : 					if(IsSet(EXP))

	push	2
	mov	ecx, DWORD PTR _this$[ebp]
	call	?IsSet@RadarDopplerClass@@QAEHH@Z	; RadarDopplerClass::IsSet
	test	eax, eax
	je	$LN45@RWSDisplay

; 968  : 					{
; 969  : 						float dx = xPos - tgtx;

	movss	xmm0, DWORD PTR _xPos$[ebp]
	subss	xmm0, DWORD PTR _tgtx$[ebp]
	movss	DWORD PTR _dx$3[ebp], xmm0

; 970  : 						float dy = yPos - tgty;

	movss	xmm0, DWORD PTR _yPos$[ebp]
	subss	xmm0, DWORD PTR _tgty$[ebp]
	movss	DWORD PTR _dy$4[ebp], xmm0

; 971  : 						dx *= 4; // zoom factor

	movss	xmm0, DWORD PTR _dx$3[ebp]
	mulss	xmm0, DWORD PTR __real@40800000
	movss	DWORD PTR _dx$3[ebp], xmm0

; 972  : 						dy *= 4;

	movss	xmm0, DWORD PTR _dy$4[ebp]
	mulss	xmm0, DWORD PTR __real@40800000
	movss	DWORD PTR _dy$4[ebp], xmm0

; 973  : 						xPos = tgtx + dx;

	movss	xmm0, DWORD PTR _tgtx$[ebp]
	addss	xmm0, DWORD PTR _dx$3[ebp]
	movss	DWORD PTR _xPos$[ebp], xmm0

; 974  : 						yPos = tgty + dy;

	movss	xmm0, DWORD PTR _tgty$[ebp]
	addss	xmm0, DWORD PTR _dy$4[ebp]
	movss	DWORD PTR _yPos$[ebp], xmm0

; 975  : 						if(fabs(xPos) > AZL || fabs(yPos) > AZL) 

	push	ecx
	movss	xmm0, DWORD PTR _xPos$[ebp]
	movss	DWORD PTR [esp], xmm0
	call	?fabs@@YAMM@Z				; fabs
	add	esp, 4
	fstp	DWORD PTR tv1258[ebp]
	movss	xmm0, DWORD PTR tv1258[ebp]
	comiss	xmm0, DWORD PTR __real@3f800000
	ja	SHORT $LN44@RWSDisplay
	push	ecx
	movss	xmm0, DWORD PTR _yPos$[ebp]
	movss	DWORD PTR [esp], xmm0
	call	?fabs@@YAMM@Z				; fabs
	add	esp, 4
	fstp	DWORD PTR tv1264[ebp]
	movss	xmm0, DWORD PTR tv1264[ebp]
	comiss	xmm0, DWORD PTR __real@3f800000
	jbe	SHORT $LN45@RWSDisplay
$LN44@RWSDisplay:

; 976  : 						{
; 977  : 							continue;

	jmp	$LN51@RWSDisplay
$LN45@RWSDisplay:

; 978  : 						}
; 979  : 					}
; 980  : 
; 981  : 					display->AdjustOriginInViewport (xPos, yPos);

	push	ecx
	movss	xmm0, DWORD PTR _yPos$[ebp]
	movss	DWORD PTR [esp], xmm0
	push	ecx
	movss	xmm0, DWORD PTR _xPos$[ebp]
	movss	DWORD PTR [esp], xmm0
	mov	edx, DWORD PTR _this$[ebp]
	mov	ecx, DWORD PTR [edx+20]
	call	?AdjustOriginInViewport@VirtualDisplay@@QAEXMM@Z ; VirtualDisplay::AdjustOriginInViewport

; 982  : 					if (rdrData->rdrSy[i] >= Track)

	mov	eax, DWORD PTR _i$[ebp]
	mov	ecx, DWORD PTR _rdrData$[ebp]
	cmp	DWORD PTR [ecx+eax*4+72], 3
	jl	$LN43@RWSDisplay

; 983  : 					{
; 984  : 						// This _should_ be right -- based on 2D angle between target velocity
; 985  : 						// and our line of sight to target  SCR 10/27/97
; 986  : 						ang = rdrObj->BaseData()->Yaw() - rdrData->rdrX[0] - platform->Yaw();

	mov	ecx, DWORD PTR _rdrObj$[ebp]
	call	?BaseData@SimObjectType@@QAEPAVFalconEntity@@XZ ; SimObjectType::BaseData
	mov	ecx, eax
	call	?Yaw@VuEntity@@QBEMXZ			; VuEntity::Yaw
	fstp	DWORD PTR tv1276[ebp]
	movss	xmm0, DWORD PTR tv1276[ebp]
	mov	edx, 4
	imul	edx, 0
	mov	eax, DWORD PTR _rdrData$[ebp]
	subss	xmm0, DWORD PTR [eax+edx+88]
	mov	ecx, DWORD PTR _this$[ebp]
	mov	ecx, DWORD PTR [ecx+32]
	movss	DWORD PTR tv1557[ebp], xmm0
	call	?Yaw@VuEntity@@QBEMXZ			; VuEntity::Yaw
	fstp	DWORD PTR tv1283[ebp]
	movss	xmm0, DWORD PTR tv1557[ebp]
	subss	xmm0, DWORD PTR tv1283[ebp]
	movss	DWORD PTR _ang$[ebp], xmm0

; 987  : 						if (ang >= 0.0)

	cvtss2sd xmm0, DWORD PTR _ang$[ebp]
	comisd	xmm0, QWORD PTR __real@0000000000000000
	jb	SHORT $LN42@RWSDisplay

; 988  : 							ang = SCH_ANG_INC*(float)floor(ang/(SCH_ANG_INC * DTR));

	movss	xmm0, DWORD PTR _ang$[ebp]
	divss	xmm0, DWORD PTR __real@3e4d87ab
	push	ecx
	movss	DWORD PTR [esp], xmm0
	call	?floor@@YAMM@Z				; floor
	add	esp, 4
	fstp	DWORD PTR tv1289[ebp]
	movss	xmm0, DWORD PTR tv1289[ebp]
	mulss	xmm0, DWORD PTR __real@41380000
	movss	DWORD PTR _ang$[ebp], xmm0

; 989  : 						else

	jmp	SHORT $LN41@RWSDisplay
$LN42@RWSDisplay:

; 990  : 							ang = SCH_ANG_INC*(float)ceil(ang/(SCH_ANG_INC * DTR));

	movss	xmm0, DWORD PTR _ang$[ebp]
	divss	xmm0, DWORD PTR __real@3e4d87ab
	push	ecx
	movss	DWORD PTR [esp], xmm0
	call	?ceil@@YAMM@Z				; ceil
	add	esp, 4
	fstp	DWORD PTR tv1296[ebp]
	movss	xmm0, DWORD PTR tv1296[ebp]
	mulss	xmm0, DWORD PTR __real@41380000
	movss	DWORD PTR _ang$[ebp], xmm0
$LN41@RWSDisplay:

; 991  : 						display->AdjustRotationAboutOrigin (ang * DTR);

	movss	xmm0, DWORD PTR _ang$[ebp]
	mulss	xmm0, DWORD PTR __real@3c8efa34
	push	ecx
	movss	DWORD PTR [esp], xmm0
	mov	edx, DWORD PTR _this$[ebp]
	mov	ecx, DWORD PTR [edx+20]
	call	?AdjustRotationAboutOrigin@VirtualDisplay@@QAEXM@Z ; VirtualDisplay::AdjustRotationAboutOrigin
$LN43@RWSDisplay:

; 992  : 					}
; 993  : 					vt = rdrObj->BaseData()->GetVt();

	mov	ecx, DWORD PTR _rdrObj$[ebp]
	call	?BaseData@SimObjectType@@QAEPAVFalconEntity@@XZ ; SimObjectType::BaseData
	mov	DWORD PTR tv514[ebp], eax
	mov	eax, DWORD PTR tv514[ebp]
	mov	edx, DWORD PTR [eax]
	mov	ecx, DWORD PTR tv514[ebp]
	mov	eax, DWORD PTR [edx+220]
	call	eax
	fstp	DWORD PTR _vt$[ebp]

; 994  : 					//MI we get all the AIM120 goodies in RWS too
; 995  : 
; 996  : 
; 997  : 					//Cobra 11/21/04 Are they interrogated?
; 998  : 					bool isCpl = TRUE;

	mov	BYTE PTR _isCpl$5[ebp], 1

; 999  : 					if (IsIFFFlags(Dcpl))

	push	1
	mov	ecx, DWORD PTR _this$[ebp]
	call	?IsIFFFlags@RadarDopplerClass@@IAEHH@Z	; RadarDopplerClass::IsIFFFlags
	test	eax, eax
	je	SHORT $LN40@RWSDisplay

; 1000 : 						isCpl = FALSE;

	mov	BYTE PTR _isCpl$5[ebp], 0
$LN40@RWSDisplay:

; 1001 : 
; 1002 : 					if (g_bRealisticAvionics)

	movzx	ecx, BYTE PTR ?g_bRealisticAvionics@@3_NA ; g_bRealisticAvionics
	test	ecx, ecx
	je	$LN31@RWSDisplay

; 1003 : 					{
; 1004 : 						if (rdrData->rdrSy[i] >= Det && self->interrogating && isCpl)

	mov	edx, DWORD PTR _i$[ebp]
	mov	eax, DWORD PTR _rdrData$[ebp]
	cmp	DWORD PTR [eax+edx*4+72], 1
	jl	SHORT $LN38@RWSDisplay
	mov	ecx, DWORD PTR _self$[ebp]
	movzx	edx, BYTE PTR [ecx+900]
	test	edx, edx
	je	SHORT $LN38@RWSDisplay
	movzx	eax, BYTE PTR _isCpl$5[ebp]
	test	eax, eax
	je	SHORT $LN38@RWSDisplay

; 1005 : 						{
; 1006 : 							rdrData->interrogated = TRUE;

	mov	ecx, DWORD PTR _rdrData$[ebp]
	mov	DWORD PTR [ecx+156], 1
	jmp	$LN34@RWSDisplay
$LN38@RWSDisplay:

; 1007 : 						}
; 1008 : 						//else if (!rdrData->rdrSy[i] >= Det && isCpl) Cobra fix warning C4804
; 1009 : 						else if ((!(rdrData->rdrSy[i] >= Det)) && isCpl)

	mov	edx, DWORD PTR _i$[ebp]
	mov	eax, DWORD PTR _rdrData$[ebp]
	cmp	DWORD PTR [eax+edx*4+72], 1
	jge	SHORT $LN36@RWSDisplay
	movzx	ecx, BYTE PTR _isCpl$5[ebp]
	test	ecx, ecx
	je	SHORT $LN36@RWSDisplay

; 1010 : 						{
; 1011 : 							rdrData->interrogated = FALSE;

	mov	edx, DWORD PTR _rdrData$[ebp]
	mov	DWORD PTR [edx+156], 0
	jmp	$LN34@RWSDisplay
$LN36@RWSDisplay:

; 1012 : 						}
; 1013 : 						else if (self->interrogating && !rdrObj->BaseData()->OnGround())

	mov	eax, DWORD PTR _self$[ebp]
	movzx	ecx, BYTE PTR [eax+900]
	test	ecx, ecx
	je	SHORT $LN34@RWSDisplay
	mov	ecx, DWORD PTR _rdrObj$[ebp]
	call	?BaseData@SimObjectType@@QAEPAVFalconEntity@@XZ ; SimObjectType::BaseData
	mov	DWORD PTR tv547[ebp], eax
	mov	edx, DWORD PTR tv547[ebp]
	mov	eax, DWORD PTR [edx]
	mov	ecx, DWORD PTR tv547[ebp]
	mov	edx, DWORD PTR [eax+148]
	call	edx
	test	eax, eax
	jne	SHORT $LN34@RWSDisplay

; 1014 : 						{
; 1015 : 							rdrData->interrogated = TRUE;

	mov	eax, DWORD PTR _rdrData$[ebp]
	mov	DWORD PTR [eax+156], 1

; 1016 : 							wipeIFF = TRUE;

	mov	ecx, DWORD PTR _this$[ebp]
	mov	BYTE PTR [ecx+180], 1

; 1017 : 							iffTimer = SimLibElapsedTime + 5000.0f;

	mov	edx, DWORD PTR ?SimLibElapsedTime@@3KA	; SimLibElapsedTime
	mov	DWORD PTR tv1322[ebp], edx
	cvtsi2sd xmm0, DWORD PTR tv1322[ebp]
	mov	eax, DWORD PTR tv1322[ebp]
	shr	eax, 31					; 0000001fH
	addsd	xmm0, QWORD PTR __xmm@41f00000000000000000000000000000[eax*8]
	movsd	QWORD PTR tv1326[ebp], xmm0
	cvtsd2ss xmm0, QWORD PTR tv1326[ebp]
	addss	xmm0, DWORD PTR __real@459c4000
	mov	ecx, DWORD PTR _this$[ebp]
	movss	DWORD PTR [ecx+236], xmm0
$LN34@RWSDisplay:

; 1018 : 						}
; 1019 : 							
; 1020 : 						//if (wipeIFF == TRUE && (!rdrData->rdrSy[i] >= Det) && isCpl) Cobra fix warning c4804
; 1021 : 						if (wipeIFF == TRUE && ((!(rdrData->rdrSy[i] >= Det)) && isCpl))

	mov	edx, DWORD PTR _this$[ebp]
	movzx	eax, BYTE PTR [edx+180]
	cmp	eax, 1
	jne	SHORT $LN33@RWSDisplay
	mov	ecx, DWORD PTR _i$[ebp]
	mov	edx, DWORD PTR _rdrData$[ebp]
	cmp	DWORD PTR [edx+ecx*4+72], 1
	jge	SHORT $LN33@RWSDisplay
	movzx	eax, BYTE PTR _isCpl$5[ebp]
	test	eax, eax
	je	SHORT $LN33@RWSDisplay

; 1022 : 							{
; 1023 : 							rdrData->interrogated = FALSE;

	mov	ecx, DWORD PTR _rdrData$[ebp]
	mov	DWORD PTR [ecx+156], 0

; 1024 : 							wipeIFF = FALSE;

	mov	edx, DWORD PTR _this$[ebp]
	mov	BYTE PTR [edx+180], 0

; 1025 : 							}
; 1026 : 						//else if (wipeIFF == TRUE && (!rdrData->rdrSy[i] >= Det) Cobra fix warning c4804
; 1027 : 						else if (wipeIFF == TRUE && (!(rdrData->rdrSy[i] >= Det))

	jmp	$LN31@RWSDisplay
$LN33@RWSDisplay:

; 1028 : 							&& (iffTimer < SimLibElapsedTime))

	mov	eax, DWORD PTR _this$[ebp]
	movzx	ecx, BYTE PTR [eax+180]
	cmp	ecx, 1
	jne	$LN31@RWSDisplay
	mov	edx, DWORD PTR _i$[ebp]
	mov	eax, DWORD PTR _rdrData$[ebp]
	cmp	DWORD PTR [eax+edx*4+72], 1
	jge	SHORT $LN31@RWSDisplay
	mov	ecx, DWORD PTR ?SimLibElapsedTime@@3KA	; SimLibElapsedTime
	mov	DWORD PTR tv1340[ebp], ecx
	cvtsi2sd xmm0, DWORD PTR tv1340[ebp]
	mov	edx, DWORD PTR tv1340[ebp]
	shr	edx, 31					; 0000001fH
	addsd	xmm0, QWORD PTR __xmm@41f00000000000000000000000000000[edx*8]
	movsd	QWORD PTR tv1344[ebp], xmm0
	cvtsd2ss xmm0, QWORD PTR tv1344[ebp]
	mov	eax, DWORD PTR _this$[ebp]
	comiss	xmm0, DWORD PTR [eax+236]
	jbe	SHORT $LN31@RWSDisplay

; 1029 : 							{
; 1030 : 							rdrData->interrogated = FALSE;

	mov	ecx, DWORD PTR _rdrData$[ebp]
	mov	DWORD PTR [ecx+156], 0

; 1031 : 							iffTimer = static_cast<float>(SimLibElapsedTime);

	mov	edx, DWORD PTR ?SimLibElapsedTime@@3KA	; SimLibElapsedTime
	mov	DWORD PTR tv1351[ebp], edx
	cvtsi2sd xmm0, DWORD PTR tv1351[ebp]
	mov	eax, DWORD PTR tv1351[ebp]
	shr	eax, 31					; 0000001fH
	addsd	xmm0, QWORD PTR __xmm@41f00000000000000000000000000000[eax*8]
	movsd	QWORD PTR tv1355[ebp], xmm0
	cvtsd2ss xmm0, QWORD PTR tv1355[ebp]
	mov	ecx, DWORD PTR _this$[ebp]
	movss	DWORD PTR [ecx+236], xmm0
$LN31@RWSDisplay:

; 1032 : 							}
; 1033 : 						}
; 1034 : 
; 1035 : 
; 1036 : 					if(g_bRealisticAvionics)

	movzx	edx, BYTE PTR ?g_bRealisticAvionics@@3_NA ; g_bRealisticAvionics
	test	edx, edx
	je	$LN30@RWSDisplay

; 1037 : 					{
; 1038 : 						if (rdrObj == lockedTarget && 
; 1039 : 										pFCC->lastMissileImpactTime > 0.0F) 

	mov	eax, DWORD PTR _this$[ebp]
	mov	ecx, DWORD PTR _rdrObj$[ebp]
	cmp	ecx, DWORD PTR [eax+48]
	jne	SHORT $LN29@RWSDisplay
	mov	edx, DWORD PTR _pFCC$[ebp]
	movss	xmm0, DWORD PTR [edx+268]
	comiss	xmm0, DWORD PTR __real@00000000
	jbe	SHORT $LN29@RWSDisplay

; 1040 : 						{ // Aim Target
; 1041 : 							if (pFCC->lastMissileImpactTime > pFCC->lastmissileActiveTime)

	mov	eax, DWORD PTR _pFCC$[ebp]
	mov	ecx, DWORD PTR _pFCC$[ebp]
	movss	xmm0, DWORD PTR [eax+268]
	comiss	xmm0, DWORD PTR [ecx+276]
	jbe	SHORT $LN28@RWSDisplay

; 1042 : 								DrawSymbol(AimRel, vt/SCH_FACT, i);

	push	0
	mov	edx, DWORD PTR _i$[ebp]
	push	edx
	movss	xmm0, DWORD PTR _vt$[ebp]
	divss	xmm0, DWORD PTR __real@44c80000
	push	ecx
	movss	DWORD PTR [esp], xmm0
	push	16					; 00000010H
	mov	ecx, DWORD PTR _this$[ebp]
	call	?DrawSymbol@RadarDopplerClass@@IAEXHMHH@Z ; RadarDopplerClass::DrawSymbol

; 1043 : 							else

	jmp	SHORT $LN27@RWSDisplay
$LN28@RWSDisplay:

; 1044 : 								DrawSymbol(AimFlash, vt/SCH_FACT, i);

	push	0
	mov	eax, DWORD PTR _i$[ebp]
	push	eax
	movss	xmm0, DWORD PTR _vt$[ebp]
	divss	xmm0, DWORD PTR __real@44c80000
	push	ecx
	movss	DWORD PTR [esp], xmm0
	push	17					; 00000011H
	mov	ecx, DWORD PTR _this$[ebp]
	call	?DrawSymbol@RadarDopplerClass@@IAEXHMHH@Z ; RadarDopplerClass::DrawSymbol
$LN27@RWSDisplay:

; 1045 : 						}
; 1046 : 						else

	jmp	$LN18@RWSDisplay
$LN29@RWSDisplay:

; 1047 : 							//Cobra 11/20 Test of IFF
; 1048 : 							//DrawSymbol(rdrData->rdrSy[i], vt/SCH_FACT, i);
; 1049 : 							if ( rdrData->rdrSy[i] >= Det && rdrData->interrogated && TeamInfo[platform->GetTeam()]->TStance(rdrObj->BaseData()->GetTeam()) == Allied && iff && isCpl)

	mov	ecx, DWORD PTR _i$[ebp]
	mov	edx, DWORD PTR _rdrData$[ebp]
	cmp	DWORD PTR [edx+ecx*4+72], 1
	jl	$LN25@RWSDisplay
	mov	eax, DWORD PTR _rdrData$[ebp]
	cmp	DWORD PTR [eax+156], 0
	je	SHORT $LN25@RWSDisplay
	mov	ecx, DWORD PTR _rdrObj$[ebp]
	call	?BaseData@SimObjectType@@QAEPAVFalconEntity@@XZ ; SimObjectType::BaseData
	mov	DWORD PTR tv638[ebp], eax
	mov	ecx, DWORD PTR tv638[ebp]
	mov	edx, DWORD PTR [ecx]
	mov	ecx, DWORD PTR tv638[ebp]
	mov	eax, DWORD PTR [edx+116]
	call	eax
	movzx	ecx, al
	push	ecx
	mov	edx, DWORD PTR _this$[ebp]
	mov	eax, DWORD PTR [edx+32]
	mov	ecx, DWORD PTR _this$[ebp]
	mov	edx, DWORD PTR [eax]
	mov	ecx, DWORD PTR [ecx+32]
	mov	eax, DWORD PTR [edx+116]
	call	eax
	movzx	ecx, al
	mov	ecx, DWORD PTR ?TeamInfo@@3PAPAVTeamClass@@A[ecx*4]
	call	?TStance@TeamClass@@QAEHE@Z		; TeamClass::TStance
	cmp	eax, 1
	jne	SHORT $LN25@RWSDisplay
	cmp	DWORD PTR _iff$[ebp], 0
	je	SHORT $LN25@RWSDisplay
	movzx	edx, BYTE PTR _isCpl$5[ebp]
	test	edx, edx
	je	SHORT $LN25@RWSDisplay

; 1050 : 							{
; 1051 : 								//
; 1052 : 								DrawSymbol(InterogateFriend, vt/SCH_FACT, i);

	push	0
	mov	eax, DWORD PTR _i$[ebp]
	push	eax
	movss	xmm0, DWORD PTR _vt$[ebp]
	divss	xmm0, DWORD PTR __real@44c80000
	push	ecx
	movss	DWORD PTR [esp], xmm0
	push	19					; 00000013H
	mov	ecx, DWORD PTR _this$[ebp]
	call	?DrawSymbol@RadarDopplerClass@@IAEXHMHH@Z ; RadarDopplerClass::DrawSymbol
	jmp	$LN18@RWSDisplay
$LN25@RWSDisplay:

; 1053 : 							}
; 1054 : 							else if ( rdrData->interrogated && TeamInfo[platform->GetTeam()]->TStance(rdrObj->BaseData()->GetTeam()) == Allied && iff)

	mov	ecx, DWORD PTR _rdrData$[ebp]
	cmp	DWORD PTR [ecx+156], 0
	je	SHORT $LN23@RWSDisplay
	mov	ecx, DWORD PTR _rdrObj$[ebp]
	call	?BaseData@SimObjectType@@QAEPAVFalconEntity@@XZ ; SimObjectType::BaseData
	mov	DWORD PTR tv681[ebp], eax
	mov	edx, DWORD PTR tv681[ebp]
	mov	eax, DWORD PTR [edx]
	mov	ecx, DWORD PTR tv681[ebp]
	mov	edx, DWORD PTR [eax+116]
	call	edx
	movzx	eax, al
	push	eax
	mov	ecx, DWORD PTR _this$[ebp]
	mov	edx, DWORD PTR [ecx+32]
	mov	eax, DWORD PTR _this$[ebp]
	mov	edx, DWORD PTR [edx]
	mov	ecx, DWORD PTR [eax+32]
	mov	eax, DWORD PTR [edx+116]
	call	eax
	movzx	ecx, al
	mov	ecx, DWORD PTR ?TeamInfo@@3PAPAVTeamClass@@A[ecx*4]
	call	?TStance@TeamClass@@QAEHE@Z		; TeamClass::TStance
	cmp	eax, 1
	jne	SHORT $LN23@RWSDisplay
	cmp	DWORD PTR _iff$[ebp], 0
	je	SHORT $LN23@RWSDisplay

; 1055 : 							{
; 1056 : 								//
; 1057 : 								DrawSymbol(InterogateFriend, vt/SCH_FACT, i);

	push	0
	mov	edx, DWORD PTR _i$[ebp]
	push	edx
	movss	xmm0, DWORD PTR _vt$[ebp]
	divss	xmm0, DWORD PTR __real@44c80000
	push	ecx
	movss	DWORD PTR [esp], xmm0
	push	19					; 00000013H
	mov	ecx, DWORD PTR _this$[ebp]
	call	?DrawSymbol@RadarDopplerClass@@IAEXHMHH@Z ; RadarDopplerClass::DrawSymbol
	jmp	$LN18@RWSDisplay
$LN23@RWSDisplay:

; 1058 : 							}
; 1059 : 						/*else
; 1060 : 						  {
; 1061 : 						//
; 1062 : 						DrawSymbol(rdrData->rdrSy[i], vt/SCH_FACT, i);
; 1063 : 						}*/ //Cobra original above but let's test
; 1064 : 							else if (rdrData->rdrSy[i] == Det && rdrObj->BaseData()->IsSPJamming())

	mov	eax, DWORD PTR _i$[ebp]
	mov	ecx, DWORD PTR _rdrData$[ebp]
	cmp	DWORD PTR [ecx+eax*4+72], 1
	jne	SHORT $LN21@RWSDisplay
	mov	ecx, DWORD PTR _rdrObj$[ebp]
	call	?BaseData@SimObjectType@@QAEPAVFalconEntity@@XZ ; SimObjectType::BaseData
	mov	DWORD PTR tv701[ebp], eax
	mov	edx, DWORD PTR tv701[ebp]
	mov	eax, DWORD PTR [edx]
	mov	ecx, DWORD PTR tv701[ebp]
	mov	edx, DWORD PTR [eax+268]
	call	edx
	test	eax, eax
	je	SHORT $LN21@RWSDisplay

; 1065 : 							{
; 1066 : 								DrawSymbol( Jam, vt/SCH_FACT, i );

	push	0
	mov	eax, DWORD PTR _i$[ebp]
	push	eax
	movss	xmm0, DWORD PTR _vt$[ebp]
	divss	xmm0, DWORD PTR __real@44c80000
	push	ecx
	movss	DWORD PTR [esp], xmm0
	push	14					; 0000000eH
	mov	ecx, DWORD PTR _this$[ebp]
	call	?DrawSymbol@RadarDopplerClass@@IAEXHMHH@Z ; RadarDopplerClass::DrawSymbol
	jmp	$LN18@RWSDisplay
$LN21@RWSDisplay:

; 1067 : 							}
; 1068 : 							else if (rdrData->rdrSy[i] == Solid && rdrObj->BaseData()->IsSPJamming())

	mov	ecx, DWORD PTR _i$[ebp]
	mov	edx, DWORD PTR _rdrData$[ebp]
	cmp	DWORD PTR [edx+ecx*4+72], 2
	jne	SHORT $LN19@RWSDisplay
	mov	ecx, DWORD PTR _rdrObj$[ebp]
	call	?BaseData@SimObjectType@@QAEPAVFalconEntity@@XZ ; SimObjectType::BaseData
	mov	DWORD PTR tv719[ebp], eax
	mov	eax, DWORD PTR tv719[ebp]
	mov	edx, DWORD PTR [eax]
	mov	ecx, DWORD PTR tv719[ebp]
	mov	eax, DWORD PTR [edx+268]
	call	eax
	test	eax, eax
	je	SHORT $LN19@RWSDisplay

; 1069 : 							{
; 1070 : 								DrawSymbol( Jam, vt/SCH_FACT, i );

	push	0
	mov	ecx, DWORD PTR _i$[ebp]
	push	ecx
	movss	xmm0, DWORD PTR _vt$[ebp]
	divss	xmm0, DWORD PTR __real@44c80000
	push	ecx
	movss	DWORD PTR [esp], xmm0
	push	14					; 0000000eH
	mov	ecx, DWORD PTR _this$[ebp]
	call	?DrawSymbol@RadarDopplerClass@@IAEXHMHH@Z ; RadarDopplerClass::DrawSymbol

; 1071 : 								DrawSymbol(rdrData->rdrSy[i], vt/SCH_FACT, i);

	push	0
	mov	edx, DWORD PTR _i$[ebp]
	push	edx
	movss	xmm0, DWORD PTR _vt$[ebp]
	divss	xmm0, DWORD PTR __real@44c80000
	push	ecx
	movss	DWORD PTR [esp], xmm0
	mov	eax, DWORD PTR _i$[ebp]
	mov	ecx, DWORD PTR _rdrData$[ebp]
	mov	edx, DWORD PTR [ecx+eax*4+72]
	push	edx
	mov	ecx, DWORD PTR _this$[ebp]
	call	?DrawSymbol@RadarDopplerClass@@IAEXHMHH@Z ; RadarDopplerClass::DrawSymbol

; 1072 : 							}
; 1073 : 							else

	jmp	SHORT $LN18@RWSDisplay
$LN19@RWSDisplay:

; 1074 : 							{
; 1075 : 								//
; 1076 : 								DrawSymbol(rdrData->rdrSy[i], vt/SCH_FACT, i);

	push	0
	mov	eax, DWORD PTR _i$[ebp]
	push	eax
	movss	xmm0, DWORD PTR _vt$[ebp]
	divss	xmm0, DWORD PTR __real@44c80000
	push	ecx
	movss	DWORD PTR [esp], xmm0
	mov	ecx, DWORD PTR _i$[ebp]
	mov	edx, DWORD PTR _rdrData$[ebp]
	mov	eax, DWORD PTR [edx+ecx*4+72]
	push	eax
	mov	ecx, DWORD PTR _this$[ebp]
	call	?DrawSymbol@RadarDopplerClass@@IAEXHMHH@Z ; RadarDopplerClass::DrawSymbol
$LN18@RWSDisplay:

; 1077 : 							}//Cobra 01/30/05 End new
; 1078 : 
; 1079 : 					}
; 1080 : 					else

	jmp	SHORT $LN17@RWSDisplay
$LN30@RWSDisplay:

; 1081 : 						DrawSymbol(rdrData->rdrSy[i], vt/SCH_FACT, i);

	push	0
	mov	ecx, DWORD PTR _i$[ebp]
	push	ecx
	movss	xmm0, DWORD PTR _vt$[ebp]
	divss	xmm0, DWORD PTR __real@44c80000
	push	ecx
	movss	DWORD PTR [esp], xmm0
	mov	edx, DWORD PTR _i$[ebp]
	mov	eax, DWORD PTR _rdrData$[ebp]
	mov	ecx, DWORD PTR [eax+edx*4+72]
	push	ecx
	mov	ecx, DWORD PTR _this$[ebp]
	call	?DrawSymbol@RadarDopplerClass@@IAEXHMHH@Z ; RadarDopplerClass::DrawSymbol
$LN17@RWSDisplay:

; 1082 : 
; 1083 : 					display->ZeroRotationAboutOrigin();

	mov	edx, DWORD PTR _this$[ebp]
	mov	ecx, DWORD PTR [edx+20]
	call	?ZeroRotationAboutOrigin@VirtualDisplay@@QAEXXZ ; VirtualDisplay::ZeroRotationAboutOrigin

; 1084 : 
; 1085 : 					//MI
; 1086 : 					if(g_bRealisticAvionics)

	movzx	eax, BYTE PTR ?g_bRealisticAvionics@@3_NA ; g_bRealisticAvionics
	test	eax, eax
	je	$LN7@RWSDisplay

; 1087 : 					{
; 1088 : 						if(i == 0)

	cmp	DWORD PTR _i$[ebp], 0
	jne	$LN10@RWSDisplay

; 1089 : 						{
; 1090 : 							alt  = -rdrObj->BaseData()->ZPos();

	mov	ecx, DWORD PTR _rdrObj$[ebp]
	call	?BaseData@SimObjectType@@QAEPAVFalconEntity@@XZ ; SimObjectType::BaseData
	mov	ecx, eax
	call	?ZPos@VuEntity@@QBEMXZ			; VuEntity::ZPos
	fstp	DWORD PTR tv1444[ebp]
	movss	xmm0, DWORD PTR tv1444[ebp]
	xorps	xmm0, DWORD PTR __xmm@80000000800000008000000080000000
	movss	DWORD PTR _alt$[ebp], xmm0

; 1091 : 							if(rdrObj == lockedTarget &&
; 1092 : 											pFCC->LastMissileWillMiss(lockedTargetData->range) &&
; 1093 : 											(vuxRealTime & 0x180))

	mov	ecx, DWORD PTR _this$[ebp]
	mov	edx, DWORD PTR _rdrObj$[ebp]
	cmp	edx, DWORD PTR [ecx+48]
	jne	SHORT $LN14@RWSDisplay
	mov	eax, DWORD PTR _this$[ebp]
	mov	ecx, DWORD PTR [eax+176]
	push	ecx
	movss	xmm0, DWORD PTR [ecx+44]
	movss	DWORD PTR [esp], xmm0
	mov	ecx, DWORD PTR _pFCC$[ebp]
	call	?LastMissileWillMiss@FireControlComputer@@QAEHM@Z ; FireControlComputer::LastMissileWillMiss
	test	eax, eax
	je	SHORT $LN14@RWSDisplay
	mov	edx, DWORD PTR ?vuxRealTime@@3KA	; vuxRealTime
	and	edx, 384				; 00000180H
	je	SHORT $LN14@RWSDisplay

; 1094 : 							{
; 1095 : 								sprintf (str, "LOSE");

	push	OFFSET ??_C@_04IEFNNOGI@LOSE?$AA@
	lea	eax, DWORD PTR _str$[ebp]
	push	eax
	call	_sprintf
	add	esp, 8

; 1096 : 								ShiAssert (strlen(str) < sizeof(str));
; 1097 : 								display->TextCenter(0.0F, -0.05F, str);

	push	0
	lea	ecx, DWORD PTR _str$[ebp]
	push	ecx
	push	ecx
	movss	xmm0, DWORD PTR __real@bd4ccccd
	movss	DWORD PTR [esp], xmm0
	push	ecx
	movss	xmm0, DWORD PTR __real@00000000
	movss	DWORD PTR [esp], xmm0
	mov	edx, DWORD PTR _this$[ebp]
	mov	eax, DWORD PTR [edx+20]
	mov	ecx, DWORD PTR _this$[ebp]
	mov	edx, DWORD PTR [eax]
	mov	ecx, DWORD PTR [ecx+20]
	mov	eax, DWORD PTR [edx+72]
	call	eax
	jmp	$LN10@RWSDisplay
$LN14@RWSDisplay:

; 1098 : 							}
; 1099 : 							else if(rdrObj == lockedTarget)

	mov	ecx, DWORD PTR _this$[ebp]
	mov	edx, DWORD PTR _rdrObj$[ebp]
	cmp	edx, DWORD PTR [ecx+48]
	jne	$LN12@RWSDisplay

; 1100 : 							{
; 1101 : 								alt  = -rdrObj->BaseData()->ZPos();

	mov	ecx, DWORD PTR _rdrObj$[ebp]
	call	?BaseData@SimObjectType@@QAEPAVFalconEntity@@XZ ; SimObjectType::BaseData
	mov	ecx, eax
	call	?ZPos@VuEntity@@QBEMXZ			; VuEntity::ZPos
	fstp	DWORD PTR tv1467[ebp]
	movss	xmm0, DWORD PTR tv1467[ebp]
	xorps	xmm0, DWORD PTR __xmm@80000000800000008000000080000000
	movss	DWORD PTR _alt$[ebp], xmm0

; 1102 : 								sprintf(str,"%02d",(int)((alt + 500.0F)*0.001));

	movss	xmm0, DWORD PTR _alt$[ebp]
	addss	xmm0, DWORD PTR __real@43fa0000
	cvtss2sd xmm0, xmm0
	mulsd	xmm0, QWORD PTR __real@3f50624dd2f1a9fc
	cvttsd2si eax, xmm0
	push	eax
	push	OFFSET ??_C@_04OGKJMPGK@?$CF02d?$AA@
	lea	ecx, DWORD PTR _str$[ebp]
	push	ecx
	call	_sprintf
	add	esp, 12					; 0000000cH

; 1103 : 								ShiAssert (strlen(str) < sizeof(str));
; 1104 : 								display->TextCenter(0.0F, -0.05F, str);

	push	0
	lea	edx, DWORD PTR _str$[ebp]
	push	edx
	push	ecx
	movss	xmm0, DWORD PTR __real@bd4ccccd
	movss	DWORD PTR [esp], xmm0
	push	ecx
	movss	xmm0, DWORD PTR __real@00000000
	movss	DWORD PTR [esp], xmm0
	mov	eax, DWORD PTR _this$[ebp]
	mov	ecx, DWORD PTR [eax+20]
	mov	edx, DWORD PTR _this$[ebp]
	mov	eax, DWORD PTR [ecx]
	mov	ecx, DWORD PTR [edx+20]
	mov	edx, DWORD PTR [eax+72]
	call	edx

; 1105 : 							}
; 1106 : 							else

	jmp	$LN10@RWSDisplay
$LN12@RWSDisplay:

; 1107 : 							{
; 1108 : 								if ((rdrData->rdrSy[i] >= Track) || (rdrObj->BaseData()->Id() == targetUnderCursor))

	mov	eax, DWORD PTR _i$[ebp]
	mov	ecx, DWORD PTR _rdrData$[ebp]
	cmp	DWORD PTR [ecx+eax*4+72], 3
	jge	SHORT $LN9@RWSDisplay
	mov	edx, DWORD PTR _this$[ebp]
	add	edx, 36					; 00000024H
	push	edx
	lea	eax, DWORD PTR $T2[ebp]
	push	eax
	mov	ecx, DWORD PTR _rdrObj$[ebp]
	call	?BaseData@SimObjectType@@QAEPAVFalconEntity@@XZ ; SimObjectType::BaseData
	mov	ecx, eax
	call	?Id@VuEntity@@QBE?AVVU_ID@@XZ		; VuEntity::Id
	mov	ecx, eax
	call	??8VU_ID@@QBE_NABV0@@Z			; VU_ID::operator==
	movzx	ecx, al
	test	ecx, ecx
	je	$LN10@RWSDisplay
$LN9@RWSDisplay:

; 1109 : 								{ 
; 1110 : 									alt  = -rdrObj->BaseData()->ZPos();

	mov	ecx, DWORD PTR _rdrObj$[ebp]
	call	?BaseData@SimObjectType@@QAEPAVFalconEntity@@XZ ; SimObjectType::BaseData
	mov	ecx, eax
	call	?ZPos@VuEntity@@QBEMXZ			; VuEntity::ZPos
	fstp	DWORD PTR tv1489[ebp]
	movss	xmm0, DWORD PTR tv1489[ebp]
	xorps	xmm0, DWORD PTR __xmm@80000000800000008000000080000000
	movss	DWORD PTR _alt$[ebp], xmm0

; 1111 : 									sprintf(str,"%02d",(int)((alt + 500.0F)*0.001));

	movss	xmm0, DWORD PTR _alt$[ebp]
	addss	xmm0, DWORD PTR __real@43fa0000
	cvtss2sd xmm0, xmm0
	mulsd	xmm0, QWORD PTR __real@3f50624dd2f1a9fc
	cvttsd2si edx, xmm0
	push	edx
	push	OFFSET ??_C@_04OGKJMPGK@?$CF02d?$AA@
	lea	eax, DWORD PTR _str$[ebp]
	push	eax
	call	_sprintf
	add	esp, 12					; 0000000cH

; 1112 : 									ShiAssert (strlen(str) < sizeof(str));
; 1113 : 									display->TextCenter(0.0F, -0.05F, str);

	push	0
	lea	ecx, DWORD PTR _str$[ebp]
	push	ecx
	push	ecx
	movss	xmm0, DWORD PTR __real@bd4ccccd
	movss	DWORD PTR [esp], xmm0
	push	ecx
	movss	xmm0, DWORD PTR __real@00000000
	movss	DWORD PTR [esp], xmm0
	mov	edx, DWORD PTR _this$[ebp]
	mov	eax, DWORD PTR [edx+20]
	mov	ecx, DWORD PTR _this$[ebp]
	mov	edx, DWORD PTR [eax]
	mov	ecx, DWORD PTR [ecx+20]
	mov	eax, DWORD PTR [edx+72]
	call	eax
$LN10@RWSDisplay:

; 1114 : 								}
; 1115 : 							}
; 1116 : 						}
; 1117 : 
; 1118 : 
; 1119 : 						// JPO - draw hit ind.
; 1120 : 						if (rdrObj == lockedTarget &&
; 1121 : 										pFCC->MissileImpactTimeFlash > SimLibElapsedTime) 

	mov	ecx, DWORD PTR _this$[ebp]
	mov	edx, DWORD PTR _rdrObj$[ebp]
	cmp	edx, DWORD PTR [ecx+48]
	jne	$LN7@RWSDisplay
	mov	eax, DWORD PTR _pFCC$[ebp]
	mov	ecx, DWORD PTR [eax+396]
	cmp	ecx, DWORD PTR ?SimLibElapsedTime@@3KA	; SimLibElapsedTime
	jbe	SHORT $LN7@RWSDisplay

; 1122 : 						{ // Draw X
; 1123 : 							if (pFCC->MissileImpactTimeFlash-SimLibElapsedTime  > 5.0f * CampaignSeconds ||
; 1124 : 											(vuxRealTime & 0x200)) 

	mov	edx, DWORD PTR _pFCC$[ebp]
	mov	eax, DWORD PTR [edx+396]
	sub	eax, DWORD PTR ?SimLibElapsedTime@@3KA	; SimLibElapsedTime
	mov	DWORD PTR tv1507[ebp], eax
	cvtsi2sd xmm0, DWORD PTR tv1507[ebp]
	mov	ecx, DWORD PTR tv1507[ebp]
	shr	ecx, 31					; 0000001fH
	addsd	xmm0, QWORD PTR __xmm@41f00000000000000000000000000000[ecx*8]
	movsd	QWORD PTR tv1510[ebp], xmm0
	cvtsd2ss xmm0, QWORD PTR tv1510[ebp]
	comiss	xmm0, DWORD PTR __real@459c4000
	ja	SHORT $LN6@RWSDisplay
	mov	edx, DWORD PTR ?vuxRealTime@@3KA	; vuxRealTime
	and	edx, 512				; 00000200H
	je	SHORT $LN7@RWSDisplay
$LN6@RWSDisplay:

; 1125 : 							{
; 1126 : 								DrawSymbol(HitInd, 0, 0);

	push	0
	push	0
	push	ecx
	movss	xmm0, DWORD PTR __real@00000000
	movss	DWORD PTR [esp], xmm0
	push	15					; 0000000fH
	mov	ecx, DWORD PTR _this$[ebp]
	call	?DrawSymbol@RadarDopplerClass@@IAEXHMHH@Z ; RadarDopplerClass::DrawSymbol
$LN7@RWSDisplay:

; 1127 : 							} 
; 1128 : 						}
; 1129 : 					}
; 1130 : 
; 1131 : 					if (i == 0)

	cmp	DWORD PTR _i$[ebp], 0
	jne	$LN5@RWSDisplay

; 1132 : 					{
; 1133 : 						//MI done above in realistic
; 1134 : 						if(!g_bRealisticAvionics)

	movzx	eax, BYTE PTR ?g_bRealisticAvionics@@3_NA ; g_bRealisticAvionics
	test	eax, eax
	jne	$LN3@RWSDisplay

; 1135 : 						{
; 1136 : 							/*---------------------------------------------*/
; 1137 : 							/* target under cursor or locked show altitude */
; 1138 : 							/*---------------------------------------------*/
; 1139 : 							if ((rdrData->rdrSy[i] >= Track) || (rdrObj->BaseData()->Id() == targetUnderCursor))

	mov	ecx, DWORD PTR _i$[ebp]
	mov	edx, DWORD PTR _rdrData$[ebp]
	cmp	DWORD PTR [edx+ecx*4+72], 3
	jge	SHORT $LN2@RWSDisplay
	mov	eax, DWORD PTR _this$[ebp]
	add	eax, 36					; 00000024H
	push	eax
	lea	ecx, DWORD PTR $T1[ebp]
	push	ecx
	mov	ecx, DWORD PTR _rdrObj$[ebp]
	call	?BaseData@SimObjectType@@QAEPAVFalconEntity@@XZ ; SimObjectType::BaseData
	mov	ecx, eax
	call	?Id@VuEntity@@QBE?AVVU_ID@@XZ		; VuEntity::Id
	mov	ecx, eax
	call	??8VU_ID@@QBE_NABV0@@Z			; VU_ID::operator==
	movzx	edx, al
	test	edx, edx
	je	$LN3@RWSDisplay
$LN2@RWSDisplay:

; 1140 : 							{
; 1141 : 								alt  = -rdrObj->BaseData()->ZPos();

	mov	ecx, DWORD PTR _rdrObj$[ebp]
	call	?BaseData@SimObjectType@@QAEPAVFalconEntity@@XZ ; SimObjectType::BaseData
	mov	ecx, eax
	call	?ZPos@VuEntity@@QBEMXZ			; VuEntity::ZPos
	fstp	DWORD PTR tv1528[ebp]
	movss	xmm0, DWORD PTR tv1528[ebp]
	xorps	xmm0, DWORD PTR __xmm@80000000800000008000000080000000
	movss	DWORD PTR _alt$[ebp], xmm0

; 1142 : 								sprintf(str,"%02d",(int)((alt + 500.0F)*0.001));

	movss	xmm0, DWORD PTR _alt$[ebp]
	addss	xmm0, DWORD PTR __real@43fa0000
	cvtss2sd xmm0, xmm0
	mulsd	xmm0, QWORD PTR __real@3f50624dd2f1a9fc
	cvttsd2si eax, xmm0
	push	eax
	push	OFFSET ??_C@_04OGKJMPGK@?$CF02d?$AA@
	lea	ecx, DWORD PTR _str$[ebp]
	push	ecx
	call	_sprintf
	add	esp, 12					; 0000000cH

; 1143 : 								ShiAssert (strlen(str) < sizeof(str));
; 1144 : 								display->TextCenter(0.0F, -0.15F, str);

	push	0
	lea	edx, DWORD PTR _str$[ebp]
	push	edx
	push	ecx
	movss	xmm0, DWORD PTR __real@be19999a
	movss	DWORD PTR [esp], xmm0
	push	ecx
	movss	xmm0, DWORD PTR __real@00000000
	movss	DWORD PTR [esp], xmm0
	mov	eax, DWORD PTR _this$[ebp]
	mov	ecx, DWORD PTR [eax+20]
	mov	edx, DWORD PTR _this$[ebp]
	mov	eax, DWORD PTR [ecx]
	mov	ecx, DWORD PTR [edx+20]
	mov	edx, DWORD PTR [eax+72]
	call	edx
$LN3@RWSDisplay:

; 1145 : 							}
; 1146 : 						}
; 1147 : 
; 1148 : 						display->SetColor(GetMfdColor(MFD_ATTACK_STEERING_CUE)); // JPO draw in yellow

	push	1
	mov	ecx, DWORD PTR _this$[ebp]
	call	?GetMfdColor@DrawableClass@@QAEIW4MfdColor@@@Z ; DrawableClass::GetMfdColor
	push	eax
	mov	eax, DWORD PTR _this$[ebp]
	mov	ecx, DWORD PTR [eax+20]
	mov	edx, DWORD PTR _this$[ebp]
	mov	eax, DWORD PTR [ecx]
	mov	ecx, DWORD PTR [edx+20]
	mov	edx, DWORD PTR [eax+92]
	call	edx

; 1149 : 						// Show collision steering if this is a locked target
; 1150 : 						if (rdrObj == lockedTarget)

	mov	eax, DWORD PTR _this$[ebp]
	mov	ecx, DWORD PTR _rdrObj$[ebp]
	cmp	ecx, DWORD PTR [eax+48]
	jne	SHORT $LN1@RWSDisplay

; 1151 : 							DrawCollisionSteering(rdrObj, xPos);

	push	ecx
	movss	xmm0, DWORD PTR _xPos$[ebp]
	movss	DWORD PTR [esp], xmm0
	mov	edx, DWORD PTR _rdrObj$[ebp]
	push	edx
	mov	ecx, DWORD PTR _this$[ebp]
	call	?DrawCollisionSteering@RadarDopplerClass@@IAEXPAVSimObjectType@@M@Z ; RadarDopplerClass::DrawCollisionSteering
$LN1@RWSDisplay:

; 1152 : 
; 1153 : 						// SCR 9/9/98  If target is jamming, indicate such
; 1154 : 						/*if (rdrObj->BaseData()->IsSPJamming())
; 1155 : 						  {
; 1156 : 						  DrawSymbol( Jam, 0.0f, 0 );
; 1157 : 						  }*/ //Cobra removed for testing
; 1158 : 
; 1159 : 						display->SetColor(tmpColor);

	mov	eax, DWORD PTR _tmpColor$[ebp]
	push	eax
	mov	ecx, DWORD PTR _this$[ebp]
	mov	edx, DWORD PTR [ecx+20]
	mov	eax, DWORD PTR _this$[ebp]
	mov	edx, DWORD PTR [edx]
	mov	ecx, DWORD PTR [eax+20]
	mov	eax, DWORD PTR [edx+92]
	call	eax
$LN5@RWSDisplay:

; 1160 : 					}
; 1161 : 					display->CenterOriginInViewport();

	mov	ecx, DWORD PTR _this$[ebp]
	mov	ecx, DWORD PTR [ecx+20]
	call	?CenterOriginInViewport@VirtualDisplay@@QAEXXZ ; VirtualDisplay::CenterOriginInViewport
$LN47@RWSDisplay:

; 1162 : 
; 1163 : 				} 
; 1164 : 			}
; 1165 : 		}

	jmp	$LN51@RWSDisplay
$LN50@RWSDisplay:

; 1166 : 		rdrObj = rdrObj->next;

	mov	edx, DWORD PTR _rdrObj$[ebp]
	mov	eax, DWORD PTR [edx+16]
	mov	DWORD PTR _rdrObj$[ebp], eax

; 1167 : 	}

	jmp	$LN56@RWSDisplay
$LN54@RWSDisplay:

; 1168 : }

	mov	ecx, DWORD PTR __$ArrayPad$[ebp]
	xor	ecx, ebp
	call	@__security_check_cookie@4
	mov	esp, ebp
	pop	ebp
	ret	0
?RWSDisplay@RadarDopplerClass@@IAEXXZ ENDP		; RadarDopplerClass::RWSDisplay
_TEXT	ENDS
; Function compile flags: /Odtp
; File c:\users\zhitao li\documents\visual studio 2012\projects\freefalcon\sim\radar\bscope.cpp
_TEXT	SEGMENT
tv129 = -44						; size = 4
_this$ = -40						; size = 4
_str$ = -36						; size = 32
__$ArrayPad$ = -4					; size = 4
?DrawBars@RadarDopplerClass@@IAEXXZ PROC		; RadarDopplerClass::DrawBars
; _this$ = ecx

; 654  : {

	push	ebp
	mov	ebp, esp
	sub	esp, 44					; 0000002cH
	mov	eax, DWORD PTR ___security_cookie
	xor	eax, ebp
	mov	DWORD PTR __$ArrayPad$[ebp], eax
	mov	DWORD PTR _this$[ebp], ecx

; 655  : 	char str[32];
; 656  : 	if (IsSet(MenuMode|CtlMode)) return; // JPO special modes

	push	3145728					; 00300000H
	mov	ecx, DWORD PTR _this$[ebp]
	call	?IsSet@RadarDopplerClass@@QAEHH@Z	; RadarDopplerClass::IsSet
	test	eax, eax
	je	SHORT $LN2@DrawBars
	jmp	$LN3@DrawBars
$LN2@DrawBars:

; 657  : 	if (IsAADclt(AzBar)) return;

	push	32768					; 00008000H
	mov	ecx, DWORD PTR _this$[ebp]
	call	?IsAADclt@RadarDopplerClass@@IAEHH@Z	; RadarDopplerClass::IsAADclt
	test	eax, eax
	je	SHORT $LN1@DrawBars
	jmp	$LN3@DrawBars
$LN1@DrawBars:

; 658  : 	display->SetColor(GetMfdColor(MFD_LABELS));

	push	0
	mov	ecx, DWORD PTR _this$[ebp]
	call	?GetMfdColor@DrawableClass@@QAEIW4MfdColor@@@Z ; DrawableClass::GetMfdColor
	push	eax
	mov	eax, DWORD PTR _this$[ebp]
	mov	ecx, DWORD PTR [eax+20]
	mov	edx, DWORD PTR _this$[ebp]
	mov	eax, DWORD PTR [ecx]
	mov	ecx, DWORD PTR [edx+20]
	mov	edx, DWORD PTR [eax+92]
	call	edx

; 659  : 	/*----------------*/
; 660  : 	/* number of bars */
; 661  : 	/*----------------*/
; 662  : 	sprintf(str,"%d",(bars > 0 ? bars : -bars));

	mov	eax, DWORD PTR _this$[ebp]
	cmp	DWORD PTR [eax+188], 0
	jle	SHORT $LN5@DrawBars
	mov	ecx, DWORD PTR _this$[ebp]
	mov	edx, DWORD PTR [ecx+188]
	mov	DWORD PTR tv129[ebp], edx
	jmp	SHORT $LN6@DrawBars
$LN5@DrawBars:
	mov	eax, DWORD PTR _this$[ebp]
	mov	ecx, DWORD PTR [eax+188]
	neg	ecx
	mov	DWORD PTR tv129[ebp], ecx
$LN6@DrawBars:
	mov	edx, DWORD PTR tv129[ebp]
	push	edx
	push	OFFSET ??_C@_02DPKJAMEF@?$CFd?$AA@
	lea	eax, DWORD PTR _str$[ebp]
	push	eax
	call	_sprintf
	add	esp, 12					; 0000000cH

; 663  : 	ShiAssert (strlen(str) < sizeof(str));
; 664  : 	LabelButton (16, str, "B"); // JPG 6 Dec 03 LabelButton (16, "B", str);

	push	0
	push	OFFSET ??_C@_01HMGJMAIH@B?$AA@
	lea	ecx, DWORD PTR _str$[ebp]
	push	ecx
	push	16					; 00000010H
	mov	ecx, DWORD PTR _this$[ebp]
	call	?LabelButton@DrawableClass@@QAEXHPAD0H@Z ; DrawableClass::LabelButton

; 665  : 
; 666  : 	/*--------------*/
; 667  : 	/* Azimuth Scan */
; 668  : 	/*--------------*/
; 669  : 	sprintf(str,"%.0f", displayAzScan * 0.1F * RTD);

	mov	edx, DWORD PTR _this$[ebp]
	movss	xmm0, DWORD PTR [edx+216]
	mulss	xmm0, DWORD PTR __real@3dcccccd
	mulss	xmm0, DWORD PTR __real@42652ee1
	cvtss2sd xmm0, xmm0
	sub	esp, 8
	movsd	QWORD PTR [esp], xmm0
	push	OFFSET ??_C@_04GHNNFJCK@?$CF?40f?$AA@
	lea	eax, DWORD PTR _str$[ebp]
	push	eax
	call	_sprintf
	add	esp, 16					; 00000010H

; 670  : 	ShiAssert (strlen(str) < sizeof(str));
; 671  : 	LabelButton (17, "A", str);

	push	0
	lea	ecx, DWORD PTR _str$[ebp]
	push	ecx
	push	OFFSET ??_C@_01FHEEJDEE@A?$AA@
	push	17					; 00000011H
	mov	ecx, DWORD PTR _this$[ebp]
	call	?LabelButton@DrawableClass@@QAEXHPAD0H@Z ; DrawableClass::LabelButton
$LN3@DrawBars:

; 672  : }

	mov	ecx, DWORD PTR __$ArrayPad$[ebp]
	xor	ecx, ebp
	call	@__security_check_cookie@4
	mov	esp, ebp
	pop	ebp
	ret	0
?DrawBars@RadarDopplerClass@@IAEXXZ ENDP		; RadarDopplerClass::DrawBars
_TEXT	ENDS
; Function compile flags: /Odtp
; File c:\users\zhitao li\documents\visual studio 2012\projects\freefalcon\sim\radar\bscope.cpp
_TEXT	SEGMENT
_curSteerpointZ$ = -104					; size = 4
tv949 = -100						; size = 4
tv942 = -96						; size = 4
tv988 = -92						; size = 4
tv990 = -88						; size = 4
tv927 = -84						; size = 4
tv921 = -80						; size = 4
tv986 = -76						; size = 4
tv915 = -72						; size = 4
tv909 = -68						; size = 4
tv713 = -64						; size = 4
tv706 = -60						; size = 4
tv982 = -56						; size = 4
tv984 = -52						; size = 4
tv691 = -48						; size = 4
tv685 = -44						; size = 4
tv980 = -40						; size = 4
tv679 = -36						; size = 4
tv673 = -32						; size = 4
_range$ = -28						; size = 4
_az$ = -24						; size = 4
_curSteerpointY$ = -20					; size = 4
_curSteerpointX$ = -16					; size = 4
_xPos$ = -12						; size = 4
_yPos$ = -8						; size = 4
_this$ = -4						; size = 4
?DrawSteerpoint@RadarDopplerClass@@IAEXXZ PROC		; RadarDopplerClass::DrawSteerpoint
; _this$ = ecx

; 2552 : {

	push	ebp
	mov	ebp, esp
	sub	esp, 104				; 00000068H
	mov	DWORD PTR _this$[ebp], ecx

; 2553 : 	float az, range, xPos, yPos;
; 2554 : 	float curSteerpointX, curSteerpointY, curSteerpointZ;
; 2555 : 
; 2556 : 	if (((SimVehicleClass*)platform)->curWaypoint)

	mov	eax, DWORD PTR _this$[ebp]
	mov	ecx, DWORD PTR [eax+32]
	cmp	DWORD PTR [ecx+728], 0
	je	$LN2@DrawSteerp

; 2557 : 	{
; 2558 : 		((SimVehicleClass*)platform)->curWaypoint->GetLocation (&curSteerpointX, &curSteerpointY, &curSteerpointZ);

	lea	edx, DWORD PTR _curSteerpointZ$[ebp]
	push	edx
	lea	eax, DWORD PTR _curSteerpointY$[ebp]
	push	eax
	lea	ecx, DWORD PTR _curSteerpointX$[ebp]
	push	ecx
	mov	edx, DWORD PTR _this$[ebp]
	mov	eax, DWORD PTR [edx+32]
	mov	ecx, DWORD PTR [eax+728]
	call	?GetLocation@WayPointClass@@QBEXPAM00@Z	; WayPointClass::GetLocation

; 2559 : 		az = TargetAz (platform, curSteerpointX, curSteerpointY);

	push	ecx
	movss	xmm0, DWORD PTR _curSteerpointY$[ebp]
	movss	DWORD PTR [esp], xmm0
	push	ecx
	movss	xmm0, DWORD PTR _curSteerpointX$[ebp]
	movss	DWORD PTR [esp], xmm0
	mov	ecx, DWORD PTR _this$[ebp]
	mov	edx, DWORD PTR [ecx+32]
	push	edx
	call	?TargetAz@@YAMPAVFalconEntity@@MM@Z	; TargetAz
	add	esp, 12					; 0000000cH
	fstp	DWORD PTR _az$[ebp]

; 2560 : 		range = (float)sqrt(
; 2561 : 						(curSteerpointX - platform->XPos()) * (curSteerpointX - platform->XPos()) +
; 2562 : 						(curSteerpointY - platform->YPos()) * (curSteerpointY - platform->YPos()));

	mov	eax, DWORD PTR _this$[ebp]
	mov	ecx, DWORD PTR [eax+32]
	call	?XPos@VuEntity@@QBEMXZ			; VuEntity::XPos
	fstp	DWORD PTR tv673[ebp]
	movss	xmm0, DWORD PTR _curSteerpointX$[ebp]
	subss	xmm0, DWORD PTR tv673[ebp]
	mov	ecx, DWORD PTR _this$[ebp]
	mov	ecx, DWORD PTR [ecx+32]
	movss	DWORD PTR tv980[ebp], xmm0
	call	?XPos@VuEntity@@QBEMXZ			; VuEntity::XPos
	fstp	DWORD PTR tv679[ebp]
	movss	xmm0, DWORD PTR _curSteerpointX$[ebp]
	subss	xmm0, DWORD PTR tv679[ebp]
	movss	xmm1, DWORD PTR tv980[ebp]
	mulss	xmm1, xmm0
	mov	edx, DWORD PTR _this$[ebp]
	mov	ecx, DWORD PTR [edx+32]
	movss	DWORD PTR tv982[ebp], xmm1
	call	?YPos@VuEntity@@QBEMXZ			; VuEntity::YPos
	fstp	DWORD PTR tv685[ebp]
	movss	xmm0, DWORD PTR _curSteerpointY$[ebp]
	subss	xmm0, DWORD PTR tv685[ebp]
	mov	eax, DWORD PTR _this$[ebp]
	mov	ecx, DWORD PTR [eax+32]
	movss	DWORD PTR tv984[ebp], xmm0
	call	?YPos@VuEntity@@QBEMXZ			; VuEntity::YPos
	fstp	DWORD PTR tv691[ebp]
	movss	xmm0, DWORD PTR _curSteerpointY$[ebp]
	subss	xmm0, DWORD PTR tv691[ebp]
	movss	xmm1, DWORD PTR tv984[ebp]
	mulss	xmm1, xmm0
	movss	xmm0, DWORD PTR tv982[ebp]
	addss	xmm0, xmm1
	push	ecx
	movss	DWORD PTR [esp], xmm0
	call	?SqrtSSE@@YAMM@Z			; SqrtSSE
	add	esp, 4
	fstp	DWORD PTR _range$[ebp]

; 2563 : 
; 2564 : 		/*---------------------------------*/
; 2565 : 		/* find x and y location on bscope */
; 2566 : 		/*---------------------------------*/
; 2567 : 		xPos = disDeg*az;

	movss	xmm0, DWORD PTR _disDeg
	mulss	xmm0, DWORD PTR _az$[ebp]
	movss	DWORD PTR _xPos$[ebp], xmm0

; 2568 : 		yPos = -AZL + 2.0F*AZL*(range / tdisplayRange);

	mov	ecx, DWORD PTR _this$[ebp]
	movss	xmm0, DWORD PTR _range$[ebp]
	divss	xmm0, DWORD PTR [ecx+264]
	mulss	xmm0, DWORD PTR __real@40000000
	addss	xmm0, DWORD PTR __real@bf800000
	movss	DWORD PTR _yPos$[ebp], xmm0

; 2569 : 
; 2570 : 		/*----------------------------*/
; 2571 : 		/* keep objects on the screen */
; 2572 : 		/*----------------------------*/
; 2573 : 		if (fabs(xPos) < AZL && fabs(yPos) < AZL)

	push	ecx
	movss	xmm0, DWORD PTR _xPos$[ebp]
	movss	DWORD PTR [esp], xmm0
	call	?fabs@@YAMM@Z				; fabs
	add	esp, 4
	fstp	DWORD PTR tv706[ebp]
	movss	xmm0, DWORD PTR __real@3f800000
	comiss	xmm0, DWORD PTR tv706[ebp]
	jbe	$LN2@DrawSteerp
	push	ecx
	movss	xmm0, DWORD PTR _yPos$[ebp]
	movss	DWORD PTR [esp], xmm0
	call	?fabs@@YAMM@Z				; fabs
	add	esp, 4
	fstp	DWORD PTR tv713[ebp]
	movss	xmm0, DWORD PTR __real@3f800000
	comiss	xmm0, DWORD PTR tv713[ebp]
	jbe	$LN2@DrawSteerp

; 2574 : 		{
; 2575 : 			display->SetColor(GetMfdColor (MFD_CUR_STPT));

	push	1
	mov	ecx, DWORD PTR _this$[ebp]
	call	?GetMfdColor@DrawableClass@@QAEIW4MfdColor@@@Z ; DrawableClass::GetMfdColor
	push	eax
	mov	edx, DWORD PTR _this$[ebp]
	mov	eax, DWORD PTR [edx+20]
	mov	ecx, DWORD PTR _this$[ebp]
	mov	edx, DWORD PTR [eax]
	mov	ecx, DWORD PTR [ecx+20]
	mov	eax, DWORD PTR [edx+92]
	call	eax

; 2576 : 
; 2577 : 			display->AdjustOriginInViewport (xPos, yPos);

	push	ecx
	movss	xmm0, DWORD PTR _yPos$[ebp]
	movss	DWORD PTR [esp], xmm0
	push	ecx
	movss	xmm0, DWORD PTR _xPos$[ebp]
	movss	DWORD PTR [esp], xmm0
	mov	ecx, DWORD PTR _this$[ebp]
	mov	ecx, DWORD PTR [ecx+20]
	call	?AdjustOriginInViewport@VirtualDisplay@@QAEXMM@Z ; VirtualDisplay::AdjustOriginInViewport

; 2578 : 			display->Tri(steerpoint[0][0],  steerpoint[0][1],
; 2579 : 							steerpoint[1][0],  steerpoint[1][1],
; 2580 : 							steerpoint[10][0],  steerpoint[10][1]);

	mov	edx, 8
	imul	edx, 10					; 0000000aH
	mov	eax, 4
	shl	eax, 0
	push	ecx
	movss	xmm0, DWORD PTR _steerpoint[edx+eax]
	movss	DWORD PTR [esp], xmm0
	mov	ecx, 8
	imul	ecx, 10					; 0000000aH
	mov	edx, 4
	imul	edx, 0
	push	ecx
	movss	xmm0, DWORD PTR _steerpoint[ecx+edx]
	movss	DWORD PTR [esp], xmm0
	mov	eax, 8
	shl	eax, 0
	mov	ecx, 4
	shl	ecx, 0
	push	ecx
	movss	xmm0, DWORD PTR _steerpoint[eax+ecx]
	movss	DWORD PTR [esp], xmm0
	mov	edx, 8
	shl	edx, 0
	mov	eax, 4
	imul	eax, 0
	push	ecx
	movss	xmm0, DWORD PTR _steerpoint[edx+eax]
	movss	DWORD PTR [esp], xmm0
	mov	ecx, 8
	imul	ecx, 0
	mov	edx, 4
	shl	edx, 0
	push	ecx
	movss	xmm0, DWORD PTR _steerpoint[ecx+edx]
	movss	DWORD PTR [esp], xmm0
	mov	eax, 8
	imul	eax, 0
	mov	ecx, 4
	imul	ecx, 0
	push	ecx
	movss	xmm0, DWORD PTR _steerpoint[eax+ecx]
	movss	DWORD PTR [esp], xmm0
	mov	edx, DWORD PTR _this$[ebp]
	mov	eax, DWORD PTR [edx+20]
	mov	ecx, DWORD PTR _this$[ebp]
	mov	edx, DWORD PTR [eax]
	mov	ecx, DWORD PTR [ecx+20]
	mov	eax, DWORD PTR [edx+36]
	call	eax

; 2581 : 			display->Tri(steerpoint[0][0],  steerpoint[0][1],
; 2582 : 							steerpoint[11][0],  steerpoint[11][1],
; 2583 : 							steerpoint[10][0],  steerpoint[10][1]);

	mov	ecx, 8
	imul	ecx, 10					; 0000000aH
	mov	edx, 4
	shl	edx, 0
	push	ecx
	movss	xmm0, DWORD PTR _steerpoint[ecx+edx]
	movss	DWORD PTR [esp], xmm0
	mov	eax, 8
	imul	eax, 10					; 0000000aH
	mov	ecx, 4
	imul	ecx, 0
	push	ecx
	movss	xmm0, DWORD PTR _steerpoint[eax+ecx]
	movss	DWORD PTR [esp], xmm0
	mov	edx, 8
	imul	edx, 11					; 0000000bH
	mov	eax, 4
	shl	eax, 0
	push	ecx
	movss	xmm0, DWORD PTR _steerpoint[edx+eax]
	movss	DWORD PTR [esp], xmm0
	mov	ecx, 8
	imul	ecx, 11					; 0000000bH
	mov	edx, 4
	imul	edx, 0
	push	ecx
	movss	xmm0, DWORD PTR _steerpoint[ecx+edx]
	movss	DWORD PTR [esp], xmm0
	mov	eax, 8
	imul	eax, 0
	mov	ecx, 4
	shl	ecx, 0
	push	ecx
	movss	xmm0, DWORD PTR _steerpoint[eax+ecx]
	movss	DWORD PTR [esp], xmm0
	mov	edx, 8
	imul	edx, 0
	mov	eax, 4
	imul	eax, 0
	push	ecx
	movss	xmm0, DWORD PTR _steerpoint[edx+eax]
	movss	DWORD PTR [esp], xmm0
	mov	ecx, DWORD PTR _this$[ebp]
	mov	edx, DWORD PTR [ecx+20]
	mov	eax, DWORD PTR _this$[ebp]
	mov	edx, DWORD PTR [edx]
	mov	ecx, DWORD PTR [eax+20]
	mov	eax, DWORD PTR [edx+36]
	call	eax

; 2584 : 			display->Tri(steerpoint[2][0],  steerpoint[2][1],
; 2585 : 							steerpoint[3][0],  steerpoint[3][1],
; 2586 : 							steerpoint[8][0],  steerpoint[8][1]);

	mov	ecx, 8
	shl	ecx, 3
	mov	edx, 4
	shl	edx, 0
	push	ecx
	movss	xmm0, DWORD PTR _steerpoint[ecx+edx]
	movss	DWORD PTR [esp], xmm0
	mov	eax, 8
	shl	eax, 3
	mov	ecx, 4
	imul	ecx, 0
	push	ecx
	movss	xmm0, DWORD PTR _steerpoint[eax+ecx]
	movss	DWORD PTR [esp], xmm0
	mov	edx, 8
	imul	edx, 3
	mov	eax, 4
	shl	eax, 0
	push	ecx
	movss	xmm0, DWORD PTR _steerpoint[edx+eax]
	movss	DWORD PTR [esp], xmm0
	mov	ecx, 8
	imul	ecx, 3
	mov	edx, 4
	imul	edx, 0
	push	ecx
	movss	xmm0, DWORD PTR _steerpoint[ecx+edx]
	movss	DWORD PTR [esp], xmm0
	mov	eax, 8
	shl	eax, 1
	mov	ecx, 4
	shl	ecx, 0
	push	ecx
	movss	xmm0, DWORD PTR _steerpoint[eax+ecx]
	movss	DWORD PTR [esp], xmm0
	mov	edx, 8
	shl	edx, 1
	mov	eax, 4
	imul	eax, 0
	push	ecx
	movss	xmm0, DWORD PTR _steerpoint[edx+eax]
	movss	DWORD PTR [esp], xmm0
	mov	ecx, DWORD PTR _this$[ebp]
	mov	edx, DWORD PTR [ecx+20]
	mov	eax, DWORD PTR _this$[ebp]
	mov	edx, DWORD PTR [edx]
	mov	ecx, DWORD PTR [eax+20]
	mov	eax, DWORD PTR [edx+36]
	call	eax

; 2587 : 			display->Tri(steerpoint[2][0],  steerpoint[2][1],
; 2588 : 							steerpoint[9][0],  steerpoint[9][1],
; 2589 : 							steerpoint[8][0],  steerpoint[8][1]);

	mov	ecx, 8
	shl	ecx, 3
	mov	edx, 4
	shl	edx, 0
	push	ecx
	movss	xmm0, DWORD PTR _steerpoint[ecx+edx]
	movss	DWORD PTR [esp], xmm0
	mov	eax, 8
	shl	eax, 3
	mov	ecx, 4
	imul	ecx, 0
	push	ecx
	movss	xmm0, DWORD PTR _steerpoint[eax+ecx]
	movss	DWORD PTR [esp], xmm0
	mov	edx, 8
	imul	edx, 9
	mov	eax, 4
	shl	eax, 0
	push	ecx
	movss	xmm0, DWORD PTR _steerpoint[edx+eax]
	movss	DWORD PTR [esp], xmm0
	mov	ecx, 8
	imul	ecx, 9
	mov	edx, 4
	imul	edx, 0
	push	ecx
	movss	xmm0, DWORD PTR _steerpoint[ecx+edx]
	movss	DWORD PTR [esp], xmm0
	mov	eax, 8
	shl	eax, 1
	mov	ecx, 4
	shl	ecx, 0
	push	ecx
	movss	xmm0, DWORD PTR _steerpoint[eax+ecx]
	movss	DWORD PTR [esp], xmm0
	mov	edx, 8
	shl	edx, 1
	mov	eax, 4
	imul	eax, 0
	push	ecx
	movss	xmm0, DWORD PTR _steerpoint[edx+eax]
	movss	DWORD PTR [esp], xmm0
	mov	ecx, DWORD PTR _this$[ebp]
	mov	edx, DWORD PTR [ecx+20]
	mov	eax, DWORD PTR _this$[ebp]
	mov	edx, DWORD PTR [edx]
	mov	ecx, DWORD PTR [eax+20]
	mov	eax, DWORD PTR [edx+36]
	call	eax

; 2590 : 			display->Tri(steerpoint[4][0],  steerpoint[4][1],
; 2591 : 							steerpoint[5][0],  steerpoint[5][1],
; 2592 : 							steerpoint[6][0],  steerpoint[6][1]);

	mov	ecx, 8
	imul	ecx, 6
	mov	edx, 4
	shl	edx, 0
	push	ecx
	movss	xmm0, DWORD PTR _steerpoint[ecx+edx]
	movss	DWORD PTR [esp], xmm0
	mov	eax, 8
	imul	eax, 6
	mov	ecx, 4
	imul	ecx, 0
	push	ecx
	movss	xmm0, DWORD PTR _steerpoint[eax+ecx]
	movss	DWORD PTR [esp], xmm0
	mov	edx, 8
	imul	edx, 5
	mov	eax, 4
	shl	eax, 0
	push	ecx
	movss	xmm0, DWORD PTR _steerpoint[edx+eax]
	movss	DWORD PTR [esp], xmm0
	mov	ecx, 8
	imul	ecx, 5
	mov	edx, 4
	imul	edx, 0
	push	ecx
	movss	xmm0, DWORD PTR _steerpoint[ecx+edx]
	movss	DWORD PTR [esp], xmm0
	mov	eax, 8
	shl	eax, 2
	mov	ecx, 4
	shl	ecx, 0
	push	ecx
	movss	xmm0, DWORD PTR _steerpoint[eax+ecx]
	movss	DWORD PTR [esp], xmm0
	mov	edx, 8
	shl	edx, 2
	mov	eax, 4
	imul	eax, 0
	push	ecx
	movss	xmm0, DWORD PTR _steerpoint[edx+eax]
	movss	DWORD PTR [esp], xmm0
	mov	ecx, DWORD PTR _this$[ebp]
	mov	edx, DWORD PTR [ecx+20]
	mov	eax, DWORD PTR _this$[ebp]
	mov	edx, DWORD PTR [edx]
	mov	ecx, DWORD PTR [eax+20]
	mov	eax, DWORD PTR [edx+36]
	call	eax

; 2593 : 			display->Tri(steerpoint[4][0],  steerpoint[4][1],
; 2594 : 							steerpoint[7][0],  steerpoint[7][1],
; 2595 : 							steerpoint[6][0],  steerpoint[6][1]);

	mov	ecx, 8
	imul	ecx, 6
	mov	edx, 4
	shl	edx, 0
	push	ecx
	movss	xmm0, DWORD PTR _steerpoint[ecx+edx]
	movss	DWORD PTR [esp], xmm0
	mov	eax, 8
	imul	eax, 6
	mov	ecx, 4
	imul	ecx, 0
	push	ecx
	movss	xmm0, DWORD PTR _steerpoint[eax+ecx]
	movss	DWORD PTR [esp], xmm0
	mov	edx, 8
	imul	edx, 7
	mov	eax, 4
	shl	eax, 0
	push	ecx
	movss	xmm0, DWORD PTR _steerpoint[edx+eax]
	movss	DWORD PTR [esp], xmm0
	mov	ecx, 8
	imul	ecx, 7
	mov	edx, 4
	imul	edx, 0
	push	ecx
	movss	xmm0, DWORD PTR _steerpoint[ecx+edx]
	movss	DWORD PTR [esp], xmm0
	mov	eax, 8
	shl	eax, 2
	mov	ecx, 4
	shl	ecx, 0
	push	ecx
	movss	xmm0, DWORD PTR _steerpoint[eax+ecx]
	movss	DWORD PTR [esp], xmm0
	mov	edx, 8
	shl	edx, 2
	mov	eax, 4
	imul	eax, 0
	push	ecx
	movss	xmm0, DWORD PTR _steerpoint[edx+eax]
	movss	DWORD PTR [esp], xmm0
	mov	ecx, DWORD PTR _this$[ebp]
	mov	edx, DWORD PTR [ecx+20]
	mov	eax, DWORD PTR _this$[ebp]
	mov	edx, DWORD PTR [edx]
	mov	ecx, DWORD PTR [eax+20]
	mov	eax, DWORD PTR [edx+36]
	call	eax

; 2596 : 			display->AdjustOriginInViewport (-xPos, -yPos);

	movss	xmm0, DWORD PTR _yPos$[ebp]
	xorps	xmm0, DWORD PTR __xmm@80000000800000008000000080000000
	push	ecx
	movss	DWORD PTR [esp], xmm0
	movss	xmm0, DWORD PTR _xPos$[ebp]
	xorps	xmm0, DWORD PTR __xmm@80000000800000008000000080000000
	push	ecx
	movss	DWORD PTR [esp], xmm0
	mov	ecx, DWORD PTR _this$[ebp]
	mov	ecx, DWORD PTR [ecx+20]
	call	?AdjustOriginInViewport@VirtualDisplay@@QAEXMM@Z ; VirtualDisplay::AdjustOriginInViewport
$LN2@DrawSteerp:

; 2597 : 		}
; 2598 : 	}
; 2599 : 	display->SetColor (GetMfdColor(MFD_BULLSEYE));

	push	4
	mov	ecx, DWORD PTR _this$[ebp]
	call	?GetMfdColor@DrawableClass@@QAEIW4MfdColor@@@Z ; DrawableClass::GetMfdColor
	push	eax
	mov	edx, DWORD PTR _this$[ebp]
	mov	eax, DWORD PTR [edx+20]
	mov	ecx, DWORD PTR _this$[ebp]
	mov	edx, DWORD PTR [eax]
	mov	ecx, DWORD PTR [ecx+20]
	mov	eax, DWORD PTR [edx+92]
	call	eax

; 2600 : 	// Add the bullseye
; 2601 : 	TheCampaign.GetBullseyeSimLocation (&xPos, &yPos);

	lea	ecx, DWORD PTR _yPos$[ebp]
	push	ecx
	lea	edx, DWORD PTR _xPos$[ebp]
	push	edx
	mov	ecx, OFFSET ?TheCampaign@@3VCampaignClass@@A ; TheCampaign
	call	?GetBullseyeSimLocation@CampaignClass@@QAEXPAM0@Z ; CampaignClass::GetBullseyeSimLocation

; 2602 : 	az = TargetAz (platform, xPos, yPos);

	push	ecx
	movss	xmm0, DWORD PTR _yPos$[ebp]
	movss	DWORD PTR [esp], xmm0
	push	ecx
	movss	xmm0, DWORD PTR _xPos$[ebp]
	movss	DWORD PTR [esp], xmm0
	mov	eax, DWORD PTR _this$[ebp]
	mov	ecx, DWORD PTR [eax+32]
	push	ecx
	call	?TargetAz@@YAMPAVFalconEntity@@MM@Z	; TargetAz
	add	esp, 12					; 0000000cH
	fstp	DWORD PTR _az$[ebp]

; 2603 : 	range = (float)sqrt(
; 2604 : 					(xPos - platform->XPos()) * (xPos - platform->XPos()) +
; 2605 : 					(yPos - platform->YPos()) * (yPos - platform->YPos()));

	mov	edx, DWORD PTR _this$[ebp]
	mov	ecx, DWORD PTR [edx+32]
	call	?XPos@VuEntity@@QBEMXZ			; VuEntity::XPos
	fstp	DWORD PTR tv909[ebp]
	movss	xmm0, DWORD PTR _xPos$[ebp]
	subss	xmm0, DWORD PTR tv909[ebp]
	mov	eax, DWORD PTR _this$[ebp]
	mov	ecx, DWORD PTR [eax+32]
	movss	DWORD PTR tv986[ebp], xmm0
	call	?XPos@VuEntity@@QBEMXZ			; VuEntity::XPos
	fstp	DWORD PTR tv915[ebp]
	movss	xmm0, DWORD PTR _xPos$[ebp]
	subss	xmm0, DWORD PTR tv915[ebp]
	movss	xmm1, DWORD PTR tv986[ebp]
	mulss	xmm1, xmm0
	mov	ecx, DWORD PTR _this$[ebp]
	mov	ecx, DWORD PTR [ecx+32]
	movss	DWORD PTR tv988[ebp], xmm1
	call	?YPos@VuEntity@@QBEMXZ			; VuEntity::YPos
	fstp	DWORD PTR tv921[ebp]
	movss	xmm0, DWORD PTR _yPos$[ebp]
	subss	xmm0, DWORD PTR tv921[ebp]
	mov	edx, DWORD PTR _this$[ebp]
	mov	ecx, DWORD PTR [edx+32]
	movss	DWORD PTR tv990[ebp], xmm0
	call	?YPos@VuEntity@@QBEMXZ			; VuEntity::YPos
	fstp	DWORD PTR tv927[ebp]
	movss	xmm0, DWORD PTR _yPos$[ebp]
	subss	xmm0, DWORD PTR tv927[ebp]
	movss	xmm1, DWORD PTR tv990[ebp]
	mulss	xmm1, xmm0
	movss	xmm0, DWORD PTR tv988[ebp]
	addss	xmm0, xmm1
	push	ecx
	movss	DWORD PTR [esp], xmm0
	call	?SqrtSSE@@YAMM@Z			; SqrtSSE
	add	esp, 4
	fstp	DWORD PTR _range$[ebp]

; 2606 : 
; 2607 : 	/*---------------------------------*/
; 2608 : 	/* find x and y location on bscope */
; 2609 : 	/*---------------------------------*/
; 2610 : 	xPos = disDeg*az;

	movss	xmm0, DWORD PTR _disDeg
	mulss	xmm0, DWORD PTR _az$[ebp]
	movss	DWORD PTR _xPos$[ebp], xmm0

; 2611 : 	yPos = -AZL + 2.0F*AZL*(range / tdisplayRange);

	mov	eax, DWORD PTR _this$[ebp]
	movss	xmm0, DWORD PTR _range$[ebp]
	divss	xmm0, DWORD PTR [eax+264]
	mulss	xmm0, DWORD PTR __real@40000000
	addss	xmm0, DWORD PTR __real@bf800000
	movss	DWORD PTR _yPos$[ebp], xmm0

; 2612 : 
; 2613 : 	/*----------------------------*/
; 2614 : 	/* keep objects on the screen */
; 2615 : 	/*----------------------------*/
; 2616 : 	if (fabs(xPos) < AZL && fabs(yPos) < AZL)

	push	ecx
	movss	xmm0, DWORD PTR _xPos$[ebp]
	movss	DWORD PTR [esp], xmm0
	call	?fabs@@YAMM@Z				; fabs
	add	esp, 4
	fstp	DWORD PTR tv942[ebp]
	movss	xmm0, DWORD PTR __real@3f800000
	comiss	xmm0, DWORD PTR tv942[ebp]
	jbe	$LN1@DrawSteerp
	push	ecx
	movss	xmm0, DWORD PTR _yPos$[ebp]
	movss	DWORD PTR [esp], xmm0
	call	?fabs@@YAMM@Z				; fabs
	add	esp, 4
	fstp	DWORD PTR tv949[ebp]
	movss	xmm0, DWORD PTR __real@3f800000
	comiss	xmm0, DWORD PTR tv949[ebp]
	jbe	$LN1@DrawSteerp

; 2617 : 	{
; 2618 : 		// Possible CATA Circle
; 2619 : 		display->Circle (xPos, yPos, 0.07F);

	push	ecx
	movss	xmm0, DWORD PTR __real@3d8f5c29
	movss	DWORD PTR [esp], xmm0
	push	ecx
	movss	xmm0, DWORD PTR _yPos$[ebp]
	movss	DWORD PTR [esp], xmm0
	push	ecx
	movss	xmm0, DWORD PTR _xPos$[ebp]
	movss	DWORD PTR [esp], xmm0
	mov	ecx, DWORD PTR _this$[ebp]
	mov	edx, DWORD PTR [ecx+20]
	mov	eax, DWORD PTR _this$[ebp]
	mov	edx, DWORD PTR [edx]
	mov	ecx, DWORD PTR [eax+20]
	mov	eax, DWORD PTR [edx+48]
	call	eax

; 2620 : 		display->Circle (xPos, yPos, 0.04F);

	push	ecx
	movss	xmm0, DWORD PTR __real@3d23d70a
	movss	DWORD PTR [esp], xmm0
	push	ecx
	movss	xmm0, DWORD PTR _yPos$[ebp]
	movss	DWORD PTR [esp], xmm0
	push	ecx
	movss	xmm0, DWORD PTR _xPos$[ebp]
	movss	DWORD PTR [esp], xmm0
	mov	ecx, DWORD PTR _this$[ebp]
	mov	edx, DWORD PTR [ecx+20]
	mov	eax, DWORD PTR _this$[ebp]
	mov	edx, DWORD PTR [edx]
	mov	ecx, DWORD PTR [eax+20]
	mov	eax, DWORD PTR [edx+48]
	call	eax

; 2621 : 		display->Circle (xPos, yPos, 0.01F);

	push	ecx
	movss	xmm0, DWORD PTR __real@3c23d70a
	movss	DWORD PTR [esp], xmm0
	push	ecx
	movss	xmm0, DWORD PTR _yPos$[ebp]
	movss	DWORD PTR [esp], xmm0
	push	ecx
	movss	xmm0, DWORD PTR _xPos$[ebp]
	movss	DWORD PTR [esp], xmm0
	mov	ecx, DWORD PTR _this$[ebp]
	mov	edx, DWORD PTR [ecx+20]
	mov	eax, DWORD PTR _this$[ebp]
	mov	edx, DWORD PTR [edx]
	mov	ecx, DWORD PTR [eax+20]
	mov	eax, DWORD PTR [edx+48]
	call	eax
$LN1@DrawSteerp:

; 2622 : 	}
; 2623 : }

	mov	esp, ebp
	pop	ebp
	ret	0
?DrawSteerpoint@RadarDopplerClass@@IAEXXZ ENDP		; RadarDopplerClass::DrawSteerpoint
_TEXT	ENDS
; Function compile flags: /Odtp
; File c:\users\zhitao li\documents\visual studio 2012\projects\freefalcon\sim\radar\bscope.cpp
_TEXT	SEGMENT
tv367 = -64						; size = 8
_dy$ = -56						; size = 4
tv352 = -52						; size = 4
tv358 = -48						; size = 4
tv382 = -44						; size = 4
tv346 = -40						; size = 4
tv372 = -36						; size = 4
tv471 = -32						; size = 4
_dx$ = -28						; size = 4
_xPos$ = -24						; size = 4
_this$ = -20						; size = 4
_collPoint$ = -16					; size = 12
__$ArrayPad$ = -4					; size = 4
_buggedTarget$ = 8					; size = 4
_curX$ = 12						; size = 4
?DrawCollisionSteering@RadarDopplerClass@@IAEXPAVSimObjectType@@M@Z PROC ; RadarDopplerClass::DrawCollisionSteering
; _this$ = ecx

; 2492 : {

	push	ebp
	mov	ebp, esp
	sub	esp, 64					; 00000040H
	mov	eax, DWORD PTR ___security_cookie
	xor	eax, ebp
	mov	DWORD PTR __$ArrayPad$[ebp], eax
	mov	DWORD PTR _this$[ebp], ecx

; 2493 : 	float   dx, dy, xPos = 0.0F;

	movss	xmm0, DWORD PTR __real@00000000
	movss	DWORD PTR _xPos$[ebp], xmm0

; 2494 : 	vector  collPoint;
; 2495 : 
; 2496 : 	if (!buggedTarget || !buggedTarget->BaseData()->IsSim())

	cmp	DWORD PTR _buggedTarget$[ebp], 0
	je	SHORT $LN9@DrawCollis
	mov	ecx, DWORD PTR _buggedTarget$[ebp]
	call	?BaseData@SimObjectType@@QAEPAVFalconEntity@@XZ ; SimObjectType::BaseData
	mov	ecx, eax
	call	?IsSim@FalconEntity@@QAEHXZ		; FalconEntity::IsSim
	test	eax, eax
	jne	SHORT $LN10@DrawCollis
$LN9@DrawCollis:

; 2497 : 		return;

	jmp	$LN11@DrawCollis
$LN10@DrawCollis:

; 2498 : 	if (IsAADclt(AttackStr)) return;

	push	64					; 00000040H
	mov	ecx, DWORD PTR _this$[ebp]
	call	?IsAADclt@RadarDopplerClass@@IAEHH@Z	; RadarDopplerClass::IsAADclt
	test	eax, eax
	je	SHORT $LN8@DrawCollis
	jmp	$LN11@DrawCollis
$LN8@DrawCollis:

; 2499 : 
; 2500 : 	if (FindCollisionPoint ((SimBaseClass*)buggedTarget->BaseData(), platform, &collPoint))

	push	ecx
	movss	xmm0, DWORD PTR __real@00000000
	movss	DWORD PTR [esp], xmm0
	lea	eax, DWORD PTR _collPoint$[ebp]
	push	eax
	mov	ecx, DWORD PTR _this$[ebp]
	mov	edx, DWORD PTR [ecx+32]
	push	edx
	mov	ecx, DWORD PTR _buggedTarget$[ebp]
	call	?BaseData@SimObjectType@@QAEPAVFalconEntity@@XZ ; SimObjectType::BaseData
	push	eax
	call	?FindCollisionPoint@@YAHPAVSimBaseClass@@0PAUvector@@M@Z ; FindCollisionPoint
	add	esp, 16					; 00000010H
	test	eax, eax
	je	$LN4@DrawCollis

; 2501 : 	{// me123 status ok. Looks like collision point is returned in World Coords.  We need to
; 2502 : 		// make it relative to ownship so subtract out ownship pos 1st....
; 2503 : 
; 2504 : 		//me123 addet next three lines
; 2505 : 		collPoint.x -= platform->XPos();

	mov	eax, DWORD PTR _this$[ebp]
	mov	ecx, DWORD PTR [eax+32]
	call	?XPos@VuEntity@@QBEMXZ			; VuEntity::XPos
	fstp	DWORD PTR tv346[ebp]
	movss	xmm0, DWORD PTR _collPoint$[ebp]
	subss	xmm0, DWORD PTR tv346[ebp]
	movss	DWORD PTR _collPoint$[ebp], xmm0

; 2506 : 		collPoint.y -= platform->YPos();

	mov	ecx, DWORD PTR _this$[ebp]
	mov	ecx, DWORD PTR [ecx+32]
	call	?YPos@VuEntity@@QBEMXZ			; VuEntity::YPos
	fstp	DWORD PTR tv352[ebp]
	movss	xmm0, DWORD PTR _collPoint$[ebp+4]
	subss	xmm0, DWORD PTR tv352[ebp]
	movss	DWORD PTR _collPoint$[ebp+4], xmm0

; 2507 : 		collPoint.z -= platform->ZPos();

	mov	edx, DWORD PTR _this$[ebp]
	mov	ecx, DWORD PTR [edx+32]
	call	?ZPos@VuEntity@@QBEMXZ			; VuEntity::ZPos
	fstp	DWORD PTR tv358[ebp]
	movss	xmm0, DWORD PTR _collPoint$[ebp+8]
	subss	xmm0, DWORD PTR tv358[ebp]
	movss	DWORD PTR _collPoint$[ebp+8], xmm0

; 2508 : 
; 2509 : 		dx = collPoint.x;

	movss	xmm0, DWORD PTR _collPoint$[ebp]
	movss	DWORD PTR _dx$[ebp], xmm0

; 2510 : 		dy = collPoint.y;

	movss	xmm0, DWORD PTR _collPoint$[ebp+4]
	movss	DWORD PTR _dy$[ebp], xmm0

; 2511 : 
; 2512 : 
; 2513 : 
; 2514 : 		xPos = (float)atan2 (dy,dx) - platform->Yaw();

	cvtss2sd xmm0, DWORD PTR _dx$[ebp]
	sub	esp, 8
	movsd	QWORD PTR [esp], xmm0
	cvtss2sd xmm0, DWORD PTR _dy$[ebp]
	sub	esp, 8
	movsd	QWORD PTR [esp], xmm0
	call	?checked_atan2@@YANNN@Z			; checked_atan2
	add	esp, 16					; 00000010H
	fstp	QWORD PTR tv367[ebp]
	movsd	xmm0, QWORD PTR tv367[ebp]
	cvtsd2ss xmm0, xmm0
	mov	eax, DWORD PTR _this$[ebp]
	mov	ecx, DWORD PTR [eax+32]
	movss	DWORD PTR tv471[ebp], xmm0
	call	?Yaw@VuEntity@@QBEMXZ			; VuEntity::Yaw
	fstp	DWORD PTR tv372[ebp]
	movss	xmm0, DWORD PTR tv471[ebp]
	subss	xmm0, DWORD PTR tv372[ebp]
	movss	DWORD PTR _xPos$[ebp], xmm0

; 2515 : 
; 2516 : 		if (xPos > (180.0F * DTR))

	movss	xmm0, DWORD PTR _xPos$[ebp]
	comiss	xmm0, DWORD PTR __real@40490fd9
	jbe	SHORT $LN6@DrawCollis

; 2517 : 			xPos -= 360.0F * DTR;

	movss	xmm0, DWORD PTR _xPos$[ebp]
	subss	xmm0, DWORD PTR __real@40c90fd9
	movss	DWORD PTR _xPos$[ebp], xmm0
	jmp	SHORT $LN4@DrawCollis
$LN6@DrawCollis:

; 2518 : 		else if (xPos < (-180.0F * DTR))

	movss	xmm0, DWORD PTR __real@c0490fd9
	comiss	xmm0, DWORD PTR _xPos$[ebp]
	jbe	SHORT $LN4@DrawCollis

; 2519 : 			xPos += 360.0F * DTR;

	movss	xmm0, DWORD PTR _xPos$[ebp]
	addss	xmm0, DWORD PTR __real@40c90fd9
	movss	DWORD PTR _xPos$[ebp], xmm0
$LN4@DrawCollis:

; 2520 : 	}
; 2521 : 
; 2522 : 	/*---------------------------*/
; 2523 : 	/* steering point screen x,y */
; 2524 : 	/*---------------------------*/
; 2525 : 	if (fabs(xPos) < (60.0F * DTR))

	push	ecx
	movss	xmm0, DWORD PTR _xPos$[ebp]
	movss	DWORD PTR [esp], xmm0
	call	?fabs@@YAMM@Z				; fabs
	add	esp, 4
	fstp	DWORD PTR tv382[ebp]
	movss	xmm0, DWORD PTR __real@3f860a91
	comiss	xmm0, DWORD PTR tv382[ebp]
	jbe	$LN3@DrawCollis

; 2526 : 	{
; 2527 : 		xPos = xPos / (60.0F * DTR);

	movss	xmm0, DWORD PTR _xPos$[ebp]
	divss	xmm0, DWORD PTR __real@3f860a91
	movss	DWORD PTR _xPos$[ebp], xmm0

; 2528 : 		xPos -= curX;

	movss	xmm0, DWORD PTR _xPos$[ebp]
	subss	xmm0, DWORD PTR _curX$[ebp]
	movss	DWORD PTR _xPos$[ebp], xmm0

; 2529 : 
; 2530 : 		/*-------------*/
; 2531 : 		/* draw symbol */
; 2532 : 		/*-------------*/
; 2533 : 		display->SetColor(GetMfdColor (MFD_ATTACK_STEERING_CUE));

	push	1
	mov	ecx, DWORD PTR _this$[ebp]
	call	?GetMfdColor@DrawableClass@@QAEIW4MfdColor@@@Z ; DrawableClass::GetMfdColor
	push	eax
	mov	ecx, DWORD PTR _this$[ebp]
	mov	edx, DWORD PTR [ecx+20]
	mov	eax, DWORD PTR _this$[ebp]
	mov	edx, DWORD PTR [edx]
	mov	ecx, DWORD PTR [eax+20]
	mov	eax, DWORD PTR [edx+92]
	call	eax

; 2534 : 		display->AdjustOriginInViewport(xPos, 0.0F);

	push	ecx
	movss	xmm0, DWORD PTR __real@00000000
	movss	DWORD PTR [esp], xmm0
	push	ecx
	movss	xmm0, DWORD PTR _xPos$[ebp]
	movss	DWORD PTR [esp], xmm0
	mov	ecx, DWORD PTR _this$[ebp]
	mov	ecx, DWORD PTR [ecx+20]
	call	?AdjustOriginInViewport@VirtualDisplay@@QAEXMM@Z ; VirtualDisplay::AdjustOriginInViewport

; 2535 : 		if (g_bRealisticAvionics) { // draw maltese cross

	movzx	edx, BYTE PTR ?g_bRealisticAvionics@@3_NA ; g_bRealisticAvionics
	test	edx, edx
	je	$LN2@DrawCollis

; 2536 : 			static const float MaxPos = 0.045f;
; 2537 : 			static const float MinPos = 0.015f;
; 2538 : 			static const float OverLap = 0.0075f;
; 2539 : 			display->Tri(-MinPos, -MaxPos,  MinPos, -MaxPos, 0, OverLap); // triangle one down

	push	ecx
	movss	xmm0, DWORD PTR ?OverLap@?BE@??DrawCollisionSteering@RadarDopplerClass@@IAEXPAVSimObjectType@@M@Z@4MB
	movss	DWORD PTR [esp], xmm0
	push	ecx
	movss	xmm0, DWORD PTR __real@00000000
	movss	DWORD PTR [esp], xmm0
	movss	xmm0, DWORD PTR ?MaxPos@?BE@??DrawCollisionSteering@RadarDopplerClass@@IAEXPAVSimObjectType@@M@Z@4MB
	xorps	xmm0, DWORD PTR __xmm@80000000800000008000000080000000
	push	ecx
	movss	DWORD PTR [esp], xmm0
	push	ecx
	movss	xmm0, DWORD PTR ?MinPos@?BE@??DrawCollisionSteering@RadarDopplerClass@@IAEXPAVSimObjectType@@M@Z@4MB
	movss	DWORD PTR [esp], xmm0
	movss	xmm0, DWORD PTR ?MaxPos@?BE@??DrawCollisionSteering@RadarDopplerClass@@IAEXPAVSimObjectType@@M@Z@4MB
	xorps	xmm0, DWORD PTR __xmm@80000000800000008000000080000000
	push	ecx
	movss	DWORD PTR [esp], xmm0
	movss	xmm0, DWORD PTR ?MinPos@?BE@??DrawCollisionSteering@RadarDopplerClass@@IAEXPAVSimObjectType@@M@Z@4MB
	xorps	xmm0, DWORD PTR __xmm@80000000800000008000000080000000
	push	ecx
	movss	DWORD PTR [esp], xmm0
	mov	eax, DWORD PTR _this$[ebp]
	mov	ecx, DWORD PTR [eax+20]
	mov	edx, DWORD PTR _this$[ebp]
	mov	eax, DWORD PTR [ecx]
	mov	ecx, DWORD PTR [edx+20]
	mov	edx, DWORD PTR [eax+36]
	call	edx

; 2540 : 			display->Tri(-MinPos,  MaxPos,  MinPos,  MaxPos, 0, -OverLap); // triangle two up

	movss	xmm0, DWORD PTR ?OverLap@?BE@??DrawCollisionSteering@RadarDopplerClass@@IAEXPAVSimObjectType@@M@Z@4MB
	xorps	xmm0, DWORD PTR __xmm@80000000800000008000000080000000
	push	ecx
	movss	DWORD PTR [esp], xmm0
	push	ecx
	movss	xmm0, DWORD PTR __real@00000000
	movss	DWORD PTR [esp], xmm0
	push	ecx
	movss	xmm0, DWORD PTR ?MaxPos@?BE@??DrawCollisionSteering@RadarDopplerClass@@IAEXPAVSimObjectType@@M@Z@4MB
	movss	DWORD PTR [esp], xmm0
	push	ecx
	movss	xmm0, DWORD PTR ?MinPos@?BE@??DrawCollisionSteering@RadarDopplerClass@@IAEXPAVSimObjectType@@M@Z@4MB
	movss	DWORD PTR [esp], xmm0
	push	ecx
	movss	xmm0, DWORD PTR ?MaxPos@?BE@??DrawCollisionSteering@RadarDopplerClass@@IAEXPAVSimObjectType@@M@Z@4MB
	movss	DWORD PTR [esp], xmm0
	movss	xmm0, DWORD PTR ?MinPos@?BE@??DrawCollisionSteering@RadarDopplerClass@@IAEXPAVSimObjectType@@M@Z@4MB
	xorps	xmm0, DWORD PTR __xmm@80000000800000008000000080000000
	push	ecx
	movss	DWORD PTR [esp], xmm0
	mov	eax, DWORD PTR _this$[ebp]
	mov	ecx, DWORD PTR [eax+20]
	mov	edx, DWORD PTR _this$[ebp]
	mov	eax, DWORD PTR [ecx]
	mov	ecx, DWORD PTR [edx+20]
	mov	edx, DWORD PTR [eax+36]
	call	edx

; 2541 : 			display->Tri(-MaxPos, -MinPos, -MaxPos,  MinPos, OverLap, 0); // triangle three left

	push	ecx
	movss	xmm0, DWORD PTR __real@00000000
	movss	DWORD PTR [esp], xmm0
	push	ecx
	movss	xmm0, DWORD PTR ?OverLap@?BE@??DrawCollisionSteering@RadarDopplerClass@@IAEXPAVSimObjectType@@M@Z@4MB
	movss	DWORD PTR [esp], xmm0
	push	ecx
	movss	xmm0, DWORD PTR ?MinPos@?BE@??DrawCollisionSteering@RadarDopplerClass@@IAEXPAVSimObjectType@@M@Z@4MB
	movss	DWORD PTR [esp], xmm0
	movss	xmm0, DWORD PTR ?MaxPos@?BE@??DrawCollisionSteering@RadarDopplerClass@@IAEXPAVSimObjectType@@M@Z@4MB
	xorps	xmm0, DWORD PTR __xmm@80000000800000008000000080000000
	push	ecx
	movss	DWORD PTR [esp], xmm0
	movss	xmm0, DWORD PTR ?MinPos@?BE@??DrawCollisionSteering@RadarDopplerClass@@IAEXPAVSimObjectType@@M@Z@4MB
	xorps	xmm0, DWORD PTR __xmm@80000000800000008000000080000000
	push	ecx
	movss	DWORD PTR [esp], xmm0
	movss	xmm0, DWORD PTR ?MaxPos@?BE@??DrawCollisionSteering@RadarDopplerClass@@IAEXPAVSimObjectType@@M@Z@4MB
	xorps	xmm0, DWORD PTR __xmm@80000000800000008000000080000000
	push	ecx
	movss	DWORD PTR [esp], xmm0
	mov	eax, DWORD PTR _this$[ebp]
	mov	ecx, DWORD PTR [eax+20]
	mov	edx, DWORD PTR _this$[ebp]
	mov	eax, DWORD PTR [ecx]
	mov	ecx, DWORD PTR [edx+20]
	mov	edx, DWORD PTR [eax+36]
	call	edx

; 2542 : 			display->Tri( MaxPos, -MinPos,  MaxPos,  MinPos, -OverLap, 0); // triangle four right

	push	ecx
	movss	xmm0, DWORD PTR __real@00000000
	movss	DWORD PTR [esp], xmm0
	movss	xmm0, DWORD PTR ?OverLap@?BE@??DrawCollisionSteering@RadarDopplerClass@@IAEXPAVSimObjectType@@M@Z@4MB
	xorps	xmm0, DWORD PTR __xmm@80000000800000008000000080000000
	push	ecx
	movss	DWORD PTR [esp], xmm0
	push	ecx
	movss	xmm0, DWORD PTR ?MinPos@?BE@??DrawCollisionSteering@RadarDopplerClass@@IAEXPAVSimObjectType@@M@Z@4MB
	movss	DWORD PTR [esp], xmm0
	push	ecx
	movss	xmm0, DWORD PTR ?MaxPos@?BE@??DrawCollisionSteering@RadarDopplerClass@@IAEXPAVSimObjectType@@M@Z@4MB
	movss	DWORD PTR [esp], xmm0
	movss	xmm0, DWORD PTR ?MinPos@?BE@??DrawCollisionSteering@RadarDopplerClass@@IAEXPAVSimObjectType@@M@Z@4MB
	xorps	xmm0, DWORD PTR __xmm@80000000800000008000000080000000
	push	ecx
	movss	DWORD PTR [esp], xmm0
	push	ecx
	movss	xmm0, DWORD PTR ?MaxPos@?BE@??DrawCollisionSteering@RadarDopplerClass@@IAEXPAVSimObjectType@@M@Z@4MB
	movss	DWORD PTR [esp], xmm0
	mov	eax, DWORD PTR _this$[ebp]
	mov	ecx, DWORD PTR [eax+20]
	mov	edx, DWORD PTR _this$[ebp]
	mov	eax, DWORD PTR [ecx]
	mov	ecx, DWORD PTR [edx+20]
	mov	edx, DWORD PTR [eax+36]
	call	edx

; 2543 : 		} else

	jmp	SHORT $LN1@DrawCollis
$LN2@DrawCollis:

; 2544 : 		{
; 2545 : 			display->Circle(0.0F, 0.0F, 0.03F);

	push	ecx
	movss	xmm0, DWORD PTR __real@3cf5c28f
	movss	DWORD PTR [esp], xmm0
	push	ecx
	movss	xmm0, DWORD PTR __real@00000000
	movss	DWORD PTR [esp], xmm0
	push	ecx
	movss	xmm0, DWORD PTR __real@00000000
	movss	DWORD PTR [esp], xmm0
	mov	eax, DWORD PTR _this$[ebp]
	mov	ecx, DWORD PTR [eax+20]
	mov	edx, DWORD PTR _this$[ebp]
	mov	eax, DWORD PTR [ecx]
	mov	ecx, DWORD PTR [edx+20]
	mov	edx, DWORD PTR [eax+48]
	call	edx
$LN1@DrawCollis:

; 2546 : 		}
; 2547 : 		display->AdjustOriginInViewport(-xPos, 0.0F);

	push	ecx
	movss	xmm0, DWORD PTR __real@00000000
	movss	DWORD PTR [esp], xmm0
	movss	xmm0, DWORD PTR _xPos$[ebp]
	xorps	xmm0, DWORD PTR __xmm@80000000800000008000000080000000
	push	ecx
	movss	DWORD PTR [esp], xmm0
	mov	eax, DWORD PTR _this$[ebp]
	mov	ecx, DWORD PTR [eax+20]
	call	?AdjustOriginInViewport@VirtualDisplay@@QAEXMM@Z ; VirtualDisplay::AdjustOriginInViewport
$LN3@DrawCollis:
$LN11@DrawCollis:

; 2548 : 	}
; 2549 : }

	mov	ecx, DWORD PTR __$ArrayPad$[ebp]
	xor	ecx, ebp
	call	@__security_check_cookie@4
	mov	esp, ebp
	pop	ebp
	ret	8
?DrawCollisionSteering@RadarDopplerClass@@IAEXPAVSimObjectType@@M@Z ENDP ; RadarDopplerClass::DrawCollisionSteering
_TEXT	ENDS
; Function compile flags: /Odtp
; File c:\users\zhitao li\documents\visual studio 2012\projects\freefalcon\sim\radar\bscope.cpp
_TEXT	SEGMENT
tv876 = -112						; size = 8
_tmpColor$ = -104					; size = 4
_pFCC$ = -100						; size = 4
_tempcolor$1 = -96					; size = 4
tv854 = -92						; size = 4
tv1151 = -88						; size = 4
tv1221 = -84						; size = 4
_height$ = -80						; size = 4
_tempcolor$2 = -76					; size = 4
tv860 = -72						; size = 4
tv1189 = -68						; size = 4
_theta$ = -64						; size = 4
_z$ = -60						; size = 4
tv190 = -56						; size = 4
tv197 = -52						; size = 4
tv191 = -48						; size = 4
tv196 = -44						; size = 4
tv163 = -40						; size = 4
tv193 = -36						; size = 4
tv187 = -32						; size = 4
_ang$ = -28						; size = 4
_up$ = -24						; size = 4
_lw$ = -20						; size = 4
_this$ = -16						; size = 4
_str$ = -12						; size = 8
__$ArrayPad$ = -4					; size = 4
?DrawSlewCursor@RadarDopplerClass@@IAEXXZ PROC		; RadarDopplerClass::DrawSlewCursor
; _this$ = ecx

; 2160 : {

	push	ebp
	mov	ebp, esp
	sub	esp, 112				; 00000070H
	mov	eax, DWORD PTR ___security_cookie
	xor	eax, ebp
	mov	DWORD PTR __$ArrayPad$[ebp], eax
	mov	DWORD PTR _this$[ebp], ecx

; 2161 : 	float  up,lw,z,ang,height,theta;
; 2162 : 	char   str[8];
; 2163 : 	FireControlComputer* pFCC = ((SimVehicleClass*)platform)->GetFCC();//me123 addet for ccip/DTOSS ground ranging check

	mov	eax, DWORD PTR _this$[ebp]
	mov	ecx, DWORD PTR [eax+32]
	mov	edx, DWORD PTR _this$[ebp]
	mov	eax, DWORD PTR [ecx]
	mov	ecx, DWORD PTR [edx+32]
	mov	edx, DWORD PTR [eax+460]
	call	edx
	mov	DWORD PTR _pFCC$[ebp], eax

; 2164 : 	int tmpColor = display->Color();

	mov	eax, DWORD PTR _this$[ebp]
	mov	ecx, DWORD PTR [eax+20]
	mov	edx, DWORD PTR _this$[ebp]
	mov	eax, DWORD PTR [ecx]
	mov	ecx, DWORD PTR [edx+20]
	mov	edx, DWORD PTR [eax+108]
	call	edx
	mov	DWORD PTR _tmpColor$[ebp], eax

; 2165 : 
; 2166 : 	up = lw = 0.0F;

	movss	xmm0, DWORD PTR __real@00000000
	movss	DWORD PTR _lw$[ebp], xmm0
	movss	xmm0, DWORD PTR _lw$[ebp]
	movss	DWORD PTR _up$[ebp], xmm0

; 2167 : 
; 2168 : 	ang = seekerElCenter;

	mov	eax, DWORD PTR _this$[ebp]
	movss	xmm0, DWORD PTR [eax+60]
	movss	DWORD PTR _ang$[ebp], xmm0

; 2169 : 	theta  = platform->Pitch();

	mov	ecx, DWORD PTR _this$[ebp]
	mov	ecx, DWORD PTR [ecx+32]
	call	?Pitch@VuEntity@@QBEMXZ			; VuEntity::Pitch
	fstp	DWORD PTR _theta$[ebp]

; 2170 : 	ang += theta;

	movss	xmm0, DWORD PTR _ang$[ebp]
	addss	xmm0, DWORD PTR _theta$[ebp]
	movss	DWORD PTR _ang$[ebp], xmm0

; 2171 : 
; 2172 : 	/* altitude of the scan center above ground */
; 2173 : 	scanCenterAlt = -platform->ZPos() + 5.0F * NM_TO_FT * (float)sin(ang);

	mov	edx, DWORD PTR _this$[ebp]
	mov	ecx, DWORD PTR [edx+32]
	call	?ZPos@VuEntity@@QBEMXZ			; VuEntity::ZPos
	fstp	DWORD PTR tv854[ebp]
	movss	xmm0, DWORD PTR tv854[ebp]
	xorps	xmm0, DWORD PTR __xmm@80000000800000008000000080000000
	push	ecx
	movss	xmm1, DWORD PTR _ang$[ebp]
	movss	DWORD PTR [esp], xmm1
	movss	DWORD PTR tv1221[ebp], xmm0
	call	?sin@@YAMM@Z				; sin
	add	esp, 4
	fstp	DWORD PTR tv860[ebp]
	movss	xmm0, DWORD PTR tv860[ebp]
	mulss	xmm0, DWORD PTR __real@46ed5a1c
	movss	xmm1, DWORD PTR tv1221[ebp]
	addss	xmm1, xmm0
	mov	eax, DWORD PTR _this$[ebp]
	movss	DWORD PTR [eax+288], xmm1

; 2174 : 
; 2175 : 	/*---------------------*/
; 2176 : 	/* find height of scan */
; 2177 : 	/*---------------------*/
; 2178 : 	/* height of the scan volume in degrees */
; 2179 : 	height = ((bars > 0 ? bars : -bars) - 1) * tbarWidth + beamWidth * 2.0F;

	mov	ecx, DWORD PTR _this$[ebp]
	cmp	DWORD PTR [ecx+188], 0
	jle	SHORT $LN7@DrawSlewCu
	mov	edx, DWORD PTR _this$[ebp]
	mov	eax, DWORD PTR [edx+188]
	mov	DWORD PTR tv163[ebp], eax
	jmp	SHORT $LN8@DrawSlewCu
$LN7@DrawSlewCu:
	mov	ecx, DWORD PTR _this$[ebp]
	mov	edx, DWORD PTR [ecx+188]
	neg	edx
	mov	DWORD PTR tv163[ebp], edx
$LN8@DrawSlewCu:
	mov	eax, DWORD PTR tv163[ebp]
	sub	eax, 1
	cvtsi2ss xmm0, eax
	mov	ecx, DWORD PTR _this$[ebp]
	mulss	xmm0, DWORD PTR [ecx+268]
	mov	edx, DWORD PTR _this$[ebp]
	movss	xmm1, DWORD PTR [edx+260]
	mulss	xmm1, DWORD PTR __real@40000000
	addss	xmm0, xmm1
	movss	DWORD PTR _height$[ebp], xmm0

; 2180 : 
; 2181 : 	/* vertical dimension of the scan volume in feet */
; 2182 : 	z = cursRange * (float)sin(height*0.5);

	cvtss2sd xmm0, DWORD PTR _height$[ebp]
	mulsd	xmm0, QWORD PTR __real@3fe0000000000000
	sub	esp, 8
	movsd	QWORD PTR [esp], xmm0
	call	_sin
	add	esp, 8
	fstp	QWORD PTR tv876[ebp]
	movsd	xmm0, QWORD PTR tv876[ebp]
	cvtsd2ss xmm0, xmm0
	mov	eax, DWORD PTR _this$[ebp]
	mulss	xmm0, DWORD PTR [eax+480]
	movss	DWORD PTR _z$[ebp], xmm0

; 2183 : 
; 2184 : 	/* upper scan limit in thousands */
; 2185 : 	up = (scanCenterAlt + z) * 0.001F;

	mov	ecx, DWORD PTR _this$[ebp]
	movss	xmm0, DWORD PTR [ecx+288]
	addss	xmm0, DWORD PTR _z$[ebp]
	mulss	xmm0, DWORD PTR __real@3a83126f
	movss	DWORD PTR _up$[ebp], xmm0

; 2186 : 	/* lower scan limit in thousands */
; 2187 : 	lw = (scanCenterAlt - z) * 0.001F;

	mov	edx, DWORD PTR _this$[ebp]
	movss	xmm0, DWORD PTR [edx+288]
	subss	xmm0, DWORD PTR _z$[ebp]
	mulss	xmm0, DWORD PTR __real@3a83126f
	movss	DWORD PTR _lw$[ebp], xmm0

; 2188 : 
; 2189 : 	/*---------------------------------*/
; 2190 : 	/* altitudes must be 00 <= x <= 99 */  //JPG 25 Mar 04 - Show negatives like above
; 2191 : 	/*---------------------------------*/
; 2192 : 	up = min ( max (up, -99.0F), 99.0F);

	movss	xmm0, DWORD PTR _up$[ebp]
	comiss	xmm0, DWORD PTR __real@c2c60000
	jbe	SHORT $LN9@DrawSlewCu
	movss	xmm0, DWORD PTR _up$[ebp]
	movss	DWORD PTR tv187[ebp], xmm0
	jmp	SHORT $LN10@DrawSlewCu
$LN9@DrawSlewCu:
	movss	xmm0, DWORD PTR __real@c2c60000
	movss	DWORD PTR tv187[ebp], xmm0
$LN10@DrawSlewCu:
	movss	xmm0, DWORD PTR __real@42c60000
	comiss	xmm0, DWORD PTR tv187[ebp]
	jbe	SHORT $LN13@DrawSlewCu
	movss	xmm0, DWORD PTR _up$[ebp]
	comiss	xmm0, DWORD PTR __real@c2c60000
	jbe	SHORT $LN11@DrawSlewCu
	movss	xmm0, DWORD PTR _up$[ebp]
	movss	DWORD PTR tv190[ebp], xmm0
	jmp	SHORT $LN12@DrawSlewCu
$LN11@DrawSlewCu:
	movss	xmm0, DWORD PTR __real@c2c60000
	movss	DWORD PTR tv190[ebp], xmm0
$LN12@DrawSlewCu:
	movss	xmm0, DWORD PTR tv190[ebp]
	movss	DWORD PTR tv191[ebp], xmm0
	jmp	SHORT $LN14@DrawSlewCu
$LN13@DrawSlewCu:
	movss	xmm0, DWORD PTR __real@42c60000
	movss	DWORD PTR tv191[ebp], xmm0
$LN14@DrawSlewCu:
	movss	xmm0, DWORD PTR tv191[ebp]
	movss	DWORD PTR _up$[ebp], xmm0

; 2193 : 	lw = min ( max (lw, -99.0F), 99.0F);

	movss	xmm0, DWORD PTR _lw$[ebp]
	comiss	xmm0, DWORD PTR __real@c2c60000
	jbe	SHORT $LN15@DrawSlewCu
	movss	xmm0, DWORD PTR _lw$[ebp]
	movss	DWORD PTR tv193[ebp], xmm0
	jmp	SHORT $LN16@DrawSlewCu
$LN15@DrawSlewCu:
	movss	xmm0, DWORD PTR __real@c2c60000
	movss	DWORD PTR tv193[ebp], xmm0
$LN16@DrawSlewCu:
	movss	xmm0, DWORD PTR __real@42c60000
	comiss	xmm0, DWORD PTR tv193[ebp]
	jbe	SHORT $LN19@DrawSlewCu
	movss	xmm0, DWORD PTR _lw$[ebp]
	comiss	xmm0, DWORD PTR __real@c2c60000
	jbe	SHORT $LN17@DrawSlewCu
	movss	xmm0, DWORD PTR _lw$[ebp]
	movss	DWORD PTR tv196[ebp], xmm0
	jmp	SHORT $LN18@DrawSlewCu
$LN17@DrawSlewCu:
	movss	xmm0, DWORD PTR __real@c2c60000
	movss	DWORD PTR tv196[ebp], xmm0
$LN18@DrawSlewCu:
	movss	xmm0, DWORD PTR tv196[ebp]
	movss	DWORD PTR tv197[ebp], xmm0
	jmp	SHORT $LN20@DrawSlewCu
$LN19@DrawSlewCu:
	movss	xmm0, DWORD PTR __real@42c60000
	movss	DWORD PTR tv197[ebp], xmm0
$LN20@DrawSlewCu:
	movss	xmm0, DWORD PTR tv197[ebp]
	movss	DWORD PTR _lw$[ebp], xmm0

; 2194 : 
; 2195 : 	/*-------------*/
; 2196 : 	/* draw cursor */
; 2197 : 	/*-------------*/
; 2198 : 	display->AdjustOriginInViewport (cursorX, cursorY);

	mov	eax, DWORD PTR _this$[ebp]
	push	ecx
	movss	xmm0, DWORD PTR [eax+224]
	movss	DWORD PTR [esp], xmm0
	mov	ecx, DWORD PTR _this$[ebp]
	push	ecx
	movss	xmm0, DWORD PTR [ecx+220]
	movss	DWORD PTR [esp], xmm0
	mov	edx, DWORD PTR _this$[ebp]
	mov	ecx, DWORD PTR [edx+20]
	call	?AdjustOriginInViewport@VirtualDisplay@@QAEXMM@Z ; VirtualDisplay::AdjustOriginInViewport

; 2199 : 	display->SetColor(GetMfdColor(MFD_CURSOR));

	push	1
	mov	ecx, DWORD PTR _this$[ebp]
	call	?GetMfdColor@DrawableClass@@QAEIW4MfdColor@@@Z ; DrawableClass::GetMfdColor
	push	eax
	mov	eax, DWORD PTR _this$[ebp]
	mov	ecx, DWORD PTR [eax+20]
	mov	edx, DWORD PTR _this$[ebp]
	mov	eax, DWORD PTR [ecx]
	mov	ecx, DWORD PTR [edx+20]
	mov	edx, DWORD PTR [eax+92]
	call	edx

; 2200 : 	display->Line (cursor[0][0],  cursor[0][1],  cursor[1][0],  cursor[1][1]);

	mov	eax, 8
	shl	eax, 0
	mov	ecx, 4
	shl	ecx, 0
	push	ecx
	movss	xmm0, DWORD PTR _cursor[eax+ecx]
	movss	DWORD PTR [esp], xmm0
	mov	edx, 8
	shl	edx, 0
	mov	eax, 4
	imul	eax, 0
	push	ecx
	movss	xmm0, DWORD PTR _cursor[edx+eax]
	movss	DWORD PTR [esp], xmm0
	mov	ecx, 8
	imul	ecx, 0
	mov	edx, 4
	shl	edx, 0
	push	ecx
	movss	xmm0, DWORD PTR _cursor[ecx+edx]
	movss	DWORD PTR [esp], xmm0
	mov	eax, 8
	imul	eax, 0
	mov	ecx, 4
	imul	ecx, 0
	push	ecx
	movss	xmm0, DWORD PTR _cursor[eax+ecx]
	movss	DWORD PTR [esp], xmm0
	mov	edx, DWORD PTR _this$[ebp]
	mov	eax, DWORD PTR [edx+20]
	mov	ecx, DWORD PTR _this$[ebp]
	mov	edx, DWORD PTR [eax]
	mov	ecx, DWORD PTR [ecx+20]
	mov	eax, DWORD PTR [edx+32]
	call	eax

; 2201 : 	display->Line (cursor[1][0],  cursor[1][1],  cursor[2][0],  cursor[2][1]);

	mov	ecx, 8
	shl	ecx, 1
	mov	edx, 4
	shl	edx, 0
	push	ecx
	movss	xmm0, DWORD PTR _cursor[ecx+edx]
	movss	DWORD PTR [esp], xmm0
	mov	eax, 8
	shl	eax, 1
	mov	ecx, 4
	imul	ecx, 0
	push	ecx
	movss	xmm0, DWORD PTR _cursor[eax+ecx]
	movss	DWORD PTR [esp], xmm0
	mov	edx, 8
	shl	edx, 0
	mov	eax, 4
	shl	eax, 0
	push	ecx
	movss	xmm0, DWORD PTR _cursor[edx+eax]
	movss	DWORD PTR [esp], xmm0
	mov	ecx, 8
	shl	ecx, 0
	mov	edx, 4
	imul	edx, 0
	push	ecx
	movss	xmm0, DWORD PTR _cursor[ecx+edx]
	movss	DWORD PTR [esp], xmm0
	mov	eax, DWORD PTR _this$[ebp]
	mov	ecx, DWORD PTR [eax+20]
	mov	edx, DWORD PTR _this$[ebp]
	mov	eax, DWORD PTR [ecx]
	mov	ecx, DWORD PTR [edx+20]
	mov	edx, DWORD PTR [eax+32]
	call	edx

; 2202 : 	display->Line (cursor[2][0],  cursor[2][1],  cursor[3][0],  cursor[3][1]);

	mov	eax, 8
	imul	eax, 3
	mov	ecx, 4
	shl	ecx, 0
	push	ecx
	movss	xmm0, DWORD PTR _cursor[eax+ecx]
	movss	DWORD PTR [esp], xmm0
	mov	edx, 8
	imul	edx, 3
	mov	eax, 4
	imul	eax, 0
	push	ecx
	movss	xmm0, DWORD PTR _cursor[edx+eax]
	movss	DWORD PTR [esp], xmm0
	mov	ecx, 8
	shl	ecx, 1
	mov	edx, 4
	shl	edx, 0
	push	ecx
	movss	xmm0, DWORD PTR _cursor[ecx+edx]
	movss	DWORD PTR [esp], xmm0
	mov	eax, 8
	shl	eax, 1
	mov	ecx, 4
	imul	ecx, 0
	push	ecx
	movss	xmm0, DWORD PTR _cursor[eax+ecx]
	movss	DWORD PTR [esp], xmm0
	mov	edx, DWORD PTR _this$[ebp]
	mov	eax, DWORD PTR [edx+20]
	mov	ecx, DWORD PTR _this$[ebp]
	mov	edx, DWORD PTR [eax]
	mov	ecx, DWORD PTR [ecx+20]
	mov	eax, DWORD PTR [edx+32]
	call	eax

; 2203 : 	display->Line (cursor[3][0],  cursor[3][1],  cursor[4][0],  cursor[4][1]);

	mov	ecx, 8
	shl	ecx, 2
	mov	edx, 4
	shl	edx, 0
	push	ecx
	movss	xmm0, DWORD PTR _cursor[ecx+edx]
	movss	DWORD PTR [esp], xmm0
	mov	eax, 8
	shl	eax, 2
	mov	ecx, 4
	imul	ecx, 0
	push	ecx
	movss	xmm0, DWORD PTR _cursor[eax+ecx]
	movss	DWORD PTR [esp], xmm0
	mov	edx, 8
	imul	edx, 3
	mov	eax, 4
	shl	eax, 0
	push	ecx
	movss	xmm0, DWORD PTR _cursor[edx+eax]
	movss	DWORD PTR [esp], xmm0
	mov	ecx, 8
	imul	ecx, 3
	mov	edx, 4
	imul	edx, 0
	push	ecx
	movss	xmm0, DWORD PTR _cursor[ecx+edx]
	movss	DWORD PTR [esp], xmm0
	mov	eax, DWORD PTR _this$[ebp]
	mov	ecx, DWORD PTR [eax+20]
	mov	edx, DWORD PTR _this$[ebp]
	mov	eax, DWORD PTR [ecx]
	mov	ecx, DWORD PTR [edx+20]
	mov	edx, DWORD PTR [eax+32]
	call	edx

; 2204 : 	display->Line (cursor[4][0],  cursor[4][1],  cursor[5][0],  cursor[5][1]);

	mov	eax, 8
	imul	eax, 5
	mov	ecx, 4
	shl	ecx, 0
	push	ecx
	movss	xmm0, DWORD PTR _cursor[eax+ecx]
	movss	DWORD PTR [esp], xmm0
	mov	edx, 8
	imul	edx, 5
	mov	eax, 4
	imul	eax, 0
	push	ecx
	movss	xmm0, DWORD PTR _cursor[edx+eax]
	movss	DWORD PTR [esp], xmm0
	mov	ecx, 8
	shl	ecx, 2
	mov	edx, 4
	shl	edx, 0
	push	ecx
	movss	xmm0, DWORD PTR _cursor[ecx+edx]
	movss	DWORD PTR [esp], xmm0
	mov	eax, 8
	shl	eax, 2
	mov	ecx, 4
	imul	ecx, 0
	push	ecx
	movss	xmm0, DWORD PTR _cursor[eax+ecx]
	movss	DWORD PTR [esp], xmm0
	mov	edx, DWORD PTR _this$[ebp]
	mov	eax, DWORD PTR [edx+20]
	mov	ecx, DWORD PTR _this$[ebp]
	mov	edx, DWORD PTR [eax]
	mov	ecx, DWORD PTR [ecx+20]
	mov	eax, DWORD PTR [edx+32]
	call	eax

; 2205 : 	display->Line (cursor[5][0],  cursor[5][1],  cursor[6][0],  cursor[6][1]);

	mov	ecx, 8
	imul	ecx, 6
	mov	edx, 4
	shl	edx, 0
	push	ecx
	movss	xmm0, DWORD PTR _cursor[ecx+edx]
	movss	DWORD PTR [esp], xmm0
	mov	eax, 8
	imul	eax, 6
	mov	ecx, 4
	imul	ecx, 0
	push	ecx
	movss	xmm0, DWORD PTR _cursor[eax+ecx]
	movss	DWORD PTR [esp], xmm0
	mov	edx, 8
	imul	edx, 5
	mov	eax, 4
	shl	eax, 0
	push	ecx
	movss	xmm0, DWORD PTR _cursor[edx+eax]
	movss	DWORD PTR [esp], xmm0
	mov	ecx, 8
	imul	ecx, 5
	mov	edx, 4
	imul	edx, 0
	push	ecx
	movss	xmm0, DWORD PTR _cursor[ecx+edx]
	movss	DWORD PTR [esp], xmm0
	mov	eax, DWORD PTR _this$[ebp]
	mov	ecx, DWORD PTR [eax+20]
	mov	edx, DWORD PTR _this$[ebp]
	mov	eax, DWORD PTR [ecx]
	mov	ecx, DWORD PTR [edx+20]
	mov	edx, DWORD PTR [eax+32]
	call	edx

; 2206 : 	display->Line (cursor[6][0],  cursor[6][1],  cursor[7][0],  cursor[7][1]);

	mov	eax, 8
	imul	eax, 7
	mov	ecx, 4
	shl	ecx, 0
	push	ecx
	movss	xmm0, DWORD PTR _cursor[eax+ecx]
	movss	DWORD PTR [esp], xmm0
	mov	edx, 8
	imul	edx, 7
	mov	eax, 4
	imul	eax, 0
	push	ecx
	movss	xmm0, DWORD PTR _cursor[edx+eax]
	movss	DWORD PTR [esp], xmm0
	mov	ecx, 8
	imul	ecx, 6
	mov	edx, 4
	shl	edx, 0
	push	ecx
	movss	xmm0, DWORD PTR _cursor[ecx+edx]
	movss	DWORD PTR [esp], xmm0
	mov	eax, 8
	imul	eax, 6
	mov	ecx, 4
	imul	ecx, 0
	push	ecx
	movss	xmm0, DWORD PTR _cursor[eax+ecx]
	movss	DWORD PTR [esp], xmm0
	mov	edx, DWORD PTR _this$[ebp]
	mov	eax, DWORD PTR [edx+20]
	mov	ecx, DWORD PTR _this$[ebp]
	mov	edx, DWORD PTR [eax]
	mov	ecx, DWORD PTR [ecx+20]
	mov	eax, DWORD PTR [edx+32]
	call	eax

; 2207 : 	display->Line (cursor[7][0],  cursor[7][1],  cursor[8][0],  cursor[8][1]);

	mov	ecx, 8
	shl	ecx, 3
	mov	edx, 4
	shl	edx, 0
	push	ecx
	movss	xmm0, DWORD PTR _cursor[ecx+edx]
	movss	DWORD PTR [esp], xmm0
	mov	eax, 8
	shl	eax, 3
	mov	ecx, 4
	imul	ecx, 0
	push	ecx
	movss	xmm0, DWORD PTR _cursor[eax+ecx]
	movss	DWORD PTR [esp], xmm0
	mov	edx, 8
	imul	edx, 7
	mov	eax, 4
	shl	eax, 0
	push	ecx
	movss	xmm0, DWORD PTR _cursor[edx+eax]
	movss	DWORD PTR [esp], xmm0
	mov	ecx, 8
	imul	ecx, 7
	mov	edx, 4
	imul	edx, 0
	push	ecx
	movss	xmm0, DWORD PTR _cursor[ecx+edx]
	movss	DWORD PTR [esp], xmm0
	mov	eax, DWORD PTR _this$[ebp]
	mov	ecx, DWORD PTR [eax+20]
	mov	edx, DWORD PTR _this$[ebp]
	mov	eax, DWORD PTR [ecx]
	mov	ecx, DWORD PTR [edx+20]
	mov	edx, DWORD PTR [eax+32]
	call	edx

; 2208 : 	display->Line (cursor[8][0],  cursor[8][1],  cursor[9][0],  cursor[9][1]);

	mov	eax, 8
	imul	eax, 9
	mov	ecx, 4
	shl	ecx, 0
	push	ecx
	movss	xmm0, DWORD PTR _cursor[eax+ecx]
	movss	DWORD PTR [esp], xmm0
	mov	edx, 8
	imul	edx, 9
	mov	eax, 4
	imul	eax, 0
	push	ecx
	movss	xmm0, DWORD PTR _cursor[edx+eax]
	movss	DWORD PTR [esp], xmm0
	mov	ecx, 8
	shl	ecx, 3
	mov	edx, 4
	shl	edx, 0
	push	ecx
	movss	xmm0, DWORD PTR _cursor[ecx+edx]
	movss	DWORD PTR [esp], xmm0
	mov	eax, 8
	shl	eax, 3
	mov	ecx, 4
	imul	ecx, 0
	push	ecx
	movss	xmm0, DWORD PTR _cursor[eax+ecx]
	movss	DWORD PTR [esp], xmm0
	mov	edx, DWORD PTR _this$[ebp]
	mov	eax, DWORD PTR [edx+20]
	mov	ecx, DWORD PTR _this$[ebp]
	mov	edx, DWORD PTR [eax]
	mov	ecx, DWORD PTR [ecx+20]
	mov	eax, DWORD PTR [edx+32]
	call	eax

; 2209 : 	display->Line (cursor[9][0],  cursor[9][1],  cursor[10][0], cursor[10][1]);

	mov	ecx, 8
	imul	ecx, 10					; 0000000aH
	mov	edx, 4
	shl	edx, 0
	push	ecx
	movss	xmm0, DWORD PTR _cursor[ecx+edx]
	movss	DWORD PTR [esp], xmm0
	mov	eax, 8
	imul	eax, 10					; 0000000aH
	mov	ecx, 4
	imul	ecx, 0
	push	ecx
	movss	xmm0, DWORD PTR _cursor[eax+ecx]
	movss	DWORD PTR [esp], xmm0
	mov	edx, 8
	imul	edx, 9
	mov	eax, 4
	shl	eax, 0
	push	ecx
	movss	xmm0, DWORD PTR _cursor[edx+eax]
	movss	DWORD PTR [esp], xmm0
	mov	ecx, 8
	imul	ecx, 9
	mov	edx, 4
	imul	edx, 0
	push	ecx
	movss	xmm0, DWORD PTR _cursor[ecx+edx]
	movss	DWORD PTR [esp], xmm0
	mov	eax, DWORD PTR _this$[ebp]
	mov	ecx, DWORD PTR [eax+20]
	mov	edx, DWORD PTR _this$[ebp]
	mov	eax, DWORD PTR [ecx]
	mov	ecx, DWORD PTR [edx+20]
	mov	edx, DWORD PTR [eax+32]
	call	edx

; 2210 : 	display->Line (cursor[10][0], cursor[10][1], cursor[11][0], cursor[11][1]);

	mov	eax, 8
	imul	eax, 11					; 0000000bH
	mov	ecx, 4
	shl	ecx, 0
	push	ecx
	movss	xmm0, DWORD PTR _cursor[eax+ecx]
	movss	DWORD PTR [esp], xmm0
	mov	edx, 8
	imul	edx, 11					; 0000000bH
	mov	eax, 4
	imul	eax, 0
	push	ecx
	movss	xmm0, DWORD PTR _cursor[edx+eax]
	movss	DWORD PTR [esp], xmm0
	mov	ecx, 8
	imul	ecx, 10					; 0000000aH
	mov	edx, 4
	shl	edx, 0
	push	ecx
	movss	xmm0, DWORD PTR _cursor[ecx+edx]
	movss	DWORD PTR [esp], xmm0
	mov	eax, 8
	imul	eax, 10					; 0000000aH
	mov	ecx, 4
	imul	ecx, 0
	push	ecx
	movss	xmm0, DWORD PTR _cursor[eax+ecx]
	movss	DWORD PTR [esp], xmm0
	mov	edx, DWORD PTR _this$[ebp]
	mov	eax, DWORD PTR [edx+20]
	mov	ecx, DWORD PTR _this$[ebp]
	mov	edx, DWORD PTR [eax]
	mov	ecx, DWORD PTR [ecx+20]
	mov	eax, DWORD PTR [edx+32]
	call	eax

; 2211 : 	display->Line (cursor[11][0], cursor[11][1], cursor[0][0],  cursor[0][1]);

	mov	ecx, 8
	imul	ecx, 0
	mov	edx, 4
	shl	edx, 0
	push	ecx
	movss	xmm0, DWORD PTR _cursor[ecx+edx]
	movss	DWORD PTR [esp], xmm0
	mov	eax, 8
	imul	eax, 0
	mov	ecx, 4
	imul	ecx, 0
	push	ecx
	movss	xmm0, DWORD PTR _cursor[eax+ecx]
	movss	DWORD PTR [esp], xmm0
	mov	edx, 8
	imul	edx, 11					; 0000000bH
	mov	eax, 4
	shl	eax, 0
	push	ecx
	movss	xmm0, DWORD PTR _cursor[edx+eax]
	movss	DWORD PTR [esp], xmm0
	mov	ecx, 8
	imul	ecx, 11					; 0000000bH
	mov	edx, 4
	imul	edx, 0
	push	ecx
	movss	xmm0, DWORD PTR _cursor[ecx+edx]
	movss	DWORD PTR [esp], xmm0
	mov	eax, DWORD PTR _this$[ebp]
	mov	ecx, DWORD PTR [eax+20]
	mov	edx, DWORD PTR _this$[ebp]
	mov	eax, DWORD PTR [ecx]
	mov	ecx, DWORD PTR [edx+20]
	mov	edx, DWORD PTR [eax+32]
	call	edx

; 2212 : 	display->CenterOriginInViewport();

	mov	eax, DWORD PTR _this$[ebp]
	mov	ecx, DWORD PTR [eax+20]
	call	?CenterOriginInViewport@VirtualDisplay@@QAEXXZ ; VirtualDisplay::CenterOriginInViewport

; 2213 : 
; 2214 : 	/*----------------------*/
; 2215 : 	/* add elevation limits */
; 2216 : 	/*----------------------*/
; 2217 : 	if (up > -1.0f)

	movss	xmm0, DWORD PTR _up$[ebp]
	comiss	xmm0, DWORD PTR __real@bf800000
	jbe	SHORT $LN4@DrawSlewCu

; 2218 : 	{
; 2219 : 		sprintf(str,"%02d",(int)up);

	cvttss2si ecx, DWORD PTR _up$[ebp]
	push	ecx
	push	OFFSET ??_C@_04OGKJMPGK@?$CF02d?$AA@
	lea	edx, DWORD PTR _str$[ebp]
	push	edx
	call	_sprintf
	add	esp, 12					; 0000000cH

; 2220 : 		ShiAssert (strlen(str) < sizeof(str));
; 2221 : 		display->TextLeft(0.04F+display->TextWidth("-"), 0.065F, str);

	push	0
	lea	eax, DWORD PTR _str$[ebp]
	push	eax
	push	ecx
	movss	xmm0, DWORD PTR __real@3d851eb8
	movss	DWORD PTR [esp], xmm0
	push	OFFSET ??_C@_01JOAMLHOP@?9?$AA@
	mov	ecx, DWORD PTR _this$[ebp]
	mov	edx, DWORD PTR [ecx+20]
	mov	eax, DWORD PTR _this$[ebp]
	mov	edx, DWORD PTR [edx]
	mov	ecx, DWORD PTR [eax+20]
	mov	eax, DWORD PTR [edx+84]
	call	eax
	fstp	DWORD PTR tv1151[ebp]
	movss	xmm0, DWORD PTR tv1151[ebp]
	addss	xmm0, DWORD PTR __real@3d23d70a
	push	ecx
	movss	DWORD PTR [esp], xmm0
	mov	ecx, DWORD PTR _this$[ebp]
	mov	edx, DWORD PTR [ecx+20]
	mov	eax, DWORD PTR _this$[ebp]
	mov	edx, DWORD PTR [edx]
	mov	ecx, DWORD PTR [eax+20]
	mov	eax, DWORD PTR [edx+56]
	call	eax

; 2222 : 	}
; 2223 : 	else

	jmp	$LN3@DrawSlewCu
$LN4@DrawSlewCu:

; 2224 : 	{
; 2225 : 		sprintf(str,"%03d",(int)up);

	cvttss2si ecx, DWORD PTR _up$[ebp]
	push	ecx
	push	OFFSET ??_C@_04OHGLKFFN@?$CF03d?$AA@
	lea	edx, DWORD PTR _str$[ebp]
	push	edx
	call	_sprintf
	add	esp, 12					; 0000000cH

; 2226 : 		ShiAssert (strlen(str) < sizeof(str));
; 2227 : 		DWORD tempcolor=display->Color();

	mov	eax, DWORD PTR _this$[ebp]
	mov	ecx, DWORD PTR [eax+20]
	mov	edx, DWORD PTR _this$[ebp]
	mov	eax, DWORD PTR [ecx]
	mov	ecx, DWORD PTR [edx+20]
	mov	edx, DWORD PTR [eax+108]
	call	edx
	mov	DWORD PTR _tempcolor$1[ebp], eax

; 2228 : 		display->SetColor( GetMfdColor(MFD_RED) );

	push	2
	mov	ecx, DWORD PTR _this$[ebp]
	call	?GetMfdColor@DrawableClass@@QAEIW4MfdColor@@@Z ; DrawableClass::GetMfdColor
	push	eax
	mov	eax, DWORD PTR _this$[ebp]
	mov	ecx, DWORD PTR [eax+20]
	mov	edx, DWORD PTR _this$[ebp]
	mov	eax, DWORD PTR [ecx]
	mov	ecx, DWORD PTR [edx+20]
	mov	edx, DWORD PTR [eax+92]
	call	edx

; 2229 : 		display->TextLeft(0.04F, 0.065F, str);

	push	0
	lea	eax, DWORD PTR _str$[ebp]
	push	eax
	push	ecx
	movss	xmm0, DWORD PTR __real@3d851eb8
	movss	DWORD PTR [esp], xmm0
	push	ecx
	movss	xmm0, DWORD PTR __real@3d23d70a
	movss	DWORD PTR [esp], xmm0
	mov	ecx, DWORD PTR _this$[ebp]
	mov	edx, DWORD PTR [ecx+20]
	mov	eax, DWORD PTR _this$[ebp]
	mov	edx, DWORD PTR [edx]
	mov	ecx, DWORD PTR [eax+20]
	mov	eax, DWORD PTR [edx+56]
	call	eax

; 2230 : 		display->SetColor(tempcolor);

	mov	ecx, DWORD PTR _tempcolor$1[ebp]
	push	ecx
	mov	edx, DWORD PTR _this$[ebp]
	mov	eax, DWORD PTR [edx+20]
	mov	ecx, DWORD PTR _this$[ebp]
	mov	edx, DWORD PTR [eax]
	mov	ecx, DWORD PTR [ecx+20]
	mov	eax, DWORD PTR [edx+92]
	call	eax
$LN3@DrawSlewCu:

; 2231 : 	}
; 2232 : 	if (lw > -1.0f)

	movss	xmm0, DWORD PTR _lw$[ebp]
	comiss	xmm0, DWORD PTR __real@bf800000
	jbe	SHORT $LN2@DrawSlewCu

; 2233 : 	{
; 2234 : 		sprintf(str,"%02d",(int)lw);

	cvttss2si ecx, DWORD PTR _lw$[ebp]
	push	ecx
	push	OFFSET ??_C@_04OGKJMPGK@?$CF02d?$AA@
	lea	edx, DWORD PTR _str$[ebp]
	push	edx
	call	_sprintf
	add	esp, 12					; 0000000cH

; 2235 : 		ShiAssert (strlen(str) < sizeof(str));
; 2236 : 		display->TextLeft(0.04F+display->TextWidth("-"),-0.055F, str);

	push	0
	lea	eax, DWORD PTR _str$[ebp]
	push	eax
	push	ecx
	movss	xmm0, DWORD PTR __real@bd6147ae
	movss	DWORD PTR [esp], xmm0
	push	OFFSET ??_C@_01JOAMLHOP@?9?$AA@
	mov	ecx, DWORD PTR _this$[ebp]
	mov	edx, DWORD PTR [ecx+20]
	mov	eax, DWORD PTR _this$[ebp]
	mov	edx, DWORD PTR [edx]
	mov	ecx, DWORD PTR [eax+20]
	mov	eax, DWORD PTR [edx+84]
	call	eax
	fstp	DWORD PTR tv1189[ebp]
	movss	xmm0, DWORD PTR tv1189[ebp]
	addss	xmm0, DWORD PTR __real@3d23d70a
	push	ecx
	movss	DWORD PTR [esp], xmm0
	mov	ecx, DWORD PTR _this$[ebp]
	mov	edx, DWORD PTR [ecx+20]
	mov	eax, DWORD PTR _this$[ebp]
	mov	edx, DWORD PTR [edx]
	mov	ecx, DWORD PTR [eax+20]
	mov	eax, DWORD PTR [edx+56]
	call	eax

; 2237 : 	}
; 2238 : 	else

	jmp	$LN1@DrawSlewCu
$LN2@DrawSlewCu:

; 2239 : 	{
; 2240 : 		sprintf(str,"%03d",(int)lw);

	cvttss2si ecx, DWORD PTR _lw$[ebp]
	push	ecx
	push	OFFSET ??_C@_04OHGLKFFN@?$CF03d?$AA@
	lea	edx, DWORD PTR _str$[ebp]
	push	edx
	call	_sprintf
	add	esp, 12					; 0000000cH

; 2241 : 		ShiAssert (strlen(str) < sizeof(str));
; 2242 : 		DWORD tempcolor=display->Color();

	mov	eax, DWORD PTR _this$[ebp]
	mov	ecx, DWORD PTR [eax+20]
	mov	edx, DWORD PTR _this$[ebp]
	mov	eax, DWORD PTR [ecx]
	mov	ecx, DWORD PTR [edx+20]
	mov	edx, DWORD PTR [eax+108]
	call	edx
	mov	DWORD PTR _tempcolor$2[ebp], eax

; 2243 : 		display->SetColor( GetMfdColor(MFD_RED) );

	push	2
	mov	ecx, DWORD PTR _this$[ebp]
	call	?GetMfdColor@DrawableClass@@QAEIW4MfdColor@@@Z ; DrawableClass::GetMfdColor
	push	eax
	mov	eax, DWORD PTR _this$[ebp]
	mov	ecx, DWORD PTR [eax+20]
	mov	edx, DWORD PTR _this$[ebp]
	mov	eax, DWORD PTR [ecx]
	mov	ecx, DWORD PTR [edx+20]
	mov	edx, DWORD PTR [eax+92]
	call	edx

; 2244 : 		display->TextLeft(0.04F,-0.055F, str);

	push	0
	lea	eax, DWORD PTR _str$[ebp]
	push	eax
	push	ecx
	movss	xmm0, DWORD PTR __real@bd6147ae
	movss	DWORD PTR [esp], xmm0
	push	ecx
	movss	xmm0, DWORD PTR __real@3d23d70a
	movss	DWORD PTR [esp], xmm0
	mov	ecx, DWORD PTR _this$[ebp]
	mov	edx, DWORD PTR [ecx+20]
	mov	eax, DWORD PTR _this$[ebp]
	mov	edx, DWORD PTR [edx]
	mov	ecx, DWORD PTR [eax+20]
	mov	eax, DWORD PTR [edx+56]
	call	eax

; 2245 : 		display->SetColor(tempcolor);

	mov	ecx, DWORD PTR _tempcolor$2[ebp]
	push	ecx
	mov	edx, DWORD PTR _this$[ebp]
	mov	eax, DWORD PTR [edx+20]
	mov	ecx, DWORD PTR _this$[ebp]
	mov	edx, DWORD PTR [eax]
	mov	ecx, DWORD PTR [ecx+20]
	mov	eax, DWORD PTR [edx+92]
	call	eax
$LN1@DrawSlewCu:

; 2246 : 	}
; 2247 : }

	mov	ecx, DWORD PTR __$ArrayPad$[ebp]
	xor	ecx, ebp
	call	@__security_check_cookie@4
	mov	esp, ebp
	pop	ebp
	ret	0
?DrawSlewCursor@RadarDopplerClass@@IAEXXZ ENDP		; RadarDopplerClass::DrawSlewCursor
_TEXT	ENDS
; Function compile flags: /Odtp
; File c:\users\zhitao li\documents\visual studio 2012\projects\freefalcon\sim\radar\bscope.cpp
_TEXT	SEGMENT
tv758 = -136						; size = 8
_pFCC$ = -128						; size = 4
_trig$1 = -124						; size = 8
tv735 = -116						; size = 4
tv741 = -112						; size = 4
_tempcolor$2 = -108					; size = 4
_tempcolor$3 = -104					; size = 4
tv874 = -100						; size = 4
_tmpColor$ = -96					; size = 4
tv828 = -92						; size = 4
_tempcolor$4 = -88					; size = 4
tv940 = -84						; size = 4
_tempcolor$5 = -80					; size = 4
_height$ = -76						; size = 4
tv249 = -72						; size = 4
tv255 = -68						; size = 4
tv225 = -64						; size = 4
tv252 = -60						; size = 4
_self$6 = -56						; size = 4
tv253 = -52						; size = 4
tv259 = -48						; size = 4
_z$ = -44						; size = 4
tv258 = -40						; size = 4
_mode$7 = -36						; size = 4
_theta$ = -32						; size = 4
_ang$ = -28						; size = 4
_up$ = -24						; size = 4
_lw$ = -20						; size = 4
_this$ = -16						; size = 4
_str$ = -12						; size = 8
__$ArrayPad$ = -4					; size = 4
?DrawACQCursor@RadarDopplerClass@@IAEXXZ PROC		; RadarDopplerClass::DrawACQCursor
; _this$ = ecx

; 2000 : {

	push	ebp
	mov	ebp, esp
	sub	esp, 136				; 00000088H
	mov	eax, DWORD PTR ___security_cookie
	xor	eax, ebp
	mov	DWORD PTR __$ArrayPad$[ebp], eax
	mov	DWORD PTR _this$[ebp], ecx

; 2001 : 	if (IsSet(STTingTarget))  // MD -- 20031222: don't draw this in STT!

	push	65536					; 00010000H
	mov	ecx, DWORD PTR _this$[ebp]
	call	?IsSet@RadarDopplerClass@@QAEHH@Z	; RadarDopplerClass::IsSet
	test	eax, eax
	je	SHORT $LN18@DrawACQCur

; 2002 : 		return;

	jmp	$LN19@DrawACQCur
$LN18@DrawACQCur:

; 2003 : 
; 2004 : 	//MI
; 2005 : 	//static const float CursorSize = 0.03f;
; 2006 : 	static float CursorSize;
; 2007 : 	if(!g_bRealisticAvionics)

	movzx	eax, BYTE PTR ?g_bRealisticAvionics@@3_NA ; g_bRealisticAvionics
	test	eax, eax
	jne	SHORT $LN17@DrawACQCur

; 2008 : 		CursorSize = 0.03F;

	movss	xmm0, DWORD PTR __real@3cf5c28f
	movss	DWORD PTR ?CursorSize@?3??DrawACQCursor@RadarDopplerClass@@IAEXXZ@4MA, xmm0

; 2009 : 	else

	jmp	SHORT $LN16@DrawACQCur
$LN17@DrawACQCur:

; 2010 : 		CursorSize = 0.06F;

	movss	xmm0, DWORD PTR __real@3d75c28f
	movss	DWORD PTR ?CursorSize@?3??DrawACQCursor@RadarDopplerClass@@IAEXXZ@4MA, xmm0
$LN16@DrawACQCur:

; 2011 : 
; 2012 : 	static float TextLeftPos;
; 2013 : 	if(!g_bRealisticAvionics)

	movzx	ecx, BYTE PTR ?g_bRealisticAvionics@@3_NA ; g_bRealisticAvionics
	test	ecx, ecx
	jne	SHORT $LN15@DrawACQCur

; 2014 : 		TextLeftPos = 0.03F;

	movss	xmm0, DWORD PTR __real@3cf5c28f
	movss	DWORD PTR ?TextLeftPos@?6??DrawACQCursor@RadarDopplerClass@@IAEXXZ@4MA, xmm0

; 2015 : 	else

	jmp	SHORT $LN14@DrawACQCur
$LN15@DrawACQCur:

; 2016 : 		TextLeftPos = 0.11F;

	movss	xmm0, DWORD PTR __real@3de147ae
	movss	DWORD PTR ?TextLeftPos@?6??DrawACQCursor@RadarDopplerClass@@IAEXXZ@4MA, xmm0
$LN14@DrawACQCur:

; 2017 : 
; 2018 : 	float  up,lw,z,ang,height,theta;
; 2019 : 	char   str[8];
; 2020 : 	FireControlComputer* pFCC = ((SimVehicleClass*)platform)->GetFCC();//me123 addet for ccip/DTOSS ground ranging check

	mov	edx, DWORD PTR _this$[ebp]
	mov	eax, DWORD PTR [edx+32]
	mov	ecx, DWORD PTR _this$[ebp]
	mov	edx, DWORD PTR [eax]
	mov	ecx, DWORD PTR [ecx+32]
	mov	eax, DWORD PTR [edx+460]
	call	eax
	mov	DWORD PTR _pFCC$[ebp], eax

; 2021 : 	int tmpColor = display->Color();

	mov	ecx, DWORD PTR _this$[ebp]
	mov	edx, DWORD PTR [ecx+20]
	mov	eax, DWORD PTR _this$[ebp]
	mov	edx, DWORD PTR [edx]
	mov	ecx, DWORD PTR [eax+20]
	mov	eax, DWORD PTR [edx+108]
	call	eax
	mov	DWORD PTR _tmpColor$[ebp], eax

; 2022 : 
; 2023 : 	up = lw = 0.0F;

	movss	xmm0, DWORD PTR __real@00000000
	movss	DWORD PTR _lw$[ebp], xmm0
	movss	xmm0, DWORD PTR _lw$[ebp]
	movss	DWORD PTR _up$[ebp], xmm0

; 2024 : 
; 2025 : 	/* angle of radar scan center to the horizon */
; 2026 : 	ang = seekerElCenter;

	mov	ecx, DWORD PTR _this$[ebp]
	movss	xmm0, DWORD PTR [ecx+60]
	movss	DWORD PTR _ang$[ebp], xmm0

; 2027 : 	theta  = platform->Pitch();

	mov	edx, DWORD PTR _this$[ebp]
	mov	ecx, DWORD PTR [edx+32]
	call	?Pitch@VuEntity@@QBEMXZ			; VuEntity::Pitch
	fstp	DWORD PTR _theta$[ebp]

; 2028 : 
; 2029 : 	if (!IsSet(SpaceStabalized))

	push	256					; 00000100H
	mov	ecx, DWORD PTR _this$[ebp]
	call	?IsSet@RadarDopplerClass@@QAEHH@Z	; RadarDopplerClass::IsSet
	test	eax, eax
	jne	SHORT $LN13@DrawACQCur

; 2030 : 	{
; 2031 : 		//MI this was messed up when our platform was rolling
; 2032 : 		//ang += theta;
; 2033 : 		mlTrig trig;
; 2034 : 		mlSinCos(&trig, platform->Roll());

	mov	eax, DWORD PTR _this$[ebp]
	mov	ecx, DWORD PTR [eax+32]
	call	?Roll@VuEntity@@QBEMXZ			; VuEntity::Roll
	push	ecx
	fstp	DWORD PTR [esp]
	lea	ecx, DWORD PTR _trig$1[ebp]
	push	ecx
	call	?mlSinCos@@YAXPAUmlTrig@@M@Z		; mlSinCos
	add	esp, 8

; 2035 : 		ang = theta + seekerElCenter * trig.cos - seekerAzCenter * trig.sin;

	mov	edx, DWORD PTR _this$[ebp]
	movss	xmm0, DWORD PTR [edx+60]
	mulss	xmm0, DWORD PTR _trig$1[ebp+4]
	addss	xmm0, DWORD PTR _theta$[ebp]
	mov	eax, DWORD PTR _this$[ebp]
	movss	xmm1, DWORD PTR [eax+56]
	mulss	xmm1, DWORD PTR _trig$1[ebp]
	subss	xmm0, xmm1
	movss	DWORD PTR _ang$[ebp], xmm0
	jmp	SHORT $LN7@DrawACQCur
$LN13@DrawACQCur:

; 2036 : 	}
; 2037 : 	else if (mode == TWS && lockedTarget)

	mov	ecx, DWORD PTR _this$[ebp]
	cmp	DWORD PTR [ecx+184], 4
	jne	SHORT $LN11@DrawACQCur
	mov	edx, DWORD PTR _this$[ebp]
	cmp	DWORD PTR [edx+48], 0
	je	SHORT $LN11@DrawACQCur

; 2038 : 	{
; 2039 : 		theta = 0.0F;

	movss	xmm0, DWORD PTR __real@00000000
	movss	DWORD PTR _theta$[ebp], xmm0

; 2040 : 	}
; 2041 : 	else

	jmp	SHORT $LN7@DrawACQCur
$LN11@DrawACQCur:

; 2042 : 	{
; 2043 : 		if (theta > MAX_ANT_EL)

	movss	xmm0, DWORD PTR _theta$[ebp]
	comiss	xmm0, DWORD PTR __real@3f860a91
	jbe	SHORT $LN9@DrawACQCur

; 2044 : 			ang += (theta - MAX_ANT_EL);

	movss	xmm0, DWORD PTR _theta$[ebp]
	subss	xmm0, DWORD PTR __real@3f860a91
	addss	xmm0, DWORD PTR _ang$[ebp]
	movss	DWORD PTR _ang$[ebp], xmm0
	jmp	SHORT $LN7@DrawACQCur
$LN9@DrawACQCur:

; 2045 : 		else if (theta < -MAX_ANT_EL)

	movss	xmm0, DWORD PTR __real@bf860a91
	comiss	xmm0, DWORD PTR _theta$[ebp]
	jbe	SHORT $LN7@DrawACQCur

; 2046 : 			ang += (theta + MAX_ANT_EL);

	movss	xmm0, DWORD PTR _theta$[ebp]
	addss	xmm0, DWORD PTR __real@3f860a91
	addss	xmm0, DWORD PTR _ang$[ebp]
	movss	DWORD PTR _ang$[ebp], xmm0
$LN7@DrawACQCur:

; 2047 : 	}
; 2048 : 
; 2049 : 	/* cursor range */
; 2050 : 	cursRange = tdisplayRange * (cursorY+AZL) / (2.0F*AZL);

	mov	eax, DWORD PTR _this$[ebp]
	movss	xmm0, DWORD PTR [eax+224]
	addss	xmm0, DWORD PTR __real@3f800000
	mov	ecx, DWORD PTR _this$[ebp]
	mulss	xmm0, DWORD PTR [ecx+264]
	divss	xmm0, DWORD PTR __real@40000000
	mov	edx, DWORD PTR _this$[ebp]
	movss	DWORD PTR [edx+480], xmm0

; 2051 : 
; 2052 : 	/* altitude of the scan center above ground */
; 2053 : 	scanCenterAlt = -platform->ZPos() +
; 2054 : 			cursRange * (float)sin(ang);

	mov	eax, DWORD PTR _this$[ebp]
	mov	ecx, DWORD PTR [eax+32]
	call	?ZPos@VuEntity@@QBEMXZ			; VuEntity::ZPos
	fstp	DWORD PTR tv735[ebp]
	movss	xmm0, DWORD PTR tv735[ebp]
	xorps	xmm0, DWORD PTR __xmm@80000000800000008000000080000000
	push	ecx
	movss	xmm1, DWORD PTR _ang$[ebp]
	movss	DWORD PTR [esp], xmm1
	movss	DWORD PTR tv940[ebp], xmm0
	call	?sin@@YAMM@Z				; sin
	add	esp, 4
	fstp	DWORD PTR tv741[ebp]
	mov	ecx, DWORD PTR _this$[ebp]
	movss	xmm0, DWORD PTR tv741[ebp]
	mulss	xmm0, DWORD PTR [ecx+480]
	movss	xmm1, DWORD PTR tv940[ebp]
	addss	xmm1, xmm0
	mov	edx, DWORD PTR _this$[ebp]
	movss	DWORD PTR [edx+288], xmm1

; 2055 : 
; 2056 : 	/*---------------------*/
; 2057 : 	/* find height of scan */
; 2058 : 	/*---------------------*/
; 2059 : 	/* height of the scan volume in degrees */
; 2060 : 	height = ((bars > 0 ? bars : -bars) - 1) * tbarWidth + beamWidth * 2.0F;

	mov	eax, DWORD PTR _this$[ebp]
	cmp	DWORD PTR [eax+188], 0
	jle	SHORT $LN21@DrawACQCur
	mov	ecx, DWORD PTR _this$[ebp]
	mov	edx, DWORD PTR [ecx+188]
	mov	DWORD PTR tv225[ebp], edx
	jmp	SHORT $LN22@DrawACQCur
$LN21@DrawACQCur:
	mov	eax, DWORD PTR _this$[ebp]
	mov	ecx, DWORD PTR [eax+188]
	neg	ecx
	mov	DWORD PTR tv225[ebp], ecx
$LN22@DrawACQCur:
	mov	edx, DWORD PTR tv225[ebp]
	sub	edx, 1
	cvtsi2ss xmm0, edx
	mov	eax, DWORD PTR _this$[ebp]
	mulss	xmm0, DWORD PTR [eax+268]
	mov	ecx, DWORD PTR _this$[ebp]
	movss	xmm1, DWORD PTR [ecx+260]
	mulss	xmm1, DWORD PTR __real@40000000
	addss	xmm0, xmm1
	movss	DWORD PTR _height$[ebp], xmm0

; 2061 : 
; 2062 : 	/* vertical dimension of the scan volume in feet */
; 2063 : 	z = cursRange * (float)sin(height*0.5);

	cvtss2sd xmm0, DWORD PTR _height$[ebp]
	mulsd	xmm0, QWORD PTR __real@3fe0000000000000
	sub	esp, 8
	movsd	QWORD PTR [esp], xmm0
	call	_sin
	add	esp, 8
	fstp	QWORD PTR tv758[ebp]
	movsd	xmm0, QWORD PTR tv758[ebp]
	cvtsd2ss xmm0, xmm0
	mov	edx, DWORD PTR _this$[ebp]
	mulss	xmm0, DWORD PTR [edx+480]
	movss	DWORD PTR _z$[ebp], xmm0

; 2064 : 
; 2065 : 	/* upper scan limit in thousands */
; 2066 : 	up = (scanCenterAlt + z) * 0.001F;

	mov	eax, DWORD PTR _this$[ebp]
	movss	xmm0, DWORD PTR [eax+288]
	addss	xmm0, DWORD PTR _z$[ebp]
	mulss	xmm0, DWORD PTR __real@3a83126f
	movss	DWORD PTR _up$[ebp], xmm0

; 2067 : 	/* lower scan limit in thousands */
; 2068 : 	lw = (scanCenterAlt - z) * 0.001F;

	mov	ecx, DWORD PTR _this$[ebp]
	movss	xmm0, DWORD PTR [ecx+288]
	subss	xmm0, DWORD PTR _z$[ebp]
	mulss	xmm0, DWORD PTR __real@3a83126f
	movss	DWORD PTR _lw$[ebp], xmm0

; 2069 : 
; 2070 : 	/*---------------------------------*/
; 2071 : 	/* altitudes must be 00 <= x <= 99 */
; 2072 : 	/*---------------------------------*/
; 2073 : 	up = min ( max (up, -99.0F), 99.0F);

	movss	xmm0, DWORD PTR _up$[ebp]
	comiss	xmm0, DWORD PTR __real@c2c60000
	jbe	SHORT $LN23@DrawACQCur
	movss	xmm0, DWORD PTR _up$[ebp]
	movss	DWORD PTR tv249[ebp], xmm0
	jmp	SHORT $LN24@DrawACQCur
$LN23@DrawACQCur:
	movss	xmm0, DWORD PTR __real@c2c60000
	movss	DWORD PTR tv249[ebp], xmm0
$LN24@DrawACQCur:
	movss	xmm0, DWORD PTR __real@42c60000
	comiss	xmm0, DWORD PTR tv249[ebp]
	jbe	SHORT $LN27@DrawACQCur
	movss	xmm0, DWORD PTR _up$[ebp]
	comiss	xmm0, DWORD PTR __real@c2c60000
	jbe	SHORT $LN25@DrawACQCur
	movss	xmm0, DWORD PTR _up$[ebp]
	movss	DWORD PTR tv252[ebp], xmm0
	jmp	SHORT $LN26@DrawACQCur
$LN25@DrawACQCur:
	movss	xmm0, DWORD PTR __real@c2c60000
	movss	DWORD PTR tv252[ebp], xmm0
$LN26@DrawACQCur:
	movss	xmm0, DWORD PTR tv252[ebp]
	movss	DWORD PTR tv253[ebp], xmm0
	jmp	SHORT $LN28@DrawACQCur
$LN27@DrawACQCur:
	movss	xmm0, DWORD PTR __real@42c60000
	movss	DWORD PTR tv253[ebp], xmm0
$LN28@DrawACQCur:
	movss	xmm0, DWORD PTR tv253[ebp]
	movss	DWORD PTR _up$[ebp], xmm0

; 2074 : 	lw = min ( max (lw, -99.0F), 99.0F);

	movss	xmm0, DWORD PTR _lw$[ebp]
	comiss	xmm0, DWORD PTR __real@c2c60000
	jbe	SHORT $LN29@DrawACQCur
	movss	xmm0, DWORD PTR _lw$[ebp]
	movss	DWORD PTR tv255[ebp], xmm0
	jmp	SHORT $LN30@DrawACQCur
$LN29@DrawACQCur:
	movss	xmm0, DWORD PTR __real@c2c60000
	movss	DWORD PTR tv255[ebp], xmm0
$LN30@DrawACQCur:
	movss	xmm0, DWORD PTR __real@42c60000
	comiss	xmm0, DWORD PTR tv255[ebp]
	jbe	SHORT $LN33@DrawACQCur
	movss	xmm0, DWORD PTR _lw$[ebp]
	comiss	xmm0, DWORD PTR __real@c2c60000
	jbe	SHORT $LN31@DrawACQCur
	movss	xmm0, DWORD PTR _lw$[ebp]
	movss	DWORD PTR tv258[ebp], xmm0
	jmp	SHORT $LN32@DrawACQCur
$LN31@DrawACQCur:
	movss	xmm0, DWORD PTR __real@c2c60000
	movss	DWORD PTR tv258[ebp], xmm0
$LN32@DrawACQCur:
	movss	xmm0, DWORD PTR tv258[ebp]
	movss	DWORD PTR tv259[ebp], xmm0
	jmp	SHORT $LN34@DrawACQCur
$LN33@DrawACQCur:
	movss	xmm0, DWORD PTR __real@42c60000
	movss	DWORD PTR tv259[ebp], xmm0
$LN34@DrawACQCur:
	movss	xmm0, DWORD PTR tv259[ebp]
	movss	DWORD PTR _lw$[ebp], xmm0

; 2075 : 
; 2076 : 	/*-------------*/
; 2077 : 	/* draw cursor */
; 2078 : 	/*-------------*/
; 2079 : 	display->AdjustOriginInViewport (cursorX, cursorY);

	mov	edx, DWORD PTR _this$[ebp]
	push	ecx
	movss	xmm0, DWORD PTR [edx+224]
	movss	DWORD PTR [esp], xmm0
	mov	eax, DWORD PTR _this$[ebp]
	push	ecx
	movss	xmm0, DWORD PTR [eax+220]
	movss	DWORD PTR [esp], xmm0
	mov	ecx, DWORD PTR _this$[ebp]
	mov	ecx, DWORD PTR [ecx+20]
	call	?AdjustOriginInViewport@VirtualDisplay@@QAEXMM@Z ; VirtualDisplay::AdjustOriginInViewport

; 2080 : 	display->SetColor(GetMfdColor(MFD_CURSOR));

	push	1
	mov	ecx, DWORD PTR _this$[ebp]
	call	?GetMfdColor@DrawableClass@@QAEIW4MfdColor@@@Z ; DrawableClass::GetMfdColor
	push	eax
	mov	edx, DWORD PTR _this$[ebp]
	mov	eax, DWORD PTR [edx+20]
	mov	ecx, DWORD PTR _this$[ebp]
	mov	edx, DWORD PTR [eax]
	mov	ecx, DWORD PTR [ecx+20]
	mov	eax, DWORD PTR [edx+92]
	call	eax

; 2081 : 	display->Line (-CursorSize, CursorSize, -CursorSize, -CursorSize);

	movss	xmm0, DWORD PTR ?CursorSize@?3??DrawACQCursor@RadarDopplerClass@@IAEXXZ@4MA
	xorps	xmm0, DWORD PTR __xmm@80000000800000008000000080000000
	push	ecx
	movss	DWORD PTR [esp], xmm0
	movss	xmm0, DWORD PTR ?CursorSize@?3??DrawACQCursor@RadarDopplerClass@@IAEXXZ@4MA
	xorps	xmm0, DWORD PTR __xmm@80000000800000008000000080000000
	push	ecx
	movss	DWORD PTR [esp], xmm0
	push	ecx
	movss	xmm0, DWORD PTR ?CursorSize@?3??DrawACQCursor@RadarDopplerClass@@IAEXXZ@4MA
	movss	DWORD PTR [esp], xmm0
	movss	xmm0, DWORD PTR ?CursorSize@?3??DrawACQCursor@RadarDopplerClass@@IAEXXZ@4MA
	xorps	xmm0, DWORD PTR __xmm@80000000800000008000000080000000
	push	ecx
	movss	DWORD PTR [esp], xmm0
	mov	ecx, DWORD PTR _this$[ebp]
	mov	edx, DWORD PTR [ecx+20]
	mov	eax, DWORD PTR _this$[ebp]
	mov	edx, DWORD PTR [edx]
	mov	ecx, DWORD PTR [eax+20]
	mov	eax, DWORD PTR [edx+32]
	call	eax

; 2082 : 	display->Line ( CursorSize, CursorSize,  CursorSize, -CursorSize);

	movss	xmm0, DWORD PTR ?CursorSize@?3??DrawACQCursor@RadarDopplerClass@@IAEXXZ@4MA
	xorps	xmm0, DWORD PTR __xmm@80000000800000008000000080000000
	push	ecx
	movss	DWORD PTR [esp], xmm0
	push	ecx
	movss	xmm0, DWORD PTR ?CursorSize@?3??DrawACQCursor@RadarDopplerClass@@IAEXXZ@4MA
	movss	DWORD PTR [esp], xmm0
	push	ecx
	movss	xmm0, DWORD PTR ?CursorSize@?3??DrawACQCursor@RadarDopplerClass@@IAEXXZ@4MA
	movss	DWORD PTR [esp], xmm0
	push	ecx
	movss	xmm0, DWORD PTR ?CursorSize@?3??DrawACQCursor@RadarDopplerClass@@IAEXXZ@4MA
	movss	DWORD PTR [esp], xmm0
	mov	ecx, DWORD PTR _this$[ebp]
	mov	edx, DWORD PTR [ecx+20]
	mov	eax, DWORD PTR _this$[ebp]
	mov	edx, DWORD PTR [edx]
	mov	ecx, DWORD PTR [eax+20]
	mov	eax, DWORD PTR [edx+32]
	call	eax

; 2083 : 
; 2084 : 	/*----------------------*/
; 2085 : 	/* add elevation limits */
; 2086 : 	/*----------------------*/
; 2087 : 	if (mode != VS)

	mov	ecx, DWORD PTR _this$[ebp]
	cmp	DWORD PTR [ecx+184], 5
	je	$LN1@DrawACQCur

; 2088 : 	{
; 2089 : 		//if(g_bMLU)               // JPG 9 Mar 04 - Hardcoded the negative numbers to show and made em red when they're -
; 2090 : 		//{
; 2091 : 		if (up > -1.0f)

	movss	xmm0, DWORD PTR _up$[ebp]
	comiss	xmm0, DWORD PTR __real@bf800000
	jbe	SHORT $LN5@DrawACQCur

; 2092 : 		{
; 2093 : 			sprintf(str,"%02d",(int)up);

	cvttss2si edx, DWORD PTR _up$[ebp]
	push	edx
	push	OFFSET ??_C@_04OGKJMPGK@?$CF02d?$AA@
	lea	eax, DWORD PTR _str$[ebp]
	push	eax
	call	_sprintf
	add	esp, 12					; 0000000cH

; 2094 : 			ShiAssert (strlen(str) < sizeof(str));
; 2095 : 			display->TextLeftVertical(TextLeftPos+display->TextWidth("-"), 2.0F*CursorSize, str);

	push	0
	lea	ecx, DWORD PTR _str$[ebp]
	push	ecx
	movss	xmm0, DWORD PTR __real@40000000
	mulss	xmm0, DWORD PTR ?CursorSize@?3??DrawACQCursor@RadarDopplerClass@@IAEXXZ@4MA
	push	ecx
	movss	DWORD PTR [esp], xmm0
	push	OFFSET ??_C@_01JOAMLHOP@?9?$AA@
	mov	edx, DWORD PTR _this$[ebp]
	mov	eax, DWORD PTR [edx+20]
	mov	ecx, DWORD PTR _this$[ebp]
	mov	edx, DWORD PTR [eax]
	mov	ecx, DWORD PTR [ecx+20]
	mov	eax, DWORD PTR [edx+84]
	call	eax
	fstp	DWORD PTR tv828[ebp]
	movss	xmm0, DWORD PTR tv828[ebp]
	addss	xmm0, DWORD PTR ?TextLeftPos@?6??DrawACQCursor@RadarDopplerClass@@IAEXXZ@4MA
	push	ecx
	movss	DWORD PTR [esp], xmm0
	mov	ecx, DWORD PTR _this$[ebp]
	mov	edx, DWORD PTR [ecx+20]
	mov	eax, DWORD PTR _this$[ebp]
	mov	edx, DWORD PTR [edx]
	mov	ecx, DWORD PTR [eax+20]
	mov	eax, DWORD PTR [edx+64]
	call	eax

; 2096 : 		}
; 2097 : 
; 2098 : 		else

	jmp	$LN4@DrawACQCur
$LN5@DrawACQCur:

; 2099 : 		{
; 2100 : 			sprintf(str,"%03d",(int)up);

	cvttss2si ecx, DWORD PTR _up$[ebp]
	push	ecx
	push	OFFSET ??_C@_04OHGLKFFN@?$CF03d?$AA@
	lea	edx, DWORD PTR _str$[ebp]
	push	edx
	call	_sprintf
	add	esp, 12					; 0000000cH

; 2101 : 			ShiAssert (strlen(str) < sizeof(str));
; 2102 : 			DWORD tempcolor=display->Color();

	mov	eax, DWORD PTR _this$[ebp]
	mov	ecx, DWORD PTR [eax+20]
	mov	edx, DWORD PTR _this$[ebp]
	mov	eax, DWORD PTR [ecx]
	mov	ecx, DWORD PTR [edx+20]
	mov	edx, DWORD PTR [eax+108]
	call	edx
	mov	DWORD PTR _tempcolor$2[ebp], eax

; 2103 : 			display->SetColor( GetMfdColor(MFD_RED) );

	push	2
	mov	ecx, DWORD PTR _this$[ebp]
	call	?GetMfdColor@DrawableClass@@QAEIW4MfdColor@@@Z ; DrawableClass::GetMfdColor
	push	eax
	mov	eax, DWORD PTR _this$[ebp]
	mov	ecx, DWORD PTR [eax+20]
	mov	edx, DWORD PTR _this$[ebp]
	mov	eax, DWORD PTR [ecx]
	mov	ecx, DWORD PTR [edx+20]
	mov	edx, DWORD PTR [eax+92]
	call	edx

; 2104 : 			display->TextLeftVertical(TextLeftPos, 2.0F*CursorSize, str);

	push	0
	lea	eax, DWORD PTR _str$[ebp]
	push	eax
	movss	xmm0, DWORD PTR __real@40000000
	mulss	xmm0, DWORD PTR ?CursorSize@?3??DrawACQCursor@RadarDopplerClass@@IAEXXZ@4MA
	push	ecx
	movss	DWORD PTR [esp], xmm0
	push	ecx
	movss	xmm0, DWORD PTR ?TextLeftPos@?6??DrawACQCursor@RadarDopplerClass@@IAEXXZ@4MA
	movss	DWORD PTR [esp], xmm0
	mov	ecx, DWORD PTR _this$[ebp]
	mov	edx, DWORD PTR [ecx+20]
	mov	eax, DWORD PTR _this$[ebp]
	mov	edx, DWORD PTR [edx]
	mov	ecx, DWORD PTR [eax+20]
	mov	eax, DWORD PTR [edx+64]
	call	eax

; 2105 : 			display->SetColor(tempcolor);

	mov	ecx, DWORD PTR _tempcolor$2[ebp]
	push	ecx
	mov	edx, DWORD PTR _this$[ebp]
	mov	eax, DWORD PTR [edx+20]
	mov	ecx, DWORD PTR _this$[ebp]
	mov	edx, DWORD PTR [eax]
	mov	ecx, DWORD PTR [ecx+20]
	mov	eax, DWORD PTR [edx+92]
	call	eax
$LN4@DrawACQCur:

; 2106 : 		}
; 2107 : 
; 2108 : 		if (lw > -1.0f)

	movss	xmm0, DWORD PTR _lw$[ebp]
	comiss	xmm0, DWORD PTR __real@bf800000
	jbe	$LN3@DrawACQCur

; 2109 : 		{
; 2110 : 			DWORD tempcolor=display->Color();

	mov	ecx, DWORD PTR _this$[ebp]
	mov	edx, DWORD PTR [ecx+20]
	mov	eax, DWORD PTR _this$[ebp]
	mov	edx, DWORD PTR [edx]
	mov	ecx, DWORD PTR [eax+20]
	mov	eax, DWORD PTR [edx+108]
	call	eax
	mov	DWORD PTR _tempcolor$3[ebp], eax

; 2111 : 			display->SetColor( GetMfdColor(MFD_CYAN) ); // RV - I-Hawk - Bottom cursor in cyan

	push	4
	mov	ecx, DWORD PTR _this$[ebp]
	call	?GetMfdColor@DrawableClass@@QAEIW4MfdColor@@@Z ; DrawableClass::GetMfdColor
	push	eax
	mov	ecx, DWORD PTR _this$[ebp]
	mov	edx, DWORD PTR [ecx+20]
	mov	eax, DWORD PTR _this$[ebp]
	mov	edx, DWORD PTR [edx]
	mov	ecx, DWORD PTR [eax+20]
	mov	eax, DWORD PTR [edx+92]
	call	eax

; 2112 : 			sprintf(str,"%02d",(int)lw);

	cvttss2si ecx, DWORD PTR _lw$[ebp]
	push	ecx
	push	OFFSET ??_C@_04OGKJMPGK@?$CF02d?$AA@
	lea	edx, DWORD PTR _str$[ebp]
	push	edx
	call	_sprintf
	add	esp, 12					; 0000000cH

; 2113 : 			ShiAssert (strlen(str) < sizeof(str));
; 2114 : 			display->TextLeftVertical(TextLeftPos+display->TextWidth("-"),-2.0F*CursorSize, str);

	push	0
	lea	eax, DWORD PTR _str$[ebp]
	push	eax
	movss	xmm0, DWORD PTR __real@c0000000
	mulss	xmm0, DWORD PTR ?CursorSize@?3??DrawACQCursor@RadarDopplerClass@@IAEXXZ@4MA
	push	ecx
	movss	DWORD PTR [esp], xmm0
	push	OFFSET ??_C@_01JOAMLHOP@?9?$AA@
	mov	ecx, DWORD PTR _this$[ebp]
	mov	edx, DWORD PTR [ecx+20]
	mov	eax, DWORD PTR _this$[ebp]
	mov	edx, DWORD PTR [edx]
	mov	ecx, DWORD PTR [eax+20]
	mov	eax, DWORD PTR [edx+84]
	call	eax
	fstp	DWORD PTR tv874[ebp]
	movss	xmm0, DWORD PTR tv874[ebp]
	addss	xmm0, DWORD PTR ?TextLeftPos@?6??DrawACQCursor@RadarDopplerClass@@IAEXXZ@4MA
	push	ecx
	movss	DWORD PTR [esp], xmm0
	mov	ecx, DWORD PTR _this$[ebp]
	mov	edx, DWORD PTR [ecx+20]
	mov	eax, DWORD PTR _this$[ebp]
	mov	edx, DWORD PTR [edx]
	mov	ecx, DWORD PTR [eax+20]
	mov	eax, DWORD PTR [edx+64]
	call	eax

; 2115 : 			display->SetColor(tempcolor);

	mov	ecx, DWORD PTR _tempcolor$3[ebp]
	push	ecx
	mov	edx, DWORD PTR _this$[ebp]
	mov	eax, DWORD PTR [edx+20]
	mov	ecx, DWORD PTR _this$[ebp]
	mov	edx, DWORD PTR [eax]
	mov	ecx, DWORD PTR [ecx+20]
	mov	eax, DWORD PTR [edx+92]
	call	eax

; 2116 : 		}
; 2117 : 
; 2118 : 		else

	jmp	$LN2@DrawACQCur
$LN3@DrawACQCur:

; 2119 : 		{
; 2120 : 			sprintf(str,"%03d",(int)lw);

	cvttss2si ecx, DWORD PTR _lw$[ebp]
	push	ecx
	push	OFFSET ??_C@_04OHGLKFFN@?$CF03d?$AA@
	lea	edx, DWORD PTR _str$[ebp]
	push	edx
	call	_sprintf
	add	esp, 12					; 0000000cH

; 2121 : 			ShiAssert (strlen(str) < sizeof(str));
; 2122 : 			DWORD tempcolor=display->Color();

	mov	eax, DWORD PTR _this$[ebp]
	mov	ecx, DWORD PTR [eax+20]
	mov	edx, DWORD PTR _this$[ebp]
	mov	eax, DWORD PTR [ecx]
	mov	ecx, DWORD PTR [edx+20]
	mov	edx, DWORD PTR [eax+108]
	call	edx
	mov	DWORD PTR _tempcolor$5[ebp], eax

; 2123 : 			display->SetColor( GetMfdColor(MFD_RED) );

	push	2
	mov	ecx, DWORD PTR _this$[ebp]
	call	?GetMfdColor@DrawableClass@@QAEIW4MfdColor@@@Z ; DrawableClass::GetMfdColor
	push	eax
	mov	eax, DWORD PTR _this$[ebp]
	mov	ecx, DWORD PTR [eax+20]
	mov	edx, DWORD PTR _this$[ebp]
	mov	eax, DWORD PTR [ecx]
	mov	ecx, DWORD PTR [edx+20]
	mov	edx, DWORD PTR [eax+92]
	call	edx

; 2124 : 			display->TextLeftVertical(TextLeftPos,-2.0F*CursorSize, str);

	push	0
	lea	eax, DWORD PTR _str$[ebp]
	push	eax
	movss	xmm0, DWORD PTR __real@c0000000
	mulss	xmm0, DWORD PTR ?CursorSize@?3??DrawACQCursor@RadarDopplerClass@@IAEXXZ@4MA
	push	ecx
	movss	DWORD PTR [esp], xmm0
	push	ecx
	movss	xmm0, DWORD PTR ?TextLeftPos@?6??DrawACQCursor@RadarDopplerClass@@IAEXXZ@4MA
	movss	DWORD PTR [esp], xmm0
	mov	ecx, DWORD PTR _this$[ebp]
	mov	edx, DWORD PTR [ecx+20]
	mov	eax, DWORD PTR _this$[ebp]
	mov	edx, DWORD PTR [edx]
	mov	ecx, DWORD PTR [eax+20]
	mov	eax, DWORD PTR [edx+64]
	call	eax

; 2125 : 			display->SetColor(tempcolor);

	mov	ecx, DWORD PTR _tempcolor$5[ebp]
	push	ecx
	mov	edx, DWORD PTR _this$[ebp]
	mov	eax, DWORD PTR [edx+20]
	mov	ecx, DWORD PTR _this$[ebp]
	mov	edx, DWORD PTR [eax]
	mov	ecx, DWORD PTR [ecx+20]
	mov	eax, DWORD PTR [edx+92]
	call	eax
$LN2@DrawACQCur:

; 2126 : 		}
; 2127 : 		//	}
; 2128 : 		//else
; 2129 : 		//{
; 2130 : 		//	up = min ( max (up, 0.0F), 99.0F);
; 2131 : 		//	lw = min ( max (lw, 0.0F), 99.0F);
; 2132 : 
; 2133 : 		//	sprintf(str,"%02d",(int)up);
; 2134 : 		//	ShiAssert (strlen(str) < sizeof(str));
; 2135 : 		//	display->TextLeftVertical(TextLeftPos, 2.0F*CursorSize, str);
; 2136 : 
; 2137 : 		//	sprintf(str,"%02d",(int)lw);
; 2138 : 		//	ShiAssert (strlen(str) < sizeof(str));
; 2139 : 		//	display->TextLeftVertical(TextLeftPos,-2.0F*CursorSize, str);
; 2140 : 		//	}
; 2141 : 		//Cobra 11/21/04 IFF count down hack test
; 2142 : 		AircraftClass* self = SimDriver.GetPlayerAircraft();

	mov	ecx, OFFSET ?SimDriver@@3VSimulationDriver@@A ; SimDriver
	call	?GetPlayerAircraft@SimulationDriver@@QBEPAVAircraftClass@@XZ ; SimulationDriver::GetPlayerAircraft
	mov	DWORD PTR _self$6[ebp], eax

; 2143 : 		int mode = 0;

	mov	DWORD PTR _mode$7[ebp], 0

; 2144 : 		mode = self->iffModeChallenge;

	mov	ecx, DWORD PTR _self$6[ebp]
	mov	edx, DWORD PTR [ecx+908]
	mov	DWORD PTR _mode$7[ebp], edx

; 2145 : 		if (self->runIFFInt)

	mov	eax, DWORD PTR _self$6[ebp]
	movzx	ecx, BYTE PTR [eax+901]
	test	ecx, ecx
	je	$LN1@DrawACQCur

; 2146 : 		{
; 2147 : 			sprintf(str,"%01d",(int)mode);

	mov	edx, DWORD PTR _mode$7[ebp]
	push	edx
	push	OFFSET ??_C@_04OEOPHBDD@?$CF01d?$AA@
	lea	eax, DWORD PTR _str$[ebp]
	push	eax
	call	_sprintf
	add	esp, 12					; 0000000cH

; 2148 : 			ShiAssert (strlen(str) < sizeof(str));
; 2149 : 			DWORD tempcolor=display->Color();

	mov	ecx, DWORD PTR _this$[ebp]
	mov	edx, DWORD PTR [ecx+20]
	mov	eax, DWORD PTR _this$[ebp]
	mov	edx, DWORD PTR [edx]
	mov	ecx, DWORD PTR [eax+20]
	mov	eax, DWORD PTR [edx+108]
	call	eax
	mov	DWORD PTR _tempcolor$4[ebp], eax

; 2150 : 			display->SetColor( GetMfdColor(MFD_GREEN) );

	push	0
	mov	ecx, DWORD PTR _this$[ebp]
	call	?GetMfdColor@DrawableClass@@QAEIW4MfdColor@@@Z ; DrawableClass::GetMfdColor
	push	eax
	mov	ecx, DWORD PTR _this$[ebp]
	mov	edx, DWORD PTR [ecx+20]
	mov	eax, DWORD PTR _this$[ebp]
	mov	edx, DWORD PTR [edx]
	mov	ecx, DWORD PTR [eax+20]
	mov	eax, DWORD PTR [edx+92]
	call	eax

; 2151 : 			display->TextLeftVertical(-0.21f, 2.0F*CursorSize, str);

	push	0
	lea	ecx, DWORD PTR _str$[ebp]
	push	ecx
	movss	xmm0, DWORD PTR __real@40000000
	mulss	xmm0, DWORD PTR ?CursorSize@?3??DrawACQCursor@RadarDopplerClass@@IAEXXZ@4MA
	push	ecx
	movss	DWORD PTR [esp], xmm0
	push	ecx
	movss	xmm0, DWORD PTR __real@be570a3d
	movss	DWORD PTR [esp], xmm0
	mov	edx, DWORD PTR _this$[ebp]
	mov	eax, DWORD PTR [edx+20]
	mov	ecx, DWORD PTR _this$[ebp]
	mov	edx, DWORD PTR [eax]
	mov	ecx, DWORD PTR [ecx+20]
	mov	eax, DWORD PTR [edx+64]
	call	eax

; 2152 : 			display->SetColor(tempcolor);

	mov	ecx, DWORD PTR _tempcolor$4[ebp]
	push	ecx
	mov	edx, DWORD PTR _this$[ebp]
	mov	eax, DWORD PTR [edx+20]
	mov	ecx, DWORD PTR _this$[ebp]
	mov	edx, DWORD PTR [eax]
	mov	ecx, DWORD PTR [ecx+20]
	mov	eax, DWORD PTR [edx+92]
	call	eax
$LN1@DrawACQCur:

; 2153 : 		}
; 2154 : 	}
; 2155 : 	display->SetColor(tmpColor);

	mov	ecx, DWORD PTR _tmpColor$[ebp]
	push	ecx
	mov	edx, DWORD PTR _this$[ebp]
	mov	eax, DWORD PTR [edx+20]
	mov	ecx, DWORD PTR _this$[ebp]
	mov	edx, DWORD PTR [eax]
	mov	ecx, DWORD PTR [ecx+20]
	mov	eax, DWORD PTR [edx+92]
	call	eax

; 2156 : 	display->CenterOriginInViewport();

	mov	ecx, DWORD PTR _this$[ebp]
	mov	ecx, DWORD PTR [ecx+20]
	call	?CenterOriginInViewport@VirtualDisplay@@QAEXXZ ; VirtualDisplay::CenterOriginInViewport
$LN19@DrawACQCur:

; 2157 : }

	mov	ecx, DWORD PTR __$ArrayPad$[ebp]
	xor	ecx, ebp
	call	@__security_check_cookie@4
	mov	esp, ebp
	pop	ebp
	ret	0
?DrawACQCursor@RadarDopplerClass@@IAEXXZ ENDP		; RadarDopplerClass::DrawACQCursor
_TEXT	ENDS
; Function compile flags: /Odtp
; File c:\users\zhitao li\documents\visual studio 2012\projects\freefalcon\sim\radar\bscope.cpp
_TEXT	SEGMENT
tv197 = -16						; size = 4
tv154 = -12						; size = 4
_x$ = -8						; size = 4
_this$ = -4						; size = 4
?DrawAzLimitMarkers@RadarDopplerClass@@IAEXXZ PROC	; RadarDopplerClass::DrawAzLimitMarkers
; _this$ = ecx

; 2250 : {

	push	ebp
	mov	ebp, esp
	sub	esp, 16					; 00000010H
	mov	DWORD PTR _this$[ebp], ecx

; 2251 : 	if (IsAADclt(AzBar)) return;

	push	32768					; 00008000H
	mov	ecx, DWORD PTR _this$[ebp]
	call	?IsAADclt@RadarDopplerClass@@IAEHH@Z	; RadarDopplerClass::IsAADclt
	test	eax, eax
	je	SHORT $LN3@DrawAzLimi
	jmp	$LN4@DrawAzLimi
$LN3@DrawAzLimi:

; 2252 : 	if (IsSet(STTingTarget)) return;

	push	65536					; 00010000H
	mov	ecx, DWORD PTR _this$[ebp]
	call	?IsSet@RadarDopplerClass@@QAEHH@Z	; RadarDopplerClass::IsSet
	test	eax, eax
	je	SHORT $LN2@DrawAzLimi
	jmp	$LN4@DrawAzLimi
$LN2@DrawAzLimi:

; 2253 : 	float x;
; 2254 : 	display->SetColor(GetMfdColor(MFD_FCR_AZIMUTH_SCAN_LIM));

	push	4
	mov	ecx, DWORD PTR _this$[ebp]
	call	?GetMfdColor@DrawableClass@@QAEIW4MfdColor@@@Z ; DrawableClass::GetMfdColor
	push	eax
	mov	eax, DWORD PTR _this$[ebp]
	mov	ecx, DWORD PTR [eax+20]
	mov	edx, DWORD PTR _this$[ebp]
	mov	eax, DWORD PTR [ecx]
	mov	ecx, DWORD PTR [edx+20]
	mov	edx, DWORD PTR [eax+92]
	call	edx

; 2255 : 	// az limit marker
; 2256 : 	if (azScan < MAX_ANT_EL - beamWidth)

	mov	eax, DWORD PTR _this$[ebp]
	movss	xmm0, DWORD PTR __real@3f860a91
	subss	xmm0, DWORD PTR [eax+260]
	mov	ecx, DWORD PTR _this$[ebp]
	comiss	xmm0, DWORD PTR [ecx+204]
	jbe	$LN1@DrawAzLimi

; 2257 : 	{
; 2258 : 		x = min (disDeg * (seekerAzCenter + (azScan+beamWidth)), 0.99F);

	mov	edx, DWORD PTR _this$[ebp]
	mov	eax, DWORD PTR _this$[ebp]
	movss	xmm0, DWORD PTR [edx+204]
	addss	xmm0, DWORD PTR [eax+260]
	mov	ecx, DWORD PTR _this$[ebp]
	addss	xmm0, DWORD PTR [ecx+56]
	mulss	xmm0, DWORD PTR _disDeg
	movss	xmm1, DWORD PTR __real@3f7d70a4
	comiss	xmm1, xmm0
	jbe	SHORT $LN6@DrawAzLimi
	mov	edx, DWORD PTR _this$[ebp]
	mov	eax, DWORD PTR _this$[ebp]
	movss	xmm0, DWORD PTR [edx+204]
	addss	xmm0, DWORD PTR [eax+260]
	mov	ecx, DWORD PTR _this$[ebp]
	addss	xmm0, DWORD PTR [ecx+56]
	mulss	xmm0, DWORD PTR _disDeg
	movss	DWORD PTR tv154[ebp], xmm0
	jmp	SHORT $LN7@DrawAzLimi
$LN6@DrawAzLimi:
	movss	xmm0, DWORD PTR __real@3f7d70a4
	movss	DWORD PTR tv154[ebp], xmm0
$LN7@DrawAzLimi:
	movss	xmm0, DWORD PTR tv154[ebp]
	movss	DWORD PTR _x$[ebp], xmm0

; 2259 : 		display->Line (x , 1.0F, x, -1.0F);

	push	ecx
	movss	xmm0, DWORD PTR __real@bf800000
	movss	DWORD PTR [esp], xmm0
	push	ecx
	movss	xmm0, DWORD PTR _x$[ebp]
	movss	DWORD PTR [esp], xmm0
	push	ecx
	movss	xmm0, DWORD PTR __real@3f800000
	movss	DWORD PTR [esp], xmm0
	push	ecx
	movss	xmm0, DWORD PTR _x$[ebp]
	movss	DWORD PTR [esp], xmm0
	mov	edx, DWORD PTR _this$[ebp]
	mov	eax, DWORD PTR [edx+20]
	mov	ecx, DWORD PTR _this$[ebp]
	mov	edx, DWORD PTR [eax]
	mov	ecx, DWORD PTR [ecx+20]
	mov	eax, DWORD PTR [edx+32]
	call	eax

; 2260 : 
; 2261 : 		x = max (disDeg * (seekerAzCenter - (azScan+beamWidth)), -0.99F);

	mov	ecx, DWORD PTR _this$[ebp]
	mov	edx, DWORD PTR _this$[ebp]
	movss	xmm0, DWORD PTR [ecx+204]
	addss	xmm0, DWORD PTR [edx+260]
	mov	eax, DWORD PTR _this$[ebp]
	movss	xmm1, DWORD PTR [eax+56]
	subss	xmm1, xmm0
	mulss	xmm1, DWORD PTR _disDeg
	comiss	xmm1, DWORD PTR __real@bf7d70a4
	jbe	SHORT $LN8@DrawAzLimi
	mov	ecx, DWORD PTR _this$[ebp]
	mov	edx, DWORD PTR _this$[ebp]
	movss	xmm0, DWORD PTR [ecx+204]
	addss	xmm0, DWORD PTR [edx+260]
	mov	eax, DWORD PTR _this$[ebp]
	movss	xmm1, DWORD PTR [eax+56]
	subss	xmm1, xmm0
	mulss	xmm1, DWORD PTR _disDeg
	movss	DWORD PTR tv197[ebp], xmm1
	jmp	SHORT $LN9@DrawAzLimi
$LN8@DrawAzLimi:
	movss	xmm0, DWORD PTR __real@bf7d70a4
	movss	DWORD PTR tv197[ebp], xmm0
$LN9@DrawAzLimi:
	movss	xmm0, DWORD PTR tv197[ebp]
	movss	DWORD PTR _x$[ebp], xmm0

; 2262 : 		display->Line (x , 1.0F, x, -1.0F);

	push	ecx
	movss	xmm0, DWORD PTR __real@bf800000
	movss	DWORD PTR [esp], xmm0
	push	ecx
	movss	xmm0, DWORD PTR _x$[ebp]
	movss	DWORD PTR [esp], xmm0
	push	ecx
	movss	xmm0, DWORD PTR __real@3f800000
	movss	DWORD PTR [esp], xmm0
	push	ecx
	movss	xmm0, DWORD PTR _x$[ebp]
	movss	DWORD PTR [esp], xmm0
	mov	ecx, DWORD PTR _this$[ebp]
	mov	edx, DWORD PTR [ecx+20]
	mov	eax, DWORD PTR _this$[ebp]
	mov	edx, DWORD PTR [edx]
	mov	ecx, DWORD PTR [eax+20]
	mov	eax, DWORD PTR [edx+32]
	call	eax
$LN1@DrawAzLimi:
$LN4@DrawAzLimi:

; 2263 : 	}
; 2264 : }

	mov	esp, ebp
	pop	ebp
	ret	0
?DrawAzLimitMarkers@RadarDopplerClass@@IAEXXZ ENDP	; RadarDopplerClass::DrawAzLimitMarkers
_TEXT	ENDS
; Function compile flags: /Odtp
; File c:\users\zhitao li\documents\visual studio 2012\projects\freefalcon\sim\radar\bscope.cpp
_TEXT	SEGMENT
_x19$ = -32						; size = 4
_x18$ = -28						; size = 4
_y19$ = -24						; size = 4
_y18$ = -20						; size = 4
_this$ = -16						; size = 4
_str$ = -12						; size = 8
__$ArrayPad$ = -4					; size = 4
?DrawRange@RadarDopplerClass@@IAEXXZ PROC		; RadarDopplerClass::DrawRange
; _this$ = ecx

; 784  : {

	push	ebp
	mov	ebp, esp
	sub	esp, 32					; 00000020H
	mov	eax, DWORD PTR ___security_cookie
	xor	eax, ebp
	mov	DWORD PTR __$ArrayPad$[ebp], eax
	mov	DWORD PTR _this$[ebp], ecx

; 785  : 	char str[8];
; 786  : 	if (IsSet(MenuMode|CtlMode)) return;

	push	3145728					; 00300000H
	mov	ecx, DWORD PTR _this$[ebp]
	call	?IsSet@RadarDopplerClass@@QAEHH@Z	; RadarDopplerClass::IsSet
	test	eax, eax
	je	SHORT $LN1@DrawRange
	jmp	$LN2@DrawRange
$LN1@DrawRange:

; 787  : 
; 788  : 	display->SetColor( GetMfdColor( MFD_LABELS ) );

	push	0
	mov	ecx, DWORD PTR _this$[ebp]
	call	?GetMfdColor@DrawableClass@@QAEIW4MfdColor@@@Z ; DrawableClass::GetMfdColor
	push	eax
	mov	eax, DWORD PTR _this$[ebp]
	mov	ecx, DWORD PTR [eax+20]
	mov	edx, DWORD PTR _this$[ebp]
	mov	eax, DWORD PTR [ecx]
	mov	ecx, DWORD PTR [edx+20]
	mov	edx, DWORD PTR [eax+92]
	call	edx

; 789  : 	float x18, y18;
; 790  : 	float x19, y19;
; 791  : 	GetButtonPos(18, &x18, &y18);

	lea	eax, DWORD PTR _y18$[ebp]
	push	eax
	lea	ecx, DWORD PTR _x18$[ebp]
	push	ecx
	push	18					; 00000012H
	mov	ecx, DWORD PTR _this$[ebp]
	call	?GetButtonPos@DrawableClass@@QAEXHPAM0@Z ; DrawableClass::GetButtonPos

; 792  : 	GetButtonPos(19, &x19, &y19);

	lea	edx, DWORD PTR _y19$[ebp]
	push	edx
	lea	eax, DWORD PTR _x19$[ebp]
	push	eax
	push	19					; 00000013H
	mov	ecx, DWORD PTR _this$[ebp]
	call	?GetButtonPos@DrawableClass@@QAEXHPAM0@Z ; DrawableClass::GetButtonPos

; 793  : 	sprintf(str,"%.0f",displayRange);

	mov	ecx, DWORD PTR _this$[ebp]
	cvtss2sd xmm0, DWORD PTR [ecx+212]
	sub	esp, 8
	movsd	QWORD PTR [esp], xmm0
	push	OFFSET ??_C@_04GHNNFJCK@?$CF?40f?$AA@
	lea	edx, DWORD PTR _str$[ebp]
	push	edx
	call	_sprintf
	add	esp, 16					; 00000010H

; 794  : 	ShiAssert (strlen(str) < sizeof(str));
; 795  : 	display->TextLeftVertical(x18, y18 + (y19-y18)/2, str);

	push	0
	lea	eax, DWORD PTR _str$[ebp]
	push	eax
	movss	xmm0, DWORD PTR _y19$[ebp]
	subss	xmm0, DWORD PTR _y18$[ebp]
	divss	xmm0, DWORD PTR __real@40000000
	addss	xmm0, DWORD PTR _y18$[ebp]
	push	ecx
	movss	DWORD PTR [esp], xmm0
	push	ecx
	movss	xmm0, DWORD PTR _x18$[ebp]
	movss	DWORD PTR [esp], xmm0
	mov	ecx, DWORD PTR _this$[ebp]
	mov	edx, DWORD PTR [ecx+20]
	mov	eax, DWORD PTR _this$[ebp]
	mov	edx, DWORD PTR [edx]
	mov	ecx, DWORD PTR [eax+20]
	mov	eax, DWORD PTR [edx+64]
	call	eax
$LN2@DrawRange:

; 796  : }

	mov	ecx, DWORD PTR __$ArrayPad$[ebp]
	xor	ecx, ebp
	call	@__security_check_cookie@4
	mov	esp, ebp
	pop	ebp
	ret	0
?DrawRange@RadarDopplerClass@@IAEXXZ ENDP		; RadarDopplerClass::DrawRange
_TEXT	ENDS
; Function compile flags: /Odtp
; File c:\users\zhitao li\documents\visual studio 2012\projects\freefalcon\sim\radar\bscope.cpp
_TEXT	SEGMENT
_x18$ = -20						; size = 4
_y18$ = -16						; size = 4
_x19$ = -12						; size = 4
_y19$ = -8						; size = 4
_this$ = -4						; size = 4
?DrawRangeArrows@RadarDopplerClass@@IAEXXZ PROC		; RadarDopplerClass::DrawRangeArrows
; _this$ = ecx

; 799  : {

	push	ebp
	mov	ebp, esp
	sub	esp, 20					; 00000014H
	mov	DWORD PTR _this$[ebp], ecx

; 800  : 	static const float arrowH = 0.0375f;
; 801  : 	static const float arrowW = 0.0433f;
; 802  : 	if (IsSet(MenuMode|CtlMode)) return; // JPO special modes

	push	3145728					; 00300000H
	mov	ecx, DWORD PTR _this$[ebp]
	call	?IsSet@RadarDopplerClass@@QAEHH@Z	; RadarDopplerClass::IsSet
	test	eax, eax
	je	SHORT $LN12@DrawRangeA
	jmp	$LN13@DrawRangeA
$LN12@DrawRangeA:

; 803  : 
; 804  : 	float x18, y18;
; 805  : 	float x19, y19;
; 806  : 	GetButtonPos(18, &x18, &y18); // work out button positions.

	lea	eax, DWORD PTR _y18$[ebp]
	push	eax
	lea	ecx, DWORD PTR _x18$[ebp]
	push	ecx
	push	18					; 00000012H
	mov	ecx, DWORD PTR _this$[ebp]
	call	?GetButtonPos@DrawableClass@@QAEXHPAM0@Z ; DrawableClass::GetButtonPos

; 807  : 	GetButtonPos(19, &x19, &y19);

	lea	edx, DWORD PTR _y19$[ebp]
	push	edx
	lea	eax, DWORD PTR _x19$[ebp]
	push	eax
	push	19					; 00000013H
	mov	ecx, DWORD PTR _this$[ebp]
	call	?GetButtonPos@DrawableClass@@QAEXHPAM0@Z ; DrawableClass::GetButtonPos

; 808  : 	/*----------*/
; 809  : 	/* up arrow */
; 810  : 	/*----------*/
; 811  : 	display->SetColor(GetMfdColor(MFD_LABELS));

	push	0
	mov	ecx, DWORD PTR _this$[ebp]
	call	?GetMfdColor@DrawableClass@@QAEIW4MfdColor@@@Z ; DrawableClass::GetMfdColor
	push	eax
	mov	ecx, DWORD PTR _this$[ebp]
	mov	edx, DWORD PTR [ecx+20]
	mov	eax, DWORD PTR _this$[ebp]
	mov	edx, DWORD PTR [edx]
	mov	ecx, DWORD PTR [eax+20]
	mov	eax, DWORD PTR [edx+92]
	call	eax

; 812  : 	display->AdjustOriginInViewport(x19 + arrowW, y19 + arrowH/2);

	movss	xmm0, DWORD PTR ?arrowH@?1??DrawRangeArrows@RadarDopplerClass@@IAEXXZ@4MB
	divss	xmm0, DWORD PTR __real@40000000
	addss	xmm0, DWORD PTR _y19$[ebp]
	push	ecx
	movss	DWORD PTR [esp], xmm0
	movss	xmm0, DWORD PTR _x19$[ebp]
	addss	xmm0, DWORD PTR ?arrowW@?1??DrawRangeArrows@RadarDopplerClass@@IAEXXZ@4MB
	push	ecx
	movss	DWORD PTR [esp], xmm0
	mov	ecx, DWORD PTR _this$[ebp]
	mov	ecx, DWORD PTR [ecx+20]
	call	?AdjustOriginInViewport@VirtualDisplay@@QAEXMM@Z ; VirtualDisplay::AdjustOriginInViewport

; 813  : 	//MI 
; 814  : 	if(g_bRealisticAvionics && (mode == GM || mode == GMT || mode == SEA))

	movzx	edx, BYTE PTR ?g_bRealisticAvionics@@3_NA ; g_bRealisticAvionics
	test	edx, edx
	je	$LN11@DrawRangeA
	mov	eax, DWORD PTR _this$[ebp]
	cmp	DWORD PTR [eax+184], 14			; 0000000eH
	je	SHORT $LN10@DrawRangeA
	mov	ecx, DWORD PTR _this$[ebp]
	cmp	DWORD PTR [ecx+184], 16			; 00000010H
	je	SHORT $LN10@DrawRangeA
	mov	edx, DWORD PTR _this$[ebp]
	cmp	DWORD PTR [edx+184], 17			; 00000011H
	jne	$LN11@DrawRangeA
$LN10@DrawRangeA:

; 815  : 	{
; 816  : 		if(mode == GMT || mode == SEA)

	mov	eax, DWORD PTR _this$[ebp]
	cmp	DWORD PTR [eax+184], 16			; 00000010H
	je	SHORT $LN8@DrawRangeA
	mov	ecx, DWORD PTR _this$[ebp]
	cmp	DWORD PTR [ecx+184], 17			; 00000011H
	jne	$LN9@DrawRangeA
$LN8@DrawRangeA:

; 817  : 		{
; 818  : 			if(curRangeIdx < NUM_RANGES - 3)

	mov	edx, DWORD PTR _this$[ebp]
	cmp	DWORD PTR [edx+388], 2
	jge	SHORT $LN7@DrawRangeA

; 819  : 				display->Tri (0.0F, arrowH, arrowW, -arrowH, -arrowW, -arrowH);

	movss	xmm0, DWORD PTR ?arrowH@?1??DrawRangeArrows@RadarDopplerClass@@IAEXXZ@4MB
	xorps	xmm0, DWORD PTR __xmm@80000000800000008000000080000000
	push	ecx
	movss	DWORD PTR [esp], xmm0
	movss	xmm0, DWORD PTR ?arrowW@?1??DrawRangeArrows@RadarDopplerClass@@IAEXXZ@4MB
	xorps	xmm0, DWORD PTR __xmm@80000000800000008000000080000000
	push	ecx
	movss	DWORD PTR [esp], xmm0
	movss	xmm0, DWORD PTR ?arrowH@?1??DrawRangeArrows@RadarDopplerClass@@IAEXXZ@4MB
	xorps	xmm0, DWORD PTR __xmm@80000000800000008000000080000000
	push	ecx
	movss	DWORD PTR [esp], xmm0
	push	ecx
	movss	xmm0, DWORD PTR ?arrowW@?1??DrawRangeArrows@RadarDopplerClass@@IAEXXZ@4MB
	movss	DWORD PTR [esp], xmm0
	push	ecx
	movss	xmm0, DWORD PTR ?arrowH@?1??DrawRangeArrows@RadarDopplerClass@@IAEXXZ@4MB
	movss	DWORD PTR [esp], xmm0
	push	ecx
	movss	xmm0, DWORD PTR __real@00000000
	movss	DWORD PTR [esp], xmm0
	mov	eax, DWORD PTR _this$[ebp]
	mov	ecx, DWORD PTR [eax+20]
	mov	edx, DWORD PTR _this$[ebp]
	mov	eax, DWORD PTR [ecx]
	mov	ecx, DWORD PTR [edx+20]
	mov	edx, DWORD PTR [eax+36]
	call	edx
$LN7@DrawRangeA:

; 820  : 		}

	jmp	$LN4@DrawRangeA
$LN9@DrawRangeA:

; 821  : 		else if(mode == GM)

	mov	eax, DWORD PTR _this$[ebp]
	cmp	DWORD PTR [eax+184], 14			; 0000000eH
	jne	$LN4@DrawRangeA

; 822  : 		{
; 823  : 			if(curRangeIdx < NUM_RANGES - 2)

	mov	ecx, DWORD PTR _this$[ebp]
	cmp	DWORD PTR [ecx+388], 3
	jge	SHORT $LN4@DrawRangeA

; 824  : 				display->Tri (0.0F, arrowH, arrowW, -arrowH, -arrowW, -arrowH);

	movss	xmm0, DWORD PTR ?arrowH@?1??DrawRangeArrows@RadarDopplerClass@@IAEXXZ@4MB
	xorps	xmm0, DWORD PTR __xmm@80000000800000008000000080000000
	push	ecx
	movss	DWORD PTR [esp], xmm0
	movss	xmm0, DWORD PTR ?arrowW@?1??DrawRangeArrows@RadarDopplerClass@@IAEXXZ@4MB
	xorps	xmm0, DWORD PTR __xmm@80000000800000008000000080000000
	push	ecx
	movss	DWORD PTR [esp], xmm0
	movss	xmm0, DWORD PTR ?arrowH@?1??DrawRangeArrows@RadarDopplerClass@@IAEXXZ@4MB
	xorps	xmm0, DWORD PTR __xmm@80000000800000008000000080000000
	push	ecx
	movss	DWORD PTR [esp], xmm0
	push	ecx
	movss	xmm0, DWORD PTR ?arrowW@?1??DrawRangeArrows@RadarDopplerClass@@IAEXXZ@4MB
	movss	DWORD PTR [esp], xmm0
	push	ecx
	movss	xmm0, DWORD PTR ?arrowH@?1??DrawRangeArrows@RadarDopplerClass@@IAEXXZ@4MB
	movss	DWORD PTR [esp], xmm0
	push	ecx
	movss	xmm0, DWORD PTR __real@00000000
	movss	DWORD PTR [esp], xmm0
	mov	edx, DWORD PTR _this$[ebp]
	mov	eax, DWORD PTR [edx+20]
	mov	ecx, DWORD PTR _this$[ebp]
	mov	edx, DWORD PTR [eax]
	mov	ecx, DWORD PTR [ecx+20]
	mov	eax, DWORD PTR [edx+36]
	call	eax
$LN4@DrawRangeA:

; 825  : 		}
; 826  : 	}

	jmp	$LN2@DrawRangeA
$LN11@DrawRangeA:

; 827  : 	else if (curRangeIdx < NUM_RANGES - 1) 

	mov	ecx, DWORD PTR _this$[ebp]
	cmp	DWORD PTR [ecx+388], 4
	jge	SHORT $LN2@DrawRangeA

; 828  : 	{
; 829  : 		display->Tri (0.0F, arrowH, arrowW, -arrowH, -arrowW, -arrowH);

	movss	xmm0, DWORD PTR ?arrowH@?1??DrawRangeArrows@RadarDopplerClass@@IAEXXZ@4MB
	xorps	xmm0, DWORD PTR __xmm@80000000800000008000000080000000
	push	ecx
	movss	DWORD PTR [esp], xmm0
	movss	xmm0, DWORD PTR ?arrowW@?1??DrawRangeArrows@RadarDopplerClass@@IAEXXZ@4MB
	xorps	xmm0, DWORD PTR __xmm@80000000800000008000000080000000
	push	ecx
	movss	DWORD PTR [esp], xmm0
	movss	xmm0, DWORD PTR ?arrowH@?1??DrawRangeArrows@RadarDopplerClass@@IAEXXZ@4MB
	xorps	xmm0, DWORD PTR __xmm@80000000800000008000000080000000
	push	ecx
	movss	DWORD PTR [esp], xmm0
	push	ecx
	movss	xmm0, DWORD PTR ?arrowW@?1??DrawRangeArrows@RadarDopplerClass@@IAEXXZ@4MB
	movss	DWORD PTR [esp], xmm0
	push	ecx
	movss	xmm0, DWORD PTR ?arrowH@?1??DrawRangeArrows@RadarDopplerClass@@IAEXXZ@4MB
	movss	DWORD PTR [esp], xmm0
	push	ecx
	movss	xmm0, DWORD PTR __real@00000000
	movss	DWORD PTR [esp], xmm0
	mov	edx, DWORD PTR _this$[ebp]
	mov	eax, DWORD PTR [edx+20]
	mov	ecx, DWORD PTR _this$[ebp]
	mov	edx, DWORD PTR [eax]
	mov	ecx, DWORD PTR [ecx+20]
	mov	eax, DWORD PTR [edx+36]
	call	eax
$LN2@DrawRangeA:

; 830  : 	}
; 831  : 	/*------------*/
; 832  : 	/* down arrow */
; 833  : 	/*------------*/
; 834  : 	if (curRangeIdx > 0) {

	mov	ecx, DWORD PTR _this$[ebp]
	cmp	DWORD PTR [ecx+388], 0
	jle	$LN1@DrawRangeA

; 835  : 		display->CenterOriginInViewport();

	mov	edx, DWORD PTR _this$[ebp]
	mov	ecx, DWORD PTR [edx+20]
	call	?CenterOriginInViewport@VirtualDisplay@@QAEXXZ ; VirtualDisplay::CenterOriginInViewport

; 836  : 		display->AdjustOriginInViewport( x18 + arrowW, y18 - arrowH/2);

	movss	xmm0, DWORD PTR ?arrowH@?1??DrawRangeArrows@RadarDopplerClass@@IAEXXZ@4MB
	divss	xmm0, DWORD PTR __real@40000000
	movss	xmm1, DWORD PTR _y18$[ebp]
	subss	xmm1, xmm0
	push	ecx
	movss	DWORD PTR [esp], xmm1
	movss	xmm0, DWORD PTR _x18$[ebp]
	addss	xmm0, DWORD PTR ?arrowW@?1??DrawRangeArrows@RadarDopplerClass@@IAEXXZ@4MB
	push	ecx
	movss	DWORD PTR [esp], xmm0
	mov	eax, DWORD PTR _this$[ebp]
	mov	ecx, DWORD PTR [eax+20]
	call	?AdjustOriginInViewport@VirtualDisplay@@QAEXMM@Z ; VirtualDisplay::AdjustOriginInViewport

; 837  : 		display->Tri (0.0F, -arrowH, arrowW, arrowH, -arrowW, arrowH);

	push	ecx
	movss	xmm0, DWORD PTR ?arrowH@?1??DrawRangeArrows@RadarDopplerClass@@IAEXXZ@4MB
	movss	DWORD PTR [esp], xmm0
	movss	xmm0, DWORD PTR ?arrowW@?1??DrawRangeArrows@RadarDopplerClass@@IAEXXZ@4MB
	xorps	xmm0, DWORD PTR __xmm@80000000800000008000000080000000
	push	ecx
	movss	DWORD PTR [esp], xmm0
	push	ecx
	movss	xmm0, DWORD PTR ?arrowH@?1??DrawRangeArrows@RadarDopplerClass@@IAEXXZ@4MB
	movss	DWORD PTR [esp], xmm0
	push	ecx
	movss	xmm0, DWORD PTR ?arrowW@?1??DrawRangeArrows@RadarDopplerClass@@IAEXXZ@4MB
	movss	DWORD PTR [esp], xmm0
	movss	xmm0, DWORD PTR ?arrowH@?1??DrawRangeArrows@RadarDopplerClass@@IAEXXZ@4MB
	xorps	xmm0, DWORD PTR __xmm@80000000800000008000000080000000
	push	ecx
	movss	DWORD PTR [esp], xmm0
	push	ecx
	movss	xmm0, DWORD PTR __real@00000000
	movss	DWORD PTR [esp], xmm0
	mov	ecx, DWORD PTR _this$[ebp]
	mov	edx, DWORD PTR [ecx+20]
	mov	eax, DWORD PTR _this$[ebp]
	mov	edx, DWORD PTR [edx]
	mov	ecx, DWORD PTR [eax+20]
	mov	eax, DWORD PTR [edx+36]
	call	eax
$LN1@DrawRangeA:

; 838  : 	}
; 839  : 	display->CenterOriginInViewport();

	mov	ecx, DWORD PTR _this$[ebp]
	mov	ecx, DWORD PTR [ecx+20]
	call	?CenterOriginInViewport@VirtualDisplay@@QAEXXZ ; VirtualDisplay::CenterOriginInViewport
$LN13@DrawRangeA:

; 840  : }

	mov	esp, ebp
	pop	ebp
	ret	0
?DrawRangeArrows@RadarDopplerClass@@IAEXXZ ENDP		; RadarDopplerClass::DrawRangeArrows
_TEXT	ENDS
; Function compile flags: /Odtp
; File c:\users\zhitao li\documents\visual studio 2012\projects\freefalcon\sim\radar\bscope.cpp
_TEXT	SEGMENT
_this$ = -4						; size = 4
?DrawRangeTicks@RadarDopplerClass@@IAEXXZ PROC		; RadarDopplerClass::DrawRangeTicks
; _this$ = ecx

; 773  : {

	push	ebp
	mov	ebp, esp
	push	ecx
	mov	DWORD PTR _this$[ebp], ecx

; 774  : 	static const float Hstart	= 0.90f;
; 775  : 	static const float Hstop	= 0.98f;
; 776  : 
; 777  : 	display->SetColor(GetMfdColor(MFD_LABELS));

	push	0
	mov	ecx, DWORD PTR _this$[ebp]
	call	?GetMfdColor@DrawableClass@@QAEIW4MfdColor@@@Z ; DrawableClass::GetMfdColor
	push	eax
	mov	eax, DWORD PTR _this$[ebp]
	mov	ecx, DWORD PTR [eax+20]
	mov	edx, DWORD PTR _this$[ebp]
	mov	eax, DWORD PTR [ecx]
	mov	ecx, DWORD PTR [edx+20]
	mov	edx, DWORD PTR [eax+92]
	call	edx

; 778  : 	display->Line (	Hstart,	 0.0f,	Hstop,  0.0f );

	push	ecx
	movss	xmm0, DWORD PTR __real@00000000
	movss	DWORD PTR [esp], xmm0
	push	ecx
	movss	xmm0, DWORD PTR ?Hstop@?1??DrawRangeTicks@RadarDopplerClass@@IAEXXZ@4MB
	movss	DWORD PTR [esp], xmm0
	push	ecx
	movss	xmm0, DWORD PTR __real@00000000
	movss	DWORD PTR [esp], xmm0
	push	ecx
	movss	xmm0, DWORD PTR ?Hstart@?1??DrawRangeTicks@RadarDopplerClass@@IAEXXZ@4MB
	movss	DWORD PTR [esp], xmm0
	mov	eax, DWORD PTR _this$[ebp]
	mov	ecx, DWORD PTR [eax+20]
	mov	edx, DWORD PTR _this$[ebp]
	mov	eax, DWORD PTR [ecx]
	mov	ecx, DWORD PTR [edx+20]
	mov	edx, DWORD PTR [eax+32]
	call	edx

; 779  : 	display->Line (	Hstart,	 0.5f,	Hstop,  0.5f );

	push	ecx
	movss	xmm0, DWORD PTR __real@3f000000
	movss	DWORD PTR [esp], xmm0
	push	ecx
	movss	xmm0, DWORD PTR ?Hstop@?1??DrawRangeTicks@RadarDopplerClass@@IAEXXZ@4MB
	movss	DWORD PTR [esp], xmm0
	push	ecx
	movss	xmm0, DWORD PTR __real@3f000000
	movss	DWORD PTR [esp], xmm0
	push	ecx
	movss	xmm0, DWORD PTR ?Hstart@?1??DrawRangeTicks@RadarDopplerClass@@IAEXXZ@4MB
	movss	DWORD PTR [esp], xmm0
	mov	eax, DWORD PTR _this$[ebp]
	mov	ecx, DWORD PTR [eax+20]
	mov	edx, DWORD PTR _this$[ebp]
	mov	eax, DWORD PTR [ecx]
	mov	ecx, DWORD PTR [edx+20]
	mov	edx, DWORD PTR [eax+32]
	call	edx

; 780  : 	display->Line (	Hstart,	-0.5f,	Hstop, -0.5f );

	push	ecx
	movss	xmm0, DWORD PTR __real@bf000000
	movss	DWORD PTR [esp], xmm0
	push	ecx
	movss	xmm0, DWORD PTR ?Hstop@?1??DrawRangeTicks@RadarDopplerClass@@IAEXXZ@4MB
	movss	DWORD PTR [esp], xmm0
	push	ecx
	movss	xmm0, DWORD PTR __real@bf000000
	movss	DWORD PTR [esp], xmm0
	push	ecx
	movss	xmm0, DWORD PTR ?Hstart@?1??DrawRangeTicks@RadarDopplerClass@@IAEXXZ@4MB
	movss	DWORD PTR [esp], xmm0
	mov	eax, DWORD PTR _this$[ebp]
	mov	ecx, DWORD PTR [eax+20]
	mov	edx, DWORD PTR _this$[ebp]
	mov	eax, DWORD PTR [ecx]
	mov	ecx, DWORD PTR [edx+20]
	mov	edx, DWORD PTR [eax+32]
	call	edx

; 781  : }

	mov	esp, ebp
	pop	ebp
	ret	0
?DrawRangeTicks@RadarDopplerClass@@IAEXXZ ENDP		; RadarDopplerClass::DrawRangeTicks
_TEXT	ENDS
; Function compile flags: /Odtp
; File c:\users\zhitao li\documents\visual studio 2012\projects\freefalcon\sim\include\radardoppler.h
;	COMDAT ?IsIFFFlags@RadarDopplerClass@@IAEHH@Z
_TEXT	SEGMENT
_this$ = -8						; size = 4
tv67 = -4						; size = 4
_flag$ = 8						; size = 4
?IsIFFFlags@RadarDopplerClass@@IAEHH@Z PROC		; RadarDopplerClass::IsIFFFlags, COMDAT
; _this$ = ecx

; 369  :    int IsIFFFlags(int flag) { return (iffmodeflags & flag) ? 1 : 0; };

	push	ebp
	mov	ebp, esp
	sub	esp, 8
	mov	DWORD PTR _this$[ebp], ecx
	mov	eax, DWORD PTR _this$[ebp]
	mov	ecx, DWORD PTR [eax+572]
	and	ecx, DWORD PTR _flag$[ebp]
	je	SHORT $LN3@IsIFFFlags
	mov	DWORD PTR tv67[ebp], 1
	jmp	SHORT $LN4@IsIFFFlags
$LN3@IsIFFFlags:
	mov	DWORD PTR tv67[ebp], 0
$LN4@IsIFFFlags:
	mov	eax, DWORD PTR tv67[ebp]
	mov	esp, ebp
	pop	ebp
	ret	4
?IsIFFFlags@RadarDopplerClass@@IAEHH@Z ENDP		; RadarDopplerClass::IsIFFFlags
_TEXT	ENDS
; Function compile flags: /Odtp
; File c:\users\zhitao li\documents\visual studio 2012\projects\freefalcon\sim\include\radardoppler.h
;	COMDAT ?IsAADclt@RadarDopplerClass@@IAEHH@Z
_TEXT	SEGMENT
tv72 = -8						; size = 4
_this$ = -4						; size = 4
_flg$ = 8						; size = 4
?IsAADclt@RadarDopplerClass@@IAEHH@Z PROC		; RadarDopplerClass::IsAADclt, COMDAT
; _this$ = ecx

; 254  : 	int IsAADclt(int flg) { return IsSet(AADecluttered) && IsAADcltBit(flg); };

	push	ebp
	mov	ebp, esp
	sub	esp, 8
	mov	DWORD PTR _this$[ebp], ecx
	push	262144					; 00040000H
	mov	ecx, DWORD PTR _this$[ebp]
	call	?IsSet@RadarDopplerClass@@QAEHH@Z	; RadarDopplerClass::IsSet
	test	eax, eax
	je	SHORT $LN3@IsAADclt
	mov	eax, DWORD PTR _flg$[ebp]
	push	eax
	mov	ecx, DWORD PTR _this$[ebp]
	call	?IsAADcltBit@RadarDopplerClass@@IAEHH@Z	; RadarDopplerClass::IsAADcltBit
	test	eax, eax
	je	SHORT $LN3@IsAADclt
	mov	DWORD PTR tv72[ebp], 1
	jmp	SHORT $LN4@IsAADclt
$LN3@IsAADclt:
	mov	DWORD PTR tv72[ebp], 0
$LN4@IsAADclt:
	mov	eax, DWORD PTR tv72[ebp]
	mov	esp, ebp
	pop	ebp
	ret	4
?IsAADclt@RadarDopplerClass@@IAEHH@Z ENDP		; RadarDopplerClass::IsAADclt
_TEXT	ENDS
; Function compile flags: /Odtp
; File c:\users\zhitao li\documents\visual studio 2012\projects\freefalcon\sim\include\radardoppler.h
;	COMDAT ?IsAADcltBit@RadarDopplerClass@@IAEHH@Z
_TEXT	SEGMENT
_this$ = -8						; size = 4
tv67 = -4						; size = 4
_newFlag$ = 8						; size = 4
?IsAADcltBit@RadarDopplerClass@@IAEHH@Z PROC		; RadarDopplerClass::IsAADcltBit, COMDAT
; _this$ = ecx

; 253  : 	int  IsAADcltBit(int newFlag) {return (newFlag & aadclt) ? TRUE : FALSE;};

	push	ebp
	mov	ebp, esp
	sub	esp, 8
	mov	DWORD PTR _this$[ebp], ecx
	mov	eax, DWORD PTR _this$[ebp]
	mov	ecx, DWORD PTR _newFlag$[ebp]
	and	ecx, DWORD PTR [eax+496]
	je	SHORT $LN3@IsAADcltBi
	mov	DWORD PTR tv67[ebp], 1
	jmp	SHORT $LN4@IsAADcltBi
$LN3@IsAADcltBi:
	mov	DWORD PTR tv67[ebp], 0
$LN4@IsAADcltBi:
	mov	eax, DWORD PTR tv67[ebp]
	mov	esp, ebp
	pop	ebp
	ret	4
?IsAADcltBit@RadarDopplerClass@@IAEHH@Z ENDP		; RadarDopplerClass::IsAADcltBit
_TEXT	ENDS
; Function compile flags: /Odtp
; File c:\users\zhitao li\documents\visual studio 2012\projects\freefalcon\sim\radar\bscope.cpp
_TEXT	SEGMENT
tv154 = -20						; size = 4
_this$ = -16						; size = 4
tv129 = -12						; size = 4
tv128 = -8						; size = 4
_az$ = -4						; size = 4
_localData$ = 8						; size = 4
_hist$ = 12						; size = 4
_drange$ = 16						; size = 4
_x$ = 20						; size = 4
_y$ = 24						; size = 4
?TargetToXY@RadarDopplerClass@@QAEXPAVSimObjectLocalData@@HMPAM1@Z PROC ; RadarDopplerClass::TargetToXY
; _this$ = ecx

; 2886 : {

	push	ebp
	mov	ebp, esp
	sub	esp, 20					; 00000014H
	mov	DWORD PTR _this$[ebp], ecx

; 2887 : 	// JB 010730 cursor position gets messed up.
; 2888 : 	if (localData->rdrX[hist] == 0 && localData->rdrY[hist] == 0)

	mov	eax, DWORD PTR _hist$[ebp]
	mov	ecx, DWORD PTR _localData$[ebp]
	movss	xmm0, DWORD PTR [ecx+eax*4+88]
	ucomiss	xmm0, DWORD PTR __real@00000000
	lahf
	test	ah, 68					; 00000044H
	jp	SHORT $LN1@TargetToXY
	mov	edx, DWORD PTR _hist$[ebp]
	mov	eax, DWORD PTR _localData$[ebp]
	movss	xmm0, DWORD PTR [eax+edx*4+104]
	ucomiss	xmm0, DWORD PTR __real@00000000
	lahf
	test	ah, 68					; 00000044H
	jp	SHORT $LN1@TargetToXY

; 2889 : 		return;

	jmp	$LN2@TargetToXY
$LN1@TargetToXY:

; 2890 : 
; 2891 : 	float az;
; 2892 : 	/*-----------------------------------------------*/
; 2893 : 	/* azimuth corrected for ownship heading changes */
; 2894 : 	/*-----------------------------------------------*/
; 2895 : 	az = localData->rdrX[hist] + (localData->rdrHd[hist] - platform->Yaw());

	mov	ecx, DWORD PTR _this$[ebp]
	mov	ecx, DWORD PTR [ecx+32]
	call	?Yaw@VuEntity@@QBEMXZ			; VuEntity::Yaw
	fstp	DWORD PTR tv154[ebp]
	mov	edx, DWORD PTR _hist$[ebp]
	mov	eax, DWORD PTR _localData$[ebp]
	movss	xmm0, DWORD PTR [eax+edx*4+120]
	subss	xmm0, DWORD PTR tv154[ebp]
	mov	ecx, DWORD PTR _hist$[ebp]
	mov	edx, DWORD PTR _localData$[ebp]
	addss	xmm0, DWORD PTR [edx+ecx*4+88]
	movss	DWORD PTR _az$[ebp], xmm0

; 2896 : 	az = RES180(az);

	movss	xmm0, DWORD PTR _az$[ebp]
	comiss	xmm0, DWORD PTR __real@40490fd9
	jbe	SHORT $LN6@TargetToXY
	movss	xmm0, DWORD PTR _az$[ebp]
	subss	xmm0, DWORD PTR __real@40c90fd9
	movss	DWORD PTR tv129[ebp], xmm0
	jmp	SHORT $LN7@TargetToXY
$LN6@TargetToXY:
	movss	xmm0, DWORD PTR __real@c0490fd9
	comiss	xmm0, DWORD PTR _az$[ebp]
	jbe	SHORT $LN4@TargetToXY
	movss	xmm0, DWORD PTR _az$[ebp]
	addss	xmm0, DWORD PTR __real@40c90fd9
	movss	DWORD PTR tv128[ebp], xmm0
	jmp	SHORT $LN5@TargetToXY
$LN4@TargetToXY:
	movss	xmm0, DWORD PTR _az$[ebp]
	movss	DWORD PTR tv128[ebp], xmm0
$LN5@TargetToXY:
	movss	xmm0, DWORD PTR tv128[ebp]
	movss	DWORD PTR tv129[ebp], xmm0
$LN7@TargetToXY:
	movss	xmm0, DWORD PTR tv129[ebp]
	movss	DWORD PTR _az$[ebp], xmm0

; 2897 : 
; 2898 : 	/*---------------------------------*/
; 2899 : 	/* find x and y location on bscope */
; 2900 : 	/*---------------------------------*/
; 2901 : 	*x = disDeg*az;

	movss	xmm0, DWORD PTR _disDeg
	mulss	xmm0, DWORD PTR _az$[ebp]
	mov	eax, DWORD PTR _x$[ebp]
	movss	DWORD PTR [eax], xmm0

; 2902 : 	*y = -AZL + 2.0F*AZL*(localData->rdrY[hist] / drange);

	mov	ecx, DWORD PTR _hist$[ebp]
	mov	edx, DWORD PTR _localData$[ebp]
	movss	xmm0, DWORD PTR [edx+ecx*4+104]
	divss	xmm0, DWORD PTR _drange$[ebp]
	mulss	xmm0, DWORD PTR __real@40000000
	addss	xmm0, DWORD PTR __real@bf800000
	mov	eax, DWORD PTR _y$[ebp]
	movss	DWORD PTR [eax], xmm0
$LN2@TargetToXY:

; 2903 : }

	mov	esp, ebp
	pop	ebp
	ret	20					; 00000014H
?TargetToXY@RadarDopplerClass@@QAEXPAVSimObjectLocalData@@HMPAM1@Z ENDP ; RadarDopplerClass::TargetToXY
_TEXT	ENDS
; Function compile flags: /Odtp
; File c:\users\zhitao li\documents\visual studio 2012\projects\freefalcon\sim\include\radardoppler.h
;	COMDAT ?ToggleFlag@RadarDopplerClass@@QAEXH@Z
_TEXT	SEGMENT
_this$ = -4						; size = 4
_flag$ = 8						; size = 4
?ToggleFlag@RadarDopplerClass@@QAEXH@Z PROC		; RadarDopplerClass::ToggleFlag, COMDAT
; _this$ = ecx

; 239  : 	void ToggleFlag (int flag) {flags ^= flag; };

	push	ebp
	mov	ebp, esp
	push	ecx
	mov	DWORD PTR _this$[ebp], ecx
	mov	eax, DWORD PTR _this$[ebp]
	mov	ecx, DWORD PTR [eax+492]
	xor	ecx, DWORD PTR _flag$[ebp]
	mov	edx, DWORD PTR _this$[ebp]
	mov	DWORD PTR [edx+492], ecx
	mov	esp, ebp
	pop	ebp
	ret	4
?ToggleFlag@RadarDopplerClass@@QAEXH@Z ENDP		; RadarDopplerClass::ToggleFlag
_TEXT	ENDS
; Function compile flags: /Odtp
; File c:\users\zhitao li\documents\visual studio 2012\projects\freefalcon\sim\include\radardoppler.h
;	COMDAT ?IsSet@RadarDopplerClass@@QAEHH@Z
_TEXT	SEGMENT
_this$ = -8						; size = 4
tv67 = -4						; size = 4
_newFlag$ = 8						; size = 4
?IsSet@RadarDopplerClass@@QAEHH@Z PROC			; RadarDopplerClass::IsSet, COMDAT
; _this$ = ecx

; 236  :    int  IsSet (int newFlag) {return (newFlag & flags) ? TRUE : FALSE;}; //MI moved to public

	push	ebp
	mov	ebp, esp
	sub	esp, 8
	mov	DWORD PTR _this$[ebp], ecx
	mov	eax, DWORD PTR _this$[ebp]
	mov	ecx, DWORD PTR _newFlag$[ebp]
	and	ecx, DWORD PTR [eax+492]
	je	SHORT $LN3@IsSet
	mov	DWORD PTR tv67[ebp], 1
	jmp	SHORT $LN4@IsSet
$LN3@IsSet:
	mov	DWORD PTR tv67[ebp], 0
$LN4@IsSet:
	mov	eax, DWORD PTR tv67[ebp]
	mov	esp, ebp
	pop	ebp
	ret	4
?IsSet@RadarDopplerClass@@QAEHH@Z ENDP			; RadarDopplerClass::IsSet
_TEXT	ENDS
; Function compile flags: /Odtp
; File c:\users\zhitao li\documents\visual studio 2012\projects\freefalcon\sim\radar\bscope.cpp
_TEXT	SEGMENT
tv392 = -28						; size = 4
tv363 = -24						; size = 4
_x$1 = -20						; size = 4
_y$2 = -16						; size = 4
_mFaults$3 = -12					; size = 4
_mode$4 = -8						; size = 4
_this$ = -4						; size = 4
?AABottomRow@RadarDopplerClass@@IAEXXZ PROC		; RadarDopplerClass::AABottomRow
; _this$ = ecx

; 2840 : {

	push	ebp
	mov	ebp, esp
	sub	esp, 28					; 0000001cH
	mov	DWORD PTR _this$[ebp], ecx

; 2841 : 	if (g_bRealisticAvionics) 

	movzx	eax, BYTE PTR ?g_bRealisticAvionics@@3_NA ; g_bRealisticAvionics
	test	eax, eax
	je	$LN19@AABottomRo

; 2842 : 	{
; 2843 : 		if (IsAADclt(Dclt) == FALSE) LabelButton(10, "DCLT", NULL, IsSet(AADecluttered));

	push	512					; 00000200H
	mov	ecx, DWORD PTR _this$[ebp]
	call	?IsAADclt@RadarDopplerClass@@IAEHH@Z	; RadarDopplerClass::IsAADclt
	test	eax, eax
	jne	SHORT $LN18@AABottomRo
	push	262144					; 00040000H
	mov	ecx, DWORD PTR _this$[ebp]
	call	?IsSet@RadarDopplerClass@@QAEHH@Z	; RadarDopplerClass::IsSet
	push	eax
	push	0
	push	OFFSET ??_C@_04LKFIONEM@DCLT?$AA@
	push	10					; 0000000aH
	mov	ecx, DWORD PTR _this$[ebp]
	call	?LabelButton@DrawableClass@@QAEXHPAD0H@Z ; DrawableClass::LabelButton
$LN18@AABottomRo:

; 2844 : 		if (IsAADclt(Fmt1) == FALSE) DefaultLabel(11);

	push	1024					; 00000400H
	mov	ecx, DWORD PTR _this$[ebp]
	call	?IsAADclt@RadarDopplerClass@@IAEHH@Z	; RadarDopplerClass::IsAADclt
	test	eax, eax
	jne	SHORT $LN17@AABottomRo
	push	11					; 0000000bH
	mov	ecx, DWORD PTR _this$[ebp]
	call	?DefaultLabel@MfdDrawable@@QAEXH@Z	; MfdDrawable::DefaultLabel
$LN17@AABottomRo:

; 2845 : 		if (IsAADclt(Fmt2) == FALSE) DefaultLabel(12);

	push	2048					; 00000800H
	mov	ecx, DWORD PTR _this$[ebp]
	call	?IsAADclt@RadarDopplerClass@@IAEHH@Z	; RadarDopplerClass::IsAADclt
	test	eax, eax
	jne	SHORT $LN16@AABottomRo
	push	12					; 0000000cH
	mov	ecx, DWORD PTR _this$[ebp]
	call	?DefaultLabel@MfdDrawable@@QAEXH@Z	; MfdDrawable::DefaultLabel
$LN16@AABottomRo:

; 2846 : 		if (IsAADclt(Fmt3) == FALSE) DefaultLabel(13);

	push	4096					; 00001000H
	mov	ecx, DWORD PTR _this$[ebp]
	call	?IsAADclt@RadarDopplerClass@@IAEHH@Z	; RadarDopplerClass::IsAADclt
	test	eax, eax
	jne	SHORT $LN15@AABottomRo
	push	13					; 0000000dH
	mov	ecx, DWORD PTR _this$[ebp]
	call	?DefaultLabel@MfdDrawable@@QAEXH@Z	; MfdDrawable::DefaultLabel
$LN15@AABottomRo:

; 2847 : 		if (IsAADclt(Swap) == FALSE) DefaultLabel(14);

	push	8192					; 00002000H
	mov	ecx, DWORD PTR _this$[ebp]
	call	?IsAADclt@RadarDopplerClass@@IAEHH@Z	; RadarDopplerClass::IsAADclt
	test	eax, eax
	jne	SHORT $LN14@AABottomRo
	push	14					; 0000000eH
	mov	ecx, DWORD PTR _this$[ebp]
	call	?DefaultLabel@MfdDrawable@@QAEXH@Z	; MfdDrawable::DefaultLabel
$LN14@AABottomRo:

; 2848 : 
; 2849 : 		FackClass* mFaults = ((AircraftClass*)(SimDriver.GetPlayerAircraft()))->mFaults;

	mov	ecx, OFFSET ?SimDriver@@3VSimulationDriver@@A ; SimDriver
	call	?GetPlayerAircraft@SimulationDriver@@QBEPAVAircraftClass@@XZ ; SimulationDriver::GetPlayerAircraft
	mov	ecx, DWORD PTR [eax+928]
	mov	DWORD PTR _mFaults$3[ebp], ecx

; 2850 : 		if(mFaults && !(mFaults->GetFault(FaultClass::fcc_fault) == FaultClass::xmtr))

	cmp	DWORD PTR _mFaults$3[ebp], 0
	je	$LN13@AABottomRo
	push	11					; 0000000bH
	mov	ecx, DWORD PTR _mFaults$3[ebp]
	call	?GetFault@FackClass@@QAEHW4type_FSubSystem@FaultClass@@@Z ; FackClass::GetFault
	cmp	eax, 1024				; 00000400H
	je	$LN13@AABottomRo

; 2851 : 		{
; 2852 : 			float x, y;
; 2853 : 			char *mode = "";

	mov	DWORD PTR _mode$4[ebp], OFFSET ??_C@_00CNPNBAHC@?$AA@

; 2854 : 			GetButtonPos (12, &x, &y);

	lea	edx, DWORD PTR _y$2[ebp]
	push	edx
	lea	eax, DWORD PTR _x$1[ebp]
	push	eax
	push	12					; 0000000cH
	mov	ecx, DWORD PTR _this$[ebp]
	call	?GetButtonPos@DrawableClass@@QAEXHPAM0@Z ; DrawableClass::GetButtonPos

; 2855 : 			display->TextCenter(x, y + display->TextHeight(), mode);

	push	0
	mov	ecx, DWORD PTR _mode$4[ebp]
	push	ecx
	mov	edx, DWORD PTR _this$[ebp]
	mov	eax, DWORD PTR [edx+20]
	mov	ecx, DWORD PTR _this$[ebp]
	mov	edx, DWORD PTR [eax]
	mov	ecx, DWORD PTR [ecx+20]
	mov	eax, DWORD PTR [edx+88]
	call	eax
	fstp	DWORD PTR tv363[ebp]
	movss	xmm0, DWORD PTR tv363[ebp]
	addss	xmm0, DWORD PTR _y$2[ebp]
	push	ecx
	movss	DWORD PTR [esp], xmm0
	push	ecx
	movss	xmm0, DWORD PTR _x$1[ebp]
	movss	DWORD PTR [esp], xmm0
	mov	ecx, DWORD PTR _this$[ebp]
	mov	edx, DWORD PTR [ecx+20]
	mov	eax, DWORD PTR _this$[ebp]
	mov	edx, DWORD PTR [edx]
	mov	ecx, DWORD PTR [eax+20]
	mov	eax, DWORD PTR [edx+72]
	call	eax

; 2856 : 			//MI add in MasterArm state and missile status
; 2857 : 			if(SimDriver.GetPlayerAircraft()->Sms->MasterArm() == SMSBaseClass::Sim)

	mov	ecx, OFFSET ?SimDriver@@3VSimulationDriver@@A ; SimDriver
	call	?GetPlayerAircraft@SimulationDriver@@QBEPAVAircraftClass@@XZ ; SimulationDriver::GetPlayerAircraft
	mov	ecx, DWORD PTR [eax+940]
	call	?MasterArm@SMSBaseClass@@QAE?AW4MasterArmState@1@XZ ; SMSBaseClass::MasterArm
	cmp	eax, 1
	jne	SHORT $LN12@AABottomRo

; 2858 : 				mode = "SIM";

	mov	DWORD PTR _mode$4[ebp], OFFSET ??_C@_03DNJPAHKI@SIM?$AA@
	jmp	$LN7@AABottomRo
$LN12@AABottomRo:

; 2859 : 			else if(SimDriver.GetPlayerAircraft()->Sms->MasterArm() == SMSBaseClass::Arm)

	mov	ecx, OFFSET ?SimDriver@@3VSimulationDriver@@A ; SimDriver
	call	?GetPlayerAircraft@SimulationDriver@@QBEPAVAircraftClass@@XZ ; SimulationDriver::GetPlayerAircraft
	mov	ecx, DWORD PTR [eax+940]
	call	?MasterArm@SMSBaseClass@@QAE?AW4MasterArmState@1@XZ ; SMSBaseClass::MasterArm
	cmp	eax, 2
	jne	$LN7@AABottomRo

; 2860 : 			{
; 2861 : 				if(SimDriver.GetPlayerAircraft()->Sms->curWeapon && SimDriver.GetPlayerAircraft()->Sms->CurStationOK())

	mov	ecx, OFFSET ?SimDriver@@3VSimulationDriver@@A ; SimDriver
	call	?GetPlayerAircraft@SimulationDriver@@QBEPAVAircraftClass@@XZ ; SimulationDriver::GetPlayerAircraft
	mov	ecx, DWORD PTR [eax+940]
	add	ecx, 164				; 000000a4H
	call	??B?$VuBin@VSimWeaponClass@@@@QBE_NXZ	; VuBin<SimWeaponClass>::operator bool
	movzx	ecx, al
	test	ecx, ecx
	je	SHORT $LN9@AABottomRo
	mov	ecx, OFFSET ?SimDriver@@3VSimulationDriver@@A ; SimDriver
	call	?GetPlayerAircraft@SimulationDriver@@QBEPAVAircraftClass@@XZ ; SimulationDriver::GetPlayerAircraft
	mov	ecx, DWORD PTR [eax+940]
	call	?CurStationOK@SMSBaseClass@@QAEHXZ	; SMSBaseClass::CurStationOK
	test	eax, eax
	je	SHORT $LN9@AABottomRo

; 2862 : 					mode = "RDY";

	mov	DWORD PTR _mode$4[ebp], OFFSET ??_C@_03KDFFCEML@RDY?$AA@
	jmp	SHORT $LN7@AABottomRo
$LN9@AABottomRo:

; 2863 : 				else if(SimDriver.GetPlayerAircraft()->Sms->curWeapon && !SimDriver.GetPlayerAircraft()->Sms->CurStationOK())

	mov	ecx, OFFSET ?SimDriver@@3VSimulationDriver@@A ; SimDriver
	call	?GetPlayerAircraft@SimulationDriver@@QBEPAVAircraftClass@@XZ ; SimulationDriver::GetPlayerAircraft
	mov	ecx, DWORD PTR [eax+940]
	add	ecx, 164				; 000000a4H
	call	??B?$VuBin@VSimWeaponClass@@@@QBE_NXZ	; VuBin<SimWeaponClass>::operator bool
	movzx	edx, al
	test	edx, edx
	je	SHORT $LN7@AABottomRo
	mov	ecx, OFFSET ?SimDriver@@3VSimulationDriver@@A ; SimDriver
	call	?GetPlayerAircraft@SimulationDriver@@QBEPAVAircraftClass@@XZ ; SimulationDriver::GetPlayerAircraft
	mov	ecx, DWORD PTR [eax+940]
	call	?CurStationOK@SMSBaseClass@@QAEHXZ	; SMSBaseClass::CurStationOK
	test	eax, eax
	jne	SHORT $LN7@AABottomRo

; 2864 : 					mode = "MAL";

	mov	DWORD PTR _mode$4[ebp], OFFSET ??_C@_03JKFBEHPN@MAL?$AA@
$LN7@AABottomRo:

; 2865 : 			}
; 2866 : 			if(SimDriver.GetPlayerAircraft()->RFState == 1)

	mov	ecx, OFFSET ?SimDriver@@3VSimulationDriver@@A ; SimDriver
	call	?GetPlayerAircraft@SimulationDriver@@QBEPAVAircraftClass@@XZ ; SimulationDriver::GetPlayerAircraft
	cmp	DWORD PTR [eax+1520], 1
	jne	SHORT $LN6@AABottomRo

; 2867 : 				mode = "QUIET";

	mov	DWORD PTR _mode$4[ebp], OFFSET ??_C@_05DHIGAFHJ@QUIET?$AA@
	jmp	SHORT $LN4@AABottomRo
$LN6@AABottomRo:

; 2868 : 			else if(SimDriver.GetPlayerAircraft()->RFState == 2)

	mov	ecx, OFFSET ?SimDriver@@3VSimulationDriver@@A ; SimDriver
	call	?GetPlayerAircraft@SimulationDriver@@QBEPAVAircraftClass@@XZ ; SimulationDriver::GetPlayerAircraft
	cmp	DWORD PTR [eax+1520], 2
	jne	SHORT $LN4@AABottomRo

; 2869 : 				mode = "SILENT";

	mov	DWORD PTR _mode$4[ebp], OFFSET ??_C@_06MNODKNNC@SILENT?$AA@
$LN4@AABottomRo:

; 2870 : 
; 2871 : 			display->TextCenter(x, y + display->TextHeight(), mode);

	push	0
	mov	eax, DWORD PTR _mode$4[ebp]
	push	eax
	mov	ecx, DWORD PTR _this$[ebp]
	mov	edx, DWORD PTR [ecx+20]
	mov	eax, DWORD PTR _this$[ebp]
	mov	edx, DWORD PTR [edx]
	mov	ecx, DWORD PTR [eax+20]
	mov	eax, DWORD PTR [edx+88]
	call	eax
	fstp	DWORD PTR tv392[ebp]
	movss	xmm0, DWORD PTR tv392[ebp]
	addss	xmm0, DWORD PTR _y$2[ebp]
	push	ecx
	movss	DWORD PTR [esp], xmm0
	push	ecx
	movss	xmm0, DWORD PTR _x$1[ebp]
	movss	DWORD PTR [esp], xmm0
	mov	ecx, DWORD PTR _this$[ebp]
	mov	edx, DWORD PTR [ecx+20]
	mov	eax, DWORD PTR _this$[ebp]
	mov	edx, DWORD PTR [edx]
	mov	ecx, DWORD PTR [eax+20]
	mov	eax, DWORD PTR [edx+72]
	call	eax

; 2872 : 		}
; 2873 : 		else

	jmp	SHORT $LN2@AABottomRo
$LN13@AABottomRo:

; 2874 : 			if (IsAADclt(Fmt2) == FALSE) DefaultLabel(12);

	push	2048					; 00000800H
	mov	ecx, DWORD PTR _this$[ebp]
	call	?IsAADclt@RadarDopplerClass@@IAEHH@Z	; RadarDopplerClass::IsAADclt
	test	eax, eax
	jne	SHORT $LN2@AABottomRo
	push	12					; 0000000cH
	mov	ecx, DWORD PTR _this$[ebp]
	call	?DefaultLabel@MfdDrawable@@QAEXH@Z	; MfdDrawable::DefaultLabel
$LN2@AABottomRo:

; 2875 : 	}
; 2876 : 	else {

	jmp	SHORT $LN1@AABottomRo
$LN19@AABottomRo:

; 2877 : 		LabelButton (10, "DCLT", NULL, IsSet (AADecluttered));

	push	262144					; 00040000H
	mov	ecx, DWORD PTR _this$[ebp]
	call	?IsSet@RadarDopplerClass@@QAEHH@Z	; RadarDopplerClass::IsSet
	push	eax
	push	0
	push	OFFSET ??_C@_04LKFIONEM@DCLT?$AA@
	push	10					; 0000000aH
	mov	ecx, DWORD PTR _this$[ebp]
	call	?LabelButton@DrawableClass@@QAEXHPAD0H@Z ; DrawableClass::LabelButton

; 2878 : 		LabelButton (11, "SMS");

	push	0
	push	0
	push	OFFSET ??_C@_03OONHJAKL@SMS?$AA@
	push	11					; 0000000bH
	mov	ecx, DWORD PTR _this$[ebp]
	call	?LabelButton@DrawableClass@@QAEXHPAD0H@Z ; DrawableClass::LabelButton

; 2879 : 		LabelButton (13, "MENU", NULL, 1);//me123

	push	1
	push	0
	push	OFFSET ??_C@_04IILMDFMO@MENU?$AA@
	push	13					; 0000000dH
	mov	ecx, DWORD PTR _this$[ebp]
	call	?LabelButton@DrawableClass@@QAEXHPAD0H@Z ; DrawableClass::LabelButton

; 2880 : 		LabelButton (14, "SWAP");

	push	0
	push	0
	push	OFFSET ??_C@_04NLFHDAEB@SWAP?$AA@
	push	14					; 0000000eH
	mov	ecx, DWORD PTR _this$[ebp]
	call	?LabelButton@DrawableClass@@QAEXHPAD0H@Z ; DrawableClass::LabelButton
$LN1@AABottomRo:

; 2881 : 	}
; 2882 : }

	mov	esp, ebp
	pop	ebp
	ret	0
?AABottomRow@RadarDopplerClass@@IAEXXZ ENDP		; RadarDopplerClass::AABottomRow
_TEXT	ENDS
; Function compile flags: /Odtp
; File c:\users\zhitao li\documents\visual studio 2012\projects\freefalcon\sim\radar\bscope.cpp
_TEXT	SEGMENT
tv184 = -12						; size = 4
tv160 = -8						; size = 4
_this$ = -4						; size = 4
_x$ = 8							; size = 4
_y$ = 12						; size = 4
_dir$ = 16						; size = 4
_speed$ = 20						; size = 4
?GetBuggedData@RadarDopplerClass@@UAEHPAM000@Z PROC	; RadarDopplerClass::GetBuggedData
; _this$ = ecx

; 2819 : {

	push	ebp
	mov	ebp, esp
	sub	esp, 12					; 0000000cH
	mov	DWORD PTR _this$[ebp], ecx

; 2820 : 	if (lockedTarget == NULL)

	mov	eax, DWORD PTR _this$[ebp]
	cmp	DWORD PTR [eax+48], 0
	jne	SHORT $LN3@GetBuggedD

; 2821 : 		return FALSE;

	xor	eax, eax
	jmp	$LN1@GetBuggedD
$LN3@GetBuggedD:

; 2822 : 	//MI I haven't seen a rdrSy[0] state of Bug.. thus we only get it in STT.
; 2823 : 	//if (lockedTargetData->rdrSy[0] >= Bug ||
; 2824 : 	/*if(lockedTarget ||
; 2825 : 	  (IsSet(STTingTarget) && !lockedTarget->BaseData()->OnGround())) */
; 2826 : 	if (lockedTarget)//Cobra allow ground bug to show TODO work on symbology

	mov	ecx, DWORD PTR _this$[ebp]
	cmp	DWORD PTR [ecx+48], 0
	je	$LN2@GetBuggedD

; 2827 : 	{
; 2828 : 		*x = lockedTarget->BaseData()->XPos();

	mov	edx, DWORD PTR _this$[ebp]
	mov	ecx, DWORD PTR [edx+48]
	call	?BaseData@SimObjectType@@QAEPAVFalconEntity@@XZ ; SimObjectType::BaseData
	mov	ecx, eax
	call	?XPos@VuEntity@@QBEMXZ			; VuEntity::XPos
	mov	eax, DWORD PTR _x$[ebp]
	fstp	DWORD PTR [eax]

; 2829 : 		*y = lockedTarget->BaseData()->YPos();

	mov	ecx, DWORD PTR _this$[ebp]
	mov	ecx, DWORD PTR [ecx+48]
	call	?BaseData@SimObjectType@@QAEPAVFalconEntity@@XZ ; SimObjectType::BaseData
	mov	ecx, eax
	call	?YPos@VuEntity@@QBEMXZ			; VuEntity::YPos
	mov	edx, DWORD PTR _y$[ebp]
	fstp	DWORD PTR [edx]

; 2830 : 		*dir = lockedTarget->BaseData()->Yaw() - lockedTargetData->rdrX[0];

	mov	eax, DWORD PTR _this$[ebp]
	mov	ecx, DWORD PTR [eax+48]
	call	?BaseData@SimObjectType@@QAEPAVFalconEntity@@XZ ; SimObjectType::BaseData
	mov	ecx, eax
	call	?Yaw@VuEntity@@QBEMXZ			; VuEntity::Yaw
	fstp	DWORD PTR tv184[ebp]
	movss	xmm0, DWORD PTR tv184[ebp]
	mov	ecx, DWORD PTR _this$[ebp]
	mov	edx, DWORD PTR [ecx+176]
	mov	eax, 4
	imul	eax, 0
	subss	xmm0, DWORD PTR [edx+eax+88]
	mov	ecx, DWORD PTR _dir$[ebp]
	movss	DWORD PTR [ecx], xmm0

; 2831 : 		*speed = lockedTarget->BaseData()->GetVt();

	mov	edx, DWORD PTR _this$[ebp]
	mov	ecx, DWORD PTR [edx+48]
	call	?BaseData@SimObjectType@@QAEPAVFalconEntity@@XZ ; SimObjectType::BaseData
	mov	DWORD PTR tv160[ebp], eax
	mov	eax, DWORD PTR tv160[ebp]
	mov	edx, DWORD PTR [eax]
	mov	ecx, DWORD PTR tv160[ebp]
	mov	eax, DWORD PTR [edx+220]
	call	eax
	mov	ecx, DWORD PTR _speed$[ebp]
	fstp	DWORD PTR [ecx]

; 2832 : 		return TRUE;

	mov	eax, 1
	jmp	SHORT $LN1@GetBuggedD

; 2833 : 	}
; 2834 : 	else 

	jmp	SHORT $LN1@GetBuggedD
$LN2@GetBuggedD:

; 2835 : 		return FALSE;

	xor	eax, eax
$LN1@GetBuggedD:

; 2836 : }

	mov	esp, ebp
	pop	ebp
	ret	16					; 00000010H
?GetBuggedData@RadarDopplerClass@@UAEHPAM000@Z ENDP	; RadarDopplerClass::GetBuggedData
_TEXT	ENDS
; Function compile flags: /Odtp
; File c:\users\zhitao li\documents\visual studio 2012\projects\freefalcon\sim\radar\bscope.cpp
_TEXT	SEGMENT
_y18$ = -52						; size = 4
_vpLeft$ = -48						; size = 4
_vpTop$ = -44						; size = 4
_vpRight$ = -40						; size = 4
_vpBottom$ = -36					; size = 4
_x18$ = -32						; size = 4
tv1632 = -28						; size = 4
tv297 = -24						; size = 4
_i$1 = -20						; size = 4
_tmpColor$ = -16					; size = 4
_cX$ = -12						; size = 4
_cY$ = -8						; size = 4
_this$ = -4						; size = 4
_newDisplay$ = 8					; size = 4
?Display@RadarDopplerClass@@UAEXPAVVirtualDisplay@@@Z PROC ; RadarDopplerClass::Display
; _this$ = ecx

; 79   : void RadarDopplerClass::Display(VirtualDisplay* newDisplay){

	push	ebp
	mov	ebp, esp
	sub	esp, 52					; 00000034H
	mov	DWORD PTR _this$[ebp], ecx

; 80   : 	float cX, cY;
; 81   : 	float vpLeft, vpTop, vpRight, vpBottom;
; 82   : 
; 83   : 	GetCursorPosition (&cX, &cY);

	lea	eax, DWORD PTR _cY$[ebp]
	push	eax
	lea	ecx, DWORD PTR _cX$[ebp]
	push	ecx
	mov	edx, DWORD PTR _this$[ebp]
	mov	eax, DWORD PTR [edx]
	mov	ecx, DWORD PTR _this$[ebp]
	mov	edx, DWORD PTR [eax+204]
	call	edx

; 84   : 	display = newDisplay;

	mov	eax, DWORD PTR _this$[ebp]
	mov	ecx, DWORD PTR _newDisplay$[ebp]
	mov	DWORD PTR [eax+20], ecx

; 85   : 
; 86   : 	if (fpass){

	cmp	DWORD PTR _fpass, 0
	je	$LN73@Display

; 87   : 		fpass = FALSE;

	mov	DWORD PTR _fpass, 0

; 88   : 
; 89   : 		/*----------------------------------------------------------*/
; 90   : 		/* Set the scale factor to convert degrees to display scale */
; 91   : 		/*----------------------------------------------------------*/
; 92   : 		disDeg = AZL / MAX_ANT_EL;

	movss	xmm0, DWORD PTR __real@3f747647
	movss	DWORD PTR _disDeg, xmm0

; 93   : 
; 94   : 		elReacqMark[0][0] =  0.03F;

	mov	edx, 8
	imul	edx, 0
	mov	eax, 4
	imul	eax, 0
	movss	xmm0, DWORD PTR __real@3cf5c28f
	movss	DWORD PTR _elReacqMark[edx+eax], xmm0

; 95   : 		elReacqMark[0][1] =  0.03F;

	mov	ecx, 8
	imul	ecx, 0
	mov	edx, 4
	shl	edx, 0
	movss	xmm0, DWORD PTR __real@3cf5c28f
	movss	DWORD PTR _elReacqMark[ecx+edx], xmm0

; 96   : 		elReacqMark[1][0] =  0.0F;

	mov	eax, 8
	shl	eax, 0
	mov	ecx, 4
	imul	ecx, 0
	movss	xmm0, DWORD PTR __real@00000000
	movss	DWORD PTR _elReacqMark[eax+ecx], xmm0

; 97   : 		elReacqMark[1][1] =  0.0F;

	mov	edx, 8
	shl	edx, 0
	mov	eax, 4
	shl	eax, 0
	movss	xmm0, DWORD PTR __real@00000000
	movss	DWORD PTR _elReacqMark[edx+eax], xmm0

; 98   : 		elReacqMark[2][0] =  0.03F;

	mov	ecx, 8
	shl	ecx, 1
	mov	edx, 4
	imul	edx, 0
	movss	xmm0, DWORD PTR __real@3cf5c28f
	movss	DWORD PTR _elReacqMark[ecx+edx], xmm0

; 99   : 		elReacqMark[2][1] = -0.03F;

	mov	eax, 8
	shl	eax, 1
	mov	ecx, 4
	shl	ecx, 0
	movss	xmm0, DWORD PTR __real@bcf5c28f
	movss	DWORD PTR _elReacqMark[eax+ecx], xmm0

; 100  : 
; 101  : 		cursor[0][0] = -0.04F;

	mov	edx, 8
	imul	edx, 0
	mov	eax, 4
	imul	eax, 0
	movss	xmm0, DWORD PTR __real@bd23d70a
	movss	DWORD PTR _cursor[edx+eax], xmm0

; 102  : 		cursor[0][1] =  0.06F;

	mov	ecx, 8
	imul	ecx, 0
	mov	edx, 4
	shl	edx, 0
	movss	xmm0, DWORD PTR __real@3d75c28f
	movss	DWORD PTR _cursor[ecx+edx], xmm0

; 103  : 		cursor[1][0] =  0.04F;

	mov	eax, 8
	shl	eax, 0
	mov	ecx, 4
	imul	ecx, 0
	movss	xmm0, DWORD PTR __real@3d23d70a
	movss	DWORD PTR _cursor[eax+ecx], xmm0

; 104  : 		cursor[1][1] =  0.06F;

	mov	edx, 8
	shl	edx, 0
	mov	eax, 4
	shl	eax, 0
	movss	xmm0, DWORD PTR __real@3d75c28f
	movss	DWORD PTR _cursor[edx+eax], xmm0

; 105  : 		cursor[2][0] =  0.02F;

	mov	ecx, 8
	shl	ecx, 1
	mov	edx, 4
	imul	edx, 0
	movss	xmm0, DWORD PTR __real@3ca3d70a
	movss	DWORD PTR _cursor[ecx+edx], xmm0

; 106  : 		cursor[2][1] =  0.02F;

	mov	eax, 8
	shl	eax, 1
	mov	ecx, 4
	shl	ecx, 0
	movss	xmm0, DWORD PTR __real@3ca3d70a
	movss	DWORD PTR _cursor[eax+ecx], xmm0

; 107  : 		cursor[3][0] =  0.06F;

	mov	edx, 8
	imul	edx, 3
	mov	eax, 4
	imul	eax, 0
	movss	xmm0, DWORD PTR __real@3d75c28f
	movss	DWORD PTR _cursor[edx+eax], xmm0

; 108  : 		cursor[3][1] =  0.04F;

	mov	ecx, 8
	imul	ecx, 3
	mov	edx, 4
	shl	edx, 0
	movss	xmm0, DWORD PTR __real@3d23d70a
	movss	DWORD PTR _cursor[ecx+edx], xmm0

; 109  : 		cursor[4][0] =  0.06F;

	mov	eax, 8
	shl	eax, 2
	mov	ecx, 4
	imul	ecx, 0
	movss	xmm0, DWORD PTR __real@3d75c28f
	movss	DWORD PTR _cursor[eax+ecx], xmm0

; 110  : 		cursor[4][1] = -0.04F;

	mov	edx, 8
	shl	edx, 2
	mov	eax, 4
	shl	eax, 0
	movss	xmm0, DWORD PTR __real@bd23d70a
	movss	DWORD PTR _cursor[edx+eax], xmm0

; 111  : 		cursor[5][0] =  0.02F;

	mov	ecx, 8
	imul	ecx, 5
	mov	edx, 4
	imul	edx, 0
	movss	xmm0, DWORD PTR __real@3ca3d70a
	movss	DWORD PTR _cursor[ecx+edx], xmm0

; 112  : 		cursor[5][1] = -0.02F;

	mov	eax, 8
	imul	eax, 5
	mov	ecx, 4
	shl	ecx, 0
	movss	xmm0, DWORD PTR __real@bca3d70a
	movss	DWORD PTR _cursor[eax+ecx], xmm0

; 113  : 		cursor[6][0] =  0.04F;

	mov	edx, 8
	imul	edx, 6
	mov	eax, 4
	imul	eax, 0
	movss	xmm0, DWORD PTR __real@3d23d70a
	movss	DWORD PTR _cursor[edx+eax], xmm0

; 114  : 		cursor[6][1] = -0.06F;

	mov	ecx, 8
	imul	ecx, 6
	mov	edx, 4
	shl	edx, 0
	movss	xmm0, DWORD PTR __real@bd75c28f
	movss	DWORD PTR _cursor[ecx+edx], xmm0

; 115  : 		cursor[7][0] = -0.04F;

	mov	eax, 8
	imul	eax, 7
	mov	ecx, 4
	imul	ecx, 0
	movss	xmm0, DWORD PTR __real@bd23d70a
	movss	DWORD PTR _cursor[eax+ecx], xmm0

; 116  : 		cursor[7][1] = -0.06F;

	mov	edx, 8
	imul	edx, 7
	mov	eax, 4
	shl	eax, 0
	movss	xmm0, DWORD PTR __real@bd75c28f
	movss	DWORD PTR _cursor[edx+eax], xmm0

; 117  : 		cursor[8][0] = -0.02F;

	mov	ecx, 8
	shl	ecx, 3
	mov	edx, 4
	imul	edx, 0
	movss	xmm0, DWORD PTR __real@bca3d70a
	movss	DWORD PTR _cursor[ecx+edx], xmm0

; 118  : 		cursor[8][1] = -0.02F;

	mov	eax, 8
	shl	eax, 3
	mov	ecx, 4
	shl	ecx, 0
	movss	xmm0, DWORD PTR __real@bca3d70a
	movss	DWORD PTR _cursor[eax+ecx], xmm0

; 119  : 		cursor[9][0] = -0.06F;

	mov	edx, 8
	imul	edx, 9
	mov	eax, 4
	imul	eax, 0
	movss	xmm0, DWORD PTR __real@bd75c28f
	movss	DWORD PTR _cursor[edx+eax], xmm0

; 120  : 		cursor[9][1] = -0.04F;

	mov	ecx, 8
	imul	ecx, 9
	mov	edx, 4
	shl	edx, 0
	movss	xmm0, DWORD PTR __real@bd23d70a
	movss	DWORD PTR _cursor[ecx+edx], xmm0

; 121  : 		cursor[10][0] = -0.06F;

	mov	eax, 8
	imul	eax, 10					; 0000000aH
	mov	ecx, 4
	imul	ecx, 0
	movss	xmm0, DWORD PTR __real@bd75c28f
	movss	DWORD PTR _cursor[eax+ecx], xmm0

; 122  : 		cursor[10][1] =  0.04F;

	mov	edx, 8
	imul	edx, 10					; 0000000aH
	mov	eax, 4
	shl	eax, 0
	movss	xmm0, DWORD PTR __real@3d23d70a
	movss	DWORD PTR _cursor[edx+eax], xmm0

; 123  : 		cursor[11][0] = -0.02F;

	mov	ecx, 8
	imul	ecx, 11					; 0000000bH
	mov	edx, 4
	imul	edx, 0
	movss	xmm0, DWORD PTR __real@bca3d70a
	movss	DWORD PTR _cursor[ecx+edx], xmm0

; 124  : 		cursor[11][1] =  0.02F;

	mov	eax, 8
	imul	eax, 11					; 0000000bH
	mov	ecx, 4
	shl	ecx, 0
	movss	xmm0, DWORD PTR __real@3ca3d70a
	movss	DWORD PTR _cursor[eax+ecx], xmm0
$LN73@Display:

; 125  : 
; 126  : 	}
; 127  : 
; 128  : 
; 129  : 	int tmpColor = display->Color();

	mov	edx, DWORD PTR _this$[ebp]
	mov	eax, DWORD PTR [edx+20]
	mov	ecx, DWORD PTR _this$[ebp]
	mov	edx, DWORD PTR [eax]
	mov	ecx, DWORD PTR [ecx+20]
	mov	eax, DWORD PTR [edx+108]
	call	eax
	mov	DWORD PTR _tmpColor$[ebp], eax

; 130  : 	float x18, y18;
; 131  : 	GetButtonPos(18, &x18, &y18);

	lea	ecx, DWORD PTR _y18$[ebp]
	push	ecx
	lea	edx, DWORD PTR _x18$[ebp]
	push	edx
	push	18					; 00000012H
	mov	ecx, DWORD PTR _this$[ebp]
	call	?GetButtonPos@DrawableClass@@QAEXHPAM0@Z ; DrawableClass::GetButtonPos

; 132  : 
; 133  : 	DisplayAreaViewLeft = x18 + display->TextWidth("40");

	push	OFFSET ??_C@_02PMJKFNFC@40?$AA@
	mov	eax, DWORD PTR _this$[ebp]
	mov	ecx, DWORD PTR [eax+20]
	mov	edx, DWORD PTR _this$[ebp]
	mov	eax, DWORD PTR [ecx]
	mov	ecx, DWORD PTR [edx+20]
	mov	edx, DWORD PTR [eax+84]
	call	edx
	fstp	DWORD PTR tv1632[ebp]
	movss	xmm0, DWORD PTR tv1632[ebp]
	addss	xmm0, DWORD PTR _x18$[ebp]
	movss	DWORD PTR _DisplayAreaViewLeft, xmm0

; 134  : 
; 135  : 	/*---------------------*/
; 136  : 	/* common to a/a modes */
; 137  : 	/*---------------------*/
; 138  : 	// ASSOCIATOR 3/12/03: Moved DrawBars before DrawAzElTicks and DrawScanMarkers so that they draw peoperly 
; 139  : 	// in transparent MFD view and also with better drawing order.  
; 140  : 	if (mode == RWS || mode == SAM || mode == TWS || mode == LRS || mode == VS || mode == STT ){    	

	mov	eax, DWORD PTR _this$[ebp]
	cmp	DWORD PTR [eax+184], 2
	je	SHORT $LN71@Display
	mov	ecx, DWORD PTR _this$[ebp]
	cmp	DWORD PTR [ecx+184], 10			; 0000000aH
	je	SHORT $LN71@Display
	mov	edx, DWORD PTR _this$[ebp]
	cmp	DWORD PTR [edx+184], 4
	je	SHORT $LN71@Display
	mov	eax, DWORD PTR _this$[ebp]
	cmp	DWORD PTR [eax+184], 3
	je	SHORT $LN71@Display
	mov	ecx, DWORD PTR _this$[ebp]
	cmp	DWORD PTR [ecx+184], 5
	je	SHORT $LN71@Display
	mov	edx, DWORD PTR _this$[ebp]
	cmp	DWORD PTR [edx+184], 13			; 0000000dH
	jne	SHORT $LN72@Display
$LN71@Display:

; 141  : 		DrawBars();

	mov	ecx, DWORD PTR _this$[ebp]
	call	?DrawBars@RadarDopplerClass@@IAEXXZ	; RadarDopplerClass::DrawBars
$LN72@Display:

; 142  : 	}
; 143  : 
; 144  : 	if (mode != GM && mode != GMT && mode != SEA){

	mov	eax, DWORD PTR _this$[ebp]
	cmp	DWORD PTR [eax+184], 14			; 0000000eH
	je	SHORT $LN70@Display
	mov	ecx, DWORD PTR _this$[ebp]
	cmp	DWORD PTR [ecx+184], 16			; 00000010H
	je	SHORT $LN70@Display
	mov	edx, DWORD PTR _this$[ebp]
	cmp	DWORD PTR [edx+184], 17			; 00000011H
	je	SHORT $LN70@Display

; 145  : 		DrawAzElTicks();	// ASSOCIATOR 3/12/03: Reversed drawing order

	mov	ecx, DWORD PTR _this$[ebp]
	call	?DrawAzElTicks@RadarDopplerClass@@IAEXXZ ; RadarDopplerClass::DrawAzElTicks

; 146  : 		DrawScanMarkers();

	mov	ecx, DWORD PTR _this$[ebp]
	call	?DrawScanMarkers@RadarDopplerClass@@IAEXXZ ; RadarDopplerClass::DrawScanMarkers
$LN70@Display:

; 147  : 	}
; 148  : 
; 149  : 	display->GetViewport (&vpLeft, &vpTop, &vpRight, &vpBottom);

	lea	eax, DWORD PTR _vpBottom$[ebp]
	push	eax
	lea	ecx, DWORD PTR _vpRight$[ebp]
	push	ecx
	lea	edx, DWORD PTR _vpTop$[ebp]
	push	edx
	lea	eax, DWORD PTR _vpLeft$[ebp]
	push	eax
	mov	ecx, DWORD PTR _this$[ebp]
	mov	ecx, DWORD PTR [ecx+20]
	call	?GetViewport@VirtualDisplay@@QAEXPAM000@Z ; VirtualDisplay::GetViewport

; 150  : 
; 151  : 	/*----------------------*/
; 152  : 	/* Mode dependent stuff */
; 153  : 	/*----------------------*/
; 154  : 	switch (mode){

	mov	edx, DWORD PTR _this$[ebp]
	mov	eax, DWORD PTR [edx+184]
	mov	DWORD PTR tv297[ebp], eax
	cmp	DWORD PTR tv297[ebp], 20		; 00000014H
	ja	$LN10@Display
	mov	ecx, DWORD PTR tv297[ebp]
	movzx	edx, BYTE PTR $LN76@Display[ecx]
	jmp	DWORD PTR $LN77@Display[edx*4]
$LN67@Display:

; 155  : 			case OFF: // JPO - new modes..
; 156  : 			case STBY:
; 157  : 					STBYDisplay();

	mov	ecx, DWORD PTR _this$[ebp]
	call	?STBYDisplay@RadarDopplerClass@@IAEXXZ	; RadarDopplerClass::STBYDisplay

; 158  : 					break;

	jmp	$LN68@Display
$LN66@Display:

; 159  : 			case TWS:
; 160  : 					DrawRangeTicks();

	mov	ecx, DWORD PTR _this$[ebp]
	call	?DrawRangeTicks@RadarDopplerClass@@IAEXXZ ; RadarDopplerClass::DrawRangeTicks

; 161  : 					if (IsAADclt(Arrows) == FALSE) DrawRangeArrows();

	push	131072					; 00020000H
	mov	ecx, DWORD PTR _this$[ebp]
	call	?IsAADclt@RadarDopplerClass@@IAEHH@Z	; RadarDopplerClass::IsAADclt
	test	eax, eax
	jne	SHORT $LN65@Display
	mov	ecx, DWORD PTR _this$[ebp]
	call	?DrawRangeArrows@RadarDopplerClass@@IAEXXZ ; RadarDopplerClass::DrawRangeArrows
$LN65@Display:

; 162  : 					if (IsAADclt(Rng) == FALSE) DrawRange();

	push	65536					; 00010000H
	mov	ecx, DWORD PTR _this$[ebp]
	call	?IsAADclt@RadarDopplerClass@@IAEHH@Z	; RadarDopplerClass::IsAADclt
	test	eax, eax
	jne	SHORT $LN64@Display
	mov	ecx, DWORD PTR _this$[ebp]
	call	?DrawRange@RadarDopplerClass@@IAEXXZ	; RadarDopplerClass::DrawRange
$LN64@Display:

; 163  : 					// DrawBars(); // ASSOCIATOR 3/12/03: Redundant
; 164  : 					DrawWaterline();

	mov	ecx, DWORD PTR _this$[ebp]
	call	?DrawWaterline@RadarDopplerClass@@IAEXXZ ; RadarDopplerClass::DrawWaterline

; 165  : 					display->SetColor(GetMfdColor(MFD_BULLSEYE)); // JPO

	push	4
	mov	ecx, DWORD PTR _this$[ebp]
	call	?GetMfdColor@DrawableClass@@QAEIW4MfdColor@@@Z ; DrawableClass::GetMfdColor
	push	eax
	mov	eax, DWORD PTR _this$[ebp]
	mov	ecx, DWORD PTR [eax+20]
	mov	edx, DWORD PTR _this$[ebp]
	mov	eax, DWORD PTR [ecx]
	mov	ecx, DWORD PTR [edx+20]
	mov	edx, DWORD PTR [eax+92]
	call	edx

; 166  : 					//MI we only get the bullseye readout in the corner if we selected it so
; 167  : 					//the info on the cursor get's drawn nontheless
; 168  : 					if(!g_bRealisticAvionics)

	movzx	eax, BYTE PTR ?g_bRealisticAvionics@@3_NA ; g_bRealisticAvionics
	test	eax, eax
	jne	SHORT $LN63@Display

; 169  : 						DrawBullseyeData(display, cX, cY);

	push	ecx
	movss	xmm0, DWORD PTR _cY$[ebp]
	movss	DWORD PTR [esp], xmm0
	push	ecx
	movss	xmm0, DWORD PTR _cX$[ebp]
	movss	DWORD PTR [esp], xmm0
	mov	ecx, DWORD PTR _this$[ebp]
	mov	edx, DWORD PTR [ecx+20]
	push	edx
	call	?DrawBullseyeData@@YAXPAVVirtualDisplay@@MM@Z ; DrawBullseyeData
	add	esp, 12					; 0000000cH

; 170  : 					else

	jmp	$LN60@Display
$LN63@Display:

; 171  : 					{
; 172  : 						if(OTWDriver.pCockpitManager && OTWDriver.pCockpitManager->mpIcp &&
; 173  : 										OTWDriver.pCockpitManager->mpIcp->ShowBullseyeInfo)

	cmp	DWORD PTR ?OTWDriver@@3VOTWDriverClass@@A+33684, 0
	je	SHORT $LN61@Display
	mov	eax, DWORD PTR ?OTWDriver@@3VOTWDriverClass@@A+33684
	cmp	DWORD PTR [eax+688], 0
	je	SHORT $LN61@Display
	mov	ecx, DWORD PTR ?OTWDriver@@3VOTWDriverClass@@A+33684
	mov	edx, DWORD PTR [ecx+688]
	movzx	eax, BYTE PTR [edx+300]
	test	eax, eax
	je	SHORT $LN61@Display

; 174  : 						{
; 175  : 							DrawBullseyeCircle(display, cX, cY);

	push	ecx
	movss	xmm0, DWORD PTR _cY$[ebp]
	movss	DWORD PTR [esp], xmm0
	push	ecx
	movss	xmm0, DWORD PTR _cX$[ebp]
	movss	DWORD PTR [esp], xmm0
	mov	ecx, DWORD PTR _this$[ebp]
	mov	edx, DWORD PTR [ecx+20]
	push	edx
	call	?DrawBullseyeCircle@@YAXPAVVirtualDisplay@@MM@Z ; DrawBullseyeCircle

; 176  : 							DrawCursorBullseyeData(display, cX, cY);

	add	esp, 8
	movss	xmm0, DWORD PTR _cY$[ebp]
	movss	DWORD PTR [esp], xmm0
	push	ecx
	movss	xmm0, DWORD PTR _cX$[ebp]
	movss	DWORD PTR [esp], xmm0
	mov	eax, DWORD PTR _this$[ebp]
	mov	ecx, DWORD PTR [eax+20]
	push	ecx
	call	?DrawCursorBullseyeData@@YAXPAVVirtualDisplay@@MM@Z ; DrawCursorBullseyeData
	add	esp, 12					; 0000000cH

; 177  : 						}
; 178  : 						else

	jmp	SHORT $LN60@Display
$LN61@Display:

; 179  : 						{
; 180  : 							DrawReference(display);

	mov	edx, DWORD PTR _this$[ebp]
	mov	eax, DWORD PTR [edx+20]
	push	eax
	mov	ecx, DWORD PTR _this$[ebp]
	call	?DrawReference@RadarDopplerClass@@IAEXPAVVirtualDisplay@@@Z ; RadarDopplerClass::DrawReference

; 181  : 
; 182  : 							DrawSteerPointCursorData(display, platform, cX, cY);

	push	ecx
	movss	xmm0, DWORD PTR _cY$[ebp]
	movss	DWORD PTR [esp], xmm0
	push	ecx
	movss	xmm0, DWORD PTR _cX$[ebp]
	movss	DWORD PTR [esp], xmm0
	mov	ecx, DWORD PTR _this$[ebp]
	mov	edx, DWORD PTR [ecx+32]
	push	edx
	mov	eax, DWORD PTR _this$[ebp]
	mov	ecx, DWORD PTR [eax+20]
	push	ecx
	call	?DrawSteerPointCursorData@@YAXPAVVirtualDisplay@@PAVFalconEntity@@MM@Z ; DrawSteerPointCursorData
	add	esp, 16					; 00000010H
$LN60@Display:

; 183  : 						}
; 184  : 					}
; 185  : 					display->SetColor(tmpColor);

	mov	edx, DWORD PTR _tmpColor$[ebp]
	push	edx
	mov	eax, DWORD PTR _this$[ebp]
	mov	ecx, DWORD PTR [eax+20]
	mov	edx, DWORD PTR _this$[ebp]
	mov	eax, DWORD PTR [ecx]
	mov	ecx, DWORD PTR [edx+20]
	mov	edx, DWORD PTR [eax+92]
	call	edx

; 186  : 					TWSDisplay();

	mov	ecx, DWORD PTR _this$[ebp]
	call	?TWSDisplay@RadarDopplerClass@@IAEXXZ	; RadarDopplerClass::TWSDisplay

; 187  : 					DrawACQCursor();  

	mov	ecx, DWORD PTR _this$[ebp]
	call	?DrawACQCursor@RadarDopplerClass@@IAEXXZ ; RadarDopplerClass::DrawACQCursor

; 188  : 					display->SetColor(GetMfdColor(MFD_LINES)); // JPO

	push	1
	mov	ecx, DWORD PTR _this$[ebp]
	call	?GetMfdColor@DrawableClass@@QAEIW4MfdColor@@@Z ; DrawableClass::GetMfdColor
	push	eax
	mov	eax, DWORD PTR _this$[ebp]
	mov	ecx, DWORD PTR [eax+20]
	mov	edx, DWORD PTR _this$[ebp]
	mov	eax, DWORD PTR [ecx]
	mov	ecx, DWORD PTR [edx+20]
	mov	edx, DWORD PTR [eax+92]
	call	edx

; 189  : 					DrawSteerpoint();

	mov	ecx, DWORD PTR _this$[ebp]
	call	?DrawSteerpoint@RadarDopplerClass@@IAEXXZ ; RadarDopplerClass::DrawSteerpoint

; 190  : 					display->SetColor(tmpColor);

	mov	eax, DWORD PTR _tmpColor$[ebp]
	push	eax
	mov	ecx, DWORD PTR _this$[ebp]
	mov	edx, DWORD PTR [ecx+20]
	mov	eax, DWORD PTR _this$[ebp]
	mov	edx, DWORD PTR [edx]
	mov	ecx, DWORD PTR [eax+20]
	mov	eax, DWORD PTR [edx+92]
	call	eax

; 191  : 					DrawAzLimitMarkers();

	mov	ecx, DWORD PTR _this$[ebp]
	call	?DrawAzLimitMarkers@RadarDopplerClass@@IAEXXZ ; RadarDopplerClass::DrawAzLimitMarkers

; 192  : 					//MI
; 193  : 					if(g_bRealisticAvionics && DrawRCR)

	movzx	ecx, BYTE PTR ?g_bRealisticAvionics@@3_NA ; g_bRealisticAvionics
	test	ecx, ecx
	je	SHORT $LN59@Display
	mov	edx, DWORD PTR _this$[ebp]
	movzx	eax, BYTE PTR [edx+132]
	test	eax, eax
	je	SHORT $LN59@Display

; 194  : 						DrawRCRCount();

	mov	ecx, DWORD PTR _this$[ebp]
	call	?DrawRCRCount@RadarDopplerClass@@QAEXXZ	; RadarDopplerClass::DrawRCRCount
$LN59@Display:

; 195  : 					break;

	jmp	$LN68@Display
$LN58@Display:

; 196  : 
; 197  : 			case SAM:
; 198  : 					DrawRangeTicks();

	mov	ecx, DWORD PTR _this$[ebp]
	call	?DrawRangeTicks@RadarDopplerClass@@IAEXXZ ; RadarDopplerClass::DrawRangeTicks

; 199  : 					if (IsAADclt(Arrows) == FALSE) DrawRangeArrows();

	push	131072					; 00020000H
	mov	ecx, DWORD PTR _this$[ebp]
	call	?IsAADclt@RadarDopplerClass@@IAEHH@Z	; RadarDopplerClass::IsAADclt
	test	eax, eax
	jne	SHORT $LN57@Display
	mov	ecx, DWORD PTR _this$[ebp]
	call	?DrawRangeArrows@RadarDopplerClass@@IAEXXZ ; RadarDopplerClass::DrawRangeArrows
$LN57@Display:

; 200  : 					if (IsAADclt(Rng) == FALSE) DrawRange();

	push	65536					; 00010000H
	mov	ecx, DWORD PTR _this$[ebp]
	call	?IsAADclt@RadarDopplerClass@@IAEHH@Z	; RadarDopplerClass::IsAADclt
	test	eax, eax
	jne	SHORT $LN56@Display
	mov	ecx, DWORD PTR _this$[ebp]
	call	?DrawRange@RadarDopplerClass@@IAEXXZ	; RadarDopplerClass::DrawRange
$LN56@Display:

; 201  : 					// DrawBars(); // ASSOCIATOR 3/12/03: Redundant
; 202  : 					DrawWaterline();

	mov	ecx, DWORD PTR _this$[ebp]
	call	?DrawWaterline@RadarDopplerClass@@IAEXXZ ; RadarDopplerClass::DrawWaterline

; 203  : 					display->SetColor(GetMfdColor(MFD_BULLSEYE)); // JPO

	push	4
	mov	ecx, DWORD PTR _this$[ebp]
	call	?GetMfdColor@DrawableClass@@QAEIW4MfdColor@@@Z ; DrawableClass::GetMfdColor
	push	eax
	mov	ecx, DWORD PTR _this$[ebp]
	mov	edx, DWORD PTR [ecx+20]
	mov	eax, DWORD PTR _this$[ebp]
	mov	edx, DWORD PTR [edx]
	mov	ecx, DWORD PTR [eax+20]
	mov	eax, DWORD PTR [edx+92]
	call	eax

; 204  : 					//MI we only get the bullseye readout in the corner if we selected it so
; 205  : 					//the info on the cursor get's drawn nontheless
; 206  : 					if(!g_bRealisticAvionics)

	movzx	ecx, BYTE PTR ?g_bRealisticAvionics@@3_NA ; g_bRealisticAvionics
	test	ecx, ecx
	jne	SHORT $LN55@Display

; 207  : 						DrawBullseyeData(display, cX, cY);

	push	ecx
	movss	xmm0, DWORD PTR _cY$[ebp]
	movss	DWORD PTR [esp], xmm0
	push	ecx
	movss	xmm0, DWORD PTR _cX$[ebp]
	movss	DWORD PTR [esp], xmm0
	mov	edx, DWORD PTR _this$[ebp]
	mov	eax, DWORD PTR [edx+20]
	push	eax
	call	?DrawBullseyeData@@YAXPAVVirtualDisplay@@MM@Z ; DrawBullseyeData
	add	esp, 12					; 0000000cH

; 208  : 					else

	jmp	$LN52@Display
$LN55@Display:

; 209  : 					{
; 210  : 						if(OTWDriver.pCockpitManager && OTWDriver.pCockpitManager->mpIcp &&
; 211  : 										OTWDriver.pCockpitManager->mpIcp->ShowBullseyeInfo)

	cmp	DWORD PTR ?OTWDriver@@3VOTWDriverClass@@A+33684, 0
	je	SHORT $LN53@Display
	mov	ecx, DWORD PTR ?OTWDriver@@3VOTWDriverClass@@A+33684
	cmp	DWORD PTR [ecx+688], 0
	je	SHORT $LN53@Display
	mov	edx, DWORD PTR ?OTWDriver@@3VOTWDriverClass@@A+33684
	mov	eax, DWORD PTR [edx+688]
	movzx	ecx, BYTE PTR [eax+300]
	test	ecx, ecx
	je	SHORT $LN53@Display

; 212  : 						{
; 213  : 							DrawBullseyeCircle(display, cX, cY);

	push	ecx
	movss	xmm0, DWORD PTR _cY$[ebp]
	movss	DWORD PTR [esp], xmm0
	push	ecx
	movss	xmm0, DWORD PTR _cX$[ebp]
	movss	DWORD PTR [esp], xmm0
	mov	edx, DWORD PTR _this$[ebp]
	mov	eax, DWORD PTR [edx+20]
	push	eax
	call	?DrawBullseyeCircle@@YAXPAVVirtualDisplay@@MM@Z ; DrawBullseyeCircle

; 214  : 							DrawCursorBullseyeData(display, cX, cY);

	add	esp, 8
	movss	xmm0, DWORD PTR _cY$[ebp]
	movss	DWORD PTR [esp], xmm0
	push	ecx
	movss	xmm0, DWORD PTR _cX$[ebp]
	movss	DWORD PTR [esp], xmm0
	mov	ecx, DWORD PTR _this$[ebp]
	mov	edx, DWORD PTR [ecx+20]
	push	edx
	call	?DrawCursorBullseyeData@@YAXPAVVirtualDisplay@@MM@Z ; DrawCursorBullseyeData
	add	esp, 12					; 0000000cH

; 215  : 						}
; 216  : 						else

	jmp	SHORT $LN52@Display
$LN53@Display:

; 217  : 						{
; 218  : 							DrawReference(display);

	mov	eax, DWORD PTR _this$[ebp]
	mov	ecx, DWORD PTR [eax+20]
	push	ecx
	mov	ecx, DWORD PTR _this$[ebp]
	call	?DrawReference@RadarDopplerClass@@IAEXPAVVirtualDisplay@@@Z ; RadarDopplerClass::DrawReference

; 219  : 
; 220  : 							DrawSteerPointCursorData(display, platform, cX, cY);

	push	ecx
	movss	xmm0, DWORD PTR _cY$[ebp]
	movss	DWORD PTR [esp], xmm0
	push	ecx
	movss	xmm0, DWORD PTR _cX$[ebp]
	movss	DWORD PTR [esp], xmm0
	mov	edx, DWORD PTR _this$[ebp]
	mov	eax, DWORD PTR [edx+32]
	push	eax
	mov	ecx, DWORD PTR _this$[ebp]
	mov	edx, DWORD PTR [ecx+20]
	push	edx
	call	?DrawSteerPointCursorData@@YAXPAVVirtualDisplay@@PAVFalconEntity@@MM@Z ; DrawSteerPointCursorData
	add	esp, 16					; 00000010H
$LN52@Display:

; 221  : 						}
; 222  : 					}
; 223  : 					display->SetColor(tmpColor);

	mov	eax, DWORD PTR _tmpColor$[ebp]
	push	eax
	mov	ecx, DWORD PTR _this$[ebp]
	mov	edx, DWORD PTR [ecx+20]
	mov	eax, DWORD PTR _this$[ebp]
	mov	edx, DWORD PTR [edx]
	mov	ecx, DWORD PTR [eax+20]
	mov	eax, DWORD PTR [edx+92]
	call	eax

; 224  : 					SAMDisplay();

	mov	ecx, DWORD PTR _this$[ebp]
	call	?SAMDisplay@RadarDopplerClass@@IAEXXZ	; RadarDopplerClass::SAMDisplay

; 225  : 					DrawACQCursor();  

	mov	ecx, DWORD PTR _this$[ebp]
	call	?DrawACQCursor@RadarDopplerClass@@IAEXXZ ; RadarDopplerClass::DrawACQCursor

; 226  : 					display->SetColor(GetMfdColor(MFD_LINES)); // JPO

	push	1
	mov	ecx, DWORD PTR _this$[ebp]
	call	?GetMfdColor@DrawableClass@@QAEIW4MfdColor@@@Z ; DrawableClass::GetMfdColor
	push	eax
	mov	ecx, DWORD PTR _this$[ebp]
	mov	edx, DWORD PTR [ecx+20]
	mov	eax, DWORD PTR _this$[ebp]
	mov	edx, DWORD PTR [edx]
	mov	ecx, DWORD PTR [eax+20]
	mov	eax, DWORD PTR [edx+92]
	call	eax

; 227  : 					DrawSteerpoint();

	mov	ecx, DWORD PTR _this$[ebp]
	call	?DrawSteerpoint@RadarDopplerClass@@IAEXXZ ; RadarDopplerClass::DrawSteerpoint

; 228  : 					display->SetColor(tmpColor);

	mov	ecx, DWORD PTR _tmpColor$[ebp]
	push	ecx
	mov	edx, DWORD PTR _this$[ebp]
	mov	eax, DWORD PTR [edx+20]
	mov	ecx, DWORD PTR _this$[ebp]
	mov	edx, DWORD PTR [eax]
	mov	ecx, DWORD PTR [ecx+20]
	mov	eax, DWORD PTR [edx+92]
	call	eax

; 229  : 					//MI
; 230  : 					if(g_bRealisticAvionics && DrawRCR)

	movzx	ecx, BYTE PTR ?g_bRealisticAvionics@@3_NA ; g_bRealisticAvionics
	test	ecx, ecx
	je	SHORT $LN51@Display
	mov	edx, DWORD PTR _this$[ebp]
	movzx	eax, BYTE PTR [edx+132]
	test	eax, eax
	je	SHORT $LN51@Display

; 231  : 						DrawRCRCount();

	mov	ecx, DWORD PTR _this$[ebp]
	call	?DrawRCRCount@RadarDopplerClass@@QAEXXZ	; RadarDopplerClass::DrawRCRCount
$LN51@Display:

; 232  : 					break;

	jmp	$LN68@Display
$LN50@Display:

; 233  : 
; 234  : 			case RWS:
; 235  : 			case LRS:
; 236  : 					DrawRangeTicks();

	mov	ecx, DWORD PTR _this$[ebp]
	call	?DrawRangeTicks@RadarDopplerClass@@IAEXXZ ; RadarDopplerClass::DrawRangeTicks

; 237  : 					if (IsAADclt(Arrows) == FALSE) DrawRangeArrows();

	push	131072					; 00020000H
	mov	ecx, DWORD PTR _this$[ebp]
	call	?IsAADclt@RadarDopplerClass@@IAEHH@Z	; RadarDopplerClass::IsAADclt
	test	eax, eax
	jne	SHORT $LN49@Display
	mov	ecx, DWORD PTR _this$[ebp]
	call	?DrawRangeArrows@RadarDopplerClass@@IAEXXZ ; RadarDopplerClass::DrawRangeArrows
$LN49@Display:

; 238  : 					if (IsAADclt(Rng) == FALSE) DrawRange();

	push	65536					; 00010000H
	mov	ecx, DWORD PTR _this$[ebp]
	call	?IsAADclt@RadarDopplerClass@@IAEHH@Z	; RadarDopplerClass::IsAADclt
	test	eax, eax
	jne	SHORT $LN48@Display
	mov	ecx, DWORD PTR _this$[ebp]
	call	?DrawRange@RadarDopplerClass@@IAEXXZ	; RadarDopplerClass::DrawRange
$LN48@Display:

; 239  : 					// DrawBars(); // ASSOCIATOR 3/12/03: Redundant
; 240  : 					DrawWaterline();

	mov	ecx, DWORD PTR _this$[ebp]
	call	?DrawWaterline@RadarDopplerClass@@IAEXXZ ; RadarDopplerClass::DrawWaterline

; 241  : 					display->SetColor(GetMfdColor(MFD_BULLSEYE)); // JPO

	push	4
	mov	ecx, DWORD PTR _this$[ebp]
	call	?GetMfdColor@DrawableClass@@QAEIW4MfdColor@@@Z ; DrawableClass::GetMfdColor
	push	eax
	mov	ecx, DWORD PTR _this$[ebp]
	mov	edx, DWORD PTR [ecx+20]
	mov	eax, DWORD PTR _this$[ebp]
	mov	edx, DWORD PTR [edx]
	mov	ecx, DWORD PTR [eax+20]
	mov	eax, DWORD PTR [edx+92]
	call	eax

; 242  : 					//MI we only get the bullseye readout in the corner if we selected it so
; 243  : 					//the info on the cursor get's drawn nontheless
; 244  : 					if(!g_bRealisticAvionics)

	movzx	ecx, BYTE PTR ?g_bRealisticAvionics@@3_NA ; g_bRealisticAvionics
	test	ecx, ecx
	jne	SHORT $LN47@Display

; 245  : 						DrawBullseyeData(display, cX, cY);

	push	ecx
	movss	xmm0, DWORD PTR _cY$[ebp]
	movss	DWORD PTR [esp], xmm0
	push	ecx
	movss	xmm0, DWORD PTR _cX$[ebp]
	movss	DWORD PTR [esp], xmm0
	mov	edx, DWORD PTR _this$[ebp]
	mov	eax, DWORD PTR [edx+20]
	push	eax
	call	?DrawBullseyeData@@YAXPAVVirtualDisplay@@MM@Z ; DrawBullseyeData
	add	esp, 12					; 0000000cH

; 246  : 					else

	jmp	$LN44@Display
$LN47@Display:

; 247  : 					{
; 248  : 						if(OTWDriver.pCockpitManager && OTWDriver.pCockpitManager->mpIcp &&
; 249  : 										OTWDriver.pCockpitManager->mpIcp->ShowBullseyeInfo)

	cmp	DWORD PTR ?OTWDriver@@3VOTWDriverClass@@A+33684, 0
	je	SHORT $LN45@Display
	mov	ecx, DWORD PTR ?OTWDriver@@3VOTWDriverClass@@A+33684
	cmp	DWORD PTR [ecx+688], 0
	je	SHORT $LN45@Display
	mov	edx, DWORD PTR ?OTWDriver@@3VOTWDriverClass@@A+33684
	mov	eax, DWORD PTR [edx+688]
	movzx	ecx, BYTE PTR [eax+300]
	test	ecx, ecx
	je	SHORT $LN45@Display

; 250  : 						{
; 251  : 							DrawBullseyeCircle(display, cX, cY);

	push	ecx
	movss	xmm0, DWORD PTR _cY$[ebp]
	movss	DWORD PTR [esp], xmm0
	push	ecx
	movss	xmm0, DWORD PTR _cX$[ebp]
	movss	DWORD PTR [esp], xmm0
	mov	edx, DWORD PTR _this$[ebp]
	mov	eax, DWORD PTR [edx+20]
	push	eax
	call	?DrawBullseyeCircle@@YAXPAVVirtualDisplay@@MM@Z ; DrawBullseyeCircle

; 252  : 							DrawCursorBullseyeData(display, cX, cY);

	add	esp, 8
	movss	xmm0, DWORD PTR _cY$[ebp]
	movss	DWORD PTR [esp], xmm0
	push	ecx
	movss	xmm0, DWORD PTR _cX$[ebp]
	movss	DWORD PTR [esp], xmm0
	mov	ecx, DWORD PTR _this$[ebp]
	mov	edx, DWORD PTR [ecx+20]
	push	edx
	call	?DrawCursorBullseyeData@@YAXPAVVirtualDisplay@@MM@Z ; DrawCursorBullseyeData
	add	esp, 12					; 0000000cH

; 253  : 						}
; 254  : 						else

	jmp	SHORT $LN44@Display
$LN45@Display:

; 255  : 						{
; 256  : 							DrawReference(display);

	mov	eax, DWORD PTR _this$[ebp]
	mov	ecx, DWORD PTR [eax+20]
	push	ecx
	mov	ecx, DWORD PTR _this$[ebp]
	call	?DrawReference@RadarDopplerClass@@IAEXPAVVirtualDisplay@@@Z ; RadarDopplerClass::DrawReference

; 257  : 
; 258  : 							DrawSteerPointCursorData(display, platform, cX, cY);

	push	ecx
	movss	xmm0, DWORD PTR _cY$[ebp]
	movss	DWORD PTR [esp], xmm0
	push	ecx
	movss	xmm0, DWORD PTR _cX$[ebp]
	movss	DWORD PTR [esp], xmm0
	mov	edx, DWORD PTR _this$[ebp]
	mov	eax, DWORD PTR [edx+32]
	push	eax
	mov	ecx, DWORD PTR _this$[ebp]
	mov	edx, DWORD PTR [ecx+20]
	push	edx
	call	?DrawSteerPointCursorData@@YAXPAVVirtualDisplay@@PAVFalconEntity@@MM@Z ; DrawSteerPointCursorData
	add	esp, 16					; 00000010H
$LN44@Display:

; 259  : 						}
; 260  : 					}
; 261  : 					display->SetColor(tmpColor);

	mov	eax, DWORD PTR _tmpColor$[ebp]
	push	eax
	mov	ecx, DWORD PTR _this$[ebp]
	mov	edx, DWORD PTR [ecx+20]
	mov	eax, DWORD PTR _this$[ebp]
	mov	edx, DWORD PTR [edx]
	mov	ecx, DWORD PTR [eax+20]
	mov	eax, DWORD PTR [edx+92]
	call	eax

; 262  : 					RWSDisplay();

	mov	ecx, DWORD PTR _this$[ebp]
	call	?RWSDisplay@RadarDopplerClass@@IAEXXZ	; RadarDopplerClass::RWSDisplay

; 263  : 					DrawACQCursor();

	mov	ecx, DWORD PTR _this$[ebp]
	call	?DrawACQCursor@RadarDopplerClass@@IAEXXZ ; RadarDopplerClass::DrawACQCursor

; 264  : 					display->SetColor(GetMfdColor(MFD_LINES)); // JPO

	push	1
	mov	ecx, DWORD PTR _this$[ebp]
	call	?GetMfdColor@DrawableClass@@QAEIW4MfdColor@@@Z ; DrawableClass::GetMfdColor
	push	eax
	mov	ecx, DWORD PTR _this$[ebp]
	mov	edx, DWORD PTR [ecx+20]
	mov	eax, DWORD PTR _this$[ebp]
	mov	edx, DWORD PTR [edx]
	mov	ecx, DWORD PTR [eax+20]
	mov	eax, DWORD PTR [edx+92]
	call	eax

; 265  : 					DrawSteerpoint();

	mov	ecx, DWORD PTR _this$[ebp]
	call	?DrawSteerpoint@RadarDopplerClass@@IAEXXZ ; RadarDopplerClass::DrawSteerpoint

; 266  : 					display->SetColor(tmpColor);

	mov	ecx, DWORD PTR _tmpColor$[ebp]
	push	ecx
	mov	edx, DWORD PTR _this$[ebp]
	mov	eax, DWORD PTR [edx+20]
	mov	ecx, DWORD PTR _this$[ebp]
	mov	edx, DWORD PTR [eax]
	mov	ecx, DWORD PTR [ecx+20]
	mov	eax, DWORD PTR [edx+92]
	call	eax

; 267  : 					DrawAzLimitMarkers();

	mov	ecx, DWORD PTR _this$[ebp]
	call	?DrawAzLimitMarkers@RadarDopplerClass@@IAEXXZ ; RadarDopplerClass::DrawAzLimitMarkers

; 268  : 					break;

	jmp	$LN68@Display
$LN43@Display:

; 269  : 
; 270  : 			case STT:
; 271  : 					DrawRangeTicks();

	mov	ecx, DWORD PTR _this$[ebp]
	call	?DrawRangeTicks@RadarDopplerClass@@IAEXXZ ; RadarDopplerClass::DrawRangeTicks

; 272  : 					if (IsAADclt(Rng) == FALSE) DrawRange();

	push	65536					; 00010000H
	mov	ecx, DWORD PTR _this$[ebp]
	call	?IsAADclt@RadarDopplerClass@@IAEHH@Z	; RadarDopplerClass::IsAADclt
	test	eax, eax
	jne	SHORT $LN42@Display
	mov	ecx, DWORD PTR _this$[ebp]
	call	?DrawRange@RadarDopplerClass@@IAEXXZ	; RadarDopplerClass::DrawRange
$LN42@Display:

; 273  : 					// DrawBars(); // ASSOCIATOR 3/12/03: Redundant
; 274  : 					DrawWaterline();

	mov	ecx, DWORD PTR _this$[ebp]
	call	?DrawWaterline@RadarDopplerClass@@IAEXXZ ; RadarDopplerClass::DrawWaterline

; 275  : 					display->SetColor(GetMfdColor(MFD_BULLSEYE)); // JPO

	push	4
	mov	ecx, DWORD PTR _this$[ebp]
	call	?GetMfdColor@DrawableClass@@QAEIW4MfdColor@@@Z ; DrawableClass::GetMfdColor
	push	eax
	mov	ecx, DWORD PTR _this$[ebp]
	mov	edx, DWORD PTR [ecx+20]
	mov	eax, DWORD PTR _this$[ebp]
	mov	edx, DWORD PTR [edx]
	mov	ecx, DWORD PTR [eax+20]
	mov	eax, DWORD PTR [edx+92]
	call	eax

; 276  : 					//MI we only get the bullseye readout in the corner if we selected it so
; 277  : 					//the info on the cursor get's drawn nontheless
; 278  : 					if(!g_bRealisticAvionics)

	movzx	ecx, BYTE PTR ?g_bRealisticAvionics@@3_NA ; g_bRealisticAvionics
	test	ecx, ecx
	jne	SHORT $LN41@Display

; 279  : 						DrawBullseyeData(display, cX, cY);

	push	ecx
	movss	xmm0, DWORD PTR _cY$[ebp]
	movss	DWORD PTR [esp], xmm0
	push	ecx
	movss	xmm0, DWORD PTR _cX$[ebp]
	movss	DWORD PTR [esp], xmm0
	mov	edx, DWORD PTR _this$[ebp]
	mov	eax, DWORD PTR [edx+20]
	push	eax
	call	?DrawBullseyeData@@YAXPAVVirtualDisplay@@MM@Z ; DrawBullseyeData
	add	esp, 12					; 0000000cH

; 280  : 					else

	jmp	$LN38@Display
$LN41@Display:

; 281  : 					{
; 282  : 						if(OTWDriver.pCockpitManager && OTWDriver.pCockpitManager->mpIcp &&
; 283  : 										OTWDriver.pCockpitManager->mpIcp->ShowBullseyeInfo)

	cmp	DWORD PTR ?OTWDriver@@3VOTWDriverClass@@A+33684, 0
	je	SHORT $LN39@Display
	mov	ecx, DWORD PTR ?OTWDriver@@3VOTWDriverClass@@A+33684
	cmp	DWORD PTR [ecx+688], 0
	je	SHORT $LN39@Display
	mov	edx, DWORD PTR ?OTWDriver@@3VOTWDriverClass@@A+33684
	mov	eax, DWORD PTR [edx+688]
	movzx	ecx, BYTE PTR [eax+300]
	test	ecx, ecx
	je	SHORT $LN39@Display

; 284  : 						{
; 285  : 							DrawBullseyeCircle(display, cX, cY);

	push	ecx
	movss	xmm0, DWORD PTR _cY$[ebp]
	movss	DWORD PTR [esp], xmm0
	push	ecx
	movss	xmm0, DWORD PTR _cX$[ebp]
	movss	DWORD PTR [esp], xmm0
	mov	edx, DWORD PTR _this$[ebp]
	mov	eax, DWORD PTR [edx+20]
	push	eax
	call	?DrawBullseyeCircle@@YAXPAVVirtualDisplay@@MM@Z ; DrawBullseyeCircle

; 286  : 							DrawCursorBullseyeData(display, cX, cY);

	add	esp, 8
	movss	xmm0, DWORD PTR _cY$[ebp]
	movss	DWORD PTR [esp], xmm0
	push	ecx
	movss	xmm0, DWORD PTR _cX$[ebp]
	movss	DWORD PTR [esp], xmm0
	mov	ecx, DWORD PTR _this$[ebp]
	mov	edx, DWORD PTR [ecx+20]
	push	edx
	call	?DrawCursorBullseyeData@@YAXPAVVirtualDisplay@@MM@Z ; DrawCursorBullseyeData
	add	esp, 12					; 0000000cH

; 287  : 						}
; 288  : 						else

	jmp	SHORT $LN38@Display
$LN39@Display:

; 289  : 						{
; 290  : 							DrawReference(display);

	mov	eax, DWORD PTR _this$[ebp]
	mov	ecx, DWORD PTR [eax+20]
	push	ecx
	mov	ecx, DWORD PTR _this$[ebp]
	call	?DrawReference@RadarDopplerClass@@IAEXPAVVirtualDisplay@@@Z ; RadarDopplerClass::DrawReference

; 291  : 
; 292  : 							DrawSteerPointCursorData(display, platform, cX, cY);

	push	ecx
	movss	xmm0, DWORD PTR _cY$[ebp]
	movss	DWORD PTR [esp], xmm0
	push	ecx
	movss	xmm0, DWORD PTR _cX$[ebp]
	movss	DWORD PTR [esp], xmm0
	mov	edx, DWORD PTR _this$[ebp]
	mov	eax, DWORD PTR [edx+32]
	push	eax
	mov	ecx, DWORD PTR _this$[ebp]
	mov	edx, DWORD PTR [ecx+20]
	push	edx
	call	?DrawSteerPointCursorData@@YAXPAVVirtualDisplay@@PAVFalconEntity@@MM@Z ; DrawSteerPointCursorData
	add	esp, 16					; 00000010H
$LN38@Display:

; 293  : 						}
; 294  : 					}
; 295  : 					display->SetColor(tmpColor);

	mov	eax, DWORD PTR _tmpColor$[ebp]
	push	eax
	mov	ecx, DWORD PTR _this$[ebp]
	mov	edx, DWORD PTR [ecx+20]
	mov	eax, DWORD PTR _this$[ebp]
	mov	edx, DWORD PTR [edx]
	mov	ecx, DWORD PTR [eax+20]
	mov	eax, DWORD PTR [edx+92]
	call	eax

; 296  : 					STTDisplay();

	mov	ecx, DWORD PTR _this$[ebp]
	call	?STTDisplay@RadarDopplerClass@@IAEXXZ	; RadarDopplerClass::STTDisplay

; 297  : 					display->SetColor(GetMfdColor(MFD_LINES)); // JPO

	push	1
	mov	ecx, DWORD PTR _this$[ebp]
	call	?GetMfdColor@DrawableClass@@QAEIW4MfdColor@@@Z ; DrawableClass::GetMfdColor
	push	eax
	mov	ecx, DWORD PTR _this$[ebp]
	mov	edx, DWORD PTR [ecx+20]
	mov	eax, DWORD PTR _this$[ebp]
	mov	edx, DWORD PTR [edx]
	mov	ecx, DWORD PTR [eax+20]
	mov	eax, DWORD PTR [edx+92]
	call	eax

; 298  : 					DrawSteerpoint();

	mov	ecx, DWORD PTR _this$[ebp]
	call	?DrawSteerpoint@RadarDopplerClass@@IAEXXZ ; RadarDopplerClass::DrawSteerpoint

; 299  : 					display->SetColor(tmpColor);

	mov	ecx, DWORD PTR _tmpColor$[ebp]
	push	ecx
	mov	edx, DWORD PTR _this$[ebp]
	mov	eax, DWORD PTR [edx+20]
	mov	ecx, DWORD PTR _this$[ebp]
	mov	edx, DWORD PTR [eax]
	mov	ecx, DWORD PTR [ecx+20]
	mov	eax, DWORD PTR [edx+92]
	call	eax

; 300  : 					//MI
; 301  : 					if(g_bRealisticAvionics && DrawRCR)

	movzx	ecx, BYTE PTR ?g_bRealisticAvionics@@3_NA ; g_bRealisticAvionics
	test	ecx, ecx
	je	SHORT $LN37@Display
	mov	edx, DWORD PTR _this$[ebp]
	movzx	eax, BYTE PTR [edx+132]
	test	eax, eax
	je	SHORT $LN37@Display

; 302  : 						DrawRCRCount();

	mov	ecx, DWORD PTR _this$[ebp]
	call	?DrawRCRCount@RadarDopplerClass@@QAEXXZ	; RadarDopplerClass::DrawRCRCount
$LN37@Display:

; 303  : 					break;

	jmp	$LN68@Display
$LN36@Display:

; 304  : 
; 305  : 			case ACM_SLEW:
; 306  : 			case ACM_30x20:
; 307  : 			case ACM_10x60:
; 308  : 			case ACM_BORE:
; 309  : 					if (IsAADclt(Rng) == FALSE) DrawRange();

	push	65536					; 00010000H
	mov	ecx, DWORD PTR _this$[ebp]
	call	?IsAADclt@RadarDopplerClass@@IAEHH@Z	; RadarDopplerClass::IsAADclt
	test	eax, eax
	jne	SHORT $LN35@Display
	mov	ecx, DWORD PTR _this$[ebp]
	call	?DrawRange@RadarDopplerClass@@IAEXXZ	; RadarDopplerClass::DrawRange
$LN35@Display:

; 310  : 					DrawRangeTicks();

	mov	ecx, DWORD PTR _this$[ebp]
	call	?DrawRangeTicks@RadarDopplerClass@@IAEXXZ ; RadarDopplerClass::DrawRangeTicks

; 311  : 					DrawWaterline();

	mov	ecx, DWORD PTR _this$[ebp]
	call	?DrawWaterline@RadarDopplerClass@@IAEXXZ ; RadarDopplerClass::DrawWaterline

; 312  : 					DrawAzElTicks();	// ASSOCIATOR Added here so that it draws properly in transparent MFD view 

	mov	ecx, DWORD PTR _this$[ebp]
	call	?DrawAzElTicks@RadarDopplerClass@@IAEXXZ ; RadarDopplerClass::DrawAzElTicks

; 313  : 					DrawScanMarkers();	// ASSOCIATOR Added here so that it draws properly in transparent MFD view 

	mov	ecx, DWORD PTR _this$[ebp]
	call	?DrawScanMarkers@RadarDopplerClass@@IAEXXZ ; RadarDopplerClass::DrawScanMarkers

; 314  : 					display->SetColor(GetMfdColor(MFD_BULLSEYE)); // JPO

	push	4
	mov	ecx, DWORD PTR _this$[ebp]
	call	?GetMfdColor@DrawableClass@@QAEIW4MfdColor@@@Z ; DrawableClass::GetMfdColor
	push	eax
	mov	ecx, DWORD PTR _this$[ebp]
	mov	edx, DWORD PTR [ecx+20]
	mov	eax, DWORD PTR _this$[ebp]
	mov	edx, DWORD PTR [edx]
	mov	ecx, DWORD PTR [eax+20]
	mov	eax, DWORD PTR [edx+92]
	call	eax

; 315  : 					//MI we only get the bullseye readout in the corner if we selected it so
; 316  : 					//the info on the cursor get's drawn nontheless
; 317  : 					if(!g_bRealisticAvionics)

	movzx	ecx, BYTE PTR ?g_bRealisticAvionics@@3_NA ; g_bRealisticAvionics
	test	ecx, ecx
	jne	SHORT $LN34@Display

; 318  : 						DrawBullseyeData(display, cX, cY);

	push	ecx
	movss	xmm0, DWORD PTR _cY$[ebp]
	movss	DWORD PTR [esp], xmm0
	push	ecx
	movss	xmm0, DWORD PTR _cX$[ebp]
	movss	DWORD PTR [esp], xmm0
	mov	edx, DWORD PTR _this$[ebp]
	mov	eax, DWORD PTR [edx+20]
	push	eax
	call	?DrawBullseyeData@@YAXPAVVirtualDisplay@@MM@Z ; DrawBullseyeData
	add	esp, 12					; 0000000cH

; 319  : 					else

	jmp	$LN31@Display
$LN34@Display:

; 320  : 					{
; 321  : 						if(OTWDriver.pCockpitManager && OTWDriver.pCockpitManager->mpIcp &&
; 322  : 										OTWDriver.pCockpitManager->mpIcp->ShowBullseyeInfo)

	cmp	DWORD PTR ?OTWDriver@@3VOTWDriverClass@@A+33684, 0
	je	SHORT $LN32@Display
	mov	ecx, DWORD PTR ?OTWDriver@@3VOTWDriverClass@@A+33684
	cmp	DWORD PTR [ecx+688], 0
	je	SHORT $LN32@Display
	mov	edx, DWORD PTR ?OTWDriver@@3VOTWDriverClass@@A+33684
	mov	eax, DWORD PTR [edx+688]
	movzx	ecx, BYTE PTR [eax+300]
	test	ecx, ecx
	je	SHORT $LN32@Display

; 323  : 						{
; 324  : 							DrawBullseyeCircle(display, cX, cY);

	push	ecx
	movss	xmm0, DWORD PTR _cY$[ebp]
	movss	DWORD PTR [esp], xmm0
	push	ecx
	movss	xmm0, DWORD PTR _cX$[ebp]
	movss	DWORD PTR [esp], xmm0
	mov	edx, DWORD PTR _this$[ebp]
	mov	eax, DWORD PTR [edx+20]
	push	eax
	call	?DrawBullseyeCircle@@YAXPAVVirtualDisplay@@MM@Z ; DrawBullseyeCircle

; 325  : 							DrawCursorBullseyeData(display, cX, cY);

	add	esp, 8
	movss	xmm0, DWORD PTR _cY$[ebp]
	movss	DWORD PTR [esp], xmm0
	push	ecx
	movss	xmm0, DWORD PTR _cX$[ebp]
	movss	DWORD PTR [esp], xmm0
	mov	ecx, DWORD PTR _this$[ebp]
	mov	edx, DWORD PTR [ecx+20]
	push	edx
	call	?DrawCursorBullseyeData@@YAXPAVVirtualDisplay@@MM@Z ; DrawCursorBullseyeData
	add	esp, 12					; 0000000cH

; 326  : 						}
; 327  : 						else

	jmp	SHORT $LN31@Display
$LN32@Display:

; 328  : 						{
; 329  : 							DrawReference(display);

	mov	eax, DWORD PTR _this$[ebp]
	mov	ecx, DWORD PTR [eax+20]
	push	ecx
	mov	ecx, DWORD PTR _this$[ebp]
	call	?DrawReference@RadarDopplerClass@@IAEXPAVVirtualDisplay@@@Z ; RadarDopplerClass::DrawReference

; 330  : 
; 331  : 							DrawSteerPointCursorData(display, platform, cX, cY);

	push	ecx
	movss	xmm0, DWORD PTR _cY$[ebp]
	movss	DWORD PTR [esp], xmm0
	push	ecx
	movss	xmm0, DWORD PTR _cX$[ebp]
	movss	DWORD PTR [esp], xmm0
	mov	edx, DWORD PTR _this$[ebp]
	mov	eax, DWORD PTR [edx+32]
	push	eax
	mov	ecx, DWORD PTR _this$[ebp]
	mov	edx, DWORD PTR [ecx+20]
	push	edx
	call	?DrawSteerPointCursorData@@YAXPAVVirtualDisplay@@PAVFalconEntity@@MM@Z ; DrawSteerPointCursorData
	add	esp, 16					; 00000010H
$LN31@Display:

; 332  : 						}
; 333  : 					}
; 334  : 					display->SetColor(tmpColor);

	mov	eax, DWORD PTR _tmpColor$[ebp]
	push	eax
	mov	ecx, DWORD PTR _this$[ebp]
	mov	edx, DWORD PTR [ecx+20]
	mov	eax, DWORD PTR _this$[ebp]
	mov	edx, DWORD PTR [edx]
	mov	ecx, DWORD PTR [eax+20]
	mov	eax, DWORD PTR [edx+92]
	call	eax

; 335  : 					ACMDisplay();

	mov	ecx, DWORD PTR _this$[ebp]
	call	?ACMDisplay@RadarDopplerClass@@IAEXXZ	; RadarDopplerClass::ACMDisplay

; 336  : 					display->SetColor(GetMfdColor(MFD_LINES)); // JPO

	push	1
	mov	ecx, DWORD PTR _this$[ebp]
	call	?GetMfdColor@DrawableClass@@QAEIW4MfdColor@@@Z ; DrawableClass::GetMfdColor
	push	eax
	mov	ecx, DWORD PTR _this$[ebp]
	mov	edx, DWORD PTR [ecx+20]
	mov	eax, DWORD PTR _this$[ebp]
	mov	edx, DWORD PTR [edx]
	mov	ecx, DWORD PTR [eax+20]
	mov	eax, DWORD PTR [edx+92]
	call	eax

; 337  : 					DrawSteerpoint();

	mov	ecx, DWORD PTR _this$[ebp]
	call	?DrawSteerpoint@RadarDopplerClass@@IAEXXZ ; RadarDopplerClass::DrawSteerpoint

; 338  : 					display->SetColor(tmpColor);

	mov	ecx, DWORD PTR _tmpColor$[ebp]
	push	ecx
	mov	edx, DWORD PTR _this$[ebp]
	mov	eax, DWORD PTR [edx+20]
	mov	ecx, DWORD PTR _this$[ebp]
	mov	edx, DWORD PTR [eax]
	mov	ecx, DWORD PTR [ecx+20]
	mov	eax, DWORD PTR [edx+92]
	call	eax

; 339  : 					break;

	jmp	$LN68@Display
$LN30@Display:

; 340  : 
; 341  : 			case VS:
; 342  : 					DrawRangeTicks();

	mov	ecx, DWORD PTR _this$[ebp]
	call	?DrawRangeTicks@RadarDopplerClass@@IAEXXZ ; RadarDopplerClass::DrawRangeTicks

; 343  : 					if (IsAADclt(Arrows) == FALSE) DrawRangeArrows();

	push	131072					; 00020000H
	mov	ecx, DWORD PTR _this$[ebp]
	call	?IsAADclt@RadarDopplerClass@@IAEHH@Z	; RadarDopplerClass::IsAADclt
	test	eax, eax
	jne	SHORT $LN29@Display
	mov	ecx, DWORD PTR _this$[ebp]
	call	?DrawRangeArrows@RadarDopplerClass@@IAEXXZ ; RadarDopplerClass::DrawRangeArrows
$LN29@Display:

; 344  : 					if (IsAADclt(Rng) == FALSE) DrawRange();

	push	65536					; 00010000H
	mov	ecx, DWORD PTR _this$[ebp]
	call	?IsAADclt@RadarDopplerClass@@IAEHH@Z	; RadarDopplerClass::IsAADclt
	test	eax, eax
	jne	SHORT $LN28@Display
	mov	ecx, DWORD PTR _this$[ebp]
	call	?DrawRange@RadarDopplerClass@@IAEXXZ	; RadarDopplerClass::DrawRange
$LN28@Display:

; 345  : 					// DrawBars(); // ASSOCIATOR 3/12/03: Redundant
; 346  : 					DrawWaterline();

	mov	ecx, DWORD PTR _this$[ebp]
	call	?DrawWaterline@RadarDopplerClass@@IAEXXZ ; RadarDopplerClass::DrawWaterline

; 347  : 					display->SetColor(GetMfdColor(MFD_BULLSEYE)); // JPO

	push	4
	mov	ecx, DWORD PTR _this$[ebp]
	call	?GetMfdColor@DrawableClass@@QAEIW4MfdColor@@@Z ; DrawableClass::GetMfdColor
	push	eax
	mov	ecx, DWORD PTR _this$[ebp]
	mov	edx, DWORD PTR [ecx+20]
	mov	eax, DWORD PTR _this$[ebp]
	mov	edx, DWORD PTR [edx]
	mov	ecx, DWORD PTR [eax+20]
	mov	eax, DWORD PTR [edx+92]
	call	eax

; 348  : 					//MI we only get the bullseye readout in the corner if we selected it so
; 349  : 					//the info on the cursor get's drawn nontheless
; 350  : 					if(!g_bRealisticAvionics)

	movzx	ecx, BYTE PTR ?g_bRealisticAvionics@@3_NA ; g_bRealisticAvionics
	test	ecx, ecx
	jne	SHORT $LN27@Display

; 351  : 						DrawBullseyeData(display, cX, cY);

	push	ecx
	movss	xmm0, DWORD PTR _cY$[ebp]
	movss	DWORD PTR [esp], xmm0
	push	ecx
	movss	xmm0, DWORD PTR _cX$[ebp]
	movss	DWORD PTR [esp], xmm0
	mov	edx, DWORD PTR _this$[ebp]
	mov	eax, DWORD PTR [edx+20]
	push	eax
	call	?DrawBullseyeData@@YAXPAVVirtualDisplay@@MM@Z ; DrawBullseyeData
	add	esp, 12					; 0000000cH

; 352  : 					else

	jmp	$LN24@Display
$LN27@Display:

; 353  : 					{
; 354  : 						if(OTWDriver.pCockpitManager && OTWDriver.pCockpitManager->mpIcp &&
; 355  : 										OTWDriver.pCockpitManager->mpIcp->ShowBullseyeInfo)

	cmp	DWORD PTR ?OTWDriver@@3VOTWDriverClass@@A+33684, 0
	je	SHORT $LN25@Display
	mov	ecx, DWORD PTR ?OTWDriver@@3VOTWDriverClass@@A+33684
	cmp	DWORD PTR [ecx+688], 0
	je	SHORT $LN25@Display
	mov	edx, DWORD PTR ?OTWDriver@@3VOTWDriverClass@@A+33684
	mov	eax, DWORD PTR [edx+688]
	movzx	ecx, BYTE PTR [eax+300]
	test	ecx, ecx
	je	SHORT $LN25@Display

; 356  : 						{
; 357  : 							DrawBullseyeCircle(display, cX, cY);

	push	ecx
	movss	xmm0, DWORD PTR _cY$[ebp]
	movss	DWORD PTR [esp], xmm0
	push	ecx
	movss	xmm0, DWORD PTR _cX$[ebp]
	movss	DWORD PTR [esp], xmm0
	mov	edx, DWORD PTR _this$[ebp]
	mov	eax, DWORD PTR [edx+20]
	push	eax
	call	?DrawBullseyeCircle@@YAXPAVVirtualDisplay@@MM@Z ; DrawBullseyeCircle

; 358  : 							DrawCursorBullseyeData(display, cX, cY);

	add	esp, 8
	movss	xmm0, DWORD PTR _cY$[ebp]
	movss	DWORD PTR [esp], xmm0
	push	ecx
	movss	xmm0, DWORD PTR _cX$[ebp]
	movss	DWORD PTR [esp], xmm0
	mov	ecx, DWORD PTR _this$[ebp]
	mov	edx, DWORD PTR [ecx+20]
	push	edx
	call	?DrawCursorBullseyeData@@YAXPAVVirtualDisplay@@MM@Z ; DrawCursorBullseyeData
	add	esp, 12					; 0000000cH

; 359  : 						}
; 360  : 						else

	jmp	SHORT $LN24@Display
$LN25@Display:

; 361  : 						{
; 362  : 							DrawReference(display);

	mov	eax, DWORD PTR _this$[ebp]
	mov	ecx, DWORD PTR [eax+20]
	push	ecx
	mov	ecx, DWORD PTR _this$[ebp]
	call	?DrawReference@RadarDopplerClass@@IAEXPAVVirtualDisplay@@@Z ; RadarDopplerClass::DrawReference

; 363  : 
; 364  : 							DrawSteerPointCursorData(display, platform, cX, cY);

	push	ecx
	movss	xmm0, DWORD PTR _cY$[ebp]
	movss	DWORD PTR [esp], xmm0
	push	ecx
	movss	xmm0, DWORD PTR _cX$[ebp]
	movss	DWORD PTR [esp], xmm0
	mov	edx, DWORD PTR _this$[ebp]
	mov	eax, DWORD PTR [edx+32]
	push	eax
	mov	ecx, DWORD PTR _this$[ebp]
	mov	edx, DWORD PTR [ecx+20]
	push	edx
	call	?DrawSteerPointCursorData@@YAXPAVVirtualDisplay@@PAVFalconEntity@@MM@Z ; DrawSteerPointCursorData
	add	esp, 16					; 00000010H
$LN24@Display:

; 365  : 						}
; 366  : 					}
; 367  : 					display->SetColor(tmpColor);

	mov	eax, DWORD PTR _tmpColor$[ebp]
	push	eax
	mov	ecx, DWORD PTR _this$[ebp]
	mov	edx, DWORD PTR [ecx+20]
	mov	eax, DWORD PTR _this$[ebp]
	mov	edx, DWORD PTR [edx]
	mov	ecx, DWORD PTR [eax+20]
	mov	eax, DWORD PTR [edx+92]
	call	eax

; 368  : 					VSDisplay();

	mov	ecx, DWORD PTR _this$[ebp]
	call	?VSDisplay@RadarDopplerClass@@IAEXXZ	; RadarDopplerClass::VSDisplay

; 369  : 					DrawACQCursor();

	mov	ecx, DWORD PTR _this$[ebp]
	call	?DrawACQCursor@RadarDopplerClass@@IAEXXZ ; RadarDopplerClass::DrawACQCursor

; 370  : 					display->SetColor(GetMfdColor(MFD_LINES)); // JPO

	push	1
	mov	ecx, DWORD PTR _this$[ebp]
	call	?GetMfdColor@DrawableClass@@QAEIW4MfdColor@@@Z ; DrawableClass::GetMfdColor
	push	eax
	mov	ecx, DWORD PTR _this$[ebp]
	mov	edx, DWORD PTR [ecx+20]
	mov	eax, DWORD PTR _this$[ebp]
	mov	edx, DWORD PTR [edx]
	mov	ecx, DWORD PTR [eax+20]
	mov	eax, DWORD PTR [edx+92]
	call	eax

; 371  : 					DrawSteerpoint();

	mov	ecx, DWORD PTR _this$[ebp]
	call	?DrawSteerpoint@RadarDopplerClass@@IAEXXZ ; RadarDopplerClass::DrawSteerpoint

; 372  : 					display->SetColor(tmpColor);

	mov	ecx, DWORD PTR _tmpColor$[ebp]
	push	ecx
	mov	edx, DWORD PTR _this$[ebp]
	mov	eax, DWORD PTR [edx+20]
	mov	ecx, DWORD PTR _this$[ebp]
	mov	edx, DWORD PTR [eax]
	mov	ecx, DWORD PTR [ecx+20]
	mov	eax, DWORD PTR [edx+92]
	call	eax

; 373  : 					break;

	jmp	$LN68@Display
$LN23@Display:

; 374  : 					//MI changed
; 375  : 			case GM:
; 376  : 			case GMT:
; 377  : 			case SEA:
; 378  : 					if(g_bRealisticAvionics)

	movzx	ecx, BYTE PTR ?g_bRealisticAvionics@@3_NA ; g_bRealisticAvionics
	test	ecx, ecx
	je	$LN22@Display

; 379  : 					{
; 380  : 						// ASSOCIATOR moved this check to RadarDopplerClass::DefaultAGModehere so that it only
; 381  : 						// defaults to AGR when first selected and than be changed manually to any other radar mode
; 382  : 						/*FireControlComputer* pFCC = ((SimVehicleClass*)platform)->GetFCC();//me123 addet for ccip/DTOSS ground ranging check
; 383  : 						  if(pFCC->GetSubMode() == FireControlComputer::CCIP || pFCC->GetSubMode() == FireControlComputer::DTOSS ||
; 384  : 						  pFCC->GetSubMode() == FireControlComputer::***STRAF || pFCC->GetSubMode() == FireControlComputer::RCKT)
; 385  : 						  {
; 386  : 						  if(mode != AGR) {
; 387  : 						  mode = AGR;
; 388  : 						  }
; 389  : 						  return;
; 390  : 						  }
; 391  : 						  else
; 392  : 						 */
; 393  : 						{
; 394  : 							GMDisplay();

	mov	ecx, DWORD PTR _this$[ebp]
	call	?GMDisplay@RadarDopplerClass@@IAEXXZ	; RadarDopplerClass::GMDisplay

; 395  : 							DrawWaterline();

	mov	ecx, DWORD PTR _this$[ebp]
	call	?DrawWaterline@RadarDopplerClass@@IAEXXZ ; RadarDopplerClass::DrawWaterline

; 396  : 							display->SetColor(GetMfdColor(MFD_BULLSEYE)); // JPO

	push	4
	mov	ecx, DWORD PTR _this$[ebp]
	call	?GetMfdColor@DrawableClass@@QAEIW4MfdColor@@@Z ; DrawableClass::GetMfdColor
	push	eax
	mov	edx, DWORD PTR _this$[ebp]
	mov	eax, DWORD PTR [edx+20]
	mov	ecx, DWORD PTR _this$[ebp]
	mov	edx, DWORD PTR [eax]
	mov	ecx, DWORD PTR [ecx+20]
	mov	eax, DWORD PTR [edx+92]
	call	eax

; 397  : 							//MI we only get the bullseye readout in the corner if we selected it so
; 398  : 							//the info on the cursor get's drawn nontheless
; 399  : 							if(!g_bRealisticAvionics)

	movzx	ecx, BYTE PTR ?g_bRealisticAvionics@@3_NA ; g_bRealisticAvionics
	test	ecx, ecx
	jne	SHORT $LN21@Display

; 400  : 								DrawBullseyeData(display, cX, cY);

	push	ecx
	movss	xmm0, DWORD PTR _cY$[ebp]
	movss	DWORD PTR [esp], xmm0
	push	ecx
	movss	xmm0, DWORD PTR _cX$[ebp]
	movss	DWORD PTR [esp], xmm0
	mov	edx, DWORD PTR _this$[ebp]
	mov	eax, DWORD PTR [edx+20]
	push	eax
	call	?DrawBullseyeData@@YAXPAVVirtualDisplay@@MM@Z ; DrawBullseyeData
	add	esp, 12					; 0000000cH

; 401  : 							else

	jmp	$LN17@Display
$LN21@Display:

; 402  : 							{
; 403  : 								if(OTWDriver.pCockpitManager && OTWDriver.pCockpitManager->mpIcp &&
; 404  : 												OTWDriver.pCockpitManager->mpIcp->ShowBullseyeInfo)

	cmp	DWORD PTR ?OTWDriver@@3VOTWDriverClass@@A+33684, 0
	je	SHORT $LN19@Display
	mov	ecx, DWORD PTR ?OTWDriver@@3VOTWDriverClass@@A+33684
	cmp	DWORD PTR [ecx+688], 0
	je	SHORT $LN19@Display
	mov	edx, DWORD PTR ?OTWDriver@@3VOTWDriverClass@@A+33684
	mov	eax, DWORD PTR [edx+688]
	movzx	ecx, BYTE PTR [eax+300]
	test	ecx, ecx
	je	SHORT $LN19@Display

; 405  : 								{
; 406  : 									DrawBullseyeCircle(display, cX, cY);

	push	ecx
	movss	xmm0, DWORD PTR _cY$[ebp]
	movss	DWORD PTR [esp], xmm0
	push	ecx
	movss	xmm0, DWORD PTR _cX$[ebp]
	movss	DWORD PTR [esp], xmm0
	mov	edx, DWORD PTR _this$[ebp]
	mov	eax, DWORD PTR [edx+20]
	push	eax
	call	?DrawBullseyeCircle@@YAXPAVVirtualDisplay@@MM@Z ; DrawBullseyeCircle

; 407  : 									DrawCursorBullseyeData(display, cX, cY);

	add	esp, 8
	movss	xmm0, DWORD PTR _cY$[ebp]
	movss	DWORD PTR [esp], xmm0
	push	ecx
	movss	xmm0, DWORD PTR _cX$[ebp]
	movss	DWORD PTR [esp], xmm0
	mov	ecx, DWORD PTR _this$[ebp]
	mov	edx, DWORD PTR [ecx+20]
	push	edx
	call	?DrawCursorBullseyeData@@YAXPAVVirtualDisplay@@MM@Z ; DrawCursorBullseyeData
	add	esp, 12					; 0000000cH

; 408  : 								}
; 409  : 								else

	jmp	SHORT $LN17@Display
$LN19@Display:

; 410  : 								{
; 411  : 									DrawReference(display);

	mov	eax, DWORD PTR _this$[ebp]
	mov	ecx, DWORD PTR [eax+20]
	push	ecx
	mov	ecx, DWORD PTR _this$[ebp]
	call	?DrawReference@RadarDopplerClass@@IAEXPAVVirtualDisplay@@@Z ; RadarDopplerClass::DrawReference

; 412  : 
; 413  : 									// ASSOCIATOR 3/12/03: check to enable Cursor Bullseye in Ground Radar Modes
; 414  : 									if( g_bEnableGRCursorBullseye )

	movzx	edx, BYTE PTR ?g_bEnableGRCursorBullseye@@3_NA ; g_bEnableGRCursorBullseye
	test	edx, edx
	je	SHORT $LN17@Display

; 415  : 										DrawSteerPointCursorData(display, platform, cX, cY);

	push	ecx
	movss	xmm0, DWORD PTR _cY$[ebp]
	movss	DWORD PTR [esp], xmm0
	push	ecx
	movss	xmm0, DWORD PTR _cX$[ebp]
	movss	DWORD PTR [esp], xmm0
	mov	eax, DWORD PTR _this$[ebp]
	mov	ecx, DWORD PTR [eax+32]
	push	ecx
	mov	edx, DWORD PTR _this$[ebp]
	mov	eax, DWORD PTR [edx+20]
	push	eax
	call	?DrawSteerPointCursorData@@YAXPAVVirtualDisplay@@PAVFalconEntity@@MM@Z ; DrawSteerPointCursorData
	add	esp, 16					; 00000010H
$LN17@Display:

; 416  : 								}
; 417  : 							}
; 418  : 							display->SetColor(tmpColor);

	mov	ecx, DWORD PTR _tmpColor$[ebp]
	push	ecx
	mov	edx, DWORD PTR _this$[ebp]
	mov	eax, DWORD PTR [edx+20]
	mov	ecx, DWORD PTR _this$[ebp]
	mov	edx, DWORD PTR [eax]
	mov	ecx, DWORD PTR [ecx+20]
	mov	eax, DWORD PTR [edx+92]
	call	eax

; 419  : 						}
; 420  : 					}
; 421  : 					else

	jmp	$LN16@Display
$LN22@Display:

; 422  : 					{
; 423  : 						GMDisplay();

	mov	ecx, DWORD PTR _this$[ebp]
	call	?GMDisplay@RadarDopplerClass@@IAEXXZ	; RadarDopplerClass::GMDisplay

; 424  : 						DrawWaterline();

	mov	ecx, DWORD PTR _this$[ebp]
	call	?DrawWaterline@RadarDopplerClass@@IAEXXZ ; RadarDopplerClass::DrawWaterline

; 425  : 						display->SetColor(GetMfdColor(MFD_BULLSEYE)); // JPO

	push	4
	mov	ecx, DWORD PTR _this$[ebp]
	call	?GetMfdColor@DrawableClass@@QAEIW4MfdColor@@@Z ; DrawableClass::GetMfdColor
	push	eax
	mov	ecx, DWORD PTR _this$[ebp]
	mov	edx, DWORD PTR [ecx+20]
	mov	eax, DWORD PTR _this$[ebp]
	mov	edx, DWORD PTR [edx]
	mov	ecx, DWORD PTR [eax+20]
	mov	eax, DWORD PTR [edx+92]
	call	eax

; 426  : 						//MI we only get the bullseye readout in the corner if we selected it so
; 427  : 						//the info on the cursor get's drawn nontheless
; 428  : 						if(!g_bRealisticAvionics)

	movzx	ecx, BYTE PTR ?g_bRealisticAvionics@@3_NA ; g_bRealisticAvionics
	test	ecx, ecx
	jne	SHORT $LN15@Display

; 429  : 							DrawBullseyeData(display, cX, cY);

	push	ecx
	movss	xmm0, DWORD PTR _cY$[ebp]
	movss	DWORD PTR [esp], xmm0
	push	ecx
	movss	xmm0, DWORD PTR _cX$[ebp]
	movss	DWORD PTR [esp], xmm0
	mov	edx, DWORD PTR _this$[ebp]
	mov	eax, DWORD PTR [edx+20]
	push	eax
	call	?DrawBullseyeData@@YAXPAVVirtualDisplay@@MM@Z ; DrawBullseyeData
	add	esp, 12					; 0000000cH

; 430  : 						else

	jmp	$LN12@Display
$LN15@Display:

; 431  : 						{
; 432  : 							if(OTWDriver.pCockpitManager && OTWDriver.pCockpitManager->mpIcp &&
; 433  : 											OTWDriver.pCockpitManager->mpIcp->ShowBullseyeInfo)

	cmp	DWORD PTR ?OTWDriver@@3VOTWDriverClass@@A+33684, 0
	je	SHORT $LN13@Display
	mov	ecx, DWORD PTR ?OTWDriver@@3VOTWDriverClass@@A+33684
	cmp	DWORD PTR [ecx+688], 0
	je	SHORT $LN13@Display
	mov	edx, DWORD PTR ?OTWDriver@@3VOTWDriverClass@@A+33684
	mov	eax, DWORD PTR [edx+688]
	movzx	ecx, BYTE PTR [eax+300]
	test	ecx, ecx
	je	SHORT $LN13@Display

; 434  : 							{
; 435  : 								DrawBullseyeCircle(display, cX, cY);

	push	ecx
	movss	xmm0, DWORD PTR _cY$[ebp]
	movss	DWORD PTR [esp], xmm0
	push	ecx
	movss	xmm0, DWORD PTR _cX$[ebp]
	movss	DWORD PTR [esp], xmm0
	mov	edx, DWORD PTR _this$[ebp]
	mov	eax, DWORD PTR [edx+20]
	push	eax
	call	?DrawBullseyeCircle@@YAXPAVVirtualDisplay@@MM@Z ; DrawBullseyeCircle

; 436  : 								DrawCursorBullseyeData(display, cX, cY);

	add	esp, 8
	movss	xmm0, DWORD PTR _cY$[ebp]
	movss	DWORD PTR [esp], xmm0
	push	ecx
	movss	xmm0, DWORD PTR _cX$[ebp]
	movss	DWORD PTR [esp], xmm0
	mov	ecx, DWORD PTR _this$[ebp]
	mov	edx, DWORD PTR [ecx+20]
	push	edx
	call	?DrawCursorBullseyeData@@YAXPAVVirtualDisplay@@MM@Z ; DrawCursorBullseyeData
	add	esp, 12					; 0000000cH

; 437  : 							}
; 438  : 							else

	jmp	SHORT $LN12@Display
$LN13@Display:

; 439  : 							{
; 440  : 								DrawReference(display);

	mov	eax, DWORD PTR _this$[ebp]
	mov	ecx, DWORD PTR [eax+20]
	push	ecx
	mov	ecx, DWORD PTR _this$[ebp]
	call	?DrawReference@RadarDopplerClass@@IAEXPAVVirtualDisplay@@@Z ; RadarDopplerClass::DrawReference

; 441  : 
; 442  : 								DrawSteerPointCursorData(display, platform, cX, cY);

	push	ecx
	movss	xmm0, DWORD PTR _cY$[ebp]
	movss	DWORD PTR [esp], xmm0
	push	ecx
	movss	xmm0, DWORD PTR _cX$[ebp]
	movss	DWORD PTR [esp], xmm0
	mov	edx, DWORD PTR _this$[ebp]
	mov	eax, DWORD PTR [edx+32]
	push	eax
	mov	ecx, DWORD PTR _this$[ebp]
	mov	edx, DWORD PTR [ecx+20]
	push	edx
	call	?DrawSteerPointCursorData@@YAXPAVVirtualDisplay@@PAVFalconEntity@@MM@Z ; DrawSteerPointCursorData
	add	esp, 16					; 00000010H
$LN12@Display:

; 443  : 							}
; 444  : 						}
; 445  : 						display->SetColor(tmpColor);

	mov	eax, DWORD PTR _tmpColor$[ebp]
	push	eax
	mov	ecx, DWORD PTR _this$[ebp]
	mov	edx, DWORD PTR [ecx+20]
	mov	eax, DWORD PTR _this$[ebp]
	mov	edx, DWORD PTR [edx]
	mov	ecx, DWORD PTR [eax+20]
	mov	eax, DWORD PTR [edx+92]
	call	eax
$LN16@Display:

; 446  : 					}
; 447  : 					break;

	jmp	SHORT $LN68@Display
$LN11@Display:

; 448  : 
; 449  : 					//MI
; 450  : 			case AGR:
; 451  : 					AGRangingDisplay();

	mov	ecx, DWORD PTR _this$[ebp]
	call	?AGRangingDisplay@RadarDopplerClass@@IAEXXZ ; RadarDopplerClass::AGRangingDisplay

; 452  : 					break;	

	jmp	SHORT $LN68@Display
$LN10@Display:

; 453  : 			default:
; 454  : 					DrawTargets();

	mov	ecx, DWORD PTR _this$[ebp]
	call	?DrawTargets@RadarDopplerClass@@IAEXXZ	; RadarDopplerClass::DrawTargets
$LN68@Display:

; 455  : 					break;
; 456  : 	}
; 457  : 
; 458  : 	display->SetViewport (vpLeft, vpTop, vpRight, vpBottom);

	push	ecx
	movss	xmm0, DWORD PTR _vpBottom$[ebp]
	movss	DWORD PTR [esp], xmm0
	push	ecx
	movss	xmm0, DWORD PTR _vpRight$[ebp]
	movss	DWORD PTR [esp], xmm0
	push	ecx
	movss	xmm0, DWORD PTR _vpTop$[ebp]
	movss	DWORD PTR [esp], xmm0
	push	ecx
	movss	xmm0, DWORD PTR _vpLeft$[ebp]
	movss	DWORD PTR [esp], xmm0
	mov	ecx, DWORD PTR _this$[ebp]
	mov	edx, DWORD PTR [ecx+20]
	mov	eax, DWORD PTR _this$[ebp]
	mov	edx, DWORD PTR [edx]
	mov	ecx, DWORD PTR [eax+20]
	mov	eax, DWORD PTR [edx+112]
	call	eax

; 459  : 	// SOI/Radiate status
; 460  : 	if (!IsSOI())

	mov	ecx, DWORD PTR _this$[ebp]
	call	?IsSOI@DrawableClass@@QAEHXZ		; DrawableClass::IsSOI
	test	eax, eax
	jne	SHORT $LN9@Display

; 461  : 	{
; 462  : 		display->SetColor(GetMfdColor(MFD_TEXT));

	push	7
	mov	ecx, DWORD PTR _this$[ebp]
	call	?GetMfdColor@DrawableClass@@QAEIW4MfdColor@@@Z ; DrawableClass::GetMfdColor
	push	eax
	mov	ecx, DWORD PTR _this$[ebp]
	mov	edx, DWORD PTR [ecx+20]
	mov	eax, DWORD PTR _this$[ebp]
	mov	edx, DWORD PTR [edx]
	mov	ecx, DWORD PTR [eax+20]
	mov	eax, DWORD PTR [edx+92]
	call	eax

; 463  : 		display->TextCenter(0.0F, 0.4F, "NOT SOI");

	push	0
	push	OFFSET ??_C@_07MBJCAOMB@NOT?5SOI?$AA@
	push	ecx
	movss	xmm0, DWORD PTR __real@3ecccccd
	movss	DWORD PTR [esp], xmm0
	push	ecx
	movss	xmm0, DWORD PTR __real@00000000
	movss	DWORD PTR [esp], xmm0
	mov	ecx, DWORD PTR _this$[ebp]
	mov	edx, DWORD PTR [ecx+20]
	mov	eax, DWORD PTR _this$[ebp]
	mov	edx, DWORD PTR [edx]
	mov	ecx, DWORD PTR [eax+20]
	mov	eax, DWORD PTR [edx+72]
	call	eax

; 464  : 	}
; 465  : 	else {

	jmp	SHORT $LN8@Display
$LN9@Display:

; 466  : 		display->SetColor(GetMfdColor(MFD_GREEN));

	push	0
	mov	ecx, DWORD PTR _this$[ebp]
	call	?GetMfdColor@DrawableClass@@QAEIW4MfdColor@@@Z ; DrawableClass::GetMfdColor
	push	eax
	mov	ecx, DWORD PTR _this$[ebp]
	mov	edx, DWORD PTR [ecx+20]
	mov	eax, DWORD PTR _this$[ebp]
	mov	edx, DWORD PTR [edx]
	mov	ecx, DWORD PTR [eax+20]
	mov	eax, DWORD PTR [edx+92]
	call	eax

; 467  : 		DrawBorder(); // JPO SOI

	mov	ecx, DWORD PTR _this$[ebp]
	call	?DrawBorder@DrawableClass@@QAEXXZ	; DrawableClass::DrawBorder
$LN8@Display:

; 468  : 	}
; 469  : 
; 470  : 	if (!isEmitting && mode != OFF) // JPO 

	mov	ecx, DWORD PTR _this$[ebp]
	cmp	DWORD PTR [ecx+76], 0
	jne	SHORT $LN6@Display
	mov	edx, DWORD PTR _this$[ebp]
	cmp	DWORD PTR [edx+184], 0
	je	SHORT $LN6@Display

; 471  : 	{
; 472  : 		//MI not here in real
; 473  : 		if(!g_bRealisticAvionics)

	movzx	eax, BYTE PTR ?g_bRealisticAvionics@@3_NA ; g_bRealisticAvionics
	test	eax, eax
	jne	SHORT $LN6@Display

; 474  : 		{
; 475  : 			display->SetColor(GetMfdColor(MFD_TEXT));

	push	7
	mov	ecx, DWORD PTR _this$[ebp]
	call	?GetMfdColor@DrawableClass@@QAEIW4MfdColor@@@Z ; DrawableClass::GetMfdColor
	push	eax
	mov	ecx, DWORD PTR _this$[ebp]
	mov	edx, DWORD PTR [ecx+20]
	mov	eax, DWORD PTR _this$[ebp]
	mov	edx, DWORD PTR [edx]
	mov	ecx, DWORD PTR [eax+20]
	mov	eax, DWORD PTR [edx+92]
	call	eax

; 476  : 			display->TextCenter (0.0F, 0.0F, "NO RAD");

	push	0
	push	OFFSET ??_C@_06MNCBBDMH@NO?5RAD?$AA@
	push	ecx
	movss	xmm0, DWORD PTR __real@00000000
	movss	DWORD PTR [esp], xmm0
	push	ecx
	movss	xmm0, DWORD PTR __real@00000000
	movss	DWORD PTR [esp], xmm0
	mov	ecx, DWORD PTR _this$[ebp]
	mov	edx, DWORD PTR [ecx+20]
	mov	eax, DWORD PTR _this$[ebp]
	mov	edx, DWORD PTR [edx]
	mov	ecx, DWORD PTR [eax+20]
	mov	eax, DWORD PTR [edx+72]
	call	eax
$LN6@Display:

; 477  : 		}
; 478  : 	}
; 479  : 	//Booster 12/09/2004 - Draw Pull Up cross on MFD if ground Collision
; 480  :    	if (SimDriver.GetPlayerAircraft()->mFaults->GetFault(alt_low))

	push	2
	mov	ecx, OFFSET ?SimDriver@@3VSimulationDriver@@A ; SimDriver
	call	?GetPlayerAircraft@SimulationDriver@@QBEPAVAircraftClass@@XZ ; SimulationDriver::GetPlayerAircraft
	mov	ecx, DWORD PTR [eax+928]
	call	?GetFault@FackClass@@QAEHW4type_CSubSystem@@@Z ; FackClass::GetFault
	test	eax, eax
	je	SHORT $LN5@Display

; 481  : 		DrawRedBreak(display);

	mov	ecx, DWORD PTR _this$[ebp]
	mov	edx, DWORD PTR [ecx+20]
	push	edx
	mov	ecx, DWORD PTR _this$[ebp]
	call	?DrawRedBreak@MfdDrawable@@QAEXPAVVirtualDisplay@@@Z ; MfdDrawable::DrawRedBreak
$LN5@Display:

; 482  : 
; 483  : 	// RV - I-Hawk
; 484  : 	// Check, if 1 of the MFDs is showing TGP and the attitude warning is set, show it... 
; 485  : 	// (works on all MFDs and not only here)
; 486  : 	for ( int i = 0; i < 4; i++ )

	mov	DWORD PTR _i$1[ebp], 0
	jmp	SHORT $LN4@Display
$LN3@Display:
	mov	eax, DWORD PTR _i$1[ebp]
	add	eax, 1
	mov	DWORD PTR _i$1[ebp], eax
$LN4@Display:
	cmp	DWORD PTR _i$1[ebp], 4
	jge	SHORT $LN2@Display

; 487  : 	{
; 488  : 		if ( (MfdDisplay[i])->GetTGPWarning() && (MfdDisplay[i])->CurMode() == MFDClass::TGPMode )

	mov	ecx, DWORD PTR _i$1[ebp]
	mov	ecx, DWORD PTR ?MfdDisplay@@3PAPAVMFDClass@@A[ecx*4]
	call	?GetTGPWarning@MFDClass@@QAEHXZ		; MFDClass::GetTGPWarning
	test	eax, eax
	je	SHORT $LN1@Display
	mov	edx, DWORD PTR _i$1[ebp]
	mov	ecx, DWORD PTR ?MfdDisplay@@3PAPAVMFDClass@@A[edx*4]
	call	?CurMode@MFDClass@@QAE?AW4MfdMode@1@XZ	; MFDClass::CurMode
	cmp	eax, 8
	jne	SHORT $LN1@Display

; 489  : 			{ 
; 490  : 				TGPAttitudeWarning(display);

	mov	eax, DWORD PTR _this$[ebp]
	mov	ecx, DWORD PTR [eax+20]
	push	ecx
	mov	ecx, DWORD PTR _this$[ebp]
	call	?TGPAttitudeWarning@MfdDrawable@@QAEXPAVVirtualDisplay@@@Z ; MfdDrawable::TGPAttitudeWarning

; 491  : 				break;

	jmp	SHORT $LN2@Display
$LN1@Display:

; 492  : 			}
; 493  : 	}

	jmp	SHORT $LN3@Display
$LN2@Display:

; 494  : 
; 495  : 	display = NULL;

	mov	edx, DWORD PTR _this$[ebp]
	mov	DWORD PTR [edx+20], 0

; 496  : }

	mov	esp, ebp
	pop	ebp
	ret	4
	npad	3
$LN77@Display:
	DD	$LN67@Display
	DD	$LN50@Display
	DD	$LN66@Display
	DD	$LN30@Display
	DD	$LN36@Display
	DD	$LN58@Display
	DD	$LN43@Display
	DD	$LN23@Display
	DD	$LN11@Display
	DD	$LN10@Display
$LN76@Display:
	DB	0
	DB	0
	DB	1
	DB	1
	DB	2
	DB	3
	DB	4
	DB	4
	DB	4
	DB	4
	DB	5
	DB	9
	DB	9
	DB	6
	DB	7
	DB	9
	DB	7
	DB	7
	DB	9
	DB	9
	DB	8
?Display@RadarDopplerClass@@UAEXPAVVirtualDisplay@@@Z ENDP ; RadarDopplerClass::Display
_TEXT	ENDS
; Function compile flags: /Odtp
; File c:\users\zhitao li\documents\visual studio 2012\projects\freefalcon\vu2\include\vu_templates.h
;	COMDAT ?get@?$VuBin@VFalconEntity@@@@QBEPAVFalconEntity@@XZ
_TEXT	SEGMENT
_this$ = -4						; size = 4
?get@?$VuBin@VFalconEntity@@@@QBEPAVFalconEntity@@XZ PROC ; VuBin<FalconEntity>::get, COMDAT
; _this$ = ecx

; 55   : 	E *get() const{

	push	ebp
	mov	ebp, esp
	push	ecx
	mov	DWORD PTR _this$[ebp], ecx

; 56   : 		return e;

	mov	eax, DWORD PTR _this$[ebp]
	mov	eax, DWORD PTR [eax]

; 57   : 	}

	mov	esp, ebp
	pop	ebp
	ret	0
?get@?$VuBin@VFalconEntity@@@@QBEPAVFalconEntity@@XZ ENDP ; VuBin<FalconEntity>::get
_TEXT	ENDS
; Function compile flags: /Odtp
; File c:\users\zhitao li\documents\visual studio 2012\projects\freefalcon\sim\include\object.h
;	COMDAT ?BaseData@SimObjectType@@QAEPAVFalconEntity@@XZ
_TEXT	SEGMENT
_this$ = -4						; size = 4
?BaseData@SimObjectType@@QAEPAVFalconEntity@@XZ PROC	; SimObjectType::BaseData, COMDAT
; _this$ = ecx

; 92   : 	FalconEntity* BaseData(void) { return baseData.get(); };

	push	ebp
	mov	ebp, esp
	push	ecx
	mov	DWORD PTR _this$[ebp], ecx
	mov	ecx, DWORD PTR _this$[ebp]
	call	?get@?$VuBin@VFalconEntity@@@@QBEPAVFalconEntity@@XZ ; VuBin<FalconEntity>::get
	mov	esp, ebp
	pop	ebp
	ret	0
?BaseData@SimObjectType@@QAEPAVFalconEntity@@XZ ENDP	; SimObjectType::BaseData
_TEXT	ENDS
; Function compile flags: /Odtp
; File c:\users\zhitao li\documents\visual studio 2012\projects\freefalcon\sim\include\mfd.h
;	COMDAT ?GetTGPWarning@MFDClass@@QAEHXZ
_TEXT	SEGMENT
_this$ = -4						; size = 4
?GetTGPWarning@MFDClass@@QAEHXZ PROC			; MFDClass::GetTGPWarning, COMDAT
; _this$ = ecx

; 94   : 	int GetTGPWarning() { return TGPWarning; }

	push	ebp
	mov	ebp, esp
	push	ecx
	mov	DWORD PTR _this$[ebp], ecx
	mov	eax, DWORD PTR _this$[ebp]
	mov	eax, DWORD PTR [eax+120]
	mov	esp, ebp
	pop	ebp
	ret	0
?GetTGPWarning@MFDClass@@QAEHXZ ENDP			; MFDClass::GetTGPWarning
_TEXT	ENDS
; Function compile flags: /Odtp
; File c:\users\zhitao li\documents\visual studio 2012\projects\freefalcon\sim\include\mfd.h
;	COMDAT ?CurMode@MFDClass@@QAE?AW4MfdMode@1@XZ
_TEXT	SEGMENT
tv68 = -8						; size = 4
_this$ = -4						; size = 4
?CurMode@MFDClass@@QAE?AW4MfdMode@1@XZ PROC		; MFDClass::CurMode, COMDAT
; _this$ = ecx

; 71   : 	MfdMode CurMode() { return mode == MfdMenu ? restoreMode : mode; };

	push	ebp
	mov	ebp, esp
	sub	esp, 8
	mov	DWORD PTR _this$[ebp], ecx
	mov	eax, DWORD PTR _this$[ebp]
	cmp	DWORD PTR [eax+8], 1
	jne	SHORT $LN3@CurMode
	mov	ecx, DWORD PTR _this$[ebp]
	mov	edx, DWORD PTR [ecx+16]
	mov	DWORD PTR tv68[ebp], edx
	jmp	SHORT $LN4@CurMode
$LN3@CurMode:
	mov	eax, DWORD PTR _this$[ebp]
	mov	ecx, DWORD PTR [eax+8]
	mov	DWORD PTR tv68[ebp], ecx
$LN4@CurMode:
	mov	eax, DWORD PTR tv68[ebp]
	mov	esp, ebp
	pop	ebp
	ret	0
?CurMode@MFDClass@@QAE?AW4MfdMode@1@XZ ENDP		; MFDClass::CurMode
_TEXT	ENDS
; Function compile flags: /Odtp
; File c:\users\zhitao li\documents\visual studio 2012\projects\freefalcon\sim\include\drawable.h
;	COMDAT ?IsSOI@DrawableClass@@QAEHXZ
_TEXT	SEGMENT
_this$ = -8						; size = 4
tv67 = -4						; size = 4
?IsSOI@DrawableClass@@QAEHXZ PROC			; DrawableClass::IsSOI, COMDAT
; _this$ = ecx

; 141  :       int IsSOI (void) {return (drawFlags & SOI ? TRUE : FALSE);};

	push	ebp
	mov	ebp, esp
	sub	esp, 8
	mov	DWORD PTR _this$[ebp], ecx
	mov	eax, DWORD PTR _this$[ebp]
	mov	ecx, DWORD PTR [eax+8]
	and	ecx, 1
	je	SHORT $LN3@IsSOI
	mov	DWORD PTR tv67[ebp], 1
	jmp	SHORT $LN4@IsSOI
$LN3@IsSOI:
	mov	DWORD PTR tv67[ebp], 0
$LN4@IsSOI:
	mov	eax, DWORD PTR tv67[ebp]
	mov	esp, ebp
	pop	ebp
	ret	0
?IsSOI@DrawableClass@@QAEHXZ ENDP			; DrawableClass::IsSOI
_TEXT	ENDS
; Function compile flags: /Odtp
; File c:\users\zhitao li\documents\visual studio 2012\projects\freefalcon\falclib\include\mltrig.h
;	COMDAT ?checked_atan2@@YANNN@Z
_TEXT	SEGMENT
_z$ = -8						; size = 8
_y$ = 8							; size = 8
_x$ = 16						; size = 8
?checked_atan2@@YANNN@Z PROC				; checked_atan2, COMDAT

; 46   : {

	push	ebp
	mov	ebp, esp
	sub	esp, 8

; 47   : 	double z;
; 48   : 	
; 49   : 	if (x == -0.0)

	movsd	xmm0, QWORD PTR _x$[ebp]
	ucomisd	xmm0, QWORD PTR __real@8000000000000000
	lahf
	test	ah, 68					; 00000044H
	jp	SHORT $LN8@checked_at

; 50   : 		x = 0.0;

	movsd	xmm0, QWORD PTR __real@0000000000000000
	movsd	QWORD PTR _x$[ebp], xmm0
$LN8@checked_at:

; 51   : 	
; 52   : 	if (x != 0)

	movsd	xmm0, QWORD PTR _x$[ebp]
	ucomisd	xmm0, QWORD PTR __real@0000000000000000
	lahf
	test	ah, 68					; 00000044H
	jnp	SHORT $LN7@checked_at

; 53   : 		z = atan(y / x);

	movsd	xmm0, QWORD PTR _y$[ebp]
	divsd	xmm0, QWORD PTR _x$[ebp]
	sub	esp, 8
	movsd	QWORD PTR [esp], xmm0
	call	_atan
	add	esp, 8
	fstp	QWORD PTR _z$[ebp]
	jmp	SHORT $LN4@checked_at
$LN7@checked_at:

; 54   : 	else if (y > 0)

	movsd	xmm0, QWORD PTR _y$[ebp]
	comisd	xmm0, QWORD PTR __real@0000000000000000
	jbe	SHORT $LN5@checked_at

; 55   : 		z = HALF_DPI;

	movsd	xmm0, QWORD PTR __real@3ff921fb54442d18
	movsd	QWORD PTR _z$[ebp], xmm0

; 56   : 	else

	jmp	SHORT $LN4@checked_at
$LN5@checked_at:

; 57   : 		z = -HALF_DPI;

	movsd	xmm0, QWORD PTR __real@bff921fb54442d18
	movsd	QWORD PTR _z$[ebp], xmm0
$LN4@checked_at:

; 58   : 
; 59   : 	if (x < 0)

	movsd	xmm0, QWORD PTR __real@0000000000000000
	comisd	xmm0, QWORD PTR _x$[ebp]
	jbe	SHORT $LN1@checked_at

; 60   : 	{
; 61   : 		if (y < 0)

	movsd	xmm0, QWORD PTR __real@0000000000000000
	comisd	xmm0, QWORD PTR _y$[ebp]
	jbe	SHORT $LN2@checked_at

; 62   : 			z -= DPI;

	movsd	xmm0, QWORD PTR _z$[ebp]
	subsd	xmm0, QWORD PTR __real@400921fb54442d18
	movsd	QWORD PTR _z$[ebp], xmm0

; 63   : 		else

	jmp	SHORT $LN1@checked_at
$LN2@checked_at:

; 64   : 			z += DPI;

	movsd	xmm0, QWORD PTR _z$[ebp]
	addsd	xmm0, QWORD PTR __real@400921fb54442d18
	movsd	QWORD PTR _z$[ebp], xmm0
$LN1@checked_at:

; 65   : 	}
; 66   : 
; 67   : 	return z;

	fld	QWORD PTR _z$[ebp]

; 68   : }

	mov	esp, ebp
	pop	ebp
	ret	0
?checked_atan2@@YANNN@Z ENDP				; checked_atan2
_TEXT	ENDS
; Function compile flags: /Odtp
; File c:\users\zhitao li\documents\visual studio 2012\projects\freefalcon\falclib\include\mltrig.h
;	COMDAT ?mlSinCos@@YAXPAUmlTrig@@M@Z
_TEXT	SEGMENT
_trig$ = 8						; size = 4
_angle$ = 12						; size = 4
?mlSinCos@@YAXPAUmlTrig@@M@Z PROC			; mlSinCos, COMDAT

; 12   : {

	push	ebp
	mov	ebp, esp

; 13   : #if defined(_MSC_VER)
; 14   : 	__asm 
; 15   : 	{
; 16   : 		__asm	mov     ecx, trig;

	mov	ecx, DWORD PTR _trig$[ebp]

; 17   : 		__asm	fld     dword ptr [angle];

	fld	DWORD PTR _angle$[ebp]

; 18   : 		__asm	fsincos;

	fsincos

; 19   : 		__asm	fstp    dword ptr [ecx]trig.cos;

	fstp	DWORD PTR [ecx+4]

; 20   : 		__asm	fstp    dword ptr [ecx]trig.sin;

	fstp	DWORD PTR [ecx]

; 21   : 	}
; 22   : #else
; 23   : 	trig->sin = (Float32)sin(angle);
; 24   : 	trig->cos = (Float32)cos(angle);
; 25   : #endif
; 26   : }

	pop	ebp
	ret	0
?mlSinCos@@YAXPAUmlTrig@@M@Z ENDP			; mlSinCos
_TEXT	ENDS
; Function compile flags: /Odtp
; File c:\users\zhitao li\documents\visual studio 2012\projects\freefalcon\falclib\include\falcent.h
;	COMDAT ?IsSim@FalconEntity@@QAEHXZ
_TEXT	SEGMENT
_this$ = -8						; size = 4
tv68 = -4						; size = 4
?IsSim@FalconEntity@@QAEHXZ PROC			; FalconEntity::IsSim, COMDAT
; _this$ = ecx

; 103  : 		{return (falconType & FalconSimEntity) ? TRUE : FALSE;};

	push	ebp
	mov	ebp, esp
	sub	esp, 8
	mov	DWORD PTR _this$[ebp], ecx
	mov	eax, DWORD PTR _this$[ebp]
	movsx	ecx, BYTE PTR [eax+137]
	and	ecx, 2
	je	SHORT $LN3@IsSim
	mov	DWORD PTR tv68[ebp], 1
	jmp	SHORT $LN4@IsSim
$LN3@IsSim:
	mov	DWORD PTR tv68[ebp], 0
$LN4@IsSim:
	mov	eax, DWORD PTR tv68[ebp]
	mov	esp, ebp
	pop	ebp
	ret	0
?IsSim@FalconEntity@@QAEHXZ ENDP			; FalconEntity::IsSim
_TEXT	ENDS
; Function compile flags: /Odtp
; File c:\program files (x86)\microsoft visual studio 11.0\vc\include\xstring
;	COMDAT ?_Xran@?$basic_string@DU?$char_traits@D@std@@V?$allocator@D@2@@std@@QBEXXZ
_TEXT	SEGMENT
_this$ = -4						; size = 4
?_Xran@?$basic_string@DU?$char_traits@D@std@@V?$allocator@D@2@@std@@QBEXXZ PROC ; std::basic_string<char,std::char_traits<char>,std::allocator<char> >::_Xran, COMDAT
; _this$ = ecx

; 2275 : 		{	// report an out_of_range error

	push	ebp
	mov	ebp, esp
	push	ecx
	mov	DWORD PTR _this$[ebp], ecx

; 2276 : 		_Xout_of_range("invalid string position");

	push	OFFSET ??_C@_0BI@CFPLBAOH@invalid?5string?5position?$AA@
	call	?_Xout_of_range@std@@YAXPBD@Z		; std::_Xout_of_range
$LN2@Xran:

; 2277 : 		}

	mov	esp, ebp
	pop	ebp
	ret	0
?_Xran@?$basic_string@DU?$char_traits@D@std@@V?$allocator@D@2@@std@@QBEXXZ ENDP ; std::basic_string<char,std::char_traits<char>,std::allocator<char> >::_Xran
_TEXT	ENDS
; Function compile flags: /Odtp
; File c:\program files (x86)\microsoft visual studio 11.0\vc\include\xstring
;	COMDAT ?_Xlen@?$basic_string@DU?$char_traits@D@std@@V?$allocator@D@2@@std@@QBEXXZ
_TEXT	SEGMENT
_this$ = -4						; size = 4
?_Xlen@?$basic_string@DU?$char_traits@D@std@@V?$allocator@D@2@@std@@QBEXXZ PROC ; std::basic_string<char,std::char_traits<char>,std::allocator<char> >::_Xlen, COMDAT
; _this$ = ecx

; 2270 : 		{	// report a length_error

	push	ebp
	mov	ebp, esp
	push	ecx
	mov	DWORD PTR _this$[ebp], ecx

; 2271 : 		_Xlength_error("string too long");

	push	OFFSET ??_C@_0BA@JFNIOLAK@string?5too?5long?$AA@
	call	?_Xlength_error@std@@YAXPBD@Z		; std::_Xlength_error
$LN2@Xlen:

; 2272 : 		}

	mov	esp, ebp
	pop	ebp
	ret	0
?_Xlen@?$basic_string@DU?$char_traits@D@std@@V?$allocator@D@2@@std@@QBEXXZ ENDP ; std::basic_string<char,std::char_traits<char>,std::allocator<char> >::_Xlen
_TEXT	ENDS
; Function compile flags: /Odtp
; File c:\program files (x86)\microsoft visual studio 11.0\vc\include\xstring
;	COMDAT ?_Tidy@?$basic_string@DU?$char_traits@D@std@@V?$allocator@D@2@@std@@QAEX_NI@Z
_TEXT	SEGMENT
__Ptr$1 = -12						; size = 4
_this$ = -8						; size = 4
$T2 = -2						; size = 1
$T3 = -1						; size = 1
__Built$ = 8						; size = 1
__Newsize$ = 12						; size = 4
?_Tidy@?$basic_string@DU?$char_traits@D@std@@V?$allocator@D@2@@std@@QAEX_NI@Z PROC ; std::basic_string<char,std::char_traits<char>,std::allocator<char> >::_Tidy, COMDAT
; _this$ = ecx

; 2253 : 		{	// initialize buffer, deallocating any storage

	push	ebp
	mov	ebp, esp
	sub	esp, 12					; 0000000cH
	mov	DWORD PTR _this$[ebp], ecx

; 2254 : 		if (!_Built)

	movzx	eax, BYTE PTR __Built$[ebp]
	test	eax, eax
	jne	SHORT $LN4@Tidy
	jmp	SHORT $LN3@Tidy
$LN4@Tidy:

; 2255 : 			;
; 2256 : 		else if (this->_BUF_SIZE <= this->_Myres)

	mov	ecx, DWORD PTR _this$[ebp]
	cmp	DWORD PTR [ecx+20], 16			; 00000010H
	jb	SHORT $LN3@Tidy

; 2257 : 			{	// copy any leftovers to small buffer and deallocate
; 2258 : 			pointer _Ptr = this->_Bx._Ptr;

	mov	edx, DWORD PTR _this$[ebp]
	mov	eax, DWORD PTR [edx]
	mov	DWORD PTR __Ptr$1[ebp], eax

; 2259 : 			this->_Getal().destroy(&this->_Bx._Ptr);

	mov	ecx, DWORD PTR _this$[ebp]
	push	ecx
	lea	edx, DWORD PTR $T3[ebp]
	push	edx
	mov	ecx, DWORD PTR _this$[ebp]
	call	?_Getal@?$_String_alloc@$0A@U?$_String_base_types@DV?$allocator@D@std@@@std@@@std@@QBE?AU?$_Wrap_alloc@V?$allocator@D@std@@@2@XZ ; std::_String_alloc<0,std::_String_base_types<char,std::allocator<char> > >::_Getal
	mov	ecx, eax
	call	??$destroy@PAD@?$_Wrap_alloc@V?$allocator@D@std@@@std@@QAEXPAPAD@Z ; std::_Wrap_alloc<std::allocator<char> >::destroy<char *>

; 2260 : 			if (0 < _Newsize)

	cmp	DWORD PTR __Newsize$[ebp], 0
	jbe	SHORT $LN1@Tidy

; 2261 : 				_Traits::copy(this->_Bx._Buf,
; 2262 : 					_STD addressof(*_Ptr), _Newsize);

	mov	eax, DWORD PTR __Newsize$[ebp]
	push	eax
	mov	ecx, DWORD PTR __Ptr$1[ebp]
	push	ecx
	call	??$addressof@D@std@@YAPADAAD@Z		; std::addressof<char>
	add	esp, 4
	push	eax
	mov	edx, DWORD PTR _this$[ebp]
	push	edx
	call	?copy@?$char_traits@D@std@@SAPADPADPBDI@Z ; std::char_traits<char>::copy
	add	esp, 12					; 0000000cH
$LN1@Tidy:

; 2263 : 			this->_Getal().deallocate(_Ptr, this->_Myres + 1);

	mov	eax, DWORD PTR _this$[ebp]
	mov	ecx, DWORD PTR [eax+20]
	add	ecx, 1
	push	ecx
	mov	edx, DWORD PTR __Ptr$1[ebp]
	push	edx
	lea	eax, DWORD PTR $T2[ebp]
	push	eax
	mov	ecx, DWORD PTR _this$[ebp]
	call	?_Getal@?$_String_alloc@$0A@U?$_String_base_types@DV?$allocator@D@std@@@std@@@std@@QBE?AU?$_Wrap_alloc@V?$allocator@D@std@@@2@XZ ; std::_String_alloc<0,std::_String_base_types<char,std::allocator<char> > >::_Getal
	mov	ecx, eax
	call	?deallocate@?$_Wrap_alloc@V?$allocator@D@std@@@std@@QAEXPADI@Z ; std::_Wrap_alloc<std::allocator<char> >::deallocate
$LN3@Tidy:

; 2264 : 			}
; 2265 : 		this->_Myres = this->_BUF_SIZE - 1;

	mov	ecx, DWORD PTR _this$[ebp]
	mov	DWORD PTR [ecx+20], 15			; 0000000fH

; 2266 : 		_Eos(_Newsize);

	mov	edx, DWORD PTR __Newsize$[ebp]
	push	edx
	mov	ecx, DWORD PTR _this$[ebp]
	call	?_Eos@?$basic_string@DU?$char_traits@D@std@@V?$allocator@D@2@@std@@QAEXI@Z ; std::basic_string<char,std::char_traits<char>,std::allocator<char> >::_Eos

; 2267 : 		}

	mov	esp, ebp
	pop	ebp
	ret	8
?_Tidy@?$basic_string@DU?$char_traits@D@std@@V?$allocator@D@2@@std@@QAEX_NI@Z ENDP ; std::basic_string<char,std::char_traits<char>,std::allocator<char> >::_Tidy
_TEXT	ENDS
; Function compile flags: /Odtp
; File c:\program files (x86)\microsoft visual studio 11.0\vc\include\xstring
;	COMDAT ?_Inside@?$basic_string@DU?$char_traits@D@std@@V?$allocator@D@2@@std@@QAE_NPBD@Z
_TEXT	SEGMENT
_this$ = -4						; size = 4
__Ptr$ = 8						; size = 4
?_Inside@?$basic_string@DU?$char_traits@D@std@@V?$allocator@D@2@@std@@QAE_NPBD@Z PROC ; std::basic_string<char,std::char_traits<char>,std::allocator<char> >::_Inside, COMDAT
; _this$ = ecx

; 2237 : 		{	// test if _Ptr points inside string

	push	ebp
	mov	ebp, esp
	push	ecx
	mov	DWORD PTR _this$[ebp], ecx

; 2238 : 		if (_Ptr == 0 || _Ptr < this->_Myptr()
; 2239 : 			|| this->_Myptr() + this->_Mysize <= _Ptr)

	cmp	DWORD PTR __Ptr$[ebp], 0
	je	SHORT $LN2@Inside
	mov	ecx, DWORD PTR _this$[ebp]
	call	?_Myptr@?$_String_val@U?$_Simple_types@D@std@@@std@@QAEPADXZ ; std::_String_val<std::_Simple_types<char> >::_Myptr
	cmp	DWORD PTR __Ptr$[ebp], eax
	jb	SHORT $LN2@Inside
	mov	ecx, DWORD PTR _this$[ebp]
	call	?_Myptr@?$_String_val@U?$_Simple_types@D@std@@@std@@QAEPADXZ ; std::_String_val<std::_Simple_types<char> >::_Myptr
	mov	ecx, DWORD PTR _this$[ebp]
	add	eax, DWORD PTR [ecx+16]
	cmp	eax, DWORD PTR __Ptr$[ebp]
	ja	SHORT $LN3@Inside
$LN2@Inside:

; 2240 : 			return (false);	// don't ask

	xor	al, al
	jmp	SHORT $LN4@Inside

; 2241 : 		else

	jmp	SHORT $LN4@Inside
$LN3@Inside:

; 2242 : 			return (true);

	mov	al, 1
$LN4@Inside:

; 2243 : 		}

	mov	esp, ebp
	pop	ebp
	ret	4
?_Inside@?$basic_string@DU?$char_traits@D@std@@V?$allocator@D@2@@std@@QAE_NPBD@Z ENDP ; std::basic_string<char,std::char_traits<char>,std::allocator<char> >::_Inside
_TEXT	ENDS
; Function compile flags: /Odtp
; File c:\program files (x86)\microsoft visual studio 11.0\vc\include\xstring
;	COMDAT ?_Grow@?$basic_string@DU?$char_traits@D@std@@V?$allocator@D@2@@std@@QAE_NI_N@Z
_TEXT	SEGMENT
tv136 = -12						; size = 4
tv129 = -8						; size = 4
_this$ = -4						; size = 4
__Newsize$ = 8						; size = 4
__Trim$ = 12						; size = 1
?_Grow@?$basic_string@DU?$char_traits@D@std@@V?$allocator@D@2@@std@@QAE_NI_N@Z PROC ; std::basic_string<char,std::char_traits<char>,std::allocator<char> >::_Grow, COMDAT
; _this$ = ecx

; 2223 : 		{	// ensure buffer is big enough, trim to size if _Trim is true

	push	ebp
	mov	ebp, esp
	sub	esp, 12					; 0000000cH
	mov	DWORD PTR _this$[ebp], ecx

; 2224 : 		if (max_size() < _Newsize)

	mov	ecx, DWORD PTR _this$[ebp]
	call	?max_size@?$basic_string@DU?$char_traits@D@std@@V?$allocator@D@2@@std@@QBEIXZ ; std::basic_string<char,std::char_traits<char>,std::allocator<char> >::max_size
	cmp	eax, DWORD PTR __Newsize$[ebp]
	jae	SHORT $LN6@Grow

; 2225 : 			_Xlen();	// result too long

	mov	ecx, DWORD PTR _this$[ebp]
	call	?_Xlen@?$basic_string@DU?$char_traits@D@std@@V?$allocator@D@2@@std@@QBEXXZ ; std::basic_string<char,std::char_traits<char>,std::allocator<char> >::_Xlen
$LN6@Grow:

; 2226 : 		if (this->_Myres < _Newsize)

	mov	eax, DWORD PTR _this$[ebp]
	mov	ecx, DWORD PTR [eax+20]
	cmp	ecx, DWORD PTR __Newsize$[ebp]
	jae	SHORT $LN5@Grow

; 2227 : 			_Copy(_Newsize, this->_Mysize);	// reallocate to grow

	mov	edx, DWORD PTR _this$[ebp]
	mov	eax, DWORD PTR [edx+16]
	push	eax
	mov	ecx, DWORD PTR __Newsize$[ebp]
	push	ecx
	mov	ecx, DWORD PTR _this$[ebp]
	call	?_Copy@?$basic_string@DU?$char_traits@D@std@@V?$allocator@D@2@@std@@QAEXII@Z ; std::basic_string<char,std::char_traits<char>,std::allocator<char> >::_Copy
	jmp	SHORT $LN4@Grow
$LN5@Grow:

; 2228 : 		else if (_Trim && _Newsize < this->_BUF_SIZE)

	movzx	edx, BYTE PTR __Trim$[ebp]
	test	edx, edx
	je	SHORT $LN3@Grow
	cmp	DWORD PTR __Newsize$[ebp], 16		; 00000010H
	jae	SHORT $LN3@Grow

; 2229 : 			_Tidy(true,	// copy and deallocate if trimming to small string
; 2230 : 				_Newsize < this->_Mysize ? _Newsize : this->_Mysize);

	mov	eax, DWORD PTR _this$[ebp]
	mov	ecx, DWORD PTR __Newsize$[ebp]
	cmp	ecx, DWORD PTR [eax+16]
	jae	SHORT $LN9@Grow
	mov	edx, DWORD PTR __Newsize$[ebp]
	mov	DWORD PTR tv129[ebp], edx
	jmp	SHORT $LN10@Grow
$LN9@Grow:
	mov	eax, DWORD PTR _this$[ebp]
	mov	ecx, DWORD PTR [eax+16]
	mov	DWORD PTR tv129[ebp], ecx
$LN10@Grow:
	mov	edx, DWORD PTR tv129[ebp]
	push	edx
	push	1
	mov	ecx, DWORD PTR _this$[ebp]
	call	?_Tidy@?$basic_string@DU?$char_traits@D@std@@V?$allocator@D@2@@std@@QAEX_NI@Z ; std::basic_string<char,std::char_traits<char>,std::allocator<char> >::_Tidy
	jmp	SHORT $LN4@Grow
$LN3@Grow:

; 2231 : 		else if (_Newsize == 0)

	cmp	DWORD PTR __Newsize$[ebp], 0
	jne	SHORT $LN4@Grow

; 2232 : 			_Eos(0);	// new size is zero, just null terminate

	push	0
	mov	ecx, DWORD PTR _this$[ebp]
	call	?_Eos@?$basic_string@DU?$char_traits@D@std@@V?$allocator@D@2@@std@@QAEXI@Z ; std::basic_string<char,std::char_traits<char>,std::allocator<char> >::_Eos
$LN4@Grow:

; 2233 : 		return (0 < _Newsize);	// return true only if more work to do

	cmp	DWORD PTR __Newsize$[ebp], 0
	jbe	SHORT $LN11@Grow
	mov	DWORD PTR tv136[ebp], 1
	jmp	SHORT $LN12@Grow
$LN11@Grow:
	mov	DWORD PTR tv136[ebp], 0
$LN12@Grow:
	mov	al, BYTE PTR tv136[ebp]
$LN8@Grow:

; 2234 : 		}

	mov	esp, ebp
	pop	ebp
	ret	8
?_Grow@?$basic_string@DU?$char_traits@D@std@@V?$allocator@D@2@@std@@QAE_NI_N@Z ENDP ; std::basic_string<char,std::char_traits<char>,std::allocator<char> >::_Grow
_TEXT	ENDS
; Function compile flags: /Odtp
; File c:\program files (x86)\microsoft visual studio 11.0\vc\include\xstring
;	COMDAT ?_Eos@?$basic_string@DU?$char_traits@D@std@@V?$allocator@D@2@@std@@QAEXI@Z
_TEXT	SEGMENT
_this$ = -8						; size = 4
$T1 = -1						; size = 1
__Newsize$ = 8						; size = 4
?_Eos@?$basic_string@DU?$char_traits@D@std@@V?$allocator@D@2@@std@@QAEXI@Z PROC ; std::basic_string<char,std::char_traits<char>,std::allocator<char> >::_Eos, COMDAT
; _this$ = ecx

; 2217 : 		{	// set new length and null terminator

	push	ebp
	mov	ebp, esp
	sub	esp, 8
	mov	DWORD PTR _this$[ebp], ecx

; 2218 : 		_Traits::assign(this->_Myptr()[this->_Mysize = _Newsize], _Elem());

	mov	BYTE PTR $T1[ebp], 0
	mov	eax, DWORD PTR _this$[ebp]
	mov	ecx, DWORD PTR __Newsize$[ebp]
	mov	DWORD PTR [eax+16], ecx
	lea	edx, DWORD PTR $T1[ebp]
	push	edx
	mov	ecx, DWORD PTR _this$[ebp]
	call	?_Myptr@?$_String_val@U?$_Simple_types@D@std@@@std@@QAEPADXZ ; std::_String_val<std::_Simple_types<char> >::_Myptr
	add	eax, DWORD PTR __Newsize$[ebp]
	push	eax
	call	?assign@?$char_traits@D@std@@SAXAADABD@Z ; std::char_traits<char>::assign
	add	esp, 8

; 2219 : 		}

	mov	esp, ebp
	pop	ebp
	ret	4
?_Eos@?$basic_string@DU?$char_traits@D@std@@V?$allocator@D@2@@std@@QAEXI@Z ENDP ; std::basic_string<char,std::char_traits<char>,std::allocator<char> >::_Eos
_TEXT	ENDS
; Function compile flags: /Odtp
; File c:\program files (x86)\microsoft visual studio 11.0\vc\include\xstring
;	COMDAT ?_Copy@?$basic_string@DU?$char_traits@D@std@@V?$allocator@D@2@@std@@QAEXII@Z
_TEXT	SEGMENT
tv205 = -48						; size = 4
tv204 = -44						; size = 4
tv203 = -40						; size = 4
tv202 = -36						; size = 4
__Ptr$ = -32						; size = 4
__Newres$ = -28						; size = 4
_this$ = -24						; size = 4
$T2 = -19						; size = 1
$T3 = -18						; size = 1
$T4 = -17						; size = 1
__$EHRec$ = -16						; size = 16
__Newsize$ = 8						; size = 4
__Oldlen$ = 12						; size = 4
?_Copy@?$basic_string@DU?$char_traits@D@std@@V?$allocator@D@2@@std@@QAEXII@Z PROC ; std::basic_string<char,std::char_traits<char>,std::allocator<char> >::_Copy, COMDAT
; _this$ = ecx

; 2182 : 		{	// copy _Oldlen elements to newly allocated buffer

	push	ebp
	mov	ebp, esp
	push	-1
	push	__ehhandler$?_Copy@?$basic_string@DU?$char_traits@D@std@@V?$allocator@D@2@@std@@QAEXII@Z
	mov	eax, DWORD PTR fs:0
	push	eax
	push	ecx
	sub	esp, 32					; 00000020H
	push	ebx
	push	esi
	push	edi
	mov	eax, DWORD PTR ___security_cookie
	xor	eax, ebp
	push	eax
	lea	eax, DWORD PTR __$EHRec$[ebp+4]
	mov	DWORD PTR fs:0, eax
	mov	DWORD PTR __$EHRec$[ebp], esp
	mov	DWORD PTR _this$[ebp], ecx

; 2183 : 		size_type _Newres = _Newsize | this->_ALLOC_MASK;

	mov	eax, DWORD PTR __Newsize$[ebp]
	or	eax, 15					; 0000000fH
	mov	DWORD PTR __Newres$[ebp], eax

; 2184 : 		if (max_size() < _Newres)

	mov	ecx, DWORD PTR _this$[ebp]
	call	?max_size@?$basic_string@DU?$char_traits@D@std@@V?$allocator@D@2@@std@@QBEIXZ ; std::basic_string<char,std::char_traits<char>,std::allocator<char> >::max_size
	cmp	eax, DWORD PTR __Newres$[ebp]
	jae	SHORT $LN9@Copy

; 2185 : 			_Newres = _Newsize;	// undo roundup if too big

	mov	ecx, DWORD PTR __Newsize$[ebp]
	mov	DWORD PTR __Newres$[ebp], ecx
	jmp	SHORT $LN8@Copy
$LN9@Copy:

; 2186 : 		else if (this->_Myres / 2 <= _Newres / 3)

	mov	eax, DWORD PTR __Newres$[ebp]
	xor	edx, edx
	mov	ecx, 3
	div	ecx
	mov	edx, DWORD PTR _this$[ebp]
	mov	ecx, DWORD PTR [edx+20]
	shr	ecx, 1
	cmp	ecx, eax
	ja	SHORT $LN7@Copy
	jmp	SHORT $LN8@Copy
$LN7@Copy:

; 2187 : 			;
; 2188 : 		else if (this->_Myres <= max_size() - this->_Myres / 2)

	mov	edx, DWORD PTR _this$[ebp]
	mov	esi, DWORD PTR [edx+20]
	shr	esi, 1
	mov	ecx, DWORD PTR _this$[ebp]
	call	?max_size@?$basic_string@DU?$char_traits@D@std@@V?$allocator@D@2@@std@@QBEIXZ ; std::basic_string<char,std::char_traits<char>,std::allocator<char> >::max_size
	sub	eax, esi
	mov	ecx, DWORD PTR _this$[ebp]
	cmp	DWORD PTR [ecx+20], eax
	ja	SHORT $LN5@Copy

; 2189 : 			_Newres = this->_Myres
; 2190 : 				+ this->_Myres / 2;	// grow exponentially if possible

	mov	edx, DWORD PTR _this$[ebp]
	mov	eax, DWORD PTR [edx+20]
	shr	eax, 1
	mov	ecx, DWORD PTR _this$[ebp]
	add	eax, DWORD PTR [ecx+20]
	mov	DWORD PTR __Newres$[ebp], eax

; 2191 : 		else

	jmp	SHORT $LN8@Copy
$LN5@Copy:

; 2192 : 			_Newres = max_size();	// settle for max_size()

	mov	ecx, DWORD PTR _this$[ebp]
	call	?max_size@?$basic_string@DU?$char_traits@D@std@@V?$allocator@D@2@@std@@QBEIXZ ; std::basic_string<char,std::char_traits<char>,std::allocator<char> >::max_size
	mov	DWORD PTR __Newres$[ebp], eax
$LN8@Copy:

; 2193 : 
; 2194 : 		_Elem *_Ptr;
; 2195 : 		_TRY_BEGIN

	mov	DWORD PTR __$EHRec$[ebp+12], 0

; 2196 : 			_Ptr = this->_Getal().allocate(_Newres + 1);

	lea	edx, DWORD PTR $T4[ebp]
	push	edx
	mov	ecx, DWORD PTR _this$[ebp]
	call	?_Getal@?$_String_alloc@$0A@U?$_String_base_types@DV?$allocator@D@std@@@std@@@std@@QBE?AU?$_Wrap_alloc@V?$allocator@D@std@@@2@XZ ; std::_String_alloc<0,std::_String_base_types<char,std::allocator<char> > >::_Getal
	mov	DWORD PTR tv202[ebp], eax
	mov	eax, DWORD PTR __Newres$[ebp]
	add	eax, 1
	push	eax
	mov	ecx, DWORD PTR tv202[ebp]
	call	?allocate@?$_Wrap_alloc@V?$allocator@D@std@@@std@@QAEPADI@Z ; std::_Wrap_alloc<std::allocator<char> >::allocate
	mov	DWORD PTR tv203[ebp], eax
	mov	ecx, DWORD PTR tv203[ebp]
	mov	DWORD PTR __Ptr$[ebp], ecx
	jmp	SHORT $LN12@Copy
__catch$?_Copy@?$basic_string@DU?$char_traits@D@std@@V?$allocator@D@2@@std@@QAEXII@Z$0:

; 2197 : 		_CATCH_ALL

	mov	DWORD PTR __$EHRec$[ebp], esp

; 2198 : 			_Newres = _Newsize;	// allocation failed, undo roundup and retry

	mov	edx, DWORD PTR __Newsize$[ebp]
	mov	DWORD PTR __Newres$[ebp], edx

; 2199 : 			_TRY_BEGIN

	mov	BYTE PTR __$EHRec$[ebp+12], 2

; 2200 : 				_Ptr = this->_Getal().allocate(_Newres + 1);

	lea	eax, DWORD PTR $T3[ebp]
	push	eax
	mov	ecx, DWORD PTR _this$[ebp]
	call	?_Getal@?$_String_alloc@$0A@U?$_String_base_types@DV?$allocator@D@std@@@std@@@std@@QBE?AU?$_Wrap_alloc@V?$allocator@D@std@@@2@XZ ; std::_String_alloc<0,std::_String_base_types<char,std::allocator<char> > >::_Getal
	mov	DWORD PTR tv204[ebp], eax
	mov	ecx, DWORD PTR __Newres$[ebp]
	add	ecx, 1
	push	ecx
	mov	ecx, DWORD PTR tv204[ebp]
	call	?allocate@?$_Wrap_alloc@V?$allocator@D@std@@@std@@QAEPADI@Z ; std::_Wrap_alloc<std::allocator<char> >::allocate
	mov	DWORD PTR tv205[ebp], eax
	mov	edx, DWORD PTR tv205[ebp]
	mov	DWORD PTR __Ptr$[ebp], edx
	jmp	SHORT $LN14@Copy
__catch$?_Copy@?$basic_string@DU?$char_traits@D@std@@V?$allocator@D@2@@std@@QAEXII@Z$1:

; 2201 : 			_CATCH_ALL
; 2202 : 			_Tidy(true);	// failed again, discard storage and reraise

	push	0
	push	1
	mov	ecx, DWORD PTR _this$[ebp]
	call	?_Tidy@?$basic_string@DU?$char_traits@D@std@@V?$allocator@D@2@@std@@QAEX_NI@Z ; std::basic_string<char,std::char_traits<char>,std::allocator<char> >::_Tidy

; 2203 : 			_RERAISE;

	push	0
	push	0
	call	__CxxThrowException@8

; 2204 : 			_CATCH_END

	mov	eax, $LN17@Copy
	ret	0
$LN14@Copy:
	mov	DWORD PTR __$EHRec$[ebp+12], 1
	jmp	SHORT __tryend$?_Copy@?$basic_string@DU?$char_traits@D@std@@V?$allocator@D@2@@std@@QAEXII@Z$2
$LN17@Copy:
	mov	DWORD PTR __$EHRec$[ebp+12], 1
__tryend$?_Copy@?$basic_string@DU?$char_traits@D@std@@V?$allocator@D@2@@std@@QAEXII@Z$2:

; 2205 : 		_CATCH_END

	mov	eax, $LN19@Copy
	ret	0
$LN12@Copy:
	mov	DWORD PTR __$EHRec$[ebp+12], -1
	jmp	SHORT __tryend$?_Copy@?$basic_string@DU?$char_traits@D@std@@V?$allocator@D@2@@std@@QAEXII@Z$3
$LN19@Copy:
	mov	DWORD PTR __$EHRec$[ebp+12], -1
__tryend$?_Copy@?$basic_string@DU?$char_traits@D@std@@V?$allocator@D@2@@std@@QAEXII@Z$3:

; 2206 : 
; 2207 : 		if (0 < _Oldlen)

	cmp	DWORD PTR __Oldlen$[ebp], 0
	jbe	SHORT $LN1@Copy

; 2208 : 			_Traits::copy(_Ptr, this->_Myptr(),
; 2209 : 				_Oldlen);	// copy existing elements

	mov	eax, DWORD PTR __Oldlen$[ebp]
	push	eax
	mov	ecx, DWORD PTR _this$[ebp]
	call	?_Myptr@?$_String_val@U?$_Simple_types@D@std@@@std@@QAEPADXZ ; std::_String_val<std::_Simple_types<char> >::_Myptr
	push	eax
	mov	ecx, DWORD PTR __Ptr$[ebp]
	push	ecx
	call	?copy@?$char_traits@D@std@@SAPADPADPBDI@Z ; std::char_traits<char>::copy
	add	esp, 12					; 0000000cH
$LN1@Copy:

; 2210 : 		_Tidy(true);

	push	0
	push	1
	mov	ecx, DWORD PTR _this$[ebp]
	call	?_Tidy@?$basic_string@DU?$char_traits@D@std@@V?$allocator@D@2@@std@@QAEX_NI@Z ; std::basic_string<char,std::char_traits<char>,std::allocator<char> >::_Tidy

; 2211 : 		this->_Getal().construct(&this->_Bx._Ptr, _Ptr);

	lea	edx, DWORD PTR __Ptr$[ebp]
	push	edx
	mov	eax, DWORD PTR _this$[ebp]
	push	eax
	lea	ecx, DWORD PTR $T2[ebp]
	push	ecx
	mov	ecx, DWORD PTR _this$[ebp]
	call	?_Getal@?$_String_alloc@$0A@U?$_String_base_types@DV?$allocator@D@std@@@std@@@std@@QBE?AU?$_Wrap_alloc@V?$allocator@D@std@@@2@XZ ; std::_String_alloc<0,std::_String_base_types<char,std::allocator<char> > >::_Getal
	mov	ecx, eax
	call	??$construct@PADAAPAD@?$_Wrap_alloc@V?$allocator@D@std@@@std@@QAEXPAPADAAPAD@Z ; std::_Wrap_alloc<std::allocator<char> >::construct<char *,char * &>

; 2212 : 		this->_Myres = _Newres;

	mov	edx, DWORD PTR _this$[ebp]
	mov	eax, DWORD PTR __Newres$[ebp]
	mov	DWORD PTR [edx+20], eax

; 2213 : 		_Eos(_Oldlen);

	mov	ecx, DWORD PTR __Oldlen$[ebp]
	push	ecx
	mov	ecx, DWORD PTR _this$[ebp]
	call	?_Eos@?$basic_string@DU?$char_traits@D@std@@V?$allocator@D@2@@std@@QAEXI@Z ; std::basic_string<char,std::char_traits<char>,std::allocator<char> >::_Eos
$LN11@Copy:

; 2214 : 		}

	mov	ecx, DWORD PTR __$EHRec$[ebp+4]
	mov	DWORD PTR fs:0, ecx
	pop	ecx
	pop	edi
	pop	esi
	pop	ebx
	mov	esp, ebp
	pop	ebp
	ret	8
_TEXT	ENDS
;	COMDAT text$x
text$x	SEGMENT
__ehhandler$?_Copy@?$basic_string@DU?$char_traits@D@std@@V?$allocator@D@2@@std@@QAEXII@Z:
	mov	edx, DWORD PTR [esp+8]
	lea	eax, DWORD PTR [edx+12]
	mov	ecx, DWORD PTR [edx-52]
	xor	ecx, eax
	call	@__security_check_cookie@4
	mov	eax, OFFSET __ehfuncinfo$?_Copy@?$basic_string@DU?$char_traits@D@std@@V?$allocator@D@2@@std@@QAEXII@Z
	jmp	___CxxFrameHandler3
text$x	ENDS
?_Copy@?$basic_string@DU?$char_traits@D@std@@V?$allocator@D@2@@std@@QAEXII@Z ENDP ; std::basic_string<char,std::char_traits<char>,std::allocator<char> >::_Copy
; Function compile flags: /Odtp
; File c:\program files (x86)\microsoft visual studio 11.0\vc\include\xstring
;	COMDAT ?max_size@?$basic_string@DU?$char_traits@D@std@@V?$allocator@D@2@@std@@QBEIXZ
_TEXT	SEGMENT
_this$ = -16						; size = 4
tv75 = -12						; size = 4
__Num$ = -8						; size = 4
$T1 = -1						; size = 1
?max_size@?$basic_string@DU?$char_traits@D@std@@V?$allocator@D@2@@std@@QBEIXZ PROC ; std::basic_string<char,std::char_traits<char>,std::allocator<char> >::max_size, COMDAT
; _this$ = ecx

; 1737 : 		{	// return maximum possible length of sequence

	push	ebp
	mov	ebp, esp
	sub	esp, 16					; 00000010H
	mov	DWORD PTR _this$[ebp], ecx

; 1738 : 		size_type _Num = this->_Getal().max_size();

	lea	eax, DWORD PTR $T1[ebp]
	push	eax
	mov	ecx, DWORD PTR _this$[ebp]
	call	?_Getal@?$_String_alloc@$0A@U?$_String_base_types@DV?$allocator@D@std@@@std@@@std@@QBE?AU?$_Wrap_alloc@V?$allocator@D@std@@@2@XZ ; std::_String_alloc<0,std::_String_base_types<char,std::allocator<char> > >::_Getal
	mov	ecx, eax
	call	?max_size@?$_Wrap_alloc@V?$allocator@D@std@@@std@@QBEIXZ ; std::_Wrap_alloc<std::allocator<char> >::max_size
	mov	DWORD PTR __Num$[ebp], eax

; 1739 : 		return (_Num <= 1 ? 1 : _Num - 1);

	cmp	DWORD PTR __Num$[ebp], 1
	ja	SHORT $LN3@max_size
	mov	DWORD PTR tv75[ebp], 1
	jmp	SHORT $LN4@max_size
$LN3@max_size:
	mov	ecx, DWORD PTR __Num$[ebp]
	sub	ecx, 1
	mov	DWORD PTR tv75[ebp], ecx
$LN4@max_size:
	mov	eax, DWORD PTR tv75[ebp]

; 1740 : 		}

	mov	esp, ebp
	pop	ebp
	ret	0
?max_size@?$basic_string@DU?$char_traits@D@std@@V?$allocator@D@2@@std@@QBEIXZ ENDP ; std::basic_string<char,std::char_traits<char>,std::allocator<char> >::max_size
_TEXT	ENDS
; Function compile flags: /Odtp
; File c:\program files (x86)\microsoft visual studio 11.0\vc\include\xstring
;	COMDAT ?size@?$basic_string@DU?$char_traits@D@std@@V?$allocator@D@2@@std@@QBEIXZ
_TEXT	SEGMENT
_this$ = -4						; size = 4
?size@?$basic_string@DU?$char_traits@D@std@@V?$allocator@D@2@@std@@QBEIXZ PROC ; std::basic_string<char,std::char_traits<char>,std::allocator<char> >::size, COMDAT
; _this$ = ecx

; 1732 : 		{	// return length of sequence

	push	ebp
	mov	ebp, esp
	push	ecx
	mov	DWORD PTR _this$[ebp], ecx

; 1733 : 		return (this->_Mysize);

	mov	eax, DWORD PTR _this$[ebp]
	mov	eax, DWORD PTR [eax+16]

; 1734 : 		}

	mov	esp, ebp
	pop	ebp
	ret	0
?size@?$basic_string@DU?$char_traits@D@std@@V?$allocator@D@2@@std@@QBEIXZ ENDP ; std::basic_string<char,std::char_traits<char>,std::allocator<char> >::size
_TEXT	ENDS
; Function compile flags: /Odtp
; File c:\program files (x86)\microsoft visual studio 11.0\vc\include\xstring
;	COMDAT ?erase@?$basic_string@DU?$char_traits@D@std@@V?$allocator@D@2@@std@@QAEAAV12@II@Z
_TEXT	SEGMENT
__Newsize$1 = -12					; size = 4
__Ptr$2 = -8						; size = 4
_this$ = -4						; size = 4
__Off$ = 8						; size = 4
__Count$ = 12						; size = 4
?erase@?$basic_string@DU?$char_traits@D@std@@V?$allocator@D@2@@std@@QAEAAV12@II@Z PROC ; std::basic_string<char,std::char_traits<char>,std::allocator<char> >::erase, COMDAT
; _this$ = ecx

; 1317 : 		{	// erase elements [_Off, _Off + _Count)

	push	ebp
	mov	ebp, esp
	sub	esp, 12					; 0000000cH
	mov	DWORD PTR _this$[ebp], ecx

; 1318 : 		if (this->_Mysize < _Off)

	mov	eax, DWORD PTR _this$[ebp]
	mov	ecx, DWORD PTR [eax+16]
	cmp	ecx, DWORD PTR __Off$[ebp]
	jae	SHORT $LN4@erase

; 1319 : 			_Xran();	// _Off off end

	mov	ecx, DWORD PTR _this$[ebp]
	call	?_Xran@?$basic_string@DU?$char_traits@D@std@@V?$allocator@D@2@@std@@QBEXXZ ; std::basic_string<char,std::char_traits<char>,std::allocator<char> >::_Xran
$LN4@erase:

; 1320 : 		if (this->_Mysize - _Off <= _Count)

	mov	edx, DWORD PTR _this$[ebp]
	mov	eax, DWORD PTR [edx+16]
	sub	eax, DWORD PTR __Off$[ebp]
	cmp	eax, DWORD PTR __Count$[ebp]
	ja	SHORT $LN3@erase

; 1321 : 			_Eos(_Off);	// erase elements [_Off, ...)

	mov	ecx, DWORD PTR __Off$[ebp]
	push	ecx
	mov	ecx, DWORD PTR _this$[ebp]
	call	?_Eos@?$basic_string@DU?$char_traits@D@std@@V?$allocator@D@2@@std@@QAEXI@Z ; std::basic_string<char,std::char_traits<char>,std::allocator<char> >::_Eos
	jmp	SHORT $LN2@erase
$LN3@erase:

; 1322 : 		else if (0 < _Count)

	cmp	DWORD PTR __Count$[ebp], 0
	jbe	SHORT $LN2@erase

; 1323 : 			{	// move elements down
; 1324 : 			value_type *_Ptr = this->_Myptr() + _Off;

	mov	ecx, DWORD PTR _this$[ebp]
	call	?_Myptr@?$_String_val@U?$_Simple_types@D@std@@@std@@QAEPADXZ ; std::_String_val<std::_Simple_types<char> >::_Myptr
	add	eax, DWORD PTR __Off$[ebp]
	mov	DWORD PTR __Ptr$2[ebp], eax

; 1325 : 			size_type _Newsize = this->_Mysize - _Count;

	mov	edx, DWORD PTR _this$[ebp]
	mov	eax, DWORD PTR [edx+16]
	sub	eax, DWORD PTR __Count$[ebp]
	mov	DWORD PTR __Newsize$1[ebp], eax

; 1326 : 			_Traits::move(_Ptr, _Ptr + _Count, _Newsize - _Off);

	mov	ecx, DWORD PTR __Newsize$1[ebp]
	sub	ecx, DWORD PTR __Off$[ebp]
	push	ecx
	mov	edx, DWORD PTR __Ptr$2[ebp]
	add	edx, DWORD PTR __Count$[ebp]
	push	edx
	mov	eax, DWORD PTR __Ptr$2[ebp]
	push	eax
	call	?move@?$char_traits@D@std@@SAPADPADPBDI@Z ; std::char_traits<char>::move
	add	esp, 12					; 0000000cH

; 1327 : 			_Eos(_Newsize);

	mov	ecx, DWORD PTR __Newsize$1[ebp]
	push	ecx
	mov	ecx, DWORD PTR _this$[ebp]
	call	?_Eos@?$basic_string@DU?$char_traits@D@std@@V?$allocator@D@2@@std@@QAEXI@Z ; std::basic_string<char,std::char_traits<char>,std::allocator<char> >::_Eos
$LN2@erase:

; 1328 : 			}
; 1329 : 		return (*this);

	mov	eax, DWORD PTR _this$[ebp]
$LN6@erase:

; 1330 : 		}

	mov	esp, ebp
	pop	ebp
	ret	8
?erase@?$basic_string@DU?$char_traits@D@std@@V?$allocator@D@2@@std@@QAEAAV12@II@Z ENDP ; std::basic_string<char,std::char_traits<char>,std::allocator<char> >::erase
_TEXT	ENDS
; Function compile flags: /Odtp
; File c:\program files (x86)\microsoft visual studio 11.0\vc\include\xstring
;	COMDAT ?erase@?$basic_string@DU?$char_traits@D@std@@V?$allocator@D@2@@std@@QAEAAV12@I@Z
_TEXT	SEGMENT
_this$ = -4						; size = 4
__Off$ = 8						; size = 4
?erase@?$basic_string@DU?$char_traits@D@std@@V?$allocator@D@2@@std@@QAEAAV12@I@Z PROC ; std::basic_string<char,std::char_traits<char>,std::allocator<char> >::erase, COMDAT
; _this$ = ecx

; 1309 : 		{	// erase elements [_Off, ...)

	push	ebp
	mov	ebp, esp
	push	ecx
	mov	DWORD PTR _this$[ebp], ecx

; 1310 : 		if (this->_Mysize < _Off)

	mov	eax, DWORD PTR _this$[ebp]
	mov	ecx, DWORD PTR [eax+16]
	cmp	ecx, DWORD PTR __Off$[ebp]
	jae	SHORT $LN1@erase

; 1311 : 			_Xran();	// _Off off end

	mov	ecx, DWORD PTR _this$[ebp]
	call	?_Xran@?$basic_string@DU?$char_traits@D@std@@V?$allocator@D@2@@std@@QBEXXZ ; std::basic_string<char,std::char_traits<char>,std::allocator<char> >::_Xran
$LN1@erase:

; 1312 : 		_Eos(_Off);

	mov	edx, DWORD PTR __Off$[ebp]
	push	edx
	mov	ecx, DWORD PTR _this$[ebp]
	call	?_Eos@?$basic_string@DU?$char_traits@D@std@@V?$allocator@D@2@@std@@QAEXI@Z ; std::basic_string<char,std::char_traits<char>,std::allocator<char> >::_Eos

; 1313 : 		return (*this);

	mov	eax, DWORD PTR _this$[ebp]
$LN3@erase:

; 1314 : 		}

	mov	esp, ebp
	pop	ebp
	ret	4
?erase@?$basic_string@DU?$char_traits@D@std@@V?$allocator@D@2@@std@@QAEAAV12@I@Z ENDP ; std::basic_string<char,std::char_traits<char>,std::allocator<char> >::erase
_TEXT	ENDS
; Function compile flags: /Odtp
; File c:\program files (x86)\microsoft visual studio 11.0\vc\include\xstring
;	COMDAT ?assign@?$basic_string@DU?$char_traits@D@std@@V?$allocator@D@2@@std@@QAEAAV12@PBD@Z
_TEXT	SEGMENT
_this$ = -4						; size = 4
__Ptr$ = 8						; size = 4
?assign@?$basic_string@DU?$char_traits@D@std@@V?$allocator@D@2@@std@@QAEAAV12@PBD@Z PROC ; std::basic_string<char,std::char_traits<char>,std::allocator<char> >::assign, COMDAT
; _this$ = ecx

; 1142 : 		{	// assign [_Ptr, <null>)

	push	ebp
	mov	ebp, esp
	push	ecx
	mov	DWORD PTR _this$[ebp], ecx

; 1143 : 		_DEBUG_POINTER(_Ptr);
; 1144 : 		return (assign(_Ptr, _Traits::length(_Ptr)));

	mov	eax, DWORD PTR __Ptr$[ebp]
	push	eax
	call	?length@?$char_traits@D@std@@SAIPBD@Z	; std::char_traits<char>::length
	add	esp, 4
	push	eax
	mov	ecx, DWORD PTR __Ptr$[ebp]
	push	ecx
	mov	ecx, DWORD PTR _this$[ebp]
	call	?assign@?$basic_string@DU?$char_traits@D@std@@V?$allocator@D@2@@std@@QAEAAV12@PBDI@Z ; std::basic_string<char,std::char_traits<char>,std::allocator<char> >::assign

; 1145 : 		}

	mov	esp, ebp
	pop	ebp
	ret	4
?assign@?$basic_string@DU?$char_traits@D@std@@V?$allocator@D@2@@std@@QAEAAV12@PBD@Z ENDP ; std::basic_string<char,std::char_traits<char>,std::allocator<char> >::assign
_TEXT	ENDS
; Function compile flags: /Odtp
; File c:\program files (x86)\microsoft visual studio 11.0\vc\include\xstring
;	COMDAT ?assign@?$basic_string@DU?$char_traits@D@std@@V?$allocator@D@2@@std@@QAEAAV12@PBDI@Z
_TEXT	SEGMENT
_this$ = -4						; size = 4
__Ptr$ = 8						; size = 4
__Count$ = 12						; size = 4
?assign@?$basic_string@DU?$char_traits@D@std@@V?$allocator@D@2@@std@@QAEAAV12@PBDI@Z PROC ; std::basic_string<char,std::char_traits<char>,std::allocator<char> >::assign, COMDAT
; _this$ = ecx

; 1123 : 		{	// assign [_Ptr, _Ptr + _Count)

	push	ebp
	mov	ebp, esp
	push	ecx
	mov	DWORD PTR _this$[ebp], ecx

; 1124 :  #if _ITERATOR_DEBUG_LEVEL == 2
; 1125 : 		if (_Count != 0)
; 1126 : 			_DEBUG_POINTER(_Ptr);
; 1127 :  #endif /* _ITERATOR_DEBUG_LEVEL == 2 */
; 1128 : 
; 1129 : 		if (_Inside(_Ptr))

	mov	eax, DWORD PTR __Ptr$[ebp]
	push	eax
	mov	ecx, DWORD PTR _this$[ebp]
	call	?_Inside@?$basic_string@DU?$char_traits@D@std@@V?$allocator@D@2@@std@@QAE_NPBD@Z ; std::basic_string<char,std::char_traits<char>,std::allocator<char> >::_Inside
	movzx	ecx, al
	test	ecx, ecx
	je	SHORT $LN2@assign

; 1130 : 			return (assign(*this,
; 1131 : 				_Ptr - this->_Myptr(), _Count));	// substring

	mov	edx, DWORD PTR __Count$[ebp]
	push	edx
	mov	ecx, DWORD PTR _this$[ebp]
	call	?_Myptr@?$_String_val@U?$_Simple_types@D@std@@@std@@QAEPADXZ ; std::_String_val<std::_Simple_types<char> >::_Myptr
	mov	ecx, DWORD PTR __Ptr$[ebp]
	sub	ecx, eax
	push	ecx
	mov	edx, DWORD PTR _this$[ebp]
	push	edx
	mov	ecx, DWORD PTR _this$[ebp]
	call	?assign@?$basic_string@DU?$char_traits@D@std@@V?$allocator@D@2@@std@@QAEAAV12@ABV12@II@Z ; std::basic_string<char,std::char_traits<char>,std::allocator<char> >::assign
	jmp	SHORT $LN3@assign
$LN2@assign:

; 1132 : 
; 1133 : 		if (_Grow(_Count))

	push	0
	mov	eax, DWORD PTR __Count$[ebp]
	push	eax
	mov	ecx, DWORD PTR _this$[ebp]
	call	?_Grow@?$basic_string@DU?$char_traits@D@std@@V?$allocator@D@2@@std@@QAE_NI_N@Z ; std::basic_string<char,std::char_traits<char>,std::allocator<char> >::_Grow
	movzx	ecx, al
	test	ecx, ecx
	je	SHORT $LN1@assign

; 1134 : 			{	// make room and assign new stuff
; 1135 : 			_Traits::copy(this->_Myptr(), _Ptr, _Count);

	mov	edx, DWORD PTR __Count$[ebp]
	push	edx
	mov	eax, DWORD PTR __Ptr$[ebp]
	push	eax
	mov	ecx, DWORD PTR _this$[ebp]
	call	?_Myptr@?$_String_val@U?$_Simple_types@D@std@@@std@@QAEPADXZ ; std::_String_val<std::_Simple_types<char> >::_Myptr
	push	eax
	call	?copy@?$char_traits@D@std@@SAPADPADPBDI@Z ; std::char_traits<char>::copy
	add	esp, 12					; 0000000cH

; 1136 : 			_Eos(_Count);

	mov	ecx, DWORD PTR __Count$[ebp]
	push	ecx
	mov	ecx, DWORD PTR _this$[ebp]
	call	?_Eos@?$basic_string@DU?$char_traits@D@std@@V?$allocator@D@2@@std@@QAEXI@Z ; std::basic_string<char,std::char_traits<char>,std::allocator<char> >::_Eos
$LN1@assign:

; 1137 : 			}
; 1138 : 		return (*this);

	mov	eax, DWORD PTR _this$[ebp]
$LN3@assign:

; 1139 : 		}

	mov	esp, ebp
	pop	ebp
	ret	8
?assign@?$basic_string@DU?$char_traits@D@std@@V?$allocator@D@2@@std@@QAEAAV12@PBDI@Z ENDP ; std::basic_string<char,std::char_traits<char>,std::allocator<char> >::assign
_TEXT	ENDS
; Function compile flags: /Odtp
; File c:\program files (x86)\microsoft visual studio 11.0\vc\include\xstring
;	COMDAT ?assign@?$basic_string@DU?$char_traits@D@std@@V?$allocator@D@2@@std@@QAEAAV12@ABV12@II@Z
_TEXT	SEGMENT
__Num$ = -8						; size = 4
_this$ = -4						; size = 4
__Right$ = 8						; size = 4
__Roff$ = 12						; size = 4
__Count$ = 16						; size = 4
?assign@?$basic_string@DU?$char_traits@D@std@@V?$allocator@D@2@@std@@QAEAAV12@ABV12@II@Z PROC ; std::basic_string<char,std::char_traits<char>,std::allocator<char> >::assign, COMDAT
; _this$ = ecx

; 1104 : 		{	// assign _Right [_Roff, _Roff + _Count)

	push	ebp
	mov	ebp, esp
	sub	esp, 8
	mov	DWORD PTR _this$[ebp], ecx

; 1105 : 		if (_Right.size() < _Roff)

	mov	ecx, DWORD PTR __Right$[ebp]
	call	?size@?$basic_string@DU?$char_traits@D@std@@V?$allocator@D@2@@std@@QBEIXZ ; std::basic_string<char,std::char_traits<char>,std::allocator<char> >::size
	cmp	eax, DWORD PTR __Roff$[ebp]
	jae	SHORT $LN5@assign

; 1106 : 			_Xran();	// _Roff off end

	mov	ecx, DWORD PTR _this$[ebp]
	call	?_Xran@?$basic_string@DU?$char_traits@D@std@@V?$allocator@D@2@@std@@QBEXXZ ; std::basic_string<char,std::char_traits<char>,std::allocator<char> >::_Xran
$LN5@assign:

; 1107 : 		size_type _Num = _Right.size() - _Roff;

	mov	ecx, DWORD PTR __Right$[ebp]
	call	?size@?$basic_string@DU?$char_traits@D@std@@V?$allocator@D@2@@std@@QBEIXZ ; std::basic_string<char,std::char_traits<char>,std::allocator<char> >::size
	sub	eax, DWORD PTR __Roff$[ebp]
	mov	DWORD PTR __Num$[ebp], eax

; 1108 : 		if (_Count < _Num)

	mov	eax, DWORD PTR __Count$[ebp]
	cmp	eax, DWORD PTR __Num$[ebp]
	jae	SHORT $LN4@assign

; 1109 : 			_Num = _Count;	// trim _Num to size

	mov	ecx, DWORD PTR __Count$[ebp]
	mov	DWORD PTR __Num$[ebp], ecx
$LN4@assign:

; 1110 : 
; 1111 : 		if (this == &_Right)

	mov	edx, DWORD PTR _this$[ebp]
	cmp	edx, DWORD PTR __Right$[ebp]
	jne	SHORT $LN3@assign

; 1112 : 			erase((size_type)(_Roff + _Num)), erase(0, _Roff);	// substring

	mov	eax, DWORD PTR __Roff$[ebp]
	add	eax, DWORD PTR __Num$[ebp]
	push	eax
	mov	ecx, DWORD PTR _this$[ebp]
	call	?erase@?$basic_string@DU?$char_traits@D@std@@V?$allocator@D@2@@std@@QAEAAV12@I@Z ; std::basic_string<char,std::char_traits<char>,std::allocator<char> >::erase
	mov	ecx, DWORD PTR __Roff$[ebp]
	push	ecx
	push	0
	mov	ecx, DWORD PTR _this$[ebp]
	call	?erase@?$basic_string@DU?$char_traits@D@std@@V?$allocator@D@2@@std@@QAEAAV12@II@Z ; std::basic_string<char,std::char_traits<char>,std::allocator<char> >::erase
	jmp	SHORT $LN2@assign
$LN3@assign:

; 1113 : 		else if (_Grow(_Num))

	push	0
	mov	edx, DWORD PTR __Num$[ebp]
	push	edx
	mov	ecx, DWORD PTR _this$[ebp]
	call	?_Grow@?$basic_string@DU?$char_traits@D@std@@V?$allocator@D@2@@std@@QAE_NI_N@Z ; std::basic_string<char,std::char_traits<char>,std::allocator<char> >::_Grow
	movzx	eax, al
	test	eax, eax
	je	SHORT $LN2@assign

; 1114 : 			{	// make room and assign new stuff
; 1115 : 			_Traits::copy(this->_Myptr(),
; 1116 : 				_Right._Myptr() + _Roff, _Num);

	mov	ecx, DWORD PTR __Num$[ebp]
	push	ecx
	mov	ecx, DWORD PTR __Right$[ebp]
	call	?_Myptr@?$_String_val@U?$_Simple_types@D@std@@@std@@QBEPBDXZ ; std::_String_val<std::_Simple_types<char> >::_Myptr
	add	eax, DWORD PTR __Roff$[ebp]
	push	eax
	mov	ecx, DWORD PTR _this$[ebp]
	call	?_Myptr@?$_String_val@U?$_Simple_types@D@std@@@std@@QAEPADXZ ; std::_String_val<std::_Simple_types<char> >::_Myptr
	push	eax
	call	?copy@?$char_traits@D@std@@SAPADPADPBDI@Z ; std::char_traits<char>::copy
	add	esp, 12					; 0000000cH

; 1117 : 			_Eos(_Num);

	mov	edx, DWORD PTR __Num$[ebp]
	push	edx
	mov	ecx, DWORD PTR _this$[ebp]
	call	?_Eos@?$basic_string@DU?$char_traits@D@std@@V?$allocator@D@2@@std@@QAEXI@Z ; std::basic_string<char,std::char_traits<char>,std::allocator<char> >::_Eos
$LN2@assign:

; 1118 : 			}
; 1119 : 		return (*this);

	mov	eax, DWORD PTR _this$[ebp]
$LN7@assign:

; 1120 : 		}

	mov	esp, ebp
	pop	ebp
	ret	12					; 0000000cH
?assign@?$basic_string@DU?$char_traits@D@std@@V?$allocator@D@2@@std@@QAEAAV12@ABV12@II@Z ENDP ; std::basic_string<char,std::char_traits<char>,std::allocator<char> >::assign
_TEXT	ENDS
; Function compile flags: /Odtp
; File c:\program files (x86)\microsoft visual studio 11.0\vc\include\xstring
;	COMDAT ??0?$basic_string@DU?$char_traits@D@std@@V?$allocator@D@2@@std@@QAE@PBD@Z
_TEXT	SEGMENT
_this$ = -8						; size = 4
$T1 = -1						; size = 1
__Ptr$ = 8						; size = 4
??0?$basic_string@DU?$char_traits@D@std@@V?$allocator@D@2@@std@@QAE@PBD@Z PROC ; std::basic_string<char,std::char_traits<char>,std::allocator<char> >::basic_string<char,std::char_traits<char>,std::allocator<char> >, COMDAT
; _this$ = ecx

; 791  : 		{	// construct from [_Ptr, <null>)

	push	ebp
	mov	ebp, esp
	sub	esp, 8
	mov	DWORD PTR _this$[ebp], ecx
	lea	ecx, DWORD PTR $T1[ebp]
	call	??0?$allocator@D@std@@QAE@XZ		; std::allocator<char>::allocator<char>
	push	eax
	mov	ecx, DWORD PTR _this$[ebp]
	call	??0?$_String_alloc@$0A@U?$_String_base_types@DV?$allocator@D@std@@@std@@@std@@QAE@ABV?$allocator@D@1@@Z ; std::_String_alloc<0,std::_String_base_types<char,std::allocator<char> > >::_String_alloc<0,std::_String_base_types<char,std::allocator<char> > >

; 792  : 		_Tidy();

	push	0
	push	0
	mov	ecx, DWORD PTR _this$[ebp]
	call	?_Tidy@?$basic_string@DU?$char_traits@D@std@@V?$allocator@D@2@@std@@QAEX_NI@Z ; std::basic_string<char,std::char_traits<char>,std::allocator<char> >::_Tidy

; 793  : 		assign(_Ptr);

	mov	eax, DWORD PTR __Ptr$[ebp]
	push	eax
	mov	ecx, DWORD PTR _this$[ebp]
	call	?assign@?$basic_string@DU?$char_traits@D@std@@V?$allocator@D@2@@std@@QAEAAV12@PBD@Z ; std::basic_string<char,std::char_traits<char>,std::allocator<char> >::assign

; 794  : 		}

	mov	eax, DWORD PTR _this$[ebp]
	mov	esp, ebp
	pop	ebp
	ret	4
??0?$basic_string@DU?$char_traits@D@std@@V?$allocator@D@2@@std@@QAE@PBD@Z ENDP ; std::basic_string<char,std::char_traits<char>,std::allocator<char> >::basic_string<char,std::char_traits<char>,std::allocator<char> >
_TEXT	ENDS
; Function compile flags: /Odtp
; File c:\program files (x86)\microsoft visual studio 11.0\vc\include\xstring
;	COMDAT ?_Getal@?$_String_alloc@$0A@U?$_String_base_types@DV?$allocator@D@std@@@std@@@std@@QBE?AU?$_Wrap_alloc@V?$allocator@D@std@@@2@XZ
_TEXT	SEGMENT
_this$ = -4						; size = 4
___$ReturnUdt$ = 8					; size = 4
?_Getal@?$_String_alloc@$0A@U?$_String_base_types@DV?$allocator@D@std@@@std@@@std@@QBE?AU?$_Wrap_alloc@V?$allocator@D@std@@@2@XZ PROC ; std::_String_alloc<0,std::_String_base_types<char,std::allocator<char> > >::_Getal, COMDAT
; _this$ = ecx

; 688  : 		{	// get reference to allocator

	push	ebp
	mov	ebp, esp
	push	ecx
	mov	DWORD PTR _this$[ebp], ecx

; 689  : 		return (_Alty());

	mov	ecx, DWORD PTR ___$ReturnUdt$[ebp]
	call	??0?$_Wrap_alloc@V?$allocator@D@std@@@std@@QAE@XZ ; std::_Wrap_alloc<std::allocator<char> >::_Wrap_alloc<std::allocator<char> >
	mov	eax, DWORD PTR ___$ReturnUdt$[ebp]

; 690  : 		}

	mov	esp, ebp
	pop	ebp
	ret	4
?_Getal@?$_String_alloc@$0A@U?$_String_base_types@DV?$allocator@D@std@@@std@@@std@@QBE?AU?$_Wrap_alloc@V?$allocator@D@std@@@2@XZ ENDP ; std::_String_alloc<0,std::_String_base_types<char,std::allocator<char> > >::_Getal
_TEXT	ENDS
; Function compile flags: /Odtp
; File c:\program files (x86)\microsoft visual studio 11.0\vc\include\xstring
;	COMDAT ??0?$_String_alloc@$0A@U?$_String_base_types@DV?$allocator@D@std@@@std@@@std@@QAE@ABV?$allocator@D@1@@Z
_TEXT	SEGMENT
_this$ = -4						; size = 4
___formal$ = 8						; size = 4
??0?$_String_alloc@$0A@U?$_String_base_types@DV?$allocator@D@std@@@std@@@std@@QAE@ABV?$allocator@D@1@@Z PROC ; std::_String_alloc<0,std::_String_base_types<char,std::allocator<char> > >::_String_alloc<0,std::_String_base_types<char,std::allocator<char> > >, COMDAT
; _this$ = ecx

; 635  : 	_String_alloc(const _Alloc& = _Alloc())

	push	ebp
	mov	ebp, esp
	push	ecx
	mov	DWORD PTR _this$[ebp], ecx
	mov	ecx, DWORD PTR _this$[ebp]
	call	??0?$_String_val@U?$_Simple_types@D@std@@@std@@QAE@XZ ; std::_String_val<std::_Simple_types<char> >::_String_val<std::_Simple_types<char> >

; 636  : 		{	// construct allocator from _Al
; 637  : 		}

	mov	eax, DWORD PTR _this$[ebp]
	mov	esp, ebp
	pop	ebp
	ret	4
??0?$_String_alloc@$0A@U?$_String_base_types@DV?$allocator@D@std@@@std@@@std@@QAE@ABV?$allocator@D@1@@Z ENDP ; std::_String_alloc<0,std::_String_base_types<char,std::allocator<char> > >::_String_alloc<0,std::_String_base_types<char,std::allocator<char> > >
_TEXT	ENDS
; Function compile flags: /Odtp
; File c:\program files (x86)\microsoft visual studio 11.0\vc\include\xstring
;	COMDAT ?_Myptr@?$_String_val@U?$_Simple_types@D@std@@@std@@QBEPBDXZ
_TEXT	SEGMENT
tv72 = -8						; size = 4
_this$ = -4						; size = 4
?_Myptr@?$_String_val@U?$_Simple_types@D@std@@@std@@QBEPBDXZ PROC ; std::_String_val<std::_Simple_types<char> >::_Myptr, COMDAT
; _this$ = ecx

; 521  : 		{	// determine current pointer to buffer for nonmutable string

	push	ebp
	mov	ebp, esp
	sub	esp, 8
	mov	DWORD PTR _this$[ebp], ecx

; 522  : 		return (this->_BUF_SIZE <= this->_Myres
; 523  : 			? _STD addressof(*this->_Bx._Ptr)
; 524  : 			: this->_Bx._Buf);

	mov	eax, DWORD PTR _this$[ebp]
	cmp	DWORD PTR [eax+20], 16			; 00000010H
	jb	SHORT $LN3@Myptr
	mov	ecx, DWORD PTR _this$[ebp]
	mov	edx, DWORD PTR [ecx]
	push	edx
	call	??$addressof@D@std@@YAPADAAD@Z		; std::addressof<char>
	add	esp, 4
	mov	DWORD PTR tv72[ebp], eax
	jmp	SHORT $LN4@Myptr
$LN3@Myptr:
	mov	eax, DWORD PTR _this$[ebp]
	mov	DWORD PTR tv72[ebp], eax
$LN4@Myptr:
	mov	eax, DWORD PTR tv72[ebp]

; 525  : 		}

	mov	esp, ebp
	pop	ebp
	ret	0
?_Myptr@?$_String_val@U?$_Simple_types@D@std@@@std@@QBEPBDXZ ENDP ; std::_String_val<std::_Simple_types<char> >::_Myptr
_TEXT	ENDS
; Function compile flags: /Odtp
; File c:\program files (x86)\microsoft visual studio 11.0\vc\include\xstring
;	COMDAT ?_Myptr@?$_String_val@U?$_Simple_types@D@std@@@std@@QAEPADXZ
_TEXT	SEGMENT
tv72 = -8						; size = 4
_this$ = -4						; size = 4
?_Myptr@?$_String_val@U?$_Simple_types@D@std@@@std@@QAEPADXZ PROC ; std::_String_val<std::_Simple_types<char> >::_Myptr, COMDAT
; _this$ = ecx

; 514  : 		{	// determine current pointer to buffer for mutable string

	push	ebp
	mov	ebp, esp
	sub	esp, 8
	mov	DWORD PTR _this$[ebp], ecx

; 515  : 		return (this->_BUF_SIZE <= this->_Myres
; 516  : 			? _STD addressof(*this->_Bx._Ptr)
; 517  : 			: this->_Bx._Buf);

	mov	eax, DWORD PTR _this$[ebp]
	cmp	DWORD PTR [eax+20], 16			; 00000010H
	jb	SHORT $LN3@Myptr
	mov	ecx, DWORD PTR _this$[ebp]
	mov	edx, DWORD PTR [ecx]
	push	edx
	call	??$addressof@D@std@@YAPADAAD@Z		; std::addressof<char>
	add	esp, 4
	mov	DWORD PTR tv72[ebp], eax
	jmp	SHORT $LN4@Myptr
$LN3@Myptr:
	mov	eax, DWORD PTR _this$[ebp]
	mov	DWORD PTR tv72[ebp], eax
$LN4@Myptr:
	mov	eax, DWORD PTR tv72[ebp]

; 518  : 		}

	mov	esp, ebp
	pop	ebp
	ret	0
?_Myptr@?$_String_val@U?$_Simple_types@D@std@@@std@@QAEPADXZ ENDP ; std::_String_val<std::_Simple_types<char> >::_Myptr
_TEXT	ENDS
; Function compile flags: /Odtp
; File c:\program files (x86)\microsoft visual studio 11.0\vc\include\xstring
;	COMDAT ??0?$_String_val@U?$_Simple_types@D@std@@@std@@QAE@XZ
_TEXT	SEGMENT
_this$ = -4						; size = 4
??0?$_String_val@U?$_Simple_types@D@std@@@std@@QAE@XZ PROC ; std::_String_val<std::_Simple_types<char> >::_String_val<std::_Simple_types<char> >, COMDAT
; _this$ = ecx

; 496  : 	_String_val()

	push	ebp
	mov	ebp, esp
	push	ecx
	mov	DWORD PTR _this$[ebp], ecx

; 497  : 		{	// initialize values
; 498  : 		_Mysize = 0;

	mov	eax, DWORD PTR _this$[ebp]
	mov	DWORD PTR [eax+16], 0

; 499  : 		_Myres = 0;

	mov	ecx, DWORD PTR _this$[ebp]
	mov	DWORD PTR [ecx+20], 0

; 500  : 		}

	mov	eax, DWORD PTR _this$[ebp]
	mov	esp, ebp
	pop	ebp
	ret	0
??0?$_String_val@U?$_Simple_types@D@std@@@std@@QAE@XZ ENDP ; std::_String_val<std::_Simple_types<char> >::_String_val<std::_Simple_types<char> >
_TEXT	ENDS
; Function compile flags: /Odtp
; File c:\program files (x86)\microsoft visual studio 11.0\vc\include\xmemory0
;	COMDAT ?max_size@?$_Wrap_alloc@V?$allocator@D@std@@@std@@QBEIXZ
_TEXT	SEGMENT
_this$ = -4						; size = 4
?max_size@?$_Wrap_alloc@V?$allocator@D@std@@@std@@QBEIXZ PROC ; std::_Wrap_alloc<std::allocator<char> >::max_size, COMDAT
; _this$ = ecx

; 913  : 		{	// get maximum size

	push	ebp
	mov	ebp, esp
	push	ecx
	mov	DWORD PTR _this$[ebp], ecx

; 914  : 		return (_Mytraits::max_size(*this));

	mov	eax, DWORD PTR _this$[ebp]
	push	eax
	call	?max_size@?$allocator_traits@V?$allocator@D@std@@@std@@SAIABV?$allocator@D@2@@Z ; std::allocator_traits<std::allocator<char> >::max_size
	add	esp, 4

; 915  : 		}

	mov	esp, ebp
	pop	ebp
	ret	0
?max_size@?$_Wrap_alloc@V?$allocator@D@std@@@std@@QBEIXZ ENDP ; std::_Wrap_alloc<std::allocator<char> >::max_size
_TEXT	ENDS
; Function compile flags: /Odtp
; File c:\program files (x86)\microsoft visual studio 11.0\vc\include\xmemory0
;	COMDAT ?deallocate@?$_Wrap_alloc@V?$allocator@D@std@@@std@@QAEXPADI@Z
_TEXT	SEGMENT
_this$ = -4						; size = 4
__Ptr$ = 8						; size = 4
__Count$ = 12						; size = 4
?deallocate@?$_Wrap_alloc@V?$allocator@D@std@@@std@@QAEXPADI@Z PROC ; std::_Wrap_alloc<std::allocator<char> >::deallocate, COMDAT
; _this$ = ecx

; 886  : 		{	// deallocate object at _Ptr, ignore size

	push	ebp
	mov	ebp, esp
	push	ecx
	mov	DWORD PTR _this$[ebp], ecx

; 887  : 		_Mybase::deallocate(_Ptr, _Count);

	mov	eax, DWORD PTR __Count$[ebp]
	push	eax
	mov	ecx, DWORD PTR __Ptr$[ebp]
	push	ecx
	mov	ecx, DWORD PTR _this$[ebp]
	call	?deallocate@?$allocator@D@std@@QAEXPADI@Z ; std::allocator<char>::deallocate

; 888  : 		}

	mov	esp, ebp
	pop	ebp
	ret	8
?deallocate@?$_Wrap_alloc@V?$allocator@D@std@@@std@@QAEXPADI@Z ENDP ; std::_Wrap_alloc<std::allocator<char> >::deallocate
_TEXT	ENDS
; Function compile flags: /Odtp
; File c:\program files (x86)\microsoft visual studio 11.0\vc\include\xmemory0
;	COMDAT ?allocate@?$_Wrap_alloc@V?$allocator@D@std@@@std@@QAEPADI@Z
_TEXT	SEGMENT
_this$ = -4						; size = 4
__Count$ = 8						; size = 4
?allocate@?$_Wrap_alloc@V?$allocator@D@std@@@std@@QAEPADI@Z PROC ; std::_Wrap_alloc<std::allocator<char> >::allocate, COMDAT
; _this$ = ecx

; 875  : 		{	// allocate array of _Count elements

	push	ebp
	mov	ebp, esp
	push	ecx
	mov	DWORD PTR _this$[ebp], ecx

; 876  : 		return (_Mybase::allocate(_Count));

	mov	eax, DWORD PTR __Count$[ebp]
	push	eax
	mov	ecx, DWORD PTR _this$[ebp]
	call	?allocate@?$allocator@D@std@@QAEPADI@Z	; std::allocator<char>::allocate

; 877  : 		}

	mov	esp, ebp
	pop	ebp
	ret	4
?allocate@?$_Wrap_alloc@V?$allocator@D@std@@@std@@QAEPADI@Z ENDP ; std::_Wrap_alloc<std::allocator<char> >::allocate
_TEXT	ENDS
; Function compile flags: /Odtp
; File c:\program files (x86)\microsoft visual studio 11.0\vc\include\xmemory0
;	COMDAT ??0?$_Wrap_alloc@V?$allocator@D@std@@@std@@QAE@XZ
_TEXT	SEGMENT
_this$ = -4						; size = 4
??0?$_Wrap_alloc@V?$allocator@D@std@@@std@@QAE@XZ PROC	; std::_Wrap_alloc<std::allocator<char> >::_Wrap_alloc<std::allocator<char> >, COMDAT
; _this$ = ecx

; 830  : 		{	// construct default allocator (do nothing)

	push	ebp
	mov	ebp, esp
	push	ecx
	mov	DWORD PTR _this$[ebp], ecx
	mov	ecx, DWORD PTR _this$[ebp]
	call	??0?$allocator@D@std@@QAE@XZ		; std::allocator<char>::allocator<char>

; 831  : 		}

	mov	eax, DWORD PTR _this$[ebp]
	mov	esp, ebp
	pop	ebp
	ret	0
??0?$_Wrap_alloc@V?$allocator@D@std@@@std@@QAE@XZ ENDP	; std::_Wrap_alloc<std::allocator<char> >::_Wrap_alloc<std::allocator<char> >
_TEXT	ENDS
; Function compile flags: /Odtp
; File c:\program files (x86)\microsoft visual studio 11.0\vc\include\xmemory0
;	COMDAT ?max_size@?$allocator_traits@V?$allocator@D@std@@@std@@SAIABV?$allocator@D@2@@Z
_TEXT	SEGMENT
__Al$ = 8						; size = 4
?max_size@?$allocator_traits@V?$allocator@D@std@@@std@@SAIABV?$allocator@D@2@@Z PROC ; std::allocator_traits<std::allocator<char> >::max_size, COMDAT

; 761  : 		{	// get maximum size

	push	ebp
	mov	ebp, esp

; 762  : 		return (_Al.max_size());

	mov	ecx, DWORD PTR __Al$[ebp]
	call	?max_size@?$allocator@D@std@@QBEIXZ	; std::allocator<char>::max_size

; 763  : 		}

	pop	ebp
	ret	0
?max_size@?$allocator_traits@V?$allocator@D@std@@@std@@SAIABV?$allocator@D@2@@Z ENDP ; std::allocator_traits<std::allocator<char> >::max_size
_TEXT	ENDS
; Function compile flags: /Odtp
; File c:\program files (x86)\microsoft visual studio 11.0\vc\include\xmemory0
;	COMDAT ?max_size@?$allocator@D@std@@QBEIXZ
_TEXT	SEGMENT
_this$ = -4						; size = 4
?max_size@?$allocator@D@std@@QBEIXZ PROC		; std::allocator<char>::max_size, COMDAT
; _this$ = ecx

; 627  : 		{	// estimate maximum array size

	push	ebp
	mov	ebp, esp
	push	ecx
	mov	DWORD PTR _this$[ebp], ecx

; 628  : 		return ((size_t)(-1) / sizeof (_Ty));

	or	eax, -1

; 629  : 		}

	mov	esp, ebp
	pop	ebp
	ret	0
?max_size@?$allocator@D@std@@QBEIXZ ENDP		; std::allocator<char>::max_size
_TEXT	ENDS
; Function compile flags: /Odtp
; File c:\program files (x86)\microsoft visual studio 11.0\vc\include\xmemory0
;	COMDAT ?allocate@?$allocator@D@std@@QAEPADI@Z
_TEXT	SEGMENT
_this$ = -4						; size = 4
__Count$ = 8						; size = 4
?allocate@?$allocator@D@std@@QAEPADI@Z PROC		; std::allocator<char>::allocate, COMDAT
; _this$ = ecx

; 590  : 		{	// allocate array of _Count elements

	push	ebp
	mov	ebp, esp
	push	ecx
	mov	DWORD PTR _this$[ebp], ecx

; 591  : 		return (_Allocate(_Count, (pointer)0));

	push	0
	mov	eax, DWORD PTR __Count$[ebp]
	push	eax
	call	??$_Allocate@D@std@@YAPADIPAD@Z		; std::_Allocate<char>
	add	esp, 8

; 592  : 		}

	mov	esp, ebp
	pop	ebp
	ret	4
?allocate@?$allocator@D@std@@QAEPADI@Z ENDP		; std::allocator<char>::allocate
_TEXT	ENDS
; Function compile flags: /Odtp
; File c:\program files (x86)\microsoft visual studio 11.0\vc\include\xmemory0
;	COMDAT ?deallocate@?$allocator@D@std@@QAEXPADI@Z
_TEXT	SEGMENT
_this$ = -4						; size = 4
__Ptr$ = 8						; size = 4
___formal$ = 12						; size = 4
?deallocate@?$allocator@D@std@@QAEXPADI@Z PROC		; std::allocator<char>::deallocate, COMDAT
; _this$ = ecx

; 585  : 		{	// deallocate object at _Ptr, ignore size

	push	ebp
	mov	ebp, esp
	push	ecx
	mov	DWORD PTR _this$[ebp], ecx

; 586  : 		::operator delete(_Ptr);

	mov	eax, DWORD PTR __Ptr$[ebp]
	push	eax
	call	??3@YAXPAX@Z				; operator delete
	add	esp, 4

; 587  : 		}

	mov	esp, ebp
	pop	ebp
	ret	8
?deallocate@?$allocator@D@std@@QAEXPADI@Z ENDP		; std::allocator<char>::deallocate
_TEXT	ENDS
; Function compile flags: /Odtp
; File c:\program files (x86)\microsoft visual studio 11.0\vc\include\xmemory0
;	COMDAT ??0?$allocator@D@std@@QAE@XZ
_TEXT	SEGMENT
_this$ = -4						; size = 4
??0?$allocator@D@std@@QAE@XZ PROC			; std::allocator<char>::allocator<char>, COMDAT
; _this$ = ecx

; 565  : 	allocator() _THROW0()

	push	ebp
	mov	ebp, esp
	push	ecx
	mov	DWORD PTR _this$[ebp], ecx

; 566  : 		{	// construct default allocator (do nothing)
; 567  : 		}

	mov	eax, DWORD PTR _this$[ebp]
	mov	esp, ebp
	pop	ebp
	ret	0
??0?$allocator@D@std@@QAE@XZ ENDP			; std::allocator<char>::allocator<char>
_TEXT	ENDS
; Function compile flags: /Odtp
; File c:\program files (x86)\microsoft visual studio 11.0\vc\include\xutility
;	COMDAT ??__Eallocator_arg@std@@YAXXZ
text$yc	SEGMENT
$T1 = -1						; size = 1
??__Eallocator_arg@std@@YAXXZ PROC			; std::`dynamic initializer for 'allocator_arg'', COMDAT

; 3644 : const allocator_arg_t allocator_arg = allocator_arg_t();

	push	ebp
	mov	ebp, esp
	push	ecx
	xor	eax, eax
	mov	BYTE PTR $T1[ebp], al
	mov	esp, ebp
	pop	ebp
	ret	0
??__Eallocator_arg@std@@YAXXZ ENDP			; std::`dynamic initializer for 'allocator_arg''
text$yc	ENDS
; Function compile flags: /Odtp
; File c:\program files (x86)\microsoft visual studio 11.0\vc\include\utility
;	COMDAT ??__Epiecewise_construct@std@@YAXXZ
text$yc	SEGMENT
$T1 = -1						; size = 1
??__Epiecewise_construct@std@@YAXXZ PROC		; std::`dynamic initializer for 'piecewise_construct'', COMDAT

; 65   : 	piecewise_construct_t();

	push	ebp
	mov	ebp, esp
	push	ecx
	xor	eax, eax
	mov	BYTE PTR $T1[ebp], al
	mov	esp, ebp
	pop	ebp
	ret	0
??__Epiecewise_construct@std@@YAXXZ ENDP		; std::`dynamic initializer for 'piecewise_construct''
text$yc	ENDS
; Function compile flags: /Odtp
; File c:\program files (x86)\microsoft visual studio 11.0\vc\include\iosfwd
;	COMDAT ?assign@?$char_traits@D@std@@SAXAADABD@Z
_TEXT	SEGMENT
__Left$ = 8						; size = 4
__Right$ = 12						; size = 4
?assign@?$char_traits@D@std@@SAXAADABD@Z PROC		; std::char_traits<char>::assign, COMDAT

; 563  : 		{	// assign an element

	push	ebp
	mov	ebp, esp

; 564  : 		_Left = _Right;

	mov	eax, DWORD PTR __Left$[ebp]
	mov	ecx, DWORD PTR __Right$[ebp]
	mov	dl, BYTE PTR [ecx]
	mov	BYTE PTR [eax], dl

; 565  : 		}

	pop	ebp
	ret	0
?assign@?$char_traits@D@std@@SAXAADABD@Z ENDP		; std::char_traits<char>::assign
_TEXT	ENDS
; Function compile flags: /Odtp
; File c:\program files (x86)\microsoft visual studio 11.0\vc\include\iosfwd
;	COMDAT ?move@?$char_traits@D@std@@SAPADPADPBDI@Z
_TEXT	SEGMENT
tv69 = -4						; size = 4
__First1$ = 8						; size = 4
__First2$ = 12						; size = 4
__Count$ = 16						; size = 4
?move@?$char_traits@D@std@@SAPADPADPBDI@Z PROC		; std::char_traits<char>::move, COMDAT

; 551  : 		{	// copy [_First2, _First2 + _Count) to [_First1, ...)

	push	ebp
	mov	ebp, esp
	push	ecx

; 552  : 		return (_Count == 0 ? _First1
; 553  : 			: (_Elem *)_CSTD memmove(_First1, _First2, _Count));

	cmp	DWORD PTR __Count$[ebp], 0
	jne	SHORT $LN3@move
	mov	eax, DWORD PTR __First1$[ebp]
	mov	DWORD PTR tv69[ebp], eax
	jmp	SHORT $LN4@move
$LN3@move:
	mov	ecx, DWORD PTR __Count$[ebp]
	push	ecx
	mov	edx, DWORD PTR __First2$[ebp]
	push	edx
	mov	eax, DWORD PTR __First1$[ebp]
	push	eax
	call	_memmove
	add	esp, 12					; 0000000cH
	mov	DWORD PTR tv69[ebp], eax
$LN4@move:
	mov	eax, DWORD PTR tv69[ebp]

; 554  : 		}

	mov	esp, ebp
	pop	ebp
	ret	0
?move@?$char_traits@D@std@@SAPADPADPBDI@Z ENDP		; std::char_traits<char>::move
_TEXT	ENDS
; Function compile flags: /Odtp
; File c:\program files (x86)\microsoft visual studio 11.0\vc\include\iosfwd
;	COMDAT ?copy@?$char_traits@D@std@@SAPADPADPBDI@Z
_TEXT	SEGMENT
tv69 = -4						; size = 4
__First1$ = 8						; size = 4
__First2$ = 12						; size = 4
__Count$ = 16						; size = 4
?copy@?$char_traits@D@std@@SAPADPADPBDI@Z PROC		; std::char_traits<char>::copy, COMDAT

; 528  : 		{	// copy [_First2, _First2 + _Count) to [_First1, ...)

	push	ebp
	mov	ebp, esp
	push	ecx

; 529  : 		return (_Count == 0 ? _First1
; 530  : 			: (_Elem *)_CSTD memcpy(_First1, _First2, _Count));

	cmp	DWORD PTR __Count$[ebp], 0
	jne	SHORT $LN3@copy
	mov	eax, DWORD PTR __First1$[ebp]
	mov	DWORD PTR tv69[ebp], eax
	jmp	SHORT $LN4@copy
$LN3@copy:
	mov	ecx, DWORD PTR __Count$[ebp]
	push	ecx
	mov	edx, DWORD PTR __First2$[ebp]
	push	edx
	mov	eax, DWORD PTR __First1$[ebp]
	push	eax
	call	_memcpy
	add	esp, 12					; 0000000cH
	mov	DWORD PTR tv69[ebp], eax
$LN4@copy:
	mov	eax, DWORD PTR tv69[ebp]

; 531  : 		}

	mov	esp, ebp
	pop	ebp
	ret	0
?copy@?$char_traits@D@std@@SAPADPADPBDI@Z ENDP		; std::char_traits<char>::copy
_TEXT	ENDS
; Function compile flags: /Odtp
; File c:\program files (x86)\microsoft visual studio 11.0\vc\include\iosfwd
;	COMDAT ?length@?$char_traits@D@std@@SAIPBD@Z
_TEXT	SEGMENT
tv68 = -4						; size = 4
__First$ = 8						; size = 4
?length@?$char_traits@D@std@@SAIPBD@Z PROC		; std::char_traits<char>::length, COMDAT

; 521  : 		{	// find length of null-terminated string

	push	ebp
	mov	ebp, esp
	push	ecx

; 522  : 		return (*_First == 0 ? 0
; 523  : 			: _CSTD strlen(_First));

	mov	eax, DWORD PTR __First$[ebp]
	movsx	ecx, BYTE PTR [eax]
	test	ecx, ecx
	jne	SHORT $LN3@length
	mov	DWORD PTR tv68[ebp], 0
	jmp	SHORT $LN4@length
$LN3@length:
	mov	edx, DWORD PTR __First$[ebp]
	push	edx
	call	_strlen
	add	esp, 4
	mov	DWORD PTR tv68[ebp], eax
$LN4@length:
	mov	eax, DWORD PTR tv68[ebp]

; 524  : 		}

	mov	esp, ebp
	pop	ebp
	ret	0
?length@?$char_traits@D@std@@SAIPBD@Z ENDP		; std::char_traits<char>::length
_TEXT	ENDS
; Function compile flags: /Odtp
; File c:\program files (x86)\microsoft visual studio 11.0\vc\include\new
;	COMDAT ??3@YAXPAX0@Z
_TEXT	SEGMENT
___formal$ = 8						; size = 4
___formal$ = 12						; size = 4
??3@YAXPAX0@Z PROC					; operator delete, COMDAT

; 64   : 	{	// delete if placement new fails

	push	ebp
	mov	ebp, esp

; 65   : 	}

	pop	ebp
	ret	0
??3@YAXPAX0@Z ENDP					; operator delete
_TEXT	ENDS
; Function compile flags: /Odtp
; File c:\program files (x86)\microsoft visual studio 11.0\vc\include\new
;	COMDAT ??2@YAPAXIPAX@Z
_TEXT	SEGMENT
___formal$ = 8						; size = 4
__Where$ = 12						; size = 4
??2@YAPAXIPAX@Z PROC					; operator new, COMDAT

; 59   : 	{	// construct array with placement at _Where

	push	ebp
	mov	ebp, esp

; 60   : 	return (_Where);

	mov	eax, DWORD PTR __Where$[ebp]

; 61   : 	}

	pop	ebp
	ret	0
??2@YAPAXIPAX@Z ENDP					; operator new
_TEXT	ENDS
; Function compile flags: /Odtp
; File c:\users\zhitao li\documents\visual studio 2012\projects\freefalcon\vu2\include\vuentity.h
;	COMDAT ?EntityType@VuEntity@@QBEPAUVuEntityType@@XZ
_TEXT	SEGMENT
_this$ = -4						; size = 4
?EntityType@VuEntity@@QBEPAUVuEntityType@@XZ PROC	; VuEntity::EntityType, COMDAT
; _this$ = ecx

; 176  : 	VuEntityType *EntityType() const { return const_cast<VuEntityType*>(entityTypePtr_); }

	push	ebp
	mov	ebp, esp
	push	ecx
	mov	DWORD PTR _this$[ebp], ecx
	mov	eax, DWORD PTR _this$[ebp]
	mov	eax, DWORD PTR [eax+112]
	mov	esp, ebp
	pop	ebp
	ret	0
?EntityType@VuEntity@@QBEPAUVuEntityType@@XZ ENDP	; VuEntity::EntityType
_TEXT	ENDS
; Function compile flags: /Odtp
; File c:\users\zhitao li\documents\visual studio 2012\projects\freefalcon\vu2\include\vuentity.h
;	COMDAT ?Roll@VuEntity@@QBEMXZ
_TEXT	SEGMENT
_this$ = -4						; size = 4
?Roll@VuEntity@@QBEMXZ PROC				; VuEntity::Roll, COMDAT
; _this$ = ecx

; 166  : 	SM_SCALAR Roll() const { return orient_.roll_; }

	push	ebp
	mov	ebp, esp
	push	ecx
	mov	DWORD PTR _this$[ebp], ecx
	mov	eax, DWORD PTR _this$[ebp]
	fld	DWORD PTR [eax+68]
	mov	esp, ebp
	pop	ebp
	ret	0
?Roll@VuEntity@@QBEMXZ ENDP				; VuEntity::Roll
_TEXT	ENDS
; Function compile flags: /Odtp
; File c:\users\zhitao li\documents\visual studio 2012\projects\freefalcon\vu2\include\vuentity.h
;	COMDAT ?Pitch@VuEntity@@QBEMXZ
_TEXT	SEGMENT
_this$ = -4						; size = 4
?Pitch@VuEntity@@QBEMXZ PROC				; VuEntity::Pitch, COMDAT
; _this$ = ecx

; 165  : 	SM_SCALAR Pitch() const { return orient_.pitch_; }

	push	ebp
	mov	ebp, esp
	push	ecx
	mov	DWORD PTR _this$[ebp], ecx
	mov	eax, DWORD PTR _this$[ebp]
	fld	DWORD PTR [eax+64]
	mov	esp, ebp
	pop	ebp
	ret	0
?Pitch@VuEntity@@QBEMXZ ENDP				; VuEntity::Pitch
_TEXT	ENDS
; Function compile flags: /Odtp
; File c:\users\zhitao li\documents\visual studio 2012\projects\freefalcon\vu2\include\vuentity.h
;	COMDAT ?Yaw@VuEntity@@QBEMXZ
_TEXT	SEGMENT
_this$ = -4						; size = 4
?Yaw@VuEntity@@QBEMXZ PROC				; VuEntity::Yaw, COMDAT
; _this$ = ecx

; 164  : 	SM_SCALAR Yaw() const { return orient_.yaw_; }

	push	ebp
	mov	ebp, esp
	push	ecx
	mov	DWORD PTR _this$[ebp], ecx
	mov	eax, DWORD PTR _this$[ebp]
	fld	DWORD PTR [eax+60]
	mov	esp, ebp
	pop	ebp
	ret	0
?Yaw@VuEntity@@QBEMXZ ENDP				; VuEntity::Yaw
_TEXT	ENDS
; Function compile flags: /Odtp
; File c:\users\zhitao li\documents\visual studio 2012\projects\freefalcon\vu2\include\vuentity.h
;	COMDAT ?ZPos@VuEntity@@QBEMXZ
_TEXT	SEGMENT
_this$ = -4						; size = 4
?ZPos@VuEntity@@QBEMXZ PROC				; VuEntity::ZPos, COMDAT
; _this$ = ecx

; 160  : 	BIG_SCALAR ZPos()	const { return pos_.z_; }

	push	ebp
	mov	ebp, esp
	push	ecx
	mov	DWORD PTR _this$[ebp], ecx
	mov	eax, DWORD PTR _this$[ebp]
	fld	DWORD PTR [eax+44]
	mov	esp, ebp
	pop	ebp
	ret	0
?ZPos@VuEntity@@QBEMXZ ENDP				; VuEntity::ZPos
_TEXT	ENDS
; Function compile flags: /Odtp
; File c:\users\zhitao li\documents\visual studio 2012\projects\freefalcon\vu2\include\vuentity.h
;	COMDAT ?YPos@VuEntity@@QBEMXZ
_TEXT	SEGMENT
_this$ = -4						; size = 4
?YPos@VuEntity@@QBEMXZ PROC				; VuEntity::YPos, COMDAT
; _this$ = ecx

; 159  : 	BIG_SCALAR YPos()	const { return pos_.y_; }

	push	ebp
	mov	ebp, esp
	push	ecx
	mov	DWORD PTR _this$[ebp], ecx
	mov	eax, DWORD PTR _this$[ebp]
	fld	DWORD PTR [eax+40]
	mov	esp, ebp
	pop	ebp
	ret	0
?YPos@VuEntity@@QBEMXZ ENDP				; VuEntity::YPos
_TEXT	ENDS
; Function compile flags: /Odtp
; File c:\users\zhitao li\documents\visual studio 2012\projects\freefalcon\vu2\include\vuentity.h
;	COMDAT ?XPos@VuEntity@@QBEMXZ
_TEXT	SEGMENT
_this$ = -4						; size = 4
?XPos@VuEntity@@QBEMXZ PROC				; VuEntity::XPos, COMDAT
; _this$ = ecx

; 158  : 	BIG_SCALAR XPos() const { return pos_.x_; }

	push	ebp
	mov	ebp, esp
	push	ecx
	mov	DWORD PTR _this$[ebp], ecx
	mov	eax, DWORD PTR _this$[ebp]
	fld	DWORD PTR [eax+36]
	mov	esp, ebp
	pop	ebp
	ret	0
?XPos@VuEntity@@QBEMXZ ENDP				; VuEntity::XPos
_TEXT	ENDS
; Function compile flags: /Odtp
; File c:\users\zhitao li\documents\visual studio 2012\projects\freefalcon\vu2\include\vuentity.h
;	COMDAT ?Id@VuEntity@@QBE?AVVU_ID@@XZ
_TEXT	SEGMENT
_this$ = -4						; size = 4
___$ReturnUdt$ = 8					; size = 4
?Id@VuEntity@@QBE?AVVU_ID@@XZ PROC			; VuEntity::Id, COMDAT
; _this$ = ecx

; 131  : 	VU_ID Id() const	{ return share_.id_; }

	push	ebp
	mov	ebp, esp
	push	ecx
	mov	DWORD PTR _this$[ebp], ecx
	mov	eax, DWORD PTR _this$[ebp]
	mov	ecx, DWORD PTR [eax+12]
	mov	edx, DWORD PTR [eax+16]
	mov	eax, DWORD PTR ___$ReturnUdt$[ebp]
	mov	DWORD PTR [eax], ecx
	mov	DWORD PTR [eax+4], edx
	mov	eax, DWORD PTR ___$ReturnUdt$[ebp]
	mov	esp, ebp
	pop	ebp
	ret	4
?Id@VuEntity@@QBE?AVVU_ID@@XZ ENDP			; VuEntity::Id
_TEXT	ENDS
; Function compile flags: /Odtp
; File c:\users\zhitao li\documents\visual studio 2012\projects\freefalcon\falclib\include\vutypes.h
;	COMDAT ??8VU_ID@@QBE_NABV0@@Z
_TEXT	SEGMENT
_this$ = -8						; size = 4
tv74 = -2						; size = 1
tv73 = -1						; size = 1
_rhs$ = 8						; size = 4
??8VU_ID@@QBE_NABV0@@Z PROC				; VU_ID::operator==, COMDAT
; _this$ = ecx

; 104  : 	bool operator == (const VU_ID &rhs) const { 

	push	ebp
	mov	ebp, esp
	sub	esp, 8
	mov	DWORD PTR _this$[ebp], ecx

; 105  : 		return (
; 106  : 			num_ == rhs.num_ ? 
; 107  : 			(creator_ == rhs.creator_ ? true : false) : 
; 108  : 			false
; 109  : 		); 

	mov	eax, DWORD PTR _this$[ebp]
	mov	ecx, DWORD PTR _rhs$[ebp]
	mov	edx, DWORD PTR [eax]
	cmp	edx, DWORD PTR [ecx]
	jne	SHORT $LN5@operator
	mov	eax, DWORD PTR _rhs$[ebp]
	add	eax, 4
	push	eax
	mov	ecx, DWORD PTR _this$[ebp]
	add	ecx, 4
	call	??8VU_SESSION_ID@@QBEHABV0@@Z		; VU_SESSION_ID::operator==
	test	eax, eax
	je	SHORT $LN3@operator
	mov	BYTE PTR tv73[ebp], 1
	jmp	SHORT $LN4@operator
$LN3@operator:
	mov	BYTE PTR tv73[ebp], 0
$LN4@operator:
	mov	cl, BYTE PTR tv73[ebp]
	mov	BYTE PTR tv74[ebp], cl
	jmp	SHORT $LN6@operator
$LN5@operator:
	mov	BYTE PTR tv74[ebp], 0
$LN6@operator:
	mov	al, BYTE PTR tv74[ebp]

; 110  : 	}

	mov	esp, ebp
	pop	ebp
	ret	4
??8VU_ID@@QBE_NABV0@@Z ENDP				; VU_ID::operator==
_TEXT	ENDS
; Function compile flags: /Odtp
; File c:\users\zhitao li\documents\visual studio 2012\projects\freefalcon\falclib\include\vutypes.h
;	COMDAT ??8VU_SESSION_ID@@QBEHABV0@@Z
_TEXT	SEGMENT
_this$ = -8						; size = 4
tv67 = -4						; size = 4
_rhs$ = 8						; size = 4
??8VU_SESSION_ID@@QBEHABV0@@Z PROC			; VU_SESSION_ID::operator==, COMDAT
; _this$ = ecx

; 55   : 	int operator == (const VU_SESSION_ID &rhs) const{

	push	ebp
	mov	ebp, esp
	sub	esp, 8
	mov	DWORD PTR _this$[ebp], ecx

; 56   : 		return (value_ == rhs.value_ ? TRUE : FALSE); 

	mov	eax, DWORD PTR _this$[ebp]
	mov	ecx, DWORD PTR _rhs$[ebp]
	mov	edx, DWORD PTR [eax]
	cmp	edx, DWORD PTR [ecx]
	jne	SHORT $LN3@operator
	mov	DWORD PTR tv67[ebp], 1
	jmp	SHORT $LN4@operator
$LN3@operator:
	mov	DWORD PTR tv67[ebp], 0
$LN4@operator:
	mov	eax, DWORD PTR tv67[ebp]

; 57   : 	}

	mov	esp, ebp
	pop	ebp
	ret	4
??8VU_SESSION_ID@@QBEHABV0@@Z ENDP			; VU_SESSION_ID::operator==
_TEXT	ENDS
; Function compile flags: /Odtp
; File c:\users\zhitao li\documents\visual studio 2012\projects\freefalcon\mathlib\math.h
_TEXT	SEGMENT
_x$ = 8							; size = 4
?SqrtSSE@@YAMM@Z PROC					; SqrtSSE

; 91   : static inline float SqrtSSE(float x){ 

	push	ebp
	mov	ebp, esp

; 92   :     __asm 
; 93   :     { 
; 94   :         sqrtss xmm0,x 

	sqrtss	xmm0, DWORD PTR _x$[ebp]

; 95   :         movss x,xmm0 

	movss	XMMWORD PTR _x$[ebp], xmm0

; 96   :     } 
; 97   : 
; 98   :     return x; 

	fld	DWORD PTR _x$[ebp]

; 99   : } 

	pop	ebp
	ret	0
?SqrtSSE@@YAMM@Z ENDP					; SqrtSSE
_TEXT	ENDS
; Function compile flags: /Odtp
; File c:\program files (x86)\microsoft visual studio 11.0\vc\include\math.h
;	COMDAT ?sin@@YAMM@Z
_TEXT	SEGMENT
__X$ = 8						; size = 4
?sin@@YAMM@Z PROC					; sin, COMDAT

; 537  :         {return (sinf(_X)); }

	push	ebp
	mov	ebp, esp
	push	ecx
	movss	xmm0, DWORD PTR __X$[ebp]
	movss	DWORD PTR [esp], xmm0
	call	_sinf
	add	esp, 4
	pop	ebp
	ret	0
?sin@@YAMM@Z ENDP					; sin
_TEXT	ENDS
; Function compile flags: /Odtp
; File c:\program files (x86)\microsoft visual studio 11.0\vc\include\math.h
;	COMDAT ?floor@@YAMM@Z
_TEXT	SEGMENT
__X$ = 8						; size = 4
?floor@@YAMM@Z PROC					; floor, COMDAT

; 519  :         {return (floorf(_X)); }

	push	ebp
	mov	ebp, esp
	push	ecx
	movss	xmm0, DWORD PTR __X$[ebp]
	movss	DWORD PTR [esp], xmm0
	call	_floorf
	add	esp, 4
	pop	ebp
	ret	0
?floor@@YAMM@Z ENDP					; floor
_TEXT	ENDS
; Function compile flags: /Odtp
; File c:\program files (x86)\microsoft visual studio 11.0\vc\include\math.h
;	COMDAT ?fabs@@YAMM@Z
_TEXT	SEGMENT
__X$ = 8						; size = 4
?fabs@@YAMM@Z PROC					; fabs, COMDAT

; 517  :         {return (fabsf(_X)); }

	push	ebp
	mov	ebp, esp
	push	ecx
	movss	xmm0, DWORD PTR __X$[ebp]
	movss	DWORD PTR [esp], xmm0
	call	_fabsf
	add	esp, 4
	pop	ebp
	ret	0
?fabs@@YAMM@Z ENDP					; fabs
_TEXT	ENDS
; Function compile flags: /Odtp
; File c:\program files (x86)\microsoft visual studio 11.0\vc\include\math.h
;	COMDAT ?cos@@YAMM@Z
_TEXT	SEGMENT
__X$ = 8						; size = 4
?cos@@YAMM@Z PROC					; cos, COMDAT

; 511  :         {return (cosf(_X)); }

	push	ebp
	mov	ebp, esp
	push	ecx
	movss	xmm0, DWORD PTR __X$[ebp]
	movss	DWORD PTR [esp], xmm0
	call	_cosf
	add	esp, 4
	pop	ebp
	ret	0
?cos@@YAMM@Z ENDP					; cos
_TEXT	ENDS
; Function compile flags: /Odtp
; File c:\program files (x86)\microsoft visual studio 11.0\vc\include\math.h
;	COMDAT ?ceil@@YAMM@Z
_TEXT	SEGMENT
__X$ = 8						; size = 4
?ceil@@YAMM@Z PROC					; ceil, COMDAT

; 509  :         {return (ceilf(_X)); }

	push	ebp
	mov	ebp, esp
	push	ecx
	movss	xmm0, DWORD PTR __X$[ebp]
	movss	DWORD PTR [esp], xmm0
	call	_ceilf
	add	esp, 4
	pop	ebp
	ret	0
?ceil@@YAMM@Z ENDP					; ceil
_TEXT	ENDS
; Function compile flags: /Odtp
; File c:\program files (x86)\microsoft visual studio 11.0\vc\include\math.h
;	COMDAT _sinf
_TEXT	SEGMENT
tv74 = -12						; size = 8
tv76 = -4						; size = 4
__X$ = 8						; size = 4
_sinf	PROC						; COMDAT

; 430  :         {return ((float)sin((double)_X)); }

	push	ebp
	mov	ebp, esp
	sub	esp, 12					; 0000000cH
	cvtss2sd xmm0, DWORD PTR __X$[ebp]
	sub	esp, 8
	movsd	QWORD PTR [esp], xmm0
	call	_sin
	add	esp, 8
	fstp	QWORD PTR tv74[ebp]
	movsd	xmm0, QWORD PTR tv74[ebp]
	cvtsd2ss xmm0, xmm0
	movss	DWORD PTR tv76[ebp], xmm0
	fld	DWORD PTR tv76[ebp]
	mov	esp, ebp
	pop	ebp
	ret	0
_sinf	ENDP
_TEXT	ENDS
; Function compile flags: /Odtp
; File c:\program files (x86)\microsoft visual studio 11.0\vc\include\math.h
;	COMDAT _floorf
_TEXT	SEGMENT
tv74 = -12						; size = 8
tv76 = -4						; size = 4
__X$ = 8						; size = 4
_floorf	PROC						; COMDAT

; 416  :         {return ((float)floor((double)_X)); }

	push	ebp
	mov	ebp, esp
	sub	esp, 12					; 0000000cH
	cvtss2sd xmm0, DWORD PTR __X$[ebp]
	sub	esp, 8
	movsd	QWORD PTR [esp], xmm0
	call	_floor
	add	esp, 8
	fstp	QWORD PTR tv74[ebp]
	movsd	xmm0, QWORD PTR tv74[ebp]
	cvtsd2ss xmm0, xmm0
	movss	DWORD PTR tv76[ebp], xmm0
	fld	DWORD PTR tv76[ebp]
	mov	esp, ebp
	pop	ebp
	ret	0
_floorf	ENDP
_TEXT	ENDS
; Function compile flags: /Odtp
; File c:\program files (x86)\microsoft visual studio 11.0\vc\include\math.h
;	COMDAT _cosf
_TEXT	SEGMENT
tv74 = -12						; size = 8
tv76 = -4						; size = 4
__X$ = 8						; size = 4
_cosf	PROC						; COMDAT

; 410  :         {return ((float)cos((double)_X)); }

	push	ebp
	mov	ebp, esp
	sub	esp, 12					; 0000000cH
	cvtss2sd xmm0, DWORD PTR __X$[ebp]
	sub	esp, 8
	movsd	QWORD PTR [esp], xmm0
	call	_cos
	add	esp, 8
	fstp	QWORD PTR tv74[ebp]
	movsd	xmm0, QWORD PTR tv74[ebp]
	cvtsd2ss xmm0, xmm0
	movss	DWORD PTR tv76[ebp], xmm0
	fld	DWORD PTR tv76[ebp]
	mov	esp, ebp
	pop	ebp
	ret	0
_cosf	ENDP
_TEXT	ENDS
; Function compile flags: /Odtp
; File c:\program files (x86)\microsoft visual studio 11.0\vc\include\math.h
;	COMDAT _ceilf
_TEXT	SEGMENT
tv74 = -12						; size = 8
tv76 = -4						; size = 4
__X$ = 8						; size = 4
_ceilf	PROC						; COMDAT

; 408  :         {return ((float)ceil((double)_X)); }

	push	ebp
	mov	ebp, esp
	sub	esp, 12					; 0000000cH
	cvtss2sd xmm0, DWORD PTR __X$[ebp]
	sub	esp, 8
	movsd	QWORD PTR [esp], xmm0
	call	_ceil
	add	esp, 8
	fstp	QWORD PTR tv74[ebp]
	movsd	xmm0, QWORD PTR tv74[ebp]
	cvtsd2ss xmm0, xmm0
	movss	DWORD PTR tv76[ebp], xmm0
	fld	DWORD PTR tv76[ebp]
	mov	esp, ebp
	pop	ebp
	ret	0
_ceilf	ENDP
_TEXT	ENDS
; Function compile flags: /Odtp
; File c:\program files (x86)\microsoft visual studio 11.0\vc\include\math.h
;	COMDAT _fabsf
_TEXT	SEGMENT
tv74 = -12						; size = 8
tv76 = -4						; size = 4
__X$ = 8						; size = 4
_fabsf	PROC						; COMDAT

; 392  :         {return ((float)fabs((double)_X)); }

	push	ebp
	mov	ebp, esp
	sub	esp, 12					; 0000000cH
	cvtss2sd xmm0, DWORD PTR __X$[ebp]
	sub	esp, 8
	movsd	QWORD PTR [esp], xmm0
	call	_fabs
	add	esp, 8
	fstp	QWORD PTR tv74[ebp]
	movsd	xmm0, QWORD PTR tv74[ebp]
	cvtsd2ss xmm0, xmm0
	movss	DWORD PTR tv76[ebp], xmm0
	fld	DWORD PTR tv76[ebp]
	mov	esp, ebp
	pop	ebp
	ret	0
_fabsf	ENDP
_TEXT	ENDS
END
