; Listing generated by Microsoft (R) Optimizing Compiler Version 17.00.51106.1 

	TITLE	C:\Users\Zhitao Li\Documents\Visual Studio 2012\Projects\Freefalcon\SIM\RADAR\GMScope.cpp
	.686P
	.XMM
	include listing.inc
	.model	flat

INCLUDELIB LIBCMT
INCLUDELIB OLDNAMES

PUBLIC	?traps@_Num_base@std@@2_NB			; std::_Num_base::traps
PUBLIC	?round_style@_Num_base@std@@2W4float_round_style@2@B ; std::_Num_base::round_style
PUBLIC	?digits@_Num_base@std@@2HB			; std::_Num_base::digits
PUBLIC	?table_size@?$ctype@D@std@@2IB			; std::ctype<char>::table_size
PUBLIC	?digits10@_Num_base@std@@2HB			; std::_Num_base::digits10
PUBLIC	?max_digits10@_Num_base@std@@2HB		; std::_Num_base::max_digits10
PUBLIC	?max_exponent@_Num_base@std@@2HB		; std::_Num_base::max_exponent
PUBLIC	?max_exponent10@_Num_base@std@@2HB		; std::_Num_base::max_exponent10
PUBLIC	?min_exponent@_Num_base@std@@2HB		; std::_Num_base::min_exponent
PUBLIC	?min_exponent10@_Num_base@std@@2HB		; std::_Num_base::min_exponent10
PUBLIC	?radix@_Num_base@std@@2HB			; std::_Num_base::radix
PUBLIC	?is_bounded@_Num_int_base@std@@2_NB		; std::_Num_int_base::is_bounded
PUBLIC	?is_exact@_Num_int_base@std@@2_NB		; std::_Num_int_base::is_exact
PUBLIC	?is_integer@_Num_int_base@std@@2_NB		; std::_Num_int_base::is_integer
PUBLIC	?is_modulo@_Num_int_base@std@@2_NB		; std::_Num_int_base::is_modulo
PUBLIC	?is_specialized@_Num_int_base@std@@2_NB		; std::_Num_int_base::is_specialized
PUBLIC	?radix@_Num_int_base@std@@2HB			; std::_Num_int_base::radix
PUBLIC	?has_denorm@_Num_float_base@std@@2W4float_denorm_style@2@B ; std::_Num_float_base::has_denorm
PUBLIC	?has_denorm_loss@_Num_float_base@std@@2_NB	; std::_Num_float_base::has_denorm_loss
PUBLIC	?SIMDIRTYDATA_INTERVAL@FalconEntity@@2KB	; FalconEntity::SIMDIRTYDATA_INTERVAL
PUBLIC	?CMPDIRTYDATA_INTERVAL@FalconEntity@@2KB	; FalconEntity::CMPDIRTYDATA_INTERVAL
PUBLIC	?has_infinity@_Num_float_base@std@@2_NB		; std::_Num_float_base::has_infinity
PUBLIC	?has_quiet_NaN@_Num_float_base@std@@2_NB	; std::_Num_float_base::has_quiet_NaN
PUBLIC	?has_signaling_NaN@_Num_float_base@std@@2_NB	; std::_Num_float_base::has_signaling_NaN
PUBLIC	?is_bounded@_Num_float_base@std@@2_NB		; std::_Num_float_base::is_bounded
PUBLIC	?is_exact@_Num_float_base@std@@2_NB		; std::_Num_float_base::is_exact
PUBLIC	?is_iec559@_Num_float_base@std@@2_NB		; std::_Num_float_base::is_iec559
PUBLIC	?is_integer@_Num_float_base@std@@2_NB		; std::_Num_float_base::is_integer
PUBLIC	?is_modulo@_Num_float_base@std@@2_NB		; std::_Num_float_base::is_modulo
PUBLIC	?is_signed@_Num_float_base@std@@2_NB		; std::_Num_float_base::is_signed
PUBLIC	?is_specialized@_Num_float_base@std@@2_NB	; std::_Num_float_base::is_specialized
PUBLIC	?tinyness_before@_Num_float_base@std@@2_NB	; std::_Num_float_base::tinyness_before
PUBLIC	?traps@_Num_float_base@std@@2_NB		; std::_Num_float_base::traps
PUBLIC	?round_style@_Num_float_base@std@@2W4float_round_style@2@B ; std::_Num_float_base::round_style
PUBLIC	?radix@_Num_float_base@std@@2HB			; std::_Num_float_base::radix
PUBLIC	?is_signed@?$numeric_limits@D@std@@2_NB		; std::numeric_limits<char>::is_signed
PUBLIC	?digits@?$numeric_limits@D@std@@2HB		; std::numeric_limits<char>::digits
PUBLIC	?digits10@?$numeric_limits@D@std@@2HB		; std::numeric_limits<char>::digits10
PUBLIC	?is_signed@?$numeric_limits@_W@std@@2_NB	; std::numeric_limits<wchar_t>::is_signed
PUBLIC	?digits@?$numeric_limits@_W@std@@2HB		; std::numeric_limits<wchar_t>::digits
PUBLIC	?digits10@?$numeric_limits@_W@std@@2HB		; std::numeric_limits<wchar_t>::digits10
PUBLIC	?is_modulo@?$numeric_limits@_N@std@@2_NB	; std::numeric_limits<bool>::is_modulo
PUBLIC	?is_signed@?$numeric_limits@_N@std@@2_NB	; std::numeric_limits<bool>::is_signed
PUBLIC	?digits@?$numeric_limits@_N@std@@2HB		; std::numeric_limits<bool>::digits
PUBLIC	?digits10@?$numeric_limits@_N@std@@2HB		; std::numeric_limits<bool>::digits10
PUBLIC	?is_signed@?$numeric_limits@C@std@@2_NB		; std::numeric_limits<signed char>::is_signed
PUBLIC	?digits@?$numeric_limits@C@std@@2HB		; std::numeric_limits<signed char>::digits
PUBLIC	?digits10@?$numeric_limits@C@std@@2HB		; std::numeric_limits<signed char>::digits10
PUBLIC	?is_signed@?$numeric_limits@E@std@@2_NB		; std::numeric_limits<unsigned char>::is_signed
PUBLIC	?value@?$integral_constant@_N$0A@@std@@2_NB	; std::integral_constant<bool,0>::value
PUBLIC	?digits@?$numeric_limits@E@std@@2HB		; std::numeric_limits<unsigned char>::digits
PUBLIC	?digits10@?$numeric_limits@E@std@@2HB		; std::numeric_limits<unsigned char>::digits10
PUBLIC	?value@?$integral_constant@_N$00@std@@2_NB	; std::integral_constant<bool,1>::value
PUBLIC	?is_signed@?$numeric_limits@F@std@@2_NB		; std::numeric_limits<short>::is_signed
PUBLIC	?digits@?$numeric_limits@F@std@@2HB		; std::numeric_limits<short>::digits
PUBLIC	?digits10@?$numeric_limits@F@std@@2HB		; std::numeric_limits<short>::digits10
PUBLIC	?is_signed@?$numeric_limits@G@std@@2_NB		; std::numeric_limits<unsigned short>::is_signed
PUBLIC	?digits@?$numeric_limits@G@std@@2HB		; std::numeric_limits<unsigned short>::digits
PUBLIC	?digits10@?$numeric_limits@G@std@@2HB		; std::numeric_limits<unsigned short>::digits10
PUBLIC	?is_signed@?$numeric_limits@H@std@@2_NB		; std::numeric_limits<int>::is_signed
PUBLIC	?value@?$_Sizeof@HU_Nil@std@@U12@U12@U12@U12@U12@U12@@std@@2IB ; std::_Sizeof<int,std::_Nil,std::_Nil,std::_Nil,std::_Nil,std::_Nil,std::_Nil,std::_Nil>::value
PUBLIC	?digits@?$numeric_limits@H@std@@2HB		; std::numeric_limits<int>::digits
PUBLIC	?digits10@?$numeric_limits@H@std@@2HB		; std::numeric_limits<int>::digits10
PUBLIC	?is_signed@?$numeric_limits@I@std@@2_NB		; std::numeric_limits<unsigned int>::is_signed
PUBLIC	?digits@?$numeric_limits@I@std@@2HB		; std::numeric_limits<unsigned int>::digits
PUBLIC	?digits10@?$numeric_limits@I@std@@2HB		; std::numeric_limits<unsigned int>::digits10
PUBLIC	?skipws@?$_Iosb@H@std@@2W4_Fmtflags@12@B	; std::_Iosb<int>::skipws
PUBLIC	?unitbuf@?$_Iosb@H@std@@2W4_Fmtflags@12@B	; std::_Iosb<int>::unitbuf
PUBLIC	?uppercase@?$_Iosb@H@std@@2W4_Fmtflags@12@B	; std::_Iosb<int>::uppercase
PUBLIC	?showbase@?$_Iosb@H@std@@2W4_Fmtflags@12@B	; std::_Iosb<int>::showbase
PUBLIC	?showpoint@?$_Iosb@H@std@@2W4_Fmtflags@12@B	; std::_Iosb<int>::showpoint
PUBLIC	?is_signed@?$numeric_limits@J@std@@2_NB		; std::numeric_limits<long>::is_signed
PUBLIC	?showpos@?$_Iosb@H@std@@2W4_Fmtflags@12@B	; std::_Iosb<int>::showpos
PUBLIC	?digits@?$numeric_limits@J@std@@2HB		; std::numeric_limits<long>::digits
PUBLIC	?left@?$_Iosb@H@std@@2W4_Fmtflags@12@B		; std::_Iosb<int>::left
PUBLIC	?right@?$_Iosb@H@std@@2W4_Fmtflags@12@B		; std::_Iosb<int>::right
PUBLIC	?digits10@?$numeric_limits@J@std@@2HB		; std::numeric_limits<long>::digits10
PUBLIC	?internal@?$_Iosb@H@std@@2W4_Fmtflags@12@B	; std::_Iosb<int>::internal
PUBLIC	?dec@?$_Iosb@H@std@@2W4_Fmtflags@12@B		; std::_Iosb<int>::dec
PUBLIC	?oct@?$_Iosb@H@std@@2W4_Fmtflags@12@B		; std::_Iosb<int>::oct
PUBLIC	?hex@?$_Iosb@H@std@@2W4_Fmtflags@12@B		; std::_Iosb<int>::hex
PUBLIC	?scientific@?$_Iosb@H@std@@2W4_Fmtflags@12@B	; std::_Iosb<int>::scientific
PUBLIC	?fixed@?$_Iosb@H@std@@2W4_Fmtflags@12@B		; std::_Iosb<int>::fixed
PUBLIC	?hexfloat@?$_Iosb@H@std@@2W4_Fmtflags@12@B	; std::_Iosb<int>::hexfloat
PUBLIC	?boolalpha@?$_Iosb@H@std@@2W4_Fmtflags@12@B	; std::_Iosb<int>::boolalpha
PUBLIC	?_Stdio@?$_Iosb@H@std@@2W4_Fmtflags@12@B	; std::_Iosb<int>::_Stdio
PUBLIC	?adjustfield@?$_Iosb@H@std@@2W4_Fmtflags@12@B	; std::_Iosb<int>::adjustfield
PUBLIC	?is_signed@?$numeric_limits@K@std@@2_NB		; std::numeric_limits<unsigned long>::is_signed
PUBLIC	?basefield@?$_Iosb@H@std@@2W4_Fmtflags@12@B	; std::_Iosb<int>::basefield
PUBLIC	?digits@?$numeric_limits@K@std@@2HB		; std::numeric_limits<unsigned long>::digits
PUBLIC	?floatfield@?$_Iosb@H@std@@2W4_Fmtflags@12@B	; std::_Iosb<int>::floatfield
PUBLIC	?digits10@?$numeric_limits@K@std@@2HB		; std::numeric_limits<unsigned long>::digits10
PUBLIC	?goodbit@?$_Iosb@H@std@@2W4_Iostate@12@B	; std::_Iosb<int>::goodbit
PUBLIC	?eofbit@?$_Iosb@H@std@@2W4_Iostate@12@B		; std::_Iosb<int>::eofbit
PUBLIC	?failbit@?$_Iosb@H@std@@2W4_Iostate@12@B	; std::_Iosb<int>::failbit
PUBLIC	?badbit@?$_Iosb@H@std@@2W4_Iostate@12@B		; std::_Iosb<int>::badbit
PUBLIC	?_Hardfail@?$_Iosb@H@std@@2W4_Iostate@12@B	; std::_Iosb<int>::_Hardfail
PUBLIC	?in@?$_Iosb@H@std@@2W4_Openmode@12@B		; std::_Iosb<int>::in
PUBLIC	?out@?$_Iosb@H@std@@2W4_Openmode@12@B		; std::_Iosb<int>::out
PUBLIC	?ate@?$_Iosb@H@std@@2W4_Openmode@12@B		; std::_Iosb<int>::ate
PUBLIC	?app@?$_Iosb@H@std@@2W4_Openmode@12@B		; std::_Iosb<int>::app
PUBLIC	?is_signed@?$numeric_limits@_J@std@@2_NB	; std::numeric_limits<__int64>::is_signed
PUBLIC	?trunc@?$_Iosb@H@std@@2W4_Openmode@12@B		; std::_Iosb<int>::trunc
PUBLIC	?digits@?$numeric_limits@_J@std@@2HB		; std::numeric_limits<__int64>::digits
PUBLIC	?_Nocreate@?$_Iosb@H@std@@2W4_Openmode@12@B	; std::_Iosb<int>::_Nocreate
PUBLIC	?_Noreplace@?$_Iosb@H@std@@2W4_Openmode@12@B	; std::_Iosb<int>::_Noreplace
PUBLIC	?digits10@?$numeric_limits@_J@std@@2HB		; std::numeric_limits<__int64>::digits10
PUBLIC	?binary@?$_Iosb@H@std@@2W4_Openmode@12@B	; std::_Iosb<int>::binary
PUBLIC	?beg@?$_Iosb@H@std@@2W4_Seekdir@12@B		; std::_Iosb<int>::beg
PUBLIC	?cur@?$_Iosb@H@std@@2W4_Seekdir@12@B		; std::_Iosb<int>::cur
PUBLIC	?end@?$_Iosb@H@std@@2W4_Seekdir@12@B		; std::_Iosb<int>::end
PUBLIC	?is_signed@?$numeric_limits@_K@std@@2_NB	; std::numeric_limits<unsigned __int64>::is_signed
PUBLIC	?digits@?$numeric_limits@_K@std@@2HB		; std::numeric_limits<unsigned __int64>::digits
PUBLIC	?digits10@?$numeric_limits@_K@std@@2HB		; std::numeric_limits<unsigned __int64>::digits10
PUBLIC	?_Stream_err@failure@ios_base@std@@0W4io_errc@43@B ; std::ios_base::failure::_Stream_err
PUBLIC	?digits@?$numeric_limits@M@std@@2HB		; std::numeric_limits<float>::digits
PUBLIC	?digits10@?$numeric_limits@M@std@@2HB		; std::numeric_limits<float>::digits10
PUBLIC	?max_digits10@?$numeric_limits@M@std@@2HB	; std::numeric_limits<float>::max_digits10
PUBLIC	?max_exponent@?$numeric_limits@M@std@@2HB	; std::numeric_limits<float>::max_exponent
PUBLIC	?max_exponent10@?$numeric_limits@M@std@@2HB	; std::numeric_limits<float>::max_exponent10
PUBLIC	?min_exponent@?$numeric_limits@M@std@@2HB	; std::numeric_limits<float>::min_exponent
PUBLIC	?min_exponent10@?$numeric_limits@M@std@@2HB	; std::numeric_limits<float>::min_exponent10
PUBLIC	?value@?$integral_constant@I$0A@@std@@2IB	; std::integral_constant<unsigned int,0>::value
PUBLIC	?digits@?$numeric_limits@N@std@@2HB		; std::numeric_limits<double>::digits
PUBLIC	?digits10@?$numeric_limits@N@std@@2HB		; std::numeric_limits<double>::digits10
PUBLIC	?max_digits10@?$numeric_limits@N@std@@2HB	; std::numeric_limits<double>::max_digits10
PUBLIC	?max_exponent@?$numeric_limits@N@std@@2HB	; std::numeric_limits<double>::max_exponent
PUBLIC	?max_exponent10@?$numeric_limits@N@std@@2HB	; std::numeric_limits<double>::max_exponent10
PUBLIC	?min_exponent@?$numeric_limits@N@std@@2HB	; std::numeric_limits<double>::min_exponent
PUBLIC	?min_exponent10@?$numeric_limits@N@std@@2HB	; std::numeric_limits<double>::min_exponent10
PUBLIC	?cRangeSquaredGMScope@@3MA			; cRangeSquaredGMScope
PUBLIC	?digits@?$numeric_limits@O@std@@2HB		; std::numeric_limits<long double>::digits
PUBLIC	?digits10@?$numeric_limits@O@std@@2HB		; std::numeric_limits<long double>::digits10
PUBLIC	?max_digits10@?$numeric_limits@O@std@@2HB	; std::numeric_limits<long double>::max_digits10
PUBLIC	?max_exponent@?$numeric_limits@O@std@@2HB	; std::numeric_limits<long double>::max_exponent
PUBLIC	?max_exponent10@?$numeric_limits@O@std@@2HB	; std::numeric_limits<long double>::max_exponent10
PUBLIC	?min_exponent@?$numeric_limits@O@std@@2HB	; std::numeric_limits<long double>::min_exponent
PUBLIC	?min_exponent10@?$numeric_limits@O@std@@2HB	; std::numeric_limits<long double>::min_exponent10
PUBLIC	?value@?$_Sizeof@U_Nil@std@@U12@U12@U12@U12@U12@U12@U12@@std@@2IB ; std::_Sizeof<std::_Nil,std::_Nil,std::_Nil,std::_Nil,std::_Nil,std::_Nil,std::_Nil,std::_Nil>::value
PUBLIC	?collate@?$_Locbase@H@std@@2HB			; std::_Locbase<int>::collate
PUBLIC	?ctype@?$_Locbase@H@std@@2HB			; std::_Locbase<int>::ctype
PUBLIC	?monetary@?$_Locbase@H@std@@2HB			; std::_Locbase<int>::monetary
PUBLIC	?numeric@?$_Locbase@H@std@@2HB			; std::_Locbase<int>::numeric
PUBLIC	?time@?$_Locbase@H@std@@2HB			; std::_Locbase<int>::time
PUBLIC	?messages@?$_Locbase@H@std@@2HB			; std::_Locbase<int>::messages
PUBLIC	?all@?$_Locbase@H@std@@2HB			; std::_Locbase<int>::all
PUBLIC	?none@?$_Locbase@H@std@@2HB			; std::_Locbase<int>::none
PUBLIC	?has_denorm@_Num_base@std@@2W4float_denorm_style@2@B ; std::_Num_base::has_denorm
PUBLIC	?has_denorm_loss@_Num_base@std@@2_NB		; std::_Num_base::has_denorm_loss
PUBLIC	?has_infinity@_Num_base@std@@2_NB		; std::_Num_base::has_infinity
PUBLIC	?has_quiet_NaN@_Num_base@std@@2_NB		; std::_Num_base::has_quiet_NaN
PUBLIC	?has_signaling_NaN@_Num_base@std@@2_NB		; std::_Num_base::has_signaling_NaN
PUBLIC	?is_bounded@_Num_base@std@@2_NB			; std::_Num_base::is_bounded
PUBLIC	?is_exact@_Num_base@std@@2_NB			; std::_Num_base::is_exact
PUBLIC	?is_iec559@_Num_base@std@@2_NB			; std::_Num_base::is_iec559
PUBLIC	?is_integer@_Num_base@std@@2_NB			; std::_Num_base::is_integer
PUBLIC	?is_modulo@_Num_base@std@@2_NB			; std::_Num_base::is_modulo
PUBLIC	?is_signed@_Num_base@std@@2_NB			; std::_Num_base::is_signed
PUBLIC	?is_specialized@_Num_base@std@@2_NB		; std::_Num_base::is_specialized
PUBLIC	?tinyness_before@_Num_base@std@@2_NB		; std::_Num_base::tinyness_before
_BSS	SEGMENT
_viewOffsetRel DB 0cH DUP (?)
_viewOffsetInertial DB 0cH DUP (?)
_viewFrom DB	0cH DUP (?)
_headingForDisplay DD 01H DUP (?)
?cRangeSquaredGMScope@@3MA DD 01H DUP (?)		; cRangeSquaredGMScope
_BSS	ENDS
;	COMDAT ?tinyness_before@_Num_base@std@@2_NB
CONST	SEGMENT
?tinyness_before@_Num_base@std@@2_NB DB 00H		; std::_Num_base::tinyness_before
CONST	ENDS
_DATA	SEGMENT
_cloudPntList DD 0c5bcc000r			; -6040
	DD	0c4070000r			; -540
	DD	0c694ac00r			; -19030
	DD	0c6de1c00r			; -28430
	DD	0c4dfc000r			; -1790
	DD	046dcc800r			; 28260
	DD	047104200r			; 36930
	DD	045732000r			; 3890
	DD	04744ea00r			; 50410
	DD	045336000r			; 2870
	DD	0c4d48000r			; -1700
	DD	04736da00r			; 46810
	DD	0c763ee00r			; -58350
	DD	0c4d48000r			; -1700
	DD	0c64c1000r			; -13060
	DD	046f2bc00r			; 31070
	DD	045480000r			; 3200
	DD	0c7293800r			; -43320
	DD	0c7bdc400r			; -97160
	DD	0c4d48000r			; -1700
	DD	04576e000r			; 3950
	DD	0c792e000r			; -75200
	DD	0c4bb8000r			; -1500
	DD	047957400r			; 76520
	DD	04759ee00r			; 55790
	DD	0c5a1e000r			; -5180
	DD	0c7a24e00r			; -83100
	DD	0c7473800r			; -51000
	DD	0c3a00000r			; -320
	DD	0c7829100r			; -66850
	DD	047733400r			; 62260
	DD	0c3a00000r			; -320
	DD	047708200r			; 61570
	DD	0c7710e00r			; -61710
	DD	0c550c000r			; -3340
	DD	046fb7c00r			; 32190
	DD	0c7719a00r			; -61850
	DD	0c7483200r			; -51250
	DD	047543a00r			; 54330
	DD	0c5bcc000r			; -6040
	DD	0c7495400r			; -51540
	DD	0c694ac00r			; -19030
	DD	0c6a7a800r			; -21460
	DD	0c74b0200r			; -51970
	DD	0468e8000r			; 18240
	DD	047298800r			; 43400
	DD	0c74bf200r			; -52210
	DD	046bc7000r			; 24120
	DD	0c749f400r			; -51700
	DD	0c74bc000r			; -52160
	DD	046948400r			; 19010
	DD	0c605e800r			; -8570
	DD	0c7488200r			; -51330
	DD	0c74ca600r			; -52390
	DD	04731bc00r			; 45500
	DD	0c7509800r			; -53400
	DD	0c6725800r			; -15510
	DD	0c7719a00r			; -61850
	DD	0c7483200r			; -51250
	DD	047543a00r			; 54330
	DD	047553400r			; 54580
	DD	0c74ddc00r			; -52700
	DD	0479a5600r			; 79020
	DD	047a7e400r			; 85960
	DD	0c74c5600r			; -52310
	DD	0477d4800r			; 64840
	DD	0c7c44500r			; -100490
	DD	0c74d1400r			; -52500
	DD	047ac2600r			; 88140
	DD	0c7a1ae00r			; -82780
	DD	0c749ea00r			; -51690
	DD	0c7bce300r			; -96710
	DD	0c6126800r			; -9370
	DD	0c7495400r			; -51540
	DD	043cd0000r			; 410
	DD	0c6a7a800r			; -21460
	DD	0c74a8a00r			; -51850
	DD	0473fae00r			; 49070
	DD	0457c8000r			; 4040
	DD	0c74e4a00r			; -52810
	DD	047871e00r			; 69180
	DD	0c6cbc000r			; -26080
	DD	0c74bc000r			; -52160
	DD	046984400r			; 19490
	DD	0452fa000r			; 2810
	DD	0c7488200r			; -51330
	DD	0c7081800r			; -34840
	DD	0c7719a00r			; -61850
	DD	0c749d600r			; -51670
	DD	047b17600r			; 90860
	DD	047553400r			; 54580
	DD	0c74ddc00r			; -52700
	DD	0479a5600r			; 79020
	DD	047a7e400r			; 85960
	DD	0c74c5600r			; -52310
	DD	0477d4800r			; 64840
	DD	0c7c44500r			; -100490
	DD	0c74d1400r			; -52500
	DD	047ac2600r			; 88140
	DD	047c04e00r			; 98460
	DD	0c74d1400r			; -52500
	DD	0c732a200r			; -45730
	DD	0467b9000r			; 16100
	DD	0c7487800r			; -51320
	DD	0c749a400r			; -51620
	DD	047636c00r			; 58220
	DD	0c74e0400r			; -52740
	DD	0c760b000r			; -57520
	DD	0c6126800r			; -9370
	DD	0c4070000r			; -540
	DD	043cd0000r			; 410
	DD	0c4e60000r			; -1840
	DD	0c6a30c00r			; -20870
	DD	0470a6600r			; 35430
	DD	0c7230c00r			; -41740
	DD	046924000r			; 18720
	DD	04797d600r			; 77740
	DD	0460d9000r			; 9060
	DD	0c616c800r			; -9650
	DD	0c7921300r			; -74790
_lightningPosList DD 041300000r			; 11
	DD	000000000r			; 0
	DD	040e00000r			; 7
	DD	040a00000r			; 5
	DD	041100000r			; 9
	DD	041000000r			; 8
	DD	041000000r			; 8
	DD	041600000r			; 14
	DD	041800000r			; 16
	DD	041a00000r			; 20
	DD	041200000r			; 10
	DD	041c00000r			; 24
	DD	041300000r			; 11
	DD	041d80000r			; 27
	DD	040c00000r			; 6
	DD	041f00000r			; 30
	DD	040e00000r			; 7
	DD	042040000r			; 33
	DD	03f800000r			; 1
	DD	042180000r			; 38
	DD	040a00000r			; 5
	DD	042280000r			; 42
	DD	040a00000r			; 5
	DD	042340000r			; 45
	DD	041400000r			; 12
	DD	042400000r			; 48
	DD	041a00000r			; 20
	DD	042500000r			; 52
	DD	041a00000r			; 20
	DD	042680000r			; 58
	DD	041b80000r			; 23
	DD	042740000r			; 61
	DD	041b00000r			; 22
	DD	0427c0000r			; 63
	DD	041b00000r			; 22
	DD	042840000r			; 66
	DD	041c80000r			; 25
	DD	042880000r			; 68
	DD	041a00000r			; 20
	DD	0428c0000r			; 70
	DD	041c00000r			; 24
	DD	042960000r			; 75
	DD	041c00000r			; 24
	DD	0429a0000r			; 77
	DD	041f80000r			; 31
	DD	042a00000r			; 80
	DD	041f80000r			; 31
	DD	042a60000r			; 83
	DD	042040000r			; 33
	DD	042b00000r			; 88
	DD	041f80000r			; 31
	DD	042b80000r			; 92
	DD	0423c0000r			; 47
	DD	042ce0000r			; 103
	DD	042380000r			; 46
	DD	042d20000r			; 105
	DD	0423c0000r			; 47
	DD	042d60000r			; 107
	DD	042340000r			; 45
	DD	042e00000r			; 112
	DD	042400000r			; 48
	DD	042e40000r			; 114
	DD	042380000r			; 46
	DD	042ea0000r			; 117
	DD	0422c0000r			; 43
	DD	043000000r			; 128
_DATA	ENDS
;	COMDAT ?is_specialized@_Num_base@std@@2_NB
CONST	SEGMENT
?is_specialized@_Num_base@std@@2_NB DB 00H		; std::_Num_base::is_specialized
CONST	ENDS
;	COMDAT ?is_signed@_Num_base@std@@2_NB
CONST	SEGMENT
?is_signed@_Num_base@std@@2_NB DB 00H			; std::_Num_base::is_signed
CONST	ENDS
;	COMDAT ?is_modulo@_Num_base@std@@2_NB
CONST	SEGMENT
?is_modulo@_Num_base@std@@2_NB DB 00H			; std::_Num_base::is_modulo
CONST	ENDS
;	COMDAT ?is_integer@_Num_base@std@@2_NB
CONST	SEGMENT
?is_integer@_Num_base@std@@2_NB DB 00H			; std::_Num_base::is_integer
CONST	ENDS
;	COMDAT ?is_iec559@_Num_base@std@@2_NB
CONST	SEGMENT
?is_iec559@_Num_base@std@@2_NB DB 00H			; std::_Num_base::is_iec559
CONST	ENDS
;	COMDAT ?is_exact@_Num_base@std@@2_NB
CONST	SEGMENT
?is_exact@_Num_base@std@@2_NB DB 00H			; std::_Num_base::is_exact
CONST	ENDS
;	COMDAT ?is_bounded@_Num_base@std@@2_NB
CONST	SEGMENT
?is_bounded@_Num_base@std@@2_NB DB 00H			; std::_Num_base::is_bounded
CONST	ENDS
;	COMDAT ?has_signaling_NaN@_Num_base@std@@2_NB
CONST	SEGMENT
?has_signaling_NaN@_Num_base@std@@2_NB DB 00H		; std::_Num_base::has_signaling_NaN
CONST	ENDS
;	COMDAT ?has_quiet_NaN@_Num_base@std@@2_NB
CONST	SEGMENT
?has_quiet_NaN@_Num_base@std@@2_NB DB 00H		; std::_Num_base::has_quiet_NaN
CONST	ENDS
;	COMDAT ?has_infinity@_Num_base@std@@2_NB
CONST	SEGMENT
?has_infinity@_Num_base@std@@2_NB DB 00H		; std::_Num_base::has_infinity
CONST	ENDS
;	COMDAT ?has_denorm_loss@_Num_base@std@@2_NB
CONST	SEGMENT
?has_denorm_loss@_Num_base@std@@2_NB DB 00H		; std::_Num_base::has_denorm_loss
CONST	ENDS
;	COMDAT ?has_denorm@_Num_base@std@@2W4float_denorm_style@2@B
CONST	SEGMENT
?has_denorm@_Num_base@std@@2W4float_denorm_style@2@B DD 00H ; std::_Num_base::has_denorm
CONST	ENDS
;	COMDAT ?none@?$_Locbase@H@std@@2HB
CONST	SEGMENT
?none@?$_Locbase@H@std@@2HB DD 00H			; std::_Locbase<int>::none
CONST	ENDS
;	COMDAT ?all@?$_Locbase@H@std@@2HB
CONST	SEGMENT
?all@?$_Locbase@H@std@@2HB DD 03fH			; std::_Locbase<int>::all
CONST	ENDS
;	COMDAT ?messages@?$_Locbase@H@std@@2HB
CONST	SEGMENT
?messages@?$_Locbase@H@std@@2HB DD 020H			; std::_Locbase<int>::messages
CONST	ENDS
;	COMDAT ?time@?$_Locbase@H@std@@2HB
CONST	SEGMENT
?time@?$_Locbase@H@std@@2HB DD 010H			; std::_Locbase<int>::time
CONST	ENDS
;	COMDAT ?numeric@?$_Locbase@H@std@@2HB
CONST	SEGMENT
?numeric@?$_Locbase@H@std@@2HB DD 08H			; std::_Locbase<int>::numeric
CONST	ENDS
;	COMDAT ?monetary@?$_Locbase@H@std@@2HB
CONST	SEGMENT
?monetary@?$_Locbase@H@std@@2HB DD 04H			; std::_Locbase<int>::monetary
CONST	ENDS
;	COMDAT ?ctype@?$_Locbase@H@std@@2HB
CONST	SEGMENT
?ctype@?$_Locbase@H@std@@2HB DD 02H			; std::_Locbase<int>::ctype
CONST	ENDS
;	COMDAT ?collate@?$_Locbase@H@std@@2HB
CONST	SEGMENT
?collate@?$_Locbase@H@std@@2HB DD 01H			; std::_Locbase<int>::collate
CONST	ENDS
;	COMDAT ?value@?$_Sizeof@U_Nil@std@@U12@U12@U12@U12@U12@U12@U12@@std@@2IB
CONST	SEGMENT
?value@?$_Sizeof@U_Nil@std@@U12@U12@U12@U12@U12@U12@U12@@std@@2IB DD 00H ; std::_Sizeof<std::_Nil,std::_Nil,std::_Nil,std::_Nil,std::_Nil,std::_Nil,std::_Nil,std::_Nil>::value
CONST	ENDS
;	COMDAT ?min_exponent10@?$numeric_limits@O@std@@2HB
CONST	SEGMENT
?min_exponent10@?$numeric_limits@O@std@@2HB DD 0fffffecdH ; std::numeric_limits<long double>::min_exponent10
CONST	ENDS
;	COMDAT ?min_exponent@?$numeric_limits@O@std@@2HB
CONST	SEGMENT
?min_exponent@?$numeric_limits@O@std@@2HB DD 0fffffc03H	; std::numeric_limits<long double>::min_exponent
CONST	ENDS
;	COMDAT ?max_exponent10@?$numeric_limits@O@std@@2HB
CONST	SEGMENT
?max_exponent10@?$numeric_limits@O@std@@2HB DD 0134H	; std::numeric_limits<long double>::max_exponent10
CONST	ENDS
;	COMDAT ?max_exponent@?$numeric_limits@O@std@@2HB
CONST	SEGMENT
?max_exponent@?$numeric_limits@O@std@@2HB DD 0400H	; std::numeric_limits<long double>::max_exponent
CONST	ENDS
;	COMDAT ?max_digits10@?$numeric_limits@O@std@@2HB
CONST	SEGMENT
?max_digits10@?$numeric_limits@O@std@@2HB DD 011H	; std::numeric_limits<long double>::max_digits10
CONST	ENDS
;	COMDAT ?digits10@?$numeric_limits@O@std@@2HB
CONST	SEGMENT
?digits10@?$numeric_limits@O@std@@2HB DD 0fH		; std::numeric_limits<long double>::digits10
CONST	ENDS
;	COMDAT ?digits@?$numeric_limits@O@std@@2HB
CONST	SEGMENT
?digits@?$numeric_limits@O@std@@2HB DD 035H		; std::numeric_limits<long double>::digits
CONST	ENDS
;	COMDAT ?min_exponent10@?$numeric_limits@N@std@@2HB
CONST	SEGMENT
?min_exponent10@?$numeric_limits@N@std@@2HB DD 0fffffecdH ; std::numeric_limits<double>::min_exponent10
CONST	ENDS
;	COMDAT ?min_exponent@?$numeric_limits@N@std@@2HB
CONST	SEGMENT
?min_exponent@?$numeric_limits@N@std@@2HB DD 0fffffc03H	; std::numeric_limits<double>::min_exponent
CONST	ENDS
;	COMDAT ?max_exponent10@?$numeric_limits@N@std@@2HB
CONST	SEGMENT
?max_exponent10@?$numeric_limits@N@std@@2HB DD 0134H	; std::numeric_limits<double>::max_exponent10
CONST	ENDS
;	COMDAT ?max_exponent@?$numeric_limits@N@std@@2HB
CONST	SEGMENT
?max_exponent@?$numeric_limits@N@std@@2HB DD 0400H	; std::numeric_limits<double>::max_exponent
CONST	ENDS
;	COMDAT ?max_digits10@?$numeric_limits@N@std@@2HB
CONST	SEGMENT
?max_digits10@?$numeric_limits@N@std@@2HB DD 011H	; std::numeric_limits<double>::max_digits10
CONST	ENDS
;	COMDAT ?digits10@?$numeric_limits@N@std@@2HB
CONST	SEGMENT
?digits10@?$numeric_limits@N@std@@2HB DD 0fH		; std::numeric_limits<double>::digits10
CONST	ENDS
;	COMDAT ?digits@?$numeric_limits@N@std@@2HB
CONST	SEGMENT
?digits@?$numeric_limits@N@std@@2HB DD 035H		; std::numeric_limits<double>::digits
CONST	ENDS
;	COMDAT ?value@?$integral_constant@I$0A@@std@@2IB
CONST	SEGMENT
?value@?$integral_constant@I$0A@@std@@2IB DD 00H	; std::integral_constant<unsigned int,0>::value
CONST	ENDS
;	COMDAT ?min_exponent10@?$numeric_limits@M@std@@2HB
CONST	SEGMENT
?min_exponent10@?$numeric_limits@M@std@@2HB DD 0ffffffdbH ; std::numeric_limits<float>::min_exponent10
CONST	ENDS
;	COMDAT ?min_exponent@?$numeric_limits@M@std@@2HB
CONST	SEGMENT
?min_exponent@?$numeric_limits@M@std@@2HB DD 0ffffff83H	; std::numeric_limits<float>::min_exponent
CONST	ENDS
;	COMDAT ?max_exponent10@?$numeric_limits@M@std@@2HB
CONST	SEGMENT
?max_exponent10@?$numeric_limits@M@std@@2HB DD 026H	; std::numeric_limits<float>::max_exponent10
CONST	ENDS
;	COMDAT ?max_exponent@?$numeric_limits@M@std@@2HB
CONST	SEGMENT
?max_exponent@?$numeric_limits@M@std@@2HB DD 080H	; std::numeric_limits<float>::max_exponent
CONST	ENDS
;	COMDAT ?max_digits10@?$numeric_limits@M@std@@2HB
CONST	SEGMENT
?max_digits10@?$numeric_limits@M@std@@2HB DD 09H	; std::numeric_limits<float>::max_digits10
CONST	ENDS
;	COMDAT ?digits10@?$numeric_limits@M@std@@2HB
CONST	SEGMENT
?digits10@?$numeric_limits@M@std@@2HB DD 06H		; std::numeric_limits<float>::digits10
CONST	ENDS
;	COMDAT ?digits@?$numeric_limits@M@std@@2HB
CONST	SEGMENT
?digits@?$numeric_limits@M@std@@2HB DD 018H		; std::numeric_limits<float>::digits
CONST	ENDS
;	COMDAT ?_Stream_err@failure@ios_base@std@@0W4io_errc@43@B
CONST	SEGMENT
?_Stream_err@failure@ios_base@std@@0W4io_errc@43@B DD 01H ; std::ios_base::failure::_Stream_err
CONST	ENDS
;	COMDAT ?digits10@?$numeric_limits@_K@std@@2HB
CONST	SEGMENT
?digits10@?$numeric_limits@_K@std@@2HB DD 013H		; std::numeric_limits<unsigned __int64>::digits10
CONST	ENDS
;	COMDAT ?digits@?$numeric_limits@_K@std@@2HB
CONST	SEGMENT
?digits@?$numeric_limits@_K@std@@2HB DD 040H		; std::numeric_limits<unsigned __int64>::digits
CONST	ENDS
;	COMDAT ?is_signed@?$numeric_limits@_K@std@@2_NB
CONST	SEGMENT
?is_signed@?$numeric_limits@_K@std@@2_NB DB 00H		; std::numeric_limits<unsigned __int64>::is_signed
CONST	ENDS
;	COMDAT ?end@?$_Iosb@H@std@@2W4_Seekdir@12@B
CONST	SEGMENT
?end@?$_Iosb@H@std@@2W4_Seekdir@12@B DD 02H		; std::_Iosb<int>::end
CONST	ENDS
;	COMDAT ?cur@?$_Iosb@H@std@@2W4_Seekdir@12@B
CONST	SEGMENT
?cur@?$_Iosb@H@std@@2W4_Seekdir@12@B DD 01H		; std::_Iosb<int>::cur
CONST	ENDS
;	COMDAT ?beg@?$_Iosb@H@std@@2W4_Seekdir@12@B
CONST	SEGMENT
?beg@?$_Iosb@H@std@@2W4_Seekdir@12@B DD 00H		; std::_Iosb<int>::beg
CONST	ENDS
;	COMDAT ?binary@?$_Iosb@H@std@@2W4_Openmode@12@B
CONST	SEGMENT
?binary@?$_Iosb@H@std@@2W4_Openmode@12@B DD 020H	; std::_Iosb<int>::binary
CONST	ENDS
;	COMDAT ?digits10@?$numeric_limits@_J@std@@2HB
CONST	SEGMENT
?digits10@?$numeric_limits@_J@std@@2HB DD 012H		; std::numeric_limits<__int64>::digits10
CONST	ENDS
;	COMDAT ?_Noreplace@?$_Iosb@H@std@@2W4_Openmode@12@B
CONST	SEGMENT
?_Noreplace@?$_Iosb@H@std@@2W4_Openmode@12@B DD 080H	; std::_Iosb<int>::_Noreplace
CONST	ENDS
;	COMDAT ?_Nocreate@?$_Iosb@H@std@@2W4_Openmode@12@B
CONST	SEGMENT
?_Nocreate@?$_Iosb@H@std@@2W4_Openmode@12@B DD 040H	; std::_Iosb<int>::_Nocreate
CONST	ENDS
;	COMDAT ?digits@?$numeric_limits@_J@std@@2HB
CONST	SEGMENT
?digits@?$numeric_limits@_J@std@@2HB DD 03fH		; std::numeric_limits<__int64>::digits
CONST	ENDS
;	COMDAT ?trunc@?$_Iosb@H@std@@2W4_Openmode@12@B
CONST	SEGMENT
?trunc@?$_Iosb@H@std@@2W4_Openmode@12@B DD 010H		; std::_Iosb<int>::trunc
CONST	ENDS
;	COMDAT ?is_signed@?$numeric_limits@_J@std@@2_NB
CONST	SEGMENT
?is_signed@?$numeric_limits@_J@std@@2_NB DB 01H		; std::numeric_limits<__int64>::is_signed
CONST	ENDS
;	COMDAT ?app@?$_Iosb@H@std@@2W4_Openmode@12@B
CONST	SEGMENT
?app@?$_Iosb@H@std@@2W4_Openmode@12@B DD 08H		; std::_Iosb<int>::app
CONST	ENDS
;	COMDAT ?ate@?$_Iosb@H@std@@2W4_Openmode@12@B
CONST	SEGMENT
?ate@?$_Iosb@H@std@@2W4_Openmode@12@B DD 04H		; std::_Iosb<int>::ate
CONST	ENDS
;	COMDAT ?out@?$_Iosb@H@std@@2W4_Openmode@12@B
CONST	SEGMENT
?out@?$_Iosb@H@std@@2W4_Openmode@12@B DD 02H		; std::_Iosb<int>::out
CONST	ENDS
;	COMDAT ?in@?$_Iosb@H@std@@2W4_Openmode@12@B
CONST	SEGMENT
?in@?$_Iosb@H@std@@2W4_Openmode@12@B DD 01H		; std::_Iosb<int>::in
CONST	ENDS
;	COMDAT ?_Hardfail@?$_Iosb@H@std@@2W4_Iostate@12@B
CONST	SEGMENT
?_Hardfail@?$_Iosb@H@std@@2W4_Iostate@12@B DD 010H	; std::_Iosb<int>::_Hardfail
CONST	ENDS
;	COMDAT ?badbit@?$_Iosb@H@std@@2W4_Iostate@12@B
CONST	SEGMENT
?badbit@?$_Iosb@H@std@@2W4_Iostate@12@B DD 04H		; std::_Iosb<int>::badbit
CONST	ENDS
;	COMDAT ?failbit@?$_Iosb@H@std@@2W4_Iostate@12@B
CONST	SEGMENT
?failbit@?$_Iosb@H@std@@2W4_Iostate@12@B DD 02H		; std::_Iosb<int>::failbit
CONST	ENDS
;	COMDAT ?eofbit@?$_Iosb@H@std@@2W4_Iostate@12@B
CONST	SEGMENT
?eofbit@?$_Iosb@H@std@@2W4_Iostate@12@B DD 01H		; std::_Iosb<int>::eofbit
CONST	ENDS
;	COMDAT ?goodbit@?$_Iosb@H@std@@2W4_Iostate@12@B
CONST	SEGMENT
?goodbit@?$_Iosb@H@std@@2W4_Iostate@12@B DD 00H		; std::_Iosb<int>::goodbit
CONST	ENDS
;	COMDAT ?digits10@?$numeric_limits@K@std@@2HB
CONST	SEGMENT
?digits10@?$numeric_limits@K@std@@2HB DD 09H		; std::numeric_limits<unsigned long>::digits10
CONST	ENDS
;	COMDAT ?floatfield@?$_Iosb@H@std@@2W4_Fmtflags@12@B
CONST	SEGMENT
?floatfield@?$_Iosb@H@std@@2W4_Fmtflags@12@B DD 03000H	; std::_Iosb<int>::floatfield
CONST	ENDS
;	COMDAT ?digits@?$numeric_limits@K@std@@2HB
CONST	SEGMENT
?digits@?$numeric_limits@K@std@@2HB DD 020H		; std::numeric_limits<unsigned long>::digits
CONST	ENDS
;	COMDAT ?basefield@?$_Iosb@H@std@@2W4_Fmtflags@12@B
CONST	SEGMENT
?basefield@?$_Iosb@H@std@@2W4_Fmtflags@12@B DD 0e00H	; std::_Iosb<int>::basefield
CONST	ENDS
;	COMDAT ?is_signed@?$numeric_limits@K@std@@2_NB
CONST	SEGMENT
?is_signed@?$numeric_limits@K@std@@2_NB DB 00H		; std::numeric_limits<unsigned long>::is_signed
CONST	ENDS
;	COMDAT ?adjustfield@?$_Iosb@H@std@@2W4_Fmtflags@12@B
CONST	SEGMENT
?adjustfield@?$_Iosb@H@std@@2W4_Fmtflags@12@B DD 01c0H	; std::_Iosb<int>::adjustfield
CONST	ENDS
;	COMDAT ?_Stdio@?$_Iosb@H@std@@2W4_Fmtflags@12@B
CONST	SEGMENT
?_Stdio@?$_Iosb@H@std@@2W4_Fmtflags@12@B DD 08000H	; std::_Iosb<int>::_Stdio
CONST	ENDS
;	COMDAT ?boolalpha@?$_Iosb@H@std@@2W4_Fmtflags@12@B
CONST	SEGMENT
?boolalpha@?$_Iosb@H@std@@2W4_Fmtflags@12@B DD 04000H	; std::_Iosb<int>::boolalpha
CONST	ENDS
;	COMDAT ?hexfloat@?$_Iosb@H@std@@2W4_Fmtflags@12@B
CONST	SEGMENT
?hexfloat@?$_Iosb@H@std@@2W4_Fmtflags@12@B DD 03000H	; std::_Iosb<int>::hexfloat
CONST	ENDS
;	COMDAT ?fixed@?$_Iosb@H@std@@2W4_Fmtflags@12@B
CONST	SEGMENT
?fixed@?$_Iosb@H@std@@2W4_Fmtflags@12@B DD 02000H	; std::_Iosb<int>::fixed
CONST	ENDS
;	COMDAT ?scientific@?$_Iosb@H@std@@2W4_Fmtflags@12@B
CONST	SEGMENT
?scientific@?$_Iosb@H@std@@2W4_Fmtflags@12@B DD 01000H	; std::_Iosb<int>::scientific
CONST	ENDS
;	COMDAT ?hex@?$_Iosb@H@std@@2W4_Fmtflags@12@B
CONST	SEGMENT
?hex@?$_Iosb@H@std@@2W4_Fmtflags@12@B DD 0800H		; std::_Iosb<int>::hex
CONST	ENDS
;	COMDAT ?oct@?$_Iosb@H@std@@2W4_Fmtflags@12@B
CONST	SEGMENT
?oct@?$_Iosb@H@std@@2W4_Fmtflags@12@B DD 0400H		; std::_Iosb<int>::oct
CONST	ENDS
;	COMDAT ?dec@?$_Iosb@H@std@@2W4_Fmtflags@12@B
CONST	SEGMENT
?dec@?$_Iosb@H@std@@2W4_Fmtflags@12@B DD 0200H		; std::_Iosb<int>::dec
CONST	ENDS
;	COMDAT ?internal@?$_Iosb@H@std@@2W4_Fmtflags@12@B
CONST	SEGMENT
?internal@?$_Iosb@H@std@@2W4_Fmtflags@12@B DD 0100H	; std::_Iosb<int>::internal
CONST	ENDS
;	COMDAT ?digits10@?$numeric_limits@J@std@@2HB
CONST	SEGMENT
?digits10@?$numeric_limits@J@std@@2HB DD 09H		; std::numeric_limits<long>::digits10
CONST	ENDS
;	COMDAT ?right@?$_Iosb@H@std@@2W4_Fmtflags@12@B
CONST	SEGMENT
?right@?$_Iosb@H@std@@2W4_Fmtflags@12@B DD 080H		; std::_Iosb<int>::right
CONST	ENDS
;	COMDAT ?left@?$_Iosb@H@std@@2W4_Fmtflags@12@B
CONST	SEGMENT
?left@?$_Iosb@H@std@@2W4_Fmtflags@12@B DD 040H		; std::_Iosb<int>::left
CONST	ENDS
;	COMDAT ?digits@?$numeric_limits@J@std@@2HB
CONST	SEGMENT
?digits@?$numeric_limits@J@std@@2HB DD 01fH		; std::numeric_limits<long>::digits
CONST	ENDS
;	COMDAT ?showpos@?$_Iosb@H@std@@2W4_Fmtflags@12@B
CONST	SEGMENT
?showpos@?$_Iosb@H@std@@2W4_Fmtflags@12@B DD 020H	; std::_Iosb<int>::showpos
CONST	ENDS
;	COMDAT ?is_signed@?$numeric_limits@J@std@@2_NB
CONST	SEGMENT
?is_signed@?$numeric_limits@J@std@@2_NB DB 01H		; std::numeric_limits<long>::is_signed
CONST	ENDS
;	COMDAT ?showpoint@?$_Iosb@H@std@@2W4_Fmtflags@12@B
CONST	SEGMENT
?showpoint@?$_Iosb@H@std@@2W4_Fmtflags@12@B DD 010H	; std::_Iosb<int>::showpoint
CONST	ENDS
;	COMDAT ?showbase@?$_Iosb@H@std@@2W4_Fmtflags@12@B
CONST	SEGMENT
?showbase@?$_Iosb@H@std@@2W4_Fmtflags@12@B DD 08H	; std::_Iosb<int>::showbase
CONST	ENDS
;	COMDAT ?uppercase@?$_Iosb@H@std@@2W4_Fmtflags@12@B
CONST	SEGMENT
?uppercase@?$_Iosb@H@std@@2W4_Fmtflags@12@B DD 04H	; std::_Iosb<int>::uppercase
CONST	ENDS
;	COMDAT ?unitbuf@?$_Iosb@H@std@@2W4_Fmtflags@12@B
CONST	SEGMENT
?unitbuf@?$_Iosb@H@std@@2W4_Fmtflags@12@B DD 02H	; std::_Iosb<int>::unitbuf
CONST	ENDS
;	COMDAT ?skipws@?$_Iosb@H@std@@2W4_Fmtflags@12@B
CONST	SEGMENT
?skipws@?$_Iosb@H@std@@2W4_Fmtflags@12@B DD 01H		; std::_Iosb<int>::skipws
CONST	ENDS
;	COMDAT ?digits10@?$numeric_limits@I@std@@2HB
CONST	SEGMENT
?digits10@?$numeric_limits@I@std@@2HB DD 09H		; std::numeric_limits<unsigned int>::digits10
CONST	ENDS
;	COMDAT ?digits@?$numeric_limits@I@std@@2HB
CONST	SEGMENT
?digits@?$numeric_limits@I@std@@2HB DD 020H		; std::numeric_limits<unsigned int>::digits
CONST	ENDS
;	COMDAT ?is_signed@?$numeric_limits@I@std@@2_NB
CONST	SEGMENT
?is_signed@?$numeric_limits@I@std@@2_NB DB 00H		; std::numeric_limits<unsigned int>::is_signed
CONST	ENDS
;	COMDAT ?digits10@?$numeric_limits@H@std@@2HB
CONST	SEGMENT
?digits10@?$numeric_limits@H@std@@2HB DD 09H		; std::numeric_limits<int>::digits10
CONST	ENDS
;	COMDAT ?digits@?$numeric_limits@H@std@@2HB
CONST	SEGMENT
?digits@?$numeric_limits@H@std@@2HB DD 01fH		; std::numeric_limits<int>::digits
CONST	ENDS
;	COMDAT ?value@?$_Sizeof@HU_Nil@std@@U12@U12@U12@U12@U12@U12@@std@@2IB
CONST	SEGMENT
?value@?$_Sizeof@HU_Nil@std@@U12@U12@U12@U12@U12@U12@@std@@2IB DD 01H ; std::_Sizeof<int,std::_Nil,std::_Nil,std::_Nil,std::_Nil,std::_Nil,std::_Nil,std::_Nil>::value
CONST	ENDS
;	COMDAT ?is_signed@?$numeric_limits@H@std@@2_NB
CONST	SEGMENT
?is_signed@?$numeric_limits@H@std@@2_NB DB 01H		; std::numeric_limits<int>::is_signed
CONST	ENDS
;	COMDAT ?digits10@?$numeric_limits@G@std@@2HB
CONST	SEGMENT
?digits10@?$numeric_limits@G@std@@2HB DD 04H		; std::numeric_limits<unsigned short>::digits10
CONST	ENDS
;	COMDAT ?digits@?$numeric_limits@G@std@@2HB
CONST	SEGMENT
?digits@?$numeric_limits@G@std@@2HB DD 010H		; std::numeric_limits<unsigned short>::digits
CONST	ENDS
;	COMDAT ?is_signed@?$numeric_limits@G@std@@2_NB
CONST	SEGMENT
?is_signed@?$numeric_limits@G@std@@2_NB DB 00H		; std::numeric_limits<unsigned short>::is_signed
CONST	ENDS
;	COMDAT ?digits10@?$numeric_limits@F@std@@2HB
CONST	SEGMENT
?digits10@?$numeric_limits@F@std@@2HB DD 04H		; std::numeric_limits<short>::digits10
CONST	ENDS
;	COMDAT ?digits@?$numeric_limits@F@std@@2HB
CONST	SEGMENT
?digits@?$numeric_limits@F@std@@2HB DD 0fH		; std::numeric_limits<short>::digits
CONST	ENDS
;	COMDAT ?is_signed@?$numeric_limits@F@std@@2_NB
CONST	SEGMENT
?is_signed@?$numeric_limits@F@std@@2_NB DB 01H		; std::numeric_limits<short>::is_signed
CONST	ENDS
;	COMDAT ?value@?$integral_constant@_N$00@std@@2_NB
CONST	SEGMENT
?value@?$integral_constant@_N$00@std@@2_NB DB 01H	; std::integral_constant<bool,1>::value
CONST	ENDS
;	COMDAT ?digits10@?$numeric_limits@E@std@@2HB
CONST	SEGMENT
?digits10@?$numeric_limits@E@std@@2HB DD 02H		; std::numeric_limits<unsigned char>::digits10
CONST	ENDS
;	COMDAT ?digits@?$numeric_limits@E@std@@2HB
CONST	SEGMENT
?digits@?$numeric_limits@E@std@@2HB DD 08H		; std::numeric_limits<unsigned char>::digits
CONST	ENDS
;	COMDAT ?value@?$integral_constant@_N$0A@@std@@2_NB
CONST	SEGMENT
?value@?$integral_constant@_N$0A@@std@@2_NB DB 00H	; std::integral_constant<bool,0>::value
CONST	ENDS
;	COMDAT ?is_signed@?$numeric_limits@E@std@@2_NB
CONST	SEGMENT
?is_signed@?$numeric_limits@E@std@@2_NB DB 00H		; std::numeric_limits<unsigned char>::is_signed
CONST	ENDS
;	COMDAT ?digits10@?$numeric_limits@C@std@@2HB
CONST	SEGMENT
?digits10@?$numeric_limits@C@std@@2HB DD 02H		; std::numeric_limits<signed char>::digits10
CONST	ENDS
;	COMDAT ?digits@?$numeric_limits@C@std@@2HB
CONST	SEGMENT
?digits@?$numeric_limits@C@std@@2HB DD 07H		; std::numeric_limits<signed char>::digits
CONST	ENDS
;	COMDAT ?is_signed@?$numeric_limits@C@std@@2_NB
CONST	SEGMENT
?is_signed@?$numeric_limits@C@std@@2_NB DB 01H		; std::numeric_limits<signed char>::is_signed
CONST	ENDS
;	COMDAT ?digits10@?$numeric_limits@_N@std@@2HB
CONST	SEGMENT
?digits10@?$numeric_limits@_N@std@@2HB DD 00H		; std::numeric_limits<bool>::digits10
CONST	ENDS
;	COMDAT ?digits@?$numeric_limits@_N@std@@2HB
CONST	SEGMENT
?digits@?$numeric_limits@_N@std@@2HB DD 01H		; std::numeric_limits<bool>::digits
CONST	ENDS
;	COMDAT ?is_signed@?$numeric_limits@_N@std@@2_NB
CONST	SEGMENT
?is_signed@?$numeric_limits@_N@std@@2_NB DB 00H		; std::numeric_limits<bool>::is_signed
CONST	ENDS
;	COMDAT ?is_modulo@?$numeric_limits@_N@std@@2_NB
CONST	SEGMENT
?is_modulo@?$numeric_limits@_N@std@@2_NB DB 00H		; std::numeric_limits<bool>::is_modulo
CONST	ENDS
;	COMDAT ?digits10@?$numeric_limits@_W@std@@2HB
CONST	SEGMENT
?digits10@?$numeric_limits@_W@std@@2HB DD 04H		; std::numeric_limits<wchar_t>::digits10
CONST	ENDS
;	COMDAT ?digits@?$numeric_limits@_W@std@@2HB
CONST	SEGMENT
?digits@?$numeric_limits@_W@std@@2HB DD 010H		; std::numeric_limits<wchar_t>::digits
CONST	ENDS
;	COMDAT ?is_signed@?$numeric_limits@_W@std@@2_NB
CONST	SEGMENT
?is_signed@?$numeric_limits@_W@std@@2_NB DB 00H		; std::numeric_limits<wchar_t>::is_signed
CONST	ENDS
;	COMDAT ?digits10@?$numeric_limits@D@std@@2HB
CONST	SEGMENT
?digits10@?$numeric_limits@D@std@@2HB DD 02H		; std::numeric_limits<char>::digits10
CONST	ENDS
;	COMDAT ?digits@?$numeric_limits@D@std@@2HB
CONST	SEGMENT
?digits@?$numeric_limits@D@std@@2HB DD 07H		; std::numeric_limits<char>::digits
CONST	ENDS
;	COMDAT ?is_signed@?$numeric_limits@D@std@@2_NB
CONST	SEGMENT
?is_signed@?$numeric_limits@D@std@@2_NB DB 01H		; std::numeric_limits<char>::is_signed
CONST	ENDS
;	COMDAT ?radix@_Num_float_base@std@@2HB
CONST	SEGMENT
?radix@_Num_float_base@std@@2HB DD 02H			; std::_Num_float_base::radix
CONST	ENDS
;	COMDAT ?round_style@_Num_float_base@std@@2W4float_round_style@2@B
CONST	SEGMENT
?round_style@_Num_float_base@std@@2W4float_round_style@2@B DD 01H ; std::_Num_float_base::round_style
CONST	ENDS
;	COMDAT ?traps@_Num_float_base@std@@2_NB
CONST	SEGMENT
?traps@_Num_float_base@std@@2_NB DB 00H			; std::_Num_float_base::traps
CONST	ENDS
;	COMDAT ?tinyness_before@_Num_float_base@std@@2_NB
CONST	SEGMENT
?tinyness_before@_Num_float_base@std@@2_NB DB 01H	; std::_Num_float_base::tinyness_before
CONST	ENDS
;	COMDAT ?is_specialized@_Num_float_base@std@@2_NB
CONST	SEGMENT
?is_specialized@_Num_float_base@std@@2_NB DB 01H	; std::_Num_float_base::is_specialized
CONST	ENDS
;	COMDAT ?is_signed@_Num_float_base@std@@2_NB
CONST	SEGMENT
?is_signed@_Num_float_base@std@@2_NB DB 01H		; std::_Num_float_base::is_signed
CONST	ENDS
;	COMDAT ?is_modulo@_Num_float_base@std@@2_NB
CONST	SEGMENT
?is_modulo@_Num_float_base@std@@2_NB DB 00H		; std::_Num_float_base::is_modulo
CONST	ENDS
;	COMDAT ?is_integer@_Num_float_base@std@@2_NB
CONST	SEGMENT
?is_integer@_Num_float_base@std@@2_NB DB 00H		; std::_Num_float_base::is_integer
CONST	ENDS
;	COMDAT ?is_iec559@_Num_float_base@std@@2_NB
CONST	SEGMENT
?is_iec559@_Num_float_base@std@@2_NB DB 01H		; std::_Num_float_base::is_iec559
CONST	ENDS
;	COMDAT ?is_exact@_Num_float_base@std@@2_NB
CONST	SEGMENT
?is_exact@_Num_float_base@std@@2_NB DB 00H		; std::_Num_float_base::is_exact
CONST	ENDS
;	COMDAT ?is_bounded@_Num_float_base@std@@2_NB
CONST	SEGMENT
?is_bounded@_Num_float_base@std@@2_NB DB 01H		; std::_Num_float_base::is_bounded
CONST	ENDS
;	COMDAT ?has_signaling_NaN@_Num_float_base@std@@2_NB
CONST	SEGMENT
?has_signaling_NaN@_Num_float_base@std@@2_NB DB 01H	; std::_Num_float_base::has_signaling_NaN
CONST	ENDS
;	COMDAT ?has_quiet_NaN@_Num_float_base@std@@2_NB
CONST	SEGMENT
?has_quiet_NaN@_Num_float_base@std@@2_NB DB 01H		; std::_Num_float_base::has_quiet_NaN
CONST	ENDS
;	COMDAT ?has_infinity@_Num_float_base@std@@2_NB
CONST	SEGMENT
?has_infinity@_Num_float_base@std@@2_NB DB 01H		; std::_Num_float_base::has_infinity
CONST	ENDS
;	COMDAT ?CMPDIRTYDATA_INTERVAL@FalconEntity@@2KB
CONST	SEGMENT
?CMPDIRTYDATA_INTERVAL@FalconEntity@@2KB DD 0c8H	; FalconEntity::CMPDIRTYDATA_INTERVAL
CONST	ENDS
;	COMDAT ?SIMDIRTYDATA_INTERVAL@FalconEntity@@2KB
CONST	SEGMENT
?SIMDIRTYDATA_INTERVAL@FalconEntity@@2KB DD 0c8H	; FalconEntity::SIMDIRTYDATA_INTERVAL
CONST	ENDS
;	COMDAT ?has_denorm_loss@_Num_float_base@std@@2_NB
CONST	SEGMENT
?has_denorm_loss@_Num_float_base@std@@2_NB DB 01H	; std::_Num_float_base::has_denorm_loss
CONST	ENDS
;	COMDAT ?has_denorm@_Num_float_base@std@@2W4float_denorm_style@2@B
CONST	SEGMENT
?has_denorm@_Num_float_base@std@@2W4float_denorm_style@2@B DD 01H ; std::_Num_float_base::has_denorm
CONST	ENDS
;	COMDAT ?radix@_Num_int_base@std@@2HB
CONST	SEGMENT
?radix@_Num_int_base@std@@2HB DD 02H			; std::_Num_int_base::radix
CONST	ENDS
;	COMDAT ?is_specialized@_Num_int_base@std@@2_NB
CONST	SEGMENT
?is_specialized@_Num_int_base@std@@2_NB DB 01H		; std::_Num_int_base::is_specialized
CONST	ENDS
CONST	SEGMENT
_NEAR_CLIP DD	03f800000r			; 1
_L_2	DD	03f317218r			; 0.693147
_GM_OVERSCAN DD	03e4ccccdr			; 0.2
_DisplayAreaViewTop DD 03f400000r		; 0.75
_DisplayAreaViewBottom DD 0bf2e147br		; -0.68
_DisplayAreaViewLeft DD 0bf4ccccdr		; -0.8
_DisplayAreaViewRight DD 03f3851ecr		; 0.72
_RADAR_CONE_ANGLE DD 03f80adfdr			; 1.00531
CONST	ENDS
;	COMDAT ?is_modulo@_Num_int_base@std@@2_NB
CONST	SEGMENT
?is_modulo@_Num_int_base@std@@2_NB DB 01H		; std::_Num_int_base::is_modulo
CONST	ENDS
;	COMDAT ?is_integer@_Num_int_base@std@@2_NB
CONST	SEGMENT
?is_integer@_Num_int_base@std@@2_NB DB 01H		; std::_Num_int_base::is_integer
CONST	ENDS
;	COMDAT ?is_exact@_Num_int_base@std@@2_NB
CONST	SEGMENT
?is_exact@_Num_int_base@std@@2_NB DB 01H		; std::_Num_int_base::is_exact
CONST	ENDS
;	COMDAT ?is_bounded@_Num_int_base@std@@2_NB
CONST	SEGMENT
?is_bounded@_Num_int_base@std@@2_NB DB 01H		; std::_Num_int_base::is_bounded
CONST	ENDS
;	COMDAT ?radix@_Num_base@std@@2HB
CONST	SEGMENT
?radix@_Num_base@std@@2HB DD 00H			; std::_Num_base::radix
CONST	ENDS
;	COMDAT ?min_exponent10@_Num_base@std@@2HB
CONST	SEGMENT
?min_exponent10@_Num_base@std@@2HB DD 00H		; std::_Num_base::min_exponent10
CONST	ENDS
;	COMDAT ?min_exponent@_Num_base@std@@2HB
CONST	SEGMENT
?min_exponent@_Num_base@std@@2HB DD 00H			; std::_Num_base::min_exponent
CONST	ENDS
;	COMDAT ?max_exponent10@_Num_base@std@@2HB
CONST	SEGMENT
?max_exponent10@_Num_base@std@@2HB DD 00H		; std::_Num_base::max_exponent10
CONST	ENDS
;	COMDAT ?max_exponent@_Num_base@std@@2HB
CONST	SEGMENT
?max_exponent@_Num_base@std@@2HB DD 00H			; std::_Num_base::max_exponent
CONST	ENDS
;	COMDAT ?max_digits10@_Num_base@std@@2HB
CONST	SEGMENT
?max_digits10@_Num_base@std@@2HB DD 00H			; std::_Num_base::max_digits10
CONST	ENDS
;	COMDAT ?digits10@_Num_base@std@@2HB
CONST	SEGMENT
?digits10@_Num_base@std@@2HB DD 00H			; std::_Num_base::digits10
CONST	ENDS
;	COMDAT ?table_size@?$ctype@D@std@@2IB
CONST	SEGMENT
?table_size@?$ctype@D@std@@2IB DD 0100H			; std::ctype<char>::table_size
CONST	ENDS
;	COMDAT ?digits@_Num_base@std@@2HB
CONST	SEGMENT
?digits@_Num_base@std@@2HB DD 00H			; std::_Num_base::digits
CONST	ENDS
;	COMDAT ?round_style@_Num_base@std@@2W4float_round_style@2@B
CONST	SEGMENT
?round_style@_Num_base@std@@2W4float_round_style@2@B DD 00H ; std::_Num_base::round_style
CONST	ENDS
;	COMDAT ?traps@_Num_base@std@@2_NB
CONST	SEGMENT
?traps@_Num_base@std@@2_NB DB 00H			; std::_Num_base::traps
CONST	ENDS
PUBLIC	_fabsf
PUBLIC	_atanf
PUBLIC	_cosf
PUBLIC	_powf
PUBLIC	_sinf
PUBLIC	_tanf
PUBLIC	?atan@@YAMM@Z					; atan
PUBLIC	?cos@@YAMM@Z					; cos
PUBLIC	?fabs@@YAMM@Z					; fabs
PUBLIC	?pow@@YAMMM@Z					; pow
PUBLIC	?sin@@YAMM@Z					; sin
PUBLIC	?tan@@YAMM@Z					; tan
PUBLIC	?Id@VuEntity@@QBE?AVVU_ID@@XZ			; VuEntity::Id
PUBLIC	?XPos@VuEntity@@QBEMXZ				; VuEntity::XPos
PUBLIC	?YPos@VuEntity@@QBEMXZ				; VuEntity::YPos
PUBLIC	?ZPos@VuEntity@@QBEMXZ				; VuEntity::ZPos
PUBLIC	?Yaw@VuEntity@@QBEMXZ				; VuEntity::Yaw
PUBLIC	?Pitch@VuEntity@@QBEMXZ				; VuEntity::Pitch
PUBLIC	??2@YAPAXIPAX@Z					; operator new
PUBLIC	??3@YAXPAX0@Z					; operator delete
PUBLIC	?length@?$char_traits@D@std@@SAIPBD@Z		; std::char_traits<char>::length
PUBLIC	?copy@?$char_traits@D@std@@SAPADPADPBDI@Z	; std::char_traits<char>::copy
PUBLIC	?move@?$char_traits@D@std@@SAPADPADPBDI@Z	; std::char_traits<char>::move
PUBLIC	?assign@?$char_traits@D@std@@SAXAADABD@Z	; std::char_traits<char>::assign
PUBLIC	??0?$allocator@D@std@@QAE@XZ			; std::allocator<char>::allocator<char>
PUBLIC	?deallocate@?$allocator@D@std@@QAEXPADI@Z	; std::allocator<char>::deallocate
PUBLIC	?allocate@?$allocator@D@std@@QAEPADI@Z		; std::allocator<char>::allocate
PUBLIC	?max_size@?$allocator@D@std@@QBEIXZ		; std::allocator<char>::max_size
PUBLIC	?max_size@?$allocator_traits@V?$allocator@D@std@@@std@@SAIABV?$allocator@D@2@@Z ; std::allocator_traits<std::allocator<char> >::max_size
PUBLIC	??0?$_Wrap_alloc@V?$allocator@D@std@@@std@@QAE@XZ ; std::_Wrap_alloc<std::allocator<char> >::_Wrap_alloc<std::allocator<char> >
PUBLIC	?allocate@?$_Wrap_alloc@V?$allocator@D@std@@@std@@QAEPADI@Z ; std::_Wrap_alloc<std::allocator<char> >::allocate
PUBLIC	?deallocate@?$_Wrap_alloc@V?$allocator@D@std@@@std@@QAEXPADI@Z ; std::_Wrap_alloc<std::allocator<char> >::deallocate
PUBLIC	?max_size@?$_Wrap_alloc@V?$allocator@D@std@@@std@@QBEIXZ ; std::_Wrap_alloc<std::allocator<char> >::max_size
PUBLIC	??0?$_String_val@U?$_Simple_types@D@std@@@std@@QAE@XZ ; std::_String_val<std::_Simple_types<char> >::_String_val<std::_Simple_types<char> >
PUBLIC	?_Myptr@?$_String_val@U?$_Simple_types@D@std@@@std@@QAEPADXZ ; std::_String_val<std::_Simple_types<char> >::_Myptr
PUBLIC	?_Myptr@?$_String_val@U?$_Simple_types@D@std@@@std@@QBEPBDXZ ; std::_String_val<std::_Simple_types<char> >::_Myptr
PUBLIC	??0?$_String_alloc@$0A@U?$_String_base_types@DV?$allocator@D@std@@@std@@@std@@QAE@ABV?$allocator@D@1@@Z ; std::_String_alloc<0,std::_String_base_types<char,std::allocator<char> > >::_String_alloc<0,std::_String_base_types<char,std::allocator<char> > >
PUBLIC	?_Getal@?$_String_alloc@$0A@U?$_String_base_types@DV?$allocator@D@std@@@std@@@std@@QBE?AU?$_Wrap_alloc@V?$allocator@D@std@@@2@XZ ; std::_String_alloc<0,std::_String_base_types<char,std::allocator<char> > >::_Getal
PUBLIC	??0?$basic_string@DU?$char_traits@D@std@@V?$allocator@D@2@@std@@QAE@PBD@Z ; std::basic_string<char,std::char_traits<char>,std::allocator<char> >::basic_string<char,std::char_traits<char>,std::allocator<char> >
PUBLIC	?assign@?$basic_string@DU?$char_traits@D@std@@V?$allocator@D@2@@std@@QAEAAV12@ABV12@II@Z ; std::basic_string<char,std::char_traits<char>,std::allocator<char> >::assign
PUBLIC	?assign@?$basic_string@DU?$char_traits@D@std@@V?$allocator@D@2@@std@@QAEAAV12@PBDI@Z ; std::basic_string<char,std::char_traits<char>,std::allocator<char> >::assign
PUBLIC	?assign@?$basic_string@DU?$char_traits@D@std@@V?$allocator@D@2@@std@@QAEAAV12@PBD@Z ; std::basic_string<char,std::char_traits<char>,std::allocator<char> >::assign
PUBLIC	?erase@?$basic_string@DU?$char_traits@D@std@@V?$allocator@D@2@@std@@QAEAAV12@I@Z ; std::basic_string<char,std::char_traits<char>,std::allocator<char> >::erase
PUBLIC	?erase@?$basic_string@DU?$char_traits@D@std@@V?$allocator@D@2@@std@@QAEAAV12@II@Z ; std::basic_string<char,std::char_traits<char>,std::allocator<char> >::erase
PUBLIC	?size@?$basic_string@DU?$char_traits@D@std@@V?$allocator@D@2@@std@@QBEIXZ ; std::basic_string<char,std::char_traits<char>,std::allocator<char> >::size
PUBLIC	?max_size@?$basic_string@DU?$char_traits@D@std@@V?$allocator@D@2@@std@@QBEIXZ ; std::basic_string<char,std::char_traits<char>,std::allocator<char> >::max_size
PUBLIC	?_Copy@?$basic_string@DU?$char_traits@D@std@@V?$allocator@D@2@@std@@QAEXII@Z ; std::basic_string<char,std::char_traits<char>,std::allocator<char> >::_Copy
PUBLIC	?_Eos@?$basic_string@DU?$char_traits@D@std@@V?$allocator@D@2@@std@@QAEXI@Z ; std::basic_string<char,std::char_traits<char>,std::allocator<char> >::_Eos
PUBLIC	?_Grow@?$basic_string@DU?$char_traits@D@std@@V?$allocator@D@2@@std@@QAE_NI_N@Z ; std::basic_string<char,std::char_traits<char>,std::allocator<char> >::_Grow
PUBLIC	?_Inside@?$basic_string@DU?$char_traits@D@std@@V?$allocator@D@2@@std@@QAE_NPBD@Z ; std::basic_string<char,std::char_traits<char>,std::allocator<char> >::_Inside
PUBLIC	?_Tidy@?$basic_string@DU?$char_traits@D@std@@V?$allocator@D@2@@std@@QAEX_NI@Z ; std::basic_string<char,std::char_traits<char>,std::allocator<char> >::_Tidy
PUBLIC	?_Xlen@?$basic_string@DU?$char_traits@D@std@@V?$allocator@D@2@@std@@QBEXXZ ; std::basic_string<char,std::char_traits<char>,std::allocator<char> >::_Xlen
PUBLIC	?_Xran@?$basic_string@DU?$char_traits@D@std@@V?$allocator@D@2@@std@@QBEXXZ ; std::basic_string<char,std::char_traits<char>,std::allocator<char> >::_Xran
PUBLIC	?IsCampaign@FalconEntity@@QAEHXZ		; FalconEntity::IsCampaign
PUBLIC	?IsSim@FalconEntity@@QAEHXZ			; FalconEntity::IsSim
PUBLIC	?mlSinCos@@YAXPAUmlTrig@@M@Z			; mlSinCos
PUBLIC	?checked_atan2@@YANNN@Z				; checked_atan2
PUBLIC	??0id@locale@std@@QAE@I@Z			; std::locale::id::id
PUBLIC	?generic_category@std@@YAABVerror_category@1@XZ	; std::generic_category
PUBLIC	?system_category@std@@YAABVerror_category@1@XZ	; std::system_category
PUBLIC	??0error_category@std@@QAE@XZ			; std::error_category::error_category
PUBLIC	??1error_category@std@@UAE@XZ			; std::error_category::~error_category
PUBLIC	?default_error_condition@error_category@std@@UBE?AVerror_condition@2@H@Z ; std::error_category::default_error_condition
PUBLIC	?equivalent@error_category@std@@UBE_NHABVerror_condition@2@@Z ; std::error_category::equivalent
PUBLIC	?equivalent@error_category@std@@UBE_NABVerror_code@2@H@Z ; std::error_category::equivalent
PUBLIC	??8error_category@std@@QBE_NABV01@@Z		; std::error_category::operator==
PUBLIC	??_Gerror_category@std@@UAEPAXI@Z		; std::error_category::`scalar deleting destructor'
PUBLIC	?value@error_code@std@@QBEHXZ			; std::error_code::value
PUBLIC	?category@error_code@std@@QBEABVerror_category@2@XZ ; std::error_code::category
PUBLIC	??0error_condition@std@@QAE@HABVerror_category@1@@Z ; std::error_condition::error_condition
PUBLIC	?value@error_condition@std@@QBEHXZ		; std::error_condition::value
PUBLIC	?category@error_condition@std@@QBEABVerror_category@2@XZ ; std::error_condition::category
PUBLIC	??8error_condition@std@@QBE_NABV01@@Z		; std::error_condition::operator==
PUBLIC	??0_Generic_error_category@std@@QAE@XZ		; std::_Generic_error_category::_Generic_error_category
PUBLIC	?name@_Generic_error_category@std@@UBEPBDXZ	; std::_Generic_error_category::name
PUBLIC	?message@_Generic_error_category@std@@UBE?AV?$basic_string@DU?$char_traits@D@std@@V?$allocator@D@2@@2@H@Z ; std::_Generic_error_category::message
PUBLIC	??1_Generic_error_category@std@@UAE@XZ		; std::_Generic_error_category::~_Generic_error_category
PUBLIC	??_G_Generic_error_category@std@@UAEPAXI@Z	; std::_Generic_error_category::`scalar deleting destructor'
PUBLIC	??0_Iostream_error_category@std@@QAE@XZ		; std::_Iostream_error_category::_Iostream_error_category
PUBLIC	?name@_Iostream_error_category@std@@UBEPBDXZ	; std::_Iostream_error_category::name
PUBLIC	?message@_Iostream_error_category@std@@UBE?AV?$basic_string@DU?$char_traits@D@std@@V?$allocator@D@2@@2@H@Z ; std::_Iostream_error_category::message
PUBLIC	??1_Iostream_error_category@std@@UAE@XZ		; std::_Iostream_error_category::~_Iostream_error_category
PUBLIC	??_G_Iostream_error_category@std@@UAEPAXI@Z	; std::_Iostream_error_category::`scalar deleting destructor'
PUBLIC	??0_System_error_category@std@@QAE@XZ		; std::_System_error_category::_System_error_category
PUBLIC	?name@_System_error_category@std@@UBEPBDXZ	; std::_System_error_category::name
PUBLIC	?message@_System_error_category@std@@UBE?AV?$basic_string@DU?$char_traits@D@std@@V?$allocator@D@2@@2@H@Z ; std::_System_error_category::message
PUBLIC	?default_error_condition@_System_error_category@std@@UBE?AVerror_condition@2@H@Z ; std::_System_error_category::default_error_condition
PUBLIC	??1_System_error_category@std@@UAE@XZ		; std::_System_error_category::~_System_error_category
PUBLIC	??_G_System_error_category@std@@UAEPAXI@Z	; std::_System_error_category::`scalar deleting destructor'
PUBLIC	?CenterOriginInViewport@VirtualDisplay@@QAEXXZ	; VirtualDisplay::CenterOriginInViewport
PUBLIC	?ZeroRotationAboutOrigin@VirtualDisplay@@QAEXXZ	; VirtualDisplay::ZeroRotationAboutOrigin
PUBLIC	?SetGain@RenderGMRadar@@QAEXM@Z			; RenderGMRadar::SetGain
PUBLIC	?GetGain@RenderGMRadar@@QAEMXZ			; RenderGMRadar::GetGain
PUBLIC	?SetGimbalLimit@RenderGMComposite@@QAEXM@Z	; RenderGMComposite::SetGimbalLimit
PUBLIC	?SetGain@RenderGMComposite@@QAEXM@Z		; RenderGMComposite::SetGain
PUBLIC	?GetGain@RenderGMComposite@@QAEMXZ		; RenderGMComposite::GetGain
PUBLIC	?GetClass@DrawableObject@@QBE?AW4DrawClass@1@XZ	; DrawableObject::GetClass
PUBLIC	?Radius@DrawableObject@@QBEMXZ			; DrawableObject::Radius
PUBLIC	?GetPosition@DrawableObject@@QAEXPAUTpoint@@@Z	; DrawableObject::GetPosition
PUBLIC	?IsSOI@DrawableClass@@QAEHXZ			; DrawableClass::IsSOI
PUBLIC	?BaseData@SimObjectType@@QAEPAVFalconEntity@@XZ	; SimObjectType::BaseData
PUBLIC	?get@?$VuBin@VFalconEntity@@@@QBEPAVFalconEntity@@XZ ; VuBin<FalconEntity>::get
PUBLIC	?IsEmitting@RadarClass@@QAEHXZ			; RadarClass::IsEmitting
PUBLIC	?SetWPArrive@WayPointClass@@QAEXK@Z		; WayPointClass::SetWPArrive
PUBLIC	?SetAGSnowPlow@RadarDopplerClass@@UAEXH@Z	; RadarDopplerClass::SetAGSnowPlow
PUBLIC	?SetAGFreeze@RadarDopplerClass@@QAEXH@Z		; RadarDopplerClass::SetAGFreeze
PUBLIC	?SetAGSteerpoint@RadarDopplerClass@@UAEXH@Z	; RadarDopplerClass::SetAGSteerpoint
PUBLIC	?ToggleAGfreeze@RadarDopplerClass@@UAEXXZ	; RadarDopplerClass::ToggleAGfreeze
PUBLIC	?ToggleAGsnowPlow@RadarDopplerClass@@UAEXXZ	; RadarDopplerClass::ToggleAGsnowPlow
PUBLIC	?ToggleAGcursorZero@RadarDopplerClass@@UAEXXZ	; RadarDopplerClass::ToggleAGcursorZero
PUBLIC	?SetGroundPoint@RadarDopplerClass@@UAEXMMM@Z	; RadarDopplerClass::SetGroundPoint
PUBLIC	?IsAG@RadarDopplerClass@@UAEHXZ			; RadarDopplerClass::IsAG
PUBLIC	?GetAGCenter@RadarDopplerClass@@UAEXPAM0@Z	; RadarDopplerClass::GetAGCenter
PUBLIC	?RestoreAGCursor@RadarDopplerClass@@UAEXXZ	; RadarDopplerClass::RestoreAGCursor
PUBLIC	?AGBottomRow@RadarDopplerClass@@IAEXXZ		; RadarDopplerClass::AGBottomRow
PUBLIC	??0GMList@RadarDopplerClass@@QAE@PAVFalconEntity@@@Z ; RadarDopplerClass::GMList::GMList
PUBLIC	?Release@GMList@RadarDopplerClass@@QAEXXZ	; RadarDopplerClass::GMList::Release
PUBLIC	?Object@GMList@RadarDopplerClass@@QAEPAVFalconEntity@@XZ ; RadarDopplerClass::GMList::Object
PUBLIC	?IsSet@RadarDopplerClass@@QAEHH@Z		; RadarDopplerClass::IsSet
PUBLIC	?SetFlagBit@RadarDopplerClass@@QAEXH@Z		; RadarDopplerClass::SetFlagBit
PUBLIC	?ClearFlagBit@RadarDopplerClass@@QAEXH@Z	; RadarDopplerClass::ClearFlagBit
PUBLIC	?IsAADcltBit@RadarDopplerClass@@IAEHH@Z		; RadarDopplerClass::IsAADcltBit
PUBLIC	?IsAADclt@RadarDopplerClass@@IAEHH@Z		; RadarDopplerClass::IsAADclt
PUBLIC	?IsAGDclt@RadarDopplerClass@@IAEHH@Z		; RadarDopplerClass::IsAGDclt
PUBLIC	?IsAGDcltBit@RadarDopplerClass@@IAEHH@Z		; RadarDopplerClass::IsAGDcltBit
PUBLIC	?SetGroundTarget@RadarDopplerClass@@IAEXPAVFalconEntity@@@Z ; RadarDopplerClass::SetGroundTarget
PUBLIC	?GMMode@RadarDopplerClass@@IAEXXZ		; RadarDopplerClass::GMMode
PUBLIC	?GMDisplay@RadarDopplerClass@@IAEXXZ		; RadarDopplerClass::GMDisplay
PUBLIC	?GMSPWaypt@RadarDopplerClass@@QAEPAVWayPointClass@@XZ ; RadarDopplerClass::GMSPWaypt
PUBLIC	?SetGMScan@RadarDopplerClass@@IAEXXZ		; RadarDopplerClass::SetGMScan
PUBLIC	?SetAimPoint@RadarDopplerClass@@IAEXMM@Z	; RadarDopplerClass::SetAimPoint
PUBLIC	?AdjustGMOffset@RadarDopplerClass@@IAEXH@Z	; RadarDopplerClass::AdjustGMOffset
PUBLIC	?CheckGMBump@RadarDopplerClass@@IAEHXZ		; RadarDopplerClass::CheckGMBump
PUBLIC	?DropGMTrack@RadarDopplerClass@@IAEXXZ		; RadarDopplerClass::DropGMTrack
PUBLIC	?AddTargetReturnCallback@RadarDopplerClass@@KAXPAXPAVRenderGMRadar@@_N@Z ; RadarDopplerClass::AddTargetReturnCallback
PUBLIC	?AddTargetReturns@RadarDopplerClass@@IAEXPAVRenderGMRadar@@_N@Z ; RadarDopplerClass::AddTargetReturns
PUBLIC	?AddTargetReturnsOldStyle@RadarDopplerClass@@IAEXPAVGMList@1@@Z ; RadarDopplerClass::AddTargetReturnsOldStyle
PUBLIC	?DoGMDesignate@RadarDopplerClass@@IAEXPAVGMList@1@@Z ; RadarDopplerClass::DoGMDesignate
PUBLIC	?FreeGMList@RadarDopplerClass@@IAEXPAVGMList@1@@Z ; RadarDopplerClass::FreeGMList
PUBLIC	?GetGMCursorPosition@RadarDopplerClass@@IAEXPAM0@Z ; RadarDopplerClass::GetGMCursorPosition
PUBLIC	?InitialGroundContactTest@RadarDopplerClass@@IAEHAAM000PAVFalconEntity@@AAUmlTrig@@000@Z ; RadarDopplerClass::InitialGroundContactTest
PUBLIC	?GMTObjectContactTest@RadarDopplerClass@@IAEHPAVFalconEntity@@@Z ; RadarDopplerClass::GMTObjectContactTest
PUBLIC	?GMObjectContactTest@RadarDopplerClass@@IAEHPAVFalconEntity@@@Z ; RadarDopplerClass::GMObjectContactTest
PUBLIC	?IsAwake@SimBaseClass@@QBEHXZ			; SimBaseClass::IsAwake
PUBLIC	??B?$VuBin@VSimWeaponClass@@@@QBE_NXZ		; VuBin<SimWeaponClass>::operator bool
PUBLIC	?GetSubMode@FireControlComputer@@QAE?AW4FCCSubMode@1@XZ ; FireControlComputer::GetSubMode
PUBLIC	?F_ABS@@YAMM@Z					; F_ABS
PUBLIC	?AnalogIsUsed@SIMLIB_IO_CLASS@@QAE_NW4GameAxis_t@@@Z ; SIMLIB_IO_CLASS::AnalogIsUsed
PUBLIC	??$construct@PADAAPAD@?$_Wrap_alloc@V?$allocator@D@std@@@std@@QAEXPAPADAAPAD@Z ; std::_Wrap_alloc<std::allocator<char> >::construct<char *,char * &>
PUBLIC	??$destroy@PAD@?$_Wrap_alloc@V?$allocator@D@std@@@std@@QAEXPAPAD@Z ; std::_Wrap_alloc<std::allocator<char> >::destroy<char *>
PUBLIC	??$addressof@D@std@@YAPADAAD@Z			; std::addressof<char>
PUBLIC	??$_Allocate@D@std@@YAPADIPAD@Z			; std::_Allocate<char>
PUBLIC	??$forward@AAPAD@std@@YAAAPADAAPAD@Z		; std::forward<char * &>
PUBLIC	??$construct@PADAAPAD@?$allocator_traits@V?$allocator@D@std@@@std@@SAXAAV?$allocator@D@1@PAPADAAPAD@Z ; std::allocator_traits<std::allocator<char> >::construct<char *,char * &>
PUBLIC	??$destroy@PAD@?$allocator_traits@V?$allocator@D@std@@@std@@SAXAAV?$allocator@D@1@PAPAD@Z ; std::allocator_traits<std::allocator<char> >::destroy<char *>
PUBLIC	??$construct@PADAAPAD@?$allocator@D@std@@QAEXPAPADAAPAD@Z ; std::allocator<char>::construct<char *,char * &>
PUBLIC	??$destroy@PAD@?$allocator@D@std@@QAEXPAPAD@Z	; std::allocator<char>::destroy<char *>
PUBLIC	??_C@_00CNPNBAHC@?$AA@				; `string'
PUBLIC	??_7error_category@std@@6B@			; std::error_category::`vftable'
PUBLIC	??_7_Generic_error_category@std@@6B@		; std::_Generic_error_category::`vftable'
PUBLIC	??_C@_07DCLBNMLN@generic?$AA@			; `string'
PUBLIC	??_C@_0O@BFJCFAAK@unknown?5error?$AA@		; `string'
PUBLIC	??_7_Iostream_error_category@std@@6B@		; std::_Iostream_error_category::`vftable'
PUBLIC	??_C@_08LLGCOLLL@iostream?$AA@			; `string'
PUBLIC	??_C@_0BG@PADBLCHM@iostream?5stream?5error?$AA@	; `string'
PUBLIC	??_7_System_error_category@std@@6B@		; std::_System_error_category::`vftable'
PUBLIC	??_C@_06FHFOAHML@system?$AA@			; `string'
PUBLIC	?_Generic_object@?$_Error_objects@H@std@@2V_Generic_error_category@2@A ; std::_Error_objects<int>::_Generic_object
PUBLIC	?_Iostream_object@?$_Error_objects@H@std@@2V_Iostream_error_category@2@A ; std::_Error_objects<int>::_Iostream_object
PUBLIC	?_System_object@?$_Error_objects@H@std@@2V_System_error_category@2@A ; std::_Error_objects<int>::_System_object
PUBLIC	?id@?$num_put@DV?$back_insert_iterator@V?$basic_string@DU?$char_traits@D@std@@V?$allocator@D@2@@std@@@std@@@std@@2V0locale@2@A ; std::num_put<char,std::back_insert_iterator<std::basic_string<char,std::char_traits<char>,std::allocator<char> > > >::id
PUBLIC	?id@?$num_put@_WV?$back_insert_iterator@V?$basic_string@_WU?$char_traits@_W@std@@V?$allocator@_W@2@@std@@@std@@@std@@2V0locale@2@A ; std::num_put<wchar_t,std::back_insert_iterator<std::basic_string<wchar_t,std::char_traits<wchar_t>,std::allocator<wchar_t> > > >::id
PUBLIC	??_C@_02DALMIMOA@GM?$AA@			; `string'
PUBLIC	??_C@_03HOONMGKE@GMT?$AA@			; `string'
PUBLIC	??_C@_03JIDALBMA@SEA?$AA@			; `string'
PUBLIC	??_C@_04LMMJFDCN@AUTO?$AA@			; `string'
PUBLIC	??_C@_03KIGHCFHP@MAN?$AA@			; `string'
PUBLIC	??_C@_03IPJPMEHL@NRM?$AA@			; `string'
PUBLIC	??_C@_04DHIGGNDH@NORM?$AA@			; `string'
PUBLIC	??_C@_03KKGFKKLA@EXP?$AA@			; `string'
PUBLIC	??_C@_04NBEPBIG@DBS1?$AA@			; `string'
PUBLIC	??_C@_04CGDJKCEF@DBS2?$AA@			; `string'
PUBLIC	??_C@_04PGDFOHNL@OVRD?$AA@			; `string'
PUBLIC	??_C@_04GKDMIDBA@CNTL?$AA@			; `string'
PUBLIC	??_C@_04CAJPJFIH@BARO?$AA@			; `string'
PUBLIC	??_C@_02DEPNGCEB@FZ?$AA@			; `string'
PUBLIC	??_C@_02NEPPOLFA@SP?$AA@			; `string'
PUBLIC	??_C@_03NGANFLJH@STP?$AA@			; `string'
PUBLIC	??_C@_02DCDGKAKK@CZ?$AA@			; `string'
PUBLIC	??_C@_04GHNNFJCK@?$CF?40f?$AA@			; `string'
PUBLIC	??_C@_01FHEEJDEE@A?$AA@				; `string'
PUBLIC	??_C@_01DHDKHMHF@6?$AA@				; `string'
PUBLIC	??_C@_09JFBOEAOE@?$CF03d?3?$CF02d?$AA@		; `string'
PUBLIC	??_C@_0N@JIJJHBFE@?5?5?5?$CF02d?3?$CF02d?$AA@	; `string'
PUBLIC	??_C@_0N@FDANDMFD@?5?5?9?$CF02d?3?$CF02d?$AA@	; `string'
PUBLIC	??_C@_0L@JMLBFLDA@?9?$CF02d?3?$CF02d?$AA@	; `string'
PUBLIC	??_C@_05CJNIOAFN@XX?3XX?$AA@			; `string'
PUBLIC	??_C@_04LKFIONEM@DCLT?$AA@			; `string'
PUBLIC	??_C@_05DHIGAFHJ@QUIET?$AA@			; `string'
PUBLIC	??_C@_03KDFFCEML@RDY?$AA@			; `string'
PUBLIC	??_C@_06MNODKNNC@SILENT?$AA@			; `string'
PUBLIC	??_C@_03OONHJAKL@SMS?$AA@			; `string'
PUBLIC	??_C@_04IILMDFMO@MENU?$AA@			; `string'
PUBLIC	??_C@_04NLFHDAEB@SWAP?$AA@			; `string'
PUBLIC	?id@?$numpunct@D@std@@2V0locale@2@A		; std::numpunct<char>::id
PUBLIC	?id@?$numpunct@_W@std@@2V0locale@2@A		; std::numpunct<wchar_t>::id
PUBLIC	??_C@_0BI@CFPLBAOH@invalid?5string?5position?$AA@ ; `string'
PUBLIC	??_C@_0BA@JFNIOLAK@string?5too?5long?$AA@	; `string'
PUBLIC	??_R4error_category@std@@6B@			; std::error_category::`RTTI Complete Object Locator'
PUBLIC	??_R0?AVerror_category@std@@@8			; std::error_category `RTTI Type Descriptor'
PUBLIC	??_R3error_category@std@@8			; std::error_category::`RTTI Class Hierarchy Descriptor'
PUBLIC	??_R2error_category@std@@8			; std::error_category::`RTTI Base Class Array'
PUBLIC	??_R1A@?0A@EA@error_category@std@@8		; std::error_category::`RTTI Base Class Descriptor at (0,-1,0,64)'
PUBLIC	??_R4_Generic_error_category@std@@6B@		; std::_Generic_error_category::`RTTI Complete Object Locator'
PUBLIC	??_R0?AV_Generic_error_category@std@@@8		; std::_Generic_error_category `RTTI Type Descriptor'
PUBLIC	??_R3_Generic_error_category@std@@8		; std::_Generic_error_category::`RTTI Class Hierarchy Descriptor'
PUBLIC	??_R2_Generic_error_category@std@@8		; std::_Generic_error_category::`RTTI Base Class Array'
PUBLIC	??_R1A@?0A@EA@_Generic_error_category@std@@8	; std::_Generic_error_category::`RTTI Base Class Descriptor at (0,-1,0,64)'
PUBLIC	??_R4_Iostream_error_category@std@@6B@		; std::_Iostream_error_category::`RTTI Complete Object Locator'
PUBLIC	??_R0?AV_Iostream_error_category@std@@@8	; std::_Iostream_error_category `RTTI Type Descriptor'
PUBLIC	??_R3_Iostream_error_category@std@@8		; std::_Iostream_error_category::`RTTI Class Hierarchy Descriptor'
PUBLIC	??_R2_Iostream_error_category@std@@8		; std::_Iostream_error_category::`RTTI Base Class Array'
PUBLIC	??_R1A@?0A@EA@_Iostream_error_category@std@@8	; std::_Iostream_error_category::`RTTI Base Class Descriptor at (0,-1,0,64)'
PUBLIC	??_R4_System_error_category@std@@6B@		; std::_System_error_category::`RTTI Complete Object Locator'
PUBLIC	??_R0?AV_System_error_category@std@@@8		; std::_System_error_category `RTTI Type Descriptor'
PUBLIC	??_R3_System_error_category@std@@8		; std::_System_error_category::`RTTI Class Hierarchy Descriptor'
PUBLIC	??_R2_System_error_category@std@@8		; std::_System_error_category::`RTTI Base Class Array'
PUBLIC	??_R1A@?0A@EA@_System_error_category@std@@8	; std::_System_error_category::`RTTI Base Class Descriptor at (0,-1,0,64)'
PUBLIC	__real@00000000
PUBLIC	__real@0000000000000000
PUBLIC	__real@3a83126f
PUBLIC	__real@3ca3d70a
PUBLIC	__real@3cf5c28f
PUBLIC	__real@3d4ccccd
PUBLIC	__real@3d851eb8
PUBLIC	__real@3d8f5c29
PUBLIC	__real@3da3d70a
PUBLIC	__real@3db2b8c1
PUBLIC	__real@3dcccccd
PUBLIC	__real@3e000000
PUBLIC	__real@3e051eb8
PUBLIC	__real@3e4ccccd
PUBLIC	__real@3e800000
PUBLIC	__real@3e860a91
PUBLIC	__real@3ecccccd
PUBLIC	__real@3eceb852
PUBLIC	__real@3f000000
PUBLIC	__real@3f11eb85
PUBLIC	__real@3f2e147b
PUBLIC	__real@3f400000
PUBLIC	__real@3f490fd9
PUBLIC	__real@3f4ccccd
PUBLIC	__real@3f666666
PUBLIC	__real@3f670a3d
PUBLIC	__real@3f733333
PUBLIC	__real@3f79999a
PUBLIC	__real@3f800000
PUBLIC	__real@3f860a91
PUBLIC	__real@3fa00000
PUBLIC	__real@3fc90fd9
PUBLIC	__real@3ff921fb54442d18
PUBLIC	__real@40000000
PUBLIC	__real@400921fb54442d18
PUBLIC	__real@40490fd9
PUBLIC	__real@406dec5b
PUBLIC	__real@40800000
PUBLIC	__real@40a00000
PUBLIC	__real@40b9fb76
PUBLIC	__real@40c90fd9
PUBLIC	__real@40d00000
PUBLIC	__real@41200000
PUBLIC	__real@41a00000
PUBLIC	__real@41a0cccd
PUBLIC	__real@41c00000
PUBLIC	__real@42200000
PUBLIC	__real@42480000
PUBLIC	__real@42652ee1
PUBLIC	__real@42700000
PUBLIC	__real@447a0000
PUBLIC	__real@44bb8000
PUBLIC	__real@45610000
PUBLIC	__real@45bde1b0
PUBLIC	__real@461c4000
PUBLIC	__real@469c4000
PUBLIC	__real@47a8c000
PUBLIC	__real@4b9fa682
PUBLIC	__real@57c72084
PUBLIC	__real@8000000000000000
PUBLIC	__real@bc23d70a
PUBLIC	__real@bd4ccccd
PUBLIC	__real@bdcccccd
PUBLIC	__real@be800000
PUBLIC	__real@bf000000
PUBLIC	__real@bf2147ae
PUBLIC	__real@bf400000
PUBLIC	__real@bf733333
PUBLIC	__real@bf79999a
PUBLIC	__real@bf800000
PUBLIC	__real@bf860a91
PUBLIC	__real@bff921fb54442d18
PUBLIC	__real@c0490fd9
PUBLIC	__real@c0a00000
PUBLIC	__xmm@80000000800000008000000080000000
EXTRN	__purecall:PROC
EXTRN	??2@YAPAXI@Z:PROC				; operator new
EXTRN	??3@YAXPAX@Z:PROC				; operator delete
EXTRN	_atexit:PROC
EXTRN	_sprintf:PROC
EXTRN	_abs:PROC
EXTRN	_atan:PROC
EXTRN	_cos:PROC
EXTRN	_fabs:PROC
EXTRN	_pow:PROC
EXTRN	_sin:PROC
EXTRN	_tan:PROC
EXTRN	_memcpy:PROC
EXTRN	_strcpy:PROC
EXTRN	_strlen:PROC
EXTRN	_memmove:PROC
EXTRN	?F4IsBadReadPtr@@YA_NPBXI@Z:PROC		; F4IsBadReadPtr
EXTRN	?VuReferenceEntity@@YAHPAVVuEntity@@@Z:PROC	; VuReferenceEntity
EXTRN	?VuDeReferenceEntity@@YAHPAVVuEntity@@@Z:PROC	; VuDeReferenceEntity
EXTRN	?SetPosition@VuEntity@@QAEXMMM@Z:PROC		; VuEntity::SetPosition
EXTRN	?_Xbad_alloc@std@@YAXXZ:PROC			; std::_Xbad_alloc
EXTRN	?_Xlength_error@std@@YAXPBD@Z:PROC		; std::_Xlength_error
EXTRN	?_Xout_of_range@std@@YAXPBD@Z:PROC		; std::_Xout_of_range
EXTRN	??0VuListIterator@@QAE@PAVVuLinkedList@@@Z:PROC	; VuListIterator::VuListIterator
EXTRN	??1VuListIterator@@UAE@XZ:PROC			; VuListIterator::~VuListIterator
EXTRN	?GetFirst@VuListIterator@@QAEPAVVuEntity@@XZ:PROC ; VuListIterator::GetFirst
EXTRN	?GetNext@VuListIterator@@QAEPAVVuEntity@@XZ:PROC ; VuListIterator::GetNext
EXTRN	??_Eerror_category@std@@UAEPAXI@Z:PROC		; std::error_category::`vector deleting destructor'
EXTRN	?_Syserror_map@std@@YAPBDH@Z:PROC		; std::_Syserror_map
EXTRN	?_Winerror_map@std@@YAPBDH@Z:PROC		; std::_Winerror_map
EXTRN	??_E_Generic_error_category@std@@UAEPAXI@Z:PROC	; std::_Generic_error_category::`vector deleting destructor'
EXTRN	??_E_Iostream_error_category@std@@UAEPAXI@Z:PROC ; std::_Iostream_error_category::`vector deleting destructor'
EXTRN	??_E_System_error_category@std@@UAEPAXI@Z:PROC	; std::_System_error_category::`vector deleting destructor'
EXTRN	?AdjustOriginInViewport@VirtualDisplay@@QAEXMM@Z:PROC ; VirtualDisplay::AdjustOriginInViewport
EXTRN	?AdjustRotationAboutOrigin@VirtualDisplay@@QAEXM@Z:PROC ; VirtualDisplay::AdjustRotationAboutOrigin
EXTRN	?GetViewport@VirtualDisplay@@QAEXPAM000@Z:PROC	; VirtualDisplay::GetViewport
EXTRN	?DrawBlip@RenderGMRadar@@QAEXMM@Z:PROC		; RenderGMRadar::DrawBlip
EXTRN	?DrawBlip@RenderGMRadar@@QAEXPAVDrawableObject@@M_N@Z:PROC ; RenderGMRadar::DrawBlip
EXTRN	?SetBeam@RenderGMComposite@@QAEXPAUTpoint@@00MMHMH_N@Z:PROC ; RenderGMComposite::SetBeam
EXTRN	?DrawComposite@RenderGMComposite@@QAEXPAUTpoint@@M@Z:PROC ; RenderGMComposite::DrawComposite
EXTRN	?SetRange@RenderGMComposite@@QAEXMH@Z:PROC	; RenderGMComposite::SetRange
EXTRN	?CalcRelGeom@@YAXPAVSimBaseClass@@PAVSimObjectType@@QAY02MM@Z:PROC ; CalcRelGeom
EXTRN	?LabelButton@DrawableClass@@QAEXHPAD0H@Z:PROC	; DrawableClass::LabelButton
EXTRN	?GetButtonPos@DrawableClass@@QAEXHPAM0@Z:PROC	; DrawableClass::GetButtonPos
EXTRN	?GetMfdColor@DrawableClass@@QAEIW4MfdColor@@@Z:PROC ; DrawableClass::GetMfdColor
EXTRN	?DefaultLabel@MfdDrawable@@QAEXH@Z:PROC		; MfdDrawable::DefaultLabel
EXTRN	?SimCompare@@YAHPAVVuEntity@@0@Z:PROC		; SimCompare
EXTRN	??0WayPointClass@@QAE@XZ:PROC			; WayPointClass::WayPointClass
EXTRN	?SetLocation@WayPointClass@@QAEXMMM@Z:PROC	; WayPointClass::SetLocation
EXTRN	?GetLocation@WayPointClass@@QBEXPAM00@Z:PROC	; WayPointClass::GetLocation
EXTRN	?DrawRangeArrows@RadarDopplerClass@@IAEXXZ:PROC	; RadarDopplerClass::DrawRangeArrows
EXTRN	?DrawRange@RadarDopplerClass@@IAEXXZ:PROC	; RadarDopplerClass::DrawRange
EXTRN	?MENUDisplay@RadarDopplerClass@@IAEXXZ:PROC	; RadarDopplerClass::MENUDisplay
EXTRN	?DrawSymbol@RadarDopplerClass@@IAEXHMHH@Z:PROC	; RadarDopplerClass::DrawSymbol
EXTRN	?DrawScanMarkers@RadarDopplerClass@@IAEXXZ:PROC	; RadarDopplerClass::DrawScanMarkers
EXTRN	?DrawAzElTicks@RadarDopplerClass@@IAEXXZ:PROC	; RadarDopplerClass::DrawAzElTicks
EXTRN	?SetGMSPWaypt@RadarDopplerClass@@QAEXPAVWayPointClass@@@Z:PROC ; RadarDopplerClass::SetGMSPWaypt
EXTRN	?GetGroundLevel@OTWDriverClass@@QAEMMMPAUTpoint@@@Z:PROC ; OTWDriverClass::GetGroundLevel
EXTRN	?CheckLOS@OTWDriverClass@@QAEHPAVFalconEntity@@0@Z:PROC ; OTWDriverClass::CheckLOS
EXTRN	?GetPlayerAircraft@SimulationDriver@@QBEPAVAircraftClass@@XZ:PROC ; SimulationDriver::GetPlayerAircraft
EXTRN	?SetStptMode@FireControlComputer@@QAEXW4FCCStptMode@1@@Z:PROC ; FireControlComputer::SetStptMode
EXTRN	?SetGroundSpotPos@SmsDrawable@@QAEXMMM@Z:PROC	; SmsDrawable::SetGroundSpotPos
EXTRN	?GetFault@FackClass@@QAEHW4type_FSubSystem@FaultClass@@@Z:PROC ; FackClass::GetFault
EXTRN	?GetAxisValue@SIMLIB_IO_CLASS@@QAEHW4GameAxis_t@@@Z:PROC ; SIMLIB_IO_CLASS::GetAxisValue
EXTRN	?FindLaserPod@@YAPAVSensorClass@@PAVSimMoverClass@@@Z:PROC ; FindLaserPod
EXTRN	@__security_check_cookie@4:PROC
EXTRN	__CxxThrowException@8:PROC
EXTRN	___CxxFrameHandler3:PROC
EXTRN	?FalconNullId@@3VVU_ID@@A:QWORD			; FalconNullId
EXTRN	?SimLibMajorFrameTime@@3MA:DWORD		; SimLibMajorFrameTime
EXTRN	?SimLibElapsedTime@@3KA:DWORD			; SimLibElapsedTime
EXTRN	??_7type_info@@6B@:QWORD			; type_info::`vftable'
EXTRN	?g_bRealisticAvionics@@3_NA:BYTE		; g_bRealisticAvionics
EXTRN	?CursorRate@RadarClass@@1MB:DWORD		; RadarClass::CursorRate
EXTRN	?OTWDriver@@3VOTWDriverClass@@A:BYTE		; OTWDriver
EXTRN	?SimDriver@@3VSimulationDriver@@A:BYTE		; SimDriver
EXTRN	?IO@@3VSIMLIB_IO_CLASS@@A:BYTE			; IO
EXTRN	?g_fCursorSpeed@@3MA:DWORD			; g_fCursorSpeed
EXTRN	?g_bAGRadarFixes@@3_NA:BYTE			; g_bAGRadarFixes
EXTRN	?g_fGMTMaxSpeed@@3MA:DWORD			; g_fGMTMaxSpeed
EXTRN	?g_fGMTMinSpeed@@3MA:DWORD			; g_fGMTMinSpeed
EXTRN	?g_fEXPfactor@@3MA:DWORD			; g_fEXPfactor
EXTRN	?g_fDBS1factor@@3MA:DWORD			; g_fDBS1factor
EXTRN	?g_fDBS2factor@@3MA:DWORD			; g_fDBS2factor
EXTRN	?g_bnoRadStutter@@3_NA:BYTE			; g_bnoRadStutter
EXTRN	___security_cookie:DWORD
EXTRN	__fltused:DWORD
_BSS	SEGMENT
_piecewise_construct DB 01H DUP (?)
	ALIGN	4

_allocator_arg DB 01H DUP (?)
_BSS	ENDS
;	COMDAT ?_Generic_object@?$_Error_objects@H@std@@2V_Generic_error_category@2@A
_BSS	SEGMENT
?_Generic_object@?$_Error_objects@H@std@@2V_Generic_error_category@2@A DD 01H DUP (?) ; std::_Error_objects<int>::_Generic_object
_BSS	ENDS
;	COMDAT ?_Iostream_object@?$_Error_objects@H@std@@2V_Iostream_error_category@2@A
_BSS	SEGMENT
?_Iostream_object@?$_Error_objects@H@std@@2V_Iostream_error_category@2@A DD 01H DUP (?) ; std::_Error_objects<int>::_Iostream_object
_BSS	ENDS
;	COMDAT ?_System_object@?$_Error_objects@H@std@@2V_System_error_category@2@A
_BSS	SEGMENT
?_System_object@?$_Error_objects@H@std@@2V_System_error_category@2@A DD 01H DUP (?) ; std::_Error_objects<int>::_System_object
_BSS	ENDS
;	COMDAT ?id@?$num_put@DV?$back_insert_iterator@V?$basic_string@DU?$char_traits@D@std@@V?$allocator@D@2@@std@@@std@@@std@@2V0locale@2@A
_BSS	SEGMENT
?id@?$num_put@DV?$back_insert_iterator@V?$basic_string@DU?$char_traits@D@std@@V?$allocator@D@2@@std@@@std@@@std@@2V0locale@2@A DD 01H DUP (?) ; std::num_put<char,std::back_insert_iterator<std::basic_string<char,std::char_traits<char>,std::allocator<char> > > >::id
_BSS	ENDS
;	COMDAT ?id@?$num_put@_WV?$back_insert_iterator@V?$basic_string@_WU?$char_traits@_W@std@@V?$allocator@_W@2@@std@@@std@@@std@@2V0locale@2@A
_BSS	SEGMENT
?id@?$num_put@_WV?$back_insert_iterator@V?$basic_string@_WU?$char_traits@_W@std@@V?$allocator@_W@2@@std@@@std@@@std@@2V0locale@2@A DD 01H DUP (?) ; std::num_put<wchar_t,std::back_insert_iterator<std::basic_string<wchar_t,std::char_traits<wchar_t>,std::allocator<wchar_t> > > >::id
_BSS	ENDS
_BSS	SEGMENT
	ALIGN	4

_GM_OVERSCAN_RNG DD 01H DUP (?)
_GM_OVERSCAN_H DD 01H DUP (?)
_GM_OVERSCAN_V DD 01H DUP (?)
_GMat	DB	0cH DUP (?)
_viewCenter DB	0cH DUP (?)
_SIN_RADAR_CONE_ANGLE DD 01H DUP (?)
_COS_RADAR_CONE_ANGLE DD 01H DUP (?)
_TAN_RADAR_CONE_ANGLE DD 01H DUP (?)
_BSS	ENDS
;	COMDAT ?test@?BI@??SetAimPoint@RadarDopplerClass@@IAEXMM@Z@4MA
_BSS	SEGMENT
?test@?BI@??SetAimPoint@RadarDopplerClass@@IAEXMM@Z@4MA DD 01H DUP (?) ; `RadarDopplerClass::SetAimPoint'::`24'::test
_BSS	ENDS
;	COMDAT ?testa@?BI@??SetAimPoint@RadarDopplerClass@@IAEXMM@Z@4MA
_BSS	SEGMENT
?testa@?BI@??SetAimPoint@RadarDopplerClass@@IAEXMM@Z@4MA DD 01H DUP (?) ; `RadarDopplerClass::SetAimPoint'::`24'::testa
_BSS	ENDS
;	COMDAT ?TwoRootTwo@?1??SetGMScan@RadarDopplerClass@@IAEXXZ@4MB
_BSS	SEGMENT
?TwoRootTwo@?1??SetGMScan@RadarDopplerClass@@IAEXXZ@4MB DD 01H DUP (?) ; `RadarDopplerClass::SetGMScan'::`2'::TwoRootTwo
_BSS	ENDS
;	COMDAT ?$S1@?1??SetGMScan@RadarDopplerClass@@IAEXXZ@4IA
_BSS	SEGMENT
?$S1@?1??SetGMScan@RadarDopplerClass@@IAEXXZ@4IA DD 01H DUP (?) ; `RadarDopplerClass::SetGMScan'::`2'::$S1
_BSS	ENDS
;	COMDAT ?id@?$numpunct@D@std@@2V0locale@2@A
_BSS	SEGMENT
?id@?$numpunct@D@std@@2V0locale@2@A DD 01H DUP (?)	; std::numpunct<char>::id
_BSS	ENDS
;	COMDAT ?id@?$numpunct@_W@std@@2V0locale@2@A
_BSS	SEGMENT
?id@?$numpunct@_W@std@@2V0locale@2@A DD 01H DUP (?)	; std::numpunct<wchar_t>::id
_BSS	ENDS
CRT$XCU	SEGMENT
_piecewise_construct$initializer$ DD FLAT:??__Epiecewise_construct@std@@YAXXZ
CRT$XCU	ENDS
;	COMDAT __xmm@80000000800000008000000080000000
CONST	SEGMENT
__xmm@80000000800000008000000080000000 DB 00H, 00H, 00H, 080H, 00H, 00H, 00H
	DB	080H, 00H, 00H, 00H, 080H, 00H, 00H, 00H, 080H
CONST	ENDS
;	COMDAT __real@c0a00000
CONST	SEGMENT
__real@c0a00000 DD 0c0a00000r			; -5
CONST	ENDS
;	COMDAT __real@c0490fd9
CONST	SEGMENT
__real@c0490fd9 DD 0c0490fd9r			; -3.14159
CONST	ENDS
;	COMDAT __real@bff921fb54442d18
CONST	SEGMENT
__real@bff921fb54442d18 DQ 0bff921fb54442d18r	; -1.5708
CONST	ENDS
;	COMDAT __real@bf860a91
CONST	SEGMENT
__real@bf860a91 DD 0bf860a91r			; -1.0472
CONST	ENDS
;	COMDAT __real@bf800000
CONST	SEGMENT
__real@bf800000 DD 0bf800000r			; -1
CONST	ENDS
;	COMDAT __real@bf79999a
CONST	SEGMENT
__real@bf79999a DD 0bf79999ar			; -0.975
CONST	ENDS
;	COMDAT __real@bf733333
CONST	SEGMENT
__real@bf733333 DD 0bf733333r			; -0.95
CONST	ENDS
;	COMDAT __real@bf400000
CONST	SEGMENT
__real@bf400000 DD 0bf400000r			; -0.75
CONST	ENDS
;	COMDAT __real@bf2147ae
CONST	SEGMENT
__real@bf2147ae DD 0bf2147aer			; -0.63
CONST	ENDS
;	COMDAT __real@bf000000
CONST	SEGMENT
__real@bf000000 DD 0bf000000r			; -0.5
CONST	ENDS
;	COMDAT __real@be800000
CONST	SEGMENT
__real@be800000 DD 0be800000r			; -0.25
CONST	ENDS
;	COMDAT __real@bdcccccd
CONST	SEGMENT
__real@bdcccccd DD 0bdcccccdr			; -0.1
CONST	ENDS
;	COMDAT __real@bd4ccccd
CONST	SEGMENT
__real@bd4ccccd DD 0bd4ccccdr			; -0.05
CONST	ENDS
;	COMDAT __real@bc23d70a
CONST	SEGMENT
__real@bc23d70a DD 0bc23d70ar			; -0.01
CONST	ENDS
;	COMDAT __real@8000000000000000
CONST	SEGMENT
__real@8000000000000000 DQ 08000000000000000r	; -0
CONST	ENDS
;	COMDAT __real@57c72084
CONST	SEGMENT
__real@57c72084 DD 057c72084r			; 4.37885e+014
CONST	ENDS
;	COMDAT __real@4b9fa682
CONST	SEGMENT
__real@4b9fa682 DD 04b9fa682r			; 2.09257e+007
CONST	ENDS
;	COMDAT __real@47a8c000
CONST	SEGMENT
__real@47a8c000 DD 047a8c000r			; 86400
CONST	ENDS
;	COMDAT __real@469c4000
CONST	SEGMENT
__real@469c4000 DD 0469c4000r			; 20000
CONST	ENDS
;	COMDAT __real@461c4000
CONST	SEGMENT
__real@461c4000 DD 0461c4000r			; 10000
CONST	ENDS
;	COMDAT __real@45bde1b0
CONST	SEGMENT
__real@45bde1b0 DD 045bde1b0r			; 6076.21
CONST	ENDS
;	COMDAT __real@45610000
CONST	SEGMENT
__real@45610000 DD 045610000r			; 3600
CONST	ENDS
;	COMDAT __real@44bb8000
CONST	SEGMENT
__real@44bb8000 DD 044bb8000r			; 1500
CONST	ENDS
;	COMDAT __real@447a0000
CONST	SEGMENT
__real@447a0000 DD 0447a0000r			; 1000
CONST	ENDS
;	COMDAT __real@42700000
CONST	SEGMENT
__real@42700000 DD 042700000r			; 60
CONST	ENDS
;	COMDAT __real@42652ee1
CONST	SEGMENT
__real@42652ee1 DD 042652ee1r			; 57.2958
CONST	ENDS
;	COMDAT __real@42480000
CONST	SEGMENT
__real@42480000 DD 042480000r			; 50
CONST	ENDS
;	COMDAT __real@42200000
CONST	SEGMENT
__real@42200000 DD 042200000r			; 40
CONST	ENDS
;	COMDAT __real@41c00000
CONST	SEGMENT
__real@41c00000 DD 041c00000r			; 24
CONST	ENDS
;	COMDAT __real@41a0cccd
CONST	SEGMENT
__real@41a0cccd DD 041a0cccdr			; 20.1
CONST	ENDS
;	COMDAT __real@41a00000
CONST	SEGMENT
__real@41a00000 DD 041a00000r			; 20
CONST	ENDS
;	COMDAT __real@41200000
CONST	SEGMENT
__real@41200000 DD 041200000r			; 10
CONST	ENDS
;	COMDAT __real@40d00000
CONST	SEGMENT
__real@40d00000 DD 040d00000r			; 6.5
CONST	ENDS
;	COMDAT __real@40c90fd9
CONST	SEGMENT
__real@40c90fd9 DD 040c90fd9r			; 6.28318
CONST	ENDS
;	COMDAT __real@40b9fb76
CONST	SEGMENT
__real@40b9fb76 DD 040b9fb76r			; 5.81195
CONST	ENDS
;	COMDAT __real@40a00000
CONST	SEGMENT
__real@40a00000 DD 040a00000r			; 5
CONST	ENDS
;	COMDAT __real@40800000
CONST	SEGMENT
__real@40800000 DD 040800000r			; 4
CONST	ENDS
;	COMDAT __real@406dec5b
CONST	SEGMENT
__real@406dec5b DD 0406dec5br			; 3.71755
CONST	ENDS
;	COMDAT __real@40490fd9
CONST	SEGMENT
__real@40490fd9 DD 040490fd9r			; 3.14159
CONST	ENDS
;	COMDAT __real@400921fb54442d18
CONST	SEGMENT
__real@400921fb54442d18 DQ 0400921fb54442d18r	; 3.14159
CONST	ENDS
;	COMDAT __real@40000000
CONST	SEGMENT
__real@40000000 DD 040000000r			; 2
CONST	ENDS
;	COMDAT __real@3ff921fb54442d18
CONST	SEGMENT
__real@3ff921fb54442d18 DQ 03ff921fb54442d18r	; 1.5708
CONST	ENDS
;	COMDAT __real@3fc90fd9
CONST	SEGMENT
__real@3fc90fd9 DD 03fc90fd9r			; 1.5708
CONST	ENDS
;	COMDAT __real@3fa00000
CONST	SEGMENT
__real@3fa00000 DD 03fa00000r			; 1.25
CONST	ENDS
;	COMDAT __real@3f860a91
CONST	SEGMENT
__real@3f860a91 DD 03f860a91r			; 1.0472
CONST	ENDS
;	COMDAT __real@3f800000
CONST	SEGMENT
__real@3f800000 DD 03f800000r			; 1
CONST	ENDS
;	COMDAT __real@3f79999a
CONST	SEGMENT
__real@3f79999a DD 03f79999ar			; 0.975
CONST	ENDS
;	COMDAT __real@3f733333
CONST	SEGMENT
__real@3f733333 DD 03f733333r			; 0.95
CONST	ENDS
;	COMDAT __real@3f670a3d
CONST	SEGMENT
__real@3f670a3d DD 03f670a3dr			; 0.9025
CONST	ENDS
;	COMDAT __real@3f666666
CONST	SEGMENT
__real@3f666666 DD 03f666666r			; 0.9
CONST	ENDS
;	COMDAT __real@3f4ccccd
CONST	SEGMENT
__real@3f4ccccd DD 03f4ccccdr			; 0.8
CONST	ENDS
;	COMDAT __real@3f490fd9
CONST	SEGMENT
__real@3f490fd9 DD 03f490fd9r			; 0.785398
CONST	ENDS
;	COMDAT __real@3f400000
CONST	SEGMENT
__real@3f400000 DD 03f400000r			; 0.75
CONST	ENDS
;	COMDAT __real@3f2e147b
CONST	SEGMENT
__real@3f2e147b DD 03f2e147br			; 0.68
CONST	ENDS
;	COMDAT __real@3f11eb85
CONST	SEGMENT
__real@3f11eb85 DD 03f11eb85r			; 0.57
CONST	ENDS
;	COMDAT __real@3f000000
CONST	SEGMENT
__real@3f000000 DD 03f000000r			; 0.5
CONST	ENDS
;	COMDAT __real@3eceb852
CONST	SEGMENT
__real@3eceb852 DD 03eceb852r			; 0.40375
CONST	ENDS
;	COMDAT __real@3ecccccd
CONST	SEGMENT
__real@3ecccccd DD 03ecccccdr			; 0.4
CONST	ENDS
;	COMDAT __real@3e860a91
CONST	SEGMENT
__real@3e860a91 DD 03e860a91r			; 0.261799
CONST	ENDS
;	COMDAT __real@3e800000
CONST	SEGMENT
__real@3e800000 DD 03e800000r			; 0.25
CONST	ENDS
;	COMDAT __real@3e4ccccd
CONST	SEGMENT
__real@3e4ccccd DD 03e4ccccdr			; 0.2
CONST	ENDS
;	COMDAT __real@3e051eb8
CONST	SEGMENT
__real@3e051eb8 DD 03e051eb8r			; 0.13
CONST	ENDS
;	COMDAT __real@3e000000
CONST	SEGMENT
__real@3e000000 DD 03e000000r			; 0.125
CONST	ENDS
;	COMDAT __real@3dcccccd
CONST	SEGMENT
__real@3dcccccd DD 03dcccccdr			; 0.1
CONST	ENDS
;	COMDAT __real@3db2b8c1
CONST	SEGMENT
__real@3db2b8c1 DD 03db2b8c1r			; 0.0872665
CONST	ENDS
;	COMDAT __real@3da3d70a
CONST	SEGMENT
__real@3da3d70a DD 03da3d70ar			; 0.08
CONST	ENDS
;	COMDAT __real@3d8f5c29
CONST	SEGMENT
__real@3d8f5c29 DD 03d8f5c29r			; 0.07
CONST	ENDS
;	COMDAT __real@3d851eb8
CONST	SEGMENT
__real@3d851eb8 DD 03d851eb8r			; 0.065
CONST	ENDS
;	COMDAT __real@3d4ccccd
CONST	SEGMENT
__real@3d4ccccd DD 03d4ccccdr			; 0.05
CONST	ENDS
;	COMDAT __real@3cf5c28f
CONST	SEGMENT
__real@3cf5c28f DD 03cf5c28fr			; 0.03
CONST	ENDS
;	COMDAT __real@3ca3d70a
CONST	SEGMENT
__real@3ca3d70a DD 03ca3d70ar			; 0.02
CONST	ENDS
;	COMDAT __real@3a83126f
CONST	SEGMENT
__real@3a83126f DD 03a83126fr			; 0.001
CONST	ENDS
;	COMDAT __real@0000000000000000
CONST	SEGMENT
__real@0000000000000000 DQ 00000000000000000r	; 0
CONST	ENDS
;	COMDAT __real@00000000
CONST	SEGMENT
__real@00000000 DD 000000000r			; 0
CONST	ENDS
;	COMDAT ??_R1A@?0A@EA@_System_error_category@std@@8
rdata$r	SEGMENT
??_R1A@?0A@EA@_System_error_category@std@@8 DD FLAT:??_R0?AV_System_error_category@std@@@8 ; std::_System_error_category::`RTTI Base Class Descriptor at (0,-1,0,64)'
	DD	02H
	DD	00H
	DD	0ffffffffH
	DD	00H
	DD	040H
	DD	FLAT:??_R3_System_error_category@std@@8
rdata$r	ENDS
;	COMDAT ??_R2_System_error_category@std@@8
rdata$r	SEGMENT
??_R2_System_error_category@std@@8 DD FLAT:??_R1A@?0A@EA@_System_error_category@std@@8 ; std::_System_error_category::`RTTI Base Class Array'
	DD	FLAT:??_R1A@?0A@EA@_Generic_error_category@std@@8
	DD	FLAT:??_R1A@?0A@EA@error_category@std@@8
rdata$r	ENDS
;	COMDAT ??_R3_System_error_category@std@@8
rdata$r	SEGMENT
??_R3_System_error_category@std@@8 DD 00H		; std::_System_error_category::`RTTI Class Hierarchy Descriptor'
	DD	00H
	DD	03H
	DD	FLAT:??_R2_System_error_category@std@@8
rdata$r	ENDS
;	COMDAT ??_R0?AV_System_error_category@std@@@8
_DATA	SEGMENT
??_R0?AV_System_error_category@std@@@8 DD FLAT:??_7type_info@@6B@ ; std::_System_error_category `RTTI Type Descriptor'
	DD	00H
	DB	'.?AV_System_error_category@std@@', 00H
_DATA	ENDS
;	COMDAT ??_R4_System_error_category@std@@6B@
rdata$r	SEGMENT
??_R4_System_error_category@std@@6B@ DD 00H		; std::_System_error_category::`RTTI Complete Object Locator'
	DD	00H
	DD	00H
	DD	FLAT:??_R0?AV_System_error_category@std@@@8
	DD	FLAT:??_R3_System_error_category@std@@8
rdata$r	ENDS
;	COMDAT ??_R1A@?0A@EA@_Iostream_error_category@std@@8
rdata$r	SEGMENT
??_R1A@?0A@EA@_Iostream_error_category@std@@8 DD FLAT:??_R0?AV_Iostream_error_category@std@@@8 ; std::_Iostream_error_category::`RTTI Base Class Descriptor at (0,-1,0,64)'
	DD	02H
	DD	00H
	DD	0ffffffffH
	DD	00H
	DD	040H
	DD	FLAT:??_R3_Iostream_error_category@std@@8
rdata$r	ENDS
;	COMDAT ??_R2_Iostream_error_category@std@@8
rdata$r	SEGMENT
??_R2_Iostream_error_category@std@@8 DD FLAT:??_R1A@?0A@EA@_Iostream_error_category@std@@8 ; std::_Iostream_error_category::`RTTI Base Class Array'
	DD	FLAT:??_R1A@?0A@EA@_Generic_error_category@std@@8
	DD	FLAT:??_R1A@?0A@EA@error_category@std@@8
rdata$r	ENDS
;	COMDAT ??_R3_Iostream_error_category@std@@8
rdata$r	SEGMENT
??_R3_Iostream_error_category@std@@8 DD 00H		; std::_Iostream_error_category::`RTTI Class Hierarchy Descriptor'
	DD	00H
	DD	03H
	DD	FLAT:??_R2_Iostream_error_category@std@@8
rdata$r	ENDS
;	COMDAT ??_R0?AV_Iostream_error_category@std@@@8
_DATA	SEGMENT
??_R0?AV_Iostream_error_category@std@@@8 DD FLAT:??_7type_info@@6B@ ; std::_Iostream_error_category `RTTI Type Descriptor'
	DD	00H
	DB	'.?AV_Iostream_error_category@std@@', 00H
_DATA	ENDS
;	COMDAT ??_R4_Iostream_error_category@std@@6B@
rdata$r	SEGMENT
??_R4_Iostream_error_category@std@@6B@ DD 00H		; std::_Iostream_error_category::`RTTI Complete Object Locator'
	DD	00H
	DD	00H
	DD	FLAT:??_R0?AV_Iostream_error_category@std@@@8
	DD	FLAT:??_R3_Iostream_error_category@std@@8
rdata$r	ENDS
;	COMDAT ??_R1A@?0A@EA@_Generic_error_category@std@@8
rdata$r	SEGMENT
??_R1A@?0A@EA@_Generic_error_category@std@@8 DD FLAT:??_R0?AV_Generic_error_category@std@@@8 ; std::_Generic_error_category::`RTTI Base Class Descriptor at (0,-1,0,64)'
	DD	01H
	DD	00H
	DD	0ffffffffH
	DD	00H
	DD	040H
	DD	FLAT:??_R3_Generic_error_category@std@@8
rdata$r	ENDS
;	COMDAT ??_R2_Generic_error_category@std@@8
rdata$r	SEGMENT
??_R2_Generic_error_category@std@@8 DD FLAT:??_R1A@?0A@EA@_Generic_error_category@std@@8 ; std::_Generic_error_category::`RTTI Base Class Array'
	DD	FLAT:??_R1A@?0A@EA@error_category@std@@8
rdata$r	ENDS
;	COMDAT ??_R3_Generic_error_category@std@@8
rdata$r	SEGMENT
??_R3_Generic_error_category@std@@8 DD 00H		; std::_Generic_error_category::`RTTI Class Hierarchy Descriptor'
	DD	00H
	DD	02H
	DD	FLAT:??_R2_Generic_error_category@std@@8
rdata$r	ENDS
;	COMDAT ??_R0?AV_Generic_error_category@std@@@8
_DATA	SEGMENT
??_R0?AV_Generic_error_category@std@@@8 DD FLAT:??_7type_info@@6B@ ; std::_Generic_error_category `RTTI Type Descriptor'
	DD	00H
	DB	'.?AV_Generic_error_category@std@@', 00H
_DATA	ENDS
;	COMDAT ??_R4_Generic_error_category@std@@6B@
rdata$r	SEGMENT
??_R4_Generic_error_category@std@@6B@ DD 00H		; std::_Generic_error_category::`RTTI Complete Object Locator'
	DD	00H
	DD	00H
	DD	FLAT:??_R0?AV_Generic_error_category@std@@@8
	DD	FLAT:??_R3_Generic_error_category@std@@8
rdata$r	ENDS
;	COMDAT ??_R1A@?0A@EA@error_category@std@@8
rdata$r	SEGMENT
??_R1A@?0A@EA@error_category@std@@8 DD FLAT:??_R0?AVerror_category@std@@@8 ; std::error_category::`RTTI Base Class Descriptor at (0,-1,0,64)'
	DD	00H
	DD	00H
	DD	0ffffffffH
	DD	00H
	DD	040H
	DD	FLAT:??_R3error_category@std@@8
rdata$r	ENDS
;	COMDAT ??_R2error_category@std@@8
rdata$r	SEGMENT
??_R2error_category@std@@8 DD FLAT:??_R1A@?0A@EA@error_category@std@@8 ; std::error_category::`RTTI Base Class Array'
rdata$r	ENDS
;	COMDAT ??_R3error_category@std@@8
rdata$r	SEGMENT
??_R3error_category@std@@8 DD 00H			; std::error_category::`RTTI Class Hierarchy Descriptor'
	DD	00H
	DD	01H
	DD	FLAT:??_R2error_category@std@@8
rdata$r	ENDS
;	COMDAT ??_R0?AVerror_category@std@@@8
_DATA	SEGMENT
??_R0?AVerror_category@std@@@8 DD FLAT:??_7type_info@@6B@ ; std::error_category `RTTI Type Descriptor'
	DD	00H
	DB	'.?AVerror_category@std@@', 00H
_DATA	ENDS
;	COMDAT ??_R4error_category@std@@6B@
rdata$r	SEGMENT
??_R4error_category@std@@6B@ DD 00H			; std::error_category::`RTTI Complete Object Locator'
	DD	00H
	DD	00H
	DD	FLAT:??_R0?AVerror_category@std@@@8
	DD	FLAT:??_R3error_category@std@@8
rdata$r	ENDS
;	COMDAT ??_C@_0BA@JFNIOLAK@string?5too?5long?$AA@
CONST	SEGMENT
??_C@_0BA@JFNIOLAK@string?5too?5long?$AA@ DB 'string too long', 00H ; `string'
CONST	ENDS
;	COMDAT ??_C@_0BI@CFPLBAOH@invalid?5string?5position?$AA@
CONST	SEGMENT
??_C@_0BI@CFPLBAOH@invalid?5string?5position?$AA@ DB 'invalid string posi'
	DB	'tion', 00H					; `string'
CONST	ENDS
;	COMDAT ??_C@_04NLFHDAEB@SWAP?$AA@
CONST	SEGMENT
??_C@_04NLFHDAEB@SWAP?$AA@ DB 'SWAP', 00H		; `string'
CONST	ENDS
;	COMDAT ??_C@_04IILMDFMO@MENU?$AA@
CONST	SEGMENT
??_C@_04IILMDFMO@MENU?$AA@ DB 'MENU', 00H		; `string'
CONST	ENDS
;	COMDAT ??_C@_03OONHJAKL@SMS?$AA@
CONST	SEGMENT
??_C@_03OONHJAKL@SMS?$AA@ DB 'SMS', 00H			; `string'
CONST	ENDS
;	COMDAT ??_C@_06MNODKNNC@SILENT?$AA@
CONST	SEGMENT
??_C@_06MNODKNNC@SILENT?$AA@ DB 'SILENT', 00H		; `string'
CONST	ENDS
;	COMDAT ??_C@_03KDFFCEML@RDY?$AA@
CONST	SEGMENT
??_C@_03KDFFCEML@RDY?$AA@ DB 'RDY', 00H			; `string'
CONST	ENDS
;	COMDAT ??_C@_05DHIGAFHJ@QUIET?$AA@
CONST	SEGMENT
??_C@_05DHIGAFHJ@QUIET?$AA@ DB 'QUIET', 00H		; `string'
CONST	ENDS
;	COMDAT ??_C@_04LKFIONEM@DCLT?$AA@
CONST	SEGMENT
??_C@_04LKFIONEM@DCLT?$AA@ DB 'DCLT', 00H		; `string'
CONST	ENDS
;	COMDAT ??_C@_05CJNIOAFN@XX?3XX?$AA@
CONST	SEGMENT
??_C@_05CJNIOAFN@XX?3XX?$AA@ DB 'XX:XX', 00H		; `string'
CONST	ENDS
;	COMDAT ??_C@_0L@JMLBFLDA@?9?$CF02d?3?$CF02d?$AA@
CONST	SEGMENT
??_C@_0L@JMLBFLDA@?9?$CF02d?3?$CF02d?$AA@ DB '-%02d:%02d', 00H ; `string'
CONST	ENDS
;	COMDAT ??_C@_0N@FDANDMFD@?5?5?9?$CF02d?3?$CF02d?$AA@
CONST	SEGMENT
??_C@_0N@FDANDMFD@?5?5?9?$CF02d?3?$CF02d?$AA@ DB '  -%02d:%02d', 00H ; `string'
CONST	ENDS
;	COMDAT ??_C@_0N@JIJJHBFE@?5?5?5?$CF02d?3?$CF02d?$AA@
CONST	SEGMENT
??_C@_0N@JIJJHBFE@?5?5?5?$CF02d?3?$CF02d?$AA@ DB '   %02d:%02d', 00H ; `string'
CONST	ENDS
;	COMDAT ??_C@_09JFBOEAOE@?$CF03d?3?$CF02d?$AA@
CONST	SEGMENT
??_C@_09JFBOEAOE@?$CF03d?3?$CF02d?$AA@ DB '%03d:%02d', 00H ; `string'
CONST	ENDS
;	COMDAT ??_C@_01DHDKHMHF@6?$AA@
CONST	SEGMENT
??_C@_01DHDKHMHF@6?$AA@ DB '6', 00H			; `string'
CONST	ENDS
;	COMDAT ??_C@_01FHEEJDEE@A?$AA@
CONST	SEGMENT
??_C@_01FHEEJDEE@A?$AA@ DB 'A', 00H			; `string'
CONST	ENDS
;	COMDAT ??_C@_04GHNNFJCK@?$CF?40f?$AA@
CONST	SEGMENT
??_C@_04GHNNFJCK@?$CF?40f?$AA@ DB '%.0f', 00H		; `string'
CONST	ENDS
;	COMDAT ??_C@_02DCDGKAKK@CZ?$AA@
CONST	SEGMENT
??_C@_02DCDGKAKK@CZ?$AA@ DB 'CZ', 00H			; `string'
CONST	ENDS
;	COMDAT ??_C@_03NGANFLJH@STP?$AA@
CONST	SEGMENT
??_C@_03NGANFLJH@STP?$AA@ DB 'STP', 00H			; `string'
CONST	ENDS
;	COMDAT ??_C@_02NEPPOLFA@SP?$AA@
CONST	SEGMENT
??_C@_02NEPPOLFA@SP?$AA@ DB 'SP', 00H			; `string'
CONST	ENDS
;	COMDAT ??_C@_02DEPNGCEB@FZ?$AA@
CONST	SEGMENT
??_C@_02DEPNGCEB@FZ?$AA@ DB 'FZ', 00H			; `string'
CONST	ENDS
;	COMDAT ??_C@_04CAJPJFIH@BARO?$AA@
CONST	SEGMENT
??_C@_04CAJPJFIH@BARO?$AA@ DB 'BARO', 00H		; `string'
CONST	ENDS
;	COMDAT ??_C@_04GKDMIDBA@CNTL?$AA@
CONST	SEGMENT
??_C@_04GKDMIDBA@CNTL?$AA@ DB 'CNTL', 00H		; `string'
CONST	ENDS
;	COMDAT ??_C@_04PGDFOHNL@OVRD?$AA@
CONST	SEGMENT
??_C@_04PGDFOHNL@OVRD?$AA@ DB 'OVRD', 00H		; `string'
CONST	ENDS
;	COMDAT ??_C@_04CGDJKCEF@DBS2?$AA@
CONST	SEGMENT
??_C@_04CGDJKCEF@DBS2?$AA@ DB 'DBS2', 00H		; `string'
CONST	ENDS
;	COMDAT ??_C@_04NBEPBIG@DBS1?$AA@
CONST	SEGMENT
??_C@_04NBEPBIG@DBS1?$AA@ DB 'DBS1', 00H		; `string'
CONST	ENDS
;	COMDAT ??_C@_03KKGFKKLA@EXP?$AA@
CONST	SEGMENT
??_C@_03KKGFKKLA@EXP?$AA@ DB 'EXP', 00H			; `string'
CONST	ENDS
;	COMDAT ??_C@_04DHIGGNDH@NORM?$AA@
CONST	SEGMENT
??_C@_04DHIGGNDH@NORM?$AA@ DB 'NORM', 00H		; `string'
CONST	ENDS
;	COMDAT ??_C@_03IPJPMEHL@NRM?$AA@
CONST	SEGMENT
??_C@_03IPJPMEHL@NRM?$AA@ DB 'NRM', 00H			; `string'
CONST	ENDS
;	COMDAT ??_C@_03KIGHCFHP@MAN?$AA@
CONST	SEGMENT
??_C@_03KIGHCFHP@MAN?$AA@ DB 'MAN', 00H			; `string'
CONST	ENDS
;	COMDAT ??_C@_04LMMJFDCN@AUTO?$AA@
CONST	SEGMENT
??_C@_04LMMJFDCN@AUTO?$AA@ DB 'AUTO', 00H		; `string'
CONST	ENDS
;	COMDAT ??_C@_03JIDALBMA@SEA?$AA@
CONST	SEGMENT
??_C@_03JIDALBMA@SEA?$AA@ DB 'SEA', 00H			; `string'
CONST	ENDS
;	COMDAT ??_C@_03HOONMGKE@GMT?$AA@
CONST	SEGMENT
??_C@_03HOONMGKE@GMT?$AA@ DB 'GMT', 00H			; `string'
CONST	ENDS
;	COMDAT ??_C@_02DALMIMOA@GM?$AA@
CONST	SEGMENT
??_C@_02DALMIMOA@GM?$AA@ DB 'GM', 00H			; `string'
CONST	ENDS
;	COMDAT ?MAX_GAIN@?MA@??GMDisplay@RadarDopplerClass@@IAEXXZ@4MA
_DATA	SEGMENT
?MAX_GAIN@?MA@??GMDisplay@RadarDopplerClass@@IAEXXZ@4MA DD 041c80000r ; 25 ; `RadarDopplerClass::GMDisplay'::`192'::MAX_GAIN
_DATA	ENDS
;	COMDAT ?size@?LA@??GMDisplay@RadarDopplerClass@@IAEXXZ@4MB
CONST	SEGMENT
?size@?LA@??GMDisplay@RadarDopplerClass@@IAEXXZ@4MB DD 03d851eb8r ; 0.065 ; `RadarDopplerClass::GMDisplay'::`176'::size
CONST	ENDS
;	COMDAT ?size@?IL@??GMDisplay@RadarDopplerClass@@IAEXXZ@4MB
CONST	SEGMENT
?size@?IL@??GMDisplay@RadarDopplerClass@@IAEXXZ@4MB DD 03d851eb8r ; 0.065 ; `RadarDopplerClass::GMDisplay'[::L]::size
CONST	ENDS
;	COMDAT ??_C@_06FHFOAHML@system?$AA@
CONST	SEGMENT
??_C@_06FHFOAHML@system?$AA@ DB 'system', 00H		; `string'
CONST	ENDS
;	COMDAT ??_7_System_error_category@std@@6B@
CONST	SEGMENT
??_7_System_error_category@std@@6B@ DD FLAT:??_R4_System_error_category@std@@6B@ ; std::_System_error_category::`vftable'
	DD	FLAT:??_E_System_error_category@std@@UAEPAXI@Z
	DD	FLAT:?name@_System_error_category@std@@UBEPBDXZ
	DD	FLAT:?message@_System_error_category@std@@UBE?AV?$basic_string@DU?$char_traits@D@std@@V?$allocator@D@2@@2@H@Z
	DD	FLAT:?default_error_condition@_System_error_category@std@@UBE?AVerror_condition@2@H@Z
	DD	FLAT:?equivalent@error_category@std@@UBE_NABVerror_code@2@H@Z
	DD	FLAT:?equivalent@error_category@std@@UBE_NHABVerror_condition@2@@Z
CONST	ENDS
;	COMDAT ??_C@_0BG@PADBLCHM@iostream?5stream?5error?$AA@
CONST	SEGMENT
??_C@_0BG@PADBLCHM@iostream?5stream?5error?$AA@ DB 'iostream stream error'
	DB	00H						; `string'
CONST	ENDS
;	COMDAT ??_C@_08LLGCOLLL@iostream?$AA@
CONST	SEGMENT
??_C@_08LLGCOLLL@iostream?$AA@ DB 'iostream', 00H	; `string'
CONST	ENDS
;	COMDAT ??_7_Iostream_error_category@std@@6B@
CONST	SEGMENT
??_7_Iostream_error_category@std@@6B@ DD FLAT:??_R4_Iostream_error_category@std@@6B@ ; std::_Iostream_error_category::`vftable'
	DD	FLAT:??_E_Iostream_error_category@std@@UAEPAXI@Z
	DD	FLAT:?name@_Iostream_error_category@std@@UBEPBDXZ
	DD	FLAT:?message@_Iostream_error_category@std@@UBE?AV?$basic_string@DU?$char_traits@D@std@@V?$allocator@D@2@@2@H@Z
	DD	FLAT:?default_error_condition@error_category@std@@UBE?AVerror_condition@2@H@Z
	DD	FLAT:?equivalent@error_category@std@@UBE_NABVerror_code@2@H@Z
	DD	FLAT:?equivalent@error_category@std@@UBE_NHABVerror_condition@2@@Z
CONST	ENDS
;	COMDAT ??_C@_0O@BFJCFAAK@unknown?5error?$AA@
CONST	SEGMENT
??_C@_0O@BFJCFAAK@unknown?5error?$AA@ DB 'unknown error', 00H ; `string'
CONST	ENDS
;	COMDAT ??_C@_07DCLBNMLN@generic?$AA@
CONST	SEGMENT
??_C@_07DCLBNMLN@generic?$AA@ DB 'generic', 00H		; `string'
CONST	ENDS
;	COMDAT ??_7_Generic_error_category@std@@6B@
CONST	SEGMENT
??_7_Generic_error_category@std@@6B@ DD FLAT:??_R4_Generic_error_category@std@@6B@ ; std::_Generic_error_category::`vftable'
	DD	FLAT:??_E_Generic_error_category@std@@UAEPAXI@Z
	DD	FLAT:?name@_Generic_error_category@std@@UBEPBDXZ
	DD	FLAT:?message@_Generic_error_category@std@@UBE?AV?$basic_string@DU?$char_traits@D@std@@V?$allocator@D@2@@2@H@Z
	DD	FLAT:?default_error_condition@error_category@std@@UBE?AVerror_condition@2@H@Z
	DD	FLAT:?equivalent@error_category@std@@UBE_NABVerror_code@2@H@Z
	DD	FLAT:?equivalent@error_category@std@@UBE_NHABVerror_condition@2@@Z
CONST	ENDS
;	COMDAT ??_7error_category@std@@6B@
CONST	SEGMENT
??_7error_category@std@@6B@ DD FLAT:??_R4error_category@std@@6B@ ; std::error_category::`vftable'
	DD	FLAT:??_Eerror_category@std@@UAEPAXI@Z
	DD	FLAT:__purecall
	DD	FLAT:__purecall
	DD	FLAT:?default_error_condition@error_category@std@@UBE?AVerror_condition@2@H@Z
	DD	FLAT:?equivalent@error_category@std@@UBE_NABVerror_code@2@H@Z
	DD	FLAT:?equivalent@error_category@std@@UBE_NHABVerror_condition@2@@Z
CONST	ENDS
;	COMDAT ??_C@_00CNPNBAHC@?$AA@
CONST	SEGMENT
??_C@_00CNPNBAHC@?$AA@ DB 00H				; `string'
CONST	ENDS
;	COMDAT xdata$x
xdata$x	SEGMENT
__unwindtable$??$construct@PADAAPAD@?$allocator@D@std@@QAEXPAPADAAPAD@Z DD 0ffffffffH
	DD	FLAT:__unwindfunclet$??$construct@PADAAPAD@?$allocator@D@std@@QAEXPAPADAAPAD@Z$0
__ehfuncinfo$??$construct@PADAAPAD@?$allocator@D@std@@QAEXPAPADAAPAD@Z DD 019930522H
	DD	01H
	DD	FLAT:__unwindtable$??$construct@PADAAPAD@?$allocator@D@std@@QAEXPAPADAAPAD@Z
	DD	2 DUP(00H)
	DD	2 DUP(00H)
	DD	00H
	DD	01H
xdata$x	ENDS
xdata$x	SEGMENT
__unwindtable$?DoGMDesignate@RadarDopplerClass@@IAEXPAVGMList@1@@Z DD 0ffffffffH
	DD	FLAT:__unwindfunclet$?DoGMDesignate@RadarDopplerClass@@IAEXPAVGMList@1@@Z$0
__unwindtable$?SetGMScan@RadarDopplerClass@@IAEXXZ DD 0ffffffffH
	DD	FLAT:__unwindfunclet$?SetGMScan@RadarDopplerClass@@IAEXXZ$0
__ehfuncinfo$?DoGMDesignate@RadarDopplerClass@@IAEXPAVGMList@1@@Z DD 019930522H
	DD	01H
	DD	FLAT:__unwindtable$?DoGMDesignate@RadarDopplerClass@@IAEXPAVGMList@1@@Z
	DD	2 DUP(00H)
	DD	2 DUP(00H)
	DD	00H
	DD	01H
__ehfuncinfo$?SetGMScan@RadarDopplerClass@@IAEXXZ DD 019930522H
	DD	01H
	DD	FLAT:__unwindtable$?SetGMScan@RadarDopplerClass@@IAEXXZ
	DD	2 DUP(00H)
	DD	2 DUP(00H)
	DD	00H
	DD	01H
__ehfuncinfo$?GMMode@RadarDopplerClass@@IAEXXZ DD 019930522H
	DD	09H
	DD	FLAT:__unwindtable$?GMMode@RadarDopplerClass@@IAEXXZ
	DD	2 DUP(00H)
	DD	2 DUP(00H)
	DD	00H
	DD	01H
__unwindtable$?GMMode@RadarDopplerClass@@IAEXXZ DD 0ffffffffH
	DD	FLAT:__unwindfunclet$?GMMode@RadarDopplerClass@@IAEXXZ$0
	DD	00H
	DD	FLAT:__unwindfunclet$?GMMode@RadarDopplerClass@@IAEXXZ$1
	DD	01H
	DD	FLAT:__unwindfunclet$?GMMode@RadarDopplerClass@@IAEXXZ$2
	DD	01H
	DD	FLAT:__unwindfunclet$?GMMode@RadarDopplerClass@@IAEXXZ$3
	DD	01H
	DD	FLAT:__unwindfunclet$?GMMode@RadarDopplerClass@@IAEXXZ$4
	DD	01H
	DD	FLAT:__unwindfunclet$?GMMode@RadarDopplerClass@@IAEXXZ$5
	DD	01H
	DD	FLAT:__unwindfunclet$?GMMode@RadarDopplerClass@@IAEXXZ$6
	DD	01H
	DD	FLAT:__unwindfunclet$?GMMode@RadarDopplerClass@@IAEXXZ$7
	DD	01H
	DD	FLAT:__unwindfunclet$?GMMode@RadarDopplerClass@@IAEXXZ$8
xdata$x	ENDS
;	COMDAT xdata$x
xdata$x	SEGMENT
__catchsym$?_Copy@?$basic_string@DU?$char_traits@D@std@@V?$allocator@D@2@@std@@QAEXII@Z$5 DD 040H
	DD	00H
	DD	00H
	DD	FLAT:__catch$?_Copy@?$basic_string@DU?$char_traits@D@std@@V?$allocator@D@2@@std@@QAEXII@Z$0
__catchsym$?_Copy@?$basic_string@DU?$char_traits@D@std@@V?$allocator@D@2@@std@@QAEXII@Z$4 DD 040H
	DD	00H
	DD	00H
	DD	FLAT:__catch$?_Copy@?$basic_string@DU?$char_traits@D@std@@V?$allocator@D@2@@std@@QAEXII@Z$1
__unwindtable$?_Copy@?$basic_string@DU?$char_traits@D@std@@V?$allocator@D@2@@std@@QAEXII@Z DD 0ffffffffH
	DD	00H
	DD	0ffffffffH
	DD	00H
	DD	01H
	DD	00H
	DD	01H
	DD	00H
__ehfuncinfo$?_Copy@?$basic_string@DU?$char_traits@D@std@@V?$allocator@D@2@@std@@QAEXII@Z DD 019930522H
	DD	04H
	DD	FLAT:__unwindtable$?_Copy@?$basic_string@DU?$char_traits@D@std@@V?$allocator@D@2@@std@@QAEXII@Z
	DD	02H
	DD	FLAT:__tryblocktable$?_Copy@?$basic_string@DU?$char_traits@D@std@@V?$allocator@D@2@@std@@QAEXII@Z
	DD	2 DUP(00H)
	DD	00H
	DD	01H
__tryblocktable$?_Copy@?$basic_string@DU?$char_traits@D@std@@V?$allocator@D@2@@std@@QAEXII@Z DD 02H
	DD	02H
	DD	03H
	DD	01H
	DD	FLAT:__catchsym$?_Copy@?$basic_string@DU?$char_traits@D@std@@V?$allocator@D@2@@std@@QAEXII@Z$4
	DD	00H
	DD	00H
	DD	03H
	DD	01H
	DD	FLAT:__catchsym$?_Copy@?$basic_string@DU?$char_traits@D@std@@V?$allocator@D@2@@std@@QAEXII@Z$5
xdata$x	ENDS
CRT$XCU	SEGMENT
_allocator_arg$initializer$ DD FLAT:??__Eallocator_arg@std@@YAXXZ
CRT$XCU	ENDS
CRT$XCU	SEGMENT
_GM_OVERSCAN_RNG$initializer$ DD FLAT:??__EGM_OVERSCAN_RNG@@YAXXZ
CRT$XCU	ENDS
CRT$XCU	SEGMENT
_GM_OVERSCAN_H$initializer$ DD FLAT:??__EGM_OVERSCAN_H@@YAXXZ
CRT$XCU	ENDS
CRT$XCU	SEGMENT
_GM_OVERSCAN_V$initializer$ DD FLAT:??__EGM_OVERSCAN_V@@YAXXZ
CRT$XCU	ENDS
CRT$XCU	SEGMENT
_SIN_RADAR_CONE_ANGLE$initializer$ DD FLAT:??__ESIN_RADAR_CONE_ANGLE@@YAXXZ
CRT$XCU	ENDS
CRT$XCU	SEGMENT
_COS_RADAR_CONE_ANGLE$initializer$ DD FLAT:??__ECOS_RADAR_CONE_ANGLE@@YAXXZ
CRT$XCU	ENDS
CRT$XCU	SEGMENT
_TAN_RADAR_CONE_ANGLE$initializer$ DD FLAT:??__ETAN_RADAR_CONE_ANGLE@@YAXXZ
CRT$XCU	ENDS
;	COMDAT CRT$XCU
CRT$XCU	SEGMENT
?_Generic_object$initializer$@?$_Error_objects@H@std@@2P6AXXZA DD FLAT:??__E?_Generic_object@?$_Error_objects@H@std@@2V_Generic_error_category@2@A@@YAXXZ ; std::_Error_objects<int>::_Generic_object$initializer$
CRT$XCU	ENDS
;	COMDAT CRT$XCU
CRT$XCU	SEGMENT
?_Iostream_object$initializer$@?$_Error_objects@H@std@@2P6AXXZA DD FLAT:??__E?_Iostream_object@?$_Error_objects@H@std@@2V_Iostream_error_category@2@A@@YAXXZ ; std::_Error_objects<int>::_Iostream_object$initializer$
CRT$XCU	ENDS
;	COMDAT CRT$XCU
CRT$XCU	SEGMENT
?_System_object$initializer$@?$_Error_objects@H@std@@2P6AXXZA DD FLAT:??__E?_System_object@?$_Error_objects@H@std@@2V_System_error_category@2@A@@YAXXZ ; std::_Error_objects<int>::_System_object$initializer$
CRT$XCU	ENDS
;	COMDAT CRT$XCU
CRT$XCU	SEGMENT
?id$initializer$@?$num_put@DV?$back_insert_iterator@V?$basic_string@DU?$char_traits@D@std@@V?$allocator@D@2@@std@@@std@@@std@@2P6AXXZA DD FLAT:??__E?id@?$num_put@DV?$back_insert_iterator@V?$basic_string@DU?$char_traits@D@std@@V?$allocator@D@2@@std@@@std@@@std@@2V0locale@2@A@@YAXXZ ; std::num_put<char,std::back_insert_iterator<std::basic_string<char,std::char_traits<char>,std::allocator<char> > > >::id$initializer$
CRT$XCU	ENDS
;	COMDAT CRT$XCU
CRT$XCU	SEGMENT
?id$initializer$@?$num_put@_WV?$back_insert_iterator@V?$basic_string@_WU?$char_traits@_W@std@@V?$allocator@_W@2@@std@@@std@@@std@@2P6AXXZA DD FLAT:??__E?id@?$num_put@_WV?$back_insert_iterator@V?$basic_string@_WU?$char_traits@_W@std@@V?$allocator@_W@2@@std@@@std@@@std@@2V0locale@2@A@@YAXXZ ; std::num_put<wchar_t,std::back_insert_iterator<std::basic_string<wchar_t,std::char_traits<wchar_t>,std::allocator<wchar_t> > > >::id$initializer$
CRT$XCU	ENDS
;	COMDAT CRT$XCU
CRT$XCU	SEGMENT
?id$initializer$@?$numpunct@D@std@@2P6AXXZA DD FLAT:??__E?id@?$numpunct@D@std@@2V0locale@2@A@@YAXXZ ; std::numpunct<char>::id$initializer$
CRT$XCU	ENDS
;	COMDAT CRT$XCU
CRT$XCU	SEGMENT
?id$initializer$@?$numpunct@_W@std@@2P6AXXZA DD FLAT:??__E?id@?$numpunct@_W@std@@2V0locale@2@A@@YAXXZ ; std::numpunct<wchar_t>::id$initializer$
CRT$XCU	ENDS
; Function compile flags: /Odtp
; File c:\program files (x86)\microsoft visual studio 11.0\vc\include\xmemory0
;	COMDAT ??$destroy@PAD@?$allocator@D@std@@QAEXPAPAD@Z
_TEXT	SEGMENT
_this$ = -4						; size = 4
__Ptr$ = 8						; size = 4
??$destroy@PAD@?$allocator@D@std@@QAEXPAPAD@Z PROC	; std::allocator<char>::destroy<char *>, COMDAT
; _this$ = ecx

; 621  : 		void destroy(_Uty *_Ptr)

	push	ebp
	mov	ebp, esp
	push	ecx
	mov	DWORD PTR _this$[ebp], ecx

; 622  : 		{	// destroy object at _Ptr
; 623  : 		_Ptr->~_Uty();
; 624  : 		}

	mov	esp, ebp
	pop	ebp
	ret	4
??$destroy@PAD@?$allocator@D@std@@QAEXPAPAD@Z ENDP	; std::allocator<char>::destroy<char *>
_TEXT	ENDS
; Function compile flags: /Odtp
; File c:\program files (x86)\microsoft visual studio 11.0\vc\include\xmemory0
;	COMDAT ??$construct@PADAAPAD@?$allocator@D@std@@QAEXPAPADAAPAD@Z
_TEXT	SEGMENT
$T2 = -28						; size = 4
_this$ = -24						; size = 4
tv73 = -20						; size = 4
$T3 = -16						; size = 4
__$EHRec$ = -12						; size = 12
__Ptr$ = 8						; size = 4
__V0$ = 12						; size = 4
??$construct@PADAAPAD@?$allocator@D@std@@QAEXPAPADAAPAD@Z PROC ; std::allocator<char>::construct<char *,char * &>, COMDAT
; _this$ = ecx

; 617  : _VARIADIC_EXPAND_0X(_ALLOC_MEMBER_CONSTRUCT, , , , )

	push	ebp
	mov	ebp, esp
	push	-1
	push	__ehhandler$??$construct@PADAAPAD@?$allocator@D@std@@QAEXPAPADAAPAD@Z
	mov	eax, DWORD PTR fs:0
	push	eax
	sub	esp, 16					; 00000010H
	mov	eax, DWORD PTR ___security_cookie
	xor	eax, ebp
	push	eax
	lea	eax, DWORD PTR __$EHRec$[ebp]
	mov	DWORD PTR fs:0, eax
	mov	DWORD PTR _this$[ebp], ecx
	mov	eax, DWORD PTR __Ptr$[ebp]
	push	eax
	push	4
	call	??2@YAPAXIPAX@Z				; operator new
	add	esp, 8
	mov	DWORD PTR $T3[ebp], eax
	mov	DWORD PTR __$EHRec$[ebp+8], 0
	cmp	DWORD PTR $T3[ebp], 0
	je	SHORT $LN3@construct
	mov	ecx, DWORD PTR __V0$[ebp]
	push	ecx
	call	??$forward@AAPAD@std@@YAAAPADAAPAD@Z	; std::forward<char * &>
	add	esp, 4
	mov	edx, DWORD PTR $T3[ebp]
	mov	eax, DWORD PTR [eax]
	mov	DWORD PTR [edx], eax
	mov	ecx, DWORD PTR $T3[ebp]
	mov	DWORD PTR tv73[ebp], ecx
	jmp	SHORT $LN4@construct
$LN3@construct:
	mov	DWORD PTR tv73[ebp], 0
$LN4@construct:
	mov	edx, DWORD PTR tv73[ebp]
	mov	DWORD PTR $T2[ebp], edx
	mov	DWORD PTR __$EHRec$[ebp+8], -1
	mov	ecx, DWORD PTR __$EHRec$[ebp]
	mov	DWORD PTR fs:0, ecx
	pop	ecx
	mov	esp, ebp
	pop	ebp
	ret	8
_TEXT	ENDS
;	COMDAT text$x
text$x	SEGMENT
__unwindfunclet$??$construct@PADAAPAD@?$allocator@D@std@@QAEXPAPADAAPAD@Z$0:
	mov	eax, DWORD PTR __Ptr$[ebp]
	push	eax
	mov	eax, DWORD PTR $T3[ebp]
	push	eax
	call	??3@YAXPAX0@Z				; operator delete
	add	esp, 8
	ret	0
__ehhandler$??$construct@PADAAPAD@?$allocator@D@std@@QAEXPAPADAAPAD@Z:
	mov	edx, DWORD PTR [esp+8]
	lea	eax, DWORD PTR [edx+12]
	mov	ecx, DWORD PTR [edx-20]
	xor	ecx, eax
	call	@__security_check_cookie@4
	mov	eax, OFFSET __ehfuncinfo$??$construct@PADAAPAD@?$allocator@D@std@@QAEXPAPADAAPAD@Z
	jmp	___CxxFrameHandler3
text$x	ENDS
??$construct@PADAAPAD@?$allocator@D@std@@QAEXPAPADAAPAD@Z ENDP ; std::allocator<char>::construct<char *,char * &>
; Function compile flags: /Odtp
; File c:\program files (x86)\microsoft visual studio 11.0\vc\include\xlocnum
;	COMDAT ??__E?id@?$numpunct@_W@std@@2V0locale@2@A@@YAXXZ
text$yc	SEGMENT
??__E?id@?$numpunct@_W@std@@2V0locale@2@A@@YAXXZ PROC	; `dynamic initializer for 'std::numpunct<wchar_t>::id'', COMDAT

; 155  : 		void _Getvals(wchar_t, const lconv *_Ptr, _Locinfo::_Cvtvec)

	push	ebp
	mov	ebp, esp
	push	0
	mov	ecx, OFFSET ?id@?$numpunct@_W@std@@2V0locale@2@A ; std::numpunct<wchar_t>::id
	call	??0id@locale@std@@QAE@I@Z		; std::locale::id::id
	pop	ebp
	ret	0
??__E?id@?$numpunct@_W@std@@2V0locale@2@A@@YAXXZ ENDP	; `dynamic initializer for 'std::numpunct<wchar_t>::id''
text$yc	ENDS
; Function compile flags: /Odtp
; File c:\program files (x86)\microsoft visual studio 11.0\vc\include\xlocnum
;	COMDAT ??__E?id@?$numpunct@D@std@@2V0locale@2@A@@YAXXZ
text$yc	SEGMENT
??__E?id@?$numpunct@D@std@@2V0locale@2@A@@YAXXZ PROC	; `dynamic initializer for 'std::numpunct<char>::id'', COMDAT

; 155  : 		void _Getvals(wchar_t, const lconv *_Ptr, _Locinfo::_Cvtvec)

	push	ebp
	mov	ebp, esp
	push	0
	mov	ecx, OFFSET ?id@?$numpunct@D@std@@2V0locale@2@A ; std::numpunct<char>::id
	call	??0id@locale@std@@QAE@I@Z		; std::locale::id::id
	pop	ebp
	ret	0
??__E?id@?$numpunct@D@std@@2V0locale@2@A@@YAXXZ ENDP	; `dynamic initializer for 'std::numpunct<char>::id''
text$yc	ENDS
; Function compile flags: /Odtp
; File c:\program files (x86)\microsoft visual studio 11.0\vc\include\xlocnum
;	COMDAT ??__E?id@?$num_put@_WV?$back_insert_iterator@V?$basic_string@_WU?$char_traits@_W@std@@V?$allocator@_W@2@@std@@@std@@@std@@2V0locale@2@A@@YAXXZ
text$yc	SEGMENT
??__E?id@?$num_put@_WV?$back_insert_iterator@V?$basic_string@_WU?$char_traits@_W@std@@V?$allocator@_W@2@@std@@@std@@@std@@2V0locale@2@A@@YAXXZ PROC ; `dynamic initializer for 'std::num_put<wchar_t,std::back_insert_iterator<std::basic_string<wchar_t,std::char_traits<wchar_t>,std::allocator<wchar_t> > > >::id'', COMDAT

; 155  : 		void _Getvals(wchar_t, const lconv *_Ptr, _Locinfo::_Cvtvec)

	push	ebp
	mov	ebp, esp
	push	0
	mov	ecx, OFFSET ?id@?$num_put@_WV?$back_insert_iterator@V?$basic_string@_WU?$char_traits@_W@std@@V?$allocator@_W@2@@std@@@std@@@std@@2V0locale@2@A ; std::num_put<wchar_t,std::back_insert_iterator<std::basic_string<wchar_t,std::char_traits<wchar_t>,std::allocator<wchar_t> > > >::id
	call	??0id@locale@std@@QAE@I@Z		; std::locale::id::id
	pop	ebp
	ret	0
??__E?id@?$num_put@_WV?$back_insert_iterator@V?$basic_string@_WU?$char_traits@_W@std@@V?$allocator@_W@2@@std@@@std@@@std@@2V0locale@2@A@@YAXXZ ENDP ; `dynamic initializer for 'std::num_put<wchar_t,std::back_insert_iterator<std::basic_string<wchar_t,std::char_traits<wchar_t>,std::allocator<wchar_t> > > >::id''
text$yc	ENDS
; Function compile flags: /Odtp
; File c:\program files (x86)\microsoft visual studio 11.0\vc\include\xlocnum
;	COMDAT ??__E?id@?$num_put@DV?$back_insert_iterator@V?$basic_string@DU?$char_traits@D@std@@V?$allocator@D@2@@std@@@std@@@std@@2V0locale@2@A@@YAXXZ
text$yc	SEGMENT
??__E?id@?$num_put@DV?$back_insert_iterator@V?$basic_string@DU?$char_traits@D@std@@V?$allocator@D@2@@std@@@std@@@std@@2V0locale@2@A@@YAXXZ PROC ; `dynamic initializer for 'std::num_put<char,std::back_insert_iterator<std::basic_string<char,std::char_traits<char>,std::allocator<char> > > >::id'', COMDAT

; 155  : 		void _Getvals(wchar_t, const lconv *_Ptr, _Locinfo::_Cvtvec)

	push	ebp
	mov	ebp, esp
	push	0
	mov	ecx, OFFSET ?id@?$num_put@DV?$back_insert_iterator@V?$basic_string@DU?$char_traits@D@std@@V?$allocator@D@2@@std@@@std@@@std@@2V0locale@2@A ; std::num_put<char,std::back_insert_iterator<std::basic_string<char,std::char_traits<char>,std::allocator<char> > > >::id
	call	??0id@locale@std@@QAE@I@Z		; std::locale::id::id
	pop	ebp
	ret	0
??__E?id@?$num_put@DV?$back_insert_iterator@V?$basic_string@DU?$char_traits@D@std@@V?$allocator@D@2@@std@@@std@@@std@@2V0locale@2@A@@YAXXZ ENDP ; `dynamic initializer for 'std::num_put<char,std::back_insert_iterator<std::basic_string<char,std::char_traits<char>,std::allocator<char> > > >::id''
text$yc	ENDS
; Function compile flags: /Odtp
; File c:\program files (x86)\microsoft visual studio 11.0\vc\include\xmemory0
;	COMDAT ??$destroy@PAD@?$allocator_traits@V?$allocator@D@std@@@std@@SAXAAV?$allocator@D@1@PAPAD@Z
_TEXT	SEGMENT
__Al$ = 8						; size = 4
__Ptr$ = 12						; size = 4
??$destroy@PAD@?$allocator_traits@V?$allocator@D@std@@@std@@SAXAAV?$allocator@D@1@PAPAD@Z PROC ; std::allocator_traits<std::allocator<char> >::destroy<char *>, COMDAT

; 755  : 		static void destroy(_Alloc& _Al, _Uty *_Ptr)

	push	ebp
	mov	ebp, esp

; 756  : 		{	// destroy object at _Ptr
; 757  : 		_Al.destroy(_Ptr);

	mov	eax, DWORD PTR __Ptr$[ebp]
	push	eax
	mov	ecx, DWORD PTR __Al$[ebp]
	call	??$destroy@PAD@?$allocator@D@std@@QAEXPAPAD@Z ; std::allocator<char>::destroy<char *>

; 758  : 		}

	pop	ebp
	ret	0
??$destroy@PAD@?$allocator_traits@V?$allocator@D@std@@@std@@SAXAAV?$allocator@D@1@PAPAD@Z ENDP ; std::allocator_traits<std::allocator<char> >::destroy<char *>
_TEXT	ENDS
; Function compile flags: /Odtp
; File c:\program files (x86)\microsoft visual studio 11.0\vc\include\xmemory0
;	COMDAT ??$construct@PADAAPAD@?$allocator_traits@V?$allocator@D@std@@@std@@SAXAAV?$allocator@D@1@PAPADAAPAD@Z
_TEXT	SEGMENT
__Al$ = 8						; size = 4
__Ptr$ = 12						; size = 4
__V0$ = 16						; size = 4
??$construct@PADAAPAD@?$allocator_traits@V?$allocator@D@std@@@std@@SAXAAV?$allocator@D@1@PAPADAAPAD@Z PROC ; std::allocator_traits<std::allocator<char> >::construct<char *,char * &>, COMDAT

; 751  : _VARIADIC_EXPAND_0X(_ALLOC_TRAITS_SPECIAL_CONSTRUCT, , , , )

	push	ebp
	mov	ebp, esp
	mov	eax, DWORD PTR __V0$[ebp]
	push	eax
	call	??$forward@AAPAD@std@@YAAAPADAAPAD@Z	; std::forward<char * &>
	add	esp, 4
	push	eax
	mov	ecx, DWORD PTR __Ptr$[ebp]
	push	ecx
	mov	ecx, DWORD PTR __Al$[ebp]
	call	??$construct@PADAAPAD@?$allocator@D@std@@QAEXPAPADAAPAD@Z ; std::allocator<char>::construct<char *,char * &>
	pop	ebp
	ret	0
??$construct@PADAAPAD@?$allocator_traits@V?$allocator@D@std@@@std@@SAXAAV?$allocator@D@1@PAPADAAPAD@Z ENDP ; std::allocator_traits<std::allocator<char> >::construct<char *,char * &>
_TEXT	ENDS
; Function compile flags: /Odtp
; File c:\program files (x86)\microsoft visual studio 11.0\vc\include\type_traits
;	COMDAT ??$forward@AAPAD@std@@YAAAPADAAPAD@Z
_TEXT	SEGMENT
__Arg$ = 8						; size = 4
??$forward@AAPAD@std@@YAAAPADAAPAD@Z PROC		; std::forward<char * &>, COMDAT

; 1775 : 	{	// forward an lvalue

	push	ebp
	mov	ebp, esp

; 1776 : 	return (static_cast<_Ty&&>(_Arg));

	mov	eax, DWORD PTR __Arg$[ebp]

; 1777 : 	}

	pop	ebp
	ret	0
??$forward@AAPAD@std@@YAAAPADAAPAD@Z ENDP		; std::forward<char * &>
_TEXT	ENDS
; Function compile flags: /Odtp
;	COMDAT ??__F?_System_object@?$_Error_objects@H@std@@2V_System_error_category@2@A@@YAXXZ
text$yd	SEGMENT
??__F?_System_object@?$_Error_objects@H@std@@2V_System_error_category@2@A@@YAXXZ PROC ; `dynamic atexit destructor for 'std::_Error_objects<int>::_System_object'', COMDAT
	push	ebp
	mov	ebp, esp
	mov	ecx, OFFSET ?_System_object@?$_Error_objects@H@std@@2V_System_error_category@2@A ; std::_Error_objects<int>::_System_object
	call	??1_System_error_category@std@@UAE@XZ
	pop	ebp
	ret	0
??__F?_System_object@?$_Error_objects@H@std@@2V_System_error_category@2@A@@YAXXZ ENDP ; `dynamic atexit destructor for 'std::_Error_objects<int>::_System_object''
text$yd	ENDS
; Function compile flags: /Odtp
; File c:\program files (x86)\microsoft visual studio 11.0\vc\include\xmemory0
;	COMDAT ??__E?_System_object@?$_Error_objects@H@std@@2V_System_error_category@2@A@@YAXXZ
text$yc	SEGMENT
??__E?_System_object@?$_Error_objects@H@std@@2V_System_error_category@2@A@@YAXXZ PROC ; `dynamic initializer for 'std::_Error_objects<int>::_System_object'', COMDAT

; 627  : 		{	// estimate maximum array size

	push	ebp
	mov	ebp, esp
	mov	ecx, OFFSET ?_System_object@?$_Error_objects@H@std@@2V_System_error_category@2@A ; std::_Error_objects<int>::_System_object
	call	??0_System_error_category@std@@QAE@XZ	; std::_System_error_category::_System_error_category
	push	OFFSET ??__F?_System_object@?$_Error_objects@H@std@@2V_System_error_category@2@A@@YAXXZ ; `dynamic atexit destructor for 'std::_Error_objects<int>::_System_object''
	call	_atexit
	add	esp, 4
	pop	ebp
	ret	0
??__E?_System_object@?$_Error_objects@H@std@@2V_System_error_category@2@A@@YAXXZ ENDP ; `dynamic initializer for 'std::_Error_objects<int>::_System_object''
text$yc	ENDS
; Function compile flags: /Odtp
;	COMDAT ??__F?_Iostream_object@?$_Error_objects@H@std@@2V_Iostream_error_category@2@A@@YAXXZ
text$yd	SEGMENT
??__F?_Iostream_object@?$_Error_objects@H@std@@2V_Iostream_error_category@2@A@@YAXXZ PROC ; `dynamic atexit destructor for 'std::_Error_objects<int>::_Iostream_object'', COMDAT
	push	ebp
	mov	ebp, esp
	mov	ecx, OFFSET ?_Iostream_object@?$_Error_objects@H@std@@2V_Iostream_error_category@2@A ; std::_Error_objects<int>::_Iostream_object
	call	??1_Iostream_error_category@std@@UAE@XZ
	pop	ebp
	ret	0
??__F?_Iostream_object@?$_Error_objects@H@std@@2V_Iostream_error_category@2@A@@YAXXZ ENDP ; `dynamic atexit destructor for 'std::_Error_objects<int>::_Iostream_object''
text$yd	ENDS
; Function compile flags: /Odtp
; File c:\program files (x86)\microsoft visual studio 11.0\vc\include\xmemory0
;	COMDAT ??__E?_Iostream_object@?$_Error_objects@H@std@@2V_Iostream_error_category@2@A@@YAXXZ
text$yc	SEGMENT
??__E?_Iostream_object@?$_Error_objects@H@std@@2V_Iostream_error_category@2@A@@YAXXZ PROC ; `dynamic initializer for 'std::_Error_objects<int>::_Iostream_object'', COMDAT

; 627  : 		{	// estimate maximum array size

	push	ebp
	mov	ebp, esp
	mov	ecx, OFFSET ?_Iostream_object@?$_Error_objects@H@std@@2V_Iostream_error_category@2@A ; std::_Error_objects<int>::_Iostream_object
	call	??0_Iostream_error_category@std@@QAE@XZ	; std::_Iostream_error_category::_Iostream_error_category
	push	OFFSET ??__F?_Iostream_object@?$_Error_objects@H@std@@2V_Iostream_error_category@2@A@@YAXXZ ; `dynamic atexit destructor for 'std::_Error_objects<int>::_Iostream_object''
	call	_atexit
	add	esp, 4
	pop	ebp
	ret	0
??__E?_Iostream_object@?$_Error_objects@H@std@@2V_Iostream_error_category@2@A@@YAXXZ ENDP ; `dynamic initializer for 'std::_Error_objects<int>::_Iostream_object''
text$yc	ENDS
; Function compile flags: /Odtp
;	COMDAT ??__F?_Generic_object@?$_Error_objects@H@std@@2V_Generic_error_category@2@A@@YAXXZ
text$yd	SEGMENT
??__F?_Generic_object@?$_Error_objects@H@std@@2V_Generic_error_category@2@A@@YAXXZ PROC ; `dynamic atexit destructor for 'std::_Error_objects<int>::_Generic_object'', COMDAT
	push	ebp
	mov	ebp, esp
	mov	ecx, OFFSET ?_Generic_object@?$_Error_objects@H@std@@2V_Generic_error_category@2@A ; std::_Error_objects<int>::_Generic_object
	call	??1_Generic_error_category@std@@UAE@XZ
	pop	ebp
	ret	0
??__F?_Generic_object@?$_Error_objects@H@std@@2V_Generic_error_category@2@A@@YAXXZ ENDP ; `dynamic atexit destructor for 'std::_Error_objects<int>::_Generic_object''
text$yd	ENDS
; Function compile flags: /Odtp
; File c:\program files (x86)\microsoft visual studio 11.0\vc\include\xmemory0
;	COMDAT ??__E?_Generic_object@?$_Error_objects@H@std@@2V_Generic_error_category@2@A@@YAXXZ
text$yc	SEGMENT
??__E?_Generic_object@?$_Error_objects@H@std@@2V_Generic_error_category@2@A@@YAXXZ PROC ; `dynamic initializer for 'std::_Error_objects<int>::_Generic_object'', COMDAT

; 627  : 		{	// estimate maximum array size

	push	ebp
	mov	ebp, esp
	mov	ecx, OFFSET ?_Generic_object@?$_Error_objects@H@std@@2V_Generic_error_category@2@A ; std::_Error_objects<int>::_Generic_object
	call	??0_Generic_error_category@std@@QAE@XZ	; std::_Generic_error_category::_Generic_error_category
	push	OFFSET ??__F?_Generic_object@?$_Error_objects@H@std@@2V_Generic_error_category@2@A@@YAXXZ ; `dynamic atexit destructor for 'std::_Error_objects<int>::_Generic_object''
	call	_atexit
	add	esp, 4
	pop	ebp
	ret	0
??__E?_Generic_object@?$_Error_objects@H@std@@2V_Generic_error_category@2@A@@YAXXZ ENDP ; `dynamic initializer for 'std::_Error_objects<int>::_Generic_object''
text$yc	ENDS
; Function compile flags: /Odtp
; File c:\program files (x86)\microsoft visual studio 11.0\vc\include\xmemory0
;	COMDAT ??$_Allocate@D@std@@YAPADIPAD@Z
_TEXT	SEGMENT
__Ptr$ = -4						; size = 4
__Count$ = 8						; size = 4
___formal$ = 12						; size = 4
??$_Allocate@D@std@@YAPADIPAD@Z PROC			; std::_Allocate<char>, COMDAT

; 22   : 	{	// allocate storage for _Count elements of type _Ty

	push	ebp
	mov	ebp, esp
	push	ecx

; 23   : 	void *_Ptr = 0;

	mov	DWORD PTR __Ptr$[ebp], 0

; 24   : 
; 25   : 	if (_Count == 0)

	cmp	DWORD PTR __Count$[ebp], 0
	jne	SHORT $LN4@Allocate

; 26   : 		;
; 27   : 	else if (((size_t)(-1) / sizeof (_Ty) < _Count)

	jmp	SHORT $LN3@Allocate
$LN4@Allocate:

; 28   : 		|| (_Ptr = ::operator new(_Count * sizeof (_Ty))) == 0)

	cmp	DWORD PTR __Count$[ebp], -1
	ja	SHORT $LN1@Allocate
	mov	eax, DWORD PTR __Count$[ebp]
	push	eax
	call	??2@YAPAXI@Z				; operator new
	add	esp, 4
	mov	DWORD PTR __Ptr$[ebp], eax
	cmp	DWORD PTR __Ptr$[ebp], 0
	jne	SHORT $LN3@Allocate
$LN1@Allocate:

; 29   : 		_Xbad_alloc();	// report no memory

	call	?_Xbad_alloc@std@@YAXXZ			; std::_Xbad_alloc
$LN3@Allocate:

; 30   : 
; 31   : 	return ((_Ty *)_Ptr);

	mov	eax, DWORD PTR __Ptr$[ebp]
$LN6@Allocate:

; 32   : 	}

	mov	esp, ebp
	pop	ebp
	ret	0
??$_Allocate@D@std@@YAPADIPAD@Z ENDP			; std::_Allocate<char>
_TEXT	ENDS
; Function compile flags: /Odtp
; File c:\program files (x86)\microsoft visual studio 11.0\vc\include\xstddef
;	COMDAT ??$addressof@D@std@@YAPADAAD@Z
_TEXT	SEGMENT
__Val$ = 8						; size = 4
??$addressof@D@std@@YAPADAAD@Z PROC			; std::addressof<char>, COMDAT

; 85   : 	{	// return address of _Val

	push	ebp
	mov	ebp, esp

; 86   : 	return (reinterpret_cast<_Ty *>(
; 87   : 		(&const_cast<char&>(
; 88   : 		reinterpret_cast<const volatile char&>(_Val)))));

	mov	eax, DWORD PTR __Val$[ebp]

; 89   : 	}

	pop	ebp
	ret	0
??$addressof@D@std@@YAPADAAD@Z ENDP			; std::addressof<char>
_TEXT	ENDS
; Function compile flags: /Odtp
; File c:\program files (x86)\microsoft visual studio 11.0\vc\include\xmemory0
;	COMDAT ??$destroy@PAD@?$_Wrap_alloc@V?$allocator@D@std@@@std@@QAEXPAPAD@Z
_TEXT	SEGMENT
_this$ = -4						; size = 4
__Ptr$ = 8						; size = 4
??$destroy@PAD@?$_Wrap_alloc@V?$allocator@D@std@@@std@@QAEXPAPAD@Z PROC ; std::_Wrap_alloc<std::allocator<char> >::destroy<char *>, COMDAT
; _this$ = ecx

; 907  : 		void destroy(_Ty *_Ptr)

	push	ebp
	mov	ebp, esp
	push	ecx
	mov	DWORD PTR _this$[ebp], ecx

; 908  : 		{	// destroy object at _Ptr
; 909  : 		_Mytraits::destroy(*this, _Ptr);

	mov	eax, DWORD PTR __Ptr$[ebp]
	push	eax
	mov	ecx, DWORD PTR _this$[ebp]
	push	ecx
	call	??$destroy@PAD@?$allocator_traits@V?$allocator@D@std@@@std@@SAXAAV?$allocator@D@1@PAPAD@Z ; std::allocator_traits<std::allocator<char> >::destroy<char *>
	add	esp, 8

; 910  : 		}

	mov	esp, ebp
	pop	ebp
	ret	4
??$destroy@PAD@?$_Wrap_alloc@V?$allocator@D@std@@@std@@QAEXPAPAD@Z ENDP ; std::_Wrap_alloc<std::allocator<char> >::destroy<char *>
_TEXT	ENDS
; Function compile flags: /Odtp
; File c:\program files (x86)\microsoft visual studio 11.0\vc\include\xmemory0
;	COMDAT ??$construct@PADAAPAD@?$_Wrap_alloc@V?$allocator@D@std@@@std@@QAEXPAPADAAPAD@Z
_TEXT	SEGMENT
_this$ = -4						; size = 4
__Ptr$ = 8						; size = 4
__V0$ = 12						; size = 4
??$construct@PADAAPAD@?$_Wrap_alloc@V?$allocator@D@std@@@std@@QAEXPAPADAAPAD@Z PROC ; std::_Wrap_alloc<std::allocator<char> >::construct<char *,char * &>, COMDAT
; _this$ = ecx

; 903  : _VARIADIC_EXPAND_0X(_WRAP_ALLOC_CONSTRUCT, , , , )

	push	ebp
	mov	ebp, esp
	push	ecx
	mov	DWORD PTR _this$[ebp], ecx
	mov	eax, DWORD PTR __V0$[ebp]
	push	eax
	call	??$forward@AAPAD@std@@YAAAPADAAPAD@Z	; std::forward<char * &>
	add	esp, 4
	push	eax
	mov	ecx, DWORD PTR __Ptr$[ebp]
	push	ecx
	mov	edx, DWORD PTR _this$[ebp]
	push	edx
	call	??$construct@PADAAPAD@?$allocator_traits@V?$allocator@D@std@@@std@@SAXAAV?$allocator@D@1@PAPADAAPAD@Z ; std::allocator_traits<std::allocator<char> >::construct<char *,char * &>
	add	esp, 12					; 0000000cH
	mov	esp, ebp
	pop	ebp
	ret	8
??$construct@PADAAPAD@?$_Wrap_alloc@V?$allocator@D@std@@@std@@QAEXPAPADAAPAD@Z ENDP ; std::_Wrap_alloc<std::allocator<char> >::construct<char *,char * &>
_TEXT	ENDS
; Function compile flags: /Odtp
; File c:\users\zhitao li\documents\visual studio 2012\projects\freefalcon\sim\radar\gmscope.cpp
;	COMDAT ??__ETAN_RADAR_CONE_ANGLE@@YAXXZ
text$yc	SEGMENT
??__ETAN_RADAR_CONE_ANGLE@@YAXXZ PROC			; `dynamic initializer for 'TAN_RADAR_CONE_ANGLE'', COMDAT

; 65   : static const float TAN_RADAR_CONE_ANGLE  = (float)tan(RADAR_CONE_ANGLE);

	push	ebp
	mov	ebp, esp
	push	ecx
	movss	xmm0, DWORD PTR _RADAR_CONE_ANGLE
	movss	DWORD PTR [esp], xmm0
	call	?tan@@YAMM@Z				; tan
	add	esp, 4
	fstp	DWORD PTR _TAN_RADAR_CONE_ANGLE
	pop	ebp
	ret	0
??__ETAN_RADAR_CONE_ANGLE@@YAXXZ ENDP			; `dynamic initializer for 'TAN_RADAR_CONE_ANGLE''
text$yc	ENDS
; Function compile flags: /Odtp
; File c:\users\zhitao li\documents\visual studio 2012\projects\freefalcon\sim\radar\gmscope.cpp
;	COMDAT ??__ECOS_RADAR_CONE_ANGLE@@YAXXZ
text$yc	SEGMENT
??__ECOS_RADAR_CONE_ANGLE@@YAXXZ PROC			; `dynamic initializer for 'COS_RADAR_CONE_ANGLE'', COMDAT

; 64   : static const float COS_RADAR_CONE_ANGLE  = (float)cos(RADAR_CONE_ANGLE);

	push	ebp
	mov	ebp, esp
	push	ecx
	movss	xmm0, DWORD PTR _RADAR_CONE_ANGLE
	movss	DWORD PTR [esp], xmm0
	call	?cos@@YAMM@Z				; cos
	add	esp, 4
	fstp	DWORD PTR _COS_RADAR_CONE_ANGLE
	pop	ebp
	ret	0
??__ECOS_RADAR_CONE_ANGLE@@YAXXZ ENDP			; `dynamic initializer for 'COS_RADAR_CONE_ANGLE''
text$yc	ENDS
; Function compile flags: /Odtp
; File c:\users\zhitao li\documents\visual studio 2012\projects\freefalcon\sim\radar\gmscope.cpp
;	COMDAT ??__ESIN_RADAR_CONE_ANGLE@@YAXXZ
text$yc	SEGMENT
??__ESIN_RADAR_CONE_ANGLE@@YAXXZ PROC			; `dynamic initializer for 'SIN_RADAR_CONE_ANGLE'', COMDAT

; 63   : static const float SIN_RADAR_CONE_ANGLE  = (float)sin(RADAR_CONE_ANGLE);

	push	ebp
	mov	ebp, esp
	push	ecx
	movss	xmm0, DWORD PTR _RADAR_CONE_ANGLE
	movss	DWORD PTR [esp], xmm0
	call	?sin@@YAMM@Z				; sin
	add	esp, 4
	fstp	DWORD PTR _SIN_RADAR_CONE_ANGLE
	pop	ebp
	ret	0
??__ESIN_RADAR_CONE_ANGLE@@YAXXZ ENDP			; `dynamic initializer for 'SIN_RADAR_CONE_ANGLE''
text$yc	ENDS
; Function compile flags: /Odtp
; File c:\users\zhitao li\documents\visual studio 2012\projects\freefalcon\sim\include\simio.h
;	COMDAT ?AnalogIsUsed@SIMLIB_IO_CLASS@@QAE_NW4GameAxis_t@@@Z
_TEXT	SEGMENT
_this$ = -4						; size = 4
_id$ = 8						; size = 4
?AnalogIsUsed@SIMLIB_IO_CLASS@@QAE_NW4GameAxis_t@@@Z PROC ; SIMLIB_IO_CLASS::AnalogIsUsed, COMDAT
; _this$ = ecx

; 237  : 	bool	AnalogIsUsed(GameAxis_t id) { return ( analog[id].isUsed); };

	push	ebp
	mov	ebp, esp
	push	ecx
	mov	DWORD PTR _this$[ebp], ecx
	mov	eax, DWORD PTR _id$[ebp]
	imul	eax, 28					; 0000001cH
	mov	ecx, DWORD PTR _this$[ebp]
	mov	al, BYTE PTR [ecx+eax+12]
	mov	esp, ebp
	pop	ebp
	ret	4
?AnalogIsUsed@SIMLIB_IO_CLASS@@QAE_NW4GameAxis_t@@@Z ENDP ; SIMLIB_IO_CLASS::AnalogIsUsed
_TEXT	ENDS
; Function compile flags: /Odtp
; File c:\users\zhitao li\documents\visual studio 2012\projects\freefalcon\fastmath.h
;	COMDAT ?F_ABS@@YAMM@Z
_TEXT	SEGMENT
_r$ = -4						; size = 4
_x$ = 8							; size = 4
?F_ABS@@YAMM@Z PROC					; F_ABS, COMDAT

; 19   : {	

	push	ebp
	mov	ebp, esp
	push	ecx

; 20   : 	float r;
; 21   : 
; 22   : 	_asm{ 
; 23   : 			fld		x

	fld	DWORD PTR _x$[ebp]

; 24   : 			fabs	

	fabs

; 25   : 			fstp	r

	fstp	DWORD PTR _r$[ebp]

; 26   : 	}
; 27   : 	return r;

	fld	DWORD PTR _r$[ebp]

; 28   : }

	mov	esp, ebp
	pop	ebp
	ret	0
?F_ABS@@YAMM@Z ENDP					; F_ABS
_TEXT	ENDS
; Function compile flags: /Odtp
; File c:\users\zhitao li\documents\visual studio 2012\projects\freefalcon\sim\include\fcc.h
;	COMDAT ?GetSubMode@FireControlComputer@@QAE?AW4FCCSubMode@1@XZ
_TEXT	SEGMENT
_this$ = -4						; size = 4
?GetSubMode@FireControlComputer@@QAE?AW4FCCSubMode@1@XZ PROC ; FireControlComputer::GetSubMode, COMDAT
; _this$ = ecx

; 281  : 	FCCSubMode GetSubMode (void) {return (subMode);};

	push	ebp
	mov	ebp, esp
	push	ecx
	mov	DWORD PTR _this$[ebp], ecx
	mov	eax, DWORD PTR _this$[ebp]
	mov	eax, DWORD PTR [eax+148]
	mov	esp, ebp
	pop	ebp
	ret	0
?GetSubMode@FireControlComputer@@QAE?AW4FCCSubMode@1@XZ ENDP ; FireControlComputer::GetSubMode
_TEXT	ENDS
; Function compile flags: /Odtp
; File c:\users\zhitao li\documents\visual studio 2012\projects\freefalcon\vu2\include\vu_templates.h
;	COMDAT ??B?$VuBin@VSimWeaponClass@@@@QBE_NXZ
_TEXT	SEGMENT
_this$ = -8						; size = 4
tv66 = -4						; size = 4
??B?$VuBin@VSimWeaponClass@@@@QBE_NXZ PROC		; VuBin<SimWeaponClass>::operator bool, COMDAT
; _this$ = ecx

; 40   : 	operator bool() const{

	push	ebp
	mov	ebp, esp
	sub	esp, 8
	mov	DWORD PTR _this$[ebp], ecx

; 41   : 		return e != NULL;

	mov	eax, DWORD PTR _this$[ebp]
	cmp	DWORD PTR [eax], 0
	je	SHORT $LN3@operator
	mov	DWORD PTR tv66[ebp], 1
	jmp	SHORT $LN4@operator
$LN3@operator:
	mov	DWORD PTR tv66[ebp], 0
$LN4@operator:
	mov	al, BYTE PTR tv66[ebp]

; 42   : 	}

	mov	esp, ebp
	pop	ebp
	ret	0
??B?$VuBin@VSimWeaponClass@@@@QBE_NXZ ENDP		; VuBin<SimWeaponClass>::operator bool
_TEXT	ENDS
; Function compile flags: /Odtp
; File c:\users\zhitao li\documents\visual studio 2012\projects\freefalcon\sim\include\simbase.h
;	COMDAT ?IsAwake@SimBaseClass@@QBEHXZ
_TEXT	SEGMENT
_this$ = -4						; size = 4
?IsAwake@SimBaseClass@@QBEHXZ PROC			; SimBaseClass::IsAwake, COMDAT
; _this$ = ecx

; 177  : 	int IsAwake() const { return localFlags & OBJ_AWAKE; }

	push	ebp
	mov	ebp, esp
	push	ecx
	mov	DWORD PTR _this$[ebp], ecx
	mov	eax, DWORD PTR _this$[ebp]
	movzx	eax, BYTE PTR [eax+284]
	and	eax, 1
	mov	esp, ebp
	pop	ebp
	ret	0
?IsAwake@SimBaseClass@@QBEHXZ ENDP			; SimBaseClass::IsAwake
_TEXT	ENDS
; Function compile flags: /Odtp
; File c:\users\zhitao li\documents\visual studio 2012\projects\freefalcon\sim\radar\gmscope.cpp
_TEXT	SEGMENT
_this$ = -8						; size = 4
tv128 = -4						; size = 4
_contact$ = 8						; size = 4
?GMObjectContactTest@RadarDopplerClass@@IAEHPAVFalconEntity@@@Z PROC ; RadarDopplerClass::GMObjectContactTest
; _this$ = ecx

; 190  : {

	push	ebp
	mov	ebp, esp
	sub	esp, 8
	mov	DWORD PTR _this$[ebp], ecx

; 191  : 	// objects can move
; 192  : 	if(g_bRealisticAvionics && g_bAGRadarFixes)

	movzx	eax, BYTE PTR ?g_bRealisticAvionics@@3_NA ; g_bRealisticAvionics
	test	eax, eax
	je	SHORT $LN1@GMObjectCo
	movzx	ecx, BYTE PTR ?g_bAGRadarFixes@@3_NA	; g_bAGRadarFixes
	test	ecx, ecx
	je	SHORT $LN1@GMObjectCo

; 193  : 	{
; 194  : 		// maybe at some point, we might want to have a Vt threshold other than 0
; 195  : 		// if so, we'll have to 
; 196  : 		if(contact->GetVt() > g_fGMTMinSpeed) 

	mov	edx, DWORD PTR _contact$[ebp]
	mov	eax, DWORD PTR [edx]
	mov	ecx, DWORD PTR _contact$[ebp]
	mov	edx, DWORD PTR [eax+220]
	call	edx
	fstp	DWORD PTR tv128[ebp]
	movss	xmm0, DWORD PTR tv128[ebp]
	comiss	xmm0, DWORD PTR ?g_fGMTMinSpeed@@3MA
	jbe	SHORT $LN3@GMObjectCo

; 197  : 			return 0;

	xor	eax, eax
	jmp	SHORT $LN5@GMObjectCo
$LN3@GMObjectCo:

; 198  : 
; 199  : 		if(contact->IsSim())

	mov	ecx, DWORD PTR _contact$[ebp]
	call	?IsSim@FalconEntity@@QAEHXZ		; FalconEntity::IsSim
	test	eax, eax
	je	SHORT $LN1@GMObjectCo

; 200  : 		{
; 201  : 			
; 202  : 			//if(contact->GetVt() > 1.0F) 
; 203  : 			//	return 0.0f;
; 204  : 			if(	((SimBaseClass*)contact)->drawPointer && 
; 205  : 				((SimBaseClass*)contact)->drawPointer->GetClass() == DrawableObject::Guys)

	mov	eax, DWORD PTR _contact$[ebp]
	cmp	DWORD PTR [eax+332], 0
	je	SHORT $LN1@GMObjectCo
	mov	ecx, DWORD PTR _contact$[ebp]
	mov	ecx, DWORD PTR [ecx+332]
	call	?GetClass@DrawableObject@@QBE?AW4DrawClass@1@XZ ; DrawableObject::GetClass
	cmp	eax, 3
	jne	SHORT $LN1@GMObjectCo

; 206  : 			{
; 207  : 				return 0;

	xor	eax, eax
	jmp	SHORT $LN5@GMObjectCo
$LN1@GMObjectCo:

; 208  : 			}
; 209  : 		}
; 210  : 		/*
; 211  : 		else // is camp object
; 212  : 		{
; 213  : 			// 2002-04-03 MN contact is a CAMPAIGN object now !!! We can't do SimBaseClass stuff here. 
; 214  : 			// Speed test however is valid, as it checks U_MOVING flag of unit
; 215  : 			// As there are no campaign units that consist only of soldiers, no need to check for them here
; 216  : 			if(contact->GetVt() > 1.0F )
; 217  : 				return 0.0f;
; 218  : 		}
; 219  : 		*/
; 220  : 	}
; 221  : 	return 1;

	mov	eax, 1
$LN5@GMObjectCo:

; 222  : }

	mov	esp, ebp
	pop	ebp
	ret	4
?GMObjectContactTest@RadarDopplerClass@@IAEHPAVFalconEntity@@@Z ENDP ; RadarDopplerClass::GMObjectContactTest
_TEXT	ENDS
; Function compile flags: /Odtp
; File c:\users\zhitao li\documents\visual studio 2012\projects\freefalcon\sim\radar\gmscope.cpp
_TEXT	SEGMENT
_this$ = -16						; size = 4
tv163 = -12						; size = 4
tv153 = -8						; size = 4
tv147 = -4						; size = 4
_contact$ = 8						; size = 4
?GMTObjectContactTest@RadarDopplerClass@@IAEHPAVFalconEntity@@@Z PROC ; RadarDopplerClass::GMTObjectContactTest
; _this$ = ecx

; 148  : {

	push	ebp
	mov	ebp, esp
	sub	esp, 16					; 00000010H
	mov	DWORD PTR _this$[ebp], ecx

; 149  : 	// Begine GMT test
; 150  : 	if(g_bRealisticAvionics && g_bAGRadarFixes)

	movzx	eax, BYTE PTR ?g_bRealisticAvionics@@3_NA ; g_bRealisticAvionics
	test	eax, eax
	je	$LN7@GMTObjectC
	movzx	ecx, BYTE PTR ?g_bAGRadarFixes@@3_NA	; g_bAGRadarFixes
	test	ecx, ecx
	je	$LN7@GMTObjectC

; 151  : 	{
; 152  : 		if(contact->IsSim())

	mov	ecx, DWORD PTR _contact$[ebp]
	call	?IsSim@FalconEntity@@QAEHXZ		; FalconEntity::IsSim
	test	eax, eax
	je	SHORT $LN6@GMTObjectC

; 153  : 		{
; 154  : 			// never show pedestrians
; 155  : 			if ( ((SimBaseClass *)contact)->drawPointer && 
; 156  : 				 ((SimBaseClass *)contact)->drawPointer->GetClass() == DrawableObject::Guys 
; 157  : 			   )

	mov	edx, DWORD PTR _contact$[ebp]
	cmp	DWORD PTR [edx+332], 0
	je	SHORT $LN5@GMTObjectC
	mov	eax, DWORD PTR _contact$[ebp]
	mov	ecx, DWORD PTR [eax+332]
	call	?GetClass@DrawableObject@@QBE?AW4DrawClass@1@XZ ; DrawableObject::GetClass
	cmp	eax, 3
	jne	SHORT $LN5@GMTObjectC

; 158  : 			{
; 159  : 				return 0;

	xor	eax, eax
	jmp	$LN8@GMTObjectC
$LN5@GMTObjectC:

; 160  : 			}
; 161  : 
; 162  : 			// speed filter
; 163  : 			if(	contact->GetVt() > g_fGMTMinSpeed && 
; 164  : 				contact->GetVt() < g_fGMTMaxSpeed)

	mov	ecx, DWORD PTR _contact$[ebp]
	mov	edx, DWORD PTR [ecx]
	mov	ecx, DWORD PTR _contact$[ebp]
	mov	eax, DWORD PTR [edx+220]
	call	eax
	fstp	DWORD PTR tv147[ebp]
	movss	xmm0, DWORD PTR tv147[ebp]
	comiss	xmm0, DWORD PTR ?g_fGMTMinSpeed@@3MA
	jbe	SHORT $LN4@GMTObjectC
	mov	ecx, DWORD PTR _contact$[ebp]
	mov	edx, DWORD PTR [ecx]
	mov	ecx, DWORD PTR _contact$[ebp]
	mov	eax, DWORD PTR [edx+220]
	call	eax
	fstp	DWORD PTR tv153[ebp]
	movss	xmm0, DWORD PTR ?g_fGMTMaxSpeed@@3MA
	comiss	xmm0, DWORD PTR tv153[ebp]
	jbe	SHORT $LN4@GMTObjectC

; 165  : 			{
; 166  : 				return 1;

	mov	eax, 1
	jmp	SHORT $LN8@GMTObjectC
$LN4@GMTObjectC:

; 167  : 			}
; 168  : 			return 0;

	xor	eax, eax
	jmp	SHORT $LN8@GMTObjectC

; 169  : 		}
; 170  : 		else

	jmp	SHORT $LN3@GMTObjectC
$LN6@GMTObjectC:

; 171  : 		{
; 172  : 			//if(contact->GetVt() > 1.0f)
; 173  : 			//	return 1;
; 174  : 			return 0;

	xor	eax, eax
	jmp	SHORT $LN8@GMTObjectC
$LN3@GMTObjectC:

; 175  : 		}
; 176  : 	}
; 177  : 	else

	jmp	SHORT $LN1@GMTObjectC
$LN7@GMTObjectC:

; 178  : 	{
; 179  : 		if(contact->GetVt())

	mov	ecx, DWORD PTR _contact$[ebp]
	mov	edx, DWORD PTR [ecx]
	mov	ecx, DWORD PTR _contact$[ebp]
	mov	eax, DWORD PTR [edx+220]
	call	eax
	fstp	DWORD PTR tv163[ebp]
	movss	xmm0, DWORD PTR tv163[ebp]
	ucomiss	xmm0, DWORD PTR __real@00000000
	lahf
	test	ah, 68					; 00000044H
	jnp	SHORT $LN1@GMTObjectC

; 180  : 			return 1;

	mov	eax, 1
	jmp	SHORT $LN8@GMTObjectC
$LN1@GMTObjectC:

; 181  : 	}
; 182  : 	return 0;

	xor	eax, eax
$LN8@GMTObjectC:

; 183  : }

	mov	esp, ebp
	pop	ebp
	ret	4
?GMTObjectContactTest@RadarDopplerClass@@IAEHPAVFalconEntity@@@Z ENDP ; RadarDopplerClass::GMTObjectContactTest
_TEXT	ENDS
; Function compile flags: /Odtp
; File c:\users\zhitao li\documents\visual studio 2012\projects\freefalcon\sim\radar\gmscope.cpp
_TEXT	SEGMENT
tv323 = -72						; size = 4
tv318 = -68						; size = 4
tv360 = -64						; size = 4
tv362 = -60						; size = 4
tv267 = -56						; size = 4
tv262 = -52						; size = 4
tv356 = -48						; size = 4
tv358 = -44						; size = 4
tv257 = -40						; size = 4
tv252 = -36						; size = 4
tv354 = -32						; size = 4
tv247 = -28						; size = 4
tv242 = -24						; size = 4
_dx$ = -20						; size = 4
_y$ = -16						; size = 4
_x$ = -12						; size = 4
_dy$ = -8						; size = 4
_this$ = -4						; size = 4
_ownX$ = 8						; size = 4
_ownY$ = 12						; size = 4
_ownZ$ = 16						; size = 4
_radarHorizonSq$ = 20					; size = 4
_contact$ = 24						; size = 4
_trig$ = 28						; size = 4
_range$ = 32						; size = 4
_radius$ = 36						; size = 4
_canSee$ = 40						; size = 4
?InitialGroundContactTest@RadarDopplerClass@@IAEHAAM000PAVFalconEntity@@AAUmlTrig@@000@Z PROC ; RadarDopplerClass::InitialGroundContactTest
; _this$ = ecx

; 81   : {

	push	ebp
	mov	ebp, esp
	sub	esp, 72					; 00000048H
	mov	DWORD PTR _this$[ebp], ecx

; 82   : 	//Tpoint pos;
; 83   : 	float x,y,dx,dy;
; 84   : 
; 85   : 	range = (contact->XPos()-ownX)*(contact->XPos()-ownX) +
; 86   : 			(contact->YPos()-ownY)*(contact->YPos()-ownY) +
; 87   : 			(contact->ZPos()-ownZ)*(contact->ZPos()-ownZ);

	mov	ecx, DWORD PTR _contact$[ebp]
	call	?XPos@VuEntity@@QBEMXZ			; VuEntity::XPos
	fstp	DWORD PTR tv242[ebp]
	movss	xmm0, DWORD PTR tv242[ebp]
	mov	eax, DWORD PTR _ownX$[ebp]
	subss	xmm0, DWORD PTR [eax]
	mov	ecx, DWORD PTR _contact$[ebp]
	movss	DWORD PTR tv354[ebp], xmm0
	call	?XPos@VuEntity@@QBEMXZ			; VuEntity::XPos
	fstp	DWORD PTR tv247[ebp]
	movss	xmm0, DWORD PTR tv247[ebp]
	mov	ecx, DWORD PTR _ownX$[ebp]
	subss	xmm0, DWORD PTR [ecx]
	movss	xmm1, DWORD PTR tv354[ebp]
	mulss	xmm1, xmm0
	mov	ecx, DWORD PTR _contact$[ebp]
	movss	DWORD PTR tv356[ebp], xmm1
	call	?YPos@VuEntity@@QBEMXZ			; VuEntity::YPos
	fstp	DWORD PTR tv252[ebp]
	movss	xmm0, DWORD PTR tv252[ebp]
	mov	edx, DWORD PTR _ownY$[ebp]
	subss	xmm0, DWORD PTR [edx]
	mov	ecx, DWORD PTR _contact$[ebp]
	movss	DWORD PTR tv358[ebp], xmm0
	call	?YPos@VuEntity@@QBEMXZ			; VuEntity::YPos
	fstp	DWORD PTR tv257[ebp]
	movss	xmm0, DWORD PTR tv257[ebp]
	mov	eax, DWORD PTR _ownY$[ebp]
	subss	xmm0, DWORD PTR [eax]
	movss	xmm1, DWORD PTR tv358[ebp]
	mulss	xmm1, xmm0
	movss	xmm0, DWORD PTR tv356[ebp]
	addss	xmm0, xmm1
	mov	ecx, DWORD PTR _contact$[ebp]
	movss	DWORD PTR tv360[ebp], xmm0
	call	?ZPos@VuEntity@@QBEMXZ			; VuEntity::ZPos
	fstp	DWORD PTR tv262[ebp]
	movss	xmm0, DWORD PTR tv262[ebp]
	mov	ecx, DWORD PTR _ownZ$[ebp]
	subss	xmm0, DWORD PTR [ecx]
	mov	ecx, DWORD PTR _contact$[ebp]
	movss	DWORD PTR tv362[ebp], xmm0
	call	?ZPos@VuEntity@@QBEMXZ			; VuEntity::ZPos
	fstp	DWORD PTR tv267[ebp]
	movss	xmm0, DWORD PTR tv267[ebp]
	mov	edx, DWORD PTR _ownZ$[ebp]
	subss	xmm0, DWORD PTR [edx]
	movss	xmm1, DWORD PTR tv362[ebp]
	mulss	xmm1, xmm0
	movss	xmm0, DWORD PTR tv360[ebp]
	addss	xmm0, xmm1
	mov	eax, DWORD PTR _range$[ebp]
	movss	DWORD PTR [eax], xmm0

; 88   : 	
; 89   : 	if (range < radarHorizonSq)

	mov	ecx, DWORD PTR _radarHorizonSq$[ebp]
	mov	edx, DWORD PTR _range$[ebp]
	movss	xmm0, DWORD PTR [ecx]
	comiss	xmm0, DWORD PTR [edx]
	jbe	$LN2@InitialGro

; 90   : 	{				
; 91   : 		range = sqrt(range);

	mov	eax, DWORD PTR _range$[ebp]
	push	ecx
	movss	xmm0, DWORD PTR [eax]
	movss	DWORD PTR [esp], xmm0
	call	?SqrtSSE@@YAMM@Z			; SqrtSSE
	add	esp, 4
	mov	ecx, DWORD PTR _range$[ebp]
	fstp	DWORD PTR [ecx]

; 92   : 		if(contact->IsSim())

	mov	ecx, DWORD PTR _contact$[ebp]
	call	?IsSim@FalconEntity@@QAEHXZ		; FalconEntity::IsSim
	test	eax, eax
	je	$LN11@InitialGro

; 93   : 		{
; 94   : 			if(((SimBaseClass*)contact)->IsAwake())

	mov	ecx, DWORD PTR _contact$[ebp]
	call	?IsAwake@SimBaseClass@@QBEHXZ		; SimBaseClass::IsAwake
	test	eax, eax
	je	SHORT $LN10@InitialGro

; 95   : 			{
; 96   : 				radius = ((SimBaseClass*)contact)->drawPointer->Radius();

	mov	edx, DWORD PTR _contact$[ebp]
	mov	ecx, DWORD PTR [edx+332]
	call	?Radius@DrawableObject@@QBEMXZ		; DrawableObject::Radius
	mov	eax, DWORD PTR _radius$[ebp]
	fstp	DWORD PTR [eax]

; 97   : 				radius = radius*radius*radius*radius;

	mov	ecx, DWORD PTR _radius$[ebp]
	mov	edx, DWORD PTR _radius$[ebp]
	movss	xmm0, DWORD PTR [ecx]
	mulss	xmm0, DWORD PTR [edx]
	mov	eax, DWORD PTR _radius$[ebp]
	mulss	xmm0, DWORD PTR [eax]
	mov	ecx, DWORD PTR _radius$[ebp]
	mulss	xmm0, DWORD PTR [ecx]
	mov	edx, DWORD PTR _radius$[ebp]
	movss	DWORD PTR [edx], xmm0

; 98   : 				canSee = radius/range * tdisplayRange/groundMapRange;

	mov	eax, DWORD PTR _radius$[ebp]
	mov	ecx, DWORD PTR _range$[ebp]
	movss	xmm0, DWORD PTR [eax]
	divss	xmm0, DWORD PTR [ecx]
	mov	edx, DWORD PTR _this$[ebp]
	mulss	xmm0, DWORD PTR [edx+264]
	mov	eax, DWORD PTR _this$[ebp]
	divss	xmm0, DWORD PTR [eax+476]
	mov	ecx, DWORD PTR _canSee$[ebp]
	movss	DWORD PTR [ecx], xmm0

; 99   : 				// MLR why???
; 100  : 				//((SimBaseClass*)contact)->drawPointer->GetPosition(&pos);
; 101  : 				//contact->SetPosition(pos.x, pos.y, pos.z);		
; 102  : 			} 
; 103  : 			else

	jmp	SHORT $LN9@InitialGro
$LN10@InitialGro:

; 104  : 			{
; 105  : 				canSee = 0.0F;

	mov	edx, DWORD PTR _canSee$[ebp]
	movss	xmm0, DWORD PTR __real@00000000
	movss	DWORD PTR [edx], xmm0
$LN9@InitialGro:

; 106  : 			}
; 107  : 		}
; 108  : 		else

	jmp	SHORT $LN8@InitialGro
$LN11@InitialGro:

; 109  : 		{
; 110  : 			radius = DEFAULT_OBJECT_RADIUS;

	mov	eax, DWORD PTR _radius$[ebp]
	movss	xmm0, DWORD PTR __real@42480000
	movss	DWORD PTR [eax], xmm0

; 111  : 			radius = radius*radius*radius*radius;

	mov	ecx, DWORD PTR _radius$[ebp]
	mov	edx, DWORD PTR _radius$[ebp]
	movss	xmm0, DWORD PTR [ecx]
	mulss	xmm0, DWORD PTR [edx]
	mov	eax, DWORD PTR _radius$[ebp]
	mulss	xmm0, DWORD PTR [eax]
	mov	ecx, DWORD PTR _radius$[ebp]
	mulss	xmm0, DWORD PTR [ecx]
	mov	edx, DWORD PTR _radius$[ebp]
	movss	DWORD PTR [edx], xmm0

; 112  : 			canSee = radius/range * tdisplayRange/groundMapRange;

	mov	eax, DWORD PTR _radius$[ebp]
	mov	ecx, DWORD PTR _range$[ebp]
	movss	xmm0, DWORD PTR [eax]
	divss	xmm0, DWORD PTR [ecx]
	mov	edx, DWORD PTR _this$[ebp]
	mulss	xmm0, DWORD PTR [edx+264]
	mov	eax, DWORD PTR _this$[ebp]
	divss	xmm0, DWORD PTR [eax+476]
	mov	ecx, DWORD PTR _canSee$[ebp]
	movss	DWORD PTR [ecx], xmm0
$LN8@InitialGro:

; 113  : 		}
; 114  : 		
; 115  : 		// Check LOS
; 116  : 		if (canSee > 0.8F)

	mov	edx, DWORD PTR _canSee$[ebp]
	movss	xmm0, DWORD PTR [edx]
	comiss	xmm0, DWORD PTR __real@3f4ccccd
	jbe	$LN2@InitialGro

; 117  : 		{
; 118  : 			x = contact->XPos() - ownX;

	mov	ecx, DWORD PTR _contact$[ebp]
	call	?XPos@VuEntity@@QBEMXZ			; VuEntity::XPos
	fstp	DWORD PTR tv318[ebp]
	movss	xmm0, DWORD PTR tv318[ebp]
	mov	eax, DWORD PTR _ownX$[ebp]
	subss	xmm0, DWORD PTR [eax]
	movss	DWORD PTR _x$[ebp], xmm0

; 119  : 			y = contact->YPos() - ownY;

	mov	ecx, DWORD PTR _contact$[ebp]
	call	?YPos@VuEntity@@QBEMXZ			; VuEntity::YPos
	fstp	DWORD PTR tv323[ebp]
	movss	xmm0, DWORD PTR tv323[ebp]
	mov	ecx, DWORD PTR _ownY$[ebp]
	subss	xmm0, DWORD PTR [ecx]
	movss	DWORD PTR _y$[ebp], xmm0

; 120  : 			
; 121  : 			// Rotate for normalization
; 122  : 			dx = trig.cos*x - trig.sin*y;

	mov	edx, DWORD PTR _trig$[ebp]
	movss	xmm0, DWORD PTR [edx+4]
	mulss	xmm0, DWORD PTR _x$[ebp]
	mov	eax, DWORD PTR _trig$[ebp]
	movss	xmm1, DWORD PTR [eax]
	mulss	xmm1, DWORD PTR _y$[ebp]
	subss	xmm0, xmm1
	movss	DWORD PTR _dx$[ebp], xmm0

; 123  : 			dy = trig.sin*x + trig.cos*y;

	mov	ecx, DWORD PTR _trig$[ebp]
	movss	xmm0, DWORD PTR [ecx]
	mulss	xmm0, DWORD PTR _x$[ebp]
	mov	edx, DWORD PTR _trig$[ebp]
	movss	xmm1, DWORD PTR [edx+4]
	mulss	xmm1, DWORD PTR _y$[ebp]
	addss	xmm0, xmm1
	movss	DWORD PTR _dy$[ebp], xmm0

; 124  : 			
; 125  : 			// Check Angle off nose
; 126  : 			if ( (dy > 0.0F && dx > 0.5F *  dy) || // Right side of nose
; 127  : 				 (dy < 0.0F && dx > 0.5F * -dy)   // Left side of nose
; 128  : 				)

	movss	xmm0, DWORD PTR _dy$[ebp]
	comiss	xmm0, DWORD PTR __real@00000000
	jbe	SHORT $LN4@InitialGro
	movss	xmm0, DWORD PTR __real@3f000000
	mulss	xmm0, DWORD PTR _dy$[ebp]
	movss	xmm1, DWORD PTR _dx$[ebp]
	comiss	xmm1, xmm0
	ja	SHORT $LN5@InitialGro
$LN4@InitialGro:
	movss	xmm0, DWORD PTR __real@00000000
	comiss	xmm0, DWORD PTR _dy$[ebp]
	jbe	SHORT $LN6@InitialGro
	movss	xmm0, DWORD PTR _dy$[ebp]
	xorps	xmm0, DWORD PTR __xmm@80000000800000008000000080000000
	mulss	xmm0, DWORD PTR __real@3f000000
	movss	xmm1, DWORD PTR _dx$[ebp]
	comiss	xmm1, xmm0
	jbe	SHORT $LN6@InitialGro
$LN5@InitialGro:

; 129  : 			{
; 130  : 				// Actual LOS
; 131  : 				if (!OTWDriver.CheckLOS( platform, contact))

	mov	eax, DWORD PTR _contact$[ebp]
	push	eax
	mov	ecx, DWORD PTR _this$[ebp]
	mov	edx, DWORD PTR [ecx+32]
	push	edx
	mov	ecx, OFFSET ?OTWDriver@@3VOTWDriverClass@@A ; OTWDriver
	call	?CheckLOS@OTWDriverClass@@QAEHPAVFalconEntity@@0@Z ; OTWDriverClass::CheckLOS
	test	eax, eax
	jne	SHORT $LN3@InitialGro

; 132  : 				{
; 133  : 					canSee = 0.0F;  // LOS is blocked

	mov	eax, DWORD PTR _canSee$[ebp]
	movss	xmm0, DWORD PTR __real@00000000
	movss	DWORD PTR [eax], xmm0
$LN3@InitialGro:

; 134  : 				}
; 135  : 			}
; 136  : 			else

	jmp	SHORT $LN2@InitialGro
$LN6@InitialGro:

; 137  : 			{
; 138  : 				canSee = 0.0F;   // Outside of cone

	mov	ecx, DWORD PTR _canSee$[ebp]
	movss	xmm0, DWORD PTR __real@00000000
	movss	DWORD PTR [ecx], xmm0
$LN2@InitialGro:

; 139  : 			}
; 140  : 		}
; 141  : 	}
; 142  : 	if(canSee > .8f)

	mov	edx, DWORD PTR _canSee$[ebp]
	movss	xmm0, DWORD PTR [edx]
	comiss	xmm0, DWORD PTR __real@3f4ccccd
	jbe	SHORT $LN1@InitialGro

; 143  : 		return 1;

	mov	eax, 1
	jmp	SHORT $LN13@InitialGro
$LN1@InitialGro:

; 144  : 	return 0;

	xor	eax, eax
$LN13@InitialGro:

; 145  : }

	mov	esp, ebp
	pop	ebp
	ret	36					; 00000024H
?InitialGroundContactTest@RadarDopplerClass@@IAEHAAM000PAVFalconEntity@@AAUmlTrig@@000@Z ENDP ; RadarDopplerClass::InitialGroundContactTest
_TEXT	ENDS
; Function compile flags: /Odtp
; File c:\users\zhitao li\documents\visual studio 2012\projects\freefalcon\sim\radar\gmscope.cpp
_TEXT	SEGMENT
_trig$ = -28						; size = 8
_sinAz$ = -20						; size = 4
_xpos$ = -16						; size = 4
_cosAz$ = -12						; size = 4
_ypos$ = -8						; size = 4
_this$ = -4						; size = 4
_xLoc$ = 8						; size = 4
_yLoc$ = 12						; size = 4
?GetGMCursorPosition@RadarDopplerClass@@IAEXPAM0@Z PROC	; RadarDopplerClass::GetGMCursorPosition
; _this$ = ecx

; 2412 : {

	push	ebp
	mov	ebp, esp
	sub	esp, 28					; 0000001cH
	mov	DWORD PTR _this$[ebp], ecx

; 2413 : 	float xpos, ypos, cosAz, sinAz;
; 2414 : 	mlTrig trig;
; 2415 : 
; 2416 : 	mlSinCos (&trig, headingForDisplay);

	push	ecx
	movss	xmm0, DWORD PTR _headingForDisplay
	movss	DWORD PTR [esp], xmm0
	lea	eax, DWORD PTR _trig$[ebp]
	push	eax
	call	?mlSinCos@@YAXPAUmlTrig@@M@Z		; mlSinCos
	add	esp, 8

; 2417 : 	cosAz = trig.cos;

	movss	xmm0, DWORD PTR _trig$[ebp+4]
	movss	DWORD PTR _cosAz$[ebp], xmm0

; 2418 : 	sinAz = trig.sin;

	movss	xmm0, DWORD PTR _trig$[ebp]
	movss	DWORD PTR _sinAz$[ebp], xmm0

; 2419 : 
; 2420 : 	xpos = cursorX * 0.5F * tdisplayRange;

	mov	ecx, DWORD PTR _this$[ebp]
	movss	xmm0, DWORD PTR [ecx+220]
	mulss	xmm0, DWORD PTR __real@3f000000
	mov	edx, DWORD PTR _this$[ebp]
	mulss	xmm0, DWORD PTR [edx+264]
	movss	DWORD PTR _xpos$[ebp], xmm0

; 2421 : 	ypos = (cursorY + 1.0F) * 0.5F * tdisplayRange;

	mov	eax, DWORD PTR _this$[ebp]
	movss	xmm0, DWORD PTR [eax+224]
	addss	xmm0, DWORD PTR __real@3f800000
	mulss	xmm0, DWORD PTR __real@3f000000
	mov	ecx, DWORD PTR _this$[ebp]
	mulss	xmm0, DWORD PTR [ecx+264]
	movss	DWORD PTR _ypos$[ebp], xmm0

; 2422 : 
; 2423 : 	*yLoc = ypos*sinAz + xpos*cosAz;

	movss	xmm0, DWORD PTR _ypos$[ebp]
	mulss	xmm0, DWORD PTR _sinAz$[ebp]
	movss	xmm1, DWORD PTR _xpos$[ebp]
	mulss	xmm1, DWORD PTR _cosAz$[ebp]
	addss	xmm0, xmm1
	mov	edx, DWORD PTR _yLoc$[ebp]
	movss	DWORD PTR [edx], xmm0

; 2424 : 	*xLoc = ypos*cosAz - xpos*sinAz;

	movss	xmm0, DWORD PTR _ypos$[ebp]
	mulss	xmm0, DWORD PTR _cosAz$[ebp]
	movss	xmm1, DWORD PTR _xpos$[ebp]
	mulss	xmm1, DWORD PTR _sinAz$[ebp]
	subss	xmm0, xmm1
	mov	eax, DWORD PTR _xLoc$[ebp]
	movss	DWORD PTR [eax], xmm0

; 2425 : 
; 2426 : 	
; 2427 : 	*xLoc += viewFrom.x;

	mov	ecx, DWORD PTR _xLoc$[ebp]
	movss	xmm0, DWORD PTR [ecx]
	addss	xmm0, DWORD PTR _viewFrom
	mov	edx, DWORD PTR _xLoc$[ebp]
	movss	DWORD PTR [edx], xmm0

; 2428 : 	*yLoc += viewFrom.y;

	mov	eax, DWORD PTR _yLoc$[ebp]
	movss	xmm0, DWORD PTR [eax]
	addss	xmm0, DWORD PTR _viewFrom+4
	mov	ecx, DWORD PTR _yLoc$[ebp]
	movss	DWORD PTR [ecx], xmm0

; 2429 : }

	mov	esp, ebp
	pop	ebp
	ret	8
?GetGMCursorPosition@RadarDopplerClass@@IAEXPAM0@Z ENDP	; RadarDopplerClass::GetGMCursorPosition
_TEXT	ENDS
; Function compile flags: /Odtp
; File c:\users\zhitao li\documents\visual studio 2012\projects\freefalcon\sim\radar\gmscope.cpp
_TEXT	SEGMENT
_this$ = -8						; size = 4
_tmp$ = -4						; size = 4
_theList$ = 8						; size = 4
?FreeGMList@RadarDopplerClass@@IAEXPAVGMList@1@@Z PROC	; RadarDopplerClass::FreeGMList
; _this$ = ecx

; 2197 : {

	push	ebp
	mov	ebp, esp
	sub	esp, 8
	mov	DWORD PTR _this$[ebp], ecx
$LN2@FreeGMList:

; 2198 : GMList* tmp;
; 2199 : 
; 2200 :    while (theList)

	cmp	DWORD PTR _theList$[ebp], 0
	je	SHORT $LN3@FreeGMList

; 2201 :    {
; 2202 :       tmp = theList;

	mov	eax, DWORD PTR _theList$[ebp]
	mov	DWORD PTR _tmp$[ebp], eax

; 2203 :       theList = theList->next;

	mov	ecx, DWORD PTR _theList$[ebp]
	mov	edx, DWORD PTR [ecx+20]
	mov	DWORD PTR _theList$[ebp], edx

; 2204 :       tmp->Release();

	mov	ecx, DWORD PTR _tmp$[ebp]
	call	?Release@GMList@RadarDopplerClass@@QAEXXZ ; RadarDopplerClass::GMList::Release

; 2205 :    }

	jmp	SHORT $LN2@FreeGMList
$LN3@FreeGMList:

; 2206 : }

	mov	esp, ebp
	pop	ebp
	ret	4
?FreeGMList@RadarDopplerClass@@IAEXPAVGMList@1@@Z ENDP	; RadarDopplerClass::FreeGMList
_TEXT	ENDS
; Function compile flags: /Odtp
; File c:\users\zhitao li\documents\visual studio 2012\projects\freefalcon\sim\radar\gmscope.cpp
_TEXT	SEGMENT
$T2 = -140						; size = 8
_trig$ = -132						; size = 8
tv484 = -124						; size = 4
tv477 = -120						; size = 4
tv464 = -116						; size = 4
tv456 = -112						; size = 4
tv449 = -108						; size = 4
tv430 = -104						; size = 4
tv423 = -100						; size = 4
tv412 = -96						; size = 4
tv406 = -92						; size = 4
tv394 = -88						; size = 4
tv386 = -84						; size = 4
$T3 = -80						; size = 4
tv267 = -76						; size = 4
tv263 = -72						; size = 4
tv251 = -68						; size = 4
_dy$ = -64						; size = 4
_cosAz$ = -60						; size = 4
_dx$ = -56						; size = 4
_sinAz$ = -52						; size = 4
_z$4 = -48						; size = 4
tv82 = -44						; size = 4
$T5 = -40						; size = 4
_x$6 = -36						; size = 4
_y$7 = -32						; size = 4
_minDist$ = -28						; size = 4
_ry$ = -24						; size = 4
_rx$ = -20						; size = 4
_this$ = -16						; size = 4
__$EHRec$ = -12						; size = 12
_curNode$ = 8						; size = 4
?DoGMDesignate@RadarDopplerClass@@IAEXPAVGMList@1@@Z PROC ; RadarDopplerClass::DoGMDesignate
; _this$ = ecx

; 2097 : {

	push	ebp
	mov	ebp, esp
	push	-1
	push	__ehhandler$?DoGMDesignate@RadarDopplerClass@@IAEXPAVGMList@1@@Z
	mov	eax, DWORD PTR fs:0
	push	eax
	sub	esp, 128				; 00000080H
	mov	eax, DWORD PTR ___security_cookie
	xor	eax, ebp
	push	eax
	lea	eax, DWORD PTR __$EHRec$[ebp]
	mov	DWORD PTR fs:0, eax
	mov	DWORD PTR _this$[ebp], ecx

; 2098 : 	float dx, dy;
; 2099 : 	float rx, ry;
; 2100 : 	float cosAz, sinAz;
; 2101 : 	mlTrig trig;
; 2102 : 	float minDist = 0.05F;

	movss	xmm0, DWORD PTR __real@3d4ccccd
	movss	DWORD PTR _minDist$[ebp], xmm0

; 2103 : 	
; 2104 : 	// MD -- 20040215: adding a step in designation to the snow plow mode;  When you are in
; 2105 : 	// SP and you first designate, that ground stabilizes the radar aim point and keys the
; 2106 : 	// navigation systems to look at the pseudo waypoint defined by the cursor position as
; 2107 : 	// the current steerpoint to use.
; 2108 : 	if (IsSet(SP) && (!IsSet(SP_STAB)))  // SP mode but not yet ground stabilized

	push	64					; 00000040H
	mov	ecx, DWORD PTR _this$[ebp]
	call	?IsSet@RadarDopplerClass@@QAEHH@Z	; RadarDopplerClass::IsSet
	test	eax, eax
	je	$LN14@DoGMDesign
	push	128					; 00000080H
	mov	ecx, DWORD PTR _this$[ebp]
	call	?IsSet@RadarDopplerClass@@QAEHH@Z	; RadarDopplerClass::IsSet
	test	eax, eax
	jne	$LN14@DoGMDesign

; 2109 : 	{
; 2110 : 		float x = 0.0F, y = 0.0F, z = 0.0F;

	movss	xmm0, DWORD PTR __real@00000000
	movss	DWORD PTR _x$6[ebp], xmm0
	movss	xmm0, DWORD PTR __real@00000000
	movss	DWORD PTR _y$7[ebp], xmm0
	movss	xmm0, DWORD PTR __real@00000000
	movss	DWORD PTR _z$4[ebp], xmm0

; 2111 : 		if (!GMSPPseudoWaypt)

	mov	eax, DWORD PTR _this$[ebp]
	cmp	DWORD PTR [eax+536], 0
	jne	SHORT $LN13@DoGMDesign

; 2112 : 		{
; 2113 : 			GMSPPseudoWaypt = new WayPointClass();

	push	60					; 0000003cH
	call	??2@YAPAXI@Z				; operator new
	add	esp, 4
	mov	DWORD PTR $T5[ebp], eax
	mov	DWORD PTR __$EHRec$[ebp+8], 0
	cmp	DWORD PTR $T5[ebp], 0
	je	SHORT $LN17@DoGMDesign
	mov	ecx, DWORD PTR $T5[ebp]
	call	??0WayPointClass@@QAE@XZ		; WayPointClass::WayPointClass
	mov	DWORD PTR tv82[ebp], eax
	jmp	SHORT $LN18@DoGMDesign
$LN17@DoGMDesign:
	mov	DWORD PTR tv82[ebp], 0
$LN18@DoGMDesign:
	mov	ecx, DWORD PTR tv82[ebp]
	mov	DWORD PTR $T3[ebp], ecx
	mov	DWORD PTR __$EHRec$[ebp+8], -1
	mov	edx, DWORD PTR _this$[ebp]
	mov	eax, DWORD PTR $T3[ebp]
	mov	DWORD PTR [edx+536], eax
$LN13@DoGMDesign:

; 2114 : 		}
; 2115 : 		// calculate x/y/z's
; 2116 : 		GetGMCursorPosition (&x, &y);

	lea	ecx, DWORD PTR _y$7[ebp]
	push	ecx
	lea	edx, DWORD PTR _x$6[ebp]
	push	edx
	mov	ecx, DWORD PTR _this$[ebp]
	call	?GetGMCursorPosition@RadarDopplerClass@@IAEXPAM0@Z ; RadarDopplerClass::GetGMCursorPosition

; 2117 : 
; 2118 : 		z = OTWDriver.GetGroundLevel(x, y);

	push	0
	push	ecx
	movss	xmm0, DWORD PTR _y$7[ebp]
	movss	DWORD PTR [esp], xmm0
	push	ecx
	movss	xmm0, DWORD PTR _x$6[ebp]
	movss	DWORD PTR [esp], xmm0
	mov	ecx, OFFSET ?OTWDriver@@3VOTWDriverClass@@A ; OTWDriver
	call	?GetGroundLevel@OTWDriverClass@@QAEMMMPAUTpoint@@@Z ; OTWDriverClass::GetGroundLevel
	fstp	DWORD PTR _z$4[ebp]

; 2119 : 
; 2120 : 		GMSPPseudoWaypt->SetLocation(x, y, z);

	push	ecx
	movss	xmm0, DWORD PTR _z$4[ebp]
	movss	DWORD PTR [esp], xmm0
	push	ecx
	movss	xmm0, DWORD PTR _y$7[ebp]
	movss	DWORD PTR [esp], xmm0
	push	ecx
	movss	xmm0, DWORD PTR _x$6[ebp]
	movss	DWORD PTR [esp], xmm0
	mov	eax, DWORD PTR _this$[ebp]
	mov	ecx, DWORD PTR [eax+536]
	call	?SetLocation@WayPointClass@@QAEXMMM@Z	; WayPointClass::SetLocation

; 2121 : 		GMSPPseudoWaypt->SetWPArrive(SimLibElapsedTime);

	mov	ecx, DWORD PTR ?SimLibElapsedTime@@3KA	; SimLibElapsedTime
	push	ecx
	mov	edx, DWORD PTR _this$[ebp]
	mov	ecx, DWORD PTR [edx+536]
	call	?SetWPArrive@WayPointClass@@QAEXK@Z	; WayPointClass::SetWPArrive

; 2122 : 
; 2123 : 		if (SimDriver.GetPlayerAircraft())

	mov	ecx, OFFSET ?SimDriver@@3VSimulationDriver@@A ; SimDriver
	call	?GetPlayerAircraft@SimulationDriver@@QBEPAVAircraftClass@@XZ ; SimulationDriver::GetPlayerAircraft
	test	eax, eax
	je	SHORT $LN12@DoGMDesign

; 2124 : 		{
; 2125 : 			SimDriver.GetPlayerAircraft()->FCC->SetStptMode(FireControlComputer::FCCGMPseudoPoint);

	push	3
	mov	ecx, OFFSET ?SimDriver@@3VSimulationDriver@@A ; SimDriver
	call	?GetPlayerAircraft@SimulationDriver@@QBEPAVAircraftClass@@XZ ; SimulationDriver::GetPlayerAircraft
	mov	ecx, DWORD PTR [eax+936]
	call	?SetStptMode@FireControlComputer@@QAEXW4FCCStptMode@1@@Z ; FireControlComputer::SetStptMode

; 2126 : 			SimDriver.GetPlayerAircraft()->FCC->waypointStepCmd = 127;

	mov	ecx, OFFSET ?SimDriver@@3VSimulationDriver@@A ; SimDriver
	call	?GetPlayerAircraft@SimulationDriver@@QBEPAVAircraftClass@@XZ ; SimulationDriver::GetPlayerAircraft
	mov	eax, DWORD PTR [eax+936]
	mov	BYTE PTR [eax+194], 127			; 0000007fH

; 2127 : 			// shouldn't need this here but make sure that first designate command doesn't also lock a target
; 2128 : 			SimDriver.GetPlayerAircraft()->FCC->designateCmd = FALSE;  // shouldn't need this here but make

	mov	ecx, OFFSET ?SimDriver@@3VSimulationDriver@@A ; SimDriver
	call	?GetPlayerAircraft@SimulationDriver@@QBEPAVAircraftClass@@XZ ; SimulationDriver::GetPlayerAircraft
	mov	ecx, DWORD PTR [eax+936]
	mov	BYTE PTR [ecx+184], 0
$LN12@DoGMDesign:

; 2129 : 		}
; 2130 : 		SetFlagBit(SP_STAB);  // we are now in SP mode with a ground stabilized cursor aim point

	push	128					; 00000080H
	mov	ecx, DWORD PTR _this$[ebp]
	call	?SetFlagBit@RadarDopplerClass@@QAEXH@Z	; RadarDopplerClass::SetFlagBit

; 2131 : 		return;

	jmp	$LN15@DoGMDesign

; 2132 : 	}
; 2133 : 	else

	jmp	$LN6@DoGMDesign
$LN14@DoGMDesign:

; 2134 : 	{
; 2135 : 		mlSinCos (&trig, headingForDisplay);

	push	ecx
	movss	xmm0, DWORD PTR _headingForDisplay
	movss	DWORD PTR [esp], xmm0
	lea	edx, DWORD PTR _trig$[ebp]
	push	edx
	call	?mlSinCos@@YAXPAUmlTrig@@M@Z		; mlSinCos
	add	esp, 8

; 2136 : 		cosAz =  trig.cos;

	movss	xmm0, DWORD PTR _trig$[ebp+4]
	movss	DWORD PTR _cosAz$[ebp], xmm0

; 2137 : 		sinAz = -trig.sin;

	movss	xmm0, DWORD PTR _trig$[ebp]
	xorps	xmm0, DWORD PTR __xmm@80000000800000008000000080000000
	movss	DWORD PTR _sinAz$[ebp], xmm0

; 2138 : 		
; 2139 : 		// Offset the spots correctly
; 2140 : 		if (!(flags & FZ))

	mov	eax, DWORD PTR _this$[ebp]
	mov	ecx, DWORD PTR [eax+492]
	and	ecx, 32					; 00000020H
	jne	$LN8@DoGMDesign

; 2141 : 		{
; 2142 : 			if (flags & NORM)

	mov	edx, DWORD PTR _this$[ebp]
	mov	eax, DWORD PTR [edx+492]
	and	eax, 1
	je	SHORT $LN9@DoGMDesign

; 2143 : 			{
; 2144 : 				// Find center of scope
; 2145 : 				GMXCenter = platform->XPos() + tdisplayRange * trig.cos * 0.5F;

	mov	ecx, DWORD PTR _this$[ebp]
	mov	ecx, DWORD PTR [ecx+32]
	call	?XPos@VuEntity@@QBEMXZ			; VuEntity::XPos
	fstp	DWORD PTR tv386[ebp]
	movss	xmm0, DWORD PTR tv386[ebp]
	mov	edx, DWORD PTR _this$[ebp]
	movss	xmm1, DWORD PTR [edx+264]
	mulss	xmm1, DWORD PTR _trig$[ebp+4]
	mulss	xmm1, DWORD PTR __real@3f000000
	addss	xmm0, xmm1
	mov	eax, DWORD PTR _this$[ebp]
	movss	DWORD PTR [eax+524], xmm0

; 2146 : 				GMYCenter = platform->YPos() + tdisplayRange * trig.sin * 0.5F;

	mov	ecx, DWORD PTR _this$[ebp]
	mov	ecx, DWORD PTR [ecx+32]
	call	?YPos@VuEntity@@QBEMXZ			; VuEntity::YPos
	fstp	DWORD PTR tv394[ebp]
	movss	xmm0, DWORD PTR tv394[ebp]
	mov	edx, DWORD PTR _this$[ebp]
	movss	xmm1, DWORD PTR [edx+264]
	mulss	xmm1, DWORD PTR _trig$[ebp]
	mulss	xmm1, DWORD PTR __real@3f000000
	addss	xmm0, xmm1
	mov	eax, DWORD PTR _this$[ebp]
	movss	DWORD PTR [eax+528], xmm0

; 2147 : 			}
; 2148 : 			else

	jmp	SHORT $LN8@DoGMDesign
$LN9@DoGMDesign:

; 2149 : 			{
; 2150 : 				GMXCenter = GMat.x;

	mov	ecx, DWORD PTR _this$[ebp]
	movss	xmm0, DWORD PTR _GMat
	movss	DWORD PTR [ecx+524], xmm0

; 2151 : 				GMYCenter = GMat.y;

	mov	edx, DWORD PTR _this$[ebp]
	movss	xmm0, DWORD PTR _GMat+4
	movss	DWORD PTR [edx+528], xmm0
$LN8@DoGMDesign:

; 2152 : 			}
; 2153 : 		}
; 2154 : 		
; 2155 : 		// Draw the spots
; 2156 : 		while (curNode)

	cmp	DWORD PTR _curNode$[ebp], 0
	je	$LN6@DoGMDesign

; 2157 : 		{
; 2158 : 			dx = curNode->Object()->XPos() - GMXCenter;

	mov	ecx, DWORD PTR _curNode$[ebp]
	call	?Object@GMList@RadarDopplerClass@@QAEPAVFalconEntity@@XZ ; RadarDopplerClass::GMList::Object
	mov	ecx, eax
	call	?XPos@VuEntity@@QBEMXZ			; VuEntity::XPos
	fstp	DWORD PTR tv406[ebp]
	movss	xmm0, DWORD PTR tv406[ebp]
	mov	eax, DWORD PTR _this$[ebp]
	subss	xmm0, DWORD PTR [eax+524]
	movss	DWORD PTR _dx$[ebp], xmm0

; 2159 : 			dy = curNode->Object()->YPos() - GMYCenter;

	mov	ecx, DWORD PTR _curNode$[ebp]
	call	?Object@GMList@RadarDopplerClass@@QAEPAVFalconEntity@@XZ ; RadarDopplerClass::GMList::Object
	mov	ecx, eax
	call	?YPos@VuEntity@@QBEMXZ			; VuEntity::YPos
	fstp	DWORD PTR tv412[ebp]
	movss	xmm0, DWORD PTR tv412[ebp]
	mov	ecx, DWORD PTR _this$[ebp]
	subss	xmm0, DWORD PTR [ecx+528]
	movss	DWORD PTR _dy$[ebp], xmm0

; 2160 : 			
; 2161 : 			// Note the axis switch from NED to screen
; 2162 : 			ry = cosAz * dx - sinAz * dy;

	movss	xmm0, DWORD PTR _cosAz$[ebp]
	mulss	xmm0, DWORD PTR _dx$[ebp]
	movss	xmm1, DWORD PTR _sinAz$[ebp]
	mulss	xmm1, DWORD PTR _dy$[ebp]
	subss	xmm0, xmm1
	movss	DWORD PTR _ry$[ebp], xmm0

; 2163 : 			rx = sinAz * dx + cosAz * dy;

	movss	xmm0, DWORD PTR _sinAz$[ebp]
	mulss	xmm0, DWORD PTR _dx$[ebp]
	movss	xmm1, DWORD PTR _cosAz$[ebp]
	mulss	xmm1, DWORD PTR _dy$[ebp]
	addss	xmm0, xmm1
	movss	DWORD PTR _rx$[ebp], xmm0

; 2164 : 			
; 2165 : 			if (F_ABS(rx) > groundMapRange ||
; 2166 : 				F_ABS(ry) > groundMapRange)

	push	ecx
	movss	xmm0, DWORD PTR _rx$[ebp]
	movss	DWORD PTR [esp], xmm0
	call	?F_ABS@@YAMM@Z				; F_ABS
	add	esp, 4
	fstp	DWORD PTR tv423[ebp]
	movss	xmm0, DWORD PTR tv423[ebp]
	mov	edx, DWORD PTR _this$[ebp]
	comiss	xmm0, DWORD PTR [edx+476]
	ja	SHORT $LN4@DoGMDesign
	push	ecx
	movss	xmm0, DWORD PTR _ry$[ebp]
	movss	DWORD PTR [esp], xmm0
	call	?F_ABS@@YAMM@Z				; F_ABS
	add	esp, 4
	fstp	DWORD PTR tv430[ebp]
	movss	xmm0, DWORD PTR tv430[ebp]
	mov	eax, DWORD PTR _this$[ebp]
	comiss	xmm0, DWORD PTR [eax+476]
	jbe	SHORT $LN5@DoGMDesign
$LN4@DoGMDesign:

; 2167 : 			{
; 2168 : 				curNode = curNode->next;

	mov	ecx, DWORD PTR _curNode$[ebp]
	mov	edx, DWORD PTR [ecx+20]
	mov	DWORD PTR _curNode$[ebp], edx

; 2169 : 				continue;

	jmp	$LN8@DoGMDesign
$LN5@DoGMDesign:

; 2170 : 			}
; 2171 : 			rx /= groundMapRange;

	mov	eax, DWORD PTR _this$[ebp]
	movss	xmm0, DWORD PTR _rx$[ebp]
	divss	xmm0, DWORD PTR [eax+476]
	movss	DWORD PTR _rx$[ebp], xmm0

; 2172 : 			ry /= groundMapRange;

	mov	ecx, DWORD PTR _this$[ebp]
	movss	xmm0, DWORD PTR _ry$[ebp]
	divss	xmm0, DWORD PTR [ecx+476]
	movss	DWORD PTR _ry$[ebp], xmm0

; 2173 : 			
; 2174 : 			if (flags & NORM)

	mov	edx, DWORD PTR _this$[ebp]
	mov	eax, DWORD PTR [edx+492]
	and	eax, 1
	je	SHORT $LN3@DoGMDesign

; 2175 : 			{
; 2176 : 				ry -= cursorY;

	mov	ecx, DWORD PTR _this$[ebp]
	movss	xmm0, DWORD PTR _ry$[ebp]
	subss	xmm0, DWORD PTR [ecx+224]
	movss	DWORD PTR _ry$[ebp], xmm0

; 2177 : 				rx -= cursorX;

	mov	edx, DWORD PTR _this$[ebp]
	movss	xmm0, DWORD PTR _rx$[ebp]
	subss	xmm0, DWORD PTR [edx+220]
	movss	DWORD PTR _rx$[ebp], xmm0
$LN3@DoGMDesign:

; 2178 : 			}
; 2179 : 			
; 2180 : 			if (F_ABS(rx) < minDist && F_ABS (ry) < minDist)

	push	ecx
	movss	xmm0, DWORD PTR _rx$[ebp]
	movss	DWORD PTR [esp], xmm0
	call	?F_ABS@@YAMM@Z				; F_ABS
	add	esp, 4
	fstp	DWORD PTR tv449[ebp]
	movss	xmm0, DWORD PTR _minDist$[ebp]
	comiss	xmm0, DWORD PTR tv449[ebp]
	jbe	$LN2@DoGMDesign
	push	ecx
	movss	xmm0, DWORD PTR _ry$[ebp]
	movss	DWORD PTR [esp], xmm0
	call	?F_ABS@@YAMM@Z				; F_ABS
	add	esp, 4
	fstp	DWORD PTR tv456[ebp]
	movss	xmm0, DWORD PTR _minDist$[ebp]
	comiss	xmm0, DWORD PTR tv456[ebp]
	jbe	$LN2@DoGMDesign

; 2181 : 			{
; 2182 : 				minDist = min ( min (minDist, (float)F_ABS(rx)), (float)F_ABS(ry));

	push	ecx
	movss	xmm0, DWORD PTR _rx$[ebp]
	movss	DWORD PTR [esp], xmm0
	call	?F_ABS@@YAMM@Z				; F_ABS
	add	esp, 4
	fstp	DWORD PTR tv464[ebp]
	movss	xmm0, DWORD PTR tv464[ebp]
	comiss	xmm0, DWORD PTR _minDist$[ebp]
	jbe	SHORT $LN19@DoGMDesign
	movss	xmm0, DWORD PTR _minDist$[ebp]
	movss	DWORD PTR tv251[ebp], xmm0
	jmp	SHORT $LN20@DoGMDesign
$LN19@DoGMDesign:
	push	ecx
	movss	xmm0, DWORD PTR _rx$[ebp]
	movss	DWORD PTR [esp], xmm0
	call	?F_ABS@@YAMM@Z				; F_ABS
	add	esp, 4
	fstp	DWORD PTR tv251[ebp]
$LN20@DoGMDesign:
	push	ecx
	movss	xmm0, DWORD PTR _ry$[ebp]
	movss	DWORD PTR [esp], xmm0
	call	?F_ABS@@YAMM@Z				; F_ABS
	add	esp, 4
	fstp	DWORD PTR tv477[ebp]
	movss	xmm0, DWORD PTR tv477[ebp]
	comiss	xmm0, DWORD PTR tv251[ebp]
	jbe	SHORT $LN23@DoGMDesign
	push	ecx
	movss	xmm0, DWORD PTR _rx$[ebp]
	movss	DWORD PTR [esp], xmm0
	call	?F_ABS@@YAMM@Z				; F_ABS
	add	esp, 4
	fstp	DWORD PTR tv484[ebp]
	movss	xmm0, DWORD PTR tv484[ebp]
	comiss	xmm0, DWORD PTR _minDist$[ebp]
	jbe	SHORT $LN21@DoGMDesign
	movss	xmm0, DWORD PTR _minDist$[ebp]
	movss	DWORD PTR tv263[ebp], xmm0
	jmp	SHORT $LN22@DoGMDesign
$LN21@DoGMDesign:
	push	ecx
	movss	xmm0, DWORD PTR _rx$[ebp]
	movss	DWORD PTR [esp], xmm0
	call	?F_ABS@@YAMM@Z				; F_ABS
	add	esp, 4
	fstp	DWORD PTR tv263[ebp]
$LN22@DoGMDesign:
	movss	xmm0, DWORD PTR tv263[ebp]
	movss	DWORD PTR tv267[ebp], xmm0
	jmp	SHORT $LN24@DoGMDesign
$LN23@DoGMDesign:
	push	ecx
	movss	xmm0, DWORD PTR _ry$[ebp]
	movss	DWORD PTR [esp], xmm0
	call	?F_ABS@@YAMM@Z				; F_ABS
	add	esp, 4
	fstp	DWORD PTR tv267[ebp]
$LN24@DoGMDesign:
	movss	xmm0, DWORD PTR tv267[ebp]
	movss	DWORD PTR _minDist$[ebp], xmm0

; 2183 : 				if (designateCmd)

	mov	eax, DWORD PTR _this$[ebp]
	cmp	DWORD PTR [eax+168], 0
	je	SHORT $LN1@DoGMDesign

; 2184 : 				{
; 2185 : 					SetGroundTarget(curNode->Object());

	mov	ecx, DWORD PTR _curNode$[ebp]
	call	?Object@GMList@RadarDopplerClass@@QAEPAVFalconEntity@@XZ ; RadarDopplerClass::GMList::Object
	push	eax
	mov	ecx, DWORD PTR _this$[ebp]
	call	?SetGroundTarget@RadarDopplerClass@@IAEXPAVFalconEntity@@@Z ; RadarDopplerClass::SetGroundTarget
$LN1@DoGMDesign:

; 2186 : 				}
; 2187 : 				
; 2188 : 				targetUnderCursor = curNode->Object()->Id();

	lea	ecx, DWORD PTR $T2[ebp]
	push	ecx
	mov	ecx, DWORD PTR _curNode$[ebp]
	call	?Object@GMList@RadarDopplerClass@@QAEPAVFalconEntity@@XZ ; RadarDopplerClass::GMList::Object
	mov	ecx, eax
	call	?Id@VuEntity@@QBE?AVVU_ID@@XZ		; VuEntity::Id
	mov	edx, DWORD PTR [eax]
	mov	eax, DWORD PTR [eax+4]
	mov	ecx, DWORD PTR _this$[ebp]
	mov	DWORD PTR [ecx+36], edx
	mov	DWORD PTR [ecx+40], eax
$LN2@DoGMDesign:

; 2189 : 			}
; 2190 : 			
; 2191 : 			curNode = curNode->next;

	mov	edx, DWORD PTR _curNode$[ebp]
	mov	eax, DWORD PTR [edx+20]
	mov	DWORD PTR _curNode$[ebp], eax

; 2192 : 		}

	jmp	$LN8@DoGMDesign
$LN6@DoGMDesign:
$LN15@DoGMDesign:

; 2193 : 	}
; 2194 : }

	mov	ecx, DWORD PTR __$EHRec$[ebp]
	mov	DWORD PTR fs:0, ecx
	pop	ecx
	mov	esp, ebp
	pop	ebp
	ret	4
_TEXT	ENDS
text$x	SEGMENT
__unwindfunclet$?DoGMDesignate@RadarDopplerClass@@IAEXPAVGMList@1@@Z$0:
	mov	eax, DWORD PTR $T5[ebp]
	push	eax
	call	??3@YAXPAX@Z				; operator delete
	pop	ecx
	ret	0
__ehhandler$?DoGMDesignate@RadarDopplerClass@@IAEXPAVGMList@1@@Z:
	mov	edx, DWORD PTR [esp+8]
	lea	eax, DWORD PTR [edx+12]
	mov	ecx, DWORD PTR [edx-132]
	xor	ecx, eax
	call	@__security_check_cookie@4
	mov	eax, OFFSET __ehfuncinfo$?DoGMDesignate@RadarDopplerClass@@IAEXPAVGMList@1@@Z
	jmp	___CxxFrameHandler3
text$x	ENDS
?DoGMDesignate@RadarDopplerClass@@IAEXPAVGMList@1@@Z ENDP ; RadarDopplerClass::DoGMDesignate
; Function compile flags: /Odtp
; File c:\users\zhitao li\documents\visual studio 2012\projects\freefalcon\sim\radar\gmscope.cpp
_TEXT	SEGMENT
$T1 = -132						; size = 8
tv409 = -124						; size = 4
tv397 = -120						; size = 4
tv435 = -116						; size = 4
tv555 = -112						; size = 4
tv452 = -108						; size = 4
tv548 = -104						; size = 4
tv389 = -100						; size = 4
tv535 = -96						; size = 4
tv459 = -92						; size = 4
tv527 = -88						; size = 4
tv441 = -84						; size = 4
tv520 = -80						; size = 4
tv427 = -76						; size = 4
tv479 = -72						; size = 4
tv414 = -68						; size = 4
tv581 = -64						; size = 4
tv473 = -60						; size = 4
tv420 = -56						; size = 4
tv326 = -52						; size = 4
tv330 = -48						; size = 4
tv314 = -44						; size = 4
_trig$ = -40						; size = 8
_cosAz$ = -32						; size = 4
_sinAz$ = -28						; size = 4
_dx$ = -24						; size = 4
_dy$ = -20						; size = 4
_minDist$ = -16						; size = 4
_ry$ = -12						; size = 4
_rx$ = -8						; size = 4
_this$ = -4						; size = 4
_curNode$ = 8						; size = 4
?AddTargetReturnsOldStyle@RadarDopplerClass@@IAEXPAVGMList@1@@Z PROC ; RadarDopplerClass::AddTargetReturnsOldStyle
; _this$ = ecx

; 1995 : {

	push	ebp
	mov	ebp, esp
	sub	esp, 132				; 00000084H
	push	esi
	mov	DWORD PTR _this$[ebp], ecx

; 1996 : float dx=0.0F, dy=0.0F;

	movss	xmm0, DWORD PTR __real@00000000
	movss	DWORD PTR _dx$[ebp], xmm0
	movss	xmm0, DWORD PTR __real@00000000
	movss	DWORD PTR _dy$[ebp], xmm0

; 1997 : float rx=0.0F, ry=0.0F;

	movss	xmm0, DWORD PTR __real@00000000
	movss	DWORD PTR _rx$[ebp], xmm0
	movss	xmm0, DWORD PTR __real@00000000
	movss	DWORD PTR _ry$[ebp], xmm0

; 1998 : float cosAz=0.0F, sinAz=0.0F;

	movss	xmm0, DWORD PTR __real@00000000
	movss	DWORD PTR _cosAz$[ebp], xmm0
	movss	xmm0, DWORD PTR __real@00000000
	movss	DWORD PTR _sinAz$[ebp], xmm0

; 1999 : mlTrig trig={0.0F};

	movss	xmm0, DWORD PTR __real@00000000
	movss	DWORD PTR _trig$[ebp], xmm0
	xor	eax, eax
	mov	DWORD PTR _trig$[ebp+4], eax

; 2000 : float minDist = groundMapRange;

	mov	ecx, DWORD PTR _this$[ebp]
	movss	xmm0, DWORD PTR [ecx+476]
	movss	DWORD PTR _minDist$[ebp], xmm0

; 2001 : 
; 2002 :    mlSinCos (&trig, headingForDisplay);

	push	ecx
	movss	xmm0, DWORD PTR _headingForDisplay
	movss	DWORD PTR [esp], xmm0
	lea	edx, DWORD PTR _trig$[ebp]
	push	edx
	call	?mlSinCos@@YAXPAUmlTrig@@M@Z		; mlSinCos
	add	esp, 8

; 2003 :    cosAz =  trig.cos;

	movss	xmm0, DWORD PTR _trig$[ebp+4]
	movss	DWORD PTR _cosAz$[ebp], xmm0

; 2004 :    sinAz = -trig.sin;

	movss	xmm0, DWORD PTR _trig$[ebp]
	xorps	xmm0, DWORD PTR __xmm@80000000800000008000000080000000
	movss	DWORD PTR _sinAz$[ebp], xmm0

; 2005 : 
; 2006 :    // Offset the spots correctly
; 2007 :    if (!(flags & FZ))

	mov	eax, DWORD PTR _this$[ebp]
	mov	ecx, DWORD PTR [eax+492]
	and	ecx, 32					; 00000020H
	jne	$LN16@AddTargetR

; 2008 :    {
; 2009 :       if (flags & NORM)

	mov	edx, DWORD PTR _this$[ebp]
	mov	eax, DWORD PTR [edx+492]
	and	eax, 1
	je	SHORT $LN17@AddTargetR

; 2010 :       {
; 2011 :          // Find center of scope
; 2012 :          GMXCenter = platform->XPos() + tdisplayRange * trig.cos * 0.5F;

	mov	ecx, DWORD PTR _this$[ebp]
	mov	ecx, DWORD PTR [ecx+32]
	call	?XPos@VuEntity@@QBEMXZ			; VuEntity::XPos
	fstp	DWORD PTR tv389[ebp]
	movss	xmm0, DWORD PTR tv389[ebp]
	mov	edx, DWORD PTR _this$[ebp]
	movss	xmm1, DWORD PTR [edx+264]
	mulss	xmm1, DWORD PTR _trig$[ebp+4]
	mulss	xmm1, DWORD PTR __real@3f000000
	addss	xmm0, xmm1
	mov	eax, DWORD PTR _this$[ebp]
	movss	DWORD PTR [eax+524], xmm0

; 2013 :          GMYCenter = platform->YPos() + tdisplayRange * trig.sin * 0.5F;

	mov	ecx, DWORD PTR _this$[ebp]
	mov	ecx, DWORD PTR [ecx+32]
	call	?YPos@VuEntity@@QBEMXZ			; VuEntity::YPos
	fstp	DWORD PTR tv397[ebp]
	movss	xmm0, DWORD PTR tv397[ebp]
	mov	edx, DWORD PTR _this$[ebp]
	movss	xmm1, DWORD PTR [edx+264]
	mulss	xmm1, DWORD PTR _trig$[ebp]
	mulss	xmm1, DWORD PTR __real@3f000000
	addss	xmm0, xmm1
	mov	eax, DWORD PTR _this$[ebp]
	movss	DWORD PTR [eax+528], xmm0

; 2014 :       }
; 2015 :       else

	jmp	SHORT $LN16@AddTargetR
$LN17@AddTargetR:

; 2016 :       {
; 2017 :          GMXCenter = GMat.x;

	mov	ecx, DWORD PTR _this$[ebp]
	movss	xmm0, DWORD PTR _GMat
	movss	DWORD PTR [ecx+524], xmm0

; 2018 :          GMYCenter = GMat.y;

	mov	edx, DWORD PTR _this$[ebp]
	movss	xmm0, DWORD PTR _GMat+4
	movss	DWORD PTR [edx+528], xmm0
$LN16@AddTargetR:

; 2019 :       }
; 2020 :    }
; 2021 : 
; 2022 :    // Draw the spots
; 2023 :    while (curNode)

	cmp	DWORD PTR _curNode$[ebp], 0
	je	$LN14@AddTargetR

; 2024 :    {
; 2025 :       // Check distance from radar patch center
; 2026 :       dx = curNode->Object()->XPos() - GMat.x;

	mov	ecx, DWORD PTR _curNode$[ebp]
	call	?Object@GMList@RadarDopplerClass@@QAEPAVFalconEntity@@XZ ; RadarDopplerClass::GMList::Object
	mov	ecx, eax
	call	?XPos@VuEntity@@QBEMXZ			; VuEntity::XPos
	fstp	DWORD PTR tv409[ebp]
	movss	xmm0, DWORD PTR tv409[ebp]
	subss	xmm0, DWORD PTR _GMat
	movss	DWORD PTR _dx$[ebp], xmm0

; 2027 :       dy = curNode->Object()->YPos() - GMat.y;

	mov	ecx, DWORD PTR _curNode$[ebp]
	call	?Object@GMList@RadarDopplerClass@@QAEPAVFalconEntity@@XZ ; RadarDopplerClass::GMList::Object
	mov	ecx, eax
	call	?YPos@VuEntity@@QBEMXZ			; VuEntity::YPos
	fstp	DWORD PTR tv414[ebp]
	movss	xmm0, DWORD PTR tv414[ebp]
	subss	xmm0, DWORD PTR _GMat+4
	movss	DWORD PTR _dy$[ebp], xmm0

; 2028 :       if (fabs(dx) > groundMapRange ||
; 2029 :           fabs(dy) > groundMapRange)

	push	ecx
	movss	xmm0, DWORD PTR _dx$[ebp]
	movss	DWORD PTR [esp], xmm0
	call	?fabs@@YAMM@Z				; fabs
	add	esp, 4
	fstp	DWORD PTR tv420[ebp]
	movss	xmm0, DWORD PTR tv420[ebp]
	mov	eax, DWORD PTR _this$[ebp]
	comiss	xmm0, DWORD PTR [eax+476]
	ja	SHORT $LN12@AddTargetR
	push	ecx
	movss	xmm0, DWORD PTR _dy$[ebp]
	movss	DWORD PTR [esp], xmm0
	call	?fabs@@YAMM@Z				; fabs
	add	esp, 4
	fstp	DWORD PTR tv427[ebp]
	movss	xmm0, DWORD PTR tv427[ebp]
	mov	ecx, DWORD PTR _this$[ebp]
	comiss	xmm0, DWORD PTR [ecx+476]
	jbe	SHORT $LN13@AddTargetR
$LN12@AddTargetR:

; 2030 :       {
; 2031 :          curNode = curNode->next;

	mov	edx, DWORD PTR _curNode$[ebp]
	mov	eax, DWORD PTR [edx+20]
	mov	DWORD PTR _curNode$[ebp], eax

; 2032 :          continue;

	jmp	$LN16@AddTargetR
$LN13@AddTargetR:

; 2033 :       }
; 2034 : 
; 2035 :       // Now check position on screen
; 2036 :       dx = curNode->Object()->XPos() - GMXCenter;

	mov	ecx, DWORD PTR _curNode$[ebp]
	call	?Object@GMList@RadarDopplerClass@@QAEPAVFalconEntity@@XZ ; RadarDopplerClass::GMList::Object
	mov	ecx, eax
	call	?XPos@VuEntity@@QBEMXZ			; VuEntity::XPos
	fstp	DWORD PTR tv435[ebp]
	movss	xmm0, DWORD PTR tv435[ebp]
	mov	ecx, DWORD PTR _this$[ebp]
	subss	xmm0, DWORD PTR [ecx+524]
	movss	DWORD PTR _dx$[ebp], xmm0

; 2037 :       dy = curNode->Object()->YPos() - GMYCenter;

	mov	ecx, DWORD PTR _curNode$[ebp]
	call	?Object@GMList@RadarDopplerClass@@QAEPAVFalconEntity@@XZ ; RadarDopplerClass::GMList::Object
	mov	ecx, eax
	call	?YPos@VuEntity@@QBEMXZ			; VuEntity::YPos
	fstp	DWORD PTR tv441[ebp]
	movss	xmm0, DWORD PTR tv441[ebp]
	mov	edx, DWORD PTR _this$[ebp]
	subss	xmm0, DWORD PTR [edx+528]
	movss	DWORD PTR _dy$[ebp], xmm0

; 2038 : 
; 2039 :       // Note the axis switch from NED to screen
; 2040 :       ry = cosAz * dx - sinAz * dy;

	movss	xmm0, DWORD PTR _cosAz$[ebp]
	mulss	xmm0, DWORD PTR _dx$[ebp]
	movss	xmm1, DWORD PTR _sinAz$[ebp]
	mulss	xmm1, DWORD PTR _dy$[ebp]
	subss	xmm0, xmm1
	movss	DWORD PTR _ry$[ebp], xmm0

; 2041 :       rx = sinAz * dx + cosAz * dy;

	movss	xmm0, DWORD PTR _sinAz$[ebp]
	mulss	xmm0, DWORD PTR _dx$[ebp]
	movss	xmm1, DWORD PTR _cosAz$[ebp]
	mulss	xmm1, DWORD PTR _dy$[ebp]
	addss	xmm0, xmm1
	movss	DWORD PTR _rx$[ebp], xmm0

; 2042 : 
; 2043 :       if (F_ABS(rx) > groundMapRange ||
; 2044 :           F_ABS(ry) > groundMapRange)

	push	ecx
	movss	xmm0, DWORD PTR _rx$[ebp]
	movss	DWORD PTR [esp], xmm0
	call	?F_ABS@@YAMM@Z				; F_ABS
	add	esp, 4
	fstp	DWORD PTR tv452[ebp]
	movss	xmm0, DWORD PTR tv452[ebp]
	mov	eax, DWORD PTR _this$[ebp]
	comiss	xmm0, DWORD PTR [eax+476]
	ja	SHORT $LN10@AddTargetR
	push	ecx
	movss	xmm0, DWORD PTR _ry$[ebp]
	movss	DWORD PTR [esp], xmm0
	call	?F_ABS@@YAMM@Z				; F_ABS
	add	esp, 4
	fstp	DWORD PTR tv459[ebp]
	movss	xmm0, DWORD PTR tv459[ebp]
	mov	ecx, DWORD PTR _this$[ebp]
	comiss	xmm0, DWORD PTR [ecx+476]
	jbe	SHORT $LN11@AddTargetR
$LN10@AddTargetR:

; 2045 :       {
; 2046 :          curNode = curNode->next;

	mov	edx, DWORD PTR _curNode$[ebp]
	mov	eax, DWORD PTR [edx+20]
	mov	DWORD PTR _curNode$[ebp], eax

; 2047 :          continue;

	jmp	$LN16@AddTargetR
$LN11@AddTargetR:

; 2048 :       }
; 2049 :       rx /= groundMapRange;

	mov	ecx, DWORD PTR _this$[ebp]
	movss	xmm0, DWORD PTR _rx$[ebp]
	divss	xmm0, DWORD PTR [ecx+476]
	movss	DWORD PTR _rx$[ebp], xmm0

; 2050 :       ry /= groundMapRange;

	mov	edx, DWORD PTR _this$[ebp]
	movss	xmm0, DWORD PTR _ry$[ebp]
	divss	xmm0, DWORD PTR [edx+476]
	movss	DWORD PTR _ry$[ebp], xmm0

; 2051 : 
; 2052 :       // Check for scan width NOTE 0.57 = tan(30) (90.0 - the azimuth limit)
; 2053 :       if ((ry + 1.0F) / (F_ABS (rx) + 0.001F) > 0.57F || F_ABS(rx) > 1.0F)

	movss	xmm0, DWORD PTR _ry$[ebp]
	addss	xmm0, DWORD PTR __real@3f800000
	push	ecx
	movss	xmm1, DWORD PTR _rx$[ebp]
	movss	DWORD PTR [esp], xmm1
	movss	DWORD PTR tv581[ebp], xmm0
	call	?F_ABS@@YAMM@Z				; F_ABS
	add	esp, 4
	fstp	DWORD PTR tv473[ebp]
	movss	xmm0, DWORD PTR tv473[ebp]
	addss	xmm0, DWORD PTR __real@3a83126f
	movss	xmm1, DWORD PTR tv581[ebp]
	divss	xmm1, xmm0
	comiss	xmm1, DWORD PTR __real@3f11eb85
	ja	SHORT $LN8@AddTargetR
	push	ecx
	movss	xmm0, DWORD PTR _rx$[ebp]
	movss	DWORD PTR [esp], xmm0
	call	?F_ABS@@YAMM@Z				; F_ABS
	add	esp, 4
	fstp	DWORD PTR tv479[ebp]
	movss	xmm0, DWORD PTR tv479[ebp]
	comiss	xmm0, DWORD PTR __real@3f800000
	jbe	$LN9@AddTargetR
$LN8@AddTargetR:

; 2054 :       {
; 2055 : 		  //MI
; 2056 : 		  if(g_bRealisticAvionics && g_bAGRadarFixes)

	movzx	eax, BYTE PTR ?g_bRealisticAvionics@@3_NA ; g_bRealisticAvionics
	test	eax, eax
	je	$LN7@AddTargetR
	movzx	ecx, BYTE PTR ?g_bAGRadarFixes@@3_NA	; g_bAGRadarFixes
	test	ecx, ecx
	je	SHORT $LN7@AddTargetR

; 2057 : 		  {
; 2058 : 			  if(!lockedTarget)

	mov	edx, DWORD PTR _this$[ebp]
	cmp	DWORD PTR [edx+48], 0
	jne	SHORT $LN6@AddTargetR

; 2059 : 			  {
; 2060 : 				  display->AdjustOriginInViewport (rx, ry);

	push	ecx
	movss	xmm0, DWORD PTR _ry$[ebp]
	movss	DWORD PTR [esp], xmm0
	push	ecx
	movss	xmm0, DWORD PTR _rx$[ebp]
	movss	DWORD PTR [esp], xmm0
	mov	eax, DWORD PTR _this$[ebp]
	mov	ecx, DWORD PTR [eax+20]
	call	?AdjustOriginInViewport@VirtualDisplay@@QAEXMM@Z ; VirtualDisplay::AdjustOriginInViewport

; 2061 : 				  DrawSymbol (Solid, 0.0F, 0);

	push	0
	push	0
	push	ecx
	movss	xmm0, DWORD PTR __real@00000000
	movss	DWORD PTR [esp], xmm0
	push	2
	mov	ecx, DWORD PTR _this$[ebp]
	call	?DrawSymbol@RadarDopplerClass@@IAEXHMHH@Z ; RadarDopplerClass::DrawSymbol

; 2062 : 				  display->AdjustOriginInViewport (-rx, -ry); 

	movss	xmm0, DWORD PTR _ry$[ebp]
	xorps	xmm0, DWORD PTR __xmm@80000000800000008000000080000000
	push	ecx
	movss	DWORD PTR [esp], xmm0
	movss	xmm0, DWORD PTR _rx$[ebp]
	xorps	xmm0, DWORD PTR __xmm@80000000800000008000000080000000
	push	ecx
	movss	DWORD PTR [esp], xmm0
	mov	ecx, DWORD PTR _this$[ebp]
	mov	ecx, DWORD PTR [ecx+20]
	call	?AdjustOriginInViewport@VirtualDisplay@@QAEXMM@Z ; VirtualDisplay::AdjustOriginInViewport
$LN6@AddTargetR:

; 2063 : 			  }
; 2064 : 		  }
; 2065 : 		  else

	jmp	SHORT $LN5@AddTargetR
$LN7@AddTargetR:

; 2066 : 		  {
; 2067 : 			  display->AdjustOriginInViewport (rx, ry);

	push	ecx
	movss	xmm0, DWORD PTR _ry$[ebp]
	movss	DWORD PTR [esp], xmm0
	push	ecx
	movss	xmm0, DWORD PTR _rx$[ebp]
	movss	DWORD PTR [esp], xmm0
	mov	edx, DWORD PTR _this$[ebp]
	mov	ecx, DWORD PTR [edx+20]
	call	?AdjustOriginInViewport@VirtualDisplay@@QAEXMM@Z ; VirtualDisplay::AdjustOriginInViewport

; 2068 : 			  DrawSymbol (Solid, 0.0F, 0);

	push	0
	push	0
	push	ecx
	movss	xmm0, DWORD PTR __real@00000000
	movss	DWORD PTR [esp], xmm0
	push	2
	mov	ecx, DWORD PTR _this$[ebp]
	call	?DrawSymbol@RadarDopplerClass@@IAEXHMHH@Z ; RadarDopplerClass::DrawSymbol

; 2069 : 			  display->AdjustOriginInViewport (-rx, -ry);      

	movss	xmm0, DWORD PTR _ry$[ebp]
	xorps	xmm0, DWORD PTR __xmm@80000000800000008000000080000000
	push	ecx
	movss	DWORD PTR [esp], xmm0
	movss	xmm0, DWORD PTR _rx$[ebp]
	xorps	xmm0, DWORD PTR __xmm@80000000800000008000000080000000
	push	ecx
	movss	DWORD PTR [esp], xmm0
	mov	eax, DWORD PTR _this$[ebp]
	mov	ecx, DWORD PTR [eax+20]
	call	?AdjustOriginInViewport@VirtualDisplay@@QAEXMM@Z ; VirtualDisplay::AdjustOriginInViewport
$LN5@AddTargetR:

; 2070 : 		  }
; 2071 : 	  }
; 2072 :       else

	jmp	SHORT $LN3@AddTargetR
$LN9@AddTargetR:

; 2073 :       {
; 2074 :          if (lockedTarget && curNode->Object() == lockedTarget->BaseData())

	mov	ecx, DWORD PTR _this$[ebp]
	cmp	DWORD PTR [ecx+48], 0
	je	SHORT $LN3@AddTargetR
	mov	ecx, DWORD PTR _curNode$[ebp]
	call	?Object@GMList@RadarDopplerClass@@QAEPAVFalconEntity@@XZ ; RadarDopplerClass::GMList::Object
	mov	esi, eax
	mov	edx, DWORD PTR _this$[ebp]
	mov	ecx, DWORD PTR [edx+48]
	call	?BaseData@SimObjectType@@QAEPAVFalconEntity@@XZ ; SimObjectType::BaseData
	cmp	esi, eax
	jne	SHORT $LN3@AddTargetR

; 2075 :          {
; 2076 :             DropGMTrack();

	mov	ecx, DWORD PTR _this$[ebp]
	call	?DropGMTrack@RadarDopplerClass@@IAEXXZ	; RadarDopplerClass::DropGMTrack
$LN3@AddTargetR:

; 2077 :          }
; 2078 :       }
; 2079 : 
; 2080 :       if (flags & NORM)

	mov	eax, DWORD PTR _this$[ebp]
	mov	ecx, DWORD PTR [eax+492]
	and	ecx, 1
	je	SHORT $LN2@AddTargetR

; 2081 :       {
; 2082 :          ry -= cursorY;

	mov	edx, DWORD PTR _this$[ebp]
	movss	xmm0, DWORD PTR _ry$[ebp]
	subss	xmm0, DWORD PTR [edx+224]
	movss	DWORD PTR _ry$[ebp], xmm0

; 2083 :          rx -= cursorX;

	mov	eax, DWORD PTR _this$[ebp]
	movss	xmm0, DWORD PTR _rx$[ebp]
	subss	xmm0, DWORD PTR [eax+220]
	movss	DWORD PTR _rx$[ebp], xmm0
$LN2@AddTargetR:

; 2084 :       }
; 2085 : 
; 2086 :       if (F_ABS(rx) < minDist && F_ABS (ry) < minDist)

	push	ecx
	movss	xmm0, DWORD PTR _rx$[ebp]
	movss	DWORD PTR [esp], xmm0
	call	?F_ABS@@YAMM@Z				; F_ABS
	add	esp, 4
	fstp	DWORD PTR tv520[ebp]
	movss	xmm0, DWORD PTR _minDist$[ebp]
	comiss	xmm0, DWORD PTR tv520[ebp]
	jbe	$LN1@AddTargetR
	push	ecx
	movss	xmm0, DWORD PTR _ry$[ebp]
	movss	DWORD PTR [esp], xmm0
	call	?F_ABS@@YAMM@Z				; F_ABS
	add	esp, 4
	fstp	DWORD PTR tv527[ebp]
	movss	xmm0, DWORD PTR _minDist$[ebp]
	comiss	xmm0, DWORD PTR tv527[ebp]
	jbe	$LN1@AddTargetR

; 2087 :       {
; 2088 :          minDist = (float)min ( min (minDist, F_ABS(rx)), F_ABS(ry));

	push	ecx
	movss	xmm0, DWORD PTR _rx$[ebp]
	movss	DWORD PTR [esp], xmm0
	call	?F_ABS@@YAMM@Z				; F_ABS
	add	esp, 4
	fstp	DWORD PTR tv535[ebp]
	movss	xmm0, DWORD PTR tv535[ebp]
	comiss	xmm0, DWORD PTR _minDist$[ebp]
	jbe	SHORT $LN21@AddTargetR
	movss	xmm0, DWORD PTR _minDist$[ebp]
	movss	DWORD PTR tv314[ebp], xmm0
	jmp	SHORT $LN22@AddTargetR
$LN21@AddTargetR:
	push	ecx
	movss	xmm0, DWORD PTR _rx$[ebp]
	movss	DWORD PTR [esp], xmm0
	call	?F_ABS@@YAMM@Z				; F_ABS
	add	esp, 4
	fstp	DWORD PTR tv314[ebp]
$LN22@AddTargetR:
	push	ecx
	movss	xmm0, DWORD PTR _ry$[ebp]
	movss	DWORD PTR [esp], xmm0
	call	?F_ABS@@YAMM@Z				; F_ABS
	add	esp, 4
	fstp	DWORD PTR tv548[ebp]
	movss	xmm0, DWORD PTR tv548[ebp]
	comiss	xmm0, DWORD PTR tv314[ebp]
	jbe	SHORT $LN25@AddTargetR
	push	ecx
	movss	xmm0, DWORD PTR _rx$[ebp]
	movss	DWORD PTR [esp], xmm0
	call	?F_ABS@@YAMM@Z				; F_ABS
	add	esp, 4
	fstp	DWORD PTR tv555[ebp]
	movss	xmm0, DWORD PTR tv555[ebp]
	comiss	xmm0, DWORD PTR _minDist$[ebp]
	jbe	SHORT $LN23@AddTargetR
	movss	xmm0, DWORD PTR _minDist$[ebp]
	movss	DWORD PTR tv326[ebp], xmm0
	jmp	SHORT $LN24@AddTargetR
$LN23@AddTargetR:
	push	ecx
	movss	xmm0, DWORD PTR _rx$[ebp]
	movss	DWORD PTR [esp], xmm0
	call	?F_ABS@@YAMM@Z				; F_ABS
	add	esp, 4
	fstp	DWORD PTR tv326[ebp]
$LN24@AddTargetR:
	movss	xmm0, DWORD PTR tv326[ebp]
	movss	DWORD PTR tv330[ebp], xmm0
	jmp	SHORT $LN26@AddTargetR
$LN25@AddTargetR:
	push	ecx
	movss	xmm0, DWORD PTR _ry$[ebp]
	movss	DWORD PTR [esp], xmm0
	call	?F_ABS@@YAMM@Z				; F_ABS
	add	esp, 4
	fstp	DWORD PTR tv330[ebp]
$LN26@AddTargetR:
	movss	xmm0, DWORD PTR tv330[ebp]
	movss	DWORD PTR _minDist$[ebp], xmm0

; 2089 :          targetUnderCursor = curNode->Object()->Id();

	lea	ecx, DWORD PTR $T1[ebp]
	push	ecx
	mov	ecx, DWORD PTR _curNode$[ebp]
	call	?Object@GMList@RadarDopplerClass@@QAEPAVFalconEntity@@XZ ; RadarDopplerClass::GMList::Object
	mov	ecx, eax
	call	?Id@VuEntity@@QBE?AVVU_ID@@XZ		; VuEntity::Id
	mov	edx, DWORD PTR [eax]
	mov	eax, DWORD PTR [eax+4]
	mov	ecx, DWORD PTR _this$[ebp]
	mov	DWORD PTR [ecx+36], edx
	mov	DWORD PTR [ecx+40], eax
$LN1@AddTargetR:

; 2090 :       }
; 2091 : 
; 2092 :       curNode = curNode->next;

	mov	edx, DWORD PTR _curNode$[ebp]
	mov	eax, DWORD PTR [edx+20]
	mov	DWORD PTR _curNode$[ebp], eax

; 2093 :    }

	jmp	$LN16@AddTargetR
$LN14@AddTargetR:

; 2094 : }

	pop	esi
	mov	esp, ebp
	pop	ebp
	ret	4
?AddTargetReturnsOldStyle@RadarDopplerClass@@IAEXPAVGMList@1@@Z ENDP ; RadarDopplerClass::AddTargetReturnsOldStyle
_TEXT	ENDS
; Function compile flags: /Odtp
; File c:\users\zhitao li\documents\visual studio 2012\projects\freefalcon\sim\radar\gmscope.cpp
_TEXT	SEGMENT
$T1 = -128						; size = 8
_trig$ = -120						; size = 8
tv550 = -112						; size = 4
tv543 = -108						; size = 4
tv530 = -104						; size = 4
tv522 = -100						; size = 4
tv515 = -96						; size = 4
tv461 = -92						; size = 4
tv576 = -88						; size = 4
tv455 = -84						; size = 4
tv441 = -80						; size = 4
tv434 = -76						; size = 4
tv423 = -72						; size = 4
tv417 = -68						; size = 4
tv394 = -64						; size = 4
tv386 = -60						; size = 4
tv339 = -56						; size = 4
tv335 = -52						; size = 4
tv323 = -48						; size = 4
_drawable$2 = -44					; size = 4
_dy$ = -40						; size = 4
_cosAz$ = -36						; size = 4
_dx$ = -32						; size = 4
_sinAz$ = -28						; size = 4
_GainScale$ = -24					; size = 4
_minDist$ = -20						; size = 4
_ry$ = -16						; size = 4
_rx$ = -12						; size = 4
_curNode$ = -8						; size = 4
_this$ = -4						; size = 4
_renderer$ = 8						; size = 4
_Shaping$ = 12						; size = 1
?AddTargetReturns@RadarDopplerClass@@IAEXPAVRenderGMRadar@@_N@Z PROC ; RadarDopplerClass::AddTargetReturns
; _this$ = ecx

; 1881 : {

	push	ebp
	mov	ebp, esp
	sub	esp, 128				; 00000080H
	push	esi
	mov	DWORD PTR _this$[ebp], ecx

; 1882 : float			dx, dy;
; 1883 : float			rx, ry, GainScale = 1.0f;

	movss	xmm0, DWORD PTR __real@3f800000
	movss	DWORD PTR _GainScale$[ebp], xmm0

; 1884 : float			cosAz, sinAz;
; 1885 : mlTrig			trig;
; 1886 : GMList			*curNode;
; 1887 : float       minDist = 0.05F;

	movss	xmm0, DWORD PTR __real@3d4ccccd
	movss	DWORD PTR _minDist$[ebp], xmm0

; 1888 : 
; 1889 :    mlSinCos (&trig, headingForDisplay);

	push	ecx
	movss	xmm0, DWORD PTR _headingForDisplay
	movss	DWORD PTR [esp], xmm0
	lea	eax, DWORD PTR _trig$[ebp]
	push	eax
	call	?mlSinCos@@YAXPAUmlTrig@@M@Z		; mlSinCos
	add	esp, 8

; 1890 :    cosAz =  trig.cos;

	movss	xmm0, DWORD PTR _trig$[ebp+4]
	movss	DWORD PTR _cosAz$[ebp], xmm0

; 1891 :    sinAz = -trig.sin;

	movss	xmm0, DWORD PTR _trig$[ebp]
	xorps	xmm0, DWORD PTR __xmm@80000000800000008000000080000000
	movss	DWORD PTR _sinAz$[ebp], xmm0

; 1892 : 
; 1893 :    // Offset the spots correctly
; 1894 :    if (!(flags & FZ))

	mov	ecx, DWORD PTR _this$[ebp]
	mov	edx, DWORD PTR [ecx+492]
	and	edx, 32					; 00000020H
	jne	$LN20@AddTargetR

; 1895 :    {
; 1896 :       if (flags & NORM)

	mov	eax, DWORD PTR _this$[ebp]
	mov	ecx, DWORD PTR [eax+492]
	and	ecx, 1
	je	SHORT $LN21@AddTargetR

; 1897 :       {
; 1898 :          // Find center of scope
; 1899 :          GMXCenter = platform->XPos() + tdisplayRange * trig.cos * 0.5F;

	mov	edx, DWORD PTR _this$[ebp]
	mov	ecx, DWORD PTR [edx+32]
	call	?XPos@VuEntity@@QBEMXZ			; VuEntity::XPos
	fstp	DWORD PTR tv386[ebp]
	movss	xmm0, DWORD PTR tv386[ebp]
	mov	eax, DWORD PTR _this$[ebp]
	movss	xmm1, DWORD PTR [eax+264]
	mulss	xmm1, DWORD PTR _trig$[ebp+4]
	mulss	xmm1, DWORD PTR __real@3f000000
	addss	xmm0, xmm1
	mov	ecx, DWORD PTR _this$[ebp]
	movss	DWORD PTR [ecx+524], xmm0

; 1900 :          GMYCenter = platform->YPos() + tdisplayRange * trig.sin * 0.5F;

	mov	edx, DWORD PTR _this$[ebp]
	mov	ecx, DWORD PTR [edx+32]
	call	?YPos@VuEntity@@QBEMXZ			; VuEntity::YPos
	fstp	DWORD PTR tv394[ebp]
	movss	xmm0, DWORD PTR tv394[ebp]
	mov	eax, DWORD PTR _this$[ebp]
	movss	xmm1, DWORD PTR [eax+264]
	mulss	xmm1, DWORD PTR _trig$[ebp]
	mulss	xmm1, DWORD PTR __real@3f000000
	addss	xmm0, xmm1
	mov	ecx, DWORD PTR _this$[ebp]
	movss	DWORD PTR [ecx+528], xmm0

; 1901 :       }
; 1902 :       else

	jmp	SHORT $LN20@AddTargetR
$LN21@AddTargetR:

; 1903 :       {
; 1904 :          GMXCenter = GMat.x;

	mov	edx, DWORD PTR _this$[ebp]
	movss	xmm0, DWORD PTR _GMat
	movss	DWORD PTR [edx+524], xmm0

; 1905 :          GMYCenter = GMat.y;

	mov	eax, DWORD PTR _this$[ebp]
	movss	xmm0, DWORD PTR _GMat+4
	movss	DWORD PTR [eax+528], xmm0
$LN20@AddTargetR:

; 1906 :       }
; 1907 :    }
; 1908 : 
; 1909 :    // Draw the appropriate type of targets
; 1910 :    // TODO:  We should select _any_ large targets for GM, and only moving targets for GMT/SEA
; 1911 :    if (mode == GM) {

	mov	ecx, DWORD PTR _this$[ebp]
	cmp	DWORD PTR [ecx+184], 14			; 0000000eH
	jne	SHORT $LN19@AddTargetR

; 1912 :       curNode = GMFeatureListRoot;

	mov	edx, DWORD PTR _this$[ebp]
	mov	eax, DWORD PTR [edx+516]
	mov	DWORD PTR _curNode$[ebp], eax

; 1913 : 	  GainScale = 1.0f;

	movss	xmm0, DWORD PTR __real@3f800000
	movss	DWORD PTR _GainScale$[ebp], xmm0

; 1914 :    } else {	// GMT or SEA

	jmp	SHORT $LN18@AddTargetR
$LN19@AddTargetR:

; 1915 :       curNode = GMMoverListRoot;

	mov	ecx, DWORD PTR _this$[ebp]
	mov	edx, DWORD PTR [ecx+520]
	mov	DWORD PTR _curNode$[ebp], edx

; 1916 : 	  GainScale = 4.0f;

	movss	xmm0, DWORD PTR __real@40800000
	movss	DWORD PTR _GainScale$[ebp], xmm0
$LN18@AddTargetR:

; 1917 :    }
; 1918 : 
; 1919 :    // Clear target under cursor;
; 1920 :    targetUnderCursor = FalconNullId;

	mov	eax, DWORD PTR _this$[ebp]
	mov	ecx, DWORD PTR ?FalconNullId@@3VVU_ID@@A
	mov	DWORD PTR [eax+36], ecx
	mov	edx, DWORD PTR ?FalconNullId@@3VVU_ID@@A+4
	mov	DWORD PTR [eax+40], edx
$LN31@AddTargetR:

; 1921 : 
; 1922 :    while (curNode)

	cmp	DWORD PTR _curNode$[ebp], 0
	je	$LN16@AddTargetR

; 1923 :    {
; 1924 :       dx = curNode->Object()->XPos() - GMXCenter;

	mov	ecx, DWORD PTR _curNode$[ebp]
	call	?Object@GMList@RadarDopplerClass@@QAEPAVFalconEntity@@XZ ; RadarDopplerClass::GMList::Object
	mov	ecx, eax
	call	?XPos@VuEntity@@QBEMXZ			; VuEntity::XPos
	fstp	DWORD PTR tv417[ebp]
	movss	xmm0, DWORD PTR tv417[ebp]
	mov	eax, DWORD PTR _this$[ebp]
	subss	xmm0, DWORD PTR [eax+524]
	movss	DWORD PTR _dx$[ebp], xmm0

; 1925 :       dy = curNode->Object()->YPos() - GMYCenter;

	mov	ecx, DWORD PTR _curNode$[ebp]
	call	?Object@GMList@RadarDopplerClass@@QAEPAVFalconEntity@@XZ ; RadarDopplerClass::GMList::Object
	mov	ecx, eax
	call	?YPos@VuEntity@@QBEMXZ			; VuEntity::YPos
	fstp	DWORD PTR tv423[ebp]
	movss	xmm0, DWORD PTR tv423[ebp]
	mov	ecx, DWORD PTR _this$[ebp]
	subss	xmm0, DWORD PTR [ecx+528]
	movss	DWORD PTR _dy$[ebp], xmm0

; 1926 : 
; 1927 :       // Note the axis switch from NED to screen
; 1928 :       ry = cosAz * dx - sinAz * dy;

	movss	xmm0, DWORD PTR _cosAz$[ebp]
	mulss	xmm0, DWORD PTR _dx$[ebp]
	movss	xmm1, DWORD PTR _sinAz$[ebp]
	mulss	xmm1, DWORD PTR _dy$[ebp]
	subss	xmm0, xmm1
	movss	DWORD PTR _ry$[ebp], xmm0

; 1929 :       rx = sinAz * dx + cosAz * dy;

	movss	xmm0, DWORD PTR _sinAz$[ebp]
	mulss	xmm0, DWORD PTR _dx$[ebp]
	movss	xmm1, DWORD PTR _cosAz$[ebp]
	mulss	xmm1, DWORD PTR _dy$[ebp]
	addss	xmm0, xmm1
	movss	DWORD PTR _rx$[ebp], xmm0

; 1930 : 
; 1931 :       if (F_ABS(rx) > groundMapRange &&
; 1932 :           F_ABS(ry) > groundMapRange)

	push	ecx
	movss	xmm0, DWORD PTR _rx$[ebp]
	movss	DWORD PTR [esp], xmm0
	call	?F_ABS@@YAMM@Z				; F_ABS
	add	esp, 4
	fstp	DWORD PTR tv434[ebp]
	movss	xmm0, DWORD PTR tv434[ebp]
	mov	edx, DWORD PTR _this$[ebp]
	comiss	xmm0, DWORD PTR [edx+476]
	jbe	SHORT $LN15@AddTargetR
	push	ecx
	movss	xmm0, DWORD PTR _ry$[ebp]
	movss	DWORD PTR [esp], xmm0
	call	?F_ABS@@YAMM@Z				; F_ABS
	add	esp, 4
	fstp	DWORD PTR tv441[ebp]
	movss	xmm0, DWORD PTR tv441[ebp]
	mov	eax, DWORD PTR _this$[ebp]
	comiss	xmm0, DWORD PTR [eax+476]
	jbe	SHORT $LN15@AddTargetR

; 1933 :       {
; 1934 :          curNode = curNode->next;

	mov	ecx, DWORD PTR _curNode$[ebp]
	mov	edx, DWORD PTR [ecx+20]
	mov	DWORD PTR _curNode$[ebp], edx

; 1935 :          continue;

	jmp	$LN31@AddTargetR
$LN15@AddTargetR:

; 1936 :       }
; 1937 :       rx /= groundMapRange;

	mov	eax, DWORD PTR _this$[ebp]
	movss	xmm0, DWORD PTR _rx$[ebp]
	divss	xmm0, DWORD PTR [eax+476]
	movss	DWORD PTR _rx$[ebp], xmm0

; 1938 :       ry /= groundMapRange;

	mov	ecx, DWORD PTR _this$[ebp]
	movss	xmm0, DWORD PTR _ry$[ebp]
	divss	xmm0, DWORD PTR [ecx+476]
	movss	DWORD PTR _ry$[ebp], xmm0

; 1939 : 
; 1940 :       // Check for scan width NOTE 0.57 = tan(30) (90.0 - the azimuth limit)
; 1941 :       if ((ry + 1.0F) / (F_ABS (rx) + 0.001F) > 0.57F || F_ABS(rx) > 1.0F)

	movss	xmm0, DWORD PTR _ry$[ebp]
	addss	xmm0, DWORD PTR __real@3f800000
	push	ecx
	movss	xmm1, DWORD PTR _rx$[ebp]
	movss	DWORD PTR [esp], xmm1
	movss	DWORD PTR tv576[ebp], xmm0
	call	?F_ABS@@YAMM@Z				; F_ABS
	add	esp, 4
	fstp	DWORD PTR tv455[ebp]
	movss	xmm0, DWORD PTR tv455[ebp]
	addss	xmm0, DWORD PTR __real@3a83126f
	movss	xmm1, DWORD PTR tv576[ebp]
	divss	xmm1, xmm0
	comiss	xmm1, DWORD PTR __real@3f11eb85
	ja	SHORT $LN13@AddTargetR
	push	ecx
	movss	xmm0, DWORD PTR _rx$[ebp]
	movss	DWORD PTR [esp], xmm0
	call	?F_ABS@@YAMM@Z				; F_ABS
	add	esp, 4
	fstp	DWORD PTR tv461[ebp]
	movss	xmm0, DWORD PTR tv461[ebp]
	comiss	xmm0, DWORD PTR __real@3f800000
	jbe	$LN14@AddTargetR
$LN13@AddTargetR:

; 1942 :       {
; 1943 : 		  if (curNode->Object()->IsSim() && ((SimBaseClass*)curNode->Object())->IsAwake()) 

	mov	ecx, DWORD PTR _curNode$[ebp]
	call	?Object@GMList@RadarDopplerClass@@QAEPAVFalconEntity@@XZ ; RadarDopplerClass::GMList::Object
	mov	ecx, eax
	call	?IsSim@FalconEntity@@QAEHXZ		; FalconEntity::IsSim
	test	eax, eax
	je	SHORT $LN12@AddTargetR
	mov	ecx, DWORD PTR _curNode$[ebp]
	call	?Object@GMList@RadarDopplerClass@@QAEPAVFalconEntity@@XZ ; RadarDopplerClass::GMList::Object
	mov	ecx, eax
	call	?IsAwake@SimBaseClass@@QBEHXZ		; SimBaseClass::IsAwake
	test	eax, eax
	je	SHORT $LN12@AddTargetR

; 1944 : 		  {
; 1945 : 			  DrawableObject *drawable = ((SimBaseClass*)curNode->Object())->drawPointer;

	mov	ecx, DWORD PTR _curNode$[ebp]
	call	?Object@GMList@RadarDopplerClass@@QAEPAVFalconEntity@@XZ ; RadarDopplerClass::GMList::Object
	mov	edx, DWORD PTR [eax+332]
	mov	DWORD PTR _drawable$2[ebp], edx

; 1946 : 			  //MI
; 1947 : 			  if(g_bRealisticAvionics && g_bAGRadarFixes)

	movzx	eax, BYTE PTR ?g_bRealisticAvionics@@3_NA ; g_bRealisticAvionics
	test	eax, eax
	je	SHORT $LN11@AddTargetR
	movzx	ecx, BYTE PTR ?g_bAGRadarFixes@@3_NA	; g_bAGRadarFixes
	test	ecx, ecx
	je	SHORT $LN11@AddTargetR

; 1948 : 			  {
; 1949 : 				  if(!lockedTarget)

	mov	edx, DWORD PTR _this$[ebp]
	cmp	DWORD PTR [edx+48], 0
	jne	SHORT $LN10@AddTargetR

; 1950 : 					  renderer->DrawBlip( drawable, GainScale, Shaping );

	movzx	eax, BYTE PTR _Shaping$[ebp]
	push	eax
	push	ecx
	movss	xmm0, DWORD PTR _GainScale$[ebp]
	movss	DWORD PTR [esp], xmm0
	mov	ecx, DWORD PTR _drawable$2[ebp]
	push	ecx
	mov	ecx, DWORD PTR _renderer$[ebp]
	call	?DrawBlip@RenderGMRadar@@QAEXPAVDrawableObject@@M_N@Z ; RenderGMRadar::DrawBlip
$LN10@AddTargetR:

; 1951 : 			  }
; 1952 : 			  else

	jmp	SHORT $LN9@AddTargetR
$LN11@AddTargetR:

; 1953 : 				  renderer->DrawBlip( drawable, GainScale, Shaping );

	movzx	edx, BYTE PTR _Shaping$[ebp]
	push	edx
	push	ecx
	movss	xmm0, DWORD PTR _GainScale$[ebp]
	movss	DWORD PTR [esp], xmm0
	mov	eax, DWORD PTR _drawable$2[ebp]
	push	eax
	mov	ecx, DWORD PTR _renderer$[ebp]
	call	?DrawBlip@RenderGMRadar@@QAEXPAVDrawableObject@@M_N@Z ; RenderGMRadar::DrawBlip
$LN9@AddTargetR:

; 1954 : 		  } 
; 1955 : 		  else 

	jmp	SHORT $LN5@AddTargetR
$LN12@AddTargetR:

; 1956 : 		  {
; 1957 : 			  //MI
; 1958 : 			  if(g_bRealisticAvionics && g_bAGRadarFixes)

	movzx	ecx, BYTE PTR ?g_bRealisticAvionics@@3_NA ; g_bRealisticAvionics
	test	ecx, ecx
	je	SHORT $LN7@AddTargetR
	movzx	edx, BYTE PTR ?g_bAGRadarFixes@@3_NA	; g_bAGRadarFixes
	test	edx, edx
	je	SHORT $LN7@AddTargetR

; 1959 : 			  {
; 1960 : 				  if(!lockedTarget)

	mov	eax, DWORD PTR _this$[ebp]
	cmp	DWORD PTR [eax+48], 0
	jne	SHORT $LN6@AddTargetR

; 1961 : 					  renderer->DrawBlip( curNode->Object()->XPos(), curNode->Object()->YPos() );

	mov	ecx, DWORD PTR _curNode$[ebp]
	call	?Object@GMList@RadarDopplerClass@@QAEPAVFalconEntity@@XZ ; RadarDopplerClass::GMList::Object
	mov	ecx, eax
	call	?YPos@VuEntity@@QBEMXZ			; VuEntity::YPos
	push	ecx
	fstp	DWORD PTR [esp]
	mov	ecx, DWORD PTR _curNode$[ebp]
	call	?Object@GMList@RadarDopplerClass@@QAEPAVFalconEntity@@XZ ; RadarDopplerClass::GMList::Object
	mov	ecx, eax
	call	?XPos@VuEntity@@QBEMXZ			; VuEntity::XPos
	push	ecx
	fstp	DWORD PTR [esp]
	mov	ecx, DWORD PTR _renderer$[ebp]
	call	?DrawBlip@RenderGMRadar@@QAEXMM@Z	; RenderGMRadar::DrawBlip
$LN6@AddTargetR:

; 1962 : 			  }
; 1963 : 			  else

	jmp	SHORT $LN5@AddTargetR
$LN7@AddTargetR:

; 1964 : 				  renderer->DrawBlip( curNode->Object()->XPos(), curNode->Object()->YPos() );

	mov	ecx, DWORD PTR _curNode$[ebp]
	call	?Object@GMList@RadarDopplerClass@@QAEPAVFalconEntity@@XZ ; RadarDopplerClass::GMList::Object
	mov	ecx, eax
	call	?YPos@VuEntity@@QBEMXZ			; VuEntity::YPos
	push	ecx
	fstp	DWORD PTR [esp]
	mov	ecx, DWORD PTR _curNode$[ebp]
	call	?Object@GMList@RadarDopplerClass@@QAEPAVFalconEntity@@XZ ; RadarDopplerClass::GMList::Object
	mov	ecx, eax
	call	?XPos@VuEntity@@QBEMXZ			; VuEntity::XPos
	push	ecx
	fstp	DWORD PTR [esp]
	mov	ecx, DWORD PTR _renderer$[ebp]
	call	?DrawBlip@RenderGMRadar@@QAEXMM@Z	; RenderGMRadar::DrawBlip
$LN5@AddTargetR:

; 1965 : 		  }
; 1966 :       }
; 1967 :       else

	jmp	SHORT $LN3@AddTargetR
$LN14@AddTargetR:

; 1968 :       {
; 1969 :          if (lockedTarget && curNode->Object() == lockedTarget->BaseData())

	mov	ecx, DWORD PTR _this$[ebp]
	cmp	DWORD PTR [ecx+48], 0
	je	SHORT $LN3@AddTargetR
	mov	ecx, DWORD PTR _curNode$[ebp]
	call	?Object@GMList@RadarDopplerClass@@QAEPAVFalconEntity@@XZ ; RadarDopplerClass::GMList::Object
	mov	esi, eax
	mov	edx, DWORD PTR _this$[ebp]
	mov	ecx, DWORD PTR [edx+48]
	call	?BaseData@SimObjectType@@QAEPAVFalconEntity@@XZ ; SimObjectType::BaseData
	cmp	esi, eax
	jne	SHORT $LN3@AddTargetR

; 1970 :          {
; 1971 :             DropGMTrack();

	mov	ecx, DWORD PTR _this$[ebp]
	call	?DropGMTrack@RadarDopplerClass@@IAEXXZ	; RadarDopplerClass::DropGMTrack
$LN3@AddTargetR:

; 1972 :          }
; 1973 :       }
; 1974 : 
; 1975 :       if (flags & NORM)

	mov	eax, DWORD PTR _this$[ebp]
	mov	ecx, DWORD PTR [eax+492]
	and	ecx, 1
	je	SHORT $LN2@AddTargetR

; 1976 :       {
; 1977 :          ry -= cursorY;

	mov	edx, DWORD PTR _this$[ebp]
	movss	xmm0, DWORD PTR _ry$[ebp]
	subss	xmm0, DWORD PTR [edx+224]
	movss	DWORD PTR _ry$[ebp], xmm0

; 1978 :          rx -= cursorX;

	mov	eax, DWORD PTR _this$[ebp]
	movss	xmm0, DWORD PTR _rx$[ebp]
	subss	xmm0, DWORD PTR [eax+220]
	movss	DWORD PTR _rx$[ebp], xmm0
$LN2@AddTargetR:

; 1979 :       }
; 1980 : 
; 1981 :       if (F_ABS(rx) < minDist && F_ABS(ry) < minDist)

	push	ecx
	movss	xmm0, DWORD PTR _rx$[ebp]
	movss	DWORD PTR [esp], xmm0
	call	?F_ABS@@YAMM@Z				; F_ABS
	add	esp, 4
	fstp	DWORD PTR tv515[ebp]
	movss	xmm0, DWORD PTR _minDist$[ebp]
	comiss	xmm0, DWORD PTR tv515[ebp]
	jbe	$LN1@AddTargetR
	push	ecx
	movss	xmm0, DWORD PTR _ry$[ebp]
	movss	DWORD PTR [esp], xmm0
	call	?F_ABS@@YAMM@Z				; F_ABS
	add	esp, 4
	fstp	DWORD PTR tv522[ebp]
	movss	xmm0, DWORD PTR _minDist$[ebp]
	comiss	xmm0, DWORD PTR tv522[ebp]
	jbe	$LN1@AddTargetR

; 1982 :       {
; 1983 :          minDist = min ( min (minDist, (float)F_ABS(rx)), (float)F_ABS(ry));

	push	ecx
	movss	xmm0, DWORD PTR _rx$[ebp]
	movss	DWORD PTR [esp], xmm0
	call	?F_ABS@@YAMM@Z				; F_ABS
	add	esp, 4
	fstp	DWORD PTR tv530[ebp]
	movss	xmm0, DWORD PTR tv530[ebp]
	comiss	xmm0, DWORD PTR _minDist$[ebp]
	jbe	SHORT $LN25@AddTargetR
	movss	xmm0, DWORD PTR _minDist$[ebp]
	movss	DWORD PTR tv323[ebp], xmm0
	jmp	SHORT $LN26@AddTargetR
$LN25@AddTargetR:
	push	ecx
	movss	xmm0, DWORD PTR _rx$[ebp]
	movss	DWORD PTR [esp], xmm0
	call	?F_ABS@@YAMM@Z				; F_ABS
	add	esp, 4
	fstp	DWORD PTR tv323[ebp]
$LN26@AddTargetR:
	push	ecx
	movss	xmm0, DWORD PTR _ry$[ebp]
	movss	DWORD PTR [esp], xmm0
	call	?F_ABS@@YAMM@Z				; F_ABS
	add	esp, 4
	fstp	DWORD PTR tv543[ebp]
	movss	xmm0, DWORD PTR tv543[ebp]
	comiss	xmm0, DWORD PTR tv323[ebp]
	jbe	SHORT $LN29@AddTargetR
	push	ecx
	movss	xmm0, DWORD PTR _rx$[ebp]
	movss	DWORD PTR [esp], xmm0
	call	?F_ABS@@YAMM@Z				; F_ABS
	add	esp, 4
	fstp	DWORD PTR tv550[ebp]
	movss	xmm0, DWORD PTR tv550[ebp]
	comiss	xmm0, DWORD PTR _minDist$[ebp]
	jbe	SHORT $LN27@AddTargetR
	movss	xmm0, DWORD PTR _minDist$[ebp]
	movss	DWORD PTR tv335[ebp], xmm0
	jmp	SHORT $LN28@AddTargetR
$LN27@AddTargetR:
	push	ecx
	movss	xmm0, DWORD PTR _rx$[ebp]
	movss	DWORD PTR [esp], xmm0
	call	?F_ABS@@YAMM@Z				; F_ABS
	add	esp, 4
	fstp	DWORD PTR tv335[ebp]
$LN28@AddTargetR:
	movss	xmm0, DWORD PTR tv335[ebp]
	movss	DWORD PTR tv339[ebp], xmm0
	jmp	SHORT $LN30@AddTargetR
$LN29@AddTargetR:
	push	ecx
	movss	xmm0, DWORD PTR _ry$[ebp]
	movss	DWORD PTR [esp], xmm0
	call	?F_ABS@@YAMM@Z				; F_ABS
	add	esp, 4
	fstp	DWORD PTR tv339[ebp]
$LN30@AddTargetR:
	movss	xmm0, DWORD PTR tv339[ebp]
	movss	DWORD PTR _minDist$[ebp], xmm0

; 1984 :          targetUnderCursor = curNode->Object()->Id();

	lea	ecx, DWORD PTR $T1[ebp]
	push	ecx
	mov	ecx, DWORD PTR _curNode$[ebp]
	call	?Object@GMList@RadarDopplerClass@@QAEPAVFalconEntity@@XZ ; RadarDopplerClass::GMList::Object
	mov	ecx, eax
	call	?Id@VuEntity@@QBE?AVVU_ID@@XZ		; VuEntity::Id
	mov	edx, DWORD PTR [eax]
	mov	eax, DWORD PTR [eax+4]
	mov	ecx, DWORD PTR _this$[ebp]
	mov	DWORD PTR [ecx+36], edx
	mov	DWORD PTR [ecx+40], eax
$LN1@AddTargetR:

; 1985 :       }
; 1986 : 
; 1987 :       curNode = curNode->next;

	mov	edx, DWORD PTR _curNode$[ebp]
	mov	eax, DWORD PTR [edx+20]
	mov	DWORD PTR _curNode$[ebp], eax

; 1988 :    }

	jmp	$LN31@AddTargetR
$LN16@AddTargetR:

; 1989 : 
; 1990 : }

	pop	esi
	mov	esp, ebp
	pop	ebp
	ret	8
?AddTargetReturns@RadarDopplerClass@@IAEXPAVRenderGMRadar@@_N@Z ENDP ; RadarDopplerClass::AddTargetReturns
_TEXT	ENDS
; Function compile flags: /Odtp
; File c:\users\zhitao li\documents\visual studio 2012\projects\freefalcon\sim\radar\gmscope.cpp
_TEXT	SEGMENT
_self$ = 8						; size = 4
_renderer$ = 12						; size = 4
_Shaping$ = 16						; size = 1
?AddTargetReturnCallback@RadarDopplerClass@@KAXPAXPAVRenderGMRadar@@_N@Z PROC ; RadarDopplerClass::AddTargetReturnCallback

; 1875 : void RadarDopplerClass::AddTargetReturnCallback( void* self, RenderGMRadar* renderer, bool Shaping ){

	push	ebp
	mov	ebp, esp

; 1876 : 	((RadarDopplerClass*)self)->AddTargetReturns(renderer, Shaping);

	movzx	eax, BYTE PTR _Shaping$[ebp]
	push	eax
	mov	ecx, DWORD PTR _renderer$[ebp]
	push	ecx
	mov	ecx, DWORD PTR _self$[ebp]
	call	?AddTargetReturns@RadarDopplerClass@@IAEXPAVRenderGMRadar@@_N@Z ; RadarDopplerClass::AddTargetReturns

; 1877 : }

	pop	ebp
	ret	0
?AddTargetReturnCallback@RadarDopplerClass@@KAXPAXPAVRenderGMRadar@@_N@Z ENDP ; RadarDopplerClass::AddTargetReturnCallback
_TEXT	ENDS
; Function compile flags: /Odtp
; File c:\users\zhitao li\documents\visual studio 2012\projects\freefalcon\sim\radar\gmscope.cpp
_TEXT	SEGMENT
_trig$ = -76						; size = 8
tv464 = -68						; size = 4
tv432 = -64						; size = 4
tv427 = -60						; size = 4
tv462 = -56						; size = 4
tv419 = -52						; size = 4
tv414 = -48						; size = 4
tv406 = -44						; size = 4
tv399 = -40						; size = 4
tv460 = -36						; size = 4
tv373 = -32						; size = 4
tv368 = -28						; size = 4
tv458 = -24						; size = 4
tv360 = -20						; size = 4
tv355 = -16						; size = 4
_cosAz$ = -12						; size = 4
_sinAz$ = -8						; size = 4
_this$ = -4						; size = 4
?DropGMTrack@RadarDopplerClass@@IAEXXZ PROC		; RadarDopplerClass::DropGMTrack
; _this$ = ecx

; 522  : {

	push	ebp
	mov	ebp, esp
	sub	esp, 76					; 0000004cH
	mov	DWORD PTR _this$[ebp], ecx

; 523  : 	float cosAz, sinAz;
; 524  : 	mlTrig trig;
; 525  : 	
; 526  : 	if (lockedTarget)

	mov	eax, DWORD PTR _this$[ebp]
	cmp	DWORD PTR [eax+48], 0
	je	$LN10@DropGMTrac

; 527  : 	{
; 528  : 		if(g_bRealisticAvionics && g_bAGRadarFixes)

	movzx	ecx, BYTE PTR ?g_bRealisticAvionics@@3_NA ; g_bRealisticAvionics
	test	ecx, ecx
	je	$LN9@DropGMTrac
	movzx	edx, BYTE PTR ?g_bAGRadarFixes@@3_NA	; g_bAGRadarFixes
	test	edx, edx
	je	$LN9@DropGMTrac

; 529  : 		{
; 530  : 			mlSinCos (&trig, headingForDisplay);			  

	push	ecx
	movss	xmm0, DWORD PTR _headingForDisplay
	movss	DWORD PTR [esp], xmm0
	lea	eax, DWORD PTR _trig$[ebp]
	push	eax
	call	?mlSinCos@@YAXPAUmlTrig@@M@Z		; mlSinCos
	add	esp, 8

; 531  : 			cosAz = trig.cos;			   

	movss	xmm0, DWORD PTR _trig$[ebp+4]
	movss	DWORD PTR _cosAz$[ebp], xmm0

; 532  : 			sinAz = trig.sin;

	movss	xmm0, DWORD PTR _trig$[ebp]
	movss	DWORD PTR _sinAz$[ebp], xmm0

; 533  : 			
; 534  : 			viewOffsetInertial.x = lockedTarget->BaseData()->XPos() -
; 535  : 				(platform->XPos() + tdisplayRange * cosAz * 0.5F);

	mov	ecx, DWORD PTR _this$[ebp]
	mov	ecx, DWORD PTR [ecx+48]
	call	?BaseData@SimObjectType@@QAEPAVFalconEntity@@XZ ; SimObjectType::BaseData
	mov	ecx, eax
	call	?XPos@VuEntity@@QBEMXZ			; VuEntity::XPos
	fstp	DWORD PTR tv355[ebp]
	movss	xmm0, DWORD PTR tv355[ebp]
	mov	edx, DWORD PTR _this$[ebp]
	mov	ecx, DWORD PTR [edx+32]
	movss	DWORD PTR tv458[ebp], xmm0
	call	?XPos@VuEntity@@QBEMXZ			; VuEntity::XPos
	fstp	DWORD PTR tv360[ebp]
	movss	xmm0, DWORD PTR tv360[ebp]
	mov	eax, DWORD PTR _this$[ebp]
	movss	xmm1, DWORD PTR [eax+264]
	mulss	xmm1, DWORD PTR _cosAz$[ebp]
	mulss	xmm1, DWORD PTR __real@3f000000
	addss	xmm0, xmm1
	movss	xmm1, DWORD PTR tv458[ebp]
	subss	xmm1, xmm0
	movss	DWORD PTR _viewOffsetInertial, xmm1

; 536  : 			viewOffsetInertial.y = lockedTarget->BaseData()->YPos() -
; 537  : 				(platform->YPos() + tdisplayRange * sinAz * 0.5F);

	mov	ecx, DWORD PTR _this$[ebp]
	mov	ecx, DWORD PTR [ecx+48]
	call	?BaseData@SimObjectType@@QAEPAVFalconEntity@@XZ ; SimObjectType::BaseData
	mov	ecx, eax
	call	?YPos@VuEntity@@QBEMXZ			; VuEntity::YPos
	fstp	DWORD PTR tv368[ebp]
	movss	xmm0, DWORD PTR tv368[ebp]
	mov	edx, DWORD PTR _this$[ebp]
	mov	ecx, DWORD PTR [edx+32]
	movss	DWORD PTR tv460[ebp], xmm0
	call	?YPos@VuEntity@@QBEMXZ			; VuEntity::YPos
	fstp	DWORD PTR tv373[ebp]
	movss	xmm0, DWORD PTR tv373[ebp]
	mov	eax, DWORD PTR _this$[ebp]
	movss	xmm1, DWORD PTR [eax+264]
	mulss	xmm1, DWORD PTR _sinAz$[ebp]
	mulss	xmm1, DWORD PTR __real@3f000000
	addss	xmm0, xmm1
	movss	xmm1, DWORD PTR tv460[ebp]
	subss	xmm1, xmm0
	movss	DWORD PTR _viewOffsetInertial+4, xmm1

; 538  : 			
; 539  : 			viewOffsetRel.x =  cosAz*viewOffsetInertial.x + sinAz*viewOffsetInertial.y;

	movss	xmm0, DWORD PTR _cosAz$[ebp]
	mulss	xmm0, DWORD PTR _viewOffsetInertial
	movss	xmm1, DWORD PTR _sinAz$[ebp]
	mulss	xmm1, DWORD PTR _viewOffsetInertial+4
	addss	xmm0, xmm1
	movss	DWORD PTR _viewOffsetRel, xmm0

; 540  : 			viewOffsetRel.y = -sinAz*viewOffsetInertial.x + cosAz*viewOffsetInertial.y;

	movss	xmm0, DWORD PTR _sinAz$[ebp]
	xorps	xmm0, DWORD PTR __xmm@80000000800000008000000080000000
	mulss	xmm0, DWORD PTR _viewOffsetInertial
	movss	xmm1, DWORD PTR _cosAz$[ebp]
	mulss	xmm1, DWORD PTR _viewOffsetInertial+4
	addss	xmm0, xmm1
	movss	DWORD PTR _viewOffsetRel+4, xmm0

; 541  : 			
; 542  : 			viewOffsetRel.x /= tdisplayRange * 0.5F;

	mov	ecx, DWORD PTR _this$[ebp]
	movss	xmm0, DWORD PTR [ecx+264]
	mulss	xmm0, DWORD PTR __real@3f000000
	movss	xmm1, DWORD PTR _viewOffsetRel
	divss	xmm1, xmm0
	movss	DWORD PTR _viewOffsetRel, xmm1

; 543  : 			viewOffsetRel.y /= tdisplayRange * 0.5F;

	mov	edx, DWORD PTR _this$[ebp]
	movss	xmm0, DWORD PTR [edx+264]
	mulss	xmm0, DWORD PTR __real@3f000000
	movss	xmm1, DWORD PTR _viewOffsetRel+4
	divss	xmm1, xmm0
	movss	DWORD PTR _viewOffsetRel+4, xmm1

; 544  : 		}
; 545  : 		else

	jmp	$LN7@DropGMTrac
$LN9@DropGMTrac:

; 546  : 		{
; 547  : 			if (flags & NORM)

	mov	eax, DWORD PTR _this$[ebp]
	mov	ecx, DWORD PTR [eax+492]
	and	ecx, 1
	je	$LN7@DropGMTrac

; 548  : 			{
; 549  : 				mlSinCos (&trig, headingForDisplay);

	push	ecx
	movss	xmm0, DWORD PTR _headingForDisplay
	movss	DWORD PTR [esp], xmm0
	lea	edx, DWORD PTR _trig$[ebp]
	push	edx
	call	?mlSinCos@@YAXPAUmlTrig@@M@Z		; mlSinCos
	add	esp, 8

; 550  : 				cosAz = trig.cos;

	movss	xmm0, DWORD PTR _trig$[ebp+4]
	movss	DWORD PTR _cosAz$[ebp], xmm0

; 551  : 				sinAz = trig.sin;

	movss	xmm0, DWORD PTR _trig$[ebp]
	movss	DWORD PTR _sinAz$[ebp], xmm0

; 552  : 				
; 553  : 				if (!(flags & SP))

	mov	eax, DWORD PTR _this$[ebp]
	mov	ecx, DWORD PTR [eax+492]
	and	ecx, 64					; 00000040H
	jne	SHORT $LN6@DropGMTrac

; 554  : 				{
; 555  : 					GMat.x = platform->XPos() + tdisplayRange * cosAz * 0.5F;

	mov	edx, DWORD PTR _this$[ebp]
	mov	ecx, DWORD PTR [edx+32]
	call	?XPos@VuEntity@@QBEMXZ			; VuEntity::XPos
	fstp	DWORD PTR tv399[ebp]
	movss	xmm0, DWORD PTR tv399[ebp]
	mov	eax, DWORD PTR _this$[ebp]
	movss	xmm1, DWORD PTR [eax+264]
	mulss	xmm1, DWORD PTR _cosAz$[ebp]
	mulss	xmm1, DWORD PTR __real@3f000000
	addss	xmm0, xmm1
	movss	DWORD PTR _GMat, xmm0

; 556  : 					GMat.y = platform->YPos() + tdisplayRange * sinAz * 0.5F;

	mov	ecx, DWORD PTR _this$[ebp]
	mov	ecx, DWORD PTR [ecx+32]
	call	?YPos@VuEntity@@QBEMXZ			; VuEntity::YPos
	fstp	DWORD PTR tv406[ebp]
	movss	xmm0, DWORD PTR tv406[ebp]
	mov	edx, DWORD PTR _this$[ebp]
	movss	xmm1, DWORD PTR [edx+264]
	mulss	xmm1, DWORD PTR _sinAz$[ebp]
	mulss	xmm1, DWORD PTR __real@3f000000
	addss	xmm0, xmm1
	movss	DWORD PTR _GMat+4, xmm0

; 557  : 				}
; 558  : 				else

	jmp	$LN5@DropGMTrac
$LN6@DropGMTrac:

; 559  : 				{
; 560  : 					viewOffsetInertial.x = lockedTarget->BaseData()->XPos() -
; 561  : 						(platform->XPos() + tdisplayRange * cosAz * 0.5F);

	mov	eax, DWORD PTR _this$[ebp]
	mov	ecx, DWORD PTR [eax+48]
	call	?BaseData@SimObjectType@@QAEPAVFalconEntity@@XZ ; SimObjectType::BaseData
	mov	ecx, eax
	call	?XPos@VuEntity@@QBEMXZ			; VuEntity::XPos
	fstp	DWORD PTR tv414[ebp]
	movss	xmm0, DWORD PTR tv414[ebp]
	mov	ecx, DWORD PTR _this$[ebp]
	mov	ecx, DWORD PTR [ecx+32]
	movss	DWORD PTR tv462[ebp], xmm0
	call	?XPos@VuEntity@@QBEMXZ			; VuEntity::XPos
	fstp	DWORD PTR tv419[ebp]
	movss	xmm0, DWORD PTR tv419[ebp]
	mov	edx, DWORD PTR _this$[ebp]
	movss	xmm1, DWORD PTR [edx+264]
	mulss	xmm1, DWORD PTR _cosAz$[ebp]
	mulss	xmm1, DWORD PTR __real@3f000000
	addss	xmm0, xmm1
	movss	xmm1, DWORD PTR tv462[ebp]
	subss	xmm1, xmm0
	movss	DWORD PTR _viewOffsetInertial, xmm1

; 562  : 					viewOffsetInertial.y = lockedTarget->BaseData()->YPos() -
; 563  : 						(platform->YPos() + tdisplayRange * sinAz * 0.5F);

	mov	eax, DWORD PTR _this$[ebp]
	mov	ecx, DWORD PTR [eax+48]
	call	?BaseData@SimObjectType@@QAEPAVFalconEntity@@XZ ; SimObjectType::BaseData
	mov	ecx, eax
	call	?YPos@VuEntity@@QBEMXZ			; VuEntity::YPos
	fstp	DWORD PTR tv427[ebp]
	movss	xmm0, DWORD PTR tv427[ebp]
	mov	ecx, DWORD PTR _this$[ebp]
	mov	ecx, DWORD PTR [ecx+32]
	movss	DWORD PTR tv464[ebp], xmm0
	call	?YPos@VuEntity@@QBEMXZ			; VuEntity::YPos
	fstp	DWORD PTR tv432[ebp]
	movss	xmm0, DWORD PTR tv432[ebp]
	mov	edx, DWORD PTR _this$[ebp]
	movss	xmm1, DWORD PTR [edx+264]
	mulss	xmm1, DWORD PTR _sinAz$[ebp]
	mulss	xmm1, DWORD PTR __real@3f000000
	addss	xmm0, xmm1
	movss	xmm1, DWORD PTR tv464[ebp]
	subss	xmm1, xmm0
	movss	DWORD PTR _viewOffsetInertial+4, xmm1
$LN5@DropGMTrac:

; 564  : 				}
; 565  : 				
; 566  : 				viewOffsetRel.x =  cosAz*viewOffsetInertial.x + sinAz*viewOffsetInertial.y;

	movss	xmm0, DWORD PTR _cosAz$[ebp]
	mulss	xmm0, DWORD PTR _viewOffsetInertial
	movss	xmm1, DWORD PTR _sinAz$[ebp]
	mulss	xmm1, DWORD PTR _viewOffsetInertial+4
	addss	xmm0, xmm1
	movss	DWORD PTR _viewOffsetRel, xmm0

; 567  : 				viewOffsetRel.y = -sinAz*viewOffsetInertial.x + cosAz*viewOffsetInertial.y;

	movss	xmm0, DWORD PTR _sinAz$[ebp]
	xorps	xmm0, DWORD PTR __xmm@80000000800000008000000080000000
	mulss	xmm0, DWORD PTR _viewOffsetInertial
	movss	xmm1, DWORD PTR _cosAz$[ebp]
	mulss	xmm1, DWORD PTR _viewOffsetInertial+4
	addss	xmm0, xmm1
	movss	DWORD PTR _viewOffsetRel+4, xmm0

; 568  : 				
; 569  : 				viewOffsetRel.x /= tdisplayRange * 0.5F;

	mov	eax, DWORD PTR _this$[ebp]
	movss	xmm0, DWORD PTR [eax+264]
	mulss	xmm0, DWORD PTR __real@3f000000
	movss	xmm1, DWORD PTR _viewOffsetRel
	divss	xmm1, xmm0
	movss	DWORD PTR _viewOffsetRel, xmm1

; 570  : 				viewOffsetRel.y /= tdisplayRange * 0.5F;

	mov	ecx, DWORD PTR _this$[ebp]
	movss	xmm0, DWORD PTR [ecx+264]
	mulss	xmm0, DWORD PTR __real@3f000000
	movss	xmm1, DWORD PTR _viewOffsetRel+4
	divss	xmm1, xmm0
	movss	DWORD PTR _viewOffsetRel+4, xmm1
$LN7@DropGMTrac:

; 571  : 			}
; 572  : 		}
; 573  : 		ClearSensorTarget();

	mov	edx, DWORD PTR _this$[ebp]
	mov	eax, DWORD PTR [edx]
	mov	ecx, DWORD PTR _this$[ebp]
	mov	edx, DWORD PTR [eax+40]
	call	edx

; 574  : 		//MI add image noise again
; 575  : 		if(g_bRealisticAvionics && g_bAGRadarFixes)

	movzx	eax, BYTE PTR ?g_bRealisticAvionics@@3_NA ; g_bRealisticAvionics
	test	eax, eax
	je	SHORT $LN4@DropGMTrac
	movzx	ecx, BYTE PTR ?g_bAGRadarFixes@@3_NA	; g_bAGRadarFixes
	test	ecx, ecx
	je	SHORT $LN4@DropGMTrac

; 576  : 		{
; 577  : 			scanDir = ScanFwd;

	mov	edx, DWORD PTR _this$[ebp]
	movss	xmm0, DWORD PTR __real@3f800000
	movss	DWORD PTR [edx+252], xmm0
$LN4@DropGMTrac:

; 578  : 		}
; 579  : 	}

	jmp	SHORT $LN2@DropGMTrac
$LN10@DropGMTrac:

; 580  : 	else if (IsSet(SP) && IsSet(SP_STAB) && dropTrackCmd)

	push	64					; 00000040H
	mov	ecx, DWORD PTR _this$[ebp]
	call	?IsSet@RadarDopplerClass@@QAEHH@Z	; RadarDopplerClass::IsSet
	test	eax, eax
	je	SHORT $LN2@DropGMTrac
	push	128					; 00000080H
	mov	ecx, DWORD PTR _this$[ebp]
	call	?IsSet@RadarDopplerClass@@QAEHH@Z	; RadarDopplerClass::IsSet
	test	eax, eax
	je	SHORT $LN2@DropGMTrac
	mov	eax, DWORD PTR _this$[ebp]
	cmp	DWORD PTR [eax+164], 0
	je	SHORT $LN2@DropGMTrac

; 581  : 	{
; 582  : 		// MD -- 20040115: clear the ground stabilization and return FCC to steerpoint mode when
; 583  : 		// we are explicitly dropping a pseudo waypoint.
; 584  : 		if (SimDriver.GetPlayerAircraft())

	mov	ecx, OFFSET ?SimDriver@@3VSimulationDriver@@A ; SimDriver
	call	?GetPlayerAircraft@SimulationDriver@@QBEPAVAircraftClass@@XZ ; SimulationDriver::GetPlayerAircraft
	test	eax, eax
	je	SHORT $LN1@DropGMTrac

; 585  : 			SimDriver.GetPlayerAircraft()->FCC->SetStptMode(FireControlComputer::FCCWaypoint);

	push	0
	mov	ecx, OFFSET ?SimDriver@@3VSimulationDriver@@A ; SimDriver
	call	?GetPlayerAircraft@SimulationDriver@@QBEPAVAircraftClass@@XZ ; SimulationDriver::GetPlayerAircraft
	mov	ecx, DWORD PTR [eax+936]
	call	?SetStptMode@FireControlComputer@@QAEXW4FCCStptMode@1@@Z ; FireControlComputer::SetStptMode
$LN1@DropGMTrac:

; 586  : 		SetGMSPWaypt(NULL);

	push	0
	mov	ecx, DWORD PTR _this$[ebp]
	call	?SetGMSPWaypt@RadarDopplerClass@@QAEXPAVWayPointClass@@@Z ; RadarDopplerClass::SetGMSPWaypt

; 587  : 		ClearFlagBit(SP_STAB);

	push	128					; 00000080H
	mov	ecx, DWORD PTR _this$[ebp]
	call	?ClearFlagBit@RadarDopplerClass@@QAEXH@Z ; RadarDopplerClass::ClearFlagBit

; 588  : 		ToggleAGcursorZero();

	mov	ecx, DWORD PTR _this$[ebp]
	mov	edx, DWORD PTR [ecx]
	mov	ecx, DWORD PTR _this$[ebp]
	mov	eax, DWORD PTR [edx+180]
	call	eax
$LN2@DropGMTrac:

; 589  : 	}
; 590  : }

	mov	esp, ebp
	pop	ebp
	ret	0
?DropGMTrack@RadarDopplerClass@@IAEXXZ ENDP		; RadarDopplerClass::DropGMTrack
_TEXT	ENDS
; Function compile flags: /Odtp
; File c:\users\zhitao li\documents\visual studio 2012\projects\freefalcon\sim\radar\gmscope.cpp
_TEXT	SEGMENT
tv224 = -72						; size = 8
_bottomfactor$ = -64					; size = 4
_topfactor$ = -60					; size = 4
_tmpX$ = -56						; size = 4
_cRangeSQ$ = -52					; size = 4
tv235 = -48						; size = 4
tv215 = -44						; size = 4
tv291 = -40						; size = 4
tv209 = -36						; size = 4
tv289 = -32						; size = 4
_maxIdx$ = -28						; size = 4
_fromNose$ = -24					; size = 4
_y$ = -20						; size = 4
_x$ = -16						; size = 4
_rangeChangeCmd$ = -12					; size = 4
_noseCursorAngle$ = -8					; size = 4
_this$ = -4						; size = 4
?CheckGMBump@RadarDopplerClass@@IAEHXZ PROC		; RadarDopplerClass::CheckGMBump
; _this$ = ecx

; 709  : {

	push	ebp
	mov	ebp, esp
	sub	esp, 72					; 00000048H
	mov	DWORD PTR _this$[ebp], ecx

; 710  : int rangeChangeCmd = 0;

	mov	DWORD PTR _rangeChangeCmd$[ebp], 0

; 711  : int maxIdx;
; 712  : float cRangeSQ;
; 713  : float tmpX = (viewOffsetRel.x + 1.0F) * 0.5F;   // Correct for 0.0 being the center of the scope

	movss	xmm0, DWORD PTR _viewOffsetRel
	addss	xmm0, DWORD PTR __real@3f800000
	mulss	xmm0, DWORD PTR __real@3f000000
	movss	DWORD PTR _tmpX$[ebp], xmm0

; 714  : float topfactor = 0.0F;

	movss	xmm0, DWORD PTR __real@00000000
	movss	DWORD PTR _topfactor$[ebp], xmm0

; 715  : float bottomfactor = 0.0F;

	movss	xmm0, DWORD PTR __real@00000000
	movss	DWORD PTR _bottomfactor$[ebp], xmm0

; 716  : 
; 717  : #if 0
; 718  : 	// MD -- 20040229: comment this lot out -- it's not clear what this is coded to do but it doesn't appear to be
; 719  : 	// correct according to docs Mirv provided and behavioral testing.
; 720  : 	int range = (int)rangeScales[curRangeIdx];
; 721  : 
; 722  : 	switch(range)
; 723  : 	{
; 724  : 	case 10:
; 725  : 		if(flags & SP)	//SnowPlow
; 726  : 		{
; 727  : 			topfactor = 1.6F;
; 728  : 			bottomfactor = 0.0F;
; 729  : 		}
; 730  : 		else
; 731  : 		{
; 732  : 			topfactor = 0.48F;
; 733  : 			bottomfactor = 0.0F;
; 734  : 		}
; 735  : 	break;
; 736  : 	case 20:
; 737  : 		if(flags & SP)	//SnowPlow
; 738  : 		{
; 739  : 			topfactor = 1.7F;
; 740  : 			bottomfactor = 0.0078F;
; 741  : 		}
; 742  : 		else
; 743  : 		{
; 744  : 			topfactor = 1.797F;
; 745  : 			bottomfactor = 0.05F;
; 746  : 		}
; 747  : 	break;
; 748  : 	case 40:
; 749  : 		if(flags & SP)	//SnowPlow
; 750  : 		{
; 751  : 			topfactor = 1.7F;
; 752  : 			bottomfactor = 0.0088F;
; 753  : 		}
; 754  : 		else
; 755  : 		{
; 756  : 			topfactor = 1.80280F;
; 757  : 			bottomfactor = 0.236F;
; 758  : 		}
; 759  : 	break;
; 760  : 	case 80:
; 761  : 		if(flags & SP)	//SnowPlow
; 762  : 		{
; 763  : 			topfactor = 2.0F;
; 764  : 			bottomfactor = 0.014497F;
; 765  : 		}
; 766  : 		else
; 767  : 		{
; 768  : 			topfactor = 2.0F;
; 769  : 			bottomfactor = 0.4F;
; 770  : 		}
; 771  : 	break;
; 772  : 	default:
; 773  : 		ShiWarning("Should not get here")
; 774  : 	break;
; 775  : 	}
; 776  : 
; 777  : 
; 778  : //   cRangeSQ =  tmpX*tmpX + viewOffsetRel.y*viewOffsetRel.y;
; 779  : 	cRangeSQ = tmpX*tmpX + tmpX*tmpX; // only change range when we exceed limits in y direction (viewOffsetRel.x = y direction)
; 780  : 
; 781  : 	cRangeSquaredGMScope = cRangeSQ;GetDOFValue(ComplexGearDOF[1]) == (af->GetAeroData(AeroDataSet::NosGearRng + 4) * DTR)
; 782  : 
; 783  :    //MI
; 784  :    if(g_bRealisticAvionics && g_bAGRadarFixes)
; 785  :    {
; 786  : 	   if(IsSet(AutoAGRange))
; 787  : 	   {
; 788  : 		   if (cRangeSQ > topfactor)
; 789  : 		   {
; 790  : 			   rangeChangeCmd = 1;
; 791  : 		   }
; 792  : 		   else if (cRangeSQ < bottomfactor) 
; 793  : 		   { 
; 794  : 			   rangeChangeCmd = -1;
; 795  : 		   }
; 796  : 	   }
; 797  :    }
; 798  :    else
; 799  :    {
; 800  : 	   if (cRangeSQ > 0.95F * 0.95F)
; 801  : 	   {
; 802  : 		   rangeChangeCmd = 1;
; 803  : 	   }
; 804  : 	   else if (cRangeSQ < 0.425F * tmpX) 
; 805  : 	   {
; 806  : 		   rangeChangeCmd = -1;
; 807  : 	   }
; 808  :    }
; 809  : 
; 810  : #endif
; 811  : 
; 812  :    // MD -- 20040229: it appears that the bump ranges are set as 95% of display for max and 42.5% of
; 813  :    // display for for min.  These numbers are modified by the cosine of the azimuth of the cursor
; 814  :    // position as an additional multiplier.  Also, the bump does not happen if the radar is frozen
; 815  :    // or if the cursors are in motion or of course if the MAN range function is set.
; 816  : 
; 817  :    if (IsSet(FZ) || IsSet(WasMoving) || (!IsSet(AutoAGRange)))

	push	32					; 00000020H
	mov	ecx, DWORD PTR _this$[ebp]
	call	?IsSet@RadarDopplerClass@@QAEHH@Z	; RadarDopplerClass::IsSet
	test	eax, eax
	jne	SHORT $LN14@CheckGMBum
	push	16384					; 00004000H
	mov	ecx, DWORD PTR _this$[ebp]
	call	?IsSet@RadarDopplerClass@@QAEHH@Z	; RadarDopplerClass::IsSet
	test	eax, eax
	jne	SHORT $LN14@CheckGMBum
	push	4194304					; 00400000H
	mov	ecx, DWORD PTR _this$[ebp]
	call	?IsSet@RadarDopplerClass@@QAEHH@Z	; RadarDopplerClass::IsSet
	test	eax, eax
	jne	SHORT $LN15@CheckGMBum
$LN14@CheckGMBum:

; 818  : 	   return rangeChangeCmd;

	mov	eax, DWORD PTR _rangeChangeCmd$[ebp]
	jmp	$LN16@CheckGMBum
$LN15@CheckGMBum:

; 819  : 
; 820  :    float x = (GMat.x + viewOffsetInertial.x) - platform->XPos();

	movss	xmm0, DWORD PTR _GMat
	addss	xmm0, DWORD PTR _viewOffsetInertial
	mov	eax, DWORD PTR _this$[ebp]
	mov	ecx, DWORD PTR [eax+32]
	movss	DWORD PTR tv289[ebp], xmm0
	call	?XPos@VuEntity@@QBEMXZ			; VuEntity::XPos
	fstp	DWORD PTR tv209[ebp]
	movss	xmm0, DWORD PTR tv289[ebp]
	subss	xmm0, DWORD PTR tv209[ebp]
	movss	DWORD PTR _x$[ebp], xmm0

; 821  :    float y = (GMat.y + viewOffsetInertial.y) - platform->YPos();

	movss	xmm0, DWORD PTR _GMat+4
	addss	xmm0, DWORD PTR _viewOffsetInertial+4
	mov	ecx, DWORD PTR _this$[ebp]
	mov	ecx, DWORD PTR [ecx+32]
	movss	DWORD PTR tv291[ebp], xmm0
	call	?YPos@VuEntity@@QBEMXZ			; VuEntity::YPos
	fstp	DWORD PTR tv215[ebp]
	movss	xmm0, DWORD PTR tv291[ebp]
	subss	xmm0, DWORD PTR tv215[ebp]
	movss	DWORD PTR _y$[ebp], xmm0

; 822  : 
; 823  :    float noseCursorAngle = platform->Yaw();

	mov	edx, DWORD PTR _this$[ebp]
	mov	ecx, DWORD PTR [edx+32]
	call	?Yaw@VuEntity@@QBEMXZ			; VuEntity::Yaw
	fstp	DWORD PTR _noseCursorAngle$[ebp]

; 824  : 
; 825  :    noseCursorAngle -= static_cast<float>(atan2(y, x));

	cvtss2sd xmm0, DWORD PTR _x$[ebp]
	sub	esp, 8
	movsd	QWORD PTR [esp], xmm0
	cvtss2sd xmm0, DWORD PTR _y$[ebp]
	sub	esp, 8
	movsd	QWORD PTR [esp], xmm0
	call	?checked_atan2@@YANNN@Z			; checked_atan2
	add	esp, 16					; 00000010H
	fstp	QWORD PTR tv224[ebp]
	movsd	xmm0, QWORD PTR tv224[ebp]
	cvtsd2ss xmm0, xmm0
	movss	xmm1, DWORD PTR _noseCursorAngle$[ebp]
	subss	xmm1, xmm0
	movss	DWORD PTR _noseCursorAngle$[ebp], xmm1

; 826  : 
; 827  :    	if (noseCursorAngle > 180.0F * DTR)

	movss	xmm0, DWORD PTR _noseCursorAngle$[ebp]
	comiss	xmm0, DWORD PTR __real@40490fd9
	jbe	SHORT $LN13@CheckGMBum

; 828  : 		noseCursorAngle -= 360.0F * DTR;

	movss	xmm0, DWORD PTR _noseCursorAngle$[ebp]
	subss	xmm0, DWORD PTR __real@40c90fd9
	movss	DWORD PTR _noseCursorAngle$[ebp], xmm0
	jmp	SHORT $LN11@CheckGMBum
$LN13@CheckGMBum:

; 829  : 	else if (noseCursorAngle < -180.0F * DTR)

	movss	xmm0, DWORD PTR __real@c0490fd9
	comiss	xmm0, DWORD PTR _noseCursorAngle$[ebp]
	jbe	SHORT $LN11@CheckGMBum

; 830  : 		noseCursorAngle += 360.0F * DTR;

	movss	xmm0, DWORD PTR _noseCursorAngle$[ebp]
	addss	xmm0, DWORD PTR __real@40c90fd9
	movss	DWORD PTR _noseCursorAngle$[ebp], xmm0
$LN11@CheckGMBum:

; 831  : 
; 832  : 	if (fabs(noseCursorAngle) > (90.0F * DTR)) // he's behind you!

	push	ecx
	movss	xmm0, DWORD PTR _noseCursorAngle$[ebp]
	movss	DWORD PTR [esp], xmm0
	call	?fabs@@YAMM@Z				; fabs
	add	esp, 4
	fstp	DWORD PTR tv235[ebp]
	movss	xmm0, DWORD PTR tv235[ebp]
	comiss	xmm0, DWORD PTR __real@3fc90fd9
	jbe	SHORT $LN10@CheckGMBum

; 833  : 	   return rangeChangeCmd;  // no bump unless the cursor is on the display in front of your jet

	mov	eax, DWORD PTR _rangeChangeCmd$[ebp]
	jmp	$LN16@CheckGMBum
$LN10@CheckGMBum:

; 834  : 		
; 835  :    cRangeSQ = (x * x) + (y * y);

	movss	xmm0, DWORD PTR _x$[ebp]
	mulss	xmm0, DWORD PTR _x$[ebp]
	movss	xmm1, DWORD PTR _y$[ebp]
	mulss	xmm1, DWORD PTR _y$[ebp]
	addss	xmm0, xmm1
	movss	DWORD PTR _cRangeSQ$[ebp], xmm0

; 836  : 
; 837  :    float fromNose = (float)sqrt(cRangeSQ);

	push	ecx
	movss	xmm0, DWORD PTR _cRangeSQ$[ebp]
	movss	DWORD PTR [esp], xmm0
	call	?SqrtSSE@@YAMM@Z			; SqrtSSE
	add	esp, 4
	fstp	DWORD PTR _fromNose$[ebp]

; 838  : 
; 839  :    // since display cursor position is capped at +/-0.95F, apply the percentages to
; 840  :    // that base but scale for correct range anyway.
; 841  :    if (fromNose >= (0.95F * 0.95F * tdisplayRange))

	mov	eax, DWORD PTR _this$[ebp]
	movss	xmm0, DWORD PTR __real@3f670a3d
	mulss	xmm0, DWORD PTR [eax+264]
	movss	xmm1, DWORD PTR _fromNose$[ebp]
	comiss	xmm1, xmm0
	jb	SHORT $LN9@CheckGMBum

; 842  :    {
; 843  : 	   rangeChangeCmd = 1;

	mov	DWORD PTR _rangeChangeCmd$[ebp], 1
	jmp	SHORT $LN7@CheckGMBum
$LN9@CheckGMBum:

; 844  :    }
; 845  :    else if (fromNose < (0.425F * 0.95F * tdisplayRange))

	mov	ecx, DWORD PTR _this$[ebp]
	movss	xmm0, DWORD PTR __real@3eceb852
	mulss	xmm0, DWORD PTR [ecx+264]
	comiss	xmm0, DWORD PTR _fromNose$[ebp]
	jbe	SHORT $LN7@CheckGMBum

; 846  :    {
; 847  : 	   rangeChangeCmd = -1;

	mov	DWORD PTR _rangeChangeCmd$[ebp], -1
$LN7@CheckGMBum:

; 848  :    }
; 849  : 
; 850  :    // Max range available
; 851  :    if (flags & (DBS1 | DBS2) || mode == GMT || mode == SEA)

	mov	edx, DWORD PTR _this$[ebp]
	mov	eax, DWORD PTR [edx+492]
	and	eax, 12					; 0000000cH
	jne	SHORT $LN5@CheckGMBum
	mov	ecx, DWORD PTR _this$[ebp]
	cmp	DWORD PTR [ecx+184], 16			; 00000010H
	je	SHORT $LN5@CheckGMBum
	mov	edx, DWORD PTR _this$[ebp]
	cmp	DWORD PTR [edx+184], 17			; 00000011H
	jne	SHORT $LN6@CheckGMBum
$LN5@CheckGMBum:

; 852  :    {
; 853  :       maxIdx = NUM_RANGES - 2;

	mov	DWORD PTR _maxIdx$[ebp], 3

; 854  :    }
; 855  :    else

	jmp	SHORT $LN4@CheckGMBum
$LN6@CheckGMBum:

; 856  :    {
; 857  :       maxIdx = NUM_RANGES - 1;

	mov	DWORD PTR _maxIdx$[ebp], 4
$LN4@CheckGMBum:

; 858  :    }
; 859  : 
; 860  :    if (curRangeIdx + rangeChangeCmd >= maxIdx)

	mov	eax, DWORD PTR _this$[ebp]
	mov	ecx, DWORD PTR [eax+388]
	add	ecx, DWORD PTR _rangeChangeCmd$[ebp]
	cmp	ecx, DWORD PTR _maxIdx$[ebp]
	jl	SHORT $LN3@CheckGMBum

; 861  :       rangeChangeCmd = 0;

	mov	DWORD PTR _rangeChangeCmd$[ebp], 0
	jmp	SHORT $LN1@CheckGMBum
$LN3@CheckGMBum:

; 862  :    else if (curRangeIdx + rangeChangeCmd < 0)

	mov	edx, DWORD PTR _this$[ebp]
	mov	eax, DWORD PTR [edx+388]
	add	eax, DWORD PTR _rangeChangeCmd$[ebp]
	jns	SHORT $LN1@CheckGMBum

; 863  :       rangeChangeCmd = 0;

	mov	DWORD PTR _rangeChangeCmd$[ebp], 0
$LN1@CheckGMBum:

; 864  : 
; 865  :    return rangeChangeCmd;

	mov	eax, DWORD PTR _rangeChangeCmd$[ebp]
$LN16@CheckGMBum:

; 866  : }

	mov	esp, ebp
	pop	ebp
	ret	0
?CheckGMBump@RadarDopplerClass@@IAEHXZ ENDP		; RadarDopplerClass::CheckGMBump
_TEXT	ENDS
; Function compile flags: /Odtp
; File c:\users\zhitao li\documents\visual studio 2012\projects\freefalcon\sim\radar\gmscope.cpp
_TEXT	SEGMENT
_this$ = -4						; size = 4
_rangeChangeCmd$ = 8					; size = 4
?AdjustGMOffset@RadarDopplerClass@@IAEXH@Z PROC		; RadarDopplerClass::AdjustGMOffset
; _this$ = ecx

; 869  : {

	push	ebp
	mov	ebp, esp
	push	ecx
	mov	DWORD PTR _this$[ebp], ecx

; 870  :    if (rangeChangeCmd > 0)

	cmp	DWORD PTR _rangeChangeCmd$[ebp], 0
	jle	$LN12@AdjustGMOf

; 871  :    {
; 872  : 	   //MI
; 873  : 	   if(g_bRealisticAvionics && g_bAGRadarFixes)

	movzx	eax, BYTE PTR ?g_bRealisticAvionics@@3_NA ; g_bRealisticAvionics
	test	eax, eax
	je	SHORT $LN5@AdjustGMOf
	movzx	ecx, BYTE PTR ?g_bAGRadarFixes@@3_NA	; g_bAGRadarFixes
	test	ecx, ecx
	je	SHORT $LN5@AdjustGMOf

; 874  : 	   {
; 875  : 		   if(mode == GM || mode == SEA)

	mov	edx, DWORD PTR _this$[ebp]
	cmp	DWORD PTR [edx+184], 14			; 0000000eH
	je	SHORT $LN9@AdjustGMOf
	mov	eax, DWORD PTR _this$[ebp]
	cmp	DWORD PTR [eax+184], 17			; 00000011H
	jne	SHORT $LN10@AdjustGMOf
$LN9@AdjustGMOf:

; 876  : 		   {
; 877  : 			   if(gmRangeIdx >= 4)

	mov	ecx, DWORD PTR _this$[ebp]
	cmp	DWORD PTR [ecx+404], 4
	jl	SHORT $LN8@AdjustGMOf

; 878  : 				   return;

	jmp	$LN13@AdjustGMOf
$LN8@AdjustGMOf:

; 879  : 		   }

	jmp	SHORT $LN5@AdjustGMOf
$LN10@AdjustGMOf:

; 880  : 		   else if(mode == GMT)

	mov	edx, DWORD PTR _this$[ebp]
	cmp	DWORD PTR [edx+184], 16			; 00000010H
	jne	SHORT $LN5@AdjustGMOf

; 881  : 		   {
; 882  : 			   if(gmRangeIdx >= 3)

	mov	eax, DWORD PTR _this$[ebp]
	cmp	DWORD PTR [eax+404], 3
	jl	SHORT $LN5@AdjustGMOf

; 883  : 				   return;

	jmp	$LN13@AdjustGMOf
$LN5@AdjustGMOf:

; 884  : 		   }
; 885  : 	   }
; 886  :       viewOffsetRel.y *= 0.5F;

	movss	xmm0, DWORD PTR _viewOffsetRel+4
	mulss	xmm0, DWORD PTR __real@3f000000
	movss	DWORD PTR _viewOffsetRel+4, xmm0

; 887  :       viewOffsetRel.x = ((viewOffsetRel.x + 1.0F) * 0.5F) - 1.0F;

	movss	xmm0, DWORD PTR _viewOffsetRel
	addss	xmm0, DWORD PTR __real@3f800000
	mulss	xmm0, DWORD PTR __real@3f000000
	subss	xmm0, DWORD PTR __real@3f800000
	movss	DWORD PTR _viewOffsetRel, xmm0
	jmp	SHORT $LN3@AdjustGMOf
$LN12@AdjustGMOf:

; 888  :    }
; 889  :    else if (rangeChangeCmd < 0)

	cmp	DWORD PTR _rangeChangeCmd$[ebp], 0
	jge	SHORT $LN3@AdjustGMOf

; 890  :    {
; 891  : 	   //MI
; 892  : 	   if(g_bRealisticAvionics && g_bAGRadarFixes)

	movzx	ecx, BYTE PTR ?g_bRealisticAvionics@@3_NA ; g_bRealisticAvionics
	test	ecx, ecx
	je	SHORT $LN1@AdjustGMOf
	movzx	edx, BYTE PTR ?g_bAGRadarFixes@@3_NA	; g_bAGRadarFixes
	test	edx, edx
	je	SHORT $LN1@AdjustGMOf

; 893  : 	   {
; 894  : 		   if(gmRangeIdx == 0)

	mov	eax, DWORD PTR _this$[ebp]
	cmp	DWORD PTR [eax+404], 0
	jne	SHORT $LN1@AdjustGMOf

; 895  : 			   return;

	jmp	SHORT $LN13@AdjustGMOf
$LN1@AdjustGMOf:

; 896  : 	   }
; 897  :       viewOffsetRel.y *= 2.0F;

	movss	xmm0, DWORD PTR _viewOffsetRel+4
	mulss	xmm0, DWORD PTR __real@40000000
	movss	DWORD PTR _viewOffsetRel+4, xmm0

; 898  :       viewOffsetRel.x = ((viewOffsetRel.x + 1.0F) * 2.0F) - 1.0F;

	movss	xmm0, DWORD PTR _viewOffsetRel
	addss	xmm0, DWORD PTR __real@3f800000
	mulss	xmm0, DWORD PTR __real@40000000
	subss	xmm0, DWORD PTR __real@3f800000
	movss	DWORD PTR _viewOffsetRel, xmm0
$LN3@AdjustGMOf:

; 899  :    }
; 900  :    SetAimPoint (0.0F, 0.0F);

	push	ecx
	movss	xmm0, DWORD PTR __real@00000000
	movss	DWORD PTR [esp], xmm0
	push	ecx
	movss	xmm0, DWORD PTR __real@00000000
	movss	DWORD PTR [esp], xmm0
	mov	ecx, DWORD PTR _this$[ebp]
	call	?SetAimPoint@RadarDopplerClass@@IAEXMM@Z ; RadarDopplerClass::SetAimPoint
$LN13@AdjustGMOf:

; 901  : }

	mov	esp, ebp
	pop	ebp
	ret	4
?AdjustGMOffset@RadarDopplerClass@@IAEXH@Z ENDP		; RadarDopplerClass::AdjustGMOffset
_TEXT	ENDS
; Function compile flags: /Odtp
; File c:\users\zhitao li\documents\visual studio 2012\projects\freefalcon\sim\radar\gmscope.cpp
_TEXT	SEGMENT
_trig$ = -72						; size = 8
tv478 = -64						; size = 4
_halfRange$ = -60					; size = 4
_cosAz$ = -56						; size = 4
_sinAz$ = -52						; size = 4
tv346 = -48						; size = 4
tv345 = -44						; size = 4
tv342 = -40						; size = 4
tv340 = -36						; size = 4
tv339 = -32						; size = 4
tv336 = -28						; size = 4
tv273 = -24						; size = 4
_laserPod$ = -20					; size = 4
_mavDisplay$ = -16					; size = 4
_CursorSpeed$1 = -12					; size = 4
_pac$ = -8						; size = 4
_this$ = -4						; size = 4
_xCmd$ = 8						; size = 4
_yCmd$ = 12						; size = 4
?SetAimPoint@RadarDopplerClass@@IAEXMM@Z PROC		; RadarDopplerClass::SetAimPoint
; _this$ = ecx

; 593  : {

	push	ebp
	mov	ebp, esp
	sub	esp, 72					; 00000048H
	mov	DWORD PTR _this$[ebp], ecx

; 594  : 	float sinAz, cosAz;
; 595  : 	mlTrig trig;
; 596  : 	float halfRange = tdisplayRange * 0.5F;

	mov	eax, DWORD PTR _this$[ebp]
	movss	xmm0, DWORD PTR [eax+264]
	mulss	xmm0, DWORD PTR __real@3f000000
	movss	DWORD PTR _halfRange$[ebp], xmm0

; 597  : 	
; 598  : 	MaverickDisplayClass *mavDisplay = NULL;

	mov	DWORD PTR _mavDisplay$[ebp], 0

; 599  : 	
; 600  : 	//MI we also want this happening when in TGP mode, not ground stabilized and SOI
; 601  : 	LaserPodClass* laserPod = (LaserPodClass* )FindLaserPod (SimDriver.GetPlayerAircraft());

	mov	ecx, OFFSET ?SimDriver@@3VSimulationDriver@@A ; SimDriver
	call	?GetPlayerAircraft@SimulationDriver@@QBEPAVAircraftClass@@XZ ; SimulationDriver::GetPlayerAircraft
	push	eax
	call	?FindLaserPod@@YAPAVSensorClass@@PAVSimMoverClass@@@Z ; FindLaserPod
	add	esp, 4
	mov	DWORD PTR _laserPod$[ebp], eax

; 602  : 	//MI same for MAV's
; 603  : 	AircraftClass *pac = SimDriver.GetPlayerAircraft();

	mov	ecx, OFFSET ?SimDriver@@3VSimulationDriver@@A ; SimDriver
	call	?GetPlayerAircraft@SimulationDriver@@QBEPAVAircraftClass@@XZ ; SimulationDriver::GetPlayerAircraft
	mov	DWORD PTR _pac$[ebp], eax

; 604  : 	if (pac && pac->Sms && pac ->Sms->curWeaponType == wtAgm65 && pac->Sms->curWeapon){

	cmp	DWORD PTR _pac$[ebp], 0
	je	SHORT $LN34@SetAimPoin
	mov	ecx, DWORD PTR _pac$[ebp]
	cmp	DWORD PTR [ecx+940], 0
	je	SHORT $LN34@SetAimPoin
	mov	edx, DWORD PTR _pac$[ebp]
	mov	eax, DWORD PTR [edx+940]
	cmp	DWORD PTR [eax+148], 4
	jne	SHORT $LN34@SetAimPoin
	mov	ecx, DWORD PTR _pac$[ebp]
	mov	ecx, DWORD PTR [ecx+940]
	add	ecx, 164				; 000000a4H
	call	??B?$VuBin@VSimWeaponClass@@@@QBE_NXZ	; VuBin<SimWeaponClass>::operator bool
	movzx	edx, al
	test	edx, edx
	je	SHORT $LN34@SetAimPoin

; 605  : 		mavDisplay = (MaverickDisplayClass*)((MissileClass*)pac->Sms->GetCurrentWeapon())->display;

	mov	eax, DWORD PTR _pac$[ebp]
	mov	ecx, DWORD PTR [eax+940]
	mov	edx, DWORD PTR _pac$[ebp]
	mov	eax, DWORD PTR [ecx]
	mov	ecx, DWORD PTR [edx+940]
	mov	edx, DWORD PTR [eax+12]
	call	edx
	mov	eax, DWORD PTR [eax+712]
	mov	DWORD PTR _mavDisplay$[ebp], eax
$LN34@SetAimPoin:

; 606  : 	}
; 607  : 	if (
; 608  : 		(IsSOI() && !lockedTarget) || 
; 609  : 		(
; 610  : 			((laserPod && laserPod->IsSOI()) || (mavDisplay && mavDisplay->IsSOI())) && 
; 611  : 			pac && pac->FCC && pac->FCC->preDesignate
; 612  : 		) ||
; 613  : 		(pac->FCC->GetSubMode() == FireControlComputer::CCRP)
; 614  : 	){

	mov	ecx, DWORD PTR _this$[ebp]
	call	?IsSOI@DrawableClass@@QAEHXZ		; DrawableClass::IsSOI
	test	eax, eax
	je	SHORT $LN31@SetAimPoin
	mov	ecx, DWORD PTR _this$[ebp]
	cmp	DWORD PTR [ecx+48], 0
	je	SHORT $LN32@SetAimPoin
$LN31@SetAimPoin:
	cmp	DWORD PTR _laserPod$[ebp], 0
	je	SHORT $LN28@SetAimPoin
	mov	ecx, DWORD PTR _laserPod$[ebp]
	call	?IsSOI@DrawableClass@@QAEHXZ		; DrawableClass::IsSOI
	test	eax, eax
	jne	SHORT $LN29@SetAimPoin
$LN28@SetAimPoin:
	cmp	DWORD PTR _mavDisplay$[ebp], 0
	je	SHORT $LN30@SetAimPoin
	mov	ecx, DWORD PTR _mavDisplay$[ebp]
	call	?IsSOI@DrawableClass@@QAEHXZ		; DrawableClass::IsSOI
	test	eax, eax
	je	SHORT $LN30@SetAimPoin
$LN29@SetAimPoin:
	cmp	DWORD PTR _pac$[ebp], 0
	je	SHORT $LN30@SetAimPoin
	mov	edx, DWORD PTR _pac$[ebp]
	cmp	DWORD PTR [edx+936], 0
	je	SHORT $LN30@SetAimPoin
	mov	eax, DWORD PTR _pac$[ebp]
	mov	ecx, DWORD PTR [eax+936]
	movsx	edx, BYTE PTR [ecx+182]
	test	edx, edx
	jne	SHORT $LN32@SetAimPoin
$LN30@SetAimPoin:
	mov	eax, DWORD PTR _pac$[ebp]
	mov	ecx, DWORD PTR [eax+936]
	call	?GetSubMode@FireControlComputer@@QAE?AW4FCCSubMode@1@XZ ; FireControlComputer::GetSubMode
	cmp	eax, 8
	jne	$LN33@SetAimPoin
$LN32@SetAimPoin:

; 615  : 		//MI better cursor control
; 616  : 		// MD -- 20040215: the cursor doesn't move in SP until you are ground stabilized
; 617  : 		if((xCmd != 0.0F || yCmd != 0.0F) && ((!IsSet(SP)) || (IsSet(SP) && IsSet(SP_STAB))))

	movss	xmm0, DWORD PTR _xCmd$[ebp]
	ucomiss	xmm0, DWORD PTR __real@00000000
	lahf
	test	ah, 68					; 00000044H
	jp	SHORT $LN26@SetAimPoin
	movss	xmm0, DWORD PTR _yCmd$[ebp]
	ucomiss	xmm0, DWORD PTR __real@00000000
	lahf
	test	ah, 68					; 00000044H
	jnp	$LN27@SetAimPoin
$LN26@SetAimPoin:
	push	64					; 00000040H
	mov	ecx, DWORD PTR _this$[ebp]
	call	?IsSet@RadarDopplerClass@@QAEHH@Z	; RadarDopplerClass::IsSet
	test	eax, eax
	je	SHORT $LN25@SetAimPoin
	push	64					; 00000040H
	mov	ecx, DWORD PTR _this$[ebp]
	call	?IsSet@RadarDopplerClass@@QAEHH@Z	; RadarDopplerClass::IsSet
	test	eax, eax
	je	$LN27@SetAimPoin
	push	128					; 00000080H
	mov	ecx, DWORD PTR _this$[ebp]
	call	?IsSet@RadarDopplerClass@@QAEHH@Z	; RadarDopplerClass::IsSet
	test	eax, eax
	je	$LN27@SetAimPoin
$LN25@SetAimPoin:

; 618  : 		{
; 619  : 			float CursorSpeed = g_fCursorSpeed;

	movss	xmm0, DWORD PTR ?g_fCursorSpeed@@3MA
	movss	DWORD PTR _CursorSpeed$1[ebp], xmm0

; 620  : 			if (flags & DBS2)

	mov	ecx, DWORD PTR _this$[ebp]
	mov	edx, DWORD PTR [ecx+492]
	and	edx, 8
	je	SHORT $LN24@SetAimPoin

; 621  : 				CursorSpeed *= g_fDBS2factor;

	movss	xmm0, DWORD PTR _CursorSpeed$1[ebp]
	mulss	xmm0, DWORD PTR ?g_fDBS2factor@@3MA
	movss	DWORD PTR _CursorSpeed$1[ebp], xmm0
	jmp	SHORT $LN20@SetAimPoin
$LN24@SetAimPoin:

; 622  : 			else if (flags & DBS1)

	mov	eax, DWORD PTR _this$[ebp]
	mov	ecx, DWORD PTR [eax+492]
	and	ecx, 4
	je	SHORT $LN22@SetAimPoin

; 623  : 				CursorSpeed *= g_fDBS1factor;

	movss	xmm0, DWORD PTR _CursorSpeed$1[ebp]
	mulss	xmm0, DWORD PTR ?g_fDBS1factor@@3MA
	movss	DWORD PTR _CursorSpeed$1[ebp], xmm0
	jmp	SHORT $LN20@SetAimPoin
$LN22@SetAimPoin:

; 624  : 			else if (flags & EXP)

	mov	edx, DWORD PTR _this$[ebp]
	mov	eax, DWORD PTR [edx+492]
	and	eax, 2
	je	SHORT $LN20@SetAimPoin

; 625  : 				CursorSpeed *= g_fEXPfactor;

	movss	xmm0, DWORD PTR _CursorSpeed$1[ebp]
	mulss	xmm0, DWORD PTR ?g_fEXPfactor@@3MA
	movss	DWORD PTR _CursorSpeed$1[ebp], xmm0
$LN20@SetAimPoin:

; 626  : 			if ((IO.AnalogIsUsed(AXIS_CURSOR_X) == true) && (IO.AnalogIsUsed(AXIS_CURSOR_Y) == true))

	push	11					; 0000000bH
	mov	ecx, OFFSET ?IO@@3VSIMLIB_IO_CLASS@@A	; IO
	call	?AnalogIsUsed@SIMLIB_IO_CLASS@@QAE_NW4GameAxis_t@@@Z ; SIMLIB_IO_CLASS::AnalogIsUsed
	movzx	ecx, al
	cmp	ecx, 1
	jne	$LN19@SetAimPoin
	push	12					; 0000000cH
	mov	ecx, OFFSET ?IO@@3VSIMLIB_IO_CLASS@@A	; IO
	call	?AnalogIsUsed@SIMLIB_IO_CLASS@@QAE_NW4GameAxis_t@@@Z ; SIMLIB_IO_CLASS::AnalogIsUsed
	movzx	edx, al
	cmp	edx, 1
	jne	$LN19@SetAimPoin

; 627  : 			{
; 628  : 				viewOffsetRel.x += (yCmd / 20000.0F) * CursorSpeed * (6.5F * CursorRate) * SimLibMajorFrameTime;

	movss	xmm0, DWORD PTR _yCmd$[ebp]
	divss	xmm0, DWORD PTR __real@469c4000
	mulss	xmm0, DWORD PTR _CursorSpeed$1[ebp]
	movss	xmm1, DWORD PTR __real@40d00000
	mulss	xmm1, DWORD PTR ?CursorRate@RadarClass@@1MB
	mulss	xmm0, xmm1
	mulss	xmm0, DWORD PTR ?SimLibMajorFrameTime@@3MA
	addss	xmm0, DWORD PTR _viewOffsetRel
	movss	DWORD PTR _viewOffsetRel, xmm0

; 629  : 				viewOffsetRel.y += (xCmd / 20000.0F) * CursorSpeed * (6.5F * CursorRate) * SimLibMajorFrameTime;

	movss	xmm0, DWORD PTR _xCmd$[ebp]
	divss	xmm0, DWORD PTR __real@469c4000
	mulss	xmm0, DWORD PTR _CursorSpeed$1[ebp]
	movss	xmm1, DWORD PTR __real@40d00000
	mulss	xmm1, DWORD PTR ?CursorRate@RadarClass@@1MB
	mulss	xmm0, xmm1
	mulss	xmm0, DWORD PTR ?SimLibMajorFrameTime@@3MA
	addss	xmm0, DWORD PTR _viewOffsetRel+4
	movss	DWORD PTR _viewOffsetRel+4, xmm0

; 630  : 			}
; 631  : 			else

	jmp	$LN18@SetAimPoin
$LN19@SetAimPoin:

; 632  : 			{
; 633  : 				viewOffsetRel.x += yCmd * 0.5F * CursorSpeed * curCursorRate * SimLibMajorFrameTime;

	movss	xmm0, DWORD PTR _yCmd$[ebp]
	mulss	xmm0, DWORD PTR __real@3f000000
	mulss	xmm0, DWORD PTR _CursorSpeed$1[ebp]
	mov	eax, DWORD PTR _this$[ebp]
	mulss	xmm0, DWORD PTR [eax+228]
	mulss	xmm0, DWORD PTR ?SimLibMajorFrameTime@@3MA
	addss	xmm0, DWORD PTR _viewOffsetRel
	movss	DWORD PTR _viewOffsetRel, xmm0

; 634  : 				viewOffsetRel.y += xCmd * 0.5F * CursorSpeed * curCursorRate * SimLibMajorFrameTime;

	movss	xmm0, DWORD PTR _xCmd$[ebp]
	mulss	xmm0, DWORD PTR __real@3f000000
	mulss	xmm0, DWORD PTR _CursorSpeed$1[ebp]
	mov	ecx, DWORD PTR _this$[ebp]
	mulss	xmm0, DWORD PTR [ecx+228]
	mulss	xmm0, DWORD PTR ?SimLibMajorFrameTime@@3MA
	addss	xmm0, DWORD PTR _viewOffsetRel+4
	movss	DWORD PTR _viewOffsetRel+4, xmm0

; 635  : 				static float test = 0.0f;
; 636  : 				static float testa = 0.0f;
; 637  : 				curCursorRate = min(curCursorRate + CursorRate * SimLibMajorFrameTime * (4.0F+test), (6.5F+testa) * CursorRate);

	movss	xmm0, DWORD PTR ?CursorRate@RadarClass@@1MB
	mulss	xmm0, DWORD PTR ?SimLibMajorFrameTime@@3MA
	movss	xmm1, DWORD PTR __real@40800000
	addss	xmm1, DWORD PTR ?test@?BI@??SetAimPoint@RadarDopplerClass@@IAEXMM@Z@4MA
	mulss	xmm0, xmm1
	mov	edx, DWORD PTR _this$[ebp]
	addss	xmm0, DWORD PTR [edx+228]
	movss	xmm1, DWORD PTR __real@40d00000
	addss	xmm1, DWORD PTR ?testa@?BI@??SetAimPoint@RadarDopplerClass@@IAEXMM@Z@4MA
	mulss	xmm1, DWORD PTR ?CursorRate@RadarClass@@1MB
	comiss	xmm1, xmm0
	jbe	SHORT $LN37@SetAimPoin
	movss	xmm0, DWORD PTR ?CursorRate@RadarClass@@1MB
	mulss	xmm0, DWORD PTR ?SimLibMajorFrameTime@@3MA
	movss	xmm1, DWORD PTR __real@40800000
	addss	xmm1, DWORD PTR ?test@?BI@??SetAimPoint@RadarDopplerClass@@IAEXMM@Z@4MA
	mulss	xmm0, xmm1
	mov	eax, DWORD PTR _this$[ebp]
	addss	xmm0, DWORD PTR [eax+228]
	movss	DWORD PTR tv273[ebp], xmm0
	jmp	SHORT $LN38@SetAimPoin
$LN37@SetAimPoin:
	movss	xmm0, DWORD PTR __real@40d00000
	addss	xmm0, DWORD PTR ?testa@?BI@??SetAimPoint@RadarDopplerClass@@IAEXMM@Z@4MA
	mulss	xmm0, DWORD PTR ?CursorRate@RadarClass@@1MB
	movss	DWORD PTR tv273[ebp], xmm0
$LN38@SetAimPoin:
	mov	ecx, DWORD PTR _this$[ebp]
	movss	xmm0, DWORD PTR tv273[ebp]
	movss	DWORD PTR [ecx+228], xmm0
$LN18@SetAimPoin:

; 638  : 			}
; 639  : 		}
; 640  : 		else

	jmp	SHORT $LN16@SetAimPoin
$LN27@SetAimPoin:

; 641  : 		{
; 642  : 			if ((IO.AnalogIsUsed(AXIS_CURSOR_X) == false) || (IO.AnalogIsUsed(AXIS_CURSOR_Y) == false))

	push	11					; 0000000bH
	mov	ecx, OFFSET ?IO@@3VSIMLIB_IO_CLASS@@A	; IO
	call	?AnalogIsUsed@SIMLIB_IO_CLASS@@QAE_NW4GameAxis_t@@@Z ; SIMLIB_IO_CLASS::AnalogIsUsed
	movzx	edx, al
	test	edx, edx
	je	SHORT $LN15@SetAimPoin
	push	12					; 0000000cH
	mov	ecx, OFFSET ?IO@@3VSIMLIB_IO_CLASS@@A	; IO
	call	?AnalogIsUsed@SIMLIB_IO_CLASS@@QAE_NW4GameAxis_t@@@Z ; SIMLIB_IO_CLASS::AnalogIsUsed
	movzx	eax, al
	test	eax, eax
	jne	SHORT $LN16@SetAimPoin
$LN15@SetAimPoin:

; 643  : 				curCursorRate = CursorRate;

	mov	ecx, DWORD PTR _this$[ebp]
	movss	xmm0, DWORD PTR ?CursorRate@RadarClass@@1MB
	movss	DWORD PTR [ecx+228], xmm0
$LN16@SetAimPoin:

; 644  : 			//TJL 11/19/03
; 645  : 			//GetCursorXYFromWorldXY (&CursorX, &CursorY, WorldX, WorldY);
; 646  : 		}
; 647  : 		//viewOffsetRel.x += yCmd * CursorRate*3 * SimLibMajorFrameTime *
; 648  : 		//     groundMapRange / halfRange;
; 649  : 		//viewOffsetRel.y += xCmd * CursorRate*3 * SimLibMajorFrameTime *
; 650  : 		//    groundMapRange / halfRange;
; 651  : 		
; 652  : 		// 2002-04-04 MN fix for cursor movement on the radar cone borders, only restrict to SnowPlow
; 653  : 		if (( (flags & SP) && (float)fabs(viewOffsetRel.y) > (viewOffsetRel.x + 1.0F)*TAN_RADAR_CONE_ANGLE ))

	mov	edx, DWORD PTR _this$[ebp]
	mov	eax, DWORD PTR [edx+492]
	and	eax, 64					; 00000040H
	je	$LN1@SetAimPoin
	push	ecx
	movss	xmm0, DWORD PTR _viewOffsetRel+4
	movss	DWORD PTR [esp], xmm0
	call	?fabs@@YAMM@Z				; fabs
	add	esp, 4
	fstp	DWORD PTR tv478[ebp]
	movss	xmm0, DWORD PTR tv478[ebp]
	movss	xmm1, DWORD PTR _viewOffsetRel
	addss	xmm1, DWORD PTR __real@3f800000
	mulss	xmm1, DWORD PTR _TAN_RADAR_CONE_ANGLE
	comiss	xmm0, xmm1
	jbe	$LN1@SetAimPoin

; 654  : 		{
; 655  : 			// set to middle axis when really close to it
; 656  : 			if (viewOffsetRel.y > -0.05f && viewOffsetRel.y < 0.05f)

	movss	xmm0, DWORD PTR _viewOffsetRel+4
	comiss	xmm0, DWORD PTR __real@bd4ccccd
	jbe	SHORT $LN13@SetAimPoin
	movss	xmm0, DWORD PTR __real@3d4ccccd
	comiss	xmm0, DWORD PTR _viewOffsetRel+4
	jbe	SHORT $LN13@SetAimPoin

; 657  : 			{
; 658  : 				viewOffsetRel.y = 0.0f;

	movss	xmm0, DWORD PTR __real@00000000
	movss	DWORD PTR _viewOffsetRel+4, xmm0
	jmp	$LN1@SetAimPoin
$LN13@SetAimPoin:

; 659  : 			}
; 660  : 			else if (xCmd && yCmd ) // let the cursor stay at its position on the gimbal border

	movss	xmm0, DWORD PTR _xCmd$[ebp]
	ucomiss	xmm0, DWORD PTR __real@00000000
	lahf
	test	ah, 68					; 00000044H
	jnp	$LN11@SetAimPoin
	movss	xmm0, DWORD PTR _yCmd$[ebp]
	ucomiss	xmm0, DWORD PTR __real@00000000
	lahf
	test	ah, 68					; 00000044H
	jnp	$LN11@SetAimPoin

; 661  : 			{
; 662  : 				if (viewOffsetRel.y >= 0.0f)

	movss	xmm0, DWORD PTR _viewOffsetRel+4
	comiss	xmm0, DWORD PTR __real@00000000
	jb	SHORT $LN10@SetAimPoin

; 663  : 				{
; 664  : 					viewOffsetRel.y = (float)(viewOffsetRel.x + 1.0F) * TAN_RADAR_CONE_ANGLE;

	movss	xmm0, DWORD PTR _viewOffsetRel
	addss	xmm0, DWORD PTR __real@3f800000
	mulss	xmm0, DWORD PTR _TAN_RADAR_CONE_ANGLE
	movss	DWORD PTR _viewOffsetRel+4, xmm0

; 665  : 					viewOffsetRel.x = (float)(viewOffsetRel.y  / TAN_RADAR_CONE_ANGLE) - 1.0F;

	movss	xmm0, DWORD PTR _viewOffsetRel+4
	divss	xmm0, DWORD PTR _TAN_RADAR_CONE_ANGLE
	subss	xmm0, DWORD PTR __real@3f800000
	movss	DWORD PTR _viewOffsetRel, xmm0

; 666  : 				}
; 667  : 				else

	jmp	SHORT $LN9@SetAimPoin
$LN10@SetAimPoin:

; 668  : 				{
; 669  : 					viewOffsetRel.y = -((float)(viewOffsetRel.x + 1.0F) * TAN_RADAR_CONE_ANGLE);

	movss	xmm0, DWORD PTR _viewOffsetRel
	addss	xmm0, DWORD PTR __real@3f800000
	mulss	xmm0, DWORD PTR _TAN_RADAR_CONE_ANGLE
	xorps	xmm0, DWORD PTR __xmm@80000000800000008000000080000000
	movss	DWORD PTR _viewOffsetRel+4, xmm0

; 670  : 					viewOffsetRel.x = -((float)(viewOffsetRel.y / TAN_RADAR_CONE_ANGLE) + 1.0F);

	movss	xmm0, DWORD PTR _viewOffsetRel+4
	divss	xmm0, DWORD PTR _TAN_RADAR_CONE_ANGLE
	addss	xmm0, DWORD PTR __real@3f800000
	xorps	xmm0, DWORD PTR __xmm@80000000800000008000000080000000
	movss	DWORD PTR _viewOffsetRel, xmm0
$LN9@SetAimPoin:

; 671  : 				}

	jmp	$LN1@SetAimPoin
$LN11@SetAimPoin:

; 672  : 			}
; 673  : 			else if (yCmd)

	movss	xmm0, DWORD PTR _yCmd$[ebp]
	ucomiss	xmm0, DWORD PTR __real@00000000
	lahf
	test	ah, 68					; 00000044H
	jnp	SHORT $LN7@SetAimPoin

; 674  : 			{
; 675  : 				if (viewOffsetRel.y >= 0.0f)

	movss	xmm0, DWORD PTR _viewOffsetRel+4
	comiss	xmm0, DWORD PTR __real@00000000
	jb	SHORT $LN6@SetAimPoin

; 676  : 					// Tangens works a bit different ;-)
; 677  : 					//viewOffsetRel.y = (float)fabs(viewOffsetRel.x + 1.0F) / TAN_RADAR_CONE_ANGLE - 1.0F;
; 678  : 					viewOffsetRel.y = (float)(viewOffsetRel.x + 1.0F) * TAN_RADAR_CONE_ANGLE;

	movss	xmm0, DWORD PTR _viewOffsetRel
	addss	xmm0, DWORD PTR __real@3f800000
	mulss	xmm0, DWORD PTR _TAN_RADAR_CONE_ANGLE
	movss	DWORD PTR _viewOffsetRel+4, xmm0

; 679  : 				else

	jmp	SHORT $LN5@SetAimPoin
$LN6@SetAimPoin:

; 680  : 					viewOffsetRel.y = -((float)(viewOffsetRel.x + 1.0F) * TAN_RADAR_CONE_ANGLE);

	movss	xmm0, DWORD PTR _viewOffsetRel
	addss	xmm0, DWORD PTR __real@3f800000
	mulss	xmm0, DWORD PTR _TAN_RADAR_CONE_ANGLE
	xorps	xmm0, DWORD PTR __xmm@80000000800000008000000080000000
	movss	DWORD PTR _viewOffsetRel+4, xmm0
$LN5@SetAimPoin:
	jmp	SHORT $LN1@SetAimPoin
$LN7@SetAimPoin:

; 681  : 			}
; 682  : 			else if (xCmd)

	movss	xmm0, DWORD PTR _xCmd$[ebp]
	ucomiss	xmm0, DWORD PTR __real@00000000
	lahf
	test	ah, 68					; 00000044H
	jnp	SHORT $LN1@SetAimPoin

; 683  : 			{
; 684  : 				if (viewOffsetRel.y >= 0.0F)

	movss	xmm0, DWORD PTR _viewOffsetRel+4
	comiss	xmm0, DWORD PTR __real@00000000
	jb	SHORT $LN2@SetAimPoin

; 685  : 					viewOffsetRel.x = (float)(viewOffsetRel.y  / TAN_RADAR_CONE_ANGLE) - 1.0F;

	movss	xmm0, DWORD PTR _viewOffsetRel+4
	divss	xmm0, DWORD PTR _TAN_RADAR_CONE_ANGLE
	subss	xmm0, DWORD PTR __real@3f800000
	movss	DWORD PTR _viewOffsetRel, xmm0

; 686  : 				else

	jmp	SHORT $LN1@SetAimPoin
$LN2@SetAimPoin:

; 687  : 					viewOffsetRel.x = -(float)((viewOffsetRel.y / TAN_RADAR_CONE_ANGLE) + 1.0F);

	movss	xmm0, DWORD PTR _viewOffsetRel+4
	divss	xmm0, DWORD PTR _TAN_RADAR_CONE_ANGLE
	addss	xmm0, DWORD PTR __real@3f800000
	xorps	xmm0, DWORD PTR __xmm@80000000800000008000000080000000
	movss	DWORD PTR _viewOffsetRel, xmm0
$LN1@SetAimPoin:

; 688  : 			}
; 689  : 		}
; 690  : 		
; 691  : 		viewOffsetRel.x = min ( max (viewOffsetRel.x, -0.975F), 0.975F);

	movss	xmm0, DWORD PTR _viewOffsetRel
	comiss	xmm0, DWORD PTR __real@bf79999a
	jbe	SHORT $LN39@SetAimPoin
	movss	xmm0, DWORD PTR _viewOffsetRel
	movss	DWORD PTR tv336[ebp], xmm0
	jmp	SHORT $LN40@SetAimPoin
$LN39@SetAimPoin:
	movss	xmm0, DWORD PTR __real@bf79999a
	movss	DWORD PTR tv336[ebp], xmm0
$LN40@SetAimPoin:
	movss	xmm0, DWORD PTR __real@3f79999a
	comiss	xmm0, DWORD PTR tv336[ebp]
	jbe	SHORT $LN43@SetAimPoin
	movss	xmm0, DWORD PTR _viewOffsetRel
	comiss	xmm0, DWORD PTR __real@bf79999a
	jbe	SHORT $LN41@SetAimPoin
	movss	xmm0, DWORD PTR _viewOffsetRel
	movss	DWORD PTR tv339[ebp], xmm0
	jmp	SHORT $LN42@SetAimPoin
$LN41@SetAimPoin:
	movss	xmm0, DWORD PTR __real@bf79999a
	movss	DWORD PTR tv339[ebp], xmm0
$LN42@SetAimPoin:
	movss	xmm0, DWORD PTR tv339[ebp]
	movss	DWORD PTR tv340[ebp], xmm0
	jmp	SHORT $LN44@SetAimPoin
$LN43@SetAimPoin:
	movss	xmm0, DWORD PTR __real@3f79999a
	movss	DWORD PTR tv340[ebp], xmm0
$LN44@SetAimPoin:
	movss	xmm0, DWORD PTR tv340[ebp]
	movss	DWORD PTR _viewOffsetRel, xmm0

; 692  : 		viewOffsetRel.y = min ( max (viewOffsetRel.y, -0.975F), 0.975F);

	movss	xmm0, DWORD PTR _viewOffsetRel+4
	comiss	xmm0, DWORD PTR __real@bf79999a
	jbe	SHORT $LN45@SetAimPoin
	movss	xmm0, DWORD PTR _viewOffsetRel+4
	movss	DWORD PTR tv342[ebp], xmm0
	jmp	SHORT $LN46@SetAimPoin
$LN45@SetAimPoin:
	movss	xmm0, DWORD PTR __real@bf79999a
	movss	DWORD PTR tv342[ebp], xmm0
$LN46@SetAimPoin:
	movss	xmm0, DWORD PTR __real@3f79999a
	comiss	xmm0, DWORD PTR tv342[ebp]
	jbe	SHORT $LN49@SetAimPoin
	movss	xmm0, DWORD PTR _viewOffsetRel+4
	comiss	xmm0, DWORD PTR __real@bf79999a
	jbe	SHORT $LN47@SetAimPoin
	movss	xmm0, DWORD PTR _viewOffsetRel+4
	movss	DWORD PTR tv345[ebp], xmm0
	jmp	SHORT $LN48@SetAimPoin
$LN47@SetAimPoin:
	movss	xmm0, DWORD PTR __real@bf79999a
	movss	DWORD PTR tv345[ebp], xmm0
$LN48@SetAimPoin:
	movss	xmm0, DWORD PTR tv345[ebp]
	movss	DWORD PTR tv346[ebp], xmm0
	jmp	SHORT $LN50@SetAimPoin
$LN49@SetAimPoin:
	movss	xmm0, DWORD PTR __real@3f79999a
	movss	DWORD PTR tv346[ebp], xmm0
$LN50@SetAimPoin:
	movss	xmm0, DWORD PTR tv346[ebp]
	movss	DWORD PTR _viewOffsetRel+4, xmm0
$LN33@SetAimPoin:

; 693  : 		
; 694  :     }
; 695  : 	
; 696  : 	mlSinCos (&trig, headingForDisplay);

	push	ecx
	movss	xmm0, DWORD PTR _headingForDisplay
	movss	DWORD PTR [esp], xmm0
	lea	ecx, DWORD PTR _trig$[ebp]
	push	ecx
	call	?mlSinCos@@YAXPAUmlTrig@@M@Z		; mlSinCos
	add	esp, 8

; 697  : 	cosAz = trig.cos;

	movss	xmm0, DWORD PTR _trig$[ebp+4]
	movss	DWORD PTR _cosAz$[ebp], xmm0

; 698  : 	sinAz = trig.sin;

	movss	xmm0, DWORD PTR _trig$[ebp]
	movss	DWORD PTR _sinAz$[ebp], xmm0

; 699  : 	
; 700  : 	viewOffsetInertial.x = cosAz*viewOffsetRel.x - sinAz*viewOffsetRel.y;

	movss	xmm0, DWORD PTR _cosAz$[ebp]
	mulss	xmm0, DWORD PTR _viewOffsetRel
	movss	xmm1, DWORD PTR _sinAz$[ebp]
	mulss	xmm1, DWORD PTR _viewOffsetRel+4
	subss	xmm0, xmm1
	movss	DWORD PTR _viewOffsetInertial, xmm0

; 701  : 	viewOffsetInertial.y = sinAz*viewOffsetRel.x + cosAz*viewOffsetRel.y;

	movss	xmm0, DWORD PTR _sinAz$[ebp]
	mulss	xmm0, DWORD PTR _viewOffsetRel
	movss	xmm1, DWORD PTR _cosAz$[ebp]
	mulss	xmm1, DWORD PTR _viewOffsetRel+4
	addss	xmm0, xmm1
	movss	DWORD PTR _viewOffsetInertial+4, xmm0

; 702  : 	
; 703  : 	viewOffsetInertial.x *= halfRange;

	movss	xmm0, DWORD PTR _viewOffsetInertial
	mulss	xmm0, DWORD PTR _halfRange$[ebp]
	movss	DWORD PTR _viewOffsetInertial, xmm0

; 704  : 	viewOffsetInertial.y *= halfRange;

	movss	xmm0, DWORD PTR _viewOffsetInertial+4
	mulss	xmm0, DWORD PTR _halfRange$[ebp]
	movss	DWORD PTR _viewOffsetInertial+4, xmm0

; 705  : 	
; 706  : }

	mov	esp, ebp
	pop	ebp
	ret	8
?SetAimPoint@RadarDopplerClass@@IAEXMM@Z ENDP		; RadarDopplerClass::SetAimPoint
_TEXT	ENDS
; Function compile flags: /Odtp
; File c:\users\zhitao li\documents\visual studio 2012\projects\freefalcon\sim\radar\gmscope.cpp
_TEXT	SEGMENT
tv512 = -68						; size = 4
tv507 = -64						; size = 4
tv500 = -60						; size = 4
tv495 = -56						; size = 4
tv490 = -52						; size = 4
_farEdge$ = -48						; size = 4
tv485 = -44						; size = 4
tv383 = -40						; size = 4
tv312 = -36						; size = 4
_scanBottom$ = -32					; size = 4
_scanTop$ = -28						; size = 4
tv291 = -24						; size = 4
_nearEdge$ = -20					; size = 4
_this$ = -16						; size = 4
__$EHRec$ = -12						; size = 12
?SetGMScan@RadarDopplerClass@@IAEXXZ PROC		; RadarDopplerClass::SetGMScan
; _this$ = ecx

; 975  : {

	push	ebp
	mov	ebp, esp
	push	-1
	push	__ehhandler$?SetGMScan@RadarDopplerClass@@IAEXXZ
	mov	eax, DWORD PTR fs:0
	push	eax
	sub	esp, 56					; 00000038H
	mov	eax, DWORD PTR ___security_cookie
	xor	eax, ebp
	push	eax
	lea	eax, DWORD PTR __$EHRec$[ebp]
	mov	DWORD PTR fs:0, eax
	mov	DWORD PTR _this$[ebp], ecx

; 976  : float scanBottom, scanTop;
; 977  : float nearEdge, farEdge;
; 978  : static const float TwoRootTwo = 2.0f * (float)sqrt( 2.0f );

	mov	eax, DWORD PTR ?$S1@?1??SetGMScan@RadarDopplerClass@@IAEXXZ@4IA
	and	eax, 1
	jne	SHORT $LN47@SetGMScan
	mov	ecx, DWORD PTR ?$S1@?1??SetGMScan@RadarDopplerClass@@IAEXXZ@4IA
	or	ecx, 1
	mov	DWORD PTR ?$S1@?1??SetGMScan@RadarDopplerClass@@IAEXXZ@4IA, ecx
	mov	DWORD PTR __$EHRec$[ebp+8], 0
	push	ecx
	movss	xmm0, DWORD PTR __real@40000000
	movss	DWORD PTR [esp], xmm0
	call	?SqrtSSE@@YAMM@Z			; SqrtSSE
	add	esp, 4
	fstp	DWORD PTR tv383[ebp]
	movss	xmm0, DWORD PTR tv383[ebp]
	mulss	xmm0, DWORD PTR __real@40000000
	movss	DWORD PTR ?TwoRootTwo@?1??SetGMScan@RadarDopplerClass@@IAEXXZ@4MB, xmm0
	mov	DWORD PTR __$EHRec$[ebp+8], -1
$LN47@SetGMScan:

; 979  : 
; 980  : 
; 981  :    if (flags & EXP)

	mov	edx, DWORD PTR _this$[ebp]
	mov	eax, DWORD PTR [edx+492]
	and	eax, 2
	je	$LN46@SetGMScan

; 982  :    {
; 983  : 	   groundMapRange = tdisplayRange * 0.125F;

	mov	ecx, DWORD PTR _this$[ebp]
	movss	xmm0, DWORD PTR [ecx+264]
	mulss	xmm0, DWORD PTR __real@3e000000
	mov	edx, DWORD PTR _this$[ebp]
	movss	DWORD PTR [edx+476], xmm0

; 984  : 	   if (displayRange <= 20.1f) 

	mov	eax, DWORD PTR _this$[ebp]
	movss	xmm0, DWORD PTR __real@41a0cccd
	comiss	xmm0, DWORD PTR [eax+212]
	jb	SHORT $LN45@SetGMScan

; 985  : 	   {
; 986  : 		   groundMapLOD = 2;

	mov	ecx, DWORD PTR _this$[ebp]
	mov	BYTE PTR [ecx+508], 2

; 987  : 	   } else 

	jmp	SHORT $LN44@SetGMScan
$LN45@SetGMScan:

; 988  : 	   {
; 989  : 		   groundMapLOD = 3;

	mov	edx, DWORD PTR _this$[ebp]
	mov	BYTE PTR [edx+508], 3
$LN44@SetGMScan:

; 990  : 	   }
; 991  : 	   //azScan = 60.0F * DTR;		// Radar still scans full volume, but only displays a subset...
; 992  : 	   //MI az is set thru the OSB now
; 993  : 	  if(!g_bRealisticAvionics || !g_bAGRadarFixes)

	movzx	eax, BYTE PTR ?g_bRealisticAvionics@@3_NA ; g_bRealisticAvionics
	test	eax, eax
	je	SHORT $LN42@SetGMScan
	movzx	ecx, BYTE PTR ?g_bAGRadarFixes@@3_NA	; g_bAGRadarFixes
	test	ecx, ecx
	jne	SHORT $LN43@SetGMScan
$LN42@SetGMScan:

; 994  : 		  azScan = 60.0F * DTR;

	mov	edx, DWORD PTR _this$[ebp]
	movss	xmm0, DWORD PTR __real@3f860a91
	movss	DWORD PTR [edx+204], xmm0
	jmp	SHORT $LN40@SetGMScan
$LN43@SetGMScan:

; 995  : 	  else if(g_bRealisticAvionics && g_bAGRadarFixes)

	movzx	eax, BYTE PTR ?g_bRealisticAvionics@@3_NA ; g_bRealisticAvionics
	test	eax, eax
	je	SHORT $LN40@SetGMScan
	movzx	ecx, BYTE PTR ?g_bAGRadarFixes@@3_NA	; g_bAGRadarFixes
	test	ecx, ecx
	je	SHORT $LN40@SetGMScan

; 996  : 	  {
; 997  : 		  if(mode == GM || mode == SEA)

	mov	edx, DWORD PTR _this$[ebp]
	cmp	DWORD PTR [edx+184], 14			; 0000000eH
	je	SHORT $LN38@SetGMScan
	mov	eax, DWORD PTR _this$[ebp]
	cmp	DWORD PTR [eax+184], 17			; 00000011H
	jne	SHORT $LN39@SetGMScan
$LN38@SetGMScan:

; 998  : 			  curAzIdx = gmAzIdx;

	mov	ecx, DWORD PTR _this$[ebp]
	mov	edx, DWORD PTR _this$[ebp]
	mov	eax, DWORD PTR [edx+428]
	mov	DWORD PTR [ecx+400], eax

; 999  : 		  else

	jmp	SHORT $LN37@SetGMScan
$LN39@SetGMScan:

; 1000 : 			  curAzIdx = gmtAzIdx;				 

	mov	ecx, DWORD PTR _this$[ebp]
	mov	edx, DWORD PTR _this$[ebp]
	mov	eax, DWORD PTR [edx+432]
	mov	DWORD PTR [ecx+400], eax
$LN37@SetGMScan:

; 1001 : 		  azScan = rwsAzs[curAzIdx];

	mov	ecx, DWORD PTR _this$[ebp]
	mov	edx, DWORD PTR [ecx+400]
	mov	eax, DWORD PTR _this$[ebp]
	mov	ecx, DWORD PTR _this$[ebp]
	mov	edx, DWORD PTR [ecx+edx*4+332]
	mov	DWORD PTR [eax+204], edx
$LN40@SetGMScan:

; 1002 : 	  }
