; Listing generated by Microsoft (R) Optimizing Compiler Version 17.00.51106.1 

	TITLE	C:\Users\Zhitao Li\Documents\Visual Studio 2012\Projects\Freefalcon\FalcSnd\Soundfx.cpp
	.686P
	.XMM
	include listing.inc
	.model	flat

INCLUDELIB LIBCMT
INCLUDELIB OLDNAMES

PUBLIC	?BuiltinSFX@@3PAUSfxDef@@A			; BuiltinSFX
PUBLIC	?BuiltinNSFX@@3HB				; BuiltinNSFX
PUBLIC	?SFX_DEF@@3PAUSfxDef@@A				; SFX_DEF
PUBLIC	?NumSFX@@3HA					; NumSFX
PUBLIC	?FALCONSNDTABLE@@3PBDB				; FALCONSNDTABLE
PUBLIC	??_C@_0N@HBBLGOA@f4sndtbl?4sfx?$AA@		; `string'
PUBLIC	?FALCONSNDTABLETXT@@3PBDB			; FALCONSNDTABLETXT
PUBLIC	??_C@_0N@CAMLEPCP@f4sndtbl?4txt?$AA@		; `string'
_BSS	SEGMENT
?SFX_DEF@@3PAUSfxDef@@A DD 01H DUP (?)			; SFX_DEF
?NumSFX@@3HA DD	01H DUP (?)				; NumSFX
_BSS	ENDS
;	COMDAT ??_C@_0N@CAMLEPCP@f4sndtbl?4txt?$AA@
CONST	SEGMENT
??_C@_0N@CAMLEPCP@f4sndtbl?4txt?$AA@ DB 'f4sndtbl.txt', 00H ; `string'
CONST	ENDS
;	COMDAT ??_C@_0N@HBBLGOA@f4sndtbl?4sfx?$AA@
CONST	SEGMENT
??_C@_0N@HBBLGOA@f4sndtbl?4sfx?$AA@ DB 'f4sndtbl.sfx', 00H ; `string'
CONST	ENDS
CONST	SEGMENT
?BuiltinNSFX@@3HB DD 0dbH				; BuiltinNSFX
CONST	ENDS
_DATA	SEGMENT
?BuiltinSFX@@3PAUSfxDef@@A DB 'none.wav', 00H		; BuiltinSFX
	ORG $+55
	DD	00H
	DD	00H
	DD	00H
	DD	041200000r			; 10
	DD	0c59c4000r			; -5000
	DD	0c61c4000r			; -10000
	DD	041200000r			; 10
	DD	00H
	DD	00H
	DD	01H
	DD	03f800000r			; 1
	DD	03f800000r			; 1
	DD	05H
	DD	00H
	DD	00H
	ORG $+16
	DB	'biggun1.wav', 00H
	ORG $+52
	DD	00H
	DD	00H
	DD	00H
	DD	04b189680r			; 1e+007
	DD	000000000r			; 0
	DD	0c61c4000r			; -10000
	DD	04b189680r			; 1e+007
	DD	00H
	DD	00H
	DD	015H
	DD	03f800000r			; 1
	DD	03f800000r			; 1
	DD	05H
	DD	00H
	DD	00H
	ORG $+16
	DB	'biggun2.wav', 00H
	ORG $+52
	DD	00H
	DD	00H
	DD	00H
	DD	04b189680r			; 1e+007
	DD	000000000r			; 0
	DD	0c61c4000r			; -10000
	DD	04b189680r			; 1e+007
	DD	00H
	DD	00H
	DD	015H
	DD	03f800000r			; 1
	DD	03f800000r			; 1
	DD	05H
	DD	00H
	DD	00H
	ORG $+16
	DB	'bombdrop.wav', 00H
	ORG $+51
	DD	00H
	DD	00H
	DD	00H
	DD	049f42400r			; 2e+006
	DD	000000000r			; 0
	DD	0c61c4000r			; -10000
	DD	049f42400r			; 2e+006
	DD	00H
	DD	00H
	DD	015H
	DD	03f800000r			; 1
	DD	03f800000r			; 1
	DD	05H
	DD	00H
	DD	00H
	ORG $+16
	DB	'engheli.wav', 00H
	ORG $+52
	DD	00H
	DD	00H
	DD	00H
	DD	04b189680r			; 1e+007
	DD	000000000r			; 0
	DD	0c5bb8000r			; -6000
	DD	04b189680r			; 1e+007
	DD	00H
	DD	00H
	DD	0b7H
	DD	03f800000r			; 1
	DD	03f800000r			; 1
	DD	00H
	DD	00H
	DD	00H
	ORG $+16
	DB	'eject.wav', 00H
	ORG $+54
	DD	00H
	DD	00H
	DD	00H
	DD	047c35000r			; 100000
	DD	000000000r			; 0
	DD	0c61c4000r			; -10000
	DD	047c35000r			; 100000
	DD	00H
	DD	00H
	DD	015H
	DD	03f800000r			; 1
	DD	03f800000r			; 1
	DD	05H
	DD	00H
	DD	00H
	ORG $+16
	DB	'growl.wav', 00H
	ORG $+54
	DD	00H
	DD	00H
	DD	00H
	DD	047c35000r			; 100000
	DD	000000000r			; 0
	DD	0c61c4000r			; -10000
	DD	049742400r			; 1e+006
	DD	00H
	DD	00H
	DD	0a3H
	DD	03f800000r			; 1
	DD	03f800000r			; 1
	DD	01H
	DD	00H
	DD	00H
	ORG $+16
	DB	'growlock.wav', 00H
	ORG $+51
	DD	00H
	DD	00H
	DD	00H
	DD	04a742400r			; 4e+006
	DD	000000000r			; 0
	DD	0c61c4000r			; -10000
	DD	04a742400r			; 4e+006
	DD	00H
	DD	00H
	DD	023H
	DD	03f800000r			; 1
	DD	03f800000r			; 1
	DD	01H
	DD	00H
	DD	00H
	ORG $+16
	DB	'grndhit1.wav', 00H
	ORG $+51
	DD	00H
	DD	00H
	DD	00H
	DD	04a742400r			; 4e+006
	DD	000000000r			; 0
	DD	0c61c4000r			; -10000
	DD	04a742400r			; 4e+006
	DD	00H
	DD	00H
	DD	015H
	DD	03f800000r			; 1
	DD	03f800000r			; 1
	DD	05H
	DD	00H
	DD	00H
	ORG $+16
	DB	'grndhit2.wav', 00H
	ORG $+51
	DD	00H
	DD	00H
	DD	00H
	DD	04a742400r			; 4e+006
	DD	000000000r			; 0
	DD	0c61c4000r			; -10000
	DD	04a742400r			; 4e+006
	DD	00H
	DD	00H
	DD	015H
	DD	03f800000r			; 1
	DD	03f800000r			; 1
	DD	05H
	DD	00H
	DD	00H
	ORG $+16
	DB	'missile1.wav', 00H
	ORG $+51
	DD	00H
	DD	00H
	DD	00H
	DD	04a742400r			; 4e+006
	DD	000000000r			; 0
	DD	0c5bb8000r			; -6000
	DD	04a742400r			; 4e+006
	DD	00H
	DD	00H
	DD	015H
	DD	03f800000r			; 1
	DD	03f800000r			; 1
	DD	05H
	DD	00H
	DD	00H
	ORG $+16
	DB	'missile2.wav', 00H
	ORG $+51
	DD	00H
	DD	00H
	DD	00H
	DD	04a742400r			; 4e+006
	DD	000000000r			; 0
	DD	0c5bb8000r			; -6000
	DD	04a742400r			; 4e+006
	DD	00H
	DD	00H
	DD	015H
	DD	03f800000r			; 1
	DD	03f800000r			; 1
	DD	05H
	DD	00H
	DD	00H
	ORG $+16
	DB	'missile3.wav', 00H
	ORG $+51
	DD	00H
	DD	00H
	DD	00H
	DD	04a742400r			; 4e+006
	DD	000000000r			; 0
	DD	0c5bb8000r			; -6000
	DD	04a742400r			; 4e+006
	DD	00H
	DD	00H
	DD	015H
	DD	03f800000r			; 1
	DD	03f800000r			; 1
	DD	05H
	DD	00H
	DD	00H
	ORG $+16
	DB	'dirtdart.wav', 00H
	ORG $+51
	DD	00H
	DD	00H
	DD	00H
	DD	04c189680r			; 4e+007
	DD	000000000r			; 0
	DD	0c61c4000r			; -10000
	DD	04c189680r			; 4e+007
	DD	00H
	DD	00H
	DD	015H
	DD	03f800000r			; 1
	DD	03f800000r			; 1
	DD	05H
	DD	00H
	DD	00H
	ORG $+16
	DB	'h2odart.wav', 00H
	ORG $+52
	DD	00H
	DD	00H
	DD	00H
	DD	04c189680r			; 4e+007
	DD	000000000r			; 0
	DD	0c61c4000r			; -10000
	DD	04c189680r			; 4e+007
	DD	00H
	DD	00H
	DD	015H
	DD	03f800000r			; 1
	DD	03f800000r			; 1
	DD	05H
	DD	00H
	DD	00H
	ORG $+16
	DB	'lawndart.wav', 00H
	ORG $+51
	DD	00H
	DD	00H
	DD	00H
	DD	04c189680r			; 4e+007
	DD	000000000r			; 0
	DD	0c61c4000r			; -10000
	DD	04c189680r			; 4e+007
	DD	00H
	DD	00H
	DD	015H
	DD	03f800000r			; 1
	DD	03f800000r			; 1
	DD	05H
	DD	00H
	DD	00H
	ORG $+16
	DB	'prop.wav', 00H
	ORG $+55
	DD	00H
	DD	00H
	DD	00H
	DD	048f42400r			; 500000
	DD	000000000r			; 0
	DD	0c61c4000r			; -10000
	DD	048f42400r			; 500000
	DD	00H
	DD	00H
	DD	037H
	DD	03f800000r			; 1
	DD	03f800000r			; 1
	DD	00H
	DD	00H
	DD	00H
	ORG $+16
	DB	'tank.wav', 00H
	ORG $+55
	DD	00H
	DD	00H
	DD	00H
	DD	04b189680r			; 1e+007
	DD	000000000r			; 0
	DD	0c5fa0000r			; -8000
	DD	04b189680r			; 1e+007
	DD	00H
	DD	00H
	DD	037H
	DD	03f800000r			; 1
	DD	03f800000r			; 1
	DD	00H
	DD	00H
	DD	00H
	ORG $+16
	DB	'truck1.wav', 00H
	ORG $+53
	DD	00H
	DD	00H
	DD	00H
	DD	04b189680r			; 1e+007
	DD	000000000r			; 0
	DD	0c5fa0000r			; -8000
	DD	04b189680r			; 1e+007
	DD	00H
	DD	00H
	DD	037H
	DD	03f800000r			; 1
	DD	03f800000r			; 1
	DD	00H
	DD	00H
	DD	00H
	ORG $+16
	DB	'truck2.wav', 00H
	ORG $+53
	DD	00H
	DD	00H
	DD	00H
	DD	04b189680r			; 1e+007
	DD	000000000r			; 0
	DD	0c5fa0000r			; -8000
	DD	04b189680r			; 1e+007
	DD	00H
	DD	00H
	DD	037H
	DD	03f800000r			; 1
	DD	03f800000r			; 1
	DD	00H
	DD	00H
	DD	00H
	ORG $+16
	DB	'ricco1.wav', 00H
	ORG $+53
	DD	00H
	DD	00H
	DD	00H
	DD	04a742400r			; 4e+006
	DD	000000000r			; 0
	DD	0c53b8000r			; -3000
	DD	04a742400r			; 4e+006
	DD	00H
	DD	00H
	DD	015H
	DD	03f800000r			; 1
	DD	03f800000r			; 1
	DD	05H
	DD	00H
	DD	00H
	ORG $+16
	DB	'ricco2.wav', 00H
	ORG $+53
	DD	00H
	DD	00H
	DD	00H
	DD	04a742400r			; 4e+006
	DD	000000000r			; 0
	DD	0c4fa0000r			; -2000
	DD	04a742400r			; 4e+006
	DD	00H
	DD	00H
	DD	015H
	DD	03f800000r			; 1
	DD	03f800000r			; 1
	DD	05H
	DD	00H
	DD	00H
	ORG $+16
	DB	'ricco3.wav', 00H
	ORG $+53
	DD	00H
	DD	00H
	DD	00H
	DD	04a742400r			; 4e+006
	DD	000000000r			; 0
	DD	0c53b8000r			; -3000
	DD	04a742400r			; 4e+006
	DD	00H
	DD	00H
	DD	015H
	DD	03f800000r			; 1
	DD	03f800000r			; 1
	DD	05H
	DD	00H
	DD	00H
	ORG $+16
	DB	'ricco4.wav', 00H
	ORG $+53
	DD	00H
	DD	00H
	DD	00H
	DD	04a742400r			; 4e+006
	DD	000000000r			; 0
	DD	0c53b8000r			; -3000
	DD	04a742400r			; 4e+006
	DD	00H
	DD	00H
	DD	015H
	DD	03f800000r			; 1
	DD	03f800000r			; 1
	DD	05H
	DD	00H
	DD	00H
	ORG $+16
	DB	'ricco5.wav', 00H
	ORG $+53
	DD	00H
	DD	00H
	DD	00H
	DD	04a742400r			; 4e+006
	DD	000000000r			; 0
	DD	0c53b8000r			; -3000
	DD	04a742400r			; 4e+006
	DD	00H
	DD	00H
	DD	015H
	DD	03f800000r			; 1
	DD	03f800000r			; 1
	DD	05H
	DD	00H
	DD	00H
	ORG $+16
	DB	'vulstart.wav', 00H
	ORG $+51
	DD	00H
	DD	00H
	DD	00H
	DD	04dbebc20r			; 4e+008
	DD	000000000r			; 0
	DD	0c55ac000r			; -3500
	DD	04dbebc20r			; 4e+008
	DD	00H
	DD	00H
	DD	011H
	DD	03f800000r			; 1
	DD	03f800000r			; 1
	DD	08H
	DD	00H
	DD	00H
	ORG $+16
	DB	'vulloop.wav', 00H
	ORG $+52
	DD	00H
	DD	00H
	DD	00H
	DD	04dbebc20r			; 4e+008
	DD	000000000r			; 0
	DD	0c57a0000r			; -4000
	DD	04dbebc20r			; 4e+008
	DD	00H
	DD	00H
	DD	013H
	DD	03f800000r			; 1
	DD	03f800000r			; 1
	DD	08H
	DD	00H
	DD	00H
	ORG $+16
	DB	'vulend.wav', 00H
	ORG $+53
	DD	00H
	DD	00H
	DD	00H
	DD	04dbebc20r			; 4e+008
	DD	000000000r			; 0
	DD	0c55ac000r			; -3500
	DD	04dbebc20r			; 4e+008
	DD	00H
	DD	00H
	DD	011H
	DD	03f800000r			; 1
	DD	03f800000r			; 1
	DD	08H
	DD	00H
	DD	00H
	ORG $+16
	DB	'boomg1.wav', 00H
	ORG $+53
	DD	00H
	DD	00H
	DD	00H
	DD	04dbebc20r			; 4e+008
	DD	000000000r			; 0
	DD	0c61c4000r			; -10000
	DD	04dbebc20r			; 4e+008
	DD	00H
	DD	00H
	DD	015H
	DD	03f800000r			; 1
	DD	03f800000r			; 1
	DD	05H
	DD	00H
	DD	00H
	ORG $+16
	DB	'boomg2.wav', 00H
	ORG $+53
	DD	00H
	DD	00H
	DD	00H
	DD	04dbebc20r			; 4e+008
	DD	000000000r			; 0
	DD	0c61c4000r			; -10000
	DD	04dbebc20r			; 4e+008
	DD	00H
	DD	00H
	DD	015H
	DD	03f800000r			; 1
	DD	03f800000r			; 1
	DD	05H
	DD	00H
	DD	00H
	ORG $+16
	DB	'boomg3.wav', 00H
	ORG $+53
	DD	00H
	DD	00H
	DD	00H
	DD	04dbebc20r			; 4e+008
	DD	000000000r			; 0
	DD	0c61c4000r			; -10000
	DD	04dbebc20r			; 4e+008
	DD	00H
	DD	00H
	DD	015H
	DD	03f800000r			; 1
	DD	03f800000r			; 1
	DD	05H
	DD	00H
	DD	00H
	ORG $+16
	DB	'boomg4.wav', 00H
	ORG $+53
	DD	00H
	DD	00H
	DD	00H
	DD	04dbebc20r			; 4e+008
	DD	000000000r			; 0
	DD	0c61c4000r			; -10000
	DD	04dbebc20r			; 4e+008
	DD	00H
	DD	00H
	DD	015H
	DD	03f800000r			; 1
	DD	03f800000r			; 1
	DD	05H
	DD	00H
	DD	00H
	ORG $+16
	DB	'boomg5.wav', 00H
	ORG $+53
	DD	00H
	DD	00H
	DD	00H
	DD	04dbebc20r			; 4e+008
	DD	000000000r			; 0
	DD	0c61c4000r			; -10000
	DD	04dbebc20r			; 4e+008
	DD	00H
	DD	00H
	DD	015H
	DD	03f800000r			; 1
	DD	03f800000r			; 1
	DD	05H
	DD	00H
	DD	00H
	ORG $+16
	DB	'enginea.wav', 00H
	ORG $+52
	DD	00H
	DD	00H
	DD	00H
	DD	04f1502f9r			; 2.5e+009
	DD	000000000r			; 0
	DD	0c2c80000r			; -100
	DD	04f1502f9r			; 2.5e+009
	DD	00H
	DD	00H
	DD	0b7H
	DD	03f800000r			; 1
	DD	03f800000r			; 1
	DD	00H
	DD	00H
	DD	01f4H
	ORG $+16
	DB	'engineb.wav', 00H
	ORG $+52
	DD	00H
	DD	00H
	DD	00H
	DD	04f1502f9r			; 2.5e+009
	DD	000000000r			; 0
	DD	0c2c80000r			; -100
	DD	04f1502f9r			; 2.5e+009
	DD	00H
	DD	00H
	DD	0b7H
	DD	03f800000r			; 1
	DD	03f800000r			; 1
	DD	00H
	DD	00H
	DD	01f4H
	ORG $+16
	DB	'f16ext.wav', 00H
	ORG $+53
	DD	00H
	DD	00H
	DD	00H
	DD	04f1502f9r			; 2.5e+009
	DD	000000000r			; 0
	DD	0c2c80000r			; -100
	DD	04f1502f9r			; 2.5e+009
	DD	00H
	DD	00H
	DD	0b7H
	DD	03f800000r			; 1
	DD	03f800000r			; 1
	DD	00H
	DD	00H
	DD	01f4H
	ORG $+16
	DB	'f16int.wav', 00H
	ORG $+53
	DD	00H
	DD	00H
	DD	00H
	DD	04f1502f9r			; 2.5e+009
	DD	000000000r			; 0
	DD	0c61c4000r			; -10000
	DD	04f1502f9r			; 2.5e+009
	DD	00H
	DD	00H
	DD	0b3H
	DD	03f800000r			; 1
	DD	03f800000r			; 1
	DD	00H
	DD	00H
	DD	01f4H
	ORG $+16
	DB	'twi\mig21.wav', 00H
	ORG $+50
	DD	00H
	DD	00H
	DD	00H
	DD	04dbebc20r			; 4e+008
	DD	000000000r			; 0
	DD	0c61c4000r			; -10000
	DD	04dbebc20r			; 4e+008
	DD	00H
	DD	00H
	DD	01H
	DD	03f800000r			; 1
	DD	03f800000r			; 1
	DD	02H
	DD	02H
	DD	03H
	ORG $+16
	DB	'geardn.wav', 00H
	ORG $+53
	DD	00H
	DD	00H
	DD	00H
	DD	04a989680r			; 5e+006
	DD	000000000r			; 0
	DD	0c61c4000r			; -10000
	DD	04a989680r			; 5e+006
	DD	00H
	DD	00H
	DD	015H
	DD	03f800000r			; 1
	DD	03f800000r			; 1
	DD	05H
	DD	00H
	DD	00H
	ORG $+16
	DB	'burnere.wav', 00H
	ORG $+52
	DD	00H
	DD	00H
	DD	00H
	DD	04f1502f9r			; 2.5e+009
	DD	000000000r			; 0
	DD	0c2c80000r			; -100
	DD	04f1502f9r			; 2.5e+009
	DD	00H
	DD	00H
	DD	0b7H
	DD	03f800000r			; 1
	DD	03f800000r			; 1
	DD	00H
	DD	00H
	DD	01f4H
	ORG $+16
	DB	'burneri.wav', 00H
	ORG $+52
	DD	00H
	DD	00H
	DD	00H
	DD	04f1502f9r			; 2.5e+009
	DD	000000000r			; 0
	DD	0c61c4000r			; -10000
	DD	04f1502f9r			; 2.5e+009
	DD	00H
	DD	00H
	DD	0b3H
	DD	03f800000r			; 1
	DD	03f800000r			; 1
	DD	00H
	DD	00H
	DD	01f4H
	ORG $+16
	DB	'twi\mig23.wav', 00H
	ORG $+50
	DD	00H
	DD	00H
	DD	00H
	DD	04dbebc20r			; 4e+008
	DD	000000000r			; 0
	DD	0c61c4000r			; -10000
	DD	04dbebc20r			; 4e+008
	DD	00H
	DD	00H
	DD	01H
	DD	03f800000r			; 1
	DD	03f800000r			; 1
	DD	02H
	DD	02H
	DD	02H
	ORG $+16
	DB	'touchdn.wav', 00H
	ORG $+52
	DD	00H
	DD	00H
	DD	00H
	DD	04b189680r			; 1e+007
	DD	000000000r			; 0
	DD	0c61c4000r			; -10000
	DD	04b189680r			; 1e+007
	DD	00H
	DD	00H
	DD	015H
	DD	03f800000r			; 1
	DD	03f800000r			; 1
	DD	00H
	DD	00H
	DD	00H
	ORG $+16
	DB	'booma1.wav', 00H
	ORG $+53
	DD	00H
	DD	00H
	DD	00H
	DD	04dbebc20r			; 4e+008
	DD	000000000r			; 0
	DD	0c61c4000r			; -10000
	DD	04dbebc20r			; 4e+008
	DD	00H
	DD	00H
	DD	015H
	DD	03f800000r			; 1
	DD	03f800000r			; 1
	DD	05H
	DD	00H
	DD	00H
	ORG $+16
	DB	'booma2.wav', 00H
	ORG $+53
	DD	00H
	DD	00H
	DD	00H
	DD	04dbebc20r			; 4e+008
	DD	000000000r			; 0
	DD	0c61c4000r			; -10000
	DD	04dbebc20r			; 4e+008
	DD	00H
	DD	00H
	DD	015H
	DD	03f800000r			; 1
	DD	03f800000r			; 1
	DD	05H
	DD	00H
	DD	00H
	ORG $+16
	DB	'booma3.wav', 00H
	ORG $+53
	DD	00H
	DD	00H
	DD	00H
	DD	04dbebc20r			; 4e+008
	DD	000000000r			; 0
	DD	0c61c4000r			; -10000
	DD	04dbebc20r			; 4e+008
	DD	00H
	DD	00H
	DD	015H
	DD	03f800000r			; 1
	DD	03f800000r			; 1
	DD	05H
	DD	00H
	DD	00H
	ORG $+16
	DB	'booma4.wav', 00H
	ORG $+53
	DD	00H
	DD	00H
	DD	00H
	DD	04dbebc20r			; 4e+008
	DD	000000000r			; 0
	DD	0c61c4000r			; -10000
	DD	04dbebc20r			; 4e+008
	DD	00H
	DD	00H
	DD	015H
	DD	03f800000r			; 1
	DD	03f800000r			; 1
	DD	05H
	DD	00H
	DD	00H
	ORG $+16
	DB	'booma5.wav', 00H
	ORG $+53
	DD	00H
	DD	00H
	DD	00H
	DD	04dbebc20r			; 4e+008
	DD	000000000r			; 0
	DD	0c61c4000r			; -10000
	DD	04dbebc20r			; 4e+008
	DD	00H
	DD	00H
	DD	015H
	DD	03f800000r			; 1
	DD	03f800000r			; 1
	DD	05H
	DD	00H
	DD	00H
	ORG $+16
	DB	'flaps.wav', 00H
	ORG $+54
	DD	00H
	DD	00H
	DD	00H
	DD	048f42400r			; 500000
	DD	000000000r			; 0
	DD	0c61c4000r			; -10000
	DD	048f42400r			; 500000
	DD	00H
	DD	00H
	DD	011H
	DD	03f800000r			; 1
	DD	03f800000r			; 1
	DD	00H
	DD	00H
	DD	00H
	ORG $+16
	DB	'mcgun.wav', 00H
	ORG $+54
	DD	00H
	DD	00H
	DD	00H
	DD	04a989680r			; 5e+006
	DD	000000000r			; 0
	DD	0c61c4000r			; -10000
	DD	04a989680r			; 5e+006
	DD	00H
	DD	00H
	DD	017H
	DD	03f800000r			; 1
	DD	03f800000r			; 1
	DD	05H
	DD	00H
	DD	00H
	ORG $+16
	DB	'jammer.wav', 00H
	ORG $+53
	DD	00H
	DD	00H
	DD	00H
	DD	04c3ebc20r			; 5e+007
	DD	000000000r			; 0
	DD	0c61c4000r			; -10000
	DD	04c3ebc20r			; 5e+007
	DD	00H
	DD	00H
	DD	01H
	DD	03f800000r			; 1
	DD	03f800000r			; 1
	DD	05H
	DD	00H
	DD	00H
	ORG $+16
	DB	'vulstrte.wav', 00H
	ORG $+51
	DD	00H
	DD	00H
	DD	00H
	DD	04a989680r			; 5e+006
	DD	000000000r			; 0
	DD	0c61c4000r			; -10000
	DD	04a989680r			; 5e+006
	DD	00H
	DD	00H
	DD	01H
	DD	03f800000r			; 1
	DD	03f800000r			; 1
	DD	08H
	DD	00H
	DD	00H
	ORG $+16
	DB	'twi\mig25.wav', 00H
	ORG $+50
	DD	00H
	DD	00H
	DD	00H
	DD	04a742400r			; 4e+006
	DD	000000000r			; 0
	DD	0c61c4000r			; -10000
	DD	04a742400r			; 4e+006
	DD	00H
	DD	00H
	DD	01H
	DD	03f800000r			; 1
	DD	03f800000r			; 1
	DD	02H
	DD	02H
	DD	04H
	ORG $+16
	DB	'twi\mig31.wav', 00H
	ORG $+50
	DD	00H
	DD	00H
	DD	00H
	DD	04a742400r			; 4e+006
	DD	000000000r			; 0
	DD	0c61c4000r			; -10000
	DD	04a742400r			; 4e+006
	DD	00H
	DD	00H
	DD	01H
	DD	03f800000r			; 1
	DD	03f800000r			; 1
	DD	02H
	DD	02H
	DD	05H
	ORG $+16
	DB	'impacta1.wav', 00H
	ORG $+51
	DD	00H
	DD	00H
	DD	00H
	DD	04dbebc20r			; 4e+008
	DD	000000000r			; 0
	DD	0c61c4000r			; -10000
	DD	04dbebc20r			; 4e+008
	DD	00H
	DD	00H
	DD	015H
	DD	03f800000r			; 1
	DD	03f800000r			; 1
	DD	05H
	DD	00H
	DD	00H
	ORG $+16
	DB	'impacta2.wav', 00H
	ORG $+51
	DD	00H
	DD	00H
	DD	00H
	DD	04dbebc20r			; 4e+008
	DD	000000000r			; 0
	DD	0c61c4000r			; -10000
	DD	04dbebc20r			; 4e+008
	DD	00H
	DD	00H
	DD	015H
	DD	03f800000r			; 1
	DD	03f800000r			; 1
	DD	05H
	DD	00H
	DD	00H
	ORG $+16
	DB	'impacta3.wav', 00H
	ORG $+51
	DD	00H
	DD	00H
	DD	00H
	DD	04dbebc20r			; 4e+008
	DD	000000000r			; 0
	DD	0c61c4000r			; -10000
	DD	04dbebc20r			; 4e+008
	DD	00H
	DD	00H
	DD	015H
	DD	03f800000r			; 1
	DD	03f800000r			; 1
	DD	05H
	DD	00H
	DD	00H
	ORG $+16
	DB	'impacta4.wav', 00H
	ORG $+51
	DD	00H
	DD	00H
	DD	00H
	DD	04dbebc20r			; 4e+008
	DD	000000000r			; 0
	DD	0c61c4000r			; -10000
	DD	04dbebc20r			; 4e+008
	DD	00H
	DD	00H
	DD	015H
	DD	03f800000r			; 1
	DD	03f800000r			; 1
	DD	05H
	DD	00H
	DD	00H
	ORG $+16
	DB	'impacta5.wav', 00H
	ORG $+51
	DD	00H
	DD	00H
	DD	00H
	DD	04dbebc20r			; 4e+008
	DD	000000000r			; 0
	DD	0c61c4000r			; -10000
	DD	04dbebc20r			; 4e+008
	DD	00H
	DD	00H
	DD	015H
	DD	03f800000r			; 1
	DD	03f800000r			; 1
	DD	05H
	DD	00H
	DD	00H
	ORG $+16
	DB	'twslock.wav', 00H
	ORG $+52
	DD	00H
	DD	00H
	DD	00H
	DD	04a742400r			; 4e+006
	DD	000000000r			; 0
	DD	0c61c4000r			; -10000
	DD	04a742400r			; 4e+006
	DD	00H
	DD	00H
	DD	01H
	DD	03f800000r			; 1
	DD	03f800000r			; 1
	DD	02H
	DD	00H
	DD	00H
	ORG $+16
	DB	'twslnch.wav', 00H
	ORG $+52
	DD	00H
	DD	00H
	DD	00H
	DD	04a742400r			; 4e+006
	DD	000000000r			; 0
	DD	0c61c4000r			; -10000
	DD	04a742400r			; 4e+006
	DD	00H
	DD	00H
	DD	01H
	DD	03f800000r			; 1
	DD	03f800000r			; 1
	DD	02H
	DD	00H
	DD	00H
	ORG $+16
	DB	'twslncir.wav', 00H
	ORG $+51
	DD	00H
	DD	00H
	DD	00H
	DD	04a742400r			; 4e+006
	DD	000000000r			; 0
	DD	0c61c4000r			; -10000
	DD	04a742400r			; 4e+006
	DD	00H
	DD	00H
	DD	01H
	DD	03f800000r			; 1
	DD	03f800000r			; 1
	DD	02H
	DD	00H
	DD	00H
	ORG $+16
	DB	'twssrch.wav', 00H
	ORG $+52
	DD	00H
	DD	00H
	DD	00H
	DD	04a742400r			; 4e+006
	DD	000000000r			; 0
	DD	0c61c4000r			; -10000
	DD	04a742400r			; 4e+006
	DD	00H
	DD	00H
	DD	01H
	DD	03f800000r			; 1
	DD	03f800000r			; 1
	DD	02H
	DD	00H
	DD	00H
	ORG $+16
	DB	'warning.wav', 00H
	ORG $+52
	DD	00H
	DD	00H
	DD	00H
	DD	04dbebc20r			; 4e+008
	DD	000000000r			; 0
	DD	0c61c4000r			; -10000
	DD	04dbebc20r			; 4e+008
	DD	00H
	DD	00H
	DD	09H
	DD	03f800000r			; 1
	DD	03f800000r			; 1
	DD	08H
	DD	00H
	DD	00H
	ORG $+16
	DB	'caution.wav', 00H
	ORG $+52
	DD	00H
	DD	00H
	DD	00H
	DD	04dbebc20r			; 4e+008
	DD	000000000r			; 0
	DD	0c61c4000r			; -10000
	DD	04dbebc20r			; 4e+008
	DD	00H
	DD	00H
	DD	09H
	DD	03f800000r			; 1
	DD	03f800000r			; 1
	DD	08H
	DD	00H
	DD	00H
	ORG $+16
	DB	'altitude.wav', 00H
	ORG $+51
	DD	00H
	DD	00H
	DD	00H
	DD	04dbebc20r			; 4e+008
	DD	000000000r			; 0
	DD	0c61c4000r			; -10000
	DD	04dbebc20r			; 4e+008
	DD	00H
	DD	00H
	DD	09H
	DD	03f800000r			; 1
	DD	03f800000r			; 1
	DD	08H
	DD	00H
	DD	00H
	ORG $+16
	DB	'bingo.wav', 00H
	ORG $+54
	DD	00H
	DD	00H
	DD	00H
	DD	04dbebc20r			; 4e+008
	DD	000000000r			; 0
	DD	0c61c4000r			; -10000
	DD	04dbebc20r			; 4e+008
	DD	00H
	DD	00H
	DD	09H
	DD	03f800000r			; 1
	DD	03f800000r			; 1
	DD	08H
	DD	00H
	DD	00H
	ORG $+16
	DB	'lock.wav', 00H
	ORG $+55
	DD	00H
	DD	00H
	DD	00H
	DD	04dbebc20r			; 4e+008
	DD	000000000r			; 0
	DD	0c61c4000r			; -10000
	DD	04dbebc20r			; 4e+008
	DD	00H
	DD	00H
	DD	09H
	DD	03f800000r			; 1
	DD	03f800000r			; 1
	DD	08H
	DD	00H
	DD	00H
	ORG $+16
	DB	'pullup.wav', 00H
	ORG $+53
	DD	00H
	DD	00H
	DD	00H
	DD	04dbebc20r			; 4e+008
	DD	000000000r			; 0
	DD	0c61c4000r			; -10000
	DD	04dbebc20r			; 4e+008
	DD	00H
	DD	00H
	DD	09H
	DD	03f800000r			; 1
	DD	03f800000r			; 1
	DD	08H
	DD	00H
	DD	00H
	ORG $+16
	DB	'None.wav', 00H
	ORG $+55
	DD	00H
	DD	00H
	DD	00H
	DD	04dbebc20r			; 4e+008
	DD	000000000r			; 0
	DD	0c61c4000r			; -10000
	DD	04dbebc20r			; 4e+008
	DD	00H
	DD	00H
	DD	09H
	DD	03f800000r			; 1
	DD	03f800000r			; 1
	DD	02H
	DD	00H
	DD	00H
	ORG $+16
	DB	'iff.wav', 00H
	ORG $+56
	DD	00H
	DD	00H
	DD	00H
	DD	04dbebc20r			; 4e+008
	DD	000000000r			; 0
	DD	0c61c4000r			; -10000
	DD	04dbebc20r			; 4e+008
	DD	00H
	DD	00H
	DD	09H
	DD	03f800000r			; 1
	DD	03f800000r			; 1
	DD	02H
	DD	00H
	DD	00H
	ORG $+16
	DB	'vulloope.wav', 00H
	ORG $+51
	DD	00H
	DD	00H
	DD	00H
	DD	04a989680r			; 5e+006
	DD	000000000r			; 0
	DD	0c61c4000r			; -10000
	DD	04a989680r			; 5e+006
	DD	00H
	DD	00H
	DD	017H
	DD	03f800000r			; 1
	DD	03f800000r			; 1
	DD	08H
	DD	00H
	DD	00H
	ORG $+16
	DB	'vulende.wav', 00H
	ORG $+52
	DD	00H
	DD	00H
	DD	00H
	DD	04a989680r			; 5e+006
	DD	000000000r			; 0
	DD	0c61c4000r			; -10000
	DD	04a989680r			; 5e+006
	DD	00H
	DD	00H
	DD	015H
	DD	03f800000r			; 1
	DD	03f800000r			; 1
	DD	08H
	DD	00H
	DD	00H
	ORG $+16
	DB	'twi\a50.wav', 00H
	ORG $+52
	DD	00H
	DD	00H
	DD	00H
	DD	04dbebc20r			; 4e+008
	DD	000000000r			; 0
	DD	0c61c4000r			; -10000
	DD	04dbebc20r			; 4e+008
	DD	00H
	DD	00H
	DD	03H
	DD	03f800000r			; 1
	DD	03f800000r			; 1
	DD	02H
	DD	02H
	DD	08H
	ORG $+16
	DB	'twi\chaparal.wav', 00H
	ORG $+47
	DD	00H
	DD	00H
	DD	00H
	DD	04dbebc20r			; 4e+008
	DD	000000000r			; 0
	DD	0c61c4000r			; -10000
	DD	04dbebc20r			; 4e+008
	DD	00H
	DD	00H
	DD	03H
	DD	03f800000r			; 1
	DD	03f800000r			; 1
	DD	02H
	DD	05H
	DD	00H
	ORG $+16
	DB	'twi\f5.wav', 00H
	ORG $+53
	DD	00H
	DD	00H
	DD	00H
	DD	04dbebc20r			; 4e+008
	DD	000000000r			; 0
	DD	0c61c4000r			; -10000
	DD	04dbebc20r			; 4e+008
	DD	00H
	DD	00H
	DD	03H
	DD	03f800000r			; 1
	DD	03f800000r			; 1
	DD	02H
	DD	06H
	DD	02H
	ORG $+16
	DB	'twi\f22.wav', 00H
	ORG $+52
	DD	00H
	DD	00H
	DD	00H
	DD	04dbebc20r			; 4e+008
	DD	000000000r			; 0
	DD	0c61c4000r			; -10000
	DD	04dbebc20r			; 4e+008
	DD	00H
	DD	00H
	DD	03H
	DD	03f800000r			; 1
	DD	03f800000r			; 1
	DD	02H
	DD	06H
	DD	06H
	ORG $+16
	DB	'twi\2s6.wav', 00H
	ORG $+52
	DD	00H
	DD	00H
	DD	00H
	DD	04dbebc20r			; 4e+008
	DD	000000000r			; 0
	DD	0c61c4000r			; -10000
	DD	04dbebc20r			; 4e+008
	DD	00H
	DD	00H
	DD	03H
	DD	03f800000r			; 1
	DD	03f800000r			; 1
	DD	02H
	DD	01H
	DD	04H
	ORG $+16
	DB	'twi\adats.wav', 00H
	ORG $+50
	DD	00H
	DD	00H
	DD	00H
	DD	04dbebc20r			; 4e+008
	DD	000000000r			; 0
	DD	0c61c4000r			; -10000
	DD	04dbebc20r			; 4e+008
	DD	00H
	DD	00H
	DD	03H
	DD	03f800000r			; 1
	DD	03f800000r			; 1
	DD	02H
	DD	05H
	DD	06H
	ORG $+16
	DB	'twi\ah66.wav', 00H
	ORG $+51
	DD	00H
	DD	00H
	DD	00H
	DD	04dbebc20r			; 4e+008
	DD	000000000r			; 0
	DD	0c61c4000r			; -10000
	DD	04dbebc20r			; 4e+008
	DD	00H
	DD	00H
	DD	03H
	DD	03f800000r			; 1
	DD	03f800000r			; 1
	DD	02H
	DD	06H
	DD	07H
	ORG $+16
	DB	'twi\av8b.wav', 00H
	ORG $+51
	DD	00H
	DD	00H
	DD	00H
	DD	04dbebc20r			; 4e+008
	DD	000000000r			; 0
	DD	0c61c4000r			; -10000
	DD	04dbebc20r			; 4e+008
	DD	00H
	DD	00H
	DD	03H
	DD	03f800000r			; 1
	DD	03f800000r			; 1
	DD	02H
	DD	06H
	DD	08H
	ORG $+16
	DB	'twi\e2c.wav', 00H
	ORG $+52
	DD	00H
	DD	00H
	DD	00H
	DD	04dbebc20r			; 4e+008
	DD	000000000r			; 0
	DD	0c61c4000r			; -10000
	DD	04dbebc20r			; 4e+008
	DD	00H
	DD	00H
	DD	03H
	DD	03f800000r			; 1
	DD	03f800000r			; 1
	DD	02H
	DD	05H
	DD	01H
	ORG $+16
	DB	'twi\e3.wav', 00H
	ORG $+53
	DD	00H
	DD	00H
	DD	00H
	DD	04dbebc20r			; 4e+008
	DD	000000000r			; 0
	DD	0c61c4000r			; -10000
	DD	04dbebc20r			; 4e+008
	DD	00H
	DD	00H
	DD	03H
	DD	03f800000r			; 1
	DD	03f800000r			; 1
	DD	02H
	DD	05H
	DD	02H
	ORG $+16
	DB	'twi\f4.wav', 00H
	ORG $+53
	DD	00H
	DD	00H
	DD	00H
	DD	04dbebc20r			; 4e+008
	DD	000000000r			; 0
	DD	0c61c4000r			; -10000
	DD	04dbebc20r			; 4e+008
	DD	00H
	DD	00H
	DD	03H
	DD	03f800000r			; 1
	DD	03f800000r			; 1
	DD	02H
	DD	06H
	DD	01H
	ORG $+16
	DB	'twi\f14.wav', 00H
	ORG $+52
	DD	00H
	DD	00H
	DD	00H
	DD	04dbebc20r			; 4e+008
	DD	000000000r			; 0
	DD	0c61c4000r			; -10000
	DD	04dbebc20r			; 4e+008
	DD	00H
	DD	00H
	DD	03H
	DD	03f800000r			; 1
	DD	03f800000r			; 1
	DD	02H
	DD	06H
	DD	03H
	ORG $+16
	DB	'twi\f15.wav', 00H
	ORG $+52
	DD	00H
	DD	00H
	DD	00H
	DD	04dbebc20r			; 4e+008
	DD	000000000r			; 0
	DD	0c61c4000r			; -10000
	DD	04dbebc20r			; 4e+008
	DD	00H
	DD	00H
	DD	03H
	DD	03f800000r			; 1
	DD	03f800000r			; 1
	DD	02H
	DD	06H
	DD	04H
	ORG $+16
	DB	'twi\hawk.wav', 00H
	ORG $+51
	DD	00H
	DD	00H
	DD	00H
	DD	04dbebc20r			; 4e+008
	DD	000000000r			; 0
	DD	0c61c4000r			; -10000
	DD	04dbebc20r			; 4e+008
	DD	00H
	DD	00H
	DD	03H
	DD	03f800000r			; 1
	DD	03f800000r			; 1
	DD	02H
	DD	05H
	DD	00H
	ORG $+16
	DB	'twi\hercules.wav', 00H
	ORG $+47
	DD	00H
	DD	00H
	DD	00H
	DD	04dbebc20r			; 4e+008
	DD	000000000r			; 0
	DD	0c61c4000r			; -10000
	DD	04dbebc20r			; 4e+008
	DD	00H
	DD	00H
	DD	03H
	DD	03f800000r			; 1
	DD	03f800000r			; 1
	DD	02H
	DD	05H
	DD	07H
	ORG $+16
	DB	'twi\j5.wav', 00H
	ORG $+53
	DD	00H
	DD	00H
	DD	00H
	DD	04dbebc20r			; 4e+008
	DD	000000000r			; 0
	DD	0c61c4000r			; -10000
	DD	04dbebc20r			; 4e+008
	DD	00H
	DD	00H
	DD	03H
	DD	03f800000r			; 1
	DD	03f800000r			; 1
	DD	02H
	DD	02H
	DD	07H
	ORG $+16
	DB	'twi\j7.wav', 00H
	ORG $+53
	DD	00H
	DD	00H
	DD	00H
	DD	04dbebc20r			; 4e+008
	DD	000000000r			; 0
	DD	0c61c4000r			; -10000
	DD	04dbebc20r			; 4e+008
	DD	00H
	DD	00H
	DD	01H
	DD	03f800000r			; 1
	DD	03f800000r			; 1
	DD	02H
	DD	02H
	DD	06H
	ORG $+16
	DB	'twi\launch.wav', 00H
	ORG $+49
	DD	00H
	DD	00H
	DD	00H
	DD	04dbebc20r			; 4e+008
	DD	000000000r			; 0
	DD	0c61c4000r			; -10000
	DD	04dbebc20r			; 4e+008
	DD	00H
	DD	00H
	DD	03H
	DD	03f800000r			; 1
	DD	03f800000r			; 1
	DD	02H
	DD	00H
	DD	00H
	ORG $+16
	DB	'twi\lav_adv.wav', 00H
	ORG $+48
	DD	00H
	DD	00H
	DD	00H
	DD	04dbebc20r			; 4e+008
	DD	000000000r			; 0
	DD	0c61c4000r			; -10000
	DD	04dbebc20r			; 4e+008
	DD	00H
	DD	00H
	DD	03H
	DD	03f800000r			; 1
	DD	03f800000r			; 1
	DD	02H
	DD	05H
	DD	09H
	ORG $+16
	DB	'twi\patriot.wav', 00H
	ORG $+48
	DD	00H
	DD	00H
	DD	00H
	DD	04dbebc20r			; 4e+008
	DD	000000000r			; 0
	DD	0c61c4000r			; -10000
	DD	04dbebc20r			; 4e+008
	DD	00H
	DD	00H
	DD	03H
	DD	03f800000r			; 1
	DD	03f800000r			; 1
	DD	02H
	DD	05H
	DD	08H
	ORG $+16
	DB	'twi\sa2.wav', 00H
	ORG $+52
	DD	00H
	DD	00H
	DD	00H
	DD	04dbebc20r			; 4e+008
	DD	000000000r			; 0
	DD	0c61c4000r			; -10000
	DD	04dbebc20r			; 4e+008
	DD	00H
	DD	00H
	DD	03H
	DD	03f800000r			; 1
	DD	03f800000r			; 1
	DD	02H
	DD	03H
	DD	02H
	ORG $+16
	DB	'twi\sa3.wav', 00H
	ORG $+52
	DD	00H
	DD	00H
	DD	00H
	DD	04dbebc20r			; 4e+008
	DD	000000000r			; 0
	DD	0c61c4000r			; -10000
	DD	04dbebc20r			; 4e+008
	DD	00H
	DD	00H
	DD	03H
	DD	03f800000r			; 1
	DD	03f800000r			; 1
	DD	02H
	DD	03H
	DD	03H
	ORG $+16
	DB	'twi\sa4.wav', 00H
	ORG $+52
	DD	00H
	DD	00H
	DD	00H
	DD	04dbebc20r			; 4e+008
	DD	000000000r			; 0
	DD	0c61c4000r			; -10000
	DD	04dbebc20r			; 4e+008
	DD	00H
	DD	00H
	DD	03H
	DD	03f800000r			; 1
	DD	03f800000r			; 1
	DD	02H
	DD	03H
	DD	04H
	ORG $+16
	DB	'twi\sa5.wav', 00H
	ORG $+52
	DD	00H
	DD	00H
	DD	00H
	DD	04dbebc20r			; 4e+008
	DD	000000000r			; 0
	DD	0c61c4000r			; -10000
	DD	04dbebc20r			; 4e+008
	DD	00H
	DD	00H
	DD	03H
	DD	03f800000r			; 1
	DD	03f800000r			; 1
	DD	02H
	DD	03H
	DD	05H
	ORG $+16
	DB	'twi\sa6.wav', 00H
	ORG $+52
	DD	00H
	DD	00H
	DD	00H
	DD	04dbebc20r			; 4e+008
	DD	000000000r			; 0
	DD	0c61c4000r			; -10000
	DD	04dbebc20r			; 4e+008
	DD	00H
	DD	00H
	DD	03H
	DD	03f800000r			; 1
	DD	03f800000r			; 1
	DD	02H
	DD	03H
	DD	06H
	ORG $+16
	DB	'twi\sa8.wav', 00H
	ORG $+52
	DD	00H
	DD	00H
	DD	00H
	DD	04dbebc20r			; 4e+008
	DD	000000000r			; 0
	DD	0c61c4000r			; -10000
	DD	04dbebc20r			; 4e+008
	DD	00H
	DD	00H
	DD	03H
	DD	03f800000r			; 1
	DD	03f800000r			; 1
	DD	02H
	DD	03H
	DD	08H
	ORG $+16
	DB	'twi\sa9.wav', 00H
	ORG $+52
	DD	00H
	DD	00H
	DD	00H
	DD	04dbebc20r			; 4e+008
	DD	000000000r			; 0
	DD	0c61c4000r			; -10000
	DD	04dbebc20r			; 4e+008
	DD	00H
	DD	00H
	DD	03H
	DD	03f800000r			; 1
	DD	03f800000r			; 1
	DD	02H
	DD	03H
	DD	09H
	ORG $+16
	DB	'twi\sa10.wav', 00H
	ORG $+51
	DD	00H
	DD	00H
	DD	00H
	DD	04dbebc20r			; 4e+008
	DD	000000000r			; 0
	DD	0c61c4000r			; -10000
	DD	04dbebc20r			; 4e+008
	DD	00H
	DD	00H
	DD	03H
	DD	03f800000r			; 1
	DD	03f800000r			; 1
	DD	02H
	DD	03H
	DD	01H
	ORG $+16
	DB	'twi\sa13.wav', 00H
	ORG $+51
	DD	00H
	DD	00H
	DD	00H
	DD	04dbebc20r			; 4e+008
	DD	000000000r			; 0
	DD	0c61c4000r			; -10000
	DD	04dbebc20r			; 4e+008
	DD	00H
	DD	00H
	DD	03H
	DD	03f800000r			; 1
	DD	03f800000r			; 1
	DD	02H
	DD	03H
	DD	07H
	ORG $+16
	DB	'twi\slotback.wav', 00H
	ORG $+47
	DD	00H
	DD	00H
	DD	00H
	DD	04dbebc20r			; 4e+008
	DD	000000000r			; 0
	DD	0c61c4000r			; -10000
	DD	04dbebc20r			; 4e+008
	DD	00H
	DD	00H
	DD	03H
	DD	03f800000r			; 1
	DD	03f800000r			; 1
	DD	02H
	DD	02H
	DD	01H
	ORG $+16
	DB	'twi\su15.wav', 00H
	ORG $+51
	DD	00H
	DD	00H
	DD	00H
	DD	04dbebc20r			; 4e+008
	DD	000000000r			; 0
	DD	0c61c4000r			; -10000
	DD	04dbebc20r			; 4e+008
	DD	00H
	DD	00H
	DD	01H
	DD	03f800000r			; 1
	DD	03f800000r			; 1
	DD	02H
	DD	02H
	DD	09H
	ORG $+16
	DB	'diveloop.wav', 00H
	ORG $+51
	DD	00H
	DD	00H
	DD	00H
	DD	04c3ebc20r			; 5e+007
	DD	000000000r			; 0
	DD	0c61c4000r			; -10000
	DD	04c3ebc20r			; 5e+007
	DD	00H
	DD	00H
	DD	03H
	DD	03f800000r			; 1
	DD	03f800000r			; 1
	DD	05H
	DD	00H
	DD	00H
	ORG $+16
	DB	'fireloop.wav', 00H
	ORG $+51
	DD	00H
	DD	00H
	DD	00H
	DD	04c3ebc20r			; 5e+007
	DD	0c3fa0000r			; -500
	DD	0c61c4000r			; -10000
	DD	04c3ebc20r			; 5e+007
	DD	00H
	DD	00H
	DD	037H
	DD	03f800000r			; 1
	DD	03f800000r			; 1
	DD	05H
	DD	00H
	DD	00H
	ORG $+16
	DB	'chute.wav', 00H
	ORG $+54
	DD	00H
	DD	00H
	DD	00H
	DD	04a989680r			; 5e+006
	DD	000000000r			; 0
	DD	0c61c4000r			; -10000
	DD	04a989680r			; 5e+006
	DD	00H
	DD	00H
	DD	015H
	DD	03f800000r			; 1
	DD	03f800000r			; 1
	DD	05H
	DD	00H
	DD	00H
	ORG $+16
	DB	'splish.wav', 00H
	ORG $+53
	DD	00H
	DD	00H
	DD	00H
	DD	04a989680r			; 5e+006
	DD	000000000r			; 0
	DD	0c61c4000r			; -10000
	DD	04a989680r			; 5e+006
	DD	00H
	DD	00H
	DD	015H
	DD	03f800000r			; 1
	DD	03f800000r			; 1
	DD	05H
	DD	00H
	DD	00H
	ORG $+16
	DB	'rcktloop.wav', 00H
	ORG $+51
	DD	00H
	DD	00H
	DD	00H
	DD	04a989680r			; 5e+006
	DD	000000000r			; 0
	DD	0c61c4000r			; -10000
	DD	04a989680r			; 5e+006
	DD	00H
	DD	00H
	DD	017H
	DD	03f800000r			; 1
	DD	03f800000r			; 1
	DD	05H
	DD	00H
	DD	00H
	ORG $+16
	DB	'impactg1.wav', 00H
	ORG $+51
	DD	00H
	DD	00H
	DD	00H
	DD	04dbebc20r			; 4e+008
	DD	000000000r			; 0
	DD	0c61c4000r			; -10000
	DD	04dbebc20r			; 4e+008
	DD	00H
	DD	00H
	DD	015H
	DD	03f800000r			; 1
	DD	03f800000r			; 1
	DD	05H
	DD	00H
	DD	00H
	ORG $+16
	DB	'impactg2.wav', 00H
	ORG $+51
	DD	00H
	DD	00H
	DD	00H
	DD	04dbebc20r			; 4e+008
	DD	000000000r			; 0
	DD	0c61c4000r			; -10000
	DD	04dbebc20r			; 4e+008
	DD	00H
	DD	00H
	DD	015H
	DD	03f800000r			; 1
	DD	03f800000r			; 1
	DD	05H
	DD	00H
	DD	00H
	ORG $+16
	DB	'impactg3.wav', 00H
	ORG $+51
	DD	00H
	DD	00H
	DD	00H
	DD	04dbebc20r			; 4e+008
	DD	000000000r			; 0
	DD	0c61c4000r			; -10000
	DD	04dbebc20r			; 4e+008
	DD	00H
	DD	00H
	DD	015H
	DD	03f800000r			; 1
	DD	03f800000r			; 1
	DD	05H
	DD	00H
	DD	00H
	ORG $+16
	DB	'impactg4.wav', 00H
	ORG $+51
	DD	00H
	DD	00H
	DD	00H
	DD	04dbebc20r			; 4e+008
	DD	000000000r			; 0
	DD	0c61c4000r			; -10000
	DD	04dbebc20r			; 4e+008
	DD	00H
	DD	00H
	DD	015H
	DD	03f800000r			; 1
	DD	03f800000r			; 1
	DD	05H
	DD	00H
	DD	00H
	ORG $+16
	DB	'impactg5.wav', 00H
	ORG $+51
	DD	00H
	DD	00H
	DD	00H
	DD	04dbebc20r			; 4e+008
	DD	000000000r			; 0
	DD	0c61c4000r			; -10000
	DD	04dbebc20r			; 4e+008
	DD	00H
	DD	00H
	DD	015H
	DD	03f800000r			; 1
	DD	03f800000r			; 1
	DD	05H
	DD	00H
	DD	00H
	ORG $+16
	DB	'impactg6.wav', 00H
	ORG $+51
	DD	00H
	DD	00H
	DD	00H
	DD	04dbebc20r			; 4e+008
	DD	000000000r			; 0
	DD	0c61c4000r			; -10000
	DD	04dbebc20r			; 4e+008
	DD	00H
	DD	00H
	DD	015H
	DD	03f800000r			; 1
	DD	03f800000r			; 1
	DD	05H
	DD	00H
	DD	00H
	ORG $+16
	DB	'cockpit\toggllil.wav', 00H
	ORG $+43
	DD	00H
	DD	00H
	DD	00H
	DD	04dbebc20r			; 4e+008
	DD	000000000r			; 0
	DD	0c61c4000r			; -10000
	DD	04dbebc20r			; 4e+008
	DD	00H
	DD	00H
	DD	01H
	DD	03f800000r			; 1
	DD	03f800000r			; 1
	DD	08H
	DD	00H
	DD	00H
	ORG $+16
	DB	'cockpit\chngview.wav', 00H
	ORG $+43
	DD	00H
	DD	00H
	DD	00H
	DD	04dbebc20r			; 4e+008
	DD	000000000r			; 0
	DD	0c61c4000r			; -10000
	DD	04dbebc20r			; 4e+008
	DD	00H
	DD	00H
	DD	01H
	DD	03f800000r			; 1
	DD	03f800000r			; 1
	DD	08H
	DD	00H
	DD	00H
	ORG $+16
	DB	'cockpit\ejectlvr.wav', 00H
	ORG $+43
	DD	00H
	DD	00H
	DD	00H
	DD	04dbebc20r			; 4e+008
	DD	000000000r			; 0
	DD	0c61c4000r			; -10000
	DD	04dbebc20r			; 4e+008
	DD	00H
	DD	00H
	DD	01H
	DD	03f800000r			; 1
	DD	03f800000r			; 1
	DD	08H
	DD	00H
	DD	00H
	ORG $+16
	DB	'cockpit\geardwn.wav', 00H
	ORG $+44
	DD	00H
	DD	00H
	DD	00H
	DD	04dbebc20r			; 4e+008
	DD	000000000r			; 0
	DD	0c61c4000r			; -10000
	DD	04dbebc20r			; 4e+008
	DD	00H
	DD	00H
	DD	01H
	DD	03f800000r			; 1
	DD	03f800000r			; 1
	DD	08H
	DD	00H
	DD	00H
	ORG $+16
	DB	'cockpit\gearup.wav', 00H
	ORG $+45
	DD	00H
	DD	00H
	DD	00H
	DD	04dbebc20r			; 4e+008
	DD	000000000r			; 0
	DD	0c61c4000r			; -10000
	DD	04dbebc20r			; 4e+008
	DD	00H
	DD	00H
	DD	01H
	DD	03f800000r			; 1
	DD	03f800000r			; 1
	DD	08H
	DD	00H
	DD	00H
	ORG $+16
	DB	'cockpit\icp1.wav', 00H
	ORG $+47
	DD	00H
	DD	00H
	DD	00H
	DD	04dbebc20r			; 4e+008
	DD	000000000r			; 0
	DD	0c61c4000r			; -10000
	DD	04dbebc20r			; 4e+008
	DD	00H
	DD	00H
	DD	01H
	DD	03f800000r			; 1
	DD	03f800000r			; 1
	DD	08H
	DD	00H
	DD	00H
	ORG $+16
	DB	'cockpit\ICP2.wav', 00H
	ORG $+47
	DD	00H
	DD	00H
	DD	00H
	DD	04dbebc20r			; 4e+008
	DD	000000000r			; 0
	DD	0c61c4000r			; -10000
	DD	04dbebc20r			; 4e+008
	DD	00H
	DD	00H
	DD	01H
	DD	03f800000r			; 1
	DD	03f800000r			; 1
	DD	08H
	DD	00H
	DD	00H
	ORG $+16
	DB	'cockpit\icpmntry.wav', 00H
	ORG $+43
	DD	00H
	DD	00H
	DD	00H
	DD	04dbebc20r			; 4e+008
	DD	000000000r			; 0
	DD	0c61c4000r			; -10000
	DD	04dbebc20r			; 4e+008
	DD	00H
	DD	00H
	DD	01H
	DD	03f800000r			; 1
	DD	03f800000r			; 1
	DD	08H
	DD	00H
	DD	00H
	ORG $+16
	DB	'cockpit\jettison.wav', 00H
	ORG $+43
	DD	00H
	DD	00H
	DD	00H
	DD	04dbebc20r			; 4e+008
	DD	000000000r			; 0
	DD	0c61c4000r			; -10000
	DD	04dbebc20r			; 4e+008
	DD	00H
	DD	00H
	DD	01H
	DD	03f800000r			; 1
	DD	03f800000r			; 1
	DD	08H
	DD	00H
	DD	00H
	ORG $+16
	DB	'cockpit\knobbig.wav', 00H
	ORG $+44
	DD	00H
	DD	00H
	DD	00H
	DD	04dbebc20r			; 4e+008
	DD	000000000r			; 0
	DD	0c61c4000r			; -10000
	DD	04dbebc20r			; 4e+008
	DD	00H
	DD	00H
	DD	01H
	DD	03f800000r			; 1
	DD	03f800000r			; 1
	DD	08H
	DD	00H
	DD	00H
	ORG $+16
	DB	'cockpit\knoblil.wav', 00H
	ORG $+44
	DD	00H
	DD	00H
	DD	00H
	DD	04dbebc20r			; 4e+008
	DD	000000000r			; 0
	DD	0c61c4000r			; -10000
	DD	04dbebc20r			; 4e+008
	DD	00H
	DD	00H
	DD	01H
	DD	03f800000r			; 1
	DD	03f800000r			; 1
	DD	08H
	DD	00H
	DD	00H
	ORG $+16
	DB	'cockpit\mfd.wav', 00H
	ORG $+48
	DD	00H
	DD	00H
	DD	00H
	DD	04dbebc20r			; 4e+008
	DD	000000000r			; 0
	DD	0c61c4000r			; -10000
	DD	04dbebc20r			; 4e+008
	DD	00H
	DD	00H
	DD	01H
	DD	03f800000r			; 1
	DD	03f800000r			; 1
	DD	08H
	DD	00H
	DD	00H
	ORG $+16
	DB	'cockpit\momntary.wav', 00H
	ORG $+43
	DD	00H
	DD	00H
	DD	00H
	DD	04dbebc20r			; 4e+008
	DD	000000000r			; 0
	DD	0c61c4000r			; -10000
	DD	04dbebc20r			; 4e+008
	DD	00H
	DD	00H
	DD	01H
	DD	03f800000r			; 1
	DD	03f800000r			; 1
	DD	08H
	DD	00H
	DD	00H
	ORG $+16
	DB	'cockpit\navknob.wav', 00H
	ORG $+44
	DD	00H
	DD	00H
	DD	00H
	DD	04dbebc20r			; 4e+008
	DD	000000000r			; 0
	DD	0c61c4000r			; -10000
	DD	04dbebc20r			; 4e+008
	DD	00H
	DD	00H
	DD	01H
	DD	03f800000r			; 1
	DD	03f800000r			; 1
	DD	08H
	DD	00H
	DD	00H
	ORG $+16
	DB	'cockpit\togglbig.wav', 00H
	ORG $+43
	DD	00H
	DD	00H
	DD	00H
	DD	04dbebc20r			; 4e+008
	DD	000000000r			; 0
	DD	0c61c4000r			; -10000
	DD	04dbebc20r			; 4e+008
	DD	00H
	DD	00H
	DD	01H
	DD	03f800000r			; 1
	DD	03f800000r			; 1
	DD	08H
	DD	00H
	DD	00H
	ORG $+16
	DB	'cockpit\chaflare.wav', 00H
	ORG $+43
	DD	00H
	DD	00H
	DD	00H
	DD	04dbebc20r			; 4e+008
	DD	000000000r			; 0
	DD	0c61c4000r			; -10000
	DD	04dbebc20r			; 4e+008
	DD	00H
	DD	00H
	DD	01H
	DD	03f800000r			; 1
	DD	03f800000r			; 1
	DD	08H
	DD	00H
	DD	00H
	ORG $+16
	DB	'airbrake.wav', 00H
	ORG $+51
	DD	00H
	DD	00H
	DD	00H
	DD	04a989680r			; 5e+006
	DD	000000000r			; 0
	DD	0c61c4000r			; -10000
	DD	04a989680r			; 5e+006
	DD	00H
	DD	00H
	DD	015H
	DD	03f800000r			; 1
	DD	03f800000r			; 1
	DD	00H
	DD	00H
	DD	00H
	ORG $+16
	DB	'bind.wav', 00H
	ORG $+55
	DD	00H
	DD	00H
	DD	00H
	DD	04a989680r			; 5e+006
	DD	000000000r			; 0
	DD	0c61c4000r			; -10000
	DD	04a989680r			; 5e+006
	DD	00H
	DD	00H
	DD	015H
	DD	03f800000r			; 1
	DD	03f800000r			; 1
	DD	00H
	DD	00H
	DD	00H
	ORG $+16
	DB	'gearup.wav', 00H
	ORG $+53
	DD	00H
	DD	00H
	DD	00H
	DD	04a989680r			; 5e+006
	DD	000000000r			; 0
	DD	0c61c4000r			; -10000
	DD	04a989680r			; 5e+006
	DD	00H
	DD	00H
	DD	015H
	DD	03f800000r			; 1
	DD	03f800000r			; 1
	DD	00H
	DD	00H
	DD	00H
	ORG $+16
	DB	'jettison.wav', 00H
	ORG $+51
	DD	00H
	DD	00H
	DD	00H
	DD	04a989680r			; 5e+006
	DD	000000000r			; 0
	DD	0c61c4000r			; -10000
	DD	04a989680r			; 5e+006
	DD	00H
	DD	00H
	DD	015H
	DD	03f800000r			; 1
	DD	03f800000r			; 1
	DD	00H
	DD	00H
	DD	00H
	ORG $+16
	DB	'scream.wav', 00H
	ORG $+53
	DD	00H
	DD	00H
	DD	00H
	DD	04a989680r			; 5e+006
	DD	000000000r			; 0
	DD	0c61c4000r			; -10000
	DD	04a989680r			; 5e+006
	DD	00H
	DD	00H
	DD	015H
	DD	03f800000r			; 1
	DD	03f800000r			; 1
	DD	05H
	DD	00H
	DD	00H
	ORG $+16
	DB	'stall.wav', 00H
	ORG $+54
	DD	00H
	DD	00H
	DD	00H
	DD	04a989680r			; 5e+006
	DD	000000000r			; 0
	DD	0c61c4000r			; -10000
	DD	04a989680r			; 5e+006
	DD	00H
	DD	00H
	DD	01H
	DD	03f800000r			; 1
	DD	03f800000r			; 1
	DD	00H
	DD	00H
	DD	00H
	ORG $+16
	DB	'wind.wav', 00H
	ORG $+55
	DD	00H
	DD	00H
	DD	00H
	DD	04c189680r			; 4e+007
	DD	000000000r			; 0
	DD	0c61c4000r			; -10000
	DD	04c189680r			; 4e+007
	DD	00H
	DD	00H
	DD	03H
	DD	03f800000r			; 1
	DD	03f800000r			; 1
	DD	05H
	DD	00H
	DD	00H
	ORG $+16
	DB	'flare.wav', 00H
	ORG $+54
	DD	00H
	DD	00H
	DD	00H
	DD	04a989680r			; 5e+006
	DD	000000000r			; 0
	DD	0c61c4000r			; -10000
	DD	04a989680r			; 5e+006
	DD	00H
	DD	00H
	DD	015H
	DD	03f800000r			; 1
	DD	03f800000r			; 1
	DD	05H
	DD	00H
	DD	00H
	ORG $+16
	DB	'brakend.wav', 00H
	ORG $+52
	DD	00H
	DD	00H
	DD	00H
	DD	04a989680r			; 5e+006
	DD	000000000r			; 0
	DD	0c61c4000r			; -10000
	DD	04a989680r			; 5e+006
	DD	00H
	DD	00H
	DD	015H
	DD	03f800000r			; 1
	DD	03f800000r			; 1
	DD	00H
	DD	00H
	DD	00H
	ORG $+16
	DB	'brakloop.wav', 00H
	ORG $+51
	DD	00H
	DD	00H
	DD	00H
	DD	04a989680r			; 5e+006
	DD	000000000r			; 0
	DD	0c61c4000r			; -10000
	DD	04a989680r			; 5e+006
	DD	00H
	DD	00H
	DD	017H
	DD	03f800000r			; 1
	DD	03f800000r			; 1
	DD	00H
	DD	00H
	DD	00H
	ORG $+16
	DB	'brakstrt.wav', 00H
	ORG $+51
	DD	00H
	DD	00H
	DD	00H
	DD	04a989680r			; 5e+006
	DD	000000000r			; 0
	DD	0c61c4000r			; -10000
	DD	04a989680r			; 5e+006
	DD	00H
	DD	00H
	DD	015H
	DD	03f800000r			; 1
	DD	03f800000r			; 1
	DD	00H
	DD	00H
	DD	00H
	ORG $+16
	DB	'brakwind.wav', 00H
	ORG $+51
	DD	00H
	DD	00H
	DD	00H
	DD	04a989680r			; 5e+006
	DD	000000000r			; 0
	DD	0c61c4000r			; -10000
	DD	04a989680r			; 5e+006
	DD	00H
	DD	00H
	DD	037H
	DD	03f800000r			; 1
	DD	03f800000r			; 1
	DD	00H
	DD	00H
	DD	00H
	ORG $+16
	DB	'flapend.wav', 00H
	ORG $+52
	DD	00H
	DD	00H
	DD	00H
	DD	04a989680r			; 5e+006
	DD	000000000r			; 0
	DD	0c61c4000r			; -10000
	DD	04a989680r			; 5e+006
	DD	00H
	DD	00H
	DD	015H
	DD	03f800000r			; 1
	DD	03f800000r			; 1
	DD	00H
	DD	00H
	DD	00H
	ORG $+16
	DB	'flaploop.wav', 00H
	ORG $+51
	DD	00H
	DD	00H
	DD	00H
	DD	04a989680r			; 5e+006
	DD	000000000r			; 0
	DD	0c61c4000r			; -10000
	DD	04a989680r			; 5e+006
	DD	00H
	DD	00H
	DD	017H
	DD	03f800000r			; 1
	DD	03f800000r			; 1
	DD	00H
	DD	00H
	DD	00H
	ORG $+16
	DB	'flapstrt.wav', 00H
	ORG $+51
	DD	00H
	DD	00H
	DD	00H
	DD	04a989680r			; 5e+006
	DD	000000000r			; 0
	DD	0c61c4000r			; -10000
	DD	04a989680r			; 5e+006
	DD	00H
	DD	00H
	DD	015H
	DD	03f800000r			; 1
	DD	03f800000r			; 1
	DD	00H
	DD	00H
	DD	00H
	ORG $+16
	DB	'gearcend.wav', 00H
	ORG $+51
	DD	00H
	DD	00H
	DD	00H
	DD	04a989680r			; 5e+006
	DD	000000000r			; 0
	DD	0c61c4000r			; -10000
	DD	04a989680r			; 5e+006
	DD	00H
	DD	00H
	DD	015H
	DD	03f800000r			; 1
	DD	03f800000r			; 1
	DD	00H
	DD	00H
	DD	00H
	ORG $+16
	DB	'gearcst.wav', 00H
	ORG $+52
	DD	00H
	DD	00H
	DD	00H
	DD	04a989680r			; 5e+006
	DD	000000000r			; 0
	DD	0c61c4000r			; -10000
	DD	04a989680r			; 5e+006
	DD	00H
	DD	00H
	DD	015H
	DD	03f800000r			; 1
	DD	03f800000r			; 1
	DD	00H
	DD	00H
	DD	00H
	ORG $+16
	DB	'gearloop.wav', 00H
	ORG $+51
	DD	00H
	DD	00H
	DD	00H
	DD	04a989680r			; 5e+006
	DD	000000000r			; 0
	DD	0c61c4000r			; -10000
	DD	04a989680r			; 5e+006
	DD	00H
	DD	00H
	DD	017H
	DD	03f800000r			; 1
	DD	03f800000r			; 1
	DD	00H
	DD	00H
	DD	00H
	ORG $+16
	DB	'gearost.wav', 00H
	ORG $+52
	DD	00H
	DD	00H
	DD	00H
	DD	04a989680r			; 5e+006
	DD	000000000r			; 0
	DD	0c61c4000r			; -10000
	DD	04a989680r			; 5e+006
	DD	00H
	DD	00H
	DD	015H
	DD	03f800000r			; 1
	DD	03f800000r			; 1
	DD	00H
	DD	00H
	DD	00H
	ORG $+16
	DB	'gearoend.wav', 00H
	ORG $+51
	DD	00H
	DD	00H
	DD	00H
	DD	04a989680r			; 5e+006
	DD	000000000r			; 0
	DD	0c61c4000r			; -10000
	DD	04a989680r			; 5e+006
	DD	00H
	DD	00H
	DD	015H
	DD	03f800000r			; 1
	DD	03f800000r			; 1
	DD	00H
	DD	00H
	DD	00H
	ORG $+16
	DB	'cockpit\ugh.wav', 00H
	ORG $+48
	DD	00H
	DD	00H
	DD	00H
	DD	04dbebc20r			; 4e+008
	DD	000000000r			; 0
	DD	0c61c4000r			; -10000
	DD	04dbebc20r			; 4e+008
	DD	00H
	DD	00H
	DD	01H
	DD	03f800000r			; 1
	DD	03f800000r			; 1
	DD	08H
	DD	00H
	DD	00H
	ORG $+16
	DB	'twi\Barlock.wav', 00H
	ORG $+48
	DD	00H
	DD	00H
	DD	00H
	DD	04dbebc20r			; 4e+008
	DD	000000000r			; 0
	DD	0c61c4000r			; -10000
	DD	04dbebc20r			; 4e+008
	DD	00H
	DD	00H
	DD	03H
	DD	03f800000r			; 1
	DD	03f800000r			; 1
	DD	02H
	DD	01H
	DD	09H
	ORG $+16
	DB	'twi\Firecan.wav', 00H
	ORG $+48
	DD	00H
	DD	00H
	DD	00H
	DD	04dbebc20r			; 4e+008
	DD	000000000r			; 0
	DD	0c61c4000r			; -10000
	DD	04dbebc20r			; 4e+008
	DD	00H
	DD	00H
	DD	03H
	DD	03f800000r			; 1
	DD	03f800000r			; 1
	DD	02H
	DD	01H
	DD	03H
	ORG $+16
	DB	'twi\flatface.wav', 00H
	ORG $+47
	DD	00H
	DD	00H
	DD	00H
	DD	04dbebc20r			; 4e+008
	DD	000000000r			; 0
	DD	0c61c4000r			; -10000
	DD	04dbebc20r			; 4e+008
	DD	00H
	DD	00H
	DD	03H
	DD	03f800000r			; 1
	DD	03f800000r			; 1
	DD	02H
	DD	01H
	DD	01H
	ORG $+16
	DB	'twi\longtrak.wav', 00H
	ORG $+47
	DD	00H
	DD	00H
	DD	00H
	DD	04dbebc20r			; 4e+008
	DD	000000000r			; 0
	DD	0c61c4000r			; -10000
	DD	04dbebc20r			; 4e+008
	DD	00H
	DD	00H
	DD	03H
	DD	03f800000r			; 1
	DD	03f800000r			; 1
	DD	02H
	DD	01H
	DD	05H
	ORG $+16
	DB	'twi\lowblow.wav', 00H
	ORG $+48
	DD	00H
	DD	00H
	DD	00H
	DD	04dbebc20r			; 4e+008
	DD	000000000r			; 0
	DD	0c61c4000r			; -10000
	DD	04dbebc20r			; 4e+008
	DD	00H
	DD	00H
	DD	03H
	DD	03f800000r			; 1
	DD	03f800000r			; 1
	DD	02H
	DD	01H
	DD	06H
	ORG $+16
	DB	'twi\MPQ54.wav', 00H
	ORG $+50
	DD	00H
	DD	00H
	DD	00H
	DD	04dbebc20r			; 4e+008
	DD	000000000r			; 0
	DD	0c61c4000r			; -10000
	DD	04dbebc20r			; 4e+008
	DD	00H
	DD	00H
	DD	03H
	DD	03f800000r			; 1
	DD	03f800000r			; 1
	DD	02H
	DD	05H
	DD	00H
	ORG $+16
	DB	'twi\MSQ48.wav', 00H
	ORG $+50
	DD	00H
	DD	00H
	DD	00H
	DD	04dbebc20r			; 4e+008
	DD	000000000r			; 0
	DD	0c61c4000r			; -10000
	DD	04dbebc20r			; 4e+008
	DD	00H
	DD	00H
	DD	03H
	DD	03f800000r			; 1
	DD	03f800000r			; 1
	DD	02H
	DD	05H
	DD	03H
	ORG $+16
	DB	'twi\MSQ50.wav', 00H
	ORG $+50
	DD	00H
	DD	00H
	DD	00H
	DD	04dbebc20r			; 4e+008
	DD	000000000r			; 0
	DD	0c61c4000r			; -10000
	DD	04dbebc20r			; 4e+008
	DD	00H
	DD	00H
	DD	03H
	DD	03f800000r			; 1
	DD	03f800000r			; 1
	DD	02H
	DD	05H
	DD	04H
	ORG $+16
	DB	'twi\spoonrst.wav', 00H
	ORG $+47
	DD	00H
	DD	00H
	DD	00H
	DD	04dbebc20r			; 4e+008
	DD	000000000r			; 0
	DD	0c61c4000r			; -10000
	DD	04dbebc20r			; 4e+008
	DD	00H
	DD	00H
	DD	03H
	DD	03f800000r			; 1
	DD	03f800000r			; 1
	DD	02H
	DD	01H
	DD	07H
	ORG $+16
	DB	'twi\Tps63.wav', 00H
	ORG $+50
	DD	00H
	DD	00H
	DD	00H
	DD	04dbebc20r			; 4e+008
	DD	000000000r			; 0
	DD	0c61c4000r			; -10000
	DD	04dbebc20r			; 4e+008
	DD	00H
	DD	00H
	DD	03H
	DD	03f800000r			; 1
	DD	03f800000r			; 1
	DD	02H
	DD	05H
	DD	0aH
	ORG $+16
	DB	'twi\f16.wav', 00H
	ORG $+52
	DD	00H
	DD	00H
	DD	00H
	DD	04dbebc20r			; 4e+008
	DD	000000000r			; 0
	DD	0c61c4000r			; -10000
	DD	04dbebc20r			; 4e+008
	DD	00H
	DD	00H
	DD	03H
	DD	03f800000r			; 1
	DD	03f800000r			; 1
	DD	02H
	DD	06H
	DD	05H
	ORG $+16
	DB	'twi\spy1a.wav', 00H
	ORG $+50
	DD	00H
	DD	00H
	DD	00H
	DD	04dbebc20r			; 4e+008
	DD	000000000r			; 0
	DD	0c61c4000r			; -10000
	DD	04dbebc20r			; 4e+008
	DD	00H
	DD	00H
	DD	03H
	DD	03f800000r			; 1
	DD	03f800000r			; 1
	DD	02H
	DD	05H
	DD	05H
	ORG $+16
	DB	'twi\gundish.wav', 00H
	ORG $+48
	DD	00H
	DD	00H
	DD	00H
	DD	04dbebc20r			; 4e+008
	DD	000000000r			; 0
	DD	0c61c4000r			; -10000
	DD	04dbebc20r			; 4e+008
	DD	00H
	DD	00H
	DD	03H
	DD	03f800000r			; 1
	DD	03f800000r			; 1
	DD	02H
	DD	01H
	DD	08H
	ORG $+16
	DB	'twi\amraam.wav', 00H
	ORG $+49
	DD	00H
	DD	00H
	DD	00H
	DD	04dbebc20r			; 4e+008
	DD	000000000r			; 0
	DD	0c61c4000r			; -10000
	DD	04dbebc20r			; 4e+008
	DD	00H
	DD	00H
	DD	03H
	DD	03f800000r			; 1
	DD	03f800000r			; 1
	DD	02H
	DD	08H
	DD	01H
	ORG $+16
	DB	'twi\phoenix.wav', 00H
	ORG $+48
	DD	00H
	DD	00H
	DD	00H
	DD	04dbebc20r			; 4e+008
	DD	000000000r			; 0
	DD	0c61c4000r			; -10000
	DD	04dbebc20r			; 4e+008
	DD	00H
	DD	00H
	DD	03H
	DD	03f800000r			; 1
	DD	03f800000r			; 1
	DD	02H
	DD	08H
	DD	02H
	ORG $+16
	DB	'cockpit\lspdtone.wav', 00H
	ORG $+43
	DD	00H
	DD	00H
	DD	00H
	DD	04dbebc20r			; 4e+008
	DD	000000000r			; 0
	DD	0c61c4000r			; -10000
	DD	04dbebc20r			; 4e+008
	DD	00H
	DD	00H
	DD	03H
	DD	03f800000r			; 1
	DD	03f800000r			; 1
	DD	08H
	DD	00H
	DD	00H
	ORG $+16
	DB	'tlscrape.wav', 00H
	ORG $+51
	DD	00H
	DD	00H
	DD	00H
	DD	04a742400r			; 4e+006
	DD	000000000r			; 0
	DD	0c61c4000r			; -10000
	DD	04a742400r			; 4e+006
	DD	00H
	DD	00H
	DD	033H
	DD	03f800000r			; 1
	DD	03f800000r			; 1
	DD	08H
	DD	00H
	DD	00H
	ORG $+16
	DB	'rumble.wav', 00H
	ORG $+53
	DD	00H
	DD	00H
	DD	00H
	DD	04dbebc20r			; 4e+008
	DD	000000000r			; 0
	DD	0c61c4000r			; -10000
	DD	04dbebc20r			; 4e+008
	DD	00H
	DD	00H
	DD	033H
	DD	03f800000r			; 1
	DD	03f800000r			; 1
	DD	05H
	DD	00H
	DD	00H
	ORG $+16
	DB	'rumbshrt.wav', 00H
	ORG $+51
	DD	00H
	DD	00H
	DD	00H
	DD	04dbebc20r			; 4e+008
	DD	000000000r			; 0
	DD	0c61c4000r			; -10000
	DD	04dbebc20r			; 4e+008
	DD	00H
	DD	00H
	DD	023H
	DD	03f800000r			; 1
	DD	03f800000r			; 1
	DD	05H
	DD	00H
	DD	00H
	ORG $+16
	DB	'thump2.wav', 00H
	ORG $+53
	DD	00H
	DD	00H
	DD	00H
	DD	04dbebc20r			; 4e+008
	DD	000000000r			; 0
	DD	0c61c4000r			; -10000
	DD	04dbebc20r			; 4e+008
	DD	00H
	DD	00H
	DD	031H
	DD	03f800000r			; 1
	DD	03f800000r			; 1
	DD	05H
	DD	00H
	DD	00H
	ORG $+16
	DB	'TireSqueal.wav', 00H
	ORG $+49
	DD	00H
	DD	00H
	DD	00H
	DD	04dbebc20r			; 4e+008
	DD	000000000r			; 0
	DD	0c61c4000r			; -10000
	DD	04dbebc20r			; 4e+008
	DD	00H
	DD	00H
	DD	033H
	DD	03f800000r			; 1
	DD	03f800000r			; 1
	DD	05H
	DD	00H
	DD	00H
	ORG $+16
	DB	'hit1.wav', 00H
	ORG $+55
	DD	00H
	DD	00H
	DD	00H
	DD	04dbebc20r			; 4e+008
	DD	000000000r			; 0
	DD	0c61c4000r			; -10000
	DD	04dbebc20r			; 4e+008
	DD	00H
	DD	00H
	DD	011H
	DD	03f800000r			; 1
	DD	03f800000r			; 1
	DD	05H
	DD	00H
	DD	00H
	ORG $+16
	DB	'hit2.wav', 00H
	ORG $+55
	DD	00H
	DD	00H
	DD	00H
	DD	04dbebc20r			; 4e+008
	DD	000000000r			; 0
	DD	0c61c4000r			; -10000
	DD	04dbebc20r			; 4e+008
	DD	00H
	DD	00H
	DD	031H
	DD	03f800000r			; 1
	DD	03f800000r			; 1
	DD	05H
	DD	00H
	DD	00H
	ORG $+16
	DB	'hit3.wav', 00H
	ORG $+55
	DD	00H
	DD	00H
	DD	00H
	DD	04dbebc20r			; 4e+008
	DD	000000000r			; 0
	DD	0c61c4000r			; -10000
	DD	04dbebc20r			; 4e+008
	DD	00H
	DD	00H
	DD	031H
	DD	03f800000r			; 1
	DD	03f800000r			; 1
	DD	05H
	DD	00H
	DD	00H
	ORG $+16
	DB	'hit4.wav', 00H
	ORG $+55
	DD	00H
	DD	00H
	DD	00H
	DD	04dbebc20r			; 4e+008
	DD	000000000r			; 0
	DD	0c61c4000r			; -10000
	DD	04dbebc20r			; 4e+008
	DD	00H
	DD	00H
	DD	031H
	DD	03f800000r			; 1
	DD	03f800000r			; 1
	DD	05H
	DD	00H
	DD	00H
	ORG $+16
	DB	'hit5.wav', 00H
	ORG $+55
	DD	00H
	DD	00H
	DD	00H
	DD	04dbebc20r			; 4e+008
	DD	000000000r			; 0
	DD	0c61c4000r			; -10000
	DD	04dbebc20r			; 4e+008
	DD	00H
	DD	00H
	DD	031H
	DD	03f800000r			; 1
	DD	03f800000r			; 1
	DD	05H
	DD	00H
	DD	00H
	ORG $+16
	DB	'GroundCrunch.wav', 00H
	ORG $+47
	DD	00H
	DD	00H
	DD	00H
	DD	04dbebc20r			; 4e+008
	DD	000000000r			; 0
	DD	0c61c4000r			; -10000
	DD	04dbebc20r			; 4e+008
	DD	00H
	DD	00H
	DD	015H
	DD	03f800000r			; 1
	DD	03f800000r			; 1
	DD	05H
	DD	00H
	DD	00H
	ORG $+16
	DB	'c130.wav', 00H
	ORG $+55
	DD	00H
	DD	00H
	DD	00H
	DD	04dbebc20r			; 4e+008
	DD	000000000r			; 0
	DD	0c61c4000r			; -10000
	DD	04dbebc20r			; 4e+008
	DD	00H
	DD	00H
	DD	0b5H
	DD	03f800000r			; 1
	DD	03f800000r			; 1
	DD	00H
	DD	00H
	DD	00H
	ORG $+16
	DB	'counter.wav', 00H
	ORG $+52
	DD	00H
	DD	00H
	DD	00H
	DD	04dbebc20r			; 4e+008
	DD	000000000r			; 0
	DD	0c61c4000r			; -10000
	DD	04dbebc20r			; 4e+008
	DD	00H
	DD	00H
	DD	09H
	DD	03f800000r			; 1
	DD	03f800000r			; 1
	DD	08H
	DD	00H
	DD	00H
	ORG $+16
	DB	'ship.wav', 00H
	ORG $+55
	DD	00H
	DD	00H
	DD	00H
	DD	04b189680r			; 1e+007
	DD	000000000r			; 0
	DD	0c5fa0000r			; -8000
	DD	04b189680r			; 1e+007
	DD	00H
	DD	00H
	DD	017H
	DD	03f800000r			; 1
	DD	03f800000r			; 1
	DD	00H
	DD	00H
	DD	00H
	ORG $+16
	DB	'nocage.wav', 00H
	ORG $+53
	DD	00H
	DD	00H
	DD	00H
	DD	049742400r			; 1e+006
	DD	000000000r			; 0
	DD	0c61c4000r			; -10000
	DD	049742400r			; 1e+006
	DD	00H
	DD	00H
	DD	0b3H
	DD	03f800000r			; 1
	DD	03f800000r			; 1
	DD	01H
	DD	00H
	DD	00H
	ORG $+16
	DB	'Chaflare.wav', 00H
	ORG $+51
	DD	00H
	DD	00H
	DD	00H
	DD	04dbebc20r			; 4e+008
	DD	000000000r			; 0
	DD	0c61c4000r			; -10000
	DD	04dbebc20r			; 4e+008
	DD	00H
	DD	00H
	DD	09H
	DD	03f800000r			; 1
	DD	03f800000r			; 1
	DD	08H
	DD	00H
	DD	00H
	ORG $+16
	DB	'Chaflarelow.wav', 00H
	ORG $+48
	DD	00H
	DD	00H
	DD	00H
	DD	04dbebc20r			; 4e+008
	DD	000000000r			; 0
	DD	0c61c4000r			; -10000
	DD	04dbebc20r			; 4e+008
	DD	00H
	DD	00H
	DD	09H
	DD	03f800000r			; 1
	DD	03f800000r			; 1
	DD	08H
	DD	00H
	DD	00H
	ORG $+16
	DB	'Chaflareout.wav', 00H
	ORG $+48
	DD	00H
	DD	00H
	DD	00H
	DD	04dbebc20r			; 4e+008
	DD	000000000r			; 0
	DD	0c61c4000r			; -10000
	DD	04dbebc20r			; 4e+008
	DD	00H
	DD	00H
	DD	09H
	DD	03f800000r			; 1
	DD	03f800000r			; 1
	DD	08H
	DD	00H
	DD	00H
	ORG $+16
	DB	'Aim9Envg.wav', 00H
	ORG $+51
	DD	00H
	DD	00H
	DD	00H
	DD	049742400r			; 1e+006
	DD	000000000r			; 0
	DD	0c61c4000r			; -10000
	DD	049742400r			; 1e+006
	DD	00H
	DD	00H
	DD	023H
	DD	03f800000r			; 1
	DD	03f800000r			; 1
	DD	01H
	DD	00H
	DD	00H
	ORG $+16
	DB	'Aim9Envs.wav', 00H
	ORG $+51
	DD	00H
	DD	00H
	DD	00H
	DD	049742400r			; 1e+006
	DD	000000000r			; 0
	DD	0c61c4000r			; -10000
	DD	049742400r			; 1e+006
	DD	00H
	DD	00H
	DD	023H
	DD	03f800000r			; 1
	DD	03f800000r			; 1
	DD	01H
	DD	00H
	DD	00H
	ORG $+16
	DB	'thunder.wav', 00H
	ORG $+52
	DD	00H
	DD	00H
	DD	00H
	DD	04dbebc20r			; 4e+008
	DD	000000000r			; 0
	DD	0c61c4000r			; -10000
	DD	04b189680r			; 1e+007
	DD	00H
	DD	00H
	DD	015H
	DD	03f800000r			; 1
	DD	03f800000r			; 1
	DD	05H
	DD	00H
	DD	00H
	DD	0461c4000r			; 10000
	ORG $+12
	DB	'rainint.wav', 00H
	ORG $+52
	DD	00H
	DD	00H
	DD	00H
	DD	0471c4000r			; 40000
	DD	000000000r			; 0
	DD	0c61c4000r			; -10000
	DD	04b189680r			; 1e+007
	DD	00H
	DD	00H
	DD	033H
	DD	03f800000r			; 1
	DD	03f800000r			; 1
	DD	05H
	DD	00H
	DD	00H
	DD	000000000r			; 0
	ORG $+12
	DB	'rainext.wav', 00H
	ORG $+52
	DD	00H
	DD	00H
	DD	00H
	DD	0471c4000r			; 40000
	DD	000000000r			; 0
	DD	0c61c4000r			; -10000
	DD	04b189680r			; 1e+007
	DD	00H
	DD	00H
	DD	037H
	DD	03f800000r			; 1
	DD	03f800000r			; 1
	DD	05H
	DD	00H
	DD	00H
	DD	000000000r			; 0
	ORG $+12
	DB	'groan1.wav', 00H
	ORG $+53
	DD	00H
	DD	00H
	DD	00H
	DD	0471c4000r			; 40000
	DD	000000000r			; 0
	DD	0c61c4000r			; -10000
	DD	04b189680r			; 1e+007
	DD	00H
	DD	00H
	DD	023H
	DD	03f800000r			; 1
	DD	03f800000r			; 1
	DD	05H
	DD	00H
	DD	00H
	DD	000000000r			; 0
	ORG $+12
	DB	'groan2.wav', 00H
	ORG $+53
	DD	00H
	DD	00H
	DD	00H
	DD	0471c4000r			; 40000
	DD	000000000r			; 0
	DD	0c61c4000r			; -10000
	DD	04b189680r			; 1e+007
	DD	00H
	DD	00H
	DD	023H
	DD	03f800000r			; 1
	DD	03f800000r			; 1
	DD	05H
	DD	00H
	DD	00H
	DD	000000000r			; 0
	ORG $+12
	DB	'hookend.wav', 00H
	ORG $+52
	DD	00H
	DD	00H
	DD	00H
	DD	04a989680r			; 5e+006
	DD	000000000r			; 0
	DD	0c61c4000r			; -10000
	DD	04a989680r			; 5e+006
	DD	00H
	DD	00H
	DD	015H
	DD	03f800000r			; 1
	DD	03f800000r			; 1
	DD	00H
	DD	00H
	DD	00H
	ORG $+16
	DB	'hookloop.wav', 00H
	ORG $+51
	DD	00H
	DD	00H
	DD	00H
	DD	04a989680r			; 5e+006
	DD	000000000r			; 0
	DD	0c61c4000r			; -10000
	DD	04a989680r			; 5e+006
	DD	00H
	DD	00H
	DD	017H
	DD	03f800000r			; 1
	DD	03f800000r			; 1
	DD	00H
	DD	00H
	DD	00H
	ORG $+16
	DB	'hookstrt.wav', 00H
	ORG $+51
	DD	00H
	DD	00H
	DD	00H
	DD	04a989680r			; 5e+006
	DD	000000000r			; 0
	DD	0c61c4000r			; -10000
	DD	04a989680r			; 5e+006
	DD	00H
	DD	00H
	DD	015H
	DD	03f800000r			; 1
	DD	03f800000r			; 1
	DD	00H
	DD	00H
	DD	00H
	ORG $+16
	DB	'twi\FLATLIB.wav', 00H
	ORG $+48
	DD	00H
	DD	00H
	DD	00H
	DD	04dbebc20r			; 4e+008
	DD	000000000r			; 0
	DD	0c61c4000r			; -10000
	DD	04dbebc20r			; 4e+008
	DD	00H
	DD	00H
	DD	03H
	DD	03f800000r			; 1
	DD	03f800000r			; 1
	DD	02H
	DD	05H
	DD	04H
	ORG $+16
	DB	'twi\TOMBSTONE.wav', 00H
	ORG $+46
	DD	00H
	DD	00H
	DD	00H
	DD	04dbebc20r			; 4e+008
	DD	000000000r			; 0
	DD	0c61c4000r			; -10000
	DD	04dbebc20r			; 4e+008
	DD	00H
	DD	00H
	DD	03H
	DD	03f800000r			; 1
	DD	03f800000r			; 1
	DD	02H
	DD	05H
	DD	04H
	ORG $+16
	DB	'twi\CLAMSHELL.wav', 00H
	ORG $+46
	DD	00H
	DD	00H
	DD	00H
	DD	04dbebc20r			; 4e+008
	DD	000000000r			; 0
	DD	0c61c4000r			; -10000
	DD	04dbebc20r			; 4e+008
	DD	00H
	DD	00H
	DD	03H
	DD	03f800000r			; 1
	DD	03f800000r			; 1
	DD	02H
	DD	05H
	DD	04H
	ORG $+16
	DB	'twi\BIGBIRD.wav', 00H
	ORG $+48
	DD	00H
	DD	00H
	DD	00H
	DD	04dbebc20r			; 4e+008
	DD	000000000r			; 0
	DD	0c61c4000r			; -10000
	DD	04dbebc20r			; 4e+008
	DD	00H
	DD	00H
	DD	03H
	DD	03f800000r			; 1
	DD	03f800000r			; 1
	DD	02H
	DD	05H
	DD	04H
	ORG $+16
	DB	'twi\SQUATEYE.wav', 00H
	ORG $+47
	DD	00H
	DD	00H
	DD	00H
	DD	04dbebc20r			; 4e+008
	DD	000000000r			; 0
	DD	0c61c4000r			; -10000
	DD	04dbebc20r			; 4e+008
	DD	00H
	DD	00H
	DD	03H
	DD	03f800000r			; 1
	DD	03f800000r			; 1
	DD	02H
	DD	05H
	DD	04H
	ORG $+16
	DB	'twi\TALLKING.wav', 00H
	ORG $+47
	DD	00H
	DD	00H
	DD	00H
	DD	04dbebc20r			; 4e+008
	DD	000000000r			; 0
	DD	0c61c4000r			; -10000
	DD	04dbebc20r			; 4e+008
	DD	00H
	DD	00H
	DD	03H
	DD	03f800000r			; 1
	DD	03f800000r			; 1
	DD	02H
	DD	05H
	DD	04H
	ORG $+16
	DB	'twi\SIDENET.wav', 00H
	ORG $+48
	DD	00H
	DD	00H
	DD	00H
	DD	04dbebc20r			; 4e+008
	DD	000000000r			; 0
	DD	0c61c4000r			; -10000
	DD	04dbebc20r			; 4e+008
	DD	00H
	DD	00H
	DD	03H
	DD	03f800000r			; 1
	DD	03f800000r			; 1
	DD	02H
	DD	05H
	DD	04H
	ORG $+16
	DB	'twi\BACKNET.wav', 00H
	ORG $+48
	DD	00H
	DD	00H
	DD	00H
	DD	04dbebc20r			; 4e+008
	DD	000000000r			; 0
	DD	0c61c4000r			; -10000
	DD	04dbebc20r			; 4e+008
	DD	00H
	DD	00H
	DD	03H
	DD	03f800000r			; 1
	DD	03f800000r			; 1
	DD	02H
	DD	05H
	DD	04H
	ORG $+16
	DB	'twi\KNIFEREST.wav', 00H
	ORG $+46
	DD	00H
	DD	00H
	DD	00H
	DD	04dbebc20r			; 4e+008
	DD	000000000r			; 0
	DD	0c61c4000r			; -10000
	DD	04dbebc20r			; 4e+008
	DD	00H
	DD	00H
	DD	03H
	DD	03f800000r			; 1
	DD	03f800000r			; 1
	DD	02H
	DD	05H
	DD	04H
	ORG $+16
	DB	'twi\GRILLPAN.wav', 00H
	ORG $+47
	DD	00H
	DD	00H
	DD	00H
	DD	04dbebc20r			; 4e+008
	DD	000000000r			; 0
	DD	0c61c4000r			; -10000
	DD	04dbebc20r			; 4e+008
	DD	00H
	DD	00H
	DD	03H
	DD	03f800000r			; 1
	DD	03f800000r			; 1
	DD	02H
	DD	05H
	DD	04H
	ORG $+16
	DB	'twi\BILLBOARD.wav', 00H
	ORG $+46
	DD	00H
	DD	00H
	DD	00H
	DD	04dbebc20r			; 4e+008
	DD	000000000r			; 0
	DD	0c61c4000r			; -10000
	DD	04dbebc20r			; 4e+008
	DD	00H
	DD	00H
	DD	03H
	DD	03f800000r			; 1
	DD	03f800000r			; 1
	DD	02H
	DD	05H
	DD	04H
	ORG $+16
	DB	'twi\HIGHSCREEN.wav', 00H
	ORG $+45
	DD	00H
	DD	00H
	DD	00H
	DD	04dbebc20r			; 4e+008
	DD	000000000r			; 0
	DD	0c61c4000r			; -10000
	DD	04dbebc20r			; 4e+008
	DD	00H
	DD	00H
	DD	03H
	DD	03f800000r			; 1
	DD	03f800000r			; 1
	DD	02H
	DD	05H
	DD	04H
	ORG $+16
	DB	'twi\ODDPAIR.wav', 00H
	ORG $+48
	DD	00H
	DD	00H
	DD	00H
	DD	04dbebc20r			; 4e+008
	DD	000000000r			; 0
	DD	0c61c4000r			; -10000
	DD	04dbebc20r			; 4e+008
	DD	00H
	DD	00H
	DD	03H
	DD	03f800000r			; 1
	DD	03f800000r			; 1
	DD	02H
	DD	05H
	DD	04H
	ORG $+16
	DB	'twi\PATHAND.wav', 00H
	ORG $+48
	DD	00H
	DD	00H
	DD	00H
	DD	04dbebc20r			; 4e+008
	DD	000000000r			; 0
	DD	0c61c4000r			; -10000
	DD	04dbebc20r			; 4e+008
	DD	00H
	DD	00H
	DD	03H
	DD	03f800000r			; 1
	DD	03f800000r			; 1
	DD	02H
	DD	05H
	DD	04H
	ORG $+16
	DB	'twi\THINSKIN.wav', 00H
	ORG $+47
	DD	00H
	DD	00H
	DD	00H
	DD	04dbebc20r			; 4e+008
	DD	000000000r			; 0
	DD	0c61c4000r			; -10000
	DD	04dbebc20r			; 4e+008
	DD	00H
	DD	00H
	DD	03H
	DD	03f800000r			; 1
	DD	03f800000r			; 1
	DD	02H
	DD	05H
	DD	04H
	ORG $+16
	DB	'twi\TINSHIELD.wav', 00H
	ORG $+46
	DD	00H
	DD	00H
	DD	00H
	DD	04dbebc20r			; 4e+008
	DD	000000000r			; 0
	DD	0c61c4000r			; -10000
	DD	04dbebc20r			; 4e+008
	DD	00H
	DD	00H
	DD	03H
	DD	03f800000r			; 1
	DD	03f800000r			; 1
	DD	02H
	DD	05H
	DD	04H
	ORG $+16
	DB	'twi\GINSLING.wav', 00H
	ORG $+47
	DD	00H
	DD	00H
	DD	00H
	DD	04dbebc20r			; 4e+008
	DD	000000000r			; 0
	DD	0c61c4000r			; -10000
	DD	04dbebc20r			; 4e+008
	DD	00H
	DD	00H
	DD	03H
	DD	03f800000r			; 1
	DD	03f800000r			; 1
	DD	02H
	DD	05H
	DD	04H
	ORG $+16
	DB	'twi\FLAPWHEEL.wav', 00H
	ORG $+46
	DD	00H
	DD	00H
	DD	00H
	DD	04dbebc20r			; 4e+008
	DD	000000000r			; 0
	DD	0c61c4000r			; -10000
	DD	04dbebc20r			; 4e+008
	DD	00H
	DD	00H
	DD	03H
	DD	03f800000r			; 1
	DD	03f800000r			; 1
	DD	02H
	DD	05H
	DD	04H
	ORG $+16
	DB	'twi\DOGEAR.wav', 00H
	ORG $+49
	DD	00H
	DD	00H
	DD	00H
	DD	04dbebc20r			; 4e+008
	DD	000000000r			; 0
	DD	0c61c4000r			; -10000
	DD	04dbebc20r			; 4e+008
	DD	00H
	DD	00H
	DD	03H
	DD	03f800000r			; 1
	DD	03f800000r			; 1
	DD	02H
	DD	05H
	DD	04H
	ORG $+16
	DB	'twi\BIGBACK.wav', 00H
	ORG $+48
	DD	00H
	DD	00H
	DD	00H
	DD	04dbebc20r			; 4e+008
	DD	000000000r			; 0
	DD	0c61c4000r			; -10000
	DD	04dbebc20r			; 4e+008
	DD	00H
	DD	00H
	DD	03H
	DD	03f800000r			; 1
	DD	03f800000r			; 1
	DD	02H
	DD	05H
	DD	04H
	ORG $+16
	DB	'twi\BACKTRAP.wav', 00H
	ORG $+47
	DD	00H
	DD	00H
	DD	00H
	DD	04dbebc20r			; 4e+008
	DD	000000000r			; 0
	DD	0c61c4000r			; -10000
	DD	04dbebc20r			; 4e+008
	DD	00H
	DD	00H
	DD	03H
	DD	03f800000r			; 1
	DD	03f800000r			; 1
	DD	02H
	DD	05H
	DD	04H
	ORG $+16
	DB	'mikeclick.wav', 00H
	ORG $+50
	DD	00H
	DD	00H
	DD	00H
	DD	04dbebc20r			; 4e+008
	DD	000000000r			; 0
	DD	0c61c4000r			; -10000
	DD	04dbebc20r			; 4e+008
	DD	00H
	DD	00H
	DD	01H
	DD	03f800000r			; 1
	DD	03f800000r			; 1
	DD	02H
	DD	05H
	DD	04H
	ORG $+16
	DB	'dragchute.wav', 00H
	ORG $+50
	DD	00H
	DD	00H
	DD	00H
	DD	04a989680r			; 5e+006
	DD	000000000r			; 0
	DD	0c61c4000r			; -10000
	DD	04a989680r			; 5e+006
	DD	00H
	DD	00H
	DD	015H
	DD	03f800000r			; 1
	DD	03f800000r			; 1
	DD	05H
	DD	00H
	DD	00H
	ORG $+16
?FALCONSNDTABLE@@3PBDB DD FLAT:??_C@_0N@HBBLGOA@f4sndtbl?4sfx?$AA@ ; FALCONSNDTABLE
?FALCONSNDTABLETXT@@3PBDB DD FLAT:??_C@_0N@CAMLEPCP@f4sndtbl?4txt?$AA@ ; FALCONSNDTABLETXT
_DATA	ENDS
END
