; Listing generated by Microsoft (R) Optimizing Compiler Version 17.00.51106.1 

	TITLE	C:\Users\Zhitao Li\Documents\Visual Studio 2012\Projects\Freefalcon\FalcSnd\voiceFilter.cpp
	.686P
	.XMM
	include listing.inc
	.model	flat

INCLUDELIB LIBCMT
INCLUDELIB OLDNAMES

PUBLIC	?is_signed@?$numeric_limits@F@std@@2_NB		; std::numeric_limits<short>::is_signed
PUBLIC	?digits@?$numeric_limits@F@std@@2HB		; std::numeric_limits<short>::digits
PUBLIC	?digits10@?$numeric_limits@F@std@@2HB		; std::numeric_limits<short>::digits10
PUBLIC	?is_signed@?$numeric_limits@G@std@@2_NB		; std::numeric_limits<unsigned short>::is_signed
PUBLIC	?digits@?$numeric_limits@G@std@@2HB		; std::numeric_limits<unsigned short>::digits
PUBLIC	?digits10@?$numeric_limits@G@std@@2HB		; std::numeric_limits<unsigned short>::digits10
PUBLIC	?value@?$integral_constant@_N$0A@@std@@2_NB	; std::integral_constant<bool,0>::value
PUBLIC	?value@?$integral_constant@_N$00@std@@2_NB	; std::integral_constant<bool,1>::value
PUBLIC	?is_signed@?$numeric_limits@H@std@@2_NB		; std::numeric_limits<int>::is_signed
PUBLIC	?value@?$_Sizeof@HU_Nil@std@@U12@U12@U12@U12@U12@U12@@std@@2IB ; std::_Sizeof<int,std::_Nil,std::_Nil,std::_Nil,std::_Nil,std::_Nil,std::_Nil,std::_Nil>::value
PUBLIC	?digits@?$numeric_limits@H@std@@2HB		; std::numeric_limits<int>::digits
PUBLIC	?digits10@?$numeric_limits@H@std@@2HB		; std::numeric_limits<int>::digits10
PUBLIC	?is_signed@?$numeric_limits@I@std@@2_NB		; std::numeric_limits<unsigned int>::is_signed
PUBLIC	?digits@?$numeric_limits@I@std@@2HB		; std::numeric_limits<unsigned int>::digits
PUBLIC	?digits10@?$numeric_limits@I@std@@2HB		; std::numeric_limits<unsigned int>::digits10
PUBLIC	?is_signed@?$numeric_limits@J@std@@2_NB		; std::numeric_limits<long>::is_signed
PUBLIC	?digits@?$numeric_limits@J@std@@2HB		; std::numeric_limits<long>::digits
PUBLIC	?digits10@?$numeric_limits@J@std@@2HB		; std::numeric_limits<long>::digits10
PUBLIC	?is_signed@?$numeric_limits@K@std@@2_NB		; std::numeric_limits<unsigned long>::is_signed
PUBLIC	?digits@?$numeric_limits@K@std@@2HB		; std::numeric_limits<unsigned long>::digits
PUBLIC	?digits10@?$numeric_limits@K@std@@2HB		; std::numeric_limits<unsigned long>::digits10
PUBLIC	?is_signed@?$numeric_limits@_J@std@@2_NB	; std::numeric_limits<__int64>::is_signed
PUBLIC	?digits@?$numeric_limits@_J@std@@2HB		; std::numeric_limits<__int64>::digits
PUBLIC	?digits10@?$numeric_limits@_J@std@@2HB		; std::numeric_limits<__int64>::digits10
PUBLIC	?is_signed@?$numeric_limits@_K@std@@2_NB	; std::numeric_limits<unsigned __int64>::is_signed
PUBLIC	?digits@?$numeric_limits@_K@std@@2HB		; std::numeric_limits<unsigned __int64>::digits
PUBLIC	?digits10@?$numeric_limits@_K@std@@2HB		; std::numeric_limits<unsigned __int64>::digits10
PUBLIC	?digits@?$numeric_limits@M@std@@2HB		; std::numeric_limits<float>::digits
PUBLIC	?digits10@?$numeric_limits@M@std@@2HB		; std::numeric_limits<float>::digits10
PUBLIC	?max_digits10@?$numeric_limits@M@std@@2HB	; std::numeric_limits<float>::max_digits10
PUBLIC	?max_exponent@?$numeric_limits@M@std@@2HB	; std::numeric_limits<float>::max_exponent
PUBLIC	?max_exponent10@?$numeric_limits@M@std@@2HB	; std::numeric_limits<float>::max_exponent10
PUBLIC	?min_exponent@?$numeric_limits@M@std@@2HB	; std::numeric_limits<float>::min_exponent
PUBLIC	?min_exponent10@?$numeric_limits@M@std@@2HB	; std::numeric_limits<float>::min_exponent10
PUBLIC	?value@?$integral_constant@I$0A@@std@@2IB	; std::integral_constant<unsigned int,0>::value
PUBLIC	?digits@?$numeric_limits@N@std@@2HB		; std::numeric_limits<double>::digits
PUBLIC	?digits10@?$numeric_limits@N@std@@2HB		; std::numeric_limits<double>::digits10
PUBLIC	?max_digits10@?$numeric_limits@N@std@@2HB	; std::numeric_limits<double>::max_digits10
PUBLIC	?max_exponent@?$numeric_limits@N@std@@2HB	; std::numeric_limits<double>::max_exponent
PUBLIC	?max_exponent10@?$numeric_limits@N@std@@2HB	; std::numeric_limits<double>::max_exponent10
PUBLIC	?min_exponent@?$numeric_limits@N@std@@2HB	; std::numeric_limits<double>::min_exponent
PUBLIC	?min_exponent10@?$numeric_limits@N@std@@2HB	; std::numeric_limits<double>::min_exponent10
PUBLIC	?skipws@?$_Iosb@H@std@@2W4_Fmtflags@12@B	; std::_Iosb<int>::skipws
PUBLIC	?unitbuf@?$_Iosb@H@std@@2W4_Fmtflags@12@B	; std::_Iosb<int>::unitbuf
PUBLIC	?uppercase@?$_Iosb@H@std@@2W4_Fmtflags@12@B	; std::_Iosb<int>::uppercase
PUBLIC	?showbase@?$_Iosb@H@std@@2W4_Fmtflags@12@B	; std::_Iosb<int>::showbase
PUBLIC	?showpoint@?$_Iosb@H@std@@2W4_Fmtflags@12@B	; std::_Iosb<int>::showpoint
PUBLIC	?showpos@?$_Iosb@H@std@@2W4_Fmtflags@12@B	; std::_Iosb<int>::showpos
PUBLIC	?left@?$_Iosb@H@std@@2W4_Fmtflags@12@B		; std::_Iosb<int>::left
PUBLIC	?digits@?$numeric_limits@O@std@@2HB		; std::numeric_limits<long double>::digits
PUBLIC	?right@?$_Iosb@H@std@@2W4_Fmtflags@12@B		; std::_Iosb<int>::right
PUBLIC	?digits10@?$numeric_limits@O@std@@2HB		; std::numeric_limits<long double>::digits10
PUBLIC	?internal@?$_Iosb@H@std@@2W4_Fmtflags@12@B	; std::_Iosb<int>::internal
PUBLIC	?max_digits10@?$numeric_limits@O@std@@2HB	; std::numeric_limits<long double>::max_digits10
PUBLIC	?dec@?$_Iosb@H@std@@2W4_Fmtflags@12@B		; std::_Iosb<int>::dec
PUBLIC	?max_exponent@?$numeric_limits@O@std@@2HB	; std::numeric_limits<long double>::max_exponent
PUBLIC	?oct@?$_Iosb@H@std@@2W4_Fmtflags@12@B		; std::_Iosb<int>::oct
PUBLIC	?hex@?$_Iosb@H@std@@2W4_Fmtflags@12@B		; std::_Iosb<int>::hex
PUBLIC	?max_exponent10@?$numeric_limits@O@std@@2HB	; std::numeric_limits<long double>::max_exponent10
PUBLIC	?scientific@?$_Iosb@H@std@@2W4_Fmtflags@12@B	; std::_Iosb<int>::scientific
PUBLIC	?min_exponent@?$numeric_limits@O@std@@2HB	; std::numeric_limits<long double>::min_exponent
PUBLIC	?fixed@?$_Iosb@H@std@@2W4_Fmtflags@12@B		; std::_Iosb<int>::fixed
PUBLIC	?min_exponent10@?$numeric_limits@O@std@@2HB	; std::numeric_limits<long double>::min_exponent10
PUBLIC	?hexfloat@?$_Iosb@H@std@@2W4_Fmtflags@12@B	; std::_Iosb<int>::hexfloat
PUBLIC	?boolalpha@?$_Iosb@H@std@@2W4_Fmtflags@12@B	; std::_Iosb<int>::boolalpha
PUBLIC	?_Stdio@?$_Iosb@H@std@@2W4_Fmtflags@12@B	; std::_Iosb<int>::_Stdio
PUBLIC	?adjustfield@?$_Iosb@H@std@@2W4_Fmtflags@12@B	; std::_Iosb<int>::adjustfield
PUBLIC	?basefield@?$_Iosb@H@std@@2W4_Fmtflags@12@B	; std::_Iosb<int>::basefield
PUBLIC	?floatfield@?$_Iosb@H@std@@2W4_Fmtflags@12@B	; std::_Iosb<int>::floatfield
PUBLIC	?goodbit@?$_Iosb@H@std@@2W4_Iostate@12@B	; std::_Iosb<int>::goodbit
PUBLIC	?eofbit@?$_Iosb@H@std@@2W4_Iostate@12@B		; std::_Iosb<int>::eofbit
PUBLIC	?failbit@?$_Iosb@H@std@@2W4_Iostate@12@B	; std::_Iosb<int>::failbit
PUBLIC	?badbit@?$_Iosb@H@std@@2W4_Iostate@12@B		; std::_Iosb<int>::badbit
PUBLIC	?_Hardfail@?$_Iosb@H@std@@2W4_Iostate@12@B	; std::_Iosb<int>::_Hardfail
PUBLIC	?in@?$_Iosb@H@std@@2W4_Openmode@12@B		; std::_Iosb<int>::in
PUBLIC	?out@?$_Iosb@H@std@@2W4_Openmode@12@B		; std::_Iosb<int>::out
PUBLIC	?ate@?$_Iosb@H@std@@2W4_Openmode@12@B		; std::_Iosb<int>::ate
PUBLIC	?app@?$_Iosb@H@std@@2W4_Openmode@12@B		; std::_Iosb<int>::app
PUBLIC	?trunc@?$_Iosb@H@std@@2W4_Openmode@12@B		; std::_Iosb<int>::trunc
PUBLIC	?_Nocreate@?$_Iosb@H@std@@2W4_Openmode@12@B	; std::_Iosb<int>::_Nocreate
PUBLIC	?_Noreplace@?$_Iosb@H@std@@2W4_Openmode@12@B	; std::_Iosb<int>::_Noreplace
PUBLIC	?binary@?$_Iosb@H@std@@2W4_Openmode@12@B	; std::_Iosb<int>::binary
PUBLIC	?beg@?$_Iosb@H@std@@2W4_Seekdir@12@B		; std::_Iosb<int>::beg
PUBLIC	?cur@?$_Iosb@H@std@@2W4_Seekdir@12@B		; std::_Iosb<int>::cur
PUBLIC	?end@?$_Iosb@H@std@@2W4_Seekdir@12@B		; std::_Iosb<int>::end
PUBLIC	?_Stream_err@failure@ios_base@std@@0W4io_errc@43@B ; std::ios_base::failure::_Stream_err
PUBLIC	?value@?$_Sizeof@U_Nil@std@@U12@U12@U12@U12@U12@U12@U12@@std@@2IB ; std::_Sizeof<std::_Nil,std::_Nil,std::_Nil,std::_Nil,std::_Nil,std::_Nil,std::_Nil,std::_Nil>::value
PUBLIC	?RadioStrings@@3PAPADA				; RadioStrings
PUBLIC	?has_denorm@_Num_base@std@@2W4float_denorm_style@2@B ; std::_Num_base::has_denorm
PUBLIC	?has_denorm_loss@_Num_base@std@@2_NB		; std::_Num_base::has_denorm_loss
PUBLIC	?has_infinity@_Num_base@std@@2_NB		; std::_Num_base::has_infinity
PUBLIC	?has_quiet_NaN@_Num_base@std@@2_NB		; std::_Num_base::has_quiet_NaN
PUBLIC	?has_signaling_NaN@_Num_base@std@@2_NB		; std::_Num_base::has_signaling_NaN
PUBLIC	?is_bounded@_Num_base@std@@2_NB			; std::_Num_base::is_bounded
PUBLIC	?is_exact@_Num_base@std@@2_NB			; std::_Num_base::is_exact
PUBLIC	?is_iec559@_Num_base@std@@2_NB			; std::_Num_base::is_iec559
PUBLIC	?is_integer@_Num_base@std@@2_NB			; std::_Num_base::is_integer
PUBLIC	??_C@_03MPPIHBHJ@OFF?$AA@			; `string'
PUBLIC	??_C@_07MHEINKAA@FLIGHT1?$AA@			; `string'
PUBLIC	?is_modulo@_Num_base@std@@2_NB			; std::_Num_base::is_modulo
PUBLIC	??_C@_07OMGFIJMD@FLIGHT2?$AA@			; `string'
PUBLIC	??_C@_07PFHOLIIC@FLIGHT3?$AA@			; `string'
PUBLIC	??_C@_07LKDPCOEF@FLIGHT4?$AA@			; `string'
PUBLIC	?is_signed@_Num_base@std@@2_NB			; std::_Num_base::is_signed
PUBLIC	??_C@_07KDCEBPAE@FLIGHT5?$AA@			; `string'
PUBLIC	??_C@_08ENLDKEPL@PACKAGE1?$AA@			; `string'
PUBLIC	??_C@_08GGJOPHDI@PACKAGE2?$AA@			; `string'
PUBLIC	?is_specialized@_Num_base@std@@2_NB		; std::_Num_base::is_specialized
PUBLIC	??_C@_08HPIFMGHJ@PACKAGE3?$AA@			; `string'
PUBLIC	??_C@_08DAMEFALO@PACKAGE4?$AA@			; `string'
PUBLIC	??_C@_08CJNPGBPP@PACKAGE5?$AA@			; `string'
PUBLIC	?tinyness_before@_Num_base@std@@2_NB		; std::_Num_base::tinyness_before
PUBLIC	??_C@_0N@FLGAFDMO@FROM?5PACKAGE?$AA@		; `string'
PUBLIC	??_C@_09HHKGLPDK@PROXIMITY?$AA@			; `string'
PUBLIC	??_C@_05HEBGGLLE@GUARD?$AA@			; `string'
PUBLIC	?traps@_Num_base@std@@2_NB			; std::_Num_base::traps
PUBLIC	??_C@_09NAEANKGK@BROADCAST?$AA@			; `string'
PUBLIC	??_C@_05KLIHJMMD@TOWER?$AA@			; `string'
PUBLIC	?round_style@_Num_base@std@@2W4float_round_style@2@B ; std::_Num_base::round_style
PUBLIC	?digits@_Num_base@std@@2HB			; std::_Num_base::digits
PUBLIC	?digits10@_Num_base@std@@2HB			; std::_Num_base::digits10
PUBLIC	?max_digits10@_Num_base@std@@2HB		; std::_Num_base::max_digits10
PUBLIC	?max_exponent@_Num_base@std@@2HB		; std::_Num_base::max_exponent
PUBLIC	?max_exponent10@_Num_base@std@@2HB		; std::_Num_base::max_exponent10
PUBLIC	?min_exponent@_Num_base@std@@2HB		; std::_Num_base::min_exponent
PUBLIC	?VToolMsgData@@3UVoiceToolData@@A		; VToolMsgData
PUBLIC	?min_exponent10@_Num_base@std@@2HB		; std::_Num_base::min_exponent10
PUBLIC	?evalLastFrag@@3PAFA				; evalLastFrag
PUBLIC	?fragsPlayed@@3PADA				; fragsPlayed
PUBLIC	?voice_@@3HA					; voice_
PUBLIC	?radix@_Num_base@std@@2HB			; std::_Num_base::radix
PUBLIC	?is_bounded@_Num_int_base@std@@2_NB		; std::_Num_int_base::is_bounded
PUBLIC	?is_exact@_Num_int_base@std@@2_NB		; std::_Num_int_base::is_exact
PUBLIC	?is_integer@_Num_int_base@std@@2_NB		; std::_Num_int_base::is_integer
PUBLIC	?is_modulo@_Num_int_base@std@@2_NB		; std::_Num_int_base::is_modulo
PUBLIC	?is_specialized@_Num_int_base@std@@2_NB		; std::_Num_int_base::is_specialized
PUBLIC	?radix@_Num_int_base@std@@2HB			; std::_Num_int_base::radix
PUBLIC	?has_denorm@_Num_float_base@std@@2W4float_denorm_style@2@B ; std::_Num_float_base::has_denorm
PUBLIC	?has_denorm_loss@_Num_float_base@std@@2_NB	; std::_Num_float_base::has_denorm_loss
PUBLIC	?SIMDIRTYDATA_INTERVAL@FalconEntity@@2KB	; FalconEntity::SIMDIRTYDATA_INTERVAL
PUBLIC	?CMPDIRTYDATA_INTERVAL@FalconEntity@@2KB	; FalconEntity::CMPDIRTYDATA_INTERVAL
PUBLIC	?has_infinity@_Num_float_base@std@@2_NB		; std::_Num_float_base::has_infinity
PUBLIC	?has_quiet_NaN@_Num_float_base@std@@2_NB	; std::_Num_float_base::has_quiet_NaN
PUBLIC	?has_signaling_NaN@_Num_float_base@std@@2_NB	; std::_Num_float_base::has_signaling_NaN
PUBLIC	?is_bounded@_Num_float_base@std@@2_NB		; std::_Num_float_base::is_bounded
PUBLIC	?is_exact@_Num_float_base@std@@2_NB		; std::_Num_float_base::is_exact
PUBLIC	?is_iec559@_Num_float_base@std@@2_NB		; std::_Num_float_base::is_iec559
PUBLIC	?is_integer@_Num_float_base@std@@2_NB		; std::_Num_float_base::is_integer
PUBLIC	?is_modulo@_Num_float_base@std@@2_NB		; std::_Num_float_base::is_modulo
PUBLIC	?is_signed@_Num_float_base@std@@2_NB		; std::_Num_float_base::is_signed
PUBLIC	?is_specialized@_Num_float_base@std@@2_NB	; std::_Num_float_base::is_specialized
PUBLIC	?tinyness_before@_Num_float_base@std@@2_NB	; std::_Num_float_base::tinyness_before
PUBLIC	?traps@_Num_float_base@std@@2_NB		; std::_Num_float_base::traps
PUBLIC	?round_style@_Num_float_base@std@@2W4float_round_style@2@B ; std::_Num_float_base::round_style
PUBLIC	?radix@_Num_float_base@std@@2HB			; std::_Num_float_base::radix
PUBLIC	?collate@?$_Locbase@H@std@@2HB			; std::_Locbase<int>::collate
PUBLIC	?ctype@?$_Locbase@H@std@@2HB			; std::_Locbase<int>::ctype
PUBLIC	?monetary@?$_Locbase@H@std@@2HB			; std::_Locbase<int>::monetary
PUBLIC	?numeric@?$_Locbase@H@std@@2HB			; std::_Locbase<int>::numeric
PUBLIC	?time@?$_Locbase@H@std@@2HB			; std::_Locbase<int>::time
PUBLIC	?messages@?$_Locbase@H@std@@2HB			; std::_Locbase<int>::messages
PUBLIC	?all@?$_Locbase@H@std@@2HB			; std::_Locbase<int>::all
PUBLIC	?none@?$_Locbase@H@std@@2HB			; std::_Locbase<int>::none
PUBLIC	?is_signed@?$numeric_limits@D@std@@2_NB		; std::numeric_limits<char>::is_signed
PUBLIC	?digits@?$numeric_limits@D@std@@2HB		; std::numeric_limits<char>::digits
PUBLIC	?digits10@?$numeric_limits@D@std@@2HB		; std::numeric_limits<char>::digits10
PUBLIC	?VM@@3PAVVoiceManager@@A			; VM
PUBLIC	?is_signed@?$numeric_limits@_W@std@@2_NB	; std::numeric_limits<wchar_t>::is_signed
PUBLIC	?digits@?$numeric_limits@_W@std@@2HB		; std::numeric_limits<wchar_t>::digits
PUBLIC	?digits10@?$numeric_limits@_W@std@@2HB		; std::numeric_limits<wchar_t>::digits10
PUBLIC	?is_modulo@?$numeric_limits@_N@std@@2_NB	; std::numeric_limits<bool>::is_modulo
PUBLIC	?is_signed@?$numeric_limits@_N@std@@2_NB	; std::numeric_limits<bool>::is_signed
PUBLIC	?digits@?$numeric_limits@_N@std@@2HB		; std::numeric_limits<bool>::digits
PUBLIC	?digits10@?$numeric_limits@_N@std@@2HB		; std::numeric_limits<bool>::digits10
PUBLIC	?table_size@?$ctype@D@std@@2IB			; std::ctype<char>::table_size
PUBLIC	?is_signed@?$numeric_limits@C@std@@2_NB		; std::numeric_limits<signed char>::is_signed
PUBLIC	?digits@?$numeric_limits@C@std@@2HB		; std::numeric_limits<signed char>::digits
PUBLIC	?digits10@?$numeric_limits@C@std@@2HB		; std::numeric_limits<signed char>::digits10
PUBLIC	?is_signed@?$numeric_limits@E@std@@2_NB		; std::numeric_limits<unsigned char>::is_signed
PUBLIC	?digits@?$numeric_limits@E@std@@2HB		; std::numeric_limits<unsigned char>::digits
PUBLIC	?digits10@?$numeric_limits@E@std@@2HB		; std::numeric_limits<unsigned char>::digits10
_BSS	SEGMENT
?VToolMsgData@@3UVoiceToolData@@A DB 08cH DUP (?)	; VToolMsgData
?evalLastFrag@@3PAFA DD 01H DUP (?)			; evalLastFrag
?fragsPlayed@@3PADA DD 01H DUP (?)			; fragsPlayed
?voice_@@3HA DD	01H DUP (?)				; voice_
?VM@@3PAVVoiceManager@@A DD 01H DUP (?)			; VM
_BSS	ENDS
;	COMDAT ?digits10@?$numeric_limits@E@std@@2HB
CONST	SEGMENT
?digits10@?$numeric_limits@E@std@@2HB DD 02H		; std::numeric_limits<unsigned char>::digits10
CONST	ENDS
;	COMDAT ?digits@?$numeric_limits@E@std@@2HB
CONST	SEGMENT
?digits@?$numeric_limits@E@std@@2HB DD 08H		; std::numeric_limits<unsigned char>::digits
CONST	ENDS
;	COMDAT ?is_signed@?$numeric_limits@E@std@@2_NB
CONST	SEGMENT
?is_signed@?$numeric_limits@E@std@@2_NB DB 00H		; std::numeric_limits<unsigned char>::is_signed
CONST	ENDS
;	COMDAT ?digits10@?$numeric_limits@C@std@@2HB
CONST	SEGMENT
?digits10@?$numeric_limits@C@std@@2HB DD 02H		; std::numeric_limits<signed char>::digits10
CONST	ENDS
;	COMDAT ?digits@?$numeric_limits@C@std@@2HB
CONST	SEGMENT
?digits@?$numeric_limits@C@std@@2HB DD 07H		; std::numeric_limits<signed char>::digits
CONST	ENDS
;	COMDAT ?is_signed@?$numeric_limits@C@std@@2_NB
CONST	SEGMENT
?is_signed@?$numeric_limits@C@std@@2_NB DB 01H		; std::numeric_limits<signed char>::is_signed
CONST	ENDS
;	COMDAT ?table_size@?$ctype@D@std@@2IB
CONST	SEGMENT
?table_size@?$ctype@D@std@@2IB DD 0100H			; std::ctype<char>::table_size
CONST	ENDS
;	COMDAT ?digits10@?$numeric_limits@_N@std@@2HB
CONST	SEGMENT
?digits10@?$numeric_limits@_N@std@@2HB DD 00H		; std::numeric_limits<bool>::digits10
CONST	ENDS
;	COMDAT ?digits@?$numeric_limits@_N@std@@2HB
CONST	SEGMENT
?digits@?$numeric_limits@_N@std@@2HB DD 01H		; std::numeric_limits<bool>::digits
CONST	ENDS
;	COMDAT ?is_signed@?$numeric_limits@_N@std@@2_NB
CONST	SEGMENT
?is_signed@?$numeric_limits@_N@std@@2_NB DB 00H		; std::numeric_limits<bool>::is_signed
CONST	ENDS
;	COMDAT ?is_modulo@?$numeric_limits@_N@std@@2_NB
CONST	SEGMENT
?is_modulo@?$numeric_limits@_N@std@@2_NB DB 00H		; std::numeric_limits<bool>::is_modulo
CONST	ENDS
;	COMDAT ?digits10@?$numeric_limits@_W@std@@2HB
CONST	SEGMENT
?digits10@?$numeric_limits@_W@std@@2HB DD 04H		; std::numeric_limits<wchar_t>::digits10
CONST	ENDS
;	COMDAT ?digits@?$numeric_limits@_W@std@@2HB
CONST	SEGMENT
?digits@?$numeric_limits@_W@std@@2HB DD 010H		; std::numeric_limits<wchar_t>::digits
CONST	ENDS
;	COMDAT ?is_signed@?$numeric_limits@_W@std@@2_NB
CONST	SEGMENT
?is_signed@?$numeric_limits@_W@std@@2_NB DB 00H		; std::numeric_limits<wchar_t>::is_signed
CONST	ENDS
;	COMDAT ?digits10@?$numeric_limits@D@std@@2HB
CONST	SEGMENT
?digits10@?$numeric_limits@D@std@@2HB DD 02H		; std::numeric_limits<char>::digits10
CONST	ENDS
;	COMDAT ?digits@?$numeric_limits@D@std@@2HB
CONST	SEGMENT
?digits@?$numeric_limits@D@std@@2HB DD 07H		; std::numeric_limits<char>::digits
CONST	ENDS
;	COMDAT ?is_signed@?$numeric_limits@D@std@@2_NB
CONST	SEGMENT
?is_signed@?$numeric_limits@D@std@@2_NB DB 01H		; std::numeric_limits<char>::is_signed
CONST	ENDS
;	COMDAT ?none@?$_Locbase@H@std@@2HB
CONST	SEGMENT
?none@?$_Locbase@H@std@@2HB DD 00H			; std::_Locbase<int>::none
CONST	ENDS
;	COMDAT ?all@?$_Locbase@H@std@@2HB
CONST	SEGMENT
?all@?$_Locbase@H@std@@2HB DD 03fH			; std::_Locbase<int>::all
CONST	ENDS
;	COMDAT ?messages@?$_Locbase@H@std@@2HB
CONST	SEGMENT
?messages@?$_Locbase@H@std@@2HB DD 020H			; std::_Locbase<int>::messages
CONST	ENDS
;	COMDAT ?time@?$_Locbase@H@std@@2HB
CONST	SEGMENT
?time@?$_Locbase@H@std@@2HB DD 010H			; std::_Locbase<int>::time
CONST	ENDS
;	COMDAT ?numeric@?$_Locbase@H@std@@2HB
CONST	SEGMENT
?numeric@?$_Locbase@H@std@@2HB DD 08H			; std::_Locbase<int>::numeric
CONST	ENDS
;	COMDAT ?monetary@?$_Locbase@H@std@@2HB
CONST	SEGMENT
?monetary@?$_Locbase@H@std@@2HB DD 04H			; std::_Locbase<int>::monetary
CONST	ENDS
;	COMDAT ?ctype@?$_Locbase@H@std@@2HB
CONST	SEGMENT
?ctype@?$_Locbase@H@std@@2HB DD 02H			; std::_Locbase<int>::ctype
CONST	ENDS
;	COMDAT ?collate@?$_Locbase@H@std@@2HB
CONST	SEGMENT
?collate@?$_Locbase@H@std@@2HB DD 01H			; std::_Locbase<int>::collate
CONST	ENDS
;	COMDAT ?radix@_Num_float_base@std@@2HB
CONST	SEGMENT
?radix@_Num_float_base@std@@2HB DD 02H			; std::_Num_float_base::radix
CONST	ENDS
;	COMDAT ?round_style@_Num_float_base@std@@2W4float_round_style@2@B
CONST	SEGMENT
?round_style@_Num_float_base@std@@2W4float_round_style@2@B DD 01H ; std::_Num_float_base::round_style
CONST	ENDS
;	COMDAT ?traps@_Num_float_base@std@@2_NB
CONST	SEGMENT
?traps@_Num_float_base@std@@2_NB DB 00H			; std::_Num_float_base::traps
CONST	ENDS
;	COMDAT ?tinyness_before@_Num_float_base@std@@2_NB
CONST	SEGMENT
?tinyness_before@_Num_float_base@std@@2_NB DB 01H	; std::_Num_float_base::tinyness_before
CONST	ENDS
;	COMDAT ?is_specialized@_Num_float_base@std@@2_NB
CONST	SEGMENT
?is_specialized@_Num_float_base@std@@2_NB DB 01H	; std::_Num_float_base::is_specialized
CONST	ENDS
;	COMDAT ?is_signed@_Num_float_base@std@@2_NB
CONST	SEGMENT
?is_signed@_Num_float_base@std@@2_NB DB 01H		; std::_Num_float_base::is_signed
CONST	ENDS
;	COMDAT ?is_modulo@_Num_float_base@std@@2_NB
CONST	SEGMENT
?is_modulo@_Num_float_base@std@@2_NB DB 00H		; std::_Num_float_base::is_modulo
CONST	ENDS
;	COMDAT ?is_integer@_Num_float_base@std@@2_NB
CONST	SEGMENT
?is_integer@_Num_float_base@std@@2_NB DB 00H		; std::_Num_float_base::is_integer
CONST	ENDS
;	COMDAT ?is_iec559@_Num_float_base@std@@2_NB
CONST	SEGMENT
?is_iec559@_Num_float_base@std@@2_NB DB 01H		; std::_Num_float_base::is_iec559
CONST	ENDS
;	COMDAT ?is_exact@_Num_float_base@std@@2_NB
CONST	SEGMENT
?is_exact@_Num_float_base@std@@2_NB DB 00H		; std::_Num_float_base::is_exact
CONST	ENDS
;	COMDAT ?is_bounded@_Num_float_base@std@@2_NB
CONST	SEGMENT
?is_bounded@_Num_float_base@std@@2_NB DB 01H		; std::_Num_float_base::is_bounded
CONST	ENDS
;	COMDAT ?has_signaling_NaN@_Num_float_base@std@@2_NB
CONST	SEGMENT
?has_signaling_NaN@_Num_float_base@std@@2_NB DB 01H	; std::_Num_float_base::has_signaling_NaN
CONST	ENDS
;	COMDAT ?has_quiet_NaN@_Num_float_base@std@@2_NB
CONST	SEGMENT
?has_quiet_NaN@_Num_float_base@std@@2_NB DB 01H		; std::_Num_float_base::has_quiet_NaN
CONST	ENDS
;	COMDAT ?has_infinity@_Num_float_base@std@@2_NB
CONST	SEGMENT
?has_infinity@_Num_float_base@std@@2_NB DB 01H		; std::_Num_float_base::has_infinity
CONST	ENDS
;	COMDAT ?CMPDIRTYDATA_INTERVAL@FalconEntity@@2KB
CONST	SEGMENT
?CMPDIRTYDATA_INTERVAL@FalconEntity@@2KB DD 0c8H	; FalconEntity::CMPDIRTYDATA_INTERVAL
CONST	ENDS
;	COMDAT ?SIMDIRTYDATA_INTERVAL@FalconEntity@@2KB
CONST	SEGMENT
?SIMDIRTYDATA_INTERVAL@FalconEntity@@2KB DD 0c8H	; FalconEntity::SIMDIRTYDATA_INTERVAL
CONST	ENDS
;	COMDAT ?has_denorm_loss@_Num_float_base@std@@2_NB
CONST	SEGMENT
?has_denorm_loss@_Num_float_base@std@@2_NB DB 01H	; std::_Num_float_base::has_denorm_loss
CONST	ENDS
;	COMDAT ?has_denorm@_Num_float_base@std@@2W4float_denorm_style@2@B
CONST	SEGMENT
?has_denorm@_Num_float_base@std@@2W4float_denorm_style@2@B DD 01H ; std::_Num_float_base::has_denorm
CONST	ENDS
;	COMDAT ?radix@_Num_int_base@std@@2HB
CONST	SEGMENT
?radix@_Num_int_base@std@@2HB DD 02H			; std::_Num_int_base::radix
CONST	ENDS
;	COMDAT ?is_specialized@_Num_int_base@std@@2_NB
CONST	SEGMENT
?is_specialized@_Num_int_base@std@@2_NB DB 01H		; std::_Num_int_base::is_specialized
CONST	ENDS
;	COMDAT ?is_modulo@_Num_int_base@std@@2_NB
CONST	SEGMENT
?is_modulo@_Num_int_base@std@@2_NB DB 01H		; std::_Num_int_base::is_modulo
CONST	ENDS
;	COMDAT ?is_integer@_Num_int_base@std@@2_NB
CONST	SEGMENT
?is_integer@_Num_int_base@std@@2_NB DB 01H		; std::_Num_int_base::is_integer
CONST	ENDS
;	COMDAT ?is_exact@_Num_int_base@std@@2_NB
CONST	SEGMENT
?is_exact@_Num_int_base@std@@2_NB DB 01H		; std::_Num_int_base::is_exact
CONST	ENDS
;	COMDAT ?is_bounded@_Num_int_base@std@@2_NB
CONST	SEGMENT
?is_bounded@_Num_int_base@std@@2_NB DB 01H		; std::_Num_int_base::is_bounded
CONST	ENDS
;	COMDAT ?radix@_Num_base@std@@2HB
CONST	SEGMENT
?radix@_Num_base@std@@2HB DD 00H			; std::_Num_base::radix
CONST	ENDS
;	COMDAT ?min_exponent10@_Num_base@std@@2HB
CONST	SEGMENT
?min_exponent10@_Num_base@std@@2HB DD 00H		; std::_Num_base::min_exponent10
CONST	ENDS
;	COMDAT ?min_exponent@_Num_base@std@@2HB
CONST	SEGMENT
?min_exponent@_Num_base@std@@2HB DD 00H			; std::_Num_base::min_exponent
CONST	ENDS
;	COMDAT ?max_exponent10@_Num_base@std@@2HB
CONST	SEGMENT
?max_exponent10@_Num_base@std@@2HB DD 00H		; std::_Num_base::max_exponent10
CONST	ENDS
;	COMDAT ?max_exponent@_Num_base@std@@2HB
CONST	SEGMENT
?max_exponent@_Num_base@std@@2HB DD 00H			; std::_Num_base::max_exponent
CONST	ENDS
;	COMDAT ?max_digits10@_Num_base@std@@2HB
CONST	SEGMENT
?max_digits10@_Num_base@std@@2HB DD 00H			; std::_Num_base::max_digits10
CONST	ENDS
;	COMDAT ?digits10@_Num_base@std@@2HB
CONST	SEGMENT
?digits10@_Num_base@std@@2HB DD 00H			; std::_Num_base::digits10
CONST	ENDS
;	COMDAT ?digits@_Num_base@std@@2HB
CONST	SEGMENT
?digits@_Num_base@std@@2HB DD 00H			; std::_Num_base::digits
CONST	ENDS
;	COMDAT ?round_style@_Num_base@std@@2W4float_round_style@2@B
CONST	SEGMENT
?round_style@_Num_base@std@@2W4float_round_style@2@B DD 00H ; std::_Num_base::round_style
CONST	ENDS
;	COMDAT ??_C@_05KLIHJMMD@TOWER?$AA@
CONST	SEGMENT
??_C@_05KLIHJMMD@TOWER?$AA@ DB 'TOWER', 00H		; `string'
CONST	ENDS
;	COMDAT ??_C@_09NAEANKGK@BROADCAST?$AA@
CONST	SEGMENT
??_C@_09NAEANKGK@BROADCAST?$AA@ DB 'BROADCAST', 00H	; `string'
CONST	ENDS
;	COMDAT ?traps@_Num_base@std@@2_NB
CONST	SEGMENT
?traps@_Num_base@std@@2_NB DB 00H			; std::_Num_base::traps
CONST	ENDS
;	COMDAT ??_C@_05HEBGGLLE@GUARD?$AA@
CONST	SEGMENT
??_C@_05HEBGGLLE@GUARD?$AA@ DB 'GUARD', 00H		; `string'
CONST	ENDS
;	COMDAT ??_C@_09HHKGLPDK@PROXIMITY?$AA@
CONST	SEGMENT
??_C@_09HHKGLPDK@PROXIMITY?$AA@ DB 'PROXIMITY', 00H	; `string'
CONST	ENDS
;	COMDAT ??_C@_0N@FLGAFDMO@FROM?5PACKAGE?$AA@
CONST	SEGMENT
??_C@_0N@FLGAFDMO@FROM?5PACKAGE?$AA@ DB 'FROM PACKAGE', 00H ; `string'
CONST	ENDS
;	COMDAT ?tinyness_before@_Num_base@std@@2_NB
CONST	SEGMENT
?tinyness_before@_Num_base@std@@2_NB DB 00H		; std::_Num_base::tinyness_before
CONST	ENDS
;	COMDAT ??_C@_08CJNPGBPP@PACKAGE5?$AA@
CONST	SEGMENT
??_C@_08CJNPGBPP@PACKAGE5?$AA@ DB 'PACKAGE5', 00H	; `string'
CONST	ENDS
;	COMDAT ??_C@_08DAMEFALO@PACKAGE4?$AA@
CONST	SEGMENT
??_C@_08DAMEFALO@PACKAGE4?$AA@ DB 'PACKAGE4', 00H	; `string'
CONST	ENDS
;	COMDAT ??_C@_08HPIFMGHJ@PACKAGE3?$AA@
CONST	SEGMENT
??_C@_08HPIFMGHJ@PACKAGE3?$AA@ DB 'PACKAGE3', 00H	; `string'
CONST	ENDS
;	COMDAT ?is_specialized@_Num_base@std@@2_NB
CONST	SEGMENT
?is_specialized@_Num_base@std@@2_NB DB 00H		; std::_Num_base::is_specialized
CONST	ENDS
;	COMDAT ??_C@_08GGJOPHDI@PACKAGE2?$AA@
CONST	SEGMENT
??_C@_08GGJOPHDI@PACKAGE2?$AA@ DB 'PACKAGE2', 00H	; `string'
CONST	ENDS
;	COMDAT ??_C@_08ENLDKEPL@PACKAGE1?$AA@
CONST	SEGMENT
??_C@_08ENLDKEPL@PACKAGE1?$AA@ DB 'PACKAGE1', 00H	; `string'
CONST	ENDS
;	COMDAT ??_C@_07KDCEBPAE@FLIGHT5?$AA@
CONST	SEGMENT
??_C@_07KDCEBPAE@FLIGHT5?$AA@ DB 'FLIGHT5', 00H		; `string'
CONST	ENDS
;	COMDAT ?is_signed@_Num_base@std@@2_NB
CONST	SEGMENT
?is_signed@_Num_base@std@@2_NB DB 00H			; std::_Num_base::is_signed
CONST	ENDS
;	COMDAT ??_C@_07LKDPCOEF@FLIGHT4?$AA@
CONST	SEGMENT
??_C@_07LKDPCOEF@FLIGHT4?$AA@ DB 'FLIGHT4', 00H		; `string'
CONST	ENDS
CONST	SEGMENT
_L_2	DD	03f317218r			; 0.693147
CONST	ENDS
;	COMDAT ??_C@_07PFHOLIIC@FLIGHT3?$AA@
CONST	SEGMENT
??_C@_07PFHOLIIC@FLIGHT3?$AA@ DB 'FLIGHT3', 00H		; `string'
CONST	ENDS
;	COMDAT ??_C@_07OMGFIJMD@FLIGHT2?$AA@
CONST	SEGMENT
??_C@_07OMGFIJMD@FLIGHT2?$AA@ DB 'FLIGHT2', 00H		; `string'
CONST	ENDS
;	COMDAT ?is_modulo@_Num_base@std@@2_NB
CONST	SEGMENT
?is_modulo@_Num_base@std@@2_NB DB 00H			; std::_Num_base::is_modulo
CONST	ENDS
;	COMDAT ??_C@_07MHEINKAA@FLIGHT1?$AA@
CONST	SEGMENT
??_C@_07MHEINKAA@FLIGHT1?$AA@ DB 'FLIGHT1', 00H		; `string'
CONST	ENDS
;	COMDAT ??_C@_03MPPIHBHJ@OFF?$AA@
CONST	SEGMENT
??_C@_03MPPIHBHJ@OFF?$AA@ DB 'OFF', 00H			; `string'
CONST	ENDS
;	COMDAT ?is_integer@_Num_base@std@@2_NB
CONST	SEGMENT
?is_integer@_Num_base@std@@2_NB DB 00H			; std::_Num_base::is_integer
CONST	ENDS
;	COMDAT ?is_iec559@_Num_base@std@@2_NB
CONST	SEGMENT
?is_iec559@_Num_base@std@@2_NB DB 00H			; std::_Num_base::is_iec559
CONST	ENDS
;	COMDAT ?is_exact@_Num_base@std@@2_NB
CONST	SEGMENT
?is_exact@_Num_base@std@@2_NB DB 00H			; std::_Num_base::is_exact
CONST	ENDS
;	COMDAT ?is_bounded@_Num_base@std@@2_NB
CONST	SEGMENT
?is_bounded@_Num_base@std@@2_NB DB 00H			; std::_Num_base::is_bounded
CONST	ENDS
;	COMDAT ?has_signaling_NaN@_Num_base@std@@2_NB
CONST	SEGMENT
?has_signaling_NaN@_Num_base@std@@2_NB DB 00H		; std::_Num_base::has_signaling_NaN
CONST	ENDS
;	COMDAT ?has_quiet_NaN@_Num_base@std@@2_NB
CONST	SEGMENT
?has_quiet_NaN@_Num_base@std@@2_NB DB 00H		; std::_Num_base::has_quiet_NaN
CONST	ENDS
;	COMDAT ?has_infinity@_Num_base@std@@2_NB
CONST	SEGMENT
?has_infinity@_Num_base@std@@2_NB DB 00H		; std::_Num_base::has_infinity
CONST	ENDS
;	COMDAT ?has_denorm_loss@_Num_base@std@@2_NB
CONST	SEGMENT
?has_denorm_loss@_Num_base@std@@2_NB DB 00H		; std::_Num_base::has_denorm_loss
CONST	ENDS
;	COMDAT ?has_denorm@_Num_base@std@@2W4float_denorm_style@2@B
CONST	SEGMENT
?has_denorm@_Num_base@std@@2W4float_denorm_style@2@B DD 00H ; std::_Num_base::has_denorm
CONST	ENDS
_DATA	SEGMENT
?RadioStrings@@3PAPADA DD FLAT:??_C@_03MPPIHBHJ@OFF?$AA@ ; RadioStrings
	DD	FLAT:??_C@_07MHEINKAA@FLIGHT1?$AA@
	DD	FLAT:??_C@_07OMGFIJMD@FLIGHT2?$AA@
	DD	FLAT:??_C@_07PFHOLIIC@FLIGHT3?$AA@
	DD	FLAT:??_C@_07LKDPCOEF@FLIGHT4?$AA@
	DD	FLAT:??_C@_07KDCEBPAE@FLIGHT5?$AA@
	DD	FLAT:??_C@_08ENLDKEPL@PACKAGE1?$AA@
	DD	FLAT:??_C@_08GGJOPHDI@PACKAGE2?$AA@
	DD	FLAT:??_C@_08HPIFMGHJ@PACKAGE3?$AA@
	DD	FLAT:??_C@_08DAMEFALO@PACKAGE4?$AA@
	DD	FLAT:??_C@_08CJNPGBPP@PACKAGE5?$AA@
	DD	FLAT:??_C@_0N@FLGAFDMO@FROM?5PACKAGE?$AA@
	DD	FLAT:??_C@_09HHKGLPDK@PROXIMITY?$AA@
	DD	FLAT:??_C@_05HEBGGLLE@GUARD?$AA@
	DD	FLAT:??_C@_09NAEANKGK@BROADCAST?$AA@
	DD	FLAT:??_C@_05KLIHJMMD@TOWER?$AA@
_DATA	ENDS
;	COMDAT ?value@?$_Sizeof@U_Nil@std@@U12@U12@U12@U12@U12@U12@U12@@std@@2IB
CONST	SEGMENT
?value@?$_Sizeof@U_Nil@std@@U12@U12@U12@U12@U12@U12@U12@@std@@2IB DD 00H ; std::_Sizeof<std::_Nil,std::_Nil,std::_Nil,std::_Nil,std::_Nil,std::_Nil,std::_Nil,std::_Nil>::value
CONST	ENDS
;	COMDAT ?_Stream_err@failure@ios_base@std@@0W4io_errc@43@B
CONST	SEGMENT
?_Stream_err@failure@ios_base@std@@0W4io_errc@43@B DD 01H ; std::ios_base::failure::_Stream_err
CONST	ENDS
;	COMDAT ?end@?$_Iosb@H@std@@2W4_Seekdir@12@B
CONST	SEGMENT
?end@?$_Iosb@H@std@@2W4_Seekdir@12@B DD 02H		; std::_Iosb<int>::end
CONST	ENDS
;	COMDAT ?cur@?$_Iosb@H@std@@2W4_Seekdir@12@B
CONST	SEGMENT
?cur@?$_Iosb@H@std@@2W4_Seekdir@12@B DD 01H		; std::_Iosb<int>::cur
CONST	ENDS
;	COMDAT ?beg@?$_Iosb@H@std@@2W4_Seekdir@12@B
CONST	SEGMENT
?beg@?$_Iosb@H@std@@2W4_Seekdir@12@B DD 00H		; std::_Iosb<int>::beg
CONST	ENDS
;	COMDAT ?binary@?$_Iosb@H@std@@2W4_Openmode@12@B
CONST	SEGMENT
?binary@?$_Iosb@H@std@@2W4_Openmode@12@B DD 020H	; std::_Iosb<int>::binary
CONST	ENDS
;	COMDAT ?_Noreplace@?$_Iosb@H@std@@2W4_Openmode@12@B
CONST	SEGMENT
?_Noreplace@?$_Iosb@H@std@@2W4_Openmode@12@B DD 080H	; std::_Iosb<int>::_Noreplace
CONST	ENDS
;	COMDAT ?_Nocreate@?$_Iosb@H@std@@2W4_Openmode@12@B
CONST	SEGMENT
?_Nocreate@?$_Iosb@H@std@@2W4_Openmode@12@B DD 040H	; std::_Iosb<int>::_Nocreate
CONST	ENDS
;	COMDAT ?trunc@?$_Iosb@H@std@@2W4_Openmode@12@B
CONST	SEGMENT
?trunc@?$_Iosb@H@std@@2W4_Openmode@12@B DD 010H		; std::_Iosb<int>::trunc
CONST	ENDS
;	COMDAT ?app@?$_Iosb@H@std@@2W4_Openmode@12@B
CONST	SEGMENT
?app@?$_Iosb@H@std@@2W4_Openmode@12@B DD 08H		; std::_Iosb<int>::app
CONST	ENDS
;	COMDAT ?ate@?$_Iosb@H@std@@2W4_Openmode@12@B
CONST	SEGMENT
?ate@?$_Iosb@H@std@@2W4_Openmode@12@B DD 04H		; std::_Iosb<int>::ate
CONST	ENDS
;	COMDAT ?out@?$_Iosb@H@std@@2W4_Openmode@12@B
CONST	SEGMENT
?out@?$_Iosb@H@std@@2W4_Openmode@12@B DD 02H		; std::_Iosb<int>::out
CONST	ENDS
;	COMDAT ?in@?$_Iosb@H@std@@2W4_Openmode@12@B
CONST	SEGMENT
?in@?$_Iosb@H@std@@2W4_Openmode@12@B DD 01H		; std::_Iosb<int>::in
CONST	ENDS
;	COMDAT ?_Hardfail@?$_Iosb@H@std@@2W4_Iostate@12@B
CONST	SEGMENT
?_Hardfail@?$_Iosb@H@std@@2W4_Iostate@12@B DD 010H	; std::_Iosb<int>::_Hardfail
CONST	ENDS
;	COMDAT ?badbit@?$_Iosb@H@std@@2W4_Iostate@12@B
CONST	SEGMENT
?badbit@?$_Iosb@H@std@@2W4_Iostate@12@B DD 04H		; std::_Iosb<int>::badbit
CONST	ENDS
;	COMDAT ?failbit@?$_Iosb@H@std@@2W4_Iostate@12@B
CONST	SEGMENT
?failbit@?$_Iosb@H@std@@2W4_Iostate@12@B DD 02H		; std::_Iosb<int>::failbit
CONST	ENDS
;	COMDAT ?eofbit@?$_Iosb@H@std@@2W4_Iostate@12@B
CONST	SEGMENT
?eofbit@?$_Iosb@H@std@@2W4_Iostate@12@B DD 01H		; std::_Iosb<int>::eofbit
CONST	ENDS
;	COMDAT ?goodbit@?$_Iosb@H@std@@2W4_Iostate@12@B
CONST	SEGMENT
?goodbit@?$_Iosb@H@std@@2W4_Iostate@12@B DD 00H		; std::_Iosb<int>::goodbit
CONST	ENDS
;	COMDAT ?floatfield@?$_Iosb@H@std@@2W4_Fmtflags@12@B
CONST	SEGMENT
?floatfield@?$_Iosb@H@std@@2W4_Fmtflags@12@B DD 03000H	; std::_Iosb<int>::floatfield
CONST	ENDS
;	COMDAT ?basefield@?$_Iosb@H@std@@2W4_Fmtflags@12@B
CONST	SEGMENT
?basefield@?$_Iosb@H@std@@2W4_Fmtflags@12@B DD 0e00H	; std::_Iosb<int>::basefield
CONST	ENDS
;	COMDAT ?adjustfield@?$_Iosb@H@std@@2W4_Fmtflags@12@B
CONST	SEGMENT
?adjustfield@?$_Iosb@H@std@@2W4_Fmtflags@12@B DD 01c0H	; std::_Iosb<int>::adjustfield
CONST	ENDS
;	COMDAT ?_Stdio@?$_Iosb@H@std@@2W4_Fmtflags@12@B
CONST	SEGMENT
?_Stdio@?$_Iosb@H@std@@2W4_Fmtflags@12@B DD 08000H	; std::_Iosb<int>::_Stdio
CONST	ENDS
;	COMDAT ?boolalpha@?$_Iosb@H@std@@2W4_Fmtflags@12@B
CONST	SEGMENT
?boolalpha@?$_Iosb@H@std@@2W4_Fmtflags@12@B DD 04000H	; std::_Iosb<int>::boolalpha
CONST	ENDS
;	COMDAT ?hexfloat@?$_Iosb@H@std@@2W4_Fmtflags@12@B
CONST	SEGMENT
?hexfloat@?$_Iosb@H@std@@2W4_Fmtflags@12@B DD 03000H	; std::_Iosb<int>::hexfloat
CONST	ENDS
;	COMDAT ?min_exponent10@?$numeric_limits@O@std@@2HB
CONST	SEGMENT
?min_exponent10@?$numeric_limits@O@std@@2HB DD 0fffffecdH ; std::numeric_limits<long double>::min_exponent10
CONST	ENDS
;	COMDAT ?fixed@?$_Iosb@H@std@@2W4_Fmtflags@12@B
CONST	SEGMENT
?fixed@?$_Iosb@H@std@@2W4_Fmtflags@12@B DD 02000H	; std::_Iosb<int>::fixed
CONST	ENDS
;	COMDAT ?min_exponent@?$numeric_limits@O@std@@2HB
CONST	SEGMENT
?min_exponent@?$numeric_limits@O@std@@2HB DD 0fffffc03H	; std::numeric_limits<long double>::min_exponent
CONST	ENDS
;	COMDAT ?scientific@?$_Iosb@H@std@@2W4_Fmtflags@12@B
CONST	SEGMENT
?scientific@?$_Iosb@H@std@@2W4_Fmtflags@12@B DD 01000H	; std::_Iosb<int>::scientific
CONST	ENDS
;	COMDAT ?max_exponent10@?$numeric_limits@O@std@@2HB
CONST	SEGMENT
?max_exponent10@?$numeric_limits@O@std@@2HB DD 0134H	; std::numeric_limits<long double>::max_exponent10
CONST	ENDS
;	COMDAT ?hex@?$_Iosb@H@std@@2W4_Fmtflags@12@B
CONST	SEGMENT
?hex@?$_Iosb@H@std@@2W4_Fmtflags@12@B DD 0800H		; std::_Iosb<int>::hex
CONST	ENDS
;	COMDAT ?oct@?$_Iosb@H@std@@2W4_Fmtflags@12@B
CONST	SEGMENT
?oct@?$_Iosb@H@std@@2W4_Fmtflags@12@B DD 0400H		; std::_Iosb<int>::oct
CONST	ENDS
;	COMDAT ?max_exponent@?$numeric_limits@O@std@@2HB
CONST	SEGMENT
?max_exponent@?$numeric_limits@O@std@@2HB DD 0400H	; std::numeric_limits<long double>::max_exponent
CONST	ENDS
;	COMDAT ?dec@?$_Iosb@H@std@@2W4_Fmtflags@12@B
CONST	SEGMENT
?dec@?$_Iosb@H@std@@2W4_Fmtflags@12@B DD 0200H		; std::_Iosb<int>::dec
CONST	ENDS
;	COMDAT ?max_digits10@?$numeric_limits@O@std@@2HB
CONST	SEGMENT
?max_digits10@?$numeric_limits@O@std@@2HB DD 011H	; std::numeric_limits<long double>::max_digits10
CONST	ENDS
;	COMDAT ?internal@?$_Iosb@H@std@@2W4_Fmtflags@12@B
CONST	SEGMENT
?internal@?$_Iosb@H@std@@2W4_Fmtflags@12@B DD 0100H	; std::_Iosb<int>::internal
CONST	ENDS
;	COMDAT ?digits10@?$numeric_limits@O@std@@2HB
CONST	SEGMENT
?digits10@?$numeric_limits@O@std@@2HB DD 0fH		; std::numeric_limits<long double>::digits10
CONST	ENDS
;	COMDAT ?right@?$_Iosb@H@std@@2W4_Fmtflags@12@B
CONST	SEGMENT
?right@?$_Iosb@H@std@@2W4_Fmtflags@12@B DD 080H		; std::_Iosb<int>::right
CONST	ENDS
;	COMDAT ?digits@?$numeric_limits@O@std@@2HB
CONST	SEGMENT
?digits@?$numeric_limits@O@std@@2HB DD 035H		; std::numeric_limits<long double>::digits
CONST	ENDS
;	COMDAT ?left@?$_Iosb@H@std@@2W4_Fmtflags@12@B
CONST	SEGMENT
?left@?$_Iosb@H@std@@2W4_Fmtflags@12@B DD 040H		; std::_Iosb<int>::left
CONST	ENDS
;	COMDAT ?showpos@?$_Iosb@H@std@@2W4_Fmtflags@12@B
CONST	SEGMENT
?showpos@?$_Iosb@H@std@@2W4_Fmtflags@12@B DD 020H	; std::_Iosb<int>::showpos
CONST	ENDS
;	COMDAT ?showpoint@?$_Iosb@H@std@@2W4_Fmtflags@12@B
CONST	SEGMENT
?showpoint@?$_Iosb@H@std@@2W4_Fmtflags@12@B DD 010H	; std::_Iosb<int>::showpoint
CONST	ENDS
;	COMDAT ?showbase@?$_Iosb@H@std@@2W4_Fmtflags@12@B
CONST	SEGMENT
?showbase@?$_Iosb@H@std@@2W4_Fmtflags@12@B DD 08H	; std::_Iosb<int>::showbase
CONST	ENDS
;	COMDAT ?uppercase@?$_Iosb@H@std@@2W4_Fmtflags@12@B
CONST	SEGMENT
?uppercase@?$_Iosb@H@std@@2W4_Fmtflags@12@B DD 04H	; std::_Iosb<int>::uppercase
CONST	ENDS
;	COMDAT ?unitbuf@?$_Iosb@H@std@@2W4_Fmtflags@12@B
CONST	SEGMENT
?unitbuf@?$_Iosb@H@std@@2W4_Fmtflags@12@B DD 02H	; std::_Iosb<int>::unitbuf
CONST	ENDS
;	COMDAT ?skipws@?$_Iosb@H@std@@2W4_Fmtflags@12@B
CONST	SEGMENT
?skipws@?$_Iosb@H@std@@2W4_Fmtflags@12@B DD 01H		; std::_Iosb<int>::skipws
CONST	ENDS
;	COMDAT ?min_exponent10@?$numeric_limits@N@std@@2HB
CONST	SEGMENT
?min_exponent10@?$numeric_limits@N@std@@2HB DD 0fffffecdH ; std::numeric_limits<double>::min_exponent10
CONST	ENDS
;	COMDAT ?min_exponent@?$numeric_limits@N@std@@2HB
CONST	SEGMENT
?min_exponent@?$numeric_limits@N@std@@2HB DD 0fffffc03H	; std::numeric_limits<double>::min_exponent
CONST	ENDS
;	COMDAT ?max_exponent10@?$numeric_limits@N@std@@2HB
CONST	SEGMENT
?max_exponent10@?$numeric_limits@N@std@@2HB DD 0134H	; std::numeric_limits<double>::max_exponent10
CONST	ENDS
;	COMDAT ?max_exponent@?$numeric_limits@N@std@@2HB
CONST	SEGMENT
?max_exponent@?$numeric_limits@N@std@@2HB DD 0400H	; std::numeric_limits<double>::max_exponent
CONST	ENDS
;	COMDAT ?max_digits10@?$numeric_limits@N@std@@2HB
CONST	SEGMENT
?max_digits10@?$numeric_limits@N@std@@2HB DD 011H	; std::numeric_limits<double>::max_digits10
CONST	ENDS
;	COMDAT ?digits10@?$numeric_limits@N@std@@2HB
CONST	SEGMENT
?digits10@?$numeric_limits@N@std@@2HB DD 0fH		; std::numeric_limits<double>::digits10
CONST	ENDS
;	COMDAT ?digits@?$numeric_limits@N@std@@2HB
CONST	SEGMENT
?digits@?$numeric_limits@N@std@@2HB DD 035H		; std::numeric_limits<double>::digits
CONST	ENDS
;	COMDAT ?value@?$integral_constant@I$0A@@std@@2IB
CONST	SEGMENT
?value@?$integral_constant@I$0A@@std@@2IB DD 00H	; std::integral_constant<unsigned int,0>::value
CONST	ENDS
;	COMDAT ?min_exponent10@?$numeric_limits@M@std@@2HB
CONST	SEGMENT
?min_exponent10@?$numeric_limits@M@std@@2HB DD 0ffffffdbH ; std::numeric_limits<float>::min_exponent10
CONST	ENDS
;	COMDAT ?min_exponent@?$numeric_limits@M@std@@2HB
CONST	SEGMENT
?min_exponent@?$numeric_limits@M@std@@2HB DD 0ffffff83H	; std::numeric_limits<float>::min_exponent
CONST	ENDS
;	COMDAT ?max_exponent10@?$numeric_limits@M@std@@2HB
CONST	SEGMENT
?max_exponent10@?$numeric_limits@M@std@@2HB DD 026H	; std::numeric_limits<float>::max_exponent10
CONST	ENDS
;	COMDAT ?max_exponent@?$numeric_limits@M@std@@2HB
CONST	SEGMENT
?max_exponent@?$numeric_limits@M@std@@2HB DD 080H	; std::numeric_limits<float>::max_exponent
CONST	ENDS
;	COMDAT ?max_digits10@?$numeric_limits@M@std@@2HB
CONST	SEGMENT
?max_digits10@?$numeric_limits@M@std@@2HB DD 09H	; std::numeric_limits<float>::max_digits10
CONST	ENDS
;	COMDAT ?digits10@?$numeric_limits@M@std@@2HB
CONST	SEGMENT
?digits10@?$numeric_limits@M@std@@2HB DD 06H		; std::numeric_limits<float>::digits10
CONST	ENDS
;	COMDAT ?digits@?$numeric_limits@M@std@@2HB
CONST	SEGMENT
?digits@?$numeric_limits@M@std@@2HB DD 018H		; std::numeric_limits<float>::digits
CONST	ENDS
;	COMDAT ?digits10@?$numeric_limits@_K@std@@2HB
CONST	SEGMENT
?digits10@?$numeric_limits@_K@std@@2HB DD 013H		; std::numeric_limits<unsigned __int64>::digits10
CONST	ENDS
;	COMDAT ?digits@?$numeric_limits@_K@std@@2HB
CONST	SEGMENT
?digits@?$numeric_limits@_K@std@@2HB DD 040H		; std::numeric_limits<unsigned __int64>::digits
CONST	ENDS
;	COMDAT ?is_signed@?$numeric_limits@_K@std@@2_NB
CONST	SEGMENT
?is_signed@?$numeric_limits@_K@std@@2_NB DB 00H		; std::numeric_limits<unsigned __int64>::is_signed
CONST	ENDS
;	COMDAT ?digits10@?$numeric_limits@_J@std@@2HB
CONST	SEGMENT
?digits10@?$numeric_limits@_J@std@@2HB DD 012H		; std::numeric_limits<__int64>::digits10
CONST	ENDS
;	COMDAT ?digits@?$numeric_limits@_J@std@@2HB
CONST	SEGMENT
?digits@?$numeric_limits@_J@std@@2HB DD 03fH		; std::numeric_limits<__int64>::digits
CONST	ENDS
;	COMDAT ?is_signed@?$numeric_limits@_J@std@@2_NB
CONST	SEGMENT
?is_signed@?$numeric_limits@_J@std@@2_NB DB 01H		; std::numeric_limits<__int64>::is_signed
CONST	ENDS
;	COMDAT ?digits10@?$numeric_limits@K@std@@2HB
CONST	SEGMENT
?digits10@?$numeric_limits@K@std@@2HB DD 09H		; std::numeric_limits<unsigned long>::digits10
CONST	ENDS
;	COMDAT ?digits@?$numeric_limits@K@std@@2HB
CONST	SEGMENT
?digits@?$numeric_limits@K@std@@2HB DD 020H		; std::numeric_limits<unsigned long>::digits
CONST	ENDS
;	COMDAT ?is_signed@?$numeric_limits@K@std@@2_NB
CONST	SEGMENT
?is_signed@?$numeric_limits@K@std@@2_NB DB 00H		; std::numeric_limits<unsigned long>::is_signed
CONST	ENDS
;	COMDAT ?digits10@?$numeric_limits@J@std@@2HB
CONST	SEGMENT
?digits10@?$numeric_limits@J@std@@2HB DD 09H		; std::numeric_limits<long>::digits10
CONST	ENDS
;	COMDAT ?digits@?$numeric_limits@J@std@@2HB
CONST	SEGMENT
?digits@?$numeric_limits@J@std@@2HB DD 01fH		; std::numeric_limits<long>::digits
CONST	ENDS
;	COMDAT ?is_signed@?$numeric_limits@J@std@@2_NB
CONST	SEGMENT
?is_signed@?$numeric_limits@J@std@@2_NB DB 01H		; std::numeric_limits<long>::is_signed
CONST	ENDS
;	COMDAT ?digits10@?$numeric_limits@I@std@@2HB
CONST	SEGMENT
?digits10@?$numeric_limits@I@std@@2HB DD 09H		; std::numeric_limits<unsigned int>::digits10
CONST	ENDS
;	COMDAT ?digits@?$numeric_limits@I@std@@2HB
CONST	SEGMENT
?digits@?$numeric_limits@I@std@@2HB DD 020H		; std::numeric_limits<unsigned int>::digits
CONST	ENDS
;	COMDAT ?is_signed@?$numeric_limits@I@std@@2_NB
CONST	SEGMENT
?is_signed@?$numeric_limits@I@std@@2_NB DB 00H		; std::numeric_limits<unsigned int>::is_signed
CONST	ENDS
;	COMDAT ?digits10@?$numeric_limits@H@std@@2HB
CONST	SEGMENT
?digits10@?$numeric_limits@H@std@@2HB DD 09H		; std::numeric_limits<int>::digits10
CONST	ENDS
;	COMDAT ?digits@?$numeric_limits@H@std@@2HB
CONST	SEGMENT
?digits@?$numeric_limits@H@std@@2HB DD 01fH		; std::numeric_limits<int>::digits
CONST	ENDS
;	COMDAT ?value@?$_Sizeof@HU_Nil@std@@U12@U12@U12@U12@U12@U12@@std@@2IB
CONST	SEGMENT
?value@?$_Sizeof@HU_Nil@std@@U12@U12@U12@U12@U12@U12@@std@@2IB DD 01H ; std::_Sizeof<int,std::_Nil,std::_Nil,std::_Nil,std::_Nil,std::_Nil,std::_Nil,std::_Nil>::value
CONST	ENDS
;	COMDAT ?is_signed@?$numeric_limits@H@std@@2_NB
CONST	SEGMENT
?is_signed@?$numeric_limits@H@std@@2_NB DB 01H		; std::numeric_limits<int>::is_signed
CONST	ENDS
;	COMDAT ?value@?$integral_constant@_N$00@std@@2_NB
CONST	SEGMENT
?value@?$integral_constant@_N$00@std@@2_NB DB 01H	; std::integral_constant<bool,1>::value
CONST	ENDS
;	COMDAT ?value@?$integral_constant@_N$0A@@std@@2_NB
CONST	SEGMENT
?value@?$integral_constant@_N$0A@@std@@2_NB DB 00H	; std::integral_constant<bool,0>::value
CONST	ENDS
;	COMDAT ?digits10@?$numeric_limits@G@std@@2HB
CONST	SEGMENT
?digits10@?$numeric_limits@G@std@@2HB DD 04H		; std::numeric_limits<unsigned short>::digits10
CONST	ENDS
;	COMDAT ?digits@?$numeric_limits@G@std@@2HB
CONST	SEGMENT
?digits@?$numeric_limits@G@std@@2HB DD 010H		; std::numeric_limits<unsigned short>::digits
CONST	ENDS
;	COMDAT ?is_signed@?$numeric_limits@G@std@@2_NB
CONST	SEGMENT
?is_signed@?$numeric_limits@G@std@@2_NB DB 00H		; std::numeric_limits<unsigned short>::is_signed
CONST	ENDS
;	COMDAT ?digits10@?$numeric_limits@F@std@@2HB
CONST	SEGMENT
?digits10@?$numeric_limits@F@std@@2HB DD 04H		; std::numeric_limits<short>::digits10
CONST	ENDS
;	COMDAT ?digits@?$numeric_limits@F@std@@2HB
CONST	SEGMENT
?digits@?$numeric_limits@F@std@@2HB DD 0fH		; std::numeric_limits<short>::digits
CONST	ENDS
;	COMDAT ?is_signed@?$numeric_limits@F@std@@2_NB
CONST	SEGMENT
?is_signed@?$numeric_limits@F@std@@2_NB DB 01H		; std::numeric_limits<short>::is_signed
CONST	ENDS
PUBLIC	_fabsf
PUBLIC	?abs@@YAMM@Z					; abs
PUBLIC	??0VU_SESSION_ID@@QAE@K@Z			; VU_SESSION_ID::VU_SESSION_ID
PUBLIC	??8VU_SESSION_ID@@QBEHABV0@@Z			; VU_SESSION_ID::operator==
PUBLIC	??0VU_ID@@QAE@XZ				; VU_ID::VU_ID
PUBLIC	??8VU_ID@@QBE_NABV0@@Z				; VU_ID::operator==
PUBLIC	?XPos@VuEntity@@QBEMXZ				; VuEntity::XPos
PUBLIC	?YPos@VuEntity@@QBEMXZ				; VuEntity::YPos
PUBLIC	??2@YAPAXIPAX@Z					; operator new
PUBLIC	??3@YAXPAX0@Z					; operator delete
PUBLIC	?length@?$char_traits@D@std@@SAIPBD@Z		; std::char_traits<char>::length
PUBLIC	?copy@?$char_traits@D@std@@SAPADPADPBDI@Z	; std::char_traits<char>::copy
PUBLIC	?move@?$char_traits@D@std@@SAPADPADPBDI@Z	; std::char_traits<char>::move
PUBLIC	?assign@?$char_traits@D@std@@SAXAADABD@Z	; std::char_traits<char>::assign
PUBLIC	??0?$allocator@D@std@@QAE@XZ			; std::allocator<char>::allocator<char>
PUBLIC	?deallocate@?$allocator@D@std@@QAEXPADI@Z	; std::allocator<char>::deallocate
PUBLIC	?allocate@?$allocator@D@std@@QAEPADI@Z		; std::allocator<char>::allocate
PUBLIC	?max_size@?$allocator@D@std@@QBEIXZ		; std::allocator<char>::max_size
PUBLIC	?max_size@?$allocator_traits@V?$allocator@D@std@@@std@@SAIABV?$allocator@D@2@@Z ; std::allocator_traits<std::allocator<char> >::max_size
PUBLIC	??0?$_Wrap_alloc@V?$allocator@D@std@@@std@@QAE@XZ ; std::_Wrap_alloc<std::allocator<char> >::_Wrap_alloc<std::allocator<char> >
PUBLIC	?allocate@?$_Wrap_alloc@V?$allocator@D@std@@@std@@QAEPADI@Z ; std::_Wrap_alloc<std::allocator<char> >::allocate
PUBLIC	?deallocate@?$_Wrap_alloc@V?$allocator@D@std@@@std@@QAEXPADI@Z ; std::_Wrap_alloc<std::allocator<char> >::deallocate
PUBLIC	?max_size@?$_Wrap_alloc@V?$allocator@D@std@@@std@@QBEIXZ ; std::_Wrap_alloc<std::allocator<char> >::max_size
PUBLIC	??0?$_String_val@U?$_Simple_types@D@std@@@std@@QAE@XZ ; std::_String_val<std::_Simple_types<char> >::_String_val<std::_Simple_types<char> >
PUBLIC	?_Myptr@?$_String_val@U?$_Simple_types@D@std@@@std@@QAEPADXZ ; std::_String_val<std::_Simple_types<char> >::_Myptr
PUBLIC	?_Myptr@?$_String_val@U?$_Simple_types@D@std@@@std@@QBEPBDXZ ; std::_String_val<std::_Simple_types<char> >::_Myptr
PUBLIC	??0?$_String_alloc@$0A@U?$_String_base_types@DV?$allocator@D@std@@@std@@@std@@QAE@ABV?$allocator@D@1@@Z ; std::_String_alloc<0,std::_String_base_types<char,std::allocator<char> > >::_String_alloc<0,std::_String_base_types<char,std::allocator<char> > >
PUBLIC	?_Getal@?$_String_alloc@$0A@U?$_String_base_types@DV?$allocator@D@std@@@std@@@std@@QBE?AU?$_Wrap_alloc@V?$allocator@D@std@@@2@XZ ; std::_String_alloc<0,std::_String_base_types<char,std::allocator<char> > >::_Getal
PUBLIC	??0?$basic_string@DU?$char_traits@D@std@@V?$allocator@D@2@@std@@QAE@PBD@Z ; std::basic_string<char,std::char_traits<char>,std::allocator<char> >::basic_string<char,std::char_traits<char>,std::allocator<char> >
PUBLIC	?assign@?$basic_string@DU?$char_traits@D@std@@V?$allocator@D@2@@std@@QAEAAV12@ABV12@II@Z ; std::basic_string<char,std::char_traits<char>,std::allocator<char> >::assign
PUBLIC	?assign@?$basic_string@DU?$char_traits@D@std@@V?$allocator@D@2@@std@@QAEAAV12@PBDI@Z ; std::basic_string<char,std::char_traits<char>,std::allocator<char> >::assign
PUBLIC	?assign@?$basic_string@DU?$char_traits@D@std@@V?$allocator@D@2@@std@@QAEAAV12@PBD@Z ; std::basic_string<char,std::char_traits<char>,std::allocator<char> >::assign
PUBLIC	?erase@?$basic_string@DU?$char_traits@D@std@@V?$allocator@D@2@@std@@QAEAAV12@I@Z ; std::basic_string<char,std::char_traits<char>,std::allocator<char> >::erase
PUBLIC	?erase@?$basic_string@DU?$char_traits@D@std@@V?$allocator@D@2@@std@@QAEAAV12@II@Z ; std::basic_string<char,std::char_traits<char>,std::allocator<char> >::erase
PUBLIC	?size@?$basic_string@DU?$char_traits@D@std@@V?$allocator@D@2@@std@@QBEIXZ ; std::basic_string<char,std::char_traits<char>,std::allocator<char> >::size
PUBLIC	?max_size@?$basic_string@DU?$char_traits@D@std@@V?$allocator@D@2@@std@@QBEIXZ ; std::basic_string<char,std::char_traits<char>,std::allocator<char> >::max_size
PUBLIC	?_Copy@?$basic_string@DU?$char_traits@D@std@@V?$allocator@D@2@@std@@QAEXII@Z ; std::basic_string<char,std::char_traits<char>,std::allocator<char> >::_Copy
PUBLIC	?_Eos@?$basic_string@DU?$char_traits@D@std@@V?$allocator@D@2@@std@@QAEXI@Z ; std::basic_string<char,std::char_traits<char>,std::allocator<char> >::_Eos
PUBLIC	?_Grow@?$basic_string@DU?$char_traits@D@std@@V?$allocator@D@2@@std@@QAE_NI_N@Z ; std::basic_string<char,std::char_traits<char>,std::allocator<char> >::_Grow
PUBLIC	?_Inside@?$basic_string@DU?$char_traits@D@std@@V?$allocator@D@2@@std@@QAE_NPBD@Z ; std::basic_string<char,std::char_traits<char>,std::allocator<char> >::_Inside
PUBLIC	?_Tidy@?$basic_string@DU?$char_traits@D@std@@V?$allocator@D@2@@std@@QAEX_NI@Z ; std::basic_string<char,std::char_traits<char>,std::allocator<char> >::_Tidy
PUBLIC	?_Xlen@?$basic_string@DU?$char_traits@D@std@@V?$allocator@D@2@@std@@QBEXXZ ; std::basic_string<char,std::char_traits<char>,std::allocator<char> >::_Xlen
PUBLIC	?_Xran@?$basic_string@DU?$char_traits@D@std@@V?$allocator@D@2@@std@@QBEXXZ ; std::basic_string<char,std::char_traits<char>,std::allocator<char> >::_Xran
PUBLIC	?get@?$VuBin@VVuSessionEntity@@@@QBEPAVVuSessionEntity@@XZ ; VuBin<VuSessionEntity>::get
PUBLIC	?checked_atan2@@YANNN@Z				; checked_atan2
PUBLIC	??0CONVERSATION@@QAE@XZ				; CONVERSATION::CONVERSATION
PUBLIC	??0FragFile@@QAE@XZ				; FragFile::FragFile
PUBLIC	?Initialise@FragFile@@QAEXXZ			; FragFile::Initialise
PUBLIC	?MaxFrags@FragFile@@QAEHXZ			; FragFile::MaxFrags
PUBLIC	?MaxVoices@FragFile@@QAEHXZ			; FragFile::MaxVoices
PUBLIC	?GetFragInfo@FragFile@@QAEPAUFRAG_FILE_INFO@@H@Z ; FragFile::GetFragInfo
PUBLIC	?GetSpeaker@FragFile@@QAEPAUSPEAKER_TO_FILE@@PAUFRAG_FILE_INFO@@@Z ; FragFile::GetSpeaker
PUBLIC	??1FragFile@@QAE@XZ				; FragFile::~FragFile
PUBLIC	??0EvalFile@@QAE@XZ				; EvalFile::EvalFile
PUBLIC	?Initialise@EvalFile@@QAEXXZ			; EvalFile::Initialise
PUBLIC	?MaxEvals@EvalFile@@QAEHXZ			; EvalFile::MaxEvals
PUBLIC	?GetEval@EvalFile@@QAEPAUEVAL_FILE_INFO@@H@Z	; EvalFile::GetEval
PUBLIC	?GetEvalElem@EvalFile@@QAEPAUEVAL_ELEM@@PAUEVAL_FILE_INFO@@@Z ; EvalFile::GetEvalElem
PUBLIC	??1EvalFile@@QAE@XZ				; EvalFile::~EvalFile
PUBLIC	??0CommFile@@QAE@XZ				; CommFile::CommFile
PUBLIC	?Initialise@CommFile@@QAEXXZ			; CommFile::Initialise
PUBLIC	?MaxComms@CommFile@@QAEHXZ			; CommFile::MaxComms
PUBLIC	?GetComm@CommFile@@QAEPAUCOMM_FILE_INFO@@H@Z	; CommFile::GetComm
PUBLIC	?GetWarp@CommFile@@QAEHH@Z			; CommFile::GetWarp
PUBLIC	?GetCommInd@CommFile@@QAEPAFPAUCOMM_FILE_INFO@@@Z ; CommFile::GetCommInd
PUBLIC	??1CommFile@@QAE@XZ				; CommFile::~CommFile
PUBLIC	?SetupNewMsg@@YAXXZ				; SetupNewMsg
PUBLIC	?UpdateVoiceDialog@@YAXPAUHWND__@@@Z		; UpdateVoiceDialog
PUBLIC	??0VoiceFilter@@QAE@XZ				; VoiceFilter::VoiceFilter
PUBLIC	??1VoiceFilter@@QAE@XZ				; VoiceFilter::~VoiceFilter
PUBLIC	?StartVoiceManager@VoiceFilter@@QAEXXZ		; VoiceFilter::StartVoiceManager
PUBLIC	?EndVoiceManager@VoiceFilter@@QAEXXZ		; VoiceFilter::EndVoiceManager
PUBLIC	?ResetVoiceManager@VoiceFilter@@QAEXXZ		; VoiceFilter::ResetVoiceManager
PUBLIC	?HearVoices@VoiceFilter@@QAEXXZ			; VoiceFilter::HearVoices
PUBLIC	?SilenceVoices@VoiceFilter@@QAEXXZ		; VoiceFilter::SilenceVoices
PUBLIC	?SetUpVoiceFilter@VoiceFilter@@QAEXXZ		; VoiceFilter::SetUpVoiceFilter
PUBLIC	?CleanUpVoiceFilter@VoiceFilter@@QAEXXZ		; VoiceFilter::CleanUpVoiceFilter
PUBLIC	?PlayRadioMessage@VoiceFilter@@QAEXDFPAFKDDVVU_ID@@H1@Z ; VoiceFilter::PlayRadioMessage
PUBLIC	?CanUserHearThisMessage@VoiceFilter@@QAEDDVVU_ID@@0@Z ; VoiceFilter::CanUserHearThisMessage
PUBLIC	?GetBullseyeComm@VoiceFilter@@QAEHPAHPAF@Z	; VoiceFilter::GetBullseyeComm
PUBLIC	?GetWarp@VoiceFilter@@QAEHH@Z			; VoiceFilter::GetWarp
PUBLIC	?IndexElement@VoiceFilter@@QAEFFF@Z		; VoiceFilter::IndexElement
PUBLIC	?FragToFile@VoiceFilter@@QAEFHF@Z		; VoiceFilter::FragToFile
PUBLIC	?LoadCommFile@VoiceFilter@@AAEXXZ		; VoiceFilter::LoadCommFile
PUBLIC	?DisposeCommData@VoiceFilter@@AAEXXZ		; VoiceFilter::DisposeCommData
PUBLIC	?LoadEvalFile@VoiceFilter@@AAEXXZ		; VoiceFilter::LoadEvalFile
PUBLIC	?DisposeEvalData@VoiceFilter@@AAEXXZ		; VoiceFilter::DisposeEvalData
PUBLIC	?LoadFragFile@VoiceFilter@@AAEXXZ		; VoiceFilter::LoadFragFile
PUBLIC	?DisposeFragData@VoiceFilter@@AAEXXZ		; VoiceFilter::DisposeFragData
PUBLIC	?KilometersToNauticalMiles@VoiceFilter@@AAEFF@Z	; VoiceFilter::KilometersToNauticalMiles
PUBLIC	?FeetToAngel@VoiceFilter@@AAEFH@Z		; VoiceFilter::FeetToAngel
PUBLIC	?FeetToThousands@VoiceFilter@@AAEFH@Z		; VoiceFilter::FeetToThousands
PUBLIC	?DegreesToElement@VoiceFilter@@AAEFH@Z		; VoiceFilter::DegreesToElement
PUBLIC	?KnotsToElement@VoiceFilter@@AAEFH@Z		; VoiceFilter::KnotsToElement
PUBLIC	?KnotsToReduceIncreaseToElement@VoiceFilter@@AAEFH@Z ; VoiceFilter::KnotsToReduceIncreaseToElement
PUBLIC	?EvaluateElement@VoiceFilter@@AAEFFF@Z		; VoiceFilter::EvaluateElement
PUBLIC	?InitDialogData@@YAXXZ				; InitDialogData
PUBLIC	?CalcCombinations@@YANXZ			; CalcCombinations
PUBLIC	?IncDecMsgToPlay@@YAXH@Z			; IncDecMsgToPlay
PUBLIC	?IncDecIndex@@YAXHH@Z				; IncDecIndex
PUBLIC	?IncDecDataToPlay@@YAXH@Z			; IncDecDataToPlay
PUBLIC	?IncDecFragToPlay@@YAXH@Z			; IncDecFragToPlay
PUBLIC	?PlayRandomMessage@@YAXH@Z			; PlayRandomMessage
PUBLIC	?PlayToolMessage@@YAHPAUHWND__@@@Z		; PlayToolMessage
PUBLIC	?PlayVoicesProc@@YGJPAUHWND__@@IIJ@Z		; PlayVoicesProc
PUBLIC	??_GVoiceManager@@QAEPAXI@Z			; VoiceManager::`scalar deleting destructor'
PUBLIC	?BullseyeOn@PlayerOptionsClass@@QAEHXZ		; PlayerOptionsClass::BullseyeOn
PUBLIC	??0id@locale@std@@QAE@I@Z			; std::locale::id::id
PUBLIC	?generic_category@std@@YAABVerror_category@1@XZ	; std::generic_category
PUBLIC	?system_category@std@@YAABVerror_category@1@XZ	; std::system_category
PUBLIC	??0error_category@std@@QAE@XZ			; std::error_category::error_category
PUBLIC	??1error_category@std@@UAE@XZ			; std::error_category::~error_category
PUBLIC	?default_error_condition@error_category@std@@UBE?AVerror_condition@2@H@Z ; std::error_category::default_error_condition
PUBLIC	?equivalent@error_category@std@@UBE_NHABVerror_condition@2@@Z ; std::error_category::equivalent
PUBLIC	?equivalent@error_category@std@@UBE_NABVerror_code@2@H@Z ; std::error_category::equivalent
PUBLIC	??8error_category@std@@QBE_NABV01@@Z		; std::error_category::operator==
PUBLIC	??_Gerror_category@std@@UAEPAXI@Z		; std::error_category::`scalar deleting destructor'
PUBLIC	?value@error_code@std@@QBEHXZ			; std::error_code::value
PUBLIC	?category@error_code@std@@QBEABVerror_category@2@XZ ; std::error_code::category
PUBLIC	??0error_condition@std@@QAE@HABVerror_category@1@@Z ; std::error_condition::error_condition
PUBLIC	?value@error_condition@std@@QBEHXZ		; std::error_condition::value
PUBLIC	?category@error_condition@std@@QBEABVerror_category@2@XZ ; std::error_condition::category
PUBLIC	??8error_condition@std@@QBE_NABV01@@Z		; std::error_condition::operator==
PUBLIC	??0_Generic_error_category@std@@QAE@XZ		; std::_Generic_error_category::_Generic_error_category
PUBLIC	?name@_Generic_error_category@std@@UBEPBDXZ	; std::_Generic_error_category::name
PUBLIC	?message@_Generic_error_category@std@@UBE?AV?$basic_string@DU?$char_traits@D@std@@V?$allocator@D@2@@2@H@Z ; std::_Generic_error_category::message
PUBLIC	??1_Generic_error_category@std@@UAE@XZ		; std::_Generic_error_category::~_Generic_error_category
PUBLIC	??_G_Generic_error_category@std@@UAEPAXI@Z	; std::_Generic_error_category::`scalar deleting destructor'
PUBLIC	??0_Iostream_error_category@std@@QAE@XZ		; std::_Iostream_error_category::_Iostream_error_category
PUBLIC	?name@_Iostream_error_category@std@@UBEPBDXZ	; std::_Iostream_error_category::name
PUBLIC	?message@_Iostream_error_category@std@@UBE?AV?$basic_string@DU?$char_traits@D@std@@V?$allocator@D@2@@2@H@Z ; std::_Iostream_error_category::message
PUBLIC	??1_Iostream_error_category@std@@UAE@XZ		; std::_Iostream_error_category::~_Iostream_error_category
PUBLIC	??_G_Iostream_error_category@std@@UAEPAXI@Z	; std::_Iostream_error_category::`scalar deleting destructor'
PUBLIC	??0_System_error_category@std@@QAE@XZ		; std::_System_error_category::_System_error_category
PUBLIC	?name@_System_error_category@std@@UBEPBDXZ	; std::_System_error_category::name
PUBLIC	?message@_System_error_category@std@@UBE?AV?$basic_string@DU?$char_traits@D@std@@V?$allocator@D@2@@2@H@Z ; std::_System_error_category::message
PUBLIC	?default_error_condition@_System_error_category@std@@UBE?AVerror_condition@2@H@Z ; std::_System_error_category::default_error_condition
PUBLIC	??1_System_error_category@std@@UAE@XZ		; std::_System_error_category::~_System_error_category
PUBLIC	??_G_System_error_category@std@@UAEPAXI@Z	; std::_System_error_category::`scalar deleting destructor'
PUBLIC	?InSim@SimulationLoopControl@@SA_NXZ		; SimulationLoopControl::InSim
PUBLIC	?get@?$VuBin@VSquadronClass@@@@QBEPAVSquadronClass@@XZ ; VuBin<SquadronClass>::get
PUBLIC	?get@?$VuBin@VFlightClass@@@@QBEPAVFlightClass@@XZ ; VuBin<FlightClass>::get
PUBLIC	?get@?$VuBin@VFalconEntity@@@@QBEPAVFalconEntity@@XZ ; VuBin<FalconEntity>::get
PUBLIC	?GetPlayerEntity@FalconSessionEntity@@QBEPAVFalconEntity@@XZ ; FalconSessionEntity::GetPlayerEntity
PUBLIC	?GetPlayerFlight@FalconSessionEntity@@QBEPAVFlightClass@@XZ ; FalconSessionEntity::GetPlayerFlight
PUBLIC	?GetPlayerSquadron@FalconSessionEntity@@QBEPAVSquadronClass@@XZ ; FalconSessionEntity::GetPlayerSquadron
PUBLIC	?InSim@SimulationDriver@@QBE_NXZ		; SimulationDriver::InSim
PUBLIC	?GetPlayerEntity@SimulationDriver@@QBEPAVSimMoverClass@@XZ ; SimulationDriver::GetPlayerEntity
PUBLIC	?IncDecTalkerToPlay@@YAXH@Z			; IncDecTalkerToPlay
PUBLIC	?GetDialogValues@@YAXPAUHWND__@@@Z		; GetDialogValues
PUBLIC	??$construct@PADAAPAD@?$_Wrap_alloc@V?$allocator@D@std@@@std@@QAEXPAPADAAPAD@Z ; std::_Wrap_alloc<std::allocator<char> >::construct<char *,char * &>
PUBLIC	??$destroy@PAD@?$_Wrap_alloc@V?$allocator@D@std@@@std@@QAEXPAPAD@Z ; std::_Wrap_alloc<std::allocator<char> >::destroy<char *>
PUBLIC	??$addressof@D@std@@YAPADAAD@Z			; std::addressof<char>
PUBLIC	??$_Allocate@D@std@@YAPADIPAD@Z			; std::_Allocate<char>
PUBLIC	??$forward@AAPAD@std@@YAAAPADAAPAD@Z		; std::forward<char * &>
PUBLIC	??$construct@PADAAPAD@?$allocator_traits@V?$allocator@D@std@@@std@@SAXAAV?$allocator@D@1@PAPADAAPAD@Z ; std::allocator_traits<std::allocator<char> >::construct<char *,char * &>
PUBLIC	??$destroy@PAD@?$allocator_traits@V?$allocator@D@std@@@std@@SAXAAV?$allocator@D@1@PAPAD@Z ; std::allocator_traits<std::allocator<char> >::destroy<char *>
PUBLIC	??$construct@PADAAPAD@?$allocator@D@std@@QAEXPAPADAAPAD@Z ; std::allocator<char>::construct<char *,char * &>
PUBLIC	??$destroy@PAD@?$allocator@D@std@@QAEXPAPAD@Z	; std::allocator<char>::destroy<char *>
PUBLIC	??_C@_00CNPNBAHC@?$AA@				; `string'
PUBLIC	??_7error_category@std@@6B@			; std::error_category::`vftable'
PUBLIC	??_7_Generic_error_category@std@@6B@		; std::_Generic_error_category::`vftable'
PUBLIC	??_C@_07DCLBNMLN@generic?$AA@			; `string'
PUBLIC	??_C@_0O@BFJCFAAK@unknown?5error?$AA@		; `string'
PUBLIC	??_7_Iostream_error_category@std@@6B@		; std::_Iostream_error_category::`vftable'
PUBLIC	??_C@_08LLGCOLLL@iostream?$AA@			; `string'
PUBLIC	??_C@_0BG@PADBLCHM@iostream?5stream?5error?$AA@	; `string'
PUBLIC	??_7_System_error_category@std@@6B@		; std::_System_error_category::`vftable'
PUBLIC	??_C@_06FHFOAHML@system?$AA@			; `string'
PUBLIC	?_Generic_object@?$_Error_objects@H@std@@2V_Generic_error_category@2@A ; std::_Error_objects<int>::_Generic_object
PUBLIC	?_Iostream_object@?$_Error_objects@H@std@@2V_Iostream_error_category@2@A ; std::_Error_objects<int>::_Iostream_object
PUBLIC	?_System_object@?$_Error_objects@H@std@@2V_System_error_category@2@A ; std::_Error_objects<int>::_System_object
PUBLIC	?id@?$num_put@DV?$back_insert_iterator@V?$basic_string@DU?$char_traits@D@std@@V?$allocator@D@2@@std@@@std@@@std@@2V0locale@2@A ; std::num_put<char,std::back_insert_iterator<std::basic_string<char,std::char_traits<char>,std::allocator<char> > > >::id
PUBLIC	?id@?$num_put@_WV?$back_insert_iterator@V?$basic_string@_WU?$char_traits@_W@std@@V?$allocator@_W@2@@std@@@std@@@std@@2V0locale@2@A ; std::num_put<wchar_t,std::back_insert_iterator<std::basic_string<wchar_t,std::char_traits<wchar_t>,std::allocator<wchar_t> > > >::id
PUBLIC	??_C@_0BA@BHPOIILM@?$CFs?2commFile?4bin?$AA@	; `string'
PUBLIC	??_C@_0M@CFLADCE@Feb?518?52013?$AA@		; `string'
PUBLIC	??_C@_0BA@JKMMDDKC@voiceFilter?4cpp?$AA@	; `string'
PUBLIC	??_C@_0BE@FGKKLFGH@Error?3?5?5?$CF0d?5?5?$CFs?5?5?$CFs?$AA@ ; `string'
PUBLIC	??_C@_0BI@MLIEBEGA@Can?8t?5open?5commfile?4bin?$AA@ ; `string'
PUBLIC	??_C@_0BA@MDHCHJPF@?$CFs?2evalFile?4bin?$AA@	; `string'
PUBLIC	??_C@_0BI@JNPJGHIK@Can?8t?5open?5evalFile?4bin?$AA@ ; `string'
PUBLIC	??_C@_0BA@IFFONFLD@?$CFs?2fragFile?4bin?$AA@	; `string'
PUBLIC	??_C@_0BI@NLNFMLMM@Can?8t?5open?5fragFile?4bin?$AA@ ; `string'
PUBLIC	??_C@_0BB@HPCAMMON@?$CFs?2VoiceTool?4sav?$AA@	; `string'
PUBLIC	??_C@_02GMLFBBN@wb?$AA@				; `string'
PUBLIC	??_C@_02JDPG@rb?$AA@				; `string'
PUBLIC	?id@?$numpunct@D@std@@2V0locale@2@A		; std::numpunct<char>::id
PUBLIC	?id@?$numpunct@_W@std@@2V0locale@2@A		; std::numpunct<wchar_t>::id
PUBLIC	??_C@_0BI@CFPLBAOH@invalid?5string?5position?$AA@ ; `string'
PUBLIC	??_C@_0BA@JFNIOLAK@string?5too?5long?$AA@	; `string'
PUBLIC	??_R4error_category@std@@6B@			; std::error_category::`RTTI Complete Object Locator'
PUBLIC	??_R0?AVerror_category@std@@@8			; std::error_category `RTTI Type Descriptor'
PUBLIC	??_R3error_category@std@@8			; std::error_category::`RTTI Class Hierarchy Descriptor'
PUBLIC	??_R2error_category@std@@8			; std::error_category::`RTTI Base Class Array'
PUBLIC	??_R1A@?0A@EA@error_category@std@@8		; std::error_category::`RTTI Base Class Descriptor at (0,-1,0,64)'
PUBLIC	??_R4_Generic_error_category@std@@6B@		; std::_Generic_error_category::`RTTI Complete Object Locator'
PUBLIC	??_R0?AV_Generic_error_category@std@@@8		; std::_Generic_error_category `RTTI Type Descriptor'
PUBLIC	??_R3_Generic_error_category@std@@8		; std::_Generic_error_category::`RTTI Class Hierarchy Descriptor'
PUBLIC	??_R2_Generic_error_category@std@@8		; std::_Generic_error_category::`RTTI Base Class Array'
PUBLIC	??_R1A@?0A@EA@_Generic_error_category@std@@8	; std::_Generic_error_category::`RTTI Base Class Descriptor at (0,-1,0,64)'
PUBLIC	??_R4_Iostream_error_category@std@@6B@		; std::_Iostream_error_category::`RTTI Complete Object Locator'
PUBLIC	??_R0?AV_Iostream_error_category@std@@@8	; std::_Iostream_error_category `RTTI Type Descriptor'
PUBLIC	??_R3_Iostream_error_category@std@@8		; std::_Iostream_error_category::`RTTI Class Hierarchy Descriptor'
PUBLIC	??_R2_Iostream_error_category@std@@8		; std::_Iostream_error_category::`RTTI Base Class Array'
PUBLIC	??_R1A@?0A@EA@_Iostream_error_category@std@@8	; std::_Iostream_error_category::`RTTI Base Class Descriptor at (0,-1,0,64)'
PUBLIC	??_R4_System_error_category@std@@6B@		; std::_System_error_category::`RTTI Complete Object Locator'
PUBLIC	??_R0?AV_System_error_category@std@@@8		; std::_System_error_category `RTTI Type Descriptor'
PUBLIC	??_R3_System_error_category@std@@8		; std::_System_error_category::`RTTI Class Hierarchy Descriptor'
PUBLIC	??_R2_System_error_category@std@@8		; std::_System_error_category::`RTTI Base Class Array'
PUBLIC	??_R1A@?0A@EA@_System_error_category@std@@8	; std::_System_error_category::`RTTI Base Class Descriptor at (0,-1,0,64)'
PUBLIC	__real@00000000
PUBLIC	__real@0000000000000000
PUBLIC	__real@392c987a
PUBLIC	__real@3f000000
PUBLIC	__real@3f0a35e2
PUBLIC	__real@3f800000
PUBLIC	__real@3ff0000000000000
PUBLIC	__real@3ff921fb54442d18
PUBLIC	__real@400921fb54442d18
PUBLIC	__real@40400000
PUBLIC	__real@40a00000
PUBLIC	__real@40e00000
PUBLIC	__real@41200000
PUBLIC	__real@41a00000
PUBLIC	__real@41b00000
PUBLIC	__real@41c80000
PUBLIC	__real@42200000
PUBLIC	__real@42480000
PUBLIC	__real@42652ee1
PUBLIC	__real@42700000
PUBLIC	__real@43c80000
PUBLIC	__real@8000000000000000
PUBLIC	__real@bff921fb54442d18
EXTRN	__purecall:PROC
EXTRN	??2@YAPAXI@Z:PROC				; operator new
EXTRN	??3@YAXPAX@Z:PROC				; operator delete
EXTRN	_atexit:PROC
EXTRN	___report_rangecheckfailure:PROC
EXTRN	_memcpy:PROC
EXTRN	_memset:PROC
EXTRN	_strlen:PROC
EXTRN	_memmove:PROC
EXTRN	__imp__SetEvent@4:PROC
EXTRN	__imp__PostMessageA@16:PROC
EXTRN	__imp__DefWindowProcA@16:PROC
EXTRN	__imp__ShowWindow@8:PROC
EXTRN	__imp__EndDialog@8:PROC
EXTRN	__imp__GetDlgItem@8:PROC
EXTRN	__imp__CheckDlgButton@12:PROC
EXTRN	__imp__IsDlgButtonChecked@8:PROC
EXTRN	__imp__SetWindowTextA@8:PROC
EXTRN	__imp__GetWindowTextA@12:PROC
EXTRN	__imp__MessageBoxA@16:PROC
EXTRN	_atan:PROC
EXTRN	_fabs:PROC
EXTRN	__time64:PROC
EXTRN	_exit:PROC
EXTRN	_atoi:PROC
EXTRN	__itoa:PROC
EXTRN	_rand:PROC
EXTRN	_srand:PROC
EXTRN	__fcvt:PROC
EXTRN	_fclose:PROC
EXTRN	_fopen:PROC
EXTRN	_fread:PROC
EXTRN	_fwrite:PROC
EXTRN	_sprintf:PROC
EXTRN	?F4IsBadReadPtr@@YA_NPBXI@Z:PROC		; F4IsBadReadPtr
EXTRN	??_U@YAPAXI@Z:PROC				; operator new[]
EXTRN	?_Xbad_alloc@std@@YAXXZ:PROC			; std::_Xbad_alloc
EXTRN	?_Xlength_error@std@@YAXPBD@Z:PROC		; std::_Xlength_error
EXTRN	?_Xout_of_range@std@@YAXPBD@Z:PROC		; std::_Xout_of_range
EXTRN	??0FileMemMap@@QAE@XZ:PROC			; FileMemMap::FileMemMap
EXTRN	??1FileMemMap@@QAE@XZ:PROC			; FileMemMap::~FileMemMap
EXTRN	?Open@FileMemMap@@QAEHPBDHH@Z:PROC		; FileMemMap::Open
EXTRN	?Close@FileMemMap@@QAEXXZ:PROC			; FileMemMap::Close
EXTRN	?GetData@FileMemMap@@QAEPAEHH@Z:PROC		; FileMemMap::GetData
EXTRN	??0VoiceManager@@QAE@XZ:PROC			; VoiceManager::VoiceManager
EXTRN	??1VoiceManager@@QAE@XZ:PROC			; VoiceManager::~VoiceManager
EXTRN	?VMBegin@VoiceManager@@QAEHXZ:PROC		; VoiceManager::VMBegin
EXTRN	?AddToConversationQueue@VoiceManager@@QAEXPAVCONVERSATION@@@Z:PROC ; VoiceManager::AddToConversationQueue
EXTRN	?VMResetVoices@VoiceManager@@QAEXXZ:PROC	; VoiceManager::VMResetVoices
EXTRN	?VMHearVoices@VoiceManager@@QAEXXZ:PROC		; VoiceManager::VMHearVoices
EXTRN	?VMSilenceVoices@VoiceManager@@QAEXXZ:PROC	; VoiceManager::VMSilenceVoices
EXTRN	?RemoveDuplicateMessages@VoiceManager@@QAEXVVU_ID@@0H@Z:PROC ; VoiceManager::RemoveDuplicateMessages
EXTRN	?GetBullseyeLocation@CampaignClass@@QAEXPAF0@Z:PROC ; CampaignClass::GetBullseyeLocation
EXTRN	?Distance@@YAMFFFF@Z:PROC			; Distance
EXTRN	?Distance@@YAMMMMM@Z:PROC			; Distance
EXTRN	?DistSqu@@YAMMMMM@Z:PROC			; DistSqu
EXTRN	?GridToSim@@YAMF@Z:PROC				; GridToSim
EXTRN	?SimToGrid@@YAFM@Z:PROC				; SimToGrid
EXTRN	??_Eerror_category@std@@UAEPAXI@Z:PROC		; std::error_category::`vector deleting destructor'
EXTRN	?_Syserror_map@std@@YAPBDH@Z:PROC		; std::_Syserror_map
EXTRN	?_Winerror_map@std@@YAPBDH@Z:PROC		; std::_Winerror_map
EXTRN	??_E_Generic_error_category@std@@UAEPAXI@Z:PROC	; std::_Generic_error_category::`vector deleting destructor'
EXTRN	??_E_Iostream_error_category@std@@UAEPAXI@Z:PROC ; std::_Iostream_error_category::`vector deleting destructor'
EXTRN	??_E_System_error_category@std@@UAEPAXI@Z:PROC	; std::_System_error_category::`vector deleting destructor'
EXTRN	?NewMessage@RadioSubTitle@@QAEXHHKD@Z:PROC	; RadioSubTitle::NewMessage
EXTRN	?AddToMessage@RadioSubTitle@@QAEXHH@Z:PROC	; RadioSubTitle::AddToMessage
EXTRN	?GetAirbase@NavigationSystem@@QAEXPAVVU_ID@@@Z:PROC ; NavigationSystem::GetAirbase
EXTRN	@__security_check_cookie@4:PROC
EXTRN	__CxxThrowException@8:PROC
EXTRN	___CxxFrameHandler3:PROC
EXTRN	?vuLocalSessionEntity@@3V?$VuBin@VVuSessionEntity@@@@A:DWORD ; vuLocalSessionEntity
EXTRN	?vuNullId@@3VVU_ID@@A:QWORD			; vuNullId
EXTRN	?vuxGameTime@@3KA:DWORD				; vuxGameTime
EXTRN	?FalconNullId@@3VVU_ID@@A:QWORD			; FalconNullId
EXTRN	?FalconDataDirectory@@3PADA:BYTE		; FalconDataDirectory
EXTRN	?PlayerOptions@@3VPlayerOptionsClass@@A:BYTE	; PlayerOptions
EXTRN	??_7type_info@@6B@:QWORD			; type_info::`vftable'
EXTRN	?TheCampaign@@3VCampaignClass@@A:BYTE		; TheCampaign
EXTRN	?FalconDisplay@@3VFalconDisplayConfiguration@@A:BYTE ; FalconDisplay
EXTRN	?currentMode@SimulationLoopControl@@1W4SimLoopControlMode@1@A:DWORD ; SimulationLoopControl::currentMode
EXTRN	?SimDriver@@3VSimulationDriver@@A:BYTE		; SimDriver
EXTRN	?radioLabel@@3PAVRadioSubTitle@@A:DWORD		; radioLabel
EXTRN	?gNavigationSys@@3PAVNavigationSystem@@A:DWORD	; gNavigationSys
EXTRN	?killThread@@3HA:DWORD				; killThread
EXTRN	?RADIO_PROX_RANGE@@3MA:DWORD			; RADIO_PROX_RANGE
EXTRN	?FalconSoundThrDirectory@@3PADA:BYTE		; FalconSoundThrDirectory
EXTRN	?voiceFilter@@3PAVVoiceFilter@@A:DWORD		; voiceFilter
EXTRN	?VMWakeEventHandle@@3PAXA:DWORD			; VMWakeEventHandle
EXTRN	___security_cookie:DWORD
EXTRN	__fltused:DWORD
_BSS	SEGMENT
_piecewise_construct DB 01H DUP (?)
	ALIGN	4

_allocator_arg DB 01H DUP (?)
_BSS	ENDS
;	COMDAT ?_Generic_object@?$_Error_objects@H@std@@2V_Generic_error_category@2@A
_BSS	SEGMENT
?_Generic_object@?$_Error_objects@H@std@@2V_Generic_error_category@2@A DD 01H DUP (?) ; std::_Error_objects<int>::_Generic_object
_BSS	ENDS
;	COMDAT ?_Iostream_object@?$_Error_objects@H@std@@2V_Iostream_error_category@2@A
_BSS	SEGMENT
?_Iostream_object@?$_Error_objects@H@std@@2V_Iostream_error_category@2@A DD 01H DUP (?) ; std::_Error_objects<int>::_Iostream_object
_BSS	ENDS
;	COMDAT ?_System_object@?$_Error_objects@H@std@@2V_System_error_category@2@A
_BSS	SEGMENT
?_System_object@?$_Error_objects@H@std@@2V_System_error_category@2@A DD 01H DUP (?) ; std::_Error_objects<int>::_System_object
_BSS	ENDS
;	COMDAT ?id@?$num_put@DV?$back_insert_iterator@V?$basic_string@DU?$char_traits@D@std@@V?$allocator@D@2@@std@@@std@@@std@@2V0locale@2@A
_BSS	SEGMENT
?id@?$num_put@DV?$back_insert_iterator@V?$basic_string@DU?$char_traits@D@std@@V?$allocator@D@2@@std@@@std@@@std@@2V0locale@2@A DD 01H DUP (?) ; std::num_put<char,std::back_insert_iterator<std::basic_string<char,std::char_traits<char>,std::allocator<char> > > >::id
_BSS	ENDS
;	COMDAT ?id@?$num_put@_WV?$back_insert_iterator@V?$basic_string@_WU?$char_traits@_W@std@@V?$allocator@_W@2@@std@@@std@@@std@@2V0locale@2@A
_BSS	SEGMENT
?id@?$num_put@_WV?$back_insert_iterator@V?$basic_string@_WU?$char_traits@_W@std@@V?$allocator@_W@2@@std@@@std@@@std@@2V0locale@2@A DD 01H DUP (?) ; std::num_put<wchar_t,std::back_insert_iterator<std::basic_string<wchar_t,std::char_traits<wchar_t>,std::allocator<wchar_t> > > >::id
_BSS	ENDS
;	COMDAT ?id@?$numpunct@D@std@@2V0locale@2@A
_BSS	SEGMENT
?id@?$numpunct@D@std@@2V0locale@2@A DD 01H DUP (?)	; std::numpunct<char>::id
_BSS	ENDS
;	COMDAT ?id@?$numpunct@_W@std@@2V0locale@2@A
_BSS	SEGMENT
?id@?$numpunct@_W@std@@2V0locale@2@A DD 01H DUP (?)	; std::numpunct<wchar_t>::id
_BSS	ENDS
CRT$XCU	SEGMENT
_piecewise_construct$initializer$ DD FLAT:??__Epiecewise_construct@std@@YAXXZ
CRT$XCU	ENDS
;	COMDAT __real@bff921fb54442d18
CONST	SEGMENT
__real@bff921fb54442d18 DQ 0bff921fb54442d18r	; -1.5708
CONST	ENDS
;	COMDAT __real@8000000000000000
CONST	SEGMENT
__real@8000000000000000 DQ 08000000000000000r	; -0
CONST	ENDS
;	COMDAT __real@43c80000
CONST	SEGMENT
__real@43c80000 DD 043c80000r			; 400
CONST	ENDS
;	COMDAT __real@42700000
CONST	SEGMENT
__real@42700000 DD 042700000r			; 60
CONST	ENDS
;	COMDAT __real@42652ee1
CONST	SEGMENT
__real@42652ee1 DD 042652ee1r			; 57.2958
CONST	ENDS
;	COMDAT __real@42480000
CONST	SEGMENT
__real@42480000 DD 042480000r			; 50
CONST	ENDS
;	COMDAT __real@42200000
CONST	SEGMENT
__real@42200000 DD 042200000r			; 40
CONST	ENDS
;	COMDAT __real@41c80000
CONST	SEGMENT
__real@41c80000 DD 041c80000r			; 25
CONST	ENDS
;	COMDAT __real@41b00000
CONST	SEGMENT
__real@41b00000 DD 041b00000r			; 22
CONST	ENDS
;	COMDAT __real@41a00000
CONST	SEGMENT
__real@41a00000 DD 041a00000r			; 20
CONST	ENDS
;	COMDAT __real@41200000
CONST	SEGMENT
__real@41200000 DD 041200000r			; 10
CONST	ENDS
;	COMDAT __real@40e00000
CONST	SEGMENT
__real@40e00000 DD 040e00000r			; 7
CONST	ENDS
;	COMDAT __real@40a00000
CONST	SEGMENT
__real@40a00000 DD 040a00000r			; 5
CONST	ENDS
;	COMDAT __real@40400000
CONST	SEGMENT
__real@40400000 DD 040400000r			; 3
CONST	ENDS
;	COMDAT __real@400921fb54442d18
CONST	SEGMENT
__real@400921fb54442d18 DQ 0400921fb54442d18r	; 3.14159
CONST	ENDS
;	COMDAT __real@3ff921fb54442d18
CONST	SEGMENT
__real@3ff921fb54442d18 DQ 03ff921fb54442d18r	; 1.5708
CONST	ENDS
;	COMDAT __real@3ff0000000000000
CONST	SEGMENT
__real@3ff0000000000000 DQ 03ff0000000000000r	; 1
CONST	ENDS
;	COMDAT __real@3f800000
CONST	SEGMENT
__real@3f800000 DD 03f800000r			; 1
CONST	ENDS
;	COMDAT __real@3f0a35e2
CONST	SEGMENT
__real@3f0a35e2 DD 03f0a35e2r			; 0.539885
CONST	ENDS
;	COMDAT __real@3f000000
CONST	SEGMENT
__real@3f000000 DD 03f000000r			; 0.5
CONST	ENDS
;	COMDAT __real@392c987a
CONST	SEGMENT
__real@392c987a DD 0392c987ar			; 0.0001646
CONST	ENDS
;	COMDAT __real@0000000000000000
CONST	SEGMENT
__real@0000000000000000 DQ 00000000000000000r	; 0
CONST	ENDS
;	COMDAT __real@00000000
CONST	SEGMENT
__real@00000000 DD 000000000r			; 0
CONST	ENDS
;	COMDAT ??_R1A@?0A@EA@_System_error_category@std@@8
rdata$r	SEGMENT
??_R1A@?0A@EA@_System_error_category@std@@8 DD FLAT:??_R0?AV_System_error_category@std@@@8 ; std::_System_error_category::`RTTI Base Class Descriptor at (0,-1,0,64)'
	DD	02H
	DD	00H
	DD	0ffffffffH
	DD	00H
	DD	040H
	DD	FLAT:??_R3_System_error_category@std@@8
rdata$r	ENDS
;	COMDAT ??_R2_System_error_category@std@@8
rdata$r	SEGMENT
??_R2_System_error_category@std@@8 DD FLAT:??_R1A@?0A@EA@_System_error_category@std@@8 ; std::_System_error_category::`RTTI Base Class Array'
	DD	FLAT:??_R1A@?0A@EA@_Generic_error_category@std@@8
	DD	FLAT:??_R1A@?0A@EA@error_category@std@@8
rdata$r	ENDS
;	COMDAT ??_R3_System_error_category@std@@8
rdata$r	SEGMENT
??_R3_System_error_category@std@@8 DD 00H		; std::_System_error_category::`RTTI Class Hierarchy Descriptor'
	DD	00H
	DD	03H
	DD	FLAT:??_R2_System_error_category@std@@8
rdata$r	ENDS
;	COMDAT ??_R0?AV_System_error_category@std@@@8
_DATA	SEGMENT
??_R0?AV_System_error_category@std@@@8 DD FLAT:??_7type_info@@6B@ ; std::_System_error_category `RTTI Type Descriptor'
	DD	00H
	DB	'.?AV_System_error_category@std@@', 00H
_DATA	ENDS
;	COMDAT ??_R4_System_error_category@std@@6B@
rdata$r	SEGMENT
??_R4_System_error_category@std@@6B@ DD 00H		; std::_System_error_category::`RTTI Complete Object Locator'
	DD	00H
	DD	00H
	DD	FLAT:??_R0?AV_System_error_category@std@@@8
	DD	FLAT:??_R3_System_error_category@std@@8
rdata$r	ENDS
;	COMDAT ??_R1A@?0A@EA@_Iostream_error_category@std@@8
rdata$r	SEGMENT
??_R1A@?0A@EA@_Iostream_error_category@std@@8 DD FLAT:??_R0?AV_Iostream_error_category@std@@@8 ; std::_Iostream_error_category::`RTTI Base Class Descriptor at (0,-1,0,64)'
	DD	02H
	DD	00H
	DD	0ffffffffH
	DD	00H
	DD	040H
	DD	FLAT:??_R3_Iostream_error_category@std@@8
rdata$r	ENDS
;	COMDAT ??_R2_Iostream_error_category@std@@8
rdata$r	SEGMENT
??_R2_Iostream_error_category@std@@8 DD FLAT:??_R1A@?0A@EA@_Iostream_error_category@std@@8 ; std::_Iostream_error_category::`RTTI Base Class Array'
	DD	FLAT:??_R1A@?0A@EA@_Generic_error_category@std@@8
	DD	FLAT:??_R1A@?0A@EA@error_category@std@@8
rdata$r	ENDS
;	COMDAT ??_R3_Iostream_error_category@std@@8
rdata$r	SEGMENT
??_R3_Iostream_error_category@std@@8 DD 00H		; std::_Iostream_error_category::`RTTI Class Hierarchy Descriptor'
	DD	00H
	DD	03H
	DD	FLAT:??_R2_Iostream_error_category@std@@8
rdata$r	ENDS
;	COMDAT ??_R0?AV_Iostream_error_category@std@@@8
_DATA	SEGMENT
??_R0?AV_Iostream_error_category@std@@@8 DD FLAT:??_7type_info@@6B@ ; std::_Iostream_error_category `RTTI Type Descriptor'
	DD	00H
	DB	'.?AV_Iostream_error_category@std@@', 00H
_DATA	ENDS
;	COMDAT ??_R4_Iostream_error_category@std@@6B@
rdata$r	SEGMENT
??_R4_Iostream_error_category@std@@6B@ DD 00H		; std::_Iostream_error_category::`RTTI Complete Object Locator'
	DD	00H
	DD	00H
	DD	FLAT:??_R0?AV_Iostream_error_category@std@@@8
	DD	FLAT:??_R3_Iostream_error_category@std@@8
rdata$r	ENDS
;	COMDAT ??_R1A@?0A@EA@_Generic_error_category@std@@8
rdata$r	SEGMENT
??_R1A@?0A@EA@_Generic_error_category@std@@8 DD FLAT:??_R0?AV_Generic_error_category@std@@@8 ; std::_Generic_error_category::`RTTI Base Class Descriptor at (0,-1,0,64)'
	DD	01H
	DD	00H
	DD	0ffffffffH
	DD	00H
	DD	040H
	DD	FLAT:??_R3_Generic_error_category@std@@8
rdata$r	ENDS
;	COMDAT ??_R2_Generic_error_category@std@@8
rdata$r	SEGMENT
??_R2_Generic_error_category@std@@8 DD FLAT:??_R1A@?0A@EA@_Generic_error_category@std@@8 ; std::_Generic_error_category::`RTTI Base Class Array'
	DD	FLAT:??_R1A@?0A@EA@error_category@std@@8
rdata$r	ENDS
;	COMDAT ??_R3_Generic_error_category@std@@8
rdata$r	SEGMENT
??_R3_Generic_error_category@std@@8 DD 00H		; std::_Generic_error_category::`RTTI Class Hierarchy Descriptor'
	DD	00H
	DD	02H
	DD	FLAT:??_R2_Generic_error_category@std@@8
rdata$r	ENDS
;	COMDAT ??_R0?AV_Generic_error_category@std@@@8
_DATA	SEGMENT
??_R0?AV_Generic_error_category@std@@@8 DD FLAT:??_7type_info@@6B@ ; std::_Generic_error_category `RTTI Type Descriptor'
	DD	00H
	DB	'.?AV_Generic_error_category@std@@', 00H
_DATA	ENDS
;	COMDAT ??_R4_Generic_error_category@std@@6B@
rdata$r	SEGMENT
??_R4_Generic_error_category@std@@6B@ DD 00H		; std::_Generic_error_category::`RTTI Complete Object Locator'
	DD	00H
	DD	00H
	DD	FLAT:??_R0?AV_Generic_error_category@std@@@8
	DD	FLAT:??_R3_Generic_error_category@std@@8
rdata$r	ENDS
;	COMDAT ??_R1A@?0A@EA@error_category@std@@8
rdata$r	SEGMENT
??_R1A@?0A@EA@error_category@std@@8 DD FLAT:??_R0?AVerror_category@std@@@8 ; std::error_category::`RTTI Base Class Descriptor at (0,-1,0,64)'
	DD	00H
	DD	00H
	DD	0ffffffffH
	DD	00H
	DD	040H
	DD	FLAT:??_R3error_category@std@@8
rdata$r	ENDS
;	COMDAT ??_R2error_category@std@@8
rdata$r	SEGMENT
??_R2error_category@std@@8 DD FLAT:??_R1A@?0A@EA@error_category@std@@8 ; std::error_category::`RTTI Base Class Array'
rdata$r	ENDS
;	COMDAT ??_R3error_category@std@@8
rdata$r	SEGMENT
??_R3error_category@std@@8 DD 00H			; std::error_category::`RTTI Class Hierarchy Descriptor'
	DD	00H
	DD	01H
	DD	FLAT:??_R2error_category@std@@8
rdata$r	ENDS
;	COMDAT ??_R0?AVerror_category@std@@@8
_DATA	SEGMENT
??_R0?AVerror_category@std@@@8 DD FLAT:??_7type_info@@6B@ ; std::error_category `RTTI Type Descriptor'
	DD	00H
	DB	'.?AVerror_category@std@@', 00H
_DATA	ENDS
;	COMDAT ??_R4error_category@std@@6B@
rdata$r	SEGMENT
??_R4error_category@std@@6B@ DD 00H			; std::error_category::`RTTI Complete Object Locator'
	DD	00H
	DD	00H
	DD	FLAT:??_R0?AVerror_category@std@@@8
	DD	FLAT:??_R3error_category@std@@8
rdata$r	ENDS
;	COMDAT ??_C@_0BA@JFNIOLAK@string?5too?5long?$AA@
CONST	SEGMENT
??_C@_0BA@JFNIOLAK@string?5too?5long?$AA@ DB 'string too long', 00H ; `string'
CONST	ENDS
;	COMDAT ??_C@_0BI@CFPLBAOH@invalid?5string?5position?$AA@
CONST	SEGMENT
??_C@_0BI@CFPLBAOH@invalid?5string?5position?$AA@ DB 'invalid string posi'
	DB	'tion', 00H					; `string'
CONST	ENDS
;	COMDAT ??_C@_02JDPG@rb?$AA@
CONST	SEGMENT
??_C@_02JDPG@rb?$AA@ DB 'rb', 00H			; `string'
CONST	ENDS
;	COMDAT ??_C@_02GMLFBBN@wb?$AA@
CONST	SEGMENT
??_C@_02GMLFBBN@wb?$AA@ DB 'wb', 00H			; `string'
CONST	ENDS
;	COMDAT ??_C@_0BB@HPCAMMON@?$CFs?2VoiceTool?4sav?$AA@
CONST	SEGMENT
??_C@_0BB@HPCAMMON@?$CFs?2VoiceTool?4sav?$AA@ DB '%s\VoiceTool.sav', 00H ; `string'
CONST	ENDS
;	COMDAT ??_C@_0BI@NLNFMLMM@Can?8t?5open?5fragFile?4bin?$AA@
CONST	SEGMENT
??_C@_0BI@NLNFMLMM@Can?8t?5open?5fragFile?4bin?$AA@ DB 'Can''t open fragF'
	DB	'ile.bin', 00H				; `string'
CONST	ENDS
;	COMDAT ??_C@_0BA@IFFONFLD@?$CFs?2fragFile?4bin?$AA@
CONST	SEGMENT
??_C@_0BA@IFFONFLD@?$CFs?2fragFile?4bin?$AA@ DB '%s\fragFile.bin', 00H ; `string'
CONST	ENDS
;	COMDAT ??_C@_0BI@JNPJGHIK@Can?8t?5open?5evalFile?4bin?$AA@
CONST	SEGMENT
??_C@_0BI@JNPJGHIK@Can?8t?5open?5evalFile?4bin?$AA@ DB 'Can''t open evalF'
	DB	'ile.bin', 00H				; `string'
CONST	ENDS
;	COMDAT ??_C@_0BA@MDHCHJPF@?$CFs?2evalFile?4bin?$AA@
CONST	SEGMENT
??_C@_0BA@MDHCHJPF@?$CFs?2evalFile?4bin?$AA@ DB '%s\evalFile.bin', 00H ; `string'
CONST	ENDS
;	COMDAT ??_C@_0BI@MLIEBEGA@Can?8t?5open?5commfile?4bin?$AA@
CONST	SEGMENT
??_C@_0BI@MLIEBEGA@Can?8t?5open?5commfile?4bin?$AA@ DB 'Can''t open commf'
	DB	'ile.bin', 00H				; `string'
CONST	ENDS
;	COMDAT ??_C@_0BE@FGKKLFGH@Error?3?5?5?$CF0d?5?5?$CFs?5?5?$CFs?$AA@
CONST	SEGMENT
??_C@_0BE@FGKKLFGH@Error?3?5?5?$CF0d?5?5?$CFs?5?5?$CFs?$AA@ DB 'Error:  %'
	DB	'0d  %s  %s', 00H				; `string'
CONST	ENDS
;	COMDAT ??_C@_0BA@JKMMDDKC@voiceFilter?4cpp?$AA@
CONST	SEGMENT
??_C@_0BA@JKMMDDKC@voiceFilter?4cpp?$AA@ DB 'voiceFilter.cpp', 00H ; `string'
CONST	ENDS
;	COMDAT ??_C@_0M@CFLADCE@Feb?518?52013?$AA@
CONST	SEGMENT
??_C@_0M@CFLADCE@Feb?518?52013?$AA@ DB 'Feb 18 2013', 00H ; `string'
CONST	ENDS
;	COMDAT ??_C@_0BA@BHPOIILM@?$CFs?2commFile?4bin?$AA@
CONST	SEGMENT
??_C@_0BA@BHPOIILM@?$CFs?2commFile?4bin?$AA@ DB '%s\commFile.bin', 00H ; `string'
CONST	ENDS
;	COMDAT ??_C@_06FHFOAHML@system?$AA@
CONST	SEGMENT
??_C@_06FHFOAHML@system?$AA@ DB 'system', 00H		; `string'
CONST	ENDS
;	COMDAT ??_7_System_error_category@std@@6B@
CONST	SEGMENT
??_7_System_error_category@std@@6B@ DD FLAT:??_R4_System_error_category@std@@6B@ ; std::_System_error_category::`vftable'
	DD	FLAT:??_E_System_error_category@std@@UAEPAXI@Z
	DD	FLAT:?name@_System_error_category@std@@UBEPBDXZ
	DD	FLAT:?message@_System_error_category@std@@UBE?AV?$basic_string@DU?$char_traits@D@std@@V?$allocator@D@2@@2@H@Z
	DD	FLAT:?default_error_condition@_System_error_category@std@@UBE?AVerror_condition@2@H@Z
	DD	FLAT:?equivalent@error_category@std@@UBE_NABVerror_code@2@H@Z
	DD	FLAT:?equivalent@error_category@std@@UBE_NHABVerror_condition@2@@Z
CONST	ENDS
;	COMDAT ??_C@_0BG@PADBLCHM@iostream?5stream?5error?$AA@
CONST	SEGMENT
??_C@_0BG@PADBLCHM@iostream?5stream?5error?$AA@ DB 'iostream stream error'
	DB	00H						; `string'
CONST	ENDS
;	COMDAT ??_C@_08LLGCOLLL@iostream?$AA@
CONST	SEGMENT
??_C@_08LLGCOLLL@iostream?$AA@ DB 'iostream', 00H	; `string'
CONST	ENDS
;	COMDAT ??_7_Iostream_error_category@std@@6B@
CONST	SEGMENT
??_7_Iostream_error_category@std@@6B@ DD FLAT:??_R4_Iostream_error_category@std@@6B@ ; std::_Iostream_error_category::`vftable'
	DD	FLAT:??_E_Iostream_error_category@std@@UAEPAXI@Z
	DD	FLAT:?name@_Iostream_error_category@std@@UBEPBDXZ
	DD	FLAT:?message@_Iostream_error_category@std@@UBE?AV?$basic_string@DU?$char_traits@D@std@@V?$allocator@D@2@@2@H@Z
	DD	FLAT:?default_error_condition@error_category@std@@UBE?AVerror_condition@2@H@Z
	DD	FLAT:?equivalent@error_category@std@@UBE_NABVerror_code@2@H@Z
	DD	FLAT:?equivalent@error_category@std@@UBE_NHABVerror_condition@2@@Z
CONST	ENDS
;	COMDAT ??_C@_0O@BFJCFAAK@unknown?5error?$AA@
CONST	SEGMENT
??_C@_0O@BFJCFAAK@unknown?5error?$AA@ DB 'unknown error', 00H ; `string'
CONST	ENDS
;	COMDAT ??_C@_07DCLBNMLN@generic?$AA@
CONST	SEGMENT
??_C@_07DCLBNMLN@generic?$AA@ DB 'generic', 00H		; `string'
CONST	ENDS
;	COMDAT ??_7_Generic_error_category@std@@6B@
CONST	SEGMENT
??_7_Generic_error_category@std@@6B@ DD FLAT:??_R4_Generic_error_category@std@@6B@ ; std::_Generic_error_category::`vftable'
	DD	FLAT:??_E_Generic_error_category@std@@UAEPAXI@Z
	DD	FLAT:?name@_Generic_error_category@std@@UBEPBDXZ
	DD	FLAT:?message@_Generic_error_category@std@@UBE?AV?$basic_string@DU?$char_traits@D@std@@V?$allocator@D@2@@2@H@Z
	DD	FLAT:?default_error_condition@error_category@std@@UBE?AVerror_condition@2@H@Z
	DD	FLAT:?equivalent@error_category@std@@UBE_NABVerror_code@2@H@Z
	DD	FLAT:?equivalent@error_category@std@@UBE_NHABVerror_condition@2@@Z
CONST	ENDS
;	COMDAT ??_7error_category@std@@6B@
CONST	SEGMENT
??_7error_category@std@@6B@ DD FLAT:??_R4error_category@std@@6B@ ; std::error_category::`vftable'
	DD	FLAT:??_Eerror_category@std@@UAEPAXI@Z
	DD	FLAT:__purecall
	DD	FLAT:__purecall
	DD	FLAT:?default_error_condition@error_category@std@@UBE?AVerror_condition@2@H@Z
	DD	FLAT:?equivalent@error_category@std@@UBE_NABVerror_code@2@H@Z
	DD	FLAT:?equivalent@error_category@std@@UBE_NHABVerror_condition@2@@Z
CONST	ENDS
;	COMDAT ??_C@_00CNPNBAHC@?$AA@
CONST	SEGMENT
??_C@_00CNPNBAHC@?$AA@ DB 00H				; `string'
CONST	ENDS
;	COMDAT xdata$x
xdata$x	SEGMENT
__unwindtable$??$construct@PADAAPAD@?$allocator@D@std@@QAEXPAPADAAPAD@Z DD 0ffffffffH
	DD	FLAT:__unwindfunclet$??$construct@PADAAPAD@?$allocator@D@std@@QAEXPAPADAAPAD@Z$0
__ehfuncinfo$??$construct@PADAAPAD@?$allocator@D@std@@QAEXPAPADAAPAD@Z DD 019930522H
	DD	01H
	DD	FLAT:__unwindtable$??$construct@PADAAPAD@?$allocator@D@std@@QAEXPAPADAAPAD@Z
	DD	2 DUP(00H)
	DD	2 DUP(00H)
	DD	00H
	DD	01H
xdata$x	ENDS
xdata$x	SEGMENT
__unwindtable$?StartVoiceManager@VoiceFilter@@QAEXXZ DD 0ffffffffH
	DD	FLAT:__unwindfunclet$?StartVoiceManager@VoiceFilter@@QAEXXZ$0
__unwindtable$??0VoiceFilter@@QAE@XZ DD 0ffffffffH
	DD	FLAT:__unwindfunclet$??0VoiceFilter@@QAE@XZ$0
	DD	00H
	DD	FLAT:__unwindfunclet$??0VoiceFilter@@QAE@XZ$1
__unwindtable$??1VoiceFilter@@QAE@XZ DD 0ffffffffH
	DD	FLAT:__unwindfunclet$??1VoiceFilter@@QAE@XZ$0
	DD	00H
	DD	FLAT:__unwindfunclet$??1VoiceFilter@@QAE@XZ$1
	DD	01H
	DD	FLAT:__unwindfunclet$??1VoiceFilter@@QAE@XZ$2
__ehfuncinfo$?StartVoiceManager@VoiceFilter@@QAEXXZ DD 019930522H
	DD	01H
	DD	FLAT:__unwindtable$?StartVoiceManager@VoiceFilter@@QAEXXZ
	DD	2 DUP(00H)
	DD	2 DUP(00H)
	DD	00H
	DD	01H
__ehfuncinfo$??1VoiceFilter@@QAE@XZ DD 019930522H
	DD	03H
	DD	FLAT:__unwindtable$??1VoiceFilter@@QAE@XZ
	DD	2 DUP(00H)
	DD	2 DUP(00H)
	DD	00H
	DD	01H
__ehfuncinfo$??0VoiceFilter@@QAE@XZ DD 019930522H
	DD	02H
	DD	FLAT:__unwindtable$??0VoiceFilter@@QAE@XZ
	DD	2 DUP(00H)
	DD	2 DUP(00H)
	DD	00H
	DD	01H
xdata$x	ENDS
;	COMDAT xdata$x
xdata$x	SEGMENT
__catchsym$?_Copy@?$basic_string@DU?$char_traits@D@std@@V?$allocator@D@2@@std@@QAEXII@Z$5 DD 040H
	DD	00H
	DD	00H
	DD	FLAT:__catch$?_Copy@?$basic_string@DU?$char_traits@D@std@@V?$allocator@D@2@@std@@QAEXII@Z$0
__catchsym$?_Copy@?$basic_string@DU?$char_traits@D@std@@V?$allocator@D@2@@std@@QAEXII@Z$4 DD 040H
	DD	00H
	DD	00H
	DD	FLAT:__catch$?_Copy@?$basic_string@DU?$char_traits@D@std@@V?$allocator@D@2@@std@@QAEXII@Z$1
__unwindtable$?_Copy@?$basic_string@DU?$char_traits@D@std@@V?$allocator@D@2@@std@@QAEXII@Z DD 0ffffffffH
	DD	00H
	DD	0ffffffffH
	DD	00H
	DD	01H
	DD	00H
	DD	01H
	DD	00H
__ehfuncinfo$?_Copy@?$basic_string@DU?$char_traits@D@std@@V?$allocator@D@2@@std@@QAEXII@Z DD 019930522H
	DD	04H
	DD	FLAT:__unwindtable$?_Copy@?$basic_string@DU?$char_traits@D@std@@V?$allocator@D@2@@std@@QAEXII@Z
	DD	02H
	DD	FLAT:__tryblocktable$?_Copy@?$basic_string@DU?$char_traits@D@std@@V?$allocator@D@2@@std@@QAEXII@Z
	DD	2 DUP(00H)
	DD	00H
	DD	01H
__tryblocktable$?_Copy@?$basic_string@DU?$char_traits@D@std@@V?$allocator@D@2@@std@@QAEXII@Z DD 02H
	DD	02H
	DD	03H
	DD	01H
	DD	FLAT:__catchsym$?_Copy@?$basic_string@DU?$char_traits@D@std@@V?$allocator@D@2@@std@@QAEXII@Z$4
	DD	00H
	DD	00H
	DD	03H
	DD	01H
	DD	FLAT:__catchsym$?_Copy@?$basic_string@DU?$char_traits@D@std@@V?$allocator@D@2@@std@@QAEXII@Z$5
xdata$x	ENDS
CRT$XCU	SEGMENT
_allocator_arg$initializer$ DD FLAT:??__Eallocator_arg@std@@YAXXZ
CRT$XCU	ENDS
;	COMDAT CRT$XCU
CRT$XCU	SEGMENT
?_Generic_object$initializer$@?$_Error_objects@H@std@@2P6AXXZA DD FLAT:??__E?_Generic_object@?$_Error_objects@H@std@@2V_Generic_error_category@2@A@@YAXXZ ; std::_Error_objects<int>::_Generic_object$initializer$
CRT$XCU	ENDS
;	COMDAT CRT$XCU
CRT$XCU	SEGMENT
?_Iostream_object$initializer$@?$_Error_objects@H@std@@2P6AXXZA DD FLAT:??__E?_Iostream_object@?$_Error_objects@H@std@@2V_Iostream_error_category@2@A@@YAXXZ ; std::_Error_objects<int>::_Iostream_object$initializer$
CRT$XCU	ENDS
;	COMDAT CRT$XCU
CRT$XCU	SEGMENT
?_System_object$initializer$@?$_Error_objects@H@std@@2P6AXXZA DD FLAT:??__E?_System_object@?$_Error_objects@H@std@@2V_System_error_category@2@A@@YAXXZ ; std::_Error_objects<int>::_System_object$initializer$
CRT$XCU	ENDS
;	COMDAT CRT$XCU
CRT$XCU	SEGMENT
?id$initializer$@?$num_put@DV?$back_insert_iterator@V?$basic_string@DU?$char_traits@D@std@@V?$allocator@D@2@@std@@@std@@@std@@2P6AXXZA DD FLAT:??__E?id@?$num_put@DV?$back_insert_iterator@V?$basic_string@DU?$char_traits@D@std@@V?$allocator@D@2@@std@@@std@@@std@@2V0locale@2@A@@YAXXZ ; std::num_put<char,std::back_insert_iterator<std::basic_string<char,std::char_traits<char>,std::allocator<char> > > >::id$initializer$
CRT$XCU	ENDS
;	COMDAT CRT$XCU
CRT$XCU	SEGMENT
?id$initializer$@?$num_put@_WV?$back_insert_iterator@V?$basic_string@_WU?$char_traits@_W@std@@V?$allocator@_W@2@@std@@@std@@@std@@2P6AXXZA DD FLAT:??__E?id@?$num_put@_WV?$back_insert_iterator@V?$basic_string@_WU?$char_traits@_W@std@@V?$allocator@_W@2@@std@@@std@@@std@@2V0locale@2@A@@YAXXZ ; std::num_put<wchar_t,std::back_insert_iterator<std::basic_string<wchar_t,std::char_traits<wchar_t>,std::allocator<wchar_t> > > >::id$initializer$
CRT$XCU	ENDS
;	COMDAT CRT$XCU
CRT$XCU	SEGMENT
?id$initializer$@?$numpunct@D@std@@2P6AXXZA DD FLAT:??__E?id@?$numpunct@D@std@@2V0locale@2@A@@YAXXZ ; std::numpunct<char>::id$initializer$
CRT$XCU	ENDS
;	COMDAT CRT$XCU
CRT$XCU	SEGMENT
?id$initializer$@?$numpunct@_W@std@@2P6AXXZA DD FLAT:??__E?id@?$numpunct@_W@std@@2V0locale@2@A@@YAXXZ ; std::numpunct<wchar_t>::id$initializer$
CRT$XCU	ENDS
; Function compile flags: /Odtp
; File c:\program files (x86)\microsoft visual studio 11.0\vc\include\xmemory0
;	COMDAT ??$destroy@PAD@?$allocator@D@std@@QAEXPAPAD@Z
_TEXT	SEGMENT
_this$ = -4						; size = 4
__Ptr$ = 8						; size = 4
??$destroy@PAD@?$allocator@D@std@@QAEXPAPAD@Z PROC	; std::allocator<char>::destroy<char *>, COMDAT
; _this$ = ecx

; 621  : 		void destroy(_Uty *_Ptr)

	push	ebp
	mov	ebp, esp
	push	ecx
	mov	DWORD PTR _this$[ebp], ecx

; 622  : 		{	// destroy object at _Ptr
; 623  : 		_Ptr->~_Uty();
; 624  : 		}

	mov	esp, ebp
	pop	ebp
	ret	4
??$destroy@PAD@?$allocator@D@std@@QAEXPAPAD@Z ENDP	; std::allocator<char>::destroy<char *>
_TEXT	ENDS
; Function compile flags: /Odtp
; File c:\program files (x86)\microsoft visual studio 11.0\vc\include\xmemory0
;	COMDAT ??$construct@PADAAPAD@?$allocator@D@std@@QAEXPAPADAAPAD@Z
_TEXT	SEGMENT
$T2 = -28						; size = 4
_this$ = -24						; size = 4
tv73 = -20						; size = 4
$T3 = -16						; size = 4
__$EHRec$ = -12						; size = 12
__Ptr$ = 8						; size = 4
__V0$ = 12						; size = 4
??$construct@PADAAPAD@?$allocator@D@std@@QAEXPAPADAAPAD@Z PROC ; std::allocator<char>::construct<char *,char * &>, COMDAT
; _this$ = ecx

; 617  : _VARIADIC_EXPAND_0X(_ALLOC_MEMBER_CONSTRUCT, , , , )

	push	ebp
	mov	ebp, esp
	push	-1
	push	__ehhandler$??$construct@PADAAPAD@?$allocator@D@std@@QAEXPAPADAAPAD@Z
	mov	eax, DWORD PTR fs:0
	push	eax
	sub	esp, 16					; 00000010H
	mov	eax, DWORD PTR ___security_cookie
	xor	eax, ebp
	push	eax
	lea	eax, DWORD PTR __$EHRec$[ebp]
	mov	DWORD PTR fs:0, eax
	mov	DWORD PTR _this$[ebp], ecx
	mov	eax, DWORD PTR __Ptr$[ebp]
	push	eax
	push	4
	call	??2@YAPAXIPAX@Z				; operator new
	add	esp, 8
	mov	DWORD PTR $T3[ebp], eax
	mov	DWORD PTR __$EHRec$[ebp+8], 0
	cmp	DWORD PTR $T3[ebp], 0
	je	SHORT $LN3@construct
	mov	ecx, DWORD PTR __V0$[ebp]
	push	ecx
	call	??$forward@AAPAD@std@@YAAAPADAAPAD@Z	; std::forward<char * &>
	add	esp, 4
	mov	edx, DWORD PTR $T3[ebp]
	mov	eax, DWORD PTR [eax]
	mov	DWORD PTR [edx], eax
	mov	ecx, DWORD PTR $T3[ebp]
	mov	DWORD PTR tv73[ebp], ecx
	jmp	SHORT $LN4@construct
$LN3@construct:
	mov	DWORD PTR tv73[ebp], 0
$LN4@construct:
	mov	edx, DWORD PTR tv73[ebp]
	mov	DWORD PTR $T2[ebp], edx
	mov	DWORD PTR __$EHRec$[ebp+8], -1
	mov	ecx, DWORD PTR __$EHRec$[ebp]
	mov	DWORD PTR fs:0, ecx
	pop	ecx
	mov	esp, ebp
	pop	ebp
	ret	8
_TEXT	ENDS
;	COMDAT text$x
text$x	SEGMENT
__unwindfunclet$??$construct@PADAAPAD@?$allocator@D@std@@QAEXPAPADAAPAD@Z$0:
	mov	eax, DWORD PTR __Ptr$[ebp]
	push	eax
	mov	eax, DWORD PTR $T3[ebp]
	push	eax
	call	??3@YAXPAX0@Z				; operator delete
	add	esp, 8
	ret	0
__ehhandler$??$construct@PADAAPAD@?$allocator@D@std@@QAEXPAPADAAPAD@Z:
	mov	edx, DWORD PTR [esp+8]
	lea	eax, DWORD PTR [edx+12]
	mov	ecx, DWORD PTR [edx-20]
	xor	ecx, eax
	call	@__security_check_cookie@4
	mov	eax, OFFSET __ehfuncinfo$??$construct@PADAAPAD@?$allocator@D@std@@QAEXPAPADAAPAD@Z
	jmp	___CxxFrameHandler3
text$x	ENDS
??$construct@PADAAPAD@?$allocator@D@std@@QAEXPAPADAAPAD@Z ENDP ; std::allocator<char>::construct<char *,char * &>
; Function compile flags: /Odtp
; File c:\program files (x86)\microsoft visual studio 11.0\vc\include\xlocnum
;	COMDAT ??__E?id@?$numpunct@_W@std@@2V0locale@2@A@@YAXXZ
text$yc	SEGMENT
??__E?id@?$numpunct@_W@std@@2V0locale@2@A@@YAXXZ PROC	; `dynamic initializer for 'std::numpunct<wchar_t>::id'', COMDAT

; 155  : 		void _Getvals(wchar_t, const lconv *_Ptr, _Locinfo::_Cvtvec)

	push	ebp
	mov	ebp, esp
	push	0
	mov	ecx, OFFSET ?id@?$numpunct@_W@std@@2V0locale@2@A ; std::numpunct<wchar_t>::id
	call	??0id@locale@std@@QAE@I@Z		; std::locale::id::id
	pop	ebp
	ret	0
??__E?id@?$numpunct@_W@std@@2V0locale@2@A@@YAXXZ ENDP	; `dynamic initializer for 'std::numpunct<wchar_t>::id''
text$yc	ENDS
; Function compile flags: /Odtp
; File c:\program files (x86)\microsoft visual studio 11.0\vc\include\xlocnum
;	COMDAT ??__E?id@?$numpunct@D@std@@2V0locale@2@A@@YAXXZ
text$yc	SEGMENT
??__E?id@?$numpunct@D@std@@2V0locale@2@A@@YAXXZ PROC	; `dynamic initializer for 'std::numpunct<char>::id'', COMDAT

; 155  : 		void _Getvals(wchar_t, const lconv *_Ptr, _Locinfo::_Cvtvec)

	push	ebp
	mov	ebp, esp
	push	0
	mov	ecx, OFFSET ?id@?$numpunct@D@std@@2V0locale@2@A ; std::numpunct<char>::id
	call	??0id@locale@std@@QAE@I@Z		; std::locale::id::id
	pop	ebp
	ret	0
??__E?id@?$numpunct@D@std@@2V0locale@2@A@@YAXXZ ENDP	; `dynamic initializer for 'std::numpunct<char>::id''
text$yc	ENDS
; Function compile flags: /Odtp
; File c:\program files (x86)\microsoft visual studio 11.0\vc\include\xlocnum
;	COMDAT ??__E?id@?$num_put@_WV?$back_insert_iterator@V?$basic_string@_WU?$char_traits@_W@std@@V?$allocator@_W@2@@std@@@std@@@std@@2V0locale@2@A@@YAXXZ
text$yc	SEGMENT
??__E?id@?$num_put@_WV?$back_insert_iterator@V?$basic_string@_WU?$char_traits@_W@std@@V?$allocator@_W@2@@std@@@std@@@std@@2V0locale@2@A@@YAXXZ PROC ; `dynamic initializer for 'std::num_put<wchar_t,std::back_insert_iterator<std::basic_string<wchar_t,std::char_traits<wchar_t>,std::allocator<wchar_t> > > >::id'', COMDAT

; 155  : 		void _Getvals(wchar_t, const lconv *_Ptr, _Locinfo::_Cvtvec)

	push	ebp
	mov	ebp, esp
	push	0
	mov	ecx, OFFSET ?id@?$num_put@_WV?$back_insert_iterator@V?$basic_string@_WU?$char_traits@_W@std@@V?$allocator@_W@2@@std@@@std@@@std@@2V0locale@2@A ; std::num_put<wchar_t,std::back_insert_iterator<std::basic_string<wchar_t,std::char_traits<wchar_t>,std::allocator<wchar_t> > > >::id
	call	??0id@locale@std@@QAE@I@Z		; std::locale::id::id
	pop	ebp
	ret	0
??__E?id@?$num_put@_WV?$back_insert_iterator@V?$basic_string@_WU?$char_traits@_W@std@@V?$allocator@_W@2@@std@@@std@@@std@@2V0locale@2@A@@YAXXZ ENDP ; `dynamic initializer for 'std::num_put<wchar_t,std::back_insert_iterator<std::basic_string<wchar_t,std::char_traits<wchar_t>,std::allocator<wchar_t> > > >::id''
text$yc	ENDS
; Function compile flags: /Odtp
; File c:\program files (x86)\microsoft visual studio 11.0\vc\include\xlocnum
;	COMDAT ??__E?id@?$num_put@DV?$back_insert_iterator@V?$basic_string@DU?$char_traits@D@std@@V?$allocator@D@2@@std@@@std@@@std@@2V0locale@2@A@@YAXXZ
text$yc	SEGMENT
??__E?id@?$num_put@DV?$back_insert_iterator@V?$basic_string@DU?$char_traits@D@std@@V?$allocator@D@2@@std@@@std@@@std@@2V0locale@2@A@@YAXXZ PROC ; `dynamic initializer for 'std::num_put<char,std::back_insert_iterator<std::basic_string<char,std::char_traits<char>,std::allocator<char> > > >::id'', COMDAT

; 155  : 		void _Getvals(wchar_t, const lconv *_Ptr, _Locinfo::_Cvtvec)

	push	ebp
	mov	ebp, esp
	push	0
	mov	ecx, OFFSET ?id@?$num_put@DV?$back_insert_iterator@V?$basic_string@DU?$char_traits@D@std@@V?$allocator@D@2@@std@@@std@@@std@@2V0locale@2@A ; std::num_put<char,std::back_insert_iterator<std::basic_string<char,std::char_traits<char>,std::allocator<char> > > >::id
	call	??0id@locale@std@@QAE@I@Z		; std::locale::id::id
	pop	ebp
	ret	0
??__E?id@?$num_put@DV?$back_insert_iterator@V?$basic_string@DU?$char_traits@D@std@@V?$allocator@D@2@@std@@@std@@@std@@2V0locale@2@A@@YAXXZ ENDP ; `dynamic initializer for 'std::num_put<char,std::back_insert_iterator<std::basic_string<char,std::char_traits<char>,std::allocator<char> > > >::id''
text$yc	ENDS
; Function compile flags: /Odtp
; File c:\program files (x86)\microsoft visual studio 11.0\vc\include\xmemory0
;	COMDAT ??$destroy@PAD@?$allocator_traits@V?$allocator@D@std@@@std@@SAXAAV?$allocator@D@1@PAPAD@Z
_TEXT	SEGMENT
__Al$ = 8						; size = 4
__Ptr$ = 12						; size = 4
??$destroy@PAD@?$allocator_traits@V?$allocator@D@std@@@std@@SAXAAV?$allocator@D@1@PAPAD@Z PROC ; std::allocator_traits<std::allocator<char> >::destroy<char *>, COMDAT

; 755  : 		static void destroy(_Alloc& _Al, _Uty *_Ptr)

	push	ebp
	mov	ebp, esp

; 756  : 		{	// destroy object at _Ptr
; 757  : 		_Al.destroy(_Ptr);

	mov	eax, DWORD PTR __Ptr$[ebp]
	push	eax
	mov	ecx, DWORD PTR __Al$[ebp]
	call	??$destroy@PAD@?$allocator@D@std@@QAEXPAPAD@Z ; std::allocator<char>::destroy<char *>

; 758  : 		}

	pop	ebp
	ret	0
??$destroy@PAD@?$allocator_traits@V?$allocator@D@std@@@std@@SAXAAV?$allocator@D@1@PAPAD@Z ENDP ; std::allocator_traits<std::allocator<char> >::destroy<char *>
_TEXT	ENDS
; Function compile flags: /Odtp
; File c:\program files (x86)\microsoft visual studio 11.0\vc\include\xmemory0
;	COMDAT ??$construct@PADAAPAD@?$allocator_traits@V?$allocator@D@std@@@std@@SAXAAV?$allocator@D@1@PAPADAAPAD@Z
_TEXT	SEGMENT
__Al$ = 8						; size = 4
__Ptr$ = 12						; size = 4
__V0$ = 16						; size = 4
??$construct@PADAAPAD@?$allocator_traits@V?$allocator@D@std@@@std@@SAXAAV?$allocator@D@1@PAPADAAPAD@Z PROC ; std::allocator_traits<std::allocator<char> >::construct<char *,char * &>, COMDAT

; 751  : _VARIADIC_EXPAND_0X(_ALLOC_TRAITS_SPECIAL_CONSTRUCT, , , , )

	push	ebp
	mov	ebp, esp
	mov	eax, DWORD PTR __V0$[ebp]
	push	eax
	call	??$forward@AAPAD@std@@YAAAPADAAPAD@Z	; std::forward<char * &>
	add	esp, 4
	push	eax
	mov	ecx, DWORD PTR __Ptr$[ebp]
	push	ecx
	mov	ecx, DWORD PTR __Al$[ebp]
	call	??$construct@PADAAPAD@?$allocator@D@std@@QAEXPAPADAAPAD@Z ; std::allocator<char>::construct<char *,char * &>
	pop	ebp
	ret	0
??$construct@PADAAPAD@?$allocator_traits@V?$allocator@D@std@@@std@@SAXAAV?$allocator@D@1@PAPADAAPAD@Z ENDP ; std::allocator_traits<std::allocator<char> >::construct<char *,char * &>
_TEXT	ENDS
; Function compile flags: /Odtp
; File c:\program files (x86)\microsoft visual studio 11.0\vc\include\type_traits
;	COMDAT ??$forward@AAPAD@std@@YAAAPADAAPAD@Z
_TEXT	SEGMENT
__Arg$ = 8						; size = 4
??$forward@AAPAD@std@@YAAAPADAAPAD@Z PROC		; std::forward<char * &>, COMDAT

; 1775 : 	{	// forward an lvalue

	push	ebp
	mov	ebp, esp

; 1776 : 	return (static_cast<_Ty&&>(_Arg));

	mov	eax, DWORD PTR __Arg$[ebp]

; 1777 : 	}

	pop	ebp
	ret	0
??$forward@AAPAD@std@@YAAAPADAAPAD@Z ENDP		; std::forward<char * &>
_TEXT	ENDS
; Function compile flags: /Odtp
;	COMDAT ??__F?_System_object@?$_Error_objects@H@std@@2V_System_error_category@2@A@@YAXXZ
text$yd	SEGMENT
??__F?_System_object@?$_Error_objects@H@std@@2V_System_error_category@2@A@@YAXXZ PROC ; `dynamic atexit destructor for 'std::_Error_objects<int>::_System_object'', COMDAT
	push	ebp
	mov	ebp, esp
	mov	ecx, OFFSET ?_System_object@?$_Error_objects@H@std@@2V_System_error_category@2@A ; std::_Error_objects<int>::_System_object
	call	??1_System_error_category@std@@UAE@XZ
	pop	ebp
	ret	0
??__F?_System_object@?$_Error_objects@H@std@@2V_System_error_category@2@A@@YAXXZ ENDP ; `dynamic atexit destructor for 'std::_Error_objects<int>::_System_object''
text$yd	ENDS
; Function compile flags: /Odtp
; File c:\program files (x86)\microsoft visual studio 11.0\vc\include\xmemory0
;	COMDAT ??__E?_System_object@?$_Error_objects@H@std@@2V_System_error_category@2@A@@YAXXZ
text$yc	SEGMENT
??__E?_System_object@?$_Error_objects@H@std@@2V_System_error_category@2@A@@YAXXZ PROC ; `dynamic initializer for 'std::_Error_objects<int>::_System_object'', COMDAT

; 627  : 		{	// estimate maximum array size

	push	ebp
	mov	ebp, esp
	mov	ecx, OFFSET ?_System_object@?$_Error_objects@H@std@@2V_System_error_category@2@A ; std::_Error_objects<int>::_System_object
	call	??0_System_error_category@std@@QAE@XZ	; std::_System_error_category::_System_error_category
	push	OFFSET ??__F?_System_object@?$_Error_objects@H@std@@2V_System_error_category@2@A@@YAXXZ ; `dynamic atexit destructor for 'std::_Error_objects<int>::_System_object''
	call	_atexit
	add	esp, 4
	pop	ebp
	ret	0
??__E?_System_object@?$_Error_objects@H@std@@2V_System_error_category@2@A@@YAXXZ ENDP ; `dynamic initializer for 'std::_Error_objects<int>::_System_object''
text$yc	ENDS
; Function compile flags: /Odtp
;	COMDAT ??__F?_Iostream_object@?$_Error_objects@H@std@@2V_Iostream_error_category@2@A@@YAXXZ
text$yd	SEGMENT
??__F?_Iostream_object@?$_Error_objects@H@std@@2V_Iostream_error_category@2@A@@YAXXZ PROC ; `dynamic atexit destructor for 'std::_Error_objects<int>::_Iostream_object'', COMDAT
	push	ebp
	mov	ebp, esp
	mov	ecx, OFFSET ?_Iostream_object@?$_Error_objects@H@std@@2V_Iostream_error_category@2@A ; std::_Error_objects<int>::_Iostream_object
	call	??1_Iostream_error_category@std@@UAE@XZ
	pop	ebp
	ret	0
??__F?_Iostream_object@?$_Error_objects@H@std@@2V_Iostream_error_category@2@A@@YAXXZ ENDP ; `dynamic atexit destructor for 'std::_Error_objects<int>::_Iostream_object''
text$yd	ENDS
; Function compile flags: /Odtp
; File c:\program files (x86)\microsoft visual studio 11.0\vc\include\xmemory0
;	COMDAT ??__E?_Iostream_object@?$_Error_objects@H@std@@2V_Iostream_error_category@2@A@@YAXXZ
text$yc	SEGMENT
??__E?_Iostream_object@?$_Error_objects@H@std@@2V_Iostream_error_category@2@A@@YAXXZ PROC ; `dynamic initializer for 'std::_Error_objects<int>::_Iostream_object'', COMDAT

; 627  : 		{	// estimate maximum array size

	push	ebp
	mov	ebp, esp
	mov	ecx, OFFSET ?_Iostream_object@?$_Error_objects@H@std@@2V_Iostream_error_category@2@A ; std::_Error_objects<int>::_Iostream_object
	call	??0_Iostream_error_category@std@@QAE@XZ	; std::_Iostream_error_category::_Iostream_error_category
	push	OFFSET ??__F?_Iostream_object@?$_Error_objects@H@std@@2V_Iostream_error_category@2@A@@YAXXZ ; `dynamic atexit destructor for 'std::_Error_objects<int>::_Iostream_object''
	call	_atexit
	add	esp, 4
	pop	ebp
	ret	0
??__E?_Iostream_object@?$_Error_objects@H@std@@2V_Iostream_error_category@2@A@@YAXXZ ENDP ; `dynamic initializer for 'std::_Error_objects<int>::_Iostream_object''
text$yc	ENDS
; Function compile flags: /Odtp
;	COMDAT ??__F?_Generic_object@?$_Error_objects@H@std@@2V_Generic_error_category@2@A@@YAXXZ
text$yd	SEGMENT
??__F?_Generic_object@?$_Error_objects@H@std@@2V_Generic_error_category@2@A@@YAXXZ PROC ; `dynamic atexit destructor for 'std::_Error_objects<int>::_Generic_object'', COMDAT
	push	ebp
	mov	ebp, esp
	mov	ecx, OFFSET ?_Generic_object@?$_Error_objects@H@std@@2V_Generic_error_category@2@A ; std::_Error_objects<int>::_Generic_object
	call	??1_Generic_error_category@std@@UAE@XZ
	pop	ebp
	ret	0
??__F?_Generic_object@?$_Error_objects@H@std@@2V_Generic_error_category@2@A@@YAXXZ ENDP ; `dynamic atexit destructor for 'std::_Error_objects<int>::_Generic_object''
text$yd	ENDS
; Function compile flags: /Odtp
; File c:\program files (x86)\microsoft visual studio 11.0\vc\include\xmemory0
;	COMDAT ??__E?_Generic_object@?$_Error_objects@H@std@@2V_Generic_error_category@2@A@@YAXXZ
text$yc	SEGMENT
??__E?_Generic_object@?$_Error_objects@H@std@@2V_Generic_error_category@2@A@@YAXXZ PROC ; `dynamic initializer for 'std::_Error_objects<int>::_Generic_object'', COMDAT

; 627  : 		{	// estimate maximum array size

	push	ebp
	mov	ebp, esp
	mov	ecx, OFFSET ?_Generic_object@?$_Error_objects@H@std@@2V_Generic_error_category@2@A ; std::_Error_objects<int>::_Generic_object
	call	??0_Generic_error_category@std@@QAE@XZ	; std::_Generic_error_category::_Generic_error_category
	push	OFFSET ??__F?_Generic_object@?$_Error_objects@H@std@@2V_Generic_error_category@2@A@@YAXXZ ; `dynamic atexit destructor for 'std::_Error_objects<int>::_Generic_object''
	call	_atexit
	add	esp, 4
	pop	ebp
	ret	0
??__E?_Generic_object@?$_Error_objects@H@std@@2V_Generic_error_category@2@A@@YAXXZ ENDP ; `dynamic initializer for 'std::_Error_objects<int>::_Generic_object''
text$yc	ENDS
; Function compile flags: /Odtp
; File c:\program files (x86)\microsoft visual studio 11.0\vc\include\xmemory0
;	COMDAT ??$_Allocate@D@std@@YAPADIPAD@Z
_TEXT	SEGMENT
__Ptr$ = -4						; size = 4
__Count$ = 8						; size = 4
___formal$ = 12						; size = 4
??$_Allocate@D@std@@YAPADIPAD@Z PROC			; std::_Allocate<char>, COMDAT

; 22   : 	{	// allocate storage for _Count elements of type _Ty

	push	ebp
	mov	ebp, esp
	push	ecx

; 23   : 	void *_Ptr = 0;

	mov	DWORD PTR __Ptr$[ebp], 0

; 24   : 
; 25   : 	if (_Count == 0)

	cmp	DWORD PTR __Count$[ebp], 0
	jne	SHORT $LN4@Allocate

; 26   : 		;
; 27   : 	else if (((size_t)(-1) / sizeof (_Ty) < _Count)

	jmp	SHORT $LN3@Allocate
$LN4@Allocate:

; 28   : 		|| (_Ptr = ::operator new(_Count * sizeof (_Ty))) == 0)

	cmp	DWORD PTR __Count$[ebp], -1
	ja	SHORT $LN1@Allocate
	mov	eax, DWORD PTR __Count$[ebp]
	push	eax
	call	??2@YAPAXI@Z				; operator new
	add	esp, 4
	mov	DWORD PTR __Ptr$[ebp], eax
	cmp	DWORD PTR __Ptr$[ebp], 0
	jne	SHORT $LN3@Allocate
$LN1@Allocate:

; 29   : 		_Xbad_alloc();	// report no memory

	call	?_Xbad_alloc@std@@YAXXZ			; std::_Xbad_alloc
$LN3@Allocate:

; 30   : 
; 31   : 	return ((_Ty *)_Ptr);

	mov	eax, DWORD PTR __Ptr$[ebp]
$LN6@Allocate:

; 32   : 	}

	mov	esp, ebp
	pop	ebp
	ret	0
??$_Allocate@D@std@@YAPADIPAD@Z ENDP			; std::_Allocate<char>
_TEXT	ENDS
; Function compile flags: /Odtp
; File c:\program files (x86)\microsoft visual studio 11.0\vc\include\xstddef
;	COMDAT ??$addressof@D@std@@YAPADAAD@Z
_TEXT	SEGMENT
__Val$ = 8						; size = 4
??$addressof@D@std@@YAPADAAD@Z PROC			; std::addressof<char>, COMDAT

; 85   : 	{	// return address of _Val

	push	ebp
	mov	ebp, esp

; 86   : 	return (reinterpret_cast<_Ty *>(
; 87   : 		(&const_cast<char&>(
; 88   : 		reinterpret_cast<const volatile char&>(_Val)))));

	mov	eax, DWORD PTR __Val$[ebp]

; 89   : 	}

	pop	ebp
	ret	0
??$addressof@D@std@@YAPADAAD@Z ENDP			; std::addressof<char>
_TEXT	ENDS
; Function compile flags: /Odtp
; File c:\program files (x86)\microsoft visual studio 11.0\vc\include\xmemory0
;	COMDAT ??$destroy@PAD@?$_Wrap_alloc@V?$allocator@D@std@@@std@@QAEXPAPAD@Z
_TEXT	SEGMENT
_this$ = -4						; size = 4
__Ptr$ = 8						; size = 4
??$destroy@PAD@?$_Wrap_alloc@V?$allocator@D@std@@@std@@QAEXPAPAD@Z PROC ; std::_Wrap_alloc<std::allocator<char> >::destroy<char *>, COMDAT
; _this$ = ecx

; 907  : 		void destroy(_Ty *_Ptr)

	push	ebp
	mov	ebp, esp
	push	ecx
	mov	DWORD PTR _this$[ebp], ecx

; 908  : 		{	// destroy object at _Ptr
; 909  : 		_Mytraits::destroy(*this, _Ptr);

	mov	eax, DWORD PTR __Ptr$[ebp]
	push	eax
	mov	ecx, DWORD PTR _this$[ebp]
	push	ecx
	call	??$destroy@PAD@?$allocator_traits@V?$allocator@D@std@@@std@@SAXAAV?$allocator@D@1@PAPAD@Z ; std::allocator_traits<std::allocator<char> >::destroy<char *>
	add	esp, 8

; 910  : 		}

	mov	esp, ebp
	pop	ebp
	ret	4
??$destroy@PAD@?$_Wrap_alloc@V?$allocator@D@std@@@std@@QAEXPAPAD@Z ENDP ; std::_Wrap_alloc<std::allocator<char> >::destroy<char *>
_TEXT	ENDS
; Function compile flags: /Odtp
; File c:\program files (x86)\microsoft visual studio 11.0\vc\include\xmemory0
;	COMDAT ??$construct@PADAAPAD@?$_Wrap_alloc@V?$allocator@D@std@@@std@@QAEXPAPADAAPAD@Z
_TEXT	SEGMENT
_this$ = -4						; size = 4
__Ptr$ = 8						; size = 4
__V0$ = 12						; size = 4
??$construct@PADAAPAD@?$_Wrap_alloc@V?$allocator@D@std@@@std@@QAEXPAPADAAPAD@Z PROC ; std::_Wrap_alloc<std::allocator<char> >::construct<char *,char * &>, COMDAT
; _this$ = ecx

; 903  : _VARIADIC_EXPAND_0X(_WRAP_ALLOC_CONSTRUCT, , , , )

	push	ebp
	mov	ebp, esp
	push	ecx
	mov	DWORD PTR _this$[ebp], ecx
	mov	eax, DWORD PTR __V0$[ebp]
	push	eax
	call	??$forward@AAPAD@std@@YAAAPADAAPAD@Z	; std::forward<char * &>
	add	esp, 4
	push	eax
	mov	ecx, DWORD PTR __Ptr$[ebp]
	push	ecx
	mov	edx, DWORD PTR _this$[ebp]
	push	edx
	call	??$construct@PADAAPAD@?$allocator_traits@V?$allocator@D@std@@@std@@SAXAAV?$allocator@D@1@PAPADAAPAD@Z ; std::allocator_traits<std::allocator<char> >::construct<char *,char * &>
	add	esp, 12					; 0000000cH
	mov	esp, ebp
	pop	ebp
	ret	8
??$construct@PADAAPAD@?$_Wrap_alloc@V?$allocator@D@std@@@std@@QAEXPAPADAAPAD@Z ENDP ; std::_Wrap_alloc<std::allocator<char> >::construct<char *,char * &>
_TEXT	ENDS
; Function compile flags: /Odtp
; File c:\users\zhitao li\documents\visual studio 2012\projects\freefalcon\falcsnd\voicefilter.cpp
_TEXT	SEGMENT
_i$1 = -272						; size = 4
_j$2 = -268						; size = 4
_buffer$ = -264						; size = 260
__$ArrayPad$ = -4					; size = 4
_hwnd$ = 8						; size = 4
?GetDialogValues@@YAXPAUHWND__@@@Z PROC			; GetDialogValues

; 1502 : {

	push	ebp
	mov	ebp, esp
	sub	esp, 272				; 00000110H
	mov	eax, DWORD PTR ___security_cookie
	xor	eax, ebp
	mov	DWORD PTR __$ArrayPad$[ebp], eax

; 1503 : 	char			buffer[MAX_PATH];
; 1504 : 	
; 1505 : 	GetWindowText(GetDlgItem(hwnd,IDC_VOICE),(LPTSTR) buffer, MAX_PATH);

	push	260					; 00000104H
	lea	eax, DWORD PTR _buffer$[ebp]
	push	eax
	push	1042					; 00000412H
	mov	ecx, DWORD PTR _hwnd$[ebp]
	push	ecx
	call	DWORD PTR __imp__GetDlgItem@8
	push	eax
	call	DWORD PTR __imp__GetWindowTextA@12

; 1506 : 	VToolMsgData.talker = atoi(buffer);

	lea	edx, DWORD PTR _buffer$[ebp]
	push	edx
	call	_atoi
	add	esp, 4
	mov	DWORD PTR ?VToolMsgData@@3UVoiceToolData@@A+4, eax

; 1507 : 	GetWindowText(GetDlgItem(hwnd,IDC_MESSAGE),(LPTSTR) buffer, MAX_PATH);

	push	260					; 00000104H
	lea	eax, DWORD PTR _buffer$[ebp]
	push	eax
	push	1331					; 00000533H
	mov	ecx, DWORD PTR _hwnd$[ebp]
	push	ecx
	call	DWORD PTR __imp__GetDlgItem@8
	push	eax
	call	DWORD PTR __imp__GetWindowTextA@12

; 1508 : 	if(atoi(buffer) != VToolMsgData.message)

	lea	edx, DWORD PTR _buffer$[ebp]
	push	edx
	call	_atoi
	add	esp, 4
	cmp	eax, DWORD PTR ?VToolMsgData@@3UVoiceToolData@@A+8
	je	SHORT $LN17@GetDialogV

; 1509 : 	{
; 1510 : 		VToolMsgData.message = atoi(buffer);

	lea	eax, DWORD PTR _buffer$[ebp]
	push	eax
	call	_atoi
	add	esp, 4
	mov	DWORD PTR ?VToolMsgData@@3UVoiceToolData@@A+8, eax

; 1511 : 		SetupNewMsg();

	call	?SetupNewMsg@@YAXXZ			; SetupNewMsg
$LN17@GetDialogV:

; 1512 : 	}
; 1513 : 	GetWindowText(GetDlgItem(hwnd,IDC_FRAG),(LPTSTR) buffer, MAX_PATH);

	push	260					; 00000104H
	lea	ecx, DWORD PTR _buffer$[ebp]
	push	ecx
	push	1332					; 00000534H
	mov	edx, DWORD PTR _hwnd$[ebp]
	push	edx
	call	DWORD PTR __imp__GetDlgItem@8
	push	eax
	call	DWORD PTR __imp__GetWindowTextA@12

; 1514 : 	VToolMsgData.frag = atoi(buffer);

	lea	eax, DWORD PTR _buffer$[ebp]
	push	eax
	call	_atoi
	add	esp, 4
	mov	DWORD PTR ?VToolMsgData@@3UVoiceToolData@@A+12, eax

; 1515 : 	if(IsDlgButtonChecked (hwnd, IDC_PLAY_MESSAGE))

	push	1336					; 00000538H
	mov	ecx, DWORD PTR _hwnd$[ebp]
	push	ecx
	call	DWORD PTR __imp__IsDlgButtonChecked@8
	test	eax, eax
	je	SHORT $LN16@GetDialogV

; 1516 : 		VToolMsgData.mode = PLAY_MESSAGE;

	mov	DWORD PTR ?VToolMsgData@@3UVoiceToolData@@A, 1
	jmp	SHORT $LN15@GetDialogV
$LN16@GetDialogV:

; 1517 : 	else if(IsDlgButtonChecked (hwnd, IDC_PLAY_FRAG))

	push	1337					; 00000539H
	mov	edx, DWORD PTR _hwnd$[ebp]
	push	edx
	call	DWORD PTR __imp__IsDlgButtonChecked@8
	test	eax, eax
	je	SHORT $LN14@GetDialogV

; 1518 : 		VToolMsgData.mode = PLAY_FRAG;

	mov	DWORD PTR ?VToolMsgData@@3UVoiceToolData@@A, 2

; 1519 : 	else

	jmp	SHORT $LN15@GetDialogV
$LN14@GetDialogV:

; 1520 : 		VToolMsgData.mode = PLAY_NOTHING;

	mov	DWORD PTR ?VToolMsgData@@3UVoiceToolData@@A, 0
$LN15@GetDialogV:

; 1521 : 	
; 1522 : 	for(int i = IDC_DATA45; i < IDC_DATA45 + 15; i++)

	mov	DWORD PTR _i$1[ebp], 1502		; 000005deH
	jmp	SHORT $LN12@GetDialogV
$LN11@GetDialogV:
	mov	eax, DWORD PTR _i$1[ebp]
	add	eax, 1
	mov	DWORD PTR _i$1[ebp], eax
$LN12@GetDialogV:
	cmp	DWORD PTR _i$1[ebp], 1517		; 000005edH
	jge	$LN18@GetDialogV

; 1523 : 	{
; 1524 : 		int j;
; 1525 : 		for(j = 0;j<15;j++)

	mov	DWORD PTR _j$2[ebp], 0
	jmp	SHORT $LN9@GetDialogV
$LN8@GetDialogV:
	mov	ecx, DWORD PTR _j$2[ebp]
	add	ecx, 1
	mov	DWORD PTR _j$2[ebp], ecx
$LN9@GetDialogV:
	cmp	DWORD PTR _j$2[ebp], 15			; 0000000fH
	jge	SHORT $LN7@GetDialogV

; 1526 : 		{
; 1527 : 			if(VToolMsgData.element[j] + IDC_DATA45 == i)

	mov	edx, DWORD PTR _j$2[ebp]
	movsx	eax, WORD PTR ?VToolMsgData@@3UVoiceToolData@@A[edx*2+20]
	add	eax, 1502				; 000005deH
	cmp	eax, DWORD PTR _i$1[ebp]
	jne	SHORT $LN6@GetDialogV

; 1528 : 				break;

	jmp	SHORT $LN7@GetDialogV
$LN6@GetDialogV:

; 1529 : 		}

	jmp	SHORT $LN8@GetDialogV
$LN7@GetDialogV:

; 1530 : 		
; 1531 : 		if(j == 15)

	cmp	DWORD PTR _j$2[ebp], 15			; 0000000fH
	jne	SHORT $LN5@GetDialogV

; 1532 : 			continue;

	jmp	SHORT $LN11@GetDialogV
$LN5@GetDialogV:

; 1533 : 		
; 1534 : 		GetWindowText(GetDlgItem(hwnd,i),(LPTSTR) buffer, MAX_PATH);

	push	260					; 00000104H
	lea	ecx, DWORD PTR _buffer$[ebp]
	push	ecx
	mov	edx, DWORD PTR _i$1[ebp]
	push	edx
	mov	eax, DWORD PTR _hwnd$[ebp]
	push	eax
	call	DWORD PTR __imp__GetDlgItem@8
	push	eax
	call	DWORD PTR __imp__GetWindowTextA@12

; 1535 : 		
; 1536 : 		if(atoi(buffer) < -1)

	lea	ecx, DWORD PTR _buffer$[ebp]
	push	ecx
	call	_atoi
	add	esp, 4
	cmp	eax, -1
	jge	SHORT $LN4@GetDialogV

; 1537 : 			VToolMsgData.data[j] = -1;

	or	edx, -1
	mov	eax, DWORD PTR _j$2[ebp]
	mov	WORD PTR ?VToolMsgData@@3UVoiceToolData@@A[eax*2+50], dx
	jmp	SHORT $LN3@GetDialogV
$LN4@GetDialogV:

; 1538 : 		else if(atoi(buffer) > VToolMsgData.maxs[j])

	lea	ecx, DWORD PTR _buffer$[ebp]
	push	ecx
	call	_atoi
	add	esp, 4
	mov	edx, DWORD PTR _j$2[ebp]
	movsx	ecx, WORD PTR ?VToolMsgData@@3UVoiceToolData@@A[edx*2+80]
	cmp	eax, ecx
	jle	SHORT $LN2@GetDialogV

; 1539 : 			VToolMsgData.data[j] = VToolMsgData.maxs[j];

	mov	edx, DWORD PTR _j$2[ebp]
	mov	eax, DWORD PTR _j$2[ebp]
	mov	cx, WORD PTR ?VToolMsgData@@3UVoiceToolData@@A[eax*2+80]
	mov	WORD PTR ?VToolMsgData@@3UVoiceToolData@@A[edx*2+50], cx

; 1540 : 		else

	jmp	SHORT $LN3@GetDialogV
$LN2@GetDialogV:

; 1541 : 			VToolMsgData.data[j] = (short)atoi(buffer);

	lea	edx, DWORD PTR _buffer$[ebp]
	push	edx
	call	_atoi
	add	esp, 4
	mov	ecx, DWORD PTR _j$2[ebp]
	mov	WORD PTR ?VToolMsgData@@3UVoiceToolData@@A[ecx*2+50], ax
$LN3@GetDialogV:

; 1542 : 	}

	jmp	$LN11@GetDialogV
$LN18@GetDialogV:

; 1543 : }

	mov	ecx, DWORD PTR __$ArrayPad$[ebp]
	xor	ecx, ebp
	call	@__security_check_cookie@4
	mov	esp, ebp
	pop	ebp
	ret	0
?GetDialogValues@@YAXPAUHWND__@@@Z ENDP			; GetDialogValues
_TEXT	ENDS
; Function compile flags: /Odtp
; File c:\users\zhitao li\documents\visual studio 2012\projects\freefalcon\falcsnd\voicefilter.cpp
_TEXT	SEGMENT
_delta$ = 8						; size = 4
?IncDecTalkerToPlay@@YAXH@Z PROC			; IncDecTalkerToPlay

; 1336 : {

	push	ebp
	mov	ebp, esp

; 1337 : 	
; 1338 : 	VToolMsgData.talker += delta;

	mov	eax, DWORD PTR ?VToolMsgData@@3UVoiceToolData@@A+4
	add	eax, DWORD PTR _delta$[ebp]
	mov	DWORD PTR ?VToolMsgData@@3UVoiceToolData@@A+4, eax

; 1339 : 	if(VToolMsgData.talker < 0)

	jns	SHORT $LN3@IncDecTalk

; 1340 : 		VToolMsgData.talker = 0;

	mov	DWORD PTR ?VToolMsgData@@3UVoiceToolData@@A+4, 0
	jmp	SHORT $LN4@IncDecTalk
$LN3@IncDecTalk:

; 1341 : 	else if(VToolMsgData.talker > 11)

	cmp	DWORD PTR ?VToolMsgData@@3UVoiceToolData@@A+4, 11 ; 0000000bH
	jle	SHORT $LN4@IncDecTalk

; 1342 : 		VToolMsgData.talker = 11;

	mov	DWORD PTR ?VToolMsgData@@3UVoiceToolData@@A+4, 11 ; 0000000bH
$LN4@IncDecTalk:

; 1343 : 	
; 1344 : }

	pop	ebp
	ret	0
?IncDecTalkerToPlay@@YAXH@Z ENDP			; IncDecTalkerToPlay
_TEXT	ENDS
; Function compile flags: /Odtp
; File c:\users\zhitao li\documents\visual studio 2012\projects\freefalcon\sim\include\simdrive.h
;	COMDAT ?GetPlayerEntity@SimulationDriver@@QBEPAVSimMoverClass@@XZ
_TEXT	SEGMENT
_this$ = -4						; size = 4
?GetPlayerEntity@SimulationDriver@@QBEPAVSimMoverClass@@XZ PROC ; SimulationDriver::GetPlayerEntity, COMDAT
; _this$ = ecx

; 76   : 	SimMoverClass *GetPlayerEntity() const { return const_cast<SimMoverClass*>(playerEntity); }

	push	ebp
	mov	ebp, esp
	push	ecx
	mov	DWORD PTR _this$[ebp], ecx
	mov	eax, DWORD PTR _this$[ebp]
	mov	eax, DWORD PTR [eax+56]
	mov	esp, ebp
	pop	ebp
	ret	0
?GetPlayerEntity@SimulationDriver@@QBEPAVSimMoverClass@@XZ ENDP ; SimulationDriver::GetPlayerEntity
_TEXT	ENDS
; Function compile flags: /Odtp
; File c:\users\zhitao li\documents\visual studio 2012\projects\freefalcon\sim\include\simdrive.h
;	COMDAT ?InSim@SimulationDriver@@QBE_NXZ
_TEXT	SEGMENT
_this$ = -4						; size = 4
?InSim@SimulationDriver@@QBE_NXZ PROC			; SimulationDriver::InSim, COMDAT
; _this$ = ecx

; 51   : 	bool InSim() const                 { return SimulationLoopControl::InSim(); }

	push	ebp
	mov	ebp, esp
	push	ecx
	mov	DWORD PTR _this$[ebp], ecx
	call	?InSim@SimulationLoopControl@@SA_NXZ	; SimulationLoopControl::InSim
	mov	esp, ebp
	pop	ebp
	ret	0
?InSim@SimulationDriver@@QBE_NXZ ENDP			; SimulationDriver::InSim
_TEXT	ENDS
; Function compile flags: /Odtp
; File c:\users\zhitao li\documents\visual studio 2012\projects\freefalcon\falclib\include\falcsess.h
;	COMDAT ?GetPlayerSquadron@FalconSessionEntity@@QBEPAVSquadronClass@@XZ
_TEXT	SEGMENT
_this$ = -4						; size = 4
?GetPlayerSquadron@FalconSessionEntity@@QBEPAVSquadronClass@@XZ PROC ; FalconSessionEntity::GetPlayerSquadron, COMDAT
; _this$ = ecx

; 140  : 	SquadronClass* GetPlayerSquadron(void)	const { return playerSquadronPtr.get(); }

	push	ebp
	mov	ebp, esp
	push	ecx
	mov	DWORD PTR _this$[ebp], ecx
	mov	ecx, DWORD PTR _this$[ebp]
	add	ecx, 476				; 000001dcH
	call	?get@?$VuBin@VSquadronClass@@@@QBEPAVSquadronClass@@XZ ; VuBin<SquadronClass>::get
	mov	esp, ebp
	pop	ebp
	ret	0
?GetPlayerSquadron@FalconSessionEntity@@QBEPAVSquadronClass@@XZ ENDP ; FalconSessionEntity::GetPlayerSquadron
_TEXT	ENDS
; Function compile flags: /Odtp
; File c:\users\zhitao li\documents\visual studio 2012\projects\freefalcon\falclib\include\falcsess.h
;	COMDAT ?GetPlayerFlight@FalconSessionEntity@@QBEPAVFlightClass@@XZ
_TEXT	SEGMENT
_this$ = -4						; size = 4
?GetPlayerFlight@FalconSessionEntity@@QBEPAVFlightClass@@XZ PROC ; FalconSessionEntity::GetPlayerFlight, COMDAT
; _this$ = ecx

; 139  : 	FlightClass* GetPlayerFlight(void) const      { return playerFlightPtr.get(); }

	push	ebp
	mov	ebp, esp
	push	ecx
	mov	DWORD PTR _this$[ebp], ecx
	mov	ecx, DWORD PTR _this$[ebp]
	add	ecx, 480				; 000001e0H
	call	?get@?$VuBin@VFlightClass@@@@QBEPAVFlightClass@@XZ ; VuBin<FlightClass>::get
	mov	esp, ebp
	pop	ebp
	ret	0
?GetPlayerFlight@FalconSessionEntity@@QBEPAVFlightClass@@XZ ENDP ; FalconSessionEntity::GetPlayerFlight
_TEXT	ENDS
; Function compile flags: /Odtp
; File c:\users\zhitao li\documents\visual studio 2012\projects\freefalcon\falclib\include\falcsess.h
;	COMDAT ?GetPlayerEntity@FalconSessionEntity@@QBEPAVFalconEntity@@XZ
_TEXT	SEGMENT
_this$ = -4						; size = 4
?GetPlayerEntity@FalconSessionEntity@@QBEPAVFalconEntity@@XZ PROC ; FalconSessionEntity::GetPlayerEntity, COMDAT
; _this$ = ecx

; 138  : 	FalconEntity* GetPlayerEntity(void) const     { return playerEntityPtr.get(); }

	push	ebp
	mov	ebp, esp
	push	ecx
	mov	DWORD PTR _this$[ebp], ecx
	mov	ecx, DWORD PTR _this$[ebp]
	add	ecx, 484				; 000001e4H
	call	?get@?$VuBin@VFalconEntity@@@@QBEPAVFalconEntity@@XZ ; VuBin<FalconEntity>::get
	mov	esp, ebp
	pop	ebp
	ret	0
?GetPlayerEntity@FalconSessionEntity@@QBEPAVFalconEntity@@XZ ENDP ; FalconSessionEntity::GetPlayerEntity
_TEXT	ENDS
; Function compile flags: /Odtp
; File c:\users\zhitao li\documents\visual studio 2012\projects\freefalcon\vu2\include\vu_templates.h
;	COMDAT ?get@?$VuBin@VFalconEntity@@@@QBEPAVFalconEntity@@XZ
_TEXT	SEGMENT
_this$ = -4						; size = 4
?get@?$VuBin@VFalconEntity@@@@QBEPAVFalconEntity@@XZ PROC ; VuBin<FalconEntity>::get, COMDAT
; _this$ = ecx

; 55   : 	E *get() const{

	push	ebp
	mov	ebp, esp
	push	ecx
	mov	DWORD PTR _this$[ebp], ecx

; 56   : 		return e;

	mov	eax, DWORD PTR _this$[ebp]
	mov	eax, DWORD PTR [eax]

; 57   : 	}

	mov	esp, ebp
	pop	ebp
	ret	0
?get@?$VuBin@VFalconEntity@@@@QBEPAVFalconEntity@@XZ ENDP ; VuBin<FalconEntity>::get
_TEXT	ENDS
; Function compile flags: /Odtp
; File c:\users\zhitao li\documents\visual studio 2012\projects\freefalcon\vu2\include\vu_templates.h
;	COMDAT ?get@?$VuBin@VFlightClass@@@@QBEPAVFlightClass@@XZ
_TEXT	SEGMENT
_this$ = -4						; size = 4
?get@?$VuBin@VFlightClass@@@@QBEPAVFlightClass@@XZ PROC	; VuBin<FlightClass>::get, COMDAT
; _this$ = ecx

; 55   : 	E *get() const{

	push	ebp
	mov	ebp, esp
	push	ecx
	mov	DWORD PTR _this$[ebp], ecx

; 56   : 		return e;

	mov	eax, DWORD PTR _this$[ebp]
	mov	eax, DWORD PTR [eax]

; 57   : 	}

	mov	esp, ebp
	pop	ebp
	ret	0
?get@?$VuBin@VFlightClass@@@@QBEPAVFlightClass@@XZ ENDP	; VuBin<FlightClass>::get
_TEXT	ENDS
; Function compile flags: /Odtp
; File c:\users\zhitao li\documents\visual studio 2012\projects\freefalcon\vu2\include\vu_templates.h
;	COMDAT ?get@?$VuBin@VSquadronClass@@@@QBEPAVSquadronClass@@XZ
_TEXT	SEGMENT
_this$ = -4						; size = 4
?get@?$VuBin@VSquadronClass@@@@QBEPAVSquadronClass@@XZ PROC ; VuBin<SquadronClass>::get, COMDAT
; _this$ = ecx

; 55   : 	E *get() const{

	push	ebp
	mov	ebp, esp
	push	ecx
	mov	DWORD PTR _this$[ebp], ecx

; 56   : 		return e;

	mov	eax, DWORD PTR _this$[ebp]
	mov	eax, DWORD PTR [eax]

; 57   : 	}

	mov	esp, ebp
	pop	ebp
	ret	0
?get@?$VuBin@VSquadronClass@@@@QBEPAVSquadronClass@@XZ ENDP ; VuBin<SquadronClass>::get
_TEXT	ENDS
; Function compile flags: /Odtp
; File c:\users\zhitao li\documents\visual studio 2012\projects\freefalcon\sim\include\simloop.h
;	COMDAT ?InSim@SimulationLoopControl@@SA_NXZ
_TEXT	SEGMENT
tv65 = -4						; size = 4
?InSim@SimulationLoopControl@@SA_NXZ PROC		; SimulationLoopControl::InSim, COMDAT

; 27   : 	static bool InSim(void)			{ return currentMode == RunningGraphics; }

	push	ebp
	mov	ebp, esp
	push	ecx
	cmp	DWORD PTR ?currentMode@SimulationLoopControl@@1W4SimLoopControlMode@1@A, 6 ; SimulationLoopControl::currentMode
	jne	SHORT $LN3@InSim
	mov	DWORD PTR tv65[ebp], 1
	jmp	SHORT $LN4@InSim
$LN3@InSim:
	mov	DWORD PTR tv65[ebp], 0
$LN4@InSim:
	mov	al, BYTE PTR tv65[ebp]
	mov	esp, ebp
	pop	ebp
	ret	0
?InSim@SimulationLoopControl@@SA_NXZ ENDP		; SimulationLoopControl::InSim
_TEXT	ENDS
; Function compile flags: /Odtp
;	COMDAT ??_G_System_error_category@std@@UAEPAXI@Z
_TEXT	SEGMENT
_this$ = -4						; size = 4
___flags$ = 8						; size = 4
??_G_System_error_category@std@@UAEPAXI@Z PROC		; std::_System_error_category::`scalar deleting destructor', COMDAT
; _this$ = ecx
	push	ebp
	mov	ebp, esp
	push	ecx
	mov	DWORD PTR _this$[ebp], ecx
	mov	ecx, DWORD PTR _this$[ebp]
	call	??1_System_error_category@std@@UAE@XZ
	mov	eax, DWORD PTR ___flags$[ebp]
	and	eax, 1
	je	SHORT $LN1@scalar
	mov	ecx, DWORD PTR _this$[ebp]
	push	ecx
	call	??3@YAXPAX@Z				; operator delete
	add	esp, 4
$LN1@scalar:
	mov	eax, DWORD PTR _this$[ebp]
	mov	esp, ebp
	pop	ebp
	ret	4
??_G_System_error_category@std@@UAEPAXI@Z ENDP		; std::_System_error_category::`scalar deleting destructor'
_TEXT	ENDS
; Function compile flags: /Odtp
;	COMDAT ??1_System_error_category@std@@UAE@XZ
_TEXT	SEGMENT
_this$ = -4						; size = 4
??1_System_error_category@std@@UAE@XZ PROC		; std::_System_error_category::~_System_error_category, COMDAT
; _this$ = ecx
	push	ebp
	mov	ebp, esp
	push	ecx
	mov	DWORD PTR _this$[ebp], ecx
	mov	ecx, DWORD PTR _this$[ebp]
	call	??1_Generic_error_category@std@@UAE@XZ
	mov	esp, ebp
	pop	ebp
	ret	0
??1_System_error_category@std@@UAE@XZ ENDP		; std::_System_error_category::~_System_error_category
_TEXT	ENDS
; Function compile flags: /Odtp
; File c:\program files (x86)\microsoft visual studio 11.0\vc\include\system_error
;	COMDAT ?default_error_condition@_System_error_category@std@@UBE?AVerror_condition@2@H@Z
_TEXT	SEGMENT
_this$ = -4						; size = 4
___$ReturnUdt$ = 8					; size = 4
__Errval$ = 12						; size = 4
?default_error_condition@_System_error_category@std@@UBE?AVerror_condition@2@H@Z PROC ; std::_System_error_category::default_error_condition, COMDAT
; _this$ = ecx

; 641  : 		{	// make error_condition for error code (generic if possible)

	push	ebp
	mov	ebp, esp
	push	ecx
	mov	DWORD PTR _this$[ebp], ecx

; 642  : 		if (_Syserror_map(_Errval))

	mov	eax, DWORD PTR __Errval$[ebp]
	push	eax
	call	?_Syserror_map@std@@YAPBDH@Z		; std::_Syserror_map
	add	esp, 4
	test	eax, eax
	je	SHORT $LN2@default_er

; 643  : 			return (error_condition(_Errval, generic_category()));

	call	?generic_category@std@@YAABVerror_category@1@XZ ; std::generic_category
	push	eax
	mov	ecx, DWORD PTR __Errval$[ebp]
	push	ecx
	mov	ecx, DWORD PTR ___$ReturnUdt$[ebp]
	call	??0error_condition@std@@QAE@HABVerror_category@1@@Z ; std::error_condition::error_condition
	mov	eax, DWORD PTR ___$ReturnUdt$[ebp]
	jmp	SHORT $LN3@default_er

; 644  : 		else

	jmp	SHORT $LN3@default_er
$LN2@default_er:

; 645  : 			return (error_condition(_Errval, system_category()));

	call	?system_category@std@@YAABVerror_category@1@XZ ; std::system_category
	push	eax
	mov	edx, DWORD PTR __Errval$[ebp]
	push	edx
	mov	ecx, DWORD PTR ___$ReturnUdt$[ebp]
	call	??0error_condition@std@@QAE@HABVerror_category@1@@Z ; std::error_condition::error_condition
	mov	eax, DWORD PTR ___$ReturnUdt$[ebp]
$LN3@default_er:

; 646  : 		}

	mov	esp, ebp
	pop	ebp
	ret	8
?default_error_condition@_System_error_category@std@@UBE?AVerror_condition@2@H@Z ENDP ; std::_System_error_category::default_error_condition
_TEXT	ENDS
; Function compile flags: /Odtp
; File c:\program files (x86)\microsoft visual studio 11.0\vc\include\system_error
;	COMDAT ?message@_System_error_category@std@@UBE?AV?$basic_string@DU?$char_traits@D@std@@V?$allocator@D@2@@2@H@Z
_TEXT	SEGMENT
_this$ = -16						; size = 4
$T1 = -12						; size = 4
tv69 = -8						; size = 4
__Name$ = -4						; size = 4
___$ReturnUdt$ = 8					; size = 4
__Errcode$ = 12						; size = 4
?message@_System_error_category@std@@UBE?AV?$basic_string@DU?$char_traits@D@std@@V?$allocator@D@2@@2@H@Z PROC ; std::_System_error_category::message, COMDAT
; _this$ = ecx

; 634  : 		{	// convert to name of error

	push	ebp
	mov	ebp, esp
	sub	esp, 16					; 00000010H
	mov	DWORD PTR _this$[ebp], ecx
	mov	DWORD PTR $T1[ebp], 0

; 635  : 		const char *_Name = _Winerror_map(_Errcode);

	mov	eax, DWORD PTR __Errcode$[ebp]
	push	eax
	call	?_Winerror_map@std@@YAPBDH@Z		; std::_Winerror_map
	add	esp, 4
	mov	DWORD PTR __Name$[ebp], eax

; 636  : 		return (string(_Name != 0 ? _Name : "unknown error"));

	cmp	DWORD PTR __Name$[ebp], 0
	je	SHORT $LN3@message
	mov	ecx, DWORD PTR __Name$[ebp]
	mov	DWORD PTR tv69[ebp], ecx
	jmp	SHORT $LN4@message
$LN3@message:
	mov	DWORD PTR tv69[ebp], OFFSET ??_C@_0O@BFJCFAAK@unknown?5error?$AA@
$LN4@message:
	mov	edx, DWORD PTR tv69[ebp]
	push	edx
	mov	ecx, DWORD PTR ___$ReturnUdt$[ebp]
	call	??0?$basic_string@DU?$char_traits@D@std@@V?$allocator@D@2@@std@@QAE@PBD@Z ; std::basic_string<char,std::char_traits<char>,std::allocator<char> >::basic_string<char,std::char_traits<char>,std::allocator<char> >
	mov	eax, DWORD PTR $T1[ebp]
	or	eax, 1
	mov	DWORD PTR $T1[ebp], eax
	mov	eax, DWORD PTR ___$ReturnUdt$[ebp]

; 637  : 		}

	mov	esp, ebp
	pop	ebp
	ret	8
?message@_System_error_category@std@@UBE?AV?$basic_string@DU?$char_traits@D@std@@V?$allocator@D@2@@2@H@Z ENDP ; std::_System_error_category::message
_TEXT	ENDS
; Function compile flags: /Odtp
; File c:\program files (x86)\microsoft visual studio 11.0\vc\include\system_error
;	COMDAT ?name@_System_error_category@std@@UBEPBDXZ
_TEXT	SEGMENT
_this$ = -4						; size = 4
?name@_System_error_category@std@@UBEPBDXZ PROC		; std::_System_error_category::name, COMDAT
; _this$ = ecx

; 629  : 		{	// get name of category

	push	ebp
	mov	ebp, esp
	push	ecx
	mov	DWORD PTR _this$[ebp], ecx

; 630  : 		return ("system");

	mov	eax, OFFSET ??_C@_06FHFOAHML@system?$AA@

; 631  : 		}

	mov	esp, ebp
	pop	ebp
	ret	0
?name@_System_error_category@std@@UBEPBDXZ ENDP		; std::_System_error_category::name
_TEXT	ENDS
; Function compile flags: /Odtp
; File c:\program files (x86)\microsoft visual studio 11.0\vc\include\system_error
;	COMDAT ??0_System_error_category@std@@QAE@XZ
_TEXT	SEGMENT
_this$ = -4						; size = 4
??0_System_error_category@std@@QAE@XZ PROC		; std::_System_error_category::_System_error_category, COMDAT
; _this$ = ecx

; 624  : 	_System_error_category()

	push	ebp
	mov	ebp, esp
	push	ecx
	mov	DWORD PTR _this$[ebp], ecx
	mov	ecx, DWORD PTR _this$[ebp]
	call	??0_Generic_error_category@std@@QAE@XZ	; std::_Generic_error_category::_Generic_error_category
	mov	eax, DWORD PTR _this$[ebp]
	mov	DWORD PTR [eax], OFFSET ??_7_System_error_category@std@@6B@

; 625  : 		{	// default constructor
; 626  : 		}

	mov	eax, DWORD PTR _this$[ebp]
	mov	esp, ebp
	pop	ebp
	ret	0
??0_System_error_category@std@@QAE@XZ ENDP		; std::_System_error_category::_System_error_category
_TEXT	ENDS
; Function compile flags: /Odtp
;	COMDAT ??_G_Iostream_error_category@std@@UAEPAXI@Z
_TEXT	SEGMENT
_this$ = -4						; size = 4
___flags$ = 8						; size = 4
??_G_Iostream_error_category@std@@UAEPAXI@Z PROC	; std::_Iostream_error_category::`scalar deleting destructor', COMDAT
; _this$ = ecx
	push	ebp
	mov	ebp, esp
	push	ecx
	mov	DWORD PTR _this$[ebp], ecx
	mov	ecx, DWORD PTR _this$[ebp]
	call	??1_Iostream_error_category@std@@UAE@XZ
	mov	eax, DWORD PTR ___flags$[ebp]
	and	eax, 1
	je	SHORT $LN1@scalar
	mov	ecx, DWORD PTR _this$[ebp]
	push	ecx
	call	??3@YAXPAX@Z				; operator delete
	add	esp, 4
$LN1@scalar:
	mov	eax, DWORD PTR _this$[ebp]
	mov	esp, ebp
	pop	ebp
	ret	4
??_G_Iostream_error_category@std@@UAEPAXI@Z ENDP	; std::_Iostream_error_category::`scalar deleting destructor'
_TEXT	ENDS
; Function compile flags: /Odtp
;	COMDAT ??1_Iostream_error_category@std@@UAE@XZ
_TEXT	SEGMENT
_this$ = -4						; size = 4
??1_Iostream_error_category@std@@UAE@XZ PROC		; std::_Iostream_error_category::~_Iostream_error_category, COMDAT
; _this$ = ecx
	push	ebp
	mov	ebp, esp
	push	ecx
	mov	DWORD PTR _this$[ebp], ecx
	mov	ecx, DWORD PTR _this$[ebp]
	call	??1_Generic_error_category@std@@UAE@XZ
	mov	esp, ebp
	pop	ebp
	ret	0
??1_Iostream_error_category@std@@UAE@XZ ENDP		; std::_Iostream_error_category::~_Iostream_error_category
_TEXT	ENDS
; Function compile flags: /Odtp
; File c:\program files (x86)\microsoft visual studio 11.0\vc\include\system_error
;	COMDAT ?message@_Iostream_error_category@std@@UBE?AV?$basic_string@DU?$char_traits@D@std@@V?$allocator@D@2@@2@H@Z
_TEXT	SEGMENT
_this$ = -8						; size = 4
$T1 = -4						; size = 4
___$ReturnUdt$ = 8					; size = 4
__Errcode$ = 12						; size = 4
?message@_Iostream_error_category@std@@UBE?AV?$basic_string@DU?$char_traits@D@std@@V?$allocator@D@2@@2@H@Z PROC ; std::_Iostream_error_category::message, COMDAT
; _this$ = ecx

; 611  : 		{	// convert to name of error

	push	ebp
	mov	ebp, esp
	sub	esp, 8
	mov	DWORD PTR _this$[ebp], ecx
	mov	DWORD PTR $T1[ebp], 0

; 612  : 		if (_Errcode == (int)io_errc::stream)

	cmp	DWORD PTR __Errcode$[ebp], 1
	jne	SHORT $LN2@message

; 613  : 			return ("iostream stream error");

	push	OFFSET ??_C@_0BG@PADBLCHM@iostream?5stream?5error?$AA@
	mov	ecx, DWORD PTR ___$ReturnUdt$[ebp]
	call	??0?$basic_string@DU?$char_traits@D@std@@V?$allocator@D@2@@std@@QAE@PBD@Z ; std::basic_string<char,std::char_traits<char>,std::allocator<char> >::basic_string<char,std::char_traits<char>,std::allocator<char> >
	mov	eax, DWORD PTR $T1[ebp]
	or	eax, 1
	mov	DWORD PTR $T1[ebp], eax
	mov	eax, DWORD PTR ___$ReturnUdt$[ebp]
	jmp	SHORT $LN3@message

; 614  : 		else

	jmp	SHORT $LN3@message
$LN2@message:

; 615  : 			return (_Generic_error_category::message(_Errcode));

	mov	ecx, DWORD PTR __Errcode$[ebp]
	push	ecx
	mov	edx, DWORD PTR ___$ReturnUdt$[ebp]
	push	edx
	mov	ecx, DWORD PTR _this$[ebp]
	call	?message@_Generic_error_category@std@@UBE?AV?$basic_string@DU?$char_traits@D@std@@V?$allocator@D@2@@2@H@Z ; std::_Generic_error_category::message
	mov	eax, DWORD PTR $T1[ebp]
	or	eax, 1
	mov	DWORD PTR $T1[ebp], eax
	mov	eax, DWORD PTR ___$ReturnUdt$[ebp]
$LN3@message:

; 616  : 		}

	mov	esp, ebp
	pop	ebp
	ret	8
?message@_Iostream_error_category@std@@UBE?AV?$basic_string@DU?$char_traits@D@std@@V?$allocator@D@2@@2@H@Z ENDP ; std::_Iostream_error_category::message
_TEXT	ENDS
; Function compile flags: /Odtp
; File c:\program files (x86)\microsoft visual studio 11.0\vc\include\system_error
;	COMDAT ?name@_Iostream_error_category@std@@UBEPBDXZ
_TEXT	SEGMENT
_this$ = -4						; size = 4
?name@_Iostream_error_category@std@@UBEPBDXZ PROC	; std::_Iostream_error_category::name, COMDAT
; _this$ = ecx

; 606  : 		{	// get name of category

	push	ebp
	mov	ebp, esp
	push	ecx
	mov	DWORD PTR _this$[ebp], ecx

; 607  : 		return ("iostream");

	mov	eax, OFFSET ??_C@_08LLGCOLLL@iostream?$AA@

; 608  : 		}

	mov	esp, ebp
	pop	ebp
	ret	0
?name@_Iostream_error_category@std@@UBEPBDXZ ENDP	; std::_Iostream_error_category::name
_TEXT	ENDS
; Function compile flags: /Odtp
; File c:\program files (x86)\microsoft visual studio 11.0\vc\include\system_error
;	COMDAT ??0_Iostream_error_category@std@@QAE@XZ
_TEXT	SEGMENT
_this$ = -4						; size = 4
??0_Iostream_error_category@std@@QAE@XZ PROC		; std::_Iostream_error_category::_Iostream_error_category, COMDAT
; _this$ = ecx

; 601  : 	_Iostream_error_category()

	push	ebp
	mov	ebp, esp
	push	ecx
	mov	DWORD PTR _this$[ebp], ecx
	mov	ecx, DWORD PTR _this$[ebp]
	call	??0_Generic_error_category@std@@QAE@XZ	; std::_Generic_error_category::_Generic_error_category
	mov	eax, DWORD PTR _this$[ebp]
	mov	DWORD PTR [eax], OFFSET ??_7_Iostream_error_category@std@@6B@

; 602  : 		{	// default constructor
; 603  : 		}

	mov	eax, DWORD PTR _this$[ebp]
	mov	esp, ebp
	pop	ebp
	ret	0
??0_Iostream_error_category@std@@QAE@XZ ENDP		; std::_Iostream_error_category::_Iostream_error_category
_TEXT	ENDS
; Function compile flags: /Odtp
;	COMDAT ??_G_Generic_error_category@std@@UAEPAXI@Z
_TEXT	SEGMENT
_this$ = -4						; size = 4
___flags$ = 8						; size = 4
??_G_Generic_error_category@std@@UAEPAXI@Z PROC		; std::_Generic_error_category::`scalar deleting destructor', COMDAT
; _this$ = ecx
	push	ebp
	mov	ebp, esp
	push	ecx
	mov	DWORD PTR _this$[ebp], ecx
	mov	ecx, DWORD PTR _this$[ebp]
	call	??1_Generic_error_category@std@@UAE@XZ
	mov	eax, DWORD PTR ___flags$[ebp]
	and	eax, 1
	je	SHORT $LN1@scalar
	mov	ecx, DWORD PTR _this$[ebp]
	push	ecx
	call	??3@YAXPAX@Z				; operator delete
	add	esp, 4
$LN1@scalar:
	mov	eax, DWORD PTR _this$[ebp]
	mov	esp, ebp
	pop	ebp
	ret	4
??_G_Generic_error_category@std@@UAEPAXI@Z ENDP		; std::_Generic_error_category::`scalar deleting destructor'
_TEXT	ENDS
; Function compile flags: /Odtp
;	COMDAT ??1_Generic_error_category@std@@UAE@XZ
_TEXT	SEGMENT
_this$ = -4						; size = 4
??1_Generic_error_category@std@@UAE@XZ PROC		; std::_Generic_error_category::~_Generic_error_category, COMDAT
; _this$ = ecx
	push	ebp
	mov	ebp, esp
	push	ecx
	mov	DWORD PTR _this$[ebp], ecx
	mov	ecx, DWORD PTR _this$[ebp]
	call	??1error_category@std@@UAE@XZ		; std::error_category::~error_category
	mov	esp, ebp
	pop	ebp
	ret	0
??1_Generic_error_category@std@@UAE@XZ ENDP		; std::_Generic_error_category::~_Generic_error_category
_TEXT	ENDS
; Function compile flags: /Odtp
; File c:\program files (x86)\microsoft visual studio 11.0\vc\include\system_error
;	COMDAT ?message@_Generic_error_category@std@@UBE?AV?$basic_string@DU?$char_traits@D@std@@V?$allocator@D@2@@2@H@Z
_TEXT	SEGMENT
_this$ = -16						; size = 4
$T1 = -12						; size = 4
tv69 = -8						; size = 4
__Name$ = -4						; size = 4
___$ReturnUdt$ = 8					; size = 4
__Errcode$ = 12						; size = 4
?message@_Generic_error_category@std@@UBE?AV?$basic_string@DU?$char_traits@D@std@@V?$allocator@D@2@@2@H@Z PROC ; std::_Generic_error_category::message, COMDAT
; _this$ = ecx

; 590  : 		{	// convert to name of error

	push	ebp
	mov	ebp, esp
	sub	esp, 16					; 00000010H
	mov	DWORD PTR _this$[ebp], ecx
	mov	DWORD PTR $T1[ebp], 0

; 591  : 		const char *_Name = _Syserror_map(_Errcode);

	mov	eax, DWORD PTR __Errcode$[ebp]
	push	eax
	call	?_Syserror_map@std@@YAPBDH@Z		; std::_Syserror_map
	add	esp, 4
	mov	DWORD PTR __Name$[ebp], eax

; 592  : 		return (string(_Name != 0 ? _Name : "unknown error"));

	cmp	DWORD PTR __Name$[ebp], 0
	je	SHORT $LN3@message
	mov	ecx, DWORD PTR __Name$[ebp]
	mov	DWORD PTR tv69[ebp], ecx
	jmp	SHORT $LN4@message
$LN3@message:
	mov	DWORD PTR tv69[ebp], OFFSET ??_C@_0O@BFJCFAAK@unknown?5error?$AA@
$LN4@message:
	mov	edx, DWORD PTR tv69[ebp]
	push	edx
	mov	ecx, DWORD PTR ___$ReturnUdt$[ebp]
	call	??0?$basic_string@DU?$char_traits@D@std@@V?$allocator@D@2@@std@@QAE@PBD@Z ; std::basic_string<char,std::char_traits<char>,std::allocator<char> >::basic_string<char,std::char_traits<char>,std::allocator<char> >
	mov	eax, DWORD PTR $T1[ebp]
	or	eax, 1
	mov	DWORD PTR $T1[ebp], eax
	mov	eax, DWORD PTR ___$ReturnUdt$[ebp]

; 593  : 		}

	mov	esp, ebp
	pop	ebp
	ret	8
?message@_Generic_error_category@std@@UBE?AV?$basic_string@DU?$char_traits@D@std@@V?$allocator@D@2@@2@H@Z ENDP ; std::_Generic_error_category::message
_TEXT	ENDS
; Function compile flags: /Odtp
; File c:\program files (x86)\microsoft visual studio 11.0\vc\include\system_error
;	COMDAT ?name@_Generic_error_category@std@@UBEPBDXZ
_TEXT	SEGMENT
_this$ = -4						; size = 4
?name@_Generic_error_category@std@@UBEPBDXZ PROC	; std::_Generic_error_category::name, COMDAT
; _this$ = ecx

; 585  : 		{	// get name of category

	push	ebp
	mov	ebp, esp
	push	ecx
	mov	DWORD PTR _this$[ebp], ecx

; 586  : 		return ("generic");

	mov	eax, OFFSET ??_C@_07DCLBNMLN@generic?$AA@

; 587  : 		}

	mov	esp, ebp
	pop	ebp
	ret	0
?name@_Generic_error_category@std@@UBEPBDXZ ENDP	; std::_Generic_error_category::name
_TEXT	ENDS
; Function compile flags: /Odtp
; File c:\program files (x86)\microsoft visual studio 11.0\vc\include\system_error
;	COMDAT ??0_Generic_error_category@std@@QAE@XZ
_TEXT	SEGMENT
_this$ = -4						; size = 4
??0_Generic_error_category@std@@QAE@XZ PROC		; std::_Generic_error_category::_Generic_error_category, COMDAT
; _this$ = ecx

; 580  : 	_Generic_error_category()

	push	ebp
	mov	ebp, esp
	push	ecx
	mov	DWORD PTR _this$[ebp], ecx
	mov	ecx, DWORD PTR _this$[ebp]
	call	??0error_category@std@@QAE@XZ		; std::error_category::error_category
	mov	eax, DWORD PTR _this$[ebp]
	mov	DWORD PTR [eax], OFFSET ??_7_Generic_error_category@std@@6B@

; 581  : 		{	// default constructor
; 582  : 		}

	mov	eax, DWORD PTR _this$[ebp]
	mov	esp, ebp
	pop	ebp
	ret	0
??0_Generic_error_category@std@@QAE@XZ ENDP		; std::_Generic_error_category::_Generic_error_category
_TEXT	ENDS
; Function compile flags: /Odtp
; File c:\program files (x86)\microsoft visual studio 11.0\vc\include\system_error
;	COMDAT ??8error_condition@std@@QBE_NABV01@@Z
_TEXT	SEGMENT
tv78 = -8						; size = 4
_this$ = -4						; size = 4
__Right$ = 8						; size = 4
??8error_condition@std@@QBE_NABV01@@Z PROC		; std::error_condition::operator==, COMDAT
; _this$ = ecx

; 376  : 		{	// test if *this == _Right

	push	ebp
	mov	ebp, esp
	sub	esp, 8
	push	esi
	mov	DWORD PTR _this$[ebp], ecx

; 377  : 		return (category() == _Right.category()
; 378  : 			&& value() == _Right.value());

	mov	ecx, DWORD PTR __Right$[ebp]
	call	?category@error_condition@std@@QBEABVerror_category@2@XZ ; std::error_condition::category
	push	eax
	mov	ecx, DWORD PTR _this$[ebp]
	call	?category@error_condition@std@@QBEABVerror_category@2@XZ ; std::error_condition::category
	mov	ecx, eax
	call	??8error_category@std@@QBE_NABV01@@Z	; std::error_category::operator==
	movzx	eax, al
	test	eax, eax
	je	SHORT $LN3@operator
	mov	ecx, DWORD PTR _this$[ebp]
	call	?value@error_condition@std@@QBEHXZ	; std::error_condition::value
	mov	esi, eax
	mov	ecx, DWORD PTR __Right$[ebp]
	call	?value@error_condition@std@@QBEHXZ	; std::error_condition::value
	cmp	esi, eax
	jne	SHORT $LN3@operator
	mov	DWORD PTR tv78[ebp], 1
	jmp	SHORT $LN4@operator
$LN3@operator:
	mov	DWORD PTR tv78[ebp], 0
$LN4@operator:
	mov	al, BYTE PTR tv78[ebp]

; 379  : 		}

	pop	esi
	mov	esp, ebp
	pop	ebp
	ret	4
??8error_condition@std@@QBE_NABV01@@Z ENDP		; std::error_condition::operator==
_TEXT	ENDS
; Function compile flags: /Odtp
; File c:\program files (x86)\microsoft visual studio 11.0\vc\include\system_error
;	COMDAT ?category@error_condition@std@@QBEABVerror_category@2@XZ
_TEXT	SEGMENT
_this$ = -4						; size = 4
?category@error_condition@std@@QBEABVerror_category@2@XZ PROC ; std::error_condition::category, COMDAT
; _this$ = ecx

; 354  : 		{	// get category

	push	ebp
	mov	ebp, esp
	push	ecx
	mov	DWORD PTR _this$[ebp], ecx

; 355  : 		return (*_Mycat);

	mov	eax, DWORD PTR _this$[ebp]
	mov	eax, DWORD PTR [eax+4]

; 356  : 		}

	mov	esp, ebp
	pop	ebp
	ret	0
?category@error_condition@std@@QBEABVerror_category@2@XZ ENDP ; std::error_condition::category
_TEXT	ENDS
; Function compile flags: /Odtp
; File c:\program files (x86)\microsoft visual studio 11.0\vc\include\system_error
;	COMDAT ?value@error_condition@std@@QBEHXZ
_TEXT	SEGMENT
_this$ = -4						; size = 4
?value@error_condition@std@@QBEHXZ PROC			; std::error_condition::value, COMDAT
; _this$ = ecx

; 349  : 		{	// get error code

	push	ebp
	mov	ebp, esp
	push	ecx
	mov	DWORD PTR _this$[ebp], ecx

; 350  : 		return (_Myval);

	mov	eax, DWORD PTR _this$[ebp]
	mov	eax, DWORD PTR [eax]

; 351  : 		}

	mov	esp, ebp
	pop	ebp
	ret	0
?value@error_condition@std@@QBEHXZ ENDP			; std::error_condition::value
_TEXT	ENDS
; Function compile flags: /Odtp
; File c:\program files (x86)\microsoft visual studio 11.0\vc\include\system_error
;	COMDAT ??0error_condition@std@@QAE@HABVerror_category@1@@Z
_TEXT	SEGMENT
_this$ = -4						; size = 4
__Val$ = 8						; size = 4
__Cat$ = 12						; size = 4
??0error_condition@std@@QAE@HABVerror_category@1@@Z PROC ; std::error_condition::error_condition, COMDAT
; _this$ = ecx

; 316  : 		{	// construct from error code and category

	push	ebp
	mov	ebp, esp
	push	ecx
	mov	DWORD PTR _this$[ebp], ecx
	mov	eax, DWORD PTR _this$[ebp]
	mov	ecx, DWORD PTR __Val$[ebp]
	mov	DWORD PTR [eax], ecx
	mov	edx, DWORD PTR _this$[ebp]
	mov	eax, DWORD PTR __Cat$[ebp]
	mov	DWORD PTR [edx+4], eax

; 317  : 		}

	mov	eax, DWORD PTR _this$[ebp]
	mov	esp, ebp
	pop	ebp
	ret	8
??0error_condition@std@@QAE@HABVerror_category@1@@Z ENDP ; std::error_condition::error_condition
_TEXT	ENDS
; Function compile flags: /Odtp
; File c:\program files (x86)\microsoft visual studio 11.0\vc\include\system_error
;	COMDAT ?category@error_code@std@@QBEABVerror_category@2@XZ
_TEXT	SEGMENT
_this$ = -4						; size = 4
?category@error_code@std@@QBEABVerror_category@2@XZ PROC ; std::error_code::category, COMDAT
; _this$ = ecx

; 256  : 		{	// get category

	push	ebp
	mov	ebp, esp
	push	ecx
	mov	DWORD PTR _this$[ebp], ecx

; 257  : 		return (*_Mycat);

	mov	eax, DWORD PTR _this$[ebp]
	mov	eax, DWORD PTR [eax+4]

; 258  : 		}

	mov	esp, ebp
	pop	ebp
	ret	0
?category@error_code@std@@QBEABVerror_category@2@XZ ENDP ; std::error_code::category
_TEXT	ENDS
; Function compile flags: /Odtp
; File c:\program files (x86)\microsoft visual studio 11.0\vc\include\system_error
;	COMDAT ?value@error_code@std@@QBEHXZ
_TEXT	SEGMENT
_this$ = -4						; size = 4
?value@error_code@std@@QBEHXZ PROC			; std::error_code::value, COMDAT
; _this$ = ecx

; 251  : 		{	// get error code

	push	ebp
	mov	ebp, esp
	push	ecx
	mov	DWORD PTR _this$[ebp], ecx

; 252  : 		return (_Myval);

	mov	eax, DWORD PTR _this$[ebp]
	mov	eax, DWORD PTR [eax]

; 253  : 		}

	mov	esp, ebp
	pop	ebp
	ret	0
?value@error_code@std@@QBEHXZ ENDP			; std::error_code::value
_TEXT	ENDS
; Function compile flags: /Odtp
;	COMDAT ??_Gerror_category@std@@UAEPAXI@Z
_TEXT	SEGMENT
_this$ = -4						; size = 4
___flags$ = 8						; size = 4
??_Gerror_category@std@@UAEPAXI@Z PROC			; std::error_category::`scalar deleting destructor', COMDAT
; _this$ = ecx
	push	ebp
	mov	ebp, esp
	push	ecx
	mov	DWORD PTR _this$[ebp], ecx
	mov	ecx, DWORD PTR _this$[ebp]
	call	??1error_category@std@@UAE@XZ		; std::error_category::~error_category
	mov	eax, DWORD PTR ___flags$[ebp]
	and	eax, 1
	je	SHORT $LN1@scalar
	mov	ecx, DWORD PTR _this$[ebp]
	push	ecx
	call	??3@YAXPAX@Z				; operator delete
	add	esp, 4
$LN1@scalar:
	mov	eax, DWORD PTR _this$[ebp]
	mov	esp, ebp
	pop	ebp
	ret	4
??_Gerror_category@std@@UAEPAXI@Z ENDP			; std::error_category::`scalar deleting destructor'
_TEXT	ENDS
; Function compile flags: /Odtp
; File c:\program files (x86)\microsoft visual studio 11.0\vc\include\system_error
;	COMDAT ??8error_category@std@@QBE_NABV01@@Z
_TEXT	SEGMENT
_this$ = -8						; size = 4
tv65 = -4						; size = 4
__Right$ = 8						; size = 4
??8error_category@std@@QBE_NABV01@@Z PROC		; std::error_category::operator==, COMDAT
; _this$ = ecx

; 184  : 		{	// compare categories for equality

	push	ebp
	mov	ebp, esp
	sub	esp, 8
	mov	DWORD PTR _this$[ebp], ecx

; 185  : 		return (this == &_Right);

	mov	eax, DWORD PTR _this$[ebp]
	cmp	eax, DWORD PTR __Right$[ebp]
	jne	SHORT $LN3@operator
	mov	DWORD PTR tv65[ebp], 1
	jmp	SHORT $LN4@operator
$LN3@operator:
	mov	DWORD PTR tv65[ebp], 0
$LN4@operator:
	mov	al, BYTE PTR tv65[ebp]

; 186  : 		}

	mov	esp, ebp
	pop	ebp
	ret	4
??8error_category@std@@QBE_NABV01@@Z ENDP		; std::error_category::operator==
_TEXT	ENDS
; Function compile flags: /Odtp
; File c:\program files (x86)\microsoft visual studio 11.0\vc\include\system_error
;	COMDAT ?equivalent@error_category@std@@UBE_NABVerror_code@2@H@Z
_TEXT	SEGMENT
_this$ = -8						; size = 4
tv74 = -4						; size = 4
__Code$ = 8						; size = 4
__Errval$ = 12						; size = 4
?equivalent@error_category@std@@UBE_NABVerror_code@2@H@Z PROC ; std::error_category::equivalent, COMDAT
; _this$ = ecx

; 415  : 	{	// test if conditions same for this category

	push	ebp
	mov	ebp, esp
	sub	esp, 8
	mov	DWORD PTR _this$[ebp], ecx

; 416  : 	return (*this == _Code.category() && _Code.value() == _Errval);

	mov	ecx, DWORD PTR __Code$[ebp]
	call	?category@error_code@std@@QBEABVerror_category@2@XZ ; std::error_code::category
	push	eax
	mov	ecx, DWORD PTR _this$[ebp]
	call	??8error_category@std@@QBE_NABV01@@Z	; std::error_category::operator==
	movzx	eax, al
	test	eax, eax
	je	SHORT $LN3@equivalent
	mov	ecx, DWORD PTR __Code$[ebp]
	call	?value@error_code@std@@QBEHXZ		; std::error_code::value
	cmp	eax, DWORD PTR __Errval$[ebp]
	jne	SHORT $LN3@equivalent
	mov	DWORD PTR tv74[ebp], 1
	jmp	SHORT $LN4@equivalent
$LN3@equivalent:
	mov	DWORD PTR tv74[ebp], 0
$LN4@equivalent:
	mov	al, BYTE PTR tv74[ebp]

; 417  : 	}

	mov	esp, ebp
	pop	ebp
	ret	8
?equivalent@error_category@std@@UBE_NABVerror_code@2@H@Z ENDP ; std::error_category::equivalent
_TEXT	ENDS
; Function compile flags: /Odtp
; File c:\program files (x86)\microsoft visual studio 11.0\vc\include\system_error
;	COMDAT ?equivalent@error_category@std@@UBE_NHABVerror_condition@2@@Z
_TEXT	SEGMENT
$T1 = -12						; size = 8
_this$ = -4						; size = 4
__Errval$ = 8						; size = 4
__Cond$ = 12						; size = 4
?equivalent@error_category@std@@UBE_NHABVerror_condition@2@@Z PROC ; std::error_category::equivalent, COMDAT
; _this$ = ecx

; 408  : 	{	// test if error code same condition

	push	ebp
	mov	ebp, esp
	sub	esp, 12					; 0000000cH
	mov	DWORD PTR _this$[ebp], ecx

; 409  : 	return (default_error_condition(_Errval) == _Cond);

	mov	eax, DWORD PTR __Cond$[ebp]
	push	eax
	mov	ecx, DWORD PTR __Errval$[ebp]
	push	ecx
	lea	edx, DWORD PTR $T1[ebp]
	push	edx
	mov	eax, DWORD PTR _this$[ebp]
	mov	edx, DWORD PTR [eax]
	mov	ecx, DWORD PTR _this$[ebp]
	mov	eax, DWORD PTR [edx+12]
	call	eax
	mov	ecx, eax
	call	??8error_condition@std@@QBE_NABV01@@Z	; std::error_condition::operator==

; 410  : 	}

	mov	esp, ebp
	pop	ebp
	ret	8
?equivalent@error_category@std@@UBE_NHABVerror_condition@2@@Z ENDP ; std::error_category::equivalent
_TEXT	ENDS
; Function compile flags: /Odtp
; File c:\program files (x86)\microsoft visual studio 11.0\vc\include\system_error
;	COMDAT ?default_error_condition@error_category@std@@UBE?AVerror_condition@2@H@Z
_TEXT	SEGMENT
_this$ = -4						; size = 4
___$ReturnUdt$ = 8					; size = 4
__Errval$ = 12						; size = 4
?default_error_condition@error_category@std@@UBE?AVerror_condition@2@H@Z PROC ; std::error_category::default_error_condition, COMDAT
; _this$ = ecx

; 401  : 	{	// make error_condition for error code

	push	ebp
	mov	ebp, esp
	push	ecx
	mov	DWORD PTR _this$[ebp], ecx

; 402  : 	return (error_condition(_Errval, *this));

	mov	eax, DWORD PTR _this$[ebp]
	push	eax
	mov	ecx, DWORD PTR __Errval$[ebp]
	push	ecx
	mov	ecx, DWORD PTR ___$ReturnUdt$[ebp]
	call	??0error_condition@std@@QAE@HABVerror_category@1@@Z ; std::error_condition::error_condition
	mov	eax, DWORD PTR ___$ReturnUdt$[ebp]

; 403  : 	}

	mov	esp, ebp
	pop	ebp
	ret	8
?default_error_condition@error_category@std@@UBE?AVerror_condition@2@H@Z ENDP ; std::error_category::default_error_condition
_TEXT	ENDS
; Function compile flags: /Odtp
; File c:\program files (x86)\microsoft visual studio 11.0\vc\include\system_error
;	COMDAT ??1error_category@std@@UAE@XZ
_TEXT	SEGMENT
_this$ = -4						; size = 4
??1error_category@std@@UAE@XZ PROC			; std::error_category::~error_category, COMDAT
; _this$ = ecx

; 167  : 		{	// destroy the object

	push	ebp
	mov	ebp, esp
	push	ecx
	mov	DWORD PTR _this$[ebp], ecx
	mov	eax, DWORD PTR _this$[ebp]
	mov	DWORD PTR [eax], OFFSET ??_7error_category@std@@6B@

; 168  : 		}

	mov	esp, ebp
	pop	ebp
	ret	0
??1error_category@std@@UAE@XZ ENDP			; std::error_category::~error_category
_TEXT	ENDS
; Function compile flags: /Odtp
; File c:\program files (x86)\microsoft visual studio 11.0\vc\include\system_error
;	COMDAT ??0error_category@std@@QAE@XZ
_TEXT	SEGMENT
_this$ = -4						; size = 4
??0error_category@std@@QAE@XZ PROC			; std::error_category::error_category, COMDAT
; _this$ = ecx

; 162  : 	error_category()

	push	ebp
	mov	ebp, esp
	push	ecx
	mov	DWORD PTR _this$[ebp], ecx
	mov	eax, DWORD PTR _this$[ebp]
	mov	DWORD PTR [eax], OFFSET ??_7error_category@std@@6B@

; 163  : 		{	// default constructor
; 164  : 		}

	mov	eax, DWORD PTR _this$[ebp]
	mov	esp, ebp
	pop	ebp
	ret	0
??0error_category@std@@QAE@XZ ENDP			; std::error_category::error_category
_TEXT	ENDS
; Function compile flags: /Odtp
; File c:\program files (x86)\microsoft visual studio 11.0\vc\include\system_error
;	COMDAT ?system_category@std@@YAABVerror_category@1@XZ
_TEXT	SEGMENT
?system_category@std@@YAABVerror_category@1@XZ PROC	; std::system_category, COMDAT

; 679  : 	{	// get system_category

	push	ebp
	mov	ebp, esp

; 680  : 	return (_Error_objects<int>::_System_object);

	mov	eax, OFFSET ?_System_object@?$_Error_objects@H@std@@2V_System_error_category@2@A ; std::_Error_objects<int>::_System_object

; 681  : 	}

	pop	ebp
	ret	0
?system_category@std@@YAABVerror_category@1@XZ ENDP	; std::system_category
_TEXT	ENDS
; Function compile flags: /Odtp
; File c:\program files (x86)\microsoft visual studio 11.0\vc\include\system_error
;	COMDAT ?generic_category@std@@YAABVerror_category@1@XZ
_TEXT	SEGMENT
?generic_category@std@@YAABVerror_category@1@XZ PROC	; std::generic_category, COMDAT

; 669  : 	{	// get generic_category

	push	ebp
	mov	ebp, esp

; 670  : 	return (_Error_objects<int>::_Generic_object);

	mov	eax, OFFSET ?_Generic_object@?$_Error_objects@H@std@@2V_Generic_error_category@2@A ; std::_Error_objects<int>::_Generic_object

; 671  : 	}

	pop	ebp
	ret	0
?generic_category@std@@YAABVerror_category@1@XZ ENDP	; std::generic_category
_TEXT	ENDS
; Function compile flags: /Odtp
; File c:\program files (x86)\microsoft visual studio 11.0\vc\include\xlocale
;	COMDAT ??0id@locale@std@@QAE@I@Z
_TEXT	SEGMENT
_this$ = -4						; size = 4
__Val$ = 8						; size = 4
??0id@locale@std@@QAE@I@Z PROC				; std::locale::id::id, COMDAT
; _this$ = ecx

; 74   : 			{	// construct with specified stamp value

	push	ebp
	mov	ebp, esp
	push	ecx
	mov	DWORD PTR _this$[ebp], ecx
	mov	eax, DWORD PTR _this$[ebp]
	mov	ecx, DWORD PTR __Val$[ebp]
	mov	DWORD PTR [eax], ecx

; 75   : 			}

	mov	eax, DWORD PTR _this$[ebp]
	mov	esp, ebp
	pop	ebp
	ret	4
??0id@locale@std@@QAE@I@Z ENDP				; std::locale::id::id
_TEXT	ENDS
; Function compile flags: /Odtp
; File c:\users\zhitao li\documents\visual studio 2012\projects\freefalcon\falclib\include\playerop.h
;	COMDAT ?BullseyeOn@PlayerOptionsClass@@QAEHXZ
_TEXT	SEGMENT
_this$ = -8						; size = 4
tv68 = -4						; size = 4
?BullseyeOn@PlayerOptionsClass@@QAEHXZ PROC		; PlayerOptionsClass::BullseyeOn, COMDAT
; _this$ = ecx

; 157  : 	int BullseyeOn (void)									{ return (SimFlags & SIM_BULLSEYE_CALLS) && TRUE; }

	push	ebp
	mov	ebp, esp
	sub	esp, 8
	mov	DWORD PTR _this$[ebp], ecx
	mov	eax, DWORD PTR _this$[ebp]
	mov	ecx, DWORD PTR [eax+52]
	and	ecx, 256				; 00000100H
	je	SHORT $LN3@BullseyeOn
	mov	edx, 1
	test	edx, edx
	je	SHORT $LN3@BullseyeOn
	mov	DWORD PTR tv68[ebp], 1
	jmp	SHORT $LN4@BullseyeOn
$LN3@BullseyeOn:
	mov	DWORD PTR tv68[ebp], 0
$LN4@BullseyeOn:
	mov	eax, DWORD PTR tv68[ebp]
	mov	esp, ebp
	pop	ebp
	ret	0
?BullseyeOn@PlayerOptionsClass@@QAEHXZ ENDP		; PlayerOptionsClass::BullseyeOn
_TEXT	ENDS
; Function compile flags: /Odtp
;	COMDAT ??_GVoiceManager@@QAEPAXI@Z
_TEXT	SEGMENT
_this$ = -4						; size = 4
___flags$ = 8						; size = 4
??_GVoiceManager@@QAEPAXI@Z PROC			; VoiceManager::`scalar deleting destructor', COMDAT
; _this$ = ecx
	push	ebp
	mov	ebp, esp
	push	ecx
	mov	DWORD PTR _this$[ebp], ecx
	mov	ecx, DWORD PTR _this$[ebp]
	call	??1VoiceManager@@QAE@XZ			; VoiceManager::~VoiceManager
	mov	eax, DWORD PTR ___flags$[ebp]
	and	eax, 1
	je	SHORT $LN1@scalar
	mov	ecx, DWORD PTR _this$[ebp]
	push	ecx
	call	??3@YAXPAX@Z				; operator delete
	add	esp, 4
$LN1@scalar:
	mov	eax, DWORD PTR _this$[ebp]
	mov	esp, ebp
	pop	ebp
	ret	4
??_GVoiceManager@@QAEPAXI@Z ENDP			; VoiceManager::`scalar deleting destructor'
_TEXT	ENDS
; Function compile flags: /Odtp
; File c:\users\zhitao li\documents\visual studio 2012\projects\freefalcon\falcsnd\voicefilter.cpp
_TEXT	SEGMENT
_sign$ = -300						; size = 4
_dec$ = -296						; size = 4
_result$ = -292						; size = 8
_pBuf$ = -284						; size = 4
tv64 = -280						; size = 4
_index$ = -276						; size = 4
tv76 = -272						; size = 4
_fp$ = -268						; size = 4
_buffer$ = -264						; size = 260
__$ArrayPad$ = -4					; size = 4
_hwnd$ = 8						; size = 4
_message$ = 12						; size = 4
_wParam$ = 16						; size = 4
_lParam$ = 20						; size = 4
?PlayVoicesProc@@YGJPAUHWND__@@IIJ@Z PROC		; PlayVoicesProc

; 1546 : {

	push	ebp
	mov	ebp, esp
	sub	esp, 300				; 0000012cH
	mov	eax, DWORD PTR ___security_cookie
	xor	eax, ebp
	mov	DWORD PTR __$ArrayPad$[ebp], eax
	push	esi

; 1547 : 	char			buffer[MAX_PATH];
; 1548 : 	char			*pBuf;
; 1549 : 	int				index = 0;

	mov	DWORD PTR _index$[ebp], 0

; 1550 : 	FILE			*fp;
; 1551 : 	double			result;
; 1552 : 	//long			*lptr;
; 1553 : 	int				dec,sign;
; 1554 : 	
; 1555 : 	
; 1556 : 	switch (message)

	mov	eax, DWORD PTR _message$[ebp]
	mov	DWORD PTR tv64[ebp], eax
	cmp	DWORD PTR tv64[ebp], 272		; 00000110H
	je	SHORT $LN26@PlayVoices
	cmp	DWORD PTR tv64[ebp], 273		; 00000111H
	je	SHORT $LN25@PlayVoices
	jmp	$LN1@PlayVoices
$LN26@PlayVoices:

; 1557 : 	{
; 1558 : 	case WM_INITDIALOG:   
; 1559 : 		InitDialogData();

	call	?InitDialogData@@YAXXZ			; InitDialogData

; 1560 : 		SetupNewMsg();

	call	?SetupNewMsg@@YAXXZ			; SetupNewMsg

; 1561 : 		UpdateVoiceDialog(hwnd);

	mov	ecx, DWORD PTR _hwnd$[ebp]
	push	ecx
	call	?UpdateVoiceDialog@@YAXPAUHWND__@@@Z	; UpdateVoiceDialog
	add	esp, 4

; 1562 : 		ShowWindow(hwnd,SW_SHOW);

	push	5
	mov	edx, DWORD PTR _hwnd$[ebp]
	push	edx
	call	DWORD PTR __imp__ShowWindow@8

; 1563 : 		return DefWindowProc (hwnd, message, wParam, lParam);

	mov	eax, DWORD PTR _lParam$[ebp]
	push	eax
	mov	ecx, DWORD PTR _wParam$[ebp]
	push	ecx
	mov	edx, DWORD PTR _message$[ebp]
	push	edx
	mov	eax, DWORD PTR _hwnd$[ebp]
	push	eax
	call	DWORD PTR __imp__DefWindowProcA@16
	jmp	$LN29@PlayVoices

; 1564 : 		//DialogBox(hInst,MAKEINTRESOURCE(IDD_PLAYVOICES),hwnd,(DLGPROC)PlayVoicesProc);
; 1565 : 		break;

	jmp	$LN27@PlayVoices
$LN25@PlayVoices:

; 1566 : 	case WM_COMMAND:                			/* message: received command	*/
; 1567 : 		switch (LOWORD(wParam))

	mov	ecx, DWORD PTR _wParam$[ebp]
	and	ecx, 65535				; 0000ffffH
	movzx	edx, cx
	mov	DWORD PTR tv76[ebp], edx
	cmp	DWORD PTR tv76[ebp], 1338		; 0000053aH
	jg	SHORT $LN31@PlayVoices
	cmp	DWORD PTR tv76[ebp], 1338		; 0000053aH
	je	$LN19@PlayVoices
	cmp	DWORD PTR tv76[ebp], 0
	jle	$LN2@PlayVoices
	cmp	DWORD PTR tv76[ebp], 2
	jle	SHORT $LN22@PlayVoices
	cmp	DWORD PTR tv76[ebp], 1061		; 00000425H
	je	SHORT $LN21@PlayVoices
	jmp	$LN2@PlayVoices
$LN31@PlayVoices:
	mov	eax, DWORD PTR tv76[ebp]
	sub	eax, 1350				; 00000546H
	mov	DWORD PTR tv76[ebp], eax
	cmp	DWORD PTR tv76[ebp], 42			; 0000002aH
	ja	$LN2@PlayVoices
	mov	ecx, DWORD PTR tv76[ebp]
	movzx	edx, BYTE PTR $LN32@PlayVoices[ecx]
	jmp	DWORD PTR $LN33@PlayVoices[edx*4]
$LN22@PlayVoices:

; 1568 : 		{
; 1569 : 		case IDOK:   						/* "OK" box selected.			*/
; 1570 : 		case IDCANCEL:
; 1571 : 			EndDialog(hwnd, TRUE);     /* Exits the dialog box       */

	push	1
	mov	eax, DWORD PTR _hwnd$[ebp]
	push	eax
	call	DWORD PTR __imp__EndDialog@8

; 1572 : 			return (TRUE);

	mov	eax, 1
	jmp	$LN29@PlayVoices

; 1573 : 			break;

	jmp	$LN23@PlayVoices
$LN21@PlayVoices:

; 1574 : 		case IDC_PLAY:
; 1575 : 			GetDialogValues(hwnd);

	mov	ecx, DWORD PTR _hwnd$[ebp]
	push	ecx
	call	?GetDialogValues@@YAXPAUHWND__@@@Z	; GetDialogValues
	add	esp, 4

; 1576 : 			PlayToolMessage(hwnd);

	mov	edx, DWORD PTR _hwnd$[ebp]
	push	edx
	call	?PlayToolMessage@@YAHPAUHWND__@@@Z	; PlayToolMessage
	add	esp, 4

; 1577 : 			UpdateVoiceDialog(hwnd);

	mov	eax, DWORD PTR _hwnd$[ebp]
	push	eax
	call	?UpdateVoiceDialog@@YAXPAUHWND__@@@Z	; UpdateVoiceDialog
	add	esp, 4

; 1578 : 			break;

	jmp	$LN23@PlayVoices
$LN20@PlayVoices:

; 1579 : 		case IDC_UPDATE:
; 1580 : 			GetDialogValues(hwnd);

	mov	ecx, DWORD PTR _hwnd$[ebp]
	push	ecx
	call	?GetDialogValues@@YAXPAUHWND__@@@Z	; GetDialogValues
	add	esp, 4

; 1581 : 			UpdateVoiceDialog(hwnd);

	mov	edx, DWORD PTR _hwnd$[ebp]
	push	edx
	call	?UpdateVoiceDialog@@YAXPAUHWND__@@@Z	; UpdateVoiceDialog
	add	esp, 4

; 1582 : 			break;

	jmp	$LN23@PlayVoices
$LN19@PlayVoices:

; 1583 : 		case IDC_CLOSE:
; 1584 : 			GetDialogValues(hwnd);

	mov	eax, DWORD PTR _hwnd$[ebp]
	push	eax
	call	?GetDialogValues@@YAXPAUHWND__@@@Z	; GetDialogValues
	add	esp, 4

; 1585 : 			EndDialog(hwnd, TRUE);

	push	1
	mov	ecx, DWORD PTR _hwnd$[ebp]
	push	ecx
	call	DWORD PTR __imp__EndDialog@8

; 1586 : 			break;

	jmp	$LN23@PlayVoices
$LN18@PlayVoices:

; 1587 : 		case IDC_INC_MESSAGE:
; 1588 : 			GetDialogValues(hwnd);

	mov	edx, DWORD PTR _hwnd$[ebp]
	push	edx
	call	?GetDialogValues@@YAXPAUHWND__@@@Z	; GetDialogValues
	add	esp, 4

; 1589 : 			IncDecMsgToPlay(1);

	push	1
	call	?IncDecMsgToPlay@@YAXH@Z		; IncDecMsgToPlay
	add	esp, 4

; 1590 : 			
; 1591 : 			PlayToolMessage(hwnd);

	mov	eax, DWORD PTR _hwnd$[ebp]
	push	eax
	call	?PlayToolMessage@@YAHPAUHWND__@@@Z	; PlayToolMessage
	add	esp, 4

; 1592 : 			UpdateVoiceDialog(hwnd);

	mov	ecx, DWORD PTR _hwnd$[ebp]
	push	ecx
	call	?UpdateVoiceDialog@@YAXPAUHWND__@@@Z	; UpdateVoiceDialog
	add	esp, 4

; 1593 : 			break;

	jmp	$LN23@PlayVoices
$LN17@PlayVoices:

; 1594 : 		case IDC_DEC_MESSAGE:
; 1595 : 			GetDialogValues(hwnd);

	mov	edx, DWORD PTR _hwnd$[ebp]
	push	edx
	call	?GetDialogValues@@YAXPAUHWND__@@@Z	; GetDialogValues
	add	esp, 4

; 1596 : 			IncDecMsgToPlay(-1);

	push	-1
	call	?IncDecMsgToPlay@@YAXH@Z		; IncDecMsgToPlay
	add	esp, 4

; 1597 : 			
; 1598 : 			PlayToolMessage(hwnd);

	mov	eax, DWORD PTR _hwnd$[ebp]
	push	eax
	call	?PlayToolMessage@@YAHPAUHWND__@@@Z	; PlayToolMessage
	add	esp, 4

; 1599 : 			UpdateVoiceDialog(hwnd);

	mov	ecx, DWORD PTR _hwnd$[ebp]
	push	ecx
	call	?UpdateVoiceDialog@@YAXPAUHWND__@@@Z	; UpdateVoiceDialog
	add	esp, 4

; 1600 : 			break;

	jmp	$LN23@PlayVoices
$LN16@PlayVoices:

; 1601 : 		case IDC_INC_VOICE:
; 1602 : 			GetDialogValues(hwnd);

	mov	edx, DWORD PTR _hwnd$[ebp]
	push	edx
	call	?GetDialogValues@@YAXPAUHWND__@@@Z	; GetDialogValues
	add	esp, 4

; 1603 : 			IncDecTalkerToPlay(1);

	push	1
	call	?IncDecTalkerToPlay@@YAXH@Z		; IncDecTalkerToPlay
	add	esp, 4

; 1604 : 			
; 1605 : 			PlayToolMessage(hwnd);

	mov	eax, DWORD PTR _hwnd$[ebp]
	push	eax
	call	?PlayToolMessage@@YAHPAUHWND__@@@Z	; PlayToolMessage
	add	esp, 4

; 1606 : 			UpdateVoiceDialog(hwnd);

	mov	ecx, DWORD PTR _hwnd$[ebp]
	push	ecx
	call	?UpdateVoiceDialog@@YAXPAUHWND__@@@Z	; UpdateVoiceDialog
	add	esp, 4

; 1607 : 			break;

	jmp	$LN23@PlayVoices
$LN15@PlayVoices:

; 1608 : 		case IDC_DEC_VOICE:
; 1609 : 			GetDialogValues(hwnd);

	mov	edx, DWORD PTR _hwnd$[ebp]
	push	edx
	call	?GetDialogValues@@YAXPAUHWND__@@@Z	; GetDialogValues
	add	esp, 4

; 1610 : 			IncDecTalkerToPlay(-1);

	push	-1
	call	?IncDecTalkerToPlay@@YAXH@Z		; IncDecTalkerToPlay
	add	esp, 4

; 1611 : 			
; 1612 : 			PlayToolMessage(hwnd);

	mov	eax, DWORD PTR _hwnd$[ebp]
	push	eax
	call	?PlayToolMessage@@YAHPAUHWND__@@@Z	; PlayToolMessage
	add	esp, 4

; 1613 : 			UpdateVoiceDialog(hwnd);

	mov	ecx, DWORD PTR _hwnd$[ebp]
	push	ecx
	call	?UpdateVoiceDialog@@YAXPAUHWND__@@@Z	; UpdateVoiceDialog
	add	esp, 4

; 1614 : 			break;

	jmp	$LN23@PlayVoices
$LN14@PlayVoices:

; 1615 : 		case IDC_INC_FRAG:
; 1616 : 			GetDialogValues(hwnd);

	mov	edx, DWORD PTR _hwnd$[ebp]
	push	edx
	call	?GetDialogValues@@YAXPAUHWND__@@@Z	; GetDialogValues
	add	esp, 4

; 1617 : 			IncDecFragToPlay(1);

	push	1
	call	?IncDecFragToPlay@@YAXH@Z		; IncDecFragToPlay
	add	esp, 4

; 1618 : 			
; 1619 : 			PlayToolMessage(hwnd);

	mov	eax, DWORD PTR _hwnd$[ebp]
	push	eax
	call	?PlayToolMessage@@YAHPAUHWND__@@@Z	; PlayToolMessage
	add	esp, 4

; 1620 : 			UpdateVoiceDialog(hwnd);

	mov	ecx, DWORD PTR _hwnd$[ebp]
	push	ecx
	call	?UpdateVoiceDialog@@YAXPAUHWND__@@@Z	; UpdateVoiceDialog
	add	esp, 4

; 1621 : 			break;

	jmp	$LN23@PlayVoices
$LN13@PlayVoices:

; 1622 : 		case IDC_DEC_FRAG:
; 1623 : 			GetDialogValues(hwnd);

	mov	edx, DWORD PTR _hwnd$[ebp]
	push	edx
	call	?GetDialogValues@@YAXPAUHWND__@@@Z	; GetDialogValues
	add	esp, 4

; 1624 : 			IncDecFragToPlay(-1);

	push	-1
	call	?IncDecFragToPlay@@YAXH@Z		; IncDecFragToPlay
	add	esp, 4

; 1625 : 			
; 1626 : 			PlayToolMessage(hwnd);

	mov	eax, DWORD PTR _hwnd$[ebp]
	push	eax
	call	?PlayToolMessage@@YAHPAUHWND__@@@Z	; PlayToolMessage
	add	esp, 4

; 1627 : 			UpdateVoiceDialog(hwnd);

	mov	ecx, DWORD PTR _hwnd$[ebp]
	push	ecx
	call	?UpdateVoiceDialog@@YAXPAUHWND__@@@Z	; UpdateVoiceDialog
	add	esp, 4

; 1628 : 			break;

	jmp	$LN23@PlayVoices
$LN12@PlayVoices:

; 1629 : 		case IDC_INC_ALLINDEXES:
; 1630 : 			GetDialogValues(hwnd);

	mov	edx, DWORD PTR _hwnd$[ebp]
	push	edx
	call	?GetDialogValues@@YAXPAUHWND__@@@Z	; GetDialogValues
	add	esp, 4

; 1631 : 			IncDecDataToPlay(1);

	push	1
	call	?IncDecDataToPlay@@YAXH@Z		; IncDecDataToPlay
	add	esp, 4

; 1632 : 			
; 1633 : 			PlayToolMessage(hwnd);

	mov	eax, DWORD PTR _hwnd$[ebp]
	push	eax
	call	?PlayToolMessage@@YAHPAUHWND__@@@Z	; PlayToolMessage
	add	esp, 4

; 1634 : 			UpdateVoiceDialog(hwnd);

	mov	ecx, DWORD PTR _hwnd$[ebp]
	push	ecx
	call	?UpdateVoiceDialog@@YAXPAUHWND__@@@Z	; UpdateVoiceDialog
	add	esp, 4

; 1635 : 			break;

	jmp	$LN23@PlayVoices
$LN11@PlayVoices:

; 1636 : 		case IDC_DEC_ALLINDEXES:
; 1637 : 			GetDialogValues(hwnd);

	mov	edx, DWORD PTR _hwnd$[ebp]
	push	edx
	call	?GetDialogValues@@YAXPAUHWND__@@@Z	; GetDialogValues
	add	esp, 4

; 1638 : 			IncDecDataToPlay(-1);

	push	-1
	call	?IncDecDataToPlay@@YAXH@Z		; IncDecDataToPlay
	add	esp, 4

; 1639 : 			
; 1640 : 			PlayToolMessage(hwnd);

	mov	eax, DWORD PTR _hwnd$[ebp]
	push	eax
	call	?PlayToolMessage@@YAHPAUHWND__@@@Z	; PlayToolMessage
	add	esp, 4

; 1641 : 			UpdateVoiceDialog(hwnd);

	mov	ecx, DWORD PTR _hwnd$[ebp]
	push	ecx
	call	?UpdateVoiceDialog@@YAXPAUHWND__@@@Z	; UpdateVoiceDialog
	add	esp, 4

; 1642 : 			break;

	jmp	$LN23@PlayVoices
$LN10@PlayVoices:

; 1643 : 		case IDC_RESET:
; 1644 : 			memset(evalLastFrag,0,sizeof(short)*voiceFilter->evalfile.MaxEvals()*voiceFilter->fragfile.MaxVoices());

	mov	ecx, DWORD PTR ?voiceFilter@@3PAVVoiceFilter@@A ; voiceFilter
	add	ecx, 44					; 0000002cH
	call	?MaxEvals@EvalFile@@QAEHXZ		; EvalFile::MaxEvals
	mov	esi, eax
	shl	esi, 1
	mov	ecx, DWORD PTR ?voiceFilter@@3PAVVoiceFilter@@A ; voiceFilter
	add	ecx, 20					; 00000014H
	call	?MaxVoices@FragFile@@QAEHXZ		; FragFile::MaxVoices
	imul	esi, eax
	push	esi
	push	0
	mov	edx, DWORD PTR ?evalLastFrag@@3PAFA	; evalLastFrag
	push	edx
	call	_memset
	add	esp, 12					; 0000000cH

; 1645 : 			memset(fragsPlayed,0,sizeof(char)*voiceFilter->fragfile.MaxFrags()*voiceFilter->fragfile.MaxVoices());

	mov	ecx, DWORD PTR ?voiceFilter@@3PAVVoiceFilter@@A ; voiceFilter
	add	ecx, 20					; 00000014H
	call	?MaxFrags@FragFile@@QAEHXZ		; FragFile::MaxFrags
	mov	esi, eax
	mov	ecx, DWORD PTR ?voiceFilter@@3PAVVoiceFilter@@A ; voiceFilter
	add	ecx, 20					; 00000014H
	call	?MaxVoices@FragFile@@QAEHXZ		; FragFile::MaxVoices
	imul	esi, eax
	push	esi
	push	0
	mov	eax, DWORD PTR ?fragsPlayed@@3PADA	; fragsPlayed
	push	eax
	call	_memset
	add	esp, 12					; 0000000cH

; 1646 : 			break;

	jmp	$LN23@PlayVoices
$LN9@PlayVoices:

; 1647 : 		case IDC_SAVE:
; 1648 : 			GetDialogValues(hwnd);

	mov	ecx, DWORD PTR _hwnd$[ebp]
	push	ecx
	call	?GetDialogValues@@YAXPAUHWND__@@@Z	; GetDialogValues
	add	esp, 4

; 1649 : 			sprintf(buffer,"%s\\VoiceTool.sav",FalconDataDirectory);

	push	OFFSET ?FalconDataDirectory@@3PADA	; FalconDataDirectory
	push	OFFSET ??_C@_0BB@HPCAMMON@?$CFs?2VoiceTool?4sav?$AA@
	lea	edx, DWORD PTR _buffer$[ebp]
	push	edx
	call	_sprintf
	add	esp, 12					; 0000000cH

; 1650 : 			fp = fopen(buffer,"wb");

	push	OFFSET ??_C@_02GMLFBBN@wb?$AA@
	lea	eax, DWORD PTR _buffer$[ebp]
	push	eax
	call	_fopen
	add	esp, 8
	mov	DWORD PTR _fp$[ebp], eax

; 1651 : 			if(fp)

	cmp	DWORD PTR _fp$[ebp], 0
	je	$LN8@PlayVoices

; 1652 : 			{
; 1653 : 				fwrite(&VToolMsgData,sizeof(VoiceToolData),1,fp);

	mov	ecx, DWORD PTR _fp$[ebp]
	push	ecx
	push	1
	push	140					; 0000008cH
	push	OFFSET ?VToolMsgData@@3UVoiceToolData@@A ; VToolMsgData
	call	_fwrite
	add	esp, 16					; 00000010H

; 1654 : 				fwrite(evalLastFrag,sizeof(short),voiceFilter->evalfile.MaxEvals()*voiceFilter->fragfile.MaxVoices(),fp);

	mov	edx, DWORD PTR _fp$[ebp]
	push	edx
	mov	ecx, DWORD PTR ?voiceFilter@@3PAVVoiceFilter@@A ; voiceFilter
	add	ecx, 44					; 0000002cH
	call	?MaxEvals@EvalFile@@QAEHXZ		; EvalFile::MaxEvals
	mov	esi, eax
	mov	ecx, DWORD PTR ?voiceFilter@@3PAVVoiceFilter@@A ; voiceFilter
	add	ecx, 20					; 00000014H
	call	?MaxVoices@FragFile@@QAEHXZ		; FragFile::MaxVoices
	imul	esi, eax
	push	esi
	push	2
	mov	eax, DWORD PTR ?evalLastFrag@@3PAFA	; evalLastFrag
	push	eax
	call	_fwrite
	add	esp, 16					; 00000010H

; 1655 : 				fwrite(fragsPlayed,sizeof(char),voiceFilter->fragfile.MaxFrags()*voiceFilter->fragfile.MaxVoices(),fp);

	mov	ecx, DWORD PTR _fp$[ebp]
	push	ecx
	mov	ecx, DWORD PTR ?voiceFilter@@3PAVVoiceFilter@@A ; voiceFilter
	add	ecx, 20					; 00000014H
	call	?MaxFrags@FragFile@@QAEHXZ		; FragFile::MaxFrags
	mov	esi, eax
	mov	ecx, DWORD PTR ?voiceFilter@@3PAVVoiceFilter@@A ; voiceFilter
	add	ecx, 20					; 00000014H
	call	?MaxVoices@FragFile@@QAEHXZ		; FragFile::MaxVoices
	imul	esi, eax
	push	esi
	push	1
	mov	edx, DWORD PTR ?fragsPlayed@@3PADA	; fragsPlayed
	push	edx
	call	_fwrite
	add	esp, 16					; 00000010H

; 1656 : 				fclose(fp);

	mov	eax, DWORD PTR _fp$[ebp]
	push	eax
	call	_fclose
	add	esp, 4
$LN8@PlayVoices:

; 1657 : 			}
; 1658 : 			break;

	jmp	$LN23@PlayVoices
$LN7@PlayVoices:

; 1659 : 		case IDC_LOAD:
; 1660 : 			sprintf(buffer,"%s\\VoiceTool.sav",FalconDataDirectory);

	push	OFFSET ?FalconDataDirectory@@3PADA	; FalconDataDirectory
	push	OFFSET ??_C@_0BB@HPCAMMON@?$CFs?2VoiceTool?4sav?$AA@
	lea	ecx, DWORD PTR _buffer$[ebp]
	push	ecx
	call	_sprintf
	add	esp, 12					; 0000000cH

; 1661 : 			fp = fopen(buffer,"rb");

	push	OFFSET ??_C@_02JDPG@rb?$AA@
	lea	edx, DWORD PTR _buffer$[ebp]
	push	edx
	call	_fopen
	add	esp, 8
	mov	DWORD PTR _fp$[ebp], eax

; 1662 : 			if(fp)

	cmp	DWORD PTR _fp$[ebp], 0
	je	$LN6@PlayVoices

; 1663 : 			{
; 1664 : 				fread(&VToolMsgData,sizeof(VoiceToolData),1,fp);

	mov	eax, DWORD PTR _fp$[ebp]
	push	eax
	push	1
	push	140					; 0000008cH
	push	OFFSET ?VToolMsgData@@3UVoiceToolData@@A ; VToolMsgData
	call	_fread
	add	esp, 16					; 00000010H

; 1665 : 				fread(evalLastFrag,sizeof(short),voiceFilter->evalfile.MaxEvals()*voiceFilter->fragfile.MaxVoices(),fp);

	mov	ecx, DWORD PTR _fp$[ebp]
	push	ecx
	mov	ecx, DWORD PTR ?voiceFilter@@3PAVVoiceFilter@@A ; voiceFilter
	add	ecx, 44					; 0000002cH
	call	?MaxEvals@EvalFile@@QAEHXZ		; EvalFile::MaxEvals
	mov	esi, eax
	mov	ecx, DWORD PTR ?voiceFilter@@3PAVVoiceFilter@@A ; voiceFilter
	add	ecx, 20					; 00000014H
	call	?MaxVoices@FragFile@@QAEHXZ		; FragFile::MaxVoices
	imul	esi, eax
	push	esi
	push	2
	mov	edx, DWORD PTR ?evalLastFrag@@3PAFA	; evalLastFrag
	push	edx
	call	_fread
	add	esp, 16					; 00000010H

; 1666 : 				fread(fragsPlayed,sizeof(char),voiceFilter->fragfile.MaxFrags()*voiceFilter->fragfile.MaxVoices(),fp);

	mov	eax, DWORD PTR _fp$[ebp]
	push	eax
	mov	ecx, DWORD PTR ?voiceFilter@@3PAVVoiceFilter@@A ; voiceFilter
	add	ecx, 20					; 00000014H
	call	?MaxFrags@FragFile@@QAEHXZ		; FragFile::MaxFrags
	mov	esi, eax
	mov	ecx, DWORD PTR ?voiceFilter@@3PAVVoiceFilter@@A ; voiceFilter
	add	ecx, 20					; 00000014H
	call	?MaxVoices@FragFile@@QAEHXZ		; FragFile::MaxVoices
	imul	esi, eax
	push	esi
	push	1
	mov	ecx, DWORD PTR ?fragsPlayed@@3PADA	; fragsPlayed
	push	ecx
	call	_fread
	add	esp, 16					; 00000010H

; 1667 : 				fclose(fp);

	mov	edx, DWORD PTR _fp$[ebp]
	push	edx
	call	_fclose
	add	esp, 4

; 1668 : 				UpdateVoiceDialog(hwnd);

	mov	eax, DWORD PTR _hwnd$[ebp]
	push	eax
	call	?UpdateVoiceDialog@@YAXPAUHWND__@@@Z	; UpdateVoiceDialog
	add	esp, 4
$LN6@PlayVoices:

; 1669 : 			}
; 1670 : 			break;

	jmp	$LN23@PlayVoices
$LN5@PlayVoices:

; 1671 : 		case IDC_COMBOS:
; 1672 : 			result = CalcCombinations();

	call	?CalcCombinations@@YANXZ		; CalcCombinations
	fstp	QWORD PTR _result$[ebp]

; 1673 : 			pBuf = _fcvt(result,0,&dec,&sign);

	lea	ecx, DWORD PTR _sign$[ebp]
	push	ecx
	lea	edx, DWORD PTR _dec$[ebp]
	push	edx
	push	0
	sub	esp, 8
	movsd	xmm0, QWORD PTR _result$[ebp]
	movsd	QWORD PTR [esp], xmm0
	call	__fcvt
	add	esp, 20					; 00000014H
	mov	DWORD PTR _pBuf$[ebp], eax

; 1674 : 			Edit_SetText(GetDlgItem(hwnd,IDC_COMBINATIONS), pBuf);

	mov	eax, DWORD PTR _pBuf$[ebp]
	push	eax
	push	1393					; 00000571H
	mov	ecx, DWORD PTR _hwnd$[ebp]
	push	ecx
	call	DWORD PTR __imp__GetDlgItem@8
	push	eax
	call	DWORD PTR __imp__SetWindowTextA@8

; 1675 : 			break;

	jmp	$LN23@PlayVoices
$LN4@PlayVoices:

; 1676 : 		case IDC_DEC_INDEX1:
; 1677 : 		case IDC_DEC_INDEX2:
; 1678 : 		case IDC_DEC_INDEX3:
; 1679 : 		case IDC_DEC_INDEX4:
; 1680 : 		case IDC_DEC_INDEX5:
; 1681 : 		case IDC_DEC_INDEX6:
; 1682 : 		case IDC_DEC_INDEX7:
; 1683 : 		case IDC_DEC_INDEX8:
; 1684 : 		case IDC_DEC_INDEX9:
; 1685 : 		case IDC_DEC_INDEX10:
; 1686 : 		case IDC_DEC_INDEX11:
; 1687 : 		case IDC_DEC_INDEX12:
; 1688 : 		case IDC_DEC_INDEX13:
; 1689 : 		case IDC_DEC_INDEX14:
; 1690 : 		case IDC_DEC_INDEX15:
; 1691 : 			index = (LOWORD(wParam) - IDC_DEC_INDEX1)/2;

	mov	edx, DWORD PTR _wParam$[ebp]
	and	edx, 65535				; 0000ffffH
	movzx	eax, dx
	sub	eax, 1358				; 0000054eH
	cdq
	sub	eax, edx
	sar	eax, 1
	mov	DWORD PTR _index$[ebp], eax

; 1692 : 			IncDecIndex(index,-1);

	push	-1
	mov	eax, DWORD PTR _index$[ebp]
	push	eax
	call	?IncDecIndex@@YAXHH@Z			; IncDecIndex
	add	esp, 8

; 1693 : 			UpdateVoiceDialog(hwnd);

	mov	ecx, DWORD PTR _hwnd$[ebp]
	push	ecx
	call	?UpdateVoiceDialog@@YAXPAUHWND__@@@Z	; UpdateVoiceDialog
	add	esp, 4

; 1694 : 			break;

	jmp	SHORT $LN23@PlayVoices
$LN3@PlayVoices:

; 1695 : 		case IDC_INC_INDEX1:
; 1696 : 		case IDC_INC_INDEX2:
; 1697 : 		case IDC_INC_INDEX3:
; 1698 : 		case IDC_INC_INDEX4:
; 1699 : 		case IDC_INC_INDEX5:
; 1700 : 		case IDC_INC_INDEX6:
; 1701 : 		case IDC_INC_INDEX7:
; 1702 : 		case IDC_INC_INDEX8:
; 1703 : 		case IDC_INC_INDEX9:
; 1704 : 		case IDC_INC_INDEX10:
; 1705 : 		case IDC_INC_INDEX11:
; 1706 : 		case IDC_INC_INDEX12:
; 1707 : 		case IDC_INC_INDEX13:
; 1708 : 		case IDC_INC_INDEX14:
; 1709 : 		case IDC_INC_INDEX15:
; 1710 : 			index = (LOWORD(wParam) - IDC_INC_INDEX1)/2;

	mov	edx, DWORD PTR _wParam$[ebp]
	and	edx, 65535				; 0000ffffH
	movzx	eax, dx
	sub	eax, 1357				; 0000054dH
	cdq
	sub	eax, edx
	sar	eax, 1
	mov	DWORD PTR _index$[ebp], eax

; 1711 : 			IncDecIndex(index,1);

	push	1
	mov	eax, DWORD PTR _index$[ebp]
	push	eax
	call	?IncDecIndex@@YAXHH@Z			; IncDecIndex
	add	esp, 8

; 1712 : 			UpdateVoiceDialog(hwnd);

	mov	ecx, DWORD PTR _hwnd$[ebp]
	push	ecx
	call	?UpdateVoiceDialog@@YAXPAUHWND__@@@Z	; UpdateVoiceDialog
	add	esp, 4

; 1713 : 			break;

	jmp	SHORT $LN23@PlayVoices
$LN2@PlayVoices:

; 1714 : 		default:
; 1715 : 			return DefWindowProc (hwnd, message, wParam, lParam);

	mov	edx, DWORD PTR _lParam$[ebp]
	push	edx
	mov	eax, DWORD PTR _wParam$[ebp]
	push	eax
	mov	ecx, DWORD PTR _message$[ebp]
	push	ecx
	mov	edx, DWORD PTR _hwnd$[ebp]
	push	edx
	call	DWORD PTR __imp__DefWindowProcA@16
	jmp	SHORT $LN29@PlayVoices
$LN23@PlayVoices:

; 1716 : 		}
; 1717 : 	break;

	jmp	SHORT $LN27@PlayVoices
$LN1@PlayVoices:

; 1718 : 
; 1719 : 	default:
; 1720 : 		return DefWindowProc (hwnd, message, wParam, lParam);

	mov	eax, DWORD PTR _lParam$[ebp]
	push	eax
	mov	ecx, DWORD PTR _wParam$[ebp]
	push	ecx
	mov	edx, DWORD PTR _message$[ebp]
	push	edx
	mov	eax, DWORD PTR _hwnd$[ebp]
	push	eax
	call	DWORD PTR __imp__DefWindowProcA@16
	jmp	SHORT $LN29@PlayVoices
$LN27@PlayVoices:

; 1721 : 	}
; 1722 : return TRUE;

	mov	eax, 1
$LN29@PlayVoices:

; 1723 : }

	pop	esi
	mov	ecx, DWORD PTR __$ArrayPad$[ebp]
	xor	ecx, ebp
	call	@__security_check_cookie@4
	mov	esp, ebp
	pop	ebp
	ret	16					; 00000010H
	npad	3
$LN33@PlayVoices:
	DD	$LN20@PlayVoices
	DD	$LN16@PlayVoices
	DD	$LN15@PlayVoices
	DD	$LN18@PlayVoices
	DD	$LN17@PlayVoices
	DD	$LN14@PlayVoices
	DD	$LN13@PlayVoices
	DD	$LN3@PlayVoices
	DD	$LN4@PlayVoices
	DD	$LN12@PlayVoices
	DD	$LN11@PlayVoices
	DD	$LN10@PlayVoices
	DD	$LN9@PlayVoices
	DD	$LN7@PlayVoices
	DD	$LN5@PlayVoices
$LN32@PlayVoices:
	DB	0
	DB	1
	DB	2
	DB	3
	DB	4
	DB	5
	DB	6
	DB	7
	DB	8
	DB	7
	DB	8
	DB	7
	DB	8
	DB	7
	DB	8
	DB	7
	DB	8
	DB	7
	DB	8
	DB	7
	DB	8
	DB	7
	DB	8
	DB	7
	DB	8
	DB	7
	DB	8
	DB	7
	DB	8
	DB	7
	DB	8
	DB	7
	DB	8
	DB	7
	DB	8
	DB	7
	DB	8
	DB	9
	DB	10					; 0000000aH
	DB	11					; 0000000bH
	DB	12					; 0000000cH
	DB	13					; 0000000dH
	DB	14					; 0000000eH
?PlayVoicesProc@@YGJPAUHWND__@@IIJ@Z ENDP		; PlayVoicesProc
_TEXT	ENDS
; Function compile flags: /Odtp
; File c:\users\zhitao li\documents\visual studio 2012\projects\freefalcon\falcsnd\voicefilter.cpp
_TEXT	SEGMENT
_message$1 = -316					; size = 40
$T2 = -276						; size = 4
_fragNumber$3 = -272					; size = 4
_i$4 = -268						; size = 4
_buffer$ = -264						; size = 260
__$ArrayPad$ = -4					; size = 4
_hwnd$ = 8						; size = 4
?PlayToolMessage@@YAHPAUHWND__@@@Z PROC			; PlayToolMessage

; 1371 : {

	push	ebp
	mov	ebp, esp
	sub	esp, 316				; 0000013cH
	mov	eax, DWORD PTR ___security_cookie
	xor	eax, ebp
	mov	DWORD PTR __$ArrayPad$[ebp], eax

; 1372 : 	char			buffer[MAX_PATH];
; 1373 : 	if(VToolMsgData.message < voiceFilter->commfile.MaxComms())

	mov	ecx, DWORD PTR ?voiceFilter@@3PAVVoiceFilter@@A ; voiceFilter
	call	?MaxComms@CommFile@@QAEHXZ		; CommFile::MaxComms
	cmp	DWORD PTR ?VToolMsgData@@3UVoiceToolData@@A+8, eax
	jge	$LN9@PlayToolMe

; 1374 : 	{
; 1375 : 		if(VToolMsgData.mode == PLAY_MESSAGE)

	cmp	DWORD PTR ?VToolMsgData@@3UVoiceToolData@@A, 1
	jne	$LN8@PlayToolMe

; 1376 : 		{
; 1377 : 			if(voiceFilter)

	cmp	DWORD PTR ?voiceFilter@@3PAVVoiceFilter@@A, 0 ; voiceFilter
	je	SHORT $LN7@PlayToolMe

; 1378 : 				voiceFilter->PlayRadioMessage((char)VToolMsgData.talker, (short)VToolMsgData.message, VToolMsgData.data, vuxGameTime,-1, 0, vuNullId, EVAL_BY_INDEX );

	mov	eax, DWORD PTR ?FalconNullId@@3VVU_ID@@A+4
	push	eax
	mov	ecx, DWORD PTR ?FalconNullId@@3VVU_ID@@A
	push	ecx
	push	1
	mov	edx, DWORD PTR ?vuNullId@@3VVU_ID@@A+4
	push	edx
	mov	eax, DWORD PTR ?vuNullId@@3VVU_ID@@A
	push	eax
	push	0
	push	-1
	mov	ecx, DWORD PTR ?vuxGameTime@@3KA	; vuxGameTime
	push	ecx
	push	OFFSET ?VToolMsgData@@3UVoiceToolData@@A+50
	movzx	edx, WORD PTR ?VToolMsgData@@3UVoiceToolData@@A+8
	push	edx
	movzx	eax, BYTE PTR ?VToolMsgData@@3UVoiceToolData@@A+4
	push	eax
	mov	ecx, DWORD PTR ?voiceFilter@@3PAVVoiceFilter@@A ; voiceFilter
	call	?PlayRadioMessage@VoiceFilter@@QAEXDFPAFKDDVVU_ID@@H1@Z ; VoiceFilter::PlayRadioMessage
$LN7@PlayToolMe:

; 1379 : 			
; 1380 : 			SetEvent( VMWakeEventHandle );

	mov	ecx, DWORD PTR ?VMWakeEventHandle@@3PAXA ; VMWakeEventHandle
	push	ecx
	call	DWORD PTR __imp__SetEvent@4

; 1381 : 			PostMessage(FalconDisplay.appWin,FM_GIVE_FOCUS,NULL,NULL);

	push	0
	push	0
	push	1060					; 00000424H
	mov	edx, DWORD PTR ?FalconDisplay@@3VFalconDisplayConfiguration@@A+108
	push	edx
	call	DWORD PTR __imp__PostMessageA@16

; 1382 : 			SetEvent( VMWakeEventHandle );

	mov	eax, DWORD PTR ?VMWakeEventHandle@@3PAXA ; VMWakeEventHandle
	push	eax
	call	DWORD PTR __imp__SetEvent@4

; 1383 : 			for(int i = IDC_DATA0; i < IDC_DATA0 + 15; i++)

	mov	DWORD PTR _i$4[ebp], 1457		; 000005b1H
	jmp	SHORT $LN6@PlayToolMe
$LN5@PlayToolMe:
	mov	ecx, DWORD PTR _i$4[ebp]
	add	ecx, 1
	mov	DWORD PTR _i$4[ebp], ecx
$LN6@PlayToolMe:
	cmp	DWORD PTR _i$4[ebp], 1472		; 000005c0H
	jge	SHORT $LN4@PlayToolMe

; 1384 : 			{
; 1385 : 				int fragNumber = 0;

	mov	DWORD PTR _fragNumber$3[ebp], 0

; 1386 : 				GetWindowText(GetDlgItem(hwnd,i),(LPTSTR) buffer, MAX_PATH);

	push	260					; 00000104H
	lea	edx, DWORD PTR _buffer$[ebp]
	push	edx
	mov	eax, DWORD PTR _i$4[ebp]
	push	eax
	mov	ecx, DWORD PTR _hwnd$[ebp]
	push	ecx
	call	DWORD PTR __imp__GetDlgItem@8
	push	eax
	call	DWORD PTR __imp__GetWindowTextA@12

; 1387 : 				
; 1388 : 				fragNumber = atoi(buffer);

	lea	edx, DWORD PTR _buffer$[ebp]
	push	edx
	call	_atoi
	add	esp, 4
	mov	DWORD PTR _fragNumber$3[ebp], eax

; 1389 : 				if(fragNumber >= 0)

	cmp	DWORD PTR _fragNumber$3[ebp], 0
	jl	SHORT $LN3@PlayToolMe

; 1390 : 					fragsPlayed[fragNumber + (VToolMsgData.talker * voiceFilter->fragfile.MaxFrags())] = TRUE;

	mov	ecx, DWORD PTR ?voiceFilter@@3PAVVoiceFilter@@A ; voiceFilter
	add	ecx, 20					; 00000014H
	call	?MaxFrags@FragFile@@QAEHXZ		; FragFile::MaxFrags
	imul	eax, DWORD PTR ?VToolMsgData@@3UVoiceToolData@@A+4
	add	eax, DWORD PTR _fragNumber$3[ebp]
	mov	ecx, DWORD PTR ?fragsPlayed@@3PADA	; fragsPlayed
	mov	BYTE PTR [ecx+eax], 1
$LN3@PlayToolMe:

; 1391 : 				
; 1392 : 			}

	jmp	$LN5@PlayToolMe
$LN4@PlayToolMe:

; 1393 : 			
; 1394 : 			return TRUE;

	mov	eax, 1
	jmp	$LN10@PlayToolMe
	jmp	$LN9@PlayToolMe
$LN8@PlayToolMe:

; 1395 : 		}
; 1396 : 		else if(VToolMsgData.mode == PLAY_FRAG)

	cmp	DWORD PTR ?VToolMsgData@@3UVoiceToolData@@A, 2
	jne	$LN9@PlayToolMe

; 1397 : 		{
; 1398 : 			CONVERSATION	message;

	lea	ecx, DWORD PTR _message$1[ebp]
	call	??0CONVERSATION@@QAE@XZ

; 1399 : 			
; 1400 : 			message.status = SLOT_IN_USE;

	mov	BYTE PTR _message$1[ebp+2], 1

; 1401 : 			message.speaker = (char)VToolMsgData.talker;

	mov	dl, BYTE PTR ?VToolMsgData@@3UVoiceToolData@@A+4
	mov	BYTE PTR _message$1[ebp+5], dl

; 1402 : 			message.channelIndex = 0;

	mov	BYTE PTR _message$1[ebp+8], 0

; 1403 : 			message.filter = -1;

	mov	BYTE PTR _message$1[ebp+32], -1

; 1404 : 			message.sizeofConv = 1;

	mov	BYTE PTR _message$1[ebp+4], 1

; 1405 : 			message.interrupt = QUEUE_CONV;

	mov	BYTE PTR _message$1[ebp+7], 1

; 1406 : 			message.playTime = vuxGameTime;				//when the message should be played

	mov	eax, DWORD PTR ?vuxGameTime@@3KA	; vuxGameTime
	mov	DWORD PTR _message$1[ebp+12], eax

; 1407 : 			message.priority = 1;						//NORMAL_PRIORITY;

	mov	BYTE PTR _message$1[ebp+6], 1

; 1408 : 			message.convIndex = 0;

	mov	BYTE PTR _message$1[ebp+3], 0

; 1409 : 			
; 1410 : 			#ifdef USE_SH_POOLS
; 1411 : 			message.conversations = (short *)MemAllocPtr( gTextMemPool,  sizeof(short), FALSE );
; 1412 : 			#else
; 1413 : 			message.conversations = new short[1];

	push	2
	call	??_U@YAPAXI@Z				; operator new[]
	add	esp, 4
	mov	DWORD PTR $T2[ebp], eax
	mov	ecx, DWORD PTR $T2[ebp]
	mov	DWORD PTR _message$1[ebp+36], ecx

; 1414 : 			#endif
; 1415 : 			
; 1416 : 			message.conversations[0] = voiceFilter->FragToFile( VToolMsgData.talker, (short)VToolMsgData.frag );

	movzx	edx, WORD PTR ?VToolMsgData@@3UVoiceToolData@@A+12
	push	edx
	mov	eax, DWORD PTR ?VToolMsgData@@3UVoiceToolData@@A+4
	push	eax
	mov	ecx, DWORD PTR ?voiceFilter@@3PAVVoiceFilter@@A ; voiceFilter
	call	?FragToFile@VoiceFilter@@QAEFHF@Z	; VoiceFilter::FragToFile
	mov	ecx, 2
	imul	ecx, 0
	mov	edx, DWORD PTR _message$1[ebp+36]
	mov	WORD PTR [edx+ecx], ax

; 1417 : 			
; 1418 : 			VM->AddToConversationQueue( &message );

	lea	eax, DWORD PTR _message$1[ebp]
	push	eax
	mov	ecx, DWORD PTR ?VM@@3PAVVoiceManager@@A	; VM
	call	?AddToConversationQueue@VoiceManager@@QAEXPAVCONVERSATION@@@Z ; VoiceManager::AddToConversationQueue

; 1419 : 			
; 1420 : 			SetEvent( VMWakeEventHandle );

	mov	ecx, DWORD PTR ?VMWakeEventHandle@@3PAXA ; VMWakeEventHandle
	push	ecx
	call	DWORD PTR __imp__SetEvent@4

; 1421 : 			PostMessage(FalconDisplay.appWin,FM_GIVE_FOCUS,NULL,NULL);

	push	0
	push	0
	push	1060					; 00000424H
	mov	edx, DWORD PTR ?FalconDisplay@@3VFalconDisplayConfiguration@@A+108
	push	edx
	call	DWORD PTR __imp__PostMessageA@16

; 1422 : 			SetEvent( VMWakeEventHandle );

	mov	eax, DWORD PTR ?VMWakeEventHandle@@3PAXA ; VMWakeEventHandle
	push	eax
	call	DWORD PTR __imp__SetEvent@4

; 1423 : 			return TRUE;

	mov	eax, 1
	jmp	SHORT $LN10@PlayToolMe
$LN9@PlayToolMe:

; 1424 : 		}
; 1425 : 	}
; 1426 : 	return FALSE;

	xor	eax, eax
$LN10@PlayToolMe:

; 1427 : }

	mov	ecx, DWORD PTR __$ArrayPad$[ebp]
	xor	ecx, ebp
	call	@__security_check_cookie@4
	mov	esp, ebp
	pop	ebp
	ret	0
?PlayToolMessage@@YAHPAUHWND__@@@Z ENDP			; PlayToolMessage
_TEXT	ENDS
; Function compile flags: /Odtp
; File c:\users\zhitao li\documents\visual studio 2012\projects\freefalcon\falcsnd\voicefilter.cpp
_TEXT	SEGMENT
_i$1 = -4						; size = 4
_channel$ = 8						; size = 4
?PlayRandomMessage@@YAXH@Z PROC				; PlayRandomMessage

; 1347 : {

	push	ebp
	mov	ebp, esp
	push	ecx
	push	esi

; 1348 : 	
; 1349 : 	VToolMsgData.message = rand() % voiceFilter->commfile.MaxComms();

	call	_rand
	mov	esi, eax
	mov	ecx, DWORD PTR ?voiceFilter@@3PAVVoiceFilter@@A ; voiceFilter
	call	?MaxComms@CommFile@@QAEHXZ		; CommFile::MaxComms
	mov	ecx, eax
	mov	eax, esi
	cdq
	idiv	ecx
	mov	DWORD PTR ?VToolMsgData@@3UVoiceToolData@@A+8, edx

; 1350 : 	
; 1351 : 	SetupNewMsg();

	call	?SetupNewMsg@@YAXXZ			; SetupNewMsg

; 1352 : 	
; 1353 : 	for(int i =0; i < 15;i++)

	mov	DWORD PTR _i$1[ebp], 0
	jmp	SHORT $LN7@PlayRandom
$LN6@PlayRandom:
	mov	edx, DWORD PTR _i$1[ebp]
	add	edx, 1
	mov	DWORD PTR _i$1[ebp], edx
$LN7@PlayRandom:
	cmp	DWORD PTR _i$1[ebp], 15			; 0000000fH
	jge	SHORT $LN5@PlayRandom

; 1354 : 	{
; 1355 : 		if(VToolMsgData.maxs[i])

	mov	eax, DWORD PTR _i$1[ebp]
	movsx	ecx, WORD PTR ?VToolMsgData@@3UVoiceToolData@@A[eax*2+80]
	test	ecx, ecx
	je	SHORT $LN4@PlayRandom

; 1356 : 			VToolMsgData.data[i] = (short)(rand() % VToolMsgData.maxs[i]);

	call	_rand
	mov	edx, DWORD PTR _i$1[ebp]
	movsx	ecx, WORD PTR ?VToolMsgData@@3UVoiceToolData@@A[edx*2+80]
	cdq
	idiv	ecx
	mov	eax, DWORD PTR _i$1[ebp]
	mov	WORD PTR ?VToolMsgData@@3UVoiceToolData@@A[eax*2+50], dx
$LN4@PlayRandom:

; 1357 : 	}

	jmp	SHORT $LN6@PlayRandom
$LN5@PlayRandom:

; 1358 : 	
; 1359 : 	if(VToolMsgData.message <= 286)

	cmp	DWORD PTR ?VToolMsgData@@3UVoiceToolData@@A+8, 286 ; 0000011eH
	jg	SHORT $LN3@PlayRandom

; 1360 : 		VToolMsgData.talker = rand() % 12;

	call	_rand
	cdq
	mov	ecx, 12					; 0000000cH
	idiv	ecx
	mov	DWORD PTR ?VToolMsgData@@3UVoiceToolData@@A+4, edx

; 1361 : 	else

	jmp	SHORT $LN2@PlayRandom
$LN3@PlayRandom:

; 1362 : 		VToolMsgData.talker = rand() % 2 + 12;

	call	_rand
	and	eax, -2147483647			; 80000001H
	jns	SHORT $LN10@PlayRandom
	dec	eax
	or	eax, -2					; fffffffeH
	inc	eax
$LN10@PlayRandom:
	add	eax, 12					; 0000000cH
	mov	DWORD PTR ?VToolMsgData@@3UVoiceToolData@@A+4, eax
$LN2@PlayRandom:

; 1363 : 	
; 1364 : 	if(voiceFilter)

	cmp	DWORD PTR ?voiceFilter@@3PAVVoiceFilter@@A, 0 ; voiceFilter
	je	SHORT $LN1@PlayRandom

; 1365 : 		voiceFilter->PlayRadioMessage((char)VToolMsgData.talker, (short)VToolMsgData.message, VToolMsgData.data, vuxGameTime, -1,(char)channel, vuNullId, EVAL_BY_INDEX );

	mov	edx, DWORD PTR ?FalconNullId@@3VVU_ID@@A+4
	push	edx
	mov	eax, DWORD PTR ?FalconNullId@@3VVU_ID@@A
	push	eax
	push	1
	mov	ecx, DWORD PTR ?vuNullId@@3VVU_ID@@A+4
	push	ecx
	mov	edx, DWORD PTR ?vuNullId@@3VVU_ID@@A
	push	edx
	movzx	eax, BYTE PTR _channel$[ebp]
	push	eax
	push	-1
	mov	ecx, DWORD PTR ?vuxGameTime@@3KA	; vuxGameTime
	push	ecx
	push	OFFSET ?VToolMsgData@@3UVoiceToolData@@A+50
	movzx	edx, WORD PTR ?VToolMsgData@@3UVoiceToolData@@A+8
	push	edx
	movzx	eax, BYTE PTR ?VToolMsgData@@3UVoiceToolData@@A+4
	push	eax
	mov	ecx, DWORD PTR ?voiceFilter@@3PAVVoiceFilter@@A ; voiceFilter
	call	?PlayRadioMessage@VoiceFilter@@QAEXDFPAFKDDVVU_ID@@H1@Z ; VoiceFilter::PlayRadioMessage
$LN1@PlayRandom:

; 1366 : 	
; 1367 : 	SetEvent( VMWakeEventHandle );

	mov	ecx, DWORD PTR ?VMWakeEventHandle@@3PAXA ; VMWakeEventHandle
	push	ecx
	call	DWORD PTR __imp__SetEvent@4

; 1368 : }

	pop	esi
	mov	esp, ebp
	pop	ebp
	ret	0
?PlayRandomMessage@@YAXH@Z ENDP				; PlayRandomMessage
_TEXT	ENDS
; Function compile flags: /Odtp
; File c:\users\zhitao li\documents\visual studio 2012\projects\freefalcon\falcsnd\voicefilter.cpp
_TEXT	SEGMENT
_delta$ = 8						; size = 4
?IncDecFragToPlay@@YAXH@Z PROC				; IncDecFragToPlay

; 1327 : {

	push	ebp
	mov	ebp, esp

; 1328 : 	VToolMsgData.frag += delta;

	mov	eax, DWORD PTR ?VToolMsgData@@3UVoiceToolData@@A+12
	add	eax, DWORD PTR _delta$[ebp]
	mov	DWORD PTR ?VToolMsgData@@3UVoiceToolData@@A+12, eax

; 1329 : 	if(VToolMsgData.frag < 0)

	jns	SHORT $LN3@IncDecFrag

; 1330 : 		VToolMsgData.frag = 0;

	mov	DWORD PTR ?VToolMsgData@@3UVoiceToolData@@A+12, 0
	jmp	SHORT $LN4@IncDecFrag
$LN3@IncDecFrag:

; 1331 : 	else if(VToolMsgData.frag >= voiceFilter->fragfile.MaxFrags())

	mov	ecx, DWORD PTR ?voiceFilter@@3PAVVoiceFilter@@A ; voiceFilter
	add	ecx, 20					; 00000014H
	call	?MaxFrags@FragFile@@QAEHXZ		; FragFile::MaxFrags
	cmp	DWORD PTR ?VToolMsgData@@3UVoiceToolData@@A+12, eax
	jl	SHORT $LN4@IncDecFrag

; 1332 : 		VToolMsgData.frag = voiceFilter->fragfile.MaxFrags()-1;	

	mov	ecx, DWORD PTR ?voiceFilter@@3PAVVoiceFilter@@A ; voiceFilter
	add	ecx, 20					; 00000014H
	call	?MaxFrags@FragFile@@QAEHXZ		; FragFile::MaxFrags
	sub	eax, 1
	mov	DWORD PTR ?VToolMsgData@@3UVoiceToolData@@A+12, eax
$LN4@IncDecFrag:

; 1333 : }

	pop	ebp
	ret	0
?IncDecFragToPlay@@YAXH@Z ENDP				; IncDecFragToPlay
_TEXT	ENDS
; Function compile flags: /Odtp
; File c:\users\zhitao li\documents\visual studio 2012\projects\freefalcon\falcsnd\voicefilter.cpp
_TEXT	SEGMENT
_wasInc$1 = -12						; size = 4
_fragNumber$2 = -8					; size = 4
_i$3 = -4						; size = 4
_delta$ = 8						; size = 4
?IncDecDataToPlay@@YAXH@Z PROC				; IncDecDataToPlay

; 1274 : {

	push	ebp
	mov	ebp, esp
	sub	esp, 12					; 0000000cH
	push	esi
	push	edi

; 1275 : 	if(VToolMsgData.mode == PLAY_MESSAGE)

	cmp	DWORD PTR ?VToolMsgData@@3UVoiceToolData@@A, 1
	jne	$LN20@IncDecData

; 1276 : 	{
; 1277 : 		int wasInc = FALSE;

	mov	DWORD PTR _wasInc$1[ebp], 0

; 1278 : 		for(int i = 0; i< 15;i++)

	mov	DWORD PTR _i$3[ebp], 0
	jmp	SHORT $LN19@IncDecData
$LN18@IncDecData:
	mov	eax, DWORD PTR _i$3[ebp]
	add	eax, 1
	mov	DWORD PTR _i$3[ebp], eax
$LN19@IncDecData:
	cmp	DWORD PTR _i$3[ebp], 15			; 0000000fH
	jge	$LN17@IncDecData

; 1279 : 		{
; 1280 : 			if(delta > 0)

	cmp	DWORD PTR _delta$[ebp], 0
	jle	$LN16@IncDecData

; 1281 : 			{
; 1282 : 				if(VToolMsgData.maxs[i] > evalLastFrag[VToolMsgData.eval[i] * voiceFilter->fragfile.MaxVoices() + VToolMsgData.talker])

	mov	ecx, DWORD PTR _i$3[ebp]
	movsx	esi, WORD PTR ?VToolMsgData@@3UVoiceToolData@@A[ecx*2+80]
	mov	edx, DWORD PTR _i$3[ebp]
	movsx	edi, WORD PTR ?VToolMsgData@@3UVoiceToolData@@A[edx*2+110]
	mov	ecx, DWORD PTR ?voiceFilter@@3PAVVoiceFilter@@A ; voiceFilter
	add	ecx, 20					; 00000014H
	call	?MaxVoices@FragFile@@QAEHXZ		; FragFile::MaxVoices
	imul	edi, eax
	add	edi, DWORD PTR ?VToolMsgData@@3UVoiceToolData@@A+4
	mov	eax, DWORD PTR ?evalLastFrag@@3PAFA	; evalLastFrag
	movsx	ecx, WORD PTR [eax+edi*2]
	cmp	esi, ecx
	jle	$LN15@IncDecData

; 1283 : 				{
; 1284 : 					int fragNumber = 0;

	mov	DWORD PTR _fragNumber$2[ebp], 0

; 1285 : 					VToolMsgData.data[i] += delta;

	mov	edx, DWORD PTR _i$3[ebp]
	movsx	eax, WORD PTR ?VToolMsgData@@3UVoiceToolData@@A[edx*2+50]
	add	eax, DWORD PTR _delta$[ebp]
	mov	ecx, DWORD PTR _i$3[ebp]
	mov	WORD PTR ?VToolMsgData@@3UVoiceToolData@@A[ecx*2+50], ax

; 1286 : 					fragNumber = voiceFilter->IndexElement(VToolMsgData.eval[i],VToolMsgData.data[i]);

	mov	edx, DWORD PTR _i$3[ebp]
	movzx	eax, WORD PTR ?VToolMsgData@@3UVoiceToolData@@A[edx*2+50]
	push	eax
	mov	ecx, DWORD PTR _i$3[ebp]
	movzx	edx, WORD PTR ?VToolMsgData@@3UVoiceToolData@@A[ecx*2+110]
	push	edx
	mov	ecx, DWORD PTR ?voiceFilter@@3PAVVoiceFilter@@A ; voiceFilter
	call	?IndexElement@VoiceFilter@@QAEFFF@Z	; VoiceFilter::IndexElement
	cwde
	mov	DWORD PTR _fragNumber$2[ebp], eax
$LN14@IncDecData:

; 1287 : 					while(fragsPlayed[fragNumber + (VToolMsgData.talker * voiceFilter->fragfile.MaxFrags())] && (VToolMsgData.data[i] < VToolMsgData.maxs[i]) )

	mov	ecx, DWORD PTR ?voiceFilter@@3PAVVoiceFilter@@A ; voiceFilter
	add	ecx, 20					; 00000014H
	call	?MaxFrags@FragFile@@QAEHXZ		; FragFile::MaxFrags
	imul	eax, DWORD PTR ?VToolMsgData@@3UVoiceToolData@@A+4
	add	eax, DWORD PTR _fragNumber$2[ebp]
	mov	ecx, DWORD PTR ?fragsPlayed@@3PADA	; fragsPlayed
	movsx	edx, BYTE PTR [ecx+eax]
	test	edx, edx
	je	$LN13@IncDecData
	mov	eax, DWORD PTR _i$3[ebp]
	movsx	ecx, WORD PTR ?VToolMsgData@@3UVoiceToolData@@A[eax*2+50]
	mov	edx, DWORD PTR _i$3[ebp]
	movsx	eax, WORD PTR ?VToolMsgData@@3UVoiceToolData@@A[edx*2+80]
	cmp	ecx, eax
	jge	SHORT $LN13@IncDecData

; 1288 : 					{
; 1289 : 						evalLastFrag[VToolMsgData.eval[i] * voiceFilter->fragfile.MaxVoices() +VToolMsgData.talker] = VToolMsgData.data[i];

	mov	ecx, DWORD PTR _i$3[ebp]
	movsx	esi, WORD PTR ?VToolMsgData@@3UVoiceToolData@@A[ecx*2+110]
	mov	ecx, DWORD PTR ?voiceFilter@@3PAVVoiceFilter@@A ; voiceFilter
	add	ecx, 20					; 00000014H
	call	?MaxVoices@FragFile@@QAEHXZ		; FragFile::MaxVoices
	imul	esi, eax
	add	esi, DWORD PTR ?VToolMsgData@@3UVoiceToolData@@A+4
	mov	edx, DWORD PTR ?evalLastFrag@@3PAFA	; evalLastFrag
	mov	eax, DWORD PTR _i$3[ebp]
	mov	cx, WORD PTR ?VToolMsgData@@3UVoiceToolData@@A[eax*2+50]
	mov	WORD PTR [edx+esi*2], cx

; 1290 : 						VToolMsgData.data[i] += delta;

	mov	edx, DWORD PTR _i$3[ebp]
	movsx	eax, WORD PTR ?VToolMsgData@@3UVoiceToolData@@A[edx*2+50]
	add	eax, DWORD PTR _delta$[ebp]
	mov	ecx, DWORD PTR _i$3[ebp]
	mov	WORD PTR ?VToolMsgData@@3UVoiceToolData@@A[ecx*2+50], ax

; 1291 : 						fragNumber = voiceFilter->IndexElement(VToolMsgData.eval[i],VToolMsgData.data[i]);

	mov	edx, DWORD PTR _i$3[ebp]
	movzx	eax, WORD PTR ?VToolMsgData@@3UVoiceToolData@@A[edx*2+50]
	push	eax
	mov	ecx, DWORD PTR _i$3[ebp]
	movzx	edx, WORD PTR ?VToolMsgData@@3UVoiceToolData@@A[ecx*2+110]
	push	edx
	mov	ecx, DWORD PTR ?voiceFilter@@3PAVVoiceFilter@@A ; voiceFilter
	call	?IndexElement@VoiceFilter@@QAEFFF@Z	; VoiceFilter::IndexElement
	cwde
	mov	DWORD PTR _fragNumber$2[ebp], eax

; 1292 : 					}

	jmp	$LN14@IncDecData
$LN13@IncDecData:

; 1293 : 					
; 1294 : 					if(VToolMsgData.data[i] == evalLastFrag[VToolMsgData.eval[i] * voiceFilter->fragfile.MaxVoices() +VToolMsgData.talker] + 1)

	mov	ecx, DWORD PTR _i$3[ebp]
	movsx	esi, WORD PTR ?VToolMsgData@@3UVoiceToolData@@A[ecx*2+50]
	mov	edx, DWORD PTR _i$3[ebp]
	movsx	edi, WORD PTR ?VToolMsgData@@3UVoiceToolData@@A[edx*2+110]
	mov	ecx, DWORD PTR ?voiceFilter@@3PAVVoiceFilter@@A ; voiceFilter
	add	ecx, 20					; 00000014H
	call	?MaxVoices@FragFile@@QAEHXZ		; FragFile::MaxVoices
	imul	edi, eax
	add	edi, DWORD PTR ?VToolMsgData@@3UVoiceToolData@@A+4
	mov	eax, DWORD PTR ?evalLastFrag@@3PAFA	; evalLastFrag
	movsx	ecx, WORD PTR [eax+edi*2]
	add	ecx, 1
	cmp	esi, ecx
	jne	SHORT $LN12@IncDecData

; 1295 : 						evalLastFrag[VToolMsgData.eval[i] * voiceFilter->fragfile.MaxVoices() +VToolMsgData.talker] = VToolMsgData.data[i];

	mov	edx, DWORD PTR _i$3[ebp]
	movsx	esi, WORD PTR ?VToolMsgData@@3UVoiceToolData@@A[edx*2+110]
	mov	ecx, DWORD PTR ?voiceFilter@@3PAVVoiceFilter@@A ; voiceFilter
	add	ecx, 20					; 00000014H
	call	?MaxVoices@FragFile@@QAEHXZ		; FragFile::MaxVoices
	imul	esi, eax
	add	esi, DWORD PTR ?VToolMsgData@@3UVoiceToolData@@A+4
	mov	eax, DWORD PTR ?evalLastFrag@@3PAFA	; evalLastFrag
	mov	ecx, DWORD PTR _i$3[ebp]
	mov	dx, WORD PTR ?VToolMsgData@@3UVoiceToolData@@A[ecx*2+50]
	mov	WORD PTR [eax+esi*2], dx
$LN12@IncDecData:

; 1296 : 					wasInc = TRUE;

	mov	DWORD PTR _wasInc$1[ebp], 1

; 1297 : 					if(VToolMsgData.data[i] > VToolMsgData.maxs[i])

	mov	eax, DWORD PTR _i$3[ebp]
	movsx	ecx, WORD PTR ?VToolMsgData@@3UVoiceToolData@@A[eax*2+50]
	mov	edx, DWORD PTR _i$3[ebp]
	movsx	eax, WORD PTR ?VToolMsgData@@3UVoiceToolData@@A[edx*2+80]
	cmp	ecx, eax
	jle	SHORT $LN11@IncDecData

; 1298 : 						VToolMsgData.data[i] = VToolMsgData.maxs[i];

	mov	ecx, DWORD PTR _i$3[ebp]
	mov	edx, DWORD PTR _i$3[ebp]
	mov	ax, WORD PTR ?VToolMsgData@@3UVoiceToolData@@A[edx*2+80]
	mov	WORD PTR ?VToolMsgData@@3UVoiceToolData@@A[ecx*2+50], ax
$LN11@IncDecData:

; 1299 : 				}
; 1300 : 				else

	jmp	SHORT $LN10@IncDecData
$LN15@IncDecData:

; 1301 : 				{
; 1302 : 					srand((unsigned)time( NULL ));

	push	0
	call	_time
	add	esp, 4
	push	eax
	call	_srand
	add	esp, 4

; 1303 : 					if(VToolMsgData.maxs[i])

	mov	ecx, DWORD PTR _i$3[ebp]
	movsx	edx, WORD PTR ?VToolMsgData@@3UVoiceToolData@@A[ecx*2+80]
	test	edx, edx
	je	SHORT $LN10@IncDecData

; 1304 : 						VToolMsgData.data[i] = (short)(rand() % VToolMsgData.maxs[i]);

	call	_rand
	mov	ecx, DWORD PTR _i$3[ebp]
	movsx	ecx, WORD PTR ?VToolMsgData@@3UVoiceToolData@@A[ecx*2+80]
	cdq
	idiv	ecx
	mov	eax, DWORD PTR _i$3[ebp]
	mov	WORD PTR ?VToolMsgData@@3UVoiceToolData@@A[eax*2+50], dx
$LN10@IncDecData:

; 1305 : 				}

	jmp	SHORT $LN8@IncDecData
$LN16@IncDecData:

; 1306 : 			}
; 1307 : 			else if(VToolMsgData.data[i] > 0)

	mov	ecx, DWORD PTR _i$3[ebp]
	movsx	edx, WORD PTR ?VToolMsgData@@3UVoiceToolData@@A[ecx*2+50]
	test	edx, edx
	jle	SHORT $LN8@IncDecData

; 1308 : 			{
; 1309 : 				VToolMsgData.data[i] += delta;

	mov	eax, DWORD PTR _i$3[ebp]
	movsx	ecx, WORD PTR ?VToolMsgData@@3UVoiceToolData@@A[eax*2+50]
	add	ecx, DWORD PTR _delta$[ebp]
	mov	edx, DWORD PTR _i$3[ebp]
	mov	WORD PTR ?VToolMsgData@@3UVoiceToolData@@A[edx*2+50], cx

; 1310 : 				wasInc = TRUE;

	mov	DWORD PTR _wasInc$1[ebp], 1
$LN8@IncDecData:

; 1311 : 			}
; 1312 : 		}

	jmp	$LN18@IncDecData
$LN17@IncDecData:

; 1313 : 		if(!wasInc)

	cmp	DWORD PTR _wasInc$1[ebp], 0
	jne	SHORT $LN6@IncDecData

; 1314 : 			IncDecMsgToPlay(delta);

	mov	eax, DWORD PTR _delta$[ebp]
	push	eax
	call	?IncDecMsgToPlay@@YAXH@Z		; IncDecMsgToPlay
	add	esp, 4
$LN6@IncDecData:

; 1315 : 	}

	jmp	SHORT $LN21@IncDecData
$LN20@IncDecData:

; 1316 : 	else if(VToolMsgData.mode == PLAY_FRAG)

	cmp	DWORD PTR ?VToolMsgData@@3UVoiceToolData@@A, 2
	jne	SHORT $LN21@IncDecData

; 1317 : 	{
; 1318 : 		VToolMsgData.frag += delta;

	mov	ecx, DWORD PTR ?VToolMsgData@@3UVoiceToolData@@A+12
	add	ecx, DWORD PTR _delta$[ebp]
	mov	DWORD PTR ?VToolMsgData@@3UVoiceToolData@@A+12, ecx

; 1319 : 		if(VToolMsgData.frag < 0)

	jns	SHORT $LN3@IncDecData

; 1320 : 			VToolMsgData.frag = 0;

	mov	DWORD PTR ?VToolMsgData@@3UVoiceToolData@@A+12, 0
	jmp	SHORT $LN21@IncDecData
$LN3@IncDecData:

; 1321 : 		else if(VToolMsgData.frag >= voiceFilter->fragfile.MaxFrags())

	mov	ecx, DWORD PTR ?voiceFilter@@3PAVVoiceFilter@@A ; voiceFilter
	add	ecx, 20					; 00000014H
	call	?MaxFrags@FragFile@@QAEHXZ		; FragFile::MaxFrags
	cmp	DWORD PTR ?VToolMsgData@@3UVoiceToolData@@A+12, eax
	jl	SHORT $LN21@IncDecData

; 1322 : 			VToolMsgData.frag = voiceFilter->fragfile.MaxFrags();

	mov	ecx, DWORD PTR ?voiceFilter@@3PAVVoiceFilter@@A ; voiceFilter
	add	ecx, 20					; 00000014H
	call	?MaxFrags@FragFile@@QAEHXZ		; FragFile::MaxFrags
	mov	DWORD PTR ?VToolMsgData@@3UVoiceToolData@@A+12, eax
$LN21@IncDecData:

; 1323 : 	}
; 1324 : }

	pop	edi
	pop	esi
	mov	esp, ebp
	pop	ebp
	ret	0
?IncDecDataToPlay@@YAXH@Z ENDP				; IncDecDataToPlay
_TEXT	ENDS
; Function compile flags: /Odtp
; File c:\users\zhitao li\documents\visual studio 2012\projects\freefalcon\falcsnd\voicefilter.cpp
_TEXT	SEGMENT
_i$ = -4						; size = 4
_index$ = 8						; size = 4
_delta$ = 12						; size = 4
?IncDecIndex@@YAXHH@Z PROC				; IncDecIndex

; 1250 : {

	push	ebp
	mov	ebp, esp
	push	ecx
	push	esi
	push	edi

; 1251 :     int i = 0;

	mov	DWORD PTR _i$[ebp], 0

; 1252 : 	for(i = 0;i<15;i++)

	mov	DWORD PTR _i$[ebp], 0
	jmp	SHORT $LN9@IncDecInde
$LN8@IncDecInde:
	mov	eax, DWORD PTR _i$[ebp]
	add	eax, 1
	mov	DWORD PTR _i$[ebp], eax
$LN9@IncDecInde:
	cmp	DWORD PTR _i$[ebp], 15			; 0000000fH
	jge	SHORT $LN7@IncDecInde

; 1253 : 	{
; 1254 : 		if(VToolMsgData.element[i] == index)

	mov	ecx, DWORD PTR _i$[ebp]
	movsx	edx, WORD PTR ?VToolMsgData@@3UVoiceToolData@@A[ecx*2+20]
	cmp	edx, DWORD PTR _index$[ebp]
	jne	SHORT $LN6@IncDecInde

; 1255 : 			break;

	jmp	SHORT $LN7@IncDecInde
$LN6@IncDecInde:

; 1256 : 	}

	jmp	SHORT $LN8@IncDecInde
$LN7@IncDecInde:

; 1257 : 	
; 1258 : 	if(delta > 0)

	cmp	DWORD PTR _delta$[ebp], 0
	jle	$LN5@IncDecInde

; 1259 : 	{
; 1260 : 		if(VToolMsgData.data[i] < VToolMsgData.maxs[i])

	mov	eax, DWORD PTR _i$[ebp]
	movsx	ecx, WORD PTR ?VToolMsgData@@3UVoiceToolData@@A[eax*2+50]
	mov	edx, DWORD PTR _i$[ebp]
	movsx	eax, WORD PTR ?VToolMsgData@@3UVoiceToolData@@A[edx*2+80]
	cmp	ecx, eax
	jge	$LN4@IncDecInde

; 1261 : 		{
; 1262 : 			VToolMsgData.data[i] += delta;

	mov	ecx, DWORD PTR _i$[ebp]
	movsx	edx, WORD PTR ?VToolMsgData@@3UVoiceToolData@@A[ecx*2+50]
	add	edx, DWORD PTR _delta$[ebp]
	mov	eax, DWORD PTR _i$[ebp]
	mov	WORD PTR ?VToolMsgData@@3UVoiceToolData@@A[eax*2+50], dx

; 1263 : 			if(VToolMsgData.data[i] >= evalLastFrag[VToolMsgData.eval[i] * voiceFilter->fragfile.MaxVoices() + VToolMsgData.talker])

	mov	ecx, DWORD PTR _i$[ebp]
	movsx	esi, WORD PTR ?VToolMsgData@@3UVoiceToolData@@A[ecx*2+50]
	mov	edx, DWORD PTR _i$[ebp]
	movsx	edi, WORD PTR ?VToolMsgData@@3UVoiceToolData@@A[edx*2+110]
	mov	ecx, DWORD PTR ?voiceFilter@@3PAVVoiceFilter@@A ; voiceFilter
	add	ecx, 20					; 00000014H
	call	?MaxVoices@FragFile@@QAEHXZ		; FragFile::MaxVoices
	imul	edi, eax
	add	edi, DWORD PTR ?VToolMsgData@@3UVoiceToolData@@A+4
	mov	eax, DWORD PTR ?evalLastFrag@@3PAFA	; evalLastFrag
	movsx	ecx, WORD PTR [eax+edi*2]
	cmp	esi, ecx
	jl	SHORT $LN4@IncDecInde

; 1264 : 				evalLastFrag[VToolMsgData.eval[i] * voiceFilter->fragfile.MaxVoices() + VToolMsgData.talker] = VToolMsgData.data[i];

	mov	edx, DWORD PTR _i$[ebp]
	movsx	esi, WORD PTR ?VToolMsgData@@3UVoiceToolData@@A[edx*2+110]
	mov	ecx, DWORD PTR ?voiceFilter@@3PAVVoiceFilter@@A ; voiceFilter
	add	ecx, 20					; 00000014H
	call	?MaxVoices@FragFile@@QAEHXZ		; FragFile::MaxVoices
	imul	esi, eax
	add	esi, DWORD PTR ?VToolMsgData@@3UVoiceToolData@@A+4
	mov	eax, DWORD PTR ?evalLastFrag@@3PAFA	; evalLastFrag
	mov	ecx, DWORD PTR _i$[ebp]
	mov	dx, WORD PTR ?VToolMsgData@@3UVoiceToolData@@A[ecx*2+50]
	mov	WORD PTR [eax+esi*2], dx
$LN4@IncDecInde:

; 1265 : 		}
; 1266 : 	}

	jmp	SHORT $LN10@IncDecInde
$LN5@IncDecInde:

; 1267 : 	else if(VToolMsgData.data[i] > -1)

	mov	eax, DWORD PTR _i$[ebp]
	movsx	ecx, WORD PTR ?VToolMsgData@@3UVoiceToolData@@A[eax*2+50]
	cmp	ecx, -1
	jle	SHORT $LN10@IncDecInde

; 1268 : 	{
; 1269 : 		VToolMsgData.data[i] += delta;

	mov	edx, DWORD PTR _i$[ebp]
	movsx	eax, WORD PTR ?VToolMsgData@@3UVoiceToolData@@A[edx*2+50]
	add	eax, DWORD PTR _delta$[ebp]
	mov	ecx, DWORD PTR _i$[ebp]
	mov	WORD PTR ?VToolMsgData@@3UVoiceToolData@@A[ecx*2+50], ax
$LN10@IncDecInde:

; 1270 : 	}
; 1271 : }

	pop	edi
	pop	esi
	mov	esp, ebp
	pop	ebp
	ret	0
?IncDecIndex@@YAXHH@Z ENDP				; IncDecIndex
_TEXT	ENDS
; Function compile flags: /Odtp
; File c:\users\zhitao li\documents\visual studio 2012\projects\freefalcon\falcsnd\voicefilter.cpp
_TEXT	SEGMENT
_i$1 = -4						; size = 4
_delta$ = 8						; size = 4
?IncDecMsgToPlay@@YAXH@Z PROC				; IncDecMsgToPlay

; 1231 : {

	push	ebp
	mov	ebp, esp
	push	ecx

; 1232 : 	
; 1233 : 	VToolMsgData.message += delta;

	mov	eax, DWORD PTR ?VToolMsgData@@3UVoiceToolData@@A+8
	add	eax, DWORD PTR _delta$[ebp]
	mov	DWORD PTR ?VToolMsgData@@3UVoiceToolData@@A+8, eax

; 1234 : 	if(VToolMsgData.message < 0)

	jns	SHORT $LN6@IncDecMsgT

; 1235 : 		VToolMsgData.message = 0;

	mov	DWORD PTR ?VToolMsgData@@3UVoiceToolData@@A+8, 0
	jmp	SHORT $LN5@IncDecMsgT
$LN6@IncDecMsgT:

; 1236 : 	else if(VToolMsgData.message >= voiceFilter->commfile.MaxComms())

	mov	ecx, DWORD PTR ?voiceFilter@@3PAVVoiceFilter@@A ; voiceFilter
	call	?MaxComms@CommFile@@QAEHXZ		; CommFile::MaxComms
	cmp	DWORD PTR ?VToolMsgData@@3UVoiceToolData@@A+8, eax
	jl	SHORT $LN5@IncDecMsgT

; 1237 : 		VToolMsgData.message = voiceFilter->commfile.MaxComms() - 1;

	mov	ecx, DWORD PTR ?voiceFilter@@3PAVVoiceFilter@@A ; voiceFilter
	call	?MaxComms@CommFile@@QAEHXZ		; CommFile::MaxComms
	sub	eax, 1
	mov	DWORD PTR ?VToolMsgData@@3UVoiceToolData@@A+8, eax
$LN5@IncDecMsgT:

; 1238 : 	
; 1239 : 	for(int i = 0; i< 15;i++)

	mov	DWORD PTR _i$1[ebp], 0
	jmp	SHORT $LN3@IncDecMsgT
$LN2@IncDecMsgT:
	mov	ecx, DWORD PTR _i$1[ebp]
	add	ecx, 1
	mov	DWORD PTR _i$1[ebp], ecx
$LN3@IncDecMsgT:
	cmp	DWORD PTR _i$1[ebp], 15			; 0000000fH
	jge	SHORT $LN1@IncDecMsgT

; 1240 : 	{
; 1241 : 		VToolMsgData.data[i] = 0;

	xor	edx, edx
	mov	eax, DWORD PTR _i$1[ebp]
	mov	WORD PTR ?VToolMsgData@@3UVoiceToolData@@A[eax*2+50], dx

; 1242 : 	}

	jmp	SHORT $LN2@IncDecMsgT
$LN1@IncDecMsgT:

; 1243 : 	
; 1244 : 	SetupNewMsg();

	call	?SetupNewMsg@@YAXXZ			; SetupNewMsg

; 1245 : 	
; 1246 : }

	mov	esp, ebp
	pop	ebp
	ret	0
?IncDecMsgToPlay@@YAXH@Z ENDP				; IncDecMsgToPlay
_TEXT	ENDS
; Function compile flags: /Odtp
; File c:\users\zhitao li\documents\visual studio 2012\projects\freefalcon\falcsnd\voicefilter.cpp
_TEXT	SEGMENT
_sum$ = -24						; size = 8
_comm$ = -16						; size = 8
_j$1 = -8						; size = 4
_i$2 = -4						; size = 4
?CalcCombinations@@YANXZ PROC				; CalcCombinations

; 1211 : {

	push	ebp
	mov	ebp, esp
	sub	esp, 24					; 00000018H

; 1212 : 	double sum = 0;

	movsd	xmm0, QWORD PTR __real@0000000000000000
	movsd	QWORD PTR _sum$[ebp], xmm0

; 1213 : 	double comm = 1;

	movsd	xmm0, QWORD PTR __real@3ff0000000000000
	movsd	QWORD PTR _comm$[ebp], xmm0

; 1214 : 	for(int i = 0; i < voiceFilter->commfile.MaxComms();i++)

	mov	DWORD PTR _i$2[ebp], 0
	jmp	SHORT $LN5@CalcCombin
$LN4@CalcCombin:
	mov	eax, DWORD PTR _i$2[ebp]
	add	eax, 1
	mov	DWORD PTR _i$2[ebp], eax
$LN5@CalcCombin:
	mov	ecx, DWORD PTR ?voiceFilter@@3PAVVoiceFilter@@A ; voiceFilter
	call	?MaxComms@CommFile@@QAEHXZ		; CommFile::MaxComms
	cmp	DWORD PTR _i$2[ebp], eax
	jge	SHORT $LN3@CalcCombin

; 1215 : 	{
; 1216 : 		comm = 1;

	movsd	xmm0, QWORD PTR __real@3ff0000000000000
	movsd	QWORD PTR _comm$[ebp], xmm0

; 1217 : 		VToolMsgData.message = i;

	mov	ecx, DWORD PTR _i$2[ebp]
	mov	DWORD PTR ?VToolMsgData@@3UVoiceToolData@@A+8, ecx

; 1218 : 		SetupNewMsg();

	call	?SetupNewMsg@@YAXXZ			; SetupNewMsg

; 1219 : 		int j = 0;

	mov	DWORD PTR _j$1[ebp], 0
$LN2@CalcCombin:

; 1220 : 		while(VToolMsgData.maxs[j])

	mov	edx, DWORD PTR _j$1[ebp]
	movsx	eax, WORD PTR ?VToolMsgData@@3UVoiceToolData@@A[edx*2+80]
	test	eax, eax
	je	SHORT $LN1@CalcCombin

; 1221 : 		{
; 1222 : 			comm *= VToolMsgData.maxs[j] + 1;

	mov	ecx, DWORD PTR _j$1[ebp]
	movsx	edx, WORD PTR ?VToolMsgData@@3UVoiceToolData@@A[ecx*2+80]
	add	edx, 1
	cvtsi2sd xmm0, edx
	mulsd	xmm0, QWORD PTR _comm$[ebp]
	movsd	QWORD PTR _comm$[ebp], xmm0

; 1223 : 			j++;

	mov	eax, DWORD PTR _j$1[ebp]
	add	eax, 1
	mov	DWORD PTR _j$1[ebp], eax

; 1224 : 		}

	jmp	SHORT $LN2@CalcCombin
$LN1@CalcCombin:

; 1225 : 		sum += comm;

	movsd	xmm0, QWORD PTR _sum$[ebp]
	addsd	xmm0, QWORD PTR _comm$[ebp]
	movsd	QWORD PTR _sum$[ebp], xmm0

; 1226 : 	}

	jmp	$LN4@CalcCombin
$LN3@CalcCombin:

; 1227 : 	return sum;

	fld	QWORD PTR _sum$[ebp]

; 1228 : }

	mov	esp, ebp
	pop	ebp
	ret	0
?CalcCombinations@@YANXZ ENDP				; CalcCombinations
_TEXT	ENDS
; Function compile flags: /Odtp
; File c:\users\zhitao li\documents\visual studio 2012\projects\freefalcon\falcsnd\voicefilter.cpp
_TEXT	SEGMENT
$T1 = -12						; size = 4
$T2 = -8						; size = 4
_n$ = -4						; size = 4
?InitDialogData@@YAXXZ PROC				; InitDialogData

; 1156 : {

	push	ebp
	mov	ebp, esp
	sub	esp, 12					; 0000000cH
	push	esi

; 1157 :     int n = voiceFilter->evalfile.MaxEvals() * voiceFilter->fragfile.MaxVoices();

	mov	ecx, DWORD PTR ?voiceFilter@@3PAVVoiceFilter@@A ; voiceFilter
	add	ecx, 44					; 0000002cH
	call	?MaxEvals@EvalFile@@QAEHXZ		; EvalFile::MaxEvals
	mov	esi, eax
	mov	ecx, DWORD PTR ?voiceFilter@@3PAVVoiceFilter@@A ; voiceFilter
	add	ecx, 20					; 00000014H
	call	?MaxVoices@FragFile@@QAEHXZ		; FragFile::MaxVoices
	imul	esi, eax
	mov	DWORD PTR _n$[ebp], esi

; 1158 :     evalLastFrag = new short[n];

	xor	ecx, ecx
	mov	eax, DWORD PTR _n$[ebp]
	mov	edx, 2
	mul	edx
	seto	cl
	neg	ecx
	or	ecx, eax
	push	ecx
	call	??_U@YAPAXI@Z				; operator new[]
	add	esp, 4
	mov	DWORD PTR $T2[ebp], eax
	mov	eax, DWORD PTR $T2[ebp]
	mov	DWORD PTR ?evalLastFrag@@3PAFA, eax	; evalLastFrag

; 1159 :     memset(evalLastFrag, FALSE, n * sizeof(short));

	mov	ecx, DWORD PTR _n$[ebp]
	shl	ecx, 1
	push	ecx
	push	0
	mov	edx, DWORD PTR ?evalLastFrag@@3PAFA	; evalLastFrag
	push	edx
	call	_memset
	add	esp, 12					; 0000000cH

; 1160 :     n = voiceFilter->fragfile.MaxVoices() * voiceFilter->fragfile.MaxFrags();

	mov	ecx, DWORD PTR ?voiceFilter@@3PAVVoiceFilter@@A ; voiceFilter
	add	ecx, 20					; 00000014H
	call	?MaxVoices@FragFile@@QAEHXZ		; FragFile::MaxVoices
	mov	esi, eax
	mov	ecx, DWORD PTR ?voiceFilter@@3PAVVoiceFilter@@A ; voiceFilter
	add	ecx, 20					; 00000014H
	call	?MaxFrags@FragFile@@QAEHXZ		; FragFile::MaxFrags
	imul	esi, eax
	mov	DWORD PTR _n$[ebp], esi

; 1161 :     fragsPlayed = new char[n];

	mov	eax, DWORD PTR _n$[ebp]
	push	eax
	call	??_U@YAPAXI@Z				; operator new[]
	add	esp, 4
	mov	DWORD PTR $T1[ebp], eax
	mov	ecx, DWORD PTR $T1[ebp]
	mov	DWORD PTR ?fragsPlayed@@3PADA, ecx	; fragsPlayed

; 1162 :     memset(fragsPlayed, FALSE, n * sizeof(char));

	mov	edx, DWORD PTR _n$[ebp]
	push	edx
	push	0
	mov	eax, DWORD PTR ?fragsPlayed@@3PADA	; fragsPlayed
	push	eax
	call	_memset
	add	esp, 12					; 0000000cH

; 1163 : }

	pop	esi
	mov	esp, ebp
	pop	ebp
	ret	0
?InitDialogData@@YAXXZ ENDP				; InitDialogData
_TEXT	ENDS
; Function compile flags: /Odtp
; File c:\users\zhitao li\documents\visual studio 2012\projects\freefalcon\falcsnd\voicefilter.cpp
_TEXT	SEGMENT
_this$ = -28						; size = 4
_lower$ = -24						; size = 4
_eEvalData$ = -20					; size = 4
_upper$ = -16						; size = 4
_eEvalElem$ = -12					; size = 4
_center$ = -8						; size = 4
_fragHdrNbr$ = -4					; size = 2
_evalHdrNumber$ = 8					; size = 2
_evalElement$ = 12					; size = 2
?EvaluateElement@VoiceFilter@@AAEFFF@Z PROC		; VoiceFilter::EvaluateElement
; _this$ = ecx

; 860  : {	

	push	ebp
	mov	ebp, esp
	sub	esp, 28					; 0000001cH
	mov	DWORD PTR _this$[ebp], ecx

; 861  : //  char	*dEvalData;
; 862  :   EVAL_FILE_INFO *eEvalData;
; 863  :   EVAL_ELEM *eEvalElem;
; 864  :   
; 865  :   //	EVAL_FILE_INFO	evalHdrInfo;
; 866  :   short	fragHdrNbr = 0;

	xor	eax, eax
	mov	WORD PTR _fragHdrNbr$[ebp], ax

; 867  :   
; 868  :   //index into evaldata to get appropriate offset
; 869  : //  dEvalData = evalData + (evalHdrNumber * sizeof( EVAL_FILE_INFO ));
; 870  :   ShiAssert(evalHdrNumber >= 0 && evalHdrNumber < evalfile.MaxEvals());
; 871  :   eEvalData = evalfile.GetEval(evalHdrNumber);

	movsx	ecx, WORD PTR _evalHdrNumber$[ebp]
	push	ecx
	mov	ecx, DWORD PTR _this$[ebp]
	add	ecx, 44					; 0000002cH
	call	?GetEval@EvalFile@@QAEPAUEVAL_FILE_INFO@@H@Z ; EvalFile::GetEval
	mov	DWORD PTR _eEvalData$[ebp], eax

; 872  :   ShiAssert(FALSE == F4IsBadReadPtr(eEvalData, sizeof *eEvalData));
; 873  :   if (eEvalData == NULL) return 0;

	cmp	DWORD PTR _eEvalData$[ebp], 0
	jne	SHORT $LN8@EvaluateEl
	xor	eax, eax
	jmp	$LN9@EvaluateEl
$LN8@EvaluateEl:

; 874  :   //use binary search to find appropriate frag, the values
; 875  :   //are in order but they are not necessarily consecutive
; 876  : //  int upper = ((EVAL_FILE_INFO *)dEvalData)->numEvals -1;
; 877  :   int upper = eEvalData->numEvals-1;

	mov	edx, DWORD PTR _eEvalData$[ebp]
	movsx	eax, WORD PTR [edx+2]
	sub	eax, 1
	mov	DWORD PTR _upper$[ebp], eax

; 878  :   int lower = 0;

	mov	DWORD PTR _lower$[ebp], 0

; 879  :   int center;
; 880  :   
; 881  : // 2001-09-22 M.N. random evalIndex (only for consecutive indexes) if evalElement == 32767 (max short+)
; 882  : 
; 883  :   if (evalElement == 32767)				// allows later addition of random fragments, if wanted

	movsx	ecx, WORD PTR _evalElement$[ebp]
	cmp	ecx, 32767				; 00007fffH
	jne	SHORT $LN7@EvaluateEl

; 884  : 	evalElement = rand()% (upper+1);	// => no hardcoded limits anymore

	call	_rand
	mov	ecx, DWORD PTR _upper$[ebp]
	add	ecx, 1
	cdq
	idiv	ecx
	mov	WORD PTR _evalElement$[ebp], dx
$LN7@EvaluateEl:

; 885  : 
; 886  : // END of added section
; 887  : 
; 888  :   //use offset to index into start of frags for this eval
; 889  : //  dEvalData = evalData + ((EVAL_FILE_INFO *)dEvalData)->evalOffset;
; 890  :   eEvalElem = evalfile.GetEvalElem(eEvalData);

	mov	edx, DWORD PTR _eEvalData$[ebp]
	push	edx
	mov	ecx, DWORD PTR _this$[ebp]
	add	ecx, 44					; 0000002cH
	call	?GetEvalElem@EvalFile@@QAEPAUEVAL_ELEM@@PAUEVAL_FILE_INFO@@@Z ; EvalFile::GetEvalElem
	mov	DWORD PTR _eEvalElem$[ebp], eax

; 891  :   ShiAssert(FALSE == F4IsBadReadPtr(eEvalElem, sizeof *eEvalElem));
; 892  : 
; 893  :   if (eEvalElem == NULL) return 0;

	cmp	DWORD PTR _eEvalElem$[ebp], 0
	jne	SHORT $LN5@EvaluateEl
	xor	eax, eax
	jmp	SHORT $LN9@EvaluateEl
$LN5@EvaluateEl:

; 894  : 
; 895  :   while(upper >= lower)

	mov	eax, DWORD PTR _upper$[ebp]
	cmp	eax, DWORD PTR _lower$[ebp]
	jl	SHORT $LN4@EvaluateEl

; 896  :   {
; 897  : 	  center = (lower + upper)/2;

	mov	eax, DWORD PTR _lower$[ebp]
	add	eax, DWORD PTR _upper$[ebp]
	cdq
	sub	eax, edx
	sar	eax, 1
	mov	DWORD PTR _center$[ebp], eax

; 898  : //	  if(evalElement == (( short *)dEvalData)[center * 2])
; 899  : 	  if(evalElement == eEvalElem[center].evalElem)

	movsx	ecx, WORD PTR _evalElement$[ebp]
	mov	edx, DWORD PTR _center$[ebp]
	mov	eax, DWORD PTR _eEvalElem$[ebp]
	movsx	edx, WORD PTR [eax+edx*4]
	cmp	ecx, edx
	jne	SHORT $LN3@EvaluateEl

; 900  : 	  {
; 901  : //		  dEvalData += sizeof( short );
; 902  : //		  fragHdrNbr = ((short *)dEvalData)[center * 2];
; 903  : 	      fragHdrNbr = eEvalElem[center].evalFrag;

	mov	eax, DWORD PTR _center$[ebp]
	mov	ecx, DWORD PTR _eEvalElem$[ebp]
	mov	dx, WORD PTR [ecx+eax*4+2]
	mov	WORD PTR _fragHdrNbr$[ebp], dx

; 904  : 		  break;

	jmp	SHORT $LN4@EvaluateEl
$LN3@EvaluateEl:

; 905  : 	  }
; 906  : //	  if(evalElement < (( short *)dEvalData)[center * 2])
; 907  : 	  if(evalElement < eEvalElem[center].evalElem)

	movsx	eax, WORD PTR _evalElement$[ebp]
	mov	ecx, DWORD PTR _center$[ebp]
	mov	edx, DWORD PTR _eEvalElem$[ebp]
	movsx	ecx, WORD PTR [edx+ecx*4]
	cmp	eax, ecx
	jge	SHORT $LN2@EvaluateEl

; 908  : 		  upper = center - 1;

	mov	edx, DWORD PTR _center$[ebp]
	sub	edx, 1
	mov	DWORD PTR _upper$[ebp], edx

; 909  : 	  else

	jmp	SHORT $LN1@EvaluateEl
$LN2@EvaluateEl:

; 910  : 		  lower = center + 1;

	mov	eax, DWORD PTR _center$[ebp]
	add	eax, 1
	mov	DWORD PTR _lower$[ebp], eax
$LN1@EvaluateEl:

; 911  :   }

	jmp	SHORT $LN5@EvaluateEl
$LN4@EvaluateEl:

; 912  :   
; 913  :   //return the appropriate frag
; 914  :   return( fragHdrNbr );

	mov	ax, WORD PTR _fragHdrNbr$[ebp]
$LN9@EvaluateEl:

; 915  : }

	mov	esp, ebp
	pop	ebp
	ret	8
?EvaluateElement@VoiceFilter@@AAEFFF@Z ENDP		; VoiceFilter::EvaluateElement
_TEXT	ENDS
; Function compile flags: /Odtp
; File c:\users\zhitao li\documents\visual studio 2012\projects\freefalcon\falcsnd\voicefilter.cpp
_TEXT	SEGMENT
_this$ = -8						; size = 4
_index$ = -4						; size = 4
_knots$ = 8						; size = 4
?KnotsToReduceIncreaseToElement@VoiceFilter@@AAEFH@Z PROC ; VoiceFilter::KnotsToReduceIncreaseToElement
; _this$ = ecx

; 831  : {

	push	ebp
	mov	ebp, esp
	sub	esp, 8
	mov	DWORD PTR _this$[ebp], ecx

; 832  : 	if(knots == -1)

	cmp	DWORD PTR _knots$[ebp], -1
	jne	SHORT $LN3@KnotsToRed

; 833  : 		return -1;

	or	eax, -1
	jmp	SHORT $LN4@KnotsToRed
$LN3@KnotsToRed:

; 834  : 
; 835  : 	int	index;
; 836  : 	
; 837  : 	index = (knots - 110) / 10;

	mov	eax, DWORD PTR _knots$[ebp]
	sub	eax, 110				; 0000006eH
	cdq
	mov	ecx, 10					; 0000000aH
	idiv	ecx
	mov	DWORD PTR _index$[ebp], eax

; 838  : 	
; 839  : 	if(index < 0)

	cmp	DWORD PTR _index$[ebp], 0
	jge	SHORT $LN2@KnotsToRed

; 840  : 		index = 0;

	mov	DWORD PTR _index$[ebp], 0
$LN2@KnotsToRed:

; 841  : 	if(index > 35)

	cmp	DWORD PTR _index$[ebp], 35		; 00000023H
	jle	SHORT $LN1@KnotsToRed

; 842  : 		index = 35;

	mov	DWORD PTR _index$[ebp], 35		; 00000023H
$LN1@KnotsToRed:

; 843  : 	
; 844  : 	return (short)index;

	mov	ax, WORD PTR _index$[ebp]
$LN4@KnotsToRed:

; 845  : }

	mov	esp, ebp
	pop	ebp
	ret	4
?KnotsToReduceIncreaseToElement@VoiceFilter@@AAEFH@Z ENDP ; VoiceFilter::KnotsToReduceIncreaseToElement
_TEXT	ENDS
; Function compile flags: /Odtp
; File c:\users\zhitao li\documents\visual studio 2012\projects\freefalcon\falcsnd\voicefilter.cpp
_TEXT	SEGMENT
_this$ = -8						; size = 4
_index$ = -4						; size = 4
_knots$ = 8						; size = 4
?KnotsToElement@VoiceFilter@@AAEFH@Z PROC		; VoiceFilter::KnotsToElement
; _this$ = ecx

; 803  : {

	push	ebp
	mov	ebp, esp
	sub	esp, 8
	mov	DWORD PTR _this$[ebp], ecx

; 804  : 	if(knots == -1)

	cmp	DWORD PTR _knots$[ebp], -1
	jne	SHORT $LN3@KnotsToEle

; 805  : 		return -1;

	or	eax, -1
	jmp	SHORT $LN4@KnotsToEle
$LN3@KnotsToEle:

; 806  : 	
; 807  : 	int	index;
; 808  : 	
; 809  : 	index = (knots - 95) / 10;

	mov	eax, DWORD PTR _knots$[ebp]
	sub	eax, 95					; 0000005fH
	cdq
	mov	ecx, 10					; 0000000aH
	idiv	ecx
	mov	DWORD PTR _index$[ebp], eax

; 810  : 	
; 811  : 	if(index < 0)

	cmp	DWORD PTR _index$[ebp], 0
	jge	SHORT $LN2@KnotsToEle

; 812  : 		index = 0;

	mov	DWORD PTR _index$[ebp], 0
$LN2@KnotsToEle:

; 813  : 	if(index > 36)

	cmp	DWORD PTR _index$[ebp], 36		; 00000024H
	jle	SHORT $LN1@KnotsToEle

; 814  : 		index = 36;

	mov	DWORD PTR _index$[ebp], 36		; 00000024H
$LN1@KnotsToEle:

; 815  : 	
; 816  : 	return (short)index;

	mov	ax, WORD PTR _index$[ebp]
$LN4@KnotsToEle:

; 817  : }

	mov	esp, ebp
	pop	ebp
	ret	4
?KnotsToElement@VoiceFilter@@AAEFH@Z ENDP		; VoiceFilter::KnotsToElement
_TEXT	ENDS
; Function compile flags: /Odtp
; File c:\users\zhitao li\documents\visual studio 2012\projects\freefalcon\falcsnd\voicefilter.cpp
_TEXT	SEGMENT
_this$ = -8						; size = 4
_index$ = -4						; size = 4
_degree$ = 8						; size = 4
?DegreesToElement@VoiceFilter@@AAEFH@Z PROC		; VoiceFilter::DegreesToElement
; _this$ = ecx

; 772  : {

	push	ebp
	mov	ebp, esp
	sub	esp, 8
	mov	DWORD PTR _this$[ebp], ecx

; 773  : 	if(degree == -1)

	cmp	DWORD PTR _degree$[ebp], -1
	jne	SHORT $LN5@DegreesToE

; 774  : 		return -1;

	or	eax, -1
	jmp	SHORT $LN6@DegreesToE
$LN5@DegreesToE:

; 775  : 	
; 776  : 	int	index;
; 777  : 	
; 778  : 	// Degree = 350 / 10 = 35 - index into Eval
; 779  : 	if (degree < 0)

	cmp	DWORD PTR _degree$[ebp], 0
	jge	SHORT $LN4@DegreesToE

; 780  : 		degree += 360;

	mov	eax, DWORD PTR _degree$[ebp]
	add	eax, 360				; 00000168H
	mov	DWORD PTR _degree$[ebp], eax
$LN4@DegreesToE:

; 781  : 	index = (degree + 2) / 5;

	mov	eax, DWORD PTR _degree$[ebp]
	add	eax, 2
	cdq
	mov	ecx, 5
	idiv	ecx
	mov	DWORD PTR _index$[ebp], eax

; 782  : 	
; 783  : 	if ( index < EBEARING_MIN )

	cmp	DWORD PTR _index$[ebp], 0
	jge	SHORT $LN3@DegreesToE

; 784  : 		index = EBEARING_MIN;

	mov	DWORD PTR _index$[ebp], 0
	jmp	SHORT $LN2@DegreesToE
$LN3@DegreesToE:

; 785  : 	else if ( index > EBEARING_MAX )

	cmp	DWORD PTR _index$[ebp], 71		; 00000047H
	jle	SHORT $LN2@DegreesToE

; 786  : 		index = EBEARING_MAX;

	mov	DWORD PTR _index$[ebp], 71		; 00000047H
$LN2@DegreesToE:

; 787  : 	
; 788  : 	return (short)index;

	mov	ax, WORD PTR _index$[ebp]
$LN6@DegreesToE:

; 789  : }

	mov	esp, ebp
	pop	ebp
	ret	4
?DegreesToElement@VoiceFilter@@AAEFH@Z ENDP		; VoiceFilter::DegreesToElement
_TEXT	ENDS
; Function compile flags: /Odtp
; File c:\users\zhitao li\documents\visual studio 2012\projects\freefalcon\falcsnd\voicefilter.cpp
_TEXT	SEGMENT
_this$ = -8						; size = 4
_index$ = -4						; size = 4
_feet$ = 8						; size = 4
?FeetToThousands@VoiceFilter@@AAEFH@Z PROC		; VoiceFilter::FeetToThousands
; _this$ = ecx

; 727  : {

	push	ebp
	mov	ebp, esp
	sub	esp, 8
	mov	DWORD PTR _this$[ebp], ecx

; 728  : 	if(feet == -1)

	cmp	DWORD PTR _feet$[ebp], -1
	jne	SHORT $LN9@FeetToThou

; 729  : 		return -1;

	or	eax, -1
	jmp	SHORT $LN10@FeetToThou
$LN9@FeetToThou:

; 730  : 
; 731  : 	int	index;
; 732  : 	
; 733  : 	// 1000ft. = 1 Angel
; 734  : 	index = feet / 1000;

	mov	eax, DWORD PTR _feet$[ebp]
	cdq
	mov	ecx, 1000				; 000003e8H
	idiv	ecx
	mov	DWORD PTR _index$[ebp], eax

; 735  : 	
; 736  : 	if (index > 60)

	cmp	DWORD PTR _index$[ebp], 60		; 0000003cH
	jle	SHORT $LN8@FeetToThou

; 737  : 	{
; 738  : 		index = 36 + index / 5;

	mov	eax, DWORD PTR _index$[ebp]
	cdq
	mov	ecx, 5
	idiv	ecx
	add	eax, 36					; 00000024H
	mov	DWORD PTR _index$[ebp], eax
	jmp	SHORT $LN7@FeetToThou
$LN8@FeetToThou:

; 739  : 		
; 740  : 	}
; 741  : 	else if (index > 40)

	cmp	DWORD PTR _index$[ebp], 40		; 00000028H
	jle	SHORT $LN6@FeetToThou

; 742  : 		index = 24 + 2 * (index / 5);

	mov	eax, DWORD PTR _index$[ebp]
	cdq
	mov	ecx, 5
	idiv	ecx
	lea	edx, DWORD PTR [eax+eax+24]
	mov	DWORD PTR _index$[ebp], edx
	jmp	SHORT $LN7@FeetToThou
$LN6@FeetToThou:

; 743  : 	else if (index > 40)

	cmp	DWORD PTR _index$[ebp], 40		; 00000028H
	jle	SHORT $LN7@FeetToThou

; 744  : 		index = 31 + index / 5;

	mov	eax, DWORD PTR _index$[ebp]
	cdq
	mov	ecx, 5
	idiv	ecx
	add	eax, 31					; 0000001fH
	mov	DWORD PTR _index$[ebp], eax
$LN7@FeetToThou:

; 745  : 	else
; 746  : 		index;
; 747  : 	
; 748  : 	if(index > ETHOUSANDS_MAX)

	cmp	DWORD PTR _index$[ebp], 54		; 00000036H
	jle	SHORT $LN2@FeetToThou

; 749  : 		index = ETHOUSANDS_MAX;

	mov	DWORD PTR _index$[ebp], 54		; 00000036H
$LN2@FeetToThou:

; 750  : 	if(index < ETHOUSANDS_MIN)

	cmp	DWORD PTR _index$[ebp], 1
	jge	SHORT $LN1@FeetToThou

; 751  : 		index = -1;

	mov	DWORD PTR _index$[ebp], -1
$LN1@FeetToThou:

; 752  : 	
; 753  : 	return (short)index;

	mov	ax, WORD PTR _index$[ebp]
$LN10@FeetToThou:

; 754  : }

	mov	esp, ebp
	pop	ebp
	ret	4
?FeetToThousands@VoiceFilter@@AAEFH@Z ENDP		; VoiceFilter::FeetToThousands
_TEXT	ENDS
; Function compile flags: /Odtp
; File c:\users\zhitao li\documents\visual studio 2012\projects\freefalcon\falcsnd\voicefilter.cpp
_TEXT	SEGMENT
_this$ = -8						; size = 4
_index$ = -4						; size = 4
_feet$ = 8						; size = 4
?FeetToAngel@VoiceFilter@@AAEFH@Z PROC			; VoiceFilter::FeetToAngel
; _this$ = ecx

; 692  : {

	push	ebp
	mov	ebp, esp
	sub	esp, 8
	mov	DWORD PTR _this$[ebp], ecx

; 693  : 	int	index;
; 694  : 	if(feet == -1)

	cmp	DWORD PTR _feet$[ebp], -1
	jne	SHORT $LN8@FeetToAnge

; 695  : 		return -1;

	or	eax, -1
	jmp	SHORT $LN9@FeetToAnge
$LN8@FeetToAnge:

; 696  : 	
; 697  : 	// 1000ft. = 1 Angel
; 698  : 	index = feet / 1000;

	mov	eax, DWORD PTR _feet$[ebp]
	cdq
	mov	ecx, 1000				; 000003e8H
	idiv	ecx
	mov	DWORD PTR _index$[ebp], eax

; 699  : 	
; 700  : 	if (index > 50)

	cmp	DWORD PTR _index$[ebp], 50		; 00000032H
	jle	SHORT $LN7@FeetToAnge

; 701  : 		index = 36 + index / 10;

	mov	eax, DWORD PTR _index$[ebp]
	cdq
	mov	ecx, 10					; 0000000aH
	idiv	ecx
	add	eax, 36					; 00000024H
	mov	DWORD PTR _index$[ebp], eax
	jmp	SHORT $LN6@FeetToAnge
$LN7@FeetToAnge:

; 702  : 	else if (index > 40)

	cmp	DWORD PTR _index$[ebp], 40		; 00000028H
	jle	SHORT $LN5@FeetToAnge

; 703  : 		index = 31 + index / 5;

	mov	eax, DWORD PTR _index$[ebp]
	cdq
	mov	ecx, 5
	idiv	ecx
	add	eax, 31					; 0000001fH
	mov	DWORD PTR _index$[ebp], eax

; 704  : 	else

	jmp	SHORT $LN6@FeetToAnge
$LN5@FeetToAnge:

; 705  : 		index--;

	mov	edx, DWORD PTR _index$[ebp]
	sub	edx, 1
	mov	DWORD PTR _index$[ebp], edx
$LN6@FeetToAnge:

; 706  : 	
; 707  : 	if ( index < EANGELS_MIN )

	cmp	DWORD PTR _index$[ebp], 0
	jge	SHORT $LN3@FeetToAnge

; 708  : 		index = -1;

	mov	DWORD PTR _index$[ebp], -1
	jmp	SHORT $LN2@FeetToAnge
$LN3@FeetToAnge:

; 709  : 	else if ( index > EANGELS_MAX )

	cmp	DWORD PTR _index$[ebp], 45		; 0000002dH
	jle	SHORT $LN2@FeetToAnge

; 710  : 		index = EANGELS_MAX;

	mov	DWORD PTR _index$[ebp], 45		; 0000002dH
$LN2@FeetToAnge:

; 711  : 	
; 712  : 	return (short)index;

	mov	ax, WORD PTR _index$[ebp]
$LN9@FeetToAnge:

; 713  : }

	mov	esp, ebp
	pop	ebp
	ret	4
?FeetToAngel@VoiceFilter@@AAEFH@Z ENDP			; VoiceFilter::FeetToAngel
_TEXT	ENDS
; Function compile flags: /Odtp
; File c:\users\zhitao li\documents\visual studio 2012\projects\freefalcon\falcsnd\voicefilter.cpp
_TEXT	SEGMENT
_this$ = -12						; size = 4
_index$ = -8						; size = 4
_dist$ = -4						; size = 4
_km$ = 8						; size = 2
?KilometersToNauticalMiles@VoiceFilter@@AAEFF@Z PROC	; VoiceFilter::KilometersToNauticalMiles
; _this$ = ecx

; 644  : {

	push	ebp
	mov	ebp, esp
	sub	esp, 12					; 0000000cH
	mov	DWORD PTR _this$[ebp], ecx

; 645  : 	if(km == -1)

	movsx	eax, WORD PTR _km$[ebp]
	cmp	eax, -1
	jne	SHORT $LN12@Kilometers

; 646  : 		return -1;

	or	eax, -1
	jmp	$LN13@Kilometers
$LN12@Kilometers:

; 647  : 
; 648  : 	int index;
; 649  : 	float dist;
; 650  : 
; 651  : // 2001-09-15 M.N. MORE DISCRETE DISTANCES: FROM 60-400 NM IN 20 NM INCREMENTS
; 652  : //	index = (short)FloatToInt32(KM_TO_NM * km);	-> NOT NEEDED, GETS CHANGED IN ANY CASE BELOW
; 653  : 	dist = KM_TO_NM * km;

	movsx	ecx, WORD PTR _km$[ebp]
	cvtsi2ss xmm0, ecx
	mulss	xmm0, DWORD PTR __real@3f0a35e2
	movss	DWORD PTR _dist$[ebp], xmm0

; 654  : 
; 655  : 	// Ranges over 400 nm are in 50 nm increments
; 656  : 	if (dist >= 400.0F)

	movss	xmm0, DWORD PTR _dist$[ebp]
	comiss	xmm0, DWORD PTR __real@43c80000
	jb	SHORT $LN11@Kilometers

; 657  : 		index = FloatToInt32(22.0F + dist/50.0F + 0.5F);

	movss	xmm0, DWORD PTR _dist$[ebp]
	divss	xmm0, DWORD PTR __real@42480000
	addss	xmm0, DWORD PTR __real@41b00000
	addss	xmm0, DWORD PTR __real@3f000000
	push	ecx
	movss	DWORD PTR [esp], xmm0
	call	?FloatToInt32@@YAHM@Z			; FloatToInt32
	add	esp, 4
	mov	DWORD PTR _index$[ebp], eax
	jmp	$LN4@Kilometers
$LN11@Kilometers:

; 658  : // 2001-09-15 M.N.
; 659  : 
; 660  : 	// Ranges over 60 nm are in 20 nm increments
; 661  : 	else if (dist >= 60.0F)

	movss	xmm0, DWORD PTR _dist$[ebp]
	comiss	xmm0, DWORD PTR __real@42700000
	jb	SHORT $LN9@Kilometers

; 662  : 		index = FloatToInt32(10.0F + dist/20.0F + 0.5F);

	movss	xmm0, DWORD PTR _dist$[ebp]
	divss	xmm0, DWORD PTR __real@41a00000
	addss	xmm0, DWORD PTR __real@41200000
	addss	xmm0, DWORD PTR __real@3f000000
	push	ecx
	movss	DWORD PTR [esp], xmm0
	call	?FloatToInt32@@YAHM@Z			; FloatToInt32
	add	esp, 4
	mov	DWORD PTR _index$[ebp], eax
	jmp	$LN4@Kilometers
$LN9@Kilometers:

; 663  : 	// Ranges over 40 nm are in 10 nm increments
; 664  : 	else if (dist >= 40.0F)

	movss	xmm0, DWORD PTR _dist$[ebp]
	comiss	xmm0, DWORD PTR __real@42200000
	jb	SHORT $LN7@Kilometers

; 665  : 		index = FloatToInt32(7.0F + dist/10.0F + 0.5F);

	movss	xmm0, DWORD PTR _dist$[ebp]
	divss	xmm0, DWORD PTR __real@41200000
	addss	xmm0, DWORD PTR __real@40e00000
	addss	xmm0, DWORD PTR __real@3f000000
	push	ecx
	movss	DWORD PTR [esp], xmm0
	call	?FloatToInt32@@YAHM@Z			; FloatToInt32
	add	esp, 4
	mov	DWORD PTR _index$[ebp], eax
	jmp	SHORT $LN4@Kilometers
$LN7@Kilometers:

; 666  : 	// Ranges over 5 nm are in 5 nm increments
; 667  : 	else if (dist >= 5.0F)

	movss	xmm0, DWORD PTR _dist$[ebp]
	comiss	xmm0, DWORD PTR __real@40a00000
	jb	SHORT $LN5@Kilometers

; 668  : 		index = FloatToInt32(3.0F + dist/5.0F + 0.5F);

	movss	xmm0, DWORD PTR _dist$[ebp]
	divss	xmm0, DWORD PTR __real@40a00000
	addss	xmm0, DWORD PTR __real@40400000
	addss	xmm0, DWORD PTR __real@3f000000
	push	ecx
	movss	DWORD PTR [esp], xmm0
	call	?FloatToInt32@@YAHM@Z			; FloatToInt32
	add	esp, 4
	mov	DWORD PTR _index$[ebp], eax

; 669  : 	else

	jmp	SHORT $LN4@Kilometers
$LN5@Kilometers:

; 670  : 		index = FloatToInt32(dist - 1.0F + 0.5F);

	movss	xmm0, DWORD PTR _dist$[ebp]
	subss	xmm0, DWORD PTR __real@3f800000
	addss	xmm0, DWORD PTR __real@3f000000
	push	ecx
	movss	DWORD PTR [esp], xmm0
	call	?FloatToInt32@@YAHM@Z			; FloatToInt32
	add	esp, 4
	mov	DWORD PTR _index$[ebp], eax
$LN4@Kilometers:

; 671  : 	
; 672  : 	if ( index < ERANGE_MIN )

	cmp	DWORD PTR _index$[ebp], 0
	jge	SHORT $LN3@Kilometers

; 673  : 		index = -1;

	mov	DWORD PTR _index$[ebp], -1
	jmp	SHORT $LN1@Kilometers
$LN3@Kilometers:

; 674  : 	else if ( index > ERANGE_MAX )

	cmp	DWORD PTR _index$[ebp], 34		; 00000022H
	jle	SHORT $LN1@Kilometers

; 675  : 		index = ERANGE_MAX;

	mov	DWORD PTR _index$[ebp], 34		; 00000022H
$LN1@Kilometers:

; 676  : 	
; 677  : 	return (short)index;

	mov	ax, WORD PTR _index$[ebp]
$LN13@Kilometers:

; 678  : }

	mov	esp, ebp
	pop	ebp
	ret	4
?KilometersToNauticalMiles@VoiceFilter@@AAEFF@Z ENDP	; VoiceFilter::KilometersToNauticalMiles
_TEXT	ENDS
; Function compile flags: /Odtp
; File c:\users\zhitao li\documents\visual studio 2012\projects\freefalcon\falcsnd\voicefilter.cpp
_TEXT	SEGMENT
_this$ = -4						; size = 4
?DisposeFragData@VoiceFilter@@AAEXXZ PROC		; VoiceFilter::DisposeFragData
; _this$ = ecx

; 308  : {

	push	ebp
	mov	ebp, esp
	push	ecx
	mov	DWORD PTR _this$[ebp], ecx

; 309  : 	//fragData = NULL;
; 310  :     fragfile.Close();

	mov	ecx, DWORD PTR _this$[ebp]
	add	ecx, 20					; 00000014H
	call	?Close@FileMemMap@@QAEXXZ		; FileMemMap::Close

; 311  : }

	mov	esp, ebp
	pop	ebp
	ret	0
?DisposeFragData@VoiceFilter@@AAEXXZ ENDP		; VoiceFilter::DisposeFragData
_TEXT	ENDS
; Function compile flags: /Odtp
; File c:\users\zhitao li\documents\visual studio 2012\projects\freefalcon\falcsnd\voicefilter.cpp
_TEXT	SEGMENT
_this$ = -848						; size = 4
_buffer$1 = -844					; size = 580
_filename$ = -264					; size = 260
__$ArrayPad$ = -4					; size = 4
?LoadFragFile@VoiceFilter@@AAEXXZ PROC			; VoiceFilter::LoadFragFile
; _this$ = ecx

; 282  : {

	push	ebp
	mov	ebp, esp
	sub	esp, 848				; 00000350H
	mov	eax, DWORD PTR ___security_cookie
	xor	eax, ebp
	mov	DWORD PTR __$ArrayPad$[ebp], eax
	mov	DWORD PTR _this$[ebp], ecx

; 283  : 	char	filename[MAX_PATH];
; 284  : 	
; 285  : 	
; 286  : 	sprintf(filename,"%s\\fragFile.bin", FalconSoundThrDirectory);

	push	OFFSET ?FalconSoundThrDirectory@@3PADA	; FalconSoundThrDirectory
	push	OFFSET ??_C@_0BA@IFFONFLD@?$CFs?2fragFile?4bin?$AA@
	lea	eax, DWORD PTR _filename$[ebp]
	push	eax
	call	_sprintf
	add	esp, 12					; 0000000cH

; 287  : 	
; 288  : 	//fragData = (char *)map_file(filename);
; 289  : 	
; 290  : 	//ShiAssert( fragData );
; 291  : 	if (fragfile.Open(filename) != TRUE)

	push	0
	push	0
	lea	ecx, DWORD PTR _filename$[ebp]
	push	ecx
	mov	ecx, DWORD PTR _this$[ebp]
	add	ecx, 20					; 00000014H
	call	?Open@FileMemMap@@QAEHPBDHH@Z		; FileMemMap::Open
	cmp	eax, 1
	je	SHORT $LN1@LoadFragFi

; 292  : 	    ShiError("Can't open fragFile.bin");

	push	OFFSET ??_C@_0M@CFLADCE@Feb?518?52013?$AA@
	push	OFFSET ??_C@_0BA@JKMMDDKC@voiceFilter?4cpp?$AA@
	push	292					; 00000124H
	push	OFFSET ??_C@_0BE@FGKKLFGH@Error?3?5?5?$CF0d?5?5?$CFs?5?5?$CFs?$AA@
	lea	edx, DWORD PTR _buffer$1[ebp]
	push	edx
	call	_sprintf
	add	esp, 20					; 00000014H
	push	0
	push	OFFSET ??_C@_0BI@NLNFMLMM@Can?8t?5open?5fragFile?4bin?$AA@
	lea	eax, DWORD PTR _buffer$1[ebp]
	push	eax
	push	0
	call	DWORD PTR __imp__MessageBoxA@16
	push	-1
	call	_exit
$LN1@LoadFragFi:

; 293  : 	fragfile.Initialise();

	mov	ecx, DWORD PTR _this$[ebp]
	add	ecx, 20					; 00000014H
	call	?Initialise@FragFile@@QAEXXZ		; FragFile::Initialise
$LN3@LoadFragFi:

; 294  : }

	mov	ecx, DWORD PTR __$ArrayPad$[ebp]
	xor	ecx, ebp
	call	@__security_check_cookie@4
	mov	esp, ebp
	pop	ebp
	ret	0
?LoadFragFile@VoiceFilter@@AAEXXZ ENDP			; VoiceFilter::LoadFragFile
_TEXT	ENDS
; Function compile flags: /Odtp
; File c:\users\zhitao li\documents\visual studio 2012\projects\freefalcon\falcsnd\voicefilter.cpp
_TEXT	SEGMENT
_this$ = -4						; size = 4
?DisposeEvalData@VoiceFilter@@AAEXXZ PROC		; VoiceFilter::DisposeEvalData
; _this$ = ecx

; 265  : {

	push	ebp
	mov	ebp, esp
	push	ecx
	mov	DWORD PTR _this$[ebp], ecx

; 266  : 	//evalData = NULL;
; 267  :     evalfile.Close();

	mov	ecx, DWORD PTR _this$[ebp]
	add	ecx, 44					; 0000002cH
	call	?Close@FileMemMap@@QAEXXZ		; FileMemMap::Close

; 268  : }

	mov	esp, ebp
	pop	ebp
	ret	0
?DisposeEvalData@VoiceFilter@@AAEXXZ ENDP		; VoiceFilter::DisposeEvalData
_TEXT	ENDS
; Function compile flags: /Odtp
; File c:\users\zhitao li\documents\visual studio 2012\projects\freefalcon\falcsnd\voicefilter.cpp
_TEXT	SEGMENT
_this$ = -848						; size = 4
_buffer$1 = -844					; size = 580
_filename$ = -264					; size = 260
__$ArrayPad$ = -4					; size = 4
?LoadEvalFile@VoiceFilter@@AAEXXZ PROC			; VoiceFilter::LoadEvalFile
; _this$ = ecx

; 240  : {

	push	ebp
	mov	ebp, esp
	sub	esp, 848				; 00000350H
	mov	eax, DWORD PTR ___security_cookie
	xor	eax, ebp
	mov	DWORD PTR __$ArrayPad$[ebp], eax
	mov	DWORD PTR _this$[ebp], ecx

; 241  : 	char	filename[MAX_PATH];
; 242  : 	
; 243  : 	sprintf(filename,"%s\\evalFile.bin", FalconSoundThrDirectory);

	push	OFFSET ?FalconSoundThrDirectory@@3PADA	; FalconSoundThrDirectory
	push	OFFSET ??_C@_0BA@MDHCHJPF@?$CFs?2evalFile?4bin?$AA@
	lea	eax, DWORD PTR _filename$[ebp]
	push	eax
	call	_sprintf
	add	esp, 12					; 0000000cH

; 244  : 	
; 245  : //	evalData = (char *)map_file(filename);
; 246  : 	
; 247  : //	ShiAssert( evalData );
; 248  : 	if (evalfile.Open(filename) != TRUE)

	push	0
	push	0
	lea	ecx, DWORD PTR _filename$[ebp]
	push	ecx
	mov	ecx, DWORD PTR _this$[ebp]
	add	ecx, 44					; 0000002cH
	call	?Open@FileMemMap@@QAEHPBDHH@Z		; FileMemMap::Open
	cmp	eax, 1
	je	SHORT $LN1@LoadEvalFi

; 249  : 	    ShiError("Can't open evalFile.bin");

	push	OFFSET ??_C@_0M@CFLADCE@Feb?518?52013?$AA@
	push	OFFSET ??_C@_0BA@JKMMDDKC@voiceFilter?4cpp?$AA@
	push	249					; 000000f9H
	push	OFFSET ??_C@_0BE@FGKKLFGH@Error?3?5?5?$CF0d?5?5?$CFs?5?5?$CFs?$AA@
	lea	edx, DWORD PTR _buffer$1[ebp]
	push	edx
	call	_sprintf
	add	esp, 20					; 00000014H
	push	0
	push	OFFSET ??_C@_0BI@JNPJGHIK@Can?8t?5open?5evalFile?4bin?$AA@
	lea	eax, DWORD PTR _buffer$1[ebp]
	push	eax
	push	0
	call	DWORD PTR __imp__MessageBoxA@16
	push	-1
	call	_exit
$LN1@LoadEvalFi:

; 250  : 	evalfile.Initialise();

	mov	ecx, DWORD PTR _this$[ebp]
	add	ecx, 44					; 0000002cH
	call	?Initialise@EvalFile@@QAEXXZ		; EvalFile::Initialise
$LN3@LoadEvalFi:

; 251  : }

	mov	ecx, DWORD PTR __$ArrayPad$[ebp]
	xor	ecx, ebp
	call	@__security_check_cookie@4
	mov	esp, ebp
	pop	ebp
	ret	0
?LoadEvalFile@VoiceFilter@@AAEXXZ ENDP			; VoiceFilter::LoadEvalFile
_TEXT	ENDS
; Function compile flags: /Odtp
; File c:\users\zhitao li\documents\visual studio 2012\projects\freefalcon\falcsnd\voicefilter.cpp
_TEXT	SEGMENT
_this$ = -4						; size = 4
?DisposeCommData@VoiceFilter@@AAEXXZ PROC		; VoiceFilter::DisposeCommData
; _this$ = ecx

; 223  : {

	push	ebp
	mov	ebp, esp
	push	ecx
	mov	DWORD PTR _this$[ebp], ecx

; 224  : 	//commData = NULL;
; 225  :     commfile.Close();

	mov	ecx, DWORD PTR _this$[ebp]
	call	?Close@FileMemMap@@QAEXXZ		; FileMemMap::Close

; 226  : }

	mov	esp, ebp
	pop	ebp
	ret	0
?DisposeCommData@VoiceFilter@@AAEXXZ ENDP		; VoiceFilter::DisposeCommData
_TEXT	ENDS
; Function compile flags: /Odtp
; File c:\users\zhitao li\documents\visual studio 2012\projects\freefalcon\falcsnd\voicefilter.cpp
_TEXT	SEGMENT
_this$ = -848						; size = 4
_buffer$1 = -844					; size = 580
_filename$ = -264					; size = 260
__$ArrayPad$ = -4					; size = 4
?LoadCommFile@VoiceFilter@@AAEXXZ PROC			; VoiceFilter::LoadCommFile
; _this$ = ecx

; 198  : {

	push	ebp
	mov	ebp, esp
	sub	esp, 848				; 00000350H
	mov	eax, DWORD PTR ___security_cookie
	xor	eax, ebp
	mov	DWORD PTR __$ArrayPad$[ebp], eax
	mov	DWORD PTR _this$[ebp], ecx

; 199  : 	char	filename[MAX_PATH];
; 200  : 	
; 201  : 	sprintf(filename,"%s\\commFile.bin", FalconSoundThrDirectory);

	push	OFFSET ?FalconSoundThrDirectory@@3PADA	; FalconSoundThrDirectory
	push	OFFSET ??_C@_0BA@BHPOIILM@?$CFs?2commFile?4bin?$AA@
	lea	eax, DWORD PTR _filename$[ebp]
	push	eax
	call	_sprintf
	add	esp, 12					; 0000000cH

; 202  : 	
; 203  : //	commData = (char *)map_file(filename);
; 204  : 	
; 205  : //	ShiAssert( commData );
; 206  : 	if (commfile.Open(filename) != TRUE)

	push	0
	push	0
	lea	ecx, DWORD PTR _filename$[ebp]
	push	ecx
	mov	ecx, DWORD PTR _this$[ebp]
	call	?Open@FileMemMap@@QAEHPBDHH@Z		; FileMemMap::Open
	cmp	eax, 1
	je	SHORT $LN1@LoadCommFi

; 207  : 	    ShiError("Can't open commfile.bin");

	push	OFFSET ??_C@_0M@CFLADCE@Feb?518?52013?$AA@
	push	OFFSET ??_C@_0BA@JKMMDDKC@voiceFilter?4cpp?$AA@
	push	207					; 000000cfH
	push	OFFSET ??_C@_0BE@FGKKLFGH@Error?3?5?5?$CF0d?5?5?$CFs?5?5?$CFs?$AA@
	lea	edx, DWORD PTR _buffer$1[ebp]
	push	edx
	call	_sprintf
	add	esp, 20					; 00000014H
	push	0
	push	OFFSET ??_C@_0BI@MLIEBEGA@Can?8t?5open?5commfile?4bin?$AA@
	lea	eax, DWORD PTR _buffer$1[ebp]
	push	eax
	push	0
	call	DWORD PTR __imp__MessageBoxA@16
	push	-1
	call	_exit
$LN1@LoadCommFi:

; 208  : 	commfile.Initialise();

	mov	ecx, DWORD PTR _this$[ebp]
	call	?Initialise@CommFile@@QAEXXZ		; CommFile::Initialise
$LN3@LoadCommFi:

; 209  : }

	mov	ecx, DWORD PTR __$ArrayPad$[ebp]
	xor	ecx, ebp
	call	@__security_check_cookie@4
	mov	esp, ebp
	pop	ebp
	ret	0
?LoadCommFile@VoiceFilter@@AAEXXZ ENDP			; VoiceFilter::LoadCommFile
_TEXT	ENDS
; Function compile flags: /Odtp
; File c:\users\zhitao li\documents\visual studio 2012\projects\freefalcon\falcsnd\voicefilter.cpp
_TEXT	SEGMENT
_dFragData$ = -24					; size = 4
_fragHdrInfo$ = -20					; size = 4
_this$ = -16						; size = 4
_index$ = -12						; size = 4
_headerInfo$ = -8					; size = 4
_fileNumber$ = -4					; size = 2
_talker$ = 8						; size = 4
_fragNumber$ = 12					; size = 2
?FragToFile@VoiceFilter@@QAEFHF@Z PROC			; VoiceFilter::FragToFile
; _this$ = ecx

; 978  : {	

	push	ebp
	mov	ebp, esp
	sub	esp, 24					; 00000018H
	push	esi
	mov	DWORD PTR _this$[ebp], ecx

; 979  : 	if(killThread)

	cmp	DWORD PTR ?killThread@@3HA, 0		; killThread
	je	SHORT $LN8@FragToFile

; 980  : 		return 0;

	xor	eax, eax
	jmp	$LN9@FragToFile
$LN8@FragToFile:

; 981  : 
; 982  :   SPEAKER_TO_FILE	*dFragData;
; 983  :   FRAG_FILE_INFO	*fragHdrInfo;
; 984  :   short	fileNumber = 0;

	xor	eax, eax
	mov	WORD PTR _fileNumber$[ebp], ax

; 985  :   int	index = 0;	

	mov	DWORD PTR _index$[ebp], 0

; 986  :   SPEAKER_TO_FILE *headerInfo = NULL;

	mov	DWORD PTR _headerInfo$[ebp], 0

; 987  :   
; 988  :   //get pointer into fragData where FRAG_FILE_INFO structure is stored
; 989  : //  fragHdrInfo = (FRAG_FILE_INFO *)(fragData + (sizeof(FRAG_FILE_INFO)*fragNumber));
; 990  :   ShiAssert(fragNumber < fragfile.MaxFrags());
; 991  :   if (fragNumber >= fragfile.MaxFrags())

	movsx	esi, WORD PTR _fragNumber$[ebp]
	mov	ecx, DWORD PTR _this$[ebp]
	add	ecx, 20					; 00000014H
	call	?MaxFrags@FragFile@@QAEHXZ		; FragFile::MaxFrags
	cmp	esi, eax
	jl	SHORT $LN7@FragToFile

; 992  :       return 0;

	xor	eax, eax
	jmp	SHORT $LN9@FragToFile
$LN7@FragToFile:

; 993  :   fragHdrInfo = fragfile.GetFragInfo(fragNumber);

	movsx	ecx, WORD PTR _fragNumber$[ebp]
	push	ecx
	mov	ecx, DWORD PTR _this$[ebp]
	add	ecx, 20					; 00000014H
	call	?GetFragInfo@FragFile@@QAEPAUFRAG_FILE_INFO@@H@Z ; FragFile::GetFragInfo
	mov	DWORD PTR _fragHdrInfo$[ebp], eax

; 994  :   ShiAssert(FALSE == F4IsBadReadPtr(fragHdrInfo, sizeof *fragHdrInfo));
; 995  : 
; 996  :   //use offset from header to go to beginning of the data for each voice
; 997  : //  dFragData = (SPEAKER_TO_FILE*)(fragData + fragHdrInfo->fragOffset);
; 998  :     
; 999  :   dFragData = fragfile.GetSpeaker(fragHdrInfo);

	mov	edx, DWORD PTR _fragHdrInfo$[ebp]
	push	edx
	mov	ecx, DWORD PTR _this$[ebp]
	add	ecx, 20					; 00000014H
	call	?GetSpeaker@FragFile@@QAEPAUSPEAKER_TO_FILE@@PAUFRAG_FILE_INFO@@@Z ; FragFile::GetSpeaker
	mov	DWORD PTR _dFragData$[ebp], eax

; 1000 :   ShiAssert(FALSE == F4IsBadReadPtr(dFragData, sizeof *dFragData));
; 1001 :   headerInfo = dFragData;

	mov	eax, DWORD PTR _dFragData$[ebp]
	mov	DWORD PTR _headerInfo$[ebp], eax

; 1002 :   //since all the frags no longer have all the voices, we need to search
; 1003 :   //for the frag with the correct voice
; 1004 :   for(index = 0; index < fragHdrInfo->totalSpeakers; index++)

	mov	DWORD PTR _index$[ebp], 0
	jmp	SHORT $LN6@FragToFile
$LN5@FragToFile:
	mov	ecx, DWORD PTR _index$[ebp]
	add	ecx, 1
	mov	DWORD PTR _index$[ebp], ecx
$LN6@FragToFile:
	mov	edx, DWORD PTR _fragHdrInfo$[ebp]
	movsx	eax, WORD PTR [edx+2]
	cmp	DWORD PTR _index$[ebp], eax
	jge	SHORT $LN4@FragToFile

; 1005 :   {
; 1006 : 	  if(talker == headerInfo->speaker)

	mov	ecx, DWORD PTR _headerInfo$[ebp]
	movsx	edx, WORD PTR [ecx]
	cmp	DWORD PTR _talker$[ebp], edx
	jne	SHORT $LN3@FragToFile

; 1007 : 	  {
; 1008 : 		  fileNumber = headerInfo->fileNbr;

	mov	eax, DWORD PTR _headerInfo$[ebp]
	mov	cx, WORD PTR [eax+2]
	mov	WORD PTR _fileNumber$[ebp], cx

; 1009 : 		  break;

	jmp	SHORT $LN4@FragToFile
	jmp	SHORT $LN2@FragToFile
$LN3@FragToFile:

; 1010 : 	  }
; 1011 : 	  else if(headerInfo->speaker > talker)

	mov	edx, DWORD PTR _headerInfo$[ebp]
	movsx	eax, WORD PTR [edx]
	cmp	eax, DWORD PTR _talker$[ebp]
	jle	SHORT $LN2@FragToFile

; 1012 : 	  {
; 1013 : 		  break;

	jmp	SHORT $LN4@FragToFile
$LN2@FragToFile:

; 1014 : 	  }
; 1015 : 	  headerInfo++;

	mov	ecx, DWORD PTR _headerInfo$[ebp]
	add	ecx, 4
	mov	DWORD PTR _headerInfo$[ebp], ecx

; 1016 : 	  ShiAssert(FALSE == F4IsBadReadPtr(headerInfo, sizeof *dFragData));
; 1017 :   }

	jmp	SHORT $LN5@FragToFile
$LN4@FragToFile:

; 1018 :   
; 1019 :   
; 1020 :   //return the file number used to get correct offset into .tlk file
; 1021 :   return( fileNumber );

	mov	ax, WORD PTR _fileNumber$[ebp]
$LN9@FragToFile:

; 1022 : }

	pop	esi
	mov	esp, ebp
	pop	ebp
	ret	8
?FragToFile@VoiceFilter@@QAEFHF@Z ENDP			; VoiceFilter::FragToFile
_TEXT	ENDS
; Function compile flags: /Odtp
; File c:\users\zhitao li\documents\visual studio 2012\projects\freefalcon\falcsnd\voicefilter.cpp
_TEXT	SEGMENT
_eEvalElem$ = -16					; size = 4
_this$ = -12						; size = 4
_eEvalData$ = -8					; size = 4
_fragHdrNbr$ = -4					; size = 2
_evalHdrNumber$ = 8					; size = 2
_evalElement$ = 12					; size = 2
?IndexElement@VoiceFilter@@QAEFFF@Z PROC		; VoiceFilter::IndexElement
; _this$ = ecx

; 930  : {	

	push	ebp
	mov	ebp, esp
	sub	esp, 16					; 00000010H
	mov	DWORD PTR _this$[ebp], ecx

; 931  : 	if(killThread)

	cmp	DWORD PTR ?killThread@@3HA, 0		; killThread
	je	SHORT $LN5@IndexEleme

; 932  : 		return 0;

	xor	eax, eax
	jmp	SHORT $LN6@IndexEleme
$LN5@IndexEleme:

; 933  : 
; 934  : //  char	*dEvalData;
; 935  :   EVAL_FILE_INFO *eEvalData;
; 936  :   EVAL_ELEM *eEvalElem;
; 937  : 
; 938  :   //	EVAL_FILE_INFO	evalHdrInfo;
; 939  :   short	fragHdrNbr = 0;

	xor	eax, eax
	mov	WORD PTR _fragHdrNbr$[ebp], ax

; 940  :   
; 941  :   //index into evaldata to get appropriate offset
; 942  : //  dEvalData = evalData + (evalHdrNumber * sizeof( EVAL_FILE_INFO ));
; 943  :   eEvalData = evalfile.GetEval(evalHdrNumber);

	movsx	ecx, WORD PTR _evalHdrNumber$[ebp]
	push	ecx
	mov	ecx, DWORD PTR _this$[ebp]
	add	ecx, 44					; 0000002cH
	call	?GetEval@EvalFile@@QAEPAUEVAL_FILE_INFO@@H@Z ; EvalFile::GetEval
	mov	DWORD PTR _eEvalData$[ebp], eax

; 944  :   ShiAssert(FALSE == F4IsBadReadPtr(eEvalData, sizeof *eEvalData));
; 945  :    if (eEvalData == NULL) return  0;

	cmp	DWORD PTR _eEvalData$[ebp], 0
	jne	SHORT $LN4@IndexEleme
	xor	eax, eax
	jmp	SHORT $LN6@IndexEleme
$LN4@IndexEleme:

; 946  :   if(evalElement < 0)

	movsx	edx, WORD PTR _evalElement$[ebp]
	test	edx, edx
	jge	SHORT $LN3@IndexEleme

; 947  : 	  evalElement = 0;

	xor	eax, eax
	mov	WORD PTR _evalElement$[ebp], ax
	jmp	SHORT $LN2@IndexEleme
$LN3@IndexEleme:

; 948  : //  else if(evalElement >  ((EVAL_FILE_INFO *)dEvalData)->numEvals - 1)
; 949  : //	  evalElement = (short)(((EVAL_FILE_INFO *)dEvalData)->numEvals - 1);
; 950  :   else if(evalElement >  eEvalData->numEvals-1)

	movsx	ecx, WORD PTR _evalElement$[ebp]
	mov	edx, DWORD PTR _eEvalData$[ebp]
	movsx	eax, WORD PTR [edx+2]
	sub	eax, 1
	cmp	ecx, eax
	jle	SHORT $LN2@IndexEleme

; 951  : 	  evalElement = eEvalData->numEvals-1;

	mov	ecx, DWORD PTR _eEvalData$[ebp]
	movsx	edx, WORD PTR [ecx+2]
	sub	edx, 1
	mov	WORD PTR _evalElement$[ebp], dx
$LN2@IndexEleme:

; 952  :   
; 953  :   
; 954  :   //use offset to index into start of frags for this eval
; 955  : //  dEvalData = evalData + ((EVAL_FILE_INFO *)dEvalData)->evalOffset + (sizeof(short)*2 *evalElement) + sizeof( short );
; 956  :   eEvalElem = evalfile.GetEvalElem(eEvalData);

	mov	eax, DWORD PTR _eEvalData$[ebp]
	push	eax
	mov	ecx, DWORD PTR _this$[ebp]
	add	ecx, 44					; 0000002cH
	call	?GetEvalElem@EvalFile@@QAEPAUEVAL_ELEM@@PAUEVAL_FILE_INFO@@@Z ; EvalFile::GetEvalElem
	mov	DWORD PTR _eEvalElem$[ebp], eax

; 957  :   ShiAssert(FALSE == F4IsBadReadPtr(eEvalElem, sizeof *eEvalElem));
; 958  : 
; 959  : //  fragHdrNbr = *((short *)dEvalData);
; 960  :   fragHdrNbr = eEvalElem[evalElement].evalFrag;

	movsx	ecx, WORD PTR _evalElement$[ebp]
	mov	edx, DWORD PTR _eEvalElem$[ebp]
	mov	ax, WORD PTR [edx+ecx*4+2]
	mov	WORD PTR _fragHdrNbr$[ebp], ax

; 961  :   //return the appropriate frag
; 962  :   return( fragHdrNbr );

	mov	ax, WORD PTR _fragHdrNbr$[ebp]
$LN6@IndexEleme:

; 963  : }

	mov	esp, ebp
	pop	ebp
	ret	8
?IndexElement@VoiceFilter@@QAEFFF@Z ENDP		; VoiceFilter::IndexElement
_TEXT	ENDS
; Function compile flags: /Odtp
; File c:\users\zhitao li\documents\visual studio 2012\projects\freefalcon\falcsnd\voicefilter.cpp
_TEXT	SEGMENT
_this$ = -4						; size = 4
_mesgID$ = 8						; size = 4
?GetWarp@VoiceFilter@@QAEHH@Z PROC			; VoiceFilter::GetWarp
; _this$ = ecx

; 1147 : {

	push	ebp
	mov	ebp, esp
	push	ecx
	mov	DWORD PTR _this$[ebp], ecx

; 1148 :     return commfile.GetWarp(mesgID);

	mov	eax, DWORD PTR _mesgID$[ebp]
	push	eax
	mov	ecx, DWORD PTR _this$[ebp]
	call	?GetWarp@CommFile@@QAEHH@Z		; CommFile::GetWarp

; 1149 : }

	mov	esp, ebp
	pop	ebp
	ret	4
?GetWarp@VoiceFilter@@QAEHH@Z ENDP			; VoiceFilter::GetWarp
_TEXT	ENDS
; Function compile flags: /Odtp
; File c:\users\zhitao li\documents\visual studio 2012\projects\freefalcon\falcsnd\voicefilter.cpp
_TEXT	SEGMENT
tv647 = -52						; size = 4
_xs1$1 = -48						; size = 4
_ys1$2 = -44						; size = 4
_dist$ = -40						; size = 4
_this$ = -36						; size = 4
_theta$3 = -32						; size = 4
_xs2$4 = -28						; size = 4
_ys2$5 = -24						; size = 4
_commHdrInfo$ = -20					; size = 4
_x1$6 = -16						; size = 2
_y1$7 = -12						; size = 2
_x2$8 = -8						; size = 2
_y2$9 = -4						; size = 2
_mesgID$ = 8						; size = 4
_data$ = 12						; size = 4
?GetBullseyeComm@VoiceFilter@@QAEHPAHPAF@Z PROC		; VoiceFilter::GetBullseyeComm
; _this$ = ecx

; 1028 : {

	push	ebp
	mov	ebp, esp
	sub	esp, 52					; 00000034H
	mov	DWORD PTR _this$[ebp], ecx

; 1029 : 	COMM_FILE_INFO	*commHdrInfo;
; 1030 : //	char			*dcommPtr;
; 1031 : 	
; 1032 : //	dcommPtr = commData;
; 1033 : 	
; 1034 : 	//get pointer to message data for the requested message
; 1035 : 	if(*mesgID < 1)

	mov	eax, DWORD PTR _mesgID$[ebp]
	cmp	DWORD PTR [eax], 1
	jge	SHORT $LN22@GetBullsey

; 1036 : 		*mesgID = 1;

	mov	ecx, DWORD PTR _mesgID$[ebp]
	mov	DWORD PTR [ecx], 1
	jmp	SHORT $LN20@GetBullsey
$LN22@GetBullsey:

; 1037 : 	else if(*mesgID>= commfile.MaxComms()) // JPO dynamic

	mov	ecx, DWORD PTR _this$[ebp]
	call	?MaxComms@CommFile@@QAEHXZ		; CommFile::MaxComms
	mov	edx, DWORD PTR _mesgID$[ebp]
	cmp	DWORD PTR [edx], eax
	jl	SHORT $LN20@GetBullsey

; 1038 : 		*mesgID = 1;

	mov	eax, DWORD PTR _mesgID$[ebp]
	mov	DWORD PTR [eax], 1
$LN20@GetBullsey:

; 1039 : 	
; 1040 : //	dcommPtr += ( *mesgID ) * sizeof(COMM_FILE_INFO);
; 1041 : 	
; 1042 : //	commHdrInfo = (COMM_FILE_INFO *)dcommPtr;
; 1043 : 	commHdrInfo = commfile.GetComm(*mesgID);

	mov	ecx, DWORD PTR _mesgID$[ebp]
	mov	edx, DWORD PTR [ecx]
	push	edx
	mov	ecx, DWORD PTR _this$[ebp]
	call	?GetComm@CommFile@@QAEPAUCOMM_FILE_INFO@@H@Z ; CommFile::GetComm
	mov	DWORD PTR _commHdrInfo$[ebp], eax

; 1044 : 
; 1045 : 	if (!commHdrInfo || F4IsBadReadPtr(commHdrInfo, sizeof(COMM_FILE_INFO))) // JB 010331 CTD

	cmp	DWORD PTR _commHdrInfo$[ebp], 0
	je	SHORT $LN18@GetBullsey
	push	14					; 0000000eH
	mov	eax, DWORD PTR _commHdrInfo$[ebp]
	push	eax
	call	?F4IsBadReadPtr@@YA_NPBXI@Z		; F4IsBadReadPtr
	add	esp, 8
	movzx	ecx, al
	test	ecx, ecx
	je	SHORT $LN19@GetBullsey
$LN18@GetBullsey:

; 1046 : 		return FALSE;

	xor	eax, eax
	jmp	$LN23@GetBullsey
$LN19@GetBullsey:

; 1047 : 
; 1048 : 	float dist = 0;

	movss	xmm0, DWORD PTR __real@00000000
	movss	DWORD PTR _dist$[ebp], xmm0

; 1049 : 	if (commHdrInfo->positionElement > -1)

	mov	edx, DWORD PTR _commHdrInfo$[ebp]
	movsx	eax, BYTE PTR [edx+5]
	cmp	eax, -1
	jle	$LN1@GetBullsey

; 1050 : 	{
; 1051 : 		GridIndex		x1,y1,x2,y2;
; 1052 : 		float			theta, xs1, ys1, xs2, ys2;
; 1053 : 		x1 = data[commHdrInfo->positionElement];

	mov	ecx, DWORD PTR _commHdrInfo$[ebp]
	movsx	edx, BYTE PTR [ecx+5]
	mov	eax, DWORD PTR _data$[ebp]
	mov	cx, WORD PTR [eax+edx*2]
	mov	WORD PTR _x1$6[ebp], cx

; 1054 : 		y1 = data[commHdrInfo->positionElement+1];

	mov	edx, DWORD PTR _commHdrInfo$[ebp]
	movsx	eax, BYTE PTR [edx+5]
	mov	ecx, DWORD PTR _data$[ebp]
	mov	dx, WORD PTR [ecx+eax*2+2]
	mov	WORD PTR _y1$7[ebp], dx

; 1055 : 		
; 1056 : 		if(SimDriver.InSim())

	mov	ecx, OFFSET ?SimDriver@@3VSimulationDriver@@A ; SimDriver
	call	?InSim@SimulationDriver@@QBE_NXZ	; SimulationDriver::InSim
	movzx	eax, al
	test	eax, eax
	je	$LN11@GetBullsey

; 1057 : 		{
; 1058 : 			ys1 = GridToSim(x1);

	movzx	ecx, WORD PTR _x1$6[ebp]
	push	ecx
	call	?GridToSim@@YAMF@Z			; GridToSim
	add	esp, 4
	fstp	DWORD PTR _ys1$2[ebp]

; 1059 : 			xs1 = GridToSim(y1);

	movzx	edx, WORD PTR _y1$7[ebp]
	push	edx
	call	?GridToSim@@YAMF@Z			; GridToSim
	add	esp, 4
	fstp	DWORD PTR _xs1$1[ebp]

; 1060 : 
; 1061 : 			if (FalconLocalSession->GetPlayerEntity())

	mov	ecx, OFFSET ?vuLocalSessionEntity@@3V?$VuBin@VVuSessionEntity@@@@A ; vuLocalSessionEntity
	call	?get@?$VuBin@VVuSessionEntity@@@@QBEPAVVuSessionEntity@@XZ ; VuBin<VuSessionEntity>::get
	mov	ecx, eax
	call	?GetPlayerEntity@FalconSessionEntity@@QBEPAVFalconEntity@@XZ ; FalconSessionEntity::GetPlayerEntity
	test	eax, eax
	je	SHORT $LN15@GetBullsey

; 1062 : 			{
; 1063 : 				xs2 = FalconLocalSession->GetPlayerEntity()->XPos();

	mov	ecx, OFFSET ?vuLocalSessionEntity@@3V?$VuBin@VVuSessionEntity@@@@A ; vuLocalSessionEntity
	call	?get@?$VuBin@VVuSessionEntity@@@@QBEPAVVuSessionEntity@@XZ ; VuBin<VuSessionEntity>::get
	mov	ecx, eax
	call	?GetPlayerEntity@FalconSessionEntity@@QBEPAVFalconEntity@@XZ ; FalconSessionEntity::GetPlayerEntity
	mov	ecx, eax
	call	?XPos@VuEntity@@QBEMXZ			; VuEntity::XPos
	fstp	DWORD PTR _xs2$4[ebp]

; 1064 : 				ys2 = FalconLocalSession->GetPlayerEntity()->YPos();

	mov	ecx, OFFSET ?vuLocalSessionEntity@@3V?$VuBin@VVuSessionEntity@@@@A ; vuLocalSessionEntity
	call	?get@?$VuBin@VVuSessionEntity@@@@QBEPAVVuSessionEntity@@XZ ; VuBin<VuSessionEntity>::get
	mov	ecx, eax
	call	?GetPlayerEntity@FalconSessionEntity@@QBEPAVFalconEntity@@XZ ; FalconSessionEntity::GetPlayerEntity
	mov	ecx, eax
	call	?YPos@VuEntity@@QBEMXZ			; VuEntity::YPos
	fstp	DWORD PTR _ys2$5[ebp]
	jmp	$LN12@GetBullsey
$LN15@GetBullsey:

; 1065 : 			}
; 1066 : 			else if(FalconLocalSession->GetPlayerFlight())

	mov	ecx, OFFSET ?vuLocalSessionEntity@@3V?$VuBin@VVuSessionEntity@@@@A ; vuLocalSessionEntity
	call	?get@?$VuBin@VVuSessionEntity@@@@QBEPAVVuSessionEntity@@XZ ; VuBin<VuSessionEntity>::get
	mov	ecx, eax
	call	?GetPlayerFlight@FalconSessionEntity@@QBEPAVFlightClass@@XZ ; FalconSessionEntity::GetPlayerFlight
	test	eax, eax
	je	SHORT $LN13@GetBullsey

; 1067 : 			{
; 1068 : 				xs2 = FalconLocalSession->GetPlayerFlight()->XPos();

	mov	ecx, OFFSET ?vuLocalSessionEntity@@3V?$VuBin@VVuSessionEntity@@@@A ; vuLocalSessionEntity
	call	?get@?$VuBin@VVuSessionEntity@@@@QBEPAVVuSessionEntity@@XZ ; VuBin<VuSessionEntity>::get
	mov	ecx, eax
	call	?GetPlayerFlight@FalconSessionEntity@@QBEPAVFlightClass@@XZ ; FalconSessionEntity::GetPlayerFlight
	mov	ecx, eax
	call	?XPos@VuEntity@@QBEMXZ			; VuEntity::XPos
	fstp	DWORD PTR _xs2$4[ebp]

; 1069 : 				ys2 = FalconLocalSession->GetPlayerFlight()->YPos();

	mov	ecx, OFFSET ?vuLocalSessionEntity@@3V?$VuBin@VVuSessionEntity@@@@A ; vuLocalSessionEntity
	call	?get@?$VuBin@VVuSessionEntity@@@@QBEPAVVuSessionEntity@@XZ ; VuBin<VuSessionEntity>::get
	mov	ecx, eax
	call	?GetPlayerFlight@FalconSessionEntity@@QBEPAVFlightClass@@XZ ; FalconSessionEntity::GetPlayerFlight
	mov	ecx, eax
	call	?YPos@VuEntity@@QBEMXZ			; VuEntity::YPos
	fstp	DWORD PTR _ys2$5[ebp]

; 1070 : 			}
; 1071 : 			else

	jmp	SHORT $LN12@GetBullsey
$LN13@GetBullsey:

; 1072 : 			{
; 1073 : 				xs2 = FalconLocalSession->GetPlayerSquadron()->XPos();

	mov	ecx, OFFSET ?vuLocalSessionEntity@@3V?$VuBin@VVuSessionEntity@@@@A ; vuLocalSessionEntity
	call	?get@?$VuBin@VVuSessionEntity@@@@QBEPAVVuSessionEntity@@XZ ; VuBin<VuSessionEntity>::get
	mov	ecx, eax
	call	?GetPlayerSquadron@FalconSessionEntity@@QBEPAVSquadronClass@@XZ ; FalconSessionEntity::GetPlayerSquadron
	mov	ecx, eax
	call	?XPos@VuEntity@@QBEMXZ			; VuEntity::XPos
	fstp	DWORD PTR _xs2$4[ebp]

; 1074 : 				ys2 = FalconLocalSession->GetPlayerSquadron()->YPos();

	mov	ecx, OFFSET ?vuLocalSessionEntity@@3V?$VuBin@VVuSessionEntity@@@@A ; vuLocalSessionEntity
	call	?get@?$VuBin@VVuSessionEntity@@@@QBEPAVVuSessionEntity@@XZ ; VuBin<VuSessionEntity>::get
	mov	ecx, eax
	call	?GetPlayerSquadron@FalconSessionEntity@@QBEPAVSquadronClass@@XZ ; FalconSessionEntity::GetPlayerSquadron
	mov	ecx, eax
	call	?YPos@VuEntity@@QBEMXZ			; VuEntity::YPos
	fstp	DWORD PTR _ys2$5[ebp]
$LN12@GetBullsey:

; 1075 : 			}
; 1076 : 
; 1077 : 			if (PlayerOptions.BullseyeOn())

	mov	ecx, OFFSET ?PlayerOptions@@3VPlayerOptionsClass@@A ; PlayerOptions
	call	?BullseyeOn@PlayerOptionsClass@@QAEHXZ	; PlayerOptionsClass::BullseyeOn
	test	eax, eax
	je	SHORT $LN11@GetBullsey

; 1078 : 				dist = abs(Distance(xs1, ys1, xs2, ys2));

	push	ecx
	movss	xmm0, DWORD PTR _ys2$5[ebp]
	movss	DWORD PTR [esp], xmm0
	push	ecx
	movss	xmm0, DWORD PTR _xs2$4[ebp]
	movss	DWORD PTR [esp], xmm0
	push	ecx
	movss	xmm0, DWORD PTR _ys1$2[ebp]
	movss	DWORD PTR [esp], xmm0
	push	ecx
	movss	xmm0, DWORD PTR _xs1$1[ebp]
	movss	DWORD PTR [esp], xmm0
	call	?Distance@@YAMMMMM@Z			; Distance
	add	esp, 12					; 0000000cH
	fstp	DWORD PTR [esp]
	call	?abs@@YAMM@Z				; abs
	add	esp, 4
	fstp	DWORD PTR _dist$[ebp]
$LN11@GetBullsey:

; 1079 : 		}
; 1080 : 
; 1081 : 		if( ((commHdrInfo->bullseye > -1) && PlayerOptions.BullseyeOn() 
; 1082 : 			&& dist * FT_TO_NM > 25 // JB 010121 if the dist is less than 25 miles don't use a bullseye call
; 1083 : 			) || !SimDriver.InSim() ||
; 1084 :       (commHdrInfo->bullseye == *mesgID))

	mov	eax, DWORD PTR _commHdrInfo$[ebp]
	movsx	ecx, WORD PTR [eax+6]
	cmp	ecx, -1
	jle	SHORT $LN8@GetBullsey
	mov	ecx, OFFSET ?PlayerOptions@@3VPlayerOptionsClass@@A ; PlayerOptions
	call	?BullseyeOn@PlayerOptionsClass@@QAEHXZ	; PlayerOptionsClass::BullseyeOn
	test	eax, eax
	je	SHORT $LN8@GetBullsey
	movss	xmm0, DWORD PTR _dist$[ebp]
	mulss	xmm0, DWORD PTR __real@392c987a
	comiss	xmm0, DWORD PTR __real@41c80000
	ja	SHORT $LN9@GetBullsey
$LN8@GetBullsey:
	mov	ecx, OFFSET ?SimDriver@@3VSimulationDriver@@A ; SimDriver
	call	?InSim@SimulationDriver@@QBE_NXZ	; SimulationDriver::InSim
	movzx	edx, al
	test	edx, edx
	je	SHORT $LN9@GetBullsey
	mov	eax, DWORD PTR _commHdrInfo$[ebp]
	movsx	ecx, WORD PTR [eax+6]
	mov	edx, DWORD PTR _mesgID$[ebp]
	cmp	ecx, DWORD PTR [edx]
	jne	$LN10@GetBullsey
$LN9@GetBullsey:

; 1085 : 		{
; 1086 : 			TheCampaign.GetBullseyeLocation (&x2, &y2);

	lea	eax, DWORD PTR _y2$9[ebp]
	push	eax
	lea	ecx, DWORD PTR _x2$8[ebp]
	push	ecx
	mov	ecx, OFFSET ?TheCampaign@@3VCampaignClass@@A ; TheCampaign
	call	?GetBullseyeLocation@CampaignClass@@QAEXPAF0@Z ; CampaignClass::GetBullseyeLocation

; 1087 : 			theta = (float)atan2( (double)(x1 - x2), (double)(y1 - y2) );

	movsx	edx, WORD PTR _y1$7[ebp]
	movsx	eax, WORD PTR _y2$9[ebp]
	sub	edx, eax
	cvtsi2sd xmm0, edx
	sub	esp, 8
	movsd	QWORD PTR [esp], xmm0
	movsx	ecx, WORD PTR _x1$6[ebp]
	movsx	edx, WORD PTR _x2$8[ebp]
	sub	ecx, edx
	cvtsi2sd xmm0, ecx
	sub	esp, 8
	movsd	QWORD PTR [esp], xmm0
	call	?checked_atan2@@YANNN@Z			; checked_atan2
	add	esp, 16					; 00000010H
	fstp	DWORD PTR _theta$3[ebp]

; 1088 : 			data[commHdrInfo->positionElement] = (short)FloatToInt32(theta * RTD);

	movss	xmm0, DWORD PTR _theta$3[ebp]
	mulss	xmm0, DWORD PTR __real@42652ee1
	push	ecx
	movss	DWORD PTR [esp], xmm0
	call	?FloatToInt32@@YAHM@Z			; FloatToInt32
	add	esp, 4
	mov	ecx, DWORD PTR _commHdrInfo$[ebp]
	movsx	edx, BYTE PTR [ecx+5]
	mov	ecx, DWORD PTR _data$[ebp]
	mov	WORD PTR [ecx+edx*2], ax

; 1089 : 			data[commHdrInfo->positionElement+1] = (short)FloatToInt32(Distance(x1,y1,x2,y2));

	movzx	edx, WORD PTR _y2$9[ebp]
	push	edx
	movzx	eax, WORD PTR _x2$8[ebp]
	push	eax
	movzx	ecx, WORD PTR _y1$7[ebp]
	push	ecx
	movzx	edx, WORD PTR _x1$6[ebp]
	push	edx
	call	?Distance@@YAMFFFF@Z			; Distance
	add	esp, 12					; 0000000cH
	fstp	DWORD PTR [esp]
	call	?FloatToInt32@@YAHM@Z			; FloatToInt32
	add	esp, 4
	mov	ecx, DWORD PTR _commHdrInfo$[ebp]
	movsx	edx, BYTE PTR [ecx+5]
	mov	ecx, DWORD PTR _data$[ebp]
	mov	WORD PTR [ecx+edx*2+2], ax

; 1090 : 			*mesgID = commHdrInfo->bullseye;

	mov	edx, DWORD PTR _commHdrInfo$[ebp]
	movsx	eax, WORD PTR [edx+6]
	mov	ecx, DWORD PTR _mesgID$[ebp]
	mov	DWORD PTR [ecx], eax

; 1091 : 		}
; 1092 : 		else

	jmp	$LN7@GetBullsey
$LN10@GetBullsey:

; 1093 : 		{
; 1094 : 			if(FalconLocalSession->GetPlayerEntity())

	mov	ecx, OFFSET ?vuLocalSessionEntity@@3V?$VuBin@VVuSessionEntity@@@@A ; vuLocalSessionEntity
	call	?get@?$VuBin@VVuSessionEntity@@@@QBEPAVVuSessionEntity@@XZ ; VuBin<VuSessionEntity>::get
	mov	ecx, eax
	call	?GetPlayerEntity@FalconSessionEntity@@QBEPAVFalconEntity@@XZ ; FalconSessionEntity::GetPlayerEntity
	test	eax, eax
	je	SHORT $LN6@GetBullsey

; 1095 : 			{
; 1096 : 				y2 = SimToGrid(FalconLocalSession->GetPlayerEntity()->XPos());

	mov	ecx, OFFSET ?vuLocalSessionEntity@@3V?$VuBin@VVuSessionEntity@@@@A ; vuLocalSessionEntity
	call	?get@?$VuBin@VVuSessionEntity@@@@QBEPAVVuSessionEntity@@XZ ; VuBin<VuSessionEntity>::get
	mov	ecx, eax
	call	?GetPlayerEntity@FalconSessionEntity@@QBEPAVFalconEntity@@XZ ; FalconSessionEntity::GetPlayerEntity
	mov	ecx, eax
	call	?XPos@VuEntity@@QBEMXZ			; VuEntity::XPos
	push	ecx
	fstp	DWORD PTR [esp]
	call	?SimToGrid@@YAFM@Z			; SimToGrid
	add	esp, 4
	mov	WORD PTR _y2$9[ebp], ax

; 1097 : 				x2 = SimToGrid(FalconLocalSession->GetPlayerEntity()->YPos());

	mov	ecx, OFFSET ?vuLocalSessionEntity@@3V?$VuBin@VVuSessionEntity@@@@A ; vuLocalSessionEntity
	call	?get@?$VuBin@VVuSessionEntity@@@@QBEPAVVuSessionEntity@@XZ ; VuBin<VuSessionEntity>::get
	mov	ecx, eax
	call	?GetPlayerEntity@FalconSessionEntity@@QBEPAVFalconEntity@@XZ ; FalconSessionEntity::GetPlayerEntity
	mov	ecx, eax
	call	?YPos@VuEntity@@QBEMXZ			; VuEntity::YPos
	push	ecx
	fstp	DWORD PTR [esp]
	call	?SimToGrid@@YAFM@Z			; SimToGrid
	add	esp, 4
	mov	WORD PTR _x2$8[ebp], ax
	jmp	$LN3@GetBullsey
$LN6@GetBullsey:

; 1098 : 			}
; 1099 : 			else if(FalconLocalSession->GetPlayerFlight())

	mov	ecx, OFFSET ?vuLocalSessionEntity@@3V?$VuBin@VVuSessionEntity@@@@A ; vuLocalSessionEntity
	call	?get@?$VuBin@VVuSessionEntity@@@@QBEPAVVuSessionEntity@@XZ ; VuBin<VuSessionEntity>::get
	mov	ecx, eax
	call	?GetPlayerFlight@FalconSessionEntity@@QBEPAVFlightClass@@XZ ; FalconSessionEntity::GetPlayerFlight
	test	eax, eax
	je	SHORT $LN4@GetBullsey

; 1100 : 			{
; 1101 : 				y2 = SimToGrid(FalconLocalSession->GetPlayerFlight()->XPos());

	mov	ecx, OFFSET ?vuLocalSessionEntity@@3V?$VuBin@VVuSessionEntity@@@@A ; vuLocalSessionEntity
	call	?get@?$VuBin@VVuSessionEntity@@@@QBEPAVVuSessionEntity@@XZ ; VuBin<VuSessionEntity>::get
	mov	ecx, eax
	call	?GetPlayerFlight@FalconSessionEntity@@QBEPAVFlightClass@@XZ ; FalconSessionEntity::GetPlayerFlight
	mov	ecx, eax
	call	?XPos@VuEntity@@QBEMXZ			; VuEntity::XPos
	push	ecx
	fstp	DWORD PTR [esp]
	call	?SimToGrid@@YAFM@Z			; SimToGrid
	add	esp, 4
	mov	WORD PTR _y2$9[ebp], ax

; 1102 : 				x2 = SimToGrid(FalconLocalSession->GetPlayerFlight()->YPos());

	mov	ecx, OFFSET ?vuLocalSessionEntity@@3V?$VuBin@VVuSessionEntity@@@@A ; vuLocalSessionEntity
	call	?get@?$VuBin@VVuSessionEntity@@@@QBEPAVVuSessionEntity@@XZ ; VuBin<VuSessionEntity>::get
	mov	ecx, eax
	call	?GetPlayerFlight@FalconSessionEntity@@QBEPAVFlightClass@@XZ ; FalconSessionEntity::GetPlayerFlight
	mov	ecx, eax
	call	?YPos@VuEntity@@QBEMXZ			; VuEntity::YPos
	push	ecx
	fstp	DWORD PTR [esp]
	call	?SimToGrid@@YAFM@Z			; SimToGrid
	add	esp, 4
	mov	WORD PTR _x2$8[ebp], ax

; 1103 : 			}
; 1104 : 			else

	jmp	SHORT $LN3@GetBullsey
$LN4@GetBullsey:

; 1105 : 			{
; 1106 : 				y2 = SimToGrid(FalconLocalSession->GetPlayerSquadron()->XPos());

	mov	ecx, OFFSET ?vuLocalSessionEntity@@3V?$VuBin@VVuSessionEntity@@@@A ; vuLocalSessionEntity
	call	?get@?$VuBin@VVuSessionEntity@@@@QBEPAVVuSessionEntity@@XZ ; VuBin<VuSessionEntity>::get
	mov	ecx, eax
	call	?GetPlayerSquadron@FalconSessionEntity@@QBEPAVSquadronClass@@XZ ; FalconSessionEntity::GetPlayerSquadron
	mov	ecx, eax
	call	?XPos@VuEntity@@QBEMXZ			; VuEntity::XPos
	push	ecx
	fstp	DWORD PTR [esp]
	call	?SimToGrid@@YAFM@Z			; SimToGrid
	add	esp, 4
	mov	WORD PTR _y2$9[ebp], ax

; 1107 : 				x2 = SimToGrid(FalconLocalSession->GetPlayerSquadron()->YPos());

	mov	ecx, OFFSET ?vuLocalSessionEntity@@3V?$VuBin@VVuSessionEntity@@@@A ; vuLocalSessionEntity
	call	?get@?$VuBin@VVuSessionEntity@@@@QBEPAVVuSessionEntity@@XZ ; VuBin<VuSessionEntity>::get
	mov	ecx, eax
	call	?GetPlayerSquadron@FalconSessionEntity@@QBEPAVSquadronClass@@XZ ; FalconSessionEntity::GetPlayerSquadron
	mov	ecx, eax
	call	?YPos@VuEntity@@QBEMXZ			; VuEntity::YPos
	push	ecx
	fstp	DWORD PTR [esp]
	call	?SimToGrid@@YAFM@Z			; SimToGrid
	add	esp, 4
	mov	WORD PTR _x2$8[ebp], ax
$LN3@GetBullsey:

; 1108 : 			}
; 1109 : 			theta = (float)atan2 ( (double)(x1 - x2) , (double)(y1 - y2) );

	movsx	edx, WORD PTR _y1$7[ebp]
	movsx	eax, WORD PTR _y2$9[ebp]
	sub	edx, eax
	cvtsi2sd xmm0, edx
	sub	esp, 8
	movsd	QWORD PTR [esp], xmm0
	movsx	ecx, WORD PTR _x1$6[ebp]
	movsx	edx, WORD PTR _x2$8[ebp]
	sub	ecx, edx
	cvtsi2sd xmm0, ecx
	sub	esp, 8
	movsd	QWORD PTR [esp], xmm0
	call	?checked_atan2@@YANNN@Z			; checked_atan2
	add	esp, 16					; 00000010H
	fstp	DWORD PTR _theta$3[ebp]

; 1110 : 			data[commHdrInfo->positionElement] = (short)FloatToInt32(theta * RTD);

	movss	xmm0, DWORD PTR _theta$3[ebp]
	mulss	xmm0, DWORD PTR __real@42652ee1
	push	ecx
	movss	DWORD PTR [esp], xmm0
	call	?FloatToInt32@@YAHM@Z			; FloatToInt32
	add	esp, 4
	mov	ecx, DWORD PTR _commHdrInfo$[ebp]
	movsx	edx, BYTE PTR [ecx+5]
	mov	ecx, DWORD PTR _data$[ebp]
	mov	WORD PTR [ecx+edx*2], ax

; 1111 : 			data[commHdrInfo->positionElement+1] = (short)FloatToInt32(Distance(x1,y1,x2,y2));

	movzx	edx, WORD PTR _y2$9[ebp]
	push	edx
	movzx	eax, WORD PTR _x2$8[ebp]
	push	eax
	movzx	ecx, WORD PTR _y1$7[ebp]
	push	ecx
	movzx	edx, WORD PTR _x1$6[ebp]
	push	edx
	call	?Distance@@YAMFFFF@Z			; Distance
	add	esp, 12					; 0000000cH
	fstp	DWORD PTR [esp]
	call	?FloatToInt32@@YAHM@Z			; FloatToInt32
	add	esp, 4
	mov	ecx, DWORD PTR _commHdrInfo$[ebp]
	movsx	edx, BYTE PTR [ecx+5]
	mov	ecx, DWORD PTR _data$[ebp]
	mov	WORD PTR [ecx+edx*2+2], ax
$LN7@GetBullsey:

; 1112 : 		}
; 1113 : 		
; 1114 : 		if(SimDriver.InSim())

	mov	ecx, OFFSET ?SimDriver@@3VSimulationDriver@@A ; SimDriver
	call	?InSim@SimulationDriver@@QBE_NXZ	; SimulationDriver::InSim
	movzx	edx, al
	test	edx, edx
	je	SHORT $LN1@GetBullsey

; 1115 : 		{
; 1116 : /* JB 010121
; 1117 : 			ys1 = GridToSim(x1);
; 1118 : 			xs1 = GridToSim(y1);
; 1119 : 
; 1120 : 			if (FalconLocalSession->GetPlayerEntity())
; 1121 : 			{
; 1122 : 				ys2 = FalconLocalSession->GetPlayerEntity()->XPos();
; 1123 : 				xs2 = FalconLocalSession->GetPlayerEntity()->YPos();
; 1124 : 			}
; 1125 : 			else if(FalconLocalSession->GetPlayerFlight())
; 1126 : 			{
; 1127 : 				ys2 = FalconLocalSession->GetPlayerFlight()->XPos();
; 1128 : 				xs2 = FalconLocalSession->GetPlayerFlight()->YPos();
; 1129 : 			}
; 1130 : 			else
; 1131 : 			{
; 1132 : 				ys2 = FalconLocalSession->GetPlayerSquadron()->XPos();
; 1133 : 				xs2 = FalconLocalSession->GetPlayerSquadron()->YPos();
; 1134 : 			}
; 1135 : JB 010121 */
; 1136 : 			if (DistSqu(xs1,ys1,xs2,ys2) < RADIO_PROX_RANGE*RADIO_PROX_RANGE)

	push	ecx
	movss	xmm0, DWORD PTR _ys2$5[ebp]
	movss	DWORD PTR [esp], xmm0
	push	ecx
	movss	xmm0, DWORD PTR _xs2$4[ebp]
	movss	DWORD PTR [esp], xmm0
	push	ecx
	movss	xmm0, DWORD PTR _ys1$2[ebp]
	movss	DWORD PTR [esp], xmm0
	push	ecx
	movss	xmm0, DWORD PTR _xs1$1[ebp]
	movss	DWORD PTR [esp], xmm0
	call	?DistSqu@@YAMMMMM@Z			; DistSqu
	add	esp, 16					; 00000010H
	fstp	DWORD PTR tv647[ebp]
	movss	xmm0, DWORD PTR ?RADIO_PROX_RANGE@@3MA
	mulss	xmm0, DWORD PTR ?RADIO_PROX_RANGE@@3MA
	comiss	xmm0, DWORD PTR tv647[ebp]
	jbe	SHORT $LN1@GetBullsey

; 1137 : 			{
; 1138 : 				return TRUE;

	mov	eax, 1
	jmp	SHORT $LN23@GetBullsey
$LN1@GetBullsey:

; 1139 : 			}
; 1140 : 		}
; 1141 : 	}
; 1142 : 	return FALSE;

	xor	eax, eax
$LN23@GetBullsey:

; 1143 : }

	mov	esp, ebp
	pop	ebp
	ret	8
?GetBullseyeComm@VoiceFilter@@QAEHPAHPAF@Z ENDP		; VoiceFilter::GetBullseyeComm
_TEXT	ENDS
; Function compile flags: /Odtp
; File c:\users\zhitao li\documents\visual studio 2012\projects\freefalcon\falcsnd\voicefilter.cpp
_TEXT	SEGMENT
_ATCId$1 = -32						; size = 8
_this$ = -24						; size = 4
$T2 = -20						; size = 4
tv70 = -16						; size = 4
_i$3 = -12						; size = 4
_retval$ = -8						; size = 2
_ret$ = -1						; size = 1
_radiofilter$ = 8					; size = 1
_from$ = 12						; size = 8
_to$ = 20						; size = 8
?CanUserHearThisMessage@VoiceFilter@@QAEDDVVU_ID@@0@Z PROC ; VoiceFilter::CanUserHearThisMessage
; _this$ = ecx

; 317  : {

	push	ebp
	mov	ebp, esp
	sub	esp, 32					; 00000020H
	mov	DWORD PTR _this$[ebp], ecx

; 318  : 	char retval[2] = { 0, 0 };

	mov	BYTE PTR _retval$[ebp], 0
	mov	BYTE PTR _retval$[ebp+1], 0

; 319  : 
; 320  : 	if (!VM)

	cmp	DWORD PTR ?VM@@3PAVVoiceManager@@A, 0	; VM
	jne	SHORT $LN32@CanUserHea

; 321  : 		return false;

	xor	al, al
	jmp	$LN34@CanUserHea
$LN32@CanUserHea:

; 322  : 
; 323  : 	for (int i = 0; i < 2; i++)

	mov	DWORD PTR _i$3[ebp], 0
	jmp	SHORT $LN31@CanUserHea
$LN30@CanUserHea:
	mov	eax, DWORD PTR _i$3[ebp]
	add	eax, 1
	mov	DWORD PTR _i$3[ebp], eax
$LN31@CanUserHea:
	cmp	DWORD PTR _i$3[ebp], 2
	jge	$LN29@CanUserHea

; 324  : 	{
; 325  : 		switch(VM->radiofilter[i])

	mov	ecx, DWORD PTR _i$3[ebp]
	mov	edx, DWORD PTR ?VM@@3PAVVoiceManager@@A	; VM
	mov	eax, DWORD PTR [edx+ecx*4+136]
	mov	DWORD PTR tv70[ebp], eax
	cmp	DWORD PTR tv70[ebp], 15			; 0000000fH
	ja	$LN27@CanUserHea
	mov	ecx, DWORD PTR tv70[ebp]
	movzx	edx, BYTE PTR $LN37@CanUserHea[ecx]
	jmp	DWORD PTR $LN38@CanUserHea[edx*4]
$LN26@CanUserHea:

; 326  : 		{
; 327  : 		case rcfOff:
; 328  : 			retval[i] = FALSE;

	mov	eax, DWORD PTR _i$3[ebp]
	mov	DWORD PTR $T2[ebp], eax
	cmp	DWORD PTR $T2[ebp], 2
	jae	SHORT $LN35@CanUserHea
	jmp	SHORT $LN36@CanUserHea
$LN35@CanUserHea:
	call	___report_rangecheckfailure
$LN36@CanUserHea:
	mov	ecx, DWORD PTR $T2[ebp]
	mov	BYTE PTR _retval$[ebp+ecx], 0

; 329  : 			break;

	jmp	$LN27@CanUserHea
$LN25@CanUserHea:

; 330  : 		case rcfFlight5:
; 331  : 		case rcfFlight1:
; 332  : 		case rcfFlight2:
; 333  : 		case rcfFlight3:
; 334  : 		case rcfFlight4:
; 335  : 			if(TOFROM_FLIGHT & radiofilter)

	movsx	edx, BYTE PTR _radiofilter$[ebp]
	and	edx, 1
	je	SHORT $LN24@CanUserHea

; 336  : 				retval[i] |= TOFROM_FLIGHT;

	mov	eax, DWORD PTR _i$3[ebp]
	movsx	ecx, BYTE PTR _retval$[ebp+eax]
	or	ecx, 1
	mov	edx, DWORD PTR _i$3[ebp]
	mov	BYTE PTR _retval$[ebp+edx], cl
$LN24@CanUserHea:

; 337  : 			break;

	jmp	$LN27@CanUserHea
$LN23@CanUserHea:

; 338  : 		case rcfPackage5:
; 339  : 		case rcfPackage1:
; 340  : 		case rcfPackage2:
; 341  : 		case rcfPackage3:
; 342  : 		case rcfPackage4:
; 343  : 			if( (TO_PACKAGE & radiofilter) || (radiofilter & TOFROM_FLIGHT) )

	movsx	eax, BYTE PTR _radiofilter$[ebp]
	and	eax, 2
	jne	SHORT $LN21@CanUserHea
	movsx	ecx, BYTE PTR _radiofilter$[ebp]
	and	ecx, 1
	je	SHORT $LN22@CanUserHea
$LN21@CanUserHea:

; 344  : 			{
; 345  : 				retval[i] |= TO_PACKAGE;

	mov	edx, DWORD PTR _i$3[ebp]
	movsx	eax, BYTE PTR _retval$[ebp+edx]
	or	eax, 2
	mov	ecx, DWORD PTR _i$3[ebp]
	mov	BYTE PTR _retval$[ebp+ecx], al
$LN22@CanUserHea:

; 346  : 			}	
; 347  : 			break;

	jmp	$LN27@CanUserHea
$LN20@CanUserHea:

; 348  : 		case rcfFromPackage:
; 349  : 			if( (TOFROM_PACKAGE & radiofilter) || (radiofilter & TOFROM_FLIGHT) )

	movsx	edx, BYTE PTR _radiofilter$[ebp]
	and	edx, 4
	jne	SHORT $LN18@CanUserHea
	movsx	eax, BYTE PTR _radiofilter$[ebp]
	and	eax, 1
	je	SHORT $LN19@CanUserHea
$LN18@CanUserHea:

; 350  : 				retval[i] |= TOFROM_PACKAGE;

	mov	ecx, DWORD PTR _i$3[ebp]
	movsx	edx, BYTE PTR _retval$[ebp+ecx]
	or	edx, 4
	mov	eax, DWORD PTR _i$3[ebp]
	mov	BYTE PTR _retval$[ebp+eax], dl
$LN19@CanUserHea:

; 351  : 			break;

	jmp	$LN27@CanUserHea
$LN17@CanUserHea:

; 352  : 		case rcfProx:
; 353  : 			if( (radiofilter & TOFROM_FLIGHT) || ( (IN_PROXIMITY & radiofilter) && ((radiofilter & TO_TEAM) || (TO_PACKAGE & radiofilter)) ) )

	movsx	ecx, BYTE PTR _radiofilter$[ebp]
	and	ecx, 1
	jne	SHORT $LN15@CanUserHea
	movsx	edx, BYTE PTR _radiofilter$[ebp]
	and	edx, 16					; 00000010H
	je	SHORT $LN16@CanUserHea
	movsx	eax, BYTE PTR _radiofilter$[ebp]
	and	eax, 8
	jne	SHORT $LN15@CanUserHea
	movsx	ecx, BYTE PTR _radiofilter$[ebp]
	and	ecx, 2
	je	SHORT $LN16@CanUserHea
$LN15@CanUserHea:

; 354  : 				retval[i] |= IN_PROXIMITY;

	mov	edx, DWORD PTR _i$3[ebp]
	movsx	eax, BYTE PTR _retval$[ebp+edx]
	or	eax, 16					; 00000010H
	mov	ecx, DWORD PTR _i$3[ebp]
	mov	BYTE PTR _retval$[ebp+ecx], al
$LN16@CanUserHea:

; 355  : 			break;

	jmp	$LN27@CanUserHea
$LN13@CanUserHea:

; 356  : 		case rcfTeam:
; 357  : 			if( (TO_TEAM & radiofilter) || (radiofilter & TOFROM_FLIGHT) || (TOFROM_PACKAGE & radiofilter))

	movsx	edx, BYTE PTR _radiofilter$[ebp]
	and	edx, 8
	jne	SHORT $LN11@CanUserHea
	movsx	eax, BYTE PTR _radiofilter$[ebp]
	and	eax, 1
	jne	SHORT $LN11@CanUserHea
	movsx	ecx, BYTE PTR _radiofilter$[ebp]
	and	ecx, 4
	je	SHORT $LN12@CanUserHea
$LN11@CanUserHea:

; 358  : 				retval[i] |= TO_TEAM;

	mov	edx, DWORD PTR _i$3[ebp]
	movsx	eax, BYTE PTR _retval$[ebp+edx]
	or	eax, 8
	mov	ecx, DWORD PTR _i$3[ebp]
	mov	BYTE PTR _retval$[ebp+ecx], al
$LN12@CanUserHea:

; 359  : 			break;

	jmp	$LN27@CanUserHea
$LN10@CanUserHea:

; 360  : 		case rcfAll:
; 361  : 			if( (TO_WORLD & radiofilter) || (radiofilter & TOFROM_FLIGHT) || (TOFROM_PACKAGE & radiofilter) || (TO_TEAM & radiofilter))

	movsx	edx, BYTE PTR _radiofilter$[ebp]
	and	edx, 32					; 00000020H
	jne	SHORT $LN8@CanUserHea
	movsx	eax, BYTE PTR _radiofilter$[ebp]
	and	eax, 1
	jne	SHORT $LN8@CanUserHea
	movsx	ecx, BYTE PTR _radiofilter$[ebp]
	and	ecx, 4
	jne	SHORT $LN8@CanUserHea
	movsx	edx, BYTE PTR _radiofilter$[ebp]
	and	edx, 8
	je	SHORT $LN9@CanUserHea
$LN8@CanUserHea:

; 362  : 				retval[i] |= TO_WORLD;

	mov	eax, DWORD PTR _i$3[ebp]
	movsx	ecx, BYTE PTR _retval$[ebp+eax]
	or	ecx, 32					; 00000020H
	mov	edx, DWORD PTR _i$3[ebp]
	mov	BYTE PTR _retval$[ebp+edx], cl
$LN9@CanUserHea:

; 363  : 			break;

	jmp	SHORT $LN27@CanUserHea
$LN7@CanUserHea:

; 364  : 		case rcfTower:
; 365  : 			if(radiofilter & TOFROM_FLIGHT)

	movsx	eax, BYTE PTR _radiofilter$[ebp]
	and	eax, 1
	je	SHORT $LN6@CanUserHea

; 366  : 				retval[i] |= TOFROM_FLIGHT;

	mov	ecx, DWORD PTR _i$3[ebp]
	movsx	edx, BYTE PTR _retval$[ebp+ecx]
	or	edx, 1
	mov	eax, DWORD PTR _i$3[ebp]
	mov	BYTE PTR _retval$[ebp+eax], dl
	jmp	SHORT $LN27@CanUserHea
$LN6@CanUserHea:

; 367  : 			else if( (TOFROM_TOWER & radiofilter) && gNavigationSys)

	movsx	ecx, BYTE PTR _radiofilter$[ebp]
	and	ecx, 64					; 00000040H
	je	SHORT $LN27@CanUserHea
	cmp	DWORD PTR ?gNavigationSys@@3PAVNavigationSystem@@A, 0 ; gNavigationSys
	je	SHORT $LN27@CanUserHea

; 368  : 			{
; 369  : 				VU_ID	ATCId;

	lea	ecx, DWORD PTR _ATCId$1[ebp]
	call	??0VU_ID@@QAE@XZ			; VU_ID::VU_ID

; 370  : 				gNavigationSys->GetAirbase(&ATCId);

	lea	edx, DWORD PTR _ATCId$1[ebp]
	push	edx
	mov	ecx, DWORD PTR ?gNavigationSys@@3PAVNavigationSystem@@A ; gNavigationSys
	call	?GetAirbase@NavigationSystem@@QAEXPAVVU_ID@@@Z ; NavigationSystem::GetAirbase

; 371  : 				
; 372  : 				if(ATCId == from || ATCId == to)

	lea	eax, DWORD PTR _from$[ebp]
	push	eax
	lea	ecx, DWORD PTR _ATCId$1[ebp]
	call	??8VU_ID@@QBE_NABV0@@Z			; VU_ID::operator==
	movzx	ecx, al
	test	ecx, ecx
	jne	SHORT $LN2@CanUserHea
	lea	edx, DWORD PTR _to$[ebp]
	push	edx
	lea	ecx, DWORD PTR _ATCId$1[ebp]
	call	??8VU_ID@@QBE_NABV0@@Z			; VU_ID::operator==
	movzx	eax, al
	test	eax, eax
	je	SHORT $LN27@CanUserHea
$LN2@CanUserHea:

; 373  : 					retval[i] |= TOFROM_TOWER;

	mov	ecx, DWORD PTR _i$3[ebp]
	movsx	edx, BYTE PTR _retval$[ebp+ecx]
	or	edx, 64					; 00000040H
	mov	eax, DWORD PTR _i$3[ebp]
	mov	BYTE PTR _retval$[ebp+eax], dl
$LN27@CanUserHea:

; 374  : 			}
; 375  : 				default:
; 376  : 			break;
; 377  : 		}
; 378  : 	}

	jmp	$LN30@CanUserHea
$LN29@CanUserHea:

; 379  : 
; 380  : 	char ret = (retval[0] | retval[1]);

	mov	ecx, 1
	imul	ecx, 0
	movsx	edx, BYTE PTR _retval$[ebp+ecx]
	mov	eax, 1
	shl	eax, 0
	movsx	ecx, BYTE PTR _retval$[ebp+eax]
	or	edx, ecx
	mov	BYTE PTR _ret$[ebp], dl

; 381  : 
; 382  : 	return ret;

	mov	al, BYTE PTR _ret$[ebp]
$LN34@CanUserHea:

; 383  : }

	mov	esp, ebp
	pop	ebp
	ret	20					; 00000014H
	npad	3
$LN38@CanUserHea:
	DD	$LN26@CanUserHea
	DD	$LN25@CanUserHea
	DD	$LN23@CanUserHea
	DD	$LN20@CanUserHea
	DD	$LN17@CanUserHea
	DD	$LN13@CanUserHea
	DD	$LN10@CanUserHea
	DD	$LN7@CanUserHea
$LN37@CanUserHea:
	DB	0
	DB	1
	DB	1
	DB	1
	DB	1
	DB	1
	DB	2
	DB	2
	DB	2
	DB	2
	DB	2
	DB	3
	DB	4
	DB	5
	DB	6
	DB	7
?CanUserHearThisMessage@VoiceFilter@@QAEDDVVU_ID@@0@Z ENDP ; VoiceFilter::CanUserHearThisMessage
_TEXT	ENDS
; Function compile flags: /Odtp
; File c:\users\zhitao li\documents\visual studio 2012\projects\freefalcon\falcsnd\voicefilter.cpp
_TEXT	SEGMENT
_message$ = -104					; size = 40
$T1 = -64						; size = 4
_exit$2 = -60						; size = 4
_player$3 = -56						; size = 4
_pop$ = -52						; size = 4
_i$ = -48						; size = 4
tv238 = -44						; size = 4
_commHdrInfo$ = -40					; size = 4
_eval$ = -36						; size = 4
_pEntity$ = -32						; size = 4
_dfileNum$ = -28					; size = 4
_commInfo$ = -24					; size = 4
_this$ = -20						; size = 4
_evalHdrNumber$ = -16					; size = 2
_fragNumber$ = -12					; size = 2
_evalElement$ = -8					; size = 2
_newMessage$ = -2					; size = 1
_theChannel$4 = -1					; size = 1
_talker$ = 8						; size = 1
_msgid$ = 12						; size = 2
_data$ = 16						; size = 4
_playTime$ = 20						; size = 4
_radiofilter$ = 24					; size = 1
_channel$ = 28						; size = 1
_from$ = 32						; size = 8
_evalby$ = 40						; size = 4
_to$ = 44						; size = 8
?PlayRadioMessage@VoiceFilter@@QAEXDFPAFKDDVVU_ID@@H1@Z PROC ; VoiceFilter::PlayRadioMessage
; _this$ = ecx

; 403  : ){

	push	ebp
	mov	ebp, esp
	sub	esp, 104				; 00000068H
	push	esi
	mov	DWORD PTR _this$[ebp], ecx

; 404  : 	int				i;
; 405  : 	short			evalElement;
; 406  : 	short			fragNumber = 0, evalHdrNumber = 0;//, fileNumber;

	xor	eax, eax
	mov	WORD PTR _fragNumber$[ebp], ax
	xor	ecx, ecx
	mov	WORD PTR _evalHdrNumber$[ebp], cx

; 407  : 	COMM_FILE_INFO*	commHdrInfo;
; 408  : //	char			*dcommPtr;
; 409  : 	short			*commInfo;
; 410  : 	short			*dfileNum;
; 411  : 	CONVERSATION	message;

	lea	ecx, DWORD PTR _message$[ebp]
	call	??0CONVERSATION@@QAE@XZ

; 412  : 	int				eval = 0;

	mov	DWORD PTR _eval$[ebp], 0

; 413  : 	
; 414  : 	// sfr: placing back original code and removing JB fucking hack which is wrong BTW, since
; 415  : 	// player entity can be an eject class instead of aircraft class...
; 416  : 	SimMoverClass *pEntity = SimDriver.GetPlayerEntity();

	mov	ecx, OFFSET ?SimDriver@@3VSimulationDriver@@A ; SimDriver
	call	?GetPlayerEntity@SimulationDriver@@QBEPAVSimMoverClass@@XZ ; SimulationDriver::GetPlayerEntity
	mov	DWORD PTR _pEntity$[ebp], eax

; 417  : 	if ( 
; 418  : 		// sfr: JB code commented out
; 419  : 		(
; 420  : 			pEntity /*&& !F4IsBadReadPtr(SimDriver.GetPlayerEntity(), sizeof(AircraftClass))*/ &&
; 421  : 			pEntity->IsEject()
; 422  : 		) || 
; 423  : 		(
; 424  : 			VM /*&& !F4IsBadReadPtr(VM, sizeof(VoiceManager))*/ && 
; 425  : 			VM->falconVoices[channel].exitChannel
; 426  : 		) || 
; 427  : 		killThread 
; 428  : 	){ 

	cmp	DWORD PTR _pEntity$[ebp], 0
	je	SHORT $LN37@PlayRadioM
	mov	edx, DWORD PTR _pEntity$[ebp]
	mov	eax, DWORD PTR [edx]
	mov	ecx, DWORD PTR _pEntity$[ebp]
	mov	edx, DWORD PTR [eax+188]
	call	edx
	test	eax, eax
	jne	SHORT $LN38@PlayRadioM
$LN37@PlayRadioM:
	cmp	DWORD PTR ?VM@@3PAVVoiceManager@@A, 0	; VM
	je	SHORT $LN36@PlayRadioM
	movsx	eax, BYTE PTR _channel$[ebp]
	imul	eax, 88					; 00000058H
	mov	ecx, DWORD PTR ?VM@@3PAVVoiceManager@@A	; VM
	mov	edx, DWORD PTR [ecx+52]
	cmp	DWORD PTR [edx+eax+84], 0
	jne	SHORT $LN38@PlayRadioM
$LN36@PlayRadioM:
	cmp	DWORD PTR ?killThread@@3HA, 0		; killThread
	je	SHORT $LN39@PlayRadioM
$LN38@PlayRadioM:

; 429  : 		int player = 0, exit = 0;

	mov	DWORD PTR _player$3[ebp], 0
	mov	DWORD PTR _exit$2[ebp], 0

; 430  : 		if (pEntity && pEntity->IsEject()){

	cmp	DWORD PTR _pEntity$[ebp], 0
	je	SHORT $LN35@PlayRadioM
	mov	eax, DWORD PTR _pEntity$[ebp]
	mov	edx, DWORD PTR [eax]
	mov	ecx, DWORD PTR _pEntity$[ebp]
	mov	eax, DWORD PTR [edx+188]
	call	eax
	test	eax, eax
	je	SHORT $LN35@PlayRadioM

; 431  : 			player = 1;

	mov	DWORD PTR _player$3[ebp], 1
$LN35@PlayRadioM:

; 432  : 		}
; 433  : 
; 434  : 		if(VM && VM->falconVoices[channel].exitChannel){

	cmp	DWORD PTR ?VM@@3PAVVoiceManager@@A, 0	; VM
	je	SHORT $LN34@PlayRadioM
	movsx	ecx, BYTE PTR _channel$[ebp]
	imul	ecx, 88					; 00000058H
	mov	edx, DWORD PTR ?VM@@3PAVVoiceManager@@A	; VM
	mov	eax, DWORD PTR [edx+52]
	cmp	DWORD PTR [eax+ecx+84], 0
	je	SHORT $LN34@PlayRadioM

; 435  : 			exit = 1;

	mov	DWORD PTR _exit$2[ebp], 1
$LN34@PlayRadioM:

; 436  : 		}
; 437  : 		//MonoPrint(
; 438  : 		//	"Dumping Message: %d  Player: %d  ExitChan: %d KillThread: %d\n", msgid, player, exit, killThread
; 439  : 		//);
; 440  : 		return;

	jmp	$LN40@PlayRadioM
$LN39@PlayRadioM:

; 441  : 	}
; 442  : 	
; 443  : 	VM->RemoveDuplicateMessages(from, to, msgid);

	movsx	ecx, WORD PTR _msgid$[ebp]
	push	ecx
	mov	edx, DWORD PTR _to$[ebp+4]
	push	edx
	mov	eax, DWORD PTR _to$[ebp]
	push	eax
	mov	ecx, DWORD PTR _from$[ebp+4]
	push	ecx
	mov	edx, DWORD PTR _from$[ebp]
	push	edx
	mov	ecx, DWORD PTR ?VM@@3PAVVoiceManager@@A	; VM
	call	?RemoveDuplicateMessages@VoiceManager@@QAEXVVU_ID@@0H@Z ; VoiceManager::RemoveDuplicateMessages

; 444  : 
; 445  : 	//get pointer to message data for the requested message
; 446  : 	if (msgid < 0){

	movsx	eax, WORD PTR _msgid$[ebp]
	test	eax, eax
	jge	SHORT $LN33@PlayRadioM

; 447  : 		msgid = 0;

	xor	ecx, ecx
	mov	WORD PTR _msgid$[ebp], cx
	jmp	SHORT $LN32@PlayRadioM
$LN33@PlayRadioM:

; 448  : 	}
; 449  : 	else if (msgid>= commfile.MaxComms()){

	movsx	esi, WORD PTR _msgid$[ebp]
	mov	ecx, DWORD PTR _this$[ebp]
	call	?MaxComms@CommFile@@QAEHXZ		; CommFile::MaxComms
	cmp	esi, eax
	jl	SHORT $LN32@PlayRadioM

; 450  : 		// jpo dynamic calc
; 451  : 		msgid = 0;

	xor	edx, edx
	mov	WORD PTR _msgid$[ebp], dx
$LN32@PlayRadioM:

; 452  : 	}
; 453  : 	
; 454  : 	//dcommPtr = commData + ( msgid ) * sizeof(COMM_FILE_INFO);
; 455  : 	
; 456  : 	//commHdrInfo = (COMM_FILE_INFO *)dcommPtr;
; 457  : 	commHdrInfo = commfile.GetComm(msgid);

	movsx	eax, WORD PTR _msgid$[ebp]
	push	eax
	mov	ecx, DWORD PTR _this$[ebp]
	call	?GetComm@CommFile@@QAEPAUCOMM_FILE_INFO@@H@Z ; CommFile::GetComm
	mov	DWORD PTR _commHdrInfo$[ebp], eax

; 458  : 	ShiAssert(FALSE == F4IsBadReadPtr(commHdrInfo, sizeof *commHdrInfo));
; 459  : 	// use offset in  just aquired data to position pointer
; 460  : 	//dcommPtr = commData + commHdrInfo->commOffset;
; 461  : 	commInfo = commfile.GetCommInd(commHdrInfo);

	mov	ecx, DWORD PTR _commHdrInfo$[ebp]
	push	ecx
	mov	ecx, DWORD PTR _this$[ebp]
	call	?GetCommInd@CommFile@@QAEPAFPAUCOMM_FILE_INFO@@@Z ; CommFile::GetCommInd
	mov	DWORD PTR _commInfo$[ebp], eax

; 462  : 	ShiAssert(FALSE == F4IsBadReadPtr(commInfo, sizeof *commInfo * commHdrInfo->totalElements));
; 463  : 	// setup message structure with appropriate values
; 464  : 	message.message = msgid;

	mov	dx, WORD PTR _msgid$[ebp]
	mov	WORD PTR _message$[ebp], dx

; 465  : 	message.status = SLOT_IN_USE;

	mov	BYTE PTR _message$[ebp+2], 1

; 466  : 	ShiAssert(talker >= 0 && talker < fragfile.MaxVoices());
; 467  : 	if (talker < 0){

	movsx	eax, BYTE PTR _talker$[ebp]
	test	eax, eax
	jge	SHORT $LN30@PlayRadioM

; 468  : 		talker = 0;

	mov	BYTE PTR _talker$[ebp], 0
	jmp	SHORT $LN29@PlayRadioM
$LN30@PlayRadioM:

; 469  : 	}
; 470  : 	else if (talker >= fragfile.MaxVoices()){

	movsx	esi, BYTE PTR _talker$[ebp]
	mov	ecx, DWORD PTR _this$[ebp]
	add	ecx, 20					; 00000014H
	call	?MaxVoices@FragFile@@QAEHXZ		; FragFile::MaxVoices
	cmp	esi, eax
	jl	SHORT $LN29@PlayRadioM

; 471  : 		talker = 11;

	mov	BYTE PTR _talker$[ebp], 11		; 0000000bH
$LN29@PlayRadioM:

; 472  : 	}
; 473  : 		
; 474  : 	message.speaker = talker;

	mov	cl, BYTE PTR _talker$[ebp]
	mov	BYTE PTR _message$[ebp+5], cl

; 475  : 	message.channelIndex = channel;

	mov	dl, BYTE PTR _channel$[ebp]
	mov	BYTE PTR _message$[ebp+8], dl

; 476  : 	message.filter = radiofilter;

	mov	al, BYTE PTR _radiofilter$[ebp]
	mov	BYTE PTR _message$[ebp+32], al

; 477  : 	message.from = from;

	mov	ecx, DWORD PTR _from$[ebp]
	mov	DWORD PTR _message$[ebp+24], ecx
	mov	edx, DWORD PTR _from$[ebp+4]
	mov	DWORD PTR _message$[ebp+28], edx

; 478  : 	message.to = to;

	mov	eax, DWORD PTR _to$[ebp]
	mov	DWORD PTR _message$[ebp+16], eax
	mov	ecx, DWORD PTR _to$[ebp+4]
	mov	DWORD PTR _message$[ebp+20], ecx

; 479  : 	message.sizeofConv = (char)(commHdrInfo->totalElements + 2); //need two extra spaces for pops

	mov	edx, DWORD PTR _commHdrInfo$[ebp]
	movzx	eax, BYTE PTR [edx+8]
	add	eax, 2
	mov	BYTE PTR _message$[ebp+4], al

; 480  : 	message.interrupt = QUEUE_CONV;

	mov	BYTE PTR _message$[ebp+7], 1

; 481  : 	message.playTime = playTime;		//when the message should be played

	mov	ecx, DWORD PTR _playTime$[ebp]
	mov	DWORD PTR _message$[ebp+12], ecx

; 482  : 	message.priority = commHdrInfo->priority;

	mov	edx, DWORD PTR _commHdrInfo$[ebp]
	mov	al, BYTE PTR [edx+4]
	mov	BYTE PTR _message$[ebp+6], al

; 483  : 	message.convIndex = 0;

	mov	BYTE PTR _message$[ebp+3], 0

; 484  : 	
; 485  : 	//dfileNum = message.conversations = new short[commHdrInfo->totalElements];
; 486  : 	
; 487  :     #ifdef USE_SH_POOLS
; 488  : 	dfileNum = message.conversations = (short *)MemAllocPtr(
; 489  : 		gTextMemPool,  sizeof(short)*(message.sizeofConv), FALSE 
; 490  : 	);
; 491  : 	#else
; 492  : 	dfileNum = message.conversations = new short[message.sizeofConv];

	movsx	eax, BYTE PTR _message$[ebp+4]
	xor	ecx, ecx
	mov	edx, 2
	mul	edx
	seto	cl
	neg	ecx
	or	ecx, eax
	push	ecx
	call	??_U@YAPAXI@Z				; operator new[]
	add	esp, 4
	mov	DWORD PTR $T1[ebp], eax
	mov	eax, DWORD PTR $T1[ebp]
	mov	DWORD PTR _message$[ebp+36], eax
	mov	ecx, DWORD PTR _message$[ebp+36]
	mov	DWORD PTR _dfileNum$[ebp], ecx

; 493  : 	#endif
; 494  : 	
; 495  : 	if ( message.conversations == NULL ){

	cmp	DWORD PTR _message$[ebp+36], 0
	jne	SHORT $LN27@PlayRadioM

; 496  : 		return;

	jmp	$LN40@PlayRadioM
$LN27@PlayRadioM:

; 497  : 	}
; 498  : 	
; 499  : 	//add pop at beginning
; 500  : 	//int pop = rand() % NUM_VOICES;
; 501  : 	int pop = rand() % 12; //JPO - only 12 of these!

	call	_rand
	cdq
	mov	ecx, 12					; 0000000cH
	idiv	ecx
	mov	DWORD PTR _pop$[ebp], edx

; 502  : 	static const short RADIO_POP = 2142;
; 503  : 	*dfileNum = FragToFile( pop, RADIO_POP );

	push	2142					; 0000085eH
	mov	edx, DWORD PTR _pop$[ebp]
	push	edx
	mov	ecx, DWORD PTR _this$[ebp]
	call	?FragToFile@VoiceFilter@@QAEFHF@Z	; VoiceFilter::FragToFile
	mov	ecx, DWORD PTR _dfileNum$[ebp]
	mov	WORD PTR [ecx], ax

; 504  : 	dfileNum++;

	mov	edx, DWORD PTR _dfileNum$[ebp]
	add	edx, 2
	mov	DWORD PTR _dfileNum$[ebp], edx

; 505  : 
; 506  : 	bool newMessage = true;	// Retro 20Dec2003 for the RadioLabels

	mov	BYTE PTR _newMessage$[ebp], 1

; 507  : 	
; 508  : 	for ( i = 0; i < commHdrInfo->totalElements; i ++ ){

	mov	DWORD PTR _i$[ebp], 0
	jmp	SHORT $LN26@PlayRadioM
$LN25@PlayRadioM:
	mov	eax, DWORD PTR _i$[ebp]
	add	eax, 1
	mov	DWORD PTR _i$[ebp], eax
$LN26@PlayRadioM:
	mov	ecx, DWORD PTR _commHdrInfo$[ebp]
	movzx	edx, BYTE PTR [ecx+8]
	cmp	DWORD PTR _i$[ebp], edx
	jge	$LN24@PlayRadioM

; 509  : 		
; 510  : 		//fragNumber = *((short *)dcommPtr);
; 511  : 		fragNumber = *commInfo;

	mov	eax, DWORD PTR _commInfo$[ebp]
	mov	cx, WORD PTR [eax]
	mov	WORD PTR _fragNumber$[ebp], cx

; 512  : 		if (fragNumber < 0){

	movsx	edx, WORD PTR _fragNumber$[ebp]
	test	edx, edx
	jge	$LN23@PlayRadioM

; 513  : 			evalHdrNumber = fragNumber;

	mov	ax, WORD PTR _fragNumber$[ebp]
	mov	WORD PTR _evalHdrNumber$[ebp], ax

; 514  : 			evalHdrNumber *= -1;

	movsx	ecx, WORD PTR _evalHdrNumber$[ebp]
	imul	ecx, -1
	mov	WORD PTR _evalHdrNumber$[ebp], cx

; 515  : 			
; 516  : 			if (data){

	cmp	DWORD PTR _data$[ebp], 0
	je	SHORT $LN22@PlayRadioM

; 517  : 				evalElement = data[eval];

	mov	edx, DWORD PTR _eval$[ebp]
	mov	eax, DWORD PTR _data$[ebp]
	mov	cx, WORD PTR [eax+edx*2]
	mov	WORD PTR _evalElement$[ebp], cx

; 518  : 			}
; 519  : 			else {

	jmp	SHORT $LN21@PlayRadioM
$LN22@PlayRadioM:

; 520  : 				evalElement = 0;

	xor	edx, edx
	mov	WORD PTR _evalElement$[ebp], dx
$LN21@PlayRadioM:

; 521  : 			}
; 522  : 			
; 523  : 			if (evalby){

	cmp	DWORD PTR _evalby$[ebp], 0
	je	SHORT $LN20@PlayRadioM

; 524  : 				eval++;

	mov	eax, DWORD PTR _eval$[ebp]
	add	eax, 1
	mov	DWORD PTR _eval$[ebp], eax

; 525  : 				if (evalElement == -1){

	movsx	ecx, WORD PTR _evalElement$[ebp]
	cmp	ecx, -1
	jne	SHORT $LN19@PlayRadioM

; 526  : 					message.sizeofConv--;

	mov	dl, BYTE PTR _message$[ebp+4]
	sub	dl, 1
	mov	BYTE PTR _message$[ebp+4], dl

; 527  : 					commInfo ++;

	mov	eax, DWORD PTR _commInfo$[ebp]
	add	eax, 2
	mov	DWORD PTR _commInfo$[ebp], eax

; 528  : //					dcommPtr += sizeof( short );
; 529  : 					continue;

	jmp	$LN25@PlayRadioM
$LN19@PlayRadioM:

; 530  : 				}
; 531  : 				fragNumber = IndexElement( evalHdrNumber, evalElement );

	movzx	ecx, WORD PTR _evalElement$[ebp]
	push	ecx
	movzx	edx, WORD PTR _evalHdrNumber$[ebp]
	push	edx
	mov	ecx, DWORD PTR _this$[ebp]
	call	?IndexElement@VoiceFilter@@QAEFFF@Z	; VoiceFilter::IndexElement
	mov	WORD PTR _fragNumber$[ebp], ax

; 532  : 			}
; 533  : 			else {

	jmp	$LN23@PlayRadioM
$LN20@PlayRadioM:

; 534  : 				switch ( evalHdrNumber ){					

	movsx	eax, WORD PTR _evalHdrNumber$[ebp]
	mov	DWORD PTR tv238[ebp], eax
	mov	ecx, DWORD PTR tv238[ebp]
	sub	ecx, 8
	mov	DWORD PTR tv238[ebp], ecx
	cmp	DWORD PTR tv238[ebp], 89		; 00000059H
	ja	$LN16@PlayRadioM
	mov	edx, DWORD PTR tv238[ebp]
	movzx	eax, BYTE PTR $LN42@PlayRadioM[edx]
	jmp	DWORD PTR $LN43@PlayRadioM[eax*4]
$LN15@PlayRadioM:

; 535  : 				case eBEARING:
; 536  : 				case eBEARINGLAST:
; 537  : 					evalElement = DegreesToElement( evalElement );

	movsx	ecx, WORD PTR _evalElement$[ebp]
	push	ecx
	mov	ecx, DWORD PTR _this$[ebp]
	call	?DegreesToElement@VoiceFilter@@AAEFH@Z	; VoiceFilter::DegreesToElement
	mov	WORD PTR _evalElement$[ebp], ax

; 538  : 					break;

	jmp	SHORT $LN16@PlayRadioM
$LN14@PlayRadioM:

; 539  : 				case eANGELS:
; 540  : 					evalElement = FeetToAngel( evalElement );

	movsx	edx, WORD PTR _evalElement$[ebp]
	push	edx
	mov	ecx, DWORD PTR _this$[ebp]
	call	?FeetToAngel@VoiceFilter@@AAEFH@Z	; VoiceFilter::FeetToAngel
	mov	WORD PTR _evalElement$[ebp], ax

; 541  : 					break;

	jmp	SHORT $LN16@PlayRadioM
$LN13@PlayRadioM:

; 542  : 				case eTHOUSANDS:
; 543  : 					evalElement = FeetToThousands( evalElement );

	movsx	eax, WORD PTR _evalElement$[ebp]
	push	eax
	mov	ecx, DWORD PTR _this$[ebp]
	call	?FeetToThousands@VoiceFilter@@AAEFH@Z	; VoiceFilter::FeetToThousands
	mov	WORD PTR _evalElement$[ebp], ax

; 544  : 					break;

	jmp	SHORT $LN16@PlayRadioM
$LN12@PlayRadioM:

; 545  : 				case eFLIGHTSIZE:
; 546  : 					evalElement--;

	mov	cx, WORD PTR _evalElement$[ebp]
	sub	cx, 1
	mov	WORD PTR _evalElement$[ebp], cx

; 547  : 					break;

	jmp	SHORT $LN16@PlayRadioM
$LN11@PlayRadioM:

; 548  : 				case eMAINTAINAIRSPEED:
; 549  : 					evalElement = KnotsToElement( evalElement );

	movsx	edx, WORD PTR _evalElement$[ebp]
	push	edx
	mov	ecx, DWORD PTR _this$[ebp]
	call	?KnotsToElement@VoiceFilter@@AAEFH@Z	; VoiceFilter::KnotsToElement
	mov	WORD PTR _evalElement$[ebp], ax

; 550  : 					break;

	jmp	SHORT $LN16@PlayRadioM
$LN10@PlayRadioM:

; 551  : 				case eREDUCEAIRSPEED:
; 552  : 				case eINCREASEAIRSPEED:
; 553  : 					evalElement = KnotsToReduceIncreaseToElement( evalElement );

	movsx	eax, WORD PTR _evalElement$[ebp]
	push	eax
	mov	ecx, DWORD PTR _this$[ebp]
	call	?KnotsToReduceIncreaseToElement@VoiceFilter@@AAEFH@Z ; VoiceFilter::KnotsToReduceIncreaseToElement
	mov	WORD PTR _evalElement$[ebp], ax

; 554  : 					break;

	jmp	SHORT $LN16@PlayRadioM
$LN9@PlayRadioM:

; 555  : 				case eRANGE:
; 556  : 				case eRANGELAST:
; 557  : 					evalElement = KilometersToNauticalMiles( evalElement );

	movzx	ecx, WORD PTR _evalElement$[ebp]
	push	ecx
	mov	ecx, DWORD PTR _this$[ebp]
	call	?KilometersToNauticalMiles@VoiceFilter@@AAEFF@Z ; VoiceFilter::KilometersToNauticalMiles
	mov	WORD PTR _evalElement$[ebp], ax
$LN16@PlayRadioM:

; 558  : 					break;
; 559  : 
; 560  : 				case eCALLNUM:
; 561  : 				case eCALLNUM2:
; 562  : 					/*// KCK HACK: Convert to the correct eval.
; 563  : 					// This should become irrelevant once Joe gets his changes in
; 564  : 					if (evalElement > VF_SHORTCALLSIGN_OFFSET)
; 565  : 					{
; 566  : 						evalElement -= VF_SHORTCALLSIGN_OFFSET;
; 567  : 						evalHdrNumber = eSHORTCALL;
; 568  : 					}
; 569  : 					if (evalElement > VF_FLIGHTNUMBER_OFFSET)
; 570  : 					{
; 571  : 						evalElement -= VF_FLIGHTNUMBER_OFFSET;
; 572  : 						evalHdrNumber = eFLIGHTNUMBER;
; 573  : 					}
; 574  : */
; 575  : 					break;
; 576  : 				}
; 577  : 				
; 578  : 				if (data){

	cmp	DWORD PTR _data$[ebp], 0
	je	SHORT $LN7@PlayRadioM

; 579  : 					eval++;

	mov	edx, DWORD PTR _eval$[ebp]
	add	edx, 1
	mov	DWORD PTR _eval$[ebp], edx
$LN7@PlayRadioM:

; 580  : 				}
; 581  : 				
; 582  : 				if (evalElement == -1 || evalElement == 32766){ // 32766 = airbase without ATC

	movsx	eax, WORD PTR _evalElement$[ebp]
	cmp	eax, -1
	je	SHORT $LN5@PlayRadioM
	movsx	ecx, WORD PTR _evalElement$[ebp]
	cmp	ecx, 32766				; 00007ffeH
	jne	SHORT $LN6@PlayRadioM
$LN5@PlayRadioM:

; 583  : 					message.sizeofConv--;

	mov	dl, BYTE PTR _message$[ebp+4]
	sub	dl, 1
	mov	BYTE PTR _message$[ebp+4], dl

; 584  : 					commInfo ++;

	mov	eax, DWORD PTR _commInfo$[ebp]
	add	eax, 2
	mov	DWORD PTR _commInfo$[ebp], eax

; 585  : 					//dcommPtr += sizeof( short );
; 586  : 					continue;

	jmp	$LN25@PlayRadioM
$LN6@PlayRadioM:

; 587  : 				}
; 588  : 				
; 589  : 				fragNumber = EvaluateElement( evalHdrNumber, evalElement );

	movzx	ecx, WORD PTR _evalElement$[ebp]
	push	ecx
	movzx	edx, WORD PTR _evalHdrNumber$[ebp]
	push	edx
	mov	ecx, DWORD PTR _this$[ebp]
	call	?EvaluateElement@VoiceFilter@@AAEFFF@Z	; VoiceFilter::EvaluateElement
	mov	WORD PTR _fragNumber$[ebp], ax
$LN23@PlayRadioM:

; 590  : 			}
; 591  : 		}
; 592  : 
; 593  : 		// Retro 20Dec2003 start
; 594  : 		if ((radioLabel) && (SimDriver.InSim())){

	cmp	DWORD PTR ?radioLabel@@3PAVRadioSubTitle@@A, 0 ; radioLabel
	je	SHORT $LN4@PlayRadioM
	mov	ecx, OFFSET ?SimDriver@@3VSimulationDriver@@A ; SimDriver
	call	?InSim@SimulationDriver@@QBE_NXZ	; SimulationDriver::InSim
	movzx	eax, al
	test	eax, eax
	je	SHORT $LN4@PlayRadioM

; 595  : 			// however theres a prob as there are a few 'continues' up so maybe Im missing some chunks here..
; 596  : 			char theChannel = CanUserHearThisMessage(radiofilter, from, to);

	mov	ecx, DWORD PTR _to$[ebp+4]
	push	ecx
	mov	edx, DWORD PTR _to$[ebp]
	push	edx
	mov	eax, DWORD PTR _from$[ebp+4]
	push	eax
	mov	ecx, DWORD PTR _from$[ebp]
	push	ecx
	movzx	edx, BYTE PTR _radiofilter$[ebp]
	push	edx
	mov	ecx, DWORD PTR _this$[ebp]
	call	?CanUserHearThisMessage@VoiceFilter@@QAEDDVVU_ID@@0@Z ; VoiceFilter::CanUserHearThisMessage
	mov	BYTE PTR _theChannel$4[ebp], al

; 597  : 			if (theChannel){

	movsx	eax, BYTE PTR _theChannel$4[ebp]
	test	eax, eax
	je	SHORT $LN4@PlayRadioM

; 598  : 				if (newMessage){

	movzx	ecx, BYTE PTR _newMessage$[ebp]
	test	ecx, ecx
	je	SHORT $LN2@PlayRadioM

; 599  : 					radioLabel->NewMessage(talker, fragNumber, playTime, theChannel);

	movzx	edx, BYTE PTR _theChannel$4[ebp]
	push	edx
	mov	eax, DWORD PTR _playTime$[ebp]
	push	eax
	movsx	ecx, WORD PTR _fragNumber$[ebp]
	push	ecx
	movsx	edx, BYTE PTR _talker$[ebp]
	push	edx
	mov	ecx, DWORD PTR ?radioLabel@@3PAVRadioSubTitle@@A ; radioLabel
	call	?NewMessage@RadioSubTitle@@QAEXHHKD@Z	; RadioSubTitle::NewMessage

; 600  : 					newMessage = false;

	mov	BYTE PTR _newMessage$[ebp], 0

; 601  : 				}
; 602  : 				else {

	jmp	SHORT $LN4@PlayRadioM
$LN2@PlayRadioM:

; 603  : 					radioLabel->AddToMessage(talker, fragNumber);

	movsx	eax, WORD PTR _fragNumber$[ebp]
	push	eax
	movsx	ecx, BYTE PTR _talker$[ebp]
	push	ecx
	mov	ecx, DWORD PTR ?radioLabel@@3PAVRadioSubTitle@@A ; radioLabel
	call	?AddToMessage@RadioSubTitle@@QAEXHH@Z	; RadioSubTitle::AddToMessage
$LN4@PlayRadioM:

; 604  : 				}
; 605  : 			}
; 606  : 		}
; 607  : 		// Retro 20Dec2003 end
; 608  : 
; 609  : 		*dfileNum = FragToFile( talker, fragNumber );

	movzx	edx, WORD PTR _fragNumber$[ebp]
	push	edx
	movsx	eax, BYTE PTR _talker$[ebp]
	push	eax
	mov	ecx, DWORD PTR _this$[ebp]
	call	?FragToFile@VoiceFilter@@QAEFHF@Z	; VoiceFilter::FragToFile
	mov	ecx, DWORD PTR _dfileNum$[ebp]
	mov	WORD PTR [ecx], ax

; 610  : 		ShiAssert(*dfileNum >= 0);
; 611  : 		
; 612  : 		dfileNum++;

	mov	edx, DWORD PTR _dfileNum$[ebp]
	add	edx, 2
	mov	DWORD PTR _dfileNum$[ebp], edx

; 613  : 		commInfo ++;

	mov	eax, DWORD PTR _commInfo$[ebp]
	add	eax, 2
	mov	DWORD PTR _commInfo$[ebp], eax

; 614  : 		//dcommPtr += sizeof( short );
; 615  : 	}

	jmp	$LN25@PlayRadioM
$LN24@PlayRadioM:

; 616  : 
; 617  : 	//add closing pop
; 618  : 	pop = rand() % 12; // jpo ditto

	call	_rand
	cdq
	mov	ecx, 12					; 0000000cH
	idiv	ecx
	mov	DWORD PTR _pop$[ebp], edx

; 619  : 	*dfileNum = FragToFile( pop, RADIO_POP );

	push	2142					; 0000085eH
	mov	edx, DWORD PTR _pop$[ebp]
	push	edx
	mov	ecx, DWORD PTR _this$[ebp]
	call	?FragToFile@VoiceFilter@@QAEFHF@Z	; VoiceFilter::FragToFile
	mov	ecx, DWORD PTR _dfileNum$[ebp]
	mov	WORD PTR [ecx], ax

; 620  : 
; 621  : 	#ifdef _DEBUG
; 622  : 	for(i = 0; i < message.sizeofConv; i++)
; 623  : 	ShiAssert(message.conversations[i] >= 0);
; 624  : 	#endif
; 625  : 	#ifdef DAVE_DBG
; 626  : 	//MonoPrint("Add message %d to queue %d\n", message.message, message.channelIndex);
; 627  : 	#endif
; 628  : 	VM->AddToConversationQueue( &message );

	lea	edx, DWORD PTR _message$[ebp]
	push	edx
	mov	ecx, DWORD PTR ?VM@@3PAVVoiceManager@@A	; VM
	call	?AddToConversationQueue@VoiceManager@@QAEXPAVCONVERSATION@@@Z ; VoiceManager::AddToConversationQueue

; 629  : 	SetEvent( VMWakeEventHandle );

	mov	eax, DWORD PTR ?VMWakeEventHandle@@3PAXA ; VMWakeEventHandle
	push	eax
	call	DWORD PTR __imp__SetEvent@4
$LN40@PlayRadioM:

; 630  : }

	pop	esi
	mov	esp, ebp
	pop	ebp
	ret	44					; 0000002cH
	npad	3
$LN43@PlayRadioM:
	DD	$LN14@PlayRadioM
	DD	$LN15@PlayRadioM
	DD	$LN12@PlayRadioM
	DD	$LN9@PlayRadioM
	DD	$LN13@PlayRadioM
	DD	$LN11@PlayRadioM
	DD	$LN10@PlayRadioM
	DD	$LN16@PlayRadioM
$LN42@PlayRadioM:
	DB	0
	DB	7
	DB	7
	DB	7
	DB	1
	DB	7
	DB	7
	DB	7
	DB	7
	DB	7
	DB	7
	DB	7
	DB	7
	DB	7
	DB	7
	DB	7
	DB	7
	DB	7
	DB	2
	DB	7
	DB	7
	DB	7
	DB	7
	DB	3
	DB	7
	DB	7
	DB	7
	DB	7
	DB	7
	DB	7
	DB	7
	DB	7
	DB	7
	DB	7
	DB	7
	DB	7
	DB	3
	DB	7
	DB	7
	DB	7
	DB	7
	DB	7
	DB	7
	DB	7
	DB	7
	DB	7
	DB	7
	DB	7
	DB	7
	DB	7
	DB	7
	DB	7
	DB	7
	DB	7
	DB	7
	DB	1
	DB	7
	DB	7
	DB	7
	DB	7
	DB	4
	DB	7
	DB	7
	DB	7
	DB	7
	DB	7
	DB	7
	DB	7
	DB	7
	DB	7
	DB	7
	DB	7
	DB	7
	DB	7
	DB	7
	DB	7
	DB	7
	DB	7
	DB	7
	DB	7
	DB	7
	DB	7
	DB	7
	DB	7
	DB	7
	DB	7
	DB	7
	DB	5
	DB	6
	DB	6
?PlayRadioMessage@VoiceFilter@@QAEXDFPAFKDDVVU_ID@@H1@Z ENDP ; VoiceFilter::PlayRadioMessage
_TEXT	ENDS
; Function compile flags: /Odtp
; File c:\users\zhitao li\documents\visual studio 2012\projects\freefalcon\falcsnd\voicefilter.cpp
_TEXT	SEGMENT
_this$ = -4						; size = 4
?CleanUpVoiceFilter@VoiceFilter@@QAEXXZ PROC		; VoiceFilter::CleanUpVoiceFilter
; _this$ = ecx

; 175  : {

	push	ebp
	mov	ebp, esp
	push	ecx
	mov	DWORD PTR _this$[ebp], ecx

; 176  : 	//	delete [] mesgTable;
; 177  : 	
; 178  : 	DisposeCommData();

	mov	ecx, DWORD PTR _this$[ebp]
	call	?DisposeCommData@VoiceFilter@@AAEXXZ	; VoiceFilter::DisposeCommData

; 179  : 	DisposeEvalData();

	mov	ecx, DWORD PTR _this$[ebp]
	call	?DisposeEvalData@VoiceFilter@@AAEXXZ	; VoiceFilter::DisposeEvalData

; 180  : 	DisposeFragData();

	mov	ecx, DWORD PTR _this$[ebp]
	call	?DisposeFragData@VoiceFilter@@AAEXXZ	; VoiceFilter::DisposeFragData

; 181  : 	
; 182  : }

	mov	esp, ebp
	pop	ebp
	ret	0
?CleanUpVoiceFilter@VoiceFilter@@QAEXXZ ENDP		; VoiceFilter::CleanUpVoiceFilter
_TEXT	ENDS
; Function compile flags: /Odtp
; File c:\users\zhitao li\documents\visual studio 2012\projects\freefalcon\falcsnd\voicefilter.cpp
_TEXT	SEGMENT
_this$ = -4						; size = 4
?SetUpVoiceFilter@VoiceFilter@@QAEXXZ PROC		; VoiceFilter::SetUpVoiceFilter
; _this$ = ecx

; 158  : {

	push	ebp
	mov	ebp, esp
	push	ecx
	mov	DWORD PTR _this$[ebp], ecx

; 159  : 	//	int	i;
; 160  : 	
; 161  : 	LoadCommFile();

	mov	ecx, DWORD PTR _this$[ebp]
	call	?LoadCommFile@VoiceFilter@@AAEXXZ	; VoiceFilter::LoadCommFile

; 162  : 	LoadEvalFile();

	mov	ecx, DWORD PTR _this$[ebp]
	call	?LoadEvalFile@VoiceFilter@@AAEXXZ	; VoiceFilter::LoadEvalFile

; 163  : 	LoadFragFile();

	mov	ecx, DWORD PTR _this$[ebp]
	call	?LoadFragFile@VoiceFilter@@AAEXXZ	; VoiceFilter::LoadFragFile

; 164  : 	
; 165  : 	/*
; 166  : 	mesgTable = new MESG_REPEAT_LOOKUP[LastComm];
; 167  : 	for ( i = 0; i < LastComm; i++ )
; 168  : 	{
; 169  : 	mesgTable[i].mesgID = i;
; 170  : 	mesgTable[i].timeCalled = 0;
; 171  : }*/
; 172  : }

	mov	esp, ebp
	pop	ebp
	ret	0
?SetUpVoiceFilter@VoiceFilter@@QAEXXZ ENDP		; VoiceFilter::SetUpVoiceFilter
_TEXT	ENDS
; Function compile flags: /Odtp
; File c:\users\zhitao li\documents\visual studio 2012\projects\freefalcon\falcsnd\voicefilter.cpp
_TEXT	SEGMENT
_this$ = -4						; size = 4
?SilenceVoices@VoiceFilter@@QAEXXZ PROC			; VoiceFilter::SilenceVoices
; _this$ = ecx

; 152  : {

	push	ebp
	mov	ebp, esp
	push	ecx
	mov	DWORD PTR _this$[ebp], ecx

; 153  : 	if(VM)

	cmp	DWORD PTR ?VM@@3PAVVoiceManager@@A, 0	; VM
	je	SHORT $LN2@SilenceVoi

; 154  : 		VM->VMSilenceVoices();

	mov	ecx, DWORD PTR ?VM@@3PAVVoiceManager@@A	; VM
	call	?VMSilenceVoices@VoiceManager@@QAEXXZ	; VoiceManager::VMSilenceVoices
$LN2@SilenceVoi:

; 155  : }

	mov	esp, ebp
	pop	ebp
	ret	0
?SilenceVoices@VoiceFilter@@QAEXXZ ENDP			; VoiceFilter::SilenceVoices
_TEXT	ENDS
; Function compile flags: /Odtp
; File c:\users\zhitao li\documents\visual studio 2012\projects\freefalcon\falcsnd\voicefilter.cpp
_TEXT	SEGMENT
_this$ = -4						; size = 4
?HearVoices@VoiceFilter@@QAEXXZ PROC			; VoiceFilter::HearVoices
; _this$ = ecx

; 146  : {

	push	ebp
	mov	ebp, esp
	push	ecx
	mov	DWORD PTR _this$[ebp], ecx

; 147  : 	if(VM)

	cmp	DWORD PTR ?VM@@3PAVVoiceManager@@A, 0	; VM
	je	SHORT $LN2@HearVoices

; 148  : 		VM->VMHearVoices();

	mov	ecx, DWORD PTR ?VM@@3PAVVoiceManager@@A	; VM
	call	?VMHearVoices@VoiceManager@@QAEXXZ	; VoiceManager::VMHearVoices
$LN2@HearVoices:

; 149  : }

	mov	esp, ebp
	pop	ebp
	ret	0
?HearVoices@VoiceFilter@@QAEXXZ ENDP			; VoiceFilter::HearVoices
_TEXT	ENDS
; Function compile flags: /Odtp
; File c:\users\zhitao li\documents\visual studio 2012\projects\freefalcon\falcsnd\voicefilter.cpp
_TEXT	SEGMENT
_this$ = -4						; size = 4
?ResetVoiceManager@VoiceFilter@@QAEXXZ PROC		; VoiceFilter::ResetVoiceManager
; _this$ = ecx

; 134  : {

	push	ebp
	mov	ebp, esp
	push	ecx
	mov	DWORD PTR _this$[ebp], ecx

; 135  : 	if ( VM )

	cmp	DWORD PTR ?VM@@3PAVVoiceManager@@A, 0	; VM
	je	SHORT $LN2@ResetVoice

; 136  : 		VM->VMResetVoices();

	mov	ecx, DWORD PTR ?VM@@3PAVVoiceManager@@A	; VM
	call	?VMResetVoices@VoiceManager@@QAEXXZ	; VoiceManager::VMResetVoices
$LN2@ResetVoice:

; 137  : }

	mov	esp, ebp
	pop	ebp
	ret	0
?ResetVoiceManager@VoiceFilter@@QAEXXZ ENDP		; VoiceFilter::ResetVoiceManager
_TEXT	ENDS
; Function compile flags: /Odtp
; File c:\users\zhitao li\documents\visual studio 2012\projects\freefalcon\falcsnd\voicefilter.cpp
_TEXT	SEGMENT
_this$ = -16						; size = 4
tv68 = -12						; size = 4
$T1 = -8						; size = 4
$T2 = -4						; size = 4
?EndVoiceManager@VoiceFilter@@QAEXXZ PROC		; VoiceFilter::EndVoiceManager
; _this$ = ecx

; 128  : {

	push	ebp
	mov	ebp, esp
	sub	esp, 16					; 00000010H
	mov	DWORD PTR _this$[ebp], ecx

; 129  : 	delete VM;

	mov	eax, DWORD PTR ?VM@@3PAVVoiceManager@@A	; VM
	mov	DWORD PTR $T1[ebp], eax
	mov	ecx, DWORD PTR $T1[ebp]
	mov	DWORD PTR $T2[ebp], ecx
	cmp	DWORD PTR $T2[ebp], 0
	je	SHORT $LN3@EndVoiceMa
	push	1
	mov	ecx, DWORD PTR $T2[ebp]
	call	??_GVoiceManager@@QAEPAXI@Z
	mov	DWORD PTR tv68[ebp], eax
	jmp	SHORT $LN4@EndVoiceMa
$LN3@EndVoiceMa:
	mov	DWORD PTR tv68[ebp], 0
$LN4@EndVoiceMa:

; 130  : 	VM = NULL;

	mov	DWORD PTR ?VM@@3PAVVoiceManager@@A, 0	; VM

; 131  : }

	mov	esp, ebp
	pop	ebp
	ret	0
?EndVoiceManager@VoiceFilter@@QAEXXZ ENDP		; VoiceFilter::EndVoiceManager
_TEXT	ENDS
; Function compile flags: /Odtp
; File c:\users\zhitao li\documents\visual studio 2012\projects\freefalcon\falcsnd\voicefilter.cpp
_TEXT	SEGMENT
_this$ = -28						; size = 4
$T2 = -24						; size = 4
tv71 = -20						; size = 4
$T3 = -16						; size = 4
__$EHRec$ = -12						; size = 12
?StartVoiceManager@VoiceFilter@@QAEXXZ PROC		; VoiceFilter::StartVoiceManager
; _this$ = ecx

; 121  : {

	push	ebp
	mov	ebp, esp
	push	-1
	push	__ehhandler$?StartVoiceManager@VoiceFilter@@QAEXXZ
	mov	eax, DWORD PTR fs:0
	push	eax
	sub	esp, 16					; 00000010H
	mov	eax, DWORD PTR ___security_cookie
	xor	eax, ebp
	push	eax
	lea	eax, DWORD PTR __$EHRec$[ebp]
	mov	DWORD PTR fs:0, eax
	mov	DWORD PTR _this$[ebp], ecx

; 122  : 	VM = new VoiceManager();

	push	152					; 00000098H
	call	??2@YAPAXI@Z				; operator new
	add	esp, 4
	mov	DWORD PTR $T3[ebp], eax
	mov	DWORD PTR __$EHRec$[ebp+8], 0
	cmp	DWORD PTR $T3[ebp], 0
	je	SHORT $LN4@StartVoice
	mov	ecx, DWORD PTR $T3[ebp]
	call	??0VoiceManager@@QAE@XZ			; VoiceManager::VoiceManager
	mov	DWORD PTR tv71[ebp], eax
	jmp	SHORT $LN5@StartVoice
$LN4@StartVoice:
	mov	DWORD PTR tv71[ebp], 0
$LN5@StartVoice:
	mov	eax, DWORD PTR tv71[ebp]
	mov	DWORD PTR $T2[ebp], eax
	mov	DWORD PTR __$EHRec$[ebp+8], -1
	mov	ecx, DWORD PTR $T2[ebp]
	mov	DWORD PTR ?VM@@3PAVVoiceManager@@A, ecx	; VM

; 123  : 	if(VM)

	cmp	DWORD PTR ?VM@@3PAVVoiceManager@@A, 0	; VM
	je	SHORT $LN2@StartVoice

; 124  : 		VM->VMBegin();

	mov	ecx, DWORD PTR ?VM@@3PAVVoiceManager@@A	; VM
	call	?VMBegin@VoiceManager@@QAEHXZ		; VoiceManager::VMBegin
$LN2@StartVoice:

; 125  : }

	mov	ecx, DWORD PTR __$EHRec$[ebp]
	mov	DWORD PTR fs:0, ecx
	pop	ecx
	mov	esp, ebp
	pop	ebp
	ret	0
_TEXT	ENDS
text$x	SEGMENT
__unwindfunclet$?StartVoiceManager@VoiceFilter@@QAEXXZ$0:
	mov	eax, DWORD PTR $T3[ebp]
	push	eax
	call	??3@YAXPAX@Z				; operator delete
	pop	ecx
	ret	0
__ehhandler$?StartVoiceManager@VoiceFilter@@QAEXXZ:
	mov	edx, DWORD PTR [esp+8]
	lea	eax, DWORD PTR [edx+12]
	mov	ecx, DWORD PTR [edx-20]
	xor	ecx, eax
	call	@__security_check_cookie@4
	mov	eax, OFFSET __ehfuncinfo$?StartVoiceManager@VoiceFilter@@QAEXXZ
	jmp	___CxxFrameHandler3
text$x	ENDS
?StartVoiceManager@VoiceFilter@@QAEXXZ ENDP		; VoiceFilter::StartVoiceManager
; Function compile flags: /Odtp
; File c:\users\zhitao li\documents\visual studio 2012\projects\freefalcon\falcsnd\voicefilter.cpp
_TEXT	SEGMENT
_this$ = -16						; size = 4
__$EHRec$ = -12						; size = 12
??1VoiceFilter@@QAE@XZ PROC				; VoiceFilter::~VoiceFilter
; _this$ = ecx

; 115  : {

	push	ebp
	mov	ebp, esp
	push	-1
	push	__ehhandler$??1VoiceFilter@@QAE@XZ
	mov	eax, DWORD PTR fs:0
	push	eax
	push	ecx
	mov	eax, DWORD PTR ___security_cookie
	xor	eax, ebp
	push	eax
	lea	eax, DWORD PTR __$EHRec$[ebp]
	mov	DWORD PTR fs:0, eax
	mov	DWORD PTR _this$[ebp], ecx
	mov	DWORD PTR __$EHRec$[ebp+8], 2

; 116  : 	CleanUpVoiceFilter();

	mov	ecx, DWORD PTR _this$[ebp]
	call	?CleanUpVoiceFilter@VoiceFilter@@QAEXXZ	; VoiceFilter::CleanUpVoiceFilter

; 117  : 	EndVoiceManager();

	mov	ecx, DWORD PTR _this$[ebp]
	call	?EndVoiceManager@VoiceFilter@@QAEXXZ	; VoiceFilter::EndVoiceManager

; 118  : }

	mov	BYTE PTR __$EHRec$[ebp+8], 1
	mov	ecx, DWORD PTR _this$[ebp]
	add	ecx, 44					; 0000002cH
	call	??1EvalFile@@QAE@XZ
	mov	BYTE PTR __$EHRec$[ebp+8], 0
	mov	ecx, DWORD PTR _this$[ebp]
	add	ecx, 20					; 00000014H
	call	??1FragFile@@QAE@XZ
	mov	DWORD PTR __$EHRec$[ebp+8], -1
	mov	ecx, DWORD PTR _this$[ebp]
	call	??1CommFile@@QAE@XZ
	mov	ecx, DWORD PTR __$EHRec$[ebp]
	mov	DWORD PTR fs:0, ecx
	pop	ecx
	mov	esp, ebp
	pop	ebp
	ret	0
_TEXT	ENDS
text$x	SEGMENT
__unwindfunclet$??1VoiceFilter@@QAE@XZ$0:
	mov	ecx, DWORD PTR _this$[ebp]
	jmp	??1CommFile@@QAE@XZ
__unwindfunclet$??1VoiceFilter@@QAE@XZ$1:
	mov	ecx, DWORD PTR _this$[ebp]
	add	ecx, 20					; 00000014H
	jmp	??1FragFile@@QAE@XZ
__unwindfunclet$??1VoiceFilter@@QAE@XZ$2:
	mov	ecx, DWORD PTR _this$[ebp]
	add	ecx, 44					; 0000002cH
	jmp	??1EvalFile@@QAE@XZ
__ehhandler$??1VoiceFilter@@QAE@XZ:
	mov	edx, DWORD PTR [esp+8]
	lea	eax, DWORD PTR [edx+12]
	mov	ecx, DWORD PTR [edx-8]
	xor	ecx, eax
	call	@__security_check_cookie@4
	mov	eax, OFFSET __ehfuncinfo$??1VoiceFilter@@QAE@XZ
	jmp	___CxxFrameHandler3
text$x	ENDS
??1VoiceFilter@@QAE@XZ ENDP				; VoiceFilter::~VoiceFilter
; Function compile flags: /Odtp
; File c:\users\zhitao li\documents\visual studio 2012\projects\freefalcon\falcsnd\voicefilter.cpp
_TEXT	SEGMENT
_this$ = -16						; size = 4
__$EHRec$ = -12						; size = 12
??0VoiceFilter@@QAE@XZ PROC				; VoiceFilter::VoiceFilter
; _this$ = ecx

; 110  : {

	push	ebp
	mov	ebp, esp
	push	-1
	push	__ehhandler$??0VoiceFilter@@QAE@XZ
	mov	eax, DWORD PTR fs:0
	push	eax
	push	ecx
	mov	eax, DWORD PTR ___security_cookie
	xor	eax, ebp
	push	eax
	lea	eax, DWORD PTR __$EHRec$[ebp]
	mov	DWORD PTR fs:0, eax
	mov	DWORD PTR _this$[ebp], ecx
	mov	ecx, DWORD PTR _this$[ebp]
	call	??0CommFile@@QAE@XZ			; CommFile::CommFile
	mov	DWORD PTR __$EHRec$[ebp+8], 0
	mov	ecx, DWORD PTR _this$[ebp]
	add	ecx, 20					; 00000014H
	call	??0FragFile@@QAE@XZ			; FragFile::FragFile
	mov	BYTE PTR __$EHRec$[ebp+8], 1
	mov	ecx, DWORD PTR _this$[ebp]
	add	ecx, 44					; 0000002cH
	call	??0EvalFile@@QAE@XZ			; EvalFile::EvalFile

; 111  : 	srand((unsigned)time( NULL ));

	push	0
	call	_time
	add	esp, 4
	push	eax
	call	_srand
	add	esp, 4

; 112  : }

	mov	DWORD PTR __$EHRec$[ebp+8], -1
	mov	eax, DWORD PTR _this$[ebp]
	mov	ecx, DWORD PTR __$EHRec$[ebp]
	mov	DWORD PTR fs:0, ecx
	pop	ecx
	mov	esp, ebp
	pop	ebp
	ret	0
_TEXT	ENDS
text$x	SEGMENT
__unwindfunclet$??0VoiceFilter@@QAE@XZ$0:
	mov	ecx, DWORD PTR _this$[ebp]
	jmp	??1CommFile@@QAE@XZ
__unwindfunclet$??0VoiceFilter@@QAE@XZ$1:
	mov	ecx, DWORD PTR _this$[ebp]
	add	ecx, 20					; 00000014H
	jmp	??1FragFile@@QAE@XZ
__ehhandler$??0VoiceFilter@@QAE@XZ:
	mov	edx, DWORD PTR [esp+8]
	lea	eax, DWORD PTR [edx+12]
	mov	ecx, DWORD PTR [edx-8]
	xor	ecx, eax
	call	@__security_check_cookie@4
	mov	eax, OFFSET __ehfuncinfo$??0VoiceFilter@@QAE@XZ
	jmp	___CxxFrameHandler3
text$x	ENDS
??0VoiceFilter@@QAE@XZ ENDP				; VoiceFilter::VoiceFilter
; Function compile flags: /Odtp
; File c:\users\zhitao li\documents\visual studio 2012\projects\freefalcon\falcsnd\voicefilter.cpp
_TEXT	SEGMENT
tv90 = -296						; size = 4
tv95 = -292						; size = 4
_commInfo$ = -288					; size = 4
_commHdrInfo$ = -284					; size = 4
_evalNum$ = -280					; size = 4
_fragNumber$ = -276					; size = 2
_evalHdrNumber$ = -272					; size = 2
_i$ = -268						; size = 4
_buffer$ = -264						; size = 260
__$ArrayPad$ = -4					; size = 4
_hwnd$ = 8						; size = 4
?UpdateVoiceDialog@@YAXPAUHWND__@@@Z PROC		; UpdateVoiceDialog

; 1430 : {

	push	ebp
	mov	ebp, esp
	sub	esp, 296				; 00000128H
	mov	eax, DWORD PTR ___security_cookie
	xor	eax, ebp
	mov	DWORD PTR __$ArrayPad$[ebp], eax

; 1431 : 	char			buffer[MAX_PATH];
; 1432 : 	int				i = 0;

	mov	DWORD PTR _i$[ebp], 0

; 1433 : 	COMM_FILE_INFO*	commHdrInfo;
; 1434 : 	//char			*dcommPtr;
; 1435 : 	short			*commInfo;
; 1436 : 	short			fragNumber = 0, evalHdrNumber = 0;

	xor	eax, eax
	mov	WORD PTR _fragNumber$[ebp], ax
	xor	ecx, ecx
	mov	WORD PTR _evalHdrNumber$[ebp], cx

; 1437 : 	int				evalNum = 0;

	mov	DWORD PTR _evalNum$[ebp], 0

; 1438 : 	
; 1439 : 	_itoa(VToolMsgData.talker,buffer,10);

	push	10					; 0000000aH
	lea	edx, DWORD PTR _buffer$[ebp]
	push	edx
	mov	eax, DWORD PTR ?VToolMsgData@@3UVoiceToolData@@A+4
	push	eax
	call	__itoa
	add	esp, 12					; 0000000cH

; 1440 : 	Edit_SetText(GetDlgItem(hwnd,IDC_VOICE), buffer);

	lea	ecx, DWORD PTR _buffer$[ebp]
	push	ecx
	push	1042					; 00000412H
	mov	edx, DWORD PTR _hwnd$[ebp]
	push	edx
	call	DWORD PTR __imp__GetDlgItem@8
	push	eax
	call	DWORD PTR __imp__SetWindowTextA@8

; 1441 : 	_itoa(VToolMsgData.message,buffer,10);

	push	10					; 0000000aH
	lea	eax, DWORD PTR _buffer$[ebp]
	push	eax
	mov	ecx, DWORD PTR ?VToolMsgData@@3UVoiceToolData@@A+8
	push	ecx
	call	__itoa
	add	esp, 12					; 0000000cH

; 1442 : 	Edit_SetText(GetDlgItem(hwnd,IDC_MESSAGE), buffer);

	lea	edx, DWORD PTR _buffer$[ebp]
	push	edx
	push	1331					; 00000533H
	mov	eax, DWORD PTR _hwnd$[ebp]
	push	eax
	call	DWORD PTR __imp__GetDlgItem@8
	push	eax
	call	DWORD PTR __imp__SetWindowTextA@8

; 1443 : 	_itoa(VToolMsgData.frag,buffer,10);

	push	10					; 0000000aH
	lea	ecx, DWORD PTR _buffer$[ebp]
	push	ecx
	mov	edx, DWORD PTR ?VToolMsgData@@3UVoiceToolData@@A+12
	push	edx
	call	__itoa
	add	esp, 12					; 0000000cH

; 1444 : 	Edit_SetText(GetDlgItem(hwnd,IDC_FRAG), buffer);

	lea	eax, DWORD PTR _buffer$[ebp]
	push	eax
	push	1332					; 00000534H
	mov	ecx, DWORD PTR _hwnd$[ebp]
	push	ecx
	call	DWORD PTR __imp__GetDlgItem@8
	push	eax
	call	DWORD PTR __imp__SetWindowTextA@8

; 1445 : 	
; 1446 : 	CheckDlgButton (hwnd, IDC_PLAY_MESSAGE, (VToolMsgData.mode == PLAY_MESSAGE) ? BST_CHECKED : BST_UNCHECKED);

	cmp	DWORD PTR ?VToolMsgData@@3UVoiceToolData@@A, 1
	jne	SHORT $LN12@UpdateVoic
	mov	DWORD PTR tv90[ebp], 1
	jmp	SHORT $LN13@UpdateVoic
$LN12@UpdateVoic:
	mov	DWORD PTR tv90[ebp], 0
$LN13@UpdateVoic:
	mov	edx, DWORD PTR tv90[ebp]
	push	edx
	push	1336					; 00000538H
	mov	eax, DWORD PTR _hwnd$[ebp]
	push	eax
	call	DWORD PTR __imp__CheckDlgButton@12

; 1447 : 	CheckDlgButton (hwnd, IDC_PLAY_FRAG, (VToolMsgData.mode == PLAY_FRAG) ? BST_CHECKED : BST_UNCHECKED);

	cmp	DWORD PTR ?VToolMsgData@@3UVoiceToolData@@A, 2
	jne	SHORT $LN14@UpdateVoic
	mov	DWORD PTR tv95[ebp], 1
	jmp	SHORT $LN15@UpdateVoic
$LN14@UpdateVoic:
	mov	DWORD PTR tv95[ebp], 0
$LN15@UpdateVoic:
	mov	ecx, DWORD PTR tv95[ebp]
	push	ecx
	push	1337					; 00000539H
	mov	edx, DWORD PTR _hwnd$[ebp]
	push	edx
	call	DWORD PTR __imp__CheckDlgButton@12

; 1448 : 	
; 1449 : 	commHdrInfo = voiceFilter->commfile.GetComm(0);

	push	0
	mov	ecx, DWORD PTR ?voiceFilter@@3PAVVoiceFilter@@A ; voiceFilter
	call	?GetComm@CommFile@@QAEPAUCOMM_FILE_INFO@@H@Z ; CommFile::GetComm
	mov	DWORD PTR _commHdrInfo$[ebp], eax

; 1450 : 	
; 1451 : 	if(VToolMsgData.message < voiceFilter->commfile.MaxComms())

	mov	ecx, DWORD PTR ?voiceFilter@@3PAVVoiceFilter@@A ; voiceFilter
	call	?MaxComms@CommFile@@QAEHXZ		; CommFile::MaxComms
	cmp	DWORD PTR ?VToolMsgData@@3UVoiceToolData@@A+8, eax
	jge	$LN9@UpdateVoic

; 1452 : 	{
; 1453 : 		commHdrInfo = voiceFilter->commfile.GetComm(VToolMsgData.message);

	mov	eax, DWORD PTR ?VToolMsgData@@3UVoiceToolData@@A+8
	push	eax
	mov	ecx, DWORD PTR ?voiceFilter@@3PAVVoiceFilter@@A ; voiceFilter
	call	?GetComm@CommFile@@QAEPAUCOMM_FILE_INFO@@H@Z ; CommFile::GetComm
	mov	DWORD PTR _commHdrInfo$[ebp], eax

; 1454 : 		
; 1455 : 		// use offset in  just aquired data to position pointer
; 1456 : 		//dcommPtr = voiceFilter->commData + commHdrInfo->commOffset;
; 1457 : 		commInfo = voiceFilter->commfile.GetCommInd(commHdrInfo);

	mov	ecx, DWORD PTR _commHdrInfo$[ebp]
	push	ecx
	mov	ecx, DWORD PTR ?voiceFilter@@3PAVVoiceFilter@@A ; voiceFilter
	call	?GetCommInd@CommFile@@QAEPAFPAUCOMM_FILE_INFO@@@Z ; CommFile::GetCommInd
	mov	DWORD PTR _commInfo$[ebp], eax

; 1458 : 		for ( i = 0; i < commHdrInfo->totalElements; i ++ )

	mov	DWORD PTR _i$[ebp], 0
	jmp	SHORT $LN8@UpdateVoic
$LN7@UpdateVoic:
	mov	edx, DWORD PTR _i$[ebp]
	add	edx, 1
	mov	DWORD PTR _i$[ebp], edx
$LN8@UpdateVoic:
	mov	eax, DWORD PTR _commHdrInfo$[ebp]
	movzx	ecx, BYTE PTR [eax+8]
	cmp	DWORD PTR _i$[ebp], ecx
	jge	$LN9@UpdateVoic

; 1459 : 		{
; 1460 : 			fragNumber = 0;

	xor	edx, edx
	mov	WORD PTR _fragNumber$[ebp], dx

; 1461 : 			evalHdrNumber = *commInfo;

	mov	eax, DWORD PTR _commInfo$[ebp]
	mov	cx, WORD PTR [eax]
	mov	WORD PTR _evalHdrNumber$[ebp], cx

; 1462 : 			if(evalHdrNumber < 0)

	movsx	edx, WORD PTR _evalHdrNumber$[ebp]
	test	edx, edx
	jge	$LN5@UpdateVoic

; 1463 : 			{
; 1464 : 				evalHdrNumber *= -1;

	movsx	eax, WORD PTR _evalHdrNumber$[ebp]
	imul	eax, -1
	mov	WORD PTR _evalHdrNumber$[ebp], ax

; 1465 : 				
; 1466 : 				fragNumber = voiceFilter->IndexElement(evalHdrNumber,VToolMsgData.data[evalNum]);

	mov	ecx, DWORD PTR _evalNum$[ebp]
	movzx	edx, WORD PTR ?VToolMsgData@@3UVoiceToolData@@A[ecx*2+50]
	push	edx
	movzx	eax, WORD PTR _evalHdrNumber$[ebp]
	push	eax
	mov	ecx, DWORD PTR ?voiceFilter@@3PAVVoiceFilter@@A ; voiceFilter
	call	?IndexElement@VoiceFilter@@QAEFFF@Z	; VoiceFilter::IndexElement
	mov	WORD PTR _fragNumber$[ebp], ax

; 1467 : 				
; 1468 : 				VToolMsgData.eval[evalNum] = evalHdrNumber;

	mov	ecx, DWORD PTR _evalNum$[ebp]
	mov	dx, WORD PTR _evalHdrNumber$[ebp]
	mov	WORD PTR ?VToolMsgData@@3UVoiceToolData@@A[ecx*2+110], dx

; 1469 : 				_itoa(evalHdrNumber,buffer,10);

	push	10					; 0000000aH
	lea	eax, DWORD PTR _buffer$[ebp]
	push	eax
	movsx	ecx, WORD PTR _evalHdrNumber$[ebp]
	push	ecx
	call	__itoa
	add	esp, 12					; 0000000cH

; 1470 : 				Edit_SetText(GetDlgItem(hwnd,IDC_DATA15 + i), buffer);

	lea	edx, DWORD PTR _buffer$[ebp]
	push	edx
	mov	eax, DWORD PTR _i$[ebp]
	add	eax, 1472				; 000005c0H
	push	eax
	mov	ecx, DWORD PTR _hwnd$[ebp]
	push	ecx
	call	DWORD PTR __imp__GetDlgItem@8
	push	eax
	call	DWORD PTR __imp__SetWindowTextA@8

; 1471 : 				_itoa(VToolMsgData.maxs[evalNum],buffer,10);

	push	10					; 0000000aH
	lea	edx, DWORD PTR _buffer$[ebp]
	push	edx
	mov	eax, DWORD PTR _evalNum$[ebp]
	movsx	ecx, WORD PTR ?VToolMsgData@@3UVoiceToolData@@A[eax*2+80]
	push	ecx
	call	__itoa
	add	esp, 12					; 0000000cH

; 1472 : 				Edit_SetText(GetDlgItem(hwnd,IDC_DATA30 + i), buffer);

	lea	edx, DWORD PTR _buffer$[ebp]
	push	edx
	mov	eax, DWORD PTR _i$[ebp]
	add	eax, 1487				; 000005cfH
	push	eax
	mov	ecx, DWORD PTR _hwnd$[ebp]
	push	ecx
	call	DWORD PTR __imp__GetDlgItem@8
	push	eax
	call	DWORD PTR __imp__SetWindowTextA@8

; 1473 : 				_itoa(VToolMsgData.data[evalNum],buffer,10);

	push	10					; 0000000aH
	lea	edx, DWORD PTR _buffer$[ebp]
	push	edx
	mov	eax, DWORD PTR _evalNum$[ebp]
	movsx	ecx, WORD PTR ?VToolMsgData@@3UVoiceToolData@@A[eax*2+50]
	push	ecx
	call	__itoa
	add	esp, 12					; 0000000cH

; 1474 : 				Edit_SetText(GetDlgItem(hwnd,IDC_DATA45 + i), buffer);

	lea	edx, DWORD PTR _buffer$[ebp]
	push	edx
	mov	eax, DWORD PTR _i$[ebp]
	add	eax, 1502				; 000005deH
	push	eax
	mov	ecx, DWORD PTR _hwnd$[ebp]
	push	ecx
	call	DWORD PTR __imp__GetDlgItem@8
	push	eax
	call	DWORD PTR __imp__SetWindowTextA@8

; 1475 : 				evalNum++;

	mov	edx, DWORD PTR _evalNum$[ebp]
	add	edx, 1
	mov	DWORD PTR _evalNum$[ebp], edx

; 1476 : 			}
; 1477 : 			else

	jmp	SHORT $LN4@UpdateVoic
$LN5@UpdateVoic:

; 1478 : 			{
; 1479 : 				Edit_SetText(GetDlgItem(hwnd,IDC_DATA15 + i), "");

	push	OFFSET ??_C@_00CNPNBAHC@?$AA@
	mov	eax, DWORD PTR _i$[ebp]
	add	eax, 1472				; 000005c0H
	push	eax
	mov	ecx, DWORD PTR _hwnd$[ebp]
	push	ecx
	call	DWORD PTR __imp__GetDlgItem@8
	push	eax
	call	DWORD PTR __imp__SetWindowTextA@8

; 1480 : 				Edit_SetText(GetDlgItem(hwnd,IDC_DATA30 + i), "");

	push	OFFSET ??_C@_00CNPNBAHC@?$AA@
	mov	edx, DWORD PTR _i$[ebp]
	add	edx, 1487				; 000005cfH
	push	edx
	mov	eax, DWORD PTR _hwnd$[ebp]
	push	eax
	call	DWORD PTR __imp__GetDlgItem@8
	push	eax
	call	DWORD PTR __imp__SetWindowTextA@8

; 1481 : 				Edit_SetText(GetDlgItem(hwnd,IDC_DATA45 + i), "");

	push	OFFSET ??_C@_00CNPNBAHC@?$AA@
	mov	ecx, DWORD PTR _i$[ebp]
	add	ecx, 1502				; 000005deH
	push	ecx
	mov	edx, DWORD PTR _hwnd$[ebp]
	push	edx
	call	DWORD PTR __imp__GetDlgItem@8
	push	eax
	call	DWORD PTR __imp__SetWindowTextA@8

; 1482 : 				fragNumber = evalHdrNumber;

	mov	ax, WORD PTR _evalHdrNumber$[ebp]
	mov	WORD PTR _fragNumber$[ebp], ax
$LN4@UpdateVoic:

; 1483 : 			}
; 1484 : 			_itoa(fragNumber,buffer,10);

	push	10					; 0000000aH
	lea	ecx, DWORD PTR _buffer$[ebp]
	push	ecx
	movsx	edx, WORD PTR _fragNumber$[ebp]
	push	edx
	call	__itoa
	add	esp, 12					; 0000000cH

; 1485 : 			Edit_SetText(GetDlgItem(hwnd,IDC_DATA0 + i), buffer);

	lea	eax, DWORD PTR _buffer$[ebp]
	push	eax
	mov	ecx, DWORD PTR _i$[ebp]
	add	ecx, 1457				; 000005b1H
	push	ecx
	mov	edx, DWORD PTR _hwnd$[ebp]
	push	edx
	call	DWORD PTR __imp__GetDlgItem@8
	push	eax
	call	DWORD PTR __imp__SetWindowTextA@8

; 1486 : 			commInfo ++;

	mov	eax, DWORD PTR _commInfo$[ebp]
	add	eax, 2
	mov	DWORD PTR _commInfo$[ebp], eax

; 1487 : 		}

	jmp	$LN7@UpdateVoic
$LN9@UpdateVoic:

; 1488 : 	}
; 1489 : 	
; 1490 : 	for(i = commHdrInfo->totalElements; i< 15;i++)

	mov	ecx, DWORD PTR _commHdrInfo$[ebp]
	movzx	edx, BYTE PTR [ecx+8]
	mov	DWORD PTR _i$[ebp], edx
	jmp	SHORT $LN3@UpdateVoic
$LN2@UpdateVoic:
	mov	eax, DWORD PTR _i$[ebp]
	add	eax, 1
	mov	DWORD PTR _i$[ebp], eax
$LN3@UpdateVoic:
	cmp	DWORD PTR _i$[ebp], 15			; 0000000fH
	jge	$LN10@UpdateVoic

; 1491 : 	{
; 1492 : 		VToolMsgData.data[i] = 0;

	xor	ecx, ecx
	mov	edx, DWORD PTR _i$[ebp]
	mov	WORD PTR ?VToolMsgData@@3UVoiceToolData@@A[edx*2+50], cx

; 1493 : 		Edit_SetText(GetDlgItem(hwnd,IDC_DATA0 + i), "");

	push	OFFSET ??_C@_00CNPNBAHC@?$AA@
	mov	eax, DWORD PTR _i$[ebp]
	add	eax, 1457				; 000005b1H
	push	eax
	mov	ecx, DWORD PTR _hwnd$[ebp]
	push	ecx
	call	DWORD PTR __imp__GetDlgItem@8
	push	eax
	call	DWORD PTR __imp__SetWindowTextA@8

; 1494 : 		Edit_SetText(GetDlgItem(hwnd,IDC_DATA15 + i), "");

	push	OFFSET ??_C@_00CNPNBAHC@?$AA@
	mov	edx, DWORD PTR _i$[ebp]
	add	edx, 1472				; 000005c0H
	push	edx
	mov	eax, DWORD PTR _hwnd$[ebp]
	push	eax
	call	DWORD PTR __imp__GetDlgItem@8
	push	eax
	call	DWORD PTR __imp__SetWindowTextA@8

; 1495 : 		Edit_SetText(GetDlgItem(hwnd,IDC_DATA30 + i), "");

	push	OFFSET ??_C@_00CNPNBAHC@?$AA@
	mov	ecx, DWORD PTR _i$[ebp]
	add	ecx, 1487				; 000005cfH
	push	ecx
	mov	edx, DWORD PTR _hwnd$[ebp]
	push	edx
	call	DWORD PTR __imp__GetDlgItem@8
	push	eax
	call	DWORD PTR __imp__SetWindowTextA@8

; 1496 : 		Edit_SetText(GetDlgItem(hwnd,IDC_DATA45 + i), "");

	push	OFFSET ??_C@_00CNPNBAHC@?$AA@
	mov	eax, DWORD PTR _i$[ebp]
	add	eax, 1502				; 000005deH
	push	eax
	mov	ecx, DWORD PTR _hwnd$[ebp]
	push	ecx
	call	DWORD PTR __imp__GetDlgItem@8
	push	eax
	call	DWORD PTR __imp__SetWindowTextA@8

; 1497 : 	}

	jmp	$LN2@UpdateVoic
$LN10@UpdateVoic:

; 1498 : }

	mov	ecx, DWORD PTR __$ArrayPad$[ebp]
	xor	ecx, ebp
	call	@__security_check_cookie@4
	mov	esp, ebp
	pop	ebp
	ret	0
?UpdateVoiceDialog@@YAXPAUHWND__@@@Z ENDP		; UpdateVoiceDialog
_TEXT	ENDS
; Function compile flags: /Odtp
; File c:\users\zhitao li\documents\visual studio 2012\projects\freefalcon\falcsnd\voicefilter.cpp
_TEXT	SEGMENT
_eEvalData$ = -24					; size = 4
_commHdrInfo$ = -20					; size = 4
_commInfo$ = -16					; size = 4
_evalNum$ = -12						; size = 4
_i$ = -8						; size = 4
_evalHdrNumber$ = -4					; size = 2
?SetupNewMsg@@YAXXZ PROC				; SetupNewMsg

; 1166 : {

	push	ebp
	mov	ebp, esp
	sub	esp, 24					; 00000018H

; 1167 :     int i = 0;

	mov	DWORD PTR _i$[ebp], 0

; 1168 : 	COMM_FILE_INFO*	commHdrInfo;
; 1169 : //	char			*dcommPtr;
; 1170 : 	short			*commInfo;
; 1171 : 	short			evalHdrNumber = 0;

	xor	eax, eax
	mov	WORD PTR _evalHdrNumber$[ebp], ax

; 1172 : //	char			*dEvalData;
; 1173 : 	EVAL_FILE_INFO *eEvalData;
; 1174 : 	int				evalNum = 0;

	mov	DWORD PTR _evalNum$[ebp], 0

; 1175 : 	
; 1176 : 	for(i = 0; i< 15;i++)

	mov	DWORD PTR _i$[ebp], 0
	jmp	SHORT $LN11@SetupNewMs
$LN10@SetupNewMs:
	mov	ecx, DWORD PTR _i$[ebp]
	add	ecx, 1
	mov	DWORD PTR _i$[ebp], ecx
$LN11@SetupNewMs:
	cmp	DWORD PTR _i$[ebp], 15			; 0000000fH
	jge	SHORT $LN9@SetupNewMs

; 1177 : 	{
; 1178 : 		VToolMsgData.maxs[i] = 0;

	xor	edx, edx
	mov	eax, DWORD PTR _i$[ebp]
	mov	WORD PTR ?VToolMsgData@@3UVoiceToolData@@A[eax*2+80], dx

; 1179 : 	}

	jmp	SHORT $LN10@SetupNewMs
$LN9@SetupNewMs:

; 1180 : 	
; 1181 : 	commHdrInfo = voiceFilter->commfile.GetComm(VToolMsgData.message);

	mov	ecx, DWORD PTR ?VToolMsgData@@3UVoiceToolData@@A+8
	push	ecx
	mov	ecx, DWORD PTR ?voiceFilter@@3PAVVoiceFilter@@A ; voiceFilter
	call	?GetComm@CommFile@@QAEPAUCOMM_FILE_INFO@@H@Z ; CommFile::GetComm
	mov	DWORD PTR _commHdrInfo$[ebp], eax

; 1182 : 	
; 1183 : 	// use offset in  just aquired data to position pointer
; 1184 : //	dcommPtr = voiceFilter->commData + commHdrInfo->commOffset;
; 1185 : 	commInfo = voiceFilter->commfile.GetCommInd(commHdrInfo);

	mov	edx, DWORD PTR _commHdrInfo$[ebp]
	push	edx
	mov	ecx, DWORD PTR ?voiceFilter@@3PAVVoiceFilter@@A ; voiceFilter
	call	?GetCommInd@CommFile@@QAEPAFPAUCOMM_FILE_INFO@@@Z ; CommFile::GetCommInd
	mov	DWORD PTR _commInfo$[ebp], eax

; 1186 : 	for ( i = 0; i < commHdrInfo->totalElements; i ++ )

	mov	DWORD PTR _i$[ebp], 0
	jmp	SHORT $LN8@SetupNewMs
$LN7@SetupNewMs:
	mov	eax, DWORD PTR _i$[ebp]
	add	eax, 1
	mov	DWORD PTR _i$[ebp], eax
$LN8@SetupNewMs:
	mov	ecx, DWORD PTR _commHdrInfo$[ebp]
	movzx	edx, BYTE PTR [ecx+8]
	cmp	DWORD PTR _i$[ebp], edx
	jge	$LN6@SetupNewMs

; 1187 : 	{
; 1188 : 		evalHdrNumber = *commInfo;

	mov	eax, DWORD PTR _commInfo$[ebp]
	mov	cx, WORD PTR [eax]
	mov	WORD PTR _evalHdrNumber$[ebp], cx

; 1189 : 		if(evalHdrNumber < 0)

	movsx	edx, WORD PTR _evalHdrNumber$[ebp]
	test	edx, edx
	jge	$LN5@SetupNewMs

; 1190 : 		{
; 1191 : 			evalHdrNumber *= -1;

	movsx	eax, WORD PTR _evalHdrNumber$[ebp]
	imul	eax, -1
	mov	WORD PTR _evalHdrNumber$[ebp], ax

; 1192 : 			eEvalData = voiceFilter->evalfile.GetEval(evalHdrNumber);

	movsx	ecx, WORD PTR _evalHdrNumber$[ebp]
	push	ecx
	mov	ecx, DWORD PTR ?voiceFilter@@3PAVVoiceFilter@@A ; voiceFilter
	add	ecx, 44					; 0000002cH
	call	?GetEval@EvalFile@@QAEPAUEVAL_FILE_INFO@@H@Z ; EvalFile::GetEval
	mov	DWORD PTR _eEvalData$[ebp], eax

; 1193 : 			VToolMsgData.maxs[evalNum] = eEvalData->numEvals - 1;

	mov	edx, DWORD PTR _eEvalData$[ebp]
	movsx	eax, WORD PTR [edx+2]
	sub	eax, 1
	mov	ecx, DWORD PTR _evalNum$[ebp]
	mov	WORD PTR ?VToolMsgData@@3UVoiceToolData@@A[ecx*2+80], ax

; 1194 : 			if(VToolMsgData.data[evalNum] > VToolMsgData.maxs[evalNum])

	mov	edx, DWORD PTR _evalNum$[ebp]
	movsx	eax, WORD PTR ?VToolMsgData@@3UVoiceToolData@@A[edx*2+50]
	mov	ecx, DWORD PTR _evalNum$[ebp]
	movsx	edx, WORD PTR ?VToolMsgData@@3UVoiceToolData@@A[ecx*2+80]
	cmp	eax, edx
	jle	SHORT $LN4@SetupNewMs

; 1195 : 				VToolMsgData.data[evalNum] = VToolMsgData.maxs[evalNum];

	mov	eax, DWORD PTR _evalNum$[ebp]
	mov	ecx, DWORD PTR _evalNum$[ebp]
	mov	dx, WORD PTR ?VToolMsgData@@3UVoiceToolData@@A[ecx*2+80]
	mov	WORD PTR ?VToolMsgData@@3UVoiceToolData@@A[eax*2+50], dx
$LN4@SetupNewMs:

; 1196 : 			
; 1197 : 			VToolMsgData.eval[evalNum] = evalHdrNumber;

	mov	eax, DWORD PTR _evalNum$[ebp]
	mov	cx, WORD PTR _evalHdrNumber$[ebp]
	mov	WORD PTR ?VToolMsgData@@3UVoiceToolData@@A[eax*2+110], cx

; 1198 : 			VToolMsgData.element[evalNum] = (short)i;

	mov	edx, DWORD PTR _evalNum$[ebp]
	mov	ax, WORD PTR _i$[ebp]
	mov	WORD PTR ?VToolMsgData@@3UVoiceToolData@@A[edx*2+20], ax

; 1199 : 			evalNum++;

	mov	ecx, DWORD PTR _evalNum$[ebp]
	add	ecx, 1
	mov	DWORD PTR _evalNum$[ebp], ecx
$LN5@SetupNewMs:

; 1200 : 		}
; 1201 : 		commInfo ++;

	mov	edx, DWORD PTR _commInfo$[ebp]
	add	edx, 2
	mov	DWORD PTR _commInfo$[ebp], edx

; 1202 : 	}

	jmp	$LN7@SetupNewMs
$LN6@SetupNewMs:

; 1203 : 	
; 1204 : 	for(i = commHdrInfo->totalElements; i< 15;i++)

	mov	eax, DWORD PTR _commHdrInfo$[ebp]
	movzx	ecx, BYTE PTR [eax+8]
	mov	DWORD PTR _i$[ebp], ecx
	jmp	SHORT $LN3@SetupNewMs
$LN2@SetupNewMs:
	mov	edx, DWORD PTR _i$[ebp]
	add	edx, 1
	mov	DWORD PTR _i$[ebp], edx
$LN3@SetupNewMs:
	cmp	DWORD PTR _i$[ebp], 15			; 0000000fH
	jge	SHORT $LN12@SetupNewMs

; 1205 : 	{
; 1206 : 		VToolMsgData.data[i] = 0;

	xor	eax, eax
	mov	ecx, DWORD PTR _i$[ebp]
	mov	WORD PTR ?VToolMsgData@@3UVoiceToolData@@A[ecx*2+50], ax

; 1207 : 	}

	jmp	SHORT $LN2@SetupNewMs
$LN12@SetupNewMs:

; 1208 : }

	mov	esp, ebp
	pop	ebp
	ret	0
?SetupNewMsg@@YAXXZ ENDP				; SetupNewMsg
_TEXT	ENDS
; Function compile flags: /Odtp
;	COMDAT ??1CommFile@@QAE@XZ
_TEXT	SEGMENT
_this$ = -4						; size = 4
??1CommFile@@QAE@XZ PROC				; CommFile::~CommFile, COMDAT
; _this$ = ecx
	push	ebp
	mov	ebp, esp
	push	ecx
	mov	DWORD PTR _this$[ebp], ecx
	mov	ecx, DWORD PTR _this$[ebp]
	call	??1FileMemMap@@QAE@XZ			; FileMemMap::~FileMemMap
	mov	esp, ebp
	pop	ebp
	ret	0
??1CommFile@@QAE@XZ ENDP				; CommFile::~CommFile
_TEXT	ENDS
; Function compile flags: /Odtp
; File c:\users\zhitao li\documents\visual studio 2012\projects\freefalcon\falcsnd\voicefilter.h
;	COMDAT ?GetCommInd@CommFile@@QAEPAFPAUCOMM_FILE_INFO@@@Z
_TEXT	SEGMENT
_this$ = -4						; size = 4
_cid$ = 8						; size = 4
?GetCommInd@CommFile@@QAEPAFPAUCOMM_FILE_INFO@@@Z PROC	; CommFile::GetCommInd, COMDAT
; _this$ = ecx

; 176  :     short *GetCommInd(COMM_FILE_INFO *cid) {

	push	ebp
	mov	ebp, esp
	push	ecx
	mov	DWORD PTR _this$[ebp], ecx

; 177  : 	return (short *)GetData(cid->commOffset, sizeof(short) * cid->totalElements);

	mov	eax, DWORD PTR _cid$[ebp]
	movzx	ecx, BYTE PTR [eax+8]
	shl	ecx, 1
	push	ecx
	mov	edx, DWORD PTR _cid$[ebp]
	mov	eax, DWORD PTR [edx+10]
	push	eax
	mov	ecx, DWORD PTR _this$[ebp]
	call	?GetData@FileMemMap@@QAEPAEHH@Z		; FileMemMap::GetData

; 178  :     };

	mov	esp, ebp
	pop	ebp
	ret	4
?GetCommInd@CommFile@@QAEPAFPAUCOMM_FILE_INFO@@@Z ENDP	; CommFile::GetCommInd
_TEXT	ENDS
; Function compile flags: /Odtp
; File c:\users\zhitao li\documents\visual studio 2012\projects\freefalcon\falcsnd\voicefilter.h
;	COMDAT ?GetWarp@CommFile@@QAEHH@Z
_TEXT	SEGMENT
_this$ = -8						; size = 4
_cp$ = -4						; size = 4
_commid$ = 8						; size = 4
?GetWarp@CommFile@@QAEHH@Z PROC				; CommFile::GetWarp, COMDAT
; _this$ = ecx

; 170  :     int GetWarp (int commid) {

	push	ebp
	mov	ebp, esp
	sub	esp, 8
	mov	DWORD PTR _this$[ebp], ecx

; 171  : 	COMM_FILE_INFO *cp = GetComm(commid);

	mov	eax, DWORD PTR _commid$[ebp]
	push	eax
	mov	ecx, DWORD PTR _this$[ebp]
	call	?GetComm@CommFile@@QAEPAUCOMM_FILE_INFO@@H@Z ; CommFile::GetComm
	mov	DWORD PTR _cp$[ebp], eax

; 172  : 	ShiAssert(cp != NULL);
; 173  : 	if (cp) return cp->warp;

	cmp	DWORD PTR _cp$[ebp], 0
	je	SHORT $LN1@GetWarp
	mov	ecx, DWORD PTR _cp$[ebp]
	movzx	eax, WORD PTR [ecx+2]
	jmp	SHORT $LN2@GetWarp
$LN1@GetWarp:

; 174  : 	return 0;

	xor	eax, eax
$LN2@GetWarp:

; 175  :     };

	mov	esp, ebp
	pop	ebp
	ret	4
?GetWarp@CommFile@@QAEHH@Z ENDP				; CommFile::GetWarp
_TEXT	ENDS
; Function compile flags: /Odtp
; File c:\users\zhitao li\documents\visual studio 2012\projects\freefalcon\falcsnd\voicefilter.h
;	COMDAT ?GetComm@CommFile@@QAEPAUCOMM_FILE_INFO@@H@Z
_TEXT	SEGMENT
_this$ = -4						; size = 4
_commid$ = 8						; size = 4
?GetComm@CommFile@@QAEPAUCOMM_FILE_INFO@@H@Z PROC	; CommFile::GetComm, COMDAT
; _this$ = ecx

; 167  :     COMM_FILE_INFO *GetComm(int commid) {

	push	ebp
	mov	ebp, esp
	push	ecx
	mov	DWORD PTR _this$[ebp], ecx

; 168  : 	return (COMM_FILE_INFO*)GetData(commid * sizeof(COMM_FILE_INFO), sizeof(COMM_FILE_INFO));

	push	14					; 0000000eH
	mov	eax, DWORD PTR _commid$[ebp]
	imul	eax, 14					; 0000000eH
	push	eax
	mov	ecx, DWORD PTR _this$[ebp]
	call	?GetData@FileMemMap@@QAEPAEHH@Z		; FileMemMap::GetData

; 169  :     };

	mov	esp, ebp
	pop	ebp
	ret	4
?GetComm@CommFile@@QAEPAUCOMM_FILE_INFO@@H@Z ENDP	; CommFile::GetComm
_TEXT	ENDS
; Function compile flags: /Odtp
; File c:\users\zhitao li\documents\visual studio 2012\projects\freefalcon\falcsnd\voicefilter.h
;	COMDAT ?MaxComms@CommFile@@QAEHXZ
_TEXT	SEGMENT
_this$ = -4						; size = 4
?MaxComms@CommFile@@QAEHXZ PROC				; CommFile::MaxComms, COMDAT
; _this$ = ecx

; 166  :     int MaxComms() { return maxcomms; };

	push	ebp
	mov	ebp, esp
	push	ecx
	mov	DWORD PTR _this$[ebp], ecx
	mov	eax, DWORD PTR _this$[ebp]
	mov	eax, DWORD PTR [eax+16]
	mov	esp, ebp
	pop	ebp
	ret	0
?MaxComms@CommFile@@QAEHXZ ENDP				; CommFile::MaxComms
_TEXT	ENDS
; Function compile flags: /Odtp
; File c:\users\zhitao li\documents\visual studio 2012\projects\freefalcon\falcsnd\voicefilter.h
;	COMDAT ?Initialise@CommFile@@QAEXXZ
_TEXT	SEGMENT
_c0$ = -8						; size = 4
_this$ = -4						; size = 4
?Initialise@CommFile@@QAEXXZ PROC			; CommFile::Initialise, COMDAT
; _this$ = ecx

; 162  :     void Initialise() { 

	push	ebp
	mov	ebp, esp
	sub	esp, 8
	mov	DWORD PTR _this$[ebp], ecx

; 163  : 	COMM_FILE_INFO *c0 = GetComm(0);

	push	0
	mov	ecx, DWORD PTR _this$[ebp]
	call	?GetComm@CommFile@@QAEPAUCOMM_FILE_INFO@@H@Z ; CommFile::GetComm
	mov	DWORD PTR _c0$[ebp], eax

; 164  : 	maxcomms = c0->commOffset / sizeof *c0;

	mov	eax, DWORD PTR _c0$[ebp]
	mov	eax, DWORD PTR [eax+10]
	xor	edx, edx
	mov	ecx, 14					; 0000000eH
	div	ecx
	mov	edx, DWORD PTR _this$[ebp]
	mov	DWORD PTR [edx+16], eax

; 165  :     };

	mov	esp, ebp
	pop	ebp
	ret	0
?Initialise@CommFile@@QAEXXZ ENDP			; CommFile::Initialise
_TEXT	ENDS
; Function compile flags: /Odtp
; File c:\users\zhitao li\documents\visual studio 2012\projects\freefalcon\falcsnd\voicefilter.h
;	COMDAT ??0CommFile@@QAE@XZ
_TEXT	SEGMENT
_this$ = -4						; size = 4
??0CommFile@@QAE@XZ PROC				; CommFile::CommFile, COMDAT
; _this$ = ecx

; 161  :     CommFile() : maxcomms(-1) {};

	push	ebp
	mov	ebp, esp
	push	ecx
	mov	DWORD PTR _this$[ebp], ecx
	mov	ecx, DWORD PTR _this$[ebp]
	call	??0FileMemMap@@QAE@XZ			; FileMemMap::FileMemMap
	mov	eax, DWORD PTR _this$[ebp]
	mov	DWORD PTR [eax+16], -1
	mov	eax, DWORD PTR _this$[ebp]
	mov	esp, ebp
	pop	ebp
	ret	0
??0CommFile@@QAE@XZ ENDP				; CommFile::CommFile
_TEXT	ENDS
; Function compile flags: /Odtp
;	COMDAT ??1EvalFile@@QAE@XZ
_TEXT	SEGMENT
_this$ = -4						; size = 4
??1EvalFile@@QAE@XZ PROC				; EvalFile::~EvalFile, COMDAT
; _this$ = ecx
	push	ebp
	mov	ebp, esp
	push	ecx
	mov	DWORD PTR _this$[ebp], ecx
	mov	ecx, DWORD PTR _this$[ebp]
	call	??1FileMemMap@@QAE@XZ			; FileMemMap::~FileMemMap
	mov	esp, ebp
	pop	ebp
	ret	0
??1EvalFile@@QAE@XZ ENDP				; EvalFile::~EvalFile
_TEXT	ENDS
; Function compile flags: /Odtp
; File c:\users\zhitao li\documents\visual studio 2012\projects\freefalcon\falcsnd\voicefilter.h
;	COMDAT ?GetEvalElem@EvalFile@@QAEPAUEVAL_ELEM@@PAUEVAL_FILE_INFO@@@Z
_TEXT	SEGMENT
_this$ = -4						; size = 4
_efi$ = 8						; size = 4
?GetEvalElem@EvalFile@@QAEPAUEVAL_ELEM@@PAUEVAL_FILE_INFO@@@Z PROC ; EvalFile::GetEvalElem, COMDAT
; _this$ = ecx

; 153  :     EVAL_ELEM *GetEvalElem(EVAL_FILE_INFO *efi) {

	push	ebp
	mov	ebp, esp
	push	ecx
	mov	DWORD PTR _this$[ebp], ecx

; 154  : 	return (EVAL_ELEM*) GetData(efi->evalOffset, sizeof(EVAL_ELEM) * efi->numEvals);

	mov	eax, DWORD PTR _efi$[ebp]
	movsx	ecx, WORD PTR [eax+2]
	shl	ecx, 2
	push	ecx
	mov	edx, DWORD PTR _efi$[ebp]
	mov	eax, DWORD PTR [edx+4]
	push	eax
	mov	ecx, DWORD PTR _this$[ebp]
	call	?GetData@FileMemMap@@QAEPAEHH@Z		; FileMemMap::GetData

; 155  :     };

	mov	esp, ebp
	pop	ebp
	ret	4
?GetEvalElem@EvalFile@@QAEPAUEVAL_ELEM@@PAUEVAL_FILE_INFO@@@Z ENDP ; EvalFile::GetEvalElem
_TEXT	ENDS
; Function compile flags: /Odtp
; File c:\users\zhitao li\documents\visual studio 2012\projects\freefalcon\falcsnd\voicefilter.h
;	COMDAT ?GetEval@EvalFile@@QAEPAUEVAL_FILE_INFO@@H@Z
_TEXT	SEGMENT
_this$ = -4						; size = 4
_eindex$ = 8						; size = 4
?GetEval@EvalFile@@QAEPAUEVAL_FILE_INFO@@H@Z PROC	; EvalFile::GetEval, COMDAT
; _this$ = ecx

; 150  :     EVAL_FILE_INFO *GetEval(int eindex) {

	push	ebp
	mov	ebp, esp
	push	ecx
	mov	DWORD PTR _this$[ebp], ecx

; 151  : 	return (EVAL_FILE_INFO*)GetData(eindex * sizeof(EVAL_FILE_INFO), sizeof(EVAL_FILE_INFO));

	push	8
	mov	eax, DWORD PTR _eindex$[ebp]
	shl	eax, 3
	push	eax
	mov	ecx, DWORD PTR _this$[ebp]
	call	?GetData@FileMemMap@@QAEPAEHH@Z		; FileMemMap::GetData

; 152  :     };

	mov	esp, ebp
	pop	ebp
	ret	4
?GetEval@EvalFile@@QAEPAUEVAL_FILE_INFO@@H@Z ENDP	; EvalFile::GetEval
_TEXT	ENDS
; Function compile flags: /Odtp
; File c:\users\zhitao li\documents\visual studio 2012\projects\freefalcon\falcsnd\voicefilter.h
;	COMDAT ?MaxEvals@EvalFile@@QAEHXZ
_TEXT	SEGMENT
_this$ = -4						; size = 4
?MaxEvals@EvalFile@@QAEHXZ PROC				; EvalFile::MaxEvals, COMDAT
; _this$ = ecx

; 149  :     int MaxEvals() { return maxevals; };

	push	ebp
	mov	ebp, esp
	push	ecx
	mov	DWORD PTR _this$[ebp], ecx
	mov	eax, DWORD PTR _this$[ebp]
	mov	eax, DWORD PTR [eax+16]
	mov	esp, ebp
	pop	ebp
	ret	0
?MaxEvals@EvalFile@@QAEHXZ ENDP				; EvalFile::MaxEvals
_TEXT	ENDS
; Function compile flags: /Odtp
; File c:\users\zhitao li\documents\visual studio 2012\projects\freefalcon\falcsnd\voicefilter.h
;	COMDAT ?Initialise@EvalFile@@QAEXXZ
_TEXT	SEGMENT
_e1$ = -8						; size = 4
_this$ = -4						; size = 4
?Initialise@EvalFile@@QAEXXZ PROC			; EvalFile::Initialise, COMDAT
; _this$ = ecx

; 145  :     void Initialise() { 

	push	ebp
	mov	ebp, esp
	sub	esp, 8
	mov	DWORD PTR _this$[ebp], ecx

; 146  : 	EVAL_FILE_INFO *e1 = GetEval(0);

	push	0
	mov	ecx, DWORD PTR _this$[ebp]
	call	?GetEval@EvalFile@@QAEPAUEVAL_FILE_INFO@@H@Z ; EvalFile::GetEval
	mov	DWORD PTR _e1$[ebp], eax

; 147  : 	maxevals = e1->evalOffset / sizeof(*e1);

	mov	eax, DWORD PTR _e1$[ebp]
	mov	ecx, DWORD PTR [eax+4]
	shr	ecx, 3
	mov	edx, DWORD PTR _this$[ebp]
	mov	DWORD PTR [edx+16], ecx

; 148  :     };

	mov	esp, ebp
	pop	ebp
	ret	0
?Initialise@EvalFile@@QAEXXZ ENDP			; EvalFile::Initialise
_TEXT	ENDS
; Function compile flags: /Odtp
; File c:\users\zhitao li\documents\visual studio 2012\projects\freefalcon\falcsnd\voicefilter.h
;	COMDAT ??0EvalFile@@QAE@XZ
_TEXT	SEGMENT
_this$ = -4						; size = 4
??0EvalFile@@QAE@XZ PROC				; EvalFile::EvalFile, COMDAT
; _this$ = ecx

; 144  :     EvalFile() : maxevals(-1) {};

	push	ebp
	mov	ebp, esp
	push	ecx
	mov	DWORD PTR _this$[ebp], ecx
	mov	ecx, DWORD PTR _this$[ebp]
	call	??0FileMemMap@@QAE@XZ			; FileMemMap::FileMemMap
	mov	eax, DWORD PTR _this$[ebp]
	mov	DWORD PTR [eax+16], -1
	mov	eax, DWORD PTR _this$[ebp]
	mov	esp, ebp
	pop	ebp
	ret	0
??0EvalFile@@QAE@XZ ENDP				; EvalFile::EvalFile
_TEXT	ENDS
; Function compile flags: /Odtp
;	COMDAT ??1FragFile@@QAE@XZ
_TEXT	SEGMENT
_this$ = -4						; size = 4
??1FragFile@@QAE@XZ PROC				; FragFile::~FragFile, COMDAT
; _this$ = ecx
	push	ebp
	mov	ebp, esp
	push	ecx
	mov	DWORD PTR _this$[ebp], ecx
	mov	ecx, DWORD PTR _this$[ebp]
	call	??1FileMemMap@@QAE@XZ			; FileMemMap::~FileMemMap
	mov	esp, ebp
	pop	ebp
	ret	0
??1FragFile@@QAE@XZ ENDP				; FragFile::~FragFile
_TEXT	ENDS
; Function compile flags: /Odtp
; File c:\users\zhitao li\documents\visual studio 2012\projects\freefalcon\falcsnd\voicefilter.h
;	COMDAT ?GetSpeaker@FragFile@@QAEPAUSPEAKER_TO_FILE@@PAUFRAG_FILE_INFO@@@Z
_TEXT	SEGMENT
_this$ = -4						; size = 4
_ff$ = 8						; size = 4
?GetSpeaker@FragFile@@QAEPAUSPEAKER_TO_FILE@@PAUFRAG_FILE_INFO@@@Z PROC ; FragFile::GetSpeaker, COMDAT
; _this$ = ecx

; 136  :     SPEAKER_TO_FILE *GetSpeaker(FRAG_FILE_INFO *ff) {

	push	ebp
	mov	ebp, esp
	push	ecx
	mov	DWORD PTR _this$[ebp], ecx

; 137  : 	return (SPEAKER_TO_FILE *)GetData(ff->fragOffset, sizeof (SPEAKER_TO_FILE) * ff->totalSpeakers);

	mov	eax, DWORD PTR _ff$[ebp]
	movsx	ecx, WORD PTR [eax+2]
	shl	ecx, 2
	push	ecx
	mov	edx, DWORD PTR _ff$[ebp]
	mov	eax, DWORD PTR [edx+4]
	push	eax
	mov	ecx, DWORD PTR _this$[ebp]
	call	?GetData@FileMemMap@@QAEPAEHH@Z		; FileMemMap::GetData

; 138  :     };

	mov	esp, ebp
	pop	ebp
	ret	4
?GetSpeaker@FragFile@@QAEPAUSPEAKER_TO_FILE@@PAUFRAG_FILE_INFO@@@Z ENDP ; FragFile::GetSpeaker
_TEXT	ENDS
; Function compile flags: /Odtp
; File c:\users\zhitao li\documents\visual studio 2012\projects\freefalcon\falcsnd\voicefilter.h
;	COMDAT ?GetFragInfo@FragFile@@QAEPAUFRAG_FILE_INFO@@H@Z
_TEXT	SEGMENT
_this$ = -4						; size = 4
_fragid$ = 8						; size = 4
?GetFragInfo@FragFile@@QAEPAUFRAG_FILE_INFO@@H@Z PROC	; FragFile::GetFragInfo, COMDAT
; _this$ = ecx

; 133  :     FRAG_FILE_INFO *GetFragInfo(int fragid) {

	push	ebp
	mov	ebp, esp
	push	ecx
	mov	DWORD PTR _this$[ebp], ecx

; 134  : 	return (FRAG_FILE_INFO*)GetData(sizeof(FRAG_FILE_INFO)*fragid, sizeof(FRAG_FILE_INFO));

	push	8
	mov	eax, DWORD PTR _fragid$[ebp]
	shl	eax, 3
	push	eax
	mov	ecx, DWORD PTR _this$[ebp]
	call	?GetData@FileMemMap@@QAEPAEHH@Z		; FileMemMap::GetData

; 135  :     };

	mov	esp, ebp
	pop	ebp
	ret	4
?GetFragInfo@FragFile@@QAEPAUFRAG_FILE_INFO@@H@Z ENDP	; FragFile::GetFragInfo
_TEXT	ENDS
; Function compile flags: /Odtp
; File c:\users\zhitao li\documents\visual studio 2012\projects\freefalcon\falcsnd\voicefilter.h
;	COMDAT ?MaxVoices@FragFile@@QAEHXZ
_TEXT	SEGMENT
_this$ = -4						; size = 4
?MaxVoices@FragFile@@QAEHXZ PROC			; FragFile::MaxVoices, COMDAT
; _this$ = ecx

; 132  :     int MaxVoices() { return maxvoices; };

	push	ebp
	mov	ebp, esp
	push	ecx
	mov	DWORD PTR _this$[ebp], ecx
	mov	eax, DWORD PTR _this$[ebp]
	mov	eax, DWORD PTR [eax+20]
	mov	esp, ebp
	pop	ebp
	ret	0
?MaxVoices@FragFile@@QAEHXZ ENDP			; FragFile::MaxVoices
_TEXT	ENDS
; Function compile flags: /Odtp
; File c:\users\zhitao li\documents\visual studio 2012\projects\freefalcon\falcsnd\voicefilter.h
;	COMDAT ?MaxFrags@FragFile@@QAEHXZ
_TEXT	SEGMENT
_this$ = -4						; size = 4
?MaxFrags@FragFile@@QAEHXZ PROC				; FragFile::MaxFrags, COMDAT
; _this$ = ecx

; 131  :     int MaxFrags() { return maxfrags; };

	push	ebp
	mov	ebp, esp
	push	ecx
	mov	DWORD PTR _this$[ebp], ecx
	mov	eax, DWORD PTR _this$[ebp]
	mov	eax, DWORD PTR [eax+16]
	mov	esp, ebp
	pop	ebp
	ret	0
?MaxFrags@FragFile@@QAEHXZ ENDP				; FragFile::MaxFrags
_TEXT	ENDS
; Function compile flags: /Odtp
; File c:\users\zhitao li\documents\visual studio 2012\projects\freefalcon\falcsnd\voicefilter.h
;	COMDAT ?Initialise@FragFile@@QAEXXZ
_TEXT	SEGMENT
_f1$ = -8						; size = 4
_this$ = -4						; size = 4
?Initialise@FragFile@@QAEXXZ PROC			; FragFile::Initialise, COMDAT
; _this$ = ecx

; 126  :     void Initialise() { 

	push	ebp
	mov	ebp, esp
	sub	esp, 8
	mov	DWORD PTR _this$[ebp], ecx

; 127  : 	    FRAG_FILE_INFO *f1 = GetFragInfo(0);

	push	0
	mov	ecx, DWORD PTR _this$[ebp]
	call	?GetFragInfo@FragFile@@QAEPAUFRAG_FILE_INFO@@H@Z ; FragFile::GetFragInfo
	mov	DWORD PTR _f1$[ebp], eax

; 128  : 	    maxfrags = f1->fragOffset / sizeof(*f1);

	mov	eax, DWORD PTR _f1$[ebp]
	mov	ecx, DWORD PTR [eax+4]
	shr	ecx, 3
	mov	edx, DWORD PTR _this$[ebp]
	mov	DWORD PTR [edx+16], ecx

; 129  : 	    maxvoices = f1->totalSpeakers;

	mov	eax, DWORD PTR _f1$[ebp]
	movsx	ecx, WORD PTR [eax+2]
	mov	edx, DWORD PTR _this$[ebp]
	mov	DWORD PTR [edx+20], ecx

; 130  :     };

	mov	esp, ebp
	pop	ebp
	ret	0
?Initialise@FragFile@@QAEXXZ ENDP			; FragFile::Initialise
_TEXT	ENDS
; Function compile flags: /Odtp
; File c:\users\zhitao li\documents\visual studio 2012\projects\freefalcon\falcsnd\voicefilter.h
;	COMDAT ??0FragFile@@QAE@XZ
_TEXT	SEGMENT
_this$ = -4						; size = 4
??0FragFile@@QAE@XZ PROC				; FragFile::FragFile, COMDAT
; _this$ = ecx

; 125  :     FragFile() : maxfrags(-1), maxvoices(-1) {};

	push	ebp
	mov	ebp, esp
	push	ecx
	mov	DWORD PTR _this$[ebp], ecx
	mov	ecx, DWORD PTR _this$[ebp]
	call	??0FileMemMap@@QAE@XZ			; FileMemMap::FileMemMap
	mov	eax, DWORD PTR _this$[ebp]
	mov	DWORD PTR [eax+16], -1
	mov	ecx, DWORD PTR _this$[ebp]
	mov	DWORD PTR [ecx+20], -1
	mov	eax, DWORD PTR _this$[ebp]
	mov	esp, ebp
	pop	ebp
	ret	0
??0FragFile@@QAE@XZ ENDP				; FragFile::FragFile
_TEXT	ENDS
; Function compile flags: /Odtp
;	COMDAT ??0CONVERSATION@@QAE@XZ
_TEXT	SEGMENT
_this$ = -4						; size = 4
??0CONVERSATION@@QAE@XZ PROC				; CONVERSATION::CONVERSATION, COMDAT
; _this$ = ecx
	push	ebp
	mov	ebp, esp
	push	ecx
	mov	DWORD PTR _this$[ebp], ecx
	mov	ecx, DWORD PTR _this$[ebp]
	add	ecx, 16					; 00000010H
	call	??0VU_ID@@QAE@XZ			; VU_ID::VU_ID
	mov	ecx, DWORD PTR _this$[ebp]
	add	ecx, 24					; 00000018H
	call	??0VU_ID@@QAE@XZ			; VU_ID::VU_ID
	mov	eax, DWORD PTR _this$[ebp]
	mov	esp, ebp
	pop	ebp
	ret	0
??0CONVERSATION@@QAE@XZ ENDP				; CONVERSATION::CONVERSATION
_TEXT	ENDS
; Function compile flags: /Odtp
; File c:\users\zhitao li\documents\visual studio 2012\projects\freefalcon\falclib\include\mltrig.h
;	COMDAT ?checked_atan2@@YANNN@Z
_TEXT	SEGMENT
_z$ = -8						; size = 8
_y$ = 8							; size = 8
_x$ = 16						; size = 8
?checked_atan2@@YANNN@Z PROC				; checked_atan2, COMDAT

; 46   : {

	push	ebp
	mov	ebp, esp
	sub	esp, 8

; 47   : 	double z;
; 48   : 	
; 49   : 	if (x == -0.0)

	movsd	xmm0, QWORD PTR _x$[ebp]
	ucomisd	xmm0, QWORD PTR __real@8000000000000000
	lahf
	test	ah, 68					; 00000044H
	jp	SHORT $LN8@checked_at

; 50   : 		x = 0.0;

	movsd	xmm0, QWORD PTR __real@0000000000000000
	movsd	QWORD PTR _x$[ebp], xmm0
$LN8@checked_at:

; 51   : 	
; 52   : 	if (x != 0)

	movsd	xmm0, QWORD PTR _x$[ebp]
	ucomisd	xmm0, QWORD PTR __real@0000000000000000
	lahf
	test	ah, 68					; 00000044H
	jnp	SHORT $LN7@checked_at

; 53   : 		z = atan(y / x);

	movsd	xmm0, QWORD PTR _y$[ebp]
	divsd	xmm0, QWORD PTR _x$[ebp]
	sub	esp, 8
	movsd	QWORD PTR [esp], xmm0
	call	_atan
	add	esp, 8
	fstp	QWORD PTR _z$[ebp]
	jmp	SHORT $LN4@checked_at
$LN7@checked_at:

; 54   : 	else if (y > 0)

	movsd	xmm0, QWORD PTR _y$[ebp]
	comisd	xmm0, QWORD PTR __real@0000000000000000
	jbe	SHORT $LN5@checked_at

; 55   : 		z = HALF_DPI;

	movsd	xmm0, QWORD PTR __real@3ff921fb54442d18
	movsd	QWORD PTR _z$[ebp], xmm0

; 56   : 	else

	jmp	SHORT $LN4@checked_at
$LN5@checked_at:

; 57   : 		z = -HALF_DPI;

	movsd	xmm0, QWORD PTR __real@bff921fb54442d18
	movsd	QWORD PTR _z$[ebp], xmm0
$LN4@checked_at:

; 58   : 
; 59   : 	if (x < 0)

	movsd	xmm0, QWORD PTR __real@0000000000000000
	comisd	xmm0, QWORD PTR _x$[ebp]
	jbe	SHORT $LN1@checked_at

; 60   : 	{
; 61   : 		if (y < 0)

	movsd	xmm0, QWORD PTR __real@0000000000000000
	comisd	xmm0, QWORD PTR _y$[ebp]
	jbe	SHORT $LN2@checked_at

; 62   : 			z -= DPI;

	movsd	xmm0, QWORD PTR _z$[ebp]
	subsd	xmm0, QWORD PTR __real@400921fb54442d18
	movsd	QWORD PTR _z$[ebp], xmm0

; 63   : 		else

	jmp	SHORT $LN1@checked_at
$LN2@checked_at:

; 64   : 			z += DPI;

	movsd	xmm0, QWORD PTR _z$[ebp]
	addsd	xmm0, QWORD PTR __real@400921fb54442d18
	movsd	QWORD PTR _z$[ebp], xmm0
$LN1@checked_at:

; 65   : 	}
; 66   : 
; 67   : 	return z;

	fld	QWORD PTR _z$[ebp]

; 68   : }

	mov	esp, ebp
	pop	ebp
	ret	0
?checked_atan2@@YANNN@Z ENDP				; checked_atan2
_TEXT	ENDS
; Function compile flags: /Odtp
; File c:\users\zhitao li\documents\visual studio 2012\projects\freefalcon\vu2\include\vu_templates.h
;	COMDAT ?get@?$VuBin@VVuSessionEntity@@@@QBEPAVVuSessionEntity@@XZ
_TEXT	SEGMENT
_this$ = -4						; size = 4
?get@?$VuBin@VVuSessionEntity@@@@QBEPAVVuSessionEntity@@XZ PROC ; VuBin<VuSessionEntity>::get, COMDAT
; _this$ = ecx

; 55   : 	E *get() const{

	push	ebp
	mov	ebp, esp
	push	ecx
	mov	DWORD PTR _this$[ebp], ecx

; 56   : 		return e;

	mov	eax, DWORD PTR _this$[ebp]
	mov	eax, DWORD PTR [eax]

; 57   : 	}

	mov	esp, ebp
	pop	ebp
	ret	0
?get@?$VuBin@VVuSessionEntity@@@@QBEPAVVuSessionEntity@@XZ ENDP ; VuBin<VuSessionEntity>::get
_TEXT	ENDS
; Function compile flags: /Odtp
; File c:\program files (x86)\microsoft visual studio 11.0\vc\include\xstring
;	COMDAT ?_Xran@?$basic_string@DU?$char_traits@D@std@@V?$allocator@D@2@@std@@QBEXXZ
_TEXT	SEGMENT
_this$ = -4						; size = 4
?_Xran@?$basic_string@DU?$char_traits@D@std@@V?$allocator@D@2@@std@@QBEXXZ PROC ; std::basic_string<char,std::char_traits<char>,std::allocator<char> >::_Xran, COMDAT
; _this$ = ecx

; 2275 : 		{	// report an out_of_range error

	push	ebp
	mov	ebp, esp
	push	ecx
	mov	DWORD PTR _this$[ebp], ecx

; 2276 : 		_Xout_of_range("invalid string position");

	push	OFFSET ??_C@_0BI@CFPLBAOH@invalid?5string?5position?$AA@
	call	?_Xout_of_range@std@@YAXPBD@Z		; std::_Xout_of_range
$LN2@Xran:

; 2277 : 		}

	mov	esp, ebp
	pop	ebp
	ret	0
?_Xran@?$basic_string@DU?$char_traits@D@std@@V?$allocator@D@2@@std@@QBEXXZ ENDP ; std::basic_string<char,std::char_traits<char>,std::allocator<char> >::_Xran
_TEXT	ENDS
; Function compile flags: /Odtp
; File c:\program files (x86)\microsoft visual studio 11.0\vc\include\xstring
;	COMDAT ?_Xlen@?$basic_string@DU?$char_traits@D@std@@V?$allocator@D@2@@std@@QBEXXZ
_TEXT	SEGMENT
_this$ = -4						; size = 4
?_Xlen@?$basic_string@DU?$char_traits@D@std@@V?$allocator@D@2@@std@@QBEXXZ PROC ; std::basic_string<char,std::char_traits<char>,std::allocator<char> >::_Xlen, COMDAT
; _this$ = ecx

; 2270 : 		{	// report a length_error

	push	ebp
	mov	ebp, esp
	push	ecx
	mov	DWORD PTR _this$[ebp], ecx

; 2271 : 		_Xlength_error("string too long");

	push	OFFSET ??_C@_0BA@JFNIOLAK@string?5too?5long?$AA@
	call	?_Xlength_error@std@@YAXPBD@Z		; std::_Xlength_error
$LN2@Xlen:

; 2272 : 		}

	mov	esp, ebp
	pop	ebp
	ret	0
?_Xlen@?$basic_string@DU?$char_traits@D@std@@V?$allocator@D@2@@std@@QBEXXZ ENDP ; std::basic_string<char,std::char_traits<char>,std::allocator<char> >::_Xlen
_TEXT	ENDS
; Function compile flags: /Odtp
; File c:\program files (x86)\microsoft visual studio 11.0\vc\include\xstring
;	COMDAT ?_Tidy@?$basic_string@DU?$char_traits@D@std@@V?$allocator@D@2@@std@@QAEX_NI@Z
_TEXT	SEGMENT
__Ptr$1 = -12						; size = 4
_this$ = -8						; size = 4
$T2 = -2						; size = 1
$T3 = -1						; size = 1
__Built$ = 8						; size = 1
__Newsize$ = 12						; size = 4
?_Tidy@?$basic_string@DU?$char_traits@D@std@@V?$allocator@D@2@@std@@QAEX_NI@Z PROC ; std::basic_string<char,std::char_traits<char>,std::allocator<char> >::_Tidy, COMDAT
; _this$ = ecx

; 2253 : 		{	// initialize buffer, deallocating any storage

	push	ebp
	mov	ebp, esp
	sub	esp, 12					; 0000000cH
	mov	DWORD PTR _this$[ebp], ecx

; 2254 : 		if (!_Built)

	movzx	eax, BYTE PTR __Built$[ebp]
	test	eax, eax
	jne	SHORT $LN4@Tidy
	jmp	SHORT $LN3@Tidy
$LN4@Tidy:

; 2255 : 			;
; 2256 : 		else if (this->_BUF_SIZE <= this->_Myres)

	mov	ecx, DWORD PTR _this$[ebp]
	cmp	DWORD PTR [ecx+20], 16			; 00000010H
	jb	SHORT $LN3@Tidy

; 2257 : 			{	// copy any leftovers to small buffer and deallocate
; 2258 : 			pointer _Ptr = this->_Bx._Ptr;

	mov	edx, DWORD PTR _this$[ebp]
	mov	eax, DWORD PTR [edx]
	mov	DWORD PTR __Ptr$1[ebp], eax

; 2259 : 			this->_Getal().destroy(&this->_Bx._Ptr);

	mov	ecx, DWORD PTR _this$[ebp]
	push	ecx
	lea	edx, DWORD PTR $T3[ebp]
	push	edx
	mov	ecx, DWORD PTR _this$[ebp]
	call	?_Getal@?$_String_alloc@$0A@U?$_String_base_types@DV?$allocator@D@std@@@std@@@std@@QBE?AU?$_Wrap_alloc@V?$allocator@D@std@@@2@XZ ; std::_String_alloc<0,std::_String_base_types<char,std::allocator<char> > >::_Getal
	mov	ecx, eax
	call	??$destroy@PAD@?$_Wrap_alloc@V?$allocator@D@std@@@std@@QAEXPAPAD@Z ; std::_Wrap_alloc<std::allocator<char> >::destroy<char *>

; 2260 : 			if (0 < _Newsize)

	cmp	DWORD PTR __Newsize$[ebp], 0
	jbe	SHORT $LN1@Tidy

; 2261 : 				_Traits::copy(this->_Bx._Buf,
; 2262 : 					_STD addressof(*_Ptr), _Newsize);

	mov	eax, DWORD PTR __Newsize$[ebp]
	push	eax
	mov	ecx, DWORD PTR __Ptr$1[ebp]
	push	ecx
	call	??$addressof@D@std@@YAPADAAD@Z		; std::addressof<char>
	add	esp, 4
	push	eax
	mov	edx, DWORD PTR _this$[ebp]
	push	edx
	call	?copy@?$char_traits@D@std@@SAPADPADPBDI@Z ; std::char_traits<char>::copy
	add	esp, 12					; 0000000cH
$LN1@Tidy:

; 2263 : 			this->_Getal().deallocate(_Ptr, this->_Myres + 1);

	mov	eax, DWORD PTR _this$[ebp]
	mov	ecx, DWORD PTR [eax+20]
	add	ecx, 1
	push	ecx
	mov	edx, DWORD PTR __Ptr$1[ebp]
	push	edx
	lea	eax, DWORD PTR $T2[ebp]
	push	eax
	mov	ecx, DWORD PTR _this$[ebp]
	call	?_Getal@?$_String_alloc@$0A@U?$_String_base_types@DV?$allocator@D@std@@@std@@@std@@QBE?AU?$_Wrap_alloc@V?$allocator@D@std@@@2@XZ ; std::_String_alloc<0,std::_String_base_types<char,std::allocator<char> > >::_Getal
	mov	ecx, eax
	call	?deallocate@?$_Wrap_alloc@V?$allocator@D@std@@@std@@QAEXPADI@Z ; std::_Wrap_alloc<std::allocator<char> >::deallocate
$LN3@Tidy:

; 2264 : 			}
; 2265 : 		this->_Myres = this->_BUF_SIZE - 1;

	mov	ecx, DWORD PTR _this$[ebp]
	mov	DWORD PTR [ecx+20], 15			; 0000000fH

; 2266 : 		_Eos(_Newsize);

	mov	edx, DWORD PTR __Newsize$[ebp]
	push	edx
	mov	ecx, DWORD PTR _this$[ebp]
	call	?_Eos@?$basic_string@DU?$char_traits@D@std@@V?$allocator@D@2@@std@@QAEXI@Z ; std::basic_string<char,std::char_traits<char>,std::allocator<char> >::_Eos

; 2267 : 		}

	mov	esp, ebp
	pop	ebp
	ret	8
?_Tidy@?$basic_string@DU?$char_traits@D@std@@V?$allocator@D@2@@std@@QAEX_NI@Z ENDP ; std::basic_string<char,std::char_traits<char>,std::allocator<char> >::_Tidy
_TEXT	ENDS
; Function compile flags: /Odtp
; File c:\program files (x86)\microsoft visual studio 11.0\vc\include\xstring
;	COMDAT ?_Inside@?$basic_string@DU?$char_traits@D@std@@V?$allocator@D@2@@std@@QAE_NPBD@Z
_TEXT	SEGMENT
_this$ = -4						; size = 4
__Ptr$ = 8						; size = 4
?_Inside@?$basic_string@DU?$char_traits@D@std@@V?$allocator@D@2@@std@@QAE_NPBD@Z PROC ; std::basic_string<char,std::char_traits<char>,std::allocator<char> >::_Inside, COMDAT
; _this$ = ecx

; 2237 : 		{	// test if _Ptr points inside string

	push	ebp
	mov	ebp, esp
	push	ecx
	mov	DWORD PTR _this$[ebp], ecx

; 2238 : 		if (_Ptr == 0 || _Ptr < this->_Myptr()
; 2239 : 			|| this->_Myptr() + this->_Mysize <= _Ptr)

	cmp	DWORD PTR __Ptr$[ebp], 0
	je	SHORT $LN2@Inside
	mov	ecx, DWORD PTR _this$[ebp]
	call	?_Myptr@?$_String_val@U?$_Simple_types@D@std@@@std@@QAEPADXZ ; std::_String_val<std::_Simple_types<char> >::_Myptr
	cmp	DWORD PTR __Ptr$[ebp], eax
	jb	SHORT $LN2@Inside
	mov	ecx, DWORD PTR _this$[ebp]
	call	?_Myptr@?$_String_val@U?$_Simple_types@D@std@@@std@@QAEPADXZ ; std::_String_val<std::_Simple_types<char> >::_Myptr
	mov	ecx, DWORD PTR _this$[ebp]
	add	eax, DWORD PTR [ecx+16]
	cmp	eax, DWORD PTR __Ptr$[ebp]
	ja	SHORT $LN3@Inside
$LN2@Inside:

; 2240 : 			return (false);	// don't ask

	xor	al, al
	jmp	SHORT $LN4@Inside

; 2241 : 		else

	jmp	SHORT $LN4@Inside
$LN3@Inside:

; 2242 : 			return (true);

	mov	al, 1
$LN4@Inside:

; 2243 : 		}

	mov	esp, ebp
	pop	ebp
	ret	4
?_Inside@?$basic_string@DU?$char_traits@D@std@@V?$allocator@D@2@@std@@QAE_NPBD@Z ENDP ; std::basic_string<char,std::char_traits<char>,std::allocator<char> >::_Inside
_TEXT	ENDS
; Function compile flags: /Odtp
; File c:\program files (x86)\microsoft visual studio 11.0\vc\include\xstring
;	COMDAT ?_Grow@?$basic_string@DU?$char_traits@D@std@@V?$allocator@D@2@@std@@QAE_NI_N@Z
_TEXT	SEGMENT
tv136 = -12						; size = 4
tv129 = -8						; size = 4
_this$ = -4						; size = 4
__Newsize$ = 8						; size = 4
__Trim$ = 12						; size = 1
?_Grow@?$basic_string@DU?$char_traits@D@std@@V?$allocator@D@2@@std@@QAE_NI_N@Z PROC ; std::basic_string<char,std::char_traits<char>,std::allocator<char> >::_Grow, COMDAT
; _this$ = ecx

; 2223 : 		{	// ensure buffer is big enough, trim to size if _Trim is true

	push	ebp
	mov	ebp, esp
	sub	esp, 12					; 0000000cH
	mov	DWORD PTR _this$[ebp], ecx

; 2224 : 		if (max_size() < _Newsize)

	mov	ecx, DWORD PTR _this$[ebp]
	call	?max_size@?$basic_string@DU?$char_traits@D@std@@V?$allocator@D@2@@std@@QBEIXZ ; std::basic_string<char,std::char_traits<char>,std::allocator<char> >::max_size
	cmp	eax, DWORD PTR __Newsize$[ebp]
	jae	SHORT $LN6@Grow

; 2225 : 			_Xlen();	// result too long

	mov	ecx, DWORD PTR _this$[ebp]
	call	?_Xlen@?$basic_string@DU?$char_traits@D@std@@V?$allocator@D@2@@std@@QBEXXZ ; std::basic_string<char,std::char_traits<char>,std::allocator<char> >::_Xlen
$LN6@Grow:

; 2226 : 		if (this->_Myres < _Newsize)

	mov	eax, DWORD PTR _this$[ebp]
	mov	ecx, DWORD PTR [eax+20]
	cmp	ecx, DWORD PTR __Newsize$[ebp]
	jae	SHORT $LN5@Grow

; 2227 : 			_Copy(_Newsize, this->_Mysize);	// reallocate to grow

	mov	edx, DWORD PTR _this$[ebp]
	mov	eax, DWORD PTR [edx+16]
	push	eax
	mov	ecx, DWORD PTR __Newsize$[ebp]
	push	ecx
	mov	ecx, DWORD PTR _this$[ebp]
	call	?_Copy@?$basic_string@DU?$char_traits@D@std@@V?$allocator@D@2@@std@@QAEXII@Z ; std::basic_string<char,std::char_traits<char>,std::allocator<char> >::_Copy
	jmp	SHORT $LN4@Grow
$LN5@Grow:

; 2228 : 		else if (_Trim && _Newsize < this->_BUF_SIZE)

	movzx	edx, BYTE PTR __Trim$[ebp]
	test	edx, edx
	je	SHORT $LN3@Grow
	cmp	DWORD PTR __Newsize$[ebp], 16		; 00000010H
	jae	SHORT $LN3@Grow

; 2229 : 			_Tidy(true,	// copy and deallocate if trimming to small string
; 2230 : 				_Newsize < this->_Mysize ? _Newsize : this->_Mysize);

	mov	eax, DWORD PTR _this$[ebp]
	mov	ecx, DWORD PTR __Newsize$[ebp]
	cmp	ecx, DWORD PTR [eax+16]
	jae	SHORT $LN9@Grow
	mov	edx, DWORD PTR __Newsize$[ebp]
	mov	DWORD PTR tv129[ebp], edx
	jmp	SHORT $LN10@Grow
$LN9@Grow:
	mov	eax, DWORD PTR _this$[ebp]
	mov	ecx, DWORD PTR [eax+16]
	mov	DWORD PTR tv129[ebp], ecx
$LN10@Grow:
	mov	edx, DWORD PTR tv129[ebp]
	push	edx
	push	1
	mov	ecx, DWORD PTR _this$[ebp]
	call	?_Tidy@?$basic_string@DU?$char_traits@D@std@@V?$allocator@D@2@@std@@QAEX_NI@Z ; std::basic_string<char,std::char_traits<char>,std::allocator<char> >::_Tidy
	jmp	SHORT $LN4@Grow
$LN3@Grow:

; 2231 : 		else if (_Newsize == 0)

	cmp	DWORD PTR __Newsize$[ebp], 0
	jne	SHORT $LN4@Grow

; 2232 : 			_Eos(0);	// new size is zero, just null terminate

	push	0
	mov	ecx, DWORD PTR _this$[ebp]
	call	?_Eos@?$basic_string@DU?$char_traits@D@std@@V?$allocator@D@2@@std@@QAEXI@Z ; std::basic_string<char,std::char_traits<char>,std::allocator<char> >::_Eos
$LN4@Grow:

; 2233 : 		return (0 < _Newsize);	// return true only if more work to do

	cmp	DWORD PTR __Newsize$[ebp], 0
	jbe	SHORT $LN11@Grow
	mov	DWORD PTR tv136[ebp], 1
	jmp	SHORT $LN12@Grow
$LN11@Grow:
	mov	DWORD PTR tv136[ebp], 0
$LN12@Grow:
	mov	al, BYTE PTR tv136[ebp]
$LN8@Grow:

; 2234 : 		}

	mov	esp, ebp
	pop	ebp
	ret	8
?_Grow@?$basic_string@DU?$char_traits@D@std@@V?$allocator@D@2@@std@@QAE_NI_N@Z ENDP ; std::basic_string<char,std::char_traits<char>,std::allocator<char> >::_Grow
_TEXT	ENDS
; Function compile flags: /Odtp
; File c:\program files (x86)\microsoft visual studio 11.0\vc\include\xstring
;	COMDAT ?_Eos@?$basic_string@DU?$char_traits@D@std@@V?$allocator@D@2@@std@@QAEXI@Z
_TEXT	SEGMENT
_this$ = -8						; size = 4
$T1 = -1						; size = 1
__Newsize$ = 8						; size = 4
?_Eos@?$basic_string@DU?$char_traits@D@std@@V?$allocator@D@2@@std@@QAEXI@Z PROC ; std::basic_string<char,std::char_traits<char>,std::allocator<char> >::_Eos, COMDAT
; _this$ = ecx

; 2217 : 		{	// set new length and null terminator

	push	ebp
	mov	ebp, esp
	sub	esp, 8
	mov	DWORD PTR _this$[ebp], ecx

; 2218 : 		_Traits::assign(this->_Myptr()[this->_Mysize = _Newsize], _Elem());

	mov	BYTE PTR $T1[ebp], 0
	mov	eax, DWORD PTR _this$[ebp]
	mov	ecx, DWORD PTR __Newsize$[ebp]
	mov	DWORD PTR [eax+16], ecx
	lea	edx, DWORD PTR $T1[ebp]
	push	edx
	mov	ecx, DWORD PTR _this$[ebp]
	call	?_Myptr@?$_String_val@U?$_Simple_types@D@std@@@std@@QAEPADXZ ; std::_String_val<std::_Simple_types<char> >::_Myptr
	add	eax, DWORD PTR __Newsize$[ebp]
	push	eax
	call	?assign@?$char_traits@D@std@@SAXAADABD@Z ; std::char_traits<char>::assign
	add	esp, 8

; 2219 : 		}

	mov	esp, ebp
	pop	ebp
	ret	4
?_Eos@?$basic_string@DU?$char_traits@D@std@@V?$allocator@D@2@@std@@QAEXI@Z ENDP ; std::basic_string<char,std::char_traits<char>,std::allocator<char> >::_Eos
_TEXT	ENDS
; Function compile flags: /Odtp
; File c:\program files (x86)\microsoft visual studio 11.0\vc\include\xstring
;	COMDAT ?_Copy@?$basic_string@DU?$char_traits@D@std@@V?$allocator@D@2@@std@@QAEXII@Z
_TEXT	SEGMENT
tv205 = -48						; size = 4
tv204 = -44						; size = 4
tv203 = -40						; size = 4
tv202 = -36						; size = 4
__Ptr$ = -32						; size = 4
__Newres$ = -28						; size = 4
_this$ = -24						; size = 4
$T2 = -19						; size = 1
$T3 = -18						; size = 1
$T4 = -17						; size = 1
__$EHRec$ = -16						; size = 16
__Newsize$ = 8						; size = 4
__Oldlen$ = 12						; size = 4
?_Copy@?$basic_string@DU?$char_traits@D@std@@V?$allocator@D@2@@std@@QAEXII@Z PROC ; std::basic_string<char,std::char_traits<char>,std::allocator<char> >::_Copy, COMDAT
; _this$ = ecx

; 2182 : 		{	// copy _Oldlen elements to newly allocated buffer

	push	ebp
	mov	ebp, esp
	push	-1
	push	__ehhandler$?_Copy@?$basic_string@DU?$char_traits@D@std@@V?$allocator@D@2@@std@@QAEXII@Z
	mov	eax, DWORD PTR fs:0
	push	eax
	push	ecx
	sub	esp, 32					; 00000020H
	push	ebx
	push	esi
	push	edi
	mov	eax, DWORD PTR ___security_cookie
	xor	eax, ebp
	push	eax
	lea	eax, DWORD PTR __$EHRec$[ebp+4]
	mov	DWORD PTR fs:0, eax
	mov	DWORD PTR __$EHRec$[ebp], esp
	mov	DWORD PTR _this$[ebp], ecx

; 2183 : 		size_type _Newres = _Newsize | this->_ALLOC_MASK;

	mov	eax, DWORD PTR __Newsize$[ebp]
	or	eax, 15					; 0000000fH
	mov	DWORD PTR __Newres$[ebp], eax

; 2184 : 		if (max_size() < _Newres)

	mov	ecx, DWORD PTR _this$[ebp]
	call	?max_size@?$basic_string@DU?$char_traits@D@std@@V?$allocator@D@2@@std@@QBEIXZ ; std::basic_string<char,std::char_traits<char>,std::allocator<char> >::max_size
	cmp	eax, DWORD PTR __Newres$[ebp]
	jae	SHORT $LN9@Copy

; 2185 : 			_Newres = _Newsize;	// undo roundup if too big

	mov	ecx, DWORD PTR __Newsize$[ebp]
	mov	DWORD PTR __Newres$[ebp], ecx
	jmp	SHORT $LN8@Copy
$LN9@Copy:

; 2186 : 		else if (this->_Myres / 2 <= _Newres / 3)

	mov	eax, DWORD PTR __Newres$[ebp]
	xor	edx, edx
	mov	ecx, 3
	div	ecx
	mov	edx, DWORD PTR _this$[ebp]
	mov	ecx, DWORD PTR [edx+20]
	shr	ecx, 1
	cmp	ecx, eax
	ja	SHORT $LN7@Copy
	jmp	SHORT $LN8@Copy
$LN7@Copy:

; 2187 : 			;
; 2188 : 		else if (this->_Myres <= max_size() - this->_Myres / 2)

	mov	edx, DWORD PTR _this$[ebp]
	mov	esi, DWORD PTR [edx+20]
	shr	esi, 1
	mov	ecx, DWORD PTR _this$[ebp]
	call	?max_size@?$basic_string@DU?$char_traits@D@std@@V?$allocator@D@2@@std@@QBEIXZ ; std::basic_string<char,std::char_traits<char>,std::allocator<char> >::max_size
	sub	eax, esi
	mov	ecx, DWORD PTR _this$[ebp]
	cmp	DWORD PTR [ecx+20], eax
	ja	SHORT $LN5@Copy

; 2189 : 			_Newres = this->_Myres
; 2190 : 				+ this->_Myres / 2;	// grow exponentially if possible

	mov	edx, DWORD PTR _this$[ebp]
	mov	eax, DWORD PTR [edx+20]
	shr	eax, 1
	mov	ecx, DWORD PTR _this$[ebp]
	add	eax, DWORD PTR [ecx+20]
	mov	DWORD PTR __Newres$[ebp], eax

; 2191 : 		else

	jmp	SHORT $LN8@Copy
$LN5@Copy:

; 2192 : 			_Newres = max_size();	// settle for max_size()

	mov	ecx, DWORD PTR _this$[ebp]
	call	?max_size@?$basic_string@DU?$char_traits@D@std@@V?$allocator@D@2@@std@@QBEIXZ ; std::basic_string<char,std::char_traits<char>,std::allocator<char> >::max_size
	mov	DWORD PTR __Newres$[ebp], eax
$LN8@Copy:

; 2193 : 
; 2194 : 		_Elem *_Ptr;
; 2195 : 		_TRY_BEGIN

	mov	DWORD PTR __$EHRec$[ebp+12], 0

; 2196 : 			_Ptr = this->_Getal().allocate(_Newres + 1);

	lea	edx, DWORD PTR $T4[ebp]
	push	edx
	mov	ecx, DWORD PTR _this$[ebp]
	call	?_Getal@?$_String_alloc@$0A@U?$_String_base_types@DV?$allocator@D@std@@@std@@@std@@QBE?AU?$_Wrap_alloc@V?$allocator@D@std@@@2@XZ ; std::_String_alloc<0,std::_String_base_types<char,std::allocator<char> > >::_Getal
	mov	DWORD PTR tv202[ebp], eax
	mov	eax, DWORD PTR __Newres$[ebp]
	add	eax, 1
	push	eax
	mov	ecx, DWORD PTR tv202[ebp]
	call	?allocate@?$_Wrap_alloc@V?$allocator@D@std@@@std@@QAEPADI@Z ; std::_Wrap_alloc<std::allocator<char> >::allocate
	mov	DWORD PTR tv203[ebp], eax
	mov	ecx, DWORD PTR tv203[ebp]
	mov	DWORD PTR __Ptr$[ebp], ecx
	jmp	SHORT $LN12@Copy
__catch$?_Copy@?$basic_string@DU?$char_traits@D@std@@V?$allocator@D@2@@std@@QAEXII@Z$0:

; 2197 : 		_CATCH_ALL

	mov	DWORD PTR __$EHRec$[ebp], esp

; 2198 : 			_Newres = _Newsize;	// allocation failed, undo roundup and retry

	mov	edx, DWORD PTR __Newsize$[ebp]
	mov	DWORD PTR __Newres$[ebp], edx

; 2199 : 			_TRY_BEGIN

	mov	BYTE PTR __$EHRec$[ebp+12], 2

; 2200 : 				_Ptr = this->_Getal().allocate(_Newres + 1);

	lea	eax, DWORD PTR $T3[ebp]
	push	eax
	mov	ecx, DWORD PTR _this$[ebp]
	call	?_Getal@?$_String_alloc@$0A@U?$_String_base_types@DV?$allocator@D@std@@@std@@@std@@QBE?AU?$_Wrap_alloc@V?$allocator@D@std@@@2@XZ ; std::_String_alloc<0,std::_String_base_types<char,std::allocator<char> > >::_Getal
	mov	DWORD PTR tv204[ebp], eax
	mov	ecx, DWORD PTR __Newres$[ebp]
	add	ecx, 1
	push	ecx
	mov	ecx, DWORD PTR tv204[ebp]
	call	?allocate@?$_Wrap_alloc@V?$allocator@D@std@@@std@@QAEPADI@Z ; std::_Wrap_alloc<std::allocator<char> >::allocate
	mov	DWORD PTR tv205[ebp], eax
	mov	edx, DWORD PTR tv205[ebp]
	mov	DWORD PTR __Ptr$[ebp], edx
	jmp	SHORT $LN14@Copy
__catch$?_Copy@?$basic_string@DU?$char_traits@D@std@@V?$allocator@D@2@@std@@QAEXII@Z$1:

; 2201 : 			_CATCH_ALL
; 2202 : 			_Tidy(true);	// failed again, discard storage and reraise

	push	0
	push	1
	mov	ecx, DWORD PTR _this$[ebp]
	call	?_Tidy@?$basic_string@DU?$char_traits@D@std@@V?$allocator@D@2@@std@@QAEX_NI@Z ; std::basic_string<char,std::char_traits<char>,std::allocator<char> >::_Tidy

; 2203 : 			_RERAISE;

	push	0
	push	0
	call	__CxxThrowException@8

; 2204 : 			_CATCH_END

	mov	eax, $LN17@Copy
	ret	0
$LN14@Copy:
	mov	DWORD PTR __$EHRec$[ebp+12], 1
	jmp	SHORT __tryend$?_Copy@?$basic_string@DU?$char_traits@D@std@@V?$allocator@D@2@@std@@QAEXII@Z$2
$LN17@Copy:
	mov	DWORD PTR __$EHRec$[ebp+12], 1
__tryend$?_Copy@?$basic_string@DU?$char_traits@D@std@@V?$allocator@D@2@@std@@QAEXII@Z$2:

; 2205 : 		_CATCH_END

	mov	eax, $LN19@Copy
	ret	0
$LN12@Copy:
	mov	DWORD PTR __$EHRec$[ebp+12], -1
	jmp	SHORT __tryend$?_Copy@?$basic_string@DU?$char_traits@D@std@@V?$allocator@D@2@@std@@QAEXII@Z$3
$LN19@Copy:
	mov	DWORD PTR __$EHRec$[ebp+12], -1
__tryend$?_Copy@?$basic_string@DU?$char_traits@D@std@@V?$allocator@D@2@@std@@QAEXII@Z$3:

; 2206 : 
; 2207 : 		if (0 < _Oldlen)

	cmp	DWORD PTR __Oldlen$[ebp], 0
	jbe	SHORT $LN1@Copy

; 2208 : 			_Traits::copy(_Ptr, this->_Myptr(),
; 2209 : 				_Oldlen);	// copy existing elements

	mov	eax, DWORD PTR __Oldlen$[ebp]
	push	eax
	mov	ecx, DWORD PTR _this$[ebp]
	call	?_Myptr@?$_String_val@U?$_Simple_types@D@std@@@std@@QAEPADXZ ; std::_String_val<std::_Simple_types<char> >::_Myptr
	push	eax
	mov	ecx, DWORD PTR __Ptr$[ebp]
	push	ecx
	call	?copy@?$char_traits@D@std@@SAPADPADPBDI@Z ; std::char_traits<char>::copy
	add	esp, 12					; 0000000cH
$LN1@Copy:

; 2210 : 		_Tidy(true);

	push	0
	push	1
	mov	ecx, DWORD PTR _this$[ebp]
	call	?_Tidy@?$basic_string@DU?$char_traits@D@std@@V?$allocator@D@2@@std@@QAEX_NI@Z ; std::basic_string<char,std::char_traits<char>,std::allocator<char> >::_Tidy

; 2211 : 		this->_Getal().construct(&this->_Bx._Ptr, _Ptr);

	lea	edx, DWORD PTR __Ptr$[ebp]
	push	edx
	mov	eax, DWORD PTR _this$[ebp]
	push	eax
	lea	ecx, DWORD PTR $T2[ebp]
	push	ecx
	mov	ecx, DWORD PTR _this$[ebp]
	call	?_Getal@?$_String_alloc@$0A@U?$_String_base_types@DV?$allocator@D@std@@@std@@@std@@QBE?AU?$_Wrap_alloc@V?$allocator@D@std@@@2@XZ ; std::_String_alloc<0,std::_String_base_types<char,std::allocator<char> > >::_Getal
	mov	ecx, eax
	call	??$construct@PADAAPAD@?$_Wrap_alloc@V?$allocator@D@std@@@std@@QAEXPAPADAAPAD@Z ; std::_Wrap_alloc<std::allocator<char> >::construct<char *,char * &>

; 2212 : 		this->_Myres = _Newres;

	mov	edx, DWORD PTR _this$[ebp]
	mov	eax, DWORD PTR __Newres$[ebp]
	mov	DWORD PTR [edx+20], eax

; 2213 : 		_Eos(_Oldlen);

	mov	ecx, DWORD PTR __Oldlen$[ebp]
	push	ecx
	mov	ecx, DWORD PTR _this$[ebp]
	call	?_Eos@?$basic_string@DU?$char_traits@D@std@@V?$allocator@D@2@@std@@QAEXI@Z ; std::basic_string<char,std::char_traits<char>,std::allocator<char> >::_Eos
$LN11@Copy:

; 2214 : 		}

	mov	ecx, DWORD PTR __$EHRec$[ebp+4]
	mov	DWORD PTR fs:0, ecx
	pop	ecx
	pop	edi
	pop	esi
	pop	ebx
	mov	esp, ebp
	pop	ebp
	ret	8
_TEXT	ENDS
;	COMDAT text$x
text$x	SEGMENT
__ehhandler$?_Copy@?$basic_string@DU?$char_traits@D@std@@V?$allocator@D@2@@std@@QAEXII@Z:
	mov	edx, DWORD PTR [esp+8]
	lea	eax, DWORD PTR [edx+12]
	mov	ecx, DWORD PTR [edx-52]
	xor	ecx, eax
	call	@__security_check_cookie@4
	mov	eax, OFFSET __ehfuncinfo$?_Copy@?$basic_string@DU?$char_traits@D@std@@V?$allocator@D@2@@std@@QAEXII@Z
	jmp	___CxxFrameHandler3
text$x	ENDS
?_Copy@?$basic_string@DU?$char_traits@D@std@@V?$allocator@D@2@@std@@QAEXII@Z ENDP ; std::basic_string<char,std::char_traits<char>,std::allocator<char> >::_Copy
; Function compile flags: /Odtp
; File c:\program files (x86)\microsoft visual studio 11.0\vc\include\xstring
;	COMDAT ?max_size@?$basic_string@DU?$char_traits@D@std@@V?$allocator@D@2@@std@@QBEIXZ
_TEXT	SEGMENT
_this$ = -16						; size = 4
tv75 = -12						; size = 4
__Num$ = -8						; size = 4
$T1 = -1						; size = 1
?max_size@?$basic_string@DU?$char_traits@D@std@@V?$allocator@D@2@@std@@QBEIXZ PROC ; std::basic_string<char,std::char_traits<char>,std::allocator<char> >::max_size, COMDAT
; _this$ = ecx

; 1737 : 		{	// return maximum possible length of sequence

	push	ebp
	mov	ebp, esp
	sub	esp, 16					; 00000010H
	mov	DWORD PTR _this$[ebp], ecx

; 1738 : 		size_type _Num = this->_Getal().max_size();

	lea	eax, DWORD PTR $T1[ebp]
	push	eax
	mov	ecx, DWORD PTR _this$[ebp]
	call	?_Getal@?$_String_alloc@$0A@U?$_String_base_types@DV?$allocator@D@std@@@std@@@std@@QBE?AU?$_Wrap_alloc@V?$allocator@D@std@@@2@XZ ; std::_String_alloc<0,std::_String_base_types<char,std::allocator<char> > >::_Getal
	mov	ecx, eax
	call	?max_size@?$_Wrap_alloc@V?$allocator@D@std@@@std@@QBEIXZ ; std::_Wrap_alloc<std::allocator<char> >::max_size
	mov	DWORD PTR __Num$[ebp], eax

; 1739 : 		return (_Num <= 1 ? 1 : _Num - 1);

	cmp	DWORD PTR __Num$[ebp], 1
	ja	SHORT $LN3@max_size
	mov	DWORD PTR tv75[ebp], 1
	jmp	SHORT $LN4@max_size
$LN3@max_size:
	mov	ecx, DWORD PTR __Num$[ebp]
	sub	ecx, 1
	mov	DWORD PTR tv75[ebp], ecx
$LN4@max_size:
	mov	eax, DWORD PTR tv75[ebp]

; 1740 : 		}

	mov	esp, ebp
	pop	ebp
	ret	0
?max_size@?$basic_string@DU?$char_traits@D@std@@V?$allocator@D@2@@std@@QBEIXZ ENDP ; std::basic_string<char,std::char_traits<char>,std::allocator<char> >::max_size
_TEXT	ENDS
; Function compile flags: /Odtp
; File c:\program files (x86)\microsoft visual studio 11.0\vc\include\xstring
;	COMDAT ?size@?$basic_string@DU?$char_traits@D@std@@V?$allocator@D@2@@std@@QBEIXZ
_TEXT	SEGMENT
_this$ = -4						; size = 4
?size@?$basic_string@DU?$char_traits@D@std@@V?$allocator@D@2@@std@@QBEIXZ PROC ; std::basic_string<char,std::char_traits<char>,std::allocator<char> >::size, COMDAT
; _this$ = ecx

; 1732 : 		{	// return length of sequence

	push	ebp
	mov	ebp, esp
	push	ecx
	mov	DWORD PTR _this$[ebp], ecx

; 1733 : 		return (this->_Mysize);

	mov	eax, DWORD PTR _this$[ebp]
	mov	eax, DWORD PTR [eax+16]

; 1734 : 		}

	mov	esp, ebp
	pop	ebp
	ret	0
?size@?$basic_string@DU?$char_traits@D@std@@V?$allocator@D@2@@std@@QBEIXZ ENDP ; std::basic_string<char,std::char_traits<char>,std::allocator<char> >::size
_TEXT	ENDS
; Function compile flags: /Odtp
; File c:\program files (x86)\microsoft visual studio 11.0\vc\include\xstring
;	COMDAT ?erase@?$basic_string@DU?$char_traits@D@std@@V?$allocator@D@2@@std@@QAEAAV12@II@Z
_TEXT	SEGMENT
__Newsize$1 = -12					; size = 4
__Ptr$2 = -8						; size = 4
_this$ = -4						; size = 4
__Off$ = 8						; size = 4
__Count$ = 12						; size = 4
?erase@?$basic_string@DU?$char_traits@D@std@@V?$allocator@D@2@@std@@QAEAAV12@II@Z PROC ; std::basic_string<char,std::char_traits<char>,std::allocator<char> >::erase, COMDAT
; _this$ = ecx

; 1317 : 		{	// erase elements [_Off, _Off + _Count)

	push	ebp
	mov	ebp, esp
	sub	esp, 12					; 0000000cH
	mov	DWORD PTR _this$[ebp], ecx

; 1318 : 		if (this->_Mysize < _Off)

	mov	eax, DWORD PTR _this$[ebp]
	mov	ecx, DWORD PTR [eax+16]
	cmp	ecx, DWORD PTR __Off$[ebp]
	jae	SHORT $LN4@erase

; 1319 : 			_Xran();	// _Off off end

	mov	ecx, DWORD PTR _this$[ebp]
	call	?_Xran@?$basic_string@DU?$char_traits@D@std@@V?$allocator@D@2@@std@@QBEXXZ ; std::basic_string<char,std::char_traits<char>,std::allocator<char> >::_Xran
$LN4@erase:

; 1320 : 		if (this->_Mysize - _Off <= _Count)

	mov	edx, DWORD PTR _this$[ebp]
	mov	eax, DWORD PTR [edx+16]
	sub	eax, DWORD PTR __Off$[ebp]
	cmp	eax, DWORD PTR __Count$[ebp]
	ja	SHORT $LN3@erase

; 1321 : 			_Eos(_Off);	// erase elements [_Off, ...)

	mov	ecx, DWORD PTR __Off$[ebp]
	push	ecx
	mov	ecx, DWORD PTR _this$[ebp]
	call	?_Eos@?$basic_string@DU?$char_traits@D@std@@V?$allocator@D@2@@std@@QAEXI@Z ; std::basic_string<char,std::char_traits<char>,std::allocator<char> >::_Eos
	jmp	SHORT $LN2@erase
$LN3@erase:

; 1322 : 		else if (0 < _Count)

	cmp	DWORD PTR __Count$[ebp], 0
	jbe	SHORT $LN2@erase

; 1323 : 			{	// move elements down
; 1324 : 			value_type *_Ptr = this->_Myptr() + _Off;

	mov	ecx, DWORD PTR _this$[ebp]
	call	?_Myptr@?$_String_val@U?$_Simple_types@D@std@@@std@@QAEPADXZ ; std::_String_val<std::_Simple_types<char> >::_Myptr
	add	eax, DWORD PTR __Off$[ebp]
	mov	DWORD PTR __Ptr$2[ebp], eax

; 1325 : 			size_type _Newsize = this->_Mysize - _Count;

	mov	edx, DWORD PTR _this$[ebp]
	mov	eax, DWORD PTR [edx+16]
	sub	eax, DWORD PTR __Count$[ebp]
	mov	DWORD PTR __Newsize$1[ebp], eax

; 1326 : 			_Traits::move(_Ptr, _Ptr + _Count, _Newsize - _Off);

	mov	ecx, DWORD PTR __Newsize$1[ebp]
	sub	ecx, DWORD PTR __Off$[ebp]
	push	ecx
	mov	edx, DWORD PTR __Ptr$2[ebp]
	add	edx, DWORD PTR __Count$[ebp]
	push	edx
	mov	eax, DWORD PTR __Ptr$2[ebp]
	push	eax
	call	?move@?$char_traits@D@std@@SAPADPADPBDI@Z ; std::char_traits<char>::move
	add	esp, 12					; 0000000cH

; 1327 : 			_Eos(_Newsize);

	mov	ecx, DWORD PTR __Newsize$1[ebp]
	push	ecx
	mov	ecx, DWORD PTR _this$[ebp]
	call	?_Eos@?$basic_string@DU?$char_traits@D@std@@V?$allocator@D@2@@std@@QAEXI@Z ; std::basic_string<char,std::char_traits<char>,std::allocator<char> >::_Eos
$LN2@erase:

; 1328 : 			}
; 1329 : 		return (*this);

	mov	eax, DWORD PTR _this$[ebp]
$LN6@erase:

; 1330 : 		}

	mov	esp, ebp
	pop	ebp
	ret	8
?erase@?$basic_string@DU?$char_traits@D@std@@V?$allocator@D@2@@std@@QAEAAV12@II@Z ENDP ; std::basic_string<char,std::char_traits<char>,std::allocator<char> >::erase
_TEXT	ENDS
; Function compile flags: /Odtp
; File c:\program files (x86)\microsoft visual studio 11.0\vc\include\xstring
;	COMDAT ?erase@?$basic_string@DU?$char_traits@D@std@@V?$allocator@D@2@@std@@QAEAAV12@I@Z
_TEXT	SEGMENT
_this$ = -4						; size = 4
__Off$ = 8						; size = 4
?erase@?$basic_string@DU?$char_traits@D@std@@V?$allocator@D@2@@std@@QAEAAV12@I@Z PROC ; std::basic_string<char,std::char_traits<char>,std::allocator<char> >::erase, COMDAT
; _this$ = ecx

; 1309 : 		{	// erase elements [_Off, ...)

	push	ebp
	mov	ebp, esp
	push	ecx
	mov	DWORD PTR _this$[ebp], ecx

; 1310 : 		if (this->_Mysize < _Off)

	mov	eax, DWORD PTR _this$[ebp]
	mov	ecx, DWORD PTR [eax+16]
	cmp	ecx, DWORD PTR __Off$[ebp]
	jae	SHORT $LN1@erase

; 1311 : 			_Xran();	// _Off off end

	mov	ecx, DWORD PTR _this$[ebp]
	call	?_Xran@?$basic_string@DU?$char_traits@D@std@@V?$allocator@D@2@@std@@QBEXXZ ; std::basic_string<char,std::char_traits<char>,std::allocator<char> >::_Xran
$LN1@erase:

; 1312 : 		_Eos(_Off);

	mov	edx, DWORD PTR __Off$[ebp]
	push	edx
	mov	ecx, DWORD PTR _this$[ebp]
	call	?_Eos@?$basic_string@DU?$char_traits@D@std@@V?$allocator@D@2@@std@@QAEXI@Z ; std::basic_string<char,std::char_traits<char>,std::allocator<char> >::_Eos

; 1313 : 		return (*this);

	mov	eax, DWORD PTR _this$[ebp]
$LN3@erase:

; 1314 : 		}

	mov	esp, ebp
	pop	ebp
	ret	4
?erase@?$basic_string@DU?$char_traits@D@std@@V?$allocator@D@2@@std@@QAEAAV12@I@Z ENDP ; std::basic_string<char,std::char_traits<char>,std::allocator<char> >::erase
_TEXT	ENDS
; Function compile flags: /Odtp
; File c:\program files (x86)\microsoft visual studio 11.0\vc\include\xstring
;	COMDAT ?assign@?$basic_string@DU?$char_traits@D@std@@V?$allocator@D@2@@std@@QAEAAV12@PBD@Z
_TEXT	SEGMENT
_this$ = -4						; size = 4
__Ptr$ = 8						; size = 4
?assign@?$basic_string@DU?$char_traits@D@std@@V?$allocator@D@2@@std@@QAEAAV12@PBD@Z PROC ; std::basic_string<char,std::char_traits<char>,std::allocator<char> >::assign, COMDAT
; _this$ = ecx

; 1142 : 		{	// assign [_Ptr, <null>)

	push	ebp
	mov	ebp, esp
	push	ecx
	mov	DWORD PTR _this$[ebp], ecx

; 1143 : 		_DEBUG_POINTER(_Ptr);
; 1144 : 		return (assign(_Ptr, _Traits::length(_Ptr)));

	mov	eax, DWORD PTR __Ptr$[ebp]
	push	eax
	call	?length@?$char_traits@D@std@@SAIPBD@Z	; std::char_traits<char>::length
	add	esp, 4
	push	eax
	mov	ecx, DWORD PTR __Ptr$[ebp]
	push	ecx
	mov	ecx, DWORD PTR _this$[ebp]
	call	?assign@?$basic_string@DU?$char_traits@D@std@@V?$allocator@D@2@@std@@QAEAAV12@PBDI@Z ; std::basic_string<char,std::char_traits<char>,std::allocator<char> >::assign

; 1145 : 		}

	mov	esp, ebp
	pop	ebp
	ret	4
?assign@?$basic_string@DU?$char_traits@D@std@@V?$allocator@D@2@@std@@QAEAAV12@PBD@Z ENDP ; std::basic_string<char,std::char_traits<char>,std::allocator<char> >::assign
_TEXT	ENDS
; Function compile flags: /Odtp
; File c:\program files (x86)\microsoft visual studio 11.0\vc\include\xstring
;	COMDAT ?assign@?$basic_string@DU?$char_traits@D@std@@V?$allocator@D@2@@std@@QAEAAV12@PBDI@Z
_TEXT	SEGMENT
_this$ = -4						; size = 4
__Ptr$ = 8						; size = 4
__Count$ = 12						; size = 4
?assign@?$basic_string@DU?$char_traits@D@std@@V?$allocator@D@2@@std@@QAEAAV12@PBDI@Z PROC ; std::basic_string<char,std::char_traits<char>,std::allocator<char> >::assign, COMDAT
; _this$ = ecx

; 1123 : 		{	// assign [_Ptr, _Ptr + _Count)

	push	ebp
	mov	ebp, esp
	push	ecx
	mov	DWORD PTR _this$[ebp], ecx

; 1124 :  #if _ITERATOR_DEBUG_LEVEL == 2
; 1125 : 		if (_Count != 0)
; 1126 : 			_DEBUG_POINTER(_Ptr);
; 1127 :  #endif /* _ITERATOR_DEBUG_LEVEL == 2 */
; 1128 : 
; 1129 : 		if (_Inside(_Ptr))

	mov	eax, DWORD PTR __Ptr$[ebp]
	push	eax
	mov	ecx, DWORD PTR _this$[ebp]
	call	?_Inside@?$basic_string@DU?$char_traits@D@std@@V?$allocator@D@2@@std@@QAE_NPBD@Z ; std::basic_string<char,std::char_traits<char>,std::allocator<char> >::_Inside
	movzx	ecx, al
	test	ecx, ecx
	je	SHORT $LN2@assign

; 1130 : 			return (assign(*this,
; 1131 : 				_Ptr - this->_Myptr(), _Count));	// substring

	mov	edx, DWORD PTR __Count$[ebp]
	push	edx
	mov	ecx, DWORD PTR _this$[ebp]
	call	?_Myptr@?$_String_val@U?$_Simple_types@D@std@@@std@@QAEPADXZ ; std::_String_val<std::_Simple_types<char> >::_Myptr
	mov	ecx, DWORD PTR __Ptr$[ebp]
	sub	ecx, eax
	push	ecx
	mov	edx, DWORD PTR _this$[ebp]
	push	edx
	mov	ecx, DWORD PTR _this$[ebp]
	call	?assign@?$basic_string@DU?$char_traits@D@std@@V?$allocator@D@2@@std@@QAEAAV12@ABV12@II@Z ; std::basic_string<char,std::char_traits<char>,std::allocator<char> >::assign
	jmp	SHORT $LN3@assign
$LN2@assign:

; 1132 : 
; 1133 : 		if (_Grow(_Count))

	push	0
	mov	eax, DWORD PTR __Count$[ebp]
	push	eax
	mov	ecx, DWORD PTR _this$[ebp]
	call	?_Grow@?$basic_string@DU?$char_traits@D@std@@V?$allocator@D@2@@std@@QAE_NI_N@Z ; std::basic_string<char,std::char_traits<char>,std::allocator<char> >::_Grow
	movzx	ecx, al
	test	ecx, ecx
	je	SHORT $LN1@assign

; 1134 : 			{	// make room and assign new stuff
; 1135 : 			_Traits::copy(this->_Myptr(), _Ptr, _Count);

	mov	edx, DWORD PTR __Count$[ebp]
	push	edx
	mov	eax, DWORD PTR __Ptr$[ebp]
	push	eax
	mov	ecx, DWORD PTR _this$[ebp]
	call	?_Myptr@?$_String_val@U?$_Simple_types@D@std@@@std@@QAEPADXZ ; std::_String_val<std::_Simple_types<char> >::_Myptr
	push	eax
	call	?copy@?$char_traits@D@std@@SAPADPADPBDI@Z ; std::char_traits<char>::copy
	add	esp, 12					; 0000000cH

; 1136 : 			_Eos(_Count);

	mov	ecx, DWORD PTR __Count$[ebp]
	push	ecx
	mov	ecx, DWORD PTR _this$[ebp]
	call	?_Eos@?$basic_string@DU?$char_traits@D@std@@V?$allocator@D@2@@std@@QAEXI@Z ; std::basic_string<char,std::char_traits<char>,std::allocator<char> >::_Eos
$LN1@assign:

; 1137 : 			}
; 1138 : 		return (*this);

	mov	eax, DWORD PTR _this$[ebp]
$LN3@assign:

; 1139 : 		}

	mov	esp, ebp
	pop	ebp
	ret	8
?assign@?$basic_string@DU?$char_traits@D@std@@V?$allocator@D@2@@std@@QAEAAV12@PBDI@Z ENDP ; std::basic_string<char,std::char_traits<char>,std::allocator<char> >::assign
_TEXT	ENDS
; Function compile flags: /Odtp
; File c:\program files (x86)\microsoft visual studio 11.0\vc\include\xstring
;	COMDAT ?assign@?$basic_string@DU?$char_traits@D@std@@V?$allocator@D@2@@std@@QAEAAV12@ABV12@II@Z
_TEXT	SEGMENT
__Num$ = -8						; size = 4
_this$ = -4						; size = 4
__Right$ = 8						; size = 4
__Roff$ = 12						; size = 4
__Count$ = 16						; size = 4
?assign@?$basic_string@DU?$char_traits@D@std@@V?$allocator@D@2@@std@@QAEAAV12@ABV12@II@Z PROC ; std::basic_string<char,std::char_traits<char>,std::allocator<char> >::assign, COMDAT
; _this$ = ecx

; 1104 : 		{	// assign _Right [_Roff, _Roff + _Count)

	push	ebp
	mov	ebp, esp
	sub	esp, 8
	mov	DWORD PTR _this$[ebp], ecx

; 1105 : 		if (_Right.size() < _Roff)

	mov	ecx, DWORD PTR __Right$[ebp]
	call	?size@?$basic_string@DU?$char_traits@D@std@@V?$allocator@D@2@@std@@QBEIXZ ; std::basic_string<char,std::char_traits<char>,std::allocator<char> >::size
	cmp	eax, DWORD PTR __Roff$[ebp]
	jae	SHORT $LN5@assign

; 1106 : 			_Xran();	// _Roff off end

	mov	ecx, DWORD PTR _this$[ebp]
	call	?_Xran@?$basic_string@DU?$char_traits@D@std@@V?$allocator@D@2@@std@@QBEXXZ ; std::basic_string<char,std::char_traits<char>,std::allocator<char> >::_Xran
$LN5@assign:

; 1107 : 		size_type _Num = _Right.size() - _Roff;

	mov	ecx, DWORD PTR __Right$[ebp]
	call	?size@?$basic_string@DU?$char_traits@D@std@@V?$allocator@D@2@@std@@QBEIXZ ; std::basic_string<char,std::char_traits<char>,std::allocator<char> >::size
	sub	eax, DWORD PTR __Roff$[ebp]
	mov	DWORD PTR __Num$[ebp], eax

; 1108 : 		if (_Count < _Num)

	mov	eax, DWORD PTR __Count$[ebp]
	cmp	eax, DWORD PTR __Num$[ebp]
	jae	SHORT $LN4@assign

; 1109 : 			_Num = _Count;	// trim _Num to size

	mov	ecx, DWORD PTR __Count$[ebp]
	mov	DWORD PTR __Num$[ebp], ecx
$LN4@assign:

; 1110 : 
; 1111 : 		if (this == &_Right)

	mov	edx, DWORD PTR _this$[ebp]
	cmp	edx, DWORD PTR __Right$[ebp]
	jne	SHORT $LN3@assign

; 1112 : 			erase((size_type)(_Roff + _Num)), erase(0, _Roff);	// substring

	mov	eax, DWORD PTR __Roff$[ebp]
	add	eax, DWORD PTR __Num$[ebp]
	push	eax
	mov	ecx, DWORD PTR _this$[ebp]
	call	?erase@?$basic_string@DU?$char_traits@D@std@@V?$allocator@D@2@@std@@QAEAAV12@I@Z ; std::basic_string<char,std::char_traits<char>,std::allocator<char> >::erase
	mov	ecx, DWORD PTR __Roff$[ebp]
	push	ecx
	push	0
	mov	ecx, DWORD PTR _this$[ebp]
	call	?erase@?$basic_string@DU?$char_traits@D@std@@V?$allocator@D@2@@std@@QAEAAV12@II@Z ; std::basic_string<char,std::char_traits<char>,std::allocator<char> >::erase
	jmp	SHORT $LN2@assign
$LN3@assign:

; 1113 : 		else if (_Grow(_Num))

	push	0
	mov	edx, DWORD PTR __Num$[ebp]
	push	edx
	mov	ecx, DWORD PTR _this$[ebp]
	call	?_Grow@?$basic_string@DU?$char_traits@D@std@@V?$allocator@D@2@@std@@QAE_NI_N@Z ; std::basic_string<char,std::char_traits<char>,std::allocator<char> >::_Grow
	movzx	eax, al
	test	eax, eax
	je	SHORT $LN2@assign

; 1114 : 			{	// make room and assign new stuff
; 1115 : 			_Traits::copy(this->_Myptr(),
; 1116 : 				_Right._Myptr() + _Roff, _Num);

	mov	ecx, DWORD PTR __Num$[ebp]
	push	ecx
	mov	ecx, DWORD PTR __Right$[ebp]
	call	?_Myptr@?$_String_val@U?$_Simple_types@D@std@@@std@@QBEPBDXZ ; std::_String_val<std::_Simple_types<char> >::_Myptr
	add	eax, DWORD PTR __Roff$[ebp]
	push	eax
	mov	ecx, DWORD PTR _this$[ebp]
	call	?_Myptr@?$_String_val@U?$_Simple_types@D@std@@@std@@QAEPADXZ ; std::_String_val<std::_Simple_types<char> >::_Myptr
	push	eax
	call	?copy@?$char_traits@D@std@@SAPADPADPBDI@Z ; std::char_traits<char>::copy
	add	esp, 12					; 0000000cH

; 1117 : 			_Eos(_Num);

	mov	edx, DWORD PTR __Num$[ebp]
	push	edx
	mov	ecx, DWORD PTR _this$[ebp]
	call	?_Eos@?$basic_string@DU?$char_traits@D@std@@V?$allocator@D@2@@std@@QAEXI@Z ; std::basic_string<char,std::char_traits<char>,std::allocator<char> >::_Eos
$LN2@assign:

; 1118 : 			}
; 1119 : 		return (*this);

	mov	eax, DWORD PTR _this$[ebp]
$LN7@assign:

; 1120 : 		}

	mov	esp, ebp
	pop	ebp
	ret	12					; 0000000cH
?assign@?$basic_string@DU?$char_traits@D@std@@V?$allocator@D@2@@std@@QAEAAV12@ABV12@II@Z ENDP ; std::basic_string<char,std::char_traits<char>,std::allocator<char> >::assign
_TEXT	ENDS
; Function compile flags: /Odtp
; File c:\program files (x86)\microsoft visual studio 11.0\vc\include\xstring
;	COMDAT ??0?$basic_string@DU?$char_traits@D@std@@V?$allocator@D@2@@std@@QAE@PBD@Z
_TEXT	SEGMENT
_this$ = -8						; size = 4
$T1 = -1						; size = 1
__Ptr$ = 8						; size = 4
??0?$basic_string@DU?$char_traits@D@std@@V?$allocator@D@2@@std@@QAE@PBD@Z PROC ; std::basic_string<char,std::char_traits<char>,std::allocator<char> >::basic_string<char,std::char_traits<char>,std::allocator<char> >, COMDAT
; _this$ = ecx

; 791  : 		{	// construct from [_Ptr, <null>)

	push	ebp
	mov	ebp, esp
	sub	esp, 8
	mov	DWORD PTR _this$[ebp], ecx
	lea	ecx, DWORD PTR $T1[ebp]
	call	??0?$allocator@D@std@@QAE@XZ		; std::allocator<char>::allocator<char>
	push	eax
	mov	ecx, DWORD PTR _this$[ebp]
	call	??0?$_String_alloc@$0A@U?$_String_base_types@DV?$allocator@D@std@@@std@@@std@@QAE@ABV?$allocator@D@1@@Z ; std::_String_alloc<0,std::_String_base_types<char,std::allocator<char> > >::_String_alloc<0,std::_String_base_types<char,std::allocator<char> > >

; 792  : 		_Tidy();

	push	0
	push	0
	mov	ecx, DWORD PTR _this$[ebp]
	call	?_Tidy@?$basic_string@DU?$char_traits@D@std@@V?$allocator@D@2@@std@@QAEX_NI@Z ; std::basic_string<char,std::char_traits<char>,std::allocator<char> >::_Tidy

; 793  : 		assign(_Ptr);

	mov	eax, DWORD PTR __Ptr$[ebp]
	push	eax
	mov	ecx, DWORD PTR _this$[ebp]
	call	?assign@?$basic_string@DU?$char_traits@D@std@@V?$allocator@D@2@@std@@QAEAAV12@PBD@Z ; std::basic_string<char,std::char_traits<char>,std::allocator<char> >::assign

; 794  : 		}

	mov	eax, DWORD PTR _this$[ebp]
	mov	esp, ebp
	pop	ebp
	ret	4
??0?$basic_string@DU?$char_traits@D@std@@V?$allocator@D@2@@std@@QAE@PBD@Z ENDP ; std::basic_string<char,std::char_traits<char>,std::allocator<char> >::basic_string<char,std::char_traits<char>,std::allocator<char> >
_TEXT	ENDS
; Function compile flags: /Odtp
; File c:\program files (x86)\microsoft visual studio 11.0\vc\include\xstring
;	COMDAT ?_Getal@?$_String_alloc@$0A@U?$_String_base_types@DV?$allocator@D@std@@@std@@@std@@QBE?AU?$_Wrap_alloc@V?$allocator@D@std@@@2@XZ
_TEXT	SEGMENT
_this$ = -4						; size = 4
___$ReturnUdt$ = 8					; size = 4
?_Getal@?$_String_alloc@$0A@U?$_String_base_types@DV?$allocator@D@std@@@std@@@std@@QBE?AU?$_Wrap_alloc@V?$allocator@D@std@@@2@XZ PROC ; std::_String_alloc<0,std::_String_base_types<char,std::allocator<char> > >::_Getal, COMDAT
; _this$ = ecx

; 688  : 		{	// get reference to allocator

	push	ebp
	mov	ebp, esp
	push	ecx
	mov	DWORD PTR _this$[ebp], ecx

; 689  : 		return (_Alty());

	mov	ecx, DWORD PTR ___$ReturnUdt$[ebp]
	call	??0?$_Wrap_alloc@V?$allocator@D@std@@@std@@QAE@XZ ; std::_Wrap_alloc<std::allocator<char> >::_Wrap_alloc<std::allocator<char> >
	mov	eax, DWORD PTR ___$ReturnUdt$[ebp]

; 690  : 		}

	mov	esp, ebp
	pop	ebp
	ret	4
?_Getal@?$_String_alloc@$0A@U?$_String_base_types@DV?$allocator@D@std@@@std@@@std@@QBE?AU?$_Wrap_alloc@V?$allocator@D@std@@@2@XZ ENDP ; std::_String_alloc<0,std::_String_base_types<char,std::allocator<char> > >::_Getal
_TEXT	ENDS
; Function compile flags: /Odtp
; File c:\program files (x86)\microsoft visual studio 11.0\vc\include\xstring
;	COMDAT ??0?$_String_alloc@$0A@U?$_String_base_types@DV?$allocator@D@std@@@std@@@std@@QAE@ABV?$allocator@D@1@@Z
_TEXT	SEGMENT
_this$ = -4						; size = 4
___formal$ = 8						; size = 4
??0?$_String_alloc@$0A@U?$_String_base_types@DV?$allocator@D@std@@@std@@@std@@QAE@ABV?$allocator@D@1@@Z PROC ; std::_String_alloc<0,std::_String_base_types<char,std::allocator<char> > >::_String_alloc<0,std::_String_base_types<char,std::allocator<char> > >, COMDAT
; _this$ = ecx

; 635  : 	_String_alloc(const _Alloc& = _Alloc())

	push	ebp
	mov	ebp, esp
	push	ecx
	mov	DWORD PTR _this$[ebp], ecx
	mov	ecx, DWORD PTR _this$[ebp]
	call	??0?$_String_val@U?$_Simple_types@D@std@@@std@@QAE@XZ ; std::_String_val<std::_Simple_types<char> >::_String_val<std::_Simple_types<char> >

; 636  : 		{	// construct allocator from _Al
; 637  : 		}

	mov	eax, DWORD PTR _this$[ebp]
	mov	esp, ebp
	pop	ebp
	ret	4
??0?$_String_alloc@$0A@U?$_String_base_types@DV?$allocator@D@std@@@std@@@std@@QAE@ABV?$allocator@D@1@@Z ENDP ; std::_String_alloc<0,std::_String_base_types<char,std::allocator<char> > >::_String_alloc<0,std::_String_base_types<char,std::allocator<char> > >
_TEXT	ENDS
; Function compile flags: /Odtp
; File c:\program files (x86)\microsoft visual studio 11.0\vc\include\xstring
;	COMDAT ?_Myptr@?$_String_val@U?$_Simple_types@D@std@@@std@@QBEPBDXZ
_TEXT	SEGMENT
tv72 = -8						; size = 4
_this$ = -4						; size = 4
?_Myptr@?$_String_val@U?$_Simple_types@D@std@@@std@@QBEPBDXZ PROC ; std::_String_val<std::_Simple_types<char> >::_Myptr, COMDAT
; _this$ = ecx

; 521  : 		{	// determine current pointer to buffer for nonmutable string

	push	ebp
	mov	ebp, esp
	sub	esp, 8
	mov	DWORD PTR _this$[ebp], ecx

; 522  : 		return (this->_BUF_SIZE <= this->_Myres
; 523  : 			? _STD addressof(*this->_Bx._Ptr)
; 524  : 			: this->_Bx._Buf);

	mov	eax, DWORD PTR _this$[ebp]
	cmp	DWORD PTR [eax+20], 16			; 00000010H
	jb	SHORT $LN3@Myptr
	mov	ecx, DWORD PTR _this$[ebp]
	mov	edx, DWORD PTR [ecx]
	push	edx
	call	??$addressof@D@std@@YAPADAAD@Z		; std::addressof<char>
	add	esp, 4
	mov	DWORD PTR tv72[ebp], eax
	jmp	SHORT $LN4@Myptr
$LN3@Myptr:
	mov	eax, DWORD PTR _this$[ebp]
	mov	DWORD PTR tv72[ebp], eax
$LN4@Myptr:
	mov	eax, DWORD PTR tv72[ebp]

; 525  : 		}

	mov	esp, ebp
	pop	ebp
	ret	0
?_Myptr@?$_String_val@U?$_Simple_types@D@std@@@std@@QBEPBDXZ ENDP ; std::_String_val<std::_Simple_types<char> >::_Myptr
_TEXT	ENDS
; Function compile flags: /Odtp
; File c:\program files (x86)\microsoft visual studio 11.0\vc\include\xstring
;	COMDAT ?_Myptr@?$_String_val@U?$_Simple_types@D@std@@@std@@QAEPADXZ
_TEXT	SEGMENT
tv72 = -8						; size = 4
_this$ = -4						; size = 4
?_Myptr@?$_String_val@U?$_Simple_types@D@std@@@std@@QAEPADXZ PROC ; std::_String_val<std::_Simple_types<char> >::_Myptr, COMDAT
; _this$ = ecx

; 514  : 		{	// determine current pointer to buffer for mutable string

	push	ebp
	mov	ebp, esp
	sub	esp, 8
	mov	DWORD PTR _this$[ebp], ecx

; 515  : 		return (this->_BUF_SIZE <= this->_Myres
; 516  : 			? _STD addressof(*this->_Bx._Ptr)
; 517  : 			: this->_Bx._Buf);

	mov	eax, DWORD PTR _this$[ebp]
	cmp	DWORD PTR [eax+20], 16			; 00000010H
	jb	SHORT $LN3@Myptr
	mov	ecx, DWORD PTR _this$[ebp]
	mov	edx, DWORD PTR [ecx]
	push	edx
	call	??$addressof@D@std@@YAPADAAD@Z		; std::addressof<char>
	add	esp, 4
	mov	DWORD PTR tv72[ebp], eax
	jmp	SHORT $LN4@Myptr
$LN3@Myptr:
	mov	eax, DWORD PTR _this$[ebp]
	mov	DWORD PTR tv72[ebp], eax
$LN4@Myptr:
	mov	eax, DWORD PTR tv72[ebp]

; 518  : 		}

	mov	esp, ebp
	pop	ebp
	ret	0
?_Myptr@?$_String_val@U?$_Simple_types@D@std@@@std@@QAEPADXZ ENDP ; std::_String_val<std::_Simple_types<char> >::_Myptr
_TEXT	ENDS
; Function compile flags: /Odtp
; File c:\program files (x86)\microsoft visual studio 11.0\vc\include\xstring
;	COMDAT ??0?$_String_val@U?$_Simple_types@D@std@@@std@@QAE@XZ
_TEXT	SEGMENT
_this$ = -4						; size = 4
??0?$_String_val@U?$_Simple_types@D@std@@@std@@QAE@XZ PROC ; std::_String_val<std::_Simple_types<char> >::_String_val<std::_Simple_types<char> >, COMDAT
; _this$ = ecx

; 496  : 	_String_val()

	push	ebp
	mov	ebp, esp
	push	ecx
	mov	DWORD PTR _this$[ebp], ecx

; 497  : 		{	// initialize values
; 498  : 		_Mysize = 0;

	mov	eax, DWORD PTR _this$[ebp]
	mov	DWORD PTR [eax+16], 0

; 499  : 		_Myres = 0;

	mov	ecx, DWORD PTR _this$[ebp]
	mov	DWORD PTR [ecx+20], 0

; 500  : 		}

	mov	eax, DWORD PTR _this$[ebp]
	mov	esp, ebp
	pop	ebp
	ret	0
??0?$_String_val@U?$_Simple_types@D@std@@@std@@QAE@XZ ENDP ; std::_String_val<std::_Simple_types<char> >::_String_val<std::_Simple_types<char> >
_TEXT	ENDS
; Function compile flags: /Odtp
; File c:\program files (x86)\microsoft visual studio 11.0\vc\include\xmemory0
;	COMDAT ?max_size@?$_Wrap_alloc@V?$allocator@D@std@@@std@@QBEIXZ
_TEXT	SEGMENT
_this$ = -4						; size = 4
?max_size@?$_Wrap_alloc@V?$allocator@D@std@@@std@@QBEIXZ PROC ; std::_Wrap_alloc<std::allocator<char> >::max_size, COMDAT
; _this$ = ecx

; 913  : 		{	// get maximum size

	push	ebp
	mov	ebp, esp
	push	ecx
	mov	DWORD PTR _this$[ebp], ecx

; 914  : 		return (_Mytraits::max_size(*this));

	mov	eax, DWORD PTR _this$[ebp]
	push	eax
	call	?max_size@?$allocator_traits@V?$allocator@D@std@@@std@@SAIABV?$allocator@D@2@@Z ; std::allocator_traits<std::allocator<char> >::max_size
	add	esp, 4

; 915  : 		}

	mov	esp, ebp
	pop	ebp
	ret	0
?max_size@?$_Wrap_alloc@V?$allocator@D@std@@@std@@QBEIXZ ENDP ; std::_Wrap_alloc<std::allocator<char> >::max_size
_TEXT	ENDS
; Function compile flags: /Odtp
; File c:\program files (x86)\microsoft visual studio 11.0\vc\include\xmemory0
;	COMDAT ?deallocate@?$_Wrap_alloc@V?$allocator@D@std@@@std@@QAEXPADI@Z
_TEXT	SEGMENT
_this$ = -4						; size = 4
__Ptr$ = 8						; size = 4
__Count$ = 12						; size = 4
?deallocate@?$_Wrap_alloc@V?$allocator@D@std@@@std@@QAEXPADI@Z PROC ; std::_Wrap_alloc<std::allocator<char> >::deallocate, COMDAT
; _this$ = ecx

; 886  : 		{	// deallocate object at _Ptr, ignore size

	push	ebp
	mov	ebp, esp
	push	ecx
	mov	DWORD PTR _this$[ebp], ecx

; 887  : 		_Mybase::deallocate(_Ptr, _Count);

	mov	eax, DWORD PTR __Count$[ebp]
	push	eax
	mov	ecx, DWORD PTR __Ptr$[ebp]
	push	ecx
	mov	ecx, DWORD PTR _this$[ebp]
	call	?deallocate@?$allocator@D@std@@QAEXPADI@Z ; std::allocator<char>::deallocate

; 888  : 		}

	mov	esp, ebp
	pop	ebp
	ret	8
?deallocate@?$_Wrap_alloc@V?$allocator@D@std@@@std@@QAEXPADI@Z ENDP ; std::_Wrap_alloc<std::allocator<char> >::deallocate
_TEXT	ENDS
; Function compile flags: /Odtp
; File c:\program files (x86)\microsoft visual studio 11.0\vc\include\xmemory0
;	COMDAT ?allocate@?$_Wrap_alloc@V?$allocator@D@std@@@std@@QAEPADI@Z
_TEXT	SEGMENT
_this$ = -4						; size = 4
__Count$ = 8						; size = 4
?allocate@?$_Wrap_alloc@V?$allocator@D@std@@@std@@QAEPADI@Z PROC ; std::_Wrap_alloc<std::allocator<char> >::allocate, COMDAT
; _this$ = ecx

; 875  : 		{	// allocate array of _Count elements

	push	ebp
	mov	ebp, esp
	push	ecx
	mov	DWORD PTR _this$[ebp], ecx

; 876  : 		return (_Mybase::allocate(_Count));

	mov	eax, DWORD PTR __Count$[ebp]
	push	eax
	mov	ecx, DWORD PTR _this$[ebp]
	call	?allocate@?$allocator@D@std@@QAEPADI@Z	; std::allocator<char>::allocate

; 877  : 		}

	mov	esp, ebp
	pop	ebp
	ret	4
?allocate@?$_Wrap_alloc@V?$allocator@D@std@@@std@@QAEPADI@Z ENDP ; std::_Wrap_alloc<std::allocator<char> >::allocate
_TEXT	ENDS
; Function compile flags: /Odtp
; File c:\program files (x86)\microsoft visual studio 11.0\vc\include\xmemory0
;	COMDAT ??0?$_Wrap_alloc@V?$allocator@D@std@@@std@@QAE@XZ
_TEXT	SEGMENT
_this$ = -4						; size = 4
??0?$_Wrap_alloc@V?$allocator@D@std@@@std@@QAE@XZ PROC	; std::_Wrap_alloc<std::allocator<char> >::_Wrap_alloc<std::allocator<char> >, COMDAT
; _this$ = ecx

; 830  : 		{	// construct default allocator (do nothing)

	push	ebp
	mov	ebp, esp
	push	ecx
	mov	DWORD PTR _this$[ebp], ecx
	mov	ecx, DWORD PTR _this$[ebp]
	call	??0?$allocator@D@std@@QAE@XZ		; std::allocator<char>::allocator<char>

; 831  : 		}

	mov	eax, DWORD PTR _this$[ebp]
	mov	esp, ebp
	pop	ebp
	ret	0
??0?$_Wrap_alloc@V?$allocator@D@std@@@std@@QAE@XZ ENDP	; std::_Wrap_alloc<std::allocator<char> >::_Wrap_alloc<std::allocator<char> >
_TEXT	ENDS
; Function compile flags: /Odtp
; File c:\program files (x86)\microsoft visual studio 11.0\vc\include\xmemory0
;	COMDAT ?max_size@?$allocator_traits@V?$allocator@D@std@@@std@@SAIABV?$allocator@D@2@@Z
_TEXT	SEGMENT
__Al$ = 8						; size = 4
?max_size@?$allocator_traits@V?$allocator@D@std@@@std@@SAIABV?$allocator@D@2@@Z PROC ; std::allocator_traits<std::allocator<char> >::max_size, COMDAT

; 761  : 		{	// get maximum size

	push	ebp
	mov	ebp, esp

; 762  : 		return (_Al.max_size());

	mov	ecx, DWORD PTR __Al$[ebp]
	call	?max_size@?$allocator@D@std@@QBEIXZ	; std::allocator<char>::max_size

; 763  : 		}

	pop	ebp
	ret	0
?max_size@?$allocator_traits@V?$allocator@D@std@@@std@@SAIABV?$allocator@D@2@@Z ENDP ; std::allocator_traits<std::allocator<char> >::max_size
_TEXT	ENDS
; Function compile flags: /Odtp
; File c:\program files (x86)\microsoft visual studio 11.0\vc\include\xmemory0
;	COMDAT ?max_size@?$allocator@D@std@@QBEIXZ
_TEXT	SEGMENT
_this$ = -4						; size = 4
?max_size@?$allocator@D@std@@QBEIXZ PROC		; std::allocator<char>::max_size, COMDAT
; _this$ = ecx

; 627  : 		{	// estimate maximum array size

	push	ebp
	mov	ebp, esp
	push	ecx
	mov	DWORD PTR _this$[ebp], ecx

; 628  : 		return ((size_t)(-1) / sizeof (_Ty));

	or	eax, -1

; 629  : 		}

	mov	esp, ebp
	pop	ebp
	ret	0
?max_size@?$allocator@D@std@@QBEIXZ ENDP		; std::allocator<char>::max_size
_TEXT	ENDS
; Function compile flags: /Odtp
; File c:\program files (x86)\microsoft visual studio 11.0\vc\include\xmemory0
;	COMDAT ?allocate@?$allocator@D@std@@QAEPADI@Z
_TEXT	SEGMENT
_this$ = -4						; size = 4
__Count$ = 8						; size = 4
?allocate@?$allocator@D@std@@QAEPADI@Z PROC		; std::allocator<char>::allocate, COMDAT
; _this$ = ecx

; 590  : 		{	// allocate array of _Count elements

	push	ebp
	mov	ebp, esp
	push	ecx
	mov	DWORD PTR _this$[ebp], ecx

; 591  : 		return (_Allocate(_Count, (pointer)0));

	push	0
	mov	eax, DWORD PTR __Count$[ebp]
	push	eax
	call	??$_Allocate@D@std@@YAPADIPAD@Z		; std::_Allocate<char>
	add	esp, 8

; 592  : 		}

	mov	esp, ebp
	pop	ebp
	ret	4
?allocate@?$allocator@D@std@@QAEPADI@Z ENDP		; std::allocator<char>::allocate
_TEXT	ENDS
; Function compile flags: /Odtp
; File c:\program files (x86)\microsoft visual studio 11.0\vc\include\xmemory0
;	COMDAT ?deallocate@?$allocator@D@std@@QAEXPADI@Z
_TEXT	SEGMENT
_this$ = -4						; size = 4
__Ptr$ = 8						; size = 4
___formal$ = 12						; size = 4
?deallocate@?$allocator@D@std@@QAEXPADI@Z PROC		; std::allocator<char>::deallocate, COMDAT
; _this$ = ecx

; 585  : 		{	// deallocate object at _Ptr, ignore size

	push	ebp
	mov	ebp, esp
	push	ecx
	mov	DWORD PTR _this$[ebp], ecx

; 586  : 		::operator delete(_Ptr);

	mov	eax, DWORD PTR __Ptr$[ebp]
	push	eax
	call	??3@YAXPAX@Z				; operator delete
	add	esp, 4

; 587  : 		}

	mov	esp, ebp
	pop	ebp
	ret	8
?deallocate@?$allocator@D@std@@QAEXPADI@Z ENDP		; std::allocator<char>::deallocate
_TEXT	ENDS
; Function compile flags: /Odtp
; File c:\program files (x86)\microsoft visual studio 11.0\vc\include\xmemory0
;	COMDAT ??0?$allocator@D@std@@QAE@XZ
_TEXT	SEGMENT
_this$ = -4						; size = 4
??0?$allocator@D@std@@QAE@XZ PROC			; std::allocator<char>::allocator<char>, COMDAT
; _this$ = ecx

; 565  : 	allocator() _THROW0()

	push	ebp
	mov	ebp, esp
	push	ecx
	mov	DWORD PTR _this$[ebp], ecx

; 566  : 		{	// construct default allocator (do nothing)
; 567  : 		}

	mov	eax, DWORD PTR _this$[ebp]
	mov	esp, ebp
	pop	ebp
	ret	0
??0?$allocator@D@std@@QAE@XZ ENDP			; std::allocator<char>::allocator<char>
_TEXT	ENDS
; Function compile flags: /Odtp
; File c:\program files (x86)\microsoft visual studio 11.0\vc\include\xutility
;	COMDAT ??__Eallocator_arg@std@@YAXXZ
text$yc	SEGMENT
$T1 = -1						; size = 1
??__Eallocator_arg@std@@YAXXZ PROC			; std::`dynamic initializer for 'allocator_arg'', COMDAT

; 3644 : const allocator_arg_t allocator_arg = allocator_arg_t();

	push	ebp
	mov	ebp, esp
	push	ecx
	xor	eax, eax
	mov	BYTE PTR $T1[ebp], al
	mov	esp, ebp
	pop	ebp
	ret	0
??__Eallocator_arg@std@@YAXXZ ENDP			; std::`dynamic initializer for 'allocator_arg''
text$yc	ENDS
; Function compile flags: /Odtp
; File c:\program files (x86)\microsoft visual studio 11.0\vc\include\utility
;	COMDAT ??__Epiecewise_construct@std@@YAXXZ
text$yc	SEGMENT
$T1 = -1						; size = 1
??__Epiecewise_construct@std@@YAXXZ PROC		; std::`dynamic initializer for 'piecewise_construct'', COMDAT

; 65   : 	piecewise_construct_t();

	push	ebp
	mov	ebp, esp
	push	ecx
	xor	eax, eax
	mov	BYTE PTR $T1[ebp], al
	mov	esp, ebp
	pop	ebp
	ret	0
??__Epiecewise_construct@std@@YAXXZ ENDP		; std::`dynamic initializer for 'piecewise_construct''
text$yc	ENDS
; Function compile flags: /Odtp
; File c:\program files (x86)\microsoft visual studio 11.0\vc\include\iosfwd
;	COMDAT ?assign@?$char_traits@D@std@@SAXAADABD@Z
_TEXT	SEGMENT
__Left$ = 8						; size = 4
__Right$ = 12						; size = 4
?assign@?$char_traits@D@std@@SAXAADABD@Z PROC		; std::char_traits<char>::assign, COMDAT

; 563  : 		{	// assign an element

	push	ebp
	mov	ebp, esp

; 564  : 		_Left = _Right;

	mov	eax, DWORD PTR __Left$[ebp]
	mov	ecx, DWORD PTR __Right$[ebp]
	mov	dl, BYTE PTR [ecx]
	mov	BYTE PTR [eax], dl

; 565  : 		}

	pop	ebp
	ret	0
?assign@?$char_traits@D@std@@SAXAADABD@Z ENDP		; std::char_traits<char>::assign
_TEXT	ENDS
; Function compile flags: /Odtp
; File c:\program files (x86)\microsoft visual studio 11.0\vc\include\iosfwd
;	COMDAT ?move@?$char_traits@D@std@@SAPADPADPBDI@Z
_TEXT	SEGMENT
tv69 = -4						; size = 4
__First1$ = 8						; size = 4
__First2$ = 12						; size = 4
__Count$ = 16						; size = 4
?move@?$char_traits@D@std@@SAPADPADPBDI@Z PROC		; std::char_traits<char>::move, COMDAT

; 551  : 		{	// copy [_First2, _First2 + _Count) to [_First1, ...)

	push	ebp
	mov	ebp, esp
	push	ecx

; 552  : 		return (_Count == 0 ? _First1
; 553  : 			: (_Elem *)_CSTD memmove(_First1, _First2, _Count));

	cmp	DWORD PTR __Count$[ebp], 0
	jne	SHORT $LN3@move
	mov	eax, DWORD PTR __First1$[ebp]
	mov	DWORD PTR tv69[ebp], eax
	jmp	SHORT $LN4@move
$LN3@move:
	mov	ecx, DWORD PTR __Count$[ebp]
	push	ecx
	mov	edx, DWORD PTR __First2$[ebp]
	push	edx
	mov	eax, DWORD PTR __First1$[ebp]
	push	eax
	call	_memmove
	add	esp, 12					; 0000000cH
	mov	DWORD PTR tv69[ebp], eax
$LN4@move:
	mov	eax, DWORD PTR tv69[ebp]

; 554  : 		}

	mov	esp, ebp
	pop	ebp
	ret	0
?move@?$char_traits@D@std@@SAPADPADPBDI@Z ENDP		; std::char_traits<char>::move
_TEXT	ENDS
; Function compile flags: /Odtp
; File c:\program files (x86)\microsoft visual studio 11.0\vc\include\iosfwd
;	COMDAT ?copy@?$char_traits@D@std@@SAPADPADPBDI@Z
_TEXT	SEGMENT
tv69 = -4						; size = 4
__First1$ = 8						; size = 4
__First2$ = 12						; size = 4
__Count$ = 16						; size = 4
?copy@?$char_traits@D@std@@SAPADPADPBDI@Z PROC		; std::char_traits<char>::copy, COMDAT

; 528  : 		{	// copy [_First2, _First2 + _Count) to [_First1, ...)

	push	ebp
	mov	ebp, esp
	push	ecx

; 529  : 		return (_Count == 0 ? _First1
; 530  : 			: (_Elem *)_CSTD memcpy(_First1, _First2, _Count));

	cmp	DWORD PTR __Count$[ebp], 0
	jne	SHORT $LN3@copy
	mov	eax, DWORD PTR __First1$[ebp]
	mov	DWORD PTR tv69[ebp], eax
	jmp	SHORT $LN4@copy
$LN3@copy:
	mov	ecx, DWORD PTR __Count$[ebp]
	push	ecx
	mov	edx, DWORD PTR __First2$[ebp]
	push	edx
	mov	eax, DWORD PTR __First1$[ebp]
	push	eax
	call	_memcpy
	add	esp, 12					; 0000000cH
	mov	DWORD PTR tv69[ebp], eax
$LN4@copy:
	mov	eax, DWORD PTR tv69[ebp]

; 531  : 		}

	mov	esp, ebp
	pop	ebp
	ret	0
?copy@?$char_traits@D@std@@SAPADPADPBDI@Z ENDP		; std::char_traits<char>::copy
_TEXT	ENDS
; Function compile flags: /Odtp
; File c:\program files (x86)\microsoft visual studio 11.0\vc\include\iosfwd
;	COMDAT ?length@?$char_traits@D@std@@SAIPBD@Z
_TEXT	SEGMENT
tv68 = -4						; size = 4
__First$ = 8						; size = 4
?length@?$char_traits@D@std@@SAIPBD@Z PROC		; std::char_traits<char>::length, COMDAT

; 521  : 		{	// find length of null-terminated string

	push	ebp
	mov	ebp, esp
	push	ecx

; 522  : 		return (*_First == 0 ? 0
; 523  : 			: _CSTD strlen(_First));

	mov	eax, DWORD PTR __First$[ebp]
	movsx	ecx, BYTE PTR [eax]
	test	ecx, ecx
	jne	SHORT $LN3@length
	mov	DWORD PTR tv68[ebp], 0
	jmp	SHORT $LN4@length
$LN3@length:
	mov	edx, DWORD PTR __First$[ebp]
	push	edx
	call	_strlen
	add	esp, 4
	mov	DWORD PTR tv68[ebp], eax
$LN4@length:
	mov	eax, DWORD PTR tv68[ebp]

; 524  : 		}

	mov	esp, ebp
	pop	ebp
	ret	0
?length@?$char_traits@D@std@@SAIPBD@Z ENDP		; std::char_traits<char>::length
_TEXT	ENDS
; Function compile flags: /Odtp
; File c:\program files (x86)\microsoft visual studio 11.0\vc\include\new
;	COMDAT ??3@YAXPAX0@Z
_TEXT	SEGMENT
___formal$ = 8						; size = 4
___formal$ = 12						; size = 4
??3@YAXPAX0@Z PROC					; operator delete, COMDAT

; 64   : 	{	// delete if placement new fails

	push	ebp
	mov	ebp, esp

; 65   : 	}

	pop	ebp
	ret	0
??3@YAXPAX0@Z ENDP					; operator delete
_TEXT	ENDS
; Function compile flags: /Odtp
; File c:\program files (x86)\microsoft visual studio 11.0\vc\include\new
;	COMDAT ??2@YAPAXIPAX@Z
_TEXT	SEGMENT
___formal$ = 8						; size = 4
__Where$ = 12						; size = 4
??2@YAPAXIPAX@Z PROC					; operator new, COMDAT

; 59   : 	{	// construct array with placement at _Where

	push	ebp
	mov	ebp, esp

; 60   : 	return (_Where);

	mov	eax, DWORD PTR __Where$[ebp]

; 61   : 	}

	pop	ebp
	ret	0
??2@YAPAXIPAX@Z ENDP					; operator new
_TEXT	ENDS
; Function compile flags: /Odtp
; File c:\users\zhitao li\documents\visual studio 2012\projects\freefalcon\vu2\include\vuentity.h
;	COMDAT ?YPos@VuEntity@@QBEMXZ
_TEXT	SEGMENT
_this$ = -4						; size = 4
?YPos@VuEntity@@QBEMXZ PROC				; VuEntity::YPos, COMDAT
; _this$ = ecx

; 159  : 	BIG_SCALAR YPos()	const { return pos_.y_; }

	push	ebp
	mov	ebp, esp
	push	ecx
	mov	DWORD PTR _this$[ebp], ecx
	mov	eax, DWORD PTR _this$[ebp]
	fld	DWORD PTR [eax+40]
	mov	esp, ebp
	pop	ebp
	ret	0
?YPos@VuEntity@@QBEMXZ ENDP				; VuEntity::YPos
_TEXT	ENDS
; Function compile flags: /Odtp
; File c:\users\zhitao li\documents\visual studio 2012\projects\freefalcon\vu2\include\vuentity.h
;	COMDAT ?XPos@VuEntity@@QBEMXZ
_TEXT	SEGMENT
_this$ = -4						; size = 4
?XPos@VuEntity@@QBEMXZ PROC				; VuEntity::XPos, COMDAT
; _this$ = ecx

; 158  : 	BIG_SCALAR XPos() const { return pos_.x_; }

	push	ebp
	mov	ebp, esp
	push	ecx
	mov	DWORD PTR _this$[ebp], ecx
	mov	eax, DWORD PTR _this$[ebp]
	fld	DWORD PTR [eax+36]
	mov	esp, ebp
	pop	ebp
	ret	0
?XPos@VuEntity@@QBEMXZ ENDP				; VuEntity::XPos
_TEXT	ENDS
; Function compile flags: /Odtp
; File c:\users\zhitao li\documents\visual studio 2012\projects\freefalcon\falclib\include\vutypes.h
;	COMDAT ??8VU_ID@@QBE_NABV0@@Z
_TEXT	SEGMENT
_this$ = -8						; size = 4
tv74 = -2						; size = 1
tv73 = -1						; size = 1
_rhs$ = 8						; size = 4
??8VU_ID@@QBE_NABV0@@Z PROC				; VU_ID::operator==, COMDAT
; _this$ = ecx

; 104  : 	bool operator == (const VU_ID &rhs) const { 

	push	ebp
	mov	ebp, esp
	sub	esp, 8
	mov	DWORD PTR _this$[ebp], ecx

; 105  : 		return (
; 106  : 			num_ == rhs.num_ ? 
; 107  : 			(creator_ == rhs.creator_ ? true : false) : 
; 108  : 			false
; 109  : 		); 

	mov	eax, DWORD PTR _this$[ebp]
	mov	ecx, DWORD PTR _rhs$[ebp]
	mov	edx, DWORD PTR [eax]
	cmp	edx, DWORD PTR [ecx]
	jne	SHORT $LN5@operator
	mov	eax, DWORD PTR _rhs$[ebp]
	add	eax, 4
	push	eax
	mov	ecx, DWORD PTR _this$[ebp]
	add	ecx, 4
	call	??8VU_SESSION_ID@@QBEHABV0@@Z		; VU_SESSION_ID::operator==
	test	eax, eax
	je	SHORT $LN3@operator
	mov	BYTE PTR tv73[ebp], 1
	jmp	SHORT $LN4@operator
$LN3@operator:
	mov	BYTE PTR tv73[ebp], 0
$LN4@operator:
	mov	cl, BYTE PTR tv73[ebp]
	mov	BYTE PTR tv74[ebp], cl
	jmp	SHORT $LN6@operator
$LN5@operator:
	mov	BYTE PTR tv74[ebp], 0
$LN6@operator:
	mov	al, BYTE PTR tv74[ebp]

; 110  : 	}

	mov	esp, ebp
	pop	ebp
	ret	4
??8VU_ID@@QBE_NABV0@@Z ENDP				; VU_ID::operator==
_TEXT	ENDS
; Function compile flags: /Odtp
; File c:\users\zhitao li\documents\visual studio 2012\projects\freefalcon\falclib\include\vutypes.h
;	COMDAT ??0VU_ID@@QAE@XZ
_TEXT	SEGMENT
_this$ = -4						; size = 4
??0VU_ID@@QAE@XZ PROC					; VU_ID::VU_ID, COMDAT
; _this$ = ecx

; 100  : 	VU_ID() : num_(0), creator_(0){}

	push	ebp
	mov	ebp, esp
	push	ecx
	mov	DWORD PTR _this$[ebp], ecx
	mov	eax, DWORD PTR _this$[ebp]
	mov	DWORD PTR [eax], 0
	push	0
	mov	ecx, DWORD PTR _this$[ebp]
	add	ecx, 4
	call	??0VU_SESSION_ID@@QAE@K@Z		; VU_SESSION_ID::VU_SESSION_ID
	mov	eax, DWORD PTR _this$[ebp]
	mov	esp, ebp
	pop	ebp
	ret	0
??0VU_ID@@QAE@XZ ENDP					; VU_ID::VU_ID
_TEXT	ENDS
; Function compile flags: /Odtp
; File c:\users\zhitao li\documents\visual studio 2012\projects\freefalcon\falclib\include\vutypes.h
;	COMDAT ??8VU_SESSION_ID@@QBEHABV0@@Z
_TEXT	SEGMENT
_this$ = -8						; size = 4
tv67 = -4						; size = 4
_rhs$ = 8						; size = 4
??8VU_SESSION_ID@@QBEHABV0@@Z PROC			; VU_SESSION_ID::operator==, COMDAT
; _this$ = ecx

; 55   : 	int operator == (const VU_SESSION_ID &rhs) const{

	push	ebp
	mov	ebp, esp
	sub	esp, 8
	mov	DWORD PTR _this$[ebp], ecx

; 56   : 		return (value_ == rhs.value_ ? TRUE : FALSE); 

	mov	eax, DWORD PTR _this$[ebp]
	mov	ecx, DWORD PTR _rhs$[ebp]
	mov	edx, DWORD PTR [eax]
	cmp	edx, DWORD PTR [ecx]
	jne	SHORT $LN3@operator
	mov	DWORD PTR tv67[ebp], 1
	jmp	SHORT $LN4@operator
$LN3@operator:
	mov	DWORD PTR tv67[ebp], 0
$LN4@operator:
	mov	eax, DWORD PTR tv67[ebp]

; 57   : 	}

	mov	esp, ebp
	pop	ebp
	ret	4
??8VU_SESSION_ID@@QBEHABV0@@Z ENDP			; VU_SESSION_ID::operator==
_TEXT	ENDS
; Function compile flags: /Odtp
; File c:\users\zhitao li\documents\visual studio 2012\projects\freefalcon\falclib\include\vutypes.h
;	COMDAT ??0VU_SESSION_ID@@QAE@K@Z
_TEXT	SEGMENT
_this$ = -4						; size = 4
_value$ = 8						; size = 4
??0VU_SESSION_ID@@QAE@K@Z PROC				; VU_SESSION_ID::VU_SESSION_ID, COMDAT
; _this$ = ecx

; 53   : 	VU_SESSION_ID(unsigned long value) : value_((unsigned long)value) { }

	push	ebp
	mov	ebp, esp
	push	ecx
	mov	DWORD PTR _this$[ebp], ecx
	mov	eax, DWORD PTR _this$[ebp]
	mov	ecx, DWORD PTR _value$[ebp]
	mov	DWORD PTR [eax], ecx
	mov	eax, DWORD PTR _this$[ebp]
	mov	esp, ebp
	pop	ebp
	ret	4
??0VU_SESSION_ID@@QAE@K@Z ENDP				; VU_SESSION_ID::VU_SESSION_ID
_TEXT	ENDS
; Function compile flags: /Odtp
; File c:\users\zhitao li\documents\visual studio 2012\projects\freefalcon\mathlib\math.h
_TEXT	SEGMENT
_x$ = 8							; size = 4
?FloatToInt32@@YAHM@Z PROC				; FloatToInt32

; 179  : {

	push	ebp
	mov	ebp, esp

; 180  : #if WIN32
; 181  :   __asm {
; 182  :     fld dword ptr [x];

	fld	DWORD PTR _x$[ebp]

; 183  :     fistp dword ptr [x];

	fistp	DWORD PTR _x$[ebp]

; 184  :     mov eax,dword ptr [x];

	mov	eax, DWORD PTR _x$[ebp]

; 185  :   }
; 186  : #else 
; 187  : 	return static_cast<int>(x);	
; 188  : #endif
; 189  : }

	pop	ebp
	ret	0
?FloatToInt32@@YAHM@Z ENDP				; FloatToInt32
_TEXT	ENDS
; Function compile flags: /Odtp
; File c:\program files (x86)\microsoft visual studio 11.0\vc\include\time.inl
_TEXT	SEGMENT
__Time$ = 8						; size = 4
_time	PROC

; 132  : {

	push	ebp
	mov	ebp, esp

; 133  :     return _time64(_Time);

	mov	eax, DWORD PTR __Time$[ebp]
	push	eax
	call	__time64
	add	esp, 4

; 134  : }

	pop	ebp
	ret	0
_time	ENDP
_TEXT	ENDS
; Function compile flags: /Odtp
; File c:\program files (x86)\microsoft visual studio 11.0\vc\include\math.h
;	COMDAT ?abs@@YAMM@Z
_TEXT	SEGMENT
__X$ = 8						; size = 4
?abs@@YAMM@Z PROC					; abs, COMDAT

; 499  :         {return (fabsf(_X)); }

	push	ebp
	mov	ebp, esp
	push	ecx
	movss	xmm0, DWORD PTR __X$[ebp]
	movss	DWORD PTR [esp], xmm0
	call	_fabsf
	add	esp, 4
	pop	ebp
	ret	0
?abs@@YAMM@Z ENDP					; abs
_TEXT	ENDS
; Function compile flags: /Odtp
; File c:\program files (x86)\microsoft visual studio 11.0\vc\include\math.h
;	COMDAT _fabsf
_TEXT	SEGMENT
tv74 = -12						; size = 8
tv76 = -4						; size = 4
__X$ = 8						; size = 4
_fabsf	PROC						; COMDAT

; 392  :         {return ((float)fabs((double)_X)); }

	push	ebp
	mov	ebp, esp
	sub	esp, 12					; 0000000cH
	cvtss2sd xmm0, DWORD PTR __X$[ebp]
	sub	esp, 8
	movsd	QWORD PTR [esp], xmm0
	call	_fabs
	add	esp, 8
	fstp	QWORD PTR tv74[ebp]
	movsd	xmm0, QWORD PTR tv74[ebp]
	cvtsd2ss xmm0, xmm0
	movss	DWORD PTR tv76[ebp], xmm0
	fld	DWORD PTR tv76[ebp]
	mov	esp, ebp
	pop	ebp
	ret	0
_fabsf	ENDP
_TEXT	ENDS
END
