; Listing generated by Microsoft (R) Optimizing Compiler Version 17.00.51106.1 

	TITLE	C:\Users\Zhitao Li\Documents\Visual Studio 2012\Projects\Freefalcon\SIM\SIMLIB\simmover.cpp
	.686P
	.XMM
	include listing.inc
	.model	flat

INCLUDELIB LIBCMT
INCLUDELIB OLDNAMES

PUBLIC	?traps@_Num_base@std@@2_NB			; std::_Num_base::traps
PUBLIC	?round_style@_Num_base@std@@2W4float_round_style@2@B ; std::_Num_base::round_style
PUBLIC	?digits@_Num_base@std@@2HB			; std::_Num_base::digits
PUBLIC	?digits10@_Num_base@std@@2HB			; std::_Num_base::digits10
PUBLIC	?table_size@?$ctype@D@std@@2IB			; std::ctype<char>::table_size
PUBLIC	?max_digits10@_Num_base@std@@2HB		; std::_Num_base::max_digits10
PUBLIC	?max_exponent@_Num_base@std@@2HB		; std::_Num_base::max_exponent
PUBLIC	?max_exponent10@_Num_base@std@@2HB		; std::_Num_base::max_exponent10
PUBLIC	?min_exponent@_Num_base@std@@2HB		; std::_Num_base::min_exponent
PUBLIC	?min_exponent10@_Num_base@std@@2HB		; std::_Num_base::min_exponent10
PUBLIC	?radix@_Num_base@std@@2HB			; std::_Num_base::radix
PUBLIC	?is_bounded@_Num_int_base@std@@2_NB		; std::_Num_int_base::is_bounded
PUBLIC	?is_exact@_Num_int_base@std@@2_NB		; std::_Num_int_base::is_exact
PUBLIC	?is_integer@_Num_int_base@std@@2_NB		; std::_Num_int_base::is_integer
PUBLIC	?is_modulo@_Num_int_base@std@@2_NB		; std::_Num_int_base::is_modulo
PUBLIC	?is_specialized@_Num_int_base@std@@2_NB		; std::_Num_int_base::is_specialized
PUBLIC	?radix@_Num_int_base@std@@2HB			; std::_Num_int_base::radix
PUBLIC	?has_denorm@_Num_float_base@std@@2W4float_denorm_style@2@B ; std::_Num_float_base::has_denorm
PUBLIC	?has_denorm_loss@_Num_float_base@std@@2_NB	; std::_Num_float_base::has_denorm_loss
PUBLIC	?SIMDIRTYDATA_INTERVAL@FalconEntity@@2KB	; FalconEntity::SIMDIRTYDATA_INTERVAL
PUBLIC	?CMPDIRTYDATA_INTERVAL@FalconEntity@@2KB	; FalconEntity::CMPDIRTYDATA_INTERVAL
PUBLIC	?has_infinity@_Num_float_base@std@@2_NB		; std::_Num_float_base::has_infinity
PUBLIC	?has_quiet_NaN@_Num_float_base@std@@2_NB	; std::_Num_float_base::has_quiet_NaN
PUBLIC	?has_signaling_NaN@_Num_float_base@std@@2_NB	; std::_Num_float_base::has_signaling_NaN
PUBLIC	?is_bounded@_Num_float_base@std@@2_NB		; std::_Num_float_base::is_bounded
PUBLIC	?is_exact@_Num_float_base@std@@2_NB		; std::_Num_float_base::is_exact
PUBLIC	?is_iec559@_Num_float_base@std@@2_NB		; std::_Num_float_base::is_iec559
PUBLIC	?is_integer@_Num_float_base@std@@2_NB		; std::_Num_float_base::is_integer
PUBLIC	?is_modulo@_Num_float_base@std@@2_NB		; std::_Num_float_base::is_modulo
PUBLIC	?is_signed@_Num_float_base@std@@2_NB		; std::_Num_float_base::is_signed
PUBLIC	?is_specialized@_Num_float_base@std@@2_NB	; std::_Num_float_base::is_specialized
PUBLIC	?tinyness_before@_Num_float_base@std@@2_NB	; std::_Num_float_base::tinyness_before
PUBLIC	?traps@_Num_float_base@std@@2_NB		; std::_Num_float_base::traps
PUBLIC	?round_style@_Num_float_base@std@@2W4float_round_style@2@B ; std::_Num_float_base::round_style
PUBLIC	?radix@_Num_float_base@std@@2HB			; std::_Num_float_base::radix
PUBLIC	?is_signed@?$numeric_limits@D@std@@2_NB		; std::numeric_limits<char>::is_signed
PUBLIC	?digits@?$numeric_limits@D@std@@2HB		; std::numeric_limits<char>::digits
PUBLIC	?digits10@?$numeric_limits@D@std@@2HB		; std::numeric_limits<char>::digits10
PUBLIC	?is_signed@?$numeric_limits@_W@std@@2_NB	; std::numeric_limits<wchar_t>::is_signed
PUBLIC	?digits@?$numeric_limits@_W@std@@2HB		; std::numeric_limits<wchar_t>::digits
PUBLIC	?digits10@?$numeric_limits@_W@std@@2HB		; std::numeric_limits<wchar_t>::digits10
PUBLIC	?is_modulo@?$numeric_limits@_N@std@@2_NB	; std::numeric_limits<bool>::is_modulo
PUBLIC	?is_signed@?$numeric_limits@_N@std@@2_NB	; std::numeric_limits<bool>::is_signed
PUBLIC	?digits@?$numeric_limits@_N@std@@2HB		; std::numeric_limits<bool>::digits
PUBLIC	?digits10@?$numeric_limits@_N@std@@2HB		; std::numeric_limits<bool>::digits10
PUBLIC	?is_signed@?$numeric_limits@C@std@@2_NB		; std::numeric_limits<signed char>::is_signed
PUBLIC	?digits@?$numeric_limits@C@std@@2HB		; std::numeric_limits<signed char>::digits
PUBLIC	?digits10@?$numeric_limits@C@std@@2HB		; std::numeric_limits<signed char>::digits10
PUBLIC	?is_signed@?$numeric_limits@E@std@@2_NB		; std::numeric_limits<unsigned char>::is_signed
PUBLIC	?value@?$integral_constant@_N$0A@@std@@2_NB	; std::integral_constant<bool,0>::value
PUBLIC	?digits@?$numeric_limits@E@std@@2HB		; std::numeric_limits<unsigned char>::digits
PUBLIC	?digits10@?$numeric_limits@E@std@@2HB		; std::numeric_limits<unsigned char>::digits10
PUBLIC	?value@?$integral_constant@_N$00@std@@2_NB	; std::integral_constant<bool,1>::value
PUBLIC	?is_signed@?$numeric_limits@F@std@@2_NB		; std::numeric_limits<short>::is_signed
PUBLIC	?digits@?$numeric_limits@F@std@@2HB		; std::numeric_limits<short>::digits
PUBLIC	?digits10@?$numeric_limits@F@std@@2HB		; std::numeric_limits<short>::digits10
PUBLIC	?is_signed@?$numeric_limits@G@std@@2_NB		; std::numeric_limits<unsigned short>::is_signed
PUBLIC	?digits@?$numeric_limits@G@std@@2HB		; std::numeric_limits<unsigned short>::digits
PUBLIC	?digits10@?$numeric_limits@G@std@@2HB		; std::numeric_limits<unsigned short>::digits10
PUBLIC	?is_signed@?$numeric_limits@H@std@@2_NB		; std::numeric_limits<int>::is_signed
PUBLIC	?value@?$_Sizeof@HU_Nil@std@@U12@U12@U12@U12@U12@U12@@std@@2IB ; std::_Sizeof<int,std::_Nil,std::_Nil,std::_Nil,std::_Nil,std::_Nil,std::_Nil,std::_Nil>::value
PUBLIC	?digits@?$numeric_limits@H@std@@2HB		; std::numeric_limits<int>::digits
PUBLIC	?digits10@?$numeric_limits@H@std@@2HB		; std::numeric_limits<int>::digits10
PUBLIC	?is_signed@?$numeric_limits@I@std@@2_NB		; std::numeric_limits<unsigned int>::is_signed
PUBLIC	?digits@?$numeric_limits@I@std@@2HB		; std::numeric_limits<unsigned int>::digits
PUBLIC	?digits10@?$numeric_limits@I@std@@2HB		; std::numeric_limits<unsigned int>::digits10
PUBLIC	?skipws@?$_Iosb@H@std@@2W4_Fmtflags@12@B	; std::_Iosb<int>::skipws
PUBLIC	?unitbuf@?$_Iosb@H@std@@2W4_Fmtflags@12@B	; std::_Iosb<int>::unitbuf
PUBLIC	?uppercase@?$_Iosb@H@std@@2W4_Fmtflags@12@B	; std::_Iosb<int>::uppercase
PUBLIC	?showbase@?$_Iosb@H@std@@2W4_Fmtflags@12@B	; std::_Iosb<int>::showbase
PUBLIC	?is_signed@?$numeric_limits@J@std@@2_NB		; std::numeric_limits<long>::is_signed
PUBLIC	?showpoint@?$_Iosb@H@std@@2W4_Fmtflags@12@B	; std::_Iosb<int>::showpoint
PUBLIC	?digits@?$numeric_limits@J@std@@2HB		; std::numeric_limits<long>::digits
PUBLIC	?showpos@?$_Iosb@H@std@@2W4_Fmtflags@12@B	; std::_Iosb<int>::showpos
PUBLIC	?digits10@?$numeric_limits@J@std@@2HB		; std::numeric_limits<long>::digits10
PUBLIC	?left@?$_Iosb@H@std@@2W4_Fmtflags@12@B		; std::_Iosb<int>::left
PUBLIC	?right@?$_Iosb@H@std@@2W4_Fmtflags@12@B		; std::_Iosb<int>::right
PUBLIC	?internal@?$_Iosb@H@std@@2W4_Fmtflags@12@B	; std::_Iosb<int>::internal
PUBLIC	?dec@?$_Iosb@H@std@@2W4_Fmtflags@12@B		; std::_Iosb<int>::dec
PUBLIC	?oct@?$_Iosb@H@std@@2W4_Fmtflags@12@B		; std::_Iosb<int>::oct
PUBLIC	?hex@?$_Iosb@H@std@@2W4_Fmtflags@12@B		; std::_Iosb<int>::hex
PUBLIC	?scientific@?$_Iosb@H@std@@2W4_Fmtflags@12@B	; std::_Iosb<int>::scientific
PUBLIC	?fixed@?$_Iosb@H@std@@2W4_Fmtflags@12@B		; std::_Iosb<int>::fixed
PUBLIC	?hexfloat@?$_Iosb@H@std@@2W4_Fmtflags@12@B	; std::_Iosb<int>::hexfloat
PUBLIC	?boolalpha@?$_Iosb@H@std@@2W4_Fmtflags@12@B	; std::_Iosb<int>::boolalpha
PUBLIC	?is_signed@?$numeric_limits@K@std@@2_NB		; std::numeric_limits<unsigned long>::is_signed
PUBLIC	?_Stdio@?$_Iosb@H@std@@2W4_Fmtflags@12@B	; std::_Iosb<int>::_Stdio
PUBLIC	?adjustfield@?$_Iosb@H@std@@2W4_Fmtflags@12@B	; std::_Iosb<int>::adjustfield
PUBLIC	?digits@?$numeric_limits@K@std@@2HB		; std::numeric_limits<unsigned long>::digits
PUBLIC	?basefield@?$_Iosb@H@std@@2W4_Fmtflags@12@B	; std::_Iosb<int>::basefield
PUBLIC	?digits10@?$numeric_limits@K@std@@2HB		; std::numeric_limits<unsigned long>::digits10
PUBLIC	?floatfield@?$_Iosb@H@std@@2W4_Fmtflags@12@B	; std::_Iosb<int>::floatfield
PUBLIC	?goodbit@?$_Iosb@H@std@@2W4_Iostate@12@B	; std::_Iosb<int>::goodbit
PUBLIC	?eofbit@?$_Iosb@H@std@@2W4_Iostate@12@B		; std::_Iosb<int>::eofbit
PUBLIC	?failbit@?$_Iosb@H@std@@2W4_Iostate@12@B	; std::_Iosb<int>::failbit
PUBLIC	?badbit@?$_Iosb@H@std@@2W4_Iostate@12@B		; std::_Iosb<int>::badbit
PUBLIC	?_Hardfail@?$_Iosb@H@std@@2W4_Iostate@12@B	; std::_Iosb<int>::_Hardfail
PUBLIC	?in@?$_Iosb@H@std@@2W4_Openmode@12@B		; std::_Iosb<int>::in
PUBLIC	?out@?$_Iosb@H@std@@2W4_Openmode@12@B		; std::_Iosb<int>::out
PUBLIC	?ate@?$_Iosb@H@std@@2W4_Openmode@12@B		; std::_Iosb<int>::ate
PUBLIC	?is_signed@?$numeric_limits@_J@std@@2_NB	; std::numeric_limits<__int64>::is_signed
PUBLIC	?app@?$_Iosb@H@std@@2W4_Openmode@12@B		; std::_Iosb<int>::app
PUBLIC	?digits@?$numeric_limits@_J@std@@2HB		; std::numeric_limits<__int64>::digits
PUBLIC	?trunc@?$_Iosb@H@std@@2W4_Openmode@12@B		; std::_Iosb<int>::trunc
PUBLIC	?digits10@?$numeric_limits@_J@std@@2HB		; std::numeric_limits<__int64>::digits10
PUBLIC	?_Nocreate@?$_Iosb@H@std@@2W4_Openmode@12@B	; std::_Iosb<int>::_Nocreate
PUBLIC	?_Noreplace@?$_Iosb@H@std@@2W4_Openmode@12@B	; std::_Iosb<int>::_Noreplace
PUBLIC	?binary@?$_Iosb@H@std@@2W4_Openmode@12@B	; std::_Iosb<int>::binary
PUBLIC	?beg@?$_Iosb@H@std@@2W4_Seekdir@12@B		; std::_Iosb<int>::beg
PUBLIC	?cur@?$_Iosb@H@std@@2W4_Seekdir@12@B		; std::_Iosb<int>::cur
PUBLIC	?end@?$_Iosb@H@std@@2W4_Seekdir@12@B		; std::_Iosb<int>::end
PUBLIC	?is_signed@?$numeric_limits@_K@std@@2_NB	; std::numeric_limits<unsigned __int64>::is_signed
PUBLIC	?digits@?$numeric_limits@_K@std@@2HB		; std::numeric_limits<unsigned __int64>::digits
PUBLIC	?digits10@?$numeric_limits@_K@std@@2HB		; std::numeric_limits<unsigned __int64>::digits10
PUBLIC	?_Stream_err@failure@ios_base@std@@0W4io_errc@43@B ; std::ios_base::failure::_Stream_err
PUBLIC	?digits@?$numeric_limits@M@std@@2HB		; std::numeric_limits<float>::digits
PUBLIC	?digits10@?$numeric_limits@M@std@@2HB		; std::numeric_limits<float>::digits10
PUBLIC	?max_digits10@?$numeric_limits@M@std@@2HB	; std::numeric_limits<float>::max_digits10
PUBLIC	?max_exponent@?$numeric_limits@M@std@@2HB	; std::numeric_limits<float>::max_exponent
PUBLIC	?max_exponent10@?$numeric_limits@M@std@@2HB	; std::numeric_limits<float>::max_exponent10
PUBLIC	?min_exponent@?$numeric_limits@M@std@@2HB	; std::numeric_limits<float>::min_exponent
PUBLIC	?min_exponent10@?$numeric_limits@M@std@@2HB	; std::numeric_limits<float>::min_exponent10
PUBLIC	?value@?$integral_constant@I$0A@@std@@2IB	; std::integral_constant<unsigned int,0>::value
PUBLIC	?digits@?$numeric_limits@N@std@@2HB		; std::numeric_limits<double>::digits
PUBLIC	?digits10@?$numeric_limits@N@std@@2HB		; std::numeric_limits<double>::digits10
PUBLIC	?max_digits10@?$numeric_limits@N@std@@2HB	; std::numeric_limits<double>::max_digits10
PUBLIC	?max_exponent@?$numeric_limits@N@std@@2HB	; std::numeric_limits<double>::max_exponent
PUBLIC	?max_exponent10@?$numeric_limits@N@std@@2HB	; std::numeric_limits<double>::max_exponent10
PUBLIC	?min_exponent@?$numeric_limits@N@std@@2HB	; std::numeric_limits<double>::min_exponent
PUBLIC	?min_exponent10@?$numeric_limits@N@std@@2HB	; std::numeric_limits<double>::min_exponent10
PUBLIC	?digits@?$numeric_limits@O@std@@2HB		; std::numeric_limits<long double>::digits
PUBLIC	?digits10@?$numeric_limits@O@std@@2HB		; std::numeric_limits<long double>::digits10
PUBLIC	?max_digits10@?$numeric_limits@O@std@@2HB	; std::numeric_limits<long double>::max_digits10
PUBLIC	?max_exponent@?$numeric_limits@O@std@@2HB	; std::numeric_limits<long double>::max_exponent
PUBLIC	?max_exponent10@?$numeric_limits@O@std@@2HB	; std::numeric_limits<long double>::max_exponent10
PUBLIC	?min_exponent@?$numeric_limits@O@std@@2HB	; std::numeric_limits<long double>::min_exponent
PUBLIC	?min_exponent10@?$numeric_limits@O@std@@2HB	; std::numeric_limits<long double>::min_exponent10
PUBLIC	?graphicsDOFDataPool@@3PAXA			; graphicsDOFDataPool
PUBLIC	?value@?$_Sizeof@U_Nil@std@@U12@U12@U12@U12@U12@U12@U12@@std@@2IB ; std::_Sizeof<std::_Nil,std::_Nil,std::_Nil,std::_Nil,std::_Nil,std::_Nil,std::_Nil,std::_Nil>::value
PUBLIC	?collate@?$_Locbase@H@std@@2HB			; std::_Locbase<int>::collate
PUBLIC	?ctype@?$_Locbase@H@std@@2HB			; std::_Locbase<int>::ctype
PUBLIC	?monetary@?$_Locbase@H@std@@2HB			; std::_Locbase<int>::monetary
PUBLIC	?numeric@?$_Locbase@H@std@@2HB			; std::_Locbase<int>::numeric
PUBLIC	?time@?$_Locbase@H@std@@2HB			; std::_Locbase<int>::time
PUBLIC	?messages@?$_Locbase@H@std@@2HB			; std::_Locbase<int>::messages
PUBLIC	?all@?$_Locbase@H@std@@2HB			; std::_Locbase<int>::all
PUBLIC	?none@?$_Locbase@H@std@@2HB			; std::_Locbase<int>::none
PUBLIC	?has_denorm@_Num_base@std@@2W4float_denorm_style@2@B ; std::_Num_base::has_denorm
PUBLIC	?has_denorm_loss@_Num_base@std@@2_NB		; std::_Num_base::has_denorm_loss
PUBLIC	?has_infinity@_Num_base@std@@2_NB		; std::_Num_base::has_infinity
PUBLIC	?has_quiet_NaN@_Num_base@std@@2_NB		; std::_Num_base::has_quiet_NaN
PUBLIC	?has_signaling_NaN@_Num_base@std@@2_NB		; std::_Num_base::has_signaling_NaN
PUBLIC	?is_bounded@_Num_base@std@@2_NB			; std::_Num_base::is_bounded
PUBLIC	?is_exact@_Num_base@std@@2_NB			; std::_Num_base::is_exact
PUBLIC	?is_iec559@_Num_base@std@@2_NB			; std::_Num_base::is_iec559
PUBLIC	?is_integer@_Num_base@std@@2_NB			; std::_Num_base::is_integer
PUBLIC	?is_modulo@_Num_base@std@@2_NB			; std::_Num_base::is_modulo
PUBLIC	?is_signed@_Num_base@std@@2_NB			; std::_Num_base::is_signed
PUBLIC	?is_specialized@_Num_base@std@@2_NB		; std::_Num_base::is_specialized
PUBLIC	?tinyness_before@_Num_base@std@@2_NB		; std::_Num_base::tinyness_before
_BSS	SEGMENT
?graphicsDOFDataPool@@3PAXA DD 01H DUP (?)		; graphicsDOFDataPool
_BSS	ENDS
;	COMDAT ?tinyness_before@_Num_base@std@@2_NB
CONST	SEGMENT
?tinyness_before@_Num_base@std@@2_NB DB 00H		; std::_Num_base::tinyness_before
CONST	ENDS
;	COMDAT ?is_specialized@_Num_base@std@@2_NB
CONST	SEGMENT
?is_specialized@_Num_base@std@@2_NB DB 00H		; std::_Num_base::is_specialized
CONST	ENDS
;	COMDAT ?is_signed@_Num_base@std@@2_NB
CONST	SEGMENT
?is_signed@_Num_base@std@@2_NB DB 00H			; std::_Num_base::is_signed
CONST	ENDS
;	COMDAT ?is_modulo@_Num_base@std@@2_NB
CONST	SEGMENT
?is_modulo@_Num_base@std@@2_NB DB 00H			; std::_Num_base::is_modulo
CONST	ENDS
;	COMDAT ?is_integer@_Num_base@std@@2_NB
CONST	SEGMENT
?is_integer@_Num_base@std@@2_NB DB 00H			; std::_Num_base::is_integer
CONST	ENDS
;	COMDAT ?is_iec559@_Num_base@std@@2_NB
CONST	SEGMENT
?is_iec559@_Num_base@std@@2_NB DB 00H			; std::_Num_base::is_iec559
CONST	ENDS
;	COMDAT ?is_exact@_Num_base@std@@2_NB
CONST	SEGMENT
?is_exact@_Num_base@std@@2_NB DB 00H			; std::_Num_base::is_exact
CONST	ENDS
;	COMDAT ?is_bounded@_Num_base@std@@2_NB
CONST	SEGMENT
?is_bounded@_Num_base@std@@2_NB DB 00H			; std::_Num_base::is_bounded
CONST	ENDS
;	COMDAT ?has_signaling_NaN@_Num_base@std@@2_NB
CONST	SEGMENT
?has_signaling_NaN@_Num_base@std@@2_NB DB 00H		; std::_Num_base::has_signaling_NaN
CONST	ENDS
;	COMDAT ?has_quiet_NaN@_Num_base@std@@2_NB
CONST	SEGMENT
?has_quiet_NaN@_Num_base@std@@2_NB DB 00H		; std::_Num_base::has_quiet_NaN
CONST	ENDS
;	COMDAT ?has_infinity@_Num_base@std@@2_NB
CONST	SEGMENT
?has_infinity@_Num_base@std@@2_NB DB 00H		; std::_Num_base::has_infinity
CONST	ENDS
;	COMDAT ?has_denorm_loss@_Num_base@std@@2_NB
CONST	SEGMENT
?has_denorm_loss@_Num_base@std@@2_NB DB 00H		; std::_Num_base::has_denorm_loss
CONST	ENDS
;	COMDAT ?has_denorm@_Num_base@std@@2W4float_denorm_style@2@B
CONST	SEGMENT
?has_denorm@_Num_base@std@@2W4float_denorm_style@2@B DD 00H ; std::_Num_base::has_denorm
CONST	ENDS
;	COMDAT ?none@?$_Locbase@H@std@@2HB
CONST	SEGMENT
?none@?$_Locbase@H@std@@2HB DD 00H			; std::_Locbase<int>::none
CONST	ENDS
;	COMDAT ?all@?$_Locbase@H@std@@2HB
CONST	SEGMENT
?all@?$_Locbase@H@std@@2HB DD 03fH			; std::_Locbase<int>::all
CONST	ENDS
;	COMDAT ?messages@?$_Locbase@H@std@@2HB
CONST	SEGMENT
?messages@?$_Locbase@H@std@@2HB DD 020H			; std::_Locbase<int>::messages
CONST	ENDS
;	COMDAT ?time@?$_Locbase@H@std@@2HB
CONST	SEGMENT
?time@?$_Locbase@H@std@@2HB DD 010H			; std::_Locbase<int>::time
CONST	ENDS
;	COMDAT ?numeric@?$_Locbase@H@std@@2HB
CONST	SEGMENT
?numeric@?$_Locbase@H@std@@2HB DD 08H			; std::_Locbase<int>::numeric
CONST	ENDS
;	COMDAT ?monetary@?$_Locbase@H@std@@2HB
CONST	SEGMENT
?monetary@?$_Locbase@H@std@@2HB DD 04H			; std::_Locbase<int>::monetary
CONST	ENDS
;	COMDAT ?ctype@?$_Locbase@H@std@@2HB
CONST	SEGMENT
?ctype@?$_Locbase@H@std@@2HB DD 02H			; std::_Locbase<int>::ctype
CONST	ENDS
;	COMDAT ?collate@?$_Locbase@H@std@@2HB
CONST	SEGMENT
?collate@?$_Locbase@H@std@@2HB DD 01H			; std::_Locbase<int>::collate
CONST	ENDS
;	COMDAT ?value@?$_Sizeof@U_Nil@std@@U12@U12@U12@U12@U12@U12@U12@@std@@2IB
CONST	SEGMENT
?value@?$_Sizeof@U_Nil@std@@U12@U12@U12@U12@U12@U12@U12@@std@@2IB DD 00H ; std::_Sizeof<std::_Nil,std::_Nil,std::_Nil,std::_Nil,std::_Nil,std::_Nil,std::_Nil,std::_Nil>::value
CONST	ENDS
;	COMDAT ?min_exponent10@?$numeric_limits@O@std@@2HB
CONST	SEGMENT
?min_exponent10@?$numeric_limits@O@std@@2HB DD 0fffffecdH ; std::numeric_limits<long double>::min_exponent10
CONST	ENDS
;	COMDAT ?min_exponent@?$numeric_limits@O@std@@2HB
CONST	SEGMENT
?min_exponent@?$numeric_limits@O@std@@2HB DD 0fffffc03H	; std::numeric_limits<long double>::min_exponent
CONST	ENDS
;	COMDAT ?max_exponent10@?$numeric_limits@O@std@@2HB
CONST	SEGMENT
?max_exponent10@?$numeric_limits@O@std@@2HB DD 0134H	; std::numeric_limits<long double>::max_exponent10
CONST	ENDS
;	COMDAT ?max_exponent@?$numeric_limits@O@std@@2HB
CONST	SEGMENT
?max_exponent@?$numeric_limits@O@std@@2HB DD 0400H	; std::numeric_limits<long double>::max_exponent
CONST	ENDS
;	COMDAT ?max_digits10@?$numeric_limits@O@std@@2HB
CONST	SEGMENT
?max_digits10@?$numeric_limits@O@std@@2HB DD 011H	; std::numeric_limits<long double>::max_digits10
CONST	ENDS
;	COMDAT ?digits10@?$numeric_limits@O@std@@2HB
CONST	SEGMENT
?digits10@?$numeric_limits@O@std@@2HB DD 0fH		; std::numeric_limits<long double>::digits10
CONST	ENDS
;	COMDAT ?digits@?$numeric_limits@O@std@@2HB
CONST	SEGMENT
?digits@?$numeric_limits@O@std@@2HB DD 035H		; std::numeric_limits<long double>::digits
CONST	ENDS
;	COMDAT ?min_exponent10@?$numeric_limits@N@std@@2HB
CONST	SEGMENT
?min_exponent10@?$numeric_limits@N@std@@2HB DD 0fffffecdH ; std::numeric_limits<double>::min_exponent10
CONST	ENDS
;	COMDAT ?min_exponent@?$numeric_limits@N@std@@2HB
CONST	SEGMENT
?min_exponent@?$numeric_limits@N@std@@2HB DD 0fffffc03H	; std::numeric_limits<double>::min_exponent
CONST	ENDS
;	COMDAT ?max_exponent10@?$numeric_limits@N@std@@2HB
CONST	SEGMENT
?max_exponent10@?$numeric_limits@N@std@@2HB DD 0134H	; std::numeric_limits<double>::max_exponent10
CONST	ENDS
;	COMDAT ?max_exponent@?$numeric_limits@N@std@@2HB
CONST	SEGMENT
?max_exponent@?$numeric_limits@N@std@@2HB DD 0400H	; std::numeric_limits<double>::max_exponent
CONST	ENDS
;	COMDAT ?max_digits10@?$numeric_limits@N@std@@2HB
CONST	SEGMENT
?max_digits10@?$numeric_limits@N@std@@2HB DD 011H	; std::numeric_limits<double>::max_digits10
CONST	ENDS
;	COMDAT ?digits10@?$numeric_limits@N@std@@2HB
CONST	SEGMENT
?digits10@?$numeric_limits@N@std@@2HB DD 0fH		; std::numeric_limits<double>::digits10
CONST	ENDS
;	COMDAT ?digits@?$numeric_limits@N@std@@2HB
CONST	SEGMENT
?digits@?$numeric_limits@N@std@@2HB DD 035H		; std::numeric_limits<double>::digits
CONST	ENDS
;	COMDAT ?value@?$integral_constant@I$0A@@std@@2IB
CONST	SEGMENT
?value@?$integral_constant@I$0A@@std@@2IB DD 00H	; std::integral_constant<unsigned int,0>::value
CONST	ENDS
;	COMDAT ?min_exponent10@?$numeric_limits@M@std@@2HB
CONST	SEGMENT
?min_exponent10@?$numeric_limits@M@std@@2HB DD 0ffffffdbH ; std::numeric_limits<float>::min_exponent10
CONST	ENDS
;	COMDAT ?min_exponent@?$numeric_limits@M@std@@2HB
CONST	SEGMENT
?min_exponent@?$numeric_limits@M@std@@2HB DD 0ffffff83H	; std::numeric_limits<float>::min_exponent
CONST	ENDS
;	COMDAT ?max_exponent10@?$numeric_limits@M@std@@2HB
CONST	SEGMENT
?max_exponent10@?$numeric_limits@M@std@@2HB DD 026H	; std::numeric_limits<float>::max_exponent10
CONST	ENDS
;	COMDAT ?max_exponent@?$numeric_limits@M@std@@2HB
CONST	SEGMENT
?max_exponent@?$numeric_limits@M@std@@2HB DD 080H	; std::numeric_limits<float>::max_exponent
CONST	ENDS
;	COMDAT ?max_digits10@?$numeric_limits@M@std@@2HB
CONST	SEGMENT
?max_digits10@?$numeric_limits@M@std@@2HB DD 09H	; std::numeric_limits<float>::max_digits10
CONST	ENDS
;	COMDAT ?digits10@?$numeric_limits@M@std@@2HB
CONST	SEGMENT
?digits10@?$numeric_limits@M@std@@2HB DD 06H		; std::numeric_limits<float>::digits10
CONST	ENDS
;	COMDAT ?digits@?$numeric_limits@M@std@@2HB
CONST	SEGMENT
?digits@?$numeric_limits@M@std@@2HB DD 018H		; std::numeric_limits<float>::digits
CONST	ENDS
;	COMDAT ?_Stream_err@failure@ios_base@std@@0W4io_errc@43@B
CONST	SEGMENT
?_Stream_err@failure@ios_base@std@@0W4io_errc@43@B DD 01H ; std::ios_base::failure::_Stream_err
CONST	ENDS
;	COMDAT ?digits10@?$numeric_limits@_K@std@@2HB
CONST	SEGMENT
?digits10@?$numeric_limits@_K@std@@2HB DD 013H		; std::numeric_limits<unsigned __int64>::digits10
CONST	ENDS
;	COMDAT ?digits@?$numeric_limits@_K@std@@2HB
CONST	SEGMENT
?digits@?$numeric_limits@_K@std@@2HB DD 040H		; std::numeric_limits<unsigned __int64>::digits
CONST	ENDS
;	COMDAT ?is_signed@?$numeric_limits@_K@std@@2_NB
CONST	SEGMENT
?is_signed@?$numeric_limits@_K@std@@2_NB DB 00H		; std::numeric_limits<unsigned __int64>::is_signed
CONST	ENDS
;	COMDAT ?end@?$_Iosb@H@std@@2W4_Seekdir@12@B
CONST	SEGMENT
?end@?$_Iosb@H@std@@2W4_Seekdir@12@B DD 02H		; std::_Iosb<int>::end
CONST	ENDS
;	COMDAT ?cur@?$_Iosb@H@std@@2W4_Seekdir@12@B
CONST	SEGMENT
?cur@?$_Iosb@H@std@@2W4_Seekdir@12@B DD 01H		; std::_Iosb<int>::cur
CONST	ENDS
;	COMDAT ?beg@?$_Iosb@H@std@@2W4_Seekdir@12@B
CONST	SEGMENT
?beg@?$_Iosb@H@std@@2W4_Seekdir@12@B DD 00H		; std::_Iosb<int>::beg
CONST	ENDS
;	COMDAT ?binary@?$_Iosb@H@std@@2W4_Openmode@12@B
CONST	SEGMENT
?binary@?$_Iosb@H@std@@2W4_Openmode@12@B DD 020H	; std::_Iosb<int>::binary
CONST	ENDS
;	COMDAT ?_Noreplace@?$_Iosb@H@std@@2W4_Openmode@12@B
CONST	SEGMENT
?_Noreplace@?$_Iosb@H@std@@2W4_Openmode@12@B DD 080H	; std::_Iosb<int>::_Noreplace
CONST	ENDS
;	COMDAT ?_Nocreate@?$_Iosb@H@std@@2W4_Openmode@12@B
CONST	SEGMENT
?_Nocreate@?$_Iosb@H@std@@2W4_Openmode@12@B DD 040H	; std::_Iosb<int>::_Nocreate
CONST	ENDS
;	COMDAT ?digits10@?$numeric_limits@_J@std@@2HB
CONST	SEGMENT
?digits10@?$numeric_limits@_J@std@@2HB DD 012H		; std::numeric_limits<__int64>::digits10
CONST	ENDS
;	COMDAT ?trunc@?$_Iosb@H@std@@2W4_Openmode@12@B
CONST	SEGMENT
?trunc@?$_Iosb@H@std@@2W4_Openmode@12@B DD 010H		; std::_Iosb<int>::trunc
CONST	ENDS
;	COMDAT ?digits@?$numeric_limits@_J@std@@2HB
CONST	SEGMENT
?digits@?$numeric_limits@_J@std@@2HB DD 03fH		; std::numeric_limits<__int64>::digits
CONST	ENDS
;	COMDAT ?app@?$_Iosb@H@std@@2W4_Openmode@12@B
CONST	SEGMENT
?app@?$_Iosb@H@std@@2W4_Openmode@12@B DD 08H		; std::_Iosb<int>::app
CONST	ENDS
;	COMDAT ?is_signed@?$numeric_limits@_J@std@@2_NB
CONST	SEGMENT
?is_signed@?$numeric_limits@_J@std@@2_NB DB 01H		; std::numeric_limits<__int64>::is_signed
CONST	ENDS
;	COMDAT ?ate@?$_Iosb@H@std@@2W4_Openmode@12@B
CONST	SEGMENT
?ate@?$_Iosb@H@std@@2W4_Openmode@12@B DD 04H		; std::_Iosb<int>::ate
CONST	ENDS
;	COMDAT ?out@?$_Iosb@H@std@@2W4_Openmode@12@B
CONST	SEGMENT
?out@?$_Iosb@H@std@@2W4_Openmode@12@B DD 02H		; std::_Iosb<int>::out
CONST	ENDS
;	COMDAT ?in@?$_Iosb@H@std@@2W4_Openmode@12@B
CONST	SEGMENT
?in@?$_Iosb@H@std@@2W4_Openmode@12@B DD 01H		; std::_Iosb<int>::in
CONST	ENDS
;	COMDAT ?_Hardfail@?$_Iosb@H@std@@2W4_Iostate@12@B
CONST	SEGMENT
?_Hardfail@?$_Iosb@H@std@@2W4_Iostate@12@B DD 010H	; std::_Iosb<int>::_Hardfail
CONST	ENDS
;	COMDAT ?badbit@?$_Iosb@H@std@@2W4_Iostate@12@B
CONST	SEGMENT
?badbit@?$_Iosb@H@std@@2W4_Iostate@12@B DD 04H		; std::_Iosb<int>::badbit
CONST	ENDS
;	COMDAT ?failbit@?$_Iosb@H@std@@2W4_Iostate@12@B
CONST	SEGMENT
?failbit@?$_Iosb@H@std@@2W4_Iostate@12@B DD 02H		; std::_Iosb<int>::failbit
CONST	ENDS
;	COMDAT ?eofbit@?$_Iosb@H@std@@2W4_Iostate@12@B
CONST	SEGMENT
?eofbit@?$_Iosb@H@std@@2W4_Iostate@12@B DD 01H		; std::_Iosb<int>::eofbit
CONST	ENDS
;	COMDAT ?goodbit@?$_Iosb@H@std@@2W4_Iostate@12@B
CONST	SEGMENT
?goodbit@?$_Iosb@H@std@@2W4_Iostate@12@B DD 00H		; std::_Iosb<int>::goodbit
CONST	ENDS
;	COMDAT ?floatfield@?$_Iosb@H@std@@2W4_Fmtflags@12@B
CONST	SEGMENT
?floatfield@?$_Iosb@H@std@@2W4_Fmtflags@12@B DD 03000H	; std::_Iosb<int>::floatfield
CONST	ENDS
;	COMDAT ?digits10@?$numeric_limits@K@std@@2HB
CONST	SEGMENT
?digits10@?$numeric_limits@K@std@@2HB DD 09H		; std::numeric_limits<unsigned long>::digits10
CONST	ENDS
;	COMDAT ?basefield@?$_Iosb@H@std@@2W4_Fmtflags@12@B
CONST	SEGMENT
?basefield@?$_Iosb@H@std@@2W4_Fmtflags@12@B DD 0e00H	; std::_Iosb<int>::basefield
CONST	ENDS
;	COMDAT ?digits@?$numeric_limits@K@std@@2HB
CONST	SEGMENT
?digits@?$numeric_limits@K@std@@2HB DD 020H		; std::numeric_limits<unsigned long>::digits
CONST	ENDS
;	COMDAT ?adjustfield@?$_Iosb@H@std@@2W4_Fmtflags@12@B
CONST	SEGMENT
?adjustfield@?$_Iosb@H@std@@2W4_Fmtflags@12@B DD 01c0H	; std::_Iosb<int>::adjustfield
CONST	ENDS
;	COMDAT ?_Stdio@?$_Iosb@H@std@@2W4_Fmtflags@12@B
CONST	SEGMENT
?_Stdio@?$_Iosb@H@std@@2W4_Fmtflags@12@B DD 08000H	; std::_Iosb<int>::_Stdio
CONST	ENDS
;	COMDAT ?is_signed@?$numeric_limits@K@std@@2_NB
CONST	SEGMENT
?is_signed@?$numeric_limits@K@std@@2_NB DB 00H		; std::numeric_limits<unsigned long>::is_signed
CONST	ENDS
;	COMDAT ?boolalpha@?$_Iosb@H@std@@2W4_Fmtflags@12@B
CONST	SEGMENT
?boolalpha@?$_Iosb@H@std@@2W4_Fmtflags@12@B DD 04000H	; std::_Iosb<int>::boolalpha
CONST	ENDS
;	COMDAT ?hexfloat@?$_Iosb@H@std@@2W4_Fmtflags@12@B
CONST	SEGMENT
?hexfloat@?$_Iosb@H@std@@2W4_Fmtflags@12@B DD 03000H	; std::_Iosb<int>::hexfloat
CONST	ENDS
;	COMDAT ?fixed@?$_Iosb@H@std@@2W4_Fmtflags@12@B
CONST	SEGMENT
?fixed@?$_Iosb@H@std@@2W4_Fmtflags@12@B DD 02000H	; std::_Iosb<int>::fixed
CONST	ENDS
;	COMDAT ?scientific@?$_Iosb@H@std@@2W4_Fmtflags@12@B
CONST	SEGMENT
?scientific@?$_Iosb@H@std@@2W4_Fmtflags@12@B DD 01000H	; std::_Iosb<int>::scientific
CONST	ENDS
;	COMDAT ?hex@?$_Iosb@H@std@@2W4_Fmtflags@12@B
CONST	SEGMENT
?hex@?$_Iosb@H@std@@2W4_Fmtflags@12@B DD 0800H		; std::_Iosb<int>::hex
CONST	ENDS
;	COMDAT ?oct@?$_Iosb@H@std@@2W4_Fmtflags@12@B
CONST	SEGMENT
?oct@?$_Iosb@H@std@@2W4_Fmtflags@12@B DD 0400H		; std::_Iosb<int>::oct
CONST	ENDS
;	COMDAT ?dec@?$_Iosb@H@std@@2W4_Fmtflags@12@B
CONST	SEGMENT
?dec@?$_Iosb@H@std@@2W4_Fmtflags@12@B DD 0200H		; std::_Iosb<int>::dec
CONST	ENDS
;	COMDAT ?internal@?$_Iosb@H@std@@2W4_Fmtflags@12@B
CONST	SEGMENT
?internal@?$_Iosb@H@std@@2W4_Fmtflags@12@B DD 0100H	; std::_Iosb<int>::internal
CONST	ENDS
;	COMDAT ?right@?$_Iosb@H@std@@2W4_Fmtflags@12@B
CONST	SEGMENT
?right@?$_Iosb@H@std@@2W4_Fmtflags@12@B DD 080H		; std::_Iosb<int>::right
CONST	ENDS
;	COMDAT ?left@?$_Iosb@H@std@@2W4_Fmtflags@12@B
CONST	SEGMENT
?left@?$_Iosb@H@std@@2W4_Fmtflags@12@B DD 040H		; std::_Iosb<int>::left
CONST	ENDS
;	COMDAT ?digits10@?$numeric_limits@J@std@@2HB
CONST	SEGMENT
?digits10@?$numeric_limits@J@std@@2HB DD 09H		; std::numeric_limits<long>::digits10
CONST	ENDS
;	COMDAT ?showpos@?$_Iosb@H@std@@2W4_Fmtflags@12@B
CONST	SEGMENT
?showpos@?$_Iosb@H@std@@2W4_Fmtflags@12@B DD 020H	; std::_Iosb<int>::showpos
CONST	ENDS
;	COMDAT ?digits@?$numeric_limits@J@std@@2HB
CONST	SEGMENT
?digits@?$numeric_limits@J@std@@2HB DD 01fH		; std::numeric_limits<long>::digits
CONST	ENDS
;	COMDAT ?showpoint@?$_Iosb@H@std@@2W4_Fmtflags@12@B
CONST	SEGMENT
?showpoint@?$_Iosb@H@std@@2W4_Fmtflags@12@B DD 010H	; std::_Iosb<int>::showpoint
CONST	ENDS
;	COMDAT ?is_signed@?$numeric_limits@J@std@@2_NB
CONST	SEGMENT
?is_signed@?$numeric_limits@J@std@@2_NB DB 01H		; std::numeric_limits<long>::is_signed
CONST	ENDS
;	COMDAT ?showbase@?$_Iosb@H@std@@2W4_Fmtflags@12@B
CONST	SEGMENT
?showbase@?$_Iosb@H@std@@2W4_Fmtflags@12@B DD 08H	; std::_Iosb<int>::showbase
CONST	ENDS
;	COMDAT ?uppercase@?$_Iosb@H@std@@2W4_Fmtflags@12@B
CONST	SEGMENT
?uppercase@?$_Iosb@H@std@@2W4_Fmtflags@12@B DD 04H	; std::_Iosb<int>::uppercase
CONST	ENDS
;	COMDAT ?unitbuf@?$_Iosb@H@std@@2W4_Fmtflags@12@B
CONST	SEGMENT
?unitbuf@?$_Iosb@H@std@@2W4_Fmtflags@12@B DD 02H	; std::_Iosb<int>::unitbuf
CONST	ENDS
;	COMDAT ?skipws@?$_Iosb@H@std@@2W4_Fmtflags@12@B
CONST	SEGMENT
?skipws@?$_Iosb@H@std@@2W4_Fmtflags@12@B DD 01H		; std::_Iosb<int>::skipws
CONST	ENDS
;	COMDAT ?digits10@?$numeric_limits@I@std@@2HB
CONST	SEGMENT
?digits10@?$numeric_limits@I@std@@2HB DD 09H		; std::numeric_limits<unsigned int>::digits10
CONST	ENDS
;	COMDAT ?digits@?$numeric_limits@I@std@@2HB
CONST	SEGMENT
?digits@?$numeric_limits@I@std@@2HB DD 020H		; std::numeric_limits<unsigned int>::digits
CONST	ENDS
;	COMDAT ?is_signed@?$numeric_limits@I@std@@2_NB
CONST	SEGMENT
?is_signed@?$numeric_limits@I@std@@2_NB DB 00H		; std::numeric_limits<unsigned int>::is_signed
CONST	ENDS
;	COMDAT ?digits10@?$numeric_limits@H@std@@2HB
CONST	SEGMENT
?digits10@?$numeric_limits@H@std@@2HB DD 09H		; std::numeric_limits<int>::digits10
CONST	ENDS
;	COMDAT ?digits@?$numeric_limits@H@std@@2HB
CONST	SEGMENT
?digits@?$numeric_limits@H@std@@2HB DD 01fH		; std::numeric_limits<int>::digits
CONST	ENDS
;	COMDAT ?value@?$_Sizeof@HU_Nil@std@@U12@U12@U12@U12@U12@U12@@std@@2IB
CONST	SEGMENT
?value@?$_Sizeof@HU_Nil@std@@U12@U12@U12@U12@U12@U12@@std@@2IB DD 01H ; std::_Sizeof<int,std::_Nil,std::_Nil,std::_Nil,std::_Nil,std::_Nil,std::_Nil,std::_Nil>::value
CONST	ENDS
;	COMDAT ?is_signed@?$numeric_limits@H@std@@2_NB
CONST	SEGMENT
?is_signed@?$numeric_limits@H@std@@2_NB DB 01H		; std::numeric_limits<int>::is_signed
CONST	ENDS
;	COMDAT ?digits10@?$numeric_limits@G@std@@2HB
CONST	SEGMENT
?digits10@?$numeric_limits@G@std@@2HB DD 04H		; std::numeric_limits<unsigned short>::digits10
CONST	ENDS
;	COMDAT ?digits@?$numeric_limits@G@std@@2HB
CONST	SEGMENT
?digits@?$numeric_limits@G@std@@2HB DD 010H		; std::numeric_limits<unsigned short>::digits
CONST	ENDS
;	COMDAT ?is_signed@?$numeric_limits@G@std@@2_NB
CONST	SEGMENT
?is_signed@?$numeric_limits@G@std@@2_NB DB 00H		; std::numeric_limits<unsigned short>::is_signed
CONST	ENDS
;	COMDAT ?digits10@?$numeric_limits@F@std@@2HB
CONST	SEGMENT
?digits10@?$numeric_limits@F@std@@2HB DD 04H		; std::numeric_limits<short>::digits10
CONST	ENDS
;	COMDAT ?digits@?$numeric_limits@F@std@@2HB
CONST	SEGMENT
?digits@?$numeric_limits@F@std@@2HB DD 0fH		; std::numeric_limits<short>::digits
CONST	ENDS
;	COMDAT ?is_signed@?$numeric_limits@F@std@@2_NB
CONST	SEGMENT
?is_signed@?$numeric_limits@F@std@@2_NB DB 01H		; std::numeric_limits<short>::is_signed
CONST	ENDS
;	COMDAT ?value@?$integral_constant@_N$00@std@@2_NB
CONST	SEGMENT
?value@?$integral_constant@_N$00@std@@2_NB DB 01H	; std::integral_constant<bool,1>::value
CONST	ENDS
;	COMDAT ?digits10@?$numeric_limits@E@std@@2HB
CONST	SEGMENT
?digits10@?$numeric_limits@E@std@@2HB DD 02H		; std::numeric_limits<unsigned char>::digits10
CONST	ENDS
;	COMDAT ?digits@?$numeric_limits@E@std@@2HB
CONST	SEGMENT
?digits@?$numeric_limits@E@std@@2HB DD 08H		; std::numeric_limits<unsigned char>::digits
CONST	ENDS
;	COMDAT ?value@?$integral_constant@_N$0A@@std@@2_NB
CONST	SEGMENT
?value@?$integral_constant@_N$0A@@std@@2_NB DB 00H	; std::integral_constant<bool,0>::value
CONST	ENDS
;	COMDAT ?is_signed@?$numeric_limits@E@std@@2_NB
CONST	SEGMENT
?is_signed@?$numeric_limits@E@std@@2_NB DB 00H		; std::numeric_limits<unsigned char>::is_signed
CONST	ENDS
;	COMDAT ?digits10@?$numeric_limits@C@std@@2HB
CONST	SEGMENT
?digits10@?$numeric_limits@C@std@@2HB DD 02H		; std::numeric_limits<signed char>::digits10
CONST	ENDS
;	COMDAT ?digits@?$numeric_limits@C@std@@2HB
CONST	SEGMENT
?digits@?$numeric_limits@C@std@@2HB DD 07H		; std::numeric_limits<signed char>::digits
CONST	ENDS
;	COMDAT ?is_signed@?$numeric_limits@C@std@@2_NB
CONST	SEGMENT
?is_signed@?$numeric_limits@C@std@@2_NB DB 01H		; std::numeric_limits<signed char>::is_signed
CONST	ENDS
CONST	SEGMENT
_L_2	DD	03f317218r			; 0.693147
_NEAR_CLIP DD	03f800000r			; 1
CONST	ENDS
;	COMDAT ?digits10@?$numeric_limits@_N@std@@2HB
CONST	SEGMENT
?digits10@?$numeric_limits@_N@std@@2HB DD 00H		; std::numeric_limits<bool>::digits10
CONST	ENDS
;	COMDAT ?digits@?$numeric_limits@_N@std@@2HB
CONST	SEGMENT
?digits@?$numeric_limits@_N@std@@2HB DD 01H		; std::numeric_limits<bool>::digits
CONST	ENDS
;	COMDAT ?is_signed@?$numeric_limits@_N@std@@2_NB
CONST	SEGMENT
?is_signed@?$numeric_limits@_N@std@@2_NB DB 00H		; std::numeric_limits<bool>::is_signed
CONST	ENDS
;	COMDAT ?is_modulo@?$numeric_limits@_N@std@@2_NB
CONST	SEGMENT
?is_modulo@?$numeric_limits@_N@std@@2_NB DB 00H		; std::numeric_limits<bool>::is_modulo
CONST	ENDS
;	COMDAT ?digits10@?$numeric_limits@_W@std@@2HB
CONST	SEGMENT
?digits10@?$numeric_limits@_W@std@@2HB DD 04H		; std::numeric_limits<wchar_t>::digits10
CONST	ENDS
;	COMDAT ?digits@?$numeric_limits@_W@std@@2HB
CONST	SEGMENT
?digits@?$numeric_limits@_W@std@@2HB DD 010H		; std::numeric_limits<wchar_t>::digits
CONST	ENDS
;	COMDAT ?is_signed@?$numeric_limits@_W@std@@2_NB
CONST	SEGMENT
?is_signed@?$numeric_limits@_W@std@@2_NB DB 00H		; std::numeric_limits<wchar_t>::is_signed
CONST	ENDS
;	COMDAT ?digits10@?$numeric_limits@D@std@@2HB
CONST	SEGMENT
?digits10@?$numeric_limits@D@std@@2HB DD 02H		; std::numeric_limits<char>::digits10
CONST	ENDS
;	COMDAT ?digits@?$numeric_limits@D@std@@2HB
CONST	SEGMENT
?digits@?$numeric_limits@D@std@@2HB DD 07H		; std::numeric_limits<char>::digits
CONST	ENDS
;	COMDAT ?is_signed@?$numeric_limits@D@std@@2_NB
CONST	SEGMENT
?is_signed@?$numeric_limits@D@std@@2_NB DB 01H		; std::numeric_limits<char>::is_signed
CONST	ENDS
;	COMDAT ?radix@_Num_float_base@std@@2HB
CONST	SEGMENT
?radix@_Num_float_base@std@@2HB DD 02H			; std::_Num_float_base::radix
CONST	ENDS
;	COMDAT ?round_style@_Num_float_base@std@@2W4float_round_style@2@B
CONST	SEGMENT
?round_style@_Num_float_base@std@@2W4float_round_style@2@B DD 01H ; std::_Num_float_base::round_style
CONST	ENDS
;	COMDAT ?traps@_Num_float_base@std@@2_NB
CONST	SEGMENT
?traps@_Num_float_base@std@@2_NB DB 00H			; std::_Num_float_base::traps
CONST	ENDS
;	COMDAT ?tinyness_before@_Num_float_base@std@@2_NB
CONST	SEGMENT
?tinyness_before@_Num_float_base@std@@2_NB DB 01H	; std::_Num_float_base::tinyness_before
CONST	ENDS
;	COMDAT ?is_specialized@_Num_float_base@std@@2_NB
CONST	SEGMENT
?is_specialized@_Num_float_base@std@@2_NB DB 01H	; std::_Num_float_base::is_specialized
CONST	ENDS
;	COMDAT ?is_signed@_Num_float_base@std@@2_NB
CONST	SEGMENT
?is_signed@_Num_float_base@std@@2_NB DB 01H		; std::_Num_float_base::is_signed
CONST	ENDS
;	COMDAT ?is_modulo@_Num_float_base@std@@2_NB
CONST	SEGMENT
?is_modulo@_Num_float_base@std@@2_NB DB 00H		; std::_Num_float_base::is_modulo
CONST	ENDS
;	COMDAT ?is_integer@_Num_float_base@std@@2_NB
CONST	SEGMENT
?is_integer@_Num_float_base@std@@2_NB DB 00H		; std::_Num_float_base::is_integer
CONST	ENDS
;	COMDAT ?is_iec559@_Num_float_base@std@@2_NB
CONST	SEGMENT
?is_iec559@_Num_float_base@std@@2_NB DB 01H		; std::_Num_float_base::is_iec559
CONST	ENDS
;	COMDAT ?is_exact@_Num_float_base@std@@2_NB
CONST	SEGMENT
?is_exact@_Num_float_base@std@@2_NB DB 00H		; std::_Num_float_base::is_exact
CONST	ENDS
;	COMDAT ?is_bounded@_Num_float_base@std@@2_NB
CONST	SEGMENT
?is_bounded@_Num_float_base@std@@2_NB DB 01H		; std::_Num_float_base::is_bounded
CONST	ENDS
;	COMDAT ?has_signaling_NaN@_Num_float_base@std@@2_NB
CONST	SEGMENT
?has_signaling_NaN@_Num_float_base@std@@2_NB DB 01H	; std::_Num_float_base::has_signaling_NaN
CONST	ENDS
;	COMDAT ?has_quiet_NaN@_Num_float_base@std@@2_NB
CONST	SEGMENT
?has_quiet_NaN@_Num_float_base@std@@2_NB DB 01H		; std::_Num_float_base::has_quiet_NaN
CONST	ENDS
;	COMDAT ?has_infinity@_Num_float_base@std@@2_NB
CONST	SEGMENT
?has_infinity@_Num_float_base@std@@2_NB DB 01H		; std::_Num_float_base::has_infinity
CONST	ENDS
;	COMDAT ?CMPDIRTYDATA_INTERVAL@FalconEntity@@2KB
CONST	SEGMENT
?CMPDIRTYDATA_INTERVAL@FalconEntity@@2KB DD 0c8H	; FalconEntity::CMPDIRTYDATA_INTERVAL
CONST	ENDS
;	COMDAT ?SIMDIRTYDATA_INTERVAL@FalconEntity@@2KB
CONST	SEGMENT
?SIMDIRTYDATA_INTERVAL@FalconEntity@@2KB DD 0c8H	; FalconEntity::SIMDIRTYDATA_INTERVAL
CONST	ENDS
;	COMDAT ?has_denorm_loss@_Num_float_base@std@@2_NB
CONST	SEGMENT
?has_denorm_loss@_Num_float_base@std@@2_NB DB 01H	; std::_Num_float_base::has_denorm_loss
CONST	ENDS
;	COMDAT ?has_denorm@_Num_float_base@std@@2W4float_denorm_style@2@B
CONST	SEGMENT
?has_denorm@_Num_float_base@std@@2W4float_denorm_style@2@B DD 01H ; std::_Num_float_base::has_denorm
CONST	ENDS
;	COMDAT ?radix@_Num_int_base@std@@2HB
CONST	SEGMENT
?radix@_Num_int_base@std@@2HB DD 02H			; std::_Num_int_base::radix
CONST	ENDS
;	COMDAT ?is_specialized@_Num_int_base@std@@2_NB
CONST	SEGMENT
?is_specialized@_Num_int_base@std@@2_NB DB 01H		; std::_Num_int_base::is_specialized
CONST	ENDS
;	COMDAT ?is_modulo@_Num_int_base@std@@2_NB
CONST	SEGMENT
?is_modulo@_Num_int_base@std@@2_NB DB 01H		; std::_Num_int_base::is_modulo
CONST	ENDS
;	COMDAT ?is_integer@_Num_int_base@std@@2_NB
CONST	SEGMENT
?is_integer@_Num_int_base@std@@2_NB DB 01H		; std::_Num_int_base::is_integer
CONST	ENDS
;	COMDAT ?is_exact@_Num_int_base@std@@2_NB
CONST	SEGMENT
?is_exact@_Num_int_base@std@@2_NB DB 01H		; std::_Num_int_base::is_exact
CONST	ENDS
;	COMDAT ?is_bounded@_Num_int_base@std@@2_NB
CONST	SEGMENT
?is_bounded@_Num_int_base@std@@2_NB DB 01H		; std::_Num_int_base::is_bounded
CONST	ENDS
;	COMDAT ?radix@_Num_base@std@@2HB
CONST	SEGMENT
?radix@_Num_base@std@@2HB DD 00H			; std::_Num_base::radix
CONST	ENDS
;	COMDAT ?min_exponent10@_Num_base@std@@2HB
CONST	SEGMENT
?min_exponent10@_Num_base@std@@2HB DD 00H		; std::_Num_base::min_exponent10
CONST	ENDS
;	COMDAT ?min_exponent@_Num_base@std@@2HB
CONST	SEGMENT
?min_exponent@_Num_base@std@@2HB DD 00H			; std::_Num_base::min_exponent
CONST	ENDS
;	COMDAT ?max_exponent10@_Num_base@std@@2HB
CONST	SEGMENT
?max_exponent10@_Num_base@std@@2HB DD 00H		; std::_Num_base::max_exponent10
CONST	ENDS
;	COMDAT ?max_exponent@_Num_base@std@@2HB
CONST	SEGMENT
?max_exponent@_Num_base@std@@2HB DD 00H			; std::_Num_base::max_exponent
CONST	ENDS
;	COMDAT ?max_digits10@_Num_base@std@@2HB
CONST	SEGMENT
?max_digits10@_Num_base@std@@2HB DD 00H			; std::_Num_base::max_digits10
CONST	ENDS
;	COMDAT ?table_size@?$ctype@D@std@@2IB
CONST	SEGMENT
?table_size@?$ctype@D@std@@2IB DD 0100H			; std::ctype<char>::table_size
CONST	ENDS
;	COMDAT ?digits10@_Num_base@std@@2HB
CONST	SEGMENT
?digits10@_Num_base@std@@2HB DD 00H			; std::_Num_base::digits10
CONST	ENDS
;	COMDAT ?digits@_Num_base@std@@2HB
CONST	SEGMENT
?digits@_Num_base@std@@2HB DD 00H			; std::_Num_base::digits
CONST	ENDS
;	COMDAT ?round_style@_Num_base@std@@2W4float_round_style@2@B
CONST	SEGMENT
?round_style@_Num_base@std@@2W4float_round_style@2@B DD 00H ; std::_Num_base::round_style
CONST	ENDS
;	COMDAT ?traps@_Num_base@std@@2_NB
CONST	SEGMENT
?traps@_Num_base@std@@2_NB DB 00H			; std::_Num_base::traps
CONST	ENDS
PUBLIC	_fabsf
PUBLIC	?fabs@@YAMM@Z					; fabs
PUBLIC	??0VU_SESSION_ID@@QAE@K@Z			; VU_SESSION_ID::VU_SESSION_ID
PUBLIC	??8VU_SESSION_ID@@QBEHABV0@@Z			; VU_SESSION_ID::operator==
PUBLIC	??0VU_ID@@QAE@XZ				; VU_ID::VU_ID
PUBLIC	??8VU_ID@@QBE_NABV0@@Z				; VU_ID::operator==
PUBLIC	?OwnerId@VuEntity@@QBE?AVVU_ID@@XZ		; VuEntity::OwnerId
PUBLIC	?Type@VuEntity@@QBEGXZ				; VuEntity::Type
PUBLIC	?XPos@VuEntity@@QBEMXZ				; VuEntity::XPos
PUBLIC	?YPos@VuEntity@@QBEMXZ				; VuEntity::YPos
PUBLIC	?ZPos@VuEntity@@QBEMXZ				; VuEntity::ZPos
PUBLIC	?XDelta@VuEntity@@QBEMXZ			; VuEntity::XDelta
PUBLIC	?YDelta@VuEntity@@QBEMXZ			; VuEntity::YDelta
PUBLIC	?ZDelta@VuEntity@@QBEMXZ			; VuEntity::ZDelta
PUBLIC	?EntityType@VuEntity@@QBEPAUVuEntityType@@XZ	; VuEntity::EntityType
PUBLIC	?EntityDriver@VuEntity@@QAEPAVVuDriver@@XZ	; VuEntity::EntityDriver
PUBLIC	??2@YAPAXIPAX@Z					; operator new
PUBLIC	??3@YAXPAX0@Z					; operator delete
PUBLIC	?length@?$char_traits@D@std@@SAIPBD@Z		; std::char_traits<char>::length
PUBLIC	?copy@?$char_traits@D@std@@SAPADPADPBDI@Z	; std::char_traits<char>::copy
PUBLIC	?move@?$char_traits@D@std@@SAPADPADPBDI@Z	; std::char_traits<char>::move
PUBLIC	?assign@?$char_traits@D@std@@SAXAADABD@Z	; std::char_traits<char>::assign
PUBLIC	??0logic_error@std@@QAE@PBD@Z			; std::logic_error::logic_error
PUBLIC	??1logic_error@std@@UAE@XZ			; std::logic_error::~logic_error
PUBLIC	??0logic_error@std@@QAE@ABV01@@Z		; std::logic_error::logic_error
PUBLIC	??_Glogic_error@std@@UAEPAXI@Z			; std::logic_error::`scalar deleting destructor'
PUBLIC	??0?$allocator@D@std@@QAE@XZ			; std::allocator<char>::allocator<char>
PUBLIC	?deallocate@?$allocator@D@std@@QAEXPADI@Z	; std::allocator<char>::deallocate
PUBLIC	?allocate@?$allocator@D@std@@QAEPADI@Z		; std::allocator<char>::allocate
PUBLIC	?max_size@?$allocator@D@std@@QBEIXZ		; std::allocator<char>::max_size
PUBLIC	?max_size@?$allocator_traits@V?$allocator@D@std@@@std@@SAIABV?$allocator@D@2@@Z ; std::allocator_traits<std::allocator<char> >::max_size
PUBLIC	??0?$_Wrap_alloc@V?$allocator@D@std@@@std@@QAE@XZ ; std::_Wrap_alloc<std::allocator<char> >::_Wrap_alloc<std::allocator<char> >
PUBLIC	?allocate@?$_Wrap_alloc@V?$allocator@D@std@@@std@@QAEPADI@Z ; std::_Wrap_alloc<std::allocator<char> >::allocate
PUBLIC	?deallocate@?$_Wrap_alloc@V?$allocator@D@std@@@std@@QAEXPADI@Z ; std::_Wrap_alloc<std::allocator<char> >::deallocate
PUBLIC	?max_size@?$_Wrap_alloc@V?$allocator@D@std@@@std@@QBEIXZ ; std::_Wrap_alloc<std::allocator<char> >::max_size
PUBLIC	??0?$_String_val@U?$_Simple_types@D@std@@@std@@QAE@XZ ; std::_String_val<std::_Simple_types<char> >::_String_val<std::_Simple_types<char> >
PUBLIC	?_Myptr@?$_String_val@U?$_Simple_types@D@std@@@std@@QAEPADXZ ; std::_String_val<std::_Simple_types<char> >::_Myptr
PUBLIC	?_Myptr@?$_String_val@U?$_Simple_types@D@std@@@std@@QBEPBDXZ ; std::_String_val<std::_Simple_types<char> >::_Myptr
PUBLIC	??0?$_String_alloc@$0A@U?$_String_base_types@DV?$allocator@D@std@@@std@@@std@@QAE@ABV?$allocator@D@1@@Z ; std::_String_alloc<0,std::_String_base_types<char,std::allocator<char> > >::_String_alloc<0,std::_String_base_types<char,std::allocator<char> > >
PUBLIC	?_Getal@?$_String_alloc@$0A@U?$_String_base_types@DV?$allocator@D@std@@@std@@@std@@QBE?AU?$_Wrap_alloc@V?$allocator@D@std@@@2@XZ ; std::_String_alloc<0,std::_String_base_types<char,std::allocator<char> > >::_Getal
PUBLIC	??0?$basic_string@DU?$char_traits@D@std@@V?$allocator@D@2@@std@@QAE@PBD@Z ; std::basic_string<char,std::char_traits<char>,std::allocator<char> >::basic_string<char,std::char_traits<char>,std::allocator<char> >
PUBLIC	??1?$basic_string@DU?$char_traits@D@std@@V?$allocator@D@2@@std@@QAE@XZ ; std::basic_string<char,std::char_traits<char>,std::allocator<char> >::~basic_string<char,std::char_traits<char>,std::allocator<char> >
PUBLIC	?assign@?$basic_string@DU?$char_traits@D@std@@V?$allocator@D@2@@std@@QAEAAV12@ABV12@II@Z ; std::basic_string<char,std::char_traits<char>,std::allocator<char> >::assign
PUBLIC	?assign@?$basic_string@DU?$char_traits@D@std@@V?$allocator@D@2@@std@@QAEAAV12@PBDI@Z ; std::basic_string<char,std::char_traits<char>,std::allocator<char> >::assign
PUBLIC	?assign@?$basic_string@DU?$char_traits@D@std@@V?$allocator@D@2@@std@@QAEAAV12@PBD@Z ; std::basic_string<char,std::char_traits<char>,std::allocator<char> >::assign
PUBLIC	?erase@?$basic_string@DU?$char_traits@D@std@@V?$allocator@D@2@@std@@QAEAAV12@I@Z ; std::basic_string<char,std::char_traits<char>,std::allocator<char> >::erase
PUBLIC	?erase@?$basic_string@DU?$char_traits@D@std@@V?$allocator@D@2@@std@@QAEAAV12@II@Z ; std::basic_string<char,std::char_traits<char>,std::allocator<char> >::erase
PUBLIC	?c_str@?$basic_string@DU?$char_traits@D@std@@V?$allocator@D@2@@std@@QBEPBDXZ ; std::basic_string<char,std::char_traits<char>,std::allocator<char> >::c_str
PUBLIC	?size@?$basic_string@DU?$char_traits@D@std@@V?$allocator@D@2@@std@@QBEIXZ ; std::basic_string<char,std::char_traits<char>,std::allocator<char> >::size
PUBLIC	?max_size@?$basic_string@DU?$char_traits@D@std@@V?$allocator@D@2@@std@@QBEIXZ ; std::basic_string<char,std::char_traits<char>,std::allocator<char> >::max_size
PUBLIC	?_Copy@?$basic_string@DU?$char_traits@D@std@@V?$allocator@D@2@@std@@QAEXII@Z ; std::basic_string<char,std::char_traits<char>,std::allocator<char> >::_Copy
PUBLIC	?_Eos@?$basic_string@DU?$char_traits@D@std@@V?$allocator@D@2@@std@@QAEXI@Z ; std::basic_string<char,std::char_traits<char>,std::allocator<char> >::_Eos
PUBLIC	?_Grow@?$basic_string@DU?$char_traits@D@std@@V?$allocator@D@2@@std@@QAE_NI_N@Z ; std::basic_string<char,std::char_traits<char>,std::allocator<char> >::_Grow
PUBLIC	?_Inside@?$basic_string@DU?$char_traits@D@std@@V?$allocator@D@2@@std@@QAE_NPBD@Z ; std::basic_string<char,std::char_traits<char>,std::allocator<char> >::_Inside
PUBLIC	?_Tidy@?$basic_string@DU?$char_traits@D@std@@V?$allocator@D@2@@std@@QAEX_NI@Z ; std::basic_string<char,std::char_traits<char>,std::allocator<char> >::_Tidy
PUBLIC	?_Xlen@?$basic_string@DU?$char_traits@D@std@@V?$allocator@D@2@@std@@QBEXXZ ; std::basic_string<char,std::char_traits<char>,std::allocator<char> >::_Xlen
PUBLIC	?_Xran@?$basic_string@DU?$char_traits@D@std@@V?$allocator@D@2@@std@@QBEXXZ ; std::basic_string<char,std::char_traits<char>,std::allocator<char> >::_Xran
PUBLIC	??0out_of_range@std@@QAE@ABV?$basic_string@DU?$char_traits@D@std@@V?$allocator@D@2@@1@@Z ; std::out_of_range::out_of_range
PUBLIC	??1out_of_range@std@@UAE@XZ			; std::out_of_range::~out_of_range
PUBLIC	??0out_of_range@std@@QAE@ABV01@@Z		; std::out_of_range::out_of_range
PUBLIC	??_Gout_of_range@std@@UAEPAXI@Z			; std::out_of_range::`scalar deleting destructor'
PUBLIC	??B?$VuBin@VVuSessionEntity@@@@QBE_NXZ		; VuBin<VuSessionEntity>::operator bool
PUBLIC	?get@?$VuBin@VVuSessionEntity@@@@QBEPAVVuSessionEntity@@XZ ; VuBin<VuSessionEntity>::get
PUBLIC	?get@?$VuBin@VVuEntity@@@@QBEPAVVuEntity@@XZ	; VuBin<VuEntity>::get
PUBLIC	??1VuDelaySlave@@UAE@XZ				; VuDelaySlave::~VuDelaySlave
PUBLIC	?Handle@VuDelaySlave@@UAEHPAVVuEvent@@@Z	; VuDelaySlave::Handle
PUBLIC	?Handle@VuDelaySlave@@UAEHPAVVuFullUpdateEvent@@@Z ; VuDelaySlave::Handle
PUBLIC	??_GVuDelaySlave@@UAEPAXI@Z			; VuDelaySlave::`scalar deleting destructor'
PUBLIC	?NoExec@VuMaster@@UAEXK@Z			; VuMaster::NoExec
PUBLIC	?Handle@VuMaster@@UAEHPAVVuEvent@@@Z		; VuMaster::Handle
PUBLIC	?Handle@VuMaster@@UAEHPAVVuFullUpdateEvent@@@Z	; VuMaster::Handle
PUBLIC	?Handle@VuMaster@@UAEHPAVVuPositionUpdateEvent@@@Z ; VuMaster::Handle
PUBLIC	?IsCampBase@FalconEntity@@UAE_NXZ		; FalconEntity::IsCampBase
PUBLIC	?GetRadarMode@FalconEntity@@UAEHXZ		; FalconEntity::GetRadarMode
PUBLIC	?SetRadarMode@FalconEntity@@UAEXE@Z		; FalconEntity::SetRadarMode
PUBLIC	?ReturnToSearch@FalconEntity@@UAEXXZ		; FalconEntity::ReturnToSearch
PUBLIC	?SetSearchMode@FalconEntity@@UAEXE@Z		; FalconEntity::SetSearchMode
PUBLIC	?CombatClass@FalconEntity@@UAEHXZ		; FalconEntity::CombatClass
PUBLIC	?HasEntity@FalconEntity@@UBEHPAVVuEntity@@@Z	; FalconEntity::HasEntity
PUBLIC	?IsMissile@FalconEntity@@UAEHXZ			; FalconEntity::IsMissile
PUBLIC	?IsLauncher@FalconEntity@@UAEHXZ		; FalconEntity::IsLauncher
PUBLIC	?IsBomb@FalconEntity@@UAEHXZ			; FalconEntity::IsBomb
PUBLIC	?IsGun@FalconEntity@@UAEHXZ			; FalconEntity::IsGun
PUBLIC	?IsVehicle@FalconEntity@@UAEHXZ			; FalconEntity::IsVehicle
PUBLIC	?IsStatic@FalconEntity@@UAEHXZ			; FalconEntity::IsStatic
PUBLIC	?IsHelicopter@FalconEntity@@UAEHXZ		; FalconEntity::IsHelicopter
PUBLIC	?IsEject@FalconEntity@@UAEHXZ			; FalconEntity::IsEject
PUBLIC	?IsAirplane@FalconEntity@@UAEHXZ		; FalconEntity::IsAirplane
PUBLIC	?IsGroundVehicle@FalconEntity@@UAEHXZ		; FalconEntity::IsGroundVehicle
PUBLIC	?IsShip@FalconEntity@@UAEHXZ			; FalconEntity::IsShip
PUBLIC	?IsWeapon@FalconEntity@@UAEHXZ			; FalconEntity::IsWeapon
PUBLIC	?IsDead@FalconEntity@@UAEHXZ			; FalconEntity::IsDead
PUBLIC	?IsEmitting@FalconEntity@@UAEHXZ		; FalconEntity::IsEmitting
PUBLIC	?IsUnit@FalconEntity@@UAEHXZ			; FalconEntity::IsUnit
PUBLIC	?IsObjective@FalconEntity@@UAEHXZ		; FalconEntity::IsObjective
PUBLIC	?IsBattalion@FalconEntity@@UAEHXZ		; FalconEntity::IsBattalion
PUBLIC	?IsBrigade@FalconEntity@@UAEHXZ			; FalconEntity::IsBrigade
PUBLIC	?IsFlight@FalconEntity@@UBEHXZ			; FalconEntity::IsFlight
PUBLIC	?IsSquadron@FalconEntity@@UAEHXZ		; FalconEntity::IsSquadron
PUBLIC	?IsPackage@FalconEntity@@UAEHXZ			; FalconEntity::IsPackage
PUBLIC	?IsTeam@FalconEntity@@UAEHXZ			; FalconEntity::IsTeam
PUBLIC	?IsTaskForce@FalconEntity@@UAEHXZ		; FalconEntity::IsTaskForce
PUBLIC	?GetRCSFactor@FalconEntity@@UAEMXZ		; FalconEntity::GetRCSFactor
PUBLIC	?GetIRFactor@FalconEntity@@UAEMXZ		; FalconEntity::GetIRFactor
PUBLIC	?SetAQUIREtimer@FalconEntity@@UAEXK@Z		; FalconEntity::SetAQUIREtimer
PUBLIC	?SetSEARCHtimer@FalconEntity@@UAEXK@Z		; FalconEntity::SetSEARCHtimer
PUBLIC	?SetStepSearchMode@FalconEntity@@UAEXE@Z	; FalconEntity::SetStepSearchMode
PUBLIC	?GetAQUIREtimer@FalconEntity@@UAEKXZ		; FalconEntity::GetAQUIREtimer
PUBLIC	?GetSEARCHtimer@FalconEntity@@UAEKXZ		; FalconEntity::GetSEARCHtimer
PUBLIC	??0id@locale@std@@QAE@I@Z			; std::locale::id::id
PUBLIC	?generic_category@std@@YAABVerror_category@1@XZ	; std::generic_category
PUBLIC	?system_category@std@@YAABVerror_category@1@XZ	; std::system_category
PUBLIC	??0error_category@std@@QAE@XZ			; std::error_category::error_category
PUBLIC	??1error_category@std@@UAE@XZ			; std::error_category::~error_category
PUBLIC	?default_error_condition@error_category@std@@UBE?AVerror_condition@2@H@Z ; std::error_category::default_error_condition
PUBLIC	?equivalent@error_category@std@@UBE_NHABVerror_condition@2@@Z ; std::error_category::equivalent
PUBLIC	?equivalent@error_category@std@@UBE_NABVerror_code@2@H@Z ; std::error_category::equivalent
PUBLIC	??8error_category@std@@QBE_NABV01@@Z		; std::error_category::operator==
PUBLIC	??_Gerror_category@std@@UAEPAXI@Z		; std::error_category::`scalar deleting destructor'
PUBLIC	?value@error_code@std@@QBEHXZ			; std::error_code::value
PUBLIC	?category@error_code@std@@QBEABVerror_category@2@XZ ; std::error_code::category
PUBLIC	??0error_condition@std@@QAE@HABVerror_category@1@@Z ; std::error_condition::error_condition
PUBLIC	?value@error_condition@std@@QBEHXZ		; std::error_condition::value
PUBLIC	?category@error_condition@std@@QBEABVerror_category@2@XZ ; std::error_condition::category
PUBLIC	??8error_condition@std@@QBE_NABV01@@Z		; std::error_condition::operator==
PUBLIC	??0_Generic_error_category@std@@QAE@XZ		; std::_Generic_error_category::_Generic_error_category
PUBLIC	?name@_Generic_error_category@std@@UBEPBDXZ	; std::_Generic_error_category::name
PUBLIC	?message@_Generic_error_category@std@@UBE?AV?$basic_string@DU?$char_traits@D@std@@V?$allocator@D@2@@2@H@Z ; std::_Generic_error_category::message
PUBLIC	??1_Generic_error_category@std@@UAE@XZ		; std::_Generic_error_category::~_Generic_error_category
PUBLIC	??_G_Generic_error_category@std@@UAEPAXI@Z	; std::_Generic_error_category::`scalar deleting destructor'
PUBLIC	??0_Iostream_error_category@std@@QAE@XZ		; std::_Iostream_error_category::_Iostream_error_category
PUBLIC	?name@_Iostream_error_category@std@@UBEPBDXZ	; std::_Iostream_error_category::name
PUBLIC	?message@_Iostream_error_category@std@@UBE?AV?$basic_string@DU?$char_traits@D@std@@V?$allocator@D@2@@2@H@Z ; std::_Iostream_error_category::message
PUBLIC	??1_Iostream_error_category@std@@UAE@XZ		; std::_Iostream_error_category::~_Iostream_error_category
PUBLIC	??_G_Iostream_error_category@std@@UAEPAXI@Z	; std::_Iostream_error_category::`scalar deleting destructor'
PUBLIC	??0_System_error_category@std@@QAE@XZ		; std::_System_error_category::_System_error_category
PUBLIC	?name@_System_error_category@std@@UBEPBDXZ	; std::_System_error_category::name
PUBLIC	?message@_System_error_category@std@@UBE?AV?$basic_string@DU?$char_traits@D@std@@V?$allocator@D@2@@2@H@Z ; std::_System_error_category::message
PUBLIC	?default_error_condition@_System_error_category@std@@UBE?AVerror_condition@2@H@Z ; std::_System_error_category::default_error_condition
PUBLIC	??1_System_error_category@std@@UAE@XZ		; std::_System_error_category::~_System_error_category
PUBLIC	??_G_System_error_category@std@@UAEPAXI@Z	; std::_System_error_category::`scalar deleting destructor'
PUBLIC	?Radius@DrawableObject@@QBEMXZ			; DrawableObject::Radius
PUBLIC	?GetPosition@DrawableObject@@QAEXPAUTpoint@@@Z	; DrawableObject::GetPosition
PUBLIC	?CloudLOS@SimObjectLocalData@@QAEHXZ		; SimObjectLocalData::CloudLOS
PUBLIC	?SetCloudLOS@SimObjectLocalData@@QAEXH@Z	; SimObjectLocalData::SetCloudLOS
PUBLIC	?TerrainLOS@SimObjectLocalData@@QAEHXZ		; SimObjectLocalData::TerrainLOS
PUBLIC	?SetTerrainLOS@SimObjectLocalData@@QAEXH@Z	; SimObjectLocalData::SetTerrainLOS
PUBLIC	?BaseData@SimObjectType@@QAEPAVFalconEntity@@XZ	; SimObjectType::BaseData
PUBLIC	?get@?$VuBin@VFalconEntity@@@@QBEPAVFalconEntity@@XZ ; VuBin<FalconEntity>::get
PUBLIC	??_GSimBaseNonLocalData@@QAEPAXI@Z		; SimBaseNonLocalData::`scalar deleting destructor'
PUBLIC	?get@?$VuBin@VCampBaseClass@@@@QBEPAVCampBaseClass@@XZ ; VuBin<CampBaseClass>::get
PUBLIC	?JoinFlight@SimBaseClass@@UAEXXZ		; SimBaseClass::JoinFlight
PUBLIC	?IsSimBase@SimBaseClass@@UAE_NXZ		; SimBaseClass::IsSimBase
PUBLIC	?GetCountry@SimBaseClass@@UAEEXZ		; SimBaseClass::GetCountry
PUBLIC	?GetDomain@SimBaseClass@@QBEEXZ			; SimBaseClass::GetDomain
PUBLIC	?GetClass@SimBaseClass@@QBEEXZ			; SimBaseClass::GetClass
PUBLIC	?GetType@SimBaseClass@@QBEEXZ			; SimBaseClass::GetType
PUBLIC	?GetSType@SimBaseClass@@QBEEXZ			; SimBaseClass::GetSType
PUBLIC	?GetSPType@SimBaseClass@@QBEEXZ			; SimBaseClass::GetSPType
PUBLIC	?OnGround@SimBaseClass@@UAEHXZ			; SimBaseClass::OnGround
PUBLIC	?IsExploding@SimBaseClass@@UAEHXZ		; SimBaseClass::IsExploding
PUBLIC	?IsDead@SimBaseClass@@UBEHXZ			; SimBaseClass::IsDead
PUBLIC	?IsFiring@SimBaseClass@@QBEHXZ			; SimBaseClass::IsFiring
PUBLIC	?IsSetCampaignFlag@SimBaseClass@@QBEHH@Z	; SimBaseClass::IsSetCampaignFlag
PUBLIC	?GetCampaignObject@SimBaseClass@@QAEPAVCampBaseClass@@XZ ; SimBaseClass::GetCampaignObject
PUBLIC	?GetTransform@SimBaseClass@@UAEXQAY02M@Z	; SimBaseClass::GetTransform
PUBLIC	?MakePlayerVehicle@SimBaseClass@@UAEXXZ		; SimBaseClass::MakePlayerVehicle
PUBLIC	?MakeNonPlayerVehicle@SimBaseClass@@UAEXXZ	; SimBaseClass::MakeNonPlayerVehicle
PUBLIC	?ConfigurePlayerAvionics@SimBaseClass@@UAEXXZ	; SimBaseClass::ConfigurePlayerAvionics
PUBLIC	?SetVuPosition@SimBaseClass@@UAEXXZ		; SimBaseClass::SetVuPosition
PUBLIC	?Regenerate@SimBaseClass@@UAEXMMMM@Z		; SimBaseClass::Regenerate
PUBLIC	?Mass@SimBaseClass@@UAEMXZ			; SimBaseClass::Mass
PUBLIC	??0SimVuDriver@@QAE@PAVVuEntity@@@Z		; SimVuDriver::SimVuDriver
PUBLIC	??1SimVuDriver@@UAE@XZ				; SimVuDriver::~SimVuDriver
PUBLIC	??_GSimVuDriver@@UAEPAXI@Z			; SimVuDriver::`scalar deleting destructor'
PUBLIC	??0SimVuSlave@@QAE@PAVVuEntity@@@Z		; SimVuSlave::SimVuSlave
PUBLIC	??1SimVuSlave@@UAE@XZ				; SimVuSlave::~SimVuSlave
PUBLIC	??_GSimVuSlave@@UAEPAXI@Z			; SimVuSlave::`scalar deleting destructor'
PUBLIC	?GetPlayerEntity@FalconSessionEntity@@QBEPAVFalconEntity@@XZ ; FalconSessionEntity::GetPlayerEntity
PUBLIC	?GetGame@FalconSessionEntity@@QAEPAVFalconGameEntity@@XZ ; FalconSessionEntity::GetGame
PUBLIC	?MakeComplex@SimMoverClass@@IAEXXZ		; SimMoverClass::MakeComplex
PUBLIC	?MakeSimple@SimMoverClass@@IAEXXZ		; SimMoverClass::MakeSimple
PUBLIC	?AllocateSwitchAndDof@SimMoverClass@@IAEXXZ	; SimMoverClass::AllocateSwitchAndDof
PUBLIC	?GetP@SimMoverClass@@UAEMXZ			; SimMoverClass::GetP
PUBLIC	?GetQ@SimMoverClass@@UAEMXZ			; SimMoverClass::GetQ
PUBLIC	?GetR@SimMoverClass@@UAEMXZ			; SimMoverClass::GetR
PUBLIC	?GetAlpha@SimMoverClass@@UAEMXZ			; SimMoverClass::GetAlpha
PUBLIC	?GetBeta@SimMoverClass@@UAEMXZ			; SimMoverClass::GetBeta
PUBLIC	?GetNx@SimMoverClass@@UAEMXZ			; SimMoverClass::GetNx
PUBLIC	?GetNy@SimMoverClass@@UAEMXZ			; SimMoverClass::GetNy
PUBLIC	?GetNz@SimMoverClass@@UAEMXZ			; SimMoverClass::GetNz
PUBLIC	?GetGamma@SimMoverClass@@UAEMXZ			; SimMoverClass::GetGamma
PUBLIC	?GetSigma@SimMoverClass@@UAEMXZ			; SimMoverClass::GetSigma
PUBLIC	?GetMu@SimMoverClass@@UAEMXZ			; SimMoverClass::GetMu
PUBLIC	?GetVt@SimMoverClass@@UBEMXZ			; SimMoverClass::GetVt
PUBLIC	?GetKias@SimMoverClass@@UBEMXZ			; SimMoverClass::GetKias
PUBLIC	??0SimMoverClass@@QAE@H@Z			; SimMoverClass::SimMoverClass
PUBLIC	??0SimMoverClass@@QAE@PAPAEPAJ@Z		; SimMoverClass::SimMoverClass
PUBLIC	??0SimMoverClass@@QAE@PAU_iobuf@@@Z		; SimMoverClass::SimMoverClass
PUBLIC	??1SimMoverClass@@UAE@XZ			; SimMoverClass::~SimMoverClass
PUBLIC	?InitData@SimMoverClass@@UAEXXZ			; SimMoverClass::InitData
PUBLIC	?CleanupData@SimMoverClass@@UAEXXZ		; SimMoverClass::CleanupData
PUBLIC	?InitLocalData@SimMoverClass@@AAEXXZ		; SimMoverClass::InitLocalData
PUBLIC	?CleanupLocalData@SimMoverClass@@AAEXXZ		; SimMoverClass::CleanupLocalData
PUBLIC	?Init@SimMoverClass@@UAEXPAVSimInitDataClass@@@Z ; SimMoverClass::Init
PUBLIC	?Exec@SimMoverClass@@UAEHXZ			; SimMoverClass::Exec
PUBLIC	?SetLead@SimMoverClass@@UAEXH@Z			; SimMoverClass::SetLead
PUBLIC	?SetDead@SimMoverClass@@UAEXH@Z			; SimMoverClass::SetDead
PUBLIC	?Sleep@SimMoverClass@@UAEHXZ			; SimMoverClass::Sleep
PUBLIC	?Wake@SimMoverClass@@UAEHXZ			; SimMoverClass::Wake
PUBLIC	?MakeLocal@SimMoverClass@@UAEXXZ		; SimMoverClass::MakeLocal
PUBLIC	?MakeRemote@SimMoverClass@@UAEXXZ		; SimMoverClass::MakeRemote
PUBLIC	?ChangeOwner@SimMoverClass@@UAEXVVU_ID@@@Z	; SimMoverClass::ChangeOwner
PUBLIC	?UpdatePositionFromLastOwner@SimMoverClass@@QAE_NK@Z ; SimMoverClass::UpdatePositionFromLastOwner
PUBLIC	?PositionUpdateDone@SimMoverClass@@QAEXXZ	; SimMoverClass::PositionUpdateDone
PUBLIC	?WeaponKeepAlive@SimMoverClass@@UAEXXZ		; SimMoverClass::WeaponKeepAlive
PUBLIC	?SaveSize@SimMoverClass@@UAEHXZ			; SimMoverClass::SaveSize
PUBLIC	?Save@SimMoverClass@@UAEHPAPAE@Z		; SimMoverClass::Save
PUBLIC	?Save@SimMoverClass@@UAEHPAU_iobuf@@@Z		; SimMoverClass::Save
PUBLIC	?Handle@SimMoverClass@@UAEHPAVVuFullUpdateEvent@@@Z ; SimMoverClass::Handle
PUBLIC	?Handle@SimMoverClass@@UAEHPAVVuPositionUpdateEvent@@@Z ; SimMoverClass::Handle
PUBLIC	?Handle@SimMoverClass@@UAEHPAVVuTransferEvent@@@Z ; SimMoverClass::Handle
PUBLIC	?FeatureCollision@SimMoverClass@@UAEPAVSimBaseClass@@M@Z ; SimMoverClass::FeatureCollision
PUBLIC	?CheckLOS@SimMoverClass@@UAEHPAVSimObjectType@@@Z ; SimMoverClass::CheckLOS
PUBLIC	?CheckCompositeLOS@SimMoverClass@@UAEHPAVSimObjectType@@@Z ; SimMoverClass::CheckCompositeLOS
PUBLIC	?UpdateLOS@SimMoverClass@@QAEXPAVSimObjectType@@@Z ; SimMoverClass::UpdateLOS
PUBLIC	?SetDOFs@SimMoverClass@@QAEXPAM@Z		; SimMoverClass::SetDOFs
PUBLIC	?SetSwitches@SimMoverClass@@QAEXPAH@Z		; SimMoverClass::SetSwitches
PUBLIC	?AddDataRequest@SimMoverClass@@QAEXH@Z		; SimMoverClass::AddDataRequest
PUBLIC	?SetTarget@SimMoverClass@@QAEXPAVSimObjectType@@@Z ; SimMoverClass::SetTarget
PUBLIC	?ClearTarget@SimMoverClass@@QAEXXZ		; SimMoverClass::ClearTarget
PUBLIC	?InsertionCallback@SimMoverClass@@UAEHXZ	; SimMoverClass::InsertionCallback
PUBLIC	?RemovalCallback@SimMoverClass@@UAEHXZ		; SimMoverClass::RemovalCallback
PUBLIC	?IsMover@SimMoverClass@@UAEHXZ			; SimMoverClass::IsMover
PUBLIC	??_GSimMoverClass@@UAEPAXI@Z			; SimMoverClass::`scalar deleting destructor'
PUBLIC	??0InvalidBufferException@@QAE@ABV?$basic_string@DU?$char_traits@D@std@@V?$allocator@D@2@@std@@@Z ; InvalidBufferException::InvalidBufferException
PUBLIC	??1InvalidBufferException@@UAE@XZ		; InvalidBufferException::~InvalidBufferException
PUBLIC	??0InvalidBufferException@@QAE@ABV0@@Z		; InvalidBufferException::InvalidBufferException
PUBLIC	??_GInvalidBufferException@@UAEPAXI@Z		; InvalidBufferException::`scalar deleting destructor'
PUBLIC	?memcpychk@@YAXPAXPAPAEIPAJ@Z			; memcpychk
PUBLIC	?GetComponents@CampBaseClass@@QBEPAVTailInsertList@@XZ ; CampBaseClass::GetComponents
PUBLIC	?GraphicsDataPoolInitializeStorage@@YAXXZ	; GraphicsDataPoolInitializeStorage
PUBLIC	?GraphicsDataPoolReleaseStorage@@YAXXZ		; GraphicsDataPoolReleaseStorage
PUBLIC	??$construct@PADAAPAD@?$_Wrap_alloc@V?$allocator@D@std@@@std@@QAEXPAPADAAPAD@Z ; std::_Wrap_alloc<std::allocator<char> >::construct<char *,char * &>
PUBLIC	??$destroy@PAD@?$_Wrap_alloc@V?$allocator@D@std@@@std@@QAEXPAPAD@Z ; std::_Wrap_alloc<std::allocator<char> >::destroy<char *>
PUBLIC	??$addressof@D@std@@YAPADAAD@Z			; std::addressof<char>
PUBLIC	??$_Allocate@D@std@@YAPADIPAD@Z			; std::_Allocate<char>
PUBLIC	??$forward@AAPAD@std@@YAAAPADAAPAD@Z		; std::forward<char * &>
PUBLIC	??$construct@PADAAPAD@?$allocator_traits@V?$allocator@D@std@@@std@@SAXAAV?$allocator@D@1@PAPADAAPAD@Z ; std::allocator_traits<std::allocator<char> >::construct<char *,char * &>
PUBLIC	??$destroy@PAD@?$allocator_traits@V?$allocator@D@std@@@std@@SAXAAV?$allocator@D@1@PAPAD@Z ; std::allocator_traits<std::allocator<char> >::destroy<char *>
PUBLIC	??$construct@PADAAPAD@?$allocator@D@std@@QAEXPAPADAAPAD@Z ; std::allocator<char>::construct<char *,char * &>
PUBLIC	??$destroy@PAD@?$allocator@D@std@@QAEXPAPAD@Z	; std::allocator<char>::destroy<char *>
PUBLIC	??_7logic_error@std@@6B@			; std::logic_error::`vftable'
PUBLIC	??_7out_of_range@std@@6B@			; std::out_of_range::`vftable'
PUBLIC	??_7VuDelaySlave@@6B@				; VuDelaySlave::`vftable'
PUBLIC	??_R0?AVexception@std@@@8			; std::exception `RTTI Type Descriptor'
PUBLIC	__CT??_R0?AVexception@std@@@8??0exception@std@@QAE@ABV01@@Z12
PUBLIC	??_7error_category@std@@6B@			; std::error_category::`vftable'
PUBLIC	??_7_Generic_error_category@std@@6B@		; std::_Generic_error_category::`vftable'
PUBLIC	??_C@_07DCLBNMLN@generic?$AA@			; `string'
PUBLIC	??_C@_0O@BFJCFAAK@unknown?5error?$AA@		; `string'
PUBLIC	??_7_Iostream_error_category@std@@6B@		; std::_Iostream_error_category::`vftable'
PUBLIC	??_C@_08LLGCOLLL@iostream?$AA@			; `string'
PUBLIC	??_C@_0BG@PADBLCHM@iostream?5stream?5error?$AA@	; `string'
PUBLIC	??_7_System_error_category@std@@6B@		; std::_System_error_category::`vftable'
PUBLIC	??_C@_06FHFOAHML@system?$AA@			; `string'
PUBLIC	?_Generic_object@?$_Error_objects@H@std@@2V_Generic_error_category@2@A ; std::_Error_objects<int>::_Generic_object
PUBLIC	?_Iostream_object@?$_Error_objects@H@std@@2V_Iostream_error_category@2@A ; std::_Error_objects<int>::_Iostream_object
PUBLIC	?_System_object@?$_Error_objects@H@std@@2V_System_error_category@2@A ; std::_Error_objects<int>::_System_object
PUBLIC	?id@?$num_put@DV?$back_insert_iterator@V?$basic_string@DU?$char_traits@D@std@@V?$allocator@D@2@@std@@@std@@@std@@2V0locale@2@A ; std::num_put<char,std::back_insert_iterator<std::basic_string<char,std::char_traits<char>,std::allocator<char> > > >::id
PUBLIC	?id@?$num_put@_WV?$back_insert_iterator@V?$basic_string@_WU?$char_traits@_W@std@@V?$allocator@_W@2@@std@@@std@@@std@@2V0locale@2@A ; std::num_put<wchar_t,std::back_insert_iterator<std::basic_string<wchar_t,std::char_traits<wchar_t>,std::allocator<wchar_t> > > >::id
PUBLIC	??_7SimVuDriver@@6B@				; SimVuDriver::`vftable'
PUBLIC	??_7SimVuSlave@@6B@				; SimVuSlave::`vftable'
PUBLIC	??_7SimMoverClass@@6B@				; SimMoverClass::`vftable'
PUBLIC	??_7InvalidBufferException@@6B@			; InvalidBufferException::`vftable'
PUBLIC	??_C@_0CI@MPKJAHJH@Trying?5to?5write?5?$CFlu?5bytes?5to?5?$CFld@ ; `string'
PUBLIC	__TI4?AVInvalidBufferException@@
PUBLIC	__CTA4?AVInvalidBufferException@@
PUBLIC	??_R0?AVInvalidBufferException@@@8		; InvalidBufferException `RTTI Type Descriptor'
PUBLIC	__CT??_R0?AVInvalidBufferException@@@8??0InvalidBufferException@@QAE@ABV0@@Z12
PUBLIC	??_R0?AVout_of_range@std@@@8			; std::out_of_range `RTTI Type Descriptor'
PUBLIC	__CT??_R0?AVout_of_range@std@@@8??0out_of_range@std@@QAE@ABV01@@Z12
PUBLIC	??_R0?AVlogic_error@std@@@8			; std::logic_error `RTTI Type Descriptor'
PUBLIC	__CT??_R0?AVlogic_error@std@@@8??0logic_error@std@@QAE@ABV01@@Z12
PUBLIC	?id@?$numpunct@D@std@@2V0locale@2@A		; std::numpunct<char>::id
PUBLIC	?id@?$numpunct@_W@std@@2V0locale@2@A		; std::numpunct<wchar_t>::id
PUBLIC	??_C@_0BI@CFPLBAOH@invalid?5string?5position?$AA@ ; `string'
PUBLIC	??_C@_0BA@JFNIOLAK@string?5too?5long?$AA@	; `string'
PUBLIC	??_R4VuDelaySlave@@6B@				; VuDelaySlave::`RTTI Complete Object Locator'
PUBLIC	??_R0?AVVuDelaySlave@@@8			; VuDelaySlave `RTTI Type Descriptor'
PUBLIC	??_R3VuDelaySlave@@8				; VuDelaySlave::`RTTI Class Hierarchy Descriptor'
PUBLIC	??_R2VuDelaySlave@@8				; VuDelaySlave::`RTTI Base Class Array'
PUBLIC	??_R1A@?0A@EA@VuDelaySlave@@8			; VuDelaySlave::`RTTI Base Class Descriptor at (0,-1,0,64)'
PUBLIC	??_R1A@?0A@EA@VuDeadReckon@@8			; VuDeadReckon::`RTTI Base Class Descriptor at (0,-1,0,64)'
PUBLIC	??_R0?AVVuDeadReckon@@@8			; VuDeadReckon `RTTI Type Descriptor'
PUBLIC	??_R3VuDeadReckon@@8				; VuDeadReckon::`RTTI Class Hierarchy Descriptor'
PUBLIC	??_R2VuDeadReckon@@8				; VuDeadReckon::`RTTI Base Class Array'
PUBLIC	??_R1A@?0A@EA@VuDriver@@8			; VuDriver::`RTTI Base Class Descriptor at (0,-1,0,64)'
PUBLIC	??_R0?AVVuDriver@@@8				; VuDriver `RTTI Type Descriptor'
PUBLIC	??_R3VuDriver@@8				; VuDriver::`RTTI Class Hierarchy Descriptor'
PUBLIC	??_R2VuDriver@@8				; VuDriver::`RTTI Base Class Array'
PUBLIC	??_R1A@?0A@EA@exception@std@@8			; std::exception::`RTTI Base Class Descriptor at (0,-1,0,64)'
PUBLIC	??_R3exception@std@@8				; std::exception::`RTTI Class Hierarchy Descriptor'
PUBLIC	??_R2exception@std@@8				; std::exception::`RTTI Base Class Array'
PUBLIC	??_R4logic_error@std@@6B@			; std::logic_error::`RTTI Complete Object Locator'
PUBLIC	??_R3logic_error@std@@8				; std::logic_error::`RTTI Class Hierarchy Descriptor'
PUBLIC	??_R2logic_error@std@@8				; std::logic_error::`RTTI Base Class Array'
PUBLIC	??_R1A@?0A@EA@logic_error@std@@8		; std::logic_error::`RTTI Base Class Descriptor at (0,-1,0,64)'
PUBLIC	??_R4out_of_range@std@@6B@			; std::out_of_range::`RTTI Complete Object Locator'
PUBLIC	??_R3out_of_range@std@@8			; std::out_of_range::`RTTI Class Hierarchy Descriptor'
PUBLIC	??_R2out_of_range@std@@8			; std::out_of_range::`RTTI Base Class Array'
PUBLIC	??_R1A@?0A@EA@out_of_range@std@@8		; std::out_of_range::`RTTI Base Class Descriptor at (0,-1,0,64)'
PUBLIC	??_R4error_category@std@@6B@			; std::error_category::`RTTI Complete Object Locator'
PUBLIC	??_R0?AVerror_category@std@@@8			; std::error_category `RTTI Type Descriptor'
PUBLIC	??_R3error_category@std@@8			; std::error_category::`RTTI Class Hierarchy Descriptor'
PUBLIC	??_R2error_category@std@@8			; std::error_category::`RTTI Base Class Array'
PUBLIC	??_R1A@?0A@EA@error_category@std@@8		; std::error_category::`RTTI Base Class Descriptor at (0,-1,0,64)'
PUBLIC	??_R4_Generic_error_category@std@@6B@		; std::_Generic_error_category::`RTTI Complete Object Locator'
PUBLIC	??_R0?AV_Generic_error_category@std@@@8		; std::_Generic_error_category `RTTI Type Descriptor'
PUBLIC	??_R3_Generic_error_category@std@@8		; std::_Generic_error_category::`RTTI Class Hierarchy Descriptor'
PUBLIC	??_R2_Generic_error_category@std@@8		; std::_Generic_error_category::`RTTI Base Class Array'
PUBLIC	??_R1A@?0A@EA@_Generic_error_category@std@@8	; std::_Generic_error_category::`RTTI Base Class Descriptor at (0,-1,0,64)'
PUBLIC	??_R4_Iostream_error_category@std@@6B@		; std::_Iostream_error_category::`RTTI Complete Object Locator'
PUBLIC	??_R0?AV_Iostream_error_category@std@@@8	; std::_Iostream_error_category `RTTI Type Descriptor'
PUBLIC	??_R3_Iostream_error_category@std@@8		; std::_Iostream_error_category::`RTTI Class Hierarchy Descriptor'
PUBLIC	??_R2_Iostream_error_category@std@@8		; std::_Iostream_error_category::`RTTI Base Class Array'
PUBLIC	??_R1A@?0A@EA@_Iostream_error_category@std@@8	; std::_Iostream_error_category::`RTTI Base Class Descriptor at (0,-1,0,64)'
PUBLIC	??_R4_System_error_category@std@@6B@		; std::_System_error_category::`RTTI Complete Object Locator'
PUBLIC	??_R0?AV_System_error_category@std@@@8		; std::_System_error_category `RTTI Type Descriptor'
PUBLIC	??_R3_System_error_category@std@@8		; std::_System_error_category::`RTTI Class Hierarchy Descriptor'
PUBLIC	??_R2_System_error_category@std@@8		; std::_System_error_category::`RTTI Base Class Array'
PUBLIC	??_R1A@?0A@EA@_System_error_category@std@@8	; std::_System_error_category::`RTTI Base Class Descriptor at (0,-1,0,64)'
PUBLIC	??_R4SimMoverClass@@6B@				; SimMoverClass::`RTTI Complete Object Locator'
PUBLIC	??_R0?AVSimMoverClass@@@8			; SimMoverClass `RTTI Type Descriptor'
PUBLIC	??_R3SimMoverClass@@8				; SimMoverClass::`RTTI Class Hierarchy Descriptor'
PUBLIC	??_R2SimMoverClass@@8				; SimMoverClass::`RTTI Base Class Array'
PUBLIC	??_R1A@?0A@EA@SimMoverClass@@8			; SimMoverClass::`RTTI Base Class Descriptor at (0,-1,0,64)'
PUBLIC	??_R1A@?0A@EA@SimBaseClass@@8			; SimBaseClass::`RTTI Base Class Descriptor at (0,-1,0,64)'
PUBLIC	??_R0?AVSimBaseClass@@@8			; SimBaseClass `RTTI Type Descriptor'
PUBLIC	??_R3SimBaseClass@@8				; SimBaseClass::`RTTI Class Hierarchy Descriptor'
PUBLIC	??_R2SimBaseClass@@8				; SimBaseClass::`RTTI Base Class Array'
PUBLIC	??_R1A@?0A@EA@FalconEntity@@8			; FalconEntity::`RTTI Base Class Descriptor at (0,-1,0,64)'
PUBLIC	??_R0?AVFalconEntity@@@8			; FalconEntity `RTTI Type Descriptor'
PUBLIC	??_R3FalconEntity@@8				; FalconEntity::`RTTI Class Hierarchy Descriptor'
PUBLIC	??_R2FalconEntity@@8				; FalconEntity::`RTTI Base Class Array'
PUBLIC	??_R1A@?0A@EA@VuEntity@@8			; VuEntity::`RTTI Base Class Descriptor at (0,-1,0,64)'
PUBLIC	??_R0?AVVuEntity@@@8				; VuEntity `RTTI Type Descriptor'
PUBLIC	??_R3VuEntity@@8				; VuEntity::`RTTI Class Hierarchy Descriptor'
PUBLIC	??_R2VuEntity@@8				; VuEntity::`RTTI Base Class Array'
PUBLIC	??_R4SimVuDriver@@6B@				; SimVuDriver::`RTTI Complete Object Locator'
PUBLIC	??_R0?AVSimVuDriver@@@8				; SimVuDriver `RTTI Type Descriptor'
PUBLIC	??_R3SimVuDriver@@8				; SimVuDriver::`RTTI Class Hierarchy Descriptor'
PUBLIC	??_R2SimVuDriver@@8				; SimVuDriver::`RTTI Base Class Array'
PUBLIC	??_R1A@?0A@EA@SimVuDriver@@8			; SimVuDriver::`RTTI Base Class Descriptor at (0,-1,0,64)'
PUBLIC	??_R1A@?0A@EA@VuMaster@@8			; VuMaster::`RTTI Base Class Descriptor at (0,-1,0,64)'
PUBLIC	??_R0?AVVuMaster@@@8				; VuMaster `RTTI Type Descriptor'
PUBLIC	??_R3VuMaster@@8				; VuMaster::`RTTI Class Hierarchy Descriptor'
PUBLIC	??_R2VuMaster@@8				; VuMaster::`RTTI Base Class Array'
PUBLIC	??_R4SimVuSlave@@6B@				; SimVuSlave::`RTTI Complete Object Locator'
PUBLIC	??_R0?AVSimVuSlave@@@8				; SimVuSlave `RTTI Type Descriptor'
PUBLIC	??_R3SimVuSlave@@8				; SimVuSlave::`RTTI Class Hierarchy Descriptor'
PUBLIC	??_R2SimVuSlave@@8				; SimVuSlave::`RTTI Base Class Array'
PUBLIC	??_R1A@?0A@EA@SimVuSlave@@8			; SimVuSlave::`RTTI Base Class Descriptor at (0,-1,0,64)'
PUBLIC	??_R4InvalidBufferException@@6B@		; InvalidBufferException::`RTTI Complete Object Locator'
PUBLIC	??_R3InvalidBufferException@@8			; InvalidBufferException::`RTTI Class Hierarchy Descriptor'
PUBLIC	??_R2InvalidBufferException@@8			; InvalidBufferException::`RTTI Base Class Array'
PUBLIC	??_R1A@?0A@EA@InvalidBufferException@@8		; InvalidBufferException::`RTTI Base Class Descriptor at (0,-1,0,64)'
PUBLIC	__real@00000000
PUBLIC	__real@3f000000
PUBLIC	__real@3f17ac60
PUBLIC	__real@3f800000
PUBLIC	__real@42480000
PUBLIC	__real@43fa0000
PUBLIC	__real@447a0000
PUBLIC	__real@44bb8000
PUBLIC	__real@451c4000
PUBLIC	__real@468e6944
PUBLIC	__real@469c4000
PUBLIC	__xmm@41f00000000000000000000000000000
EXTRN	__purecall:PROC
EXTRN	??2@YAPAXI@Z:PROC				; operator new
EXTRN	??3@YAXPAX@Z:PROC				; operator delete
EXTRN	_atexit:PROC
EXTRN	_fread:PROC
EXTRN	_fwrite:PROC
EXTRN	_sprintf:PROC
EXTRN	_fabs:PROC
EXTRN	_rand:PROC
EXTRN	_memcpy:PROC
EXTRN	_strlen:PROC
EXTRN	_memmove:PROC
EXTRN	__imp__HeapCreate@12:PROC
EXTRN	__imp__HeapDestroy@4:PROC
EXTRN	__imp__HeapAlloc@12:PROC
EXTRN	__imp__HeapFree@12:PROC
EXTRN	__imp__Sleep@4:PROC
EXTRN	?F4IsBadReadPtr@@YA_NPBXI@Z:PROC		; F4IsBadReadPtr
EXTRN	?F4IsBadWritePtr@@YA_NPAXI@Z:PROC		; F4IsBadWritePtr
EXTRN	?IsLocal@VuEntity@@QBEEXZ:PROC			; VuEntity::IsLocal
EXTRN	?SetDriver@VuEntity@@QAEPAVVuDriver@@PAV2@@Z:PROC ; VuEntity::SetDriver
EXTRN	?CustomCollisionCheck@VuEntity@@UAEEPAV1@M@Z:PROC ; VuEntity::CustomCollisionCheck
EXTRN	?TerrainCollisionCheck@VuEntity@@UAEEXZ:PROC	; VuEntity::TerrainCollisionCheck
EXTRN	?IsTarget@VuEntity@@UAEEXZ:PROC			; VuEntity::IsTarget
EXTRN	?IsSession@VuEntity@@UAEEXZ:PROC		; VuEntity::IsSession
EXTRN	?IsGroup@VuEntity@@UAEEXZ:PROC			; VuEntity::IsGroup
EXTRN	?IsGame@VuEntity@@UAEEXZ:PROC			; VuEntity::IsGame
EXTRN	?IsCamera@VuEntity@@UBEEXZ:PROC			; VuEntity::IsCamera
EXTRN	?Handle@VuEntity@@UAEHPAVVuErrorMessage@@@Z:PROC ; VuEntity::Handle
EXTRN	?Handle@VuEntity@@UAEHPAVVuPushRequest@@@Z:PROC	; VuEntity::Handle
EXTRN	?Handle@VuEntity@@UAEHPAVVuPullRequest@@@Z:PROC	; VuEntity::Handle
EXTRN	?Handle@VuEntity@@UAEHPAVVuEvent@@@Z:PROC	; VuEntity::Handle
EXTRN	?Handle@VuEntity@@UAEHPAVVuEntityCollisionEvent@@@Z:PROC ; VuEntity::Handle
EXTRN	?Handle@VuEntity@@UAEHPAVVuSessionEvent@@@Z:PROC ; VuEntity::Handle
EXTRN	??0exception@std@@QAE@ABQBD@Z:PROC		; std::exception::exception
EXTRN	??0exception@std@@QAE@ABV01@@Z:PROC		; std::exception::exception
EXTRN	??1exception@std@@UAE@XZ:PROC			; std::exception::~exception
EXTRN	?what@exception@std@@UBEPBDXZ:PROC		; std::exception::what
EXTRN	??_V@YAXPAX@Z:PROC				; operator delete[]
EXTRN	?_Xbad_alloc@std@@YAXXZ:PROC			; std::_Xbad_alloc
EXTRN	?_Xlength_error@std@@YAXPBD@Z:PROC		; std::_Xlength_error
EXTRN	?_Xout_of_range@std@@YAXPBD@Z:PROC		; std::_Xout_of_range
EXTRN	??_Elogic_error@std@@UAEPAXI@Z:PROC		; std::logic_error::`vector deleting destructor'
EXTRN	??_Eout_of_range@std@@UAEPAXI@Z:PROC		; std::out_of_range::`vector deleting destructor'
EXTRN	?Find@VuDatabase@@QBEPAVVuEntity@@VVU_ID@@@Z:PROC ; VuDatabase::Find
EXTRN	?ResetLastUpdateTime@VuDriver@@UAEXK@Z:PROC	; VuDriver::ResetLastUpdateTime
EXTRN	??1VuDeadReckon@@UAE@XZ:PROC			; VuDeadReckon::~VuDeadReckon
EXTRN	?ExecDR@VuDeadReckon@@UAEXK@Z:PROC		; VuDeadReckon::ExecDR
EXTRN	??0VuDelaySlave@@QAE@PAVVuEntity@@@Z:PROC	; VuDelaySlave::VuDelaySlave
EXTRN	?Exec@VuDelaySlave@@UAEXK@Z:PROC		; VuDelaySlave::Exec
EXTRN	?NoExec@VuDelaySlave@@UAEXK@Z:PROC		; VuDelaySlave::NoExec
EXTRN	?Handle@VuDelaySlave@@UAEHPAVVuPositionUpdateEvent@@@Z:PROC ; VuDelaySlave::Handle
EXTRN	??_EVuDelaySlave@@UAEPAXI@Z:PROC		; VuDelaySlave::`vector deleting destructor'
EXTRN	??0VuMaster@@QAE@PAVVuEntity@@@Z:PROC		; VuMaster::VuMaster
EXTRN	??1VuMaster@@UAE@XZ:PROC			; VuMaster::~VuMaster
EXTRN	?Exec@VuMaster@@UAEXK@Z:PROC			; VuMaster::Exec
EXTRN	?Game@VuSessionEntity@@QAEPAVVuGameEntity@@XZ:PROC ; VuSessionEntity::Game
EXTRN	??0VuListIterator@@QAE@PAVVuLinkedList@@@Z:PROC	; VuListIterator::VuListIterator
EXTRN	??1VuListIterator@@UAE@XZ:PROC			; VuListIterator::~VuListIterator
EXTRN	?GetFirst@VuListIterator@@QAEPAVVuEntity@@XZ:PROC ; VuListIterator::GetFirst
EXTRN	?GetNext@VuListIterator@@QAEPAVVuEntity@@XZ:PROC ; VuListIterator::GetNext
EXTRN	??0VuGridIterator@@QAE@PAVVuGridTree@@MMM@Z:PROC ; VuGridIterator::VuGridIterator
EXTRN	??1VuGridIterator@@UAE@XZ:PROC			; VuGridIterator::~VuGridIterator
EXTRN	?GetFirst@VuGridIterator@@QAEPAVVuEntity@@XZ:PROC ; VuGridIterator::GetFirst
EXTRN	?GetNext@VuGridIterator@@QAEPAVVuEntity@@XZ:PROC ; VuGridIterator::GetNext
EXTRN	?GetDomain@FalconEntity@@UAEEXZ:PROC		; FalconEntity::GetDomain
EXTRN	?GetRadarType@FalconEntity@@UAEHXZ:PROC		; FalconEntity::GetRadarType
EXTRN	?GetDamageModifiers@FalconEntity@@UAEPAEXZ:PROC	; FalconEntity::GetDamageModifiers
EXTRN	??_Eerror_category@std@@UAEPAXI@Z:PROC		; std::error_category::`vector deleting destructor'
EXTRN	?_Syserror_map@std@@YAPBDH@Z:PROC		; std::_Syserror_map
EXTRN	?_Winerror_map@std@@YAPBDH@Z:PROC		; std::_Winerror_map
EXTRN	??_E_Generic_error_category@std@@UAEPAXI@Z:PROC	; std::_Generic_error_category::`vector deleting destructor'
EXTRN	??_E_Iostream_error_category@std@@UAEPAXI@Z:PROC ; std::_Iostream_error_category::`vector deleting destructor'
EXTRN	??_E_System_error_category@std@@UAEPAXI@Z:PROC	; std::_System_error_category::`vector deleting destructor'
EXTRN	?SetDOFangle@DrawableBSP@@QAEXHM@Z:PROC		; DrawableBSP::SetDOFangle
EXTRN	?SetDOFoffset@DrawableBSP@@QAEXHM@Z:PROC	; DrawableBSP::SetDOFoffset
EXTRN	?SetDynamicVertex@DrawableBSP@@QAEXHMMM@Z:PROC	; DrawableBSP::SetDynamicVertex
EXTRN	?SetSwitchMask@DrawableBSP@@QAEXHK@Z:PROC	; DrawableBSP::SetSwitchMask
EXTRN	?Reference@SimObjectType@@QAEXXZ:PROC		; SimObjectType::Reference
EXTRN	?Release@SimObjectType@@QAEXXZ:PROC		; SimObjectType::Release
EXTRN	??0SimBaseNonLocalData@@QAE@XZ:PROC		; SimBaseNonLocalData::SimBaseNonLocalData
EXTRN	??1SimBaseNonLocalData@@QAE@XZ:PROC		; SimBaseNonLocalData::~SimBaseNonLocalData
EXTRN	??0SimBaseClass@@QAE@G@Z:PROC			; SimBaseClass::SimBaseClass
EXTRN	??0SimBaseClass@@QAE@PAPAEPAJ@Z:PROC		; SimBaseClass::SimBaseClass
EXTRN	??0SimBaseClass@@QAE@PAU_iobuf@@@Z:PROC		; SimBaseClass::SimBaseClass
EXTRN	??1SimBaseClass@@UAE@XZ:PROC			; SimBaseClass::~SimBaseClass
EXTRN	?InitData@SimBaseClass@@UAEXXZ:PROC		; SimBaseClass::InitData
EXTRN	?CleanupData@SimBaseClass@@UAEXXZ:PROC		; SimBaseClass::CleanupData
EXTRN	?GetTeam@SimBaseClass@@UAEEXZ:PROC		; SimBaseClass::GetTeam
EXTRN	?GetCampID@SimBaseClass@@UAEFXZ:PROC		; SimBaseClass::GetCampID
EXTRN	?ChangeOwner@SimBaseClass@@UAEXVVU_ID@@@Z:PROC	; SimBaseClass::ChangeOwner
EXTRN	?Wake@SimBaseClass@@UAEHXZ:PROC			; SimBaseClass::Wake
EXTRN	?Sleep@SimBaseClass@@UAEHXZ:PROC		; SimBaseClass::Sleep
EXTRN	?GetMovementType@SimBaseClass@@UAE?AW4MoveType@@XZ:PROC ; SimBaseClass::GetMovementType
EXTRN	?MakeLocal@SimBaseClass@@UAEXXZ:PROC		; SimBaseClass::MakeLocal
EXTRN	?MakeRemote@SimBaseClass@@UAEXXZ:PROC		; SimBaseClass::MakeRemote
EXTRN	?IsSPJamming@SimBaseClass@@UAEHXZ:PROC		; SimBaseClass::IsSPJamming
EXTRN	?IsAreaJamming@SimBaseClass@@UAEHXZ:PROC	; SimBaseClass::IsAreaJamming
EXTRN	?HasSPJamming@SimBaseClass@@UAEHXZ:PROC		; SimBaseClass::HasSPJamming
EXTRN	?HasAreaJamming@SimBaseClass@@UAEHXZ:PROC	; SimBaseClass::HasAreaJamming
EXTRN	?Init@SimBaseClass@@UAEXPAVSimInitDataClass@@@Z:PROC ; SimBaseClass::Init
EXTRN	?ApplyDamage@SimBaseClass@@UAEXPAVFalconDamageMessage@@@Z:PROC ; SimBaseClass::ApplyDamage
EXTRN	?ApplyDeathMessage@SimBaseClass@@UAEXPAVFalconDeathMessage@@@Z:PROC ; SimBaseClass::ApplyDeathMessage
EXTRN	?SetDead@SimBaseClass@@UAEXH@Z:PROC		; SimBaseClass::SetDead
EXTRN	?SaveSize@SimBaseClass@@UAEHXZ:PROC		; SimBaseClass::SaveSize
EXTRN	?Save@SimBaseClass@@UAEHPAPAE@Z:PROC		; SimBaseClass::Save
EXTRN	?Save@SimBaseClass@@UAEHPAU_iobuf@@@Z:PROC	; SimBaseClass::Save
EXTRN	?Handle@SimBaseClass@@UAEHPAVVuFullUpdateEvent@@@Z:PROC ; SimBaseClass::Handle
EXTRN	?Handle@SimBaseClass@@UAEHPAVVuPositionUpdateEvent@@@Z:PROC ; SimBaseClass::Handle
EXTRN	?Handle@SimBaseClass@@UAEHPAVVuTransferEvent@@@Z:PROC ; SimBaseClass::Handle
EXTRN	?InsertionCallback@SimBaseClass@@UAEHXZ:PROC	; SimBaseClass::InsertionCallback
EXTRN	?RemovalCallback@SimBaseClass@@UAEHXZ:PROC	; SimBaseClass::RemovalCallback
EXTRN	?GetFocusPoint@SimBaseClass@@UAEXAAM00@Z:PROC	; SimBaseClass::GetFocusPoint
EXTRN	?GetAreaFloorAndCeiling@OTWDriverClass@@QAEXPAM0@Z:PROC ; OTWDriverClass::GetAreaFloorAndCeiling
EXTRN	?CheckLOS@OTWDriverClass@@QAEHPAVFalconEntity@@0@Z:PROC ; OTWDriverClass::CheckLOS
EXTRN	?CheckCloudLOS@OTWDriverClass@@QAEHPAVFalconEntity@@0@Z:PROC ; OTWDriverClass::CheckCloudLOS
EXTRN	?FalconSendMessage@@YAXPAVVuMessage@@H@Z:PROC	; FalconSendMessage
EXTRN	?ExecModel@SimVuDriver@@UAEEK@Z:PROC		; SimVuDriver::ExecModel
EXTRN	?SendScore@SimVuDriver@@UAE?AU?$pair@W4SCORE@VuMaster@@M@std@@PBVVuSessionEntity@@K@Z:PROC ; SimVuDriver::SendScore
EXTRN	??_ESimVuDriver@@UAEPAXI@Z:PROC			; SimVuDriver::`vector deleting destructor'
EXTRN	?Exec@SimVuSlave@@UAEXK@Z:PROC			; SimVuSlave::Exec
EXTRN	?Handle@SimVuSlave@@UAEHPAVVuPositionUpdateEvent@@@Z:PROC ; SimVuSlave::Handle
EXTRN	??_ESimVuSlave@@UAEPAXI@Z:PROC			; SimVuSlave::`vector deleting destructor'
EXTRN	?GetFeatureClassData@@YAPAUFeatureClassDataType@@H@Z:PROC ; GetFeatureClassData
EXTRN	?AddToFineInterest@FalconSessionEntity@@QAE_NPAVFalconEntity@@_N@Z:PROC ; FalconSessionEntity::AddToFineInterest
EXTRN	?RemoveFromFineInterest@FalconSessionEntity@@QAE_NPBVFalconEntity@@_N@Z:PROC ; FalconSessionEntity::RemoveFromFineInterest
EXTRN	??_ESimMoverClass@@UAEPAXI@Z:PROC		; SimMoverClass::`vector deleting destructor'
EXTRN	??_EInvalidBufferException@@UAEPAXI@Z:PROC	; InvalidBufferException::`vector deleting destructor'
EXTRN	?GetComponentLead@CampBaseClass@@QAEPAVSimBaseClass@@XZ:PROC ; CampBaseClass::GetComponentLead
EXTRN	?GetPlayerAircraft@SimulationDriver@@QBEPAVAircraftClass@@XZ:PROC ; SimulationDriver::GetPlayerAircraft
EXTRN	?AddToObjectList@SimulationDriver@@QAEXPAVVuEntity@@@Z:PROC ; SimulationDriver::AddToObjectList
EXTRN	??0RequestSimMoverPosition@@QAE@PAVSimMoverClass@@VVU_ID@@@Z:PROC ; RequestSimMoverPosition::RequestSimMoverPosition
EXTRN	?PS_AddParticleEx@DrawableParticleSys@@SAXHPAUTpoint@@0@Z:PROC ; DrawableParticleSys::PS_AddParticleEx
EXTRN	?PS_KillTrail@DrawableParticleSys@@SAXK@Z:PROC	; DrawableParticleSys::PS_KillTrail
EXTRN	?PS_EmitTrail@DrawableParticleSys@@SAKKHMMMMM@Z:PROC ; DrawableParticleSys::PS_EmitTrail
EXTRN	?ReleaseTargetList@@YAXPAVSimObjectType@@@Z:PROC ; ReleaseTargetList
EXTRN	?get_air_speed@@YAMMH@Z:PROC			; get_air_speed
EXTRN	@__security_check_cookie@4:PROC
EXTRN	__CxxThrowException@8:PROC
EXTRN	___CxxFrameHandler3:PROC
EXTRN	?vuDatabase@@3PAVVuDatabase@@A:DWORD		; vuDatabase
EXTRN	?vuLocalSessionEntity@@3V?$VuBin@VVuSessionEntity@@@@A:DWORD ; vuLocalSessionEntity
EXTRN	?vuLocalSession@@3VVU_ID@@A:QWORD		; vuLocalSession
EXTRN	?vuxGameTime@@3KA:DWORD				; vuxGameTime
EXTRN	?FalconNullId@@3VVU_ID@@A:QWORD			; FalconNullId
EXTRN	?SimLibMajorFrameTime@@3MA:DWORD		; SimLibMajorFrameTime
EXTRN	?SimLibElapsedTime@@3KA:DWORD			; SimLibElapsedTime
EXTRN	??_7type_info@@6B@:QWORD			; type_info::`vftable'
EXTRN	?Falcon4ClassTable@@3PAUFalcon4EntityClassType@@A:DWORD ; Falcon4ClassTable
EXTRN	?OTWDriver@@3VOTWDriverClass@@A:BYTE		; OTWDriver
EXTRN	?ObjProxList@@3PAVVuGridTree@@A:DWORD		; ObjProxList
EXTRN	?SimDriver@@3VSimulationDriver@@A:BYTE		; SimDriver
EXTRN	?moverDefinitionData@@3PAPAVSimMoverDefinition@@A:DWORD ; moverDefinitionData
EXTRN	?NumSimMoverDefinitions@@3HA:DWORD		; NumSimMoverDefinitions
EXTRN	?TheCampaign@@3VCampaignClass@@A:BYTE		; TheCampaign
EXTRN	?g_intellivibeData@@3VIntellivibeData@@A:BYTE	; g_intellivibeData
EXTRN	___security_cookie:DWORD
EXTRN	__fltused:DWORD
_BSS	SEGMENT
_piecewise_construct DB 01H DUP (?)
	ALIGN	4

_allocator_arg DB 01H DUP (?)
_BSS	ENDS
;	COMDAT ?_Generic_object@?$_Error_objects@H@std@@2V_Generic_error_category@2@A
_BSS	SEGMENT
?_Generic_object@?$_Error_objects@H@std@@2V_Generic_error_category@2@A DD 01H DUP (?) ; std::_Error_objects<int>::_Generic_object
_BSS	ENDS
;	COMDAT ?_Iostream_object@?$_Error_objects@H@std@@2V_Iostream_error_category@2@A
_BSS	SEGMENT
?_Iostream_object@?$_Error_objects@H@std@@2V_Iostream_error_category@2@A DD 01H DUP (?) ; std::_Error_objects<int>::_Iostream_object
_BSS	ENDS
;	COMDAT ?_System_object@?$_Error_objects@H@std@@2V_System_error_category@2@A
_BSS	SEGMENT
?_System_object@?$_Error_objects@H@std@@2V_System_error_category@2@A DD 01H DUP (?) ; std::_Error_objects<int>::_System_object
_BSS	ENDS
;	COMDAT ?id@?$num_put@DV?$back_insert_iterator@V?$basic_string@DU?$char_traits@D@std@@V?$allocator@D@2@@std@@@std@@@std@@2V0locale@2@A
_BSS	SEGMENT
?id@?$num_put@DV?$back_insert_iterator@V?$basic_string@DU?$char_traits@D@std@@V?$allocator@D@2@@std@@@std@@@std@@2V0locale@2@A DD 01H DUP (?) ; std::num_put<char,std::back_insert_iterator<std::basic_string<char,std::char_traits<char>,std::allocator<char> > > >::id
_BSS	ENDS
;	COMDAT ?id@?$num_put@_WV?$back_insert_iterator@V?$basic_string@_WU?$char_traits@_W@std@@V?$allocator@_W@2@@std@@@std@@@std@@2V0locale@2@A
_BSS	SEGMENT
?id@?$num_put@_WV?$back_insert_iterator@V?$basic_string@_WU?$char_traits@_W@std@@V?$allocator@_W@2@@std@@@std@@@std@@2V0locale@2@A DD 01H DUP (?) ; std::num_put<wchar_t,std::back_insert_iterator<std::basic_string<wchar_t,std::char_traits<wchar_t>,std::allocator<wchar_t> > > >::id
_BSS	ENDS
;	COMDAT ?id@?$numpunct@D@std@@2V0locale@2@A
_BSS	SEGMENT
?id@?$numpunct@D@std@@2V0locale@2@A DD 01H DUP (?)	; std::numpunct<char>::id
_BSS	ENDS
;	COMDAT ?id@?$numpunct@_W@std@@2V0locale@2@A
_BSS	SEGMENT
?id@?$numpunct@_W@std@@2V0locale@2@A DD 01H DUP (?)	; std::numpunct<wchar_t>::id
_BSS	ENDS
CRT$XCU	SEGMENT
_piecewise_construct$initializer$ DD FLAT:??__Epiecewise_construct@std@@YAXXZ
CRT$XCU	ENDS
;	COMDAT __xmm@41f00000000000000000000000000000
CONST	SEGMENT
__xmm@41f00000000000000000000000000000 DB 00H, 00H, 00H, 00H, 00H, 00H, 00H
	DB	00H, 00H, 00H, 00H, 00H, 00H, 00H, 0f0H, 'A'
CONST	ENDS
;	COMDAT __real@469c4000
CONST	SEGMENT
__real@469c4000 DD 0469c4000r			; 20000
CONST	ENDS
;	COMDAT __real@468e6944
CONST	SEGMENT
__real@468e6944 DD 0468e6944r			; 18228.6
CONST	ENDS
;	COMDAT __real@451c4000
CONST	SEGMENT
__real@451c4000 DD 0451c4000r			; 2500
CONST	ENDS
;	COMDAT __real@44bb8000
CONST	SEGMENT
__real@44bb8000 DD 044bb8000r			; 1500
CONST	ENDS
;	COMDAT __real@447a0000
CONST	SEGMENT
__real@447a0000 DD 0447a0000r			; 1000
CONST	ENDS
;	COMDAT __real@43fa0000
CONST	SEGMENT
__real@43fa0000 DD 043fa0000r			; 500
CONST	ENDS
;	COMDAT __real@42480000
CONST	SEGMENT
__real@42480000 DD 042480000r			; 50
CONST	ENDS
;	COMDAT __real@3f800000
CONST	SEGMENT
__real@3f800000 DD 03f800000r			; 1
CONST	ENDS
;	COMDAT __real@3f17ac60
CONST	SEGMENT
__real@3f17ac60 DD 03f17ac60r			; 0.592474
CONST	ENDS
;	COMDAT __real@3f000000
CONST	SEGMENT
__real@3f000000 DD 03f000000r			; 0.5
CONST	ENDS
;	COMDAT __real@00000000
CONST	SEGMENT
__real@00000000 DD 000000000r			; 0
CONST	ENDS
;	COMDAT ??_R1A@?0A@EA@InvalidBufferException@@8
rdata$r	SEGMENT
??_R1A@?0A@EA@InvalidBufferException@@8 DD FLAT:??_R0?AVInvalidBufferException@@@8 ; InvalidBufferException::`RTTI Base Class Descriptor at (0,-1,0,64)'
	DD	03H
	DD	00H
	DD	0ffffffffH
	DD	00H
	DD	040H
	DD	FLAT:??_R3InvalidBufferException@@8
rdata$r	ENDS
;	COMDAT ??_R2InvalidBufferException@@8
rdata$r	SEGMENT
??_R2InvalidBufferException@@8 DD FLAT:??_R1A@?0A@EA@InvalidBufferException@@8 ; InvalidBufferException::`RTTI Base Class Array'
	DD	FLAT:??_R1A@?0A@EA@out_of_range@std@@8
	DD	FLAT:??_R1A@?0A@EA@logic_error@std@@8
	DD	FLAT:??_R1A@?0A@EA@exception@std@@8
rdata$r	ENDS
;	COMDAT ??_R3InvalidBufferException@@8
rdata$r	SEGMENT
??_R3InvalidBufferException@@8 DD 00H			; InvalidBufferException::`RTTI Class Hierarchy Descriptor'
	DD	00H
	DD	04H
	DD	FLAT:??_R2InvalidBufferException@@8
rdata$r	ENDS
;	COMDAT ??_R4InvalidBufferException@@6B@
rdata$r	SEGMENT
??_R4InvalidBufferException@@6B@ DD 00H			; InvalidBufferException::`RTTI Complete Object Locator'
	DD	00H
	DD	00H
	DD	FLAT:??_R0?AVInvalidBufferException@@@8
	DD	FLAT:??_R3InvalidBufferException@@8
rdata$r	ENDS
;	COMDAT ??_R1A@?0A@EA@SimVuSlave@@8
rdata$r	SEGMENT
??_R1A@?0A@EA@SimVuSlave@@8 DD FLAT:??_R0?AVSimVuSlave@@@8 ; SimVuSlave::`RTTI Base Class Descriptor at (0,-1,0,64)'
	DD	03H
	DD	00H
	DD	0ffffffffH
	DD	00H
	DD	040H
	DD	FLAT:??_R3SimVuSlave@@8
rdata$r	ENDS
;	COMDAT ??_R2SimVuSlave@@8
rdata$r	SEGMENT
??_R2SimVuSlave@@8 DD FLAT:??_R1A@?0A@EA@SimVuSlave@@8	; SimVuSlave::`RTTI Base Class Array'
	DD	FLAT:??_R1A@?0A@EA@VuDelaySlave@@8
	DD	FLAT:??_R1A@?0A@EA@VuDeadReckon@@8
	DD	FLAT:??_R1A@?0A@EA@VuDriver@@8
rdata$r	ENDS
;	COMDAT ??_R3SimVuSlave@@8
rdata$r	SEGMENT
??_R3SimVuSlave@@8 DD 00H				; SimVuSlave::`RTTI Class Hierarchy Descriptor'
	DD	00H
	DD	04H
	DD	FLAT:??_R2SimVuSlave@@8
rdata$r	ENDS
;	COMDAT ??_R0?AVSimVuSlave@@@8
_DATA	SEGMENT
??_R0?AVSimVuSlave@@@8 DD FLAT:??_7type_info@@6B@	; SimVuSlave `RTTI Type Descriptor'
	DD	00H
	DB	'.?AVSimVuSlave@@', 00H
_DATA	ENDS
;	COMDAT ??_R4SimVuSlave@@6B@
rdata$r	SEGMENT
??_R4SimVuSlave@@6B@ DD 00H				; SimVuSlave::`RTTI Complete Object Locator'
	DD	00H
	DD	00H
	DD	FLAT:??_R0?AVSimVuSlave@@@8
	DD	FLAT:??_R3SimVuSlave@@8
rdata$r	ENDS
;	COMDAT ??_R2VuMaster@@8
rdata$r	SEGMENT
??_R2VuMaster@@8 DD FLAT:??_R1A@?0A@EA@VuMaster@@8	; VuMaster::`RTTI Base Class Array'
	DD	FLAT:??_R1A@?0A@EA@VuDeadReckon@@8
	DD	FLAT:??_R1A@?0A@EA@VuDriver@@8
rdata$r	ENDS
;	COMDAT ??_R3VuMaster@@8
rdata$r	SEGMENT
??_R3VuMaster@@8 DD 00H					; VuMaster::`RTTI Class Hierarchy Descriptor'
	DD	00H
	DD	03H
	DD	FLAT:??_R2VuMaster@@8
rdata$r	ENDS
;	COMDAT ??_R0?AVVuMaster@@@8
_DATA	SEGMENT
??_R0?AVVuMaster@@@8 DD FLAT:??_7type_info@@6B@		; VuMaster `RTTI Type Descriptor'
	DD	00H
	DB	'.?AVVuMaster@@', 00H
_DATA	ENDS
;	COMDAT ??_R1A@?0A@EA@VuMaster@@8
rdata$r	SEGMENT
??_R1A@?0A@EA@VuMaster@@8 DD FLAT:??_R0?AVVuMaster@@@8	; VuMaster::`RTTI Base Class Descriptor at (0,-1,0,64)'
	DD	02H
	DD	00H
	DD	0ffffffffH
	DD	00H
	DD	040H
	DD	FLAT:??_R3VuMaster@@8
rdata$r	ENDS
;	COMDAT ??_R1A@?0A@EA@SimVuDriver@@8
rdata$r	SEGMENT
??_R1A@?0A@EA@SimVuDriver@@8 DD FLAT:??_R0?AVSimVuDriver@@@8 ; SimVuDriver::`RTTI Base Class Descriptor at (0,-1,0,64)'
	DD	03H
	DD	00H
	DD	0ffffffffH
	DD	00H
	DD	040H
	DD	FLAT:??_R3SimVuDriver@@8
rdata$r	ENDS
;	COMDAT ??_R2SimVuDriver@@8
rdata$r	SEGMENT
??_R2SimVuDriver@@8 DD FLAT:??_R1A@?0A@EA@SimVuDriver@@8 ; SimVuDriver::`RTTI Base Class Array'
	DD	FLAT:??_R1A@?0A@EA@VuMaster@@8
	DD	FLAT:??_R1A@?0A@EA@VuDeadReckon@@8
	DD	FLAT:??_R1A@?0A@EA@VuDriver@@8
rdata$r	ENDS
;	COMDAT ??_R3SimVuDriver@@8
rdata$r	SEGMENT
??_R3SimVuDriver@@8 DD 00H				; SimVuDriver::`RTTI Class Hierarchy Descriptor'
	DD	00H
	DD	04H
	DD	FLAT:??_R2SimVuDriver@@8
rdata$r	ENDS
;	COMDAT ??_R0?AVSimVuDriver@@@8
_DATA	SEGMENT
??_R0?AVSimVuDriver@@@8 DD FLAT:??_7type_info@@6B@	; SimVuDriver `RTTI Type Descriptor'
	DD	00H
	DB	'.?AVSimVuDriver@@', 00H
_DATA	ENDS
;	COMDAT ??_R4SimVuDriver@@6B@
rdata$r	SEGMENT
??_R4SimVuDriver@@6B@ DD 00H				; SimVuDriver::`RTTI Complete Object Locator'
	DD	00H
	DD	00H
	DD	FLAT:??_R0?AVSimVuDriver@@@8
	DD	FLAT:??_R3SimVuDriver@@8
rdata$r	ENDS
;	COMDAT ??_R2VuEntity@@8
rdata$r	SEGMENT
??_R2VuEntity@@8 DD FLAT:??_R1A@?0A@EA@VuEntity@@8	; VuEntity::`RTTI Base Class Array'
rdata$r	ENDS
;	COMDAT ??_R3VuEntity@@8
rdata$r	SEGMENT
??_R3VuEntity@@8 DD 00H					; VuEntity::`RTTI Class Hierarchy Descriptor'
	DD	00H
	DD	01H
	DD	FLAT:??_R2VuEntity@@8
rdata$r	ENDS
;	COMDAT ??_R0?AVVuEntity@@@8
_DATA	SEGMENT
??_R0?AVVuEntity@@@8 DD FLAT:??_7type_info@@6B@		; VuEntity `RTTI Type Descriptor'
	DD	00H
	DB	'.?AVVuEntity@@', 00H
_DATA	ENDS
;	COMDAT ??_R1A@?0A@EA@VuEntity@@8
rdata$r	SEGMENT
??_R1A@?0A@EA@VuEntity@@8 DD FLAT:??_R0?AVVuEntity@@@8	; VuEntity::`RTTI Base Class Descriptor at (0,-1,0,64)'
	DD	00H
	DD	00H
	DD	0ffffffffH
	DD	00H
	DD	040H
	DD	FLAT:??_R3VuEntity@@8
rdata$r	ENDS
;	COMDAT ??_R2FalconEntity@@8
rdata$r	SEGMENT
??_R2FalconEntity@@8 DD FLAT:??_R1A@?0A@EA@FalconEntity@@8 ; FalconEntity::`RTTI Base Class Array'
	DD	FLAT:??_R1A@?0A@EA@VuEntity@@8
rdata$r	ENDS
;	COMDAT ??_R3FalconEntity@@8
rdata$r	SEGMENT
??_R3FalconEntity@@8 DD 00H				; FalconEntity::`RTTI Class Hierarchy Descriptor'
	DD	00H
	DD	02H
	DD	FLAT:??_R2FalconEntity@@8
rdata$r	ENDS
;	COMDAT ??_R0?AVFalconEntity@@@8
_DATA	SEGMENT
??_R0?AVFalconEntity@@@8 DD FLAT:??_7type_info@@6B@	; FalconEntity `RTTI Type Descriptor'
	DD	00H
	DB	'.?AVFalconEntity@@', 00H
_DATA	ENDS
;	COMDAT ??_R1A@?0A@EA@FalconEntity@@8
rdata$r	SEGMENT
??_R1A@?0A@EA@FalconEntity@@8 DD FLAT:??_R0?AVFalconEntity@@@8 ; FalconEntity::`RTTI Base Class Descriptor at (0,-1,0,64)'
	DD	01H
	DD	00H
	DD	0ffffffffH
	DD	00H
	DD	040H
	DD	FLAT:??_R3FalconEntity@@8
rdata$r	ENDS
;	COMDAT ??_R2SimBaseClass@@8
rdata$r	SEGMENT
??_R2SimBaseClass@@8 DD FLAT:??_R1A@?0A@EA@SimBaseClass@@8 ; SimBaseClass::`RTTI Base Class Array'
	DD	FLAT:??_R1A@?0A@EA@FalconEntity@@8
	DD	FLAT:??_R1A@?0A@EA@VuEntity@@8
rdata$r	ENDS
;	COMDAT ??_R3SimBaseClass@@8
rdata$r	SEGMENT
??_R3SimBaseClass@@8 DD 00H				; SimBaseClass::`RTTI Class Hierarchy Descriptor'
	DD	00H
	DD	03H
	DD	FLAT:??_R2SimBaseClass@@8
rdata$r	ENDS
;	COMDAT ??_R0?AVSimBaseClass@@@8
_DATA	SEGMENT
??_R0?AVSimBaseClass@@@8 DD FLAT:??_7type_info@@6B@	; SimBaseClass `RTTI Type Descriptor'
	DD	00H
	DB	'.?AVSimBaseClass@@', 00H
_DATA	ENDS
;	COMDAT ??_R1A@?0A@EA@SimBaseClass@@8
rdata$r	SEGMENT
??_R1A@?0A@EA@SimBaseClass@@8 DD FLAT:??_R0?AVSimBaseClass@@@8 ; SimBaseClass::`RTTI Base Class Descriptor at (0,-1,0,64)'
	DD	02H
	DD	00H
	DD	0ffffffffH
	DD	00H
	DD	040H
	DD	FLAT:??_R3SimBaseClass@@8
rdata$r	ENDS
;	COMDAT ??_R1A@?0A@EA@SimMoverClass@@8
rdata$r	SEGMENT
??_R1A@?0A@EA@SimMoverClass@@8 DD FLAT:??_R0?AVSimMoverClass@@@8 ; SimMoverClass::`RTTI Base Class Descriptor at (0,-1,0,64)'
	DD	03H
	DD	00H
	DD	0ffffffffH
	DD	00H
	DD	040H
	DD	FLAT:??_R3SimMoverClass@@8
rdata$r	ENDS
;	COMDAT ??_R2SimMoverClass@@8
rdata$r	SEGMENT
??_R2SimMoverClass@@8 DD FLAT:??_R1A@?0A@EA@SimMoverClass@@8 ; SimMoverClass::`RTTI Base Class Array'
	DD	FLAT:??_R1A@?0A@EA@SimBaseClass@@8
	DD	FLAT:??_R1A@?0A@EA@FalconEntity@@8
	DD	FLAT:??_R1A@?0A@EA@VuEntity@@8
rdata$r	ENDS
;	COMDAT ??_R3SimMoverClass@@8
rdata$r	SEGMENT
??_R3SimMoverClass@@8 DD 00H				; SimMoverClass::`RTTI Class Hierarchy Descriptor'
	DD	00H
	DD	04H
	DD	FLAT:??_R2SimMoverClass@@8
rdata$r	ENDS
;	COMDAT ??_R0?AVSimMoverClass@@@8
_DATA	SEGMENT
??_R0?AVSimMoverClass@@@8 DD FLAT:??_7type_info@@6B@	; SimMoverClass `RTTI Type Descriptor'
	DD	00H
	DB	'.?AVSimMoverClass@@', 00H
_DATA	ENDS
;	COMDAT ??_R4SimMoverClass@@6B@
rdata$r	SEGMENT
??_R4SimMoverClass@@6B@ DD 00H				; SimMoverClass::`RTTI Complete Object Locator'
	DD	00H
	DD	00H
	DD	FLAT:??_R0?AVSimMoverClass@@@8
	DD	FLAT:??_R3SimMoverClass@@8
rdata$r	ENDS
;	COMDAT ??_R1A@?0A@EA@_System_error_category@std@@8
rdata$r	SEGMENT
??_R1A@?0A@EA@_System_error_category@std@@8 DD FLAT:??_R0?AV_System_error_category@std@@@8 ; std::_System_error_category::`RTTI Base Class Descriptor at (0,-1,0,64)'
	DD	02H
	DD	00H
	DD	0ffffffffH
	DD	00H
	DD	040H
	DD	FLAT:??_R3_System_error_category@std@@8
rdata$r	ENDS
;	COMDAT ??_R2_System_error_category@std@@8
rdata$r	SEGMENT
??_R2_System_error_category@std@@8 DD FLAT:??_R1A@?0A@EA@_System_error_category@std@@8 ; std::_System_error_category::`RTTI Base Class Array'
	DD	FLAT:??_R1A@?0A@EA@_Generic_error_category@std@@8
	DD	FLAT:??_R1A@?0A@EA@error_category@std@@8
rdata$r	ENDS
;	COMDAT ??_R3_System_error_category@std@@8
rdata$r	SEGMENT
??_R3_System_error_category@std@@8 DD 00H		; std::_System_error_category::`RTTI Class Hierarchy Descriptor'
	DD	00H
	DD	03H
	DD	FLAT:??_R2_System_error_category@std@@8
rdata$r	ENDS
;	COMDAT ??_R0?AV_System_error_category@std@@@8
_DATA	SEGMENT
??_R0?AV_System_error_category@std@@@8 DD FLAT:??_7type_info@@6B@ ; std::_System_error_category `RTTI Type Descriptor'
	DD	00H
	DB	'.?AV_System_error_category@std@@', 00H
_DATA	ENDS
;	COMDAT ??_R4_System_error_category@std@@6B@
rdata$r	SEGMENT
??_R4_System_error_category@std@@6B@ DD 00H		; std::_System_error_category::`RTTI Complete Object Locator'
	DD	00H
	DD	00H
	DD	FLAT:??_R0?AV_System_error_category@std@@@8
	DD	FLAT:??_R3_System_error_category@std@@8
rdata$r	ENDS
;	COMDAT ??_R1A@?0A@EA@_Iostream_error_category@std@@8
rdata$r	SEGMENT
??_R1A@?0A@EA@_Iostream_error_category@std@@8 DD FLAT:??_R0?AV_Iostream_error_category@std@@@8 ; std::_Iostream_error_category::`RTTI Base Class Descriptor at (0,-1,0,64)'
	DD	02H
	DD	00H
	DD	0ffffffffH
	DD	00H
	DD	040H
	DD	FLAT:??_R3_Iostream_error_category@std@@8
rdata$r	ENDS
;	COMDAT ??_R2_Iostream_error_category@std@@8
rdata$r	SEGMENT
??_R2_Iostream_error_category@std@@8 DD FLAT:??_R1A@?0A@EA@_Iostream_error_category@std@@8 ; std::_Iostream_error_category::`RTTI Base Class Array'
	DD	FLAT:??_R1A@?0A@EA@_Generic_error_category@std@@8
	DD	FLAT:??_R1A@?0A@EA@error_category@std@@8
rdata$r	ENDS
;	COMDAT ??_R3_Iostream_error_category@std@@8
rdata$r	SEGMENT
??_R3_Iostream_error_category@std@@8 DD 00H		; std::_Iostream_error_category::`RTTI Class Hierarchy Descriptor'
	DD	00H
	DD	03H
	DD	FLAT:??_R2_Iostream_error_category@std@@8
rdata$r	ENDS
;	COMDAT ??_R0?AV_Iostream_error_category@std@@@8
_DATA	SEGMENT
??_R0?AV_Iostream_error_category@std@@@8 DD FLAT:??_7type_info@@6B@ ; std::_Iostream_error_category `RTTI Type Descriptor'
	DD	00H
	DB	'.?AV_Iostream_error_category@std@@', 00H
_DATA	ENDS
;	COMDAT ??_R4_Iostream_error_category@std@@6B@
rdata$r	SEGMENT
??_R4_Iostream_error_category@std@@6B@ DD 00H		; std::_Iostream_error_category::`RTTI Complete Object Locator'
	DD	00H
	DD	00H
	DD	FLAT:??_R0?AV_Iostream_error_category@std@@@8
	DD	FLAT:??_R3_Iostream_error_category@std@@8
rdata$r	ENDS
;	COMDAT ??_R1A@?0A@EA@_Generic_error_category@std@@8
rdata$r	SEGMENT
??_R1A@?0A@EA@_Generic_error_category@std@@8 DD FLAT:??_R0?AV_Generic_error_category@std@@@8 ; std::_Generic_error_category::`RTTI Base Class Descriptor at (0,-1,0,64)'
	DD	01H
	DD	00H
	DD	0ffffffffH
	DD	00H
	DD	040H
	DD	FLAT:??_R3_Generic_error_category@std@@8
rdata$r	ENDS
;	COMDAT ??_R2_Generic_error_category@std@@8
rdata$r	SEGMENT
??_R2_Generic_error_category@std@@8 DD FLAT:??_R1A@?0A@EA@_Generic_error_category@std@@8 ; std::_Generic_error_category::`RTTI Base Class Array'
	DD	FLAT:??_R1A@?0A@EA@error_category@std@@8
rdata$r	ENDS
;	COMDAT ??_R3_Generic_error_category@std@@8
rdata$r	SEGMENT
??_R3_Generic_error_category@std@@8 DD 00H		; std::_Generic_error_category::`RTTI Class Hierarchy Descriptor'
	DD	00H
	DD	02H
	DD	FLAT:??_R2_Generic_error_category@std@@8
rdata$r	ENDS
;	COMDAT ??_R0?AV_Generic_error_category@std@@@8
_DATA	SEGMENT
??_R0?AV_Generic_error_category@std@@@8 DD FLAT:??_7type_info@@6B@ ; std::_Generic_error_category `RTTI Type Descriptor'
	DD	00H
	DB	'.?AV_Generic_error_category@std@@', 00H
_DATA	ENDS
;	COMDAT ??_R4_Generic_error_category@std@@6B@
rdata$r	SEGMENT
??_R4_Generic_error_category@std@@6B@ DD 00H		; std::_Generic_error_category::`RTTI Complete Object Locator'
	DD	00H
	DD	00H
	DD	FLAT:??_R0?AV_Generic_error_category@std@@@8
	DD	FLAT:??_R3_Generic_error_category@std@@8
rdata$r	ENDS
;	COMDAT ??_R1A@?0A@EA@error_category@std@@8
rdata$r	SEGMENT
??_R1A@?0A@EA@error_category@std@@8 DD FLAT:??_R0?AVerror_category@std@@@8 ; std::error_category::`RTTI Base Class Descriptor at (0,-1,0,64)'
	DD	00H
	DD	00H
	DD	0ffffffffH
	DD	00H
	DD	040H
	DD	FLAT:??_R3error_category@std@@8
rdata$r	ENDS
;	COMDAT ??_R2error_category@std@@8
rdata$r	SEGMENT
??_R2error_category@std@@8 DD FLAT:??_R1A@?0A@EA@error_category@std@@8 ; std::error_category::`RTTI Base Class Array'
rdata$r	ENDS
;	COMDAT ??_R3error_category@std@@8
rdata$r	SEGMENT
??_R3error_category@std@@8 DD 00H			; std::error_category::`RTTI Class Hierarchy Descriptor'
	DD	00H
	DD	01H
	DD	FLAT:??_R2error_category@std@@8
rdata$r	ENDS
;	COMDAT ??_R0?AVerror_category@std@@@8
_DATA	SEGMENT
??_R0?AVerror_category@std@@@8 DD FLAT:??_7type_info@@6B@ ; std::error_category `RTTI Type Descriptor'
	DD	00H
	DB	'.?AVerror_category@std@@', 00H
_DATA	ENDS
;	COMDAT ??_R4error_category@std@@6B@
rdata$r	SEGMENT
??_R4error_category@std@@6B@ DD 00H			; std::error_category::`RTTI Complete Object Locator'
	DD	00H
	DD	00H
	DD	FLAT:??_R0?AVerror_category@std@@@8
	DD	FLAT:??_R3error_category@std@@8
rdata$r	ENDS
;	COMDAT ??_R1A@?0A@EA@out_of_range@std@@8
rdata$r	SEGMENT
??_R1A@?0A@EA@out_of_range@std@@8 DD FLAT:??_R0?AVout_of_range@std@@@8 ; std::out_of_range::`RTTI Base Class Descriptor at (0,-1,0,64)'
	DD	02H
	DD	00H
	DD	0ffffffffH
	DD	00H
	DD	040H
	DD	FLAT:??_R3out_of_range@std@@8
rdata$r	ENDS
;	COMDAT ??_R2out_of_range@std@@8
rdata$r	SEGMENT
??_R2out_of_range@std@@8 DD FLAT:??_R1A@?0A@EA@out_of_range@std@@8 ; std::out_of_range::`RTTI Base Class Array'
	DD	FLAT:??_R1A@?0A@EA@logic_error@std@@8
	DD	FLAT:??_R1A@?0A@EA@exception@std@@8
rdata$r	ENDS
;	COMDAT ??_R3out_of_range@std@@8
rdata$r	SEGMENT
??_R3out_of_range@std@@8 DD 00H				; std::out_of_range::`RTTI Class Hierarchy Descriptor'
	DD	00H
	DD	03H
	DD	FLAT:??_R2out_of_range@std@@8
rdata$r	ENDS
;	COMDAT ??_R4out_of_range@std@@6B@
rdata$r	SEGMENT
??_R4out_of_range@std@@6B@ DD 00H			; std::out_of_range::`RTTI Complete Object Locator'
	DD	00H
	DD	00H
	DD	FLAT:??_R0?AVout_of_range@std@@@8
	DD	FLAT:??_R3out_of_range@std@@8
rdata$r	ENDS
;	COMDAT ??_R1A@?0A@EA@logic_error@std@@8
rdata$r	SEGMENT
??_R1A@?0A@EA@logic_error@std@@8 DD FLAT:??_R0?AVlogic_error@std@@@8 ; std::logic_error::`RTTI Base Class Descriptor at (0,-1,0,64)'
	DD	01H
	DD	00H
	DD	0ffffffffH
	DD	00H
	DD	040H
	DD	FLAT:??_R3logic_error@std@@8
rdata$r	ENDS
;	COMDAT ??_R2logic_error@std@@8
rdata$r	SEGMENT
??_R2logic_error@std@@8 DD FLAT:??_R1A@?0A@EA@logic_error@std@@8 ; std::logic_error::`RTTI Base Class Array'
	DD	FLAT:??_R1A@?0A@EA@exception@std@@8
rdata$r	ENDS
;	COMDAT ??_R3logic_error@std@@8
rdata$r	SEGMENT
??_R3logic_error@std@@8 DD 00H				; std::logic_error::`RTTI Class Hierarchy Descriptor'
	DD	00H
	DD	02H
	DD	FLAT:??_R2logic_error@std@@8
rdata$r	ENDS
;	COMDAT ??_R4logic_error@std@@6B@
rdata$r	SEGMENT
??_R4logic_error@std@@6B@ DD 00H			; std::logic_error::`RTTI Complete Object Locator'
	DD	00H
	DD	00H
	DD	FLAT:??_R0?AVlogic_error@std@@@8
	DD	FLAT:??_R3logic_error@std@@8
rdata$r	ENDS
;	COMDAT ??_R2exception@std@@8
rdata$r	SEGMENT
??_R2exception@std@@8 DD FLAT:??_R1A@?0A@EA@exception@std@@8 ; std::exception::`RTTI Base Class Array'
rdata$r	ENDS
;	COMDAT ??_R3exception@std@@8
rdata$r	SEGMENT
??_R3exception@std@@8 DD 00H				; std::exception::`RTTI Class Hierarchy Descriptor'
	DD	00H
	DD	01H
	DD	FLAT:??_R2exception@std@@8
rdata$r	ENDS
;	COMDAT ??_R1A@?0A@EA@exception@std@@8
rdata$r	SEGMENT
??_R1A@?0A@EA@exception@std@@8 DD FLAT:??_R0?AVexception@std@@@8 ; std::exception::`RTTI Base Class Descriptor at (0,-1,0,64)'
	DD	00H
	DD	00H
	DD	0ffffffffH
	DD	00H
	DD	040H
	DD	FLAT:??_R3exception@std@@8
rdata$r	ENDS
;	COMDAT ??_R2VuDriver@@8
rdata$r	SEGMENT
??_R2VuDriver@@8 DD FLAT:??_R1A@?0A@EA@VuDriver@@8	; VuDriver::`RTTI Base Class Array'
rdata$r	ENDS
;	COMDAT ??_R3VuDriver@@8
rdata$r	SEGMENT
??_R3VuDriver@@8 DD 00H					; VuDriver::`RTTI Class Hierarchy Descriptor'
	DD	00H
	DD	01H
	DD	FLAT:??_R2VuDriver@@8
rdata$r	ENDS
;	COMDAT ??_R0?AVVuDriver@@@8
_DATA	SEGMENT
??_R0?AVVuDriver@@@8 DD FLAT:??_7type_info@@6B@		; VuDriver `RTTI Type Descriptor'
	DD	00H
	DB	'.?AVVuDriver@@', 00H
_DATA	ENDS
;	COMDAT ??_R1A@?0A@EA@VuDriver@@8
rdata$r	SEGMENT
??_R1A@?0A@EA@VuDriver@@8 DD FLAT:??_R0?AVVuDriver@@@8	; VuDriver::`RTTI Base Class Descriptor at (0,-1,0,64)'
	DD	00H
	DD	00H
	DD	0ffffffffH
	DD	00H
	DD	040H
	DD	FLAT:??_R3VuDriver@@8
rdata$r	ENDS
;	COMDAT ??_R2VuDeadReckon@@8
rdata$r	SEGMENT
??_R2VuDeadReckon@@8 DD FLAT:??_R1A@?0A@EA@VuDeadReckon@@8 ; VuDeadReckon::`RTTI Base Class Array'
	DD	FLAT:??_R1A@?0A@EA@VuDriver@@8
rdata$r	ENDS
;	COMDAT ??_R3VuDeadReckon@@8
rdata$r	SEGMENT
??_R3VuDeadReckon@@8 DD 00H				; VuDeadReckon::`RTTI Class Hierarchy Descriptor'
	DD	00H
	DD	02H
	DD	FLAT:??_R2VuDeadReckon@@8
rdata$r	ENDS
;	COMDAT ??_R0?AVVuDeadReckon@@@8
_DATA	SEGMENT
??_R0?AVVuDeadReckon@@@8 DD FLAT:??_7type_info@@6B@	; VuDeadReckon `RTTI Type Descriptor'
	DD	00H
	DB	'.?AVVuDeadReckon@@', 00H
_DATA	ENDS
;	COMDAT ??_R1A@?0A@EA@VuDeadReckon@@8
rdata$r	SEGMENT
??_R1A@?0A@EA@VuDeadReckon@@8 DD FLAT:??_R0?AVVuDeadReckon@@@8 ; VuDeadReckon::`RTTI Base Class Descriptor at (0,-1,0,64)'
	DD	01H
	DD	00H
	DD	0ffffffffH
	DD	00H
	DD	040H
	DD	FLAT:??_R3VuDeadReckon@@8
rdata$r	ENDS
;	COMDAT ??_R1A@?0A@EA@VuDelaySlave@@8
rdata$r	SEGMENT
??_R1A@?0A@EA@VuDelaySlave@@8 DD FLAT:??_R0?AVVuDelaySlave@@@8 ; VuDelaySlave::`RTTI Base Class Descriptor at (0,-1,0,64)'
	DD	02H
	DD	00H
	DD	0ffffffffH
	DD	00H
	DD	040H
	DD	FLAT:??_R3VuDelaySlave@@8
rdata$r	ENDS
;	COMDAT ??_R2VuDelaySlave@@8
rdata$r	SEGMENT
??_R2VuDelaySlave@@8 DD FLAT:??_R1A@?0A@EA@VuDelaySlave@@8 ; VuDelaySlave::`RTTI Base Class Array'
	DD	FLAT:??_R1A@?0A@EA@VuDeadReckon@@8
	DD	FLAT:??_R1A@?0A@EA@VuDriver@@8
rdata$r	ENDS
;	COMDAT ??_R3VuDelaySlave@@8
rdata$r	SEGMENT
??_R3VuDelaySlave@@8 DD 00H				; VuDelaySlave::`RTTI Class Hierarchy Descriptor'
	DD	00H
	DD	03H
	DD	FLAT:??_R2VuDelaySlave@@8
rdata$r	ENDS
;	COMDAT ??_R0?AVVuDelaySlave@@@8
_DATA	SEGMENT
??_R0?AVVuDelaySlave@@@8 DD FLAT:??_7type_info@@6B@	; VuDelaySlave `RTTI Type Descriptor'
	DD	00H
	DB	'.?AVVuDelaySlave@@', 00H
_DATA	ENDS
;	COMDAT ??_R4VuDelaySlave@@6B@
rdata$r	SEGMENT
??_R4VuDelaySlave@@6B@ DD 00H				; VuDelaySlave::`RTTI Complete Object Locator'
	DD	00H
	DD	00H
	DD	FLAT:??_R0?AVVuDelaySlave@@@8
	DD	FLAT:??_R3VuDelaySlave@@8
rdata$r	ENDS
;	COMDAT ??_C@_0BA@JFNIOLAK@string?5too?5long?$AA@
CONST	SEGMENT
??_C@_0BA@JFNIOLAK@string?5too?5long?$AA@ DB 'string too long', 00H ; `string'
CONST	ENDS
;	COMDAT ??_C@_0BI@CFPLBAOH@invalid?5string?5position?$AA@
CONST	SEGMENT
??_C@_0BI@CFPLBAOH@invalid?5string?5position?$AA@ DB 'invalid string posi'
	DB	'tion', 00H					; `string'
CONST	ENDS
;	COMDAT __CT??_R0?AVlogic_error@std@@@8??0logic_error@std@@QAE@ABV01@@Z12
xdata$x	SEGMENT
__CT??_R0?AVlogic_error@std@@@8??0logic_error@std@@QAE@ABV01@@Z12 DD 00H
	DD	FLAT:??_R0?AVlogic_error@std@@@8
	DD	00H
	DD	0ffffffffH
	ORG $+4
	DD	0cH
	DD	FLAT:??0logic_error@std@@QAE@ABV01@@Z
xdata$x	ENDS
;	COMDAT ??_R0?AVlogic_error@std@@@8
_DATA	SEGMENT
??_R0?AVlogic_error@std@@@8 DD FLAT:??_7type_info@@6B@	; std::logic_error `RTTI Type Descriptor'
	DD	00H
	DB	'.?AVlogic_error@std@@', 00H
_DATA	ENDS
;	COMDAT __CT??_R0?AVout_of_range@std@@@8??0out_of_range@std@@QAE@ABV01@@Z12
xdata$x	SEGMENT
__CT??_R0?AVout_of_range@std@@@8??0out_of_range@std@@QAE@ABV01@@Z12 DD 00H
	DD	FLAT:??_R0?AVout_of_range@std@@@8
	DD	00H
	DD	0ffffffffH
	ORG $+4
	DD	0cH
	DD	FLAT:??0out_of_range@std@@QAE@ABV01@@Z
xdata$x	ENDS
;	COMDAT ??_R0?AVout_of_range@std@@@8
_DATA	SEGMENT
??_R0?AVout_of_range@std@@@8 DD FLAT:??_7type_info@@6B@	; std::out_of_range `RTTI Type Descriptor'
	DD	00H
	DB	'.?AVout_of_range@std@@', 00H
_DATA	ENDS
;	COMDAT __CT??_R0?AVInvalidBufferException@@@8??0InvalidBufferException@@QAE@ABV0@@Z12
xdata$x	SEGMENT
__CT??_R0?AVInvalidBufferException@@@8??0InvalidBufferException@@QAE@ABV0@@Z12 DD 00H
	DD	FLAT:??_R0?AVInvalidBufferException@@@8
	DD	00H
	DD	0ffffffffH
	ORG $+4
	DD	0cH
	DD	FLAT:??0InvalidBufferException@@QAE@ABV0@@Z
xdata$x	ENDS
;	COMDAT ??_R0?AVInvalidBufferException@@@8
_DATA	SEGMENT
??_R0?AVInvalidBufferException@@@8 DD FLAT:??_7type_info@@6B@ ; InvalidBufferException `RTTI Type Descriptor'
	DD	00H
	DB	'.?AVInvalidBufferException@@', 00H
_DATA	ENDS
;	COMDAT __CTA4?AVInvalidBufferException@@
xdata$x	SEGMENT
__CTA4?AVInvalidBufferException@@ DD 04H
	DD	FLAT:__CT??_R0?AVInvalidBufferException@@@8??0InvalidBufferException@@QAE@ABV0@@Z12
	DD	FLAT:__CT??_R0?AVout_of_range@std@@@8??0out_of_range@std@@QAE@ABV01@@Z12
	DD	FLAT:__CT??_R0?AVlogic_error@std@@@8??0logic_error@std@@QAE@ABV01@@Z12
	DD	FLAT:__CT??_R0?AVexception@std@@@8??0exception@std@@QAE@ABV01@@Z12
xdata$x	ENDS
;	COMDAT __TI4?AVInvalidBufferException@@
xdata$x	SEGMENT
__TI4?AVInvalidBufferException@@ DD 00H
	DD	FLAT:??1InvalidBufferException@@UAE@XZ
	DD	00H
	DD	FLAT:__CTA4?AVInvalidBufferException@@
xdata$x	ENDS
;	COMDAT ??_C@_0CI@MPKJAHJH@Trying?5to?5write?5?$CFlu?5bytes?5to?5?$CFld@
CONST	SEGMENT
??_C@_0CI@MPKJAHJH@Trying?5to?5write?5?$CFlu?5bytes?5to?5?$CFld@ DB 'Tryi'
	DB	'ng to write %lu bytes to %ld buffer', 00H	; `string'
CONST	ENDS
;	COMDAT ??_7InvalidBufferException@@6B@
CONST	SEGMENT
??_7InvalidBufferException@@6B@ DD FLAT:??_R4InvalidBufferException@@6B@ ; InvalidBufferException::`vftable'
	DD	FLAT:??_EInvalidBufferException@@UAEPAXI@Z
	DD	FLAT:?what@exception@std@@UBEPBDXZ
CONST	ENDS
;	COMDAT ??_7SimMoverClass@@6B@
CONST	SEGMENT
??_7SimMoverClass@@6B@ DD FLAT:??_R4SimMoverClass@@6B@	; SimMoverClass::`vftable'
	DD	FLAT:?CustomCollisionCheck@VuEntity@@UAEEPAV1@M@Z
	DD	FLAT:?TerrainCollisionCheck@VuEntity@@UAEEXZ
	DD	FLAT:?IsTarget@VuEntity@@UAEEXZ
	DD	FLAT:?IsSession@VuEntity@@UAEEXZ
	DD	FLAT:?IsGroup@VuEntity@@UAEEXZ
	DD	FLAT:?IsGame@VuEntity@@UAEEXZ
	DD	FLAT:?IsCamera@VuEntity@@UBEEXZ
	DD	FLAT:?SaveSize@SimMoverClass@@UAEHXZ
	DD	FLAT:?Save@SimMoverClass@@UAEHPAU_iobuf@@@Z
	DD	FLAT:?Save@SimMoverClass@@UAEHPAPAE@Z
	DD	FLAT:?Handle@VuEntity@@UAEHPAVVuSessionEvent@@@Z
	DD	FLAT:?Handle@SimMoverClass@@UAEHPAVVuTransferEvent@@@Z
	DD	FLAT:?Handle@VuEntity@@UAEHPAVVuEntityCollisionEvent@@@Z
	DD	FLAT:?Handle@SimMoverClass@@UAEHPAVVuPositionUpdateEvent@@@Z
	DD	FLAT:?Handle@SimMoverClass@@UAEHPAVVuFullUpdateEvent@@@Z
	DD	FLAT:?Handle@VuEntity@@UAEHPAVVuEvent@@@Z
	DD	FLAT:?Handle@VuEntity@@UAEHPAVVuPullRequest@@@Z
	DD	FLAT:?Handle@VuEntity@@UAEHPAVVuPushRequest@@@Z
	DD	FLAT:?Handle@VuEntity@@UAEHPAVVuErrorMessage@@@Z
	DD	FLAT:??_ESimMoverClass@@UAEPAXI@Z
	DD	FLAT:?InsertionCallback@SimMoverClass@@UAEHXZ
	DD	FLAT:?RemovalCallback@SimMoverClass@@UAEHXZ
	DD	FLAT:?InitData@SimMoverClass@@UAEXXZ
	DD	FLAT:?CleanupData@SimMoverClass@@UAEXXZ
	DD	FLAT:?IsSimBase@SimBaseClass@@UAE_NXZ
	DD	FLAT:?IsCampBase@FalconEntity@@UAE_NXZ
	DD	FLAT:?Wake@SimMoverClass@@UAEHXZ
	DD	FLAT:?Sleep@SimMoverClass@@UAEHXZ
	DD	FLAT:?GetCampID@SimBaseClass@@UAEFXZ
	DD	FLAT:?GetTeam@SimBaseClass@@UAEEXZ
	DD	FLAT:?GetCountry@SimBaseClass@@UAEEXZ
	DD	FLAT:?GetDomain@FalconEntity@@UAEEXZ
	DD	FLAT:?GetRadarMode@FalconEntity@@UAEHXZ
	DD	FLAT:?SetRadarMode@FalconEntity@@UAEXE@Z
	DD	FLAT:?ReturnToSearch@FalconEntity@@UAEXXZ
	DD	FLAT:?SetSearchMode@FalconEntity@@UAEXE@Z
	DD	FLAT:?CombatClass@FalconEntity@@UAEHXZ
	DD	FLAT:?OnGround@SimBaseClass@@UAEHXZ
	DD	FLAT:?HasEntity@FalconEntity@@UBEHPAVVuEntity@@@Z
	DD	FLAT:?IsMissile@FalconEntity@@UAEHXZ
	DD	FLAT:?IsLauncher@FalconEntity@@UAEHXZ
	DD	FLAT:?IsBomb@FalconEntity@@UAEHXZ
	DD	FLAT:?IsGun@FalconEntity@@UAEHXZ
	DD	FLAT:?IsMover@SimMoverClass@@UAEHXZ
	DD	FLAT:?IsVehicle@FalconEntity@@UAEHXZ
	DD	FLAT:?IsStatic@FalconEntity@@UAEHXZ
	DD	FLAT:?IsHelicopter@FalconEntity@@UAEHXZ
	DD	FLAT:?IsEject@FalconEntity@@UAEHXZ
	DD	FLAT:?IsAirplane@FalconEntity@@UAEHXZ
	DD	FLAT:?IsGroundVehicle@FalconEntity@@UAEHXZ
	DD	FLAT:?IsShip@FalconEntity@@UAEHXZ
	DD	FLAT:?IsWeapon@FalconEntity@@UAEHXZ
	DD	FLAT:?IsExploding@SimBaseClass@@UAEHXZ
	DD	FLAT:?IsDead@FalconEntity@@UAEHXZ
	DD	FLAT:?IsEmitting@FalconEntity@@UAEHXZ
	DD	FLAT:?GetVt@SimMoverClass@@UBEMXZ
	DD	FLAT:?GetKias@SimMoverClass@@UBEMXZ
	DD	FLAT:?GetMovementType@SimBaseClass@@UAE?AW4MoveType@@XZ
	DD	FLAT:?IsUnit@FalconEntity@@UAEHXZ
	DD	FLAT:?IsObjective@FalconEntity@@UAEHXZ
	DD	FLAT:?IsBattalion@FalconEntity@@UAEHXZ
	DD	FLAT:?IsBrigade@FalconEntity@@UAEHXZ
	DD	FLAT:?IsFlight@FalconEntity@@UBEHXZ
	DD	FLAT:?IsSquadron@FalconEntity@@UAEHXZ
	DD	FLAT:?IsPackage@FalconEntity@@UAEHXZ
	DD	FLAT:?IsTeam@FalconEntity@@UAEHXZ
	DD	FLAT:?IsTaskForce@FalconEntity@@UAEHXZ
	DD	FLAT:?IsSPJamming@SimBaseClass@@UAEHXZ
	DD	FLAT:?IsAreaJamming@SimBaseClass@@UAEHXZ
	DD	FLAT:?HasSPJamming@SimBaseClass@@UAEHXZ
	DD	FLAT:?HasAreaJamming@SimBaseClass@@UAEHXZ
	DD	FLAT:?GetRCSFactor@FalconEntity@@UAEMXZ
	DD	FLAT:?GetIRFactor@FalconEntity@@UAEMXZ
	DD	FLAT:?GetRadarType@FalconEntity@@UAEHXZ
	DD	FLAT:?GetDamageModifiers@FalconEntity@@UAEPAEXZ
	DD	FLAT:?SetAQUIREtimer@FalconEntity@@UAEXK@Z
	DD	FLAT:?SetSEARCHtimer@FalconEntity@@UAEXK@Z
	DD	FLAT:?SetStepSearchMode@FalconEntity@@UAEXE@Z
	DD	FLAT:?GetAQUIREtimer@FalconEntity@@UAEKXZ
	DD	FLAT:?GetSEARCHtimer@FalconEntity@@UAEKXZ
	DD	FLAT:?WeaponKeepAlive@SimMoverClass@@UAEXXZ
	DD	FLAT:?JoinFlight@SimBaseClass@@UAEXXZ
	DD	FLAT:?ChangeOwner@SimMoverClass@@UAEXVVU_ID@@@Z
	DD	FLAT:?MakeLocal@SimMoverClass@@UAEXXZ
	DD	FLAT:?MakeRemote@SimMoverClass@@UAEXXZ
	DD	FLAT:?IsDead@SimBaseClass@@UBEHXZ
	DD	FLAT:?Init@SimMoverClass@@UAEXPAVSimInitDataClass@@@Z
	DD	FLAT:?Exec@SimMoverClass@@UAEHXZ
	DD	FLAT:?GetTransform@SimBaseClass@@UAEXQAY02M@Z
	DD	FLAT:?ApplyDamage@SimBaseClass@@UAEXPAVFalconDamageMessage@@@Z
	DD	FLAT:?ApplyDeathMessage@SimBaseClass@@UAEXPAVFalconDeathMessage@@@Z
	DD	FLAT:?SetDead@SimMoverClass@@UAEXH@Z
	DD	FLAT:?MakePlayerVehicle@SimBaseClass@@UAEXXZ
	DD	FLAT:?MakeNonPlayerVehicle@SimBaseClass@@UAEXXZ
	DD	FLAT:?ConfigurePlayerAvionics@SimBaseClass@@UAEXXZ
	DD	FLAT:?SetVuPosition@SimBaseClass@@UAEXXZ
	DD	FLAT:?Regenerate@SimBaseClass@@UAEXMMMM@Z
	DD	FLAT:?Mass@SimBaseClass@@UAEMXZ
	DD	FLAT:?GetFocusPoint@SimBaseClass@@UAEXAAM00@Z
	DD	FLAT:?GetP@SimMoverClass@@UAEMXZ
	DD	FLAT:?GetQ@SimMoverClass@@UAEMXZ
	DD	FLAT:?GetR@SimMoverClass@@UAEMXZ
	DD	FLAT:?GetAlpha@SimMoverClass@@UAEMXZ
	DD	FLAT:?GetBeta@SimMoverClass@@UAEMXZ
	DD	FLAT:?GetNx@SimMoverClass@@UAEMXZ
	DD	FLAT:?GetNy@SimMoverClass@@UAEMXZ
	DD	FLAT:?GetNz@SimMoverClass@@UAEMXZ
	DD	FLAT:?GetGamma@SimMoverClass@@UAEMXZ
	DD	FLAT:?GetSigma@SimMoverClass@@UAEMXZ
	DD	FLAT:?GetMu@SimMoverClass@@UAEMXZ
	DD	FLAT:?SetLead@SimMoverClass@@UAEXH@Z
	DD	FLAT:?FeatureCollision@SimMoverClass@@UAEPAVSimBaseClass@@M@Z
	DD	FLAT:?CheckLOS@SimMoverClass@@UAEHPAVSimObjectType@@@Z
	DD	FLAT:?CheckCompositeLOS@SimMoverClass@@UAEHPAVSimObjectType@@@Z
CONST	ENDS
;	COMDAT ??_7SimVuSlave@@6B@
CONST	SEGMENT
??_7SimVuSlave@@6B@ DD FLAT:??_R4SimVuSlave@@6B@	; SimVuSlave::`vftable'
	DD	FLAT:??_ESimVuSlave@@UAEPAXI@Z
	DD	FLAT:?NoExec@VuDelaySlave@@UAEXK@Z
	DD	FLAT:?Exec@SimVuSlave@@UAEXK@Z
	DD	FLAT:?Handle@SimVuSlave@@UAEHPAVVuPositionUpdateEvent@@@Z
	DD	FLAT:?Handle@VuDelaySlave@@UAEHPAVVuFullUpdateEvent@@@Z
	DD	FLAT:?Handle@VuDelaySlave@@UAEHPAVVuEvent@@@Z
	DD	FLAT:?ResetLastUpdateTime@VuDriver@@UAEXK@Z
	DD	FLAT:?ExecDR@VuDeadReckon@@UAEXK@Z
CONST	ENDS
;	COMDAT ??_7SimVuDriver@@6B@
CONST	SEGMENT
??_7SimVuDriver@@6B@ DD FLAT:??_R4SimVuDriver@@6B@	; SimVuDriver::`vftable'
	DD	FLAT:??_ESimVuDriver@@UAEPAXI@Z
	DD	FLAT:?NoExec@VuMaster@@UAEXK@Z
	DD	FLAT:?Exec@VuMaster@@UAEXK@Z
	DD	FLAT:?Handle@VuMaster@@UAEHPAVVuPositionUpdateEvent@@@Z
	DD	FLAT:?Handle@VuMaster@@UAEHPAVVuFullUpdateEvent@@@Z
	DD	FLAT:?Handle@VuMaster@@UAEHPAVVuEvent@@@Z
	DD	FLAT:?ResetLastUpdateTime@VuDriver@@UAEXK@Z
	DD	FLAT:?ExecDR@VuDeadReckon@@UAEXK@Z
	DD	FLAT:?ExecModel@SimVuDriver@@UAEEK@Z
	DD	FLAT:?SendScore@SimVuDriver@@UAE?AU?$pair@W4SCORE@VuMaster@@M@std@@PBVVuSessionEntity@@K@Z
CONST	ENDS
;	COMDAT ??_C@_06FHFOAHML@system?$AA@
CONST	SEGMENT
??_C@_06FHFOAHML@system?$AA@ DB 'system', 00H		; `string'
CONST	ENDS
;	COMDAT ??_7_System_error_category@std@@6B@
CONST	SEGMENT
??_7_System_error_category@std@@6B@ DD FLAT:??_R4_System_error_category@std@@6B@ ; std::_System_error_category::`vftable'
	DD	FLAT:??_E_System_error_category@std@@UAEPAXI@Z
	DD	FLAT:?name@_System_error_category@std@@UBEPBDXZ
	DD	FLAT:?message@_System_error_category@std@@UBE?AV?$basic_string@DU?$char_traits@D@std@@V?$allocator@D@2@@2@H@Z
	DD	FLAT:?default_error_condition@_System_error_category@std@@UBE?AVerror_condition@2@H@Z
	DD	FLAT:?equivalent@error_category@std@@UBE_NABVerror_code@2@H@Z
	DD	FLAT:?equivalent@error_category@std@@UBE_NHABVerror_condition@2@@Z
CONST	ENDS
;	COMDAT ??_C@_0BG@PADBLCHM@iostream?5stream?5error?$AA@
CONST	SEGMENT
??_C@_0BG@PADBLCHM@iostream?5stream?5error?$AA@ DB 'iostream stream error'
	DB	00H						; `string'
CONST	ENDS
;	COMDAT ??_C@_08LLGCOLLL@iostream?$AA@
CONST	SEGMENT
??_C@_08LLGCOLLL@iostream?$AA@ DB 'iostream', 00H	; `string'
CONST	ENDS
;	COMDAT ??_7_Iostream_error_category@std@@6B@
CONST	SEGMENT
??_7_Iostream_error_category@std@@6B@ DD FLAT:??_R4_Iostream_error_category@std@@6B@ ; std::_Iostream_error_category::`vftable'
	DD	FLAT:??_E_Iostream_error_category@std@@UAEPAXI@Z
	DD	FLAT:?name@_Iostream_error_category@std@@UBEPBDXZ
	DD	FLAT:?message@_Iostream_error_category@std@@UBE?AV?$basic_string@DU?$char_traits@D@std@@V?$allocator@D@2@@2@H@Z
	DD	FLAT:?default_error_condition@error_category@std@@UBE?AVerror_condition@2@H@Z
	DD	FLAT:?equivalent@error_category@std@@UBE_NABVerror_code@2@H@Z
	DD	FLAT:?equivalent@error_category@std@@UBE_NHABVerror_condition@2@@Z
CONST	ENDS
;	COMDAT ??_C@_0O@BFJCFAAK@unknown?5error?$AA@
CONST	SEGMENT
??_C@_0O@BFJCFAAK@unknown?5error?$AA@ DB 'unknown error', 00H ; `string'
CONST	ENDS
;	COMDAT ??_C@_07DCLBNMLN@generic?$AA@
CONST	SEGMENT
??_C@_07DCLBNMLN@generic?$AA@ DB 'generic', 00H		; `string'
CONST	ENDS
;	COMDAT ??_7_Generic_error_category@std@@6B@
CONST	SEGMENT
??_7_Generic_error_category@std@@6B@ DD FLAT:??_R4_Generic_error_category@std@@6B@ ; std::_Generic_error_category::`vftable'
	DD	FLAT:??_E_Generic_error_category@std@@UAEPAXI@Z
	DD	FLAT:?name@_Generic_error_category@std@@UBEPBDXZ
	DD	FLAT:?message@_Generic_error_category@std@@UBE?AV?$basic_string@DU?$char_traits@D@std@@V?$allocator@D@2@@2@H@Z
	DD	FLAT:?default_error_condition@error_category@std@@UBE?AVerror_condition@2@H@Z
	DD	FLAT:?equivalent@error_category@std@@UBE_NABVerror_code@2@H@Z
	DD	FLAT:?equivalent@error_category@std@@UBE_NHABVerror_condition@2@@Z
CONST	ENDS
;	COMDAT ??_7error_category@std@@6B@
CONST	SEGMENT
??_7error_category@std@@6B@ DD FLAT:??_R4error_category@std@@6B@ ; std::error_category::`vftable'
	DD	FLAT:??_Eerror_category@std@@UAEPAXI@Z
	DD	FLAT:__purecall
	DD	FLAT:__purecall
	DD	FLAT:?default_error_condition@error_category@std@@UBE?AVerror_condition@2@H@Z
	DD	FLAT:?equivalent@error_category@std@@UBE_NABVerror_code@2@H@Z
	DD	FLAT:?equivalent@error_category@std@@UBE_NHABVerror_condition@2@@Z
CONST	ENDS
;	COMDAT __CT??_R0?AVexception@std@@@8??0exception@std@@QAE@ABV01@@Z12
xdata$x	SEGMENT
__CT??_R0?AVexception@std@@@8??0exception@std@@QAE@ABV01@@Z12 DD 00H
	DD	FLAT:??_R0?AVexception@std@@@8
	DD	00H
	DD	0ffffffffH
	ORG $+4
	DD	0cH
	DD	FLAT:??0exception@std@@QAE@ABV01@@Z
xdata$x	ENDS
;	COMDAT ??_R0?AVexception@std@@@8
_DATA	SEGMENT
??_R0?AVexception@std@@@8 DD FLAT:??_7type_info@@6B@	; std::exception `RTTI Type Descriptor'
	DD	00H
	DB	'.?AVexception@std@@', 00H
_DATA	ENDS
;	COMDAT ??_7VuDelaySlave@@6B@
CONST	SEGMENT
??_7VuDelaySlave@@6B@ DD FLAT:??_R4VuDelaySlave@@6B@	; VuDelaySlave::`vftable'
	DD	FLAT:??_EVuDelaySlave@@UAEPAXI@Z
	DD	FLAT:?NoExec@VuDelaySlave@@UAEXK@Z
	DD	FLAT:?Exec@VuDelaySlave@@UAEXK@Z
	DD	FLAT:?Handle@VuDelaySlave@@UAEHPAVVuPositionUpdateEvent@@@Z
	DD	FLAT:?Handle@VuDelaySlave@@UAEHPAVVuFullUpdateEvent@@@Z
	DD	FLAT:?Handle@VuDelaySlave@@UAEHPAVVuEvent@@@Z
	DD	FLAT:?ResetLastUpdateTime@VuDriver@@UAEXK@Z
	DD	FLAT:?ExecDR@VuDeadReckon@@UAEXK@Z
CONST	ENDS
;	COMDAT ??_7out_of_range@std@@6B@
CONST	SEGMENT
??_7out_of_range@std@@6B@ DD FLAT:??_R4out_of_range@std@@6B@ ; std::out_of_range::`vftable'
	DD	FLAT:??_Eout_of_range@std@@UAEPAXI@Z
	DD	FLAT:?what@exception@std@@UBEPBDXZ
CONST	ENDS
;	COMDAT ??_7logic_error@std@@6B@
CONST	SEGMENT
??_7logic_error@std@@6B@ DD FLAT:??_R4logic_error@std@@6B@ ; std::logic_error::`vftable'
	DD	FLAT:??_Elogic_error@std@@UAEPAXI@Z
	DD	FLAT:?what@exception@std@@UBEPBDXZ
CONST	ENDS
;	COMDAT xdata$x
xdata$x	SEGMENT
__unwindtable$??$construct@PADAAPAD@?$allocator@D@std@@QAEXPAPADAAPAD@Z DD 0ffffffffH
	DD	FLAT:__unwindfunclet$??$construct@PADAAPAD@?$allocator@D@std@@QAEXPAPADAAPAD@Z$0
__ehfuncinfo$??$construct@PADAAPAD@?$allocator@D@std@@QAEXPAPADAAPAD@Z DD 019930522H
	DD	01H
	DD	FLAT:__unwindtable$??$construct@PADAAPAD@?$allocator@D@std@@QAEXPAPADAAPAD@Z
	DD	2 DUP(00H)
	DD	2 DUP(00H)
	DD	00H
	DD	01H
xdata$x	ENDS
;	COMDAT xdata$x
xdata$x	SEGMENT
__unwindtable$?memcpychk@@YAXPAXPAPAEIPAJ@Z DD 0ffffffffH
	DD	FLAT:__unwindfunclet$?memcpychk@@YAXPAXPAPAEIPAJ@Z$0
__ehfuncinfo$?memcpychk@@YAXPAXPAPAEIPAJ@Z DD 019930522H
	DD	01H
	DD	FLAT:__unwindtable$?memcpychk@@YAXPAXPAPAEIPAJ@Z
	DD	2 DUP(00H)
	DD	2 DUP(00H)
	DD	00H
	DD	01H
xdata$x	ENDS
xdata$x	SEGMENT
__unwindtable$?UpdatePositionFromLastOwner@SimMoverClass@@QAE_NK@Z DD 0ffffffffH
	DD	FLAT:__unwindfunclet$?UpdatePositionFromLastOwner@SimMoverClass@@QAE_NK@Z$0
__unwindtable$?MakeLocal@SimMoverClass@@UAEXXZ DD 0ffffffffH
	DD	FLAT:__unwindfunclet$?MakeLocal@SimMoverClass@@UAEXXZ$0
__unwindtable$??1SimMoverClass@@UAE@XZ DD 0ffffffffH
	DD	FLAT:__unwindfunclet$??1SimMoverClass@@UAE@XZ$0
__unwindtable$??0SimMoverClass@@QAE@PAU_iobuf@@@Z DD 0ffffffffH
	DD	FLAT:__unwindfunclet$??0SimMoverClass@@QAE@PAU_iobuf@@@Z$0
__unwindtable$??0SimMoverClass@@QAE@PAPAEPAJ@Z DD 0ffffffffH
	DD	FLAT:__unwindfunclet$??0SimMoverClass@@QAE@PAPAEPAJ@Z$0
__unwindtable$??0SimMoverClass@@QAE@H@Z DD 0ffffffffH
	DD	FLAT:__unwindfunclet$??0SimMoverClass@@QAE@H@Z$0
__unwindtable$?FeatureCollision@SimMoverClass@@UAEPAVSimBaseClass@@M@Z DD 0ffffffffH
	DD	FLAT:__unwindfunclet$?FeatureCollision@SimMoverClass@@UAEPAVSimBaseClass@@M@Z$0
	DD	00H
	DD	FLAT:__unwindfunclet$?FeatureCollision@SimMoverClass@@UAEPAVSimBaseClass@@M@Z$1
__unwindtable$?MakeRemote@SimMoverClass@@UAEXXZ DD 0ffffffffH
	DD	FLAT:__unwindfunclet$?MakeRemote@SimMoverClass@@UAEXXZ$0
	DD	0ffffffffH
	DD	FLAT:__unwindfunclet$?MakeRemote@SimMoverClass@@UAEXXZ$1
__unwindtable$?Init@SimMoverClass@@UAEXPAVSimInitDataClass@@@Z DD 0ffffffffH
	DD	FLAT:__unwindfunclet$?Init@SimMoverClass@@UAEXPAVSimInitDataClass@@@Z$0
	DD	0ffffffffH
	DD	FLAT:__unwindfunclet$?Init@SimMoverClass@@UAEXPAVSimInitDataClass@@@Z$1
__ehfuncinfo$?FeatureCollision@SimMoverClass@@UAEPAVSimBaseClass@@M@Z DD 019930522H
	DD	02H
	DD	FLAT:__unwindtable$?FeatureCollision@SimMoverClass@@UAEPAVSimBaseClass@@M@Z
	DD	2 DUP(00H)
	DD	2 DUP(00H)
	DD	00H
	DD	01H
__ehfuncinfo$?UpdatePositionFromLastOwner@SimMoverClass@@QAE_NK@Z DD 019930522H
	DD	01H
	DD	FLAT:__unwindtable$?UpdatePositionFromLastOwner@SimMoverClass@@QAE_NK@Z
	DD	2 DUP(00H)
	DD	2 DUP(00H)
	DD	00H
	DD	01H
__ehfuncinfo$?MakeRemote@SimMoverClass@@UAEXXZ DD 019930522H
	DD	02H
	DD	FLAT:__unwindtable$?MakeRemote@SimMoverClass@@UAEXXZ
	DD	2 DUP(00H)
	DD	2 DUP(00H)
	DD	00H
	DD	01H
__ehfuncinfo$?MakeLocal@SimMoverClass@@UAEXXZ DD 019930522H
	DD	01H
	DD	FLAT:__unwindtable$?MakeLocal@SimMoverClass@@UAEXXZ
	DD	2 DUP(00H)
	DD	2 DUP(00H)
	DD	00H
	DD	01H
__ehfuncinfo$?Init@SimMoverClass@@UAEXPAVSimInitDataClass@@@Z DD 019930522H
	DD	02H
	DD	FLAT:__unwindtable$?Init@SimMoverClass@@UAEXPAVSimInitDataClass@@@Z
	DD	2 DUP(00H)
	DD	2 DUP(00H)
	DD	00H
	DD	01H
__ehfuncinfo$??1SimMoverClass@@UAE@XZ DD 019930522H
	DD	01H
	DD	FLAT:__unwindtable$??1SimMoverClass@@UAE@XZ
	DD	2 DUP(00H)
	DD	2 DUP(00H)
	DD	00H
	DD	01H
__ehfuncinfo$??0SimMoverClass@@QAE@PAU_iobuf@@@Z DD 019930522H
	DD	01H
	DD	FLAT:__unwindtable$??0SimMoverClass@@QAE@PAU_iobuf@@@Z
	DD	2 DUP(00H)
	DD	2 DUP(00H)
	DD	00H
	DD	01H
__ehfuncinfo$??0SimMoverClass@@QAE@PAPAEPAJ@Z DD 019930522H
	DD	01H
	DD	FLAT:__unwindtable$??0SimMoverClass@@QAE@PAPAEPAJ@Z
	DD	2 DUP(00H)
	DD	2 DUP(00H)
	DD	00H
	DD	01H
__ehfuncinfo$??0SimMoverClass@@QAE@H@Z DD 019930522H
	DD	01H
	DD	FLAT:__unwindtable$??0SimMoverClass@@QAE@H@Z
	DD	2 DUP(00H)
	DD	2 DUP(00H)
	DD	00H
	DD	01H
xdata$x	ENDS
;	COMDAT xdata$x
xdata$x	SEGMENT
__catchsym$?_Copy@?$basic_string@DU?$char_traits@D@std@@V?$allocator@D@2@@std@@QAEXII@Z$5 DD 040H
	DD	00H
	DD	00H
	DD	FLAT:__catch$?_Copy@?$basic_string@DU?$char_traits@D@std@@V?$allocator@D@2@@std@@QAEXII@Z$0
__catchsym$?_Copy@?$basic_string@DU?$char_traits@D@std@@V?$allocator@D@2@@std@@QAEXII@Z$4 DD 040H
	DD	00H
	DD	00H
	DD	FLAT:__catch$?_Copy@?$basic_string@DU?$char_traits@D@std@@V?$allocator@D@2@@std@@QAEXII@Z$1
__unwindtable$?_Copy@?$basic_string@DU?$char_traits@D@std@@V?$allocator@D@2@@std@@QAEXII@Z DD 0ffffffffH
	DD	00H
	DD	0ffffffffH
	DD	00H
	DD	01H
	DD	00H
	DD	01H
	DD	00H
__ehfuncinfo$?_Copy@?$basic_string@DU?$char_traits@D@std@@V?$allocator@D@2@@std@@QAEXII@Z DD 019930522H
	DD	04H
	DD	FLAT:__unwindtable$?_Copy@?$basic_string@DU?$char_traits@D@std@@V?$allocator@D@2@@std@@QAEXII@Z
	DD	02H
	DD	FLAT:__tryblocktable$?_Copy@?$basic_string@DU?$char_traits@D@std@@V?$allocator@D@2@@std@@QAEXII@Z
	DD	2 DUP(00H)
	DD	00H
	DD	01H
__tryblocktable$?_Copy@?$basic_string@DU?$char_traits@D@std@@V?$allocator@D@2@@std@@QAEXII@Z DD 02H
	DD	02H
	DD	03H
	DD	01H
	DD	FLAT:__catchsym$?_Copy@?$basic_string@DU?$char_traits@D@std@@V?$allocator@D@2@@std@@QAEXII@Z$4
	DD	00H
	DD	00H
	DD	03H
	DD	01H
	DD	FLAT:__catchsym$?_Copy@?$basic_string@DU?$char_traits@D@std@@V?$allocator@D@2@@std@@QAEXII@Z$5
xdata$x	ENDS
CRT$XCU	SEGMENT
_allocator_arg$initializer$ DD FLAT:??__Eallocator_arg@std@@YAXXZ
CRT$XCU	ENDS
;	COMDAT CRT$XCU
CRT$XCU	SEGMENT
?_Generic_object$initializer$@?$_Error_objects@H@std@@2P6AXXZA DD FLAT:??__E?_Generic_object@?$_Error_objects@H@std@@2V_Generic_error_category@2@A@@YAXXZ ; std::_Error_objects<int>::_Generic_object$initializer$
CRT$XCU	ENDS
;	COMDAT CRT$XCU
CRT$XCU	SEGMENT
?_Iostream_object$initializer$@?$_Error_objects@H@std@@2P6AXXZA DD FLAT:??__E?_Iostream_object@?$_Error_objects@H@std@@2V_Iostream_error_category@2@A@@YAXXZ ; std::_Error_objects<int>::_Iostream_object$initializer$
CRT$XCU	ENDS
;	COMDAT CRT$XCU
CRT$XCU	SEGMENT
?_System_object$initializer$@?$_Error_objects@H@std@@2P6AXXZA DD FLAT:??__E?_System_object@?$_Error_objects@H@std@@2V_System_error_category@2@A@@YAXXZ ; std::_Error_objects<int>::_System_object$initializer$
CRT$XCU	ENDS
;	COMDAT CRT$XCU
CRT$XCU	SEGMENT
?id$initializer$@?$num_put@DV?$back_insert_iterator@V?$basic_string@DU?$char_traits@D@std@@V?$allocator@D@2@@std@@@std@@@std@@2P6AXXZA DD FLAT:??__E?id@?$num_put@DV?$back_insert_iterator@V?$basic_string@DU?$char_traits@D@std@@V?$allocator@D@2@@std@@@std@@@std@@2V0locale@2@A@@YAXXZ ; std::num_put<char,std::back_insert_iterator<std::basic_string<char,std::char_traits<char>,std::allocator<char> > > >::id$initializer$
CRT$XCU	ENDS
;	COMDAT CRT$XCU
CRT$XCU	SEGMENT
?id$initializer$@?$num_put@_WV?$back_insert_iterator@V?$basic_string@_WU?$char_traits@_W@std@@V?$allocator@_W@2@@std@@@std@@@std@@2P6AXXZA DD FLAT:??__E?id@?$num_put@_WV?$back_insert_iterator@V?$basic_string@_WU?$char_traits@_W@std@@V?$allocator@_W@2@@std@@@std@@@std@@2V0locale@2@A@@YAXXZ ; std::num_put<wchar_t,std::back_insert_iterator<std::basic_string<wchar_t,std::char_traits<wchar_t>,std::allocator<wchar_t> > > >::id$initializer$
CRT$XCU	ENDS
;	COMDAT CRT$XCU
CRT$XCU	SEGMENT
?id$initializer$@?$numpunct@D@std@@2P6AXXZA DD FLAT:??__E?id@?$numpunct@D@std@@2V0locale@2@A@@YAXXZ ; std::numpunct<char>::id$initializer$
CRT$XCU	ENDS
;	COMDAT CRT$XCU
CRT$XCU	SEGMENT
?id$initializer$@?$numpunct@_W@std@@2P6AXXZA DD FLAT:??__E?id@?$numpunct@_W@std@@2V0locale@2@A@@YAXXZ ; std::numpunct<wchar_t>::id$initializer$
CRT$XCU	ENDS
; Function compile flags: /Odtp
; File c:\program files (x86)\microsoft visual studio 11.0\vc\include\xmemory0
;	COMDAT ??$destroy@PAD@?$allocator@D@std@@QAEXPAPAD@Z
_TEXT	SEGMENT
_this$ = -4						; size = 4
__Ptr$ = 8						; size = 4
??$destroy@PAD@?$allocator@D@std@@QAEXPAPAD@Z PROC	; std::allocator<char>::destroy<char *>, COMDAT
; _this$ = ecx

; 621  : 		void destroy(_Uty *_Ptr)

	push	ebp
	mov	ebp, esp
	push	ecx
	mov	DWORD PTR _this$[ebp], ecx

; 622  : 		{	// destroy object at _Ptr
; 623  : 		_Ptr->~_Uty();
; 624  : 		}

	mov	esp, ebp
	pop	ebp
	ret	4
??$destroy@PAD@?$allocator@D@std@@QAEXPAPAD@Z ENDP	; std::allocator<char>::destroy<char *>
_TEXT	ENDS
; Function compile flags: /Odtp
; File c:\program files (x86)\microsoft visual studio 11.0\vc\include\xmemory0
;	COMDAT ??$construct@PADAAPAD@?$allocator@D@std@@QAEXPAPADAAPAD@Z
_TEXT	SEGMENT
$T2 = -28						; size = 4
_this$ = -24						; size = 4
tv73 = -20						; size = 4
$T3 = -16						; size = 4
__$EHRec$ = -12						; size = 12
__Ptr$ = 8						; size = 4
__V0$ = 12						; size = 4
??$construct@PADAAPAD@?$allocator@D@std@@QAEXPAPADAAPAD@Z PROC ; std::allocator<char>::construct<char *,char * &>, COMDAT
; _this$ = ecx

; 617  : _VARIADIC_EXPAND_0X(_ALLOC_MEMBER_CONSTRUCT, , , , )

	push	ebp
	mov	ebp, esp
	push	-1
	push	__ehhandler$??$construct@PADAAPAD@?$allocator@D@std@@QAEXPAPADAAPAD@Z
	mov	eax, DWORD PTR fs:0
	push	eax
	sub	esp, 16					; 00000010H
	mov	eax, DWORD PTR ___security_cookie
	xor	eax, ebp
	push	eax
	lea	eax, DWORD PTR __$EHRec$[ebp]
	mov	DWORD PTR fs:0, eax
	mov	DWORD PTR _this$[ebp], ecx
	mov	eax, DWORD PTR __Ptr$[ebp]
	push	eax
	push	4
	call	??2@YAPAXIPAX@Z				; operator new
	add	esp, 8
	mov	DWORD PTR $T3[ebp], eax
	mov	DWORD PTR __$EHRec$[ebp+8], 0
	cmp	DWORD PTR $T3[ebp], 0
	je	SHORT $LN3@construct
	mov	ecx, DWORD PTR __V0$[ebp]
	push	ecx
	call	??$forward@AAPAD@std@@YAAAPADAAPAD@Z	; std::forward<char * &>
	add	esp, 4
	mov	edx, DWORD PTR $T3[ebp]
	mov	eax, DWORD PTR [eax]
	mov	DWORD PTR [edx], eax
	mov	ecx, DWORD PTR $T3[ebp]
	mov	DWORD PTR tv73[ebp], ecx
	jmp	SHORT $LN4@construct
$LN3@construct:
	mov	DWORD PTR tv73[ebp], 0
$LN4@construct:
	mov	edx, DWORD PTR tv73[ebp]
	mov	DWORD PTR $T2[ebp], edx
	mov	DWORD PTR __$EHRec$[ebp+8], -1
	mov	ecx, DWORD PTR __$EHRec$[ebp]
	mov	DWORD PTR fs:0, ecx
	pop	ecx
	mov	esp, ebp
	pop	ebp
	ret	8
_TEXT	ENDS
;	COMDAT text$x
text$x	SEGMENT
__unwindfunclet$??$construct@PADAAPAD@?$allocator@D@std@@QAEXPAPADAAPAD@Z$0:
	mov	eax, DWORD PTR __Ptr$[ebp]
	push	eax
	mov	eax, DWORD PTR $T3[ebp]
	push	eax
	call	??3@YAXPAX0@Z				; operator delete
	add	esp, 8
	ret	0
__ehhandler$??$construct@PADAAPAD@?$allocator@D@std@@QAEXPAPADAAPAD@Z:
	mov	edx, DWORD PTR [esp+8]
	lea	eax, DWORD PTR [edx+12]
	mov	ecx, DWORD PTR [edx-20]
	xor	ecx, eax
	call	@__security_check_cookie@4
	mov	eax, OFFSET __ehfuncinfo$??$construct@PADAAPAD@?$allocator@D@std@@QAEXPAPADAAPAD@Z
	jmp	___CxxFrameHandler3
text$x	ENDS
??$construct@PADAAPAD@?$allocator@D@std@@QAEXPAPADAAPAD@Z ENDP ; std::allocator<char>::construct<char *,char * &>
; Function compile flags: /Odtp
; File c:\program files (x86)\microsoft visual studio 11.0\vc\include\xlocnum
;	COMDAT ??__E?id@?$numpunct@_W@std@@2V0locale@2@A@@YAXXZ
text$yc	SEGMENT
??__E?id@?$numpunct@_W@std@@2V0locale@2@A@@YAXXZ PROC	; `dynamic initializer for 'std::numpunct<wchar_t>::id'', COMDAT

; 155  : 		void _Getvals(wchar_t, const lconv *_Ptr, _Locinfo::_Cvtvec)

	push	ebp
	mov	ebp, esp
	push	0
	mov	ecx, OFFSET ?id@?$numpunct@_W@std@@2V0locale@2@A ; std::numpunct<wchar_t>::id
	call	??0id@locale@std@@QAE@I@Z		; std::locale::id::id
	pop	ebp
	ret	0
??__E?id@?$numpunct@_W@std@@2V0locale@2@A@@YAXXZ ENDP	; `dynamic initializer for 'std::numpunct<wchar_t>::id''
text$yc	ENDS
; Function compile flags: /Odtp
; File c:\program files (x86)\microsoft visual studio 11.0\vc\include\xlocnum
;	COMDAT ??__E?id@?$numpunct@D@std@@2V0locale@2@A@@YAXXZ
text$yc	SEGMENT
??__E?id@?$numpunct@D@std@@2V0locale@2@A@@YAXXZ PROC	; `dynamic initializer for 'std::numpunct<char>::id'', COMDAT

; 155  : 		void _Getvals(wchar_t, const lconv *_Ptr, _Locinfo::_Cvtvec)

	push	ebp
	mov	ebp, esp
	push	0
	mov	ecx, OFFSET ?id@?$numpunct@D@std@@2V0locale@2@A ; std::numpunct<char>::id
	call	??0id@locale@std@@QAE@I@Z		; std::locale::id::id
	pop	ebp
	ret	0
??__E?id@?$numpunct@D@std@@2V0locale@2@A@@YAXXZ ENDP	; `dynamic initializer for 'std::numpunct<char>::id''
text$yc	ENDS
; Function compile flags: /Odtp
; File c:\program files (x86)\microsoft visual studio 11.0\vc\include\xlocnum
;	COMDAT ??__E?id@?$num_put@_WV?$back_insert_iterator@V?$basic_string@_WU?$char_traits@_W@std@@V?$allocator@_W@2@@std@@@std@@@std@@2V0locale@2@A@@YAXXZ
text$yc	SEGMENT
??__E?id@?$num_put@_WV?$back_insert_iterator@V?$basic_string@_WU?$char_traits@_W@std@@V?$allocator@_W@2@@std@@@std@@@std@@2V0locale@2@A@@YAXXZ PROC ; `dynamic initializer for 'std::num_put<wchar_t,std::back_insert_iterator<std::basic_string<wchar_t,std::char_traits<wchar_t>,std::allocator<wchar_t> > > >::id'', COMDAT

; 155  : 		void _Getvals(wchar_t, const lconv *_Ptr, _Locinfo::_Cvtvec)

	push	ebp
	mov	ebp, esp
	push	0
	mov	ecx, OFFSET ?id@?$num_put@_WV?$back_insert_iterator@V?$basic_string@_WU?$char_traits@_W@std@@V?$allocator@_W@2@@std@@@std@@@std@@2V0locale@2@A ; std::num_put<wchar_t,std::back_insert_iterator<std::basic_string<wchar_t,std::char_traits<wchar_t>,std::allocator<wchar_t> > > >::id
	call	??0id@locale@std@@QAE@I@Z		; std::locale::id::id
	pop	ebp
	ret	0
??__E?id@?$num_put@_WV?$back_insert_iterator@V?$basic_string@_WU?$char_traits@_W@std@@V?$allocator@_W@2@@std@@@std@@@std@@2V0locale@2@A@@YAXXZ ENDP ; `dynamic initializer for 'std::num_put<wchar_t,std::back_insert_iterator<std::basic_string<wchar_t,std::char_traits<wchar_t>,std::allocator<wchar_t> > > >::id''
text$yc	ENDS
; Function compile flags: /Odtp
; File c:\program files (x86)\microsoft visual studio 11.0\vc\include\xlocnum
;	COMDAT ??__E?id@?$num_put@DV?$back_insert_iterator@V?$basic_string@DU?$char_traits@D@std@@V?$allocator@D@2@@std@@@std@@@std@@2V0locale@2@A@@YAXXZ
text$yc	SEGMENT
??__E?id@?$num_put@DV?$back_insert_iterator@V?$basic_string@DU?$char_traits@D@std@@V?$allocator@D@2@@std@@@std@@@std@@2V0locale@2@A@@YAXXZ PROC ; `dynamic initializer for 'std::num_put<char,std::back_insert_iterator<std::basic_string<char,std::char_traits<char>,std::allocator<char> > > >::id'', COMDAT

; 155  : 		void _Getvals(wchar_t, const lconv *_Ptr, _Locinfo::_Cvtvec)

	push	ebp
	mov	ebp, esp
	push	0
	mov	ecx, OFFSET ?id@?$num_put@DV?$back_insert_iterator@V?$basic_string@DU?$char_traits@D@std@@V?$allocator@D@2@@std@@@std@@@std@@2V0locale@2@A ; std::num_put<char,std::back_insert_iterator<std::basic_string<char,std::char_traits<char>,std::allocator<char> > > >::id
	call	??0id@locale@std@@QAE@I@Z		; std::locale::id::id
	pop	ebp
	ret	0
??__E?id@?$num_put@DV?$back_insert_iterator@V?$basic_string@DU?$char_traits@D@std@@V?$allocator@D@2@@std@@@std@@@std@@2V0locale@2@A@@YAXXZ ENDP ; `dynamic initializer for 'std::num_put<char,std::back_insert_iterator<std::basic_string<char,std::char_traits<char>,std::allocator<char> > > >::id''
text$yc	ENDS
; Function compile flags: /Odtp
; File c:\program files (x86)\microsoft visual studio 11.0\vc\include\xmemory0
;	COMDAT ??$destroy@PAD@?$allocator_traits@V?$allocator@D@std@@@std@@SAXAAV?$allocator@D@1@PAPAD@Z
_TEXT	SEGMENT
__Al$ = 8						; size = 4
__Ptr$ = 12						; size = 4
??$destroy@PAD@?$allocator_traits@V?$allocator@D@std@@@std@@SAXAAV?$allocator@D@1@PAPAD@Z PROC ; std::allocator_traits<std::allocator<char> >::destroy<char *>, COMDAT

; 755  : 		static void destroy(_Alloc& _Al, _Uty *_Ptr)

	push	ebp
	mov	ebp, esp

; 756  : 		{	// destroy object at _Ptr
; 757  : 		_Al.destroy(_Ptr);

	mov	eax, DWORD PTR __Ptr$[ebp]
	push	eax
	mov	ecx, DWORD PTR __Al$[ebp]
	call	??$destroy@PAD@?$allocator@D@std@@QAEXPAPAD@Z ; std::allocator<char>::destroy<char *>

; 758  : 		}

	pop	ebp
	ret	0
??$destroy@PAD@?$allocator_traits@V?$allocator@D@std@@@std@@SAXAAV?$allocator@D@1@PAPAD@Z ENDP ; std::allocator_traits<std::allocator<char> >::destroy<char *>
_TEXT	ENDS
; Function compile flags: /Odtp
; File c:\program files (x86)\microsoft visual studio 11.0\vc\include\xmemory0
;	COMDAT ??$construct@PADAAPAD@?$allocator_traits@V?$allocator@D@std@@@std@@SAXAAV?$allocator@D@1@PAPADAAPAD@Z
_TEXT	SEGMENT
__Al$ = 8						; size = 4
__Ptr$ = 12						; size = 4
__V0$ = 16						; size = 4
??$construct@PADAAPAD@?$allocator_traits@V?$allocator@D@std@@@std@@SAXAAV?$allocator@D@1@PAPADAAPAD@Z PROC ; std::allocator_traits<std::allocator<char> >::construct<char *,char * &>, COMDAT

; 751  : _VARIADIC_EXPAND_0X(_ALLOC_TRAITS_SPECIAL_CONSTRUCT, , , , )

	push	ebp
	mov	ebp, esp
	mov	eax, DWORD PTR __V0$[ebp]
	push	eax
	call	??$forward@AAPAD@std@@YAAAPADAAPAD@Z	; std::forward<char * &>
	add	esp, 4
	push	eax
	mov	ecx, DWORD PTR __Ptr$[ebp]
	push	ecx
	mov	ecx, DWORD PTR __Al$[ebp]
	call	??$construct@PADAAPAD@?$allocator@D@std@@QAEXPAPADAAPAD@Z ; std::allocator<char>::construct<char *,char * &>
	pop	ebp
	ret	0
??$construct@PADAAPAD@?$allocator_traits@V?$allocator@D@std@@@std@@SAXAAV?$allocator@D@1@PAPADAAPAD@Z ENDP ; std::allocator_traits<std::allocator<char> >::construct<char *,char * &>
_TEXT	ENDS
; Function compile flags: /Odtp
; File c:\program files (x86)\microsoft visual studio 11.0\vc\include\type_traits
;	COMDAT ??$forward@AAPAD@std@@YAAAPADAAPAD@Z
_TEXT	SEGMENT
__Arg$ = 8						; size = 4
??$forward@AAPAD@std@@YAAAPADAAPAD@Z PROC		; std::forward<char * &>, COMDAT

; 1775 : 	{	// forward an lvalue

	push	ebp
	mov	ebp, esp

; 1776 : 	return (static_cast<_Ty&&>(_Arg));

	mov	eax, DWORD PTR __Arg$[ebp]

; 1777 : 	}

	pop	ebp
	ret	0
??$forward@AAPAD@std@@YAAAPADAAPAD@Z ENDP		; std::forward<char * &>
_TEXT	ENDS
; Function compile flags: /Odtp
;	COMDAT ??__F?_System_object@?$_Error_objects@H@std@@2V_System_error_category@2@A@@YAXXZ
text$yd	SEGMENT
??__F?_System_object@?$_Error_objects@H@std@@2V_System_error_category@2@A@@YAXXZ PROC ; `dynamic atexit destructor for 'std::_Error_objects<int>::_System_object'', COMDAT
	push	ebp
	mov	ebp, esp
	mov	ecx, OFFSET ?_System_object@?$_Error_objects@H@std@@2V_System_error_category@2@A ; std::_Error_objects<int>::_System_object
	call	??1_System_error_category@std@@UAE@XZ
	pop	ebp
	ret	0
??__F?_System_object@?$_Error_objects@H@std@@2V_System_error_category@2@A@@YAXXZ ENDP ; `dynamic atexit destructor for 'std::_Error_objects<int>::_System_object''
text$yd	ENDS
; Function compile flags: /Odtp
; File c:\program files (x86)\microsoft visual studio 11.0\vc\include\xmemory0
;	COMDAT ??__E?_System_object@?$_Error_objects@H@std@@2V_System_error_category@2@A@@YAXXZ
text$yc	SEGMENT
??__E?_System_object@?$_Error_objects@H@std@@2V_System_error_category@2@A@@YAXXZ PROC ; `dynamic initializer for 'std::_Error_objects<int>::_System_object'', COMDAT

; 627  : 		{	// estimate maximum array size

	push	ebp
	mov	ebp, esp
	mov	ecx, OFFSET ?_System_object@?$_Error_objects@H@std@@2V_System_error_category@2@A ; std::_Error_objects<int>::_System_object
	call	??0_System_error_category@std@@QAE@XZ	; std::_System_error_category::_System_error_category
	push	OFFSET ??__F?_System_object@?$_Error_objects@H@std@@2V_System_error_category@2@A@@YAXXZ ; `dynamic atexit destructor for 'std::_Error_objects<int>::_System_object''
	call	_atexit
	add	esp, 4
	pop	ebp
	ret	0
??__E?_System_object@?$_Error_objects@H@std@@2V_System_error_category@2@A@@YAXXZ ENDP ; `dynamic initializer for 'std::_Error_objects<int>::_System_object''
text$yc	ENDS
; Function compile flags: /Odtp
;	COMDAT ??__F?_Iostream_object@?$_Error_objects@H@std@@2V_Iostream_error_category@2@A@@YAXXZ
text$yd	SEGMENT
??__F?_Iostream_object@?$_Error_objects@H@std@@2V_Iostream_error_category@2@A@@YAXXZ PROC ; `dynamic atexit destructor for 'std::_Error_objects<int>::_Iostream_object'', COMDAT
	push	ebp
	mov	ebp, esp
	mov	ecx, OFFSET ?_Iostream_object@?$_Error_objects@H@std@@2V_Iostream_error_category@2@A ; std::_Error_objects<int>::_Iostream_object
	call	??1_Iostream_error_category@std@@UAE@XZ
	pop	ebp
	ret	0
??__F?_Iostream_object@?$_Error_objects@H@std@@2V_Iostream_error_category@2@A@@YAXXZ ENDP ; `dynamic atexit destructor for 'std::_Error_objects<int>::_Iostream_object''
text$yd	ENDS
; Function compile flags: /Odtp
; File c:\program files (x86)\microsoft visual studio 11.0\vc\include\xmemory0
;	COMDAT ??__E?_Iostream_object@?$_Error_objects@H@std@@2V_Iostream_error_category@2@A@@YAXXZ
text$yc	SEGMENT
??__E?_Iostream_object@?$_Error_objects@H@std@@2V_Iostream_error_category@2@A@@YAXXZ PROC ; `dynamic initializer for 'std::_Error_objects<int>::_Iostream_object'', COMDAT

; 627  : 		{	// estimate maximum array size

	push	ebp
	mov	ebp, esp
	mov	ecx, OFFSET ?_Iostream_object@?$_Error_objects@H@std@@2V_Iostream_error_category@2@A ; std::_Error_objects<int>::_Iostream_object
	call	??0_Iostream_error_category@std@@QAE@XZ	; std::_Iostream_error_category::_Iostream_error_category
	push	OFFSET ??__F?_Iostream_object@?$_Error_objects@H@std@@2V_Iostream_error_category@2@A@@YAXXZ ; `dynamic atexit destructor for 'std::_Error_objects<int>::_Iostream_object''
	call	_atexit
	add	esp, 4
	pop	ebp
	ret	0
??__E?_Iostream_object@?$_Error_objects@H@std@@2V_Iostream_error_category@2@A@@YAXXZ ENDP ; `dynamic initializer for 'std::_Error_objects<int>::_Iostream_object''
text$yc	ENDS
; Function compile flags: /Odtp
;	COMDAT ??__F?_Generic_object@?$_Error_objects@H@std@@2V_Generic_error_category@2@A@@YAXXZ
text$yd	SEGMENT
??__F?_Generic_object@?$_Error_objects@H@std@@2V_Generic_error_category@2@A@@YAXXZ PROC ; `dynamic atexit destructor for 'std::_Error_objects<int>::_Generic_object'', COMDAT
	push	ebp
	mov	ebp, esp
	mov	ecx, OFFSET ?_Generic_object@?$_Error_objects@H@std@@2V_Generic_error_category@2@A ; std::_Error_objects<int>::_Generic_object
	call	??1_Generic_error_category@std@@UAE@XZ
	pop	ebp
	ret	0
??__F?_Generic_object@?$_Error_objects@H@std@@2V_Generic_error_category@2@A@@YAXXZ ENDP ; `dynamic atexit destructor for 'std::_Error_objects<int>::_Generic_object''
text$yd	ENDS
; Function compile flags: /Odtp
; File c:\program files (x86)\microsoft visual studio 11.0\vc\include\xmemory0
;	COMDAT ??__E?_Generic_object@?$_Error_objects@H@std@@2V_Generic_error_category@2@A@@YAXXZ
text$yc	SEGMENT
??__E?_Generic_object@?$_Error_objects@H@std@@2V_Generic_error_category@2@A@@YAXXZ PROC ; `dynamic initializer for 'std::_Error_objects<int>::_Generic_object'', COMDAT

; 627  : 		{	// estimate maximum array size

	push	ebp
	mov	ebp, esp
	mov	ecx, OFFSET ?_Generic_object@?$_Error_objects@H@std@@2V_Generic_error_category@2@A ; std::_Error_objects<int>::_Generic_object
	call	??0_Generic_error_category@std@@QAE@XZ	; std::_Generic_error_category::_Generic_error_category
	push	OFFSET ??__F?_Generic_object@?$_Error_objects@H@std@@2V_Generic_error_category@2@A@@YAXXZ ; `dynamic atexit destructor for 'std::_Error_objects<int>::_Generic_object''
	call	_atexit
	add	esp, 4
	pop	ebp
	ret	0
??__E?_Generic_object@?$_Error_objects@H@std@@2V_Generic_error_category@2@A@@YAXXZ ENDP ; `dynamic initializer for 'std::_Error_objects<int>::_Generic_object''
text$yc	ENDS
; Function compile flags: /Odtp
; File c:\program files (x86)\microsoft visual studio 11.0\vc\include\xmemory0
;	COMDAT ??$_Allocate@D@std@@YAPADIPAD@Z
_TEXT	SEGMENT
__Ptr$ = -4						; size = 4
__Count$ = 8						; size = 4
___formal$ = 12						; size = 4
??$_Allocate@D@std@@YAPADIPAD@Z PROC			; std::_Allocate<char>, COMDAT

; 22   : 	{	// allocate storage for _Count elements of type _Ty

	push	ebp
	mov	ebp, esp
	push	ecx

; 23   : 	void *_Ptr = 0;

	mov	DWORD PTR __Ptr$[ebp], 0

; 24   : 
; 25   : 	if (_Count == 0)

	cmp	DWORD PTR __Count$[ebp], 0
	jne	SHORT $LN4@Allocate

; 26   : 		;
; 27   : 	else if (((size_t)(-1) / sizeof (_Ty) < _Count)

	jmp	SHORT $LN3@Allocate
$LN4@Allocate:

; 28   : 		|| (_Ptr = ::operator new(_Count * sizeof (_Ty))) == 0)

	cmp	DWORD PTR __Count$[ebp], -1
	ja	SHORT $LN1@Allocate
	mov	eax, DWORD PTR __Count$[ebp]
	push	eax
	call	??2@YAPAXI@Z				; operator new
	add	esp, 4
	mov	DWORD PTR __Ptr$[ebp], eax
	cmp	DWORD PTR __Ptr$[ebp], 0
	jne	SHORT $LN3@Allocate
$LN1@Allocate:

; 29   : 		_Xbad_alloc();	// report no memory

	call	?_Xbad_alloc@std@@YAXXZ			; std::_Xbad_alloc
$LN3@Allocate:

; 30   : 
; 31   : 	return ((_Ty *)_Ptr);

	mov	eax, DWORD PTR __Ptr$[ebp]
$LN6@Allocate:

; 32   : 	}

	mov	esp, ebp
	pop	ebp
	ret	0
??$_Allocate@D@std@@YAPADIPAD@Z ENDP			; std::_Allocate<char>
_TEXT	ENDS
; Function compile flags: /Odtp
; File c:\program files (x86)\microsoft visual studio 11.0\vc\include\xstddef
;	COMDAT ??$addressof@D@std@@YAPADAAD@Z
_TEXT	SEGMENT
__Val$ = 8						; size = 4
??$addressof@D@std@@YAPADAAD@Z PROC			; std::addressof<char>, COMDAT

; 85   : 	{	// return address of _Val

	push	ebp
	mov	ebp, esp

; 86   : 	return (reinterpret_cast<_Ty *>(
; 87   : 		(&const_cast<char&>(
; 88   : 		reinterpret_cast<const volatile char&>(_Val)))));

	mov	eax, DWORD PTR __Val$[ebp]

; 89   : 	}

	pop	ebp
	ret	0
??$addressof@D@std@@YAPADAAD@Z ENDP			; std::addressof<char>
_TEXT	ENDS
; Function compile flags: /Odtp
; File c:\program files (x86)\microsoft visual studio 11.0\vc\include\xmemory0
;	COMDAT ??$destroy@PAD@?$_Wrap_alloc@V?$allocator@D@std@@@std@@QAEXPAPAD@Z
_TEXT	SEGMENT
_this$ = -4						; size = 4
__Ptr$ = 8						; size = 4
??$destroy@PAD@?$_Wrap_alloc@V?$allocator@D@std@@@std@@QAEXPAPAD@Z PROC ; std::_Wrap_alloc<std::allocator<char> >::destroy<char *>, COMDAT
; _this$ = ecx

; 907  : 		void destroy(_Ty *_Ptr)

	push	ebp
	mov	ebp, esp
	push	ecx
	mov	DWORD PTR _this$[ebp], ecx

; 908  : 		{	// destroy object at _Ptr
; 909  : 		_Mytraits::destroy(*this, _Ptr);

	mov	eax, DWORD PTR __Ptr$[ebp]
	push	eax
	mov	ecx, DWORD PTR _this$[ebp]
	push	ecx
	call	??$destroy@PAD@?$allocator_traits@V?$allocator@D@std@@@std@@SAXAAV?$allocator@D@1@PAPAD@Z ; std::allocator_traits<std::allocator<char> >::destroy<char *>
	add	esp, 8

; 910  : 		}

	mov	esp, ebp
	pop	ebp
	ret	4
??$destroy@PAD@?$_Wrap_alloc@V?$allocator@D@std@@@std@@QAEXPAPAD@Z ENDP ; std::_Wrap_alloc<std::allocator<char> >::destroy<char *>
_TEXT	ENDS
; Function compile flags: /Odtp
; File c:\program files (x86)\microsoft visual studio 11.0\vc\include\xmemory0
;	COMDAT ??$construct@PADAAPAD@?$_Wrap_alloc@V?$allocator@D@std@@@std@@QAEXPAPADAAPAD@Z
_TEXT	SEGMENT
_this$ = -4						; size = 4
__Ptr$ = 8						; size = 4
__V0$ = 12						; size = 4
??$construct@PADAAPAD@?$_Wrap_alloc@V?$allocator@D@std@@@std@@QAEXPAPADAAPAD@Z PROC ; std::_Wrap_alloc<std::allocator<char> >::construct<char *,char * &>, COMDAT
; _this$ = ecx

; 903  : _VARIADIC_EXPAND_0X(_WRAP_ALLOC_CONSTRUCT, , , , )

	push	ebp
	mov	ebp, esp
	push	ecx
	mov	DWORD PTR _this$[ebp], ecx
	mov	eax, DWORD PTR __V0$[ebp]
	push	eax
	call	??$forward@AAPAD@std@@YAAAPADAAPAD@Z	; std::forward<char * &>
	add	esp, 4
	push	eax
	mov	ecx, DWORD PTR __Ptr$[ebp]
	push	ecx
	mov	edx, DWORD PTR _this$[ebp]
	push	edx
	call	??$construct@PADAAPAD@?$allocator_traits@V?$allocator@D@std@@@std@@SAXAAV?$allocator@D@1@PAPADAAPAD@Z ; std::allocator_traits<std::allocator<char> >::construct<char *,char * &>
	add	esp, 12					; 0000000cH
	mov	esp, ebp
	pop	ebp
	ret	8
??$construct@PADAAPAD@?$_Wrap_alloc@V?$allocator@D@std@@@std@@QAEXPAPADAAPAD@Z ENDP ; std::_Wrap_alloc<std::allocator<char> >::construct<char *,char * &>
_TEXT	ENDS
; Function compile flags: /Odtp
; File c:\users\zhitao li\documents\visual studio 2012\projects\freefalcon\sim\simlib\simmover.cpp
_TEXT	SEGMENT
?GraphicsDataPoolReleaseStorage@@YAXXZ PROC		; GraphicsDataPoolReleaseStorage

; 56   : {

	push	ebp
	mov	ebp, esp

; 57   : #ifdef USE_SH_POOLS
; 58   :    MemPoolFree (graphicsDOFDataPool);
; 59   : #else
; 60   : 	HeapDestroy(graphicsDOFDataPool);

	mov	eax, DWORD PTR ?graphicsDOFDataPool@@3PAXA ; graphicsDOFDataPool
	push	eax
	call	DWORD PTR __imp__HeapDestroy@4

; 61   : #endif
; 62   : }

	pop	ebp
	ret	0
?GraphicsDataPoolReleaseStorage@@YAXXZ ENDP		; GraphicsDataPoolReleaseStorage
_TEXT	ENDS
; Function compile flags: /Odtp
; File c:\users\zhitao li\documents\visual studio 2012\projects\freefalcon\sim\simlib\simmover.cpp
_TEXT	SEGMENT
?GraphicsDataPoolInitializeStorage@@YAXXZ PROC		; GraphicsDataPoolInitializeStorage

; 47   : {

	push	ebp
	mov	ebp, esp

; 48   : #ifdef USE_SH_POOLS
; 49   :    graphicsDOFDataPool = MemPoolInit( MEM_POOL_DEFAULT | MEM_POOL_SERIALIZE);
; 50   : #else
; 51   :    graphicsDOFDataPool = HeapCreate(NULL, 0, 0);

	push	0
	push	0
	push	0
	call	DWORD PTR __imp__HeapCreate@12
	mov	DWORD PTR ?graphicsDOFDataPool@@3PAXA, eax ; graphicsDOFDataPool

; 52   : #endif
; 53   : }

	pop	ebp
	ret	0
?GraphicsDataPoolInitializeStorage@@YAXXZ ENDP		; GraphicsDataPoolInitializeStorage
_TEXT	ENDS
; Function compile flags: /Odtp
; File c:\users\zhitao li\documents\visual studio 2012\projects\freefalcon\sim\simlib\simmover.cpp
_TEXT	SEGMENT
_heap$ = 8						; size = 4
_dwSize$ = 12						; size = 4
_dwFlags$ = 16						; size = 4
?MemAlloc2HeapAlloc@@YAPAXPAXKK@Z PROC			; MemAlloc2HeapAlloc

; 41   : {

	push	ebp
	mov	ebp, esp

; 42   : 	return HeapAlloc(heap, dwFlags, dwSize);

	mov	eax, DWORD PTR _dwSize$[ebp]
	push	eax
	mov	ecx, DWORD PTR _dwFlags$[ebp]
	push	ecx
	mov	edx, DWORD PTR _heap$[ebp]
	push	edx
	call	DWORD PTR __imp__HeapAlloc@12

; 43   : }

	pop	ebp
	ret	0
?MemAlloc2HeapAlloc@@YAPAXPAXKK@Z ENDP			; MemAlloc2HeapAlloc
_TEXT	ENDS
; Function compile flags: /Odtp
; File c:\users\zhitao li\documents\visual studio 2012\projects\freefalcon\campaign\include\campbase.h
;	COMDAT ?GetComponents@CampBaseClass@@QBEPAVTailInsertList@@XZ
_TEXT	SEGMENT
_this$ = -4						; size = 4
?GetComponents@CampBaseClass@@QBEPAVTailInsertList@@XZ PROC ; CampBaseClass::GetComponents, COMDAT
; _this$ = ecx

; 141  : 	TailInsertList *GetComponents() const		{	return components; }

	push	ebp
	mov	ebp, esp
	push	ecx
	mov	DWORD PTR _this$[ebp], ecx
	mov	eax, DWORD PTR _this$[ebp]
	mov	eax, DWORD PTR [eax+160]
	mov	esp, ebp
	pop	ebp
	ret	0
?GetComponents@CampBaseClass@@QBEPAVTailInsertList@@XZ ENDP ; CampBaseClass::GetComponents
_TEXT	ENDS
; Function compile flags: /Odtp
; File c:\users\zhitao li\documents\visual studio 2012\projects\freefalcon\falclib\include\invalidbufferexception.h
;	COMDAT ?memcpychk@@YAXPAXPAPAEIPAJ@Z
_TEXT	SEGMENT
$T2 = -152						; size = 12
_s$3 = -140						; size = 24
_err$4 = -116						; size = 100
__$ArrayPad$ = -16					; size = 4
__$EHRec$ = -12						; size = 12
_dst$ = 8						; size = 4
_src$ = 12						; size = 4
_size$ = 16						; size = 4
_rem$ = 20						; size = 4
?memcpychk@@YAXPAXPAPAEIPAJ@Z PROC			; memcpychk, COMDAT

; 25   : inline void memcpychk(void *dst, VU_BYTE **src, size_t size, long *rem){

	push	ebp
	mov	ebp, esp
	push	-1
	push	__ehhandler$?memcpychk@@YAXPAXPAPAEIPAJ@Z
	mov	eax, DWORD PTR fs:0
	push	eax
	sub	esp, 140				; 0000008cH
	mov	eax, DWORD PTR ___security_cookie
	xor	eax, ebp
	mov	DWORD PTR __$ArrayPad$[ebp], eax
	push	eax
	lea	eax, DWORD PTR __$EHRec$[ebp]
	mov	DWORD PTR fs:0, eax

; 26   : 	if ((size_t)*rem < size){

	mov	eax, DWORD PTR _rem$[ebp]
	mov	ecx, DWORD PTR [eax]
	cmp	ecx, DWORD PTR _size$[ebp]
	jae	SHORT $LN1@memcpychk

; 27   : 		char err[100];
; 28   : 		sprintf(err, "Trying to write %lu bytes to %ld buffer", static_cast<unsigned long>(size), *rem);

	mov	edx, DWORD PTR _rem$[ebp]
	mov	eax, DWORD PTR [edx]
	push	eax
	mov	ecx, DWORD PTR _size$[ebp]
	push	ecx
	push	OFFSET ??_C@_0CI@MPKJAHJH@Trying?5to?5write?5?$CFlu?5bytes?5to?5?$CFld@
	lea	edx, DWORD PTR _err$4[ebp]
	push	edx
	call	_sprintf
	add	esp, 16					; 00000010H

; 29   : 		std::string s(err);

	lea	eax, DWORD PTR _err$4[ebp]
	push	eax
	lea	ecx, DWORD PTR _s$3[ebp]
	call	??0?$basic_string@DU?$char_traits@D@std@@V?$allocator@D@2@@std@@QAE@PBD@Z ; std::basic_string<char,std::char_traits<char>,std::allocator<char> >::basic_string<char,std::char_traits<char>,std::allocator<char> >
	mov	DWORD PTR __$EHRec$[ebp+8], 0

; 30   : 		throw InvalidBufferException(s);

	lea	ecx, DWORD PTR _s$3[ebp]
	push	ecx
	lea	ecx, DWORD PTR $T2[ebp]
	call	??0InvalidBufferException@@QAE@ABV?$basic_string@DU?$char_traits@D@std@@V?$allocator@D@2@@std@@@Z ; InvalidBufferException::InvalidBufferException
	push	OFFSET __TI4?AVInvalidBufferException@@
	lea	edx, DWORD PTR $T2[ebp]
	push	edx
	call	__CxxThrowException@8

; 31   : 	}

	mov	DWORD PTR __$EHRec$[ebp+8], -1
	lea	ecx, DWORD PTR _s$3[ebp]
	call	??1?$basic_string@DU?$char_traits@D@std@@V?$allocator@D@2@@std@@QAE@XZ ; std::basic_string<char,std::char_traits<char>,std::allocator<char> >::~basic_string<char,std::char_traits<char>,std::allocator<char> >
$LN1@memcpychk:

; 32   : 	memcpy(dst, *src, size);

	mov	eax, DWORD PTR _size$[ebp]
	push	eax
	mov	ecx, DWORD PTR _src$[ebp]
	mov	edx, DWORD PTR [ecx]
	push	edx
	mov	eax, DWORD PTR _dst$[ebp]
	push	eax
	call	_memcpy
	add	esp, 12					; 0000000cH

; 33   : 	*rem -= size;

	mov	ecx, DWORD PTR _rem$[ebp]
	mov	edx, DWORD PTR [ecx]
	sub	edx, DWORD PTR _size$[ebp]
	mov	eax, DWORD PTR _rem$[ebp]
	mov	DWORD PTR [eax], edx

; 34   : 	*src += size;

	mov	ecx, DWORD PTR _src$[ebp]
	mov	edx, DWORD PTR [ecx]
	add	edx, DWORD PTR _size$[ebp]
	mov	eax, DWORD PTR _src$[ebp]
	mov	DWORD PTR [eax], edx
$LN3@memcpychk:

; 35   : }

	mov	ecx, DWORD PTR __$EHRec$[ebp]
	mov	DWORD PTR fs:0, ecx
	pop	ecx
	mov	ecx, DWORD PTR __$ArrayPad$[ebp]
	xor	ecx, ebp
	call	@__security_check_cookie@4
	mov	esp, ebp
	pop	ebp
	ret	0
_TEXT	ENDS
;	COMDAT text$x
text$x	SEGMENT
__unwindfunclet$?memcpychk@@YAXPAXPAPAEIPAJ@Z$0:
	lea	ecx, DWORD PTR _s$3[ebp]
	jmp	??1?$basic_string@DU?$char_traits@D@std@@V?$allocator@D@2@@std@@QAE@XZ ; std::basic_string<char,std::char_traits<char>,std::allocator<char> >::~basic_string<char,std::char_traits<char>,std::allocator<char> >
__ehhandler$?memcpychk@@YAXPAXPAPAEIPAJ@Z:
	mov	edx, DWORD PTR [esp+8]
	lea	eax, DWORD PTR [edx+12]
	mov	ecx, DWORD PTR [edx-144]
	xor	ecx, eax
	call	@__security_check_cookie@4
	mov	ecx, DWORD PTR [edx-4]
	xor	ecx, eax
	call	@__security_check_cookie@4
	mov	eax, OFFSET __ehfuncinfo$?memcpychk@@YAXPAXPAPAEIPAJ@Z
	jmp	___CxxFrameHandler3
text$x	ENDS
?memcpychk@@YAXPAXPAPAEIPAJ@Z ENDP			; memcpychk
; Function compile flags: /Odtp
;	COMDAT ??_GInvalidBufferException@@UAEPAXI@Z
_TEXT	SEGMENT
_this$ = -4						; size = 4
___flags$ = 8						; size = 4
??_GInvalidBufferException@@UAEPAXI@Z PROC		; InvalidBufferException::`scalar deleting destructor', COMDAT
; _this$ = ecx
	push	ebp
	mov	ebp, esp
	push	ecx
	mov	DWORD PTR _this$[ebp], ecx
	mov	ecx, DWORD PTR _this$[ebp]
	call	??1InvalidBufferException@@UAE@XZ
	mov	eax, DWORD PTR ___flags$[ebp]
	and	eax, 1
	je	SHORT $LN1@scalar
	mov	ecx, DWORD PTR _this$[ebp]
	push	ecx
	call	??3@YAXPAX@Z				; operator delete
	add	esp, 4
$LN1@scalar:
	mov	eax, DWORD PTR _this$[ebp]
	mov	esp, ebp
	pop	ebp
	ret	4
??_GInvalidBufferException@@UAEPAXI@Z ENDP		; InvalidBufferException::`scalar deleting destructor'
_TEXT	ENDS
; Function compile flags: /Odtp
;	COMDAT ??0InvalidBufferException@@QAE@ABV0@@Z
_TEXT	SEGMENT
_this$ = -4						; size = 4
___that$ = 8						; size = 4
??0InvalidBufferException@@QAE@ABV0@@Z PROC		; InvalidBufferException::InvalidBufferException, COMDAT
; _this$ = ecx
	push	ebp
	mov	ebp, esp
	push	ecx
	mov	DWORD PTR _this$[ebp], ecx
	mov	eax, DWORD PTR ___that$[ebp]
	push	eax
	mov	ecx, DWORD PTR _this$[ebp]
	call	??0out_of_range@std@@QAE@ABV01@@Z
	mov	ecx, DWORD PTR _this$[ebp]
	mov	DWORD PTR [ecx], OFFSET ??_7InvalidBufferException@@6B@
	mov	eax, DWORD PTR _this$[ebp]
	mov	esp, ebp
	pop	ebp
	ret	4
??0InvalidBufferException@@QAE@ABV0@@Z ENDP		; InvalidBufferException::InvalidBufferException
_TEXT	ENDS
; Function compile flags: /Odtp
;	COMDAT ??1InvalidBufferException@@UAE@XZ
_TEXT	SEGMENT
_this$ = -4						; size = 4
??1InvalidBufferException@@UAE@XZ PROC			; InvalidBufferException::~InvalidBufferException, COMDAT
; _this$ = ecx
	push	ebp
	mov	ebp, esp
	push	ecx
	mov	DWORD PTR _this$[ebp], ecx
	mov	ecx, DWORD PTR _this$[ebp]
	call	??1out_of_range@std@@UAE@XZ
	mov	esp, ebp
	pop	ebp
	ret	0
??1InvalidBufferException@@UAE@XZ ENDP			; InvalidBufferException::~InvalidBufferException
_TEXT	ENDS
; Function compile flags: /Odtp
; File c:\users\zhitao li\documents\visual studio 2012\projects\freefalcon\falclib\include\invalidbufferexception.h
;	COMDAT ??0InvalidBufferException@@QAE@ABV?$basic_string@DU?$char_traits@D@std@@V?$allocator@D@2@@std@@@Z
_TEXT	SEGMENT
_this$ = -4						; size = 4
_msg$ = 8						; size = 4
??0InvalidBufferException@@QAE@ABV?$basic_string@DU?$char_traits@D@std@@V?$allocator@D@2@@std@@@Z PROC ; InvalidBufferException::InvalidBufferException, COMDAT
; _this$ = ecx

; 19   : 	InvalidBufferException(const std::string &msg) : out_of_range(msg){}

	push	ebp
	mov	ebp, esp
	push	ecx
	mov	DWORD PTR _this$[ebp], ecx
	mov	eax, DWORD PTR _msg$[ebp]
	push	eax
	mov	ecx, DWORD PTR _this$[ebp]
	call	??0out_of_range@std@@QAE@ABV?$basic_string@DU?$char_traits@D@std@@V?$allocator@D@2@@1@@Z ; std::out_of_range::out_of_range
	mov	ecx, DWORD PTR _this$[ebp]
	mov	DWORD PTR [ecx], OFFSET ??_7InvalidBufferException@@6B@
	mov	eax, DWORD PTR _this$[ebp]
	mov	esp, ebp
	pop	ebp
	ret	4
??0InvalidBufferException@@QAE@ABV?$basic_string@DU?$char_traits@D@std@@V?$allocator@D@2@@std@@@Z ENDP ; InvalidBufferException::InvalidBufferException
_TEXT	ENDS
; Function compile flags: /Odtp
;	COMDAT ??_GSimMoverClass@@UAEPAXI@Z
_TEXT	SEGMENT
_this$ = -4						; size = 4
___flags$ = 8						; size = 4
??_GSimMoverClass@@UAEPAXI@Z PROC			; SimMoverClass::`scalar deleting destructor', COMDAT
; _this$ = ecx
	push	ebp
	mov	ebp, esp
	push	ecx
	mov	DWORD PTR _this$[ebp], ecx
	mov	ecx, DWORD PTR _this$[ebp]
	call	??1SimMoverClass@@UAE@XZ		; SimMoverClass::~SimMoverClass
	mov	eax, DWORD PTR ___flags$[ebp]
	and	eax, 1
	je	SHORT $LN1@scalar
	mov	ecx, DWORD PTR _this$[ebp]
	push	ecx
	call	??3@YAXPAX@Z				; operator delete
	add	esp, 4
$LN1@scalar:
	mov	eax, DWORD PTR _this$[ebp]
	mov	esp, ebp
	pop	ebp
	ret	4
??_GSimMoverClass@@UAEPAXI@Z ENDP			; SimMoverClass::`scalar deleting destructor'
_TEXT	ENDS
; Function compile flags: /Odtp
; File c:\users\zhitao li\documents\visual studio 2012\projects\freefalcon\sim\include\simmover.h
;	COMDAT ?IsMover@SimMoverClass@@UAEHXZ
_TEXT	SEGMENT
_this$ = -4						; size = 4
?IsMover@SimMoverClass@@UAEHXZ PROC			; SimMoverClass::IsMover, COMDAT
; _this$ = ecx

; 145  : 	virtual int IsMover (void) {return TRUE;};

	push	ebp
	mov	ebp, esp
	push	ecx
	mov	DWORD PTR _this$[ebp], ecx
	mov	eax, 1
	mov	esp, ebp
	pop	ebp
	ret	0
?IsMover@SimMoverClass@@UAEHXZ ENDP			; SimMoverClass::IsMover
_TEXT	ENDS
; Function compile flags: /Odtp
; File c:\users\zhitao li\documents\visual studio 2012\projects\freefalcon\sim\simlib\simmover.cpp
_TEXT	SEGMENT
_this$ = -4						; size = 4
?RemovalCallback@SimMoverClass@@UAEHXZ PROC		; SimMoverClass::RemovalCallback
; _this$ = ecx

; 945  : {

	push	ebp
	mov	ebp, esp
	push	ecx
	mov	DWORD PTR _this$[ebp], ecx

; 946  : 	return SimBaseClass::RemovalCallback();

	mov	ecx, DWORD PTR _this$[ebp]
	call	?RemovalCallback@SimBaseClass@@UAEHXZ	; SimBaseClass::RemovalCallback

; 947  : }

	mov	esp, ebp
	pop	ebp
	ret	0
?RemovalCallback@SimMoverClass@@UAEHXZ ENDP		; SimMoverClass::RemovalCallback
_TEXT	ENDS
; Function compile flags: /Odtp
; File c:\users\zhitao li\documents\visual studio 2012\projects\freefalcon\sim\simlib\simmover.cpp
_TEXT	SEGMENT
_this$ = -4						; size = 4
?InsertionCallback@SimMoverClass@@UAEHXZ PROC		; SimMoverClass::InsertionCallback
; _this$ = ecx

; 940  : {

	push	ebp
	mov	ebp, esp
	push	ecx
	mov	DWORD PTR _this$[ebp], ecx

; 941  : 	return SimBaseClass::InsertionCallback();

	mov	ecx, DWORD PTR _this$[ebp]
	call	?InsertionCallback@SimBaseClass@@UAEHXZ	; SimBaseClass::InsertionCallback

; 942  : }

	mov	esp, ebp
	pop	ebp
	ret	0
?InsertionCallback@SimMoverClass@@UAEHXZ ENDP		; SimMoverClass::InsertionCallback
_TEXT	ENDS
; Function compile flags: /Odtp
; File c:\users\zhitao li\documents\visual studio 2012\projects\freefalcon\sim\simlib\simmover.cpp
_TEXT	SEGMENT
_this$ = -4						; size = 4
?ClearTarget@SimMoverClass@@QAEXXZ PROC			; SimMoverClass::ClearTarget
; _this$ = ecx

; 999  : {

	push	ebp
	mov	ebp, esp
	push	ecx
	mov	DWORD PTR _this$[ebp], ecx

; 1000 : 	if (targetPtr) {

	mov	eax, DWORD PTR _this$[ebp]
	cmp	DWORD PTR [eax+656], 0
	je	SHORT $LN2@ClearTarge

; 1001 : 		targetPtr->Release();

	mov	ecx, DWORD PTR _this$[ebp]
	mov	ecx, DWORD PTR [ecx+656]
	call	?Release@SimObjectType@@QAEXXZ		; SimObjectType::Release

; 1002 : 		targetPtr = NULL;

	mov	edx, DWORD PTR _this$[ebp]
	mov	DWORD PTR [edx+656], 0
$LN2@ClearTarge:

; 1003 : 	}
; 1004 : }

	mov	esp, ebp
	pop	ebp
	ret	0
?ClearTarget@SimMoverClass@@QAEXXZ ENDP			; SimMoverClass::ClearTarget
_TEXT	ENDS
; Function compile flags: /Odtp
; File c:\users\zhitao li\documents\visual studio 2012\projects\freefalcon\sim\simlib\simmover.cpp
_TEXT	SEGMENT
_playerAC$ = -8						; size = 4
_this$ = -4						; size = 4
_newTarget$ = 8						; size = 4
?SetTarget@SimMoverClass@@QAEXPAVSimObjectType@@@Z PROC	; SimMoverClass::SetTarget
; _this$ = ecx

; 966  : {

	push	ebp
	mov	ebp, esp
	sub	esp, 8
	mov	DWORD PTR _this$[ebp], ecx

; 967  : 	if (newTarget == targetPtr){

	mov	eax, DWORD PTR _this$[ebp]
	mov	ecx, DWORD PTR _newTarget$[ebp]
	cmp	ecx, DWORD PTR [eax+656]
	jne	SHORT $LN5@SetTarget

; 968  : 		return;

	jmp	$LN6@SetTarget
$LN5@SetTarget:

; 969  : 	}
; 970  : 
; 971  : #if FINE_INT
; 972  : 	SimMoverClass *playerAC = (SimMoverClass *)SimDriver.GetPlayerAircraft(); // FRB

	mov	ecx, OFFSET ?SimDriver@@3VSimulationDriver@@A ; SimDriver
	call	?GetPlayerAircraft@SimulationDriver@@QBEPAVAircraftClass@@XZ ; SimulationDriver::GetPlayerAircraft
	mov	DWORD PTR _playerAC$[ebp], eax

; 973  : #endif
; 974  : 
; 975  : 	if (targetPtr){

	mov	edx, DWORD PTR _this$[ebp]
	cmp	DWORD PTR [edx+656], 0
	je	SHORT $LN4@SetTarget

; 976  : #if FINE_INT
; 977  : 		// sfr: if we are targeting, remove our old from interest list...
; 978  : 		if (this == playerAC){

	mov	eax, DWORD PTR _this$[ebp]
	cmp	eax, DWORD PTR _playerAC$[ebp]
	jne	SHORT $LN3@SetTarget

; 979  : 			FalconLocalSession->RemoveFromFineInterest(targetPtr->BaseData(), false);

	push	0
	mov	ecx, DWORD PTR _this$[ebp]
	mov	ecx, DWORD PTR [ecx+656]
	call	?BaseData@SimObjectType@@QAEPAVFalconEntity@@XZ ; SimObjectType::BaseData
	push	eax
	mov	ecx, OFFSET ?vuLocalSessionEntity@@3V?$VuBin@VVuSessionEntity@@@@A ; vuLocalSessionEntity
	call	?get@?$VuBin@VVuSessionEntity@@@@QBEPAVVuSessionEntity@@XZ ; VuBin<VuSessionEntity>::get
	mov	ecx, eax
	call	?RemoveFromFineInterest@FalconSessionEntity@@QAE_NPBVFalconEntity@@_N@Z ; FalconSessionEntity::RemoveFromFineInterest
$LN3@SetTarget:

; 980  : 		}
; 981  : #endif
; 982  : 		targetPtr->Release(  );

	mov	edx, DWORD PTR _this$[ebp]
	mov	ecx, DWORD PTR [edx+656]
	call	?Release@SimObjectType@@QAEXXZ		; SimObjectType::Release
$LN4@SetTarget:

; 983  : 	}
; 984  : 	
; 985  : 	if (newTarget){

	cmp	DWORD PTR _newTarget$[ebp], 0
	je	SHORT $LN2@SetTarget

; 986  : #if FINE_INT
; 987  : 		newTarget->Reference(  );

	mov	ecx, DWORD PTR _newTarget$[ebp]
	call	?Reference@SimObjectType@@QAEXXZ	; SimObjectType::Reference

; 988  : 		// sfr: ... and add new to it
; 989  : 		if (this == playerAC){

	mov	eax, DWORD PTR _this$[ebp]
	cmp	eax, DWORD PTR _playerAC$[ebp]
	jne	SHORT $LN2@SetTarget

; 990  : 			FalconLocalSession->AddToFineInterest(newTarget->BaseData(), false);

	push	0
	mov	ecx, DWORD PTR _newTarget$[ebp]
	call	?BaseData@SimObjectType@@QAEPAVFalconEntity@@XZ ; SimObjectType::BaseData
	push	eax
	mov	ecx, OFFSET ?vuLocalSessionEntity@@3V?$VuBin@VVuSessionEntity@@@@A ; vuLocalSessionEntity
	call	?get@?$VuBin@VVuSessionEntity@@@@QBEPAVVuSessionEntity@@XZ ; VuBin<VuSessionEntity>::get
	mov	ecx, eax
	call	?AddToFineInterest@FalconSessionEntity@@QAE_NPAVFalconEntity@@_N@Z ; FalconSessionEntity::AddToFineInterest
$LN2@SetTarget:

; 991  : 		}
; 992  : #endif
; 993  : 	}
; 994  : 	
; 995  : 	targetPtr = newTarget;

	mov	ecx, DWORD PTR _this$[ebp]
	mov	edx, DWORD PTR _newTarget$[ebp]
	mov	DWORD PTR [ecx+656], edx
$LN6@SetTarget:

; 996  : }

	mov	esp, ebp
	pop	ebp
	ret	4
?SetTarget@SimMoverClass@@QAEXPAVSimObjectType@@@Z ENDP	; SimMoverClass::SetTarget
_TEXT	ENDS
; Function compile flags: /Odtp
; File c:\users\zhitao li\documents\visual studio 2012\projects\freefalcon\sim\simlib\simmover.cpp
_TEXT	SEGMENT
_this$ = -4						; size = 4
_flag$ = 8						; size = 4
?AddDataRequest@SimMoverClass@@QAEXH@Z PROC		; SimMoverClass::AddDataRequest
; _this$ = ecx

; 961  : {

	push	ebp
	mov	ebp, esp
	push	ecx
	mov	DWORD PTR _this$[ebp], ecx

; 962  :    requestCount += flag;

	mov	eax, DWORD PTR _this$[ebp]
	mov	ecx, DWORD PTR [eax+628]
	add	ecx, DWORD PTR _flag$[ebp]
	mov	edx, DWORD PTR _this$[ebp]
	mov	DWORD PTR [edx+628], ecx

; 963  : }

	mov	esp, ebp
	pop	ebp
	ret	4
?AddDataRequest@SimMoverClass@@QAEXH@Z ENDP		; SimMoverClass::AddDataRequest
_TEXT	ENDS
; Function compile flags: /Odtp
; File c:\users\zhitao li\documents\visual studio 2012\projects\freefalcon\sim\simlib\simmover.cpp
_TEXT	SEGMENT
_this$ = -4						; size = 4
_newData$ = 8						; size = 4
?SetSwitches@SimMoverClass@@QAEXPAH@Z PROC		; SimMoverClass::SetSwitches
; _this$ = ecx

; 956  : {

	push	ebp
	mov	ebp, esp
	push	ecx
	mov	DWORD PTR _this$[ebp], ecx

; 957  :    memcpy (switchData, newData, sizeof(int) * numSwitches);

	mov	eax, DWORD PTR _this$[ebp]
	mov	ecx, DWORD PTR [eax+604]
	shl	ecx, 2
	push	ecx
	mov	edx, DWORD PTR _newData$[ebp]
	push	edx
	mov	eax, DWORD PTR _this$[ebp]
	mov	ecx, DWORD PTR [eax+592]
	push	ecx
	call	_memcpy
	add	esp, 12					; 0000000cH

; 958  : }

	mov	esp, ebp
	pop	ebp
	ret	4
?SetSwitches@SimMoverClass@@QAEXPAH@Z ENDP		; SimMoverClass::SetSwitches
_TEXT	ENDS
; Function compile flags: /Odtp
; File c:\users\zhitao li\documents\visual studio 2012\projects\freefalcon\sim\simlib\simmover.cpp
_TEXT	SEGMENT
_this$ = -4						; size = 4
_newData$ = 8						; size = 4
?SetDOFs@SimMoverClass@@QAEXPAM@Z PROC			; SimMoverClass::SetDOFs
; _this$ = ecx

; 950  : {

	push	ebp
	mov	ebp, esp
	push	ecx
	mov	DWORD PTR _this$[ebp], ecx

; 951  :    memcpy (DOFData, newData, sizeof(float) * numDofs);

	mov	eax, DWORD PTR _this$[ebp]
	mov	ecx, DWORD PTR [eax+600]
	shl	ecx, 2
	push	ecx
	mov	edx, DWORD PTR _newData$[ebp]
	push	edx
	mov	eax, DWORD PTR _this$[ebp]
	mov	ecx, DWORD PTR [eax+612]
	push	ecx
	call	_memcpy
	add	esp, 12					; 0000000cH

; 952  :    memcpy (DOFType, newData, sizeof(float) * numDofs);

	mov	edx, DWORD PTR _this$[ebp]
	mov	eax, DWORD PTR [edx+600]
	shl	eax, 2
	push	eax
	mov	ecx, DWORD PTR _newData$[ebp]
	push	ecx
	mov	edx, DWORD PTR _this$[ebp]
	mov	eax, DWORD PTR [edx+620]
	push	eax
	call	_memcpy
	add	esp, 12					; 0000000cH

; 953  : }

	mov	esp, ebp
	pop	ebp
	ret	4
?SetDOFs@SimMoverClass@@QAEXPAM@Z ENDP			; SimMoverClass::SetDOFs
_TEXT	ENDS
; Function compile flags: /Odtp
; File c:\users\zhitao li\documents\visual studio 2012\projects\freefalcon\sim\simlib\simmover.cpp
_TEXT	SEGMENT
_bottom$ = -24						; size = 4
tv192 = -20						; size = 4
tv186 = -16						; size = 4
tv164 = -12						; size = 4
_top$ = -8						; size = 4
_this$ = -4						; size = 4
_obj$ = 8						; size = 4
?UpdateLOS@SimMoverClass@@QAEXPAVSimObjectType@@@Z PROC	; SimMoverClass::UpdateLOS
; _this$ = ecx

; 1007 : {

	push	ebp
	mov	ebp, esp
	sub	esp, 24					; 00000018H
	mov	DWORD PTR _this$[ebp], ecx

; 1008 : 	float top, bottom;
; 1009 : 
; 1010 : 	OTWDriver.GetAreaFloorAndCeiling (&bottom, &top);

	lea	eax, DWORD PTR _top$[ebp]
	push	eax
	lea	ecx, DWORD PTR _bottom$[ebp]
	push	ecx
	mov	ecx, OFFSET ?OTWDriver@@3VOTWDriverClass@@A ; OTWDriver
	call	?GetAreaFloorAndCeiling@OTWDriverClass@@QAEXPAM0@Z ; OTWDriverClass::GetAreaFloorAndCeiling

; 1011 : 	if (
; 1012 : 		(ZPos() < top && obj->BaseData()->ZPos() < top) ||
; 1013 : 		(OTWDriver.CheckLOS(this, obj->BaseData()))
; 1014 : 	){

	mov	ecx, DWORD PTR _this$[ebp]
	call	?ZPos@VuEntity@@QBEMXZ			; VuEntity::ZPos
	fstp	DWORD PTR tv186[ebp]
	movss	xmm0, DWORD PTR _top$[ebp]
	comiss	xmm0, DWORD PTR tv186[ebp]
	jbe	SHORT $LN8@UpdateLOS
	mov	ecx, DWORD PTR _obj$[ebp]
	call	?BaseData@SimObjectType@@QAEPAVFalconEntity@@XZ ; SimObjectType::BaseData
	mov	ecx, eax
	call	?ZPos@VuEntity@@QBEMXZ			; VuEntity::ZPos
	fstp	DWORD PTR tv192[ebp]
	movss	xmm0, DWORD PTR _top$[ebp]
	comiss	xmm0, DWORD PTR tv192[ebp]
	ja	SHORT $LN9@UpdateLOS
$LN8@UpdateLOS:
	mov	ecx, DWORD PTR _obj$[ebp]
	call	?BaseData@SimObjectType@@QAEPAVFalconEntity@@XZ ; SimObjectType::BaseData
	push	eax
	mov	edx, DWORD PTR _this$[ebp]
	push	edx
	mov	ecx, OFFSET ?OTWDriver@@3VOTWDriverClass@@A ; OTWDriver
	call	?CheckLOS@OTWDriverClass@@QAEHPAVFalconEntity@@0@Z ; OTWDriverClass::CheckLOS
	test	eax, eax
	je	SHORT $LN10@UpdateLOS
$LN9@UpdateLOS:

; 1015 : 		obj->localData->SetTerrainLOS(TRUE);

	push	1
	mov	eax, DWORD PTR _obj$[ebp]
	mov	ecx, DWORD PTR [eax+12]
	call	?SetTerrainLOS@SimObjectLocalData@@QAEXH@Z ; SimObjectLocalData::SetTerrainLOS

; 1016 : 	}
; 1017 : 	else {

	jmp	SHORT $LN7@UpdateLOS
$LN10@UpdateLOS:

; 1018 : 		obj->localData->SetTerrainLOS(FALSE);

	push	0
	mov	ecx, DWORD PTR _obj$[ebp]
	mov	ecx, DWORD PTR [ecx+12]
	call	?SetTerrainLOS@SimObjectLocalData@@QAEXH@Z ; SimObjectLocalData::SetTerrainLOS
$LN7@UpdateLOS:

; 1019 : 	}
; 1020 : 
; 1021 : 	if (OTWDriver.CheckCloudLOS(this, obj->BaseData())){

	mov	ecx, DWORD PTR _obj$[ebp]
	call	?BaseData@SimObjectType@@QAEPAVFalconEntity@@XZ ; SimObjectType::BaseData
	push	eax
	mov	edx, DWORD PTR _this$[ebp]
	push	edx
	mov	ecx, OFFSET ?OTWDriver@@3VOTWDriverClass@@A ; OTWDriver
	call	?CheckCloudLOS@OTWDriverClass@@QAEHPAVFalconEntity@@0@Z ; OTWDriverClass::CheckCloudLOS
	test	eax, eax
	je	SHORT $LN6@UpdateLOS

; 1022 : 		obj->localData->SetCloudLOS(TRUE);

	push	1
	mov	eax, DWORD PTR _obj$[ebp]
	mov	ecx, DWORD PTR [eax+12]
	call	?SetCloudLOS@SimObjectLocalData@@QAEXH@Z ; SimObjectLocalData::SetCloudLOS

; 1023 : 	}
; 1024 : 	else {

	jmp	SHORT $LN5@UpdateLOS
$LN6@UpdateLOS:

; 1025 : 		obj->localData->SetCloudLOS(FALSE);

	push	0
	mov	ecx, DWORD PTR _obj$[ebp]
	mov	ecx, DWORD PTR [ecx+12]
	call	?SetCloudLOS@SimObjectLocalData@@QAEXH@Z ; SimObjectLocalData::SetCloudLOS
$LN5@UpdateLOS:

; 1026 : 	}
; 1027 : 
; 1028 : 	if (!OnGround()){

	mov	edx, DWORD PTR _this$[ebp]
	mov	eax, DWORD PTR [edx]
	mov	ecx, DWORD PTR _this$[ebp]
	mov	edx, DWORD PTR [eax+148]
	call	edx
	test	eax, eax
	jne	SHORT $LN4@UpdateLOS

; 1029 : 		obj->localData->nextLOSCheck = SimLibElapsedTime + 200;

	mov	eax, DWORD PTR ?SimLibElapsedTime@@3KA	; SimLibElapsedTime
	add	eax, 200				; 000000c8H
	mov	ecx, DWORD PTR _obj$[ebp]
	mov	edx, DWORD PTR [ecx+12]
	mov	DWORD PTR [edx+228], eax
	jmp	SHORT $LN1@UpdateLOS
$LN4@UpdateLOS:

; 1030 : 	}
; 1031 : 	else if(!obj->BaseData()->OnGround()){

	mov	ecx, DWORD PTR _obj$[ebp]
	call	?BaseData@SimObjectType@@QAEPAVFalconEntity@@XZ ; SimObjectType::BaseData
	mov	DWORD PTR tv164[ebp], eax
	mov	eax, DWORD PTR tv164[ebp]
	mov	edx, DWORD PTR [eax]
	mov	ecx, DWORD PTR tv164[ebp]
	mov	eax, DWORD PTR [edx+148]
	call	eax
	test	eax, eax
	jne	SHORT $LN2@UpdateLOS

; 1032 : 		obj->localData->nextLOSCheck = SimLibElapsedTime + 1000;

	mov	ecx, DWORD PTR ?SimLibElapsedTime@@3KA	; SimLibElapsedTime
	add	ecx, 1000				; 000003e8H
	mov	edx, DWORD PTR _obj$[ebp]
	mov	eax, DWORD PTR [edx+12]
	mov	DWORD PTR [eax+228], ecx

; 1033 : 	}
; 1034 : 	else{

	jmp	SHORT $LN1@UpdateLOS
$LN2@UpdateLOS:

; 1035 : 		obj->localData->nextLOSCheck = SimLibElapsedTime + 5000;

	mov	ecx, DWORD PTR ?SimLibElapsedTime@@3KA	; SimLibElapsedTime
	add	ecx, 5000				; 00001388H
	mov	edx, DWORD PTR _obj$[ebp]
	mov	eax, DWORD PTR [edx+12]
	mov	DWORD PTR [eax+228], ecx
$LN1@UpdateLOS:

; 1036 : 	}
; 1037 : }

	mov	esp, ebp
	pop	ebp
	ret	4
?UpdateLOS@SimMoverClass@@QAEXPAVSimObjectType@@@Z ENDP	; SimMoverClass::UpdateLOS
_TEXT	ENDS
; Function compile flags: /Odtp
; File c:\users\zhitao li\documents\visual studio 2012\projects\freefalcon\sim\simlib\simmover.cpp
_TEXT	SEGMENT
_this$ = -4						; size = 4
_obj$ = 8						; size = 4
?CheckCompositeLOS@SimMoverClass@@UAEHPAVSimObjectType@@@Z PROC ; SimMoverClass::CheckCompositeLOS
; _this$ = ecx

; 1051 : {

	push	ebp
	mov	ebp, esp
	push	ecx
	mov	DWORD PTR _this$[ebp], ecx

; 1052 : 	if(!obj || !obj->BaseData())

	cmp	DWORD PTR _obj$[ebp], 0
	je	SHORT $LN4@CheckCompo
	mov	ecx, DWORD PTR _obj$[ebp]
	call	?BaseData@SimObjectType@@QAEPAVFalconEntity@@XZ ; SimObjectType::BaseData
	test	eax, eax
	jne	SHORT $LN5@CheckCompo
$LN4@CheckCompo:

; 1053 : 		return FALSE;

	xor	eax, eax
	jmp	SHORT $LN6@CheckCompo
$LN5@CheckCompo:

; 1054 : 
; 1055 : 	if(SimLibElapsedTime > obj->localData->nextLOSCheck)

	mov	eax, DWORD PTR _obj$[ebp]
	mov	ecx, DWORD PTR [eax+12]
	mov	edx, DWORD PTR ?SimLibElapsedTime@@3KA	; SimLibElapsedTime
	cmp	edx, DWORD PTR [ecx+228]
	jbe	SHORT $LN3@CheckCompo

; 1056 : 		UpdateLOS(obj);

	mov	eax, DWORD PTR _obj$[ebp]
	push	eax
	mov	ecx, DWORD PTR _this$[ebp]
	call	?UpdateLOS@SimMoverClass@@QAEXPAVSimObjectType@@@Z ; SimMoverClass::UpdateLOS
$LN3@CheckCompo:

; 1057 : 
; 1058 : 	if(obj->localData->CloudLOS())

	mov	ecx, DWORD PTR _obj$[ebp]
	mov	ecx, DWORD PTR [ecx+12]
	call	?CloudLOS@SimObjectLocalData@@QAEHXZ	; SimObjectLocalData::CloudLOS
	test	eax, eax
	je	SHORT $LN2@CheckCompo

; 1059 : 		return obj->localData->TerrainLOS();

	mov	edx, DWORD PTR _obj$[ebp]
	mov	ecx, DWORD PTR [edx+12]
	call	?TerrainLOS@SimObjectLocalData@@QAEHXZ	; SimObjectLocalData::TerrainLOS
	jmp	SHORT $LN6@CheckCompo

; 1060 : 	else

	jmp	SHORT $LN6@CheckCompo
$LN2@CheckCompo:

; 1061 : 		return FALSE;

	xor	eax, eax
$LN6@CheckCompo:

; 1062 : }

	mov	esp, ebp
	pop	ebp
	ret	4
?CheckCompositeLOS@SimMoverClass@@UAEHPAVSimObjectType@@@Z ENDP ; SimMoverClass::CheckCompositeLOS
_TEXT	ENDS
; Function compile flags: /Odtp
; File c:\users\zhitao li\documents\visual studio 2012\projects\freefalcon\sim\simlib\simmover.cpp
_TEXT	SEGMENT
_this$ = -4						; size = 4
_obj$ = 8						; size = 4
?CheckLOS@SimMoverClass@@UAEHPAVSimObjectType@@@Z PROC	; SimMoverClass::CheckLOS
; _this$ = ecx

; 1040 : {

	push	ebp
	mov	ebp, esp
	push	ecx
	mov	DWORD PTR _this$[ebp], ecx

; 1041 : 	if(!obj || !obj->BaseData())

	cmp	DWORD PTR _obj$[ebp], 0
	je	SHORT $LN2@CheckLOS
	mov	ecx, DWORD PTR _obj$[ebp]
	call	?BaseData@SimObjectType@@QAEPAVFalconEntity@@XZ ; SimObjectType::BaseData
	test	eax, eax
	jne	SHORT $LN3@CheckLOS
$LN2@CheckLOS:

; 1042 : 		return FALSE;

	xor	eax, eax
	jmp	SHORT $LN4@CheckLOS
$LN3@CheckLOS:

; 1043 : 
; 1044 : 	if(SimLibElapsedTime > obj->localData->nextLOSCheck)

	mov	eax, DWORD PTR _obj$[ebp]
	mov	ecx, DWORD PTR [eax+12]
	mov	edx, DWORD PTR ?SimLibElapsedTime@@3KA	; SimLibElapsedTime
	cmp	edx, DWORD PTR [ecx+228]
	jbe	SHORT $LN1@CheckLOS

; 1045 : 		UpdateLOS(obj);

	mov	eax, DWORD PTR _obj$[ebp]
	push	eax
	mov	ecx, DWORD PTR _this$[ebp]
	call	?UpdateLOS@SimMoverClass@@QAEXPAVSimObjectType@@@Z ; SimMoverClass::UpdateLOS
$LN1@CheckLOS:

; 1046 : 
; 1047 : 	return obj->localData->TerrainLOS();

	mov	ecx, DWORD PTR _obj$[ebp]
	mov	ecx, DWORD PTR [ecx+12]
	call	?TerrainLOS@SimObjectLocalData@@QAEHXZ	; SimObjectLocalData::TerrainLOS
$LN4@CheckLOS:

; 1048 : }

	mov	esp, ebp
	pop	ebp
	ret	4
?CheckLOS@SimMoverClass@@UAEHPAVSimObjectType@@@Z ENDP	; SimMoverClass::CheckLOS
_TEXT	ENDS
; Function compile flags: /Odtp
; File c:\users\zhitao li\documents\visual studio 2012\projects\freefalcon\sim\simlib\simmover.cpp
_TEXT	SEGMENT
_gridIt$ = -228						; size = 60
$T2 = -168						; size = 4
tv503 = -164						; size = 4
tv455 = -160						; size = 4
tv496 = -156						; size = 4
_fc$3 = -152						; size = 4
_featureWalker$4 = -148					; size = 12
_firstFeature$ = -136					; size = 4
tv487 = -132						; size = 4
$T5 = -128						; size = 4
tv463 = -124						; size = 4
tv523 = -120						; size = 4
tv459 = -116						; size = 4
$T6 = -112						; size = 4
tv510 = -108						; size = 4
_wc$ = -104						; size = 4
_foundFeature$ = -100					; size = 4
_deltat$ = -96						; size = 4
_objective$ = -92					; size = 4
_radius$ = -88						; size = 4
_testFeature$ = -84					; size = 4
_this$ = -80						; size = 4
_collide$ = -76						; size = 12
_fpos$ = -64						; size = 12
_p3$ = -52						; size = 12
_pos$ = -40						; size = 12
_vec$ = -28						; size = 12
__$ArrayPad$ = -16					; size = 4
__$EHRec$ = -12						; size = 12
_groundZ$ = 8						; size = 4
?FeatureCollision@SimMoverClass@@UAEPAVSimBaseClass@@M@Z PROC ; SimMoverClass::FeatureCollision
; _this$ = ecx

; 1074 : {

	push	ebp
	mov	ebp, esp
	push	-1
	push	__ehhandler$?FeatureCollision@SimMoverClass@@UAEPAVSimBaseClass@@M@Z
	mov	eax, DWORD PTR fs:0
	push	eax
	sub	esp, 216				; 000000d8H
	mov	eax, DWORD PTR ___security_cookie
	xor	eax, ebp
	mov	DWORD PTR __$ArrayPad$[ebp], eax
	push	eax
	lea	eax, DWORD PTR __$EHRec$[ebp]
	mov	DWORD PTR fs:0, eax
	mov	DWORD PTR _this$[ebp], ecx

; 1075 : 	CampBaseClass* objective;
; 1076 : 	// sfr: from 3 to 5. Some airbases like seoul are too big
; 1077 : #ifdef VU_GRID_TREE_Y_MAJOR
; 1078 : 	VuGridIterator gridIt(ObjProxList, YPos(), XPos(), 3.0F * NM_TO_FT);

	push	ecx
	movss	xmm0, DWORD PTR __real@468e6944
	movss	DWORD PTR [esp], xmm0
	mov	ecx, DWORD PTR _this$[ebp]
	call	?XPos@VuEntity@@QBEMXZ			; VuEntity::XPos
	push	ecx
	fstp	DWORD PTR [esp]
	mov	ecx, DWORD PTR _this$[ebp]
	call	?YPos@VuEntity@@QBEMXZ			; VuEntity::YPos
	push	ecx
	fstp	DWORD PTR [esp]
	mov	eax, DWORD PTR ?ObjProxList@@3PAVVuGridTree@@A ; ObjProxList
	push	eax
	lea	ecx, DWORD PTR _gridIt$[ebp]
	call	??0VuGridIterator@@QAE@PAVVuGridTree@@MMM@Z ; VuGridIterator::VuGridIterator
	mov	DWORD PTR __$EHRec$[ebp+8], 0

; 1079 : #else
; 1080 : 	VuGridIterator gridIt(ObjProxList, XPos(), YPos(), 3.0F * NM_TO_FT);
; 1081 : #endif
; 1082 : 
; 1083 : 	SimBaseClass *foundFeature = NULL;

	mov	DWORD PTR _foundFeature$[ebp], 0

; 1084 : 	SimBaseClass *testFeature;
; 1085 : 	float radius;
; 1086 : 	Tpoint pos, fpos, vec, p3, collide;
; 1087 : 	BOOL firstFeature;
; 1088 : 	WeaponClassDataType* wc = NULL;

	mov	DWORD PTR _wc$[ebp], 0

; 1089 : 	const float deltat = 1.0f; // JPO time to look ahead for flat surfaces - arrived at by experiment.

	movss	xmm0, DWORD PTR __real@3f800000
	movss	DWORD PTR _deltat$[ebp], xmm0

; 1090 : 	// this required to land on highway strips - that are in forest or similar.
; 1091 : 
; 1092 : 	if ( IsWeapon() )

	mov	ecx, DWORD PTR _this$[ebp]
	mov	edx, DWORD PTR [ecx]
	mov	ecx, DWORD PTR _this$[ebp]
	mov	eax, DWORD PTR [edx+204]
	call	eax
	test	eax, eax
	je	SHORT $LN21@FeatureCol

; 1093 : 	{
; 1094 : 		wc = (WeaponClassDataType*)Falcon4ClassTable[Type() - VU_LAST_ENTITY_TYPE].dataPtr;

	mov	ecx, DWORD PTR _this$[ebp]
	call	?Type@VuEntity@@QBEGXZ			; VuEntity::Type
	movzx	ecx, ax
	sub	ecx, 100				; 00000064H
	imul	ecx, 81					; 00000051H
	mov	edx, DWORD PTR ?Falcon4ClassTable@@3PAUFalcon4EntityClassType@@A ; Falcon4ClassTable
	mov	eax, DWORD PTR [edx+ecx+77]
	mov	DWORD PTR _wc$[ebp], eax
$LN21@FeatureCol:

; 1095 : 	}
; 1096 : 
; 1097 : 	onFlatFeature = FALSE;

	mov	ecx, DWORD PTR _this$[ebp]
	mov	DWORD PTR [ecx+668], 0

; 1098 : 
; 1099 : 	// get the 1st objective that contains the bomb
; 1100 : 	objective = (CampBaseClass*)gridIt.GetFirst();

	lea	ecx, DWORD PTR _gridIt$[ebp]
	call	?GetFirst@VuGridIterator@@QAEPAVVuEntity@@XZ ; VuGridIterator::GetFirst
	mov	DWORD PTR _objective$[ebp], eax
$LN20@FeatureCol:

; 1101 : 	while ( objective )

	cmp	DWORD PTR _objective$[ebp], 0
	je	$LN19@FeatureCol

; 1102 : 	{
; 1103 :       if (objective->GetComponents())

	mov	ecx, DWORD PTR _objective$[ebp]
	call	?GetComponents@CampBaseClass@@QBEPAVTailInsertList@@XZ ; CampBaseClass::GetComponents
	test	eax, eax
	je	$LN18@FeatureCol

; 1104 :       {
; 1105 : 		   pos.x = XPos();

	mov	ecx, DWORD PTR _this$[ebp]
	call	?XPos@VuEntity@@QBEMXZ			; VuEntity::XPos
	fstp	DWORD PTR _pos$[ebp]

; 1106 : 		   pos.y = YPos();

	mov	ecx, DWORD PTR _this$[ebp]
	call	?YPos@VuEntity@@QBEMXZ			; VuEntity::YPos
	fstp	DWORD PTR _pos$[ebp+4]

; 1107 : 		   pos.z = ZPos();

	mov	ecx, DWORD PTR _this$[ebp]
	call	?ZPos@VuEntity@@QBEMXZ			; VuEntity::ZPos
	fstp	DWORD PTR _pos$[ebp+8]

; 1108 : 	   
; 1109 : 		   // check out some time in the future (was without multiplier JPO)
; 1110 : 		   vec.x = XDelta() * SimLibMajorFrameTime * deltat;

	mov	ecx, DWORD PTR _this$[ebp]
	call	?XDelta@VuEntity@@QBEMXZ		; VuEntity::XDelta
	fstp	DWORD PTR tv455[ebp]
	movss	xmm0, DWORD PTR tv455[ebp]
	mulss	xmm0, DWORD PTR ?SimLibMajorFrameTime@@3MA
	mulss	xmm0, DWORD PTR _deltat$[ebp]
	movss	DWORD PTR _vec$[ebp], xmm0

; 1111 : 		   vec.y = YDelta() * SimLibMajorFrameTime * deltat;

	mov	ecx, DWORD PTR _this$[ebp]
	call	?YDelta@VuEntity@@QBEMXZ		; VuEntity::YDelta
	fstp	DWORD PTR tv459[ebp]
	movss	xmm0, DWORD PTR tv459[ebp]
	mulss	xmm0, DWORD PTR ?SimLibMajorFrameTime@@3MA
	mulss	xmm0, DWORD PTR _deltat$[ebp]
	movss	DWORD PTR _vec$[ebp+4], xmm0

; 1112 : 		   vec.z = ZDelta() * SimLibMajorFrameTime * deltat;

	mov	ecx, DWORD PTR _this$[ebp]
	call	?ZDelta@VuEntity@@QBEMXZ		; VuEntity::ZDelta
	fstp	DWORD PTR tv463[ebp]
	movss	xmm0, DWORD PTR tv463[ebp]
	mulss	xmm0, DWORD PTR ?SimLibMajorFrameTime@@3MA
	mulss	xmm0, DWORD PTR _deltat$[ebp]
	movss	DWORD PTR _vec$[ebp+8], xmm0

; 1113 : 	   
; 1114 : 		   p3.x = (float)fabs( vec.x );

	push	ecx
	movss	xmm0, DWORD PTR _vec$[ebp]
	movss	DWORD PTR [esp], xmm0
	call	?fabs@@YAMM@Z				; fabs
	add	esp, 4
	fstp	DWORD PTR _p3$[ebp]

; 1115 : 		   p3.y = (float)fabs( vec.y );

	push	ecx
	movss	xmm0, DWORD PTR _vec$[ebp+4]
	movss	DWORD PTR [esp], xmm0
	call	?fabs@@YAMM@Z				; fabs
	add	esp, 4
	fstp	DWORD PTR _p3$[ebp+4]

; 1116 : 		   p3.z = (float)fabs( vec.z );

	push	ecx
	movss	xmm0, DWORD PTR _vec$[ebp+8]
	movss	DWORD PTR [esp], xmm0
	call	?fabs@@YAMM@Z				; fabs
	add	esp, 4
	fstp	DWORD PTR _p3$[ebp+8]

; 1117 : 	   
; 1118 : 			// loop thru each element in the objective
; 1119 : 			VuListIterator	featureWalker(objective->GetComponents());

	mov	ecx, DWORD PTR _objective$[ebp]
	call	?GetComponents@CampBaseClass@@QBEPAVTailInsertList@@XZ ; CampBaseClass::GetComponents
	push	eax
	lea	ecx, DWORD PTR _featureWalker$4[ebp]
	call	??0VuListIterator@@QAE@PAVVuLinkedList@@@Z ; VuListIterator::VuListIterator
	mov	BYTE PTR __$EHRec$[ebp+8], 1

; 1120 : 			testFeature = (SimBaseClass*) featureWalker.GetFirst();

	lea	ecx, DWORD PTR _featureWalker$4[ebp]
	call	?GetFirst@VuListIterator@@QAEPAVVuEntity@@XZ ; VuListIterator::GetFirst
	mov	DWORD PTR _testFeature$[ebp], eax

; 1121 : 			firstFeature = TRUE;

	mov	DWORD PTR _firstFeature$[ebp], 1
$LN17@FeatureCol:

; 1122 : 			while (testFeature)

	cmp	DWORD PTR _testFeature$[ebp], 0
	je	$LN16@FeatureCol

; 1123 :          {
; 1124 : 			   if (testFeature->drawPointer)

	mov	edx, DWORD PTR _testFeature$[ebp]
	cmp	DWORD PTR [edx+332], 0
	je	$LN3@FeatureCol

; 1125 :             {
; 1126 : 			      // get feature's radius and position
; 1127 : 			      radius = testFeature->drawPointer->Radius();

	mov	eax, DWORD PTR _testFeature$[ebp]
	mov	ecx, DWORD PTR [eax+332]
	call	?Radius@DrawableObject@@QBEMXZ		; DrawableObject::Radius
	fstp	DWORD PTR _radius$[ebp]

; 1128 : 				  if(drawPointer)

	mov	ecx, DWORD PTR _this$[ebp]
	cmp	DWORD PTR [ecx+332], 0
	je	SHORT $LN14@FeatureCol

; 1129 : 					  radius += drawPointer->Radius();

	mov	edx, DWORD PTR _this$[ebp]
	mov	ecx, DWORD PTR [edx+332]
	call	?Radius@DrawableObject@@QBEMXZ		; DrawableObject::Radius
	fstp	DWORD PTR tv487[ebp]
	movss	xmm0, DWORD PTR tv487[ebp]
	addss	xmm0, DWORD PTR _radius$[ebp]
	movss	DWORD PTR _radius$[ebp], xmm0
$LN14@FeatureCol:

; 1130 : 			      testFeature->drawPointer->GetPosition( &fpos );

	lea	eax, DWORD PTR _fpos$[ebp]
	push	eax
	mov	ecx, DWORD PTR _testFeature$[ebp]
	mov	ecx, DWORD PTR [ecx+332]
	call	?GetPosition@DrawableObject@@QAEXPAUTpoint@@@Z ; DrawableObject::GetPosition

; 1131 : 	      
; 1132 : 			      // test with gross level bounds of object
; 1133 : 			      if (fabs (pos.x - fpos.x) < radius + p3.x &&
; 1134 : 				      fabs (pos.y - fpos.y) < radius + p3.y &&
; 1135 : 				      fabs (pos.z - fpos.z) < radius + p3.z )

	movss	xmm0, DWORD PTR _pos$[ebp]
	subss	xmm0, DWORD PTR _fpos$[ebp]
	push	ecx
	movss	DWORD PTR [esp], xmm0
	call	?fabs@@YAMM@Z				; fabs
	add	esp, 4
	fstp	DWORD PTR tv496[ebp]
	movss	xmm0, DWORD PTR _radius$[ebp]
	addss	xmm0, DWORD PTR _p3$[ebp]
	comiss	xmm0, DWORD PTR tv496[ebp]
	jbe	$LN3@FeatureCol
	movss	xmm0, DWORD PTR _pos$[ebp+4]
	subss	xmm0, DWORD PTR _fpos$[ebp+4]
	push	ecx
	movss	DWORD PTR [esp], xmm0
	call	?fabs@@YAMM@Z				; fabs
	add	esp, 4
	fstp	DWORD PTR tv503[ebp]
	movss	xmm0, DWORD PTR _radius$[ebp]
	addss	xmm0, DWORD PTR _p3$[ebp+4]
	comiss	xmm0, DWORD PTR tv503[ebp]
	jbe	$LN3@FeatureCol
	movss	xmm0, DWORD PTR _pos$[ebp+8]
	subss	xmm0, DWORD PTR _fpos$[ebp+8]
	push	ecx
	movss	DWORD PTR [esp], xmm0
	call	?fabs@@YAMM@Z				; fabs
	add	esp, 4
	fstp	DWORD PTR tv510[ebp]
	movss	xmm0, DWORD PTR _radius$[ebp]
	addss	xmm0, DWORD PTR _p3$[ebp+8]
	comiss	xmm0, DWORD PTR tv510[ebp]
	jbe	$LN3@FeatureCol

; 1136 : 			      {
; 1137 : 				      // if we're on the ground make sure we have a downward vector if
; 1138 : 				      // we're testing a flat container so we detect a collision
; 1139 : 				      if ( OnGround())

	mov	edx, DWORD PTR _this$[ebp]
	mov	eax, DWORD PTR [edx]
	mov	ecx, DWORD PTR _this$[ebp]
	mov	edx, DWORD PTR [eax+148]
	call	edx
	test	eax, eax
	je	SHORT $LN12@FeatureCol

; 1140 : 				      {
; 1141 : 						  if(testFeature->IsSetCampaignFlag (FEAT_FLAT_CONTAINER))

	push	256					; 00000100H
	mov	ecx, DWORD PTR _testFeature$[ebp]
	call	?IsSetCampaignFlag@SimBaseClass@@QBEHH@Z ; SimBaseClass::IsSetCampaignFlag
	test	eax, eax
	je	SHORT $LN11@FeatureCol

; 1142 : 						  {
; 1143 : 							  vec.z = 1500.0f;

	movss	xmm0, DWORD PTR __real@44bb8000
	movss	DWORD PTR _vec$[ebp+8], xmm0

; 1144 : 							  pos.z = groundZ - 50.0f;

	movss	xmm0, DWORD PTR _groundZ$[ebp]
	subss	xmm0, DWORD PTR __real@42480000
	movss	DWORD PTR _pos$[ebp+8], xmm0

; 1145 : 						  }
; 1146 : 						  else

	jmp	SHORT $LN10@FeatureCol
$LN11@FeatureCol:

; 1147 : 						  {
; 1148 : 							  vec.z = 0.0f;

	movss	xmm0, DWORD PTR __real@00000000
	movss	DWORD PTR _vec$[ebp+8], xmm0

; 1149 : 							  pos.z = groundZ - 0.5f;

	movss	xmm0, DWORD PTR _groundZ$[ebp]
	subss	xmm0, DWORD PTR __real@3f000000
	movss	DWORD PTR _pos$[ebp+8], xmm0
$LN10@FeatureCol:

; 1150 : 						  }
; 1151 : 				      }
; 1152 : 				      else

	jmp	SHORT $LN9@FeatureCol
$LN12@FeatureCol:

; 1153 : 				      {
; 1154 : 					      vec.z = ZDelta() * SimLibMajorFrameTime * deltat;

	mov	ecx, DWORD PTR _this$[ebp]
	call	?ZDelta@VuEntity@@QBEMXZ		; VuEntity::ZDelta
	fstp	DWORD PTR tv523[ebp]
	movss	xmm0, DWORD PTR tv523[ebp]
	mulss	xmm0, DWORD PTR ?SimLibMajorFrameTime@@3MA
	mulss	xmm0, DWORD PTR _deltat$[ebp]
	movss	DWORD PTR _vec$[ebp+8], xmm0

; 1155 : 					      pos.z = ZPos();

	mov	ecx, DWORD PTR _this$[ebp]
	call	?ZPos@VuEntity@@QBEMXZ			; VuEntity::ZPos
	fstp	DWORD PTR _pos$[ebp+8]
$LN9@FeatureCol:

; 1156 : 				      }
; 1157 : 					      
; 1158 : 				      if ( testFeature->drawPointer->GetRayHit( &pos, &vec, &collide, 1.0f ) )

	push	ecx
	movss	xmm0, DWORD PTR __real@3f800000
	movss	DWORD PTR [esp], xmm0
	lea	eax, DWORD PTR _collide$[ebp]
	push	eax
	lea	ecx, DWORD PTR _vec$[ebp]
	push	ecx
	lea	edx, DWORD PTR _pos$[ebp]
	push	edx
	mov	eax, DWORD PTR _testFeature$[ebp]
	mov	ecx, DWORD PTR [eax+332]
	mov	edx, DWORD PTR _testFeature$[ebp]
	mov	eax, DWORD PTR [ecx]
	mov	ecx, DWORD PTR [edx+332]
	mov	edx, DWORD PTR [eax+24]
	call	edx
	test	eax, eax
	je	$LN3@FeatureCol

; 1159 : 				      {
; 1160 : 						  if ( IsWeapon() )

	mov	eax, DWORD PTR _this$[ebp]
	mov	edx, DWORD PTR [eax]
	mov	ecx, DWORD PTR _this$[ebp]
	mov	eax, DWORD PTR [edx+204]
	call	eax
	test	eax, eax
	je	SHORT $LN7@FeatureCol

; 1161 : 						  {
; 1162 : 							  FeatureClassDataType* fc = 
; 1163 : 								  GetFeatureClassData(testFeature->Type() - VU_LAST_ENTITY_TYPE);

	mov	ecx, DWORD PTR _testFeature$[ebp]
	call	?Type@VuEntity@@QBEGXZ			; VuEntity::Type
	movzx	ecx, ax
	sub	ecx, 100				; 00000064H
	push	ecx
	call	?GetFeatureClassData@@YAPAUFeatureClassDataType@@H@Z ; GetFeatureClassData
	add	esp, 4
	mov	DWORD PTR _fc$3[ebp], eax

; 1164 : 
; 1165 : 							  if(fc->DamageMod[wc->DamageType])

	mov	edx, DWORD PTR _wc$[ebp]
	mov	eax, DWORD PTR [edx+4]
	mov	ecx, DWORD PTR _fc$3[ebp]
	movzx	edx, BYTE PTR [ecx+eax+46]
	test	edx, edx
	je	SHORT $LN6@FeatureCol

; 1166 : 								  return testFeature;

	mov	eax, DWORD PTR _testFeature$[ebp]
	mov	DWORD PTR $T5[ebp], eax
	mov	BYTE PTR __$EHRec$[ebp+8], 0
	lea	ecx, DWORD PTR _featureWalker$4[ebp]
	call	??1VuListIterator@@UAE@XZ		; VuListIterator::~VuListIterator
	mov	DWORD PTR __$EHRec$[ebp+8], -1
	lea	ecx, DWORD PTR _gridIt$[ebp]
	call	??1VuGridIterator@@UAE@XZ		; VuGridIterator::~VuGridIterator
	mov	eax, DWORD PTR $T5[ebp]
	jmp	$LN22@FeatureCol
$LN6@FeatureCol:

; 1167 : 
; 1168 : 							  foundFeature = testFeature;

	mov	ecx, DWORD PTR _testFeature$[ebp]
	mov	DWORD PTR _foundFeature$[ebp], ecx

; 1169 : 						  }
; 1170 : 						  else

	jmp	$LN3@FeatureCol
$LN7@FeatureCol:

; 1171 : 						  {
; 1172 : 							  // if we're a bomb and we've hit a flat thingy, it's OK to
; 1173 : 							  // return detect a hit on the feature so return it....
; 1174 : 							  // other wise we just note if we're on top of a flat feature
; 1175 : 							  if (testFeature->IsSetCampaignFlag (FEAT_FLAT_CONTAINER))

	push	256					; 00000100H
	mov	ecx, DWORD PTR _testFeature$[ebp]
	call	?IsSetCampaignFlag@SimBaseClass@@QBEHH@Z ; SimBaseClass::IsSetCampaignFlag
	test	eax, eax
	je	SHORT $LN4@FeatureCol

; 1176 : 							  {
; 1177 : 								  onFlatFeature = TRUE;

	mov	edx, DWORD PTR _this$[ebp]
	mov	DWORD PTR [edx+668], 1

; 1178 : 							  }
; 1179 : 							  else

	jmp	SHORT $LN3@FeatureCol
$LN4@FeatureCol:

; 1180 : 								{
; 1181 : 									if (FalconLocalSession && this == FalconLocalSession->GetPlayerEntity())

	mov	ecx, OFFSET ?vuLocalSessionEntity@@3V?$VuBin@VVuSessionEntity@@@@A ; vuLocalSessionEntity
	call	?get@?$VuBin@VVuSessionEntity@@@@QBEPAVVuSessionEntity@@XZ ; VuBin<VuSessionEntity>::get
	test	eax, eax
	je	SHORT $LN2@FeatureCol
	mov	ecx, OFFSET ?vuLocalSessionEntity@@3V?$VuBin@VVuSessionEntity@@@@A ; vuLocalSessionEntity
	call	?get@?$VuBin@VVuSessionEntity@@@@QBEPAVVuSessionEntity@@XZ ; VuBin<VuSessionEntity>::get
	mov	ecx, eax
	call	?GetPlayerEntity@FalconSessionEntity@@QBEPAVFalconEntity@@XZ ; FalconSessionEntity::GetPlayerEntity
	cmp	DWORD PTR _this$[ebp], eax
	jne	SHORT $LN2@FeatureCol

; 1182 : 										g_intellivibeData.CollisionCounter++;

	mov	eax, DWORD PTR ?g_intellivibeData@@3VIntellivibeData@@A+8
	add	eax, 1
	mov	DWORD PTR ?g_intellivibeData@@3VIntellivibeData@@A+8, eax
$LN2@FeatureCol:

; 1183 : 
; 1184 : 								  return testFeature;

	mov	ecx, DWORD PTR _testFeature$[ebp]
	mov	DWORD PTR $T2[ebp], ecx
	mov	BYTE PTR __$EHRec$[ebp+8], 0
	lea	ecx, DWORD PTR _featureWalker$4[ebp]
	call	??1VuListIterator@@UAE@XZ		; VuListIterator::~VuListIterator
	mov	DWORD PTR __$EHRec$[ebp+8], -1
	lea	ecx, DWORD PTR _gridIt$[ebp]
	call	??1VuGridIterator@@UAE@XZ		; VuGridIterator::~VuGridIterator
	mov	eax, DWORD PTR $T2[ebp]
	jmp	$LN22@FeatureCol
$LN3@FeatureCol:

; 1185 : 								}
; 1186 : 						  }
; 1187 : 				      }
; 1188 : 			      }
; 1189 :             }
; 1190 :    			testFeature = (SimBaseClass*) featureWalker.GetNext();

	lea	ecx, DWORD PTR _featureWalker$4[ebp]
	call	?GetNext@VuListIterator@@QAEPAVVuEntity@@XZ ; VuListIterator::GetNext
	mov	DWORD PTR _testFeature$[ebp], eax

; 1191 : 			firstFeature = FALSE;

	mov	DWORD PTR _firstFeature$[ebp], 0

; 1192 :    		}

	jmp	$LN17@FeatureCol
$LN16@FeatureCol:

; 1193 :       }

	mov	BYTE PTR __$EHRec$[ebp+8], 0
	lea	ecx, DWORD PTR _featureWalker$4[ebp]
	call	??1VuListIterator@@UAE@XZ		; VuListIterator::~VuListIterator
$LN18@FeatureCol:

; 1194 : 
; 1195 :       objective = (CampBaseClass*)gridIt.GetNext();

	lea	ecx, DWORD PTR _gridIt$[ebp]
	call	?GetNext@VuGridIterator@@QAEPAVVuEntity@@XZ ; VuGridIterator::GetNext
	mov	DWORD PTR _objective$[ebp], eax

; 1196 : 	}

	jmp	$LN20@FeatureCol
$LN19@FeatureCol:

; 1197 : 
; 1198 : 	if (foundFeature && FalconLocalSession && this == FalconLocalSession->GetPlayerEntity())

	cmp	DWORD PTR _foundFeature$[ebp], 0
	je	SHORT $LN1@FeatureCol
	mov	ecx, OFFSET ?vuLocalSessionEntity@@3V?$VuBin@VVuSessionEntity@@@@A ; vuLocalSessionEntity
	call	?get@?$VuBin@VVuSessionEntity@@@@QBEPAVVuSessionEntity@@XZ ; VuBin<VuSessionEntity>::get
	test	eax, eax
	je	SHORT $LN1@FeatureCol
	mov	ecx, OFFSET ?vuLocalSessionEntity@@3V?$VuBin@VVuSessionEntity@@@@A ; vuLocalSessionEntity
	call	?get@?$VuBin@VVuSessionEntity@@@@QBEPAVVuSessionEntity@@XZ ; VuBin<VuSessionEntity>::get
	mov	ecx, eax
	call	?GetPlayerEntity@FalconSessionEntity@@QBEPAVFalconEntity@@XZ ; FalconSessionEntity::GetPlayerEntity
	cmp	DWORD PTR _this$[ebp], eax
	jne	SHORT $LN1@FeatureCol

; 1199 : 		g_intellivibeData.CollisionCounter++;

	mov	edx, DWORD PTR ?g_intellivibeData@@3VIntellivibeData@@A+8
	add	edx, 1
	mov	DWORD PTR ?g_intellivibeData@@3VIntellivibeData@@A+8, edx
$LN1@FeatureCol:

; 1200 : 
; 1201 : 	return foundFeature;

	mov	eax, DWORD PTR _foundFeature$[ebp]
	mov	DWORD PTR $T6[ebp], eax
	mov	DWORD PTR __$EHRec$[ebp+8], -1
	lea	ecx, DWORD PTR _gridIt$[ebp]
	call	??1VuGridIterator@@UAE@XZ		; VuGridIterator::~VuGridIterator
	mov	eax, DWORD PTR $T6[ebp]
$LN22@FeatureCol:

; 1202 : }

	mov	ecx, DWORD PTR __$EHRec$[ebp]
	mov	DWORD PTR fs:0, ecx
	pop	ecx
	mov	ecx, DWORD PTR __$ArrayPad$[ebp]
	xor	ecx, ebp
	call	@__security_check_cookie@4
	mov	esp, ebp
	pop	ebp
	ret	4
_TEXT	ENDS
text$x	SEGMENT
__unwindfunclet$?FeatureCollision@SimMoverClass@@UAEPAVSimBaseClass@@M@Z$0:
	lea	ecx, DWORD PTR _gridIt$[ebp]
	jmp	??1VuGridIterator@@UAE@XZ		; VuGridIterator::~VuGridIterator
__unwindfunclet$?FeatureCollision@SimMoverClass@@UAEPAVSimBaseClass@@M@Z$1:
	lea	ecx, DWORD PTR _featureWalker$4[ebp]
	jmp	??1VuListIterator@@UAE@XZ		; VuListIterator::~VuListIterator
__ehhandler$?FeatureCollision@SimMoverClass@@UAEPAVSimBaseClass@@M@Z:
	mov	edx, DWORD PTR [esp+8]
	lea	eax, DWORD PTR [edx+12]
	mov	ecx, DWORD PTR [edx-220]
	xor	ecx, eax
	call	@__security_check_cookie@4
	mov	ecx, DWORD PTR [edx-4]
	xor	ecx, eax
	call	@__security_check_cookie@4
	mov	eax, OFFSET __ehfuncinfo$?FeatureCollision@SimMoverClass@@UAEPAVSimBaseClass@@M@Z
	jmp	___CxxFrameHandler3
text$x	ENDS
?FeatureCollision@SimMoverClass@@UAEPAVSimBaseClass@@M@Z ENDP ; SimMoverClass::FeatureCollision
; Function compile flags: /Odtp
; File c:\users\zhitao li\documents\visual studio 2012\projects\freefalcon\sim\simlib\simmover.cpp
_TEXT	SEGMENT
_this$ = -4						; size = 4
_event$ = 8						; size = 4
?Handle@SimMoverClass@@UAEHPAVVuTransferEvent@@@Z PROC	; SimMoverClass::Handle
; _this$ = ecx

; 907  : {

	push	ebp
	mov	ebp, esp
	push	ecx
	mov	DWORD PTR _this$[ebp], ecx

; 908  : 	return (SimBaseClass::Handle(event));

	mov	eax, DWORD PTR _event$[ebp]
	push	eax
	mov	ecx, DWORD PTR _this$[ebp]
	call	?Handle@SimBaseClass@@UAEHPAVVuTransferEvent@@@Z ; SimBaseClass::Handle

; 909  : }

	mov	esp, ebp
	pop	ebp
	ret	4
?Handle@SimMoverClass@@UAEHPAVVuTransferEvent@@@Z ENDP	; SimMoverClass::Handle
_TEXT	ENDS
; Function compile flags: /Odtp
; File c:\users\zhitao li\documents\visual studio 2012\projects\freefalcon\sim\simlib\simmover.cpp
_TEXT	SEGMENT
_this$ = -8						; size = 4
_campObj$ = -4						; size = 4
_event$ = 8						; size = 4
?Handle@SimMoverClass@@UAEHPAVVuPositionUpdateEvent@@@Z PROC ; SimMoverClass::Handle
; _this$ = ecx

; 894  : {

	push	ebp
	mov	ebp, esp
	sub	esp, 8
	mov	DWORD PTR _this$[ebp], ecx

; 895  : 	UnitClass	*campObj = (UnitClass*) GetCampaignObject();

	mov	ecx, DWORD PTR _this$[ebp]
	call	?GetCampaignObject@SimBaseClass@@QAEPAVCampBaseClass@@XZ ; SimBaseClass::GetCampaignObject
	mov	DWORD PTR _campObj$[ebp], eax

; 896  : 
; 897  : 	if (campObj && campObj->IsLocal() && campObj->GetComponentLead() == this){

	cmp	DWORD PTR _campObj$[ebp], 0
	je	$LN1@Handle
	mov	ecx, DWORD PTR _campObj$[ebp]
	call	?IsLocal@VuEntity@@QBEEXZ		; VuEntity::IsLocal
	movzx	eax, al
	test	eax, eax
	je	$LN1@Handle
	mov	ecx, DWORD PTR _campObj$[ebp]
	call	?GetComponentLead@CampBaseClass@@QAEPAVSimBaseClass@@XZ ; CampBaseClass::GetComponentLead
	cmp	eax, DWORD PTR _this$[ebp]
	jne	$LN1@Handle

; 898  : 		campObj->SimSetLocation(event->x_, event->y_, event->z_);

	mov	ecx, DWORD PTR _event$[ebp]
	push	ecx
	movss	xmm0, DWORD PTR [ecx+71]
	movss	DWORD PTR [esp], xmm0
	mov	edx, DWORD PTR _event$[ebp]
	push	ecx
	movss	xmm0, DWORD PTR [edx+67]
	movss	DWORD PTR [esp], xmm0
	mov	eax, DWORD PTR _event$[ebp]
	push	ecx
	movss	xmm0, DWORD PTR [eax+63]
	movss	DWORD PTR [esp], xmm0
	mov	ecx, DWORD PTR _campObj$[ebp]
	mov	edx, DWORD PTR [ecx]
	mov	ecx, DWORD PTR _campObj$[ebp]
	mov	eax, DWORD PTR [edx+556]
	call	eax

; 899  : 		if (campObj->IsFlight())

	mov	ecx, DWORD PTR _campObj$[ebp]
	mov	edx, DWORD PTR [ecx]
	mov	ecx, DWORD PTR _campObj$[ebp]
	mov	eax, DWORD PTR [edx+248]
	call	eax
	test	eax, eax
	je	SHORT $LN1@Handle

; 900  : 			campObj->SimSetOrientation (event->yaw_, event->pitch_, event->roll_);

	mov	ecx, DWORD PTR _event$[ebp]
	push	ecx
	movss	xmm0, DWORD PTR [ecx+56]
	movss	DWORD PTR [esp], xmm0
	mov	edx, DWORD PTR _event$[ebp]
	push	ecx
	movss	xmm0, DWORD PTR [edx+52]
	movss	DWORD PTR [esp], xmm0
	mov	eax, DWORD PTR _event$[ebp]
	push	ecx
	movss	xmm0, DWORD PTR [eax+48]
	movss	DWORD PTR [esp], xmm0
	mov	ecx, DWORD PTR _campObj$[ebp]
	mov	edx, DWORD PTR [ecx]
	mov	ecx, DWORD PTR _campObj$[ebp]
	mov	eax, DWORD PTR [edx+560]
	call	eax
$LN1@Handle:

; 901  : 	}
; 902  : 
; 903  : 	return (SimBaseClass::Handle(event));

	mov	ecx, DWORD PTR _event$[ebp]
	push	ecx
	mov	ecx, DWORD PTR _this$[ebp]
	call	?Handle@SimBaseClass@@UAEHPAVVuPositionUpdateEvent@@@Z ; SimBaseClass::Handle

; 904  : }

	mov	esp, ebp
	pop	ebp
	ret	4
?Handle@SimMoverClass@@UAEHPAVVuPositionUpdateEvent@@@Z ENDP ; SimMoverClass::Handle
_TEXT	ENDS
; Function compile flags: /Odtp
; File c:\users\zhitao li\documents\visual studio 2012\projects\freefalcon\sim\simlib\simmover.cpp
_TEXT	SEGMENT
_tmpMover$ = -12					; size = 4
_i$ = -8						; size = 4
_this$ = -4						; size = 4
_event$ = 8						; size = 4
?Handle@SimMoverClass@@UAEHPAVVuFullUpdateEvent@@@Z PROC ; SimMoverClass::Handle
; _this$ = ecx

; 872  : {

	push	ebp
	mov	ebp, esp
	sub	esp, 12					; 0000000cH
	push	esi
	mov	DWORD PTR _this$[ebp], ecx

; 873  : 	SimMoverClass* tmpMover = (SimMoverClass*)(event->expandedData_.get());

	mov	ecx, DWORD PTR _event$[ebp]
	add	ecx, 48					; 00000030H
	call	?get@?$VuBin@VVuEntity@@@@QBEPAVVuEntity@@XZ ; VuBin<VuEntity>::get
	mov	DWORD PTR _tmpMover$[ebp], eax

; 874  : 	int i;
; 875  : 
; 876  : 	// Copy Switch and DOF data
; 877  : 	memcpy (&numDofs, &tmpMover->numDofs, sizeof (int));

	push	4
	mov	eax, DWORD PTR _tmpMover$[ebp]
	add	eax, 600				; 00000258H
	push	eax
	mov	ecx, DWORD PTR _this$[ebp]
	add	ecx, 600				; 00000258H
	push	ecx
	call	_memcpy
	add	esp, 12					; 0000000cH

; 878  : 	memcpy (DOFData, tmpMover->DOFData, sizeof (float) * numDofs);

	mov	edx, DWORD PTR _this$[ebp]
	mov	eax, DWORD PTR [edx+600]
	shl	eax, 2
	push	eax
	mov	ecx, DWORD PTR _tmpMover$[ebp]
	mov	edx, DWORD PTR [ecx+612]
	push	edx
	mov	eax, DWORD PTR _this$[ebp]
	mov	ecx, DWORD PTR [eax+612]
	push	ecx
	call	_memcpy
	add	esp, 12					; 0000000cH

; 879  : 	memcpy (DOFType, tmpMover->DOFType, sizeof (int) * numDofs);

	mov	edx, DWORD PTR _this$[ebp]
	mov	eax, DWORD PTR [edx+600]
	shl	eax, 2
	push	eax
	mov	ecx, DWORD PTR _tmpMover$[ebp]
	mov	edx, DWORD PTR [ecx+620]
	push	edx
	mov	eax, DWORD PTR _this$[ebp]
	mov	ecx, DWORD PTR [eax+620]
	push	ecx
	call	_memcpy
	add	esp, 12					; 0000000cH

; 880  : 
; 881  : 	memcpy (&numSwitches, &tmpMover->numSwitches, sizeof (int));

	push	4
	mov	edx, DWORD PTR _tmpMover$[ebp]
	add	edx, 604				; 0000025cH
	push	edx
	mov	eax, DWORD PTR _this$[ebp]
	add	eax, 604				; 0000025cH
	push	eax
	call	_memcpy
	add	esp, 12					; 0000000cH

; 882  : 
; 883  : 	for (i=0; i<numSwitches; i++){

	mov	DWORD PTR _i$[ebp], 0
	jmp	SHORT $LN4@Handle
$LN3@Handle:
	mov	ecx, DWORD PTR _i$[ebp]
	add	ecx, 1
	mov	DWORD PTR _i$[ebp], ecx
$LN4@Handle:
	mov	edx, DWORD PTR _this$[ebp]
	mov	eax, DWORD PTR _i$[ebp]
	cmp	eax, DWORD PTR [edx+604]
	jge	SHORT $LN2@Handle

; 884  : 			if (switchData[i] != tmpMover->switchData[i]){

	mov	ecx, DWORD PTR _this$[ebp]
	mov	edx, DWORD PTR [ecx+592]
	mov	eax, DWORD PTR _tmpMover$[ebp]
	mov	ecx, DWORD PTR [eax+592]
	mov	eax, DWORD PTR _i$[ebp]
	mov	esi, DWORD PTR _i$[ebp]
	mov	edx, DWORD PTR [edx+eax*4]
	cmp	edx, DWORD PTR [ecx+esi*4]
	je	SHORT $LN1@Handle

; 885  : 				switchData[i] = tmpMover->switchData[i];

	mov	eax, DWORD PTR _tmpMover$[ebp]
	mov	ecx, DWORD PTR [eax+592]
	mov	edx, DWORD PTR _this$[ebp]
	mov	eax, DWORD PTR [edx+592]
	mov	edx, DWORD PTR _i$[ebp]
	mov	esi, DWORD PTR _i$[ebp]
	mov	ecx, DWORD PTR [ecx+esi*4]
	mov	DWORD PTR [eax+edx*4], ecx

; 886  : 				switchChange[i] = TRUE;

	mov	edx, DWORD PTR _this$[ebp]
	mov	eax, DWORD PTR [edx+596]
	mov	ecx, DWORD PTR _i$[ebp]
	mov	DWORD PTR [eax+ecx*4], 1
$LN1@Handle:

; 887  : 			}
; 888  : 	}

	jmp	SHORT $LN3@Handle
$LN2@Handle:

; 889  : 
; 890  : 	return (SimBaseClass::Handle(event));

	mov	edx, DWORD PTR _event$[ebp]
	push	edx
	mov	ecx, DWORD PTR _this$[ebp]
	call	?Handle@SimBaseClass@@UAEHPAVVuFullUpdateEvent@@@Z ; SimBaseClass::Handle

; 891  : }

	pop	esi
	mov	esp, ebp
	pop	ebp
	ret	4
?Handle@SimMoverClass@@UAEHPAVVuFullUpdateEvent@@@Z ENDP ; SimMoverClass::Handle
_TEXT	ENDS
; Function compile flags: /Odtp
; File c:\users\zhitao li\documents\visual studio 2012\projects\freefalcon\sim\simlib\simmover.cpp
_TEXT	SEGMENT
_this$ = -8						; size = 4
_retval$ = -4						; size = 4
_file$ = 8						; size = 4
?Save@SimMoverClass@@UAEHPAU_iobuf@@@Z PROC		; SimMoverClass::Save
; _this$ = ecx

; 850  : {

	push	ebp
	mov	ebp, esp
	sub	esp, 8
	mov	DWORD PTR _this$[ebp], ecx

; 851  : int retval;
; 852  : 
; 853  :    retval = SimBaseClass::Save (file);

	mov	eax, DWORD PTR _file$[ebp]
	push	eax
	mov	ecx, DWORD PTR _this$[ebp]
	call	?Save@SimBaseClass@@UAEHPAU_iobuf@@@Z	; SimBaseClass::Save
	mov	DWORD PTR _retval$[ebp], eax

; 854  : 
; 855  :    retval += fwrite (&numDofs, sizeof(int), 1, file);

	mov	ecx, DWORD PTR _file$[ebp]
	push	ecx
	push	1
	push	4
	mov	edx, DWORD PTR _this$[ebp]
	add	edx, 600				; 00000258H
	push	edx
	call	_fwrite
	add	esp, 16					; 00000010H
	add	eax, DWORD PTR _retval$[ebp]
	mov	DWORD PTR _retval$[ebp], eax

; 856  :    retval += fwrite (DOFData, sizeof(float), numDofs, file);

	mov	eax, DWORD PTR _file$[ebp]
	push	eax
	mov	ecx, DWORD PTR _this$[ebp]
	mov	edx, DWORD PTR [ecx+600]
	push	edx
	push	4
	mov	eax, DWORD PTR _this$[ebp]
	mov	ecx, DWORD PTR [eax+612]
	push	ecx
	call	_fwrite
	add	esp, 16					; 00000010H
	add	eax, DWORD PTR _retval$[ebp]
	mov	DWORD PTR _retval$[ebp], eax

; 857  :    retval += fwrite (DOFType, sizeof(int), numDofs, file);

	mov	edx, DWORD PTR _file$[ebp]
	push	edx
	mov	eax, DWORD PTR _this$[ebp]
	mov	ecx, DWORD PTR [eax+600]
	push	ecx
	push	4
	mov	edx, DWORD PTR _this$[ebp]
	mov	eax, DWORD PTR [edx+620]
	push	eax
	call	_fwrite
	add	esp, 16					; 00000010H
	add	eax, DWORD PTR _retval$[ebp]
	mov	DWORD PTR _retval$[ebp], eax

; 858  : 
; 859  :    retval += fwrite (&numVertices, sizeof(int), 1, file);

	mov	ecx, DWORD PTR _file$[ebp]
	push	ecx
	push	1
	push	4
	mov	edx, DWORD PTR _this$[ebp]
	add	edx, 608				; 00000260H
	push	edx
	call	_fwrite
	add	esp, 16					; 00000010H
	add	eax, DWORD PTR _retval$[ebp]
	mov	DWORD PTR _retval$[ebp], eax

; 860  :    if (numVertices)

	mov	eax, DWORD PTR _this$[ebp]
	cmp	DWORD PTR [eax+608], 0
	je	SHORT $LN1@Save

; 861  :    {
; 862  :       retval += fwrite (VertexData, sizeof(float), numVertices, file);

	mov	ecx, DWORD PTR _file$[ebp]
	push	ecx
	mov	edx, DWORD PTR _this$[ebp]
	mov	eax, DWORD PTR [edx+608]
	push	eax
	push	4
	mov	ecx, DWORD PTR _this$[ebp]
	mov	edx, DWORD PTR [ecx+616]
	push	edx
	call	_fwrite
	add	esp, 16					; 00000010H
	add	eax, DWORD PTR _retval$[ebp]
	mov	DWORD PTR _retval$[ebp], eax
$LN1@Save:

; 863  :    }
; 864  : 
; 865  :    retval += fwrite (&numSwitches, sizeof(int), 1, file);

	mov	eax, DWORD PTR _file$[ebp]
	push	eax
	push	1
	push	4
	mov	ecx, DWORD PTR _this$[ebp]
	add	ecx, 604				; 0000025cH
	push	ecx
	call	_fwrite
	add	esp, 16					; 00000010H
	add	eax, DWORD PTR _retval$[ebp]
	mov	DWORD PTR _retval$[ebp], eax

; 866  :    retval += fwrite (switchData, sizeof(int), numSwitches, file);

	mov	edx, DWORD PTR _file$[ebp]
	push	edx
	mov	eax, DWORD PTR _this$[ebp]
	mov	ecx, DWORD PTR [eax+604]
	push	ecx
	push	4
	mov	edx, DWORD PTR _this$[ebp]
	mov	eax, DWORD PTR [edx+592]
	push	eax
	call	_fwrite
	add	esp, 16					; 00000010H
	add	eax, DWORD PTR _retval$[ebp]
	mov	DWORD PTR _retval$[ebp], eax

; 867  : 
; 868  :    return (retval);

	mov	eax, DWORD PTR _retval$[ebp]

; 869  : }

	mov	esp, ebp
	pop	ebp
	ret	4
?Save@SimMoverClass@@UAEHPAU_iobuf@@@Z ENDP		; SimMoverClass::Save
_TEXT	ENDS
; Function compile flags: /Odtp
; File c:\users\zhitao li\documents\visual studio 2012\projects\freefalcon\sim\simlib\simmover.cpp
_TEXT	SEGMENT
_this$ = -4						; size = 4
_stream$ = 8						; size = 4
?Save@SimMoverClass@@UAEHPAPAE@Z PROC			; SimMoverClass::Save
; _this$ = ecx

; 817  : {

	push	ebp
	mov	ebp, esp
	push	ecx
	mov	DWORD PTR _this$[ebp], ecx

; 818  :    SimBaseClass::Save(stream);

	mov	eax, DWORD PTR _stream$[ebp]
	push	eax
	mov	ecx, DWORD PTR _this$[ebp]
	call	?Save@SimBaseClass@@UAEHPAPAE@Z		; SimBaseClass::Save

; 819  : 
; 820  :    memcpy (*stream, &numDofs, sizeof (int));

	push	4
	mov	ecx, DWORD PTR _this$[ebp]
	add	ecx, 600				; 00000258H
	push	ecx
	mov	edx, DWORD PTR _stream$[ebp]
	mov	eax, DWORD PTR [edx]
	push	eax
	call	_memcpy
	add	esp, 12					; 0000000cH

; 821  :    *stream += sizeof (int);

	mov	ecx, DWORD PTR _stream$[ebp]
	mov	edx, DWORD PTR [ecx]
	add	edx, 4
	mov	eax, DWORD PTR _stream$[ebp]
	mov	DWORD PTR [eax], edx

; 822  :    memcpy (*stream, DOFData, sizeof (float) * numDofs);

	mov	ecx, DWORD PTR _this$[ebp]
	mov	edx, DWORD PTR [ecx+600]
	shl	edx, 2
	push	edx
	mov	eax, DWORD PTR _this$[ebp]
	mov	ecx, DWORD PTR [eax+612]
	push	ecx
	mov	edx, DWORD PTR _stream$[ebp]
	mov	eax, DWORD PTR [edx]
	push	eax
	call	_memcpy
	add	esp, 12					; 0000000cH

; 823  :    *stream += sizeof (float) * numDofs;

	mov	ecx, DWORD PTR _this$[ebp]
	mov	edx, DWORD PTR [ecx+600]
	mov	eax, DWORD PTR _stream$[ebp]
	mov	ecx, DWORD PTR [eax]
	lea	edx, DWORD PTR [ecx+edx*4]
	mov	eax, DWORD PTR _stream$[ebp]
	mov	DWORD PTR [eax], edx

; 824  : 
; 825  :    memcpy (*stream, DOFType, sizeof (int) * numDofs);

	mov	ecx, DWORD PTR _this$[ebp]
	mov	edx, DWORD PTR [ecx+600]
	shl	edx, 2
	push	edx
	mov	eax, DWORD PTR _this$[ebp]
	mov	ecx, DWORD PTR [eax+620]
	push	ecx
	mov	edx, DWORD PTR _stream$[ebp]
	mov	eax, DWORD PTR [edx]
	push	eax
	call	_memcpy
	add	esp, 12					; 0000000cH

; 826  :    *stream += sizeof (int) * numDofs;

	mov	ecx, DWORD PTR _this$[ebp]
	mov	edx, DWORD PTR [ecx+600]
	mov	eax, DWORD PTR _stream$[ebp]
	mov	ecx, DWORD PTR [eax]
	lea	edx, DWORD PTR [ecx+edx*4]
	mov	eax, DWORD PTR _stream$[ebp]
	mov	DWORD PTR [eax], edx

; 827  : 
; 828  :    memcpy (*stream, &numVertices, sizeof (int));

	push	4
	mov	ecx, DWORD PTR _this$[ebp]
	add	ecx, 608				; 00000260H
	push	ecx
	mov	edx, DWORD PTR _stream$[ebp]
	mov	eax, DWORD PTR [edx]
	push	eax
	call	_memcpy
	add	esp, 12					; 0000000cH

; 829  :    *stream += sizeof (int);

	mov	ecx, DWORD PTR _stream$[ebp]
	mov	edx, DWORD PTR [ecx]
	add	edx, 4
	mov	eax, DWORD PTR _stream$[ebp]
	mov	DWORD PTR [eax], edx

; 830  :    if (numVertices)

	mov	ecx, DWORD PTR _this$[ebp]
	cmp	DWORD PTR [ecx+608], 0
	je	SHORT $LN1@Save

; 831  :    {
; 832  :       memcpy (*stream, VertexData, sizeof (float) * numVertices);

	mov	edx, DWORD PTR _this$[ebp]
	mov	eax, DWORD PTR [edx+608]
	shl	eax, 2
	push	eax
	mov	ecx, DWORD PTR _this$[ebp]
	mov	edx, DWORD PTR [ecx+616]
	push	edx
	mov	eax, DWORD PTR _stream$[ebp]
	mov	ecx, DWORD PTR [eax]
	push	ecx
	call	_memcpy
	add	esp, 12					; 0000000cH

; 833  :       *stream += sizeof (float) * numVertices;

	mov	edx, DWORD PTR _this$[ebp]
	mov	eax, DWORD PTR [edx+608]
	mov	ecx, DWORD PTR _stream$[ebp]
	mov	edx, DWORD PTR [ecx]
	lea	eax, DWORD PTR [edx+eax*4]
	mov	ecx, DWORD PTR _stream$[ebp]
	mov	DWORD PTR [ecx], eax
$LN1@Save:

; 834  :    }
; 835  : 
; 836  :    memcpy (*stream, &numSwitches, sizeof (int));

	push	4
	mov	edx, DWORD PTR _this$[ebp]
	add	edx, 604				; 0000025cH
	push	edx
	mov	eax, DWORD PTR _stream$[ebp]
	mov	ecx, DWORD PTR [eax]
	push	ecx
	call	_memcpy
	add	esp, 12					; 0000000cH

; 837  :    *stream += sizeof (int);

	mov	edx, DWORD PTR _stream$[ebp]
	mov	eax, DWORD PTR [edx]
	add	eax, 4
	mov	ecx, DWORD PTR _stream$[ebp]
	mov	DWORD PTR [ecx], eax

; 838  :    memcpy (*stream, switchData, sizeof (int) * numSwitches);

	mov	edx, DWORD PTR _this$[ebp]
	mov	eax, DWORD PTR [edx+604]
	shl	eax, 2
	push	eax
	mov	ecx, DWORD PTR _this$[ebp]
	mov	edx, DWORD PTR [ecx+592]
	push	edx
	mov	eax, DWORD PTR _stream$[ebp]
	mov	ecx, DWORD PTR [eax]
	push	ecx
	call	_memcpy
	add	esp, 12					; 0000000cH

; 839  :    *stream += sizeof (int) * numSwitches;

	mov	edx, DWORD PTR _this$[ebp]
	mov	eax, DWORD PTR [edx+604]
	mov	ecx, DWORD PTR _stream$[ebp]
	mov	edx, DWORD PTR [ecx]
	lea	eax, DWORD PTR [edx+eax*4]
	mov	ecx, DWORD PTR _stream$[ebp]
	mov	DWORD PTR [ecx], eax

; 840  : 
; 841  :    memcpy (*stream, &vehicleInUnit, sizeof (uchar));

	push	1
	mov	edx, DWORD PTR _this$[ebp]
	add	edx, 664				; 00000298H
	push	edx
	mov	eax, DWORD PTR _stream$[ebp]
	mov	ecx, DWORD PTR [eax]
	push	ecx
	call	_memcpy
	add	esp, 12					; 0000000cH

; 842  :    *stream += sizeof (uchar);

	mov	edx, DWORD PTR _stream$[ebp]
	mov	eax, DWORD PTR [edx]
	add	eax, 1
	mov	ecx, DWORD PTR _stream$[ebp]
	mov	DWORD PTR [ecx], eax

; 843  :    memcpy (*stream, &pilotSlot, sizeof (uchar));

	push	1
	mov	edx, DWORD PTR _this$[ebp]
	add	edx, 665				; 00000299H
	push	edx
	mov	eax, DWORD PTR _stream$[ebp]
	mov	ecx, DWORD PTR [eax]
	push	ecx
	call	_memcpy
	add	esp, 12					; 0000000cH

; 844  :    *stream += sizeof (uchar);

	mov	edx, DWORD PTR _stream$[ebp]
	mov	eax, DWORD PTR [edx]
	add	eax, 1
	mov	ecx, DWORD PTR _stream$[ebp]
	mov	DWORD PTR [ecx], eax

; 845  : 
; 846  :    return numDofs * sizeof (float) + numSwitches * sizeof (int) + 2 * sizeof (int) + 2 * sizeof (uchar);

	mov	edx, DWORD PTR _this$[ebp]
	mov	eax, DWORD PTR [edx+600]
	mov	ecx, DWORD PTR _this$[ebp]
	mov	edx, DWORD PTR [ecx+604]
	shl	edx, 2
	lea	eax, DWORD PTR [edx+eax*4+10]

; 847  : }

	mov	esp, ebp
	pop	ebp
	ret	4
?Save@SimMoverClass@@UAEHPAPAE@Z ENDP			; SimMoverClass::Save
_TEXT	ENDS
; Function compile flags: /Odtp
; File c:\users\zhitao li\documents\visual studio 2012\projects\freefalcon\sim\simlib\simmover.cpp
_TEXT	SEGMENT
_this$ = -4						; size = 4
?SaveSize@SimMoverClass@@UAEHXZ PROC			; SimMoverClass::SaveSize
; _this$ = ecx

; 805  : {

	push	ebp
	mov	ebp, esp
	push	ecx
	mov	DWORD PTR _this$[ebp], ecx

; 806  :    return SimBaseClass::SaveSize() +
; 807  :       numDofs * (sizeof (float) + sizeof (int)) + // DOFData and DofType
; 808  :       numSwitches * sizeof (int) + // SwitchData
; 809  :       numVertices * sizeof (float) + // VertexData
; 810  :       3 * sizeof (int) + // numDofs, numSwitches, numVertices;
; 811  : 	  2 * sizeof (uchar); // pilotSlot and aircraftSlot;

	mov	ecx, DWORD PTR _this$[ebp]
	call	?SaveSize@SimBaseClass@@UAEHXZ		; SimBaseClass::SaveSize
	mov	ecx, DWORD PTR _this$[ebp]
	mov	edx, DWORD PTR [ecx+600]
	lea	eax, DWORD PTR [eax+edx*8]
	mov	ecx, DWORD PTR _this$[ebp]
	mov	edx, DWORD PTR [ecx+604]
	lea	eax, DWORD PTR [eax+edx*4]
	mov	ecx, DWORD PTR _this$[ebp]
	mov	edx, DWORD PTR [ecx+608]
	lea	eax, DWORD PTR [eax+edx*4+14]

; 812  : //   return SimBaseClass::SaveSize() + numDofs * (sizeof (float) + sizeof (int)) +
; 813  : //      (numSwitches + 3) * sizeof (int) + + numVertices * sizeof(float);
; 814  : }

	mov	esp, ebp
	pop	ebp
	ret	0
?SaveSize@SimMoverClass@@UAEHXZ ENDP			; SimMoverClass::SaveSize
_TEXT	ENDS
; Function compile flags: /Odtp
; File c:\users\zhitao li\documents\visual studio 2012\projects\freefalcon\sim\include\simmover.h
;	COMDAT ?WeaponKeepAlive@SimMoverClass@@UAEXXZ
_TEXT	SEGMENT
_this$ = -4						; size = 4
?WeaponKeepAlive@SimMoverClass@@UAEXXZ PROC		; SimMoverClass::WeaponKeepAlive, COMDAT
; _this$ = ecx

; 109  : 	virtual void WeaponKeepAlive() { return; };

	push	ebp
	mov	ebp, esp
	push	ecx
	mov	DWORD PTR _this$[ebp], ecx
	mov	esp, ebp
	pop	ebp
	ret	0
?WeaponKeepAlive@SimMoverClass@@UAEXXZ ENDP		; SimMoverClass::WeaponKeepAlive
_TEXT	ENDS
; Function compile flags: /Odtp
; File c:\users\zhitao li\documents\visual studio 2012\projects\freefalcon\sim\simlib\simmover.cpp
_TEXT	SEGMENT
_this$ = -4						; size = 4
?PositionUpdateDone@SimMoverClass@@QAEXXZ PROC		; SimMoverClass::PositionUpdateDone
; _this$ = ecx

; 367  : void SimMoverClass::PositionUpdateDone(){

	push	ebp
	mov	ebp, esp
	push	ecx
	mov	DWORD PTR _this$[ebp], ecx

; 368  : 	waitingUpdateFromServer = false;

	mov	eax, DWORD PTR _this$[ebp]
	mov	BYTE PTR [eax+636], 0

; 369  : }

	mov	esp, ebp
	pop	ebp
	ret	0
?PositionUpdateDone@SimMoverClass@@QAEXXZ ENDP		; SimMoverClass::PositionUpdateDone
_TEXT	ENDS
; Function compile flags: /Odtp
; File c:\users\zhitao li\documents\visual studio 2012\projects\freefalcon\sim\simlib\simmover.cpp
_TEXT	SEGMENT
_SLEEP_IVAL_MS$2 = -48					; size = 4
_rpu$ = -44						; size = 4
$T3 = -40						; size = 4
tv141 = -36						; size = 4
$T4 = -32						; size = 4
tv76 = -28						; size = 4
_delay$ = -24						; size = 4
_this$ = -20						; size = 4
tv156 = -13						; size = 1
__$EHRec$ = -12						; size = 12
_ms$ = 8						; size = 4
?UpdatePositionFromLastOwner@SimMoverClass@@QAE_NK@Z PROC ; SimMoverClass::UpdatePositionFromLastOwner
; _this$ = ecx

; 372  : bool SimMoverClass::UpdatePositionFromLastOwner(unsigned long ms){

	push	ebp
	mov	ebp, esp
	push	-1
	push	__ehhandler$?UpdatePositionFromLastOwner@SimMoverClass@@QAE_NK@Z
	mov	eax, DWORD PTR fs:0
	push	eax
	sub	esp, 36					; 00000024H
	mov	eax, DWORD PTR ___security_cookie
	xor	eax, ebp
	push	eax
	lea	eax, DWORD PTR __$EHRec$[ebp]
	mov	DWORD PTR fs:0, eax
	mov	DWORD PTR _this$[ebp], ecx

; 373  : 	if (
; 374  : 		(FalconLocalGame == NULL) || 
; 375  : 		(lastOwnerId == FalconNullId) || 
; 376  : 		(lastOwnerId == FalconLocalSessionId) ||
; 377  : 		(vuDatabase->Find(lastOwnerId) == NULL)
; 378  : 	){

	mov	ecx, OFFSET ?vuLocalSessionEntity@@3V?$VuBin@VVuSessionEntity@@@@A ; vuLocalSessionEntity
	call	??B?$VuBin@VVuSessionEntity@@@@QBE_NXZ	; VuBin<VuSessionEntity>::operator bool
	movzx	eax, al
	test	eax, eax
	je	SHORT $LN9@UpdatePosi
	mov	ecx, OFFSET ?vuLocalSessionEntity@@3V?$VuBin@VVuSessionEntity@@@@A ; vuLocalSessionEntity
	call	?get@?$VuBin@VVuSessionEntity@@@@QBEPAVVuSessionEntity@@XZ ; VuBin<VuSessionEntity>::get
	mov	ecx, eax
	call	?GetGame@FalconSessionEntity@@QAEPAVFalconGameEntity@@XZ ; FalconSessionEntity::GetGame
	mov	DWORD PTR tv76[ebp], eax
	jmp	SHORT $LN10@UpdatePosi
$LN9@UpdatePosi:
	mov	DWORD PTR tv76[ebp], 0
$LN10@UpdatePosi:
	cmp	DWORD PTR tv76[ebp], 0
	je	SHORT $LN5@UpdatePosi
	push	OFFSET ?FalconNullId@@3VVU_ID@@A	; FalconNullId
	mov	ecx, DWORD PTR _this$[ebp]
	add	ecx, 640				; 00000280H
	call	??8VU_ID@@QBE_NABV0@@Z			; VU_ID::operator==
	movzx	ecx, al
	test	ecx, ecx
	jne	SHORT $LN5@UpdatePosi
	push	OFFSET ?vuLocalSession@@3VVU_ID@@A	; vuLocalSession
	mov	ecx, DWORD PTR _this$[ebp]
	add	ecx, 640				; 00000280H
	call	??8VU_ID@@QBE_NABV0@@Z			; VU_ID::operator==
	movzx	edx, al
	test	edx, edx
	jne	SHORT $LN5@UpdatePosi
	mov	eax, DWORD PTR _this$[ebp]
	mov	ecx, DWORD PTR [eax+644]
	push	ecx
	mov	edx, DWORD PTR [eax+640]
	push	edx
	mov	ecx, DWORD PTR ?vuDatabase@@3PAVVuDatabase@@A ; vuDatabase
	call	?Find@VuDatabase@@QBEPAVVuEntity@@VVU_ID@@@Z ; VuDatabase::Find
	test	eax, eax
	jne	SHORT $LN6@UpdatePosi
$LN5@UpdatePosi:

; 379  : 		// sfr: we need to see if this check is causing clients to not request the unit
; 380  : 		return false;

	xor	al, al
	jmp	$LN7@UpdatePosi
$LN6@UpdatePosi:

; 381  : 	}
; 382  : 
; 383  : 	waitingUpdateFromServer = true;

	mov	eax, DWORD PTR _this$[ebp]
	mov	BYTE PTR [eax+636], 1

; 384  : 	FalconEvent *rpu = new RequestSimMoverPosition(this, lastOwnerId);

	push	48					; 00000030H
	call	??2@YAPAXI@Z				; operator new
	add	esp, 4
	mov	DWORD PTR $T4[ebp], eax
	mov	DWORD PTR __$EHRec$[ebp+8], 0
	cmp	DWORD PTR $T4[ebp], 0
	je	SHORT $LN11@UpdatePosi
	mov	ecx, DWORD PTR _this$[ebp]
	mov	edx, DWORD PTR [ecx+644]
	push	edx
	mov	eax, DWORD PTR [ecx+640]
	push	eax
	mov	ecx, DWORD PTR _this$[ebp]
	push	ecx
	mov	ecx, DWORD PTR $T4[ebp]
	call	??0RequestSimMoverPosition@@QAE@PAVSimMoverClass@@VVU_ID@@@Z ; RequestSimMoverPosition::RequestSimMoverPosition
	mov	DWORD PTR tv141[ebp], eax
	jmp	SHORT $LN12@UpdatePosi
$LN11@UpdatePosi:
	mov	DWORD PTR tv141[ebp], 0
$LN12@UpdatePosi:
	mov	edx, DWORD PTR tv141[ebp]
	mov	DWORD PTR $T3[ebp], edx
	mov	DWORD PTR __$EHRec$[ebp+8], -1
	mov	eax, DWORD PTR $T3[ebp]
	mov	DWORD PTR _rpu$[ebp], eax

; 385  : 	FalconSendMessage(rpu, true);

	push	1
	mov	ecx, DWORD PTR _rpu$[ebp]
	push	ecx
	call	?FalconSendMessage@@YAXPAVVuMessage@@H@Z ; FalconSendMessage
	add	esp, 8

; 386  : 	unsigned long delay = 0;

	mov	DWORD PTR _delay$[ebp], 0
$LN4@UpdatePosi:

; 387  : 	do {
; 388  : 		// easy polling here... check every 250ms...
; 389  : 		// ideally we should use signals here...
; 390  : 		const unsigned int SLEEP_IVAL_MS = 100;

	mov	DWORD PTR _SLEEP_IVAL_MS$2[ebp], 100	; 00000064H

; 391  : 		::Sleep(SLEEP_IVAL_MS);

	push	100					; 00000064H
	call	DWORD PTR __imp__Sleep@4

; 392  : 		delay += SLEEP_IVAL_MS;

	mov	edx, DWORD PTR _delay$[ebp]
	add	edx, 100				; 00000064H
	mov	DWORD PTR _delay$[ebp], edx

; 393  : 	} while (waitingUpdateFromServer && delay < ms);

	mov	eax, DWORD PTR _this$[ebp]
	movzx	ecx, BYTE PTR [eax+636]
	test	ecx, ecx
	je	SHORT $LN2@UpdatePosi
	mov	edx, DWORD PTR _delay$[ebp]
	cmp	edx, DWORD PTR _ms$[ebp]
	jb	SHORT $LN4@UpdatePosi
$LN2@UpdatePosi:

; 394  : 	waitingUpdateFromServer = false;

	mov	eax, DWORD PTR _this$[ebp]
	mov	BYTE PTR [eax+636], 0

; 395  : 	return delay < ms ? true : false;

	mov	ecx, DWORD PTR _delay$[ebp]
	cmp	ecx, DWORD PTR _ms$[ebp]
	jae	SHORT $LN13@UpdatePosi
	mov	BYTE PTR tv156[ebp], 1
	jmp	SHORT $LN14@UpdatePosi
$LN13@UpdatePosi:
	mov	BYTE PTR tv156[ebp], 0
$LN14@UpdatePosi:
	mov	al, BYTE PTR tv156[ebp]
$LN7@UpdatePosi:

; 396  : }

	mov	ecx, DWORD PTR __$EHRec$[ebp]
	mov	DWORD PTR fs:0, ecx
	pop	ecx
	mov	esp, ebp
	pop	ebp
	ret	4
_TEXT	ENDS
text$x	SEGMENT
__unwindfunclet$?UpdatePositionFromLastOwner@SimMoverClass@@QAE_NK@Z$0:
	mov	eax, DWORD PTR $T4[ebp]
	push	eax
	call	??3@YAXPAX@Z				; operator delete
	pop	ecx
	ret	0
__ehhandler$?UpdatePositionFromLastOwner@SimMoverClass@@QAE_NK@Z:
	mov	edx, DWORD PTR [esp+8]
	lea	eax, DWORD PTR [edx+12]
	mov	ecx, DWORD PTR [edx-40]
	xor	ecx, eax
	call	@__security_check_cookie@4
	mov	eax, OFFSET __ehfuncinfo$?UpdatePositionFromLastOwner@SimMoverClass@@QAE_NK@Z
	jmp	___CxxFrameHandler3
text$x	ENDS
?UpdatePositionFromLastOwner@SimMoverClass@@QAE_NK@Z ENDP ; SimMoverClass::UpdatePositionFromLastOwner
; Function compile flags: /Odtp
; File c:\users\zhitao li\documents\visual studio 2012\projects\freefalcon\sim\simlib\simmover.cpp
_TEXT	SEGMENT
$T1 = -20						; size = 8
$T2 = -12						; size = 8
_this$ = -4						; size = 4
_new_owner$ = 8						; size = 8
?ChangeOwner@SimMoverClass@@UAEXVVU_ID@@@Z PROC		; SimMoverClass::ChangeOwner
; _this$ = ecx

; 474  : void SimMoverClass::ChangeOwner(VU_ID new_owner){

	push	ebp
	mov	ebp, esp
	sub	esp, 20					; 00000014H
	mov	DWORD PTR _this$[ebp], ecx

; 475  : 	if (OwnerId() == new_owner){

	lea	eax, DWORD PTR _new_owner$[ebp]
	push	eax
	lea	ecx, DWORD PTR $T2[ebp]
	push	ecx
	mov	ecx, DWORD PTR _this$[ebp]
	call	?OwnerId@VuEntity@@QBE?AVVU_ID@@XZ	; VuEntity::OwnerId
	mov	ecx, eax
	call	??8VU_ID@@QBE_NABV0@@Z			; VU_ID::operator==
	movzx	edx, al
	test	edx, edx
	je	SHORT $LN1@ChangeOwne

; 476  : 		return;

	jmp	SHORT $LN2@ChangeOwne
$LN1@ChangeOwne:

; 477  : 	}
; 478  : 	// sfr: save last owner so we know who we can request this unit position
; 479  : 	// before owning it
; 480  : 	lastOwnerId = OwnerId();

	lea	eax, DWORD PTR $T1[ebp]
	push	eax
	mov	ecx, DWORD PTR _this$[ebp]
	call	?OwnerId@VuEntity@@QBE?AVVU_ID@@XZ	; VuEntity::OwnerId
	mov	ecx, DWORD PTR [eax]
	mov	edx, DWORD PTR [eax+4]
	mov	eax, DWORD PTR _this$[ebp]
	mov	DWORD PTR [eax+640], ecx
	mov	DWORD PTR [eax+644], edx

; 481  : 	SimBaseClass::ChangeOwner(new_owner);

	mov	ecx, DWORD PTR _new_owner$[ebp+4]
	push	ecx
	mov	edx, DWORD PTR _new_owner$[ebp]
	push	edx
	mov	ecx, DWORD PTR _this$[ebp]
	call	?ChangeOwner@SimBaseClass@@UAEXVVU_ID@@@Z ; SimBaseClass::ChangeOwner
$LN2@ChangeOwne:

; 482  : }

	mov	esp, ebp
	pop	ebp
	ret	8
?ChangeOwner@SimMoverClass@@UAEXVVU_ID@@@Z ENDP		; SimMoverClass::ChangeOwner
_TEXT	ENDS
; Function compile flags: /Odtp
; File c:\users\zhitao li\documents\visual studio 2012\projects\freefalcon\sim\simlib\simmover.cpp
_TEXT	SEGMENT
tv192 = -68						; size = 8
tv171 = -60						; size = 4
$T2 = -56						; size = 4
$T3 = -52						; size = 4
$T4 = -48						; size = 4
_oldd$ = -44						; size = 4
tv157 = -40						; size = 4
$T5 = -36						; size = 4
tv188 = -32						; size = 4
tv81 = -28						; size = 4
$T6 = -24						; size = 4
$T7 = -20						; size = 4
_this$ = -16						; size = 4
__$EHRec$ = -12						; size = 12
?MakeRemote@SimMoverClass@@UAEXXZ PROC			; SimMoverClass::MakeRemote
; _this$ = ecx

; 518  : {

	push	ebp
	mov	ebp, esp
	push	-1
	push	__ehhandler$?MakeRemote@SimMoverClass@@UAEXXZ
	mov	eax, DWORD PTR fs:0
	push	eax
	sub	esp, 56					; 00000038H
	mov	eax, DWORD PTR ___security_cookie
	xor	eax, ebp
	push	eax
	lea	eax, DWORD PTR __$EHRec$[ebp]
	mov	DWORD PTR fs:0, eax
	mov	DWORD PTR _this$[ebp], ecx

; 519  : 	// LEON TODO: Need to do all necessary shit to convert from a remote to a local entity.
; 520  : 	SimBaseClass::MakeRemote();

	mov	ecx, DWORD PTR _this$[ebp]
	call	?MakeRemote@SimBaseClass@@UAEXXZ	; SimBaseClass::MakeRemote

; 521  : 	
; 522  : 	// Allocate and init nonLocal Data
; 523  : 	nonLocalData = new SimBaseNonLocalData;

	push	32					; 00000020H
	call	??2@YAPAXI@Z				; operator new
	add	esp, 4
	mov	DWORD PTR $T6[ebp], eax
	mov	DWORD PTR __$EHRec$[ebp+8], 0
	cmp	DWORD PTR $T6[ebp], 0
	je	SHORT $LN4@MakeRemote
	mov	ecx, DWORD PTR $T6[ebp]
	call	??0SimBaseNonLocalData@@QAE@XZ		; SimBaseNonLocalData::SimBaseNonLocalData
	mov	DWORD PTR tv81[ebp], eax
	jmp	SHORT $LN5@MakeRemote
$LN4@MakeRemote:
	mov	DWORD PTR tv81[ebp], 0
$LN5@MakeRemote:
	mov	eax, DWORD PTR tv81[ebp]
	mov	DWORD PTR $T4[ebp], eax
	mov	DWORD PTR __$EHRec$[ebp+8], -1
	mov	ecx, DWORD PTR _this$[ebp]
	mov	edx, DWORD PTR $T4[ebp]
	mov	DWORD PTR [ecx+412], edx

; 524  : 	nonLocalData->flags = 0;

	mov	eax, DWORD PTR _this$[ebp]
	mov	ecx, DWORD PTR [eax+412]
	mov	DWORD PTR [ecx], 0

; 525  : 	nonLocalData->smokeTrail = NULL;

	mov	edx, DWORD PTR _this$[ebp]
	mov	eax, DWORD PTR [edx+412]
	mov	DWORD PTR [eax+28], 0

; 526  : 	nonLocalData->timer3 = (float)SimLibElapsedTime / SEC_TO_MSEC;

	mov	ecx, DWORD PTR ?SimLibElapsedTime@@3KA	; SimLibElapsedTime
	mov	DWORD PTR tv188[ebp], ecx
	cvtsi2sd xmm0, DWORD PTR tv188[ebp]
	mov	edx, DWORD PTR tv188[ebp]
	shr	edx, 31					; 0000001fH
	addsd	xmm0, QWORD PTR __xmm@41f00000000000000000000000000000[edx*8]
	movsd	QWORD PTR tv192[ebp], xmm0
	cvtsd2ss xmm0, QWORD PTR tv192[ebp]
	divss	xmm0, DWORD PTR __real@447a0000
	mov	eax, DWORD PTR _this$[ebp]
	mov	ecx, DWORD PTR [eax+412]
	movss	DWORD PTR [ecx+12], xmm0

; 527  : 	
; 528  : 	// The remote (slave) driver
; 529  : 	// SetDelta(0.0F, 0.0F, 0.0F);
; 530  : 	// SetYPRDelta(0.0F, 0.0F, 0.0F);
; 531  : 
; 532  : 	SimVuDriver *oldd = (SimVuDriver *)SetDriver(new SimVuSlave(this));

	push	80					; 00000050H
	call	??2@YAPAXI@Z				; operator new
	add	esp, 4
	mov	DWORD PTR $T5[ebp], eax
	mov	DWORD PTR __$EHRec$[ebp+8], 1
	cmp	DWORD PTR $T5[ebp], 0
	je	SHORT $LN6@MakeRemote
	mov	edx, DWORD PTR _this$[ebp]
	push	edx
	mov	ecx, DWORD PTR $T5[ebp]
	call	??0SimVuSlave@@QAE@PAVVuEntity@@@Z	; SimVuSlave::SimVuSlave
	mov	DWORD PTR tv157[ebp], eax
	jmp	SHORT $LN7@MakeRemote
$LN6@MakeRemote:
	mov	DWORD PTR tv157[ebp], 0
$LN7@MakeRemote:
	mov	eax, DWORD PTR tv157[ebp]
	mov	DWORD PTR $T3[ebp], eax
	mov	DWORD PTR __$EHRec$[ebp+8], -1
	mov	ecx, DWORD PTR $T3[ebp]
	push	ecx
	mov	ecx, DWORD PTR _this$[ebp]
	call	?SetDriver@VuEntity@@QAEPAVVuDriver@@PAV2@@Z ; VuEntity::SetDriver
	mov	DWORD PTR _oldd$[ebp], eax

; 533  : 	if ( oldd ){

	cmp	DWORD PTR _oldd$[ebp], 0
	je	SHORT $LN9@MakeRemote

; 534  : 		delete oldd;

	mov	edx, DWORD PTR _oldd$[ebp]
	mov	DWORD PTR $T2[ebp], edx
	mov	eax, DWORD PTR $T2[ebp]
	mov	DWORD PTR $T7[ebp], eax
	cmp	DWORD PTR $T7[ebp], 0
	je	SHORT $LN8@MakeRemote
	push	1
	mov	ecx, DWORD PTR $T7[ebp]
	mov	edx, DWORD PTR [ecx]
	mov	ecx, DWORD PTR $T7[ebp]
	mov	eax, DWORD PTR [edx]
	call	eax
	mov	DWORD PTR tv171[ebp], eax
	jmp	SHORT $LN9@MakeRemote
$LN8@MakeRemote:
	mov	DWORD PTR tv171[ebp], 0
$LN9@MakeRemote:

; 535  : 	}
; 536  : }

	mov	ecx, DWORD PTR __$EHRec$[ebp]
	mov	DWORD PTR fs:0, ecx
	pop	ecx
	mov	esp, ebp
	pop	ebp
	ret	0
_TEXT	ENDS
text$x	SEGMENT
__unwindfunclet$?MakeRemote@SimMoverClass@@UAEXXZ$0:
	mov	eax, DWORD PTR $T6[ebp]
	push	eax
	call	??3@YAXPAX@Z				; operator delete
	pop	ecx
	ret	0
__unwindfunclet$?MakeRemote@SimMoverClass@@UAEXXZ$1:
	mov	eax, DWORD PTR $T5[ebp]
	push	eax
	call	??3@YAXPAX@Z				; operator delete
	pop	ecx
	ret	0
__ehhandler$?MakeRemote@SimMoverClass@@UAEXXZ:
	mov	edx, DWORD PTR [esp+8]
	lea	eax, DWORD PTR [edx+12]
	mov	ecx, DWORD PTR [edx-60]
	xor	ecx, eax
	call	@__security_check_cookie@4
	mov	eax, OFFSET __ehfuncinfo$?MakeRemote@SimMoverClass@@UAEXXZ
	jmp	___CxxFrameHandler3
text$x	ENDS
?MakeRemote@SimMoverClass@@UAEXXZ ENDP			; SimMoverClass::MakeRemote
; Function compile flags: /Odtp
; File c:\users\zhitao li\documents\visual studio 2012\projects\freefalcon\sim\simlib\simmover.cpp
_TEXT	SEGMENT
$T2 = -56						; size = 4
tv171 = -52						; size = 4
$T3 = -48						; size = 4
tv136 = -44						; size = 4
$T4 = -40						; size = 4
tv193 = -36						; size = 4
$T5 = -32						; size = 4
_oldd$ = -28						; size = 4
$T6 = -24						; size = 4
$T7 = -20						; size = 4
_this$ = -16						; size = 4
__$EHRec$ = -12						; size = 12
?MakeLocal@SimMoverClass@@UAEXXZ PROC			; SimMoverClass::MakeLocal
; _this$ = ecx

; 485  : {

	push	ebp
	mov	ebp, esp
	push	-1
	push	__ehhandler$?MakeLocal@SimMoverClass@@UAEXXZ
	mov	eax, DWORD PTR fs:0
	push	eax
	sub	esp, 44					; 0000002cH
	mov	eax, DWORD PTR ___security_cookie
	xor	eax, ebp
	push	eax
	lea	eax, DWORD PTR __$EHRec$[ebp]
	mov	DWORD PTR fs:0, eax
	mov	DWORD PTR _this$[ebp], ecx

; 486  : 	// LEON TODO: Need to do all necessary shit to convert from a remote to a local entity.
; 487  : 	SimBaseClass::MakeLocal();

	mov	ecx, DWORD PTR _this$[ebp]
	call	?MakeLocal@SimBaseClass@@UAEXXZ		; SimBaseClass::MakeLocal

; 488  : 	
; 489  : 	// Clear all nonLocal data
; 490  : 	if (nonLocalData)

	mov	eax, DWORD PTR _this$[ebp]
	cmp	DWORD PTR [eax+412], 0
	je	SHORT $LN4@MakeLocal

; 491  : 	{
; 492  : 		// check for active smoketrail and send it to sfx for later removal
; 493  : 		if (nonLocalData->smokeTrail){

	mov	ecx, DWORD PTR _this$[ebp]
	mov	edx, DWORD PTR [ecx+412]
	cmp	DWORD PTR [edx+28], 0
	je	SHORT $LN3@MakeLocal

; 494  : 			// RV I-Hawk - RV new trail calls changes
; 495  : 	        //OTWDriver.AddSfxRequest(new SfxClass ( 2.0f, nonLocalData->smokeTrail ) );
; 496  : 			DrawableParticleSys::PS_KillTrail((PS_PTR)nonLocalData->smokeTrail);

	mov	eax, DWORD PTR _this$[ebp]
	mov	ecx, DWORD PTR [eax+412]
	mov	edx, DWORD PTR [ecx+28]
	push	edx
	call	?PS_KillTrail@DrawableParticleSys@@SAXK@Z ; DrawableParticleSys::PS_KillTrail
	add	esp, 4

; 497  : 			nonLocalData->smokeTrail = NULL;

	mov	eax, DWORD PTR _this$[ebp]
	mov	ecx, DWORD PTR [eax+412]
	mov	DWORD PTR [ecx+28], 0
$LN3@MakeLocal:

; 498  : 		}
; 499  : 		delete nonLocalData;

	mov	edx, DWORD PTR _this$[ebp]
	mov	eax, DWORD PTR [edx+412]
	mov	DWORD PTR $T4[ebp], eax
	mov	ecx, DWORD PTR $T4[ebp]
	mov	DWORD PTR $T6[ebp], ecx
	cmp	DWORD PTR $T6[ebp], 0
	je	SHORT $LN7@MakeLocal
	push	1
	mov	ecx, DWORD PTR $T6[ebp]
	call	??_GSimBaseNonLocalData@@QAEPAXI@Z
	mov	DWORD PTR tv136[ebp], eax
	jmp	SHORT $LN8@MakeLocal
$LN7@MakeLocal:
	mov	DWORD PTR tv136[ebp], 0
$LN8@MakeLocal:

; 500  : 		nonLocalData = NULL;

	mov	edx, DWORD PTR _this$[ebp]
	mov	DWORD PTR [edx+412], 0
$LN4@MakeLocal:

; 501  : 	}
; 502  : 	
; 503  : 	// The local (Master) driver.
; 504  : 	// SetDelta(0.0F, 0.0F, 0.0F);
; 505  : 	// SetYPRDelta(0.0F, 0.0F, 0.0F);
; 506  : 
; 507  : 	VuDriver *oldd = SetDriver(NULL);

	push	0
	mov	ecx, DWORD PTR _this$[ebp]
	call	?SetDriver@VuEntity@@QAEPAVVuDriver@@PAV2@@Z ; VuEntity::SetDriver
	mov	DWORD PTR _oldd$[ebp], eax

; 508  : 	if (oldd != NULL){

	cmp	DWORD PTR _oldd$[ebp], 0
	je	SHORT $LN2@MakeLocal

; 509  : 		if (this == FalconLocalSession->GetPlayerEntity()){

	mov	ecx, OFFSET ?vuLocalSessionEntity@@3V?$VuBin@VVuSessionEntity@@@@A ; vuLocalSessionEntity
	call	?get@?$VuBin@VVuSessionEntity@@@@QBEPAVVuSessionEntity@@XZ ; VuBin<VuSessionEntity>::get
	mov	ecx, eax
	call	?GetPlayerEntity@FalconSessionEntity@@QBEPAVFalconEntity@@XZ ; FalconSessionEntity::GetPlayerEntity
	cmp	DWORD PTR _this$[ebp], eax
	jne	SHORT $LN1@MakeLocal

; 510  : 			UpdatePositionFromLastOwner(10000);

	push	10000					; 00002710H
	mov	ecx, DWORD PTR _this$[ebp]
	call	?UpdatePositionFromLastOwner@SimMoverClass@@QAE_NK@Z ; SimMoverClass::UpdatePositionFromLastOwner
$LN1@MakeLocal:

; 511  : 		}
; 512  : 		delete oldd;

	mov	eax, DWORD PTR _oldd$[ebp]
	mov	DWORD PTR $T3[ebp], eax
	mov	ecx, DWORD PTR $T3[ebp]
	mov	DWORD PTR $T7[ebp], ecx
	cmp	DWORD PTR $T7[ebp], 0
	je	SHORT $LN9@MakeLocal
	push	1
	mov	edx, DWORD PTR $T7[ebp]
	mov	eax, DWORD PTR [edx]
	mov	ecx, DWORD PTR $T7[ebp]
	mov	edx, DWORD PTR [eax]
	call	edx
	mov	DWORD PTR tv171[ebp], eax
	jmp	SHORT $LN2@MakeLocal
$LN9@MakeLocal:
	mov	DWORD PTR tv171[ebp], 0
$LN2@MakeLocal:

; 513  : 	}
; 514  : 	SetDriver(new SimVuDriver(this));

	push	100					; 00000064H
	call	??2@YAPAXI@Z				; operator new
	add	esp, 4
	mov	DWORD PTR $T5[ebp], eax
	mov	DWORD PTR __$EHRec$[ebp+8], 0
	cmp	DWORD PTR $T5[ebp], 0
	je	SHORT $LN11@MakeLocal
	mov	eax, DWORD PTR _this$[ebp]
	push	eax
	mov	ecx, DWORD PTR $T5[ebp]
	call	??0SimVuDriver@@QAE@PAVVuEntity@@@Z	; SimVuDriver::SimVuDriver
	mov	DWORD PTR tv193[ebp], eax
	jmp	SHORT $LN12@MakeLocal
$LN11@MakeLocal:
	mov	DWORD PTR tv193[ebp], 0
$LN12@MakeLocal:
	mov	ecx, DWORD PTR tv193[ebp]
	mov	DWORD PTR $T2[ebp], ecx
	mov	DWORD PTR __$EHRec$[ebp+8], -1
	mov	edx, DWORD PTR $T2[ebp]
	push	edx
	mov	ecx, DWORD PTR _this$[ebp]
	call	?SetDriver@VuEntity@@QAEPAVVuDriver@@PAV2@@Z ; VuEntity::SetDriver

; 515  : }

	mov	ecx, DWORD PTR __$EHRec$[ebp]
	mov	DWORD PTR fs:0, ecx
	pop	ecx
	mov	esp, ebp
	pop	ebp
	ret	0
_TEXT	ENDS
text$x	SEGMENT
__unwindfunclet$?MakeLocal@SimMoverClass@@UAEXXZ$0:
	mov	eax, DWORD PTR $T5[ebp]
	push	eax
	call	??3@YAXPAX@Z				; operator delete
	pop	ecx
	ret	0
__ehhandler$?MakeLocal@SimMoverClass@@UAEXXZ:
	mov	edx, DWORD PTR [esp+8]
	lea	eax, DWORD PTR [edx+12]
	mov	ecx, DWORD PTR [edx-48]
	xor	ecx, eax
	call	@__security_check_cookie@4
	mov	eax, OFFSET __ehfuncinfo$?MakeLocal@SimMoverClass@@UAEXXZ
	jmp	___CxxFrameHandler3
text$x	ENDS
?MakeLocal@SimMoverClass@@UAEXXZ ENDP			; SimMoverClass::MakeLocal
; Function compile flags: /Odtp
; File c:\users\zhitao li\documents\visual studio 2012\projects\freefalcon\sim\simlib\simmover.cpp
_TEXT	SEGMENT
tv83 = -12						; size = 4
_this$ = -8						; size = 4
_i$ = -4						; size = 4
?Wake@SimMoverClass@@UAEHXZ PROC			; SimMoverClass::Wake
; _this$ = ecx

; 400  : {

	push	ebp
	mov	ebp, esp
	sub	esp, 12					; 0000000cH
	mov	DWORD PTR _this$[ebp], ecx

; 401  : 	int i;
; 402  : 
; 403  : 	SimBaseClass::Wake();

	mov	ecx, DWORD PTR _this$[ebp]
	call	?Wake@SimBaseClass@@UAEHXZ		; SimBaseClass::Wake

; 404  : 
; 405  : 	if (EntityDriver()){

	mov	ecx, DWORD PTR _this$[ebp]
	call	?EntityDriver@VuEntity@@QAEPAVVuDriver@@XZ ; VuEntity::EntityDriver
	test	eax, eax
	je	SHORT $LN15@Wake

; 406  : 		EntityDriver()->ResetLastUpdateTime (vuxGameTime);

	mov	ecx, DWORD PTR _this$[ebp]
	call	?EntityDriver@VuEntity@@QAEPAVVuDriver@@XZ ; VuEntity::EntityDriver
	mov	DWORD PTR tv83[ebp], eax
	mov	eax, DWORD PTR ?vuxGameTime@@3KA	; vuxGameTime
	push	eax
	mov	ecx, DWORD PTR tv83[ebp]
	mov	edx, DWORD PTR [ecx]
	mov	ecx, DWORD PTR tv83[ebp]
	mov	eax, DWORD PTR [edx+24]
	call	eax
$LN15@Wake:

; 407  : 	}
; 408  : 	
; 409  : 	// SetDelta(0.0F, 0.0F, 0.0F);
; 410  : 	// SetYPRDelta(0.0F, 0.0F, 0.0F);
; 411  : 
; 412  : 	if (drawPointer && !IsExploding()){

	mov	ecx, DWORD PTR _this$[ebp]
	cmp	DWORD PTR [ecx+332], 0
	je	$LN1@Wake
	mov	edx, DWORD PTR _this$[ebp]
	mov	eax, DWORD PTR [edx]
	mov	ecx, DWORD PTR _this$[ebp]
	mov	edx, DWORD PTR [eax+208]
	call	edx
	test	eax, eax
	jne	$LN1@Wake

; 413  : 		for (i=0; i<numSwitches; i++){

	mov	DWORD PTR _i$[ebp], 0
	jmp	SHORT $LN13@Wake
$LN12@Wake:
	mov	eax, DWORD PTR _i$[ebp]
	add	eax, 1
	mov	DWORD PTR _i$[ebp], eax
$LN13@Wake:
	mov	ecx, DWORD PTR _this$[ebp]
	mov	edx, DWORD PTR _i$[ebp]
	cmp	edx, DWORD PTR [ecx+604]
	jge	SHORT $LN11@Wake

; 414  : 			if (switchChange[i]){

	mov	eax, DWORD PTR _this$[ebp]
	mov	ecx, DWORD PTR [eax+596]
	mov	edx, DWORD PTR _i$[ebp]
	cmp	DWORD PTR [ecx+edx*4], 0
	je	SHORT $LN10@Wake

; 415  : 				((DrawableBSP*)drawPointer)->SetSwitchMask(i, switchData[i]);

	mov	eax, DWORD PTR _this$[ebp]
	mov	ecx, DWORD PTR [eax+592]
	mov	edx, DWORD PTR _i$[ebp]
	mov	eax, DWORD PTR [ecx+edx*4]
	push	eax
	mov	ecx, DWORD PTR _i$[ebp]
	push	ecx
	mov	edx, DWORD PTR _this$[ebp]
	mov	ecx, DWORD PTR [edx+332]
	call	?SetSwitchMask@DrawableBSP@@QAEXHK@Z	; DrawableBSP::SetSwitchMask

; 416  : 				switchChange[i] = FALSE;

	mov	eax, DWORD PTR _this$[ebp]
	mov	ecx, DWORD PTR [eax+596]
	mov	edx, DWORD PTR _i$[ebp]
	mov	DWORD PTR [ecx+edx*4], 0
$LN10@Wake:

; 417  : 			}
; 418  : 		}

	jmp	SHORT $LN12@Wake
$LN11@Wake:

; 419  : 
; 420  : 		for (i=0; i<numDofs; i++){

	mov	DWORD PTR _i$[ebp], 0
	jmp	SHORT $LN9@Wake
$LN8@Wake:
	mov	eax, DWORD PTR _i$[ebp]
	add	eax, 1
	mov	DWORD PTR _i$[ebp], eax
$LN9@Wake:
	mov	ecx, DWORD PTR _this$[ebp]
	mov	edx, DWORD PTR _i$[ebp]
	cmp	edx, DWORD PTR [ecx+600]
	jge	SHORT $LN7@Wake

; 421  : 			if (DOFType[i] == AngleDof){

	mov	eax, DWORD PTR _this$[ebp]
	mov	ecx, DWORD PTR [eax+620]
	mov	edx, DWORD PTR _i$[ebp]
	cmp	DWORD PTR [ecx+edx*4], 0
	jne	SHORT $LN6@Wake

; 422  : 				((DrawableBSP*)drawPointer)->SetDOFangle(i, DOFData[i]);

	mov	eax, DWORD PTR _this$[ebp]
	mov	ecx, DWORD PTR [eax+612]
	mov	edx, DWORD PTR _i$[ebp]
	push	ecx
	movss	xmm0, DWORD PTR [ecx+edx*4]
	movss	DWORD PTR [esp], xmm0
	mov	eax, DWORD PTR _i$[ebp]
	push	eax
	mov	ecx, DWORD PTR _this$[ebp]
	mov	ecx, DWORD PTR [ecx+332]
	call	?SetDOFangle@DrawableBSP@@QAEXHM@Z	; DrawableBSP::SetDOFangle
	jmp	SHORT $LN4@Wake
$LN6@Wake:

; 423  : 			}
; 424  : 			else if (DOFType[i] == TranslateDof){

	mov	edx, DWORD PTR _this$[ebp]
	mov	eax, DWORD PTR [edx+620]
	mov	ecx, DWORD PTR _i$[ebp]
	cmp	DWORD PTR [eax+ecx*4], 1
	jne	SHORT $LN4@Wake

; 425  : 				((DrawableBSP*)drawPointer)->SetDOFoffset(i, DOFData[i]);

	mov	edx, DWORD PTR _this$[ebp]
	mov	eax, DWORD PTR [edx+612]
	mov	ecx, DWORD PTR _i$[ebp]
	push	ecx
	movss	xmm0, DWORD PTR [eax+ecx*4]
	movss	DWORD PTR [esp], xmm0
	mov	edx, DWORD PTR _i$[ebp]
	push	edx
	mov	eax, DWORD PTR _this$[ebp]
	mov	ecx, DWORD PTR [eax+332]
	call	?SetDOFoffset@DrawableBSP@@QAEXHM@Z	; DrawableBSP::SetDOFoffset
$LN4@Wake:

; 426  : 			}
; 427  : 		}

	jmp	$LN8@Wake
$LN7@Wake:

; 428  : 		
; 429  : 		for (i=0; i<numVertices; i++){

	mov	DWORD PTR _i$[ebp], 0
	jmp	SHORT $LN3@Wake
$LN2@Wake:
	mov	ecx, DWORD PTR _i$[ebp]
	add	ecx, 1
	mov	DWORD PTR _i$[ebp], ecx
$LN3@Wake:
	mov	edx, DWORD PTR _this$[ebp]
	mov	eax, DWORD PTR _i$[ebp]
	cmp	eax, DWORD PTR [edx+608]
	jge	SHORT $LN1@Wake

; 430  : 			((DrawableBSP*)drawPointer)->SetDynamicVertex(i, VertexData[i], 0.0F, 0.0F);

	push	ecx
	movss	xmm0, DWORD PTR __real@00000000
	movss	DWORD PTR [esp], xmm0
	push	ecx
	movss	xmm0, DWORD PTR __real@00000000
	movss	DWORD PTR [esp], xmm0
	mov	ecx, DWORD PTR _this$[ebp]
	mov	edx, DWORD PTR [ecx+616]
	mov	eax, DWORD PTR _i$[ebp]
	push	ecx
	movss	xmm0, DWORD PTR [edx+eax*4]
	movss	DWORD PTR [esp], xmm0
	mov	ecx, DWORD PTR _i$[ebp]
	push	ecx
	mov	edx, DWORD PTR _this$[ebp]
	mov	ecx, DWORD PTR [edx+332]
	call	?SetDynamicVertex@DrawableBSP@@QAEXHMMM@Z ; DrawableBSP::SetDynamicVertex

; 431  : 		}

	jmp	SHORT $LN2@Wake
$LN1@Wake:

; 432  : 	}
; 433  : 	
; 434  : 	SimDriver.AddToObjectList(this);

	mov	eax, DWORD PTR _this$[ebp]
	push	eax
	mov	ecx, OFFSET ?SimDriver@@3VSimulationDriver@@A ; SimDriver
	call	?AddToObjectList@SimulationDriver@@QAEXPAVVuEntity@@@Z ; SimulationDriver::AddToObjectList

; 435  : 
; 436  : 	return 0;

	xor	eax, eax

; 437  : }

	mov	esp, ebp
	pop	ebp
	ret	0
?Wake@SimMoverClass@@UAEHXZ ENDP			; SimMoverClass::Wake
_TEXT	ENDS
; Function compile flags: /Odtp
; File c:\users\zhitao li\documents\visual studio 2012\projects\freefalcon\sim\simlib\simmover.cpp
_TEXT	SEGMENT
_i$ = -8						; size = 4
_this$ = -4						; size = 4
?Sleep@SimMoverClass@@UAEHXZ PROC			; SimMoverClass::Sleep
; _this$ = ecx

; 440  : {

	push	ebp
	mov	ebp, esp
	sub	esp, 8
	mov	DWORD PTR _this$[ebp], ecx

; 441  : 	int i;
; 442  : 
; 443  : 	// sfr: we dont remove entity here, but during scan of the list
; 444  : 	//SimDriver.RemoveFromObjectList(this);
; 445  : 	
; 446  : 	SimBaseClass::Sleep();

	mov	ecx, DWORD PTR _this$[ebp]
	call	?Sleep@SimBaseClass@@UAEHXZ		; SimBaseClass::Sleep

; 447  : 
; 448  : #define USE_RELEASE_TARGET_LIST 1
; 449  : #if USE_RELEASE_TARGET_LIST
; 450  : 	ReleaseTargetList(targetList);

	mov	eax, DWORD PTR _this$[ebp]
	mov	ecx, DWORD PTR [eax+660]
	push	ecx
	call	?ReleaseTargetList@@YAXPAVSimObjectType@@@Z ; ReleaseTargetList
	add	esp, 4

; 451  : 	targetList = NULL;

	mov	edx, DWORD PTR _this$[ebp]
	mov	DWORD PTR [edx+660], 0

; 452  : #else
; 453  : 	while (targetList){
; 454  : 		SimObjectType *tmpObject = targetList;
; 455  : 		targetList = targetList->next;
; 456  : 		tmpObject->prev = NULL;
; 457  : 		tmpObject->next = NULL;
; 458  : 		tmpObject->Release();
; 459  : 	}
; 460  : #endif
; 461  : 	ClearTarget();

	mov	ecx, DWORD PTR _this$[ebp]
	call	?ClearTarget@SimMoverClass@@QAEXXZ	; SimMoverClass::ClearTarget

; 462  : 	
; 463  : 	for ( i=0; i<numSensors; i++){

	mov	DWORD PTR _i$[ebp], 0
	jmp	SHORT $LN4@Sleep
$LN3@Sleep:
	mov	eax, DWORD PTR _i$[ebp]
	add	eax, 1
	mov	DWORD PTR _i$[ebp], eax
$LN4@Sleep:
	mov	ecx, DWORD PTR _this$[ebp]
	mov	edx, DWORD PTR _i$[ebp]
	cmp	edx, DWORD PTR [ecx+652]
	jge	SHORT $LN2@Sleep

; 464  : 		if (sensorArray[i]){

	mov	eax, DWORD PTR _this$[ebp]
	mov	ecx, DWORD PTR [eax+648]
	mov	edx, DWORD PTR _i$[ebp]
	cmp	DWORD PTR [ecx+edx*4], 0
	je	SHORT $LN1@Sleep

; 465  : 			sensorArray[i]->SetPower( FALSE );

	push	0
	mov	eax, DWORD PTR _this$[ebp]
	mov	ecx, DWORD PTR [eax+648]
	mov	edx, DWORD PTR _i$[ebp]
	mov	eax, DWORD PTR [ecx+edx*4]
	mov	ecx, DWORD PTR _this$[ebp]
	mov	edx, DWORD PTR [ecx+648]
	mov	ecx, DWORD PTR _i$[ebp]
	mov	eax, DWORD PTR [eax]
	mov	ecx, DWORD PTR [edx+ecx*4]
	mov	edx, DWORD PTR [eax+28]
	call	edx
$LN1@Sleep:

; 466  : 		}
; 467  : 	}

	jmp	SHORT $LN3@Sleep
$LN2@Sleep:

; 468  : 
; 469  : 	// SetDelta(0.0F, 0.0F, 0.0F);
; 470  : 	// SetYPRDelta(0.0F, 0.0F, 0.0F);
; 471  : 	return 0;

	xor	eax, eax

; 472  : }

	mov	esp, ebp
	pop	ebp
	ret	0
?Sleep@SimMoverClass@@UAEHXZ ENDP			; SimMoverClass::Sleep
_TEXT	ENDS
; Function compile flags: /Odtp
; File c:\users\zhitao li\documents\visual studio 2012\projects\freefalcon\sim\simlib\simmover.cpp
_TEXT	SEGMENT
_this$ = -4						; size = 4
_flag$ = 8						; size = 4
?SetDead@SimMoverClass@@UAEXH@Z PROC			; SimMoverClass::SetDead
; _this$ = ecx

; 912  : {

	push	ebp
	mov	ebp, esp
	push	ecx
	mov	DWORD PTR _this$[ebp], ecx

; 913  :    SimBaseClass::SetDead(flag);

	mov	eax, DWORD PTR _flag$[ebp]
	push	eax
	mov	ecx, DWORD PTR _this$[ebp]
	call	?SetDead@SimBaseClass@@UAEXH@Z		; SimBaseClass::SetDead

; 914  :    /*
; 915  :    ** edg: moved to sleep function
; 916  :    if (flag)
; 917  :    {
; 918  :       while (targetList)
; 919  :       {
; 920  :          tmpObject = targetList;
; 921  :          targetList = targetList->next;
; 922  : 		 tmpObject->prev = NULL;
; 923  : 		 tmpObject->next = NULL;
; 924  :          tmpObject->Release();
; 925  : 		 tmpObject = NULL;
; 926  :       }
; 927  :       targetList = NULL;
; 928  :       ClearTarget();
; 929  : 
; 930  :       for (int i=0; i<numSensors; i++)
; 931  :       {
; 932  :          if (sensorArray[i])
; 933  :             sensorArray[i]->SetPower( FALSE );
; 934  :       }
; 935  :    }
; 936  :    */
; 937  : }

	mov	esp, ebp
	pop	ebp
	ret	4
?SetDead@SimMoverClass@@UAEXH@Z ENDP			; SimMoverClass::SetDead
_TEXT	ENDS
; Function compile flags: /Odtp
; File c:\users\zhitao li\documents\visual studio 2012\projects\freefalcon\sim\include\simmover.h
;	COMDAT ?SetLead@SimMoverClass@@UAEXH@Z
_TEXT	SEGMENT
_this$ = -4						; size = 4
___formal$ = 8						; size = 4
?SetLead@SimMoverClass@@UAEXH@Z PROC			; SimMoverClass::SetLead, COMDAT
; _this$ = ecx

; 87   : 	virtual void SetLead (int) {};

	push	ebp
	mov	ebp, esp
	push	ecx
	mov	DWORD PTR _this$[ebp], ecx
	mov	esp, ebp
	pop	ebp
	ret	4
?SetLead@SimMoverClass@@UAEXH@Z ENDP			; SimMoverClass::SetLead
_TEXT	ENDS
; Function compile flags: /Odtp
; File c:\users\zhitao li\documents\visual studio 2012\projects\freefalcon\sim\simlib\simmover.cpp
_TEXT	SEGMENT
tv752 = -124						; size = 8
tv887 = -116						; size = 8
tv725 = -108						; size = 8
tv897 = -100						; size = 8
tv742 = -92						; size = 8
tv961 = -84						; size = 4
tv796 = -80						; size = 4
tv963 = -76						; size = 4
tv766 = -72						; size = 4
tv965 = -68						; size = 4
tv781 = -64						; size = 4
tv82 = -60						; size = 4
tv883 = -56						; size = 4
tv721 = -52						; size = 4
tv748 = -48						; size = 4
tv893 = -44						; size = 4
tv738 = -40						; size = 4
_i$ = -36						; size = 4
_this$ = -32						; size = 4
_pos$1 = -28						; size = 12
_vec$2 = -16						; size = 12
__$ArrayPad$ = -4					; size = 4
?Exec@SimMoverClass@@UAEHXZ PROC			; SimMoverClass::Exec
; _this$ = ecx

; 539  : {

	push	ebp
	mov	ebp, esp
	sub	esp, 124				; 0000007cH
	mov	eax, DWORD PTR ___security_cookie
	xor	eax, ebp
	mov	DWORD PTR __$ArrayPad$[ebp], eax
	push	esi
	mov	DWORD PTR _this$[ebp], ecx

; 540  : 	//FalconControlSurfaceMsg* newControlData;
; 541  : 	int i;
; 542  : 	
; 543  : 	// JB 011231 Set the last move so the campaign honors the movement of the unit while deaggregated.  
; 544  : 	// Without setting this, when the unit reaggregates, the unit will replay its mission from the time that
; 545  : 	// it deaggregated so that movement not following the waypoints of the unit's mission is lost.
; 546  : 	if (GetCampaignObject())

	mov	ecx, DWORD PTR _this$[ebp]
	call	?GetCampaignObject@SimBaseClass@@QAEPAVCampBaseClass@@XZ ; SimBaseClass::GetCampaignObject
	test	eax, eax
	je	SHORT $LN32@Exec

; 547  : 		((UnitClass*)GetCampaignObject())->SetUnitLastMove(TheCampaign.CurrentTime); 

	mov	ecx, DWORD PTR _this$[ebp]
	call	?GetCampaignObject@SimBaseClass@@QAEPAVCampBaseClass@@XZ ; SimBaseClass::GetCampaignObject
	mov	DWORD PTR tv82[ebp], eax
	mov	eax, DWORD PTR ?TheCampaign@@3VCampaignClass@@A
	push	eax
	mov	ecx, DWORD PTR tv82[ebp]
	mov	edx, DWORD PTR [ecx]
	mov	ecx, DWORD PTR tv82[ebp]
	mov	eax, DWORD PTR [edx+592]
	call	eax
$LN32@Exec:

; 548  : 
; 549  : 	if (drawPointer && !IsExploding())

	mov	ecx, DWORD PTR _this$[ebp]
	cmp	DWORD PTR [ecx+332], 0
	je	$LN18@Exec
	mov	edx, DWORD PTR _this$[ebp]
	mov	eax, DWORD PTR [edx]
	mov	ecx, DWORD PTR _this$[ebp]
	mov	edx, DWORD PTR [eax+208]
	call	edx
	test	eax, eax
	jne	$LN18@Exec

; 550  : 	{
; 551  : 		for (i=0; i<numSwitches; i++)

	mov	DWORD PTR _i$[ebp], 0
	jmp	SHORT $LN30@Exec
$LN29@Exec:
	mov	eax, DWORD PTR _i$[ebp]
	add	eax, 1
	mov	DWORD PTR _i$[ebp], eax
$LN30@Exec:
	mov	ecx, DWORD PTR _this$[ebp]
	mov	edx, DWORD PTR _i$[ebp]
	cmp	edx, DWORD PTR [ecx+604]
	jge	SHORT $LN28@Exec

; 552  : 		{
; 553  : 			if (switchChange[i])

	mov	eax, DWORD PTR _this$[ebp]
	mov	ecx, DWORD PTR [eax+596]
	mov	edx, DWORD PTR _i$[ebp]
	cmp	DWORD PTR [ecx+edx*4], 0
	je	SHORT $LN27@Exec

; 554  : 			{
; 555  : 				((DrawableBSP*)drawPointer)->SetSwitchMask(i, switchData[i]);

	mov	eax, DWORD PTR _this$[ebp]
	mov	ecx, DWORD PTR [eax+592]
	mov	edx, DWORD PTR _i$[ebp]
	mov	eax, DWORD PTR [ecx+edx*4]
	push	eax
	mov	ecx, DWORD PTR _i$[ebp]
	push	ecx
	mov	edx, DWORD PTR _this$[ebp]
	mov	ecx, DWORD PTR [edx+332]
	call	?SetSwitchMask@DrawableBSP@@QAEXHK@Z	; DrawableBSP::SetSwitchMask

; 556  : 				switchChange[i] = FALSE;

	mov	eax, DWORD PTR _this$[ebp]
	mov	ecx, DWORD PTR [eax+596]
	mov	edx, DWORD PTR _i$[ebp]
	mov	DWORD PTR [ecx+edx*4], 0
$LN27@Exec:

; 557  : 			}
; 558  : 		}

	jmp	SHORT $LN29@Exec
$LN28@Exec:

; 559  : 		for (i=0; i<numDofs; i++)

	mov	DWORD PTR _i$[ebp], 0
	jmp	SHORT $LN26@Exec
$LN25@Exec:
	mov	eax, DWORD PTR _i$[ebp]
	add	eax, 1
	mov	DWORD PTR _i$[ebp], eax
$LN26@Exec:
	mov	ecx, DWORD PTR _this$[ebp]
	mov	edx, DWORD PTR _i$[ebp]
	cmp	edx, DWORD PTR [ecx+600]
	jge	SHORT $LN24@Exec

; 560  : 		{
; 561  : 			if (DOFType[i] == AngleDof)

	mov	eax, DWORD PTR _this$[ebp]
	mov	ecx, DWORD PTR [eax+620]
	mov	edx, DWORD PTR _i$[ebp]
	cmp	DWORD PTR [ecx+edx*4], 0
	jne	SHORT $LN23@Exec

; 562  : 				((DrawableBSP*)drawPointer)->SetDOFangle(i, DOFData[i]);

	mov	eax, DWORD PTR _this$[ebp]
	mov	ecx, DWORD PTR [eax+612]
	mov	edx, DWORD PTR _i$[ebp]
	push	ecx
	movss	xmm0, DWORD PTR [ecx+edx*4]
	movss	DWORD PTR [esp], xmm0
	mov	eax, DWORD PTR _i$[ebp]
	push	eax
	mov	ecx, DWORD PTR _this$[ebp]
	mov	ecx, DWORD PTR [ecx+332]
	call	?SetDOFangle@DrawableBSP@@QAEXHM@Z	; DrawableBSP::SetDOFangle
	jmp	SHORT $LN21@Exec
$LN23@Exec:

; 563  : 			else if (DOFType[i] == TranslateDof)

	mov	edx, DWORD PTR _this$[ebp]
	mov	eax, DWORD PTR [edx+620]
	mov	ecx, DWORD PTR _i$[ebp]
	cmp	DWORD PTR [eax+ecx*4], 1
	jne	SHORT $LN21@Exec

; 564  : 				((DrawableBSP*)drawPointer)->SetDOFoffset(i, DOFData[i]);

	mov	edx, DWORD PTR _this$[ebp]
	mov	eax, DWORD PTR [edx+612]
	mov	ecx, DWORD PTR _i$[ebp]
	push	ecx
	movss	xmm0, DWORD PTR [eax+ecx*4]
	movss	DWORD PTR [esp], xmm0
	mov	edx, DWORD PTR _i$[ebp]
	push	edx
	mov	eax, DWORD PTR _this$[ebp]
	mov	ecx, DWORD PTR [eax+332]
	call	?SetDOFoffset@DrawableBSP@@QAEXHM@Z	; DrawableBSP::SetDOFoffset
$LN21@Exec:

; 565  : 		}

	jmp	$LN25@Exec
$LN24@Exec:

; 566  : 		
; 567  : 		for (i=0; i<numVertices; i++)

	mov	DWORD PTR _i$[ebp], 0
	jmp	SHORT $LN20@Exec
$LN19@Exec:
	mov	ecx, DWORD PTR _i$[ebp]
	add	ecx, 1
	mov	DWORD PTR _i$[ebp], ecx
$LN20@Exec:
	mov	edx, DWORD PTR _this$[ebp]
	mov	eax, DWORD PTR _i$[ebp]
	cmp	eax, DWORD PTR [edx+608]
	jge	SHORT $LN18@Exec

; 568  : 		{
; 569  : 			((DrawableBSP*)drawPointer)->SetDynamicVertex(i, VertexData[i], 0.0F, 0.0F);

	push	ecx
	movss	xmm0, DWORD PTR __real@00000000
	movss	DWORD PTR [esp], xmm0
	push	ecx
	movss	xmm0, DWORD PTR __real@00000000
	movss	DWORD PTR [esp], xmm0
	mov	ecx, DWORD PTR _this$[ebp]
	mov	edx, DWORD PTR [ecx+616]
	mov	eax, DWORD PTR _i$[ebp]
	push	ecx
	movss	xmm0, DWORD PTR [edx+eax*4]
	movss	DWORD PTR [esp], xmm0
	mov	ecx, DWORD PTR _i$[ebp]
	push	ecx
	mov	edx, DWORD PTR _this$[ebp]
	mov	ecx, DWORD PTR [edx+332]
	call	?SetDynamicVertex@DrawableBSP@@QAEXHMMM@Z ; DrawableBSP::SetDynamicVertex

; 570  : 		}

	jmp	SHORT $LN19@Exec
$LN18@Exec:

; 571  : 	}
; 572  : 	
; 573  : 	if (IsLocal()) {

	mov	ecx, DWORD PTR _this$[ebp]
	call	?IsLocal@VuEntity@@QBEEXZ		; VuEntity::IsLocal
	movzx	eax, al
	test	eax, eax
	je	SHORT $LN17@Exec

; 574  : 		if ((requestCount > 0 && (SimLibFrameCount & 0x2F) == 0) || ((SimLibFrameCount & 0x1FF) == 0) )
; 575  : 		{
; 576  : 			//newControlData = new FalconControlSurfaceMsg(Id(), FalconLocalGame);
; 577  : 			//newControlData->dataBlock.gameTime = SimLibElapsedTime;
; 578  : 			//newControlData->dataBlock.entityID = Id();
; 579  : 			//newControlData->dataBlock.numDofs = numDofs;
; 580  : 			//newControlData->dataBlock.numSwitches = numSwitches;
; 581  : 			//newControlData->dataBlock.DOFData = DOFData;
; 582  : 			//newControlData->dataBlock.DOFType = DOFType;
; 583  : 			//newControlData->dataBlock.switchData = switchData;
; 584  : 			//newControlData->dataBlock.specialData = SpecialData();
; 585  : 			// FalconSendMessage (newControlData,FALSE);
; 586  : 		}
; 587  : 	}
; 588  : 	else // Isn't local

	jmp	$LN1@Exec
$LN17@Exec:

; 589  : 	{
; 590  : 		// non local execution
; 591  : 		if ( nonLocalData )

	mov	ecx, DWORD PTR _this$[ebp]
	cmp	DWORD PTR [ecx+412], 0
	je	$LN1@Exec

; 592  : 		{
; 593  : 			Tpoint pos, vec;
; 594  : 			
; 595  : 			// IsFiring will be set\unset when a message is received from
; 596  : 			// machine controlling the entity locally
; 597  : 			if ( IsFiring() )

	mov	ecx, DWORD PTR _this$[ebp]
	call	?IsFiring@SimBaseClass@@QBEHXZ		; SimBaseClass::IsFiring
	test	eax, eax
	je	$LN11@Exec

; 598  : 			{
; 599  : 				if ( nonLocalData->flags & NONLOCAL_GUNS_FIRING )

	mov	edx, DWORD PTR _this$[ebp]
	mov	eax, DWORD PTR [edx+412]
	mov	ecx, DWORD PTR [eax]
	and	ecx, 1
	je	$LN10@Exec

; 600  : 				{
; 601  : 					// already firing, is it time to stop or fire another?
; 602  : 					if ( nonLocalData->timer2 <= SimLibElapsedTime )

	mov	edx, DWORD PTR _this$[ebp]
	mov	eax, DWORD PTR [edx+412]
	mov	ecx, DWORD PTR ?SimLibElapsedTime@@3KA	; SimLibElapsedTime
	mov	DWORD PTR tv721[ebp], ecx
	cvtsi2sd xmm0, DWORD PTR tv721[ebp]
	mov	edx, DWORD PTR tv721[ebp]
	shr	edx, 31					; 0000001fH
	addsd	xmm0, QWORD PTR __xmm@41f00000000000000000000000000000[edx*8]
	movsd	QWORD PTR tv725[ebp], xmm0
	cvtsd2ss xmm0, QWORD PTR tv725[ebp]
	comiss	xmm0, DWORD PTR [eax+8]
	jb	SHORT $LN9@Exec

; 603  : 					{
; 604  : 						// stop firing
; 605  : 						nonLocalData->flags &= ~NONLOCAL_GUNS_FIRING;

	mov	eax, DWORD PTR _this$[ebp]
	mov	ecx, DWORD PTR [eax+412]
	mov	edx, DWORD PTR [ecx]
	and	edx, -2					; fffffffeH
	mov	eax, DWORD PTR _this$[ebp]
	mov	ecx, DWORD PTR [eax+412]
	mov	DWORD PTR [ecx], edx

; 606  : 
; 607  : 						// check for active smoketrail and send it to sfx for
; 608  : 						// later removal
; 609  : 						if ( nonLocalData->smokeTrail )

	mov	edx, DWORD PTR _this$[ebp]
	mov	eax, DWORD PTR [edx+412]
	cmp	DWORD PTR [eax+28], 0
	je	SHORT $LN8@Exec

; 610  : 						{
; 611  : 							// RV I-Hawk - RV new trail calls changes
; 612  : 							/*
; 613  : 							OTWDriver.AddSfxRequest(
; 614  : 								new SfxClass ( 2.0f,		// time to live
; 615  : 								nonLocalData->smokeTrail ) );
; 616  : 							*/
; 617  : 							DrawableParticleSys::PS_KillTrail((PS_PTR)nonLocalData->smokeTrail);

	mov	ecx, DWORD PTR _this$[ebp]
	mov	edx, DWORD PTR [ecx+412]
	mov	eax, DWORD PTR [edx+28]
	push	eax
	call	?PS_KillTrail@DrawableParticleSys@@SAXK@Z ; DrawableParticleSys::PS_KillTrail
	add	esp, 4

; 618  : 							
; 619  : 							nonLocalData->smokeTrail = NULL;

	mov	ecx, DWORD PTR _this$[ebp]
	mov	edx, DWORD PTR [ecx+412]
	mov	DWORD PTR [edx+28], 0
$LN8@Exec:

; 620  : 						}
; 621  : 					}

	jmp	$LN6@Exec
$LN9@Exec:

; 622  : 					else if ( nonLocalData->timer1 >= SimLibElapsedTime )

	mov	eax, DWORD PTR _this$[ebp]
	mov	ecx, DWORD PTR [eax+412]
	mov	edx, DWORD PTR ?SimLibElapsedTime@@3KA	; SimLibElapsedTime
	mov	DWORD PTR tv738[ebp], edx
	cvtsi2sd xmm0, DWORD PTR tv738[ebp]
	mov	eax, DWORD PTR tv738[ebp]
	shr	eax, 31					; 0000001fH
	addsd	xmm0, QWORD PTR __xmm@41f00000000000000000000000000000[eax*8]
	movsd	QWORD PTR tv742[ebp], xmm0
	cvtsd2ss xmm0, QWORD PTR tv742[ebp]
	movss	xmm1, DWORD PTR [ecx+4]
	comiss	xmm1, xmm0
	jb	$LN6@Exec

; 623  : 					{
; 624  : 						
; 625  : 						// fire another....
; 626  : 						nonLocalData->timer1 = SimLibElapsedTime + 500.0f;

	mov	ecx, DWORD PTR ?SimLibElapsedTime@@3KA	; SimLibElapsedTime
	mov	DWORD PTR tv748[ebp], ecx
	cvtsi2sd xmm0, DWORD PTR tv748[ebp]
	mov	edx, DWORD PTR tv748[ebp]
	shr	edx, 31					; 0000001fH
	addsd	xmm0, QWORD PTR __xmm@41f00000000000000000000000000000[edx*8]
	movsd	QWORD PTR tv752[ebp], xmm0
	cvtsd2ss xmm0, QWORD PTR tv752[ebp]
	addss	xmm0, DWORD PTR __real@43fa0000
	mov	eax, DWORD PTR _this$[ebp]
	mov	ecx, DWORD PTR [eax+412]
	movss	DWORD PTR [ecx+4], xmm0

; 627  : 						pos.x = XPos();

	mov	ecx, DWORD PTR _this$[ebp]
	call	?XPos@VuEntity@@QBEMXZ			; VuEntity::XPos
	fstp	DWORD PTR _pos$1[ebp]

; 628  : 						pos.y = YPos();

	mov	ecx, DWORD PTR _this$[ebp]
	call	?YPos@VuEntity@@QBEMXZ			; VuEntity::YPos
	fstp	DWORD PTR _pos$1[ebp+4]

; 629  : 						pos.z = ZPos();

	mov	ecx, DWORD PTR _this$[ebp]
	call	?ZPos@VuEntity@@QBEMXZ			; VuEntity::ZPos
	fstp	DWORD PTR _pos$1[ebp+8]

; 630  : 						vec.x = XDelta() * ((900 + rand()%200)/1000) ;

	mov	ecx, DWORD PTR _this$[ebp]
	call	?XDelta@VuEntity@@QBEMXZ		; VuEntity::XDelta
	fstp	DWORD PTR tv766[ebp]
	movss	xmm0, DWORD PTR tv766[ebp]
	movss	DWORD PTR tv961[ebp], xmm0
	call	_rand
	cdq
	mov	ecx, 200				; 000000c8H
	idiv	ecx
	add	edx, 900				; 00000384H
	mov	eax, edx
	cdq
	mov	ecx, 1000				; 000003e8H
	idiv	ecx
	cvtsi2ss xmm0, eax
	movss	xmm1, DWORD PTR tv961[ebp]
	mulss	xmm1, xmm0
	movss	DWORD PTR _vec$2[ebp], xmm1

