; Listing generated by Microsoft (R) Optimizing Compiler Version 17.00.51106.1 

	TITLE	C:\Users\Zhitao Li\Documents\Visual Studio 2012\Projects\Freefalcon\SIM\SIMLIB\simstatic.cpp
	.686P
	.XMM
	include listing.inc
	.model	flat

INCLUDELIB LIBCMT
INCLUDELIB OLDNAMES

PUBLIC	?traps@_Num_base@std@@2_NB			; std::_Num_base::traps
PUBLIC	?round_style@_Num_base@std@@2W4float_round_style@2@B ; std::_Num_base::round_style
PUBLIC	?digits@_Num_base@std@@2HB			; std::_Num_base::digits
PUBLIC	?digits10@_Num_base@std@@2HB			; std::_Num_base::digits10
PUBLIC	?max_digits10@_Num_base@std@@2HB		; std::_Num_base::max_digits10
PUBLIC	?max_exponent@_Num_base@std@@2HB		; std::_Num_base::max_exponent
PUBLIC	?max_exponent10@_Num_base@std@@2HB		; std::_Num_base::max_exponent10
PUBLIC	?min_exponent@_Num_base@std@@2HB		; std::_Num_base::min_exponent
PUBLIC	?min_exponent10@_Num_base@std@@2HB		; std::_Num_base::min_exponent10
PUBLIC	?radix@_Num_base@std@@2HB			; std::_Num_base::radix
PUBLIC	?is_bounded@_Num_int_base@std@@2_NB		; std::_Num_int_base::is_bounded
PUBLIC	?is_exact@_Num_int_base@std@@2_NB		; std::_Num_int_base::is_exact
PUBLIC	?is_integer@_Num_int_base@std@@2_NB		; std::_Num_int_base::is_integer
PUBLIC	?is_modulo@_Num_int_base@std@@2_NB		; std::_Num_int_base::is_modulo
PUBLIC	?is_specialized@_Num_int_base@std@@2_NB		; std::_Num_int_base::is_specialized
PUBLIC	?radix@_Num_int_base@std@@2HB			; std::_Num_int_base::radix
PUBLIC	?has_denorm@_Num_float_base@std@@2W4float_denorm_style@2@B ; std::_Num_float_base::has_denorm
PUBLIC	?has_denorm_loss@_Num_float_base@std@@2_NB	; std::_Num_float_base::has_denorm_loss
PUBLIC	?SIMDIRTYDATA_INTERVAL@FalconEntity@@2KB	; FalconEntity::SIMDIRTYDATA_INTERVAL
PUBLIC	?CMPDIRTYDATA_INTERVAL@FalconEntity@@2KB	; FalconEntity::CMPDIRTYDATA_INTERVAL
PUBLIC	?has_infinity@_Num_float_base@std@@2_NB		; std::_Num_float_base::has_infinity
PUBLIC	?has_quiet_NaN@_Num_float_base@std@@2_NB	; std::_Num_float_base::has_quiet_NaN
PUBLIC	?has_signaling_NaN@_Num_float_base@std@@2_NB	; std::_Num_float_base::has_signaling_NaN
PUBLIC	?is_bounded@_Num_float_base@std@@2_NB		; std::_Num_float_base::is_bounded
PUBLIC	?is_exact@_Num_float_base@std@@2_NB		; std::_Num_float_base::is_exact
PUBLIC	?is_iec559@_Num_float_base@std@@2_NB		; std::_Num_float_base::is_iec559
PUBLIC	?is_integer@_Num_float_base@std@@2_NB		; std::_Num_float_base::is_integer
PUBLIC	?is_modulo@_Num_float_base@std@@2_NB		; std::_Num_float_base::is_modulo
PUBLIC	?is_signed@_Num_float_base@std@@2_NB		; std::_Num_float_base::is_signed
PUBLIC	?is_specialized@_Num_float_base@std@@2_NB	; std::_Num_float_base::is_specialized
PUBLIC	?tinyness_before@_Num_float_base@std@@2_NB	; std::_Num_float_base::tinyness_before
PUBLIC	?traps@_Num_float_base@std@@2_NB		; std::_Num_float_base::traps
PUBLIC	?round_style@_Num_float_base@std@@2W4float_round_style@2@B ; std::_Num_float_base::round_style
PUBLIC	?radix@_Num_float_base@std@@2HB			; std::_Num_float_base::radix
PUBLIC	?is_signed@?$numeric_limits@D@std@@2_NB		; std::numeric_limits<char>::is_signed
PUBLIC	?digits@?$numeric_limits@D@std@@2HB		; std::numeric_limits<char>::digits
PUBLIC	?digits10@?$numeric_limits@D@std@@2HB		; std::numeric_limits<char>::digits10
PUBLIC	?is_signed@?$numeric_limits@_W@std@@2_NB	; std::numeric_limits<wchar_t>::is_signed
PUBLIC	?digits@?$numeric_limits@_W@std@@2HB		; std::numeric_limits<wchar_t>::digits
PUBLIC	?digits10@?$numeric_limits@_W@std@@2HB		; std::numeric_limits<wchar_t>::digits10
PUBLIC	?is_modulo@?$numeric_limits@_N@std@@2_NB	; std::numeric_limits<bool>::is_modulo
PUBLIC	?is_signed@?$numeric_limits@_N@std@@2_NB	; std::numeric_limits<bool>::is_signed
PUBLIC	?digits@?$numeric_limits@_N@std@@2HB		; std::numeric_limits<bool>::digits
PUBLIC	?digits10@?$numeric_limits@_N@std@@2HB		; std::numeric_limits<bool>::digits10
PUBLIC	?is_signed@?$numeric_limits@C@std@@2_NB		; std::numeric_limits<signed char>::is_signed
PUBLIC	?digits@?$numeric_limits@C@std@@2HB		; std::numeric_limits<signed char>::digits
PUBLIC	?digits10@?$numeric_limits@C@std@@2HB		; std::numeric_limits<signed char>::digits10
PUBLIC	?is_signed@?$numeric_limits@E@std@@2_NB		; std::numeric_limits<unsigned char>::is_signed
PUBLIC	?value@?$integral_constant@_N$0A@@std@@2_NB	; std::integral_constant<bool,0>::value
PUBLIC	?digits@?$numeric_limits@E@std@@2HB		; std::numeric_limits<unsigned char>::digits
PUBLIC	?digits10@?$numeric_limits@E@std@@2HB		; std::numeric_limits<unsigned char>::digits10
PUBLIC	?value@?$integral_constant@_N$00@std@@2_NB	; std::integral_constant<bool,1>::value
PUBLIC	?is_signed@?$numeric_limits@F@std@@2_NB		; std::numeric_limits<short>::is_signed
PUBLIC	?digits@?$numeric_limits@F@std@@2HB		; std::numeric_limits<short>::digits
PUBLIC	?digits10@?$numeric_limits@F@std@@2HB		; std::numeric_limits<short>::digits10
PUBLIC	?is_signed@?$numeric_limits@G@std@@2_NB		; std::numeric_limits<unsigned short>::is_signed
PUBLIC	?digits@?$numeric_limits@G@std@@2HB		; std::numeric_limits<unsigned short>::digits
PUBLIC	?digits10@?$numeric_limits@G@std@@2HB		; std::numeric_limits<unsigned short>::digits10
PUBLIC	?is_signed@?$numeric_limits@H@std@@2_NB		; std::numeric_limits<int>::is_signed
PUBLIC	?value@?$_Sizeof@HU_Nil@std@@U12@U12@U12@U12@U12@U12@@std@@2IB ; std::_Sizeof<int,std::_Nil,std::_Nil,std::_Nil,std::_Nil,std::_Nil,std::_Nil,std::_Nil>::value
PUBLIC	?digits@?$numeric_limits@H@std@@2HB		; std::numeric_limits<int>::digits
PUBLIC	?digits10@?$numeric_limits@H@std@@2HB		; std::numeric_limits<int>::digits10
PUBLIC	?is_signed@?$numeric_limits@I@std@@2_NB		; std::numeric_limits<unsigned int>::is_signed
PUBLIC	?digits@?$numeric_limits@I@std@@2HB		; std::numeric_limits<unsigned int>::digits
PUBLIC	?digits10@?$numeric_limits@I@std@@2HB		; std::numeric_limits<unsigned int>::digits10
PUBLIC	?is_signed@?$numeric_limits@J@std@@2_NB		; std::numeric_limits<long>::is_signed
PUBLIC	?digits@?$numeric_limits@J@std@@2HB		; std::numeric_limits<long>::digits
PUBLIC	?digits10@?$numeric_limits@J@std@@2HB		; std::numeric_limits<long>::digits10
PUBLIC	?is_signed@?$numeric_limits@K@std@@2_NB		; std::numeric_limits<unsigned long>::is_signed
PUBLIC	?digits@?$numeric_limits@K@std@@2HB		; std::numeric_limits<unsigned long>::digits
PUBLIC	?digits10@?$numeric_limits@K@std@@2HB		; std::numeric_limits<unsigned long>::digits10
PUBLIC	?is_signed@?$numeric_limits@_J@std@@2_NB	; std::numeric_limits<__int64>::is_signed
PUBLIC	?digits@?$numeric_limits@_J@std@@2HB		; std::numeric_limits<__int64>::digits
PUBLIC	?digits10@?$numeric_limits@_J@std@@2HB		; std::numeric_limits<__int64>::digits10
PUBLIC	?is_signed@?$numeric_limits@_K@std@@2_NB	; std::numeric_limits<unsigned __int64>::is_signed
PUBLIC	?digits@?$numeric_limits@_K@std@@2HB		; std::numeric_limits<unsigned __int64>::digits
PUBLIC	?digits10@?$numeric_limits@_K@std@@2HB		; std::numeric_limits<unsigned __int64>::digits10
PUBLIC	?digits@?$numeric_limits@M@std@@2HB		; std::numeric_limits<float>::digits
PUBLIC	?digits10@?$numeric_limits@M@std@@2HB		; std::numeric_limits<float>::digits10
PUBLIC	?max_digits10@?$numeric_limits@M@std@@2HB	; std::numeric_limits<float>::max_digits10
PUBLIC	?max_exponent@?$numeric_limits@M@std@@2HB	; std::numeric_limits<float>::max_exponent
PUBLIC	?max_exponent10@?$numeric_limits@M@std@@2HB	; std::numeric_limits<float>::max_exponent10
PUBLIC	?min_exponent@?$numeric_limits@M@std@@2HB	; std::numeric_limits<float>::min_exponent
PUBLIC	?min_exponent10@?$numeric_limits@M@std@@2HB	; std::numeric_limits<float>::min_exponent10
PUBLIC	?value@?$integral_constant@I$0A@@std@@2IB	; std::integral_constant<unsigned int,0>::value
PUBLIC	?digits@?$numeric_limits@N@std@@2HB		; std::numeric_limits<double>::digits
PUBLIC	?digits10@?$numeric_limits@N@std@@2HB		; std::numeric_limits<double>::digits10
PUBLIC	?max_digits10@?$numeric_limits@N@std@@2HB	; std::numeric_limits<double>::max_digits10
PUBLIC	?max_exponent@?$numeric_limits@N@std@@2HB	; std::numeric_limits<double>::max_exponent
PUBLIC	?max_exponent10@?$numeric_limits@N@std@@2HB	; std::numeric_limits<double>::max_exponent10
PUBLIC	?min_exponent@?$numeric_limits@N@std@@2HB	; std::numeric_limits<double>::min_exponent
PUBLIC	?min_exponent10@?$numeric_limits@N@std@@2HB	; std::numeric_limits<double>::min_exponent10
PUBLIC	?digits@?$numeric_limits@O@std@@2HB		; std::numeric_limits<long double>::digits
PUBLIC	?digits10@?$numeric_limits@O@std@@2HB		; std::numeric_limits<long double>::digits10
PUBLIC	?max_digits10@?$numeric_limits@O@std@@2HB	; std::numeric_limits<long double>::max_digits10
PUBLIC	?max_exponent@?$numeric_limits@O@std@@2HB	; std::numeric_limits<long double>::max_exponent
PUBLIC	?max_exponent10@?$numeric_limits@O@std@@2HB	; std::numeric_limits<long double>::max_exponent10
PUBLIC	?min_exponent@?$numeric_limits@O@std@@2HB	; std::numeric_limits<long double>::min_exponent
PUBLIC	?min_exponent10@?$numeric_limits@O@std@@2HB	; std::numeric_limits<long double>::min_exponent10
PUBLIC	?value@?$_Sizeof@U_Nil@std@@U12@U12@U12@U12@U12@U12@U12@@std@@2IB ; std::_Sizeof<std::_Nil,std::_Nil,std::_Nil,std::_Nil,std::_Nil,std::_Nil,std::_Nil,std::_Nil>::value
PUBLIC	?has_denorm@_Num_base@std@@2W4float_denorm_style@2@B ; std::_Num_base::has_denorm
PUBLIC	?has_denorm_loss@_Num_base@std@@2_NB		; std::_Num_base::has_denorm_loss
PUBLIC	?has_infinity@_Num_base@std@@2_NB		; std::_Num_base::has_infinity
PUBLIC	?has_quiet_NaN@_Num_base@std@@2_NB		; std::_Num_base::has_quiet_NaN
PUBLIC	?has_signaling_NaN@_Num_base@std@@2_NB		; std::_Num_base::has_signaling_NaN
PUBLIC	?is_bounded@_Num_base@std@@2_NB			; std::_Num_base::is_bounded
PUBLIC	?is_exact@_Num_base@std@@2_NB			; std::_Num_base::is_exact
PUBLIC	?is_iec559@_Num_base@std@@2_NB			; std::_Num_base::is_iec559
PUBLIC	?is_integer@_Num_base@std@@2_NB			; std::_Num_base::is_integer
PUBLIC	?is_modulo@_Num_base@std@@2_NB			; std::_Num_base::is_modulo
PUBLIC	?is_signed@_Num_base@std@@2_NB			; std::_Num_base::is_signed
PUBLIC	?is_specialized@_Num_base@std@@2_NB		; std::_Num_base::is_specialized
PUBLIC	?tinyness_before@_Num_base@std@@2_NB		; std::_Num_base::tinyness_before
;	COMDAT ?tinyness_before@_Num_base@std@@2_NB
CONST	SEGMENT
?tinyness_before@_Num_base@std@@2_NB DB 00H		; std::_Num_base::tinyness_before
CONST	ENDS
;	COMDAT ?is_specialized@_Num_base@std@@2_NB
CONST	SEGMENT
?is_specialized@_Num_base@std@@2_NB DB 00H		; std::_Num_base::is_specialized
CONST	ENDS
;	COMDAT ?is_signed@_Num_base@std@@2_NB
CONST	SEGMENT
?is_signed@_Num_base@std@@2_NB DB 00H			; std::_Num_base::is_signed
CONST	ENDS
;	COMDAT ?is_modulo@_Num_base@std@@2_NB
CONST	SEGMENT
?is_modulo@_Num_base@std@@2_NB DB 00H			; std::_Num_base::is_modulo
CONST	ENDS
;	COMDAT ?is_integer@_Num_base@std@@2_NB
CONST	SEGMENT
?is_integer@_Num_base@std@@2_NB DB 00H			; std::_Num_base::is_integer
CONST	ENDS
;	COMDAT ?is_iec559@_Num_base@std@@2_NB
CONST	SEGMENT
?is_iec559@_Num_base@std@@2_NB DB 00H			; std::_Num_base::is_iec559
CONST	ENDS
;	COMDAT ?is_exact@_Num_base@std@@2_NB
CONST	SEGMENT
?is_exact@_Num_base@std@@2_NB DB 00H			; std::_Num_base::is_exact
CONST	ENDS
;	COMDAT ?is_bounded@_Num_base@std@@2_NB
CONST	SEGMENT
?is_bounded@_Num_base@std@@2_NB DB 00H			; std::_Num_base::is_bounded
CONST	ENDS
;	COMDAT ?has_signaling_NaN@_Num_base@std@@2_NB
CONST	SEGMENT
?has_signaling_NaN@_Num_base@std@@2_NB DB 00H		; std::_Num_base::has_signaling_NaN
CONST	ENDS
;	COMDAT ?has_quiet_NaN@_Num_base@std@@2_NB
CONST	SEGMENT
?has_quiet_NaN@_Num_base@std@@2_NB DB 00H		; std::_Num_base::has_quiet_NaN
CONST	ENDS
;	COMDAT ?has_infinity@_Num_base@std@@2_NB
CONST	SEGMENT
?has_infinity@_Num_base@std@@2_NB DB 00H		; std::_Num_base::has_infinity
CONST	ENDS
;	COMDAT ?has_denorm_loss@_Num_base@std@@2_NB
CONST	SEGMENT
?has_denorm_loss@_Num_base@std@@2_NB DB 00H		; std::_Num_base::has_denorm_loss
CONST	ENDS
;	COMDAT ?has_denorm@_Num_base@std@@2W4float_denorm_style@2@B
CONST	SEGMENT
?has_denorm@_Num_base@std@@2W4float_denorm_style@2@B DD 00H ; std::_Num_base::has_denorm
CONST	ENDS
;	COMDAT ?value@?$_Sizeof@U_Nil@std@@U12@U12@U12@U12@U12@U12@U12@@std@@2IB
CONST	SEGMENT
?value@?$_Sizeof@U_Nil@std@@U12@U12@U12@U12@U12@U12@U12@@std@@2IB DD 00H ; std::_Sizeof<std::_Nil,std::_Nil,std::_Nil,std::_Nil,std::_Nil,std::_Nil,std::_Nil,std::_Nil>::value
CONST	ENDS
;	COMDAT ?min_exponent10@?$numeric_limits@O@std@@2HB
CONST	SEGMENT
?min_exponent10@?$numeric_limits@O@std@@2HB DD 0fffffecdH ; std::numeric_limits<long double>::min_exponent10
CONST	ENDS
;	COMDAT ?min_exponent@?$numeric_limits@O@std@@2HB
CONST	SEGMENT
?min_exponent@?$numeric_limits@O@std@@2HB DD 0fffffc03H	; std::numeric_limits<long double>::min_exponent
CONST	ENDS
;	COMDAT ?max_exponent10@?$numeric_limits@O@std@@2HB
CONST	SEGMENT
?max_exponent10@?$numeric_limits@O@std@@2HB DD 0134H	; std::numeric_limits<long double>::max_exponent10
CONST	ENDS
;	COMDAT ?max_exponent@?$numeric_limits@O@std@@2HB
CONST	SEGMENT
?max_exponent@?$numeric_limits@O@std@@2HB DD 0400H	; std::numeric_limits<long double>::max_exponent
CONST	ENDS
;	COMDAT ?max_digits10@?$numeric_limits@O@std@@2HB
CONST	SEGMENT
?max_digits10@?$numeric_limits@O@std@@2HB DD 011H	; std::numeric_limits<long double>::max_digits10
CONST	ENDS
;	COMDAT ?digits10@?$numeric_limits@O@std@@2HB
CONST	SEGMENT
?digits10@?$numeric_limits@O@std@@2HB DD 0fH		; std::numeric_limits<long double>::digits10
CONST	ENDS
;	COMDAT ?digits@?$numeric_limits@O@std@@2HB
CONST	SEGMENT
?digits@?$numeric_limits@O@std@@2HB DD 035H		; std::numeric_limits<long double>::digits
CONST	ENDS
;	COMDAT ?min_exponent10@?$numeric_limits@N@std@@2HB
CONST	SEGMENT
?min_exponent10@?$numeric_limits@N@std@@2HB DD 0fffffecdH ; std::numeric_limits<double>::min_exponent10
CONST	ENDS
;	COMDAT ?min_exponent@?$numeric_limits@N@std@@2HB
CONST	SEGMENT
?min_exponent@?$numeric_limits@N@std@@2HB DD 0fffffc03H	; std::numeric_limits<double>::min_exponent
CONST	ENDS
;	COMDAT ?max_exponent10@?$numeric_limits@N@std@@2HB
CONST	SEGMENT
?max_exponent10@?$numeric_limits@N@std@@2HB DD 0134H	; std::numeric_limits<double>::max_exponent10
CONST	ENDS
;	COMDAT ?max_exponent@?$numeric_limits@N@std@@2HB
CONST	SEGMENT
?max_exponent@?$numeric_limits@N@std@@2HB DD 0400H	; std::numeric_limits<double>::max_exponent
CONST	ENDS
;	COMDAT ?max_digits10@?$numeric_limits@N@std@@2HB
CONST	SEGMENT
?max_digits10@?$numeric_limits@N@std@@2HB DD 011H	; std::numeric_limits<double>::max_digits10
CONST	ENDS
;	COMDAT ?digits10@?$numeric_limits@N@std@@2HB
CONST	SEGMENT
?digits10@?$numeric_limits@N@std@@2HB DD 0fH		; std::numeric_limits<double>::digits10
CONST	ENDS
;	COMDAT ?digits@?$numeric_limits@N@std@@2HB
CONST	SEGMENT
?digits@?$numeric_limits@N@std@@2HB DD 035H		; std::numeric_limits<double>::digits
CONST	ENDS
;	COMDAT ?value@?$integral_constant@I$0A@@std@@2IB
CONST	SEGMENT
?value@?$integral_constant@I$0A@@std@@2IB DD 00H	; std::integral_constant<unsigned int,0>::value
CONST	ENDS
;	COMDAT ?min_exponent10@?$numeric_limits@M@std@@2HB
CONST	SEGMENT
?min_exponent10@?$numeric_limits@M@std@@2HB DD 0ffffffdbH ; std::numeric_limits<float>::min_exponent10
CONST	ENDS
;	COMDAT ?min_exponent@?$numeric_limits@M@std@@2HB
CONST	SEGMENT
?min_exponent@?$numeric_limits@M@std@@2HB DD 0ffffff83H	; std::numeric_limits<float>::min_exponent
CONST	ENDS
;	COMDAT ?max_exponent10@?$numeric_limits@M@std@@2HB
CONST	SEGMENT
?max_exponent10@?$numeric_limits@M@std@@2HB DD 026H	; std::numeric_limits<float>::max_exponent10
CONST	ENDS
;	COMDAT ?max_exponent@?$numeric_limits@M@std@@2HB
CONST	SEGMENT
?max_exponent@?$numeric_limits@M@std@@2HB DD 080H	; std::numeric_limits<float>::max_exponent
CONST	ENDS
;	COMDAT ?max_digits10@?$numeric_limits@M@std@@2HB
CONST	SEGMENT
?max_digits10@?$numeric_limits@M@std@@2HB DD 09H	; std::numeric_limits<float>::max_digits10
CONST	ENDS
;	COMDAT ?digits10@?$numeric_limits@M@std@@2HB
CONST	SEGMENT
?digits10@?$numeric_limits@M@std@@2HB DD 06H		; std::numeric_limits<float>::digits10
CONST	ENDS
;	COMDAT ?digits@?$numeric_limits@M@std@@2HB
CONST	SEGMENT
?digits@?$numeric_limits@M@std@@2HB DD 018H		; std::numeric_limits<float>::digits
CONST	ENDS
;	COMDAT ?digits10@?$numeric_limits@_K@std@@2HB
CONST	SEGMENT
?digits10@?$numeric_limits@_K@std@@2HB DD 013H		; std::numeric_limits<unsigned __int64>::digits10
CONST	ENDS
;	COMDAT ?digits@?$numeric_limits@_K@std@@2HB
CONST	SEGMENT
?digits@?$numeric_limits@_K@std@@2HB DD 040H		; std::numeric_limits<unsigned __int64>::digits
CONST	ENDS
;	COMDAT ?is_signed@?$numeric_limits@_K@std@@2_NB
CONST	SEGMENT
?is_signed@?$numeric_limits@_K@std@@2_NB DB 00H		; std::numeric_limits<unsigned __int64>::is_signed
CONST	ENDS
;	COMDAT ?digits10@?$numeric_limits@_J@std@@2HB
CONST	SEGMENT
?digits10@?$numeric_limits@_J@std@@2HB DD 012H		; std::numeric_limits<__int64>::digits10
CONST	ENDS
;	COMDAT ?digits@?$numeric_limits@_J@std@@2HB
CONST	SEGMENT
?digits@?$numeric_limits@_J@std@@2HB DD 03fH		; std::numeric_limits<__int64>::digits
CONST	ENDS
;	COMDAT ?is_signed@?$numeric_limits@_J@std@@2_NB
CONST	SEGMENT
?is_signed@?$numeric_limits@_J@std@@2_NB DB 01H		; std::numeric_limits<__int64>::is_signed
CONST	ENDS
;	COMDAT ?digits10@?$numeric_limits@K@std@@2HB
CONST	SEGMENT
?digits10@?$numeric_limits@K@std@@2HB DD 09H		; std::numeric_limits<unsigned long>::digits10
CONST	ENDS
;	COMDAT ?digits@?$numeric_limits@K@std@@2HB
CONST	SEGMENT
?digits@?$numeric_limits@K@std@@2HB DD 020H		; std::numeric_limits<unsigned long>::digits
CONST	ENDS
;	COMDAT ?is_signed@?$numeric_limits@K@std@@2_NB
CONST	SEGMENT
?is_signed@?$numeric_limits@K@std@@2_NB DB 00H		; std::numeric_limits<unsigned long>::is_signed
CONST	ENDS
;	COMDAT ?digits10@?$numeric_limits@J@std@@2HB
CONST	SEGMENT
?digits10@?$numeric_limits@J@std@@2HB DD 09H		; std::numeric_limits<long>::digits10
CONST	ENDS
;	COMDAT ?digits@?$numeric_limits@J@std@@2HB
CONST	SEGMENT
?digits@?$numeric_limits@J@std@@2HB DD 01fH		; std::numeric_limits<long>::digits
CONST	ENDS
;	COMDAT ?is_signed@?$numeric_limits@J@std@@2_NB
CONST	SEGMENT
?is_signed@?$numeric_limits@J@std@@2_NB DB 01H		; std::numeric_limits<long>::is_signed
CONST	ENDS
;	COMDAT ?digits10@?$numeric_limits@I@std@@2HB
CONST	SEGMENT
?digits10@?$numeric_limits@I@std@@2HB DD 09H		; std::numeric_limits<unsigned int>::digits10
CONST	ENDS
;	COMDAT ?digits@?$numeric_limits@I@std@@2HB
CONST	SEGMENT
?digits@?$numeric_limits@I@std@@2HB DD 020H		; std::numeric_limits<unsigned int>::digits
CONST	ENDS
;	COMDAT ?is_signed@?$numeric_limits@I@std@@2_NB
CONST	SEGMENT
?is_signed@?$numeric_limits@I@std@@2_NB DB 00H		; std::numeric_limits<unsigned int>::is_signed
CONST	ENDS
;	COMDAT ?digits10@?$numeric_limits@H@std@@2HB
CONST	SEGMENT
?digits10@?$numeric_limits@H@std@@2HB DD 09H		; std::numeric_limits<int>::digits10
CONST	ENDS
;	COMDAT ?digits@?$numeric_limits@H@std@@2HB
CONST	SEGMENT
?digits@?$numeric_limits@H@std@@2HB DD 01fH		; std::numeric_limits<int>::digits
CONST	ENDS
;	COMDAT ?value@?$_Sizeof@HU_Nil@std@@U12@U12@U12@U12@U12@U12@@std@@2IB
CONST	SEGMENT
?value@?$_Sizeof@HU_Nil@std@@U12@U12@U12@U12@U12@U12@@std@@2IB DD 01H ; std::_Sizeof<int,std::_Nil,std::_Nil,std::_Nil,std::_Nil,std::_Nil,std::_Nil,std::_Nil>::value
CONST	ENDS
;	COMDAT ?is_signed@?$numeric_limits@H@std@@2_NB
CONST	SEGMENT
?is_signed@?$numeric_limits@H@std@@2_NB DB 01H		; std::numeric_limits<int>::is_signed
CONST	ENDS
;	COMDAT ?digits10@?$numeric_limits@G@std@@2HB
CONST	SEGMENT
?digits10@?$numeric_limits@G@std@@2HB DD 04H		; std::numeric_limits<unsigned short>::digits10
CONST	ENDS
;	COMDAT ?digits@?$numeric_limits@G@std@@2HB
CONST	SEGMENT
?digits@?$numeric_limits@G@std@@2HB DD 010H		; std::numeric_limits<unsigned short>::digits
CONST	ENDS
;	COMDAT ?is_signed@?$numeric_limits@G@std@@2_NB
CONST	SEGMENT
?is_signed@?$numeric_limits@G@std@@2_NB DB 00H		; std::numeric_limits<unsigned short>::is_signed
CONST	ENDS
;	COMDAT ?digits10@?$numeric_limits@F@std@@2HB
CONST	SEGMENT
?digits10@?$numeric_limits@F@std@@2HB DD 04H		; std::numeric_limits<short>::digits10
CONST	ENDS
;	COMDAT ?digits@?$numeric_limits@F@std@@2HB
CONST	SEGMENT
?digits@?$numeric_limits@F@std@@2HB DD 0fH		; std::numeric_limits<short>::digits
CONST	ENDS
;	COMDAT ?is_signed@?$numeric_limits@F@std@@2_NB
CONST	SEGMENT
?is_signed@?$numeric_limits@F@std@@2_NB DB 01H		; std::numeric_limits<short>::is_signed
CONST	ENDS
;	COMDAT ?value@?$integral_constant@_N$00@std@@2_NB
CONST	SEGMENT
?value@?$integral_constant@_N$00@std@@2_NB DB 01H	; std::integral_constant<bool,1>::value
CONST	ENDS
;	COMDAT ?digits10@?$numeric_limits@E@std@@2HB
CONST	SEGMENT
?digits10@?$numeric_limits@E@std@@2HB DD 02H		; std::numeric_limits<unsigned char>::digits10
CONST	ENDS
;	COMDAT ?digits@?$numeric_limits@E@std@@2HB
CONST	SEGMENT
?digits@?$numeric_limits@E@std@@2HB DD 08H		; std::numeric_limits<unsigned char>::digits
CONST	ENDS
;	COMDAT ?value@?$integral_constant@_N$0A@@std@@2_NB
CONST	SEGMENT
?value@?$integral_constant@_N$0A@@std@@2_NB DB 00H	; std::integral_constant<bool,0>::value
CONST	ENDS
;	COMDAT ?is_signed@?$numeric_limits@E@std@@2_NB
CONST	SEGMENT
?is_signed@?$numeric_limits@E@std@@2_NB DB 00H		; std::numeric_limits<unsigned char>::is_signed
CONST	ENDS
;	COMDAT ?digits10@?$numeric_limits@C@std@@2HB
CONST	SEGMENT
?digits10@?$numeric_limits@C@std@@2HB DD 02H		; std::numeric_limits<signed char>::digits10
CONST	ENDS
;	COMDAT ?digits@?$numeric_limits@C@std@@2HB
CONST	SEGMENT
?digits@?$numeric_limits@C@std@@2HB DD 07H		; std::numeric_limits<signed char>::digits
CONST	ENDS
;	COMDAT ?is_signed@?$numeric_limits@C@std@@2_NB
CONST	SEGMENT
?is_signed@?$numeric_limits@C@std@@2_NB DB 01H		; std::numeric_limits<signed char>::is_signed
CONST	ENDS
CONST	SEGMENT
_L_2	DD	03f317218r			; 0.693147
CONST	ENDS
;	COMDAT ?digits10@?$numeric_limits@_N@std@@2HB
CONST	SEGMENT
?digits10@?$numeric_limits@_N@std@@2HB DD 00H		; std::numeric_limits<bool>::digits10
CONST	ENDS
;	COMDAT ?digits@?$numeric_limits@_N@std@@2HB
CONST	SEGMENT
?digits@?$numeric_limits@_N@std@@2HB DD 01H		; std::numeric_limits<bool>::digits
CONST	ENDS
;	COMDAT ?is_signed@?$numeric_limits@_N@std@@2_NB
CONST	SEGMENT
?is_signed@?$numeric_limits@_N@std@@2_NB DB 00H		; std::numeric_limits<bool>::is_signed
CONST	ENDS
;	COMDAT ?is_modulo@?$numeric_limits@_N@std@@2_NB
CONST	SEGMENT
?is_modulo@?$numeric_limits@_N@std@@2_NB DB 00H		; std::numeric_limits<bool>::is_modulo
CONST	ENDS
;	COMDAT ?digits10@?$numeric_limits@_W@std@@2HB
CONST	SEGMENT
?digits10@?$numeric_limits@_W@std@@2HB DD 04H		; std::numeric_limits<wchar_t>::digits10
CONST	ENDS
;	COMDAT ?digits@?$numeric_limits@_W@std@@2HB
CONST	SEGMENT
?digits@?$numeric_limits@_W@std@@2HB DD 010H		; std::numeric_limits<wchar_t>::digits
CONST	ENDS
;	COMDAT ?is_signed@?$numeric_limits@_W@std@@2_NB
CONST	SEGMENT
?is_signed@?$numeric_limits@_W@std@@2_NB DB 00H		; std::numeric_limits<wchar_t>::is_signed
CONST	ENDS
;	COMDAT ?digits10@?$numeric_limits@D@std@@2HB
CONST	SEGMENT
?digits10@?$numeric_limits@D@std@@2HB DD 02H		; std::numeric_limits<char>::digits10
CONST	ENDS
;	COMDAT ?digits@?$numeric_limits@D@std@@2HB
CONST	SEGMENT
?digits@?$numeric_limits@D@std@@2HB DD 07H		; std::numeric_limits<char>::digits
CONST	ENDS
;	COMDAT ?is_signed@?$numeric_limits@D@std@@2_NB
CONST	SEGMENT
?is_signed@?$numeric_limits@D@std@@2_NB DB 01H		; std::numeric_limits<char>::is_signed
CONST	ENDS
;	COMDAT ?radix@_Num_float_base@std@@2HB
CONST	SEGMENT
?radix@_Num_float_base@std@@2HB DD 02H			; std::_Num_float_base::radix
CONST	ENDS
;	COMDAT ?round_style@_Num_float_base@std@@2W4float_round_style@2@B
CONST	SEGMENT
?round_style@_Num_float_base@std@@2W4float_round_style@2@B DD 01H ; std::_Num_float_base::round_style
CONST	ENDS
;	COMDAT ?traps@_Num_float_base@std@@2_NB
CONST	SEGMENT
?traps@_Num_float_base@std@@2_NB DB 00H			; std::_Num_float_base::traps
CONST	ENDS
;	COMDAT ?tinyness_before@_Num_float_base@std@@2_NB
CONST	SEGMENT
?tinyness_before@_Num_float_base@std@@2_NB DB 01H	; std::_Num_float_base::tinyness_before
CONST	ENDS
;	COMDAT ?is_specialized@_Num_float_base@std@@2_NB
CONST	SEGMENT
?is_specialized@_Num_float_base@std@@2_NB DB 01H	; std::_Num_float_base::is_specialized
CONST	ENDS
;	COMDAT ?is_signed@_Num_float_base@std@@2_NB
CONST	SEGMENT
?is_signed@_Num_float_base@std@@2_NB DB 01H		; std::_Num_float_base::is_signed
CONST	ENDS
;	COMDAT ?is_modulo@_Num_float_base@std@@2_NB
CONST	SEGMENT
?is_modulo@_Num_float_base@std@@2_NB DB 00H		; std::_Num_float_base::is_modulo
CONST	ENDS
;	COMDAT ?is_integer@_Num_float_base@std@@2_NB
CONST	SEGMENT
?is_integer@_Num_float_base@std@@2_NB DB 00H		; std::_Num_float_base::is_integer
CONST	ENDS
;	COMDAT ?is_iec559@_Num_float_base@std@@2_NB
CONST	SEGMENT
?is_iec559@_Num_float_base@std@@2_NB DB 01H		; std::_Num_float_base::is_iec559
CONST	ENDS
;	COMDAT ?is_exact@_Num_float_base@std@@2_NB
CONST	SEGMENT
?is_exact@_Num_float_base@std@@2_NB DB 00H		; std::_Num_float_base::is_exact
CONST	ENDS
;	COMDAT ?is_bounded@_Num_float_base@std@@2_NB
CONST	SEGMENT
?is_bounded@_Num_float_base@std@@2_NB DB 01H		; std::_Num_float_base::is_bounded
CONST	ENDS
;	COMDAT ?has_signaling_NaN@_Num_float_base@std@@2_NB
CONST	SEGMENT
?has_signaling_NaN@_Num_float_base@std@@2_NB DB 01H	; std::_Num_float_base::has_signaling_NaN
CONST	ENDS
;	COMDAT ?has_quiet_NaN@_Num_float_base@std@@2_NB
CONST	SEGMENT
?has_quiet_NaN@_Num_float_base@std@@2_NB DB 01H		; std::_Num_float_base::has_quiet_NaN
CONST	ENDS
;	COMDAT ?has_infinity@_Num_float_base@std@@2_NB
CONST	SEGMENT
?has_infinity@_Num_float_base@std@@2_NB DB 01H		; std::_Num_float_base::has_infinity
CONST	ENDS
;	COMDAT ?CMPDIRTYDATA_INTERVAL@FalconEntity@@2KB
CONST	SEGMENT
?CMPDIRTYDATA_INTERVAL@FalconEntity@@2KB DD 0c8H	; FalconEntity::CMPDIRTYDATA_INTERVAL
CONST	ENDS
;	COMDAT ?SIMDIRTYDATA_INTERVAL@FalconEntity@@2KB
CONST	SEGMENT
?SIMDIRTYDATA_INTERVAL@FalconEntity@@2KB DD 0c8H	; FalconEntity::SIMDIRTYDATA_INTERVAL
CONST	ENDS
;	COMDAT ?has_denorm_loss@_Num_float_base@std@@2_NB
CONST	SEGMENT
?has_denorm_loss@_Num_float_base@std@@2_NB DB 01H	; std::_Num_float_base::has_denorm_loss
CONST	ENDS
;	COMDAT ?has_denorm@_Num_float_base@std@@2W4float_denorm_style@2@B
CONST	SEGMENT
?has_denorm@_Num_float_base@std@@2W4float_denorm_style@2@B DD 01H ; std::_Num_float_base::has_denorm
CONST	ENDS
;	COMDAT ?radix@_Num_int_base@std@@2HB
CONST	SEGMENT
?radix@_Num_int_base@std@@2HB DD 02H			; std::_Num_int_base::radix
CONST	ENDS
;	COMDAT ?is_specialized@_Num_int_base@std@@2_NB
CONST	SEGMENT
?is_specialized@_Num_int_base@std@@2_NB DB 01H		; std::_Num_int_base::is_specialized
CONST	ENDS
;	COMDAT ?is_modulo@_Num_int_base@std@@2_NB
CONST	SEGMENT
?is_modulo@_Num_int_base@std@@2_NB DB 01H		; std::_Num_int_base::is_modulo
CONST	ENDS
;	COMDAT ?is_integer@_Num_int_base@std@@2_NB
CONST	SEGMENT
?is_integer@_Num_int_base@std@@2_NB DB 01H		; std::_Num_int_base::is_integer
CONST	ENDS
;	COMDAT ?is_exact@_Num_int_base@std@@2_NB
CONST	SEGMENT
?is_exact@_Num_int_base@std@@2_NB DB 01H		; std::_Num_int_base::is_exact
CONST	ENDS
;	COMDAT ?is_bounded@_Num_int_base@std@@2_NB
CONST	SEGMENT
?is_bounded@_Num_int_base@std@@2_NB DB 01H		; std::_Num_int_base::is_bounded
CONST	ENDS
;	COMDAT ?radix@_Num_base@std@@2HB
CONST	SEGMENT
?radix@_Num_base@std@@2HB DD 00H			; std::_Num_base::radix
CONST	ENDS
;	COMDAT ?min_exponent10@_Num_base@std@@2HB
CONST	SEGMENT
?min_exponent10@_Num_base@std@@2HB DD 00H		; std::_Num_base::min_exponent10
CONST	ENDS
;	COMDAT ?min_exponent@_Num_base@std@@2HB
CONST	SEGMENT
?min_exponent@_Num_base@std@@2HB DD 00H			; std::_Num_base::min_exponent
CONST	ENDS
;	COMDAT ?max_exponent10@_Num_base@std@@2HB
CONST	SEGMENT
?max_exponent10@_Num_base@std@@2HB DD 00H		; std::_Num_base::max_exponent10
CONST	ENDS
;	COMDAT ?max_exponent@_Num_base@std@@2HB
CONST	SEGMENT
?max_exponent@_Num_base@std@@2HB DD 00H			; std::_Num_base::max_exponent
CONST	ENDS
;	COMDAT ?max_digits10@_Num_base@std@@2HB
CONST	SEGMENT
?max_digits10@_Num_base@std@@2HB DD 00H			; std::_Num_base::max_digits10
CONST	ENDS
;	COMDAT ?digits10@_Num_base@std@@2HB
CONST	SEGMENT
?digits10@_Num_base@std@@2HB DD 00H			; std::_Num_base::digits10
CONST	ENDS
;	COMDAT ?digits@_Num_base@std@@2HB
CONST	SEGMENT
?digits@_Num_base@std@@2HB DD 00H			; std::_Num_base::digits
CONST	ENDS
;	COMDAT ?round_style@_Num_base@std@@2W4float_round_style@2@B
CONST	SEGMENT
?round_style@_Num_base@std@@2W4float_round_style@2@B DD 00H ; std::_Num_base::round_style
CONST	ENDS
;	COMDAT ?traps@_Num_base@std@@2_NB
CONST	SEGMENT
?traps@_Num_base@std@@2_NB DB 00H			; std::_Num_base::traps
CONST	ENDS
PUBLIC	?IsCampBase@FalconEntity@@UAE_NXZ		; FalconEntity::IsCampBase
PUBLIC	?SetTypeFlag@FalconEntity@@QAEXH@Z		; FalconEntity::SetTypeFlag
PUBLIC	?GetRadarMode@FalconEntity@@UAEHXZ		; FalconEntity::GetRadarMode
PUBLIC	?SetRadarMode@FalconEntity@@UAEXE@Z		; FalconEntity::SetRadarMode
PUBLIC	?ReturnToSearch@FalconEntity@@UAEXXZ		; FalconEntity::ReturnToSearch
PUBLIC	?SetSearchMode@FalconEntity@@UAEXE@Z		; FalconEntity::SetSearchMode
PUBLIC	?CombatClass@FalconEntity@@UAEHXZ		; FalconEntity::CombatClass
PUBLIC	?HasEntity@FalconEntity@@UBEHPAVVuEntity@@@Z	; FalconEntity::HasEntity
PUBLIC	?IsMissile@FalconEntity@@UAEHXZ			; FalconEntity::IsMissile
PUBLIC	?IsLauncher@FalconEntity@@UAEHXZ		; FalconEntity::IsLauncher
PUBLIC	?IsBomb@FalconEntity@@UAEHXZ			; FalconEntity::IsBomb
PUBLIC	?IsGun@FalconEntity@@UAEHXZ			; FalconEntity::IsGun
PUBLIC	?IsMover@FalconEntity@@UAEHXZ			; FalconEntity::IsMover
PUBLIC	?IsVehicle@FalconEntity@@UAEHXZ			; FalconEntity::IsVehicle
PUBLIC	?IsHelicopter@FalconEntity@@UAEHXZ		; FalconEntity::IsHelicopter
PUBLIC	?IsEject@FalconEntity@@UAEHXZ			; FalconEntity::IsEject
PUBLIC	?IsAirplane@FalconEntity@@UAEHXZ		; FalconEntity::IsAirplane
PUBLIC	?IsGroundVehicle@FalconEntity@@UAEHXZ		; FalconEntity::IsGroundVehicle
PUBLIC	?IsShip@FalconEntity@@UAEHXZ			; FalconEntity::IsShip
PUBLIC	?IsWeapon@FalconEntity@@UAEHXZ			; FalconEntity::IsWeapon
PUBLIC	?IsDead@FalconEntity@@UAEHXZ			; FalconEntity::IsDead
PUBLIC	?IsEmitting@FalconEntity@@UAEHXZ		; FalconEntity::IsEmitting
PUBLIC	?IsUnit@FalconEntity@@UAEHXZ			; FalconEntity::IsUnit
PUBLIC	?IsObjective@FalconEntity@@UAEHXZ		; FalconEntity::IsObjective
PUBLIC	?IsBattalion@FalconEntity@@UAEHXZ		; FalconEntity::IsBattalion
PUBLIC	?IsBrigade@FalconEntity@@UAEHXZ			; FalconEntity::IsBrigade
PUBLIC	?IsFlight@FalconEntity@@UBEHXZ			; FalconEntity::IsFlight
PUBLIC	?IsSquadron@FalconEntity@@UAEHXZ		; FalconEntity::IsSquadron
PUBLIC	?IsPackage@FalconEntity@@UAEHXZ			; FalconEntity::IsPackage
PUBLIC	?IsTeam@FalconEntity@@UAEHXZ			; FalconEntity::IsTeam
PUBLIC	?IsTaskForce@FalconEntity@@UAEHXZ		; FalconEntity::IsTaskForce
PUBLIC	?GetRCSFactor@FalconEntity@@UAEMXZ		; FalconEntity::GetRCSFactor
PUBLIC	?GetIRFactor@FalconEntity@@UAEMXZ		; FalconEntity::GetIRFactor
PUBLIC	?SetAQUIREtimer@FalconEntity@@UAEXK@Z		; FalconEntity::SetAQUIREtimer
PUBLIC	?SetSEARCHtimer@FalconEntity@@UAEXK@Z		; FalconEntity::SetSEARCHtimer
PUBLIC	?SetStepSearchMode@FalconEntity@@UAEXE@Z	; FalconEntity::SetStepSearchMode
PUBLIC	?GetAQUIREtimer@FalconEntity@@UAEKXZ		; FalconEntity::GetAQUIREtimer
PUBLIC	?GetSEARCHtimer@FalconEntity@@UAEKXZ		; FalconEntity::GetSEARCHtimer
PUBLIC	?WeaponKeepAlive@SimBaseClass@@UAEXXZ		; SimBaseClass::WeaponKeepAlive
PUBLIC	?JoinFlight@SimBaseClass@@UAEXXZ		; SimBaseClass::JoinFlight
PUBLIC	?IsSimBase@SimBaseClass@@UAE_NXZ		; SimBaseClass::IsSimBase
PUBLIC	?GetCountry@SimBaseClass@@UAEEXZ		; SimBaseClass::GetCountry
PUBLIC	?OnGround@SimBaseClass@@UAEHXZ			; SimBaseClass::OnGround
PUBLIC	?IsExploding@SimBaseClass@@UAEHXZ		; SimBaseClass::IsExploding
PUBLIC	?IsDead@SimBaseClass@@UBEHXZ			; SimBaseClass::IsDead
PUBLIC	?Exec@SimBaseClass@@UAEHXZ			; SimBaseClass::Exec
PUBLIC	?GetTransform@SimBaseClass@@UAEXQAY02M@Z	; SimBaseClass::GetTransform
PUBLIC	?MakePlayerVehicle@SimBaseClass@@UAEXXZ		; SimBaseClass::MakePlayerVehicle
PUBLIC	?MakeNonPlayerVehicle@SimBaseClass@@UAEXXZ	; SimBaseClass::MakeNonPlayerVehicle
PUBLIC	?ConfigurePlayerAvionics@SimBaseClass@@UAEXXZ	; SimBaseClass::ConfigurePlayerAvionics
PUBLIC	?SetVuPosition@SimBaseClass@@UAEXXZ		; SimBaseClass::SetVuPosition
PUBLIC	?Regenerate@SimBaseClass@@UAEXMMMM@Z		; SimBaseClass::Regenerate
PUBLIC	?Mass@SimBaseClass@@UAEMXZ			; SimBaseClass::Mass
PUBLIC	??0SimStaticClass@@QAE@H@Z			; SimStaticClass::SimStaticClass
PUBLIC	??0SimStaticClass@@QAE@PAPAEPAJ@Z		; SimStaticClass::SimStaticClass
PUBLIC	??0SimStaticClass@@QAE@PAU_iobuf@@@Z		; SimStaticClass::SimStaticClass
PUBLIC	??1SimStaticClass@@UAE@XZ			; SimStaticClass::~SimStaticClass
PUBLIC	?Init@SimStaticClass@@UAEXPAVSimInitDataClass@@@Z ; SimStaticClass::Init
PUBLIC	?InitData@SimStaticClass@@UAEXXZ		; SimStaticClass::InitData
PUBLIC	?CleanupData@SimStaticClass@@UAEXXZ		; SimStaticClass::CleanupData
PUBLIC	?InitLocalData@SimStaticClass@@AAEXXZ		; SimStaticClass::InitLocalData
PUBLIC	?CleanupLocalData@SimStaticClass@@AAEXXZ	; SimStaticClass::CleanupLocalData
PUBLIC	?GetVt@SimStaticClass@@UBEMXZ			; SimStaticClass::GetVt
PUBLIC	?GetKias@SimStaticClass@@UBEMXZ			; SimStaticClass::GetKias
PUBLIC	?SaveSize@SimStaticClass@@UAEHXZ		; SimStaticClass::SaveSize
PUBLIC	?Save@SimStaticClass@@UAEHPAPAE@Z		; SimStaticClass::Save
PUBLIC	?Save@SimStaticClass@@UAEHPAU_iobuf@@@Z		; SimStaticClass::Save
PUBLIC	?Handle@SimStaticClass@@UAEHPAVVuFullUpdateEvent@@@Z ; SimStaticClass::Handle
PUBLIC	?Handle@SimStaticClass@@UAEHPAVVuPositionUpdateEvent@@@Z ; SimStaticClass::Handle
PUBLIC	?Handle@SimStaticClass@@UAEHPAVVuTransferEvent@@@Z ; SimStaticClass::Handle
PUBLIC	?IsStatic@SimStaticClass@@UAEHXZ		; SimStaticClass::IsStatic
PUBLIC	??_GSimStaticClass@@UAEPAXI@Z			; SimStaticClass::`scalar deleting destructor'
PUBLIC	??_7SimStaticClass@@6B@				; SimStaticClass::`vftable'
PUBLIC	??_R4SimStaticClass@@6B@			; SimStaticClass::`RTTI Complete Object Locator'
PUBLIC	??_R0?AVSimStaticClass@@@8			; SimStaticClass `RTTI Type Descriptor'
PUBLIC	??_R3SimStaticClass@@8				; SimStaticClass::`RTTI Class Hierarchy Descriptor'
PUBLIC	??_R2SimStaticClass@@8				; SimStaticClass::`RTTI Base Class Array'
PUBLIC	??_R1A@?0A@EA@SimStaticClass@@8			; SimStaticClass::`RTTI Base Class Descriptor at (0,-1,0,64)'
PUBLIC	??_R1A@?0A@EA@SimBaseClass@@8			; SimBaseClass::`RTTI Base Class Descriptor at (0,-1,0,64)'
PUBLIC	??_R0?AVSimBaseClass@@@8			; SimBaseClass `RTTI Type Descriptor'
PUBLIC	??_R3SimBaseClass@@8				; SimBaseClass::`RTTI Class Hierarchy Descriptor'
PUBLIC	??_R2SimBaseClass@@8				; SimBaseClass::`RTTI Base Class Array'
PUBLIC	??_R1A@?0A@EA@FalconEntity@@8			; FalconEntity::`RTTI Base Class Descriptor at (0,-1,0,64)'
PUBLIC	??_R0?AVFalconEntity@@@8			; FalconEntity `RTTI Type Descriptor'
PUBLIC	??_R3FalconEntity@@8				; FalconEntity::`RTTI Class Hierarchy Descriptor'
PUBLIC	??_R2FalconEntity@@8				; FalconEntity::`RTTI Base Class Array'
PUBLIC	??_R1A@?0A@EA@VuEntity@@8			; VuEntity::`RTTI Base Class Descriptor at (0,-1,0,64)'
PUBLIC	??_R0?AVVuEntity@@@8				; VuEntity `RTTI Type Descriptor'
PUBLIC	??_R3VuEntity@@8				; VuEntity::`RTTI Class Hierarchy Descriptor'
PUBLIC	??_R2VuEntity@@8				; VuEntity::`RTTI Base Class Array'
PUBLIC	__real@00000000
PUBLIC	__real@451c4000
EXTRN	??3@YAXPAX@Z:PROC				; operator delete
EXTRN	?CustomCollisionCheck@VuEntity@@UAEEPAV1@M@Z:PROC ; VuEntity::CustomCollisionCheck
EXTRN	?TerrainCollisionCheck@VuEntity@@UAEEXZ:PROC	; VuEntity::TerrainCollisionCheck
EXTRN	?IsTarget@VuEntity@@UAEEXZ:PROC			; VuEntity::IsTarget
EXTRN	?IsSession@VuEntity@@UAEEXZ:PROC		; VuEntity::IsSession
EXTRN	?IsGroup@VuEntity@@UAEEXZ:PROC			; VuEntity::IsGroup
EXTRN	?IsGame@VuEntity@@UAEEXZ:PROC			; VuEntity::IsGame
EXTRN	?IsCamera@VuEntity@@UBEEXZ:PROC			; VuEntity::IsCamera
EXTRN	?Handle@VuEntity@@UAEHPAVVuErrorMessage@@@Z:PROC ; VuEntity::Handle
EXTRN	?Handle@VuEntity@@UAEHPAVVuPushRequest@@@Z:PROC	; VuEntity::Handle
EXTRN	?Handle@VuEntity@@UAEHPAVVuPullRequest@@@Z:PROC	; VuEntity::Handle
EXTRN	?Handle@VuEntity@@UAEHPAVVuEvent@@@Z:PROC	; VuEntity::Handle
EXTRN	?Handle@VuEntity@@UAEHPAVVuEntityCollisionEvent@@@Z:PROC ; VuEntity::Handle
EXTRN	?Handle@VuEntity@@UAEHPAVVuSessionEvent@@@Z:PROC ; VuEntity::Handle
EXTRN	?GetDomain@FalconEntity@@UAEEXZ:PROC		; FalconEntity::GetDomain
EXTRN	?GetRadarType@FalconEntity@@UAEHXZ:PROC		; FalconEntity::GetRadarType
EXTRN	?GetDamageModifiers@FalconEntity@@UAEPAEXZ:PROC	; FalconEntity::GetDamageModifiers
EXTRN	??0SimBaseClass@@QAE@G@Z:PROC			; SimBaseClass::SimBaseClass
EXTRN	??0SimBaseClass@@QAE@PAPAEPAJ@Z:PROC		; SimBaseClass::SimBaseClass
EXTRN	??0SimBaseClass@@QAE@PAU_iobuf@@@Z:PROC		; SimBaseClass::SimBaseClass
EXTRN	??1SimBaseClass@@UAE@XZ:PROC			; SimBaseClass::~SimBaseClass
EXTRN	?InitData@SimBaseClass@@UAEXXZ:PROC		; SimBaseClass::InitData
EXTRN	?CleanupData@SimBaseClass@@UAEXXZ:PROC		; SimBaseClass::CleanupData
EXTRN	?GetTeam@SimBaseClass@@UAEEXZ:PROC		; SimBaseClass::GetTeam
EXTRN	?GetCampID@SimBaseClass@@UAEFXZ:PROC		; SimBaseClass::GetCampID
EXTRN	?ChangeOwner@SimBaseClass@@UAEXVVU_ID@@@Z:PROC	; SimBaseClass::ChangeOwner
EXTRN	?Wake@SimBaseClass@@UAEHXZ:PROC			; SimBaseClass::Wake
EXTRN	?Sleep@SimBaseClass@@UAEHXZ:PROC		; SimBaseClass::Sleep
EXTRN	?GetMovementType@SimBaseClass@@UAE?AW4MoveType@@XZ:PROC ; SimBaseClass::GetMovementType
EXTRN	?MakeLocal@SimBaseClass@@UAEXXZ:PROC		; SimBaseClass::MakeLocal
EXTRN	?MakeRemote@SimBaseClass@@UAEXXZ:PROC		; SimBaseClass::MakeRemote
EXTRN	?IsSPJamming@SimBaseClass@@UAEHXZ:PROC		; SimBaseClass::IsSPJamming
EXTRN	?IsAreaJamming@SimBaseClass@@UAEHXZ:PROC	; SimBaseClass::IsAreaJamming
EXTRN	?HasSPJamming@SimBaseClass@@UAEHXZ:PROC		; SimBaseClass::HasSPJamming
EXTRN	?HasAreaJamming@SimBaseClass@@UAEHXZ:PROC	; SimBaseClass::HasAreaJamming
EXTRN	?Init@SimBaseClass@@UAEXPAVSimInitDataClass@@@Z:PROC ; SimBaseClass::Init
EXTRN	?ApplyDamage@SimBaseClass@@UAEXPAVFalconDamageMessage@@@Z:PROC ; SimBaseClass::ApplyDamage
EXTRN	?ApplyDeathMessage@SimBaseClass@@UAEXPAVFalconDeathMessage@@@Z:PROC ; SimBaseClass::ApplyDeathMessage
EXTRN	?SetDead@SimBaseClass@@UAEXH@Z:PROC		; SimBaseClass::SetDead
EXTRN	?SaveSize@SimBaseClass@@UAEHXZ:PROC		; SimBaseClass::SaveSize
EXTRN	?Save@SimBaseClass@@UAEHPAPAE@Z:PROC		; SimBaseClass::Save
EXTRN	?Save@SimBaseClass@@UAEHPAU_iobuf@@@Z:PROC	; SimBaseClass::Save
EXTRN	?Handle@SimBaseClass@@UAEHPAVVuFullUpdateEvent@@@Z:PROC ; SimBaseClass::Handle
EXTRN	?Handle@SimBaseClass@@UAEHPAVVuPositionUpdateEvent@@@Z:PROC ; SimBaseClass::Handle
EXTRN	?Handle@SimBaseClass@@UAEHPAVVuTransferEvent@@@Z:PROC ; SimBaseClass::Handle
EXTRN	?InsertionCallback@SimBaseClass@@UAEHXZ:PROC	; SimBaseClass::InsertionCallback
EXTRN	?RemovalCallback@SimBaseClass@@UAEHXZ:PROC	; SimBaseClass::RemovalCallback
EXTRN	?GetFocusPoint@SimBaseClass@@UAEXAAM00@Z:PROC	; SimBaseClass::GetFocusPoint
EXTRN	??_ESimStaticClass@@UAEPAXI@Z:PROC		; SimStaticClass::`vector deleting destructor'
EXTRN	@__security_check_cookie@4:PROC
EXTRN	___CxxFrameHandler3:PROC
EXTRN	??_7type_info@@6B@:QWORD			; type_info::`vftable'
EXTRN	___security_cookie:DWORD
EXTRN	__fltused:DWORD
_BSS	SEGMENT
_piecewise_construct DB 01H DUP (?)
_allocator_arg DB 01H DUP (?)
_BSS	ENDS
CRT$XCU	SEGMENT
_piecewise_construct$initializer$ DD FLAT:??__Epiecewise_construct@std@@YAXXZ
CRT$XCU	ENDS
;	COMDAT __real@451c4000
CONST	SEGMENT
__real@451c4000 DD 0451c4000r			; 2500
CONST	ENDS
;	COMDAT __real@00000000
CONST	SEGMENT
__real@00000000 DD 000000000r			; 0
CONST	ENDS
;	COMDAT ??_R2VuEntity@@8
rdata$r	SEGMENT
??_R2VuEntity@@8 DD FLAT:??_R1A@?0A@EA@VuEntity@@8	; VuEntity::`RTTI Base Class Array'
rdata$r	ENDS
;	COMDAT ??_R3VuEntity@@8
rdata$r	SEGMENT
??_R3VuEntity@@8 DD 00H					; VuEntity::`RTTI Class Hierarchy Descriptor'
	DD	00H
	DD	01H
	DD	FLAT:??_R2VuEntity@@8
rdata$r	ENDS
;	COMDAT ??_R0?AVVuEntity@@@8
_DATA	SEGMENT
??_R0?AVVuEntity@@@8 DD FLAT:??_7type_info@@6B@		; VuEntity `RTTI Type Descriptor'
	DD	00H
	DB	'.?AVVuEntity@@', 00H
_DATA	ENDS
;	COMDAT ??_R1A@?0A@EA@VuEntity@@8
rdata$r	SEGMENT
??_R1A@?0A@EA@VuEntity@@8 DD FLAT:??_R0?AVVuEntity@@@8	; VuEntity::`RTTI Base Class Descriptor at (0,-1,0,64)'
	DD	00H
	DD	00H
	DD	0ffffffffH
	DD	00H
	DD	040H
	DD	FLAT:??_R3VuEntity@@8
rdata$r	ENDS
;	COMDAT ??_R2FalconEntity@@8
rdata$r	SEGMENT
??_R2FalconEntity@@8 DD FLAT:??_R1A@?0A@EA@FalconEntity@@8 ; FalconEntity::`RTTI Base Class Array'
	DD	FLAT:??_R1A@?0A@EA@VuEntity@@8
rdata$r	ENDS
;	COMDAT ??_R3FalconEntity@@8
rdata$r	SEGMENT
??_R3FalconEntity@@8 DD 00H				; FalconEntity::`RTTI Class Hierarchy Descriptor'
	DD	00H
	DD	02H
	DD	FLAT:??_R2FalconEntity@@8
rdata$r	ENDS
;	COMDAT ??_R0?AVFalconEntity@@@8
_DATA	SEGMENT
??_R0?AVFalconEntity@@@8 DD FLAT:??_7type_info@@6B@	; FalconEntity `RTTI Type Descriptor'
	DD	00H
	DB	'.?AVFalconEntity@@', 00H
_DATA	ENDS
;	COMDAT ??_R1A@?0A@EA@FalconEntity@@8
rdata$r	SEGMENT
??_R1A@?0A@EA@FalconEntity@@8 DD FLAT:??_R0?AVFalconEntity@@@8 ; FalconEntity::`RTTI Base Class Descriptor at (0,-1,0,64)'
	DD	01H
	DD	00H
	DD	0ffffffffH
	DD	00H
	DD	040H
	DD	FLAT:??_R3FalconEntity@@8
rdata$r	ENDS
;	COMDAT ??_R2SimBaseClass@@8
rdata$r	SEGMENT
??_R2SimBaseClass@@8 DD FLAT:??_R1A@?0A@EA@SimBaseClass@@8 ; SimBaseClass::`RTTI Base Class Array'
	DD	FLAT:??_R1A@?0A@EA@FalconEntity@@8
	DD	FLAT:??_R1A@?0A@EA@VuEntity@@8
rdata$r	ENDS
;	COMDAT ??_R3SimBaseClass@@8
rdata$r	SEGMENT
??_R3SimBaseClass@@8 DD 00H				; SimBaseClass::`RTTI Class Hierarchy Descriptor'
	DD	00H
	DD	03H
	DD	FLAT:??_R2SimBaseClass@@8
rdata$r	ENDS
;	COMDAT ??_R0?AVSimBaseClass@@@8
_DATA	SEGMENT
??_R0?AVSimBaseClass@@@8 DD FLAT:??_7type_info@@6B@	; SimBaseClass `RTTI Type Descriptor'
	DD	00H
	DB	'.?AVSimBaseClass@@', 00H
_DATA	ENDS
;	COMDAT ??_R1A@?0A@EA@SimBaseClass@@8
rdata$r	SEGMENT
??_R1A@?0A@EA@SimBaseClass@@8 DD FLAT:??_R0?AVSimBaseClass@@@8 ; SimBaseClass::`RTTI Base Class Descriptor at (0,-1,0,64)'
	DD	02H
	DD	00H
	DD	0ffffffffH
	DD	00H
	DD	040H
	DD	FLAT:??_R3SimBaseClass@@8
rdata$r	ENDS
;	COMDAT ??_R1A@?0A@EA@SimStaticClass@@8
rdata$r	SEGMENT
??_R1A@?0A@EA@SimStaticClass@@8 DD FLAT:??_R0?AVSimStaticClass@@@8 ; SimStaticClass::`RTTI Base Class Descriptor at (0,-1,0,64)'
	DD	03H
	DD	00H
	DD	0ffffffffH
	DD	00H
	DD	040H
	DD	FLAT:??_R3SimStaticClass@@8
rdata$r	ENDS
;	COMDAT ??_R2SimStaticClass@@8
rdata$r	SEGMENT
??_R2SimStaticClass@@8 DD FLAT:??_R1A@?0A@EA@SimStaticClass@@8 ; SimStaticClass::`RTTI Base Class Array'
	DD	FLAT:??_R1A@?0A@EA@SimBaseClass@@8
	DD	FLAT:??_R1A@?0A@EA@FalconEntity@@8
	DD	FLAT:??_R1A@?0A@EA@VuEntity@@8
rdata$r	ENDS
;	COMDAT ??_R3SimStaticClass@@8
rdata$r	SEGMENT
??_R3SimStaticClass@@8 DD 00H				; SimStaticClass::`RTTI Class Hierarchy Descriptor'
	DD	00H
	DD	04H
	DD	FLAT:??_R2SimStaticClass@@8
rdata$r	ENDS
;	COMDAT ??_R0?AVSimStaticClass@@@8
_DATA	SEGMENT
??_R0?AVSimStaticClass@@@8 DD FLAT:??_7type_info@@6B@	; SimStaticClass `RTTI Type Descriptor'
	DD	00H
	DB	'.?AVSimStaticClass@@', 00H
_DATA	ENDS
;	COMDAT ??_R4SimStaticClass@@6B@
rdata$r	SEGMENT
??_R4SimStaticClass@@6B@ DD 00H				; SimStaticClass::`RTTI Complete Object Locator'
	DD	00H
	DD	00H
	DD	FLAT:??_R0?AVSimStaticClass@@@8
	DD	FLAT:??_R3SimStaticClass@@8
rdata$r	ENDS
;	COMDAT ??_7SimStaticClass@@6B@
CONST	SEGMENT
??_7SimStaticClass@@6B@ DD FLAT:??_R4SimStaticClass@@6B@ ; SimStaticClass::`vftable'
	DD	FLAT:?CustomCollisionCheck@VuEntity@@UAEEPAV1@M@Z
	DD	FLAT:?TerrainCollisionCheck@VuEntity@@UAEEXZ
	DD	FLAT:?IsTarget@VuEntity@@UAEEXZ
	DD	FLAT:?IsSession@VuEntity@@UAEEXZ
	DD	FLAT:?IsGroup@VuEntity@@UAEEXZ
	DD	FLAT:?IsGame@VuEntity@@UAEEXZ
	DD	FLAT:?IsCamera@VuEntity@@UBEEXZ
	DD	FLAT:?SaveSize@SimStaticClass@@UAEHXZ
	DD	FLAT:?Save@SimStaticClass@@UAEHPAU_iobuf@@@Z
	DD	FLAT:?Save@SimStaticClass@@UAEHPAPAE@Z
	DD	FLAT:?Handle@VuEntity@@UAEHPAVVuSessionEvent@@@Z
	DD	FLAT:?Handle@SimStaticClass@@UAEHPAVVuTransferEvent@@@Z
	DD	FLAT:?Handle@VuEntity@@UAEHPAVVuEntityCollisionEvent@@@Z
	DD	FLAT:?Handle@SimStaticClass@@UAEHPAVVuPositionUpdateEvent@@@Z
	DD	FLAT:?Handle@SimStaticClass@@UAEHPAVVuFullUpdateEvent@@@Z
	DD	FLAT:?Handle@VuEntity@@UAEHPAVVuEvent@@@Z
	DD	FLAT:?Handle@VuEntity@@UAEHPAVVuPullRequest@@@Z
	DD	FLAT:?Handle@VuEntity@@UAEHPAVVuPushRequest@@@Z
	DD	FLAT:?Handle@VuEntity@@UAEHPAVVuErrorMessage@@@Z
	DD	FLAT:??_ESimStaticClass@@UAEPAXI@Z
	DD	FLAT:?InsertionCallback@SimBaseClass@@UAEHXZ
	DD	FLAT:?RemovalCallback@SimBaseClass@@UAEHXZ
	DD	FLAT:?InitData@SimStaticClass@@UAEXXZ
	DD	FLAT:?CleanupData@SimStaticClass@@UAEXXZ
	DD	FLAT:?IsSimBase@SimBaseClass@@UAE_NXZ
	DD	FLAT:?IsCampBase@FalconEntity@@UAE_NXZ
	DD	FLAT:?Wake@SimBaseClass@@UAEHXZ
	DD	FLAT:?Sleep@SimBaseClass@@UAEHXZ
	DD	FLAT:?GetCampID@SimBaseClass@@UAEFXZ
	DD	FLAT:?GetTeam@SimBaseClass@@UAEEXZ
	DD	FLAT:?GetCountry@SimBaseClass@@UAEEXZ
	DD	FLAT:?GetDomain@FalconEntity@@UAEEXZ
	DD	FLAT:?GetRadarMode@FalconEntity@@UAEHXZ
	DD	FLAT:?SetRadarMode@FalconEntity@@UAEXE@Z
	DD	FLAT:?ReturnToSearch@FalconEntity@@UAEXXZ
	DD	FLAT:?SetSearchMode@FalconEntity@@UAEXE@Z
	DD	FLAT:?CombatClass@FalconEntity@@UAEHXZ
	DD	FLAT:?OnGround@SimBaseClass@@UAEHXZ
	DD	FLAT:?HasEntity@FalconEntity@@UBEHPAVVuEntity@@@Z
	DD	FLAT:?IsMissile@FalconEntity@@UAEHXZ
	DD	FLAT:?IsLauncher@FalconEntity@@UAEHXZ
	DD	FLAT:?IsBomb@FalconEntity@@UAEHXZ
	DD	FLAT:?IsGun@FalconEntity@@UAEHXZ
	DD	FLAT:?IsMover@FalconEntity@@UAEHXZ
	DD	FLAT:?IsVehicle@FalconEntity@@UAEHXZ
	DD	FLAT:?IsStatic@SimStaticClass@@UAEHXZ
	DD	FLAT:?IsHelicopter@FalconEntity@@UAEHXZ
	DD	FLAT:?IsEject@FalconEntity@@UAEHXZ
	DD	FLAT:?IsAirplane@FalconEntity@@UAEHXZ
	DD	FLAT:?IsGroundVehicle@FalconEntity@@UAEHXZ
	DD	FLAT:?IsShip@FalconEntity@@UAEHXZ
	DD	FLAT:?IsWeapon@FalconEntity@@UAEHXZ
	DD	FLAT:?IsExploding@SimBaseClass@@UAEHXZ
	DD	FLAT:?IsDead@FalconEntity@@UAEHXZ
	DD	FLAT:?IsEmitting@FalconEntity@@UAEHXZ
	DD	FLAT:?GetVt@SimStaticClass@@UBEMXZ
	DD	FLAT:?GetKias@SimStaticClass@@UBEMXZ
	DD	FLAT:?GetMovementType@SimBaseClass@@UAE?AW4MoveType@@XZ
	DD	FLAT:?IsUnit@FalconEntity@@UAEHXZ
	DD	FLAT:?IsObjective@FalconEntity@@UAEHXZ
	DD	FLAT:?IsBattalion@FalconEntity@@UAEHXZ
	DD	FLAT:?IsBrigade@FalconEntity@@UAEHXZ
	DD	FLAT:?IsFlight@FalconEntity@@UBEHXZ
	DD	FLAT:?IsSquadron@FalconEntity@@UAEHXZ
	DD	FLAT:?IsPackage@FalconEntity@@UAEHXZ
	DD	FLAT:?IsTeam@FalconEntity@@UAEHXZ
	DD	FLAT:?IsTaskForce@FalconEntity@@UAEHXZ
	DD	FLAT:?IsSPJamming@SimBaseClass@@UAEHXZ
	DD	FLAT:?IsAreaJamming@SimBaseClass@@UAEHXZ
	DD	FLAT:?HasSPJamming@SimBaseClass@@UAEHXZ
	DD	FLAT:?HasAreaJamming@SimBaseClass@@UAEHXZ
	DD	FLAT:?GetRCSFactor@FalconEntity@@UAEMXZ
	DD	FLAT:?GetIRFactor@FalconEntity@@UAEMXZ
	DD	FLAT:?GetRadarType@FalconEntity@@UAEHXZ
	DD	FLAT:?GetDamageModifiers@FalconEntity@@UAEPAEXZ
	DD	FLAT:?SetAQUIREtimer@FalconEntity@@UAEXK@Z
	DD	FLAT:?SetSEARCHtimer@FalconEntity@@UAEXK@Z
	DD	FLAT:?SetStepSearchMode@FalconEntity@@UAEXE@Z
	DD	FLAT:?GetAQUIREtimer@FalconEntity@@UAEKXZ
	DD	FLAT:?GetSEARCHtimer@FalconEntity@@UAEKXZ
	DD	FLAT:?WeaponKeepAlive@SimBaseClass@@UAEXXZ
	DD	FLAT:?JoinFlight@SimBaseClass@@UAEXXZ
	DD	FLAT:?ChangeOwner@SimBaseClass@@UAEXVVU_ID@@@Z
	DD	FLAT:?MakeLocal@SimBaseClass@@UAEXXZ
	DD	FLAT:?MakeRemote@SimBaseClass@@UAEXXZ
	DD	FLAT:?IsDead@SimBaseClass@@UBEHXZ
	DD	FLAT:?Init@SimStaticClass@@UAEXPAVSimInitDataClass@@@Z
	DD	FLAT:?Exec@SimBaseClass@@UAEHXZ
	DD	FLAT:?GetTransform@SimBaseClass@@UAEXQAY02M@Z
	DD	FLAT:?ApplyDamage@SimBaseClass@@UAEXPAVFalconDamageMessage@@@Z
	DD	FLAT:?ApplyDeathMessage@SimBaseClass@@UAEXPAVFalconDeathMessage@@@Z
	DD	FLAT:?SetDead@SimBaseClass@@UAEXH@Z
	DD	FLAT:?MakePlayerVehicle@SimBaseClass@@UAEXXZ
	DD	FLAT:?MakeNonPlayerVehicle@SimBaseClass@@UAEXXZ
	DD	FLAT:?ConfigurePlayerAvionics@SimBaseClass@@UAEXXZ
	DD	FLAT:?SetVuPosition@SimBaseClass@@UAEXXZ
	DD	FLAT:?Regenerate@SimBaseClass@@UAEXMMMM@Z
	DD	FLAT:?Mass@SimBaseClass@@UAEMXZ
	DD	FLAT:?GetFocusPoint@SimBaseClass@@UAEXAAM00@Z
CONST	ENDS
xdata$x	SEGMENT
__unwindtable$??1SimStaticClass@@UAE@XZ DD 0ffffffffH
	DD	FLAT:__unwindfunclet$??1SimStaticClass@@UAE@XZ$0
__unwindtable$??0SimStaticClass@@QAE@PAU_iobuf@@@Z DD 0ffffffffH
	DD	FLAT:__unwindfunclet$??0SimStaticClass@@QAE@PAU_iobuf@@@Z$0
__unwindtable$??0SimStaticClass@@QAE@PAPAEPAJ@Z DD 0ffffffffH
	DD	FLAT:__unwindfunclet$??0SimStaticClass@@QAE@PAPAEPAJ@Z$0
__unwindtable$??0SimStaticClass@@QAE@H@Z DD 0ffffffffH
	DD	FLAT:__unwindfunclet$??0SimStaticClass@@QAE@H@Z$0
__ehfuncinfo$??1SimStaticClass@@UAE@XZ DD 019930522H
	DD	01H
	DD	FLAT:__unwindtable$??1SimStaticClass@@UAE@XZ
	DD	2 DUP(00H)
	DD	2 DUP(00H)
	DD	00H
	DD	01H
__ehfuncinfo$??0SimStaticClass@@QAE@PAU_iobuf@@@Z DD 019930522H
	DD	01H
	DD	FLAT:__unwindtable$??0SimStaticClass@@QAE@PAU_iobuf@@@Z
	DD	2 DUP(00H)
	DD	2 DUP(00H)
	DD	00H
	DD	01H
__ehfuncinfo$??0SimStaticClass@@QAE@PAPAEPAJ@Z DD 019930522H
	DD	01H
	DD	FLAT:__unwindtable$??0SimStaticClass@@QAE@PAPAEPAJ@Z
	DD	2 DUP(00H)
	DD	2 DUP(00H)
	DD	00H
	DD	01H
__ehfuncinfo$??0SimStaticClass@@QAE@H@Z DD 019930522H
	DD	01H
	DD	FLAT:__unwindtable$??0SimStaticClass@@QAE@H@Z
	DD	2 DUP(00H)
	DD	2 DUP(00H)
	DD	00H
	DD	01H
xdata$x	ENDS
CRT$XCU	SEGMENT
_allocator_arg$initializer$ DD FLAT:??__Eallocator_arg@std@@YAXXZ
CRT$XCU	ENDS
; Function compile flags: /Odtp
;	COMDAT ??_GSimStaticClass@@UAEPAXI@Z
_TEXT	SEGMENT
_this$ = -4						; size = 4
___flags$ = 8						; size = 4
??_GSimStaticClass@@UAEPAXI@Z PROC			; SimStaticClass::`scalar deleting destructor', COMDAT
; _this$ = ecx
	push	ebp
	mov	ebp, esp
	push	ecx
	mov	DWORD PTR _this$[ebp], ecx
	mov	ecx, DWORD PTR _this$[ebp]
	call	??1SimStaticClass@@UAE@XZ		; SimStaticClass::~SimStaticClass
	mov	eax, DWORD PTR ___flags$[ebp]
	and	eax, 1
	je	SHORT $LN1@scalar
	mov	ecx, DWORD PTR _this$[ebp]
	push	ecx
	call	??3@YAXPAX@Z				; operator delete
	add	esp, 4
$LN1@scalar:
	mov	eax, DWORD PTR _this$[ebp]
	mov	esp, ebp
	pop	ebp
	ret	4
??_GSimStaticClass@@UAEPAXI@Z ENDP			; SimStaticClass::`scalar deleting destructor'
_TEXT	ENDS
; Function compile flags: /Odtp
; File c:\users\zhitao li\documents\visual studio 2012\projects\freefalcon\sim\include\simstatc.h
;	COMDAT ?IsStatic@SimStaticClass@@UAEHXZ
_TEXT	SEGMENT
_this$ = -4						; size = 4
?IsStatic@SimStaticClass@@UAEHXZ PROC			; SimStaticClass::IsStatic, COMDAT
; _this$ = ecx

; 34   : 	virtual int IsStatic (void) { return TRUE; }

	push	ebp
	mov	ebp, esp
	push	ecx
	mov	DWORD PTR _this$[ebp], ecx
	mov	eax, 1
	mov	esp, ebp
	pop	ebp
	ret	0
?IsStatic@SimStaticClass@@UAEHXZ ENDP			; SimStaticClass::IsStatic
_TEXT	ENDS
; Function compile flags: /Odtp
; File c:\users\zhitao li\documents\visual studio 2012\projects\freefalcon\sim\simlib\simstatic.cpp
_TEXT	SEGMENT
_this$ = -4						; size = 4
_event$ = 8						; size = 4
?Handle@SimStaticClass@@UAEHPAVVuTransferEvent@@@Z PROC	; SimStaticClass::Handle
; _this$ = ecx

; 71   : {

	push	ebp
	mov	ebp, esp
	push	ecx
	mov	DWORD PTR _this$[ebp], ecx

; 72   :    return (SimBaseClass::Handle(event));

	mov	eax, DWORD PTR _event$[ebp]
	push	eax
	mov	ecx, DWORD PTR _this$[ebp]
	call	?Handle@SimBaseClass@@UAEHPAVVuTransferEvent@@@Z ; SimBaseClass::Handle

; 73   : }

	mov	esp, ebp
	pop	ebp
	ret	4
?Handle@SimStaticClass@@UAEHPAVVuTransferEvent@@@Z ENDP	; SimStaticClass::Handle
_TEXT	ENDS
; Function compile flags: /Odtp
; File c:\users\zhitao li\documents\visual studio 2012\projects\freefalcon\sim\simlib\simstatic.cpp
_TEXT	SEGMENT
_this$ = -4						; size = 4
_event$ = 8						; size = 4
?Handle@SimStaticClass@@UAEHPAVVuPositionUpdateEvent@@@Z PROC ; SimStaticClass::Handle
; _this$ = ecx

; 66   : {

	push	ebp
	mov	ebp, esp
	push	ecx
	mov	DWORD PTR _this$[ebp], ecx

; 67   :    return (SimBaseClass::Handle(event));

	mov	eax, DWORD PTR _event$[ebp]
	push	eax
	mov	ecx, DWORD PTR _this$[ebp]
	call	?Handle@SimBaseClass@@UAEHPAVVuPositionUpdateEvent@@@Z ; SimBaseClass::Handle

; 68   : }

	mov	esp, ebp
	pop	ebp
	ret	4
?Handle@SimStaticClass@@UAEHPAVVuPositionUpdateEvent@@@Z ENDP ; SimStaticClass::Handle
_TEXT	ENDS
; Function compile flags: /Odtp
; File c:\users\zhitao li\documents\visual studio 2012\projects\freefalcon\sim\simlib\simstatic.cpp
_TEXT	SEGMENT
_this$ = -4						; size = 4
_event$ = 8						; size = 4
?Handle@SimStaticClass@@UAEHPAVVuFullUpdateEvent@@@Z PROC ; SimStaticClass::Handle
; _this$ = ecx

; 61   : {

	push	ebp
	mov	ebp, esp
	push	ecx
	mov	DWORD PTR _this$[ebp], ecx

; 62   :    return (SimBaseClass::Handle(event));

	mov	eax, DWORD PTR _event$[ebp]
	push	eax
	mov	ecx, DWORD PTR _this$[ebp]
	call	?Handle@SimBaseClass@@UAEHPAVVuFullUpdateEvent@@@Z ; SimBaseClass::Handle

; 63   : }

	mov	esp, ebp
	pop	ebp
	ret	4
?Handle@SimStaticClass@@UAEHPAVVuFullUpdateEvent@@@Z ENDP ; SimStaticClass::Handle
_TEXT	ENDS
; Function compile flags: /Odtp
; File c:\users\zhitao li\documents\visual studio 2012\projects\freefalcon\sim\simlib\simstatic.cpp
_TEXT	SEGMENT
_this$ = -4						; size = 4
_file$ = 8						; size = 4
?Save@SimStaticClass@@UAEHPAU_iobuf@@@Z PROC		; SimStaticClass::Save
; _this$ = ecx

; 56   : {

	push	ebp
	mov	ebp, esp
	push	ecx
	mov	DWORD PTR _this$[ebp], ecx

; 57   :    return (SimBaseClass::Save (file));

	mov	eax, DWORD PTR _file$[ebp]
	push	eax
	mov	ecx, DWORD PTR _this$[ebp]
	call	?Save@SimBaseClass@@UAEHPAU_iobuf@@@Z	; SimBaseClass::Save

; 58   : }

	mov	esp, ebp
	pop	ebp
	ret	4
?Save@SimStaticClass@@UAEHPAU_iobuf@@@Z ENDP		; SimStaticClass::Save
_TEXT	ENDS
; Function compile flags: /Odtp
; File c:\users\zhitao li\documents\visual studio 2012\projects\freefalcon\sim\simlib\simstatic.cpp
_TEXT	SEGMENT
_this$ = -4						; size = 4
_stream$ = 8						; size = 4
?Save@SimStaticClass@@UAEHPAPAE@Z PROC			; SimStaticClass::Save
; _this$ = ecx

; 51   : {

	push	ebp
	mov	ebp, esp
	push	ecx
	mov	DWORD PTR _this$[ebp], ecx

; 52   :    return (SimBaseClass::Save (stream));

	mov	eax, DWORD PTR _stream$[ebp]
	push	eax
	mov	ecx, DWORD PTR _this$[ebp]
	call	?Save@SimBaseClass@@UAEHPAPAE@Z		; SimBaseClass::Save

; 53   : }

	mov	esp, ebp
	pop	ebp
	ret	4
?Save@SimStaticClass@@UAEHPAPAE@Z ENDP			; SimStaticClass::Save
_TEXT	ENDS
; Function compile flags: /Odtp
; File c:\users\zhitao li\documents\visual studio 2012\projects\freefalcon\sim\simlib\simstatic.cpp
_TEXT	SEGMENT
_this$ = -4						; size = 4
?SaveSize@SimStaticClass@@UAEHXZ PROC			; SimStaticClass::SaveSize
; _this$ = ecx

; 46   : {

	push	ebp
	mov	ebp, esp
	push	ecx
	mov	DWORD PTR _this$[ebp], ecx

; 47   :    return SimBaseClass::SaveSize();

	mov	ecx, DWORD PTR _this$[ebp]
	call	?SaveSize@SimBaseClass@@UAEHXZ		; SimBaseClass::SaveSize

; 48   : }

	mov	esp, ebp
	pop	ebp
	ret	0
?SaveSize@SimStaticClass@@UAEHXZ ENDP			; SimStaticClass::SaveSize
_TEXT	ENDS
; Function compile flags: /Odtp
; File c:\users\zhitao li\documents\visual studio 2012\projects\freefalcon\sim\include\simstatc.h
;	COMDAT ?GetKias@SimStaticClass@@UBEMXZ
_TEXT	SEGMENT
_this$ = -4						; size = 4
?GetKias@SimStaticClass@@UBEMXZ PROC			; SimStaticClass::GetKias, COMDAT
; _this$ = ecx

; 22   : 	virtual float GetKias (void) const { return 0; }

	push	ebp
	mov	ebp, esp
	push	ecx
	mov	DWORD PTR _this$[ebp], ecx
	fldz
	mov	esp, ebp
	pop	ebp
	ret	0
?GetKias@SimStaticClass@@UBEMXZ ENDP			; SimStaticClass::GetKias
_TEXT	ENDS
; Function compile flags: /Odtp
; File c:\users\zhitao li\documents\visual studio 2012\projects\freefalcon\sim\include\simstatc.h
;	COMDAT ?GetVt@SimStaticClass@@UBEMXZ
_TEXT	SEGMENT
_this$ = -4						; size = 4
?GetVt@SimStaticClass@@UBEMXZ PROC			; SimStaticClass::GetVt, COMDAT
; _this$ = ecx

; 21   : 	virtual float GetVt (void) const { return 0; }

	push	ebp
	mov	ebp, esp
	push	ecx
	mov	DWORD PTR _this$[ebp], ecx
	fldz
	mov	esp, ebp
	pop	ebp
	ret	0
?GetVt@SimStaticClass@@UBEMXZ ENDP			; SimStaticClass::GetVt
_TEXT	ENDS
; Function compile flags: /Odtp
; File c:\users\zhitao li\documents\visual studio 2012\projects\freefalcon\sim\simlib\simstatic.cpp
_TEXT	SEGMENT
_this$ = -4						; size = 4
?CleanupLocalData@SimStaticClass@@AAEXXZ PROC		; SimStaticClass::CleanupLocalData
; _this$ = ecx

; 33   : void SimStaticClass::CleanupLocalData(){

	push	ebp
	mov	ebp, esp
	push	ecx
	mov	DWORD PTR _this$[ebp], ecx

; 34   : }

	mov	esp, ebp
	pop	ebp
	ret	0
?CleanupLocalData@SimStaticClass@@AAEXXZ ENDP		; SimStaticClass::CleanupLocalData
_TEXT	ENDS
; Function compile flags: /Odtp
; File c:\users\zhitao li\documents\visual studio 2012\projects\freefalcon\sim\simlib\simstatic.cpp
_TEXT	SEGMENT
_this$ = -4						; size = 4
?InitLocalData@SimStaticClass@@AAEXXZ PROC		; SimStaticClass::InitLocalData
; _this$ = ecx

; 26   : void SimStaticClass::InitLocalData(){

	push	ebp
	mov	ebp, esp
	push	ecx
	mov	DWORD PTR _this$[ebp], ecx

; 27   : }

	mov	esp, ebp
	pop	ebp
	ret	0
?InitLocalData@SimStaticClass@@AAEXXZ ENDP		; SimStaticClass::InitLocalData
_TEXT	ENDS
; Function compile flags: /Odtp
; File c:\users\zhitao li\documents\visual studio 2012\projects\freefalcon\sim\simlib\simstatic.cpp
_TEXT	SEGMENT
_this$ = -4						; size = 4
?CleanupData@SimStaticClass@@UAEXXZ PROC		; SimStaticClass::CleanupData
; _this$ = ecx

; 29   : void SimStaticClass::CleanupData(){

	push	ebp
	mov	ebp, esp
	push	ecx
	mov	DWORD PTR _this$[ebp], ecx

; 30   : 	SimBaseClass::CleanupData();

	mov	ecx, DWORD PTR _this$[ebp]
	call	?CleanupData@SimBaseClass@@UAEXXZ	; SimBaseClass::CleanupData

; 31   : }

	mov	esp, ebp
	pop	ebp
	ret	0
?CleanupData@SimStaticClass@@UAEXXZ ENDP		; SimStaticClass::CleanupData
_TEXT	ENDS
; Function compile flags: /Odtp
; File c:\users\zhitao li\documents\visual studio 2012\projects\freefalcon\sim\simlib\simstatic.cpp
_TEXT	SEGMENT
_this$ = -4						; size = 4
?InitData@SimStaticClass@@UAEXXZ PROC			; SimStaticClass::InitData
; _this$ = ecx

; 21   : void SimStaticClass::InitData(){

	push	ebp
	mov	ebp, esp
	push	ecx
	mov	DWORD PTR _this$[ebp], ecx

; 22   : 	SimBaseClass::InitData();

	mov	ecx, DWORD PTR _this$[ebp]
	call	?InitData@SimBaseClass@@UAEXXZ		; SimBaseClass::InitData

; 23   : 	InitLocalData();

	mov	ecx, DWORD PTR _this$[ebp]
	call	?InitLocalData@SimStaticClass@@AAEXXZ	; SimStaticClass::InitLocalData

; 24   : }

	mov	esp, ebp
	pop	ebp
	ret	0
?InitData@SimStaticClass@@UAEXXZ ENDP			; SimStaticClass::InitData
_TEXT	ENDS
; Function compile flags: /Odtp
; File c:\users\zhitao li\documents\visual studio 2012\projects\freefalcon\sim\simlib\simstatic.cpp
_TEXT	SEGMENT
_this$ = -4						; size = 4
_initData$ = 8						; size = 4
?Init@SimStaticClass@@UAEXPAVSimInitDataClass@@@Z PROC	; SimStaticClass::Init
; _this$ = ecx

; 37   : {

	push	ebp
	mov	ebp, esp
	push	ecx
	mov	DWORD PTR _this$[ebp], ecx

; 38   : 	SimBaseClass::Init(initData);

	mov	eax, DWORD PTR _initData$[ebp]
	push	eax
	mov	ecx, DWORD PTR _this$[ebp]
	call	?Init@SimBaseClass@@UAEXPAVSimInitDataClass@@@Z ; SimBaseClass::Init

; 39   : 	SetTypeFlag(FalconSimObjective);

	push	32					; 00000020H
	mov	ecx, DWORD PTR _this$[ebp]
	call	?SetTypeFlag@FalconEntity@@QAEXH@Z	; FalconEntity::SetTypeFlag

; 40   : }

	mov	esp, ebp
	pop	ebp
	ret	4
?Init@SimStaticClass@@UAEXPAVSimInitDataClass@@@Z ENDP	; SimStaticClass::Init
_TEXT	ENDS
; Function compile flags: /Odtp
; File c:\users\zhitao li\documents\visual studio 2012\projects\freefalcon\sim\simlib\simstatic.cpp
_TEXT	SEGMENT
_this$ = -16						; size = 4
__$EHRec$ = -12						; size = 12
??1SimStaticClass@@UAE@XZ PROC				; SimStaticClass::~SimStaticClass
; _this$ = ecx

; 17   : SimStaticClass::~SimStaticClass(void){

	push	ebp
	mov	ebp, esp
	push	-1
	push	__ehhandler$??1SimStaticClass@@UAE@XZ
	mov	eax, DWORD PTR fs:0
	push	eax
	push	ecx
	mov	eax, DWORD PTR ___security_cookie
	xor	eax, ebp
	push	eax
	lea	eax, DWORD PTR __$EHRec$[ebp]
	mov	DWORD PTR fs:0, eax
	mov	DWORD PTR _this$[ebp], ecx
	mov	eax, DWORD PTR _this$[ebp]
	mov	DWORD PTR [eax], OFFSET ??_7SimStaticClass@@6B@
	mov	DWORD PTR __$EHRec$[ebp+8], 0

; 18   : 	CleanupLocalData();

	mov	ecx, DWORD PTR _this$[ebp]
	call	?CleanupLocalData@SimStaticClass@@AAEXXZ ; SimStaticClass::CleanupLocalData

; 19   : }

	mov	DWORD PTR __$EHRec$[ebp+8], -1
	mov	ecx, DWORD PTR _this$[ebp]
	call	??1SimBaseClass@@UAE@XZ			; SimBaseClass::~SimBaseClass
	mov	ecx, DWORD PTR __$EHRec$[ebp]
	mov	DWORD PTR fs:0, ecx
	pop	ecx
	mov	esp, ebp
	pop	ebp
	ret	0
_TEXT	ENDS
text$x	SEGMENT
__unwindfunclet$??1SimStaticClass@@UAE@XZ$0:
	mov	ecx, DWORD PTR _this$[ebp]
	jmp	??1SimBaseClass@@UAE@XZ			; SimBaseClass::~SimBaseClass
__ehhandler$??1SimStaticClass@@UAE@XZ:
	mov	edx, DWORD PTR [esp+8]
	lea	eax, DWORD PTR [edx+12]
	mov	ecx, DWORD PTR [edx-8]
	xor	ecx, eax
	call	@__security_check_cookie@4
	mov	eax, OFFSET __ehfuncinfo$??1SimStaticClass@@UAE@XZ
	jmp	___CxxFrameHandler3
text$x	ENDS
??1SimStaticClass@@UAE@XZ ENDP				; SimStaticClass::~SimStaticClass
; Function compile flags: /Odtp
; File c:\users\zhitao li\documents\visual studio 2012\projects\freefalcon\sim\simlib\simstatic.cpp
_TEXT	SEGMENT
_this$ = -16						; size = 4
__$EHRec$ = -12						; size = 12
_filePtr$ = 8						; size = 4
??0SimStaticClass@@QAE@PAU_iobuf@@@Z PROC		; SimStaticClass::SimStaticClass
; _this$ = ecx

; 5    : SimStaticClass::SimStaticClass(FILE* filePtr) : SimBaseClass (filePtr){

	push	ebp
	mov	ebp, esp
	push	-1
	push	__ehhandler$??0SimStaticClass@@QAE@PAU_iobuf@@@Z
	mov	eax, DWORD PTR fs:0
	push	eax
	push	ecx
	mov	eax, DWORD PTR ___security_cookie
	xor	eax, ebp
	push	eax
	lea	eax, DWORD PTR __$EHRec$[ebp]
	mov	DWORD PTR fs:0, eax
	mov	DWORD PTR _this$[ebp], ecx
	mov	eax, DWORD PTR _filePtr$[ebp]
	push	eax
	mov	ecx, DWORD PTR _this$[ebp]
	call	??0SimBaseClass@@QAE@PAU_iobuf@@@Z	; SimBaseClass::SimBaseClass
	mov	DWORD PTR __$EHRec$[ebp+8], 0
	mov	ecx, DWORD PTR _this$[ebp]
	mov	DWORD PTR [ecx], OFFSET ??_7SimStaticClass@@6B@

; 6    : 	InitLocalData();

	mov	ecx, DWORD PTR _this$[ebp]
	call	?InitLocalData@SimStaticClass@@AAEXXZ	; SimStaticClass::InitLocalData

; 7    : }

	mov	DWORD PTR __$EHRec$[ebp+8], -1
	mov	eax, DWORD PTR _this$[ebp]
	mov	ecx, DWORD PTR __$EHRec$[ebp]
	mov	DWORD PTR fs:0, ecx
	pop	ecx
	mov	esp, ebp
	pop	ebp
	ret	4
_TEXT	ENDS
text$x	SEGMENT
__unwindfunclet$??0SimStaticClass@@QAE@PAU_iobuf@@@Z$0:
	mov	ecx, DWORD PTR _this$[ebp]
	jmp	??1SimBaseClass@@UAE@XZ			; SimBaseClass::~SimBaseClass
__ehhandler$??0SimStaticClass@@QAE@PAU_iobuf@@@Z:
	mov	edx, DWORD PTR [esp+8]
	lea	eax, DWORD PTR [edx+12]
	mov	ecx, DWORD PTR [edx-8]
	xor	ecx, eax
	call	@__security_check_cookie@4
	mov	eax, OFFSET __ehfuncinfo$??0SimStaticClass@@QAE@PAU_iobuf@@@Z
	jmp	___CxxFrameHandler3
text$x	ENDS
??0SimStaticClass@@QAE@PAU_iobuf@@@Z ENDP		; SimStaticClass::SimStaticClass
; Function compile flags: /Odtp
; File c:\users\zhitao li\documents\visual studio 2012\projects\freefalcon\sim\simlib\simstatic.cpp
_TEXT	SEGMENT
_this$ = -16						; size = 4
__$EHRec$ = -12						; size = 12
_stream$ = 8						; size = 4
_rem$ = 12						; size = 4
??0SimStaticClass@@QAE@PAPAEPAJ@Z PROC			; SimStaticClass::SimStaticClass
; _this$ = ecx

; 9    : SimStaticClass::SimStaticClass(VU_BYTE** stream, long *rem) : SimBaseClass (stream, rem){

	push	ebp
	mov	ebp, esp
	push	-1
	push	__ehhandler$??0SimStaticClass@@QAE@PAPAEPAJ@Z
	mov	eax, DWORD PTR fs:0
	push	eax
	push	ecx
	mov	eax, DWORD PTR ___security_cookie
	xor	eax, ebp
	push	eax
	lea	eax, DWORD PTR __$EHRec$[ebp]
	mov	DWORD PTR fs:0, eax
	mov	DWORD PTR _this$[ebp], ecx
	mov	eax, DWORD PTR _rem$[ebp]
	push	eax
	mov	ecx, DWORD PTR _stream$[ebp]
	push	ecx
	mov	ecx, DWORD PTR _this$[ebp]
	call	??0SimBaseClass@@QAE@PAPAEPAJ@Z		; SimBaseClass::SimBaseClass
	mov	DWORD PTR __$EHRec$[ebp+8], 0
	mov	edx, DWORD PTR _this$[ebp]
	mov	DWORD PTR [edx], OFFSET ??_7SimStaticClass@@6B@

; 10   : 	InitLocalData();

	mov	ecx, DWORD PTR _this$[ebp]
	call	?InitLocalData@SimStaticClass@@AAEXXZ	; SimStaticClass::InitLocalData

; 11   : }

	mov	DWORD PTR __$EHRec$[ebp+8], -1
	mov	eax, DWORD PTR _this$[ebp]
	mov	ecx, DWORD PTR __$EHRec$[ebp]
	mov	DWORD PTR fs:0, ecx
	pop	ecx
	mov	esp, ebp
	pop	ebp
	ret	8
_TEXT	ENDS
text$x	SEGMENT
__unwindfunclet$??0SimStaticClass@@QAE@PAPAEPAJ@Z$0:
	mov	ecx, DWORD PTR _this$[ebp]
	jmp	??1SimBaseClass@@UAE@XZ			; SimBaseClass::~SimBaseClass
__ehhandler$??0SimStaticClass@@QAE@PAPAEPAJ@Z:
	mov	edx, DWORD PTR [esp+8]
	lea	eax, DWORD PTR [edx+12]
	mov	ecx, DWORD PTR [edx-8]
	xor	ecx, eax
	call	@__security_check_cookie@4
	mov	eax, OFFSET __ehfuncinfo$??0SimStaticClass@@QAE@PAPAEPAJ@Z
	jmp	___CxxFrameHandler3
text$x	ENDS
??0SimStaticClass@@QAE@PAPAEPAJ@Z ENDP			; SimStaticClass::SimStaticClass
; Function compile flags: /Odtp
; File c:\users\zhitao li\documents\visual studio 2012\projects\freefalcon\sim\simlib\simstatic.cpp
_TEXT	SEGMENT
_this$ = -16						; size = 4
__$EHRec$ = -12						; size = 12
_type$ = 8						; size = 4
??0SimStaticClass@@QAE@H@Z PROC				; SimStaticClass::SimStaticClass
; _this$ = ecx

; 13   : SimStaticClass::SimStaticClass(int type) : SimBaseClass (type){

	push	ebp
	mov	ebp, esp
	push	-1
	push	__ehhandler$??0SimStaticClass@@QAE@H@Z
	mov	eax, DWORD PTR fs:0
	push	eax
	push	ecx
	mov	eax, DWORD PTR ___security_cookie
	xor	eax, ebp
	push	eax
	lea	eax, DWORD PTR __$EHRec$[ebp]
	mov	DWORD PTR fs:0, eax
	mov	DWORD PTR _this$[ebp], ecx
	movzx	eax, WORD PTR _type$[ebp]
	push	eax
	mov	ecx, DWORD PTR _this$[ebp]
	call	??0SimBaseClass@@QAE@G@Z		; SimBaseClass::SimBaseClass
	mov	DWORD PTR __$EHRec$[ebp+8], 0
	mov	ecx, DWORD PTR _this$[ebp]
	mov	DWORD PTR [ecx], OFFSET ??_7SimStaticClass@@6B@

; 14   : 	InitLocalData();

	mov	ecx, DWORD PTR _this$[ebp]
	call	?InitLocalData@SimStaticClass@@AAEXXZ	; SimStaticClass::InitLocalData

; 15   : }

	mov	DWORD PTR __$EHRec$[ebp+8], -1
	mov	eax, DWORD PTR _this$[ebp]
	mov	ecx, DWORD PTR __$EHRec$[ebp]
	mov	DWORD PTR fs:0, ecx
	pop	ecx
	mov	esp, ebp
	pop	ebp
	ret	4
_TEXT	ENDS
text$x	SEGMENT
__unwindfunclet$??0SimStaticClass@@QAE@H@Z$0:
	mov	ecx, DWORD PTR _this$[ebp]
	jmp	??1SimBaseClass@@UAE@XZ			; SimBaseClass::~SimBaseClass
__ehhandler$??0SimStaticClass@@QAE@H@Z:
	mov	edx, DWORD PTR [esp+8]
	lea	eax, DWORD PTR [edx+12]
	mov	ecx, DWORD PTR [edx-8]
	xor	ecx, eax
	call	@__security_check_cookie@4
	mov	eax, OFFSET __ehfuncinfo$??0SimStaticClass@@QAE@H@Z
	jmp	___CxxFrameHandler3
text$x	ENDS
??0SimStaticClass@@QAE@H@Z ENDP				; SimStaticClass::SimStaticClass
; Function compile flags: /Odtp
; File c:\users\zhitao li\documents\visual studio 2012\projects\freefalcon\sim\include\simbase.h
;	COMDAT ?Mass@SimBaseClass@@UAEMXZ
_TEXT	SEGMENT
_this$ = -4						; size = 4
?Mass@SimBaseClass@@UAEMXZ PROC				; SimBaseClass::Mass, COMDAT
; _this$ = ecx

; 267  : 	virtual float Mass(void)		{return 2500.0F;}

	push	ebp
	mov	ebp, esp
	push	ecx
	mov	DWORD PTR _this$[ebp], ecx
	fld	DWORD PTR __real@451c4000
	mov	esp, ebp
	pop	ebp
	ret	0
?Mass@SimBaseClass@@UAEMXZ ENDP				; SimBaseClass::Mass
_TEXT	ENDS
; Function compile flags: /Odtp
; File c:\users\zhitao li\documents\visual studio 2012\projects\freefalcon\sim\include\simbase.h
;	COMDAT ?Regenerate@SimBaseClass@@UAEXMMMM@Z
_TEXT	SEGMENT
_this$ = -4						; size = 4
___formal$ = 8						; size = 4
___formal$ = 12						; size = 4
___formal$ = 16						; size = 4
___formal$ = 20						; size = 4
?Regenerate@SimBaseClass@@UAEXMMMM@Z PROC		; SimBaseClass::Regenerate, COMDAT
; _this$ = ecx

; 261  : 	virtual void Regenerate(float, float, float, float) {}

	push	ebp
	mov	ebp, esp
	push	ecx
	mov	DWORD PTR _this$[ebp], ecx
	mov	esp, ebp
	pop	ebp
	ret	16					; 00000010H
?Regenerate@SimBaseClass@@UAEXMMMM@Z ENDP		; SimBaseClass::Regenerate
_TEXT	ENDS
; Function compile flags: /Odtp
; File c:\users\zhitao li\documents\visual studio 2012\projects\freefalcon\sim\include\simbase.h
;	COMDAT ?SetVuPosition@SimBaseClass@@UAEXXZ
_TEXT	SEGMENT
_this$ = -4						; size = 4
?SetVuPosition@SimBaseClass@@UAEXXZ PROC		; SimBaseClass::SetVuPosition, COMDAT
; _this$ = ecx

; 260  : 	virtual void SetVuPosition() {}

	push	ebp
	mov	ebp, esp
	push	ecx
	mov	DWORD PTR _this$[ebp], ecx
	mov	esp, ebp
	pop	ebp
	ret	0
?SetVuPosition@SimBaseClass@@UAEXXZ ENDP		; SimBaseClass::SetVuPosition
_TEXT	ENDS
; Function compile flags: /Odtp
; File c:\users\zhitao li\documents\visual studio 2012\projects\freefalcon\sim\include\simbase.h
;	COMDAT ?ConfigurePlayerAvionics@SimBaseClass@@UAEXXZ
_TEXT	SEGMENT
_this$ = -4						; size = 4
?ConfigurePlayerAvionics@SimBaseClass@@UAEXXZ PROC	; SimBaseClass::ConfigurePlayerAvionics, COMDAT
; _this$ = ecx

; 259  : 	virtual void ConfigurePlayerAvionics() {}

	push	ebp
	mov	ebp, esp
	push	ecx
	mov	DWORD PTR _this$[ebp], ecx
	mov	esp, ebp
	pop	ebp
	ret	0
?ConfigurePlayerAvionics@SimBaseClass@@UAEXXZ ENDP	; SimBaseClass::ConfigurePlayerAvionics
_TEXT	ENDS
; Function compile flags: /Odtp
; File c:\users\zhitao li\documents\visual studio 2012\projects\freefalcon\sim\include\simbase.h
;	COMDAT ?MakeNonPlayerVehicle@SimBaseClass@@UAEXXZ
_TEXT	SEGMENT
_this$ = -4						; size = 4
?MakeNonPlayerVehicle@SimBaseClass@@UAEXXZ PROC		; SimBaseClass::MakeNonPlayerVehicle, COMDAT
; _this$ = ecx

; 258  : 	virtual void MakeNonPlayerVehicle() {}

	push	ebp
	mov	ebp, esp
	push	ecx
	mov	DWORD PTR _this$[ebp], ecx
	mov	esp, ebp
	pop	ebp
	ret	0
?MakeNonPlayerVehicle@SimBaseClass@@UAEXXZ ENDP		; SimBaseClass::MakeNonPlayerVehicle
_TEXT	ENDS
; Function compile flags: /Odtp
; File c:\users\zhitao li\documents\visual studio 2012\projects\freefalcon\sim\include\simbase.h
;	COMDAT ?MakePlayerVehicle@SimBaseClass@@UAEXXZ
_TEXT	SEGMENT
_this$ = -4						; size = 4
?MakePlayerVehicle@SimBaseClass@@UAEXXZ PROC		; SimBaseClass::MakePlayerVehicle, COMDAT
; _this$ = ecx

; 257  : 	virtual void MakePlayerVehicle() {}

	push	ebp
	mov	ebp, esp
	push	ecx
	mov	DWORD PTR _this$[ebp], ecx
	mov	esp, ebp
	pop	ebp
	ret	0
?MakePlayerVehicle@SimBaseClass@@UAEXXZ ENDP		; SimBaseClass::MakePlayerVehicle
_TEXT	ENDS
; Function compile flags: /Odtp
; File c:\users\zhitao li\documents\visual studio 2012\projects\freefalcon\sim\include\simbase.h
;	COMDAT ?GetTransform@SimBaseClass@@UAEXQAY02M@Z
_TEXT	SEGMENT
_this$ = -4						; size = 4
___formal$ = 8						; size = 4
?GetTransform@SimBaseClass@@UAEXQAY02M@Z PROC		; SimBaseClass::GetTransform, COMDAT
; _this$ = ecx

; 253  : 	virtual void GetTransform(TransformMatrix) {};

	push	ebp
	mov	ebp, esp
	push	ecx
	mov	DWORD PTR _this$[ebp], ecx
	mov	esp, ebp
	pop	ebp
	ret	4
?GetTransform@SimBaseClass@@UAEXQAY02M@Z ENDP		; SimBaseClass::GetTransform
_TEXT	ENDS
; Function compile flags: /Odtp
; File c:\users\zhitao li\documents\visual studio 2012\projects\freefalcon\sim\include\simbase.h
;	COMDAT ?Exec@SimBaseClass@@UAEHXZ
_TEXT	SEGMENT
_this$ = -4						; size = 4
?Exec@SimBaseClass@@UAEHXZ PROC				; SimBaseClass::Exec, COMDAT
; _this$ = ecx

; 252  : 	virtual int Exec(void) { return TRUE; };

	push	ebp
	mov	ebp, esp
	push	ecx
	mov	DWORD PTR _this$[ebp], ecx
	mov	eax, 1
	mov	esp, ebp
	pop	ebp
	ret	0
?Exec@SimBaseClass@@UAEHXZ ENDP				; SimBaseClass::Exec
_TEXT	ENDS
; Function compile flags: /Odtp
; File c:\users\zhitao li\documents\visual studio 2012\projects\freefalcon\sim\include\simbase.h
;	COMDAT ?IsDead@SimBaseClass@@UBEHXZ
_TEXT	SEGMENT
_this$ = -8						; size = 4
tv68 = -1						; size = 1
?IsDead@SimBaseClass@@UBEHXZ PROC			; SimBaseClass::IsDead, COMDAT
; _this$ = ecx

; 174  : 	virtual int IsDead() const { return (specialData.flags & OBJ_DEAD ? true : false); }

	push	ebp
	mov	ebp, esp
	sub	esp, 8
	mov	DWORD PTR _this$[ebp], ecx
	mov	eax, DWORD PTR _this$[ebp]
	mov	ecx, DWORD PTR [eax+172]
	and	ecx, 32					; 00000020H
	je	SHORT $LN3@IsDead
	mov	BYTE PTR tv68[ebp], 1
	jmp	SHORT $LN4@IsDead
$LN3@IsDead:
	mov	BYTE PTR tv68[ebp], 0
$LN4@IsDead:
	movzx	eax, BYTE PTR tv68[ebp]
	mov	esp, ebp
	pop	ebp
	ret	0
?IsDead@SimBaseClass@@UBEHXZ ENDP			; SimBaseClass::IsDead
_TEXT	ENDS
; Function compile flags: /Odtp
; File c:\users\zhitao li\documents\visual studio 2012\projects\freefalcon\sim\include\simbase.h
;	COMDAT ?IsExploding@SimBaseClass@@UAEHXZ
_TEXT	SEGMENT
_this$ = -8						; size = 4
tv68 = -4						; size = 4
?IsExploding@SimBaseClass@@UAEHXZ PROC			; SimBaseClass::IsExploding, COMDAT
; _this$ = ecx

; 173  : 	virtual int IsExploding () { return (specialData.flags & OBJ_EXPLODING ? TRUE : FALSE); }

	push	ebp
	mov	ebp, esp
	sub	esp, 8
	mov	DWORD PTR _this$[ebp], ecx
	mov	eax, DWORD PTR _this$[ebp]
	mov	ecx, DWORD PTR [eax+172]
	and	ecx, 16					; 00000010H
	je	SHORT $LN3@IsExplodin
	mov	DWORD PTR tv68[ebp], 1
	jmp	SHORT $LN4@IsExplodin
$LN3@IsExplodin:
	mov	DWORD PTR tv68[ebp], 0
$LN4@IsExplodin:
	mov	eax, DWORD PTR tv68[ebp]
	mov	esp, ebp
	pop	ebp
	ret	0
?IsExploding@SimBaseClass@@UAEHXZ ENDP			; SimBaseClass::IsExploding
_TEXT	ENDS
; Function compile flags: /Odtp
; File c:\users\zhitao li\documents\visual studio 2012\projects\freefalcon\sim\include\simbase.h
;	COMDAT ?OnGround@SimBaseClass@@UAEHXZ
_TEXT	SEGMENT
_this$ = -8						; size = 4
tv68 = -4						; size = 4
?OnGround@SimBaseClass@@UAEHXZ PROC			; SimBaseClass::OnGround, COMDAT
; _this$ = ecx

; 172  : 	virtual int OnGround () { return (specialData.flags & ON_GROUND ? TRUE : FALSE); }

	push	ebp
	mov	ebp, esp
	sub	esp, 8
	mov	DWORD PTR _this$[ebp], ecx
	mov	eax, DWORD PTR _this$[ebp]
	mov	ecx, DWORD PTR [eax+172]
	and	ecx, 128				; 00000080H
	je	SHORT $LN3@OnGround
	mov	DWORD PTR tv68[ebp], 1
	jmp	SHORT $LN4@OnGround
$LN3@OnGround:
	mov	DWORD PTR tv68[ebp], 0
$LN4@OnGround:
	mov	eax, DWORD PTR tv68[ebp]
	mov	esp, ebp
	pop	ebp
	ret	0
?OnGround@SimBaseClass@@UAEHXZ ENDP			; SimBaseClass::OnGround
_TEXT	ENDS
; Function compile flags: /Odtp
; File c:\users\zhitao li\documents\visual studio 2012\projects\freefalcon\sim\include\simbase.h
;	COMDAT ?GetCountry@SimBaseClass@@UAEEXZ
_TEXT	SEGMENT
_this$ = -4						; size = 4
?GetCountry@SimBaseClass@@UAEEXZ PROC			; SimBaseClass::GetCountry, COMDAT
; _this$ = ecx

; 157  : 	virtual uchar GetCountry() { return (uchar)specialData.country; };

	push	ebp
	mov	ebp, esp
	push	ecx
	mov	DWORD PTR _this$[ebp], ecx
	mov	eax, DWORD PTR _this$[ebp]
	mov	al, BYTE PTR [eax+180]
	mov	esp, ebp
	pop	ebp
	ret	0
?GetCountry@SimBaseClass@@UAEEXZ ENDP			; SimBaseClass::GetCountry
_TEXT	ENDS
; Function compile flags: /Odtp
; File c:\users\zhitao li\documents\visual studio 2012\projects\freefalcon\sim\include\simbase.h
;	COMDAT ?IsSimBase@SimBaseClass@@UAE_NXZ
_TEXT	SEGMENT
_this$ = -4						; size = 4
?IsSimBase@SimBaseClass@@UAE_NXZ PROC			; SimBaseClass::IsSimBase, COMDAT
; _this$ = ecx

; 152  : 	virtual bool IsSimBase() { return true; }

	push	ebp
	mov	ebp, esp
	push	ecx
	mov	DWORD PTR _this$[ebp], ecx
	mov	al, 1
	mov	esp, ebp
	pop	ebp
	ret	0
?IsSimBase@SimBaseClass@@UAE_NXZ ENDP			; SimBaseClass::IsSimBase
_TEXT	ENDS
; Function compile flags: /Odtp
; File c:\users\zhitao li\documents\visual studio 2012\projects\freefalcon\sim\include\simbase.h
;	COMDAT ?JoinFlight@SimBaseClass@@UAEXXZ
_TEXT	SEGMENT
_this$ = -4						; size = 4
?JoinFlight@SimBaseClass@@UAEXXZ PROC			; SimBaseClass::JoinFlight, COMDAT
; _this$ = ecx

; 139  : 	virtual void JoinFlight (void) {};

	push	ebp
	mov	ebp, esp
	push	ecx
	mov	DWORD PTR _this$[ebp], ecx
	mov	esp, ebp
	pop	ebp
	ret	0
?JoinFlight@SimBaseClass@@UAEXXZ ENDP			; SimBaseClass::JoinFlight
_TEXT	ENDS
; Function compile flags: /Odtp
; File c:\users\zhitao li\documents\visual studio 2012\projects\freefalcon\sim\include\simbase.h
;	COMDAT ?WeaponKeepAlive@SimBaseClass@@UAEXXZ
_TEXT	SEGMENT
_this$ = -4						; size = 4
?WeaponKeepAlive@SimBaseClass@@UAEXXZ PROC		; SimBaseClass::WeaponKeepAlive, COMDAT
; _this$ = ecx

; 136  : 	virtual void WeaponKeepAlive( void ) { return; };

	push	ebp
	mov	ebp, esp
	push	ecx
	mov	DWORD PTR _this$[ebp], ecx
	mov	esp, ebp
	pop	ebp
	ret	0
?WeaponKeepAlive@SimBaseClass@@UAEXXZ ENDP		; SimBaseClass::WeaponKeepAlive
_TEXT	ENDS
; Function compile flags: /Odtp
; File c:\users\zhitao li\documents\visual studio 2012\projects\freefalcon\falclib\include\falcent.h
;	COMDAT ?GetSEARCHtimer@FalconEntity@@UAEKXZ
_TEXT	SEGMENT
_this$ = -4						; size = 4
?GetSEARCHtimer@FalconEntity@@UAEKXZ PROC		; FalconEntity::GetSEARCHtimer, COMDAT
; _this$ = ecx

; 198  : 	virtual VU_TIME GetSEARCHtimer(void)				{ return 0; };

	push	ebp
	mov	ebp, esp
	push	ecx
	mov	DWORD PTR _this$[ebp], ecx
	xor	eax, eax
	mov	esp, ebp
	pop	ebp
	ret	0
?GetSEARCHtimer@FalconEntity@@UAEKXZ ENDP		; FalconEntity::GetSEARCHtimer
_TEXT	ENDS
; Function compile flags: /Odtp
; File c:\users\zhitao li\documents\visual studio 2012\projects\freefalcon\falclib\include\falcent.h
;	COMDAT ?GetAQUIREtimer@FalconEntity@@UAEKXZ
_TEXT	SEGMENT
_this$ = -4						; size = 4
?GetAQUIREtimer@FalconEntity@@UAEKXZ PROC		; FalconEntity::GetAQUIREtimer, COMDAT
; _this$ = ecx

; 197  : 	virtual VU_TIME GetAQUIREtimer(void)				{ return 0; };

	push	ebp
	mov	ebp, esp
	push	ecx
	mov	DWORD PTR _this$[ebp], ecx
	xor	eax, eax
	mov	esp, ebp
	pop	ebp
	ret	0
?GetAQUIREtimer@FalconEntity@@UAEKXZ ENDP		; FalconEntity::GetAQUIREtimer
_TEXT	ENDS
; Function compile flags: /Odtp
; File c:\users\zhitao li\documents\visual studio 2012\projects\freefalcon\falclib\include\falcent.h
;	COMDAT ?SetStepSearchMode@FalconEntity@@UAEXE@Z
_TEXT	SEGMENT
_this$ = -4						; size = 4
___formal$ = 8						; size = 1
?SetStepSearchMode@FalconEntity@@UAEXE@Z PROC		; FalconEntity::SetStepSearchMode, COMDAT
; _this$ = ecx

; 196  : 	virtual void SetStepSearchMode(uchar)					{ };

	push	ebp
	mov	ebp, esp
	push	ecx
	mov	DWORD PTR _this$[ebp], ecx
	mov	esp, ebp
	pop	ebp
	ret	4
?SetStepSearchMode@FalconEntity@@UAEXE@Z ENDP		; FalconEntity::SetStepSearchMode
_TEXT	ENDS
; Function compile flags: /Odtp
; File c:\users\zhitao li\documents\visual studio 2012\projects\freefalcon\falclib\include\falcent.h
;	COMDAT ?SetSEARCHtimer@FalconEntity@@UAEXK@Z
_TEXT	SEGMENT
_this$ = -4						; size = 4
_newTime$ = 8						; size = 4
?SetSEARCHtimer@FalconEntity@@UAEXK@Z PROC		; FalconEntity::SetSEARCHtimer, COMDAT
; _this$ = ecx

; 194  : 	virtual void SetSEARCHtimer(VU_TIME newTime)		{ };

	push	ebp
	mov	ebp, esp
	push	ecx
	mov	DWORD PTR _this$[ebp], ecx
	mov	esp, ebp
	pop	ebp
	ret	4
?SetSEARCHtimer@FalconEntity@@UAEXK@Z ENDP		; FalconEntity::SetSEARCHtimer
_TEXT	ENDS
; Function compile flags: /Odtp
; File c:\users\zhitao li\documents\visual studio 2012\projects\freefalcon\falclib\include\falcent.h
;	COMDAT ?SetAQUIREtimer@FalconEntity@@UAEXK@Z
_TEXT	SEGMENT
_this$ = -4						; size = 4
_newTime$ = 8						; size = 4
?SetAQUIREtimer@FalconEntity@@UAEXK@Z PROC		; FalconEntity::SetAQUIREtimer, COMDAT
; _this$ = ecx

; 193  : 	virtual void SetAQUIREtimer(VU_TIME newTime)		{ };

	push	ebp
	mov	ebp, esp
	push	ecx
	mov	DWORD PTR _this$[ebp], ecx
	mov	esp, ebp
	pop	ebp
	ret	4
?SetAQUIREtimer@FalconEntity@@UAEXK@Z ENDP		; FalconEntity::SetAQUIREtimer
_TEXT	ENDS
; Function compile flags: /Odtp
; File c:\users\zhitao li\documents\visual studio 2012\projects\freefalcon\falclib\include\falcent.h
;	COMDAT ?GetIRFactor@FalconEntity@@UAEMXZ
_TEXT	SEGMENT
_this$ = -4						; size = 4
?GetIRFactor@FalconEntity@@UAEMXZ PROC			; FalconEntity::GetIRFactor, COMDAT
; _this$ = ecx

; 164  : 	virtual float GetIRFactor (void)			{ return 0.0f; }

	push	ebp
	mov	ebp, esp
	push	ecx
	mov	DWORD PTR _this$[ebp], ecx
	fldz
	mov	esp, ebp
	pop	ebp
	ret	0
?GetIRFactor@FalconEntity@@UAEMXZ ENDP			; FalconEntity::GetIRFactor
_TEXT	ENDS
; Function compile flags: /Odtp
; File c:\users\zhitao li\documents\visual studio 2012\projects\freefalcon\falclib\include\falcent.h
;	COMDAT ?GetRCSFactor@FalconEntity@@UAEMXZ
_TEXT	SEGMENT
_this$ = -4						; size = 4
?GetRCSFactor@FalconEntity@@UAEMXZ PROC			; FalconEntity::GetRCSFactor, COMDAT
; _this$ = ecx

; 163  : 	virtual float GetRCSFactor (void)			{ return 0.0f; }

	push	ebp
	mov	ebp, esp
	push	ecx
	mov	DWORD PTR _this$[ebp], ecx
	fldz
	mov	esp, ebp
	pop	ebp
	ret	0
?GetRCSFactor@FalconEntity@@UAEMXZ ENDP			; FalconEntity::GetRCSFactor
_TEXT	ENDS
; Function compile flags: /Odtp
; File c:\users\zhitao li\documents\visual studio 2012\projects\freefalcon\falclib\include\falcent.h
;	COMDAT ?IsTaskForce@FalconEntity@@UAEHXZ
_TEXT	SEGMENT
_this$ = -4						; size = 4
?IsTaskForce@FalconEntity@@UAEHXZ PROC			; FalconEntity::IsTaskForce, COMDAT
; _this$ = ecx

; 158  : 	virtual int IsTaskForce (void)				{ return FALSE; }

	push	ebp
	mov	ebp, esp
	push	ecx
	mov	DWORD PTR _this$[ebp], ecx
	xor	eax, eax
	mov	esp, ebp
	pop	ebp
	ret	0
?IsTaskForce@FalconEntity@@UAEHXZ ENDP			; FalconEntity::IsTaskForce
_TEXT	ENDS
; Function compile flags: /Odtp
; File c:\users\zhitao li\documents\visual studio 2012\projects\freefalcon\falclib\include\falcent.h
;	COMDAT ?IsTeam@FalconEntity@@UAEHXZ
_TEXT	SEGMENT
_this$ = -4						; size = 4
?IsTeam@FalconEntity@@UAEHXZ PROC			; FalconEntity::IsTeam, COMDAT
; _this$ = ecx

; 157  : 	virtual int IsTeam (void)					{ return FALSE; }

	push	ebp
	mov	ebp, esp
	push	ecx
	mov	DWORD PTR _this$[ebp], ecx
	xor	eax, eax
	mov	esp, ebp
	pop	ebp
	ret	0
?IsTeam@FalconEntity@@UAEHXZ ENDP			; FalconEntity::IsTeam
_TEXT	ENDS
; Function compile flags: /Odtp
; File c:\users\zhitao li\documents\visual studio 2012\projects\freefalcon\falclib\include\falcent.h
;	COMDAT ?IsPackage@FalconEntity@@UAEHXZ
_TEXT	SEGMENT
_this$ = -4						; size = 4
?IsPackage@FalconEntity@@UAEHXZ PROC			; FalconEntity::IsPackage, COMDAT
; _this$ = ecx

; 156  : 	virtual int IsPackage (void)				{ return FALSE; }

	push	ebp
	mov	ebp, esp
	push	ecx
	mov	DWORD PTR _this$[ebp], ecx
	xor	eax, eax
	mov	esp, ebp
	pop	ebp
	ret	0
?IsPackage@FalconEntity@@UAEHXZ ENDP			; FalconEntity::IsPackage
_TEXT	ENDS
; Function compile flags: /Odtp
; File c:\users\zhitao li\documents\visual studio 2012\projects\freefalcon\falclib\include\falcent.h
;	COMDAT ?IsSquadron@FalconEntity@@UAEHXZ
_TEXT	SEGMENT
_this$ = -4						; size = 4
?IsSquadron@FalconEntity@@UAEHXZ PROC			; FalconEntity::IsSquadron, COMDAT
; _this$ = ecx

; 155  : 	virtual int IsSquadron (void)				{ return FALSE; }

	push	ebp
	mov	ebp, esp
	push	ecx
	mov	DWORD PTR _this$[ebp], ecx
	xor	eax, eax
	mov	esp, ebp
	pop	ebp
	ret	0
?IsSquadron@FalconEntity@@UAEHXZ ENDP			; FalconEntity::IsSquadron
_TEXT	ENDS
; Function compile flags: /Odtp
; File c:\users\zhitao li\documents\visual studio 2012\projects\freefalcon\falclib\include\falcent.h
;	COMDAT ?IsFlight@FalconEntity@@UBEHXZ
_TEXT	SEGMENT
_this$ = -4						; size = 4
?IsFlight@FalconEntity@@UBEHXZ PROC			; FalconEntity::IsFlight, COMDAT
; _this$ = ecx

; 154  : 	virtual int IsFlight() const				{ return FALSE; }

	push	ebp
	mov	ebp, esp
	push	ecx
	mov	DWORD PTR _this$[ebp], ecx
	xor	eax, eax
	mov	esp, ebp
	pop	ebp
	ret	0
?IsFlight@FalconEntity@@UBEHXZ ENDP			; FalconEntity::IsFlight
_TEXT	ENDS
; Function compile flags: /Odtp
; File c:\users\zhitao li\documents\visual studio 2012\projects\freefalcon\falclib\include\falcent.h
;	COMDAT ?IsBrigade@FalconEntity@@UAEHXZ
_TEXT	SEGMENT
_this$ = -4						; size = 4
?IsBrigade@FalconEntity@@UAEHXZ PROC			; FalconEntity::IsBrigade, COMDAT
; _this$ = ecx

; 153  : 	virtual int IsBrigade (void)				{ return FALSE; }

	push	ebp
	mov	ebp, esp
	push	ecx
	mov	DWORD PTR _this$[ebp], ecx
	xor	eax, eax
	mov	esp, ebp
	pop	ebp
	ret	0
?IsBrigade@FalconEntity@@UAEHXZ ENDP			; FalconEntity::IsBrigade
_TEXT	ENDS
; Function compile flags: /Odtp
; File c:\users\zhitao li\documents\visual studio 2012\projects\freefalcon\falclib\include\falcent.h
;	COMDAT ?IsBattalion@FalconEntity@@UAEHXZ
_TEXT	SEGMENT
_this$ = -4						; size = 4
?IsBattalion@FalconEntity@@UAEHXZ PROC			; FalconEntity::IsBattalion, COMDAT
; _this$ = ecx

; 152  : 	virtual int IsBattalion (void)				{ return FALSE; }

	push	ebp
	mov	ebp, esp
	push	ecx
	mov	DWORD PTR _this$[ebp], ecx
	xor	eax, eax
	mov	esp, ebp
	pop	ebp
	ret	0
?IsBattalion@FalconEntity@@UAEHXZ ENDP			; FalconEntity::IsBattalion
_TEXT	ENDS
; Function compile flags: /Odtp
; File c:\users\zhitao li\documents\visual studio 2012\projects\freefalcon\falclib\include\falcent.h
;	COMDAT ?IsObjective@FalconEntity@@UAEHXZ
_TEXT	SEGMENT
_this$ = -4						; size = 4
?IsObjective@FalconEntity@@UAEHXZ PROC			; FalconEntity::IsObjective, COMDAT
; _this$ = ecx

; 151  : 	virtual int IsObjective (void)				{ return FALSE; }

	push	ebp
	mov	ebp, esp
	push	ecx
	mov	DWORD PTR _this$[ebp], ecx
	xor	eax, eax
	mov	esp, ebp
	pop	ebp
	ret	0
?IsObjective@FalconEntity@@UAEHXZ ENDP			; FalconEntity::IsObjective
_TEXT	ENDS
; Function compile flags: /Odtp
; File c:\users\zhitao li\documents\visual studio 2012\projects\freefalcon\falclib\include\falcent.h
;	COMDAT ?IsUnit@FalconEntity@@UAEHXZ
_TEXT	SEGMENT
_this$ = -4						; size = 4
?IsUnit@FalconEntity@@UAEHXZ PROC			; FalconEntity::IsUnit, COMDAT
; _this$ = ecx

; 150  : 	virtual int IsUnit (void)					{ return FALSE; }

	push	ebp
	mov	ebp, esp
	push	ecx
	mov	DWORD PTR _this$[ebp], ecx
	xor	eax, eax
	mov	esp, ebp
	pop	ebp
	ret	0
?IsUnit@FalconEntity@@UAEHXZ ENDP			; FalconEntity::IsUnit
_TEXT	ENDS
; Function compile flags: /Odtp
; File c:\users\zhitao li\documents\visual studio 2012\projects\freefalcon\falclib\include\falcent.h
;	COMDAT ?IsEmitting@FalconEntity@@UAEHXZ
_TEXT	SEGMENT
_this$ = -4						; size = 4
?IsEmitting@FalconEntity@@UAEHXZ PROC			; FalconEntity::IsEmitting, COMDAT
; _this$ = ecx

; 145  : 	virtual int IsEmitting (void)				{ return FALSE; }

	push	ebp
	mov	ebp, esp
	push	ecx
	mov	DWORD PTR _this$[ebp], ecx
	xor	eax, eax
	mov	esp, ebp
	pop	ebp
	ret	0
?IsEmitting@FalconEntity@@UAEHXZ ENDP			; FalconEntity::IsEmitting
_TEXT	ENDS
; Function compile flags: /Odtp
; File c:\users\zhitao li\documents\visual studio 2012\projects\freefalcon\falclib\include\falcent.h
;	COMDAT ?IsDead@FalconEntity@@UAEHXZ
_TEXT	SEGMENT
_this$ = -4						; size = 4
?IsDead@FalconEntity@@UAEHXZ PROC			; FalconEntity::IsDead, COMDAT
; _this$ = ecx

; 144  : 	virtual int IsDead (void)					{ return FALSE; }

	push	ebp
	mov	ebp, esp
	push	ecx
	mov	DWORD PTR _this$[ebp], ecx
	xor	eax, eax
	mov	esp, ebp
	pop	ebp
	ret	0
?IsDead@FalconEntity@@UAEHXZ ENDP			; FalconEntity::IsDead
_TEXT	ENDS
; Function compile flags: /Odtp
; File c:\users\zhitao li\documents\visual studio 2012\projects\freefalcon\falclib\include\falcent.h
;	COMDAT ?IsWeapon@FalconEntity@@UAEHXZ
_TEXT	SEGMENT
_this$ = -4						; size = 4
?IsWeapon@FalconEntity@@UAEHXZ PROC			; FalconEntity::IsWeapon, COMDAT
; _this$ = ecx

; 142  : 	virtual int IsWeapon (void)   				{ return FALSE; }

	push	ebp
	mov	ebp, esp
	push	ecx
	mov	DWORD PTR _this$[ebp], ecx
	xor	eax, eax
	mov	esp, ebp
	pop	ebp
	ret	0
?IsWeapon@FalconEntity@@UAEHXZ ENDP			; FalconEntity::IsWeapon
_TEXT	ENDS
; Function compile flags: /Odtp
; File c:\users\zhitao li\documents\visual studio 2012\projects\freefalcon\falclib\include\falcent.h
;	COMDAT ?IsShip@FalconEntity@@UAEHXZ
_TEXT	SEGMENT
_this$ = -4						; size = 4
?IsShip@FalconEntity@@UAEHXZ PROC			; FalconEntity::IsShip, COMDAT
; _this$ = ecx

; 141  : 	virtual int IsShip (void) 			        { return FALSE; }

	push	ebp
	mov	ebp, esp
	push	ecx
	mov	DWORD PTR _this$[ebp], ecx
	xor	eax, eax
	mov	esp, ebp
	pop	ebp
	ret	0
?IsShip@FalconEntity@@UAEHXZ ENDP			; FalconEntity::IsShip
_TEXT	ENDS
; Function compile flags: /Odtp
; File c:\users\zhitao li\documents\visual studio 2012\projects\freefalcon\falclib\include\falcent.h
;	COMDAT ?IsGroundVehicle@FalconEntity@@UAEHXZ
_TEXT	SEGMENT
_this$ = -4						; size = 4
?IsGroundVehicle@FalconEntity@@UAEHXZ PROC		; FalconEntity::IsGroundVehicle, COMDAT
; _this$ = ecx

; 140  : 	virtual int IsGroundVehicle (void) 			{ return FALSE; }

	push	ebp
	mov	ebp, esp
	push	ecx
	mov	DWORD PTR _this$[ebp], ecx
	xor	eax, eax
	mov	esp, ebp
	pop	ebp
	ret	0
?IsGroundVehicle@FalconEntity@@UAEHXZ ENDP		; FalconEntity::IsGroundVehicle
_TEXT	ENDS
; Function compile flags: /Odtp
; File c:\users\zhitao li\documents\visual studio 2012\projects\freefalcon\falclib\include\falcent.h
;	COMDAT ?IsAirplane@FalconEntity@@UAEHXZ
_TEXT	SEGMENT
_this$ = -4						; size = 4
?IsAirplane@FalconEntity@@UAEHXZ PROC			; FalconEntity::IsAirplane, COMDAT
; _this$ = ecx

; 139  : 	virtual int IsAirplane (void)	   			{ return FALSE; }

	push	ebp
	mov	ebp, esp
	push	ecx
	mov	DWORD PTR _this$[ebp], ecx
	xor	eax, eax
	mov	esp, ebp
	pop	ebp
	ret	0
?IsAirplane@FalconEntity@@UAEHXZ ENDP			; FalconEntity::IsAirplane
_TEXT	ENDS
; Function compile flags: /Odtp
; File c:\users\zhitao li\documents\visual studio 2012\projects\freefalcon\falclib\include\falcent.h
;	COMDAT ?IsEject@FalconEntity@@UAEHXZ
_TEXT	SEGMENT
_this$ = -4						; size = 4
?IsEject@FalconEntity@@UAEHXZ PROC			; FalconEntity::IsEject, COMDAT
; _this$ = ecx

; 138  : 	virtual int IsEject (void)					{ return FALSE; }

	push	ebp
	mov	ebp, esp
	push	ecx
	mov	DWORD PTR _this$[ebp], ecx
	xor	eax, eax
	mov	esp, ebp
	pop	ebp
	ret	0
?IsEject@FalconEntity@@UAEHXZ ENDP			; FalconEntity::IsEject
_TEXT	ENDS
; Function compile flags: /Odtp
; File c:\users\zhitao li\documents\visual studio 2012\projects\freefalcon\falclib\include\falcent.h
;	COMDAT ?IsHelicopter@FalconEntity@@UAEHXZ
_TEXT	SEGMENT
_this$ = -4						; size = 4
?IsHelicopter@FalconEntity@@UAEHXZ PROC			; FalconEntity::IsHelicopter, COMDAT
; _this$ = ecx

; 137  : 	virtual int IsHelicopter (void)				{ return FALSE; }

	push	ebp
	mov	ebp, esp
	push	ecx
	mov	DWORD PTR _this$[ebp], ecx
	xor	eax, eax
	mov	esp, ebp
	pop	ebp
	ret	0
?IsHelicopter@FalconEntity@@UAEHXZ ENDP			; FalconEntity::IsHelicopter
_TEXT	ENDS
; Function compile flags: /Odtp
; File c:\users\zhitao li\documents\visual studio 2012\projects\freefalcon\falclib\include\falcent.h
;	COMDAT ?IsVehicle@FalconEntity@@UAEHXZ
_TEXT	SEGMENT
_this$ = -4						; size = 4
?IsVehicle@FalconEntity@@UAEHXZ PROC			; FalconEntity::IsVehicle, COMDAT
; _this$ = ecx

; 135  : 	virtual int IsVehicle (void)				{ return FALSE; }

	push	ebp
	mov	ebp, esp
	push	ecx
	mov	DWORD PTR _this$[ebp], ecx
	xor	eax, eax
	mov	esp, ebp
	pop	ebp
	ret	0
?IsVehicle@FalconEntity@@UAEHXZ ENDP			; FalconEntity::IsVehicle
_TEXT	ENDS
; Function compile flags: /Odtp
; File c:\users\zhitao li\documents\visual studio 2012\projects\freefalcon\falclib\include\falcent.h
;	COMDAT ?IsMover@FalconEntity@@UAEHXZ
_TEXT	SEGMENT
_this$ = -4						; size = 4
?IsMover@FalconEntity@@UAEHXZ PROC			; FalconEntity::IsMover, COMDAT
; _this$ = ecx

; 134  : 	virtual int IsMover (void)					{ return FALSE; }

	push	ebp
	mov	ebp, esp
	push	ecx
	mov	DWORD PTR _this$[ebp], ecx
	xor	eax, eax
	mov	esp, ebp
	pop	ebp
	ret	0
?IsMover@FalconEntity@@UAEHXZ ENDP			; FalconEntity::IsMover
_TEXT	ENDS
; Function compile flags: /Odtp
; File c:\users\zhitao li\documents\visual studio 2012\projects\freefalcon\falclib\include\falcent.h
;	COMDAT ?IsGun@FalconEntity@@UAEHXZ
_TEXT	SEGMENT
_this$ = -4						; size = 4
?IsGun@FalconEntity@@UAEHXZ PROC			; FalconEntity::IsGun, COMDAT
; _this$ = ecx

; 133  : 	virtual int IsGun (void)					{ return FALSE; }

	push	ebp
	mov	ebp, esp
	push	ecx
	mov	DWORD PTR _this$[ebp], ecx
	xor	eax, eax
	mov	esp, ebp
	pop	ebp
	ret	0
?IsGun@FalconEntity@@UAEHXZ ENDP			; FalconEntity::IsGun
_TEXT	ENDS
; Function compile flags: /Odtp
; File c:\users\zhitao li\documents\visual studio 2012\projects\freefalcon\falclib\include\falcent.h
;	COMDAT ?IsBomb@FalconEntity@@UAEHXZ
_TEXT	SEGMENT
_this$ = -4						; size = 4
?IsBomb@FalconEntity@@UAEHXZ PROC			; FalconEntity::IsBomb, COMDAT
; _this$ = ecx

; 132  : 	virtual int IsBomb (void)					{ return FALSE; }

	push	ebp
	mov	ebp, esp
	push	ecx
	mov	DWORD PTR _this$[ebp], ecx
	xor	eax, eax
	mov	esp, ebp
	pop	ebp
	ret	0
?IsBomb@FalconEntity@@UAEHXZ ENDP			; FalconEntity::IsBomb
_TEXT	ENDS
; Function compile flags: /Odtp
; File c:\users\zhitao li\documents\visual studio 2012\projects\freefalcon\falclib\include\falcent.h
;	COMDAT ?IsLauncher@FalconEntity@@UAEHXZ
_TEXT	SEGMENT
_this$ = -4						; size = 4
?IsLauncher@FalconEntity@@UAEHXZ PROC			; FalconEntity::IsLauncher, COMDAT
; _this$ = ecx

; 131  : 	virtual int IsLauncher (void)               { return FALSE; } // MLR 3/4/2004 - rocket pods

	push	ebp
	mov	ebp, esp
	push	ecx
	mov	DWORD PTR _this$[ebp], ecx
	xor	eax, eax
	mov	esp, ebp
	pop	ebp
	ret	0
?IsLauncher@FalconEntity@@UAEHXZ ENDP			; FalconEntity::IsLauncher
_TEXT	ENDS
; Function compile flags: /Odtp
; File c:\users\zhitao li\documents\visual studio 2012\projects\freefalcon\falclib\include\falcent.h
;	COMDAT ?IsMissile@FalconEntity@@UAEHXZ
_TEXT	SEGMENT
_this$ = -4						; size = 4
?IsMissile@FalconEntity@@UAEHXZ PROC			; FalconEntity::IsMissile, COMDAT
; _this$ = ecx

; 130  : 	virtual int IsMissile (void)				{ return FALSE; }

	push	ebp
	mov	ebp, esp
	push	ecx
	mov	DWORD PTR _this$[ebp], ecx
	xor	eax, eax
	mov	esp, ebp
	pop	ebp
	ret	0
?IsMissile@FalconEntity@@UAEHXZ ENDP			; FalconEntity::IsMissile
_TEXT	ENDS
; Function compile flags: /Odtp
; File c:\users\zhitao li\documents\visual studio 2012\projects\freefalcon\falclib\include\falcent.h
;	COMDAT ?HasEntity@FalconEntity@@UBEHPAVVuEntity@@@Z
_TEXT	SEGMENT
_this$ = -8						; size = 4
tv69 = -4						; size = 4
_e$ = 8							; size = 4
?HasEntity@FalconEntity@@UBEHPAVVuEntity@@@Z PROC	; FalconEntity::HasEntity, COMDAT
; _this$ = ecx

; 129  : 	virtual int HasEntity(VuEntity *e) const    { return this == e; } // sfr: added for new driver

	push	ebp
	mov	ebp, esp
	sub	esp, 8
	mov	DWORD PTR _this$[ebp], ecx
	mov	eax, DWORD PTR _this$[ebp]
	cmp	eax, DWORD PTR _e$[ebp]
	jne	SHORT $LN3@HasEntity
	mov	DWORD PTR tv69[ebp], 1
	jmp	SHORT $LN4@HasEntity
$LN3@HasEntity:
	mov	DWORD PTR tv69[ebp], 0
$LN4@HasEntity:
	mov	eax, DWORD PTR tv69[ebp]
	mov	esp, ebp
	pop	ebp
	ret	4
?HasEntity@FalconEntity@@UBEHPAVVuEntity@@@Z ENDP	; FalconEntity::HasEntity
_TEXT	ENDS
; Function compile flags: /Odtp
; File c:\users\zhitao li\documents\visual studio 2012\projects\freefalcon\falclib\include\falcent.h
;	COMDAT ?CombatClass@FalconEntity@@UAEHXZ
_TEXT	SEGMENT
_this$ = -4						; size = 4
?CombatClass@FalconEntity@@UAEHXZ PROC			; FalconEntity::CombatClass, COMDAT
; _this$ = ecx

; 127  : 	virtual int CombatClass (void)				{ return 999; } // 2002-02-25 ADDED BY S.G. No combat class for non flight or non aircraft class

	push	ebp
	mov	ebp, esp
	push	ecx
	mov	DWORD PTR _this$[ebp], ecx
	mov	eax, 999				; 000003e7H
	mov	esp, ebp
	pop	ebp
	ret	0
?CombatClass@FalconEntity@@UAEHXZ ENDP			; FalconEntity::CombatClass
_TEXT	ENDS
; Function compile flags: /Odtp
; File c:\users\zhitao li\documents\visual studio 2012\projects\freefalcon\falclib\include\falcent.h
;	COMDAT ?SetSearchMode@FalconEntity@@UAEXE@Z
_TEXT	SEGMENT
_this$ = -4						; size = 4
___formal$ = 8						; size = 1
?SetSearchMode@FalconEntity@@UAEXE@Z PROC		; FalconEntity::SetSearchMode, COMDAT
; _this$ = ecx

; 126  : 	virtual void SetSearchMode (uchar)		{};

	push	ebp
	mov	ebp, esp
	push	ecx
	mov	DWORD PTR _this$[ebp], ecx
	mov	esp, ebp
	pop	ebp
	ret	4
?SetSearchMode@FalconEntity@@UAEXE@Z ENDP		; FalconEntity::SetSearchMode
_TEXT	ENDS
; Function compile flags: /Odtp
; File c:\users\zhitao li\documents\visual studio 2012\projects\freefalcon\falclib\include\falcent.h
;	COMDAT ?ReturnToSearch@FalconEntity@@UAEXXZ
_TEXT	SEGMENT
_this$ = -4						; size = 4
?ReturnToSearch@FalconEntity@@UAEXXZ PROC		; FalconEntity::ReturnToSearch, COMDAT
; _this$ = ecx

; 124  : 	virtual void ReturnToSearch (void)			{};

	push	ebp
	mov	ebp, esp
	push	ecx
	mov	DWORD PTR _this$[ebp], ecx
	mov	esp, ebp
	pop	ebp
	ret	0
?ReturnToSearch@FalconEntity@@UAEXXZ ENDP		; FalconEntity::ReturnToSearch
_TEXT	ENDS
; Function compile flags: /Odtp
; File c:\users\zhitao li\documents\visual studio 2012\projects\freefalcon\falclib\include\falcent.h
;	COMDAT ?SetRadarMode@FalconEntity@@UAEXE@Z
_TEXT	SEGMENT
_this$ = -4						; size = 4
___formal$ = 8						; size = 1
?SetRadarMode@FalconEntity@@UAEXE@Z PROC		; FalconEntity::SetRadarMode, COMDAT
; _this$ = ecx

; 123  : 	virtual void SetRadarMode (uchar)		{};

	push	ebp
	mov	ebp, esp
	push	ecx
	mov	DWORD PTR _this$[ebp], ecx
	mov	esp, ebp
	pop	ebp
	ret	4
?SetRadarMode@FalconEntity@@UAEXE@Z ENDP		; FalconEntity::SetRadarMode
_TEXT	ENDS
; Function compile flags: /Odtp
; File c:\users\zhitao li\documents\visual studio 2012\projects\freefalcon\falclib\include\falcent.h
;	COMDAT ?GetRadarMode@FalconEntity@@UAEHXZ
_TEXT	SEGMENT
_this$ = -4						; size = 4
?GetRadarMode@FalconEntity@@UAEHXZ PROC			; FalconEntity::GetRadarMode, COMDAT
; _this$ = ecx

; 121  : 	virtual int GetRadarMode (void)				{ return FEC_RADAR_OFF; }

	push	ebp
	mov	ebp, esp
	push	ecx
	mov	DWORD PTR _this$[ebp], ecx
	xor	eax, eax
	mov	esp, ebp
	pop	ebp
	ret	0
?GetRadarMode@FalconEntity@@UAEHXZ ENDP			; FalconEntity::GetRadarMode
_TEXT	ENDS
; Function compile flags: /Odtp
; File c:\users\zhitao li\documents\visual studio 2012\projects\freefalcon\falclib\include\falcent.h
;	COMDAT ?SetTypeFlag@FalconEntity@@QAEXH@Z
_TEXT	SEGMENT
_this$ = -4						; size = 4
_flag$ = 8						; size = 4
?SetTypeFlag@FalconEntity@@QAEXH@Z PROC			; FalconEntity::SetTypeFlag, COMDAT
; _this$ = ecx

; 108  : 	void SetTypeFlag (int flag)					{ falconType |= flag; };

	push	ebp
	mov	ebp, esp
	push	ecx
	mov	DWORD PTR _this$[ebp], ecx
	mov	eax, DWORD PTR _this$[ebp]
	movsx	ecx, BYTE PTR [eax+137]
	or	ecx, DWORD PTR _flag$[ebp]
	mov	edx, DWORD PTR _this$[ebp]
	mov	BYTE PTR [edx+137], cl
	mov	esp, ebp
	pop	ebp
	ret	4
?SetTypeFlag@FalconEntity@@QAEXH@Z ENDP			; FalconEntity::SetTypeFlag
_TEXT	ENDS
; Function compile flags: /Odtp
; File c:\users\zhitao li\documents\visual studio 2012\projects\freefalcon\falclib\include\falcent.h
;	COMDAT ?IsCampBase@FalconEntity@@UAE_NXZ
_TEXT	SEGMENT
_this$ = -4						; size = 4
?IsCampBase@FalconEntity@@UAE_NXZ PROC			; FalconEntity::IsCampBase, COMDAT
; _this$ = ecx

; 99   : 	virtual bool IsCampBase() { return false; }

	push	ebp
	mov	ebp, esp
	push	ecx
	mov	DWORD PTR _this$[ebp], ecx
	xor	al, al
	mov	esp, ebp
	pop	ebp
	ret	0
?IsCampBase@FalconEntity@@UAE_NXZ ENDP			; FalconEntity::IsCampBase
_TEXT	ENDS
; Function compile flags: /Odtp
; File c:\program files (x86)\microsoft visual studio 11.0\vc\include\xutility
;	COMDAT ??__Eallocator_arg@std@@YAXXZ
text$yc	SEGMENT
$T1 = -1						; size = 1
??__Eallocator_arg@std@@YAXXZ PROC			; std::`dynamic initializer for 'allocator_arg'', COMDAT

; 3644 : const allocator_arg_t allocator_arg = allocator_arg_t();

	push	ebp
	mov	ebp, esp
	push	ecx
	xor	eax, eax
	mov	BYTE PTR $T1[ebp], al
	mov	esp, ebp
	pop	ebp
	ret	0
??__Eallocator_arg@std@@YAXXZ ENDP			; std::`dynamic initializer for 'allocator_arg''
text$yc	ENDS
; Function compile flags: /Odtp
; File c:\program files (x86)\microsoft visual studio 11.0\vc\include\utility
;	COMDAT ??__Epiecewise_construct@std@@YAXXZ
text$yc	SEGMENT
$T1 = -1						; size = 1
??__Epiecewise_construct@std@@YAXXZ PROC		; std::`dynamic initializer for 'piecewise_construct'', COMDAT

; 65   : 	piecewise_construct_t();

	push	ebp
	mov	ebp, esp
	push	ecx
	xor	eax, eax
	mov	BYTE PTR $T1[ebp], al
	mov	esp, ebp
	pop	ebp
	ret	0
??__Epiecewise_construct@std@@YAXXZ ENDP		; std::`dynamic initializer for 'piecewise_construct''
text$yc	ENDS
END
