; Listing generated by Microsoft (R) Optimizing Compiler Version 17.00.51106.1 

	TITLE	C:\Users\Zhitao Li\Documents\Visual Studio 2012\Projects\Freefalcon\SIM\BOMB\Bombmain.cpp
	.686P
	.XMM
	include listing.inc
	.model	flat

INCLUDELIB LIBCMT
INCLUDELIB OLDNAMES

PUBLIC	?is_signed@?$numeric_limits@C@std@@2_NB		; std::numeric_limits<signed char>::is_signed
PUBLIC	?digits@?$numeric_limits@C@std@@2HB		; std::numeric_limits<signed char>::digits
PUBLIC	?digits10@?$numeric_limits@C@std@@2HB		; std::numeric_limits<signed char>::digits10
PUBLIC	?is_signed@?$numeric_limits@E@std@@2_NB		; std::numeric_limits<unsigned char>::is_signed
PUBLIC	?digits@?$numeric_limits@E@std@@2HB		; std::numeric_limits<unsigned char>::digits
PUBLIC	?digits10@?$numeric_limits@E@std@@2HB		; std::numeric_limits<unsigned char>::digits10
PUBLIC	?collate@?$_Locbase@H@std@@2HB			; std::_Locbase<int>::collate
PUBLIC	?ctype@?$_Locbase@H@std@@2HB			; std::_Locbase<int>::ctype
PUBLIC	?monetary@?$_Locbase@H@std@@2HB			; std::_Locbase<int>::monetary
PUBLIC	?numeric@?$_Locbase@H@std@@2HB			; std::_Locbase<int>::numeric
PUBLIC	?time@?$_Locbase@H@std@@2HB			; std::_Locbase<int>::time
PUBLIC	?messages@?$_Locbase@H@std@@2HB			; std::_Locbase<int>::messages
PUBLIC	?all@?$_Locbase@H@std@@2HB			; std::_Locbase<int>::all
PUBLIC	?is_signed@?$numeric_limits@F@std@@2_NB		; std::numeric_limits<short>::is_signed
PUBLIC	?none@?$_Locbase@H@std@@2HB			; std::_Locbase<int>::none
PUBLIC	?digits@?$numeric_limits@F@std@@2HB		; std::numeric_limits<short>::digits
PUBLIC	?digits10@?$numeric_limits@F@std@@2HB		; std::numeric_limits<short>::digits10
PUBLIC	?is_signed@?$numeric_limits@G@std@@2_NB		; std::numeric_limits<unsigned short>::is_signed
PUBLIC	?digits@?$numeric_limits@G@std@@2HB		; std::numeric_limits<unsigned short>::digits
PUBLIC	?digits10@?$numeric_limits@G@std@@2HB		; std::numeric_limits<unsigned short>::digits10
PUBLIC	?is_signed@?$numeric_limits@H@std@@2_NB		; std::numeric_limits<int>::is_signed
PUBLIC	?value@?$_Sizeof@HU_Nil@std@@U12@U12@U12@U12@U12@U12@@std@@2IB ; std::_Sizeof<int,std::_Nil,std::_Nil,std::_Nil,std::_Nil,std::_Nil,std::_Nil,std::_Nil>::value
PUBLIC	?digits@?$numeric_limits@H@std@@2HB		; std::numeric_limits<int>::digits
PUBLIC	?digits10@?$numeric_limits@H@std@@2HB		; std::numeric_limits<int>::digits10
PUBLIC	?table_size@?$ctype@D@std@@2IB			; std::ctype<char>::table_size
PUBLIC	?is_signed@?$numeric_limits@I@std@@2_NB		; std::numeric_limits<unsigned int>::is_signed
PUBLIC	?digits@?$numeric_limits@I@std@@2HB		; std::numeric_limits<unsigned int>::digits
PUBLIC	?digits10@?$numeric_limits@I@std@@2HB		; std::numeric_limits<unsigned int>::digits10
PUBLIC	?is_signed@?$numeric_limits@J@std@@2_NB		; std::numeric_limits<long>::is_signed
PUBLIC	?digits@?$numeric_limits@J@std@@2HB		; std::numeric_limits<long>::digits
PUBLIC	?digits10@?$numeric_limits@J@std@@2HB		; std::numeric_limits<long>::digits10
PUBLIC	?is_signed@?$numeric_limits@K@std@@2_NB		; std::numeric_limits<unsigned long>::is_signed
PUBLIC	?digits@?$numeric_limits@K@std@@2HB		; std::numeric_limits<unsigned long>::digits
PUBLIC	?digits10@?$numeric_limits@K@std@@2HB		; std::numeric_limits<unsigned long>::digits10
PUBLIC	?is_signed@?$numeric_limits@_J@std@@2_NB	; std::numeric_limits<__int64>::is_signed
PUBLIC	?digits@?$numeric_limits@_J@std@@2HB		; std::numeric_limits<__int64>::digits
PUBLIC	?digits10@?$numeric_limits@_J@std@@2HB		; std::numeric_limits<__int64>::digits10
PUBLIC	?is_signed@?$numeric_limits@_K@std@@2_NB	; std::numeric_limits<unsigned __int64>::is_signed
PUBLIC	?digits@?$numeric_limits@_K@std@@2HB		; std::numeric_limits<unsigned __int64>::digits
PUBLIC	?digits10@?$numeric_limits@_K@std@@2HB		; std::numeric_limits<unsigned __int64>::digits10
PUBLIC	?digits@?$numeric_limits@M@std@@2HB		; std::numeric_limits<float>::digits
PUBLIC	?digits10@?$numeric_limits@M@std@@2HB		; std::numeric_limits<float>::digits10
PUBLIC	?max_digits10@?$numeric_limits@M@std@@2HB	; std::numeric_limits<float>::max_digits10
PUBLIC	?max_exponent@?$numeric_limits@M@std@@2HB	; std::numeric_limits<float>::max_exponent
PUBLIC	?max_exponent10@?$numeric_limits@M@std@@2HB	; std::numeric_limits<float>::max_exponent10
PUBLIC	?min_exponent@?$numeric_limits@M@std@@2HB	; std::numeric_limits<float>::min_exponent
PUBLIC	?min_exponent10@?$numeric_limits@M@std@@2HB	; std::numeric_limits<float>::min_exponent10
PUBLIC	?SIMDIRTYDATA_INTERVAL@FalconEntity@@2KB	; FalconEntity::SIMDIRTYDATA_INTERVAL
PUBLIC	?CMPDIRTYDATA_INTERVAL@FalconEntity@@2KB	; FalconEntity::CMPDIRTYDATA_INTERVAL
PUBLIC	?value@?$integral_constant@I$0A@@std@@2IB	; std::integral_constant<unsigned int,0>::value
PUBLIC	?digits@?$numeric_limits@N@std@@2HB		; std::numeric_limits<double>::digits
PUBLIC	?digits10@?$numeric_limits@N@std@@2HB		; std::numeric_limits<double>::digits10
PUBLIC	?max_digits10@?$numeric_limits@N@std@@2HB	; std::numeric_limits<double>::max_digits10
PUBLIC	?max_exponent@?$numeric_limits@N@std@@2HB	; std::numeric_limits<double>::max_exponent
PUBLIC	?max_exponent10@?$numeric_limits@N@std@@2HB	; std::numeric_limits<double>::max_exponent10
PUBLIC	?min_exponent@?$numeric_limits@N@std@@2HB	; std::numeric_limits<double>::min_exponent
PUBLIC	?min_exponent10@?$numeric_limits@N@std@@2HB	; std::numeric_limits<double>::min_exponent10
PUBLIC	?digits@?$numeric_limits@O@std@@2HB		; std::numeric_limits<long double>::digits
PUBLIC	?digits10@?$numeric_limits@O@std@@2HB		; std::numeric_limits<long double>::digits10
PUBLIC	?max_digits10@?$numeric_limits@O@std@@2HB	; std::numeric_limits<long double>::max_digits10
PUBLIC	?max_exponent@?$numeric_limits@O@std@@2HB	; std::numeric_limits<long double>::max_exponent
PUBLIC	?max_exponent10@?$numeric_limits@O@std@@2HB	; std::numeric_limits<long double>::max_exponent10
PUBLIC	?min_exponent@?$numeric_limits@O@std@@2HB	; std::numeric_limits<long double>::min_exponent
PUBLIC	?min_exponent10@?$numeric_limits@O@std@@2HB	; std::numeric_limits<long double>::min_exponent10
PUBLIC	?value@?$_Sizeof@U_Nil@std@@U12@U12@U12@U12@U12@U12@U12@@std@@2IB ; std::_Sizeof<std::_Nil,std::_Nil,std::_Nil,std::_Nil,std::_Nil,std::_Nil,std::_Nil,std::_Nil>::value
PUBLIC	?skipws@?$_Iosb@H@std@@2W4_Fmtflags@12@B	; std::_Iosb<int>::skipws
PUBLIC	?unitbuf@?$_Iosb@H@std@@2W4_Fmtflags@12@B	; std::_Iosb<int>::unitbuf
PUBLIC	?uppercase@?$_Iosb@H@std@@2W4_Fmtflags@12@B	; std::_Iosb<int>::uppercase
PUBLIC	?showbase@?$_Iosb@H@std@@2W4_Fmtflags@12@B	; std::_Iosb<int>::showbase
PUBLIC	?showpoint@?$_Iosb@H@std@@2W4_Fmtflags@12@B	; std::_Iosb<int>::showpoint
PUBLIC	?showpos@?$_Iosb@H@std@@2W4_Fmtflags@12@B	; std::_Iosb<int>::showpos
PUBLIC	?left@?$_Iosb@H@std@@2W4_Fmtflags@12@B		; std::_Iosb<int>::left
PUBLIC	?right@?$_Iosb@H@std@@2W4_Fmtflags@12@B		; std::_Iosb<int>::right
PUBLIC	?internal@?$_Iosb@H@std@@2W4_Fmtflags@12@B	; std::_Iosb<int>::internal
PUBLIC	?dec@?$_Iosb@H@std@@2W4_Fmtflags@12@B		; std::_Iosb<int>::dec
PUBLIC	?oct@?$_Iosb@H@std@@2W4_Fmtflags@12@B		; std::_Iosb<int>::oct
PUBLIC	?hex@?$_Iosb@H@std@@2W4_Fmtflags@12@B		; std::_Iosb<int>::hex
PUBLIC	?scientific@?$_Iosb@H@std@@2W4_Fmtflags@12@B	; std::_Iosb<int>::scientific
PUBLIC	?fixed@?$_Iosb@H@std@@2W4_Fmtflags@12@B		; std::_Iosb<int>::fixed
PUBLIC	?hexfloat@?$_Iosb@H@std@@2W4_Fmtflags@12@B	; std::_Iosb<int>::hexfloat
PUBLIC	?boolalpha@?$_Iosb@H@std@@2W4_Fmtflags@12@B	; std::_Iosb<int>::boolalpha
PUBLIC	?_Stdio@?$_Iosb@H@std@@2W4_Fmtflags@12@B	; std::_Iosb<int>::_Stdio
PUBLIC	?adjustfield@?$_Iosb@H@std@@2W4_Fmtflags@12@B	; std::_Iosb<int>::adjustfield
PUBLIC	?basefield@?$_Iosb@H@std@@2W4_Fmtflags@12@B	; std::_Iosb<int>::basefield
PUBLIC	?floatfield@?$_Iosb@H@std@@2W4_Fmtflags@12@B	; std::_Iosb<int>::floatfield
PUBLIC	?goodbit@?$_Iosb@H@std@@2W4_Iostate@12@B	; std::_Iosb<int>::goodbit
PUBLIC	?eofbit@?$_Iosb@H@std@@2W4_Iostate@12@B		; std::_Iosb<int>::eofbit
PUBLIC	?dragConstant@BombClass@@2MA			; BombClass::dragConstant
PUBLIC	?failbit@?$_Iosb@H@std@@2W4_Iostate@12@B	; std::_Iosb<int>::failbit
PUBLIC	?has_denorm@_Num_base@std@@2W4float_denorm_style@2@B ; std::_Num_base::has_denorm
PUBLIC	?badbit@?$_Iosb@H@std@@2W4_Iostate@12@B		; std::_Iosb<int>::badbit
PUBLIC	?has_denorm_loss@_Num_base@std@@2_NB		; std::_Num_base::has_denorm_loss
PUBLIC	?_Hardfail@?$_Iosb@H@std@@2W4_Iostate@12@B	; std::_Iosb<int>::_Hardfail
PUBLIC	?has_infinity@_Num_base@std@@2_NB		; std::_Num_base::has_infinity
PUBLIC	?has_quiet_NaN@_Num_base@std@@2_NB		; std::_Num_base::has_quiet_NaN
PUBLIC	?in@?$_Iosb@H@std@@2W4_Openmode@12@B		; std::_Iosb<int>::in
PUBLIC	?out@?$_Iosb@H@std@@2W4_Openmode@12@B		; std::_Iosb<int>::out
PUBLIC	?has_signaling_NaN@_Num_base@std@@2_NB		; std::_Num_base::has_signaling_NaN
PUBLIC	?ate@?$_Iosb@H@std@@2W4_Openmode@12@B		; std::_Iosb<int>::ate
PUBLIC	?is_bounded@_Num_base@std@@2_NB			; std::_Num_base::is_bounded
PUBLIC	?is_exact@_Num_base@std@@2_NB			; std::_Num_base::is_exact
PUBLIC	?app@?$_Iosb@H@std@@2W4_Openmode@12@B		; std::_Iosb<int>::app
PUBLIC	?is_iec559@_Num_base@std@@2_NB			; std::_Num_base::is_iec559
PUBLIC	?trunc@?$_Iosb@H@std@@2W4_Openmode@12@B		; std::_Iosb<int>::trunc
PUBLIC	?_Nocreate@?$_Iosb@H@std@@2W4_Openmode@12@B	; std::_Iosb<int>::_Nocreate
PUBLIC	?is_integer@_Num_base@std@@2_NB			; std::_Num_base::is_integer
PUBLIC	?_Noreplace@?$_Iosb@H@std@@2W4_Openmode@12@B	; std::_Iosb<int>::_Noreplace
PUBLIC	?is_modulo@_Num_base@std@@2_NB			; std::_Num_base::is_modulo
PUBLIC	?is_signed@_Num_base@std@@2_NB			; std::_Num_base::is_signed
PUBLIC	?binary@?$_Iosb@H@std@@2W4_Openmode@12@B	; std::_Iosb<int>::binary
PUBLIC	?is_specialized@_Num_base@std@@2_NB		; std::_Num_base::is_specialized
PUBLIC	?beg@?$_Iosb@H@std@@2W4_Seekdir@12@B		; std::_Iosb<int>::beg
PUBLIC	?tinyness_before@_Num_base@std@@2_NB		; std::_Num_base::tinyness_before
PUBLIC	?cur@?$_Iosb@H@std@@2W4_Seekdir@12@B		; std::_Iosb<int>::cur
PUBLIC	?traps@_Num_base@std@@2_NB			; std::_Num_base::traps
PUBLIC	?end@?$_Iosb@H@std@@2W4_Seekdir@12@B		; std::_Iosb<int>::end
PUBLIC	?round_style@_Num_base@std@@2W4float_round_style@2@B ; std::_Num_base::round_style
PUBLIC	?digits@_Num_base@std@@2HB			; std::_Num_base::digits
PUBLIC	?digits10@_Num_base@std@@2HB			; std::_Num_base::digits10
PUBLIC	?max_digits10@_Num_base@std@@2HB		; std::_Num_base::max_digits10
PUBLIC	?max_exponent@_Num_base@std@@2HB		; std::_Num_base::max_exponent
PUBLIC	?max_exponent10@_Num_base@std@@2HB		; std::_Num_base::max_exponent10
PUBLIC	?min_exponent@_Num_base@std@@2HB		; std::_Num_base::min_exponent
PUBLIC	?min_exponent10@_Num_base@std@@2HB		; std::_Num_base::min_exponent10
PUBLIC	?radix@_Num_base@std@@2HB			; std::_Num_base::radix
PUBLIC	?_Stream_err@failure@ios_base@std@@0W4io_errc@43@B ; std::ios_base::failure::_Stream_err
PUBLIC	?is_bounded@_Num_int_base@std@@2_NB		; std::_Num_int_base::is_bounded
PUBLIC	?is_exact@_Num_int_base@std@@2_NB		; std::_Num_int_base::is_exact
PUBLIC	?is_integer@_Num_int_base@std@@2_NB		; std::_Num_int_base::is_integer
PUBLIC	?is_modulo@_Num_int_base@std@@2_NB		; std::_Num_int_base::is_modulo
PUBLIC	?is_specialized@_Num_int_base@std@@2_NB		; std::_Num_int_base::is_specialized
PUBLIC	?radix@_Num_int_base@std@@2HB			; std::_Num_int_base::radix
PUBLIC	?has_denorm@_Num_float_base@std@@2W4float_denorm_style@2@B ; std::_Num_float_base::has_denorm
PUBLIC	?has_denorm_loss@_Num_float_base@std@@2_NB	; std::_Num_float_base::has_denorm_loss
PUBLIC	?has_infinity@_Num_float_base@std@@2_NB		; std::_Num_float_base::has_infinity
PUBLIC	?has_quiet_NaN@_Num_float_base@std@@2_NB	; std::_Num_float_base::has_quiet_NaN
PUBLIC	?has_signaling_NaN@_Num_float_base@std@@2_NB	; std::_Num_float_base::has_signaling_NaN
PUBLIC	?is_bounded@_Num_float_base@std@@2_NB		; std::_Num_float_base::is_bounded
PUBLIC	?is_exact@_Num_float_base@std@@2_NB		; std::_Num_float_base::is_exact
PUBLIC	?is_iec559@_Num_float_base@std@@2_NB		; std::_Num_float_base::is_iec559
PUBLIC	?is_integer@_Num_float_base@std@@2_NB		; std::_Num_float_base::is_integer
PUBLIC	?is_modulo@_Num_float_base@std@@2_NB		; std::_Num_float_base::is_modulo
PUBLIC	?is_signed@_Num_float_base@std@@2_NB		; std::_Num_float_base::is_signed
PUBLIC	?is_specialized@_Num_float_base@std@@2_NB	; std::_Num_float_base::is_specialized
PUBLIC	?tinyness_before@_Num_float_base@std@@2_NB	; std::_Num_float_base::tinyness_before
PUBLIC	?traps@_Num_float_base@std@@2_NB		; std::_Num_float_base::traps
PUBLIC	?round_style@_Num_float_base@std@@2W4float_round_style@2@B ; std::_Num_float_base::round_style
PUBLIC	?radix@_Num_float_base@std@@2HB			; std::_Num_float_base::radix
PUBLIC	?is_signed@?$numeric_limits@D@std@@2_NB		; std::numeric_limits<char>::is_signed
PUBLIC	?digits@?$numeric_limits@D@std@@2HB		; std::numeric_limits<char>::digits
PUBLIC	?digits10@?$numeric_limits@D@std@@2HB		; std::numeric_limits<char>::digits10
PUBLIC	?value@?$integral_constant@_N$0A@@std@@2_NB	; std::integral_constant<bool,0>::value
PUBLIC	?is_signed@?$numeric_limits@_W@std@@2_NB	; std::numeric_limits<wchar_t>::is_signed
PUBLIC	?digits@?$numeric_limits@_W@std@@2HB		; std::numeric_limits<wchar_t>::digits
PUBLIC	?digits10@?$numeric_limits@_W@std@@2HB		; std::numeric_limits<wchar_t>::digits10
PUBLIC	?value@?$integral_constant@_N$00@std@@2_NB	; std::integral_constant<bool,1>::value
PUBLIC	?is_modulo@?$numeric_limits@_N@std@@2_NB	; std::numeric_limits<bool>::is_modulo
PUBLIC	?is_signed@?$numeric_limits@_N@std@@2_NB	; std::numeric_limits<bool>::is_signed
PUBLIC	?digits@?$numeric_limits@_N@std@@2HB		; std::numeric_limits<bool>::digits
PUBLIC	?digits10@?$numeric_limits@_N@std@@2HB		; std::numeric_limits<bool>::digits10
;	COMDAT ?digits10@?$numeric_limits@_N@std@@2HB
CONST	SEGMENT
?digits10@?$numeric_limits@_N@std@@2HB DD 00H		; std::numeric_limits<bool>::digits10
CONST	ENDS
;	COMDAT ?digits@?$numeric_limits@_N@std@@2HB
CONST	SEGMENT
?digits@?$numeric_limits@_N@std@@2HB DD 01H		; std::numeric_limits<bool>::digits
CONST	ENDS
;	COMDAT ?is_signed@?$numeric_limits@_N@std@@2_NB
CONST	SEGMENT
?is_signed@?$numeric_limits@_N@std@@2_NB DB 00H		; std::numeric_limits<bool>::is_signed
CONST	ENDS
;	COMDAT ?is_modulo@?$numeric_limits@_N@std@@2_NB
CONST	SEGMENT
?is_modulo@?$numeric_limits@_N@std@@2_NB DB 00H		; std::numeric_limits<bool>::is_modulo
CONST	ENDS
;	COMDAT ?value@?$integral_constant@_N$00@std@@2_NB
CONST	SEGMENT
?value@?$integral_constant@_N$00@std@@2_NB DB 01H	; std::integral_constant<bool,1>::value
CONST	ENDS
;	COMDAT ?digits10@?$numeric_limits@_W@std@@2HB
CONST	SEGMENT
?digits10@?$numeric_limits@_W@std@@2HB DD 04H		; std::numeric_limits<wchar_t>::digits10
CONST	ENDS
;	COMDAT ?digits@?$numeric_limits@_W@std@@2HB
CONST	SEGMENT
?digits@?$numeric_limits@_W@std@@2HB DD 010H		; std::numeric_limits<wchar_t>::digits
CONST	ENDS
;	COMDAT ?is_signed@?$numeric_limits@_W@std@@2_NB
CONST	SEGMENT
?is_signed@?$numeric_limits@_W@std@@2_NB DB 00H		; std::numeric_limits<wchar_t>::is_signed
CONST	ENDS
;	COMDAT ?value@?$integral_constant@_N$0A@@std@@2_NB
CONST	SEGMENT
?value@?$integral_constant@_N$0A@@std@@2_NB DB 00H	; std::integral_constant<bool,0>::value
CONST	ENDS
;	COMDAT ?digits10@?$numeric_limits@D@std@@2HB
CONST	SEGMENT
?digits10@?$numeric_limits@D@std@@2HB DD 02H		; std::numeric_limits<char>::digits10
CONST	ENDS
;	COMDAT ?digits@?$numeric_limits@D@std@@2HB
CONST	SEGMENT
?digits@?$numeric_limits@D@std@@2HB DD 07H		; std::numeric_limits<char>::digits
CONST	ENDS
;	COMDAT ?is_signed@?$numeric_limits@D@std@@2_NB
CONST	SEGMENT
?is_signed@?$numeric_limits@D@std@@2_NB DB 01H		; std::numeric_limits<char>::is_signed
CONST	ENDS
;	COMDAT ?radix@_Num_float_base@std@@2HB
CONST	SEGMENT
?radix@_Num_float_base@std@@2HB DD 02H			; std::_Num_float_base::radix
CONST	ENDS
;	COMDAT ?round_style@_Num_float_base@std@@2W4float_round_style@2@B
CONST	SEGMENT
?round_style@_Num_float_base@std@@2W4float_round_style@2@B DD 01H ; std::_Num_float_base::round_style
CONST	ENDS
;	COMDAT ?traps@_Num_float_base@std@@2_NB
CONST	SEGMENT
?traps@_Num_float_base@std@@2_NB DB 00H			; std::_Num_float_base::traps
CONST	ENDS
;	COMDAT ?tinyness_before@_Num_float_base@std@@2_NB
CONST	SEGMENT
?tinyness_before@_Num_float_base@std@@2_NB DB 01H	; std::_Num_float_base::tinyness_before
CONST	ENDS
;	COMDAT ?is_specialized@_Num_float_base@std@@2_NB
CONST	SEGMENT
?is_specialized@_Num_float_base@std@@2_NB DB 01H	; std::_Num_float_base::is_specialized
CONST	ENDS
;	COMDAT ?is_signed@_Num_float_base@std@@2_NB
CONST	SEGMENT
?is_signed@_Num_float_base@std@@2_NB DB 01H		; std::_Num_float_base::is_signed
CONST	ENDS
;	COMDAT ?is_modulo@_Num_float_base@std@@2_NB
CONST	SEGMENT
?is_modulo@_Num_float_base@std@@2_NB DB 00H		; std::_Num_float_base::is_modulo
CONST	ENDS
;	COMDAT ?is_integer@_Num_float_base@std@@2_NB
CONST	SEGMENT
?is_integer@_Num_float_base@std@@2_NB DB 00H		; std::_Num_float_base::is_integer
CONST	ENDS
;	COMDAT ?is_iec559@_Num_float_base@std@@2_NB
CONST	SEGMENT
?is_iec559@_Num_float_base@std@@2_NB DB 01H		; std::_Num_float_base::is_iec559
CONST	ENDS
;	COMDAT ?is_exact@_Num_float_base@std@@2_NB
CONST	SEGMENT
?is_exact@_Num_float_base@std@@2_NB DB 00H		; std::_Num_float_base::is_exact
CONST	ENDS
;	COMDAT ?is_bounded@_Num_float_base@std@@2_NB
CONST	SEGMENT
?is_bounded@_Num_float_base@std@@2_NB DB 01H		; std::_Num_float_base::is_bounded
CONST	ENDS
;	COMDAT ?has_signaling_NaN@_Num_float_base@std@@2_NB
CONST	SEGMENT
?has_signaling_NaN@_Num_float_base@std@@2_NB DB 01H	; std::_Num_float_base::has_signaling_NaN
CONST	ENDS
;	COMDAT ?has_quiet_NaN@_Num_float_base@std@@2_NB
CONST	SEGMENT
?has_quiet_NaN@_Num_float_base@std@@2_NB DB 01H		; std::_Num_float_base::has_quiet_NaN
CONST	ENDS
;	COMDAT ?has_infinity@_Num_float_base@std@@2_NB
CONST	SEGMENT
?has_infinity@_Num_float_base@std@@2_NB DB 01H		; std::_Num_float_base::has_infinity
CONST	ENDS
;	COMDAT ?has_denorm_loss@_Num_float_base@std@@2_NB
CONST	SEGMENT
?has_denorm_loss@_Num_float_base@std@@2_NB DB 01H	; std::_Num_float_base::has_denorm_loss
CONST	ENDS
;	COMDAT ?has_denorm@_Num_float_base@std@@2W4float_denorm_style@2@B
CONST	SEGMENT
?has_denorm@_Num_float_base@std@@2W4float_denorm_style@2@B DD 01H ; std::_Num_float_base::has_denorm
CONST	ENDS
;	COMDAT ?radix@_Num_int_base@std@@2HB
CONST	SEGMENT
?radix@_Num_int_base@std@@2HB DD 02H			; std::_Num_int_base::radix
CONST	ENDS
;	COMDAT ?is_specialized@_Num_int_base@std@@2_NB
CONST	SEGMENT
?is_specialized@_Num_int_base@std@@2_NB DB 01H		; std::_Num_int_base::is_specialized
CONST	ENDS
;	COMDAT ?is_modulo@_Num_int_base@std@@2_NB
CONST	SEGMENT
?is_modulo@_Num_int_base@std@@2_NB DB 01H		; std::_Num_int_base::is_modulo
CONST	ENDS
;	COMDAT ?is_integer@_Num_int_base@std@@2_NB
CONST	SEGMENT
?is_integer@_Num_int_base@std@@2_NB DB 01H		; std::_Num_int_base::is_integer
CONST	ENDS
;	COMDAT ?is_exact@_Num_int_base@std@@2_NB
CONST	SEGMENT
?is_exact@_Num_int_base@std@@2_NB DB 01H		; std::_Num_int_base::is_exact
CONST	ENDS
;	COMDAT ?is_bounded@_Num_int_base@std@@2_NB
CONST	SEGMENT
?is_bounded@_Num_int_base@std@@2_NB DB 01H		; std::_Num_int_base::is_bounded
CONST	ENDS
CONST	SEGMENT
_L_2	DD	03f317218r			; 0.693147
_NEAR_CLIP DD	03f800000r			; 1
CONST	ENDS
;	COMDAT ?_Stream_err@failure@ios_base@std@@0W4io_errc@43@B
CONST	SEGMENT
?_Stream_err@failure@ios_base@std@@0W4io_errc@43@B DD 01H ; std::ios_base::failure::_Stream_err
CONST	ENDS
;	COMDAT ?radix@_Num_base@std@@2HB
CONST	SEGMENT
?radix@_Num_base@std@@2HB DD 00H			; std::_Num_base::radix
CONST	ENDS
;	COMDAT ?min_exponent10@_Num_base@std@@2HB
CONST	SEGMENT
?min_exponent10@_Num_base@std@@2HB DD 00H		; std::_Num_base::min_exponent10
CONST	ENDS
;	COMDAT ?min_exponent@_Num_base@std@@2HB
CONST	SEGMENT
?min_exponent@_Num_base@std@@2HB DD 00H			; std::_Num_base::min_exponent
CONST	ENDS
;	COMDAT ?max_exponent10@_Num_base@std@@2HB
CONST	SEGMENT
?max_exponent10@_Num_base@std@@2HB DD 00H		; std::_Num_base::max_exponent10
CONST	ENDS
;	COMDAT ?max_exponent@_Num_base@std@@2HB
CONST	SEGMENT
?max_exponent@_Num_base@std@@2HB DD 00H			; std::_Num_base::max_exponent
CONST	ENDS
;	COMDAT ?max_digits10@_Num_base@std@@2HB
CONST	SEGMENT
?max_digits10@_Num_base@std@@2HB DD 00H			; std::_Num_base::max_digits10
CONST	ENDS
;	COMDAT ?digits10@_Num_base@std@@2HB
CONST	SEGMENT
?digits10@_Num_base@std@@2HB DD 00H			; std::_Num_base::digits10
CONST	ENDS
;	COMDAT ?digits@_Num_base@std@@2HB
CONST	SEGMENT
?digits@_Num_base@std@@2HB DD 00H			; std::_Num_base::digits
CONST	ENDS
;	COMDAT ?round_style@_Num_base@std@@2W4float_round_style@2@B
CONST	SEGMENT
?round_style@_Num_base@std@@2W4float_round_style@2@B DD 00H ; std::_Num_base::round_style
CONST	ENDS
;	COMDAT ?end@?$_Iosb@H@std@@2W4_Seekdir@12@B
CONST	SEGMENT
?end@?$_Iosb@H@std@@2W4_Seekdir@12@B DD 02H		; std::_Iosb<int>::end
CONST	ENDS
;	COMDAT ?traps@_Num_base@std@@2_NB
CONST	SEGMENT
?traps@_Num_base@std@@2_NB DB 00H			; std::_Num_base::traps
CONST	ENDS
;	COMDAT ?cur@?$_Iosb@H@std@@2W4_Seekdir@12@B
CONST	SEGMENT
?cur@?$_Iosb@H@std@@2W4_Seekdir@12@B DD 01H		; std::_Iosb<int>::cur
CONST	ENDS
;	COMDAT ?tinyness_before@_Num_base@std@@2_NB
CONST	SEGMENT
?tinyness_before@_Num_base@std@@2_NB DB 00H		; std::_Num_base::tinyness_before
CONST	ENDS
;	COMDAT ?beg@?$_Iosb@H@std@@2W4_Seekdir@12@B
CONST	SEGMENT
?beg@?$_Iosb@H@std@@2W4_Seekdir@12@B DD 00H		; std::_Iosb<int>::beg
CONST	ENDS
;	COMDAT ?is_specialized@_Num_base@std@@2_NB
CONST	SEGMENT
?is_specialized@_Num_base@std@@2_NB DB 00H		; std::_Num_base::is_specialized
CONST	ENDS
;	COMDAT ?binary@?$_Iosb@H@std@@2W4_Openmode@12@B
CONST	SEGMENT
?binary@?$_Iosb@H@std@@2W4_Openmode@12@B DD 020H	; std::_Iosb<int>::binary
CONST	ENDS
;	COMDAT ?is_signed@_Num_base@std@@2_NB
CONST	SEGMENT
?is_signed@_Num_base@std@@2_NB DB 00H			; std::_Num_base::is_signed
CONST	ENDS
;	COMDAT ?is_modulo@_Num_base@std@@2_NB
CONST	SEGMENT
?is_modulo@_Num_base@std@@2_NB DB 00H			; std::_Num_base::is_modulo
CONST	ENDS
;	COMDAT ?_Noreplace@?$_Iosb@H@std@@2W4_Openmode@12@B
CONST	SEGMENT
?_Noreplace@?$_Iosb@H@std@@2W4_Openmode@12@B DD 080H	; std::_Iosb<int>::_Noreplace
CONST	ENDS
;	COMDAT ?is_integer@_Num_base@std@@2_NB
CONST	SEGMENT
?is_integer@_Num_base@std@@2_NB DB 00H			; std::_Num_base::is_integer
CONST	ENDS
;	COMDAT ?_Nocreate@?$_Iosb@H@std@@2W4_Openmode@12@B
CONST	SEGMENT
?_Nocreate@?$_Iosb@H@std@@2W4_Openmode@12@B DD 040H	; std::_Iosb<int>::_Nocreate
CONST	ENDS
;	COMDAT ?trunc@?$_Iosb@H@std@@2W4_Openmode@12@B
CONST	SEGMENT
?trunc@?$_Iosb@H@std@@2W4_Openmode@12@B DD 010H		; std::_Iosb<int>::trunc
CONST	ENDS
;	COMDAT ?is_iec559@_Num_base@std@@2_NB
CONST	SEGMENT
?is_iec559@_Num_base@std@@2_NB DB 00H			; std::_Num_base::is_iec559
CONST	ENDS
;	COMDAT ?app@?$_Iosb@H@std@@2W4_Openmode@12@B
CONST	SEGMENT
?app@?$_Iosb@H@std@@2W4_Openmode@12@B DD 08H		; std::_Iosb<int>::app
CONST	ENDS
;	COMDAT ?is_exact@_Num_base@std@@2_NB
CONST	SEGMENT
?is_exact@_Num_base@std@@2_NB DB 00H			; std::_Num_base::is_exact
CONST	ENDS
;	COMDAT ?is_bounded@_Num_base@std@@2_NB
CONST	SEGMENT
?is_bounded@_Num_base@std@@2_NB DB 00H			; std::_Num_base::is_bounded
CONST	ENDS
;	COMDAT ?ate@?$_Iosb@H@std@@2W4_Openmode@12@B
CONST	SEGMENT
?ate@?$_Iosb@H@std@@2W4_Openmode@12@B DD 04H		; std::_Iosb<int>::ate
CONST	ENDS
;	COMDAT ?has_signaling_NaN@_Num_base@std@@2_NB
CONST	SEGMENT
?has_signaling_NaN@_Num_base@std@@2_NB DB 00H		; std::_Num_base::has_signaling_NaN
CONST	ENDS
;	COMDAT ?out@?$_Iosb@H@std@@2W4_Openmode@12@B
CONST	SEGMENT
?out@?$_Iosb@H@std@@2W4_Openmode@12@B DD 02H		; std::_Iosb<int>::out
CONST	ENDS
;	COMDAT ?in@?$_Iosb@H@std@@2W4_Openmode@12@B
CONST	SEGMENT
?in@?$_Iosb@H@std@@2W4_Openmode@12@B DD 01H		; std::_Iosb<int>::in
CONST	ENDS
;	COMDAT ?has_quiet_NaN@_Num_base@std@@2_NB
CONST	SEGMENT
?has_quiet_NaN@_Num_base@std@@2_NB DB 00H		; std::_Num_base::has_quiet_NaN
CONST	ENDS
;	COMDAT ?has_infinity@_Num_base@std@@2_NB
CONST	SEGMENT
?has_infinity@_Num_base@std@@2_NB DB 00H		; std::_Num_base::has_infinity
CONST	ENDS
;	COMDAT ?_Hardfail@?$_Iosb@H@std@@2W4_Iostate@12@B
CONST	SEGMENT
?_Hardfail@?$_Iosb@H@std@@2W4_Iostate@12@B DD 010H	; std::_Iosb<int>::_Hardfail
CONST	ENDS
;	COMDAT ?has_denorm_loss@_Num_base@std@@2_NB
CONST	SEGMENT
?has_denorm_loss@_Num_base@std@@2_NB DB 00H		; std::_Num_base::has_denorm_loss
CONST	ENDS
;	COMDAT ?badbit@?$_Iosb@H@std@@2W4_Iostate@12@B
CONST	SEGMENT
?badbit@?$_Iosb@H@std@@2W4_Iostate@12@B DD 04H		; std::_Iosb<int>::badbit
CONST	ENDS
;	COMDAT ?has_denorm@_Num_base@std@@2W4float_denorm_style@2@B
CONST	SEGMENT
?has_denorm@_Num_base@std@@2W4float_denorm_style@2@B DD 00H ; std::_Num_base::has_denorm
CONST	ENDS
;	COMDAT ?failbit@?$_Iosb@H@std@@2W4_Iostate@12@B
CONST	SEGMENT
?failbit@?$_Iosb@H@std@@2W4_Iostate@12@B DD 02H		; std::_Iosb<int>::failbit
CONST	ENDS
_DATA	SEGMENT
?dragConstant@BombClass@@2MA DD 0430c0000r	; 140	; BombClass::dragConstant
	ORG $+4
_cloudPntList DD 0c5bcc000r			; -6040
	DD	0c4070000r			; -540
	DD	0c694ac00r			; -19030
	DD	0c6de1c00r			; -28430
	DD	0c4dfc000r			; -1790
	DD	046dcc800r			; 28260
	DD	047104200r			; 36930
	DD	045732000r			; 3890
	DD	04744ea00r			; 50410
	DD	045336000r			; 2870
	DD	0c4d48000r			; -1700
	DD	04736da00r			; 46810
	DD	0c763ee00r			; -58350
	DD	0c4d48000r			; -1700
	DD	0c64c1000r			; -13060
	DD	046f2bc00r			; 31070
	DD	045480000r			; 3200
	DD	0c7293800r			; -43320
	DD	0c7bdc400r			; -97160
	DD	0c4d48000r			; -1700
	DD	04576e000r			; 3950
	DD	0c792e000r			; -75200
	DD	0c4bb8000r			; -1500
	DD	047957400r			; 76520
	DD	04759ee00r			; 55790
	DD	0c5a1e000r			; -5180
	DD	0c7a24e00r			; -83100
	DD	0c7473800r			; -51000
	DD	0c3a00000r			; -320
	DD	0c7829100r			; -66850
	DD	047733400r			; 62260
	DD	0c3a00000r			; -320
	DD	047708200r			; 61570
	DD	0c7710e00r			; -61710
	DD	0c550c000r			; -3340
	DD	046fb7c00r			; 32190
	DD	0c7719a00r			; -61850
	DD	0c7483200r			; -51250
	DD	047543a00r			; 54330
	DD	0c5bcc000r			; -6040
	DD	0c7495400r			; -51540
	DD	0c694ac00r			; -19030
	DD	0c6a7a800r			; -21460
	DD	0c74b0200r			; -51970
	DD	0468e8000r			; 18240
	DD	047298800r			; 43400
	DD	0c74bf200r			; -52210
	DD	046bc7000r			; 24120
	DD	0c749f400r			; -51700
	DD	0c74bc000r			; -52160
	DD	046948400r			; 19010
	DD	0c605e800r			; -8570
	DD	0c7488200r			; -51330
	DD	0c74ca600r			; -52390
	DD	04731bc00r			; 45500
	DD	0c7509800r			; -53400
	DD	0c6725800r			; -15510
	DD	0c7719a00r			; -61850
	DD	0c7483200r			; -51250
	DD	047543a00r			; 54330
	DD	047553400r			; 54580
	DD	0c74ddc00r			; -52700
	DD	0479a5600r			; 79020
	DD	047a7e400r			; 85960
	DD	0c74c5600r			; -52310
	DD	0477d4800r			; 64840
	DD	0c7c44500r			; -100490
	DD	0c74d1400r			; -52500
	DD	047ac2600r			; 88140
	DD	0c7a1ae00r			; -82780
	DD	0c749ea00r			; -51690
	DD	0c7bce300r			; -96710
	DD	0c6126800r			; -9370
	DD	0c7495400r			; -51540
	DD	043cd0000r			; 410
	DD	0c6a7a800r			; -21460
	DD	0c74a8a00r			; -51850
	DD	0473fae00r			; 49070
	DD	0457c8000r			; 4040
	DD	0c74e4a00r			; -52810
	DD	047871e00r			; 69180
	DD	0c6cbc000r			; -26080
	DD	0c74bc000r			; -52160
	DD	046984400r			; 19490
	DD	0452fa000r			; 2810
	DD	0c7488200r			; -51330
	DD	0c7081800r			; -34840
	DD	0c7719a00r			; -61850
	DD	0c749d600r			; -51670
	DD	047b17600r			; 90860
	DD	047553400r			; 54580
	DD	0c74ddc00r			; -52700
	DD	0479a5600r			; 79020
	DD	047a7e400r			; 85960
	DD	0c74c5600r			; -52310
	DD	0477d4800r			; 64840
	DD	0c7c44500r			; -100490
	DD	0c74d1400r			; -52500
	DD	047ac2600r			; 88140
	DD	047c04e00r			; 98460
	DD	0c74d1400r			; -52500
	DD	0c732a200r			; -45730
	DD	0467b9000r			; 16100
	DD	0c7487800r			; -51320
	DD	0c749a400r			; -51620
	DD	047636c00r			; 58220
	DD	0c74e0400r			; -52740
	DD	0c760b000r			; -57520
	DD	0c6126800r			; -9370
	DD	0c4070000r			; -540
	DD	043cd0000r			; 410
	DD	0c4e60000r			; -1840
	DD	0c6a30c00r			; -20870
	DD	0470a6600r			; 35430
	DD	0c7230c00r			; -41740
	DD	046924000r			; 18720
	DD	04797d600r			; 77740
	DD	0460d9000r			; 9060
	DD	0c616c800r			; -9650
	DD	0c7921300r			; -74790
_lightningPosList DD 041300000r			; 11
	DD	000000000r			; 0
	DD	040e00000r			; 7
	DD	040a00000r			; 5
	DD	041100000r			; 9
	DD	041000000r			; 8
	DD	041000000r			; 8
	DD	041600000r			; 14
	DD	041800000r			; 16
	DD	041a00000r			; 20
	DD	041200000r			; 10
	DD	041c00000r			; 24
	DD	041300000r			; 11
	DD	041d80000r			; 27
	DD	040c00000r			; 6
	DD	041f00000r			; 30
	DD	040e00000r			; 7
	DD	042040000r			; 33
	DD	03f800000r			; 1
	DD	042180000r			; 38
	DD	040a00000r			; 5
	DD	042280000r			; 42
	DD	040a00000r			; 5
	DD	042340000r			; 45
	DD	041400000r			; 12
	DD	042400000r			; 48
	DD	041a00000r			; 20
	DD	042500000r			; 52
	DD	041a00000r			; 20
	DD	042680000r			; 58
	DD	041b80000r			; 23
	DD	042740000r			; 61
	DD	041b00000r			; 22
	DD	0427c0000r			; 63
	DD	041b00000r			; 22
	DD	042840000r			; 66
	DD	041c80000r			; 25
	DD	042880000r			; 68
	DD	041a00000r			; 20
	DD	0428c0000r			; 70
	DD	041c00000r			; 24
	DD	042960000r			; 75
	DD	041c00000r			; 24
	DD	0429a0000r			; 77
	DD	041f80000r			; 31
	DD	042a00000r			; 80
	DD	041f80000r			; 31
	DD	042a60000r			; 83
	DD	042040000r			; 33
	DD	042b00000r			; 88
	DD	041f80000r			; 31
	DD	042b80000r			; 92
	DD	0423c0000r			; 47
	DD	042ce0000r			; 103
	DD	042380000r			; 46
	DD	042d20000r			; 105
	DD	0423c0000r			; 47
	DD	042d60000r			; 107
	DD	042340000r			; 45
	DD	042e00000r			; 112
	DD	042400000r			; 48
	DD	042e40000r			; 114
	DD	042380000r			; 46
	DD	042ea0000r			; 117
	DD	0422c0000r			; 43
	DD	043000000r			; 128
_DATA	ENDS
;	COMDAT ?eofbit@?$_Iosb@H@std@@2W4_Iostate@12@B
CONST	SEGMENT
?eofbit@?$_Iosb@H@std@@2W4_Iostate@12@B DD 01H		; std::_Iosb<int>::eofbit
CONST	ENDS
;	COMDAT ?goodbit@?$_Iosb@H@std@@2W4_Iostate@12@B
CONST	SEGMENT
?goodbit@?$_Iosb@H@std@@2W4_Iostate@12@B DD 00H		; std::_Iosb<int>::goodbit
CONST	ENDS
;	COMDAT ?floatfield@?$_Iosb@H@std@@2W4_Fmtflags@12@B
CONST	SEGMENT
?floatfield@?$_Iosb@H@std@@2W4_Fmtflags@12@B DD 03000H	; std::_Iosb<int>::floatfield
CONST	ENDS
;	COMDAT ?basefield@?$_Iosb@H@std@@2W4_Fmtflags@12@B
CONST	SEGMENT
?basefield@?$_Iosb@H@std@@2W4_Fmtflags@12@B DD 0e00H	; std::_Iosb<int>::basefield
CONST	ENDS
;	COMDAT ?adjustfield@?$_Iosb@H@std@@2W4_Fmtflags@12@B
CONST	SEGMENT
?adjustfield@?$_Iosb@H@std@@2W4_Fmtflags@12@B DD 01c0H	; std::_Iosb<int>::adjustfield
CONST	ENDS
;	COMDAT ?_Stdio@?$_Iosb@H@std@@2W4_Fmtflags@12@B
CONST	SEGMENT
?_Stdio@?$_Iosb@H@std@@2W4_Fmtflags@12@B DD 08000H	; std::_Iosb<int>::_Stdio
CONST	ENDS
;	COMDAT ?boolalpha@?$_Iosb@H@std@@2W4_Fmtflags@12@B
CONST	SEGMENT
?boolalpha@?$_Iosb@H@std@@2W4_Fmtflags@12@B DD 04000H	; std::_Iosb<int>::boolalpha
CONST	ENDS
;	COMDAT ?hexfloat@?$_Iosb@H@std@@2W4_Fmtflags@12@B
CONST	SEGMENT
?hexfloat@?$_Iosb@H@std@@2W4_Fmtflags@12@B DD 03000H	; std::_Iosb<int>::hexfloat
CONST	ENDS
;	COMDAT ?fixed@?$_Iosb@H@std@@2W4_Fmtflags@12@B
CONST	SEGMENT
?fixed@?$_Iosb@H@std@@2W4_Fmtflags@12@B DD 02000H	; std::_Iosb<int>::fixed
CONST	ENDS
;	COMDAT ?scientific@?$_Iosb@H@std@@2W4_Fmtflags@12@B
CONST	SEGMENT
?scientific@?$_Iosb@H@std@@2W4_Fmtflags@12@B DD 01000H	; std::_Iosb<int>::scientific
CONST	ENDS
;	COMDAT ?hex@?$_Iosb@H@std@@2W4_Fmtflags@12@B
CONST	SEGMENT
?hex@?$_Iosb@H@std@@2W4_Fmtflags@12@B DD 0800H		; std::_Iosb<int>::hex
CONST	ENDS
;	COMDAT ?oct@?$_Iosb@H@std@@2W4_Fmtflags@12@B
CONST	SEGMENT
?oct@?$_Iosb@H@std@@2W4_Fmtflags@12@B DD 0400H		; std::_Iosb<int>::oct
CONST	ENDS
;	COMDAT ?dec@?$_Iosb@H@std@@2W4_Fmtflags@12@B
CONST	SEGMENT
?dec@?$_Iosb@H@std@@2W4_Fmtflags@12@B DD 0200H		; std::_Iosb<int>::dec
CONST	ENDS
;	COMDAT ?internal@?$_Iosb@H@std@@2W4_Fmtflags@12@B
CONST	SEGMENT
?internal@?$_Iosb@H@std@@2W4_Fmtflags@12@B DD 0100H	; std::_Iosb<int>::internal
CONST	ENDS
;	COMDAT ?right@?$_Iosb@H@std@@2W4_Fmtflags@12@B
CONST	SEGMENT
?right@?$_Iosb@H@std@@2W4_Fmtflags@12@B DD 080H		; std::_Iosb<int>::right
CONST	ENDS
;	COMDAT ?left@?$_Iosb@H@std@@2W4_Fmtflags@12@B
CONST	SEGMENT
?left@?$_Iosb@H@std@@2W4_Fmtflags@12@B DD 040H		; std::_Iosb<int>::left
CONST	ENDS
;	COMDAT ?showpos@?$_Iosb@H@std@@2W4_Fmtflags@12@B
CONST	SEGMENT
?showpos@?$_Iosb@H@std@@2W4_Fmtflags@12@B DD 020H	; std::_Iosb<int>::showpos
CONST	ENDS
;	COMDAT ?showpoint@?$_Iosb@H@std@@2W4_Fmtflags@12@B
CONST	SEGMENT
?showpoint@?$_Iosb@H@std@@2W4_Fmtflags@12@B DD 010H	; std::_Iosb<int>::showpoint
CONST	ENDS
;	COMDAT ?showbase@?$_Iosb@H@std@@2W4_Fmtflags@12@B
CONST	SEGMENT
?showbase@?$_Iosb@H@std@@2W4_Fmtflags@12@B DD 08H	; std::_Iosb<int>::showbase
CONST	ENDS
;	COMDAT ?uppercase@?$_Iosb@H@std@@2W4_Fmtflags@12@B
CONST	SEGMENT
?uppercase@?$_Iosb@H@std@@2W4_Fmtflags@12@B DD 04H	; std::_Iosb<int>::uppercase
CONST	ENDS
;	COMDAT ?unitbuf@?$_Iosb@H@std@@2W4_Fmtflags@12@B
CONST	SEGMENT
?unitbuf@?$_Iosb@H@std@@2W4_Fmtflags@12@B DD 02H	; std::_Iosb<int>::unitbuf
CONST	ENDS
;	COMDAT ?skipws@?$_Iosb@H@std@@2W4_Fmtflags@12@B
CONST	SEGMENT
?skipws@?$_Iosb@H@std@@2W4_Fmtflags@12@B DD 01H		; std::_Iosb<int>::skipws
CONST	ENDS
;	COMDAT ?value@?$_Sizeof@U_Nil@std@@U12@U12@U12@U12@U12@U12@U12@@std@@2IB
CONST	SEGMENT
?value@?$_Sizeof@U_Nil@std@@U12@U12@U12@U12@U12@U12@U12@@std@@2IB DD 00H ; std::_Sizeof<std::_Nil,std::_Nil,std::_Nil,std::_Nil,std::_Nil,std::_Nil,std::_Nil,std::_Nil>::value
CONST	ENDS
;	COMDAT ?min_exponent10@?$numeric_limits@O@std@@2HB
CONST	SEGMENT
?min_exponent10@?$numeric_limits@O@std@@2HB DD 0fffffecdH ; std::numeric_limits<long double>::min_exponent10
CONST	ENDS
;	COMDAT ?min_exponent@?$numeric_limits@O@std@@2HB
CONST	SEGMENT
?min_exponent@?$numeric_limits@O@std@@2HB DD 0fffffc03H	; std::numeric_limits<long double>::min_exponent
CONST	ENDS
;	COMDAT ?max_exponent10@?$numeric_limits@O@std@@2HB
CONST	SEGMENT
?max_exponent10@?$numeric_limits@O@std@@2HB DD 0134H	; std::numeric_limits<long double>::max_exponent10
CONST	ENDS
;	COMDAT ?max_exponent@?$numeric_limits@O@std@@2HB
CONST	SEGMENT
?max_exponent@?$numeric_limits@O@std@@2HB DD 0400H	; std::numeric_limits<long double>::max_exponent
CONST	ENDS
;	COMDAT ?max_digits10@?$numeric_limits@O@std@@2HB
CONST	SEGMENT
?max_digits10@?$numeric_limits@O@std@@2HB DD 011H	; std::numeric_limits<long double>::max_digits10
CONST	ENDS
;	COMDAT ?digits10@?$numeric_limits@O@std@@2HB
CONST	SEGMENT
?digits10@?$numeric_limits@O@std@@2HB DD 0fH		; std::numeric_limits<long double>::digits10
CONST	ENDS
;	COMDAT ?digits@?$numeric_limits@O@std@@2HB
CONST	SEGMENT
?digits@?$numeric_limits@O@std@@2HB DD 035H		; std::numeric_limits<long double>::digits
CONST	ENDS
;	COMDAT ?min_exponent10@?$numeric_limits@N@std@@2HB
CONST	SEGMENT
?min_exponent10@?$numeric_limits@N@std@@2HB DD 0fffffecdH ; std::numeric_limits<double>::min_exponent10
CONST	ENDS
;	COMDAT ?min_exponent@?$numeric_limits@N@std@@2HB
CONST	SEGMENT
?min_exponent@?$numeric_limits@N@std@@2HB DD 0fffffc03H	; std::numeric_limits<double>::min_exponent
CONST	ENDS
;	COMDAT ?max_exponent10@?$numeric_limits@N@std@@2HB
CONST	SEGMENT
?max_exponent10@?$numeric_limits@N@std@@2HB DD 0134H	; std::numeric_limits<double>::max_exponent10
CONST	ENDS
;	COMDAT ?max_exponent@?$numeric_limits@N@std@@2HB
CONST	SEGMENT
?max_exponent@?$numeric_limits@N@std@@2HB DD 0400H	; std::numeric_limits<double>::max_exponent
CONST	ENDS
;	COMDAT ?max_digits10@?$numeric_limits@N@std@@2HB
CONST	SEGMENT
?max_digits10@?$numeric_limits@N@std@@2HB DD 011H	; std::numeric_limits<double>::max_digits10
CONST	ENDS
;	COMDAT ?digits10@?$numeric_limits@N@std@@2HB
CONST	SEGMENT
?digits10@?$numeric_limits@N@std@@2HB DD 0fH		; std::numeric_limits<double>::digits10
CONST	ENDS
;	COMDAT ?digits@?$numeric_limits@N@std@@2HB
CONST	SEGMENT
?digits@?$numeric_limits@N@std@@2HB DD 035H		; std::numeric_limits<double>::digits
CONST	ENDS
;	COMDAT ?value@?$integral_constant@I$0A@@std@@2IB
CONST	SEGMENT
?value@?$integral_constant@I$0A@@std@@2IB DD 00H	; std::integral_constant<unsigned int,0>::value
CONST	ENDS
;	COMDAT ?CMPDIRTYDATA_INTERVAL@FalconEntity@@2KB
CONST	SEGMENT
?CMPDIRTYDATA_INTERVAL@FalconEntity@@2KB DD 0c8H	; FalconEntity::CMPDIRTYDATA_INTERVAL
CONST	ENDS
;	COMDAT ?SIMDIRTYDATA_INTERVAL@FalconEntity@@2KB
CONST	SEGMENT
?SIMDIRTYDATA_INTERVAL@FalconEntity@@2KB DD 0c8H	; FalconEntity::SIMDIRTYDATA_INTERVAL
CONST	ENDS
;	COMDAT ?min_exponent10@?$numeric_limits@M@std@@2HB
CONST	SEGMENT
?min_exponent10@?$numeric_limits@M@std@@2HB DD 0ffffffdbH ; std::numeric_limits<float>::min_exponent10
CONST	ENDS
;	COMDAT ?min_exponent@?$numeric_limits@M@std@@2HB
CONST	SEGMENT
?min_exponent@?$numeric_limits@M@std@@2HB DD 0ffffff83H	; std::numeric_limits<float>::min_exponent
CONST	ENDS
;	COMDAT ?max_exponent10@?$numeric_limits@M@std@@2HB
CONST	SEGMENT
?max_exponent10@?$numeric_limits@M@std@@2HB DD 026H	; std::numeric_limits<float>::max_exponent10
CONST	ENDS
;	COMDAT ?max_exponent@?$numeric_limits@M@std@@2HB
CONST	SEGMENT
?max_exponent@?$numeric_limits@M@std@@2HB DD 080H	; std::numeric_limits<float>::max_exponent
CONST	ENDS
;	COMDAT ?max_digits10@?$numeric_limits@M@std@@2HB
CONST	SEGMENT
?max_digits10@?$numeric_limits@M@std@@2HB DD 09H	; std::numeric_limits<float>::max_digits10
CONST	ENDS
;	COMDAT ?digits10@?$numeric_limits@M@std@@2HB
CONST	SEGMENT
?digits10@?$numeric_limits@M@std@@2HB DD 06H		; std::numeric_limits<float>::digits10
CONST	ENDS
;	COMDAT ?digits@?$numeric_limits@M@std@@2HB
CONST	SEGMENT
?digits@?$numeric_limits@M@std@@2HB DD 018H		; std::numeric_limits<float>::digits
CONST	ENDS
;	COMDAT ?digits10@?$numeric_limits@_K@std@@2HB
CONST	SEGMENT
?digits10@?$numeric_limits@_K@std@@2HB DD 013H		; std::numeric_limits<unsigned __int64>::digits10
CONST	ENDS
;	COMDAT ?digits@?$numeric_limits@_K@std@@2HB
CONST	SEGMENT
?digits@?$numeric_limits@_K@std@@2HB DD 040H		; std::numeric_limits<unsigned __int64>::digits
CONST	ENDS
;	COMDAT ?is_signed@?$numeric_limits@_K@std@@2_NB
CONST	SEGMENT
?is_signed@?$numeric_limits@_K@std@@2_NB DB 00H		; std::numeric_limits<unsigned __int64>::is_signed
CONST	ENDS
;	COMDAT ?digits10@?$numeric_limits@_J@std@@2HB
CONST	SEGMENT
?digits10@?$numeric_limits@_J@std@@2HB DD 012H		; std::numeric_limits<__int64>::digits10
CONST	ENDS
;	COMDAT ?digits@?$numeric_limits@_J@std@@2HB
CONST	SEGMENT
?digits@?$numeric_limits@_J@std@@2HB DD 03fH		; std::numeric_limits<__int64>::digits
CONST	ENDS
;	COMDAT ?is_signed@?$numeric_limits@_J@std@@2_NB
CONST	SEGMENT
?is_signed@?$numeric_limits@_J@std@@2_NB DB 01H		; std::numeric_limits<__int64>::is_signed
CONST	ENDS
;	COMDAT ?digits10@?$numeric_limits@K@std@@2HB
CONST	SEGMENT
?digits10@?$numeric_limits@K@std@@2HB DD 09H		; std::numeric_limits<unsigned long>::digits10
CONST	ENDS
;	COMDAT ?digits@?$numeric_limits@K@std@@2HB
CONST	SEGMENT
?digits@?$numeric_limits@K@std@@2HB DD 020H		; std::numeric_limits<unsigned long>::digits
CONST	ENDS
;	COMDAT ?is_signed@?$numeric_limits@K@std@@2_NB
CONST	SEGMENT
?is_signed@?$numeric_limits@K@std@@2_NB DB 00H		; std::numeric_limits<unsigned long>::is_signed
CONST	ENDS
;	COMDAT ?digits10@?$numeric_limits@J@std@@2HB
CONST	SEGMENT
?digits10@?$numeric_limits@J@std@@2HB DD 09H		; std::numeric_limits<long>::digits10
CONST	ENDS
;	COMDAT ?digits@?$numeric_limits@J@std@@2HB
CONST	SEGMENT
?digits@?$numeric_limits@J@std@@2HB DD 01fH		; std::numeric_limits<long>::digits
CONST	ENDS
;	COMDAT ?is_signed@?$numeric_limits@J@std@@2_NB
CONST	SEGMENT
?is_signed@?$numeric_limits@J@std@@2_NB DB 01H		; std::numeric_limits<long>::is_signed
CONST	ENDS
;	COMDAT ?digits10@?$numeric_limits@I@std@@2HB
CONST	SEGMENT
?digits10@?$numeric_limits@I@std@@2HB DD 09H		; std::numeric_limits<unsigned int>::digits10
CONST	ENDS
;	COMDAT ?digits@?$numeric_limits@I@std@@2HB
CONST	SEGMENT
?digits@?$numeric_limits@I@std@@2HB DD 020H		; std::numeric_limits<unsigned int>::digits
CONST	ENDS
;	COMDAT ?is_signed@?$numeric_limits@I@std@@2_NB
CONST	SEGMENT
?is_signed@?$numeric_limits@I@std@@2_NB DB 00H		; std::numeric_limits<unsigned int>::is_signed
CONST	ENDS
;	COMDAT ?table_size@?$ctype@D@std@@2IB
CONST	SEGMENT
?table_size@?$ctype@D@std@@2IB DD 0100H			; std::ctype<char>::table_size
CONST	ENDS
;	COMDAT ?digits10@?$numeric_limits@H@std@@2HB
CONST	SEGMENT
?digits10@?$numeric_limits@H@std@@2HB DD 09H		; std::numeric_limits<int>::digits10
CONST	ENDS
;	COMDAT ?digits@?$numeric_limits@H@std@@2HB
CONST	SEGMENT
?digits@?$numeric_limits@H@std@@2HB DD 01fH		; std::numeric_limits<int>::digits
CONST	ENDS
;	COMDAT ?value@?$_Sizeof@HU_Nil@std@@U12@U12@U12@U12@U12@U12@@std@@2IB
CONST	SEGMENT
?value@?$_Sizeof@HU_Nil@std@@U12@U12@U12@U12@U12@U12@@std@@2IB DD 01H ; std::_Sizeof<int,std::_Nil,std::_Nil,std::_Nil,std::_Nil,std::_Nil,std::_Nil,std::_Nil>::value
CONST	ENDS
;	COMDAT ?is_signed@?$numeric_limits@H@std@@2_NB
CONST	SEGMENT
?is_signed@?$numeric_limits@H@std@@2_NB DB 01H		; std::numeric_limits<int>::is_signed
CONST	ENDS
;	COMDAT ?digits10@?$numeric_limits@G@std@@2HB
CONST	SEGMENT
?digits10@?$numeric_limits@G@std@@2HB DD 04H		; std::numeric_limits<unsigned short>::digits10
CONST	ENDS
;	COMDAT ?digits@?$numeric_limits@G@std@@2HB
CONST	SEGMENT
?digits@?$numeric_limits@G@std@@2HB DD 010H		; std::numeric_limits<unsigned short>::digits
CONST	ENDS
;	COMDAT ?is_signed@?$numeric_limits@G@std@@2_NB
CONST	SEGMENT
?is_signed@?$numeric_limits@G@std@@2_NB DB 00H		; std::numeric_limits<unsigned short>::is_signed
CONST	ENDS
;	COMDAT ?digits10@?$numeric_limits@F@std@@2HB
CONST	SEGMENT
?digits10@?$numeric_limits@F@std@@2HB DD 04H		; std::numeric_limits<short>::digits10
CONST	ENDS
;	COMDAT ?digits@?$numeric_limits@F@std@@2HB
CONST	SEGMENT
?digits@?$numeric_limits@F@std@@2HB DD 0fH		; std::numeric_limits<short>::digits
CONST	ENDS
;	COMDAT ?none@?$_Locbase@H@std@@2HB
CONST	SEGMENT
?none@?$_Locbase@H@std@@2HB DD 00H			; std::_Locbase<int>::none
CONST	ENDS
;	COMDAT ?is_signed@?$numeric_limits@F@std@@2_NB
CONST	SEGMENT
?is_signed@?$numeric_limits@F@std@@2_NB DB 01H		; std::numeric_limits<short>::is_signed
CONST	ENDS
;	COMDAT ?all@?$_Locbase@H@std@@2HB
CONST	SEGMENT
?all@?$_Locbase@H@std@@2HB DD 03fH			; std::_Locbase<int>::all
CONST	ENDS
;	COMDAT ?messages@?$_Locbase@H@std@@2HB
CONST	SEGMENT
?messages@?$_Locbase@H@std@@2HB DD 020H			; std::_Locbase<int>::messages
CONST	ENDS
;	COMDAT ?time@?$_Locbase@H@std@@2HB
CONST	SEGMENT
?time@?$_Locbase@H@std@@2HB DD 010H			; std::_Locbase<int>::time
CONST	ENDS
;	COMDAT ?numeric@?$_Locbase@H@std@@2HB
CONST	SEGMENT
?numeric@?$_Locbase@H@std@@2HB DD 08H			; std::_Locbase<int>::numeric
CONST	ENDS
;	COMDAT ?monetary@?$_Locbase@H@std@@2HB
CONST	SEGMENT
?monetary@?$_Locbase@H@std@@2HB DD 04H			; std::_Locbase<int>::monetary
CONST	ENDS
;	COMDAT ?ctype@?$_Locbase@H@std@@2HB
CONST	SEGMENT
?ctype@?$_Locbase@H@std@@2HB DD 02H			; std::_Locbase<int>::ctype
CONST	ENDS
;	COMDAT ?collate@?$_Locbase@H@std@@2HB
CONST	SEGMENT
?collate@?$_Locbase@H@std@@2HB DD 01H			; std::_Locbase<int>::collate
CONST	ENDS
;	COMDAT ?digits10@?$numeric_limits@E@std@@2HB
CONST	SEGMENT
?digits10@?$numeric_limits@E@std@@2HB DD 02H		; std::numeric_limits<unsigned char>::digits10
CONST	ENDS
;	COMDAT ?digits@?$numeric_limits@E@std@@2HB
CONST	SEGMENT
?digits@?$numeric_limits@E@std@@2HB DD 08H		; std::numeric_limits<unsigned char>::digits
CONST	ENDS
;	COMDAT ?is_signed@?$numeric_limits@E@std@@2_NB
CONST	SEGMENT
?is_signed@?$numeric_limits@E@std@@2_NB DB 00H		; std::numeric_limits<unsigned char>::is_signed
CONST	ENDS
;	COMDAT ?digits10@?$numeric_limits@C@std@@2HB
CONST	SEGMENT
?digits10@?$numeric_limits@C@std@@2HB DD 02H		; std::numeric_limits<signed char>::digits10
CONST	ENDS
;	COMDAT ?digits@?$numeric_limits@C@std@@2HB
CONST	SEGMENT
?digits@?$numeric_limits@C@std@@2HB DD 07H		; std::numeric_limits<signed char>::digits
CONST	ENDS
;	COMDAT ?is_signed@?$numeric_limits@C@std@@2_NB
CONST	SEGMENT
?is_signed@?$numeric_limits@C@std@@2_NB DB 01H		; std::numeric_limits<signed char>::is_signed
CONST	ENDS
PUBLIC	_fabsf
PUBLIC	_acosf
PUBLIC	_asinf
PUBLIC	_cosf
PUBLIC	?asin@@YAMM@Z					; asin
PUBLIC	?cos@@YAMM@Z					; cos
PUBLIC	?fabs@@YAMM@Z					; fabs
PUBLIC	??$Abs@M@@YAMM@Z				; Abs<float>
PUBLIC	??2@YAPAXIPAX@Z					; operator new
PUBLIC	??3@YAXPAX0@Z					; operator delete
PUBLIC	?length@?$char_traits@D@std@@SAIPBD@Z		; std::char_traits<char>::length
PUBLIC	?copy@?$char_traits@D@std@@SAPADPADPBDI@Z	; std::char_traits<char>::copy
PUBLIC	?move@?$char_traits@D@std@@SAPADPADPBDI@Z	; std::char_traits<char>::move
PUBLIC	?assign@?$char_traits@D@std@@SAXAADABD@Z	; std::char_traits<char>::assign
PUBLIC	??0logic_error@std@@QAE@PBD@Z			; std::logic_error::logic_error
PUBLIC	??1logic_error@std@@UAE@XZ			; std::logic_error::~logic_error
PUBLIC	??0logic_error@std@@QAE@ABV01@@Z		; std::logic_error::logic_error
PUBLIC	??_Glogic_error@std@@UAEPAXI@Z			; std::logic_error::`scalar deleting destructor'
PUBLIC	??0?$allocator@D@std@@QAE@XZ			; std::allocator<char>::allocator<char>
PUBLIC	?deallocate@?$allocator@D@std@@QAEXPADI@Z	; std::allocator<char>::deallocate
PUBLIC	?allocate@?$allocator@D@std@@QAEPADI@Z		; std::allocator<char>::allocate
PUBLIC	?max_size@?$allocator@D@std@@QBEIXZ		; std::allocator<char>::max_size
PUBLIC	?max_size@?$allocator_traits@V?$allocator@D@std@@@std@@SAIABV?$allocator@D@2@@Z ; std::allocator_traits<std::allocator<char> >::max_size
PUBLIC	??0?$_Wrap_alloc@V?$allocator@D@std@@@std@@QAE@XZ ; std::_Wrap_alloc<std::allocator<char> >::_Wrap_alloc<std::allocator<char> >
PUBLIC	?allocate@?$_Wrap_alloc@V?$allocator@D@std@@@std@@QAEPADI@Z ; std::_Wrap_alloc<std::allocator<char> >::allocate
PUBLIC	?deallocate@?$_Wrap_alloc@V?$allocator@D@std@@@std@@QAEXPADI@Z ; std::_Wrap_alloc<std::allocator<char> >::deallocate
PUBLIC	?max_size@?$_Wrap_alloc@V?$allocator@D@std@@@std@@QBEIXZ ; std::_Wrap_alloc<std::allocator<char> >::max_size
PUBLIC	??0?$_String_val@U?$_Simple_types@D@std@@@std@@QAE@XZ ; std::_String_val<std::_Simple_types<char> >::_String_val<std::_Simple_types<char> >
PUBLIC	?_Myptr@?$_String_val@U?$_Simple_types@D@std@@@std@@QAEPADXZ ; std::_String_val<std::_Simple_types<char> >::_Myptr
PUBLIC	?_Myptr@?$_String_val@U?$_Simple_types@D@std@@@std@@QBEPBDXZ ; std::_String_val<std::_Simple_types<char> >::_Myptr
PUBLIC	??0?$_String_alloc@$0A@U?$_String_base_types@DV?$allocator@D@std@@@std@@@std@@QAE@ABV?$allocator@D@1@@Z ; std::_String_alloc<0,std::_String_base_types<char,std::allocator<char> > >::_String_alloc<0,std::_String_base_types<char,std::allocator<char> > >
PUBLIC	?_Getal@?$_String_alloc@$0A@U?$_String_base_types@DV?$allocator@D@std@@@std@@@std@@QBE?AU?$_Wrap_alloc@V?$allocator@D@std@@@2@XZ ; std::_String_alloc<0,std::_String_base_types<char,std::allocator<char> > >::_Getal
PUBLIC	??0?$basic_string@DU?$char_traits@D@std@@V?$allocator@D@2@@std@@QAE@PBD@Z ; std::basic_string<char,std::char_traits<char>,std::allocator<char> >::basic_string<char,std::char_traits<char>,std::allocator<char> >
PUBLIC	??1?$basic_string@DU?$char_traits@D@std@@V?$allocator@D@2@@std@@QAE@XZ ; std::basic_string<char,std::char_traits<char>,std::allocator<char> >::~basic_string<char,std::char_traits<char>,std::allocator<char> >
PUBLIC	?assign@?$basic_string@DU?$char_traits@D@std@@V?$allocator@D@2@@std@@QAEAAV12@ABV12@II@Z ; std::basic_string<char,std::char_traits<char>,std::allocator<char> >::assign
PUBLIC	?assign@?$basic_string@DU?$char_traits@D@std@@V?$allocator@D@2@@std@@QAEAAV12@PBDI@Z ; std::basic_string<char,std::char_traits<char>,std::allocator<char> >::assign
PUBLIC	?assign@?$basic_string@DU?$char_traits@D@std@@V?$allocator@D@2@@std@@QAEAAV12@PBD@Z ; std::basic_string<char,std::char_traits<char>,std::allocator<char> >::assign
PUBLIC	?erase@?$basic_string@DU?$char_traits@D@std@@V?$allocator@D@2@@std@@QAEAAV12@I@Z ; std::basic_string<char,std::char_traits<char>,std::allocator<char> >::erase
PUBLIC	?erase@?$basic_string@DU?$char_traits@D@std@@V?$allocator@D@2@@std@@QAEAAV12@II@Z ; std::basic_string<char,std::char_traits<char>,std::allocator<char> >::erase
PUBLIC	?c_str@?$basic_string@DU?$char_traits@D@std@@V?$allocator@D@2@@std@@QBEPBDXZ ; std::basic_string<char,std::char_traits<char>,std::allocator<char> >::c_str
PUBLIC	?size@?$basic_string@DU?$char_traits@D@std@@V?$allocator@D@2@@std@@QBEIXZ ; std::basic_string<char,std::char_traits<char>,std::allocator<char> >::size
PUBLIC	?max_size@?$basic_string@DU?$char_traits@D@std@@V?$allocator@D@2@@std@@QBEIXZ ; std::basic_string<char,std::char_traits<char>,std::allocator<char> >::max_size
PUBLIC	?_Copy@?$basic_string@DU?$char_traits@D@std@@V?$allocator@D@2@@std@@QAEXII@Z ; std::basic_string<char,std::char_traits<char>,std::allocator<char> >::_Copy
PUBLIC	?_Eos@?$basic_string@DU?$char_traits@D@std@@V?$allocator@D@2@@std@@QAEXI@Z ; std::basic_string<char,std::char_traits<char>,std::allocator<char> >::_Eos
PUBLIC	?_Grow@?$basic_string@DU?$char_traits@D@std@@V?$allocator@D@2@@std@@QAE_NI_N@Z ; std::basic_string<char,std::char_traits<char>,std::allocator<char> >::_Grow
PUBLIC	?_Inside@?$basic_string@DU?$char_traits@D@std@@V?$allocator@D@2@@std@@QAE_NPBD@Z ; std::basic_string<char,std::char_traits<char>,std::allocator<char> >::_Inside
PUBLIC	?_Tidy@?$basic_string@DU?$char_traits@D@std@@V?$allocator@D@2@@std@@QAEX_NI@Z ; std::basic_string<char,std::char_traits<char>,std::allocator<char> >::_Tidy
PUBLIC	?_Xlen@?$basic_string@DU?$char_traits@D@std@@V?$allocator@D@2@@std@@QBEXXZ ; std::basic_string<char,std::char_traits<char>,std::allocator<char> >::_Xlen
PUBLIC	?_Xran@?$basic_string@DU?$char_traits@D@std@@V?$allocator@D@2@@std@@QBEXXZ ; std::basic_string<char,std::char_traits<char>,std::allocator<char> >::_Xran
PUBLIC	??0out_of_range@std@@QAE@ABV?$basic_string@DU?$char_traits@D@std@@V?$allocator@D@2@@1@@Z ; std::out_of_range::out_of_range
PUBLIC	??1out_of_range@std@@UAE@XZ			; std::out_of_range::~out_of_range
PUBLIC	??0out_of_range@std@@QAE@ABV01@@Z		; std::out_of_range::out_of_range
PUBLIC	??_Gout_of_range@std@@UAEPAXI@Z			; std::out_of_range::`scalar deleting destructor'
PUBLIC	??0id@locale@std@@QAE@I@Z			; std::locale::id::id
PUBLIC	?generic_category@std@@YAABVerror_category@1@XZ	; std::generic_category
PUBLIC	?system_category@std@@YAABVerror_category@1@XZ	; std::system_category
PUBLIC	??0error_category@std@@QAE@XZ			; std::error_category::error_category
PUBLIC	??1error_category@std@@UAE@XZ			; std::error_category::~error_category
PUBLIC	?default_error_condition@error_category@std@@UBE?AVerror_condition@2@H@Z ; std::error_category::default_error_condition
PUBLIC	?equivalent@error_category@std@@UBE_NHABVerror_condition@2@@Z ; std::error_category::equivalent
PUBLIC	?equivalent@error_category@std@@UBE_NABVerror_code@2@H@Z ; std::error_category::equivalent
PUBLIC	??8error_category@std@@QBE_NABV01@@Z		; std::error_category::operator==
PUBLIC	??_Gerror_category@std@@UAEPAXI@Z		; std::error_category::`scalar deleting destructor'
PUBLIC	?value@error_code@std@@QBEHXZ			; std::error_code::value
PUBLIC	?category@error_code@std@@QBEABVerror_category@2@XZ ; std::error_code::category
PUBLIC	??0error_condition@std@@QAE@HABVerror_category@1@@Z ; std::error_condition::error_condition
PUBLIC	?value@error_condition@std@@QBEHXZ		; std::error_condition::value
PUBLIC	?category@error_condition@std@@QBEABVerror_category@2@XZ ; std::error_condition::category
PUBLIC	??8error_condition@std@@QBE_NABV01@@Z		; std::error_condition::operator==
PUBLIC	??0_Generic_error_category@std@@QAE@XZ		; std::_Generic_error_category::_Generic_error_category
PUBLIC	?name@_Generic_error_category@std@@UBEPBDXZ	; std::_Generic_error_category::name
PUBLIC	?message@_Generic_error_category@std@@UBE?AV?$basic_string@DU?$char_traits@D@std@@V?$allocator@D@2@@2@H@Z ; std::_Generic_error_category::message
PUBLIC	??1_Generic_error_category@std@@UAE@XZ		; std::_Generic_error_category::~_Generic_error_category
PUBLIC	??_G_Generic_error_category@std@@UAEPAXI@Z	; std::_Generic_error_category::`scalar deleting destructor'
PUBLIC	??0_Iostream_error_category@std@@QAE@XZ		; std::_Iostream_error_category::_Iostream_error_category
PUBLIC	?name@_Iostream_error_category@std@@UBEPBDXZ	; std::_Iostream_error_category::name
PUBLIC	?message@_Iostream_error_category@std@@UBE?AV?$basic_string@DU?$char_traits@D@std@@V?$allocator@D@2@@2@H@Z ; std::_Iostream_error_category::message
PUBLIC	??1_Iostream_error_category@std@@UAE@XZ		; std::_Iostream_error_category::~_Iostream_error_category
PUBLIC	??_G_Iostream_error_category@std@@UAEPAXI@Z	; std::_Iostream_error_category::`scalar deleting destructor'
PUBLIC	??0_System_error_category@std@@QAE@XZ		; std::_System_error_category::_System_error_category
PUBLIC	?name@_System_error_category@std@@UBEPBDXZ	; std::_System_error_category::name
PUBLIC	?message@_System_error_category@std@@UBE?AV?$basic_string@DU?$char_traits@D@std@@V?$allocator@D@2@@2@H@Z ; std::_System_error_category::message
PUBLIC	?default_error_condition@_System_error_category@std@@UBE?AVerror_condition@2@H@Z ; std::_System_error_category::default_error_condition
PUBLIC	??1_System_error_category@std@@UAE@XZ		; std::_System_error_category::~_System_error_category
PUBLIC	??_G_System_error_category@std@@UAEPAXI@Z	; std::_System_error_category::`scalar deleting destructor'
PUBLIC	?GetNumSwitches@DrawableBSP@@QAEHXZ		; DrawableBSP::GetNumSwitches
PUBLIC	?SetYPR@VuEntity@@QAEXMMM@Z			; VuEntity::SetYPR
PUBLIC	?SetYPRDelta@VuEntity@@QAEXMMM@Z		; VuEntity::SetYPRDelta
PUBLIC	?Id@VuEntity@@QBE?AVVU_ID@@XZ			; VuEntity::Id
PUBLIC	?Type@VuEntity@@QBEGXZ				; VuEntity::Type
PUBLIC	?XPos@VuEntity@@QBEMXZ				; VuEntity::XPos
PUBLIC	?YPos@VuEntity@@QBEMXZ				; VuEntity::YPos
PUBLIC	?ZPos@VuEntity@@QBEMXZ				; VuEntity::ZPos
PUBLIC	?XDelta@VuEntity@@QBEMXZ			; VuEntity::XDelta
PUBLIC	?YDelta@VuEntity@@QBEMXZ			; VuEntity::YDelta
PUBLIC	?ZDelta@VuEntity@@QBEMXZ			; VuEntity::ZDelta
PUBLIC	?Yaw@VuEntity@@QBEMXZ				; VuEntity::Yaw
PUBLIC	?Pitch@VuEntity@@QBEMXZ				; VuEntity::Pitch
PUBLIC	?Roll@VuEntity@@QBEMXZ				; VuEntity::Roll
PUBLIC	?EntityType@VuEntity@@QBEPAUVuEntityType@@XZ	; VuEntity::EntityType
PUBLIC	??B?$VuBin@VVuSessionEntity@@@@QBE_NXZ		; VuBin<VuSessionEntity>::operator bool
PUBLIC	?get@?$VuBin@VVuSessionEntity@@@@QBEPAVVuSessionEntity@@XZ ; VuBin<VuSessionEntity>::get
PUBLIC	?RequestReliableTransmit@VuMessage@@QAEXXZ	; VuMessage::RequestReliableTransmit
PUBLIC	?RequestOutOfBandTransmit@VuMessage@@QAEXXZ	; VuMessage::RequestOutOfBandTransmit
PUBLIC	?IsCampBase@FalconEntity@@UAE_NXZ		; FalconEntity::IsCampBase
PUBLIC	?IsSim@FalconEntity@@QAEHXZ			; FalconEntity::IsSim
PUBLIC	?IsSetFalcFlag@FalconEntity@@QAEHH@Z		; FalconEntity::IsSetFalcFlag
PUBLIC	?IsPlayer@FalconEntity@@QAEHXZ			; FalconEntity::IsPlayer
PUBLIC	?GetRadarMode@FalconEntity@@UAEHXZ		; FalconEntity::GetRadarMode
PUBLIC	?SetRadarMode@FalconEntity@@UAEXE@Z		; FalconEntity::SetRadarMode
PUBLIC	?ReturnToSearch@FalconEntity@@UAEXXZ		; FalconEntity::ReturnToSearch
PUBLIC	?SetSearchMode@FalconEntity@@UAEXE@Z		; FalconEntity::SetSearchMode
PUBLIC	?CombatClass@FalconEntity@@UAEHXZ		; FalconEntity::CombatClass
PUBLIC	?HasEntity@FalconEntity@@UBEHPAVVuEntity@@@Z	; FalconEntity::HasEntity
PUBLIC	?IsMissile@FalconEntity@@UAEHXZ			; FalconEntity::IsMissile
PUBLIC	?IsGun@FalconEntity@@UAEHXZ			; FalconEntity::IsGun
PUBLIC	?IsVehicle@FalconEntity@@UAEHXZ			; FalconEntity::IsVehicle
PUBLIC	?IsStatic@FalconEntity@@UAEHXZ			; FalconEntity::IsStatic
PUBLIC	?IsHelicopter@FalconEntity@@UAEHXZ		; FalconEntity::IsHelicopter
PUBLIC	?IsEject@FalconEntity@@UAEHXZ			; FalconEntity::IsEject
PUBLIC	?IsAirplane@FalconEntity@@UAEHXZ		; FalconEntity::IsAirplane
PUBLIC	?IsGroundVehicle@FalconEntity@@UAEHXZ		; FalconEntity::IsGroundVehicle
PUBLIC	?IsShip@FalconEntity@@UAEHXZ			; FalconEntity::IsShip
PUBLIC	?IsDead@FalconEntity@@UAEHXZ			; FalconEntity::IsDead
PUBLIC	?IsEmitting@FalconEntity@@UAEHXZ		; FalconEntity::IsEmitting
PUBLIC	?IsUnit@FalconEntity@@UAEHXZ			; FalconEntity::IsUnit
PUBLIC	?IsObjective@FalconEntity@@UAEHXZ		; FalconEntity::IsObjective
PUBLIC	?IsBattalion@FalconEntity@@UAEHXZ		; FalconEntity::IsBattalion
PUBLIC	?IsBrigade@FalconEntity@@UAEHXZ			; FalconEntity::IsBrigade
PUBLIC	?IsFlight@FalconEntity@@UBEHXZ			; FalconEntity::IsFlight
PUBLIC	?IsSquadron@FalconEntity@@UAEHXZ		; FalconEntity::IsSquadron
PUBLIC	?IsPackage@FalconEntity@@UAEHXZ			; FalconEntity::IsPackage
PUBLIC	?IsTeam@FalconEntity@@UAEHXZ			; FalconEntity::IsTeam
PUBLIC	?IsTaskForce@FalconEntity@@UAEHXZ		; FalconEntity::IsTaskForce
PUBLIC	?GetRCSFactor@FalconEntity@@UAEMXZ		; FalconEntity::GetRCSFactor
PUBLIC	?GetIRFactor@FalconEntity@@UAEMXZ		; FalconEntity::GetIRFactor
PUBLIC	?SetAQUIREtimer@FalconEntity@@UAEXK@Z		; FalconEntity::SetAQUIREtimer
PUBLIC	?SetSEARCHtimer@FalconEntity@@UAEXK@Z		; FalconEntity::SetSEARCHtimer
PUBLIC	?SetStepSearchMode@FalconEntity@@UAEXE@Z	; FalconEntity::SetStepSearchMode
PUBLIC	?GetAQUIREtimer@FalconEntity@@UAEKXZ		; FalconEntity::GetAQUIREtimer
PUBLIC	?GetSEARCHtimer@FalconEntity@@UAEKXZ		; FalconEntity::GetSEARCHtimer
PUBLIC	?mlSinCos@@YAXPAUmlTrig@@M@Z			; mlSinCos
PUBLIC	?checked_atan2@@YANNN@Z				; checked_atan2
PUBLIC	?get@?$VuBin@VCampBaseClass@@@@QBEPAVCampBaseClass@@XZ ; VuBin<CampBaseClass>::get
PUBLIC	?JoinFlight@SimBaseClass@@UAEXXZ		; SimBaseClass::JoinFlight
PUBLIC	?IsSimBase@SimBaseClass@@UAE_NXZ		; SimBaseClass::IsSimBase
PUBLIC	?GetCountry@SimBaseClass@@UAEEXZ		; SimBaseClass::GetCountry
PUBLIC	?OnGround@SimBaseClass@@UAEHXZ			; SimBaseClass::OnGround
PUBLIC	?IsExploding@SimBaseClass@@UAEHXZ		; SimBaseClass::IsExploding
PUBLIC	?IsDead@SimBaseClass@@UBEHXZ			; SimBaseClass::IsDead
PUBLIC	?IsAwake@SimBaseClass@@QBEHXZ			; SimBaseClass::IsAwake
PUBLIC	?IsSetFlag@SimBaseClass@@QBEHH@Z		; SimBaseClass::IsSetFlag
PUBLIC	?IsSetCampaignFlag@SimBaseClass@@QBEHH@Z	; SimBaseClass::IsSetCampaignFlag
PUBLIC	?GetCampaignObject@SimBaseClass@@QAEPAVCampBaseClass@@XZ ; SimBaseClass::GetCampaignObject
PUBLIC	?MakePlayerVehicle@SimBaseClass@@UAEXXZ		; SimBaseClass::MakePlayerVehicle
PUBLIC	?MakeNonPlayerVehicle@SimBaseClass@@UAEXXZ	; SimBaseClass::MakeNonPlayerVehicle
PUBLIC	?ConfigurePlayerAvionics@SimBaseClass@@UAEXXZ	; SimBaseClass::ConfigurePlayerAvionics
PUBLIC	?Regenerate@SimBaseClass@@UAEXMMMM@Z		; SimBaseClass::Regenerate
PUBLIC	?Mass@SimBaseClass@@UAEMXZ			; SimBaseClass::Mass
PUBLIC	??7?$VuBin@VFalconEntity@@@@QBE_NXZ		; VuBin<FalconEntity>::operator!
PUBLIC	??B?$VuBin@VFalconEntity@@@@QBE_NXZ		; VuBin<FalconEntity>::operator bool
PUBLIC	??C?$VuBin@VFalconEntity@@@@QBEPAVFalconEntity@@XZ ; VuBin<FalconEntity>::operator->
PUBLIC	?get@?$VuBin@VFalconEntity@@@@QBEPAVFalconEntity@@XZ ; VuBin<FalconEntity>::get
PUBLIC	?SetLead@SimMoverClass@@UAEXH@Z			; SimMoverClass::SetLead
PUBLIC	?WeaponKeepAlive@SimMoverClass@@UAEXXZ		; SimMoverClass::WeaponKeepAlive
PUBLIC	?IsMover@SimMoverClass@@UAEHXZ			; SimMoverClass::IsMover
PUBLIC	?IsWeapon@SimWeaponClass@@UAEHXZ		; SimWeaponClass::IsWeapon
PUBLIC	?LaunchDelayTime@SimWeaponClass@@UAEHXZ		; SimWeaponClass::LaunchDelayTime
PUBLIC	?UpdateTrail@BombClass@@MAEXXZ			; BombClass::UpdateTrail
PUBLIC	?RemoveTrail@BombClass@@MAEXXZ			; BombClass::RemoveTrail
PUBLIC	?InitTrail@BombClass@@MAEXXZ			; BombClass::InitTrail
PUBLIC	?DoExplosion@BombClass@@MAEXXZ			; BombClass::DoExplosion
PUBLIC	?ApplyProximityDamage@BombClass@@IAEXMM@Z	; BombClass::ApplyProximityDamage
PUBLIC	?ExtraGraphics@BombClass@@MAEXXZ		; BombClass::ExtraGraphics
PUBLIC	?SpecialGraphics@BombClass@@MAEXXZ		; BombClass::SpecialGraphics
PUBLIC	??0BombClass@@QAE@PAPAEPAJ@Z			; BombClass::BombClass
PUBLIC	??0BombClass@@QAE@PAU_iobuf@@@Z			; BombClass::BombClass
PUBLIC	??0BombClass@@QAE@HW4BombType@0@@Z		; BombClass::BombClass
PUBLIC	??1BombClass@@UAE@XZ				; BombClass::~BombClass
PUBLIC	?InitData@BombClass@@UAEXXZ			; BombClass::InitData
PUBLIC	?CleanupData@BombClass@@UAEXXZ			; BombClass::CleanupData
PUBLIC	?InitLocalData@BombClass@@AAEXW4BombType@1@@Z	; BombClass::InitLocalData
PUBLIC	?CleanupLocalData@BombClass@@AAEXXZ		; BombClass::CleanupLocalData
PUBLIC	?SaveSize@BombClass@@UAEHXZ			; BombClass::SaveSize
PUBLIC	?Save@BombClass@@UAEHPAPAE@Z			; BombClass::Save
PUBLIC	?Save@BombClass@@UAEHPAU_iobuf@@@Z		; BombClass::Save
PUBLIC	?Wake@BombClass@@UAEHXZ				; BombClass::Wake
PUBLIC	?Sleep@BombClass@@UAEHXZ			; BombClass::Sleep
PUBLIC	?Start@BombClass@@UAEXPAUvector@@0MPAVSimObjectType@@@Z ; BombClass::Start
PUBLIC	?Init@BombClass@@UAEXXZ				; BombClass::Init
PUBLIC	?Init@BombClass@@UAEXPAVSimInitDataClass@@@Z	; BombClass::Init
PUBLIC	?Exec@BombClass@@UAEHXZ				; BombClass::Exec
PUBLIC	?GetTransform@BombClass@@UAEXQAY02M@Z		; BombClass::GetTransform
PUBLIC	?SetTarget@BombClass@@QAEXPAVSimObjectType@@@Z	; BombClass::SetTarget
PUBLIC	?SetVuPosition@BombClass@@UAEXXZ		; BombClass::SetVuPosition
PUBLIC	?IsBomb@BombClass@@UAEHXZ			; BombClass::IsBomb
PUBLIC	?IsUseable@BombClass@@UAEHXZ			; BombClass::IsUseable
PUBLIC	?CreateGfx@BombClass@@UAEXXZ			; BombClass::CreateGfx
PUBLIC	?DestroyGfx@BombClass@@UAEXXZ			; BombClass::DestroyGfx
PUBLIC	?GetJDAMLift@BombClass@@QAEMXZ			; BombClass::GetJDAMLift
PUBLIC	?GetJSOWmaxRange@BombClass@@QAEMXZ		; BombClass::GetJSOWmaxRange
PUBLIC	??_GBombClass@@UAEPAXI@Z			; BombClass::`scalar deleting destructor'
PUBLIC	?BaseData@SimObjectType@@QAEPAVFalconEntity@@XZ	; SimObjectType::BaseData
PUBLIC	?GetGame@FalconSessionEntity@@QAEPAVFalconGameEntity@@XZ ; FalconSessionEntity::GetGame
PUBLIC	?AutopilotType@AircraftClass@@QAE?AW4AutoPilotType@1@XZ ; AircraftClass::AutopilotType
PUBLIC	?IsDigital@AircraftClass@@QAEHXZ		; AircraftClass::IsDigital
PUBLIC	??0InvalidBufferException@@QAE@ABV?$basic_string@DU?$char_traits@D@std@@V?$allocator@D@2@@std@@@Z ; InvalidBufferException::InvalidBufferException
PUBLIC	??1InvalidBufferException@@UAE@XZ		; InvalidBufferException::~InvalidBufferException
PUBLIC	??0InvalidBufferException@@QAE@ABV0@@Z		; InvalidBufferException::InvalidBufferException
PUBLIC	??_GInvalidBufferException@@UAEPAXI@Z		; InvalidBufferException::`scalar deleting destructor'
PUBLIC	?memcpychk@@YAXPAXPAPAEIPAJ@Z			; memcpychk
PUBLIC	?GetComponents@CampBaseClass@@QBEPAVTailInsertList@@XZ ; CampBaseClass::GetComponents
PUBLIC	?IsAggregate@CampBaseClass@@QAEHXZ		; CampBaseClass::IsAggregate
PUBLIC	?MotionOn@SimulationDriver@@QAEHXZ		; SimulationDriver::MotionOn
PUBLIC	?IsRecording@ACMIRecorder@@QAEHXZ		; ACMIRecorder::IsRecording
PUBLIC	?GetColor@TeamClass@@QAEHXZ			; TeamClass::GetColor
PUBLIC	??$?8VFalconEntity@@@@YA_NPBXABV?$VuBin@VFalconEntity@@@@@Z ; operator==<FalconEntity>
PUBLIC	??$construct@PADAAPAD@?$_Wrap_alloc@V?$allocator@D@std@@@std@@QAEXPAPADAAPAD@Z ; std::_Wrap_alloc<std::allocator<char> >::construct<char *,char * &>
PUBLIC	??$destroy@PAD@?$_Wrap_alloc@V?$allocator@D@std@@@std@@QAEXPAPAD@Z ; std::_Wrap_alloc<std::allocator<char> >::destroy<char *>
PUBLIC	??$addressof@D@std@@YAPADAAD@Z			; std::addressof<char>
PUBLIC	??$_Allocate@D@std@@YAPADIPAD@Z			; std::_Allocate<char>
PUBLIC	??$forward@AAPAD@std@@YAAAPADAAPAD@Z		; std::forward<char * &>
PUBLIC	??$construct@PADAAPAD@?$allocator_traits@V?$allocator@D@std@@@std@@SAXAAV?$allocator@D@1@PAPADAAPAD@Z ; std::allocator_traits<std::allocator<char> >::construct<char *,char * &>
PUBLIC	??$destroy@PAD@?$allocator_traits@V?$allocator@D@std@@@std@@SAXAAV?$allocator@D@1@PAPAD@Z ; std::allocator_traits<std::allocator<char> >::destroy<char *>
PUBLIC	??$construct@PADAAPAD@?$allocator@D@std@@QAEXPAPADAAPAD@Z ; std::allocator<char>::construct<char *,char * &>
PUBLIC	??$destroy@PAD@?$allocator@D@std@@QAEXPAPAD@Z	; std::allocator<char>::destroy<char *>
PUBLIC	??_7logic_error@std@@6B@			; std::logic_error::`vftable'
PUBLIC	??_7out_of_range@std@@6B@			; std::out_of_range::`vftable'
PUBLIC	??_R0?AVexception@std@@@8			; std::exception `RTTI Type Descriptor'
PUBLIC	__CT??_R0?AVexception@std@@@8??0exception@std@@QAE@ABV01@@Z12
PUBLIC	??_7error_category@std@@6B@			; std::error_category::`vftable'
PUBLIC	??_7_Generic_error_category@std@@6B@		; std::_Generic_error_category::`vftable'
PUBLIC	??_C@_07DCLBNMLN@generic?$AA@			; `string'
PUBLIC	??_C@_0O@BFJCFAAK@unknown?5error?$AA@		; `string'
PUBLIC	??_7_Iostream_error_category@std@@6B@		; std::_Iostream_error_category::`vftable'
PUBLIC	??_C@_08LLGCOLLL@iostream?$AA@			; `string'
PUBLIC	??_C@_0BG@PADBLCHM@iostream?5stream?5error?$AA@	; `string'
PUBLIC	??_7_System_error_category@std@@6B@		; std::_System_error_category::`vftable'
PUBLIC	??_C@_06FHFOAHML@system?$AA@			; `string'
PUBLIC	?_Generic_object@?$_Error_objects@H@std@@2V_Generic_error_category@2@A ; std::_Error_objects<int>::_Generic_object
PUBLIC	?_Iostream_object@?$_Error_objects@H@std@@2V_Iostream_error_category@2@A ; std::_Error_objects<int>::_Iostream_object
PUBLIC	?_System_object@?$_Error_objects@H@std@@2V_System_error_category@2@A ; std::_Error_objects<int>::_System_object
PUBLIC	?id@?$num_put@DV?$back_insert_iterator@V?$basic_string@DU?$char_traits@D@std@@V?$allocator@D@2@@std@@@std@@@std@@2V0locale@2@A ; std::num_put<char,std::back_insert_iterator<std::basic_string<char,std::char_traits<char>,std::allocator<char> > > >::id
PUBLIC	?id@?$num_put@_WV?$back_insert_iterator@V?$basic_string@_WU?$char_traits@_W@std@@V?$allocator@_W@2@@std@@@std@@@std@@2V0locale@2@A ; std::num_put<wchar_t,std::back_insert_iterator<std::basic_string<wchar_t,std::char_traits<wchar_t>,std::allocator<wchar_t> > > >::id
PUBLIC	??_7BombClass@@6B@				; BombClass::`vftable'
PUBLIC	??_7InvalidBufferException@@6B@			; InvalidBufferException::`vftable'
PUBLIC	??_C@_0CI@MPKJAHJH@Trying?5to?5write?5?$CFlu?5bytes?5to?5?$CFld@ ; `string'
PUBLIC	__TI4?AVInvalidBufferException@@
PUBLIC	__CTA4?AVInvalidBufferException@@
PUBLIC	??_R0?AVInvalidBufferException@@@8		; InvalidBufferException `RTTI Type Descriptor'
PUBLIC	__CT??_R0?AVInvalidBufferException@@@8??0InvalidBufferException@@QAE@ABV0@@Z12
PUBLIC	??_R0?AVout_of_range@std@@@8			; std::out_of_range `RTTI Type Descriptor'
PUBLIC	__CT??_R0?AVout_of_range@std@@@8??0out_of_range@std@@QAE@ABV01@@Z12
PUBLIC	??_R0?AVlogic_error@std@@@8			; std::logic_error `RTTI Type Descriptor'
PUBLIC	__CT??_R0?AVlogic_error@std@@@8??0logic_error@std@@QAE@ABV01@@Z12
PUBLIC	??_C@_0BN@LNGNKG@JSOWtgtID?3?5?$CFd?5?5X?$DN?5?$CFf?5?5Y?$DN?5?$CFf?6?$AA@ ; `string'
PUBLIC	?id@?$numpunct@D@std@@2V0locale@2@A		; std::numpunct<char>::id
PUBLIC	?id@?$numpunct@_W@std@@2V0locale@2@A		; std::numpunct<wchar_t>::id
PUBLIC	??_C@_0BI@CFPLBAOH@invalid?5string?5position?$AA@ ; `string'
PUBLIC	??_C@_0BA@JFNIOLAK@string?5too?5long?$AA@	; `string'
PUBLIC	??_R1A@?0A@EA@exception@std@@8			; std::exception::`RTTI Base Class Descriptor at (0,-1,0,64)'
PUBLIC	??_R3exception@std@@8				; std::exception::`RTTI Class Hierarchy Descriptor'
PUBLIC	??_R2exception@std@@8				; std::exception::`RTTI Base Class Array'
PUBLIC	??_R4logic_error@std@@6B@			; std::logic_error::`RTTI Complete Object Locator'
PUBLIC	??_R3logic_error@std@@8				; std::logic_error::`RTTI Class Hierarchy Descriptor'
PUBLIC	??_R2logic_error@std@@8				; std::logic_error::`RTTI Base Class Array'
PUBLIC	??_R1A@?0A@EA@logic_error@std@@8		; std::logic_error::`RTTI Base Class Descriptor at (0,-1,0,64)'
PUBLIC	??_R4out_of_range@std@@6B@			; std::out_of_range::`RTTI Complete Object Locator'
PUBLIC	??_R3out_of_range@std@@8			; std::out_of_range::`RTTI Class Hierarchy Descriptor'
PUBLIC	??_R2out_of_range@std@@8			; std::out_of_range::`RTTI Base Class Array'
PUBLIC	??_R1A@?0A@EA@out_of_range@std@@8		; std::out_of_range::`RTTI Base Class Descriptor at (0,-1,0,64)'
PUBLIC	??_R4error_category@std@@6B@			; std::error_category::`RTTI Complete Object Locator'
PUBLIC	??_R0?AVerror_category@std@@@8			; std::error_category `RTTI Type Descriptor'
PUBLIC	??_R3error_category@std@@8			; std::error_category::`RTTI Class Hierarchy Descriptor'
PUBLIC	??_R2error_category@std@@8			; std::error_category::`RTTI Base Class Array'
PUBLIC	??_R1A@?0A@EA@error_category@std@@8		; std::error_category::`RTTI Base Class Descriptor at (0,-1,0,64)'
PUBLIC	??_R4_Generic_error_category@std@@6B@		; std::_Generic_error_category::`RTTI Complete Object Locator'
PUBLIC	??_R0?AV_Generic_error_category@std@@@8		; std::_Generic_error_category `RTTI Type Descriptor'
PUBLIC	??_R3_Generic_error_category@std@@8		; std::_Generic_error_category::`RTTI Class Hierarchy Descriptor'
PUBLIC	??_R2_Generic_error_category@std@@8		; std::_Generic_error_category::`RTTI Base Class Array'
PUBLIC	??_R1A@?0A@EA@_Generic_error_category@std@@8	; std::_Generic_error_category::`RTTI Base Class Descriptor at (0,-1,0,64)'
PUBLIC	??_R4_Iostream_error_category@std@@6B@		; std::_Iostream_error_category::`RTTI Complete Object Locator'
PUBLIC	??_R0?AV_Iostream_error_category@std@@@8	; std::_Iostream_error_category `RTTI Type Descriptor'
PUBLIC	??_R3_Iostream_error_category@std@@8		; std::_Iostream_error_category::`RTTI Class Hierarchy Descriptor'
PUBLIC	??_R2_Iostream_error_category@std@@8		; std::_Iostream_error_category::`RTTI Base Class Array'
PUBLIC	??_R1A@?0A@EA@_Iostream_error_category@std@@8	; std::_Iostream_error_category::`RTTI Base Class Descriptor at (0,-1,0,64)'
PUBLIC	??_R4_System_error_category@std@@6B@		; std::_System_error_category::`RTTI Complete Object Locator'
PUBLIC	??_R0?AV_System_error_category@std@@@8		; std::_System_error_category `RTTI Type Descriptor'
PUBLIC	??_R3_System_error_category@std@@8		; std::_System_error_category::`RTTI Class Hierarchy Descriptor'
PUBLIC	??_R2_System_error_category@std@@8		; std::_System_error_category::`RTTI Base Class Array'
PUBLIC	??_R1A@?0A@EA@_System_error_category@std@@8	; std::_System_error_category::`RTTI Base Class Descriptor at (0,-1,0,64)'
PUBLIC	??_R4BombClass@@6B@				; BombClass::`RTTI Complete Object Locator'
PUBLIC	??_R0?AVBombClass@@@8				; BombClass `RTTI Type Descriptor'
PUBLIC	??_R3BombClass@@8				; BombClass::`RTTI Class Hierarchy Descriptor'
PUBLIC	??_R2BombClass@@8				; BombClass::`RTTI Base Class Array'
PUBLIC	??_R1A@?0A@EA@BombClass@@8			; BombClass::`RTTI Base Class Descriptor at (0,-1,0,64)'
PUBLIC	??_R1A@?0A@EA@SimWeaponClass@@8			; SimWeaponClass::`RTTI Base Class Descriptor at (0,-1,0,64)'
PUBLIC	??_R0?AVSimWeaponClass@@@8			; SimWeaponClass `RTTI Type Descriptor'
PUBLIC	??_R3SimWeaponClass@@8				; SimWeaponClass::`RTTI Class Hierarchy Descriptor'
PUBLIC	??_R2SimWeaponClass@@8				; SimWeaponClass::`RTTI Base Class Array'
PUBLIC	??_R1A@?0A@EA@SimMoverClass@@8			; SimMoverClass::`RTTI Base Class Descriptor at (0,-1,0,64)'
PUBLIC	??_R0?AVSimMoverClass@@@8			; SimMoverClass `RTTI Type Descriptor'
PUBLIC	??_R3SimMoverClass@@8				; SimMoverClass::`RTTI Class Hierarchy Descriptor'
PUBLIC	??_R2SimMoverClass@@8				; SimMoverClass::`RTTI Base Class Array'
PUBLIC	??_R1A@?0A@EA@SimBaseClass@@8			; SimBaseClass::`RTTI Base Class Descriptor at (0,-1,0,64)'
PUBLIC	??_R0?AVSimBaseClass@@@8			; SimBaseClass `RTTI Type Descriptor'
PUBLIC	??_R3SimBaseClass@@8				; SimBaseClass::`RTTI Class Hierarchy Descriptor'
PUBLIC	??_R2SimBaseClass@@8				; SimBaseClass::`RTTI Base Class Array'
PUBLIC	??_R1A@?0A@EA@FalconEntity@@8			; FalconEntity::`RTTI Base Class Descriptor at (0,-1,0,64)'
PUBLIC	??_R0?AVFalconEntity@@@8			; FalconEntity `RTTI Type Descriptor'
PUBLIC	??_R3FalconEntity@@8				; FalconEntity::`RTTI Class Hierarchy Descriptor'
PUBLIC	??_R2FalconEntity@@8				; FalconEntity::`RTTI Base Class Array'
PUBLIC	??_R1A@?0A@EA@VuEntity@@8			; VuEntity::`RTTI Base Class Descriptor at (0,-1,0,64)'
PUBLIC	??_R0?AVVuEntity@@@8				; VuEntity `RTTI Type Descriptor'
PUBLIC	??_R3VuEntity@@8				; VuEntity::`RTTI Class Hierarchy Descriptor'
PUBLIC	??_R2VuEntity@@8				; VuEntity::`RTTI Base Class Array'
PUBLIC	??_R4InvalidBufferException@@6B@		; InvalidBufferException::`RTTI Complete Object Locator'
PUBLIC	??_R3InvalidBufferException@@8			; InvalidBufferException::`RTTI Class Hierarchy Descriptor'
PUBLIC	??_R2InvalidBufferException@@8			; InvalidBufferException::`RTTI Base Class Array'
PUBLIC	??_R1A@?0A@EA@InvalidBufferException@@8		; InvalidBufferException::`RTTI Base Class Descriptor at (0,-1,0,64)'
PUBLIC	__real@00000000
PUBLIC	__real@0000000000000000
PUBLIC	__real@3a83126f
PUBLIC	__real@3dcccccd
PUBLIC	__real@3e4ccccd
PUBLIC	__real@3ea0d97a
PUBLIC	__real@3f490fd9
PUBLIC	__real@3f4ccccd
PUBLIC	__real@3f666666
PUBLIC	__real@3f800000
PUBLIC	__real@3f866666
PUBLIC	__real@3ff921fb54442d18
PUBLIC	__real@40000000
PUBLIC	__real@400921fb54442d18
PUBLIC	__real@40600000
PUBLIC	__real@40a00000
PUBLIC	__real@41200000
PUBLIC	__real@41a75205
PUBLIC	__real@4200b53f
PUBLIC	__real@4280b53f
PUBLIC	__real@43340000
PUBLIC	__real@437a0000
PUBLIC	__real@43fa0000
PUBLIC	__real@447a0000
PUBLIC	__real@44fa0000
PUBLIC	__real@451c4000
PUBLIC	__real@453b8000
PUBLIC	__real@45bde1b0
PUBLIC	__real@46fffe00
PUBLIC	__real@476d5a1c
PUBLIC	__real@8000000000000000
PUBLIC	__real@bf666666
PUBLIC	__real@bff921fb54442d18
PUBLIC	__real@c4480000
PUBLIC	__xmm@41f00000000000000000000000000000
PUBLIC	__xmm@80000000800000008000000080000000
EXTRN	__purecall:PROC
EXTRN	??2@YAPAXI@Z:PROC				; operator new
EXTRN	??3@YAXPAX@Z:PROC				; operator delete
EXTRN	_atexit:PROC
EXTRN	_acos:PROC
EXTRN	_asin:PROC
EXTRN	_atan:PROC
EXTRN	_cos:PROC
EXTRN	_fabs:PROC
EXTRN	_rand:PROC
EXTRN	_memcpy:PROC
EXTRN	_strlen:PROC
EXTRN	_memmove:PROC
EXTRN	_fflush:PROC
EXTRN	_fprintf:PROC
EXTRN	_fread:PROC
EXTRN	_fwrite:PROC
EXTRN	_sprintf:PROC
EXTRN	??0exception@std@@QAE@ABQBD@Z:PROC		; std::exception::exception
EXTRN	??0exception@std@@QAE@ABV01@@Z:PROC		; std::exception::exception
EXTRN	??1exception@std@@UAE@XZ:PROC			; std::exception::~exception
EXTRN	?what@exception@std@@UBEPBDXZ:PROC		; std::exception::what
EXTRN	?_Xbad_alloc@std@@YAXXZ:PROC			; std::_Xbad_alloc
EXTRN	?_Xlength_error@std@@YAXPBD@Z:PROC		; std::_Xlength_error
EXTRN	?_Xout_of_range@std@@YAXPBD@Z:PROC		; std::_Xout_of_range
EXTRN	??_Elogic_error@std@@UAEPAXI@Z:PROC		; std::logic_error::`vector deleting destructor'
EXTRN	??_Eout_of_range@std@@UAEPAXI@Z:PROC		; std::out_of_range::`vector deleting destructor'
EXTRN	??_Eerror_category@std@@UAEPAXI@Z:PROC		; std::error_category::`vector deleting destructor'
EXTRN	?_Syserror_map@std@@YAPBDH@Z:PROC		; std::_Syserror_map
EXTRN	?_Winerror_map@std@@YAPBDH@Z:PROC		; std::_Winerror_map
EXTRN	??_E_Generic_error_category@std@@UAEPAXI@Z:PROC	; std::_Generic_error_category::`vector deleting destructor'
EXTRN	??_E_Iostream_error_category@std@@UAEPAXI@Z:PROC ; std::_Iostream_error_category::`vector deleting destructor'
EXTRN	??_E_System_error_category@std@@UAEPAXI@Z:PROC	; std::_System_error_category::`vector deleting destructor'
EXTRN	?SetSwitchMask@DrawableBSP@@QAEXHK@Z:PROC	; DrawableBSP::SetSwitchMask
EXTRN	?F4IsBadReadPtr@@YA_NPBXI@Z:PROC		; F4IsBadReadPtr
EXTRN	?SetPosition@VuEntity@@QAEXMMM@Z:PROC		; VuEntity::SetPosition
EXTRN	?SetDelta@VuEntity@@QAEXMMM@Z:PROC		; VuEntity::SetDelta
EXTRN	?IsLocal@VuEntity@@QBEEXZ:PROC			; VuEntity::IsLocal
EXTRN	?CustomCollisionCheck@VuEntity@@UAEEPAV1@M@Z:PROC ; VuEntity::CustomCollisionCheck
EXTRN	?TerrainCollisionCheck@VuEntity@@UAEEXZ:PROC	; VuEntity::TerrainCollisionCheck
EXTRN	?IsTarget@VuEntity@@UAEEXZ:PROC			; VuEntity::IsTarget
EXTRN	?IsSession@VuEntity@@UAEEXZ:PROC		; VuEntity::IsSession
EXTRN	?IsGroup@VuEntity@@UAEEXZ:PROC			; VuEntity::IsGroup
EXTRN	?IsGame@VuEntity@@UAEEXZ:PROC			; VuEntity::IsGame
EXTRN	?IsCamera@VuEntity@@UBEEXZ:PROC			; VuEntity::IsCamera
EXTRN	?Handle@VuEntity@@UAEHPAVVuErrorMessage@@@Z:PROC ; VuEntity::Handle
EXTRN	?Handle@VuEntity@@UAEHPAVVuPushRequest@@@Z:PROC	; VuEntity::Handle
EXTRN	?Handle@VuEntity@@UAEHPAVVuPullRequest@@@Z:PROC	; VuEntity::Handle
EXTRN	?Handle@VuEntity@@UAEHPAVVuEvent@@@Z:PROC	; VuEntity::Handle
EXTRN	?Handle@VuEntity@@UAEHPAVVuEntityCollisionEvent@@@Z:PROC ; VuEntity::Handle
EXTRN	?Handle@VuEntity@@UAEHPAVVuSessionEvent@@@Z:PROC ; VuEntity::Handle
EXTRN	?Game@VuSessionEntity@@QAEPAVVuGameEntity@@XZ:PROC ; VuSessionEntity::Game
EXTRN	??0VuListIterator@@QAE@PAVVuLinkedList@@@Z:PROC	; VuListIterator::VuListIterator
EXTRN	??1VuListIterator@@UAE@XZ:PROC			; VuListIterator::~VuListIterator
EXTRN	?GetFirst@VuListIterator@@QAEPAVVuEntity@@XZ:PROC ; VuListIterator::GetFirst
EXTRN	?GetNext@VuListIterator@@QAEPAVVuEntity@@XZ:PROC ; VuListIterator::GetNext
EXTRN	??0VuGridIterator@@QAE@PAVVuGridTree@@MMM@Z:PROC ; VuGridIterator::VuGridIterator
EXTRN	??1VuGridIterator@@UAE@XZ:PROC			; VuGridIterator::~VuGridIterator
EXTRN	?GetFirst@VuGridIterator@@QAEPAVVuEntity@@XZ:PROC ; VuGridIterator::GetFirst
EXTRN	?GetNext@VuGridIterator@@QAEPAVVuEntity@@XZ:PROC ; VuGridIterator::GetNext
EXTRN	?GetDomain@FalconEntity@@UAEEXZ:PROC		; FalconEntity::GetDomain
EXTRN	?GetDamageModifiers@FalconEntity@@UAEPAEXZ:PROC	; FalconEntity::GetDamageModifiers
EXTRN	?UpdatePos@F4SoundPos@@QAEXPAVSimBaseClass@@@Z:PROC ; F4SoundPos::UpdatePos
EXTRN	?GetTeam@SimBaseClass@@UAEEXZ:PROC		; SimBaseClass::GetTeam
EXTRN	?GetCampID@SimBaseClass@@UAEFXZ:PROC		; SimBaseClass::GetCampID
EXTRN	?GetMovementType@SimBaseClass@@UAE?AW4MoveType@@XZ:PROC ; SimBaseClass::GetMovementType
EXTRN	?SetExploding@SimBaseClass@@QAEXH@Z:PROC	; SimBaseClass::SetExploding
EXTRN	?IsSPJamming@SimBaseClass@@UAEHXZ:PROC		; SimBaseClass::IsSPJamming
EXTRN	?IsAreaJamming@SimBaseClass@@UAEHXZ:PROC	; SimBaseClass::IsAreaJamming
EXTRN	?HasSPJamming@SimBaseClass@@UAEHXZ:PROC		; SimBaseClass::HasSPJamming
EXTRN	?HasAreaJamming@SimBaseClass@@UAEHXZ:PROC	; SimBaseClass::HasAreaJamming
EXTRN	?SetFlag@SimBaseClass@@QAEXH@Z:PROC		; SimBaseClass::SetFlag
EXTRN	?ApplyDamage@SimBaseClass@@UAEXPAVFalconDamageMessage@@@Z:PROC ; SimBaseClass::ApplyDamage
EXTRN	?ApplyDeathMessage@SimBaseClass@@UAEXPAVFalconDeathMessage@@@Z:PROC ; SimBaseClass::ApplyDeathMessage
EXTRN	?GetFocusPoint@SimBaseClass@@UAEXAAM00@Z:PROC	; SimBaseClass::GetFocusPoint
EXTRN	?GetP@SimMoverClass@@UAEMXZ:PROC		; SimMoverClass::GetP
EXTRN	?GetQ@SimMoverClass@@UAEMXZ:PROC		; SimMoverClass::GetQ
EXTRN	?GetR@SimMoverClass@@UAEMXZ:PROC		; SimMoverClass::GetR
EXTRN	?GetAlpha@SimMoverClass@@UAEMXZ:PROC		; SimMoverClass::GetAlpha
EXTRN	?GetBeta@SimMoverClass@@UAEMXZ:PROC		; SimMoverClass::GetBeta
EXTRN	?GetNx@SimMoverClass@@UAEMXZ:PROC		; SimMoverClass::GetNx
EXTRN	?GetNy@SimMoverClass@@UAEMXZ:PROC		; SimMoverClass::GetNy
EXTRN	?GetNz@SimMoverClass@@UAEMXZ:PROC		; SimMoverClass::GetNz
EXTRN	?GetGamma@SimMoverClass@@UAEMXZ:PROC		; SimMoverClass::GetGamma
EXTRN	?GetSigma@SimMoverClass@@UAEMXZ:PROC		; SimMoverClass::GetSigma
EXTRN	?GetMu@SimMoverClass@@UAEMXZ:PROC		; SimMoverClass::GetMu
EXTRN	?GetVt@SimMoverClass@@UBEMXZ:PROC		; SimMoverClass::GetVt
EXTRN	?GetKias@SimMoverClass@@UBEMXZ:PROC		; SimMoverClass::GetKias
EXTRN	?MakeLocal@SimMoverClass@@UAEXXZ:PROC		; SimMoverClass::MakeLocal
EXTRN	?MakeRemote@SimMoverClass@@UAEXXZ:PROC		; SimMoverClass::MakeRemote
EXTRN	?ChangeOwner@SimMoverClass@@UAEXVVU_ID@@@Z:PROC	; SimMoverClass::ChangeOwner
EXTRN	?FeatureCollision@SimMoverClass@@UAEPAVSimBaseClass@@M@Z:PROC ; SimMoverClass::FeatureCollision
EXTRN	?CheckLOS@SimMoverClass@@UAEHPAVSimObjectType@@@Z:PROC ; SimMoverClass::CheckLOS
EXTRN	?CheckCompositeLOS@SimMoverClass@@UAEHPAVSimObjectType@@@Z:PROC ; SimMoverClass::CheckCompositeLOS
EXTRN	?InsertionCallback@SimMoverClass@@UAEHXZ:PROC	; SimMoverClass::InsertionCallback
EXTRN	?RemovalCallback@SimMoverClass@@UAEHXZ:PROC	; SimMoverClass::RemovalCallback
EXTRN	?Camp_GetCurrentTime@@YAKXZ:PROC		; Camp_GetCurrentTime
EXTRN	?MapVisId@@YAKK@Z:PROC				; MapVisId
EXTRN	??0SimWeaponClass@@QAE@H@Z:PROC			; SimWeaponClass::SimWeaponClass
EXTRN	??0SimWeaponClass@@QAE@PAPAEPAJ@Z:PROC		; SimWeaponClass::SimWeaponClass
EXTRN	??0SimWeaponClass@@QAE@PAU_iobuf@@@Z:PROC	; SimWeaponClass::SimWeaponClass
EXTRN	??1SimWeaponClass@@UAE@XZ:PROC			; SimWeaponClass::~SimWeaponClass
EXTRN	?InitData@SimWeaponClass@@UAEXXZ:PROC		; SimWeaponClass::InitData
EXTRN	?CleanupData@SimWeaponClass@@UAEXXZ:PROC	; SimWeaponClass::CleanupData
EXTRN	?Sleep@SimWeaponClass@@UAEHXZ:PROC		; SimWeaponClass::Sleep
EXTRN	?Wake@SimWeaponClass@@UAEHXZ:PROC		; SimWeaponClass::Wake
EXTRN	?Init@SimWeaponClass@@UAEXXZ:PROC		; SimWeaponClass::Init
EXTRN	?SetDead@SimWeaponClass@@UAEXH@Z:PROC		; SimWeaponClass::SetDead
EXTRN	?SaveSize@SimWeaponClass@@UAEHXZ:PROC		; SimWeaponClass::SaveSize
EXTRN	?Save@SimWeaponClass@@UAEHPAPAE@Z:PROC		; SimWeaponClass::Save
EXTRN	?Save@SimWeaponClass@@UAEHPAU_iobuf@@@Z:PROC	; SimWeaponClass::Save
EXTRN	?Handle@SimWeaponClass@@UAEHPAVVuFullUpdateEvent@@@Z:PROC ; SimWeaponClass::Handle
EXTRN	?Handle@SimWeaponClass@@UAEHPAVVuPositionUpdateEvent@@@Z:PROC ; SimWeaponClass::Handle
EXTRN	?Handle@SimWeaponClass@@UAEHPAVVuTransferEvent@@@Z:PROC ; SimWeaponClass::Handle
EXTRN	?SendDamageMessage@SimWeaponClass@@QAEXPAVFalconEntity@@MH@Z:PROC ; SimWeaponClass::SendDamageMessage
EXTRN	?GetRadarType@SimWeaponClass@@UAEHXZ:PROC	; SimWeaponClass::GetRadarType
EXTRN	?ReadInput@BombClass@@QAEXH@Z:PROC		; BombClass::ReadInput
EXTRN	?IsLauncher@BombClass@@UAEHXZ:PROC		; BombClass::IsLauncher
EXTRN	?LauInit@BombClass@@QAEXXZ:PROC			; BombClass::LauInit
EXTRN	??_EBombClass@@UAEPAXI@Z:PROC			; BombClass::`vector deleting destructor'
EXTRN	?FalconSendMessage@@YAXPAVVuMessage@@H@Z:PROC	; FalconSendMessage
EXTRN	?GetGroundLevel@OTWDriverClass@@QAEMMMPAUTpoint@@@Z:PROC ; OTWDriverClass::GetGroundLevel
EXTRN	?GetGroundType@OTWDriverClass@@QAEHMM@Z:PROC	; OTWDriverClass::GetGroundType
EXTRN	?Reference@SimObjectType@@QAEXXZ:PROC		; SimObjectType::Reference
EXTRN	?Release@SimObjectType@@QAEXXZ:PROC		; SimObjectType::Release
EXTRN	??_EInvalidBufferException@@UAEPAXI@Z:PROC	; InvalidBufferException::`vector deleting destructor'
EXTRN	?GetPlayerAircraft@SimulationDriver@@QBEPAVAircraftClass@@XZ:PROC ; SimulationDriver::GetPlayerAircraft
EXTRN	??0FalconMissileEndMessage@@QAE@VVU_ID@@PAVVuTargetEntity@@E@Z:PROC ; FalconMissileEndMessage::FalconMissileEndMessage
EXTRN	?SetParticleEffectName@FalconMissileEndMessage@@QAEXPAD@Z:PROC ; FalconMissileEndMessage::SetParticleEffectName
EXTRN	?Add@ACMI_Hash@@QAEJVVU_ID@@PADJ@Z:PROC		; ACMI_Hash::Add
EXTRN	?GenPositionRecord@ACMIRecorder@@QAEXPAUACMIGenPositionRecord@@@Z:PROC ; ACMIRecorder::GenPositionRecord
EXTRN	?ChaffPositionRecord@ACMIRecorder@@QAEXPAUACMIChaffPositionRecord@@@Z:PROC ; ACMIRecorder::ChaffPositionRecord
EXTRN	?FlarePositionRecord@ACMIRecorder@@QAEXPAUACMIFlarePositionRecord@@@Z:PROC ; ACMIRecorder::FlarePositionRecord
EXTRN	?StationarySfxRecord@ACMIRecorder@@QAEXPAUACMIStationarySfxRecord@@@Z:PROC ; ACMIRecorder::StationarySfxRecord
EXTRN	?AddToTimedPersistantList@@YAXHKMM@Z:PROC	; AddToTimedPersistantList
EXTRN	?WindSpeedInFeetPerSecond@WeatherClass@@QAEMPBUTpoint@@@Z:PROC ; WeatherClass::WindSpeedInFeetPerSecond
EXTRN	?WindHeadingAt@WeatherClass@@QAEMPBUTpoint@@@Z:PROC ; WeatherClass::WindHeadingAt
EXTRN	?CalcTransformMatrix@@YAXPAVSimBaseClass@@@Z:PROC ; CalcTransformMatrix
EXTRN	@__security_check_cookie@4:PROC
EXTRN	__CxxThrowException@8:PROC
EXTRN	___CxxFrameHandler3:PROC
EXTRN	??_7type_info@@6B@:QWORD			; type_info::`vftable'
EXTRN	?vuLocalSessionEntity@@3V?$VuBin@VVuSessionEntity@@@@A:DWORD ; vuLocalSessionEntity
EXTRN	?FalconNullId@@3VVU_ID@@A:QWORD			; FalconNullId
EXTRN	?SimLibMajorFrameTime@@3MA:DWORD		; SimLibMajorFrameTime
EXTRN	?SimLibElapsedTime@@3KA:DWORD			; SimLibElapsedTime
EXTRN	?SimLibFrameCount@@3IA:DWORD			; SimLibFrameCount
EXTRN	?SimWeaponDataTable@@3PAUSimWeaponDataType@@A:DWORD ; SimWeaponDataTable
EXTRN	?Falcon4ClassTable@@3PAUFalcon4EntityClassType@@A:DWORD ; Falcon4ClassTable
EXTRN	?OTWDriver@@3VOTWDriverClass@@A:BYTE		; OTWDriver
EXTRN	?g_bRealisticAvionics@@3_NA:BYTE		; g_bRealisticAvionics
EXTRN	?ObjProxList@@3PAVVuGridTree@@A:DWORD		; ObjProxList
EXTRN	?SimDriver@@3VSimulationDriver@@A:BYTE		; SimDriver
EXTRN	?gACMIRec@@3VACMIRecorder@@A:BYTE		; gACMIRec
EXTRN	?ACMIIDTable@@3PAVACMI_Hash@@A:DWORD		; ACMIIDTable
EXTRN	?realWeather@@3PAVRealWeather@@A:DWORD		; realWeather
EXTRN	?TeamInfo@@3PAPAVTeamClass@@A:BYTE		; TeamInfo
EXTRN	?g_bRP5Comp@@3_NA:BYTE				; g_bRP5Comp
EXTRN	?g_bEnableWindsAloft@@3_NA:BYTE			; g_bEnableWindsAloft
EXTRN	?g_fNukeStrengthFactor@@3MA:DWORD		; g_fNukeStrengthFactor
EXTRN	?g_fNukeDamageMod@@3MA:DWORD			; g_fNukeDamageMod
EXTRN	?g_fNukeDamageRadius@@3MA:DWORD			; g_fNukeDamageRadius
EXTRN	?g_fJDAMLift@@3MA:DWORD				; g_fJDAMLift
EXTRN	?g_fAIJSOWmaxRange@@3MA:DWORD			; g_fAIJSOWmaxRange
EXTRN	___security_cookie:DWORD
EXTRN	__fltused:DWORD
_BSS	SEGMENT
_piecewise_construct DB 01H DUP (?)
_allocator_arg DB 01H DUP (?)
_BSS	ENDS
;	COMDAT ?_Generic_object@?$_Error_objects@H@std@@2V_Generic_error_category@2@A
_BSS	SEGMENT
?_Generic_object@?$_Error_objects@H@std@@2V_Generic_error_category@2@A DD 01H DUP (?) ; std::_Error_objects<int>::_Generic_object
_BSS	ENDS
;	COMDAT ?_Iostream_object@?$_Error_objects@H@std@@2V_Iostream_error_category@2@A
_BSS	SEGMENT
?_Iostream_object@?$_Error_objects@H@std@@2V_Iostream_error_category@2@A DD 01H DUP (?) ; std::_Error_objects<int>::_Iostream_object
_BSS	ENDS
;	COMDAT ?_System_object@?$_Error_objects@H@std@@2V_System_error_category@2@A
_BSS	SEGMENT
?_System_object@?$_Error_objects@H@std@@2V_System_error_category@2@A DD 01H DUP (?) ; std::_Error_objects<int>::_System_object
_BSS	ENDS
;	COMDAT ?id@?$num_put@DV?$back_insert_iterator@V?$basic_string@DU?$char_traits@D@std@@V?$allocator@D@2@@std@@@std@@@std@@2V0locale@2@A
_BSS	SEGMENT
?id@?$num_put@DV?$back_insert_iterator@V?$basic_string@DU?$char_traits@D@std@@V?$allocator@D@2@@std@@@std@@@std@@2V0locale@2@A DD 01H DUP (?) ; std::num_put<char,std::back_insert_iterator<std::basic_string<char,std::char_traits<char>,std::allocator<char> > > >::id
_BSS	ENDS
;	COMDAT ?id@?$num_put@_WV?$back_insert_iterator@V?$basic_string@_WU?$char_traits@_W@std@@V?$allocator@_W@2@@std@@@std@@@std@@2V0locale@2@A
_BSS	SEGMENT
?id@?$num_put@_WV?$back_insert_iterator@V?$basic_string@_WU?$char_traits@_W@std@@V?$allocator@_W@2@@std@@@std@@@std@@2V0locale@2@A DD 01H DUP (?) ; std::num_put<wchar_t,std::back_insert_iterator<std::basic_string<wchar_t,std::char_traits<wchar_t>,std::allocator<wchar_t> > > >::id
_BSS	ENDS
;	COMDAT ?fp@?1??Exec@BombClass@@UAEHXZ@4PAU_iobuf@@A
_BSS	SEGMENT
?fp@?1??Exec@BombClass@@UAEHXZ@4PAU_iobuf@@A DD 01H DUP (?) ; `BombClass::Exec'::`2'::fp
_BSS	ENDS
;	COMDAT ?maxenergy@?JL@??Exec@BombClass@@UAEHXZ@4MA
_BSS	SEGMENT
?maxenergy@?JL@??Exec@BombClass@@UAEHXZ@4MA DD 01H DUP (?) ; `BombClass::Exec'::`155'::maxenergy
_BSS	ENDS
;	COMDAT ?$S1@?JL@??Exec@BombClass@@UAEHXZ@4IA
_BSS	SEGMENT
?$S1@?JL@??Exec@BombClass@@UAEHXZ@4IA DD 01H DUP (?)	; `BombClass::Exec'::`155'::$S1
_BSS	ENDS
;	COMDAT ?id@?$numpunct@D@std@@2V0locale@2@A
_BSS	SEGMENT
?id@?$numpunct@D@std@@2V0locale@2@A DD 01H DUP (?)	; std::numpunct<char>::id
_BSS	ENDS
;	COMDAT ?id@?$numpunct@_W@std@@2V0locale@2@A
_BSS	SEGMENT
?id@?$numpunct@_W@std@@2V0locale@2@A DD 01H DUP (?)	; std::numpunct<wchar_t>::id
_BSS	ENDS
CRT$XCU	SEGMENT
_piecewise_construct$initializer$ DD FLAT:??__Epiecewise_construct@std@@YAXXZ
CRT$XCU	ENDS
;	COMDAT __xmm@80000000800000008000000080000000
CONST	SEGMENT
__xmm@80000000800000008000000080000000 DB 00H, 00H, 00H, 080H, 00H, 00H, 00H
	DB	080H, 00H, 00H, 00H, 080H, 00H, 00H, 00H, 080H
CONST	ENDS
;	COMDAT __xmm@41f00000000000000000000000000000
CONST	SEGMENT
__xmm@41f00000000000000000000000000000 DB 00H, 00H, 00H, 00H, 00H, 00H, 00H
	DB	00H, 00H, 00H, 00H, 00H, 00H, 00H, 0f0H, 'A'
CONST	ENDS
;	COMDAT __real@c4480000
CONST	SEGMENT
__real@c4480000 DD 0c4480000r			; -800
CONST	ENDS
;	COMDAT __real@bff921fb54442d18
CONST	SEGMENT
__real@bff921fb54442d18 DQ 0bff921fb54442d18r	; -1.5708
CONST	ENDS
;	COMDAT __real@bf666666
CONST	SEGMENT
__real@bf666666 DD 0bf666666r			; -0.9
CONST	ENDS
;	COMDAT __real@8000000000000000
CONST	SEGMENT
__real@8000000000000000 DQ 08000000000000000r	; -0
CONST	ENDS
;	COMDAT __real@476d5a1c
CONST	SEGMENT
__real@476d5a1c DD 0476d5a1cr			; 60762.1
CONST	ENDS
;	COMDAT __real@46fffe00
CONST	SEGMENT
__real@46fffe00 DD 046fffe00r			; 32767
CONST	ENDS
;	COMDAT __real@45bde1b0
CONST	SEGMENT
__real@45bde1b0 DD 045bde1b0r			; 6076.21
CONST	ENDS
;	COMDAT __real@453b8000
CONST	SEGMENT
__real@453b8000 DD 0453b8000r			; 3000
CONST	ENDS
;	COMDAT __real@451c4000
CONST	SEGMENT
__real@451c4000 DD 0451c4000r			; 2500
CONST	ENDS
;	COMDAT __real@44fa0000
CONST	SEGMENT
__real@44fa0000 DD 044fa0000r			; 2000
CONST	ENDS
;	COMDAT __real@447a0000
CONST	SEGMENT
__real@447a0000 DD 0447a0000r			; 1000
CONST	ENDS
;	COMDAT __real@43fa0000
CONST	SEGMENT
__real@43fa0000 DD 043fa0000r			; 500
CONST	ENDS
;	COMDAT __real@437a0000
CONST	SEGMENT
__real@437a0000 DD 0437a0000r			; 250
CONST	ENDS
;	COMDAT __real@43340000
CONST	SEGMENT
__real@43340000 DD 043340000r			; 180
CONST	ENDS
;	COMDAT __real@4280b53f
CONST	SEGMENT
__real@4280b53f DD 04280b53fr			; 64.354
CONST	ENDS
;	COMDAT __real@4200b53f
CONST	SEGMENT
__real@4200b53f DD 04200b53fr			; 32.177
CONST	ENDS
;	COMDAT __real@41a75205
CONST	SEGMENT
__real@41a75205 DD 041a75205r			; 20.915
CONST	ENDS
;	COMDAT __real@41200000
CONST	SEGMENT
__real@41200000 DD 041200000r			; 10
CONST	ENDS
;	COMDAT __real@40a00000
CONST	SEGMENT
__real@40a00000 DD 040a00000r			; 5
CONST	ENDS
;	COMDAT __real@40600000
CONST	SEGMENT
__real@40600000 DD 040600000r			; 3.5
CONST	ENDS
;	COMDAT __real@400921fb54442d18
CONST	SEGMENT
__real@400921fb54442d18 DQ 0400921fb54442d18r	; 3.14159
CONST	ENDS
;	COMDAT __real@40000000
CONST	SEGMENT
__real@40000000 DD 040000000r			; 2
CONST	ENDS
;	COMDAT __real@3ff921fb54442d18
CONST	SEGMENT
__real@3ff921fb54442d18 DQ 03ff921fb54442d18r	; 1.5708
CONST	ENDS
;	COMDAT __real@3f866666
CONST	SEGMENT
__real@3f866666 DD 03f866666r			; 1.05
CONST	ENDS
;	COMDAT __real@3f800000
CONST	SEGMENT
__real@3f800000 DD 03f800000r			; 1
CONST	ENDS
;	COMDAT __real@3f666666
CONST	SEGMENT
__real@3f666666 DD 03f666666r			; 0.9
CONST	ENDS
;	COMDAT __real@3f4ccccd
CONST	SEGMENT
__real@3f4ccccd DD 03f4ccccdr			; 0.8
CONST	ENDS
;	COMDAT __real@3f490fd9
CONST	SEGMENT
__real@3f490fd9 DD 03f490fd9r			; 0.785398
CONST	ENDS
;	COMDAT __real@3ea0d97a
CONST	SEGMENT
__real@3ea0d97a DD 03ea0d97ar			; 0.314159
CONST	ENDS
;	COMDAT __real@3e4ccccd
CONST	SEGMENT
__real@3e4ccccd DD 03e4ccccdr			; 0.2
CONST	ENDS
;	COMDAT __real@3dcccccd
CONST	SEGMENT
__real@3dcccccd DD 03dcccccdr			; 0.1
CONST	ENDS
;	COMDAT __real@3a83126f
CONST	SEGMENT
__real@3a83126f DD 03a83126fr			; 0.001
CONST	ENDS
;	COMDAT __real@0000000000000000
CONST	SEGMENT
__real@0000000000000000 DQ 00000000000000000r	; 0
CONST	ENDS
;	COMDAT __real@00000000
CONST	SEGMENT
__real@00000000 DD 000000000r			; 0
CONST	ENDS
;	COMDAT ??_R1A@?0A@EA@InvalidBufferException@@8
rdata$r	SEGMENT
??_R1A@?0A@EA@InvalidBufferException@@8 DD FLAT:??_R0?AVInvalidBufferException@@@8 ; InvalidBufferException::`RTTI Base Class Descriptor at (0,-1,0,64)'
	DD	03H
	DD	00H
	DD	0ffffffffH
	DD	00H
	DD	040H
	DD	FLAT:??_R3InvalidBufferException@@8
rdata$r	ENDS
;	COMDAT ??_R2InvalidBufferException@@8
rdata$r	SEGMENT
??_R2InvalidBufferException@@8 DD FLAT:??_R1A@?0A@EA@InvalidBufferException@@8 ; InvalidBufferException::`RTTI Base Class Array'
	DD	FLAT:??_R1A@?0A@EA@out_of_range@std@@8
	DD	FLAT:??_R1A@?0A@EA@logic_error@std@@8
	DD	FLAT:??_R1A@?0A@EA@exception@std@@8
rdata$r	ENDS
;	COMDAT ??_R3InvalidBufferException@@8
rdata$r	SEGMENT
??_R3InvalidBufferException@@8 DD 00H			; InvalidBufferException::`RTTI Class Hierarchy Descriptor'
	DD	00H
	DD	04H
	DD	FLAT:??_R2InvalidBufferException@@8
rdata$r	ENDS
;	COMDAT ??_R4InvalidBufferException@@6B@
rdata$r	SEGMENT
??_R4InvalidBufferException@@6B@ DD 00H			; InvalidBufferException::`RTTI Complete Object Locator'
	DD	00H
	DD	00H
	DD	FLAT:??_R0?AVInvalidBufferException@@@8
	DD	FLAT:??_R3InvalidBufferException@@8
rdata$r	ENDS
;	COMDAT ??_R2VuEntity@@8
rdata$r	SEGMENT
??_R2VuEntity@@8 DD FLAT:??_R1A@?0A@EA@VuEntity@@8	; VuEntity::`RTTI Base Class Array'
rdata$r	ENDS
;	COMDAT ??_R3VuEntity@@8
rdata$r	SEGMENT
??_R3VuEntity@@8 DD 00H					; VuEntity::`RTTI Class Hierarchy Descriptor'
	DD	00H
	DD	01H
	DD	FLAT:??_R2VuEntity@@8
rdata$r	ENDS
;	COMDAT ??_R0?AVVuEntity@@@8
_DATA	SEGMENT
??_R0?AVVuEntity@@@8 DD FLAT:??_7type_info@@6B@		; VuEntity `RTTI Type Descriptor'
	DD	00H
	DB	'.?AVVuEntity@@', 00H
_DATA	ENDS
;	COMDAT ??_R1A@?0A@EA@VuEntity@@8
rdata$r	SEGMENT
??_R1A@?0A@EA@VuEntity@@8 DD FLAT:??_R0?AVVuEntity@@@8	; VuEntity::`RTTI Base Class Descriptor at (0,-1,0,64)'
	DD	00H
	DD	00H
	DD	0ffffffffH
	DD	00H
	DD	040H
	DD	FLAT:??_R3VuEntity@@8
rdata$r	ENDS
;	COMDAT ??_R2FalconEntity@@8
rdata$r	SEGMENT
??_R2FalconEntity@@8 DD FLAT:??_R1A@?0A@EA@FalconEntity@@8 ; FalconEntity::`RTTI Base Class Array'
	DD	FLAT:??_R1A@?0A@EA@VuEntity@@8
rdata$r	ENDS
;	COMDAT ??_R3FalconEntity@@8
rdata$r	SEGMENT
??_R3FalconEntity@@8 DD 00H				; FalconEntity::`RTTI Class Hierarchy Descriptor'
	DD	00H
	DD	02H
	DD	FLAT:??_R2FalconEntity@@8
rdata$r	ENDS
;	COMDAT ??_R0?AVFalconEntity@@@8
_DATA	SEGMENT
??_R0?AVFalconEntity@@@8 DD FLAT:??_7type_info@@6B@	; FalconEntity `RTTI Type Descriptor'
	DD	00H
	DB	'.?AVFalconEntity@@', 00H
_DATA	ENDS
;	COMDAT ??_R1A@?0A@EA@FalconEntity@@8
rdata$r	SEGMENT
??_R1A@?0A@EA@FalconEntity@@8 DD FLAT:??_R0?AVFalconEntity@@@8 ; FalconEntity::`RTTI Base Class Descriptor at (0,-1,0,64)'
	DD	01H
	DD	00H
	DD	0ffffffffH
	DD	00H
	DD	040H
	DD	FLAT:??_R3FalconEntity@@8
rdata$r	ENDS
;	COMDAT ??_R2SimBaseClass@@8
rdata$r	SEGMENT
??_R2SimBaseClass@@8 DD FLAT:??_R1A@?0A@EA@SimBaseClass@@8 ; SimBaseClass::`RTTI Base Class Array'
	DD	FLAT:??_R1A@?0A@EA@FalconEntity@@8
	DD	FLAT:??_R1A@?0A@EA@VuEntity@@8
rdata$r	ENDS
;	COMDAT ??_R3SimBaseClass@@8
rdata$r	SEGMENT
??_R3SimBaseClass@@8 DD 00H				; SimBaseClass::`RTTI Class Hierarchy Descriptor'
	DD	00H
	DD	03H
	DD	FLAT:??_R2SimBaseClass@@8
rdata$r	ENDS
;	COMDAT ??_R0?AVSimBaseClass@@@8
_DATA	SEGMENT
??_R0?AVSimBaseClass@@@8 DD FLAT:??_7type_info@@6B@	; SimBaseClass `RTTI Type Descriptor'
	DD	00H
	DB	'.?AVSimBaseClass@@', 00H
_DATA	ENDS
;	COMDAT ??_R1A@?0A@EA@SimBaseClass@@8
rdata$r	SEGMENT
??_R1A@?0A@EA@SimBaseClass@@8 DD FLAT:??_R0?AVSimBaseClass@@@8 ; SimBaseClass::`RTTI Base Class Descriptor at (0,-1,0,64)'
	DD	02H
	DD	00H
	DD	0ffffffffH
	DD	00H
	DD	040H
	DD	FLAT:??_R3SimBaseClass@@8
rdata$r	ENDS
;	COMDAT ??_R2SimMoverClass@@8
rdata$r	SEGMENT
??_R2SimMoverClass@@8 DD FLAT:??_R1A@?0A@EA@SimMoverClass@@8 ; SimMoverClass::`RTTI Base Class Array'
	DD	FLAT:??_R1A@?0A@EA@SimBaseClass@@8
	DD	FLAT:??_R1A@?0A@EA@FalconEntity@@8
	DD	FLAT:??_R1A@?0A@EA@VuEntity@@8
rdata$r	ENDS
;	COMDAT ??_R3SimMoverClass@@8
rdata$r	SEGMENT
??_R3SimMoverClass@@8 DD 00H				; SimMoverClass::`RTTI Class Hierarchy Descriptor'
	DD	00H
	DD	04H
	DD	FLAT:??_R2SimMoverClass@@8
rdata$r	ENDS
;	COMDAT ??_R0?AVSimMoverClass@@@8
_DATA	SEGMENT
??_R0?AVSimMoverClass@@@8 DD FLAT:??_7type_info@@6B@	; SimMoverClass `RTTI Type Descriptor'
	DD	00H
	DB	'.?AVSimMoverClass@@', 00H
_DATA	ENDS
;	COMDAT ??_R1A@?0A@EA@SimMoverClass@@8
rdata$r	SEGMENT
??_R1A@?0A@EA@SimMoverClass@@8 DD FLAT:??_R0?AVSimMoverClass@@@8 ; SimMoverClass::`RTTI Base Class Descriptor at (0,-1,0,64)'
	DD	03H
	DD	00H
	DD	0ffffffffH
	DD	00H
	DD	040H
	DD	FLAT:??_R3SimMoverClass@@8
rdata$r	ENDS
;	COMDAT ??_R2SimWeaponClass@@8
rdata$r	SEGMENT
??_R2SimWeaponClass@@8 DD FLAT:??_R1A@?0A@EA@SimWeaponClass@@8 ; SimWeaponClass::`RTTI Base Class Array'
	DD	FLAT:??_R1A@?0A@EA@SimMoverClass@@8
	DD	FLAT:??_R1A@?0A@EA@SimBaseClass@@8
	DD	FLAT:??_R1A@?0A@EA@FalconEntity@@8
	DD	FLAT:??_R1A@?0A@EA@VuEntity@@8
rdata$r	ENDS
;	COMDAT ??_R3SimWeaponClass@@8
rdata$r	SEGMENT
??_R3SimWeaponClass@@8 DD 00H				; SimWeaponClass::`RTTI Class Hierarchy Descriptor'
	DD	00H
	DD	05H
	DD	FLAT:??_R2SimWeaponClass@@8
rdata$r	ENDS
;	COMDAT ??_R0?AVSimWeaponClass@@@8
_DATA	SEGMENT
??_R0?AVSimWeaponClass@@@8 DD FLAT:??_7type_info@@6B@	; SimWeaponClass `RTTI Type Descriptor'
	DD	00H
	DB	'.?AVSimWeaponClass@@', 00H
_DATA	ENDS
;	COMDAT ??_R1A@?0A@EA@SimWeaponClass@@8
rdata$r	SEGMENT
??_R1A@?0A@EA@SimWeaponClass@@8 DD FLAT:??_R0?AVSimWeaponClass@@@8 ; SimWeaponClass::`RTTI Base Class Descriptor at (0,-1,0,64)'
	DD	04H
	DD	00H
	DD	0ffffffffH
	DD	00H
	DD	040H
	DD	FLAT:??_R3SimWeaponClass@@8
rdata$r	ENDS
;	COMDAT ??_R1A@?0A@EA@BombClass@@8
rdata$r	SEGMENT
??_R1A@?0A@EA@BombClass@@8 DD FLAT:??_R0?AVBombClass@@@8 ; BombClass::`RTTI Base Class Descriptor at (0,-1,0,64)'
	DD	05H
	DD	00H
	DD	0ffffffffH
	DD	00H
	DD	040H
	DD	FLAT:??_R3BombClass@@8
rdata$r	ENDS
;	COMDAT ??_R2BombClass@@8
rdata$r	SEGMENT
??_R2BombClass@@8 DD FLAT:??_R1A@?0A@EA@BombClass@@8	; BombClass::`RTTI Base Class Array'
	DD	FLAT:??_R1A@?0A@EA@SimWeaponClass@@8
	DD	FLAT:??_R1A@?0A@EA@SimMoverClass@@8
	DD	FLAT:??_R1A@?0A@EA@SimBaseClass@@8
	DD	FLAT:??_R1A@?0A@EA@FalconEntity@@8
	DD	FLAT:??_R1A@?0A@EA@VuEntity@@8
rdata$r	ENDS
;	COMDAT ??_R3BombClass@@8
rdata$r	SEGMENT
??_R3BombClass@@8 DD 00H				; BombClass::`RTTI Class Hierarchy Descriptor'
	DD	00H
	DD	06H
	DD	FLAT:??_R2BombClass@@8
rdata$r	ENDS
;	COMDAT ??_R0?AVBombClass@@@8
_DATA	SEGMENT
??_R0?AVBombClass@@@8 DD FLAT:??_7type_info@@6B@	; BombClass `RTTI Type Descriptor'
	DD	00H
	DB	'.?AVBombClass@@', 00H
_DATA	ENDS
;	COMDAT ??_R4BombClass@@6B@
rdata$r	SEGMENT
??_R4BombClass@@6B@ DD 00H				; BombClass::`RTTI Complete Object Locator'
	DD	00H
	DD	00H
	DD	FLAT:??_R0?AVBombClass@@@8
	DD	FLAT:??_R3BombClass@@8
rdata$r	ENDS
;	COMDAT ??_R1A@?0A@EA@_System_error_category@std@@8
rdata$r	SEGMENT
??_R1A@?0A@EA@_System_error_category@std@@8 DD FLAT:??_R0?AV_System_error_category@std@@@8 ; std::_System_error_category::`RTTI Base Class Descriptor at (0,-1,0,64)'
	DD	02H
	DD	00H
	DD	0ffffffffH
	DD	00H
	DD	040H
	DD	FLAT:??_R3_System_error_category@std@@8
rdata$r	ENDS
;	COMDAT ??_R2_System_error_category@std@@8
rdata$r	SEGMENT
??_R2_System_error_category@std@@8 DD FLAT:??_R1A@?0A@EA@_System_error_category@std@@8 ; std::_System_error_category::`RTTI Base Class Array'
	DD	FLAT:??_R1A@?0A@EA@_Generic_error_category@std@@8
	DD	FLAT:??_R1A@?0A@EA@error_category@std@@8
rdata$r	ENDS
;	COMDAT ??_R3_System_error_category@std@@8
rdata$r	SEGMENT
??_R3_System_error_category@std@@8 DD 00H		; std::_System_error_category::`RTTI Class Hierarchy Descriptor'
	DD	00H
	DD	03H
	DD	FLAT:??_R2_System_error_category@std@@8
rdata$r	ENDS
;	COMDAT ??_R0?AV_System_error_category@std@@@8
_DATA	SEGMENT
??_R0?AV_System_error_category@std@@@8 DD FLAT:??_7type_info@@6B@ ; std::_System_error_category `RTTI Type Descriptor'
	DD	00H
	DB	'.?AV_System_error_category@std@@', 00H
_DATA	ENDS
;	COMDAT ??_R4_System_error_category@std@@6B@
rdata$r	SEGMENT
??_R4_System_error_category@std@@6B@ DD 00H		; std::_System_error_category::`RTTI Complete Object Locator'
	DD	00H
	DD	00H
	DD	FLAT:??_R0?AV_System_error_category@std@@@8
	DD	FLAT:??_R3_System_error_category@std@@8
rdata$r	ENDS
;	COMDAT ??_R1A@?0A@EA@_Iostream_error_category@std@@8
rdata$r	SEGMENT
??_R1A@?0A@EA@_Iostream_error_category@std@@8 DD FLAT:??_R0?AV_Iostream_error_category@std@@@8 ; std::_Iostream_error_category::`RTTI Base Class Descriptor at (0,-1,0,64)'
	DD	02H
	DD	00H
	DD	0ffffffffH
	DD	00H
	DD	040H
	DD	FLAT:??_R3_Iostream_error_category@std@@8
rdata$r	ENDS
;	COMDAT ??_R2_Iostream_error_category@std@@8
rdata$r	SEGMENT
??_R2_Iostream_error_category@std@@8 DD FLAT:??_R1A@?0A@EA@_Iostream_error_category@std@@8 ; std::_Iostream_error_category::`RTTI Base Class Array'
	DD	FLAT:??_R1A@?0A@EA@_Generic_error_category@std@@8
	DD	FLAT:??_R1A@?0A@EA@error_category@std@@8
rdata$r	ENDS
;	COMDAT ??_R3_Iostream_error_category@std@@8
rdata$r	SEGMENT
??_R3_Iostream_error_category@std@@8 DD 00H		; std::_Iostream_error_category::`RTTI Class Hierarchy Descriptor'
	DD	00H
	DD	03H
	DD	FLAT:??_R2_Iostream_error_category@std@@8
rdata$r	ENDS
;	COMDAT ??_R0?AV_Iostream_error_category@std@@@8
_DATA	SEGMENT
??_R0?AV_Iostream_error_category@std@@@8 DD FLAT:??_7type_info@@6B@ ; std::_Iostream_error_category `RTTI Type Descriptor'
	DD	00H
	DB	'.?AV_Iostream_error_category@std@@', 00H
_DATA	ENDS
;	COMDAT ??_R4_Iostream_error_category@std@@6B@
rdata$r	SEGMENT
??_R4_Iostream_error_category@std@@6B@ DD 00H		; std::_Iostream_error_category::`RTTI Complete Object Locator'
	DD	00H
	DD	00H
	DD	FLAT:??_R0?AV_Iostream_error_category@std@@@8
	DD	FLAT:??_R3_Iostream_error_category@std@@8
rdata$r	ENDS
;	COMDAT ??_R1A@?0A@EA@_Generic_error_category@std@@8
rdata$r	SEGMENT
??_R1A@?0A@EA@_Generic_error_category@std@@8 DD FLAT:??_R0?AV_Generic_error_category@std@@@8 ; std::_Generic_error_category::`RTTI Base Class Descriptor at (0,-1,0,64)'
	DD	01H
	DD	00H
	DD	0ffffffffH
	DD	00H
	DD	040H
	DD	FLAT:??_R3_Generic_error_category@std@@8
rdata$r	ENDS
;	COMDAT ??_R2_Generic_error_category@std@@8
rdata$r	SEGMENT
??_R2_Generic_error_category@std@@8 DD FLAT:??_R1A@?0A@EA@_Generic_error_category@std@@8 ; std::_Generic_error_category::`RTTI Base Class Array'
	DD	FLAT:??_R1A@?0A@EA@error_category@std@@8
rdata$r	ENDS
;	COMDAT ??_R3_Generic_error_category@std@@8
rdata$r	SEGMENT
??_R3_Generic_error_category@std@@8 DD 00H		; std::_Generic_error_category::`RTTI Class Hierarchy Descriptor'
	DD	00H
	DD	02H
	DD	FLAT:??_R2_Generic_error_category@std@@8
rdata$r	ENDS
;	COMDAT ??_R0?AV_Generic_error_category@std@@@8
_DATA	SEGMENT
??_R0?AV_Generic_error_category@std@@@8 DD FLAT:??_7type_info@@6B@ ; std::_Generic_error_category `RTTI Type Descriptor'
	DD	00H
	DB	'.?AV_Generic_error_category@std@@', 00H
_DATA	ENDS
;	COMDAT ??_R4_Generic_error_category@std@@6B@
rdata$r	SEGMENT
??_R4_Generic_error_category@std@@6B@ DD 00H		; std::_Generic_error_category::`RTTI Complete Object Locator'
	DD	00H
	DD	00H
	DD	FLAT:??_R0?AV_Generic_error_category@std@@@8
	DD	FLAT:??_R3_Generic_error_category@std@@8
rdata$r	ENDS
;	COMDAT ??_R1A@?0A@EA@error_category@std@@8
rdata$r	SEGMENT
??_R1A@?0A@EA@error_category@std@@8 DD FLAT:??_R0?AVerror_category@std@@@8 ; std::error_category::`RTTI Base Class Descriptor at (0,-1,0,64)'
	DD	00H
	DD	00H
	DD	0ffffffffH
	DD	00H
	DD	040H
	DD	FLAT:??_R3error_category@std@@8
rdata$r	ENDS
;	COMDAT ??_R2error_category@std@@8
rdata$r	SEGMENT
??_R2error_category@std@@8 DD FLAT:??_R1A@?0A@EA@error_category@std@@8 ; std::error_category::`RTTI Base Class Array'
rdata$r	ENDS
;	COMDAT ??_R3error_category@std@@8
rdata$r	SEGMENT
??_R3error_category@std@@8 DD 00H			; std::error_category::`RTTI Class Hierarchy Descriptor'
	DD	00H
	DD	01H
	DD	FLAT:??_R2error_category@std@@8
rdata$r	ENDS
;	COMDAT ??_R0?AVerror_category@std@@@8
_DATA	SEGMENT
??_R0?AVerror_category@std@@@8 DD FLAT:??_7type_info@@6B@ ; std::error_category `RTTI Type Descriptor'
	DD	00H
	DB	'.?AVerror_category@std@@', 00H
_DATA	ENDS
;	COMDAT ??_R4error_category@std@@6B@
rdata$r	SEGMENT
??_R4error_category@std@@6B@ DD 00H			; std::error_category::`RTTI Complete Object Locator'
	DD	00H
	DD	00H
	DD	FLAT:??_R0?AVerror_category@std@@@8
	DD	FLAT:??_R3error_category@std@@8
rdata$r	ENDS
;	COMDAT ??_R1A@?0A@EA@out_of_range@std@@8
rdata$r	SEGMENT
??_R1A@?0A@EA@out_of_range@std@@8 DD FLAT:??_R0?AVout_of_range@std@@@8 ; std::out_of_range::`RTTI Base Class Descriptor at (0,-1,0,64)'
	DD	02H
	DD	00H
	DD	0ffffffffH
	DD	00H
	DD	040H
	DD	FLAT:??_R3out_of_range@std@@8
rdata$r	ENDS
;	COMDAT ??_R2out_of_range@std@@8
rdata$r	SEGMENT
??_R2out_of_range@std@@8 DD FLAT:??_R1A@?0A@EA@out_of_range@std@@8 ; std::out_of_range::`RTTI Base Class Array'
	DD	FLAT:??_R1A@?0A@EA@logic_error@std@@8
	DD	FLAT:??_R1A@?0A@EA@exception@std@@8
rdata$r	ENDS
;	COMDAT ??_R3out_of_range@std@@8
rdata$r	SEGMENT
??_R3out_of_range@std@@8 DD 00H				; std::out_of_range::`RTTI Class Hierarchy Descriptor'
	DD	00H
	DD	03H
	DD	FLAT:??_R2out_of_range@std@@8
rdata$r	ENDS
;	COMDAT ??_R4out_of_range@std@@6B@
rdata$r	SEGMENT
??_R4out_of_range@std@@6B@ DD 00H			; std::out_of_range::`RTTI Complete Object Locator'
	DD	00H
	DD	00H
	DD	FLAT:??_R0?AVout_of_range@std@@@8
	DD	FLAT:??_R3out_of_range@std@@8
rdata$r	ENDS
;	COMDAT ??_R1A@?0A@EA@logic_error@std@@8
rdata$r	SEGMENT
??_R1A@?0A@EA@logic_error@std@@8 DD FLAT:??_R0?AVlogic_error@std@@@8 ; std::logic_error::`RTTI Base Class Descriptor at (0,-1,0,64)'
	DD	01H
	DD	00H
	DD	0ffffffffH
	DD	00H
	DD	040H
	DD	FLAT:??_R3logic_error@std@@8
rdata$r	ENDS
;	COMDAT ??_R2logic_error@std@@8
rdata$r	SEGMENT
??_R2logic_error@std@@8 DD FLAT:??_R1A@?0A@EA@logic_error@std@@8 ; std::logic_error::`RTTI Base Class Array'
	DD	FLAT:??_R1A@?0A@EA@exception@std@@8
rdata$r	ENDS
;	COMDAT ??_R3logic_error@std@@8
rdata$r	SEGMENT
??_R3logic_error@std@@8 DD 00H				; std::logic_error::`RTTI Class Hierarchy Descriptor'
	DD	00H
	DD	02H
	DD	FLAT:??_R2logic_error@std@@8
rdata$r	ENDS
;	COMDAT ??_R4logic_error@std@@6B@
rdata$r	SEGMENT
??_R4logic_error@std@@6B@ DD 00H			; std::logic_error::`RTTI Complete Object Locator'
	DD	00H
	DD	00H
	DD	FLAT:??_R0?AVlogic_error@std@@@8
	DD	FLAT:??_R3logic_error@std@@8
rdata$r	ENDS
;	COMDAT ??_R2exception@std@@8
rdata$r	SEGMENT
??_R2exception@std@@8 DD FLAT:??_R1A@?0A@EA@exception@std@@8 ; std::exception::`RTTI Base Class Array'
rdata$r	ENDS
;	COMDAT ??_R3exception@std@@8
rdata$r	SEGMENT
??_R3exception@std@@8 DD 00H				; std::exception::`RTTI Class Hierarchy Descriptor'
	DD	00H
	DD	01H
	DD	FLAT:??_R2exception@std@@8
rdata$r	ENDS
;	COMDAT ??_R1A@?0A@EA@exception@std@@8
rdata$r	SEGMENT
??_R1A@?0A@EA@exception@std@@8 DD FLAT:??_R0?AVexception@std@@@8 ; std::exception::`RTTI Base Class Descriptor at (0,-1,0,64)'
	DD	00H
	DD	00H
	DD	0ffffffffH
	DD	00H
	DD	040H
	DD	FLAT:??_R3exception@std@@8
rdata$r	ENDS
;	COMDAT ??_C@_0BA@JFNIOLAK@string?5too?5long?$AA@
CONST	SEGMENT
??_C@_0BA@JFNIOLAK@string?5too?5long?$AA@ DB 'string too long', 00H ; `string'
CONST	ENDS
;	COMDAT ??_C@_0BI@CFPLBAOH@invalid?5string?5position?$AA@
CONST	SEGMENT
??_C@_0BI@CFPLBAOH@invalid?5string?5position?$AA@ DB 'invalid string posi'
	DB	'tion', 00H					; `string'
CONST	ENDS
;	COMDAT ??_C@_0BN@LNGNKG@JSOWtgtID?3?5?$CFd?5?5X?$DN?5?$CFf?5?5Y?$DN?5?$CFf?6?$AA@
CONST	SEGMENT
??_C@_0BN@LNGNKG@JSOWtgtID?3?5?$CFd?5?5X?$DN?5?$CFf?5?5Y?$DN?5?$CFf?6?$AA@ DB 'J'
	DB	'SOWtgtID: %d  X= %f  Y= %f', 0aH, 00H	; `string'
CONST	ENDS
;	COMDAT __CT??_R0?AVlogic_error@std@@@8??0logic_error@std@@QAE@ABV01@@Z12
xdata$x	SEGMENT
__CT??_R0?AVlogic_error@std@@@8??0logic_error@std@@QAE@ABV01@@Z12 DD 00H
	DD	FLAT:??_R0?AVlogic_error@std@@@8
	DD	00H
	DD	0ffffffffH
	ORG $+4
	DD	0cH
	DD	FLAT:??0logic_error@std@@QAE@ABV01@@Z
xdata$x	ENDS
;	COMDAT ??_R0?AVlogic_error@std@@@8
_DATA	SEGMENT
??_R0?AVlogic_error@std@@@8 DD FLAT:??_7type_info@@6B@	; std::logic_error `RTTI Type Descriptor'
	DD	00H
	DB	'.?AVlogic_error@std@@', 00H
_DATA	ENDS
;	COMDAT __CT??_R0?AVout_of_range@std@@@8??0out_of_range@std@@QAE@ABV01@@Z12
xdata$x	SEGMENT
__CT??_R0?AVout_of_range@std@@@8??0out_of_range@std@@QAE@ABV01@@Z12 DD 00H
	DD	FLAT:??_R0?AVout_of_range@std@@@8
	DD	00H
	DD	0ffffffffH
	ORG $+4
	DD	0cH
	DD	FLAT:??0out_of_range@std@@QAE@ABV01@@Z
xdata$x	ENDS
;	COMDAT ??_R0?AVout_of_range@std@@@8
_DATA	SEGMENT
??_R0?AVout_of_range@std@@@8 DD FLAT:??_7type_info@@6B@	; std::out_of_range `RTTI Type Descriptor'
	DD	00H
	DB	'.?AVout_of_range@std@@', 00H
_DATA	ENDS
;	COMDAT __CT??_R0?AVInvalidBufferException@@@8??0InvalidBufferException@@QAE@ABV0@@Z12
xdata$x	SEGMENT
__CT??_R0?AVInvalidBufferException@@@8??0InvalidBufferException@@QAE@ABV0@@Z12 DD 00H
	DD	FLAT:??_R0?AVInvalidBufferException@@@8
	DD	00H
	DD	0ffffffffH
	ORG $+4
	DD	0cH
	DD	FLAT:??0InvalidBufferException@@QAE@ABV0@@Z
xdata$x	ENDS
;	COMDAT ??_R0?AVInvalidBufferException@@@8
_DATA	SEGMENT
??_R0?AVInvalidBufferException@@@8 DD FLAT:??_7type_info@@6B@ ; InvalidBufferException `RTTI Type Descriptor'
	DD	00H
	DB	'.?AVInvalidBufferException@@', 00H
_DATA	ENDS
;	COMDAT __CTA4?AVInvalidBufferException@@
xdata$x	SEGMENT
__CTA4?AVInvalidBufferException@@ DD 04H
	DD	FLAT:__CT??_R0?AVInvalidBufferException@@@8??0InvalidBufferException@@QAE@ABV0@@Z12
	DD	FLAT:__CT??_R0?AVout_of_range@std@@@8??0out_of_range@std@@QAE@ABV01@@Z12
	DD	FLAT:__CT??_R0?AVlogic_error@std@@@8??0logic_error@std@@QAE@ABV01@@Z12
	DD	FLAT:__CT??_R0?AVexception@std@@@8??0exception@std@@QAE@ABV01@@Z12
xdata$x	ENDS
;	COMDAT __TI4?AVInvalidBufferException@@
xdata$x	SEGMENT
__TI4?AVInvalidBufferException@@ DD 00H
	DD	FLAT:??1InvalidBufferException@@UAE@XZ
	DD	00H
	DD	FLAT:__CTA4?AVInvalidBufferException@@
xdata$x	ENDS
;	COMDAT ??_C@_0CI@MPKJAHJH@Trying?5to?5write?5?$CFlu?5bytes?5to?5?$CFld@
CONST	SEGMENT
??_C@_0CI@MPKJAHJH@Trying?5to?5write?5?$CFlu?5bytes?5to?5?$CFld@ DB 'Tryi'
	DB	'ng to write %lu bytes to %ld buffer', 00H	; `string'
CONST	ENDS
;	COMDAT ??_7InvalidBufferException@@6B@
CONST	SEGMENT
??_7InvalidBufferException@@6B@ DD FLAT:??_R4InvalidBufferException@@6B@ ; InvalidBufferException::`vftable'
	DD	FLAT:??_EInvalidBufferException@@UAEPAXI@Z
	DD	FLAT:?what@exception@std@@UBEPBDXZ
CONST	ENDS
;	COMDAT ??_7BombClass@@6B@
CONST	SEGMENT
??_7BombClass@@6B@ DD FLAT:??_R4BombClass@@6B@		; BombClass::`vftable'
	DD	FLAT:?CustomCollisionCheck@VuEntity@@UAEEPAV1@M@Z
	DD	FLAT:?TerrainCollisionCheck@VuEntity@@UAEEXZ
	DD	FLAT:?IsTarget@VuEntity@@UAEEXZ
	DD	FLAT:?IsSession@VuEntity@@UAEEXZ
	DD	FLAT:?IsGroup@VuEntity@@UAEEXZ
	DD	FLAT:?IsGame@VuEntity@@UAEEXZ
	DD	FLAT:?IsCamera@VuEntity@@UBEEXZ
	DD	FLAT:?SaveSize@BombClass@@UAEHXZ
	DD	FLAT:?Save@BombClass@@UAEHPAU_iobuf@@@Z
	DD	FLAT:?Save@BombClass@@UAEHPAPAE@Z
	DD	FLAT:?Handle@VuEntity@@UAEHPAVVuSessionEvent@@@Z
	DD	FLAT:?Handle@SimWeaponClass@@UAEHPAVVuTransferEvent@@@Z
	DD	FLAT:?Handle@VuEntity@@UAEHPAVVuEntityCollisionEvent@@@Z
	DD	FLAT:?Handle@SimWeaponClass@@UAEHPAVVuPositionUpdateEvent@@@Z
	DD	FLAT:?Handle@SimWeaponClass@@UAEHPAVVuFullUpdateEvent@@@Z
	DD	FLAT:?Handle@VuEntity@@UAEHPAVVuEvent@@@Z
	DD	FLAT:?Handle@VuEntity@@UAEHPAVVuPullRequest@@@Z
	DD	FLAT:?Handle@VuEntity@@UAEHPAVVuPushRequest@@@Z
	DD	FLAT:?Handle@VuEntity@@UAEHPAVVuErrorMessage@@@Z
	DD	FLAT:??_EBombClass@@UAEPAXI@Z
	DD	FLAT:?InsertionCallback@SimMoverClass@@UAEHXZ
	DD	FLAT:?RemovalCallback@SimMoverClass@@UAEHXZ
	DD	FLAT:?InitData@BombClass@@UAEXXZ
	DD	FLAT:?CleanupData@BombClass@@UAEXXZ
	DD	FLAT:?IsSimBase@SimBaseClass@@UAE_NXZ
	DD	FLAT:?IsCampBase@FalconEntity@@UAE_NXZ
	DD	FLAT:?Wake@BombClass@@UAEHXZ
	DD	FLAT:?Sleep@BombClass@@UAEHXZ
	DD	FLAT:?GetCampID@SimBaseClass@@UAEFXZ
	DD	FLAT:?GetTeam@SimBaseClass@@UAEEXZ
	DD	FLAT:?GetCountry@SimBaseClass@@UAEEXZ
	DD	FLAT:?GetDomain@FalconEntity@@UAEEXZ
	DD	FLAT:?GetRadarMode@FalconEntity@@UAEHXZ
	DD	FLAT:?SetRadarMode@FalconEntity@@UAEXE@Z
	DD	FLAT:?ReturnToSearch@FalconEntity@@UAEXXZ
	DD	FLAT:?SetSearchMode@FalconEntity@@UAEXE@Z
	DD	FLAT:?CombatClass@FalconEntity@@UAEHXZ
	DD	FLAT:?OnGround@SimBaseClass@@UAEHXZ
	DD	FLAT:?HasEntity@FalconEntity@@UBEHPAVVuEntity@@@Z
	DD	FLAT:?IsMissile@FalconEntity@@UAEHXZ
	DD	FLAT:?IsLauncher@BombClass@@UAEHXZ
	DD	FLAT:?IsBomb@BombClass@@UAEHXZ
	DD	FLAT:?IsGun@FalconEntity@@UAEHXZ
	DD	FLAT:?IsMover@SimMoverClass@@UAEHXZ
	DD	FLAT:?IsVehicle@FalconEntity@@UAEHXZ
	DD	FLAT:?IsStatic@FalconEntity@@UAEHXZ
	DD	FLAT:?IsHelicopter@FalconEntity@@UAEHXZ
	DD	FLAT:?IsEject@FalconEntity@@UAEHXZ
	DD	FLAT:?IsAirplane@FalconEntity@@UAEHXZ
	DD	FLAT:?IsGroundVehicle@FalconEntity@@UAEHXZ
	DD	FLAT:?IsShip@FalconEntity@@UAEHXZ
	DD	FLAT:?IsWeapon@SimWeaponClass@@UAEHXZ
	DD	FLAT:?IsExploding@SimBaseClass@@UAEHXZ
	DD	FLAT:?IsDead@FalconEntity@@UAEHXZ
	DD	FLAT:?IsEmitting@FalconEntity@@UAEHXZ
	DD	FLAT:?GetVt@SimMoverClass@@UBEMXZ
	DD	FLAT:?GetKias@SimMoverClass@@UBEMXZ
	DD	FLAT:?GetMovementType@SimBaseClass@@UAE?AW4MoveType@@XZ
	DD	FLAT:?IsUnit@FalconEntity@@UAEHXZ
	DD	FLAT:?IsObjective@FalconEntity@@UAEHXZ
	DD	FLAT:?IsBattalion@FalconEntity@@UAEHXZ
	DD	FLAT:?IsBrigade@FalconEntity@@UAEHXZ
	DD	FLAT:?IsFlight@FalconEntity@@UBEHXZ
	DD	FLAT:?IsSquadron@FalconEntity@@UAEHXZ
	DD	FLAT:?IsPackage@FalconEntity@@UAEHXZ
	DD	FLAT:?IsTeam@FalconEntity@@UAEHXZ
	DD	FLAT:?IsTaskForce@FalconEntity@@UAEHXZ
	DD	FLAT:?IsSPJamming@SimBaseClass@@UAEHXZ
	DD	FLAT:?IsAreaJamming@SimBaseClass@@UAEHXZ
	DD	FLAT:?HasSPJamming@SimBaseClass@@UAEHXZ
	DD	FLAT:?HasAreaJamming@SimBaseClass@@UAEHXZ
	DD	FLAT:?GetRCSFactor@FalconEntity@@UAEMXZ
	DD	FLAT:?GetIRFactor@FalconEntity@@UAEMXZ
	DD	FLAT:?GetRadarType@SimWeaponClass@@UAEHXZ
	DD	FLAT:?GetDamageModifiers@FalconEntity@@UAEPAEXZ
	DD	FLAT:?SetAQUIREtimer@FalconEntity@@UAEXK@Z
	DD	FLAT:?SetSEARCHtimer@FalconEntity@@UAEXK@Z
	DD	FLAT:?SetStepSearchMode@FalconEntity@@UAEXE@Z
	DD	FLAT:?GetAQUIREtimer@FalconEntity@@UAEKXZ
	DD	FLAT:?GetSEARCHtimer@FalconEntity@@UAEKXZ
	DD	FLAT:?WeaponKeepAlive@SimMoverClass@@UAEXXZ
	DD	FLAT:?JoinFlight@SimBaseClass@@UAEXXZ
	DD	FLAT:?ChangeOwner@SimMoverClass@@UAEXVVU_ID@@@Z
	DD	FLAT:?MakeLocal@SimMoverClass@@UAEXXZ
	DD	FLAT:?MakeRemote@SimMoverClass@@UAEXXZ
	DD	FLAT:?IsDead@SimBaseClass@@UBEHXZ
	DD	FLAT:?Init@BombClass@@UAEXPAVSimInitDataClass@@@Z
	DD	FLAT:?Exec@BombClass@@UAEHXZ
	DD	FLAT:?GetTransform@BombClass@@UAEXQAY02M@Z
	DD	FLAT:?ApplyDamage@SimBaseClass@@UAEXPAVFalconDamageMessage@@@Z
	DD	FLAT:?ApplyDeathMessage@SimBaseClass@@UAEXPAVFalconDeathMessage@@@Z
	DD	FLAT:?SetDead@SimWeaponClass@@UAEXH@Z
	DD	FLAT:?MakePlayerVehicle@SimBaseClass@@UAEXXZ
	DD	FLAT:?MakeNonPlayerVehicle@SimBaseClass@@UAEXXZ
	DD	FLAT:?ConfigurePlayerAvionics@SimBaseClass@@UAEXXZ
	DD	FLAT:?SetVuPosition@BombClass@@UAEXXZ
	DD	FLAT:?Regenerate@SimBaseClass@@UAEXMMMM@Z
	DD	FLAT:?Mass@SimBaseClass@@UAEMXZ
	DD	FLAT:?GetFocusPoint@SimBaseClass@@UAEXAAM00@Z
	DD	FLAT:?GetP@SimMoverClass@@UAEMXZ
	DD	FLAT:?GetQ@SimMoverClass@@UAEMXZ
	DD	FLAT:?GetR@SimMoverClass@@UAEMXZ
	DD	FLAT:?GetAlpha@SimMoverClass@@UAEMXZ
	DD	FLAT:?GetBeta@SimMoverClass@@UAEMXZ
	DD	FLAT:?GetNx@SimMoverClass@@UAEMXZ
	DD	FLAT:?GetNy@SimMoverClass@@UAEMXZ
	DD	FLAT:?GetNz@SimMoverClass@@UAEMXZ
	DD	FLAT:?GetGamma@SimMoverClass@@UAEMXZ
	DD	FLAT:?GetSigma@SimMoverClass@@UAEMXZ
	DD	FLAT:?GetMu@SimMoverClass@@UAEMXZ
	DD	FLAT:?SetLead@SimMoverClass@@UAEXH@Z
	DD	FLAT:?FeatureCollision@SimMoverClass@@UAEPAVSimBaseClass@@M@Z
	DD	FLAT:?CheckLOS@SimMoverClass@@UAEHPAVSimObjectType@@@Z
	DD	FLAT:?CheckCompositeLOS@SimMoverClass@@UAEHPAVSimObjectType@@@Z
	DD	FLAT:?Init@BombClass@@UAEXXZ
	DD	FLAT:?IsUseable@BombClass@@UAEHXZ
	DD	FLAT:?LaunchDelayTime@SimWeaponClass@@UAEHXZ
	DD	FLAT:?UpdateTrail@BombClass@@MAEXXZ
	DD	FLAT:?RemoveTrail@BombClass@@MAEXXZ
	DD	FLAT:?InitTrail@BombClass@@MAEXXZ
	DD	FLAT:?DoExplosion@BombClass@@MAEXXZ
	DD	FLAT:?ExtraGraphics@BombClass@@MAEXXZ
	DD	FLAT:?SpecialGraphics@BombClass@@MAEXXZ
	DD	FLAT:?Start@BombClass@@UAEXPAUvector@@0MPAVSimObjectType@@@Z
	DD	FLAT:?CreateGfx@BombClass@@UAEXXZ
	DD	FLAT:?DestroyGfx@BombClass@@UAEXXZ
CONST	ENDS
;	COMDAT ??_C@_06FHFOAHML@system?$AA@
CONST	SEGMENT
??_C@_06FHFOAHML@system?$AA@ DB 'system', 00H		; `string'
CONST	ENDS
;	COMDAT ??_7_System_error_category@std@@6B@
CONST	SEGMENT
??_7_System_error_category@std@@6B@ DD FLAT:??_R4_System_error_category@std@@6B@ ; std::_System_error_category::`vftable'
	DD	FLAT:??_E_System_error_category@std@@UAEPAXI@Z
	DD	FLAT:?name@_System_error_category@std@@UBEPBDXZ
	DD	FLAT:?message@_System_error_category@std@@UBE?AV?$basic_string@DU?$char_traits@D@std@@V?$allocator@D@2@@2@H@Z
	DD	FLAT:?default_error_condition@_System_error_category@std@@UBE?AVerror_condition@2@H@Z
	DD	FLAT:?equivalent@error_category@std@@UBE_NABVerror_code@2@H@Z
	DD	FLAT:?equivalent@error_category@std@@UBE_NHABVerror_condition@2@@Z
CONST	ENDS
;	COMDAT ??_C@_0BG@PADBLCHM@iostream?5stream?5error?$AA@
CONST	SEGMENT
??_C@_0BG@PADBLCHM@iostream?5stream?5error?$AA@ DB 'iostream stream error'
	DB	00H						; `string'
CONST	ENDS
;	COMDAT ??_C@_08LLGCOLLL@iostream?$AA@
CONST	SEGMENT
??_C@_08LLGCOLLL@iostream?$AA@ DB 'iostream', 00H	; `string'
CONST	ENDS
;	COMDAT ??_7_Iostream_error_category@std@@6B@
CONST	SEGMENT
??_7_Iostream_error_category@std@@6B@ DD FLAT:??_R4_Iostream_error_category@std@@6B@ ; std::_Iostream_error_category::`vftable'
	DD	FLAT:??_E_Iostream_error_category@std@@UAEPAXI@Z
	DD	FLAT:?name@_Iostream_error_category@std@@UBEPBDXZ
	DD	FLAT:?message@_Iostream_error_category@std@@UBE?AV?$basic_string@DU?$char_traits@D@std@@V?$allocator@D@2@@2@H@Z
	DD	FLAT:?default_error_condition@error_category@std@@UBE?AVerror_condition@2@H@Z
	DD	FLAT:?equivalent@error_category@std@@UBE_NABVerror_code@2@H@Z
	DD	FLAT:?equivalent@error_category@std@@UBE_NHABVerror_condition@2@@Z
CONST	ENDS
;	COMDAT ??_C@_0O@BFJCFAAK@unknown?5error?$AA@
CONST	SEGMENT
??_C@_0O@BFJCFAAK@unknown?5error?$AA@ DB 'unknown error', 00H ; `string'
CONST	ENDS
;	COMDAT ??_C@_07DCLBNMLN@generic?$AA@
CONST	SEGMENT
??_C@_07DCLBNMLN@generic?$AA@ DB 'generic', 00H		; `string'
CONST	ENDS
;	COMDAT ??_7_Generic_error_category@std@@6B@
CONST	SEGMENT
??_7_Generic_error_category@std@@6B@ DD FLAT:??_R4_Generic_error_category@std@@6B@ ; std::_Generic_error_category::`vftable'
	DD	FLAT:??_E_Generic_error_category@std@@UAEPAXI@Z
	DD	FLAT:?name@_Generic_error_category@std@@UBEPBDXZ
	DD	FLAT:?message@_Generic_error_category@std@@UBE?AV?$basic_string@DU?$char_traits@D@std@@V?$allocator@D@2@@2@H@Z
	DD	FLAT:?default_error_condition@error_category@std@@UBE?AVerror_condition@2@H@Z
	DD	FLAT:?equivalent@error_category@std@@UBE_NABVerror_code@2@H@Z
	DD	FLAT:?equivalent@error_category@std@@UBE_NHABVerror_condition@2@@Z
CONST	ENDS
;	COMDAT ??_7error_category@std@@6B@
CONST	SEGMENT
??_7error_category@std@@6B@ DD FLAT:??_R4error_category@std@@6B@ ; std::error_category::`vftable'
	DD	FLAT:??_Eerror_category@std@@UAEPAXI@Z
	DD	FLAT:__purecall
	DD	FLAT:__purecall
	DD	FLAT:?default_error_condition@error_category@std@@UBE?AVerror_condition@2@H@Z
	DD	FLAT:?equivalent@error_category@std@@UBE_NABVerror_code@2@H@Z
	DD	FLAT:?equivalent@error_category@std@@UBE_NHABVerror_condition@2@@Z
CONST	ENDS
;	COMDAT __CT??_R0?AVexception@std@@@8??0exception@std@@QAE@ABV01@@Z12
xdata$x	SEGMENT
__CT??_R0?AVexception@std@@@8??0exception@std@@QAE@ABV01@@Z12 DD 00H
	DD	FLAT:??_R0?AVexception@std@@@8
	DD	00H
	DD	0ffffffffH
	ORG $+4
	DD	0cH
	DD	FLAT:??0exception@std@@QAE@ABV01@@Z
xdata$x	ENDS
;	COMDAT ??_R0?AVexception@std@@@8
_DATA	SEGMENT
??_R0?AVexception@std@@@8 DD FLAT:??_7type_info@@6B@	; std::exception `RTTI Type Descriptor'
	DD	00H
	DB	'.?AVexception@std@@', 00H
_DATA	ENDS
;	COMDAT ??_7out_of_range@std@@6B@
CONST	SEGMENT
??_7out_of_range@std@@6B@ DD FLAT:??_R4out_of_range@std@@6B@ ; std::out_of_range::`vftable'
	DD	FLAT:??_Eout_of_range@std@@UAEPAXI@Z
	DD	FLAT:?what@exception@std@@UBEPBDXZ
CONST	ENDS
;	COMDAT ??_7logic_error@std@@6B@
CONST	SEGMENT
??_7logic_error@std@@6B@ DD FLAT:??_R4logic_error@std@@6B@ ; std::logic_error::`vftable'
	DD	FLAT:??_Elogic_error@std@@UAEPAXI@Z
	DD	FLAT:?what@exception@std@@UBEPBDXZ
CONST	ENDS
;	COMDAT xdata$x
xdata$x	SEGMENT
__unwindtable$??$construct@PADAAPAD@?$allocator@D@std@@QAEXPAPADAAPAD@Z DD 0ffffffffH
	DD	FLAT:__unwindfunclet$??$construct@PADAAPAD@?$allocator@D@std@@QAEXPAPADAAPAD@Z$0
__ehfuncinfo$??$construct@PADAAPAD@?$allocator@D@std@@QAEXPAPADAAPAD@Z DD 019930522H
	DD	01H
	DD	FLAT:__unwindtable$??$construct@PADAAPAD@?$allocator@D@std@@QAEXPAPADAAPAD@Z
	DD	2 DUP(00H)
	DD	2 DUP(00H)
	DD	00H
	DD	01H
xdata$x	ENDS
;	COMDAT xdata$x
xdata$x	SEGMENT
__unwindtable$?memcpychk@@YAXPAXPAPAEIPAJ@Z DD 0ffffffffH
	DD	FLAT:__unwindfunclet$?memcpychk@@YAXPAXPAPAEIPAJ@Z$0
__ehfuncinfo$?memcpychk@@YAXPAXPAPAEIPAJ@Z DD 019930522H
	DD	01H
	DD	FLAT:__unwindtable$?memcpychk@@YAXPAXPAPAEIPAJ@Z
	DD	2 DUP(00H)
	DD	2 DUP(00H)
	DD	00H
	DD	01H
xdata$x	ENDS
xdata$x	SEGMENT
__unwindtable$??1BombClass@@UAE@XZ DD 0ffffffffH
	DD	FLAT:__unwindfunclet$??1BombClass@@UAE@XZ$0
__unwindtable$??0BombClass@@QAE@HW4BombType@0@@Z DD 0ffffffffH
	DD	FLAT:__unwindfunclet$??0BombClass@@QAE@HW4BombType@0@@Z$0
__unwindtable$??0BombClass@@QAE@PAU_iobuf@@@Z DD 0ffffffffH
	DD	FLAT:__unwindfunclet$??0BombClass@@QAE@PAU_iobuf@@@Z$0
__unwindtable$??0BombClass@@QAE@PAPAEPAJ@Z DD 0ffffffffH
	DD	FLAT:__unwindfunclet$??0BombClass@@QAE@PAPAEPAJ@Z$0
__unwindtable$?DoExplosion@BombClass@@MAEXXZ DD 0ffffffffH
	DD	FLAT:__unwindfunclet$?DoExplosion@BombClass@@MAEXXZ$0
__unwindtable$?Exec@BombClass@@UAEHXZ DD 0ffffffffH
	DD	FLAT:__unwindfunclet$?Exec@BombClass@@UAEHXZ$0
	DD	0ffffffffH
	DD	FLAT:__unwindfunclet$?Exec@BombClass@@UAEHXZ$1
	DD	0ffffffffH
	DD	FLAT:__unwindfunclet$?Exec@BombClass@@UAEHXZ$2
__unwindtable$?ApplyProximityDamage@BombClass@@IAEXMM@Z DD 0ffffffffH
	DD	FLAT:__unwindfunclet$?ApplyProximityDamage@BombClass@@IAEXMM@Z$0
	DD	00H
	DD	FLAT:__unwindfunclet$?ApplyProximityDamage@BombClass@@IAEXMM@Z$1
	DD	00H
	DD	FLAT:__unwindfunclet$?ApplyProximityDamage@BombClass@@IAEXMM@Z$2
__ehfuncinfo$?Exec@BombClass@@UAEHXZ DD 019930522H
	DD	03H
	DD	FLAT:__unwindtable$?Exec@BombClass@@UAEHXZ
	DD	2 DUP(00H)
	DD	2 DUP(00H)
	DD	00H
	DD	01H
__ehfuncinfo$??1BombClass@@UAE@XZ DD 019930522H
	DD	01H
	DD	FLAT:__unwindtable$??1BombClass@@UAE@XZ
	DD	2 DUP(00H)
	DD	2 DUP(00H)
	DD	00H
	DD	01H
__ehfuncinfo$??0BombClass@@QAE@HW4BombType@0@@Z DD 019930522H
	DD	01H
	DD	FLAT:__unwindtable$??0BombClass@@QAE@HW4BombType@0@@Z
	DD	2 DUP(00H)
	DD	2 DUP(00H)
	DD	00H
	DD	01H
__ehfuncinfo$??0BombClass@@QAE@PAU_iobuf@@@Z DD 019930522H
	DD	01H
	DD	FLAT:__unwindtable$??0BombClass@@QAE@PAU_iobuf@@@Z
	DD	2 DUP(00H)
	DD	2 DUP(00H)
	DD	00H
	DD	01H
__ehfuncinfo$??0BombClass@@QAE@PAPAEPAJ@Z DD 019930522H
	DD	01H
	DD	FLAT:__unwindtable$??0BombClass@@QAE@PAPAEPAJ@Z
	DD	2 DUP(00H)
	DD	2 DUP(00H)
	DD	00H
	DD	01H
__ehfuncinfo$?ApplyProximityDamage@BombClass@@IAEXMM@Z DD 019930522H
	DD	03H
	DD	FLAT:__unwindtable$?ApplyProximityDamage@BombClass@@IAEXMM@Z
	DD	2 DUP(00H)
	DD	2 DUP(00H)
	DD	00H
	DD	01H
__ehfuncinfo$?DoExplosion@BombClass@@MAEXXZ DD 019930522H
	DD	01H
	DD	FLAT:__unwindtable$?DoExplosion@BombClass@@MAEXXZ
	DD	2 DUP(00H)
	DD	2 DUP(00H)
	DD	00H
	DD	01H
xdata$x	ENDS
;	COMDAT xdata$x
xdata$x	SEGMENT
__catchsym$?_Copy@?$basic_string@DU?$char_traits@D@std@@V?$allocator@D@2@@std@@QAEXII@Z$5 DD 040H
	DD	00H
	DD	00H
	DD	FLAT:__catch$?_Copy@?$basic_string@DU?$char_traits@D@std@@V?$allocator@D@2@@std@@QAEXII@Z$0
__catchsym$?_Copy@?$basic_string@DU?$char_traits@D@std@@V?$allocator@D@2@@std@@QAEXII@Z$4 DD 040H
	DD	00H
	DD	00H
	DD	FLAT:__catch$?_Copy@?$basic_string@DU?$char_traits@D@std@@V?$allocator@D@2@@std@@QAEXII@Z$1
__unwindtable$?_Copy@?$basic_string@DU?$char_traits@D@std@@V?$allocator@D@2@@std@@QAEXII@Z DD 0ffffffffH
	DD	00H
	DD	0ffffffffH
	DD	00H
	DD	01H
	DD	00H
	DD	01H
	DD	00H
__ehfuncinfo$?_Copy@?$basic_string@DU?$char_traits@D@std@@V?$allocator@D@2@@std@@QAEXII@Z DD 019930522H
	DD	04H
	DD	FLAT:__unwindtable$?_Copy@?$basic_string@DU?$char_traits@D@std@@V?$allocator@D@2@@std@@QAEXII@Z
	DD	02H
	DD	FLAT:__tryblocktable$?_Copy@?$basic_string@DU?$char_traits@D@std@@V?$allocator@D@2@@std@@QAEXII@Z
	DD	2 DUP(00H)
	DD	00H
	DD	01H
__tryblocktable$?_Copy@?$basic_string@DU?$char_traits@D@std@@V?$allocator@D@2@@std@@QAEXII@Z DD 02H
	DD	02H
	DD	03H
	DD	01H
	DD	FLAT:__catchsym$?_Copy@?$basic_string@DU?$char_traits@D@std@@V?$allocator@D@2@@std@@QAEXII@Z$4
	DD	00H
	DD	00H
	DD	03H
	DD	01H
	DD	FLAT:__catchsym$?_Copy@?$basic_string@DU?$char_traits@D@std@@V?$allocator@D@2@@std@@QAEXII@Z$5
xdata$x	ENDS
CRT$XCU	SEGMENT
_allocator_arg$initializer$ DD FLAT:??__Eallocator_arg@std@@YAXXZ
CRT$XCU	ENDS
;	COMDAT CRT$XCU
CRT$XCU	SEGMENT
?_Generic_object$initializer$@?$_Error_objects@H@std@@2P6AXXZA DD FLAT:??__E?_Generic_object@?$_Error_objects@H@std@@2V_Generic_error_category@2@A@@YAXXZ ; std::_Error_objects<int>::_Generic_object$initializer$
CRT$XCU	ENDS
;	COMDAT CRT$XCU
CRT$XCU	SEGMENT
?_Iostream_object$initializer$@?$_Error_objects@H@std@@2P6AXXZA DD FLAT:??__E?_Iostream_object@?$_Error_objects@H@std@@2V_Iostream_error_category@2@A@@YAXXZ ; std::_Error_objects<int>::_Iostream_object$initializer$
CRT$XCU	ENDS
;	COMDAT CRT$XCU
CRT$XCU	SEGMENT
?_System_object$initializer$@?$_Error_objects@H@std@@2P6AXXZA DD FLAT:??__E?_System_object@?$_Error_objects@H@std@@2V_System_error_category@2@A@@YAXXZ ; std::_Error_objects<int>::_System_object$initializer$
CRT$XCU	ENDS
;	COMDAT CRT$XCU
CRT$XCU	SEGMENT
?id$initializer$@?$num_put@DV?$back_insert_iterator@V?$basic_string@DU?$char_traits@D@std@@V?$allocator@D@2@@std@@@std@@@std@@2P6AXXZA DD FLAT:??__E?id@?$num_put@DV?$back_insert_iterator@V?$basic_string@DU?$char_traits@D@std@@V?$allocator@D@2@@std@@@std@@@std@@2V0locale@2@A@@YAXXZ ; std::num_put<char,std::back_insert_iterator<std::basic_string<char,std::char_traits<char>,std::allocator<char> > > >::id$initializer$
CRT$XCU	ENDS
;	COMDAT CRT$XCU
CRT$XCU	SEGMENT
?id$initializer$@?$num_put@_WV?$back_insert_iterator@V?$basic_string@_WU?$char_traits@_W@std@@V?$allocator@_W@2@@std@@@std@@@std@@2P6AXXZA DD FLAT:??__E?id@?$num_put@_WV?$back_insert_iterator@V?$basic_string@_WU?$char_traits@_W@std@@V?$allocator@_W@2@@std@@@std@@@std@@2V0locale@2@A@@YAXXZ ; std::num_put<wchar_t,std::back_insert_iterator<std::basic_string<wchar_t,std::char_traits<wchar_t>,std::allocator<wchar_t> > > >::id$initializer$
CRT$XCU	ENDS
;	COMDAT CRT$XCU
CRT$XCU	SEGMENT
?id$initializer$@?$numpunct@D@std@@2P6AXXZA DD FLAT:??__E?id@?$numpunct@D@std@@2V0locale@2@A@@YAXXZ ; std::numpunct<char>::id$initializer$
CRT$XCU	ENDS
;	COMDAT CRT$XCU
CRT$XCU	SEGMENT
?id$initializer$@?$numpunct@_W@std@@2P6AXXZA DD FLAT:??__E?id@?$numpunct@_W@std@@2V0locale@2@A@@YAXXZ ; std::numpunct<wchar_t>::id$initializer$
CRT$XCU	ENDS
; Function compile flags: /Odtp
; File c:\program files (x86)\microsoft visual studio 11.0\vc\include\xmemory0
;	COMDAT ??$destroy@PAD@?$allocator@D@std@@QAEXPAPAD@Z
_TEXT	SEGMENT
_this$ = -4						; size = 4
__Ptr$ = 8						; size = 4
??$destroy@PAD@?$allocator@D@std@@QAEXPAPAD@Z PROC	; std::allocator<char>::destroy<char *>, COMDAT
; _this$ = ecx

; 621  : 		void destroy(_Uty *_Ptr)

	push	ebp
	mov	ebp, esp
	push	ecx
	mov	DWORD PTR _this$[ebp], ecx

; 622  : 		{	// destroy object at _Ptr
; 623  : 		_Ptr->~_Uty();
; 624  : 		}

	mov	esp, ebp
	pop	ebp
	ret	4
??$destroy@PAD@?$allocator@D@std@@QAEXPAPAD@Z ENDP	; std::allocator<char>::destroy<char *>
_TEXT	ENDS
; Function compile flags: /Odtp
; File c:\program files (x86)\microsoft visual studio 11.0\vc\include\xmemory0
;	COMDAT ??$construct@PADAAPAD@?$allocator@D@std@@QAEXPAPADAAPAD@Z
_TEXT	SEGMENT
$T2 = -28						; size = 4
_this$ = -24						; size = 4
tv73 = -20						; size = 4
$T3 = -16						; size = 4
__$EHRec$ = -12						; size = 12
__Ptr$ = 8						; size = 4
__V0$ = 12						; size = 4
??$construct@PADAAPAD@?$allocator@D@std@@QAEXPAPADAAPAD@Z PROC ; std::allocator<char>::construct<char *,char * &>, COMDAT
; _this$ = ecx

; 617  : _VARIADIC_EXPAND_0X(_ALLOC_MEMBER_CONSTRUCT, , , , )

	push	ebp
	mov	ebp, esp
	push	-1
	push	__ehhandler$??$construct@PADAAPAD@?$allocator@D@std@@QAEXPAPADAAPAD@Z
	mov	eax, DWORD PTR fs:0
	push	eax
	sub	esp, 16					; 00000010H
	mov	eax, DWORD PTR ___security_cookie
	xor	eax, ebp
	push	eax
	lea	eax, DWORD PTR __$EHRec$[ebp]
	mov	DWORD PTR fs:0, eax
	mov	DWORD PTR _this$[ebp], ecx
	mov	eax, DWORD PTR __Ptr$[ebp]
	push	eax
	push	4
	call	??2@YAPAXIPAX@Z				; operator new
	add	esp, 8
	mov	DWORD PTR $T3[ebp], eax
	mov	DWORD PTR __$EHRec$[ebp+8], 0
	cmp	DWORD PTR $T3[ebp], 0
	je	SHORT $LN3@construct
	mov	ecx, DWORD PTR __V0$[ebp]
	push	ecx
	call	??$forward@AAPAD@std@@YAAAPADAAPAD@Z	; std::forward<char * &>
	add	esp, 4
	mov	edx, DWORD PTR $T3[ebp]
	mov	eax, DWORD PTR [eax]
	mov	DWORD PTR [edx], eax
	mov	ecx, DWORD PTR $T3[ebp]
	mov	DWORD PTR tv73[ebp], ecx
	jmp	SHORT $LN4@construct
$LN3@construct:
	mov	DWORD PTR tv73[ebp], 0
$LN4@construct:
	mov	edx, DWORD PTR tv73[ebp]
	mov	DWORD PTR $T2[ebp], edx
	mov	DWORD PTR __$EHRec$[ebp+8], -1
	mov	ecx, DWORD PTR __$EHRec$[ebp]
	mov	DWORD PTR fs:0, ecx
	pop	ecx
	mov	esp, ebp
	pop	ebp
	ret	8
_TEXT	ENDS
;	COMDAT text$x
text$x	SEGMENT
__unwindfunclet$??$construct@PADAAPAD@?$allocator@D@std@@QAEXPAPADAAPAD@Z$0:
	mov	eax, DWORD PTR __Ptr$[ebp]
	push	eax
	mov	eax, DWORD PTR $T3[ebp]
	push	eax
	call	??3@YAXPAX0@Z				; operator delete
	add	esp, 8
	ret	0
__ehhandler$??$construct@PADAAPAD@?$allocator@D@std@@QAEXPAPADAAPAD@Z:
	mov	edx, DWORD PTR [esp+8]
	lea	eax, DWORD PTR [edx+12]
	mov	ecx, DWORD PTR [edx-20]
	xor	ecx, eax
	call	@__security_check_cookie@4
	mov	eax, OFFSET __ehfuncinfo$??$construct@PADAAPAD@?$allocator@D@std@@QAEXPAPADAAPAD@Z
	jmp	___CxxFrameHandler3
text$x	ENDS
??$construct@PADAAPAD@?$allocator@D@std@@QAEXPAPADAAPAD@Z ENDP ; std::allocator<char>::construct<char *,char * &>
; Function compile flags: /Odtp
; File c:\program files (x86)\microsoft visual studio 11.0\vc\include\xlocnum
;	COMDAT ??__E?id@?$numpunct@_W@std@@2V0locale@2@A@@YAXXZ
text$yc	SEGMENT
??__E?id@?$numpunct@_W@std@@2V0locale@2@A@@YAXXZ PROC	; `dynamic initializer for 'std::numpunct<wchar_t>::id'', COMDAT

; 155  : 		void _Getvals(wchar_t, const lconv *_Ptr, _Locinfo::_Cvtvec)

	push	ebp
	mov	ebp, esp
	push	0
	mov	ecx, OFFSET ?id@?$numpunct@_W@std@@2V0locale@2@A ; std::numpunct<wchar_t>::id
	call	??0id@locale@std@@QAE@I@Z		; std::locale::id::id
	pop	ebp
	ret	0
??__E?id@?$numpunct@_W@std@@2V0locale@2@A@@YAXXZ ENDP	; `dynamic initializer for 'std::numpunct<wchar_t>::id''
text$yc	ENDS
; Function compile flags: /Odtp
; File c:\program files (x86)\microsoft visual studio 11.0\vc\include\xlocnum
;	COMDAT ??__E?id@?$numpunct@D@std@@2V0locale@2@A@@YAXXZ
text$yc	SEGMENT
??__E?id@?$numpunct@D@std@@2V0locale@2@A@@YAXXZ PROC	; `dynamic initializer for 'std::numpunct<char>::id'', COMDAT

; 155  : 		void _Getvals(wchar_t, const lconv *_Ptr, _Locinfo::_Cvtvec)

	push	ebp
	mov	ebp, esp
	push	0
	mov	ecx, OFFSET ?id@?$numpunct@D@std@@2V0locale@2@A ; std::numpunct<char>::id
	call	??0id@locale@std@@QAE@I@Z		; std::locale::id::id
	pop	ebp
	ret	0
??__E?id@?$numpunct@D@std@@2V0locale@2@A@@YAXXZ ENDP	; `dynamic initializer for 'std::numpunct<char>::id''
text$yc	ENDS
; Function compile flags: /Odtp
; File c:\program files (x86)\microsoft visual studio 11.0\vc\include\xlocnum
;	COMDAT ??__E?id@?$num_put@_WV?$back_insert_iterator@V?$basic_string@_WU?$char_traits@_W@std@@V?$allocator@_W@2@@std@@@std@@@std@@2V0locale@2@A@@YAXXZ
text$yc	SEGMENT
??__E?id@?$num_put@_WV?$back_insert_iterator@V?$basic_string@_WU?$char_traits@_W@std@@V?$allocator@_W@2@@std@@@std@@@std@@2V0locale@2@A@@YAXXZ PROC ; `dynamic initializer for 'std::num_put<wchar_t,std::back_insert_iterator<std::basic_string<wchar_t,std::char_traits<wchar_t>,std::allocator<wchar_t> > > >::id'', COMDAT

; 155  : 		void _Getvals(wchar_t, const lconv *_Ptr, _Locinfo::_Cvtvec)

	push	ebp
	mov	ebp, esp
	push	0
	mov	ecx, OFFSET ?id@?$num_put@_WV?$back_insert_iterator@V?$basic_string@_WU?$char_traits@_W@std@@V?$allocator@_W@2@@std@@@std@@@std@@2V0locale@2@A ; std::num_put<wchar_t,std::back_insert_iterator<std::basic_string<wchar_t,std::char_traits<wchar_t>,std::allocator<wchar_t> > > >::id
	call	??0id@locale@std@@QAE@I@Z		; std::locale::id::id
	pop	ebp
	ret	0
??__E?id@?$num_put@_WV?$back_insert_iterator@V?$basic_string@_WU?$char_traits@_W@std@@V?$allocator@_W@2@@std@@@std@@@std@@2V0locale@2@A@@YAXXZ ENDP ; `dynamic initializer for 'std::num_put<wchar_t,std::back_insert_iterator<std::basic_string<wchar_t,std::char_traits<wchar_t>,std::allocator<wchar_t> > > >::id''
text$yc	ENDS
; Function compile flags: /Odtp
; File c:\program files (x86)\microsoft visual studio 11.0\vc\include\xlocnum
;	COMDAT ??__E?id@?$num_put@DV?$back_insert_iterator@V?$basic_string@DU?$char_traits@D@std@@V?$allocator@D@2@@std@@@std@@@std@@2V0locale@2@A@@YAXXZ
text$yc	SEGMENT
??__E?id@?$num_put@DV?$back_insert_iterator@V?$basic_string@DU?$char_traits@D@std@@V?$allocator@D@2@@std@@@std@@@std@@2V0locale@2@A@@YAXXZ PROC ; `dynamic initializer for 'std::num_put<char,std::back_insert_iterator<std::basic_string<char,std::char_traits<char>,std::allocator<char> > > >::id'', COMDAT

; 155  : 		void _Getvals(wchar_t, const lconv *_Ptr, _Locinfo::_Cvtvec)

	push	ebp
	mov	ebp, esp
	push	0
	mov	ecx, OFFSET ?id@?$num_put@DV?$back_insert_iterator@V?$basic_string@DU?$char_traits@D@std@@V?$allocator@D@2@@std@@@std@@@std@@2V0locale@2@A ; std::num_put<char,std::back_insert_iterator<std::basic_string<char,std::char_traits<char>,std::allocator<char> > > >::id
	call	??0id@locale@std@@QAE@I@Z		; std::locale::id::id
	pop	ebp
	ret	0
??__E?id@?$num_put@DV?$back_insert_iterator@V?$basic_string@DU?$char_traits@D@std@@V?$allocator@D@2@@std@@@std@@@std@@2V0locale@2@A@@YAXXZ ENDP ; `dynamic initializer for 'std::num_put<char,std::back_insert_iterator<std::basic_string<char,std::char_traits<char>,std::allocator<char> > > >::id''
text$yc	ENDS
; Function compile flags: /Odtp
; File c:\program files (x86)\microsoft visual studio 11.0\vc\include\xmemory0
;	COMDAT ??$destroy@PAD@?$allocator_traits@V?$allocator@D@std@@@std@@SAXAAV?$allocator@D@1@PAPAD@Z
_TEXT	SEGMENT
__Al$ = 8						; size = 4
__Ptr$ = 12						; size = 4
??$destroy@PAD@?$allocator_traits@V?$allocator@D@std@@@std@@SAXAAV?$allocator@D@1@PAPAD@Z PROC ; std::allocator_traits<std::allocator<char> >::destroy<char *>, COMDAT

; 755  : 		static void destroy(_Alloc& _Al, _Uty *_Ptr)

	push	ebp
	mov	ebp, esp

; 756  : 		{	// destroy object at _Ptr
; 757  : 		_Al.destroy(_Ptr);

	mov	eax, DWORD PTR __Ptr$[ebp]
	push	eax
	mov	ecx, DWORD PTR __Al$[ebp]
	call	??$destroy@PAD@?$allocator@D@std@@QAEXPAPAD@Z ; std::allocator<char>::destroy<char *>

; 758  : 		}

	pop	ebp
	ret	0
??$destroy@PAD@?$allocator_traits@V?$allocator@D@std@@@std@@SAXAAV?$allocator@D@1@PAPAD@Z ENDP ; std::allocator_traits<std::allocator<char> >::destroy<char *>
_TEXT	ENDS
; Function compile flags: /Odtp
; File c:\program files (x86)\microsoft visual studio 11.0\vc\include\xmemory0
;	COMDAT ??$construct@PADAAPAD@?$allocator_traits@V?$allocator@D@std@@@std@@SAXAAV?$allocator@D@1@PAPADAAPAD@Z
_TEXT	SEGMENT
__Al$ = 8						; size = 4
__Ptr$ = 12						; size = 4
__V0$ = 16						; size = 4
??$construct@PADAAPAD@?$allocator_traits@V?$allocator@D@std@@@std@@SAXAAV?$allocator@D@1@PAPADAAPAD@Z PROC ; std::allocator_traits<std::allocator<char> >::construct<char *,char * &>, COMDAT

; 751  : _VARIADIC_EXPAND_0X(_ALLOC_TRAITS_SPECIAL_CONSTRUCT, , , , )

	push	ebp
	mov	ebp, esp
	mov	eax, DWORD PTR __V0$[ebp]
	push	eax
	call	??$forward@AAPAD@std@@YAAAPADAAPAD@Z	; std::forward<char * &>
	add	esp, 4
	push	eax
	mov	ecx, DWORD PTR __Ptr$[ebp]
	push	ecx
	mov	ecx, DWORD PTR __Al$[ebp]
	call	??$construct@PADAAPAD@?$allocator@D@std@@QAEXPAPADAAPAD@Z ; std::allocator<char>::construct<char *,char * &>
	pop	ebp
	ret	0
??$construct@PADAAPAD@?$allocator_traits@V?$allocator@D@std@@@std@@SAXAAV?$allocator@D@1@PAPADAAPAD@Z ENDP ; std::allocator_traits<std::allocator<char> >::construct<char *,char * &>
_TEXT	ENDS
; Function compile flags: /Odtp
; File c:\program files (x86)\microsoft visual studio 11.0\vc\include\type_traits
;	COMDAT ??$forward@AAPAD@std@@YAAAPADAAPAD@Z
_TEXT	SEGMENT
__Arg$ = 8						; size = 4
??$forward@AAPAD@std@@YAAAPADAAPAD@Z PROC		; std::forward<char * &>, COMDAT

; 1775 : 	{	// forward an lvalue

	push	ebp
	mov	ebp, esp

; 1776 : 	return (static_cast<_Ty&&>(_Arg));

	mov	eax, DWORD PTR __Arg$[ebp]

; 1777 : 	}

	pop	ebp
	ret	0
??$forward@AAPAD@std@@YAAAPADAAPAD@Z ENDP		; std::forward<char * &>
_TEXT	ENDS
; Function compile flags: /Odtp
;	COMDAT ??__F?_System_object@?$_Error_objects@H@std@@2V_System_error_category@2@A@@YAXXZ
text$yd	SEGMENT
??__F?_System_object@?$_Error_objects@H@std@@2V_System_error_category@2@A@@YAXXZ PROC ; `dynamic atexit destructor for 'std::_Error_objects<int>::_System_object'', COMDAT
	push	ebp
	mov	ebp, esp
	mov	ecx, OFFSET ?_System_object@?$_Error_objects@H@std@@2V_System_error_category@2@A ; std::_Error_objects<int>::_System_object
	call	??1_System_error_category@std@@UAE@XZ
	pop	ebp
	ret	0
??__F?_System_object@?$_Error_objects@H@std@@2V_System_error_category@2@A@@YAXXZ ENDP ; `dynamic atexit destructor for 'std::_Error_objects<int>::_System_object''
text$yd	ENDS
; Function compile flags: /Odtp
; File c:\program files (x86)\microsoft visual studio 11.0\vc\include\xmemory0
;	COMDAT ??__E?_System_object@?$_Error_objects@H@std@@2V_System_error_category@2@A@@YAXXZ
text$yc	SEGMENT
??__E?_System_object@?$_Error_objects@H@std@@2V_System_error_category@2@A@@YAXXZ PROC ; `dynamic initializer for 'std::_Error_objects<int>::_System_object'', COMDAT

; 627  : 		{	// estimate maximum array size

	push	ebp
	mov	ebp, esp
	mov	ecx, OFFSET ?_System_object@?$_Error_objects@H@std@@2V_System_error_category@2@A ; std::_Error_objects<int>::_System_object
	call	??0_System_error_category@std@@QAE@XZ	; std::_System_error_category::_System_error_category
	push	OFFSET ??__F?_System_object@?$_Error_objects@H@std@@2V_System_error_category@2@A@@YAXXZ ; `dynamic atexit destructor for 'std::_Error_objects<int>::_System_object''
	call	_atexit
	add	esp, 4
	pop	ebp
	ret	0
??__E?_System_object@?$_Error_objects@H@std@@2V_System_error_category@2@A@@YAXXZ ENDP ; `dynamic initializer for 'std::_Error_objects<int>::_System_object''
text$yc	ENDS
; Function compile flags: /Odtp
;	COMDAT ??__F?_Iostream_object@?$_Error_objects@H@std@@2V_Iostream_error_category@2@A@@YAXXZ
text$yd	SEGMENT
??__F?_Iostream_object@?$_Error_objects@H@std@@2V_Iostream_error_category@2@A@@YAXXZ PROC ; `dynamic atexit destructor for 'std::_Error_objects<int>::_Iostream_object'', COMDAT
	push	ebp
	mov	ebp, esp
	mov	ecx, OFFSET ?_Iostream_object@?$_Error_objects@H@std@@2V_Iostream_error_category@2@A ; std::_Error_objects<int>::_Iostream_object
	call	??1_Iostream_error_category@std@@UAE@XZ
	pop	ebp
	ret	0
??__F?_Iostream_object@?$_Error_objects@H@std@@2V_Iostream_error_category@2@A@@YAXXZ ENDP ; `dynamic atexit destructor for 'std::_Error_objects<int>::_Iostream_object''
text$yd	ENDS
; Function compile flags: /Odtp
; File c:\program files (x86)\microsoft visual studio 11.0\vc\include\xmemory0
;	COMDAT ??__E?_Iostream_object@?$_Error_objects@H@std@@2V_Iostream_error_category@2@A@@YAXXZ
text$yc	SEGMENT
??__E?_Iostream_object@?$_Error_objects@H@std@@2V_Iostream_error_category@2@A@@YAXXZ PROC ; `dynamic initializer for 'std::_Error_objects<int>::_Iostream_object'', COMDAT

; 627  : 		{	// estimate maximum array size

	push	ebp
	mov	ebp, esp
	mov	ecx, OFFSET ?_Iostream_object@?$_Error_objects@H@std@@2V_Iostream_error_category@2@A ; std::_Error_objects<int>::_Iostream_object
	call	??0_Iostream_error_category@std@@QAE@XZ	; std::_Iostream_error_category::_Iostream_error_category
	push	OFFSET ??__F?_Iostream_object@?$_Error_objects@H@std@@2V_Iostream_error_category@2@A@@YAXXZ ; `dynamic atexit destructor for 'std::_Error_objects<int>::_Iostream_object''
	call	_atexit
	add	esp, 4
	pop	ebp
	ret	0
??__E?_Iostream_object@?$_Error_objects@H@std@@2V_Iostream_error_category@2@A@@YAXXZ ENDP ; `dynamic initializer for 'std::_Error_objects<int>::_Iostream_object''
text$yc	ENDS
; Function compile flags: /Odtp
;	COMDAT ??__F?_Generic_object@?$_Error_objects@H@std@@2V_Generic_error_category@2@A@@YAXXZ
text$yd	SEGMENT
??__F?_Generic_object@?$_Error_objects@H@std@@2V_Generic_error_category@2@A@@YAXXZ PROC ; `dynamic atexit destructor for 'std::_Error_objects<int>::_Generic_object'', COMDAT
	push	ebp
	mov	ebp, esp
	mov	ecx, OFFSET ?_Generic_object@?$_Error_objects@H@std@@2V_Generic_error_category@2@A ; std::_Error_objects<int>::_Generic_object
	call	??1_Generic_error_category@std@@UAE@XZ
	pop	ebp
	ret	0
??__F?_Generic_object@?$_Error_objects@H@std@@2V_Generic_error_category@2@A@@YAXXZ ENDP ; `dynamic atexit destructor for 'std::_Error_objects<int>::_Generic_object''
text$yd	ENDS
; Function compile flags: /Odtp
; File c:\program files (x86)\microsoft visual studio 11.0\vc\include\xmemory0
;	COMDAT ??__E?_Generic_object@?$_Error_objects@H@std@@2V_Generic_error_category@2@A@@YAXXZ
text$yc	SEGMENT
??__E?_Generic_object@?$_Error_objects@H@std@@2V_Generic_error_category@2@A@@YAXXZ PROC ; `dynamic initializer for 'std::_Error_objects<int>::_Generic_object'', COMDAT

; 627  : 		{	// estimate maximum array size

	push	ebp
	mov	ebp, esp
	mov	ecx, OFFSET ?_Generic_object@?$_Error_objects@H@std@@2V_Generic_error_category@2@A ; std::_Error_objects<int>::_Generic_object
	call	??0_Generic_error_category@std@@QAE@XZ	; std::_Generic_error_category::_Generic_error_category
	push	OFFSET ??__F?_Generic_object@?$_Error_objects@H@std@@2V_Generic_error_category@2@A@@YAXXZ ; `dynamic atexit destructor for 'std::_Error_objects<int>::_Generic_object''
	call	_atexit
	add	esp, 4
	pop	ebp
	ret	0
??__E?_Generic_object@?$_Error_objects@H@std@@2V_Generic_error_category@2@A@@YAXXZ ENDP ; `dynamic initializer for 'std::_Error_objects<int>::_Generic_object''
text$yc	ENDS
; Function compile flags: /Odtp
; File c:\program files (x86)\microsoft visual studio 11.0\vc\include\xmemory0
;	COMDAT ??$_Allocate@D@std@@YAPADIPAD@Z
_TEXT	SEGMENT
__Ptr$ = -4						; size = 4
__Count$ = 8						; size = 4
___formal$ = 12						; size = 4
??$_Allocate@D@std@@YAPADIPAD@Z PROC			; std::_Allocate<char>, COMDAT

; 22   : 	{	// allocate storage for _Count elements of type _Ty

	push	ebp
	mov	ebp, esp
	push	ecx

; 23   : 	void *_Ptr = 0;

	mov	DWORD PTR __Ptr$[ebp], 0

; 24   : 
; 25   : 	if (_Count == 0)

	cmp	DWORD PTR __Count$[ebp], 0
	jne	SHORT $LN4@Allocate

; 26   : 		;
; 27   : 	else if (((size_t)(-1) / sizeof (_Ty) < _Count)

	jmp	SHORT $LN3@Allocate
$LN4@Allocate:

; 28   : 		|| (_Ptr = ::operator new(_Count * sizeof (_Ty))) == 0)

	cmp	DWORD PTR __Count$[ebp], -1
	ja	SHORT $LN1@Allocate
	mov	eax, DWORD PTR __Count$[ebp]
	push	eax
	call	??2@YAPAXI@Z				; operator new
	add	esp, 4
	mov	DWORD PTR __Ptr$[ebp], eax
	cmp	DWORD PTR __Ptr$[ebp], 0
	jne	SHORT $LN3@Allocate
$LN1@Allocate:

; 29   : 		_Xbad_alloc();	// report no memory

	call	?_Xbad_alloc@std@@YAXXZ			; std::_Xbad_alloc
$LN3@Allocate:

; 30   : 
; 31   : 	return ((_Ty *)_Ptr);

	mov	eax, DWORD PTR __Ptr$[ebp]
$LN6@Allocate:

; 32   : 	}

	mov	esp, ebp
	pop	ebp
	ret	0
??$_Allocate@D@std@@YAPADIPAD@Z ENDP			; std::_Allocate<char>
_TEXT	ENDS
; Function compile flags: /Odtp
; File c:\program files (x86)\microsoft visual studio 11.0\vc\include\xstddef
;	COMDAT ??$addressof@D@std@@YAPADAAD@Z
_TEXT	SEGMENT
__Val$ = 8						; size = 4
??$addressof@D@std@@YAPADAAD@Z PROC			; std::addressof<char>, COMDAT

; 85   : 	{	// return address of _Val

	push	ebp
	mov	ebp, esp

; 86   : 	return (reinterpret_cast<_Ty *>(
; 87   : 		(&const_cast<char&>(
; 88   : 		reinterpret_cast<const volatile char&>(_Val)))));

	mov	eax, DWORD PTR __Val$[ebp]

; 89   : 	}

	pop	ebp
	ret	0
??$addressof@D@std@@YAPADAAD@Z ENDP			; std::addressof<char>
_TEXT	ENDS
; Function compile flags: /Odtp
; File c:\program files (x86)\microsoft visual studio 11.0\vc\include\xmemory0
;	COMDAT ??$destroy@PAD@?$_Wrap_alloc@V?$allocator@D@std@@@std@@QAEXPAPAD@Z
_TEXT	SEGMENT
_this$ = -4						; size = 4
__Ptr$ = 8						; size = 4
??$destroy@PAD@?$_Wrap_alloc@V?$allocator@D@std@@@std@@QAEXPAPAD@Z PROC ; std::_Wrap_alloc<std::allocator<char> >::destroy<char *>, COMDAT
; _this$ = ecx

; 907  : 		void destroy(_Ty *_Ptr)

	push	ebp
	mov	ebp, esp
	push	ecx
	mov	DWORD PTR _this$[ebp], ecx

; 908  : 		{	// destroy object at _Ptr
; 909  : 		_Mytraits::destroy(*this, _Ptr);

	mov	eax, DWORD PTR __Ptr$[ebp]
	push	eax
	mov	ecx, DWORD PTR _this$[ebp]
	push	ecx
	call	??$destroy@PAD@?$allocator_traits@V?$allocator@D@std@@@std@@SAXAAV?$allocator@D@1@PAPAD@Z ; std::allocator_traits<std::allocator<char> >::destroy<char *>
	add	esp, 8

; 910  : 		}

	mov	esp, ebp
	pop	ebp
	ret	4
??$destroy@PAD@?$_Wrap_alloc@V?$allocator@D@std@@@std@@QAEXPAPAD@Z ENDP ; std::_Wrap_alloc<std::allocator<char> >::destroy<char *>
_TEXT	ENDS
; Function compile flags: /Odtp
; File c:\program files (x86)\microsoft visual studio 11.0\vc\include\xmemory0
;	COMDAT ??$construct@PADAAPAD@?$_Wrap_alloc@V?$allocator@D@std@@@std@@QAEXPAPADAAPAD@Z
_TEXT	SEGMENT
_this$ = -4						; size = 4
__Ptr$ = 8						; size = 4
__V0$ = 12						; size = 4
??$construct@PADAAPAD@?$_Wrap_alloc@V?$allocator@D@std@@@std@@QAEXPAPADAAPAD@Z PROC ; std::_Wrap_alloc<std::allocator<char> >::construct<char *,char * &>, COMDAT
; _this$ = ecx

; 903  : _VARIADIC_EXPAND_0X(_WRAP_ALLOC_CONSTRUCT, , , , )

	push	ebp
	mov	ebp, esp
	push	ecx
	mov	DWORD PTR _this$[ebp], ecx
	mov	eax, DWORD PTR __V0$[ebp]
	push	eax
	call	??$forward@AAPAD@std@@YAAAPADAAPAD@Z	; std::forward<char * &>
	add	esp, 4
	push	eax
	mov	ecx, DWORD PTR __Ptr$[ebp]
	push	ecx
	mov	edx, DWORD PTR _this$[ebp]
	push	edx
	call	??$construct@PADAAPAD@?$allocator_traits@V?$allocator@D@std@@@std@@SAXAAV?$allocator@D@1@PAPADAAPAD@Z ; std::allocator_traits<std::allocator<char> >::construct<char *,char * &>
	add	esp, 12					; 0000000cH
	mov	esp, ebp
	pop	ebp
	ret	8
??$construct@PADAAPAD@?$_Wrap_alloc@V?$allocator@D@std@@@std@@QAEXPAPADAAPAD@Z ENDP ; std::_Wrap_alloc<std::allocator<char> >::construct<char *,char * &>
_TEXT	ENDS
; Function compile flags: /Odtp
; File c:\users\zhitao li\documents\visual studio 2012\projects\freefalcon\vu2\include\vu_templates.h
;	COMDAT ??$?8VFalconEntity@@@@YA_NPBXABV?$VuBin@VFalconEntity@@@@@Z
_TEXT	SEGMENT
tv67 = -4						; size = 4
_le$ = 8						; size = 4
_re$ = 12						; size = 4
??$?8VFalconEntity@@@@YA_NPBXABV?$VuBin@VFalconEntity@@@@@Z PROC ; operator==<FalconEntity>, COMDAT

; 72   : template <class E> bool operator==(const void* le, const VuBin<E> &re){ return ((void*)re.get()) == le; }

	push	ebp
	mov	ebp, esp
	push	ecx
	mov	ecx, DWORD PTR _re$[ebp]
	call	?get@?$VuBin@VFalconEntity@@@@QBEPAVFalconEntity@@XZ ; VuBin<FalconEntity>::get
	cmp	eax, DWORD PTR _le$[ebp]
	jne	SHORT $LN3@operator
	mov	DWORD PTR tv67[ebp], 1
	jmp	SHORT $LN4@operator
$LN3@operator:
	mov	DWORD PTR tv67[ebp], 0
$LN4@operator:
	mov	al, BYTE PTR tv67[ebp]
	mov	esp, ebp
	pop	ebp
	ret	0
??$?8VFalconEntity@@@@YA_NPBXABV?$VuBin@VFalconEntity@@@@@Z ENDP ; operator==<FalconEntity>
_TEXT	ENDS
; Function compile flags: /Odtp
; File c:\users\zhitao li\documents\visual studio 2012\projects\freefalcon\campaign\include\team.h
;	COMDAT ?GetColor@TeamClass@@QAEHXZ
_TEXT	SEGMENT
_this$ = -4						; size = 4
?GetColor@TeamClass@@QAEHXZ PROC			; TeamClass::GetColor, COMDAT
; _this$ = ecx

; 329  : 	int GetColor (void)							{ return (int) teamColor; }

	push	ebp
	mov	ebp, esp
	push	ecx
	mov	DWORD PTR _this$[ebp], ecx
	mov	eax, DWORD PTR _this$[ebp]
	movzx	eax, BYTE PTR [eax+889]
	mov	esp, ebp
	pop	ebp
	ret	0
?GetColor@TeamClass@@QAEHXZ ENDP			; TeamClass::GetColor
_TEXT	ENDS
; Function compile flags: /Odtp
; File c:\users\zhitao li\documents\visual studio 2012\projects\freefalcon\acmi\src\include\acmirec.h
;	COMDAT ?IsRecording@ACMIRecorder@@QAEHXZ
_TEXT	SEGMENT
_this$ = -4						; size = 4
?IsRecording@ACMIRecorder@@QAEHXZ PROC			; ACMIRecorder::IsRecording, COMDAT
; _this$ = ecx

; 319  : 	{

	push	ebp
	mov	ebp, esp
	push	ecx
	mov	DWORD PTR _this$[ebp], ecx

; 320  : 		return _recording;

	mov	eax, DWORD PTR _this$[ebp]
	mov	eax, DWORD PTR [eax+8]

; 321  : 	};

	mov	esp, ebp
	pop	ebp
	ret	0
?IsRecording@ACMIRecorder@@QAEHXZ ENDP			; ACMIRecorder::IsRecording
_TEXT	ENDS
; Function compile flags: /Odtp
; File c:\users\zhitao li\documents\visual studio 2012\projects\freefalcon\sim\include\simdrive.h
;	COMDAT ?MotionOn@SimulationDriver@@QAEHXZ
_TEXT	SEGMENT
_this$ = -4						; size = 4
?MotionOn@SimulationDriver@@QAEHXZ PROC			; SimulationDriver::MotionOn, COMDAT
; _this$ = ecx

; 98   : 	int MotionOn(void) {return motionOn;};

	push	ebp
	mov	ebp, esp
	push	ecx
	mov	DWORD PTR _this$[ebp], ecx
	mov	eax, DWORD PTR _this$[ebp]
	mov	eax, DWORD PTR [eax+352]
	mov	esp, ebp
	pop	ebp
	ret	0
?MotionOn@SimulationDriver@@QAEHXZ ENDP			; SimulationDriver::MotionOn
_TEXT	ENDS
; Function compile flags: /Odtp
; File c:\users\zhitao li\documents\visual studio 2012\projects\freefalcon\campaign\include\campbase.h
;	COMDAT ?IsAggregate@CampBaseClass@@QAEHXZ
_TEXT	SEGMENT
_this$ = -4						; size = 4
?IsAggregate@CampBaseClass@@QAEHXZ PROC			; CampBaseClass::IsAggregate, COMDAT
; _this$ = ecx

; 278  : 	int IsAggregate (void)						{	return local_flags & CBC_AGGREGATE; }

	push	ebp
	mov	ebp, esp
	push	ecx
	mov	DWORD PTR _this$[ebp], ecx
	mov	eax, DWORD PTR _this$[ebp]
	movsx	eax, WORD PTR [eax+156]
	and	eax, 128				; 00000080H
	mov	esp, ebp
	pop	ebp
	ret	0
?IsAggregate@CampBaseClass@@QAEHXZ ENDP			; CampBaseClass::IsAggregate
_TEXT	ENDS
; Function compile flags: /Odtp
; File c:\users\zhitao li\documents\visual studio 2012\projects\freefalcon\campaign\include\campbase.h
;	COMDAT ?GetComponents@CampBaseClass@@QBEPAVTailInsertList@@XZ
_TEXT	SEGMENT
_this$ = -4						; size = 4
?GetComponents@CampBaseClass@@QBEPAVTailInsertList@@XZ PROC ; CampBaseClass::GetComponents, COMDAT
; _this$ = ecx

; 141  : 	TailInsertList *GetComponents() const		{	return components; }

	push	ebp
	mov	ebp, esp
	push	ecx
	mov	DWORD PTR _this$[ebp], ecx
	mov	eax, DWORD PTR _this$[ebp]
	mov	eax, DWORD PTR [eax+160]
	mov	esp, ebp
	pop	ebp
	ret	0
?GetComponents@CampBaseClass@@QBEPAVTailInsertList@@XZ ENDP ; CampBaseClass::GetComponents
_TEXT	ENDS
; Function compile flags: /Odtp
; File c:\users\zhitao li\documents\visual studio 2012\projects\freefalcon\falclib\include\invalidbufferexception.h
;	COMDAT ?memcpychk@@YAXPAXPAPAEIPAJ@Z
_TEXT	SEGMENT
$T2 = -152						; size = 12
_s$3 = -140						; size = 24
_err$4 = -116						; size = 100
__$ArrayPad$ = -16					; size = 4
__$EHRec$ = -12						; size = 12
_dst$ = 8						; size = 4
_src$ = 12						; size = 4
_size$ = 16						; size = 4
_rem$ = 20						; size = 4
?memcpychk@@YAXPAXPAPAEIPAJ@Z PROC			; memcpychk, COMDAT

; 25   : inline void memcpychk(void *dst, VU_BYTE **src, size_t size, long *rem){

	push	ebp
	mov	ebp, esp
	push	-1
	push	__ehhandler$?memcpychk@@YAXPAXPAPAEIPAJ@Z
	mov	eax, DWORD PTR fs:0
	push	eax
	sub	esp, 140				; 0000008cH
	mov	eax, DWORD PTR ___security_cookie
	xor	eax, ebp
	mov	DWORD PTR __$ArrayPad$[ebp], eax
	push	eax
	lea	eax, DWORD PTR __$EHRec$[ebp]
	mov	DWORD PTR fs:0, eax

; 26   : 	if ((size_t)*rem < size){

	mov	eax, DWORD PTR _rem$[ebp]
	mov	ecx, DWORD PTR [eax]
	cmp	ecx, DWORD PTR _size$[ebp]
	jae	SHORT $LN1@memcpychk

; 27   : 		char err[100];
; 28   : 		sprintf(err, "Trying to write %lu bytes to %ld buffer", static_cast<unsigned long>(size), *rem);

	mov	edx, DWORD PTR _rem$[ebp]
	mov	eax, DWORD PTR [edx]
	push	eax
	mov	ecx, DWORD PTR _size$[ebp]
	push	ecx
	push	OFFSET ??_C@_0CI@MPKJAHJH@Trying?5to?5write?5?$CFlu?5bytes?5to?5?$CFld@
	lea	edx, DWORD PTR _err$4[ebp]
	push	edx
	call	_sprintf
	add	esp, 16					; 00000010H

; 29   : 		std::string s(err);

	lea	eax, DWORD PTR _err$4[ebp]
	push	eax
	lea	ecx, DWORD PTR _s$3[ebp]
	call	??0?$basic_string@DU?$char_traits@D@std@@V?$allocator@D@2@@std@@QAE@PBD@Z ; std::basic_string<char,std::char_traits<char>,std::allocator<char> >::basic_string<char,std::char_traits<char>,std::allocator<char> >
	mov	DWORD PTR __$EHRec$[ebp+8], 0

; 30   : 		throw InvalidBufferException(s);

	lea	ecx, DWORD PTR _s$3[ebp]
	push	ecx
	lea	ecx, DWORD PTR $T2[ebp]
	call	??0InvalidBufferException@@QAE@ABV?$basic_string@DU?$char_traits@D@std@@V?$allocator@D@2@@std@@@Z ; InvalidBufferException::InvalidBufferException
	push	OFFSET __TI4?AVInvalidBufferException@@
	lea	edx, DWORD PTR $T2[ebp]
	push	edx
	call	__CxxThrowException@8

; 31   : 	}

	mov	DWORD PTR __$EHRec$[ebp+8], -1
	lea	ecx, DWORD PTR _s$3[ebp]
	call	??1?$basic_string@DU?$char_traits@D@std@@V?$allocator@D@2@@std@@QAE@XZ ; std::basic_string<char,std::char_traits<char>,std::allocator<char> >::~basic_string<char,std::char_traits<char>,std::allocator<char> >
$LN1@memcpychk:

; 32   : 	memcpy(dst, *src, size);

	mov	eax, DWORD PTR _size$[ebp]
	push	eax
	mov	ecx, DWORD PTR _src$[ebp]
	mov	edx, DWORD PTR [ecx]
	push	edx
	mov	eax, DWORD PTR _dst$[ebp]
	push	eax
	call	_memcpy
	add	esp, 12					; 0000000cH

; 33   : 	*rem -= size;

	mov	ecx, DWORD PTR _rem$[ebp]
	mov	edx, DWORD PTR [ecx]
	sub	edx, DWORD PTR _size$[ebp]
	mov	eax, DWORD PTR _rem$[ebp]
	mov	DWORD PTR [eax], edx

; 34   : 	*src += size;

	mov	ecx, DWORD PTR _src$[ebp]
	mov	edx, DWORD PTR [ecx]
	add	edx, DWORD PTR _size$[ebp]
	mov	eax, DWORD PTR _src$[ebp]
	mov	DWORD PTR [eax], edx
$LN3@memcpychk:

; 35   : }

	mov	ecx, DWORD PTR __$EHRec$[ebp]
	mov	DWORD PTR fs:0, ecx
	pop	ecx
	mov	ecx, DWORD PTR __$ArrayPad$[ebp]
	xor	ecx, ebp
	call	@__security_check_cookie@4
	mov	esp, ebp
	pop	ebp
	ret	0
_TEXT	ENDS
;	COMDAT text$x
text$x	SEGMENT
__unwindfunclet$?memcpychk@@YAXPAXPAPAEIPAJ@Z$0:
	lea	ecx, DWORD PTR _s$3[ebp]
	jmp	??1?$basic_string@DU?$char_traits@D@std@@V?$allocator@D@2@@std@@QAE@XZ ; std::basic_string<char,std::char_traits<char>,std::allocator<char> >::~basic_string<char,std::char_traits<char>,std::allocator<char> >
__ehhandler$?memcpychk@@YAXPAXPAPAEIPAJ@Z:
	mov	edx, DWORD PTR [esp+8]
	lea	eax, DWORD PTR [edx+12]
	mov	ecx, DWORD PTR [edx-144]
	xor	ecx, eax
	call	@__security_check_cookie@4
	mov	ecx, DWORD PTR [edx-4]
	xor	ecx, eax
	call	@__security_check_cookie@4
	mov	eax, OFFSET __ehfuncinfo$?memcpychk@@YAXPAXPAPAEIPAJ@Z
	jmp	___CxxFrameHandler3
text$x	ENDS
?memcpychk@@YAXPAXPAPAEIPAJ@Z ENDP			; memcpychk
; Function compile flags: /Odtp
;	COMDAT ??_GInvalidBufferException@@UAEPAXI@Z
_TEXT	SEGMENT
_this$ = -4						; size = 4
___flags$ = 8						; size = 4
??_GInvalidBufferException@@UAEPAXI@Z PROC		; InvalidBufferException::`scalar deleting destructor', COMDAT
; _this$ = ecx
	push	ebp
	mov	ebp, esp
	push	ecx
	mov	DWORD PTR _this$[ebp], ecx
	mov	ecx, DWORD PTR _this$[ebp]
	call	??1InvalidBufferException@@UAE@XZ
	mov	eax, DWORD PTR ___flags$[ebp]
	and	eax, 1
	je	SHORT $LN1@scalar
	mov	ecx, DWORD PTR _this$[ebp]
	push	ecx
	call	??3@YAXPAX@Z				; operator delete
	add	esp, 4
$LN1@scalar:
	mov	eax, DWORD PTR _this$[ebp]
	mov	esp, ebp
	pop	ebp
	ret	4
??_GInvalidBufferException@@UAEPAXI@Z ENDP		; InvalidBufferException::`scalar deleting destructor'
_TEXT	ENDS
; Function compile flags: /Odtp
;	COMDAT ??0InvalidBufferException@@QAE@ABV0@@Z
_TEXT	SEGMENT
_this$ = -4						; size = 4
___that$ = 8						; size = 4
??0InvalidBufferException@@QAE@ABV0@@Z PROC		; InvalidBufferException::InvalidBufferException, COMDAT
; _this$ = ecx
	push	ebp
	mov	ebp, esp
	push	ecx
	mov	DWORD PTR _this$[ebp], ecx
	mov	eax, DWORD PTR ___that$[ebp]
	push	eax
	mov	ecx, DWORD PTR _this$[ebp]
	call	??0out_of_range@std@@QAE@ABV01@@Z
	mov	ecx, DWORD PTR _this$[ebp]
	mov	DWORD PTR [ecx], OFFSET ??_7InvalidBufferException@@6B@
	mov	eax, DWORD PTR _this$[ebp]
	mov	esp, ebp
	pop	ebp
	ret	4
??0InvalidBufferException@@QAE@ABV0@@Z ENDP		; InvalidBufferException::InvalidBufferException
_TEXT	ENDS
; Function compile flags: /Odtp
;	COMDAT ??1InvalidBufferException@@UAE@XZ
_TEXT	SEGMENT
_this$ = -4						; size = 4
??1InvalidBufferException@@UAE@XZ PROC			; InvalidBufferException::~InvalidBufferException, COMDAT
; _this$ = ecx
	push	ebp
	mov	ebp, esp
	push	ecx
	mov	DWORD PTR _this$[ebp], ecx
	mov	ecx, DWORD PTR _this$[ebp]
	call	??1out_of_range@std@@UAE@XZ
	mov	esp, ebp
	pop	ebp
	ret	0
??1InvalidBufferException@@UAE@XZ ENDP			; InvalidBufferException::~InvalidBufferException
_TEXT	ENDS
; Function compile flags: /Odtp
; File c:\users\zhitao li\documents\visual studio 2012\projects\freefalcon\falclib\include\invalidbufferexception.h
;	COMDAT ??0InvalidBufferException@@QAE@ABV?$basic_string@DU?$char_traits@D@std@@V?$allocator@D@2@@std@@@Z
_TEXT	SEGMENT
_this$ = -4						; size = 4
_msg$ = 8						; size = 4
??0InvalidBufferException@@QAE@ABV?$basic_string@DU?$char_traits@D@std@@V?$allocator@D@2@@std@@@Z PROC ; InvalidBufferException::InvalidBufferException, COMDAT
; _this$ = ecx

; 19   : 	InvalidBufferException(const std::string &msg) : out_of_range(msg){}

	push	ebp
	mov	ebp, esp
	push	ecx
	mov	DWORD PTR _this$[ebp], ecx
	mov	eax, DWORD PTR _msg$[ebp]
	push	eax
	mov	ecx, DWORD PTR _this$[ebp]
	call	??0out_of_range@std@@QAE@ABV?$basic_string@DU?$char_traits@D@std@@V?$allocator@D@2@@1@@Z ; std::out_of_range::out_of_range
	mov	ecx, DWORD PTR _this$[ebp]
	mov	DWORD PTR [ecx], OFFSET ??_7InvalidBufferException@@6B@
	mov	eax, DWORD PTR _this$[ebp]
	mov	esp, ebp
	pop	ebp
	ret	4
??0InvalidBufferException@@QAE@ABV?$basic_string@DU?$char_traits@D@std@@V?$allocator@D@2@@std@@@Z ENDP ; InvalidBufferException::InvalidBufferException
_TEXT	ENDS
; Function compile flags: /Odtp
; File c:\users\zhitao li\documents\visual studio 2012\projects\freefalcon\sim\include\aircrft.h
;	COMDAT ?IsDigital@AircraftClass@@QAEHXZ
_TEXT	SEGMENT
_this$ = -4						; size = 4
?IsDigital@AircraftClass@@QAEHXZ PROC			; AircraftClass::IsDigital, COMDAT
; _this$ = ecx

; 385  : 	int IsDigital() { return isDigital; }

	push	ebp
	mov	ebp, esp
	push	ecx
	mov	DWORD PTR _this$[ebp], ecx
	mov	eax, DWORD PTR _this$[ebp]
	mov	eax, DWORD PTR [eax+948]
	mov	esp, ebp
	pop	ebp
	ret	0
?IsDigital@AircraftClass@@QAEHXZ ENDP			; AircraftClass::IsDigital
_TEXT	ENDS
; Function compile flags: /Odtp
; File c:\users\zhitao li\documents\visual studio 2012\projects\freefalcon\sim\include\aircrft.h
;	COMDAT ?AutopilotType@AircraftClass@@QAE?AW4AutoPilotType@1@XZ
_TEXT	SEGMENT
_this$ = -4						; size = 4
?AutopilotType@AircraftClass@@QAE?AW4AutoPilotType@1@XZ PROC ; AircraftClass::AutopilotType, COMDAT
; _this$ = ecx

; 329  : 	AutoPilotType	AutopilotType (void) {return autopilotType;};

	push	ebp
	mov	ebp, esp
	push	ecx
	mov	DWORD PTR _this$[ebp], ecx
	mov	eax, DWORD PTR _this$[ebp]
	mov	eax, DWORD PTR [eax+968]
	mov	esp, ebp
	pop	ebp
	ret	0
?AutopilotType@AircraftClass@@QAE?AW4AutoPilotType@1@XZ ENDP ; AircraftClass::AutopilotType
_TEXT	ENDS
; Function compile flags: /Odtp
; File c:\users\zhitao li\documents\visual studio 2012\projects\freefalcon\falclib\include\falcsess.h
;	COMDAT ?GetGame@FalconSessionEntity@@QAEPAVFalconGameEntity@@XZ
_TEXT	SEGMENT
_this$ = -4						; size = 4
?GetGame@FalconSessionEntity@@QAEPAVFalconGameEntity@@XZ PROC ; FalconSessionEntity::GetGame, COMDAT
; _this$ = ecx

; 154  : 	FalconGameEntity* GetGame (void)              { return (FalconGameEntity*)VuSessionEntity::Game(); }

	push	ebp
	mov	ebp, esp
	push	ecx
	mov	DWORD PTR _this$[ebp], ecx
	mov	ecx, DWORD PTR _this$[ebp]
	call	?Game@VuSessionEntity@@QAEPAVVuGameEntity@@XZ ; VuSessionEntity::Game
	mov	esp, ebp
	pop	ebp
	ret	0
?GetGame@FalconSessionEntity@@QAEPAVFalconGameEntity@@XZ ENDP ; FalconSessionEntity::GetGame
_TEXT	ENDS
; Function compile flags: /Odtp
; File c:\users\zhitao li\documents\visual studio 2012\projects\freefalcon\sim\include\object.h
;	COMDAT ?BaseData@SimObjectType@@QAEPAVFalconEntity@@XZ
_TEXT	SEGMENT
_this$ = -4						; size = 4
?BaseData@SimObjectType@@QAEPAVFalconEntity@@XZ PROC	; SimObjectType::BaseData, COMDAT
; _this$ = ecx

; 92   : 	FalconEntity* BaseData(void) { return baseData.get(); };

	push	ebp
	mov	ebp, esp
	push	ecx
	mov	DWORD PTR _this$[ebp], ecx
	mov	ecx, DWORD PTR _this$[ebp]
	call	?get@?$VuBin@VFalconEntity@@@@QBEPAVFalconEntity@@XZ ; VuBin<FalconEntity>::get
	mov	esp, ebp
	pop	ebp
	ret	0
?BaseData@SimObjectType@@QAEPAVFalconEntity@@XZ ENDP	; SimObjectType::BaseData
_TEXT	ENDS
; Function compile flags: /Odtp
;	COMDAT ??_GBombClass@@UAEPAXI@Z
_TEXT	SEGMENT
_this$ = -4						; size = 4
___flags$ = 8						; size = 4
??_GBombClass@@UAEPAXI@Z PROC				; BombClass::`scalar deleting destructor', COMDAT
; _this$ = ecx
	push	ebp
	mov	ebp, esp
	push	ecx
	mov	DWORD PTR _this$[ebp], ecx
	mov	ecx, DWORD PTR _this$[ebp]
	call	??1BombClass@@UAE@XZ			; BombClass::~BombClass
	mov	eax, DWORD PTR ___flags$[ebp]
	and	eax, 1
	je	SHORT $LN1@scalar
	mov	ecx, DWORD PTR _this$[ebp]
	push	ecx
	call	??3@YAXPAX@Z				; operator delete
	add	esp, 4
$LN1@scalar:
	mov	eax, DWORD PTR _this$[ebp]
	mov	esp, ebp
	pop	ebp
	ret	4
??_GBombClass@@UAEPAXI@Z ENDP				; BombClass::`scalar deleting destructor'
_TEXT	ENDS
; Function compile flags: /Odtp
; File c:\users\zhitao li\documents\visual studio 2012\projects\freefalcon\sim\bomb\bombmain.cpp
_TEXT	SEGMENT
_this$ = -4						; size = 4
?GetJSOWmaxRange@BombClass@@QAEMXZ PROC			; BombClass::GetJSOWmaxRange
; _this$ = ecx

; 1367 : {

	push	ebp
	mov	ebp, esp
	push	ecx
	mov	DWORD PTR _this$[ebp], ecx

; 1368 : 	if(auxData)

	mov	eax, DWORD PTR _this$[ebp]
	cmp	DWORD PTR [eax+832], 0
	je	SHORT $LN2@GetJSOWmax

; 1369 : 		return auxData->JSOWmaxRange;

	mov	ecx, DWORD PTR _this$[ebp]
	mov	edx, DWORD PTR [ecx+832]
	fld	DWORD PTR [edx+52]
	jmp	SHORT $LN1@GetJSOWmax

; 1370 : 	else

	jmp	SHORT $LN1@GetJSOWmax
$LN2@GetJSOWmax:

; 1371 : 		return g_fAIJSOWmaxRange;

	fld	DWORD PTR ?g_fAIJSOWmaxRange@@3MA	; g_fAIJSOWmaxRange
$LN1@GetJSOWmax:

; 1372 : }

	mov	esp, ebp
	pop	ebp
	ret	0
?GetJSOWmaxRange@BombClass@@QAEMXZ ENDP			; BombClass::GetJSOWmaxRange
_TEXT	ENDS
; Function compile flags: /Odtp
; File c:\users\zhitao li\documents\visual studio 2012\projects\freefalcon\sim\bomb\bombmain.cpp
_TEXT	SEGMENT
_this$ = -4						; size = 4
?GetJDAMLift@BombClass@@QAEMXZ PROC			; BombClass::GetJDAMLift
; _this$ = ecx

; 1359 : {

	push	ebp
	mov	ebp, esp
	push	ecx
	mov	DWORD PTR _this$[ebp], ecx

; 1360 : 	if(auxData)

	mov	eax, DWORD PTR _this$[ebp]
	cmp	DWORD PTR [eax+832], 0
	je	SHORT $LN2@GetJDAMLif

; 1361 : 		return auxData->JDAMLift;

	mov	ecx, DWORD PTR _this$[ebp]
	mov	edx, DWORD PTR [ecx+832]
	fld	DWORD PTR [edx+48]
	jmp	SHORT $LN1@GetJDAMLif

; 1362 : 	else

	jmp	SHORT $LN1@GetJDAMLif
$LN2@GetJDAMLif:

; 1363 : 		return g_fJDAMLift;

	fld	DWORD PTR ?g_fJDAMLift@@3MA		; g_fJDAMLift
$LN1@GetJDAMLif:

; 1364 : }

	mov	esp, ebp
	pop	ebp
	ret	0
?GetJDAMLift@BombClass@@QAEMXZ ENDP			; BombClass::GetJDAMLift
_TEXT	ENDS
; Function compile flags: /Odtp
; File c:\users\zhitao li\documents\visual studio 2012\projects\freefalcon\sim\bomb\bombmain.cpp
_TEXT	SEGMENT
_this$ = -4						; size = 4
?DestroyGfx@BombClass@@UAEXXZ PROC			; BombClass::DestroyGfx
; _this$ = ecx

; 1380 : void BombClass::DestroyGfx(){

	push	ebp
	mov	ebp, esp
	push	ecx
	mov	DWORD PTR _this$[ebp], ecx

; 1381 : 	//SimWeaponClass::DestroyGfx();
; 1382 : }

	mov	esp, ebp
	pop	ebp
	ret	0
?DestroyGfx@BombClass@@UAEXXZ ENDP			; BombClass::DestroyGfx
_TEXT	ENDS
; Function compile flags: /Odtp
; File c:\users\zhitao li\documents\visual studio 2012\projects\freefalcon\sim\bomb\bombmain.cpp
_TEXT	SEGMENT
_this$ = -4						; size = 4
?CreateGfx@BombClass@@UAEXXZ PROC			; BombClass::CreateGfx
; _this$ = ecx

; 1374 : void BombClass::CreateGfx(){

	push	ebp
	mov	ebp, esp
	push	ecx
	mov	DWORD PTR _this$[ebp], ecx

; 1375 : 	//SimWeaponClass::CreateGfx();
; 1376 : 	InitTrail();

	mov	eax, DWORD PTR _this$[ebp]
	mov	edx, DWORD PTR [eax]
	mov	ecx, DWORD PTR _this$[ebp]
	mov	eax, DWORD PTR [edx+476]
	call	eax

; 1377 : 	ExtraGraphics();

	mov	ecx, DWORD PTR _this$[ebp]
	mov	edx, DWORD PTR [ecx]
	mov	ecx, DWORD PTR _this$[ebp]
	mov	eax, DWORD PTR [edx+484]
	call	eax

; 1378 : }

	mov	esp, ebp
	pop	ebp
	ret	0
?CreateGfx@BombClass@@UAEXXZ ENDP			; BombClass::CreateGfx
_TEXT	ENDS
; Function compile flags: /Odtp
; File c:\users\zhitao li\documents\visual studio 2012\projects\freefalcon\sim\bomb\bombmain.cpp
_TEXT	SEGMENT
tv70 = -8						; size = 4
_this$ = -4						; size = 4
?IsUseable@BombClass@@UAEHXZ PROC			; BombClass::IsUseable
; _this$ = ecx

; 1349 : {

	push	ebp
	mov	ebp, esp
	sub	esp, 8
	mov	DWORD PTR _this$[ebp], ecx

; 1350 : 	if(lauWeaponId)

	mov	eax, DWORD PTR _this$[ebp]
	cmp	DWORD PTR [eax+812], 0
	je	SHORT $LN2@IsUseable

; 1351 : 	{
; 1352 : 		return ((lauRounds - lauFireCount) > 0); // could be bool'ize

	mov	ecx, DWORD PTR _this$[ebp]
	mov	edx, DWORD PTR _this$[ebp]
	mov	eax, DWORD PTR [ecx+804]
	sub	eax, DWORD PTR [edx+820]
	test	eax, eax
	jle	SHORT $LN5@IsUseable
	mov	DWORD PTR tv70[ebp], 1
	jmp	SHORT $LN6@IsUseable
$LN5@IsUseable:
	mov	DWORD PTR tv70[ebp], 0
$LN6@IsUseable:
	mov	eax, DWORD PTR tv70[ebp]
	jmp	SHORT $LN3@IsUseable

; 1353 : 	}
; 1354 : 	else

	jmp	SHORT $LN3@IsUseable
$LN2@IsUseable:

; 1355 : 		return 1;

	mov	eax, 1
$LN3@IsUseable:

; 1356 : }

	mov	esp, ebp
	pop	ebp
	ret	0
?IsUseable@BombClass@@UAEHXZ ENDP			; BombClass::IsUseable
_TEXT	ENDS
; Function compile flags: /Odtp
; File c:\users\zhitao li\documents\visual studio 2012\projects\freefalcon\sim\include\bomb.h
;	COMDAT ?IsBomb@BombClass@@UAEHXZ
_TEXT	SEGMENT
_this$ = -4						; size = 4
?IsBomb@BombClass@@UAEHXZ PROC				; BombClass::IsBomb, COMDAT
; _this$ = ecx

; 99   : 	virtual int IsBomb (void) { return TRUE; };

	push	ebp
	mov	ebp, esp
	push	ecx
	mov	DWORD PTR _this$[ebp], ecx
	mov	eax, 1
	mov	esp, ebp
	pop	ebp
	ret	0
?IsBomb@BombClass@@UAEHXZ ENDP				; BombClass::IsBomb
_TEXT	ENDS
; Function compile flags: /Odtp
; File c:\users\zhitao li\documents\visual studio 2012\projects\freefalcon\sim\bomb\bombmain.cpp
_TEXT	SEGMENT
_this$ = -4						; size = 4
?SetVuPosition@BombClass@@UAEXXZ PROC			; BombClass::SetVuPosition
; _this$ = ecx

; 1064 : {

	push	ebp
	mov	ebp, esp
	push	ecx
	mov	DWORD PTR _this$[ebp], ecx

; 1065 : 	SetPosition (x, y, z);

	mov	eax, DWORD PTR _this$[ebp]
	push	ecx
	movss	xmm0, DWORD PTR [eax+744]
	movss	DWORD PTR [esp], xmm0
	mov	ecx, DWORD PTR _this$[ebp]
	push	ecx
	movss	xmm0, DWORD PTR [ecx+740]
	movss	DWORD PTR [esp], xmm0
	mov	edx, DWORD PTR _this$[ebp]
	push	ecx
	movss	xmm0, DWORD PTR [edx+736]
	movss	DWORD PTR [esp], xmm0
	mov	ecx, DWORD PTR _this$[ebp]
	call	?SetPosition@VuEntity@@QAEXMMM@Z	; VuEntity::SetPosition

; 1066 : }

	mov	esp, ebp
	pop	ebp
	ret	0
?SetVuPosition@BombClass@@UAEXXZ ENDP			; BombClass::SetVuPosition
_TEXT	ENDS
; Function compile flags: /Odtp
; File c:\users\zhitao li\documents\visual studio 2012\projects\freefalcon\sim\bomb\bombmain.cpp
_TEXT	SEGMENT
_this$ = -4						; size = 4
_newTarget$ = 8						; size = 4
?SetTarget@BombClass@@QAEXPAVSimObjectType@@@Z PROC	; BombClass::SetTarget
; _this$ = ecx

; 1012 : {

	push	ebp
	mov	ebp, esp
	push	ecx
	mov	DWORD PTR _this$[ebp], ecx

; 1013 : 	if (F4IsBadReadPtr(this, sizeof(BombClass))) // JB 010317 CTD

	push	836					; 00000344H
	mov	eax, DWORD PTR _this$[ebp]
	push	eax
	call	?F4IsBadReadPtr@@YA_NPBXI@Z		; F4IsBadReadPtr
	add	esp, 8
	movzx	ecx, al
	test	ecx, ecx
	je	SHORT $LN4@SetTarget

; 1014 : 		return;

	jmp	SHORT $LN5@SetTarget
$LN4@SetTarget:

; 1015 : 
; 1016 : 	if (newTarget == targetPtr)

	mov	edx, DWORD PTR _this$[ebp]
	mov	eax, DWORD PTR _newTarget$[ebp]
	cmp	eax, DWORD PTR [edx+656]
	jne	SHORT $LN3@SetTarget

; 1017 : 		return;

	jmp	SHORT $LN5@SetTarget
$LN3@SetTarget:

; 1018 : 
; 1019 : 	if ( targetPtr )

	mov	ecx, DWORD PTR _this$[ebp]
	cmp	DWORD PTR [ecx+656], 0
	je	SHORT $LN2@SetTarget

; 1020 : 	{
; 1021 : 		targetPtr->Release(  );

	mov	edx, DWORD PTR _this$[ebp]
	mov	ecx, DWORD PTR [edx+656]
	call	?Release@SimObjectType@@QAEXXZ		; SimObjectType::Release

; 1022 : 		targetPtr = NULL;

	mov	eax, DWORD PTR _this$[ebp]
	mov	DWORD PTR [eax+656], 0
$LN2@SetTarget:

; 1023 : 	}
; 1024 : 
; 1025 : 	if (newTarget)

	cmp	DWORD PTR _newTarget$[ebp], 0
	je	SHORT $LN5@SetTarget

; 1026 : 	{
; 1027 : 		ShiAssert( newTarget->BaseData() != (FalconEntity*)0xDDDDDDDD );
; 1028 : 
; 1029 : //#ifdef DEBUG
; 1030 : //		targetPtr = newTarget->Copy(OBJ_TAG, this);
; 1031 : //#else
; 1032 : //		targetPtr = newTarget->Copy();
; 1033 : //#endif
; 1034 : 		targetPtr->Reference(  );

	mov	ecx, DWORD PTR _this$[ebp]
	mov	ecx, DWORD PTR [ecx+656]
	call	?Reference@SimObjectType@@QAEXXZ	; SimObjectType::Reference
$LN5@SetTarget:

; 1035 : 	}
; 1036 : }

	mov	esp, ebp
	pop	ebp
	ret	4
?SetTarget@BombClass@@QAEXPAVSimObjectType@@@Z ENDP	; BombClass::SetTarget
_TEXT	ENDS
; Function compile flags: /Odtp
; File c:\users\zhitao li\documents\visual studio 2012\projects\freefalcon\sim\bomb\bombmain.cpp
_TEXT	SEGMENT
_trig$ = -72						; size = 8
tv246 = -64						; size = 4
tv228 = -60						; size = 4
tv282 = -56						; size = 4
tv224 = -52						; size = 4
tv278 = -48						; size = 4
tv220 = -44						; size = 4
tv280 = -40						; size = 4
tv216 = -36						; size = 4
tv212 = -32						; size = 4
tv276 = -28						; size = 4
tv208 = -24						; size = 4
_vt$ = -20						; size = 4
_costha$ = -16						; size = 4
_sintha$ = -12						; size = 4
_xyDelta$ = -8						; size = 4
_this$ = -4						; size = 4
_vmat$ = 8						; size = 4
?GetTransform@BombClass@@UAEXQAY02M@Z PROC		; BombClass::GetTransform
; _this$ = ecx

; 1039 : {

	push	ebp
	mov	ebp, esp
	sub	esp, 72					; 00000048H
	mov	DWORD PTR _this$[ebp], ecx

; 1040 : 	mlTrig trig;
; 1041 : 	float xyDelta = XDelta()*XDelta() + YDelta()*YDelta();

	mov	ecx, DWORD PTR _this$[ebp]
	call	?XDelta@VuEntity@@QBEMXZ		; VuEntity::XDelta
	fstp	DWORD PTR tv208[ebp]
	movss	xmm0, DWORD PTR tv208[ebp]
	mov	ecx, DWORD PTR _this$[ebp]
	movss	DWORD PTR tv276[ebp], xmm0
	call	?XDelta@VuEntity@@QBEMXZ		; VuEntity::XDelta
	fstp	DWORD PTR tv212[ebp]
	movss	xmm0, DWORD PTR tv276[ebp]
	mulss	xmm0, DWORD PTR tv212[ebp]
	mov	ecx, DWORD PTR _this$[ebp]
	movss	DWORD PTR tv278[ebp], xmm0
	call	?YDelta@VuEntity@@QBEMXZ		; VuEntity::YDelta
	fstp	DWORD PTR tv216[ebp]
	movss	xmm0, DWORD PTR tv216[ebp]
	mov	ecx, DWORD PTR _this$[ebp]
	movss	DWORD PTR tv280[ebp], xmm0
	call	?YDelta@VuEntity@@QBEMXZ		; VuEntity::YDelta
	fstp	DWORD PTR tv220[ebp]
	movss	xmm0, DWORD PTR tv280[ebp]
	mulss	xmm0, DWORD PTR tv220[ebp]
	movss	xmm1, DWORD PTR tv278[ebp]
	addss	xmm1, xmm0
	movss	DWORD PTR _xyDelta$[ebp], xmm1

; 1042 : 	float vt = (float)sqrt(xyDelta + ZDelta()*ZDelta());

	mov	ecx, DWORD PTR _this$[ebp]
	call	?ZDelta@VuEntity@@QBEMXZ		; VuEntity::ZDelta
	fstp	DWORD PTR tv224[ebp]
	movss	xmm0, DWORD PTR tv224[ebp]
	mov	ecx, DWORD PTR _this$[ebp]
	movss	DWORD PTR tv282[ebp], xmm0
	call	?ZDelta@VuEntity@@QBEMXZ		; VuEntity::ZDelta
	fstp	DWORD PTR tv228[ebp]
	movss	xmm0, DWORD PTR tv282[ebp]
	mulss	xmm0, DWORD PTR tv228[ebp]
	addss	xmm0, DWORD PTR _xyDelta$[ebp]
	push	ecx
	movss	DWORD PTR [esp], xmm0
	call	?SqrtSSE@@YAMM@Z			; SqrtSSE
	add	esp, 4
	fstp	DWORD PTR _vt$[ebp]

; 1043 : 	float costha, sintha;
; 1044 : 
; 1045 : 	xyDelta = (float)sqrt(xyDelta);

	push	ecx
	movss	xmm0, DWORD PTR _xyDelta$[ebp]
	movss	DWORD PTR [esp], xmm0
	call	?SqrtSSE@@YAMM@Z			; SqrtSSE
	add	esp, 4
	fstp	DWORD PTR _xyDelta$[ebp]

; 1046 : 	mlSinCos (&trig, Yaw());

	mov	ecx, DWORD PTR _this$[ebp]
	call	?Yaw@VuEntity@@QBEMXZ			; VuEntity::Yaw
	push	ecx
	fstp	DWORD PTR [esp]
	lea	eax, DWORD PTR _trig$[ebp]
	push	eax
	call	?mlSinCos@@YAXPAUmlTrig@@M@Z		; mlSinCos
	add	esp, 8

; 1047 : 	costha = xyDelta / vt;

	movss	xmm0, DWORD PTR _xyDelta$[ebp]
	divss	xmm0, DWORD PTR _vt$[ebp]
	movss	DWORD PTR _costha$[ebp], xmm0

; 1048 : 	sintha = ZDelta() / vt;

	mov	ecx, DWORD PTR _this$[ebp]
	call	?ZDelta@VuEntity@@QBEMXZ		; VuEntity::ZDelta
	fstp	DWORD PTR tv246[ebp]
	movss	xmm0, DWORD PTR tv246[ebp]
	divss	xmm0, DWORD PTR _vt$[ebp]
	movss	DWORD PTR _sintha$[ebp], xmm0

; 1049 : 
; 1050 : 	vmat[0][0] = trig.cos * costha;

	movss	xmm0, DWORD PTR _trig$[ebp+4]
	mulss	xmm0, DWORD PTR _costha$[ebp]
	mov	ecx, 12					; 0000000cH
	imul	ecx, 0
	add	ecx, DWORD PTR _vmat$[ebp]
	mov	edx, 4
	imul	edx, 0
	movss	DWORD PTR [ecx+edx], xmm0

; 1051 : 	vmat[0][1] = trig.sin * costha;

	movss	xmm0, DWORD PTR _trig$[ebp]
	mulss	xmm0, DWORD PTR _costha$[ebp]
	mov	eax, 12					; 0000000cH
	imul	eax, 0
	add	eax, DWORD PTR _vmat$[ebp]
	mov	ecx, 4
	shl	ecx, 0
	movss	DWORD PTR [eax+ecx], xmm0

; 1052 : 	vmat[0][2] = -sintha;

	movss	xmm0, DWORD PTR _sintha$[ebp]
	xorps	xmm0, DWORD PTR __xmm@80000000800000008000000080000000
	mov	edx, 12					; 0000000cH
	imul	edx, 0
	add	edx, DWORD PTR _vmat$[ebp]
	mov	eax, 4
	shl	eax, 1
	movss	DWORD PTR [edx+eax], xmm0

; 1053 : 
; 1054 : 	vmat[1][0] = -trig.sin;

	movss	xmm0, DWORD PTR _trig$[ebp]
	xorps	xmm0, DWORD PTR __xmm@80000000800000008000000080000000
	mov	ecx, 12					; 0000000cH
	shl	ecx, 0
	add	ecx, DWORD PTR _vmat$[ebp]
	mov	edx, 4
	imul	edx, 0
	movss	DWORD PTR [ecx+edx], xmm0

; 1055 : 	vmat[1][1] = trig.cos;

	mov	eax, 12					; 0000000cH
	shl	eax, 0
	add	eax, DWORD PTR _vmat$[ebp]
	mov	ecx, 4
	shl	ecx, 0
	movss	xmm0, DWORD PTR _trig$[ebp+4]
	movss	DWORD PTR [eax+ecx], xmm0

; 1056 : 	vmat[1][2] = 0.0F;

	mov	edx, 12					; 0000000cH
	shl	edx, 0
	add	edx, DWORD PTR _vmat$[ebp]
	mov	eax, 4
	shl	eax, 1
	movss	xmm0, DWORD PTR __real@00000000
	movss	DWORD PTR [edx+eax], xmm0

; 1057 : 
; 1058 : 	vmat[2][0] = trig.cos * sintha;

	movss	xmm0, DWORD PTR _trig$[ebp+4]
	mulss	xmm0, DWORD PTR _sintha$[ebp]
	mov	ecx, 12					; 0000000cH
	shl	ecx, 1
	add	ecx, DWORD PTR _vmat$[ebp]
	mov	edx, 4
	imul	edx, 0
	movss	DWORD PTR [ecx+edx], xmm0

; 1059 : 	vmat[2][1] = trig.sin * sintha;

	movss	xmm0, DWORD PTR _trig$[ebp]
	mulss	xmm0, DWORD PTR _sintha$[ebp]
	mov	eax, 12					; 0000000cH
	shl	eax, 1
	add	eax, DWORD PTR _vmat$[ebp]
	mov	ecx, 4
	shl	ecx, 0
	movss	DWORD PTR [eax+ecx], xmm0

; 1060 : 	vmat[2][2] = costha;

	mov	edx, 12					; 0000000cH
	shl	edx, 1
	add	edx, DWORD PTR _vmat$[ebp]
	mov	eax, 4
	shl	eax, 1
	movss	xmm0, DWORD PTR _costha$[ebp]
	movss	DWORD PTR [edx+eax], xmm0

; 1061 : }

	mov	esp, ebp
	pop	ebp
	ret	4
?GetTransform@BombClass@@UAEXQAY02M@Z ENDP		; BombClass::GetTransform
_TEXT	ENDS
; Function compile flags: /Odtp
; File c:\users\zhitao li\documents\visual studio 2012\projects\freefalcon\sim\bomb\bombmain.cpp
_TEXT	SEGMENT
$T2 = -1152						; size = 8
$T3 = -1144						; size = 8
$T4 = -1136						; size = 8
$T5 = -1128						; size = 8
$T6 = -1120						; size = 8
$T7 = -1112						; size = 8
$T8 = -1104						; size = 8
_tgg$9 = -1096						; size = 4
tv3641 = -1092						; size = 8
tv3851 = -1084						; size = 8
tv4197 = -1076						; size = 8
tv5124 = -1068						; size = 8
tv4456 = -1060						; size = 8
tv5051 = -1052						; size = 8
tv3876 = -1044						; size = 8
tv4890 = -1036						; size = 8
tv4679 = -1028						; size = 8
_target$10 = -1020					; size = 4
tv3704 = -1016						; size = 4
tv4216 = -1012						; size = 4
tv3700 = -1008						; size = 4
tv3859 = -1004						; size = 4
tv5340 = -1000						; size = 4
tv3942 = -996						; size = 4
tv3695 = -992						; size = 4
tv4243 = -988						; size = 4
_winddx$11 = -984					; size = 4
tv4149 = -980						; size = 4
tv3796 = -976						; size = 4
tv3920 = -972						; size = 4
tv5380 = -968						; size = 4
tv4260 = -964						; size = 4
tv3713 = -960						; size = 4
tv5406 = -956						; size = 4
tv4482 = -952						; size = 4
tv5398 = -948						; size = 4
tv4440 = -944						; size = 4
tv4136 = -940						; size = 4
_wc$12 = -936						; size = 4
tv3928 = -932						; size = 4
tv4371 = -928						; size = 4
tv5384 = -924						; size = 4
tv4348 = -920						; size = 4
tv5342 = -916						; size = 4
tv5412 = -912						; size = 4
tv3772 = -908						; size = 4
tv5452 = -904						; size = 4
tv3722 = -900						; size = 4
tv5304 = -896						; size = 4
tv5416 = -892						; size = 4
tv5300 = -888						; size = 4
tv4478 = -884						; size = 4
tv5450 = -880						; size = 4
tv4420 = -876						; size = 4
tv5295 = -872						; size = 4
tv4391 = -868						; size = 4
tv5291 = -864						; size = 4
_wc$13 = -860						; size = 4
tv5448 = -856						; size = 4
tv4329 = -852						; size = 4
tv5286 = -848						; size = 4
tv4264 = -844						; size = 4
tv5282 = -840						; size = 4
tv3691 = -836						; size = 4
$T14 = -832						; size = 4
tv5404 = -828						; size = 4
tv5446 = -824						; size = 4
tv4220 = -820						; size = 4
tv5180 = -816						; size = 4
tv4211 = -812						; size = 4
tv5155 = -808						; size = 4
tv4154 = -804						; size = 4
tv5145 = -800						; size = 4
tv5394 = -796						; size = 4
tv5444 = -792						; size = 4
tv4031 = -788						; size = 4
tv5139 = -784						; size = 4
tv3937 = -780						; size = 4
tv5015 = -776						; size = 4
tv3924 = -772						; size = 4
tv5009 = -768						; size = 4
tv3916 = -764						; size = 4
tv4956 = -760						; size = 4
tv3898 = -756						; size = 4
tv5442 = -752						; size = 4
_winddy$15 = -748					; size = 4
tv4952 = -744						; size = 4
tv3805 = -740						; size = 4
tv4946 = -736						; size = 4
tv3781 = -732						; size = 4
tv5440 = -728						; size = 4
tv3749 = -724						; size = 4
tv4942 = -720						; size = 4
tv5382 = -716						; size = 4
tv4936 = -712						; size = 4
tv3718 = -708						; size = 4
tv5438 = -704						; size = 4
tv4496 = -700						; size = 4
tv4932 = -696						; size = 4
tv4487 = -692						; size = 4
tv4925 = -688						; size = 4
tv5414 = -684						; size = 4
tv4920 = -680						; size = 4
tv4473 = -676						; size = 4
tv5434 = -672						; size = 4
tv4433 = -668						; size = 4
tv4912 = -664						; size = 4
tv4413 = -660						; size = 4
tv5436 = -656						; size = 4
_classPtr$16 = -652					; size = 4
tv4908 = -648						; size = 4
tv4384 = -644						; size = 4
tv4902 = -640						; size = 4
tv4364 = -636						; size = 4
tv5432 = -632						; size = 4
_classPtr$17 = -628					; size = 4
tv4898 = -624						; size = 4
tv4342 = -620						; size = 4
_newzdelta$18 = -616					; size = 4
tv4274 = -612						; size = 4
tv5428 = -608						; size = 4
tv4270 = -604						; size = 4
tv4867 = -600						; size = 4
tv5410 = -596						; size = 4
tv5430 = -592						; size = 4
tv4254 = -588						; size = 4
tv4857 = -584						; size = 4
tv4250 = -580						; size = 4
tv4851 = -576						; size = 4
tv4238 = -572						; size = 4
tv4845 = -568						; size = 4
tv4230 = -564						; size = 4
tv5424 = -560						; size = 4
tv4226 = -556						; size = 4
tv4838 = -552						; size = 4
tv5402 = -548						; size = 4
tv5426 = -544						; size = 4
tv5400 = -540						; size = 4
tv4834 = -536						; size = 4
tv4207 = -532						; size = 4
tv4830 = -528						; size = 4
tv4158 = -524						; size = 4
tv5422 = -520						; size = 4
tv5396 = -516						; size = 4
tv4826 = -512						; size = 4
tv4145 = -508						; size = 4
tv4770 = -504						; size = 4
tv4140 = -500						; size = 4
tv4764 = -496						; size = 4
$T19 = -492						; size = 4
tv4758 = -488						; size = 4
tv3956 = -484						; size = 4
tv4753 = -480						; size = 4
_vt$ = -476						; size = 4
tv4748 = -472						; size = 4
tv5390 = -468						; size = 4
tv5420 = -464						; size = 4
tv5392 = -460						; size = 4
tv4738 = -456						; size = 4
tv5386 = -452						; size = 4
tv4734 = -448						; size = 4
tv5388 = -444						; size = 4
tv5418 = -440						; size = 4
tv3912 = -436						; size = 4
tv4730 = -432						; size = 4
tv3908 = -428						; size = 4
tv4698 = -424						; size = 4
tv3884 = -420						; size = 4
tv4692 = -416						; size = 4
_lastwinddy$20 = -412					; size = 4
tv4652 = -408						; size = 4
_lastwinddx$21 = -404					; size = 4
tv4645 = -400						; size = 4
tv3827 = -396						; size = 4
tv4632 = -392						; size = 4
tv3800 = -388						; size = 4
tv4625 = -384						; size = 4
tv3790 = -380						; size = 4
_wc$22 = -376						; size = 4
tv3776 = -372						; size = 4
_classPtr$23 = -368					; size = 4
tv3766 = -364						; size = 4
tv4597 = -360						; size = 4
tv3741 = -356						; size = 4
tv4591 = -352						; size = 4
tv3730 = -348						; size = 4
tv4575 = -344						; size = 4
tv3726 = -340						; size = 4
tv4519 = -336						; size = 4
tv5378 = -332						; size = 4
tv4513 = -328						; size = 4
tv5376 = -324						; size = 4
tv4507 = -320						; size = 4
tv3709 = -316						; size = 4
tv4501 = -312						; size = 4
tv5408 = -308						; size = 4
_grav$ = -304						; size = 4
tv1708 = -300						; size = 4
_trigWind$24 = -296					; size = 8
tv5048 = -288						; size = 4
tv3873 = -284						; size = 4
tv925 = -280						; size = 4
tv3848 = -276						; size = 4
tv4676 = -272						; size = 4
_horiz$25 = -268					; size = 4
tv4194 = -264						; size = 4
tv3382 = -260						; size = 4
$T26 = -256						; size = 4
tv3231 = -252						; size = 4
tv4887 = -248						; size = 4
tv3217 = -244						; size = 4
tv1724 = -240						; size = 4
tv3180 = -236						; size = 4
tv4453 = -232						; size = 4
$T27 = -228						; size = 4
tv939 = -224						; size = 4
tv3169 = -220						; size = 4
tv888 = -216						; size = 4
_delta$ = -212						; size = 4
tv877 = -208						; size = 4
tv5121 = -204						; size = 4
tv3637 = -200						; size = 4
_trigPitch$ = -196					; size = 8
_trigYaw$ = -188					; size = 8
_armingdelay$ = -180					; size = 4
_bheight$ = -176					; size = 4
_playerAC$ = -172					; size = 4
_newenergy$28 = -168					; size = 4
_ratx$29 = -164						; size = 4
_raty$30 = -160						; size = 4
_campBaseObj$31 = -156					; size = 4
_wind$32 = -152						; size = 4
_newydelta$33 = -148					; size = 4
_newxdelta$34 = -144					; size = 4
_range$ = -140						; size = 4
_vdrag$35 = -136					; size = 4
_dx$36 = -132						; size = 4
_dy$37 = -128						; size = 4
_desDx$ = -124						; size = 4
_desDy$ = -120						; size = 4
_rz$ = -116						; size = 4
_terrainHeight$ = -112					; size = 4
_parentAC$38 = -108					; size = 4
_ry$ = -104						; size = 4
_radical$ = -100					; size = 4
_deltaZ$ = -96						; size = 4
_rx$ = -92						; size = 4
_deltaY$ = -88						; size = 4
_deltaX$ = -84						; size = 4
_tFall$ = -80						; size = 4
_endMessage$ = -76					; size = 4
_this$ = -72						; size = 4
_genPos$ = -68						; size = 37
_pos$39 = -28						; size = 12
__$ArrayPad$ = -16					; size = 4
__$EHRec$ = -12						; size = 12
?Exec@BombClass@@UAEHXZ PROC				; BombClass::Exec
; _this$ = ecx

; 299  : {

	push	ebp
	mov	ebp, esp
	push	-1
	push	__ehhandler$?Exec@BombClass@@UAEHXZ
	mov	eax, DWORD PTR fs:0
	push	eax
	sub	esp, 1140				; 00000474H
	mov	eax, DWORD PTR ___security_cookie
	xor	eax, ebp
	mov	DWORD PTR __$ArrayPad$[ebp], eax
	push	esi
	push	eax
	lea	eax, DWORD PTR __$EHRec$[ebp]
	mov	DWORD PTR fs:0, eax
	mov	DWORD PTR _this$[ebp], ecx

; 300  : 	// FalconDamageMessage* message;
; 301  : 	float terrainHeight;
; 302  : 	float delta;
; 303  : 	ACMIGenPositionRecord genPos;
; 304  : 	FalconMissileEndMessage* endMessage;
; 305  : 	float radical, tFall, desDx, desDy;
; 306  : 	float deltaX, deltaY, deltaZ, vt;
; 307  : 	float rx, ry, rz, range;
; 308  : 	mlTrig trigYaw, trigPitch;
; 309  : 	float bheight;
; 310  : 	float grav;
; 311  : 	float armingdelay = 0.0f;//me123 done this way to awoid a crash when player dies in matchplay

	movss	xmm0, DWORD PTR __real@00000000
	movss	DWORD PTR _armingdelay$[ebp], xmm0

; 312  : 
; 313  : 	// Debub ==========================
; 314  : 	static FILE *fp = NULL;
; 315  : 	//if (!fp)
; 316  : 	//fp = fopen("g:\\JSOWtrgtFinal.txt", "w");
; 317  : 	//=================================
; 318  : 
; 319  : 
; 320  : 	SoundPos.UpdatePos(this);

	mov	eax, DWORD PTR _this$[ebp]
	push	eax
	mov	ecx, DWORD PTR _this$[ebp]
	add	ecx, 444				; 000001bcH
	call	?UpdatePos@F4SoundPos@@QAEXPAVSimBaseClass@@@Z ; F4SoundPos::UpdatePos

; 321  : 
; 322  : 	AircraftClass *playerAC = SimDriver.GetPlayerAircraft();

	mov	ecx, OFFSET ?SimDriver@@3VSimulationDriver@@A ; SimDriver
	call	?GetPlayerAircraft@SimulationDriver@@QBEPAVAircraftClass@@XZ ; SimulationDriver::GetPlayerAircraft
	mov	DWORD PTR _playerAC$[ebp], eax

; 323  : 	if (playerAC && playerAC->IsSetFlag(MOTION_OWNSHIP)){

	cmp	DWORD PTR _playerAC$[ebp], 0
	je	SHORT $LN100@Exec
	push	65536					; 00010000H
	mov	ecx, DWORD PTR _playerAC$[ebp]
	call	?IsSetFlag@SimBaseClass@@QBEHH@Z	; SimBaseClass::IsSetFlag
	test	eax, eax
	je	SHORT $LN100@Exec

; 324  : 		armingdelay = playerAC->Sms->armingdelay;//me123

	mov	ecx, DWORD PTR _playerAC$[ebp]
	mov	edx, DWORD PTR [ecx+940]
	movss	xmm0, DWORD PTR [edx+172]
	movss	DWORD PTR _armingdelay$[ebp], xmm0
$LN100@Exec:

; 325  : 	}
; 326  : 
; 327  : 
; 328  : 	if (IsDead() || (flags & FirstFrame))

	mov	eax, DWORD PTR _this$[ebp]
	mov	edx, DWORD PTR [eax]
	mov	ecx, DWORD PTR _this$[ebp]
	mov	eax, DWORD PTR [edx+340]
	call	eax
	test	eax, eax
	jne	SHORT $LN98@Exec
	mov	ecx, DWORD PTR _this$[ebp]
	mov	edx, DWORD PTR [ecx+732]
	and	edx, 1
	je	SHORT $LN99@Exec
$LN98@Exec:

; 329  : 	{
; 330  : 		flags &= ~FirstFrame;

	mov	eax, DWORD PTR _this$[ebp]
	mov	ecx, DWORD PTR [eax+732]
	and	ecx, -2					; fffffffeH
	mov	edx, DWORD PTR _this$[ebp]
	mov	DWORD PTR [edx+732], ecx

; 331  : 		return TRUE;

	mov	eax, 1
	jmp	$LN101@Exec
$LN99@Exec:

; 332  : 	}
; 333  : 
; 334  : 	UpdateTrail();

	mov	eax, DWORD PTR _this$[ebp]
	mov	edx, DWORD PTR [eax]
	mov	ecx, DWORD PTR _this$[ebp]
	mov	eax, DWORD PTR [edx+468]
	call	eax

; 335  : 
; 336  : 	// ACMI Output
; 337  : 	if (gACMIRec.IsRecording() && (SimLibFrameCount & 0x07 ) == 0)

	mov	ecx, OFFSET ?gACMIRec@@3VACMIRecorder@@A ; gACMIRec
	call	?IsRecording@ACMIRecorder@@QAEHXZ	; ACMIRecorder::IsRecording
	test	eax, eax
	je	$LN93@Exec
	mov	ecx, DWORD PTR ?SimLibFrameCount@@3IA	; SimLibFrameCount
	and	ecx, 7
	jne	$LN93@Exec

; 338  : 	{
; 339  : 		genPos.hdr.time = SimLibElapsedTime * MSEC_TO_SEC + OTWDriver.todOffset;

	mov	edx, DWORD PTR ?SimLibElapsedTime@@3KA	; SimLibElapsedTime
	mov	DWORD PTR tv3637[ebp], edx
	cvtsi2sd xmm0, DWORD PTR tv3637[ebp]
	mov	eax, DWORD PTR tv3637[ebp]
	shr	eax, 31					; 0000001fH
	addsd	xmm0, QWORD PTR __xmm@41f00000000000000000000000000000[eax*8]
	movsd	QWORD PTR tv3641[ebp], xmm0
	cvtsd2ss xmm0, QWORD PTR tv3641[ebp]
	mulss	xmm0, DWORD PTR __real@3a83126f
	addss	xmm0, DWORD PTR ?OTWDriver@@3VOTWDriverClass@@A+32052
	movss	DWORD PTR _genPos$[ebp+1], xmm0

; 340  : 		genPos.data.type = Type();

	mov	ecx, DWORD PTR _this$[ebp]
	call	?Type@VuEntity@@QBEGXZ			; VuEntity::Type
	movzx	ecx, ax
	mov	DWORD PTR _genPos$[ebp+5], ecx

; 341  : 		genPos.data.uniqueID = ACMIIDTable->Add(Id(),NULL,TeamInfo[GetTeam()]->GetColor());//.num_;

	mov	edx, DWORD PTR _this$[ebp]
	mov	eax, DWORD PTR [edx]
	mov	ecx, DWORD PTR _this$[ebp]
	mov	edx, DWORD PTR [eax+116]
	call	edx
	movzx	eax, al
	mov	ecx, DWORD PTR ?TeamInfo@@3PAPAVTeamClass@@A[eax*4]
	call	?GetColor@TeamClass@@QAEHXZ		; TeamClass::GetColor
	push	eax
	push	0
	lea	ecx, DWORD PTR $T8[ebp]
	push	ecx
	mov	ecx, DWORD PTR _this$[ebp]
	call	?Id@VuEntity@@QBE?AVVU_ID@@XZ		; VuEntity::Id
	mov	edx, DWORD PTR [eax+4]
	push	edx
	mov	eax, DWORD PTR [eax]
	push	eax
	mov	ecx, DWORD PTR ?ACMIIDTable@@3PAVACMI_Hash@@A ; ACMIIDTable
	call	?Add@ACMI_Hash@@QAEJVVU_ID@@PADJ@Z	; ACMI_Hash::Add
	mov	DWORD PTR _genPos$[ebp+9], eax

; 342  : 		genPos.data.x = XPos();

	mov	ecx, DWORD PTR _this$[ebp]
	call	?XPos@VuEntity@@QBEMXZ			; VuEntity::XPos
	fstp	DWORD PTR _genPos$[ebp+13]

; 343  : 		genPos.data.y = YPos();

	mov	ecx, DWORD PTR _this$[ebp]
	call	?YPos@VuEntity@@QBEMXZ			; VuEntity::YPos
	fstp	DWORD PTR _genPos$[ebp+17]

; 344  : 		genPos.data.z = ZPos();

	mov	ecx, DWORD PTR _this$[ebp]
	call	?ZPos@VuEntity@@QBEMXZ			; VuEntity::ZPos
	fstp	DWORD PTR _genPos$[ebp+21]

; 345  : 		genPos.data.roll = Roll();

	mov	ecx, DWORD PTR _this$[ebp]
	call	?Roll@VuEntity@@QBEMXZ			; VuEntity::Roll
	fstp	DWORD PTR _genPos$[ebp+33]

; 346  : 		genPos.data.pitch = Pitch();

	mov	ecx, DWORD PTR _this$[ebp]
	call	?Pitch@VuEntity@@QBEMXZ			; VuEntity::Pitch
	fstp	DWORD PTR _genPos$[ebp+29]

; 347  : 		genPos.data.yaw = Yaw();

	mov	ecx, DWORD PTR _this$[ebp]
	call	?Yaw@VuEntity@@QBEMXZ			; VuEntity::Yaw
	fstp	DWORD PTR _genPos$[ebp+25]

; 348  : 
; 349  : 		if ( flags & IsFlare )

	mov	ecx, DWORD PTR _this$[ebp]
	mov	edx, DWORD PTR [ecx+732]
	and	edx, 16					; 00000010H
	je	SHORT $LN96@Exec

; 350  : 			gACMIRec.FlarePositionRecord( (ACMIFlarePositionRecord *)&genPos );

	lea	eax, DWORD PTR _genPos$[ebp]
	push	eax
	mov	ecx, OFFSET ?gACMIRec@@3VACMIRecorder@@A ; gACMIRec
	call	?FlarePositionRecord@ACMIRecorder@@QAEXPAUACMIFlarePositionRecord@@@Z ; ACMIRecorder::FlarePositionRecord
	jmp	SHORT $LN93@Exec
$LN96@Exec:

; 351  : 		else if ( flags & IsChaff )

	mov	ecx, DWORD PTR _this$[ebp]
	mov	edx, DWORD PTR [ecx+732]
	and	edx, 4
	je	SHORT $LN94@Exec

; 352  : 			gACMIRec.ChaffPositionRecord( (ACMIChaffPositionRecord *)&genPos );

	lea	eax, DWORD PTR _genPos$[ebp]
	push	eax
	mov	ecx, OFFSET ?gACMIRec@@3VACMIRecorder@@A ; gACMIRec
	call	?ChaffPositionRecord@ACMIRecorder@@QAEXPAUACMIChaffPositionRecord@@@Z ; ACMIRecorder::ChaffPositionRecord

; 353  : 		else

	jmp	SHORT $LN93@Exec
$LN94@Exec:

; 354  : 			gACMIRec.GenPositionRecord( &genPos );

	lea	ecx, DWORD PTR _genPos$[ebp]
	push	ecx
	mov	ecx, OFFSET ?gACMIRec@@3VACMIRecorder@@A ; gACMIRec
	call	?GenPositionRecord@ACMIRecorder@@QAEXPAUACMIGenPositionRecord@@@Z ; ACMIRecorder::GenPositionRecord
$LN93@Exec:

; 355  : 	}
; 356  : 
; 357  : 	if (!IsLocal())

	mov	ecx, DWORD PTR _this$[ebp]
	call	?IsLocal@VuEntity@@QBEEXZ		; VuEntity::IsLocal
	movzx	edx, al
	test	edx, edx
	jne	SHORT $LN92@Exec

; 358  : 	{
; 359  : 		return FALSE;

	xor	eax, eax
	jmp	$LN101@Exec
$LN92@Exec:

; 360  : 	}
; 361  : 
; 362  : 	if(IsExploding())

	mov	eax, DWORD PTR _this$[ebp]
	mov	edx, DWORD PTR [eax]
	mov	ecx, DWORD PTR _this$[ebp]
	mov	eax, DWORD PTR [edx+208]
	call	eax
	test	eax, eax
	je	SHORT $LN91@Exec

; 363  : 	{
; 364  : 		DoExplosion();

	mov	ecx, DWORD PTR _this$[ebp]
	mov	edx, DWORD PTR [ecx]
	mov	ecx, DWORD PTR _this$[ebp]
	mov	eax, DWORD PTR [edx+480]
	call	eax

; 365  : 		return TRUE;

	mov	eax, 1
	jmp	$LN101@Exec
	jmp	$LN89@Exec
$LN91@Exec:

; 366  : 	}
; 367  : 
; 368  : 	else if (SimDriver.MotionOn())

	mov	ecx, OFFSET ?SimDriver@@3VSimulationDriver@@A ; SimDriver
	call	?MotionOn@SimulationDriver@@QAEHXZ	; SimulationDriver::MotionOn
	test	eax, eax
	je	$LN89@Exec

; 369  : 	{
; 370  : 		SpecialGraphics();

	mov	ecx, DWORD PTR _this$[ebp]
	mov	edx, DWORD PTR [ecx]
	mov	ecx, DWORD PTR _this$[ebp]
	mov	eax, DWORD PTR [edx+488]
	call	eax

; 371  : 
; 372  : 		x = XPos() + XDelta() * SimLibMajorFrameTime;

	mov	ecx, DWORD PTR _this$[ebp]
	call	?XPos@VuEntity@@QBEMXZ			; VuEntity::XPos
	fstp	DWORD PTR tv3691[ebp]
	movss	xmm0, DWORD PTR tv3691[ebp]
	mov	ecx, DWORD PTR _this$[ebp]
	movss	DWORD PTR tv5340[ebp], xmm0
	call	?XDelta@VuEntity@@QBEMXZ		; VuEntity::XDelta
	fstp	DWORD PTR tv3695[ebp]
	movss	xmm0, DWORD PTR tv3695[ebp]
	mulss	xmm0, DWORD PTR ?SimLibMajorFrameTime@@3MA
	movss	xmm1, DWORD PTR tv5340[ebp]
	addss	xmm1, xmm0
	mov	ecx, DWORD PTR _this$[ebp]
	movss	DWORD PTR [ecx+736], xmm1

; 373  : 		y = YPos() + YDelta() * SimLibMajorFrameTime;

	mov	ecx, DWORD PTR _this$[ebp]
	call	?YPos@VuEntity@@QBEMXZ			; VuEntity::YPos
	fstp	DWORD PTR tv3700[ebp]
	movss	xmm0, DWORD PTR tv3700[ebp]
	mov	ecx, DWORD PTR _this$[ebp]
	movss	DWORD PTR tv5342[ebp], xmm0
	call	?YDelta@VuEntity@@QBEMXZ		; VuEntity::YDelta
	fstp	DWORD PTR tv3704[ebp]
	movss	xmm0, DWORD PTR tv3704[ebp]
	mulss	xmm0, DWORD PTR ?SimLibMajorFrameTime@@3MA
	movss	xmm1, DWORD PTR tv5342[ebp]
	addss	xmm1, xmm0
	mov	edx, DWORD PTR _this$[ebp]
	movss	DWORD PTR [edx+740], xmm1

; 374  : 		z = ZPos() + ZDelta() * SimLibMajorFrameTime;

	mov	ecx, DWORD PTR _this$[ebp]
	call	?ZPos@VuEntity@@QBEMXZ			; VuEntity::ZPos
	fstp	DWORD PTR tv3709[ebp]
	movss	xmm0, DWORD PTR tv3709[ebp]
	mov	ecx, DWORD PTR _this$[ebp]
	movss	DWORD PTR tv5376[ebp], xmm0
	call	?ZDelta@VuEntity@@QBEMXZ		; VuEntity::ZDelta
	fstp	DWORD PTR tv3713[ebp]
	movss	xmm0, DWORD PTR tv3713[ebp]
	mulss	xmm0, DWORD PTR ?SimLibMajorFrameTime@@3MA
	movss	xmm1, DWORD PTR tv5376[ebp]
	addss	xmm1, xmm0
	mov	eax, DWORD PTR _this$[ebp]
	movss	DWORD PTR [eax+744], xmm1

; 375  : 
; 376  : 		float dx, dy, ratx, raty, vdrag, horiz;
; 377  : 		//dumb bomb algorithm
; 378  : 		/*y = Tan(theta) * x - (g * x^2)/(2(*v*cos(theta)^2)*/
; 379  : 
; 380  : 		horiz = (float)sqrt( XDelta() * XDelta() + YDelta() * YDelta() + 0.1f);

	mov	ecx, DWORD PTR _this$[ebp]
	call	?XDelta@VuEntity@@QBEMXZ		; VuEntity::XDelta
	fstp	DWORD PTR tv3718[ebp]
	movss	xmm0, DWORD PTR tv3718[ebp]
	mov	ecx, DWORD PTR _this$[ebp]
	movss	DWORD PTR tv5378[ebp], xmm0
	call	?XDelta@VuEntity@@QBEMXZ		; VuEntity::XDelta
	fstp	DWORD PTR tv3722[ebp]
	movss	xmm0, DWORD PTR tv5378[ebp]
	mulss	xmm0, DWORD PTR tv3722[ebp]
	mov	ecx, DWORD PTR _this$[ebp]
	movss	DWORD PTR tv5380[ebp], xmm0
	call	?YDelta@VuEntity@@QBEMXZ		; VuEntity::YDelta
	fstp	DWORD PTR tv3726[ebp]
	movss	xmm0, DWORD PTR tv3726[ebp]
	mov	ecx, DWORD PTR _this$[ebp]
	movss	DWORD PTR tv5382[ebp], xmm0
	call	?YDelta@VuEntity@@QBEMXZ		; VuEntity::YDelta
	fstp	DWORD PTR tv3730[ebp]
	movss	xmm0, DWORD PTR tv5382[ebp]
	mulss	xmm0, DWORD PTR tv3730[ebp]
	movss	xmm1, DWORD PTR tv5380[ebp]
	addss	xmm1, xmm0
	addss	xmm1, DWORD PTR __real@3dcccccd
	push	ecx
	movss	DWORD PTR [esp], xmm1
	call	?SqrtSSE@@YAMM@Z			; SqrtSSE
	add	esp, 4
	fstp	DWORD PTR _horiz$25[ebp]

; 381  : 		ratx = (float)fabs(XDelta())/horiz;

	mov	ecx, DWORD PTR _this$[ebp]
	call	?XDelta@VuEntity@@QBEMXZ		; VuEntity::XDelta
	push	ecx
	fstp	DWORD PTR [esp]
	call	?fabs@@YAMM@Z				; fabs
	add	esp, 4
	fstp	DWORD PTR tv3741[ebp]
	movss	xmm0, DWORD PTR tv3741[ebp]
	divss	xmm0, DWORD PTR _horiz$25[ebp]
	movss	DWORD PTR _ratx$29[ebp], xmm0

; 382  : 		raty = (float)fabs(YDelta())/horiz;

	mov	ecx, DWORD PTR _this$[ebp]
	call	?YDelta@VuEntity@@QBEMXZ		; VuEntity::YDelta
	push	ecx
	fstp	DWORD PTR [esp]
	call	?fabs@@YAMM@Z				; fabs
	add	esp, 4
	fstp	DWORD PTR tv3749[ebp]
	movss	xmm0, DWORD PTR tv3749[ebp]
	divss	xmm0, DWORD PTR _horiz$25[ebp]
	movss	DWORD PTR _raty$30[ebp], xmm0

; 383  : 
; 384  : 		// for the 1st sec don't apply drag
; 385  : 		grav = GRAVITY;

	movss	xmm0, DWORD PTR __real@4200b53f
	movss	DWORD PTR _grav$[ebp], xmm0

; 386  : 		if (SimLibElapsedTime - timeOfDeath > 1 * SEC_TO_MSEC )

	mov	ecx, DWORD PTR _this$[ebp]
	mov	edx, DWORD PTR ?SimLibElapsedTime@@3KA	; SimLibElapsedTime
	sub	edx, DWORD PTR [ecx+288]
	cmp	edx, 1000				; 000003e8H
	jbe	SHORT $LN88@Exec

; 387  : 		{
; 388  : 			vdrag = dragCoeff * dragConstant * SimLibMajorFrameTime;

	mov	eax, DWORD PTR _this$[ebp]
	movss	xmm0, DWORD PTR [eax+724]
	mulss	xmm0, DWORD PTR ?dragConstant@BombClass@@2MA
	mulss	xmm0, DWORD PTR ?SimLibMajorFrameTime@@3MA
	movss	DWORD PTR _vdrag$35[ebp], xmm0

; 389  : 			// super high drag will mean also reduced gravity due to
; 390  : 			// air friction....
; 391  : 			if ( dragCoeff >= 1.0f )

	mov	ecx, DWORD PTR _this$[ebp]
	movss	xmm0, DWORD PTR [ecx+724]
	comiss	xmm0, DWORD PTR __real@3f800000
	jb	SHORT $LN87@Exec

; 392  : 				grav = GRAVITY * 0.65F;

	movss	xmm0, DWORD PTR __real@41a75205
	movss	DWORD PTR _grav$[ebp], xmm0
$LN87@Exec:

; 393  : 		}
; 394  : 		else

	jmp	SHORT $LN86@Exec
$LN88@Exec:

; 395  : 		{
; 396  : 			vdrag = 0.0f;

	movss	xmm0, DWORD PTR __real@00000000
	movss	DWORD PTR _vdrag$35[ebp], xmm0
$LN86@Exec:

; 397  : 		}
; 398  : 
; 399  : 		if ( fabs( XDelta() ) < vdrag * ratx)

	mov	ecx, DWORD PTR _this$[ebp]
	call	?XDelta@VuEntity@@QBEMXZ		; VuEntity::XDelta
	push	ecx
	fstp	DWORD PTR [esp]
	call	?fabs@@YAMM@Z				; fabs
	add	esp, 4
	fstp	DWORD PTR tv3766[ebp]
	movss	xmm0, DWORD PTR _vdrag$35[ebp]
	mulss	xmm0, DWORD PTR _ratx$29[ebp]
	comiss	xmm0, DWORD PTR tv3766[ebp]
	jbe	SHORT $LN85@Exec

; 400  : 		{
; 401  : 			dx = 0.0f;

	movss	xmm0, DWORD PTR __real@00000000
	movss	DWORD PTR _dx$36[ebp], xmm0

; 402  : 		}
; 403  : 		else

	jmp	$LN82@Exec
$LN85@Exec:

; 404  : 		{
; 405  : 			if ( XDelta() > 0.0f )

	mov	ecx, DWORD PTR _this$[ebp]
	call	?XDelta@VuEntity@@QBEMXZ		; VuEntity::XDelta
	fstp	DWORD PTR tv3772[ebp]
	movss	xmm0, DWORD PTR tv3772[ebp]
	comiss	xmm0, DWORD PTR __real@00000000
	jbe	SHORT $LN83@Exec

; 406  : 				dx = XDelta() - vdrag * ratx;

	mov	ecx, DWORD PTR _this$[ebp]
	call	?XDelta@VuEntity@@QBEMXZ		; VuEntity::XDelta
	fstp	DWORD PTR tv3776[ebp]
	movss	xmm0, DWORD PTR tv3776[ebp]
	movss	xmm1, DWORD PTR _vdrag$35[ebp]
	mulss	xmm1, DWORD PTR _ratx$29[ebp]
	subss	xmm0, xmm1
	movss	DWORD PTR _dx$36[ebp], xmm0

; 407  : 			else

	jmp	SHORT $LN82@Exec
$LN83@Exec:

; 408  : 				dx = XDelta() + vdrag * ratx;

	mov	ecx, DWORD PTR _this$[ebp]
	call	?XDelta@VuEntity@@QBEMXZ		; VuEntity::XDelta
	fstp	DWORD PTR tv3781[ebp]
	movss	xmm0, DWORD PTR tv3781[ebp]
	movss	xmm1, DWORD PTR _vdrag$35[ebp]
	mulss	xmm1, DWORD PTR _ratx$29[ebp]
	addss	xmm0, xmm1
	movss	DWORD PTR _dx$36[ebp], xmm0
$LN82@Exec:

; 409  : 		}
; 410  : 		if ( fabs( YDelta() ) < vdrag * raty)

	mov	ecx, DWORD PTR _this$[ebp]
	call	?YDelta@VuEntity@@QBEMXZ		; VuEntity::YDelta
	push	ecx
	fstp	DWORD PTR [esp]
	call	?fabs@@YAMM@Z				; fabs
	add	esp, 4
	fstp	DWORD PTR tv3790[ebp]
	movss	xmm0, DWORD PTR _vdrag$35[ebp]
	mulss	xmm0, DWORD PTR _raty$30[ebp]
	comiss	xmm0, DWORD PTR tv3790[ebp]
	jbe	SHORT $LN81@Exec

; 411  : 		{
; 412  : 			dy = 0.0f;

	movss	xmm0, DWORD PTR __real@00000000
	movss	DWORD PTR _dy$37[ebp], xmm0

; 413  : 		}
; 414  : 		else

	jmp	SHORT $LN78@Exec
$LN81@Exec:

; 415  : 		{
; 416  : 			if ( YDelta() > 0.0f )

	mov	ecx, DWORD PTR _this$[ebp]
	call	?YDelta@VuEntity@@QBEMXZ		; VuEntity::YDelta
	fstp	DWORD PTR tv3796[ebp]
	movss	xmm0, DWORD PTR tv3796[ebp]
	comiss	xmm0, DWORD PTR __real@00000000
	jbe	SHORT $LN79@Exec

; 417  : 				dy = YDelta() - vdrag * raty;

	mov	ecx, DWORD PTR _this$[ebp]
	call	?YDelta@VuEntity@@QBEMXZ		; VuEntity::YDelta
	fstp	DWORD PTR tv3800[ebp]
	movss	xmm0, DWORD PTR tv3800[ebp]
	movss	xmm1, DWORD PTR _vdrag$35[ebp]
	mulss	xmm1, DWORD PTR _raty$30[ebp]
	subss	xmm0, xmm1
	movss	DWORD PTR _dy$37[ebp], xmm0

; 418  : 			else

	jmp	SHORT $LN78@Exec
$LN79@Exec:

; 419  : 				dy = YDelta() + vdrag * raty;

	mov	ecx, DWORD PTR _this$[ebp]
	call	?YDelta@VuEntity@@QBEMXZ		; VuEntity::YDelta
	fstp	DWORD PTR tv3805[ebp]
	movss	xmm0, DWORD PTR tv3805[ebp]
	movss	xmm1, DWORD PTR _vdrag$35[ebp]
	mulss	xmm1, DWORD PTR _raty$30[ebp]
	addss	xmm0, xmm1
	movss	DWORD PTR _dy$37[ebp], xmm0
$LN78@Exec:

; 420  : 		}
; 421  : 		//me123 lets add the wind change effect to the bomb fall
; 422  : 		//MI.... check for our variable...
; 423  : 		if(g_bEnableWindsAloft)

	movzx	edx, BYTE PTR ?g_bEnableWindsAloft@@3_NA ; g_bEnableWindsAloft
	test	edx, edx
	je	$LN77@Exec

; 424  : 		{
; 425  : 			mlTrig trigWind;
; 426  : 			float wind;
; 427  : 			Tpoint			pos;
; 428  : 			pos.x = x;

	mov	eax, DWORD PTR _this$[ebp]
	movss	xmm0, DWORD PTR [eax+736]
	movss	DWORD PTR _pos$39[ebp], xmm0

; 429  : 			pos.y =y;

	mov	ecx, DWORD PTR _this$[ebp]
	movss	xmm0, DWORD PTR [ecx+740]
	movss	DWORD PTR _pos$39[ebp+4], xmm0

; 430  : 			pos.z = z;

	mov	edx, DWORD PTR _this$[ebp]
	movss	xmm0, DWORD PTR [edx+744]
	movss	DWORD PTR _pos$39[ebp+8], xmm0

; 431  : 
; 432  : 			// current wind
; 433  : 			mlSinCos(&trigWind, ((WeatherClass*)realWeather)->WindHeadingAt(&pos));

	lea	eax, DWORD PTR _pos$39[ebp]
	push	eax
	mov	ecx, DWORD PTR ?realWeather@@3PAVRealWeather@@A ; realWeather
	call	?WindHeadingAt@WeatherClass@@QAEMPBUTpoint@@@Z ; WeatherClass::WindHeadingAt
	push	ecx
	fstp	DWORD PTR [esp]
	lea	ecx, DWORD PTR _trigWind$24[ebp]
	push	ecx
	call	?mlSinCos@@YAXPAUmlTrig@@M@Z		; mlSinCos
	add	esp, 8

; 434  : 			wind =  ((WeatherClass*)realWeather)->WindSpeedInFeetPerSecond(&pos);

	lea	edx, DWORD PTR _pos$39[ebp]
	push	edx
	mov	ecx, DWORD PTR ?realWeather@@3PAVRealWeather@@A ; realWeather
	call	?WindSpeedInFeetPerSecond@WeatherClass@@QAEMPBUTpoint@@@Z ; WeatherClass::WindSpeedInFeetPerSecond
	fstp	DWORD PTR _wind$32[ebp]

; 435  : 			float winddx = trigWind.cos * wind;

	movss	xmm0, DWORD PTR _trigWind$24[ebp+4]
	mulss	xmm0, DWORD PTR _wind$32[ebp]
	movss	DWORD PTR _winddx$11[ebp], xmm0

; 436  : 			float winddy = trigWind.sin * wind;

	movss	xmm0, DWORD PTR _trigWind$24[ebp]
	mulss	xmm0, DWORD PTR _wind$32[ebp]
	movss	DWORD PTR _winddy$15[ebp], xmm0

; 437  : 
; 438  : 			//the wind last time we checked
; 439  : 			pos.z = z -ZDelta() * SimLibMajorFrameTime;

	mov	ecx, DWORD PTR _this$[ebp]
	call	?ZDelta@VuEntity@@QBEMXZ		; VuEntity::ZDelta
	fstp	DWORD PTR tv3827[ebp]
	movss	xmm0, DWORD PTR tv3827[ebp]
	mulss	xmm0, DWORD PTR ?SimLibMajorFrameTime@@3MA
	mov	eax, DWORD PTR _this$[ebp]
	movss	xmm1, DWORD PTR [eax+744]
	subss	xmm1, xmm0
	movss	DWORD PTR _pos$39[ebp+8], xmm1

; 440  : 			mlSinCos(&trigWind, ((WeatherClass*)realWeather)->WindHeadingAt(&pos));

	lea	ecx, DWORD PTR _pos$39[ebp]
	push	ecx
	mov	ecx, DWORD PTR ?realWeather@@3PAVRealWeather@@A ; realWeather
	call	?WindHeadingAt@WeatherClass@@QAEMPBUTpoint@@@Z ; WeatherClass::WindHeadingAt
	push	ecx
	fstp	DWORD PTR [esp]
	lea	edx, DWORD PTR _trigWind$24[ebp]
	push	edx
	call	?mlSinCos@@YAXPAUmlTrig@@M@Z		; mlSinCos
	add	esp, 8

; 441  : 			wind =  ((WeatherClass*)realWeather)->WindSpeedInFeetPerSecond(&pos);

	lea	eax, DWORD PTR _pos$39[ebp]
	push	eax
	mov	ecx, DWORD PTR ?realWeather@@3PAVRealWeather@@A ; realWeather
	call	?WindSpeedInFeetPerSecond@WeatherClass@@QAEMPBUTpoint@@@Z ; WeatherClass::WindSpeedInFeetPerSecond
	fstp	DWORD PTR _wind$32[ebp]

; 442  : 			float lastwinddx = trigWind.cos * wind;

	movss	xmm0, DWORD PTR _trigWind$24[ebp+4]
	mulss	xmm0, DWORD PTR _wind$32[ebp]
	movss	DWORD PTR _lastwinddx$21[ebp], xmm0

; 443  : 			float lastwinddy = trigWind.sin * wind;

	movss	xmm0, DWORD PTR _trigWind$24[ebp]
	mulss	xmm0, DWORD PTR _wind$32[ebp]
	movss	DWORD PTR _lastwinddy$20[ebp], xmm0

; 444  : 
; 445  : 			//factor in the change
; 446  : 			dx += (winddx-lastwinddx)*0.9f;//not all the wind since no inertie is factored in

	movss	xmm0, DWORD PTR _winddx$11[ebp]
	subss	xmm0, DWORD PTR _lastwinddx$21[ebp]
	mulss	xmm0, DWORD PTR __real@3f666666
	addss	xmm0, DWORD PTR _dx$36[ebp]
	movss	DWORD PTR _dx$36[ebp], xmm0

; 447  : 			dy += (winddy-lastwinddy)*0.9f;//not all the wind since no inertie is factored in

	movss	xmm0, DWORD PTR _winddy$15[ebp]
	subss	xmm0, DWORD PTR _lastwinddy$20[ebp]
	mulss	xmm0, DWORD PTR __real@3f666666
	addss	xmm0, DWORD PTR _dy$37[ebp]
	movss	DWORD PTR _dy$37[ebp], xmm0
$LN77@Exec:

; 448  : 		}
; 449  : 
; 450  : 
; 451  : 		// SetDelta (XDelta(), YDelta(), ZDelta() + GRAVITY * SimLibMajorFrameTime);
; 452  : 
; 453  : 		// RV - Biker - Give some extra high gravity for the first ms
; 454  : 		//SetDelta (dx, dy, ZDelta() + grav * SimLibMajorFrameTime);
; 455  : 		if ((SimLibElapsedTime - timeOfDeath) <= (0.25f * SEC_TO_MSEC))

	mov	ecx, DWORD PTR _this$[ebp]
	mov	edx, DWORD PTR ?SimLibElapsedTime@@3KA	; SimLibElapsedTime
	sub	edx, DWORD PTR [ecx+288]
	mov	DWORD PTR tv3848[ebp], edx
	cvtsi2sd xmm0, DWORD PTR tv3848[ebp]
	mov	eax, DWORD PTR tv3848[ebp]
	shr	eax, 31					; 0000001fH
	addsd	xmm0, QWORD PTR __xmm@41f00000000000000000000000000000[eax*8]
	movsd	QWORD PTR tv3851[ebp], xmm0
	cvtsd2ss xmm0, QWORD PTR tv3851[ebp]
	movss	xmm1, DWORD PTR __real@437a0000
	comiss	xmm1, xmm0
	jb	SHORT $LN76@Exec

; 456  : 			SetDelta (XDelta(), YDelta(), ZDelta() + GRAVITY * SimLibMajorFrameTime * 2.0f);

	mov	ecx, DWORD PTR _this$[ebp]
	call	?ZDelta@VuEntity@@QBEMXZ		; VuEntity::ZDelta
	fstp	DWORD PTR tv3859[ebp]
	movss	xmm0, DWORD PTR tv3859[ebp]
	movss	xmm1, DWORD PTR __real@4200b53f
	mulss	xmm1, DWORD PTR ?SimLibMajorFrameTime@@3MA
	mulss	xmm1, DWORD PTR __real@40000000
	addss	xmm0, xmm1
	push	ecx
	movss	DWORD PTR [esp], xmm0
	mov	ecx, DWORD PTR _this$[ebp]
	call	?YDelta@VuEntity@@QBEMXZ		; VuEntity::YDelta
	push	ecx
	fstp	DWORD PTR [esp]
	mov	ecx, DWORD PTR _this$[ebp]
	call	?XDelta@VuEntity@@QBEMXZ		; VuEntity::XDelta
	push	ecx
	fstp	DWORD PTR [esp]
	mov	ecx, DWORD PTR _this$[ebp]
	call	?SetDelta@VuEntity@@QAEXMMM@Z		; VuEntity::SetDelta
	jmp	$LN73@Exec
$LN76@Exec:

; 457  : 		else if((SimLibElapsedTime - timeOfDeath) <= (2.0f * SEC_TO_MSEC))

	mov	ecx, DWORD PTR _this$[ebp]
	mov	edx, DWORD PTR ?SimLibElapsedTime@@3KA	; SimLibElapsedTime
	sub	edx, DWORD PTR [ecx+288]
	mov	DWORD PTR tv3873[ebp], edx
	cvtsi2sd xmm0, DWORD PTR tv3873[ebp]
	mov	eax, DWORD PTR tv3873[ebp]
	shr	eax, 31					; 0000001fH
	addsd	xmm0, QWORD PTR __xmm@41f00000000000000000000000000000[eax*8]
	movsd	QWORD PTR tv3876[ebp], xmm0
	cvtsd2ss xmm0, QWORD PTR tv3876[ebp]
	movss	xmm1, DWORD PTR __real@44fa0000
	comiss	xmm1, xmm0
	jb	SHORT $LN74@Exec

; 458  : 			SetDelta (XDelta(), YDelta(), ZDelta() + GRAVITY * SimLibMajorFrameTime);

	mov	ecx, DWORD PTR _this$[ebp]
	call	?ZDelta@VuEntity@@QBEMXZ		; VuEntity::ZDelta
	fstp	DWORD PTR tv3884[ebp]
	movss	xmm0, DWORD PTR tv3884[ebp]
	movss	xmm1, DWORD PTR __real@4200b53f
	mulss	xmm1, DWORD PTR ?SimLibMajorFrameTime@@3MA
	addss	xmm0, xmm1
	push	ecx
	movss	DWORD PTR [esp], xmm0
	mov	ecx, DWORD PTR _this$[ebp]
	call	?YDelta@VuEntity@@QBEMXZ		; VuEntity::YDelta
	push	ecx
	fstp	DWORD PTR [esp]
	mov	ecx, DWORD PTR _this$[ebp]
	call	?XDelta@VuEntity@@QBEMXZ		; VuEntity::XDelta
	push	ecx
	fstp	DWORD PTR [esp]
	mov	ecx, DWORD PTR _this$[ebp]
	call	?SetDelta@VuEntity@@QAEXMMM@Z		; VuEntity::SetDelta

; 459  : 		else

	jmp	SHORT $LN73@Exec
$LN74@Exec:

; 460  : 			SetDelta (dx, dy, ZDelta() + grav * SimLibMajorFrameTime);

	mov	ecx, DWORD PTR _this$[ebp]
	call	?ZDelta@VuEntity@@QBEMXZ		; VuEntity::ZDelta
	fstp	DWORD PTR tv3898[ebp]
	movss	xmm0, DWORD PTR tv3898[ebp]
	movss	xmm1, DWORD PTR _grav$[ebp]
	mulss	xmm1, DWORD PTR ?SimLibMajorFrameTime@@3MA
	addss	xmm0, xmm1
	push	ecx
	movss	DWORD PTR [esp], xmm0
	push	ecx
	movss	xmm0, DWORD PTR _dy$37[ebp]
	movss	DWORD PTR [esp], xmm0
	push	ecx
	movss	xmm0, DWORD PTR _dx$36[ebp]
	movss	DWORD PTR [esp], xmm0
	mov	ecx, DWORD PTR _this$[ebp]
	call	?SetDelta@VuEntity@@QAEXMMM@Z		; VuEntity::SetDelta
$LN73@Exec:

; 461  : 		vt = (float)sqrt(XDelta()*XDelta() + YDelta()*YDelta() + ZDelta()*ZDelta());

	mov	ecx, DWORD PTR _this$[ebp]
	call	?XDelta@VuEntity@@QBEMXZ		; VuEntity::XDelta
	fstp	DWORD PTR tv3908[ebp]
	movss	xmm0, DWORD PTR tv3908[ebp]
	mov	ecx, DWORD PTR _this$[ebp]
	movss	DWORD PTR tv5384[ebp], xmm0
	call	?XDelta@VuEntity@@QBEMXZ		; VuEntity::XDelta
	fstp	DWORD PTR tv3912[ebp]
	movss	xmm0, DWORD PTR tv5384[ebp]
	mulss	xmm0, DWORD PTR tv3912[ebp]
	mov	ecx, DWORD PTR _this$[ebp]
	movss	DWORD PTR tv5386[ebp], xmm0
	call	?YDelta@VuEntity@@QBEMXZ		; VuEntity::YDelta
	fstp	DWORD PTR tv3916[ebp]
	movss	xmm0, DWORD PTR tv3916[ebp]
	mov	ecx, DWORD PTR _this$[ebp]
	movss	DWORD PTR tv5388[ebp], xmm0
	call	?YDelta@VuEntity@@QBEMXZ		; VuEntity::YDelta
	fstp	DWORD PTR tv3920[ebp]
	movss	xmm0, DWORD PTR tv5388[ebp]
	mulss	xmm0, DWORD PTR tv3920[ebp]
	movss	xmm1, DWORD PTR tv5386[ebp]
	addss	xmm1, xmm0
	mov	ecx, DWORD PTR _this$[ebp]
	movss	DWORD PTR tv5390[ebp], xmm1
	call	?ZDelta@VuEntity@@QBEMXZ		; VuEntity::ZDelta
	fstp	DWORD PTR tv3924[ebp]
	movss	xmm0, DWORD PTR tv3924[ebp]
	mov	ecx, DWORD PTR _this$[ebp]
	movss	DWORD PTR tv5392[ebp], xmm0
	call	?ZDelta@VuEntity@@QBEMXZ		; VuEntity::ZDelta
	fstp	DWORD PTR tv3928[ebp]
	movss	xmm0, DWORD PTR tv5392[ebp]
	mulss	xmm0, DWORD PTR tv3928[ebp]
	movss	xmm1, DWORD PTR tv5390[ebp]
	addss	xmm1, xmm0
	push	ecx
	movss	DWORD PTR [esp], xmm1
	call	?SqrtSSE@@YAMM@Z			; SqrtSSE
	add	esp, 4
	fstp	DWORD PTR _vt$[ebp]

; 462  : 		SetYPR ((float)atan2 (YDelta(), XDelta()), -(float)asin(ZDelta() / vt), Roll());

	mov	ecx, DWORD PTR _this$[ebp]
	call	?Roll@VuEntity@@QBEMXZ			; VuEntity::Roll
	push	ecx
	fstp	DWORD PTR [esp]
	mov	ecx, DWORD PTR _this$[ebp]
	call	?ZDelta@VuEntity@@QBEMXZ		; VuEntity::ZDelta
	fstp	DWORD PTR tv3937[ebp]
	movss	xmm0, DWORD PTR tv3937[ebp]
	divss	xmm0, DWORD PTR _vt$[ebp]
	push	ecx
	movss	DWORD PTR [esp], xmm0
	call	?asin@@YAMM@Z				; asin
	add	esp, 4
	fstp	DWORD PTR tv3942[ebp]
	movss	xmm0, DWORD PTR tv3942[ebp]
	xorps	xmm0, DWORD PTR __xmm@80000000800000008000000080000000
	push	ecx
	movss	DWORD PTR [esp], xmm0
	mov	ecx, DWORD PTR _this$[ebp]
	call	?XDelta@VuEntity@@QBEMXZ		; VuEntity::XDelta
	sub	esp, 8
	fstp	QWORD PTR [esp]
	mov	ecx, DWORD PTR _this$[ebp]
	call	?YDelta@VuEntity@@QBEMXZ		; VuEntity::YDelta
	sub	esp, 8
	fstp	QWORD PTR [esp]
	call	?checked_atan2@@YANNN@Z			; checked_atan2
	add	esp, 16					; 00000010H
	fstp	DWORD PTR tv3956[ebp]
	fld	DWORD PTR tv3956[ebp]
	push	ecx
	fstp	DWORD PTR [esp]
	mov	ecx, DWORD PTR _this$[ebp]
	call	?SetYPR@VuEntity@@QAEXMMM@Z		; VuEntity::SetYPR

; 463  : 
; 464  : 		// NOTE:  Yaw never changes, so we could avoid much of this...
; 465  : 		mlSinCos (&trigYaw, Yaw());

	mov	ecx, DWORD PTR _this$[ebp]
	call	?Yaw@VuEntity@@QBEMXZ			; VuEntity::Yaw
	push	ecx
	fstp	DWORD PTR [esp]
	lea	ecx, DWORD PTR _trigYaw$[ebp]
	push	ecx
	call	?mlSinCos@@YAXPAUmlTrig@@M@Z		; mlSinCos
	add	esp, 8

; 466  : 		mlSinCos (&trigPitch, Pitch());

	mov	ecx, DWORD PTR _this$[ebp]
	call	?Pitch@VuEntity@@QBEMXZ			; VuEntity::Pitch
	push	ecx
	fstp	DWORD PTR [esp]
	lea	edx, DWORD PTR _trigPitch$[ebp]
	push	edx
	call	?mlSinCos@@YAXPAUmlTrig@@M@Z		; mlSinCos
	add	esp, 8

; 467  : 
; 468  : 		dmx[0][0] = trigYaw.cos * trigPitch.cos;

	movss	xmm0, DWORD PTR _trigYaw$[ebp+4]
	mulss	xmm0, DWORD PTR _trigPitch$[ebp+4]
	mov	eax, 12					; 0000000cH
	imul	eax, 0
	mov	ecx, DWORD PTR _this$[ebp]
	lea	edx, DWORD PTR [ecx+eax+296]
	mov	eax, 4
	imul	eax, 0
	movss	DWORD PTR [edx+eax], xmm0

; 469  : 		dmx[0][1] = trigYaw.sin * trigPitch.cos;

	movss	xmm0, DWORD PTR _trigYaw$[ebp]
	mulss	xmm0, DWORD PTR _trigPitch$[ebp+4]
	mov	ecx, 12					; 0000000cH
	imul	ecx, 0
	mov	edx, DWORD PTR _this$[ebp]
	lea	eax, DWORD PTR [edx+ecx+296]
	mov	ecx, 4
	shl	ecx, 0
	movss	DWORD PTR [eax+ecx], xmm0

; 470  : 		dmx[0][2] = -trigPitch.sin;

	movss	xmm0, DWORD PTR _trigPitch$[ebp]
	xorps	xmm0, DWORD PTR __xmm@80000000800000008000000080000000
	mov	edx, 12					; 0000000cH
	imul	edx, 0
	mov	eax, DWORD PTR _this$[ebp]
	lea	ecx, DWORD PTR [eax+edx+296]
	mov	edx, 4
	shl	edx, 1
	movss	DWORD PTR [ecx+edx], xmm0

; 471  : 
; 472  : 		dmx[1][0] = -trigYaw.sin;

	movss	xmm0, DWORD PTR _trigYaw$[ebp]
	xorps	xmm0, DWORD PTR __xmm@80000000800000008000000080000000
	mov	eax, 12					; 0000000cH
	shl	eax, 0
	mov	ecx, DWORD PTR _this$[ebp]
	lea	edx, DWORD PTR [ecx+eax+296]
	mov	eax, 4
	imul	eax, 0
	movss	DWORD PTR [edx+eax], xmm0

; 473  : 		dmx[1][1] = trigYaw.cos;

	mov	ecx, 12					; 0000000cH
	shl	ecx, 0
	mov	edx, DWORD PTR _this$[ebp]
	lea	eax, DWORD PTR [edx+ecx+296]
	mov	ecx, 4
	shl	ecx, 0
	movss	xmm0, DWORD PTR _trigYaw$[ebp+4]
	movss	DWORD PTR [eax+ecx], xmm0

; 474  : 		dmx[1][2] = 0.0F;

	mov	edx, 12					; 0000000cH
	shl	edx, 0
	mov	eax, DWORD PTR _this$[ebp]
	lea	ecx, DWORD PTR [eax+edx+296]
	mov	edx, 4
	shl	edx, 1
	movss	xmm0, DWORD PTR __real@00000000
	movss	DWORD PTR [ecx+edx], xmm0

; 475  : 
; 476  : 		dmx[2][0] = trigYaw.cos * trigPitch.sin;

	movss	xmm0, DWORD PTR _trigYaw$[ebp+4]
	mulss	xmm0, DWORD PTR _trigPitch$[ebp]
	mov	eax, 12					; 0000000cH
	shl	eax, 1
	mov	ecx, DWORD PTR _this$[ebp]
	lea	edx, DWORD PTR [ecx+eax+296]
	mov	eax, 4
	imul	eax, 0
	movss	DWORD PTR [edx+eax], xmm0

; 477  : 		dmx[2][1] = trigYaw.sin * trigPitch.sin;

	movss	xmm0, DWORD PTR _trigYaw$[ebp]
	mulss	xmm0, DWORD PTR _trigPitch$[ebp]
	mov	ecx, 12					; 0000000cH
	shl	ecx, 1
	mov	edx, DWORD PTR _this$[ebp]
	lea	eax, DWORD PTR [edx+ecx+296]
	mov	ecx, 4
	shl	ecx, 0
	movss	DWORD PTR [eax+ecx], xmm0

; 478  : 		dmx[2][2] = trigPitch.cos;

	mov	edx, 12					; 0000000cH
	shl	edx, 1
	mov	eax, DWORD PTR _this$[ebp]
	lea	ecx, DWORD PTR [eax+edx+296]
	mov	edx, 4
	shl	edx, 1
	movss	xmm0, DWORD PTR _trigPitch$[ebp+4]
	movss	DWORD PTR [ecx+edx], xmm0

; 479  : 
; 480  : 		// special case durandal -- when fired remove chute
; 481  : 		if ( (flags & IsDurandal) &&
; 482  : 				(flags & FireDurandal) &&
; 483  : 				drawPointer &&
; 484  : 				((DrawableBSP*)drawPointer)->GetNumSwitches() > 0 )

	mov	eax, DWORD PTR _this$[ebp]
	mov	ecx, DWORD PTR [eax+732]
	and	ecx, 64					; 00000040H
	je	SHORT $LN72@Exec
	mov	edx, DWORD PTR _this$[ebp]
	mov	eax, DWORD PTR [edx+732]
	and	eax, 128				; 00000080H
	je	SHORT $LN72@Exec
	mov	ecx, DWORD PTR _this$[ebp]
	cmp	DWORD PTR [ecx+332], 0
	je	SHORT $LN72@Exec
	mov	edx, DWORD PTR _this$[ebp]
	mov	ecx, DWORD PTR [edx+332]
	call	?GetNumSwitches@DrawableBSP@@QAEHXZ	; DrawableBSP::GetNumSwitches
	test	eax, eax
	jle	SHORT $LN72@Exec

; 485  : 		{
; 486  : 			((DrawableBSP *)drawPointer)->SetSwitchMask( 0, 0 );

	push	0
	push	0
	mov	eax, DWORD PTR _this$[ebp]
	mov	ecx, DWORD PTR [eax+332]
	call	?SetSwitchMask@DrawableBSP@@QAEXHK@Z	; DrawableBSP::SetSwitchMask
$LN72@Exec:

; 487  : 		}
; 488  : 
; 489  : 		// special case durandal.  If x and y vel reaches 0 we fire it
; 490  : 		// by starting the special effect
; 491  : 		if ( (flags & IsDurandal) &&
; 492  : 				!(flags & FireDurandal) &&
; 493  : 				dx == 0.0f &&
; 494  : 				dy == 0.0f )

	mov	ecx, DWORD PTR _this$[ebp]
	mov	edx, DWORD PTR [ecx+732]
	and	edx, 64					; 00000040H
	je	$LN71@Exec
	mov	eax, DWORD PTR _this$[ebp]
	mov	ecx, DWORD PTR [eax+732]
	and	ecx, 128				; 00000080H
	jne	$LN71@Exec
	movss	xmm0, DWORD PTR _dx$36[ebp]
	ucomiss	xmm0, DWORD PTR __real@00000000
	lahf
	test	ah, 68					; 00000044H
	jp	$LN71@Exec
	movss	xmm0, DWORD PTR _dy$37[ebp]
	ucomiss	xmm0, DWORD PTR __real@00000000
	lahf
	test	ah, 68					; 00000044H
	jp	$LN71@Exec

; 495  : 		{
; 496  : 			flags |= FireDurandal;

	mov	edx, DWORD PTR _this$[ebp]
	mov	eax, DWORD PTR [edx+732]
	or	eax, 128				; 00000080H
	mov	ecx, DWORD PTR _this$[ebp]
	mov	DWORD PTR [ecx+732], eax

; 497  : 
; 498  : 			// accelerate towards ground
; 499  : 			SetDelta (dx, dy, ZDelta() + 500.0f);

	mov	ecx, DWORD PTR _this$[ebp]
	call	?ZDelta@VuEntity@@QBEMXZ		; VuEntity::ZDelta
	fstp	DWORD PTR tv4031[ebp]
	movss	xmm0, DWORD PTR tv4031[ebp]
	addss	xmm0, DWORD PTR __real@43fa0000
	push	ecx
	movss	DWORD PTR [esp], xmm0
	push	ecx
	movss	xmm0, DWORD PTR _dy$37[ebp]
	movss	DWORD PTR [esp], xmm0
	push	ecx
	movss	xmm0, DWORD PTR _dx$36[ebp]
	movss	DWORD PTR [esp], xmm0
	mov	ecx, DWORD PTR _this$[ebp]
	call	?SetDelta@VuEntity@@QAEXMMM@Z		; VuEntity::SetDelta

; 500  : 			endMessage = new FalconMissileEndMessage (Id(), FalconLocalGame);

	push	285					; 0000011dH
	call	??2@YAPAXI@Z				; operator new
	add	esp, 4
	mov	DWORD PTR $T26[ebp], eax
	mov	DWORD PTR __$EHRec$[ebp+8], 0
	cmp	DWORD PTR $T26[ebp], 0
	je	SHORT $LN105@Exec
	mov	ecx, OFFSET ?vuLocalSessionEntity@@3V?$VuBin@VVuSessionEntity@@@@A ; vuLocalSessionEntity
	call	??B?$VuBin@VVuSessionEntity@@@@QBE_NXZ	; VuBin<VuSessionEntity>::operator bool
	movzx	edx, al
	test	edx, edx
	je	SHORT $LN103@Exec
	mov	ecx, OFFSET ?vuLocalSessionEntity@@3V?$VuBin@VVuSessionEntity@@@@A ; vuLocalSessionEntity
	call	?get@?$VuBin@VVuSessionEntity@@@@QBEPAVVuSessionEntity@@XZ ; VuBin<VuSessionEntity>::get
	mov	ecx, eax
	call	?GetGame@FalconSessionEntity@@QAEPAVFalconGameEntity@@XZ ; FalconSessionEntity::GetGame
	mov	DWORD PTR tv877[ebp], eax
	jmp	SHORT $LN104@Exec
$LN103@Exec:
	mov	DWORD PTR tv877[ebp], 0
$LN104@Exec:
	push	1
	mov	eax, DWORD PTR tv877[ebp]
	push	eax
	lea	ecx, DWORD PTR $T4[ebp]
	push	ecx
	mov	ecx, DWORD PTR _this$[ebp]
	call	?Id@VuEntity@@QBE?AVVU_ID@@XZ		; VuEntity::Id
	mov	edx, DWORD PTR [eax+4]
	push	edx
	mov	eax, DWORD PTR [eax]
	push	eax
	mov	ecx, DWORD PTR $T26[ebp]
	call	??0FalconMissileEndMessage@@QAE@VVU_ID@@PAVVuTargetEntity@@E@Z ; FalconMissileEndMessage::FalconMissileEndMessage
	mov	DWORD PTR tv888[ebp], eax
	jmp	SHORT $LN106@Exec
$LN105@Exec:
	mov	DWORD PTR tv888[ebp], 0
$LN106@Exec:
	mov	ecx, DWORD PTR tv888[ebp]
	mov	DWORD PTR $T19[ebp], ecx
	mov	DWORD PTR __$EHRec$[ebp+8], -1
	mov	edx, DWORD PTR $T19[ebp]
	mov	DWORD PTR _endMessage$[ebp], edx

; 501  : 			endMessage->RequestReliableTransmit ();

	mov	ecx, DWORD PTR _endMessage$[ebp]
	call	?RequestReliableTransmit@VuMessage@@QAEXXZ ; VuMessage::RequestReliableTransmit

; 502  : 			endMessage->RequestOutOfBandTransmit ();

	mov	ecx, DWORD PTR _endMessage$[ebp]
	call	?RequestOutOfBandTransmit@VuMessage@@QAEXXZ ; VuMessage::RequestOutOfBandTransmit

; 503  : 			endMessage->dataBlock.fEntityID  = parent->Id();

	lea	eax, DWORD PTR $T2[ebp]
	push	eax
	mov	ecx, DWORD PTR _this$[ebp]
	add	ecx, 688				; 000002b0H
	call	??C?$VuBin@VFalconEntity@@@@QBEPAVFalconEntity@@XZ ; VuBin<FalconEntity>::operator->
	mov	ecx, eax
	call	?Id@VuEntity@@QBE?AVVU_ID@@XZ		; VuEntity::Id
	mov	ecx, DWORD PTR [eax]
	mov	edx, DWORD PTR [eax+4]
	mov	eax, DWORD PTR _endMessage$[ebp]
	mov	DWORD PTR [eax+63], ecx
	mov	DWORD PTR [eax+67], edx

; 504  : 			endMessage->dataBlock.fCampID    = parent->GetCampID();

	mov	ecx, DWORD PTR _this$[ebp]
	add	ecx, 688				; 000002b0H
	call	??C?$VuBin@VFalconEntity@@@@QBEPAVFalconEntity@@XZ ; VuBin<FalconEntity>::operator->
	mov	DWORD PTR tv925[ebp], eax
	mov	ecx, DWORD PTR tv925[ebp]
	mov	edx, DWORD PTR [ecx]
	mov	ecx, DWORD PTR tv925[ebp]
	mov	eax, DWORD PTR [edx+112]
	call	eax
	mov	ecx, DWORD PTR _endMessage$[ebp]
	mov	WORD PTR [ecx+71], ax

; 505  : 			endMessage->dataBlock.fSide      = parent->GetCountry();

	mov	ecx, DWORD PTR _this$[ebp]
	add	ecx, 688				; 000002b0H
	call	??C?$VuBin@VFalconEntity@@@@QBEPAVFalconEntity@@XZ ; VuBin<FalconEntity>::operator->
	mov	DWORD PTR tv939[ebp], eax
	mov	edx, DWORD PTR tv939[ebp]
	mov	eax, DWORD PTR [edx]
	mov	ecx, DWORD PTR tv939[ebp]
	mov	edx, DWORD PTR [eax+120]
	call	edx
	mov	ecx, DWORD PTR _endMessage$[ebp]
	mov	BYTE PTR [ecx+77], al

; 506  : 			endMessage->dataBlock.fPilotID   = (uchar)shooterPilotSlot;

	mov	edx, DWORD PTR _endMessage$[ebp]
	mov	eax, DWORD PTR _this$[ebp]
	mov	cl, BYTE PTR [eax+680]
	mov	BYTE PTR [edx+73], cl

; 507  : 			endMessage->dataBlock.fIndex     = parent->Type();

	mov	ecx, DWORD PTR _this$[ebp]
	add	ecx, 688				; 000002b0H
	call	??C?$VuBin@VFalconEntity@@@@QBEPAVFalconEntity@@XZ ; VuBin<FalconEntity>::operator->
	mov	ecx, eax
	call	?Type@VuEntity@@QBEGXZ			; VuEntity::Type
	mov	edx, DWORD PTR _endMessage$[ebp]
	mov	WORD PTR [edx+75], ax

; 508  : 			endMessage->dataBlock.dEntityID  = FalconNullId;

	mov	eax, DWORD PTR _endMessage$[ebp]
	mov	ecx, DWORD PTR ?FalconNullId@@3VVU_ID@@A
	mov	DWORD PTR [eax+48], ecx
	mov	edx, DWORD PTR ?FalconNullId@@3VVU_ID@@A+4
	mov	DWORD PTR [eax+52], edx

; 509  : 			endMessage->dataBlock.dCampID    = 0;

	xor	eax, eax
	mov	ecx, DWORD PTR _endMessage$[ebp]
	mov	WORD PTR [ecx+56], ax

; 510  : 			endMessage->dataBlock.dSide      = 0;

	mov	edx, DWORD PTR _endMessage$[ebp]
	mov	BYTE PTR [edx+62], 0

; 511  : 			endMessage->dataBlock.dPilotID   = 0;

	mov	eax, DWORD PTR _endMessage$[ebp]
	mov	BYTE PTR [eax+58], 0

; 512  : 			endMessage->dataBlock.dIndex     = 0;

	xor	ecx, ecx
	mov	edx, DWORD PTR _endMessage$[ebp]
	mov	WORD PTR [edx+60], cx

; 513  : 			endMessage->dataBlock.fWeaponUID = Id();

	lea	eax, DWORD PTR $T3[ebp]
	push	eax
	mov	ecx, DWORD PTR _this$[ebp]
	call	?Id@VuEntity@@QBE?AVVU_ID@@XZ		; VuEntity::Id
	mov	ecx, DWORD PTR [eax]
	mov	edx, DWORD PTR [eax+4]
	mov	eax, DWORD PTR _endMessage$[ebp]
	mov	DWORD PTR [eax+82], ecx
	mov	DWORD PTR [eax+86], edx

; 514  : 			endMessage->dataBlock.wIndex 	 = Type();

	mov	ecx, DWORD PTR _this$[ebp]
	call	?Type@VuEntity@@QBEGXZ			; VuEntity::Type
	mov	ecx, DWORD PTR _endMessage$[ebp]
	mov	WORD PTR [ecx+115], ax

; 515  : 			endMessage->dataBlock.x    = XPos() + XDelta() * SimLibMajorFrameTime * 2.0f;

	mov	ecx, DWORD PTR _this$[ebp]
	call	?XPos@VuEntity@@QBEMXZ			; VuEntity::XPos
	fstp	DWORD PTR tv4136[ebp]
	movss	xmm0, DWORD PTR tv4136[ebp]
	mov	ecx, DWORD PTR _this$[ebp]
	movss	DWORD PTR tv5394[ebp], xmm0
	call	?XDelta@VuEntity@@QBEMXZ		; VuEntity::XDelta
	fstp	DWORD PTR tv4140[ebp]
	movss	xmm0, DWORD PTR tv4140[ebp]
	mulss	xmm0, DWORD PTR ?SimLibMajorFrameTime@@3MA
	mulss	xmm0, DWORD PTR __real@40000000
	movss	xmm1, DWORD PTR tv5394[ebp]
	addss	xmm1, xmm0
	mov	edx, DWORD PTR _endMessage$[ebp]
	movss	DWORD PTR [edx+90], xmm1

; 516  : 			endMessage->dataBlock.y    = YPos() + YDelta() * SimLibMajorFrameTime * 2.0f;

	mov	ecx, DWORD PTR _this$[ebp]
	call	?YPos@VuEntity@@QBEMXZ			; VuEntity::YPos
	fstp	DWORD PTR tv4145[ebp]
	movss	xmm0, DWORD PTR tv4145[ebp]
	mov	ecx, DWORD PTR _this$[ebp]
	movss	DWORD PTR tv5396[ebp], xmm0
	call	?YDelta@VuEntity@@QBEMXZ		; VuEntity::YDelta
	fstp	DWORD PTR tv4149[ebp]
	movss	xmm0, DWORD PTR tv4149[ebp]
	mulss	xmm0, DWORD PTR ?SimLibMajorFrameTime@@3MA
	mulss	xmm0, DWORD PTR __real@40000000
	movss	xmm1, DWORD PTR tv5396[ebp]
	addss	xmm1, xmm0
	mov	eax, DWORD PTR _endMessage$[ebp]
	movss	DWORD PTR [eax+94], xmm1

; 517  : 			endMessage->dataBlock.z    = ZPos() + ZDelta() * SimLibMajorFrameTime * 2.0f;

	mov	ecx, DWORD PTR _this$[ebp]
	call	?ZPos@VuEntity@@QBEMXZ			; VuEntity::ZPos
	fstp	DWORD PTR tv4154[ebp]
	movss	xmm0, DWORD PTR tv4154[ebp]
	mov	ecx, DWORD PTR _this$[ebp]
	movss	DWORD PTR tv5398[ebp], xmm0
	call	?ZDelta@VuEntity@@QBEMXZ		; VuEntity::ZDelta
	fstp	DWORD PTR tv4158[ebp]
	movss	xmm0, DWORD PTR tv4158[ebp]
	mulss	xmm0, DWORD PTR ?SimLibMajorFrameTime@@3MA
	mulss	xmm0, DWORD PTR __real@40000000
	movss	xmm1, DWORD PTR tv5398[ebp]
	addss	xmm1, xmm0
	mov	ecx, DWORD PTR _endMessage$[ebp]
	movss	DWORD PTR [ecx+98], xmm1

; 518  : 			endMessage->dataBlock.xDelta    = XDelta();

	mov	ecx, DWORD PTR _this$[ebp]
	call	?XDelta@VuEntity@@QBEMXZ		; VuEntity::XDelta
	mov	edx, DWORD PTR _endMessage$[ebp]
	fstp	DWORD PTR [edx+102]

; 519  : 			endMessage->dataBlock.yDelta    = YDelta();

	mov	ecx, DWORD PTR _this$[ebp]
	call	?YDelta@VuEntity@@QBEMXZ		; VuEntity::YDelta
	mov	eax, DWORD PTR _endMessage$[ebp]
	fstp	DWORD PTR [eax+106]

; 520  : 			endMessage->dataBlock.zDelta    = ZDelta();

	mov	ecx, DWORD PTR _this$[ebp]
	call	?ZDelta@VuEntity@@QBEMXZ		; VuEntity::ZDelta
	mov	ecx, DWORD PTR _endMessage$[ebp]
	fstp	DWORD PTR [ecx+110]

; 521  : 			endMessage->dataBlock.groundType    = -1;

	mov	edx, DWORD PTR _endMessage$[ebp]
	mov	BYTE PTR [edx+114], -1

; 522  : 			endMessage->dataBlock.endCode    = FalconMissileEndMessage::BombImpact;

	mov	eax, DWORD PTR _endMessage$[ebp]
	mov	DWORD PTR [eax+78], 11			; 0000000bH

; 523  : 
; 524  : 			endMessage->SetParticleEffectName(auxData->psBombImpact); // MLR 6/26/2004 - 

	mov	ecx, DWORD PTR _this$[ebp]
	mov	edx, DWORD PTR [ecx+832]
	mov	eax, DWORD PTR [edx+60]
	push	eax
	mov	ecx, DWORD PTR _endMessage$[ebp]
	call	?SetParticleEffectName@FalconMissileEndMessage@@QAEXPAD@Z ; FalconMissileEndMessage::SetParticleEffectName

; 525  : 
; 526  : 			FalconSendMessage (endMessage,FALSE);

	push	0
	mov	ecx, DWORD PTR _endMessage$[ebp]
	push	ecx
	call	?FalconSendMessage@@YAXPAVVuMessage@@H@Z ; FalconSendMessage
	add	esp, 8
$LN71@Exec:

; 527  : 		}
; 528  : 
; 529  : 		/////////////  - RED - ************* 
; 530  : 		//MI for refined LGB stuff
; 531  : 		// 2002-01-06 MODIFIED BY S.G. 
; 532  : 		// In the odd chance that there is no parent, neither this or the 
; 533  : 		// realistic section would be ran. If no parent, run this
; 534  : 		// There is no danger of a CTD if parent is NULL because the 
; 535  : 		// OR will have it enter the if statement without running the 'IsPlayer'.
; 536  : 		//	  if(!g_bRealisticAvionics || ( parent && !((AircraftClass *)parent)->IsPlayer()))
; 537  : 		// Cobra - Forcing all non-Player (AI) into this section causes their bombs 
; 538  : 		// to not be guided, thus randon hit pattern
; 539  : 		//	  if(!g_bRealisticAvionics || !parent)
; 540  : 		/////////////////////////////////////////////////////
; 541  : 
; 542  : 		// RED -  enough enter when it's not a guided Bomb or LGB for AI 
; 543  : 		// ( the targeting sysem would CTD if AI managed by player code,
; 544  : 		// As the PlayerEntity is not the one to use )
; 545  : 		if (
; 546  : 			!g_bRealisticAvionics || !parent || !(flags & GUIDED_BOMB) 
; 547  : 					|| ((((!((AircraftClass *)parent.get())->IsPlayer())
; 548  : 					|| (((AircraftClass *)parent.get())->IsPlayer()) 
; 549  : 					&& ((AircraftClass *)parent.get())->AutopilotType() == AircraftClass::CombatAP)) 
; 550  : 					&& (flags & IsLGB))
; 551  : 		){

	movzx	edx, BYTE PTR ?g_bRealisticAvionics@@3_NA ; g_bRealisticAvionics
	test	edx, edx
	je	$LN69@Exec
	mov	ecx, DWORD PTR _this$[ebp]
	add	ecx, 688				; 000002b0H
	call	??7?$VuBin@VFalconEntity@@@@QBE_NXZ	; VuBin<FalconEntity>::operator!
	movzx	eax, al
	test	eax, eax
	jne	SHORT $LN69@Exec
	mov	ecx, DWORD PTR _this$[ebp]
	mov	edx, DWORD PTR [ecx+732]
	and	edx, 800				; 00000320H
	je	SHORT $LN69@Exec
	mov	ecx, DWORD PTR _this$[ebp]
	add	ecx, 688				; 000002b0H
	call	?get@?$VuBin@VFalconEntity@@@@QBEPAVFalconEntity@@XZ ; VuBin<FalconEntity>::get
	mov	ecx, eax
	call	?IsPlayer@FalconEntity@@QAEHXZ		; FalconEntity::IsPlayer
	test	eax, eax
	je	SHORT $LN68@Exec
	mov	ecx, DWORD PTR _this$[ebp]
	add	ecx, 688				; 000002b0H
	call	?get@?$VuBin@VFalconEntity@@@@QBEPAVFalconEntity@@XZ ; VuBin<FalconEntity>::get
	mov	ecx, eax
	call	?IsPlayer@FalconEntity@@QAEHXZ		; FalconEntity::IsPlayer
	test	eax, eax
	je	$LN70@Exec
	mov	ecx, DWORD PTR _this$[ebp]
	add	ecx, 688				; 000002b0H
	call	?get@?$VuBin@VFalconEntity@@@@QBEPAVFalconEntity@@XZ ; VuBin<FalconEntity>::get
	mov	ecx, eax
	call	?AutopilotType@AircraftClass@@QAE?AW4AutoPilotType@1@XZ ; AircraftClass::AutopilotType
	cmp	eax, 2
	jne	$LN70@Exec
$LN68@Exec:
	mov	eax, DWORD PTR _this$[ebp]
	mov	ecx, DWORD PTR [eax+732]
	and	ecx, 32					; 00000020H
	je	$LN70@Exec
$LN69@Exec:

; 552  : 			// RV - Biker - Add 2.0 sec delay for guidance
; 553  : 			if (flags & IsLGB && (SimLibElapsedTime - timeOfDeath) > (2.0f * SEC_TO_MSEC)){

	mov	edx, DWORD PTR _this$[ebp]
	mov	eax, DWORD PTR [edx+732]
	and	eax, 32					; 00000020H
	je	$LN53@Exec
	mov	ecx, DWORD PTR _this$[ebp]
	mov	edx, DWORD PTR ?SimLibElapsedTime@@3KA	; SimLibElapsedTime
	sub	edx, DWORD PTR [ecx+288]
	mov	DWORD PTR tv4194[ebp], edx
	cvtsi2sd xmm0, DWORD PTR tv4194[ebp]
	mov	eax, DWORD PTR tv4194[ebp]
	shr	eax, 31					; 0000001fH
	addsd	xmm0, QWORD PTR __xmm@41f00000000000000000000000000000[eax*8]
	movsd	QWORD PTR tv4197[ebp], xmm0
	cvtsd2ss xmm0, QWORD PTR tv4197[ebp]
	comiss	xmm0, DWORD PTR __real@44fa0000
	jbe	$LN53@Exec

; 554  : 				if (targetPtr){

	mov	ecx, DWORD PTR _this$[ebp]
	cmp	DWORD PTR [ecx+656], 0
	je	$LN66@Exec

; 555  : 					// JPO - target might be higher than us...
; 556  : 					if (targetPtr->BaseData()->ZPos() <= ZPos()) {

	mov	edx, DWORD PTR _this$[ebp]
	mov	ecx, DWORD PTR [edx+656]
	call	?BaseData@SimObjectType@@QAEPAVFalconEntity@@XZ ; SimObjectType::BaseData
	mov	ecx, eax
	call	?ZPos@VuEntity@@QBEMXZ			; VuEntity::ZPos
	fstp	DWORD PTR tv4207[ebp]
	movss	xmm0, DWORD PTR tv4207[ebp]
	mov	ecx, DWORD PTR _this$[ebp]
	movss	DWORD PTR tv5400[ebp], xmm0
	call	?ZPos@VuEntity@@QBEMXZ			; VuEntity::ZPos
	fstp	DWORD PTR tv4211[ebp]
	movss	xmm0, DWORD PTR tv4211[ebp]
	movss	xmm1, DWORD PTR tv5400[ebp]
	comiss	xmm0, xmm1
	jb	SHORT $LN65@Exec

; 557  : 						radical = 0;

	movss	xmm0, DWORD PTR __real@00000000
	movss	DWORD PTR _radical$[ebp], xmm0

; 558  : 					} 
; 559  : 					else {

	jmp	$LN64@Exec
$LN65@Exec:

; 560  : 						radical = (float)sqrt (ZDelta()*ZDelta() + 2.0F * GRAVITY * (targetPtr->BaseData()->ZPos() - ZPos()));

	mov	ecx, DWORD PTR _this$[ebp]
	call	?ZDelta@VuEntity@@QBEMXZ		; VuEntity::ZDelta
	fstp	DWORD PTR tv4216[ebp]
	movss	xmm0, DWORD PTR tv4216[ebp]
	mov	ecx, DWORD PTR _this$[ebp]
	movss	DWORD PTR tv5402[ebp], xmm0
	call	?ZDelta@VuEntity@@QBEMXZ		; VuEntity::ZDelta
	fstp	DWORD PTR tv4220[ebp]
	movss	xmm0, DWORD PTR tv5402[ebp]
	mulss	xmm0, DWORD PTR tv4220[ebp]
	mov	eax, DWORD PTR _this$[ebp]
	mov	ecx, DWORD PTR [eax+656]
	movss	DWORD PTR tv5404[ebp], xmm0
	call	?BaseData@SimObjectType@@QAEPAVFalconEntity@@XZ ; SimObjectType::BaseData
	mov	ecx, eax
	call	?ZPos@VuEntity@@QBEMXZ			; VuEntity::ZPos
	fstp	DWORD PTR tv4226[ebp]
	movss	xmm0, DWORD PTR tv4226[ebp]
	mov	ecx, DWORD PTR _this$[ebp]
	movss	DWORD PTR tv5406[ebp], xmm0
	call	?ZPos@VuEntity@@QBEMXZ			; VuEntity::ZPos
	fstp	DWORD PTR tv4230[ebp]
	movss	xmm0, DWORD PTR tv5406[ebp]
	subss	xmm0, DWORD PTR tv4230[ebp]
	mulss	xmm0, DWORD PTR __real@4280b53f
	movss	xmm1, DWORD PTR tv5404[ebp]
	addss	xmm1, xmm0
	push	ecx
	movss	DWORD PTR [esp], xmm1
	call	?SqrtSSE@@YAMM@Z			; SqrtSSE
	add	esp, 4
	fstp	DWORD PTR _radical$[ebp]
$LN64@Exec:

; 561  : 					}
; 562  : 					tFall = -ZDelta() - radical;

	mov	ecx, DWORD PTR _this$[ebp]
	call	?ZDelta@VuEntity@@QBEMXZ		; VuEntity::ZDelta
	fstp	DWORD PTR tv4238[ebp]
	movss	xmm0, DWORD PTR tv4238[ebp]
	xorps	xmm0, DWORD PTR __xmm@80000000800000008000000080000000
	subss	xmm0, DWORD PTR _radical$[ebp]
	movss	DWORD PTR _tFall$[ebp], xmm0

; 563  : 					if (tFall < 0.0F)

	movss	xmm0, DWORD PTR __real@00000000
	comiss	xmm0, DWORD PTR _tFall$[ebp]
	jbe	SHORT $LN63@Exec

; 564  : 						tFall = -ZDelta() + radical;			 

	mov	ecx, DWORD PTR _this$[ebp]
	call	?ZDelta@VuEntity@@QBEMXZ		; VuEntity::ZDelta
	fstp	DWORD PTR tv4243[ebp]
	movss	xmm0, DWORD PTR tv4243[ebp]
	xorps	xmm0, DWORD PTR __xmm@80000000800000008000000080000000
	addss	xmm0, DWORD PTR _radical$[ebp]
	movss	DWORD PTR _tFall$[ebp], xmm0
$LN63@Exec:

; 565  : 					tFall /= GRAVITY;

	movss	xmm0, DWORD PTR _tFall$[ebp]
	divss	xmm0, DWORD PTR __real@4200b53f
	movss	DWORD PTR _tFall$[ebp], xmm0

; 566  : 
; 567  : 					deltaX = targetPtr->BaseData()->XPos() - XPos();

	mov	ecx, DWORD PTR _this$[ebp]
	mov	ecx, DWORD PTR [ecx+656]
	call	?BaseData@SimObjectType@@QAEPAVFalconEntity@@XZ ; SimObjectType::BaseData
	mov	ecx, eax
	call	?XPos@VuEntity@@QBEMXZ			; VuEntity::XPos
	fstp	DWORD PTR tv4250[ebp]
	movss	xmm0, DWORD PTR tv4250[ebp]
	mov	ecx, DWORD PTR _this$[ebp]
	movss	DWORD PTR tv5408[ebp], xmm0
	call	?XPos@VuEntity@@QBEMXZ			; VuEntity::XPos
	fstp	DWORD PTR tv4254[ebp]
	movss	xmm0, DWORD PTR tv5408[ebp]
	subss	xmm0, DWORD PTR tv4254[ebp]
	movss	DWORD PTR _deltaX$[ebp], xmm0

; 568  : 					deltaY = targetPtr->BaseData()->YPos() - YPos();

	mov	edx, DWORD PTR _this$[ebp]
	mov	ecx, DWORD PTR [edx+656]
	call	?BaseData@SimObjectType@@QAEPAVFalconEntity@@XZ ; SimObjectType::BaseData
	mov	ecx, eax
	call	?YPos@VuEntity@@QBEMXZ			; VuEntity::YPos
	fstp	DWORD PTR tv4260[ebp]
	movss	xmm0, DWORD PTR tv4260[ebp]
	mov	ecx, DWORD PTR _this$[ebp]
	movss	DWORD PTR tv5410[ebp], xmm0
	call	?YPos@VuEntity@@QBEMXZ			; VuEntity::YPos
	fstp	DWORD PTR tv4264[ebp]
	movss	xmm0, DWORD PTR tv5410[ebp]
	subss	xmm0, DWORD PTR tv4264[ebp]
	movss	DWORD PTR _deltaY$[ebp], xmm0

; 569  : 					deltaZ = (float)fabs(targetPtr->BaseData()->ZPos() - ZPos());

	mov	eax, DWORD PTR _this$[ebp]
	mov	ecx, DWORD PTR [eax+656]
	call	?BaseData@SimObjectType@@QAEPAVFalconEntity@@XZ ; SimObjectType::BaseData
	mov	ecx, eax
	call	?ZPos@VuEntity@@QBEMXZ			; VuEntity::ZPos
	fstp	DWORD PTR tv4270[ebp]
	movss	xmm0, DWORD PTR tv4270[ebp]
	mov	ecx, DWORD PTR _this$[ebp]
	movss	DWORD PTR tv5412[ebp], xmm0
	call	?ZPos@VuEntity@@QBEMXZ			; VuEntity::ZPos
	fstp	DWORD PTR tv4274[ebp]
	movss	xmm0, DWORD PTR tv5412[ebp]
	subss	xmm0, DWORD PTR tv4274[ebp]
	push	ecx
	movss	DWORD PTR [esp], xmm0
	call	?fabs@@YAMM@Z				; fabs
	add	esp, 4
	fstp	DWORD PTR _deltaZ$[ebp]

; 570  : 
; 571  : 					rx    = dmx[0][0] * deltaX + dmx[0][1] * deltaY + dmx[0][2] * deltaZ;

	mov	ecx, 12					; 0000000cH
	imul	ecx, 0
	mov	edx, DWORD PTR _this$[ebp]
	lea	eax, DWORD PTR [edx+ecx+296]
	mov	ecx, 4
	imul	ecx, 0
	movss	xmm0, DWORD PTR [eax+ecx]
	mulss	xmm0, DWORD PTR _deltaX$[ebp]
	mov	edx, 12					; 0000000cH
	imul	edx, 0
	mov	eax, DWORD PTR _this$[ebp]
	lea	ecx, DWORD PTR [eax+edx+296]
	mov	edx, 4
	shl	edx, 0
	movss	xmm1, DWORD PTR [ecx+edx]
	mulss	xmm1, DWORD PTR _deltaY$[ebp]
	addss	xmm0, xmm1
	mov	eax, 12					; 0000000cH
	imul	eax, 0
	mov	ecx, DWORD PTR _this$[ebp]
	lea	edx, DWORD PTR [ecx+eax+296]
	mov	eax, 4
	shl	eax, 1
	movss	xmm1, DWORD PTR [edx+eax]
	mulss	xmm1, DWORD PTR _deltaZ$[ebp]
	addss	xmm0, xmm1
	movss	DWORD PTR _rx$[ebp], xmm0

; 572  : 					ry    = dmx[1][0] * deltaX + dmx[1][1] * deltaY + dmx[1][2] * deltaZ;

	mov	ecx, 12					; 0000000cH
	shl	ecx, 0
	mov	edx, DWORD PTR _this$[ebp]
	lea	eax, DWORD PTR [edx+ecx+296]
	mov	ecx, 4
	imul	ecx, 0
	movss	xmm0, DWORD PTR [eax+ecx]
	mulss	xmm0, DWORD PTR _deltaX$[ebp]
	mov	edx, 12					; 0000000cH
	shl	edx, 0
	mov	eax, DWORD PTR _this$[ebp]
	lea	ecx, DWORD PTR [eax+edx+296]
	mov	edx, 4
	shl	edx, 0
	movss	xmm1, DWORD PTR [ecx+edx]
	mulss	xmm1, DWORD PTR _deltaY$[ebp]
	addss	xmm0, xmm1
	mov	eax, 12					; 0000000cH
	shl	eax, 0
	mov	ecx, DWORD PTR _this$[ebp]
	lea	edx, DWORD PTR [ecx+eax+296]
	mov	eax, 4
	shl	eax, 1
	movss	xmm1, DWORD PTR [edx+eax]
	mulss	xmm1, DWORD PTR _deltaZ$[ebp]
	addss	xmm0, xmm1
	movss	DWORD PTR _ry$[ebp], xmm0

; 573  : 					rz    = dmx[2][0] * deltaX + dmx[2][1] * deltaY + dmx[2][2] * deltaZ;

	mov	ecx, 12					; 0000000cH
	shl	ecx, 1
	mov	edx, DWORD PTR _this$[ebp]
	lea	eax, DWORD PTR [edx+ecx+296]
	mov	ecx, 4
	imul	ecx, 0
	movss	xmm0, DWORD PTR [eax+ecx]
	mulss	xmm0, DWORD PTR _deltaX$[ebp]
	mov	edx, 12					; 0000000cH
	shl	edx, 1
	mov	eax, DWORD PTR _this$[ebp]
	lea	ecx, DWORD PTR [eax+edx+296]
	mov	edx, 4
	shl	edx, 0
	movss	xmm1, DWORD PTR [ecx+edx]
	mulss	xmm1, DWORD PTR _deltaY$[ebp]
	addss	xmm0, xmm1
	mov	eax, 12					; 0000000cH
	shl	eax, 1
	mov	ecx, DWORD PTR _this$[ebp]
	lea	edx, DWORD PTR [ecx+eax+296]
	mov	eax, 4
	shl	eax, 1
	movss	xmm1, DWORD PTR [edx+eax]
	mulss	xmm1, DWORD PTR _deltaZ$[ebp]
	addss	xmm0, xmm1
	movss	DWORD PTR _rz$[ebp], xmm0

; 574  : 					range = (float)sqrt(rx*rx + ry*ry + rz*rz);

	movss	xmm0, DWORD PTR _rx$[ebp]
	mulss	xmm0, DWORD PTR _rx$[ebp]
	movss	xmm1, DWORD PTR _ry$[ebp]
	mulss	xmm1, DWORD PTR _ry$[ebp]
	addss	xmm0, xmm1
	movss	xmm1, DWORD PTR _rz$[ebp]
	mulss	xmm1, DWORD PTR _rz$[ebp]
	addss	xmm0, xmm1
	push	ecx
	movss	DWORD PTR [esp], xmm0
	call	?SqrtSSE@@YAMM@Z			; SqrtSSE
	add	esp, 4
	fstp	DWORD PTR _range$[ebp]

; 575  : 
; 576  : 					// 45 degree limit on the seeker
; 577  : 					// 2001-04-17 MODIFIED BY S.G. AGAIN, THEY MIXE UP DEGREES AND RADIAN BUT THIS TIME, THE OTHER WAY AROUND...
; 578  : 					//            PLUS THEY FORGOT THAT atan2 RETURNS A SIGNED VALUE
; 579  : 					//            END THEN, range-rx * rx is range - rx*rx which is ALWAYS NEGATIVE. CAN'T TAKE A SQUARE ROOT OF A NEGATIVE NUMBER. I'VE CODED WHAT I *THINK* THEY WERE TRYING TO DO...
; 580  : 					//				  if (atan2(sqrt(range-rx * rx),rx) < 45.0F * RTD)
; 581  : 					//JAM 17Apr04 - This is what they were trying to do buddy :)
; 582  : 					if(Abs(acosf(rx/range)) <= 45.f*DTR)

	movss	xmm0, DWORD PTR _rx$[ebp]
	divss	xmm0, DWORD PTR _range$[ebp]
	push	ecx
	movss	DWORD PTR [esp], xmm0
	call	_acosf
	fstp	DWORD PTR [esp]
	call	??$Abs@M@@YAMM@Z			; Abs<float>
	add	esp, 4
	fstp	DWORD PTR tv4329[ebp]
	movss	xmm0, DWORD PTR __real@3f490fd9
	comiss	xmm0, DWORD PTR tv4329[ebp]
	jb	$LN62@Exec

; 583  : 						//				  if (fabs(atan2(sqrt(range*range - rx*rx),rx)) < 45.0F * DTR)
; 584  : 					{
; 585  : 						desDx = (deltaX)/tFall;

	movss	xmm0, DWORD PTR _deltaX$[ebp]
	divss	xmm0, DWORD PTR _tFall$[ebp]
	movss	DWORD PTR _desDx$[ebp], xmm0

; 586  : 						desDy = (deltaY)/tFall;

	movss	xmm0, DWORD PTR _deltaY$[ebp]
	divss	xmm0, DWORD PTR _tFall$[ebp]
	movss	DWORD PTR _desDy$[ebp], xmm0

; 587  : 						// 2001-04-17 ADDED BY S.G. WE'LL KEEP OUR LAST desDx and desDy IN THE UNUSED tgtX and tgtY BombClass VARIABLE (RENAMED desDxPrev AND desDyPrev) TO IN CASE WE LOOSE LOCK LATER
; 588  : 						desDxPrev = desDx;

	mov	ecx, DWORD PTR _this$[ebp]
	movss	xmm0, DWORD PTR _desDx$[ebp]
	movss	DWORD PTR [ecx+704], xmm0

; 589  : 						desDyPrev = desDy;

	mov	edx, DWORD PTR _this$[ebp]
	movss	xmm0, DWORD PTR _desDy$[ebp]
	movss	DWORD PTR [edx+708], xmm0

; 590  : 						// END OF ADDED SECTION
; 591  : 						SetDelta (0.8F*XDelta() + 0.2F*desDx, 0.8F*YDelta() + 0.2F*desDy, ZDelta());

	mov	ecx, DWORD PTR _this$[ebp]
	call	?ZDelta@VuEntity@@QBEMXZ		; VuEntity::ZDelta
	push	ecx
	fstp	DWORD PTR [esp]
	mov	ecx, DWORD PTR _this$[ebp]
	call	?YDelta@VuEntity@@QBEMXZ		; VuEntity::YDelta
	fstp	DWORD PTR tv4342[ebp]
	movss	xmm0, DWORD PTR tv4342[ebp]
	mulss	xmm0, DWORD PTR __real@3f4ccccd
	movss	xmm1, DWORD PTR __real@3e4ccccd
	mulss	xmm1, DWORD PTR _desDy$[ebp]
	addss	xmm0, xmm1
	push	ecx
	movss	DWORD PTR [esp], xmm0
	mov	ecx, DWORD PTR _this$[ebp]
	call	?XDelta@VuEntity@@QBEMXZ		; VuEntity::XDelta
	fstp	DWORD PTR tv4348[ebp]
	movss	xmm0, DWORD PTR tv4348[ebp]
	mulss	xmm0, DWORD PTR __real@3f4ccccd
	movss	xmm1, DWORD PTR __real@3e4ccccd
	mulss	xmm1, DWORD PTR _desDx$[ebp]
	addss	xmm0, xmm1
	push	ecx
	movss	DWORD PTR [esp], xmm0
	mov	ecx, DWORD PTR _this$[ebp]
	call	?SetDelta@VuEntity@@QAEXMMM@Z		; VuEntity::SetDelta
	jmp	$LN58@Exec
$LN62@Exec:

; 592  : 					}
; 593  : 					// 2002-01-05 ADDED BY S.G. Similarly to below. if the lgb cannot see the laser, it can't guide (forgot to do this).
; 594  : 					else if (g_bRP5Comp) 

	movzx	eax, BYTE PTR ?g_bRP5Comp@@3_NA		; g_bRP5Comp
	test	eax, eax
	je	$LN58@Exec

; 595  : 					{
; 596  : 						// 2001-04-17 ADDED BY S.G. WE'LL KEEP GOING WHERE WE WERE GOING...
; 597  : 						Falcon4EntityClassType *classPtr = &Falcon4ClassTable[Type() - VU_LAST_ENTITY_TYPE];

	mov	ecx, DWORD PTR _this$[ebp]
	call	?Type@VuEntity@@QBEGXZ			; VuEntity::Type
	movzx	ecx, ax
	sub	ecx, 100				; 00000064H
	imul	ecx, 81					; 00000051H
	add	ecx, DWORD PTR ?Falcon4ClassTable@@3PAUFalcon4EntityClassType@@A ; Falcon4ClassTable
	mov	DWORD PTR _classPtr$17[ebp], ecx

; 598  : 						WeaponClassDataType *wc = (WeaponClassDataType *)classPtr->dataPtr;

	mov	edx, DWORD PTR _classPtr$17[ebp]
	mov	eax, DWORD PTR [edx+77]
	mov	DWORD PTR _wc$13[ebp], eax

; 599  : 
; 600  : 						// If a 3rg gen LGB, fins are more precised, even when no longer lased...
; 601  : 						//#define WEAP_LGB_3RD_GEN 0x40 moved to campwp.h and changed to 0x80
; 602  : 						if (wc->Flags & WEAP_LGB_3RD_GEN) 

	mov	ecx, DWORD PTR _wc$13[ebp]
	movzx	edx, WORD PTR [ecx+10]
	and	edx, 128				; 00000080H
	je	$LN59@Exec

; 603  : 							SetDelta (0.8F*XDelta() + 0.2f*desDxPrev, 0.8f*YDelta() + 0.2f*desDyPrev, ZDelta());

	mov	ecx, DWORD PTR _this$[ebp]
	call	?ZDelta@VuEntity@@QBEMXZ		; VuEntity::ZDelta
	push	ecx
	fstp	DWORD PTR [esp]
	mov	ecx, DWORD PTR _this$[ebp]
	call	?YDelta@VuEntity@@QBEMXZ		; VuEntity::YDelta
	fstp	DWORD PTR tv4364[ebp]
	movss	xmm0, DWORD PTR tv4364[ebp]
	mulss	xmm0, DWORD PTR __real@3f4ccccd
	mov	eax, DWORD PTR _this$[ebp]
	movss	xmm1, DWORD PTR __real@3e4ccccd
	mulss	xmm1, DWORD PTR [eax+708]
	addss	xmm0, xmm1
	push	ecx
	movss	DWORD PTR [esp], xmm0
	mov	ecx, DWORD PTR _this$[ebp]
	call	?XDelta@VuEntity@@QBEMXZ		; VuEntity::XDelta
	fstp	DWORD PTR tv4371[ebp]
	movss	xmm0, DWORD PTR tv4371[ebp]
	mulss	xmm0, DWORD PTR __real@3f4ccccd
	mov	ecx, DWORD PTR _this$[ebp]
	movss	xmm1, DWORD PTR __real@3e4ccccd
	mulss	xmm1, DWORD PTR [ecx+704]
	addss	xmm0, xmm1
	push	ecx
	movss	DWORD PTR [esp], xmm0
	mov	ecx, DWORD PTR _this$[ebp]
	call	?SetDelta@VuEntity@@QAEXMMM@Z		; VuEntity::SetDelta

; 604  : 						else // 2001-10-19 MODIFIED BY S.G. IT'S * 1.05f AND NOT * 2.0f!

	jmp	$LN58@Exec
$LN59@Exec:

; 605  : 							SetDelta ((0.8F*XDelta() + 0.2f*desDxPrev) * 1.05f, (0.8f*YDelta() + 0.2f*desDyPrev) * 1.05f, ZDelta());

	mov	ecx, DWORD PTR _this$[ebp]
	call	?ZDelta@VuEntity@@QBEMXZ		; VuEntity::ZDelta
	push	ecx
	fstp	DWORD PTR [esp]
	mov	ecx, DWORD PTR _this$[ebp]
	call	?YDelta@VuEntity@@QBEMXZ		; VuEntity::YDelta
	fstp	DWORD PTR tv4384[ebp]
	movss	xmm0, DWORD PTR tv4384[ebp]
	mulss	xmm0, DWORD PTR __real@3f4ccccd
	mov	edx, DWORD PTR _this$[ebp]
	movss	xmm1, DWORD PTR __real@3e4ccccd
	mulss	xmm1, DWORD PTR [edx+708]
	addss	xmm0, xmm1
	mulss	xmm0, DWORD PTR __real@3f866666
	push	ecx
	movss	DWORD PTR [esp], xmm0
	mov	ecx, DWORD PTR _this$[ebp]
	call	?XDelta@VuEntity@@QBEMXZ		; VuEntity::XDelta
	fstp	DWORD PTR tv4391[ebp]
	movss	xmm0, DWORD PTR tv4391[ebp]
	mulss	xmm0, DWORD PTR __real@3f4ccccd
	mov	eax, DWORD PTR _this$[ebp]
	movss	xmm1, DWORD PTR __real@3e4ccccd
	mulss	xmm1, DWORD PTR [eax+704]
	addss	xmm0, xmm1
	mulss	xmm0, DWORD PTR __real@3f866666
	push	ecx
	movss	DWORD PTR [esp], xmm0
	mov	ecx, DWORD PTR _this$[ebp]
	call	?SetDelta@VuEntity@@QAEXMMM@Z		; VuEntity::SetDelta
$LN58@Exec:

; 606  : 					}
; 607  : 
; 608  : 					if (!((SimBaseClass*)(targetPtr->BaseData()))->IsSetFlag(IS_LASED))

	push	8192					; 00002000H
	mov	ecx, DWORD PTR _this$[ebp]
	mov	ecx, DWORD PTR [ecx+656]
	call	?BaseData@SimObjectType@@QAEPAVFalconEntity@@XZ ; SimObjectType::BaseData
	mov	ecx, eax
	call	?IsSetFlag@SimBaseClass@@QBEHH@Z	; SimBaseClass::IsSetFlag
	test	eax, eax
	jne	SHORT $LN57@Exec

; 609  : 					{
; 610  : 						targetPtr->Release();

	mov	edx, DWORD PTR _this$[ebp]
	mov	ecx, DWORD PTR [edx+656]
	call	?Release@SimObjectType@@QAEXXZ		; SimObjectType::Release

; 611  : 						targetPtr = NULL;

	mov	eax, DWORD PTR _this$[ebp]
	mov	DWORD PTR [eax+656], 0
$LN57@Exec:

; 612  : 					}
; 613  : 				}

	jmp	$LN53@Exec
$LN66@Exec:

; 614  : 				// 2001-04-17 ADDED BY S.G. WE'LL KEEP GOING WHERE WE WERE GOING...
; 615  : 				else if (g_bRP5Comp) 

	movzx	ecx, BYTE PTR ?g_bRP5Comp@@3_NA		; g_bRP5Comp
	test	ecx, ecx
	je	$LN53@Exec

; 616  : 				{
; 617  : 					// 2001-04-17 ADDED BY S.G. WE'LL KEEP GOING WHERE WE WERE GOING...
; 618  : 					Falcon4EntityClassType *classPtr = &Falcon4ClassTable[Type() - VU_LAST_ENTITY_TYPE];

	mov	ecx, DWORD PTR _this$[ebp]
	call	?Type@VuEntity@@QBEGXZ			; VuEntity::Type
	movzx	edx, ax
	sub	edx, 100				; 00000064H
	imul	edx, 81					; 00000051H
	add	edx, DWORD PTR ?Falcon4ClassTable@@3PAUFalcon4EntityClassType@@A ; Falcon4ClassTable
	mov	DWORD PTR _classPtr$16[ebp], edx

; 619  : 					WeaponClassDataType *wc = (WeaponClassDataType *)classPtr->dataPtr;

	mov	eax, DWORD PTR _classPtr$16[ebp]
	mov	ecx, DWORD PTR [eax+77]
	mov	DWORD PTR _wc$12[ebp], ecx

; 620  : 
; 621  : 					// If a 3rg gen LGB, fins are more precised, even when no longer lased...
; 622  : 					//#define WEAP_LGB_3RD_GEN 0x40 moved to campwp.h and changed to 0x80
; 623  : 					if (wc->Flags & WEAP_LGB_3RD_GEN) 

	mov	edx, DWORD PTR _wc$12[ebp]
	movzx	eax, WORD PTR [edx+10]
	and	eax, 128				; 00000080H
	je	$LN54@Exec

; 624  : 						SetDelta (0.8F*XDelta() + 0.2f*desDxPrev, 0.8f*YDelta() + 0.2f*desDyPrev, ZDelta());

	mov	ecx, DWORD PTR _this$[ebp]
	call	?ZDelta@VuEntity@@QBEMXZ		; VuEntity::ZDelta
	push	ecx
	fstp	DWORD PTR [esp]
	mov	ecx, DWORD PTR _this$[ebp]
	call	?YDelta@VuEntity@@QBEMXZ		; VuEntity::YDelta
	fstp	DWORD PTR tv4413[ebp]
	movss	xmm0, DWORD PTR tv4413[ebp]
	mulss	xmm0, DWORD PTR __real@3f4ccccd
	mov	ecx, DWORD PTR _this$[ebp]
	movss	xmm1, DWORD PTR __real@3e4ccccd
	mulss	xmm1, DWORD PTR [ecx+708]
	addss	xmm0, xmm1
	push	ecx
	movss	DWORD PTR [esp], xmm0
	mov	ecx, DWORD PTR _this$[ebp]
	call	?XDelta@VuEntity@@QBEMXZ		; VuEntity::XDelta
	fstp	DWORD PTR tv4420[ebp]
	movss	xmm0, DWORD PTR tv4420[ebp]
	mulss	xmm0, DWORD PTR __real@3f4ccccd
	mov	edx, DWORD PTR _this$[ebp]
	movss	xmm1, DWORD PTR __real@3e4ccccd
	mulss	xmm1, DWORD PTR [edx+704]
	addss	xmm0, xmm1
	push	ecx
	movss	DWORD PTR [esp], xmm0
	mov	ecx, DWORD PTR _this$[ebp]
	call	?SetDelta@VuEntity@@QAEXMMM@Z		; VuEntity::SetDelta

; 625  : 					else // 2001-10-19 MODIFIED BY S.G. IT'S * 1.05f AND NOT * 2.0f!

	jmp	$LN53@Exec
$LN54@Exec:

; 626  : 						SetDelta ((0.8F*XDelta() + 0.2f*desDxPrev) * 1.05f, (0.8f*YDelta() + 0.2f*desDyPrev) * 1.05f, ZDelta());

	mov	ecx, DWORD PTR _this$[ebp]
	call	?ZDelta@VuEntity@@QBEMXZ		; VuEntity::ZDelta
	push	ecx
	fstp	DWORD PTR [esp]
	mov	ecx, DWORD PTR _this$[ebp]
	call	?YDelta@VuEntity@@QBEMXZ		; VuEntity::YDelta
	fstp	DWORD PTR tv4433[ebp]
	movss	xmm0, DWORD PTR tv4433[ebp]
	mulss	xmm0, DWORD PTR __real@3f4ccccd
	mov	eax, DWORD PTR _this$[ebp]
	movss	xmm1, DWORD PTR __real@3e4ccccd
	mulss	xmm1, DWORD PTR [eax+708]
	addss	xmm0, xmm1
	mulss	xmm0, DWORD PTR __real@3f866666
	push	ecx
	movss	DWORD PTR [esp], xmm0
	mov	ecx, DWORD PTR _this$[ebp]
	call	?XDelta@VuEntity@@QBEMXZ		; VuEntity::XDelta
	fstp	DWORD PTR tv4440[ebp]
	movss	xmm0, DWORD PTR tv4440[ebp]
	mulss	xmm0, DWORD PTR __real@3f4ccccd
	mov	ecx, DWORD PTR _this$[ebp]
	movss	xmm1, DWORD PTR __real@3e4ccccd
	mulss	xmm1, DWORD PTR [ecx+704]
	addss	xmm0, xmm1
	mulss	xmm0, DWORD PTR __real@3f866666
	push	ecx
	movss	DWORD PTR [esp], xmm0
	mov	ecx, DWORD PTR _this$[ebp]
	call	?SetDelta@VuEntity@@QAEXMMM@Z		; VuEntity::SetDelta
$LN53@Exec:

; 627  : 				}
; 628  : 			}
; 629  : 		}

	jmp	$LN22@Exec
$LN70@Exec:

; 630  : 		// RV - Biker - Add 2 sec delay for guidance
; 631  : 		else if((flags & IsLGB) && g_bRealisticAvionics && (SimLibElapsedTime - timeOfDeath) > (2.0f * SEC_TO_MSEC))

	mov	edx, DWORD PTR _this$[ebp]
	mov	eax, DWORD PTR [edx+732]
	and	eax, 32					; 00000020H
	je	$LN51@Exec
	movzx	ecx, BYTE PTR ?g_bRealisticAvionics@@3_NA ; g_bRealisticAvionics
	test	ecx, ecx
	je	$LN51@Exec
	mov	edx, DWORD PTR _this$[ebp]
	mov	eax, DWORD PTR ?SimLibElapsedTime@@3KA	; SimLibElapsedTime
	sub	eax, DWORD PTR [edx+288]
	mov	DWORD PTR tv4453[ebp], eax
	cvtsi2sd xmm0, DWORD PTR tv4453[ebp]
	mov	ecx, DWORD PTR tv4453[ebp]
	shr	ecx, 31					; 0000001fH
	addsd	xmm0, QWORD PTR __xmm@41f00000000000000000000000000000[ecx*8]
	movsd	QWORD PTR tv4456[ebp], xmm0
	cvtsd2ss xmm0, QWORD PTR tv4456[ebp]
	comiss	xmm0, DWORD PTR __real@44fa0000
	jbe	$LN51@Exec

; 632  : 		{
; 633  : 			AircraftClass *parentAC = parent->IsAirplane() ? static_cast<AircraftClass*>(parent.get()) : NULL;

	mov	ecx, DWORD PTR _this$[ebp]
	add	ecx, 688				; 000002b0H
	call	??C?$VuBin@VFalconEntity@@@@QBEPAVFalconEntity@@XZ ; VuBin<FalconEntity>::operator->
	mov	DWORD PTR tv1708[ebp], eax
	mov	edx, DWORD PTR tv1708[ebp]
	mov	eax, DWORD PTR [edx]
	mov	ecx, DWORD PTR tv1708[ebp]
	mov	edx, DWORD PTR [eax+192]
	call	edx
	test	eax, eax
	je	SHORT $LN107@Exec
	mov	ecx, DWORD PTR _this$[ebp]
	add	ecx, 688				; 000002b0H
	call	?get@?$VuBin@VFalconEntity@@@@QBEPAVFalconEntity@@XZ ; VuBin<FalconEntity>::get
	mov	DWORD PTR tv1724[ebp], eax
	jmp	SHORT $LN108@Exec
$LN107@Exec:
	mov	DWORD PTR tv1724[ebp], 0
$LN108@Exec:
	mov	eax, DWORD PTR tv1724[ebp]
	mov	DWORD PTR _parentAC$38[ebp], eax

; 634  : 			//AI's don't need to keep a lock until impact
; 635  : 			// sfr: since someone removed the player check here, im using the parent instead
; 636  : 			//if(parent /* && ((AircraftClass *)parent)->IsPlayer()*/ )
; 637  : 			if(parentAC)

	cmp	DWORD PTR _parentAC$38[ebp], 0
	je	$LN35@Exec

; 638  : 			{
; 639  : 				radical = 0;

	movss	xmm0, DWORD PTR __real@00000000
	movss	DWORD PTR _radical$[ebp], xmm0

; 640  : 				//if (playerAC->FCC->groundDesignateZ <= ZPos())
; 641  : 				if (parentAC->FCC->groundDesignateZ <= ZPos()){

	mov	ecx, DWORD PTR _parentAC$38[ebp]
	mov	esi, DWORD PTR [ecx+936]
	mov	ecx, DWORD PTR _this$[ebp]
	call	?ZPos@VuEntity@@QBEMXZ			; VuEntity::ZPos
	fstp	DWORD PTR tv4473[ebp]
	movss	xmm0, DWORD PTR tv4473[ebp]
	comiss	xmm0, DWORD PTR [esi+384]
	jb	SHORT $LN49@Exec

; 642  : 					radical = 0;

	movss	xmm0, DWORD PTR __real@00000000
	movss	DWORD PTR _radical$[ebp], xmm0

; 643  : 				}
; 644  : 				else { 

	jmp	$LN48@Exec
$LN49@Exec:

; 645  : 					//radical = (float)sqrt (ZDelta()*ZDelta() + 2.0F * 
; 646  : 					//GRAVITY * (playerAC->FCC->groundDesignateZ - ZPos()));
; 647  : 					radical = (float)sqrt (ZDelta()*ZDelta() + 2.0F * GRAVITY * 
; 648  : 						(parentAC->FCC->groundDesignateZ - ZPos()));

	mov	ecx, DWORD PTR _this$[ebp]
	call	?ZDelta@VuEntity@@QBEMXZ		; VuEntity::ZDelta
	fstp	DWORD PTR tv4478[ebp]
	movss	xmm0, DWORD PTR tv4478[ebp]
	mov	ecx, DWORD PTR _this$[ebp]
	movss	DWORD PTR tv5414[ebp], xmm0
	call	?ZDelta@VuEntity@@QBEMXZ		; VuEntity::ZDelta
	fstp	DWORD PTR tv4482[ebp]
	movss	xmm0, DWORD PTR tv5414[ebp]
	mulss	xmm0, DWORD PTR tv4482[ebp]
	mov	edx, DWORD PTR _parentAC$38[ebp]
	mov	esi, DWORD PTR [edx+936]
	mov	ecx, DWORD PTR _this$[ebp]
	movss	DWORD PTR tv5416[ebp], xmm0
	call	?ZPos@VuEntity@@QBEMXZ			; VuEntity::ZPos
	fstp	DWORD PTR tv4487[ebp]
	movss	xmm0, DWORD PTR [esi+384]
	subss	xmm0, DWORD PTR tv4487[ebp]
	mulss	xmm0, DWORD PTR __real@4280b53f
	movss	xmm1, DWORD PTR tv5416[ebp]
	addss	xmm1, xmm0
	push	ecx
	movss	DWORD PTR [esp], xmm1
	call	?SqrtSSE@@YAMM@Z			; SqrtSSE
	add	esp, 4
	fstp	DWORD PTR _radical$[ebp]
$LN48@Exec:

; 649  : 				}
; 650  : 
; 651  : 				tFall = -ZDelta() - radical;

	mov	ecx, DWORD PTR _this$[ebp]
	call	?ZDelta@VuEntity@@QBEMXZ		; VuEntity::ZDelta
	fstp	DWORD PTR tv4496[ebp]
	movss	xmm0, DWORD PTR tv4496[ebp]
	xorps	xmm0, DWORD PTR __xmm@80000000800000008000000080000000
	subss	xmm0, DWORD PTR _radical$[ebp]
	movss	DWORD PTR _tFall$[ebp], xmm0

; 652  : 				if (tFall < 0.0F){ tFall = -ZDelta() + radical; }

	movss	xmm0, DWORD PTR __real@00000000
	comiss	xmm0, DWORD PTR _tFall$[ebp]
	jbe	SHORT $LN47@Exec
	mov	ecx, DWORD PTR _this$[ebp]
	call	?ZDelta@VuEntity@@QBEMXZ		; VuEntity::ZDelta
	fstp	DWORD PTR tv4501[ebp]
	movss	xmm0, DWORD PTR tv4501[ebp]
	xorps	xmm0, DWORD PTR __xmm@80000000800000008000000080000000
	addss	xmm0, DWORD PTR _radical$[ebp]
	movss	DWORD PTR _tFall$[ebp], xmm0
$LN47@Exec:

; 653  : 				tFall /= GRAVITY;

	movss	xmm0, DWORD PTR _tFall$[ebp]
	divss	xmm0, DWORD PTR __real@4200b53f
	movss	DWORD PTR _tFall$[ebp], xmm0

; 654  : 
; 655  : 				//deltaX = playerAC->FCC->groundDesignateX - XPos();
; 656  : 				//deltaY = playerAC->FCC->groundDesignateY - YPos();
; 657  : 				//deltaZ = playerAC->FCC->groundDesignateZ - ZPos();
; 658  : 				deltaX = parentAC->FCC->groundDesignateX - XPos();

	mov	eax, DWORD PTR _parentAC$38[ebp]
	mov	esi, DWORD PTR [eax+936]
	mov	ecx, DWORD PTR _this$[ebp]
	call	?XPos@VuEntity@@QBEMXZ			; VuEntity::XPos
	fstp	DWORD PTR tv4507[ebp]
	movss	xmm0, DWORD PTR [esi+376]
	subss	xmm0, DWORD PTR tv4507[ebp]
	movss	DWORD PTR _deltaX$[ebp], xmm0

; 659  : 				deltaY = parentAC->FCC->groundDesignateY - YPos();

	mov	ecx, DWORD PTR _parentAC$38[ebp]
	mov	esi, DWORD PTR [ecx+936]
	mov	ecx, DWORD PTR _this$[ebp]
	call	?YPos@VuEntity@@QBEMXZ			; VuEntity::YPos
	fstp	DWORD PTR tv4513[ebp]
	movss	xmm0, DWORD PTR [esi+380]
	subss	xmm0, DWORD PTR tv4513[ebp]
	movss	DWORD PTR _deltaY$[ebp], xmm0

; 660  : 				deltaZ = parentAC->FCC->groundDesignateZ - ZPos();

	mov	edx, DWORD PTR _parentAC$38[ebp]
	mov	esi, DWORD PTR [edx+936]
	mov	ecx, DWORD PTR _this$[ebp]
	call	?ZPos@VuEntity@@QBEMXZ			; VuEntity::ZPos
	fstp	DWORD PTR tv4519[ebp]
	movss	xmm0, DWORD PTR [esi+384]
	subss	xmm0, DWORD PTR tv4519[ebp]
	movss	DWORD PTR _deltaZ$[ebp], xmm0

; 661  : 
; 662  : 
; 663  : 				rx    = dmx[0][0] * deltaX + dmx[0][1] * deltaY + dmx[0][2] * deltaZ;

	mov	eax, 12					; 0000000cH
	imul	eax, 0
	mov	ecx, DWORD PTR _this$[ebp]
	lea	edx, DWORD PTR [ecx+eax+296]
	mov	eax, 4
	imul	eax, 0
	movss	xmm0, DWORD PTR [edx+eax]
	mulss	xmm0, DWORD PTR _deltaX$[ebp]
	mov	ecx, 12					; 0000000cH
	imul	ecx, 0
	mov	edx, DWORD PTR _this$[ebp]
	lea	eax, DWORD PTR [edx+ecx+296]
	mov	ecx, 4
	shl	ecx, 0
	movss	xmm1, DWORD PTR [eax+ecx]
	mulss	xmm1, DWORD PTR _deltaY$[ebp]
	addss	xmm0, xmm1
	mov	edx, 12					; 0000000cH
	imul	edx, 0
	mov	eax, DWORD PTR _this$[ebp]
	lea	ecx, DWORD PTR [eax+edx+296]
	mov	edx, 4
	shl	edx, 1
	movss	xmm1, DWORD PTR [ecx+edx]
	mulss	xmm1, DWORD PTR _deltaZ$[ebp]
	addss	xmm0, xmm1
	movss	DWORD PTR _rx$[ebp], xmm0

; 664  : 				ry    = dmx[1][0] * deltaX + dmx[1][1] * deltaY + dmx[1][2] * deltaZ;

	mov	eax, 12					; 0000000cH
	shl	eax, 0
	mov	ecx, DWORD PTR _this$[ebp]
	lea	edx, DWORD PTR [ecx+eax+296]
	mov	eax, 4
	imul	eax, 0
	movss	xmm0, DWORD PTR [edx+eax]
	mulss	xmm0, DWORD PTR _deltaX$[ebp]
	mov	ecx, 12					; 0000000cH
	shl	ecx, 0
	mov	edx, DWORD PTR _this$[ebp]
	lea	eax, DWORD PTR [edx+ecx+296]
	mov	ecx, 4
	shl	ecx, 0
	movss	xmm1, DWORD PTR [eax+ecx]
	mulss	xmm1, DWORD PTR _deltaY$[ebp]
	addss	xmm0, xmm1
	mov	edx, 12					; 0000000cH
	shl	edx, 0
	mov	eax, DWORD PTR _this$[ebp]
	lea	ecx, DWORD PTR [eax+edx+296]
	mov	edx, 4
	shl	edx, 1
	movss	xmm1, DWORD PTR [ecx+edx]
	mulss	xmm1, DWORD PTR _deltaZ$[ebp]
	addss	xmm0, xmm1
	movss	DWORD PTR _ry$[ebp], xmm0

; 665  : 				rz    = dmx[2][0] * deltaX + dmx[2][1] * deltaY + dmx[2][2] * deltaZ;

	mov	eax, 12					; 0000000cH
	shl	eax, 1
	mov	ecx, DWORD PTR _this$[ebp]
	lea	edx, DWORD PTR [ecx+eax+296]
	mov	eax, 4
	imul	eax, 0
	movss	xmm0, DWORD PTR [edx+eax]
	mulss	xmm0, DWORD PTR _deltaX$[ebp]
	mov	ecx, 12					; 0000000cH
	shl	ecx, 1
	mov	edx, DWORD PTR _this$[ebp]
	lea	eax, DWORD PTR [edx+ecx+296]
	mov	ecx, 4
	shl	ecx, 0
	movss	xmm1, DWORD PTR [eax+ecx]
	mulss	xmm1, DWORD PTR _deltaY$[ebp]
	addss	xmm0, xmm1
	mov	edx, 12					; 0000000cH
	shl	edx, 1
	mov	eax, DWORD PTR _this$[ebp]
	lea	ecx, DWORD PTR [eax+edx+296]
	mov	edx, 4
	shl	edx, 1
	movss	xmm1, DWORD PTR [ecx+edx]
	mulss	xmm1, DWORD PTR _deltaZ$[ebp]
	addss	xmm0, xmm1
	movss	DWORD PTR _rz$[ebp], xmm0

; 666  : 				range = (float)sqrt(rx*rx + ry*ry + rz*rz);

	movss	xmm0, DWORD PTR _rx$[ebp]
	mulss	xmm0, DWORD PTR _rx$[ebp]
	movss	xmm1, DWORD PTR _ry$[ebp]
	mulss	xmm1, DWORD PTR _ry$[ebp]
	addss	xmm0, xmm1
	movss	xmm1, DWORD PTR _rz$[ebp]
	mulss	xmm1, DWORD PTR _rz$[ebp]
	addss	xmm0, xmm1
	push	ecx
	movss	DWORD PTR [esp], xmm0
	call	?SqrtSSE@@YAMM@Z			; SqrtSSE
	add	esp, 4
	fstp	DWORD PTR _range$[ebp]

; 667  : 				//float range1 = (float)sqrt(deltaX*deltaX + deltaY*deltaY+deltaZ*deltaZ);
; 668  : 				//float rate = (float)sqrt(XDelta()*XDelta()+YDelta()*YDelta()+ZDelta()*ZDelta());
; 669  : 
; 670  : 				//we need to find the time until impact
; 671  : 				if (parentAC->IsPlayer()){

	mov	ecx, DWORD PTR _parentAC$38[ebp]
	call	?IsPlayer@FalconEntity@@QAEHXZ		; FalconEntity::IsPlayer
	test	eax, eax
	je	SHORT $LN46@Exec

; 672  : 					parentAC->FCC->ImpactTime = tFall;

	mov	eax, DWORD PTR _parentAC$38[ebp]
	mov	ecx, DWORD PTR [eax+936]
	movss	xmm0, DWORD PTR _tFall$[ebp]
	movss	DWORD PTR [ecx+432], xmm0
$LN46@Exec:

; 673  : 				}
; 674  : 
