; Listing generated by Microsoft (R) Optimizing Compiler Version 17.00.51106.1 

	TITLE	C:\Users\Zhitao Li\Documents\Visual Studio 2012\Projects\Freefalcon\ui95\chandler.cpp
	.686P
	.XMM
	include listing.inc
	.model	flat

INCLUDELIB LIBCMT
INCLUDELIB OLDNAMES

PUBLIC	?beg@?$_Iosb@H@std@@2W4_Seekdir@12@B		; std::_Iosb<int>::beg
PUBLIC	?pmField@?$CVarTypeInfo@PAK@ATL@@2QQtagVARIANT@@PAKQ3@ ; ATL::CVarTypeInfo<unsigned long *>::pmField
PUBLIC	?cur@?$_Iosb@H@std@@2W4_Seekdir@12@B		; std::_Iosb<int>::cur
PUBLIC	?end@?$_Iosb@H@std@@2W4_Seekdir@12@B		; std::_Iosb<int>::end
PUBLIC	?VT@?$CVarTypeInfo@_J@ATL@@2GB			; ATL::CVarTypeInfo<__int64>::VT
PUBLIC	?pmField@?$CVarTypeInfo@_J@ATL@@2QQtagVARIANT@@_JQ3@ ; ATL::CVarTypeInfo<__int64>::pmField
PUBLIC	___pobjMapEntryFirst
PUBLIC	___pobjMapEntryLast
PUBLIC	?VT@?$CVarTypeInfo@PA_J@ATL@@2GB		; ATL::CVarTypeInfo<__int64 *>::VT
PUBLIC	?pmField@?$CVarTypeInfo@PA_J@ATL@@2QQtagVARIANT@@PA_JQ3@ ; ATL::CVarTypeInfo<__int64 *>::pmField
PUBLIC	?value@?$_Sizeof@U_Nil@std@@U12@U12@U12@U12@U12@U12@U12@@std@@2IB ; std::_Sizeof<std::_Nil,std::_Nil,std::_Nil,std::_Nil,std::_Nil,std::_Nil,std::_Nil,std::_Nil>::value
PUBLIC	?_Stream_err@failure@ios_base@std@@0W4io_errc@43@B ; std::ios_base::failure::_Stream_err
PUBLIC	?VT@?$CVarTypeInfo@_K@ATL@@2GB			; ATL::CVarTypeInfo<unsigned __int64>::VT
PUBLIC	??_C@_0BF@HDDNNDFH@Component?5Categories?$AA@	; `string'
PUBLIC	?pmField@?$CVarTypeInfo@_K@ATL@@2QQtagVARIANT@@_KQ3@ ; ATL::CVarTypeInfo<unsigned __int64>::pmField
PUBLIC	??_C@_08PICKODJL@FileType?$AA@			; `string'
PUBLIC	??_C@_09JKPGEJCH@Interface?$AA@			; `string'
PUBLIC	??_C@_08PPIOJEA@Hardware?$AA@			; `string'
PUBLIC	?_pPerfRegFunc@ATL@@3P6AJPAUHINSTANCE__@@@ZA	; ATL::_pPerfRegFunc
PUBLIC	??_C@_04IHBFOLAC@Mime?$AA@			; `string'
PUBLIC	?_pPerfUnRegFunc@ATL@@3P6AJXZA			; ATL::_pPerfUnRegFunc
PUBLIC	??_C@_03DDIMFGBA@SAM?$AA@			; `string'
PUBLIC	?_AtlRegisterPerUser@ATL@@3_NA			; ATL::_AtlRegisterPerUser
PUBLIC	??_C@_08LOPHEHKG@SECURITY?$AA@			; `string'
PUBLIC	??_C@_06FDHFNJBJ@SYSTEM?$AA@			; `string'
PUBLIC	??_C@_08KEKAJNJI@Software?$AA@			; `string'
PUBLIC	??_C@_07KJLOKDKB@TypeLib?$AA@			; `string'
PUBLIC	?VT@?$CVarTypeInfo@PA_K@ATL@@2GB		; ATL::CVarTypeInfo<unsigned __int64 *>::VT
PUBLIC	?pmField@?$CVarTypeInfo@PA_K@ATL@@2QQtagVARIANT@@PA_KQ3@ ; ATL::CVarTypeInfo<unsigned __int64 *>::pmField
PUBLIC	__GUID_00000000_0000_0000_c000_000000000046
PUBLIC	?VT@?$CVarTypeInfo@M@ATL@@2GB			; ATL::CVarTypeInfo<float>::VT
PUBLIC	?pmField@?$CVarTypeInfo@M@ATL@@2QQtagVARIANT@@MQ3@ ; ATL::CVarTypeInfo<float>::pmField
PUBLIC	__GUID_a6bc3ac0_dbaa_11ce_9de3_00aa004bb851
PUBLIC	?VT@?$CVarTypeInfo@PAM@ATL@@2GB			; ATL::CVarTypeInfo<float *>::VT
PUBLIC	__GUID_00020400_0000_0000_c000_000000000046
PUBLIC	?pmField@?$CVarTypeInfo@PAM@ATL@@2QQtagVARIANT@@PAMQ3@ ; ATL::CVarTypeInfo<float *>::pmField
PUBLIC	?VT@?$CVarTypeInfo@N@ATL@@2GB			; ATL::CVarTypeInfo<double>::VT
PUBLIC	?pmField@?$CVarTypeInfo@N@ATL@@2QQtagVARIANT@@NQ3@ ; ATL::CVarTypeInfo<double>::pmField
PUBLIC	?VT@?$CVarTypeInfo@PAN@ATL@@2GB			; ATL::CVarTypeInfo<double *>::VT
PUBLIC	?pmField@?$CVarTypeInfo@PAN@ATL@@2QQtagVARIANT@@PANQ3@ ; ATL::CVarTypeInfo<double *>::pmField
PUBLIC	?VT@?$CVarTypeInfo@PAUtagVARIANT@@@ATL@@2GB	; ATL::CVarTypeInfo<tagVARIANT *>::VT
PUBLIC	?has_denorm@_Num_base@std@@2W4float_denorm_style@2@B ; std::_Num_base::has_denorm
PUBLIC	__GUID_0002e012_0000_0000_c000_000000000046
PUBLIC	?has_denorm_loss@_Num_base@std@@2_NB		; std::_Num_base::has_denorm_loss
PUBLIC	?VT@?$CVarTypeInfo@PA_W@ATL@@2GB		; ATL::CVarTypeInfo<wchar_t *>::VT
PUBLIC	?pmField@?$CVarTypeInfo@PA_W@ATL@@2QQtagVARIANT@@PA_WQ3@ ; ATL::CVarTypeInfo<wchar_t *>::pmField
PUBLIC	?has_infinity@_Num_base@std@@2_NB		; std::_Num_base::has_infinity
PUBLIC	?has_quiet_NaN@_Num_base@std@@2_NB		; std::_Num_base::has_quiet_NaN
PUBLIC	?has_signaling_NaN@_Num_base@std@@2_NB		; std::_Num_base::has_signaling_NaN
PUBLIC	?is_bounded@_Num_base@std@@2_NB			; std::_Num_base::is_bounded
PUBLIC	?VT@?$CVarTypeInfo@PAPA_W@ATL@@2GB		; ATL::CVarTypeInfo<wchar_t * *>::VT
PUBLIC	?is_exact@_Num_base@std@@2_NB			; std::_Num_base::is_exact
PUBLIC	?pmField@?$CVarTypeInfo@PAPA_W@ATL@@2QQtagVARIANT@@PAPA_WQ3@ ; ATL::CVarTypeInfo<wchar_t * *>::pmField
PUBLIC	?is_iec559@_Num_base@std@@2_NB			; std::_Num_base::is_iec559
PUBLIC	?is_integer@_Num_base@std@@2_NB			; std::_Num_base::is_integer
PUBLIC	?is_modulo@_Num_base@std@@2_NB			; std::_Num_base::is_modulo
PUBLIC	?VT@?$CVarTypeInfo@PAUIUnknown@@@ATL@@2GB	; ATL::CVarTypeInfo<IUnknown *>::VT
PUBLIC	?is_signed@_Num_base@std@@2_NB			; std::_Num_base::is_signed
PUBLIC	?pmField@?$CVarTypeInfo@PAUIUnknown@@@ATL@@2QQtagVARIANT@@PAUIUnknown@@Q3@ ; ATL::CVarTypeInfo<IUnknown *>::pmField
PUBLIC	?is_specialized@_Num_base@std@@2_NB		; std::_Num_base::is_specialized
PUBLIC	?tinyness_before@_Num_base@std@@2_NB		; std::_Num_base::tinyness_before
PUBLIC	?traps@_Num_base@std@@2_NB			; std::_Num_base::traps
PUBLIC	?round_style@_Num_base@std@@2W4float_round_style@2@B ; std::_Num_base::round_style
PUBLIC	?VT@?$CVarTypeInfo@PAPAUIUnknown@@@ATL@@2GB	; ATL::CVarTypeInfo<IUnknown * *>::VT
PUBLIC	?pmField@?$CVarTypeInfo@PAPAUIUnknown@@@ATL@@2QQtagVARIANT@@PAPAUIUnknown@@Q3@ ; ATL::CVarTypeInfo<IUnknown * *>::pmField
PUBLIC	?digits@_Num_base@std@@2HB			; std::_Num_base::digits
PUBLIC	?digits10@_Num_base@std@@2HB			; std::_Num_base::digits10
PUBLIC	?max_digits10@_Num_base@std@@2HB		; std::_Num_base::max_digits10
PUBLIC	__GUID_0000010c_0000_0000_c000_000000000046
PUBLIC	?max_exponent@_Num_base@std@@2HB		; std::_Num_base::max_exponent
PUBLIC	?VT@?$CVarTypeInfo@PAUIDispatch@@@ATL@@2GB	; ATL::CVarTypeInfo<IDispatch *>::VT
PUBLIC	?max_exponent10@_Num_base@std@@2HB		; std::_Num_base::max_exponent10
PUBLIC	?pmField@?$CVarTypeInfo@PAUIDispatch@@@ATL@@2QQtagVARIANT@@PAUIDispatch@@Q3@ ; ATL::CVarTypeInfo<IDispatch *>::pmField
PUBLIC	?min_exponent@_Num_base@std@@2HB		; std::_Num_base::min_exponent
PUBLIC	??_C@_05GIBEAPNE@CLSID?$AA@			; `string'
PUBLIC	?min_exponent10@_Num_base@std@@2HB		; std::_Num_base::min_exponent10
PUBLIC	?radix@_Num_base@std@@2HB			; std::_Num_base::radix
PUBLIC	_IID_IAxWinHostWindow
PUBLIC	?VT@?$CVarTypeInfo@PAPAUIDispatch@@@ATL@@2GB	; ATL::CVarTypeInfo<IDispatch * *>::VT
PUBLIC	?pmField@?$CVarTypeInfo@PAPAUIDispatch@@@ATL@@2QQtagVARIANT@@PAPAUIDispatch@@Q3@ ; ATL::CVarTypeInfo<IDispatch * *>::pmField
PUBLIC	?VT@?$CVarTypeInfo@TtagCY@@@ATL@@2GB		; ATL::CVarTypeInfo<tagCY>::VT
PUBLIC	?pmField@?$CVarTypeInfo@TtagCY@@@ATL@@2QQtagVARIANT@@TtagCY@@Q3@ ; ATL::CVarTypeInfo<tagCY>::pmField
PUBLIC	??_C@_05PDIKPLII@AppID?$AA@			; `string'
PUBLIC	?VT@?$CVarTypeInfo@PATtagCY@@@ATL@@2GB		; ATL::CVarTypeInfo<tagCY *>::VT
PUBLIC	?is_bounded@_Num_int_base@std@@2_NB		; std::_Num_int_base::is_bounded
PUBLIC	?pmField@?$CVarTypeInfo@PATtagCY@@@ATL@@2QQtagVARIANT@@PATtagCY@@Q3@ ; ATL::CVarTypeInfo<tagCY *>::pmField
PUBLIC	?is_exact@_Num_int_base@std@@2_NB		; std::_Num_int_base::is_exact
PUBLIC	?is_integer@_Num_int_base@std@@2_NB		; std::_Num_int_base::is_integer
PUBLIC	?is_modulo@_Num_int_base@std@@2_NB		; std::_Num_int_base::is_modulo
PUBLIC	?is_specialized@_Num_int_base@std@@2_NB		; std::_Num_int_base::is_specialized
PUBLIC	?radix@_Num_int_base@std@@2HB			; std::_Num_int_base::radix
PUBLIC	?has_denorm@_Num_float_base@std@@2W4float_denorm_style@2@B ; std::_Num_float_base::has_denorm
PUBLIC	?has_denorm_loss@_Num_float_base@std@@2_NB	; std::_Num_float_base::has_denorm_loss
PUBLIC	?has_infinity@_Num_float_base@std@@2_NB		; std::_Num_float_base::has_infinity
PUBLIC	?has_quiet_NaN@_Num_float_base@std@@2_NB	; std::_Num_float_base::has_quiet_NaN
PUBLIC	?has_signaling_NaN@_Num_float_base@std@@2_NB	; std::_Num_float_base::has_signaling_NaN
PUBLIC	?is_bounded@_Num_float_base@std@@2_NB		; std::_Num_float_base::is_bounded
PUBLIC	?is_exact@_Num_float_base@std@@2_NB		; std::_Num_float_base::is_exact
PUBLIC	?is_iec559@_Num_float_base@std@@2_NB		; std::_Num_float_base::is_iec559
PUBLIC	?is_integer@_Num_float_base@std@@2_NB		; std::_Num_float_base::is_integer
PUBLIC	?chDirSep@ATL@@3DB				; ATL::chDirSep
PUBLIC	?chRightBracket@ATL@@3DB			; ATL::chRightBracket
PUBLIC	?is_modulo@_Num_float_base@std@@2_NB		; std::_Num_float_base::is_modulo
PUBLIC	?chLeftBracket@ATL@@3DB				; ATL::chLeftBracket
PUBLIC	?chQuote@ATL@@3DB				; ATL::chQuote
PUBLIC	?chEquals@ATL@@3DB				; ATL::chEquals
PUBLIC	?is_signed@_Num_float_base@std@@2_NB		; std::_Num_float_base::is_signed
PUBLIC	?szStringVal@ATL@@3QBDB				; ATL::szStringVal
PUBLIC	??_C@_01CPLAODJH@S?$AA@				; `string'
PUBLIC	?multiszStringVal@ATL@@3QBDB			; ATL::multiszStringVal
PUBLIC	_IID_IAxWinHostWindowLic
PUBLIC	?is_specialized@_Num_float_base@std@@2_NB	; std::_Num_float_base::is_specialized
PUBLIC	??_C@_01PLPBNMEI@M?$AA@				; `string'
PUBLIC	?szDwordVal@ATL@@3QBDB				; ATL::szDwordVal
PUBLIC	??_C@_01CKDDGHAB@D?$AA@				; `string'
PUBLIC	?tinyness_before@_Num_float_base@std@@2_NB	; std::_Num_float_base::tinyness_before
PUBLIC	?szBinaryVal@ATL@@3QBDB				; ATL::szBinaryVal
PUBLIC	??_C@_01HMGJMAIH@B?$AA@				; `string'
PUBLIC	?szValToken@ATL@@3QBDB				; ATL::szValToken
PUBLIC	?traps@_Num_float_base@std@@2_NB		; std::_Num_float_base::traps
PUBLIC	??_C@_03LAIAPFCB@Val?$AA@			; `string'
PUBLIC	?szForceRemove@ATL@@3QBDB			; ATL::szForceRemove
PUBLIC	??_C@_0M@DBGDLGLL@ForceRemove?$AA@		; `string'
PUBLIC	?round_style@_Num_float_base@std@@2W4float_round_style@2@B ; std::_Num_float_base::round_style
PUBLIC	?szNoRemove@ATL@@3QBDB				; ATL::szNoRemove
PUBLIC	??_C@_08KAAPDIAN@NoRemove?$AA@			; `string'
PUBLIC	?szDelete@ATL@@3QBDB				; ATL::szDelete
PUBLIC	?radix@_Num_float_base@std@@2HB			; std::_Num_float_base::radix
PUBLIC	??_C@_06JBKGCNBB@Delete?$AA@			; `string'
PUBLIC	?ATL_CREATE_OBJECT@CComApartment@ATL@@2IA	; ATL::CComApartment::ATL_CREATE_OBJECT
PUBLIC	?is_signed@?$numeric_limits@D@std@@2_NB		; std::numeric_limits<char>::is_signed
PUBLIC	?digits@?$numeric_limits@D@std@@2HB		; std::numeric_limits<char>::digits
PUBLIC	?digits10@?$numeric_limits@D@std@@2HB		; std::numeric_limits<char>::digits10
PUBLIC	_IID_IAxWinAmbientDispatch
PUBLIC	?collate@?$_Locbase@H@std@@2HB			; std::_Locbase<int>::collate
PUBLIC	?ctype@?$_Locbase@H@std@@2HB			; std::_Locbase<int>::ctype
PUBLIC	?monetary@?$_Locbase@H@std@@2HB			; std::_Locbase<int>::monetary
PUBLIC	?numeric@?$_Locbase@H@std@@2HB			; std::_Locbase<int>::numeric
PUBLIC	?time@?$_Locbase@H@std@@2HB			; std::_Locbase<int>::time
PUBLIC	?messages@?$_Locbase@H@std@@2HB			; std::_Locbase<int>::messages
PUBLIC	?all@?$_Locbase@H@std@@2HB			; std::_Locbase<int>::all
PUBLIC	?none@?$_Locbase@H@std@@2HB			; std::_Locbase<int>::none
PUBLIC	?is_signed@?$numeric_limits@_W@std@@2_NB	; std::numeric_limits<wchar_t>::is_signed
PUBLIC	?digits@?$numeric_limits@_W@std@@2HB		; std::numeric_limits<wchar_t>::digits
PUBLIC	?gUI_TakeScreenShot@@3JA			; gUI_TakeScreenShot
PUBLIC	?gScreenShotEnabled@@3JA			; gScreenShotEnabled
PUBLIC	?gScreenShotBuffer@@3PAGA			; gScreenShotBuffer
PUBLIC	?digits10@?$numeric_limits@_W@std@@2HB		; std::numeric_limits<wchar_t>::digits10
PUBLIC	?_pAtlAutoThreadModule@ATL@@3PAUIAtlAutoThreadModule@1@A ; ATL::_pAtlAutoThreadModule
PUBLIC	?m_rcMouseImage@@3UtagRECT@@A			; m_rcMouseImage
PUBLIC	?is_modulo@?$numeric_limits@_N@std@@2_NB	; std::numeric_limits<bool>::is_modulo
PUBLIC	?is_signed@?$numeric_limits@_N@std@@2_NB	; std::numeric_limits<bool>::is_signed
PUBLIC	?digits@?$numeric_limits@_N@std@@2HB		; std::numeric_limits<bool>::digits
PUBLIC	?digits10@?$numeric_limits@_N@std@@2HB		; std::numeric_limits<bool>::digits10
PUBLIC	?value@?$_Sizeof@HU_Nil@std@@U12@U12@U12@U12@U12@U12@@std@@2IB ; std::_Sizeof<int,std::_Nil,std::_Nil,std::_Nil,std::_Nil,std::_Nil,std::_Nil,std::_Nil>::value
PUBLIC	?is_signed@?$numeric_limits@C@std@@2_NB		; std::numeric_limits<signed char>::is_signed
PUBLIC	?m_bInitFailed@CAtlBaseModule@ATL@@2_NA		; ATL::CAtlBaseModule::m_bInitFailed
PUBLIC	?digits@?$numeric_limits@C@std@@2HB		; std::numeric_limits<signed char>::digits
PUBLIC	?digits10@?$numeric_limits@C@std@@2HB		; std::numeric_limits<signed char>::digits10
PUBLIC	?table_size@?$ctype@D@std@@2IB			; std::ctype<char>::table_size
PUBLIC	?is_signed@?$numeric_limits@E@std@@2_NB		; std::numeric_limits<unsigned char>::is_signed
PUBLIC	?digits@?$numeric_limits@E@std@@2HB		; std::numeric_limits<unsigned char>::digits
PUBLIC	?digits10@?$numeric_limits@E@std@@2HB		; std::numeric_limits<unsigned char>::digits10
PUBLIC	?is_signed@?$numeric_limits@F@std@@2_NB		; std::numeric_limits<short>::is_signed
PUBLIC	?digits@?$numeric_limits@F@std@@2HB		; std::numeric_limits<short>::digits
PUBLIC	__GUID_00000000_0000_0000_0000_000000000000
PUBLIC	?digits10@?$numeric_limits@F@std@@2HB		; std::numeric_limits<short>::digits10
PUBLIC	?MAX_VALUE@CRegParser@ATL@@1HB			; ATL::CRegParser::MAX_VALUE
PUBLIC	?is_signed@?$numeric_limits@G@std@@2_NB		; std::numeric_limits<unsigned short>::is_signed
PUBLIC	?digits@?$numeric_limits@G@std@@2HB		; std::numeric_limits<unsigned short>::digits
PUBLIC	?digits10@?$numeric_limits@G@std@@2HB		; std::numeric_limits<unsigned short>::digits10
PUBLIC	?rgszNeverDelete@CRegParser@ATL@@1QBQBDB	; ATL::CRegParser::rgszNeverDelete
PUBLIC	?cbNeverDelete@CRegParser@ATL@@1HB		; ATL::CRegParser::cbNeverDelete
PUBLIC	?MAX_TYPE@CRegParser@ATL@@1HB			; ATL::CRegParser::MAX_TYPE
PUBLIC	?is_signed@?$numeric_limits@H@std@@2_NB		; std::numeric_limits<int>::is_signed
PUBLIC	?digits@?$numeric_limits@H@std@@2HB		; std::numeric_limits<int>::digits
PUBLIC	__GUID_fc4801a3_2ba9_11cf_a229_00aa003d7352
PUBLIC	?digits10@?$numeric_limits@H@std@@2HB		; std::numeric_limits<int>::digits10
PUBLIC	?_LOAD_ART_RESOURCES_@@3JA			; _LOAD_ART_RESOURCES_
PUBLIC	?is_signed@?$numeric_limits@I@std@@2_NB		; std::numeric_limits<unsigned int>::is_signed
PUBLIC	_IID_IAxWinAmbientDispatchEx
PUBLIC	?digits@?$numeric_limits@I@std@@2HB		; std::numeric_limits<unsigned int>::digits
PUBLIC	?digits10@?$numeric_limits@I@std@@2HB		; std::numeric_limits<unsigned int>::digits10
PUBLIC	_IID_IInternalConnection
PUBLIC	?is_signed@?$numeric_limits@J@std@@2_NB		; std::numeric_limits<long>::is_signed
PUBLIC	?digits@?$numeric_limits@J@std@@2HB		; std::numeric_limits<long>::digits
PUBLIC	?digits10@?$numeric_limits@J@std@@2HB		; std::numeric_limits<long>::digits10
PUBLIC	__GUID_1cf2b120_547d_101b_8e65_08002b2bd119
PUBLIC	?is_signed@?$numeric_limits@K@std@@2_NB		; std::numeric_limits<unsigned long>::is_signed
PUBLIC	?digits@?$numeric_limits@K@std@@2HB		; std::numeric_limits<unsigned long>::digits
PUBLIC	?digits10@?$numeric_limits@K@std@@2HB		; std::numeric_limits<unsigned long>::digits10
PUBLIC	?value@?$integral_constant@I$0A@@std@@2IB	; std::integral_constant<unsigned int,0>::value
PUBLIC	?_pAtlModule@ATL@@3PAVCAtlModule@1@A		; ATL::_pAtlModule
PUBLIC	?m_libid@CAtlModule@ATL@@2U_GUID@@A		; ATL::CAtlModule::m_libid
PUBLIC	?is_signed@?$numeric_limits@_J@std@@2_NB	; std::numeric_limits<__int64>::is_signed
PUBLIC	?digits@?$numeric_limits@_J@std@@2HB		; std::numeric_limits<__int64>::digits
PUBLIC	?digits10@?$numeric_limits@_J@std@@2HB		; std::numeric_limits<__int64>::digits10
PUBLIC	?is_signed@?$numeric_limits@_K@std@@2_NB	; std::numeric_limits<unsigned __int64>::is_signed
PUBLIC	?digits@?$numeric_limits@_K@std@@2HB		; std::numeric_limits<unsigned __int64>::digits
PUBLIC	?digits10@?$numeric_limits@_K@std@@2HB		; std::numeric_limits<unsigned __int64>::digits10
PUBLIC	__GUID_00000146_0000_0000_c000_000000000046
PUBLIC	?digits@?$numeric_limits@M@std@@2HB		; std::numeric_limits<float>::digits
PUBLIC	?digits10@?$numeric_limits@M@std@@2HB		; std::numeric_limits<float>::digits10
PUBLIC	?max_digits10@?$numeric_limits@M@std@@2HB	; std::numeric_limits<float>::max_digits10
PUBLIC	?max_exponent@?$numeric_limits@M@std@@2HB	; std::numeric_limits<float>::max_exponent
PUBLIC	?max_exponent10@?$numeric_limits@M@std@@2HB	; std::numeric_limits<float>::max_exponent10
PUBLIC	?min_exponent@?$numeric_limits@M@std@@2HB	; std::numeric_limits<float>::min_exponent
PUBLIC	?min_exponent10@?$numeric_limits@M@std@@2HB	; std::numeric_limits<float>::min_exponent10
PUBLIC	?VT@?$CVarTypeInfo@D@ATL@@2GB			; ATL::CVarTypeInfo<char>::VT
PUBLIC	?pmField@?$CVarTypeInfo@D@ATL@@2QQtagVARIANT@@DQ3@ ; ATL::CVarTypeInfo<char>::pmField
PUBLIC	?VT@?$CVarTypeInfo@E@ATL@@2GB			; ATL::CVarTypeInfo<unsigned char>::VT
PUBLIC	?pmField@?$CVarTypeInfo@E@ATL@@2QQtagVARIANT@@EQ3@ ; ATL::CVarTypeInfo<unsigned char>::pmField
PUBLIC	_CLSID_Registrar
PUBLIC	?digits@?$numeric_limits@N@std@@2HB		; std::numeric_limits<double>::digits
PUBLIC	?_Min@?$AtlLimits@H@ATL@@2HB			; ATL::AtlLimits<int>::_Min
PUBLIC	?VT@?$CVarTypeInfo@PAD@ATL@@2GB			; ATL::CVarTypeInfo<char *>::VT
PUBLIC	?_Max@?$AtlLimits@H@ATL@@2HB			; ATL::AtlLimits<int>::_Max
PUBLIC	?digits10@?$numeric_limits@N@std@@2HB		; std::numeric_limits<double>::digits10
PUBLIC	?pmField@?$CVarTypeInfo@PAD@ATL@@2QQtagVARIANT@@PADQ3@ ; ATL::CVarTypeInfo<char *>::pmField
PUBLIC	?max_digits10@?$numeric_limits@N@std@@2HB	; std::numeric_limits<double>::max_digits10
PUBLIC	?max_exponent@?$numeric_limits@N@std@@2HB	; std::numeric_limits<double>::max_exponent
PUBLIC	?_Min@?$AtlLimits@I@ATL@@2IB			; ATL::AtlLimits<unsigned int>::_Min
PUBLIC	?max_exponent10@?$numeric_limits@N@std@@2HB	; std::numeric_limits<double>::max_exponent10
PUBLIC	?_Max@?$AtlLimits@I@ATL@@2IB			; ATL::AtlLimits<unsigned int>::_Max
PUBLIC	?VT@?$CVarTypeInfo@PAE@ATL@@2GB			; ATL::CVarTypeInfo<unsigned char *>::VT
PUBLIC	__GUID_00000109_0000_0000_c000_000000000046
PUBLIC	?pmField@?$CVarTypeInfo@PAE@ATL@@2QQtagVARIANT@@PAEQ3@ ; ATL::CVarTypeInfo<unsigned char *>::pmField
PUBLIC	?min_exponent@?$numeric_limits@N@std@@2HB	; std::numeric_limits<double>::min_exponent
PUBLIC	__GUID_7fd52380_4e07_101b_ae2d_08002b2ec713
PUBLIC	?min_exponent10@?$numeric_limits@N@std@@2HB	; std::numeric_limits<double>::min_exponent10
PUBLIC	?_Min@?$AtlLimits@J@ATL@@2JB			; ATL::AtlLimits<long>::_Min
PUBLIC	__GUID_b196b284_bab4_101a_b69c_00aa00341d07
PUBLIC	?_Max@?$AtlLimits@J@ATL@@2JB			; ATL::AtlLimits<long>::_Max
PUBLIC	?VT@?$CVarTypeInfo@F@ATL@@2GB			; ATL::CVarTypeInfo<short>::VT
PUBLIC	_IID_IRegistrar
PUBLIC	?pmField@?$CVarTypeInfo@F@ATL@@2QQtagVARIANT@@FQ3@ ; ATL::CVarTypeInfo<short>::pmField
PUBLIC	?_Min@?$AtlLimits@K@ATL@@2KB			; ATL::AtlLimits<unsigned long>::_Min
PUBLIC	?_Max@?$AtlLimits@K@ATL@@2KB			; ATL::AtlLimits<unsigned long>::_Max
PUBLIC	?VT@?$CVarTypeInfo@PAF@ATL@@2GB			; ATL::CVarTypeInfo<short *>::VT
PUBLIC	?pmField@?$CVarTypeInfo@PAF@ATL@@2QQtagVARIANT@@PAFQ3@ ; ATL::CVarTypeInfo<short *>::pmField
PUBLIC	?_Min@?$AtlLimits@_J@ATL@@2_JB			; ATL::AtlLimits<__int64>::_Min
PUBLIC	__GUID_00000001_0000_0000_c000_000000000046
PUBLIC	?_Max@?$AtlLimits@_J@ATL@@2_JB			; ATL::AtlLimits<__int64>::_Max
PUBLIC	?digits@?$numeric_limits@O@std@@2HB		; std::numeric_limits<long double>::digits
PUBLIC	?VT@?$CVarTypeInfo@G@ATL@@2GB			; ATL::CVarTypeInfo<unsigned short>::VT
PUBLIC	?digits10@?$numeric_limits@O@std@@2HB		; std::numeric_limits<long double>::digits10
PUBLIC	?pmField@?$CVarTypeInfo@G@ATL@@2QQtagVARIANT@@GQ3@ ; ATL::CVarTypeInfo<unsigned short>::pmField
PUBLIC	?max_digits10@?$numeric_limits@O@std@@2HB	; std::numeric_limits<long double>::max_digits10
PUBLIC	__GUID_00020401_0000_0000_c000_000000000046
PUBLIC	?_Min@?$AtlLimits@_K@ATL@@2_KB			; ATL::AtlLimits<unsigned __int64>::_Min
PUBLIC	_LIBID_ATLLib
PUBLIC	?max_exponent@?$numeric_limits@O@std@@2HB	; std::numeric_limits<long double>::max_exponent
PUBLIC	?_Max@?$AtlLimits@_K@ATL@@2_KB			; ATL::AtlLimits<unsigned __int64>::_Max
PUBLIC	__GUID_00020412_0000_0000_c000_000000000046
PUBLIC	?max_exponent10@?$numeric_limits@O@std@@2HB	; std::numeric_limits<long double>::max_exponent10
PUBLIC	?VT@?$CVarTypeInfo@PAG@ATL@@2GB			; ATL::CVarTypeInfo<unsigned short *>::VT
PUBLIC	?skipws@?$_Iosb@H@std@@2W4_Fmtflags@12@B	; std::_Iosb<int>::skipws
PUBLIC	?pmField@?$CVarTypeInfo@PAG@ATL@@2QQtagVARIANT@@PAGQ3@ ; ATL::CVarTypeInfo<unsigned short *>::pmField
PUBLIC	?unitbuf@?$_Iosb@H@std@@2W4_Fmtflags@12@B	; std::_Iosb<int>::unitbuf
PUBLIC	?min_exponent@?$numeric_limits@O@std@@2HB	; std::numeric_limits<long double>::min_exponent
PUBLIC	?uppercase@?$_Iosb@H@std@@2W4_Fmtflags@12@B	; std::_Iosb<int>::uppercase
PUBLIC	?min_exponent10@?$numeric_limits@O@std@@2HB	; std::numeric_limits<long double>::min_exponent10
PUBLIC	?showbase@?$_Iosb@H@std@@2W4_Fmtflags@12@B	; std::_Iosb<int>::showbase
PUBLIC	?showpoint@?$_Iosb@H@std@@2W4_Fmtflags@12@B	; std::_Iosb<int>::showpoint
PUBLIC	?VT@?$CVarTypeInfo@H@ATL@@2GB			; ATL::CVarTypeInfo<int>::VT
PUBLIC	?pmField@?$CVarTypeInfo@H@ATL@@2QQtagVARIANT@@HQ3@ ; ATL::CVarTypeInfo<int>::pmField
PUBLIC	?showpos@?$_Iosb@H@std@@2W4_Fmtflags@12@B	; std::_Iosb<int>::showpos
PUBLIC	?left@?$_Iosb@H@std@@2W4_Fmtflags@12@B		; std::_Iosb<int>::left
PUBLIC	?right@?$_Iosb@H@std@@2W4_Fmtflags@12@B		; std::_Iosb<int>::right
PUBLIC	?internal@?$_Iosb@H@std@@2W4_Fmtflags@12@B	; std::_Iosb<int>::internal
PUBLIC	?VT@?$CVarTypeInfo@PAH@ATL@@2GB			; ATL::CVarTypeInfo<int *>::VT
PUBLIC	?dec@?$_Iosb@H@std@@2W4_Fmtflags@12@B		; std::_Iosb<int>::dec
PUBLIC	?pmField@?$CVarTypeInfo@PAH@ATL@@2QQtagVARIANT@@PAHQ3@ ; ATL::CVarTypeInfo<int *>::pmField
PUBLIC	?oct@?$_Iosb@H@std@@2W4_Fmtflags@12@B		; std::_Iosb<int>::oct
PUBLIC	?hex@?$_Iosb@H@std@@2W4_Fmtflags@12@B		; std::_Iosb<int>::hex
PUBLIC	?scientific@?$_Iosb@H@std@@2W4_Fmtflags@12@B	; std::_Iosb<int>::scientific
PUBLIC	?VT@?$CVarTypeInfo@I@ATL@@2GB			; ATL::CVarTypeInfo<unsigned int>::VT
PUBLIC	?fixed@?$_Iosb@H@std@@2W4_Fmtflags@12@B		; std::_Iosb<int>::fixed
PUBLIC	?pmField@?$CVarTypeInfo@I@ATL@@2QQtagVARIANT@@IQ3@ ; ATL::CVarTypeInfo<unsigned int>::pmField
PUBLIC	?hexfloat@?$_Iosb@H@std@@2W4_Fmtflags@12@B	; std::_Iosb<int>::hexfloat
PUBLIC	?boolalpha@?$_Iosb@H@std@@2W4_Fmtflags@12@B	; std::_Iosb<int>::boolalpha
PUBLIC	?_Stdio@?$_Iosb@H@std@@2W4_Fmtflags@12@B	; std::_Iosb<int>::_Stdio
PUBLIC	?value@?$integral_constant@_N$0A@@std@@2_NB	; std::integral_constant<bool,0>::value
PUBLIC	?adjustfield@?$_Iosb@H@std@@2W4_Fmtflags@12@B	; std::_Iosb<int>::adjustfield
PUBLIC	?VT@?$CVarTypeInfo@PAI@ATL@@2GB			; ATL::CVarTypeInfo<unsigned int *>::VT
PUBLIC	?pmField@?$CVarTypeInfo@PAI@ATL@@2QQtagVARIANT@@PAIQ3@ ; ATL::CVarTypeInfo<unsigned int *>::pmField
PUBLIC	?basefield@?$_Iosb@H@std@@2W4_Fmtflags@12@B	; std::_Iosb<int>::basefield
PUBLIC	?floatfield@?$_Iosb@H@std@@2W4_Fmtflags@12@B	; std::_Iosb<int>::floatfield
PUBLIC	?goodbit@?$_Iosb@H@std@@2W4_Iostate@12@B	; std::_Iosb<int>::goodbit
PUBLIC	?VT@?$CVarTypeInfo@J@ATL@@2GB			; ATL::CVarTypeInfo<long>::VT
PUBLIC	?eofbit@?$_Iosb@H@std@@2W4_Iostate@12@B		; std::_Iosb<int>::eofbit
PUBLIC	?value@?$integral_constant@_N$00@std@@2_NB	; std::integral_constant<bool,1>::value
PUBLIC	?pmField@?$CVarTypeInfo@J@ATL@@2QQtagVARIANT@@JQ3@ ; ATL::CVarTypeInfo<long>::pmField
PUBLIC	?failbit@?$_Iosb@H@std@@2W4_Iostate@12@B	; std::_Iosb<int>::failbit
PUBLIC	?_pModule@ATL@@3PAVCComModule@1@A		; ATL::_pModule
PUBLIC	?badbit@?$_Iosb@H@std@@2W4_Iostate@12@B		; std::_Iosb<int>::badbit
PUBLIC	?_Hardfail@?$_Iosb@H@std@@2W4_Iostate@12@B	; std::_Iosb<int>::_Hardfail
PUBLIC	?VT@?$CVarTypeInfo@PAJ@ATL@@2GB			; ATL::CVarTypeInfo<long *>::VT
PUBLIC	?in@?$_Iosb@H@std@@2W4_Openmode@12@B		; std::_Iosb<int>::in
PUBLIC	?pmField@?$CVarTypeInfo@PAJ@ATL@@2QQtagVARIANT@@PAJQ3@ ; ATL::CVarTypeInfo<long *>::pmField
PUBLIC	?out@?$_Iosb@H@std@@2W4_Openmode@12@B		; std::_Iosb<int>::out
PUBLIC	_IID_IDocHostUIHandlerDispatch
PUBLIC	?ate@?$_Iosb@H@std@@2W4_Openmode@12@B		; std::_Iosb<int>::ate
PUBLIC	?app@?$_Iosb@H@std@@2W4_Openmode@12@B		; std::_Iosb<int>::app
PUBLIC	?VT@?$CVarTypeInfo@K@ATL@@2GB			; ATL::CVarTypeInfo<unsigned long>::VT
PUBLIC	?trunc@?$_Iosb@H@std@@2W4_Openmode@12@B		; std::_Iosb<int>::trunc
PUBLIC	?pmField@?$CVarTypeInfo@K@ATL@@2QQtagVARIANT@@KQ3@ ; ATL::CVarTypeInfo<unsigned long>::pmField
PUBLIC	?_Nocreate@?$_Iosb@H@std@@2W4_Openmode@12@B	; std::_Iosb<int>::_Nocreate
PUBLIC	?_Noreplace@?$_Iosb@H@std@@2W4_Openmode@12@B	; std::_Iosb<int>::_Noreplace
PUBLIC	?binary@?$_Iosb@H@std@@2W4_Openmode@12@B	; std::_Iosb<int>::binary
PUBLIC	?VT@?$CVarTypeInfo@PAK@ATL@@2GB			; ATL::CVarTypeInfo<unsigned long *>::VT
;	COMDAT ?_pPerfRegFunc@ATL@@3P6AJPAUHINSTANCE__@@@ZA
_BSS	SEGMENT
?_pPerfRegFunc@ATL@@3P6AJPAUHINSTANCE__@@@ZA DD 01H DUP (?) ; ATL::_pPerfRegFunc
_BSS	ENDS
;	COMDAT ?_pPerfUnRegFunc@ATL@@3P6AJXZA
_BSS	SEGMENT
?_pPerfUnRegFunc@ATL@@3P6AJXZA DD 01H DUP (?)		; ATL::_pPerfUnRegFunc
_BSS	ENDS
;	COMDAT ?_AtlRegisterPerUser@ATL@@3_NA
_BSS	SEGMENT
?_AtlRegisterPerUser@ATL@@3_NA DB 01H DUP (?)		; ATL::_AtlRegisterPerUser
_BSS	ENDS
;	COMDAT ?ATL_CREATE_OBJECT@CComApartment@ATL@@2IA
_BSS	SEGMENT
?ATL_CREATE_OBJECT@CComApartment@ATL@@2IA DD 01H DUP (?) ; ATL::CComApartment::ATL_CREATE_OBJECT
_BSS	ENDS
_BSS	SEGMENT
?gUI_TakeScreenShot@@3JA DD 01H DUP (?)			; gUI_TakeScreenShot
?gScreenShotBuffer@@3PAGA DD 01H DUP (?)		; gScreenShotBuffer
_BSS	ENDS
;	COMDAT ?_pAtlAutoThreadModule@ATL@@3PAUIAtlAutoThreadModule@1@A
_BSS	SEGMENT
?_pAtlAutoThreadModule@ATL@@3PAUIAtlAutoThreadModule@1@A DD 01H DUP (?) ; ATL::_pAtlAutoThreadModule
_BSS	ENDS
_BSS	SEGMENT
?m_rcMouseImage@@3UtagRECT@@A DB 010H DUP (?)		; m_rcMouseImage
_BSS	ENDS
;	COMDAT ?m_bInitFailed@CAtlBaseModule@ATL@@2_NA
_BSS	SEGMENT
?m_bInitFailed@CAtlBaseModule@ATL@@2_NA DB 01H DUP (?)	; ATL::CAtlBaseModule::m_bInitFailed
_BSS	ENDS
;	COMDAT ?_pAtlModule@ATL@@3PAVCAtlModule@1@A
_BSS	SEGMENT
?_pAtlModule@ATL@@3PAVCAtlModule@1@A DD 01H DUP (?)	; ATL::_pAtlModule
_BSS	ENDS
;	COMDAT ?m_libid@CAtlModule@ATL@@2U_GUID@@A
_BSS	SEGMENT
?m_libid@CAtlModule@ATL@@2U_GUID@@A DB 010H DUP (?)	; ATL::CAtlModule::m_libid
_BSS	ENDS
;	COMDAT ?_pModule@ATL@@3PAVCComModule@1@A
_BSS	SEGMENT
?_pModule@ATL@@3PAVCComModule@1@A DD 01H DUP (?)	; ATL::_pModule
_BSS	ENDS
;	COMDAT ?VT@?$CVarTypeInfo@PAK@ATL@@2GB
CONST	SEGMENT
?VT@?$CVarTypeInfo@PAK@ATL@@2GB DW 04013H		; ATL::CVarTypeInfo<unsigned long *>::VT
CONST	ENDS
;	COMDAT ?binary@?$_Iosb@H@std@@2W4_Openmode@12@B
CONST	SEGMENT
?binary@?$_Iosb@H@std@@2W4_Openmode@12@B DD 020H	; std::_Iosb<int>::binary
CONST	ENDS
;	COMDAT ?_Noreplace@?$_Iosb@H@std@@2W4_Openmode@12@B
CONST	SEGMENT
?_Noreplace@?$_Iosb@H@std@@2W4_Openmode@12@B DD 080H	; std::_Iosb<int>::_Noreplace
CONST	ENDS
;	COMDAT ?_Nocreate@?$_Iosb@H@std@@2W4_Openmode@12@B
CONST	SEGMENT
?_Nocreate@?$_Iosb@H@std@@2W4_Openmode@12@B DD 040H	; std::_Iosb<int>::_Nocreate
CONST	ENDS
;	COMDAT ?pmField@?$CVarTypeInfo@K@ATL@@2QQtagVARIANT@@KQ3@
CONST	SEGMENT
?pmField@?$CVarTypeInfo@K@ATL@@2QQtagVARIANT@@KQ3@ DD 08H ; ATL::CVarTypeInfo<unsigned long>::pmField
CONST	ENDS
;	COMDAT ?trunc@?$_Iosb@H@std@@2W4_Openmode@12@B
CONST	SEGMENT
?trunc@?$_Iosb@H@std@@2W4_Openmode@12@B DD 010H		; std::_Iosb<int>::trunc
CONST	ENDS
;	COMDAT ?VT@?$CVarTypeInfo@K@ATL@@2GB
CONST	SEGMENT
?VT@?$CVarTypeInfo@K@ATL@@2GB DW 013H			; ATL::CVarTypeInfo<unsigned long>::VT
CONST	ENDS
;	COMDAT ?app@?$_Iosb@H@std@@2W4_Openmode@12@B
CONST	SEGMENT
?app@?$_Iosb@H@std@@2W4_Openmode@12@B DD 08H		; std::_Iosb<int>::app
CONST	ENDS
;	COMDAT ?ate@?$_Iosb@H@std@@2W4_Openmode@12@B
CONST	SEGMENT
?ate@?$_Iosb@H@std@@2W4_Openmode@12@B DD 04H		; std::_Iosb<int>::ate
CONST	ENDS
;	COMDAT _IID_IDocHostUIHandlerDispatch
CONST	SEGMENT
_IID_IDocHostUIHandlerDispatch DD 0425b5af0H
	DW	065f1H
	DW	011d1H
	DB	096H
	DB	011H
	DB	00H
	DB	00H
	DB	0f8H
	DB	01eH
	DB	0dH
	DB	0dH
CONST	ENDS
;	COMDAT ?out@?$_Iosb@H@std@@2W4_Openmode@12@B
CONST	SEGMENT
?out@?$_Iosb@H@std@@2W4_Openmode@12@B DD 02H		; std::_Iosb<int>::out
CONST	ENDS
;	COMDAT ?pmField@?$CVarTypeInfo@PAJ@ATL@@2QQtagVARIANT@@PAJQ3@
CONST	SEGMENT
?pmField@?$CVarTypeInfo@PAJ@ATL@@2QQtagVARIANT@@PAJQ3@ DD 08H ; ATL::CVarTypeInfo<long *>::pmField
CONST	ENDS
;	COMDAT ?in@?$_Iosb@H@std@@2W4_Openmode@12@B
CONST	SEGMENT
?in@?$_Iosb@H@std@@2W4_Openmode@12@B DD 01H		; std::_Iosb<int>::in
CONST	ENDS
;	COMDAT ?VT@?$CVarTypeInfo@PAJ@ATL@@2GB
CONST	SEGMENT
?VT@?$CVarTypeInfo@PAJ@ATL@@2GB DW 04003H		; ATL::CVarTypeInfo<long *>::VT
CONST	ENDS
;	COMDAT ?_Hardfail@?$_Iosb@H@std@@2W4_Iostate@12@B
CONST	SEGMENT
?_Hardfail@?$_Iosb@H@std@@2W4_Iostate@12@B DD 010H	; std::_Iosb<int>::_Hardfail
CONST	ENDS
;	COMDAT ?badbit@?$_Iosb@H@std@@2W4_Iostate@12@B
CONST	SEGMENT
?badbit@?$_Iosb@H@std@@2W4_Iostate@12@B DD 04H		; std::_Iosb<int>::badbit
CONST	ENDS
;	COMDAT ?failbit@?$_Iosb@H@std@@2W4_Iostate@12@B
CONST	SEGMENT
?failbit@?$_Iosb@H@std@@2W4_Iostate@12@B DD 02H		; std::_Iosb<int>::failbit
CONST	ENDS
;	COMDAT ?pmField@?$CVarTypeInfo@J@ATL@@2QQtagVARIANT@@JQ3@
CONST	SEGMENT
?pmField@?$CVarTypeInfo@J@ATL@@2QQtagVARIANT@@JQ3@ DD 08H ; ATL::CVarTypeInfo<long>::pmField
CONST	ENDS
;	COMDAT ?value@?$integral_constant@_N$00@std@@2_NB
CONST	SEGMENT
?value@?$integral_constant@_N$00@std@@2_NB DB 01H	; std::integral_constant<bool,1>::value
CONST	ENDS
;	COMDAT ?eofbit@?$_Iosb@H@std@@2W4_Iostate@12@B
CONST	SEGMENT
?eofbit@?$_Iosb@H@std@@2W4_Iostate@12@B DD 01H		; std::_Iosb<int>::eofbit
CONST	ENDS
;	COMDAT ?VT@?$CVarTypeInfo@J@ATL@@2GB
CONST	SEGMENT
?VT@?$CVarTypeInfo@J@ATL@@2GB DW 03H			; ATL::CVarTypeInfo<long>::VT
CONST	ENDS
;	COMDAT ?goodbit@?$_Iosb@H@std@@2W4_Iostate@12@B
CONST	SEGMENT
?goodbit@?$_Iosb@H@std@@2W4_Iostate@12@B DD 00H		; std::_Iosb<int>::goodbit
CONST	ENDS
;	COMDAT ?floatfield@?$_Iosb@H@std@@2W4_Fmtflags@12@B
CONST	SEGMENT
?floatfield@?$_Iosb@H@std@@2W4_Fmtflags@12@B DD 03000H	; std::_Iosb<int>::floatfield
CONST	ENDS
;	COMDAT ?basefield@?$_Iosb@H@std@@2W4_Fmtflags@12@B
CONST	SEGMENT
?basefield@?$_Iosb@H@std@@2W4_Fmtflags@12@B DD 0e00H	; std::_Iosb<int>::basefield
CONST	ENDS
;	COMDAT ?pmField@?$CVarTypeInfo@PAI@ATL@@2QQtagVARIANT@@PAIQ3@
CONST	SEGMENT
?pmField@?$CVarTypeInfo@PAI@ATL@@2QQtagVARIANT@@PAIQ3@ DD 08H ; ATL::CVarTypeInfo<unsigned int *>::pmField
CONST	ENDS
;	COMDAT ?VT@?$CVarTypeInfo@PAI@ATL@@2GB
CONST	SEGMENT
?VT@?$CVarTypeInfo@PAI@ATL@@2GB DW 04013H		; ATL::CVarTypeInfo<unsigned int *>::VT
CONST	ENDS
;	COMDAT ?adjustfield@?$_Iosb@H@std@@2W4_Fmtflags@12@B
CONST	SEGMENT
?adjustfield@?$_Iosb@H@std@@2W4_Fmtflags@12@B DD 01c0H	; std::_Iosb<int>::adjustfield
CONST	ENDS
;	COMDAT ?value@?$integral_constant@_N$0A@@std@@2_NB
CONST	SEGMENT
?value@?$integral_constant@_N$0A@@std@@2_NB DB 00H	; std::integral_constant<bool,0>::value
CONST	ENDS
;	COMDAT ?_Stdio@?$_Iosb@H@std@@2W4_Fmtflags@12@B
CONST	SEGMENT
?_Stdio@?$_Iosb@H@std@@2W4_Fmtflags@12@B DD 08000H	; std::_Iosb<int>::_Stdio
CONST	ENDS
;	COMDAT ?boolalpha@?$_Iosb@H@std@@2W4_Fmtflags@12@B
CONST	SEGMENT
?boolalpha@?$_Iosb@H@std@@2W4_Fmtflags@12@B DD 04000H	; std::_Iosb<int>::boolalpha
CONST	ENDS
;	COMDAT ?hexfloat@?$_Iosb@H@std@@2W4_Fmtflags@12@B
CONST	SEGMENT
?hexfloat@?$_Iosb@H@std@@2W4_Fmtflags@12@B DD 03000H	; std::_Iosb<int>::hexfloat
CONST	ENDS
;	COMDAT ?pmField@?$CVarTypeInfo@I@ATL@@2QQtagVARIANT@@IQ3@
CONST	SEGMENT
?pmField@?$CVarTypeInfo@I@ATL@@2QQtagVARIANT@@IQ3@ DD 08H ; ATL::CVarTypeInfo<unsigned int>::pmField
CONST	ENDS
;	COMDAT ?fixed@?$_Iosb@H@std@@2W4_Fmtflags@12@B
CONST	SEGMENT
?fixed@?$_Iosb@H@std@@2W4_Fmtflags@12@B DD 02000H	; std::_Iosb<int>::fixed
CONST	ENDS
;	COMDAT ?VT@?$CVarTypeInfo@I@ATL@@2GB
CONST	SEGMENT
?VT@?$CVarTypeInfo@I@ATL@@2GB DW 013H			; ATL::CVarTypeInfo<unsigned int>::VT
CONST	ENDS
;	COMDAT ?scientific@?$_Iosb@H@std@@2W4_Fmtflags@12@B
CONST	SEGMENT
?scientific@?$_Iosb@H@std@@2W4_Fmtflags@12@B DD 01000H	; std::_Iosb<int>::scientific
CONST	ENDS
;	COMDAT ?hex@?$_Iosb@H@std@@2W4_Fmtflags@12@B
CONST	SEGMENT
?hex@?$_Iosb@H@std@@2W4_Fmtflags@12@B DD 0800H		; std::_Iosb<int>::hex
CONST	ENDS
;	COMDAT ?oct@?$_Iosb@H@std@@2W4_Fmtflags@12@B
CONST	SEGMENT
?oct@?$_Iosb@H@std@@2W4_Fmtflags@12@B DD 0400H		; std::_Iosb<int>::oct
CONST	ENDS
;	COMDAT ?pmField@?$CVarTypeInfo@PAH@ATL@@2QQtagVARIANT@@PAHQ3@
CONST	SEGMENT
?pmField@?$CVarTypeInfo@PAH@ATL@@2QQtagVARIANT@@PAHQ3@ DD 08H ; ATL::CVarTypeInfo<int *>::pmField
CONST	ENDS
;	COMDAT ?dec@?$_Iosb@H@std@@2W4_Fmtflags@12@B
CONST	SEGMENT
?dec@?$_Iosb@H@std@@2W4_Fmtflags@12@B DD 0200H		; std::_Iosb<int>::dec
CONST	ENDS
;	COMDAT ?VT@?$CVarTypeInfo@PAH@ATL@@2GB
CONST	SEGMENT
?VT@?$CVarTypeInfo@PAH@ATL@@2GB DW 04003H		; ATL::CVarTypeInfo<int *>::VT
CONST	ENDS
;	COMDAT ?internal@?$_Iosb@H@std@@2W4_Fmtflags@12@B
CONST	SEGMENT
?internal@?$_Iosb@H@std@@2W4_Fmtflags@12@B DD 0100H	; std::_Iosb<int>::internal
CONST	ENDS
;	COMDAT ?right@?$_Iosb@H@std@@2W4_Fmtflags@12@B
CONST	SEGMENT
?right@?$_Iosb@H@std@@2W4_Fmtflags@12@B DD 080H		; std::_Iosb<int>::right
CONST	ENDS
;	COMDAT ?left@?$_Iosb@H@std@@2W4_Fmtflags@12@B
CONST	SEGMENT
?left@?$_Iosb@H@std@@2W4_Fmtflags@12@B DD 040H		; std::_Iosb<int>::left
CONST	ENDS
;	COMDAT ?showpos@?$_Iosb@H@std@@2W4_Fmtflags@12@B
CONST	SEGMENT
?showpos@?$_Iosb@H@std@@2W4_Fmtflags@12@B DD 020H	; std::_Iosb<int>::showpos
CONST	ENDS
;	COMDAT ?pmField@?$CVarTypeInfo@H@ATL@@2QQtagVARIANT@@HQ3@
CONST	SEGMENT
?pmField@?$CVarTypeInfo@H@ATL@@2QQtagVARIANT@@HQ3@ DD 08H ; ATL::CVarTypeInfo<int>::pmField
CONST	ENDS
;	COMDAT ?VT@?$CVarTypeInfo@H@ATL@@2GB
CONST	SEGMENT
?VT@?$CVarTypeInfo@H@ATL@@2GB DW 03H			; ATL::CVarTypeInfo<int>::VT
CONST	ENDS
;	COMDAT ?showpoint@?$_Iosb@H@std@@2W4_Fmtflags@12@B
CONST	SEGMENT
?showpoint@?$_Iosb@H@std@@2W4_Fmtflags@12@B DD 010H	; std::_Iosb<int>::showpoint
CONST	ENDS
;	COMDAT ?showbase@?$_Iosb@H@std@@2W4_Fmtflags@12@B
CONST	SEGMENT
?showbase@?$_Iosb@H@std@@2W4_Fmtflags@12@B DD 08H	; std::_Iosb<int>::showbase
CONST	ENDS
;	COMDAT ?min_exponent10@?$numeric_limits@O@std@@2HB
CONST	SEGMENT
?min_exponent10@?$numeric_limits@O@std@@2HB DD 0fffffecdH ; std::numeric_limits<long double>::min_exponent10
CONST	ENDS
;	COMDAT ?uppercase@?$_Iosb@H@std@@2W4_Fmtflags@12@B
CONST	SEGMENT
?uppercase@?$_Iosb@H@std@@2W4_Fmtflags@12@B DD 04H	; std::_Iosb<int>::uppercase
CONST	ENDS
;	COMDAT ?min_exponent@?$numeric_limits@O@std@@2HB
CONST	SEGMENT
?min_exponent@?$numeric_limits@O@std@@2HB DD 0fffffc03H	; std::numeric_limits<long double>::min_exponent
CONST	ENDS
;	COMDAT ?unitbuf@?$_Iosb@H@std@@2W4_Fmtflags@12@B
CONST	SEGMENT
?unitbuf@?$_Iosb@H@std@@2W4_Fmtflags@12@B DD 02H	; std::_Iosb<int>::unitbuf
CONST	ENDS
;	COMDAT ?pmField@?$CVarTypeInfo@PAG@ATL@@2QQtagVARIANT@@PAGQ3@
CONST	SEGMENT
?pmField@?$CVarTypeInfo@PAG@ATL@@2QQtagVARIANT@@PAGQ3@ DD 08H ; ATL::CVarTypeInfo<unsigned short *>::pmField
CONST	ENDS
;	COMDAT ?skipws@?$_Iosb@H@std@@2W4_Fmtflags@12@B
CONST	SEGMENT
?skipws@?$_Iosb@H@std@@2W4_Fmtflags@12@B DD 01H		; std::_Iosb<int>::skipws
CONST	ENDS
;	COMDAT ?VT@?$CVarTypeInfo@PAG@ATL@@2GB
CONST	SEGMENT
?VT@?$CVarTypeInfo@PAG@ATL@@2GB DW 04012H		; ATL::CVarTypeInfo<unsigned short *>::VT
CONST	ENDS
;	COMDAT ?max_exponent10@?$numeric_limits@O@std@@2HB
CONST	SEGMENT
?max_exponent10@?$numeric_limits@O@std@@2HB DD 0134H	; std::numeric_limits<long double>::max_exponent10
CONST	ENDS
;	COMDAT __GUID_00020412_0000_0000_c000_000000000046
CONST	SEGMENT
__GUID_00020412_0000_0000_c000_000000000046 DD 020412H
	DW	00H
	DW	00H
	DB	0c0H
	DB	00H
	DB	00H
	DB	00H
	DB	00H
	DB	00H
	DB	00H
	DB	046H
CONST	ENDS
;	COMDAT ?_Max@?$AtlLimits@_K@ATL@@2_KB
CONST	SEGMENT
?_Max@?$AtlLimits@_K@ATL@@2_KB DQ ffffffffffffffffH	; ATL::AtlLimits<unsigned __int64>::_Max
CONST	ENDS
;	COMDAT ?max_exponent@?$numeric_limits@O@std@@2HB
CONST	SEGMENT
?max_exponent@?$numeric_limits@O@std@@2HB DD 0400H	; std::numeric_limits<long double>::max_exponent
CONST	ENDS
;	COMDAT _LIBID_ATLLib
CONST	SEGMENT
_LIBID_ATLLib DD 044ec0535H
	DW	0400fH
	DW	011d0H
	DB	09dH
	DB	0cdH
	DB	00H
	DB	0a0H
	DB	0c9H
	DB	03H
	DB	091H
	DB	0d3H
CONST	ENDS
;	COMDAT ?_Min@?$AtlLimits@_K@ATL@@2_KB
CONST	SEGMENT
?_Min@?$AtlLimits@_K@ATL@@2_KB DQ 0000000000000000H	; ATL::AtlLimits<unsigned __int64>::_Min
CONST	ENDS
;	COMDAT __GUID_00020401_0000_0000_c000_000000000046
CONST	SEGMENT
__GUID_00020401_0000_0000_c000_000000000046 DD 020401H
	DW	00H
	DW	00H
	DB	0c0H
	DB	00H
	DB	00H
	DB	00H
	DB	00H
	DB	00H
	DB	00H
	DB	046H
CONST	ENDS
;	COMDAT ?max_digits10@?$numeric_limits@O@std@@2HB
CONST	SEGMENT
?max_digits10@?$numeric_limits@O@std@@2HB DD 011H	; std::numeric_limits<long double>::max_digits10
CONST	ENDS
;	COMDAT ?pmField@?$CVarTypeInfo@G@ATL@@2QQtagVARIANT@@GQ3@
CONST	SEGMENT
?pmField@?$CVarTypeInfo@G@ATL@@2QQtagVARIANT@@GQ3@ DD 08H ; ATL::CVarTypeInfo<unsigned short>::pmField
CONST	ENDS
;	COMDAT ?digits10@?$numeric_limits@O@std@@2HB
CONST	SEGMENT
?digits10@?$numeric_limits@O@std@@2HB DD 0fH		; std::numeric_limits<long double>::digits10
CONST	ENDS
;	COMDAT ?VT@?$CVarTypeInfo@G@ATL@@2GB
CONST	SEGMENT
?VT@?$CVarTypeInfo@G@ATL@@2GB DW 012H			; ATL::CVarTypeInfo<unsigned short>::VT
CONST	ENDS
;	COMDAT ?digits@?$numeric_limits@O@std@@2HB
CONST	SEGMENT
?digits@?$numeric_limits@O@std@@2HB DD 035H		; std::numeric_limits<long double>::digits
CONST	ENDS
;	COMDAT ?_Max@?$AtlLimits@_J@ATL@@2_JB
CONST	SEGMENT
?_Max@?$AtlLimits@_J@ATL@@2_JB DQ 7fffffffffffffffH	; ATL::AtlLimits<__int64>::_Max
CONST	ENDS
;	COMDAT __GUID_00000001_0000_0000_c000_000000000046
CONST	SEGMENT
__GUID_00000001_0000_0000_c000_000000000046 DD 01H
	DW	00H
	DW	00H
	DB	0c0H
	DB	00H
	DB	00H
	DB	00H
	DB	00H
	DB	00H
	DB	00H
	DB	046H
CONST	ENDS
;	COMDAT ?_Min@?$AtlLimits@_J@ATL@@2_JB
CONST	SEGMENT
?_Min@?$AtlLimits@_J@ATL@@2_JB DQ 8000000000000000H	; ATL::AtlLimits<__int64>::_Min
CONST	ENDS
;	COMDAT ?pmField@?$CVarTypeInfo@PAF@ATL@@2QQtagVARIANT@@PAFQ3@
CONST	SEGMENT
?pmField@?$CVarTypeInfo@PAF@ATL@@2QQtagVARIANT@@PAFQ3@ DD 08H ; ATL::CVarTypeInfo<short *>::pmField
CONST	ENDS
;	COMDAT ?VT@?$CVarTypeInfo@PAF@ATL@@2GB
CONST	SEGMENT
?VT@?$CVarTypeInfo@PAF@ATL@@2GB DW 04002H		; ATL::CVarTypeInfo<short *>::VT
CONST	ENDS
;	COMDAT ?_Max@?$AtlLimits@K@ATL@@2KB
CONST	SEGMENT
?_Max@?$AtlLimits@K@ATL@@2KB DD 0ffffffffH		; ATL::AtlLimits<unsigned long>::_Max
CONST	ENDS
;	COMDAT ?_Min@?$AtlLimits@K@ATL@@2KB
CONST	SEGMENT
?_Min@?$AtlLimits@K@ATL@@2KB DD 00H			; ATL::AtlLimits<unsigned long>::_Min
CONST	ENDS
;	COMDAT ?pmField@?$CVarTypeInfo@F@ATL@@2QQtagVARIANT@@FQ3@
CONST	SEGMENT
?pmField@?$CVarTypeInfo@F@ATL@@2QQtagVARIANT@@FQ3@ DD 08H ; ATL::CVarTypeInfo<short>::pmField
CONST	ENDS
;	COMDAT _IID_IRegistrar
CONST	SEGMENT
_IID_IRegistrar DD 044ec053bH
	DW	0400fH
	DW	011d0H
	DB	09dH
	DB	0cdH
	DB	00H
	DB	0a0H
	DB	0c9H
	DB	03H
	DB	091H
	DB	0d3H
CONST	ENDS
;	COMDAT ?VT@?$CVarTypeInfo@F@ATL@@2GB
CONST	SEGMENT
?VT@?$CVarTypeInfo@F@ATL@@2GB DW 02H			; ATL::CVarTypeInfo<short>::VT
CONST	ENDS
;	COMDAT ?_Max@?$AtlLimits@J@ATL@@2JB
CONST	SEGMENT
?_Max@?$AtlLimits@J@ATL@@2JB DD 07fffffffH		; ATL::AtlLimits<long>::_Max
CONST	ENDS
;	COMDAT __GUID_b196b284_bab4_101a_b69c_00aa00341d07
CONST	SEGMENT
__GUID_b196b284_bab4_101a_b69c_00aa00341d07 DD 0b196b284H
	DW	0bab4H
	DW	0101aH
	DB	0b6H
	DB	09cH
	DB	00H
	DB	0aaH
	DB	00H
	DB	034H
	DB	01dH
	DB	07H
CONST	ENDS
;	COMDAT ?_Min@?$AtlLimits@J@ATL@@2JB
CONST	SEGMENT
?_Min@?$AtlLimits@J@ATL@@2JB DD 080000000H		; ATL::AtlLimits<long>::_Min
CONST	ENDS
;	COMDAT ?min_exponent10@?$numeric_limits@N@std@@2HB
CONST	SEGMENT
?min_exponent10@?$numeric_limits@N@std@@2HB DD 0fffffecdH ; std::numeric_limits<double>::min_exponent10
CONST	ENDS
;	COMDAT __GUID_7fd52380_4e07_101b_ae2d_08002b2ec713
CONST	SEGMENT
__GUID_7fd52380_4e07_101b_ae2d_08002b2ec713 DD 07fd52380H
	DW	04e07H
	DW	0101bH
	DB	0aeH
	DB	02dH
	DB	08H
	DB	00H
	DB	02bH
	DB	02eH
	DB	0c7H
	DB	013H
CONST	ENDS
;	COMDAT ?min_exponent@?$numeric_limits@N@std@@2HB
CONST	SEGMENT
?min_exponent@?$numeric_limits@N@std@@2HB DD 0fffffc03H	; std::numeric_limits<double>::min_exponent
CONST	ENDS
;	COMDAT ?pmField@?$CVarTypeInfo@PAE@ATL@@2QQtagVARIANT@@PAEQ3@
CONST	SEGMENT
?pmField@?$CVarTypeInfo@PAE@ATL@@2QQtagVARIANT@@PAEQ3@ DD 08H ; ATL::CVarTypeInfo<unsigned char *>::pmField
CONST	ENDS
;	COMDAT __GUID_00000109_0000_0000_c000_000000000046
CONST	SEGMENT
__GUID_00000109_0000_0000_c000_000000000046 DD 0109H
	DW	00H
	DW	00H
	DB	0c0H
	DB	00H
	DB	00H
	DB	00H
	DB	00H
	DB	00H
	DB	00H
	DB	046H
CONST	ENDS
;	COMDAT ?VT@?$CVarTypeInfo@PAE@ATL@@2GB
CONST	SEGMENT
?VT@?$CVarTypeInfo@PAE@ATL@@2GB DW 04011H		; ATL::CVarTypeInfo<unsigned char *>::VT
CONST	ENDS
;	COMDAT ?_Max@?$AtlLimits@I@ATL@@2IB
CONST	SEGMENT
?_Max@?$AtlLimits@I@ATL@@2IB DD 0ffffffffH		; ATL::AtlLimits<unsigned int>::_Max
CONST	ENDS
;	COMDAT ?max_exponent10@?$numeric_limits@N@std@@2HB
CONST	SEGMENT
?max_exponent10@?$numeric_limits@N@std@@2HB DD 0134H	; std::numeric_limits<double>::max_exponent10
CONST	ENDS
;	COMDAT ?_Min@?$AtlLimits@I@ATL@@2IB
CONST	SEGMENT
?_Min@?$AtlLimits@I@ATL@@2IB DD 00H			; ATL::AtlLimits<unsigned int>::_Min
CONST	ENDS
;	COMDAT ?max_exponent@?$numeric_limits@N@std@@2HB
CONST	SEGMENT
?max_exponent@?$numeric_limits@N@std@@2HB DD 0400H	; std::numeric_limits<double>::max_exponent
CONST	ENDS
;	COMDAT ?max_digits10@?$numeric_limits@N@std@@2HB
CONST	SEGMENT
?max_digits10@?$numeric_limits@N@std@@2HB DD 011H	; std::numeric_limits<double>::max_digits10
CONST	ENDS
;	COMDAT ?pmField@?$CVarTypeInfo@PAD@ATL@@2QQtagVARIANT@@PADQ3@
CONST	SEGMENT
?pmField@?$CVarTypeInfo@PAD@ATL@@2QQtagVARIANT@@PADQ3@ DD 08H ; ATL::CVarTypeInfo<char *>::pmField
CONST	ENDS
;	COMDAT ?digits10@?$numeric_limits@N@std@@2HB
CONST	SEGMENT
?digits10@?$numeric_limits@N@std@@2HB DD 0fH		; std::numeric_limits<double>::digits10
CONST	ENDS
;	COMDAT ?_Max@?$AtlLimits@H@ATL@@2HB
CONST	SEGMENT
?_Max@?$AtlLimits@H@ATL@@2HB DD 07fffffffH		; ATL::AtlLimits<int>::_Max
CONST	ENDS
;	COMDAT ?VT@?$CVarTypeInfo@PAD@ATL@@2GB
CONST	SEGMENT
?VT@?$CVarTypeInfo@PAD@ATL@@2GB DW 04010H		; ATL::CVarTypeInfo<char *>::VT
CONST	ENDS
;	COMDAT ?_Min@?$AtlLimits@H@ATL@@2HB
CONST	SEGMENT
?_Min@?$AtlLimits@H@ATL@@2HB DD 080000000H		; ATL::AtlLimits<int>::_Min
CONST	ENDS
;	COMDAT ?digits@?$numeric_limits@N@std@@2HB
CONST	SEGMENT
?digits@?$numeric_limits@N@std@@2HB DD 035H		; std::numeric_limits<double>::digits
CONST	ENDS
;	COMDAT _CLSID_Registrar
CONST	SEGMENT
_CLSID_Registrar DD 044ec053aH
	DW	0400fH
	DW	011d0H
	DB	09dH
	DB	0cdH
	DB	00H
	DB	0a0H
	DB	0c9H
	DB	03H
	DB	091H
	DB	0d3H
CONST	ENDS
;	COMDAT ?pmField@?$CVarTypeInfo@E@ATL@@2QQtagVARIANT@@EQ3@
CONST	SEGMENT
?pmField@?$CVarTypeInfo@E@ATL@@2QQtagVARIANT@@EQ3@ DD 08H ; ATL::CVarTypeInfo<unsigned char>::pmField
CONST	ENDS
;	COMDAT ?VT@?$CVarTypeInfo@E@ATL@@2GB
CONST	SEGMENT
?VT@?$CVarTypeInfo@E@ATL@@2GB DW 011H			; ATL::CVarTypeInfo<unsigned char>::VT
CONST	ENDS
;	COMDAT ?pmField@?$CVarTypeInfo@D@ATL@@2QQtagVARIANT@@DQ3@
CONST	SEGMENT
?pmField@?$CVarTypeInfo@D@ATL@@2QQtagVARIANT@@DQ3@ DD 08H ; ATL::CVarTypeInfo<char>::pmField
CONST	ENDS
;	COMDAT ?VT@?$CVarTypeInfo@D@ATL@@2GB
CONST	SEGMENT
?VT@?$CVarTypeInfo@D@ATL@@2GB DW 010H			; ATL::CVarTypeInfo<char>::VT
CONST	ENDS
;	COMDAT ?min_exponent10@?$numeric_limits@M@std@@2HB
CONST	SEGMENT
?min_exponent10@?$numeric_limits@M@std@@2HB DD 0ffffffdbH ; std::numeric_limits<float>::min_exponent10
CONST	ENDS
;	COMDAT ?min_exponent@?$numeric_limits@M@std@@2HB
CONST	SEGMENT
?min_exponent@?$numeric_limits@M@std@@2HB DD 0ffffff83H	; std::numeric_limits<float>::min_exponent
CONST	ENDS
;	COMDAT ?max_exponent10@?$numeric_limits@M@std@@2HB
CONST	SEGMENT
?max_exponent10@?$numeric_limits@M@std@@2HB DD 026H	; std::numeric_limits<float>::max_exponent10
CONST	ENDS
;	COMDAT ?max_exponent@?$numeric_limits@M@std@@2HB
CONST	SEGMENT
?max_exponent@?$numeric_limits@M@std@@2HB DD 080H	; std::numeric_limits<float>::max_exponent
CONST	ENDS
;	COMDAT ?max_digits10@?$numeric_limits@M@std@@2HB
CONST	SEGMENT
?max_digits10@?$numeric_limits@M@std@@2HB DD 09H	; std::numeric_limits<float>::max_digits10
CONST	ENDS
;	COMDAT ?digits10@?$numeric_limits@M@std@@2HB
CONST	SEGMENT
?digits10@?$numeric_limits@M@std@@2HB DD 06H		; std::numeric_limits<float>::digits10
CONST	ENDS
;	COMDAT ?digits@?$numeric_limits@M@std@@2HB
CONST	SEGMENT
?digits@?$numeric_limits@M@std@@2HB DD 018H		; std::numeric_limits<float>::digits
CONST	ENDS
;	COMDAT __GUID_00000146_0000_0000_c000_000000000046
CONST	SEGMENT
__GUID_00000146_0000_0000_c000_000000000046 DD 0146H
	DW	00H
	DW	00H
	DB	0c0H
	DB	00H
	DB	00H
	DB	00H
	DB	00H
	DB	00H
	DB	00H
	DB	046H
CONST	ENDS
;	COMDAT ?digits10@?$numeric_limits@_K@std@@2HB
CONST	SEGMENT
?digits10@?$numeric_limits@_K@std@@2HB DD 013H		; std::numeric_limits<unsigned __int64>::digits10
CONST	ENDS
;	COMDAT ?digits@?$numeric_limits@_K@std@@2HB
CONST	SEGMENT
?digits@?$numeric_limits@_K@std@@2HB DD 040H		; std::numeric_limits<unsigned __int64>::digits
CONST	ENDS
;	COMDAT ?is_signed@?$numeric_limits@_K@std@@2_NB
CONST	SEGMENT
?is_signed@?$numeric_limits@_K@std@@2_NB DB 00H		; std::numeric_limits<unsigned __int64>::is_signed
CONST	ENDS
;	COMDAT ?digits10@?$numeric_limits@_J@std@@2HB
CONST	SEGMENT
?digits10@?$numeric_limits@_J@std@@2HB DD 012H		; std::numeric_limits<__int64>::digits10
CONST	ENDS
;	COMDAT ?digits@?$numeric_limits@_J@std@@2HB
CONST	SEGMENT
?digits@?$numeric_limits@_J@std@@2HB DD 03fH		; std::numeric_limits<__int64>::digits
CONST	ENDS
;	COMDAT ?is_signed@?$numeric_limits@_J@std@@2_NB
CONST	SEGMENT
?is_signed@?$numeric_limits@_J@std@@2_NB DB 01H		; std::numeric_limits<__int64>::is_signed
CONST	ENDS
;	COMDAT ?value@?$integral_constant@I$0A@@std@@2IB
CONST	SEGMENT
?value@?$integral_constant@I$0A@@std@@2IB DD 00H	; std::integral_constant<unsigned int,0>::value
CONST	ENDS
;	COMDAT ?digits10@?$numeric_limits@K@std@@2HB
CONST	SEGMENT
?digits10@?$numeric_limits@K@std@@2HB DD 09H		; std::numeric_limits<unsigned long>::digits10
CONST	ENDS
;	COMDAT ?digits@?$numeric_limits@K@std@@2HB
CONST	SEGMENT
?digits@?$numeric_limits@K@std@@2HB DD 020H		; std::numeric_limits<unsigned long>::digits
CONST	ENDS
;	COMDAT ?is_signed@?$numeric_limits@K@std@@2_NB
CONST	SEGMENT
?is_signed@?$numeric_limits@K@std@@2_NB DB 00H		; std::numeric_limits<unsigned long>::is_signed
CONST	ENDS
;	COMDAT __GUID_1cf2b120_547d_101b_8e65_08002b2bd119
CONST	SEGMENT
__GUID_1cf2b120_547d_101b_8e65_08002b2bd119 DD 01cf2b120H
	DW	0547dH
	DW	0101bH
	DB	08eH
	DB	065H
	DB	08H
	DB	00H
	DB	02bH
	DB	02bH
	DB	0d1H
	DB	019H
CONST	ENDS
;	COMDAT ?digits10@?$numeric_limits@J@std@@2HB
CONST	SEGMENT
?digits10@?$numeric_limits@J@std@@2HB DD 09H		; std::numeric_limits<long>::digits10
CONST	ENDS
;	COMDAT ?digits@?$numeric_limits@J@std@@2HB
CONST	SEGMENT
?digits@?$numeric_limits@J@std@@2HB DD 01fH		; std::numeric_limits<long>::digits
CONST	ENDS
;	COMDAT ?is_signed@?$numeric_limits@J@std@@2_NB
CONST	SEGMENT
?is_signed@?$numeric_limits@J@std@@2_NB DB 01H		; std::numeric_limits<long>::is_signed
CONST	ENDS
;	COMDAT _IID_IInternalConnection
CONST	SEGMENT
_IID_IInternalConnection DD 072ad0770H
	DW	06a9fH
	DW	011d1H
	DB	0bcH
	DB	0ecH
	DB	00H
	DB	060H
	DB	08H
	DB	08fH
	DB	044H
	DB	04eH
CONST	ENDS
;	COMDAT ?digits10@?$numeric_limits@I@std@@2HB
CONST	SEGMENT
?digits10@?$numeric_limits@I@std@@2HB DD 09H		; std::numeric_limits<unsigned int>::digits10
CONST	ENDS
;	COMDAT ?digits@?$numeric_limits@I@std@@2HB
CONST	SEGMENT
?digits@?$numeric_limits@I@std@@2HB DD 020H		; std::numeric_limits<unsigned int>::digits
CONST	ENDS
;	COMDAT _IID_IAxWinAmbientDispatchEx
CONST	SEGMENT
_IID_IAxWinAmbientDispatchEx DD 0b2d0778bH
	DW	0ac99H
	DW	04c58H
	DB	0a5H
	DB	0c8H
	DB	0e7H
	DB	072H
	DB	04eH
	DB	053H
	DB	016H
	DB	0b5H
CONST	ENDS
;	COMDAT ?is_signed@?$numeric_limits@I@std@@2_NB
CONST	SEGMENT
?is_signed@?$numeric_limits@I@std@@2_NB DB 00H		; std::numeric_limits<unsigned int>::is_signed
CONST	ENDS
;	COMDAT ?digits10@?$numeric_limits@H@std@@2HB
CONST	SEGMENT
?digits10@?$numeric_limits@H@std@@2HB DD 09H		; std::numeric_limits<int>::digits10
CONST	ENDS
;	COMDAT __GUID_fc4801a3_2ba9_11cf_a229_00aa003d7352
CONST	SEGMENT
__GUID_fc4801a3_2ba9_11cf_a229_00aa003d7352 DD 0fc4801a3H
	DW	02ba9H
	DW	011cfH
	DB	0a2H
	DB	029H
	DB	00H
	DB	0aaH
	DB	00H
	DB	03dH
	DB	073H
	DB	052H
CONST	ENDS
;	COMDAT ?digits@?$numeric_limits@H@std@@2HB
CONST	SEGMENT
?digits@?$numeric_limits@H@std@@2HB DD 01fH		; std::numeric_limits<int>::digits
CONST	ENDS
;	COMDAT ?is_signed@?$numeric_limits@H@std@@2_NB
CONST	SEGMENT
?is_signed@?$numeric_limits@H@std@@2_NB DB 01H		; std::numeric_limits<int>::is_signed
CONST	ENDS
;	COMDAT ?MAX_TYPE@CRegParser@ATL@@1HB
CONST	SEGMENT
?MAX_TYPE@CRegParser@ATL@@1HB DD 01000H			; ATL::CRegParser::MAX_TYPE
CONST	ENDS
;	COMDAT ?cbNeverDelete@CRegParser@ATL@@1HB
CONST	SEGMENT
?cbNeverDelete@CRegParser@ATL@@1HB DD 0cH		; ATL::CRegParser::cbNeverDelete
CONST	ENDS
;	COMDAT ?rgszNeverDelete@CRegParser@ATL@@1QBQBDB
CONST	SEGMENT
?rgszNeverDelete@CRegParser@ATL@@1QBQBDB DD FLAT:??_C@_05PDIKPLII@AppID?$AA@ ; ATL::CRegParser::rgszNeverDelete
	DD	FLAT:??_C@_05GIBEAPNE@CLSID?$AA@
	DD	FLAT:??_C@_0BF@HDDNNDFH@Component?5Categories?$AA@
	DD	FLAT:??_C@_08PICKODJL@FileType?$AA@
	DD	FLAT:??_C@_09JKPGEJCH@Interface?$AA@
	DD	FLAT:??_C@_08PPIOJEA@Hardware?$AA@
	DD	FLAT:??_C@_04IHBFOLAC@Mime?$AA@
	DD	FLAT:??_C@_03DDIMFGBA@SAM?$AA@
	DD	FLAT:??_C@_08LOPHEHKG@SECURITY?$AA@
	DD	FLAT:??_C@_06FDHFNJBJ@SYSTEM?$AA@
	DD	FLAT:??_C@_08KEKAJNJI@Software?$AA@
	DD	FLAT:??_C@_07KJLOKDKB@TypeLib?$AA@
CONST	ENDS
;	COMDAT ?digits10@?$numeric_limits@G@std@@2HB
CONST	SEGMENT
?digits10@?$numeric_limits@G@std@@2HB DD 04H		; std::numeric_limits<unsigned short>::digits10
CONST	ENDS
;	COMDAT ?digits@?$numeric_limits@G@std@@2HB
CONST	SEGMENT
?digits@?$numeric_limits@G@std@@2HB DD 010H		; std::numeric_limits<unsigned short>::digits
CONST	ENDS
;	COMDAT ?is_signed@?$numeric_limits@G@std@@2_NB
CONST	SEGMENT
?is_signed@?$numeric_limits@G@std@@2_NB DB 00H		; std::numeric_limits<unsigned short>::is_signed
CONST	ENDS
;	COMDAT ?MAX_VALUE@CRegParser@ATL@@1HB
CONST	SEGMENT
?MAX_VALUE@CRegParser@ATL@@1HB DD 01000H		; ATL::CRegParser::MAX_VALUE
CONST	ENDS
;	COMDAT ?digits10@?$numeric_limits@F@std@@2HB
CONST	SEGMENT
?digits10@?$numeric_limits@F@std@@2HB DD 04H		; std::numeric_limits<short>::digits10
CONST	ENDS
;	COMDAT __GUID_00000000_0000_0000_0000_000000000000
CONST	SEGMENT
__GUID_00000000_0000_0000_0000_000000000000 DD 00H
	DW	00H
	DW	00H
	DB	00H
	DB	00H
	DB	00H
	DB	00H
	DB	00H
	DB	00H
	DB	00H
	DB	00H
CONST	ENDS
;	COMDAT ?digits@?$numeric_limits@F@std@@2HB
CONST	SEGMENT
?digits@?$numeric_limits@F@std@@2HB DD 0fH		; std::numeric_limits<short>::digits
CONST	ENDS
;	COMDAT ?is_signed@?$numeric_limits@F@std@@2_NB
CONST	SEGMENT
?is_signed@?$numeric_limits@F@std@@2_NB DB 01H		; std::numeric_limits<short>::is_signed
CONST	ENDS
;	COMDAT ?digits10@?$numeric_limits@E@std@@2HB
CONST	SEGMENT
?digits10@?$numeric_limits@E@std@@2HB DD 02H		; std::numeric_limits<unsigned char>::digits10
CONST	ENDS
;	COMDAT ?digits@?$numeric_limits@E@std@@2HB
CONST	SEGMENT
?digits@?$numeric_limits@E@std@@2HB DD 08H		; std::numeric_limits<unsigned char>::digits
CONST	ENDS
;	COMDAT ?is_signed@?$numeric_limits@E@std@@2_NB
CONST	SEGMENT
?is_signed@?$numeric_limits@E@std@@2_NB DB 00H		; std::numeric_limits<unsigned char>::is_signed
CONST	ENDS
;	COMDAT ?table_size@?$ctype@D@std@@2IB
CONST	SEGMENT
?table_size@?$ctype@D@std@@2IB DD 0100H			; std::ctype<char>::table_size
CONST	ENDS
;	COMDAT ?digits10@?$numeric_limits@C@std@@2HB
CONST	SEGMENT
?digits10@?$numeric_limits@C@std@@2HB DD 02H		; std::numeric_limits<signed char>::digits10
CONST	ENDS
;	COMDAT ?digits@?$numeric_limits@C@std@@2HB
CONST	SEGMENT
?digits@?$numeric_limits@C@std@@2HB DD 07H		; std::numeric_limits<signed char>::digits
CONST	ENDS
;	COMDAT ?is_signed@?$numeric_limits@C@std@@2_NB
CONST	SEGMENT
?is_signed@?$numeric_limits@C@std@@2_NB DB 01H		; std::numeric_limits<signed char>::is_signed
CONST	ENDS
;	COMDAT ?value@?$_Sizeof@HU_Nil@std@@U12@U12@U12@U12@U12@U12@@std@@2IB
CONST	SEGMENT
?value@?$_Sizeof@HU_Nil@std@@U12@U12@U12@U12@U12@U12@@std@@2IB DD 01H ; std::_Sizeof<int,std::_Nil,std::_Nil,std::_Nil,std::_Nil,std::_Nil,std::_Nil,std::_Nil>::value
CONST	ENDS
;	COMDAT ?digits10@?$numeric_limits@_N@std@@2HB
CONST	SEGMENT
?digits10@?$numeric_limits@_N@std@@2HB DD 00H		; std::numeric_limits<bool>::digits10
CONST	ENDS
;	COMDAT ?digits@?$numeric_limits@_N@std@@2HB
CONST	SEGMENT
?digits@?$numeric_limits@_N@std@@2HB DD 01H		; std::numeric_limits<bool>::digits
CONST	ENDS
;	COMDAT ?is_signed@?$numeric_limits@_N@std@@2_NB
CONST	SEGMENT
?is_signed@?$numeric_limits@_N@std@@2_NB DB 00H		; std::numeric_limits<bool>::is_signed
CONST	ENDS
;	COMDAT ?is_modulo@?$numeric_limits@_N@std@@2_NB
CONST	SEGMENT
?is_modulo@?$numeric_limits@_N@std@@2_NB DB 00H		; std::numeric_limits<bool>::is_modulo
CONST	ENDS
;	COMDAT ?digits10@?$numeric_limits@_W@std@@2HB
CONST	SEGMENT
?digits10@?$numeric_limits@_W@std@@2HB DD 04H		; std::numeric_limits<wchar_t>::digits10
CONST	ENDS
_DATA	SEGMENT
?gScreenShotEnabled@@3JA DD 01H				; gScreenShotEnabled
?_LOAD_ART_RESOURCES_@@3JA DD 01H			; _LOAD_ART_RESOURCES_
_DATA	ENDS
;	COMDAT ?digits@?$numeric_limits@_W@std@@2HB
CONST	SEGMENT
?digits@?$numeric_limits@_W@std@@2HB DD 010H		; std::numeric_limits<wchar_t>::digits
CONST	ENDS
;	COMDAT ?is_signed@?$numeric_limits@_W@std@@2_NB
CONST	SEGMENT
?is_signed@?$numeric_limits@_W@std@@2_NB DB 00H		; std::numeric_limits<wchar_t>::is_signed
CONST	ENDS
;	COMDAT ?none@?$_Locbase@H@std@@2HB
CONST	SEGMENT
?none@?$_Locbase@H@std@@2HB DD 00H			; std::_Locbase<int>::none
CONST	ENDS
;	COMDAT ?all@?$_Locbase@H@std@@2HB
CONST	SEGMENT
?all@?$_Locbase@H@std@@2HB DD 03fH			; std::_Locbase<int>::all
CONST	ENDS
;	COMDAT ?messages@?$_Locbase@H@std@@2HB
CONST	SEGMENT
?messages@?$_Locbase@H@std@@2HB DD 020H			; std::_Locbase<int>::messages
CONST	ENDS
;	COMDAT ?time@?$_Locbase@H@std@@2HB
CONST	SEGMENT
?time@?$_Locbase@H@std@@2HB DD 010H			; std::_Locbase<int>::time
CONST	ENDS
;	COMDAT ?numeric@?$_Locbase@H@std@@2HB
CONST	SEGMENT
?numeric@?$_Locbase@H@std@@2HB DD 08H			; std::_Locbase<int>::numeric
CONST	ENDS
;	COMDAT ?monetary@?$_Locbase@H@std@@2HB
CONST	SEGMENT
?monetary@?$_Locbase@H@std@@2HB DD 04H			; std::_Locbase<int>::monetary
CONST	ENDS
;	COMDAT ?ctype@?$_Locbase@H@std@@2HB
CONST	SEGMENT
?ctype@?$_Locbase@H@std@@2HB DD 02H			; std::_Locbase<int>::ctype
CONST	ENDS
;	COMDAT ?collate@?$_Locbase@H@std@@2HB
CONST	SEGMENT
?collate@?$_Locbase@H@std@@2HB DD 01H			; std::_Locbase<int>::collate
CONST	ENDS
;	COMDAT _IID_IAxWinAmbientDispatch
CONST	SEGMENT
_IID_IAxWinAmbientDispatch DD 0b6ea2051H
	DW	048aH
	DW	011d1H
	DB	082H
	DB	0b9H
	DB	00H
	DB	0c0H
	DB	04fH
	DB	0b9H
	DB	094H
	DB	02eH
CONST	ENDS
;	COMDAT ?digits10@?$numeric_limits@D@std@@2HB
CONST	SEGMENT
?digits10@?$numeric_limits@D@std@@2HB DD 02H		; std::numeric_limits<char>::digits10
CONST	ENDS
;	COMDAT ?digits@?$numeric_limits@D@std@@2HB
CONST	SEGMENT
?digits@?$numeric_limits@D@std@@2HB DD 07H		; std::numeric_limits<char>::digits
CONST	ENDS
;	COMDAT ?is_signed@?$numeric_limits@D@std@@2_NB
CONST	SEGMENT
?is_signed@?$numeric_limits@D@std@@2_NB DB 01H		; std::numeric_limits<char>::is_signed
CONST	ENDS
;	COMDAT ??_C@_06JBKGCNBB@Delete?$AA@
CONST	SEGMENT
??_C@_06JBKGCNBB@Delete?$AA@ DB 'Delete', 00H		; `string'
CONST	ENDS
;	COMDAT ?radix@_Num_float_base@std@@2HB
CONST	SEGMENT
?radix@_Num_float_base@std@@2HB DD 02H			; std::_Num_float_base::radix
CONST	ENDS
;	COMDAT ?szDelete@ATL@@3QBDB
CONST	SEGMENT
?szDelete@ATL@@3QBDB DD FLAT:??_C@_06JBKGCNBB@Delete?$AA@ ; ATL::szDelete
CONST	ENDS
;	COMDAT ??_C@_08KAAPDIAN@NoRemove?$AA@
CONST	SEGMENT
??_C@_08KAAPDIAN@NoRemove?$AA@ DB 'NoRemove', 00H	; `string'
CONST	ENDS
;	COMDAT ?szNoRemove@ATL@@3QBDB
CONST	SEGMENT
?szNoRemove@ATL@@3QBDB DD FLAT:??_C@_08KAAPDIAN@NoRemove?$AA@ ; ATL::szNoRemove
CONST	ENDS
;	COMDAT ?round_style@_Num_float_base@std@@2W4float_round_style@2@B
CONST	SEGMENT
?round_style@_Num_float_base@std@@2W4float_round_style@2@B DD 01H ; std::_Num_float_base::round_style
CONST	ENDS
;	COMDAT ??_C@_0M@DBGDLGLL@ForceRemove?$AA@
CONST	SEGMENT
??_C@_0M@DBGDLGLL@ForceRemove?$AA@ DB 'ForceRemove', 00H ; `string'
CONST	ENDS
;	COMDAT ?szForceRemove@ATL@@3QBDB
CONST	SEGMENT
?szForceRemove@ATL@@3QBDB DD FLAT:??_C@_0M@DBGDLGLL@ForceRemove?$AA@ ; ATL::szForceRemove
CONST	ENDS
;	COMDAT ??_C@_03LAIAPFCB@Val?$AA@
CONST	SEGMENT
??_C@_03LAIAPFCB@Val?$AA@ DB 'Val', 00H			; `string'
CONST	ENDS
;	COMDAT ?traps@_Num_float_base@std@@2_NB
CONST	SEGMENT
?traps@_Num_float_base@std@@2_NB DB 00H			; std::_Num_float_base::traps
CONST	ENDS
;	COMDAT ?szValToken@ATL@@3QBDB
CONST	SEGMENT
?szValToken@ATL@@3QBDB DD FLAT:??_C@_03LAIAPFCB@Val?$AA@ ; ATL::szValToken
CONST	ENDS
;	COMDAT ??_C@_01HMGJMAIH@B?$AA@
CONST	SEGMENT
??_C@_01HMGJMAIH@B?$AA@ DB 'B', 00H			; `string'
CONST	ENDS
;	COMDAT ?szBinaryVal@ATL@@3QBDB
CONST	SEGMENT
?szBinaryVal@ATL@@3QBDB DD FLAT:??_C@_01HMGJMAIH@B?$AA@	; ATL::szBinaryVal
CONST	ENDS
;	COMDAT ?tinyness_before@_Num_float_base@std@@2_NB
CONST	SEGMENT
?tinyness_before@_Num_float_base@std@@2_NB DB 01H	; std::_Num_float_base::tinyness_before
CONST	ENDS
;	COMDAT ??_C@_01CKDDGHAB@D?$AA@
CONST	SEGMENT
??_C@_01CKDDGHAB@D?$AA@ DB 'D', 00H			; `string'
CONST	ENDS
;	COMDAT ?szDwordVal@ATL@@3QBDB
CONST	SEGMENT
?szDwordVal@ATL@@3QBDB DD FLAT:??_C@_01CKDDGHAB@D?$AA@	; ATL::szDwordVal
CONST	ENDS
;	COMDAT ??_C@_01PLPBNMEI@M?$AA@
CONST	SEGMENT
??_C@_01PLPBNMEI@M?$AA@ DB 'M', 00H			; `string'
CONST	ENDS
;	COMDAT ?is_specialized@_Num_float_base@std@@2_NB
CONST	SEGMENT
?is_specialized@_Num_float_base@std@@2_NB DB 01H	; std::_Num_float_base::is_specialized
CONST	ENDS
;	COMDAT _IID_IAxWinHostWindowLic
CONST	SEGMENT
_IID_IAxWinHostWindowLic DD 03935bda8H
	DW	04ed9H
	DW	0495cH
	DB	086H
	DB	050H
	DB	0e0H
	DB	01fH
	DB	0c1H
	DB	0e3H
	DB	08aH
	DB	04bH
CONST	ENDS
;	COMDAT ?multiszStringVal@ATL@@3QBDB
CONST	SEGMENT
?multiszStringVal@ATL@@3QBDB DD FLAT:??_C@_01PLPBNMEI@M?$AA@ ; ATL::multiszStringVal
CONST	ENDS
;	COMDAT ??_C@_01CPLAODJH@S?$AA@
CONST	SEGMENT
??_C@_01CPLAODJH@S?$AA@ DB 'S', 00H			; `string'
CONST	ENDS
;	COMDAT ?szStringVal@ATL@@3QBDB
CONST	SEGMENT
?szStringVal@ATL@@3QBDB DD FLAT:??_C@_01CPLAODJH@S?$AA@	; ATL::szStringVal
CONST	ENDS
;	COMDAT ?is_signed@_Num_float_base@std@@2_NB
CONST	SEGMENT
?is_signed@_Num_float_base@std@@2_NB DB 01H		; std::_Num_float_base::is_signed
CONST	ENDS
;	COMDAT ?chEquals@ATL@@3DB
CONST	SEGMENT
?chEquals@ATL@@3DB DB 03dH				; ATL::chEquals
CONST	ENDS
;	COMDAT ?chQuote@ATL@@3DB
CONST	SEGMENT
?chQuote@ATL@@3DB DB 027H				; ATL::chQuote
CONST	ENDS
;	COMDAT ?chLeftBracket@ATL@@3DB
CONST	SEGMENT
?chLeftBracket@ATL@@3DB DB 07bH				; ATL::chLeftBracket
CONST	ENDS
;	COMDAT ?is_modulo@_Num_float_base@std@@2_NB
CONST	SEGMENT
?is_modulo@_Num_float_base@std@@2_NB DB 00H		; std::_Num_float_base::is_modulo
CONST	ENDS
;	COMDAT ?chRightBracket@ATL@@3DB
CONST	SEGMENT
?chRightBracket@ATL@@3DB DB 07dH			; ATL::chRightBracket
CONST	ENDS
;	COMDAT ?chDirSep@ATL@@3DB
CONST	SEGMENT
?chDirSep@ATL@@3DB DB 05cH				; ATL::chDirSep
CONST	ENDS
;	COMDAT ?is_integer@_Num_float_base@std@@2_NB
CONST	SEGMENT
?is_integer@_Num_float_base@std@@2_NB DB 00H		; std::_Num_float_base::is_integer
CONST	ENDS
;	COMDAT ?is_iec559@_Num_float_base@std@@2_NB
CONST	SEGMENT
?is_iec559@_Num_float_base@std@@2_NB DB 01H		; std::_Num_float_base::is_iec559
CONST	ENDS
;	COMDAT ?is_exact@_Num_float_base@std@@2_NB
CONST	SEGMENT
?is_exact@_Num_float_base@std@@2_NB DB 00H		; std::_Num_float_base::is_exact
CONST	ENDS
;	COMDAT ?is_bounded@_Num_float_base@std@@2_NB
CONST	SEGMENT
?is_bounded@_Num_float_base@std@@2_NB DB 01H		; std::_Num_float_base::is_bounded
CONST	ENDS
;	COMDAT ?has_signaling_NaN@_Num_float_base@std@@2_NB
CONST	SEGMENT
?has_signaling_NaN@_Num_float_base@std@@2_NB DB 01H	; std::_Num_float_base::has_signaling_NaN
CONST	ENDS
;	COMDAT ?has_quiet_NaN@_Num_float_base@std@@2_NB
CONST	SEGMENT
?has_quiet_NaN@_Num_float_base@std@@2_NB DB 01H		; std::_Num_float_base::has_quiet_NaN
CONST	ENDS
;	COMDAT ?has_infinity@_Num_float_base@std@@2_NB
CONST	SEGMENT
?has_infinity@_Num_float_base@std@@2_NB DB 01H		; std::_Num_float_base::has_infinity
CONST	ENDS
;	COMDAT ?has_denorm_loss@_Num_float_base@std@@2_NB
CONST	SEGMENT
?has_denorm_loss@_Num_float_base@std@@2_NB DB 01H	; std::_Num_float_base::has_denorm_loss
CONST	ENDS
;	COMDAT ?has_denorm@_Num_float_base@std@@2W4float_denorm_style@2@B
CONST	SEGMENT
?has_denorm@_Num_float_base@std@@2W4float_denorm_style@2@B DD 01H ; std::_Num_float_base::has_denorm
CONST	ENDS
;	COMDAT ?radix@_Num_int_base@std@@2HB
CONST	SEGMENT
?radix@_Num_int_base@std@@2HB DD 02H			; std::_Num_int_base::radix
CONST	ENDS
;	COMDAT ?is_specialized@_Num_int_base@std@@2_NB
CONST	SEGMENT
?is_specialized@_Num_int_base@std@@2_NB DB 01H		; std::_Num_int_base::is_specialized
CONST	ENDS
;	COMDAT ?is_modulo@_Num_int_base@std@@2_NB
CONST	SEGMENT
?is_modulo@_Num_int_base@std@@2_NB DB 01H		; std::_Num_int_base::is_modulo
CONST	ENDS
;	COMDAT ?is_integer@_Num_int_base@std@@2_NB
CONST	SEGMENT
?is_integer@_Num_int_base@std@@2_NB DB 01H		; std::_Num_int_base::is_integer
CONST	ENDS
;	COMDAT ?is_exact@_Num_int_base@std@@2_NB
CONST	SEGMENT
?is_exact@_Num_int_base@std@@2_NB DB 01H		; std::_Num_int_base::is_exact
CONST	ENDS
;	COMDAT ?pmField@?$CVarTypeInfo@PATtagCY@@@ATL@@2QQtagVARIANT@@PATtagCY@@Q3@
CONST	SEGMENT
?pmField@?$CVarTypeInfo@PATtagCY@@@ATL@@2QQtagVARIANT@@PATtagCY@@Q3@ DD 08H ; ATL::CVarTypeInfo<tagCY *>::pmField
CONST	ENDS
;	COMDAT ?is_bounded@_Num_int_base@std@@2_NB
CONST	SEGMENT
?is_bounded@_Num_int_base@std@@2_NB DB 01H		; std::_Num_int_base::is_bounded
CONST	ENDS
;	COMDAT ?VT@?$CVarTypeInfo@PATtagCY@@@ATL@@2GB
CONST	SEGMENT
?VT@?$CVarTypeInfo@PATtagCY@@@ATL@@2GB DW 04006H	; ATL::CVarTypeInfo<tagCY *>::VT
CONST	ENDS
;	COMDAT ??_C@_05PDIKPLII@AppID?$AA@
CONST	SEGMENT
??_C@_05PDIKPLII@AppID?$AA@ DB 'AppID', 00H		; `string'
CONST	ENDS
;	COMDAT ?pmField@?$CVarTypeInfo@TtagCY@@@ATL@@2QQtagVARIANT@@TtagCY@@Q3@
CONST	SEGMENT
?pmField@?$CVarTypeInfo@TtagCY@@@ATL@@2QQtagVARIANT@@TtagCY@@Q3@ DD 08H ; ATL::CVarTypeInfo<tagCY>::pmField
CONST	ENDS
;	COMDAT ?VT@?$CVarTypeInfo@TtagCY@@@ATL@@2GB
CONST	SEGMENT
?VT@?$CVarTypeInfo@TtagCY@@@ATL@@2GB DW 06H		; ATL::CVarTypeInfo<tagCY>::VT
CONST	ENDS
CONST	SEGMENT
_L_2	DD	03f317218r			; 0.693147
CONST	ENDS
;	COMDAT ?pmField@?$CVarTypeInfo@PAPAUIDispatch@@@ATL@@2QQtagVARIANT@@PAPAUIDispatch@@Q3@
CONST	SEGMENT
?pmField@?$CVarTypeInfo@PAPAUIDispatch@@@ATL@@2QQtagVARIANT@@PAPAUIDispatch@@Q3@ DD 08H ; ATL::CVarTypeInfo<IDispatch * *>::pmField
CONST	ENDS
;	COMDAT ?VT@?$CVarTypeInfo@PAPAUIDispatch@@@ATL@@2GB
CONST	SEGMENT
?VT@?$CVarTypeInfo@PAPAUIDispatch@@@ATL@@2GB DW 04009H	; ATL::CVarTypeInfo<IDispatch * *>::VT
CONST	ENDS
;	COMDAT _IID_IAxWinHostWindow
CONST	SEGMENT
_IID_IAxWinHostWindow DD 0b6ea2050H
	DW	048aH
	DW	011d1H
	DB	082H
	DB	0b9H
	DB	00H
	DB	0c0H
	DB	04fH
	DB	0b9H
	DB	094H
	DB	02eH
CONST	ENDS
;	COMDAT ?radix@_Num_base@std@@2HB
CONST	SEGMENT
?radix@_Num_base@std@@2HB DD 00H			; std::_Num_base::radix
CONST	ENDS
;	COMDAT ?min_exponent10@_Num_base@std@@2HB
CONST	SEGMENT
?min_exponent10@_Num_base@std@@2HB DD 00H		; std::_Num_base::min_exponent10
CONST	ENDS
;	COMDAT ??_C@_05GIBEAPNE@CLSID?$AA@
CONST	SEGMENT
??_C@_05GIBEAPNE@CLSID?$AA@ DB 'CLSID', 00H		; `string'
CONST	ENDS
;	COMDAT ?min_exponent@_Num_base@std@@2HB
CONST	SEGMENT
?min_exponent@_Num_base@std@@2HB DD 00H			; std::_Num_base::min_exponent
CONST	ENDS
;	COMDAT ?pmField@?$CVarTypeInfo@PAUIDispatch@@@ATL@@2QQtagVARIANT@@PAUIDispatch@@Q3@
CONST	SEGMENT
?pmField@?$CVarTypeInfo@PAUIDispatch@@@ATL@@2QQtagVARIANT@@PAUIDispatch@@Q3@ DD 08H ; ATL::CVarTypeInfo<IDispatch *>::pmField
CONST	ENDS
;	COMDAT ?max_exponent10@_Num_base@std@@2HB
CONST	SEGMENT
?max_exponent10@_Num_base@std@@2HB DD 00H		; std::_Num_base::max_exponent10
CONST	ENDS
;	COMDAT ?VT@?$CVarTypeInfo@PAUIDispatch@@@ATL@@2GB
CONST	SEGMENT
?VT@?$CVarTypeInfo@PAUIDispatch@@@ATL@@2GB DW 09H	; ATL::CVarTypeInfo<IDispatch *>::VT
CONST	ENDS
;	COMDAT ?max_exponent@_Num_base@std@@2HB
CONST	SEGMENT
?max_exponent@_Num_base@std@@2HB DD 00H			; std::_Num_base::max_exponent
CONST	ENDS
;	COMDAT __GUID_0000010c_0000_0000_c000_000000000046
CONST	SEGMENT
__GUID_0000010c_0000_0000_c000_000000000046 DD 010cH
	DW	00H
	DW	00H
	DB	0c0H
	DB	00H
	DB	00H
	DB	00H
	DB	00H
	DB	00H
	DB	00H
	DB	046H
CONST	ENDS
;	COMDAT ?max_digits10@_Num_base@std@@2HB
CONST	SEGMENT
?max_digits10@_Num_base@std@@2HB DD 00H			; std::_Num_base::max_digits10
CONST	ENDS
;	COMDAT ?digits10@_Num_base@std@@2HB
CONST	SEGMENT
?digits10@_Num_base@std@@2HB DD 00H			; std::_Num_base::digits10
CONST	ENDS
;	COMDAT ?digits@_Num_base@std@@2HB
CONST	SEGMENT
?digits@_Num_base@std@@2HB DD 00H			; std::_Num_base::digits
CONST	ENDS
;	COMDAT ?pmField@?$CVarTypeInfo@PAPAUIUnknown@@@ATL@@2QQtagVARIANT@@PAPAUIUnknown@@Q3@
CONST	SEGMENT
?pmField@?$CVarTypeInfo@PAPAUIUnknown@@@ATL@@2QQtagVARIANT@@PAPAUIUnknown@@Q3@ DD 08H ; ATL::CVarTypeInfo<IUnknown * *>::pmField
CONST	ENDS
;	COMDAT ?VT@?$CVarTypeInfo@PAPAUIUnknown@@@ATL@@2GB
CONST	SEGMENT
?VT@?$CVarTypeInfo@PAPAUIUnknown@@@ATL@@2GB DW 0400dH	; ATL::CVarTypeInfo<IUnknown * *>::VT
CONST	ENDS
;	COMDAT ?round_style@_Num_base@std@@2W4float_round_style@2@B
CONST	SEGMENT
?round_style@_Num_base@std@@2W4float_round_style@2@B DD 00H ; std::_Num_base::round_style
CONST	ENDS
;	COMDAT ?traps@_Num_base@std@@2_NB
CONST	SEGMENT
?traps@_Num_base@std@@2_NB DB 00H			; std::_Num_base::traps
CONST	ENDS
;	COMDAT ?tinyness_before@_Num_base@std@@2_NB
CONST	SEGMENT
?tinyness_before@_Num_base@std@@2_NB DB 00H		; std::_Num_base::tinyness_before
CONST	ENDS
;	COMDAT ?is_specialized@_Num_base@std@@2_NB
CONST	SEGMENT
?is_specialized@_Num_base@std@@2_NB DB 00H		; std::_Num_base::is_specialized
CONST	ENDS
;	COMDAT ?pmField@?$CVarTypeInfo@PAUIUnknown@@@ATL@@2QQtagVARIANT@@PAUIUnknown@@Q3@
CONST	SEGMENT
?pmField@?$CVarTypeInfo@PAUIUnknown@@@ATL@@2QQtagVARIANT@@PAUIUnknown@@Q3@ DD 08H ; ATL::CVarTypeInfo<IUnknown *>::pmField
CONST	ENDS
;	COMDAT ?is_signed@_Num_base@std@@2_NB
CONST	SEGMENT
?is_signed@_Num_base@std@@2_NB DB 00H			; std::_Num_base::is_signed
CONST	ENDS
;	COMDAT ?VT@?$CVarTypeInfo@PAUIUnknown@@@ATL@@2GB
CONST	SEGMENT
?VT@?$CVarTypeInfo@PAUIUnknown@@@ATL@@2GB DW 0dH	; ATL::CVarTypeInfo<IUnknown *>::VT
CONST	ENDS
;	COMDAT ?is_modulo@_Num_base@std@@2_NB
CONST	SEGMENT
?is_modulo@_Num_base@std@@2_NB DB 00H			; std::_Num_base::is_modulo
CONST	ENDS
;	COMDAT ?is_integer@_Num_base@std@@2_NB
CONST	SEGMENT
?is_integer@_Num_base@std@@2_NB DB 00H			; std::_Num_base::is_integer
CONST	ENDS
;	COMDAT ?is_iec559@_Num_base@std@@2_NB
CONST	SEGMENT
?is_iec559@_Num_base@std@@2_NB DB 00H			; std::_Num_base::is_iec559
CONST	ENDS
;	COMDAT ?pmField@?$CVarTypeInfo@PAPA_W@ATL@@2QQtagVARIANT@@PAPA_WQ3@
CONST	SEGMENT
?pmField@?$CVarTypeInfo@PAPA_W@ATL@@2QQtagVARIANT@@PAPA_WQ3@ DD 08H ; ATL::CVarTypeInfo<wchar_t * *>::pmField
CONST	ENDS
;	COMDAT ?is_exact@_Num_base@std@@2_NB
CONST	SEGMENT
?is_exact@_Num_base@std@@2_NB DB 00H			; std::_Num_base::is_exact
CONST	ENDS
;	COMDAT ?VT@?$CVarTypeInfo@PAPA_W@ATL@@2GB
CONST	SEGMENT
?VT@?$CVarTypeInfo@PAPA_W@ATL@@2GB DW 04008H		; ATL::CVarTypeInfo<wchar_t * *>::VT
CONST	ENDS
;	COMDAT ?is_bounded@_Num_base@std@@2_NB
CONST	SEGMENT
?is_bounded@_Num_base@std@@2_NB DB 00H			; std::_Num_base::is_bounded
CONST	ENDS
;	COMDAT ?has_signaling_NaN@_Num_base@std@@2_NB
CONST	SEGMENT
?has_signaling_NaN@_Num_base@std@@2_NB DB 00H		; std::_Num_base::has_signaling_NaN
CONST	ENDS
;	COMDAT ?has_quiet_NaN@_Num_base@std@@2_NB
CONST	SEGMENT
?has_quiet_NaN@_Num_base@std@@2_NB DB 00H		; std::_Num_base::has_quiet_NaN
CONST	ENDS
;	COMDAT ?has_infinity@_Num_base@std@@2_NB
CONST	SEGMENT
?has_infinity@_Num_base@std@@2_NB DB 00H		; std::_Num_base::has_infinity
CONST	ENDS
;	COMDAT ?pmField@?$CVarTypeInfo@PA_W@ATL@@2QQtagVARIANT@@PA_WQ3@
CONST	SEGMENT
?pmField@?$CVarTypeInfo@PA_W@ATL@@2QQtagVARIANT@@PA_WQ3@ DD 08H ; ATL::CVarTypeInfo<wchar_t *>::pmField
CONST	ENDS
;	COMDAT ?VT@?$CVarTypeInfo@PA_W@ATL@@2GB
CONST	SEGMENT
?VT@?$CVarTypeInfo@PA_W@ATL@@2GB DW 08H			; ATL::CVarTypeInfo<wchar_t *>::VT
CONST	ENDS
;	COMDAT ?has_denorm_loss@_Num_base@std@@2_NB
CONST	SEGMENT
?has_denorm_loss@_Num_base@std@@2_NB DB 00H		; std::_Num_base::has_denorm_loss
CONST	ENDS
;	COMDAT __GUID_0002e012_0000_0000_c000_000000000046
CONST	SEGMENT
__GUID_0002e012_0000_0000_c000_000000000046 DD 02e012H
	DW	00H
	DW	00H
	DB	0c0H
	DB	00H
	DB	00H
	DB	00H
	DB	00H
	DB	00H
	DB	00H
	DB	046H
CONST	ENDS
;	COMDAT ?has_denorm@_Num_base@std@@2W4float_denorm_style@2@B
CONST	SEGMENT
?has_denorm@_Num_base@std@@2W4float_denorm_style@2@B DD 00H ; std::_Num_base::has_denorm
CONST	ENDS
;	COMDAT ?VT@?$CVarTypeInfo@PAUtagVARIANT@@@ATL@@2GB
CONST	SEGMENT
?VT@?$CVarTypeInfo@PAUtagVARIANT@@@ATL@@2GB DW 0400cH	; ATL::CVarTypeInfo<tagVARIANT *>::VT
CONST	ENDS
;	COMDAT ?pmField@?$CVarTypeInfo@PAN@ATL@@2QQtagVARIANT@@PANQ3@
CONST	SEGMENT
?pmField@?$CVarTypeInfo@PAN@ATL@@2QQtagVARIANT@@PANQ3@ DD 08H ; ATL::CVarTypeInfo<double *>::pmField
CONST	ENDS
;	COMDAT ?VT@?$CVarTypeInfo@PAN@ATL@@2GB
CONST	SEGMENT
?VT@?$CVarTypeInfo@PAN@ATL@@2GB DW 04005H		; ATL::CVarTypeInfo<double *>::VT
CONST	ENDS
;	COMDAT ?pmField@?$CVarTypeInfo@N@ATL@@2QQtagVARIANT@@NQ3@
CONST	SEGMENT
?pmField@?$CVarTypeInfo@N@ATL@@2QQtagVARIANT@@NQ3@ DD 08H ; ATL::CVarTypeInfo<double>::pmField
CONST	ENDS
;	COMDAT ?VT@?$CVarTypeInfo@N@ATL@@2GB
CONST	SEGMENT
?VT@?$CVarTypeInfo@N@ATL@@2GB DW 05H			; ATL::CVarTypeInfo<double>::VT
CONST	ENDS
;	COMDAT ?pmField@?$CVarTypeInfo@PAM@ATL@@2QQtagVARIANT@@PAMQ3@
CONST	SEGMENT
?pmField@?$CVarTypeInfo@PAM@ATL@@2QQtagVARIANT@@PAMQ3@ DD 08H ; ATL::CVarTypeInfo<float *>::pmField
CONST	ENDS
;	COMDAT __GUID_00020400_0000_0000_c000_000000000046
CONST	SEGMENT
__GUID_00020400_0000_0000_c000_000000000046 DD 020400H
	DW	00H
	DW	00H
	DB	0c0H
	DB	00H
	DB	00H
	DB	00H
	DB	00H
	DB	00H
	DB	00H
	DB	046H
CONST	ENDS
;	COMDAT ?VT@?$CVarTypeInfo@PAM@ATL@@2GB
CONST	SEGMENT
?VT@?$CVarTypeInfo@PAM@ATL@@2GB DW 04004H		; ATL::CVarTypeInfo<float *>::VT
CONST	ENDS
;	COMDAT __GUID_a6bc3ac0_dbaa_11ce_9de3_00aa004bb851
CONST	SEGMENT
__GUID_a6bc3ac0_dbaa_11ce_9de3_00aa004bb851 DD 0a6bc3ac0H
	DW	0dbaaH
	DW	011ceH
	DB	09dH
	DB	0e3H
	DB	00H
	DB	0aaH
	DB	00H
	DB	04bH
	DB	0b8H
	DB	051H
CONST	ENDS
;	COMDAT ?pmField@?$CVarTypeInfo@M@ATL@@2QQtagVARIANT@@MQ3@
CONST	SEGMENT
?pmField@?$CVarTypeInfo@M@ATL@@2QQtagVARIANT@@MQ3@ DD 08H ; ATL::CVarTypeInfo<float>::pmField
CONST	ENDS
;	COMDAT ?VT@?$CVarTypeInfo@M@ATL@@2GB
CONST	SEGMENT
?VT@?$CVarTypeInfo@M@ATL@@2GB DW 04H			; ATL::CVarTypeInfo<float>::VT
CONST	ENDS
;	COMDAT __GUID_00000000_0000_0000_c000_000000000046
CONST	SEGMENT
__GUID_00000000_0000_0000_c000_000000000046 DD 00H
	DW	00H
	DW	00H
	DB	0c0H
	DB	00H
	DB	00H
	DB	00H
	DB	00H
	DB	00H
	DB	00H
	DB	046H
CONST	ENDS
;	COMDAT ?pmField@?$CVarTypeInfo@PA_K@ATL@@2QQtagVARIANT@@PA_KQ3@
CONST	SEGMENT
?pmField@?$CVarTypeInfo@PA_K@ATL@@2QQtagVARIANT@@PA_KQ3@ DD 08H ; ATL::CVarTypeInfo<unsigned __int64 *>::pmField
CONST	ENDS
;	COMDAT ?VT@?$CVarTypeInfo@PA_K@ATL@@2GB
CONST	SEGMENT
?VT@?$CVarTypeInfo@PA_K@ATL@@2GB DW 04015H		; ATL::CVarTypeInfo<unsigned __int64 *>::VT
CONST	ENDS
;	COMDAT ??_C@_07KJLOKDKB@TypeLib?$AA@
CONST	SEGMENT
??_C@_07KJLOKDKB@TypeLib?$AA@ DB 'TypeLib', 00H		; `string'
CONST	ENDS
;	COMDAT ??_C@_08KEKAJNJI@Software?$AA@
CONST	SEGMENT
??_C@_08KEKAJNJI@Software?$AA@ DB 'Software', 00H	; `string'
CONST	ENDS
;	COMDAT ??_C@_06FDHFNJBJ@SYSTEM?$AA@
CONST	SEGMENT
??_C@_06FDHFNJBJ@SYSTEM?$AA@ DB 'SYSTEM', 00H		; `string'
CONST	ENDS
;	COMDAT ??_C@_08LOPHEHKG@SECURITY?$AA@
CONST	SEGMENT
??_C@_08LOPHEHKG@SECURITY?$AA@ DB 'SECURITY', 00H	; `string'
CONST	ENDS
;	COMDAT ??_C@_03DDIMFGBA@SAM?$AA@
CONST	SEGMENT
??_C@_03DDIMFGBA@SAM?$AA@ DB 'SAM', 00H			; `string'
CONST	ENDS
;	COMDAT ??_C@_04IHBFOLAC@Mime?$AA@
CONST	SEGMENT
??_C@_04IHBFOLAC@Mime?$AA@ DB 'Mime', 00H		; `string'
CONST	ENDS
;	COMDAT ??_C@_08PPIOJEA@Hardware?$AA@
CONST	SEGMENT
??_C@_08PPIOJEA@Hardware?$AA@ DB 'Hardware', 00H	; `string'
CONST	ENDS
;	COMDAT ??_C@_09JKPGEJCH@Interface?$AA@
CONST	SEGMENT
??_C@_09JKPGEJCH@Interface?$AA@ DB 'Interface', 00H	; `string'
CONST	ENDS
;	COMDAT ??_C@_08PICKODJL@FileType?$AA@
CONST	SEGMENT
??_C@_08PICKODJL@FileType?$AA@ DB 'FileType', 00H	; `string'
CONST	ENDS
;	COMDAT ?pmField@?$CVarTypeInfo@_K@ATL@@2QQtagVARIANT@@_KQ3@
CONST	SEGMENT
?pmField@?$CVarTypeInfo@_K@ATL@@2QQtagVARIANT@@_KQ3@ DD 08H ; ATL::CVarTypeInfo<unsigned __int64>::pmField
CONST	ENDS
;	COMDAT ??_C@_0BF@HDDNNDFH@Component?5Categories?$AA@
CONST	SEGMENT
??_C@_0BF@HDDNNDFH@Component?5Categories?$AA@ DB 'Component Categories', 00H ; `string'
CONST	ENDS
;	COMDAT ?VT@?$CVarTypeInfo@_K@ATL@@2GB
CONST	SEGMENT
?VT@?$CVarTypeInfo@_K@ATL@@2GB DW 015H			; ATL::CVarTypeInfo<unsigned __int64>::VT
CONST	ENDS
;	COMDAT ?_Stream_err@failure@ios_base@std@@0W4io_errc@43@B
CONST	SEGMENT
?_Stream_err@failure@ios_base@std@@0W4io_errc@43@B DD 01H ; std::ios_base::failure::_Stream_err
CONST	ENDS
;	COMDAT ?value@?$_Sizeof@U_Nil@std@@U12@U12@U12@U12@U12@U12@U12@@std@@2IB
CONST	SEGMENT
?value@?$_Sizeof@U_Nil@std@@U12@U12@U12@U12@U12@U12@U12@@std@@2IB DD 00H ; std::_Sizeof<std::_Nil,std::_Nil,std::_Nil,std::_Nil,std::_Nil,std::_Nil,std::_Nil,std::_Nil>::value
CONST	ENDS
;	COMDAT ?pmField@?$CVarTypeInfo@PA_J@ATL@@2QQtagVARIANT@@PA_JQ3@
CONST	SEGMENT
?pmField@?$CVarTypeInfo@PA_J@ATL@@2QQtagVARIANT@@PA_JQ3@ DD 08H ; ATL::CVarTypeInfo<__int64 *>::pmField
CONST	ENDS
;	COMDAT ?VT@?$CVarTypeInfo@PA_J@ATL@@2GB
CONST	SEGMENT
?VT@?$CVarTypeInfo@PA_J@ATL@@2GB DW 04014H		; ATL::CVarTypeInfo<__int64 *>::VT
CONST	ENDS
;	COMDAT ___pobjMapEntryLast
ATL$__z	SEGMENT
___pobjMapEntryLast DD 00H
ATL$__z	ENDS
;	COMDAT ___pobjMapEntryFirst
ATL$__a	SEGMENT
___pobjMapEntryFirst DD 00H
ATL$__a	ENDS
;	COMDAT ?pmField@?$CVarTypeInfo@_J@ATL@@2QQtagVARIANT@@_JQ3@
CONST	SEGMENT
?pmField@?$CVarTypeInfo@_J@ATL@@2QQtagVARIANT@@_JQ3@ DD 08H ; ATL::CVarTypeInfo<__int64>::pmField
CONST	ENDS
;	COMDAT ?VT@?$CVarTypeInfo@_J@ATL@@2GB
CONST	SEGMENT
?VT@?$CVarTypeInfo@_J@ATL@@2GB DW 014H			; ATL::CVarTypeInfo<__int64>::VT
CONST	ENDS
;	COMDAT ?end@?$_Iosb@H@std@@2W4_Seekdir@12@B
CONST	SEGMENT
?end@?$_Iosb@H@std@@2W4_Seekdir@12@B DD 02H		; std::_Iosb<int>::end
CONST	ENDS
;	COMDAT ?cur@?$_Iosb@H@std@@2W4_Seekdir@12@B
CONST	SEGMENT
?cur@?$_Iosb@H@std@@2W4_Seekdir@12@B DD 01H		; std::_Iosb<int>::cur
CONST	ENDS
;	COMDAT ?pmField@?$CVarTypeInfo@PAK@ATL@@2QQtagVARIANT@@PAKQ3@
CONST	SEGMENT
?pmField@?$CVarTypeInfo@PAK@ATL@@2QQtagVARIANT@@PAKQ3@ DD 08H ; ATL::CVarTypeInfo<unsigned long *>::pmField
CONST	ENDS
;	COMDAT ?beg@?$_Iosb@H@std@@2W4_Seekdir@12@B
CONST	SEGMENT
?beg@?$_Iosb@H@std@@2W4_Seekdir@12@B DD 00H		; std::_Iosb<int>::beg
CONST	ENDS
PUBLIC	??2@YAPAXIPAX@Z					; operator new
PUBLIC	??3@YAXPAX0@Z					; operator delete
PUBLIC	??1CComBSTR@ATL@@QAE@XZ				; ATL::CComBSTR::~CComBSTR
PUBLIC	??1stringdispid@CComTypeInfoHolder@ATL@@QAE@XZ	; ATL::CComTypeInfoHolder::stringdispid::~stringdispid
PUBLIC	??_Estringdispid@CComTypeInfoHolder@ATL@@QAEPAXI@Z ; ATL::CComTypeInfoHolder::stringdispid::`vector deleting destructor'
PUBLIC	?length@?$char_traits@D@std@@SAIPBD@Z		; std::char_traits<char>::length
PUBLIC	?copy@?$char_traits@D@std@@SAPADPADPBDI@Z	; std::char_traits<char>::copy
PUBLIC	?move@?$char_traits@D@std@@SAPADPADPBDI@Z	; std::char_traits<char>::move
PUBLIC	?assign@?$char_traits@D@std@@SAXAADABD@Z	; std::char_traits<char>::assign
PUBLIC	??0?$allocator@D@std@@QAE@XZ			; std::allocator<char>::allocator<char>
PUBLIC	?deallocate@?$allocator@D@std@@QAEXPADI@Z	; std::allocator<char>::deallocate
PUBLIC	?allocate@?$allocator@D@std@@QAEPADI@Z		; std::allocator<char>::allocate
PUBLIC	?max_size@?$allocator@D@std@@QBEIXZ		; std::allocator<char>::max_size
PUBLIC	?max_size@?$allocator_traits@V?$allocator@D@std@@@std@@SAIABV?$allocator@D@2@@Z ; std::allocator_traits<std::allocator<char> >::max_size
PUBLIC	??0?$_Wrap_alloc@V?$allocator@D@std@@@std@@QAE@XZ ; std::_Wrap_alloc<std::allocator<char> >::_Wrap_alloc<std::allocator<char> >
PUBLIC	?allocate@?$_Wrap_alloc@V?$allocator@D@std@@@std@@QAEPADI@Z ; std::_Wrap_alloc<std::allocator<char> >::allocate
PUBLIC	?deallocate@?$_Wrap_alloc@V?$allocator@D@std@@@std@@QAEXPADI@Z ; std::_Wrap_alloc<std::allocator<char> >::deallocate
PUBLIC	?max_size@?$_Wrap_alloc@V?$allocator@D@std@@@std@@QBEIXZ ; std::_Wrap_alloc<std::allocator<char> >::max_size
PUBLIC	??0?$_String_val@U?$_Simple_types@D@std@@@std@@QAE@XZ ; std::_String_val<std::_Simple_types<char> >::_String_val<std::_Simple_types<char> >
PUBLIC	?_Myptr@?$_String_val@U?$_Simple_types@D@std@@@std@@QAEPADXZ ; std::_String_val<std::_Simple_types<char> >::_Myptr
PUBLIC	?_Myptr@?$_String_val@U?$_Simple_types@D@std@@@std@@QBEPBDXZ ; std::_String_val<std::_Simple_types<char> >::_Myptr
PUBLIC	??0?$_String_alloc@$0A@U?$_String_base_types@DV?$allocator@D@std@@@std@@@std@@QAE@ABV?$allocator@D@1@@Z ; std::_String_alloc<0,std::_String_base_types<char,std::allocator<char> > >::_String_alloc<0,std::_String_base_types<char,std::allocator<char> > >
PUBLIC	?_Getal@?$_String_alloc@$0A@U?$_String_base_types@DV?$allocator@D@std@@@std@@@std@@QBE?AU?$_Wrap_alloc@V?$allocator@D@std@@@2@XZ ; std::_String_alloc<0,std::_String_base_types<char,std::allocator<char> > >::_Getal
PUBLIC	??0?$basic_string@DU?$char_traits@D@std@@V?$allocator@D@2@@std@@QAE@PBD@Z ; std::basic_string<char,std::char_traits<char>,std::allocator<char> >::basic_string<char,std::char_traits<char>,std::allocator<char> >
PUBLIC	?assign@?$basic_string@DU?$char_traits@D@std@@V?$allocator@D@2@@std@@QAEAAV12@ABV12@II@Z ; std::basic_string<char,std::char_traits<char>,std::allocator<char> >::assign
PUBLIC	?assign@?$basic_string@DU?$char_traits@D@std@@V?$allocator@D@2@@std@@QAEAAV12@PBDI@Z ; std::basic_string<char,std::char_traits<char>,std::allocator<char> >::assign
PUBLIC	?assign@?$basic_string@DU?$char_traits@D@std@@V?$allocator@D@2@@std@@QAEAAV12@PBD@Z ; std::basic_string<char,std::char_traits<char>,std::allocator<char> >::assign
PUBLIC	?erase@?$basic_string@DU?$char_traits@D@std@@V?$allocator@D@2@@std@@QAEAAV12@I@Z ; std::basic_string<char,std::char_traits<char>,std::allocator<char> >::erase
PUBLIC	?erase@?$basic_string@DU?$char_traits@D@std@@V?$allocator@D@2@@std@@QAEAAV12@II@Z ; std::basic_string<char,std::char_traits<char>,std::allocator<char> >::erase
PUBLIC	?size@?$basic_string@DU?$char_traits@D@std@@V?$allocator@D@2@@std@@QBEIXZ ; std::basic_string<char,std::char_traits<char>,std::allocator<char> >::size
PUBLIC	?max_size@?$basic_string@DU?$char_traits@D@std@@V?$allocator@D@2@@std@@QBEIXZ ; std::basic_string<char,std::char_traits<char>,std::allocator<char> >::max_size
PUBLIC	?_Copy@?$basic_string@DU?$char_traits@D@std@@V?$allocator@D@2@@std@@QAEXII@Z ; std::basic_string<char,std::char_traits<char>,std::allocator<char> >::_Copy
PUBLIC	?_Eos@?$basic_string@DU?$char_traits@D@std@@V?$allocator@D@2@@std@@QAEXI@Z ; std::basic_string<char,std::char_traits<char>,std::allocator<char> >::_Eos
PUBLIC	?_Grow@?$basic_string@DU?$char_traits@D@std@@V?$allocator@D@2@@std@@QAE_NI_N@Z ; std::basic_string<char,std::char_traits<char>,std::allocator<char> >::_Grow
PUBLIC	?_Inside@?$basic_string@DU?$char_traits@D@std@@V?$allocator@D@2@@std@@QAE_NPBD@Z ; std::basic_string<char,std::char_traits<char>,std::allocator<char> >::_Inside
PUBLIC	?_Tidy@?$basic_string@DU?$char_traits@D@std@@V?$allocator@D@2@@std@@QAEX_NI@Z ; std::basic_string<char,std::char_traits<char>,std::allocator<char> >::_Tidy
PUBLIC	?_Xlen@?$basic_string@DU?$char_traits@D@std@@V?$allocator@D@2@@std@@QBEXXZ ; std::basic_string<char,std::char_traits<char>,std::allocator<char> >::_Xlen
PUBLIC	?_Xran@?$basic_string@DU?$char_traits@D@std@@V?$allocator@D@2@@std@@QBEXXZ ; std::basic_string<char,std::char_traits<char>,std::allocator<char> >::_Xran
PUBLIC	??0id@locale@std@@QAE@I@Z			; std::locale::id::id
PUBLIC	?generic_category@std@@YAABVerror_category@1@XZ	; std::generic_category
PUBLIC	?system_category@std@@YAABVerror_category@1@XZ	; std::system_category
PUBLIC	??0error_category@std@@QAE@XZ			; std::error_category::error_category
PUBLIC	??1error_category@std@@UAE@XZ			; std::error_category::~error_category
PUBLIC	?default_error_condition@error_category@std@@UBE?AVerror_condition@2@H@Z ; std::error_category::default_error_condition
PUBLIC	?equivalent@error_category@std@@UBE_NHABVerror_condition@2@@Z ; std::error_category::equivalent
PUBLIC	?equivalent@error_category@std@@UBE_NABVerror_code@2@H@Z ; std::error_category::equivalent
PUBLIC	??8error_category@std@@QBE_NABV01@@Z		; std::error_category::operator==
PUBLIC	??_Gerror_category@std@@UAEPAXI@Z		; std::error_category::`scalar deleting destructor'
PUBLIC	?value@error_code@std@@QBEHXZ			; std::error_code::value
PUBLIC	?category@error_code@std@@QBEABVerror_category@2@XZ ; std::error_code::category
PUBLIC	??0error_condition@std@@QAE@HABVerror_category@1@@Z ; std::error_condition::error_condition
PUBLIC	?value@error_condition@std@@QBEHXZ		; std::error_condition::value
PUBLIC	?category@error_condition@std@@QBEABVerror_category@2@XZ ; std::error_condition::category
PUBLIC	??8error_condition@std@@QBE_NABV01@@Z		; std::error_condition::operator==
PUBLIC	??0_Generic_error_category@std@@QAE@XZ		; std::_Generic_error_category::_Generic_error_category
PUBLIC	?name@_Generic_error_category@std@@UBEPBDXZ	; std::_Generic_error_category::name
PUBLIC	?message@_Generic_error_category@std@@UBE?AV?$basic_string@DU?$char_traits@D@std@@V?$allocator@D@2@@2@H@Z ; std::_Generic_error_category::message
PUBLIC	??1_Generic_error_category@std@@UAE@XZ		; std::_Generic_error_category::~_Generic_error_category
PUBLIC	??_G_Generic_error_category@std@@UAEPAXI@Z	; std::_Generic_error_category::`scalar deleting destructor'
PUBLIC	??0_Iostream_error_category@std@@QAE@XZ		; std::_Iostream_error_category::_Iostream_error_category
PUBLIC	?name@_Iostream_error_category@std@@UBEPBDXZ	; std::_Iostream_error_category::name
PUBLIC	?message@_Iostream_error_category@std@@UBE?AV?$basic_string@DU?$char_traits@D@std@@V?$allocator@D@2@@2@H@Z ; std::_Iostream_error_category::message
PUBLIC	??1_Iostream_error_category@std@@UAE@XZ		; std::_Iostream_error_category::~_Iostream_error_category
PUBLIC	??_G_Iostream_error_category@std@@UAEPAXI@Z	; std::_Iostream_error_category::`scalar deleting destructor'
PUBLIC	??0_System_error_category@std@@QAE@XZ		; std::_System_error_category::_System_error_category
PUBLIC	?name@_System_error_category@std@@UBEPBDXZ	; std::_System_error_category::name
PUBLIC	?message@_System_error_category@std@@UBE?AV?$basic_string@DU?$char_traits@D@std@@V?$allocator@D@2@@2@H@Z ; std::_System_error_category::message
PUBLIC	?default_error_condition@_System_error_category@std@@UBE?AVerror_condition@2@H@Z ; std::_System_error_category::default_error_condition
PUBLIC	??1_System_error_category@std@@UAE@XZ		; std::_System_error_category::~_System_error_category
PUBLIC	??_G_System_error_category@std@@UAEPAXI@Z	; std::_System_error_category::`scalar deleting destructor'
PUBLIC	?frontSurface@ImageBuffer@@QAEPAUIDirectDrawSurface7@@XZ ; ImageBuffer::frontSurface
PUBLIC	?targetXres@ImageBuffer@@QAEHXZ			; ImageBuffer::targetXres
PUBLIC	?targetYres@ImageBuffer@@QAEHXZ			; ImageBuffer::targetYres
PUBLIC	?targetStride@ImageBuffer@@QAEHXZ		; ImageBuffer::targetStride
PUBLIC	?PixelSize@ImageBuffer@@QAEHXZ			; ImageBuffer::PixelSize
PUBLIC	?IsHardware@DisplayDevice@@QAEHXZ		; DisplayDevice::IsHardware
PUBLIC	?GetDefaultRC@DisplayDevice@@QAEPAVDXContext@@XZ ; DisplayDevice::GetDefaultRC
PUBLIC	?GetFlags@C_Base@@QAEJXZ			; C_Base::GetFlags
PUBLIC	?GetClient@C_Base@@QAEFXZ			; C_Base::GetClient
PUBLIC	?GetX@C_Base@@QAEJXZ				; C_Base::GetX
PUBLIC	?GetY@C_Base@@QAEJXZ				; C_Base::GetY
PUBLIC	?GetCallingControl@C_PopupMgr@@QAEPAVC_Base@@XZ	; C_PopupMgr::GetCallingControl
PUBLIC	??1C_Window@@QAE@XZ				; C_Window::~C_Window
PUBLIC	?SetCritical@C_Window@@QAEXPAUF4CSECTIONHANDLE@@@Z ; C_Window::SetCritical
PUBLIC	?GetDepth@C_Window@@QAEFXZ			; C_Window::GetDepth
PUBLIC	?GetDragH@C_Window@@QAEFXZ			; C_Window::GetDragH
PUBLIC	?GetCursorID@C_Window@@QAEJXZ			; C_Window::GetCursorID
PUBLIC	?GetFlags@C_Window@@QAEJXZ			; C_Window::GetFlags
PUBLIC	?SetHandler@C_Window@@QAEXPAVC_Handler@@@Z	; C_Window::SetHandler
PUBLIC	?GetOwner@C_Window@@QAEPAVC_Base@@XZ		; C_Window::GetOwner
PUBLIC	?GetID@C_Window@@QAEJXZ				; C_Window::GetID
PUBLIC	?SetSection@C_Window@@QAEXJ@Z			; C_Window::SetSection
PUBLIC	?GetX@C_Window@@QAEFXZ				; C_Window::GetX
PUBLIC	?GetY@C_Window@@QAEFXZ				; C_Window::GetY
PUBLIC	?GetW@C_Window@@QAEFXZ				; C_Window::GetW
PUBLIC	?GetH@C_Window@@QAEFXZ				; C_Window::GetH
PUBLIC	?GetType@C_Window@@QAEFXZ			; C_Window::GetType
PUBLIC	?GetSection@C_Window@@QAEJXZ			; C_Window::GetSection
PUBLIC	?GetGroup@C_Window@@QAEJXZ			; C_Window::GetGroup
PUBLIC	?IsMenu@C_Window@@QAEJXZ			; C_Window::IsMenu
PUBLIC	?GetSurface@C_Window@@QAEPAVImageBuffer@@XZ	; C_Window::GetSurface
PUBLIC	??_GC_Window@@QAEPAXI@Z				; C_Window::`scalar deleting destructor'
PUBLIC	?PostTimerMessage@C_Handler@@AAEXXZ		; C_Handler::PostTimerMessage
PUBLIC	?DoControlLoop@C_Handler@@AAEXXZ		; C_Handler::DoControlLoop
PUBLIC	?TimerLoop@C_Handler@@CGIPAX@Z			; C_Handler::TimerLoop
PUBLIC	?OutputLoop@C_Handler@@CGIPAX@Z			; C_Handler::OutputLoop
PUBLIC	?ControlLoop@C_Handler@@CGIPAX@Z		; C_Handler::ControlLoop
PUBLIC	?DoOutputLoop@C_Handler@@AAEXXZ			; C_Handler::DoOutputLoop
PUBLIC	?OldInputMessage@C_Handler@@AAEHXZ		; C_Handler::OldInputMessage
PUBLIC	?HelpOff@C_Handler@@AAEXXZ			; C_Handler::HelpOff
PUBLIC	?CheckHelpText@C_Handler@@AAEXPAVSCREEN@@@Z	; C_Handler::CheckHelpText
PUBLIC	?Fill@C_Handler@@AAEXPAVSCREEN@@KJJJJ@Z		; C_Handler::Fill
PUBLIC	?Fill@C_Handler@@AAEXPAVSCREEN@@KPAUUI95_RECT@@@Z ; C_Handler::Fill
PUBLIC	??0C_Handler@@QAE@XZ				; C_Handler::C_Handler
PUBLIC	??1C_Handler@@QAE@XZ				; C_Handler::~C_Handler
PUBLIC	?EnterCritical@C_Handler@@QAEXXZ		; C_Handler::EnterCritical
PUBLIC	?LeaveCritical@C_Handler@@QAEXXZ		; C_Handler::LeaveCritical
PUBLIC	?Setup@C_Handler@@QAEXPAUHWND__@@PAVImageBuffer@@1@Z ; C_Handler::Setup
PUBLIC	?AddWindow@C_Handler@@QAEHPAVC_Window@@J@Z	; C_Handler::AddWindow
PUBLIC	?StartOutputThread@C_Handler@@QAEXXZ		; C_Handler::StartOutputThread
PUBLIC	?EndOutputThread@C_Handler@@QAEXXZ		; C_Handler::EndOutputThread
PUBLIC	?SuspendOutput@C_Handler@@QAEXXZ		; C_Handler::SuspendOutput
PUBLIC	?ResumeOutput@C_Handler@@QAEXXZ			; C_Handler::ResumeOutput
PUBLIC	?StartControlThread@C_Handler@@QAEXJ@Z		; C_Handler::StartControlThread
PUBLIC	?EndControlThread@C_Handler@@QAEXXZ		; C_Handler::EndControlThread
PUBLIC	?SuspendControl@C_Handler@@QAEXXZ		; C_Handler::SuspendControl
PUBLIC	?ResumeControl@C_Handler@@QAEXXZ		; C_Handler::ResumeControl
PUBLIC	?StartTimerThread@C_Handler@@QAEXJ@Z		; C_Handler::StartTimerThread
PUBLIC	?EndTimerThread@C_Handler@@QAEXXZ		; C_Handler::EndTimerThread
PUBLIC	?SuspendTimer@C_Handler@@QAEXXZ			; C_Handler::SuspendTimer
PUBLIC	?ResumeTimer@C_Handler@@QAEXXZ			; C_Handler::ResumeTimer
PUBLIC	?AddUserCallback@C_Handler@@QAEHP6AXXZ@Z	; C_Handler::AddUserCallback
PUBLIC	?RemoveUserCallback@C_Handler@@QAEHP6AXXZ@Z	; C_Handler::RemoveUserCallback
PUBLIC	?ProcessUserCallbacks@C_Handler@@QAEXXZ		; C_Handler::ProcessUserCallbacks
PUBLIC	?ShowWindow@C_Handler@@QAEHPAVC_Window@@@Z	; C_Handler::ShowWindow
PUBLIC	?HideWindow@C_Handler@@QAEHPAVC_Window@@@Z	; C_Handler::HideWindow
PUBLIC	?RemoveWindow@C_Handler@@QAEHPAVC_Window@@@Z	; C_Handler::RemoveWindow
PUBLIC	?SetBehindWindow@C_Handler@@QAEXPAVC_Window@@@Z	; C_Handler::SetBehindWindow
PUBLIC	?Cleanup@C_Handler@@QAEXXZ			; C_Handler::Cleanup
PUBLIC	?ReleaseControl@C_Handler@@QAEXPAVC_Base@@@Z	; C_Handler::ReleaseControl
PUBLIC	?DisableSection@C_Handler@@QAEXJ@Z		; C_Handler::DisableSection
PUBLIC	?EnableGroup@C_Handler@@QAEXJ@Z			; C_Handler::EnableGroup
PUBLIC	?DisableGroup@C_Handler@@QAEXJ@Z		; C_Handler::DisableGroup
PUBLIC	?EnableWindowGroup@C_Handler@@QAEXJ@Z		; C_Handler::EnableWindowGroup
PUBLIC	?DisableWindowGroup@C_Handler@@QAEXJ@Z		; C_Handler::DisableWindowGroup
PUBLIC	?CheckHotKeys@C_Handler@@QAEHEEEJ@Z		; C_Handler::CheckHotKeys
PUBLIC	?GetW@C_Handler@@QAEJXZ				; C_Handler::GetW
PUBLIC	?GetH@C_Handler@@QAEJXZ				; C_Handler::GetH
PUBLIC	?WindowToFront@C_Handler@@QAEXPAVC_Window@@@Z	; C_Handler::WindowToFront
PUBLIC	?EventHandler@C_Handler@@QAEJPAUHWND__@@IIJ@Z	; C_Handler::EventHandler
PUBLIC	?SetUpdateRect@C_Handler@@QAEXPAUUI95_RECT@@@Z	; C_Handler::SetUpdateRect
PUBLIC	?ClearHiddenRects@C_Handler@@QAEXPAVWHLIST@@@Z	; C_Handler::ClearHiddenRects
PUBLIC	?CheckDrawThrough@C_Handler@@QAEXXZ		; C_Handler::CheckDrawThrough
PUBLIC	?ClearAllHiddenRects@C_Handler@@QAEXXZ		; C_Handler::ClearAllHiddenRects
PUBLIC	?ClipRect@C_Handler@@QAEHPAUUI95_RECT@@00@Z	; C_Handler::ClipRect
PUBLIC	?RefreshAll@C_Handler@@QAEXPAUUI95_RECT@@@Z	; C_Handler::RefreshAll
PUBLIC	?Update@C_Handler@@QAEXXZ			; C_Handler::Update
PUBLIC	?CopyToPrimary@C_Handler@@QAEXXZ		; C_Handler::CopyToPrimary
PUBLIC	?UpdateTimerControls@C_Handler@@QAEXXZ		; C_Handler::UpdateTimerControls
PUBLIC	?CheckTranslucentWindows@C_Handler@@QAEXXZ	; C_Handler::CheckTranslucentWindows
PUBLIC	?PostUpdate@C_Handler@@QAEXXZ			; C_Handler::PostUpdate
PUBLIC	?SendUpdate@C_Handler@@QAEXXZ			; C_Handler::SendUpdate
PUBLIC	?GetWindowFlags@C_Handler@@QAEJJ@Z		; C_Handler::GetWindowFlags
PUBLIC	?GetWindow@C_Handler@@QAEPAVC_Window@@FF@Z	; C_Handler::GetWindow
PUBLIC	?FindWindowA@C_Handler@@QAEPAVC_Window@@J@Z	; C_Handler::FindWindowA
PUBLIC	?_GetFirstWindow@C_Handler@@QAEPAVC_Window@@XZ	; C_Handler::_GetFirstWindow
PUBLIC	?_GetNextWindow@C_Handler@@QAEPAVC_Window@@PAV2@@Z ; C_Handler::_GetNextWindow
PUBLIC	?BlitWindowNow@C_Handler@@QAEXPAVC_Window@@@Z	; C_Handler::BlitWindowNow
PUBLIC	?Lock@C_Handler@@QAEPAXXZ			; C_Handler::Lock
PUBLIC	?Unlock@C_Handler@@QAEXXZ			; C_Handler::Unlock
PUBLIC	?RemovingControl@C_Handler@@QAEXPAVC_Base@@@Z	; C_Handler::RemovingControl
PUBLIC	?DropControl@C_Handler@@QAEXXZ			; C_Handler::DropControl
PUBLIC	?StartDrag@C_Handler@@QAEXXZ			; C_Handler::StartDrag
PUBLIC	?GetDragX@C_Handler@@QAEJG@Z			; C_Handler::GetDragX
PUBLIC	?GetDragY@C_Handler@@QAEJG@Z			; C_Handler::GetDragY
PUBLIC	?Dragging@C_Handler@@QAEHXZ			; C_Handler::Dragging
PUBLIC	?GrabItem@C_Handler@@QAEHGGPAVC_Window@@J@Z	; C_Handler::GrabItem
PUBLIC	?DragItem@C_Handler@@QAEHGGPAVC_Window@@@Z	; C_Handler::DragItem
PUBLIC	?DropItem@C_Handler@@QAEHGGPAVC_Window@@@Z	; C_Handler::DropItem
PUBLIC	??$construct@PADAAPAD@?$_Wrap_alloc@V?$allocator@D@std@@@std@@QAEXPAPADAAPAD@Z ; std::_Wrap_alloc<std::allocator<char> >::construct<char *,char * &>
PUBLIC	??$destroy@PAD@?$_Wrap_alloc@V?$allocator@D@std@@@std@@QAEXPAPAD@Z ; std::_Wrap_alloc<std::allocator<char> >::destroy<char *>
PUBLIC	??$addressof@D@std@@YAPADAAD@Z			; std::addressof<char>
PUBLIC	??$_Allocate@D@std@@YAPADIPAD@Z			; std::_Allocate<char>
PUBLIC	??$forward@AAPAD@std@@YAAAPADAAPAD@Z		; std::forward<char * &>
PUBLIC	??$construct@PADAAPAD@?$allocator_traits@V?$allocator@D@std@@@std@@SAXAAV?$allocator@D@1@PAPADAAPAD@Z ; std::allocator_traits<std::allocator<char> >::construct<char *,char * &>
PUBLIC	??$destroy@PAD@?$allocator_traits@V?$allocator@D@std@@@std@@SAXAAV?$allocator@D@1@PAPAD@Z ; std::allocator_traits<std::allocator<char> >::destroy<char *>
PUBLIC	??$construct@PADAAPAD@?$allocator@D@std@@QAEXPAPADAAPAD@Z ; std::allocator<char>::construct<char *,char * &>
PUBLIC	??$destroy@PAD@?$allocator@D@std@@QAEXPAPAD@Z	; std::allocator<char>::destroy<char *>
PUBLIC	??_7error_category@std@@6B@			; std::error_category::`vftable'
PUBLIC	??_7_Generic_error_category@std@@6B@		; std::_Generic_error_category::`vftable'
PUBLIC	??_C@_07DCLBNMLN@generic?$AA@			; `string'
PUBLIC	??_C@_0O@BFJCFAAK@unknown?5error?$AA@		; `string'
PUBLIC	??_7_Iostream_error_category@std@@6B@		; std::_Iostream_error_category::`vftable'
PUBLIC	??_C@_08LLGCOLLL@iostream?$AA@			; `string'
PUBLIC	??_C@_0BG@PADBLCHM@iostream?5stream?5error?$AA@	; `string'
PUBLIC	??_7_System_error_category@std@@6B@		; std::_System_error_category::`vftable'
PUBLIC	??_C@_06FHFOAHML@system?$AA@			; `string'
PUBLIC	?_Generic_object@?$_Error_objects@H@std@@2V_Generic_error_category@2@A ; std::_Error_objects<int>::_Generic_object
PUBLIC	?_Iostream_object@?$_Error_objects@H@std@@2V_Iostream_error_category@2@A ; std::_Error_objects<int>::_Iostream_object
PUBLIC	?_System_object@?$_Error_objects@H@std@@2V_System_error_category@2@A ; std::_Error_objects<int>::_System_object
PUBLIC	?id@?$num_put@DV?$back_insert_iterator@V?$basic_string@DU?$char_traits@D@std@@V?$allocator@D@2@@std@@@std@@@std@@2V0locale@2@A ; std::num_put<char,std::back_insert_iterator<std::basic_string<char,std::char_traits<char>,std::allocator<char> > > >::id
PUBLIC	?id@?$num_put@_WV?$back_insert_iterator@V?$basic_string@_WU?$char_traits@_W@std@@V?$allocator@_W@2@@std@@@std@@@std@@2V0locale@2@A ; std::num_put<wchar_t,std::back_insert_iterator<std::basic_string<wchar_t,std::char_traits<wchar_t>,std::allocator<wchar_t> > > >::id
PUBLIC	??_C@_0CC@JFLFHALF@Can?8t?5create?5back?5surface?5for?5UI@ ; `string'
PUBLIC	??_C@_0M@HPPDMJIA@UI_Critical?$AA@		; `string'
PUBLIC	??_C@_0BF@JCOLHHNI@Awaken?5Output?5Thread?$AA@	; `string'
PUBLIC	??_C@_0BG@IFALFLLC@Awaken?5Control?5Thread?$AA@	; `string'
PUBLIC	?id@?$numpunct@D@std@@2V0locale@2@A		; std::numpunct<char>::id
PUBLIC	?id@?$numpunct@_W@std@@2V0locale@2@A		; std::numpunct<wchar_t>::id
PUBLIC	??_C@_0BI@CFPLBAOH@invalid?5string?5position?$AA@ ; `string'
PUBLIC	??_C@_0BA@JFNIOLAK@string?5too?5long?$AA@	; `string'
PUBLIC	??_R4error_category@std@@6B@			; std::error_category::`RTTI Complete Object Locator'
PUBLIC	??_R0?AVerror_category@std@@@8			; std::error_category `RTTI Type Descriptor'
PUBLIC	??_R3error_category@std@@8			; std::error_category::`RTTI Class Hierarchy Descriptor'
PUBLIC	??_R2error_category@std@@8			; std::error_category::`RTTI Base Class Array'
PUBLIC	??_R1A@?0A@EA@error_category@std@@8		; std::error_category::`RTTI Base Class Descriptor at (0,-1,0,64)'
PUBLIC	??_R4_Generic_error_category@std@@6B@		; std::_Generic_error_category::`RTTI Complete Object Locator'
PUBLIC	??_R0?AV_Generic_error_category@std@@@8		; std::_Generic_error_category `RTTI Type Descriptor'
PUBLIC	??_R3_Generic_error_category@std@@8		; std::_Generic_error_category::`RTTI Class Hierarchy Descriptor'
PUBLIC	??_R2_Generic_error_category@std@@8		; std::_Generic_error_category::`RTTI Base Class Array'
PUBLIC	??_R1A@?0A@EA@_Generic_error_category@std@@8	; std::_Generic_error_category::`RTTI Base Class Descriptor at (0,-1,0,64)'
PUBLIC	??_R4_Iostream_error_category@std@@6B@		; std::_Iostream_error_category::`RTTI Complete Object Locator'
PUBLIC	??_R0?AV_Iostream_error_category@std@@@8	; std::_Iostream_error_category `RTTI Type Descriptor'
PUBLIC	??_R3_Iostream_error_category@std@@8		; std::_Iostream_error_category::`RTTI Class Hierarchy Descriptor'
PUBLIC	??_R2_Iostream_error_category@std@@8		; std::_Iostream_error_category::`RTTI Base Class Array'
PUBLIC	??_R1A@?0A@EA@_Iostream_error_category@std@@8	; std::_Iostream_error_category::`RTTI Base Class Descriptor at (0,-1,0,64)'
PUBLIC	??_R4_System_error_category@std@@6B@		; std::_System_error_category::`RTTI Complete Object Locator'
PUBLIC	??_R0?AV_System_error_category@std@@@8		; std::_System_error_category `RTTI Type Descriptor'
PUBLIC	??_R3_System_error_category@std@@8		; std::_System_error_category::`RTTI Class Hierarchy Descriptor'
PUBLIC	??_R2_System_error_category@std@@8		; std::_System_error_category::`RTTI Base Class Array'
PUBLIC	??_R1A@?0A@EA@_System_error_category@std@@8	; std::_System_error_category::`RTTI Base Class Descriptor at (0,-1,0,64)'
EXTRN	??_M@YGXPAXIHP6EX0@Z@Z:PROC			; `eh vector destructor iterator'
EXTRN	__purecall:PROC
EXTRN	??2@YAPAXI@Z:PROC				; operator new
EXTRN	??3@YAXPAX@Z:PROC				; operator delete
EXTRN	_atexit:PROC
EXTRN	_memcpy:PROC
EXTRN	_memset:PROC
EXTRN	_strlen:PROC
EXTRN	_memmove:PROC
EXTRN	__imp__CloseHandle@4:PROC
EXTRN	__imp__SetEvent@4:PROC
EXTRN	__imp__WaitForSingleObject@8:PROC
EXTRN	__imp__CreateEventA@16:PROC
EXTRN	__imp__Sleep@4:PROC
EXTRN	__imp__SuspendThread@4:PROC
EXTRN	__imp__ResumeThread@4:PROC
EXTRN	__imp__GetTickCount@0:PROC
EXTRN	__imp__GetMessageTime@0:PROC
EXTRN	__imp__PostMessageA@16:PROC
EXTRN	__imp__GetDoubleClickTime@0:PROC
EXTRN	__imp__GetKeyState@4:PROC
EXTRN	__imp__GetAsyncKeyState@4:PROC
EXTRN	__imp__GetSystemMetrics@4:PROC
EXTRN	__imp__GetUpdateRect@12:PROC
EXTRN	__imp__InvalidateRect@12:PROC
EXTRN	__imp__ValidateRect@8:PROC
EXTRN	__imp__GetClientRect@8:PROC
EXTRN	__imp__SetCursor@4:PROC
EXTRN	__imp__ClientToScreen@8:PROC
EXTRN	__imp__ScreenToClient@8:PROC
EXTRN	__imp__SetRect@20:PROC
EXTRN	??_V@YAXPAX@Z:PROC				; operator delete[]
EXTRN	__imp__SysFreeString@4:PROC
EXTRN	__beginthreadex:PROC
EXTRN	__endthreadex:PROC
EXTRN	__controlfp:PROC
EXTRN	?_Xbad_alloc@std@@YAXXZ:PROC			; std::_Xbad_alloc
EXTRN	?_Xlength_error@std@@YAXPBD@Z:PROC		; std::_Xlength_error
EXTRN	?_Xout_of_range@std@@YAXPBD@Z:PROC		; std::_Xout_of_range
EXTRN	??_Eerror_category@std@@UAEPAXI@Z:PROC		; std::error_category::`vector deleting destructor'
EXTRN	?_Syserror_map@std@@YAPBDH@Z:PROC		; std::_Syserror_map
EXTRN	?_Winerror_map@std@@YAPBDH@Z:PROC		; std::_Winerror_map
EXTRN	??_E_Generic_error_category@std@@UAEPAXI@Z:PROC	; std::_Generic_error_category::`vector deleting destructor'
EXTRN	??_E_Iostream_error_category@std@@UAEPAXI@Z:PROC ; std::_Iostream_error_category::`vector deleting destructor'
EXTRN	??_E_System_error_category@std@@UAEPAXI@Z:PROC	; std::_System_error_category::`vector deleting destructor'
EXTRN	?TestCooperativeLevel@DXContext@@QAEKXZ:PROC	; DXContext::TestCooperativeLevel
EXTRN	??0ImageBuffer@@QAE@XZ:PROC			; ImageBuffer::ImageBuffer
EXTRN	?Setup@ImageBuffer@@QAEHPAVDisplayDevice@@HHW4MPRSurfaceType@@1PAUHWND__@@HHH@Z:PROC ; ImageBuffer::Setup
EXTRN	?Cleanup@ImageBuffer@@QAEXXZ:PROC		; ImageBuffer::Cleanup
EXTRN	?UpdateFrontWindowRect@ImageBuffer@@QAEXPAUtagRECT@@@Z:PROC ; ImageBuffer::UpdateFrontWindowRect
EXTRN	?RestoreAll@ImageBuffer@@QAEXXZ:PROC		; ImageBuffer::RestoreAll
EXTRN	?Lock@ImageBuffer@@QAEPAX_N0@Z:PROC		; ImageBuffer::Lock
EXTRN	?Unlock@ImageBuffer@@QAEXXZ:PROC		; ImageBuffer::Unlock
EXTRN	?Compose@ImageBuffer@@QAEXPAV1@PAUtagRECT@@1@Z:PROC ; ImageBuffer::Compose
EXTRN	_F4CreateCriticalSection:PROC
EXTRN	_F4DestroyCriticalSection:PROC
EXTRN	_F4EnterCriticalSection:PROC
EXTRN	_F4LeaveCriticalSection:PROC
EXTRN	?UI95_RGB24Bit@@YAGK@Z:PROC			; UI95_RGB24Bit
EXTRN	?F4IsBadReadPtr@@YA_NPBXI@Z:PROC		; F4IsBadReadPtr
EXTRN	?Width@C_Fontmgr@@QAEJPAD@Z:PROC		; C_Fontmgr::Width
EXTRN	?Height@C_Fontmgr@@QAEJXZ:PROC			; C_Fontmgr::Height
EXTRN	?Draw@C_Fontmgr@@QAEXPAVSCREEN@@PADGJJ@Z:PROC	; C_Fontmgr::Draw
EXTRN	?Find@C_Font@@QAEPAVC_Fontmgr@@J@Z:PROC		; C_Font::Find
EXTRN	?GetString@C_String@@QAEPADJ@Z:PROC		; C_String::GetString
EXTRN	?OpenWindowMenu@C_PopupMgr@@QAEHPAVC_Window@@JJ@Z:PROC ; C_PopupMgr::OpenWindowMenu
EXTRN	?OpenMenu@C_PopupMgr@@QAEHJJJPAVC_Base@@@Z:PROC	; C_PopupMgr::OpenMenu
EXTRN	?AMenuOpened@C_PopupMgr@@QAEHXZ:PROC		; C_PopupMgr::AMenuOpened
EXTRN	?CloseMenu@C_PopupMgr@@QAEXXZ:PROC		; C_PopupMgr::CloseMenu
EXTRN	?DeactivateControl@C_Window@@QAEXXZ:PROC	; C_Window::DeactivateControl
EXTRN	?Activate@C_Window@@QAEXXZ:PROC			; C_Window::Activate
EXTRN	?Deactivate@C_Window@@QAEXXZ:PROC		; C_Window::Deactivate
EXTRN	?CheckKeyboard@C_Window@@QAEHEEEJ@Z:PROC	; C_Window::CheckKeyboard
EXTRN	?CheckHotKeys@C_Window@@QAEHEEEJ@Z:PROC		; C_Window::CheckHotKeys
EXTRN	?SetControl@C_Window@@QAEXJ@Z:PROC		; C_Window::SetControl
EXTRN	?Cleanup@C_Window@@QAEXXZ:PROC			; C_Window::Cleanup
EXTRN	?SetUpdateRect@C_Window@@QAEXJJJJJJ@Z:PROC	; C_Window::SetUpdateRect
EXTRN	?ClearUpdateRect@C_Window@@QAEXJJJJ@Z:PROC	; C_Window::ClearUpdateRect
EXTRN	?EnableGroup@C_Window@@QAEXJ@Z:PROC		; C_Window::EnableGroup
EXTRN	?DisableGroup@C_Window@@QAEXJ@Z:PROC		; C_Window::DisableGroup
EXTRN	?RefreshWindow@C_Window@@QAEXXZ:PROC		; C_Window::RefreshWindow
EXTRN	?DrawWindow@C_Window@@QAEXPAVSCREEN@@@Z:PROC	; C_Window::DrawWindow
EXTRN	?UpdateTimerControls@C_Window@@QAEHXZ:PROC	; C_Window::UpdateTimerControls
EXTRN	?DrawTimerControls@C_Window@@QAEXXZ:PROC	; C_Window::DrawTimerControls
EXTRN	?GetControl@C_Window@@QAEPAVC_Base@@PAJJJ@Z:PROC ; C_Window::GetControl
EXTRN	?MouseOver@C_Window@@QAEPAVC_Base@@JJPAV2@@Z:PROC ; C_Window::MouseOver
EXTRN	?Drag@C_Window@@QAEHPAUGRABBER@@GGPAV1@@Z:PROC	; C_Window::Drag
EXTRN	?Drop@C_Window@@QAEHPAUGRABBER@@GGPAV1@@Z:PROC	; C_Window::Drop
EXTRN	?ConstraintsCorrection@C_Window@@QAEXJJ@Z:PROC	; C_Window::ConstraintsCorrection
EXTRN	_MonoPrint:PROC
EXTRN	?RestoreAll@TextureBankClass@@SAXXZ:PROC	; TextureBankClass::RestoreAll
EXTRN	?RestoreAll@TextureDB@@QAEXXZ:PROC		; TextureDB::RestoreAll
EXTRN	?RestoreAll@FarTexDB@@QAEXXZ:PROC		; FarTexDB::RestoreAll
EXTRN	?SaveScreenShot@@YAXXZ:PROC			; SaveScreenShot
EXTRN	?Transmit@@YAXH@Z:PROC				; Transmit
EXTRN	?RGB8toRGB565@@YAGK@Z:PROC			; RGB8toRGB565
EXTRN	?RGB565toRGB8@@YAKG@Z:PROC			; RGB565toRGB8
EXTRN	@__security_check_cookie@4:PROC
EXTRN	__CxxThrowException@8:PROC
EXTRN	___CxxFrameHandler3:PROC
EXTRN	??_7type_info@@6B@:QWORD			; type_info::`vftable'
EXTRN	?FalconDisplay@@3VFalconDisplayConfiguration@@A:BYTE ; FalconDisplay
EXTRN	?gFontList@@3PAVC_Font@@A:DWORD			; gFontList
EXTRN	?gStringMgr@@3PAVC_String@@A:DWORD		; gStringMgr
EXTRN	?gPopupMgr@@3PAVC_PopupMgr@@A:DWORD		; gPopupMgr
EXTRN	?gCursors@@3PAPAUHICON__@@A:BYTE		; gCursors
EXTRN	?Key_Chart@@3PAUASCII_TABLE@@A:BYTE		; Key_Chart
EXTRN	?TheTerrTextures@@3VTextureDB@@A:BYTE		; TheTerrTextures
EXTRN	?TheFarTextures@@3VFarTexDB@@A:BYTE		; TheFarTextures
EXTRN	?g_bCheckBltStatusBeforeFlip@@3_NA:BYTE		; g_bCheckBltStatusBeforeFlip
EXTRN	?g_bHiResUI@@3_NA:BYTE				; g_bHiResUI
EXTRN	?gameCompressionRatio@@3HA:DWORD		; gameCompressionRatio
EXTRN	?g_nMaxUIRefresh@@3HA:DWORD			; g_nMaxUIRefresh
EXTRN	?gMainHandler@@3PAVC_Handler@@A:DWORD		; gMainHandler
EXTRN	___security_cookie:DWORD
_BSS	SEGMENT
_piecewise_construct DB 01H DUP (?)
	ALIGN	4

_allocator_arg DB 01H DUP (?)
_BSS	ENDS
;	COMDAT ?_Generic_object@?$_Error_objects@H@std@@2V_Generic_error_category@2@A
_BSS	SEGMENT
?_Generic_object@?$_Error_objects@H@std@@2V_Generic_error_category@2@A DD 01H DUP (?) ; std::_Error_objects<int>::_Generic_object
_BSS	ENDS
;	COMDAT ?_Iostream_object@?$_Error_objects@H@std@@2V_Iostream_error_category@2@A
_BSS	SEGMENT
?_Iostream_object@?$_Error_objects@H@std@@2V_Iostream_error_category@2@A DD 01H DUP (?) ; std::_Error_objects<int>::_Iostream_object
_BSS	ENDS
;	COMDAT ?_System_object@?$_Error_objects@H@std@@2V_System_error_category@2@A
_BSS	SEGMENT
?_System_object@?$_Error_objects@H@std@@2V_System_error_category@2@A DD 01H DUP (?) ; std::_Error_objects<int>::_System_object
_BSS	ENDS
;	COMDAT ?id@?$num_put@DV?$back_insert_iterator@V?$basic_string@DU?$char_traits@D@std@@V?$allocator@D@2@@std@@@std@@@std@@2V0locale@2@A
_BSS	SEGMENT
?id@?$num_put@DV?$back_insert_iterator@V?$basic_string@DU?$char_traits@D@std@@V?$allocator@D@2@@std@@@std@@@std@@2V0locale@2@A DD 01H DUP (?) ; std::num_put<char,std::back_insert_iterator<std::basic_string<char,std::char_traits<char>,std::allocator<char> > > >::id
_BSS	ENDS
;	COMDAT ?id@?$num_put@_WV?$back_insert_iterator@V?$basic_string@_WU?$char_traits@_W@std@@V?$allocator@_W@2@@std@@@std@@@std@@2V0locale@2@A
_BSS	SEGMENT
?id@?$num_put@_WV?$back_insert_iterator@V?$basic_string@_WU?$char_traits@_W@std@@V?$allocator@_W@2@@std@@@std@@@std@@2V0locale@2@A DD 01H DUP (?) ; std::num_put<wchar_t,std::back_insert_iterator<std::basic_string<wchar_t,std::char_traits<wchar_t>,std::allocator<wchar_t> > > >::id
_BSS	ENDS
_BSS	SEGMENT
	ALIGN	4

_m_pMouseImage DD 01H DUP (?)
_BSS	ENDS
;	COMDAT ?InTimer@?1??EventHandler@C_Handler@@QAEJPAUHWND__@@IIJ@Z@4HA
_BSS	SEGMENT
?InTimer@?1??EventHandler@C_Handler@@QAEJPAUHWND__@@IIJ@Z@4HA DD 01H DUP (?) ; `C_Handler::EventHandler'::`2'::InTimer
_BSS	ENDS
;	COMDAT ?id@?$numpunct@D@std@@2V0locale@2@A
_BSS	SEGMENT
?id@?$numpunct@D@std@@2V0locale@2@A DD 01H DUP (?)	; std::numpunct<char>::id
_BSS	ENDS
;	COMDAT ?id@?$numpunct@_W@std@@2V0locale@2@A
_BSS	SEGMENT
?id@?$numpunct@_W@std@@2V0locale@2@A DD 01H DUP (?)	; std::numpunct<wchar_t>::id
_BSS	ENDS
CRT$XCU	SEGMENT
_piecewise_construct$initializer$ DD FLAT:??__Epiecewise_construct@std@@YAXXZ
CRT$XCU	ENDS
;	COMDAT ??_R1A@?0A@EA@_System_error_category@std@@8
rdata$r	SEGMENT
??_R1A@?0A@EA@_System_error_category@std@@8 DD FLAT:??_R0?AV_System_error_category@std@@@8 ; std::_System_error_category::`RTTI Base Class Descriptor at (0,-1,0,64)'
	DD	02H
	DD	00H
	DD	0ffffffffH
	DD	00H
	DD	040H
	DD	FLAT:??_R3_System_error_category@std@@8
rdata$r	ENDS
;	COMDAT ??_R2_System_error_category@std@@8
rdata$r	SEGMENT
??_R2_System_error_category@std@@8 DD FLAT:??_R1A@?0A@EA@_System_error_category@std@@8 ; std::_System_error_category::`RTTI Base Class Array'
	DD	FLAT:??_R1A@?0A@EA@_Generic_error_category@std@@8
	DD	FLAT:??_R1A@?0A@EA@error_category@std@@8
rdata$r	ENDS
;	COMDAT ??_R3_System_error_category@std@@8
rdata$r	SEGMENT
??_R3_System_error_category@std@@8 DD 00H		; std::_System_error_category::`RTTI Class Hierarchy Descriptor'
	DD	00H
	DD	03H
	DD	FLAT:??_R2_System_error_category@std@@8
rdata$r	ENDS
;	COMDAT ??_R0?AV_System_error_category@std@@@8
_DATA	SEGMENT
??_R0?AV_System_error_category@std@@@8 DD FLAT:??_7type_info@@6B@ ; std::_System_error_category `RTTI Type Descriptor'
	DD	00H
	DB	'.?AV_System_error_category@std@@', 00H
_DATA	ENDS
;	COMDAT ??_R4_System_error_category@std@@6B@
rdata$r	SEGMENT
??_R4_System_error_category@std@@6B@ DD 00H		; std::_System_error_category::`RTTI Complete Object Locator'
	DD	00H
	DD	00H
	DD	FLAT:??_R0?AV_System_error_category@std@@@8
	DD	FLAT:??_R3_System_error_category@std@@8
rdata$r	ENDS
;	COMDAT ??_R1A@?0A@EA@_Iostream_error_category@std@@8
rdata$r	SEGMENT
??_R1A@?0A@EA@_Iostream_error_category@std@@8 DD FLAT:??_R0?AV_Iostream_error_category@std@@@8 ; std::_Iostream_error_category::`RTTI Base Class Descriptor at (0,-1,0,64)'
	DD	02H
	DD	00H
	DD	0ffffffffH
	DD	00H
	DD	040H
	DD	FLAT:??_R3_Iostream_error_category@std@@8
rdata$r	ENDS
;	COMDAT ??_R2_Iostream_error_category@std@@8
rdata$r	SEGMENT
??_R2_Iostream_error_category@std@@8 DD FLAT:??_R1A@?0A@EA@_Iostream_error_category@std@@8 ; std::_Iostream_error_category::`RTTI Base Class Array'
	DD	FLAT:??_R1A@?0A@EA@_Generic_error_category@std@@8
	DD	FLAT:??_R1A@?0A@EA@error_category@std@@8
rdata$r	ENDS
;	COMDAT ??_R3_Iostream_error_category@std@@8
rdata$r	SEGMENT
??_R3_Iostream_error_category@std@@8 DD 00H		; std::_Iostream_error_category::`RTTI Class Hierarchy Descriptor'
	DD	00H
	DD	03H
	DD	FLAT:??_R2_Iostream_error_category@std@@8
rdata$r	ENDS
;	COMDAT ??_R0?AV_Iostream_error_category@std@@@8
_DATA	SEGMENT
??_R0?AV_Iostream_error_category@std@@@8 DD FLAT:??_7type_info@@6B@ ; std::_Iostream_error_category `RTTI Type Descriptor'
	DD	00H
	DB	'.?AV_Iostream_error_category@std@@', 00H
_DATA	ENDS
;	COMDAT ??_R4_Iostream_error_category@std@@6B@
rdata$r	SEGMENT
??_R4_Iostream_error_category@std@@6B@ DD 00H		; std::_Iostream_error_category::`RTTI Complete Object Locator'
	DD	00H
	DD	00H
	DD	FLAT:??_R0?AV_Iostream_error_category@std@@@8
	DD	FLAT:??_R3_Iostream_error_category@std@@8
rdata$r	ENDS
;	COMDAT ??_R1A@?0A@EA@_Generic_error_category@std@@8
rdata$r	SEGMENT
??_R1A@?0A@EA@_Generic_error_category@std@@8 DD FLAT:??_R0?AV_Generic_error_category@std@@@8 ; std::_Generic_error_category::`RTTI Base Class Descriptor at (0,-1,0,64)'
	DD	01H
	DD	00H
	DD	0ffffffffH
	DD	00H
	DD	040H
	DD	FLAT:??_R3_Generic_error_category@std@@8
rdata$r	ENDS
;	COMDAT ??_R2_Generic_error_category@std@@8
rdata$r	SEGMENT
??_R2_Generic_error_category@std@@8 DD FLAT:??_R1A@?0A@EA@_Generic_error_category@std@@8 ; std::_Generic_error_category::`RTTI Base Class Array'
	DD	FLAT:??_R1A@?0A@EA@error_category@std@@8
rdata$r	ENDS
;	COMDAT ??_R3_Generic_error_category@std@@8
rdata$r	SEGMENT
??_R3_Generic_error_category@std@@8 DD 00H		; std::_Generic_error_category::`RTTI Class Hierarchy Descriptor'
	DD	00H
	DD	02H
	DD	FLAT:??_R2_Generic_error_category@std@@8
rdata$r	ENDS
;	COMDAT ??_R0?AV_Generic_error_category@std@@@8
_DATA	SEGMENT
??_R0?AV_Generic_error_category@std@@@8 DD FLAT:??_7type_info@@6B@ ; std::_Generic_error_category `RTTI Type Descriptor'
	DD	00H
	DB	'.?AV_Generic_error_category@std@@', 00H
_DATA	ENDS
;	COMDAT ??_R4_Generic_error_category@std@@6B@
rdata$r	SEGMENT
??_R4_Generic_error_category@std@@6B@ DD 00H		; std::_Generic_error_category::`RTTI Complete Object Locator'
	DD	00H
	DD	00H
	DD	FLAT:??_R0?AV_Generic_error_category@std@@@8
	DD	FLAT:??_R3_Generic_error_category@std@@8
rdata$r	ENDS
;	COMDAT ??_R1A@?0A@EA@error_category@std@@8
rdata$r	SEGMENT
??_R1A@?0A@EA@error_category@std@@8 DD FLAT:??_R0?AVerror_category@std@@@8 ; std::error_category::`RTTI Base Class Descriptor at (0,-1,0,64)'
	DD	00H
	DD	00H
	DD	0ffffffffH
	DD	00H
	DD	040H
	DD	FLAT:??_R3error_category@std@@8
rdata$r	ENDS
;	COMDAT ??_R2error_category@std@@8
rdata$r	SEGMENT
??_R2error_category@std@@8 DD FLAT:??_R1A@?0A@EA@error_category@std@@8 ; std::error_category::`RTTI Base Class Array'
rdata$r	ENDS
;	COMDAT ??_R3error_category@std@@8
rdata$r	SEGMENT
??_R3error_category@std@@8 DD 00H			; std::error_category::`RTTI Class Hierarchy Descriptor'
	DD	00H
	DD	01H
	DD	FLAT:??_R2error_category@std@@8
rdata$r	ENDS
;	COMDAT ??_R0?AVerror_category@std@@@8
_DATA	SEGMENT
??_R0?AVerror_category@std@@@8 DD FLAT:??_7type_info@@6B@ ; std::error_category `RTTI Type Descriptor'
	DD	00H
	DB	'.?AVerror_category@std@@', 00H
_DATA	ENDS
;	COMDAT ??_R4error_category@std@@6B@
rdata$r	SEGMENT
??_R4error_category@std@@6B@ DD 00H			; std::error_category::`RTTI Complete Object Locator'
	DD	00H
	DD	00H
	DD	FLAT:??_R0?AVerror_category@std@@@8
	DD	FLAT:??_R3error_category@std@@8
rdata$r	ENDS
;	COMDAT ??_C@_0BA@JFNIOLAK@string?5too?5long?$AA@
CONST	SEGMENT
??_C@_0BA@JFNIOLAK@string?5too?5long?$AA@ DB 'string too long', 00H ; `string'
CONST	ENDS
;	COMDAT ??_C@_0BI@CFPLBAOH@invalid?5string?5position?$AA@
CONST	SEGMENT
??_C@_0BI@CFPLBAOH@invalid?5string?5position?$AA@ DB 'invalid string posi'
	DB	'tion', 00H					; `string'
CONST	ENDS
;	COMDAT ??_C@_0BG@IFALFLLC@Awaken?5Control?5Thread?$AA@
CONST	SEGMENT
??_C@_0BG@IFALFLLC@Awaken?5Control?5Thread?$AA@ DB 'Awaken Control Thread'
	DB	00H						; `string'
CONST	ENDS
;	COMDAT ??_C@_0BF@JCOLHHNI@Awaken?5Output?5Thread?$AA@
CONST	SEGMENT
??_C@_0BF@JCOLHHNI@Awaken?5Output?5Thread?$AA@ DB 'Awaken Output Thread', 00H ; `string'
CONST	ENDS
;	COMDAT ??_C@_0M@HPPDMJIA@UI_Critical?$AA@
CONST	SEGMENT
??_C@_0M@HPPDMJIA@UI_Critical?$AA@ DB 'UI_Critical', 00H ; `string'
CONST	ENDS
;	COMDAT ??_C@_0CC@JFLFHALF@Can?8t?5create?5back?5surface?5for?5UI@
CONST	SEGMENT
??_C@_0CC@JFLFHALF@Can?8t?5create?5back?5surface?5for?5UI@ DB 'Can''t cre'
	DB	'ate back surface for UI', 0aH, 00H		; `string'
CONST	ENDS
;	COMDAT ??_C@_06FHFOAHML@system?$AA@
CONST	SEGMENT
??_C@_06FHFOAHML@system?$AA@ DB 'system', 00H		; `string'
CONST	ENDS
;	COMDAT ??_7_System_error_category@std@@6B@
CONST	SEGMENT
??_7_System_error_category@std@@6B@ DD FLAT:??_R4_System_error_category@std@@6B@ ; std::_System_error_category::`vftable'
	DD	FLAT:??_E_System_error_category@std@@UAEPAXI@Z
	DD	FLAT:?name@_System_error_category@std@@UBEPBDXZ
	DD	FLAT:?message@_System_error_category@std@@UBE?AV?$basic_string@DU?$char_traits@D@std@@V?$allocator@D@2@@2@H@Z
	DD	FLAT:?default_error_condition@_System_error_category@std@@UBE?AVerror_condition@2@H@Z
	DD	FLAT:?equivalent@error_category@std@@UBE_NABVerror_code@2@H@Z
	DD	FLAT:?equivalent@error_category@std@@UBE_NHABVerror_condition@2@@Z
CONST	ENDS
;	COMDAT ??_C@_0BG@PADBLCHM@iostream?5stream?5error?$AA@
CONST	SEGMENT
??_C@_0BG@PADBLCHM@iostream?5stream?5error?$AA@ DB 'iostream stream error'
	DB	00H						; `string'
CONST	ENDS
;	COMDAT ??_C@_08LLGCOLLL@iostream?$AA@
CONST	SEGMENT
??_C@_08LLGCOLLL@iostream?$AA@ DB 'iostream', 00H	; `string'
CONST	ENDS
;	COMDAT ??_7_Iostream_error_category@std@@6B@
CONST	SEGMENT
??_7_Iostream_error_category@std@@6B@ DD FLAT:??_R4_Iostream_error_category@std@@6B@ ; std::_Iostream_error_category::`vftable'
	DD	FLAT:??_E_Iostream_error_category@std@@UAEPAXI@Z
	DD	FLAT:?name@_Iostream_error_category@std@@UBEPBDXZ
	DD	FLAT:?message@_Iostream_error_category@std@@UBE?AV?$basic_string@DU?$char_traits@D@std@@V?$allocator@D@2@@2@H@Z
	DD	FLAT:?default_error_condition@error_category@std@@UBE?AVerror_condition@2@H@Z
	DD	FLAT:?equivalent@error_category@std@@UBE_NABVerror_code@2@H@Z
	DD	FLAT:?equivalent@error_category@std@@UBE_NHABVerror_condition@2@@Z
CONST	ENDS
;	COMDAT ??_C@_0O@BFJCFAAK@unknown?5error?$AA@
CONST	SEGMENT
??_C@_0O@BFJCFAAK@unknown?5error?$AA@ DB 'unknown error', 00H ; `string'
CONST	ENDS
;	COMDAT ??_C@_07DCLBNMLN@generic?$AA@
CONST	SEGMENT
??_C@_07DCLBNMLN@generic?$AA@ DB 'generic', 00H		; `string'
CONST	ENDS
;	COMDAT ??_7_Generic_error_category@std@@6B@
CONST	SEGMENT
??_7_Generic_error_category@std@@6B@ DD FLAT:??_R4_Generic_error_category@std@@6B@ ; std::_Generic_error_category::`vftable'
	DD	FLAT:??_E_Generic_error_category@std@@UAEPAXI@Z
	DD	FLAT:?name@_Generic_error_category@std@@UBEPBDXZ
	DD	FLAT:?message@_Generic_error_category@std@@UBE?AV?$basic_string@DU?$char_traits@D@std@@V?$allocator@D@2@@2@H@Z
	DD	FLAT:?default_error_condition@error_category@std@@UBE?AVerror_condition@2@H@Z
	DD	FLAT:?equivalent@error_category@std@@UBE_NABVerror_code@2@H@Z
	DD	FLAT:?equivalent@error_category@std@@UBE_NHABVerror_condition@2@@Z
CONST	ENDS
;	COMDAT ??_7error_category@std@@6B@
CONST	SEGMENT
??_7error_category@std@@6B@ DD FLAT:??_R4error_category@std@@6B@ ; std::error_category::`vftable'
	DD	FLAT:??_Eerror_category@std@@UAEPAXI@Z
	DD	FLAT:__purecall
	DD	FLAT:__purecall
	DD	FLAT:?default_error_condition@error_category@std@@UBE?AVerror_condition@2@H@Z
	DD	FLAT:?equivalent@error_category@std@@UBE_NABVerror_code@2@H@Z
	DD	FLAT:?equivalent@error_category@std@@UBE_NHABVerror_condition@2@@Z
CONST	ENDS
;	COMDAT xdata$x
xdata$x	SEGMENT
__unwindtable$??$construct@PADAAPAD@?$allocator@D@std@@QAEXPAPADAAPAD@Z DD 0ffffffffH
	DD	FLAT:__unwindfunclet$??$construct@PADAAPAD@?$allocator@D@std@@QAEXPAPADAAPAD@Z$0
__ehfuncinfo$??$construct@PADAAPAD@?$allocator@D@std@@QAEXPAPADAAPAD@Z DD 019930522H
	DD	01H
	DD	FLAT:__unwindtable$??$construct@PADAAPAD@?$allocator@D@std@@QAEXPAPADAAPAD@Z
	DD	2 DUP(00H)
	DD	2 DUP(00H)
	DD	00H
	DD	01H
xdata$x	ENDS
xdata$x	SEGMENT
__unwindtable$?Setup@C_Handler@@QAEXPAUHWND__@@PAVImageBuffer@@1@Z DD 0ffffffffH
	DD	FLAT:__unwindfunclet$?Setup@C_Handler@@QAEXPAUHWND__@@PAVImageBuffer@@1@Z$0
	DD	0ffffffffH
	DD	FLAT:__unwindfunclet$?Setup@C_Handler@@QAEXPAUHWND__@@PAVImageBuffer@@1@Z$1
__ehfuncinfo$?Setup@C_Handler@@QAEXPAUHWND__@@PAVImageBuffer@@1@Z DD 019930522H
	DD	02H
	DD	FLAT:__unwindtable$?Setup@C_Handler@@QAEXPAUHWND__@@PAVImageBuffer@@1@Z
	DD	2 DUP(00H)
	DD	2 DUP(00H)
	DD	00H
	DD	01H
xdata$x	ENDS
;	COMDAT xdata$x
xdata$x	SEGMENT
__catchsym$?_Copy@?$basic_string@DU?$char_traits@D@std@@V?$allocator@D@2@@std@@QAEXII@Z$5 DD 040H
	DD	00H
	DD	00H
	DD	FLAT:__catch$?_Copy@?$basic_string@DU?$char_traits@D@std@@V?$allocator@D@2@@std@@QAEXII@Z$0
__catchsym$?_Copy@?$basic_string@DU?$char_traits@D@std@@V?$allocator@D@2@@std@@QAEXII@Z$4 DD 040H
	DD	00H
	DD	00H
	DD	FLAT:__catch$?_Copy@?$basic_string@DU?$char_traits@D@std@@V?$allocator@D@2@@std@@QAEXII@Z$1
__unwindtable$?_Copy@?$basic_string@DU?$char_traits@D@std@@V?$allocator@D@2@@std@@QAEXII@Z DD 0ffffffffH
	DD	00H
	DD	0ffffffffH
	DD	00H
	DD	01H
	DD	00H
	DD	01H
	DD	00H
__ehfuncinfo$?_Copy@?$basic_string@DU?$char_traits@D@std@@V?$allocator@D@2@@std@@QAEXII@Z DD 019930522H
	DD	04H
	DD	FLAT:__unwindtable$?_Copy@?$basic_string@DU?$char_traits@D@std@@V?$allocator@D@2@@std@@QAEXII@Z
	DD	02H
	DD	FLAT:__tryblocktable$?_Copy@?$basic_string@DU?$char_traits@D@std@@V?$allocator@D@2@@std@@QAEXII@Z
	DD	2 DUP(00H)
	DD	00H
	DD	01H
__tryblocktable$?_Copy@?$basic_string@DU?$char_traits@D@std@@V?$allocator@D@2@@std@@QAEXII@Z DD 02H
	DD	02H
	DD	03H
	DD	01H
	DD	FLAT:__catchsym$?_Copy@?$basic_string@DU?$char_traits@D@std@@V?$allocator@D@2@@std@@QAEXII@Z$4
	DD	00H
	DD	00H
	DD	03H
	DD	01H
	DD	FLAT:__catchsym$?_Copy@?$basic_string@DU?$char_traits@D@std@@V?$allocator@D@2@@std@@QAEXII@Z$5
xdata$x	ENDS
CRT$XCU	SEGMENT
_allocator_arg$initializer$ DD FLAT:??__Eallocator_arg@std@@YAXXZ
CRT$XCU	ENDS
;	COMDAT CRT$XCU
CRT$XCU	SEGMENT
?_Generic_object$initializer$@?$_Error_objects@H@std@@2P6AXXZA DD FLAT:??__E?_Generic_object@?$_Error_objects@H@std@@2V_Generic_error_category@2@A@@YAXXZ ; std::_Error_objects<int>::_Generic_object$initializer$
CRT$XCU	ENDS
;	COMDAT CRT$XCU
CRT$XCU	SEGMENT
?_Iostream_object$initializer$@?$_Error_objects@H@std@@2P6AXXZA DD FLAT:??__E?_Iostream_object@?$_Error_objects@H@std@@2V_Iostream_error_category@2@A@@YAXXZ ; std::_Error_objects<int>::_Iostream_object$initializer$
CRT$XCU	ENDS
;	COMDAT CRT$XCU
CRT$XCU	SEGMENT
?_System_object$initializer$@?$_Error_objects@H@std@@2P6AXXZA DD FLAT:??__E?_System_object@?$_Error_objects@H@std@@2V_System_error_category@2@A@@YAXXZ ; std::_Error_objects<int>::_System_object$initializer$
CRT$XCU	ENDS
;	COMDAT CRT$XCU
CRT$XCU	SEGMENT
?id$initializer$@?$num_put@DV?$back_insert_iterator@V?$basic_string@DU?$char_traits@D@std@@V?$allocator@D@2@@std@@@std@@@std@@2P6AXXZA DD FLAT:??__E?id@?$num_put@DV?$back_insert_iterator@V?$basic_string@DU?$char_traits@D@std@@V?$allocator@D@2@@std@@@std@@@std@@2V0locale@2@A@@YAXXZ ; std::num_put<char,std::back_insert_iterator<std::basic_string<char,std::char_traits<char>,std::allocator<char> > > >::id$initializer$
CRT$XCU	ENDS
;	COMDAT CRT$XCU
CRT$XCU	SEGMENT
?id$initializer$@?$num_put@_WV?$back_insert_iterator@V?$basic_string@_WU?$char_traits@_W@std@@V?$allocator@_W@2@@std@@@std@@@std@@2P6AXXZA DD FLAT:??__E?id@?$num_put@_WV?$back_insert_iterator@V?$basic_string@_WU?$char_traits@_W@std@@V?$allocator@_W@2@@std@@@std@@@std@@2V0locale@2@A@@YAXXZ ; std::num_put<wchar_t,std::back_insert_iterator<std::basic_string<wchar_t,std::char_traits<wchar_t>,std::allocator<wchar_t> > > >::id$initializer$
CRT$XCU	ENDS
;	COMDAT CRT$XCU
CRT$XCU	SEGMENT
?id$initializer$@?$numpunct@D@std@@2P6AXXZA DD FLAT:??__E?id@?$numpunct@D@std@@2V0locale@2@A@@YAXXZ ; std::numpunct<char>::id$initializer$
CRT$XCU	ENDS
;	COMDAT CRT$XCU
CRT$XCU	SEGMENT
?id$initializer$@?$numpunct@_W@std@@2P6AXXZA DD FLAT:??__E?id@?$numpunct@_W@std@@2V0locale@2@A@@YAXXZ ; std::numpunct<wchar_t>::id$initializer$
CRT$XCU	ENDS
; Function compile flags: /Odtp
; File c:\program files (x86)\microsoft visual studio 11.0\vc\include\xmemory0
;	COMDAT ??$destroy@PAD@?$allocator@D@std@@QAEXPAPAD@Z
_TEXT	SEGMENT
_this$ = -4						; size = 4
__Ptr$ = 8						; size = 4
??$destroy@PAD@?$allocator@D@std@@QAEXPAPAD@Z PROC	; std::allocator<char>::destroy<char *>, COMDAT
; _this$ = ecx

; 621  : 		void destroy(_Uty *_Ptr)

	push	ebp
	mov	ebp, esp
	push	ecx
	mov	DWORD PTR _this$[ebp], ecx

; 622  : 		{	// destroy object at _Ptr
; 623  : 		_Ptr->~_Uty();
; 624  : 		}

	mov	esp, ebp
	pop	ebp
	ret	4
??$destroy@PAD@?$allocator@D@std@@QAEXPAPAD@Z ENDP	; std::allocator<char>::destroy<char *>
_TEXT	ENDS
; Function compile flags: /Odtp
; File c:\program files (x86)\microsoft visual studio 11.0\vc\include\xmemory0
;	COMDAT ??$construct@PADAAPAD@?$allocator@D@std@@QAEXPAPADAAPAD@Z
_TEXT	SEGMENT
$T2 = -28						; size = 4
_this$ = -24						; size = 4
tv73 = -20						; size = 4
$T3 = -16						; size = 4
__$EHRec$ = -12						; size = 12
__Ptr$ = 8						; size = 4
__V0$ = 12						; size = 4
??$construct@PADAAPAD@?$allocator@D@std@@QAEXPAPADAAPAD@Z PROC ; std::allocator<char>::construct<char *,char * &>, COMDAT
; _this$ = ecx

; 617  : _VARIADIC_EXPAND_0X(_ALLOC_MEMBER_CONSTRUCT, , , , )

	push	ebp
	mov	ebp, esp
	push	-1
	push	__ehhandler$??$construct@PADAAPAD@?$allocator@D@std@@QAEXPAPADAAPAD@Z
	mov	eax, DWORD PTR fs:0
	push	eax
	sub	esp, 16					; 00000010H
	mov	eax, DWORD PTR ___security_cookie
	xor	eax, ebp
	push	eax
	lea	eax, DWORD PTR __$EHRec$[ebp]
	mov	DWORD PTR fs:0, eax
	mov	DWORD PTR _this$[ebp], ecx
	mov	eax, DWORD PTR __Ptr$[ebp]
	push	eax
	push	4
	call	??2@YAPAXIPAX@Z				; operator new
	add	esp, 8
	mov	DWORD PTR $T3[ebp], eax
	mov	DWORD PTR __$EHRec$[ebp+8], 0
	cmp	DWORD PTR $T3[ebp], 0
	je	SHORT $LN3@construct
	mov	ecx, DWORD PTR __V0$[ebp]
	push	ecx
	call	??$forward@AAPAD@std@@YAAAPADAAPAD@Z	; std::forward<char * &>
	add	esp, 4
	mov	edx, DWORD PTR $T3[ebp]
	mov	eax, DWORD PTR [eax]
	mov	DWORD PTR [edx], eax
	mov	ecx, DWORD PTR $T3[ebp]
	mov	DWORD PTR tv73[ebp], ecx
	jmp	SHORT $LN4@construct
$LN3@construct:
	mov	DWORD PTR tv73[ebp], 0
$LN4@construct:
	mov	edx, DWORD PTR tv73[ebp]
	mov	DWORD PTR $T2[ebp], edx
	mov	DWORD PTR __$EHRec$[ebp+8], -1
	mov	ecx, DWORD PTR __$EHRec$[ebp]
	mov	DWORD PTR fs:0, ecx
	pop	ecx
	mov	esp, ebp
	pop	ebp
	ret	8
_TEXT	ENDS
;	COMDAT text$x
text$x	SEGMENT
__unwindfunclet$??$construct@PADAAPAD@?$allocator@D@std@@QAEXPAPADAAPAD@Z$0:
	mov	eax, DWORD PTR __Ptr$[ebp]
	push	eax
	mov	eax, DWORD PTR $T3[ebp]
	push	eax
	call	??3@YAXPAX0@Z				; operator delete
	add	esp, 8
	ret	0
__ehhandler$??$construct@PADAAPAD@?$allocator@D@std@@QAEXPAPADAAPAD@Z:
	mov	edx, DWORD PTR [esp+8]
	lea	eax, DWORD PTR [edx+12]
	mov	ecx, DWORD PTR [edx-20]
	xor	ecx, eax
	call	@__security_check_cookie@4
	mov	eax, OFFSET __ehfuncinfo$??$construct@PADAAPAD@?$allocator@D@std@@QAEXPAPADAAPAD@Z
	jmp	___CxxFrameHandler3
text$x	ENDS
??$construct@PADAAPAD@?$allocator@D@std@@QAEXPAPADAAPAD@Z ENDP ; std::allocator<char>::construct<char *,char * &>
; Function compile flags: /Odtp
; File c:\program files (x86)\microsoft visual studio 11.0\vc\include\xlocnum
;	COMDAT ??__E?id@?$numpunct@_W@std@@2V0locale@2@A@@YAXXZ
text$yc	SEGMENT
??__E?id@?$numpunct@_W@std@@2V0locale@2@A@@YAXXZ PROC	; `dynamic initializer for 'std::numpunct<wchar_t>::id'', COMDAT

; 155  : 		void _Getvals(wchar_t, const lconv *_Ptr, _Locinfo::_Cvtvec)

	push	ebp
	mov	ebp, esp
	push	0
	mov	ecx, OFFSET ?id@?$numpunct@_W@std@@2V0locale@2@A ; std::numpunct<wchar_t>::id
	call	??0id@locale@std@@QAE@I@Z		; std::locale::id::id
	pop	ebp
	ret	0
??__E?id@?$numpunct@_W@std@@2V0locale@2@A@@YAXXZ ENDP	; `dynamic initializer for 'std::numpunct<wchar_t>::id''
text$yc	ENDS
; Function compile flags: /Odtp
; File c:\program files (x86)\microsoft visual studio 11.0\vc\include\xlocnum
;	COMDAT ??__E?id@?$numpunct@D@std@@2V0locale@2@A@@YAXXZ
text$yc	SEGMENT
??__E?id@?$numpunct@D@std@@2V0locale@2@A@@YAXXZ PROC	; `dynamic initializer for 'std::numpunct<char>::id'', COMDAT

; 155  : 		void _Getvals(wchar_t, const lconv *_Ptr, _Locinfo::_Cvtvec)

	push	ebp
	mov	ebp, esp
	push	0
	mov	ecx, OFFSET ?id@?$numpunct@D@std@@2V0locale@2@A ; std::numpunct<char>::id
	call	??0id@locale@std@@QAE@I@Z		; std::locale::id::id
	pop	ebp
	ret	0
??__E?id@?$numpunct@D@std@@2V0locale@2@A@@YAXXZ ENDP	; `dynamic initializer for 'std::numpunct<char>::id''
text$yc	ENDS
; Function compile flags: /Odtp
; File c:\program files (x86)\microsoft visual studio 11.0\vc\include\xlocnum
;	COMDAT ??__E?id@?$num_put@_WV?$back_insert_iterator@V?$basic_string@_WU?$char_traits@_W@std@@V?$allocator@_W@2@@std@@@std@@@std@@2V0locale@2@A@@YAXXZ
text$yc	SEGMENT
??__E?id@?$num_put@_WV?$back_insert_iterator@V?$basic_string@_WU?$char_traits@_W@std@@V?$allocator@_W@2@@std@@@std@@@std@@2V0locale@2@A@@YAXXZ PROC ; `dynamic initializer for 'std::num_put<wchar_t,std::back_insert_iterator<std::basic_string<wchar_t,std::char_traits<wchar_t>,std::allocator<wchar_t> > > >::id'', COMDAT

; 155  : 		void _Getvals(wchar_t, const lconv *_Ptr, _Locinfo::_Cvtvec)

	push	ebp
	mov	ebp, esp
	push	0
	mov	ecx, OFFSET ?id@?$num_put@_WV?$back_insert_iterator@V?$basic_string@_WU?$char_traits@_W@std@@V?$allocator@_W@2@@std@@@std@@@std@@2V0locale@2@A ; std::num_put<wchar_t,std::back_insert_iterator<std::basic_string<wchar_t,std::char_traits<wchar_t>,std::allocator<wchar_t> > > >::id
	call	??0id@locale@std@@QAE@I@Z		; std::locale::id::id
	pop	ebp
	ret	0
??__E?id@?$num_put@_WV?$back_insert_iterator@V?$basic_string@_WU?$char_traits@_W@std@@V?$allocator@_W@2@@std@@@std@@@std@@2V0locale@2@A@@YAXXZ ENDP ; `dynamic initializer for 'std::num_put<wchar_t,std::back_insert_iterator<std::basic_string<wchar_t,std::char_traits<wchar_t>,std::allocator<wchar_t> > > >::id''
text$yc	ENDS
; Function compile flags: /Odtp
; File c:\program files (x86)\microsoft visual studio 11.0\vc\include\xlocnum
;	COMDAT ??__E?id@?$num_put@DV?$back_insert_iterator@V?$basic_string@DU?$char_traits@D@std@@V?$allocator@D@2@@std@@@std@@@std@@2V0locale@2@A@@YAXXZ
text$yc	SEGMENT
??__E?id@?$num_put@DV?$back_insert_iterator@V?$basic_string@DU?$char_traits@D@std@@V?$allocator@D@2@@std@@@std@@@std@@2V0locale@2@A@@YAXXZ PROC ; `dynamic initializer for 'std::num_put<char,std::back_insert_iterator<std::basic_string<char,std::char_traits<char>,std::allocator<char> > > >::id'', COMDAT

; 155  : 		void _Getvals(wchar_t, const lconv *_Ptr, _Locinfo::_Cvtvec)

	push	ebp
	mov	ebp, esp
	push	0
	mov	ecx, OFFSET ?id@?$num_put@DV?$back_insert_iterator@V?$basic_string@DU?$char_traits@D@std@@V?$allocator@D@2@@std@@@std@@@std@@2V0locale@2@A ; std::num_put<char,std::back_insert_iterator<std::basic_string<char,std::char_traits<char>,std::allocator<char> > > >::id
	call	??0id@locale@std@@QAE@I@Z		; std::locale::id::id
	pop	ebp
	ret	0
??__E?id@?$num_put@DV?$back_insert_iterator@V?$basic_string@DU?$char_traits@D@std@@V?$allocator@D@2@@std@@@std@@@std@@2V0locale@2@A@@YAXXZ ENDP ; `dynamic initializer for 'std::num_put<char,std::back_insert_iterator<std::basic_string<char,std::char_traits<char>,std::allocator<char> > > >::id''
text$yc	ENDS
; Function compile flags: /Odtp
; File c:\program files (x86)\microsoft visual studio 11.0\vc\include\xmemory0
;	COMDAT ??$destroy@PAD@?$allocator_traits@V?$allocator@D@std@@@std@@SAXAAV?$allocator@D@1@PAPAD@Z
_TEXT	SEGMENT
__Al$ = 8						; size = 4
__Ptr$ = 12						; size = 4
??$destroy@PAD@?$allocator_traits@V?$allocator@D@std@@@std@@SAXAAV?$allocator@D@1@PAPAD@Z PROC ; std::allocator_traits<std::allocator<char> >::destroy<char *>, COMDAT

; 755  : 		static void destroy(_Alloc& _Al, _Uty *_Ptr)

	push	ebp
	mov	ebp, esp

; 756  : 		{	// destroy object at _Ptr
; 757  : 		_Al.destroy(_Ptr);

	mov	eax, DWORD PTR __Ptr$[ebp]
	push	eax
	mov	ecx, DWORD PTR __Al$[ebp]
	call	??$destroy@PAD@?$allocator@D@std@@QAEXPAPAD@Z ; std::allocator<char>::destroy<char *>

; 758  : 		}

	pop	ebp
	ret	0
??$destroy@PAD@?$allocator_traits@V?$allocator@D@std@@@std@@SAXAAV?$allocator@D@1@PAPAD@Z ENDP ; std::allocator_traits<std::allocator<char> >::destroy<char *>
_TEXT	ENDS
; Function compile flags: /Odtp
; File c:\program files (x86)\microsoft visual studio 11.0\vc\include\xmemory0
;	COMDAT ??$construct@PADAAPAD@?$allocator_traits@V?$allocator@D@std@@@std@@SAXAAV?$allocator@D@1@PAPADAAPAD@Z
_TEXT	SEGMENT
__Al$ = 8						; size = 4
__Ptr$ = 12						; size = 4
__V0$ = 16						; size = 4
??$construct@PADAAPAD@?$allocator_traits@V?$allocator@D@std@@@std@@SAXAAV?$allocator@D@1@PAPADAAPAD@Z PROC ; std::allocator_traits<std::allocator<char> >::construct<char *,char * &>, COMDAT

; 751  : _VARIADIC_EXPAND_0X(_ALLOC_TRAITS_SPECIAL_CONSTRUCT, , , , )

	push	ebp
	mov	ebp, esp
	mov	eax, DWORD PTR __V0$[ebp]
	push	eax
	call	??$forward@AAPAD@std@@YAAAPADAAPAD@Z	; std::forward<char * &>
	add	esp, 4
	push	eax
	mov	ecx, DWORD PTR __Ptr$[ebp]
	push	ecx
	mov	ecx, DWORD PTR __Al$[ebp]
	call	??$construct@PADAAPAD@?$allocator@D@std@@QAEXPAPADAAPAD@Z ; std::allocator<char>::construct<char *,char * &>
	pop	ebp
	ret	0
??$construct@PADAAPAD@?$allocator_traits@V?$allocator@D@std@@@std@@SAXAAV?$allocator@D@1@PAPADAAPAD@Z ENDP ; std::allocator_traits<std::allocator<char> >::construct<char *,char * &>
_TEXT	ENDS
; Function compile flags: /Odtp
; File c:\program files (x86)\microsoft visual studio 11.0\vc\include\type_traits
;	COMDAT ??$forward@AAPAD@std@@YAAAPADAAPAD@Z
_TEXT	SEGMENT
__Arg$ = 8						; size = 4
??$forward@AAPAD@std@@YAAAPADAAPAD@Z PROC		; std::forward<char * &>, COMDAT

; 1775 : 	{	// forward an lvalue

	push	ebp
	mov	ebp, esp

; 1776 : 	return (static_cast<_Ty&&>(_Arg));

	mov	eax, DWORD PTR __Arg$[ebp]

; 1777 : 	}

	pop	ebp
	ret	0
??$forward@AAPAD@std@@YAAAPADAAPAD@Z ENDP		; std::forward<char * &>
_TEXT	ENDS
; Function compile flags: /Odtp
;	COMDAT ??__F?_System_object@?$_Error_objects@H@std@@2V_System_error_category@2@A@@YAXXZ
text$yd	SEGMENT
??__F?_System_object@?$_Error_objects@H@std@@2V_System_error_category@2@A@@YAXXZ PROC ; `dynamic atexit destructor for 'std::_Error_objects<int>::_System_object'', COMDAT
	push	ebp
	mov	ebp, esp
	mov	ecx, OFFSET ?_System_object@?$_Error_objects@H@std@@2V_System_error_category@2@A ; std::_Error_objects<int>::_System_object
	call	??1_System_error_category@std@@UAE@XZ
	pop	ebp
	ret	0
??__F?_System_object@?$_Error_objects@H@std@@2V_System_error_category@2@A@@YAXXZ ENDP ; `dynamic atexit destructor for 'std::_Error_objects<int>::_System_object''
text$yd	ENDS
; Function compile flags: /Odtp
; File c:\program files (x86)\microsoft visual studio 11.0\vc\include\xmemory0
;	COMDAT ??__E?_System_object@?$_Error_objects@H@std@@2V_System_error_category@2@A@@YAXXZ
text$yc	SEGMENT
??__E?_System_object@?$_Error_objects@H@std@@2V_System_error_category@2@A@@YAXXZ PROC ; `dynamic initializer for 'std::_Error_objects<int>::_System_object'', COMDAT

; 627  : 		{	// estimate maximum array size

	push	ebp
	mov	ebp, esp
	mov	ecx, OFFSET ?_System_object@?$_Error_objects@H@std@@2V_System_error_category@2@A ; std::_Error_objects<int>::_System_object
	call	??0_System_error_category@std@@QAE@XZ	; std::_System_error_category::_System_error_category
	push	OFFSET ??__F?_System_object@?$_Error_objects@H@std@@2V_System_error_category@2@A@@YAXXZ ; `dynamic atexit destructor for 'std::_Error_objects<int>::_System_object''
	call	_atexit
	add	esp, 4
	pop	ebp
	ret	0
??__E?_System_object@?$_Error_objects@H@std@@2V_System_error_category@2@A@@YAXXZ ENDP ; `dynamic initializer for 'std::_Error_objects<int>::_System_object''
text$yc	ENDS
; Function compile flags: /Odtp
;	COMDAT ??__F?_Iostream_object@?$_Error_objects@H@std@@2V_Iostream_error_category@2@A@@YAXXZ
text$yd	SEGMENT
??__F?_Iostream_object@?$_Error_objects@H@std@@2V_Iostream_error_category@2@A@@YAXXZ PROC ; `dynamic atexit destructor for 'std::_Error_objects<int>::_Iostream_object'', COMDAT
	push	ebp
	mov	ebp, esp
	mov	ecx, OFFSET ?_Iostream_object@?$_Error_objects@H@std@@2V_Iostream_error_category@2@A ; std::_Error_objects<int>::_Iostream_object
	call	??1_Iostream_error_category@std@@UAE@XZ
	pop	ebp
	ret	0
??__F?_Iostream_object@?$_Error_objects@H@std@@2V_Iostream_error_category@2@A@@YAXXZ ENDP ; `dynamic atexit destructor for 'std::_Error_objects<int>::_Iostream_object''
text$yd	ENDS
; Function compile flags: /Odtp
; File c:\program files (x86)\microsoft visual studio 11.0\vc\include\xmemory0
;	COMDAT ??__E?_Iostream_object@?$_Error_objects@H@std@@2V_Iostream_error_category@2@A@@YAXXZ
text$yc	SEGMENT
??__E?_Iostream_object@?$_Error_objects@H@std@@2V_Iostream_error_category@2@A@@YAXXZ PROC ; `dynamic initializer for 'std::_Error_objects<int>::_Iostream_object'', COMDAT

; 627  : 		{	// estimate maximum array size

	push	ebp
	mov	ebp, esp
	mov	ecx, OFFSET ?_Iostream_object@?$_Error_objects@H@std@@2V_Iostream_error_category@2@A ; std::_Error_objects<int>::_Iostream_object
	call	??0_Iostream_error_category@std@@QAE@XZ	; std::_Iostream_error_category::_Iostream_error_category
	push	OFFSET ??__F?_Iostream_object@?$_Error_objects@H@std@@2V_Iostream_error_category@2@A@@YAXXZ ; `dynamic atexit destructor for 'std::_Error_objects<int>::_Iostream_object''
	call	_atexit
	add	esp, 4
	pop	ebp
	ret	0
??__E?_Iostream_object@?$_Error_objects@H@std@@2V_Iostream_error_category@2@A@@YAXXZ ENDP ; `dynamic initializer for 'std::_Error_objects<int>::_Iostream_object''
text$yc	ENDS
; Function compile flags: /Odtp
;	COMDAT ??__F?_Generic_object@?$_Error_objects@H@std@@2V_Generic_error_category@2@A@@YAXXZ
text$yd	SEGMENT
??__F?_Generic_object@?$_Error_objects@H@std@@2V_Generic_error_category@2@A@@YAXXZ PROC ; `dynamic atexit destructor for 'std::_Error_objects<int>::_Generic_object'', COMDAT
	push	ebp
	mov	ebp, esp
	mov	ecx, OFFSET ?_Generic_object@?$_Error_objects@H@std@@2V_Generic_error_category@2@A ; std::_Error_objects<int>::_Generic_object
	call	??1_Generic_error_category@std@@UAE@XZ
	pop	ebp
	ret	0
??__F?_Generic_object@?$_Error_objects@H@std@@2V_Generic_error_category@2@A@@YAXXZ ENDP ; `dynamic atexit destructor for 'std::_Error_objects<int>::_Generic_object''
text$yd	ENDS
; Function compile flags: /Odtp
; File c:\program files (x86)\microsoft visual studio 11.0\vc\include\xmemory0
;	COMDAT ??__E?_Generic_object@?$_Error_objects@H@std@@2V_Generic_error_category@2@A@@YAXXZ
text$yc	SEGMENT
??__E?_Generic_object@?$_Error_objects@H@std@@2V_Generic_error_category@2@A@@YAXXZ PROC ; `dynamic initializer for 'std::_Error_objects<int>::_Generic_object'', COMDAT

; 627  : 		{	// estimate maximum array size

	push	ebp
	mov	ebp, esp
	mov	ecx, OFFSET ?_Generic_object@?$_Error_objects@H@std@@2V_Generic_error_category@2@A ; std::_Error_objects<int>::_Generic_object
	call	??0_Generic_error_category@std@@QAE@XZ	; std::_Generic_error_category::_Generic_error_category
	push	OFFSET ??__F?_Generic_object@?$_Error_objects@H@std@@2V_Generic_error_category@2@A@@YAXXZ ; `dynamic atexit destructor for 'std::_Error_objects<int>::_Generic_object''
	call	_atexit
	add	esp, 4
	pop	ebp
	ret	0
??__E?_Generic_object@?$_Error_objects@H@std@@2V_Generic_error_category@2@A@@YAXXZ ENDP ; `dynamic initializer for 'std::_Error_objects<int>::_Generic_object''
text$yc	ENDS
; Function compile flags: /Odtp
; File c:\program files (x86)\microsoft visual studio 11.0\vc\include\xmemory0
;	COMDAT ??$_Allocate@D@std@@YAPADIPAD@Z
_TEXT	SEGMENT
__Ptr$ = -4						; size = 4
__Count$ = 8						; size = 4
___formal$ = 12						; size = 4
??$_Allocate@D@std@@YAPADIPAD@Z PROC			; std::_Allocate<char>, COMDAT

; 22   : 	{	// allocate storage for _Count elements of type _Ty

	push	ebp
	mov	ebp, esp
	push	ecx

; 23   : 	void *_Ptr = 0;

	mov	DWORD PTR __Ptr$[ebp], 0

; 24   : 
; 25   : 	if (_Count == 0)

	cmp	DWORD PTR __Count$[ebp], 0
	jne	SHORT $LN4@Allocate

; 26   : 		;
; 27   : 	else if (((size_t)(-1) / sizeof (_Ty) < _Count)

	jmp	SHORT $LN3@Allocate
$LN4@Allocate:

; 28   : 		|| (_Ptr = ::operator new(_Count * sizeof (_Ty))) == 0)

	cmp	DWORD PTR __Count$[ebp], -1
	ja	SHORT $LN1@Allocate
	mov	eax, DWORD PTR __Count$[ebp]
	push	eax
	call	??2@YAPAXI@Z				; operator new
	add	esp, 4
	mov	DWORD PTR __Ptr$[ebp], eax
	cmp	DWORD PTR __Ptr$[ebp], 0
	jne	SHORT $LN3@Allocate
$LN1@Allocate:

; 29   : 		_Xbad_alloc();	// report no memory

	call	?_Xbad_alloc@std@@YAXXZ			; std::_Xbad_alloc
$LN3@Allocate:

; 30   : 
; 31   : 	return ((_Ty *)_Ptr);

	mov	eax, DWORD PTR __Ptr$[ebp]
$LN6@Allocate:

; 32   : 	}

	mov	esp, ebp
	pop	ebp
	ret	0
??$_Allocate@D@std@@YAPADIPAD@Z ENDP			; std::_Allocate<char>
_TEXT	ENDS
; Function compile flags: /Odtp
; File c:\program files (x86)\microsoft visual studio 11.0\vc\include\xstddef
;	COMDAT ??$addressof@D@std@@YAPADAAD@Z
_TEXT	SEGMENT
__Val$ = 8						; size = 4
??$addressof@D@std@@YAPADAAD@Z PROC			; std::addressof<char>, COMDAT

; 85   : 	{	// return address of _Val

	push	ebp
	mov	ebp, esp

; 86   : 	return (reinterpret_cast<_Ty *>(
; 87   : 		(&const_cast<char&>(
; 88   : 		reinterpret_cast<const volatile char&>(_Val)))));

	mov	eax, DWORD PTR __Val$[ebp]

; 89   : 	}

	pop	ebp
	ret	0
??$addressof@D@std@@YAPADAAD@Z ENDP			; std::addressof<char>
_TEXT	ENDS
; Function compile flags: /Odtp
; File c:\program files (x86)\microsoft visual studio 11.0\vc\include\xmemory0
;	COMDAT ??$destroy@PAD@?$_Wrap_alloc@V?$allocator@D@std@@@std@@QAEXPAPAD@Z
_TEXT	SEGMENT
_this$ = -4						; size = 4
__Ptr$ = 8						; size = 4
??$destroy@PAD@?$_Wrap_alloc@V?$allocator@D@std@@@std@@QAEXPAPAD@Z PROC ; std::_Wrap_alloc<std::allocator<char> >::destroy<char *>, COMDAT
; _this$ = ecx

; 907  : 		void destroy(_Ty *_Ptr)

	push	ebp
	mov	ebp, esp
	push	ecx
	mov	DWORD PTR _this$[ebp], ecx

; 908  : 		{	// destroy object at _Ptr
; 909  : 		_Mytraits::destroy(*this, _Ptr);

	mov	eax, DWORD PTR __Ptr$[ebp]
	push	eax
	mov	ecx, DWORD PTR _this$[ebp]
	push	ecx
	call	??$destroy@PAD@?$allocator_traits@V?$allocator@D@std@@@std@@SAXAAV?$allocator@D@1@PAPAD@Z ; std::allocator_traits<std::allocator<char> >::destroy<char *>
	add	esp, 8

; 910  : 		}

	mov	esp, ebp
	pop	ebp
	ret	4
??$destroy@PAD@?$_Wrap_alloc@V?$allocator@D@std@@@std@@QAEXPAPAD@Z ENDP ; std::_Wrap_alloc<std::allocator<char> >::destroy<char *>
_TEXT	ENDS
; Function compile flags: /Odtp
; File c:\program files (x86)\microsoft visual studio 11.0\vc\include\xmemory0
;	COMDAT ??$construct@PADAAPAD@?$_Wrap_alloc@V?$allocator@D@std@@@std@@QAEXPAPADAAPAD@Z
_TEXT	SEGMENT
_this$ = -4						; size = 4
__Ptr$ = 8						; size = 4
__V0$ = 12						; size = 4
??$construct@PADAAPAD@?$_Wrap_alloc@V?$allocator@D@std@@@std@@QAEXPAPADAAPAD@Z PROC ; std::_Wrap_alloc<std::allocator<char> >::construct<char *,char * &>, COMDAT
; _this$ = ecx

; 903  : _VARIADIC_EXPAND_0X(_WRAP_ALLOC_CONSTRUCT, , , , )

	push	ebp
	mov	ebp, esp
	push	ecx
	mov	DWORD PTR _this$[ebp], ecx
	mov	eax, DWORD PTR __V0$[ebp]
	push	eax
	call	??$forward@AAPAD@std@@YAAAPADAAPAD@Z	; std::forward<char * &>
	add	esp, 4
	push	eax
	mov	ecx, DWORD PTR __Ptr$[ebp]
	push	ecx
	mov	edx, DWORD PTR _this$[ebp]
	push	edx
	call	??$construct@PADAAPAD@?$allocator_traits@V?$allocator@D@std@@@std@@SAXAAV?$allocator@D@1@PAPADAAPAD@Z ; std::allocator_traits<std::allocator<char> >::construct<char *,char * &>
	add	esp, 12					; 0000000cH
	mov	esp, ebp
	pop	ebp
	ret	8
??$construct@PADAAPAD@?$_Wrap_alloc@V?$allocator@D@std@@@std@@QAEXPAPADAAPAD@Z ENDP ; std::_Wrap_alloc<std::allocator<char> >::construct<char *,char * &>
_TEXT	ENDS
; Function compile flags: /Odtp
; File c:\users\zhitao li\documents\visual studio 2012\projects\freefalcon\ui95\chandler.cpp
_TEXT	SEGMENT
_relY$ = -16						; size = 4
_relX$ = -12						; size = 4
_retval$ = -8						; size = 4
_this$ = -4						; size = 4
_MouseX$ = 8						; size = 2
_MouseY$ = 12						; size = 2
_overme$ = 16						; size = 4
?DropItem@C_Handler@@QAEHGGPAVC_Window@@@Z PROC		; C_Handler::DropItem
; _this$ = ecx

; 1829 : {

	push	ebp
	mov	ebp, esp
	sub	esp, 16					; 00000010H
	push	esi
	mov	DWORD PTR _this$[ebp], ecx

; 1830 : 	long relX,relY; //!
; 1831 : 	BOOL retval=FALSE;

	mov	DWORD PTR _retval$[ebp], 0

; 1832 : 
; 1833 : 	relX = MouseX-overme->GetX();

	movzx	esi, WORD PTR _MouseX$[ebp]
	mov	ecx, DWORD PTR _overme$[ebp]
	call	?GetX@C_Window@@QAEFXZ			; C_Window::GetX
	cwde
	sub	esi, eax
	mov	DWORD PTR _relX$[ebp], esi

; 1834 : 	relY = MouseY-overme->GetY();

	movzx	esi, WORD PTR _MouseY$[ebp]
	mov	ecx, DWORD PTR _overme$[ebp]
	call	?GetY@C_Window@@QAEFXZ			; C_Window::GetY
	movsx	ecx, ax
	sub	esi, ecx
	mov	DWORD PTR _relY$[ebp], esi

; 1835 : 
; 1836 : 	if(Drag_.Control_)

	mov	edx, DWORD PTR _this$[ebp]
	cmp	DWORD PTR [edx+232], 0
	je	SHORT $LN3@DropItem

; 1837 : 	{
; 1838 : 		retval=Drag_.Control_->Drop(&Drag_,MouseX,MouseY,overme);

	mov	eax, DWORD PTR _overme$[ebp]
	push	eax
	movzx	ecx, WORD PTR _MouseY$[ebp]
	push	ecx
	movzx	edx, WORD PTR _MouseX$[ebp]
	push	edx
	mov	eax, DWORD PTR _this$[ebp]
	add	eax, 204				; 000000ccH
	push	eax
	mov	ecx, DWORD PTR _this$[ebp]
	mov	edx, DWORD PTR [ecx+232]
	mov	eax, DWORD PTR _this$[ebp]
	mov	edx, DWORD PTR [edx]
	mov	ecx, DWORD PTR [eax+232]
	mov	eax, DWORD PTR [edx+228]
	call	eax
	mov	DWORD PTR _retval$[ebp], eax
	jmp	SHORT $LN2@DropItem
$LN3@DropItem:

; 1839 : 		//ShowCursor(TRUE);
; 1840 : 	}
; 1841 : 	else if(Drag_.Window_)

	mov	ecx, DWORD PTR _this$[ebp]
	cmp	DWORD PTR [ecx+228], 0
	je	SHORT $LN2@DropItem

; 1842 : 	{
; 1843 : 		retval=Drag_.Window_->Drop(&Drag_,MouseX,MouseY,overme);

	mov	edx, DWORD PTR _overme$[ebp]
	push	edx
	movzx	eax, WORD PTR _MouseY$[ebp]
	push	eax
	movzx	ecx, WORD PTR _MouseX$[ebp]
	push	ecx
	mov	edx, DWORD PTR _this$[ebp]
	add	edx, 204				; 000000ccH
	push	edx
	mov	eax, DWORD PTR _this$[ebp]
	mov	ecx, DWORD PTR [eax+228]
	call	?Drop@C_Window@@QAEHPAUGRABBER@@GGPAV1@@Z ; C_Window::Drop
	mov	DWORD PTR _retval$[ebp], eax
$LN2@DropItem:

; 1844 : 		//ShowCursor(TRUE);
; 1845 : 	}
; 1846 : 	Drag_.Control_=NULL;

	mov	ecx, DWORD PTR _this$[ebp]
	mov	DWORD PTR [ecx+232], 0

; 1847 : 	Drag_.Window_=NULL;

	mov	edx, DWORD PTR _this$[ebp]
	mov	DWORD PTR [edx+228], 0

; 1848 : 	Drag_.GrabType_=0;

	mov	eax, DWORD PTR _this$[ebp]
	mov	DWORD PTR [eax+224], 0

; 1849 : 	return(retval);

	mov	eax, DWORD PTR _retval$[ebp]

; 1850 : }

	pop	esi
	mov	esp, ebp
	pop	ebp
	ret	12					; 0000000cH
?DropItem@C_Handler@@QAEHGGPAVC_Window@@@Z ENDP		; C_Handler::DropItem
_TEXT	ENDS
; Function compile flags: /Odtp
; File c:\users\zhitao li\documents\visual studio 2012\projects\freefalcon\ui95\chandler.cpp
_TEXT	SEGMENT
_this$ = -4						; size = 4
_MouseX$ = 8						; size = 2
_MouseY$ = 12						; size = 2
_overme$ = 16						; size = 4
?DragItem@C_Handler@@QAEHGGPAVC_Window@@@Z PROC		; C_Handler::DragItem
; _this$ = ecx

; 1817 : {

	push	ebp
	mov	ebp, esp
	push	ecx
	mov	DWORD PTR _this$[ebp], ecx

; 1818 : 	if(Drag_.GrabType_ != C_TYPE_LMOUSEDOWN)

	mov	eax, DWORD PTR _this$[ebp]
	cmp	DWORD PTR [eax+224], 51			; 00000033H
	je	SHORT $LN4@DragItem

; 1819 : 		return(FALSE);

	xor	eax, eax
	jmp	SHORT $LN5@DragItem
$LN4@DragItem:

; 1820 : 
; 1821 : 	if(Drag_.Control_)

	mov	ecx, DWORD PTR _this$[ebp]
	cmp	DWORD PTR [ecx+232], 0
	je	SHORT $LN3@DragItem

; 1822 : 		return(Drag_.Control_->Drag(&Drag_,MouseX,MouseY,overme));

	mov	edx, DWORD PTR _overme$[ebp]
	push	edx
	movzx	eax, WORD PTR _MouseY$[ebp]
	push	eax
	movzx	ecx, WORD PTR _MouseX$[ebp]
	push	ecx
	mov	edx, DWORD PTR _this$[ebp]
	add	edx, 204				; 000000ccH
	push	edx
	mov	eax, DWORD PTR _this$[ebp]
	mov	ecx, DWORD PTR [eax+232]
	mov	edx, DWORD PTR _this$[ebp]
	mov	eax, DWORD PTR [ecx]
	mov	ecx, DWORD PTR [edx+232]
	mov	edx, DWORD PTR [eax+224]
	call	edx
	jmp	SHORT $LN5@DragItem
	jmp	SHORT $LN2@DragItem
$LN3@DragItem:

; 1823 : 	else if(Drag_.Window_)

	mov	eax, DWORD PTR _this$[ebp]
	cmp	DWORD PTR [eax+228], 0
	je	SHORT $LN2@DragItem

; 1824 : 		return(Drag_.Window_->Drag(&Drag_,MouseX,MouseY,overme));

	mov	ecx, DWORD PTR _overme$[ebp]
	push	ecx
	movzx	edx, WORD PTR _MouseY$[ebp]
	push	edx
	movzx	eax, WORD PTR _MouseX$[ebp]
	push	eax
	mov	ecx, DWORD PTR _this$[ebp]
	add	ecx, 204				; 000000ccH
	push	ecx
	mov	edx, DWORD PTR _this$[ebp]
	mov	ecx, DWORD PTR [edx+228]
	call	?Drag@C_Window@@QAEHPAUGRABBER@@GGPAV1@@Z ; C_Window::Drag
	jmp	SHORT $LN5@DragItem
$LN2@DragItem:

; 1825 : 	return(FALSE);

	xor	eax, eax
$LN5@DragItem:

; 1826 : }

	mov	esp, ebp
	pop	ebp
	ret	12					; 0000000cH
?DragItem@C_Handler@@QAEHGGPAVC_Window@@@Z ENDP		; C_Handler::DragItem
_TEXT	ENDS
; Function compile flags: /Odtp
; File c:\users\zhitao li\documents\visual studio 2012\projects\freefalcon\ui95\chandler.cpp
_TEXT	SEGMENT
_this$ = -4						; size = 4
_MouseX$ = 8						; size = 2
_MouseY$ = 12						; size = 2
_overme$ = 16						; size = 4
_GrabType$ = 20						; size = 4
?GrabItem@C_Handler@@QAEHGGPAVC_Window@@J@Z PROC	; C_Handler::GrabItem
; _this$ = ecx

; 1752 : {

	push	ebp
	mov	ebp, esp
	push	ecx
	push	esi
	push	edi
	mov	DWORD PTR _this$[ebp], ecx

; 1753 : 	Grab_.Control_	= overme->GetControl(&Grab_.ID_,MouseX-overme->GetX(),MouseY-overme->GetY());

	movzx	esi, WORD PTR _MouseY$[ebp]
	mov	ecx, DWORD PTR _overme$[ebp]
	call	?GetY@C_Window@@QAEFXZ			; C_Window::GetY
	cwde
	sub	esi, eax
	push	esi
	movzx	esi, WORD PTR _MouseX$[ebp]
	mov	ecx, DWORD PTR _overme$[ebp]
	call	?GetX@C_Window@@QAEFXZ			; C_Window::GetX
	movsx	ecx, ax
	sub	esi, ecx
	push	esi
	mov	edx, DWORD PTR _this$[ebp]
	add	edx, 172				; 000000acH
	push	edx
	mov	ecx, DWORD PTR _overme$[ebp]
	call	?GetControl@C_Window@@QAEPAVC_Base@@PAJJJ@Z ; C_Window::GetControl
	mov	ecx, DWORD PTR _this$[ebp]
	mov	DWORD PTR [ecx+200], eax

; 1754 : 	Grab_.StartX_	= MouseX;

	movzx	edx, WORD PTR _MouseX$[ebp]
	mov	eax, DWORD PTR _this$[ebp]
	mov	DWORD PTR [eax+176], edx

; 1755 : 	Grab_.StartY_	= MouseY;

	movzx	ecx, WORD PTR _MouseY$[ebp]
	mov	edx, DWORD PTR _this$[ebp]
	mov	DWORD PTR [edx+180], ecx

; 1756 : 	Grab_.GrabType_	= GrabType;

	mov	eax, DWORD PTR _this$[ebp]
	mov	ecx, DWORD PTR _GrabType$[ebp]
	mov	DWORD PTR [eax+192], ecx

; 1757 : 
; 1758 : 	if(Grab_.Control_)

	mov	edx, DWORD PTR _this$[ebp]
	cmp	DWORD PTR [edx+200], 0
	je	SHORT $LN5@GrabItem

; 1759 : 	{
; 1760 : 		Grab_.Window_=overme;

	mov	eax, DWORD PTR _this$[ebp]
	mov	ecx, DWORD PTR _overme$[ebp]
	mov	DWORD PTR [eax+196], ecx

; 1761 : 		Grab_.Control_->GetItemXY(Grab_.ID_,&Grab_.ItemX_,&Grab_.ItemY_);

	mov	edx, DWORD PTR _this$[ebp]
	add	edx, 188				; 000000bcH
	push	edx
	mov	eax, DWORD PTR _this$[ebp]
	add	eax, 184				; 000000b8H
	push	eax
	mov	ecx, DWORD PTR _this$[ebp]
	mov	edx, DWORD PTR [ecx+172]
	push	edx
	mov	eax, DWORD PTR _this$[ebp]
	mov	ecx, DWORD PTR [eax+200]
	mov	edx, DWORD PTR _this$[ebp]
	mov	eax, DWORD PTR [ecx]
	mov	ecx, DWORD PTR [edx+200]
	mov	edx, DWORD PTR [eax+220]
	call	edx

; 1762 : 	}
; 1763 : 	else

	jmp	$LN4@GrabItem
$LN5@GrabItem:

; 1764 : 	{
; 1765 : 		if(overme->GetFlags() & C_BIT_DRAGABLE)

	mov	ecx, DWORD PTR _overme$[ebp]
	call	?GetFlags@C_Window@@QAEJXZ		; C_Window::GetFlags
	and	eax, 4096				; 00001000H
	je	$LN3@GrabItem

; 1766 : 		{
; 1767 : 			if(MouseX < overme->GetX() || MouseY < overme->GetY() || MouseX > (overme->GetX()+overme->GetW()) || MouseY > (overme->GetY()+overme->GetDragH()))

	movzx	esi, WORD PTR _MouseX$[ebp]
	mov	ecx, DWORD PTR _overme$[ebp]
	call	?GetX@C_Window@@QAEFXZ			; C_Window::GetX
	cwde
	cmp	esi, eax
	jl	SHORT $LN1@GrabItem
	movzx	esi, WORD PTR _MouseY$[ebp]
	mov	ecx, DWORD PTR _overme$[ebp]
	call	?GetY@C_Window@@QAEFXZ			; C_Window::GetY
	movsx	ecx, ax
	cmp	esi, ecx
	jl	SHORT $LN1@GrabItem
	movzx	esi, WORD PTR _MouseX$[ebp]
	mov	ecx, DWORD PTR _overme$[ebp]
	call	?GetX@C_Window@@QAEFXZ			; C_Window::GetX
	movsx	edi, ax
	mov	ecx, DWORD PTR _overme$[ebp]
	call	?GetW@C_Window@@QAEFXZ			; C_Window::GetW
	movsx	edx, ax
	add	edi, edx
	cmp	esi, edi
	jg	SHORT $LN1@GrabItem
	movzx	esi, WORD PTR _MouseY$[ebp]
	mov	ecx, DWORD PTR _overme$[ebp]
	call	?GetY@C_Window@@QAEFXZ			; C_Window::GetY
	movsx	edi, ax
	mov	ecx, DWORD PTR _overme$[ebp]
	call	?GetDragH@C_Window@@QAEFXZ		; C_Window::GetDragH
	cwde
	add	edi, eax
	cmp	esi, edi
	jle	SHORT $LN2@GrabItem
$LN1@GrabItem:

; 1768 : 			{
; 1769 : 				Grab_.Window_=NULL;

	mov	ecx, DWORD PTR _this$[ebp]
	mov	DWORD PTR [ecx+196], 0

; 1770 : 				return(FALSE);

	xor	eax, eax
	jmp	SHORT $LN6@GrabItem
$LN2@GrabItem:

; 1771 : 			}
; 1772 : 			Grab_.Window_=overme;

	mov	edx, DWORD PTR _this$[ebp]
	mov	eax, DWORD PTR _overme$[ebp]
	mov	DWORD PTR [edx+196], eax

; 1773 : 			Grab_.ItemX_=overme->GetX();

	mov	ecx, DWORD PTR _overme$[ebp]
	call	?GetX@C_Window@@QAEFXZ			; C_Window::GetX
	movsx	ecx, ax
	mov	edx, DWORD PTR _this$[ebp]
	mov	DWORD PTR [edx+184], ecx

; 1774 : 			Grab_.ItemY_=overme->GetY();

	mov	ecx, DWORD PTR _overme$[ebp]
	call	?GetY@C_Window@@QAEFXZ			; C_Window::GetY
	cwde
	mov	ecx, DWORD PTR _this$[ebp]
	mov	DWORD PTR [ecx+188], eax
$LN3@GrabItem:

; 1775 : 		}
; 1776 : 		return(FALSE);

	xor	eax, eax
	jmp	SHORT $LN6@GrabItem
$LN4@GrabItem:

; 1777 : 	}
; 1778 : 	return(TRUE);

	mov	eax, 1
$LN6@GrabItem:

; 1779 : }

	pop	edi
	pop	esi
	mov	esp, ebp
	pop	ebp
	ret	16					; 00000010H
?GrabItem@C_Handler@@QAEHGGPAVC_Window@@J@Z ENDP	; C_Handler::GrabItem
_TEXT	ENDS
; Function compile flags: /Odtp
; File c:\users\zhitao li\documents\visual studio 2012\projects\freefalcon\ui95\chandler.h
;	COMDAT ?Dragging@C_Handler@@QAEHXZ
_TEXT	SEGMENT
_this$ = -4						; size = 4
?Dragging@C_Handler@@QAEHXZ PROC			; C_Handler::Dragging, COMDAT
; _this$ = ecx

; 256  : 		BOOL Dragging(void) { if(Drag_.Control_ != NULL || Drag_.Window_ != NULL) return(TRUE); return(FALSE);}

	push	ebp
	mov	ebp, esp
	push	ecx
	mov	DWORD PTR _this$[ebp], ecx
	mov	eax, DWORD PTR _this$[ebp]
	cmp	DWORD PTR [eax+232], 0
	jne	SHORT $LN1@Dragging
	mov	ecx, DWORD PTR _this$[ebp]
	cmp	DWORD PTR [ecx+228], 0
	je	SHORT $LN2@Dragging
$LN1@Dragging:
	mov	eax, 1
	jmp	SHORT $LN3@Dragging
$LN2@Dragging:
	xor	eax, eax
$LN3@Dragging:
	mov	esp, ebp
	pop	ebp
	ret	0
?Dragging@C_Handler@@QAEHXZ ENDP			; C_Handler::Dragging
_TEXT	ENDS
; Function compile flags: /Odtp
; File c:\users\zhitao li\documents\visual studio 2012\projects\freefalcon\ui95\chandler.cpp
_TEXT	SEGMENT
_retval$ = -8						; size = 4
_this$ = -4						; size = 4
_MouseY$ = 8						; size = 2
?GetDragY@C_Handler@@QAEJG@Z PROC			; C_Handler::GetDragY
; _this$ = ecx

; 1743 : {

	push	ebp
	mov	ebp, esp
	sub	esp, 8
	mov	DWORD PTR _this$[ebp], ecx

; 1744 : 	long retval = Drag_.ItemY_ + MouseY - Drag_.StartY_;

	movzx	eax, WORD PTR _MouseY$[ebp]
	mov	ecx, DWORD PTR _this$[ebp]
	mov	edx, DWORD PTR [ecx+220]
	add	edx, eax
	mov	eax, DWORD PTR _this$[ebp]
	sub	edx, DWORD PTR [eax+212]
	mov	DWORD PTR _retval$[ebp], edx

; 1745 : 	
; 1746 : 	return(retval);

	mov	eax, DWORD PTR _retval$[ebp]

; 1747 : }

	mov	esp, ebp
	pop	ebp
	ret	4
?GetDragY@C_Handler@@QAEJG@Z ENDP			; C_Handler::GetDragY
_TEXT	ENDS
; Function compile flags: /Odtp
; File c:\users\zhitao li\documents\visual studio 2012\projects\freefalcon\ui95\chandler.cpp
_TEXT	SEGMENT
_retval$ = -8						; size = 4
_this$ = -4						; size = 4
_MouseX$ = 8						; size = 2
?GetDragX@C_Handler@@QAEJG@Z PROC			; C_Handler::GetDragX
; _this$ = ecx

; 1736 : {

	push	ebp
	mov	ebp, esp
	sub	esp, 8
	mov	DWORD PTR _this$[ebp], ecx

; 1737 : 	long retval = Drag_.ItemX_ + MouseX - Drag_.StartX_;

	movzx	eax, WORD PTR _MouseX$[ebp]
	mov	ecx, DWORD PTR _this$[ebp]
	mov	edx, DWORD PTR [ecx+216]
	add	edx, eax
	mov	eax, DWORD PTR _this$[ebp]
	sub	edx, DWORD PTR [eax+208]
	mov	DWORD PTR _retval$[ebp], edx

; 1738 : 	
; 1739 : 	return(retval);

	mov	eax, DWORD PTR _retval$[ebp]

; 1740 : }

	mov	esp, ebp
	pop	ebp
	ret	4
?GetDragX@C_Handler@@QAEJG@Z ENDP			; C_Handler::GetDragX
_TEXT	ENDS
; Function compile flags: /Odtp
; File c:\users\zhitao li\documents\visual studio 2012\projects\freefalcon\ui95\chandler.cpp
_TEXT	SEGMENT
_this$ = -4						; size = 4
?StartDrag@C_Handler@@QAEXXZ PROC			; C_Handler::StartDrag
; _this$ = ecx

; 1794 : {

	push	ebp
	mov	ebp, esp
	push	ecx
	push	esi
	push	edi
	mov	DWORD PTR _this$[ebp], ecx

; 1795 : 	if(Grab_.GrabType_ != C_TYPE_LMOUSEDOWN)

	mov	eax, DWORD PTR _this$[ebp]
	cmp	DWORD PTR [eax+192], 51			; 00000033H
	je	SHORT $LN6@StartDrag

; 1796 : 		return;

	jmp	$LN7@StartDrag
$LN6@StartDrag:

; 1797 : 
; 1798 : 	if(Grab_.Control_)

	mov	ecx, DWORD PTR _this$[ebp]
	cmp	DWORD PTR [ecx+200], 0
	je	SHORT $LN5@StartDrag

; 1799 : 	{
; 1800 : 		if(Grab_.Control_->Dragable(Grab_.ID_))

	mov	edx, DWORD PTR _this$[ebp]
	mov	eax, DWORD PTR [edx+172]
	push	eax
	mov	ecx, DWORD PTR _this$[ebp]
	mov	edx, DWORD PTR [ecx+200]
	mov	eax, DWORD PTR _this$[ebp]
	mov	edx, DWORD PTR [edx]
	mov	ecx, DWORD PTR [eax+200]
	mov	eax, DWORD PTR [edx+216]
	call	eax
	test	eax, eax
	je	SHORT $LN4@StartDrag

; 1801 : 		{
; 1802 : 			Drag_=Grab_;

	mov	esi, DWORD PTR _this$[ebp]
	add	esi, 172				; 000000acH
	mov	edi, DWORD PTR _this$[ebp]
	add	edi, 204				; 000000ccH
	mov	ecx, 8
	rep movsd
$LN4@StartDrag:

; 1803 : 			//ShowCursor(FALSE);
; 1804 : 		}
; 1805 : 	}

	jmp	SHORT $LN7@StartDrag
$LN5@StartDrag:

; 1806 : 	else if(Grab_.Window_)

	mov	ecx, DWORD PTR _this$[ebp]
	cmp	DWORD PTR [ecx+196], 0
	je	SHORT $LN7@StartDrag

; 1807 : 	{
; 1808 : 		if(Grab_.Window_->GetFlags() & C_BIT_DRAGABLE)

	mov	edx, DWORD PTR _this$[ebp]
	mov	ecx, DWORD PTR [edx+196]
	call	?GetFlags@C_Window@@QAEJXZ		; C_Window::GetFlags
	and	eax, 4096				; 00001000H
	je	SHORT $LN7@StartDrag

; 1809 : 		{
; 1810 : 			Drag_=Grab_;

	mov	esi, DWORD PTR _this$[ebp]
	add	esi, 172				; 000000acH
	mov	edi, DWORD PTR _this$[ebp]
	add	edi, 204				; 000000ccH
	mov	ecx, 8
	rep movsd
$LN7@StartDrag:

; 1811 : 			//ShowCursor(FALSE);
; 1812 : 		}
; 1813 : 	}
; 1814 : }

	pop	edi
	pop	esi
	mov	esp, ebp
	pop	ebp
	ret	0
?StartDrag@C_Handler@@QAEXXZ ENDP			; C_Handler::StartDrag
_TEXT	ENDS
; Function compile flags: /Odtp
; File c:\users\zhitao li\documents\visual studio 2012\projects\freefalcon\ui95\chandler.cpp
_TEXT	SEGMENT
_this$ = -4						; size = 4
?DropControl@C_Handler@@QAEXXZ PROC			; C_Handler::DropControl
; _this$ = ecx

; 1900 : {

	push	ebp
	mov	ebp, esp
	push	ecx
	mov	DWORD PTR _this$[ebp], ecx

; 1901 : 	Grab_.Control_=NULL;

	mov	eax, DWORD PTR _this$[ebp]
	mov	DWORD PTR [eax+200], 0

; 1902 : 	Grab_.Window_=NULL;

	mov	ecx, DWORD PTR _this$[ebp]
	mov	DWORD PTR [ecx+196], 0

; 1903 : }

	mov	esp, ebp
	pop	ebp
	ret	0
?DropControl@C_Handler@@QAEXXZ ENDP			; C_Handler::DropControl
_TEXT	ENDS
; Function compile flags: /Odtp
; File c:\users\zhitao li\documents\visual studio 2012\projects\freefalcon\ui95\chandler.cpp
_TEXT	SEGMENT
_this$ = -4						; size = 4
_control$ = 8						; size = 4
?RemovingControl@C_Handler@@QAEXPAVC_Base@@@Z PROC	; C_Handler::RemovingControl
; _this$ = ecx

; 1906 : {

	push	ebp
	mov	ebp, esp
	push	ecx
	mov	DWORD PTR _this$[ebp], ecx

; 1907 : 	// Warn chandler that a control it might be referncing is being deleted
; 1908 : 	if(MouseControl_ == control)

	mov	eax, DWORD PTR _this$[ebp]
	mov	ecx, DWORD PTR [eax+260]
	cmp	ecx, DWORD PTR _control$[ebp]
	jne	SHORT $LN6@RemovingCo

; 1909 : 	{
; 1910 : 		MouseControl_->Refresh();

	mov	edx, DWORD PTR _this$[ebp]
	mov	eax, DWORD PTR [edx+260]
	mov	ecx, DWORD PTR _this$[ebp]
	mov	edx, DWORD PTR [eax]
	mov	ecx, DWORD PTR [ecx+260]
	mov	eax, DWORD PTR [edx+160]
	call	eax

; 1911 : 		MouseControl_=NULL;

	mov	ecx, DWORD PTR _this$[ebp]
	mov	DWORD PTR [ecx+260], 0
$LN6@RemovingCo:

; 1912 : 	}
; 1913 : 	if(OverControl_ == control)

	mov	edx, DWORD PTR _this$[ebp]
	mov	eax, DWORD PTR [edx+128]
	cmp	eax, DWORD PTR _control$[ebp]
	jne	SHORT $LN5@RemovingCo

; 1914 : 		OverControl_=NULL;

	mov	ecx, DWORD PTR _this$[ebp]
	mov	DWORD PTR [ecx+128], 0
$LN5@RemovingCo:

; 1915 : 	if(Grab_.Control_ == control)

	mov	edx, DWORD PTR _this$[ebp]
	mov	eax, DWORD PTR [edx+200]
	cmp	eax, DWORD PTR _control$[ebp]
	jne	SHORT $LN4@RemovingCo

; 1916 : 	{
; 1917 : 		Grab_.Control_=NULL;

	mov	ecx, DWORD PTR _this$[ebp]
	mov	DWORD PTR [ecx+200], 0

; 1918 : 		Grab_.Window_=NULL;

	mov	edx, DWORD PTR _this$[ebp]
	mov	DWORD PTR [edx+196], 0
$LN4@RemovingCo:

; 1919 : 	}
; 1920 : 	if(Drag_.Control_ == control)

	mov	eax, DWORD PTR _this$[ebp]
	mov	ecx, DWORD PTR [eax+232]
	cmp	ecx, DWORD PTR _control$[ebp]
	jne	SHORT $LN3@RemovingCo

; 1921 : 	{
; 1922 : 		Drag_.Control_=NULL;

	mov	edx, DWORD PTR _this$[ebp]
	mov	DWORD PTR [edx+232], 0

; 1923 : 		Drag_.Window_=NULL;

	mov	eax, DWORD PTR _this$[ebp]
	mov	DWORD PTR [eax+228], 0
$LN3@RemovingCo:

; 1924 : 	}
; 1925 : 	if(gPopupMgr->AMenuOpened())

	mov	ecx, DWORD PTR ?gPopupMgr@@3PAVC_PopupMgr@@A ; gPopupMgr
	call	?AMenuOpened@C_PopupMgr@@QAEHXZ		; C_PopupMgr::AMenuOpened
	test	eax, eax
	je	SHORT $LN7@RemovingCo

; 1926 : 	{
; 1927 : 		if(gPopupMgr->GetCallingControl() && gPopupMgr->GetCallingControl() ==  control)

	mov	ecx, DWORD PTR ?gPopupMgr@@3PAVC_PopupMgr@@A ; gPopupMgr
	call	?GetCallingControl@C_PopupMgr@@QAEPAVC_Base@@XZ ; C_PopupMgr::GetCallingControl
	test	eax, eax
	je	SHORT $LN7@RemovingCo
	mov	ecx, DWORD PTR ?gPopupMgr@@3PAVC_PopupMgr@@A ; gPopupMgr
	call	?GetCallingControl@C_PopupMgr@@QAEPAVC_Base@@XZ ; C_PopupMgr::GetCallingControl
	cmp	eax, DWORD PTR _control$[ebp]
	jne	SHORT $LN7@RemovingCo

; 1928 : 			gPopupMgr->CloseMenu();

	mov	ecx, DWORD PTR ?gPopupMgr@@3PAVC_PopupMgr@@A ; gPopupMgr
	call	?CloseMenu@C_PopupMgr@@QAEXXZ		; C_PopupMgr::CloseMenu
$LN7@RemovingCo:

; 1929 : 	}
; 1930 : }

	mov	esp, ebp
	pop	ebp
	ret	4
?RemovingControl@C_Handler@@QAEXPAVC_Base@@@Z ENDP	; C_Handler::RemovingControl
_TEXT	ENDS
; Function compile flags: /Odtp
; File c:\users\zhitao li\documents\visual studio 2012\projects\freefalcon\ui95\chandler.cpp
_TEXT	SEGMENT
_this$ = -4						; size = 4
?Unlock@C_Handler@@QAEXXZ PROC				; C_Handler::Unlock
; _this$ = ecx

; 347  : {

	push	ebp
	mov	ebp, esp
	push	ecx
	mov	DWORD PTR _this$[ebp], ecx

; 348  : 	if(Front_)

	mov	eax, DWORD PTR _this$[ebp]
	cmp	DWORD PTR [eax+16], 0
	je	SHORT $LN2@Unlock

; 349  : 	{
; 350  : 		Front_->Unlock();

	mov	ecx, DWORD PTR _this$[ebp]
	mov	ecx, DWORD PTR [ecx+16]
	call	?Unlock@ImageBuffer@@QAEXXZ		; ImageBuffer::Unlock

; 351  : 		surface_.mem=NULL;

	mov	edx, DWORD PTR _this$[ebp]
	mov	DWORD PTR [edx+20], 0

; 352  : 		surface_.width=0;

	xor	eax, eax
	mov	ecx, DWORD PTR _this$[ebp]
	mov	WORD PTR [ecx+24], ax

; 353  : 		surface_.height=0;

	xor	edx, edx
	mov	eax, DWORD PTR _this$[ebp]
	mov	WORD PTR [eax+26], dx

; 354  : 		//XX
; 355  : 		surface_.bpp=0;

	mov	ecx, DWORD PTR _this$[ebp]
	mov	BYTE PTR [ecx+28], 0
$LN2@Unlock:

; 356  : 	}
; 357  : }

	mov	esp, ebp
	pop	ebp
	ret	0
?Unlock@C_Handler@@QAEXXZ ENDP				; C_Handler::Unlock
_TEXT	ENDS
; Function compile flags: /Odtp
; File c:\users\zhitao li\documents\visual studio 2012\projects\freefalcon\ui95\chandler.cpp
_TEXT	SEGMENT
_this$ = -4						; size = 4
?Lock@C_Handler@@QAEPAXXZ PROC				; C_Handler::Lock
; _this$ = ecx

; 329  : {

	push	ebp
	mov	ebp, esp
	push	ecx
	push	esi
	mov	DWORD PTR _this$[ebp], ecx

; 330  : 	if(Front_)

	mov	eax, DWORD PTR _this$[ebp]
	cmp	DWORD PTR [eax+16], 0
	je	SHORT $LN1@Lock

; 331  : 	{
; 332  : 		surface_.mem	= (WORD *)Front_->Lock();

	push	1
	push	0
	mov	ecx, DWORD PTR _this$[ebp]
	mov	ecx, DWORD PTR [ecx+16]
	call	?Lock@ImageBuffer@@QAEPAX_N0@Z		; ImageBuffer::Lock
	mov	edx, DWORD PTR _this$[ebp]
	mov	DWORD PTR [edx+20], eax

; 333  : 
; 334  : //		surface_.width	= (short)Front_->targetXres();	//!
; 335  : 		surface_.width	= (short)Front_->targetStride() / Front_->PixelSize();	// OW

	mov	eax, DWORD PTR _this$[ebp]
	mov	ecx, DWORD PTR [eax+16]
	call	?targetStride@ImageBuffer@@QAEHXZ	; ImageBuffer::targetStride
	movsx	esi, ax
	mov	ecx, DWORD PTR _this$[ebp]
	mov	ecx, DWORD PTR [ecx+16]
	call	?PixelSize@ImageBuffer@@QAEHXZ		; ImageBuffer::PixelSize
	mov	ecx, eax
	mov	eax, esi
	cdq
	idiv	ecx
	mov	edx, DWORD PTR _this$[ebp]
	mov	WORD PTR [edx+24], ax

; 336  : 
; 337  : 		surface_.height	= (short)Front_->targetYres();	//!

	mov	eax, DWORD PTR _this$[ebp]
	mov	ecx, DWORD PTR [eax+16]
	call	?targetYres@ImageBuffer@@QAEHXZ		; ImageBuffer::targetYres
	mov	ecx, DWORD PTR _this$[ebp]
	mov	WORD PTR [ecx+26], ax

; 338  : 		//XX
; 339  : 		surface_.bpp = Front_->PixelSize() << 3;//bytes->bits

	mov	edx, DWORD PTR _this$[ebp]
	mov	ecx, DWORD PTR [edx+16]
	call	?PixelSize@ImageBuffer@@QAEHXZ		; ImageBuffer::PixelSize
	shl	eax, 3
	mov	ecx, DWORD PTR _this$[ebp]
	mov	BYTE PTR [ecx+28], al

; 340  : 		surface_.owner = Front_;

	mov	edx, DWORD PTR _this$[ebp]
	mov	eax, DWORD PTR _this$[ebp]
	mov	ecx, DWORD PTR [eax+16]
	mov	DWORD PTR [edx+32], ecx
$LN1@Lock:

; 341  : 	}
; 342  : 
; 343  : 	return(surface_.mem);

	mov	edx, DWORD PTR _this$[ebp]
	mov	eax, DWORD PTR [edx+20]

; 344  : }

	pop	esi
	mov	esp, ebp
	pop	ebp
	ret	0
?Lock@C_Handler@@QAEPAXXZ ENDP				; C_Handler::Lock
_TEXT	ENDS
; Function compile flags: /Odtp
; File c:\users\zhitao li\documents\visual studio 2012\projects\freefalcon\ui95\chandler.cpp
_TEXT	SEGMENT
_this$ = -40						; size = 4
_src$ = -36						; size = 16
_dest$ = -20						; size = 16
__$ArrayPad$ = -4					; size = 4
_win$ = 8						; size = 4
?BlitWindowNow@C_Handler@@QAEXPAVC_Window@@@Z PROC	; C_Handler::BlitWindowNow
; _this$ = ecx

; 1853 : {

	push	ebp
	mov	ebp, esp
	sub	esp, 40					; 00000028H
	mov	eax, DWORD PTR ___security_cookie
	xor	eax, ebp
	mov	DWORD PTR __$ArrayPad$[ebp], eax
	mov	DWORD PTR _this$[ebp], ecx

; 1854 : 	RECT src,dest;
; 1855 : 
; 1856 : 	if(win == NULL)

	cmp	DWORD PTR _win$[ebp], 0
	jne	SHORT $LN1@BlitWindow

; 1857 : 		return;

	jmp	$LN2@BlitWindow
$LN1@BlitWindow:

; 1858 : 
; 1859 : 	src.left=0;

	mov	DWORD PTR _src$[ebp], 0

; 1860 : 	src.top=0;

	mov	DWORD PTR _src$[ebp+4], 0

; 1861 : 	src.right=win->GetW();

	mov	ecx, DWORD PTR _win$[ebp]
	call	?GetW@C_Window@@QAEFXZ			; C_Window::GetW
	cwde
	mov	DWORD PTR _src$[ebp+8], eax

; 1862 : 	src.bottom=win->GetH();

	mov	ecx, DWORD PTR _win$[ebp]
	call	?GetH@C_Window@@QAEFXZ			; C_Window::GetH
	movsx	ecx, ax
	mov	DWORD PTR _src$[ebp+12], ecx

; 1863 : 
; 1864 : 	dest=src;

	mov	edx, DWORD PTR _src$[ebp]
	mov	DWORD PTR _dest$[ebp], edx
	mov	eax, DWORD PTR _src$[ebp+4]
	mov	DWORD PTR _dest$[ebp+4], eax
	mov	ecx, DWORD PTR _src$[ebp+8]
	mov	DWORD PTR _dest$[ebp+8], ecx
	mov	edx, DWORD PTR _src$[ebp+12]
	mov	DWORD PTR _dest$[ebp+12], edx

; 1865 : 	dest.left+=win->GetX();

	mov	ecx, DWORD PTR _win$[ebp]
	call	?GetX@C_Window@@QAEFXZ			; C_Window::GetX
	cwde
	add	eax, DWORD PTR _dest$[ebp]
	mov	DWORD PTR _dest$[ebp], eax

; 1866 : 	dest.right+=win->GetX();

	mov	ecx, DWORD PTR _win$[ebp]
	call	?GetX@C_Window@@QAEFXZ			; C_Window::GetX
	movsx	ecx, ax
	add	ecx, DWORD PTR _dest$[ebp+8]
	mov	DWORD PTR _dest$[ebp+8], ecx

; 1867 : 	dest.top+=win->GetY();

	mov	ecx, DWORD PTR _win$[ebp]
	call	?GetY@C_Window@@QAEFXZ			; C_Window::GetY
	movsx	edx, ax
	add	edx, DWORD PTR _dest$[ebp+4]
	mov	DWORD PTR _dest$[ebp+4], edx

; 1868 : 	dest.bottom+=win->GetY();

	mov	ecx, DWORD PTR _win$[ebp]
	call	?GetY@C_Window@@QAEFXZ			; C_Window::GetY
	cwde
	add	eax, DWORD PTR _dest$[ebp+12]
	mov	DWORD PTR _dest$[ebp+12], eax

; 1869 : // ImageBuf should handle this...
; 1870 : //	dest.left+=PrimaryRect_.left;
; 1871 : //	dest.right+=PrimaryRect_.left;
; 1872 : //	dest.top+=PrimaryRect_.top;
; 1873 : //	dest.bottom+=PrimaryRect_.top;
; 1874 : 
; 1875 : 	Primary_->Compose( win->GetSurface(), &src, &dest ); 

	lea	ecx, DWORD PTR _dest$[ebp]
	push	ecx
	lea	edx, DWORD PTR _src$[ebp]
	push	edx
	mov	ecx, DWORD PTR _win$[ebp]
	call	?GetSurface@C_Window@@QAEPAVImageBuffer@@XZ ; C_Window::GetSurface
	push	eax
	mov	eax, DWORD PTR _this$[ebp]
	mov	ecx, DWORD PTR [eax+12]
	call	?Compose@ImageBuffer@@QAEXPAV1@PAUtagRECT@@1@Z ; ImageBuffer::Compose
$LN2@BlitWindow:

; 1876 : }

	mov	ecx, DWORD PTR __$ArrayPad$[ebp]
	xor	ecx, ebp
	call	@__security_check_cookie@4
	mov	esp, ebp
	pop	ebp
	ret	4
?BlitWindowNow@C_Handler@@QAEXPAVC_Window@@@Z ENDP	; C_Handler::BlitWindowNow
_TEXT	ENDS
; Function compile flags: /Odtp
; File c:\users\zhitao li\documents\visual studio 2012\projects\freefalcon\ui95\chandler.cpp
_TEXT	SEGMENT
_this$ = -8						; size = 4
_cur$ = -4						; size = 4
_win$ = 8						; size = 4
?_GetNextWindow@C_Handler@@QAEPAVC_Window@@PAV2@@Z PROC	; C_Handler::_GetNextWindow
; _this$ = ecx

; 512  : {

	push	ebp
	mov	ebp, esp
	sub	esp, 8
	mov	DWORD PTR _this$[ebp], ecx

; 513  : 	WHLIST *cur;
; 514  : 
; 515  : 	EnterCritical();

	mov	ecx, DWORD PTR _this$[ebp]
	call	?EnterCritical@C_Handler@@QAEXXZ	; C_Handler::EnterCritical

; 516  : 	cur=Root_;

	mov	eax, DWORD PTR _this$[ebp]
	mov	ecx, DWORD PTR [eax]
	mov	DWORD PTR _cur$[ebp], ecx
$LN4@GetNextWin:

; 517  : 	while(cur)

	cmp	DWORD PTR _cur$[ebp], 0
	je	SHORT $LN3@GetNextWin

; 518  : 	{
; 519  : 		if(cur->win == win)

	mov	edx, DWORD PTR _cur$[ebp]
	mov	eax, DWORD PTR [edx]
	cmp	eax, DWORD PTR _win$[ebp]
	jne	SHORT $LN2@GetNextWin

; 520  : 		{
; 521  : 			LeaveCritical();

	mov	ecx, DWORD PTR _this$[ebp]
	call	?LeaveCritical@C_Handler@@QAEXXZ	; C_Handler::LeaveCritical

; 522  : 			if(cur->Next == NULL)

	mov	ecx, DWORD PTR _cur$[ebp]
	cmp	DWORD PTR [ecx+12], 0
	jne	SHORT $LN1@GetNextWin

; 523  : 				return(NULL);

	xor	eax, eax
	jmp	SHORT $LN5@GetNextWin
$LN1@GetNextWin:

; 524  : 			return(cur->Next->win);

	mov	edx, DWORD PTR _cur$[ebp]
	mov	eax, DWORD PTR [edx+12]
	mov	eax, DWORD PTR [eax]
	jmp	SHORT $LN5@GetNextWin
$LN2@GetNextWin:

; 525  : 		}
; 526  : 		cur=cur->Next;

	mov	ecx, DWORD PTR _cur$[ebp]
	mov	edx, DWORD PTR [ecx+12]
	mov	DWORD PTR _cur$[ebp], edx

; 527  : 	}

	jmp	SHORT $LN4@GetNextWin
$LN3@GetNextWin:

; 528  : 	LeaveCritical();

	mov	ecx, DWORD PTR _this$[ebp]
	call	?LeaveCritical@C_Handler@@QAEXXZ	; C_Handler::LeaveCritical

; 529  : 	return(NULL);

	xor	eax, eax
$LN5@GetNextWin:

; 530  : }

	mov	esp, ebp
	pop	ebp
	ret	4
?_GetNextWindow@C_Handler@@QAEPAVC_Window@@PAV2@@Z ENDP	; C_Handler::_GetNextWindow
_TEXT	ENDS
; Function compile flags: /Odtp
; File c:\users\zhitao li\documents\visual studio 2012\projects\freefalcon\ui95\chandler.cpp
_TEXT	SEGMENT
_this$ = -4						; size = 4
?_GetFirstWindow@C_Handler@@QAEPAVC_Window@@XZ PROC	; C_Handler::_GetFirstWindow
; _this$ = ecx

; 503  : {

	push	ebp
	mov	ebp, esp
	push	ecx
	mov	DWORD PTR _this$[ebp], ecx

; 504  : 	EnterCritical();

	mov	ecx, DWORD PTR _this$[ebp]
	call	?EnterCritical@C_Handler@@QAEXXZ	; C_Handler::EnterCritical

; 505  : 	LeaveCritical();

	mov	ecx, DWORD PTR _this$[ebp]
	call	?LeaveCritical@C_Handler@@QAEXXZ	; C_Handler::LeaveCritical

; 506  : 	if(Root_)

	mov	eax, DWORD PTR _this$[ebp]
	cmp	DWORD PTR [eax], 0
	je	SHORT $LN1@GetFirstWi

; 507  : 		return(Root_->win);

	mov	ecx, DWORD PTR _this$[ebp]
	mov	edx, DWORD PTR [ecx]
	mov	eax, DWORD PTR [edx]
	jmp	SHORT $LN2@GetFirstWi
$LN1@GetFirstWi:

; 508  : 	return(NULL);

	xor	eax, eax
$LN2@GetFirstWi:

; 509  : }

	mov	esp, ebp
	pop	ebp
	ret	0
?_GetFirstWindow@C_Handler@@QAEPAVC_Window@@XZ ENDP	; C_Handler::_GetFirstWindow
_TEXT	ENDS
; Function compile flags: /Odtp
; File c:\users\zhitao li\documents\visual studio 2012\projects\freefalcon\ui95\chandler.cpp
_TEXT	SEGMENT
_this$ = -8						; size = 4
_cur$ = -4						; size = 4
_ID$ = 8						; size = 4
?FindWindowA@C_Handler@@QAEPAVC_Window@@J@Z PROC	; C_Handler::FindWindowA
; _this$ = ecx

; 472  : {

	push	ebp
	mov	ebp, esp
	sub	esp, 8
	mov	DWORD PTR _this$[ebp], ecx

; 473  : 	if (F4IsBadReadPtr(this, sizeof(C_Handler))) // JB 010317 CTD

	push	3480					; 00000d98H
	mov	eax, DWORD PTR _this$[ebp]
	push	eax
	call	?F4IsBadReadPtr@@YA_NPBXI@Z		; F4IsBadReadPtr
	add	esp, 8
	movzx	ecx, al
	test	ecx, ecx
	je	SHORT $LN4@FindWindow

; 474  : 		return NULL;

	xor	eax, eax
	jmp	SHORT $LN5@FindWindow
$LN4@FindWindow:

; 475  : 
; 476  : 	WHLIST *cur;
; 477  : 
; 478  : 	cur=Root_;

	mov	edx, DWORD PTR _this$[ebp]
	mov	eax, DWORD PTR [edx]
	mov	DWORD PTR _cur$[ebp], eax
$LN3@FindWindow:

; 479  : 	while(cur)

	cmp	DWORD PTR _cur$[ebp], 0
	je	SHORT $LN2@FindWindow

; 480  : 	{
; 481  : 		if(cur->win->GetID() == ID)

	mov	ecx, DWORD PTR _cur$[ebp]
	mov	ecx, DWORD PTR [ecx]
	call	?GetID@C_Window@@QAEJXZ			; C_Window::GetID
	cmp	eax, DWORD PTR _ID$[ebp]
	jne	SHORT $LN1@FindWindow

; 482  : 			return(cur->win);

	mov	edx, DWORD PTR _cur$[ebp]
	mov	eax, DWORD PTR [edx]
	jmp	SHORT $LN5@FindWindow
$LN1@FindWindow:

; 483  : 		cur=cur->Next;

	mov	eax, DWORD PTR _cur$[ebp]
	mov	ecx, DWORD PTR [eax+12]
	mov	DWORD PTR _cur$[ebp], ecx

; 484  : 	}

	jmp	SHORT $LN3@FindWindow
$LN2@FindWindow:

; 485  : 	return(NULL);

	xor	eax, eax
$LN5@FindWindow:

; 486  : }

	mov	esp, ebp
	pop	ebp
	ret	4
?FindWindowA@C_Handler@@QAEPAVC_Window@@J@Z ENDP	; C_Handler::FindWindowA
_TEXT	ENDS
; Function compile flags: /Odtp
; File c:\users\zhitao li\documents\visual studio 2012\projects\freefalcon\ui95\chandler.cpp
_TEXT	SEGMENT
_this$ = -12						; size = 4
_overme$ = -8						; size = 4
_cur$ = -4						; size = 4
_x$ = 8							; size = 2
_y$ = 12						; size = 2
?GetWindow@C_Handler@@QAEPAVC_Window@@FF@Z PROC		; C_Handler::GetWindow
; _this$ = ecx

; 1385 : {

	push	ebp
	mov	ebp, esp
	sub	esp, 12					; 0000000cH
	push	esi
	push	edi
	mov	DWORD PTR _this$[ebp], ecx

; 1386 : 	WHLIST *cur;
; 1387 : 	C_Window *overme;
; 1388 : 
; 1389 : 	overme=NULL;

	mov	DWORD PTR _overme$[ebp], 0

; 1390 : 
; 1391 : 	cur=Root_;

	mov	eax, DWORD PTR _this$[ebp]
	mov	ecx, DWORD PTR [eax]
	mov	DWORD PTR _cur$[ebp], ecx
$LN5@GetWindow:

; 1392 : 	while(cur)

	cmp	DWORD PTR _cur$[ebp], 0
	je	$LN4@GetWindow

; 1393 : 	{
; 1394 : 		if(cur->Flags & C_BIT_ENABLED)

	mov	edx, DWORD PTR _cur$[ebp]
	mov	eax, DWORD PTR [edx+4]
	and	eax, 2048				; 00000800H
	je	$LN3@GetWindow

; 1395 : 		{
; 1396 : 			if(x >= cur->win->GetX() && y >= cur->win->GetY() &&
; 1397 : 			   x <= (cur->win->GetX()+cur->win->GetW()) &&
; 1398 : 			   y <= (cur->win->GetY()+cur->win->GetH()))

	movsx	esi, WORD PTR _x$[ebp]
	mov	ecx, DWORD PTR _cur$[ebp]
	mov	ecx, DWORD PTR [ecx]
	call	?GetX@C_Window@@QAEFXZ			; C_Window::GetX
	movsx	edx, ax
	cmp	esi, edx
	jl	SHORT $LN2@GetWindow
	movsx	esi, WORD PTR _y$[ebp]
	mov	eax, DWORD PTR _cur$[ebp]
	mov	ecx, DWORD PTR [eax]
	call	?GetY@C_Window@@QAEFXZ			; C_Window::GetY
	movsx	ecx, ax
	cmp	esi, ecx
	jl	SHORT $LN2@GetWindow
	movsx	esi, WORD PTR _x$[ebp]
	mov	edx, DWORD PTR _cur$[ebp]
	mov	ecx, DWORD PTR [edx]
	call	?GetX@C_Window@@QAEFXZ			; C_Window::GetX
	movsx	edi, ax
	mov	eax, DWORD PTR _cur$[ebp]
	mov	ecx, DWORD PTR [eax]
	call	?GetW@C_Window@@QAEFXZ			; C_Window::GetW
	movsx	ecx, ax
	add	edi, ecx
	cmp	esi, edi
	jg	SHORT $LN2@GetWindow
	movsx	esi, WORD PTR _y$[ebp]
	mov	edx, DWORD PTR _cur$[ebp]
	mov	ecx, DWORD PTR [edx]
	call	?GetY@C_Window@@QAEFXZ			; C_Window::GetY
	movsx	edi, ax
	mov	eax, DWORD PTR _cur$[ebp]
	mov	ecx, DWORD PTR [eax]
	call	?GetH@C_Window@@QAEFXZ			; C_Window::GetH
	movsx	ecx, ax
	add	edi, ecx
	cmp	esi, edi
	jg	SHORT $LN2@GetWindow

; 1399 : 			   overme=cur->win;

	mov	edx, DWORD PTR _cur$[ebp]
	mov	eax, DWORD PTR [edx]
	mov	DWORD PTR _overme$[ebp], eax
$LN2@GetWindow:

; 1400 : 
; 1401 : 			if(cur->win->GetType() == C_TYPE_EXCLUSIVE)

	mov	ecx, DWORD PTR _cur$[ebp]
	mov	ecx, DWORD PTR [ecx]
	call	?GetType@C_Window@@QAEFXZ		; C_Window::GetType
	movsx	edx, ax
	cmp	edx, 60					; 0000003cH
	jne	SHORT $LN3@GetWindow

; 1402 : 				overme=cur->win;

	mov	eax, DWORD PTR _cur$[ebp]
	mov	ecx, DWORD PTR [eax]
	mov	DWORD PTR _overme$[ebp], ecx
$LN3@GetWindow:

; 1403 : 		}
; 1404 : 		cur=cur->Next;

	mov	edx, DWORD PTR _cur$[ebp]
	mov	eax, DWORD PTR [edx+12]
	mov	DWORD PTR _cur$[ebp], eax

; 1405 : 	}

	jmp	$LN5@GetWindow
$LN4@GetWindow:

; 1406 : 	return(overme);

	mov	eax, DWORD PTR _overme$[ebp]

; 1407 : }

	pop	edi
	pop	esi
	mov	esp, ebp
	pop	ebp
	ret	8
?GetWindow@C_Handler@@QAEPAVC_Window@@FF@Z ENDP		; C_Handler::GetWindow
_TEXT	ENDS
; Function compile flags: /Odtp
; File c:\users\zhitao li\documents\visual studio 2012\projects\freefalcon\ui95\chandler.cpp
_TEXT	SEGMENT
_this$ = -8						; size = 4
_cur$ = -4						; size = 4
_ID$ = 8						; size = 4
?GetWindowFlags@C_Handler@@QAEJJ@Z PROC			; C_Handler::GetWindowFlags
; _this$ = ecx

; 489  : {

	push	ebp
	mov	ebp, esp
	sub	esp, 8
	mov	DWORD PTR _this$[ebp], ecx

; 490  : 	WHLIST *cur;
; 491  : 
; 492  : 	cur=Root_;

	mov	eax, DWORD PTR _this$[ebp]
	mov	ecx, DWORD PTR [eax]
	mov	DWORD PTR _cur$[ebp], ecx
$LN3@GetWindowF:

; 493  : 	while(cur)

	cmp	DWORD PTR _cur$[ebp], 0
	je	SHORT $LN2@GetWindowF

; 494  : 	{
; 495  : 		if(cur->win->GetID() == ID)

	mov	edx, DWORD PTR _cur$[ebp]
	mov	ecx, DWORD PTR [edx]
	call	?GetID@C_Window@@QAEJXZ			; C_Window::GetID
	cmp	eax, DWORD PTR _ID$[ebp]
	jne	SHORT $LN1@GetWindowF

; 496  : 			return(cur->Flags);

	mov	eax, DWORD PTR _cur$[ebp]
	mov	eax, DWORD PTR [eax+4]
	jmp	SHORT $LN4@GetWindowF
$LN1@GetWindowF:

; 497  : 		cur=cur->Next;

	mov	ecx, DWORD PTR _cur$[ebp]
	mov	edx, DWORD PTR [ecx+12]
	mov	DWORD PTR _cur$[ebp], edx

; 498  : 	}

	jmp	SHORT $LN3@GetWindowF
$LN2@GetWindowF:

; 499  : 	return(0);

	xor	eax, eax
$LN4@GetWindowF:

; 500  : }

	mov	esp, ebp
	pop	ebp
	ret	4
?GetWindowFlags@C_Handler@@QAEJJ@Z ENDP			; C_Handler::GetWindowFlags
_TEXT	ENDS
; Function compile flags: /Odtp
; File c:\users\zhitao li\documents\visual studio 2012\projects\freefalcon\ui95\chandler.cpp
_TEXT	SEGMENT
_this$ = -4						; size = 4
?SendUpdate@C_Handler@@QAEXXZ PROC			; C_Handler::SendUpdate
; _this$ = ecx

; 1885 : {

	push	ebp
	mov	ebp, esp
	push	ecx
	mov	DWORD PTR _this$[ebp], ecx

; 1886 : //	UpdateFlag |= C_DRAW_UPDATE;
; 1887 : //	SendMessage(AppWindow_,C_WM_UPDATE,0,0);
; 1888 : }

	mov	esp, ebp
	pop	ebp
	ret	0
?SendUpdate@C_Handler@@QAEXXZ ENDP			; C_Handler::SendUpdate
_TEXT	ENDS
; Function compile flags: /Odtp
; File c:\users\zhitao li\documents\visual studio 2012\projects\freefalcon\ui95\chandler.cpp
_TEXT	SEGMENT
_this$ = -4						; size = 4
?PostUpdate@C_Handler@@QAEXXZ PROC			; C_Handler::PostUpdate
; _this$ = ecx

; 1879 : {

	push	ebp
	mov	ebp, esp
	push	ecx
	mov	DWORD PTR _this$[ebp], ecx

; 1880 : //	UpdateFlag |= C_DRAW_UPDATE;
; 1881 : //	PostMessage(AppWindow_,C_WM_UPDATE,0,0);
; 1882 : }

	mov	esp, ebp
	pop	ebp
	ret	0
?PostUpdate@C_Handler@@QAEXXZ ENDP			; C_Handler::PostUpdate
_TEXT	ENDS
; Function compile flags: /Odtp
; File c:\users\zhitao li\documents\visual studio 2012\projects\freefalcon\ui95\chandler.cpp
_TEXT	SEGMENT
_this$ = -36						; size = 4
_cur$ = -32						; size = 4
_i$ = -28						; size = 2
_infront$ = -24						; size = 4
_src$ = -20						; size = 16
__$ArrayPad$ = -4					; size = 4
?CheckTranslucentWindows@C_Handler@@QAEXXZ PROC		; C_Handler::CheckTranslucentWindows
; _this$ = ecx

; 722  : {

	push	ebp
	mov	ebp, esp
	sub	esp, 36					; 00000024H
	mov	eax, DWORD PTR ___security_cookie
	xor	eax, ebp
	mov	DWORD PTR __$ArrayPad$[ebp], eax
	push	esi
	mov	DWORD PTR _this$[ebp], ecx

; 723  : 	WHLIST *cur,*infront;
; 724  : 	UI95_RECT src;
; 725  : 	short i;
; 726  : 
; 727  : 	EnterCritical();

	mov	ecx, DWORD PTR _this$[ebp]
	call	?EnterCritical@C_Handler@@QAEXXZ	; C_Handler::EnterCritical

; 728  : 	cur=Root_;

	mov	eax, DWORD PTR _this$[ebp]
	mov	ecx, DWORD PTR [eax]
	mov	DWORD PTR _cur$[ebp], ecx
$LN10@CheckTrans:

; 729  : 	while(cur)

	cmp	DWORD PTR _cur$[ebp], 0
	je	$LN9@CheckTrans

; 730  : 	{
; 731  : 		infront=cur->Next;

	mov	edx, DWORD PTR _cur$[ebp]
	mov	eax, DWORD PTR [edx+12]
	mov	DWORD PTR _infront$[ebp], eax

; 732  : 		if(cur->Flags & C_BIT_ENABLED)

	mov	ecx, DWORD PTR _cur$[ebp]
	mov	edx, DWORD PTR [ecx+4]
	and	edx, 2048				; 00000800H
	je	$LN8@CheckTrans
$LN7@CheckTrans:

; 733  : 			while(infront)

	cmp	DWORD PTR _infront$[ebp], 0
	je	$LN8@CheckTrans

; 734  : 			{
; 735  : 				if((infront->win->GetFlags() & C_BIT_TRANSLUCENT)
; 736  : 					&& (infront->win->update_ & (C_DRAW_COPYWINDOW|C_DRAW_REFRESH|C_DRAW_REFRESHALL))
; 737  : 					&& (infront->Flags & C_BIT_ENABLED))

	mov	eax, DWORD PTR _infront$[ebp]
	mov	ecx, DWORD PTR [eax]
	call	?GetFlags@C_Window@@QAEJXZ		; C_Window::GetFlags
	and	eax, 536870912				; 20000000H
	je	$LN5@CheckTrans
	mov	ecx, DWORD PTR _infront$[ebp]
	mov	edx, DWORD PTR [ecx]
	mov	eax, DWORD PTR [edx+104]
	and	eax, 268435459				; 10000003H
	je	$LN5@CheckTrans
	mov	ecx, DWORD PTR _infront$[ebp]
	mov	edx, DWORD PTR [ecx+4]
	and	edx, 2048				; 00000800H
	je	$LN5@CheckTrans

; 738  : 				{
; 739  : 					for(i=0;i<infront->win->rectcount_;i++)

	xor	eax, eax
	mov	WORD PTR _i$[ebp], ax
	jmp	SHORT $LN4@CheckTrans
$LN3@CheckTrans:
	mov	cx, WORD PTR _i$[ebp]
	add	cx, 1
	mov	WORD PTR _i$[ebp], cx
$LN4@CheckTrans:
	movsx	edx, WORD PTR _i$[ebp]
	mov	eax, DWORD PTR _infront$[ebp]
	mov	ecx, DWORD PTR [eax]
	movsx	eax, WORD PTR [ecx+1016]
	cmp	edx, eax
	jge	$LN5@CheckTrans

; 740  : 					{
; 741  : 						if(infront->win->rectflag_[i])

	mov	ecx, DWORD PTR _infront$[ebp]
	mov	edx, DWORD PTR [ecx]
	movsx	eax, WORD PTR _i$[ebp]
	movsx	ecx, WORD PTR [edx+eax*2+616]
	test	ecx, ecx
	je	$LN1@CheckTrans

; 742  : 						{
; 743  : 							src=infront->win->rectlist_[i];

	mov	edx, DWORD PTR _infront$[ebp]
	mov	eax, DWORD PTR [edx]
	movsx	ecx, WORD PTR _i$[ebp]
	shl	ecx, 4
	lea	edx, DWORD PTR [eax+ecx+1020]
	mov	eax, DWORD PTR [edx]
	mov	DWORD PTR _src$[ebp], eax
	mov	ecx, DWORD PTR [edx+4]
	mov	DWORD PTR _src$[ebp+4], ecx
	mov	eax, DWORD PTR [edx+8]
	mov	DWORD PTR _src$[ebp+8], eax
	mov	ecx, DWORD PTR [edx+12]
	mov	DWORD PTR _src$[ebp+12], ecx

; 744  : 
; 745  : 							src.left  +=infront->win->GetX()-cur->win->GetX();

	mov	edx, DWORD PTR _infront$[ebp]
	mov	ecx, DWORD PTR [edx]
	call	?GetX@C_Window@@QAEFXZ			; C_Window::GetX
	movsx	esi, ax
	mov	eax, DWORD PTR _cur$[ebp]
	mov	ecx, DWORD PTR [eax]
	call	?GetX@C_Window@@QAEFXZ			; C_Window::GetX
	movsx	ecx, ax
	sub	esi, ecx
	add	esi, DWORD PTR _src$[ebp]
	mov	DWORD PTR _src$[ebp], esi

; 746  : 							src.top   +=infront->win->GetY()-cur->win->GetY();

	mov	edx, DWORD PTR _infront$[ebp]
	mov	ecx, DWORD PTR [edx]
	call	?GetY@C_Window@@QAEFXZ			; C_Window::GetY
	movsx	esi, ax
	mov	eax, DWORD PTR _cur$[ebp]
	mov	ecx, DWORD PTR [eax]
	call	?GetY@C_Window@@QAEFXZ			; C_Window::GetY
	movsx	ecx, ax
	sub	esi, ecx
	add	esi, DWORD PTR _src$[ebp+4]
	mov	DWORD PTR _src$[ebp+4], esi

; 747  : 							src.right +=infront->win->GetX()-cur->win->GetX();

	mov	edx, DWORD PTR _infront$[ebp]
	mov	ecx, DWORD PTR [edx]
	call	?GetX@C_Window@@QAEFXZ			; C_Window::GetX
	movsx	esi, ax
	mov	eax, DWORD PTR _cur$[ebp]
	mov	ecx, DWORD PTR [eax]
	call	?GetX@C_Window@@QAEFXZ			; C_Window::GetX
	movsx	ecx, ax
	sub	esi, ecx
	add	esi, DWORD PTR _src$[ebp+8]
	mov	DWORD PTR _src$[ebp+8], esi

; 748  : 							src.bottom+=infront->win->GetY()-cur->win->GetY();

	mov	edx, DWORD PTR _infront$[ebp]
	mov	ecx, DWORD PTR [edx]
	call	?GetY@C_Window@@QAEFXZ			; C_Window::GetY
	movsx	esi, ax
	mov	eax, DWORD PTR _cur$[ebp]
	mov	ecx, DWORD PTR [eax]
	call	?GetY@C_Window@@QAEFXZ			; C_Window::GetY
	movsx	ecx, ax
	sub	esi, ecx
	add	esi, DWORD PTR _src$[ebp+12]
	mov	DWORD PTR _src$[ebp+12], esi

; 749  : 
; 750  : 							cur->win->SetUpdateRect(src.left,src.top,src.right,src.bottom,C_BIT_ABSOLUTE,0);

	push	0
	push	262144					; 00040000H
	mov	edx, DWORD PTR _src$[ebp+12]
	push	edx
	mov	eax, DWORD PTR _src$[ebp+8]
	push	eax
	mov	ecx, DWORD PTR _src$[ebp+4]
	push	ecx
	mov	edx, DWORD PTR _src$[ebp]
	push	edx
	mov	eax, DWORD PTR _cur$[ebp]
	mov	ecx, DWORD PTR [eax]
	call	?SetUpdateRect@C_Window@@QAEXJJJJJJ@Z	; C_Window::SetUpdateRect
$LN1@CheckTrans:

; 751  : 						}
; 752  : 					}

	jmp	$LN3@CheckTrans
$LN5@CheckTrans:

; 753  : 				}
; 754  : 				infront=infront->Next;

	mov	ecx, DWORD PTR _infront$[ebp]
	mov	edx, DWORD PTR [ecx+12]
	mov	DWORD PTR _infront$[ebp], edx

; 755  : 			}

	jmp	$LN7@CheckTrans
$LN8@CheckTrans:

; 756  : 		cur=cur->Next;

	mov	eax, DWORD PTR _cur$[ebp]
	mov	ecx, DWORD PTR [eax+12]
	mov	DWORD PTR _cur$[ebp], ecx

; 757  : 	}

	jmp	$LN10@CheckTrans
$LN9@CheckTrans:

; 758  : 	LeaveCritical();

	mov	ecx, DWORD PTR _this$[ebp]
	call	?LeaveCritical@C_Handler@@QAEXXZ	; C_Handler::LeaveCritical

; 759  : }

	pop	esi
	mov	ecx, DWORD PTR __$ArrayPad$[ebp]
	xor	ecx, ebp
	call	@__security_check_cookie@4
	mov	esp, ebp
	pop	ebp
	ret	0
?CheckTranslucentWindows@C_Handler@@QAEXXZ ENDP		; C_Handler::CheckTranslucentWindows
_TEXT	ENDS
; Function compile flags: /Odtp
; File c:\users\zhitao li\documents\visual studio 2012\projects\freefalcon\ui95\chandler.cpp
_TEXT	SEGMENT
_this$ = -8						; size = 4
_cur$ = -4						; size = 4
?UpdateTimerControls@C_Handler@@QAEXXZ PROC		; C_Handler::UpdateTimerControls
; _this$ = ecx

; 1213 : {

	push	ebp
	mov	ebp, esp
	sub	esp, 8
	mov	DWORD PTR _this$[ebp], ecx

; 1214 : 	WHLIST *cur;
; 1215 : 
; 1216 : 	cur=Root_;

	mov	eax, DWORD PTR _this$[ebp]
	mov	ecx, DWORD PTR [eax]
	mov	DWORD PTR _cur$[ebp], ecx
$LN5@UpdateTime:

; 1217 : 
; 1218 : 	while(cur)

	cmp	DWORD PTR _cur$[ebp], 0
	je	SHORT $LN4@UpdateTime

; 1219 : 	{
; 1220 : 		if(cur->Flags & C_BIT_ENABLED)

	mov	edx, DWORD PTR _cur$[ebp]
	mov	eax, DWORD PTR [edx+4]
	and	eax, 2048				; 00000800H
	je	SHORT $LN3@UpdateTime

; 1221 : 		{
; 1222 : 			if(cur->win->UpdateTimerControls())

	mov	ecx, DWORD PTR _cur$[ebp]
	mov	ecx, DWORD PTR [ecx]
	call	?UpdateTimerControls@C_Window@@QAEHXZ	; C_Window::UpdateTimerControls
	test	eax, eax
	je	SHORT $LN3@UpdateTime

; 1223 : 				cur->win->DrawTimerControls();

	mov	edx, DWORD PTR _cur$[ebp]
	mov	ecx, DWORD PTR [edx]
	call	?DrawTimerControls@C_Window@@QAEXXZ	; C_Window::DrawTimerControls
$LN3@UpdateTime:

; 1224 : 		}
; 1225 : 		cur=cur->Next;

	mov	eax, DWORD PTR _cur$[ebp]
	mov	ecx, DWORD PTR [eax+12]
	mov	DWORD PTR _cur$[ebp], ecx

; 1226 : 	}

	jmp	SHORT $LN5@UpdateTime
$LN4@UpdateTime:

; 1227 : 	if(UpdateFlag & (C_DRAW_REFRESH|C_DRAW_REFRESHALL))

	mov	edx, DWORD PTR _this$[ebp]
	mov	eax, DWORD PTR [edx+3472]
	and	eax, 3
	je	SHORT $LN6@UpdateTime

; 1228 : 		SetEvent(WakeOutput_);

	mov	ecx, DWORD PTR _this$[ebp]
	mov	edx, DWORD PTR [ecx+92]
	push	edx
	call	DWORD PTR __imp__SetEvent@4
$LN6@UpdateTime:

; 1229 : }

	mov	esp, ebp
	pop	ebp
	ret	0
?UpdateTimerControls@C_Handler@@QAEXXZ ENDP		; C_Handler::UpdateTimerControls
_TEXT	ENDS
; Function compile flags: /Odtp
; File c:\users\zhitao li\documents\visual studio 2012\projects\freefalcon\ui95\chandler.cpp
_TEXT	SEGMENT
_hres$1 = -52						; size = 4
tv73 = -48						; size = 4
_this$ = -44						; size = 4
_i$ = -40						; size = 2
_dest$ = -36						; size = 16
_src$ = -20						; size = 16
__$ArrayPad$ = -4					; size = 4
?CopyToPrimary@C_Handler@@QAEXXZ PROC			; C_Handler::CopyToPrimary
; _this$ = ecx

; 1112 : {

	push	ebp
	mov	ebp, esp
	sub	esp, 52					; 00000034H
	mov	eax, DWORD PTR ___security_cookie
	xor	eax, ebp
	mov	DWORD PTR __$ArrayPad$[ebp], eax
	mov	DWORD PTR _this$[ebp], ecx

; 1113 : 	short i;
; 1114 : 	RECT src,dest;
; 1115 : 
; 1116 : 	if(!DrawFlags)

	mov	eax, DWORD PTR _this$[ebp]
	cmp	DWORD PTR [eax+3476], 0
	jne	SHORT $LN9@CopyToPrim

; 1117 : 		return;

	jmp	$LN10@CopyToPrim
$LN9@CopyToPrim:

; 1118 : 
; 1119 : // OW now handled by running in software mode on V1 and V2
; 1120 : #if 0
; 1121 : 	if(Primary_ == Front_)
; 1122 : 	{
; 1123 : 		if(FalconDisplay.displayFullScreen && rectcount_ <= 1)
; 1124 : 		{
; 1125 : 			Primary_->SwapBuffers(true);	// dont flip, it would interfere with our clipping / update mechanics
; 1126 : 			rectcount_=0;
; 1127 : 			UpdateFlag=0;
; 1128 : 			return;
; 1129 : 		}
; 1130 : 	}
; 1131 : #endif
; 1132 : 
; 1133 : 	// Make sure the drivers isnt buffering any data
; 1134 : 	if(g_bCheckBltStatusBeforeFlip)

	movzx	ecx, BYTE PTR ?g_bCheckBltStatusBeforeFlip@@3_NA ; g_bCheckBltStatusBeforeFlip
	test	ecx, ecx
	je	SHORT $LN8@CopyToPrim
$LN7@CopyToPrim:

; 1135 : 	{
; 1136 : 		while(true)

	mov	edx, 1
	test	edx, edx
	je	SHORT $LN8@CopyToPrim

; 1137 : 		{
; 1138 : 			HRESULT hres = Primary_->frontSurface()->GetBltStatus(DDGBS_ISBLTDONE);

	mov	eax, DWORD PTR _this$[ebp]
	mov	ecx, DWORD PTR [eax+12]
	call	?frontSurface@ImageBuffer@@QAEPAUIDirectDrawSurface7@@XZ ; ImageBuffer::frontSurface
	mov	DWORD PTR tv73[ebp], eax
	push	2
	mov	ecx, DWORD PTR tv73[ebp]
	push	ecx
	mov	edx, DWORD PTR tv73[ebp]
	mov	eax, DWORD PTR [edx]
	mov	ecx, DWORD PTR [eax+52]
	call	ecx
	mov	DWORD PTR _hres$1[ebp], eax

; 1139 : 			if(hres != DDERR_WASSTILLDRAWING)

	cmp	DWORD PTR _hres$1[ebp], -2005532132	; 8876021cH
	je	SHORT $LN5@CopyToPrim

; 1140 : 			{
; 1141 : 					break;

	jmp	SHORT $LN8@CopyToPrim
$LN5@CopyToPrim:

; 1142 : 			}
; 1143 : 
; 1144 : 			// Let all the other threads have some CPU.
; 1145 : 			Sleep(0);

	push	0
	call	DWORD PTR __imp__Sleep@4

; 1146 : 		}

	jmp	SHORT $LN7@CopyToPrim
$LN8@CopyToPrim:

; 1147 : 	}
; 1148 : 
; 1149 : 	for(i=0;i<rectcount_;i++)

	xor	edx, edx
	mov	WORD PTR _i$[ebp], dx
	jmp	SHORT $LN4@CopyToPrim
$LN3@CopyToPrim:
	mov	ax, WORD PTR _i$[ebp]
	add	ax, 1
	mov	WORD PTR _i$[ebp], ax
$LN4@CopyToPrim:
	movsx	ecx, WORD PTR _i$[ebp]
	mov	edx, DWORD PTR _this$[ebp]
	movsx	eax, WORD PTR [edx+3464]
	cmp	ecx, eax
	jge	$LN2@CopyToPrim

; 1150 : 	{
; 1151 : 		src.left=rectlist_[i].left;

	movsx	ecx, WORD PTR _i$[ebp]
	shl	ecx, 4
	mov	edx, DWORD PTR _this$[ebp]
	mov	eax, DWORD PTR [edx+ecx+264]
	mov	DWORD PTR _src$[ebp], eax

; 1152 : 		src.top=rectlist_[i].top;

	movsx	ecx, WORD PTR _i$[ebp]
	shl	ecx, 4
	mov	edx, DWORD PTR _this$[ebp]
	mov	eax, DWORD PTR [edx+ecx+268]
	mov	DWORD PTR _src$[ebp+4], eax

; 1153 : 		src.right=rectlist_[i].right;

	movsx	ecx, WORD PTR _i$[ebp]
	shl	ecx, 4
	mov	edx, DWORD PTR _this$[ebp]
	mov	eax, DWORD PTR [edx+ecx+272]
	mov	DWORD PTR _src$[ebp+8], eax

; 1154 : 		src.bottom=rectlist_[i].bottom;

	movsx	ecx, WORD PTR _i$[ebp]
	shl	ecx, 4
	mov	edx, DWORD PTR _this$[ebp]
	mov	eax, DWORD PTR [edx+ecx+276]
	mov	DWORD PTR _src$[ebp+12], eax

; 1155 : 
; 1156 : 		dest=src;

	mov	ecx, DWORD PTR _src$[ebp]
	mov	DWORD PTR _dest$[ebp], ecx
	mov	edx, DWORD PTR _src$[ebp+4]
	mov	DWORD PTR _dest$[ebp+4], edx
	mov	eax, DWORD PTR _src$[ebp+8]
	mov	DWORD PTR _dest$[ebp+8], eax
	mov	ecx, DWORD PTR _src$[ebp+12]
	mov	DWORD PTR _dest$[ebp+12], ecx

; 1157 : // ImageBuf should handle this...
; 1158 : //		dest.left+=PrimaryRect_.left;
; 1159 : //		dest.right+=PrimaryRect_.left;
; 1160 : //		dest.top+=PrimaryRect_.top;
; 1161 : //		dest.bottom+=PrimaryRect_.top;
; 1162 : 
; 1163 : //			ShowCursor(FALSE);
; 1164 : 			if(src.left < src.right && src.top < src.bottom)

	mov	edx, DWORD PTR _src$[ebp]
	cmp	edx, DWORD PTR _src$[ebp+8]
	jge	SHORT $LN1@CopyToPrim
	mov	eax, DWORD PTR _src$[ebp+4]
	cmp	eax, DWORD PTR _src$[ebp+12]
	jge	SHORT $LN1@CopyToPrim

; 1165 : 				Primary_->Compose( Front_, &src, &dest ); 

	lea	ecx, DWORD PTR _dest$[ebp]
	push	ecx
	lea	edx, DWORD PTR _src$[ebp]
	push	edx
	mov	eax, DWORD PTR _this$[ebp]
	mov	ecx, DWORD PTR [eax+16]
	push	ecx
	mov	edx, DWORD PTR _this$[ebp]
	mov	ecx, DWORD PTR [edx+12]
	call	?Compose@ImageBuffer@@QAEXPAV1@PAUtagRECT@@1@Z ; ImageBuffer::Compose
$LN1@CopyToPrim:

; 1166 : //			ShowCursor(TRUE);
; 1167 : //			MonoPrint("CopyToPrimary(%1d,%1d,%1d,%1d)\n",dest.left,dest.top,dest.right,dest.bottom);
; 1168 : 	}

	jmp	$LN3@CopyToPrim
$LN2@CopyToPrim:

; 1169 : 
; 1170 : 	rectcount_=0;

	xor	eax, eax
	mov	ecx, DWORD PTR _this$[ebp]
	mov	WORD PTR [ecx+3464], ax

; 1171 : 
; 1172 : 	UpdateFlag=0;

	mov	edx, DWORD PTR _this$[ebp]
	mov	DWORD PTR [edx+3472], 0
$LN10@CopyToPrim:

; 1173 : //	MonoPrint("HDNLR->CopyToPrimary() Done\n");
; 1174 : 
; 1175 : // OW now handled by running in software mode on V1 and V2
; 1176 : #if 0
; 1177 : 	if(m_pMouseImage)
; 1178 : 	{
; 1179 : 		POINT pt;
; 1180 : 		GetCursorPos(&pt);
; 1181 : 		ScreenToClient(AppWindow_, &pt);
; 1182 : 
; 1183 : 		// center
; 1184 : 		pt.x -= m_pMouseImage->targetXres() / 2;
; 1185 : 		pt.y -= m_pMouseImage->targetYres() / 2;
; 1186 : 
; 1187 : 		// clip
; 1188 : 		if(pt.x < 0) pt.x = 0;
; 1189 : 		else if(pt.x > Primary_->targetXres() - m_pMouseImage->targetXres()) pt.x = Primary_->targetXres() - m_pMouseImage->targetXres();
; 1190 : 		if(pt.y < 0) pt.y = 0;
; 1191 : 		else if(pt.y > Primary_->targetYres() - m_pMouseImage->targetYres()) pt.y = Primary_->targetYres() - m_pMouseImage->targetYres();
; 1192 : 
; 1193 : 		m_rcMouseImage.left = pt.x;
; 1194 : 		m_rcMouseImage.top = pt.y;
; 1195 : 		m_rcMouseImage.right = m_rcMouseImage.left + m_pMouseImage->targetXres();
; 1196 : 		m_rcMouseImage.bottom = m_rcMouseImage.top + m_pMouseImage->targetYres();
; 1197 : 
; 1198 : 		RECT rcSrc = { 0, 0, m_pMouseImage->targetXres(), m_pMouseImage->targetYres() };
; 1199 : 		Primary_->ComposeTransparent(m_pMouseImage, &rcSrc, &m_rcMouseImage);
; 1200 : 
; 1201 : 		// refresh next time
; 1202 : 		UI95_RECT upme;
; 1203 : 		upme.left=m_rcMouseImage.left;
; 1204 : 		upme.top=m_rcMouseImage.top;
; 1205 : 		upme.right=m_rcMouseImage.right;
; 1206 : 		upme.bottom=m_rcMouseImage.bottom;
; 1207 : 		SetUpdateRect(&upme);
; 1208 : 	}
; 1209 : #endif
; 1210 : }

	mov	ecx, DWORD PTR __$ArrayPad$[ebp]
	xor	ecx, ebp
	call	@__security_check_cookie@4
	mov	esp, ebp
	pop	ebp
	ret	0
?CopyToPrimary@C_Handler@@QAEXXZ ENDP			; C_Handler::CopyToPrimary
_TEXT	ENDS
; Function compile flags: /Odtp
; File c:\users\zhitao li\documents\visual studio 2012\projects\freefalcon\ui95\chandler.cpp
_TEXT	SEGMENT
_xsize$1 = -60						; size = 4
_i$2 = -56						; size = 4
_infront$ = -52						; size = 4
_i$ = -48						; size = 2
_this$ = -44						; size = 4
_cur$ = -40						; size = 4
_src$ = -36						; size = 16
_dst$ = -20						; size = 16
__$ArrayPad$ = -4					; size = 4
?Update@C_Handler@@QAEXXZ PROC				; C_Handler::Update
; _this$ = ecx

; 1022 : {

	push	ebp
	mov	ebp, esp
	sub	esp, 60					; 0000003cH
	mov	eax, DWORD PTR ___security_cookie
	xor	eax, ebp
	mov	DWORD PTR __$ArrayPad$[ebp], eax
	mov	DWORD PTR _this$[ebp], ecx

; 1023 : 	WHLIST *cur;
; 1024 : //#if 0
; 1025 : 	WHLIST *infront;
; 1026 : //#endif
; 1027 : 	UI95_RECT src,dst;
; 1028 : 	short i;
; 1029 : 
; 1030 : 	if(!(UpdateFlag & C_DRAW_REFRESH) || !DrawFlags)

	mov	eax, DWORD PTR _this$[ebp]
	mov	ecx, DWORD PTR [eax+3472]
	and	ecx, 1
	je	SHORT $LN22@Update
	mov	edx, DWORD PTR _this$[ebp]
	cmp	DWORD PTR [edx+3476], 0
	jne	SHORT $LN23@Update
$LN22@Update:

; 1031 : 		return;

	jmp	$LN24@Update
$LN23@Update:

; 1032 : 
; 1033 : 	Lock();

	mov	ecx, DWORD PTR _this$[ebp]
	call	?Lock@C_Handler@@QAEPAXXZ		; C_Handler::Lock

; 1034 : 	if(!surface_.mem)

	mov	eax, DWORD PTR _this$[ebp]
	cmp	DWORD PTR [eax+20], 0
	jne	SHORT $LN21@Update

; 1035 : 		return;

	jmp	$LN24@Update
$LN21@Update:

; 1036 : 
; 1037 : //	CheckDrawThrough();
; 1038 : 	CheckTranslucentWindows();

	mov	ecx, DWORD PTR _this$[ebp]
	call	?CheckTranslucentWindows@C_Handler@@QAEXXZ ; C_Handler::CheckTranslucentWindows

; 1039 : //	ClearAllHiddenRects();
; 1040 : 
; 1041 : 	cur=Root_;

	mov	ecx, DWORD PTR _this$[ebp]
	mov	edx, DWORD PTR [ecx]
	mov	DWORD PTR _cur$[ebp], edx
$LN20@Update:

; 1042 : 	while(cur)

	cmp	DWORD PTR _cur$[ebp], 0
	je	$LN19@Update

; 1043 : 	{
; 1044 : 		if((cur->Flags & C_BIT_ENABLED) && (cur->win->update_ & C_DRAW_REFRESH))

	mov	eax, DWORD PTR _cur$[ebp]
	mov	ecx, DWORD PTR [eax+4]
	and	ecx, 2048				; 00000800H
	je	$LN18@Update
	mov	edx, DWORD PTR _cur$[ebp]
	mov	eax, DWORD PTR [edx]
	mov	ecx, DWORD PTR [eax+104]
	and	ecx, 1
	je	$LN18@Update

; 1045 : 		{
; 1046 : 			if(cur->win->update_ & C_DRAW_REFRESH)

	mov	edx, DWORD PTR _cur$[ebp]
	mov	eax, DWORD PTR [edx]
	mov	ecx, DWORD PTR [eax+104]
	and	ecx, 1
	je	SHORT $LN17@Update

; 1047 : 			{
; 1048 : //#if 0
; 1049 : 				ClearHiddenRects(cur);

	mov	edx, DWORD PTR _cur$[ebp]
	push	edx
	mov	ecx, DWORD PTR _this$[ebp]
	call	?ClearHiddenRects@C_Handler@@QAEXPAVWHLIST@@@Z ; C_Handler::ClearHiddenRects

; 1050 : //#endif
; 1051 : 				cur->win->DrawWindow(&surface_);

	mov	eax, DWORD PTR _this$[ebp]
	add	eax, 20					; 00000014H
	push	eax
	mov	ecx, DWORD PTR _cur$[ebp]
	mov	ecx, DWORD PTR [ecx]
	call	?DrawWindow@C_Window@@QAEXPAVSCREEN@@@Z	; C_Window::DrawWindow
$LN17@Update:

; 1052 : 			}
; 1053 : 			if(cur->win->update_ & C_DRAW_COPYWINDOW)

	mov	edx, DWORD PTR _cur$[ebp]
	mov	eax, DWORD PTR [edx]
	mov	ecx, DWORD PTR [eax+104]
	and	ecx, 268435456				; 10000000H
	je	$LN16@Update

; 1054 : 			{
; 1055 : 				for(i=0;i<cur->win->rectcount_;i++)

	xor	edx, edx
	mov	WORD PTR _i$[ebp], dx
	jmp	SHORT $LN15@Update
$LN14@Update:
	mov	ax, WORD PTR _i$[ebp]
	add	ax, 1
	mov	WORD PTR _i$[ebp], ax
$LN15@Update:
	movsx	ecx, WORD PTR _i$[ebp]
	mov	edx, DWORD PTR _cur$[ebp]
	mov	eax, DWORD PTR [edx]
	movsx	edx, WORD PTR [eax+1016]
	cmp	ecx, edx
	jge	$LN16@Update

; 1056 : 				{
; 1057 : 					if(cur->win->rectflag_[i])

	mov	eax, DWORD PTR _cur$[ebp]
	mov	ecx, DWORD PTR [eax]
	movsx	edx, WORD PTR _i$[ebp]
	movsx	eax, WORD PTR [ecx+edx*2+616]
	test	eax, eax
	je	$LN12@Update

; 1058 : 					{
; 1059 : 						src=cur->win->rectlist_[i];

	mov	ecx, DWORD PTR _cur$[ebp]
	mov	edx, DWORD PTR [ecx]
	movsx	eax, WORD PTR _i$[ebp]
	shl	eax, 4
	lea	ecx, DWORD PTR [edx+eax+1020]
	mov	edx, DWORD PTR [ecx]
	mov	DWORD PTR _src$[ebp], edx
	mov	eax, DWORD PTR [ecx+4]
	mov	DWORD PTR _src$[ebp+4], eax
	mov	edx, DWORD PTR [ecx+8]
	mov	DWORD PTR _src$[ebp+8], edx
	mov	eax, DWORD PTR [ecx+12]
	mov	DWORD PTR _src$[ebp+12], eax

; 1060 : 
; 1061 : 						dst=src;

	mov	ecx, DWORD PTR _src$[ebp]
	mov	DWORD PTR _dst$[ebp], ecx
	mov	edx, DWORD PTR _src$[ebp+4]
	mov	DWORD PTR _dst$[ebp+4], edx
	mov	eax, DWORD PTR _src$[ebp+8]
	mov	DWORD PTR _dst$[ebp+8], eax
	mov	ecx, DWORD PTR _src$[ebp+12]
	mov	DWORD PTR _dst$[ebp+12], ecx

; 1062 : 						dst.left+=cur->win->GetX();

	mov	edx, DWORD PTR _cur$[ebp]
	mov	ecx, DWORD PTR [edx]
	call	?GetX@C_Window@@QAEFXZ			; C_Window::GetX
	cwde
	add	eax, DWORD PTR _dst$[ebp]
	mov	DWORD PTR _dst$[ebp], eax

; 1063 : 						dst.top+=cur->win->GetY();

	mov	ecx, DWORD PTR _cur$[ebp]
	mov	ecx, DWORD PTR [ecx]
	call	?GetY@C_Window@@QAEFXZ			; C_Window::GetY
	movsx	edx, ax
	add	edx, DWORD PTR _dst$[ebp+4]
	mov	DWORD PTR _dst$[ebp+4], edx

; 1064 : 						dst.right+=cur->win->GetX();

	mov	eax, DWORD PTR _cur$[ebp]
	mov	ecx, DWORD PTR [eax]
	call	?GetX@C_Window@@QAEFXZ			; C_Window::GetX
	movsx	ecx, ax
	add	ecx, DWORD PTR _dst$[ebp+8]
	mov	DWORD PTR _dst$[ebp+8], ecx

; 1065 : 						dst.bottom+=cur->win->GetY();

	mov	edx, DWORD PTR _cur$[ebp]
	mov	ecx, DWORD PTR [edx]
	call	?GetY@C_Window@@QAEFXZ			; C_Window::GetY
	cwde
	add	eax, DWORD PTR _dst$[ebp+12]
	mov	DWORD PTR _dst$[ebp+12], eax

; 1066 : 
; 1067 : 						SetUpdateRect(&dst);

	lea	ecx, DWORD PTR _dst$[ebp]
	push	ecx
	mov	ecx, DWORD PTR _this$[ebp]
	call	?SetUpdateRect@C_Handler@@QAEXPAUUI95_RECT@@@Z ; C_Handler::SetUpdateRect

; 1068 : //#if 0
; 1069 : 						infront=cur->Next;

	mov	edx, DWORD PTR _cur$[ebp]
	mov	eax, DWORD PTR [edx+12]
	mov	DWORD PTR _infront$[ebp], eax
$LN11@Update:

; 1070 : 						while(infront)

	cmp	DWORD PTR _infront$[ebp], 0
	je	$LN12@Update

; 1071 : 						{
; 1072 : 							if(infront->Flags & C_BIT_ENABLED && (infront->win->GetFlags() & C_BIT_TRANSLUCENT))

	mov	ecx, DWORD PTR _infront$[ebp]
	mov	edx, DWORD PTR [ecx+4]
	and	edx, 2048				; 00000800H
	je	SHORT $LN9@Update
	mov	eax, DWORD PTR _infront$[ebp]
	mov	ecx, DWORD PTR [eax]
	call	?GetFlags@C_Window@@QAEJXZ		; C_Window::GetFlags
	and	eax, 536870912				; 20000000H
	je	SHORT $LN9@Update

; 1073 : 								infront->win->SetUpdateRect(dst.left-infront->win->GetX(),dst.top-infront->win->GetY(),dst.right-infront->win->GetX(),dst.bottom-infront->win->GetY(),C_BIT_ABSOLUTE,0);

	push	0
	push	262144					; 00040000H
	mov	ecx, DWORD PTR _infront$[ebp]
	mov	ecx, DWORD PTR [ecx]
	call	?GetY@C_Window@@QAEFXZ			; C_Window::GetY
	movsx	edx, ax
	mov	eax, DWORD PTR _dst$[ebp+12]
	sub	eax, edx
	push	eax
	mov	ecx, DWORD PTR _infront$[ebp]
	mov	ecx, DWORD PTR [ecx]
	call	?GetX@C_Window@@QAEFXZ			; C_Window::GetX
	movsx	edx, ax
	mov	eax, DWORD PTR _dst$[ebp+8]
	sub	eax, edx
	push	eax
	mov	ecx, DWORD PTR _infront$[ebp]
	mov	ecx, DWORD PTR [ecx]
	call	?GetY@C_Window@@QAEFXZ			; C_Window::GetY
	movsx	edx, ax
	mov	eax, DWORD PTR _dst$[ebp+4]
	sub	eax, edx
	push	eax
	mov	ecx, DWORD PTR _infront$[ebp]
	mov	ecx, DWORD PTR [ecx]
	call	?GetX@C_Window@@QAEFXZ			; C_Window::GetX
	movsx	edx, ax
	mov	eax, DWORD PTR _dst$[ebp]
	sub	eax, edx
	push	eax
	mov	ecx, DWORD PTR _infront$[ebp]
	mov	ecx, DWORD PTR [ecx]
	call	?SetUpdateRect@C_Window@@QAEXJJJJJJ@Z	; C_Window::SetUpdateRect
$LN9@Update:

; 1074 : 							infront=infront->Next;

	mov	edx, DWORD PTR _infront$[ebp]
	mov	eax, DWORD PTR [edx+12]
	mov	DWORD PTR _infront$[ebp], eax

; 1075 : 						}

	jmp	$LN11@Update
$LN12@Update:

; 1076 : //#endif
; 1077 : 					}
; 1078 : 				}

	jmp	$LN14@Update
$LN16@Update:

; 1079 : 			}
; 1080 : 			cur->win->rectcount_=0;

	mov	ecx, DWORD PTR _cur$[ebp]
	mov	edx, DWORD PTR [ecx]
	xor	eax, eax
	mov	WORD PTR [edx+1016], ax

; 1081 : 			cur->win->update_ = 0;

	mov	ecx, DWORD PTR _cur$[ebp]
	mov	edx, DWORD PTR [ecx]
	mov	DWORD PTR [edx+104], 0
$LN18@Update:

; 1082 : 		}
; 1083 : 		cur=cur->Next;

	mov	eax, DWORD PTR _cur$[ebp]
	mov	ecx, DWORD PTR [eax+12]
	mov	DWORD PTR _cur$[ebp], ecx

; 1084 : 	}

	jmp	$LN20@Update
$LN19@Update:

; 1085 : 
; 1086 : 	if(OverLast_.Time_)

	mov	edx, DWORD PTR _this$[ebp]
	cmp	DWORD PTR [edx+136], 0
	je	SHORT $LN8@Update

; 1087 : 		CheckHelpText(&surface_);

	mov	eax, DWORD PTR _this$[ebp]
	add	eax, 20					; 00000014H
	push	eax
	mov	ecx, DWORD PTR _this$[ebp]
	call	?CheckHelpText@C_Handler@@AAEXPAVSCREEN@@@Z ; C_Handler::CheckHelpText
$LN8@Update:

; 1088 : 
; 1089 : 	if(gScreenShotEnabled && gUI_TakeScreenShot == 1)

	cmp	DWORD PTR ?gScreenShotEnabled@@3JA, 0	; gScreenShotEnabled
	je	$LN7@Update
	cmp	DWORD PTR ?gUI_TakeScreenShot@@3JA, 1	; gUI_TakeScreenShot
	jne	$LN7@Update

; 1090 : 	{
; 1091 : 		// Copy Front_ surface to a secondary buffer
; 1092 : 		int xsize = 800;

	mov	DWORD PTR _xsize$1[ebp], 800		; 00000320H

; 1093 : 		if (g_bHiResUI)

	movzx	ecx, BYTE PTR ?g_bHiResUI@@3_NA		; g_bHiResUI
	test	ecx, ecx
	je	SHORT $LN6@Update

; 1094 : 			xsize = 1024;

	mov	DWORD PTR _xsize$1[ebp], 1024		; 00000400H
$LN6@Update:

; 1095 : 		//memcpy(gScreenShotBuffer,surface_.mem,surface_.width * surface_.height * sizeof(WORD));
; 1096 : // MN somehow this D3D stuff for surface_.width creates a width of 1024 for an 800x600 UI...
; 1097 : 
; 1098 : 		if(surface_.bpp == 32 )//XX

	mov	edx, DWORD PTR _this$[ebp]
	movzx	eax, BYTE PTR [edx+28]
	cmp	eax, 32					; 00000020H
	jne	SHORT $LN5@Update

; 1099 : 		{
; 1100 : 			for( int i = 0; i < xsize * surface_.height; i++ )			

	mov	DWORD PTR _i$2[ebp], 0
	jmp	SHORT $LN4@Update
$LN3@Update:
	mov	ecx, DWORD PTR _i$2[ebp]
	add	ecx, 1
	mov	DWORD PTR _i$2[ebp], ecx
$LN4@Update:
	mov	edx, DWORD PTR _this$[ebp]
	movsx	eax, WORD PTR [edx+26]
	imul	eax, DWORD PTR _xsize$1[ebp]
	cmp	DWORD PTR _i$2[ebp], eax
	jge	SHORT $LN2@Update

; 1101 : 				gScreenShotBuffer[i] = RGB8toRGB565( ((DWORD*)surface_.mem)[ i ] );		

	mov	ecx, DWORD PTR _this$[ebp]
	mov	edx, DWORD PTR [ecx+20]
	mov	eax, DWORD PTR _i$2[ebp]
	mov	ecx, DWORD PTR [edx+eax*4]
	push	ecx
	call	?RGB8toRGB565@@YAGK@Z			; RGB8toRGB565
	add	esp, 4
	mov	edx, DWORD PTR _i$2[ebp]
	mov	ecx, DWORD PTR ?gScreenShotBuffer@@3PAGA ; gScreenShotBuffer
	mov	WORD PTR [ecx+edx*2], ax
	jmp	SHORT $LN3@Update
$LN2@Update:

; 1102 : 		}
; 1103 : 		else

	jmp	SHORT $LN1@Update
$LN5@Update:

; 1104 : 		memcpy(gScreenShotBuffer,surface_.mem,xsize * surface_.height * sizeof(WORD));

	mov	edx, DWORD PTR _this$[ebp]
	movsx	eax, WORD PTR [edx+26]
	imul	eax, DWORD PTR _xsize$1[ebp]
	shl	eax, 1
	push	eax
	mov	ecx, DWORD PTR _this$[ebp]
	mov	edx, DWORD PTR [ecx+20]
	push	edx
	mov	eax, DWORD PTR ?gScreenShotBuffer@@3PAGA ; gScreenShotBuffer
	push	eax
	call	_memcpy
	add	esp, 12					; 0000000cH
$LN1@Update:

; 1105 : 
; 1106 : 		gUI_TakeScreenShot=2;

	mov	DWORD PTR ?gUI_TakeScreenShot@@3JA, 2	; gUI_TakeScreenShot
$LN7@Update:

; 1107 : 	}
; 1108 : 	Unlock();

	mov	ecx, DWORD PTR _this$[ebp]
	call	?Unlock@C_Handler@@QAEXXZ		; C_Handler::Unlock
$LN24@Update:

; 1109 : }

	mov	ecx, DWORD PTR __$ArrayPad$[ebp]
	xor	ecx, ebp
	call	@__security_check_cookie@4
	mov	esp, ebp
	pop	ebp
	ret	0
?Update@C_Handler@@QAEXXZ ENDP				; C_Handler::Update
_TEXT	ENDS
; Function compile flags: /Odtp
; File c:\users\zhitao li\documents\visual studio 2012\projects\freefalcon\ui95\chandler.cpp
_TEXT	SEGMENT
_this$ = -28						; size = 4
_cur$ = -24						; size = 4
_rect$ = -20						; size = 16
__$ArrayPad$ = -4					; size = 4
_updaterect$ = 8					; size = 4
?RefreshAll@C_Handler@@QAEXPAUUI95_RECT@@@Z PROC	; C_Handler::RefreshAll
; _this$ = ecx

; 840  : {

	push	ebp
	mov	ebp, esp
	sub	esp, 28					; 0000001cH
	mov	eax, DWORD PTR ___security_cookie
	xor	eax, ebp
	mov	DWORD PTR __$ArrayPad$[ebp], eax
	mov	DWORD PTR _this$[ebp], ecx

; 841  : 	WHLIST *cur;
; 842  : 	UI95_RECT rect;
; 843  : 
; 844  : 	cur=Root_;

	mov	eax, DWORD PTR _this$[ebp]
	mov	ecx, DWORD PTR [eax]
	mov	DWORD PTR _cur$[ebp], ecx
$LN6@RefreshAll:

; 845  : 	while(cur)

	cmp	DWORD PTR _cur$[ebp], 0
	je	$LN7@RefreshAll

; 846  : 	{
; 847  : 		if(cur->Flags & C_BIT_ENABLED)

	mov	edx, DWORD PTR _cur$[ebp]
	mov	eax, DWORD PTR [edx+4]
	and	eax, 2048				; 00000800H
	je	$LN4@RefreshAll

; 848  : 		{
; 849  : 			rect=*updaterect;

	mov	ecx, DWORD PTR _updaterect$[ebp]
	mov	edx, DWORD PTR [ecx]
	mov	DWORD PTR _rect$[ebp], edx
	mov	eax, DWORD PTR [ecx+4]
	mov	DWORD PTR _rect$[ebp+4], eax
	mov	edx, DWORD PTR [ecx+8]
	mov	DWORD PTR _rect$[ebp+8], edx
	mov	eax, DWORD PTR [ecx+12]
	mov	DWORD PTR _rect$[ebp+12], eax

; 850  : 			rect.left -= cur->win->GetX();

	mov	ecx, DWORD PTR _cur$[ebp]
	mov	ecx, DWORD PTR [ecx]
	call	?GetX@C_Window@@QAEFXZ			; C_Window::GetX
	movsx	edx, ax
	mov	eax, DWORD PTR _rect$[ebp]
	sub	eax, edx
	mov	DWORD PTR _rect$[ebp], eax

; 851  : 			rect.right-= cur->win->GetX();

	mov	ecx, DWORD PTR _cur$[ebp]
	mov	ecx, DWORD PTR [ecx]
	call	?GetX@C_Window@@QAEFXZ			; C_Window::GetX
	movsx	edx, ax
	mov	eax, DWORD PTR _rect$[ebp+8]
	sub	eax, edx
	mov	DWORD PTR _rect$[ebp+8], eax

; 852  : 			rect.top -= cur->win->GetY();

	mov	ecx, DWORD PTR _cur$[ebp]
	mov	ecx, DWORD PTR [ecx]
	call	?GetY@C_Window@@QAEFXZ			; C_Window::GetY
	movsx	edx, ax
	mov	eax, DWORD PTR _rect$[ebp+4]
	sub	eax, edx
	mov	DWORD PTR _rect$[ebp+4], eax

; 853  : 			rect.bottom -= cur->win->GetY();

	mov	ecx, DWORD PTR _cur$[ebp]
	mov	ecx, DWORD PTR [ecx]
	call	?GetY@C_Window@@QAEFXZ			; C_Window::GetY
	movsx	edx, ax
	mov	eax, DWORD PTR _rect$[ebp+12]
	sub	eax, edx
	mov	DWORD PTR _rect$[ebp+12], eax

; 854  : 
; 855  : 			if(rect.left < 0) rect.left=0;

	cmp	DWORD PTR _rect$[ebp], 0
	jge	SHORT $LN3@RefreshAll
	mov	DWORD PTR _rect$[ebp], 0
$LN3@RefreshAll:

; 856  : 			if(rect.top < 0) rect.top=0;

	cmp	DWORD PTR _rect$[ebp+4], 0
	jge	SHORT $LN2@RefreshAll
	mov	DWORD PTR _rect$[ebp+4], 0
$LN2@RefreshAll:

; 857  : 
; 858  : 			if(rect.right > 0 && rect.bottom > 0)

	cmp	DWORD PTR _rect$[ebp+8], 0
	jle	SHORT $LN4@RefreshAll
	cmp	DWORD PTR _rect$[ebp+12], 0
	jle	SHORT $LN4@RefreshAll

; 859  : 				cur->win->SetUpdateRect(rect.left,rect.top,rect.right,rect.bottom,C_BIT_ABSOLUTE,0);

	push	0
	push	262144					; 00040000H
	mov	ecx, DWORD PTR _rect$[ebp+12]
	push	ecx
	mov	edx, DWORD PTR _rect$[ebp+8]
	push	edx
	mov	eax, DWORD PTR _rect$[ebp+4]
	push	eax
	mov	ecx, DWORD PTR _rect$[ebp]
	push	ecx
	mov	edx, DWORD PTR _cur$[ebp]
	mov	ecx, DWORD PTR [edx]
	call	?SetUpdateRect@C_Window@@QAEXJJJJJJ@Z	; C_Window::SetUpdateRect
$LN4@RefreshAll:

; 860  : 		}
; 861  : 		cur=cur->Next;

	mov	eax, DWORD PTR _cur$[ebp]
	mov	ecx, DWORD PTR [eax+12]
	mov	DWORD PTR _cur$[ebp], ecx

; 862  : 	}

	jmp	$LN6@RefreshAll
$LN7@RefreshAll:

; 863  : }

	mov	ecx, DWORD PTR __$ArrayPad$[ebp]
	xor	ecx, ebp
	call	@__security_check_cookie@4
	mov	esp, ebp
	pop	ebp
	ret	4
?RefreshAll@C_Handler@@QAEXPAUUI95_RECT@@@Z ENDP	; C_Handler::RefreshAll
_TEXT	ENDS
; Function compile flags: /Odtp
; File c:\users\zhitao li\documents\visual studio 2012\projects\freefalcon\ui95\chandler.cpp
_TEXT	SEGMENT
_this$ = -8						; size = 4
_offset$ = -4						; size = 4
_src$ = 8						; size = 4
_dst$ = 12						; size = 4
_ClientArea$ = 16					; size = 4
?ClipRect@C_Handler@@QAEHPAUUI95_RECT@@00@Z PROC	; C_Handler::ClipRect
; _this$ = ecx

; 771  : {

	push	ebp
	mov	ebp, esp
	sub	esp, 8
	mov	DWORD PTR _this$[ebp], ecx

; 772  : 	long offset;
; 773  : 
; 774  : 	if(dst->left < ClientArea->left)

	mov	eax, DWORD PTR _dst$[ebp]
	mov	ecx, DWORD PTR _ClientArea$[ebp]
	mov	edx, DWORD PTR [eax]
	cmp	edx, DWORD PTR [ecx]
	jge	SHORT $LN5@ClipRect

; 775  : 	{
; 776  : 		offset=ClientArea->left - dst->left;

	mov	eax, DWORD PTR _ClientArea$[ebp]
	mov	ecx, DWORD PTR _dst$[ebp]
	mov	edx, DWORD PTR [eax]
	sub	edx, DWORD PTR [ecx]
	mov	DWORD PTR _offset$[ebp], edx

; 777  : 		src->left+=offset;

	mov	eax, DWORD PTR _src$[ebp]
	mov	ecx, DWORD PTR [eax]
	add	ecx, DWORD PTR _offset$[ebp]
	mov	edx, DWORD PTR _src$[ebp]
	mov	DWORD PTR [edx], ecx

; 778  : 		dst->left+=offset;

	mov	eax, DWORD PTR _dst$[ebp]
	mov	ecx, DWORD PTR [eax]
	add	ecx, DWORD PTR _offset$[ebp]
	mov	edx, DWORD PTR _dst$[ebp]
	mov	DWORD PTR [edx], ecx
$LN5@ClipRect:

; 779  : 	}
; 780  : 	if(dst->top < ClientArea->top)

	mov	eax, DWORD PTR _dst$[ebp]
	mov	ecx, DWORD PTR _ClientArea$[ebp]
	mov	edx, DWORD PTR [eax+4]
	cmp	edx, DWORD PTR [ecx+4]
	jge	SHORT $LN4@ClipRect

; 781  : 	{
; 782  : 		offset=ClientArea->top - dst->top;

	mov	eax, DWORD PTR _ClientArea$[ebp]
	mov	ecx, DWORD PTR _dst$[ebp]
	mov	edx, DWORD PTR [eax+4]
	sub	edx, DWORD PTR [ecx+4]
	mov	DWORD PTR _offset$[ebp], edx

; 783  : 		src->top+=offset;

	mov	eax, DWORD PTR _src$[ebp]
	mov	ecx, DWORD PTR [eax+4]
	add	ecx, DWORD PTR _offset$[ebp]
	mov	edx, DWORD PTR _src$[ebp]
	mov	DWORD PTR [edx+4], ecx

; 784  : 		dst->top+=offset;

	mov	eax, DWORD PTR _dst$[ebp]
	mov	ecx, DWORD PTR [eax+4]
	add	ecx, DWORD PTR _offset$[ebp]
	mov	edx, DWORD PTR _dst$[ebp]
	mov	DWORD PTR [edx+4], ecx
$LN4@ClipRect:

; 785  : 	}
; 786  : 	if(dst->right > ClientArea->right)

	mov	eax, DWORD PTR _dst$[ebp]
	mov	ecx, DWORD PTR _ClientArea$[ebp]
	mov	edx, DWORD PTR [eax+8]
	cmp	edx, DWORD PTR [ecx+8]
	jle	SHORT $LN3@ClipRect

; 787  : 	{
; 788  : 		offset= dst->right - ClientArea->right;

	mov	eax, DWORD PTR _dst$[ebp]
	mov	ecx, DWORD PTR _ClientArea$[ebp]
	mov	edx, DWORD PTR [eax+8]
	sub	edx, DWORD PTR [ecx+8]
	mov	DWORD PTR _offset$[ebp], edx

; 789  : 		src->right-=offset;

	mov	eax, DWORD PTR _src$[ebp]
	mov	ecx, DWORD PTR [eax+8]
	sub	ecx, DWORD PTR _offset$[ebp]
	mov	edx, DWORD PTR _src$[ebp]
	mov	DWORD PTR [edx+8], ecx

; 790  : 		dst->right-=offset;

	mov	eax, DWORD PTR _dst$[ebp]
	mov	ecx, DWORD PTR [eax+8]
	sub	ecx, DWORD PTR _offset$[ebp]
	mov	edx, DWORD PTR _dst$[ebp]
	mov	DWORD PTR [edx+8], ecx
$LN3@ClipRect:

; 791  : 	}
; 792  : 	if(dst->bottom > ClientArea->bottom)

	mov	eax, DWORD PTR _dst$[ebp]
	mov	ecx, DWORD PTR _ClientArea$[ebp]
	mov	edx, DWORD PTR [eax+12]
	cmp	edx, DWORD PTR [ecx+12]
	jle	SHORT $LN2@ClipRect

; 793  : 	{
; 794  : 		offset= dst->bottom - ClientArea->bottom;

	mov	eax, DWORD PTR _dst$[ebp]
	mov	ecx, DWORD PTR _ClientArea$[ebp]
	mov	edx, DWORD PTR [eax+12]
	sub	edx, DWORD PTR [ecx+12]
	mov	DWORD PTR _offset$[ebp], edx

; 795  : 		src->bottom-=offset;					  

	mov	eax, DWORD PTR _src$[ebp]
	mov	ecx, DWORD PTR [eax+12]
	sub	ecx, DWORD PTR _offset$[ebp]
	mov	edx, DWORD PTR _src$[ebp]
	mov	DWORD PTR [edx+12], ecx

; 796  : 		dst->bottom-=offset;

	mov	eax, DWORD PTR _dst$[ebp]
	mov	ecx, DWORD PTR [eax+12]
	sub	ecx, DWORD PTR _offset$[ebp]
	mov	edx, DWORD PTR _dst$[ebp]
	mov	DWORD PTR [edx+12], ecx
$LN2@ClipRect:

; 797  : 	}
; 798  : 	if(dst->left < dst->right && dst->top < dst->bottom)

	mov	eax, DWORD PTR _dst$[ebp]
	mov	ecx, DWORD PTR _dst$[ebp]
	mov	edx, DWORD PTR [eax]
	cmp	edx, DWORD PTR [ecx+8]
	jge	SHORT $LN1@ClipRect
	mov	eax, DWORD PTR _dst$[ebp]
	mov	ecx, DWORD PTR _dst$[ebp]
	mov	edx, DWORD PTR [eax+4]
	cmp	edx, DWORD PTR [ecx+12]
	jge	SHORT $LN1@ClipRect

; 799  : 		return(TRUE); // Draw it

	mov	eax, 1
	jmp	SHORT $LN6@ClipRect
$LN1@ClipRect:

; 800  : 
; 801  : 	return(FALSE);

	xor	eax, eax
$LN6@ClipRect:

; 802  : }

	mov	esp, ebp
	pop	ebp
	ret	12					; 0000000cH
?ClipRect@C_Handler@@QAEHPAUUI95_RECT@@00@Z ENDP	; C_Handler::ClipRect
_TEXT	ENDS
; Function compile flags: /Odtp
; File c:\users\zhitao li\documents\visual studio 2012\projects\freefalcon\ui95\chandler.cpp
_TEXT	SEGMENT
_this$ = -12						; size = 4
_me$ = -8						; size = 4
_cur$ = -4						; size = 4
?ClearAllHiddenRects@C_Handler@@QAEXXZ PROC		; C_Handler::ClearAllHiddenRects
; _this$ = ecx

; 887  : {

	push	ebp
	mov	ebp, esp
	sub	esp, 12					; 0000000cH
	push	esi
	mov	DWORD PTR _this$[ebp], ecx

; 888  : 	WHLIST *me,*cur;
; 889  : 
; 890  : 	me=Root_;

	mov	eax, DWORD PTR _this$[ebp]
	mov	ecx, DWORD PTR [eax]
	mov	DWORD PTR _me$[ebp], ecx
$LN6@ClearAllHi:

; 891  : 	while(me)

	cmp	DWORD PTR _me$[ebp], 0
	je	$LN7@ClearAllHi

; 892  : 	{
; 893  : 		if(me->Flags & C_BIT_ENABLED)

	mov	edx, DWORD PTR _me$[ebp]
	mov	eax, DWORD PTR [edx+4]
	and	eax, 2048				; 00000800H
	je	$LN4@ClearAllHi

; 894  : 		{
; 895  : 			cur=me->Next;

	mov	ecx, DWORD PTR _me$[ebp]
	mov	edx, DWORD PTR [ecx+12]
	mov	DWORD PTR _cur$[ebp], edx
$LN3@ClearAllHi:

; 896  : 			while(cur)

	cmp	DWORD PTR _cur$[ebp], 0
	je	$LN4@ClearAllHi

; 897  : 			{
; 898  : 				if((cur->Flags & C_BIT_ENABLED) && !(cur->win->GetFlags() & C_BIT_TRANSLUCENT))

	mov	eax, DWORD PTR _cur$[ebp]
	mov	ecx, DWORD PTR [eax+4]
	and	ecx, 2048				; 00000800H
	je	$LN1@ClearAllHi
	mov	edx, DWORD PTR _cur$[ebp]
	mov	ecx, DWORD PTR [edx]
	call	?GetFlags@C_Window@@QAEJXZ		; C_Window::GetFlags
	and	eax, 536870912				; 20000000H
	jne	$LN1@ClearAllHi

; 899  : 				{
; 900  : 					me->win->ClearUpdateRect(cur->win->GetX() - me->win->GetX(),
; 901  : 											 cur->win->GetY() - me->win->GetY(),
; 902  : 											 cur->win->GetX()+cur->win->GetW() - me->win->GetX(),
; 903  : 											 cur->win->GetY()+cur->win->GetH() - me->win->GetY());

	mov	eax, DWORD PTR _cur$[ebp]
	mov	ecx, DWORD PTR [eax]
	call	?GetY@C_Window@@QAEFXZ			; C_Window::GetY
	movsx	esi, ax
	mov	ecx, DWORD PTR _cur$[ebp]
	mov	ecx, DWORD PTR [ecx]
	call	?GetH@C_Window@@QAEFXZ			; C_Window::GetH
	movsx	edx, ax
	add	esi, edx
	mov	eax, DWORD PTR _me$[ebp]
	mov	ecx, DWORD PTR [eax]
	call	?GetY@C_Window@@QAEFXZ			; C_Window::GetY
	movsx	ecx, ax
	sub	esi, ecx
	push	esi
	mov	edx, DWORD PTR _cur$[ebp]
	mov	ecx, DWORD PTR [edx]
	call	?GetX@C_Window@@QAEFXZ			; C_Window::GetX
	movsx	esi, ax
	mov	eax, DWORD PTR _cur$[ebp]
	mov	ecx, DWORD PTR [eax]
	call	?GetW@C_Window@@QAEFXZ			; C_Window::GetW
	movsx	ecx, ax
	add	esi, ecx
	mov	edx, DWORD PTR _me$[ebp]
	mov	ecx, DWORD PTR [edx]
	call	?GetX@C_Window@@QAEFXZ			; C_Window::GetX
	cwde
	sub	esi, eax
	push	esi
	mov	ecx, DWORD PTR _cur$[ebp]
	mov	ecx, DWORD PTR [ecx]
	call	?GetY@C_Window@@QAEFXZ			; C_Window::GetY
	movsx	esi, ax
	mov	edx, DWORD PTR _me$[ebp]
	mov	ecx, DWORD PTR [edx]
	call	?GetY@C_Window@@QAEFXZ			; C_Window::GetY
	cwde
	sub	esi, eax
	push	esi
	mov	ecx, DWORD PTR _cur$[ebp]
	mov	ecx, DWORD PTR [ecx]
	call	?GetX@C_Window@@QAEFXZ			; C_Window::GetX
	movsx	esi, ax
	mov	edx, DWORD PTR _me$[ebp]
	mov	ecx, DWORD PTR [edx]
	call	?GetX@C_Window@@QAEFXZ			; C_Window::GetX
	cwde
	sub	esi, eax
	push	esi
	mov	ecx, DWORD PTR _me$[ebp]
	mov	ecx, DWORD PTR [ecx]
	call	?ClearUpdateRect@C_Window@@QAEXJJJJ@Z	; C_Window::ClearUpdateRect
$LN1@ClearAllHi:

; 904  : 				}
; 905  : 				cur=cur->Next;

	mov	edx, DWORD PTR _cur$[ebp]
	mov	eax, DWORD PTR [edx+12]
	mov	DWORD PTR _cur$[ebp], eax

; 906  : 			}

	jmp	$LN3@ClearAllHi
$LN4@ClearAllHi:

; 907  : 		}
; 908  : 		me=me->Next;

	mov	ecx, DWORD PTR _me$[ebp]
	mov	edx, DWORD PTR [ecx+12]
	mov	DWORD PTR _me$[ebp], edx

; 909  : 	}

	jmp	$LN6@ClearAllHi
$LN7@ClearAllHi:

; 910  : }

	pop	esi
	mov	esp, ebp
	pop	ebp
	ret	0
?ClearAllHiddenRects@C_Handler@@QAEXXZ ENDP		; C_Handler::ClearAllHiddenRects
_TEXT	ENDS
; Function compile flags: /Odtp
; File c:\users\zhitao li\documents\visual studio 2012\projects\freefalcon\ui95\chandler.cpp
_TEXT	SEGMENT
_this$ = -36						; size = 4
_cur$ = -32						; size = 4
_i$ = -28						; size = 2
_me$ = -24						; size = 4
_src$ = -20						; size = 16
__$ArrayPad$ = -4					; size = 4
?CheckDrawThrough@C_Handler@@QAEXXZ PROC		; C_Handler::CheckDrawThrough
; _this$ = ecx

; 985  : {

	push	ebp
	mov	ebp, esp
	sub	esp, 36					; 00000024H
	mov	eax, DWORD PTR ___security_cookie
	xor	eax, ebp
	mov	DWORD PTR __$ArrayPad$[ebp], eax
	push	esi
	mov	DWORD PTR _this$[ebp], ecx

; 986  : 	WHLIST *me,*cur;
; 987  : 	UI95_RECT src;
; 988  : 	short i;
; 989  : 
; 990  : 	me=Root_;

	mov	eax, DWORD PTR _this$[ebp]
	mov	ecx, DWORD PTR [eax]
	mov	DWORD PTR _me$[ebp], ecx
$LN10@CheckDrawT:

; 991  : 	while(me)

	cmp	DWORD PTR _me$[ebp], 0
	je	$LN11@CheckDrawT

; 992  : 	{
; 993  : 		if((me->Flags & C_BIT_ENABLED) && (me->win->update_ & C_DRAW_REFRESH))

	mov	edx, DWORD PTR _me$[ebp]
	mov	eax, DWORD PTR [edx+4]
	and	eax, 2048				; 00000800H
	je	$LN8@CheckDrawT
	mov	ecx, DWORD PTR _me$[ebp]
	mov	edx, DWORD PTR [ecx]
	mov	eax, DWORD PTR [edx+104]
	and	eax, 1
	je	$LN8@CheckDrawT

; 994  : 		{
; 995  : 			cur=me->Next;

	mov	ecx, DWORD PTR _me$[ebp]
	mov	edx, DWORD PTR [ecx+12]
	mov	DWORD PTR _cur$[ebp], edx
$LN7@CheckDrawT:

; 996  : 			while(cur)

	cmp	DWORD PTR _cur$[ebp], 0
	je	$LN8@CheckDrawT

; 997  : 			{
; 998  : 				if((cur->Flags & C_BIT_ENABLED) && (cur->win->GetFlags() & C_BIT_TRANSLUCENT))

	mov	eax, DWORD PTR _cur$[ebp]
	mov	ecx, DWORD PTR [eax+4]
	and	ecx, 2048				; 00000800H
	je	$LN5@CheckDrawT
	mov	edx, DWORD PTR _cur$[ebp]
	mov	ecx, DWORD PTR [edx]
	call	?GetFlags@C_Window@@QAEJXZ		; C_Window::GetFlags
	and	eax, 536870912				; 20000000H
	je	$LN5@CheckDrawT

; 999  : 				{
; 1000 : 					for(i=0;i<me->win->rectcount_;i++)

	xor	eax, eax
	mov	WORD PTR _i$[ebp], ax
	jmp	SHORT $LN4@CheckDrawT
$LN3@CheckDrawT:
	mov	cx, WORD PTR _i$[ebp]
	add	cx, 1
	mov	WORD PTR _i$[ebp], cx
$LN4@CheckDrawT:
	movsx	edx, WORD PTR _i$[ebp]
	mov	eax, DWORD PTR _me$[ebp]
	mov	ecx, DWORD PTR [eax]
	movsx	eax, WORD PTR [ecx+1016]
	cmp	edx, eax
	jge	$LN5@CheckDrawT

; 1001 : 					{
; 1002 : 						if(me->win->rectflag_[i])

	mov	ecx, DWORD PTR _me$[ebp]
	mov	edx, DWORD PTR [ecx]
	movsx	eax, WORD PTR _i$[ebp]
	movsx	ecx, WORD PTR [edx+eax*2+616]
	test	ecx, ecx
	je	$LN1@CheckDrawT

; 1003 : 						{
; 1004 : 							src=me->win->rectlist_[i];

	mov	edx, DWORD PTR _me$[ebp]
	mov	eax, DWORD PTR [edx]
	movsx	ecx, WORD PTR _i$[ebp]
	shl	ecx, 4
	lea	edx, DWORD PTR [eax+ecx+1020]
	mov	eax, DWORD PTR [edx]
	mov	DWORD PTR _src$[ebp], eax
	mov	ecx, DWORD PTR [edx+4]
	mov	DWORD PTR _src$[ebp+4], ecx
	mov	eax, DWORD PTR [edx+8]
	mov	DWORD PTR _src$[ebp+8], eax
	mov	ecx, DWORD PTR [edx+12]
	mov	DWORD PTR _src$[ebp+12], ecx

; 1005 : 							src.left+=(me->win->GetX()-cur->win->GetX());

	mov	edx, DWORD PTR _me$[ebp]
	mov	ecx, DWORD PTR [edx]
	call	?GetX@C_Window@@QAEFXZ			; C_Window::GetX
	movsx	esi, ax
	mov	eax, DWORD PTR _cur$[ebp]
	mov	ecx, DWORD PTR [eax]
	call	?GetX@C_Window@@QAEFXZ			; C_Window::GetX
	movsx	ecx, ax
	sub	esi, ecx
	add	esi, DWORD PTR _src$[ebp]
	mov	DWORD PTR _src$[ebp], esi

; 1006 : 							src.right+=(me->win->GetX()-cur->win->GetX());

	mov	edx, DWORD PTR _me$[ebp]
	mov	ecx, DWORD PTR [edx]
	call	?GetX@C_Window@@QAEFXZ			; C_Window::GetX
	movsx	esi, ax
	mov	eax, DWORD PTR _cur$[ebp]
	mov	ecx, DWORD PTR [eax]
	call	?GetX@C_Window@@QAEFXZ			; C_Window::GetX
	movsx	ecx, ax
	sub	esi, ecx
	add	esi, DWORD PTR _src$[ebp+8]
	mov	DWORD PTR _src$[ebp+8], esi

; 1007 : 							src.top+=(me->win->GetY()-cur->win->GetY());

	mov	edx, DWORD PTR _me$[ebp]
	mov	ecx, DWORD PTR [edx]
	call	?GetY@C_Window@@QAEFXZ			; C_Window::GetY
	movsx	esi, ax
	mov	eax, DWORD PTR _cur$[ebp]
	mov	ecx, DWORD PTR [eax]
	call	?GetY@C_Window@@QAEFXZ			; C_Window::GetY
	movsx	ecx, ax
	sub	esi, ecx
	add	esi, DWORD PTR _src$[ebp+4]
	mov	DWORD PTR _src$[ebp+4], esi

; 1008 : 							src.bottom+=(me->win->GetY()-cur->win->GetY());

	mov	edx, DWORD PTR _me$[ebp]
	mov	ecx, DWORD PTR [edx]
	call	?GetY@C_Window@@QAEFXZ			; C_Window::GetY
	movsx	esi, ax
	mov	eax, DWORD PTR _cur$[ebp]
	mov	ecx, DWORD PTR [eax]
	call	?GetY@C_Window@@QAEFXZ			; C_Window::GetY
	movsx	ecx, ax
	sub	esi, ecx
	add	esi, DWORD PTR _src$[ebp+12]
	mov	DWORD PTR _src$[ebp+12], esi

; 1009 : 
; 1010 : 							cur->win->SetUpdateRect(src.left,src.top,src.right,src.bottom,C_BIT_ABSOLUTE,0);

	push	0
	push	262144					; 00040000H
	mov	edx, DWORD PTR _src$[ebp+12]
	push	edx
	mov	eax, DWORD PTR _src$[ebp+8]
	push	eax
	mov	ecx, DWORD PTR _src$[ebp+4]
	push	ecx
	mov	edx, DWORD PTR _src$[ebp]
	push	edx
	mov	eax, DWORD PTR _cur$[ebp]
	mov	ecx, DWORD PTR [eax]
	call	?SetUpdateRect@C_Window@@QAEXJJJJJJ@Z	; C_Window::SetUpdateRect
$LN1@CheckDrawT:

; 1011 : 						}
; 1012 : 					}

	jmp	$LN3@CheckDrawT
$LN5@CheckDrawT:

; 1013 : 				}
; 1014 : 				cur=cur->Next;

	mov	ecx, DWORD PTR _cur$[ebp]
	mov	edx, DWORD PTR [ecx+12]
	mov	DWORD PTR _cur$[ebp], edx

; 1015 : 			}

	jmp	$LN7@CheckDrawT
$LN8@CheckDrawT:

; 1016 : 		}
; 1017 : 		me=me->Next;

	mov	eax, DWORD PTR _me$[ebp]
	mov	ecx, DWORD PTR [eax+12]
	mov	DWORD PTR _me$[ebp], ecx

; 1018 : 	}

	jmp	$LN10@CheckDrawT
$LN11@CheckDrawT:

; 1019 : }

	pop	esi
	mov	ecx, DWORD PTR __$ArrayPad$[ebp]
	xor	ecx, ebp
	call	@__security_check_cookie@4
	mov	esp, ebp
	pop	ebp
	ret	0
?CheckDrawThrough@C_Handler@@QAEXXZ ENDP		; C_Handler::CheckDrawThrough
_TEXT	ENDS
; Function compile flags: /Odtp
; File c:\users\zhitao li\documents\visual studio 2012\projects\freefalcon\ui95\chandler.cpp
_TEXT	SEGMENT
_this$ = -8						; size = 4
_cur$ = -4						; size = 4
_me$ = 8						; size = 4
?ClearHiddenRects@C_Handler@@QAEXPAVWHLIST@@@Z PROC	; C_Handler::ClearHiddenRects
; _this$ = ecx

; 866  : {

	push	ebp
	mov	ebp, esp
	sub	esp, 8
	push	esi
	mov	DWORD PTR _this$[ebp], ecx

; 867  : 	WHLIST *cur;
; 868  : 
; 869  : 	if(me)

	cmp	DWORD PTR _me$[ebp], 0
	je	$LN5@ClearHidde

; 870  : 	{
; 871  : 		cur=me->Next;

	mov	eax, DWORD PTR _me$[ebp]
	mov	ecx, DWORD PTR [eax+12]
	mov	DWORD PTR _cur$[ebp], ecx
$LN3@ClearHidde:

; 872  : 		while(cur)

	cmp	DWORD PTR _cur$[ebp], 0
	je	$LN5@ClearHidde

; 873  : 		{
; 874  : 			if((cur->Flags & C_BIT_ENABLED) && !(cur->win->GetFlags() & C_BIT_TRANSLUCENT))

	mov	edx, DWORD PTR _cur$[ebp]
	mov	eax, DWORD PTR [edx+4]
	and	eax, 2048				; 00000800H
	je	$LN1@ClearHidde
	mov	ecx, DWORD PTR _cur$[ebp]
	mov	ecx, DWORD PTR [ecx]
	call	?GetFlags@C_Window@@QAEJXZ		; C_Window::GetFlags
	and	eax, 536870912				; 20000000H
	jne	$LN1@ClearHidde

; 875  : 			{
; 876  : 				me->win->ClearUpdateRect(cur->win->GetX() - me->win->GetX(),
; 877  : 										 cur->win->GetY() - me->win->GetY(),
; 878  : 										 cur->win->GetX()+cur->win->GetW() - me->win->GetX(),
; 879  : 										 cur->win->GetY()+cur->win->GetH() - me->win->GetY());

	mov	edx, DWORD PTR _cur$[ebp]
	mov	ecx, DWORD PTR [edx]
	call	?GetY@C_Window@@QAEFXZ			; C_Window::GetY
	movsx	esi, ax
	mov	eax, DWORD PTR _cur$[ebp]
	mov	ecx, DWORD PTR [eax]
	call	?GetH@C_Window@@QAEFXZ			; C_Window::GetH
	movsx	ecx, ax
	add	esi, ecx
	mov	edx, DWORD PTR _me$[ebp]
	mov	ecx, DWORD PTR [edx]
	call	?GetY@C_Window@@QAEFXZ			; C_Window::GetY
	cwde
	sub	esi, eax
	push	esi
	mov	ecx, DWORD PTR _cur$[ebp]
	mov	ecx, DWORD PTR [ecx]
	call	?GetX@C_Window@@QAEFXZ			; C_Window::GetX
	movsx	esi, ax
	mov	edx, DWORD PTR _cur$[ebp]
	mov	ecx, DWORD PTR [edx]
	call	?GetW@C_Window@@QAEFXZ			; C_Window::GetW
	cwde
	add	esi, eax
	mov	ecx, DWORD PTR _me$[ebp]
	mov	ecx, DWORD PTR [ecx]
	call	?GetX@C_Window@@QAEFXZ			; C_Window::GetX
	movsx	edx, ax
	sub	esi, edx
	push	esi
	mov	eax, DWORD PTR _cur$[ebp]
	mov	ecx, DWORD PTR [eax]
	call	?GetY@C_Window@@QAEFXZ			; C_Window::GetY
	movsx	esi, ax
	mov	ecx, DWORD PTR _me$[ebp]
	mov	ecx, DWORD PTR [ecx]
	call	?GetY@C_Window@@QAEFXZ			; C_Window::GetY
	movsx	edx, ax
	sub	esi, edx
	push	esi
	mov	eax, DWORD PTR _cur$[ebp]
	mov	ecx, DWORD PTR [eax]
	call	?GetX@C_Window@@QAEFXZ			; C_Window::GetX
	movsx	esi, ax
	mov	ecx, DWORD PTR _me$[ebp]
	mov	ecx, DWORD PTR [ecx]
	call	?GetX@C_Window@@QAEFXZ			; C_Window::GetX
	movsx	edx, ax
	sub	esi, edx
	push	esi
	mov	eax, DWORD PTR _me$[ebp]
	mov	ecx, DWORD PTR [eax]
	call	?ClearUpdateRect@C_Window@@QAEXJJJJ@Z	; C_Window::ClearUpdateRect
$LN1@ClearHidde:

; 880  : 			}
; 881  : 			cur=cur->Next;

	mov	ecx, DWORD PTR _cur$[ebp]
	mov	edx, DWORD PTR [ecx+12]
	mov	DWORD PTR _cur$[ebp], edx

; 882  : 		}

	jmp	$LN3@ClearHidde
$LN5@ClearHidde:

; 883  : 	}
; 884  : }

	pop	esi
	mov	esp, ebp
	pop	ebp
	ret	4
?ClearHiddenRects@C_Handler@@QAEXPAVWHLIST@@@Z ENDP	; C_Handler::ClearHiddenRects
_TEXT	ENDS
; Function compile flags: /Odtp
; File c:\users\zhitao li\documents\visual studio 2012\projects\freefalcon\ui95\chandler.cpp
_TEXT	SEGMENT
_this$ = -8						; size = 4
_i$ = -4						; size = 2
_upd$ = 8						; size = 4
?SetUpdateRect@C_Handler@@QAEXPAUUI95_RECT@@@Z PROC	; C_Handler::SetUpdateRect
; _this$ = ecx

; 805  : {

	push	ebp
	mov	ebp, esp
	sub	esp, 8
	mov	DWORD PTR _this$[ebp], ecx

; 806  : 	short i;
; 807  : 
; 808  : 	if(rectcount_ < 1)

	mov	eax, DWORD PTR _this$[ebp]
	movsx	ecx, WORD PTR [eax+3464]
	cmp	ecx, 1
	jge	SHORT $LN8@SetUpdateR

; 809  : 	{
; 810  : 		rectlist_[rectcount_]=*upd;

	mov	edx, DWORD PTR _this$[ebp]
	movsx	eax, WORD PTR [edx+3464]
	shl	eax, 4
	mov	ecx, DWORD PTR _this$[ebp]
	lea	edx, DWORD PTR [ecx+eax+264]
	mov	eax, DWORD PTR _upd$[ebp]
	mov	ecx, DWORD PTR [eax]
	mov	DWORD PTR [edx], ecx
	mov	ecx, DWORD PTR [eax+4]
	mov	DWORD PTR [edx+4], ecx
	mov	ecx, DWORD PTR [eax+8]
	mov	DWORD PTR [edx+8], ecx
	mov	eax, DWORD PTR [eax+12]
	mov	DWORD PTR [edx+12], eax

; 811  : 		rectcount_++;

	mov	ecx, DWORD PTR _this$[ebp]
	mov	dx, WORD PTR [ecx+3464]
	add	dx, 1
	mov	eax, DWORD PTR _this$[ebp]
	mov	WORD PTR [eax+3464], dx

; 812  : 		UpdateFlag |= C_DRAW_COPYWINDOW;

	mov	ecx, DWORD PTR _this$[ebp]
	mov	edx, DWORD PTR [ecx+3472]
	or	edx, 268435456				; 10000000H
	mov	eax, DWORD PTR _this$[ebp]
	mov	DWORD PTR [eax+3472], edx
	jmp	$LN9@SetUpdateR
$LN8@SetUpdateR:

; 813  : 	}
; 814  : 	else if(rectcount_ < HND_MAX_RECTS)

	mov	ecx, DWORD PTR _this$[ebp]
	movsx	edx, WORD PTR [ecx+3464]
	cmp	edx, 200				; 000000c8H
	jge	$LN6@SetUpdateR

; 815  : 	{
; 816  : 		for(i=0;i<rectcount_;i++)

	xor	eax, eax
	mov	WORD PTR _i$[ebp], ax
	jmp	SHORT $LN5@SetUpdateR
$LN4@SetUpdateR:
	mov	cx, WORD PTR _i$[ebp]
	add	cx, 1
	mov	WORD PTR _i$[ebp], cx
$LN5@SetUpdateR:
	movsx	edx, WORD PTR _i$[ebp]
	mov	eax, DWORD PTR _this$[ebp]
	movsx	ecx, WORD PTR [eax+3464]
	cmp	edx, ecx
	jge	SHORT $LN3@SetUpdateR

; 817  : 		{
; 818  : 			if(rectlist_[i].left <= upd->left && rectlist_[i].top <= upd->top && rectlist_[i].right > upd->right && rectlist_[i].bottom >= upd->bottom)

	movsx	edx, WORD PTR _i$[ebp]
	shl	edx, 4
	mov	eax, DWORD PTR _this$[ebp]
	mov	ecx, DWORD PTR _upd$[ebp]
	mov	edx, DWORD PTR [eax+edx+264]
	cmp	edx, DWORD PTR [ecx]
	jg	SHORT $LN2@SetUpdateR
	movsx	eax, WORD PTR _i$[ebp]
	shl	eax, 4
	mov	ecx, DWORD PTR _this$[ebp]
	mov	edx, DWORD PTR _upd$[ebp]
	mov	eax, DWORD PTR [ecx+eax+268]
	cmp	eax, DWORD PTR [edx+4]
	jg	SHORT $LN2@SetUpdateR
	movsx	ecx, WORD PTR _i$[ebp]
	shl	ecx, 4
	mov	edx, DWORD PTR _this$[ebp]
	mov	eax, DWORD PTR _upd$[ebp]
	mov	ecx, DWORD PTR [edx+ecx+272]
	cmp	ecx, DWORD PTR [eax+8]
	jle	SHORT $LN2@SetUpdateR
	movsx	edx, WORD PTR _i$[ebp]
	shl	edx, 4
	mov	eax, DWORD PTR _this$[ebp]
	mov	ecx, DWORD PTR _upd$[ebp]
	mov	edx, DWORD PTR [eax+edx+276]
	cmp	edx, DWORD PTR [ecx+12]
	jl	SHORT $LN2@SetUpdateR

; 819  : 				return;

	jmp	$LN9@SetUpdateR
$LN2@SetUpdateR:

; 820  : 		}

	jmp	$LN4@SetUpdateR
$LN3@SetUpdateR:

; 821  : 		rectlist_[rectcount_].left=upd->left;

	mov	eax, DWORD PTR _this$[ebp]
	movsx	ecx, WORD PTR [eax+3464]
	shl	ecx, 4
	mov	edx, DWORD PTR _this$[ebp]
	mov	eax, DWORD PTR _upd$[ebp]
	mov	eax, DWORD PTR [eax]
	mov	DWORD PTR [edx+ecx+264], eax

; 822  : 		rectlist_[rectcount_].top=upd->top;

	mov	ecx, DWORD PTR _this$[ebp]
	movsx	edx, WORD PTR [ecx+3464]
	shl	edx, 4
	mov	eax, DWORD PTR _this$[ebp]
	mov	ecx, DWORD PTR _upd$[ebp]
	mov	ecx, DWORD PTR [ecx+4]
	mov	DWORD PTR [eax+edx+268], ecx

; 823  : 		rectlist_[rectcount_].right=upd->right;

	mov	edx, DWORD PTR _this$[ebp]
	movsx	eax, WORD PTR [edx+3464]
	shl	eax, 4
	mov	ecx, DWORD PTR _this$[ebp]
	mov	edx, DWORD PTR _upd$[ebp]
	mov	edx, DWORD PTR [edx+8]
	mov	DWORD PTR [ecx+eax+272], edx

; 824  : 		rectlist_[rectcount_].bottom=upd->bottom;

	mov	eax, DWORD PTR _this$[ebp]
	movsx	ecx, WORD PTR [eax+3464]
	shl	ecx, 4
	mov	edx, DWORD PTR _this$[ebp]
	mov	eax, DWORD PTR _upd$[ebp]
	mov	eax, DWORD PTR [eax+12]
	mov	DWORD PTR [edx+ecx+276], eax

; 825  : 		rectcount_++;

	mov	ecx, DWORD PTR _this$[ebp]
	mov	dx, WORD PTR [ecx+3464]
	add	dx, 1
	mov	eax, DWORD PTR _this$[ebp]
	mov	WORD PTR [eax+3464], dx

; 826  : 		UpdateFlag |= C_DRAW_COPYWINDOW;

	mov	ecx, DWORD PTR _this$[ebp]
	mov	edx, DWORD PTR [ecx+3472]
	or	edx, 268435456				; 10000000H
	mov	eax, DWORD PTR _this$[ebp]
	mov	DWORD PTR [eax+3472], edx

; 827  : 	}
; 828  : 	else

	jmp	$LN9@SetUpdateR
$LN6@SetUpdateR:

; 829  : 	{
; 830  : 		rectcount_=1;

	mov	ecx, 1
	mov	edx, DWORD PTR _this$[ebp]
	mov	WORD PTR [edx+3464], cx

; 831  : 		rectlist_[0].left=0;

	mov	eax, 16					; 00000010H
	imul	eax, 0
	mov	ecx, DWORD PTR _this$[ebp]
	mov	DWORD PTR [ecx+eax+264], 0

; 832  : 		rectlist_[0].top=0;

	mov	edx, 16					; 00000010H
	imul	edx, 0
	mov	eax, DWORD PTR _this$[ebp]
	mov	DWORD PTR [eax+edx+268], 0

; 833  : 		rectlist_[0].right=GetW();

	mov	ecx, DWORD PTR _this$[ebp]
	call	?GetW@C_Handler@@QAEJXZ			; C_Handler::GetW
	mov	ecx, 16					; 00000010H
	imul	ecx, 0
	mov	edx, DWORD PTR _this$[ebp]
	mov	DWORD PTR [edx+ecx+272], eax

; 834  : 		rectlist_[0].bottom=GetH();

	mov	ecx, DWORD PTR _this$[ebp]
	call	?GetH@C_Handler@@QAEJXZ			; C_Handler::GetH
	mov	ecx, 16					; 00000010H
	imul	ecx, 0
	mov	edx, DWORD PTR _this$[ebp]
	mov	DWORD PTR [edx+ecx+276], eax

; 835  : 		UpdateFlag |= C_DRAW_COPYWINDOW;

	mov	eax, DWORD PTR _this$[ebp]
	mov	ecx, DWORD PTR [eax+3472]
	or	ecx, 268435456				; 10000000H
	mov	edx, DWORD PTR _this$[ebp]
	mov	DWORD PTR [edx+3472], ecx
$LN9@SetUpdateR:

; 836  : 	}
; 837  : }

	mov	esp, ebp
	pop	ebp
	ret	4
?SetUpdateRect@C_Handler@@QAEXPAUUI95_RECT@@@Z ENDP	; C_Handler::SetUpdateRect
_TEXT	ENDS
; Function compile flags: /Odtp
; File c:\users\zhitao li\documents\visual studio 2012\projects\freefalcon\ui95\chandler.cpp
_TEXT	SEGMENT
_p$1 = -116						; size = 8
tv144 = -108						; size = 4
tv1142 = -104						; size = 4
tv1158 = -100						; size = 4
tv473 = -96						; size = 4
_Repeat$ = -92						; size = 4
_MouseZ$2 = -88						; size = 2
_DblClk$ = -84						; size = 4
_Ascii$ = -77						; size = 1
_OldMouseControl_$ = -76				; size = 4
tv65 = -72						; size = 4
_MessageType$ = -68					; size = 4
_retval$ = -64						; size = 4
_ret$ = -60						; size = 4
_ShiftStates$ = -54					; size = 1
_Key$ = -53						; size = 1
_overme$ = -52						; size = 4
_MouseY$ = -48						; size = 2
_MouseX$ = -44						; size = 2
_this$ = -40						; size = 4
_upme$3 = -36						; size = 16
_dest$ = -20						; size = 16
__$ArrayPad$ = -4					; size = 4
_hwnd$ = 8						; size = 4
_message$ = 12						; size = 4
_wParam$ = 16						; size = 4
_lParam$ = 20						; size = 4
?EventHandler@C_Handler@@QAEJPAUHWND__@@IIJ@Z PROC	; C_Handler::EventHandler
; _this$ = ecx

; 1933 : {

	push	ebp
	mov	ebp, esp
	sub	esp, 116				; 00000074H
	mov	eax, DWORD PTR ___security_cookie
	xor	eax, ebp
	mov	DWORD PTR __$ArrayPad$[ebp], eax
	push	esi
	push	edi
	mov	DWORD PTR _this$[ebp], ecx

; 1934 : 	C_Window *overme;
; 1935 : 	C_Base   *OldMouseControl_;
; 1936 : 	WORD MouseX, MouseY;
; 1937 : 	RECT dest;
; 1938 : 	long retval=1;

	mov	DWORD PTR _retval$[ebp], 1

; 1939 : 	BOOL ret=TRUE;

	mov	DWORD PTR _ret$[ebp], 1

; 1940 : 	unsigned char Key;
; 1941 : 	unsigned char Ascii;
; 1942 : 	unsigned char ShiftStates;
; 1943 : 	long Repeat;
; 1944 : 	long MessageType,DblClk;
; 1945 : 	static int InTimer=0;
; 1946 : 
; 1947 : 	HandlingMessage=message;

	mov	eax, DWORD PTR _this$[ebp]
	mov	ecx, DWORD PTR _message$[ebp]
	mov	DWORD PTR [eax+3468], ecx

; 1948 : 
; 1949 : 	switch(message)

	mov	edx, DWORD PTR _message$[ebp]
	mov	DWORD PTR tv65[ebp], edx
	cmp	DWORD PTR tv65[ebp], 512		; 00000200H
	ja	SHORT $LN178@EventHandl
	cmp	DWORD PTR tv65[ebp], 512		; 00000200H
	je	$LN112@EventHandl
	cmp	DWORD PTR tv65[ebp], 256		; 00000100H
	ja	SHORT $LN179@EventHandl
	cmp	DWORD PTR tv65[ebp], 256		; 00000100H
	je	$LN29@EventHandl
	cmp	DWORD PTR tv65[ebp], 3
	je	$LN7@EventHandl
	cmp	DWORD PTR tv65[ebp], 15			; 0000000fH
	je	$LN3@EventHandl
	jmp	$LN168@EventHandl
$LN179@EventHandl:
	cmp	DWORD PTR tv65[ebp], 257		; 00000101H
	je	$LN33@EventHandl
	cmp	DWORD PTR tv65[ebp], 260		; 00000104H
	je	$LN29@EventHandl
	cmp	DWORD PTR tv65[ebp], 261		; 00000105H
	je	$LN33@EventHandl
	jmp	$LN168@EventHandl
$LN178@EventHandl:
	cmp	DWORD PTR tv65[ebp], 522		; 0000020aH
	ja	SHORT $LN180@EventHandl
	cmp	DWORD PTR tv65[ebp], 522		; 0000020aH
	je	SHORT $LN167@EventHandl
	mov	eax, DWORD PTR tv65[ebp]
	sub	eax, 513				; 00000201H
	mov	DWORD PTR tv65[ebp], eax
	cmp	DWORD PTR tv65[ebp], 4
	ja	$LN168@EventHandl
	mov	ecx, DWORD PTR tv65[ebp]
	jmp	DWORD PTR $LN181@EventHandl[ecx*4]
$LN180@EventHandl:
	cmp	DWORD PTR tv65[ebp], 6025		; 00001789H
	je	$LN8@EventHandl
	cmp	DWORD PTR tv65[ebp], 6027		; 0000178bH
	je	$LN41@EventHandl
	jmp	$LN168@EventHandl
$LN167@EventHandl:

; 1950 : 	{
; 1951 : 		// sfr: added mouse wheel
; 1952 : 		case WM_MOUSEWHEEL:
; 1953 : 		{	
; 1954 : 			WORD MouseZ;
; 1955 : 			HelpOff();

	mov	ecx, DWORD PTR _this$[ebp]
	call	?HelpOff@C_Handler@@AAEXXZ		; C_Handler::HelpOff

; 1956 : 			if(OldInputMessage()){

	mov	ecx, DWORD PTR _this$[ebp]
	call	?OldInputMessage@C_Handler@@AAEHXZ	; C_Handler::OldInputMessage
	test	eax, eax
	je	SHORT $LN166@EventHandl

; 1957 : 				retval=0;

	mov	DWORD PTR _retval$[ebp], 0

; 1958 : 				break;

	jmp	$LN168@EventHandl
$LN166@EventHandl:

; 1959 : 			}
; 1960 : 			MessageType=C_TYPE_MOUSEWHEEL;

	mov	DWORD PTR _MessageType$[ebp], 59	; 0000003bH

; 1961 : 
; 1962 : 			// we have to correct mouse position, since this is relative to screen
; 1963 : 			// lparam is cursor x/y (low hi)
; 1964 : 			POINT p;
; 1965 : 			p.x = LOWORD(lParam);

	mov	edx, DWORD PTR _lParam$[ebp]
	and	edx, 65535				; 0000ffffH
	movzx	eax, dx
	mov	DWORD PTR _p$1[ebp], eax

; 1966 : 			p.y = HIWORD(lParam);

	mov	ecx, DWORD PTR _lParam$[ebp]
	shr	ecx, 16					; 00000010H
	and	ecx, 65535				; 0000ffffH
	movzx	edx, cx
	mov	DWORD PTR _p$1[ebp+4], edx

; 1967 : 			ScreenToClient(hwnd, &p);

	lea	eax, DWORD PTR _p$1[ebp]
	push	eax
	mov	ecx, DWORD PTR _hwnd$[ebp]
	push	ecx
	call	DWORD PTR __imp__ScreenToClient@8

; 1968 : 			MouseX = (WORD)p.x;

	mov	dx, WORD PTR _p$1[ebp]
	mov	WORD PTR _MouseX$[ebp], dx

; 1969 : 			MouseY = (WORD)p.y;

	mov	ax, WORD PTR _p$1[ebp+4]
	mov	WORD PTR _MouseY$[ebp], ax

; 1970 : 			overme=GetWindow(MouseX,MouseY);

	movzx	ecx, WORD PTR _MouseY$[ebp]
	push	ecx
	movzx	edx, WORD PTR _MouseX$[ebp]
	push	edx
	mov	ecx, DWORD PTR _this$[ebp]
	call	?GetWindow@C_Handler@@QAEPAVC_Window@@FF@Z ; C_Handler::GetWindow
	mov	DWORD PTR _overme$[ebp], eax

; 1971 : 			if (overme == NULL){

	cmp	DWORD PTR _overme$[ebp], 0
	jne	SHORT $LN165@EventHandl

; 1972 : 				break; 

	jmp	$LN168@EventHandl
$LN165@EventHandl:

; 1973 : 			}
; 1974 : 
; 1975 : 			// so we are rolling wheel inside an active window
; 1976 : 
; 1977 : 			// grab component we are over
; 1978 : 			if (!GrabItem(MouseX, MouseY, overme, MessageType)){

	mov	eax, DWORD PTR _MessageType$[ebp]
	push	eax
	mov	ecx, DWORD PTR _overme$[ebp]
	push	ecx
	movzx	edx, WORD PTR _MouseY$[ebp]
	push	edx
	movzx	eax, WORD PTR _MouseX$[ebp]
	push	eax
	mov	ecx, DWORD PTR _this$[ebp]
	call	?GrabItem@C_Handler@@QAEHGGPAVC_Window@@J@Z ; C_Handler::GrabItem
	test	eax, eax
	jne	SHORT $LN164@EventHandl

; 1979 : 				break;

	jmp	$LN168@EventHandl
$LN164@EventHandl:

; 1980 : 			}
; 1981 : 
; 1982 : 			// wparam is distance rolled/ key modifiers (low hi)
; 1983 : 			// here we found a component. process event
; 1984 : 			// check hi bit of MouseZ, since word is unsigned
; 1985 : 			MouseZ = 1 << ((sizeof(WORD)*8) -1);

	mov	ecx, 32768				; 00008000H
	mov	WORD PTR _MouseZ$2[ebp], cx

; 1986 : 			MouseZ &= HIWORD(wParam);

	mov	edx, DWORD PTR _wParam$[ebp]
	shr	edx, 16					; 00000010H
	and	edx, 65535				; 0000ffffH
	movzx	eax, dx
	movzx	ecx, WORD PTR _MouseZ$2[ebp]
	and	ecx, eax
	mov	WORD PTR _MouseZ$2[ebp], cx

; 1987 : 			// here we invert, since positive in mouse wheel
; 1988 : 			// is forward, and forward is up in screen coordinates (neg values)
; 1989 : 			Grab_.Control_->Wheel(MouseZ ? 1 : -1, MouseX, MouseY);

	movzx	edx, WORD PTR _MouseZ$2[ebp]
	test	edx, edx
	je	SHORT $LN172@EventHandl
	mov	DWORD PTR tv144[ebp], 1
	jmp	SHORT $LN173@EventHandl
$LN172@EventHandl:
	mov	DWORD PTR tv144[ebp], -1
$LN173@EventHandl:
	movzx	eax, WORD PTR _MouseY$[ebp]
	push	eax
	movzx	ecx, WORD PTR _MouseX$[ebp]
	push	ecx
	mov	edx, DWORD PTR tv144[ebp]
	push	edx
	mov	eax, DWORD PTR _this$[ebp]
	mov	ecx, DWORD PTR [eax+200]
	mov	edx, DWORD PTR _this$[ebp]
	mov	eax, DWORD PTR [ecx]
	mov	ecx, DWORD PTR [edx+200]
	mov	edx, DWORD PTR [eax+232]
	call	edx

; 1990 : 			ret = TRUE;

	mov	DWORD PTR _ret$[ebp], 1

; 1991 : 		}
; 1992 : 		break;

	jmp	$LN168@EventHandl
$LN163@EventHandl:

; 1993 : 		case WM_LBUTTONDOWN:
; 1994 : 			HelpOff();

	mov	ecx, DWORD PTR _this$[ebp]
	call	?HelpOff@C_Handler@@AAEXXZ		; C_Handler::HelpOff

; 1995 : 			if(OldInputMessage())

	mov	ecx, DWORD PTR _this$[ebp]
	call	?OldInputMessage@C_Handler@@AAEHXZ	; C_Handler::OldInputMessage
	test	eax, eax
	je	SHORT $LN162@EventHandl

; 1996 : 			{
; 1997 : 				retval=0;

	mov	DWORD PTR _retval$[ebp], 0

; 1998 : 				break;

	jmp	$LN168@EventHandl
$LN162@EventHandl:

; 1999 : 			}
; 2000 : 			MessageType=C_TYPE_LMOUSEDOWN;

	mov	DWORD PTR _MessageType$[ebp], 51	; 00000033H

; 2001 : 
; 2002 : 			MouseDown_=C_TYPE_LMOUSEDOWN;

	mov	eax, DWORD PTR _this$[ebp]
	mov	DWORD PTR [eax+240], 51			; 00000033H

; 2003 : 			MouseDownTime_=GetCurrentTime();

	call	DWORD PTR __imp__GetTickCount@0
	mov	ecx, DWORD PTR _this$[ebp]
	mov	DWORD PTR [ecx+244], eax

; 2004 : 			MouseX = LOWORD(lParam);

	mov	edx, DWORD PTR _lParam$[ebp]
	and	edx, 65535				; 0000ffffH
	mov	WORD PTR _MouseX$[ebp], dx

; 2005 : 			MouseY = HIWORD(lParam);

	mov	eax, DWORD PTR _lParam$[ebp]
	shr	eax, 16					; 00000010H
	and	eax, 65535				; 0000ffffH
	mov	WORD PTR _MouseY$[ebp], ax

; 2006 : 			overme=GetWindow(MouseX,MouseY);

	movzx	ecx, WORD PTR _MouseY$[ebp]
	push	ecx
	movzx	edx, WORD PTR _MouseX$[ebp]
	push	edx
	mov	ecx, DWORD PTR _this$[ebp]
	call	?GetWindow@C_Handler@@QAEPAVC_Window@@FF@Z ; C_Handler::GetWindow
	mov	DWORD PTR _overme$[ebp], eax

; 2007 : 			if(overme == NULL){

	cmp	DWORD PTR _overme$[ebp], 0
	jne	SHORT $LN161@EventHandl

; 2008 : 				retval=0;

	mov	DWORD PTR _retval$[ebp], 0

; 2009 : 				break; 

	jmp	$LN168@EventHandl
$LN161@EventHandl:

; 2010 : 			}
; 2011 : 
; 2012 : 			if(CurWindow_ && CurWindow_ != overme)

	mov	eax, DWORD PTR _this$[ebp]
	cmp	DWORD PTR [eax+236], 0
	je	SHORT $LN160@EventHandl
	mov	ecx, DWORD PTR _this$[ebp]
	mov	edx, DWORD PTR [ecx+236]
	cmp	edx, DWORD PTR _overme$[ebp]
	je	SHORT $LN160@EventHandl

; 2013 : 			{
; 2014 : 				CurWindow_->Deactivate();

	mov	eax, DWORD PTR _this$[ebp]
	mov	ecx, DWORD PTR [eax+236]
	call	?Deactivate@C_Window@@QAEXXZ		; C_Window::Deactivate

; 2015 : 				overme->Activate();

	mov	ecx, DWORD PTR _overme$[ebp]
	call	?Activate@C_Window@@QAEXXZ		; C_Window::Activate
$LN160@EventHandl:

; 2016 : 			}
; 2017 : 
; 2018 : 			CurWindow_=overme;

	mov	ecx, DWORD PTR _this$[ebp]
	mov	edx, DWORD PTR _overme$[ebp]
	mov	DWORD PTR [ecx+236], edx

; 2019 : 
; 2020 : 			if(gPopupMgr->AMenuOpened() && !overme->IsMenu())

	mov	ecx, DWORD PTR ?gPopupMgr@@3PAVC_PopupMgr@@A ; gPopupMgr
	call	?AMenuOpened@C_PopupMgr@@QAEHXZ		; C_PopupMgr::AMenuOpened
	test	eax, eax
	je	SHORT $LN159@EventHandl
	mov	ecx, DWORD PTR _overme$[ebp]
	call	?IsMenu@C_Window@@QAEJXZ		; C_Window::IsMenu
	test	eax, eax
	jne	SHORT $LN159@EventHandl

; 2021 : 				gPopupMgr->CloseMenu();

	mov	ecx, DWORD PTR ?gPopupMgr@@3PAVC_PopupMgr@@A ; gPopupMgr
	call	?CloseMenu@C_PopupMgr@@QAEXXZ		; C_PopupMgr::CloseMenu
$LN159@EventHandl:

; 2022 : 
; 2023 : 			if(Dragging()){

	mov	ecx, DWORD PTR _this$[ebp]
	call	?Dragging@C_Handler@@QAEHXZ		; C_Handler::Dragging
	test	eax, eax
	je	SHORT $LN158@EventHandl

; 2024 : 				DropItem(MouseX,MouseY,overme);

	mov	eax, DWORD PTR _overme$[ebp]
	push	eax
	movzx	ecx, WORD PTR _MouseY$[ebp]
	push	ecx
	movzx	edx, WORD PTR _MouseX$[ebp]
	push	edx
	mov	ecx, DWORD PTR _this$[ebp]
	call	?DropItem@C_Handler@@QAEHGGPAVC_Window@@@Z ; C_Handler::DropItem
$LN158@EventHandl:

; 2025 : 			}
; 2026 : 
; 2027 : 			if(GrabItem(MouseX,MouseY,overme,MessageType))

	mov	eax, DWORD PTR _MessageType$[ebp]
	push	eax
	mov	ecx, DWORD PTR _overme$[ebp]
	push	ecx
	movzx	edx, WORD PTR _MouseY$[ebp]
	push	edx
	movzx	eax, WORD PTR _MouseX$[ebp]
	push	eax
	mov	ecx, DWORD PTR _this$[ebp]
	call	?GrabItem@C_Handler@@QAEHGGPAVC_Window@@J@Z ; C_Handler::GrabItem
	test	eax, eax
	je	$LN157@EventHandl

; 2028 : 			{
; 2029 : 				if(MouseCallback_){

	mov	ecx, DWORD PTR _this$[ebp]
	cmp	DWORD PTR [ecx+104], 0
	je	SHORT $LN156@EventHandl

; 2030 : 					ret=(*MouseCallback_)(Grab_.Control_,MouseX,MouseY,overme,(short)MessageType);//!

	movzx	edx, WORD PTR _MessageType$[ebp]
	push	edx
	mov	eax, DWORD PTR _overme$[ebp]
	push	eax
	movzx	ecx, WORD PTR _MouseY$[ebp]
	push	ecx
	movzx	edx, WORD PTR _MouseX$[ebp]
	push	edx
	mov	eax, DWORD PTR _this$[ebp]
	mov	ecx, DWORD PTR [eax+200]
	push	ecx
	mov	edx, DWORD PTR _this$[ebp]
	mov	eax, DWORD PTR [edx+104]
	call	eax
	add	esp, 20					; 00000014H
	mov	DWORD PTR _ret$[ebp], eax

; 2031 : 				}
; 2032 : 				else{

	jmp	SHORT $LN155@EventHandl
$LN156@EventHandl:

; 2033 : 					ret=TRUE;

	mov	DWORD PTR _ret$[ebp], 1
$LN155@EventHandl:

; 2034 : 				}
; 2035 : 
; 2036 : 				if(ret){

	cmp	DWORD PTR _ret$[ebp], 0
	je	SHORT $LN154@EventHandl

; 2037 : 					overme->SetControl(Grab_.ID_);

	mov	ecx, DWORD PTR _this$[ebp]
	mov	edx, DWORD PTR [ecx+172]
	push	edx
	mov	ecx, DWORD PTR _overme$[ebp]
	call	?SetControl@C_Window@@QAEXJ@Z		; C_Window::SetControl

; 2038 : 					WindowToFront(overme);

	mov	eax, DWORD PTR _overme$[ebp]
	push	eax
	mov	ecx, DWORD PTR _this$[ebp]
	call	?WindowToFront@C_Handler@@QAEXPAVC_Window@@@Z ; C_Handler::WindowToFront

; 2039 : 					Grab_.Control_->Process(Grab_.ID_,(short)MessageType);//!

	movzx	ecx, WORD PTR _MessageType$[ebp]
	push	ecx
	mov	edx, DWORD PTR _this$[ebp]
	mov	eax, DWORD PTR [edx+172]
	push	eax
	mov	ecx, DWORD PTR _this$[ebp]
	mov	edx, DWORD PTR [ecx+200]
	mov	eax, DWORD PTR _this$[ebp]
	mov	edx, DWORD PTR [edx]
	mov	ecx, DWORD PTR [eax+200]
	mov	eax, DWORD PTR [edx+200]
	call	eax
$LN154@EventHandl:

; 2040 : 				}
; 2041 : 			}
; 2042 : 			else {

	jmp	SHORT $LN153@EventHandl
$LN157@EventHandl:

; 2043 : 				overme->DeactivateControl();

	mov	ecx, DWORD PTR _overme$[ebp]
	call	?DeactivateControl@C_Window@@QAEXXZ	; C_Window::DeactivateControl

; 2044 : 				if(MouseCallback_)

	mov	ecx, DWORD PTR _this$[ebp]
	cmp	DWORD PTR [ecx+104], 0
	je	SHORT $LN152@EventHandl

; 2045 : 					ret=(*MouseCallback_)(NULL,MouseX,MouseY,overme,(short)MessageType);//!

	movzx	edx, WORD PTR _MessageType$[ebp]
	push	edx
	mov	eax, DWORD PTR _overme$[ebp]
	push	eax
	movzx	ecx, WORD PTR _MouseY$[ebp]
	push	ecx
	movzx	edx, WORD PTR _MouseX$[ebp]
	push	edx
	push	0
	mov	eax, DWORD PTR _this$[ebp]
	mov	ecx, DWORD PTR [eax+104]
	call	ecx
	add	esp, 20					; 00000014H
	mov	DWORD PTR _ret$[ebp], eax
$LN152@EventHandl:

; 2046 : 				if(ret)

	cmp	DWORD PTR _ret$[ebp], 0
	je	SHORT $LN153@EventHandl

; 2047 : 					WindowToFront(overme);

	mov	edx, DWORD PTR _overme$[ebp]
	push	edx
	mov	ecx, DWORD PTR _this$[ebp]
	call	?WindowToFront@C_Handler@@QAEXPAVC_Window@@@Z ; C_Handler::WindowToFront
$LN153@EventHandl:

; 2048 : 			}
; 2049 : 			retval=0;

	mov	DWORD PTR _retval$[ebp], 0

; 2050 : 			break;

	jmp	$LN168@EventHandl
$LN150@EventHandl:

; 2051 : 		case WM_LBUTTONUP:
; 2052 : 			if(OldInputMessage())

	mov	ecx, DWORD PTR _this$[ebp]
	call	?OldInputMessage@C_Handler@@AAEHXZ	; C_Handler::OldInputMessage
	test	eax, eax
	je	SHORT $LN149@EventHandl

; 2053 : 			{
; 2054 : 				retval=0;

	mov	DWORD PTR _retval$[ebp], 0

; 2055 : 				break;

	jmp	$LN168@EventHandl
$LN149@EventHandl:

; 2056 : 			}
; 2057 : 			MouseDown_=0;

	mov	eax, DWORD PTR _this$[ebp]
	mov	DWORD PTR [eax+240], 0

; 2058 : 			MouseX = LOWORD(lParam);

	mov	ecx, DWORD PTR _lParam$[ebp]
	and	ecx, 65535				; 0000ffffH
	mov	WORD PTR _MouseX$[ebp], cx

; 2059 : 			MouseY = HIWORD(lParam);

	mov	edx, DWORD PTR _lParam$[ebp]
	shr	edx, 16					; 00000010H
	and	edx, 65535				; 0000ffffH
	mov	WORD PTR _MouseY$[ebp], dx

; 2060 : 			overme=GetWindow(MouseX,MouseY);

	movzx	eax, WORD PTR _MouseY$[ebp]
	push	eax
	movzx	ecx, WORD PTR _MouseX$[ebp]
	push	ecx
	mov	ecx, DWORD PTR _this$[ebp]
	call	?GetWindow@C_Handler@@QAEPAVC_Window@@FF@Z ; C_Handler::GetWindow
	mov	DWORD PTR _overme$[ebp], eax

; 2061 : 			if(overme == NULL)

	cmp	DWORD PTR _overme$[ebp], 0
	jne	SHORT $LN148@EventHandl

; 2062 : 			{
; 2063 : 				retval=0;

	mov	DWORD PTR _retval$[ebp], 0

; 2064 : 				break;

	jmp	$LN168@EventHandl
$LN148@EventHandl:

; 2065 : 			}
; 2066 : 
; 2067 : 			if(LastUp_ == C_TYPE_LMOUSEUP && (GetMessageTime() - LastUpTime_) < DoubleClickTime_)

	mov	edx, DWORD PTR _this$[ebp]
	cmp	DWORD PTR [edx+248], 52			; 00000034H
	jne	SHORT $LN147@EventHandl
	call	DWORD PTR __imp__GetMessageTime@0
	mov	ecx, DWORD PTR _this$[ebp]
	sub	eax, DWORD PTR [ecx+252]
	mov	edx, DWORD PTR _this$[ebp]
	cmp	eax, DWORD PTR [edx+256]
	jge	SHORT $LN147@EventHandl

; 2068 : 				DblClk=C_TYPE_LMOUSEDBLCLK;

	mov	DWORD PTR _DblClk$[ebp], 53		; 00000035H

; 2069 : 			else

	jmp	SHORT $LN146@EventHandl
$LN147@EventHandl:

; 2070 : 				DblClk=0;

	mov	DWORD PTR _DblClk$[ebp], 0
$LN146@EventHandl:

; 2071 : 			MessageType=C_TYPE_LMOUSEUP;

	mov	DWORD PTR _MessageType$[ebp], 52	; 00000034H

; 2072 : 			LastUp_=MessageType;

	mov	eax, DWORD PTR _this$[ebp]
	mov	ecx, DWORD PTR _MessageType$[ebp]
	mov	DWORD PTR [eax+248], ecx

; 2073 : 			LastUpTime_=GetMessageTime();

	call	DWORD PTR __imp__GetMessageTime@0
	mov	edx, DWORD PTR _this$[ebp]
	mov	DWORD PTR [edx+252], eax

; 2074 : 			if(Dragging()){

	mov	ecx, DWORD PTR _this$[ebp]
	call	?Dragging@C_Handler@@QAEHXZ		; C_Handler::Dragging
	test	eax, eax
	je	SHORT $LN145@EventHandl

; 2075 : 				DropItem(MouseX,MouseY,overme);

	mov	eax, DWORD PTR _overme$[ebp]
	push	eax
	movzx	ecx, WORD PTR _MouseY$[ebp]
	push	ecx
	movzx	edx, WORD PTR _MouseX$[ebp]
	push	edx
	mov	ecx, DWORD PTR _this$[ebp]
	call	?DropItem@C_Handler@@QAEHGGPAVC_Window@@@Z ; C_Handler::DropItem

; 2076 : 				MessageType=C_TYPE_LDROP;

	mov	DWORD PTR _MessageType$[ebp], 73	; 00000049H
$LN145@EventHandl:

; 2077 : 			}
; 2078 : 
; 2079 : 			if(Grab_.Control_){

	mov	eax, DWORD PTR _this$[ebp]
	cmp	DWORD PTR [eax+200], 0
	je	$LN144@EventHandl

; 2080 : 				if(this != gMainHandler){

	mov	ecx, DWORD PTR _this$[ebp]
	cmp	ecx, DWORD PTR ?gMainHandler@@3PAVC_Handler@@A ; gMainHandler
	je	SHORT $LN143@EventHandl

; 2081 : 					ret=TRUE;

	mov	DWORD PTR _ret$[ebp], 1
$LN143@EventHandl:

; 2082 : 				}
; 2083 : 
; 2084 : 				if(MouseCallback_ && Grab_.Control_){

	mov	edx, DWORD PTR _this$[ebp]
	cmp	DWORD PTR [edx+104], 0
	je	SHORT $LN142@EventHandl
	mov	eax, DWORD PTR _this$[ebp]
	cmp	DWORD PTR [eax+200], 0
	je	SHORT $LN142@EventHandl

; 2085 : 					ret=(*MouseCallback_)(Grab_.Control_,MouseX,MouseY,overme,(short)MessageType);	//!

	movzx	ecx, WORD PTR _MessageType$[ebp]
	push	ecx
	mov	edx, DWORD PTR _overme$[ebp]
	push	edx
	movzx	eax, WORD PTR _MouseY$[ebp]
	push	eax
	movzx	ecx, WORD PTR _MouseX$[ebp]
	push	ecx
	mov	edx, DWORD PTR _this$[ebp]
	mov	eax, DWORD PTR [edx+200]
	push	eax
	mov	ecx, DWORD PTR _this$[ebp]
	mov	edx, DWORD PTR [ecx+104]
	call	edx
	add	esp, 20					; 00000014H
	mov	DWORD PTR _ret$[ebp], eax

; 2086 : 				}
; 2087 : 				else {

	jmp	SHORT $LN141@EventHandl
$LN142@EventHandl:

; 2088 : 					ret=TRUE;

	mov	DWORD PTR _ret$[ebp], 1
$LN141@EventHandl:

; 2089 : 				}
; 2090 : 
; 2091 : 				if (this != gMainHandler){

	mov	eax, DWORD PTR _this$[ebp]
	cmp	eax, DWORD PTR ?gMainHandler@@3PAVC_Handler@@A ; gMainHandler
	je	SHORT $LN140@EventHandl

; 2092 : 					ret=TRUE;

	mov	DWORD PTR _ret$[ebp], 1
$LN140@EventHandl:

; 2093 : 				}
; 2094 : 
; 2095 : 				if(ret && Grab_.Control_){

	cmp	DWORD PTR _ret$[ebp], 0
	je	$LN139@EventHandl
	mov	ecx, DWORD PTR _this$[ebp]
	cmp	DWORD PTR [ecx+200], 0
	je	$LN139@EventHandl

; 2096 : 					if(Grab_.Control_->GetFlags() & C_BIT_ABSOLUTE){

	mov	edx, DWORD PTR _this$[ebp]
	mov	ecx, DWORD PTR [edx+200]
	call	?GetFlags@C_Base@@QAEJXZ		; C_Base::GetFlags
	and	eax, 262144				; 00040000H
	je	SHORT $LN138@EventHandl

; 2097 : 						Grab_.Control_->SetRelXY(
; 2098 : 							MouseX-Grab_.Window_->GetX()-Grab_.Control_->GetX(),
; 2099 : 							MouseY-Grab_.Window_->GetY()-Grab_.Control_->GetY()
; 2100 : 						);

	movzx	esi, WORD PTR _MouseY$[ebp]
	mov	eax, DWORD PTR _this$[ebp]
	mov	ecx, DWORD PTR [eax+196]
	call	?GetY@C_Window@@QAEFXZ			; C_Window::GetY
	movsx	ecx, ax
	sub	esi, ecx
	mov	edx, DWORD PTR _this$[ebp]
	mov	ecx, DWORD PTR [edx+200]
	call	?GetY@C_Base@@QAEJXZ			; C_Base::GetY
	sub	esi, eax
	push	esi
	movzx	esi, WORD PTR _MouseX$[ebp]
	mov	eax, DWORD PTR _this$[ebp]
	mov	ecx, DWORD PTR [eax+196]
	call	?GetX@C_Window@@QAEFXZ			; C_Window::GetX
	movsx	ecx, ax
	sub	esi, ecx
	mov	edx, DWORD PTR _this$[ebp]
	mov	ecx, DWORD PTR [edx+200]
	call	?GetX@C_Base@@QAEJXZ			; C_Base::GetX
	sub	esi, eax
	push	esi
	mov	eax, DWORD PTR _this$[ebp]
	mov	ecx, DWORD PTR [eax+200]
	mov	edx, DWORD PTR _this$[ebp]
	mov	eax, DWORD PTR [ecx]
	mov	ecx, DWORD PTR [edx+200]
	mov	edx, DWORD PTR [eax+52]
	call	edx

; 2101 : 					}
; 2102 : 					else {

	jmp	$LN137@EventHandl
$LN138@EventHandl:

; 2103 : 						Grab_.Control_->SetRelXY(
; 2104 : 							MouseX-Grab_.Window_->GetX() - 
; 2105 : 							Grab_.Window_->ClientArea_[Grab_.Control_->GetClient()].left -
; 2106 : 							Grab_.Control_->GetX(),
; 2107 : 							MouseY-Grab_.Window_->GetY() -
; 2108 : 							Grab_.Window_->ClientArea_[Grab_.Control_->GetClient()].top -
; 2109 : 							Grab_.Control_->GetY()
; 2110 : 						);

	movzx	esi, WORD PTR _MouseY$[ebp]
	mov	eax, DWORD PTR _this$[ebp]
	mov	ecx, DWORD PTR [eax+196]
	call	?GetY@C_Window@@QAEFXZ			; C_Window::GetY
	movsx	ecx, ax
	sub	esi, ecx
	mov	edx, DWORD PTR _this$[ebp]
	mov	edi, DWORD PTR [edx+196]
	mov	eax, DWORD PTR _this$[ebp]
	mov	ecx, DWORD PTR [eax+200]
	call	?GetClient@C_Base@@QAEFXZ		; C_Base::GetClient
	movsx	ecx, ax
	shl	ecx, 4
	sub	esi, DWORD PTR [edi+ecx+172]
	mov	edx, DWORD PTR _this$[ebp]
	mov	ecx, DWORD PTR [edx+200]
	call	?GetY@C_Base@@QAEJXZ			; C_Base::GetY
	sub	esi, eax
	push	esi
	movzx	esi, WORD PTR _MouseX$[ebp]
	mov	eax, DWORD PTR _this$[ebp]
	mov	ecx, DWORD PTR [eax+196]
	call	?GetX@C_Window@@QAEFXZ			; C_Window::GetX
	movsx	ecx, ax
	sub	esi, ecx
	mov	edx, DWORD PTR _this$[ebp]
	mov	edi, DWORD PTR [edx+196]
	mov	eax, DWORD PTR _this$[ebp]
	mov	ecx, DWORD PTR [eax+200]
	call	?GetClient@C_Base@@QAEFXZ		; C_Base::GetClient
	movsx	ecx, ax
	shl	ecx, 4
	sub	esi, DWORD PTR [edi+ecx+168]
	mov	edx, DWORD PTR _this$[ebp]
	mov	ecx, DWORD PTR [edx+200]
	call	?GetX@C_Base@@QAEJXZ			; C_Base::GetX
	sub	esi, eax
	push	esi
	mov	eax, DWORD PTR _this$[ebp]
	mov	ecx, DWORD PTR [eax+200]
	mov	edx, DWORD PTR _this$[ebp]
	mov	eax, DWORD PTR [ecx]
	mov	ecx, DWORD PTR [edx+200]
	mov	edx, DWORD PTR [eax+52]
	call	edx
$LN137@EventHandl:

; 2111 : 					}
; 2112 : 
; 2113 : 					Grab_.Control_->Process(Grab_.ID_, (short)MessageType);	//!

	movzx	eax, WORD PTR _MessageType$[ebp]
	push	eax
	mov	ecx, DWORD PTR _this$[ebp]
	mov	edx, DWORD PTR [ecx+172]
	push	edx
	mov	eax, DWORD PTR _this$[ebp]
	mov	ecx, DWORD PTR [eax+200]
	mov	edx, DWORD PTR _this$[ebp]
	mov	eax, DWORD PTR [ecx]
	mov	ecx, DWORD PTR [edx+200]
	mov	edx, DWORD PTR [eax+200]
	call	edx

; 2114 : 
; 2115 : 					if(DblClk && Grab_.Control_){

	cmp	DWORD PTR _DblClk$[ebp], 0
	je	SHORT $LN139@EventHandl
	mov	eax, DWORD PTR _this$[ebp]
	cmp	DWORD PTR [eax+200], 0
	je	SHORT $LN139@EventHandl

; 2116 : 						Grab_.Control_->Process(Grab_.ID_,(short)DblClk);	//!

	movzx	ecx, WORD PTR _DblClk$[ebp]
	push	ecx
	mov	edx, DWORD PTR _this$[ebp]
	mov	eax, DWORD PTR [edx+172]
	push	eax
	mov	ecx, DWORD PTR _this$[ebp]
	mov	edx, DWORD PTR [ecx+200]
	mov	eax, DWORD PTR _this$[ebp]
	mov	edx, DWORD PTR [edx]
	mov	ecx, DWORD PTR [eax+200]
	mov	eax, DWORD PTR [edx+200]
	call	eax
$LN139@EventHandl:

; 2117 : 					}
; 2118 : 				}
; 2119 : 
; 2120 : 				if(this != gMainHandler){

	mov	ecx, DWORD PTR _this$[ebp]
	cmp	ecx, DWORD PTR ?gMainHandler@@3PAVC_Handler@@A ; gMainHandler
	je	SHORT $LN135@EventHandl

; 2121 : 					ret=TRUE;

	mov	DWORD PTR _ret$[ebp], 1
$LN135@EventHandl:

; 2122 : 				}
; 2123 : 
; 2124 : 				Grab_.Control_=NULL;

	mov	edx, DWORD PTR _this$[ebp]
	mov	DWORD PTR [edx+200], 0

; 2125 : 				Grab_.Window_=NULL;				

	mov	eax, DWORD PTR _this$[ebp]
	mov	DWORD PTR [eax+196], 0

; 2126 : 			}
; 2127 : 			else {

	jmp	$LN134@EventHandl
$LN144@EventHandl:

; 2128 : 				overme->DeactivateControl();						 

	mov	ecx, DWORD PTR _overme$[ebp]
	call	?DeactivateControl@C_Window@@QAEXXZ	; C_Window::DeactivateControl

; 2129 : 				if(MouseCallback_){

	mov	ecx, DWORD PTR _this$[ebp]
	cmp	DWORD PTR [ecx+104], 0
	je	SHORT $LN133@EventHandl

; 2130 : 					ret=(*MouseCallback_)(NULL,MouseX,MouseY,overme, (short)MessageType);	//!

	movzx	edx, WORD PTR _MessageType$[ebp]
	push	edx
	mov	eax, DWORD PTR _overme$[ebp]
	push	eax
	movzx	ecx, WORD PTR _MouseY$[ebp]
	push	ecx
	movzx	edx, WORD PTR _MouseX$[ebp]
	push	edx
	push	0
	mov	eax, DWORD PTR _this$[ebp]
	mov	ecx, DWORD PTR [eax+104]
	call	ecx
	add	esp, 20					; 00000014H
	mov	DWORD PTR _ret$[ebp], eax
$LN133@EventHandl:

; 2131 : 				}
; 2132 : 				if(ret){

	cmp	DWORD PTR _ret$[ebp], 0
	je	SHORT $LN132@EventHandl

; 2133 : 					WindowToFront(overme);

	mov	edx, DWORD PTR _overme$[ebp]
	push	edx
	mov	ecx, DWORD PTR _this$[ebp]
	call	?WindowToFront@C_Handler@@QAEXPAVC_Window@@@Z ; C_Handler::WindowToFront
$LN132@EventHandl:

; 2134 : 				}
; 2135 : 
; 2136 : 				if(MouseX < overme->GetX() || MouseY < overme->GetY() || MouseX > (overme->GetX()+overme->GetW()) || MouseY > (overme->GetY()+overme->GetH()))

	movzx	esi, WORD PTR _MouseX$[ebp]
	mov	ecx, DWORD PTR _overme$[ebp]
	call	?GetX@C_Window@@QAEFXZ			; C_Window::GetX
	cwde
	cmp	esi, eax
	jl	SHORT $LN130@EventHandl
	movzx	esi, WORD PTR _MouseY$[ebp]
	mov	ecx, DWORD PTR _overme$[ebp]
	call	?GetY@C_Window@@QAEFXZ			; C_Window::GetY
	movsx	ecx, ax
	cmp	esi, ecx
	jl	SHORT $LN130@EventHandl
	movzx	esi, WORD PTR _MouseX$[ebp]
	mov	ecx, DWORD PTR _overme$[ebp]
	call	?GetX@C_Window@@QAEFXZ			; C_Window::GetX
	movsx	edi, ax
	mov	ecx, DWORD PTR _overme$[ebp]
	call	?GetW@C_Window@@QAEFXZ			; C_Window::GetW
	movsx	edx, ax
	add	edi, edx
	cmp	esi, edi
	jg	SHORT $LN130@EventHandl
	movzx	esi, WORD PTR _MouseY$[ebp]
	mov	ecx, DWORD PTR _overme$[ebp]
	call	?GetY@C_Window@@QAEFXZ			; C_Window::GetY
	movsx	edi, ax
	mov	ecx, DWORD PTR _overme$[ebp]
	call	?GetH@C_Window@@QAEFXZ			; C_Window::GetH
	cwde
	add	edi, eax
	cmp	esi, edi
	jle	SHORT $LN131@EventHandl
$LN130@EventHandl:

; 2137 : 				{
; 2138 : 					if(overme->GetOwner()){

	mov	ecx, DWORD PTR _overme$[ebp]
	call	?GetOwner@C_Window@@QAEPAVC_Base@@XZ	; C_Window::GetOwner
	test	eax, eax
	je	SHORT $LN131@EventHandl

; 2139 : 						if(overme->GetOwner()->CloseWindow()){

	mov	ecx, DWORD PTR _overme$[ebp]
	call	?GetOwner@C_Window@@QAEPAVC_Base@@XZ	; C_Window::GetOwner
	mov	DWORD PTR tv473[ebp], eax
	mov	ecx, DWORD PTR tv473[ebp]
	mov	edx, DWORD PTR [ecx]
	mov	ecx, DWORD PTR tv473[ebp]
	mov	eax, DWORD PTR [edx+204]
	call	eax
	test	eax, eax
	je	SHORT $LN131@EventHandl

; 2140 : 							overme=NULL;

	mov	DWORD PTR _overme$[ebp], 0
$LN131@EventHandl:

; 2141 : 						}
; 2142 : 					}
; 2143 : 				}
; 2144 : 				Grab_.Window_=NULL;

	mov	ecx, DWORD PTR _this$[ebp]
	mov	DWORD PTR [ecx+196], 0
$LN134@EventHandl:

; 2145 : 			}
; 2146 : 			overme=GetWindow(MouseX,MouseY);

	movzx	edx, WORD PTR _MouseY$[ebp]
	push	edx
	movzx	eax, WORD PTR _MouseX$[ebp]
	push	eax
	mov	ecx, DWORD PTR _this$[ebp]
	call	?GetWindow@C_Handler@@QAEPAVC_Window@@FF@Z ; C_Handler::GetWindow
	mov	DWORD PTR _overme$[ebp], eax

; 2147 : 			if(overme){

	cmp	DWORD PTR _overme$[ebp], 0
	je	$LN127@EventHandl

; 2148 : 				OverControl_=overme->MouseOver(MouseX-overme->GetX(),MouseY-overme->GetY(),OverControl_);

	mov	ecx, DWORD PTR _this$[ebp]
	mov	edx, DWORD PTR [ecx+128]
	push	edx
	movzx	esi, WORD PTR _MouseY$[ebp]
	mov	ecx, DWORD PTR _overme$[ebp]
	call	?GetY@C_Window@@QAEFXZ			; C_Window::GetY
	cwde
	sub	esi, eax
	push	esi
	movzx	esi, WORD PTR _MouseX$[ebp]
	mov	ecx, DWORD PTR _overme$[ebp]
	call	?GetX@C_Window@@QAEFXZ			; C_Window::GetX
	movsx	ecx, ax
	sub	esi, ecx
	push	esi
	mov	ecx, DWORD PTR _overme$[ebp]
	call	?MouseOver@C_Window@@QAEPAVC_Base@@JJPAV2@@Z ; C_Window::MouseOver
	mov	edx, DWORD PTR _this$[ebp]
	mov	DWORD PTR [edx+128], eax

; 2149 : 				if(OverLast_.Control_ != OverControl_){

	mov	eax, DWORD PTR _this$[ebp]
	mov	ecx, DWORD PTR _this$[ebp]
	mov	edx, DWORD PTR [eax+132]
	cmp	edx, DWORD PTR [ecx+128]
	je	$LN127@EventHandl

; 2150 : 					HelpOff();

