; Listing generated by Microsoft (R) Optimizing Compiler Version 17.00.51106.1 

	TITLE	C:\Users\Zhitao Li\Documents\Visual Studio 2012\Projects\Freefalcon\ui95\cparser.cpp
	.686P
	.XMM
	include listing.inc
	.model	flat

INCLUDELIB LIBCMT
INCLUDELIB OLDNAMES

PUBLIC	?beg@?$_Iosb@H@std@@2W4_Seekdir@12@B		; std::_Iosb<int>::beg
PUBLIC	?pmField@?$CVarTypeInfo@PAK@ATL@@2QQtagVARIANT@@PAKQ3@ ; ATL::CVarTypeInfo<unsigned long *>::pmField
PUBLIC	?cur@?$_Iosb@H@std@@2W4_Seekdir@12@B		; std::_Iosb<int>::cur
PUBLIC	?end@?$_Iosb@H@std@@2W4_Seekdir@12@B		; std::_Iosb<int>::end
PUBLIC	?VT@?$CVarTypeInfo@_J@ATL@@2GB			; ATL::CVarTypeInfo<__int64>::VT
PUBLIC	?pmField@?$CVarTypeInfo@_J@ATL@@2QQtagVARIANT@@_JQ3@ ; ATL::CVarTypeInfo<__int64>::pmField
PUBLIC	___pobjMapEntryFirst
PUBLIC	___pobjMapEntryLast
PUBLIC	?VT@?$CVarTypeInfo@PA_J@ATL@@2GB		; ATL::CVarTypeInfo<__int64 *>::VT
PUBLIC	?pmField@?$CVarTypeInfo@PA_J@ATL@@2QQtagVARIANT@@PA_JQ3@ ; ATL::CVarTypeInfo<__int64 *>::pmField
PUBLIC	?value@?$_Sizeof@U_Nil@std@@U12@U12@U12@U12@U12@U12@U12@@std@@2IB ; std::_Sizeof<std::_Nil,std::_Nil,std::_Nil,std::_Nil,std::_Nil,std::_Nil,std::_Nil,std::_Nil>::value
PUBLIC	?_Stream_err@failure@ios_base@std@@0W4io_errc@43@B ; std::ios_base::failure::_Stream_err
PUBLIC	?VT@?$CVarTypeInfo@_K@ATL@@2GB			; ATL::CVarTypeInfo<unsigned __int64>::VT
PUBLIC	??_C@_0BF@HDDNNDFH@Component?5Categories?$AA@	; `string'
PUBLIC	?pmField@?$CVarTypeInfo@_K@ATL@@2QQtagVARIANT@@_KQ3@ ; ATL::CVarTypeInfo<unsigned __int64>::pmField
PUBLIC	??_C@_08PICKODJL@FileType?$AA@			; `string'
PUBLIC	??_C@_09JKPGEJCH@Interface?$AA@			; `string'
PUBLIC	??_C@_08PPIOJEA@Hardware?$AA@			; `string'
PUBLIC	?_pPerfRegFunc@ATL@@3P6AJPAUHINSTANCE__@@@ZA	; ATL::_pPerfRegFunc
PUBLIC	??_C@_04IHBFOLAC@Mime?$AA@			; `string'
PUBLIC	?_pPerfUnRegFunc@ATL@@3P6AJXZA			; ATL::_pPerfUnRegFunc
PUBLIC	??_C@_03DDIMFGBA@SAM?$AA@			; `string'
PUBLIC	?_AtlRegisterPerUser@ATL@@3_NA			; ATL::_AtlRegisterPerUser
PUBLIC	??_C@_08LOPHEHKG@SECURITY?$AA@			; `string'
PUBLIC	??_C@_06FDHFNJBJ@SYSTEM?$AA@			; `string'
PUBLIC	??_C@_08KEKAJNJI@Software?$AA@			; `string'
PUBLIC	??_C@_07KJLOKDKB@TypeLib?$AA@			; `string'
PUBLIC	?VT@?$CVarTypeInfo@PA_K@ATL@@2GB		; ATL::CVarTypeInfo<unsigned __int64 *>::VT
PUBLIC	?pmField@?$CVarTypeInfo@PA_K@ATL@@2QQtagVARIANT@@PA_KQ3@ ; ATL::CVarTypeInfo<unsigned __int64 *>::pmField
PUBLIC	__GUID_00000000_0000_0000_c000_000000000046
PUBLIC	?VT@?$CVarTypeInfo@M@ATL@@2GB			; ATL::CVarTypeInfo<float>::VT
PUBLIC	?pmField@?$CVarTypeInfo@M@ATL@@2QQtagVARIANT@@MQ3@ ; ATL::CVarTypeInfo<float>::pmField
PUBLIC	__GUID_a6bc3ac0_dbaa_11ce_9de3_00aa004bb851
PUBLIC	?VT@?$CVarTypeInfo@PAM@ATL@@2GB			; ATL::CVarTypeInfo<float *>::VT
PUBLIC	__GUID_00020400_0000_0000_c000_000000000046
PUBLIC	?pmField@?$CVarTypeInfo@PAM@ATL@@2QQtagVARIANT@@PAMQ3@ ; ATL::CVarTypeInfo<float *>::pmField
PUBLIC	?VT@?$CVarTypeInfo@N@ATL@@2GB			; ATL::CVarTypeInfo<double>::VT
PUBLIC	?pmField@?$CVarTypeInfo@N@ATL@@2QQtagVARIANT@@NQ3@ ; ATL::CVarTypeInfo<double>::pmField
PUBLIC	?VT@?$CVarTypeInfo@PAN@ATL@@2GB			; ATL::CVarTypeInfo<double *>::VT
PUBLIC	?pmField@?$CVarTypeInfo@PAN@ATL@@2QQtagVARIANT@@PANQ3@ ; ATL::CVarTypeInfo<double *>::pmField
PUBLIC	?VT@?$CVarTypeInfo@PAUtagVARIANT@@@ATL@@2GB	; ATL::CVarTypeInfo<tagVARIANT *>::VT
PUBLIC	?has_denorm@_Num_base@std@@2W4float_denorm_style@2@B ; std::_Num_base::has_denorm
PUBLIC	__GUID_0002e012_0000_0000_c000_000000000046
PUBLIC	?has_denorm_loss@_Num_base@std@@2_NB		; std::_Num_base::has_denorm_loss
PUBLIC	?VT@?$CVarTypeInfo@PA_W@ATL@@2GB		; ATL::CVarTypeInfo<wchar_t *>::VT
PUBLIC	?pmField@?$CVarTypeInfo@PA_W@ATL@@2QQtagVARIANT@@PA_WQ3@ ; ATL::CVarTypeInfo<wchar_t *>::pmField
PUBLIC	?has_infinity@_Num_base@std@@2_NB		; std::_Num_base::has_infinity
PUBLIC	?has_quiet_NaN@_Num_base@std@@2_NB		; std::_Num_base::has_quiet_NaN
PUBLIC	?has_signaling_NaN@_Num_base@std@@2_NB		; std::_Num_base::has_signaling_NaN
PUBLIC	?is_bounded@_Num_base@std@@2_NB			; std::_Num_base::is_bounded
PUBLIC	?VT@?$CVarTypeInfo@PAPA_W@ATL@@2GB		; ATL::CVarTypeInfo<wchar_t * *>::VT
PUBLIC	?is_exact@_Num_base@std@@2_NB			; std::_Num_base::is_exact
PUBLIC	?pmField@?$CVarTypeInfo@PAPA_W@ATL@@2QQtagVARIANT@@PAPA_WQ3@ ; ATL::CVarTypeInfo<wchar_t * *>::pmField
PUBLIC	?is_iec559@_Num_base@std@@2_NB			; std::_Num_base::is_iec559
PUBLIC	?is_integer@_Num_base@std@@2_NB			; std::_Num_base::is_integer
PUBLIC	?is_modulo@_Num_base@std@@2_NB			; std::_Num_base::is_modulo
PUBLIC	?VT@?$CVarTypeInfo@PAUIUnknown@@@ATL@@2GB	; ATL::CVarTypeInfo<IUnknown *>::VT
PUBLIC	?is_signed@_Num_base@std@@2_NB			; std::_Num_base::is_signed
PUBLIC	?pmField@?$CVarTypeInfo@PAUIUnknown@@@ATL@@2QQtagVARIANT@@PAUIUnknown@@Q3@ ; ATL::CVarTypeInfo<IUnknown *>::pmField
PUBLIC	?is_specialized@_Num_base@std@@2_NB		; std::_Num_base::is_specialized
PUBLIC	?tinyness_before@_Num_base@std@@2_NB		; std::_Num_base::tinyness_before
PUBLIC	?traps@_Num_base@std@@2_NB			; std::_Num_base::traps
PUBLIC	?round_style@_Num_base@std@@2W4float_round_style@2@B ; std::_Num_base::round_style
PUBLIC	?VT@?$CVarTypeInfo@PAPAUIUnknown@@@ATL@@2GB	; ATL::CVarTypeInfo<IUnknown * *>::VT
PUBLIC	?pmField@?$CVarTypeInfo@PAPAUIUnknown@@@ATL@@2QQtagVARIANT@@PAPAUIUnknown@@Q3@ ; ATL::CVarTypeInfo<IUnknown * *>::pmField
PUBLIC	?digits@_Num_base@std@@2HB			; std::_Num_base::digits
PUBLIC	?digits10@_Num_base@std@@2HB			; std::_Num_base::digits10
PUBLIC	?max_digits10@_Num_base@std@@2HB		; std::_Num_base::max_digits10
PUBLIC	__GUID_0000010c_0000_0000_c000_000000000046
PUBLIC	?max_exponent@_Num_base@std@@2HB		; std::_Num_base::max_exponent
PUBLIC	?VT@?$CVarTypeInfo@PAUIDispatch@@@ATL@@2GB	; ATL::CVarTypeInfo<IDispatch *>::VT
PUBLIC	?max_exponent10@_Num_base@std@@2HB		; std::_Num_base::max_exponent10
PUBLIC	?pmField@?$CVarTypeInfo@PAUIDispatch@@@ATL@@2QQtagVARIANT@@PAUIDispatch@@Q3@ ; ATL::CVarTypeInfo<IDispatch *>::pmField
PUBLIC	?min_exponent@_Num_base@std@@2HB		; std::_Num_base::min_exponent
PUBLIC	??_C@_05GIBEAPNE@CLSID?$AA@			; `string'
PUBLIC	?min_exponent10@_Num_base@std@@2HB		; std::_Num_base::min_exponent10
PUBLIC	?radix@_Num_base@std@@2HB			; std::_Num_base::radix
PUBLIC	_IID_IAxWinHostWindow
PUBLIC	?VT@?$CVarTypeInfo@PAPAUIDispatch@@@ATL@@2GB	; ATL::CVarTypeInfo<IDispatch * *>::VT
PUBLIC	?pmField@?$CVarTypeInfo@PAPAUIDispatch@@@ATL@@2QQtagVARIANT@@PAPAUIDispatch@@Q3@ ; ATL::CVarTypeInfo<IDispatch * *>::pmField
PUBLIC	?VT@?$CVarTypeInfo@TtagCY@@@ATL@@2GB		; ATL::CVarTypeInfo<tagCY>::VT
PUBLIC	?pmField@?$CVarTypeInfo@TtagCY@@@ATL@@2QQtagVARIANT@@TtagCY@@Q3@ ; ATL::CVarTypeInfo<tagCY>::pmField
PUBLIC	??_C@_05PDIKPLII@AppID?$AA@			; `string'
PUBLIC	?VT@?$CVarTypeInfo@PATtagCY@@@ATL@@2GB		; ATL::CVarTypeInfo<tagCY *>::VT
PUBLIC	?is_bounded@_Num_int_base@std@@2_NB		; std::_Num_int_base::is_bounded
PUBLIC	?pmField@?$CVarTypeInfo@PATtagCY@@@ATL@@2QQtagVARIANT@@PATtagCY@@Q3@ ; ATL::CVarTypeInfo<tagCY *>::pmField
PUBLIC	?is_exact@_Num_int_base@std@@2_NB		; std::_Num_int_base::is_exact
PUBLIC	?is_integer@_Num_int_base@std@@2_NB		; std::_Num_int_base::is_integer
PUBLIC	?is_modulo@_Num_int_base@std@@2_NB		; std::_Num_int_base::is_modulo
PUBLIC	?is_specialized@_Num_int_base@std@@2_NB		; std::_Num_int_base::is_specialized
PUBLIC	?radix@_Num_int_base@std@@2HB			; std::_Num_int_base::radix
PUBLIC	?has_denorm@_Num_float_base@std@@2W4float_denorm_style@2@B ; std::_Num_float_base::has_denorm
PUBLIC	?has_denorm_loss@_Num_float_base@std@@2_NB	; std::_Num_float_base::has_denorm_loss
PUBLIC	?has_infinity@_Num_float_base@std@@2_NB		; std::_Num_float_base::has_infinity
PUBLIC	?has_quiet_NaN@_Num_float_base@std@@2_NB	; std::_Num_float_base::has_quiet_NaN
PUBLIC	?has_signaling_NaN@_Num_float_base@std@@2_NB	; std::_Num_float_base::has_signaling_NaN
PUBLIC	?is_bounded@_Num_float_base@std@@2_NB		; std::_Num_float_base::is_bounded
PUBLIC	?is_exact@_Num_float_base@std@@2_NB		; std::_Num_float_base::is_exact
PUBLIC	?is_iec559@_Num_float_base@std@@2_NB		; std::_Num_float_base::is_iec559
PUBLIC	?is_integer@_Num_float_base@std@@2_NB		; std::_Num_float_base::is_integer
PUBLIC	?chDirSep@ATL@@3DB				; ATL::chDirSep
PUBLIC	?chRightBracket@ATL@@3DB			; ATL::chRightBracket
PUBLIC	?is_modulo@_Num_float_base@std@@2_NB		; std::_Num_float_base::is_modulo
PUBLIC	?chLeftBracket@ATL@@3DB				; ATL::chLeftBracket
PUBLIC	?chQuote@ATL@@3DB				; ATL::chQuote
PUBLIC	?chEquals@ATL@@3DB				; ATL::chEquals
PUBLIC	?is_signed@_Num_float_base@std@@2_NB		; std::_Num_float_base::is_signed
PUBLIC	?szStringVal@ATL@@3QBDB				; ATL::szStringVal
PUBLIC	??_C@_01CPLAODJH@S?$AA@				; `string'
PUBLIC	?multiszStringVal@ATL@@3QBDB			; ATL::multiszStringVal
PUBLIC	_IID_IAxWinHostWindowLic
PUBLIC	?is_specialized@_Num_float_base@std@@2_NB	; std::_Num_float_base::is_specialized
PUBLIC	??_C@_01PLPBNMEI@M?$AA@				; `string'
PUBLIC	?szDwordVal@ATL@@3QBDB				; ATL::szDwordVal
PUBLIC	??_C@_01CKDDGHAB@D?$AA@				; `string'
PUBLIC	?tinyness_before@_Num_float_base@std@@2_NB	; std::_Num_float_base::tinyness_before
PUBLIC	?szBinaryVal@ATL@@3QBDB				; ATL::szBinaryVal
PUBLIC	??_C@_01HMGJMAIH@B?$AA@				; `string'
PUBLIC	?szValToken@ATL@@3QBDB				; ATL::szValToken
PUBLIC	?traps@_Num_float_base@std@@2_NB		; std::_Num_float_base::traps
PUBLIC	??_C@_03LAIAPFCB@Val?$AA@			; `string'
PUBLIC	?szForceRemove@ATL@@3QBDB			; ATL::szForceRemove
PUBLIC	??_C@_0M@DBGDLGLL@ForceRemove?$AA@		; `string'
PUBLIC	?round_style@_Num_float_base@std@@2W4float_round_style@2@B ; std::_Num_float_base::round_style
PUBLIC	?szNoRemove@ATL@@3QBDB				; ATL::szNoRemove
PUBLIC	??_C@_08KAAPDIAN@NoRemove?$AA@			; `string'
PUBLIC	?szDelete@ATL@@3QBDB				; ATL::szDelete
PUBLIC	?radix@_Num_float_base@std@@2HB			; std::_Num_float_base::radix
PUBLIC	??_C@_06JBKGCNBB@Delete?$AA@			; `string'
PUBLIC	?ATL_CREATE_OBJECT@CComApartment@ATL@@2IA	; ATL::CComApartment::ATL_CREATE_OBJECT
PUBLIC	?is_signed@?$numeric_limits@D@std@@2_NB		; std::numeric_limits<char>::is_signed
PUBLIC	?digits@?$numeric_limits@D@std@@2HB		; std::numeric_limits<char>::digits
PUBLIC	?digits10@?$numeric_limits@D@std@@2HB		; std::numeric_limits<char>::digits10
PUBLIC	_IID_IAxWinAmbientDispatch
PUBLIC	?collate@?$_Locbase@H@std@@2HB			; std::_Locbase<int>::collate
PUBLIC	?ctype@?$_Locbase@H@std@@2HB			; std::_Locbase<int>::ctype
PUBLIC	?monetary@?$_Locbase@H@std@@2HB			; std::_Locbase<int>::monetary
PUBLIC	?numeric@?$_Locbase@H@std@@2HB			; std::_Locbase<int>::numeric
PUBLIC	?time@?$_Locbase@H@std@@2HB			; std::_Locbase<int>::time
PUBLIC	?messages@?$_Locbase@H@std@@2HB			; std::_Locbase<int>::messages
PUBLIC	?all@?$_Locbase@H@std@@2HB			; std::_Locbase<int>::all
PUBLIC	?none@?$_Locbase@H@std@@2HB			; std::_Locbase<int>::none
PUBLIC	?is_signed@?$numeric_limits@_W@std@@2_NB	; std::numeric_limits<wchar_t>::is_signed
PUBLIC	?digits@?$numeric_limits@_W@std@@2HB		; std::numeric_limits<wchar_t>::digits
PUBLIC	?digits10@?$numeric_limits@_W@std@@2HB		; std::numeric_limits<wchar_t>::digits10
PUBLIC	?_pAtlAutoThreadModule@ATL@@3PAUIAtlAutoThreadModule@1@A ; ATL::_pAtlAutoThreadModule
PUBLIC	?is_modulo@?$numeric_limits@_N@std@@2_NB	; std::numeric_limits<bool>::is_modulo
PUBLIC	?is_signed@?$numeric_limits@_N@std@@2_NB	; std::numeric_limits<bool>::is_signed
PUBLIC	?digits@?$numeric_limits@_N@std@@2HB		; std::numeric_limits<bool>::digits
PUBLIC	?digits10@?$numeric_limits@_N@std@@2HB		; std::numeric_limits<bool>::digits10
PUBLIC	?value@?$_Sizeof@HU_Nil@std@@U12@U12@U12@U12@U12@U12@@std@@2IB ; std::_Sizeof<int,std::_Nil,std::_Nil,std::_Nil,std::_Nil,std::_Nil,std::_Nil,std::_Nil>::value
PUBLIC	?is_signed@?$numeric_limits@C@std@@2_NB		; std::numeric_limits<signed char>::is_signed
PUBLIC	?m_bInitFailed@CAtlBaseModule@ATL@@2_NA		; ATL::CAtlBaseModule::m_bInitFailed
PUBLIC	?digits@?$numeric_limits@C@std@@2HB		; std::numeric_limits<signed char>::digits
PUBLIC	?digits10@?$numeric_limits@C@std@@2HB		; std::numeric_limits<signed char>::digits10
PUBLIC	?table_size@?$ctype@D@std@@2IB			; std::ctype<char>::table_size
PUBLIC	?is_signed@?$numeric_limits@E@std@@2_NB		; std::numeric_limits<unsigned char>::is_signed
PUBLIC	?digits@?$numeric_limits@E@std@@2HB		; std::numeric_limits<unsigned char>::digits
PUBLIC	?digits10@?$numeric_limits@E@std@@2HB		; std::numeric_limits<unsigned char>::digits10
PUBLIC	?is_signed@?$numeric_limits@F@std@@2_NB		; std::numeric_limits<short>::is_signed
PUBLIC	?digits@?$numeric_limits@F@std@@2HB		; std::numeric_limits<short>::digits
PUBLIC	__GUID_00000000_0000_0000_0000_000000000000
PUBLIC	?digits10@?$numeric_limits@F@std@@2HB		; std::numeric_limits<short>::digits10
PUBLIC	?MAX_VALUE@CRegParser@ATL@@1HB			; ATL::CRegParser::MAX_VALUE
PUBLIC	?is_signed@?$numeric_limits@G@std@@2_NB		; std::numeric_limits<unsigned short>::is_signed
PUBLIC	?digits@?$numeric_limits@G@std@@2HB		; std::numeric_limits<unsigned short>::digits
PUBLIC	?digits10@?$numeric_limits@G@std@@2HB		; std::numeric_limits<unsigned short>::digits10
PUBLIC	?rgszNeverDelete@CRegParser@ATL@@1QBQBDB	; ATL::CRegParser::rgszNeverDelete
PUBLIC	?cbNeverDelete@CRegParser@ATL@@1HB		; ATL::CRegParser::cbNeverDelete
PUBLIC	?MAX_TYPE@CRegParser@ATL@@1HB			; ATL::CRegParser::MAX_TYPE
PUBLIC	?SIMDIRTYDATA_INTERVAL@FalconEntity@@2KB	; FalconEntity::SIMDIRTYDATA_INTERVAL
PUBLIC	?CMPDIRTYDATA_INTERVAL@FalconEntity@@2KB	; FalconEntity::CMPDIRTYDATA_INTERVAL
PUBLIC	?is_signed@?$numeric_limits@H@std@@2_NB		; std::numeric_limits<int>::is_signed
PUBLIC	?digits@?$numeric_limits@H@std@@2HB		; std::numeric_limits<int>::digits
PUBLIC	__GUID_fc4801a3_2ba9_11cf_a229_00aa003d7352
PUBLIC	?digits10@?$numeric_limits@H@std@@2HB		; std::numeric_limits<int>::digits10
PUBLIC	?is_signed@?$numeric_limits@I@std@@2_NB		; std::numeric_limits<unsigned int>::is_signed
PUBLIC	_IID_IAxWinAmbientDispatchEx
PUBLIC	?digits@?$numeric_limits@I@std@@2HB		; std::numeric_limits<unsigned int>::digits
PUBLIC	?digits10@?$numeric_limits@I@std@@2HB		; std::numeric_limits<unsigned int>::digits10
PUBLIC	_IID_IInternalConnection
PUBLIC	?is_signed@?$numeric_limits@J@std@@2_NB		; std::numeric_limits<long>::is_signed
PUBLIC	?digits@?$numeric_limits@J@std@@2HB		; std::numeric_limits<long>::digits
PUBLIC	?digits10@?$numeric_limits@J@std@@2HB		; std::numeric_limits<long>::digits10
PUBLIC	?TokenErrorList@@3PAVC_Hash@@A			; TokenErrorList
PUBLIC	?errorfp@@3PAU_iobuf@@A				; errorfp
PUBLIC	__GUID_1cf2b120_547d_101b_8e65_08002b2bd119
PUBLIC	?is_signed@?$numeric_limits@K@std@@2_NB		; std::numeric_limits<unsigned long>::is_signed
PUBLIC	?digits@?$numeric_limits@K@std@@2HB		; std::numeric_limits<unsigned long>::digits
PUBLIC	?digits10@?$numeric_limits@K@std@@2HB		; std::numeric_limits<unsigned long>::digits10
PUBLIC	?value@?$integral_constant@I$0A@@std@@2IB	; std::integral_constant<unsigned int,0>::value
PUBLIC	?_pAtlModule@ATL@@3PAVCAtlModule@1@A		; ATL::_pAtlModule
PUBLIC	?m_libid@CAtlModule@ATL@@2U_GUID@@A		; ATL::CAtlModule::m_libid
PUBLIC	??_C@_09NLBFAKCN@?$FLNOTHING?$FN?$AA@		; `string'
PUBLIC	??_C@_08FKDBDIFN@?$FLWINDOW?$FN?$AA@		; `string'
PUBLIC	??_C@_08BPEONPCI@?$FLBUTTON?$FN?$AA@		; `string'
PUBLIC	??_C@_06COFEICCM@?$FLTEXT?$FN?$AA@		; `string'
PUBLIC	??_C@_09KOCBAFHB@?$FLEDITBOX?$FN?$AA@		; `string'
PUBLIC	??_C@_09FKCJGFHL@?$FLLISTBOX?$FN?$AA@		; `string'
PUBLIC	??_C@_0M@GLIMEBAJ@?$FLSCROLLBAR?$FN?$AA@	; `string'
PUBLIC	??_C@_0L@MEJDDIPA@?$FLTREELIST?$FN?$AA@		; `string'
PUBLIC	??_C@_0L@BDEHKHNA@?$FLMAKEFONT?$FN?$AA@		; `string'
PUBLIC	??_C@_07OKNAJLFB@?$FLIMAGE?$FN?$AA@		; `string'
PUBLIC	??_C@_08CEKHCFCI@?$FLBITMAP?$FN?$AA@		; `string'
PUBLIC	?is_signed@?$numeric_limits@_J@std@@2_NB	; std::numeric_limits<__int64>::is_signed
PUBLIC	??_C@_06GMLHCONP@?$FLLINE?$FN?$AA@		; `string'
PUBLIC	??_C@_05KEIKLJDL@?$FLBOX?$FN?$AA@		; `string'
PUBLIC	??_C@_08HILHEBCO@?$FLMARQUE?$FN?$AA@		; `string'
PUBLIC	??_C@_0M@IDJJBGC@?$FLANIMATION?$FN?$AA@		; `string'
PUBLIC	?digits@?$numeric_limits@_J@std@@2HB		; std::numeric_limits<__int64>::digits
PUBLIC	??_C@_09EKLEIEOO@?$FLLOCATOR?$FN?$AA@		; `string'
PUBLIC	??_C@_07INBMONCF@?$FLSOUND?$FN?$AA@		; `string'
PUBLIC	??_C@_08PIDAALDH@?$FLSLIDER?$FN?$AA@		; `string'
PUBLIC	??_C@_0M@KPPBDNDP@?$FLPOPUPMENU?$FN?$AA@	; `string'
PUBLIC	?digits10@?$numeric_limits@_J@std@@2HB		; std::numeric_limits<__int64>::digits10
PUBLIC	??_C@_08EANNEFAN@?$FLPANNER?$FN?$AA@		; `string'
PUBLIC	??_C@_06PBMNIIBA@?$FLANIM?$FN?$AA@		; `string'
PUBLIC	??_C@_0N@HPEAJKOC@?$FLSTRINGLIST?$FN?$AA@	; `string'
PUBLIC	??_C@_07GBEICCOI@?$FLMOVIE?$FN?$AA@		; `string'
PUBLIC	??_C@_06GIPEPOLN@?$FLFILL?$FN?$AA@		; `string'
PUBLIC	??_C@_07LPDABDIG@?$FLCLOCK?$FN?$AA@		; `string'
PUBLIC	??_C@_06CJDLGGKC@?$FLTILE?$FN?$AA@		; `string'
PUBLIC	??_C@_0O@MOIEHDHD@?$FLVERSIONTEXT?$FN?$AA@	; `string'
PUBLIC	?ParseSave@@3PADA				; ParseSave
PUBLIC	?ParseCRLF@@3PADA				; ParseCRLF
PUBLIC	?is_signed@?$numeric_limits@_K@std@@2_NB	; std::numeric_limits<unsigned __int64>::is_signed
PUBLIC	?digits@?$numeric_limits@_K@std@@2HB		; std::numeric_limits<unsigned __int64>::digits
PUBLIC	?digits10@?$numeric_limits@_K@std@@2HB		; std::numeric_limits<unsigned __int64>::digits10
PUBLIC	__GUID_00000146_0000_0000_c000_000000000046
PUBLIC	?digits@?$numeric_limits@M@std@@2HB		; std::numeric_limits<float>::digits
PUBLIC	?digits10@?$numeric_limits@M@std@@2HB		; std::numeric_limits<float>::digits10
PUBLIC	?max_digits10@?$numeric_limits@M@std@@2HB	; std::numeric_limits<float>::max_digits10
PUBLIC	?max_exponent@?$numeric_limits@M@std@@2HB	; std::numeric_limits<float>::max_exponent
PUBLIC	?max_exponent10@?$numeric_limits@M@std@@2HB	; std::numeric_limits<float>::max_exponent10
PUBLIC	?min_exponent@?$numeric_limits@M@std@@2HB	; std::numeric_limits<float>::min_exponent
PUBLIC	?min_exponent10@?$numeric_limits@M@std@@2HB	; std::numeric_limits<float>::min_exponent10
PUBLIC	?VT@?$CVarTypeInfo@D@ATL@@2GB			; ATL::CVarTypeInfo<char>::VT
PUBLIC	?pmField@?$CVarTypeInfo@D@ATL@@2QQtagVARIANT@@DQ3@ ; ATL::CVarTypeInfo<char>::pmField
PUBLIC	?VT@?$CVarTypeInfo@E@ATL@@2GB			; ATL::CVarTypeInfo<unsigned char>::VT
PUBLIC	?pmField@?$CVarTypeInfo@E@ATL@@2QQtagVARIANT@@EQ3@ ; ATL::CVarTypeInfo<unsigned char>::pmField
PUBLIC	_CLSID_Registrar
PUBLIC	?digits@?$numeric_limits@N@std@@2HB		; std::numeric_limits<double>::digits
PUBLIC	?_Min@?$AtlLimits@H@ATL@@2HB			; ATL::AtlLimits<int>::_Min
PUBLIC	?VT@?$CVarTypeInfo@PAD@ATL@@2GB			; ATL::CVarTypeInfo<char *>::VT
PUBLIC	?_Max@?$AtlLimits@H@ATL@@2HB			; ATL::AtlLimits<int>::_Max
PUBLIC	?digits10@?$numeric_limits@N@std@@2HB		; std::numeric_limits<double>::digits10
PUBLIC	?pmField@?$CVarTypeInfo@PAD@ATL@@2QQtagVARIANT@@PADQ3@ ; ATL::CVarTypeInfo<char *>::pmField
PUBLIC	?max_digits10@?$numeric_limits@N@std@@2HB	; std::numeric_limits<double>::max_digits10
PUBLIC	?max_exponent@?$numeric_limits@N@std@@2HB	; std::numeric_limits<double>::max_exponent
PUBLIC	?_Min@?$AtlLimits@I@ATL@@2IB			; ATL::AtlLimits<unsigned int>::_Min
PUBLIC	?max_exponent10@?$numeric_limits@N@std@@2HB	; std::numeric_limits<double>::max_exponent10
PUBLIC	?_Max@?$AtlLimits@I@ATL@@2IB			; ATL::AtlLimits<unsigned int>::_Max
PUBLIC	?VT@?$CVarTypeInfo@PAE@ATL@@2GB			; ATL::CVarTypeInfo<unsigned char *>::VT
PUBLIC	__GUID_00000109_0000_0000_c000_000000000046
PUBLIC	?pmField@?$CVarTypeInfo@PAE@ATL@@2QQtagVARIANT@@PAEQ3@ ; ATL::CVarTypeInfo<unsigned char *>::pmField
PUBLIC	?min_exponent@?$numeric_limits@N@std@@2HB	; std::numeric_limits<double>::min_exponent
PUBLIC	__GUID_7fd52380_4e07_101b_ae2d_08002b2ec713
PUBLIC	?min_exponent10@?$numeric_limits@N@std@@2HB	; std::numeric_limits<double>::min_exponent10
PUBLIC	?_Min@?$AtlLimits@J@ATL@@2JB			; ATL::AtlLimits<long>::_Min
PUBLIC	__GUID_b196b284_bab4_101a_b69c_00aa00341d07
PUBLIC	?_Max@?$AtlLimits@J@ATL@@2JB			; ATL::AtlLimits<long>::_Max
PUBLIC	?VT@?$CVarTypeInfo@F@ATL@@2GB			; ATL::CVarTypeInfo<short>::VT
PUBLIC	_IID_IRegistrar
PUBLIC	?pmField@?$CVarTypeInfo@F@ATL@@2QQtagVARIANT@@FQ3@ ; ATL::CVarTypeInfo<short>::pmField
PUBLIC	?_Min@?$AtlLimits@K@ATL@@2KB			; ATL::AtlLimits<unsigned long>::_Min
PUBLIC	?_Max@?$AtlLimits@K@ATL@@2KB			; ATL::AtlLimits<unsigned long>::_Max
PUBLIC	?VT@?$CVarTypeInfo@PAF@ATL@@2GB			; ATL::CVarTypeInfo<short *>::VT
PUBLIC	?pmField@?$CVarTypeInfo@PAF@ATL@@2QQtagVARIANT@@PAFQ3@ ; ATL::CVarTypeInfo<short *>::pmField
PUBLIC	?_Min@?$AtlLimits@_J@ATL@@2_JB			; ATL::AtlLimits<__int64>::_Min
PUBLIC	__GUID_00000001_0000_0000_c000_000000000046
PUBLIC	?_Max@?$AtlLimits@_J@ATL@@2_JB			; ATL::AtlLimits<__int64>::_Max
PUBLIC	?digits@?$numeric_limits@O@std@@2HB		; std::numeric_limits<long double>::digits
PUBLIC	?VT@?$CVarTypeInfo@G@ATL@@2GB			; ATL::CVarTypeInfo<unsigned short>::VT
PUBLIC	?digits10@?$numeric_limits@O@std@@2HB		; std::numeric_limits<long double>::digits10
PUBLIC	?pmField@?$CVarTypeInfo@G@ATL@@2QQtagVARIANT@@GQ3@ ; ATL::CVarTypeInfo<unsigned short>::pmField
PUBLIC	?max_digits10@?$numeric_limits@O@std@@2HB	; std::numeric_limits<long double>::max_digits10
PUBLIC	__GUID_00020401_0000_0000_c000_000000000046
PUBLIC	?_Min@?$AtlLimits@_K@ATL@@2_KB			; ATL::AtlLimits<unsigned __int64>::_Min
PUBLIC	_LIBID_ATLLib
PUBLIC	?max_exponent@?$numeric_limits@O@std@@2HB	; std::numeric_limits<long double>::max_exponent
PUBLIC	?_Max@?$AtlLimits@_K@ATL@@2_KB			; ATL::AtlLimits<unsigned __int64>::_Max
PUBLIC	__GUID_00020412_0000_0000_c000_000000000046
PUBLIC	?max_exponent10@?$numeric_limits@O@std@@2HB	; std::numeric_limits<long double>::max_exponent10
PUBLIC	?VT@?$CVarTypeInfo@PAG@ATL@@2GB			; ATL::CVarTypeInfo<unsigned short *>::VT
PUBLIC	?skipws@?$_Iosb@H@std@@2W4_Fmtflags@12@B	; std::_Iosb<int>::skipws
PUBLIC	?pmField@?$CVarTypeInfo@PAG@ATL@@2QQtagVARIANT@@PAGQ3@ ; ATL::CVarTypeInfo<unsigned short *>::pmField
PUBLIC	?unitbuf@?$_Iosb@H@std@@2W4_Fmtflags@12@B	; std::_Iosb<int>::unitbuf
PUBLIC	?min_exponent@?$numeric_limits@O@std@@2HB	; std::numeric_limits<long double>::min_exponent
PUBLIC	?uppercase@?$_Iosb@H@std@@2W4_Fmtflags@12@B	; std::_Iosb<int>::uppercase
PUBLIC	?min_exponent10@?$numeric_limits@O@std@@2HB	; std::numeric_limits<long double>::min_exponent10
PUBLIC	?showbase@?$_Iosb@H@std@@2W4_Fmtflags@12@B	; std::_Iosb<int>::showbase
PUBLIC	?showpoint@?$_Iosb@H@std@@2W4_Fmtflags@12@B	; std::_Iosb<int>::showpoint
PUBLIC	?VT@?$CVarTypeInfo@H@ATL@@2GB			; ATL::CVarTypeInfo<int>::VT
PUBLIC	?pmField@?$CVarTypeInfo@H@ATL@@2QQtagVARIANT@@HQ3@ ; ATL::CVarTypeInfo<int>::pmField
PUBLIC	?showpos@?$_Iosb@H@std@@2W4_Fmtflags@12@B	; std::_Iosb<int>::showpos
PUBLIC	?left@?$_Iosb@H@std@@2W4_Fmtflags@12@B		; std::_Iosb<int>::left
PUBLIC	?right@?$_Iosb@H@std@@2W4_Fmtflags@12@B		; std::_Iosb<int>::right
PUBLIC	?internal@?$_Iosb@H@std@@2W4_Fmtflags@12@B	; std::_Iosb<int>::internal
PUBLIC	?VT@?$CVarTypeInfo@PAH@ATL@@2GB			; ATL::CVarTypeInfo<int *>::VT
PUBLIC	?dec@?$_Iosb@H@std@@2W4_Fmtflags@12@B		; std::_Iosb<int>::dec
PUBLIC	?pmField@?$CVarTypeInfo@PAH@ATL@@2QQtagVARIANT@@PAHQ3@ ; ATL::CVarTypeInfo<int *>::pmField
PUBLIC	?oct@?$_Iosb@H@std@@2W4_Fmtflags@12@B		; std::_Iosb<int>::oct
PUBLIC	?hex@?$_Iosb@H@std@@2W4_Fmtflags@12@B		; std::_Iosb<int>::hex
PUBLIC	?scientific@?$_Iosb@H@std@@2W4_Fmtflags@12@B	; std::_Iosb<int>::scientific
PUBLIC	?VT@?$CVarTypeInfo@I@ATL@@2GB			; ATL::CVarTypeInfo<unsigned int>::VT
PUBLIC	?fixed@?$_Iosb@H@std@@2W4_Fmtflags@12@B		; std::_Iosb<int>::fixed
PUBLIC	?pmField@?$CVarTypeInfo@I@ATL@@2QQtagVARIANT@@IQ3@ ; ATL::CVarTypeInfo<unsigned int>::pmField
PUBLIC	?hexfloat@?$_Iosb@H@std@@2W4_Fmtflags@12@B	; std::_Iosb<int>::hexfloat
PUBLIC	?boolalpha@?$_Iosb@H@std@@2W4_Fmtflags@12@B	; std::_Iosb<int>::boolalpha
PUBLIC	?_Stdio@?$_Iosb@H@std@@2W4_Fmtflags@12@B	; std::_Iosb<int>::_Stdio
PUBLIC	?value@?$integral_constant@_N$0A@@std@@2_NB	; std::integral_constant<bool,0>::value
PUBLIC	?adjustfield@?$_Iosb@H@std@@2W4_Fmtflags@12@B	; std::_Iosb<int>::adjustfield
PUBLIC	?VT@?$CVarTypeInfo@PAI@ATL@@2GB			; ATL::CVarTypeInfo<unsigned int *>::VT
PUBLIC	?pmField@?$CVarTypeInfo@PAI@ATL@@2QQtagVARIANT@@PAIQ3@ ; ATL::CVarTypeInfo<unsigned int *>::pmField
PUBLIC	?basefield@?$_Iosb@H@std@@2W4_Fmtflags@12@B	; std::_Iosb<int>::basefield
PUBLIC	?floatfield@?$_Iosb@H@std@@2W4_Fmtflags@12@B	; std::_Iosb<int>::floatfield
PUBLIC	?goodbit@?$_Iosb@H@std@@2W4_Iostate@12@B	; std::_Iosb<int>::goodbit
PUBLIC	?VT@?$CVarTypeInfo@J@ATL@@2GB			; ATL::CVarTypeInfo<long>::VT
PUBLIC	?eofbit@?$_Iosb@H@std@@2W4_Iostate@12@B		; std::_Iosb<int>::eofbit
PUBLIC	?value@?$integral_constant@_N$00@std@@2_NB	; std::integral_constant<bool,1>::value
PUBLIC	?pmField@?$CVarTypeInfo@J@ATL@@2QQtagVARIANT@@JQ3@ ; ATL::CVarTypeInfo<long>::pmField
PUBLIC	?failbit@?$_Iosb@H@std@@2W4_Iostate@12@B	; std::_Iosb<int>::failbit
PUBLIC	?_pModule@ATL@@3PAVCComModule@1@A		; ATL::_pModule
PUBLIC	?badbit@?$_Iosb@H@std@@2W4_Iostate@12@B		; std::_Iosb<int>::badbit
PUBLIC	?_Hardfail@?$_Iosb@H@std@@2W4_Iostate@12@B	; std::_Iosb<int>::_Hardfail
PUBLIC	?VT@?$CVarTypeInfo@PAJ@ATL@@2GB			; ATL::CVarTypeInfo<long *>::VT
PUBLIC	?in@?$_Iosb@H@std@@2W4_Openmode@12@B		; std::_Iosb<int>::in
PUBLIC	?pmField@?$CVarTypeInfo@PAJ@ATL@@2QQtagVARIANT@@PAJQ3@ ; ATL::CVarTypeInfo<long *>::pmField
PUBLIC	?out@?$_Iosb@H@std@@2W4_Openmode@12@B		; std::_Iosb<int>::out
PUBLIC	_IID_IDocHostUIHandlerDispatch
PUBLIC	?ate@?$_Iosb@H@std@@2W4_Openmode@12@B		; std::_Iosb<int>::ate
PUBLIC	?app@?$_Iosb@H@std@@2W4_Openmode@12@B		; std::_Iosb<int>::app
PUBLIC	?VT@?$CVarTypeInfo@K@ATL@@2GB			; ATL::CVarTypeInfo<unsigned long>::VT
PUBLIC	?trunc@?$_Iosb@H@std@@2W4_Openmode@12@B		; std::_Iosb<int>::trunc
PUBLIC	?pmField@?$CVarTypeInfo@K@ATL@@2QQtagVARIANT@@KQ3@ ; ATL::CVarTypeInfo<unsigned long>::pmField
PUBLIC	?_Nocreate@?$_Iosb@H@std@@2W4_Openmode@12@B	; std::_Iosb<int>::_Nocreate
PUBLIC	?_Noreplace@?$_Iosb@H@std@@2W4_Openmode@12@B	; std::_Iosb<int>::_Noreplace
PUBLIC	?binary@?$_Iosb@H@std@@2W4_Openmode@12@B	; std::_Iosb<int>::binary
PUBLIC	?VT@?$CVarTypeInfo@PAK@ATL@@2GB			; ATL::CVarTypeInfo<unsigned long *>::VT
;	COMDAT ?_pPerfRegFunc@ATL@@3P6AJPAUHINSTANCE__@@@ZA
_BSS	SEGMENT
?_pPerfRegFunc@ATL@@3P6AJPAUHINSTANCE__@@@ZA DD 01H DUP (?) ; ATL::_pPerfRegFunc
_BSS	ENDS
;	COMDAT ?_pPerfUnRegFunc@ATL@@3P6AJXZA
_BSS	SEGMENT
?_pPerfUnRegFunc@ATL@@3P6AJXZA DD 01H DUP (?)		; ATL::_pPerfUnRegFunc
_BSS	ENDS
;	COMDAT ?_AtlRegisterPerUser@ATL@@3_NA
_BSS	SEGMENT
?_AtlRegisterPerUser@ATL@@3_NA DB 01H DUP (?)		; ATL::_AtlRegisterPerUser
_BSS	ENDS
;	COMDAT ?ATL_CREATE_OBJECT@CComApartment@ATL@@2IA
_BSS	SEGMENT
?ATL_CREATE_OBJECT@CComApartment@ATL@@2IA DD 01H DUP (?) ; ATL::CComApartment::ATL_CREATE_OBJECT
_BSS	ENDS
;	COMDAT ?_pAtlAutoThreadModule@ATL@@3PAUIAtlAutoThreadModule@1@A
_BSS	SEGMENT
?_pAtlAutoThreadModule@ATL@@3PAUIAtlAutoThreadModule@1@A DD 01H DUP (?) ; ATL::_pAtlAutoThreadModule
_BSS	ENDS
;	COMDAT ?m_bInitFailed@CAtlBaseModule@ATL@@2_NA
_BSS	SEGMENT
?m_bInitFailed@CAtlBaseModule@ATL@@2_NA DB 01H DUP (?)	; ATL::CAtlBaseModule::m_bInitFailed
_BSS	ENDS
_BSS	SEGMENT
?TokenErrorList@@3PAVC_Hash@@A DD 01H DUP (?)		; TokenErrorList
?errorfp@@3PAU_iobuf@@A DD 01H DUP (?)			; errorfp
_BSS	ENDS
;	COMDAT ?_pAtlModule@ATL@@3PAVCAtlModule@1@A
_BSS	SEGMENT
?_pAtlModule@ATL@@3PAVCAtlModule@1@A DD 01H DUP (?)	; ATL::_pAtlModule
_BSS	ENDS
;	COMDAT ?m_libid@CAtlModule@ATL@@2U_GUID@@A
_BSS	SEGMENT
?m_libid@CAtlModule@ATL@@2U_GUID@@A DB 010H DUP (?)	; ATL::CAtlModule::m_libid
_BSS	ENDS
_BSS	SEGMENT
?ParseSave@@3PADA DB 050H DUP (?)			; ParseSave
_BSS	ENDS
;	COMDAT ?_pModule@ATL@@3PAVCComModule@1@A
_BSS	SEGMENT
?_pModule@ATL@@3PAVCComModule@1@A DD 01H DUP (?)	; ATL::_pModule
_BSS	ENDS
;	COMDAT ?VT@?$CVarTypeInfo@PAK@ATL@@2GB
CONST	SEGMENT
?VT@?$CVarTypeInfo@PAK@ATL@@2GB DW 04013H		; ATL::CVarTypeInfo<unsigned long *>::VT
CONST	ENDS
;	COMDAT ?binary@?$_Iosb@H@std@@2W4_Openmode@12@B
CONST	SEGMENT
?binary@?$_Iosb@H@std@@2W4_Openmode@12@B DD 020H	; std::_Iosb<int>::binary
CONST	ENDS
;	COMDAT ?_Noreplace@?$_Iosb@H@std@@2W4_Openmode@12@B
CONST	SEGMENT
?_Noreplace@?$_Iosb@H@std@@2W4_Openmode@12@B DD 080H	; std::_Iosb<int>::_Noreplace
CONST	ENDS
;	COMDAT ?_Nocreate@?$_Iosb@H@std@@2W4_Openmode@12@B
CONST	SEGMENT
?_Nocreate@?$_Iosb@H@std@@2W4_Openmode@12@B DD 040H	; std::_Iosb<int>::_Nocreate
CONST	ENDS
;	COMDAT ?pmField@?$CVarTypeInfo@K@ATL@@2QQtagVARIANT@@KQ3@
CONST	SEGMENT
?pmField@?$CVarTypeInfo@K@ATL@@2QQtagVARIANT@@KQ3@ DD 08H ; ATL::CVarTypeInfo<unsigned long>::pmField
CONST	ENDS
;	COMDAT ?trunc@?$_Iosb@H@std@@2W4_Openmode@12@B
CONST	SEGMENT
?trunc@?$_Iosb@H@std@@2W4_Openmode@12@B DD 010H		; std::_Iosb<int>::trunc
CONST	ENDS
;	COMDAT ?VT@?$CVarTypeInfo@K@ATL@@2GB
CONST	SEGMENT
?VT@?$CVarTypeInfo@K@ATL@@2GB DW 013H			; ATL::CVarTypeInfo<unsigned long>::VT
CONST	ENDS
;	COMDAT ?app@?$_Iosb@H@std@@2W4_Openmode@12@B
CONST	SEGMENT
?app@?$_Iosb@H@std@@2W4_Openmode@12@B DD 08H		; std::_Iosb<int>::app
CONST	ENDS
;	COMDAT ?ate@?$_Iosb@H@std@@2W4_Openmode@12@B
CONST	SEGMENT
?ate@?$_Iosb@H@std@@2W4_Openmode@12@B DD 04H		; std::_Iosb<int>::ate
CONST	ENDS
;	COMDAT _IID_IDocHostUIHandlerDispatch
CONST	SEGMENT
_IID_IDocHostUIHandlerDispatch DD 0425b5af0H
	DW	065f1H
	DW	011d1H
	DB	096H
	DB	011H
	DB	00H
	DB	00H
	DB	0f8H
	DB	01eH
	DB	0dH
	DB	0dH
CONST	ENDS
;	COMDAT ?out@?$_Iosb@H@std@@2W4_Openmode@12@B
CONST	SEGMENT
?out@?$_Iosb@H@std@@2W4_Openmode@12@B DD 02H		; std::_Iosb<int>::out
CONST	ENDS
;	COMDAT ?pmField@?$CVarTypeInfo@PAJ@ATL@@2QQtagVARIANT@@PAJQ3@
CONST	SEGMENT
?pmField@?$CVarTypeInfo@PAJ@ATL@@2QQtagVARIANT@@PAJQ3@ DD 08H ; ATL::CVarTypeInfo<long *>::pmField
CONST	ENDS
;	COMDAT ?in@?$_Iosb@H@std@@2W4_Openmode@12@B
CONST	SEGMENT
?in@?$_Iosb@H@std@@2W4_Openmode@12@B DD 01H		; std::_Iosb<int>::in
CONST	ENDS
;	COMDAT ?VT@?$CVarTypeInfo@PAJ@ATL@@2GB
CONST	SEGMENT
?VT@?$CVarTypeInfo@PAJ@ATL@@2GB DW 04003H		; ATL::CVarTypeInfo<long *>::VT
CONST	ENDS
;	COMDAT ?_Hardfail@?$_Iosb@H@std@@2W4_Iostate@12@B
CONST	SEGMENT
?_Hardfail@?$_Iosb@H@std@@2W4_Iostate@12@B DD 010H	; std::_Iosb<int>::_Hardfail
CONST	ENDS
;	COMDAT ?badbit@?$_Iosb@H@std@@2W4_Iostate@12@B
CONST	SEGMENT
?badbit@?$_Iosb@H@std@@2W4_Iostate@12@B DD 04H		; std::_Iosb<int>::badbit
CONST	ENDS
;	COMDAT ?failbit@?$_Iosb@H@std@@2W4_Iostate@12@B
CONST	SEGMENT
?failbit@?$_Iosb@H@std@@2W4_Iostate@12@B DD 02H		; std::_Iosb<int>::failbit
CONST	ENDS
;	COMDAT ?pmField@?$CVarTypeInfo@J@ATL@@2QQtagVARIANT@@JQ3@
CONST	SEGMENT
?pmField@?$CVarTypeInfo@J@ATL@@2QQtagVARIANT@@JQ3@ DD 08H ; ATL::CVarTypeInfo<long>::pmField
CONST	ENDS
;	COMDAT ?value@?$integral_constant@_N$00@std@@2_NB
CONST	SEGMENT
?value@?$integral_constant@_N$00@std@@2_NB DB 01H	; std::integral_constant<bool,1>::value
CONST	ENDS
;	COMDAT ?eofbit@?$_Iosb@H@std@@2W4_Iostate@12@B
CONST	SEGMENT
?eofbit@?$_Iosb@H@std@@2W4_Iostate@12@B DD 01H		; std::_Iosb<int>::eofbit
CONST	ENDS
;	COMDAT ?VT@?$CVarTypeInfo@J@ATL@@2GB
CONST	SEGMENT
?VT@?$CVarTypeInfo@J@ATL@@2GB DW 03H			; ATL::CVarTypeInfo<long>::VT
CONST	ENDS
;	COMDAT ?goodbit@?$_Iosb@H@std@@2W4_Iostate@12@B
CONST	SEGMENT
?goodbit@?$_Iosb@H@std@@2W4_Iostate@12@B DD 00H		; std::_Iosb<int>::goodbit
CONST	ENDS
;	COMDAT ?floatfield@?$_Iosb@H@std@@2W4_Fmtflags@12@B
CONST	SEGMENT
?floatfield@?$_Iosb@H@std@@2W4_Fmtflags@12@B DD 03000H	; std::_Iosb<int>::floatfield
CONST	ENDS
;	COMDAT ?basefield@?$_Iosb@H@std@@2W4_Fmtflags@12@B
CONST	SEGMENT
?basefield@?$_Iosb@H@std@@2W4_Fmtflags@12@B DD 0e00H	; std::_Iosb<int>::basefield
CONST	ENDS
;	COMDAT ?pmField@?$CVarTypeInfo@PAI@ATL@@2QQtagVARIANT@@PAIQ3@
CONST	SEGMENT
?pmField@?$CVarTypeInfo@PAI@ATL@@2QQtagVARIANT@@PAIQ3@ DD 08H ; ATL::CVarTypeInfo<unsigned int *>::pmField
CONST	ENDS
;	COMDAT ?VT@?$CVarTypeInfo@PAI@ATL@@2GB
CONST	SEGMENT
?VT@?$CVarTypeInfo@PAI@ATL@@2GB DW 04013H		; ATL::CVarTypeInfo<unsigned int *>::VT
CONST	ENDS
;	COMDAT ?adjustfield@?$_Iosb@H@std@@2W4_Fmtflags@12@B
CONST	SEGMENT
?adjustfield@?$_Iosb@H@std@@2W4_Fmtflags@12@B DD 01c0H	; std::_Iosb<int>::adjustfield
CONST	ENDS
;	COMDAT ?value@?$integral_constant@_N$0A@@std@@2_NB
CONST	SEGMENT
?value@?$integral_constant@_N$0A@@std@@2_NB DB 00H	; std::integral_constant<bool,0>::value
CONST	ENDS
;	COMDAT ?_Stdio@?$_Iosb@H@std@@2W4_Fmtflags@12@B
CONST	SEGMENT
?_Stdio@?$_Iosb@H@std@@2W4_Fmtflags@12@B DD 08000H	; std::_Iosb<int>::_Stdio
CONST	ENDS
;	COMDAT ?boolalpha@?$_Iosb@H@std@@2W4_Fmtflags@12@B
CONST	SEGMENT
?boolalpha@?$_Iosb@H@std@@2W4_Fmtflags@12@B DD 04000H	; std::_Iosb<int>::boolalpha
CONST	ENDS
;	COMDAT ?hexfloat@?$_Iosb@H@std@@2W4_Fmtflags@12@B
CONST	SEGMENT
?hexfloat@?$_Iosb@H@std@@2W4_Fmtflags@12@B DD 03000H	; std::_Iosb<int>::hexfloat
CONST	ENDS
;	COMDAT ?pmField@?$CVarTypeInfo@I@ATL@@2QQtagVARIANT@@IQ3@
CONST	SEGMENT
?pmField@?$CVarTypeInfo@I@ATL@@2QQtagVARIANT@@IQ3@ DD 08H ; ATL::CVarTypeInfo<unsigned int>::pmField
CONST	ENDS
;	COMDAT ?fixed@?$_Iosb@H@std@@2W4_Fmtflags@12@B
CONST	SEGMENT
?fixed@?$_Iosb@H@std@@2W4_Fmtflags@12@B DD 02000H	; std::_Iosb<int>::fixed
CONST	ENDS
;	COMDAT ?VT@?$CVarTypeInfo@I@ATL@@2GB
CONST	SEGMENT
?VT@?$CVarTypeInfo@I@ATL@@2GB DW 013H			; ATL::CVarTypeInfo<unsigned int>::VT
CONST	ENDS
;	COMDAT ?scientific@?$_Iosb@H@std@@2W4_Fmtflags@12@B
CONST	SEGMENT
?scientific@?$_Iosb@H@std@@2W4_Fmtflags@12@B DD 01000H	; std::_Iosb<int>::scientific
CONST	ENDS
;	COMDAT ?hex@?$_Iosb@H@std@@2W4_Fmtflags@12@B
CONST	SEGMENT
?hex@?$_Iosb@H@std@@2W4_Fmtflags@12@B DD 0800H		; std::_Iosb<int>::hex
CONST	ENDS
;	COMDAT ?oct@?$_Iosb@H@std@@2W4_Fmtflags@12@B
CONST	SEGMENT
?oct@?$_Iosb@H@std@@2W4_Fmtflags@12@B DD 0400H		; std::_Iosb<int>::oct
CONST	ENDS
;	COMDAT ?pmField@?$CVarTypeInfo@PAH@ATL@@2QQtagVARIANT@@PAHQ3@
CONST	SEGMENT
?pmField@?$CVarTypeInfo@PAH@ATL@@2QQtagVARIANT@@PAHQ3@ DD 08H ; ATL::CVarTypeInfo<int *>::pmField
CONST	ENDS
;	COMDAT ?dec@?$_Iosb@H@std@@2W4_Fmtflags@12@B
CONST	SEGMENT
?dec@?$_Iosb@H@std@@2W4_Fmtflags@12@B DD 0200H		; std::_Iosb<int>::dec
CONST	ENDS
;	COMDAT ?VT@?$CVarTypeInfo@PAH@ATL@@2GB
CONST	SEGMENT
?VT@?$CVarTypeInfo@PAH@ATL@@2GB DW 04003H		; ATL::CVarTypeInfo<int *>::VT
CONST	ENDS
;	COMDAT ?internal@?$_Iosb@H@std@@2W4_Fmtflags@12@B
CONST	SEGMENT
?internal@?$_Iosb@H@std@@2W4_Fmtflags@12@B DD 0100H	; std::_Iosb<int>::internal
CONST	ENDS
;	COMDAT ?right@?$_Iosb@H@std@@2W4_Fmtflags@12@B
CONST	SEGMENT
?right@?$_Iosb@H@std@@2W4_Fmtflags@12@B DD 080H		; std::_Iosb<int>::right
CONST	ENDS
;	COMDAT ?left@?$_Iosb@H@std@@2W4_Fmtflags@12@B
CONST	SEGMENT
?left@?$_Iosb@H@std@@2W4_Fmtflags@12@B DD 040H		; std::_Iosb<int>::left
CONST	ENDS
;	COMDAT ?showpos@?$_Iosb@H@std@@2W4_Fmtflags@12@B
CONST	SEGMENT
?showpos@?$_Iosb@H@std@@2W4_Fmtflags@12@B DD 020H	; std::_Iosb<int>::showpos
CONST	ENDS
;	COMDAT ?pmField@?$CVarTypeInfo@H@ATL@@2QQtagVARIANT@@HQ3@
CONST	SEGMENT
?pmField@?$CVarTypeInfo@H@ATL@@2QQtagVARIANT@@HQ3@ DD 08H ; ATL::CVarTypeInfo<int>::pmField
CONST	ENDS
;	COMDAT ?VT@?$CVarTypeInfo@H@ATL@@2GB
CONST	SEGMENT
?VT@?$CVarTypeInfo@H@ATL@@2GB DW 03H			; ATL::CVarTypeInfo<int>::VT
CONST	ENDS
;	COMDAT ?showpoint@?$_Iosb@H@std@@2W4_Fmtflags@12@B
CONST	SEGMENT
?showpoint@?$_Iosb@H@std@@2W4_Fmtflags@12@B DD 010H	; std::_Iosb<int>::showpoint
CONST	ENDS
;	COMDAT ?showbase@?$_Iosb@H@std@@2W4_Fmtflags@12@B
CONST	SEGMENT
?showbase@?$_Iosb@H@std@@2W4_Fmtflags@12@B DD 08H	; std::_Iosb<int>::showbase
CONST	ENDS
;	COMDAT ?min_exponent10@?$numeric_limits@O@std@@2HB
CONST	SEGMENT
?min_exponent10@?$numeric_limits@O@std@@2HB DD 0fffffecdH ; std::numeric_limits<long double>::min_exponent10
CONST	ENDS
;	COMDAT ?uppercase@?$_Iosb@H@std@@2W4_Fmtflags@12@B
CONST	SEGMENT
?uppercase@?$_Iosb@H@std@@2W4_Fmtflags@12@B DD 04H	; std::_Iosb<int>::uppercase
CONST	ENDS
;	COMDAT ?min_exponent@?$numeric_limits@O@std@@2HB
CONST	SEGMENT
?min_exponent@?$numeric_limits@O@std@@2HB DD 0fffffc03H	; std::numeric_limits<long double>::min_exponent
CONST	ENDS
;	COMDAT ?unitbuf@?$_Iosb@H@std@@2W4_Fmtflags@12@B
CONST	SEGMENT
?unitbuf@?$_Iosb@H@std@@2W4_Fmtflags@12@B DD 02H	; std::_Iosb<int>::unitbuf
CONST	ENDS
;	COMDAT ?pmField@?$CVarTypeInfo@PAG@ATL@@2QQtagVARIANT@@PAGQ3@
CONST	SEGMENT
?pmField@?$CVarTypeInfo@PAG@ATL@@2QQtagVARIANT@@PAGQ3@ DD 08H ; ATL::CVarTypeInfo<unsigned short *>::pmField
CONST	ENDS
;	COMDAT ?skipws@?$_Iosb@H@std@@2W4_Fmtflags@12@B
CONST	SEGMENT
?skipws@?$_Iosb@H@std@@2W4_Fmtflags@12@B DD 01H		; std::_Iosb<int>::skipws
CONST	ENDS
;	COMDAT ?VT@?$CVarTypeInfo@PAG@ATL@@2GB
CONST	SEGMENT
?VT@?$CVarTypeInfo@PAG@ATL@@2GB DW 04012H		; ATL::CVarTypeInfo<unsigned short *>::VT
CONST	ENDS
;	COMDAT ?max_exponent10@?$numeric_limits@O@std@@2HB
CONST	SEGMENT
?max_exponent10@?$numeric_limits@O@std@@2HB DD 0134H	; std::numeric_limits<long double>::max_exponent10
CONST	ENDS
;	COMDAT __GUID_00020412_0000_0000_c000_000000000046
CONST	SEGMENT
__GUID_00020412_0000_0000_c000_000000000046 DD 020412H
	DW	00H
	DW	00H
	DB	0c0H
	DB	00H
	DB	00H
	DB	00H
	DB	00H
	DB	00H
	DB	00H
	DB	046H
CONST	ENDS
;	COMDAT ?_Max@?$AtlLimits@_K@ATL@@2_KB
CONST	SEGMENT
?_Max@?$AtlLimits@_K@ATL@@2_KB DQ ffffffffffffffffH	; ATL::AtlLimits<unsigned __int64>::_Max
CONST	ENDS
;	COMDAT ?max_exponent@?$numeric_limits@O@std@@2HB
CONST	SEGMENT
?max_exponent@?$numeric_limits@O@std@@2HB DD 0400H	; std::numeric_limits<long double>::max_exponent
CONST	ENDS
;	COMDAT _LIBID_ATLLib
CONST	SEGMENT
_LIBID_ATLLib DD 044ec0535H
	DW	0400fH
	DW	011d0H
	DB	09dH
	DB	0cdH
	DB	00H
	DB	0a0H
	DB	0c9H
	DB	03H
	DB	091H
	DB	0d3H
CONST	ENDS
;	COMDAT ?_Min@?$AtlLimits@_K@ATL@@2_KB
CONST	SEGMENT
?_Min@?$AtlLimits@_K@ATL@@2_KB DQ 0000000000000000H	; ATL::AtlLimits<unsigned __int64>::_Min
CONST	ENDS
;	COMDAT __GUID_00020401_0000_0000_c000_000000000046
CONST	SEGMENT
__GUID_00020401_0000_0000_c000_000000000046 DD 020401H
	DW	00H
	DW	00H
	DB	0c0H
	DB	00H
	DB	00H
	DB	00H
	DB	00H
	DB	00H
	DB	00H
	DB	046H
CONST	ENDS
;	COMDAT ?max_digits10@?$numeric_limits@O@std@@2HB
CONST	SEGMENT
?max_digits10@?$numeric_limits@O@std@@2HB DD 011H	; std::numeric_limits<long double>::max_digits10
CONST	ENDS
;	COMDAT ?pmField@?$CVarTypeInfo@G@ATL@@2QQtagVARIANT@@GQ3@
CONST	SEGMENT
?pmField@?$CVarTypeInfo@G@ATL@@2QQtagVARIANT@@GQ3@ DD 08H ; ATL::CVarTypeInfo<unsigned short>::pmField
CONST	ENDS
;	COMDAT ?digits10@?$numeric_limits@O@std@@2HB
CONST	SEGMENT
?digits10@?$numeric_limits@O@std@@2HB DD 0fH		; std::numeric_limits<long double>::digits10
CONST	ENDS
;	COMDAT ?VT@?$CVarTypeInfo@G@ATL@@2GB
CONST	SEGMENT
?VT@?$CVarTypeInfo@G@ATL@@2GB DW 012H			; ATL::CVarTypeInfo<unsigned short>::VT
CONST	ENDS
;	COMDAT ?digits@?$numeric_limits@O@std@@2HB
CONST	SEGMENT
?digits@?$numeric_limits@O@std@@2HB DD 035H		; std::numeric_limits<long double>::digits
CONST	ENDS
;	COMDAT ?_Max@?$AtlLimits@_J@ATL@@2_JB
CONST	SEGMENT
?_Max@?$AtlLimits@_J@ATL@@2_JB DQ 7fffffffffffffffH	; ATL::AtlLimits<__int64>::_Max
CONST	ENDS
;	COMDAT __GUID_00000001_0000_0000_c000_000000000046
CONST	SEGMENT
__GUID_00000001_0000_0000_c000_000000000046 DD 01H
	DW	00H
	DW	00H
	DB	0c0H
	DB	00H
	DB	00H
	DB	00H
	DB	00H
	DB	00H
	DB	00H
	DB	046H
CONST	ENDS
;	COMDAT ?_Min@?$AtlLimits@_J@ATL@@2_JB
CONST	SEGMENT
?_Min@?$AtlLimits@_J@ATL@@2_JB DQ 8000000000000000H	; ATL::AtlLimits<__int64>::_Min
CONST	ENDS
;	COMDAT ?pmField@?$CVarTypeInfo@PAF@ATL@@2QQtagVARIANT@@PAFQ3@
CONST	SEGMENT
?pmField@?$CVarTypeInfo@PAF@ATL@@2QQtagVARIANT@@PAFQ3@ DD 08H ; ATL::CVarTypeInfo<short *>::pmField
CONST	ENDS
;	COMDAT ?VT@?$CVarTypeInfo@PAF@ATL@@2GB
CONST	SEGMENT
?VT@?$CVarTypeInfo@PAF@ATL@@2GB DW 04002H		; ATL::CVarTypeInfo<short *>::VT
CONST	ENDS
;	COMDAT ?_Max@?$AtlLimits@K@ATL@@2KB
CONST	SEGMENT
?_Max@?$AtlLimits@K@ATL@@2KB DD 0ffffffffH		; ATL::AtlLimits<unsigned long>::_Max
CONST	ENDS
;	COMDAT ?_Min@?$AtlLimits@K@ATL@@2KB
CONST	SEGMENT
?_Min@?$AtlLimits@K@ATL@@2KB DD 00H			; ATL::AtlLimits<unsigned long>::_Min
CONST	ENDS
;	COMDAT ?pmField@?$CVarTypeInfo@F@ATL@@2QQtagVARIANT@@FQ3@
CONST	SEGMENT
?pmField@?$CVarTypeInfo@F@ATL@@2QQtagVARIANT@@FQ3@ DD 08H ; ATL::CVarTypeInfo<short>::pmField
CONST	ENDS
;	COMDAT _IID_IRegistrar
CONST	SEGMENT
_IID_IRegistrar DD 044ec053bH
	DW	0400fH
	DW	011d0H
	DB	09dH
	DB	0cdH
	DB	00H
	DB	0a0H
	DB	0c9H
	DB	03H
	DB	091H
	DB	0d3H
CONST	ENDS
;	COMDAT ?VT@?$CVarTypeInfo@F@ATL@@2GB
CONST	SEGMENT
?VT@?$CVarTypeInfo@F@ATL@@2GB DW 02H			; ATL::CVarTypeInfo<short>::VT
CONST	ENDS
;	COMDAT ?_Max@?$AtlLimits@J@ATL@@2JB
CONST	SEGMENT
?_Max@?$AtlLimits@J@ATL@@2JB DD 07fffffffH		; ATL::AtlLimits<long>::_Max
CONST	ENDS
;	COMDAT __GUID_b196b284_bab4_101a_b69c_00aa00341d07
CONST	SEGMENT
__GUID_b196b284_bab4_101a_b69c_00aa00341d07 DD 0b196b284H
	DW	0bab4H
	DW	0101aH
	DB	0b6H
	DB	09cH
	DB	00H
	DB	0aaH
	DB	00H
	DB	034H
	DB	01dH
	DB	07H
CONST	ENDS
;	COMDAT ?_Min@?$AtlLimits@J@ATL@@2JB
CONST	SEGMENT
?_Min@?$AtlLimits@J@ATL@@2JB DD 080000000H		; ATL::AtlLimits<long>::_Min
CONST	ENDS
;	COMDAT ?min_exponent10@?$numeric_limits@N@std@@2HB
CONST	SEGMENT
?min_exponent10@?$numeric_limits@N@std@@2HB DD 0fffffecdH ; std::numeric_limits<double>::min_exponent10
CONST	ENDS
;	COMDAT __GUID_7fd52380_4e07_101b_ae2d_08002b2ec713
CONST	SEGMENT
__GUID_7fd52380_4e07_101b_ae2d_08002b2ec713 DD 07fd52380H
	DW	04e07H
	DW	0101bH
	DB	0aeH
	DB	02dH
	DB	08H
	DB	00H
	DB	02bH
	DB	02eH
	DB	0c7H
	DB	013H
CONST	ENDS
;	COMDAT ?min_exponent@?$numeric_limits@N@std@@2HB
CONST	SEGMENT
?min_exponent@?$numeric_limits@N@std@@2HB DD 0fffffc03H	; std::numeric_limits<double>::min_exponent
CONST	ENDS
;	COMDAT ?pmField@?$CVarTypeInfo@PAE@ATL@@2QQtagVARIANT@@PAEQ3@
CONST	SEGMENT
?pmField@?$CVarTypeInfo@PAE@ATL@@2QQtagVARIANT@@PAEQ3@ DD 08H ; ATL::CVarTypeInfo<unsigned char *>::pmField
CONST	ENDS
;	COMDAT __GUID_00000109_0000_0000_c000_000000000046
CONST	SEGMENT
__GUID_00000109_0000_0000_c000_000000000046 DD 0109H
	DW	00H
	DW	00H
	DB	0c0H
	DB	00H
	DB	00H
	DB	00H
	DB	00H
	DB	00H
	DB	00H
	DB	046H
CONST	ENDS
;	COMDAT ?VT@?$CVarTypeInfo@PAE@ATL@@2GB
CONST	SEGMENT
?VT@?$CVarTypeInfo@PAE@ATL@@2GB DW 04011H		; ATL::CVarTypeInfo<unsigned char *>::VT
CONST	ENDS
;	COMDAT ?_Max@?$AtlLimits@I@ATL@@2IB
CONST	SEGMENT
?_Max@?$AtlLimits@I@ATL@@2IB DD 0ffffffffH		; ATL::AtlLimits<unsigned int>::_Max
CONST	ENDS
;	COMDAT ?max_exponent10@?$numeric_limits@N@std@@2HB
CONST	SEGMENT
?max_exponent10@?$numeric_limits@N@std@@2HB DD 0134H	; std::numeric_limits<double>::max_exponent10
CONST	ENDS
;	COMDAT ?_Min@?$AtlLimits@I@ATL@@2IB
CONST	SEGMENT
?_Min@?$AtlLimits@I@ATL@@2IB DD 00H			; ATL::AtlLimits<unsigned int>::_Min
CONST	ENDS
;	COMDAT ?max_exponent@?$numeric_limits@N@std@@2HB
CONST	SEGMENT
?max_exponent@?$numeric_limits@N@std@@2HB DD 0400H	; std::numeric_limits<double>::max_exponent
CONST	ENDS
;	COMDAT ?max_digits10@?$numeric_limits@N@std@@2HB
CONST	SEGMENT
?max_digits10@?$numeric_limits@N@std@@2HB DD 011H	; std::numeric_limits<double>::max_digits10
CONST	ENDS
;	COMDAT ?pmField@?$CVarTypeInfo@PAD@ATL@@2QQtagVARIANT@@PADQ3@
CONST	SEGMENT
?pmField@?$CVarTypeInfo@PAD@ATL@@2QQtagVARIANT@@PADQ3@ DD 08H ; ATL::CVarTypeInfo<char *>::pmField
CONST	ENDS
;	COMDAT ?digits10@?$numeric_limits@N@std@@2HB
CONST	SEGMENT
?digits10@?$numeric_limits@N@std@@2HB DD 0fH		; std::numeric_limits<double>::digits10
CONST	ENDS
;	COMDAT ?_Max@?$AtlLimits@H@ATL@@2HB
CONST	SEGMENT
?_Max@?$AtlLimits@H@ATL@@2HB DD 07fffffffH		; ATL::AtlLimits<int>::_Max
CONST	ENDS
;	COMDAT ?VT@?$CVarTypeInfo@PAD@ATL@@2GB
CONST	SEGMENT
?VT@?$CVarTypeInfo@PAD@ATL@@2GB DW 04010H		; ATL::CVarTypeInfo<char *>::VT
CONST	ENDS
;	COMDAT ?_Min@?$AtlLimits@H@ATL@@2HB
CONST	SEGMENT
?_Min@?$AtlLimits@H@ATL@@2HB DD 080000000H		; ATL::AtlLimits<int>::_Min
CONST	ENDS
;	COMDAT ?digits@?$numeric_limits@N@std@@2HB
CONST	SEGMENT
?digits@?$numeric_limits@N@std@@2HB DD 035H		; std::numeric_limits<double>::digits
CONST	ENDS
;	COMDAT _CLSID_Registrar
CONST	SEGMENT
_CLSID_Registrar DD 044ec053aH
	DW	0400fH
	DW	011d0H
	DB	09dH
	DB	0cdH
	DB	00H
	DB	0a0H
	DB	0c9H
	DB	03H
	DB	091H
	DB	0d3H
CONST	ENDS
;	COMDAT ?pmField@?$CVarTypeInfo@E@ATL@@2QQtagVARIANT@@EQ3@
CONST	SEGMENT
?pmField@?$CVarTypeInfo@E@ATL@@2QQtagVARIANT@@EQ3@ DD 08H ; ATL::CVarTypeInfo<unsigned char>::pmField
CONST	ENDS
;	COMDAT ?VT@?$CVarTypeInfo@E@ATL@@2GB
CONST	SEGMENT
?VT@?$CVarTypeInfo@E@ATL@@2GB DW 011H			; ATL::CVarTypeInfo<unsigned char>::VT
CONST	ENDS
;	COMDAT ?pmField@?$CVarTypeInfo@D@ATL@@2QQtagVARIANT@@DQ3@
CONST	SEGMENT
?pmField@?$CVarTypeInfo@D@ATL@@2QQtagVARIANT@@DQ3@ DD 08H ; ATL::CVarTypeInfo<char>::pmField
CONST	ENDS
;	COMDAT ?VT@?$CVarTypeInfo@D@ATL@@2GB
CONST	SEGMENT
?VT@?$CVarTypeInfo@D@ATL@@2GB DW 010H			; ATL::CVarTypeInfo<char>::VT
CONST	ENDS
;	COMDAT ?min_exponent10@?$numeric_limits@M@std@@2HB
CONST	SEGMENT
?min_exponent10@?$numeric_limits@M@std@@2HB DD 0ffffffdbH ; std::numeric_limits<float>::min_exponent10
CONST	ENDS
;	COMDAT ?min_exponent@?$numeric_limits@M@std@@2HB
CONST	SEGMENT
?min_exponent@?$numeric_limits@M@std@@2HB DD 0ffffff83H	; std::numeric_limits<float>::min_exponent
CONST	ENDS
;	COMDAT ?max_exponent10@?$numeric_limits@M@std@@2HB
CONST	SEGMENT
?max_exponent10@?$numeric_limits@M@std@@2HB DD 026H	; std::numeric_limits<float>::max_exponent10
CONST	ENDS
;	COMDAT ?max_exponent@?$numeric_limits@M@std@@2HB
CONST	SEGMENT
?max_exponent@?$numeric_limits@M@std@@2HB DD 080H	; std::numeric_limits<float>::max_exponent
CONST	ENDS
;	COMDAT ?max_digits10@?$numeric_limits@M@std@@2HB
CONST	SEGMENT
?max_digits10@?$numeric_limits@M@std@@2HB DD 09H	; std::numeric_limits<float>::max_digits10
CONST	ENDS
;	COMDAT ?digits10@?$numeric_limits@M@std@@2HB
CONST	SEGMENT
?digits10@?$numeric_limits@M@std@@2HB DD 06H		; std::numeric_limits<float>::digits10
CONST	ENDS
;	COMDAT ?digits@?$numeric_limits@M@std@@2HB
CONST	SEGMENT
?digits@?$numeric_limits@M@std@@2HB DD 018H		; std::numeric_limits<float>::digits
CONST	ENDS
;	COMDAT __GUID_00000146_0000_0000_c000_000000000046
CONST	SEGMENT
__GUID_00000146_0000_0000_c000_000000000046 DD 0146H
	DW	00H
	DW	00H
	DB	0c0H
	DB	00H
	DB	00H
	DB	00H
	DB	00H
	DB	00H
	DB	00H
	DB	046H
CONST	ENDS
;	COMDAT ?digits10@?$numeric_limits@_K@std@@2HB
CONST	SEGMENT
?digits10@?$numeric_limits@_K@std@@2HB DD 013H		; std::numeric_limits<unsigned __int64>::digits10
CONST	ENDS
;	COMDAT ?digits@?$numeric_limits@_K@std@@2HB
CONST	SEGMENT
?digits@?$numeric_limits@_K@std@@2HB DD 040H		; std::numeric_limits<unsigned __int64>::digits
CONST	ENDS
;	COMDAT ?is_signed@?$numeric_limits@_K@std@@2_NB
CONST	SEGMENT
?is_signed@?$numeric_limits@_K@std@@2_NB DB 00H		; std::numeric_limits<unsigned __int64>::is_signed
CONST	ENDS
;	COMDAT ??_C@_0O@MOIEHDHD@?$FLVERSIONTEXT?$FN?$AA@
CONST	SEGMENT
??_C@_0O@MOIEHDHD@?$FLVERSIONTEXT?$FN?$AA@ DB '[VERSIONTEXT]', 00H ; `string'
CONST	ENDS
;	COMDAT ??_C@_06CJDLGGKC@?$FLTILE?$FN?$AA@
CONST	SEGMENT
??_C@_06CJDLGGKC@?$FLTILE?$FN?$AA@ DB '[TILE]', 00H	; `string'
CONST	ENDS
;	COMDAT ??_C@_07LPDABDIG@?$FLCLOCK?$FN?$AA@
CONST	SEGMENT
??_C@_07LPDABDIG@?$FLCLOCK?$FN?$AA@ DB '[CLOCK]', 00H	; `string'
CONST	ENDS
;	COMDAT ??_C@_06GIPEPOLN@?$FLFILL?$FN?$AA@
CONST	SEGMENT
??_C@_06GIPEPOLN@?$FLFILL?$FN?$AA@ DB '[FILL]', 00H	; `string'
CONST	ENDS
;	COMDAT ??_C@_07GBEICCOI@?$FLMOVIE?$FN?$AA@
CONST	SEGMENT
??_C@_07GBEICCOI@?$FLMOVIE?$FN?$AA@ DB '[MOVIE]', 00H	; `string'
CONST	ENDS
;	COMDAT ??_C@_0N@HPEAJKOC@?$FLSTRINGLIST?$FN?$AA@
CONST	SEGMENT
??_C@_0N@HPEAJKOC@?$FLSTRINGLIST?$FN?$AA@ DB '[STRINGLIST]', 00H ; `string'
CONST	ENDS
;	COMDAT ??_C@_06PBMNIIBA@?$FLANIM?$FN?$AA@
CONST	SEGMENT
??_C@_06PBMNIIBA@?$FLANIM?$FN?$AA@ DB '[ANIM]', 00H	; `string'
CONST	ENDS
;	COMDAT ??_C@_08EANNEFAN@?$FLPANNER?$FN?$AA@
CONST	SEGMENT
??_C@_08EANNEFAN@?$FLPANNER?$FN?$AA@ DB '[PANNER]', 00H	; `string'
CONST	ENDS
;	COMDAT ?digits10@?$numeric_limits@_J@std@@2HB
CONST	SEGMENT
?digits10@?$numeric_limits@_J@std@@2HB DD 012H		; std::numeric_limits<__int64>::digits10
CONST	ENDS
;	COMDAT ??_C@_0M@KPPBDNDP@?$FLPOPUPMENU?$FN?$AA@
CONST	SEGMENT
??_C@_0M@KPPBDNDP@?$FLPOPUPMENU?$FN?$AA@ DB '[POPUPMENU]', 00H ; `string'
CONST	ENDS
;	COMDAT ??_C@_08PIDAALDH@?$FLSLIDER?$FN?$AA@
CONST	SEGMENT
??_C@_08PIDAALDH@?$FLSLIDER?$FN?$AA@ DB '[SLIDER]', 00H	; `string'
CONST	ENDS
;	COMDAT ??_C@_07INBMONCF@?$FLSOUND?$FN?$AA@
CONST	SEGMENT
??_C@_07INBMONCF@?$FLSOUND?$FN?$AA@ DB '[SOUND]', 00H	; `string'
CONST	ENDS
;	COMDAT ??_C@_09EKLEIEOO@?$FLLOCATOR?$FN?$AA@
CONST	SEGMENT
??_C@_09EKLEIEOO@?$FLLOCATOR?$FN?$AA@ DB '[LOCATOR]', 00H ; `string'
CONST	ENDS
;	COMDAT ?digits@?$numeric_limits@_J@std@@2HB
CONST	SEGMENT
?digits@?$numeric_limits@_J@std@@2HB DD 03fH		; std::numeric_limits<__int64>::digits
CONST	ENDS
;	COMDAT ??_C@_0M@IDJJBGC@?$FLANIMATION?$FN?$AA@
CONST	SEGMENT
??_C@_0M@IDJJBGC@?$FLANIMATION?$FN?$AA@ DB '[ANIMATION]', 00H ; `string'
CONST	ENDS
;	COMDAT ??_C@_08HILHEBCO@?$FLMARQUE?$FN?$AA@
CONST	SEGMENT
??_C@_08HILHEBCO@?$FLMARQUE?$FN?$AA@ DB '[MARQUE]', 00H	; `string'
CONST	ENDS
;	COMDAT ??_C@_05KEIKLJDL@?$FLBOX?$FN?$AA@
CONST	SEGMENT
??_C@_05KEIKLJDL@?$FLBOX?$FN?$AA@ DB '[BOX]', 00H	; `string'
CONST	ENDS
;	COMDAT ??_C@_06GMLHCONP@?$FLLINE?$FN?$AA@
CONST	SEGMENT
??_C@_06GMLHCONP@?$FLLINE?$FN?$AA@ DB '[LINE]', 00H	; `string'
CONST	ENDS
;	COMDAT ?is_signed@?$numeric_limits@_J@std@@2_NB
CONST	SEGMENT
?is_signed@?$numeric_limits@_J@std@@2_NB DB 01H		; std::numeric_limits<__int64>::is_signed
CONST	ENDS
;	COMDAT ??_C@_08CEKHCFCI@?$FLBITMAP?$FN?$AA@
CONST	SEGMENT
??_C@_08CEKHCFCI@?$FLBITMAP?$FN?$AA@ DB '[BITMAP]', 00H	; `string'
CONST	ENDS
;	COMDAT ??_C@_07OKNAJLFB@?$FLIMAGE?$FN?$AA@
CONST	SEGMENT
??_C@_07OKNAJLFB@?$FLIMAGE?$FN?$AA@ DB '[IMAGE]', 00H	; `string'
CONST	ENDS
;	COMDAT ??_C@_0L@BDEHKHNA@?$FLMAKEFONT?$FN?$AA@
CONST	SEGMENT
??_C@_0L@BDEHKHNA@?$FLMAKEFONT?$FN?$AA@ DB '[MAKEFONT]', 00H ; `string'
CONST	ENDS
;	COMDAT ??_C@_0L@MEJDDIPA@?$FLTREELIST?$FN?$AA@
CONST	SEGMENT
??_C@_0L@MEJDDIPA@?$FLTREELIST?$FN?$AA@ DB '[TREELIST]', 00H ; `string'
CONST	ENDS
;	COMDAT ??_C@_0M@GLIMEBAJ@?$FLSCROLLBAR?$FN?$AA@
CONST	SEGMENT
??_C@_0M@GLIMEBAJ@?$FLSCROLLBAR?$FN?$AA@ DB '[SCROLLBAR]', 00H ; `string'
CONST	ENDS
;	COMDAT ??_C@_09FKCJGFHL@?$FLLISTBOX?$FN?$AA@
CONST	SEGMENT
??_C@_09FKCJGFHL@?$FLLISTBOX?$FN?$AA@ DB '[LISTBOX]', 00H ; `string'
CONST	ENDS
;	COMDAT ??_C@_09KOCBAFHB@?$FLEDITBOX?$FN?$AA@
CONST	SEGMENT
??_C@_09KOCBAFHB@?$FLEDITBOX?$FN?$AA@ DB '[EDITBOX]', 00H ; `string'
CONST	ENDS
;	COMDAT ??_C@_06COFEICCM@?$FLTEXT?$FN?$AA@
CONST	SEGMENT
??_C@_06COFEICCM@?$FLTEXT?$FN?$AA@ DB '[TEXT]', 00H	; `string'
CONST	ENDS
;	COMDAT ??_C@_08BPEONPCI@?$FLBUTTON?$FN?$AA@
CONST	SEGMENT
??_C@_08BPEONPCI@?$FLBUTTON?$FN?$AA@ DB '[BUTTON]', 00H	; `string'
CONST	ENDS
;	COMDAT ??_C@_08FKDBDIFN@?$FLWINDOW?$FN?$AA@
CONST	SEGMENT
??_C@_08FKDBDIFN@?$FLWINDOW?$FN?$AA@ DB '[WINDOW]', 00H	; `string'
CONST	ENDS
;	COMDAT ??_C@_09NLBFAKCN@?$FLNOTHING?$FN?$AA@
CONST	SEGMENT
??_C@_09NLBFAKCN@?$FLNOTHING?$FN?$AA@ DB '[NOTHING]', 00H ; `string'
CONST	ENDS
_DATA	SEGMENT
_C_All_Tokens DD FLAT:??_C@_09NLBFAKCN@?$FLNOTHING?$FN?$AA@
	DD	FLAT:??_C@_08FKDBDIFN@?$FLWINDOW?$FN?$AA@
	DD	FLAT:??_C@_08BPEONPCI@?$FLBUTTON?$FN?$AA@
	DD	FLAT:??_C@_06COFEICCM@?$FLTEXT?$FN?$AA@
	DD	FLAT:??_C@_09KOCBAFHB@?$FLEDITBOX?$FN?$AA@
	DD	FLAT:??_C@_09FKCJGFHL@?$FLLISTBOX?$FN?$AA@
	DD	FLAT:??_C@_0M@GLIMEBAJ@?$FLSCROLLBAR?$FN?$AA@
	DD	FLAT:??_C@_0L@MEJDDIPA@?$FLTREELIST?$FN?$AA@
	DD	FLAT:??_C@_0L@BDEHKHNA@?$FLMAKEFONT?$FN?$AA@
	DD	FLAT:??_C@_07OKNAJLFB@?$FLIMAGE?$FN?$AA@
	DD	FLAT:??_C@_08CEKHCFCI@?$FLBITMAP?$FN?$AA@
	DD	FLAT:??_C@_06GMLHCONP@?$FLLINE?$FN?$AA@
	DD	FLAT:??_C@_05KEIKLJDL@?$FLBOX?$FN?$AA@
	DD	FLAT:??_C@_08HILHEBCO@?$FLMARQUE?$FN?$AA@
	DD	FLAT:??_C@_0M@IDJJBGC@?$FLANIMATION?$FN?$AA@
	DD	FLAT:??_C@_09EKLEIEOO@?$FLLOCATOR?$FN?$AA@
	DD	FLAT:??_C@_07INBMONCF@?$FLSOUND?$FN?$AA@
	DD	FLAT:??_C@_08PIDAALDH@?$FLSLIDER?$FN?$AA@
	DD	FLAT:??_C@_0M@KPPBDNDP@?$FLPOPUPMENU?$FN?$AA@
	DD	FLAT:??_C@_08EANNEFAN@?$FLPANNER?$FN?$AA@
	DD	FLAT:??_C@_06PBMNIIBA@?$FLANIM?$FN?$AA@
	DD	FLAT:??_C@_0N@HPEAJKOC@?$FLSTRINGLIST?$FN?$AA@
	DD	FLAT:??_C@_07GBEICCOI@?$FLMOVIE?$FN?$AA@
	DD	FLAT:??_C@_06GIPEPOLN@?$FLFILL?$FN?$AA@
	DD	FLAT:??_C@_0L@MEJDDIPA@?$FLTREELIST?$FN?$AA@
	DD	FLAT:??_C@_07LPDABDIG@?$FLCLOCK?$FN?$AA@
	DD	FLAT:??_C@_06CJDLGGKC@?$FLTILE?$FN?$AA@
	DD	FLAT:??_C@_0O@MOIEHDHD@?$FLVERSIONTEXT?$FN?$AA@
	DD	00H
?ParseCRLF@@3PADA DB 0dH				; ParseCRLF
	DB	0aH
	DB	00H
	ORG $+1
_UI95_Table DB	'NULL', 00H
	ORG $+59
	DD	00H
	DB	'NID', 00H
	ORG $+60
	DD	0fffffffeH
	DB	'C_DONT_CARE', 00H
	ORG $+52
	DD	0fffffffeH
	DB	'C_STATE_0', 00H
	ORG $+54
	DD	00H
	DB	'C_STATE_1', 00H
	ORG $+54
	DD	01H
	DB	'C_STATE_2', 00H
	ORG $+54
	DD	02H
	DB	'C_STATE_3', 00H
	ORG $+54
	DD	03H
	DB	'C_STATE_4', 00H
	ORG $+54
	DD	04H
	DB	'C_STATE_5', 00H
	ORG $+54
	DD	05H
	DB	'C_STATE_6', 00H
	ORG $+54
	DD	06H
	DB	'C_STATE_7', 00H
	ORG $+54
	DD	07H
	DB	'C_STATE_8', 00H
	ORG $+54
	DD	08H
	DB	'C_STATE_9', 00H
	ORG $+54
	DD	09H
	DB	'C_STATE_10', 00H
	ORG $+53
	DD	0aH
	DB	'C_STATE_11', 00H
	ORG $+53
	DD	0bH
	DB	'C_STATE_12', 00H
	ORG $+53
	DD	0cH
	DB	'C_STATE_13', 00H
	ORG $+53
	DD	0dH
	DB	'C_STATE_14', 00H
	ORG $+53
	DD	0eH
	DB	'C_STATE_15', 00H
	ORG $+53
	DD	0fH
	DB	'C_STATE_16', 00H
	ORG $+53
	DD	010H
	DB	'C_STATE_17', 00H
	ORG $+53
	DD	011H
	DB	'C_STATE_18', 00H
	ORG $+53
	DD	012H
	DB	'C_STATE_19', 00H
	ORG $+53
	DD	013H
	DB	'C_STATE_20', 00H
	ORG $+53
	DD	014H
	DB	'C_STATE_UP', 00H
	ORG $+53
	DD	00H
	DB	'C_STATE_DOWN', 00H
	ORG $+51
	DD	01H
	DB	'C_STATE_DISABLED', 00H
	ORG $+47
	DD	015H
	DB	'C_STATE_SELECTED', 00H
	ORG $+47
	DD	016H
	DB	'C_STATE_MOUSE', 00H
	ORG $+50
	DD	017H
	DB	'C_TYPE_NOTHING', 00H
	ORG $+49
	DD	018H
	DB	'C_TYPE_NORMAL', 00H
	ORG $+50
	DD	019H
	DB	'C_TYPE_TOGGLE', 00H
	ORG $+50
	DD	01aH
	DB	'C_TYPE_SELECT', 00H
	ORG $+50
	DD	01cH
	DB	'C_TYPE_RADIO', 00H
	ORG $+51
	DD	01bH
	DB	'C_TYPE_CUSTOM', 00H
	ORG $+50
	DD	01dH
	DB	'C_TYPE_SIZEX', 00H
	ORG $+51
	DD	01eH
	DB	'C_TYPE_SIZEY', 00H
	ORG $+51
	DD	01fH
	DB	'C_TYPE_SIZEXY', 00H
	ORG $+50
	DD	020H
	DB	'C_TYPE_SIZEW', 00H
	ORG $+51
	DD	021H
	DB	'C_TYPE_SIZEH', 00H
	ORG $+51
	DD	022H
	DB	'C_TYPE_SIZEWH', 00H
	ORG $+50
	DD	023H
	DB	'C_TYPE_DRAGX', 00H
	ORG $+51
	DD	024H
	DB	'C_TYPE_DRAGY', 00H
	ORG $+51
	DD	025H
	DB	'C_TYPE_DRAGXY', 00H
	ORG $+50
	DD	026H
	DB	'C_TYPE_TEXT', 00H
	ORG $+52
	DD	027H
	DB	'C_TYPE_PASSWORD', 00H
	ORG $+48
	DD	028H
	DB	'C_TYPE_INTEGER', 00H
	ORG $+49
	DD	029H
	DB	'C_TYPE_FLOAT', 00H
	ORG $+51
	DD	02aH
	DB	'C_TYPE_FILENAME', 00H
	ORG $+48
	DD	02bH
	DB	'C_TYPE_MENU', 00H
	ORG $+52
	DD	031H
	DB	'C_TYPE_LEFT', 00H
	ORG $+52
	DD	02cH
	DB	'C_TYPE_CENTER', 00H
	ORG $+50
	DD	02dH
	DB	'C_TYPE_RIGHT', 00H
	ORG $+51
	DD	02eH
	DB	'C_TYPE_ROOT', 00H
	ORG $+52
	DD	02fH
	DB	'C_TYPE_INFO', 00H
	ORG $+52
	DD	030H
	DB	'C_TYPE_ITEM', 00H
	ORG $+52
	DD	032H
	DB	'C_TYPE_LMOUSEDOWN', 00H
	ORG $+46
	DD	033H
	DB	'C_TYPE_LMOUSEUP', 00H
	ORG $+48
	DD	034H
	DB	'C_TYPE_LMOUSEDBLCLK', 00H
	ORG $+44
	DD	035H
	DB	'C_TYPE_RMOUSEDOWN', 00H
	ORG $+46
	DD	036H
	DB	'C_TYPE_RMOUSEUP', 00H
	ORG $+48
	DD	037H
	DB	'C_TYPE_RMOUSEDBLCLK', 00H
	ORG $+44
	DD	038H
	DB	'C_TYPE_MOUSEOVER', 00H
	ORG $+47
	DD	039H
	DB	'C_TYPE_MOUSEREPEAT', 00H
	ORG $+45
	DD	03aH
	DB	'C_TYPE_EXCLUSIVE', 00H
	ORG $+47
	DD	03cH
	DB	'C_TYPE_MOUSEMOVE', 00H
	ORG $+47
	DD	03dH
	DB	'C_TYPE_VERTICAL', 00H
	ORG $+48
	DD	03eH
	DB	'C_TYPE_HORIZONTAL', 00H
	ORG $+46
	DD	03fH
	DB	'C_TYPE_LOOP', 00H
	ORG $+52
	DD	040H
	DB	'C_TYPE_STOPATEND', 00H
	ORG $+47
	DD	041H
	DB	'C_TYPE_PINGPONG', 00H
	ORG $+48
	DD	042H
	DB	'C_TYPE_TIMER', 00H
	ORG $+51
	DD	043H
	DB	'C_TYPE_TRANSLUCENT', 00H
	ORG $+45
	DD	044H
	DB	'C_TYPE_IPADDRESS', 00H
	ORG $+47
	DD	04aH
	DB	00H
	DB	0ffH
	ORG $+62
	ORG $+4
	ORG $+4
_UI95_BitTable DB 'NULL', 00H
	ORG $+59
	DD	00H
	DB	'C_BIT_NOTHING', 00H
	ORG $+50
	DD	00H
	DB	'C_BIT_FIXEDSIZE', 00H
	ORG $+48
	DD	01H
	DB	'C_BIT_LEADINGZEROS', 00H
	ORG $+45
	DD	02H
	DB	'C_BIT_VERTICAL', 00H
	ORG $+49
	DD	04H
	DB	'C_BIT_HORIZONTAL', 00H
	ORG $+47
	DD	08H
	DB	'C_BIT_USEOUTLINE', 00H
	ORG $+47
	DD	010H
	DB	'C_BIT_LEFT', 00H
	ORG $+53
	DD	020H
	DB	'C_BIT_RIGHT', 00H
	ORG $+52
	DD	040H
	DB	'C_BIT_TOP', 00H
	ORG $+54
	DD	080H
	DB	'C_BIT_BOTTOM', 00H
	ORG $+51
	DD	0100H
	DB	'C_BIT_HCENTER', 00H
	ORG $+50
	DD	0200H
	DB	'C_BIT_VCENTER', 00H
	ORG $+50
	DD	0400H
	DB	'C_BIT_ENABLED', 00H
	ORG $+50
	DD	0800H
	DB	'C_BIT_DRAGABLE', 00H
	ORG $+49
	DD	01000H
	DB	'C_BIT_INVISIBLE', 00H
	ORG $+48
	DD	02000H
	DB	'C_BIT_FORCEMOUSEOVER', 00H
	ORG $+43
	DD	04000H
	DB	'C_BIT_USEBGIMAGE', 00H
	ORG $+47
	DD	08000H
	DB	'C_BIT_TIMER', 00H
	ORG $+52
	DD	010000H
	DB	'C_BIT_ABSOLUTE', 00H
	ORG $+49
	DD	040000H
	DB	'C_BIT_SELECTABLE', 00H
	ORG $+47
	DD	080000H
	DB	'C_BIT_OPAQUE', 00H
	ORG $+51
	DD	0100000H
	DB	'C_BIT_CANTMOVE', 00H
	ORG $+49
	DD	0200000H
	DB	'C_BIT_USELINE', 00H
	ORG $+50
	DD	0400000H
	DB	'C_BIT_WORDWRAP', 00H
	ORG $+49
	DD	02000000H
	DB	'C_BIT_REMOVE', 00H
	ORG $+51
	DD	04000000H
	DB	'C_BIT_NOCLEANUP', 00H
	ORG $+48
	DD	08000000H
	DB	'C_BIT_TRANSLUCENT', 00H
	ORG $+46
	DD	020000000H
	DB	'C_BIT_USEBGFILL', 00H
	ORG $+48
	DD	040000000H
	DB	'C_BIT_MOUSEOVER', 00H
	ORG $+48
	DD	010000000H
	DB	'C_BIT_NOLABEL', 00H
	ORG $+50
	DD	01000000H
	DB	00H
	DB	0ffH
	ORG $+62
	ORG $+4
_UI95_FontTable DB 'FALSE', 00H
	ORG $+58
	DD	00H
	DB	'TRUE', 00H
	ORG $+59
	DD	01H
	DB	'FW_DONTCARE', 00H
	ORG $+52
	DD	00H
	DB	'FW_THIN', 00H
	ORG $+56
	DD	064H
	DB	'FW_EXTRALIGHT', 00H
	ORG $+50
	DD	0c8H
	DB	'FW_ULTRALIGHT', 00H
	ORG $+50
	DD	0c8H
	DB	'FW_LIGHT', 00H
	ORG $+55
	DD	012cH
	DB	'FW_NORMAL', 00H
	ORG $+54
	DD	0190H
	DB	'FW_REGULAR', 00H
	ORG $+53
	DD	0190H
	DB	'FW_MEDIUM', 00H
	ORG $+54
	DD	01f4H
	DB	'FW_SEMIBOLD', 00H
	ORG $+52
	DD	0258H
	DB	'FW_DEMIBOLD', 00H
	ORG $+52
	DD	0258H
	DB	'FW_BOLD', 00H
	ORG $+56
	DD	02bcH
	DB	'FW_EXTRABOLD', 00H
	ORG $+51
	DD	0320H
	DB	'FW_ULTRABOLD', 00H
	ORG $+51
	DD	0320H
	DB	'FW_HEAVY', 00H
	ORG $+55
	DD	0384H
	DB	'FW_BLACK', 00H
	ORG $+55
	DD	0384H
	DB	'ANSI_CHARSET', 00H
	ORG $+51
	DD	00H
	DB	'DEFAULT_CHARSET', 00H
	ORG $+48
	DD	01H
	DB	'SYMBOL_CHARSET', 00H
	ORG $+49
	DD	02H
	DB	'SHIFTJIS_CHARSET', 00H
	ORG $+47
	DD	080H
	DB	'GB2312_CHARSET', 00H
	ORG $+49
	DD	086H
	DB	'HANGEUL_CHARSET', 00H
	ORG $+48
	DD	081H
	DB	'CHINESEBIG5_CHARSET', 00H
	ORG $+44
	DD	088H
	DB	'OEM_CHARSET', 00H
	ORG $+52
	DD	0ffH
	DB	'JOHAB_CHARSET', 00H
	ORG $+50
	DD	082H
	DB	'HEBREW_CHARSET', 00H
	ORG $+49
	DD	0b1H
	DB	'ARABIC_CHARSET', 00H
	ORG $+49
	DD	0b2H
	DB	'GREEK_CHARSET', 00H
	ORG $+50
	DD	0a1H
	DB	'TURKISH_CHARSET', 00H
	ORG $+48
	DD	0a2H
	DB	'THAI_CHARSET', 00H
	ORG $+51
	DD	0deH
	DB	'EASTEUROPE_CHARSET', 00H
	ORG $+45
	DD	0eeH
	DB	'RUSSIAN_CHARSET', 00H
	ORG $+48
	DD	0ccH
	DB	'MAC_CHARSET', 00H
	ORG $+52
	DD	04dH
	DB	'BALTIC_CHARSET', 00H
	ORG $+49
	DD	0baH
	DB	'OUT_CHARACTER_PRECIS', 00H
	ORG $+43
	DD	02H
	DB	'OUT_DEFAULT_PRECIS', 00H
	ORG $+45
	DD	00H
	DB	'OUT_DEVICE_PRECIS', 00H
	ORG $+46
	DD	05H
	DB	'OUT_OUTLINE_PRECIS', 00H
	ORG $+45
	DD	08H
	DB	'OUT_RASTER_PRECIS', 00H
	ORG $+46
	DD	06H
	DB	'OUT_STRING_PRECIS', 00H
	ORG $+46
	DD	01H
	DB	'OUT_STROKE_PRECIS', 00H
	ORG $+46
	DD	03H
	DB	'OUT_TT_ONLY_PRECIS', 00H
	ORG $+45
	DD	07H
	DB	'OUT_TT_PRECIS', 00H
	ORG $+50
	DD	04H
	DB	'CLIP_DEFAULT_PRECIS', 00H
	ORG $+44
	DD	00H
	DB	'CLIP_CHARACTER_PRECIS', 00H
	ORG $+42
	DD	01H
	DB	'CLIP_STROKE_PRECIS', 00H
	ORG $+45
	DD	02H
	DB	'CLIP_MASK', 00H
	ORG $+54
	DD	0fH
	DB	'CLIP_EMBEDDED', 00H
	ORG $+50
	DD	080H
	DB	'CLIP_LH_ANGLES', 00H
	ORG $+49
	DD	010H
	DB	'CLIP_TT_ALWAYS', 00H
	ORG $+49
	DD	020H
	DB	'DEFAULT_QUALITY', 00H
	ORG $+48
	DD	00H
	DB	'DRAFT_QUALITY', 00H
	ORG $+50
	DD	01H
	DB	'PROOF_QUALITY', 00H
	ORG $+50
	DD	02H
	DB	'DEFAULT_PITCH', 00H
	ORG $+50
	DD	00H
	DB	'FIXED_PITCH', 00H
	ORG $+52
	DD	01H
	DB	'VARIABLE_PITCH', 00H
	ORG $+49
	DD	02H
	DB	'FF_DECORATIVE', 00H
	ORG $+50
	DD	050H
	DB	'FF_DONTCARE', 00H
	ORG $+52
	DD	00H
	DB	'FF_MODERN', 00H
	ORG $+54
	DD	030H
	DB	'FF_ROMAN', 00H
	ORG $+55
	DD	010H
	DB	'FF_SCRIPT', 00H
	ORG $+54
	DD	040H
	DB	'FF_SWISS', 00H
	ORG $+55
	DD	020H
	DB	00H
	DB	0ffH
	ORG $+62
	ORG $+4
_DATA	ENDS
;	COMDAT ?value@?$integral_constant@I$0A@@std@@2IB
CONST	SEGMENT
?value@?$integral_constant@I$0A@@std@@2IB DD 00H	; std::integral_constant<unsigned int,0>::value
CONST	ENDS
;	COMDAT ?digits10@?$numeric_limits@K@std@@2HB
CONST	SEGMENT
?digits10@?$numeric_limits@K@std@@2HB DD 09H		; std::numeric_limits<unsigned long>::digits10
CONST	ENDS
;	COMDAT ?digits@?$numeric_limits@K@std@@2HB
CONST	SEGMENT
?digits@?$numeric_limits@K@std@@2HB DD 020H		; std::numeric_limits<unsigned long>::digits
CONST	ENDS
;	COMDAT ?is_signed@?$numeric_limits@K@std@@2_NB
CONST	SEGMENT
?is_signed@?$numeric_limits@K@std@@2_NB DB 00H		; std::numeric_limits<unsigned long>::is_signed
CONST	ENDS
;	COMDAT __GUID_1cf2b120_547d_101b_8e65_08002b2bd119
CONST	SEGMENT
__GUID_1cf2b120_547d_101b_8e65_08002b2bd119 DD 01cf2b120H
	DW	0547dH
	DW	0101bH
	DB	08eH
	DB	065H
	DB	08H
	DB	00H
	DB	02bH
	DB	02bH
	DB	0d1H
	DB	019H
CONST	ENDS
;	COMDAT ?digits10@?$numeric_limits@J@std@@2HB
CONST	SEGMENT
?digits10@?$numeric_limits@J@std@@2HB DD 09H		; std::numeric_limits<long>::digits10
CONST	ENDS
;	COMDAT ?digits@?$numeric_limits@J@std@@2HB
CONST	SEGMENT
?digits@?$numeric_limits@J@std@@2HB DD 01fH		; std::numeric_limits<long>::digits
CONST	ENDS
;	COMDAT ?is_signed@?$numeric_limits@J@std@@2_NB
CONST	SEGMENT
?is_signed@?$numeric_limits@J@std@@2_NB DB 01H		; std::numeric_limits<long>::is_signed
CONST	ENDS
;	COMDAT _IID_IInternalConnection
CONST	SEGMENT
_IID_IInternalConnection DD 072ad0770H
	DW	06a9fH
	DW	011d1H
	DB	0bcH
	DB	0ecH
	DB	00H
	DB	060H
	DB	08H
	DB	08fH
	DB	044H
	DB	04eH
CONST	ENDS
;	COMDAT ?digits10@?$numeric_limits@I@std@@2HB
CONST	SEGMENT
?digits10@?$numeric_limits@I@std@@2HB DD 09H		; std::numeric_limits<unsigned int>::digits10
CONST	ENDS
;	COMDAT ?digits@?$numeric_limits@I@std@@2HB
CONST	SEGMENT
?digits@?$numeric_limits@I@std@@2HB DD 020H		; std::numeric_limits<unsigned int>::digits
CONST	ENDS
;	COMDAT _IID_IAxWinAmbientDispatchEx
CONST	SEGMENT
_IID_IAxWinAmbientDispatchEx DD 0b2d0778bH
	DW	0ac99H
	DW	04c58H
	DB	0a5H
	DB	0c8H
	DB	0e7H
	DB	072H
	DB	04eH
	DB	053H
	DB	016H
	DB	0b5H
CONST	ENDS
;	COMDAT ?is_signed@?$numeric_limits@I@std@@2_NB
CONST	SEGMENT
?is_signed@?$numeric_limits@I@std@@2_NB DB 00H		; std::numeric_limits<unsigned int>::is_signed
CONST	ENDS
;	COMDAT ?digits10@?$numeric_limits@H@std@@2HB
CONST	SEGMENT
?digits10@?$numeric_limits@H@std@@2HB DD 09H		; std::numeric_limits<int>::digits10
CONST	ENDS
;	COMDAT __GUID_fc4801a3_2ba9_11cf_a229_00aa003d7352
CONST	SEGMENT
__GUID_fc4801a3_2ba9_11cf_a229_00aa003d7352 DD 0fc4801a3H
	DW	02ba9H
	DW	011cfH
	DB	0a2H
	DB	029H
	DB	00H
	DB	0aaH
	DB	00H
	DB	03dH
	DB	073H
	DB	052H
CONST	ENDS
;	COMDAT ?digits@?$numeric_limits@H@std@@2HB
CONST	SEGMENT
?digits@?$numeric_limits@H@std@@2HB DD 01fH		; std::numeric_limits<int>::digits
CONST	ENDS
;	COMDAT ?is_signed@?$numeric_limits@H@std@@2_NB
CONST	SEGMENT
?is_signed@?$numeric_limits@H@std@@2_NB DB 01H		; std::numeric_limits<int>::is_signed
CONST	ENDS
;	COMDAT ?CMPDIRTYDATA_INTERVAL@FalconEntity@@2KB
CONST	SEGMENT
?CMPDIRTYDATA_INTERVAL@FalconEntity@@2KB DD 0c8H	; FalconEntity::CMPDIRTYDATA_INTERVAL
CONST	ENDS
;	COMDAT ?SIMDIRTYDATA_INTERVAL@FalconEntity@@2KB
CONST	SEGMENT
?SIMDIRTYDATA_INTERVAL@FalconEntity@@2KB DD 0c8H	; FalconEntity::SIMDIRTYDATA_INTERVAL
CONST	ENDS
;	COMDAT ?MAX_TYPE@CRegParser@ATL@@1HB
CONST	SEGMENT
?MAX_TYPE@CRegParser@ATL@@1HB DD 01000H			; ATL::CRegParser::MAX_TYPE
CONST	ENDS
;	COMDAT ?cbNeverDelete@CRegParser@ATL@@1HB
CONST	SEGMENT
?cbNeverDelete@CRegParser@ATL@@1HB DD 0cH		; ATL::CRegParser::cbNeverDelete
CONST	ENDS
;	COMDAT ?rgszNeverDelete@CRegParser@ATL@@1QBQBDB
CONST	SEGMENT
?rgszNeverDelete@CRegParser@ATL@@1QBQBDB DD FLAT:??_C@_05PDIKPLII@AppID?$AA@ ; ATL::CRegParser::rgszNeverDelete
	DD	FLAT:??_C@_05GIBEAPNE@CLSID?$AA@
	DD	FLAT:??_C@_0BF@HDDNNDFH@Component?5Categories?$AA@
	DD	FLAT:??_C@_08PICKODJL@FileType?$AA@
	DD	FLAT:??_C@_09JKPGEJCH@Interface?$AA@
	DD	FLAT:??_C@_08PPIOJEA@Hardware?$AA@
	DD	FLAT:??_C@_04IHBFOLAC@Mime?$AA@
	DD	FLAT:??_C@_03DDIMFGBA@SAM?$AA@
	DD	FLAT:??_C@_08LOPHEHKG@SECURITY?$AA@
	DD	FLAT:??_C@_06FDHFNJBJ@SYSTEM?$AA@
	DD	FLAT:??_C@_08KEKAJNJI@Software?$AA@
	DD	FLAT:??_C@_07KJLOKDKB@TypeLib?$AA@
CONST	ENDS
;	COMDAT ?digits10@?$numeric_limits@G@std@@2HB
CONST	SEGMENT
?digits10@?$numeric_limits@G@std@@2HB DD 04H		; std::numeric_limits<unsigned short>::digits10
CONST	ENDS
;	COMDAT ?digits@?$numeric_limits@G@std@@2HB
CONST	SEGMENT
?digits@?$numeric_limits@G@std@@2HB DD 010H		; std::numeric_limits<unsigned short>::digits
CONST	ENDS
;	COMDAT ?is_signed@?$numeric_limits@G@std@@2_NB
CONST	SEGMENT
?is_signed@?$numeric_limits@G@std@@2_NB DB 00H		; std::numeric_limits<unsigned short>::is_signed
CONST	ENDS
;	COMDAT ?MAX_VALUE@CRegParser@ATL@@1HB
CONST	SEGMENT
?MAX_VALUE@CRegParser@ATL@@1HB DD 01000H		; ATL::CRegParser::MAX_VALUE
CONST	ENDS
;	COMDAT ?digits10@?$numeric_limits@F@std@@2HB
CONST	SEGMENT
?digits10@?$numeric_limits@F@std@@2HB DD 04H		; std::numeric_limits<short>::digits10
CONST	ENDS
;	COMDAT __GUID_00000000_0000_0000_0000_000000000000
CONST	SEGMENT
__GUID_00000000_0000_0000_0000_000000000000 DD 00H
	DW	00H
	DW	00H
	DB	00H
	DB	00H
	DB	00H
	DB	00H
	DB	00H
	DB	00H
	DB	00H
	DB	00H
CONST	ENDS
;	COMDAT ?digits@?$numeric_limits@F@std@@2HB
CONST	SEGMENT
?digits@?$numeric_limits@F@std@@2HB DD 0fH		; std::numeric_limits<short>::digits
CONST	ENDS
;	COMDAT ?is_signed@?$numeric_limits@F@std@@2_NB
CONST	SEGMENT
?is_signed@?$numeric_limits@F@std@@2_NB DB 01H		; std::numeric_limits<short>::is_signed
CONST	ENDS
;	COMDAT ?digits10@?$numeric_limits@E@std@@2HB
CONST	SEGMENT
?digits10@?$numeric_limits@E@std@@2HB DD 02H		; std::numeric_limits<unsigned char>::digits10
CONST	ENDS
;	COMDAT ?digits@?$numeric_limits@E@std@@2HB
CONST	SEGMENT
?digits@?$numeric_limits@E@std@@2HB DD 08H		; std::numeric_limits<unsigned char>::digits
CONST	ENDS
;	COMDAT ?is_signed@?$numeric_limits@E@std@@2_NB
CONST	SEGMENT
?is_signed@?$numeric_limits@E@std@@2_NB DB 00H		; std::numeric_limits<unsigned char>::is_signed
CONST	ENDS
;	COMDAT ?table_size@?$ctype@D@std@@2IB
CONST	SEGMENT
?table_size@?$ctype@D@std@@2IB DD 0100H			; std::ctype<char>::table_size
CONST	ENDS
;	COMDAT ?digits10@?$numeric_limits@C@std@@2HB
CONST	SEGMENT
?digits10@?$numeric_limits@C@std@@2HB DD 02H		; std::numeric_limits<signed char>::digits10
CONST	ENDS
;	COMDAT ?digits@?$numeric_limits@C@std@@2HB
CONST	SEGMENT
?digits@?$numeric_limits@C@std@@2HB DD 07H		; std::numeric_limits<signed char>::digits
CONST	ENDS
;	COMDAT ?is_signed@?$numeric_limits@C@std@@2_NB
CONST	SEGMENT
?is_signed@?$numeric_limits@C@std@@2_NB DB 01H		; std::numeric_limits<signed char>::is_signed
CONST	ENDS
;	COMDAT ?value@?$_Sizeof@HU_Nil@std@@U12@U12@U12@U12@U12@U12@@std@@2IB
CONST	SEGMENT
?value@?$_Sizeof@HU_Nil@std@@U12@U12@U12@U12@U12@U12@@std@@2IB DD 01H ; std::_Sizeof<int,std::_Nil,std::_Nil,std::_Nil,std::_Nil,std::_Nil,std::_Nil,std::_Nil>::value
CONST	ENDS
;	COMDAT ?digits10@?$numeric_limits@_N@std@@2HB
CONST	SEGMENT
?digits10@?$numeric_limits@_N@std@@2HB DD 00H		; std::numeric_limits<bool>::digits10
CONST	ENDS
;	COMDAT ?digits@?$numeric_limits@_N@std@@2HB
CONST	SEGMENT
?digits@?$numeric_limits@_N@std@@2HB DD 01H		; std::numeric_limits<bool>::digits
CONST	ENDS
;	COMDAT ?is_signed@?$numeric_limits@_N@std@@2_NB
CONST	SEGMENT
?is_signed@?$numeric_limits@_N@std@@2_NB DB 00H		; std::numeric_limits<bool>::is_signed
CONST	ENDS
;	COMDAT ?is_modulo@?$numeric_limits@_N@std@@2_NB
CONST	SEGMENT
?is_modulo@?$numeric_limits@_N@std@@2_NB DB 00H		; std::numeric_limits<bool>::is_modulo
CONST	ENDS
;	COMDAT ?digits10@?$numeric_limits@_W@std@@2HB
CONST	SEGMENT
?digits10@?$numeric_limits@_W@std@@2HB DD 04H		; std::numeric_limits<wchar_t>::digits10
CONST	ENDS
;	COMDAT ?digits@?$numeric_limits@_W@std@@2HB
CONST	SEGMENT
?digits@?$numeric_limits@_W@std@@2HB DD 010H		; std::numeric_limits<wchar_t>::digits
CONST	ENDS
;	COMDAT ?is_signed@?$numeric_limits@_W@std@@2_NB
CONST	SEGMENT
?is_signed@?$numeric_limits@_W@std@@2_NB DB 00H		; std::numeric_limits<wchar_t>::is_signed
CONST	ENDS
;	COMDAT ?none@?$_Locbase@H@std@@2HB
CONST	SEGMENT
?none@?$_Locbase@H@std@@2HB DD 00H			; std::_Locbase<int>::none
CONST	ENDS
;	COMDAT ?all@?$_Locbase@H@std@@2HB
CONST	SEGMENT
?all@?$_Locbase@H@std@@2HB DD 03fH			; std::_Locbase<int>::all
CONST	ENDS
;	COMDAT ?messages@?$_Locbase@H@std@@2HB
CONST	SEGMENT
?messages@?$_Locbase@H@std@@2HB DD 020H			; std::_Locbase<int>::messages
CONST	ENDS
;	COMDAT ?time@?$_Locbase@H@std@@2HB
CONST	SEGMENT
?time@?$_Locbase@H@std@@2HB DD 010H			; std::_Locbase<int>::time
CONST	ENDS
;	COMDAT ?numeric@?$_Locbase@H@std@@2HB
CONST	SEGMENT
?numeric@?$_Locbase@H@std@@2HB DD 08H			; std::_Locbase<int>::numeric
CONST	ENDS
;	COMDAT ?monetary@?$_Locbase@H@std@@2HB
CONST	SEGMENT
?monetary@?$_Locbase@H@std@@2HB DD 04H			; std::_Locbase<int>::monetary
CONST	ENDS
;	COMDAT ?ctype@?$_Locbase@H@std@@2HB
CONST	SEGMENT
?ctype@?$_Locbase@H@std@@2HB DD 02H			; std::_Locbase<int>::ctype
CONST	ENDS
;	COMDAT ?collate@?$_Locbase@H@std@@2HB
CONST	SEGMENT
?collate@?$_Locbase@H@std@@2HB DD 01H			; std::_Locbase<int>::collate
CONST	ENDS
;	COMDAT _IID_IAxWinAmbientDispatch
CONST	SEGMENT
_IID_IAxWinAmbientDispatch DD 0b6ea2051H
	DW	048aH
	DW	011d1H
	DB	082H
	DB	0b9H
	DB	00H
	DB	0c0H
	DB	04fH
	DB	0b9H
	DB	094H
	DB	02eH
CONST	ENDS
;	COMDAT ?digits10@?$numeric_limits@D@std@@2HB
CONST	SEGMENT
?digits10@?$numeric_limits@D@std@@2HB DD 02H		; std::numeric_limits<char>::digits10
CONST	ENDS
;	COMDAT ?digits@?$numeric_limits@D@std@@2HB
CONST	SEGMENT
?digits@?$numeric_limits@D@std@@2HB DD 07H		; std::numeric_limits<char>::digits
CONST	ENDS
;	COMDAT ?is_signed@?$numeric_limits@D@std@@2_NB
CONST	SEGMENT
?is_signed@?$numeric_limits@D@std@@2_NB DB 01H		; std::numeric_limits<char>::is_signed
CONST	ENDS
;	COMDAT ??_C@_06JBKGCNBB@Delete?$AA@
CONST	SEGMENT
??_C@_06JBKGCNBB@Delete?$AA@ DB 'Delete', 00H		; `string'
CONST	ENDS
;	COMDAT ?radix@_Num_float_base@std@@2HB
CONST	SEGMENT
?radix@_Num_float_base@std@@2HB DD 02H			; std::_Num_float_base::radix
CONST	ENDS
;	COMDAT ?szDelete@ATL@@3QBDB
CONST	SEGMENT
?szDelete@ATL@@3QBDB DD FLAT:??_C@_06JBKGCNBB@Delete?$AA@ ; ATL::szDelete
CONST	ENDS
;	COMDAT ??_C@_08KAAPDIAN@NoRemove?$AA@
CONST	SEGMENT
??_C@_08KAAPDIAN@NoRemove?$AA@ DB 'NoRemove', 00H	; `string'
CONST	ENDS
;	COMDAT ?szNoRemove@ATL@@3QBDB
CONST	SEGMENT
?szNoRemove@ATL@@3QBDB DD FLAT:??_C@_08KAAPDIAN@NoRemove?$AA@ ; ATL::szNoRemove
CONST	ENDS
;	COMDAT ?round_style@_Num_float_base@std@@2W4float_round_style@2@B
CONST	SEGMENT
?round_style@_Num_float_base@std@@2W4float_round_style@2@B DD 01H ; std::_Num_float_base::round_style
CONST	ENDS
;	COMDAT ??_C@_0M@DBGDLGLL@ForceRemove?$AA@
CONST	SEGMENT
??_C@_0M@DBGDLGLL@ForceRemove?$AA@ DB 'ForceRemove', 00H ; `string'
CONST	ENDS
;	COMDAT ?szForceRemove@ATL@@3QBDB
CONST	SEGMENT
?szForceRemove@ATL@@3QBDB DD FLAT:??_C@_0M@DBGDLGLL@ForceRemove?$AA@ ; ATL::szForceRemove
CONST	ENDS
;	COMDAT ??_C@_03LAIAPFCB@Val?$AA@
CONST	SEGMENT
??_C@_03LAIAPFCB@Val?$AA@ DB 'Val', 00H			; `string'
CONST	ENDS
;	COMDAT ?traps@_Num_float_base@std@@2_NB
CONST	SEGMENT
?traps@_Num_float_base@std@@2_NB DB 00H			; std::_Num_float_base::traps
CONST	ENDS
;	COMDAT ?szValToken@ATL@@3QBDB
CONST	SEGMENT
?szValToken@ATL@@3QBDB DD FLAT:??_C@_03LAIAPFCB@Val?$AA@ ; ATL::szValToken
CONST	ENDS
;	COMDAT ??_C@_01HMGJMAIH@B?$AA@
CONST	SEGMENT
??_C@_01HMGJMAIH@B?$AA@ DB 'B', 00H			; `string'
CONST	ENDS
;	COMDAT ?szBinaryVal@ATL@@3QBDB
CONST	SEGMENT
?szBinaryVal@ATL@@3QBDB DD FLAT:??_C@_01HMGJMAIH@B?$AA@	; ATL::szBinaryVal
CONST	ENDS
;	COMDAT ?tinyness_before@_Num_float_base@std@@2_NB
CONST	SEGMENT
?tinyness_before@_Num_float_base@std@@2_NB DB 01H	; std::_Num_float_base::tinyness_before
CONST	ENDS
;	COMDAT ??_C@_01CKDDGHAB@D?$AA@
CONST	SEGMENT
??_C@_01CKDDGHAB@D?$AA@ DB 'D', 00H			; `string'
CONST	ENDS
;	COMDAT ?szDwordVal@ATL@@3QBDB
CONST	SEGMENT
?szDwordVal@ATL@@3QBDB DD FLAT:??_C@_01CKDDGHAB@D?$AA@	; ATL::szDwordVal
CONST	ENDS
;	COMDAT ??_C@_01PLPBNMEI@M?$AA@
CONST	SEGMENT
??_C@_01PLPBNMEI@M?$AA@ DB 'M', 00H			; `string'
CONST	ENDS
;	COMDAT ?is_specialized@_Num_float_base@std@@2_NB
CONST	SEGMENT
?is_specialized@_Num_float_base@std@@2_NB DB 01H	; std::_Num_float_base::is_specialized
CONST	ENDS
;	COMDAT _IID_IAxWinHostWindowLic
CONST	SEGMENT
_IID_IAxWinHostWindowLic DD 03935bda8H
	DW	04ed9H
	DW	0495cH
	DB	086H
	DB	050H
	DB	0e0H
	DB	01fH
	DB	0c1H
	DB	0e3H
	DB	08aH
	DB	04bH
CONST	ENDS
;	COMDAT ?multiszStringVal@ATL@@3QBDB
CONST	SEGMENT
?multiszStringVal@ATL@@3QBDB DD FLAT:??_C@_01PLPBNMEI@M?$AA@ ; ATL::multiszStringVal
CONST	ENDS
;	COMDAT ??_C@_01CPLAODJH@S?$AA@
CONST	SEGMENT
??_C@_01CPLAODJH@S?$AA@ DB 'S', 00H			; `string'
CONST	ENDS
;	COMDAT ?szStringVal@ATL@@3QBDB
CONST	SEGMENT
?szStringVal@ATL@@3QBDB DD FLAT:??_C@_01CPLAODJH@S?$AA@	; ATL::szStringVal
CONST	ENDS
;	COMDAT ?is_signed@_Num_float_base@std@@2_NB
CONST	SEGMENT
?is_signed@_Num_float_base@std@@2_NB DB 01H		; std::_Num_float_base::is_signed
CONST	ENDS
;	COMDAT ?chEquals@ATL@@3DB
CONST	SEGMENT
?chEquals@ATL@@3DB DB 03dH				; ATL::chEquals
CONST	ENDS
;	COMDAT ?chQuote@ATL@@3DB
CONST	SEGMENT
?chQuote@ATL@@3DB DB 027H				; ATL::chQuote
CONST	ENDS
;	COMDAT ?chLeftBracket@ATL@@3DB
CONST	SEGMENT
?chLeftBracket@ATL@@3DB DB 07bH				; ATL::chLeftBracket
CONST	ENDS
;	COMDAT ?is_modulo@_Num_float_base@std@@2_NB
CONST	SEGMENT
?is_modulo@_Num_float_base@std@@2_NB DB 00H		; std::_Num_float_base::is_modulo
CONST	ENDS
;	COMDAT ?chRightBracket@ATL@@3DB
CONST	SEGMENT
?chRightBracket@ATL@@3DB DB 07dH			; ATL::chRightBracket
CONST	ENDS
;	COMDAT ?chDirSep@ATL@@3DB
CONST	SEGMENT
?chDirSep@ATL@@3DB DB 05cH				; ATL::chDirSep
CONST	ENDS
;	COMDAT ?is_integer@_Num_float_base@std@@2_NB
CONST	SEGMENT
?is_integer@_Num_float_base@std@@2_NB DB 00H		; std::_Num_float_base::is_integer
CONST	ENDS
;	COMDAT ?is_iec559@_Num_float_base@std@@2_NB
CONST	SEGMENT
?is_iec559@_Num_float_base@std@@2_NB DB 01H		; std::_Num_float_base::is_iec559
CONST	ENDS
;	COMDAT ?is_exact@_Num_float_base@std@@2_NB
CONST	SEGMENT
?is_exact@_Num_float_base@std@@2_NB DB 00H		; std::_Num_float_base::is_exact
CONST	ENDS
;	COMDAT ?is_bounded@_Num_float_base@std@@2_NB
CONST	SEGMENT
?is_bounded@_Num_float_base@std@@2_NB DB 01H		; std::_Num_float_base::is_bounded
CONST	ENDS
;	COMDAT ?has_signaling_NaN@_Num_float_base@std@@2_NB
CONST	SEGMENT
?has_signaling_NaN@_Num_float_base@std@@2_NB DB 01H	; std::_Num_float_base::has_signaling_NaN
CONST	ENDS
;	COMDAT ?has_quiet_NaN@_Num_float_base@std@@2_NB
CONST	SEGMENT
?has_quiet_NaN@_Num_float_base@std@@2_NB DB 01H		; std::_Num_float_base::has_quiet_NaN
CONST	ENDS
;	COMDAT ?has_infinity@_Num_float_base@std@@2_NB
CONST	SEGMENT
?has_infinity@_Num_float_base@std@@2_NB DB 01H		; std::_Num_float_base::has_infinity
CONST	ENDS
;	COMDAT ?has_denorm_loss@_Num_float_base@std@@2_NB
CONST	SEGMENT
?has_denorm_loss@_Num_float_base@std@@2_NB DB 01H	; std::_Num_float_base::has_denorm_loss
CONST	ENDS
;	COMDAT ?has_denorm@_Num_float_base@std@@2W4float_denorm_style@2@B
CONST	SEGMENT
?has_denorm@_Num_float_base@std@@2W4float_denorm_style@2@B DD 01H ; std::_Num_float_base::has_denorm
CONST	ENDS
CONST	SEGMENT
_L_2	DD	03f317218r			; 0.693147
CONST	ENDS
;	COMDAT ?radix@_Num_int_base@std@@2HB
CONST	SEGMENT
?radix@_Num_int_base@std@@2HB DD 02H			; std::_Num_int_base::radix
CONST	ENDS
;	COMDAT ?is_specialized@_Num_int_base@std@@2_NB
CONST	SEGMENT
?is_specialized@_Num_int_base@std@@2_NB DB 01H		; std::_Num_int_base::is_specialized
CONST	ENDS
;	COMDAT ?is_modulo@_Num_int_base@std@@2_NB
CONST	SEGMENT
?is_modulo@_Num_int_base@std@@2_NB DB 01H		; std::_Num_int_base::is_modulo
CONST	ENDS
;	COMDAT ?is_integer@_Num_int_base@std@@2_NB
CONST	SEGMENT
?is_integer@_Num_int_base@std@@2_NB DB 01H		; std::_Num_int_base::is_integer
CONST	ENDS
;	COMDAT ?is_exact@_Num_int_base@std@@2_NB
CONST	SEGMENT
?is_exact@_Num_int_base@std@@2_NB DB 01H		; std::_Num_int_base::is_exact
CONST	ENDS
;	COMDAT ?pmField@?$CVarTypeInfo@PATtagCY@@@ATL@@2QQtagVARIANT@@PATtagCY@@Q3@
CONST	SEGMENT
?pmField@?$CVarTypeInfo@PATtagCY@@@ATL@@2QQtagVARIANT@@PATtagCY@@Q3@ DD 08H ; ATL::CVarTypeInfo<tagCY *>::pmField
CONST	ENDS
;	COMDAT ?is_bounded@_Num_int_base@std@@2_NB
CONST	SEGMENT
?is_bounded@_Num_int_base@std@@2_NB DB 01H		; std::_Num_int_base::is_bounded
CONST	ENDS
;	COMDAT ?VT@?$CVarTypeInfo@PATtagCY@@@ATL@@2GB
CONST	SEGMENT
?VT@?$CVarTypeInfo@PATtagCY@@@ATL@@2GB DW 04006H	; ATL::CVarTypeInfo<tagCY *>::VT
CONST	ENDS
;	COMDAT ??_C@_05PDIKPLII@AppID?$AA@
CONST	SEGMENT
??_C@_05PDIKPLII@AppID?$AA@ DB 'AppID', 00H		; `string'
CONST	ENDS
;	COMDAT ?pmField@?$CVarTypeInfo@TtagCY@@@ATL@@2QQtagVARIANT@@TtagCY@@Q3@
CONST	SEGMENT
?pmField@?$CVarTypeInfo@TtagCY@@@ATL@@2QQtagVARIANT@@TtagCY@@Q3@ DD 08H ; ATL::CVarTypeInfo<tagCY>::pmField
CONST	ENDS
;	COMDAT ?VT@?$CVarTypeInfo@TtagCY@@@ATL@@2GB
CONST	SEGMENT
?VT@?$CVarTypeInfo@TtagCY@@@ATL@@2GB DW 06H		; ATL::CVarTypeInfo<tagCY>::VT
CONST	ENDS
;	COMDAT ?pmField@?$CVarTypeInfo@PAPAUIDispatch@@@ATL@@2QQtagVARIANT@@PAPAUIDispatch@@Q3@
CONST	SEGMENT
?pmField@?$CVarTypeInfo@PAPAUIDispatch@@@ATL@@2QQtagVARIANT@@PAPAUIDispatch@@Q3@ DD 08H ; ATL::CVarTypeInfo<IDispatch * *>::pmField
CONST	ENDS
;	COMDAT ?VT@?$CVarTypeInfo@PAPAUIDispatch@@@ATL@@2GB
CONST	SEGMENT
?VT@?$CVarTypeInfo@PAPAUIDispatch@@@ATL@@2GB DW 04009H	; ATL::CVarTypeInfo<IDispatch * *>::VT
CONST	ENDS
;	COMDAT _IID_IAxWinHostWindow
CONST	SEGMENT
_IID_IAxWinHostWindow DD 0b6ea2050H
	DW	048aH
	DW	011d1H
	DB	082H
	DB	0b9H
	DB	00H
	DB	0c0H
	DB	04fH
	DB	0b9H
	DB	094H
	DB	02eH
CONST	ENDS
;	COMDAT ?radix@_Num_base@std@@2HB
CONST	SEGMENT
?radix@_Num_base@std@@2HB DD 00H			; std::_Num_base::radix
CONST	ENDS
;	COMDAT ?min_exponent10@_Num_base@std@@2HB
CONST	SEGMENT
?min_exponent10@_Num_base@std@@2HB DD 00H		; std::_Num_base::min_exponent10
CONST	ENDS
;	COMDAT ??_C@_05GIBEAPNE@CLSID?$AA@
CONST	SEGMENT
??_C@_05GIBEAPNE@CLSID?$AA@ DB 'CLSID', 00H		; `string'
CONST	ENDS
;	COMDAT ?min_exponent@_Num_base@std@@2HB
CONST	SEGMENT
?min_exponent@_Num_base@std@@2HB DD 00H			; std::_Num_base::min_exponent
CONST	ENDS
;	COMDAT ?pmField@?$CVarTypeInfo@PAUIDispatch@@@ATL@@2QQtagVARIANT@@PAUIDispatch@@Q3@
CONST	SEGMENT
?pmField@?$CVarTypeInfo@PAUIDispatch@@@ATL@@2QQtagVARIANT@@PAUIDispatch@@Q3@ DD 08H ; ATL::CVarTypeInfo<IDispatch *>::pmField
CONST	ENDS
;	COMDAT ?max_exponent10@_Num_base@std@@2HB
CONST	SEGMENT
?max_exponent10@_Num_base@std@@2HB DD 00H		; std::_Num_base::max_exponent10
CONST	ENDS
;	COMDAT ?VT@?$CVarTypeInfo@PAUIDispatch@@@ATL@@2GB
CONST	SEGMENT
?VT@?$CVarTypeInfo@PAUIDispatch@@@ATL@@2GB DW 09H	; ATL::CVarTypeInfo<IDispatch *>::VT
CONST	ENDS
;	COMDAT ?max_exponent@_Num_base@std@@2HB
CONST	SEGMENT
?max_exponent@_Num_base@std@@2HB DD 00H			; std::_Num_base::max_exponent
CONST	ENDS
;	COMDAT __GUID_0000010c_0000_0000_c000_000000000046
CONST	SEGMENT
__GUID_0000010c_0000_0000_c000_000000000046 DD 010cH
	DW	00H
	DW	00H
	DB	0c0H
	DB	00H
	DB	00H
	DB	00H
	DB	00H
	DB	00H
	DB	00H
	DB	046H
CONST	ENDS
;	COMDAT ?max_digits10@_Num_base@std@@2HB
CONST	SEGMENT
?max_digits10@_Num_base@std@@2HB DD 00H			; std::_Num_base::max_digits10
CONST	ENDS
;	COMDAT ?digits10@_Num_base@std@@2HB
CONST	SEGMENT
?digits10@_Num_base@std@@2HB DD 00H			; std::_Num_base::digits10
CONST	ENDS
;	COMDAT ?digits@_Num_base@std@@2HB
CONST	SEGMENT
?digits@_Num_base@std@@2HB DD 00H			; std::_Num_base::digits
CONST	ENDS
;	COMDAT ?pmField@?$CVarTypeInfo@PAPAUIUnknown@@@ATL@@2QQtagVARIANT@@PAPAUIUnknown@@Q3@
CONST	SEGMENT
?pmField@?$CVarTypeInfo@PAPAUIUnknown@@@ATL@@2QQtagVARIANT@@PAPAUIUnknown@@Q3@ DD 08H ; ATL::CVarTypeInfo<IUnknown * *>::pmField
CONST	ENDS
;	COMDAT ?VT@?$CVarTypeInfo@PAPAUIUnknown@@@ATL@@2GB
CONST	SEGMENT
?VT@?$CVarTypeInfo@PAPAUIUnknown@@@ATL@@2GB DW 0400dH	; ATL::CVarTypeInfo<IUnknown * *>::VT
CONST	ENDS
;	COMDAT ?round_style@_Num_base@std@@2W4float_round_style@2@B
CONST	SEGMENT
?round_style@_Num_base@std@@2W4float_round_style@2@B DD 00H ; std::_Num_base::round_style
CONST	ENDS
;	COMDAT ?traps@_Num_base@std@@2_NB
CONST	SEGMENT
?traps@_Num_base@std@@2_NB DB 00H			; std::_Num_base::traps
CONST	ENDS
;	COMDAT ?tinyness_before@_Num_base@std@@2_NB
CONST	SEGMENT
?tinyness_before@_Num_base@std@@2_NB DB 00H		; std::_Num_base::tinyness_before
CONST	ENDS
;	COMDAT ?is_specialized@_Num_base@std@@2_NB
CONST	SEGMENT
?is_specialized@_Num_base@std@@2_NB DB 00H		; std::_Num_base::is_specialized
CONST	ENDS
;	COMDAT ?pmField@?$CVarTypeInfo@PAUIUnknown@@@ATL@@2QQtagVARIANT@@PAUIUnknown@@Q3@
CONST	SEGMENT
?pmField@?$CVarTypeInfo@PAUIUnknown@@@ATL@@2QQtagVARIANT@@PAUIUnknown@@Q3@ DD 08H ; ATL::CVarTypeInfo<IUnknown *>::pmField
CONST	ENDS
;	COMDAT ?is_signed@_Num_base@std@@2_NB
CONST	SEGMENT
?is_signed@_Num_base@std@@2_NB DB 00H			; std::_Num_base::is_signed
CONST	ENDS
;	COMDAT ?VT@?$CVarTypeInfo@PAUIUnknown@@@ATL@@2GB
CONST	SEGMENT
?VT@?$CVarTypeInfo@PAUIUnknown@@@ATL@@2GB DW 0dH	; ATL::CVarTypeInfo<IUnknown *>::VT
CONST	ENDS
;	COMDAT ?is_modulo@_Num_base@std@@2_NB
CONST	SEGMENT
?is_modulo@_Num_base@std@@2_NB DB 00H			; std::_Num_base::is_modulo
CONST	ENDS
;	COMDAT ?is_integer@_Num_base@std@@2_NB
CONST	SEGMENT
?is_integer@_Num_base@std@@2_NB DB 00H			; std::_Num_base::is_integer
CONST	ENDS
;	COMDAT ?is_iec559@_Num_base@std@@2_NB
CONST	SEGMENT
?is_iec559@_Num_base@std@@2_NB DB 00H			; std::_Num_base::is_iec559
CONST	ENDS
;	COMDAT ?pmField@?$CVarTypeInfo@PAPA_W@ATL@@2QQtagVARIANT@@PAPA_WQ3@
CONST	SEGMENT
?pmField@?$CVarTypeInfo@PAPA_W@ATL@@2QQtagVARIANT@@PAPA_WQ3@ DD 08H ; ATL::CVarTypeInfo<wchar_t * *>::pmField
CONST	ENDS
;	COMDAT ?is_exact@_Num_base@std@@2_NB
CONST	SEGMENT
?is_exact@_Num_base@std@@2_NB DB 00H			; std::_Num_base::is_exact
CONST	ENDS
;	COMDAT ?VT@?$CVarTypeInfo@PAPA_W@ATL@@2GB
CONST	SEGMENT
?VT@?$CVarTypeInfo@PAPA_W@ATL@@2GB DW 04008H		; ATL::CVarTypeInfo<wchar_t * *>::VT
CONST	ENDS
;	COMDAT ?is_bounded@_Num_base@std@@2_NB
CONST	SEGMENT
?is_bounded@_Num_base@std@@2_NB DB 00H			; std::_Num_base::is_bounded
CONST	ENDS
;	COMDAT ?has_signaling_NaN@_Num_base@std@@2_NB
CONST	SEGMENT
?has_signaling_NaN@_Num_base@std@@2_NB DB 00H		; std::_Num_base::has_signaling_NaN
CONST	ENDS
;	COMDAT ?has_quiet_NaN@_Num_base@std@@2_NB
CONST	SEGMENT
?has_quiet_NaN@_Num_base@std@@2_NB DB 00H		; std::_Num_base::has_quiet_NaN
CONST	ENDS
;	COMDAT ?has_infinity@_Num_base@std@@2_NB
CONST	SEGMENT
?has_infinity@_Num_base@std@@2_NB DB 00H		; std::_Num_base::has_infinity
CONST	ENDS
;	COMDAT ?pmField@?$CVarTypeInfo@PA_W@ATL@@2QQtagVARIANT@@PA_WQ3@
CONST	SEGMENT
?pmField@?$CVarTypeInfo@PA_W@ATL@@2QQtagVARIANT@@PA_WQ3@ DD 08H ; ATL::CVarTypeInfo<wchar_t *>::pmField
CONST	ENDS
;	COMDAT ?VT@?$CVarTypeInfo@PA_W@ATL@@2GB
CONST	SEGMENT
?VT@?$CVarTypeInfo@PA_W@ATL@@2GB DW 08H			; ATL::CVarTypeInfo<wchar_t *>::VT
CONST	ENDS
;	COMDAT ?has_denorm_loss@_Num_base@std@@2_NB
CONST	SEGMENT
?has_denorm_loss@_Num_base@std@@2_NB DB 00H		; std::_Num_base::has_denorm_loss
CONST	ENDS
;	COMDAT __GUID_0002e012_0000_0000_c000_000000000046
CONST	SEGMENT
__GUID_0002e012_0000_0000_c000_000000000046 DD 02e012H
	DW	00H
	DW	00H
	DB	0c0H
	DB	00H
	DB	00H
	DB	00H
	DB	00H
	DB	00H
	DB	00H
	DB	046H
CONST	ENDS
;	COMDAT ?has_denorm@_Num_base@std@@2W4float_denorm_style@2@B
CONST	SEGMENT
?has_denorm@_Num_base@std@@2W4float_denorm_style@2@B DD 00H ; std::_Num_base::has_denorm
CONST	ENDS
;	COMDAT ?VT@?$CVarTypeInfo@PAUtagVARIANT@@@ATL@@2GB
CONST	SEGMENT
?VT@?$CVarTypeInfo@PAUtagVARIANT@@@ATL@@2GB DW 0400cH	; ATL::CVarTypeInfo<tagVARIANT *>::VT
CONST	ENDS
;	COMDAT ?pmField@?$CVarTypeInfo@PAN@ATL@@2QQtagVARIANT@@PANQ3@
CONST	SEGMENT
?pmField@?$CVarTypeInfo@PAN@ATL@@2QQtagVARIANT@@PANQ3@ DD 08H ; ATL::CVarTypeInfo<double *>::pmField
CONST	ENDS
;	COMDAT ?VT@?$CVarTypeInfo@PAN@ATL@@2GB
CONST	SEGMENT
?VT@?$CVarTypeInfo@PAN@ATL@@2GB DW 04005H		; ATL::CVarTypeInfo<double *>::VT
CONST	ENDS
;	COMDAT ?pmField@?$CVarTypeInfo@N@ATL@@2QQtagVARIANT@@NQ3@
CONST	SEGMENT
?pmField@?$CVarTypeInfo@N@ATL@@2QQtagVARIANT@@NQ3@ DD 08H ; ATL::CVarTypeInfo<double>::pmField
CONST	ENDS
;	COMDAT ?VT@?$CVarTypeInfo@N@ATL@@2GB
CONST	SEGMENT
?VT@?$CVarTypeInfo@N@ATL@@2GB DW 05H			; ATL::CVarTypeInfo<double>::VT
CONST	ENDS
;	COMDAT ?pmField@?$CVarTypeInfo@PAM@ATL@@2QQtagVARIANT@@PAMQ3@
CONST	SEGMENT
?pmField@?$CVarTypeInfo@PAM@ATL@@2QQtagVARIANT@@PAMQ3@ DD 08H ; ATL::CVarTypeInfo<float *>::pmField
CONST	ENDS
;	COMDAT __GUID_00020400_0000_0000_c000_000000000046
CONST	SEGMENT
__GUID_00020400_0000_0000_c000_000000000046 DD 020400H
	DW	00H
	DW	00H
	DB	0c0H
	DB	00H
	DB	00H
	DB	00H
	DB	00H
	DB	00H
	DB	00H
	DB	046H
CONST	ENDS
;	COMDAT ?VT@?$CVarTypeInfo@PAM@ATL@@2GB
CONST	SEGMENT
?VT@?$CVarTypeInfo@PAM@ATL@@2GB DW 04004H		; ATL::CVarTypeInfo<float *>::VT
CONST	ENDS
;	COMDAT __GUID_a6bc3ac0_dbaa_11ce_9de3_00aa004bb851
CONST	SEGMENT
__GUID_a6bc3ac0_dbaa_11ce_9de3_00aa004bb851 DD 0a6bc3ac0H
	DW	0dbaaH
	DW	011ceH
	DB	09dH
	DB	0e3H
	DB	00H
	DB	0aaH
	DB	00H
	DB	04bH
	DB	0b8H
	DB	051H
CONST	ENDS
;	COMDAT ?pmField@?$CVarTypeInfo@M@ATL@@2QQtagVARIANT@@MQ3@
CONST	SEGMENT
?pmField@?$CVarTypeInfo@M@ATL@@2QQtagVARIANT@@MQ3@ DD 08H ; ATL::CVarTypeInfo<float>::pmField
CONST	ENDS
;	COMDAT ?VT@?$CVarTypeInfo@M@ATL@@2GB
CONST	SEGMENT
?VT@?$CVarTypeInfo@M@ATL@@2GB DW 04H			; ATL::CVarTypeInfo<float>::VT
CONST	ENDS
;	COMDAT __GUID_00000000_0000_0000_c000_000000000046
CONST	SEGMENT
__GUID_00000000_0000_0000_c000_000000000046 DD 00H
	DW	00H
	DW	00H
	DB	0c0H
	DB	00H
	DB	00H
	DB	00H
	DB	00H
	DB	00H
	DB	00H
	DB	046H
CONST	ENDS
;	COMDAT ?pmField@?$CVarTypeInfo@PA_K@ATL@@2QQtagVARIANT@@PA_KQ3@
CONST	SEGMENT
?pmField@?$CVarTypeInfo@PA_K@ATL@@2QQtagVARIANT@@PA_KQ3@ DD 08H ; ATL::CVarTypeInfo<unsigned __int64 *>::pmField
CONST	ENDS
;	COMDAT ?VT@?$CVarTypeInfo@PA_K@ATL@@2GB
CONST	SEGMENT
?VT@?$CVarTypeInfo@PA_K@ATL@@2GB DW 04015H		; ATL::CVarTypeInfo<unsigned __int64 *>::VT
CONST	ENDS
;	COMDAT ??_C@_07KJLOKDKB@TypeLib?$AA@
CONST	SEGMENT
??_C@_07KJLOKDKB@TypeLib?$AA@ DB 'TypeLib', 00H		; `string'
CONST	ENDS
;	COMDAT ??_C@_08KEKAJNJI@Software?$AA@
CONST	SEGMENT
??_C@_08KEKAJNJI@Software?$AA@ DB 'Software', 00H	; `string'
CONST	ENDS
;	COMDAT ??_C@_06FDHFNJBJ@SYSTEM?$AA@
CONST	SEGMENT
??_C@_06FDHFNJBJ@SYSTEM?$AA@ DB 'SYSTEM', 00H		; `string'
CONST	ENDS
;	COMDAT ??_C@_08LOPHEHKG@SECURITY?$AA@
CONST	SEGMENT
??_C@_08LOPHEHKG@SECURITY?$AA@ DB 'SECURITY', 00H	; `string'
CONST	ENDS
;	COMDAT ??_C@_03DDIMFGBA@SAM?$AA@
CONST	SEGMENT
??_C@_03DDIMFGBA@SAM?$AA@ DB 'SAM', 00H			; `string'
CONST	ENDS
;	COMDAT ??_C@_04IHBFOLAC@Mime?$AA@
CONST	SEGMENT
??_C@_04IHBFOLAC@Mime?$AA@ DB 'Mime', 00H		; `string'
CONST	ENDS
;	COMDAT ??_C@_08PPIOJEA@Hardware?$AA@
CONST	SEGMENT
??_C@_08PPIOJEA@Hardware?$AA@ DB 'Hardware', 00H	; `string'
CONST	ENDS
;	COMDAT ??_C@_09JKPGEJCH@Interface?$AA@
CONST	SEGMENT
??_C@_09JKPGEJCH@Interface?$AA@ DB 'Interface', 00H	; `string'
CONST	ENDS
;	COMDAT ??_C@_08PICKODJL@FileType?$AA@
CONST	SEGMENT
??_C@_08PICKODJL@FileType?$AA@ DB 'FileType', 00H	; `string'
CONST	ENDS
;	COMDAT ?pmField@?$CVarTypeInfo@_K@ATL@@2QQtagVARIANT@@_KQ3@
CONST	SEGMENT
?pmField@?$CVarTypeInfo@_K@ATL@@2QQtagVARIANT@@_KQ3@ DD 08H ; ATL::CVarTypeInfo<unsigned __int64>::pmField
CONST	ENDS
;	COMDAT ??_C@_0BF@HDDNNDFH@Component?5Categories?$AA@
CONST	SEGMENT
??_C@_0BF@HDDNNDFH@Component?5Categories?$AA@ DB 'Component Categories', 00H ; `string'
CONST	ENDS
;	COMDAT ?VT@?$CVarTypeInfo@_K@ATL@@2GB
CONST	SEGMENT
?VT@?$CVarTypeInfo@_K@ATL@@2GB DW 015H			; ATL::CVarTypeInfo<unsigned __int64>::VT
CONST	ENDS
;	COMDAT ?_Stream_err@failure@ios_base@std@@0W4io_errc@43@B
CONST	SEGMENT
?_Stream_err@failure@ios_base@std@@0W4io_errc@43@B DD 01H ; std::ios_base::failure::_Stream_err
CONST	ENDS
;	COMDAT ?value@?$_Sizeof@U_Nil@std@@U12@U12@U12@U12@U12@U12@U12@@std@@2IB
CONST	SEGMENT
?value@?$_Sizeof@U_Nil@std@@U12@U12@U12@U12@U12@U12@U12@@std@@2IB DD 00H ; std::_Sizeof<std::_Nil,std::_Nil,std::_Nil,std::_Nil,std::_Nil,std::_Nil,std::_Nil,std::_Nil>::value
CONST	ENDS
;	COMDAT ?pmField@?$CVarTypeInfo@PA_J@ATL@@2QQtagVARIANT@@PA_JQ3@
CONST	SEGMENT
?pmField@?$CVarTypeInfo@PA_J@ATL@@2QQtagVARIANT@@PA_JQ3@ DD 08H ; ATL::CVarTypeInfo<__int64 *>::pmField
CONST	ENDS
;	COMDAT ?VT@?$CVarTypeInfo@PA_J@ATL@@2GB
CONST	SEGMENT
?VT@?$CVarTypeInfo@PA_J@ATL@@2GB DW 04014H		; ATL::CVarTypeInfo<__int64 *>::VT
CONST	ENDS
;	COMDAT ___pobjMapEntryLast
ATL$__z	SEGMENT
___pobjMapEntryLast DD 00H
ATL$__z	ENDS
;	COMDAT ___pobjMapEntryFirst
ATL$__a	SEGMENT
___pobjMapEntryFirst DD 00H
ATL$__a	ENDS
;	COMDAT ?pmField@?$CVarTypeInfo@_J@ATL@@2QQtagVARIANT@@_JQ3@
CONST	SEGMENT
?pmField@?$CVarTypeInfo@_J@ATL@@2QQtagVARIANT@@_JQ3@ DD 08H ; ATL::CVarTypeInfo<__int64>::pmField
CONST	ENDS
;	COMDAT ?VT@?$CVarTypeInfo@_J@ATL@@2GB
CONST	SEGMENT
?VT@?$CVarTypeInfo@_J@ATL@@2GB DW 014H			; ATL::CVarTypeInfo<__int64>::VT
CONST	ENDS
;	COMDAT ?end@?$_Iosb@H@std@@2W4_Seekdir@12@B
CONST	SEGMENT
?end@?$_Iosb@H@std@@2W4_Seekdir@12@B DD 02H		; std::_Iosb<int>::end
CONST	ENDS
;	COMDAT ?cur@?$_Iosb@H@std@@2W4_Seekdir@12@B
CONST	SEGMENT
?cur@?$_Iosb@H@std@@2W4_Seekdir@12@B DD 01H		; std::_Iosb<int>::cur
CONST	ENDS
;	COMDAT ?pmField@?$CVarTypeInfo@PAK@ATL@@2QQtagVARIANT@@PAKQ3@
CONST	SEGMENT
?pmField@?$CVarTypeInfo@PAK@ATL@@2QQtagVARIANT@@PAKQ3@ DD 08H ; ATL::CVarTypeInfo<unsigned long *>::pmField
CONST	ENDS
;	COMDAT ?beg@?$_Iosb@H@std@@2W4_Seekdir@12@B
CONST	SEGMENT
?beg@?$_Iosb@H@std@@2W4_Seekdir@12@B DD 00H		; std::_Iosb<int>::beg
CONST	ENDS
PUBLIC	??2@YAPAXIPAX@Z					; operator new
PUBLIC	??3@YAXPAX0@Z					; operator delete
PUBLIC	??1CComBSTR@ATL@@QAE@XZ				; ATL::CComBSTR::~CComBSTR
PUBLIC	??1stringdispid@CComTypeInfoHolder@ATL@@QAE@XZ	; ATL::CComTypeInfoHolder::stringdispid::~stringdispid
PUBLIC	??_Estringdispid@CComTypeInfoHolder@ATL@@QAEPAXI@Z ; ATL::CComTypeInfoHolder::stringdispid::`vector deleting destructor'
PUBLIC	?length@?$char_traits@D@std@@SAIPBD@Z		; std::char_traits<char>::length
PUBLIC	?copy@?$char_traits@D@std@@SAPADPADPBDI@Z	; std::char_traits<char>::copy
PUBLIC	?move@?$char_traits@D@std@@SAPADPADPBDI@Z	; std::char_traits<char>::move
PUBLIC	?assign@?$char_traits@D@std@@SAXAADABD@Z	; std::char_traits<char>::assign
PUBLIC	??0?$allocator@D@std@@QAE@XZ			; std::allocator<char>::allocator<char>
PUBLIC	?deallocate@?$allocator@D@std@@QAEXPADI@Z	; std::allocator<char>::deallocate
PUBLIC	?allocate@?$allocator@D@std@@QAEPADI@Z		; std::allocator<char>::allocate
PUBLIC	?max_size@?$allocator@D@std@@QBEIXZ		; std::allocator<char>::max_size
PUBLIC	?max_size@?$allocator_traits@V?$allocator@D@std@@@std@@SAIABV?$allocator@D@2@@Z ; std::allocator_traits<std::allocator<char> >::max_size
PUBLIC	??0?$_Wrap_alloc@V?$allocator@D@std@@@std@@QAE@XZ ; std::_Wrap_alloc<std::allocator<char> >::_Wrap_alloc<std::allocator<char> >
PUBLIC	?allocate@?$_Wrap_alloc@V?$allocator@D@std@@@std@@QAEPADI@Z ; std::_Wrap_alloc<std::allocator<char> >::allocate
PUBLIC	?deallocate@?$_Wrap_alloc@V?$allocator@D@std@@@std@@QAEXPADI@Z ; std::_Wrap_alloc<std::allocator<char> >::deallocate
PUBLIC	?max_size@?$_Wrap_alloc@V?$allocator@D@std@@@std@@QBEIXZ ; std::_Wrap_alloc<std::allocator<char> >::max_size
PUBLIC	??0?$_String_val@U?$_Simple_types@D@std@@@std@@QAE@XZ ; std::_String_val<std::_Simple_types<char> >::_String_val<std::_Simple_types<char> >
PUBLIC	?_Myptr@?$_String_val@U?$_Simple_types@D@std@@@std@@QAEPADXZ ; std::_String_val<std::_Simple_types<char> >::_Myptr
PUBLIC	?_Myptr@?$_String_val@U?$_Simple_types@D@std@@@std@@QBEPBDXZ ; std::_String_val<std::_Simple_types<char> >::_Myptr
PUBLIC	??0?$_String_alloc@$0A@U?$_String_base_types@DV?$allocator@D@std@@@std@@@std@@QAE@ABV?$allocator@D@1@@Z ; std::_String_alloc<0,std::_String_base_types<char,std::allocator<char> > >::_String_alloc<0,std::_String_base_types<char,std::allocator<char> > >
PUBLIC	?_Getal@?$_String_alloc@$0A@U?$_String_base_types@DV?$allocator@D@std@@@std@@@std@@QBE?AU?$_Wrap_alloc@V?$allocator@D@std@@@2@XZ ; std::_String_alloc<0,std::_String_base_types<char,std::allocator<char> > >::_Getal
PUBLIC	??0?$basic_string@DU?$char_traits@D@std@@V?$allocator@D@2@@std@@QAE@PBD@Z ; std::basic_string<char,std::char_traits<char>,std::allocator<char> >::basic_string<char,std::char_traits<char>,std::allocator<char> >
PUBLIC	?assign@?$basic_string@DU?$char_traits@D@std@@V?$allocator@D@2@@std@@QAEAAV12@ABV12@II@Z ; std::basic_string<char,std::char_traits<char>,std::allocator<char> >::assign
PUBLIC	?assign@?$basic_string@DU?$char_traits@D@std@@V?$allocator@D@2@@std@@QAEAAV12@PBDI@Z ; std::basic_string<char,std::char_traits<char>,std::allocator<char> >::assign
PUBLIC	?assign@?$basic_string@DU?$char_traits@D@std@@V?$allocator@D@2@@std@@QAEAAV12@PBD@Z ; std::basic_string<char,std::char_traits<char>,std::allocator<char> >::assign
PUBLIC	?erase@?$basic_string@DU?$char_traits@D@std@@V?$allocator@D@2@@std@@QAEAAV12@I@Z ; std::basic_string<char,std::char_traits<char>,std::allocator<char> >::erase
PUBLIC	?erase@?$basic_string@DU?$char_traits@D@std@@V?$allocator@D@2@@std@@QAEAAV12@II@Z ; std::basic_string<char,std::char_traits<char>,std::allocator<char> >::erase
PUBLIC	?size@?$basic_string@DU?$char_traits@D@std@@V?$allocator@D@2@@std@@QBEIXZ ; std::basic_string<char,std::char_traits<char>,std::allocator<char> >::size
PUBLIC	?max_size@?$basic_string@DU?$char_traits@D@std@@V?$allocator@D@2@@std@@QBEIXZ ; std::basic_string<char,std::char_traits<char>,std::allocator<char> >::max_size
PUBLIC	?_Copy@?$basic_string@DU?$char_traits@D@std@@V?$allocator@D@2@@std@@QAEXII@Z ; std::basic_string<char,std::char_traits<char>,std::allocator<char> >::_Copy
PUBLIC	?_Eos@?$basic_string@DU?$char_traits@D@std@@V?$allocator@D@2@@std@@QAEXI@Z ; std::basic_string<char,std::char_traits<char>,std::allocator<char> >::_Eos
PUBLIC	?_Grow@?$basic_string@DU?$char_traits@D@std@@V?$allocator@D@2@@std@@QAE_NI_N@Z ; std::basic_string<char,std::char_traits<char>,std::allocator<char> >::_Grow
PUBLIC	?_Inside@?$basic_string@DU?$char_traits@D@std@@V?$allocator@D@2@@std@@QAE_NPBD@Z ; std::basic_string<char,std::char_traits<char>,std::allocator<char> >::_Inside
PUBLIC	?_Tidy@?$basic_string@DU?$char_traits@D@std@@V?$allocator@D@2@@std@@QAEX_NI@Z ; std::basic_string<char,std::char_traits<char>,std::allocator<char> >::_Tidy
PUBLIC	?_Xlen@?$basic_string@DU?$char_traits@D@std@@V?$allocator@D@2@@std@@QBEXXZ ; std::basic_string<char,std::char_traits<char>,std::allocator<char> >::_Xlen
PUBLIC	?_Xran@?$basic_string@DU?$char_traits@D@std@@V?$allocator@D@2@@std@@QBEXXZ ; std::basic_string<char,std::char_traits<char>,std::allocator<char> >::_Xran
PUBLIC	??0id@locale@std@@QAE@I@Z			; std::locale::id::id
PUBLIC	?generic_category@std@@YAABVerror_category@1@XZ	; std::generic_category
PUBLIC	?system_category@std@@YAABVerror_category@1@XZ	; std::system_category
PUBLIC	??0error_category@std@@QAE@XZ			; std::error_category::error_category
PUBLIC	??1error_category@std@@UAE@XZ			; std::error_category::~error_category
PUBLIC	?default_error_condition@error_category@std@@UBE?AVerror_condition@2@H@Z ; std::error_category::default_error_condition
PUBLIC	?equivalent@error_category@std@@UBE_NHABVerror_condition@2@@Z ; std::error_category::equivalent
PUBLIC	?equivalent@error_category@std@@UBE_NABVerror_code@2@H@Z ; std::error_category::equivalent
PUBLIC	??8error_category@std@@QBE_NABV01@@Z		; std::error_category::operator==
PUBLIC	??_Gerror_category@std@@UAEPAXI@Z		; std::error_category::`scalar deleting destructor'
PUBLIC	?value@error_code@std@@QBEHXZ			; std::error_code::value
PUBLIC	?category@error_code@std@@QBEABVerror_category@2@XZ ; std::error_code::category
PUBLIC	??0error_condition@std@@QAE@HABVerror_category@1@@Z ; std::error_condition::error_condition
PUBLIC	?value@error_condition@std@@QBEHXZ		; std::error_condition::value
PUBLIC	?category@error_condition@std@@QBEABVerror_category@2@XZ ; std::error_condition::category
PUBLIC	??8error_condition@std@@QBE_NABV01@@Z		; std::error_condition::operator==
PUBLIC	??0_Generic_error_category@std@@QAE@XZ		; std::_Generic_error_category::_Generic_error_category
PUBLIC	?name@_Generic_error_category@std@@UBEPBDXZ	; std::_Generic_error_category::name
PUBLIC	?message@_Generic_error_category@std@@UBE?AV?$basic_string@DU?$char_traits@D@std@@V?$allocator@D@2@@2@H@Z ; std::_Generic_error_category::message
PUBLIC	??1_Generic_error_category@std@@UAE@XZ		; std::_Generic_error_category::~_Generic_error_category
PUBLIC	??_G_Generic_error_category@std@@UAEPAXI@Z	; std::_Generic_error_category::`scalar deleting destructor'
PUBLIC	??0_Iostream_error_category@std@@QAE@XZ		; std::_Iostream_error_category::_Iostream_error_category
PUBLIC	?name@_Iostream_error_category@std@@UBEPBDXZ	; std::_Iostream_error_category::name
PUBLIC	?message@_Iostream_error_category@std@@UBE?AV?$basic_string@DU?$char_traits@D@std@@V?$allocator@D@2@@2@H@Z ; std::_Iostream_error_category::message
PUBLIC	??1_Iostream_error_category@std@@UAE@XZ		; std::_Iostream_error_category::~_Iostream_error_category
PUBLIC	??_G_Iostream_error_category@std@@UAEPAXI@Z	; std::_Iostream_error_category::`scalar deleting destructor'
PUBLIC	??0_System_error_category@std@@QAE@XZ		; std::_System_error_category::_System_error_category
PUBLIC	?name@_System_error_category@std@@UBEPBDXZ	; std::_System_error_category::name
PUBLIC	?message@_System_error_category@std@@UBE?AV?$basic_string@DU?$char_traits@D@std@@V?$allocator@D@2@@2@H@Z ; std::_System_error_category::message
PUBLIC	?default_error_condition@_System_error_category@std@@UBE?AVerror_condition@2@H@Z ; std::_System_error_category::default_error_condition
PUBLIC	??1_System_error_category@std@@UAE@XZ		; std::_System_error_category::~_System_error_category
PUBLIC	??_G_System_error_category@std@@UAEPAXI@Z	; std::_System_error_category::`scalar deleting destructor'
PUBLIC	?SetFlags@C_Hash@@QAEXJ@Z			; C_Hash::SetFlags
PUBLIC	??_GC_Hash@@QAEPAXI@Z				; C_Hash::`scalar deleting destructor'
PUBLIC	?SetIDTable@C_Sound@@QAEXPAVC_Hash@@@Z		; C_Sound::SetIDTable
PUBLIC	?GetLastID@C_String@@QAEJXZ			; C_String::GetLastID
PUBLIC	?SetFlagBitOn@C_Base@@UAEXJ@Z			; C_Base::SetFlagBitOn
PUBLIC	?SetFlagBitOff@C_Base@@UAEXJ@Z			; C_Base::SetFlagBitOff
PUBLIC	?SetX@C_Base@@UAEXJ@Z				; C_Base::SetX
PUBLIC	?SetY@C_Base@@UAEXJ@Z				; C_Base::SetY
PUBLIC	?SetW@C_Base@@UAEXJ@Z				; C_Base::SetW
PUBLIC	?SetH@C_Base@@UAEXJ@Z				; C_Base::SetH
PUBLIC	?SetXY@C_Base@@UAEXJJ@Z				; C_Base::SetXY
PUBLIC	?SetWH@C_Base@@UAEXJJ@Z				; C_Base::SetWH
PUBLIC	?SetXYWH@C_Base@@UAEXJJJJ@Z			; C_Base::SetXYWH
PUBLIC	?SetRelX@C_Base@@UAEXJ@Z			; C_Base::SetRelX
PUBLIC	?SetRelY@C_Base@@UAEXJ@Z			; C_Base::SetRelY
PUBLIC	?SetRelXY@C_Base@@UAEXJJ@Z			; C_Base::SetRelXY
PUBLIC	?SetState@C_Base@@UAEXF@Z			; C_Base::SetState
PUBLIC	?SetHotKey@C_Base@@UAEXF@Z			; C_Base::SetHotKey
PUBLIC	?SetMenu@C_Base@@UAEXJ@Z			; C_Base::SetMenu
PUBLIC	?SetSound@C_Base@@UAEXJF@Z			; C_Base::SetSound
PUBLIC	?SetCursorID@C_Base@@UAEXJ@Z			; C_Base::SetCursorID
PUBLIC	?SetDragCursorID@C_Base@@UAEXJ@Z		; C_Base::SetDragCursorID
PUBLIC	?SetHelpText@C_Base@@UAEXJ@Z			; C_Base::SetHelpText
PUBLIC	?SetMouseOver@C_Base@@UAEXF@Z			; C_Base::SetMouseOver
PUBLIC	?SetMouseOverColor@C_Base@@UAEXK@Z		; C_Base::SetMouseOverColor
PUBLIC	?SetMouseOverPerc@C_Base@@UAEXF@Z		; C_Base::SetMouseOverPerc
PUBLIC	?SetCallback@C_Base@@UAEXP6AXJFPAV1@@Z@Z	; C_Base::SetCallback
PUBLIC	?GetRelX@C_Base@@UAEJXZ				; C_Base::GetRelX
PUBLIC	?GetRelY@C_Base@@UAEJXZ				; C_Base::GetRelY
PUBLIC	?GetState@C_Base@@UAEFXZ			; C_Base::GetState
PUBLIC	?GetHotKey@C_Base@@UAEFXZ			; C_Base::GetHotKey
PUBLIC	?GetMenu@C_Base@@UAEJXZ				; C_Base::GetMenu
PUBLIC	?GetHelpText@C_Base@@UAEJXZ			; C_Base::GetHelpText
PUBLIC	?GetSound@C_Base@@UAEPAVSOUND_RES@@F@Z		; C_Base::GetSound
PUBLIC	?GetMouseOver@C_Base@@UAEFXZ			; C_Base::GetMouseOver
PUBLIC	?GetCursorID@C_Base@@UAEJXZ			; C_Base::GetCursorID
PUBLIC	?GetDragCursorID@C_Base@@UAEJXZ			; C_Base::GetDragCursorID
PUBLIC	?GetCallback@C_Base@@UAEP6AXJFPAV1@@ZXZ		; C_Base::GetCallback
PUBLIC	?IsBase@C_Base@@UAEHXZ				; C_Base::IsBase
PUBLIC	?IsControl@C_Base@@UAEHXZ			; C_Base::IsControl
PUBLIC	?HighLite@C_Base@@UAEXPAVSCREEN@@PAUUI95_RECT@@@Z ; C_Base::HighLite
PUBLIC	?Activate@C_Base@@UAEXXZ			; C_Base::Activate
PUBLIC	?Deactivate@C_Base@@UAEXXZ			; C_Base::Deactivate
PUBLIC	?CheckHotSpots@C_Base@@UAEJJJ@Z			; C_Base::CheckHotSpots
PUBLIC	?CheckKeyboard@C_Base@@UAEHEEEJ@Z		; C_Base::CheckKeyboard
PUBLIC	?Process@C_Base@@UAEHJF@Z			; C_Base::Process
PUBLIC	?CloseWindow@C_Base@@UAEHXZ			; C_Base::CloseWindow
PUBLIC	?MouseOver@C_Base@@UAEHJJPAV1@@Z		; C_Base::MouseOver
PUBLIC	?GetMe@C_Base@@UAEPAV1@XZ			; C_Base::GetMe
PUBLIC	?Dragable@C_Base@@UAEHJ@Z			; C_Base::Dragable
PUBLIC	?GetItemXY@C_Base@@UAEXJPAJ0@Z			; C_Base::GetItemXY
PUBLIC	?Drag@C_Base@@UAEHPAUGRABBER@@GGPAVC_Window@@@Z	; C_Base::Drag
PUBLIC	?Drop@C_Base@@UAEHPAUGRABBER@@GGPAVC_Window@@@Z	; C_Base::Drop
PUBLIC	?Wheel@C_Base@@UAEHHGG@Z			; C_Base::Wheel
PUBLIC	?GetFont@C_Text@@UAEJXZ				; C_Text::GetFont
PUBLIC	?SaveText@C_Text@@UAEXPAXPAVC_Parser@@@Z	; C_Text::SaveText
PUBLIC	??0C_VersionText@@QAE@XZ			; C_VersionText::C_VersionText
PUBLIC	?SetText@C_VersionText@@UAEXPAD@Z		; C_VersionText::SetText
PUBLIC	?SetText@C_VersionText@@UAEXJ@Z			; C_VersionText::SetText
PUBLIC	??1C_VersionText@@UAE@XZ			; C_VersionText::~C_VersionText
PUBLIC	??_GC_VersionText@@UAEPAXI@Z			; C_VersionText::`scalar deleting destructor'
PUBLIC	?WindowParser@C_Parser@@AAEPAVC_Window@@XZ	; C_Parser::WindowParser
PUBLIC	?ControlParser@C_Parser@@AAEPAVC_Base@@XZ	; C_Parser::ControlParser
PUBLIC	?PopupParser@C_Parser@@AAEPAVC_Base@@XZ		; C_Parser::PopupParser
PUBLIC	?AddInternalIDs@C_Parser@@AAEXQAUID_TABLE@@@Z	; C_Parser::AddInternalIDs
PUBLIC	?TokenizeIDs@C_Parser@@AAEJPADJ@Z		; C_Parser::TokenizeIDs
PUBLIC	?LoadIDTable@C_Parser@@AAEXPAD@Z		; C_Parser::LoadIDTable
PUBLIC	?OpenArtFile@C_Parser@@AAEPAU_iobuf@@PADPBD1H@Z	; C_Parser::OpenArtFile
PUBLIC	??0C_Parser@@QAE@XZ				; C_Parser::C_Parser
PUBLIC	??1C_Parser@@QAE@XZ				; C_Parser::~C_Parser
PUBLIC	?Setup@C_Parser@@QAEXPAVC_Handler@@PAVC_Image@@PAVC_Font@@PAVC_Sound@@PAVC_PopupMgr@@PAVC_Animation@@PAVC_String@@PAVC_Movie@@@Z ; C_Parser::Setup
PUBLIC	?Cleanup@C_Parser@@QAEXXZ			; C_Parser::Cleanup
PUBLIC	?FindIDStr@C_Parser@@QAEPADJ@Z			; C_Parser::FindIDStr
PUBLIC	?FindID@C_Parser@@QAEJPAD@Z			; C_Parser::FindID
PUBLIC	?FindToken@C_Parser@@QAEJPAD@Z			; C_Parser::FindToken
PUBLIC	?LoadIDList@C_Parser@@QAEXPAD@Z			; C_Parser::LoadIDList
PUBLIC	?LoadScript@C_Parser@@QAEHPAD@Z			; C_Parser::LoadScript
PUBLIC	?ParseScript@C_Parser@@QAEHPAD@Z		; C_Parser::ParseScript
PUBLIC	?LoadWindowList@C_Parser@@QAEHPAD@Z		; C_Parser::LoadWindowList
PUBLIC	?LoadSoundList@C_Parser@@QAEHPAD@Z		; C_Parser::LoadSoundList
PUBLIC	?LoadStringList@C_Parser@@QAEHPAD@Z		; C_Parser::LoadStringList
PUBLIC	?LoadMovieList@C_Parser@@QAEHPAD@Z		; C_Parser::LoadMovieList
PUBLIC	?LoadImageList@C_Parser@@QAEHPAD@Z		; C_Parser::LoadImageList
PUBLIC	?LoadPopupMenuList@C_Parser@@QAEHPAD@Z		; C_Parser::LoadPopupMenuList
PUBLIC	?ParseSoundBite@C_Parser@@QAEPAVC_SoundBite@@PAD@Z ; C_Parser::ParseSoundBite
PUBLIC	?ParseControl@C_Parser@@QAEPAVC_Base@@PAD@Z	; C_Parser::ParseControl
PUBLIC	?ParseWindow@C_Parser@@QAEPAVC_Window@@PAD@Z	; C_Parser::ParseWindow
PUBLIC	?ParseImage@C_Parser@@QAEPAVC_Image@@PAD@Z	; C_Parser::ParseImage
PUBLIC	?ParseSound@C_Parser@@QAEPAVC_Sound@@PAD@Z	; C_Parser::ParseSound
PUBLIC	?ParseString@C_Parser@@QAEPAVC_String@@PAD@Z	; C_Parser::ParseString
PUBLIC	?ParseMovie@C_Parser@@QAEPAVC_Movie@@PAD@Z	; C_Parser::ParseMovie
PUBLIC	?ParseFont@C_Parser@@QAEPAVC_Font@@PAD@Z	; C_Parser::ParseFont
PUBLIC	?ParsePopupMenu@C_Parser@@QAEPAVC_Base@@PAD@Z	; C_Parser::ParsePopupMenu
PUBLIC	?AddNewID@C_Parser@@QAEJPADJ@Z			; C_Parser::AddNewID
PUBLIC	?LogError@C_Parser@@QAEXPAD@Z			; C_Parser::LogError
PUBLIC	?GetFlags@C_Window@@QAEJXZ			; C_Window::GetFlags
PUBLIC	?GetID@C_Window@@QAEJXZ				; C_Window::GetID
PUBLIC	?UI_FILESIZE@@YAJPAU_iobuf@@@Z			; UI_FILESIZE
PUBLIC	??$construct@PADAAPAD@?$_Wrap_alloc@V?$allocator@D@std@@@std@@QAEXPAPADAAPAD@Z ; std::_Wrap_alloc<std::allocator<char> >::construct<char *,char * &>
PUBLIC	??$destroy@PAD@?$_Wrap_alloc@V?$allocator@D@std@@@std@@QAEXPAPAD@Z ; std::_Wrap_alloc<std::allocator<char> >::destroy<char *>
PUBLIC	??$addressof@D@std@@YAPADAAD@Z			; std::addressof<char>
PUBLIC	??$_Allocate@D@std@@YAPADIPAD@Z			; std::_Allocate<char>
PUBLIC	??$forward@AAPAD@std@@YAAAPADAAPAD@Z		; std::forward<char * &>
PUBLIC	??$construct@PADAAPAD@?$allocator_traits@V?$allocator@D@std@@@std@@SAXAAV?$allocator@D@1@PAPADAAPAD@Z ; std::allocator_traits<std::allocator<char> >::construct<char *,char * &>
PUBLIC	??$destroy@PAD@?$allocator_traits@V?$allocator@D@std@@@std@@SAXAAV?$allocator@D@1@PAPAD@Z ; std::allocator_traits<std::allocator<char> >::destroy<char *>
PUBLIC	??$construct@PADAAPAD@?$allocator@D@std@@QAEXPAPADAAPAD@Z ; std::allocator<char>::construct<char *,char * &>
PUBLIC	??$destroy@PAD@?$allocator@D@std@@QAEXPAPAD@Z	; std::allocator<char>::destroy<char *>
PUBLIC	??_7error_category@std@@6B@			; std::error_category::`vftable'
PUBLIC	??_7_Generic_error_category@std@@6B@		; std::_Generic_error_category::`vftable'
PUBLIC	??_C@_07DCLBNMLN@generic?$AA@			; `string'
PUBLIC	??_C@_0O@BFJCFAAK@unknown?5error?$AA@		; `string'
PUBLIC	??_7_Iostream_error_category@std@@6B@		; std::_Iostream_error_category::`vftable'
PUBLIC	??_C@_08LLGCOLLL@iostream?$AA@			; `string'
PUBLIC	??_C@_0BG@PADBLCHM@iostream?5stream?5error?$AA@	; `string'
PUBLIC	??_7_System_error_category@std@@6B@		; std::_System_error_category::`vftable'
PUBLIC	??_C@_06FHFOAHML@system?$AA@			; `string'
PUBLIC	?_Generic_object@?$_Error_objects@H@std@@2V_Generic_error_category@2@A ; std::_Error_objects<int>::_Generic_object
PUBLIC	?_Iostream_object@?$_Error_objects@H@std@@2V_Iostream_error_category@2@A ; std::_Error_objects<int>::_Iostream_object
PUBLIC	?_System_object@?$_Error_objects@H@std@@2V_System_error_category@2@A ; std::_Error_objects<int>::_System_object
PUBLIC	?id@?$num_put@DV?$back_insert_iterator@V?$basic_string@DU?$char_traits@D@std@@V?$allocator@D@2@@std@@@std@@@std@@2V0locale@2@A ; std::num_put<char,std::back_insert_iterator<std::basic_string<char,std::char_traits<char>,std::allocator<char> > > >::id
PUBLIC	?id@?$num_put@_WV?$back_insert_iterator@V?$basic_string@_WU?$char_traits@_W@std@@V?$allocator@_W@2@@std@@@std@@@std@@2V0locale@2@A ; std::num_put<wchar_t,std::back_insert_iterator<std::basic_string<wchar_t,std::char_traits<wchar_t>,std::allocator<wchar_t> > > >::id
PUBLIC	??_7C_VersionText@@6B@				; C_VersionText::`vftable'
PUBLIC	??_C@_01MCMALHOG@a?$AA@				; `string'
PUBLIC	??_C@_0M@CADKCABC@ui95err?4log?$AA@		; `string'
PUBLIC	??_C@_0O@JLGOJDPF@Setup?5Parser?6?$AA@		; `string'
PUBLIC	??_C@_0BA@NDJBGPGB@Cleanup?5Parser?6?$AA@	; `string'
PUBLIC	??_C@_0BO@INFGEAJH@LoadIDTable?5load?5failed?5?$CI?$CFs?$CJ?6?$AA@ ; `string'
PUBLIC	??_C@_0CC@JALCFDH@LoadIDTable?5seek?5end?5failed?5?$CI?$CFs?$CJ@ ; `string'
PUBLIC	??_C@_0BO@IIPENBFP@LoadIDTable?5read?5failed?5?$CI?$CFs?$CJ?6?$AA@ ; `string'
PUBLIC	??_C@_0BN@BMHBEFCI@LoadScript?5load?5failed?5?$CI?$CFs?$CJ?6?$AA@ ; `string'
PUBLIC	??_C@_0CD@GABGFBNH@LoadScript?5seek?5start?5failed?5?$CI?$CFs@ ; `string'
PUBLIC	??_C@_0BN@BJNDNEOA@LoadScript?5read?5failed?5?$CI?$CFs?$CJ?6?$AA@ ; `string'
PUBLIC	??_C@_02JDPG@rb?$AA@				; `string'
PUBLIC	??_C@_04FLICLKIC@?2art?$AA@			; `string'
PUBLIC	??_C@_01KICIPPFI@?2?$AA@			; `string'
PUBLIC	??_C@_0CA@GDPFFHAC@LoadWindowList?5processing?5?$CI?$CFs?$CJ?6?$AA@ ; `string'
PUBLIC	??_C@_0CB@LNIDGHFB@LoadWindowList?5open?5failed?5?$CI?$CFs?$CJ?6@ ; `string'
PUBLIC	??_C@_0BL@CCCIALCG@Open?5Art?5file?5found?5as?5?$CFs?6?$AA@ ; `string'
PUBLIC	??_C@_0CH@LBBEPHCG@LoadWindowList?5seek?5start?5failed@ ; `string'
PUBLIC	??_C@_0CB@DAEKLAMC@LoadWindowList?5read?5failed?5?$CI?$CFs?$CJ?6@ ; `string'
PUBLIC	??_C@_0CE@DDNELKMF@LoadWindowList?5Parsing?5Window?5?$CI?$CF@ ; `string'
PUBLIC	??_C@_0CI@FDODKDM@LoadWindowList?5NO?5Window?5returne@ ; `string'
PUBLIC	??_C@_0CD@PLJJBFFH@LoadPopupMenuList?5processing?5?$CI?$CFs@ ; `string'
PUBLIC	??_C@_0CE@KGBKKOGI@LoadPopupMenuList?5open?5failed?5?$CI?$CF@ ; `string'
PUBLIC	??_C@_0CK@KGFPMJFG@LoadPopupMenuList?5seek?5start?5fai@ ; `string'
PUBLIC	??_C@_0CE@CLNDHJPL@LoadPopupMenuList?5read?5failed?5?$CI?$CF@ ; `string'
PUBLIC	??_C@_0CI@FJKHPLBF@LoadPopupMenuList?5Parsing?5PopMen@ ; `string'
PUBLIC	??_C@_0CP@GFPLFNHN@LoadPopupMenuList?5NO?5Popup?5Menu?5@ ; `string'
PUBLIC	??_C@_0CA@OAOMCCII@LoadImageList?5open?5failed?5?$CI?$CFs?$CJ?6?$AA@ ; `string'
PUBLIC	??_C@_0CG@BDBHDHEO@LoadImageList?5seek?5start?5failed?5@ ; `string'
PUBLIC	??_C@_0CA@GNCFPFBL@LoadImageList?5read?5failed?5?$CI?$CFs?$CJ?6?$AA@ ; `string'
PUBLIC	??_C@_0CA@KAAMHMDA@LoadSoundList?5open?5failed?5?$CI?$CFs?$CJ?6?$AA@ ; `string'
PUBLIC	??_C@_0CG@MEEIBLAE@LoadSoundList?5seek?5start?5failed?5@ ; `string'
PUBLIC	??_C@_0CA@CNMFKLKD@LoadSoundList?5read?5failed?5?$CI?$CFs?$CJ?6?$AA@ ; `string'
PUBLIC	??_C@_0CB@EEIINBIN@LoadStringList?5open?5failed?5?$CI?$CFs?$CJ?6@ ; `string'
PUBLIC	??_C@_0CH@CGHLBJJI@LoadStringList?5seek?5start?5failed@ ; `string'
PUBLIC	??_C@_0CB@MJEBAGBO@LoadStringList?5read?5failed?5?$CI?$CFs?$CJ?6@ ; `string'
PUBLIC	??_C@_0CA@OGCDPDB@LoadMovieList?5open?5failed?5?$CI?$CFs?$CJ?6?$AA@ ; `string'
PUBLIC	??_C@_0CG@BIFIBKGC@LoadMovieList?5seek?5start?5failed?5@ ; `string'
PUBLIC	??_C@_0CA@IDKLOIKC@LoadMovieList?5read?5failed?5?$CI?$CFs?$CJ?6?$AA@ ; `string'
PUBLIC	??_C@_04DIDHKLLF@?$CF1ld?$AA@			; `string'
PUBLIC	??_C@_0CF@OECDJKFN@ControlParser?3?5Token?5NOT?5FOUND?5?$FL@ ; `string'
PUBLIC	??_C@_03EOCODDKD@NID?$AA@			; `string'
PUBLIC	??_C@_03OFAPEBGM@?$CFs?6?$AA@			; `string'
PUBLIC	?id@?$numpunct@D@std@@2V0locale@2@A		; std::numpunct<char>::id
PUBLIC	?id@?$numpunct@_W@std@@2V0locale@2@A		; std::numpunct<wchar_t>::id
PUBLIC	??_C@_0BI@CFPLBAOH@invalid?5string?5position?$AA@ ; `string'
PUBLIC	??_C@_0BA@JFNIOLAK@string?5too?5long?$AA@	; `string'
PUBLIC	??_R4error_category@std@@6B@			; std::error_category::`RTTI Complete Object Locator'
PUBLIC	??_R0?AVerror_category@std@@@8			; std::error_category `RTTI Type Descriptor'
PUBLIC	??_R3error_category@std@@8			; std::error_category::`RTTI Class Hierarchy Descriptor'
PUBLIC	??_R2error_category@std@@8			; std::error_category::`RTTI Base Class Array'
PUBLIC	??_R1A@?0A@EA@error_category@std@@8		; std::error_category::`RTTI Base Class Descriptor at (0,-1,0,64)'
PUBLIC	??_R4_Generic_error_category@std@@6B@		; std::_Generic_error_category::`RTTI Complete Object Locator'
PUBLIC	??_R0?AV_Generic_error_category@std@@@8		; std::_Generic_error_category `RTTI Type Descriptor'
PUBLIC	??_R3_Generic_error_category@std@@8		; std::_Generic_error_category::`RTTI Class Hierarchy Descriptor'
PUBLIC	??_R2_Generic_error_category@std@@8		; std::_Generic_error_category::`RTTI Base Class Array'
PUBLIC	??_R1A@?0A@EA@_Generic_error_category@std@@8	; std::_Generic_error_category::`RTTI Base Class Descriptor at (0,-1,0,64)'
PUBLIC	??_R4_Iostream_error_category@std@@6B@		; std::_Iostream_error_category::`RTTI Complete Object Locator'
PUBLIC	??_R0?AV_Iostream_error_category@std@@@8	; std::_Iostream_error_category `RTTI Type Descriptor'
PUBLIC	??_R3_Iostream_error_category@std@@8		; std::_Iostream_error_category::`RTTI Class Hierarchy Descriptor'
PUBLIC	??_R2_Iostream_error_category@std@@8		; std::_Iostream_error_category::`RTTI Base Class Array'
PUBLIC	??_R1A@?0A@EA@_Iostream_error_category@std@@8	; std::_Iostream_error_category::`RTTI Base Class Descriptor at (0,-1,0,64)'
PUBLIC	??_R4_System_error_category@std@@6B@		; std::_System_error_category::`RTTI Complete Object Locator'
PUBLIC	??_R0?AV_System_error_category@std@@@8		; std::_System_error_category `RTTI Type Descriptor'
PUBLIC	??_R3_System_error_category@std@@8		; std::_System_error_category::`RTTI Class Hierarchy Descriptor'
PUBLIC	??_R2_System_error_category@std@@8		; std::_System_error_category::`RTTI Base Class Array'
PUBLIC	??_R1A@?0A@EA@_System_error_category@std@@8	; std::_System_error_category::`RTTI Base Class Descriptor at (0,-1,0,64)'
PUBLIC	??_R0?AVC_Base@@@8				; C_Base `RTTI Type Descriptor'
PUBLIC	??_R3C_Base@@8					; C_Base::`RTTI Class Hierarchy Descriptor'
PUBLIC	??_R2C_Base@@8					; C_Base::`RTTI Base Class Array'
PUBLIC	??_R1A@?0A@EA@C_Base@@8				; C_Base::`RTTI Base Class Descriptor at (0,-1,0,64)'
PUBLIC	??_R4C_VersionText@@6B@				; C_VersionText::`RTTI Complete Object Locator'
PUBLIC	??_R0?AVC_VersionText@@@8			; C_VersionText `RTTI Type Descriptor'
PUBLIC	??_R3C_VersionText@@8				; C_VersionText::`RTTI Class Hierarchy Descriptor'
PUBLIC	??_R2C_VersionText@@8				; C_VersionText::`RTTI Base Class Array'
PUBLIC	??_R1A@?0A@EA@C_VersionText@@8			; C_VersionText::`RTTI Base Class Descriptor at (0,-1,0,64)'
PUBLIC	??_R1A@?0A@EA@C_Text@@8				; C_Text::`RTTI Base Class Descriptor at (0,-1,0,64)'
PUBLIC	??_R0?AVC_Text@@@8				; C_Text `RTTI Type Descriptor'
PUBLIC	??_R3C_Text@@8					; C_Text::`RTTI Class Hierarchy Descriptor'
PUBLIC	??_R2C_Text@@8					; C_Text::`RTTI Base Class Array'
EXTRN	??_M@YGXPAXIHP6EX0@Z@Z:PROC			; `eh vector destructor iterator'
EXTRN	__purecall:PROC
EXTRN	??2@YAPAXI@Z:PROC				; operator new
EXTRN	??3@YAXPAX@Z:PROC				; operator delete
EXTRN	_atexit:PROC
EXTRN	_isalpha:PROC
EXTRN	_isdigit:PROC
EXTRN	_memcpy:PROC
EXTRN	_memset:PROC
EXTRN	_strcpy:PROC
EXTRN	_strcat:PROC
EXTRN	_strcmp:PROC
EXTRN	_strlen:PROC
EXTRN	_memmove:PROC
EXTRN	_strnicmp:PROC
EXTRN	_atol:PROC
EXTRN	??_U@YAPAXI@Z:PROC				; operator new[]
EXTRN	??_V@YAXPAX@Z:PROC				; operator delete[]
EXTRN	__imp__SysFreeString@4:PROC
EXTRN	_fprintf:PROC
EXTRN	_sprintf:PROC
EXTRN	?_Xbad_alloc@std@@YAXXZ:PROC			; std::_Xbad_alloc
EXTRN	?_Xlength_error@std@@YAXPBD@Z:PROC		; std::_Xlength_error
EXTRN	?_Xout_of_range@std@@YAXPBD@Z:PROC		; std::_Xout_of_range
EXTRN	??_Eerror_category@std@@UAEPAXI@Z:PROC		; std::error_category::`vector deleting destructor'
EXTRN	?_Syserror_map@std@@YAPBDH@Z:PROC		; std::_Syserror_map
EXTRN	?_Winerror_map@std@@YAPBDH@Z:PROC		; std::_Winerror_map
EXTRN	??_E_Generic_error_category@std@@UAEPAXI@Z:PROC	; std::_Generic_error_category::`vector deleting destructor'
EXTRN	??_E_Iostream_error_category@std@@UAEPAXI@Z:PROC ; std::_Iostream_error_category::`vector deleting destructor'
EXTRN	??_E_System_error_category@std@@UAEPAXI@Z:PROC	; std::_System_error_category::`vector deleting destructor'
EXTRN	_MonoPrint:PROC
EXTRN	??0C_Hash@@QAE@XZ:PROC				; C_Hash::C_Hash
EXTRN	??1C_Hash@@QAE@XZ:PROC				; C_Hash::~C_Hash
EXTRN	?Setup@C_Hash@@QAEXJ@Z:PROC			; C_Hash::Setup
EXTRN	?Cleanup@C_Hash@@QAEXXZ:PROC			; C_Hash::Cleanup
EXTRN	?FindTextID@C_Hash@@QAEJPAD@Z:PROC		; C_Hash::FindTextID
EXTRN	?AddText@C_Hash@@QAEJPBD@Z:PROC			; C_Hash::AddText
EXTRN	?AddTextID@C_Hash@@QAEJJPAD@Z:PROC		; C_Hash::AddTextID
EXTRN	??0C_Font@@QAE@XZ:PROC				; C_Font::C_Font
EXTRN	?Setup@C_Font@@QAEXPAVC_Handler@@@Z:PROC	; C_Font::Setup
EXTRN	?FontFind@C_Font@@QAEFPAD@Z:PROC		; C_Font::FontFind
EXTRN	?FontFunction@C_Font@@QAEXFQAJPADPAUtagLOGFONTA@@PAJ@Z:PROC ; C_Font::FontFunction
EXTRN	??0C_Image@@QAE@XZ:PROC				; C_Image::C_Image
EXTRN	?Setup@C_Image@@QAEXXZ:PROC			; C_Image::Setup
EXTRN	?LocalFind@C_Image@@QAEFPAD@Z:PROC		; C_Image::LocalFind
EXTRN	?LocalFunction@C_Image@@QAEXFQAJPADPAVC_Handler@@@Z:PROC ; C_Image::LocalFunction
EXTRN	??0C_Sound@@QAE@XZ:PROC				; C_Sound::C_Sound
EXTRN	?Setup@C_Sound@@QAEXXZ:PROC			; C_Sound::Setup
EXTRN	?LocalFind@C_Sound@@QAEFPAD@Z:PROC		; C_Sound::LocalFind
EXTRN	?LocalFunction@C_Sound@@QAEXFQAJPADPAVC_Handler@@@Z:PROC ; C_Sound::LocalFunction
EXTRN	??0C_Animation@@QAE@XZ:PROC			; C_Animation::C_Animation
EXTRN	?Setup@C_Animation@@QAEXXZ:PROC			; C_Animation::Setup
EXTRN	?LocalFind@C_Animation@@QAEFPAD@Z:PROC		; C_Animation::LocalFind
EXTRN	?LocalFunction@C_Animation@@QAEXFQAJPADPAVC_Handler@@@Z:PROC ; C_Animation::LocalFunction
EXTRN	??0C_String@@QAE@XZ:PROC			; C_String::C_String
EXTRN	?Setup@C_String@@QAEXJ@Z:PROC			; C_String::Setup
EXTRN	?LocalFind@C_String@@QAEFPAD@Z:PROC		; C_String::LocalFind
EXTRN	?LocalFunction@C_String@@QAEXFQAJPADPAVC_Handler@@@Z:PROC ; C_String::LocalFunction
EXTRN	??0C_Movie@@QAE@XZ:PROC				; C_Movie::C_Movie
EXTRN	?Setup@C_Movie@@QAEXXZ:PROC			; C_Movie::Setup
EXTRN	?LocalFind@C_Movie@@QAEFPAD@Z:PROC		; C_Movie::LocalFind
EXTRN	?LocalFunction@C_Movie@@QAEXFQAJPADPAVC_Handler@@@Z:PROC ; C_Movie::LocalFunction
EXTRN	??0C_SoundBite@@QAE@XZ:PROC			; C_SoundBite::C_SoundBite
EXTRN	?Setup@C_SoundBite@@QAEXXZ:PROC			; C_SoundBite::Setup
EXTRN	?Add@C_SoundBite@@QAEXJJ@Z:PROC			; C_SoundBite::Add
EXTRN	?BaseFind@C_Base@@QAEFPAD@Z:PROC		; C_Base::BaseFind
EXTRN	?BaseFunction@C_Base@@QAEXFQAJPADPAVC_Handler@@@Z:PROC ; C_Base::BaseFunction
EXTRN	??0C_Anim@@QAE@XZ:PROC				; C_Anim::C_Anim
EXTRN	??0C_Bitmap@@QAE@XZ:PROC			; C_Bitmap::C_Bitmap
EXTRN	??0C_Tile@@QAE@XZ:PROC				; C_Tile::C_Tile
EXTRN	??0C_Button@@QAE@XZ:PROC			; C_Button::C_Button
EXTRN	??0C_ListBox@@QAE@XZ:PROC			; C_ListBox::C_ListBox
EXTRN	??0C_TreeList@@QAE@XZ:PROC			; C_TreeList::C_TreeList
EXTRN	??0C_ScrollBar@@QAE@XZ:PROC			; C_ScrollBar::C_ScrollBar
EXTRN	??0C_PopupList@@QAE@XZ:PROC			; C_PopupList::C_PopupList
EXTRN	??0C_EditBox@@QAE@XZ:PROC			; C_EditBox::C_EditBox
EXTRN	??0C_Text@@QAE@XZ:PROC				; C_Text::C_Text
EXTRN	??1C_Text@@UAE@XZ:PROC				; C_Text::~C_Text
EXTRN	?SetFont@C_Text@@UAEXJ@Z:PROC			; C_Text::SetFont
EXTRN	?SetFlags@C_Text@@UAEXJ@Z:PROC			; C_Text::SetFlags
EXTRN	?Cleanup@C_Text@@UAEXXZ:PROC			; C_Text::Cleanup
EXTRN	?TimerUpdate@C_Text@@UAEHXZ:PROC		; C_Text::TimerUpdate
EXTRN	?Refresh@C_Text@@UAEXXZ:PROC			; C_Text::Refresh
EXTRN	?Draw@C_Text@@UAEXPAVSCREEN@@PAUUI95_RECT@@@Z:PROC ; C_Text::Draw
EXTRN	?SetSubParents@C_Text@@UAEXPAVC_Window@@@Z:PROC	; C_Text::SetSubParents
EXTRN	?LocalFind@C_Text@@UAEFPAD@Z:PROC		; C_Text::LocalFind
EXTRN	?LocalFunction@C_Text@@UAEXFQAJPADPAVC_Handler@@@Z:PROC ; C_Text::LocalFunction
EXTRN	?Setup@C_VersionText@@UAEXJF@Z:PROC		; C_VersionText::Setup
EXTRN	??_EC_VersionText@@UAEPAXI@Z:PROC		; C_VersionText::`vector deleting destructor'
EXTRN	??0C_Line@@QAE@XZ:PROC				; C_Line::C_Line
EXTRN	??0C_Box@@QAE@XZ:PROC				; C_Box::C_Box
EXTRN	??0C_Cursor@@QAE@XZ:PROC			; C_Cursor::C_Cursor
EXTRN	??0C_Marque@@QAE@XZ:PROC			; C_Marque::C_Marque
EXTRN	??0C_Slider@@QAE@XZ:PROC			; C_Slider::C_Slider
EXTRN	??0C_Panner@@QAE@XZ:PROC			; C_Panner::C_Panner
EXTRN	??0C_Fill@@QAE@XZ:PROC				; C_Fill::C_Fill
EXTRN	??0C_PopupMgr@@QAE@XZ:PROC			; C_PopupMgr::C_PopupMgr
EXTRN	?Setup@C_PopupMgr@@QAEXPAVC_Handler@@@Z:PROC	; C_PopupMgr::Setup
EXTRN	?AddMenu@C_PopupMgr@@QAEXPAVC_PopupList@@@Z:PROC ; C_PopupMgr::AddMenu
EXTRN	??0C_Clock@@QAE@XZ:PROC				; C_Clock::C_Clock
EXTRN	??0C_Window@@QAE@XZ:PROC			; C_Window::C_Window
EXTRN	?ScanClientAreas@C_Window@@QAEXXZ:PROC		; C_Window::ScanClientAreas
EXTRN	?AddScrollBar@C_Window@@QAEXPAVC_ScrollBar@@@Z:PROC ; C_Window::AddScrollBar
EXTRN	?AddControl@C_Window@@QAEXPAVC_Base@@@Z:PROC	; C_Window::AddControl
EXTRN	?LocalFind@C_Window@@QAEFPAD@Z:PROC		; C_Window::LocalFind
EXTRN	?LocalFunction@C_Window@@QAEXFQAJPADPAVC_Handler@@@Z:PROC ; C_Window::LocalFunction
EXTRN	?AddWindow@C_Handler@@QAEHPAVC_Window@@J@Z:PROC	; C_Handler::AddWindow
EXTRN	_ResFOpen:PROC
EXTRN	_ResFClose:PROC
EXTRN	_ResFTell:PROC
EXTRN	_ResFRead:PROC
EXTRN	_ResFSeek:PROC
EXTRN	@__security_check_cookie@4:PROC
EXTRN	__CxxThrowException@8:PROC
EXTRN	___CxxFrameHandler3:PROC
EXTRN	_memset:PROC
EXTRN	??_7type_info@@6B@:QWORD			; type_info::`vftable'
EXTRN	?g_bLogUiErrors@@3_NA:BYTE			; g_bLogUiErrors
EXTRN	?FalconUIArtDirectory@@3PADA:BYTE		; FalconUIArtDirectory
EXTRN	?FalconUIArtThrDirectory@@3PADA:BYTE		; FalconUIArtThrDirectory
EXTRN	?FalconUISoundDirectory@@3PADA:BYTE		; FalconUISoundDirectory
EXTRN	___security_cookie:DWORD
_BSS	SEGMENT
_piecewise_construct DB 01H DUP (?)
	ALIGN	4

_allocator_arg DB 01H DUP (?)
_BSS	ENDS
;	COMDAT ?_Generic_object@?$_Error_objects@H@std@@2V_Generic_error_category@2@A
_BSS	SEGMENT
?_Generic_object@?$_Error_objects@H@std@@2V_Generic_error_category@2@A DD 01H DUP (?) ; std::_Error_objects<int>::_Generic_object
_BSS	ENDS
;	COMDAT ?_Iostream_object@?$_Error_objects@H@std@@2V_Iostream_error_category@2@A
_BSS	SEGMENT
?_Iostream_object@?$_Error_objects@H@std@@2V_Iostream_error_category@2@A DD 01H DUP (?) ; std::_Error_objects<int>::_Iostream_object
_BSS	ENDS
;	COMDAT ?_System_object@?$_Error_objects@H@std@@2V_System_error_category@2@A
_BSS	SEGMENT
?_System_object@?$_Error_objects@H@std@@2V_System_error_category@2@A DD 01H DUP (?) ; std::_Error_objects<int>::_System_object
_BSS	ENDS
;	COMDAT ?id@?$num_put@DV?$back_insert_iterator@V?$basic_string@DU?$char_traits@D@std@@V?$allocator@D@2@@std@@@std@@@std@@2V0locale@2@A
_BSS	SEGMENT
?id@?$num_put@DV?$back_insert_iterator@V?$basic_string@DU?$char_traits@D@std@@V?$allocator@D@2@@std@@@std@@@std@@2V0locale@2@A DD 01H DUP (?) ; std::num_put<char,std::back_insert_iterator<std::basic_string<char,std::char_traits<char>,std::allocator<char> > > >::id
_BSS	ENDS
;	COMDAT ?id@?$num_put@_WV?$back_insert_iterator@V?$basic_string@_WU?$char_traits@_W@std@@V?$allocator@_W@2@@std@@@std@@@std@@2V0locale@2@A
_BSS	SEGMENT
?id@?$num_put@_WV?$back_insert_iterator@V?$basic_string@_WU?$char_traits@_W@std@@V?$allocator@_W@2@@std@@@std@@@std@@2V0locale@2@A DD 01H DUP (?) ; std::num_put<wchar_t,std::back_insert_iterator<std::basic_string<wchar_t,std::char_traits<wchar_t>,std::allocator<wchar_t> > > >::id
_BSS	ENDS
_BSS	SEGMENT
	ALIGN	4

_filebuf DB	0104H DUP (?)
_BSS	ENDS
;	COMDAT ?id@?$numpunct@D@std@@2V0locale@2@A
_BSS	SEGMENT
?id@?$numpunct@D@std@@2V0locale@2@A DD 01H DUP (?)	; std::numpunct<char>::id
_BSS	ENDS
;	COMDAT ?id@?$numpunct@_W@std@@2V0locale@2@A
_BSS	SEGMENT
?id@?$numpunct@_W@std@@2V0locale@2@A DD 01H DUP (?)	; std::numpunct<wchar_t>::id
_BSS	ENDS
CRT$XCU	SEGMENT
_piecewise_construct$initializer$ DD FLAT:??__Epiecewise_construct@std@@YAXXZ
CRT$XCU	ENDS
;	COMDAT ??_R2C_Text@@8
rdata$r	SEGMENT
??_R2C_Text@@8 DD FLAT:??_R1A@?0A@EA@C_Text@@8		; C_Text::`RTTI Base Class Array'
	DD	FLAT:??_R1A@?0A@EA@C_Base@@8
rdata$r	ENDS
;	COMDAT ??_R3C_Text@@8
rdata$r	SEGMENT
??_R3C_Text@@8 DD 00H					; C_Text::`RTTI Class Hierarchy Descriptor'
	DD	00H
	DD	02H
	DD	FLAT:??_R2C_Text@@8
rdata$r	ENDS
;	COMDAT ??_R0?AVC_Text@@@8
_DATA	SEGMENT
??_R0?AVC_Text@@@8 DD FLAT:??_7type_info@@6B@		; C_Text `RTTI Type Descriptor'
	DD	00H
	DB	'.?AVC_Text@@', 00H
_DATA	ENDS
;	COMDAT ??_R1A@?0A@EA@C_Text@@8
rdata$r	SEGMENT
??_R1A@?0A@EA@C_Text@@8 DD FLAT:??_R0?AVC_Text@@@8	; C_Text::`RTTI Base Class Descriptor at (0,-1,0,64)'
	DD	01H
	DD	00H
	DD	0ffffffffH
	DD	00H
	DD	040H
	DD	FLAT:??_R3C_Text@@8
rdata$r	ENDS
;	COMDAT ??_R1A@?0A@EA@C_VersionText@@8
rdata$r	SEGMENT
??_R1A@?0A@EA@C_VersionText@@8 DD FLAT:??_R0?AVC_VersionText@@@8 ; C_VersionText::`RTTI Base Class Descriptor at (0,-1,0,64)'
	DD	02H
	DD	00H
	DD	0ffffffffH
	DD	00H
	DD	040H
	DD	FLAT:??_R3C_VersionText@@8
rdata$r	ENDS
;	COMDAT ??_R2C_VersionText@@8
rdata$r	SEGMENT
??_R2C_VersionText@@8 DD FLAT:??_R1A@?0A@EA@C_VersionText@@8 ; C_VersionText::`RTTI Base Class Array'
	DD	FLAT:??_R1A@?0A@EA@C_Text@@8
	DD	FLAT:??_R1A@?0A@EA@C_Base@@8
rdata$r	ENDS
;	COMDAT ??_R3C_VersionText@@8
rdata$r	SEGMENT
??_R3C_VersionText@@8 DD 00H				; C_VersionText::`RTTI Class Hierarchy Descriptor'
	DD	00H
	DD	03H
	DD	FLAT:??_R2C_VersionText@@8
rdata$r	ENDS
;	COMDAT ??_R0?AVC_VersionText@@@8
_DATA	SEGMENT
??_R0?AVC_VersionText@@@8 DD FLAT:??_7type_info@@6B@	; C_VersionText `RTTI Type Descriptor'
	DD	00H
	DB	'.?AVC_VersionText@@', 00H
_DATA	ENDS
;	COMDAT ??_R4C_VersionText@@6B@
rdata$r	SEGMENT
??_R4C_VersionText@@6B@ DD 00H				; C_VersionText::`RTTI Complete Object Locator'
	DD	00H
	DD	00H
	DD	FLAT:??_R0?AVC_VersionText@@@8
	DD	FLAT:??_R3C_VersionText@@8
rdata$r	ENDS
;	COMDAT ??_R1A@?0A@EA@C_Base@@8
rdata$r	SEGMENT
??_R1A@?0A@EA@C_Base@@8 DD FLAT:??_R0?AVC_Base@@@8	; C_Base::`RTTI Base Class Descriptor at (0,-1,0,64)'
	DD	00H
	DD	00H
	DD	0ffffffffH
	DD	00H
	DD	040H
	DD	FLAT:??_R3C_Base@@8
rdata$r	ENDS
;	COMDAT ??_R2C_Base@@8
rdata$r	SEGMENT
??_R2C_Base@@8 DD FLAT:??_R1A@?0A@EA@C_Base@@8		; C_Base::`RTTI Base Class Array'
rdata$r	ENDS
;	COMDAT ??_R3C_Base@@8
rdata$r	SEGMENT
??_R3C_Base@@8 DD 00H					; C_Base::`RTTI Class Hierarchy Descriptor'
	DD	00H
	DD	01H
	DD	FLAT:??_R2C_Base@@8
rdata$r	ENDS
;	COMDAT ??_R0?AVC_Base@@@8
_DATA	SEGMENT
??_R0?AVC_Base@@@8 DD FLAT:??_7type_info@@6B@		; C_Base `RTTI Type Descriptor'
	DD	00H
	DB	'.?AVC_Base@@', 00H
_DATA	ENDS
;	COMDAT ??_R1A@?0A@EA@_System_error_category@std@@8
rdata$r	SEGMENT
??_R1A@?0A@EA@_System_error_category@std@@8 DD FLAT:??_R0?AV_System_error_category@std@@@8 ; std::_System_error_category::`RTTI Base Class Descriptor at (0,-1,0,64)'
	DD	02H
	DD	00H
	DD	0ffffffffH
	DD	00H
	DD	040H
	DD	FLAT:??_R3_System_error_category@std@@8
rdata$r	ENDS
;	COMDAT ??_R2_System_error_category@std@@8
rdata$r	SEGMENT
??_R2_System_error_category@std@@8 DD FLAT:??_R1A@?0A@EA@_System_error_category@std@@8 ; std::_System_error_category::`RTTI Base Class Array'
	DD	FLAT:??_R1A@?0A@EA@_Generic_error_category@std@@8
	DD	FLAT:??_R1A@?0A@EA@error_category@std@@8
rdata$r	ENDS
;	COMDAT ??_R3_System_error_category@std@@8
rdata$r	SEGMENT
??_R3_System_error_category@std@@8 DD 00H		; std::_System_error_category::`RTTI Class Hierarchy Descriptor'
	DD	00H
	DD	03H
	DD	FLAT:??_R2_System_error_category@std@@8
rdata$r	ENDS
;	COMDAT ??_R0?AV_System_error_category@std@@@8
_DATA	SEGMENT
??_R0?AV_System_error_category@std@@@8 DD FLAT:??_7type_info@@6B@ ; std::_System_error_category `RTTI Type Descriptor'
	DD	00H
	DB	'.?AV_System_error_category@std@@', 00H
_DATA	ENDS
;	COMDAT ??_R4_System_error_category@std@@6B@
rdata$r	SEGMENT
??_R4_System_error_category@std@@6B@ DD 00H		; std::_System_error_category::`RTTI Complete Object Locator'
	DD	00H
	DD	00H
	DD	FLAT:??_R0?AV_System_error_category@std@@@8
	DD	FLAT:??_R3_System_error_category@std@@8
rdata$r	ENDS
;	COMDAT ??_R1A@?0A@EA@_Iostream_error_category@std@@8
rdata$r	SEGMENT
??_R1A@?0A@EA@_Iostream_error_category@std@@8 DD FLAT:??_R0?AV_Iostream_error_category@std@@@8 ; std::_Iostream_error_category::`RTTI Base Class Descriptor at (0,-1,0,64)'
	DD	02H
	DD	00H
	DD	0ffffffffH
	DD	00H
	DD	040H
	DD	FLAT:??_R3_Iostream_error_category@std@@8
rdata$r	ENDS
;	COMDAT ??_R2_Iostream_error_category@std@@8
rdata$r	SEGMENT
??_R2_Iostream_error_category@std@@8 DD FLAT:??_R1A@?0A@EA@_Iostream_error_category@std@@8 ; std::_Iostream_error_category::`RTTI Base Class Array'
	DD	FLAT:??_R1A@?0A@EA@_Generic_error_category@std@@8
	DD	FLAT:??_R1A@?0A@EA@error_category@std@@8
rdata$r	ENDS
;	COMDAT ??_R3_Iostream_error_category@std@@8
rdata$r	SEGMENT
??_R3_Iostream_error_category@std@@8 DD 00H		; std::_Iostream_error_category::`RTTI Class Hierarchy Descriptor'
	DD	00H
	DD	03H
	DD	FLAT:??_R2_Iostream_error_category@std@@8
rdata$r	ENDS
;	COMDAT ??_R0?AV_Iostream_error_category@std@@@8
_DATA	SEGMENT
??_R0?AV_Iostream_error_category@std@@@8 DD FLAT:??_7type_info@@6B@ ; std::_Iostream_error_category `RTTI Type Descriptor'
	DD	00H
	DB	'.?AV_Iostream_error_category@std@@', 00H
_DATA	ENDS
;	COMDAT ??_R4_Iostream_error_category@std@@6B@
rdata$r	SEGMENT
??_R4_Iostream_error_category@std@@6B@ DD 00H		; std::_Iostream_error_category::`RTTI Complete Object Locator'
	DD	00H
	DD	00H
	DD	FLAT:??_R0?AV_Iostream_error_category@std@@@8
	DD	FLAT:??_R3_Iostream_error_category@std@@8
rdata$r	ENDS
;	COMDAT ??_R1A@?0A@EA@_Generic_error_category@std@@8
rdata$r	SEGMENT
??_R1A@?0A@EA@_Generic_error_category@std@@8 DD FLAT:??_R0?AV_Generic_error_category@std@@@8 ; std::_Generic_error_category::`RTTI Base Class Descriptor at (0,-1,0,64)'
	DD	01H
	DD	00H
	DD	0ffffffffH
	DD	00H
	DD	040H
	DD	FLAT:??_R3_Generic_error_category@std@@8
rdata$r	ENDS
;	COMDAT ??_R2_Generic_error_category@std@@8
rdata$r	SEGMENT
??_R2_Generic_error_category@std@@8 DD FLAT:??_R1A@?0A@EA@_Generic_error_category@std@@8 ; std::_Generic_error_category::`RTTI Base Class Array'
	DD	FLAT:??_R1A@?0A@EA@error_category@std@@8
rdata$r	ENDS
;	COMDAT ??_R3_Generic_error_category@std@@8
rdata$r	SEGMENT
??_R3_Generic_error_category@std@@8 DD 00H		; std::_Generic_error_category::`RTTI Class Hierarchy Descriptor'
	DD	00H
	DD	02H
	DD	FLAT:??_R2_Generic_error_category@std@@8
rdata$r	ENDS
;	COMDAT ??_R0?AV_Generic_error_category@std@@@8
_DATA	SEGMENT
??_R0?AV_Generic_error_category@std@@@8 DD FLAT:??_7type_info@@6B@ ; std::_Generic_error_category `RTTI Type Descriptor'
	DD	00H
	DB	'.?AV_Generic_error_category@std@@', 00H
_DATA	ENDS
;	COMDAT ??_R4_Generic_error_category@std@@6B@
rdata$r	SEGMENT
??_R4_Generic_error_category@std@@6B@ DD 00H		; std::_Generic_error_category::`RTTI Complete Object Locator'
	DD	00H
	DD	00H
	DD	FLAT:??_R0?AV_Generic_error_category@std@@@8
	DD	FLAT:??_R3_Generic_error_category@std@@8
rdata$r	ENDS
;	COMDAT ??_R1A@?0A@EA@error_category@std@@8
rdata$r	SEGMENT
??_R1A@?0A@EA@error_category@std@@8 DD FLAT:??_R0?AVerror_category@std@@@8 ; std::error_category::`RTTI Base Class Descriptor at (0,-1,0,64)'
	DD	00H
	DD	00H
	DD	0ffffffffH
	DD	00H
	DD	040H
	DD	FLAT:??_R3error_category@std@@8
rdata$r	ENDS
;	COMDAT ??_R2error_category@std@@8
rdata$r	SEGMENT
??_R2error_category@std@@8 DD FLAT:??_R1A@?0A@EA@error_category@std@@8 ; std::error_category::`RTTI Base Class Array'
rdata$r	ENDS
;	COMDAT ??_R3error_category@std@@8
rdata$r	SEGMENT
??_R3error_category@std@@8 DD 00H			; std::error_category::`RTTI Class Hierarchy Descriptor'
	DD	00H
	DD	01H
	DD	FLAT:??_R2error_category@std@@8
rdata$r	ENDS
;	COMDAT ??_R0?AVerror_category@std@@@8
_DATA	SEGMENT
??_R0?AVerror_category@std@@@8 DD FLAT:??_7type_info@@6B@ ; std::error_category `RTTI Type Descriptor'
	DD	00H
	DB	'.?AVerror_category@std@@', 00H
_DATA	ENDS
;	COMDAT ??_R4error_category@std@@6B@
rdata$r	SEGMENT
??_R4error_category@std@@6B@ DD 00H			; std::error_category::`RTTI Complete Object Locator'
	DD	00H
	DD	00H
	DD	FLAT:??_R0?AVerror_category@std@@@8
	DD	FLAT:??_R3error_category@std@@8
rdata$r	ENDS
;	COMDAT ??_C@_0BA@JFNIOLAK@string?5too?5long?$AA@
CONST	SEGMENT
??_C@_0BA@JFNIOLAK@string?5too?5long?$AA@ DB 'string too long', 00H ; `string'
CONST	ENDS
;	COMDAT ??_C@_0BI@CFPLBAOH@invalid?5string?5position?$AA@
CONST	SEGMENT
??_C@_0BI@CFPLBAOH@invalid?5string?5position?$AA@ DB 'invalid string posi'
	DB	'tion', 00H					; `string'
CONST	ENDS
;	COMDAT ??_C@_03OFAPEBGM@?$CFs?6?$AA@
CONST	SEGMENT
??_C@_03OFAPEBGM@?$CFs?6?$AA@ DB '%s', 0aH, 00H		; `string'
CONST	ENDS
;	COMDAT ??_C@_03EOCODDKD@NID?$AA@
CONST	SEGMENT
??_C@_03EOCODDKD@NID?$AA@ DB 'NID', 00H			; `string'
CONST	ENDS
;	COMDAT ??_C@_0CF@OECDJKFN@ControlParser?3?5Token?5NOT?5FOUND?5?$FL@
CONST	SEGMENT
??_C@_0CF@OECDJKFN@ControlParser?3?5Token?5NOT?5FOUND?5?$FL@ DB 'ControlP'
	DB	'arser: Token NOT FOUND [%s]', 0aH, 00H	; `string'
CONST	ENDS
;	COMDAT ??_C@_04DIDHKLLF@?$CF1ld?$AA@
CONST	SEGMENT
??_C@_04DIDHKLLF@?$CF1ld?$AA@ DB '%1ld', 00H		; `string'
CONST	ENDS
;	COMDAT ??_C@_0CA@IDKLOIKC@LoadMovieList?5read?5failed?5?$CI?$CFs?$CJ?6?$AA@
CONST	SEGMENT
??_C@_0CA@IDKLOIKC@LoadMovieList?5read?5failed?5?$CI?$CFs?$CJ?6?$AA@ DB 'L'
	DB	'oadMovieList read failed (%s)', 0aH, 00H	; `string'
CONST	ENDS
;	COMDAT ??_C@_0CG@BIFIBKGC@LoadMovieList?5seek?5start?5failed?5@
CONST	SEGMENT
??_C@_0CG@BIFIBKGC@LoadMovieList?5seek?5start?5failed?5@ DB 'LoadMovieLis'
	DB	't seek start failed (%s)', 0aH, 00H		; `string'
CONST	ENDS
;	COMDAT ??_C@_0CA@OGCDPDB@LoadMovieList?5open?5failed?5?$CI?$CFs?$CJ?6?$AA@
CONST	SEGMENT
??_C@_0CA@OGCDPDB@LoadMovieList?5open?5failed?5?$CI?$CFs?$CJ?6?$AA@ DB 'L'
	DB	'oadMovieList open failed (%s)', 0aH, 00H	; `string'
CONST	ENDS
;	COMDAT ??_C@_0CB@MJEBAGBO@LoadStringList?5read?5failed?5?$CI?$CFs?$CJ?6@
CONST	SEGMENT
??_C@_0CB@MJEBAGBO@LoadStringList?5read?5failed?5?$CI?$CFs?$CJ?6@ DB 'Loa'
	DB	'dStringList read failed (%s)', 0aH, 00H	; `string'
CONST	ENDS
;	COMDAT ??_C@_0CH@CGHLBJJI@LoadStringList?5seek?5start?5failed@
CONST	SEGMENT
??_C@_0CH@CGHLBJJI@LoadStringList?5seek?5start?5failed@ DB 'LoadStringLis'
	DB	't seek start failed (%s)', 0aH, 00H		; `string'
CONST	ENDS
;	COMDAT ??_C@_0CB@EEIINBIN@LoadStringList?5open?5failed?5?$CI?$CFs?$CJ?6@
CONST	SEGMENT
??_C@_0CB@EEIINBIN@LoadStringList?5open?5failed?5?$CI?$CFs?$CJ?6@ DB 'Loa'
	DB	'dStringList open failed (%s)', 0aH, 00H	; `string'
CONST	ENDS
;	COMDAT ??_C@_0CA@CNMFKLKD@LoadSoundList?5read?5failed?5?$CI?$CFs?$CJ?6?$AA@
CONST	SEGMENT
??_C@_0CA@CNMFKLKD@LoadSoundList?5read?5failed?5?$CI?$CFs?$CJ?6?$AA@ DB 'L'
	DB	'oadSoundList read failed (%s)', 0aH, 00H	; `string'
CONST	ENDS
;	COMDAT ??_C@_0CG@MEEIBLAE@LoadSoundList?5seek?5start?5failed?5@
CONST	SEGMENT
??_C@_0CG@MEEIBLAE@LoadSoundList?5seek?5start?5failed?5@ DB 'LoadSoundLis'
	DB	't seek start failed (%s)', 0aH, 00H		; `string'
CONST	ENDS
;	COMDAT ??_C@_0CA@KAAMHMDA@LoadSoundList?5open?5failed?5?$CI?$CFs?$CJ?6?$AA@
CONST	SEGMENT
??_C@_0CA@KAAMHMDA@LoadSoundList?5open?5failed?5?$CI?$CFs?$CJ?6?$AA@ DB 'L'
	DB	'oadSoundList open failed (%s)', 0aH, 00H	; `string'
CONST	ENDS
;	COMDAT ??_C@_0CA@GNCFPFBL@LoadImageList?5read?5failed?5?$CI?$CFs?$CJ?6?$AA@
CONST	SEGMENT
??_C@_0CA@GNCFPFBL@LoadImageList?5read?5failed?5?$CI?$CFs?$CJ?6?$AA@ DB 'L'
	DB	'oadImageList read failed (%s)', 0aH, 00H	; `string'
CONST	ENDS
;	COMDAT ??_C@_0CG@BDBHDHEO@LoadImageList?5seek?5start?5failed?5@
CONST	SEGMENT
??_C@_0CG@BDBHDHEO@LoadImageList?5seek?5start?5failed?5@ DB 'LoadImageLis'
	DB	't seek start failed (%s)', 0aH, 00H		; `string'
CONST	ENDS
;	COMDAT ??_C@_0CA@OAOMCCII@LoadImageList?5open?5failed?5?$CI?$CFs?$CJ?6?$AA@
CONST	SEGMENT
??_C@_0CA@OAOMCCII@LoadImageList?5open?5failed?5?$CI?$CFs?$CJ?6?$AA@ DB 'L'
	DB	'oadImageList open failed (%s)', 0aH, 00H	; `string'
CONST	ENDS
;	COMDAT ??_C@_0CP@GFPLFNHN@LoadPopupMenuList?5NO?5Popup?5Menu?5@
CONST	SEGMENT
??_C@_0CP@GFPLFNHN@LoadPopupMenuList?5NO?5Popup?5Menu?5@ DB 'LoadPopupMen'
	DB	'uList NO Popup Menu returned (%s)', 0aH, 00H ; `string'
CONST	ENDS
;	COMDAT ??_C@_0CI@FJKHPLBF@LoadPopupMenuList?5Parsing?5PopMen@
CONST	SEGMENT
??_C@_0CI@FJKHPLBF@LoadPopupMenuList?5Parsing?5PopMen@ DB 'LoadPopupMenuL'
	DB	'ist Parsing PopMenu (%s)', 0aH, 00H		; `string'
CONST	ENDS
;	COMDAT ??_C@_0CE@CLNDHJPL@LoadPopupMenuList?5read?5failed?5?$CI?$CF@
CONST	SEGMENT
??_C@_0CE@CLNDHJPL@LoadPopupMenuList?5read?5failed?5?$CI?$CF@ DB 'LoadPop'
	DB	'upMenuList read failed (%s)', 0aH, 00H	; `string'
CONST	ENDS
;	COMDAT ??_C@_0CK@KGFPMJFG@LoadPopupMenuList?5seek?5start?5fai@
CONST	SEGMENT
??_C@_0CK@KGFPMJFG@LoadPopupMenuList?5seek?5start?5fai@ DB 'LoadPopupMenu'
	DB	'List seek start failed (%s)', 0aH, 00H	; `string'
CONST	ENDS
;	COMDAT ??_C@_0CE@KGBKKOGI@LoadPopupMenuList?5open?5failed?5?$CI?$CF@
CONST	SEGMENT
??_C@_0CE@KGBKKOGI@LoadPopupMenuList?5open?5failed?5?$CI?$CF@ DB 'LoadPop'
	DB	'upMenuList open failed (%s)', 0aH, 00H	; `string'
CONST	ENDS
;	COMDAT ??_C@_0CD@PLJJBFFH@LoadPopupMenuList?5processing?5?$CI?$CFs@
CONST	SEGMENT
??_C@_0CD@PLJJBFFH@LoadPopupMenuList?5processing?5?$CI?$CFs@ DB 'LoadPopu'
	DB	'pMenuList processing (%s)', 0aH, 00H	; `string'
CONST	ENDS
;	COMDAT ??_C@_0CI@FDODKDM@LoadWindowList?5NO?5Window?5returne@
CONST	SEGMENT
??_C@_0CI@FDODKDM@LoadWindowList?5NO?5Window?5returne@ DB 'LoadWindowList'
	DB	' NO Window returned (%s)', 0aH, 00H		; `string'
CONST	ENDS
;	COMDAT ??_C@_0CE@DDNELKMF@LoadWindowList?5Parsing?5Window?5?$CI?$CF@
CONST	SEGMENT
??_C@_0CE@DDNELKMF@LoadWindowList?5Parsing?5Window?5?$CI?$CF@ DB 'LoadWin'
	DB	'dowList Parsing Window (%s)', 0aH, 00H	; `string'
CONST	ENDS
;	COMDAT ??_C@_0CB@DAEKLAMC@LoadWindowList?5read?5failed?5?$CI?$CFs?$CJ?6@
CONST	SEGMENT
??_C@_0CB@DAEKLAMC@LoadWindowList?5read?5failed?5?$CI?$CFs?$CJ?6@ DB 'Loa'
	DB	'dWindowList read failed (%s)', 0aH, 00H	; `string'
CONST	ENDS
;	COMDAT ??_C@_0CH@LBBEPHCG@LoadWindowList?5seek?5start?5failed@
CONST	SEGMENT
??_C@_0CH@LBBEPHCG@LoadWindowList?5seek?5start?5failed@ DB 'LoadWindowLis'
	DB	't seek start failed (%s)', 0aH, 00H		; `string'
CONST	ENDS
;	COMDAT ??_C@_0BL@CCCIALCG@Open?5Art?5file?5found?5as?5?$CFs?6?$AA@
CONST	SEGMENT
??_C@_0BL@CCCIALCG@Open?5Art?5file?5found?5as?5?$CFs?6?$AA@ DB 'Open Art '
	DB	'file found as %s', 0aH, 00H			; `string'
CONST	ENDS
;	COMDAT ??_C@_0CB@LNIDGHFB@LoadWindowList?5open?5failed?5?$CI?$CFs?$CJ?6@
CONST	SEGMENT
??_C@_0CB@LNIDGHFB@LoadWindowList?5open?5failed?5?$CI?$CFs?$CJ?6@ DB 'Loa'
	DB	'dWindowList open failed (%s)', 0aH, 00H	; `string'
CONST	ENDS
;	COMDAT ??_C@_0CA@GDPFFHAC@LoadWindowList?5processing?5?$CI?$CFs?$CJ?6?$AA@
CONST	SEGMENT
??_C@_0CA@GDPFFHAC@LoadWindowList?5processing?5?$CI?$CFs?$CJ?6?$AA@ DB 'L'
	DB	'oadWindowList processing (%s)', 0aH, 00H	; `string'
CONST	ENDS
;	COMDAT ??_C@_01KICIPPFI@?2?$AA@
CONST	SEGMENT
??_C@_01KICIPPFI@?2?$AA@ DB '\', 00H			; `string'
CONST	ENDS
;	COMDAT ??_C@_04FLICLKIC@?2art?$AA@
CONST	SEGMENT
??_C@_04FLICLKIC@?2art?$AA@ DB '\art', 00H		; `string'
CONST	ENDS
;	COMDAT ??_C@_02JDPG@rb?$AA@
CONST	SEGMENT
??_C@_02JDPG@rb?$AA@ DB 'rb', 00H			; `string'
CONST	ENDS
;	COMDAT ??_C@_0BN@BJNDNEOA@LoadScript?5read?5failed?5?$CI?$CFs?$CJ?6?$AA@
CONST	SEGMENT
??_C@_0BN@BJNDNEOA@LoadScript?5read?5failed?5?$CI?$CFs?$CJ?6?$AA@ DB 'Loa'
	DB	'dScript read failed (%s)', 0aH, 00H		; `string'
CONST	ENDS
;	COMDAT ??_C@_0CD@GABGFBNH@LoadScript?5seek?5start?5failed?5?$CI?$CFs@
CONST	SEGMENT
??_C@_0CD@GABGFBNH@LoadScript?5seek?5start?5failed?5?$CI?$CFs@ DB 'LoadSc'
	DB	'ript seek start failed (%s)', 0aH, 00H	; `string'
CONST	ENDS
;	COMDAT ??_C@_0BN@BMHBEFCI@LoadScript?5load?5failed?5?$CI?$CFs?$CJ?6?$AA@
CONST	SEGMENT
??_C@_0BN@BMHBEFCI@LoadScript?5load?5failed?5?$CI?$CFs?$CJ?6?$AA@ DB 'Loa'
	DB	'dScript load failed (%s)', 0aH, 00H		; `string'
CONST	ENDS
;	COMDAT ??_C@_0BO@IIPENBFP@LoadIDTable?5read?5failed?5?$CI?$CFs?$CJ?6?$AA@
CONST	SEGMENT
??_C@_0BO@IIPENBFP@LoadIDTable?5read?5failed?5?$CI?$CFs?$CJ?6?$AA@ DB 'Lo'
	DB	'adIDTable read failed (%s)', 0aH, 00H	; `string'
CONST	ENDS
;	COMDAT ??_C@_0CC@JALCFDH@LoadIDTable?5seek?5end?5failed?5?$CI?$CFs?$CJ@
CONST	SEGMENT
??_C@_0CC@JALCFDH@LoadIDTable?5seek?5end?5failed?5?$CI?$CFs?$CJ@ DB 'Load'
	DB	'IDTable seek end failed (%s)', 0aH, 00H	; `string'
CONST	ENDS
;	COMDAT ??_C@_0BO@INFGEAJH@LoadIDTable?5load?5failed?5?$CI?$CFs?$CJ?6?$AA@
CONST	SEGMENT
??_C@_0BO@INFGEAJH@LoadIDTable?5load?5failed?5?$CI?$CFs?$CJ?6?$AA@ DB 'Lo'
	DB	'adIDTable load failed (%s)', 0aH, 00H	; `string'
CONST	ENDS
;	COMDAT ??_C@_0BA@NDJBGPGB@Cleanup?5Parser?6?$AA@
CONST	SEGMENT
??_C@_0BA@NDJBGPGB@Cleanup?5Parser?6?$AA@ DB 'Cleanup Parser', 0aH, 00H ; `string'
CONST	ENDS
;	COMDAT ??_C@_0O@JLGOJDPF@Setup?5Parser?6?$AA@
CONST	SEGMENT
??_C@_0O@JLGOJDPF@Setup?5Parser?6?$AA@ DB 'Setup Parser', 0aH, 00H ; `string'
CONST	ENDS
;	COMDAT ??_C@_0M@CADKCABC@ui95err?4log?$AA@
CONST	SEGMENT
??_C@_0M@CADKCABC@ui95err?4log?$AA@ DB 'ui95err.log', 00H ; `string'
CONST	ENDS
;	COMDAT ??_C@_01MCMALHOG@a?$AA@
CONST	SEGMENT
??_C@_01MCMALHOG@a?$AA@ DB 'a', 00H			; `string'
CONST	ENDS
;	COMDAT ??_7C_VersionText@@6B@
CONST	SEGMENT
??_7C_VersionText@@6B@ DD FLAT:??_R4C_VersionText@@6B@	; C_VersionText::`vftable'
	DD	FLAT:??_EC_VersionText@@UAEPAXI@Z
	DD	FLAT:?SetFlags@C_Text@@UAEXJ@Z
	DD	FLAT:?SetFlagBitOn@C_Base@@UAEXJ@Z
	DD	FLAT:?SetFlagBitOff@C_Base@@UAEXJ@Z
	DD	FLAT:?SetX@C_Base@@UAEXJ@Z
	DD	FLAT:?SetY@C_Base@@UAEXJ@Z
	DD	FLAT:?SetW@C_Base@@UAEXJ@Z
	DD	FLAT:?SetH@C_Base@@UAEXJ@Z
	DD	FLAT:?SetXY@C_Base@@UAEXJJ@Z
	DD	FLAT:?SetWH@C_Base@@UAEXJJ@Z
	DD	FLAT:?SetXYWH@C_Base@@UAEXJJJJ@Z
	DD	FLAT:?SetRelX@C_Base@@UAEXJ@Z
	DD	FLAT:?SetRelY@C_Base@@UAEXJ@Z
	DD	FLAT:?SetRelXY@C_Base@@UAEXJJ@Z
	DD	FLAT:?SetState@C_Base@@UAEXF@Z
	DD	FLAT:?SetHotKey@C_Base@@UAEXF@Z
	DD	FLAT:?SetMenu@C_Base@@UAEXJ@Z
	DD	FLAT:?SetFont@C_Text@@UAEXJ@Z
	DD	FLAT:?SetSound@C_Base@@UAEXJF@Z
	DD	FLAT:?SetCursorID@C_Base@@UAEXJ@Z
	DD	FLAT:?SetDragCursorID@C_Base@@UAEXJ@Z
	DD	FLAT:?SetHelpText@C_Base@@UAEXJ@Z
	DD	FLAT:?SetMouseOver@C_Base@@UAEXF@Z
	DD	FLAT:?SetMouseOverColor@C_Base@@UAEXK@Z
	DD	FLAT:?SetMouseOverPerc@C_Base@@UAEXF@Z
	DD	FLAT:?SetCallback@C_Base@@UAEXP6AXJFPAV1@@Z@Z
	DD	FLAT:?GetRelX@C_Base@@UAEJXZ
	DD	FLAT:?GetRelY@C_Base@@UAEJXZ
	DD	FLAT:?GetState@C_Base@@UAEFXZ
	DD	FLAT:?GetHotKey@C_Base@@UAEFXZ
	DD	FLAT:?GetMenu@C_Base@@UAEJXZ
	DD	FLAT:?GetFont@C_Text@@UAEJXZ
	DD	FLAT:?GetHelpText@C_Base@@UAEJXZ
	DD	FLAT:?GetSound@C_Base@@UAEPAVSOUND_RES@@F@Z
	DD	FLAT:?GetMouseOver@C_Base@@UAEFXZ
	DD	FLAT:?GetCursorID@C_Base@@UAEJXZ
	DD	FLAT:?GetDragCursorID@C_Base@@UAEJXZ
	DD	FLAT:?GetCallback@C_Base@@UAEP6AXJFPAV1@@ZXZ
	DD	FLAT:?IsBase@C_Base@@UAEHXZ
	DD	FLAT:?IsControl@C_Base@@UAEHXZ
	DD	FLAT:?Refresh@C_Text@@UAEXXZ
	DD	FLAT:?Draw@C_Text@@UAEXPAVSCREEN@@PAUUI95_RECT@@@Z
	DD	FLAT:?HighLite@C_Base@@UAEXPAVSCREEN@@PAUUI95_RECT@@@Z
	DD	FLAT:?SetSubParents@C_Text@@UAEXPAVC_Window@@@Z
	DD	FLAT:?Cleanup@C_Text@@UAEXXZ
	DD	FLAT:?TimerUpdate@C_Text@@UAEHXZ
	DD	FLAT:?Activate@C_Base@@UAEXXZ
	DD	FLAT:?Deactivate@C_Base@@UAEXXZ
	DD	FLAT:?CheckHotSpots@C_Base@@UAEJJJ@Z
	DD	FLAT:?CheckKeyboard@C_Base@@UAEHEEEJ@Z
	DD	FLAT:?Process@C_Base@@UAEHJF@Z
	DD	FLAT:?CloseWindow@C_Base@@UAEHXZ
	DD	FLAT:?MouseOver@C_Base@@UAEHJJPAV1@@Z
	DD	FLAT:?GetMe@C_Base@@UAEPAV1@XZ
	DD	FLAT:?Dragable@C_Base@@UAEHJ@Z
	DD	FLAT:?GetItemXY@C_Base@@UAEXJPAJ0@Z
	DD	FLAT:?Drag@C_Base@@UAEHPAUGRABBER@@GGPAVC_Window@@@Z
	DD	FLAT:?Drop@C_Base@@UAEHPAUGRABBER@@GGPAVC_Window@@@Z
	DD	FLAT:?Wheel@C_Base@@UAEHHGG@Z
	DD	FLAT:?LocalFind@C_Text@@UAEFPAD@Z
	DD	FLAT:?LocalFunction@C_Text@@UAEXFQAJPADPAVC_Handler@@@Z
	DD	FLAT:?SaveText@C_Text@@UAEXPAXPAVC_Parser@@@Z
	DD	FLAT:?Setup@C_VersionText@@UAEXJF@Z
	DD	FLAT:?SetText@C_VersionText@@UAEXJ@Z
	DD	FLAT:?SetText@C_VersionText@@UAEXPAD@Z
CONST	ENDS
;	COMDAT ??_C@_06FHFOAHML@system?$AA@
CONST	SEGMENT
??_C@_06FHFOAHML@system?$AA@ DB 'system', 00H		; `string'
CONST	ENDS
;	COMDAT ??_7_System_error_category@std@@6B@
CONST	SEGMENT
??_7_System_error_category@std@@6B@ DD FLAT:??_R4_System_error_category@std@@6B@ ; std::_System_error_category::`vftable'
	DD	FLAT:??_E_System_error_category@std@@UAEPAXI@Z
	DD	FLAT:?name@_System_error_category@std@@UBEPBDXZ
	DD	FLAT:?message@_System_error_category@std@@UBE?AV?$basic_string@DU?$char_traits@D@std@@V?$allocator@D@2@@2@H@Z
	DD	FLAT:?default_error_condition@_System_error_category@std@@UBE?AVerror_condition@2@H@Z
	DD	FLAT:?equivalent@error_category@std@@UBE_NABVerror_code@2@H@Z
	DD	FLAT:?equivalent@error_category@std@@UBE_NHABVerror_condition@2@@Z
CONST	ENDS
;	COMDAT ??_C@_0BG@PADBLCHM@iostream?5stream?5error?$AA@
CONST	SEGMENT
??_C@_0BG@PADBLCHM@iostream?5stream?5error?$AA@ DB 'iostream stream error'
	DB	00H						; `string'
CONST	ENDS
;	COMDAT ??_C@_08LLGCOLLL@iostream?$AA@
CONST	SEGMENT
??_C@_08LLGCOLLL@iostream?$AA@ DB 'iostream', 00H	; `string'
CONST	ENDS
;	COMDAT ??_7_Iostream_error_category@std@@6B@
CONST	SEGMENT
??_7_Iostream_error_category@std@@6B@ DD FLAT:??_R4_Iostream_error_category@std@@6B@ ; std::_Iostream_error_category::`vftable'
	DD	FLAT:??_E_Iostream_error_category@std@@UAEPAXI@Z
	DD	FLAT:?name@_Iostream_error_category@std@@UBEPBDXZ
	DD	FLAT:?message@_Iostream_error_category@std@@UBE?AV?$basic_string@DU?$char_traits@D@std@@V?$allocator@D@2@@2@H@Z
	DD	FLAT:?default_error_condition@error_category@std@@UBE?AVerror_condition@2@H@Z
	DD	FLAT:?equivalent@error_category@std@@UBE_NABVerror_code@2@H@Z
	DD	FLAT:?equivalent@error_category@std@@UBE_NHABVerror_condition@2@@Z
CONST	ENDS
;	COMDAT ??_C@_0O@BFJCFAAK@unknown?5error?$AA@
CONST	SEGMENT
??_C@_0O@BFJCFAAK@unknown?5error?$AA@ DB 'unknown error', 00H ; `string'
CONST	ENDS
;	COMDAT ??_C@_07DCLBNMLN@generic?$AA@
CONST	SEGMENT
??_C@_07DCLBNMLN@generic?$AA@ DB 'generic', 00H		; `string'
CONST	ENDS
;	COMDAT ??_7_Generic_error_category@std@@6B@
CONST	SEGMENT
??_7_Generic_error_category@std@@6B@ DD FLAT:??_R4_Generic_error_category@std@@6B@ ; std::_Generic_error_category::`vftable'
	DD	FLAT:??_E_Generic_error_category@std@@UAEPAXI@Z
	DD	FLAT:?name@_Generic_error_category@std@@UBEPBDXZ
	DD	FLAT:?message@_Generic_error_category@std@@UBE?AV?$basic_string@DU?$char_traits@D@std@@V?$allocator@D@2@@2@H@Z
	DD	FLAT:?default_error_condition@error_category@std@@UBE?AVerror_condition@2@H@Z
	DD	FLAT:?equivalent@error_category@std@@UBE_NABVerror_code@2@H@Z
	DD	FLAT:?equivalent@error_category@std@@UBE_NHABVerror_condition@2@@Z
CONST	ENDS
;	COMDAT ??_7error_category@std@@6B@
CONST	SEGMENT
??_7error_category@std@@6B@ DD FLAT:??_R4error_category@std@@6B@ ; std::error_category::`vftable'
	DD	FLAT:??_Eerror_category@std@@UAEPAXI@Z
	DD	FLAT:__purecall
	DD	FLAT:__purecall
	DD	FLAT:?default_error_condition@error_category@std@@UBE?AVerror_condition@2@H@Z
	DD	FLAT:?equivalent@error_category@std@@UBE_NABVerror_code@2@H@Z
	DD	FLAT:?equivalent@error_category@std@@UBE_NHABVerror_condition@2@@Z
CONST	ENDS
;	COMDAT xdata$x
xdata$x	SEGMENT
__unwindtable$??$construct@PADAAPAD@?$allocator@D@std@@QAEXPAPADAAPAD@Z DD 0ffffffffH
	DD	FLAT:__unwindfunclet$??$construct@PADAAPAD@?$allocator@D@std@@QAEXPAPADAAPAD@Z$0
__ehfuncinfo$??$construct@PADAAPAD@?$allocator@D@std@@QAEXPAPADAAPAD@Z DD 019930522H
	DD	01H
	DD	FLAT:__unwindtable$??$construct@PADAAPAD@?$allocator@D@std@@QAEXPAPADAAPAD@Z
	DD	2 DUP(00H)
	DD	2 DUP(00H)
	DD	00H
	DD	01H
xdata$x	ENDS
xdata$x	SEGMENT
__unwindtable$?ParsePopupMenu@C_Parser@@QAEPAVC_Base@@PAD@Z DD 0ffffffffH
	DD	FLAT:__unwindfunclet$?ParsePopupMenu@C_Parser@@QAEPAVC_Base@@PAD@Z$0
__unwindtable$?ParseFont@C_Parser@@QAEPAVC_Font@@PAD@Z DD 0ffffffffH
	DD	FLAT:__unwindfunclet$?ParseFont@C_Parser@@QAEPAVC_Font@@PAD@Z$0
__unwindtable$?ParseMovie@C_Parser@@QAEPAVC_Movie@@PAD@Z DD 0ffffffffH
	DD	FLAT:__unwindfunclet$?ParseMovie@C_Parser@@QAEPAVC_Movie@@PAD@Z$0
__unwindtable$?ParseString@C_Parser@@QAEPAVC_String@@PAD@Z DD 0ffffffffH
	DD	FLAT:__unwindfunclet$?ParseString@C_Parser@@QAEPAVC_String@@PAD@Z$0
__unwindtable$?ParseSound@C_Parser@@QAEPAVC_Sound@@PAD@Z DD 0ffffffffH
	DD	FLAT:__unwindfunclet$?ParseSound@C_Parser@@QAEPAVC_Sound@@PAD@Z$0
__unwindtable$?ParseSoundBite@C_Parser@@QAEPAVC_SoundBite@@PAD@Z DD 0ffffffffH
	DD	FLAT:__unwindfunclet$?ParseSoundBite@C_Parser@@QAEPAVC_SoundBite@@PAD@Z$0
__unwindtable$?PopupParser@C_Parser@@AAEPAVC_Base@@XZ DD 0ffffffffH
	DD	FLAT:__unwindfunclet$?PopupParser@C_Parser@@AAEPAVC_Base@@XZ$0
__unwindtable$?WindowParser@C_Parser@@AAEPAVC_Window@@XZ DD 0ffffffffH
	DD	FLAT:__unwindfunclet$?WindowParser@C_Parser@@AAEPAVC_Window@@XZ$0
__unwindtable$?ParseImage@C_Parser@@QAEPAVC_Image@@PAD@Z DD 0ffffffffH
	DD	FLAT:__unwindfunclet$?ParseImage@C_Parser@@QAEPAVC_Image@@PAD@Z$0
	DD	0ffffffffH
	DD	FLAT:__unwindfunclet$?ParseImage@C_Parser@@QAEPAVC_Image@@PAD@Z$1
__unwindtable$?Setup@C_Parser@@QAEXPAVC_Handler@@PAVC_Image@@PAVC_Font@@PAVC_Sound@@PAVC_PopupMgr@@PAVC_Animation@@PAVC_String@@PAVC_Movie@@@Z DD 0ffffffffH
	DD	FLAT:__unwindfunclet$?Setup@C_Parser@@QAEXPAVC_Handler@@PAVC_Image@@PAVC_Font@@PAVC_Sound@@PAVC_PopupMgr@@PAVC_Animation@@PAVC_String@@PAVC_Movie@@@Z$0
	DD	0ffffffffH
	DD	FLAT:__unwindfunclet$?Setup@C_Parser@@QAEXPAVC_Handler@@PAVC_Image@@PAVC_Font@@PAVC_Sound@@PAVC_PopupMgr@@PAVC_Animation@@PAVC_String@@PAVC_Movie@@@Z$1
__ehfuncinfo$?ParsePopupMenu@C_Parser@@QAEPAVC_Base@@PAD@Z DD 019930522H
	DD	01H
	DD	FLAT:__unwindtable$?ParsePopupMenu@C_Parser@@QAEPAVC_Base@@PAD@Z
	DD	2 DUP(00H)
	DD	2 DUP(00H)
	DD	00H
	DD	01H
__ehfuncinfo$?ParseFont@C_Parser@@QAEPAVC_Font@@PAD@Z DD 019930522H
	DD	01H
	DD	FLAT:__unwindtable$?ParseFont@C_Parser@@QAEPAVC_Font@@PAD@Z
	DD	2 DUP(00H)
	DD	2 DUP(00H)
	DD	00H
	DD	01H
__ehfuncinfo$?ParseMovie@C_Parser@@QAEPAVC_Movie@@PAD@Z DD 019930522H
	DD	01H
	DD	FLAT:__unwindtable$?ParseMovie@C_Parser@@QAEPAVC_Movie@@PAD@Z
	DD	2 DUP(00H)
	DD	2 DUP(00H)
	DD	00H
	DD	01H
__ehfuncinfo$?ParseString@C_Parser@@QAEPAVC_String@@PAD@Z DD 019930522H
	DD	01H
	DD	FLAT:__unwindtable$?ParseString@C_Parser@@QAEPAVC_String@@PAD@Z
	DD	2 DUP(00H)
	DD	2 DUP(00H)
	DD	00H
	DD	01H
__ehfuncinfo$?ParseSound@C_Parser@@QAEPAVC_Sound@@PAD@Z DD 019930522H
	DD	01H
	DD	FLAT:__unwindtable$?ParseSound@C_Parser@@QAEPAVC_Sound@@PAD@Z
	DD	2 DUP(00H)
	DD	2 DUP(00H)
	DD	00H
	DD	01H
__ehfuncinfo$?ParseImage@C_Parser@@QAEPAVC_Image@@PAD@Z DD 019930522H
	DD	02H
	DD	FLAT:__unwindtable$?ParseImage@C_Parser@@QAEPAVC_Image@@PAD@Z
	DD	2 DUP(00H)
	DD	2 DUP(00H)
	DD	00H
	DD	01H
__ehfuncinfo$?ParseSoundBite@C_Parser@@QAEPAVC_SoundBite@@PAD@Z DD 019930522H
	DD	01H
	DD	FLAT:__unwindtable$?ParseSoundBite@C_Parser@@QAEPAVC_SoundBite@@PAD@Z
	DD	2 DUP(00H)
	DD	2 DUP(00H)
	DD	00H
	DD	01H
__ehfuncinfo$?Setup@C_Parser@@QAEXPAVC_Handler@@PAVC_Image@@PAVC_Font@@PAVC_Sound@@PAVC_PopupMgr@@PAVC_Animation@@PAVC_String@@PAVC_Movie@@@Z DD 019930522H
	DD	02H
	DD	FLAT:__unwindtable$?Setup@C_Parser@@QAEXPAVC_Handler@@PAVC_Image@@PAVC_Font@@PAVC_Sound@@PAVC_PopupMgr@@PAVC_Animation@@PAVC_String@@PAVC_Movie@@@Z
	DD	2 DUP(00H)
	DD	2 DUP(00H)
	DD	00H
	DD	01H
__ehfuncinfo$?PopupParser@C_Parser@@AAEPAVC_Base@@XZ DD 019930522H
	DD	01H
	DD	FLAT:__unwindtable$?PopupParser@C_Parser@@AAEPAVC_Base@@XZ
	DD	2 DUP(00H)
	DD	2 DUP(00H)
	DD	00H
	DD	01H
__ehfuncinfo$?ControlParser@C_Parser@@AAEPAVC_Base@@XZ DD 019930522H
	DD	013H
	DD	FLAT:__unwindtable$?ControlParser@C_Parser@@AAEPAVC_Base@@XZ
	DD	2 DUP(00H)
	DD	2 DUP(00H)
	DD	00H
	DD	01H
__ehfuncinfo$?WindowParser@C_Parser@@AAEPAVC_Window@@XZ DD 019930522H
	DD	01H
	DD	FLAT:__unwindtable$?WindowParser@C_Parser@@AAEPAVC_Window@@XZ
	DD	2 DUP(00H)
	DD	2 DUP(00H)
	DD	00H
	DD	01H
__unwindtable$?ControlParser@C_Parser@@AAEPAVC_Base@@XZ DD 0ffffffffH
	DD	FLAT:__unwindfunclet$?ControlParser@C_Parser@@AAEPAVC_Base@@XZ$0
	DD	0ffffffffH
	DD	FLAT:__unwindfunclet$?ControlParser@C_Parser@@AAEPAVC_Base@@XZ$1
	DD	0ffffffffH
	DD	FLAT:__unwindfunclet$?ControlParser@C_Parser@@AAEPAVC_Base@@XZ$2
	DD	0ffffffffH
	DD	FLAT:__unwindfunclet$?ControlParser@C_Parser@@AAEPAVC_Base@@XZ$3
	DD	0ffffffffH
	DD	FLAT:__unwindfunclet$?ControlParser@C_Parser@@AAEPAVC_Base@@XZ$4
	DD	0ffffffffH
	DD	FLAT:__unwindfunclet$?ControlParser@C_Parser@@AAEPAVC_Base@@XZ$5
	DD	0ffffffffH
	DD	FLAT:__unwindfunclet$?ControlParser@C_Parser@@AAEPAVC_Base@@XZ$6
	DD	0ffffffffH
	DD	FLAT:__unwindfunclet$?ControlParser@C_Parser@@AAEPAVC_Base@@XZ$7
	DD	0ffffffffH
	DD	FLAT:__unwindfunclet$?ControlParser@C_Parser@@AAEPAVC_Base@@XZ$8
	DD	0ffffffffH
	DD	FLAT:__unwindfunclet$?ControlParser@C_Parser@@AAEPAVC_Base@@XZ$9
	DD	0ffffffffH
	DD	FLAT:__unwindfunclet$?ControlParser@C_Parser@@AAEPAVC_Base@@XZ$10
	DD	0ffffffffH
	DD	FLAT:__unwindfunclet$?ControlParser@C_Parser@@AAEPAVC_Base@@XZ$11
	DD	0ffffffffH
	DD	FLAT:__unwindfunclet$?ControlParser@C_Parser@@AAEPAVC_Base@@XZ$12
	DD	0ffffffffH
	DD	FLAT:__unwindfunclet$?ControlParser@C_Parser@@AAEPAVC_Base@@XZ$13
	DD	0ffffffffH
	DD	FLAT:__unwindfunclet$?ControlParser@C_Parser@@AAEPAVC_Base@@XZ$14
	DD	0ffffffffH
	DD	FLAT:__unwindfunclet$?ControlParser@C_Parser@@AAEPAVC_Base@@XZ$15
	DD	0ffffffffH
	DD	FLAT:__unwindfunclet$?ControlParser@C_Parser@@AAEPAVC_Base@@XZ$16
	DD	0ffffffffH
	DD	FLAT:__unwindfunclet$?ControlParser@C_Parser@@AAEPAVC_Base@@XZ$17
	DD	0ffffffffH
	DD	FLAT:__unwindfunclet$?ControlParser@C_Parser@@AAEPAVC_Base@@XZ$18
xdata$x	ENDS
;	COMDAT xdata$x
xdata$x	SEGMENT
__catchsym$?_Copy@?$basic_string@DU?$char_traits@D@std@@V?$allocator@D@2@@std@@QAEXII@Z$5 DD 040H
	DD	00H
	DD	00H
	DD	FLAT:__catch$?_Copy@?$basic_string@DU?$char_traits@D@std@@V?$allocator@D@2@@std@@QAEXII@Z$0
__catchsym$?_Copy@?$basic_string@DU?$char_traits@D@std@@V?$allocator@D@2@@std@@QAEXII@Z$4 DD 040H
	DD	00H
	DD	00H
	DD	FLAT:__catch$?_Copy@?$basic_string@DU?$char_traits@D@std@@V?$allocator@D@2@@std@@QAEXII@Z$1
__unwindtable$?_Copy@?$basic_string@DU?$char_traits@D@std@@V?$allocator@D@2@@std@@QAEXII@Z DD 0ffffffffH
	DD	00H
	DD	0ffffffffH
	DD	00H
	DD	01H
	DD	00H
	DD	01H
	DD	00H
__ehfuncinfo$?_Copy@?$basic_string@DU?$char_traits@D@std@@V?$allocator@D@2@@std@@QAEXII@Z DD 019930522H
	DD	04H
	DD	FLAT:__unwindtable$?_Copy@?$basic_string@DU?$char_traits@D@std@@V?$allocator@D@2@@std@@QAEXII@Z
	DD	02H
	DD	FLAT:__tryblocktable$?_Copy@?$basic_string@DU?$char_traits@D@std@@V?$allocator@D@2@@std@@QAEXII@Z
	DD	2 DUP(00H)
	DD	00H
	DD	01H
__tryblocktable$?_Copy@?$basic_string@DU?$char_traits@D@std@@V?$allocator@D@2@@std@@QAEXII@Z DD 02H
	DD	02H
	DD	03H
	DD	01H
	DD	FLAT:__catchsym$?_Copy@?$basic_string@DU?$char_traits@D@std@@V?$allocator@D@2@@std@@QAEXII@Z$4
	DD	00H
	DD	00H
	DD	03H
	DD	01H
	DD	FLAT:__catchsym$?_Copy@?$basic_string@DU?$char_traits@D@std@@V?$allocator@D@2@@std@@QAEXII@Z$5
xdata$x	ENDS
CRT$XCU	SEGMENT
_allocator_arg$initializer$ DD FLAT:??__Eallocator_arg@std@@YAXXZ
CRT$XCU	ENDS
;	COMDAT CRT$XCU
CRT$XCU	SEGMENT
?_Generic_object$initializer$@?$_Error_objects@H@std@@2P6AXXZA DD FLAT:??__E?_Generic_object@?$_Error_objects@H@std@@2V_Generic_error_category@2@A@@YAXXZ ; std::_Error_objects<int>::_Generic_object$initializer$
CRT$XCU	ENDS
;	COMDAT CRT$XCU
CRT$XCU	SEGMENT
?_Iostream_object$initializer$@?$_Error_objects@H@std@@2P6AXXZA DD FLAT:??__E?_Iostream_object@?$_Error_objects@H@std@@2V_Iostream_error_category@2@A@@YAXXZ ; std::_Error_objects<int>::_Iostream_object$initializer$
CRT$XCU	ENDS
;	COMDAT CRT$XCU
CRT$XCU	SEGMENT
?_System_object$initializer$@?$_Error_objects@H@std@@2P6AXXZA DD FLAT:??__E?_System_object@?$_Error_objects@H@std@@2V_System_error_category@2@A@@YAXXZ ; std::_Error_objects<int>::_System_object$initializer$
CRT$XCU	ENDS
;	COMDAT CRT$XCU
CRT$XCU	SEGMENT
?id$initializer$@?$num_put@DV?$back_insert_iterator@V?$basic_string@DU?$char_traits@D@std@@V?$allocator@D@2@@std@@@std@@@std@@2P6AXXZA DD FLAT:??__E?id@?$num_put@DV?$back_insert_iterator@V?$basic_string@DU?$char_traits@D@std@@V?$allocator@D@2@@std@@@std@@@std@@2V0locale@2@A@@YAXXZ ; std::num_put<char,std::back_insert_iterator<std::basic_string<char,std::char_traits<char>,std::allocator<char> > > >::id$initializer$
CRT$XCU	ENDS
;	COMDAT CRT$XCU
CRT$XCU	SEGMENT
?id$initializer$@?$num_put@_WV?$back_insert_iterator@V?$basic_string@_WU?$char_traits@_W@std@@V?$allocator@_W@2@@std@@@std@@@std@@2P6AXXZA DD FLAT:??__E?id@?$num_put@_WV?$back_insert_iterator@V?$basic_string@_WU?$char_traits@_W@std@@V?$allocator@_W@2@@std@@@std@@@std@@2V0locale@2@A@@YAXXZ ; std::num_put<wchar_t,std::back_insert_iterator<std::basic_string<wchar_t,std::char_traits<wchar_t>,std::allocator<wchar_t> > > >::id$initializer$
CRT$XCU	ENDS
;	COMDAT CRT$XCU
CRT$XCU	SEGMENT
?id$initializer$@?$numpunct@D@std@@2P6AXXZA DD FLAT:??__E?id@?$numpunct@D@std@@2V0locale@2@A@@YAXXZ ; std::numpunct<char>::id$initializer$
CRT$XCU	ENDS
;	COMDAT CRT$XCU
CRT$XCU	SEGMENT
?id$initializer$@?$numpunct@_W@std@@2P6AXXZA DD FLAT:??__E?id@?$numpunct@_W@std@@2V0locale@2@A@@YAXXZ ; std::numpunct<wchar_t>::id$initializer$
CRT$XCU	ENDS
; Function compile flags: /Odtp
; File c:\program files (x86)\microsoft visual studio 11.0\vc\include\xmemory0
;	COMDAT ??$destroy@PAD@?$allocator@D@std@@QAEXPAPAD@Z
_TEXT	SEGMENT
_this$ = -4						; size = 4
__Ptr$ = 8						; size = 4
??$destroy@PAD@?$allocator@D@std@@QAEXPAPAD@Z PROC	; std::allocator<char>::destroy<char *>, COMDAT
; _this$ = ecx

; 621  : 		void destroy(_Uty *_Ptr)

	push	ebp
	mov	ebp, esp
	push	ecx
	mov	DWORD PTR _this$[ebp], ecx

; 622  : 		{	// destroy object at _Ptr
; 623  : 		_Ptr->~_Uty();
; 624  : 		}

	mov	esp, ebp
	pop	ebp
	ret	4
??$destroy@PAD@?$allocator@D@std@@QAEXPAPAD@Z ENDP	; std::allocator<char>::destroy<char *>
_TEXT	ENDS
; Function compile flags: /Odtp
; File c:\program files (x86)\microsoft visual studio 11.0\vc\include\xmemory0
;	COMDAT ??$construct@PADAAPAD@?$allocator@D@std@@QAEXPAPADAAPAD@Z
_TEXT	SEGMENT
$T2 = -28						; size = 4
_this$ = -24						; size = 4
tv73 = -20						; size = 4
$T3 = -16						; size = 4
__$EHRec$ = -12						; size = 12
__Ptr$ = 8						; size = 4
__V0$ = 12						; size = 4
??$construct@PADAAPAD@?$allocator@D@std@@QAEXPAPADAAPAD@Z PROC ; std::allocator<char>::construct<char *,char * &>, COMDAT
; _this$ = ecx

; 617  : _VARIADIC_EXPAND_0X(_ALLOC_MEMBER_CONSTRUCT, , , , )

	push	ebp
	mov	ebp, esp
	push	-1
	push	__ehhandler$??$construct@PADAAPAD@?$allocator@D@std@@QAEXPAPADAAPAD@Z
	mov	eax, DWORD PTR fs:0
	push	eax
	sub	esp, 16					; 00000010H
	mov	eax, DWORD PTR ___security_cookie
	xor	eax, ebp
	push	eax
	lea	eax, DWORD PTR __$EHRec$[ebp]
	mov	DWORD PTR fs:0, eax
	mov	DWORD PTR _this$[ebp], ecx
	mov	eax, DWORD PTR __Ptr$[ebp]
	push	eax
	push	4
	call	??2@YAPAXIPAX@Z				; operator new
	add	esp, 8
	mov	DWORD PTR $T3[ebp], eax
	mov	DWORD PTR __$EHRec$[ebp+8], 0
	cmp	DWORD PTR $T3[ebp], 0
	je	SHORT $LN3@construct
	mov	ecx, DWORD PTR __V0$[ebp]
	push	ecx
	call	??$forward@AAPAD@std@@YAAAPADAAPAD@Z	; std::forward<char * &>
	add	esp, 4
	mov	edx, DWORD PTR $T3[ebp]
	mov	eax, DWORD PTR [eax]
	mov	DWORD PTR [edx], eax
	mov	ecx, DWORD PTR $T3[ebp]
	mov	DWORD PTR tv73[ebp], ecx
	jmp	SHORT $LN4@construct
$LN3@construct:
	mov	DWORD PTR tv73[ebp], 0
$LN4@construct:
	mov	edx, DWORD PTR tv73[ebp]
	mov	DWORD PTR $T2[ebp], edx
	mov	DWORD PTR __$EHRec$[ebp+8], -1
	mov	ecx, DWORD PTR __$EHRec$[ebp]
	mov	DWORD PTR fs:0, ecx
	pop	ecx
	mov	esp, ebp
	pop	ebp
	ret	8
_TEXT	ENDS
;	COMDAT text$x
text$x	SEGMENT
__unwindfunclet$??$construct@PADAAPAD@?$allocator@D@std@@QAEXPAPADAAPAD@Z$0:
	mov	eax, DWORD PTR __Ptr$[ebp]
	push	eax
	mov	eax, DWORD PTR $T3[ebp]
	push	eax
	call	??3@YAXPAX0@Z				; operator delete
	add	esp, 8
	ret	0
__ehhandler$??$construct@PADAAPAD@?$allocator@D@std@@QAEXPAPADAAPAD@Z:
	mov	edx, DWORD PTR [esp+8]
	lea	eax, DWORD PTR [edx+12]
	mov	ecx, DWORD PTR [edx-20]
	xor	ecx, eax
	call	@__security_check_cookie@4
	mov	eax, OFFSET __ehfuncinfo$??$construct@PADAAPAD@?$allocator@D@std@@QAEXPAPADAAPAD@Z
	jmp	___CxxFrameHandler3
text$x	ENDS
??$construct@PADAAPAD@?$allocator@D@std@@QAEXPAPADAAPAD@Z ENDP ; std::allocator<char>::construct<char *,char * &>
; Function compile flags: /Odtp
; File c:\program files (x86)\microsoft visual studio 11.0\vc\include\xlocnum
;	COMDAT ??__E?id@?$numpunct@_W@std@@2V0locale@2@A@@YAXXZ
text$yc	SEGMENT
??__E?id@?$numpunct@_W@std@@2V0locale@2@A@@YAXXZ PROC	; `dynamic initializer for 'std::numpunct<wchar_t>::id'', COMDAT

; 155  : 		void _Getvals(wchar_t, const lconv *_Ptr, _Locinfo::_Cvtvec)

	push	ebp
	mov	ebp, esp
	push	0
	mov	ecx, OFFSET ?id@?$numpunct@_W@std@@2V0locale@2@A ; std::numpunct<wchar_t>::id
	call	??0id@locale@std@@QAE@I@Z		; std::locale::id::id
	pop	ebp
	ret	0
??__E?id@?$numpunct@_W@std@@2V0locale@2@A@@YAXXZ ENDP	; `dynamic initializer for 'std::numpunct<wchar_t>::id''
text$yc	ENDS
; Function compile flags: /Odtp
; File c:\program files (x86)\microsoft visual studio 11.0\vc\include\xlocnum
;	COMDAT ??__E?id@?$numpunct@D@std@@2V0locale@2@A@@YAXXZ
text$yc	SEGMENT
??__E?id@?$numpunct@D@std@@2V0locale@2@A@@YAXXZ PROC	; `dynamic initializer for 'std::numpunct<char>::id'', COMDAT

; 155  : 		void _Getvals(wchar_t, const lconv *_Ptr, _Locinfo::_Cvtvec)

	push	ebp
	mov	ebp, esp
	push	0
	mov	ecx, OFFSET ?id@?$numpunct@D@std@@2V0locale@2@A ; std::numpunct<char>::id
	call	??0id@locale@std@@QAE@I@Z		; std::locale::id::id
	pop	ebp
	ret	0
??__E?id@?$numpunct@D@std@@2V0locale@2@A@@YAXXZ ENDP	; `dynamic initializer for 'std::numpunct<char>::id''
text$yc	ENDS
; Function compile flags: /Odtp
; File c:\program files (x86)\microsoft visual studio 11.0\vc\include\xlocnum
;	COMDAT ??__E?id@?$num_put@_WV?$back_insert_iterator@V?$basic_string@_WU?$char_traits@_W@std@@V?$allocator@_W@2@@std@@@std@@@std@@2V0locale@2@A@@YAXXZ
text$yc	SEGMENT
??__E?id@?$num_put@_WV?$back_insert_iterator@V?$basic_string@_WU?$char_traits@_W@std@@V?$allocator@_W@2@@std@@@std@@@std@@2V0locale@2@A@@YAXXZ PROC ; `dynamic initializer for 'std::num_put<wchar_t,std::back_insert_iterator<std::basic_string<wchar_t,std::char_traits<wchar_t>,std::allocator<wchar_t> > > >::id'', COMDAT

; 155  : 		void _Getvals(wchar_t, const lconv *_Ptr, _Locinfo::_Cvtvec)

	push	ebp
	mov	ebp, esp
	push	0
	mov	ecx, OFFSET ?id@?$num_put@_WV?$back_insert_iterator@V?$basic_string@_WU?$char_traits@_W@std@@V?$allocator@_W@2@@std@@@std@@@std@@2V0locale@2@A ; std::num_put<wchar_t,std::back_insert_iterator<std::basic_string<wchar_t,std::char_traits<wchar_t>,std::allocator<wchar_t> > > >::id
	call	??0id@locale@std@@QAE@I@Z		; std::locale::id::id
	pop	ebp
	ret	0
??__E?id@?$num_put@_WV?$back_insert_iterator@V?$basic_string@_WU?$char_traits@_W@std@@V?$allocator@_W@2@@std@@@std@@@std@@2V0locale@2@A@@YAXXZ ENDP ; `dynamic initializer for 'std::num_put<wchar_t,std::back_insert_iterator<std::basic_string<wchar_t,std::char_traits<wchar_t>,std::allocator<wchar_t> > > >::id''
text$yc	ENDS
; Function compile flags: /Odtp
; File c:\program files (x86)\microsoft visual studio 11.0\vc\include\xlocnum
;	COMDAT ??__E?id@?$num_put@DV?$back_insert_iterator@V?$basic_string@DU?$char_traits@D@std@@V?$allocator@D@2@@std@@@std@@@std@@2V0locale@2@A@@YAXXZ
text$yc	SEGMENT
??__E?id@?$num_put@DV?$back_insert_iterator@V?$basic_string@DU?$char_traits@D@std@@V?$allocator@D@2@@std@@@std@@@std@@2V0locale@2@A@@YAXXZ PROC ; `dynamic initializer for 'std::num_put<char,std::back_insert_iterator<std::basic_string<char,std::char_traits<char>,std::allocator<char> > > >::id'', COMDAT

; 155  : 		void _Getvals(wchar_t, const lconv *_Ptr, _Locinfo::_Cvtvec)

	push	ebp
	mov	ebp, esp
	push	0
	mov	ecx, OFFSET ?id@?$num_put@DV?$back_insert_iterator@V?$basic_string@DU?$char_traits@D@std@@V?$allocator@D@2@@std@@@std@@@std@@2V0locale@2@A ; std::num_put<char,std::back_insert_iterator<std::basic_string<char,std::char_traits<char>,std::allocator<char> > > >::id
	call	??0id@locale@std@@QAE@I@Z		; std::locale::id::id
	pop	ebp
	ret	0
??__E?id@?$num_put@DV?$back_insert_iterator@V?$basic_string@DU?$char_traits@D@std@@V?$allocator@D@2@@std@@@std@@@std@@2V0locale@2@A@@YAXXZ ENDP ; `dynamic initializer for 'std::num_put<char,std::back_insert_iterator<std::basic_string<char,std::char_traits<char>,std::allocator<char> > > >::id''
text$yc	ENDS
; Function compile flags: /Odtp
; File c:\program files (x86)\microsoft visual studio 11.0\vc\include\xmemory0
;	COMDAT ??$destroy@PAD@?$allocator_traits@V?$allocator@D@std@@@std@@SAXAAV?$allocator@D@1@PAPAD@Z
_TEXT	SEGMENT
__Al$ = 8						; size = 4
__Ptr$ = 12						; size = 4
??$destroy@PAD@?$allocator_traits@V?$allocator@D@std@@@std@@SAXAAV?$allocator@D@1@PAPAD@Z PROC ; std::allocator_traits<std::allocator<char> >::destroy<char *>, COMDAT

; 755  : 		static void destroy(_Alloc& _Al, _Uty *_Ptr)

	push	ebp
	mov	ebp, esp

; 756  : 		{	// destroy object at _Ptr
; 757  : 		_Al.destroy(_Ptr);

	mov	eax, DWORD PTR __Ptr$[ebp]
	push	eax
	mov	ecx, DWORD PTR __Al$[ebp]
	call	??$destroy@PAD@?$allocator@D@std@@QAEXPAPAD@Z ; std::allocator<char>::destroy<char *>

; 758  : 		}

	pop	ebp
	ret	0
??$destroy@PAD@?$allocator_traits@V?$allocator@D@std@@@std@@SAXAAV?$allocator@D@1@PAPAD@Z ENDP ; std::allocator_traits<std::allocator<char> >::destroy<char *>
_TEXT	ENDS
; Function compile flags: /Odtp
; File c:\program files (x86)\microsoft visual studio 11.0\vc\include\xmemory0
;	COMDAT ??$construct@PADAAPAD@?$allocator_traits@V?$allocator@D@std@@@std@@SAXAAV?$allocator@D@1@PAPADAAPAD@Z
_TEXT	SEGMENT
__Al$ = 8						; size = 4
__Ptr$ = 12						; size = 4
__V0$ = 16						; size = 4
??$construct@PADAAPAD@?$allocator_traits@V?$allocator@D@std@@@std@@SAXAAV?$allocator@D@1@PAPADAAPAD@Z PROC ; std::allocator_traits<std::allocator<char> >::construct<char *,char * &>, COMDAT

; 751  : _VARIADIC_EXPAND_0X(_ALLOC_TRAITS_SPECIAL_CONSTRUCT, , , , )

	push	ebp
	mov	ebp, esp
	mov	eax, DWORD PTR __V0$[ebp]
	push	eax
	call	??$forward@AAPAD@std@@YAAAPADAAPAD@Z	; std::forward<char * &>
	add	esp, 4
	push	eax
	mov	ecx, DWORD PTR __Ptr$[ebp]
	push	ecx
	mov	ecx, DWORD PTR __Al$[ebp]
	call	??$construct@PADAAPAD@?$allocator@D@std@@QAEXPAPADAAPAD@Z ; std::allocator<char>::construct<char *,char * &>
	pop	ebp
	ret	0
??$construct@PADAAPAD@?$allocator_traits@V?$allocator@D@std@@@std@@SAXAAV?$allocator@D@1@PAPADAAPAD@Z ENDP ; std::allocator_traits<std::allocator<char> >::construct<char *,char * &>
_TEXT	ENDS
; Function compile flags: /Odtp
; File c:\program files (x86)\microsoft visual studio 11.0\vc\include\type_traits
;	COMDAT ??$forward@AAPAD@std@@YAAAPADAAPAD@Z
_TEXT	SEGMENT
__Arg$ = 8						; size = 4
??$forward@AAPAD@std@@YAAAPADAAPAD@Z PROC		; std::forward<char * &>, COMDAT

; 1775 : 	{	// forward an lvalue

	push	ebp
	mov	ebp, esp

; 1776 : 	return (static_cast<_Ty&&>(_Arg));

	mov	eax, DWORD PTR __Arg$[ebp]

; 1777 : 	}

	pop	ebp
	ret	0
??$forward@AAPAD@std@@YAAAPADAAPAD@Z ENDP		; std::forward<char * &>
_TEXT	ENDS
; Function compile flags: /Odtp
;	COMDAT ??__F?_System_object@?$_Error_objects@H@std@@2V_System_error_category@2@A@@YAXXZ
text$yd	SEGMENT
??__F?_System_object@?$_Error_objects@H@std@@2V_System_error_category@2@A@@YAXXZ PROC ; `dynamic atexit destructor for 'std::_Error_objects<int>::_System_object'', COMDAT
	push	ebp
	mov	ebp, esp
	mov	ecx, OFFSET ?_System_object@?$_Error_objects@H@std@@2V_System_error_category@2@A ; std::_Error_objects<int>::_System_object
	call	??1_System_error_category@std@@UAE@XZ
	pop	ebp
	ret	0
??__F?_System_object@?$_Error_objects@H@std@@2V_System_error_category@2@A@@YAXXZ ENDP ; `dynamic atexit destructor for 'std::_Error_objects<int>::_System_object''
text$yd	ENDS
; Function compile flags: /Odtp
; File c:\program files (x86)\microsoft visual studio 11.0\vc\include\xmemory0
;	COMDAT ??__E?_System_object@?$_Error_objects@H@std@@2V_System_error_category@2@A@@YAXXZ
text$yc	SEGMENT
??__E?_System_object@?$_Error_objects@H@std@@2V_System_error_category@2@A@@YAXXZ PROC ; `dynamic initializer for 'std::_Error_objects<int>::_System_object'', COMDAT

; 627  : 		{	// estimate maximum array size

	push	ebp
	mov	ebp, esp
	mov	ecx, OFFSET ?_System_object@?$_Error_objects@H@std@@2V_System_error_category@2@A ; std::_Error_objects<int>::_System_object
	call	??0_System_error_category@std@@QAE@XZ	; std::_System_error_category::_System_error_category
	push	OFFSET ??__F?_System_object@?$_Error_objects@H@std@@2V_System_error_category@2@A@@YAXXZ ; `dynamic atexit destructor for 'std::_Error_objects<int>::_System_object''
	call	_atexit
	add	esp, 4
	pop	ebp
	ret	0
??__E?_System_object@?$_Error_objects@H@std@@2V_System_error_category@2@A@@YAXXZ ENDP ; `dynamic initializer for 'std::_Error_objects<int>::_System_object''
text$yc	ENDS
; Function compile flags: /Odtp
;	COMDAT ??__F?_Iostream_object@?$_Error_objects@H@std@@2V_Iostream_error_category@2@A@@YAXXZ
text$yd	SEGMENT
??__F?_Iostream_object@?$_Error_objects@H@std@@2V_Iostream_error_category@2@A@@YAXXZ PROC ; `dynamic atexit destructor for 'std::_Error_objects<int>::_Iostream_object'', COMDAT
	push	ebp
	mov	ebp, esp
	mov	ecx, OFFSET ?_Iostream_object@?$_Error_objects@H@std@@2V_Iostream_error_category@2@A ; std::_Error_objects<int>::_Iostream_object
	call	??1_Iostream_error_category@std@@UAE@XZ
	pop	ebp
	ret	0
??__F?_Iostream_object@?$_Error_objects@H@std@@2V_Iostream_error_category@2@A@@YAXXZ ENDP ; `dynamic atexit destructor for 'std::_Error_objects<int>::_Iostream_object''
text$yd	ENDS
; Function compile flags: /Odtp
; File c:\program files (x86)\microsoft visual studio 11.0\vc\include\xmemory0
;	COMDAT ??__E?_Iostream_object@?$_Error_objects@H@std@@2V_Iostream_error_category@2@A@@YAXXZ
text$yc	SEGMENT
??__E?_Iostream_object@?$_Error_objects@H@std@@2V_Iostream_error_category@2@A@@YAXXZ PROC ; `dynamic initializer for 'std::_Error_objects<int>::_Iostream_object'', COMDAT

; 627  : 		{	// estimate maximum array size

	push	ebp
	mov	ebp, esp
	mov	ecx, OFFSET ?_Iostream_object@?$_Error_objects@H@std@@2V_Iostream_error_category@2@A ; std::_Error_objects<int>::_Iostream_object
	call	??0_Iostream_error_category@std@@QAE@XZ	; std::_Iostream_error_category::_Iostream_error_category
	push	OFFSET ??__F?_Iostream_object@?$_Error_objects@H@std@@2V_Iostream_error_category@2@A@@YAXXZ ; `dynamic atexit destructor for 'std::_Error_objects<int>::_Iostream_object''
	call	_atexit
	add	esp, 4
	pop	ebp
	ret	0
??__E?_Iostream_object@?$_Error_objects@H@std@@2V_Iostream_error_category@2@A@@YAXXZ ENDP ; `dynamic initializer for 'std::_Error_objects<int>::_Iostream_object''
text$yc	ENDS
; Function compile flags: /Odtp
;	COMDAT ??__F?_Generic_object@?$_Error_objects@H@std@@2V_Generic_error_category@2@A@@YAXXZ
text$yd	SEGMENT
??__F?_Generic_object@?$_Error_objects@H@std@@2V_Generic_error_category@2@A@@YAXXZ PROC ; `dynamic atexit destructor for 'std::_Error_objects<int>::_Generic_object'', COMDAT
	push	ebp
	mov	ebp, esp
	mov	ecx, OFFSET ?_Generic_object@?$_Error_objects@H@std@@2V_Generic_error_category@2@A ; std::_Error_objects<int>::_Generic_object
	call	??1_Generic_error_category@std@@UAE@XZ
	pop	ebp
	ret	0
??__F?_Generic_object@?$_Error_objects@H@std@@2V_Generic_error_category@2@A@@YAXXZ ENDP ; `dynamic atexit destructor for 'std::_Error_objects<int>::_Generic_object''
text$yd	ENDS
; Function compile flags: /Odtp
; File c:\program files (x86)\microsoft visual studio 11.0\vc\include\xmemory0
;	COMDAT ??__E?_Generic_object@?$_Error_objects@H@std@@2V_Generic_error_category@2@A@@YAXXZ
text$yc	SEGMENT
??__E?_Generic_object@?$_Error_objects@H@std@@2V_Generic_error_category@2@A@@YAXXZ PROC ; `dynamic initializer for 'std::_Error_objects<int>::_Generic_object'', COMDAT

; 627  : 		{	// estimate maximum array size

	push	ebp
	mov	ebp, esp
	mov	ecx, OFFSET ?_Generic_object@?$_Error_objects@H@std@@2V_Generic_error_category@2@A ; std::_Error_objects<int>::_Generic_object
	call	??0_Generic_error_category@std@@QAE@XZ	; std::_Generic_error_category::_Generic_error_category
	push	OFFSET ??__F?_Generic_object@?$_Error_objects@H@std@@2V_Generic_error_category@2@A@@YAXXZ ; `dynamic atexit destructor for 'std::_Error_objects<int>::_Generic_object''
	call	_atexit
	add	esp, 4
	pop	ebp
	ret	0
??__E?_Generic_object@?$_Error_objects@H@std@@2V_Generic_error_category@2@A@@YAXXZ ENDP ; `dynamic initializer for 'std::_Error_objects<int>::_Generic_object''
text$yc	ENDS
; Function compile flags: /Odtp
; File c:\program files (x86)\microsoft visual studio 11.0\vc\include\xmemory0
;	COMDAT ??$_Allocate@D@std@@YAPADIPAD@Z
_TEXT	SEGMENT
__Ptr$ = -4						; size = 4
__Count$ = 8						; size = 4
___formal$ = 12						; size = 4
??$_Allocate@D@std@@YAPADIPAD@Z PROC			; std::_Allocate<char>, COMDAT

; 22   : 	{	// allocate storage for _Count elements of type _Ty

	push	ebp
	mov	ebp, esp
	push	ecx

; 23   : 	void *_Ptr = 0;

	mov	DWORD PTR __Ptr$[ebp], 0

; 24   : 
; 25   : 	if (_Count == 0)

	cmp	DWORD PTR __Count$[ebp], 0
	jne	SHORT $LN4@Allocate

; 26   : 		;
; 27   : 	else if (((size_t)(-1) / sizeof (_Ty) < _Count)

	jmp	SHORT $LN3@Allocate
$LN4@Allocate:

; 28   : 		|| (_Ptr = ::operator new(_Count * sizeof (_Ty))) == 0)

	cmp	DWORD PTR __Count$[ebp], -1
	ja	SHORT $LN1@Allocate
	mov	eax, DWORD PTR __Count$[ebp]
	push	eax
	call	??2@YAPAXI@Z				; operator new
	add	esp, 4
	mov	DWORD PTR __Ptr$[ebp], eax
	cmp	DWORD PTR __Ptr$[ebp], 0
	jne	SHORT $LN3@Allocate
$LN1@Allocate:

; 29   : 		_Xbad_alloc();	// report no memory

	call	?_Xbad_alloc@std@@YAXXZ			; std::_Xbad_alloc
$LN3@Allocate:

; 30   : 
; 31   : 	return ((_Ty *)_Ptr);

	mov	eax, DWORD PTR __Ptr$[ebp]
$LN6@Allocate:

; 32   : 	}

	mov	esp, ebp
	pop	ebp
	ret	0
??$_Allocate@D@std@@YAPADIPAD@Z ENDP			; std::_Allocate<char>
_TEXT	ENDS
; Function compile flags: /Odtp
; File c:\program files (x86)\microsoft visual studio 11.0\vc\include\xstddef
;	COMDAT ??$addressof@D@std@@YAPADAAD@Z
_TEXT	SEGMENT
__Val$ = 8						; size = 4
??$addressof@D@std@@YAPADAAD@Z PROC			; std::addressof<char>, COMDAT

; 85   : 	{	// return address of _Val

	push	ebp
	mov	ebp, esp

; 86   : 	return (reinterpret_cast<_Ty *>(
; 87   : 		(&const_cast<char&>(
; 88   : 		reinterpret_cast<const volatile char&>(_Val)))));

	mov	eax, DWORD PTR __Val$[ebp]

; 89   : 	}

	pop	ebp
	ret	0
??$addressof@D@std@@YAPADAAD@Z ENDP			; std::addressof<char>
_TEXT	ENDS
; Function compile flags: /Odtp
; File c:\program files (x86)\microsoft visual studio 11.0\vc\include\xmemory0
;	COMDAT ??$destroy@PAD@?$_Wrap_alloc@V?$allocator@D@std@@@std@@QAEXPAPAD@Z
_TEXT	SEGMENT
_this$ = -4						; size = 4
__Ptr$ = 8						; size = 4
??$destroy@PAD@?$_Wrap_alloc@V?$allocator@D@std@@@std@@QAEXPAPAD@Z PROC ; std::_Wrap_alloc<std::allocator<char> >::destroy<char *>, COMDAT
; _this$ = ecx

; 907  : 		void destroy(_Ty *_Ptr)

	push	ebp
	mov	ebp, esp
	push	ecx
	mov	DWORD PTR _this$[ebp], ecx

; 908  : 		{	// destroy object at _Ptr
; 909  : 		_Mytraits::destroy(*this, _Ptr);

	mov	eax, DWORD PTR __Ptr$[ebp]
	push	eax
	mov	ecx, DWORD PTR _this$[ebp]
	push	ecx
	call	??$destroy@PAD@?$allocator_traits@V?$allocator@D@std@@@std@@SAXAAV?$allocator@D@1@PAPAD@Z ; std::allocator_traits<std::allocator<char> >::destroy<char *>
	add	esp, 8

; 910  : 		}

	mov	esp, ebp
	pop	ebp
	ret	4
??$destroy@PAD@?$_Wrap_alloc@V?$allocator@D@std@@@std@@QAEXPAPAD@Z ENDP ; std::_Wrap_alloc<std::allocator<char> >::destroy<char *>
_TEXT	ENDS
; Function compile flags: /Odtp
; File c:\program files (x86)\microsoft visual studio 11.0\vc\include\xmemory0
;	COMDAT ??$construct@PADAAPAD@?$_Wrap_alloc@V?$allocator@D@std@@@std@@QAEXPAPADAAPAD@Z
_TEXT	SEGMENT
_this$ = -4						; size = 4
__Ptr$ = 8						; size = 4
__V0$ = 12						; size = 4
??$construct@PADAAPAD@?$_Wrap_alloc@V?$allocator@D@std@@@std@@QAEXPAPADAAPAD@Z PROC ; std::_Wrap_alloc<std::allocator<char> >::construct<char *,char * &>, COMDAT
; _this$ = ecx

; 903  : _VARIADIC_EXPAND_0X(_WRAP_ALLOC_CONSTRUCT, , , , )

	push	ebp
	mov	ebp, esp
	push	ecx
	mov	DWORD PTR _this$[ebp], ecx
	mov	eax, DWORD PTR __V0$[ebp]
	push	eax
	call	??$forward@AAPAD@std@@YAAAPADAAPAD@Z	; std::forward<char * &>
	add	esp, 4
	push	eax
	mov	ecx, DWORD PTR __Ptr$[ebp]
	push	ecx
	mov	edx, DWORD PTR _this$[ebp]
	push	edx
	call	??$construct@PADAAPAD@?$allocator_traits@V?$allocator@D@std@@@std@@SAXAAV?$allocator@D@1@PAPADAAPAD@Z ; std::allocator_traits<std::allocator<char> >::construct<char *,char * &>
	add	esp, 12					; 0000000cH
	mov	esp, ebp
	pop	ebp
	ret	8
??$construct@PADAAPAD@?$_Wrap_alloc@V?$allocator@D@std@@@std@@QAEXPAPADAAPAD@Z ENDP ; std::_Wrap_alloc<std::allocator<char> >::construct<char *,char * &>
_TEXT	ENDS
; Function compile flags: /Odtp
; File c:\users\zhitao li\documents\visual studio 2012\projects\freefalcon\ui95\cparser.cpp
_TEXT	SEGMENT
_size$ = -4						; size = 4
_fp$ = 8						; size = 4
?UI_FILESIZE@@YAJPAU_iobuf@@@Z PROC			; UI_FILESIZE

; 39   : {

	push	ebp
	mov	ebp, esp
	push	ecx

; 40   : 	long size=0;

	mov	DWORD PTR _size$[ebp], 0

; 41   : 
; 42   : 	if(UI_SEEK(fp,0l,SEEK_END))

	push	2
	push	0
	mov	eax, DWORD PTR _fp$[ebp]
	push	eax
	call	_ResFSeek
	add	esp, 12					; 0000000cH
	test	eax, eax
	je	SHORT $LN2@UI_FILESIZ

; 43   : 		return(0);

	xor	eax, eax
	jmp	SHORT $LN3@UI_FILESIZ
$LN2@UI_FILESIZ:

; 44   : 
; 45   : 	size=UI_TELL(fp);

	mov	ecx, DWORD PTR _fp$[ebp]
	push	ecx
	call	_ResFTell
	add	esp, 4
	mov	DWORD PTR _size$[ebp], eax

; 46   : 
; 47   : 	if(UI_SEEK(fp,0l,SEEK_SET))

	push	0
	push	0
	mov	edx, DWORD PTR _fp$[ebp]
	push	edx
	call	_ResFSeek
	add	esp, 12					; 0000000cH
	test	eax, eax
	je	SHORT $LN1@UI_FILESIZ

; 48   : 		return(0);

	xor	eax, eax
	jmp	SHORT $LN3@UI_FILESIZ
$LN1@UI_FILESIZ:

; 49   : 
; 50   : 	return(size);

	mov	eax, DWORD PTR _size$[ebp]
$LN3@UI_FILESIZ:

; 51   : }

	mov	esp, ebp
	pop	ebp
	ret	0
?UI_FILESIZE@@YAJPAU_iobuf@@@Z ENDP			; UI_FILESIZE
_TEXT	ENDS
; Function compile flags: /Odtp
; File c:\users\zhitao li\documents\visual studio 2012\projects\freefalcon\ui95\cwindow.h
;	COMDAT ?GetID@C_Window@@QAEJXZ
_TEXT	SEGMENT
_this$ = -4						; size = 4
?GetID@C_Window@@QAEJXZ PROC				; C_Window::GetID, COMDAT
; _this$ = ecx

; 302  : 		long GetID() { return(ID_); }

	push	ebp
	mov	ebp, esp
	push	ecx
	mov	DWORD PTR _this$[ebp], ecx
	mov	eax, DWORD PTR _this$[ebp]
	mov	eax, DWORD PTR [eax]
	mov	esp, ebp
	pop	ebp
	ret	0
?GetID@C_Window@@QAEJXZ ENDP				; C_Window::GetID
_TEXT	ENDS
; Function compile flags: /Odtp
; File c:\users\zhitao li\documents\visual studio 2012\projects\freefalcon\ui95\cwindow.h
;	COMDAT ?GetFlags@C_Window@@QAEJXZ
_TEXT	SEGMENT
_this$ = -4						; size = 4
?GetFlags@C_Window@@QAEJXZ PROC				; C_Window::GetFlags, COMDAT
; _this$ = ecx

; 264  : 		long GetFlags() { return(Flags_); }

	push	ebp
	mov	ebp, esp
	push	ecx
	mov	DWORD PTR _this$[ebp], ecx
	mov	eax, DWORD PTR _this$[ebp]
	mov	eax, DWORD PTR [eax+4]
	mov	esp, ebp
	pop	ebp
	ret	0
?GetFlags@C_Window@@QAEJXZ ENDP				; C_Window::GetFlags
_TEXT	ENDS
; Function compile flags: /Odtp
; File c:\users\zhitao li\documents\visual studio 2012\projects\freefalcon\ui95\cparser.cpp
_TEXT	SEGMENT
_this$ = -4						; size = 4
_str$ = 8						; size = 4
?LogError@C_Parser@@QAEXPAD@Z PROC			; C_Parser::LogError
; _this$ = ecx

; 4272 : {

	push	ebp
	mov	ebp, esp
	push	ecx
	mov	DWORD PTR _this$[ebp], ecx

; 4273 :     if (g_bLogUiErrors) {

	movzx	eax, BYTE PTR ?g_bLogUiErrors@@3_NA	; g_bLogUiErrors
	test	eax, eax
	je	SHORT $LN3@LogError

; 4274 : 	if(Perror_)

	mov	ecx, DWORD PTR _this$[ebp]
	cmp	DWORD PTR [ecx+952], 0
	je	SHORT $LN3@LogError

; 4275 : 	    fprintf(Perror_,"%s\n",str);

	mov	edx, DWORD PTR _str$[ebp]
	push	edx
	push	OFFSET ??_C@_03OFAPEBGM@?$CFs?6?$AA@
	mov	eax, DWORD PTR _this$[ebp]
	mov	ecx, DWORD PTR [eax+952]
	push	ecx
	call	_fprintf
	add	esp, 12					; 0000000cH
$LN3@LogError:

; 4276 :     }
; 4277 : }

	mov	esp, ebp
	pop	ebp
	ret	4
?LogError@C_Parser@@QAEXPAD@Z ENDP			; C_Parser::LogError
_TEXT	ENDS
; Function compile flags: /Odtp
; File c:\users\zhitao li\documents\visual studio 2012\projects\freefalcon\ui95\cparser.cpp
_TEXT	SEGMENT
_this$ = -4						; size = 4
_label$ = 8						; size = 4
___formal$ = 12						; size = 4
?AddNewID@C_Parser@@QAEJPADJ@Z PROC			; C_Parser::AddNewID
; _this$ = ecx

; 1472 : {

	push	ebp
	mov	ebp, esp
	push	ecx
	mov	DWORD PTR _this$[ebp], ecx

; 1473 : 	return(TokenOrder_->AddText(label));

	mov	eax, DWORD PTR _label$[ebp]
	push	eax
	mov	ecx, DWORD PTR _this$[ebp]
	mov	ecx, DWORD PTR [ecx+908]
	call	?AddText@C_Hash@@QAEJPBD@Z		; C_Hash::AddText

; 1474 : }

	mov	esp, ebp
	pop	ebp
	ret	8
?AddNewID@C_Parser@@QAEJPADJ@Z ENDP			; C_Parser::AddNewID
_TEXT	ENDS
; Function compile flags: /Odtp
; File c:\users\zhitao li\documents\visual studio 2012\projects\freefalcon\ui95\cparser.cpp
_TEXT	SEGMENT
tv204 = -68						; size = 4
$T2 = -64						; size = 4
tv88 = -60						; size = 4
tv74 = -56						; size = 4
$T3 = -52						; size = 4
_TokenID$ = -48						; size = 4
_InString$ = -44					; size = 4
tv131 = -40						; size = 4
_this$ = -36						; size = 4
_TokenType$ = -32					; size = 2
_Found$ = -28						; size = 2
_Comment$ = -24						; size = 2
_Section$ = -20						; size = 2
_Done$ = -16						; size = 2
__$EHRec$ = -12						; size = 12
_filename$ = 8						; size = 4
?ParsePopupMenu@C_Parser@@QAEPAVC_Base@@PAD@Z PROC	; C_Parser::ParsePopupMenu
; _this$ = ecx

; 3992 : {

	push	ebp
	mov	ebp, esp
	push	-1
	push	__ehhandler$?ParsePopupMenu@C_Parser@@QAEPAVC_Base@@PAD@Z
	mov	eax, DWORD PTR fs:0
	push	eax
	sub	esp, 56					; 00000038H
	mov	eax, DWORD PTR ___security_cookie
	xor	eax, ebp
	push	eax
	lea	eax, DWORD PTR __$EHRec$[ebp]
	mov	DWORD PTR fs:0, eax
	mov	DWORD PTR _this$[ebp], ecx

; 3993 : 	//short Finished=0;
; 3994 : 	short Done=0,Comment=0,Found=0;

	xor	eax, eax
	mov	WORD PTR _Done$[ebp], ax
	xor	ecx, ecx
	mov	WORD PTR _Comment$[ebp], cx
	xor	edx, edx
	mov	WORD PTR _Found$[ebp], dx

; 3995 : 	short Section=0,TokenType=0;

	xor	eax, eax
	mov	WORD PTR _Section$[ebp], ax
	xor	ecx, ecx
	mov	WORD PTR _TokenType$[ebp], cx

; 3996 : 	int InString=0;

	mov	DWORD PTR _InString$[ebp], 0

; 3997 : 	long TokenID=0;

	mov	DWORD PTR _TokenID$[ebp], 0

; 3998 : 
; 3999 : 
; 4000 : 	if(Popup_ == NULL)

	mov	edx, DWORD PTR _this$[ebp]
	cmp	DWORD PTR [edx+92], 0
	jne	SHORT $LN28@ParsePopup

; 4001 : 	{
; 4002 : 		Popup_=new C_PopupMgr;

	push	32					; 00000020H
	call	??2@YAPAXI@Z				; operator new
	add	esp, 4
	mov	DWORD PTR $T3[ebp], eax
	mov	DWORD PTR __$EHRec$[ebp+8], 0
	cmp	DWORD PTR $T3[ebp], 0
	je	SHORT $LN31@ParsePopup
	mov	ecx, DWORD PTR $T3[ebp]
	call	??0C_PopupMgr@@QAE@XZ			; C_PopupMgr::C_PopupMgr
	mov	DWORD PTR tv74[ebp], eax
	jmp	SHORT $LN32@ParsePopup
$LN31@ParsePopup:
	mov	DWORD PTR tv74[ebp], 0
$LN32@ParsePopup:
	mov	eax, DWORD PTR tv74[ebp]
	mov	DWORD PTR $T2[ebp], eax
	mov	DWORD PTR __$EHRec$[ebp+8], -1
	mov	ecx, DWORD PTR _this$[ebp]
	mov	edx, DWORD PTR $T2[ebp]
	mov	DWORD PTR [ecx+92], edx

; 4003 : 		Popup_->Setup(Handler_);

	mov	eax, DWORD PTR _this$[ebp]
	mov	ecx, DWORD PTR [eax+64]
	push	ecx
	mov	edx, DWORD PTR _this$[ebp]
	mov	ecx, DWORD PTR [edx+92]
	call	?Setup@C_PopupMgr@@QAEXPAVC_Handler@@@Z	; C_PopupMgr::Setup
$LN28@ParsePopup:

; 4004 : 	}
; 4005 : 
; 4006 : 	if(LoadScript(filename) == FALSE)

	mov	eax, DWORD PTR _filename$[ebp]
	push	eax
	mov	ecx, DWORD PTR _this$[ebp]
	call	?LoadScript@C_Parser@@QAEHPAD@Z		; C_Parser::LoadScript
	test	eax, eax
	jne	SHORT $LN27@ParsePopup

; 4007 : 		return(FALSE);

	xor	eax, eax
	jmp	$LN29@ParsePopup
$LN27@ParsePopup:

; 4008 : 
; 4009 : 	Idx_=0;

	mov	ecx, DWORD PTR _this$[ebp]
	mov	DWORD PTR [ecx], 0

; 4010 : 	P_Idx_=0;

	xor	edx, edx
	mov	eax, DWORD PTR _this$[ebp]
	mov	WORD PTR [eax+958], dx

; 4011 : 	tokenlen_=0;

	xor	ecx, ecx
	mov	edx, DWORD PTR _this$[ebp]
	mov	WORD PTR [edx+956], cx

; 4012 : 
; 4013 : 	Done=0;

	xor	eax, eax
	mov	WORD PTR _Done$[ebp], ax

; 4014 : 	Comment=0;

	xor	ecx, ecx
	mov	WORD PTR _Comment$[ebp], cx

; 4015 : 	InString=0;

	mov	DWORD PTR _InString$[ebp], 0

; 4016 : 	Section=SECTION_FINDTOKEN;

	xor	edx, edx
	mov	WORD PTR _Section$[ebp], dx

; 4017 : 	TokenType=TOKEN_NOTHING;

	xor	eax, eax
	mov	WORD PTR _TokenType$[ebp], ax
$LN26@ParsePopup:

; 4018 : 
; 4019 : 	while(!Done)

	movsx	ecx, WORD PTR _Done$[ebp]
	test	ecx, ecx
	jne	$LN25@ParsePopup

; 4020 : 	{
; 4021 : 		switch(Section)

	movsx	edx, WORD PTR _Section$[ebp]
	mov	DWORD PTR tv88[ebp], edx
	cmp	DWORD PTR tv88[ebp], 0
	je	SHORT $LN22@ParsePopup
	cmp	DWORD PTR tv88[ebp], 1
	je	$LN6@ParsePopup
	jmp	$LN23@ParsePopup
$LN22@ParsePopup:

; 4022 : 		{
; 4023 : 			case SECTION_FINDTOKEN:
; 4024 : 			// Look for token starting with '['
; 4025 : 				Found=0;

	xor	eax, eax
	mov	WORD PTR _Found$[ebp], ax
$LN21@ParsePopup:

; 4026 : 				while(!Found && !Done)

	movsx	ecx, WORD PTR _Found$[ebp]
	test	ecx, ecx
	jne	$LN20@ParsePopup
	movsx	edx, WORD PTR _Done$[ebp]
	test	edx, edx
	jne	$LN20@ParsePopup

; 4027 : 				{
; 4028 : 					switch(script_[Idx_])

	mov	eax, DWORD PTR _this$[ebp]
	mov	ecx, DWORD PTR [eax]
	mov	edx, DWORD PTR _this$[ebp]
	mov	eax, DWORD PTR [edx+4]
	movsx	ecx, BYTE PTR [eax+ecx]
	mov	DWORD PTR tv131[ebp], ecx
	mov	edx, DWORD PTR tv131[ebp]
	sub	edx, 10					; 0000000aH
	mov	DWORD PTR tv131[ebp], edx
	cmp	DWORD PTR tv131[ebp], 81		; 00000051H
	ja	$LN12@ParsePopup
	mov	eax, DWORD PTR tv131[ebp]
	movzx	ecx, BYTE PTR $LN34@ParsePopup[eax]
	jmp	DWORD PTR $LN36@ParsePopup[ecx*4]
$LN17@ParsePopup:

; 4029 : 					{
; 4030 : 						case '[':
; 4031 : 							if(!Comment && !InString)

	movsx	edx, WORD PTR _Comment$[ebp]
	test	edx, edx
	jne	SHORT $LN16@ParsePopup
	cmp	DWORD PTR _InString$[ebp], 0
	jne	SHORT $LN16@ParsePopup

; 4032 : 							{
; 4033 : 								Found=1;

	mov	eax, 1
	mov	WORD PTR _Found$[ebp], ax

; 4034 : 								break;

	jmp	SHORT $LN18@ParsePopup
$LN16@ParsePopup:

; 4035 : 							}
; 4036 : 							Idx_++;

	mov	ecx, DWORD PTR _this$[ebp]
	mov	edx, DWORD PTR [ecx]
	add	edx, 1
	mov	eax, DWORD PTR _this$[ebp]
	mov	DWORD PTR [eax], edx

; 4037 : 							break;

	jmp	SHORT $LN18@ParsePopup
$LN15@ParsePopup:

; 4038 : 						case '"':
; 4039 : 							InString=1-InString;

	mov	ecx, 1
	sub	ecx, DWORD PTR _InString$[ebp]
	mov	DWORD PTR _InString$[ebp], ecx

; 4040 : 							Idx_++;

	mov	edx, DWORD PTR _this$[ebp]
	mov	eax, DWORD PTR [edx]
	add	eax, 1
	mov	ecx, DWORD PTR _this$[ebp]
	mov	DWORD PTR [ecx], eax

; 4041 : 							break;

	jmp	SHORT $LN18@ParsePopup
$LN14@ParsePopup:

; 4042 : 						case '#':
; 4043 : 							Comment=1;

	mov	edx, 1
	mov	WORD PTR _Comment$[ebp], dx

; 4044 : 							Idx_++;

	mov	eax, DWORD PTR _this$[ebp]
	mov	ecx, DWORD PTR [eax]
	add	ecx, 1
	mov	edx, DWORD PTR _this$[ebp]
	mov	DWORD PTR [edx], ecx

; 4045 : 							break;

	jmp	SHORT $LN18@ParsePopup
$LN13@ParsePopup:

; 4046 : 						case 0x0a: case 0x0d:
; 4047 : 							Comment=0;

	xor	eax, eax
	mov	WORD PTR _Comment$[ebp], ax

; 4048 : 							Idx_++;

	mov	ecx, DWORD PTR _this$[ebp]
	mov	edx, DWORD PTR [ecx]
	add	edx, 1
	mov	eax, DWORD PTR _this$[ebp]
	mov	DWORD PTR [eax], edx

; 4049 : 							break;

	jmp	SHORT $LN18@ParsePopup
$LN12@ParsePopup:

; 4050 : 						default:
; 4051 : 							Idx_++;

	mov	ecx, DWORD PTR _this$[ebp]
	mov	edx, DWORD PTR [ecx]
	add	edx, 1
	mov	eax, DWORD PTR _this$[ebp]
	mov	DWORD PTR [eax], edx
$LN18@ParsePopup:

; 4052 : 					}
; 4053 : 					if(Idx_ >= scriptlen_)

	mov	ecx, DWORD PTR _this$[ebp]
	mov	edx, DWORD PTR _this$[ebp]
	mov	eax, DWORD PTR [ecx]
	cmp	eax, DWORD PTR [edx+8]
	jl	SHORT $LN11@ParsePopup

; 4054 : 						Done=1;

	mov	ecx, 1
	mov	WORD PTR _Done$[ebp], cx
$LN11@ParsePopup:

; 4055 : 				}

	jmp	$LN21@ParsePopup
$LN20@ParsePopup:

; 4056 : 							
; 4057 : 				tokenlen_=0;

	xor	edx, edx
	mov	eax, DWORD PTR _this$[ebp]
	mov	WORD PTR [eax+956], dx
$LN10@ParsePopup:

; 4058 : 				while(script_[Idx_+tokenlen_] != ']' && (Idx_+tokenlen_) < scriptlen_)

	mov	ecx, DWORD PTR _this$[ebp]
	movsx	edx, WORD PTR [ecx+956]
	mov	eax, DWORD PTR _this$[ebp]
	mov	ecx, DWORD PTR [eax]
	add	ecx, edx
	mov	edx, DWORD PTR _this$[ebp]
	mov	eax, DWORD PTR [edx+4]
	movsx	ecx, BYTE PTR [eax+ecx]
	cmp	ecx, 93					; 0000005dH
	je	SHORT $LN9@ParsePopup
	mov	edx, DWORD PTR _this$[ebp]
	movsx	eax, WORD PTR [edx+956]
	mov	ecx, DWORD PTR _this$[ebp]
	add	eax, DWORD PTR [ecx]
	mov	edx, DWORD PTR _this$[ebp]
	cmp	eax, DWORD PTR [edx+8]
	jge	SHORT $LN9@ParsePopup

; 4059 : 					tokenlen_++;

	mov	eax, DWORD PTR _this$[ebp]
	mov	cx, WORD PTR [eax+956]
	add	cx, 1
	mov	edx, DWORD PTR _this$[ebp]
	mov	WORD PTR [edx+956], cx
	jmp	SHORT $LN10@ParsePopup
$LN9@ParsePopup:

; 4060 : 				tokenlen_++;

	mov	eax, DWORD PTR _this$[ebp]
	mov	cx, WORD PTR [eax+956]
	add	cx, 1
	mov	edx, DWORD PTR _this$[ebp]
	mov	WORD PTR [edx+956], cx

; 4061 : 
; 4062 : 				if((Idx_ + tokenlen_) >= scriptlen_)

	mov	eax, DWORD PTR _this$[ebp]
	movsx	ecx, WORD PTR [eax+956]
	mov	edx, DWORD PTR _this$[ebp]
	add	ecx, DWORD PTR [edx]
	mov	eax, DWORD PTR _this$[ebp]
	cmp	ecx, DWORD PTR [eax+8]
	jl	SHORT $LN8@ParsePopup

; 4063 : 				{
; 4064 : 					Done=1;

	mov	ecx, 1
	mov	WORD PTR _Done$[ebp], cx

; 4065 : 					break;

	jmp	$LN23@ParsePopup
$LN8@ParsePopup:

; 4066 : 				}
; 4067 : 
; 4068 : 				if(Found == 1)

	movsx	edx, WORD PTR _Found$[ebp]
	cmp	edx, 1
	jne	SHORT $LN7@ParsePopup

; 4069 : 					Section=SECTION_PROCESSTOKEN;

	mov	eax, 1
	mov	WORD PTR _Section$[ebp], ax
$LN7@ParsePopup:

; 4070 : 				break;

	jmp	$LN23@ParsePopup
$LN6@ParsePopup:

; 4071 : 			case SECTION_PROCESSTOKEN:
; 4072 : 				TokenID=FindToken(&script_[Idx_]);

	mov	ecx, DWORD PTR _this$[ebp]
	mov	edx, DWORD PTR [ecx+4]
	mov	eax, DWORD PTR _this$[ebp]
	add	edx, DWORD PTR [eax]
	push	edx
	mov	ecx, DWORD PTR _this$[ebp]
	call	?FindToken@C_Parser@@QAEJPAD@Z		; C_Parser::FindToken
	mov	DWORD PTR _TokenID$[ebp], eax

; 4073 : 				if(TokenID)

	cmp	DWORD PTR _TokenID$[ebp], 0
	je	SHORT $LN5@ParsePopup

; 4074 : 				{
; 4075 : 					switch(TokenID)

	mov	ecx, DWORD PTR _TokenID$[ebp]
	mov	DWORD PTR tv204[ebp], ecx
	cmp	DWORD PTR tv204[ebp], 18		; 00000012H
	je	SHORT $LN2@ParsePopup
	jmp	SHORT $LN3@ParsePopup
$LN2@ParsePopup:

; 4076 : 					{
; 4077 : 						case CPARSE_POPUP:
; 4078 : 							return(PopupParser());

	mov	ecx, DWORD PTR _this$[ebp]
	call	?PopupParser@C_Parser@@AAEPAVC_Base@@XZ	; C_Parser::PopupParser
	jmp	SHORT $LN29@ParsePopup
$LN3@ParsePopup:

; 4079 : 							break;
; 4080 : 					}
; 4081 : 					Idx_+=tokenlen_;

	mov	edx, DWORD PTR _this$[ebp]
	movsx	eax, WORD PTR [edx+956]
	mov	ecx, DWORD PTR _this$[ebp]
	add	eax, DWORD PTR [ecx]
	mov	edx, DWORD PTR _this$[ebp]
	mov	DWORD PTR [edx], eax

; 4082 : 					tokenlen_=0;

	xor	eax, eax
	mov	ecx, DWORD PTR _this$[ebp]
	mov	WORD PTR [ecx+956], ax

; 4083 : 					Section=SECTION_FINDTOKEN;

	xor	edx, edx
	mov	WORD PTR _Section$[ebp], dx

; 4084 : 				}
; 4085 : 				else

	jmp	SHORT $LN23@ParsePopup
$LN5@ParsePopup:

; 4086 : 				{
; 4087 : 					Section=SECTION_FINDTOKEN;

	xor	eax, eax
	mov	WORD PTR _Section$[ebp], ax

; 4088 : 					Idx_+=tokenlen_;

	mov	ecx, DWORD PTR _this$[ebp]
	movsx	edx, WORD PTR [ecx+956]
	mov	eax, DWORD PTR _this$[ebp]
	add	edx, DWORD PTR [eax]
	mov	ecx, DWORD PTR _this$[ebp]
	mov	DWORD PTR [ecx], edx

; 4089 : 					tokenlen_=0;

	xor	edx, edx
	mov	eax, DWORD PTR _this$[ebp]
	mov	WORD PTR [eax+956], dx
$LN23@ParsePopup:

; 4090 : 				}
; 4091 : 				break;
; 4092 : 		}
; 4093 : 	}

	jmp	$LN26@ParsePopup
$LN25@ParsePopup:

; 4094 : 	return(NULL);

	xor	eax, eax
$LN29@ParsePopup:

; 4095 : }

	mov	ecx, DWORD PTR __$EHRec$[ebp]
	mov	DWORD PTR fs:0, ecx
	pop	ecx
	mov	esp, ebp
	pop	ebp
	ret	4
	npad	3
$LN36@ParsePopup:
	DD	$LN13@ParsePopup
	DD	$LN15@ParsePopup
	DD	$LN14@ParsePopup
	DD	$LN17@ParsePopup
	DD	$LN12@ParsePopup
$LN34@ParsePopup:
	DB	0
	DB	4
	DB	4
	DB	0
	DB	4
	DB	4
	DB	4
	DB	4
	DB	4
	DB	4
	DB	4
	DB	4
	DB	4
	DB	4
	DB	4
	DB	4
	DB	4
	DB	4
	DB	4
	DB	4
	DB	4
	DB	4
	DB	4
	DB	4
	DB	1
	DB	2
	DB	4
	DB	4
	DB	4
	DB	4
	DB	4
	DB	4
	DB	4
	DB	4
	DB	4
	DB	4
	DB	4
	DB	4
	DB	4
	DB	4
	DB	4
	DB	4
	DB	4
	DB	4
	DB	4
	DB	4
	DB	4
	DB	4
	DB	4
	DB	4
	DB	4
	DB	4
	DB	4
	DB	4
	DB	4
	DB	4
	DB	4
	DB	4
	DB	4
	DB	4
	DB	4
	DB	4
	DB	4
	DB	4
	DB	4
	DB	4
	DB	4
	DB	4
	DB	4
	DB	4
	DB	4
	DB	4
	DB	4
	DB	4
	DB	4
	DB	4
	DB	4
	DB	4
	DB	4
	DB	4
	DB	4
	DB	3
_TEXT	ENDS
text$x	SEGMENT
__unwindfunclet$?ParsePopupMenu@C_Parser@@QAEPAVC_Base@@PAD@Z$0:
	mov	eax, DWORD PTR $T3[ebp]
	push	eax
	call	??3@YAXPAX@Z				; operator delete
	pop	ecx
	ret	0
__ehhandler$?ParsePopupMenu@C_Parser@@QAEPAVC_Base@@PAD@Z:
	mov	edx, DWORD PTR [esp+8]
	lea	eax, DWORD PTR [edx+12]
	mov	ecx, DWORD PTR [edx-60]
	xor	ecx, eax
	call	@__security_check_cookie@4
	mov	eax, OFFSET __ehfuncinfo$?ParsePopupMenu@C_Parser@@QAEPAVC_Base@@PAD@Z
	jmp	___CxxFrameHandler3
text$x	ENDS
?ParsePopupMenu@C_Parser@@QAEPAVC_Base@@PAD@Z ENDP	; C_Parser::ParsePopupMenu
; Function compile flags: /Odtp
; File c:\users\zhitao li\documents\visual studio 2012\projects\freefalcon\ui95\cparser.cpp
_TEXT	SEGMENT
$T2 = -152						; size = 4
_NewID$ = -148						; size = 4
_TokenType$ = -144					; size = 4
tv92 = -140						; size = 4
tv80 = -136						; size = 4
$T3 = -132						; size = 4
_TokenID$ = -128					; size = 4
_InString$ = -124					; size = 4
_Comment$ = -120					; size = 4
tv133 = -116						; size = 4
tv380 = -112						; size = 4
tv326 = -108						; size = 4
tv229 = -104						; size = 4
_FontID$ = -100						; size = 4
_Done$ = -96						; size = 4
_Finished$ = -92					; size = 4
_Section$ = -88						; size = 4
_Found$ = -84						; size = 4
_this$ = -80						; size = 4
_logfont$ = -76						; size = 60
__$ArrayPad$ = -16					; size = 4
__$EHRec$ = -12						; size = 12
_filename$ = 8						; size = 4
?ParseFont@C_Parser@@QAEPAVC_Font@@PAD@Z PROC		; C_Parser::ParseFont
; _this$ = ecx

; 2731 : {

	push	ebp
	mov	ebp, esp
	push	-1
	push	__ehhandler$?ParseFont@C_Parser@@QAEPAVC_Font@@PAD@Z
	mov	eax, DWORD PTR fs:0
	push	eax
	sub	esp, 140				; 0000008cH
	mov	eax, DWORD PTR ___security_cookie
	xor	eax, ebp
	mov	DWORD PTR __$ArrayPad$[ebp], eax
	push	eax
	lea	eax, DWORD PTR __$EHRec$[ebp]
	mov	DWORD PTR fs:0, eax
	mov	DWORD PTR _this$[ebp], ecx

; 2732 : 	long Done=0,Comment=0,Found=0,InString=0,Finished=0;;

	mov	DWORD PTR _Done$[ebp], 0
	mov	DWORD PTR _Comment$[ebp], 0
	mov	DWORD PTR _Found$[ebp], 0
	mov	DWORD PTR _InString$[ebp], 0
	mov	DWORD PTR _Finished$[ebp], 0

; 2733 : 	long TokenID=0,Section=0,TokenType=0;

	mov	DWORD PTR _TokenID$[ebp], 0
	mov	DWORD PTR _Section$[ebp], 0
	mov	DWORD PTR _TokenType$[ebp], 0

; 2734 : 	long FontID=0,NewID=0;

	mov	DWORD PTR _FontID$[ebp], 0
	mov	DWORD PTR _NewID$[ebp], 0

; 2735 : 	LOGFONT logfont= {0};

	mov	DWORD PTR _logfont$[ebp], 0
	push	56					; 00000038H
	push	0
	lea	eax, DWORD PTR _logfont$[ebp+4]
	push	eax
	call	_memset
	add	esp, 12					; 0000000cH

; 2736 : 
; 2737 : 	Idx_=0;

	mov	ecx, DWORD PTR _this$[ebp]
	mov	DWORD PTR [ecx], 0

; 2738 : 	P_Idx_=0;

	xor	edx, edx
	mov	eax, DWORD PTR _this$[ebp]
	mov	WORD PTR [eax+958], dx

; 2739 : 	tokenlen_=0;

	xor	ecx, ecx
	mov	edx, DWORD PTR _this$[ebp]
	mov	WORD PTR [edx+956], cx

; 2740 : 
; 2741 : 	if(Font_ == NULL)

	mov	eax, DWORD PTR _this$[ebp]
	cmp	DWORD PTR [eax+76], 0
	jne	SHORT $LN68@ParseFont

; 2742 : 	{
; 2743 : 		Font_=new C_Font;

	push	16					; 00000010H
	call	??2@YAPAXI@Z				; operator new
	add	esp, 4
	mov	DWORD PTR $T3[ebp], eax
	mov	DWORD PTR __$EHRec$[ebp+8], 0
	cmp	DWORD PTR $T3[ebp], 0
	je	SHORT $LN71@ParseFont
	mov	ecx, DWORD PTR $T3[ebp]
	call	??0C_Font@@QAE@XZ			; C_Font::C_Font
	mov	DWORD PTR tv80[ebp], eax
	jmp	SHORT $LN72@ParseFont
$LN71@ParseFont:
	mov	DWORD PTR tv80[ebp], 0
$LN72@ParseFont:
	mov	ecx, DWORD PTR tv80[ebp]
	mov	DWORD PTR $T2[ebp], ecx
	mov	DWORD PTR __$EHRec$[ebp+8], -1
	mov	edx, DWORD PTR _this$[ebp]
	mov	eax, DWORD PTR $T2[ebp]
	mov	DWORD PTR [edx+76], eax

; 2744 : 		Font_->Setup(Handler_);

	mov	ecx, DWORD PTR _this$[ebp]
	mov	edx, DWORD PTR [ecx+64]
	push	edx
	mov	eax, DWORD PTR _this$[ebp]
	mov	ecx, DWORD PTR [eax+76]
	call	?Setup@C_Font@@QAEXPAVC_Handler@@@Z	; C_Font::Setup
$LN68@ParseFont:

; 2745 : 	}
; 2746 : 
; 2747 : 	if(LoadScript(filename) == FALSE)

	mov	ecx, DWORD PTR _filename$[ebp]
	push	ecx
	mov	ecx, DWORD PTR _this$[ebp]
	call	?LoadScript@C_Parser@@QAEHPAD@Z		; C_Parser::LoadScript
	test	eax, eax
	jne	SHORT $LN67@ParseFont

; 2748 : 		return(NULL);

	xor	eax, eax
	jmp	$LN69@ParseFont
$LN67@ParseFont:

; 2749 : 
; 2750 : 	Done=0;

	mov	DWORD PTR _Done$[ebp], 0

; 2751 : 	Comment=0;

	mov	DWORD PTR _Comment$[ebp], 0

; 2752 : 	InString=0;

	mov	DWORD PTR _InString$[ebp], 0

; 2753 : 	Section=SECTION_FINDTOKEN;

	mov	DWORD PTR _Section$[ebp], 0

; 2754 : 	TokenType=TOKEN_NOTHING;

	mov	DWORD PTR _TokenType$[ebp], 0

; 2755 : 
; 2756 : 	memset(&logfont,0,sizeof(LOGFONT));

	push	60					; 0000003cH
	push	0
	lea	edx, DWORD PTR _logfont$[ebp]
	push	edx
	call	_memset
	add	esp, 12					; 0000000cH
$LN66@ParseFont:

; 2757 : 	
; 2758 : 	while(!Done)

	cmp	DWORD PTR _Done$[ebp], 0
	jne	$LN65@ParseFont

; 2759 : 	{
; 2760 : 		switch(Section)

	mov	eax, DWORD PTR _Section$[ebp]
	mov	DWORD PTR tv92[ebp], eax
	cmp	DWORD PTR tv92[ebp], 5
	ja	$LN63@ParseFont
	mov	ecx, DWORD PTR tv92[ebp]
	jmp	DWORD PTR $LN79@ParseFont[ecx*4]
$LN62@ParseFont:

; 2761 : 		{
; 2762 : 			case SECTION_FINDTOKEN:
; 2763 : 			// Look for token starting with '['
; 2764 : 				Found=0;

	mov	DWORD PTR _Found$[ebp], 0
$LN61@ParseFont:

; 2765 : 				while(!Found && !Done)

	cmp	DWORD PTR _Found$[ebp], 0
	jne	$LN60@ParseFont
	cmp	DWORD PTR _Done$[ebp], 0
	jne	$LN60@ParseFont

; 2766 : 				{
; 2767 : 					switch(script_[Idx_])

	mov	edx, DWORD PTR _this$[ebp]
	mov	eax, DWORD PTR [edx]
	mov	ecx, DWORD PTR _this$[ebp]
	mov	edx, DWORD PTR [ecx+4]
	movsx	eax, BYTE PTR [edx+eax]
	mov	DWORD PTR tv133[ebp], eax
	mov	ecx, DWORD PTR tv133[ebp]
	sub	ecx, 10					; 0000000aH
	mov	DWORD PTR tv133[ebp], ecx
	cmp	DWORD PTR tv133[ebp], 81		; 00000051H
	ja	SHORT $LN52@ParseFont
	mov	edx, DWORD PTR tv133[ebp]
	movzx	eax, BYTE PTR $LN74@ParseFont[edx]
	jmp	DWORD PTR $LN80@ParseFont[eax*4]
$LN57@ParseFont:

; 2768 : 					{
; 2769 : 						case '[':
; 2770 : 							if(!Comment && !InString)

	cmp	DWORD PTR _Comment$[ebp], 0
	jne	SHORT $LN56@ParseFont
	cmp	DWORD PTR _InString$[ebp], 0
	jne	SHORT $LN56@ParseFont

; 2771 : 							{
; 2772 : 								Found=1;

	mov	DWORD PTR _Found$[ebp], 1

; 2773 : 								break;

	jmp	SHORT $LN58@ParseFont
$LN56@ParseFont:

; 2774 : 							}
; 2775 : 							Idx_++;

	mov	ecx, DWORD PTR _this$[ebp]
	mov	edx, DWORD PTR [ecx]
	add	edx, 1
	mov	eax, DWORD PTR _this$[ebp]
	mov	DWORD PTR [eax], edx

; 2776 : 							break;

	jmp	SHORT $LN58@ParseFont
$LN55@ParseFont:

; 2777 : 						case '"':
; 2778 : 							InString=1-InString;

	mov	ecx, 1
	sub	ecx, DWORD PTR _InString$[ebp]
	mov	DWORD PTR _InString$[ebp], ecx

; 2779 : 							Idx_++;

	mov	edx, DWORD PTR _this$[ebp]
	mov	eax, DWORD PTR [edx]
	add	eax, 1
	mov	ecx, DWORD PTR _this$[ebp]
	mov	DWORD PTR [ecx], eax

; 2780 : 							break;

	jmp	SHORT $LN58@ParseFont
$LN54@ParseFont:

; 2781 : 						case '#':
; 2782 : 							Comment=1;

	mov	DWORD PTR _Comment$[ebp], 1

; 2783 : 							Idx_++;

	mov	edx, DWORD PTR _this$[ebp]
	mov	eax, DWORD PTR [edx]
	add	eax, 1
	mov	ecx, DWORD PTR _this$[ebp]
	mov	DWORD PTR [ecx], eax

; 2784 : 							break;

	jmp	SHORT $LN58@ParseFont
$LN53@ParseFont:

; 2785 : 						case 0x0a: case 0x0d:
; 2786 : 							Comment=0;

	mov	DWORD PTR _Comment$[ebp], 0

; 2787 : 							Idx_++;

	mov	edx, DWORD PTR _this$[ebp]
	mov	eax, DWORD PTR [edx]
	add	eax, 1
	mov	ecx, DWORD PTR _this$[ebp]
	mov	DWORD PTR [ecx], eax

; 2788 : 							break;

	jmp	SHORT $LN58@ParseFont
$LN52@ParseFont:

; 2789 : 						default:
; 2790 : 							Idx_++;

	mov	edx, DWORD PTR _this$[ebp]
	mov	eax, DWORD PTR [edx]
	add	eax, 1
	mov	ecx, DWORD PTR _this$[ebp]
	mov	DWORD PTR [ecx], eax
$LN58@ParseFont:

; 2791 : 					}
; 2792 : 					if((Idx_) >= scriptlen_)

	mov	edx, DWORD PTR _this$[ebp]
	mov	eax, DWORD PTR _this$[ebp]
	mov	ecx, DWORD PTR [edx]
	cmp	ecx, DWORD PTR [eax+8]
	jl	SHORT $LN51@ParseFont

; 2793 : 						Done=1;

	mov	DWORD PTR _Done$[ebp], 1
$LN51@ParseFont:

; 2794 : 				}

	jmp	$LN61@ParseFont
$LN60@ParseFont:

; 2795 : 							
; 2796 : 				tokenlen_=0;

	xor	edx, edx
	mov	eax, DWORD PTR _this$[ebp]
	mov	WORD PTR [eax+956], dx
$LN50@ParseFont:

; 2797 : 				while(script_[Idx_+tokenlen_] != ']' && (Idx_+tokenlen_) < scriptlen_)

	mov	ecx, DWORD PTR _this$[ebp]
	movsx	edx, WORD PTR [ecx+956]
	mov	eax, DWORD PTR _this$[ebp]
	mov	ecx, DWORD PTR [eax]
	add	ecx, edx
	mov	edx, DWORD PTR _this$[ebp]
	mov	eax, DWORD PTR [edx+4]
	movsx	ecx, BYTE PTR [eax+ecx]
	cmp	ecx, 93					; 0000005dH
	je	SHORT $LN49@ParseFont
	mov	edx, DWORD PTR _this$[ebp]
	movsx	eax, WORD PTR [edx+956]
	mov	ecx, DWORD PTR _this$[ebp]
	add	eax, DWORD PTR [ecx]
	mov	edx, DWORD PTR _this$[ebp]
	cmp	eax, DWORD PTR [edx+8]
	jge	SHORT $LN49@ParseFont

; 2798 : 					tokenlen_++;

	mov	eax, DWORD PTR _this$[ebp]
	mov	cx, WORD PTR [eax+956]
	add	cx, 1
	mov	edx, DWORD PTR _this$[ebp]
	mov	WORD PTR [edx+956], cx
	jmp	SHORT $LN50@ParseFont
$LN49@ParseFont:

; 2799 : 				tokenlen_++;

	mov	eax, DWORD PTR _this$[ebp]
	mov	cx, WORD PTR [eax+956]
	add	cx, 1
	mov	edx, DWORD PTR _this$[ebp]
	mov	WORD PTR [edx+956], cx

; 2800 : 
; 2801 : 				if((Idx_ + tokenlen_) >= scriptlen_)

	mov	eax, DWORD PTR _this$[ebp]
	movsx	ecx, WORD PTR [eax+956]
	mov	edx, DWORD PTR _this$[ebp]
	add	ecx, DWORD PTR [edx]
	mov	eax, DWORD PTR _this$[ebp]
	cmp	ecx, DWORD PTR [eax+8]
	jl	SHORT $LN48@ParseFont

; 2802 : 				{
; 2803 : 					Done=1;

	mov	DWORD PTR _Done$[ebp], 1

; 2804 : 					break;

	jmp	$LN63@ParseFont
$LN48@ParseFont:

; 2805 : 				}
; 2806 : 
; 2807 : 				if(Found == 1)

	cmp	DWORD PTR _Found$[ebp], 1
	jne	SHORT $LN47@ParseFont

; 2808 : 					Section=SECTION_PROCESSTOKEN;

	mov	DWORD PTR _Section$[ebp], 1
$LN47@ParseFont:

; 2809 : 				break;

	jmp	$LN63@ParseFont
$LN46@ParseFont:

; 2810 : 			case SECTION_PROCESSTOKEN:
; 2811 : 				TokenID=Font_->FontFind(&script_[Idx_]);

	mov	ecx, DWORD PTR _this$[ebp]
	mov	edx, DWORD PTR [ecx+4]
	mov	eax, DWORD PTR _this$[ebp]
	add	edx, DWORD PTR [eax]
	push	edx
	mov	ecx, DWORD PTR _this$[ebp]
	mov	ecx, DWORD PTR [ecx+76]
	call	?FontFind@C_Font@@QAEFPAD@Z		; C_Font::FontFind
	movsx	edx, ax
	mov	DWORD PTR _TokenID$[ebp], edx

; 2812 : 				if(TokenID)

	cmp	DWORD PTR _TokenID$[ebp], 0
	je	SHORT $LN45@ParseFont

; 2813 : 				{
; 2814 : 					Section=SECTION_FINDPARAMS;

	mov	DWORD PTR _Section$[ebp], 4

; 2815 : 					Idx_+=tokenlen_;

	mov	eax, DWORD PTR _this$[ebp]
	movsx	ecx, WORD PTR [eax+956]
	mov	edx, DWORD PTR _this$[ebp]
	add	ecx, DWORD PTR [edx]
	mov	eax, DWORD PTR _this$[ebp]
	mov	DWORD PTR [eax], ecx

; 2816 : 					tokenlen_=0;

	xor	ecx, ecx
	mov	edx, DWORD PTR _this$[ebp]
	mov	WORD PTR [edx+956], cx

; 2817 : 				}
; 2818 : 				else

	jmp	SHORT $LN44@ParseFont
$LN45@ParseFont:

; 2819 : 				{
; 2820 : 					Section=SECTION_FINDTOKEN;

	mov	DWORD PTR _Section$[ebp], 0

; 2821 : 					Idx_+=tokenlen_;

	mov	eax, DWORD PTR _this$[ebp]
	movsx	ecx, WORD PTR [eax+956]
	mov	edx, DWORD PTR _this$[ebp]
	add	ecx, DWORD PTR [edx]
	mov	eax, DWORD PTR _this$[ebp]
	mov	DWORD PTR [eax], ecx

; 2822 : 					tokenlen_=0;

	xor	ecx, ecx
	mov	edx, DWORD PTR _this$[ebp]
	mov	WORD PTR [edx+956], cx
$LN44@ParseFont:

; 2823 : 				}
; 2824 : 				break;

	jmp	$LN63@ParseFont
$LN43@ParseFont:

; 2825 : 			case SECTION_FINDPARAMS:
; 2826 : 				P_Idx_=0; // start with 0 parameters

	xor	eax, eax
	mov	ecx, DWORD PTR _this$[ebp]
	mov	WORD PTR [ecx+958], ax

; 2827 : 
; 2828 : 				// Repeat until token char '[' found (or EOF)
; 2829 : 				Finished=0;

	mov	DWORD PTR _Finished$[ebp], 0
$LN42@ParseFont:

; 2830 : 				while(!Finished)

	cmp	DWORD PTR _Finished$[ebp], 0
	jne	$LN41@ParseFont

; 2831 : 				{
; 2832 : 					// Find NON white space
; 2833 : 					Found=0;

	mov	DWORD PTR _Found$[ebp], 0
$LN40@ParseFont:

; 2834 : 					while(!Found && !Done && !Finished)

	cmp	DWORD PTR _Found$[ebp], 0
	jne	$LN39@ParseFont
	cmp	DWORD PTR _Done$[ebp], 0
	jne	SHORT $LN39@ParseFont
	cmp	DWORD PTR _Finished$[ebp], 0
	jne	SHORT $LN39@ParseFont

; 2835 : 					{
; 2836 : 						switch(script_[Idx_])

	mov	edx, DWORD PTR _this$[ebp]
	mov	eax, DWORD PTR [edx]
	mov	ecx, DWORD PTR _this$[ebp]
	mov	edx, DWORD PTR [ecx+4]
	movsx	eax, BYTE PTR [edx+eax]
	mov	DWORD PTR tv229[ebp], eax
	mov	ecx, DWORD PTR tv229[ebp]
	sub	ecx, 9
	mov	DWORD PTR tv229[ebp], ecx
	cmp	DWORD PTR tv229[ebp], 82		; 00000052H
	ja	SHORT $LN34@ParseFont
	mov	edx, DWORD PTR tv229[ebp]
	movzx	eax, BYTE PTR $LN75@ParseFont[edx]
	jmp	DWORD PTR $LN81@ParseFont[eax*4]
$LN36@ParseFont:

; 2837 : 						{
; 2838 : 							case ' ': case ',': case 0x09: case 0x0a: case 0x0d:
; 2839 : 								Idx_++;

	mov	ecx, DWORD PTR _this$[ebp]
	mov	edx, DWORD PTR [ecx]
	add	edx, 1
	mov	eax, DWORD PTR _this$[ebp]
	mov	DWORD PTR [eax], edx

; 2840 : 								break;

	jmp	SHORT $LN37@ParseFont
$LN35@ParseFont:

; 2841 : 							case '[':
; 2842 : 								Finished=1;

	mov	DWORD PTR _Finished$[ebp], 1

; 2843 : 								Section=SECTION_PROCESSPARAMS;

	mov	DWORD PTR _Section$[ebp], 5

; 2844 : 								break;

	jmp	SHORT $LN37@ParseFont
$LN34@ParseFont:

; 2845 : 							default:
; 2846 : 								Found=1;

	mov	DWORD PTR _Found$[ebp], 1
$LN37@ParseFont:

; 2847 : 								break;
; 2848 : 						}
; 2849 : 						if(Idx_ >= scriptlen_)

	mov	ecx, DWORD PTR _this$[ebp]
	mov	edx, DWORD PTR _this$[ebp]
	mov	eax, DWORD PTR [ecx]
	cmp	eax, DWORD PTR [edx+8]
	jl	SHORT $LN33@ParseFont

; 2850 : 						{
; 2851 : 							Finished=1;

	mov	DWORD PTR _Finished$[ebp], 1

; 2852 : 							Section=SECTION_PROCESSPARAMS;

	mov	DWORD PTR _Section$[ebp], 5
$LN33@ParseFont:

; 2853 : 						}
; 2854 : 					}

	jmp	$LN40@ParseFont
$LN39@ParseFont:

; 2855 : 
; 2856 : 					if(Found)

	cmp	DWORD PTR _Found$[ebp], 0
	je	$LN32@ParseFont

; 2857 : 					{
; 2858 : 						Found=0;

	mov	DWORD PTR _Found$[ebp], 0

; 2859 : 						if(script_[Idx_] == '"') // string

	mov	ecx, DWORD PTR _this$[ebp]
	mov	edx, DWORD PTR [ecx]
	mov	eax, DWORD PTR _this$[ebp]
	mov	ecx, DWORD PTR [eax+4]
	movsx	edx, BYTE PTR [ecx+edx]
	cmp	edx, 34					; 00000022H
	jne	$LN31@ParseFont

; 2860 : 						{
; 2861 : 							tokenlen_=1;

	mov	eax, 1
	mov	ecx, DWORD PTR _this$[ebp]
	mov	WORD PTR [ecx+956], ax

; 2862 : 							str_=&script_[Idx_+tokenlen_];

	mov	edx, DWORD PTR _this$[ebp]
	movsx	eax, WORD PTR [edx+956]
	mov	ecx, DWORD PTR _this$[ebp]
	mov	edx, DWORD PTR [ecx]
	add	edx, eax
	mov	eax, DWORD PTR _this$[ebp]
	mov	ecx, DWORD PTR [eax+4]
	add	ecx, edx
	mov	edx, DWORD PTR _this$[ebp]
	mov	DWORD PTR [edx+60], ecx
$LN30@ParseFont:

; 2863 : 							// Find closing (")
; 2864 : 							while(!Found && !Finished)

	cmp	DWORD PTR _Found$[ebp], 0
	jne	SHORT $LN29@ParseFont
	cmp	DWORD PTR _Finished$[ebp], 0
	jne	SHORT $LN29@ParseFont

; 2865 : 							{
; 2866 : 								if(script_[Idx_+tokenlen_] == '"')

	mov	eax, DWORD PTR _this$[ebp]
	movsx	ecx, WORD PTR [eax+956]
	mov	edx, DWORD PTR _this$[ebp]
	mov	eax, DWORD PTR [edx]
	add	eax, ecx
	mov	ecx, DWORD PTR _this$[ebp]
	mov	edx, DWORD PTR [ecx+4]
	movsx	eax, BYTE PTR [edx+eax]
	cmp	eax, 34					; 00000022H
	jne	SHORT $LN28@ParseFont

; 2867 : 									Found=1;

	mov	DWORD PTR _Found$[ebp], 1

; 2868 : 								else

	jmp	SHORT $LN27@ParseFont
$LN28@ParseFont:

; 2869 : 								{
; 2870 : 									if((Idx_+tokenlen_) >= scriptlen_)

	mov	ecx, DWORD PTR _this$[ebp]
	movsx	edx, WORD PTR [ecx+956]
	mov	eax, DWORD PTR _this$[ebp]
	add	edx, DWORD PTR [eax]
	mov	ecx, DWORD PTR _this$[ebp]
	cmp	edx, DWORD PTR [ecx+8]
	jl	SHORT $LN26@ParseFont

; 2871 : 									{
; 2872 : 										Finished=1;

	mov	DWORD PTR _Finished$[ebp], 1

; 2873 : 										Section=SECTION_PROCESSPARAMS;

	mov	DWORD PTR _Section$[ebp], 5

; 2874 : 									}
; 2875 : 									else

	jmp	SHORT $LN27@ParseFont
$LN26@ParseFont:

; 2876 : 										tokenlen_++;

	mov	edx, DWORD PTR _this$[ebp]
	mov	ax, WORD PTR [edx+956]
	add	ax, 1
	mov	ecx, DWORD PTR _this$[ebp]
	mov	WORD PTR [ecx+956], ax
$LN27@ParseFont:

; 2877 : 								}
; 2878 : 							}

	jmp	SHORT $LN30@ParseFont
$LN29@ParseFont:

; 2879 : 							if(Found)

	cmp	DWORD PTR _Found$[ebp], 0
	je	SHORT $LN24@ParseFont

; 2880 : 								script_[Idx_+tokenlen_]=0; // make NULL terminated string

	mov	edx, DWORD PTR _this$[ebp]
	movsx	eax, WORD PTR [edx+956]
	mov	ecx, DWORD PTR _this$[ebp]
	add	eax, DWORD PTR [ecx]
	mov	edx, DWORD PTR _this$[ebp]
	mov	ecx, DWORD PTR [edx+4]
	mov	BYTE PTR [ecx+eax], 0
$LN24@ParseFont:

; 2881 : 							Idx_+=tokenlen_+1;

	mov	edx, DWORD PTR _this$[ebp]
	movsx	eax, WORD PTR [edx+956]
	mov	ecx, DWORD PTR _this$[ebp]
	mov	edx, DWORD PTR [ecx]
	lea	eax, DWORD PTR [eax+edx+1]
	mov	ecx, DWORD PTR _this$[ebp]
	mov	DWORD PTR [ecx], eax

; 2882 : 							tokenlen_=0;

	xor	edx, edx
	mov	eax, DWORD PTR _this$[ebp]
	mov	WORD PTR [eax+956], dx
	jmp	$LN32@ParseFont
$LN31@ParseFont:

; 2883 : 						}
; 2884 : 						else if(isdigit(script_[Idx_]) || script_[Idx_] == '-') // Number

	mov	ecx, DWORD PTR _this$[ebp]
	mov	edx, DWORD PTR [ecx]
	mov	eax, DWORD PTR _this$[ebp]
	mov	ecx, DWORD PTR [eax+4]
	movsx	edx, BYTE PTR [ecx+edx]
	push	edx
	call	_isdigit
	add	esp, 4
	test	eax, eax
	jne	SHORT $LN21@ParseFont
	mov	eax, DWORD PTR _this$[ebp]
	mov	ecx, DWORD PTR [eax]
	mov	edx, DWORD PTR _this$[ebp]
	mov	eax, DWORD PTR [edx+4]
	movsx	ecx, BYTE PTR [eax+ecx]
	cmp	ecx, 45					; 0000002dH
	jne	$LN22@ParseFont
$LN21@ParseFont:

; 2885 : 						{
; 2886 : 							// find white space
; 2887 : 							Found=0;

	mov	DWORD PTR _Found$[ebp], 0

; 2888 : 							tokenlen_=1;

	mov	edx, 1
	mov	eax, DWORD PTR _this$[ebp]
	mov	WORD PTR [eax+956], dx
$LN20@ParseFont:

; 2889 : 							while(!Found)

	cmp	DWORD PTR _Found$[ebp], 0
	jne	$LN19@ParseFont

; 2890 : 							{
; 2891 : 								switch(script_[Idx_ + tokenlen_])

	mov	ecx, DWORD PTR _this$[ebp]
	movsx	edx, WORD PTR [ecx+956]
	mov	eax, DWORD PTR _this$[ebp]
	mov	ecx, DWORD PTR [eax]
	add	ecx, edx
	mov	edx, DWORD PTR _this$[ebp]
	mov	eax, DWORD PTR [edx+4]
	movsx	ecx, BYTE PTR [eax+ecx]
	mov	DWORD PTR tv326[ebp], ecx
	mov	edx, DWORD PTR tv326[ebp]
	sub	edx, 9
	mov	DWORD PTR tv326[ebp], edx
	cmp	DWORD PTR tv326[ebp], 35		; 00000023H
	ja	SHORT $LN15@ParseFont
	mov	eax, DWORD PTR tv326[ebp]
	movzx	ecx, BYTE PTR $LN76@ParseFont[eax]
	jmp	DWORD PTR $LN82@ParseFont[ecx*4]
$LN16@ParseFont:

; 2892 : 								{
; 2893 : 									case ' ': case ',': case 0x09: case 0x0a: case 0x0d:
; 2894 : 										Found=1;

	mov	DWORD PTR _Found$[ebp], 1

; 2895 : 										break;

	jmp	SHORT $LN17@ParseFont
$LN15@ParseFont:

; 2896 : 									default:
; 2897 : 										tokenlen_++;

	mov	edx, DWORD PTR _this$[ebp]
	mov	ax, WORD PTR [edx+956]
	add	ax, 1
	mov	ecx, DWORD PTR _this$[ebp]
	mov	WORD PTR [ecx+956], ax
$LN17@ParseFont:

; 2898 : 										break;
; 2899 : 								}
; 2900 : 								if((Idx_+tokenlen_) >= scriptlen_)

	mov	edx, DWORD PTR _this$[ebp]
	movsx	eax, WORD PTR [edx+956]
	mov	ecx, DWORD PTR _this$[ebp]
	add	eax, DWORD PTR [ecx]
	mov	edx, DWORD PTR _this$[ebp]
	cmp	eax, DWORD PTR [edx+8]
	jl	SHORT $LN14@ParseFont

; 2901 : 								{
; 2902 : 									Found=1;

	mov	DWORD PTR _Found$[ebp], 1

; 2903 : 									Finished=1;

	mov	DWORD PTR _Finished$[ebp], 1

; 2904 : 									Section=SECTION_PROCESSPARAMS;

	mov	DWORD PTR _Section$[ebp], 5
$LN14@ParseFont:

; 2905 : 								}
; 2906 : 							}

	jmp	$LN20@ParseFont
$LN19@ParseFont:

; 2907 : 							if(Found && P_Idx_ < PARSE_MAX_PARAMS)

	cmp	DWORD PTR _Found$[ebp], 0
	je	SHORT $LN13@ParseFont
	mov	eax, DWORD PTR _this$[ebp]
	movsx	ecx, WORD PTR [eax+958]
	cmp	ecx, 12					; 0000000cH
	jge	SHORT $LN13@ParseFont

; 2908 : 								P_[P_Idx_++]=atol(&script_[Idx_]);

	mov	edx, DWORD PTR _this$[ebp]
	mov	eax, DWORD PTR [edx+4]
	mov	ecx, DWORD PTR _this$[ebp]
	add	eax, DWORD PTR [ecx]
	push	eax
	call	_atol
	add	esp, 4
	mov	edx, DWORD PTR _this$[ebp]
	movsx	ecx, WORD PTR [edx+958]
	mov	edx, DWORD PTR _this$[ebp]
	mov	DWORD PTR [edx+ecx*4+12], eax
	mov	eax, DWORD PTR _this$[ebp]
	mov	cx, WORD PTR [eax+958]
	add	cx, 1
	mov	edx, DWORD PTR _this$[ebp]
	mov	WORD PTR [edx+958], cx
$LN13@ParseFont:

; 2909 : 
; 2910 : 							Idx_+=tokenlen_;

	mov	eax, DWORD PTR _this$[ebp]
	movsx	ecx, WORD PTR [eax+956]
	mov	edx, DWORD PTR _this$[ebp]
	add	ecx, DWORD PTR [edx]
	mov	eax, DWORD PTR _this$[ebp]
	mov	DWORD PTR [eax], ecx

; 2911 : 							tokenlen_=0;

	xor	ecx, ecx
	mov	edx, DWORD PTR _this$[ebp]
	mov	WORD PTR [edx+956], cx

; 2912 : 						}
; 2913 : 						else

	jmp	$LN32@ParseFont
$LN22@ParseFont:

; 2914 : 						{
; 2915 : 							// Look for ID in tables
; 2916 : 							// Look for white space
; 2917 : 							Found=0;

	mov	DWORD PTR _Found$[ebp], 0

; 2918 : 							tokenlen_=0;

	xor	eax, eax
	mov	ecx, DWORD PTR _this$[ebp]
	mov	WORD PTR [ecx+956], ax
$LN11@ParseFont:

; 2919 : 							while(!Found && !Finished)

	cmp	DWORD PTR _Found$[ebp], 0
	jne	$LN10@ParseFont
	cmp	DWORD PTR _Finished$[ebp], 0
	jne	$LN10@ParseFont

; 2920 : 							{
; 2921 : 								switch(script_[Idx_+tokenlen_])

	mov	edx, DWORD PTR _this$[ebp]
	movsx	eax, WORD PTR [edx+956]
	mov	ecx, DWORD PTR _this$[ebp]
	mov	edx, DWORD PTR [ecx]
	add	edx, eax
	mov	eax, DWORD PTR _this$[ebp]
	mov	ecx, DWORD PTR [eax+4]
	movsx	edx, BYTE PTR [ecx+edx]
	mov	DWORD PTR tv380[ebp], edx
	mov	eax, DWORD PTR tv380[ebp]
	sub	eax, 9
	mov	DWORD PTR tv380[ebp], eax
	cmp	DWORD PTR tv380[ebp], 35		; 00000023H
	ja	SHORT $LN6@ParseFont
	mov	ecx, DWORD PTR tv380[ebp]
	movzx	edx, BYTE PTR $LN77@ParseFont[ecx]
	jmp	DWORD PTR $LN83@ParseFont[edx*4]
$LN7@ParseFont:

; 2922 : 								{
; 2923 : 									case ' ': case ',': case 0x09: case 0x0a: case 0x0d:
; 2924 : 										Found=1;

	mov	DWORD PTR _Found$[ebp], 1

; 2925 : 										break;

	jmp	SHORT $LN8@ParseFont
$LN6@ParseFont:

; 2926 : 									default:
; 2927 : 										tokenlen_++;

	mov	eax, DWORD PTR _this$[ebp]
	mov	cx, WORD PTR [eax+956]
	add	cx, 1
	mov	edx, DWORD PTR _this$[ebp]
	mov	WORD PTR [edx+956], cx
$LN8@ParseFont:

; 2928 : 										break;
; 2929 : 								}
; 2930 : 								if((Idx_+tokenlen_) >= scriptlen_)

	mov	eax, DWORD PTR _this$[ebp]
	movsx	ecx, WORD PTR [eax+956]
	mov	edx, DWORD PTR _this$[ebp]
	add	ecx, DWORD PTR [edx]
	mov	eax, DWORD PTR _this$[ebp]
	cmp	ecx, DWORD PTR [eax+8]
	jl	SHORT $LN5@ParseFont

; 2931 : 								{
; 2932 : 									Finished=1;

	mov	DWORD PTR _Finished$[ebp], 1

; 2933 : 									Found=1;

	mov	DWORD PTR _Found$[ebp], 1

; 2934 : 									Section=SECTION_PROCESSPARAMS;

	mov	DWORD PTR _Section$[ebp], 5
$LN5@ParseFont:

; 2935 : 								}
; 2936 : 							}

	jmp	$LN11@ParseFont
$LN10@ParseFont:

; 2937 : 							if(Found && P_Idx_ < PARSE_MAX_PARAMS)

	cmp	DWORD PTR _Found$[ebp], 0
	je	$LN4@ParseFont
	mov	ecx, DWORD PTR _this$[ebp]
	movsx	edx, WORD PTR [ecx+958]
	cmp	edx, 12					; 0000000cH
	jge	$LN4@ParseFont

; 2938 : 							{
; 2939 : 								script_[Idx_+tokenlen_]=0;

	mov	eax, DWORD PTR _this$[ebp]
	movsx	ecx, WORD PTR [eax+956]
	mov	edx, DWORD PTR _this$[ebp]
	add	ecx, DWORD PTR [edx]
	mov	eax, DWORD PTR _this$[ebp]
	mov	edx, DWORD PTR [eax+4]
	mov	BYTE PTR [edx+ecx], 0

; 2940 : 								FontID=FindID(&script_[Idx_]);

	mov	eax, DWORD PTR _this$[ebp]
	mov	ecx, DWORD PTR [eax+4]
	mov	edx, DWORD PTR _this$[ebp]
	add	ecx, DWORD PTR [edx]
	push	ecx
	mov	ecx, DWORD PTR _this$[ebp]
	call	?FindID@C_Parser@@QAEJPAD@Z		; C_Parser::FindID
	mov	DWORD PTR _FontID$[ebp], eax

; 2941 : 								if(FontID == -1)

	cmp	DWORD PTR _FontID$[ebp], -1
	jne	SHORT $LN3@ParseFont

; 2942 : 								{
; 2943 : 									if(FontID == -1)

	cmp	DWORD PTR _FontID$[ebp], -1
	jne	SHORT $LN3@ParseFont

; 2944 : 										FontID=AddNewID(&script_[Idx_],1);

	push	1
	mov	eax, DWORD PTR _this$[ebp]
	mov	ecx, DWORD PTR [eax+4]
	mov	edx, DWORD PTR _this$[ebp]
	add	ecx, DWORD PTR [edx]
	push	ecx
	mov	ecx, DWORD PTR _this$[ebp]
	call	?AddNewID@C_Parser@@QAEJPADJ@Z		; C_Parser::AddNewID
	mov	DWORD PTR _FontID$[ebp], eax
$LN3@ParseFont:

; 2945 : 								}
; 2946 : 								P_[P_Idx_++]=FontID;

	mov	eax, DWORD PTR _this$[ebp]
	movsx	ecx, WORD PTR [eax+958]
	mov	edx, DWORD PTR _this$[ebp]
	mov	eax, DWORD PTR _FontID$[ebp]
	mov	DWORD PTR [edx+ecx*4+12], eax
	mov	ecx, DWORD PTR _this$[ebp]
	mov	dx, WORD PTR [ecx+958]
	add	dx, 1
	mov	eax, DWORD PTR _this$[ebp]
	mov	WORD PTR [eax+958], dx
$LN4@ParseFont:

; 2947 : 							}
; 2948 : 							Idx_+=tokenlen_+1;

	mov	ecx, DWORD PTR _this$[ebp]
	movsx	edx, WORD PTR [ecx+956]
	mov	eax, DWORD PTR _this$[ebp]
	mov	ecx, DWORD PTR [eax]
	lea	edx, DWORD PTR [edx+ecx+1]
	mov	eax, DWORD PTR _this$[ebp]
	mov	DWORD PTR [eax], edx

; 2949 : 							tokenlen_=0;

	xor	ecx, ecx
	mov	edx, DWORD PTR _this$[ebp]
	mov	WORD PTR [edx+956], cx
$LN32@ParseFont:

; 2950 : 						}
; 2951 : 					}
; 2952 : 				}

	jmp	$LN42@ParseFont
$LN41@ParseFont:

; 2953 : 				break;

	jmp	$LN63@ParseFont
$LN1@ParseFont:

; 2954 : 			case SECTION_PROCESSPARAMS:
; 2955 : 				Font_->FontFunction(static_cast<short>(TokenID),P_,str_,&logfont,&NewID);

	lea	eax, DWORD PTR _NewID$[ebp]
	push	eax
	lea	ecx, DWORD PTR _logfont$[ebp]
	push	ecx
	mov	edx, DWORD PTR _this$[ebp]
	mov	eax, DWORD PTR [edx+60]
	push	eax
	mov	ecx, DWORD PTR _this$[ebp]
	add	ecx, 12					; 0000000cH
	push	ecx
	movzx	edx, WORD PTR _TokenID$[ebp]
	push	edx
	mov	eax, DWORD PTR _this$[ebp]
	mov	ecx, DWORD PTR [eax+76]
	call	?FontFunction@C_Font@@QAEXFQAJPADPAUtagLOGFONTA@@PAJ@Z ; C_Font::FontFunction

; 2956 : 				P_Idx_=0;

	xor	ecx, ecx
	mov	edx, DWORD PTR _this$[ebp]
	mov	WORD PTR [edx+958], cx

; 2957 : 				P_[0]=0;P_[1]=0;P_[2]=0;P_[3]=0;P_[4]=0;P_[5]=0;P_[6]=0;P_[7]=0;

	mov	eax, 4
	imul	eax, 0
	mov	ecx, DWORD PTR _this$[ebp]
	mov	DWORD PTR [ecx+eax+12], 0
	mov	edx, 4
	shl	edx, 0
	mov	eax, DWORD PTR _this$[ebp]
	mov	DWORD PTR [eax+edx+12], 0
	mov	ecx, 4
	shl	ecx, 1
	mov	edx, DWORD PTR _this$[ebp]
	mov	DWORD PTR [edx+ecx+12], 0
	mov	eax, 4
	imul	eax, 3
	mov	ecx, DWORD PTR _this$[ebp]
	mov	DWORD PTR [ecx+eax+12], 0
	mov	edx, 4
	shl	edx, 2
	mov	eax, DWORD PTR _this$[ebp]
	mov	DWORD PTR [eax+edx+12], 0
	mov	ecx, 4
	imul	ecx, 5
	mov	edx, DWORD PTR _this$[ebp]
	mov	DWORD PTR [edx+ecx+12], 0
	mov	eax, 4
	imul	eax, 6
	mov	ecx, DWORD PTR _this$[ebp]
	mov	DWORD PTR [ecx+eax+12], 0
	mov	edx, 4
	imul	edx, 7
	mov	eax, DWORD PTR _this$[ebp]
	mov	DWORD PTR [eax+edx+12], 0

; 2958 : 				str_=NULL;

	mov	ecx, DWORD PTR _this$[ebp]
	mov	DWORD PTR [ecx+60], 0

; 2959 : 				Section=SECTION_FINDTOKEN;

	mov	DWORD PTR _Section$[ebp], 0
$LN63@ParseFont:

; 2960 : 				break;
; 2961 : 		}
; 2962 : 	}

	jmp	$LN66@ParseFont
$LN65@ParseFont:

; 2963 : 	return(Font_);

	mov	edx, DWORD PTR _this$[ebp]
	mov	eax, DWORD PTR [edx+76]
$LN69@ParseFont:

; 2964 : }

	mov	ecx, DWORD PTR __$EHRec$[ebp]
	mov	DWORD PTR fs:0, ecx
	pop	ecx
	mov	ecx, DWORD PTR __$ArrayPad$[ebp]
	xor	ecx, ebp
	call	@__security_check_cookie@4
	mov	esp, ebp
	pop	ebp
	ret	4
	npad	2
$LN79@ParseFont:
	DD	$LN62@ParseFont
	DD	$LN46@ParseFont
	DD	$LN63@ParseFont
	DD	$LN63@ParseFont
	DD	$LN43@ParseFont
	DD	$LN1@ParseFont
$LN80@ParseFont:
	DD	$LN53@ParseFont
	DD	$LN55@ParseFont
	DD	$LN54@ParseFont
	DD	$LN57@ParseFont
	DD	$LN52@ParseFont
$LN74@ParseFont:
	DB	0
	DB	4
	DB	4
	DB	0
	DB	4
	DB	4
	DB	4
	DB	4
	DB	4
	DB	4
	DB	4
	DB	4
	DB	4
	DB	4
	DB	4
	DB	4
	DB	4
	DB	4
	DB	4
	DB	4
	DB	4
	DB	4
	DB	4
	DB	4
	DB	1
	DB	2
	DB	4
	DB	4
	DB	4
	DB	4
	DB	4
	DB	4
	DB	4
	DB	4
	DB	4
	DB	4
	DB	4
	DB	4
	DB	4
	DB	4
	DB	4
	DB	4
	DB	4
	DB	4
	DB	4
	DB	4
	DB	4
	DB	4
	DB	4
	DB	4
	DB	4
	DB	4
	DB	4
	DB	4
	DB	4
	DB	4
	DB	4
	DB	4
	DB	4
	DB	4
	DB	4
	DB	4
	DB	4
	DB	4
	DB	4
	DB	4
	DB	4
	DB	4
	DB	4
	DB	4
	DB	4
	DB	4
	DB	4
	DB	4
	DB	4
	DB	4
	DB	4
	DB	4
	DB	4
	DB	4
	DB	4
	DB	3
	npad	2
$LN81@ParseFont:
	DD	$LN36@ParseFont
	DD	$LN35@ParseFont
	DD	$LN34@ParseFont
$LN75@ParseFont:
	DB	0
	DB	0
	DB	2
	DB	2
	DB	0
	DB	2
	DB	2
	DB	2
	DB	2
	DB	2
	DB	2
	DB	2
	DB	2
	DB	2
	DB	2
	DB	2
	DB	2
	DB	2
	DB	2
	DB	2
	DB	2
	DB	2
	DB	2
	DB	0
	DB	2
	DB	2
	DB	2
	DB	2
	DB	2
	DB	2
	DB	2
	DB	2
	DB	2
	DB	2
	DB	2
	DB	0
	DB	2
	DB	2
	DB	2
	DB	2
	DB	2
	DB	2
	DB	2
	DB	2
	DB	2
	DB	2
	DB	2
	DB	2
	DB	2
	DB	2
	DB	2
	DB	2
	DB	2
	DB	2
	DB	2
	DB	2
	DB	2
	DB	2
	DB	2
	DB	2
	DB	2
	DB	2
	DB	2
	DB	2
	DB	2
	DB	2
	DB	2
	DB	2
	DB	2
	DB	2
	DB	2
	DB	2
	DB	2
	DB	2
	DB	2
	DB	2
	DB	2
	DB	2
	DB	2
	DB	2
	DB	2
	DB	2
	DB	1
	npad	1
$LN82@ParseFont:
	DD	$LN16@ParseFont
	DD	$LN15@ParseFont
$LN76@ParseFont:
	DB	0
	DB	0
	DB	1
	DB	1
	DB	0
	DB	1
	DB	1
	DB	1
	DB	1
	DB	1
	DB	1
	DB	1
	DB	1
	DB	1
	DB	1
	DB	1
	DB	1
	DB	1
	DB	1
	DB	1
	DB	1
	DB	1
	DB	1
	DB	0
	DB	1
	DB	1
	DB	1
	DB	1
	DB	1
	DB	1
	DB	1
	DB	1
	DB	1
	DB	1
	DB	1
	DB	0
$LN83@ParseFont:
	DD	$LN7@ParseFont
	DD	$LN6@ParseFont
$LN77@ParseFont:
	DB	0
	DB	0
	DB	1
	DB	1
	DB	0
	DB	1
	DB	1
	DB	1
	DB	1
	DB	1
	DB	1
	DB	1
	DB	1
	DB	1
	DB	1
	DB	1
	DB	1
	DB	1
	DB	1
	DB	1
	DB	1
	DB	1
	DB	1
	DB	0
	DB	1
	DB	1
	DB	1
	DB	1
	DB	1
	DB	1
	DB	1
	DB	1
	DB	1
	DB	1
	DB	1
	DB	0
_TEXT	ENDS
text$x	SEGMENT
__unwindfunclet$?ParseFont@C_Parser@@QAEPAVC_Font@@PAD@Z$0:
	mov	eax, DWORD PTR $T3[ebp]
	push	eax
	call	??3@YAXPAX@Z				; operator delete
	pop	ecx
	ret	0
__ehhandler$?ParseFont@C_Parser@@QAEPAVC_Font@@PAD@Z:
	mov	edx, DWORD PTR [esp+8]
	lea	eax, DWORD PTR [edx+12]
	mov	ecx, DWORD PTR [edx-144]
	xor	ecx, eax
	call	@__security_check_cookie@4
	mov	ecx, DWORD PTR [edx-4]
	xor	ecx, eax
	call	@__security_check_cookie@4
	mov	eax, OFFSET __ehfuncinfo$?ParseFont@C_Parser@@QAEPAVC_Font@@PAD@Z
	jmp	___CxxFrameHandler3
text$x	ENDS
?ParseFont@C_Parser@@QAEPAVC_Font@@PAD@Z ENDP		; C_Parser::ParseFont
; Function compile flags: /Odtp
; File c:\users\zhitao li\documents\visual studio 2012\projects\freefalcon\ui95\cparser.cpp
_TEXT	SEGMENT
$T2 = -84						; size = 4
tv86 = -80						; size = 4
tv77 = -76						; size = 4
$T3 = -72						; size = 4
_MovieID$ = -68						; size = 4
tv390 = -64						; size = 4
tv333 = -60						; size = 4
tv231 = -56						; size = 4
_InString$ = -52					; size = 4
tv129 = -48						; size = 4
_this$ = -44						; size = 4
_TokenType$ = -40					; size = 2
_TokenID$ = -36						; size = 2
_Comment$ = -32						; size = 2
_Done$ = -28						; size = 2
_Finished$ = -24					; size = 2
_Section$ = -20						; size = 2
_Found$ = -16						; size = 2
__$EHRec$ = -12						; size = 12
_filename$ = 8						; size = 4
?ParseMovie@C_Parser@@QAEPAVC_Movie@@PAD@Z PROC		; C_Parser::ParseMovie
; _this$ = ecx

; 3439 : {

	push	ebp
	mov	ebp, esp
	push	-1
	push	__ehhandler$?ParseMovie@C_Parser@@QAEPAVC_Movie@@PAD@Z
	mov	eax, DWORD PTR fs:0
	push	eax
	sub	esp, 72					; 00000048H
	mov	eax, DWORD PTR ___security_cookie
	xor	eax, ebp
	push	eax
	lea	eax, DWORD PTR __$EHRec$[ebp]
	mov	DWORD PTR fs:0, eax
	mov	DWORD PTR _this$[ebp], ecx

; 3440 : 	int InString=0;

	mov	DWORD PTR _InString$[ebp], 0

; 3441 : 	short Done=0,Comment=0,Found=0,Finished=0;;

	xor	eax, eax
	mov	WORD PTR _Done$[ebp], ax
	xor	ecx, ecx
	mov	WORD PTR _Comment$[ebp], cx
	xor	edx, edx
	mov	WORD PTR _Found$[ebp], dx
	xor	eax, eax
	mov	WORD PTR _Finished$[ebp], ax

; 3442 : 	short TokenID=0,Section=0,TokenType=0;

	xor	ecx, ecx
	mov	WORD PTR _TokenID$[ebp], cx
	xor	edx, edx
	mov	WORD PTR _Section$[ebp], dx
	xor	eax, eax
	mov	WORD PTR _TokenType$[ebp], ax

; 3443 : 	long MovieID=0;

	mov	DWORD PTR _MovieID$[ebp], 0

; 3444 : 
; 3445 : 	Idx_=0;

	mov	ecx, DWORD PTR _this$[ebp]
	mov	DWORD PTR [ecx], 0

; 3446 : 	P_Idx_=0;

	xor	edx, edx
	mov	eax, DWORD PTR _this$[ebp]
	mov	WORD PTR [eax+958], dx

; 3447 : 	tokenlen_=0;

	xor	ecx, ecx
	mov	edx, DWORD PTR _this$[ebp]
	mov	WORD PTR [edx+956], cx

; 3448 : 
; 3449 : 	if(Movie_ == NULL)

	mov	eax, DWORD PTR _this$[ebp]
	cmp	DWORD PTR [eax+100], 0
	jne	SHORT $LN67@ParseMovie

; 3450 : 	{
; 3451 : 		Movie_=new C_Movie;

	push	16					; 00000010H
	call	??2@YAPAXI@Z				; operator new
	add	esp, 4
	mov	DWORD PTR $T3[ebp], eax
	mov	DWORD PTR __$EHRec$[ebp+8], 0
	cmp	DWORD PTR $T3[ebp], 0
	je	SHORT $LN70@ParseMovie
	mov	ecx, DWORD PTR $T3[ebp]
	call	??0C_Movie@@QAE@XZ			; C_Movie::C_Movie
	mov	DWORD PTR tv77[ebp], eax
	jmp	SHORT $LN71@ParseMovie
$LN70@ParseMovie:
	mov	DWORD PTR tv77[ebp], 0
$LN71@ParseMovie:
	mov	ecx, DWORD PTR tv77[ebp]
	mov	DWORD PTR $T2[ebp], ecx
	mov	DWORD PTR __$EHRec$[ebp+8], -1
	mov	edx, DWORD PTR _this$[ebp]
	mov	eax, DWORD PTR $T2[ebp]
	mov	DWORD PTR [edx+100], eax

; 3452 : 		Movie_->Setup();

	mov	ecx, DWORD PTR _this$[ebp]
	mov	ecx, DWORD PTR [ecx+100]
	call	?Setup@C_Movie@@QAEXXZ			; C_Movie::Setup
$LN67@ParseMovie:

; 3453 : 	}
; 3454 : 
; 3455 : 	if(LoadScript(filename) == FALSE)

	mov	edx, DWORD PTR _filename$[ebp]
	push	edx
	mov	ecx, DWORD PTR _this$[ebp]
	call	?LoadScript@C_Parser@@QAEHPAD@Z		; C_Parser::LoadScript
	test	eax, eax
	jne	SHORT $LN66@ParseMovie

; 3456 : 		return(NULL);

	xor	eax, eax
	jmp	$LN68@ParseMovie
$LN66@ParseMovie:

; 3457 : 
; 3458 : 	Done=0;

	xor	eax, eax
	mov	WORD PTR _Done$[ebp], ax

; 3459 : 	Comment=0;

	xor	ecx, ecx
	mov	WORD PTR _Comment$[ebp], cx

; 3460 : 	InString=0;

	mov	DWORD PTR _InString$[ebp], 0

; 3461 : 	Section=SECTION_FINDTOKEN;

	xor	edx, edx
	mov	WORD PTR _Section$[ebp], dx

; 3462 : 	TokenType=TOKEN_NOTHING;

	xor	eax, eax
	mov	WORD PTR _TokenType$[ebp], ax
$LN65@ParseMovie:

; 3463 : 	
; 3464 : 	while(!Done)

	movsx	ecx, WORD PTR _Done$[ebp]
	test	ecx, ecx
	jne	$LN64@ParseMovie

; 3465 : 	{
; 3466 : 		switch(Section)

	movsx	edx, WORD PTR _Section$[ebp]
	mov	DWORD PTR tv86[ebp], edx
	cmp	DWORD PTR tv86[ebp], 5
	ja	$LN62@ParseMovie
	mov	eax, DWORD PTR tv86[ebp]
	jmp	DWORD PTR $LN78@ParseMovie[eax*4]
$LN61@ParseMovie:

; 3467 : 		{
; 3468 : 			case SECTION_FINDTOKEN:
; 3469 : 			// Look for token starting with '['
; 3470 : 				Found=0;

	xor	ecx, ecx
	mov	WORD PTR _Found$[ebp], cx
$LN60@ParseMovie:

; 3471 : 				while(!Found && !Done)

	movsx	edx, WORD PTR _Found$[ebp]
	test	edx, edx
	jne	$LN59@ParseMovie
	movsx	eax, WORD PTR _Done$[ebp]
	test	eax, eax
	jne	$LN59@ParseMovie

; 3472 : 				{
; 3473 : 					switch(script_[Idx_])

	mov	ecx, DWORD PTR _this$[ebp]
	mov	edx, DWORD PTR [ecx]
	mov	eax, DWORD PTR _this$[ebp]
	mov	ecx, DWORD PTR [eax+4]
	movsx	edx, BYTE PTR [ecx+edx]
	mov	DWORD PTR tv129[ebp], edx
	mov	eax, DWORD PTR tv129[ebp]
	sub	eax, 10					; 0000000aH
	mov	DWORD PTR tv129[ebp], eax
	cmp	DWORD PTR tv129[ebp], 81		; 00000051H
	ja	$LN51@ParseMovie
	mov	ecx, DWORD PTR tv129[ebp]
	movzx	edx, BYTE PTR $LN73@ParseMovie[ecx]
	jmp	DWORD PTR $LN79@ParseMovie[edx*4]
$LN56@ParseMovie:

; 3474 : 					{
; 3475 : 						case '[':
; 3476 : 							if(!Comment && !InString)

	movsx	eax, WORD PTR _Comment$[ebp]
	test	eax, eax
	jne	SHORT $LN55@ParseMovie
	cmp	DWORD PTR _InString$[ebp], 0
	jne	SHORT $LN55@ParseMovie

; 3477 : 							{
; 3478 : 								Found=1;

	mov	ecx, 1
	mov	WORD PTR _Found$[ebp], cx

; 3479 : 								break;

	jmp	SHORT $LN57@ParseMovie
$LN55@ParseMovie:

; 3480 : 							}
; 3481 : 							Idx_++;

	mov	edx, DWORD PTR _this$[ebp]
	mov	eax, DWORD PTR [edx]
	add	eax, 1
	mov	ecx, DWORD PTR _this$[ebp]
	mov	DWORD PTR [ecx], eax

; 3482 : 							break;

	jmp	SHORT $LN57@ParseMovie
$LN54@ParseMovie:

; 3483 : 						case '"':
; 3484 : 							InString=1-InString;

	mov	edx, 1
	sub	edx, DWORD PTR _InString$[ebp]
	mov	DWORD PTR _InString$[ebp], edx

; 3485 : 							Idx_++;

	mov	eax, DWORD PTR _this$[ebp]
	mov	ecx, DWORD PTR [eax]
	add	ecx, 1
	mov	edx, DWORD PTR _this$[ebp]
	mov	DWORD PTR [edx], ecx

; 3486 : 							break;

	jmp	SHORT $LN57@ParseMovie
$LN53@ParseMovie:

; 3487 : 						case '#':
; 3488 : 							Comment=1;

	mov	eax, 1
	mov	WORD PTR _Comment$[ebp], ax

; 3489 : 							Idx_++;

	mov	ecx, DWORD PTR _this$[ebp]
	mov	edx, DWORD PTR [ecx]
	add	edx, 1
	mov	eax, DWORD PTR _this$[ebp]
	mov	DWORD PTR [eax], edx

; 3490 : 							break;

	jmp	SHORT $LN57@ParseMovie
$LN52@ParseMovie:

; 3491 : 						case 0x0a: case 0x0d:
; 3492 : 							Comment=0;

	xor	ecx, ecx
	mov	WORD PTR _Comment$[ebp], cx

; 3493 : 							Idx_++;

	mov	edx, DWORD PTR _this$[ebp]
	mov	eax, DWORD PTR [edx]
	add	eax, 1
	mov	ecx, DWORD PTR _this$[ebp]
	mov	DWORD PTR [ecx], eax

; 3494 : 							break;

	jmp	SHORT $LN57@ParseMovie
$LN51@ParseMovie:

; 3495 : 						default:
; 3496 : 							Idx_++;

	mov	edx, DWORD PTR _this$[ebp]
	mov	eax, DWORD PTR [edx]
	add	eax, 1
	mov	ecx, DWORD PTR _this$[ebp]
	mov	DWORD PTR [ecx], eax
$LN57@ParseMovie:

; 3497 : 					}
; 3498 : 					if((Idx_) >= scriptlen_)

	mov	edx, DWORD PTR _this$[ebp]
	mov	eax, DWORD PTR _this$[ebp]
	mov	ecx, DWORD PTR [edx]
	cmp	ecx, DWORD PTR [eax+8]
	jl	SHORT $LN50@ParseMovie

; 3499 : 						Done=1;

	mov	edx, 1
	mov	WORD PTR _Done$[ebp], dx
$LN50@ParseMovie:

; 3500 : 				}

	jmp	$LN60@ParseMovie
$LN59@ParseMovie:

; 3501 : 							
; 3502 : 				tokenlen_=0;

	xor	eax, eax
	mov	ecx, DWORD PTR _this$[ebp]
	mov	WORD PTR [ecx+956], ax
$LN49@ParseMovie:

; 3503 : 				while(script_[Idx_+tokenlen_] != ']' && (Idx_+tokenlen_) < scriptlen_)

	mov	edx, DWORD PTR _this$[ebp]
	movsx	eax, WORD PTR [edx+956]
	mov	ecx, DWORD PTR _this$[ebp]
	mov	edx, DWORD PTR [ecx]
	add	edx, eax
	mov	eax, DWORD PTR _this$[ebp]
	mov	ecx, DWORD PTR [eax+4]
	movsx	edx, BYTE PTR [ecx+edx]
	cmp	edx, 93					; 0000005dH
	je	SHORT $LN48@ParseMovie
	mov	eax, DWORD PTR _this$[ebp]
	movsx	ecx, WORD PTR [eax+956]
	mov	edx, DWORD PTR _this$[ebp]
	add	ecx, DWORD PTR [edx]
	mov	eax, DWORD PTR _this$[ebp]
	cmp	ecx, DWORD PTR [eax+8]
	jge	SHORT $LN48@ParseMovie

; 3504 : 					tokenlen_++;

	mov	ecx, DWORD PTR _this$[ebp]
	mov	dx, WORD PTR [ecx+956]
	add	dx, 1
	mov	eax, DWORD PTR _this$[ebp]
	mov	WORD PTR [eax+956], dx
	jmp	SHORT $LN49@ParseMovie
$LN48@ParseMovie:

; 3505 : 				tokenlen_++;

	mov	ecx, DWORD PTR _this$[ebp]
	mov	dx, WORD PTR [ecx+956]
	add	dx, 1
	mov	eax, DWORD PTR _this$[ebp]
	mov	WORD PTR [eax+956], dx

; 3506 : 
; 3507 : 				if((Idx_ + tokenlen_) >= scriptlen_)

	mov	ecx, DWORD PTR _this$[ebp]
	movsx	edx, WORD PTR [ecx+956]
	mov	eax, DWORD PTR _this$[ebp]
	add	edx, DWORD PTR [eax]
	mov	ecx, DWORD PTR _this$[ebp]
	cmp	edx, DWORD PTR [ecx+8]
	jl	SHORT $LN47@ParseMovie

; 3508 : 				{
; 3509 : 					Done=1;

	mov	edx, 1
	mov	WORD PTR _Done$[ebp], dx

; 3510 : 					break;

	jmp	$LN62@ParseMovie
$LN47@ParseMovie:

; 3511 : 				}
; 3512 : 
; 3513 : 				if(Found == 1)

	movsx	eax, WORD PTR _Found$[ebp]
	cmp	eax, 1
	jne	SHORT $LN46@ParseMovie

; 3514 : 					Section=SECTION_PROCESSTOKEN;

	mov	ecx, 1
	mov	WORD PTR _Section$[ebp], cx
$LN46@ParseMovie:

; 3515 : 				break;

	jmp	$LN62@ParseMovie
$LN45@ParseMovie:

; 3516 : 			case SECTION_PROCESSTOKEN:
; 3517 : 				TokenID=Movie_->LocalFind(&script_[Idx_]);

	mov	edx, DWORD PTR _this$[ebp]
	mov	eax, DWORD PTR [edx+4]
	mov	ecx, DWORD PTR _this$[ebp]
	add	eax, DWORD PTR [ecx]
	push	eax
	mov	edx, DWORD PTR _this$[ebp]
	mov	ecx, DWORD PTR [edx+100]
	call	?LocalFind@C_Movie@@QAEFPAD@Z		; C_Movie::LocalFind
	mov	WORD PTR _TokenID$[ebp], ax

; 3518 : 				if(TokenID)

	movsx	eax, WORD PTR _TokenID$[ebp]
	test	eax, eax
	je	SHORT $LN44@ParseMovie

; 3519 : 				{
; 3520 : 					Section=SECTION_FINDPARAMS;

	mov	ecx, 4
	mov	WORD PTR _Section$[ebp], cx

; 3521 : 					Idx_+=tokenlen_;

	mov	edx, DWORD PTR _this$[ebp]
	movsx	eax, WORD PTR [edx+956]
	mov	ecx, DWORD PTR _this$[ebp]
	add	eax, DWORD PTR [ecx]
	mov	edx, DWORD PTR _this$[ebp]
	mov	DWORD PTR [edx], eax

; 3522 : 					tokenlen_=0;

	xor	eax, eax
	mov	ecx, DWORD PTR _this$[ebp]
	mov	WORD PTR [ecx+956], ax

; 3523 : 				}
; 3524 : 				else

	jmp	SHORT $LN43@ParseMovie
$LN44@ParseMovie:

; 3525 : 				{
; 3526 : 					Section=SECTION_FINDTOKEN;

	xor	edx, edx
	mov	WORD PTR _Section$[ebp], dx

; 3527 : 					Idx_+=tokenlen_;

	mov	eax, DWORD PTR _this$[ebp]
	movsx	ecx, WORD PTR [eax+956]
	mov	edx, DWORD PTR _this$[ebp]
	add	ecx, DWORD PTR [edx]
	mov	eax, DWORD PTR _this$[ebp]
	mov	DWORD PTR [eax], ecx

; 3528 : 					tokenlen_=0;

	xor	ecx, ecx
	mov	edx, DWORD PTR _this$[ebp]
	mov	WORD PTR [edx+956], cx
$LN43@ParseMovie:

; 3529 : 				}
; 3530 : 				break;

	jmp	$LN62@ParseMovie
$LN42@ParseMovie:

; 3531 : 			case SECTION_FINDPARAMS:
; 3532 : 				P_Idx_=0; // start with 0 parameters

	xor	eax, eax
	mov	ecx, DWORD PTR _this$[ebp]
	mov	WORD PTR [ecx+958], ax

; 3533 : 
; 3534 : 				// Repeat until token char '[' found (or EOF)
; 3535 : 				Finished=0;

	xor	edx, edx
	mov	WORD PTR _Finished$[ebp], dx
$LN41@ParseMovie:

; 3536 : 				while(!Finished)

	movsx	eax, WORD PTR _Finished$[ebp]
	test	eax, eax
	jne	$LN40@ParseMovie

; 3537 : 				{
; 3538 : 					// Find NON white space
; 3539 : 					Found=0;

	xor	ecx, ecx
	mov	WORD PTR _Found$[ebp], cx
$LN39@ParseMovie:

; 3540 : 					while(!Found && !Done && !Finished)

	movsx	edx, WORD PTR _Found$[ebp]
	test	edx, edx
	jne	$LN38@ParseMovie
	movsx	eax, WORD PTR _Done$[ebp]
	test	eax, eax
	jne	$LN38@ParseMovie
	movsx	ecx, WORD PTR _Finished$[ebp]
	test	ecx, ecx
	jne	$LN38@ParseMovie

; 3541 : 					{
; 3542 : 						switch(script_[Idx_])

	mov	edx, DWORD PTR _this$[ebp]
	mov	eax, DWORD PTR [edx]
	mov	ecx, DWORD PTR _this$[ebp]
	mov	edx, DWORD PTR [ecx+4]
	movsx	eax, BYTE PTR [edx+eax]
	mov	DWORD PTR tv231[ebp], eax
	mov	ecx, DWORD PTR tv231[ebp]
	sub	ecx, 9
	mov	DWORD PTR tv231[ebp], ecx
	cmp	DWORD PTR tv231[ebp], 82		; 00000052H
	ja	SHORT $LN33@ParseMovie
	mov	edx, DWORD PTR tv231[ebp]
	movzx	eax, BYTE PTR $LN74@ParseMovie[edx]
	jmp	DWORD PTR $LN80@ParseMovie[eax*4]
$LN35@ParseMovie:

; 3543 : 						{
; 3544 : 							case ' ': case ',': case 0x09: case 0x0a: case 0x0d:
; 3545 : 								Idx_++;

	mov	ecx, DWORD PTR _this$[ebp]
	mov	edx, DWORD PTR [ecx]
	add	edx, 1
	mov	eax, DWORD PTR _this$[ebp]
	mov	DWORD PTR [eax], edx

; 3546 : 								break;

	jmp	SHORT $LN36@ParseMovie
$LN34@ParseMovie:

; 3547 : 							case '[':
; 3548 : 								Finished=1;

	mov	ecx, 1
	mov	WORD PTR _Finished$[ebp], cx

; 3549 : 								Section=SECTION_PROCESSPARAMS;

	mov	edx, 5
	mov	WORD PTR _Section$[ebp], dx

; 3550 : 								break;

	jmp	SHORT $LN36@ParseMovie
$LN33@ParseMovie:

; 3551 : 							default:
; 3552 : 								Found=1;

	mov	eax, 1
	mov	WORD PTR _Found$[ebp], ax
$LN36@ParseMovie:

; 3553 : 								break;
; 3554 : 						}
; 3555 : 						if(Idx_ >= scriptlen_)

	mov	ecx, DWORD PTR _this$[ebp]
	mov	edx, DWORD PTR _this$[ebp]
	mov	eax, DWORD PTR [ecx]
	cmp	eax, DWORD PTR [edx+8]
	jl	SHORT $LN32@ParseMovie

; 3556 : 						{
; 3557 : 							Finished=1;

	mov	ecx, 1
	mov	WORD PTR _Finished$[ebp], cx

; 3558 : 							Section=SECTION_PROCESSPARAMS;

	mov	edx, 5
	mov	WORD PTR _Section$[ebp], dx
$LN32@ParseMovie:

; 3559 : 						}
; 3560 : 					}

	jmp	$LN39@ParseMovie
$LN38@ParseMovie:

; 3561 : 
; 3562 : 					if(Found)

	movsx	eax, WORD PTR _Found$[ebp]
	test	eax, eax
	je	$LN31@ParseMovie

; 3563 : 					{
; 3564 : 						Found=0;

	xor	ecx, ecx
	mov	WORD PTR _Found$[ebp], cx

; 3565 : 						if(script_[Idx_] == '"') // string

	mov	edx, DWORD PTR _this$[ebp]
	mov	eax, DWORD PTR [edx]
	mov	ecx, DWORD PTR _this$[ebp]
	mov	edx, DWORD PTR [ecx+4]
	movsx	eax, BYTE PTR [edx+eax]
	cmp	eax, 34					; 00000022H
	jne	$LN30@ParseMovie

; 3566 : 						{
; 3567 : 							tokenlen_=1;

	mov	ecx, 1
	mov	edx, DWORD PTR _this$[ebp]
	mov	WORD PTR [edx+956], cx

; 3568 : 							str_=&script_[Idx_+tokenlen_];

	mov	eax, DWORD PTR _this$[ebp]
	movsx	ecx, WORD PTR [eax+956]
	mov	edx, DWORD PTR _this$[ebp]
	mov	eax, DWORD PTR [edx]
	add	eax, ecx
	mov	ecx, DWORD PTR _this$[ebp]
	mov	edx, DWORD PTR [ecx+4]
	add	edx, eax
	mov	eax, DWORD PTR _this$[ebp]
	mov	DWORD PTR [eax+60], edx
$LN29@ParseMovie:

; 3569 : 							// Find closing (")
; 3570 : 							while(!Found && !Finished)

	movsx	ecx, WORD PTR _Found$[ebp]
	test	ecx, ecx
	jne	SHORT $LN28@ParseMovie
	movsx	edx, WORD PTR _Finished$[ebp]
	test	edx, edx
	jne	SHORT $LN28@ParseMovie

; 3571 : 							{
; 3572 : 								if(script_[Idx_+tokenlen_] == '"')

	mov	eax, DWORD PTR _this$[ebp]
	movsx	ecx, WORD PTR [eax+956]
	mov	edx, DWORD PTR _this$[ebp]
	mov	eax, DWORD PTR [edx]
	add	eax, ecx
	mov	ecx, DWORD PTR _this$[ebp]
	mov	edx, DWORD PTR [ecx+4]
	movsx	eax, BYTE PTR [edx+eax]
	cmp	eax, 34					; 00000022H
	jne	SHORT $LN27@ParseMovie

; 3573 : 									Found=1;

	mov	ecx, 1
	mov	WORD PTR _Found$[ebp], cx

; 3574 : 								else

	jmp	SHORT $LN26@ParseMovie
$LN27@ParseMovie:

; 3575 : 								{
; 3576 : 									if((Idx_+tokenlen_) >= scriptlen_)

	mov	edx, DWORD PTR _this$[ebp]
	movsx	eax, WORD PTR [edx+956]
	mov	ecx, DWORD PTR _this$[ebp]
	add	eax, DWORD PTR [ecx]
	mov	edx, DWORD PTR _this$[ebp]
	cmp	eax, DWORD PTR [edx+8]
	jl	SHORT $LN25@ParseMovie

; 3577 : 									{
; 3578 : 										Finished=1;

	mov	eax, 1
	mov	WORD PTR _Finished$[ebp], ax

; 3579 : 										Section=SECTION_PROCESSPARAMS;

	mov	ecx, 5
	mov	WORD PTR _Section$[ebp], cx

; 3580 : 									}
; 3581 : 									else

	jmp	SHORT $LN26@ParseMovie
$LN25@ParseMovie:

; 3582 : 										tokenlen_++;

	mov	edx, DWORD PTR _this$[ebp]
	mov	ax, WORD PTR [edx+956]
	add	ax, 1
	mov	ecx, DWORD PTR _this$[ebp]
	mov	WORD PTR [ecx+956], ax
$LN26@ParseMovie:

; 3583 : 								}
; 3584 : 							}

	jmp	SHORT $LN29@ParseMovie
$LN28@ParseMovie:

; 3585 : 							if(Found)

	movsx	edx, WORD PTR _Found$[ebp]
	test	edx, edx
	je	SHORT $LN23@ParseMovie

; 3586 : 								script_[Idx_+tokenlen_]=0; // make NULL terminated string

	mov	eax, DWORD PTR _this$[ebp]
	movsx	ecx, WORD PTR [eax+956]
	mov	edx, DWORD PTR _this$[ebp]
	add	ecx, DWORD PTR [edx]
	mov	eax, DWORD PTR _this$[ebp]
	mov	edx, DWORD PTR [eax+4]
	mov	BYTE PTR [edx+ecx], 0
$LN23@ParseMovie:

; 3587 : 							Idx_+=tokenlen_+1;

	mov	eax, DWORD PTR _this$[ebp]
	movsx	ecx, WORD PTR [eax+956]
	mov	edx, DWORD PTR _this$[ebp]
	mov	eax, DWORD PTR [edx]
	lea	ecx, DWORD PTR [ecx+eax+1]
	mov	edx, DWORD PTR _this$[ebp]
	mov	DWORD PTR [edx], ecx

; 3588 : 							tokenlen_=0;

	xor	eax, eax
	mov	ecx, DWORD PTR _this$[ebp]
	mov	WORD PTR [ecx+956], ax
	jmp	$LN31@ParseMovie
$LN30@ParseMovie:

; 3589 : 						}
; 3590 : 						else if(isdigit(script_[Idx_]) || script_[Idx_] == '-') // Number

	mov	edx, DWORD PTR _this$[ebp]
	mov	eax, DWORD PTR [edx]
	mov	ecx, DWORD PTR _this$[ebp]
	mov	edx, DWORD PTR [ecx+4]
	movsx	eax, BYTE PTR [edx+eax]
	push	eax
	call	_isdigit
	add	esp, 4
	test	eax, eax
	jne	SHORT $LN20@ParseMovie
	mov	ecx, DWORD PTR _this$[ebp]
	mov	edx, DWORD PTR [ecx]
	mov	eax, DWORD PTR _this$[ebp]
	mov	ecx, DWORD PTR [eax+4]
	movsx	edx, BYTE PTR [ecx+edx]
	cmp	edx, 45					; 0000002dH
	jne	$LN21@ParseMovie
$LN20@ParseMovie:

; 3591 : 						{
; 3592 : 							// find white space
; 3593 : 							Found=0;

	xor	eax, eax
	mov	WORD PTR _Found$[ebp], ax

; 3594 : 							tokenlen_=1;

	mov	ecx, 1
	mov	edx, DWORD PTR _this$[ebp]
	mov	WORD PTR [edx+956], cx
$LN19@ParseMovie:

; 3595 : 							while(!Found)

	movsx	eax, WORD PTR _Found$[ebp]
	test	eax, eax
	jne	$LN18@ParseMovie

; 3596 : 							{
; 3597 : 								switch(script_[Idx_ + tokenlen_])

	mov	ecx, DWORD PTR _this$[ebp]
	movsx	edx, WORD PTR [ecx+956]
	mov	eax, DWORD PTR _this$[ebp]
	mov	ecx, DWORD PTR [eax]
	add	ecx, edx
	mov	edx, DWORD PTR _this$[ebp]
	mov	eax, DWORD PTR [edx+4]
	movsx	ecx, BYTE PTR [eax+ecx]
	mov	DWORD PTR tv333[ebp], ecx
	mov	edx, DWORD PTR tv333[ebp]
	sub	edx, 9
	mov	DWORD PTR tv333[ebp], edx
	cmp	DWORD PTR tv333[ebp], 35		; 00000023H
	ja	SHORT $LN14@ParseMovie
	mov	eax, DWORD PTR tv333[ebp]
	movzx	ecx, BYTE PTR $LN75@ParseMovie[eax]
	jmp	DWORD PTR $LN81@ParseMovie[ecx*4]
$LN15@ParseMovie:

; 3598 : 								{
; 3599 : 									case ' ': case ',': case 0x09: case 0x0a: case 0x0d:
; 3600 : 										Found=1;

	mov	edx, 1
	mov	WORD PTR _Found$[ebp], dx

; 3601 : 										break;

	jmp	SHORT $LN16@ParseMovie
$LN14@ParseMovie:

; 3602 : 									default:
; 3603 : 										tokenlen_++;

	mov	eax, DWORD PTR _this$[ebp]
	mov	cx, WORD PTR [eax+956]
	add	cx, 1
	mov	edx, DWORD PTR _this$[ebp]
	mov	WORD PTR [edx+956], cx
$LN16@ParseMovie:

; 3604 : 										break;
; 3605 : 								}
; 3606 : 								if((Idx_+tokenlen_) >= scriptlen_)

	mov	eax, DWORD PTR _this$[ebp]
	movsx	ecx, WORD PTR [eax+956]
	mov	edx, DWORD PTR _this$[ebp]
	add	ecx, DWORD PTR [edx]
	mov	eax, DWORD PTR _this$[ebp]
	cmp	ecx, DWORD PTR [eax+8]
	jl	SHORT $LN13@ParseMovie

; 3607 : 								{
; 3608 : 									Found=1;

	mov	ecx, 1
	mov	WORD PTR _Found$[ebp], cx

; 3609 : 									Finished=1;

	mov	edx, 1
	mov	WORD PTR _Finished$[ebp], dx

; 3610 : 									Section=SECTION_PROCESSPARAMS;

	mov	eax, 5
	mov	WORD PTR _Section$[ebp], ax
$LN13@ParseMovie:

; 3611 : 								}
; 3612 : 							}

	jmp	$LN19@ParseMovie
$LN18@ParseMovie:

; 3613 : 							if(Found && P_Idx_ < PARSE_MAX_PARAMS)

	movsx	ecx, WORD PTR _Found$[ebp]
	test	ecx, ecx
	je	SHORT $LN12@ParseMovie
	mov	edx, DWORD PTR _this$[ebp]
	movsx	eax, WORD PTR [edx+958]
	cmp	eax, 12					; 0000000cH
	jge	SHORT $LN12@ParseMovie

; 3614 : 								P_[P_Idx_++]=atol(&script_[Idx_]);

	mov	ecx, DWORD PTR _this$[ebp]
	mov	edx, DWORD PTR [ecx+4]
	mov	eax, DWORD PTR _this$[ebp]
	add	edx, DWORD PTR [eax]
	push	edx
	call	_atol
	add	esp, 4
	mov	ecx, DWORD PTR _this$[ebp]
	movsx	edx, WORD PTR [ecx+958]
	mov	ecx, DWORD PTR _this$[ebp]
	mov	DWORD PTR [ecx+edx*4+12], eax
	mov	edx, DWORD PTR _this$[ebp]
	mov	ax, WORD PTR [edx+958]
	add	ax, 1
	mov	ecx, DWORD PTR _this$[ebp]
	mov	WORD PTR [ecx+958], ax
$LN12@ParseMovie:

; 3615 : 
; 3616 : 							Idx_+=tokenlen_;

	mov	edx, DWORD PTR _this$[ebp]
	movsx	eax, WORD PTR [edx+956]
	mov	ecx, DWORD PTR _this$[ebp]
	add	eax, DWORD PTR [ecx]
	mov	edx, DWORD PTR _this$[ebp]
	mov	DWORD PTR [edx], eax

; 3617 : 							tokenlen_=0;

	xor	eax, eax
	mov	ecx, DWORD PTR _this$[ebp]
	mov	WORD PTR [ecx+956], ax

; 3618 : 						}
; 3619 : 						else

	jmp	$LN31@ParseMovie
$LN21@ParseMovie:

; 3620 : 						{
; 3621 : 							// Look for ID in tables
; 3622 : 							// Look for white space
; 3623 : 							Found=0;

	xor	edx, edx
	mov	WORD PTR _Found$[ebp], dx

; 3624 : 							tokenlen_=0;

	xor	eax, eax
	mov	ecx, DWORD PTR _this$[ebp]
	mov	WORD PTR [ecx+956], ax
$LN10@ParseMovie:

; 3625 : 							while(!Found && !Finished)

	movsx	edx, WORD PTR _Found$[ebp]
	test	edx, edx
	jne	$LN9@ParseMovie
	movsx	eax, WORD PTR _Finished$[ebp]
	test	eax, eax
	jne	$LN9@ParseMovie

; 3626 : 							{
; 3627 : 								switch(script_[Idx_+tokenlen_])

	mov	ecx, DWORD PTR _this$[ebp]
	movsx	edx, WORD PTR [ecx+956]
	mov	eax, DWORD PTR _this$[ebp]
	mov	ecx, DWORD PTR [eax]
	add	ecx, edx
	mov	edx, DWORD PTR _this$[ebp]
	mov	eax, DWORD PTR [edx+4]
	movsx	ecx, BYTE PTR [eax+ecx]
	mov	DWORD PTR tv390[ebp], ecx
	mov	edx, DWORD PTR tv390[ebp]
	sub	edx, 9
	mov	DWORD PTR tv390[ebp], edx
	cmp	DWORD PTR tv390[ebp], 35		; 00000023H
	ja	SHORT $LN5@ParseMovie
	mov	eax, DWORD PTR tv390[ebp]
	movzx	ecx, BYTE PTR $LN76@ParseMovie[eax]
	jmp	DWORD PTR $LN82@ParseMovie[ecx*4]
$LN6@ParseMovie:

; 3628 : 								{
; 3629 : 									case ' ': case ',': case 0x09: case 0x0a: case 0x0d:
; 3630 : 										Found=1;

	mov	edx, 1
	mov	WORD PTR _Found$[ebp], dx

; 3631 : 										break;

	jmp	SHORT $LN7@ParseMovie
$LN5@ParseMovie:

; 3632 : 									default:
; 3633 : 										tokenlen_++;

	mov	eax, DWORD PTR _this$[ebp]
	mov	cx, WORD PTR [eax+956]
	add	cx, 1
	mov	edx, DWORD PTR _this$[ebp]
	mov	WORD PTR [edx+956], cx
$LN7@ParseMovie:

; 3634 : 										break;
; 3635 : 								}
; 3636 : 								if((Idx_+tokenlen_) >= scriptlen_)

	mov	eax, DWORD PTR _this$[ebp]
	movsx	ecx, WORD PTR [eax+956]
	mov	edx, DWORD PTR _this$[ebp]
	add	ecx, DWORD PTR [edx]
	mov	eax, DWORD PTR _this$[ebp]
	cmp	ecx, DWORD PTR [eax+8]
	jl	SHORT $LN4@ParseMovie

; 3637 : 								{
; 3638 : 									Finished=1;

	mov	ecx, 1
	mov	WORD PTR _Finished$[ebp], cx

; 3639 : 									Found=1;

	mov	edx, 1
	mov	WORD PTR _Found$[ebp], dx

; 3640 : 									Section=SECTION_PROCESSPARAMS;

	mov	eax, 5
	mov	WORD PTR _Section$[ebp], ax
$LN4@ParseMovie:

; 3641 : 								}
; 3642 : 							}

	jmp	$LN10@ParseMovie
$LN9@ParseMovie:

; 3643 : 							if(Found && P_Idx_ < PARSE_MAX_PARAMS)

	movsx	ecx, WORD PTR _Found$[ebp]
	test	ecx, ecx
	je	$LN3@ParseMovie
	mov	edx, DWORD PTR _this$[ebp]
	movsx	eax, WORD PTR [edx+958]
	cmp	eax, 12					; 0000000cH
	jge	SHORT $LN3@ParseMovie

; 3644 : 							{
; 3645 : 								script_[Idx_+tokenlen_]=0;

	mov	ecx, DWORD PTR _this$[ebp]
	movsx	edx, WORD PTR [ecx+956]
	mov	eax, DWORD PTR _this$[ebp]
	add	edx, DWORD PTR [eax]
	mov	ecx, DWORD PTR _this$[ebp]
	mov	eax, DWORD PTR [ecx+4]
	mov	BYTE PTR [eax+edx], 0

; 3646 : 								MovieID=FindID(&script_[Idx_]);

	mov	ecx, DWORD PTR _this$[ebp]
	mov	edx, DWORD PTR [ecx+4]
	mov	eax, DWORD PTR _this$[ebp]
	add	edx, DWORD PTR [eax]
	push	edx
	mov	ecx, DWORD PTR _this$[ebp]
	call	?FindID@C_Parser@@QAEJPAD@Z		; C_Parser::FindID
	mov	DWORD PTR _MovieID$[ebp], eax

; 3647 : 								if(MovieID == -1)

	cmp	DWORD PTR _MovieID$[ebp], -1
	jne	SHORT $LN2@ParseMovie

; 3648 : 									MovieID=AddNewID(&script_[Idx_],1);

	push	1
	mov	ecx, DWORD PTR _this$[ebp]
	mov	edx, DWORD PTR [ecx+4]
	mov	eax, DWORD PTR _this$[ebp]
	add	edx, DWORD PTR [eax]
	push	edx
	mov	ecx, DWORD PTR _this$[ebp]
	call	?AddNewID@C_Parser@@QAEJPADJ@Z		; C_Parser::AddNewID
	mov	DWORD PTR _MovieID$[ebp], eax
$LN2@ParseMovie:

; 3649 : 								P_[P_Idx_++]=MovieID;

	mov	ecx, DWORD PTR _this$[ebp]
	movsx	edx, WORD PTR [ecx+958]
	mov	eax, DWORD PTR _this$[ebp]
	mov	ecx, DWORD PTR _MovieID$[ebp]
	mov	DWORD PTR [eax+edx*4+12], ecx
	mov	edx, DWORD PTR _this$[ebp]
	mov	ax, WORD PTR [edx+958]
	add	ax, 1
	mov	ecx, DWORD PTR _this$[ebp]
	mov	WORD PTR [ecx+958], ax
$LN3@ParseMovie:

; 3650 : 							}
; 3651 : 							Idx_+=tokenlen_+1;

	mov	edx, DWORD PTR _this$[ebp]
	movsx	eax, WORD PTR [edx+956]
	mov	ecx, DWORD PTR _this$[ebp]
	mov	edx, DWORD PTR [ecx]
	lea	eax, DWORD PTR [eax+edx+1]
	mov	ecx, DWORD PTR _this$[ebp]
	mov	DWORD PTR [ecx], eax

; 3652 : 							tokenlen_=0;

	xor	edx, edx
	mov	eax, DWORD PTR _this$[ebp]
	mov	WORD PTR [eax+956], dx
$LN31@ParseMovie:

; 3653 : 						}
; 3654 : 					}
; 3655 : 				}

	jmp	$LN41@ParseMovie
$LN40@ParseMovie:

; 3656 : 				break;

	jmp	$LN62@ParseMovie
$LN1@ParseMovie:

; 3657 : 			case SECTION_PROCESSPARAMS:
; 3658 : 				Movie_->LocalFunction(static_cast<short>(TokenID),P_,str_,Handler_);

	mov	ecx, DWORD PTR _this$[ebp]
	mov	edx, DWORD PTR [ecx+64]
	push	edx
	mov	eax, DWORD PTR _this$[ebp]
	mov	ecx, DWORD PTR [eax+60]
	push	ecx
	mov	edx, DWORD PTR _this$[ebp]
	add	edx, 12					; 0000000cH
	push	edx
	movzx	eax, WORD PTR _TokenID$[ebp]
	push	eax
	mov	ecx, DWORD PTR _this$[ebp]
	mov	ecx, DWORD PTR [ecx+100]
	call	?LocalFunction@C_Movie@@QAEXFQAJPADPAVC_Handler@@@Z ; C_Movie::LocalFunction

; 3659 : 				P_Idx_=0;

	xor	edx, edx
	mov	eax, DWORD PTR _this$[ebp]
	mov	WORD PTR [eax+958], dx

; 3660 : 				P_[0]=0;P_[1]=0;P_[2]=0;P_[3]=0;P_[4]=0;P_[5]=0;P_[6]=0;P_[7]=0;

	mov	ecx, 4
	imul	ecx, 0
	mov	edx, DWORD PTR _this$[ebp]
	mov	DWORD PTR [edx+ecx+12], 0
	mov	eax, 4
	shl	eax, 0
	mov	ecx, DWORD PTR _this$[ebp]
	mov	DWORD PTR [ecx+eax+12], 0
	mov	edx, 4
	shl	edx, 1
	mov	eax, DWORD PTR _this$[ebp]
	mov	DWORD PTR [eax+edx+12], 0
	mov	ecx, 4
	imul	ecx, 3
	mov	edx, DWORD PTR _this$[ebp]
	mov	DWORD PTR [edx+ecx+12], 0
	mov	eax, 4
	shl	eax, 2
	mov	ecx, DWORD PTR _this$[ebp]
	mov	DWORD PTR [ecx+eax+12], 0
	mov	edx, 4
	imul	edx, 5
	mov	eax, DWORD PTR _this$[ebp]
	mov	DWORD PTR [eax+edx+12], 0
	mov	ecx, 4
	imul	ecx, 6
	mov	edx, DWORD PTR _this$[ebp]
	mov	DWORD PTR [edx+ecx+12], 0
	mov	eax, 4
	imul	eax, 7
	mov	ecx, DWORD PTR _this$[ebp]
	mov	DWORD PTR [ecx+eax+12], 0

; 3661 : 				str_=NULL;

	mov	edx, DWORD PTR _this$[ebp]
	mov	DWORD PTR [edx+60], 0

; 3662 : 				Section=SECTION_FINDTOKEN;

	xor	eax, eax
	mov	WORD PTR _Section$[ebp], ax
$LN62@ParseMovie:

; 3663 : 				break;
; 3664 : 		}
; 3665 : 	}

	jmp	$LN65@ParseMovie
$LN64@ParseMovie:

; 3666 : 	return(Movie_);

	mov	ecx, DWORD PTR _this$[ebp]
	mov	eax, DWORD PTR [ecx+100]
$LN68@ParseMovie:

; 3667 : }

	mov	ecx, DWORD PTR __$EHRec$[ebp]
	mov	DWORD PTR fs:0, ecx
	pop	ecx
	mov	esp, ebp
	pop	ebp
	ret	4
	npad	1
$LN78@ParseMovie:
	DD	$LN61@ParseMovie
	DD	$LN45@ParseMovie
	DD	$LN62@ParseMovie
	DD	$LN62@ParseMovie
	DD	$LN42@ParseMovie
	DD	$LN1@ParseMovie
$LN79@ParseMovie:
	DD	$LN52@ParseMovie
	DD	$LN54@ParseMovie
	DD	$LN53@ParseMovie
	DD	$LN56@ParseMovie
	DD	$LN51@ParseMovie
$LN73@ParseMovie:
	DB	0
	DB	4
	DB	4
	DB	0
	DB	4
	DB	4
	DB	4
	DB	4
	DB	4
	DB	4
	DB	4
	DB	4
	DB	4
	DB	4
	DB	4
	DB	4
	DB	4
	DB	4
	DB	4
	DB	4
	DB	4
	DB	4
	DB	4
	DB	4
	DB	1
	DB	2
	DB	4
	DB	4
	DB	4
	DB	4
	DB	4
	DB	4
	DB	4
	DB	4
	DB	4
	DB	4
	DB	4
	DB	4
	DB	4
	DB	4
	DB	4
	DB	4
	DB	4
	DB	4
	DB	4
	DB	4
	DB	4
	DB	4
	DB	4
	DB	4
	DB	4
	DB	4
	DB	4
	DB	4
	DB	4
	DB	4
	DB	4
	DB	4
	DB	4
	DB	4
	DB	4
	DB	4
	DB	4
	DB	4
	DB	4
	DB	4
	DB	4
	DB	4
	DB	4
	DB	4
	DB	4
	DB	4
	DB	4
	DB	4
	DB	4
	DB	4
	DB	4
	DB	4
	DB	4
	DB	4
	DB	4
	DB	3
	npad	2
$LN80@ParseMovie:
	DD	$LN35@ParseMovie
	DD	$LN34@ParseMovie
	DD	$LN33@ParseMovie
$LN74@ParseMovie:
	DB	0
	DB	0
	DB	2
	DB	2
	DB	0
	DB	2
	DB	2
	DB	2
	DB	2
	DB	2
	DB	2
	DB	2
	DB	2
	DB	2
	DB	2
	DB	2
	DB	2
	DB	2
	DB	2
	DB	2
	DB	2
	DB	2
	DB	2
	DB	0
	DB	2
	DB	2
	DB	2
	DB	2
	DB	2
	DB	2
	DB	2
	DB	2
	DB	2
	DB	2
	DB	2
	DB	0
	DB	2
	DB	2
	DB	2
	DB	2
	DB	2
	DB	2
	DB	2
	DB	2
	DB	2
	DB	2
	DB	2
	DB	2
	DB	2
	DB	2
	DB	2
	DB	2
	DB	2
	DB	2
	DB	2
	DB	2
	DB	2
	DB	2
	DB	2
	DB	2
	DB	2
	DB	2
	DB	2
	DB	2
	DB	2
	DB	2
	DB	2
	DB	2
	DB	2
	DB	2
	DB	2
	DB	2
	DB	2
	DB	2
	DB	2
	DB	2
	DB	2
	DB	2
	DB	2
	DB	2
	DB	2
	DB	2
	DB	1
	npad	1
$LN81@ParseMovie:
	DD	$LN15@ParseMovie
	DD	$LN14@ParseMovie
$LN75@ParseMovie:
	DB	0
	DB	0
	DB	1
	DB	1
	DB	0
	DB	1
	DB	1
	DB	1
	DB	1
	DB	1
	DB	1
	DB	1
	DB	1
	DB	1
	DB	1
	DB	1
	DB	1
	DB	1
	DB	1
	DB	1
	DB	1
	DB	1
	DB	1
	DB	0
	DB	1
	DB	1
	DB	1
	DB	1
	DB	1
	DB	1
	DB	1
	DB	1
	DB	1
	DB	1
	DB	1
	DB	0
$LN82@ParseMovie:
	DD	$LN6@ParseMovie
	DD	$LN5@ParseMovie
$LN76@ParseMovie:
	DB	0
	DB	0
	DB	1
	DB	1
	DB	0
	DB	1
	DB	1
	DB	1
	DB	1
	DB	1
	DB	1
	DB	1
	DB	1
	DB	1
	DB	1
	DB	1
	DB	1
	DB	1
	DB	1
	DB	1
	DB	1
	DB	1
	DB	1
	DB	0
	DB	1
	DB	1
	DB	1
	DB	1
	DB	1
	DB	1
	DB	1
	DB	1
	DB	1
	DB	1
	DB	1
	DB	0
_TEXT	ENDS
text$x	SEGMENT
__unwindfunclet$?ParseMovie@C_Parser@@QAEPAVC_Movie@@PAD@Z$0:
	mov	eax, DWORD PTR $T3[ebp]
	push	eax
	call	??3@YAXPAX@Z				; operator delete
	pop	ecx
	ret	0
__ehhandler$?ParseMovie@C_Parser@@QAEPAVC_Movie@@PAD@Z:
	mov	edx, DWORD PTR [esp+8]
	lea	eax, DWORD PTR [edx+12]
	mov	ecx, DWORD PTR [edx-76]
	xor	ecx, eax
	call	@__security_check_cookie@4
	mov	eax, OFFSET __ehfuncinfo$?ParseMovie@C_Parser@@QAEPAVC_Movie@@PAD@Z
	jmp	___CxxFrameHandler3
text$x	ENDS
?ParseMovie@C_Parser@@QAEPAVC_Movie@@PAD@Z ENDP		; C_Parser::ParseMovie
; Function compile flags: /Odtp
; File c:\users\zhitao li\documents\visual studio 2012\projects\freefalcon\ui95\cparser.cpp
_TEXT	SEGMENT
$T2 = -172						; size = 4
$T3 = -168						; size = 4
tv77 = -164						; size = 4
tv87 = -160						; size = 4
_TokenType$ = -156					; size = 2
_AddFlag$ = -152					; size = 4
_StringID$ = -148					; size = 4
tv232 = -144						; size = 4
tv391 = -140						; size = 4
tv130 = -136						; size = 4
tv334 = -132						; size = 4
_InString$ = -128					; size = 4
_TokenID$ = -124					; size = 2
_Comment$ = -120					; size = 2
_Done$ = -116						; size = 2
_Finished$ = -112					; size = 2
_Section$ = -108					; size = 2
_Found$ = -104						; size = 2
_this$ = -100						; size = 4
_buffer$ = -96						; size = 80
__$ArrayPad$ = -16					; size = 4
__$EHRec$ = -12						; size = 12
_filename$ = 8						; size = 4
?ParseString@C_Parser@@QAEPAVC_String@@PAD@Z PROC	; C_Parser::ParseString
; _this$ = ecx

; 3197 : {

	push	ebp
	mov	ebp, esp
	push	-1
	push	__ehhandler$?ParseString@C_Parser@@QAEPAVC_String@@PAD@Z
	mov	eax, DWORD PTR fs:0
	push	eax
	sub	esp, 160				; 000000a0H
	mov	eax, DWORD PTR ___security_cookie
	xor	eax, ebp
	mov	DWORD PTR __$ArrayPad$[ebp], eax
	push	eax
	lea	eax, DWORD PTR __$EHRec$[ebp]
	mov	DWORD PTR fs:0, eax
	mov	DWORD PTR _this$[ebp], ecx

; 3198 : 	int InString=0;

	mov	DWORD PTR _InString$[ebp], 0

; 3199 : 	short Done=0,Comment=0,Found=0,Finished=0;

	xor	eax, eax
	mov	WORD PTR _Done$[ebp], ax
	xor	ecx, ecx
	mov	WORD PTR _Comment$[ebp], cx
	xor	edx, edx
	mov	WORD PTR _Found$[ebp], dx
	xor	eax, eax
	mov	WORD PTR _Finished$[ebp], ax

; 3200 : 	short TokenID=0,Section=0,TokenType=0;

	xor	ecx, ecx
	mov	WORD PTR _TokenID$[ebp], cx
	xor	edx, edx
	mov	WORD PTR _Section$[ebp], dx
	xor	eax, eax
	mov	WORD PTR _TokenType$[ebp], ax

; 3201 : 	long StringID=0;

	mov	DWORD PTR _StringID$[ebp], 0

; 3202 : 	BOOL AddFlag=FALSE;

	mov	DWORD PTR _AddFlag$[ebp], 0

; 3203 : 	char buffer[80];
; 3204 : 
; 3205 : 	Idx_=0;

	mov	ecx, DWORD PTR _this$[ebp]
	mov	DWORD PTR [ecx], 0

; 3206 : 	P_Idx_=0;

	xor	edx, edx
	mov	eax, DWORD PTR _this$[ebp]
	mov	WORD PTR [eax+958], dx

; 3207 : 	tokenlen_=0;

	xor	ecx, ecx
	mov	edx, DWORD PTR _this$[ebp]
	mov	WORD PTR [edx+956], cx

; 3208 : 
; 3209 : 	if(String_ == NULL)

	mov	eax, DWORD PTR _this$[ebp]
	cmp	DWORD PTR [eax+96], 0
	jne	SHORT $LN70@ParseStrin

; 3210 : 	{
; 3211 : 		String_=new C_String;

	push	16					; 00000010H
	call	??2@YAPAXI@Z				; operator new
	add	esp, 4
	mov	DWORD PTR $T3[ebp], eax
	mov	DWORD PTR __$EHRec$[ebp+8], 0
	cmp	DWORD PTR $T3[ebp], 0
	je	SHORT $LN73@ParseStrin
	mov	ecx, DWORD PTR $T3[ebp]
	call	??0C_String@@QAE@XZ			; C_String::C_String
	mov	DWORD PTR tv77[ebp], eax
	jmp	SHORT $LN74@ParseStrin
$LN73@ParseStrin:
	mov	DWORD PTR tv77[ebp], 0
$LN74@ParseStrin:
	mov	ecx, DWORD PTR tv77[ebp]
	mov	DWORD PTR $T2[ebp], ecx
	mov	DWORD PTR __$EHRec$[ebp+8], -1
	mov	edx, DWORD PTR _this$[ebp]
	mov	eax, DWORD PTR $T2[ebp]
	mov	DWORD PTR [edx+96], eax

; 3212 : 		String_->Setup(TXT_LAST_TEXT_ID);

	push	2000					; 000007d0H
	mov	ecx, DWORD PTR _this$[ebp]
	mov	ecx, DWORD PTR [ecx+96]
	call	?Setup@C_String@@QAEXJ@Z		; C_String::Setup
$LN70@ParseStrin:

; 3213 : 	}
; 3214 : 
; 3215 : 	if(LoadScript(filename) == FALSE)

	mov	edx, DWORD PTR _filename$[ebp]
	push	edx
	mov	ecx, DWORD PTR _this$[ebp]
	call	?LoadScript@C_Parser@@QAEHPAD@Z		; C_Parser::LoadScript
	test	eax, eax
	jne	SHORT $LN69@ParseStrin

; 3216 : 		return(NULL);

	xor	eax, eax
	jmp	$LN71@ParseStrin
$LN69@ParseStrin:

; 3217 : 
; 3218 : 	Done=0;

	xor	eax, eax
	mov	WORD PTR _Done$[ebp], ax

; 3219 : 	Comment=0;

	xor	ecx, ecx
	mov	WORD PTR _Comment$[ebp], cx

; 3220 : 	InString=0;

	mov	DWORD PTR _InString$[ebp], 0

; 3221 : 	Section=SECTION_FINDTOKEN;

	xor	edx, edx
	mov	WORD PTR _Section$[ebp], dx

; 3222 : 	TokenType=TOKEN_NOTHING;

	xor	eax, eax
	mov	WORD PTR _TokenType$[ebp], ax
$LN68@ParseStrin:

; 3223 : 	
; 3224 : 	while(!Done)

	movsx	ecx, WORD PTR _Done$[ebp]
	test	ecx, ecx
	jne	$LN67@ParseStrin

; 3225 : 	{
; 3226 : 		switch(Section)

	movsx	edx, WORD PTR _Section$[ebp]
	mov	DWORD PTR tv87[ebp], edx
	cmp	DWORD PTR tv87[ebp], 5
	ja	$LN65@ParseStrin
	mov	eax, DWORD PTR tv87[ebp]
	jmp	DWORD PTR $LN81@ParseStrin[eax*4]
$LN64@ParseStrin:

; 3227 : 		{
; 3228 : 			case SECTION_FINDTOKEN:
; 3229 : 			// Look for token starting with '['
; 3230 : 				Found=0;

	xor	ecx, ecx
	mov	WORD PTR _Found$[ebp], cx
$LN63@ParseStrin:

; 3231 : 				while(!Found && !Done)

	movsx	edx, WORD PTR _Found$[ebp]
	test	edx, edx
	jne	$LN62@ParseStrin
	movsx	eax, WORD PTR _Done$[ebp]
	test	eax, eax
	jne	$LN62@ParseStrin

; 3232 : 				{
; 3233 : 					switch(script_[Idx_])

