; Listing generated by Microsoft (R) Optimizing Compiler Version 17.00.51106.1 

	TITLE	C:\Users\Zhitao Li\Documents\Visual Studio 2012\Projects\Freefalcon\ui95\cpopup.cpp
	.686P
	.XMM
	include listing.inc
	.model	flat

INCLUDELIB LIBCMT
INCLUDELIB OLDNAMES

PUBLIC	?beg@?$_Iosb@H@std@@2W4_Seekdir@12@B		; std::_Iosb<int>::beg
PUBLIC	?pmField@?$CVarTypeInfo@PAK@ATL@@2QQtagVARIANT@@PAKQ3@ ; ATL::CVarTypeInfo<unsigned long *>::pmField
PUBLIC	?cur@?$_Iosb@H@std@@2W4_Seekdir@12@B		; std::_Iosb<int>::cur
PUBLIC	?end@?$_Iosb@H@std@@2W4_Seekdir@12@B		; std::_Iosb<int>::end
PUBLIC	?VT@?$CVarTypeInfo@_J@ATL@@2GB			; ATL::CVarTypeInfo<__int64>::VT
PUBLIC	?pmField@?$CVarTypeInfo@_J@ATL@@2QQtagVARIANT@@_JQ3@ ; ATL::CVarTypeInfo<__int64>::pmField
PUBLIC	___pobjMapEntryFirst
PUBLIC	___pobjMapEntryLast
PUBLIC	?VT@?$CVarTypeInfo@PA_J@ATL@@2GB		; ATL::CVarTypeInfo<__int64 *>::VT
PUBLIC	?pmField@?$CVarTypeInfo@PA_J@ATL@@2QQtagVARIANT@@PA_JQ3@ ; ATL::CVarTypeInfo<__int64 *>::pmField
PUBLIC	?value@?$_Sizeof@U_Nil@std@@U12@U12@U12@U12@U12@U12@U12@@std@@2IB ; std::_Sizeof<std::_Nil,std::_Nil,std::_Nil,std::_Nil,std::_Nil,std::_Nil,std::_Nil,std::_Nil>::value
PUBLIC	?_Stream_err@failure@ios_base@std@@0W4io_errc@43@B ; std::ios_base::failure::_Stream_err
PUBLIC	?VT@?$CVarTypeInfo@_K@ATL@@2GB			; ATL::CVarTypeInfo<unsigned __int64>::VT
PUBLIC	??_C@_0BF@HDDNNDFH@Component?5Categories?$AA@	; `string'
PUBLIC	?pmField@?$CVarTypeInfo@_K@ATL@@2QQtagVARIANT@@_KQ3@ ; ATL::CVarTypeInfo<unsigned __int64>::pmField
PUBLIC	??_C@_08PICKODJL@FileType?$AA@			; `string'
PUBLIC	??_C@_09JKPGEJCH@Interface?$AA@			; `string'
PUBLIC	??_C@_08PPIOJEA@Hardware?$AA@			; `string'
PUBLIC	?_pPerfRegFunc@ATL@@3P6AJPAUHINSTANCE__@@@ZA	; ATL::_pPerfRegFunc
PUBLIC	??_C@_04IHBFOLAC@Mime?$AA@			; `string'
PUBLIC	?_pPerfUnRegFunc@ATL@@3P6AJXZA			; ATL::_pPerfUnRegFunc
PUBLIC	??_C@_03DDIMFGBA@SAM?$AA@			; `string'
PUBLIC	?_AtlRegisterPerUser@ATL@@3_NA			; ATL::_AtlRegisterPerUser
PUBLIC	??_C@_08LOPHEHKG@SECURITY?$AA@			; `string'
PUBLIC	??_C@_06FDHFNJBJ@SYSTEM?$AA@			; `string'
PUBLIC	??_C@_08KEKAJNJI@Software?$AA@			; `string'
PUBLIC	??_C@_07KJLOKDKB@TypeLib?$AA@			; `string'
PUBLIC	?VT@?$CVarTypeInfo@PA_K@ATL@@2GB		; ATL::CVarTypeInfo<unsigned __int64 *>::VT
PUBLIC	?pmField@?$CVarTypeInfo@PA_K@ATL@@2QQtagVARIANT@@PA_KQ3@ ; ATL::CVarTypeInfo<unsigned __int64 *>::pmField
PUBLIC	__GUID_00000000_0000_0000_c000_000000000046
PUBLIC	?VT@?$CVarTypeInfo@M@ATL@@2GB			; ATL::CVarTypeInfo<float>::VT
PUBLIC	?pmField@?$CVarTypeInfo@M@ATL@@2QQtagVARIANT@@MQ3@ ; ATL::CVarTypeInfo<float>::pmField
PUBLIC	__GUID_a6bc3ac0_dbaa_11ce_9de3_00aa004bb851
PUBLIC	?VT@?$CVarTypeInfo@PAM@ATL@@2GB			; ATL::CVarTypeInfo<float *>::VT
PUBLIC	__GUID_00020400_0000_0000_c000_000000000046
PUBLIC	?pmField@?$CVarTypeInfo@PAM@ATL@@2QQtagVARIANT@@PAMQ3@ ; ATL::CVarTypeInfo<float *>::pmField
PUBLIC	?VT@?$CVarTypeInfo@N@ATL@@2GB			; ATL::CVarTypeInfo<double>::VT
PUBLIC	?pmField@?$CVarTypeInfo@N@ATL@@2QQtagVARIANT@@NQ3@ ; ATL::CVarTypeInfo<double>::pmField
PUBLIC	?VT@?$CVarTypeInfo@PAN@ATL@@2GB			; ATL::CVarTypeInfo<double *>::VT
PUBLIC	?pmField@?$CVarTypeInfo@PAN@ATL@@2QQtagVARIANT@@PANQ3@ ; ATL::CVarTypeInfo<double *>::pmField
PUBLIC	?VT@?$CVarTypeInfo@PAUtagVARIANT@@@ATL@@2GB	; ATL::CVarTypeInfo<tagVARIANT *>::VT
PUBLIC	?has_denorm@_Num_base@std@@2W4float_denorm_style@2@B ; std::_Num_base::has_denorm
PUBLIC	__GUID_0002e012_0000_0000_c000_000000000046
PUBLIC	?has_denorm_loss@_Num_base@std@@2_NB		; std::_Num_base::has_denorm_loss
PUBLIC	?VT@?$CVarTypeInfo@PA_W@ATL@@2GB		; ATL::CVarTypeInfo<wchar_t *>::VT
PUBLIC	?pmField@?$CVarTypeInfo@PA_W@ATL@@2QQtagVARIANT@@PA_WQ3@ ; ATL::CVarTypeInfo<wchar_t *>::pmField
PUBLIC	?has_infinity@_Num_base@std@@2_NB		; std::_Num_base::has_infinity
PUBLIC	?has_quiet_NaN@_Num_base@std@@2_NB		; std::_Num_base::has_quiet_NaN
PUBLIC	?has_signaling_NaN@_Num_base@std@@2_NB		; std::_Num_base::has_signaling_NaN
PUBLIC	?is_bounded@_Num_base@std@@2_NB			; std::_Num_base::is_bounded
PUBLIC	?VT@?$CVarTypeInfo@PAPA_W@ATL@@2GB		; ATL::CVarTypeInfo<wchar_t * *>::VT
PUBLIC	?is_exact@_Num_base@std@@2_NB			; std::_Num_base::is_exact
PUBLIC	?pmField@?$CVarTypeInfo@PAPA_W@ATL@@2QQtagVARIANT@@PAPA_WQ3@ ; ATL::CVarTypeInfo<wchar_t * *>::pmField
PUBLIC	?is_iec559@_Num_base@std@@2_NB			; std::_Num_base::is_iec559
PUBLIC	?is_integer@_Num_base@std@@2_NB			; std::_Num_base::is_integer
PUBLIC	?is_modulo@_Num_base@std@@2_NB			; std::_Num_base::is_modulo
PUBLIC	?VT@?$CVarTypeInfo@PAUIUnknown@@@ATL@@2GB	; ATL::CVarTypeInfo<IUnknown *>::VT
PUBLIC	?is_signed@_Num_base@std@@2_NB			; std::_Num_base::is_signed
PUBLIC	?pmField@?$CVarTypeInfo@PAUIUnknown@@@ATL@@2QQtagVARIANT@@PAUIUnknown@@Q3@ ; ATL::CVarTypeInfo<IUnknown *>::pmField
PUBLIC	?is_specialized@_Num_base@std@@2_NB		; std::_Num_base::is_specialized
PUBLIC	?C_Pu_Tokens@@3PAPADA				; C_Pu_Tokens
PUBLIC	??_C@_09NLBFAKCN@?$FLNOTHING?$FN?$AA@		; `string'
PUBLIC	?tinyness_before@_Num_base@std@@2_NB		; std::_Num_base::tinyness_before
PUBLIC	??_C@_07INNADMMB@?$FLSETUP?$FN?$AA@		; `string'
PUBLIC	??_C@_09LHKCMHCF@?$FLADDITEM?$FN?$AA@		; `string'
PUBLIC	??_C@_0N@NIMDHIJD@?$FLITEMFLAGON?$FN?$AA@	; `string'
PUBLIC	?traps@_Num_base@std@@2_NB			; std::_Num_base::traps
PUBLIC	??_C@_0O@LDAMEGOB@?$FLITEMFLAGOFF?$FN?$AA@	; `string'
PUBLIC	??_C@_0N@EJKACOHO@?$FLRADIOGROUP?$FN?$AA@	; `string'
PUBLIC	??_C@_07EPALPDPD@?$FLSTATE?$FN?$AA@		; `string'
PUBLIC	?round_style@_Num_base@std@@2W4float_round_style@2@B ; std::_Num_base::round_style
PUBLIC	?VT@?$CVarTypeInfo@PAPAUIUnknown@@@ATL@@2GB	; ATL::CVarTypeInfo<IUnknown * *>::VT
PUBLIC	??_C@_0M@HJMEOECD@?$FLNORMCOLOR?$FN?$AA@	; `string'
PUBLIC	??_C@_0L@MCEHELGL@?$FLSELCOLOR?$FN?$AA@		; `string'
PUBLIC	?pmField@?$CVarTypeInfo@PAPAUIUnknown@@@ATL@@2QQtagVARIANT@@PAPAUIUnknown@@Q3@ ; ATL::CVarTypeInfo<IUnknown * *>::pmField
PUBLIC	??_C@_0L@EEJKABGJ@?$FLDISCOLOR?$FN?$AA@		; `string'
PUBLIC	?digits@_Num_base@std@@2HB			; std::_Num_base::digits
PUBLIC	??_C@_0L@DOPGNDKI@?$FLBARCOLOR?$FN?$AA@		; `string'
PUBLIC	??_C@_09DLAJPJPK@?$FLBGCOLOR?$FN?$AA@		; `string'
PUBLIC	??_C@_08HOHJKBBM@?$FLOPAQUE?$FN?$AA@		; `string'
PUBLIC	?digits10@_Num_base@std@@2HB			; std::_Num_base::digits10
PUBLIC	??_C@_0O@FIGAPIFM@?$FLBORDERCOLOR?$FN?$AA@	; `string'
PUBLIC	?max_digits10@_Num_base@std@@2HB		; std::_Num_base::max_digits10
PUBLIC	__GUID_0000010c_0000_0000_c000_000000000046
PUBLIC	?max_exponent@_Num_base@std@@2HB		; std::_Num_base::max_exponent
PUBLIC	?VT@?$CVarTypeInfo@PAUIDispatch@@@ATL@@2GB	; ATL::CVarTypeInfo<IDispatch *>::VT
PUBLIC	?max_exponent10@_Num_base@std@@2HB		; std::_Num_base::max_exponent10
PUBLIC	?pmField@?$CVarTypeInfo@PAUIDispatch@@@ATL@@2QQtagVARIANT@@PAUIDispatch@@Q3@ ; ATL::CVarTypeInfo<IDispatch *>::pmField
PUBLIC	?min_exponent@_Num_base@std@@2HB		; std::_Num_base::min_exponent
PUBLIC	??_C@_05GIBEAPNE@CLSID?$AA@			; `string'
PUBLIC	?min_exponent10@_Num_base@std@@2HB		; std::_Num_base::min_exponent10
PUBLIC	?radix@_Num_base@std@@2HB			; std::_Num_base::radix
PUBLIC	_IID_IAxWinHostWindow
PUBLIC	?VT@?$CVarTypeInfo@PAPAUIDispatch@@@ATL@@2GB	; ATL::CVarTypeInfo<IDispatch * *>::VT
PUBLIC	?pmField@?$CVarTypeInfo@PAPAUIDispatch@@@ATL@@2QQtagVARIANT@@PAPAUIDispatch@@Q3@ ; ATL::CVarTypeInfo<IDispatch * *>::pmField
PUBLIC	?VT@?$CVarTypeInfo@TtagCY@@@ATL@@2GB		; ATL::CVarTypeInfo<tagCY>::VT
PUBLIC	?pmField@?$CVarTypeInfo@TtagCY@@@ATL@@2QQtagVARIANT@@TtagCY@@Q3@ ; ATL::CVarTypeInfo<tagCY>::pmField
PUBLIC	??_C@_05PDIKPLII@AppID?$AA@			; `string'
PUBLIC	?VT@?$CVarTypeInfo@PATtagCY@@@ATL@@2GB		; ATL::CVarTypeInfo<tagCY *>::VT
PUBLIC	?is_bounded@_Num_int_base@std@@2_NB		; std::_Num_int_base::is_bounded
PUBLIC	?pmField@?$CVarTypeInfo@PATtagCY@@@ATL@@2QQtagVARIANT@@PATtagCY@@Q3@ ; ATL::CVarTypeInfo<tagCY *>::pmField
PUBLIC	?is_exact@_Num_int_base@std@@2_NB		; std::_Num_int_base::is_exact
PUBLIC	?is_integer@_Num_int_base@std@@2_NB		; std::_Num_int_base::is_integer
PUBLIC	?is_modulo@_Num_int_base@std@@2_NB		; std::_Num_int_base::is_modulo
PUBLIC	?is_specialized@_Num_int_base@std@@2_NB		; std::_Num_int_base::is_specialized
PUBLIC	?radix@_Num_int_base@std@@2HB			; std::_Num_int_base::radix
PUBLIC	?has_denorm@_Num_float_base@std@@2W4float_denorm_style@2@B ; std::_Num_float_base::has_denorm
PUBLIC	?has_denorm_loss@_Num_float_base@std@@2_NB	; std::_Num_float_base::has_denorm_loss
PUBLIC	?has_infinity@_Num_float_base@std@@2_NB		; std::_Num_float_base::has_infinity
PUBLIC	?has_quiet_NaN@_Num_float_base@std@@2_NB	; std::_Num_float_base::has_quiet_NaN
PUBLIC	?has_signaling_NaN@_Num_float_base@std@@2_NB	; std::_Num_float_base::has_signaling_NaN
PUBLIC	?is_bounded@_Num_float_base@std@@2_NB		; std::_Num_float_base::is_bounded
PUBLIC	?is_exact@_Num_float_base@std@@2_NB		; std::_Num_float_base::is_exact
PUBLIC	?is_iec559@_Num_float_base@std@@2_NB		; std::_Num_float_base::is_iec559
PUBLIC	?is_integer@_Num_float_base@std@@2_NB		; std::_Num_float_base::is_integer
PUBLIC	?chDirSep@ATL@@3DB				; ATL::chDirSep
PUBLIC	?chRightBracket@ATL@@3DB			; ATL::chRightBracket
PUBLIC	?is_modulo@_Num_float_base@std@@2_NB		; std::_Num_float_base::is_modulo
PUBLIC	?chLeftBracket@ATL@@3DB				; ATL::chLeftBracket
PUBLIC	?chQuote@ATL@@3DB				; ATL::chQuote
PUBLIC	?chEquals@ATL@@3DB				; ATL::chEquals
PUBLIC	?is_signed@_Num_float_base@std@@2_NB		; std::_Num_float_base::is_signed
PUBLIC	?szStringVal@ATL@@3QBDB				; ATL::szStringVal
PUBLIC	??_C@_01CPLAODJH@S?$AA@				; `string'
PUBLIC	?multiszStringVal@ATL@@3QBDB			; ATL::multiszStringVal
PUBLIC	_IID_IAxWinHostWindowLic
PUBLIC	?is_specialized@_Num_float_base@std@@2_NB	; std::_Num_float_base::is_specialized
PUBLIC	??_C@_01PLPBNMEI@M?$AA@				; `string'
PUBLIC	?szDwordVal@ATL@@3QBDB				; ATL::szDwordVal
PUBLIC	??_C@_01CKDDGHAB@D?$AA@				; `string'
PUBLIC	?tinyness_before@_Num_float_base@std@@2_NB	; std::_Num_float_base::tinyness_before
PUBLIC	?szBinaryVal@ATL@@3QBDB				; ATL::szBinaryVal
PUBLIC	??_C@_01HMGJMAIH@B?$AA@				; `string'
PUBLIC	?szValToken@ATL@@3QBDB				; ATL::szValToken
PUBLIC	?traps@_Num_float_base@std@@2_NB		; std::_Num_float_base::traps
PUBLIC	??_C@_03LAIAPFCB@Val?$AA@			; `string'
PUBLIC	?szForceRemove@ATL@@3QBDB			; ATL::szForceRemove
PUBLIC	??_C@_0M@DBGDLGLL@ForceRemove?$AA@		; `string'
PUBLIC	?round_style@_Num_float_base@std@@2W4float_round_style@2@B ; std::_Num_float_base::round_style
PUBLIC	?szNoRemove@ATL@@3QBDB				; ATL::szNoRemove
PUBLIC	??_C@_08KAAPDIAN@NoRemove?$AA@			; `string'
PUBLIC	?szDelete@ATL@@3QBDB				; ATL::szDelete
PUBLIC	?radix@_Num_float_base@std@@2HB			; std::_Num_float_base::radix
PUBLIC	??_C@_06JBKGCNBB@Delete?$AA@			; `string'
PUBLIC	?ATL_CREATE_OBJECT@CComApartment@ATL@@2IA	; ATL::CComApartment::ATL_CREATE_OBJECT
PUBLIC	?is_signed@?$numeric_limits@D@std@@2_NB		; std::numeric_limits<char>::is_signed
PUBLIC	?digits@?$numeric_limits@D@std@@2HB		; std::numeric_limits<char>::digits
PUBLIC	?digits10@?$numeric_limits@D@std@@2HB		; std::numeric_limits<char>::digits10
PUBLIC	_IID_IAxWinAmbientDispatch
PUBLIC	?collate@?$_Locbase@H@std@@2HB			; std::_Locbase<int>::collate
PUBLIC	?ctype@?$_Locbase@H@std@@2HB			; std::_Locbase<int>::ctype
PUBLIC	?monetary@?$_Locbase@H@std@@2HB			; std::_Locbase<int>::monetary
PUBLIC	?numeric@?$_Locbase@H@std@@2HB			; std::_Locbase<int>::numeric
PUBLIC	?time@?$_Locbase@H@std@@2HB			; std::_Locbase<int>::time
PUBLIC	?messages@?$_Locbase@H@std@@2HB			; std::_Locbase<int>::messages
PUBLIC	?all@?$_Locbase@H@std@@2HB			; std::_Locbase<int>::all
PUBLIC	?none@?$_Locbase@H@std@@2HB			; std::_Locbase<int>::none
PUBLIC	?is_signed@?$numeric_limits@_W@std@@2_NB	; std::numeric_limits<wchar_t>::is_signed
PUBLIC	?digits@?$numeric_limits@_W@std@@2HB		; std::numeric_limits<wchar_t>::digits
PUBLIC	?digits10@?$numeric_limits@_W@std@@2HB		; std::numeric_limits<wchar_t>::digits10
PUBLIC	?_pAtlAutoThreadModule@ATL@@3PAUIAtlAutoThreadModule@1@A ; ATL::_pAtlAutoThreadModule
PUBLIC	?is_modulo@?$numeric_limits@_N@std@@2_NB	; std::numeric_limits<bool>::is_modulo
PUBLIC	?is_signed@?$numeric_limits@_N@std@@2_NB	; std::numeric_limits<bool>::is_signed
PUBLIC	?digits@?$numeric_limits@_N@std@@2HB		; std::numeric_limits<bool>::digits
PUBLIC	?digits10@?$numeric_limits@_N@std@@2HB		; std::numeric_limits<bool>::digits10
PUBLIC	?value@?$_Sizeof@HU_Nil@std@@U12@U12@U12@U12@U12@U12@@std@@2IB ; std::_Sizeof<int,std::_Nil,std::_Nil,std::_Nil,std::_Nil,std::_Nil,std::_Nil,std::_Nil>::value
PUBLIC	?is_signed@?$numeric_limits@C@std@@2_NB		; std::numeric_limits<signed char>::is_signed
PUBLIC	?m_bInitFailed@CAtlBaseModule@ATL@@2_NA		; ATL::CAtlBaseModule::m_bInitFailed
PUBLIC	?digits@?$numeric_limits@C@std@@2HB		; std::numeric_limits<signed char>::digits
PUBLIC	?digits10@?$numeric_limits@C@std@@2HB		; std::numeric_limits<signed char>::digits10
PUBLIC	?table_size@?$ctype@D@std@@2IB			; std::ctype<char>::table_size
PUBLIC	?is_signed@?$numeric_limits@E@std@@2_NB		; std::numeric_limits<unsigned char>::is_signed
PUBLIC	?digits@?$numeric_limits@E@std@@2HB		; std::numeric_limits<unsigned char>::digits
PUBLIC	?digits10@?$numeric_limits@E@std@@2HB		; std::numeric_limits<unsigned char>::digits10
PUBLIC	?is_signed@?$numeric_limits@F@std@@2_NB		; std::numeric_limits<short>::is_signed
PUBLIC	?digits@?$numeric_limits@F@std@@2HB		; std::numeric_limits<short>::digits
PUBLIC	__GUID_00000000_0000_0000_0000_000000000000
PUBLIC	?digits10@?$numeric_limits@F@std@@2HB		; std::numeric_limits<short>::digits10
PUBLIC	?MAX_VALUE@CRegParser@ATL@@1HB			; ATL::CRegParser::MAX_VALUE
PUBLIC	?is_signed@?$numeric_limits@G@std@@2_NB		; std::numeric_limits<unsigned short>::is_signed
PUBLIC	?digits@?$numeric_limits@G@std@@2HB		; std::numeric_limits<unsigned short>::digits
PUBLIC	?digits10@?$numeric_limits@G@std@@2HB		; std::numeric_limits<unsigned short>::digits10
PUBLIC	?rgszNeverDelete@CRegParser@ATL@@1QBQBDB	; ATL::CRegParser::rgszNeverDelete
PUBLIC	?cbNeverDelete@CRegParser@ATL@@1HB		; ATL::CRegParser::cbNeverDelete
PUBLIC	?MAX_TYPE@CRegParser@ATL@@1HB			; ATL::CRegParser::MAX_TYPE
PUBLIC	?is_signed@?$numeric_limits@H@std@@2_NB		; std::numeric_limits<int>::is_signed
PUBLIC	?digits@?$numeric_limits@H@std@@2HB		; std::numeric_limits<int>::digits
PUBLIC	__GUID_fc4801a3_2ba9_11cf_a229_00aa003d7352
PUBLIC	?digits10@?$numeric_limits@H@std@@2HB		; std::numeric_limits<int>::digits10
PUBLIC	?is_signed@?$numeric_limits@I@std@@2_NB		; std::numeric_limits<unsigned int>::is_signed
PUBLIC	_IID_IAxWinAmbientDispatchEx
PUBLIC	?digits@?$numeric_limits@I@std@@2HB		; std::numeric_limits<unsigned int>::digits
PUBLIC	?digits10@?$numeric_limits@I@std@@2HB		; std::numeric_limits<unsigned int>::digits10
PUBLIC	_IID_IInternalConnection
PUBLIC	?is_signed@?$numeric_limits@J@std@@2_NB		; std::numeric_limits<long>::is_signed
PUBLIC	?digits@?$numeric_limits@J@std@@2HB		; std::numeric_limits<long>::digits
PUBLIC	?digits10@?$numeric_limits@J@std@@2HB		; std::numeric_limits<long>::digits10
PUBLIC	__GUID_1cf2b120_547d_101b_8e65_08002b2bd119
PUBLIC	?is_signed@?$numeric_limits@K@std@@2_NB		; std::numeric_limits<unsigned long>::is_signed
PUBLIC	?digits@?$numeric_limits@K@std@@2HB		; std::numeric_limits<unsigned long>::digits
PUBLIC	?digits10@?$numeric_limits@K@std@@2HB		; std::numeric_limits<unsigned long>::digits10
PUBLIC	?value@?$integral_constant@I$0A@@std@@2IB	; std::integral_constant<unsigned int,0>::value
PUBLIC	?_pAtlModule@ATL@@3PAVCAtlModule@1@A		; ATL::_pAtlModule
PUBLIC	?m_libid@CAtlModule@ATL@@2U_GUID@@A		; ATL::CAtlModule::m_libid
PUBLIC	?is_signed@?$numeric_limits@_J@std@@2_NB	; std::numeric_limits<__int64>::is_signed
PUBLIC	?digits@?$numeric_limits@_J@std@@2HB		; std::numeric_limits<__int64>::digits
PUBLIC	?digits10@?$numeric_limits@_J@std@@2HB		; std::numeric_limits<__int64>::digits10
PUBLIC	?is_signed@?$numeric_limits@_K@std@@2_NB	; std::numeric_limits<unsigned __int64>::is_signed
PUBLIC	?digits@?$numeric_limits@_K@std@@2HB		; std::numeric_limits<unsigned __int64>::digits
PUBLIC	?digits10@?$numeric_limits@_K@std@@2HB		; std::numeric_limits<unsigned __int64>::digits10
PUBLIC	__GUID_00000146_0000_0000_c000_000000000046
PUBLIC	?digits@?$numeric_limits@M@std@@2HB		; std::numeric_limits<float>::digits
PUBLIC	?digits10@?$numeric_limits@M@std@@2HB		; std::numeric_limits<float>::digits10
PUBLIC	?max_digits10@?$numeric_limits@M@std@@2HB	; std::numeric_limits<float>::max_digits10
PUBLIC	?max_exponent@?$numeric_limits@M@std@@2HB	; std::numeric_limits<float>::max_exponent
PUBLIC	?max_exponent10@?$numeric_limits@M@std@@2HB	; std::numeric_limits<float>::max_exponent10
PUBLIC	?min_exponent@?$numeric_limits@M@std@@2HB	; std::numeric_limits<float>::min_exponent
PUBLIC	?min_exponent10@?$numeric_limits@M@std@@2HB	; std::numeric_limits<float>::min_exponent10
PUBLIC	?VT@?$CVarTypeInfo@D@ATL@@2GB			; ATL::CVarTypeInfo<char>::VT
PUBLIC	?pmField@?$CVarTypeInfo@D@ATL@@2QQtagVARIANT@@DQ3@ ; ATL::CVarTypeInfo<char>::pmField
PUBLIC	?VT@?$CVarTypeInfo@E@ATL@@2GB			; ATL::CVarTypeInfo<unsigned char>::VT
PUBLIC	?pmField@?$CVarTypeInfo@E@ATL@@2QQtagVARIANT@@EQ3@ ; ATL::CVarTypeInfo<unsigned char>::pmField
PUBLIC	_CLSID_Registrar
PUBLIC	?digits@?$numeric_limits@N@std@@2HB		; std::numeric_limits<double>::digits
PUBLIC	?_Min@?$AtlLimits@H@ATL@@2HB			; ATL::AtlLimits<int>::_Min
PUBLIC	?VT@?$CVarTypeInfo@PAD@ATL@@2GB			; ATL::CVarTypeInfo<char *>::VT
PUBLIC	?_Max@?$AtlLimits@H@ATL@@2HB			; ATL::AtlLimits<int>::_Max
PUBLIC	?digits10@?$numeric_limits@N@std@@2HB		; std::numeric_limits<double>::digits10
PUBLIC	?pmField@?$CVarTypeInfo@PAD@ATL@@2QQtagVARIANT@@PADQ3@ ; ATL::CVarTypeInfo<char *>::pmField
PUBLIC	?max_digits10@?$numeric_limits@N@std@@2HB	; std::numeric_limits<double>::max_digits10
PUBLIC	?max_exponent@?$numeric_limits@N@std@@2HB	; std::numeric_limits<double>::max_exponent
PUBLIC	?_Min@?$AtlLimits@I@ATL@@2IB			; ATL::AtlLimits<unsigned int>::_Min
PUBLIC	?max_exponent10@?$numeric_limits@N@std@@2HB	; std::numeric_limits<double>::max_exponent10
PUBLIC	?_Max@?$AtlLimits@I@ATL@@2IB			; ATL::AtlLimits<unsigned int>::_Max
PUBLIC	?VT@?$CVarTypeInfo@PAE@ATL@@2GB			; ATL::CVarTypeInfo<unsigned char *>::VT
PUBLIC	__GUID_00000109_0000_0000_c000_000000000046
PUBLIC	?pmField@?$CVarTypeInfo@PAE@ATL@@2QQtagVARIANT@@PAEQ3@ ; ATL::CVarTypeInfo<unsigned char *>::pmField
PUBLIC	?min_exponent@?$numeric_limits@N@std@@2HB	; std::numeric_limits<double>::min_exponent
PUBLIC	__GUID_7fd52380_4e07_101b_ae2d_08002b2ec713
PUBLIC	?min_exponent10@?$numeric_limits@N@std@@2HB	; std::numeric_limits<double>::min_exponent10
PUBLIC	?_Min@?$AtlLimits@J@ATL@@2JB			; ATL::AtlLimits<long>::_Min
PUBLIC	__GUID_b196b284_bab4_101a_b69c_00aa00341d07
PUBLIC	?_Max@?$AtlLimits@J@ATL@@2JB			; ATL::AtlLimits<long>::_Max
PUBLIC	?VT@?$CVarTypeInfo@F@ATL@@2GB			; ATL::CVarTypeInfo<short>::VT
PUBLIC	_IID_IRegistrar
PUBLIC	?pmField@?$CVarTypeInfo@F@ATL@@2QQtagVARIANT@@FQ3@ ; ATL::CVarTypeInfo<short>::pmField
PUBLIC	?_Min@?$AtlLimits@K@ATL@@2KB			; ATL::AtlLimits<unsigned long>::_Min
PUBLIC	?_Max@?$AtlLimits@K@ATL@@2KB			; ATL::AtlLimits<unsigned long>::_Max
PUBLIC	?VT@?$CVarTypeInfo@PAF@ATL@@2GB			; ATL::CVarTypeInfo<short *>::VT
PUBLIC	?pmField@?$CVarTypeInfo@PAF@ATL@@2QQtagVARIANT@@PAFQ3@ ; ATL::CVarTypeInfo<short *>::pmField
PUBLIC	?_Min@?$AtlLimits@_J@ATL@@2_JB			; ATL::AtlLimits<__int64>::_Min
PUBLIC	__GUID_00000001_0000_0000_c000_000000000046
PUBLIC	?_Max@?$AtlLimits@_J@ATL@@2_JB			; ATL::AtlLimits<__int64>::_Max
PUBLIC	?digits@?$numeric_limits@O@std@@2HB		; std::numeric_limits<long double>::digits
PUBLIC	?VT@?$CVarTypeInfo@G@ATL@@2GB			; ATL::CVarTypeInfo<unsigned short>::VT
PUBLIC	?digits10@?$numeric_limits@O@std@@2HB		; std::numeric_limits<long double>::digits10
PUBLIC	?pmField@?$CVarTypeInfo@G@ATL@@2QQtagVARIANT@@GQ3@ ; ATL::CVarTypeInfo<unsigned short>::pmField
PUBLIC	?max_digits10@?$numeric_limits@O@std@@2HB	; std::numeric_limits<long double>::max_digits10
PUBLIC	__GUID_00020401_0000_0000_c000_000000000046
PUBLIC	?_Min@?$AtlLimits@_K@ATL@@2_KB			; ATL::AtlLimits<unsigned __int64>::_Min
PUBLIC	_LIBID_ATLLib
PUBLIC	?max_exponent@?$numeric_limits@O@std@@2HB	; std::numeric_limits<long double>::max_exponent
PUBLIC	?_Max@?$AtlLimits@_K@ATL@@2_KB			; ATL::AtlLimits<unsigned __int64>::_Max
PUBLIC	__GUID_00020412_0000_0000_c000_000000000046
PUBLIC	?max_exponent10@?$numeric_limits@O@std@@2HB	; std::numeric_limits<long double>::max_exponent10
PUBLIC	?VT@?$CVarTypeInfo@PAG@ATL@@2GB			; ATL::CVarTypeInfo<unsigned short *>::VT
PUBLIC	?skipws@?$_Iosb@H@std@@2W4_Fmtflags@12@B	; std::_Iosb<int>::skipws
PUBLIC	?pmField@?$CVarTypeInfo@PAG@ATL@@2QQtagVARIANT@@PAGQ3@ ; ATL::CVarTypeInfo<unsigned short *>::pmField
PUBLIC	?unitbuf@?$_Iosb@H@std@@2W4_Fmtflags@12@B	; std::_Iosb<int>::unitbuf
PUBLIC	?min_exponent@?$numeric_limits@O@std@@2HB	; std::numeric_limits<long double>::min_exponent
PUBLIC	?uppercase@?$_Iosb@H@std@@2W4_Fmtflags@12@B	; std::_Iosb<int>::uppercase
PUBLIC	?min_exponent10@?$numeric_limits@O@std@@2HB	; std::numeric_limits<long double>::min_exponent10
PUBLIC	?showbase@?$_Iosb@H@std@@2W4_Fmtflags@12@B	; std::_Iosb<int>::showbase
PUBLIC	?showpoint@?$_Iosb@H@std@@2W4_Fmtflags@12@B	; std::_Iosb<int>::showpoint
PUBLIC	?VT@?$CVarTypeInfo@H@ATL@@2GB			; ATL::CVarTypeInfo<int>::VT
PUBLIC	?pmField@?$CVarTypeInfo@H@ATL@@2QQtagVARIANT@@HQ3@ ; ATL::CVarTypeInfo<int>::pmField
PUBLIC	?showpos@?$_Iosb@H@std@@2W4_Fmtflags@12@B	; std::_Iosb<int>::showpos
PUBLIC	?left@?$_Iosb@H@std@@2W4_Fmtflags@12@B		; std::_Iosb<int>::left
PUBLIC	?right@?$_Iosb@H@std@@2W4_Fmtflags@12@B		; std::_Iosb<int>::right
PUBLIC	?internal@?$_Iosb@H@std@@2W4_Fmtflags@12@B	; std::_Iosb<int>::internal
PUBLIC	?VT@?$CVarTypeInfo@PAH@ATL@@2GB			; ATL::CVarTypeInfo<int *>::VT
PUBLIC	?dec@?$_Iosb@H@std@@2W4_Fmtflags@12@B		; std::_Iosb<int>::dec
PUBLIC	?pmField@?$CVarTypeInfo@PAH@ATL@@2QQtagVARIANT@@PAHQ3@ ; ATL::CVarTypeInfo<int *>::pmField
PUBLIC	?oct@?$_Iosb@H@std@@2W4_Fmtflags@12@B		; std::_Iosb<int>::oct
PUBLIC	?hex@?$_Iosb@H@std@@2W4_Fmtflags@12@B		; std::_Iosb<int>::hex
PUBLIC	?scientific@?$_Iosb@H@std@@2W4_Fmtflags@12@B	; std::_Iosb<int>::scientific
PUBLIC	?VT@?$CVarTypeInfo@I@ATL@@2GB			; ATL::CVarTypeInfo<unsigned int>::VT
PUBLIC	?fixed@?$_Iosb@H@std@@2W4_Fmtflags@12@B		; std::_Iosb<int>::fixed
PUBLIC	?pmField@?$CVarTypeInfo@I@ATL@@2QQtagVARIANT@@IQ3@ ; ATL::CVarTypeInfo<unsigned int>::pmField
PUBLIC	?hexfloat@?$_Iosb@H@std@@2W4_Fmtflags@12@B	; std::_Iosb<int>::hexfloat
PUBLIC	?boolalpha@?$_Iosb@H@std@@2W4_Fmtflags@12@B	; std::_Iosb<int>::boolalpha
PUBLIC	?_Stdio@?$_Iosb@H@std@@2W4_Fmtflags@12@B	; std::_Iosb<int>::_Stdio
PUBLIC	?value@?$integral_constant@_N$0A@@std@@2_NB	; std::integral_constant<bool,0>::value
PUBLIC	?adjustfield@?$_Iosb@H@std@@2W4_Fmtflags@12@B	; std::_Iosb<int>::adjustfield
PUBLIC	?VT@?$CVarTypeInfo@PAI@ATL@@2GB			; ATL::CVarTypeInfo<unsigned int *>::VT
PUBLIC	?pmField@?$CVarTypeInfo@PAI@ATL@@2QQtagVARIANT@@PAIQ3@ ; ATL::CVarTypeInfo<unsigned int *>::pmField
PUBLIC	?basefield@?$_Iosb@H@std@@2W4_Fmtflags@12@B	; std::_Iosb<int>::basefield
PUBLIC	?floatfield@?$_Iosb@H@std@@2W4_Fmtflags@12@B	; std::_Iosb<int>::floatfield
PUBLIC	?goodbit@?$_Iosb@H@std@@2W4_Iostate@12@B	; std::_Iosb<int>::goodbit
PUBLIC	?VT@?$CVarTypeInfo@J@ATL@@2GB			; ATL::CVarTypeInfo<long>::VT
PUBLIC	?eofbit@?$_Iosb@H@std@@2W4_Iostate@12@B		; std::_Iosb<int>::eofbit
PUBLIC	?value@?$integral_constant@_N$00@std@@2_NB	; std::integral_constant<bool,1>::value
PUBLIC	?pmField@?$CVarTypeInfo@J@ATL@@2QQtagVARIANT@@JQ3@ ; ATL::CVarTypeInfo<long>::pmField
PUBLIC	?failbit@?$_Iosb@H@std@@2W4_Iostate@12@B	; std::_Iosb<int>::failbit
PUBLIC	?_pModule@ATL@@3PAVCComModule@1@A		; ATL::_pModule
PUBLIC	?badbit@?$_Iosb@H@std@@2W4_Iostate@12@B		; std::_Iosb<int>::badbit
PUBLIC	?_Hardfail@?$_Iosb@H@std@@2W4_Iostate@12@B	; std::_Iosb<int>::_Hardfail
PUBLIC	?VT@?$CVarTypeInfo@PAJ@ATL@@2GB			; ATL::CVarTypeInfo<long *>::VT
PUBLIC	?in@?$_Iosb@H@std@@2W4_Openmode@12@B		; std::_Iosb<int>::in
PUBLIC	?pmField@?$CVarTypeInfo@PAJ@ATL@@2QQtagVARIANT@@PAJQ3@ ; ATL::CVarTypeInfo<long *>::pmField
PUBLIC	?out@?$_Iosb@H@std@@2W4_Openmode@12@B		; std::_Iosb<int>::out
PUBLIC	_IID_IDocHostUIHandlerDispatch
PUBLIC	?ate@?$_Iosb@H@std@@2W4_Openmode@12@B		; std::_Iosb<int>::ate
PUBLIC	?app@?$_Iosb@H@std@@2W4_Openmode@12@B		; std::_Iosb<int>::app
PUBLIC	?VT@?$CVarTypeInfo@K@ATL@@2GB			; ATL::CVarTypeInfo<unsigned long>::VT
PUBLIC	?trunc@?$_Iosb@H@std@@2W4_Openmode@12@B		; std::_Iosb<int>::trunc
PUBLIC	?pmField@?$CVarTypeInfo@K@ATL@@2QQtagVARIANT@@KQ3@ ; ATL::CVarTypeInfo<unsigned long>::pmField
PUBLIC	?_Nocreate@?$_Iosb@H@std@@2W4_Openmode@12@B	; std::_Iosb<int>::_Nocreate
PUBLIC	?_Noreplace@?$_Iosb@H@std@@2W4_Openmode@12@B	; std::_Iosb<int>::_Noreplace
PUBLIC	?binary@?$_Iosb@H@std@@2W4_Openmode@12@B	; std::_Iosb<int>::binary
PUBLIC	?VT@?$CVarTypeInfo@PAK@ATL@@2GB			; ATL::CVarTypeInfo<unsigned long *>::VT
;	COMDAT ?_pPerfRegFunc@ATL@@3P6AJPAUHINSTANCE__@@@ZA
_BSS	SEGMENT
?_pPerfRegFunc@ATL@@3P6AJPAUHINSTANCE__@@@ZA DD 01H DUP (?) ; ATL::_pPerfRegFunc
_BSS	ENDS
;	COMDAT ?_pPerfUnRegFunc@ATL@@3P6AJXZA
_BSS	SEGMENT
?_pPerfUnRegFunc@ATL@@3P6AJXZA DD 01H DUP (?)		; ATL::_pPerfUnRegFunc
_BSS	ENDS
;	COMDAT ?_AtlRegisterPerUser@ATL@@3_NA
_BSS	SEGMENT
?_AtlRegisterPerUser@ATL@@3_NA DB 01H DUP (?)		; ATL::_AtlRegisterPerUser
_BSS	ENDS
;	COMDAT ?ATL_CREATE_OBJECT@CComApartment@ATL@@2IA
_BSS	SEGMENT
?ATL_CREATE_OBJECT@CComApartment@ATL@@2IA DD 01H DUP (?) ; ATL::CComApartment::ATL_CREATE_OBJECT
_BSS	ENDS
;	COMDAT ?_pAtlAutoThreadModule@ATL@@3PAUIAtlAutoThreadModule@1@A
_BSS	SEGMENT
?_pAtlAutoThreadModule@ATL@@3PAUIAtlAutoThreadModule@1@A DD 01H DUP (?) ; ATL::_pAtlAutoThreadModule
_BSS	ENDS
;	COMDAT ?m_bInitFailed@CAtlBaseModule@ATL@@2_NA
_BSS	SEGMENT
?m_bInitFailed@CAtlBaseModule@ATL@@2_NA DB 01H DUP (?)	; ATL::CAtlBaseModule::m_bInitFailed
_BSS	ENDS
;	COMDAT ?_pAtlModule@ATL@@3PAVCAtlModule@1@A
_BSS	SEGMENT
?_pAtlModule@ATL@@3PAVCAtlModule@1@A DD 01H DUP (?)	; ATL::_pAtlModule
_BSS	ENDS
;	COMDAT ?m_libid@CAtlModule@ATL@@2U_GUID@@A
_BSS	SEGMENT
?m_libid@CAtlModule@ATL@@2U_GUID@@A DB 010H DUP (?)	; ATL::CAtlModule::m_libid
_BSS	ENDS
;	COMDAT ?_pModule@ATL@@3PAVCComModule@1@A
_BSS	SEGMENT
?_pModule@ATL@@3PAVCComModule@1@A DD 01H DUP (?)	; ATL::_pModule
_BSS	ENDS
;	COMDAT ?VT@?$CVarTypeInfo@PAK@ATL@@2GB
CONST	SEGMENT
?VT@?$CVarTypeInfo@PAK@ATL@@2GB DW 04013H		; ATL::CVarTypeInfo<unsigned long *>::VT
CONST	ENDS
;	COMDAT ?binary@?$_Iosb@H@std@@2W4_Openmode@12@B
CONST	SEGMENT
?binary@?$_Iosb@H@std@@2W4_Openmode@12@B DD 020H	; std::_Iosb<int>::binary
CONST	ENDS
;	COMDAT ?_Noreplace@?$_Iosb@H@std@@2W4_Openmode@12@B
CONST	SEGMENT
?_Noreplace@?$_Iosb@H@std@@2W4_Openmode@12@B DD 080H	; std::_Iosb<int>::_Noreplace
CONST	ENDS
;	COMDAT ?_Nocreate@?$_Iosb@H@std@@2W4_Openmode@12@B
CONST	SEGMENT
?_Nocreate@?$_Iosb@H@std@@2W4_Openmode@12@B DD 040H	; std::_Iosb<int>::_Nocreate
CONST	ENDS
;	COMDAT ?pmField@?$CVarTypeInfo@K@ATL@@2QQtagVARIANT@@KQ3@
CONST	SEGMENT
?pmField@?$CVarTypeInfo@K@ATL@@2QQtagVARIANT@@KQ3@ DD 08H ; ATL::CVarTypeInfo<unsigned long>::pmField
CONST	ENDS
;	COMDAT ?trunc@?$_Iosb@H@std@@2W4_Openmode@12@B
CONST	SEGMENT
?trunc@?$_Iosb@H@std@@2W4_Openmode@12@B DD 010H		; std::_Iosb<int>::trunc
CONST	ENDS
;	COMDAT ?VT@?$CVarTypeInfo@K@ATL@@2GB
CONST	SEGMENT
?VT@?$CVarTypeInfo@K@ATL@@2GB DW 013H			; ATL::CVarTypeInfo<unsigned long>::VT
CONST	ENDS
;	COMDAT ?app@?$_Iosb@H@std@@2W4_Openmode@12@B
CONST	SEGMENT
?app@?$_Iosb@H@std@@2W4_Openmode@12@B DD 08H		; std::_Iosb<int>::app
CONST	ENDS
;	COMDAT ?ate@?$_Iosb@H@std@@2W4_Openmode@12@B
CONST	SEGMENT
?ate@?$_Iosb@H@std@@2W4_Openmode@12@B DD 04H		; std::_Iosb<int>::ate
CONST	ENDS
;	COMDAT _IID_IDocHostUIHandlerDispatch
CONST	SEGMENT
_IID_IDocHostUIHandlerDispatch DD 0425b5af0H
	DW	065f1H
	DW	011d1H
	DB	096H
	DB	011H
	DB	00H
	DB	00H
	DB	0f8H
	DB	01eH
	DB	0dH
	DB	0dH
CONST	ENDS
;	COMDAT ?out@?$_Iosb@H@std@@2W4_Openmode@12@B
CONST	SEGMENT
?out@?$_Iosb@H@std@@2W4_Openmode@12@B DD 02H		; std::_Iosb<int>::out
CONST	ENDS
;	COMDAT ?pmField@?$CVarTypeInfo@PAJ@ATL@@2QQtagVARIANT@@PAJQ3@
CONST	SEGMENT
?pmField@?$CVarTypeInfo@PAJ@ATL@@2QQtagVARIANT@@PAJQ3@ DD 08H ; ATL::CVarTypeInfo<long *>::pmField
CONST	ENDS
;	COMDAT ?in@?$_Iosb@H@std@@2W4_Openmode@12@B
CONST	SEGMENT
?in@?$_Iosb@H@std@@2W4_Openmode@12@B DD 01H		; std::_Iosb<int>::in
CONST	ENDS
;	COMDAT ?VT@?$CVarTypeInfo@PAJ@ATL@@2GB
CONST	SEGMENT
?VT@?$CVarTypeInfo@PAJ@ATL@@2GB DW 04003H		; ATL::CVarTypeInfo<long *>::VT
CONST	ENDS
;	COMDAT ?_Hardfail@?$_Iosb@H@std@@2W4_Iostate@12@B
CONST	SEGMENT
?_Hardfail@?$_Iosb@H@std@@2W4_Iostate@12@B DD 010H	; std::_Iosb<int>::_Hardfail
CONST	ENDS
;	COMDAT ?badbit@?$_Iosb@H@std@@2W4_Iostate@12@B
CONST	SEGMENT
?badbit@?$_Iosb@H@std@@2W4_Iostate@12@B DD 04H		; std::_Iosb<int>::badbit
CONST	ENDS
;	COMDAT ?failbit@?$_Iosb@H@std@@2W4_Iostate@12@B
CONST	SEGMENT
?failbit@?$_Iosb@H@std@@2W4_Iostate@12@B DD 02H		; std::_Iosb<int>::failbit
CONST	ENDS
;	COMDAT ?pmField@?$CVarTypeInfo@J@ATL@@2QQtagVARIANT@@JQ3@
CONST	SEGMENT
?pmField@?$CVarTypeInfo@J@ATL@@2QQtagVARIANT@@JQ3@ DD 08H ; ATL::CVarTypeInfo<long>::pmField
CONST	ENDS
;	COMDAT ?value@?$integral_constant@_N$00@std@@2_NB
CONST	SEGMENT
?value@?$integral_constant@_N$00@std@@2_NB DB 01H	; std::integral_constant<bool,1>::value
CONST	ENDS
;	COMDAT ?eofbit@?$_Iosb@H@std@@2W4_Iostate@12@B
CONST	SEGMENT
?eofbit@?$_Iosb@H@std@@2W4_Iostate@12@B DD 01H		; std::_Iosb<int>::eofbit
CONST	ENDS
;	COMDAT ?VT@?$CVarTypeInfo@J@ATL@@2GB
CONST	SEGMENT
?VT@?$CVarTypeInfo@J@ATL@@2GB DW 03H			; ATL::CVarTypeInfo<long>::VT
CONST	ENDS
;	COMDAT ?goodbit@?$_Iosb@H@std@@2W4_Iostate@12@B
CONST	SEGMENT
?goodbit@?$_Iosb@H@std@@2W4_Iostate@12@B DD 00H		; std::_Iosb<int>::goodbit
CONST	ENDS
;	COMDAT ?floatfield@?$_Iosb@H@std@@2W4_Fmtflags@12@B
CONST	SEGMENT
?floatfield@?$_Iosb@H@std@@2W4_Fmtflags@12@B DD 03000H	; std::_Iosb<int>::floatfield
CONST	ENDS
;	COMDAT ?basefield@?$_Iosb@H@std@@2W4_Fmtflags@12@B
CONST	SEGMENT
?basefield@?$_Iosb@H@std@@2W4_Fmtflags@12@B DD 0e00H	; std::_Iosb<int>::basefield
CONST	ENDS
;	COMDAT ?pmField@?$CVarTypeInfo@PAI@ATL@@2QQtagVARIANT@@PAIQ3@
CONST	SEGMENT
?pmField@?$CVarTypeInfo@PAI@ATL@@2QQtagVARIANT@@PAIQ3@ DD 08H ; ATL::CVarTypeInfo<unsigned int *>::pmField
CONST	ENDS
;	COMDAT ?VT@?$CVarTypeInfo@PAI@ATL@@2GB
CONST	SEGMENT
?VT@?$CVarTypeInfo@PAI@ATL@@2GB DW 04013H		; ATL::CVarTypeInfo<unsigned int *>::VT
CONST	ENDS
;	COMDAT ?adjustfield@?$_Iosb@H@std@@2W4_Fmtflags@12@B
CONST	SEGMENT
?adjustfield@?$_Iosb@H@std@@2W4_Fmtflags@12@B DD 01c0H	; std::_Iosb<int>::adjustfield
CONST	ENDS
;	COMDAT ?value@?$integral_constant@_N$0A@@std@@2_NB
CONST	SEGMENT
?value@?$integral_constant@_N$0A@@std@@2_NB DB 00H	; std::integral_constant<bool,0>::value
CONST	ENDS
;	COMDAT ?_Stdio@?$_Iosb@H@std@@2W4_Fmtflags@12@B
CONST	SEGMENT
?_Stdio@?$_Iosb@H@std@@2W4_Fmtflags@12@B DD 08000H	; std::_Iosb<int>::_Stdio
CONST	ENDS
;	COMDAT ?boolalpha@?$_Iosb@H@std@@2W4_Fmtflags@12@B
CONST	SEGMENT
?boolalpha@?$_Iosb@H@std@@2W4_Fmtflags@12@B DD 04000H	; std::_Iosb<int>::boolalpha
CONST	ENDS
;	COMDAT ?hexfloat@?$_Iosb@H@std@@2W4_Fmtflags@12@B
CONST	SEGMENT
?hexfloat@?$_Iosb@H@std@@2W4_Fmtflags@12@B DD 03000H	; std::_Iosb<int>::hexfloat
CONST	ENDS
;	COMDAT ?pmField@?$CVarTypeInfo@I@ATL@@2QQtagVARIANT@@IQ3@
CONST	SEGMENT
?pmField@?$CVarTypeInfo@I@ATL@@2QQtagVARIANT@@IQ3@ DD 08H ; ATL::CVarTypeInfo<unsigned int>::pmField
CONST	ENDS
;	COMDAT ?fixed@?$_Iosb@H@std@@2W4_Fmtflags@12@B
CONST	SEGMENT
?fixed@?$_Iosb@H@std@@2W4_Fmtflags@12@B DD 02000H	; std::_Iosb<int>::fixed
CONST	ENDS
;	COMDAT ?VT@?$CVarTypeInfo@I@ATL@@2GB
CONST	SEGMENT
?VT@?$CVarTypeInfo@I@ATL@@2GB DW 013H			; ATL::CVarTypeInfo<unsigned int>::VT
CONST	ENDS
;	COMDAT ?scientific@?$_Iosb@H@std@@2W4_Fmtflags@12@B
CONST	SEGMENT
?scientific@?$_Iosb@H@std@@2W4_Fmtflags@12@B DD 01000H	; std::_Iosb<int>::scientific
CONST	ENDS
;	COMDAT ?hex@?$_Iosb@H@std@@2W4_Fmtflags@12@B
CONST	SEGMENT
?hex@?$_Iosb@H@std@@2W4_Fmtflags@12@B DD 0800H		; std::_Iosb<int>::hex
CONST	ENDS
;	COMDAT ?oct@?$_Iosb@H@std@@2W4_Fmtflags@12@B
CONST	SEGMENT
?oct@?$_Iosb@H@std@@2W4_Fmtflags@12@B DD 0400H		; std::_Iosb<int>::oct
CONST	ENDS
;	COMDAT ?pmField@?$CVarTypeInfo@PAH@ATL@@2QQtagVARIANT@@PAHQ3@
CONST	SEGMENT
?pmField@?$CVarTypeInfo@PAH@ATL@@2QQtagVARIANT@@PAHQ3@ DD 08H ; ATL::CVarTypeInfo<int *>::pmField
CONST	ENDS
;	COMDAT ?dec@?$_Iosb@H@std@@2W4_Fmtflags@12@B
CONST	SEGMENT
?dec@?$_Iosb@H@std@@2W4_Fmtflags@12@B DD 0200H		; std::_Iosb<int>::dec
CONST	ENDS
;	COMDAT ?VT@?$CVarTypeInfo@PAH@ATL@@2GB
CONST	SEGMENT
?VT@?$CVarTypeInfo@PAH@ATL@@2GB DW 04003H		; ATL::CVarTypeInfo<int *>::VT
CONST	ENDS
;	COMDAT ?internal@?$_Iosb@H@std@@2W4_Fmtflags@12@B
CONST	SEGMENT
?internal@?$_Iosb@H@std@@2W4_Fmtflags@12@B DD 0100H	; std::_Iosb<int>::internal
CONST	ENDS
;	COMDAT ?right@?$_Iosb@H@std@@2W4_Fmtflags@12@B
CONST	SEGMENT
?right@?$_Iosb@H@std@@2W4_Fmtflags@12@B DD 080H		; std::_Iosb<int>::right
CONST	ENDS
;	COMDAT ?left@?$_Iosb@H@std@@2W4_Fmtflags@12@B
CONST	SEGMENT
?left@?$_Iosb@H@std@@2W4_Fmtflags@12@B DD 040H		; std::_Iosb<int>::left
CONST	ENDS
;	COMDAT ?showpos@?$_Iosb@H@std@@2W4_Fmtflags@12@B
CONST	SEGMENT
?showpos@?$_Iosb@H@std@@2W4_Fmtflags@12@B DD 020H	; std::_Iosb<int>::showpos
CONST	ENDS
;	COMDAT ?pmField@?$CVarTypeInfo@H@ATL@@2QQtagVARIANT@@HQ3@
CONST	SEGMENT
?pmField@?$CVarTypeInfo@H@ATL@@2QQtagVARIANT@@HQ3@ DD 08H ; ATL::CVarTypeInfo<int>::pmField
CONST	ENDS
;	COMDAT ?VT@?$CVarTypeInfo@H@ATL@@2GB
CONST	SEGMENT
?VT@?$CVarTypeInfo@H@ATL@@2GB DW 03H			; ATL::CVarTypeInfo<int>::VT
CONST	ENDS
;	COMDAT ?showpoint@?$_Iosb@H@std@@2W4_Fmtflags@12@B
CONST	SEGMENT
?showpoint@?$_Iosb@H@std@@2W4_Fmtflags@12@B DD 010H	; std::_Iosb<int>::showpoint
CONST	ENDS
;	COMDAT ?showbase@?$_Iosb@H@std@@2W4_Fmtflags@12@B
CONST	SEGMENT
?showbase@?$_Iosb@H@std@@2W4_Fmtflags@12@B DD 08H	; std::_Iosb<int>::showbase
CONST	ENDS
;	COMDAT ?min_exponent10@?$numeric_limits@O@std@@2HB
CONST	SEGMENT
?min_exponent10@?$numeric_limits@O@std@@2HB DD 0fffffecdH ; std::numeric_limits<long double>::min_exponent10
CONST	ENDS
;	COMDAT ?uppercase@?$_Iosb@H@std@@2W4_Fmtflags@12@B
CONST	SEGMENT
?uppercase@?$_Iosb@H@std@@2W4_Fmtflags@12@B DD 04H	; std::_Iosb<int>::uppercase
CONST	ENDS
;	COMDAT ?min_exponent@?$numeric_limits@O@std@@2HB
CONST	SEGMENT
?min_exponent@?$numeric_limits@O@std@@2HB DD 0fffffc03H	; std::numeric_limits<long double>::min_exponent
CONST	ENDS
;	COMDAT ?unitbuf@?$_Iosb@H@std@@2W4_Fmtflags@12@B
CONST	SEGMENT
?unitbuf@?$_Iosb@H@std@@2W4_Fmtflags@12@B DD 02H	; std::_Iosb<int>::unitbuf
CONST	ENDS
;	COMDAT ?pmField@?$CVarTypeInfo@PAG@ATL@@2QQtagVARIANT@@PAGQ3@
CONST	SEGMENT
?pmField@?$CVarTypeInfo@PAG@ATL@@2QQtagVARIANT@@PAGQ3@ DD 08H ; ATL::CVarTypeInfo<unsigned short *>::pmField
CONST	ENDS
;	COMDAT ?skipws@?$_Iosb@H@std@@2W4_Fmtflags@12@B
CONST	SEGMENT
?skipws@?$_Iosb@H@std@@2W4_Fmtflags@12@B DD 01H		; std::_Iosb<int>::skipws
CONST	ENDS
;	COMDAT ?VT@?$CVarTypeInfo@PAG@ATL@@2GB
CONST	SEGMENT
?VT@?$CVarTypeInfo@PAG@ATL@@2GB DW 04012H		; ATL::CVarTypeInfo<unsigned short *>::VT
CONST	ENDS
;	COMDAT ?max_exponent10@?$numeric_limits@O@std@@2HB
CONST	SEGMENT
?max_exponent10@?$numeric_limits@O@std@@2HB DD 0134H	; std::numeric_limits<long double>::max_exponent10
CONST	ENDS
;	COMDAT __GUID_00020412_0000_0000_c000_000000000046
CONST	SEGMENT
__GUID_00020412_0000_0000_c000_000000000046 DD 020412H
	DW	00H
	DW	00H
	DB	0c0H
	DB	00H
	DB	00H
	DB	00H
	DB	00H
	DB	00H
	DB	00H
	DB	046H
CONST	ENDS
;	COMDAT ?_Max@?$AtlLimits@_K@ATL@@2_KB
CONST	SEGMENT
?_Max@?$AtlLimits@_K@ATL@@2_KB DQ ffffffffffffffffH	; ATL::AtlLimits<unsigned __int64>::_Max
CONST	ENDS
;	COMDAT ?max_exponent@?$numeric_limits@O@std@@2HB
CONST	SEGMENT
?max_exponent@?$numeric_limits@O@std@@2HB DD 0400H	; std::numeric_limits<long double>::max_exponent
CONST	ENDS
;	COMDAT _LIBID_ATLLib
CONST	SEGMENT
_LIBID_ATLLib DD 044ec0535H
	DW	0400fH
	DW	011d0H
	DB	09dH
	DB	0cdH
	DB	00H
	DB	0a0H
	DB	0c9H
	DB	03H
	DB	091H
	DB	0d3H
CONST	ENDS
;	COMDAT ?_Min@?$AtlLimits@_K@ATL@@2_KB
CONST	SEGMENT
?_Min@?$AtlLimits@_K@ATL@@2_KB DQ 0000000000000000H	; ATL::AtlLimits<unsigned __int64>::_Min
CONST	ENDS
;	COMDAT __GUID_00020401_0000_0000_c000_000000000046
CONST	SEGMENT
__GUID_00020401_0000_0000_c000_000000000046 DD 020401H
	DW	00H
	DW	00H
	DB	0c0H
	DB	00H
	DB	00H
	DB	00H
	DB	00H
	DB	00H
	DB	00H
	DB	046H
CONST	ENDS
;	COMDAT ?max_digits10@?$numeric_limits@O@std@@2HB
CONST	SEGMENT
?max_digits10@?$numeric_limits@O@std@@2HB DD 011H	; std::numeric_limits<long double>::max_digits10
CONST	ENDS
;	COMDAT ?pmField@?$CVarTypeInfo@G@ATL@@2QQtagVARIANT@@GQ3@
CONST	SEGMENT
?pmField@?$CVarTypeInfo@G@ATL@@2QQtagVARIANT@@GQ3@ DD 08H ; ATL::CVarTypeInfo<unsigned short>::pmField
CONST	ENDS
;	COMDAT ?digits10@?$numeric_limits@O@std@@2HB
CONST	SEGMENT
?digits10@?$numeric_limits@O@std@@2HB DD 0fH		; std::numeric_limits<long double>::digits10
CONST	ENDS
;	COMDAT ?VT@?$CVarTypeInfo@G@ATL@@2GB
CONST	SEGMENT
?VT@?$CVarTypeInfo@G@ATL@@2GB DW 012H			; ATL::CVarTypeInfo<unsigned short>::VT
CONST	ENDS
;	COMDAT ?digits@?$numeric_limits@O@std@@2HB
CONST	SEGMENT
?digits@?$numeric_limits@O@std@@2HB DD 035H		; std::numeric_limits<long double>::digits
CONST	ENDS
;	COMDAT ?_Max@?$AtlLimits@_J@ATL@@2_JB
CONST	SEGMENT
?_Max@?$AtlLimits@_J@ATL@@2_JB DQ 7fffffffffffffffH	; ATL::AtlLimits<__int64>::_Max
CONST	ENDS
;	COMDAT __GUID_00000001_0000_0000_c000_000000000046
CONST	SEGMENT
__GUID_00000001_0000_0000_c000_000000000046 DD 01H
	DW	00H
	DW	00H
	DB	0c0H
	DB	00H
	DB	00H
	DB	00H
	DB	00H
	DB	00H
	DB	00H
	DB	046H
CONST	ENDS
;	COMDAT ?_Min@?$AtlLimits@_J@ATL@@2_JB
CONST	SEGMENT
?_Min@?$AtlLimits@_J@ATL@@2_JB DQ 8000000000000000H	; ATL::AtlLimits<__int64>::_Min
CONST	ENDS
;	COMDAT ?pmField@?$CVarTypeInfo@PAF@ATL@@2QQtagVARIANT@@PAFQ3@
CONST	SEGMENT
?pmField@?$CVarTypeInfo@PAF@ATL@@2QQtagVARIANT@@PAFQ3@ DD 08H ; ATL::CVarTypeInfo<short *>::pmField
CONST	ENDS
;	COMDAT ?VT@?$CVarTypeInfo@PAF@ATL@@2GB
CONST	SEGMENT
?VT@?$CVarTypeInfo@PAF@ATL@@2GB DW 04002H		; ATL::CVarTypeInfo<short *>::VT
CONST	ENDS
;	COMDAT ?_Max@?$AtlLimits@K@ATL@@2KB
CONST	SEGMENT
?_Max@?$AtlLimits@K@ATL@@2KB DD 0ffffffffH		; ATL::AtlLimits<unsigned long>::_Max
CONST	ENDS
;	COMDAT ?_Min@?$AtlLimits@K@ATL@@2KB
CONST	SEGMENT
?_Min@?$AtlLimits@K@ATL@@2KB DD 00H			; ATL::AtlLimits<unsigned long>::_Min
CONST	ENDS
;	COMDAT ?pmField@?$CVarTypeInfo@F@ATL@@2QQtagVARIANT@@FQ3@
CONST	SEGMENT
?pmField@?$CVarTypeInfo@F@ATL@@2QQtagVARIANT@@FQ3@ DD 08H ; ATL::CVarTypeInfo<short>::pmField
CONST	ENDS
;	COMDAT _IID_IRegistrar
CONST	SEGMENT
_IID_IRegistrar DD 044ec053bH
	DW	0400fH
	DW	011d0H
	DB	09dH
	DB	0cdH
	DB	00H
	DB	0a0H
	DB	0c9H
	DB	03H
	DB	091H
	DB	0d3H
CONST	ENDS
;	COMDAT ?VT@?$CVarTypeInfo@F@ATL@@2GB
CONST	SEGMENT
?VT@?$CVarTypeInfo@F@ATL@@2GB DW 02H			; ATL::CVarTypeInfo<short>::VT
CONST	ENDS
;	COMDAT ?_Max@?$AtlLimits@J@ATL@@2JB
CONST	SEGMENT
?_Max@?$AtlLimits@J@ATL@@2JB DD 07fffffffH		; ATL::AtlLimits<long>::_Max
CONST	ENDS
;	COMDAT __GUID_b196b284_bab4_101a_b69c_00aa00341d07
CONST	SEGMENT
__GUID_b196b284_bab4_101a_b69c_00aa00341d07 DD 0b196b284H
	DW	0bab4H
	DW	0101aH
	DB	0b6H
	DB	09cH
	DB	00H
	DB	0aaH
	DB	00H
	DB	034H
	DB	01dH
	DB	07H
CONST	ENDS
;	COMDAT ?_Min@?$AtlLimits@J@ATL@@2JB
CONST	SEGMENT
?_Min@?$AtlLimits@J@ATL@@2JB DD 080000000H		; ATL::AtlLimits<long>::_Min
CONST	ENDS
;	COMDAT ?min_exponent10@?$numeric_limits@N@std@@2HB
CONST	SEGMENT
?min_exponent10@?$numeric_limits@N@std@@2HB DD 0fffffecdH ; std::numeric_limits<double>::min_exponent10
CONST	ENDS
;	COMDAT __GUID_7fd52380_4e07_101b_ae2d_08002b2ec713
CONST	SEGMENT
__GUID_7fd52380_4e07_101b_ae2d_08002b2ec713 DD 07fd52380H
	DW	04e07H
	DW	0101bH
	DB	0aeH
	DB	02dH
	DB	08H
	DB	00H
	DB	02bH
	DB	02eH
	DB	0c7H
	DB	013H
CONST	ENDS
;	COMDAT ?min_exponent@?$numeric_limits@N@std@@2HB
CONST	SEGMENT
?min_exponent@?$numeric_limits@N@std@@2HB DD 0fffffc03H	; std::numeric_limits<double>::min_exponent
CONST	ENDS
;	COMDAT ?pmField@?$CVarTypeInfo@PAE@ATL@@2QQtagVARIANT@@PAEQ3@
CONST	SEGMENT
?pmField@?$CVarTypeInfo@PAE@ATL@@2QQtagVARIANT@@PAEQ3@ DD 08H ; ATL::CVarTypeInfo<unsigned char *>::pmField
CONST	ENDS
;	COMDAT __GUID_00000109_0000_0000_c000_000000000046
CONST	SEGMENT
__GUID_00000109_0000_0000_c000_000000000046 DD 0109H
	DW	00H
	DW	00H
	DB	0c0H
	DB	00H
	DB	00H
	DB	00H
	DB	00H
	DB	00H
	DB	00H
	DB	046H
CONST	ENDS
;	COMDAT ?VT@?$CVarTypeInfo@PAE@ATL@@2GB
CONST	SEGMENT
?VT@?$CVarTypeInfo@PAE@ATL@@2GB DW 04011H		; ATL::CVarTypeInfo<unsigned char *>::VT
CONST	ENDS
;	COMDAT ?_Max@?$AtlLimits@I@ATL@@2IB
CONST	SEGMENT
?_Max@?$AtlLimits@I@ATL@@2IB DD 0ffffffffH		; ATL::AtlLimits<unsigned int>::_Max
CONST	ENDS
;	COMDAT ?max_exponent10@?$numeric_limits@N@std@@2HB
CONST	SEGMENT
?max_exponent10@?$numeric_limits@N@std@@2HB DD 0134H	; std::numeric_limits<double>::max_exponent10
CONST	ENDS
;	COMDAT ?_Min@?$AtlLimits@I@ATL@@2IB
CONST	SEGMENT
?_Min@?$AtlLimits@I@ATL@@2IB DD 00H			; ATL::AtlLimits<unsigned int>::_Min
CONST	ENDS
;	COMDAT ?max_exponent@?$numeric_limits@N@std@@2HB
CONST	SEGMENT
?max_exponent@?$numeric_limits@N@std@@2HB DD 0400H	; std::numeric_limits<double>::max_exponent
CONST	ENDS
;	COMDAT ?max_digits10@?$numeric_limits@N@std@@2HB
CONST	SEGMENT
?max_digits10@?$numeric_limits@N@std@@2HB DD 011H	; std::numeric_limits<double>::max_digits10
CONST	ENDS
;	COMDAT ?pmField@?$CVarTypeInfo@PAD@ATL@@2QQtagVARIANT@@PADQ3@
CONST	SEGMENT
?pmField@?$CVarTypeInfo@PAD@ATL@@2QQtagVARIANT@@PADQ3@ DD 08H ; ATL::CVarTypeInfo<char *>::pmField
CONST	ENDS
;	COMDAT ?digits10@?$numeric_limits@N@std@@2HB
CONST	SEGMENT
?digits10@?$numeric_limits@N@std@@2HB DD 0fH		; std::numeric_limits<double>::digits10
CONST	ENDS
;	COMDAT ?_Max@?$AtlLimits@H@ATL@@2HB
CONST	SEGMENT
?_Max@?$AtlLimits@H@ATL@@2HB DD 07fffffffH		; ATL::AtlLimits<int>::_Max
CONST	ENDS
;	COMDAT ?VT@?$CVarTypeInfo@PAD@ATL@@2GB
CONST	SEGMENT
?VT@?$CVarTypeInfo@PAD@ATL@@2GB DW 04010H		; ATL::CVarTypeInfo<char *>::VT
CONST	ENDS
;	COMDAT ?_Min@?$AtlLimits@H@ATL@@2HB
CONST	SEGMENT
?_Min@?$AtlLimits@H@ATL@@2HB DD 080000000H		; ATL::AtlLimits<int>::_Min
CONST	ENDS
;	COMDAT ?digits@?$numeric_limits@N@std@@2HB
CONST	SEGMENT
?digits@?$numeric_limits@N@std@@2HB DD 035H		; std::numeric_limits<double>::digits
CONST	ENDS
;	COMDAT _CLSID_Registrar
CONST	SEGMENT
_CLSID_Registrar DD 044ec053aH
	DW	0400fH
	DW	011d0H
	DB	09dH
	DB	0cdH
	DB	00H
	DB	0a0H
	DB	0c9H
	DB	03H
	DB	091H
	DB	0d3H
CONST	ENDS
;	COMDAT ?pmField@?$CVarTypeInfo@E@ATL@@2QQtagVARIANT@@EQ3@
CONST	SEGMENT
?pmField@?$CVarTypeInfo@E@ATL@@2QQtagVARIANT@@EQ3@ DD 08H ; ATL::CVarTypeInfo<unsigned char>::pmField
CONST	ENDS
;	COMDAT ?VT@?$CVarTypeInfo@E@ATL@@2GB
CONST	SEGMENT
?VT@?$CVarTypeInfo@E@ATL@@2GB DW 011H			; ATL::CVarTypeInfo<unsigned char>::VT
CONST	ENDS
;	COMDAT ?pmField@?$CVarTypeInfo@D@ATL@@2QQtagVARIANT@@DQ3@
CONST	SEGMENT
?pmField@?$CVarTypeInfo@D@ATL@@2QQtagVARIANT@@DQ3@ DD 08H ; ATL::CVarTypeInfo<char>::pmField
CONST	ENDS
;	COMDAT ?VT@?$CVarTypeInfo@D@ATL@@2GB
CONST	SEGMENT
?VT@?$CVarTypeInfo@D@ATL@@2GB DW 010H			; ATL::CVarTypeInfo<char>::VT
CONST	ENDS
;	COMDAT ?min_exponent10@?$numeric_limits@M@std@@2HB
CONST	SEGMENT
?min_exponent10@?$numeric_limits@M@std@@2HB DD 0ffffffdbH ; std::numeric_limits<float>::min_exponent10
CONST	ENDS
;	COMDAT ?min_exponent@?$numeric_limits@M@std@@2HB
CONST	SEGMENT
?min_exponent@?$numeric_limits@M@std@@2HB DD 0ffffff83H	; std::numeric_limits<float>::min_exponent
CONST	ENDS
;	COMDAT ?max_exponent10@?$numeric_limits@M@std@@2HB
CONST	SEGMENT
?max_exponent10@?$numeric_limits@M@std@@2HB DD 026H	; std::numeric_limits<float>::max_exponent10
CONST	ENDS
;	COMDAT ?max_exponent@?$numeric_limits@M@std@@2HB
CONST	SEGMENT
?max_exponent@?$numeric_limits@M@std@@2HB DD 080H	; std::numeric_limits<float>::max_exponent
CONST	ENDS
;	COMDAT ?max_digits10@?$numeric_limits@M@std@@2HB
CONST	SEGMENT
?max_digits10@?$numeric_limits@M@std@@2HB DD 09H	; std::numeric_limits<float>::max_digits10
CONST	ENDS
;	COMDAT ?digits10@?$numeric_limits@M@std@@2HB
CONST	SEGMENT
?digits10@?$numeric_limits@M@std@@2HB DD 06H		; std::numeric_limits<float>::digits10
CONST	ENDS
;	COMDAT ?digits@?$numeric_limits@M@std@@2HB
CONST	SEGMENT
?digits@?$numeric_limits@M@std@@2HB DD 018H		; std::numeric_limits<float>::digits
CONST	ENDS
;	COMDAT __GUID_00000146_0000_0000_c000_000000000046
CONST	SEGMENT
__GUID_00000146_0000_0000_c000_000000000046 DD 0146H
	DW	00H
	DW	00H
	DB	0c0H
	DB	00H
	DB	00H
	DB	00H
	DB	00H
	DB	00H
	DB	00H
	DB	046H
CONST	ENDS
;	COMDAT ?digits10@?$numeric_limits@_K@std@@2HB
CONST	SEGMENT
?digits10@?$numeric_limits@_K@std@@2HB DD 013H		; std::numeric_limits<unsigned __int64>::digits10
CONST	ENDS
;	COMDAT ?digits@?$numeric_limits@_K@std@@2HB
CONST	SEGMENT
?digits@?$numeric_limits@_K@std@@2HB DD 040H		; std::numeric_limits<unsigned __int64>::digits
CONST	ENDS
;	COMDAT ?is_signed@?$numeric_limits@_K@std@@2_NB
CONST	SEGMENT
?is_signed@?$numeric_limits@_K@std@@2_NB DB 00H		; std::numeric_limits<unsigned __int64>::is_signed
CONST	ENDS
;	COMDAT ?digits10@?$numeric_limits@_J@std@@2HB
CONST	SEGMENT
?digits10@?$numeric_limits@_J@std@@2HB DD 012H		; std::numeric_limits<__int64>::digits10
CONST	ENDS
;	COMDAT ?digits@?$numeric_limits@_J@std@@2HB
CONST	SEGMENT
?digits@?$numeric_limits@_J@std@@2HB DD 03fH		; std::numeric_limits<__int64>::digits
CONST	ENDS
;	COMDAT ?is_signed@?$numeric_limits@_J@std@@2_NB
CONST	SEGMENT
?is_signed@?$numeric_limits@_J@std@@2_NB DB 01H		; std::numeric_limits<__int64>::is_signed
CONST	ENDS
;	COMDAT ?value@?$integral_constant@I$0A@@std@@2IB
CONST	SEGMENT
?value@?$integral_constant@I$0A@@std@@2IB DD 00H	; std::integral_constant<unsigned int,0>::value
CONST	ENDS
;	COMDAT ?digits10@?$numeric_limits@K@std@@2HB
CONST	SEGMENT
?digits10@?$numeric_limits@K@std@@2HB DD 09H		; std::numeric_limits<unsigned long>::digits10
CONST	ENDS
;	COMDAT ?digits@?$numeric_limits@K@std@@2HB
CONST	SEGMENT
?digits@?$numeric_limits@K@std@@2HB DD 020H		; std::numeric_limits<unsigned long>::digits
CONST	ENDS
;	COMDAT ?is_signed@?$numeric_limits@K@std@@2_NB
CONST	SEGMENT
?is_signed@?$numeric_limits@K@std@@2_NB DB 00H		; std::numeric_limits<unsigned long>::is_signed
CONST	ENDS
;	COMDAT __GUID_1cf2b120_547d_101b_8e65_08002b2bd119
CONST	SEGMENT
__GUID_1cf2b120_547d_101b_8e65_08002b2bd119 DD 01cf2b120H
	DW	0547dH
	DW	0101bH
	DB	08eH
	DB	065H
	DB	08H
	DB	00H
	DB	02bH
	DB	02bH
	DB	0d1H
	DB	019H
CONST	ENDS
;	COMDAT ?digits10@?$numeric_limits@J@std@@2HB
CONST	SEGMENT
?digits10@?$numeric_limits@J@std@@2HB DD 09H		; std::numeric_limits<long>::digits10
CONST	ENDS
;	COMDAT ?digits@?$numeric_limits@J@std@@2HB
CONST	SEGMENT
?digits@?$numeric_limits@J@std@@2HB DD 01fH		; std::numeric_limits<long>::digits
CONST	ENDS
;	COMDAT ?is_signed@?$numeric_limits@J@std@@2_NB
CONST	SEGMENT
?is_signed@?$numeric_limits@J@std@@2_NB DB 01H		; std::numeric_limits<long>::is_signed
CONST	ENDS
;	COMDAT _IID_IInternalConnection
CONST	SEGMENT
_IID_IInternalConnection DD 072ad0770H
	DW	06a9fH
	DW	011d1H
	DB	0bcH
	DB	0ecH
	DB	00H
	DB	060H
	DB	08H
	DB	08fH
	DB	044H
	DB	04eH
CONST	ENDS
;	COMDAT ?digits10@?$numeric_limits@I@std@@2HB
CONST	SEGMENT
?digits10@?$numeric_limits@I@std@@2HB DD 09H		; std::numeric_limits<unsigned int>::digits10
CONST	ENDS
;	COMDAT ?digits@?$numeric_limits@I@std@@2HB
CONST	SEGMENT
?digits@?$numeric_limits@I@std@@2HB DD 020H		; std::numeric_limits<unsigned int>::digits
CONST	ENDS
;	COMDAT _IID_IAxWinAmbientDispatchEx
CONST	SEGMENT
_IID_IAxWinAmbientDispatchEx DD 0b2d0778bH
	DW	0ac99H
	DW	04c58H
	DB	0a5H
	DB	0c8H
	DB	0e7H
	DB	072H
	DB	04eH
	DB	053H
	DB	016H
	DB	0b5H
CONST	ENDS
;	COMDAT ?is_signed@?$numeric_limits@I@std@@2_NB
CONST	SEGMENT
?is_signed@?$numeric_limits@I@std@@2_NB DB 00H		; std::numeric_limits<unsigned int>::is_signed
CONST	ENDS
;	COMDAT ?digits10@?$numeric_limits@H@std@@2HB
CONST	SEGMENT
?digits10@?$numeric_limits@H@std@@2HB DD 09H		; std::numeric_limits<int>::digits10
CONST	ENDS
;	COMDAT __GUID_fc4801a3_2ba9_11cf_a229_00aa003d7352
CONST	SEGMENT
__GUID_fc4801a3_2ba9_11cf_a229_00aa003d7352 DD 0fc4801a3H
	DW	02ba9H
	DW	011cfH
	DB	0a2H
	DB	029H
	DB	00H
	DB	0aaH
	DB	00H
	DB	03dH
	DB	073H
	DB	052H
CONST	ENDS
;	COMDAT ?digits@?$numeric_limits@H@std@@2HB
CONST	SEGMENT
?digits@?$numeric_limits@H@std@@2HB DD 01fH		; std::numeric_limits<int>::digits
CONST	ENDS
;	COMDAT ?is_signed@?$numeric_limits@H@std@@2_NB
CONST	SEGMENT
?is_signed@?$numeric_limits@H@std@@2_NB DB 01H		; std::numeric_limits<int>::is_signed
CONST	ENDS
;	COMDAT ?MAX_TYPE@CRegParser@ATL@@1HB
CONST	SEGMENT
?MAX_TYPE@CRegParser@ATL@@1HB DD 01000H			; ATL::CRegParser::MAX_TYPE
CONST	ENDS
;	COMDAT ?cbNeverDelete@CRegParser@ATL@@1HB
CONST	SEGMENT
?cbNeverDelete@CRegParser@ATL@@1HB DD 0cH		; ATL::CRegParser::cbNeverDelete
CONST	ENDS
;	COMDAT ?rgszNeverDelete@CRegParser@ATL@@1QBQBDB
CONST	SEGMENT
?rgszNeverDelete@CRegParser@ATL@@1QBQBDB DD FLAT:??_C@_05PDIKPLII@AppID?$AA@ ; ATL::CRegParser::rgszNeverDelete
	DD	FLAT:??_C@_05GIBEAPNE@CLSID?$AA@
	DD	FLAT:??_C@_0BF@HDDNNDFH@Component?5Categories?$AA@
	DD	FLAT:??_C@_08PICKODJL@FileType?$AA@
	DD	FLAT:??_C@_09JKPGEJCH@Interface?$AA@
	DD	FLAT:??_C@_08PPIOJEA@Hardware?$AA@
	DD	FLAT:??_C@_04IHBFOLAC@Mime?$AA@
	DD	FLAT:??_C@_03DDIMFGBA@SAM?$AA@
	DD	FLAT:??_C@_08LOPHEHKG@SECURITY?$AA@
	DD	FLAT:??_C@_06FDHFNJBJ@SYSTEM?$AA@
	DD	FLAT:??_C@_08KEKAJNJI@Software?$AA@
	DD	FLAT:??_C@_07KJLOKDKB@TypeLib?$AA@
CONST	ENDS
;	COMDAT ?digits10@?$numeric_limits@G@std@@2HB
CONST	SEGMENT
?digits10@?$numeric_limits@G@std@@2HB DD 04H		; std::numeric_limits<unsigned short>::digits10
CONST	ENDS
;	COMDAT ?digits@?$numeric_limits@G@std@@2HB
CONST	SEGMENT
?digits@?$numeric_limits@G@std@@2HB DD 010H		; std::numeric_limits<unsigned short>::digits
CONST	ENDS
;	COMDAT ?is_signed@?$numeric_limits@G@std@@2_NB
CONST	SEGMENT
?is_signed@?$numeric_limits@G@std@@2_NB DB 00H		; std::numeric_limits<unsigned short>::is_signed
CONST	ENDS
;	COMDAT ?MAX_VALUE@CRegParser@ATL@@1HB
CONST	SEGMENT
?MAX_VALUE@CRegParser@ATL@@1HB DD 01000H		; ATL::CRegParser::MAX_VALUE
CONST	ENDS
;	COMDAT ?digits10@?$numeric_limits@F@std@@2HB
CONST	SEGMENT
?digits10@?$numeric_limits@F@std@@2HB DD 04H		; std::numeric_limits<short>::digits10
CONST	ENDS
;	COMDAT __GUID_00000000_0000_0000_0000_000000000000
CONST	SEGMENT
__GUID_00000000_0000_0000_0000_000000000000 DD 00H
	DW	00H
	DW	00H
	DB	00H
	DB	00H
	DB	00H
	DB	00H
	DB	00H
	DB	00H
	DB	00H
	DB	00H
CONST	ENDS
;	COMDAT ?digits@?$numeric_limits@F@std@@2HB
CONST	SEGMENT
?digits@?$numeric_limits@F@std@@2HB DD 0fH		; std::numeric_limits<short>::digits
CONST	ENDS
;	COMDAT ?is_signed@?$numeric_limits@F@std@@2_NB
CONST	SEGMENT
?is_signed@?$numeric_limits@F@std@@2_NB DB 01H		; std::numeric_limits<short>::is_signed
CONST	ENDS
;	COMDAT ?digits10@?$numeric_limits@E@std@@2HB
CONST	SEGMENT
?digits10@?$numeric_limits@E@std@@2HB DD 02H		; std::numeric_limits<unsigned char>::digits10
CONST	ENDS
;	COMDAT ?digits@?$numeric_limits@E@std@@2HB
CONST	SEGMENT
?digits@?$numeric_limits@E@std@@2HB DD 08H		; std::numeric_limits<unsigned char>::digits
CONST	ENDS
;	COMDAT ?is_signed@?$numeric_limits@E@std@@2_NB
CONST	SEGMENT
?is_signed@?$numeric_limits@E@std@@2_NB DB 00H		; std::numeric_limits<unsigned char>::is_signed
CONST	ENDS
;	COMDAT ?table_size@?$ctype@D@std@@2IB
CONST	SEGMENT
?table_size@?$ctype@D@std@@2IB DD 0100H			; std::ctype<char>::table_size
CONST	ENDS
;	COMDAT ?digits10@?$numeric_limits@C@std@@2HB
CONST	SEGMENT
?digits10@?$numeric_limits@C@std@@2HB DD 02H		; std::numeric_limits<signed char>::digits10
CONST	ENDS
;	COMDAT ?digits@?$numeric_limits@C@std@@2HB
CONST	SEGMENT
?digits@?$numeric_limits@C@std@@2HB DD 07H		; std::numeric_limits<signed char>::digits
CONST	ENDS
;	COMDAT ?is_signed@?$numeric_limits@C@std@@2_NB
CONST	SEGMENT
?is_signed@?$numeric_limits@C@std@@2_NB DB 01H		; std::numeric_limits<signed char>::is_signed
CONST	ENDS
;	COMDAT ?value@?$_Sizeof@HU_Nil@std@@U12@U12@U12@U12@U12@U12@@std@@2IB
CONST	SEGMENT
?value@?$_Sizeof@HU_Nil@std@@U12@U12@U12@U12@U12@U12@@std@@2IB DD 01H ; std::_Sizeof<int,std::_Nil,std::_Nil,std::_Nil,std::_Nil,std::_Nil,std::_Nil,std::_Nil>::value
CONST	ENDS
;	COMDAT ?digits10@?$numeric_limits@_N@std@@2HB
CONST	SEGMENT
?digits10@?$numeric_limits@_N@std@@2HB DD 00H		; std::numeric_limits<bool>::digits10
CONST	ENDS
;	COMDAT ?digits@?$numeric_limits@_N@std@@2HB
CONST	SEGMENT
?digits@?$numeric_limits@_N@std@@2HB DD 01H		; std::numeric_limits<bool>::digits
CONST	ENDS
;	COMDAT ?is_signed@?$numeric_limits@_N@std@@2_NB
CONST	SEGMENT
?is_signed@?$numeric_limits@_N@std@@2_NB DB 00H		; std::numeric_limits<bool>::is_signed
CONST	ENDS
;	COMDAT ?is_modulo@?$numeric_limits@_N@std@@2_NB
CONST	SEGMENT
?is_modulo@?$numeric_limits@_N@std@@2_NB DB 00H		; std::numeric_limits<bool>::is_modulo
CONST	ENDS
;	COMDAT ?digits10@?$numeric_limits@_W@std@@2HB
CONST	SEGMENT
?digits10@?$numeric_limits@_W@std@@2HB DD 04H		; std::numeric_limits<wchar_t>::digits10
CONST	ENDS
;	COMDAT ?digits@?$numeric_limits@_W@std@@2HB
CONST	SEGMENT
?digits@?$numeric_limits@_W@std@@2HB DD 010H		; std::numeric_limits<wchar_t>::digits
CONST	ENDS
;	COMDAT ?is_signed@?$numeric_limits@_W@std@@2_NB
CONST	SEGMENT
?is_signed@?$numeric_limits@_W@std@@2_NB DB 00H		; std::numeric_limits<wchar_t>::is_signed
CONST	ENDS
;	COMDAT ?none@?$_Locbase@H@std@@2HB
CONST	SEGMENT
?none@?$_Locbase@H@std@@2HB DD 00H			; std::_Locbase<int>::none
CONST	ENDS
;	COMDAT ?all@?$_Locbase@H@std@@2HB
CONST	SEGMENT
?all@?$_Locbase@H@std@@2HB DD 03fH			; std::_Locbase<int>::all
CONST	ENDS
;	COMDAT ?messages@?$_Locbase@H@std@@2HB
CONST	SEGMENT
?messages@?$_Locbase@H@std@@2HB DD 020H			; std::_Locbase<int>::messages
CONST	ENDS
;	COMDAT ?time@?$_Locbase@H@std@@2HB
CONST	SEGMENT
?time@?$_Locbase@H@std@@2HB DD 010H			; std::_Locbase<int>::time
CONST	ENDS
;	COMDAT ?numeric@?$_Locbase@H@std@@2HB
CONST	SEGMENT
?numeric@?$_Locbase@H@std@@2HB DD 08H			; std::_Locbase<int>::numeric
CONST	ENDS
;	COMDAT ?monetary@?$_Locbase@H@std@@2HB
CONST	SEGMENT
?monetary@?$_Locbase@H@std@@2HB DD 04H			; std::_Locbase<int>::monetary
CONST	ENDS
;	COMDAT ?ctype@?$_Locbase@H@std@@2HB
CONST	SEGMENT
?ctype@?$_Locbase@H@std@@2HB DD 02H			; std::_Locbase<int>::ctype
CONST	ENDS
;	COMDAT ?collate@?$_Locbase@H@std@@2HB
CONST	SEGMENT
?collate@?$_Locbase@H@std@@2HB DD 01H			; std::_Locbase<int>::collate
CONST	ENDS
;	COMDAT _IID_IAxWinAmbientDispatch
CONST	SEGMENT
_IID_IAxWinAmbientDispatch DD 0b6ea2051H
	DW	048aH
	DW	011d1H
	DB	082H
	DB	0b9H
	DB	00H
	DB	0c0H
	DB	04fH
	DB	0b9H
	DB	094H
	DB	02eH
CONST	ENDS
;	COMDAT ?digits10@?$numeric_limits@D@std@@2HB
CONST	SEGMENT
?digits10@?$numeric_limits@D@std@@2HB DD 02H		; std::numeric_limits<char>::digits10
CONST	ENDS
;	COMDAT ?digits@?$numeric_limits@D@std@@2HB
CONST	SEGMENT
?digits@?$numeric_limits@D@std@@2HB DD 07H		; std::numeric_limits<char>::digits
CONST	ENDS
;	COMDAT ?is_signed@?$numeric_limits@D@std@@2_NB
CONST	SEGMENT
?is_signed@?$numeric_limits@D@std@@2_NB DB 01H		; std::numeric_limits<char>::is_signed
CONST	ENDS
;	COMDAT ??_C@_06JBKGCNBB@Delete?$AA@
CONST	SEGMENT
??_C@_06JBKGCNBB@Delete?$AA@ DB 'Delete', 00H		; `string'
CONST	ENDS
;	COMDAT ?radix@_Num_float_base@std@@2HB
CONST	SEGMENT
?radix@_Num_float_base@std@@2HB DD 02H			; std::_Num_float_base::radix
CONST	ENDS
;	COMDAT ?szDelete@ATL@@3QBDB
CONST	SEGMENT
?szDelete@ATL@@3QBDB DD FLAT:??_C@_06JBKGCNBB@Delete?$AA@ ; ATL::szDelete
CONST	ENDS
;	COMDAT ??_C@_08KAAPDIAN@NoRemove?$AA@
CONST	SEGMENT
??_C@_08KAAPDIAN@NoRemove?$AA@ DB 'NoRemove', 00H	; `string'
CONST	ENDS
;	COMDAT ?szNoRemove@ATL@@3QBDB
CONST	SEGMENT
?szNoRemove@ATL@@3QBDB DD FLAT:??_C@_08KAAPDIAN@NoRemove?$AA@ ; ATL::szNoRemove
CONST	ENDS
;	COMDAT ?round_style@_Num_float_base@std@@2W4float_round_style@2@B
CONST	SEGMENT
?round_style@_Num_float_base@std@@2W4float_round_style@2@B DD 01H ; std::_Num_float_base::round_style
CONST	ENDS
;	COMDAT ??_C@_0M@DBGDLGLL@ForceRemove?$AA@
CONST	SEGMENT
??_C@_0M@DBGDLGLL@ForceRemove?$AA@ DB 'ForceRemove', 00H ; `string'
CONST	ENDS
CONST	SEGMENT
_L_2	DD	03f317218r			; 0.693147
CONST	ENDS
;	COMDAT ?szForceRemove@ATL@@3QBDB
CONST	SEGMENT
?szForceRemove@ATL@@3QBDB DD FLAT:??_C@_0M@DBGDLGLL@ForceRemove?$AA@ ; ATL::szForceRemove
CONST	ENDS
;	COMDAT ??_C@_03LAIAPFCB@Val?$AA@
CONST	SEGMENT
??_C@_03LAIAPFCB@Val?$AA@ DB 'Val', 00H			; `string'
CONST	ENDS
;	COMDAT ?traps@_Num_float_base@std@@2_NB
CONST	SEGMENT
?traps@_Num_float_base@std@@2_NB DB 00H			; std::_Num_float_base::traps
CONST	ENDS
;	COMDAT ?szValToken@ATL@@3QBDB
CONST	SEGMENT
?szValToken@ATL@@3QBDB DD FLAT:??_C@_03LAIAPFCB@Val?$AA@ ; ATL::szValToken
CONST	ENDS
;	COMDAT ??_C@_01HMGJMAIH@B?$AA@
CONST	SEGMENT
??_C@_01HMGJMAIH@B?$AA@ DB 'B', 00H			; `string'
CONST	ENDS
;	COMDAT ?szBinaryVal@ATL@@3QBDB
CONST	SEGMENT
?szBinaryVal@ATL@@3QBDB DD FLAT:??_C@_01HMGJMAIH@B?$AA@	; ATL::szBinaryVal
CONST	ENDS
;	COMDAT ?tinyness_before@_Num_float_base@std@@2_NB
CONST	SEGMENT
?tinyness_before@_Num_float_base@std@@2_NB DB 01H	; std::_Num_float_base::tinyness_before
CONST	ENDS
;	COMDAT ??_C@_01CKDDGHAB@D?$AA@
CONST	SEGMENT
??_C@_01CKDDGHAB@D?$AA@ DB 'D', 00H			; `string'
CONST	ENDS
;	COMDAT ?szDwordVal@ATL@@3QBDB
CONST	SEGMENT
?szDwordVal@ATL@@3QBDB DD FLAT:??_C@_01CKDDGHAB@D?$AA@	; ATL::szDwordVal
CONST	ENDS
;	COMDAT ??_C@_01PLPBNMEI@M?$AA@
CONST	SEGMENT
??_C@_01PLPBNMEI@M?$AA@ DB 'M', 00H			; `string'
CONST	ENDS
;	COMDAT ?is_specialized@_Num_float_base@std@@2_NB
CONST	SEGMENT
?is_specialized@_Num_float_base@std@@2_NB DB 01H	; std::_Num_float_base::is_specialized
CONST	ENDS
;	COMDAT _IID_IAxWinHostWindowLic
CONST	SEGMENT
_IID_IAxWinHostWindowLic DD 03935bda8H
	DW	04ed9H
	DW	0495cH
	DB	086H
	DB	050H
	DB	0e0H
	DB	01fH
	DB	0c1H
	DB	0e3H
	DB	08aH
	DB	04bH
CONST	ENDS
;	COMDAT ?multiszStringVal@ATL@@3QBDB
CONST	SEGMENT
?multiszStringVal@ATL@@3QBDB DD FLAT:??_C@_01PLPBNMEI@M?$AA@ ; ATL::multiszStringVal
CONST	ENDS
;	COMDAT ??_C@_01CPLAODJH@S?$AA@
CONST	SEGMENT
??_C@_01CPLAODJH@S?$AA@ DB 'S', 00H			; `string'
CONST	ENDS
;	COMDAT ?szStringVal@ATL@@3QBDB
CONST	SEGMENT
?szStringVal@ATL@@3QBDB DD FLAT:??_C@_01CPLAODJH@S?$AA@	; ATL::szStringVal
CONST	ENDS
;	COMDAT ?is_signed@_Num_float_base@std@@2_NB
CONST	SEGMENT
?is_signed@_Num_float_base@std@@2_NB DB 01H		; std::_Num_float_base::is_signed
CONST	ENDS
;	COMDAT ?chEquals@ATL@@3DB
CONST	SEGMENT
?chEquals@ATL@@3DB DB 03dH				; ATL::chEquals
CONST	ENDS
;	COMDAT ?chQuote@ATL@@3DB
CONST	SEGMENT
?chQuote@ATL@@3DB DB 027H				; ATL::chQuote
CONST	ENDS
;	COMDAT ?chLeftBracket@ATL@@3DB
CONST	SEGMENT
?chLeftBracket@ATL@@3DB DB 07bH				; ATL::chLeftBracket
CONST	ENDS
;	COMDAT ?is_modulo@_Num_float_base@std@@2_NB
CONST	SEGMENT
?is_modulo@_Num_float_base@std@@2_NB DB 00H		; std::_Num_float_base::is_modulo
CONST	ENDS
;	COMDAT ?chRightBracket@ATL@@3DB
CONST	SEGMENT
?chRightBracket@ATL@@3DB DB 07dH			; ATL::chRightBracket
CONST	ENDS
;	COMDAT ?chDirSep@ATL@@3DB
CONST	SEGMENT
?chDirSep@ATL@@3DB DB 05cH				; ATL::chDirSep
CONST	ENDS
;	COMDAT ?is_integer@_Num_float_base@std@@2_NB
CONST	SEGMENT
?is_integer@_Num_float_base@std@@2_NB DB 00H		; std::_Num_float_base::is_integer
CONST	ENDS
;	COMDAT ?is_iec559@_Num_float_base@std@@2_NB
CONST	SEGMENT
?is_iec559@_Num_float_base@std@@2_NB DB 01H		; std::_Num_float_base::is_iec559
CONST	ENDS
;	COMDAT ?is_exact@_Num_float_base@std@@2_NB
CONST	SEGMENT
?is_exact@_Num_float_base@std@@2_NB DB 00H		; std::_Num_float_base::is_exact
CONST	ENDS
;	COMDAT ?is_bounded@_Num_float_base@std@@2_NB
CONST	SEGMENT
?is_bounded@_Num_float_base@std@@2_NB DB 01H		; std::_Num_float_base::is_bounded
CONST	ENDS
;	COMDAT ?has_signaling_NaN@_Num_float_base@std@@2_NB
CONST	SEGMENT
?has_signaling_NaN@_Num_float_base@std@@2_NB DB 01H	; std::_Num_float_base::has_signaling_NaN
CONST	ENDS
;	COMDAT ?has_quiet_NaN@_Num_float_base@std@@2_NB
CONST	SEGMENT
?has_quiet_NaN@_Num_float_base@std@@2_NB DB 01H		; std::_Num_float_base::has_quiet_NaN
CONST	ENDS
;	COMDAT ?has_infinity@_Num_float_base@std@@2_NB
CONST	SEGMENT
?has_infinity@_Num_float_base@std@@2_NB DB 01H		; std::_Num_float_base::has_infinity
CONST	ENDS
;	COMDAT ?has_denorm_loss@_Num_float_base@std@@2_NB
CONST	SEGMENT
?has_denorm_loss@_Num_float_base@std@@2_NB DB 01H	; std::_Num_float_base::has_denorm_loss
CONST	ENDS
;	COMDAT ?has_denorm@_Num_float_base@std@@2W4float_denorm_style@2@B
CONST	SEGMENT
?has_denorm@_Num_float_base@std@@2W4float_denorm_style@2@B DD 01H ; std::_Num_float_base::has_denorm
CONST	ENDS
;	COMDAT ?radix@_Num_int_base@std@@2HB
CONST	SEGMENT
?radix@_Num_int_base@std@@2HB DD 02H			; std::_Num_int_base::radix
CONST	ENDS
;	COMDAT ?is_specialized@_Num_int_base@std@@2_NB
CONST	SEGMENT
?is_specialized@_Num_int_base@std@@2_NB DB 01H		; std::_Num_int_base::is_specialized
CONST	ENDS
;	COMDAT ?is_modulo@_Num_int_base@std@@2_NB
CONST	SEGMENT
?is_modulo@_Num_int_base@std@@2_NB DB 01H		; std::_Num_int_base::is_modulo
CONST	ENDS
;	COMDAT ?is_integer@_Num_int_base@std@@2_NB
CONST	SEGMENT
?is_integer@_Num_int_base@std@@2_NB DB 01H		; std::_Num_int_base::is_integer
CONST	ENDS
;	COMDAT ?is_exact@_Num_int_base@std@@2_NB
CONST	SEGMENT
?is_exact@_Num_int_base@std@@2_NB DB 01H		; std::_Num_int_base::is_exact
CONST	ENDS
;	COMDAT ?pmField@?$CVarTypeInfo@PATtagCY@@@ATL@@2QQtagVARIANT@@PATtagCY@@Q3@
CONST	SEGMENT
?pmField@?$CVarTypeInfo@PATtagCY@@@ATL@@2QQtagVARIANT@@PATtagCY@@Q3@ DD 08H ; ATL::CVarTypeInfo<tagCY *>::pmField
CONST	ENDS
;	COMDAT ?is_bounded@_Num_int_base@std@@2_NB
CONST	SEGMENT
?is_bounded@_Num_int_base@std@@2_NB DB 01H		; std::_Num_int_base::is_bounded
CONST	ENDS
;	COMDAT ?VT@?$CVarTypeInfo@PATtagCY@@@ATL@@2GB
CONST	SEGMENT
?VT@?$CVarTypeInfo@PATtagCY@@@ATL@@2GB DW 04006H	; ATL::CVarTypeInfo<tagCY *>::VT
CONST	ENDS
;	COMDAT ??_C@_05PDIKPLII@AppID?$AA@
CONST	SEGMENT
??_C@_05PDIKPLII@AppID?$AA@ DB 'AppID', 00H		; `string'
CONST	ENDS
;	COMDAT ?pmField@?$CVarTypeInfo@TtagCY@@@ATL@@2QQtagVARIANT@@TtagCY@@Q3@
CONST	SEGMENT
?pmField@?$CVarTypeInfo@TtagCY@@@ATL@@2QQtagVARIANT@@TtagCY@@Q3@ DD 08H ; ATL::CVarTypeInfo<tagCY>::pmField
CONST	ENDS
;	COMDAT ?VT@?$CVarTypeInfo@TtagCY@@@ATL@@2GB
CONST	SEGMENT
?VT@?$CVarTypeInfo@TtagCY@@@ATL@@2GB DW 06H		; ATL::CVarTypeInfo<tagCY>::VT
CONST	ENDS
;	COMDAT ?pmField@?$CVarTypeInfo@PAPAUIDispatch@@@ATL@@2QQtagVARIANT@@PAPAUIDispatch@@Q3@
CONST	SEGMENT
?pmField@?$CVarTypeInfo@PAPAUIDispatch@@@ATL@@2QQtagVARIANT@@PAPAUIDispatch@@Q3@ DD 08H ; ATL::CVarTypeInfo<IDispatch * *>::pmField
CONST	ENDS
;	COMDAT ?VT@?$CVarTypeInfo@PAPAUIDispatch@@@ATL@@2GB
CONST	SEGMENT
?VT@?$CVarTypeInfo@PAPAUIDispatch@@@ATL@@2GB DW 04009H	; ATL::CVarTypeInfo<IDispatch * *>::VT
CONST	ENDS
;	COMDAT _IID_IAxWinHostWindow
CONST	SEGMENT
_IID_IAxWinHostWindow DD 0b6ea2050H
	DW	048aH
	DW	011d1H
	DB	082H
	DB	0b9H
	DB	00H
	DB	0c0H
	DB	04fH
	DB	0b9H
	DB	094H
	DB	02eH
CONST	ENDS
;	COMDAT ?radix@_Num_base@std@@2HB
CONST	SEGMENT
?radix@_Num_base@std@@2HB DD 00H			; std::_Num_base::radix
CONST	ENDS
;	COMDAT ?min_exponent10@_Num_base@std@@2HB
CONST	SEGMENT
?min_exponent10@_Num_base@std@@2HB DD 00H		; std::_Num_base::min_exponent10
CONST	ENDS
;	COMDAT ??_C@_05GIBEAPNE@CLSID?$AA@
CONST	SEGMENT
??_C@_05GIBEAPNE@CLSID?$AA@ DB 'CLSID', 00H		; `string'
CONST	ENDS
;	COMDAT ?min_exponent@_Num_base@std@@2HB
CONST	SEGMENT
?min_exponent@_Num_base@std@@2HB DD 00H			; std::_Num_base::min_exponent
CONST	ENDS
;	COMDAT ?pmField@?$CVarTypeInfo@PAUIDispatch@@@ATL@@2QQtagVARIANT@@PAUIDispatch@@Q3@
CONST	SEGMENT
?pmField@?$CVarTypeInfo@PAUIDispatch@@@ATL@@2QQtagVARIANT@@PAUIDispatch@@Q3@ DD 08H ; ATL::CVarTypeInfo<IDispatch *>::pmField
CONST	ENDS
;	COMDAT ?max_exponent10@_Num_base@std@@2HB
CONST	SEGMENT
?max_exponent10@_Num_base@std@@2HB DD 00H		; std::_Num_base::max_exponent10
CONST	ENDS
;	COMDAT ?VT@?$CVarTypeInfo@PAUIDispatch@@@ATL@@2GB
CONST	SEGMENT
?VT@?$CVarTypeInfo@PAUIDispatch@@@ATL@@2GB DW 09H	; ATL::CVarTypeInfo<IDispatch *>::VT
CONST	ENDS
;	COMDAT ?max_exponent@_Num_base@std@@2HB
CONST	SEGMENT
?max_exponent@_Num_base@std@@2HB DD 00H			; std::_Num_base::max_exponent
CONST	ENDS
;	COMDAT __GUID_0000010c_0000_0000_c000_000000000046
CONST	SEGMENT
__GUID_0000010c_0000_0000_c000_000000000046 DD 010cH
	DW	00H
	DW	00H
	DB	0c0H
	DB	00H
	DB	00H
	DB	00H
	DB	00H
	DB	00H
	DB	00H
	DB	046H
CONST	ENDS
;	COMDAT ?max_digits10@_Num_base@std@@2HB
CONST	SEGMENT
?max_digits10@_Num_base@std@@2HB DD 00H			; std::_Num_base::max_digits10
CONST	ENDS
;	COMDAT ??_C@_0O@FIGAPIFM@?$FLBORDERCOLOR?$FN?$AA@
CONST	SEGMENT
??_C@_0O@FIGAPIFM@?$FLBORDERCOLOR?$FN?$AA@ DB '[BORDERCOLOR]', 00H ; `string'
CONST	ENDS
;	COMDAT ?digits10@_Num_base@std@@2HB
CONST	SEGMENT
?digits10@_Num_base@std@@2HB DD 00H			; std::_Num_base::digits10
CONST	ENDS
;	COMDAT ??_C@_08HOHJKBBM@?$FLOPAQUE?$FN?$AA@
CONST	SEGMENT
??_C@_08HOHJKBBM@?$FLOPAQUE?$FN?$AA@ DB '[OPAQUE]', 00H	; `string'
CONST	ENDS
;	COMDAT ??_C@_09DLAJPJPK@?$FLBGCOLOR?$FN?$AA@
CONST	SEGMENT
??_C@_09DLAJPJPK@?$FLBGCOLOR?$FN?$AA@ DB '[BGCOLOR]', 00H ; `string'
CONST	ENDS
;	COMDAT ??_C@_0L@DOPGNDKI@?$FLBARCOLOR?$FN?$AA@
CONST	SEGMENT
??_C@_0L@DOPGNDKI@?$FLBARCOLOR?$FN?$AA@ DB '[BARCOLOR]', 00H ; `string'
CONST	ENDS
;	COMDAT ?digits@_Num_base@std@@2HB
CONST	SEGMENT
?digits@_Num_base@std@@2HB DD 00H			; std::_Num_base::digits
CONST	ENDS
;	COMDAT ??_C@_0L@EEJKABGJ@?$FLDISCOLOR?$FN?$AA@
CONST	SEGMENT
??_C@_0L@EEJKABGJ@?$FLDISCOLOR?$FN?$AA@ DB '[DISCOLOR]', 00H ; `string'
CONST	ENDS
;	COMDAT ?pmField@?$CVarTypeInfo@PAPAUIUnknown@@@ATL@@2QQtagVARIANT@@PAPAUIUnknown@@Q3@
CONST	SEGMENT
?pmField@?$CVarTypeInfo@PAPAUIUnknown@@@ATL@@2QQtagVARIANT@@PAPAUIUnknown@@Q3@ DD 08H ; ATL::CVarTypeInfo<IUnknown * *>::pmField
CONST	ENDS
;	COMDAT ??_C@_0L@MCEHELGL@?$FLSELCOLOR?$FN?$AA@
CONST	SEGMENT
??_C@_0L@MCEHELGL@?$FLSELCOLOR?$FN?$AA@ DB '[SELCOLOR]', 00H ; `string'
CONST	ENDS
;	COMDAT ??_C@_0M@HJMEOECD@?$FLNORMCOLOR?$FN?$AA@
CONST	SEGMENT
??_C@_0M@HJMEOECD@?$FLNORMCOLOR?$FN?$AA@ DB '[NORMCOLOR]', 00H ; `string'
CONST	ENDS
;	COMDAT ?VT@?$CVarTypeInfo@PAPAUIUnknown@@@ATL@@2GB
CONST	SEGMENT
?VT@?$CVarTypeInfo@PAPAUIUnknown@@@ATL@@2GB DW 0400dH	; ATL::CVarTypeInfo<IUnknown * *>::VT
CONST	ENDS
;	COMDAT ?round_style@_Num_base@std@@2W4float_round_style@2@B
CONST	SEGMENT
?round_style@_Num_base@std@@2W4float_round_style@2@B DD 00H ; std::_Num_base::round_style
CONST	ENDS
;	COMDAT ??_C@_07EPALPDPD@?$FLSTATE?$FN?$AA@
CONST	SEGMENT
??_C@_07EPALPDPD@?$FLSTATE?$FN?$AA@ DB '[STATE]', 00H	; `string'
CONST	ENDS
;	COMDAT ??_C@_0N@EJKACOHO@?$FLRADIOGROUP?$FN?$AA@
CONST	SEGMENT
??_C@_0N@EJKACOHO@?$FLRADIOGROUP?$FN?$AA@ DB '[RADIOGROUP]', 00H ; `string'
CONST	ENDS
;	COMDAT ??_C@_0O@LDAMEGOB@?$FLITEMFLAGOFF?$FN?$AA@
CONST	SEGMENT
??_C@_0O@LDAMEGOB@?$FLITEMFLAGOFF?$FN?$AA@ DB '[ITEMFLAGOFF]', 00H ; `string'
CONST	ENDS
;	COMDAT ?traps@_Num_base@std@@2_NB
CONST	SEGMENT
?traps@_Num_base@std@@2_NB DB 00H			; std::_Num_base::traps
CONST	ENDS
;	COMDAT ??_C@_0N@NIMDHIJD@?$FLITEMFLAGON?$FN?$AA@
CONST	SEGMENT
??_C@_0N@NIMDHIJD@?$FLITEMFLAGON?$FN?$AA@ DB '[ITEMFLAGON]', 00H ; `string'
CONST	ENDS
;	COMDAT ??_C@_09LHKCMHCF@?$FLADDITEM?$FN?$AA@
CONST	SEGMENT
??_C@_09LHKCMHCF@?$FLADDITEM?$FN?$AA@ DB '[ADDITEM]', 00H ; `string'
CONST	ENDS
;	COMDAT ??_C@_07INNADMMB@?$FLSETUP?$FN?$AA@
CONST	SEGMENT
??_C@_07INNADMMB@?$FLSETUP?$FN?$AA@ DB '[SETUP]', 00H	; `string'
CONST	ENDS
;	COMDAT ?tinyness_before@_Num_base@std@@2_NB
CONST	SEGMENT
?tinyness_before@_Num_base@std@@2_NB DB 00H		; std::_Num_base::tinyness_before
CONST	ENDS
;	COMDAT ??_C@_09NLBFAKCN@?$FLNOTHING?$FN?$AA@
CONST	SEGMENT
??_C@_09NLBFAKCN@?$FLNOTHING?$FN?$AA@ DB '[NOTHING]', 00H ; `string'
CONST	ENDS
_DATA	SEGMENT
?C_Pu_Tokens@@3PAPADA DD FLAT:??_C@_09NLBFAKCN@?$FLNOTHING?$FN?$AA@ ; C_Pu_Tokens
	DD	FLAT:??_C@_07INNADMMB@?$FLSETUP?$FN?$AA@
	DD	FLAT:??_C@_09LHKCMHCF@?$FLADDITEM?$FN?$AA@
	DD	FLAT:??_C@_0N@NIMDHIJD@?$FLITEMFLAGON?$FN?$AA@
	DD	FLAT:??_C@_0O@LDAMEGOB@?$FLITEMFLAGOFF?$FN?$AA@
	DD	FLAT:??_C@_0N@EJKACOHO@?$FLRADIOGROUP?$FN?$AA@
	DD	FLAT:??_C@_07EPALPDPD@?$FLSTATE?$FN?$AA@
	DD	FLAT:??_C@_0M@HJMEOECD@?$FLNORMCOLOR?$FN?$AA@
	DD	FLAT:??_C@_0L@MCEHELGL@?$FLSELCOLOR?$FN?$AA@
	DD	FLAT:??_C@_0L@EEJKABGJ@?$FLDISCOLOR?$FN?$AA@
	DD	FLAT:??_C@_0L@DOPGNDKI@?$FLBARCOLOR?$FN?$AA@
	DD	FLAT:??_C@_09DLAJPJPK@?$FLBGCOLOR?$FN?$AA@
	DD	FLAT:??_C@_08HOHJKBBM@?$FLOPAQUE?$FN?$AA@
	DD	FLAT:??_C@_0O@FIGAPIFM@?$FLBORDERCOLOR?$FN?$AA@
	DD	00H
_DATA	ENDS
;	COMDAT ?is_specialized@_Num_base@std@@2_NB
CONST	SEGMENT
?is_specialized@_Num_base@std@@2_NB DB 00H		; std::_Num_base::is_specialized
CONST	ENDS
;	COMDAT ?pmField@?$CVarTypeInfo@PAUIUnknown@@@ATL@@2QQtagVARIANT@@PAUIUnknown@@Q3@
CONST	SEGMENT
?pmField@?$CVarTypeInfo@PAUIUnknown@@@ATL@@2QQtagVARIANT@@PAUIUnknown@@Q3@ DD 08H ; ATL::CVarTypeInfo<IUnknown *>::pmField
CONST	ENDS
;	COMDAT ?is_signed@_Num_base@std@@2_NB
CONST	SEGMENT
?is_signed@_Num_base@std@@2_NB DB 00H			; std::_Num_base::is_signed
CONST	ENDS
;	COMDAT ?VT@?$CVarTypeInfo@PAUIUnknown@@@ATL@@2GB
CONST	SEGMENT
?VT@?$CVarTypeInfo@PAUIUnknown@@@ATL@@2GB DW 0dH	; ATL::CVarTypeInfo<IUnknown *>::VT
CONST	ENDS
;	COMDAT ?is_modulo@_Num_base@std@@2_NB
CONST	SEGMENT
?is_modulo@_Num_base@std@@2_NB DB 00H			; std::_Num_base::is_modulo
CONST	ENDS
;	COMDAT ?is_integer@_Num_base@std@@2_NB
CONST	SEGMENT
?is_integer@_Num_base@std@@2_NB DB 00H			; std::_Num_base::is_integer
CONST	ENDS
;	COMDAT ?is_iec559@_Num_base@std@@2_NB
CONST	SEGMENT
?is_iec559@_Num_base@std@@2_NB DB 00H			; std::_Num_base::is_iec559
CONST	ENDS
;	COMDAT ?pmField@?$CVarTypeInfo@PAPA_W@ATL@@2QQtagVARIANT@@PAPA_WQ3@
CONST	SEGMENT
?pmField@?$CVarTypeInfo@PAPA_W@ATL@@2QQtagVARIANT@@PAPA_WQ3@ DD 08H ; ATL::CVarTypeInfo<wchar_t * *>::pmField
CONST	ENDS
;	COMDAT ?is_exact@_Num_base@std@@2_NB
CONST	SEGMENT
?is_exact@_Num_base@std@@2_NB DB 00H			; std::_Num_base::is_exact
CONST	ENDS
;	COMDAT ?VT@?$CVarTypeInfo@PAPA_W@ATL@@2GB
CONST	SEGMENT
?VT@?$CVarTypeInfo@PAPA_W@ATL@@2GB DW 04008H		; ATL::CVarTypeInfo<wchar_t * *>::VT
CONST	ENDS
;	COMDAT ?is_bounded@_Num_base@std@@2_NB
CONST	SEGMENT
?is_bounded@_Num_base@std@@2_NB DB 00H			; std::_Num_base::is_bounded
CONST	ENDS
;	COMDAT ?has_signaling_NaN@_Num_base@std@@2_NB
CONST	SEGMENT
?has_signaling_NaN@_Num_base@std@@2_NB DB 00H		; std::_Num_base::has_signaling_NaN
CONST	ENDS
;	COMDAT ?has_quiet_NaN@_Num_base@std@@2_NB
CONST	SEGMENT
?has_quiet_NaN@_Num_base@std@@2_NB DB 00H		; std::_Num_base::has_quiet_NaN
CONST	ENDS
;	COMDAT ?has_infinity@_Num_base@std@@2_NB
CONST	SEGMENT
?has_infinity@_Num_base@std@@2_NB DB 00H		; std::_Num_base::has_infinity
CONST	ENDS
;	COMDAT ?pmField@?$CVarTypeInfo@PA_W@ATL@@2QQtagVARIANT@@PA_WQ3@
CONST	SEGMENT
?pmField@?$CVarTypeInfo@PA_W@ATL@@2QQtagVARIANT@@PA_WQ3@ DD 08H ; ATL::CVarTypeInfo<wchar_t *>::pmField
CONST	ENDS
;	COMDAT ?VT@?$CVarTypeInfo@PA_W@ATL@@2GB
CONST	SEGMENT
?VT@?$CVarTypeInfo@PA_W@ATL@@2GB DW 08H			; ATL::CVarTypeInfo<wchar_t *>::VT
CONST	ENDS
;	COMDAT ?has_denorm_loss@_Num_base@std@@2_NB
CONST	SEGMENT
?has_denorm_loss@_Num_base@std@@2_NB DB 00H		; std::_Num_base::has_denorm_loss
CONST	ENDS
;	COMDAT __GUID_0002e012_0000_0000_c000_000000000046
CONST	SEGMENT
__GUID_0002e012_0000_0000_c000_000000000046 DD 02e012H
	DW	00H
	DW	00H
	DB	0c0H
	DB	00H
	DB	00H
	DB	00H
	DB	00H
	DB	00H
	DB	00H
	DB	046H
CONST	ENDS
;	COMDAT ?has_denorm@_Num_base@std@@2W4float_denorm_style@2@B
CONST	SEGMENT
?has_denorm@_Num_base@std@@2W4float_denorm_style@2@B DD 00H ; std::_Num_base::has_denorm
CONST	ENDS
;	COMDAT ?VT@?$CVarTypeInfo@PAUtagVARIANT@@@ATL@@2GB
CONST	SEGMENT
?VT@?$CVarTypeInfo@PAUtagVARIANT@@@ATL@@2GB DW 0400cH	; ATL::CVarTypeInfo<tagVARIANT *>::VT
CONST	ENDS
;	COMDAT ?pmField@?$CVarTypeInfo@PAN@ATL@@2QQtagVARIANT@@PANQ3@
CONST	SEGMENT
?pmField@?$CVarTypeInfo@PAN@ATL@@2QQtagVARIANT@@PANQ3@ DD 08H ; ATL::CVarTypeInfo<double *>::pmField
CONST	ENDS
;	COMDAT ?VT@?$CVarTypeInfo@PAN@ATL@@2GB
CONST	SEGMENT
?VT@?$CVarTypeInfo@PAN@ATL@@2GB DW 04005H		; ATL::CVarTypeInfo<double *>::VT
CONST	ENDS
;	COMDAT ?pmField@?$CVarTypeInfo@N@ATL@@2QQtagVARIANT@@NQ3@
CONST	SEGMENT
?pmField@?$CVarTypeInfo@N@ATL@@2QQtagVARIANT@@NQ3@ DD 08H ; ATL::CVarTypeInfo<double>::pmField
CONST	ENDS
;	COMDAT ?VT@?$CVarTypeInfo@N@ATL@@2GB
CONST	SEGMENT
?VT@?$CVarTypeInfo@N@ATL@@2GB DW 05H			; ATL::CVarTypeInfo<double>::VT
CONST	ENDS
;	COMDAT ?pmField@?$CVarTypeInfo@PAM@ATL@@2QQtagVARIANT@@PAMQ3@
CONST	SEGMENT
?pmField@?$CVarTypeInfo@PAM@ATL@@2QQtagVARIANT@@PAMQ3@ DD 08H ; ATL::CVarTypeInfo<float *>::pmField
CONST	ENDS
;	COMDAT __GUID_00020400_0000_0000_c000_000000000046
CONST	SEGMENT
__GUID_00020400_0000_0000_c000_000000000046 DD 020400H
	DW	00H
	DW	00H
	DB	0c0H
	DB	00H
	DB	00H
	DB	00H
	DB	00H
	DB	00H
	DB	00H
	DB	046H
CONST	ENDS
;	COMDAT ?VT@?$CVarTypeInfo@PAM@ATL@@2GB
CONST	SEGMENT
?VT@?$CVarTypeInfo@PAM@ATL@@2GB DW 04004H		; ATL::CVarTypeInfo<float *>::VT
CONST	ENDS
;	COMDAT __GUID_a6bc3ac0_dbaa_11ce_9de3_00aa004bb851
CONST	SEGMENT
__GUID_a6bc3ac0_dbaa_11ce_9de3_00aa004bb851 DD 0a6bc3ac0H
	DW	0dbaaH
	DW	011ceH
	DB	09dH
	DB	0e3H
	DB	00H
	DB	0aaH
	DB	00H
	DB	04bH
	DB	0b8H
	DB	051H
CONST	ENDS
;	COMDAT ?pmField@?$CVarTypeInfo@M@ATL@@2QQtagVARIANT@@MQ3@
CONST	SEGMENT
?pmField@?$CVarTypeInfo@M@ATL@@2QQtagVARIANT@@MQ3@ DD 08H ; ATL::CVarTypeInfo<float>::pmField
CONST	ENDS
;	COMDAT ?VT@?$CVarTypeInfo@M@ATL@@2GB
CONST	SEGMENT
?VT@?$CVarTypeInfo@M@ATL@@2GB DW 04H			; ATL::CVarTypeInfo<float>::VT
CONST	ENDS
;	COMDAT __GUID_00000000_0000_0000_c000_000000000046
CONST	SEGMENT
__GUID_00000000_0000_0000_c000_000000000046 DD 00H
	DW	00H
	DW	00H
	DB	0c0H
	DB	00H
	DB	00H
	DB	00H
	DB	00H
	DB	00H
	DB	00H
	DB	046H
CONST	ENDS
;	COMDAT ?pmField@?$CVarTypeInfo@PA_K@ATL@@2QQtagVARIANT@@PA_KQ3@
CONST	SEGMENT
?pmField@?$CVarTypeInfo@PA_K@ATL@@2QQtagVARIANT@@PA_KQ3@ DD 08H ; ATL::CVarTypeInfo<unsigned __int64 *>::pmField
CONST	ENDS
;	COMDAT ?VT@?$CVarTypeInfo@PA_K@ATL@@2GB
CONST	SEGMENT
?VT@?$CVarTypeInfo@PA_K@ATL@@2GB DW 04015H		; ATL::CVarTypeInfo<unsigned __int64 *>::VT
CONST	ENDS
;	COMDAT ??_C@_07KJLOKDKB@TypeLib?$AA@
CONST	SEGMENT
??_C@_07KJLOKDKB@TypeLib?$AA@ DB 'TypeLib', 00H		; `string'
CONST	ENDS
;	COMDAT ??_C@_08KEKAJNJI@Software?$AA@
CONST	SEGMENT
??_C@_08KEKAJNJI@Software?$AA@ DB 'Software', 00H	; `string'
CONST	ENDS
;	COMDAT ??_C@_06FDHFNJBJ@SYSTEM?$AA@
CONST	SEGMENT
??_C@_06FDHFNJBJ@SYSTEM?$AA@ DB 'SYSTEM', 00H		; `string'
CONST	ENDS
;	COMDAT ??_C@_08LOPHEHKG@SECURITY?$AA@
CONST	SEGMENT
??_C@_08LOPHEHKG@SECURITY?$AA@ DB 'SECURITY', 00H	; `string'
CONST	ENDS
;	COMDAT ??_C@_03DDIMFGBA@SAM?$AA@
CONST	SEGMENT
??_C@_03DDIMFGBA@SAM?$AA@ DB 'SAM', 00H			; `string'
CONST	ENDS
;	COMDAT ??_C@_04IHBFOLAC@Mime?$AA@
CONST	SEGMENT
??_C@_04IHBFOLAC@Mime?$AA@ DB 'Mime', 00H		; `string'
CONST	ENDS
;	COMDAT ??_C@_08PPIOJEA@Hardware?$AA@
CONST	SEGMENT
??_C@_08PPIOJEA@Hardware?$AA@ DB 'Hardware', 00H	; `string'
CONST	ENDS
;	COMDAT ??_C@_09JKPGEJCH@Interface?$AA@
CONST	SEGMENT
??_C@_09JKPGEJCH@Interface?$AA@ DB 'Interface', 00H	; `string'
CONST	ENDS
;	COMDAT ??_C@_08PICKODJL@FileType?$AA@
CONST	SEGMENT
??_C@_08PICKODJL@FileType?$AA@ DB 'FileType', 00H	; `string'
CONST	ENDS
;	COMDAT ?pmField@?$CVarTypeInfo@_K@ATL@@2QQtagVARIANT@@_KQ3@
CONST	SEGMENT
?pmField@?$CVarTypeInfo@_K@ATL@@2QQtagVARIANT@@_KQ3@ DD 08H ; ATL::CVarTypeInfo<unsigned __int64>::pmField
CONST	ENDS
;	COMDAT ??_C@_0BF@HDDNNDFH@Component?5Categories?$AA@
CONST	SEGMENT
??_C@_0BF@HDDNNDFH@Component?5Categories?$AA@ DB 'Component Categories', 00H ; `string'
CONST	ENDS
;	COMDAT ?VT@?$CVarTypeInfo@_K@ATL@@2GB
CONST	SEGMENT
?VT@?$CVarTypeInfo@_K@ATL@@2GB DW 015H			; ATL::CVarTypeInfo<unsigned __int64>::VT
CONST	ENDS
;	COMDAT ?_Stream_err@failure@ios_base@std@@0W4io_errc@43@B
CONST	SEGMENT
?_Stream_err@failure@ios_base@std@@0W4io_errc@43@B DD 01H ; std::ios_base::failure::_Stream_err
CONST	ENDS
;	COMDAT ?value@?$_Sizeof@U_Nil@std@@U12@U12@U12@U12@U12@U12@U12@@std@@2IB
CONST	SEGMENT
?value@?$_Sizeof@U_Nil@std@@U12@U12@U12@U12@U12@U12@U12@@std@@2IB DD 00H ; std::_Sizeof<std::_Nil,std::_Nil,std::_Nil,std::_Nil,std::_Nil,std::_Nil,std::_Nil,std::_Nil>::value
CONST	ENDS
;	COMDAT ?pmField@?$CVarTypeInfo@PA_J@ATL@@2QQtagVARIANT@@PA_JQ3@
CONST	SEGMENT
?pmField@?$CVarTypeInfo@PA_J@ATL@@2QQtagVARIANT@@PA_JQ3@ DD 08H ; ATL::CVarTypeInfo<__int64 *>::pmField
CONST	ENDS
;	COMDAT ?VT@?$CVarTypeInfo@PA_J@ATL@@2GB
CONST	SEGMENT
?VT@?$CVarTypeInfo@PA_J@ATL@@2GB DW 04014H		; ATL::CVarTypeInfo<__int64 *>::VT
CONST	ENDS
;	COMDAT ___pobjMapEntryLast
ATL$__z	SEGMENT
___pobjMapEntryLast DD 00H
ATL$__z	ENDS
;	COMDAT ___pobjMapEntryFirst
ATL$__a	SEGMENT
___pobjMapEntryFirst DD 00H
ATL$__a	ENDS
;	COMDAT ?pmField@?$CVarTypeInfo@_J@ATL@@2QQtagVARIANT@@_JQ3@
CONST	SEGMENT
?pmField@?$CVarTypeInfo@_J@ATL@@2QQtagVARIANT@@_JQ3@ DD 08H ; ATL::CVarTypeInfo<__int64>::pmField
CONST	ENDS
;	COMDAT ?VT@?$CVarTypeInfo@_J@ATL@@2GB
CONST	SEGMENT
?VT@?$CVarTypeInfo@_J@ATL@@2GB DW 014H			; ATL::CVarTypeInfo<__int64>::VT
CONST	ENDS
;	COMDAT ?end@?$_Iosb@H@std@@2W4_Seekdir@12@B
CONST	SEGMENT
?end@?$_Iosb@H@std@@2W4_Seekdir@12@B DD 02H		; std::_Iosb<int>::end
CONST	ENDS
;	COMDAT ?cur@?$_Iosb@H@std@@2W4_Seekdir@12@B
CONST	SEGMENT
?cur@?$_Iosb@H@std@@2W4_Seekdir@12@B DD 01H		; std::_Iosb<int>::cur
CONST	ENDS
;	COMDAT ?pmField@?$CVarTypeInfo@PAK@ATL@@2QQtagVARIANT@@PAKQ3@
CONST	SEGMENT
?pmField@?$CVarTypeInfo@PAK@ATL@@2QQtagVARIANT@@PAKQ3@ DD 08H ; ATL::CVarTypeInfo<unsigned long *>::pmField
CONST	ENDS
;	COMDAT ?beg@?$_Iosb@H@std@@2W4_Seekdir@12@B
CONST	SEGMENT
?beg@?$_Iosb@H@std@@2W4_Seekdir@12@B DD 00H		; std::_Iosb<int>::beg
CONST	ENDS
PUBLIC	??2@YAPAXIPAX@Z					; operator new
PUBLIC	??3@YAXPAX0@Z					; operator delete
PUBLIC	??1CComBSTR@ATL@@QAE@XZ				; ATL::CComBSTR::~CComBSTR
PUBLIC	??1stringdispid@CComTypeInfoHolder@ATL@@QAE@XZ	; ATL::CComTypeInfoHolder::stringdispid::~stringdispid
PUBLIC	??_Estringdispid@CComTypeInfoHolder@ATL@@QAEPAXI@Z ; ATL::CComTypeInfoHolder::stringdispid::`vector deleting destructor'
PUBLIC	?length@?$char_traits@D@std@@SAIPBD@Z		; std::char_traits<char>::length
PUBLIC	?copy@?$char_traits@D@std@@SAPADPADPBDI@Z	; std::char_traits<char>::copy
PUBLIC	?move@?$char_traits@D@std@@SAPADPADPBDI@Z	; std::char_traits<char>::move
PUBLIC	?assign@?$char_traits@D@std@@SAXAADABD@Z	; std::char_traits<char>::assign
PUBLIC	??0?$allocator@D@std@@QAE@XZ			; std::allocator<char>::allocator<char>
PUBLIC	?deallocate@?$allocator@D@std@@QAEXPADI@Z	; std::allocator<char>::deallocate
PUBLIC	?allocate@?$allocator@D@std@@QAEPADI@Z		; std::allocator<char>::allocate
PUBLIC	?max_size@?$allocator@D@std@@QBEIXZ		; std::allocator<char>::max_size
PUBLIC	?max_size@?$allocator_traits@V?$allocator@D@std@@@std@@SAIABV?$allocator@D@2@@Z ; std::allocator_traits<std::allocator<char> >::max_size
PUBLIC	??0?$_Wrap_alloc@V?$allocator@D@std@@@std@@QAE@XZ ; std::_Wrap_alloc<std::allocator<char> >::_Wrap_alloc<std::allocator<char> >
PUBLIC	?allocate@?$_Wrap_alloc@V?$allocator@D@std@@@std@@QAEPADI@Z ; std::_Wrap_alloc<std::allocator<char> >::allocate
PUBLIC	?deallocate@?$_Wrap_alloc@V?$allocator@D@std@@@std@@QAEXPADI@Z ; std::_Wrap_alloc<std::allocator<char> >::deallocate
PUBLIC	?max_size@?$_Wrap_alloc@V?$allocator@D@std@@@std@@QBEIXZ ; std::_Wrap_alloc<std::allocator<char> >::max_size
PUBLIC	??0?$_String_val@U?$_Simple_types@D@std@@@std@@QAE@XZ ; std::_String_val<std::_Simple_types<char> >::_String_val<std::_Simple_types<char> >
PUBLIC	?_Myptr@?$_String_val@U?$_Simple_types@D@std@@@std@@QAEPADXZ ; std::_String_val<std::_Simple_types<char> >::_Myptr
PUBLIC	?_Myptr@?$_String_val@U?$_Simple_types@D@std@@@std@@QBEPBDXZ ; std::_String_val<std::_Simple_types<char> >::_Myptr
PUBLIC	??0?$_String_alloc@$0A@U?$_String_base_types@DV?$allocator@D@std@@@std@@@std@@QAE@ABV?$allocator@D@1@@Z ; std::_String_alloc<0,std::_String_base_types<char,std::allocator<char> > >::_String_alloc<0,std::_String_base_types<char,std::allocator<char> > >
PUBLIC	?_Getal@?$_String_alloc@$0A@U?$_String_base_types@DV?$allocator@D@std@@@std@@@std@@QBE?AU?$_Wrap_alloc@V?$allocator@D@std@@@2@XZ ; std::_String_alloc<0,std::_String_base_types<char,std::allocator<char> > >::_Getal
PUBLIC	??0?$basic_string@DU?$char_traits@D@std@@V?$allocator@D@2@@std@@QAE@PBD@Z ; std::basic_string<char,std::char_traits<char>,std::allocator<char> >::basic_string<char,std::char_traits<char>,std::allocator<char> >
PUBLIC	?assign@?$basic_string@DU?$char_traits@D@std@@V?$allocator@D@2@@std@@QAEAAV12@ABV12@II@Z ; std::basic_string<char,std::char_traits<char>,std::allocator<char> >::assign
PUBLIC	?assign@?$basic_string@DU?$char_traits@D@std@@V?$allocator@D@2@@std@@QAEAAV12@PBDI@Z ; std::basic_string<char,std::char_traits<char>,std::allocator<char> >::assign
PUBLIC	?assign@?$basic_string@DU?$char_traits@D@std@@V?$allocator@D@2@@std@@QAEAAV12@PBD@Z ; std::basic_string<char,std::char_traits<char>,std::allocator<char> >::assign
PUBLIC	?erase@?$basic_string@DU?$char_traits@D@std@@V?$allocator@D@2@@std@@QAEAAV12@I@Z ; std::basic_string<char,std::char_traits<char>,std::allocator<char> >::erase
PUBLIC	?erase@?$basic_string@DU?$char_traits@D@std@@V?$allocator@D@2@@std@@QAEAAV12@II@Z ; std::basic_string<char,std::char_traits<char>,std::allocator<char> >::erase
PUBLIC	?size@?$basic_string@DU?$char_traits@D@std@@V?$allocator@D@2@@std@@QBEIXZ ; std::basic_string<char,std::char_traits<char>,std::allocator<char> >::size
PUBLIC	?max_size@?$basic_string@DU?$char_traits@D@std@@V?$allocator@D@2@@std@@QBEIXZ ; std::basic_string<char,std::char_traits<char>,std::allocator<char> >::max_size
PUBLIC	?_Copy@?$basic_string@DU?$char_traits@D@std@@V?$allocator@D@2@@std@@QAEXII@Z ; std::basic_string<char,std::char_traits<char>,std::allocator<char> >::_Copy
PUBLIC	?_Eos@?$basic_string@DU?$char_traits@D@std@@V?$allocator@D@2@@std@@QAEXI@Z ; std::basic_string<char,std::char_traits<char>,std::allocator<char> >::_Eos
PUBLIC	?_Grow@?$basic_string@DU?$char_traits@D@std@@V?$allocator@D@2@@std@@QAE_NI_N@Z ; std::basic_string<char,std::char_traits<char>,std::allocator<char> >::_Grow
PUBLIC	?_Inside@?$basic_string@DU?$char_traits@D@std@@V?$allocator@D@2@@std@@QAE_NPBD@Z ; std::basic_string<char,std::char_traits<char>,std::allocator<char> >::_Inside
PUBLIC	?_Tidy@?$basic_string@DU?$char_traits@D@std@@V?$allocator@D@2@@std@@QAEX_NI@Z ; std::basic_string<char,std::char_traits<char>,std::allocator<char> >::_Tidy
PUBLIC	?_Xlen@?$basic_string@DU?$char_traits@D@std@@V?$allocator@D@2@@std@@QBEXXZ ; std::basic_string<char,std::char_traits<char>,std::allocator<char> >::_Xlen
PUBLIC	?_Xran@?$basic_string@DU?$char_traits@D@std@@V?$allocator@D@2@@std@@QBEXXZ ; std::basic_string<char,std::char_traits<char>,std::allocator<char> >::_Xran
PUBLIC	??0id@locale@std@@QAE@I@Z			; std::locale::id::id
PUBLIC	?generic_category@std@@YAABVerror_category@1@XZ	; std::generic_category
PUBLIC	?system_category@std@@YAABVerror_category@1@XZ	; std::system_category
PUBLIC	??0error_category@std@@QAE@XZ			; std::error_category::error_category
PUBLIC	??1error_category@std@@UAE@XZ			; std::error_category::~error_category
PUBLIC	?default_error_condition@error_category@std@@UBE?AVerror_condition@2@H@Z ; std::error_category::default_error_condition
PUBLIC	?equivalent@error_category@std@@UBE_NHABVerror_condition@2@@Z ; std::error_category::equivalent
PUBLIC	?equivalent@error_category@std@@UBE_NABVerror_code@2@H@Z ; std::error_category::equivalent
PUBLIC	??8error_category@std@@QBE_NABV01@@Z		; std::error_category::operator==
PUBLIC	??_Gerror_category@std@@UAEPAXI@Z		; std::error_category::`scalar deleting destructor'
PUBLIC	?value@error_code@std@@QBEHXZ			; std::error_code::value
PUBLIC	?category@error_code@std@@QBEABVerror_category@2@XZ ; std::error_code::category
PUBLIC	??0error_condition@std@@QAE@HABVerror_category@1@@Z ; std::error_condition::error_condition
PUBLIC	?value@error_condition@std@@QBEHXZ		; std::error_condition::value
PUBLIC	?category@error_condition@std@@QBEABVerror_category@2@XZ ; std::error_condition::category
PUBLIC	??8error_condition@std@@QBE_NABV01@@Z		; std::error_condition::operator==
PUBLIC	??0_Generic_error_category@std@@QAE@XZ		; std::_Generic_error_category::_Generic_error_category
PUBLIC	?name@_Generic_error_category@std@@UBEPBDXZ	; std::_Generic_error_category::name
PUBLIC	?message@_Generic_error_category@std@@UBE?AV?$basic_string@DU?$char_traits@D@std@@V?$allocator@D@2@@2@H@Z ; std::_Generic_error_category::message
PUBLIC	??1_Generic_error_category@std@@UAE@XZ		; std::_Generic_error_category::~_Generic_error_category
PUBLIC	??_G_Generic_error_category@std@@UAEPAXI@Z	; std::_Generic_error_category::`scalar deleting destructor'
PUBLIC	??0_Iostream_error_category@std@@QAE@XZ		; std::_Iostream_error_category::_Iostream_error_category
PUBLIC	?name@_Iostream_error_category@std@@UBEPBDXZ	; std::_Iostream_error_category::name
PUBLIC	?message@_Iostream_error_category@std@@UBE?AV?$basic_string@DU?$char_traits@D@std@@V?$allocator@D@2@@2@H@Z ; std::_Iostream_error_category::message
PUBLIC	??1_Iostream_error_category@std@@UAE@XZ		; std::_Iostream_error_category::~_Iostream_error_category
PUBLIC	??_G_Iostream_error_category@std@@UAEPAXI@Z	; std::_Iostream_error_category::`scalar deleting destructor'
PUBLIC	??0_System_error_category@std@@QAE@XZ		; std::_System_error_category::_System_error_category
PUBLIC	?name@_System_error_category@std@@UBEPBDXZ	; std::_System_error_category::name
PUBLIC	?message@_System_error_category@std@@UBE?AV?$basic_string@DU?$char_traits@D@std@@V?$allocator@D@2@@2@H@Z ; std::_System_error_category::message
PUBLIC	?default_error_condition@_System_error_category@std@@UBE?AVerror_condition@2@H@Z ; std::_System_error_category::default_error_condition
PUBLIC	??1_System_error_category@std@@UAE@XZ		; std::_System_error_category::~_System_error_category
PUBLIC	??_G_System_error_category@std@@UAEPAXI@Z	; std::_System_error_category::`scalar deleting destructor'
PUBLIC	??_GC_Hash@@QAEPAXI@Z				; C_Hash::`scalar deleting destructor'
PUBLIC	??0O_Output@@QAE@XZ				; O_Output::O_Output
PUBLIC	??1O_Output@@QAE@XZ				; O_Output::~O_Output
PUBLIC	?SetX@O_Output@@QAEXJ@Z				; O_Output::SetX
PUBLIC	?SetY@O_Output@@QAEXJ@Z				; O_Output::SetY
PUBLIC	?SetOwner@O_Output@@QAEXPAVC_Base@@@Z		; O_Output::SetOwner
PUBLIC	?SetFlags@O_Output@@QAEXJ@Z			; O_Output::SetFlags
PUBLIC	?SetFont@O_Output@@QAEXJ@Z			; O_Output::SetFont
PUBLIC	?SetFgColor@O_Output@@QAEXK@Z			; O_Output::SetFgColor
PUBLIC	?GetW@O_Output@@QAEJXZ				; O_Output::GetW
PUBLIC	?GetH@O_Output@@QAEJXZ				; O_Output::GetH
PUBLIC	?GetText@O_Output@@QAEPADXZ			; O_Output::GetText
PUBLIC	??_GO_Output@@QAEPAXI@Z				; O_Output::`scalar deleting destructor'
PUBLIC	??1C_Base@@UAE@XZ				; C_Base::~C_Base
PUBLIC	?SetID@C_Base@@QAEXJ@Z				; C_Base::SetID
PUBLIC	?_SetCType_@C_Base@@QAEXF@Z			; C_Base::_SetCType_
PUBLIC	?SetControlFlags@C_Base@@QAEXJ@Z		; C_Base::SetControlFlags
PUBLIC	?SetFlags@C_Base@@UAEXJ@Z			; C_Base::SetFlags
PUBLIC	?SetFlagBitOn@C_Base@@UAEXJ@Z			; C_Base::SetFlagBitOn
PUBLIC	?SetFlagBitOff@C_Base@@UAEXJ@Z			; C_Base::SetFlagBitOff
PUBLIC	?SetX@C_Base@@UAEXJ@Z				; C_Base::SetX
PUBLIC	?SetY@C_Base@@UAEXJ@Z				; C_Base::SetY
PUBLIC	?SetW@C_Base@@UAEXJ@Z				; C_Base::SetW
PUBLIC	?SetH@C_Base@@UAEXJ@Z				; C_Base::SetH
PUBLIC	?SetXY@C_Base@@UAEXJJ@Z				; C_Base::SetXY
PUBLIC	?SetWH@C_Base@@UAEXJJ@Z				; C_Base::SetWH
PUBLIC	?SetXYWH@C_Base@@UAEXJJJJ@Z			; C_Base::SetXYWH
PUBLIC	?SetRelX@C_Base@@UAEXJ@Z			; C_Base::SetRelX
PUBLIC	?SetRelY@C_Base@@UAEXJ@Z			; C_Base::SetRelY
PUBLIC	?SetRelXY@C_Base@@UAEXJJ@Z			; C_Base::SetRelXY
PUBLIC	?SetParent@C_Base@@QAEXPAVC_Window@@@Z		; C_Base::SetParent
PUBLIC	?SetReady@C_Base@@QAEXF@Z			; C_Base::SetReady
PUBLIC	?SetState@C_Base@@UAEXF@Z			; C_Base::SetState
PUBLIC	?SetHotKey@C_Base@@UAEXF@Z			; C_Base::SetHotKey
PUBLIC	?SetMenu@C_Base@@UAEXJ@Z			; C_Base::SetMenu
PUBLIC	?SetFont@C_Base@@UAEXJ@Z			; C_Base::SetFont
PUBLIC	?SetSound@C_Base@@UAEXJF@Z			; C_Base::SetSound
PUBLIC	?SetCursorID@C_Base@@UAEXJ@Z			; C_Base::SetCursorID
PUBLIC	?SetDragCursorID@C_Base@@UAEXJ@Z		; C_Base::SetDragCursorID
PUBLIC	?SetHelpText@C_Base@@UAEXJ@Z			; C_Base::SetHelpText
PUBLIC	?SetMouseOver@C_Base@@UAEXF@Z			; C_Base::SetMouseOver
PUBLIC	?SetMouseOverColor@C_Base@@UAEXK@Z		; C_Base::SetMouseOverColor
PUBLIC	?SetMouseOverPerc@C_Base@@UAEXF@Z		; C_Base::SetMouseOverPerc
PUBLIC	?SetCallback@C_Base@@UAEXP6AXJFPAV1@@Z@Z	; C_Base::SetCallback
PUBLIC	?GetID@C_Base@@QAEJXZ				; C_Base::GetID
PUBLIC	?GetFlags@C_Base@@QAEJXZ			; C_Base::GetFlags
PUBLIC	?GetClient@C_Base@@QAEFXZ			; C_Base::GetClient
PUBLIC	?GetX@C_Base@@QAEJXZ				; C_Base::GetX
PUBLIC	?GetY@C_Base@@QAEJXZ				; C_Base::GetY
PUBLIC	?GetRelX@C_Base@@UAEJXZ				; C_Base::GetRelX
PUBLIC	?GetRelY@C_Base@@UAEJXZ				; C_Base::GetRelY
PUBLIC	?Ready@C_Base@@QAEFXZ				; C_Base::Ready
PUBLIC	?GetState@C_Base@@UAEFXZ			; C_Base::GetState
PUBLIC	?GetHotKey@C_Base@@UAEFXZ			; C_Base::GetHotKey
PUBLIC	?GetMenu@C_Base@@UAEJXZ				; C_Base::GetMenu
PUBLIC	?GetFont@C_Base@@UAEJXZ				; C_Base::GetFont
PUBLIC	?GetHelpText@C_Base@@UAEJXZ			; C_Base::GetHelpText
PUBLIC	?GetSound@C_Base@@UAEPAVSOUND_RES@@F@Z		; C_Base::GetSound
PUBLIC	?GetMouseOver@C_Base@@UAEFXZ			; C_Base::GetMouseOver
PUBLIC	?GetCursorID@C_Base@@UAEJXZ			; C_Base::GetCursorID
PUBLIC	?GetDragCursorID@C_Base@@UAEJXZ			; C_Base::GetDragCursorID
PUBLIC	?GetCallback@C_Base@@UAEP6AXJFPAV1@@ZXZ		; C_Base::GetCallback
PUBLIC	?IsBase@C_Base@@UAEHXZ				; C_Base::IsBase
PUBLIC	?IsControl@C_Base@@UAEHXZ			; C_Base::IsControl
PUBLIC	?Refresh@C_Base@@UAEXXZ				; C_Base::Refresh
PUBLIC	?Draw@C_Base@@UAEXPAVSCREEN@@PAUUI95_RECT@@@Z	; C_Base::Draw
PUBLIC	?HighLite@C_Base@@UAEXPAVSCREEN@@PAUUI95_RECT@@@Z ; C_Base::HighLite
PUBLIC	?SetSubParents@C_Base@@UAEXPAVC_Window@@@Z	; C_Base::SetSubParents
PUBLIC	?Cleanup@C_Base@@UAEXXZ				; C_Base::Cleanup
PUBLIC	?TimerUpdate@C_Base@@UAEHXZ			; C_Base::TimerUpdate
PUBLIC	?Activate@C_Base@@UAEXXZ			; C_Base::Activate
PUBLIC	?Deactivate@C_Base@@UAEXXZ			; C_Base::Deactivate
PUBLIC	?CheckHotSpots@C_Base@@UAEJJJ@Z			; C_Base::CheckHotSpots
PUBLIC	?CheckKeyboard@C_Base@@UAEHEEEJ@Z		; C_Base::CheckKeyboard
PUBLIC	?Process@C_Base@@UAEHJF@Z			; C_Base::Process
PUBLIC	?CloseWindow@C_Base@@UAEHXZ			; C_Base::CloseWindow
PUBLIC	?MouseOver@C_Base@@UAEHJJPAV1@@Z		; C_Base::MouseOver
PUBLIC	?GetMe@C_Base@@UAEPAV1@XZ			; C_Base::GetMe
PUBLIC	?Dragable@C_Base@@UAEHJ@Z			; C_Base::Dragable
PUBLIC	?GetItemXY@C_Base@@UAEXJPAJ0@Z			; C_Base::GetItemXY
PUBLIC	?Drag@C_Base@@UAEHPAUGRABBER@@GGPAVC_Window@@@Z	; C_Base::Drag
PUBLIC	?Drop@C_Base@@UAEHPAUGRABBER@@GGPAVC_Window@@@Z	; C_Base::Drop
PUBLIC	?Wheel@C_Base@@UAEHHGG@Z			; C_Base::Wheel
PUBLIC	?LocalFind@C_Base@@UAEFPAD@Z			; C_Base::LocalFind
PUBLIC	?LocalFunction@C_Base@@UAEXFQAJPADPAVC_Handler@@@Z ; C_Base::LocalFunction
PUBLIC	?SaveText@C_Base@@UAEXPAXPAVC_Parser@@@Z	; C_Base::SaveText
PUBLIC	??_GC_Base@@UAEPAXI@Z				; C_Base::`scalar deleting destructor'
PUBLIC	??1C_Control@@UAE@XZ				; C_Control::~C_Control
PUBLIC	?SetRelX@C_Control@@UAEXJ@Z			; C_Control::SetRelX
PUBLIC	?SetRelY@C_Control@@UAEXJ@Z			; C_Control::SetRelY
PUBLIC	?SetRelXY@C_Control@@UAEXJJ@Z			; C_Control::SetRelXY
PUBLIC	?SetCursorID@C_Control@@UAEXJ@Z			; C_Control::SetCursorID
PUBLIC	?SetDragCursorID@C_Control@@UAEXJ@Z		; C_Control::SetDragCursorID
PUBLIC	?SetMenu@C_Control@@UAEXJ@Z			; C_Control::SetMenu
PUBLIC	?SetHelpText@C_Control@@UAEXJ@Z			; C_Control::SetHelpText
PUBLIC	?SetHotKey@C_Control@@UAEXF@Z			; C_Control::SetHotKey
PUBLIC	?SetCallback@C_Control@@UAEXP6AXJFPAVC_Base@@@Z@Z ; C_Control::SetCallback
PUBLIC	?SetMouseOver@C_Control@@UAEXF@Z		; C_Control::SetMouseOver
PUBLIC	?SetMouseOverColor@C_Control@@UAEXK@Z		; C_Control::SetMouseOverColor
PUBLIC	?SetMouseOverPerc@C_Control@@UAEXF@Z		; C_Control::SetMouseOverPerc
PUBLIC	?IsBase@C_Control@@UAEHXZ			; C_Control::IsBase
PUBLIC	?IsControl@C_Control@@UAEHXZ			; C_Control::IsControl
PUBLIC	?GetRelX@C_Control@@UAEJXZ			; C_Control::GetRelX
PUBLIC	?GetRelY@C_Control@@UAEJXZ			; C_Control::GetRelY
PUBLIC	?GetCursorID@C_Control@@UAEJXZ			; C_Control::GetCursorID
PUBLIC	?GetDragCursorID@C_Control@@UAEJXZ		; C_Control::GetDragCursorID
PUBLIC	?GetMenu@C_Control@@UAEJXZ			; C_Control::GetMenu
PUBLIC	?GetHelpText@C_Control@@UAEJXZ			; C_Control::GetHelpText
PUBLIC	?GetHotKey@C_Control@@UAEFXZ			; C_Control::GetHotKey
PUBLIC	?GetMouseOver@C_Control@@UAEFXZ			; C_Control::GetMouseOver
PUBLIC	?GetCallback@C_Control@@UAEP6AXJFPAVC_Base@@@ZXZ ; C_Control::GetCallback
PUBLIC	??_GC_Control@@UAEPAXI@Z			; C_Control::`scalar deleting destructor'
PUBLIC	?FindID@C_PopupList@@AAEPAUPopUpStr@@J@Z	; C_PopupList::FindID
PUBLIC	?GetSize@C_PopupList@@AAEXPAF0@Z		; C_PopupList::GetSize
PUBLIC	??0C_PopupList@@QAE@XZ				; C_PopupList::C_PopupList
PUBLIC	??0C_PopupList@@QAE@PAPAD@Z			; C_PopupList::C_PopupList
PUBLIC	??0C_PopupList@@QAE@PAU_iobuf@@@Z		; C_PopupList::C_PopupList
PUBLIC	??1C_PopupList@@UAE@XZ				; C_PopupList::~C_PopupList
PUBLIC	?Size@C_PopupList@@QAEJXZ			; C_PopupList::Size
PUBLIC	?Setup@C_PopupList@@QAEXJFPAVC_Handler@@JJ@Z	; C_PopupList::Setup
PUBLIC	?AddItem@C_PopupList@@QAEHJFPADJ@Z		; C_PopupList::AddItem
PUBLIC	?AddItem@C_PopupList@@QAEHJFJJ@Z		; C_PopupList::AddItem
PUBLIC	?RemoveList@C_PopupList@@QAEXPAUPopUpStr@@@Z	; C_PopupList::RemoveList
PUBLIC	?RemoveAllItems@C_PopupList@@QAEXXZ		; C_PopupList::RemoveAllItems
PUBLIC	?SetFont@C_PopupList@@UAEXJ@Z			; C_PopupList::SetFont
PUBLIC	?SetFlags@C_PopupList@@UAEXJ@Z			; C_PopupList::SetFlags
PUBLIC	?SetCallback@C_PopupList@@QAEXJP6AXJFPAVC_Base@@@Z@Z ; C_PopupList::SetCallback
PUBLIC	?SetItemFlagBitOn@C_PopupList@@QAEXJJ@Z		; C_PopupList::SetItemFlagBitOn
PUBLIC	?SetItemFlagBitOff@C_PopupList@@QAEXJJ@Z	; C_PopupList::SetItemFlagBitOff
PUBLIC	?SetNormColor@C_PopupList@@QAEXK@Z		; C_PopupList::SetNormColor
PUBLIC	?SetSelColor@C_PopupList@@QAEXK@Z		; C_PopupList::SetSelColor
PUBLIC	?SetDisColor@C_PopupList@@QAEXK@Z		; C_PopupList::SetDisColor
PUBLIC	?SetBarColor@C_PopupList@@QAEXK@Z		; C_PopupList::SetBarColor
PUBLIC	?SetBgColor@C_PopupList@@QAEXK@Z		; C_PopupList::SetBgColor
PUBLIC	?SetBorderColor@C_PopupList@@QAEXK@Z		; C_PopupList::SetBorderColor
PUBLIC	?SetOpaque@C_PopupList@@QAEXJ@Z			; C_PopupList::SetOpaque
PUBLIC	?Cleanup@C_PopupList@@UAEXXZ			; C_PopupList::Cleanup
PUBLIC	?SetDefaultFlags@C_PopupList@@QAEXXZ		; C_PopupList::SetDefaultFlags
PUBLIC	?ClearRadioGroup@C_PopupList@@QAEXJ@Z		; C_PopupList::ClearRadioGroup
PUBLIC	?SetItemState@C_PopupList@@QAEXJF@Z		; C_PopupList::SetItemState
PUBLIC	?GetItemState@C_PopupList@@QAEFJ@Z		; C_PopupList::GetItemState
PUBLIC	?SetItemGroup@C_PopupList@@QAEXJJ@Z		; C_PopupList::SetItemGroup
PUBLIC	?GetItemGroup@C_PopupList@@QAEJJ@Z		; C_PopupList::GetItemGroup
PUBLIC	?SetItemLabel@C_PopupList@@QAEXJPAD@Z		; C_PopupList::SetItemLabel
PUBLIC	?SetItemLabel@C_PopupList@@QAEXJJ@Z		; C_PopupList::SetItemLabel
PUBLIC	?GetItemLabel@C_PopupList@@QAEPADJ@Z		; C_PopupList::GetItemLabel
PUBLIC	?GetFont@C_PopupList@@UAEJXZ			; C_PopupList::GetFont
PUBLIC	?GetWindowSize@C_PopupList@@QAEXPAF0@Z		; C_PopupList::GetWindowSize
PUBLIC	?CloseSubMenus@C_PopupList@@QAEXXZ		; C_PopupList::CloseSubMenus
PUBLIC	?OpenWindow@C_PopupList@@QAEHFFF@Z		; C_PopupList::OpenWindow
PUBLIC	?CloseWindow@C_PopupList@@UAEHXZ		; C_PopupList::CloseWindow
PUBLIC	?CheckHotSpots@C_PopupList@@UAEJJJ@Z		; C_PopupList::CheckHotSpots
PUBLIC	?Process@C_PopupList@@UAEHJF@Z			; C_PopupList::Process
PUBLIC	?Dragable@C_PopupList@@UAEHJ@Z			; C_PopupList::Dragable
PUBLIC	?Refresh@C_PopupList@@UAEXXZ			; C_PopupList::Refresh
PUBLIC	?Draw@C_PopupList@@UAEXPAVSCREEN@@PAUUI95_RECT@@@Z ; C_PopupList::Draw
PUBLIC	?MouseOver@C_PopupList@@UAEHJJPAVC_Base@@@Z	; C_PopupList::MouseOver
PUBLIC	?LocalFind@C_PopupList@@UAEFPAD@Z		; C_PopupList::LocalFind
PUBLIC	?LocalFunction@C_PopupList@@UAEXFQAJPADPAVC_Handler@@@Z ; C_PopupList::LocalFunction
PUBLIC	?SaveText@C_PopupList@@UAEXPAXPAVC_Parser@@@Z	; C_PopupList::SaveText
PUBLIC	??_GC_PopupList@@UAEPAXI@Z			; C_PopupList::`scalar deleting destructor'
PUBLIC	?SetColor@C_Fill@@QAEXK@Z			; C_Fill::SetColor
PUBLIC	??1C_Window@@QAE@XZ				; C_Window::~C_Window
PUBLIC	?SetCritical@C_Window@@QAEXPAUF4CSECTIONHANDLE@@@Z ; C_Window::SetCritical
PUBLIC	?SetDepth@C_Window@@QAEXF@Z			; C_Window::SetDepth
PUBLIC	?SetOwner@C_Window@@QAEXPAVC_Base@@@Z		; C_Window::SetOwner
PUBLIC	?GetX@C_Window@@QAEFXZ				; C_Window::GetX
PUBLIC	?GetY@C_Window@@QAEFXZ				; C_Window::GetY
PUBLIC	?GetW@C_Window@@QAEFXZ				; C_Window::GetW
PUBLIC	?GetH@C_Window@@QAEFXZ				; C_Window::GetH
PUBLIC	?SetMenuFlags@C_Window@@QAEXJ@Z			; C_Window::SetMenuFlags
PUBLIC	??_GC_Window@@QAEPAXI@Z				; C_Window::`scalar deleting destructor'
PUBLIC	?GetCritical@C_Handler@@QAEPAUF4CSECTIONHANDLE@@XZ ; C_Handler::GetCritical
PUBLIC	?GetX@C_Handler@@QAEFXZ				; C_Handler::GetX
PUBLIC	?GetW@C_Handler@@QAEJXZ				; C_Handler::GetW
PUBLIC	?GetH@C_Handler@@QAEJXZ				; C_Handler::GetH
PUBLIC	??$construct@PADAAPAD@?$_Wrap_alloc@V?$allocator@D@std@@@std@@QAEXPAPADAAPAD@Z ; std::_Wrap_alloc<std::allocator<char> >::construct<char *,char * &>
PUBLIC	??$destroy@PAD@?$_Wrap_alloc@V?$allocator@D@std@@@std@@QAEXPAPAD@Z ; std::_Wrap_alloc<std::allocator<char> >::destroy<char *>
PUBLIC	??$addressof@D@std@@YAPADAAD@Z			; std::addressof<char>
PUBLIC	??$_Allocate@D@std@@YAPADIPAD@Z			; std::_Allocate<char>
PUBLIC	??$forward@AAPAD@std@@YAAAPADAAPAD@Z		; std::forward<char * &>
PUBLIC	??$construct@PADAAPAD@?$allocator_traits@V?$allocator@D@std@@@std@@SAXAAV?$allocator@D@1@PAPADAAPAD@Z ; std::allocator_traits<std::allocator<char> >::construct<char *,char * &>
PUBLIC	??$destroy@PAD@?$allocator_traits@V?$allocator@D@std@@@std@@SAXAAV?$allocator@D@1@PAPAD@Z ; std::allocator_traits<std::allocator<char> >::destroy<char *>
PUBLIC	??$construct@PADAAPAD@?$allocator@D@std@@QAEXPAPADAAPAD@Z ; std::allocator<char>::construct<char *,char * &>
PUBLIC	??$destroy@PAD@?$allocator@D@std@@QAEXPAPAD@Z	; std::allocator<char>::destroy<char *>
PUBLIC	??_7error_category@std@@6B@			; std::error_category::`vftable'
PUBLIC	??_7_Generic_error_category@std@@6B@		; std::_Generic_error_category::`vftable'
PUBLIC	??_C@_07DCLBNMLN@generic?$AA@			; `string'
PUBLIC	??_C@_0O@BFJCFAAK@unknown?5error?$AA@		; `string'
PUBLIC	??_7_Iostream_error_category@std@@6B@		; std::_Iostream_error_category::`vftable'
PUBLIC	??_C@_08LLGCOLLL@iostream?$AA@			; `string'
PUBLIC	??_C@_0BG@PADBLCHM@iostream?5stream?5error?$AA@	; `string'
PUBLIC	??_7_System_error_category@std@@6B@		; std::_System_error_category::`vftable'
PUBLIC	??_C@_06FHFOAHML@system?$AA@			; `string'
PUBLIC	?_Generic_object@?$_Error_objects@H@std@@2V_Generic_error_category@2@A ; std::_Error_objects<int>::_Generic_object
PUBLIC	?_Iostream_object@?$_Error_objects@H@std@@2V_Iostream_error_category@2@A ; std::_Error_objects<int>::_Iostream_object
PUBLIC	?_System_object@?$_Error_objects@H@std@@2V_System_error_category@2@A ; std::_Error_objects<int>::_System_object
PUBLIC	?id@?$num_put@DV?$back_insert_iterator@V?$basic_string@DU?$char_traits@D@std@@V?$allocator@D@2@@std@@@std@@@std@@2V0locale@2@A ; std::num_put<char,std::back_insert_iterator<std::basic_string<char,std::char_traits<char>,std::allocator<char> > > >::id
PUBLIC	?id@?$num_put@_WV?$back_insert_iterator@V?$basic_string@_WU?$char_traits@_W@std@@V?$allocator@_W@2@@std@@@std@@@std@@2V0locale@2@A ; std::num_put<wchar_t,std::back_insert_iterator<std::basic_string<wchar_t,std::char_traits<wchar_t>,std::allocator<wchar_t> > > >::id
PUBLIC	??_7C_Base@@6B@					; C_Base::`vftable'
PUBLIC	??_7C_Control@@6B@				; C_Control::`vftable'
PUBLIC	??_7C_PopupList@@6B@				; C_PopupList::`vftable'
PUBLIC	?id@?$numpunct@D@std@@2V0locale@2@A		; std::numpunct<char>::id
PUBLIC	?id@?$numpunct@_W@std@@2V0locale@2@A		; std::numpunct<wchar_t>::id
PUBLIC	??_C@_0BI@CFPLBAOH@invalid?5string?5position?$AA@ ; `string'
PUBLIC	??_C@_0BA@JFNIOLAK@string?5too?5long?$AA@	; `string'
PUBLIC	??_R4error_category@std@@6B@			; std::error_category::`RTTI Complete Object Locator'
PUBLIC	??_R0?AVerror_category@std@@@8			; std::error_category `RTTI Type Descriptor'
PUBLIC	??_R3error_category@std@@8			; std::error_category::`RTTI Class Hierarchy Descriptor'
PUBLIC	??_R2error_category@std@@8			; std::error_category::`RTTI Base Class Array'
PUBLIC	??_R1A@?0A@EA@error_category@std@@8		; std::error_category::`RTTI Base Class Descriptor at (0,-1,0,64)'
PUBLIC	??_R4_Generic_error_category@std@@6B@		; std::_Generic_error_category::`RTTI Complete Object Locator'
PUBLIC	??_R0?AV_Generic_error_category@std@@@8		; std::_Generic_error_category `RTTI Type Descriptor'
PUBLIC	??_R3_Generic_error_category@std@@8		; std::_Generic_error_category::`RTTI Class Hierarchy Descriptor'
PUBLIC	??_R2_Generic_error_category@std@@8		; std::_Generic_error_category::`RTTI Base Class Array'
PUBLIC	??_R1A@?0A@EA@_Generic_error_category@std@@8	; std::_Generic_error_category::`RTTI Base Class Descriptor at (0,-1,0,64)'
PUBLIC	??_R4_Iostream_error_category@std@@6B@		; std::_Iostream_error_category::`RTTI Complete Object Locator'
PUBLIC	??_R0?AV_Iostream_error_category@std@@@8	; std::_Iostream_error_category `RTTI Type Descriptor'
PUBLIC	??_R3_Iostream_error_category@std@@8		; std::_Iostream_error_category::`RTTI Class Hierarchy Descriptor'
PUBLIC	??_R2_Iostream_error_category@std@@8		; std::_Iostream_error_category::`RTTI Base Class Array'
PUBLIC	??_R1A@?0A@EA@_Iostream_error_category@std@@8	; std::_Iostream_error_category::`RTTI Base Class Descriptor at (0,-1,0,64)'
PUBLIC	??_R4_System_error_category@std@@6B@		; std::_System_error_category::`RTTI Complete Object Locator'
PUBLIC	??_R0?AV_System_error_category@std@@@8		; std::_System_error_category `RTTI Type Descriptor'
PUBLIC	??_R3_System_error_category@std@@8		; std::_System_error_category::`RTTI Class Hierarchy Descriptor'
PUBLIC	??_R2_System_error_category@std@@8		; std::_System_error_category::`RTTI Base Class Array'
PUBLIC	??_R1A@?0A@EA@_System_error_category@std@@8	; std::_System_error_category::`RTTI Base Class Descriptor at (0,-1,0,64)'
PUBLIC	??_R4C_Base@@6B@				; C_Base::`RTTI Complete Object Locator'
PUBLIC	??_R0?AVC_Base@@@8				; C_Base `RTTI Type Descriptor'
PUBLIC	??_R3C_Base@@8					; C_Base::`RTTI Class Hierarchy Descriptor'
PUBLIC	??_R2C_Base@@8					; C_Base::`RTTI Base Class Array'
PUBLIC	??_R1A@?0A@EA@C_Base@@8				; C_Base::`RTTI Base Class Descriptor at (0,-1,0,64)'
PUBLIC	??_R4C_Control@@6B@				; C_Control::`RTTI Complete Object Locator'
PUBLIC	??_R0?AVC_Control@@@8				; C_Control `RTTI Type Descriptor'
PUBLIC	??_R3C_Control@@8				; C_Control::`RTTI Class Hierarchy Descriptor'
PUBLIC	??_R2C_Control@@8				; C_Control::`RTTI Base Class Array'
PUBLIC	??_R1A@?0A@EA@C_Control@@8			; C_Control::`RTTI Base Class Descriptor at (0,-1,0,64)'
PUBLIC	??_R4C_PopupList@@6B@				; C_PopupList::`RTTI Complete Object Locator'
PUBLIC	??_R0?AVC_PopupList@@@8				; C_PopupList `RTTI Type Descriptor'
PUBLIC	??_R3C_PopupList@@8				; C_PopupList::`RTTI Class Hierarchy Descriptor'
PUBLIC	??_R2C_PopupList@@8				; C_PopupList::`RTTI Base Class Array'
PUBLIC	??_R1A@?0A@EA@C_PopupList@@8			; C_PopupList::`RTTI Base Class Descriptor at (0,-1,0,64)'
EXTRN	??_M@YGXPAXIHP6EX0@Z@Z:PROC			; `eh vector destructor iterator'
EXTRN	__purecall:PROC
EXTRN	??2@YAPAXI@Z:PROC				; operator new
EXTRN	??3@YAXPAX@Z:PROC				; operator delete
EXTRN	_atexit:PROC
EXTRN	_memcpy:PROC
EXTRN	_strlen:PROC
EXTRN	_memmove:PROC
EXTRN	_strnicmp:PROC
EXTRN	??_V@YAXPAX@Z:PROC				; operator delete[]
EXTRN	__imp__SysFreeString@4:PROC
EXTRN	?_Xbad_alloc@std@@YAXXZ:PROC			; std::_Xbad_alloc
EXTRN	?_Xlength_error@std@@YAXPBD@Z:PROC		; std::_Xlength_error
EXTRN	?_Xout_of_range@std@@YAXPBD@Z:PROC		; std::_Xout_of_range
EXTRN	??_Eerror_category@std@@UAEPAXI@Z:PROC		; std::error_category::`vector deleting destructor'
EXTRN	?_Syserror_map@std@@YAPBDH@Z:PROC		; std::_Syserror_map
EXTRN	?_Winerror_map@std@@YAPBDH@Z:PROC		; std::_Winerror_map
EXTRN	??_E_Generic_error_category@std@@UAEPAXI@Z:PROC	; std::_Generic_error_category::`vector deleting destructor'
EXTRN	??_E_Iostream_error_category@std@@UAEPAXI@Z:PROC ; std::_Iostream_error_category::`vector deleting destructor'
EXTRN	??_E_System_error_category@std@@UAEPAXI@Z:PROC	; std::_System_error_category::`vector deleting destructor'
EXTRN	??1C_Hash@@QAE@XZ:PROC				; C_Hash::~C_Hash
EXTRN	?Cleanup@C_Hash@@QAEXXZ:PROC			; C_Hash::Cleanup
EXTRN	?GetHeight@C_Font@@QAEHJ@Z:PROC			; C_Font::GetHeight
EXTRN	?StrWidth@C_Font@@QAEHJPAD@Z:PROC		; C_Font::StrWidth
EXTRN	?PlaySoundA@C_Sound@@QAEHPAVSOUND_RES@@@Z:PROC	; C_Sound::PlaySoundA
EXTRN	?GetString@C_String@@QAEPADJ@Z:PROC		; C_String::GetString
EXTRN	?AddText@C_String@@QAEJPBD@Z:PROC		; C_String::AddText
EXTRN	?GetText@C_String@@QAEPADJ@Z:PROC		; C_String::GetText
EXTRN	?Draw@O_Output@@QAEXPAVSCREEN@@PAUUI95_RECT@@@Z:PROC ; O_Output::Draw
EXTRN	?Cleanup@O_Output@@QAEXXZ:PROC			; O_Output::Cleanup
EXTRN	?SetInfo@O_Output@@QAEXXZ:PROC			; O_Output::SetInfo
EXTRN	?SetText@O_Output@@QAEXPAD@Z:PROC		; O_Output::SetText
EXTRN	?SetImage@O_Output@@QAEXJ@Z:PROC		; O_Output::SetImage
EXTRN	?UI_Enter@@YAPAUF4CSECTIONHANDLE@@PAVC_Window@@@Z:PROC ; UI_Enter
EXTRN	?UI_Leave@@YAXPAUF4CSECTIONHANDLE@@@Z:PROC	; UI_Leave
EXTRN	??_EC_Base@@UAEPAXI@Z:PROC			; C_Base::`vector deleting destructor'
EXTRN	??0C_Control@@QAE@XZ:PROC			; C_Control::C_Control
EXTRN	??0C_Control@@QAE@PAPAD@Z:PROC			; C_Control::C_Control
EXTRN	??0C_Control@@QAE@PAU_iobuf@@@Z:PROC		; C_Control::C_Control
EXTRN	?MouseOver@C_Control@@UAEHJJPAVC_Base@@@Z:PROC	; C_Control::MouseOver
EXTRN	?SetSound@C_Control@@UAEXJF@Z:PROC		; C_Control::SetSound
EXTRN	?HighLite@C_Control@@UAEXPAVSCREEN@@PAUUI95_RECT@@@Z:PROC ; C_Control::HighLite
EXTRN	?GetSound@C_Control@@UAEPAVSOUND_RES@@F@Z:PROC	; C_Control::GetSound
EXTRN	??_EC_Control@@UAEPAXI@Z:PROC			; C_Control::`vector deleting destructor'
EXTRN	??_EC_PopupList@@UAEPAXI@Z:PROC			; C_PopupList::`vector deleting destructor'
EXTRN	??0C_Fill@@QAE@XZ:PROC				; C_Fill::C_Fill
EXTRN	?Setup@C_Fill@@QAEXJF@Z:PROC			; C_Fill::Setup
EXTRN	?SetGradient@C_Fill@@QAEXJJ@Z:PROC		; C_Fill::SetGradient
EXTRN	??0C_Window@@QAE@XZ:PROC			; C_Window::C_Window
EXTRN	?Setup@C_Window@@QAEXJFFF@Z:PROC		; C_Window::Setup
EXTRN	?SetXY@C_Window@@QAEXFF@Z:PROC			; C_Window::SetXY
EXTRN	?SetRanges@C_Window@@QAEXFFFFFF@Z:PROC		; C_Window::SetRanges
EXTRN	?SetFlagBitOn@C_Window@@QAEXJ@Z:PROC		; C_Window::SetFlagBitOn
EXTRN	?AddControl@C_Window@@QAEXPAVC_Base@@@Z:PROC	; C_Window::AddControl
EXTRN	?Cleanup@C_Window@@QAEXXZ:PROC			; C_Window::Cleanup
EXTRN	?ClipToArea@C_Window@@QAEHPAUUI95_RECT@@00@Z:PROC ; C_Window::ClipToArea
EXTRN	?RefreshWindow@C_Window@@QAEXXZ:PROC		; C_Window::RefreshWindow
EXTRN	?BlitFill@C_Window@@QAEXPAVSCREEN@@KPAUUI95_RECT@@JJ@Z:PROC ; C_Window::BlitFill
EXTRN	?DrawHLine@C_Window@@QAEXPAVSCREEN@@KJJJJJPAUUI95_RECT@@@Z:PROC ; C_Window::DrawHLine
EXTRN	?DrawVLine@C_Window@@QAEXPAVSCREEN@@KJJJJJPAUUI95_RECT@@@Z:PROC ; C_Window::DrawVLine
EXTRN	?EnterCritical@C_Handler@@QAEXXZ:PROC		; C_Handler::EnterCritical
EXTRN	?LeaveCritical@C_Handler@@QAEXXZ:PROC		; C_Handler::LeaveCritical
EXTRN	?AddWindow@C_Handler@@QAEHPAVC_Window@@J@Z:PROC	; C_Handler::AddWindow
EXTRN	?RemoveWindow@C_Handler@@QAEHPAVC_Window@@@Z:PROC ; C_Handler::RemoveWindow
EXTRN	@__security_check_cookie@4:PROC
EXTRN	__CxxThrowException@8:PROC
EXTRN	___CxxFrameHandler3:PROC
EXTRN	??_7type_info@@6B@:QWORD			; type_info::`vftable'
EXTRN	?gFontList@@3PAVC_Font@@A:DWORD			; gFontList
EXTRN	?gSoundMgr@@3PAVC_Sound@@A:DWORD		; gSoundMgr
EXTRN	?gStringMgr@@3PAVC_String@@A:DWORD		; gStringMgr
EXTRN	___security_cookie:DWORD
_BSS	SEGMENT
_piecewise_construct DB 01H DUP (?)
_allocator_arg DB 01H DUP (?)
_BSS	ENDS
;	COMDAT ?_Generic_object@?$_Error_objects@H@std@@2V_Generic_error_category@2@A
_BSS	SEGMENT
?_Generic_object@?$_Error_objects@H@std@@2V_Generic_error_category@2@A DD 01H DUP (?) ; std::_Error_objects<int>::_Generic_object
_BSS	ENDS
;	COMDAT ?_Iostream_object@?$_Error_objects@H@std@@2V_Iostream_error_category@2@A
_BSS	SEGMENT
?_Iostream_object@?$_Error_objects@H@std@@2V_Iostream_error_category@2@A DD 01H DUP (?) ; std::_Error_objects<int>::_Iostream_object
_BSS	ENDS
;	COMDAT ?_System_object@?$_Error_objects@H@std@@2V_System_error_category@2@A
_BSS	SEGMENT
?_System_object@?$_Error_objects@H@std@@2V_System_error_category@2@A DD 01H DUP (?) ; std::_Error_objects<int>::_System_object
_BSS	ENDS
;	COMDAT ?id@?$num_put@DV?$back_insert_iterator@V?$basic_string@DU?$char_traits@D@std@@V?$allocator@D@2@@std@@@std@@@std@@2V0locale@2@A
_BSS	SEGMENT
?id@?$num_put@DV?$back_insert_iterator@V?$basic_string@DU?$char_traits@D@std@@V?$allocator@D@2@@std@@@std@@@std@@2V0locale@2@A DD 01H DUP (?) ; std::num_put<char,std::back_insert_iterator<std::basic_string<char,std::char_traits<char>,std::allocator<char> > > >::id
_BSS	ENDS
;	COMDAT ?id@?$num_put@_WV?$back_insert_iterator@V?$basic_string@_WU?$char_traits@_W@std@@V?$allocator@_W@2@@std@@@std@@@std@@2V0locale@2@A
_BSS	SEGMENT
?id@?$num_put@_WV?$back_insert_iterator@V?$basic_string@_WU?$char_traits@_W@std@@V?$allocator@_W@2@@std@@@std@@@std@@2V0locale@2@A DD 01H DUP (?) ; std::num_put<wchar_t,std::back_insert_iterator<std::basic_string<wchar_t,std::char_traits<wchar_t>,std::allocator<wchar_t> > > >::id
_BSS	ENDS
;	COMDAT ?id@?$numpunct@D@std@@2V0locale@2@A
_BSS	SEGMENT
?id@?$numpunct@D@std@@2V0locale@2@A DD 01H DUP (?)	; std::numpunct<char>::id
_BSS	ENDS
;	COMDAT ?id@?$numpunct@_W@std@@2V0locale@2@A
_BSS	SEGMENT
?id@?$numpunct@_W@std@@2V0locale@2@A DD 01H DUP (?)	; std::numpunct<wchar_t>::id
_BSS	ENDS
CRT$XCU	SEGMENT
_piecewise_construct$initializer$ DD FLAT:??__Epiecewise_construct@std@@YAXXZ
CRT$XCU	ENDS
;	COMDAT ??_R1A@?0A@EA@C_PopupList@@8
rdata$r	SEGMENT
??_R1A@?0A@EA@C_PopupList@@8 DD FLAT:??_R0?AVC_PopupList@@@8 ; C_PopupList::`RTTI Base Class Descriptor at (0,-1,0,64)'
	DD	02H
	DD	00H
	DD	0ffffffffH
	DD	00H
	DD	040H
	DD	FLAT:??_R3C_PopupList@@8
rdata$r	ENDS
;	COMDAT ??_R2C_PopupList@@8
rdata$r	SEGMENT
??_R2C_PopupList@@8 DD FLAT:??_R1A@?0A@EA@C_PopupList@@8 ; C_PopupList::`RTTI Base Class Array'
	DD	FLAT:??_R1A@?0A@EA@C_Control@@8
	DD	FLAT:??_R1A@?0A@EA@C_Base@@8
rdata$r	ENDS
;	COMDAT ??_R3C_PopupList@@8
rdata$r	SEGMENT
??_R3C_PopupList@@8 DD 00H				; C_PopupList::`RTTI Class Hierarchy Descriptor'
	DD	00H
	DD	03H
	DD	FLAT:??_R2C_PopupList@@8
rdata$r	ENDS
;	COMDAT ??_R0?AVC_PopupList@@@8
_DATA	SEGMENT
??_R0?AVC_PopupList@@@8 DD FLAT:??_7type_info@@6B@	; C_PopupList `RTTI Type Descriptor'
	DD	00H
	DB	'.?AVC_PopupList@@', 00H
_DATA	ENDS
;	COMDAT ??_R4C_PopupList@@6B@
rdata$r	SEGMENT
??_R4C_PopupList@@6B@ DD 00H				; C_PopupList::`RTTI Complete Object Locator'
	DD	00H
	DD	00H
	DD	FLAT:??_R0?AVC_PopupList@@@8
	DD	FLAT:??_R3C_PopupList@@8
rdata$r	ENDS
;	COMDAT ??_R1A@?0A@EA@C_Control@@8
rdata$r	SEGMENT
??_R1A@?0A@EA@C_Control@@8 DD FLAT:??_R0?AVC_Control@@@8 ; C_Control::`RTTI Base Class Descriptor at (0,-1,0,64)'
	DD	01H
	DD	00H
	DD	0ffffffffH
	DD	00H
	DD	040H
	DD	FLAT:??_R3C_Control@@8
rdata$r	ENDS
;	COMDAT ??_R2C_Control@@8
rdata$r	SEGMENT
??_R2C_Control@@8 DD FLAT:??_R1A@?0A@EA@C_Control@@8	; C_Control::`RTTI Base Class Array'
	DD	FLAT:??_R1A@?0A@EA@C_Base@@8
rdata$r	ENDS
;	COMDAT ??_R3C_Control@@8
rdata$r	SEGMENT
??_R3C_Control@@8 DD 00H				; C_Control::`RTTI Class Hierarchy Descriptor'
	DD	00H
	DD	02H
	DD	FLAT:??_R2C_Control@@8
rdata$r	ENDS
;	COMDAT ??_R0?AVC_Control@@@8
_DATA	SEGMENT
??_R0?AVC_Control@@@8 DD FLAT:??_7type_info@@6B@	; C_Control `RTTI Type Descriptor'
	DD	00H
	DB	'.?AVC_Control@@', 00H
_DATA	ENDS
;	COMDAT ??_R4C_Control@@6B@
rdata$r	SEGMENT
??_R4C_Control@@6B@ DD 00H				; C_Control::`RTTI Complete Object Locator'
	DD	00H
	DD	00H
	DD	FLAT:??_R0?AVC_Control@@@8
	DD	FLAT:??_R3C_Control@@8
rdata$r	ENDS
;	COMDAT ??_R1A@?0A@EA@C_Base@@8
rdata$r	SEGMENT
??_R1A@?0A@EA@C_Base@@8 DD FLAT:??_R0?AVC_Base@@@8	; C_Base::`RTTI Base Class Descriptor at (0,-1,0,64)'
	DD	00H
	DD	00H
	DD	0ffffffffH
	DD	00H
	DD	040H
	DD	FLAT:??_R3C_Base@@8
rdata$r	ENDS
;	COMDAT ??_R2C_Base@@8
rdata$r	SEGMENT
??_R2C_Base@@8 DD FLAT:??_R1A@?0A@EA@C_Base@@8		; C_Base::`RTTI Base Class Array'
rdata$r	ENDS
;	COMDAT ??_R3C_Base@@8
rdata$r	SEGMENT
??_R3C_Base@@8 DD 00H					; C_Base::`RTTI Class Hierarchy Descriptor'
	DD	00H
	DD	01H
	DD	FLAT:??_R2C_Base@@8
rdata$r	ENDS
;	COMDAT ??_R0?AVC_Base@@@8
_DATA	SEGMENT
??_R0?AVC_Base@@@8 DD FLAT:??_7type_info@@6B@		; C_Base `RTTI Type Descriptor'
	DD	00H
	DB	'.?AVC_Base@@', 00H
_DATA	ENDS
;	COMDAT ??_R4C_Base@@6B@
rdata$r	SEGMENT
??_R4C_Base@@6B@ DD 00H					; C_Base::`RTTI Complete Object Locator'
	DD	00H
	DD	00H
	DD	FLAT:??_R0?AVC_Base@@@8
	DD	FLAT:??_R3C_Base@@8
rdata$r	ENDS
;	COMDAT ??_R1A@?0A@EA@_System_error_category@std@@8
rdata$r	SEGMENT
??_R1A@?0A@EA@_System_error_category@std@@8 DD FLAT:??_R0?AV_System_error_category@std@@@8 ; std::_System_error_category::`RTTI Base Class Descriptor at (0,-1,0,64)'
	DD	02H
	DD	00H
	DD	0ffffffffH
	DD	00H
	DD	040H
	DD	FLAT:??_R3_System_error_category@std@@8
rdata$r	ENDS
;	COMDAT ??_R2_System_error_category@std@@8
rdata$r	SEGMENT
??_R2_System_error_category@std@@8 DD FLAT:??_R1A@?0A@EA@_System_error_category@std@@8 ; std::_System_error_category::`RTTI Base Class Array'
	DD	FLAT:??_R1A@?0A@EA@_Generic_error_category@std@@8
	DD	FLAT:??_R1A@?0A@EA@error_category@std@@8
rdata$r	ENDS
;	COMDAT ??_R3_System_error_category@std@@8
rdata$r	SEGMENT
??_R3_System_error_category@std@@8 DD 00H		; std::_System_error_category::`RTTI Class Hierarchy Descriptor'
	DD	00H
	DD	03H
	DD	FLAT:??_R2_System_error_category@std@@8
rdata$r	ENDS
;	COMDAT ??_R0?AV_System_error_category@std@@@8
_DATA	SEGMENT
??_R0?AV_System_error_category@std@@@8 DD FLAT:??_7type_info@@6B@ ; std::_System_error_category `RTTI Type Descriptor'
	DD	00H
	DB	'.?AV_System_error_category@std@@', 00H
_DATA	ENDS
;	COMDAT ??_R4_System_error_category@std@@6B@
rdata$r	SEGMENT
??_R4_System_error_category@std@@6B@ DD 00H		; std::_System_error_category::`RTTI Complete Object Locator'
	DD	00H
	DD	00H
	DD	FLAT:??_R0?AV_System_error_category@std@@@8
	DD	FLAT:??_R3_System_error_category@std@@8
rdata$r	ENDS
;	COMDAT ??_R1A@?0A@EA@_Iostream_error_category@std@@8
rdata$r	SEGMENT
??_R1A@?0A@EA@_Iostream_error_category@std@@8 DD FLAT:??_R0?AV_Iostream_error_category@std@@@8 ; std::_Iostream_error_category::`RTTI Base Class Descriptor at (0,-1,0,64)'
	DD	02H
	DD	00H
	DD	0ffffffffH
	DD	00H
	DD	040H
	DD	FLAT:??_R3_Iostream_error_category@std@@8
rdata$r	ENDS
;	COMDAT ??_R2_Iostream_error_category@std@@8
rdata$r	SEGMENT
??_R2_Iostream_error_category@std@@8 DD FLAT:??_R1A@?0A@EA@_Iostream_error_category@std@@8 ; std::_Iostream_error_category::`RTTI Base Class Array'
	DD	FLAT:??_R1A@?0A@EA@_Generic_error_category@std@@8
	DD	FLAT:??_R1A@?0A@EA@error_category@std@@8
rdata$r	ENDS
;	COMDAT ??_R3_Iostream_error_category@std@@8
rdata$r	SEGMENT
??_R3_Iostream_error_category@std@@8 DD 00H		; std::_Iostream_error_category::`RTTI Class Hierarchy Descriptor'
	DD	00H
	DD	03H
	DD	FLAT:??_R2_Iostream_error_category@std@@8
rdata$r	ENDS
;	COMDAT ??_R0?AV_Iostream_error_category@std@@@8
_DATA	SEGMENT
??_R0?AV_Iostream_error_category@std@@@8 DD FLAT:??_7type_info@@6B@ ; std::_Iostream_error_category `RTTI Type Descriptor'
	DD	00H
	DB	'.?AV_Iostream_error_category@std@@', 00H
_DATA	ENDS
;	COMDAT ??_R4_Iostream_error_category@std@@6B@
rdata$r	SEGMENT
??_R4_Iostream_error_category@std@@6B@ DD 00H		; std::_Iostream_error_category::`RTTI Complete Object Locator'
	DD	00H
	DD	00H
	DD	FLAT:??_R0?AV_Iostream_error_category@std@@@8
	DD	FLAT:??_R3_Iostream_error_category@std@@8
rdata$r	ENDS
;	COMDAT ??_R1A@?0A@EA@_Generic_error_category@std@@8
rdata$r	SEGMENT
??_R1A@?0A@EA@_Generic_error_category@std@@8 DD FLAT:??_R0?AV_Generic_error_category@std@@@8 ; std::_Generic_error_category::`RTTI Base Class Descriptor at (0,-1,0,64)'
	DD	01H
	DD	00H
	DD	0ffffffffH
	DD	00H
	DD	040H
	DD	FLAT:??_R3_Generic_error_category@std@@8
rdata$r	ENDS
;	COMDAT ??_R2_Generic_error_category@std@@8
rdata$r	SEGMENT
??_R2_Generic_error_category@std@@8 DD FLAT:??_R1A@?0A@EA@_Generic_error_category@std@@8 ; std::_Generic_error_category::`RTTI Base Class Array'
	DD	FLAT:??_R1A@?0A@EA@error_category@std@@8
rdata$r	ENDS
;	COMDAT ??_R3_Generic_error_category@std@@8
rdata$r	SEGMENT
??_R3_Generic_error_category@std@@8 DD 00H		; std::_Generic_error_category::`RTTI Class Hierarchy Descriptor'
	DD	00H
	DD	02H
	DD	FLAT:??_R2_Generic_error_category@std@@8
rdata$r	ENDS
;	COMDAT ??_R0?AV_Generic_error_category@std@@@8
_DATA	SEGMENT
??_R0?AV_Generic_error_category@std@@@8 DD FLAT:??_7type_info@@6B@ ; std::_Generic_error_category `RTTI Type Descriptor'
	DD	00H
	DB	'.?AV_Generic_error_category@std@@', 00H
_DATA	ENDS
;	COMDAT ??_R4_Generic_error_category@std@@6B@
rdata$r	SEGMENT
??_R4_Generic_error_category@std@@6B@ DD 00H		; std::_Generic_error_category::`RTTI Complete Object Locator'
	DD	00H
	DD	00H
	DD	FLAT:??_R0?AV_Generic_error_category@std@@@8
	DD	FLAT:??_R3_Generic_error_category@std@@8
rdata$r	ENDS
;	COMDAT ??_R1A@?0A@EA@error_category@std@@8
rdata$r	SEGMENT
??_R1A@?0A@EA@error_category@std@@8 DD FLAT:??_R0?AVerror_category@std@@@8 ; std::error_category::`RTTI Base Class Descriptor at (0,-1,0,64)'
	DD	00H
	DD	00H
	DD	0ffffffffH
	DD	00H
	DD	040H
	DD	FLAT:??_R3error_category@std@@8
rdata$r	ENDS
;	COMDAT ??_R2error_category@std@@8
rdata$r	SEGMENT
??_R2error_category@std@@8 DD FLAT:??_R1A@?0A@EA@error_category@std@@8 ; std::error_category::`RTTI Base Class Array'
rdata$r	ENDS
;	COMDAT ??_R3error_category@std@@8
rdata$r	SEGMENT
??_R3error_category@std@@8 DD 00H			; std::error_category::`RTTI Class Hierarchy Descriptor'
	DD	00H
	DD	01H
	DD	FLAT:??_R2error_category@std@@8
rdata$r	ENDS
;	COMDAT ??_R0?AVerror_category@std@@@8
_DATA	SEGMENT
??_R0?AVerror_category@std@@@8 DD FLAT:??_7type_info@@6B@ ; std::error_category `RTTI Type Descriptor'
	DD	00H
	DB	'.?AVerror_category@std@@', 00H
_DATA	ENDS
;	COMDAT ??_R4error_category@std@@6B@
rdata$r	SEGMENT
??_R4error_category@std@@6B@ DD 00H			; std::error_category::`RTTI Complete Object Locator'
	DD	00H
	DD	00H
	DD	FLAT:??_R0?AVerror_category@std@@@8
	DD	FLAT:??_R3error_category@std@@8
rdata$r	ENDS
;	COMDAT ??_C@_0BA@JFNIOLAK@string?5too?5long?$AA@
CONST	SEGMENT
??_C@_0BA@JFNIOLAK@string?5too?5long?$AA@ DB 'string too long', 00H ; `string'
CONST	ENDS
;	COMDAT ??_C@_0BI@CFPLBAOH@invalid?5string?5position?$AA@
CONST	SEGMENT
??_C@_0BI@CFPLBAOH@invalid?5string?5position?$AA@ DB 'invalid string posi'
	DB	'tion', 00H					; `string'
CONST	ENDS
;	COMDAT ??_7C_PopupList@@6B@
CONST	SEGMENT
??_7C_PopupList@@6B@ DD FLAT:??_R4C_PopupList@@6B@	; C_PopupList::`vftable'
	DD	FLAT:??_EC_PopupList@@UAEPAXI@Z
	DD	FLAT:?SetFlags@C_PopupList@@UAEXJ@Z
	DD	FLAT:?SetFlagBitOn@C_Base@@UAEXJ@Z
	DD	FLAT:?SetFlagBitOff@C_Base@@UAEXJ@Z
	DD	FLAT:?SetX@C_Base@@UAEXJ@Z
	DD	FLAT:?SetY@C_Base@@UAEXJ@Z
	DD	FLAT:?SetW@C_Base@@UAEXJ@Z
	DD	FLAT:?SetH@C_Base@@UAEXJ@Z
	DD	FLAT:?SetXY@C_Base@@UAEXJJ@Z
	DD	FLAT:?SetWH@C_Base@@UAEXJJ@Z
	DD	FLAT:?SetXYWH@C_Base@@UAEXJJJJ@Z
	DD	FLAT:?SetRelX@C_Control@@UAEXJ@Z
	DD	FLAT:?SetRelY@C_Control@@UAEXJ@Z
	DD	FLAT:?SetRelXY@C_Control@@UAEXJJ@Z
	DD	FLAT:?SetState@C_Base@@UAEXF@Z
	DD	FLAT:?SetHotKey@C_Control@@UAEXF@Z
	DD	FLAT:?SetMenu@C_Control@@UAEXJ@Z
	DD	FLAT:?SetFont@C_PopupList@@UAEXJ@Z
	DD	FLAT:?SetSound@C_Control@@UAEXJF@Z
	DD	FLAT:?SetCursorID@C_Control@@UAEXJ@Z
	DD	FLAT:?SetDragCursorID@C_Control@@UAEXJ@Z
	DD	FLAT:?SetHelpText@C_Control@@UAEXJ@Z
	DD	FLAT:?SetMouseOver@C_Control@@UAEXF@Z
	DD	FLAT:?SetMouseOverColor@C_Control@@UAEXK@Z
	DD	FLAT:?SetMouseOverPerc@C_Control@@UAEXF@Z
	DD	FLAT:?SetCallback@C_Control@@UAEXP6AXJFPAVC_Base@@@Z@Z
	DD	FLAT:?GetRelX@C_Control@@UAEJXZ
	DD	FLAT:?GetRelY@C_Control@@UAEJXZ
	DD	FLAT:?GetState@C_Base@@UAEFXZ
	DD	FLAT:?GetHotKey@C_Control@@UAEFXZ
	DD	FLAT:?GetMenu@C_Control@@UAEJXZ
	DD	FLAT:?GetFont@C_PopupList@@UAEJXZ
	DD	FLAT:?GetHelpText@C_Control@@UAEJXZ
	DD	FLAT:?GetSound@C_Control@@UAEPAVSOUND_RES@@F@Z
	DD	FLAT:?GetMouseOver@C_Control@@UAEFXZ
	DD	FLAT:?GetCursorID@C_Control@@UAEJXZ
	DD	FLAT:?GetDragCursorID@C_Control@@UAEJXZ
	DD	FLAT:?GetCallback@C_Control@@UAEP6AXJFPAVC_Base@@@ZXZ
	DD	FLAT:?IsBase@C_Control@@UAEHXZ
	DD	FLAT:?IsControl@C_Control@@UAEHXZ
	DD	FLAT:?Refresh@C_PopupList@@UAEXXZ
	DD	FLAT:?Draw@C_PopupList@@UAEXPAVSCREEN@@PAUUI95_RECT@@@Z
	DD	FLAT:?HighLite@C_Control@@UAEXPAVSCREEN@@PAUUI95_RECT@@@Z
	DD	FLAT:?SetSubParents@C_Base@@UAEXPAVC_Window@@@Z
	DD	FLAT:?Cleanup@C_PopupList@@UAEXXZ
	DD	FLAT:?TimerUpdate@C_Base@@UAEHXZ
	DD	FLAT:?Activate@C_Base@@UAEXXZ
	DD	FLAT:?Deactivate@C_Base@@UAEXXZ
	DD	FLAT:?CheckHotSpots@C_PopupList@@UAEJJJ@Z
	DD	FLAT:?CheckKeyboard@C_Base@@UAEHEEEJ@Z
	DD	FLAT:?Process@C_PopupList@@UAEHJF@Z
	DD	FLAT:?CloseWindow@C_PopupList@@UAEHXZ
	DD	FLAT:?MouseOver@C_PopupList@@UAEHJJPAVC_Base@@@Z
	DD	FLAT:?GetMe@C_Base@@UAEPAV1@XZ
	DD	FLAT:?Dragable@C_PopupList@@UAEHJ@Z
	DD	FLAT:?GetItemXY@C_Base@@UAEXJPAJ0@Z
	DD	FLAT:?Drag@C_Base@@UAEHPAUGRABBER@@GGPAVC_Window@@@Z
	DD	FLAT:?Drop@C_Base@@UAEHPAUGRABBER@@GGPAVC_Window@@@Z
	DD	FLAT:?Wheel@C_Base@@UAEHHGG@Z
	DD	FLAT:?LocalFind@C_PopupList@@UAEFPAD@Z
	DD	FLAT:?LocalFunction@C_PopupList@@UAEXFQAJPADPAVC_Handler@@@Z
	DD	FLAT:?SaveText@C_PopupList@@UAEXPAXPAVC_Parser@@@Z
CONST	ENDS
;	COMDAT ??_7C_Control@@6B@
CONST	SEGMENT
??_7C_Control@@6B@ DD FLAT:??_R4C_Control@@6B@		; C_Control::`vftable'
	DD	FLAT:??_EC_Control@@UAEPAXI@Z
	DD	FLAT:?SetFlags@C_Base@@UAEXJ@Z
	DD	FLAT:?SetFlagBitOn@C_Base@@UAEXJ@Z
	DD	FLAT:?SetFlagBitOff@C_Base@@UAEXJ@Z
	DD	FLAT:?SetX@C_Base@@UAEXJ@Z
	DD	FLAT:?SetY@C_Base@@UAEXJ@Z
	DD	FLAT:?SetW@C_Base@@UAEXJ@Z
	DD	FLAT:?SetH@C_Base@@UAEXJ@Z
	DD	FLAT:?SetXY@C_Base@@UAEXJJ@Z
	DD	FLAT:?SetWH@C_Base@@UAEXJJ@Z
	DD	FLAT:?SetXYWH@C_Base@@UAEXJJJJ@Z
	DD	FLAT:?SetRelX@C_Control@@UAEXJ@Z
	DD	FLAT:?SetRelY@C_Control@@UAEXJ@Z
	DD	FLAT:?SetRelXY@C_Control@@UAEXJJ@Z
	DD	FLAT:?SetState@C_Base@@UAEXF@Z
	DD	FLAT:?SetHotKey@C_Control@@UAEXF@Z
	DD	FLAT:?SetMenu@C_Control@@UAEXJ@Z
	DD	FLAT:?SetFont@C_Base@@UAEXJ@Z
	DD	FLAT:?SetSound@C_Control@@UAEXJF@Z
	DD	FLAT:?SetCursorID@C_Control@@UAEXJ@Z
	DD	FLAT:?SetDragCursorID@C_Control@@UAEXJ@Z
	DD	FLAT:?SetHelpText@C_Control@@UAEXJ@Z
	DD	FLAT:?SetMouseOver@C_Control@@UAEXF@Z
	DD	FLAT:?SetMouseOverColor@C_Control@@UAEXK@Z
	DD	FLAT:?SetMouseOverPerc@C_Control@@UAEXF@Z
	DD	FLAT:?SetCallback@C_Control@@UAEXP6AXJFPAVC_Base@@@Z@Z
	DD	FLAT:?GetRelX@C_Control@@UAEJXZ
	DD	FLAT:?GetRelY@C_Control@@UAEJXZ
	DD	FLAT:?GetState@C_Base@@UAEFXZ
	DD	FLAT:?GetHotKey@C_Control@@UAEFXZ
	DD	FLAT:?GetMenu@C_Control@@UAEJXZ
	DD	FLAT:?GetFont@C_Base@@UAEJXZ
	DD	FLAT:?GetHelpText@C_Control@@UAEJXZ
	DD	FLAT:?GetSound@C_Control@@UAEPAVSOUND_RES@@F@Z
	DD	FLAT:?GetMouseOver@C_Control@@UAEFXZ
	DD	FLAT:?GetCursorID@C_Control@@UAEJXZ
	DD	FLAT:?GetDragCursorID@C_Control@@UAEJXZ
	DD	FLAT:?GetCallback@C_Control@@UAEP6AXJFPAVC_Base@@@ZXZ
	DD	FLAT:?IsBase@C_Control@@UAEHXZ
	DD	FLAT:?IsControl@C_Control@@UAEHXZ
	DD	FLAT:?Refresh@C_Base@@UAEXXZ
	DD	FLAT:?Draw@C_Base@@UAEXPAVSCREEN@@PAUUI95_RECT@@@Z
	DD	FLAT:?HighLite@C_Control@@UAEXPAVSCREEN@@PAUUI95_RECT@@@Z
	DD	FLAT:?SetSubParents@C_Base@@UAEXPAVC_Window@@@Z
	DD	FLAT:?Cleanup@C_Base@@UAEXXZ
	DD	FLAT:?TimerUpdate@C_Base@@UAEHXZ
	DD	FLAT:?Activate@C_Base@@UAEXXZ
	DD	FLAT:?Deactivate@C_Base@@UAEXXZ
	DD	FLAT:?CheckHotSpots@C_Base@@UAEJJJ@Z
	DD	FLAT:?CheckKeyboard@C_Base@@UAEHEEEJ@Z
	DD	FLAT:?Process@C_Base@@UAEHJF@Z
	DD	FLAT:?CloseWindow@C_Base@@UAEHXZ
	DD	FLAT:?MouseOver@C_Control@@UAEHJJPAVC_Base@@@Z
	DD	FLAT:?GetMe@C_Base@@UAEPAV1@XZ
	DD	FLAT:?Dragable@C_Base@@UAEHJ@Z
	DD	FLAT:?GetItemXY@C_Base@@UAEXJPAJ0@Z
	DD	FLAT:?Drag@C_Base@@UAEHPAUGRABBER@@GGPAVC_Window@@@Z
	DD	FLAT:?Drop@C_Base@@UAEHPAUGRABBER@@GGPAVC_Window@@@Z
	DD	FLAT:?Wheel@C_Base@@UAEHHGG@Z
	DD	FLAT:?LocalFind@C_Base@@UAEFPAD@Z
	DD	FLAT:?LocalFunction@C_Base@@UAEXFQAJPADPAVC_Handler@@@Z
	DD	FLAT:?SaveText@C_Base@@UAEXPAXPAVC_Parser@@@Z
CONST	ENDS
;	COMDAT ??_7C_Base@@6B@
CONST	SEGMENT
??_7C_Base@@6B@ DD FLAT:??_R4C_Base@@6B@		; C_Base::`vftable'
	DD	FLAT:??_EC_Base@@UAEPAXI@Z
	DD	FLAT:?SetFlags@C_Base@@UAEXJ@Z
	DD	FLAT:?SetFlagBitOn@C_Base@@UAEXJ@Z
	DD	FLAT:?SetFlagBitOff@C_Base@@UAEXJ@Z
	DD	FLAT:?SetX@C_Base@@UAEXJ@Z
	DD	FLAT:?SetY@C_Base@@UAEXJ@Z
	DD	FLAT:?SetW@C_Base@@UAEXJ@Z
	DD	FLAT:?SetH@C_Base@@UAEXJ@Z
	DD	FLAT:?SetXY@C_Base@@UAEXJJ@Z
	DD	FLAT:?SetWH@C_Base@@UAEXJJ@Z
	DD	FLAT:?SetXYWH@C_Base@@UAEXJJJJ@Z
	DD	FLAT:?SetRelX@C_Base@@UAEXJ@Z
	DD	FLAT:?SetRelY@C_Base@@UAEXJ@Z
	DD	FLAT:?SetRelXY@C_Base@@UAEXJJ@Z
	DD	FLAT:?SetState@C_Base@@UAEXF@Z
	DD	FLAT:?SetHotKey@C_Base@@UAEXF@Z
	DD	FLAT:?SetMenu@C_Base@@UAEXJ@Z
	DD	FLAT:?SetFont@C_Base@@UAEXJ@Z
	DD	FLAT:?SetSound@C_Base@@UAEXJF@Z
	DD	FLAT:?SetCursorID@C_Base@@UAEXJ@Z
	DD	FLAT:?SetDragCursorID@C_Base@@UAEXJ@Z
	DD	FLAT:?SetHelpText@C_Base@@UAEXJ@Z
	DD	FLAT:?SetMouseOver@C_Base@@UAEXF@Z
	DD	FLAT:?SetMouseOverColor@C_Base@@UAEXK@Z
	DD	FLAT:?SetMouseOverPerc@C_Base@@UAEXF@Z
	DD	FLAT:?SetCallback@C_Base@@UAEXP6AXJFPAV1@@Z@Z
	DD	FLAT:?GetRelX@C_Base@@UAEJXZ
	DD	FLAT:?GetRelY@C_Base@@UAEJXZ
	DD	FLAT:?GetState@C_Base@@UAEFXZ
	DD	FLAT:?GetHotKey@C_Base@@UAEFXZ
	DD	FLAT:?GetMenu@C_Base@@UAEJXZ
	DD	FLAT:?GetFont@C_Base@@UAEJXZ
	DD	FLAT:?GetHelpText@C_Base@@UAEJXZ
	DD	FLAT:?GetSound@C_Base@@UAEPAVSOUND_RES@@F@Z
	DD	FLAT:?GetMouseOver@C_Base@@UAEFXZ
	DD	FLAT:?GetCursorID@C_Base@@UAEJXZ
	DD	FLAT:?GetDragCursorID@C_Base@@UAEJXZ
	DD	FLAT:?GetCallback@C_Base@@UAEP6AXJFPAV1@@ZXZ
	DD	FLAT:?IsBase@C_Base@@UAEHXZ
	DD	FLAT:?IsControl@C_Base@@UAEHXZ
	DD	FLAT:?Refresh@C_Base@@UAEXXZ
	DD	FLAT:?Draw@C_Base@@UAEXPAVSCREEN@@PAUUI95_RECT@@@Z
	DD	FLAT:?HighLite@C_Base@@UAEXPAVSCREEN@@PAUUI95_RECT@@@Z
	DD	FLAT:?SetSubParents@C_Base@@UAEXPAVC_Window@@@Z
	DD	FLAT:?Cleanup@C_Base@@UAEXXZ
	DD	FLAT:?TimerUpdate@C_Base@@UAEHXZ
	DD	FLAT:?Activate@C_Base@@UAEXXZ
	DD	FLAT:?Deactivate@C_Base@@UAEXXZ
	DD	FLAT:?CheckHotSpots@C_Base@@UAEJJJ@Z
	DD	FLAT:?CheckKeyboard@C_Base@@UAEHEEEJ@Z
	DD	FLAT:?Process@C_Base@@UAEHJF@Z
	DD	FLAT:?CloseWindow@C_Base@@UAEHXZ
	DD	FLAT:?MouseOver@C_Base@@UAEHJJPAV1@@Z
	DD	FLAT:?GetMe@C_Base@@UAEPAV1@XZ
	DD	FLAT:?Dragable@C_Base@@UAEHJ@Z
	DD	FLAT:?GetItemXY@C_Base@@UAEXJPAJ0@Z
	DD	FLAT:?Drag@C_Base@@UAEHPAUGRABBER@@GGPAVC_Window@@@Z
	DD	FLAT:?Drop@C_Base@@UAEHPAUGRABBER@@GGPAVC_Window@@@Z
	DD	FLAT:?Wheel@C_Base@@UAEHHGG@Z
	DD	FLAT:?LocalFind@C_Base@@UAEFPAD@Z
	DD	FLAT:?LocalFunction@C_Base@@UAEXFQAJPADPAVC_Handler@@@Z
	DD	FLAT:?SaveText@C_Base@@UAEXPAXPAVC_Parser@@@Z
CONST	ENDS
;	COMDAT ??_C@_06FHFOAHML@system?$AA@
CONST	SEGMENT
??_C@_06FHFOAHML@system?$AA@ DB 'system', 00H		; `string'
CONST	ENDS
;	COMDAT ??_7_System_error_category@std@@6B@
CONST	SEGMENT
??_7_System_error_category@std@@6B@ DD FLAT:??_R4_System_error_category@std@@6B@ ; std::_System_error_category::`vftable'
	DD	FLAT:??_E_System_error_category@std@@UAEPAXI@Z
	DD	FLAT:?name@_System_error_category@std@@UBEPBDXZ
	DD	FLAT:?message@_System_error_category@std@@UBE?AV?$basic_string@DU?$char_traits@D@std@@V?$allocator@D@2@@2@H@Z
	DD	FLAT:?default_error_condition@_System_error_category@std@@UBE?AVerror_condition@2@H@Z
	DD	FLAT:?equivalent@error_category@std@@UBE_NABVerror_code@2@H@Z
	DD	FLAT:?equivalent@error_category@std@@UBE_NHABVerror_condition@2@@Z
CONST	ENDS
;	COMDAT ??_C@_0BG@PADBLCHM@iostream?5stream?5error?$AA@
CONST	SEGMENT
??_C@_0BG@PADBLCHM@iostream?5stream?5error?$AA@ DB 'iostream stream error'
	DB	00H						; `string'
CONST	ENDS
;	COMDAT ??_C@_08LLGCOLLL@iostream?$AA@
CONST	SEGMENT
??_C@_08LLGCOLLL@iostream?$AA@ DB 'iostream', 00H	; `string'
CONST	ENDS
;	COMDAT ??_7_Iostream_error_category@std@@6B@
CONST	SEGMENT
??_7_Iostream_error_category@std@@6B@ DD FLAT:??_R4_Iostream_error_category@std@@6B@ ; std::_Iostream_error_category::`vftable'
	DD	FLAT:??_E_Iostream_error_category@std@@UAEPAXI@Z
	DD	FLAT:?name@_Iostream_error_category@std@@UBEPBDXZ
	DD	FLAT:?message@_Iostream_error_category@std@@UBE?AV?$basic_string@DU?$char_traits@D@std@@V?$allocator@D@2@@2@H@Z
	DD	FLAT:?default_error_condition@error_category@std@@UBE?AVerror_condition@2@H@Z
	DD	FLAT:?equivalent@error_category@std@@UBE_NABVerror_code@2@H@Z
	DD	FLAT:?equivalent@error_category@std@@UBE_NHABVerror_condition@2@@Z
CONST	ENDS
;	COMDAT ??_C@_0O@BFJCFAAK@unknown?5error?$AA@
CONST	SEGMENT
??_C@_0O@BFJCFAAK@unknown?5error?$AA@ DB 'unknown error', 00H ; `string'
CONST	ENDS
;	COMDAT ??_C@_07DCLBNMLN@generic?$AA@
CONST	SEGMENT
??_C@_07DCLBNMLN@generic?$AA@ DB 'generic', 00H		; `string'
CONST	ENDS
;	COMDAT ??_7_Generic_error_category@std@@6B@
CONST	SEGMENT
??_7_Generic_error_category@std@@6B@ DD FLAT:??_R4_Generic_error_category@std@@6B@ ; std::_Generic_error_category::`vftable'
	DD	FLAT:??_E_Generic_error_category@std@@UAEPAXI@Z
	DD	FLAT:?name@_Generic_error_category@std@@UBEPBDXZ
	DD	FLAT:?message@_Generic_error_category@std@@UBE?AV?$basic_string@DU?$char_traits@D@std@@V?$allocator@D@2@@2@H@Z
	DD	FLAT:?default_error_condition@error_category@std@@UBE?AVerror_condition@2@H@Z
	DD	FLAT:?equivalent@error_category@std@@UBE_NABVerror_code@2@H@Z
	DD	FLAT:?equivalent@error_category@std@@UBE_NHABVerror_condition@2@@Z
CONST	ENDS
;	COMDAT ??_7error_category@std@@6B@
CONST	SEGMENT
??_7error_category@std@@6B@ DD FLAT:??_R4error_category@std@@6B@ ; std::error_category::`vftable'
	DD	FLAT:??_Eerror_category@std@@UAEPAXI@Z
	DD	FLAT:__purecall
	DD	FLAT:__purecall
	DD	FLAT:?default_error_condition@error_category@std@@UBE?AVerror_condition@2@H@Z
	DD	FLAT:?equivalent@error_category@std@@UBE_NABVerror_code@2@H@Z
	DD	FLAT:?equivalent@error_category@std@@UBE_NHABVerror_condition@2@@Z
CONST	ENDS
;	COMDAT xdata$x
xdata$x	SEGMENT
__unwindtable$??$construct@PADAAPAD@?$allocator@D@std@@QAEXPAPADAAPAD@Z DD 0ffffffffH
	DD	FLAT:__unwindfunclet$??$construct@PADAAPAD@?$allocator@D@std@@QAEXPAPADAAPAD@Z$0
__ehfuncinfo$??$construct@PADAAPAD@?$allocator@D@std@@QAEXPAPADAAPAD@Z DD 019930522H
	DD	01H
	DD	FLAT:__unwindtable$??$construct@PADAAPAD@?$allocator@D@std@@QAEXPAPADAAPAD@Z
	DD	2 DUP(00H)
	DD	2 DUP(00H)
	DD	00H
	DD	01H
xdata$x	ENDS
xdata$x	SEGMENT
__unwindtable$??1C_PopupList@@UAE@XZ DD 0ffffffffH
	DD	FLAT:__unwindfunclet$??1C_PopupList@@UAE@XZ$0
__unwindtable$??0C_PopupList@@QAE@XZ DD 0ffffffffH
	DD	FLAT:__unwindfunclet$??0C_PopupList@@QAE@XZ$0
__unwindtable$?OpenWindow@C_PopupList@@QAEHFFF@Z DD 0ffffffffH
	DD	FLAT:__unwindfunclet$?OpenWindow@C_PopupList@@QAEHFFF@Z$0
	DD	0ffffffffH
	DD	FLAT:__unwindfunclet$?OpenWindow@C_PopupList@@QAEHFFF@Z$1
__unwindtable$?AddItem@C_PopupList@@QAEHJFPADJ@Z DD 0ffffffffH
	DD	FLAT:__unwindfunclet$?AddItem@C_PopupList@@QAEHJFPADJ@Z$0
	DD	0ffffffffH
	DD	FLAT:__unwindfunclet$?AddItem@C_PopupList@@QAEHJFPADJ@Z$1
	DD	0ffffffffH
	DD	FLAT:__unwindfunclet$?AddItem@C_PopupList@@QAEHJFPADJ@Z$2
	DD	0ffffffffH
	DD	FLAT:__unwindfunclet$?AddItem@C_PopupList@@QAEHJFPADJ@Z$3
__ehfuncinfo$?OpenWindow@C_PopupList@@QAEHFFF@Z DD 019930522H
	DD	02H
	DD	FLAT:__unwindtable$?OpenWindow@C_PopupList@@QAEHFFF@Z
	DD	2 DUP(00H)
	DD	2 DUP(00H)
	DD	00H
	DD	01H
__ehfuncinfo$?AddItem@C_PopupList@@QAEHJFPADJ@Z DD 019930522H
	DD	04H
	DD	FLAT:__unwindtable$?AddItem@C_PopupList@@QAEHJFPADJ@Z
	DD	2 DUP(00H)
	DD	2 DUP(00H)
	DD	00H
	DD	01H
__ehfuncinfo$??1C_PopupList@@UAE@XZ DD 019930522H
	DD	01H
	DD	FLAT:__unwindtable$??1C_PopupList@@UAE@XZ
	DD	2 DUP(00H)
	DD	2 DUP(00H)
	DD	00H
	DD	01H
__ehfuncinfo$??0C_PopupList@@QAE@XZ DD 019930522H
	DD	01H
	DD	FLAT:__unwindtable$??0C_PopupList@@QAE@XZ
	DD	2 DUP(00H)
	DD	2 DUP(00H)
	DD	00H
	DD	01H
xdata$x	ENDS
;	COMDAT xdata$x
xdata$x	SEGMENT
__unwindtable$??1C_Control@@UAE@XZ DD 0ffffffffH
	DD	FLAT:__unwindfunclet$??1C_Control@@UAE@XZ$0
__ehfuncinfo$??1C_Control@@UAE@XZ DD 019930522H
	DD	01H
	DD	FLAT:__unwindtable$??1C_Control@@UAE@XZ
	DD	2 DUP(00H)
	DD	2 DUP(00H)
	DD	00H
	DD	01H
xdata$x	ENDS
;	COMDAT xdata$x
xdata$x	SEGMENT
__catchsym$?_Copy@?$basic_string@DU?$char_traits@D@std@@V?$allocator@D@2@@std@@QAEXII@Z$5 DD 040H
	DD	00H
	DD	00H
	DD	FLAT:__catch$?_Copy@?$basic_string@DU?$char_traits@D@std@@V?$allocator@D@2@@std@@QAEXII@Z$0
__catchsym$?_Copy@?$basic_string@DU?$char_traits@D@std@@V?$allocator@D@2@@std@@QAEXII@Z$4 DD 040H
	DD	00H
	DD	00H
	DD	FLAT:__catch$?_Copy@?$basic_string@DU?$char_traits@D@std@@V?$allocator@D@2@@std@@QAEXII@Z$1
__unwindtable$?_Copy@?$basic_string@DU?$char_traits@D@std@@V?$allocator@D@2@@std@@QAEXII@Z DD 0ffffffffH
	DD	00H
	DD	0ffffffffH
	DD	00H
	DD	01H
	DD	00H
	DD	01H
	DD	00H
__ehfuncinfo$?_Copy@?$basic_string@DU?$char_traits@D@std@@V?$allocator@D@2@@std@@QAEXII@Z DD 019930522H
	DD	04H
	DD	FLAT:__unwindtable$?_Copy@?$basic_string@DU?$char_traits@D@std@@V?$allocator@D@2@@std@@QAEXII@Z
	DD	02H
	DD	FLAT:__tryblocktable$?_Copy@?$basic_string@DU?$char_traits@D@std@@V?$allocator@D@2@@std@@QAEXII@Z
	DD	2 DUP(00H)
	DD	00H
	DD	01H
__tryblocktable$?_Copy@?$basic_string@DU?$char_traits@D@std@@V?$allocator@D@2@@std@@QAEXII@Z DD 02H
	DD	02H
	DD	03H
	DD	01H
	DD	FLAT:__catchsym$?_Copy@?$basic_string@DU?$char_traits@D@std@@V?$allocator@D@2@@std@@QAEXII@Z$4
	DD	00H
	DD	00H
	DD	03H
	DD	01H
	DD	FLAT:__catchsym$?_Copy@?$basic_string@DU?$char_traits@D@std@@V?$allocator@D@2@@std@@QAEXII@Z$5
xdata$x	ENDS
CRT$XCU	SEGMENT
_allocator_arg$initializer$ DD FLAT:??__Eallocator_arg@std@@YAXXZ
CRT$XCU	ENDS
;	COMDAT CRT$XCU
CRT$XCU	SEGMENT
?_Generic_object$initializer$@?$_Error_objects@H@std@@2P6AXXZA DD FLAT:??__E?_Generic_object@?$_Error_objects@H@std@@2V_Generic_error_category@2@A@@YAXXZ ; std::_Error_objects<int>::_Generic_object$initializer$
CRT$XCU	ENDS
;	COMDAT CRT$XCU
CRT$XCU	SEGMENT
?_Iostream_object$initializer$@?$_Error_objects@H@std@@2P6AXXZA DD FLAT:??__E?_Iostream_object@?$_Error_objects@H@std@@2V_Iostream_error_category@2@A@@YAXXZ ; std::_Error_objects<int>::_Iostream_object$initializer$
CRT$XCU	ENDS
;	COMDAT CRT$XCU
CRT$XCU	SEGMENT
?_System_object$initializer$@?$_Error_objects@H@std@@2P6AXXZA DD FLAT:??__E?_System_object@?$_Error_objects@H@std@@2V_System_error_category@2@A@@YAXXZ ; std::_Error_objects<int>::_System_object$initializer$
CRT$XCU	ENDS
;	COMDAT CRT$XCU
CRT$XCU	SEGMENT
?id$initializer$@?$num_put@DV?$back_insert_iterator@V?$basic_string@DU?$char_traits@D@std@@V?$allocator@D@2@@std@@@std@@@std@@2P6AXXZA DD FLAT:??__E?id@?$num_put@DV?$back_insert_iterator@V?$basic_string@DU?$char_traits@D@std@@V?$allocator@D@2@@std@@@std@@@std@@2V0locale@2@A@@YAXXZ ; std::num_put<char,std::back_insert_iterator<std::basic_string<char,std::char_traits<char>,std::allocator<char> > > >::id$initializer$
CRT$XCU	ENDS
;	COMDAT CRT$XCU
CRT$XCU	SEGMENT
?id$initializer$@?$num_put@_WV?$back_insert_iterator@V?$basic_string@_WU?$char_traits@_W@std@@V?$allocator@_W@2@@std@@@std@@@std@@2P6AXXZA DD FLAT:??__E?id@?$num_put@_WV?$back_insert_iterator@V?$basic_string@_WU?$char_traits@_W@std@@V?$allocator@_W@2@@std@@@std@@@std@@2V0locale@2@A@@YAXXZ ; std::num_put<wchar_t,std::back_insert_iterator<std::basic_string<wchar_t,std::char_traits<wchar_t>,std::allocator<wchar_t> > > >::id$initializer$
CRT$XCU	ENDS
;	COMDAT CRT$XCU
CRT$XCU	SEGMENT
?id$initializer$@?$numpunct@D@std@@2P6AXXZA DD FLAT:??__E?id@?$numpunct@D@std@@2V0locale@2@A@@YAXXZ ; std::numpunct<char>::id$initializer$
CRT$XCU	ENDS
;	COMDAT CRT$XCU
CRT$XCU	SEGMENT
?id$initializer$@?$numpunct@_W@std@@2P6AXXZA DD FLAT:??__E?id@?$numpunct@_W@std@@2V0locale@2@A@@YAXXZ ; std::numpunct<wchar_t>::id$initializer$
CRT$XCU	ENDS
; Function compile flags: /Odtp
; File c:\program files (x86)\microsoft visual studio 11.0\vc\include\xmemory0
;	COMDAT ??$destroy@PAD@?$allocator@D@std@@QAEXPAPAD@Z
_TEXT	SEGMENT
_this$ = -4						; size = 4
__Ptr$ = 8						; size = 4
??$destroy@PAD@?$allocator@D@std@@QAEXPAPAD@Z PROC	; std::allocator<char>::destroy<char *>, COMDAT
; _this$ = ecx

; 621  : 		void destroy(_Uty *_Ptr)

	push	ebp
	mov	ebp, esp
	push	ecx
	mov	DWORD PTR _this$[ebp], ecx

; 622  : 		{	// destroy object at _Ptr
; 623  : 		_Ptr->~_Uty();
; 624  : 		}

	mov	esp, ebp
	pop	ebp
	ret	4
??$destroy@PAD@?$allocator@D@std@@QAEXPAPAD@Z ENDP	; std::allocator<char>::destroy<char *>
_TEXT	ENDS
; Function compile flags: /Odtp
; File c:\program files (x86)\microsoft visual studio 11.0\vc\include\xmemory0
;	COMDAT ??$construct@PADAAPAD@?$allocator@D@std@@QAEXPAPADAAPAD@Z
_TEXT	SEGMENT
$T2 = -28						; size = 4
_this$ = -24						; size = 4
tv73 = -20						; size = 4
$T3 = -16						; size = 4
__$EHRec$ = -12						; size = 12
__Ptr$ = 8						; size = 4
__V0$ = 12						; size = 4
??$construct@PADAAPAD@?$allocator@D@std@@QAEXPAPADAAPAD@Z PROC ; std::allocator<char>::construct<char *,char * &>, COMDAT
; _this$ = ecx

; 617  : _VARIADIC_EXPAND_0X(_ALLOC_MEMBER_CONSTRUCT, , , , )

	push	ebp
	mov	ebp, esp
	push	-1
	push	__ehhandler$??$construct@PADAAPAD@?$allocator@D@std@@QAEXPAPADAAPAD@Z
	mov	eax, DWORD PTR fs:0
	push	eax
	sub	esp, 16					; 00000010H
	mov	eax, DWORD PTR ___security_cookie
	xor	eax, ebp
	push	eax
	lea	eax, DWORD PTR __$EHRec$[ebp]
	mov	DWORD PTR fs:0, eax
	mov	DWORD PTR _this$[ebp], ecx
	mov	eax, DWORD PTR __Ptr$[ebp]
	push	eax
	push	4
	call	??2@YAPAXIPAX@Z				; operator new
	add	esp, 8
	mov	DWORD PTR $T3[ebp], eax
	mov	DWORD PTR __$EHRec$[ebp+8], 0
	cmp	DWORD PTR $T3[ebp], 0
	je	SHORT $LN3@construct
	mov	ecx, DWORD PTR __V0$[ebp]
	push	ecx
	call	??$forward@AAPAD@std@@YAAAPADAAPAD@Z	; std::forward<char * &>
	add	esp, 4
	mov	edx, DWORD PTR $T3[ebp]
	mov	eax, DWORD PTR [eax]
	mov	DWORD PTR [edx], eax
	mov	ecx, DWORD PTR $T3[ebp]
	mov	DWORD PTR tv73[ebp], ecx
	jmp	SHORT $LN4@construct
$LN3@construct:
	mov	DWORD PTR tv73[ebp], 0
$LN4@construct:
	mov	edx, DWORD PTR tv73[ebp]
	mov	DWORD PTR $T2[ebp], edx
	mov	DWORD PTR __$EHRec$[ebp+8], -1
	mov	ecx, DWORD PTR __$EHRec$[ebp]
	mov	DWORD PTR fs:0, ecx
	pop	ecx
	mov	esp, ebp
	pop	ebp
	ret	8
_TEXT	ENDS
;	COMDAT text$x
text$x	SEGMENT
__unwindfunclet$??$construct@PADAAPAD@?$allocator@D@std@@QAEXPAPADAAPAD@Z$0:
	mov	eax, DWORD PTR __Ptr$[ebp]
	push	eax
	mov	eax, DWORD PTR $T3[ebp]
	push	eax
	call	??3@YAXPAX0@Z				; operator delete
	add	esp, 8
	ret	0
__ehhandler$??$construct@PADAAPAD@?$allocator@D@std@@QAEXPAPADAAPAD@Z:
	mov	edx, DWORD PTR [esp+8]
	lea	eax, DWORD PTR [edx+12]
	mov	ecx, DWORD PTR [edx-20]
	xor	ecx, eax
	call	@__security_check_cookie@4
	mov	eax, OFFSET __ehfuncinfo$??$construct@PADAAPAD@?$allocator@D@std@@QAEXPAPADAAPAD@Z
	jmp	___CxxFrameHandler3
text$x	ENDS
??$construct@PADAAPAD@?$allocator@D@std@@QAEXPAPADAAPAD@Z ENDP ; std::allocator<char>::construct<char *,char * &>
; Function compile flags: /Odtp
; File c:\program files (x86)\microsoft visual studio 11.0\vc\include\xlocnum
;	COMDAT ??__E?id@?$numpunct@_W@std@@2V0locale@2@A@@YAXXZ
text$yc	SEGMENT
??__E?id@?$numpunct@_W@std@@2V0locale@2@A@@YAXXZ PROC	; `dynamic initializer for 'std::numpunct<wchar_t>::id'', COMDAT

; 155  : 		void _Getvals(wchar_t, const lconv *_Ptr, _Locinfo::_Cvtvec)

	push	ebp
	mov	ebp, esp
	push	0
	mov	ecx, OFFSET ?id@?$numpunct@_W@std@@2V0locale@2@A ; std::numpunct<wchar_t>::id
	call	??0id@locale@std@@QAE@I@Z		; std::locale::id::id
	pop	ebp
	ret	0
??__E?id@?$numpunct@_W@std@@2V0locale@2@A@@YAXXZ ENDP	; `dynamic initializer for 'std::numpunct<wchar_t>::id''
text$yc	ENDS
; Function compile flags: /Odtp
; File c:\program files (x86)\microsoft visual studio 11.0\vc\include\xlocnum
;	COMDAT ??__E?id@?$numpunct@D@std@@2V0locale@2@A@@YAXXZ
text$yc	SEGMENT
??__E?id@?$numpunct@D@std@@2V0locale@2@A@@YAXXZ PROC	; `dynamic initializer for 'std::numpunct<char>::id'', COMDAT

; 155  : 		void _Getvals(wchar_t, const lconv *_Ptr, _Locinfo::_Cvtvec)

	push	ebp
	mov	ebp, esp
	push	0
	mov	ecx, OFFSET ?id@?$numpunct@D@std@@2V0locale@2@A ; std::numpunct<char>::id
	call	??0id@locale@std@@QAE@I@Z		; std::locale::id::id
	pop	ebp
	ret	0
??__E?id@?$numpunct@D@std@@2V0locale@2@A@@YAXXZ ENDP	; `dynamic initializer for 'std::numpunct<char>::id''
text$yc	ENDS
; Function compile flags: /Odtp
; File c:\program files (x86)\microsoft visual studio 11.0\vc\include\xlocnum
;	COMDAT ??__E?id@?$num_put@_WV?$back_insert_iterator@V?$basic_string@_WU?$char_traits@_W@std@@V?$allocator@_W@2@@std@@@std@@@std@@2V0locale@2@A@@YAXXZ
text$yc	SEGMENT
??__E?id@?$num_put@_WV?$back_insert_iterator@V?$basic_string@_WU?$char_traits@_W@std@@V?$allocator@_W@2@@std@@@std@@@std@@2V0locale@2@A@@YAXXZ PROC ; `dynamic initializer for 'std::num_put<wchar_t,std::back_insert_iterator<std::basic_string<wchar_t,std::char_traits<wchar_t>,std::allocator<wchar_t> > > >::id'', COMDAT

; 155  : 		void _Getvals(wchar_t, const lconv *_Ptr, _Locinfo::_Cvtvec)

	push	ebp
	mov	ebp, esp
	push	0
	mov	ecx, OFFSET ?id@?$num_put@_WV?$back_insert_iterator@V?$basic_string@_WU?$char_traits@_W@std@@V?$allocator@_W@2@@std@@@std@@@std@@2V0locale@2@A ; std::num_put<wchar_t,std::back_insert_iterator<std::basic_string<wchar_t,std::char_traits<wchar_t>,std::allocator<wchar_t> > > >::id
	call	??0id@locale@std@@QAE@I@Z		; std::locale::id::id
	pop	ebp
	ret	0
??__E?id@?$num_put@_WV?$back_insert_iterator@V?$basic_string@_WU?$char_traits@_W@std@@V?$allocator@_W@2@@std@@@std@@@std@@2V0locale@2@A@@YAXXZ ENDP ; `dynamic initializer for 'std::num_put<wchar_t,std::back_insert_iterator<std::basic_string<wchar_t,std::char_traits<wchar_t>,std::allocator<wchar_t> > > >::id''
text$yc	ENDS
; Function compile flags: /Odtp
; File c:\program files (x86)\microsoft visual studio 11.0\vc\include\xlocnum
;	COMDAT ??__E?id@?$num_put@DV?$back_insert_iterator@V?$basic_string@DU?$char_traits@D@std@@V?$allocator@D@2@@std@@@std@@@std@@2V0locale@2@A@@YAXXZ
text$yc	SEGMENT
??__E?id@?$num_put@DV?$back_insert_iterator@V?$basic_string@DU?$char_traits@D@std@@V?$allocator@D@2@@std@@@std@@@std@@2V0locale@2@A@@YAXXZ PROC ; `dynamic initializer for 'std::num_put<char,std::back_insert_iterator<std::basic_string<char,std::char_traits<char>,std::allocator<char> > > >::id'', COMDAT

; 155  : 		void _Getvals(wchar_t, const lconv *_Ptr, _Locinfo::_Cvtvec)

	push	ebp
	mov	ebp, esp
	push	0
	mov	ecx, OFFSET ?id@?$num_put@DV?$back_insert_iterator@V?$basic_string@DU?$char_traits@D@std@@V?$allocator@D@2@@std@@@std@@@std@@2V0locale@2@A ; std::num_put<char,std::back_insert_iterator<std::basic_string<char,std::char_traits<char>,std::allocator<char> > > >::id
	call	??0id@locale@std@@QAE@I@Z		; std::locale::id::id
	pop	ebp
	ret	0
??__E?id@?$num_put@DV?$back_insert_iterator@V?$basic_string@DU?$char_traits@D@std@@V?$allocator@D@2@@std@@@std@@@std@@2V0locale@2@A@@YAXXZ ENDP ; `dynamic initializer for 'std::num_put<char,std::back_insert_iterator<std::basic_string<char,std::char_traits<char>,std::allocator<char> > > >::id''
text$yc	ENDS
; Function compile flags: /Odtp
; File c:\program files (x86)\microsoft visual studio 11.0\vc\include\xmemory0
;	COMDAT ??$destroy@PAD@?$allocator_traits@V?$allocator@D@std@@@std@@SAXAAV?$allocator@D@1@PAPAD@Z
_TEXT	SEGMENT
__Al$ = 8						; size = 4
__Ptr$ = 12						; size = 4
??$destroy@PAD@?$allocator_traits@V?$allocator@D@std@@@std@@SAXAAV?$allocator@D@1@PAPAD@Z PROC ; std::allocator_traits<std::allocator<char> >::destroy<char *>, COMDAT

; 755  : 		static void destroy(_Alloc& _Al, _Uty *_Ptr)

	push	ebp
	mov	ebp, esp

; 756  : 		{	// destroy object at _Ptr
; 757  : 		_Al.destroy(_Ptr);

	mov	eax, DWORD PTR __Ptr$[ebp]
	push	eax
	mov	ecx, DWORD PTR __Al$[ebp]
	call	??$destroy@PAD@?$allocator@D@std@@QAEXPAPAD@Z ; std::allocator<char>::destroy<char *>

; 758  : 		}

	pop	ebp
	ret	0
??$destroy@PAD@?$allocator_traits@V?$allocator@D@std@@@std@@SAXAAV?$allocator@D@1@PAPAD@Z ENDP ; std::allocator_traits<std::allocator<char> >::destroy<char *>
_TEXT	ENDS
; Function compile flags: /Odtp
; File c:\program files (x86)\microsoft visual studio 11.0\vc\include\xmemory0
;	COMDAT ??$construct@PADAAPAD@?$allocator_traits@V?$allocator@D@std@@@std@@SAXAAV?$allocator@D@1@PAPADAAPAD@Z
_TEXT	SEGMENT
__Al$ = 8						; size = 4
__Ptr$ = 12						; size = 4
__V0$ = 16						; size = 4
??$construct@PADAAPAD@?$allocator_traits@V?$allocator@D@std@@@std@@SAXAAV?$allocator@D@1@PAPADAAPAD@Z PROC ; std::allocator_traits<std::allocator<char> >::construct<char *,char * &>, COMDAT

; 751  : _VARIADIC_EXPAND_0X(_ALLOC_TRAITS_SPECIAL_CONSTRUCT, , , , )

	push	ebp
	mov	ebp, esp
	mov	eax, DWORD PTR __V0$[ebp]
	push	eax
	call	??$forward@AAPAD@std@@YAAAPADAAPAD@Z	; std::forward<char * &>
	add	esp, 4
	push	eax
	mov	ecx, DWORD PTR __Ptr$[ebp]
	push	ecx
	mov	ecx, DWORD PTR __Al$[ebp]
	call	??$construct@PADAAPAD@?$allocator@D@std@@QAEXPAPADAAPAD@Z ; std::allocator<char>::construct<char *,char * &>
	pop	ebp
	ret	0
??$construct@PADAAPAD@?$allocator_traits@V?$allocator@D@std@@@std@@SAXAAV?$allocator@D@1@PAPADAAPAD@Z ENDP ; std::allocator_traits<std::allocator<char> >::construct<char *,char * &>
_TEXT	ENDS
; Function compile flags: /Odtp
; File c:\program files (x86)\microsoft visual studio 11.0\vc\include\type_traits
;	COMDAT ??$forward@AAPAD@std@@YAAAPADAAPAD@Z
_TEXT	SEGMENT
__Arg$ = 8						; size = 4
??$forward@AAPAD@std@@YAAAPADAAPAD@Z PROC		; std::forward<char * &>, COMDAT

; 1775 : 	{	// forward an lvalue

	push	ebp
	mov	ebp, esp

; 1776 : 	return (static_cast<_Ty&&>(_Arg));

	mov	eax, DWORD PTR __Arg$[ebp]

; 1777 : 	}

	pop	ebp
	ret	0
??$forward@AAPAD@std@@YAAAPADAAPAD@Z ENDP		; std::forward<char * &>
_TEXT	ENDS
; Function compile flags: /Odtp
;	COMDAT ??__F?_System_object@?$_Error_objects@H@std@@2V_System_error_category@2@A@@YAXXZ
text$yd	SEGMENT
??__F?_System_object@?$_Error_objects@H@std@@2V_System_error_category@2@A@@YAXXZ PROC ; `dynamic atexit destructor for 'std::_Error_objects<int>::_System_object'', COMDAT
	push	ebp
	mov	ebp, esp
	mov	ecx, OFFSET ?_System_object@?$_Error_objects@H@std@@2V_System_error_category@2@A ; std::_Error_objects<int>::_System_object
	call	??1_System_error_category@std@@UAE@XZ
	pop	ebp
	ret	0
??__F?_System_object@?$_Error_objects@H@std@@2V_System_error_category@2@A@@YAXXZ ENDP ; `dynamic atexit destructor for 'std::_Error_objects<int>::_System_object''
text$yd	ENDS
; Function compile flags: /Odtp
; File c:\program files (x86)\microsoft visual studio 11.0\vc\include\xmemory0
;	COMDAT ??__E?_System_object@?$_Error_objects@H@std@@2V_System_error_category@2@A@@YAXXZ
text$yc	SEGMENT
??__E?_System_object@?$_Error_objects@H@std@@2V_System_error_category@2@A@@YAXXZ PROC ; `dynamic initializer for 'std::_Error_objects<int>::_System_object'', COMDAT

; 627  : 		{	// estimate maximum array size

	push	ebp
	mov	ebp, esp
	mov	ecx, OFFSET ?_System_object@?$_Error_objects@H@std@@2V_System_error_category@2@A ; std::_Error_objects<int>::_System_object
	call	??0_System_error_category@std@@QAE@XZ	; std::_System_error_category::_System_error_category
	push	OFFSET ??__F?_System_object@?$_Error_objects@H@std@@2V_System_error_category@2@A@@YAXXZ ; `dynamic atexit destructor for 'std::_Error_objects<int>::_System_object''
	call	_atexit
	add	esp, 4
	pop	ebp
	ret	0
??__E?_System_object@?$_Error_objects@H@std@@2V_System_error_category@2@A@@YAXXZ ENDP ; `dynamic initializer for 'std::_Error_objects<int>::_System_object''
text$yc	ENDS
; Function compile flags: /Odtp
;	COMDAT ??__F?_Iostream_object@?$_Error_objects@H@std@@2V_Iostream_error_category@2@A@@YAXXZ
text$yd	SEGMENT
??__F?_Iostream_object@?$_Error_objects@H@std@@2V_Iostream_error_category@2@A@@YAXXZ PROC ; `dynamic atexit destructor for 'std::_Error_objects<int>::_Iostream_object'', COMDAT
	push	ebp
	mov	ebp, esp
	mov	ecx, OFFSET ?_Iostream_object@?$_Error_objects@H@std@@2V_Iostream_error_category@2@A ; std::_Error_objects<int>::_Iostream_object
	call	??1_Iostream_error_category@std@@UAE@XZ
	pop	ebp
	ret	0
??__F?_Iostream_object@?$_Error_objects@H@std@@2V_Iostream_error_category@2@A@@YAXXZ ENDP ; `dynamic atexit destructor for 'std::_Error_objects<int>::_Iostream_object''
text$yd	ENDS
; Function compile flags: /Odtp
; File c:\program files (x86)\microsoft visual studio 11.0\vc\include\xmemory0
;	COMDAT ??__E?_Iostream_object@?$_Error_objects@H@std@@2V_Iostream_error_category@2@A@@YAXXZ
text$yc	SEGMENT
??__E?_Iostream_object@?$_Error_objects@H@std@@2V_Iostream_error_category@2@A@@YAXXZ PROC ; `dynamic initializer for 'std::_Error_objects<int>::_Iostream_object'', COMDAT

; 627  : 		{	// estimate maximum array size

	push	ebp
	mov	ebp, esp
	mov	ecx, OFFSET ?_Iostream_object@?$_Error_objects@H@std@@2V_Iostream_error_category@2@A ; std::_Error_objects<int>::_Iostream_object
	call	??0_Iostream_error_category@std@@QAE@XZ	; std::_Iostream_error_category::_Iostream_error_category
	push	OFFSET ??__F?_Iostream_object@?$_Error_objects@H@std@@2V_Iostream_error_category@2@A@@YAXXZ ; `dynamic atexit destructor for 'std::_Error_objects<int>::_Iostream_object''
	call	_atexit
	add	esp, 4
	pop	ebp
	ret	0
??__E?_Iostream_object@?$_Error_objects@H@std@@2V_Iostream_error_category@2@A@@YAXXZ ENDP ; `dynamic initializer for 'std::_Error_objects<int>::_Iostream_object''
text$yc	ENDS
; Function compile flags: /Odtp
;	COMDAT ??__F?_Generic_object@?$_Error_objects@H@std@@2V_Generic_error_category@2@A@@YAXXZ
text$yd	SEGMENT
??__F?_Generic_object@?$_Error_objects@H@std@@2V_Generic_error_category@2@A@@YAXXZ PROC ; `dynamic atexit destructor for 'std::_Error_objects<int>::_Generic_object'', COMDAT
	push	ebp
	mov	ebp, esp
	mov	ecx, OFFSET ?_Generic_object@?$_Error_objects@H@std@@2V_Generic_error_category@2@A ; std::_Error_objects<int>::_Generic_object
	call	??1_Generic_error_category@std@@UAE@XZ
	pop	ebp
	ret	0
??__F?_Generic_object@?$_Error_objects@H@std@@2V_Generic_error_category@2@A@@YAXXZ ENDP ; `dynamic atexit destructor for 'std::_Error_objects<int>::_Generic_object''
text$yd	ENDS
; Function compile flags: /Odtp
; File c:\program files (x86)\microsoft visual studio 11.0\vc\include\xmemory0
;	COMDAT ??__E?_Generic_object@?$_Error_objects@H@std@@2V_Generic_error_category@2@A@@YAXXZ
text$yc	SEGMENT
??__E?_Generic_object@?$_Error_objects@H@std@@2V_Generic_error_category@2@A@@YAXXZ PROC ; `dynamic initializer for 'std::_Error_objects<int>::_Generic_object'', COMDAT

; 627  : 		{	// estimate maximum array size

	push	ebp
	mov	ebp, esp
	mov	ecx, OFFSET ?_Generic_object@?$_Error_objects@H@std@@2V_Generic_error_category@2@A ; std::_Error_objects<int>::_Generic_object
	call	??0_Generic_error_category@std@@QAE@XZ	; std::_Generic_error_category::_Generic_error_category
	push	OFFSET ??__F?_Generic_object@?$_Error_objects@H@std@@2V_Generic_error_category@2@A@@YAXXZ ; `dynamic atexit destructor for 'std::_Error_objects<int>::_Generic_object''
	call	_atexit
	add	esp, 4
	pop	ebp
	ret	0
??__E?_Generic_object@?$_Error_objects@H@std@@2V_Generic_error_category@2@A@@YAXXZ ENDP ; `dynamic initializer for 'std::_Error_objects<int>::_Generic_object''
text$yc	ENDS
; Function compile flags: /Odtp
; File c:\program files (x86)\microsoft visual studio 11.0\vc\include\xmemory0
;	COMDAT ??$_Allocate@D@std@@YAPADIPAD@Z
_TEXT	SEGMENT
__Ptr$ = -4						; size = 4
__Count$ = 8						; size = 4
___formal$ = 12						; size = 4
??$_Allocate@D@std@@YAPADIPAD@Z PROC			; std::_Allocate<char>, COMDAT

; 22   : 	{	// allocate storage for _Count elements of type _Ty

	push	ebp
	mov	ebp, esp
	push	ecx

; 23   : 	void *_Ptr = 0;

	mov	DWORD PTR __Ptr$[ebp], 0

; 24   : 
; 25   : 	if (_Count == 0)

	cmp	DWORD PTR __Count$[ebp], 0
	jne	SHORT $LN4@Allocate

; 26   : 		;
; 27   : 	else if (((size_t)(-1) / sizeof (_Ty) < _Count)

	jmp	SHORT $LN3@Allocate
$LN4@Allocate:

; 28   : 		|| (_Ptr = ::operator new(_Count * sizeof (_Ty))) == 0)

	cmp	DWORD PTR __Count$[ebp], -1
	ja	SHORT $LN1@Allocate
	mov	eax, DWORD PTR __Count$[ebp]
	push	eax
	call	??2@YAPAXI@Z				; operator new
	add	esp, 4
	mov	DWORD PTR __Ptr$[ebp], eax
	cmp	DWORD PTR __Ptr$[ebp], 0
	jne	SHORT $LN3@Allocate
$LN1@Allocate:

; 29   : 		_Xbad_alloc();	// report no memory

	call	?_Xbad_alloc@std@@YAXXZ			; std::_Xbad_alloc
$LN3@Allocate:

; 30   : 
; 31   : 	return ((_Ty *)_Ptr);

	mov	eax, DWORD PTR __Ptr$[ebp]
$LN6@Allocate:

; 32   : 	}

	mov	esp, ebp
	pop	ebp
	ret	0
??$_Allocate@D@std@@YAPADIPAD@Z ENDP			; std::_Allocate<char>
_TEXT	ENDS
; Function compile flags: /Odtp
; File c:\program files (x86)\microsoft visual studio 11.0\vc\include\xstddef
;	COMDAT ??$addressof@D@std@@YAPADAAD@Z
_TEXT	SEGMENT
__Val$ = 8						; size = 4
??$addressof@D@std@@YAPADAAD@Z PROC			; std::addressof<char>, COMDAT

; 85   : 	{	// return address of _Val

	push	ebp
	mov	ebp, esp

; 86   : 	return (reinterpret_cast<_Ty *>(
; 87   : 		(&const_cast<char&>(
; 88   : 		reinterpret_cast<const volatile char&>(_Val)))));

	mov	eax, DWORD PTR __Val$[ebp]

; 89   : 	}

	pop	ebp
	ret	0
??$addressof@D@std@@YAPADAAD@Z ENDP			; std::addressof<char>
_TEXT	ENDS
; Function compile flags: /Odtp
; File c:\program files (x86)\microsoft visual studio 11.0\vc\include\xmemory0
;	COMDAT ??$destroy@PAD@?$_Wrap_alloc@V?$allocator@D@std@@@std@@QAEXPAPAD@Z
_TEXT	SEGMENT
_this$ = -4						; size = 4
__Ptr$ = 8						; size = 4
??$destroy@PAD@?$_Wrap_alloc@V?$allocator@D@std@@@std@@QAEXPAPAD@Z PROC ; std::_Wrap_alloc<std::allocator<char> >::destroy<char *>, COMDAT
; _this$ = ecx

; 907  : 		void destroy(_Ty *_Ptr)

	push	ebp
	mov	ebp, esp
	push	ecx
	mov	DWORD PTR _this$[ebp], ecx

; 908  : 		{	// destroy object at _Ptr
; 909  : 		_Mytraits::destroy(*this, _Ptr);

	mov	eax, DWORD PTR __Ptr$[ebp]
	push	eax
	mov	ecx, DWORD PTR _this$[ebp]
	push	ecx
	call	??$destroy@PAD@?$allocator_traits@V?$allocator@D@std@@@std@@SAXAAV?$allocator@D@1@PAPAD@Z ; std::allocator_traits<std::allocator<char> >::destroy<char *>
	add	esp, 8

; 910  : 		}

	mov	esp, ebp
	pop	ebp
	ret	4
??$destroy@PAD@?$_Wrap_alloc@V?$allocator@D@std@@@std@@QAEXPAPAD@Z ENDP ; std::_Wrap_alloc<std::allocator<char> >::destroy<char *>
_TEXT	ENDS
; Function compile flags: /Odtp
; File c:\program files (x86)\microsoft visual studio 11.0\vc\include\xmemory0
;	COMDAT ??$construct@PADAAPAD@?$_Wrap_alloc@V?$allocator@D@std@@@std@@QAEXPAPADAAPAD@Z
_TEXT	SEGMENT
_this$ = -4						; size = 4
__Ptr$ = 8						; size = 4
__V0$ = 12						; size = 4
??$construct@PADAAPAD@?$_Wrap_alloc@V?$allocator@D@std@@@std@@QAEXPAPADAAPAD@Z PROC ; std::_Wrap_alloc<std::allocator<char> >::construct<char *,char * &>, COMDAT
; _this$ = ecx

; 903  : _VARIADIC_EXPAND_0X(_WRAP_ALLOC_CONSTRUCT, , , , )

	push	ebp
	mov	ebp, esp
	push	ecx
	mov	DWORD PTR _this$[ebp], ecx
	mov	eax, DWORD PTR __V0$[ebp]
	push	eax
	call	??$forward@AAPAD@std@@YAAAPADAAPAD@Z	; std::forward<char * &>
	add	esp, 4
	push	eax
	mov	ecx, DWORD PTR __Ptr$[ebp]
	push	ecx
	mov	edx, DWORD PTR _this$[ebp]
	push	edx
	call	??$construct@PADAAPAD@?$allocator_traits@V?$allocator@D@std@@@std@@SAXAAV?$allocator@D@1@PAPADAAPAD@Z ; std::allocator_traits<std::allocator<char> >::construct<char *,char * &>
	add	esp, 12					; 0000000cH
	mov	esp, ebp
	pop	ebp
	ret	8
??$construct@PADAAPAD@?$_Wrap_alloc@V?$allocator@D@std@@@std@@QAEXPAPADAAPAD@Z ENDP ; std::_Wrap_alloc<std::allocator<char> >::construct<char *,char * &>
_TEXT	ENDS
; Function compile flags: /Odtp
; File c:\users\zhitao li\documents\visual studio 2012\projects\freefalcon\ui95\chandler.h
;	COMDAT ?GetH@C_Handler@@QAEJXZ
_TEXT	SEGMENT
_this$ = -4						; size = 4
?GetH@C_Handler@@QAEJXZ PROC				; C_Handler::GetH, COMDAT
; _this$ = ecx

; 214  : 		long  GetH() { return(FrontRect_.bottom-FrontRect_.top);}

	push	ebp
	mov	ebp, esp
	push	ecx
	mov	DWORD PTR _this$[ebp], ecx
	mov	eax, DWORD PTR _this$[ebp]
	mov	ecx, DWORD PTR _this$[ebp]
	mov	eax, DWORD PTR [eax+48]
	sub	eax, DWORD PTR [ecx+40]
	mov	esp, ebp
	pop	ebp
	ret	0
?GetH@C_Handler@@QAEJXZ ENDP				; C_Handler::GetH
_TEXT	ENDS
; Function compile flags: /Odtp
; File c:\users\zhitao li\documents\visual studio 2012\projects\freefalcon\ui95\chandler.h
;	COMDAT ?GetW@C_Handler@@QAEJXZ
_TEXT	SEGMENT
_this$ = -4						; size = 4
?GetW@C_Handler@@QAEJXZ PROC				; C_Handler::GetW, COMDAT
; _this$ = ecx

; 213  : 		long  GetW() { return(FrontRect_.right-FrontRect_.left);}

	push	ebp
	mov	ebp, esp
	push	ecx
	mov	DWORD PTR _this$[ebp], ecx
	mov	eax, DWORD PTR _this$[ebp]
	mov	ecx, DWORD PTR _this$[ebp]
	mov	eax, DWORD PTR [eax+44]
	sub	eax, DWORD PTR [ecx+36]
	mov	esp, ebp
	pop	ebp
	ret	0
?GetW@C_Handler@@QAEJXZ ENDP				; C_Handler::GetW
_TEXT	ENDS
; Function compile flags: /Odtp
; File c:\users\zhitao li\documents\visual studio 2012\projects\freefalcon\ui95\chandler.h
;	COMDAT ?GetX@C_Handler@@QAEFXZ
_TEXT	SEGMENT
_this$ = -4						; size = 4
?GetX@C_Handler@@QAEFXZ PROC				; C_Handler::GetX, COMDAT
; _this$ = ecx

; 211  : 		short GetX() { return(0);}

	push	ebp
	mov	ebp, esp
	push	ecx
	mov	DWORD PTR _this$[ebp], ecx
	xor	eax, eax
	mov	esp, ebp
	pop	ebp
	ret	0
?GetX@C_Handler@@QAEFXZ ENDP				; C_Handler::GetX
_TEXT	ENDS
; Function compile flags: /Odtp
; File c:\users\zhitao li\documents\visual studio 2012\projects\freefalcon\ui95\chandler.h
;	COMDAT ?GetCritical@C_Handler@@QAEPAUF4CSECTIONHANDLE@@XZ
_TEXT	SEGMENT
_this$ = -4						; size = 4
?GetCritical@C_Handler@@QAEPAUF4CSECTIONHANDLE@@XZ PROC	; C_Handler::GetCritical, COMDAT
; _this$ = ecx

; 182  : 		F4CSECTIONHANDLE* GetCritical() { return(UI_Critical); }

	push	ebp
	mov	ebp, esp
	push	ecx
	mov	DWORD PTR _this$[ebp], ecx
	mov	eax, DWORD PTR _this$[ebp]
	mov	eax, DWORD PTR [eax+100]
	mov	esp, ebp
	pop	ebp
	ret	0
?GetCritical@C_Handler@@QAEPAUF4CSECTIONHANDLE@@XZ ENDP	; C_Handler::GetCritical
_TEXT	ENDS
; Function compile flags: /Odtp
;	COMDAT ??_GC_Window@@QAEPAXI@Z
_TEXT	SEGMENT
_this$ = -4						; size = 4
___flags$ = 8						; size = 4
??_GC_Window@@QAEPAXI@Z PROC				; C_Window::`scalar deleting destructor', COMDAT
; _this$ = ecx
	push	ebp
	mov	ebp, esp
	push	ecx
	mov	DWORD PTR _this$[ebp], ecx
	mov	ecx, DWORD PTR _this$[ebp]
	call	??1C_Window@@QAE@XZ			; C_Window::~C_Window
	mov	eax, DWORD PTR ___flags$[ebp]
	and	eax, 1
	je	SHORT $LN1@scalar
	mov	ecx, DWORD PTR _this$[ebp]
	push	ecx
	call	??3@YAXPAX@Z				; operator delete
	add	esp, 4
$LN1@scalar:
	mov	eax, DWORD PTR _this$[ebp]
	mov	esp, ebp
	pop	ebp
	ret	4
??_GC_Window@@QAEPAXI@Z ENDP				; C_Window::`scalar deleting destructor'
_TEXT	ENDS
; Function compile flags: /Odtp
; File c:\users\zhitao li\documents\visual studio 2012\projects\freefalcon\ui95\cwindow.h
;	COMDAT ?SetMenuFlags@C_Window@@QAEXJ@Z
_TEXT	SEGMENT
_this$ = -4						; size = 4
_flag$ = 8						; size = 4
?SetMenuFlags@C_Window@@QAEXJ@Z PROC			; C_Window::SetMenuFlags, COMDAT
; _this$ = ecx

; 328  : 		void SetMenuFlags(long flag) { MenuFlags_=flag; }

	push	ebp
	mov	ebp, esp
	push	ecx
	mov	DWORD PTR _this$[ebp], ecx
	mov	eax, DWORD PTR _this$[ebp]
	mov	ecx, DWORD PTR _flag$[ebp]
	mov	DWORD PTR [eax+36], ecx
	mov	esp, ebp
	pop	ebp
	ret	4
?SetMenuFlags@C_Window@@QAEXJ@Z ENDP			; C_Window::SetMenuFlags
_TEXT	ENDS
; Function compile flags: /Odtp
; File c:\users\zhitao li\documents\visual studio 2012\projects\freefalcon\ui95\cwindow.h
;	COMDAT ?GetH@C_Window@@QAEFXZ
_TEXT	SEGMENT
_this$ = -4						; size = 4
?GetH@C_Window@@QAEFXZ PROC				; C_Window::GetH, COMDAT
; _this$ = ecx

; 313  : 		short GetH() { return(h_); }

	push	ebp
	mov	ebp, esp
	push	ecx
	mov	DWORD PTR _this$[ebp], ecx
	mov	eax, DWORD PTR _this$[ebp]
	mov	ax, WORD PTR [eax+434]
	mov	esp, ebp
	pop	ebp
	ret	0
?GetH@C_Window@@QAEFXZ ENDP				; C_Window::GetH
_TEXT	ENDS
; Function compile flags: /Odtp
; File c:\users\zhitao li\documents\visual studio 2012\projects\freefalcon\ui95\cwindow.h
;	COMDAT ?GetW@C_Window@@QAEFXZ
_TEXT	SEGMENT
_this$ = -4						; size = 4
?GetW@C_Window@@QAEFXZ PROC				; C_Window::GetW, COMDAT
; _this$ = ecx

; 312  : 		short GetW() { return(w_); }

	push	ebp
	mov	ebp, esp
	push	ecx
	mov	DWORD PTR _this$[ebp], ecx
	mov	eax, DWORD PTR _this$[ebp]
	mov	ax, WORD PTR [eax+432]
	mov	esp, ebp
	pop	ebp
	ret	0
?GetW@C_Window@@QAEFXZ ENDP				; C_Window::GetW
_TEXT	ENDS
; Function compile flags: /Odtp
; File c:\users\zhitao li\documents\visual studio 2012\projects\freefalcon\ui95\cwindow.h
;	COMDAT ?GetY@C_Window@@QAEFXZ
_TEXT	SEGMENT
_this$ = -4						; size = 4
?GetY@C_Window@@QAEFXZ PROC				; C_Window::GetY, COMDAT
; _this$ = ecx

; 311  : 		short GetY() { return(y_); }

	push	ebp
	mov	ebp, esp
	push	ecx
	mov	DWORD PTR _this$[ebp], ecx
	mov	eax, DWORD PTR _this$[ebp]
	mov	ax, WORD PTR [eax+430]
	mov	esp, ebp
	pop	ebp
	ret	0
?GetY@C_Window@@QAEFXZ ENDP				; C_Window::GetY
_TEXT	ENDS
; Function compile flags: /Odtp
; File c:\users\zhitao li\documents\visual studio 2012\projects\freefalcon\ui95\cwindow.h
;	COMDAT ?GetX@C_Window@@QAEFXZ
_TEXT	SEGMENT
_this$ = -4						; size = 4
?GetX@C_Window@@QAEFXZ PROC				; C_Window::GetX, COMDAT
; _this$ = ecx

; 310  : 		short GetX() { return(x_); }

	push	ebp
	mov	ebp, esp
	push	ecx
	mov	DWORD PTR _this$[ebp], ecx
	mov	eax, DWORD PTR _this$[ebp]
	mov	ax, WORD PTR [eax+428]
	mov	esp, ebp
	pop	ebp
	ret	0
?GetX@C_Window@@QAEFXZ ENDP				; C_Window::GetX
_TEXT	ENDS
; Function compile flags: /Odtp
; File c:\users\zhitao li\documents\visual studio 2012\projects\freefalcon\ui95\cwindow.h
;	COMDAT ?SetOwner@C_Window@@QAEXPAVC_Base@@@Z
_TEXT	SEGMENT
_this$ = -4						; size = 4
_ctrl$ = 8						; size = 4
?SetOwner@C_Window@@QAEXPAVC_Base@@@Z PROC		; C_Window::SetOwner, COMDAT
; _this$ = ecx

; 286  : 		void SetOwner(C_Base *ctrl) { Owner_=ctrl; }

	push	ebp
	mov	ebp, esp
	push	ecx
	mov	DWORD PTR _this$[ebp], ecx
	mov	eax, DWORD PTR _this$[ebp]
	mov	ecx, DWORD PTR _ctrl$[ebp]
	mov	DWORD PTR [eax+4296], ecx
	mov	esp, ebp
	pop	ebp
	ret	4
?SetOwner@C_Window@@QAEXPAVC_Base@@@Z ENDP		; C_Window::SetOwner
_TEXT	ENDS
; Function compile flags: /Odtp
; File c:\users\zhitao li\documents\visual studio 2012\projects\freefalcon\ui95\cwindow.h
;	COMDAT ?SetDepth@C_Window@@QAEXF@Z
_TEXT	SEGMENT
_this$ = -4						; size = 4
_newdepth$ = 8						; size = 2
?SetDepth@C_Window@@QAEXF@Z PROC			; C_Window::SetDepth, COMDAT
; _this$ = ecx

; 245  : 		void SetDepth(short newdepth) { Depth_=newdepth; }

	push	ebp
	mov	ebp, esp
	push	ecx
	mov	DWORD PTR _this$[ebp], ecx
	mov	eax, DWORD PTR _this$[ebp]
	mov	cx, WORD PTR _newdepth$[ebp]
	mov	WORD PTR [eax+426], cx
	mov	esp, ebp
	pop	ebp
	ret	4
?SetDepth@C_Window@@QAEXF@Z ENDP			; C_Window::SetDepth
_TEXT	ENDS
; Function compile flags: /Odtp
; File c:\users\zhitao li\documents\visual studio 2012\projects\freefalcon\ui95\cwindow.h
;	COMDAT ?SetCritical@C_Window@@QAEXPAUF4CSECTIONHANDLE@@@Z
_TEXT	SEGMENT
_this$ = -4						; size = 4
_section$ = 8						; size = 4
?SetCritical@C_Window@@QAEXPAUF4CSECTIONHANDLE@@@Z PROC	; C_Window::SetCritical, COMDAT
; _this$ = ecx

; 232  : 		void SetCritical(F4CSECTIONHANDLE* section) { Critical=section; }

	push	ebp
	mov	ebp, esp
	push	ecx
	mov	DWORD PTR _this$[ebp], ecx
	mov	eax, DWORD PTR _this$[ebp]
	mov	ecx, DWORD PTR _section$[ebp]
	mov	DWORD PTR [eax+4320], ecx
	mov	esp, ebp
	pop	ebp
	ret	4
?SetCritical@C_Window@@QAEXPAUF4CSECTIONHANDLE@@@Z ENDP	; C_Window::SetCritical
_TEXT	ENDS
; Function compile flags: /Odtp
; File c:\users\zhitao li\documents\visual studio 2012\projects\freefalcon\ui95\cwindow.h
;	COMDAT ??1C_Window@@QAE@XZ
_TEXT	SEGMENT
_this$ = -4						; size = 4
??1C_Window@@QAE@XZ PROC				; C_Window::~C_Window, COMDAT
; _this$ = ecx

; 227  : 		~C_Window()			{ ; }

	push	ebp
	mov	ebp, esp
	push	ecx
	mov	DWORD PTR _this$[ebp], ecx
	mov	esp, ebp
	pop	ebp
	ret	0
??1C_Window@@QAE@XZ ENDP				; C_Window::~C_Window
_TEXT	ENDS
; Function compile flags: /Odtp
; File c:\users\zhitao li\documents\visual studio 2012\projects\freefalcon\ui95\cfill.h
;	COMDAT ?SetColor@C_Fill@@QAEXK@Z
_TEXT	SEGMENT
_Leave$ = -8						; size = 4
_this$ = -4						; size = 4
_color$ = 8						; size = 4
?SetColor@C_Fill@@QAEXK@Z PROC				; C_Fill::SetColor, COMDAT
; _this$ = ecx

; 32   : 		void SetColor(COLORREF color) { F4CSECTIONHANDLE* Leave=UI_Enter(Parent_); Color_=color; UI_Leave(Leave); }

	push	ebp
	mov	ebp, esp
	sub	esp, 8
	mov	DWORD PTR _this$[ebp], ecx
	mov	eax, DWORD PTR _this$[ebp]
	mov	ecx, DWORD PTR [eax+48]
	push	ecx
	call	?UI_Enter@@YAPAUF4CSECTIONHANDLE@@PAVC_Window@@@Z ; UI_Enter
	add	esp, 4
	mov	DWORD PTR _Leave$[ebp], eax
	mov	edx, DWORD PTR _this$[ebp]
	mov	eax, DWORD PTR _color$[ebp]
	mov	DWORD PTR [edx+56], eax
	mov	ecx, DWORD PTR _Leave$[ebp]
	push	ecx
	call	?UI_Leave@@YAXPAUF4CSECTIONHANDLE@@@Z	; UI_Leave
	add	esp, 4
	mov	esp, ebp
	pop	ebp
	ret	4
?SetColor@C_Fill@@QAEXK@Z ENDP				; C_Fill::SetColor
_TEXT	ENDS
; Function compile flags: /Odtp
;	COMDAT ??_GC_PopupList@@UAEPAXI@Z
_TEXT	SEGMENT
_this$ = -4						; size = 4
___flags$ = 8						; size = 4
??_GC_PopupList@@UAEPAXI@Z PROC				; C_PopupList::`scalar deleting destructor', COMDAT
; _this$ = ecx
	push	ebp
	mov	ebp, esp
	push	ecx
	mov	DWORD PTR _this$[ebp], ecx
	mov	ecx, DWORD PTR _this$[ebp]
	call	??1C_PopupList@@UAE@XZ			; C_PopupList::~C_PopupList
	mov	eax, DWORD PTR ___flags$[ebp]
	and	eax, 1
	je	SHORT $LN1@scalar
	mov	ecx, DWORD PTR _this$[ebp]
	push	ecx
	call	??3@YAXPAX@Z				; operator delete
	add	esp, 4
$LN1@scalar:
	mov	eax, DWORD PTR _this$[ebp]
	mov	esp, ebp
	pop	ebp
	ret	4
??_GC_PopupList@@UAEPAXI@Z ENDP				; C_PopupList::`scalar deleting destructor'
_TEXT	ENDS
; Function compile flags: /Odtp
; File c:\users\zhitao li\documents\visual studio 2012\projects\freefalcon\ui95\cpopup.h
;	COMDAT ?SaveText@C_PopupList@@UAEXPAXPAVC_Parser@@@Z
_TEXT	SEGMENT
_this$ = -4						; size = 4
___formal$ = 8						; size = 4
___formal$ = 12						; size = 4
?SaveText@C_PopupList@@UAEXPAXPAVC_Parser@@@Z PROC	; C_PopupList::SaveText, COMDAT
; _this$ = ecx

; 126  : 		void SaveText(HANDLE,C_Parser *)	{ ; }

	push	ebp
	mov	ebp, esp
	push	ecx
	mov	DWORD PTR _this$[ebp], ecx
	mov	esp, ebp
	pop	ebp
	ret	8
?SaveText@C_PopupList@@UAEXPAXPAVC_Parser@@@Z ENDP	; C_PopupList::SaveText
_TEXT	ENDS
; Function compile flags: /Odtp
; File c:\users\zhitao li\documents\visual studio 2012\projects\freefalcon\ui95\cpopup.cpp
_TEXT	SEGMENT
tv65 = -8						; size = 4
_this$ = -4						; size = 4
_ID$ = 8						; size = 2
_P$ = 12						; size = 4
___formal$ = 16						; size = 4
_Hndlr$ = 20						; size = 4
?LocalFunction@C_PopupList@@UAEXFQAJPADPAVC_Handler@@@Z PROC ; C_PopupList::LocalFunction
; _this$ = ecx

; 892  : {

	push	ebp
	mov	ebp, esp
	sub	esp, 8
	mov	DWORD PTR _this$[ebp], ecx

; 893  : 	switch(ID)

	movsx	eax, WORD PTR _ID$[ebp]
	mov	DWORD PTR tv65[ebp], eax
	mov	ecx, DWORD PTR tv65[ebp]
	sub	ecx, 1
	mov	DWORD PTR tv65[ebp], ecx
	cmp	DWORD PTR tv65[ebp], 12			; 0000000cH
	ja	$LN16@LocalFunct
	mov	edx, DWORD PTR tv65[ebp]
	jmp	DWORD PTR $LN18@LocalFunct[edx*4]
$LN13@LocalFunct:

; 894  : 	{
; 895  : 		case CPU_SETUP:
; 896  : 			Setup(P[0],(short)P[1],Hndlr,P[2],P[3]);

	mov	eax, 4
	imul	eax, 3
	mov	ecx, DWORD PTR _P$[ebp]
	mov	edx, DWORD PTR [ecx+eax]
	push	edx
	mov	eax, 4
	shl	eax, 1
	mov	ecx, DWORD PTR _P$[ebp]
	mov	edx, DWORD PTR [ecx+eax]
	push	edx
	mov	eax, DWORD PTR _Hndlr$[ebp]
	push	eax
	mov	ecx, 4
	shl	ecx, 0
	mov	edx, DWORD PTR _P$[ebp]
	movzx	eax, WORD PTR [edx+ecx]
	push	eax
	mov	ecx, 4
	imul	ecx, 0
	mov	edx, DWORD PTR _P$[ebp]
	mov	eax, DWORD PTR [edx+ecx]
	push	eax
	mov	ecx, DWORD PTR _this$[ebp]
	call	?Setup@C_PopupList@@QAEXJFPAVC_Handler@@JJ@Z ; C_PopupList::Setup

; 897  : 			break;

	jmp	$LN16@LocalFunct
$LN12@LocalFunct:

; 898  : 		case CPU_ADDITEM:
; 899  : 			AddItem(P[0],(short)P[1],P[2],P[3]);

	mov	ecx, 4
	imul	ecx, 3
	mov	edx, DWORD PTR _P$[ebp]
	mov	eax, DWORD PTR [edx+ecx]
	push	eax
	mov	ecx, 4
	shl	ecx, 1
	mov	edx, DWORD PTR _P$[ebp]
	mov	eax, DWORD PTR [edx+ecx]
	push	eax
	mov	ecx, 4
	shl	ecx, 0
	mov	edx, DWORD PTR _P$[ebp]
	movzx	eax, WORD PTR [edx+ecx]
	push	eax
	mov	ecx, 4
	imul	ecx, 0
	mov	edx, DWORD PTR _P$[ebp]
	mov	eax, DWORD PTR [edx+ecx]
	push	eax
	mov	ecx, DWORD PTR _this$[ebp]
	call	?AddItem@C_PopupList@@QAEHJFJJ@Z	; C_PopupList::AddItem

; 900  : 			break;

	jmp	$LN16@LocalFunct
$LN11@LocalFunct:

; 901  : 		case CPU_SETITEMFLAGBITON:
; 902  : 			SetItemFlagBitOn(P[0],P[1]);

	mov	ecx, 4
	shl	ecx, 0
	mov	edx, DWORD PTR _P$[ebp]
	mov	eax, DWORD PTR [edx+ecx]
	push	eax
	mov	ecx, 4
	imul	ecx, 0
	mov	edx, DWORD PTR _P$[ebp]
	mov	eax, DWORD PTR [edx+ecx]
	push	eax
	mov	ecx, DWORD PTR _this$[ebp]
	call	?SetItemFlagBitOn@C_PopupList@@QAEXJJ@Z	; C_PopupList::SetItemFlagBitOn

; 903  : 			break;

	jmp	$LN16@LocalFunct
$LN10@LocalFunct:

; 904  : 		case CPU_SETITEMFLAGBITOFF:
; 905  : 			SetItemFlagBitOff(P[0],P[1]);

	mov	ecx, 4
	shl	ecx, 0
	mov	edx, DWORD PTR _P$[ebp]
	mov	eax, DWORD PTR [edx+ecx]
	push	eax
	mov	ecx, 4
	imul	ecx, 0
	mov	edx, DWORD PTR _P$[ebp]
	mov	eax, DWORD PTR [edx+ecx]
	push	eax
	mov	ecx, DWORD PTR _this$[ebp]
	call	?SetItemFlagBitOff@C_PopupList@@QAEXJJ@Z ; C_PopupList::SetItemFlagBitOff

; 906  : 			break;

	jmp	$LN16@LocalFunct
$LN9@LocalFunct:

; 907  : 		case CPU_SETGROUP:
; 908  : 			SetItemGroup(P[0],P[1]);

	mov	ecx, 4
	shl	ecx, 0
	mov	edx, DWORD PTR _P$[ebp]
	mov	eax, DWORD PTR [edx+ecx]
	push	eax
	mov	ecx, 4
	imul	ecx, 0
	mov	edx, DWORD PTR _P$[ebp]
	mov	eax, DWORD PTR [edx+ecx]
	push	eax
	mov	ecx, DWORD PTR _this$[ebp]
	call	?SetItemGroup@C_PopupList@@QAEXJJ@Z	; C_PopupList::SetItemGroup

; 909  : 			break;

	jmp	$LN16@LocalFunct
$LN8@LocalFunct:

; 910  : 		case CPU_SETSTATE:
; 911  : 			SetItemState(P[0],(short)P[1]);

	mov	ecx, 4
	shl	ecx, 0
	mov	edx, DWORD PTR _P$[ebp]
	movzx	eax, WORD PTR [edx+ecx]
	push	eax
	mov	ecx, 4
	imul	ecx, 0
	mov	edx, DWORD PTR _P$[ebp]
	mov	eax, DWORD PTR [edx+ecx]
	push	eax
	mov	ecx, DWORD PTR _this$[ebp]
	call	?SetItemState@C_PopupList@@QAEXJF@Z	; C_PopupList::SetItemState

; 912  : 			break;

	jmp	$LN16@LocalFunct
$LN7@LocalFunct:

; 913  : 		case CPU_SETNORMCOLOR:
; 914  : 			SetNormColor(P[0]|(P[1] << 8)|(P[2]<<16));

	mov	ecx, 4
	imul	ecx, 0
	mov	edx, 4
	shl	edx, 0
	mov	eax, DWORD PTR _P$[ebp]
	mov	edx, DWORD PTR [eax+edx]
	shl	edx, 8
	mov	eax, DWORD PTR _P$[ebp]
	or	edx, DWORD PTR [eax+ecx]
	mov	ecx, 4
	shl	ecx, 1
	mov	eax, DWORD PTR _P$[ebp]
	mov	ecx, DWORD PTR [eax+ecx]
	shl	ecx, 16					; 00000010H
	or	edx, ecx
	push	edx
	mov	ecx, DWORD PTR _this$[ebp]
	call	?SetNormColor@C_PopupList@@QAEXK@Z	; C_PopupList::SetNormColor

; 915  : 			break;

	jmp	$LN16@LocalFunct
$LN6@LocalFunct:

; 916  : 		case CPU_SETSELCOLOR:
; 917  : 			SetSelColor(P[0]|(P[1] << 8)|(P[2]<<16));

	mov	edx, 4
	imul	edx, 0
	mov	eax, 4
	shl	eax, 0
	mov	ecx, DWORD PTR _P$[ebp]
	mov	eax, DWORD PTR [ecx+eax]
	shl	eax, 8
	mov	ecx, DWORD PTR _P$[ebp]
	or	eax, DWORD PTR [ecx+edx]
	mov	edx, 4
	shl	edx, 1
	mov	ecx, DWORD PTR _P$[ebp]
	mov	edx, DWORD PTR [ecx+edx]
	shl	edx, 16					; 00000010H
	or	eax, edx
	push	eax
	mov	ecx, DWORD PTR _this$[ebp]
	call	?SetSelColor@C_PopupList@@QAEXK@Z	; C_PopupList::SetSelColor

; 918  : 			break;

	jmp	$LN16@LocalFunct
$LN5@LocalFunct:

; 919  : 		case CPU_SETDISCOLOR:
; 920  : 			SetDisColor(P[0]|(P[1] << 8)|(P[2]<<16));

	mov	eax, 4
	imul	eax, 0
	mov	ecx, 4
	shl	ecx, 0
	mov	edx, DWORD PTR _P$[ebp]
	mov	ecx, DWORD PTR [edx+ecx]
	shl	ecx, 8
	mov	edx, DWORD PTR _P$[ebp]
	or	ecx, DWORD PTR [edx+eax]
	mov	eax, 4
	shl	eax, 1
	mov	edx, DWORD PTR _P$[ebp]
	mov	eax, DWORD PTR [edx+eax]
	shl	eax, 16					; 00000010H
	or	ecx, eax
	push	ecx
	mov	ecx, DWORD PTR _this$[ebp]
	call	?SetDisColor@C_PopupList@@QAEXK@Z	; C_PopupList::SetDisColor

; 921  : 			break;

	jmp	$LN16@LocalFunct
$LN4@LocalFunct:

; 922  : 		case CPU_SETBARCOLOR:
; 923  : 			SetBarColor(P[0]|(P[1] << 8)|(P[2]<<16));

	mov	ecx, 4
	imul	ecx, 0
	mov	edx, 4
	shl	edx, 0
	mov	eax, DWORD PTR _P$[ebp]
	mov	edx, DWORD PTR [eax+edx]
	shl	edx, 8
	mov	eax, DWORD PTR _P$[ebp]
	or	edx, DWORD PTR [eax+ecx]
	mov	ecx, 4
	shl	ecx, 1
	mov	eax, DWORD PTR _P$[ebp]
	mov	ecx, DWORD PTR [eax+ecx]
	shl	ecx, 16					; 00000010H
	or	edx, ecx
	push	edx
	mov	ecx, DWORD PTR _this$[ebp]
	call	?SetBarColor@C_PopupList@@QAEXK@Z	; C_PopupList::SetBarColor

; 924  : 			break;

	jmp	$LN16@LocalFunct
$LN3@LocalFunct:

; 925  : 		case CPU_SETBGCOLOR:
; 926  : 			SetBgColor(P[0]|(P[1] << 8)|(P[2]<<16));

	mov	edx, 4
	imul	edx, 0
	mov	eax, 4
	shl	eax, 0
	mov	ecx, DWORD PTR _P$[ebp]
	mov	eax, DWORD PTR [ecx+eax]
	shl	eax, 8
	mov	ecx, DWORD PTR _P$[ebp]
	or	eax, DWORD PTR [ecx+edx]
	mov	edx, 4
	shl	edx, 1
	mov	ecx, DWORD PTR _P$[ebp]
	mov	edx, DWORD PTR [ecx+edx]
	shl	edx, 16					; 00000010H
	or	eax, edx
	push	eax
	mov	ecx, DWORD PTR _this$[ebp]
	call	?SetBgColor@C_PopupList@@QAEXK@Z	; C_PopupList::SetBgColor

; 927  : 			break;

	jmp	SHORT $LN16@LocalFunct
$LN2@LocalFunct:

; 928  : 		case CPU_SETOPAQUE:
; 929  : 			SetOpaque(P[0]);

	mov	eax, 4
	imul	eax, 0
	mov	ecx, DWORD PTR _P$[ebp]
	mov	edx, DWORD PTR [ecx+eax]
	push	edx
	mov	ecx, DWORD PTR _this$[ebp]
	call	?SetOpaque@C_PopupList@@QAEXJ@Z		; C_PopupList::SetOpaque

; 930  : 			break;

	jmp	SHORT $LN16@LocalFunct
$LN1@LocalFunct:

; 931  : 		case CPU_SETBORDERCOLOR:
; 932  : 			SetBorderColor(P[0] | ((P[1] & 0xff) << 8) | ((P[2] & 0xff) << 16));

	mov	eax, 4
	imul	eax, 0
	mov	ecx, 4
	shl	ecx, 0
	mov	edx, DWORD PTR _P$[ebp]
	mov	ecx, DWORD PTR [edx+ecx]
	and	ecx, 255				; 000000ffH
	shl	ecx, 8
	mov	edx, DWORD PTR _P$[ebp]
	or	ecx, DWORD PTR [edx+eax]
	mov	eax, 4
	shl	eax, 1
	mov	edx, DWORD PTR _P$[ebp]
	mov	eax, DWORD PTR [edx+eax]
	and	eax, 255				; 000000ffH
	shl	eax, 16					; 00000010H
	or	ecx, eax
	push	ecx
	mov	ecx, DWORD PTR _this$[ebp]
	call	?SetBorderColor@C_PopupList@@QAEXK@Z	; C_PopupList::SetBorderColor
$LN16@LocalFunct:

; 933  : 			break;
; 934  : 	}
; 935  : }

	mov	esp, ebp
	pop	ebp
	ret	16					; 00000010H
$LN18@LocalFunct:
	DD	$LN13@LocalFunct
	DD	$LN12@LocalFunct
	DD	$LN11@LocalFunct
	DD	$LN10@LocalFunct
	DD	$LN9@LocalFunct
	DD	$LN8@LocalFunct
	DD	$LN7@LocalFunct
	DD	$LN6@LocalFunct
	DD	$LN5@LocalFunct
	DD	$LN4@LocalFunct
	DD	$LN3@LocalFunct
	DD	$LN2@LocalFunct
	DD	$LN1@LocalFunct
?LocalFunction@C_PopupList@@UAEXFQAJPADPAVC_Handler@@@Z ENDP ; C_PopupList::LocalFunction
_TEXT	ENDS
; Function compile flags: /Odtp
; File c:\users\zhitao li\documents\visual studio 2012\projects\freefalcon\ui95\cpopup.cpp
_TEXT	SEGMENT
_this$ = -8						; size = 4
_i$ = -4						; size = 2
_token$ = 8						; size = 4
?LocalFind@C_PopupList@@UAEFPAD@Z PROC			; C_PopupList::LocalFind
; _this$ = ecx

; 879  : {

	push	ebp
	mov	ebp, esp
	sub	esp, 8
	mov	DWORD PTR _this$[ebp], ecx

; 880  : 	short i=0;

	xor	eax, eax
	mov	WORD PTR _i$[ebp], ax
$LN3@LocalFind:

; 881  : 
; 882  : 	while(C_Pu_Tokens[i])

	movsx	ecx, WORD PTR _i$[ebp]
	cmp	DWORD PTR ?C_Pu_Tokens@@3PAPADA[ecx*4], 0
	je	SHORT $LN2@LocalFind

; 883  : 	{
; 884  : 		if(strnicmp(token,C_Pu_Tokens[i],strlen(C_Pu_Tokens[i])) == 0)

	movsx	edx, WORD PTR _i$[ebp]
	mov	eax, DWORD PTR ?C_Pu_Tokens@@3PAPADA[edx*4]
	push	eax
	call	_strlen
	add	esp, 4
	push	eax
	movsx	ecx, WORD PTR _i$[ebp]
	mov	edx, DWORD PTR ?C_Pu_Tokens@@3PAPADA[ecx*4]
	push	edx
	mov	eax, DWORD PTR _token$[ebp]
	push	eax
	call	_strnicmp
	add	esp, 12					; 0000000cH
	test	eax, eax
	jne	SHORT $LN1@LocalFind

; 885  : 			return(i);

	mov	ax, WORD PTR _i$[ebp]
	jmp	SHORT $LN4@LocalFind
$LN1@LocalFind:

; 886  : 		i++;

	mov	cx, WORD PTR _i$[ebp]
	add	cx, 1
	mov	WORD PTR _i$[ebp], cx

; 887  : 	}

	jmp	SHORT $LN3@LocalFind
$LN2@LocalFind:

; 888  : 	return(0);

	xor	eax, eax
$LN4@LocalFind:

; 889  : }

	mov	esp, ebp
	pop	ebp
	ret	4
?LocalFind@C_PopupList@@UAEFPAD@Z ENDP			; C_PopupList::LocalFind
_TEXT	ENDS
; Function compile flags: /Odtp
; File c:\users\zhitao li\documents\visual studio 2012\projects\freefalcon\ui95\cpopup.cpp
_TEXT	SEGMENT
_Leave$ = -28						; size = 4
_cur$ = -24						; size = 4
_this$ = -20						; size = 4
_h$ = -16						; size = 2
_i$ = -12						; size = 2
_item$ = -8						; size = 2
_w$ = -4						; size = 2
_relX$ = 8						; size = 4
_relY$ = 12						; size = 4
___formal$ = 16						; size = 4
?MouseOver@C_PopupList@@UAEHJJPAVC_Base@@@Z PROC	; C_PopupList::MouseOver
; _this$ = ecx

; 553  : {

	push	ebp
	mov	ebp, esp
	sub	esp, 28					; 0000001cH
	push	esi
	mov	DWORD PTR _this$[ebp], ecx

; 554  : 	POPUPLIST *cur;
; 555  : 	short i,item,w,h;
; 556  : 
; 557  : 	if(relX < Parent_->ClientArea_[GetClient()].left || relX > Parent_->ClientArea_[GetClient()].right ||
; 558  : 	   relY < Parent_->ClientArea_[GetClient()].top || relY > Parent_->ClientArea_[GetClient()].bottom)

	mov	eax, DWORD PTR _this$[ebp]
	mov	esi, DWORD PTR [eax+48]
	mov	ecx, DWORD PTR _this$[ebp]
	call	?GetClient@C_Base@@QAEFXZ		; C_Base::GetClient
	movsx	ecx, ax
	shl	ecx, 4
	mov	edx, DWORD PTR _relX$[ebp]
	cmp	edx, DWORD PTR [esi+ecx+168]
	jl	SHORT $LN22@MouseOver
	mov	eax, DWORD PTR _this$[ebp]
	mov	esi, DWORD PTR [eax+48]
	mov	ecx, DWORD PTR _this$[ebp]
	call	?GetClient@C_Base@@QAEFXZ		; C_Base::GetClient
	movsx	ecx, ax
	shl	ecx, 4
	mov	edx, DWORD PTR _relX$[ebp]
	cmp	edx, DWORD PTR [esi+ecx+176]
	jg	SHORT $LN22@MouseOver
	mov	eax, DWORD PTR _this$[ebp]
	mov	esi, DWORD PTR [eax+48]
	mov	ecx, DWORD PTR _this$[ebp]
	call	?GetClient@C_Base@@QAEFXZ		; C_Base::GetClient
	movsx	ecx, ax
	shl	ecx, 4
	mov	edx, DWORD PTR _relY$[ebp]
	cmp	edx, DWORD PTR [esi+ecx+172]
	jl	SHORT $LN22@MouseOver
	mov	eax, DWORD PTR _this$[ebp]
	mov	esi, DWORD PTR [eax+48]
	mov	ecx, DWORD PTR _this$[ebp]
	call	?GetClient@C_Base@@QAEFXZ		; C_Base::GetClient
	movsx	ecx, ax
	shl	ecx, 4
	mov	edx, DWORD PTR _relY$[ebp]
	cmp	edx, DWORD PTR [esi+ecx+180]
	jle	SHORT $LN23@MouseOver
$LN22@MouseOver:

; 559  : 	{
; 560  : /*		CloseSubMenus();
; 561  : 		CloseWindow();
; 562  : */
; 563  : 		return(TRUE);

	mov	eax, 1
	jmp	$LN24@MouseOver
$LN23@MouseOver:

; 564  : 	}
; 565  : 
; 566  : 	F4CSECTIONHANDLE* Leave=UI_Enter(Parent_);

	mov	eax, DWORD PTR _this$[ebp]
	mov	ecx, DWORD PTR [eax+48]
	push	ecx
	call	?UI_Enter@@YAPAUF4CSECTIONHANDLE@@PAVC_Window@@@Z ; UI_Enter
	add	esp, 4
	mov	DWORD PTR _Leave$[ebp], eax

; 567  : 
; 568  : 	item=static_cast<short>((relY-5)/gFontList->GetHeight(GetFont()));

	mov	esi, DWORD PTR _relY$[ebp]
	sub	esi, 5
	mov	edx, DWORD PTR _this$[ebp]
	mov	eax, DWORD PTR [edx]
	mov	ecx, DWORD PTR _this$[ebp]
	mov	edx, DWORD PTR [eax+124]
	call	edx
	push	eax
	mov	ecx, DWORD PTR ?gFontList@@3PAVC_Font@@A ; gFontList
	call	?GetHeight@C_Font@@QAEHJ@Z		; C_Font::GetHeight
	mov	ecx, eax
	mov	eax, esi
	cdq
	idiv	ecx
	mov	WORD PTR _item$[ebp], ax

; 569  : 
; 570  : 	if(item != Selected_)

	movsx	edx, WORD PTR _item$[ebp]
	mov	eax, DWORD PTR _this$[ebp]
	movsx	ecx, WORD PTR [eax+148]
	cmp	edx, ecx
	je	$LN21@MouseOver

; 571  : 	{
; 572  : 		Refresh();

	mov	edx, DWORD PTR _this$[ebp]
	mov	eax, DWORD PTR [edx]
	mov	ecx, DWORD PTR _this$[ebp]
	mov	edx, DWORD PTR [eax+160]
	call	edx

; 573  : 
; 574  : 		i=0;

	xor	eax, eax
	mov	WORD PTR _i$[ebp], ax

; 575  : 		cur=Root_;

	mov	ecx, DWORD PTR _this$[ebp]
	mov	edx, DWORD PTR [ecx+152]
	mov	DWORD PTR _cur$[ebp], edx
$LN20@MouseOver:

; 576  : 		while(cur)

	cmp	DWORD PTR _cur$[ebp], 0
	je	SHORT $LN19@MouseOver

; 577  : 		{
; 578  : 			if(cur->flags_ & C_BIT_ENABLED)

	mov	eax, DWORD PTR _cur$[ebp]
	mov	ecx, DWORD PTR [eax+4]
	and	ecx, 2048				; 00000800H
	je	SHORT $LN18@MouseOver

; 579  : 			{
; 580  : 				if(cur->Type_ == C_TYPE_MENU && cur->SubMenu_)

	mov	edx, DWORD PTR _cur$[ebp]
	movsx	eax, WORD PTR [edx+36]
	cmp	eax, 49					; 00000031H
	jne	SHORT $LN18@MouseOver
	mov	ecx, DWORD PTR _cur$[ebp]
	cmp	DWORD PTR [ecx+24], 0
	je	SHORT $LN18@MouseOver

; 581  : 				{
; 582  : 					if(cur->SubMenu_->Window_)

	mov	edx, DWORD PTR _cur$[ebp]
	mov	eax, DWORD PTR [edx+24]
	cmp	DWORD PTR [eax+156], 0
	je	SHORT $LN18@MouseOver

; 583  : 					{
; 584  : 						cur->SubMenu_->CloseSubMenus();

	mov	ecx, DWORD PTR _cur$[ebp]
	mov	ecx, DWORD PTR [ecx+24]
	call	?CloseSubMenus@C_PopupList@@QAEXXZ	; C_PopupList::CloseSubMenus

; 585  : 						cur->SubMenu_->CloseWindow();

	mov	edx, DWORD PTR _cur$[ebp]
	mov	eax, DWORD PTR [edx+24]
	mov	ecx, DWORD PTR _cur$[ebp]
	mov	edx, DWORD PTR [eax]
	mov	ecx, DWORD PTR [ecx+24]
	mov	eax, DWORD PTR [edx+204]
	call	eax
$LN18@MouseOver:

; 586  : 					}
; 587  : 				}
; 588  : 			}
; 589  : 			cur=cur->Next;

	mov	ecx, DWORD PTR _cur$[ebp]
	mov	edx, DWORD PTR [ecx+32]
	mov	DWORD PTR _cur$[ebp], edx

; 590  : 		}

	jmp	SHORT $LN20@MouseOver
$LN19@MouseOver:

; 591  : 
; 592  : 		Selected_=item;

	mov	eax, DWORD PTR _this$[ebp]
	mov	cx, WORD PTR _item$[ebp]
	mov	WORD PTR [eax+148], cx

; 593  : 
; 594  : 		cur=Root_;

	mov	edx, DWORD PTR _this$[ebp]
	mov	eax, DWORD PTR [edx+152]
	mov	DWORD PTR _cur$[ebp], eax
$LN15@MouseOver:

; 595  : 		while(cur && i < item)

	cmp	DWORD PTR _cur$[ebp], 0
	je	SHORT $LN12@MouseOver
	movsx	ecx, WORD PTR _i$[ebp]
	movsx	edx, WORD PTR _item$[ebp]
	cmp	ecx, edx
	jge	SHORT $LN12@MouseOver

; 596  : 		{
; 597  : 			if(!(cur->flags_ & C_BIT_INVISIBLE))

	mov	eax, DWORD PTR _cur$[ebp]
	mov	ecx, DWORD PTR [eax+4]
	and	ecx, 8192				; 00002000H
	jne	SHORT $LN13@MouseOver

; 598  : 				i++;

	mov	dx, WORD PTR _i$[ebp]
	add	dx, 1
	mov	WORD PTR _i$[ebp], dx
$LN13@MouseOver:

; 599  : 			cur=cur->Next;

	mov	eax, DWORD PTR _cur$[ebp]
	mov	ecx, DWORD PTR [eax+32]
	mov	DWORD PTR _cur$[ebp], ecx

; 600  : 		}

	jmp	SHORT $LN15@MouseOver
$LN12@MouseOver:

; 601  : 
; 602  : 		while(cur && (cur->flags_ & C_BIT_INVISIBLE))

	cmp	DWORD PTR _cur$[ebp], 0
	je	SHORT $LN11@MouseOver
	mov	edx, DWORD PTR _cur$[ebp]
	mov	eax, DWORD PTR [edx+4]
	and	eax, 8192				; 00002000H
	je	SHORT $LN11@MouseOver

; 603  : 			cur=cur->Next;

	mov	ecx, DWORD PTR _cur$[ebp]
	mov	edx, DWORD PTR [ecx+32]
	mov	DWORD PTR _cur$[ebp], edx
	jmp	SHORT $LN12@MouseOver
$LN11@MouseOver:

; 604  : 
; 605  : 		if(cur == NULL)

	cmp	DWORD PTR _cur$[ebp], 0
	jne	SHORT $LN10@MouseOver

; 606  : 		{
; 607  : 			UI_Leave(Leave);

	mov	eax, DWORD PTR _Leave$[ebp]
	push	eax
	call	?UI_Leave@@YAXPAUF4CSECTIONHANDLE@@@Z	; UI_Leave
	add	esp, 4

; 608  : 			return(TRUE);

	mov	eax, 1
	jmp	$LN24@MouseOver
$LN10@MouseOver:

; 609  : 		}
; 610  : 
; 611  : 		if(cur->flags_ & C_BIT_ENABLED && !(cur->flags_ & C_BIT_INVISIBLE))

	mov	ecx, DWORD PTR _cur$[ebp]
	mov	edx, DWORD PTR [ecx+4]
	and	edx, 2048				; 00000800H
	je	$LN21@MouseOver
	mov	eax, DWORD PTR _cur$[ebp]
	mov	ecx, DWORD PTR [eax+4]
	and	ecx, 8192				; 00002000H
	jne	$LN21@MouseOver

; 612  : 		{
; 613  : 			if(cur->Type_ == C_TYPE_MENU)

	mov	edx, DWORD PTR _cur$[ebp]
	movsx	eax, WORD PTR [edx+36]
	cmp	eax, 49					; 00000031H
	jne	$LN21@MouseOver

; 614  : 			{
; 615  : 				if(cur->SubMenu_)

	mov	ecx, DWORD PTR _cur$[ebp]
	cmp	DWORD PTR [ecx+24], 0
	je	$LN21@MouseOver

; 616  : 				{
; 617  : 					cur->SubMenu_->GetSize(&w,&h);

	lea	edx, DWORD PTR _h$[ebp]
	push	edx
	lea	eax, DWORD PTR _w$[ebp]
	push	eax
	mov	ecx, DWORD PTR _cur$[ebp]
	mov	ecx, DWORD PTR [ecx+24]
	call	?GetSize@C_PopupList@@AAEXPAF0@Z	; C_PopupList::GetSize

; 618  : 					if(Direction_ == C_TYPE_RIGHT)

	mov	edx, DWORD PTR _this$[ebp]
	movsx	eax, WORD PTR [edx+146]
	cmp	eax, 46					; 0000002eH
	jne	$LN6@MouseOver

; 619  : 					{
; 620  : 						if((Parent_->GetX()+Parent_->GetW()+w+48-15) < Handler_->GetW())

	mov	ecx, DWORD PTR _this$[ebp]
	mov	ecx, DWORD PTR [ecx+48]
	call	?GetX@C_Window@@QAEFXZ			; C_Window::GetX
	movsx	esi, ax
	mov	edx, DWORD PTR _this$[ebp]
	mov	ecx, DWORD PTR [edx+48]
	call	?GetW@C_Window@@QAEFXZ			; C_Window::GetW
	cwde
	add	esi, eax
	movsx	ecx, WORD PTR _w$[ebp]
	lea	esi, DWORD PTR [esi+ecx+33]
	mov	edx, DWORD PTR _this$[ebp]
	mov	ecx, DWORD PTR [edx+160]
	call	?GetW@C_Handler@@QAEJXZ			; C_Handler::GetW
	cmp	esi, eax
	jge	SHORT $LN5@MouseOver

; 621  : 							cur->SubMenu_->OpenWindow(static_cast<short>(Parent_->GetX()+Parent_->GetW()-15),
; 622  : 													  static_cast<short>(Selected_*gFontList->GetHeight(GetFont())+Parent_->GetY()),
; 623  : 													  C_TYPE_RIGHT); //! 

	push	46					; 0000002eH
	mov	eax, DWORD PTR _this$[ebp]
	movsx	esi, WORD PTR [eax+148]
	mov	ecx, DWORD PTR _this$[ebp]
	mov	edx, DWORD PTR [ecx]
	mov	ecx, DWORD PTR _this$[ebp]
	mov	eax, DWORD PTR [edx+124]
	call	eax
	push	eax
	mov	ecx, DWORD PTR ?gFontList@@3PAVC_Font@@A ; gFontList
	call	?GetHeight@C_Font@@QAEHJ@Z		; C_Font::GetHeight
	imul	esi, eax
	mov	ecx, DWORD PTR _this$[ebp]
	mov	ecx, DWORD PTR [ecx+48]
	call	?GetY@C_Window@@QAEFXZ			; C_Window::GetY
	movsx	edx, ax
	add	esi, edx
	push	esi
	mov	eax, DWORD PTR _this$[ebp]
	mov	ecx, DWORD PTR [eax+48]
	call	?GetX@C_Window@@QAEFXZ			; C_Window::GetX
	movsx	esi, ax
	mov	ecx, DWORD PTR _this$[ebp]
	mov	ecx, DWORD PTR [ecx+48]
	call	?GetW@C_Window@@QAEFXZ			; C_Window::GetW
	movsx	edx, ax
	lea	eax, DWORD PTR [esi+edx-15]
	push	eax
	mov	ecx, DWORD PTR _cur$[ebp]
	mov	ecx, DWORD PTR [ecx+24]
	call	?OpenWindow@C_PopupList@@QAEHFFF@Z	; C_PopupList::OpenWindow

; 624  : 						else

	jmp	SHORT $LN4@MouseOver
$LN5@MouseOver:

; 625  : 							cur->SubMenu_->OpenWindow(static_cast<short>(Parent_->GetX()-w-48+15),
; 626  : 													  static_cast<short>(Selected_*gFontList->GetHeight(GetFont())+Parent_->GetY()),
; 627  : 													  C_TYPE_LEFT);	//! 

	push	44					; 0000002cH
	mov	edx, DWORD PTR _this$[ebp]
	movsx	esi, WORD PTR [edx+148]
	mov	eax, DWORD PTR _this$[ebp]
	mov	edx, DWORD PTR [eax]
	mov	ecx, DWORD PTR _this$[ebp]
	mov	eax, DWORD PTR [edx+124]
	call	eax
	push	eax
	mov	ecx, DWORD PTR ?gFontList@@3PAVC_Font@@A ; gFontList
	call	?GetHeight@C_Font@@QAEHJ@Z		; C_Font::GetHeight
	imul	esi, eax
	mov	ecx, DWORD PTR _this$[ebp]
	mov	ecx, DWORD PTR [ecx+48]
	call	?GetY@C_Window@@QAEFXZ			; C_Window::GetY
	movsx	edx, ax
	add	esi, edx
	push	esi
	mov	eax, DWORD PTR _this$[ebp]
	mov	ecx, DWORD PTR [eax+48]
	call	?GetX@C_Window@@QAEFXZ			; C_Window::GetX
	movsx	ecx, ax
	movsx	edx, WORD PTR _w$[ebp]
	sub	ecx, edx
	sub	ecx, 33					; 00000021H
	push	ecx
	mov	eax, DWORD PTR _cur$[ebp]
	mov	ecx, DWORD PTR [eax+24]
	call	?OpenWindow@C_PopupList@@QAEHFFF@Z	; C_PopupList::OpenWindow
$LN4@MouseOver:

; 628  : 					}
; 629  : 					else

	jmp	$LN21@MouseOver
$LN6@MouseOver:

; 630  : 					{
; 631  : 						if((Parent_->GetX()-w-48+15) > Handler_->GetX())

	mov	ecx, DWORD PTR _this$[ebp]
	mov	ecx, DWORD PTR [ecx+48]
	call	?GetX@C_Window@@QAEFXZ			; C_Window::GetX
	movsx	esi, ax
	movsx	edx, WORD PTR _w$[ebp]
	sub	esi, edx
	sub	esi, 33					; 00000021H
	mov	eax, DWORD PTR _this$[ebp]
	mov	ecx, DWORD PTR [eax+160]
	call	?GetX@C_Handler@@QAEFXZ			; C_Handler::GetX
	movsx	ecx, ax
	cmp	esi, ecx
	jle	SHORT $LN2@MouseOver

; 632  : 							cur->SubMenu_->OpenWindow(static_cast<short>(Parent_->GetX()-w-48+15),
; 633  : 													  static_cast<short>(Selected_*gFontList->GetHeight(GetFont())+Parent_->GetY()),
; 634  : 													  C_TYPE_LEFT);	 //! 

	push	44					; 0000002cH
	mov	edx, DWORD PTR _this$[ebp]
	movsx	esi, WORD PTR [edx+148]
	mov	eax, DWORD PTR _this$[ebp]
	mov	edx, DWORD PTR [eax]
	mov	ecx, DWORD PTR _this$[ebp]
	mov	eax, DWORD PTR [edx+124]
	call	eax
	push	eax
	mov	ecx, DWORD PTR ?gFontList@@3PAVC_Font@@A ; gFontList
	call	?GetHeight@C_Font@@QAEHJ@Z		; C_Font::GetHeight
	imul	esi, eax
	mov	ecx, DWORD PTR _this$[ebp]
	mov	ecx, DWORD PTR [ecx+48]
	call	?GetY@C_Window@@QAEFXZ			; C_Window::GetY
	movsx	edx, ax
	add	esi, edx
	push	esi
	mov	eax, DWORD PTR _this$[ebp]
	mov	ecx, DWORD PTR [eax+48]
	call	?GetX@C_Window@@QAEFXZ			; C_Window::GetX
	movsx	ecx, ax
	movsx	edx, WORD PTR _w$[ebp]
	sub	ecx, edx
	sub	ecx, 33					; 00000021H
	push	ecx
	mov	eax, DWORD PTR _cur$[ebp]
	mov	ecx, DWORD PTR [eax+24]
	call	?OpenWindow@C_PopupList@@QAEHFFF@Z	; C_PopupList::OpenWindow

; 635  : 						else

	jmp	SHORT $LN21@MouseOver
$LN2@MouseOver:

; 636  : 							cur->SubMenu_->OpenWindow(static_cast<short>(Parent_->GetX()+Parent_->GetW()-15),
; 637  : 													  static_cast<short>(Selected_*gFontList->GetHeight(GetFont())+Parent_->GetY()),
; 638  : 													  C_TYPE_RIGHT); //! 

	push	46					; 0000002eH
	mov	ecx, DWORD PTR _this$[ebp]
	movsx	esi, WORD PTR [ecx+148]
	mov	edx, DWORD PTR _this$[ebp]
	mov	eax, DWORD PTR [edx]
	mov	ecx, DWORD PTR _this$[ebp]
	mov	edx, DWORD PTR [eax+124]
	call	edx
	push	eax
	mov	ecx, DWORD PTR ?gFontList@@3PAVC_Font@@A ; gFontList
	call	?GetHeight@C_Font@@QAEHJ@Z		; C_Font::GetHeight
	imul	esi, eax
	mov	eax, DWORD PTR _this$[ebp]
	mov	ecx, DWORD PTR [eax+48]
	call	?GetY@C_Window@@QAEFXZ			; C_Window::GetY
	movsx	ecx, ax
	add	esi, ecx
	push	esi
	mov	edx, DWORD PTR _this$[ebp]
	mov	ecx, DWORD PTR [edx+48]
	call	?GetX@C_Window@@QAEFXZ			; C_Window::GetX
	movsx	esi, ax
	mov	eax, DWORD PTR _this$[ebp]
	mov	ecx, DWORD PTR [eax+48]
	call	?GetW@C_Window@@QAEFXZ			; C_Window::GetW
	movsx	ecx, ax
	lea	edx, DWORD PTR [esi+ecx-15]
	push	edx
	mov	eax, DWORD PTR _cur$[ebp]
	mov	ecx, DWORD PTR [eax+24]
	call	?OpenWindow@C_PopupList@@QAEHFFF@Z	; C_PopupList::OpenWindow
$LN21@MouseOver:

; 639  : 					}
; 640  : 				}
; 641  : 			}
; 642  : 		}
; 643  : 	}
; 644  : 	UI_Leave(Leave);

	mov	ecx, DWORD PTR _Leave$[ebp]
	push	ecx
	call	?UI_Leave@@YAXPAUF4CSECTIONHANDLE@@@Z	; UI_Leave
	add	esp, 4

; 645  : 	return(TRUE);

	mov	eax, 1
$LN24@MouseOver:

; 646  : }

	pop	esi
	mov	esp, ebp
	pop	ebp
	ret	12					; 0000000cH
?MouseOver@C_PopupList@@UAEHJJPAVC_Base@@@Z ENDP	; C_PopupList::MouseOver
_TEXT	ENDS
; Function compile flags: /Odtp
; File c:\users\zhitao li\documents\visual studio 2012\projects\freefalcon\ui95\cpopup.cpp
_TEXT	SEGMENT
_fh$ = -52						; size = 2
_i$ = -48						; size = 2
_cur$ = -44						; size = 4
_this$ = -40						; size = 4
_frect$ = -36						; size = 16
_drect$ = -20						; size = 16
__$ArrayPad$ = -4					; size = 4
_surface$ = 8						; size = 4
_cliprect$ = 12						; size = 4
?Draw@C_PopupList@@UAEXPAVSCREEN@@PAUUI95_RECT@@@Z PROC	; C_PopupList::Draw
; _this$ = ecx

; 658  : {

	push	ebp
	mov	ebp, esp
	sub	esp, 52					; 00000034H
	mov	eax, DWORD PTR ___security_cookie
	xor	eax, ebp
	mov	DWORD PTR __$ArrayPad$[ebp], eax
	mov	DWORD PTR _this$[ebp], ecx

; 659  : 	POPUPLIST *cur;
; 660  : 	short i;
; 661  : 	short fh;
; 662  : 	UI95_RECT frect,drect;
; 663  : 
; 664  : 	if(!Ready())

	mov	ecx, DWORD PTR _this$[ebp]
	call	?Ready@C_Base@@QAEFXZ			; C_Base::Ready
	cwde
	test	eax, eax
	jne	SHORT $LN27@Draw

; 665  : 		return;

	jmp	$LN28@Draw
$LN27@Draw:

; 666  : 
; 667  : 	if(GetFlags() & C_BIT_INVISIBLE)

	mov	ecx, DWORD PTR _this$[ebp]
	call	?GetFlags@C_Base@@QAEJXZ		; C_Base::GetFlags
	and	eax, 8192				; 00002000H
	je	SHORT $LN26@Draw

; 668  : 		return;

	jmp	$LN28@Draw
$LN26@Draw:

; 669  : 
; 670  : 	// Draw border
; 671  : 	if(BorderColor_ != BgColor_)

	mov	ecx, DWORD PTR _this$[ebp]
	mov	edx, DWORD PTR _this$[ebp]
	mov	eax, DWORD PTR [ecx+140]
	cmp	eax, DWORD PTR [edx+136]
	je	$LN25@Draw

; 672  : 	{
; 673  : 		Parent_->DrawHLine(surface,BorderColor_,0,0,Parent_->GetW(),C_BIT_ABSOLUTE,GetClient(),cliprect);

	mov	ecx, DWORD PTR _cliprect$[ebp]
	push	ecx
	mov	ecx, DWORD PTR _this$[ebp]
	call	?GetClient@C_Base@@QAEFXZ		; C_Base::GetClient
	movsx	edx, ax
	push	edx
	push	262144					; 00040000H
	mov	eax, DWORD PTR _this$[ebp]
	mov	ecx, DWORD PTR [eax+48]
	call	?GetW@C_Window@@QAEFXZ			; C_Window::GetW
	movsx	ecx, ax
	push	ecx
	push	0
	push	0
	mov	edx, DWORD PTR _this$[ebp]
	mov	eax, DWORD PTR [edx+140]
	push	eax
	mov	ecx, DWORD PTR _surface$[ebp]
	push	ecx
	mov	edx, DWORD PTR _this$[ebp]
	mov	ecx, DWORD PTR [edx+48]
	call	?DrawHLine@C_Window@@QAEXPAVSCREEN@@KJJJJJPAUUI95_RECT@@@Z ; C_Window::DrawHLine

; 674  : 		Parent_->DrawHLine(surface,BorderColor_,0,Parent_->GetH()-1,Parent_->GetW(),C_BIT_ABSOLUTE,GetClient(),cliprect);

	mov	eax, DWORD PTR _cliprect$[ebp]
	push	eax
	mov	ecx, DWORD PTR _this$[ebp]
	call	?GetClient@C_Base@@QAEFXZ		; C_Base::GetClient
	movsx	ecx, ax
	push	ecx
	push	262144					; 00040000H
	mov	edx, DWORD PTR _this$[ebp]
	mov	ecx, DWORD PTR [edx+48]
	call	?GetW@C_Window@@QAEFXZ			; C_Window::GetW
	cwde
	push	eax
	mov	ecx, DWORD PTR _this$[ebp]
	mov	ecx, DWORD PTR [ecx+48]
	call	?GetH@C_Window@@QAEFXZ			; C_Window::GetH
	movsx	edx, ax
	sub	edx, 1
	push	edx
	push	0
	mov	eax, DWORD PTR _this$[ebp]
	mov	ecx, DWORD PTR [eax+140]
	push	ecx
	mov	edx, DWORD PTR _surface$[ebp]
	push	edx
	mov	eax, DWORD PTR _this$[ebp]
	mov	ecx, DWORD PTR [eax+48]
	call	?DrawHLine@C_Window@@QAEXPAVSCREEN@@KJJJJJPAUUI95_RECT@@@Z ; C_Window::DrawHLine

; 675  : 		Parent_->DrawVLine(surface,BorderColor_,0,0,Parent_->GetH(),C_BIT_ABSOLUTE,GetClient(),cliprect);

	mov	ecx, DWORD PTR _cliprect$[ebp]
	push	ecx
	mov	ecx, DWORD PTR _this$[ebp]
	call	?GetClient@C_Base@@QAEFXZ		; C_Base::GetClient
	movsx	edx, ax
	push	edx
	push	262144					; 00040000H
	mov	eax, DWORD PTR _this$[ebp]
	mov	ecx, DWORD PTR [eax+48]
	call	?GetH@C_Window@@QAEFXZ			; C_Window::GetH
	movsx	ecx, ax
	push	ecx
	push	0
	push	0
	mov	edx, DWORD PTR _this$[ebp]
	mov	eax, DWORD PTR [edx+140]
	push	eax
	mov	ecx, DWORD PTR _surface$[ebp]
	push	ecx
	mov	edx, DWORD PTR _this$[ebp]
	mov	ecx, DWORD PTR [edx+48]
	call	?DrawVLine@C_Window@@QAEXPAVSCREEN@@KJJJJJPAUUI95_RECT@@@Z ; C_Window::DrawVLine

; 676  : 		Parent_->DrawVLine(surface,BorderColor_,Parent_->GetW()-1,0,Parent_->GetH(),C_BIT_ABSOLUTE,GetClient(),cliprect);

	mov	eax, DWORD PTR _cliprect$[ebp]
	push	eax
	mov	ecx, DWORD PTR _this$[ebp]
	call	?GetClient@C_Base@@QAEFXZ		; C_Base::GetClient
	movsx	ecx, ax
	push	ecx
	push	262144					; 00040000H
	mov	edx, DWORD PTR _this$[ebp]
	mov	ecx, DWORD PTR [edx+48]
	call	?GetH@C_Window@@QAEFXZ			; C_Window::GetH
	cwde
	push	eax
	push	0
	mov	ecx, DWORD PTR _this$[ebp]
	mov	ecx, DWORD PTR [ecx+48]
	call	?GetW@C_Window@@QAEFXZ			; C_Window::GetW
	movsx	edx, ax
	sub	edx, 1
	push	edx
	mov	eax, DWORD PTR _this$[ebp]
	mov	ecx, DWORD PTR [eax+140]
	push	ecx
	mov	edx, DWORD PTR _surface$[ebp]
	push	edx
	mov	eax, DWORD PTR _this$[ebp]
	mov	ecx, DWORD PTR [eax+48]
	call	?DrawVLine@C_Window@@QAEXPAVSCREEN@@KJJJJJPAUUI95_RECT@@@Z ; C_Window::DrawVLine
$LN25@Draw:

; 677  : 	}
; 678  : 
; 679  : 	drect=*cliprect;

	mov	ecx, DWORD PTR _cliprect$[ebp]
	mov	edx, DWORD PTR [ecx]
	mov	DWORD PTR _drect$[ebp], edx
	mov	eax, DWORD PTR [ecx+4]
	mov	DWORD PTR _drect$[ebp+4], eax
	mov	edx, DWORD PTR [ecx+8]
	mov	DWORD PTR _drect$[ebp+8], edx
	mov	eax, DWORD PTR [ecx+12]
	mov	DWORD PTR _drect$[ebp+12], eax

; 680  : 
; 681  : 	fh=static_cast<short>(gFontList->GetHeight(GetFont()));//! 

	mov	ecx, DWORD PTR _this$[ebp]
	mov	edx, DWORD PTR [ecx]
	mov	ecx, DWORD PTR _this$[ebp]
	mov	eax, DWORD PTR [edx+124]
	call	eax
	push	eax
	mov	ecx, DWORD PTR ?gFontList@@3PAVC_Font@@A ; gFontList
	call	?GetHeight@C_Font@@QAEHJ@Z		; C_Font::GetHeight
	mov	WORD PTR _fh$[ebp], ax

; 682  : 
; 683  : 	cur=Root_;

	mov	ecx, DWORD PTR _this$[ebp]
	mov	edx, DWORD PTR [ecx+152]
	mov	DWORD PTR _cur$[ebp], edx

; 684  : 	i=0;

	xor	eax, eax
	mov	WORD PTR _i$[ebp], ax
$LN24@Draw:

; 685  : 	while(cur && i < Selected_ && i < Count_)

	cmp	DWORD PTR _cur$[ebp], 0
	je	SHORT $LN21@Draw
	movsx	ecx, WORD PTR _i$[ebp]
	mov	edx, DWORD PTR _this$[ebp]
	movsx	eax, WORD PTR [edx+148]
	cmp	ecx, eax
	jge	SHORT $LN21@Draw
	movsx	ecx, WORD PTR _i$[ebp]
	mov	edx, DWORD PTR _this$[ebp]
	movsx	eax, WORD PTR [edx+150]
	cmp	ecx, eax
	jge	SHORT $LN21@Draw

; 686  : 	{
; 687  : 		if(!(cur->flags_ & C_BIT_INVISIBLE))

	mov	ecx, DWORD PTR _cur$[ebp]
	mov	edx, DWORD PTR [ecx+4]
	and	edx, 8192				; 00002000H
	jne	SHORT $LN22@Draw

; 688  : 			i++;

	mov	ax, WORD PTR _i$[ebp]
	add	ax, 1
	mov	WORD PTR _i$[ebp], ax
$LN22@Draw:

; 689  : 		cur=cur->Next;

	mov	ecx, DWORD PTR _cur$[ebp]
	mov	edx, DWORD PTR [ecx+32]
	mov	DWORD PTR _cur$[ebp], edx

; 690  : 	}

	jmp	SHORT $LN24@Draw
$LN21@Draw:

; 691  : 
; 692  : 	while(cur && (cur->flags_ & C_BIT_INVISIBLE))

	cmp	DWORD PTR _cur$[ebp], 0
	je	SHORT $LN20@Draw
	mov	eax, DWORD PTR _cur$[ebp]
	mov	ecx, DWORD PTR [eax+4]
	and	ecx, 8192				; 00002000H
	je	SHORT $LN20@Draw

; 693  : 		cur=cur->Next;

	mov	edx, DWORD PTR _cur$[ebp]
	mov	eax, DWORD PTR [edx+32]
	mov	DWORD PTR _cur$[ebp], eax
	jmp	SHORT $LN21@Draw
$LN20@Draw:

; 694  : 
; 695  : 	if(cur)

	cmp	DWORD PTR _cur$[ebp], 0
	je	SHORT $LN19@Draw

; 696  : 	{
; 697  : 		if(cur->Type_ == C_TYPE_NOTHING || !(cur->flags_ & C_BIT_ENABLED))

	mov	ecx, DWORD PTR _cur$[ebp]
	movsx	edx, WORD PTR [ecx+36]
	cmp	edx, 24					; 00000018H
	je	SHORT $LN17@Draw
	mov	eax, DWORD PTR _cur$[ebp]
	mov	ecx, DWORD PTR [eax+4]
	and	ecx, 2048				; 00000800H
	jne	SHORT $LN19@Draw
$LN17@Draw:

; 698  : 			cur=NULL;

	mov	DWORD PTR _cur$[ebp], 0
$LN19@Draw:

; 699  : 	}
; 700  : 
; 701  : 	if(Selected_ >= 0 && Selected_ < Count_ && cur)

	mov	edx, DWORD PTR _this$[ebp]
	movsx	eax, WORD PTR [edx+148]
	test	eax, eax
	jl	$LN16@Draw
	mov	ecx, DWORD PTR _this$[ebp]
	movsx	edx, WORD PTR [ecx+148]
	mov	eax, DWORD PTR _this$[ebp]
	movsx	ecx, WORD PTR [eax+150]
	cmp	edx, ecx
	jge	$LN16@Draw
	cmp	DWORD PTR _cur$[ebp], 0
	je	SHORT $LN16@Draw

; 702  : 	{
; 703  : 		drect.left=2;

	mov	DWORD PTR _drect$[ebp], 2

; 704  : 		drect.top=5+(Selected_*fh);

	mov	edx, DWORD PTR _this$[ebp]
	movsx	eax, WORD PTR [edx+148]
	movsx	ecx, WORD PTR _fh$[ebp]
	imul	eax, ecx
	add	eax, 5
	mov	DWORD PTR _drect$[ebp+4], eax

; 705  : 		drect.right=drect.left+Parent_->GetW()-2;

	mov	edx, DWORD PTR _this$[ebp]
	mov	ecx, DWORD PTR [edx+48]
	call	?GetW@C_Window@@QAEFXZ			; C_Window::GetW
	cwde
	mov	ecx, DWORD PTR _drect$[ebp]
	lea	edx, DWORD PTR [ecx+eax-2]
	mov	DWORD PTR _drect$[ebp+8], edx

; 706  : 		drect.bottom=drect.top+fh;

	movsx	eax, WORD PTR _fh$[ebp]
	add	eax, DWORD PTR _drect$[ebp+4]
	mov	DWORD PTR _drect$[ebp+12], eax

; 707  : 
; 708  : 		if(Parent_->ClipToArea(&frect,&drect,cliprect)) // frect not used... don't care what's in it

	mov	ecx, DWORD PTR _cliprect$[ebp]
	push	ecx
	lea	edx, DWORD PTR _drect$[ebp]
	push	edx
	lea	eax, DWORD PTR _frect$[ebp]
	push	eax
	mov	ecx, DWORD PTR _this$[ebp]
	mov	ecx, DWORD PTR [ecx+48]
	call	?ClipToArea@C_Window@@QAEHPAUUI95_RECT@@00@Z ; C_Window::ClipToArea
	test	eax, eax
	je	SHORT $LN16@Draw

; 709  : 			Parent_->BlitFill(surface,BarColor_,&drect,C_BIT_ABSOLUTE,0);

	push	0
	push	262144					; 00040000H
	lea	edx, DWORD PTR _drect$[ebp]
	push	edx
	mov	eax, DWORD PTR _this$[ebp]
	mov	ecx, DWORD PTR [eax+132]
	push	ecx
	mov	edx, DWORD PTR _surface$[ebp]
	push	edx
	mov	eax, DWORD PTR _this$[ebp]
	mov	ecx, DWORD PTR [eax+48]
	call	?BlitFill@C_Window@@QAEXPAVSCREEN@@KPAUUI95_RECT@@JJ@Z ; C_Window::BlitFill
$LN16@Draw:

; 710  : 	}
; 711  : 
; 712  : 	cur=Root_;

	mov	ecx, DWORD PTR _this$[ebp]
	mov	edx, DWORD PTR [ecx+152]
	mov	DWORD PTR _cur$[ebp], edx

; 713  : 	i=0;

	xor	eax, eax
	mov	WORD PTR _i$[ebp], ax
$LN14@Draw:

; 714  : 	while(cur)

	cmp	DWORD PTR _cur$[ebp], 0
	je	$LN28@Draw

; 715  : 	{
; 716  : 		if(!(cur->flags_ & C_BIT_INVISIBLE))

	mov	ecx, DWORD PTR _cur$[ebp]
	mov	edx, DWORD PTR [ecx+4]
	and	edx, 8192				; 00002000H
	jne	$LN12@Draw

; 717  : 		{
; 718  : 			if(cur->Type_ == C_TYPE_NOTHING)

	mov	eax, DWORD PTR _cur$[ebp]
	movsx	ecx, WORD PTR [eax+36]
	cmp	ecx, 24					; 00000018H
	jne	$LN11@Draw

; 719  : 			{
; 720  : 				Parent_->DrawHLine(surface,DisColor_,5,5+(i*fh)+(fh>>1)-1,Parent_->GetW()-10,GetFlags(),GetClient(),cliprect);

	mov	edx, DWORD PTR _cliprect$[ebp]
	push	edx
	mov	ecx, DWORD PTR _this$[ebp]
	call	?GetClient@C_Base@@QAEFXZ		; C_Base::GetClient
	cwde
	push	eax
	mov	ecx, DWORD PTR _this$[ebp]
	call	?GetFlags@C_Base@@QAEJXZ		; C_Base::GetFlags
	push	eax
	mov	ecx, DWORD PTR _this$[ebp]
	mov	ecx, DWORD PTR [ecx+48]
	call	?GetW@C_Window@@QAEFXZ			; C_Window::GetW
	movsx	edx, ax
	sub	edx, 10					; 0000000aH
	push	edx
	movsx	eax, WORD PTR _i$[ebp]
	movsx	ecx, WORD PTR _fh$[ebp]
	imul	eax, ecx
	movsx	edx, WORD PTR _fh$[ebp]
	sar	edx, 1
	lea	eax, DWORD PTR [eax+edx+4]
	push	eax
	push	5
	mov	ecx, DWORD PTR _this$[ebp]
	mov	edx, DWORD PTR [ecx+128]
	push	edx
	mov	eax, DWORD PTR _surface$[ebp]
	push	eax
	mov	ecx, DWORD PTR _this$[ebp]
	mov	ecx, DWORD PTR [ecx+48]
	call	?DrawHLine@C_Window@@QAEXPAVSCREEN@@KJJJJJPAUUI95_RECT@@@Z ; C_Window::DrawHLine

; 721  : 				Parent_->DrawHLine(surface,SelColor_,5,5+(i*fh)+(fh>>1),Parent_->GetW()-10,GetFlags(),GetClient(),cliprect);

	mov	edx, DWORD PTR _cliprect$[ebp]
	push	edx
	mov	ecx, DWORD PTR _this$[ebp]
	call	?GetClient@C_Base@@QAEFXZ		; C_Base::GetClient
	cwde
	push	eax
	mov	ecx, DWORD PTR _this$[ebp]
	call	?GetFlags@C_Base@@QAEJXZ		; C_Base::GetFlags
	push	eax
	mov	ecx, DWORD PTR _this$[ebp]
	mov	ecx, DWORD PTR [ecx+48]
	call	?GetW@C_Window@@QAEFXZ			; C_Window::GetW
	movsx	edx, ax
	sub	edx, 10					; 0000000aH
	push	edx
	movsx	eax, WORD PTR _i$[ebp]
	movsx	ecx, WORD PTR _fh$[ebp]
	imul	eax, ecx
	movsx	edx, WORD PTR _fh$[ebp]
	sar	edx, 1
	lea	eax, DWORD PTR [eax+edx+5]
	push	eax
	push	5
	mov	ecx, DWORD PTR _this$[ebp]
	mov	edx, DWORD PTR [ecx+124]
	push	edx
	mov	eax, DWORD PTR _surface$[ebp]
	push	eax
	mov	ecx, DWORD PTR _this$[ebp]
	mov	ecx, DWORD PTR [ecx+48]
	call	?DrawHLine@C_Window@@QAEXPAVSCREEN@@KJJJJJPAUUI95_RECT@@@Z ; C_Window::DrawHLine

; 722  : 			}
; 723  : 			else

	jmp	$LN10@Draw
$LN11@Draw:

; 724  : 			{
; 725  : 				if (cur->Label_)

	mov	edx, DWORD PTR _cur$[ebp]
	cmp	DWORD PTR [edx+12], 0
	je	SHORT $LN9@Draw

; 726  : 				{
; 727  : 					if(!(cur->flags_ & C_BIT_ENABLED))

	mov	eax, DWORD PTR _cur$[ebp]
	mov	ecx, DWORD PTR [eax+4]
	and	ecx, 2048				; 00000800H
	jne	SHORT $LN8@Draw

; 728  : 						cur->Label_->SetFgColor(DisColor_);

	mov	edx, DWORD PTR _this$[ebp]
	mov	eax, DWORD PTR [edx+128]
	push	eax
	mov	ecx, DWORD PTR _cur$[ebp]
	mov	ecx, DWORD PTR [ecx+12]
	call	?SetFgColor@O_Output@@QAEXK@Z		; O_Output::SetFgColor
	jmp	SHORT $LN7@Draw
$LN8@Draw:

; 729  : 					else if(Selected_ == i)

	mov	edx, DWORD PTR _this$[ebp]
	movsx	eax, WORD PTR [edx+148]
	movsx	ecx, WORD PTR _i$[ebp]
	cmp	eax, ecx
	jne	SHORT $LN6@Draw

; 730  : 						cur->Label_->SetFgColor(SelColor_);

	mov	edx, DWORD PTR _this$[ebp]
	mov	eax, DWORD PTR [edx+124]
	push	eax
	mov	ecx, DWORD PTR _cur$[ebp]
	mov	ecx, DWORD PTR [ecx+12]
	call	?SetFgColor@O_Output@@QAEXK@Z		; O_Output::SetFgColor

; 731  : 					else

	jmp	SHORT $LN7@Draw
$LN6@Draw:

; 732  : 						cur->Label_->SetFgColor(NormalColor_);

	mov	edx, DWORD PTR _this$[ebp]
	mov	eax, DWORD PTR [edx+120]
	push	eax
	mov	ecx, DWORD PTR _cur$[ebp]
	mov	ecx, DWORD PTR [ecx+12]
	call	?SetFgColor@O_Output@@QAEXK@Z		; O_Output::SetFgColor
$LN7@Draw:

; 733  : 
; 734  : 					cur->Label_->Draw(surface,cliprect);

	mov	edx, DWORD PTR _cliprect$[ebp]
	push	edx
	mov	eax, DWORD PTR _surface$[ebp]
	push	eax
	mov	ecx, DWORD PTR _cur$[ebp]
	mov	ecx, DWORD PTR [ecx+12]
	call	?Draw@O_Output@@QAEXPAVSCREEN@@PAUUI95_RECT@@@Z ; O_Output::Draw
$LN9@Draw:

; 735  : 				}
; 736  : 
; 737  : 				if(cur->flags_ & C_BIT_ENABLED && cur->Type_ == C_TYPE_MENU && cur->SubMenu_ && cur->MenuIcon_)

	mov	edx, DWORD PTR _cur$[ebp]
	mov	eax, DWORD PTR [edx+4]
	and	eax, 2048				; 00000800H
	je	SHORT $LN4@Draw
	mov	ecx, DWORD PTR _cur$[ebp]
	movsx	edx, WORD PTR [ecx+36]
	cmp	edx, 49					; 00000031H
	jne	SHORT $LN4@Draw
	mov	eax, DWORD PTR _cur$[ebp]
	cmp	DWORD PTR [eax+24], 0
	je	SHORT $LN4@Draw
	mov	ecx, DWORD PTR _cur$[ebp]
	cmp	DWORD PTR [ecx+16], 0
	je	SHORT $LN4@Draw

; 738  : 				{
; 739  : 					cur->MenuIcon_->Draw(surface,cliprect);

	mov	edx, DWORD PTR _cliprect$[ebp]
	push	edx
	mov	eax, DWORD PTR _surface$[ebp]
	push	eax
	mov	ecx, DWORD PTR _cur$[ebp]
	mov	ecx, DWORD PTR [ecx+16]
	call	?Draw@O_Output@@QAEXPAVSCREEN@@PAUUI95_RECT@@@Z ; O_Output::Draw
	jmp	SHORT $LN10@Draw
$LN4@Draw:

; 740  : 				}
; 741  : 				else if(cur->flags_ & C_BIT_ENABLED && (cur->Type_ == C_TYPE_TOGGLE || cur->Type_ == C_TYPE_RADIO) && cur->State_ && cur->CheckIcon_)

	mov	edx, DWORD PTR _cur$[ebp]
	mov	eax, DWORD PTR [edx+4]
	and	eax, 2048				; 00000800H
	je	SHORT $LN10@Draw
	mov	ecx, DWORD PTR _cur$[ebp]
	movsx	edx, WORD PTR [ecx+36]
	cmp	edx, 26					; 0000001aH
	je	SHORT $LN1@Draw
	mov	eax, DWORD PTR _cur$[ebp]
	movsx	ecx, WORD PTR [eax+36]
	cmp	ecx, 27					; 0000001bH
	jne	SHORT $LN10@Draw
$LN1@Draw:
	mov	edx, DWORD PTR _cur$[ebp]
	movsx	eax, WORD PTR [edx+38]
	test	eax, eax
	je	SHORT $LN10@Draw
	mov	ecx, DWORD PTR _cur$[ebp]
	cmp	DWORD PTR [ecx+20], 0
	je	SHORT $LN10@Draw

; 742  : 				{
; 743  : 					cur->CheckIcon_->Draw(surface,cliprect);

	mov	edx, DWORD PTR _cliprect$[ebp]
	push	edx
	mov	eax, DWORD PTR _surface$[ebp]
	push	eax
	mov	ecx, DWORD PTR _cur$[ebp]
	mov	ecx, DWORD PTR [ecx+20]
	call	?Draw@O_Output@@QAEXPAVSCREEN@@PAUUI95_RECT@@@Z ; O_Output::Draw
$LN10@Draw:

; 744  : 				}
; 745  : 			}
; 746  : 			i++;

	mov	dx, WORD PTR _i$[ebp]
	add	dx, 1
	mov	WORD PTR _i$[ebp], dx
$LN12@Draw:

; 747  : 		}
; 748  : 		cur=cur->Next;

	mov	eax, DWORD PTR _cur$[ebp]
	mov	ecx, DWORD PTR [eax+32]
	mov	DWORD PTR _cur$[ebp], ecx

; 749  : 	}

	jmp	$LN14@Draw
$LN28@Draw:

; 750  : }

	mov	ecx, DWORD PTR __$ArrayPad$[ebp]
	xor	ecx, ebp
	call	@__security_check_cookie@4
	mov	esp, ebp
	pop	ebp
	ret	8
?Draw@C_PopupList@@UAEXPAVSCREEN@@PAUUI95_RECT@@@Z ENDP	; C_PopupList::Draw
_TEXT	ENDS
; Function compile flags: /Odtp
; File c:\users\zhitao li\documents\visual studio 2012\projects\freefalcon\ui95\cpopup.cpp
_TEXT	SEGMENT
_this$ = -4						; size = 4
?Refresh@C_PopupList@@UAEXXZ PROC			; C_PopupList::Refresh
; _this$ = ecx

; 649  : {

	push	ebp
	mov	ebp, esp
	push	ecx
	mov	DWORD PTR _this$[ebp], ecx

; 650  : 	if(!Ready() || GetFlags() & C_BIT_INVISIBLE || Parent_ == NULL)

	mov	ecx, DWORD PTR _this$[ebp]
	call	?Ready@C_Base@@QAEFXZ			; C_Base::Ready
	cwde
	test	eax, eax
	je	SHORT $LN1@Refresh
	mov	ecx, DWORD PTR _this$[ebp]
	call	?GetFlags@C_Base@@QAEJXZ		; C_Base::GetFlags
	and	eax, 8192				; 00002000H
	jne	SHORT $LN1@Refresh
	mov	ecx, DWORD PTR _this$[ebp]
	cmp	DWORD PTR [ecx+48], 0
	jne	SHORT $LN2@Refresh
$LN1@Refresh:

; 651  : 		return;

	jmp	SHORT $LN3@Refresh
$LN2@Refresh:

; 652  : 
; 653  : 	Parent_->update_ |= C_DRAW_REFRESHALL;

	mov	edx, DWORD PTR _this$[ebp]
	mov	eax, DWORD PTR [edx+48]
	mov	ecx, DWORD PTR [eax+104]
	or	ecx, 2
	mov	edx, DWORD PTR _this$[ebp]
	mov	eax, DWORD PTR [edx+48]
	mov	DWORD PTR [eax+104], ecx

; 654  : 	Parent_->RefreshWindow();

	mov	ecx, DWORD PTR _this$[ebp]
	mov	ecx, DWORD PTR [ecx+48]
	call	?RefreshWindow@C_Window@@QAEXXZ		; C_Window::RefreshWindow
$LN3@Refresh:

; 655  : }

	mov	esp, ebp
	pop	ebp
	ret	0
?Refresh@C_PopupList@@UAEXXZ ENDP			; C_PopupList::Refresh
_TEXT	ENDS
; Function compile flags: /Odtp
; File c:\users\zhitao li\documents\visual studio 2012\projects\freefalcon\ui95\cpopup.h
;	COMDAT ?Dragable@C_PopupList@@UAEHJ@Z
_TEXT	SEGMENT
_this$ = -4						; size = 4
___formal$ = 8						; size = 4
?Dragable@C_PopupList@@UAEHJ@Z PROC			; C_PopupList::Dragable, COMDAT
; _this$ = ecx

; 116  : 		BOOL Dragable(long)	{ return FALSE;	}

	push	ebp
	mov	ebp, esp
	push	ecx
	mov	DWORD PTR _this$[ebp], ecx
	xor	eax, eax
	mov	esp, ebp
	pop	ebp
	ret	4
?Dragable@C_PopupList@@UAEHJ@Z ENDP			; C_PopupList::Dragable
_TEXT	ENDS
; Function compile flags: /Odtp
; File c:\users\zhitao li\documents\visual studio 2012\projects\freefalcon\ui95\cpopup.cpp
_TEXT	SEGMENT
tv85 = -12						; size = 4
_cur$ = -8						; size = 4
_this$ = -4						; size = 4
_ID$ = 8						; size = 4
_HitType$ = 12						; size = 2
?Process@C_PopupList@@UAEHJF@Z PROC			; C_PopupList::Process
; _this$ = ecx

; 518  : {

	push	ebp
	mov	ebp, esp
	sub	esp, 12					; 0000000cH
	mov	DWORD PTR _this$[ebp], ecx

; 519  : 	POPUPLIST *cur;
; 520  : 
; 521  : 	gSoundMgr->PlaySound(GetSound(HitType));

	movzx	eax, WORD PTR _HitType$[ebp]
	push	eax
	mov	ecx, DWORD PTR _this$[ebp]
	mov	edx, DWORD PTR [ecx]
	mov	ecx, DWORD PTR _this$[ebp]
	mov	eax, DWORD PTR [edx+132]
	call	eax
	push	eax
	mov	ecx, DWORD PTR ?gSoundMgr@@3PAVC_Sound@@A ; gSoundMgr
	call	?PlaySoundA@C_Sound@@QAEHPAVSOUND_RES@@@Z ; C_Sound::PlaySoundA

; 522  : 	if(HitType != C_TYPE_LMOUSEUP && HitType != C_TYPE_RMOUSEUP)

	movsx	ecx, WORD PTR _HitType$[ebp]
	cmp	ecx, 52					; 00000034H
	je	SHORT $LN8@Process
	movsx	edx, WORD PTR _HitType$[ebp]
	cmp	edx, 55					; 00000037H
	je	SHORT $LN8@Process

; 523  : 		return(FALSE);

	xor	eax, eax
	jmp	$LN9@Process
$LN8@Process:

; 524  : 
; 525  : 	cur=FindID(ID);

	mov	eax, DWORD PTR _ID$[ebp]
	push	eax
	mov	ecx, DWORD PTR _this$[ebp]
	call	?FindID@C_PopupList@@AAEPAUPopUpStr@@J@Z ; C_PopupList::FindID
	mov	DWORD PTR _cur$[ebp], eax

; 526  : 	if(cur)

	cmp	DWORD PTR _cur$[ebp], 0
	je	$LN7@Process

; 527  : 	{
; 528  : 		switch(cur->Type_)

	mov	ecx, DWORD PTR _cur$[ebp]
	movsx	edx, WORD PTR [ecx+36]
	mov	DWORD PTR tv85[ebp], edx
	cmp	DWORD PTR tv85[ebp], 26			; 0000001aH
	je	SHORT $LN3@Process
	cmp	DWORD PTR tv85[ebp], 27			; 0000001bH
	je	SHORT $LN4@Process
	jmp	SHORT $LN5@Process
$LN4@Process:

; 529  : 		{
; 530  : 			case C_TYPE_RADIO:
; 531  : 				ClearRadioGroup(cur->Group_);

	mov	eax, DWORD PTR _cur$[ebp]
	mov	ecx, DWORD PTR [eax+8]
	push	ecx
	mov	ecx, DWORD PTR _this$[ebp]
	call	?ClearRadioGroup@C_PopupList@@QAEXJ@Z	; C_PopupList::ClearRadioGroup

; 532  : 				cur->State_=C_STATE_1;

	mov	edx, 1
	mov	eax, DWORD PTR _cur$[ebp]
	mov	WORD PTR [eax+38], dx

; 533  : 				Refresh();

	mov	ecx, DWORD PTR _this$[ebp]
	mov	edx, DWORD PTR [ecx]
	mov	ecx, DWORD PTR _this$[ebp]
	mov	eax, DWORD PTR [edx+160]
	call	eax

; 534  : 				break;

	jmp	SHORT $LN5@Process
$LN3@Process:

; 535  : 			case C_TYPE_TOGGLE:
; 536  : 				cur->State_^= 1;

	mov	ecx, DWORD PTR _cur$[ebp]
	movsx	edx, WORD PTR [ecx+38]
	xor	edx, 1
	mov	eax, DWORD PTR _cur$[ebp]
	mov	WORD PTR [eax+38], dx

; 537  : 				Refresh();

	mov	ecx, DWORD PTR _this$[ebp]
	mov	edx, DWORD PTR [ecx]
	mov	ecx, DWORD PTR _this$[ebp]
	mov	eax, DWORD PTR [edx+160]
	call	eax
$LN5@Process:

; 538  : 				break;
; 539  : 			case C_TYPE_ITEM:
; 540  : 				break;
; 541  : 		}
; 542  : 
; 543  : 		if(cur->Callback_)

	mov	ecx, DWORD PTR _cur$[ebp]
	cmp	DWORD PTR [ecx+28], 0
	je	SHORT $LN1@Process

; 544  : 			(*cur->Callback_)(ID,HitType,this);

	mov	edx, DWORD PTR _this$[ebp]
	push	edx
	movzx	eax, WORD PTR _HitType$[ebp]
	push	eax
	mov	ecx, DWORD PTR _ID$[ebp]
	push	ecx
	mov	edx, DWORD PTR _cur$[ebp]
	mov	eax, DWORD PTR [edx+28]
	call	eax
	add	esp, 12					; 0000000cH
$LN1@Process:

; 545  : 
; 546  : 		return(TRUE);

	mov	eax, 1
	jmp	SHORT $LN9@Process
$LN7@Process:

; 547  : 	}
; 548  : 	return(FALSE);

	xor	eax, eax
$LN9@Process:

; 549  : }

	mov	esp, ebp
	pop	ebp
	ret	8
?Process@C_PopupList@@UAEHJF@Z ENDP			; C_PopupList::Process
_TEXT	ENDS
; Function compile flags: /Odtp
; File c:\users\zhitao li\documents\visual studio 2012\projects\freefalcon\ui95\cpopup.cpp
_TEXT	SEGMENT
_cur$ = -12						; size = 4
_this$ = -8						; size = 4
_i$ = -4						; size = 2
_relX$ = 8						; size = 4
_relY$ = 12						; size = 4
?CheckHotSpots@C_PopupList@@UAEJJJ@Z PROC		; C_PopupList::CheckHotSpots
; _this$ = ecx

; 478  : {

	push	ebp
	mov	ebp, esp
	sub	esp, 12					; 0000000cH
	push	esi
	mov	DWORD PTR _this$[ebp], ecx

; 479  : 	POPUPLIST *cur;
; 480  : 	short i;
; 481  : 
; 482  : 	if(GetFlags() & C_BIT_INVISIBLE || !(GetFlags() & C_BIT_ENABLED))

	mov	ecx, DWORD PTR _this$[ebp]
	call	?GetFlags@C_Base@@QAEJXZ		; C_Base::GetFlags
	and	eax, 8192				; 00002000H
	jne	SHORT $LN11@CheckHotSp
	mov	ecx, DWORD PTR _this$[ebp]
	call	?GetFlags@C_Base@@QAEJXZ		; C_Base::GetFlags
	and	eax, 2048				; 00000800H
	jne	SHORT $LN12@CheckHotSp
$LN11@CheckHotSp:

; 483  : 		return(0);

	xor	eax, eax
	jmp	$LN13@CheckHotSp
$LN12@CheckHotSp:

; 484  : 
; 485  : 	if(relX < Parent_->ClientArea_[GetClient()].left || relX > Parent_->ClientArea_[GetClient()].right ||
; 486  : 	   relY < Parent_->ClientArea_[GetClient()].top || relY > Parent_->ClientArea_[GetClient()].bottom)

	mov	eax, DWORD PTR _this$[ebp]
	mov	esi, DWORD PTR [eax+48]
	mov	ecx, DWORD PTR _this$[ebp]
	call	?GetClient@C_Base@@QAEFXZ		; C_Base::GetClient
	movsx	ecx, ax
	shl	ecx, 4
	mov	edx, DWORD PTR _relX$[ebp]
	cmp	edx, DWORD PTR [esi+ecx+168]
	jl	SHORT $LN9@CheckHotSp
	mov	eax, DWORD PTR _this$[ebp]
	mov	esi, DWORD PTR [eax+48]
	mov	ecx, DWORD PTR _this$[ebp]
	call	?GetClient@C_Base@@QAEFXZ		; C_Base::GetClient
	movsx	ecx, ax
	shl	ecx, 4
	mov	edx, DWORD PTR _relX$[ebp]
	cmp	edx, DWORD PTR [esi+ecx+176]
	jg	SHORT $LN9@CheckHotSp
	mov	eax, DWORD PTR _this$[ebp]
	mov	esi, DWORD PTR [eax+48]
	mov	ecx, DWORD PTR _this$[ebp]
	call	?GetClient@C_Base@@QAEFXZ		; C_Base::GetClient
	movsx	ecx, ax
	shl	ecx, 4
	mov	edx, DWORD PTR _relY$[ebp]
	cmp	edx, DWORD PTR [esi+ecx+172]
	jl	SHORT $LN9@CheckHotSp
	mov	eax, DWORD PTR _this$[ebp]
	mov	esi, DWORD PTR [eax+48]
	mov	ecx, DWORD PTR _this$[ebp]
	call	?GetClient@C_Base@@QAEFXZ		; C_Base::GetClient
	movsx	ecx, ax
	shl	ecx, 4
	mov	edx, DWORD PTR _relY$[ebp]
	cmp	edx, DWORD PTR [esi+ecx+180]
	jle	SHORT $LN10@CheckHotSp
$LN9@CheckHotSp:

; 487  : 		return(0);

	xor	eax, eax
	jmp	$LN13@CheckHotSp
$LN10@CheckHotSp:

; 488  : 
; 489  : 	Selected_=static_cast<short>((relY-5)/gFontList->GetHeight(GetFont()));//! 

	mov	esi, DWORD PTR _relY$[ebp]
	sub	esi, 5
	mov	eax, DWORD PTR _this$[ebp]
	mov	edx, DWORD PTR [eax]
	mov	ecx, DWORD PTR _this$[ebp]
	mov	eax, DWORD PTR [edx+124]
	call	eax
	push	eax
	mov	ecx, DWORD PTR ?gFontList@@3PAVC_Font@@A ; gFontList
	call	?GetHeight@C_Font@@QAEHJ@Z		; C_Font::GetHeight
	mov	ecx, eax
	mov	eax, esi
	cdq
	idiv	ecx
	mov	edx, DWORD PTR _this$[ebp]
	mov	WORD PTR [edx+148], ax

; 490  : 	cur=Root_;

	mov	eax, DWORD PTR _this$[ebp]
	mov	ecx, DWORD PTR [eax+152]
	mov	DWORD PTR _cur$[ebp], ecx

; 491  : 
; 492  : 	i=0;

	xor	edx, edx
	mov	WORD PTR _i$[ebp], dx
$LN8@CheckHotSp:

; 493  : 	while(cur && i < Selected_)

	cmp	DWORD PTR _cur$[ebp], 0
	je	SHORT $LN5@CheckHotSp
	movsx	eax, WORD PTR _i$[ebp]
	mov	ecx, DWORD PTR _this$[ebp]
	movsx	edx, WORD PTR [ecx+148]
	cmp	eax, edx
	jge	SHORT $LN5@CheckHotSp

; 494  : 	{
; 495  : 		if(!(cur->flags_ & C_BIT_INVISIBLE))

	mov	eax, DWORD PTR _cur$[ebp]
	mov	ecx, DWORD PTR [eax+4]
	and	ecx, 8192				; 00002000H
	jne	SHORT $LN6@CheckHotSp

; 496  : 			i++;

	mov	dx, WORD PTR _i$[ebp]
	add	dx, 1
	mov	WORD PTR _i$[ebp], dx
$LN6@CheckHotSp:

; 497  : 		cur=cur->Next;

	mov	eax, DWORD PTR _cur$[ebp]
	mov	ecx, DWORD PTR [eax+32]
	mov	DWORD PTR _cur$[ebp], ecx

; 498  : 	}

	jmp	SHORT $LN8@CheckHotSp
$LN5@CheckHotSp:

; 499  : 
; 500  : 	while(cur && (cur->flags_ & C_BIT_INVISIBLE))

	cmp	DWORD PTR _cur$[ebp], 0
	je	SHORT $LN4@CheckHotSp
	mov	edx, DWORD PTR _cur$[ebp]
	mov	eax, DWORD PTR [edx+4]
	and	eax, 8192				; 00002000H
	je	SHORT $LN4@CheckHotSp

; 501  : 		cur=cur->Next;

	mov	ecx, DWORD PTR _cur$[ebp]
	mov	edx, DWORD PTR [ecx+32]
	mov	DWORD PTR _cur$[ebp], edx
	jmp	SHORT $LN5@CheckHotSp
$LN4@CheckHotSp:

; 502  : 
; 503  : 	if(cur == NULL)

	cmp	DWORD PTR _cur$[ebp], 0
	jne	SHORT $LN3@CheckHotSp

; 504  : 		return(0);

	xor	eax, eax
	jmp	SHORT $LN13@CheckHotSp
$LN3@CheckHotSp:

; 505  : 
; 506  : 	if(!(cur->flags_ & C_BIT_ENABLED))

	mov	eax, DWORD PTR _cur$[ebp]
	mov	ecx, DWORD PTR [eax+4]
	and	ecx, 2048				; 00000800H
	jne	SHORT $LN2@CheckHotSp

; 507  : 		cur=NULL;

	mov	DWORD PTR _cur$[ebp], 0
$LN2@CheckHotSp:

; 508  : 
; 509  : 	if(cur && cur->Type_ != C_TYPE_NOTHING)

	cmp	DWORD PTR _cur$[ebp], 0
	je	SHORT $LN1@CheckHotSp
	mov	edx, DWORD PTR _cur$[ebp]
	movsx	eax, WORD PTR [edx+36]
	cmp	eax, 24					; 00000018H
	je	SHORT $LN1@CheckHotSp

; 510  : 	{
; 511  : 		SetRelXY(relX-GetX(),relY-GetY());

	mov	ecx, DWORD PTR _this$[ebp]
	call	?GetY@C_Base@@QAEJXZ			; C_Base::GetY
	mov	ecx, DWORD PTR _relY$[ebp]
	sub	ecx, eax
	push	ecx
	mov	ecx, DWORD PTR _this$[ebp]
	call	?GetX@C_Base@@QAEJXZ			; C_Base::GetX
	mov	edx, DWORD PTR _relX$[ebp]
	sub	edx, eax
	push	edx
	mov	eax, DWORD PTR _this$[ebp]
	mov	edx, DWORD PTR [eax]
	mov	ecx, DWORD PTR _this$[ebp]
	mov	eax, DWORD PTR [edx+52]
	call	eax

; 512  : 		return(cur->ID_);

	mov	ecx, DWORD PTR _cur$[ebp]
	mov	eax, DWORD PTR [ecx]
	jmp	SHORT $LN13@CheckHotSp
$LN1@CheckHotSp:

; 513  : 	}
; 514  : 	return(0);

	xor	eax, eax
$LN13@CheckHotSp:

; 515  : }

	pop	esi
	mov	esp, ebp
	pop	ebp
	ret	8
?CheckHotSpots@C_PopupList@@UAEJJJ@Z ENDP		; C_PopupList::CheckHotSpots
_TEXT	ENDS
; Function compile flags: /Odtp
; File c:\users\zhitao li\documents\visual studio 2012\projects\freefalcon\ui95\cpopup.cpp
_TEXT	SEGMENT
tv78 = -16						; size = 4
$T1 = -12						; size = 4
$T2 = -8						; size = 4
_this$ = -4						; size = 4
?CloseWindow@C_PopupList@@UAEHXZ PROC			; C_PopupList::CloseWindow
; _this$ = ecx

; 864  : {

	push	ebp
	mov	ebp, esp
	sub	esp, 16					; 00000010H
	mov	DWORD PTR _this$[ebp], ecx

; 865  : 	Handler_->EnterCritical();

	mov	eax, DWORD PTR _this$[ebp]
	mov	ecx, DWORD PTR [eax+160]
	call	?EnterCritical@C_Handler@@QAEXXZ	; C_Handler::EnterCritical

; 866  : 	CloseSubMenus();

	mov	ecx, DWORD PTR _this$[ebp]
	call	?CloseSubMenus@C_PopupList@@QAEXXZ	; C_PopupList::CloseSubMenus

; 867  : //	CloseWindow();
; 868  : 	Handler_->RemoveWindow(Window_);

	mov	ecx, DWORD PTR _this$[ebp]
	mov	edx, DWORD PTR [ecx+156]
	push	edx
	mov	eax, DWORD PTR _this$[ebp]
	mov	ecx, DWORD PTR [eax+160]
	call	?RemoveWindow@C_Handler@@QAEHPAVC_Window@@@Z ; C_Handler::RemoveWindow

; 869  : 	Window_->Cleanup();

	mov	ecx, DWORD PTR _this$[ebp]
	mov	ecx, DWORD PTR [ecx+156]
	call	?Cleanup@C_Window@@QAEXXZ		; C_Window::Cleanup

; 870  : 	delete Window_;

	mov	edx, DWORD PTR _this$[ebp]
	mov	eax, DWORD PTR [edx+156]
	mov	DWORD PTR $T1[ebp], eax
	mov	ecx, DWORD PTR $T1[ebp]
	mov	DWORD PTR $T2[ebp], ecx
	cmp	DWORD PTR $T2[ebp], 0
	je	SHORT $LN3@CloseWindo
	push	1
	mov	ecx, DWORD PTR $T2[ebp]
	call	??_GC_Window@@QAEPAXI@Z
	mov	DWORD PTR tv78[ebp], eax
	jmp	SHORT $LN4@CloseWindo
$LN3@CloseWindo:
	mov	DWORD PTR tv78[ebp], 0
$LN4@CloseWindo:

; 871  : 	Window_=NULL;

	mov	edx, DWORD PTR _this$[ebp]
	mov	DWORD PTR [edx+156], 0

; 872  : 	this->SetParent(NULL);

	push	0
	mov	ecx, DWORD PTR _this$[ebp]
	call	?SetParent@C_Base@@QAEXPAVC_Window@@@Z	; C_Base::SetParent

; 873  : 	Handler_->LeaveCritical();

	mov	eax, DWORD PTR _this$[ebp]
	mov	ecx, DWORD PTR [eax+160]
	call	?LeaveCritical@C_Handler@@QAEXXZ	; C_Handler::LeaveCritical

; 874  : 	return(TRUE);

	mov	eax, 1

; 875  : }

	mov	esp, ebp
	pop	ebp
	ret	0
?CloseWindow@C_PopupList@@UAEHXZ ENDP			; C_PopupList::CloseWindow
_TEXT	ENDS
; Function compile flags: /Odtp
; File c:\users\zhitao li\documents\visual studio 2012\projects\freefalcon\ui95\cpopup.cpp
_TEXT	SEGMENT
$T2 = -64						; size = 4
$T3 = -60						; size = 4
tv294 = -56						; size = 4
$T4 = -52						; size = 4
tv179 = -48						; size = 4
$T5 = -44						; size = 4
_fill$ = -40						; size = 4
_cur$ = -36						; size = 4
_this$ = -32						; size = 4
_h$ = -28						; size = 2
_fh$ = -24						; size = 2
_w$ = -20						; size = 2
_i$ = -16						; size = 2
__$EHRec$ = -12						; size = 12
_x$ = 8							; size = 2
_y$ = 12						; size = 2
_Dir$ = 16						; size = 2
?OpenWindow@C_PopupList@@QAEHFFF@Z PROC			; C_PopupList::OpenWindow
; _this$ = ecx

; 766  : {

	push	ebp
	mov	ebp, esp
	push	-1
	push	__ehhandler$?OpenWindow@C_PopupList@@QAEHFFF@Z
	mov	eax, DWORD PTR fs:0
	push	eax
	sub	esp, 52					; 00000034H
	push	esi
	mov	eax, DWORD PTR ___security_cookie
	xor	eax, ebp
	push	eax
	lea	eax, DWORD PTR __$EHRec$[ebp]
	mov	DWORD PTR fs:0, eax
	mov	DWORD PTR _this$[ebp], ecx

; 767  : 	POPUPLIST *cur;
; 768  : 	C_Fill *fill;
; 769  : 	short w,h,i,fh;
; 770  : 
; 771  : 	if(Handler_ == NULL)

	mov	eax, DWORD PTR _this$[ebp]
	cmp	DWORD PTR [eax+160], 0
	jne	SHORT $LN18@OpenWindow

; 772  : 		return(FALSE);

	xor	eax, eax
	jmp	$LN19@OpenWindow
$LN18@OpenWindow:

; 773  : 
; 774  : 	fh=static_cast<short>(gFontList->GetHeight(GetFont()));//! 

	mov	ecx, DWORD PTR _this$[ebp]
	mov	edx, DWORD PTR [ecx]
	mov	ecx, DWORD PTR _this$[ebp]
	mov	eax, DWORD PTR [edx+124]
	call	eax
	push	eax
	mov	ecx, DWORD PTR ?gFontList@@3PAVC_Font@@A ; gFontList
	call	?GetHeight@C_Font@@QAEHJ@Z		; C_Font::GetHeight
	mov	WORD PTR _fh$[ebp], ax

; 775  : 
; 776  : 	i=0;

	xor	ecx, ecx
	mov	WORD PTR _i$[ebp], cx

; 777  : 	cur=Root_;

	mov	edx, DWORD PTR _this$[ebp]
	mov	eax, DWORD PTR [edx+152]
	mov	DWORD PTR _cur$[ebp], eax
$LN17@OpenWindow:

; 778  : 	while(cur)

	cmp	DWORD PTR _cur$[ebp], 0
	je	$LN16@OpenWindow

; 779  : 	{
; 780  : 		if(!(cur->flags_ & C_BIT_INVISIBLE))

	mov	ecx, DWORD PTR _cur$[ebp]
	mov	edx, DWORD PTR [ecx+4]
	and	edx, 8192				; 00002000H
	jne	$LN15@OpenWindow

; 781  : 		{
; 782  : 			if(cur->MenuIcon_)

	mov	eax, DWORD PTR _cur$[ebp]
	cmp	DWORD PTR [eax+16], 0
	je	SHORT $LN14@OpenWindow

; 783  : 			{
; 784  : 				cur->MenuIcon_->SetY(fh/2-cur->MenuIcon_->GetH()/2+5+(i)*fh);

	movsx	eax, WORD PTR _fh$[ebp]
	cdq
	sub	eax, edx
	mov	esi, eax
	sar	esi, 1
	mov	ecx, DWORD PTR _cur$[ebp]
	mov	ecx, DWORD PTR [ecx+16]
	call	?GetH@O_Output@@QAEJXZ			; O_Output::GetH
	cdq
	sub	eax, edx
	sar	eax, 1
	sub	esi, eax
	movsx	edx, WORD PTR _i$[ebp]
	movsx	eax, WORD PTR _fh$[ebp]
	imul	edx, eax
	lea	ecx, DWORD PTR [esi+edx+5]
	push	ecx
	mov	edx, DWORD PTR _cur$[ebp]
	mov	ecx, DWORD PTR [edx+16]
	call	?SetY@O_Output@@QAEXJ@Z			; O_Output::SetY

; 785  : 				cur->MenuIcon_->SetInfo();

	mov	eax, DWORD PTR _cur$[ebp]
	mov	ecx, DWORD PTR [eax+16]
	call	?SetInfo@O_Output@@QAEXXZ		; O_Output::SetInfo
$LN14@OpenWindow:

; 786  : 			}
; 787  : 
; 788  : 			if(cur->Label_)

	mov	ecx, DWORD PTR _cur$[ebp]
	cmp	DWORD PTR [ecx+12], 0
	je	SHORT $LN13@OpenWindow

; 789  : 			{
; 790  : 				cur->Label_->SetY(5+(i)*fh);

	movsx	edx, WORD PTR _i$[ebp]
	movsx	eax, WORD PTR _fh$[ebp]
	imul	edx, eax
	add	edx, 5
	push	edx
	mov	ecx, DWORD PTR _cur$[ebp]
	mov	ecx, DWORD PTR [ecx+12]
	call	?SetY@O_Output@@QAEXJ@Z			; O_Output::SetY

; 791  : 				cur->Label_->SetInfo();

	mov	edx, DWORD PTR _cur$[ebp]
	mov	ecx, DWORD PTR [edx+12]
	call	?SetInfo@O_Output@@QAEXXZ		; O_Output::SetInfo
$LN13@OpenWindow:

; 792  : 			}
; 793  : 			if(cur->CheckIcon_)

	mov	eax, DWORD PTR _cur$[ebp]
	cmp	DWORD PTR [eax+20], 0
	je	SHORT $LN12@OpenWindow

; 794  : 			{
; 795  : 				cur->CheckIcon_->SetY(fh/2-cur->CheckIcon_->GetH()/2+5+(i)*fh);

	movsx	eax, WORD PTR _fh$[ebp]
	cdq
	sub	eax, edx
	mov	esi, eax
	sar	esi, 1
	mov	ecx, DWORD PTR _cur$[ebp]
	mov	ecx, DWORD PTR [ecx+20]
	call	?GetH@O_Output@@QAEJXZ			; O_Output::GetH
	cdq
	sub	eax, edx
	sar	eax, 1
	sub	esi, eax
	movsx	edx, WORD PTR _i$[ebp]
	movsx	eax, WORD PTR _fh$[ebp]
	imul	edx, eax
	lea	ecx, DWORD PTR [esi+edx+5]
	push	ecx
	mov	edx, DWORD PTR _cur$[ebp]
	mov	ecx, DWORD PTR [edx+20]
	call	?SetY@O_Output@@QAEXJ@Z			; O_Output::SetY

; 796  : 				cur->CheckIcon_->SetInfo();

	mov	eax, DWORD PTR _cur$[ebp]
	mov	ecx, DWORD PTR [eax+20]
	call	?SetInfo@O_Output@@QAEXXZ		; O_Output::SetInfo
$LN12@OpenWindow:

; 797  : 			}
; 798  : 			i++;

	mov	cx, WORD PTR _i$[ebp]
	add	cx, 1
	mov	WORD PTR _i$[ebp], cx
$LN15@OpenWindow:

; 799  : 		}
; 800  : 		cur=cur->Next;

	mov	edx, DWORD PTR _cur$[ebp]
	mov	eax, DWORD PTR [edx+32]
	mov	DWORD PTR _cur$[ebp], eax

; 801  : 	}

	jmp	$LN17@OpenWindow
$LN16@OpenWindow:

; 802  : 	Count_=i;

	mov	ecx, DWORD PTR _this$[ebp]
	mov	dx, WORD PTR _i$[ebp]
	mov	WORD PTR [ecx+150], dx

; 803  : 
; 804  : 	GetWindowSize(&w,&h);

	lea	eax, DWORD PTR _h$[ebp]
	push	eax
	lea	ecx, DWORD PTR _w$[ebp]
	push	ecx
	mov	ecx, DWORD PTR _this$[ebp]
	call	?GetWindowSize@C_PopupList@@QAEXPAF0@Z	; C_PopupList::GetWindowSize

; 805  : 
; 806  : 	Direction_=Dir;

	mov	edx, DWORD PTR _this$[ebp]
	mov	ax, WORD PTR _Dir$[ebp]
	mov	WORD PTR [edx+146], ax

; 807  : 	Window_=new C_Window;

	push	4332					; 000010ecH
	call	??2@YAPAXI@Z				; operator new
	add	esp, 4
	mov	DWORD PTR $T5[ebp], eax
	mov	DWORD PTR __$EHRec$[ebp+8], 0
	cmp	DWORD PTR $T5[ebp], 0
	je	SHORT $LN21@OpenWindow
	mov	ecx, DWORD PTR $T5[ebp]
	call	??0C_Window@@QAE@XZ			; C_Window::C_Window
	mov	DWORD PTR tv179[ebp], eax
	jmp	SHORT $LN22@OpenWindow
$LN21@OpenWindow:
	mov	DWORD PTR tv179[ebp], 0
$LN22@OpenWindow:
	mov	ecx, DWORD PTR tv179[ebp]
	mov	DWORD PTR $T3[ebp], ecx
	mov	DWORD PTR __$EHRec$[ebp+8], -1
	mov	edx, DWORD PTR _this$[ebp]
	mov	eax, DWORD PTR $T3[ebp]
	mov	DWORD PTR [edx+156], eax

; 808  : 	Window_->Setup(GetID(),WinType_,w,h);

	movzx	ecx, WORD PTR _h$[ebp]
	push	ecx
	movzx	edx, WORD PTR _w$[ebp]
	push	edx
	mov	eax, DWORD PTR _this$[ebp]
	movzx	ecx, WORD PTR [eax+144]
	push	ecx
	mov	ecx, DWORD PTR _this$[ebp]
	call	?GetID@C_Base@@QAEJXZ			; C_Base::GetID
	push	eax
	mov	edx, DWORD PTR _this$[ebp]
	mov	ecx, DWORD PTR [edx+156]
	call	?Setup@C_Window@@QAEXJFFF@Z		; C_Window::Setup

; 809  : 	Window_->SetFlagBitOn(C_BIT_NOCLEANUP);

	push	134217728				; 08000000H
	mov	eax, DWORD PTR _this$[ebp]
	mov	ecx, DWORD PTR [eax+156]
	call	?SetFlagBitOn@C_Window@@QAEXJ@Z		; C_Window::SetFlagBitOn

; 810  : 	Window_->SetOwner(this);

	mov	ecx, DWORD PTR _this$[ebp]
	push	ecx
	mov	edx, DWORD PTR _this$[ebp]
	mov	ecx, DWORD PTR [edx+156]
	call	?SetOwner@C_Window@@QAEXPAVC_Base@@@Z	; C_Window::SetOwner

; 811  : 	Window_->SetMenuFlags(1);

	push	1
	mov	eax, DWORD PTR _this$[ebp]
	mov	ecx, DWORD PTR [eax+156]
	call	?SetMenuFlags@C_Window@@QAEXJ@Z		; C_Window::SetMenuFlags

; 812  : 
; 813  : 	if(GetFlags() & C_BIT_TRANSLUCENT)

	mov	ecx, DWORD PTR _this$[ebp]
	call	?GetFlags@C_Base@@QAEJXZ		; C_Base::GetFlags
	and	eax, 536870912				; 20000000H
	je	SHORT $LN11@OpenWindow

; 814  : 		Window_->SetFlagBitOn(C_BIT_TRANSLUCENT);

	push	536870912				; 20000000H
	mov	ecx, DWORD PTR _this$[ebp]
	mov	ecx, DWORD PTR [ecx+156]
	call	?SetFlagBitOn@C_Window@@QAEXJ@Z		; C_Window::SetFlagBitOn
$LN11@OpenWindow:

; 815  : 
; 816  : 	if((x+w) > Handler_->GetW()) x=static_cast<short>(Handler_->GetW()-w-1);//! 

	movsx	esi, WORD PTR _x$[ebp]
	movsx	edx, WORD PTR _w$[ebp]
	add	esi, edx
	mov	eax, DWORD PTR _this$[ebp]
	mov	ecx, DWORD PTR [eax+160]
	call	?GetW@C_Handler@@QAEJXZ			; C_Handler::GetW
	cmp	esi, eax
	jle	SHORT $LN10@OpenWindow
	mov	ecx, DWORD PTR _this$[ebp]
	mov	ecx, DWORD PTR [ecx+160]
	call	?GetW@C_Handler@@QAEJXZ			; C_Handler::GetW
	movsx	edx, WORD PTR _w$[ebp]
	sub	eax, edx
	sub	eax, 1
	mov	WORD PTR _x$[ebp], ax
$LN10@OpenWindow:

; 817  : 	if((y+h) > Handler_->GetH()) y=static_cast<short>(Handler_->GetH()-h-1);//! 

	movsx	esi, WORD PTR _y$[ebp]
	movsx	eax, WORD PTR _h$[ebp]
	add	esi, eax
	mov	ecx, DWORD PTR _this$[ebp]
	mov	ecx, DWORD PTR [ecx+160]
	call	?GetH@C_Handler@@QAEJXZ			; C_Handler::GetH
	cmp	esi, eax
	jle	SHORT $LN9@OpenWindow
	mov	edx, DWORD PTR _this$[ebp]
	mov	ecx, DWORD PTR [edx+160]
	call	?GetH@C_Handler@@QAEJXZ			; C_Handler::GetH
	movsx	ecx, WORD PTR _h$[ebp]
	sub	eax, ecx
	sub	eax, 1
	mov	WORD PTR _y$[ebp], ax
$LN9@OpenWindow:

; 818  : 	if(x < 0) x=0;

	movsx	edx, WORD PTR _x$[ebp]
	test	edx, edx
	jge	SHORT $LN8@OpenWindow
	xor	eax, eax
	mov	WORD PTR _x$[ebp], ax
$LN8@OpenWindow:

; 819  : 	if(y < 0) y=0;

	movsx	ecx, WORD PTR _y$[ebp]
	test	ecx, ecx
	jge	SHORT $LN7@OpenWindow
	xor	edx, edx
	mov	WORD PTR _y$[ebp], dx
$LN7@OpenWindow:

; 820  : 	Window_->SetRanges(0,0,static_cast<short>(Handler_->GetW()),static_cast<short>(Handler_->GetH()),w,h);//! 

	movzx	eax, WORD PTR _h$[ebp]
	push	eax
	movzx	ecx, WORD PTR _w$[ebp]
	push	ecx
	mov	edx, DWORD PTR _this$[ebp]
	mov	ecx, DWORD PTR [edx+160]
	call	?GetH@C_Handler@@QAEJXZ			; C_Handler::GetH
	push	eax
	mov	eax, DWORD PTR _this$[ebp]
	mov	ecx, DWORD PTR [eax+160]
	call	?GetW@C_Handler@@QAEJXZ			; C_Handler::GetW
	push	eax
	push	0
	push	0
	mov	ecx, DWORD PTR _this$[ebp]
	mov	ecx, DWORD PTR [ecx+156]
	call	?SetRanges@C_Window@@QAEXFFFFFF@Z	; C_Window::SetRanges

; 821  : 	Window_->SetXY(x,y);

	movzx	edx, WORD PTR _y$[ebp]
	push	edx
	movzx	eax, WORD PTR _x$[ebp]
	push	eax
	mov	ecx, DWORD PTR _this$[ebp]
	mov	ecx, DWORD PTR [ecx+156]
	call	?SetXY@C_Window@@QAEXFF@Z		; C_Window::SetXY

; 822  : 
; 823  : 	cur=Root_;

	mov	edx, DWORD PTR _this$[ebp]
	mov	eax, DWORD PTR [edx+152]
	mov	DWORD PTR _cur$[ebp], eax
$LN6@OpenWindow:

; 824  : 	while(cur)

	cmp	DWORD PTR _cur$[ebp], 0
	je	SHORT $LN5@OpenWindow

; 825  : 	{
; 826  : 		if(!(cur->flags_ & C_BIT_INVISIBLE))

	mov	ecx, DWORD PTR _cur$[ebp]
	mov	edx, DWORD PTR [ecx+4]
	and	edx, 8192				; 00002000H
	jne	SHORT $LN4@OpenWindow

; 827  : 		{
; 828  : 			if(cur->MenuIcon_)

	mov	eax, DWORD PTR _cur$[ebp]
	cmp	DWORD PTR [eax+16], 0
	je	SHORT $LN4@OpenWindow

; 829  : 			{
; 830  : 				cur->MenuIcon_->SetX(w-cur->MenuIcon_->GetW()-2);

	movsx	esi, WORD PTR _w$[ebp]
	mov	ecx, DWORD PTR _cur$[ebp]
	mov	ecx, DWORD PTR [ecx+16]
	call	?GetW@O_Output@@QAEJXZ			; O_Output::GetW
	sub	esi, eax
	sub	esi, 2
	push	esi
	mov	edx, DWORD PTR _cur$[ebp]
	mov	ecx, DWORD PTR [edx+16]
	call	?SetX@O_Output@@QAEXJ@Z			; O_Output::SetX

; 831  : 				cur->MenuIcon_->SetInfo();

	mov	eax, DWORD PTR _cur$[ebp]
	mov	ecx, DWORD PTR [eax+16]
	call	?SetInfo@O_Output@@QAEXXZ		; O_Output::SetInfo
$LN4@OpenWindow:

; 832  : 			}
; 833  : 		}
; 834  : 		cur=cur->Next;

	mov	ecx, DWORD PTR _cur$[ebp]
	mov	edx, DWORD PTR [ecx+32]
	mov	DWORD PTR _cur$[ebp], edx

; 835  : 	}

	jmp	SHORT $LN6@OpenWindow
$LN5@OpenWindow:

; 836  : 
; 837  : // Setup BG
; 838  : 	fill=new C_Fill;

	push	80					; 00000050H
	call	??2@YAPAXI@Z				; operator new
	add	esp, 4
	mov	DWORD PTR $T4[ebp], eax
	mov	DWORD PTR __$EHRec$[ebp+8], 1
	cmp	DWORD PTR $T4[ebp], 0
	je	SHORT $LN23@OpenWindow
	mov	ecx, DWORD PTR $T4[ebp]
	call	??0C_Fill@@QAE@XZ			; C_Fill::C_Fill
	mov	DWORD PTR tv294[ebp], eax
	jmp	SHORT $LN24@OpenWindow
$LN23@OpenWindow:
	mov	DWORD PTR tv294[ebp], 0
$LN24@OpenWindow:
	mov	eax, DWORD PTR tv294[ebp]
	mov	DWORD PTR $T2[ebp], eax
	mov	DWORD PTR __$EHRec$[ebp+8], -1
	mov	ecx, DWORD PTR $T2[ebp]
	mov	DWORD PTR _fill$[ebp], ecx

; 839  : 	fill->Setup(C_DONT_CARE,C_TYPE_VERTICAL);

	push	62					; 0000003eH
	push	-2					; fffffffeH
	mov	ecx, DWORD PTR _fill$[ebp]
	call	?Setup@C_Fill@@QAEXJF@Z			; C_Fill::Setup

; 840  : 	fill->SetXYWH(0,0,w,h);

	movsx	edx, WORD PTR _h$[ebp]
	push	edx
	movsx	eax, WORD PTR _w$[ebp]
	push	eax
	push	0
	push	0
	mov	ecx, DWORD PTR _fill$[ebp]
	mov	edx, DWORD PTR [ecx]
	mov	ecx, DWORD PTR _fill$[ebp]
	mov	eax, DWORD PTR [edx+40]
	call	eax

; 841  : 	fill->SetFlagBitOn(C_BIT_ABSOLUTE);

	push	262144					; 00040000H
	mov	ecx, DWORD PTR _fill$[ebp]
	mov	edx, DWORD PTR [ecx]
	mov	ecx, DWORD PTR _fill$[ebp]
	mov	eax, DWORD PTR [edx+8]
	call	eax

; 842  : 	if(GetFlags() & C_BIT_TRANSLUCENT)

	mov	ecx, DWORD PTR _this$[ebp]
	call	?GetFlags@C_Base@@QAEJXZ		; C_Base::GetFlags
	and	eax, 536870912				; 20000000H
	je	SHORT $LN2@OpenWindow

; 843  : 		fill->SetFlagBitOn(C_BIT_TRANSLUCENT);

	push	536870912				; 20000000H
	mov	ecx, DWORD PTR _fill$[ebp]
	mov	edx, DWORD PTR [ecx]
	mov	ecx, DWORD PTR _fill$[ebp]
	mov	eax, DWORD PTR [edx+8]
	call	eax
$LN2@OpenWindow:

; 844  : 	fill->SetColor(BgColor_);

	mov	ecx, DWORD PTR _this$[ebp]
	mov	edx, DWORD PTR [ecx+136]
	push	edx
	mov	ecx, DWORD PTR _fill$[ebp]
	call	?SetColor@C_Fill@@QAEXK@Z		; C_Fill::SetColor

; 845  : 	fill->SetGradient(Opaque_,Opaque_);

	mov	eax, DWORD PTR _this$[ebp]
	mov	ecx, DWORD PTR [eax+108]
	push	ecx
	mov	edx, DWORD PTR _this$[ebp]
	mov	eax, DWORD PTR [edx+108]
	push	eax
	mov	ecx, DWORD PTR _fill$[ebp]
	call	?SetGradient@C_Fill@@QAEXJJ@Z		; C_Fill::SetGradient

; 846  : 	Window_->AddControl(fill);

	mov	ecx, DWORD PTR _fill$[ebp]
	push	ecx
	mov	edx, DWORD PTR _this$[ebp]
	mov	ecx, DWORD PTR [edx+156]
	call	?AddControl@C_Window@@QAEXPAVC_Base@@@Z	; C_Window::AddControl

; 847  : 
; 848  : // Add Popup menu to window
; 849  : 	Window_->AddControl(this);

	mov	eax, DWORD PTR _this$[ebp]
	push	eax
	mov	ecx, DWORD PTR _this$[ebp]
	mov	ecx, DWORD PTR [ecx+156]
	call	?AddControl@C_Window@@QAEXPAVC_Base@@@Z	; C_Window::AddControl

; 850  : 
; 851  : 	Selected_=-1;

	or	edx, -1
	mov	eax, DWORD PTR _this$[ebp]
	mov	WORD PTR [eax+148], dx

; 852  : 	Window_->update_ |= C_DRAW_REFRESHALL;

	mov	ecx, DWORD PTR _this$[ebp]
	mov	edx, DWORD PTR [ecx+156]
	mov	eax, DWORD PTR [edx+104]
	or	eax, 2
	mov	ecx, DWORD PTR _this$[ebp]
	mov	edx, DWORD PTR [ecx+156]
	mov	DWORD PTR [edx+104], eax

; 853  : 	Window_->RefreshWindow();

	mov	eax, DWORD PTR _this$[ebp]
	mov	ecx, DWORD PTR [eax+156]
	call	?RefreshWindow@C_Window@@QAEXXZ		; C_Window::RefreshWindow

; 854  : 	Window_->SetDepth(10000);

	push	10000					; 00002710H
	mov	ecx, DWORD PTR _this$[ebp]
	mov	ecx, DWORD PTR [ecx+156]
	call	?SetDepth@C_Window@@QAEXF@Z		; C_Window::SetDepth

; 855  : 	Window_->SetCritical(Handler_->GetCritical());

	mov	edx, DWORD PTR _this$[ebp]
	mov	ecx, DWORD PTR [edx+160]
	call	?GetCritical@C_Handler@@QAEPAUF4CSECTIONHANDLE@@XZ ; C_Handler::GetCritical
	push	eax
	mov	eax, DWORD PTR _this$[ebp]
	mov	ecx, DWORD PTR [eax+156]
	call	?SetCritical@C_Window@@QAEXPAUF4CSECTIONHANDLE@@@Z ; C_Window::SetCritical

; 856  : 	Handler_->AddWindow(Window_,C_BIT_ENABLED|C_BIT_CANTMOVE);

	push	2099200					; 00200800H
	mov	ecx, DWORD PTR _this$[ebp]
	mov	edx, DWORD PTR [ecx+156]
	push	edx
	mov	eax, DWORD PTR _this$[ebp]
	mov	ecx, DWORD PTR [eax+160]
	call	?AddWindow@C_Handler@@QAEHPAVC_Window@@J@Z ; C_Handler::AddWindow

; 857  : 	if(WinType_ == C_TYPE_EXCLUSIVE)

	mov	ecx, DWORD PTR _this$[ebp]
	movsx	edx, WORD PTR [ecx+144]
	cmp	edx, 60					; 0000003cH
	jne	SHORT $LN1@OpenWindow

; 858  : 		MouseOver(x-Window_->GetX(),y-Window_->GetY(),this);

	mov	eax, DWORD PTR _this$[ebp]
	push	eax
	movsx	esi, WORD PTR _y$[ebp]
	mov	ecx, DWORD PTR _this$[ebp]
	mov	ecx, DWORD PTR [ecx+156]
	call	?GetY@C_Window@@QAEFXZ			; C_Window::GetY
	movsx	edx, ax
	sub	esi, edx
	push	esi
	movsx	esi, WORD PTR _x$[ebp]
	mov	eax, DWORD PTR _this$[ebp]
	mov	ecx, DWORD PTR [eax+156]
	call	?GetX@C_Window@@QAEFXZ			; C_Window::GetX
	movsx	ecx, ax
	sub	esi, ecx
	push	esi
	mov	edx, DWORD PTR _this$[ebp]
	mov	eax, DWORD PTR [edx]
	mov	ecx, DWORD PTR _this$[ebp]
	mov	edx, DWORD PTR [eax+208]
	call	edx
$LN1@OpenWindow:

; 859  : 
; 860  : 	return(TRUE);

	mov	eax, 1
$LN19@OpenWindow:

; 861  : }

	mov	ecx, DWORD PTR __$EHRec$[ebp]
	mov	DWORD PTR fs:0, ecx
	pop	ecx
	pop	esi
	mov	esp, ebp
	pop	ebp
	ret	12					; 0000000cH
_TEXT	ENDS
text$x	SEGMENT
__unwindfunclet$?OpenWindow@C_PopupList@@QAEHFFF@Z$0:
	mov	eax, DWORD PTR $T5[ebp]
	push	eax
	call	??3@YAXPAX@Z				; operator delete
	pop	ecx
	ret	0
__unwindfunclet$?OpenWindow@C_PopupList@@QAEHFFF@Z$1:
	mov	eax, DWORD PTR $T4[ebp]
	push	eax
	call	??3@YAXPAX@Z				; operator delete
	pop	ecx
	ret	0
__ehhandler$?OpenWindow@C_PopupList@@QAEHFFF@Z:
	mov	edx, DWORD PTR [esp+8]
	lea	eax, DWORD PTR [edx+12]
	mov	ecx, DWORD PTR [edx-60]
	xor	ecx, eax
	call	@__security_check_cookie@4
	mov	eax, OFFSET __ehfuncinfo$?OpenWindow@C_PopupList@@QAEHFFF@Z
	jmp	___CxxFrameHandler3
text$x	ENDS
?OpenWindow@C_PopupList@@QAEHFFF@Z ENDP			; C_PopupList::OpenWindow
; Function compile flags: /Odtp
; File c:\users\zhitao li\documents\visual studio 2012\projects\freefalcon\ui95\cpopup.cpp
_TEXT	SEGMENT
_this$ = -8						; size = 4
_cur$ = -4						; size = 4
?CloseSubMenus@C_PopupList@@QAEXXZ PROC			; C_PopupList::CloseSubMenus
; _this$ = ecx

; 453  : {

	push	ebp
	mov	ebp, esp
	sub	esp, 8
	mov	DWORD PTR _this$[ebp], ecx

; 454  : 	POPUPLIST *cur;
; 455  : 
; 456  : 	Handler_->EnterCritical();

	mov	eax, DWORD PTR _this$[ebp]
	mov	ecx, DWORD PTR [eax+160]
	call	?EnterCritical@C_Handler@@QAEXXZ	; C_Handler::EnterCritical

; 457  : 	cur=Root_;

	mov	ecx, DWORD PTR _this$[ebp]
	mov	edx, DWORD PTR [ecx+152]
	mov	DWORD PTR _cur$[ebp], edx
$LN5@CloseSubMe:

; 458  : 
; 459  : 	while(cur)

	cmp	DWORD PTR _cur$[ebp], 0
	je	SHORT $LN4@CloseSubMe

; 460  : 	{
; 461  : 		if(cur->Type_ == C_TYPE_MENU)

	mov	eax, DWORD PTR _cur$[ebp]
	movsx	ecx, WORD PTR [eax+36]
	cmp	ecx, 49					; 00000031H
	jne	SHORT $LN3@CloseSubMe

; 462  : 		{
; 463  : 			if(cur->SubMenu_)

	mov	edx, DWORD PTR _cur$[ebp]
	cmp	DWORD PTR [edx+24], 0
	je	SHORT $LN3@CloseSubMe

; 464  : 			{
; 465  : 				if(cur->SubMenu_->Window_)

	mov	eax, DWORD PTR _cur$[ebp]
	mov	ecx, DWORD PTR [eax+24]
	cmp	DWORD PTR [ecx+156], 0
	je	SHORT $LN3@CloseSubMe

; 466  : 				{
; 467  : 					cur->SubMenu_->CloseSubMenus();

	mov	edx, DWORD PTR _cur$[ebp]
	mov	ecx, DWORD PTR [edx+24]
	call	?CloseSubMenus@C_PopupList@@QAEXXZ	; C_PopupList::CloseSubMenus

; 468  : 					cur->SubMenu_->CloseWindow();

	mov	eax, DWORD PTR _cur$[ebp]
	mov	ecx, DWORD PTR [eax+24]
	mov	edx, DWORD PTR _cur$[ebp]
	mov	eax, DWORD PTR [ecx]
	mov	ecx, DWORD PTR [edx+24]
	mov	edx, DWORD PTR [eax+204]
	call	edx
$LN3@CloseSubMe:

; 469  : 				}
; 470  : 			}
; 471  : 		}
; 472  : 		cur=cur->Next;

	mov	eax, DWORD PTR _cur$[ebp]
	mov	ecx, DWORD PTR [eax+32]
	mov	DWORD PTR _cur$[ebp], ecx

; 473  : 	}

	jmp	SHORT $LN5@CloseSubMe
$LN4@CloseSubMe:

; 474  : 	Handler_->LeaveCritical();

	mov	edx, DWORD PTR _this$[ebp]
	mov	ecx, DWORD PTR [edx+160]
	call	?LeaveCritical@C_Handler@@QAEXXZ	; C_Handler::LeaveCritical

; 475  : }

	mov	esp, ebp
	pop	ebp
	ret	0
?CloseSubMenus@C_PopupList@@QAEXXZ ENDP			; C_PopupList::CloseSubMenus
_TEXT	ENDS
; Function compile flags: /Odtp
; File c:\users\zhitao li\documents\visual studio 2012\projects\freefalcon\ui95\cpopup.cpp
_TEXT	SEGMENT
_this$ = -4						; size = 4
_w$ = 8							; size = 4
_h$ = 12						; size = 4
?GetWindowSize@C_PopupList@@QAEXPAF0@Z PROC		; C_PopupList::GetWindowSize
; _this$ = ecx

; 753  : {

	push	ebp
	mov	ebp, esp
	push	ecx
	push	esi
	mov	DWORD PTR _this$[ebp], ecx

; 754  : 	GetSize(w,h);

	mov	eax, DWORD PTR _h$[ebp]
	push	eax
	mov	ecx, DWORD PTR _w$[ebp]
	push	ecx
	mov	ecx, DWORD PTR _this$[ebp]
	call	?GetSize@C_PopupList@@AAEXPAF0@Z	; C_PopupList::GetSize

; 755  : 	(*w)+=48;

	mov	edx, DWORD PTR _w$[ebp]
	movsx	eax, WORD PTR [edx]
	add	eax, 48					; 00000030H
	mov	ecx, DWORD PTR _w$[ebp]
	mov	WORD PTR [ecx], ax

; 756  : 	(*h)+=10;

	mov	edx, DWORD PTR _h$[ebp]
	movsx	eax, WORD PTR [edx]
	add	eax, 10					; 0000000aH
	mov	ecx, DWORD PTR _h$[ebp]
	mov	WORD PTR [ecx], ax

; 757  : 
; 758  : 	if((*w) > Handler_->GetW())

	mov	edx, DWORD PTR _w$[ebp]
	movsx	esi, WORD PTR [edx]
	mov	eax, DWORD PTR _this$[ebp]
	mov	ecx, DWORD PTR [eax+160]
	call	?GetW@C_Handler@@QAEJXZ			; C_Handler::GetW
	cmp	esi, eax
	jle	SHORT $LN2@GetWindowS

; 759  : 		(*w)=static_cast<short>(Handler_->GetW());//! 

	mov	ecx, DWORD PTR _this$[ebp]
	mov	ecx, DWORD PTR [ecx+160]
	call	?GetW@C_Handler@@QAEJXZ			; C_Handler::GetW
	mov	edx, DWORD PTR _w$[ebp]
	mov	WORD PTR [edx], ax
$LN2@GetWindowS:

; 760  : 
; 761  : 	if((*h) > Handler_->GetH())

	mov	eax, DWORD PTR _h$[ebp]
	movsx	esi, WORD PTR [eax]
	mov	ecx, DWORD PTR _this$[ebp]
	mov	ecx, DWORD PTR [ecx+160]
	call	?GetH@C_Handler@@QAEJXZ			; C_Handler::GetH
	cmp	esi, eax
	jle	SHORT $LN3@GetWindowS

; 762  : 		(*h)=static_cast<short>(Handler_->GetH());//! 

	mov	edx, DWORD PTR _this$[ebp]
	mov	ecx, DWORD PTR [edx+160]
	call	?GetH@C_Handler@@QAEJXZ			; C_Handler::GetH
	mov	ecx, DWORD PTR _h$[ebp]
	mov	WORD PTR [ecx], ax
$LN3@GetWindowS:

; 763  : }

	pop	esi
	mov	esp, ebp
	pop	ebp
	ret	8
?GetWindowSize@C_PopupList@@QAEXPAF0@Z ENDP		; C_PopupList::GetWindowSize
_TEXT	ENDS
; Function compile flags: /Odtp
; File c:\users\zhitao li\documents\visual studio 2012\projects\freefalcon\ui95\cpopup.h
;	COMDAT ?GetFont@C_PopupList@@UAEJXZ
_TEXT	SEGMENT
_this$ = -4						; size = 4
?GetFont@C_PopupList@@UAEJXZ PROC			; C_PopupList::GetFont, COMDAT
; _this$ = ecx

; 99   : 		long GetFont() { return(Font_); }

	push	ebp
	mov	ebp, esp
	push	ecx
	mov	DWORD PTR _this$[ebp], ecx
	mov	eax, DWORD PTR _this$[ebp]
	mov	eax, DWORD PTR [eax+104]
	mov	esp, ebp
	pop	ebp
	ret	0
?GetFont@C_PopupList@@UAEJXZ ENDP			; C_PopupList::GetFont
_TEXT	ENDS
; Function compile flags: /Odtp
; File c:\users\zhitao li\documents\visual studio 2012\projects\freefalcon\ui95\cpopup.cpp
_TEXT	SEGMENT
_this$ = -8						; size = 4
_cur$ = -4						; size = 4
_ID$ = 8						; size = 4
?GetItemLabel@C_PopupList@@QAEPADJ@Z PROC		; C_PopupList::GetItemLabel
; _this$ = ecx

; 307  : {

	push	ebp
	mov	ebp, esp
	sub	esp, 8
	mov	DWORD PTR _this$[ebp], ecx

; 308  : 	POPUPLIST *cur;
; 309  : 
; 310  : 	cur=FindID(ID);

	mov	eax, DWORD PTR _ID$[ebp]
	push	eax
	mov	ecx, DWORD PTR _this$[ebp]
	call	?FindID@C_PopupList@@AAEPAUPopUpStr@@J@Z ; C_PopupList::FindID
	mov	DWORD PTR _cur$[ebp], eax

; 311  : 	if(cur)

	cmp	DWORD PTR _cur$[ebp], 0
	je	SHORT $LN2@GetItemLab

; 312  : 		if(cur->Label_)

	mov	ecx, DWORD PTR _cur$[ebp]
	cmp	DWORD PTR [ecx+12], 0
	je	SHORT $LN2@GetItemLab

; 313  : 			return(cur->Label_->GetText());

	mov	edx, DWORD PTR _cur$[ebp]
	mov	ecx, DWORD PTR [edx+12]
	call	?GetText@O_Output@@QAEPADXZ		; O_Output::GetText
	jmp	SHORT $LN3@GetItemLab
$LN2@GetItemLab:

; 314  : 	return(NULL);

	xor	eax, eax
$LN3@GetItemLab:

; 315  : }

	mov	esp, ebp
	pop	ebp
	ret	4
?GetItemLabel@C_PopupList@@QAEPADJ@Z ENDP		; C_PopupList::GetItemLabel
_TEXT	ENDS
; Function compile flags: /Odtp
; File c:\users\zhitao li\documents\visual studio 2012\projects\freefalcon\ui95\cpopup.cpp
_TEXT	SEGMENT
_this$ = -8						; size = 4
_cur$ = -4						; size = 4
_ID$ = 8						; size = 4
_textID$ = 12						; size = 4
?SetItemLabel@C_PopupList@@QAEXJJ@Z PROC		; C_PopupList::SetItemLabel
; _this$ = ecx

; 327  : {

	push	ebp
	mov	ebp, esp
	sub	esp, 8
	mov	DWORD PTR _this$[ebp], ecx

; 328  : 	POPUPLIST *cur;
; 329  : 
; 330  : 	cur=FindID(ID);

	mov	eax, DWORD PTR _ID$[ebp]
	push	eax
	mov	ecx, DWORD PTR _this$[ebp]
	call	?FindID@C_PopupList@@AAEPAUPopUpStr@@J@Z ; C_PopupList::FindID
	mov	DWORD PTR _cur$[ebp], eax

; 331  : 	if(cur)

	cmp	DWORD PTR _cur$[ebp], 0
	je	SHORT $LN2@SetItemLab

; 332  : 		cur->Label_->SetText(gStringMgr->GetString(textID));

	mov	ecx, DWORD PTR _textID$[ebp]
	push	ecx
	mov	ecx, DWORD PTR ?gStringMgr@@3PAVC_String@@A ; gStringMgr
	call	?GetString@C_String@@QAEPADJ@Z		; C_String::GetString
	push	eax
	mov	edx, DWORD PTR _cur$[ebp]
	mov	ecx, DWORD PTR [edx+12]
	call	?SetText@O_Output@@QAEXPAD@Z		; O_Output::SetText
$LN2@SetItemLab:

; 333  : }

	mov	esp, ebp
	pop	ebp
	ret	8
?SetItemLabel@C_PopupList@@QAEXJJ@Z ENDP		; C_PopupList::SetItemLabel
_TEXT	ENDS
; Function compile flags: /Odtp
; File c:\users\zhitao li\documents\visual studio 2012\projects\freefalcon\ui95\cpopup.cpp
_TEXT	SEGMENT
_this$ = -8						; size = 4
_cur$ = -4						; size = 4
_ID$ = 8						; size = 4
_txt$ = 12						; size = 4
?SetItemLabel@C_PopupList@@QAEXJPAD@Z PROC		; C_PopupList::SetItemLabel
; _this$ = ecx

; 318  : {

	push	ebp
	mov	ebp, esp
	sub	esp, 8
	mov	DWORD PTR _this$[ebp], ecx

; 319  : 	POPUPLIST *cur;
; 320  : 
; 321  : 	cur=FindID(ID);

	mov	eax, DWORD PTR _ID$[ebp]
	push	eax
	mov	ecx, DWORD PTR _this$[ebp]
	call	?FindID@C_PopupList@@AAEPAUPopUpStr@@J@Z ; C_PopupList::FindID
	mov	DWORD PTR _cur$[ebp], eax

; 322  : 	if(cur)

	cmp	DWORD PTR _cur$[ebp], 0
	je	SHORT $LN2@SetItemLab

; 323  : 		cur->Label_->SetText(gStringMgr->GetText(gStringMgr->AddText(txt)));

	mov	ecx, DWORD PTR _txt$[ebp]
	push	ecx
	mov	ecx, DWORD PTR ?gStringMgr@@3PAVC_String@@A ; gStringMgr
	call	?AddText@C_String@@QAEJPBD@Z		; C_String::AddText
	push	eax
	mov	ecx, DWORD PTR ?gStringMgr@@3PAVC_String@@A ; gStringMgr
	call	?GetText@C_String@@QAEPADJ@Z		; C_String::GetText
	push	eax
	mov	edx, DWORD PTR _cur$[ebp]
	mov	ecx, DWORD PTR [edx+12]
	call	?SetText@O_Output@@QAEXPAD@Z		; O_Output::SetText
$LN2@SetItemLab:

; 324  : }

	mov	esp, ebp
	pop	ebp
	ret	8
?SetItemLabel@C_PopupList@@QAEXJPAD@Z ENDP		; C_PopupList::SetItemLabel
_TEXT	ENDS
; Function compile flags: /Odtp
; File c:\users\zhitao li\documents\visual studio 2012\projects\freefalcon\ui95\cpopup.cpp
_TEXT	SEGMENT
_this$ = -8						; size = 4
_cur$ = -4						; size = 4
_ID$ = 8						; size = 4
?GetItemGroup@C_PopupList@@QAEJJ@Z PROC			; C_PopupList::GetItemGroup
; _this$ = ecx

; 390  : {

	push	ebp
	mov	ebp, esp
	sub	esp, 8
	mov	DWORD PTR _this$[ebp], ecx

; 391  : 	POPUPLIST *cur;
; 392  : 
; 393  : 	cur=FindID(ID);

	mov	eax, DWORD PTR _ID$[ebp]
	push	eax
	mov	ecx, DWORD PTR _this$[ebp]
	call	?FindID@C_PopupList@@AAEPAUPopUpStr@@J@Z ; C_PopupList::FindID
	mov	DWORD PTR _cur$[ebp], eax

; 394  : 	if(cur)

	cmp	DWORD PTR _cur$[ebp], 0
	je	SHORT $LN1@GetItemGro

; 395  : 		return(cur->Group_);

	mov	ecx, DWORD PTR _cur$[ebp]
	mov	eax, DWORD PTR [ecx+8]
	jmp	SHORT $LN2@GetItemGro
$LN1@GetItemGro:

; 396  : 	return(0);

	xor	eax, eax
$LN2@GetItemGro:

; 397  : }

	mov	esp, ebp
	pop	ebp
	ret	4
?GetItemGroup@C_PopupList@@QAEJJ@Z ENDP			; C_PopupList::GetItemGroup
_TEXT	ENDS
; Function compile flags: /Odtp
; File c:\users\zhitao li\documents\visual studio 2012\projects\freefalcon\ui95\cpopup.cpp
_TEXT	SEGMENT
_this$ = -8						; size = 4
_cur$ = -4						; size = 4
_ID$ = 8						; size = 4
_Group$ = 12						; size = 4
?SetItemGroup@C_PopupList@@QAEXJJ@Z PROC		; C_PopupList::SetItemGroup
; _this$ = ecx

; 381  : {

	push	ebp
	mov	ebp, esp
	sub	esp, 8
	mov	DWORD PTR _this$[ebp], ecx

; 382  : 	POPUPLIST *cur;
; 383  : 
; 384  : 	cur=FindID(ID);

	mov	eax, DWORD PTR _ID$[ebp]
	push	eax
	mov	ecx, DWORD PTR _this$[ebp]
	call	?FindID@C_PopupList@@AAEPAUPopUpStr@@J@Z ; C_PopupList::FindID
	mov	DWORD PTR _cur$[ebp], eax

; 385  : 	if(cur)

	cmp	DWORD PTR _cur$[ebp], 0
	je	SHORT $LN2@SetItemGro

; 386  : 		cur->Group_=Group;

	mov	ecx, DWORD PTR _cur$[ebp]
	mov	edx, DWORD PTR _Group$[ebp]
	mov	DWORD PTR [ecx+8], edx
$LN2@SetItemGro:

; 387  : }

	mov	esp, ebp
	pop	ebp
	ret	8
?SetItemGroup@C_PopupList@@QAEXJJ@Z ENDP		; C_PopupList::SetItemGroup
_TEXT	ENDS
; Function compile flags: /Odtp
; File c:\users\zhitao li\documents\visual studio 2012\projects\freefalcon\ui95\cpopup.cpp
_TEXT	SEGMENT
_this$ = -8						; size = 4
_cur$ = -4						; size = 4
_ID$ = 8						; size = 4
?GetItemState@C_PopupList@@QAEFJ@Z PROC			; C_PopupList::GetItemState
; _this$ = ecx

; 371  : {

	push	ebp
	mov	ebp, esp
	sub	esp, 8
	mov	DWORD PTR _this$[ebp], ecx

; 372  : 	POPUPLIST *cur;
; 373  : 
; 374  : 	cur=FindID(ID);

	mov	eax, DWORD PTR _ID$[ebp]
	push	eax
	mov	ecx, DWORD PTR _this$[ebp]
	call	?FindID@C_PopupList@@AAEPAUPopUpStr@@J@Z ; C_PopupList::FindID
	mov	DWORD PTR _cur$[ebp], eax

; 375  : 	if(cur)

	cmp	DWORD PTR _cur$[ebp], 0
	je	SHORT $LN1@GetItemSta

; 376  : 		return(cur->State_);

	mov	ecx, DWORD PTR _cur$[ebp]
	mov	ax, WORD PTR [ecx+38]
	jmp	SHORT $LN2@GetItemSta
$LN1@GetItemSta:

; 377  : 	return(0);

	xor	eax, eax
$LN2@GetItemSta:

; 378  : }

	mov	esp, ebp
	pop	ebp
	ret	4
?GetItemState@C_PopupList@@QAEFJ@Z ENDP			; C_PopupList::GetItemState
_TEXT	ENDS
; Function compile flags: /Odtp
; File c:\users\zhitao li\documents\visual studio 2012\projects\freefalcon\ui95\cpopup.cpp
_TEXT	SEGMENT
_this$ = -8						; size = 4
_cur$ = -4						; size = 4
_ID$ = 8						; size = 4
_val$ = 12						; size = 2
?SetItemState@C_PopupList@@QAEXJF@Z PROC		; C_PopupList::SetItemState
; _this$ = ecx

; 354  : {

	push	ebp
	mov	ebp, esp
	sub	esp, 8
	mov	DWORD PTR _this$[ebp], ecx

; 355  : 	POPUPLIST *cur;
; 356  : 
; 357  : 	cur=FindID(ID);

	mov	eax, DWORD PTR _ID$[ebp]
	push	eax
	mov	ecx, DWORD PTR _this$[ebp]
	call	?FindID@C_PopupList@@AAEPAUPopUpStr@@J@Z ; C_PopupList::FindID
	mov	DWORD PTR _cur$[ebp], eax

; 358  : 	if(cur)

	cmp	DWORD PTR _cur$[ebp], 0
	je	SHORT $LN5@SetItemSta

; 359  : 	{
; 360  : 		if(cur->Type_ == C_TYPE_TOGGLE)

	mov	ecx, DWORD PTR _cur$[ebp]
	movsx	edx, WORD PTR [ecx+36]
	cmp	edx, 26					; 0000001aH
	jne	SHORT $LN3@SetItemSta

; 361  : 			cur->State_=static_cast<short>(val & 1);//! 

	movsx	eax, WORD PTR _val$[ebp]
	and	eax, 1
	mov	ecx, DWORD PTR _cur$[ebp]
	mov	WORD PTR [ecx+38], ax
	jmp	SHORT $LN5@SetItemSta
$LN3@SetItemSta:

; 362  : 		else if(cur->Type_ == C_TYPE_RADIO && cur->Group_)

	mov	edx, DWORD PTR _cur$[ebp]
	movsx	eax, WORD PTR [edx+36]
	cmp	eax, 27					; 0000001bH
	jne	SHORT $LN5@SetItemSta
	mov	ecx, DWORD PTR _cur$[ebp]
	cmp	DWORD PTR [ecx+8], 0
	je	SHORT $LN5@SetItemSta

; 363  : 		{
; 364  : 			ClearRadioGroup(cur->Group_);

	mov	edx, DWORD PTR _cur$[ebp]
	mov	eax, DWORD PTR [edx+8]
	push	eax
	mov	ecx, DWORD PTR _this$[ebp]
	call	?ClearRadioGroup@C_PopupList@@QAEXJ@Z	; C_PopupList::ClearRadioGroup

; 365  : 			cur->State_=static_cast<short>(val & 1);//! 

	movsx	ecx, WORD PTR _val$[ebp]
	and	ecx, 1
	mov	edx, DWORD PTR _cur$[ebp]
	mov	WORD PTR [edx+38], cx
$LN5@SetItemSta:

; 366  : 		}
; 367  : 	}
; 368  : }

	mov	esp, ebp
	pop	ebp
	ret	8
?SetItemState@C_PopupList@@QAEXJF@Z ENDP		; C_PopupList::SetItemState
_TEXT	ENDS
; Function compile flags: /Odtp
; File c:\users\zhitao li\documents\visual studio 2012\projects\freefalcon\ui95\cpopup.cpp
_TEXT	SEGMENT
_this$ = -8						; size = 4
_Pop$ = -4						; size = 4
_GroupID$ = 8						; size = 4
?ClearRadioGroup@C_PopupList@@QAEXJ@Z PROC		; C_PopupList::ClearRadioGroup
; _this$ = ecx

; 400  : {

	push	ebp
	mov	ebp, esp
	sub	esp, 8
	mov	DWORD PTR _this$[ebp], ecx

; 401  : 	POPUPLIST *Pop;
; 402  : 
; 403  : 	Pop=Root_;

	mov	eax, DWORD PTR _this$[ebp]
	mov	ecx, DWORD PTR [eax+152]
	mov	DWORD PTR _Pop$[ebp], ecx
$LN5@ClearRadio:

; 404  : 	while(Pop)

	cmp	DWORD PTR _Pop$[ebp], 0
	je	SHORT $LN6@ClearRadio

; 405  : 	{
; 406  : 		if(Pop->Type_ == C_TYPE_RADIO && Pop->Group_ == GroupID)

	mov	edx, DWORD PTR _Pop$[ebp]
	movsx	eax, WORD PTR [edx+36]
	cmp	eax, 27					; 0000001bH
	jne	SHORT $LN3@ClearRadio
	mov	ecx, DWORD PTR _Pop$[ebp]
	mov	edx, DWORD PTR [ecx+8]
	cmp	edx, DWORD PTR _GroupID$[ebp]
	jne	SHORT $LN3@ClearRadio

; 407  : 			Pop->State_=0;

	xor	eax, eax
	mov	ecx, DWORD PTR _Pop$[ebp]
	mov	WORD PTR [ecx+38], ax
	jmp	SHORT $LN2@ClearRadio
$LN3@ClearRadio:

; 408  : 		else if(Pop->Type_ == C_TYPE_MENU && Pop->SubMenu_)

	mov	edx, DWORD PTR _Pop$[ebp]
	movsx	eax, WORD PTR [edx+36]
	cmp	eax, 49					; 00000031H
	jne	SHORT $LN2@ClearRadio
	mov	ecx, DWORD PTR _Pop$[ebp]
	cmp	DWORD PTR [ecx+24], 0
	je	SHORT $LN2@ClearRadio

; 409  : 			Pop->SubMenu_->ClearRadioGroup(GroupID);

	mov	edx, DWORD PTR _GroupID$[ebp]
	push	edx
	mov	eax, DWORD PTR _Pop$[ebp]
	mov	ecx, DWORD PTR [eax+24]
	call	?ClearRadioGroup@C_PopupList@@QAEXJ@Z	; C_PopupList::ClearRadioGroup
$LN2@ClearRadio:

; 410  : 
; 411  : 		Pop=Pop->Next;

	mov	ecx, DWORD PTR _Pop$[ebp]
	mov	edx, DWORD PTR [ecx+32]
	mov	DWORD PTR _Pop$[ebp], edx

; 412  : 	}

	jmp	SHORT $LN5@ClearRadio
$LN6@ClearRadio:

; 413  : }

	mov	esp, ebp
	pop	ebp
	ret	4
?ClearRadioGroup@C_PopupList@@QAEXJ@Z ENDP		; C_PopupList::ClearRadioGroup
_TEXT	ENDS
; Function compile flags: /Odtp
; File c:\users\zhitao li\documents\visual studio 2012\projects\freefalcon\ui95\cpopup.h
;	COMDAT ?SetDefaultFlags@C_PopupList@@QAEXXZ
_TEXT	SEGMENT
_this$ = -4						; size = 4
?SetDefaultFlags@C_PopupList@@QAEXXZ PROC		; C_PopupList::SetDefaultFlags, COMDAT
; _this$ = ecx

; 85   : 		void SetDefaultFlags() { SetFlags(DefaultFlags_); }

	push	ebp
	mov	ebp, esp
	push	ecx
	mov	DWORD PTR _this$[ebp], ecx
	mov	eax, DWORD PTR _this$[ebp]
	mov	ecx, DWORD PTR [eax+100]
	push	ecx
	mov	edx, DWORD PTR _this$[ebp]
	mov	eax, DWORD PTR [edx]
	mov	ecx, DWORD PTR _this$[ebp]
	mov	edx, DWORD PTR [eax+4]
	call	edx
	mov	esp, ebp
	pop	ebp
	ret	0
?SetDefaultFlags@C_PopupList@@QAEXXZ ENDP		; C_PopupList::SetDefaultFlags
_TEXT	ENDS
; Function compile flags: /Odtp
; File c:\users\zhitao li\documents\visual studio 2012\projects\freefalcon\ui95\cpopup.cpp
_TEXT	SEGMENT
tv74 = -16						; size = 4
$T1 = -12						; size = 4
$T2 = -8						; size = 4
_this$ = -4						; size = 4
?Cleanup@C_PopupList@@UAEXXZ PROC			; C_PopupList::Cleanup
; _this$ = ecx

; 100  : {

	push	ebp
	mov	ebp, esp
	sub	esp, 16					; 00000010H
	mov	DWORD PTR _this$[ebp], ecx

; 101  : 	RemoveAllItems();

	mov	ecx, DWORD PTR _this$[ebp]
	call	?RemoveAllItems@C_PopupList@@QAEXXZ	; C_PopupList::RemoveAllItems

; 102  : 	if(Window_)

	mov	eax, DWORD PTR _this$[ebp]
	cmp	DWORD PTR [eax+156], 0
	je	SHORT $LN2@Cleanup

; 103  : 	{
; 104  : 		Window_->Cleanup();

	mov	ecx, DWORD PTR _this$[ebp]
	mov	ecx, DWORD PTR [ecx+156]
	call	?Cleanup@C_Window@@QAEXXZ		; C_Window::Cleanup

; 105  : 		delete Window_;

	mov	edx, DWORD PTR _this$[ebp]
	mov	eax, DWORD PTR [edx+156]
	mov	DWORD PTR $T1[ebp], eax
	mov	ecx, DWORD PTR $T1[ebp]
	mov	DWORD PTR $T2[ebp], ecx
	cmp	DWORD PTR $T2[ebp], 0
	je	SHORT $LN4@Cleanup
	push	1
	mov	ecx, DWORD PTR $T2[ebp]
	call	??_GC_Window@@QAEPAXI@Z
	mov	DWORD PTR tv74[ebp], eax
	jmp	SHORT $LN5@Cleanup
$LN4@Cleanup:
	mov	DWORD PTR tv74[ebp], 0
$LN5@Cleanup:

; 106  : 		Window_ = NULL;

	mov	edx, DWORD PTR _this$[ebp]
	mov	DWORD PTR [edx+156], 0
$LN2@Cleanup:

; 107  : 	}
; 108  : }

	mov	esp, ebp
	pop	ebp
	ret	0
?Cleanup@C_PopupList@@UAEXXZ ENDP			; C_PopupList::Cleanup
_TEXT	ENDS
; Function compile flags: /Odtp
; File c:\users\zhitao li\documents\visual studio 2012\projects\freefalcon\ui95\cpopup.h
;	COMDAT ?SetOpaque@C_PopupList@@QAEXJ@Z
_TEXT	SEGMENT
_this$ = -4						; size = 4
_percentage$ = 8					; size = 4
?SetOpaque@C_PopupList@@QAEXJ@Z PROC			; C_PopupList::SetOpaque, COMDAT
; _this$ = ecx

; 82   : 		void SetOpaque(long percentage) { Opaque_=percentage; }

	push	ebp
	mov	ebp, esp
	push	ecx
	mov	DWORD PTR _this$[ebp], ecx
	mov	eax, DWORD PTR _this$[ebp]
	mov	ecx, DWORD PTR _percentage$[ebp]
	mov	DWORD PTR [eax+108], ecx
	mov	esp, ebp
	pop	ebp
	ret	4
?SetOpaque@C_PopupList@@QAEXJ@Z ENDP			; C_PopupList::SetOpaque
_TEXT	ENDS
; Function compile flags: /Odtp
; File c:\users\zhitao li\documents\visual studio 2012\projects\freefalcon\ui95\cpopup.h
;	COMDAT ?SetBorderColor@C_PopupList@@QAEXK@Z
_TEXT	SEGMENT
_this$ = -4						; size = 4
_color$ = 8						; size = 4
?SetBorderColor@C_PopupList@@QAEXK@Z PROC		; C_PopupList::SetBorderColor, COMDAT
; _this$ = ecx

; 81   : 		void SetBorderColor(COLORREF color) { BorderColor_=color; }

	push	ebp
	mov	ebp, esp
	push	ecx
	mov	DWORD PTR _this$[ebp], ecx
	mov	eax, DWORD PTR _this$[ebp]
	mov	ecx, DWORD PTR _color$[ebp]
	mov	DWORD PTR [eax+140], ecx
	mov	esp, ebp
	pop	ebp
	ret	4
?SetBorderColor@C_PopupList@@QAEXK@Z ENDP		; C_PopupList::SetBorderColor
_TEXT	ENDS
; Function compile flags: /Odtp
; File c:\users\zhitao li\documents\visual studio 2012\projects\freefalcon\ui95\cpopup.h
;	COMDAT ?SetBgColor@C_PopupList@@QAEXK@Z
_TEXT	SEGMENT
_this$ = -4						; size = 4
_color$ = 8						; size = 4
?SetBgColor@C_PopupList@@QAEXK@Z PROC			; C_PopupList::SetBgColor, COMDAT
; _this$ = ecx

; 80   : 		void SetBgColor(COLORREF color) { BgColor_=color; }

	push	ebp
	mov	ebp, esp
	push	ecx
	mov	DWORD PTR _this$[ebp], ecx
	mov	eax, DWORD PTR _this$[ebp]
	mov	ecx, DWORD PTR _color$[ebp]
	mov	DWORD PTR [eax+136], ecx
	mov	esp, ebp
	pop	ebp
	ret	4
?SetBgColor@C_PopupList@@QAEXK@Z ENDP			; C_PopupList::SetBgColor
_TEXT	ENDS
; Function compile flags: /Odtp
; File c:\users\zhitao li\documents\visual studio 2012\projects\freefalcon\ui95\cpopup.h
;	COMDAT ?SetBarColor@C_PopupList@@QAEXK@Z
_TEXT	SEGMENT
_this$ = -4						; size = 4
_color$ = 8						; size = 4
?SetBarColor@C_PopupList@@QAEXK@Z PROC			; C_PopupList::SetBarColor, COMDAT
; _this$ = ecx

; 79   : 		void SetBarColor(COLORREF color) { BarColor_=color; }

	push	ebp
	mov	ebp, esp
	push	ecx
	mov	DWORD PTR _this$[ebp], ecx
	mov	eax, DWORD PTR _this$[ebp]
	mov	ecx, DWORD PTR _color$[ebp]
	mov	DWORD PTR [eax+132], ecx
	mov	esp, ebp
	pop	ebp
	ret	4
?SetBarColor@C_PopupList@@QAEXK@Z ENDP			; C_PopupList::SetBarColor
_TEXT	ENDS
; Function compile flags: /Odtp
; File c:\users\zhitao li\documents\visual studio 2012\projects\freefalcon\ui95\cpopup.h
;	COMDAT ?SetDisColor@C_PopupList@@QAEXK@Z
_TEXT	SEGMENT
_this$ = -4						; size = 4
_color$ = 8						; size = 4
?SetDisColor@C_PopupList@@QAEXK@Z PROC			; C_PopupList::SetDisColor, COMDAT
; _this$ = ecx

; 78   : 		void SetDisColor(COLORREF color) { DisColor_=color; }

	push	ebp
	mov	ebp, esp
	push	ecx
	mov	DWORD PTR _this$[ebp], ecx
	mov	eax, DWORD PTR _this$[ebp]
	mov	ecx, DWORD PTR _color$[ebp]
	mov	DWORD PTR [eax+128], ecx
	mov	esp, ebp
	pop	ebp
	ret	4
?SetDisColor@C_PopupList@@QAEXK@Z ENDP			; C_PopupList::SetDisColor
_TEXT	ENDS
; Function compile flags: /Odtp
; File c:\users\zhitao li\documents\visual studio 2012\projects\freefalcon\ui95\cpopup.h
;	COMDAT ?SetSelColor@C_PopupList@@QAEXK@Z
_TEXT	SEGMENT
_this$ = -4						; size = 4
_color$ = 8						; size = 4
?SetSelColor@C_PopupList@@QAEXK@Z PROC			; C_PopupList::SetSelColor, COMDAT
; _this$ = ecx

; 77   : 		void SetSelColor(COLORREF color) { SelColor_=color; }

	push	ebp
	mov	ebp, esp
	push	ecx
	mov	DWORD PTR _this$[ebp], ecx
	mov	eax, DWORD PTR _this$[ebp]
	mov	ecx, DWORD PTR _color$[ebp]
	mov	DWORD PTR [eax+124], ecx
	mov	esp, ebp
	pop	ebp
	ret	4
?SetSelColor@C_PopupList@@QAEXK@Z ENDP			; C_PopupList::SetSelColor
_TEXT	ENDS
; Function compile flags: /Odtp
; File c:\users\zhitao li\documents\visual studio 2012\projects\freefalcon\ui95\cpopup.h
;	COMDAT ?SetNormColor@C_PopupList@@QAEXK@Z
_TEXT	SEGMENT
_this$ = -4						; size = 4
_color$ = 8						; size = 4
?SetNormColor@C_PopupList@@QAEXK@Z PROC			; C_PopupList::SetNormColor, COMDAT
; _this$ = ecx

; 76   : 		void SetNormColor(COLORREF color) { NormalColor_=color; }

	push	ebp
	mov	ebp, esp
	push	ecx
	mov	DWORD PTR _this$[ebp], ecx
	mov	eax, DWORD PTR _this$[ebp]
	mov	ecx, DWORD PTR _color$[ebp]
	mov	DWORD PTR [eax+120], ecx
	mov	esp, ebp
	pop	ebp
	ret	4
?SetNormColor@C_PopupList@@QAEXK@Z ENDP			; C_PopupList::SetNormColor
_TEXT	ENDS
; Function compile flags: /Odtp
; File c:\users\zhitao li\documents\visual studio 2012\projects\freefalcon\ui95\cpopup.cpp
_TEXT	SEGMENT
_this$ = -8						; size = 4
_cur$ = -4						; size = 4
_ID$ = 8						; size = 4
_flags$ = 12						; size = 4
?SetItemFlagBitOff@C_PopupList@@QAEXJJ@Z PROC		; C_PopupList::SetItemFlagBitOff
; _this$ = ecx

; 345  : {

	push	ebp
	mov	ebp, esp
	sub	esp, 8
	mov	DWORD PTR _this$[ebp], ecx

; 346  : 	POPUPLIST *cur;
; 347  : 
; 348  : 	cur=FindID(ID);

	mov	eax, DWORD PTR _ID$[ebp]
	push	eax
	mov	ecx, DWORD PTR _this$[ebp]
	call	?FindID@C_PopupList@@AAEPAUPopUpStr@@J@Z ; C_PopupList::FindID
	mov	DWORD PTR _cur$[ebp], eax

; 349  : 	if(cur)

	cmp	DWORD PTR _cur$[ebp], 0
	je	SHORT $LN2@SetItemFla

; 350  : 		cur->flags_&=~flags;

	mov	ecx, DWORD PTR _flags$[ebp]
	not	ecx
	mov	edx, DWORD PTR _cur$[ebp]
	and	ecx, DWORD PTR [edx+4]
	mov	eax, DWORD PTR _cur$[ebp]
	mov	DWORD PTR [eax+4], ecx
$LN2@SetItemFla:

; 351  : }

	mov	esp, ebp
	pop	ebp
	ret	8
?SetItemFlagBitOff@C_PopupList@@QAEXJJ@Z ENDP		; C_PopupList::SetItemFlagBitOff
_TEXT	ENDS
; Function compile flags: /Odtp
; File c:\users\zhitao li\documents\visual studio 2012\projects\freefalcon\ui95\cpopup.cpp
_TEXT	SEGMENT
_this$ = -8						; size = 4
_cur$ = -4						; size = 4
_ID$ = 8						; size = 4
_flags$ = 12						; size = 4
?SetItemFlagBitOn@C_PopupList@@QAEXJJ@Z PROC		; C_PopupList::SetItemFlagBitOn
; _this$ = ecx

; 336  : {

	push	ebp
	mov	ebp, esp
	sub	esp, 8
	mov	DWORD PTR _this$[ebp], ecx

; 337  : 	POPUPLIST *cur;
; 338  : 
; 339  : 	cur=FindID(ID);

	mov	eax, DWORD PTR _ID$[ebp]
	push	eax
	mov	ecx, DWORD PTR _this$[ebp]
	call	?FindID@C_PopupList@@AAEPAUPopUpStr@@J@Z ; C_PopupList::FindID
	mov	DWORD PTR _cur$[ebp], eax

; 340  : 	if(cur)

	cmp	DWORD PTR _cur$[ebp], 0
	je	SHORT $LN2@SetItemFla

; 341  : 		cur->flags_|=flags;

	mov	ecx, DWORD PTR _cur$[ebp]
	mov	edx, DWORD PTR [ecx+4]
	or	edx, DWORD PTR _flags$[ebp]
	mov	eax, DWORD PTR _cur$[ebp]
	mov	DWORD PTR [eax+4], edx
$LN2@SetItemFla:

; 342  : }

	mov	esp, ebp
	pop	ebp
	ret	8
?SetItemFlagBitOn@C_PopupList@@QAEXJJ@Z ENDP		; C_PopupList::SetItemFlagBitOn
_TEXT	ENDS
; Function compile flags: /Odtp
; File c:\users\zhitao li\documents\visual studio 2012\projects\freefalcon\ui95\cpopup.cpp
_TEXT	SEGMENT
_this$ = -8						; size = 4
_cur$ = -4						; size = 4
_ID$ = 8						; size = 4
_routine$ = 12						; size = 4
?SetCallback@C_PopupList@@QAEXJP6AXJFPAVC_Base@@@Z@Z PROC ; C_PopupList::SetCallback
; _this$ = ecx

; 444  : {

	push	ebp
	mov	ebp, esp
	sub	esp, 8
	mov	DWORD PTR _this$[ebp], ecx

; 445  : 	POPUPLIST *cur;
; 446  : 
; 447  : 	cur=FindID(ID);

	mov	eax, DWORD PTR _ID$[ebp]
	push	eax
	mov	ecx, DWORD PTR _this$[ebp]
	call	?FindID@C_PopupList@@AAEPAUPopUpStr@@J@Z ; C_PopupList::FindID
	mov	DWORD PTR _cur$[ebp], eax

; 448  : 	if(cur)

	cmp	DWORD PTR _cur$[ebp], 0
	je	SHORT $LN2@SetCallbac

; 449  : 		cur->Callback_=routine;

	mov	ecx, DWORD PTR _cur$[ebp]
	mov	edx, DWORD PTR _routine$[ebp]
	mov	DWORD PTR [ecx+28], edx
$LN2@SetCallbac:

; 450  : }

	mov	esp, ebp
	pop	ebp
	ret	8
?SetCallback@C_PopupList@@QAEXJP6AXJFPAVC_Base@@@Z@Z ENDP ; C_PopupList::SetCallback
_TEXT	ENDS
; Function compile flags: /Odtp
; File c:\users\zhitao li\documents\visual studio 2012\projects\freefalcon\ui95\cpopup.cpp
_TEXT	SEGMENT
_this$ = -8						; size = 4
_cur$ = -4						; size = 4
_flags$ = 8						; size = 4
?SetFlags@C_PopupList@@UAEXJ@Z PROC			; C_PopupList::SetFlags
; _this$ = ecx

; 130  : {

	push	ebp
	mov	ebp, esp
	sub	esp, 8
	mov	DWORD PTR _this$[ebp], ecx

; 131  : 	POPUPLIST *cur;
; 132  : 
; 133  : 	SetControlFlags(flags);

	mov	eax, DWORD PTR _flags$[ebp]
	push	eax
	mov	ecx, DWORD PTR _this$[ebp]
	call	?SetControlFlags@C_Base@@QAEXJ@Z	; C_Base::SetControlFlags

; 134  : 
; 135  : 	cur=Root_;

	mov	ecx, DWORD PTR _this$[ebp]
	mov	edx, DWORD PTR [ecx+152]
	mov	DWORD PTR _cur$[ebp], edx
$LN4@SetFlags:

; 136  : 	while(cur)

	cmp	DWORD PTR _cur$[ebp], 0
	je	SHORT $LN5@SetFlags

; 137  : 	{
; 138  : 		if(cur->Label_)

	mov	eax, DWORD PTR _cur$[ebp]
	cmp	DWORD PTR [eax+12], 0
	je	SHORT $LN2@SetFlags

; 139  : 			cur->Label_->SetFlags(flags);

	mov	ecx, DWORD PTR _flags$[ebp]
	push	ecx
	mov	edx, DWORD PTR _cur$[ebp]
	mov	ecx, DWORD PTR [edx+12]
	call	?SetFlags@O_Output@@QAEXJ@Z		; O_Output::SetFlags
$LN2@SetFlags:

; 140  : 
; 141  : 		if(cur->SubMenu_ && cur->Type_ == C_TYPE_MENU)

	mov	eax, DWORD PTR _cur$[ebp]
	cmp	DWORD PTR [eax+24], 0
	je	SHORT $LN1@SetFlags
	mov	ecx, DWORD PTR _cur$[ebp]
	movsx	edx, WORD PTR [ecx+36]
	cmp	edx, 49					; 00000031H
	jne	SHORT $LN1@SetFlags

; 142  : 			cur->SubMenu_->SetFlags(flags);

	mov	eax, DWORD PTR _flags$[ebp]
	push	eax
	mov	ecx, DWORD PTR _cur$[ebp]
	mov	edx, DWORD PTR [ecx+24]
	mov	eax, DWORD PTR _cur$[ebp]
	mov	edx, DWORD PTR [edx]
	mov	ecx, DWORD PTR [eax+24]
	mov	eax, DWORD PTR [edx+4]
	call	eax
$LN1@SetFlags:

; 143  : 
; 144  : 		cur=cur->Next;

	mov	ecx, DWORD PTR _cur$[ebp]
	mov	edx, DWORD PTR [ecx+32]
	mov	DWORD PTR _cur$[ebp], edx

; 145  : 	}

	jmp	SHORT $LN4@SetFlags
$LN5@SetFlags:

; 146  : }

	mov	esp, ebp
	pop	ebp
	ret	4
?SetFlags@C_PopupList@@UAEXJ@Z ENDP			; C_PopupList::SetFlags
_TEXT	ENDS
; Function compile flags: /Odtp
; File c:\users\zhitao li\documents\visual studio 2012\projects\freefalcon\ui95\cpopup.cpp
_TEXT	SEGMENT
_this$ = -8						; size = 4
_cur$ = -4						; size = 4
_Font$ = 8						; size = 4
?SetFont@C_PopupList@@UAEXJ@Z PROC			; C_PopupList::SetFont
; _this$ = ecx

; 111  : {

	push	ebp
	mov	ebp, esp
	sub	esp, 8
	mov	DWORD PTR _this$[ebp], ecx

; 112  : 	POPUPLIST *cur;
; 113  : 
; 114  : 	Font_=Font;

	mov	eax, DWORD PTR _this$[ebp]
	mov	ecx, DWORD PTR _Font$[ebp]
	mov	DWORD PTR [eax+104], ecx

; 115  : 
; 116  : 	cur=Root_;

	mov	edx, DWORD PTR _this$[ebp]
	mov	eax, DWORD PTR [edx+152]
	mov	DWORD PTR _cur$[ebp], eax
$LN4@SetFont:

; 117  : 	while(cur)

	cmp	DWORD PTR _cur$[ebp], 0
	je	SHORT $LN5@SetFont

; 118  : 	{
; 119  : 		if(cur->Label_)

	mov	ecx, DWORD PTR _cur$[ebp]
	cmp	DWORD PTR [ecx+12], 0
	je	SHORT $LN2@SetFont

; 120  : 			cur->Label_->SetFont(Font);

	mov	edx, DWORD PTR _Font$[ebp]
	push	edx
	mov	eax, DWORD PTR _cur$[ebp]
	mov	ecx, DWORD PTR [eax+12]
	call	?SetFont@O_Output@@QAEXJ@Z		; O_Output::SetFont
$LN2@SetFont:

; 121  : 
; 122  : 		if(cur->SubMenu_ && cur->Type_ == C_TYPE_MENU)

	mov	ecx, DWORD PTR _cur$[ebp]
	cmp	DWORD PTR [ecx+24], 0
	je	SHORT $LN1@SetFont
	mov	edx, DWORD PTR _cur$[ebp]
	movsx	eax, WORD PTR [edx+36]
	cmp	eax, 49					; 00000031H
	jne	SHORT $LN1@SetFont

; 123  : 			cur->SubMenu_->SetFont(Font);

	mov	ecx, DWORD PTR _Font$[ebp]
	push	ecx
	mov	edx, DWORD PTR _cur$[ebp]
	mov	eax, DWORD PTR [edx+24]
	mov	ecx, DWORD PTR _cur$[ebp]
	mov	edx, DWORD PTR [eax]
	mov	ecx, DWORD PTR [ecx+24]
	mov	eax, DWORD PTR [edx+68]
	call	eax
$LN1@SetFont:

; 124  : 
; 125  : 		cur=cur->Next;

	mov	ecx, DWORD PTR _cur$[ebp]
	mov	edx, DWORD PTR [ecx+32]
	mov	DWORD PTR _cur$[ebp], edx

; 126  : 	}

	jmp	SHORT $LN4@SetFont
$LN5@SetFont:

; 127  : }

	mov	esp, ebp
	pop	ebp
	ret	4
?SetFont@C_PopupList@@UAEXJ@Z ENDP			; C_PopupList::SetFont
_TEXT	ENDS
; Function compile flags: /Odtp
; File c:\users\zhitao li\documents\visual studio 2012\projects\freefalcon\ui95\cpopup.cpp
_TEXT	SEGMENT
_this$ = -4						; size = 4
?RemoveAllItems@C_PopupList@@QAEXXZ PROC		; C_PopupList::RemoveAllItems
; _this$ = ecx

; 278  : {

	push	ebp
	mov	ebp, esp
	push	ecx
	mov	DWORD PTR _this$[ebp], ecx

; 279  : 	if(Root_)

	mov	eax, DWORD PTR _this$[ebp]
	cmp	DWORD PTR [eax+152], 0
	je	SHORT $LN2@RemoveAllI

; 280  : 	{
; 281  : 		RemoveList(Root_);

	mov	ecx, DWORD PTR _this$[ebp]
	mov	edx, DWORD PTR [ecx+152]
	push	edx
	mov	ecx, DWORD PTR _this$[ebp]
	call	?RemoveList@C_PopupList@@QAEXPAUPopUpStr@@@Z ; C_PopupList::RemoveList

; 282  : 		Root_=NULL;

	mov	eax, DWORD PTR _this$[ebp]
	mov	DWORD PTR [eax+152], 0
$LN2@RemoveAllI:

; 283  : 	}
; 284  : }

	mov	esp, ebp
	pop	ebp
	ret	0
?RemoveAllItems@C_PopupList@@QAEXXZ ENDP		; C_PopupList::RemoveAllItems
_TEXT	ENDS
; Function compile flags: /Odtp
; File c:\users\zhitao li\documents\visual studio 2012\projects\freefalcon\ui95\cpopup.cpp
_TEXT	SEGMENT
_this$ = -64						; size = 4
$T1 = -60						; size = 4
tv152 = -56						; size = 4
$T2 = -52						; size = 4
tv95 = -48						; size = 4
$T3 = -44						; size = 4
tv85 = -40						; size = 4
$T4 = -36						; size = 4
tv75 = -32						; size = 4
$T5 = -28						; size = 4
$T6 = -24						; size = 4
$T7 = -20						; size = 4
$T8 = -16						; size = 4
$T9 = -12						; size = 4
_cur$ = -8						; size = 4
_last$ = -4						; size = 4
_list$ = 8						; size = 4
?RemoveList@C_PopupList@@QAEXPAUPopUpStr@@@Z PROC	; C_PopupList::RemoveList
; _this$ = ecx

; 244  : {

	push	ebp
	mov	ebp, esp
	sub	esp, 64					; 00000040H
	mov	DWORD PTR _this$[ebp], ecx

; 245  : 	POPUPLIST *cur,*last;
; 246  : 
; 247  : 	cur=list;

	mov	eax, DWORD PTR _list$[ebp]
	mov	DWORD PTR _cur$[ebp], eax
$LN6@RemoveList:

; 248  : 
; 249  : 	while(cur)

	cmp	DWORD PTR _cur$[ebp], 0
	je	$LN7@RemoveList

; 250  : 	{
; 251  : 		last=cur;

	mov	ecx, DWORD PTR _cur$[ebp]
	mov	DWORD PTR _last$[ebp], ecx

; 252  : 		cur=cur->Next;

	mov	edx, DWORD PTR _cur$[ebp]
	mov	eax, DWORD PTR [edx+32]
	mov	DWORD PTR _cur$[ebp], eax

; 253  : 		if(last->Label_)

	mov	ecx, DWORD PTR _last$[ebp]
	cmp	DWORD PTR [ecx+12], 0
	je	SHORT $LN4@RemoveList

; 254  : 		{
; 255  : 			last->Label_->Cleanup();

	mov	edx, DWORD PTR _last$[ebp]
	mov	ecx, DWORD PTR [edx+12]
	call	?Cleanup@O_Output@@QAEXXZ		; O_Output::Cleanup

; 256  : 			delete last->Label_;

	mov	eax, DWORD PTR _last$[ebp]
	mov	ecx, DWORD PTR [eax+12]
	mov	DWORD PTR $T5[ebp], ecx
	mov	edx, DWORD PTR $T5[ebp]
	mov	DWORD PTR $T8[ebp], edx
	cmp	DWORD PTR $T8[ebp], 0
	je	SHORT $LN9@RemoveList
	push	1
	mov	ecx, DWORD PTR $T8[ebp]
	call	??_GO_Output@@QAEPAXI@Z
	mov	DWORD PTR tv75[ebp], eax
	jmp	SHORT $LN4@RemoveList
$LN9@RemoveList:
	mov	DWORD PTR tv75[ebp], 0
$LN4@RemoveList:

; 257  : 		}
; 258  : 		if(last->MenuIcon_)

	mov	eax, DWORD PTR _last$[ebp]
	cmp	DWORD PTR [eax+16], 0
	je	SHORT $LN3@RemoveList

; 259  : 		{
; 260  : 			last->MenuIcon_->Cleanup();

	mov	ecx, DWORD PTR _last$[ebp]
	mov	ecx, DWORD PTR [ecx+16]
	call	?Cleanup@O_Output@@QAEXXZ		; O_Output::Cleanup

; 261  : 			delete last->MenuIcon_;

	mov	edx, DWORD PTR _last$[ebp]
	mov	eax, DWORD PTR [edx+16]
	mov	DWORD PTR $T4[ebp], eax
	mov	ecx, DWORD PTR $T4[ebp]
	mov	DWORD PTR $T7[ebp], ecx
	cmp	DWORD PTR $T7[ebp], 0
	je	SHORT $LN11@RemoveList
	push	1
	mov	ecx, DWORD PTR $T7[ebp]
	call	??_GO_Output@@QAEPAXI@Z
	mov	DWORD PTR tv85[ebp], eax
	jmp	SHORT $LN3@RemoveList
$LN11@RemoveList:
	mov	DWORD PTR tv85[ebp], 0
$LN3@RemoveList:

; 262  : 		}
; 263  : 		if(last->CheckIcon_)

	mov	edx, DWORD PTR _last$[ebp]
	cmp	DWORD PTR [edx+20], 0
	je	SHORT $LN2@RemoveList

; 264  : 		{
; 265  : 			last->CheckIcon_->Cleanup();

	mov	eax, DWORD PTR _last$[ebp]
	mov	ecx, DWORD PTR [eax+20]
	call	?Cleanup@O_Output@@QAEXXZ		; O_Output::Cleanup

; 266  : 			delete last->CheckIcon_;

	mov	ecx, DWORD PTR _last$[ebp]
	mov	edx, DWORD PTR [ecx+20]
	mov	DWORD PTR $T3[ebp], edx
	mov	eax, DWORD PTR $T3[ebp]
	mov	DWORD PTR $T6[ebp], eax
	cmp	DWORD PTR $T6[ebp], 0
	je	SHORT $LN13@RemoveList
	push	1
	mov	ecx, DWORD PTR $T6[ebp]
	call	??_GO_Output@@QAEPAXI@Z
	mov	DWORD PTR tv95[ebp], eax
	jmp	SHORT $LN2@RemoveList
$LN13@RemoveList:
	mov	DWORD PTR tv95[ebp], 0
$LN2@RemoveList:

; 267  : 		}
; 268  : 		if(last->SubMenu_)

	mov	ecx, DWORD PTR _last$[ebp]
	cmp	DWORD PTR [ecx+24], 0
	je	SHORT $LN1@RemoveList

; 269  : 		{
; 270  : 			last->SubMenu_->Cleanup();

	mov	edx, DWORD PTR _last$[ebp]
	mov	eax, DWORD PTR [edx+24]
	mov	ecx, DWORD PTR _last$[ebp]
	mov	edx, DWORD PTR [eax]
	mov	ecx, DWORD PTR [ecx+24]
	mov	eax, DWORD PTR [edx+176]
	call	eax

; 271  : 			delete last->SubMenu_;

	mov	ecx, DWORD PTR _last$[ebp]
	mov	edx, DWORD PTR [ecx+24]
	mov	DWORD PTR $T2[ebp], edx
	mov	eax, DWORD PTR $T2[ebp]
	mov	DWORD PTR $T9[ebp], eax
	cmp	DWORD PTR $T9[ebp], 0
	je	SHORT $LN15@RemoveList
	push	1
	mov	ecx, DWORD PTR $T9[ebp]
	mov	edx, DWORD PTR [ecx]
	mov	ecx, DWORD PTR $T9[ebp]
	mov	eax, DWORD PTR [edx]
	call	eax
	mov	DWORD PTR tv152[ebp], eax
	jmp	SHORT $LN1@RemoveList
$LN15@RemoveList:
	mov	DWORD PTR tv152[ebp], 0
$LN1@RemoveList:

; 272  : 		}
; 273  : 		delete last;

	mov	ecx, DWORD PTR _last$[ebp]
	mov	DWORD PTR $T1[ebp], ecx
	mov	edx, DWORD PTR $T1[ebp]
	push	edx
	call	??3@YAXPAX@Z				; operator delete
	add	esp, 4

; 274  : 	}

	jmp	$LN6@RemoveList
$LN7@RemoveList:

; 275  : }

	mov	esp, ebp
	pop	ebp
	ret	4
?RemoveList@C_PopupList@@QAEXPAUPopUpStr@@@Z ENDP	; C_PopupList::RemoveList
_TEXT	ENDS
; Function compile flags: /Odtp
; File c:\users\zhitao li\documents\visual studio 2012\projects\freefalcon\ui95\cpopup.cpp
_TEXT	SEGMENT
_this$ = -4						; size = 4
_ID$ = 8						; size = 4
_Type$ = 12						; size = 2
_txtID$ = 16						; size = 4
_ParentID$ = 20						; size = 4
?AddItem@C_PopupList@@QAEHJFJJ@Z PROC			; C_PopupList::AddItem
; _this$ = ecx

; 239  : {

	push	ebp
	mov	ebp, esp
	push	ecx
	mov	DWORD PTR _this$[ebp], ecx

; 240  : 	return(AddItem(ID,Type,gStringMgr->GetString(txtID),ParentID));

	mov	eax, DWORD PTR _ParentID$[ebp]
	push	eax
	mov	ecx, DWORD PTR _txtID$[ebp]
	push	ecx
	mov	ecx, DWORD PTR ?gStringMgr@@3PAVC_String@@A ; gStringMgr
	call	?GetString@C_String@@QAEPADJ@Z		; C_String::GetString
	push	eax
	movzx	edx, WORD PTR _Type$[ebp]
	push	edx
	mov	eax, DWORD PTR _ID$[ebp]
	push	eax
	mov	ecx, DWORD PTR _this$[ebp]
	call	?AddItem@C_PopupList@@QAEHJFPADJ@Z	; C_PopupList::AddItem

; 241  : }

	mov	esp, ebp
	pop	ebp
	ret	16					; 00000010H
?AddItem@C_PopupList@@QAEHJFJJ@Z ENDP			; C_PopupList::AddItem
_TEXT	ENDS
; Function compile flags: /Odtp
; File c:\users\zhitao li\documents\visual studio 2012\projects\freefalcon\ui95\cpopup.cpp
_TEXT	SEGMENT
$T2 = -76						; size = 4
$T3 = -72						; size = 4
$T4 = -68						; size = 4
$T5 = -64						; size = 4
$T6 = -60						; size = 4
tv312 = -56						; size = 4
$T7 = -52						; size = 4
tv278 = -48						; size = 4
$T8 = -44						; size = 4
tv227 = -40						; size = 4
$T9 = -36						; size = 4
tv91 = -32						; size = 4
$T10 = -28						; size = 4
_cur$ = -24						; size = 4
_newitem$ = -20						; size = 4
_this$ = -16						; size = 4
__$EHRec$ = -12						; size = 12
_ID$ = 8						; size = 4
_Type$ = 12						; size = 2
_Str$ = 16						; size = 4
_ParentID$ = 20						; size = 4
?AddItem@C_PopupList@@QAEHJFPADJ@Z PROC			; C_PopupList::AddItem
; _this$ = ecx

; 149  : {

	push	ebp
	mov	ebp, esp
	push	-1
	push	__ehhandler$?AddItem@C_PopupList@@QAEHJFPADJ@Z
	mov	eax, DWORD PTR fs:0
	push	eax
	sub	esp, 64					; 00000040H
	mov	eax, DWORD PTR ___security_cookie
	xor	eax, ebp
	push	eax
	lea	eax, DWORD PTR __$EHRec$[ebp]
	mov	DWORD PTR fs:0, eax
	mov	DWORD PTR _this$[ebp], ecx

; 150  : 	POPUPLIST *newitem,*cur;
; 151  : 
; 152  : 	if(FindID(ID) && Type != C_TYPE_NOTHING)

	mov	eax, DWORD PTR _ID$[ebp]
	push	eax
	mov	ecx, DWORD PTR _this$[ebp]
	call	?FindID@C_PopupList@@AAEPAUPopUpStr@@J@Z ; C_PopupList::FindID
	test	eax, eax
	je	SHORT $LN15@AddItem
	movsx	ecx, WORD PTR _Type$[ebp]
	cmp	ecx, 24					; 00000018H
	je	SHORT $LN15@AddItem

; 153  : 		return(FALSE);

	xor	eax, eax
	jmp	$LN16@AddItem
$LN15@AddItem:

; 154  : 
; 155  : 	if(!Str && Type != C_TYPE_NOTHING)

	cmp	DWORD PTR _Str$[ebp], 0
	jne	SHORT $LN14@AddItem
	movsx	edx, WORD PTR _Type$[ebp]
	cmp	edx, 24					; 00000018H
	je	SHORT $LN14@AddItem

; 156  : 		return(FALSE);

	xor	eax, eax
	jmp	$LN16@AddItem
$LN14@AddItem:

; 157  : 
; 158  : 	if(ParentID)

	cmp	DWORD PTR _ParentID$[ebp], 0
	je	$LN13@AddItem

; 159  : 	{
; 160  : 		cur=FindID(ParentID);

	mov	eax, DWORD PTR _ParentID$[ebp]
	push	eax
	mov	ecx, DWORD PTR _this$[ebp]
	call	?FindID@C_PopupList@@AAEPAUPopUpStr@@J@Z ; C_PopupList::FindID
	mov	DWORD PTR _cur$[ebp], eax

; 161  : 		if(cur)

	cmp	DWORD PTR _cur$[ebp], 0
	je	$LN13@AddItem

; 162  : 		{
; 163  : 			if(cur->Type_ == C_TYPE_MENU)

	mov	ecx, DWORD PTR _cur$[ebp]
	movsx	edx, WORD PTR [ecx+36]
	cmp	edx, 49					; 00000031H
	jne	$LN13@AddItem

; 164  : 			{
; 165  : 				if(cur->SubMenu_ == NULL)

	mov	eax, DWORD PTR _cur$[ebp]
	cmp	DWORD PTR [eax+24], 0
	jne	$LN10@AddItem

; 166  : 				{
; 167  : 					cur->SubMenu_=new C_PopupList;

	push	168					; 000000a8H
	call	??2@YAPAXI@Z				; operator new
	add	esp, 4
	mov	DWORD PTR $T10[ebp], eax
	mov	DWORD PTR __$EHRec$[ebp+8], 0
	cmp	DWORD PTR $T10[ebp], 0
	je	SHORT $LN18@AddItem
	mov	ecx, DWORD PTR $T10[ebp]
	call	??0C_PopupList@@QAE@XZ			; C_PopupList::C_PopupList
	mov	DWORD PTR tv91[ebp], eax
	jmp	SHORT $LN19@AddItem
$LN18@AddItem:
	mov	DWORD PTR tv91[ebp], 0
$LN19@AddItem:
	mov	ecx, DWORD PTR tv91[ebp]
	mov	DWORD PTR $T6[ebp], ecx
	mov	DWORD PTR __$EHRec$[ebp+8], -1
	mov	edx, DWORD PTR _cur$[ebp]
	mov	eax, DWORD PTR $T6[ebp]
	mov	DWORD PTR [edx+24], eax

; 168  : 					cur->SubMenu_->Setup(cur->ID_,C_TYPE_NORMAL,Handler_,MenuIconID_,CheckIconID_);

	mov	ecx, DWORD PTR _this$[ebp]
	mov	edx, DWORD PTR [ecx+116]
	push	edx
	mov	eax, DWORD PTR _this$[ebp]
	mov	ecx, DWORD PTR [eax+112]
	push	ecx
	mov	edx, DWORD PTR _this$[ebp]
	mov	eax, DWORD PTR [edx+160]
	push	eax
	push	25					; 00000019H
	mov	ecx, DWORD PTR _cur$[ebp]
	mov	edx, DWORD PTR [ecx]
	push	edx
	mov	eax, DWORD PTR _cur$[ebp]
	mov	ecx, DWORD PTR [eax+24]
	call	?Setup@C_PopupList@@QAEXJFPAVC_Handler@@JJ@Z ; C_PopupList::Setup

; 169  : 					cur->SubMenu_->SetFlags(GetFlags());

	mov	ecx, DWORD PTR _this$[ebp]
	call	?GetFlags@C_Base@@QAEJXZ		; C_Base::GetFlags
	push	eax
	mov	ecx, DWORD PTR _cur$[ebp]
	mov	edx, DWORD PTR [ecx+24]
	mov	eax, DWORD PTR _cur$[ebp]
	mov	edx, DWORD PTR [edx]
	mov	ecx, DWORD PTR [eax+24]
	mov	eax, DWORD PTR [edx+4]
	call	eax

; 170  : 					cur->SubMenu_->SetFont(GetFont());

	mov	ecx, DWORD PTR _this$[ebp]
	mov	edx, DWORD PTR [ecx]
	mov	ecx, DWORD PTR _this$[ebp]
	mov	eax, DWORD PTR [edx+124]
	call	eax
	push	eax
	mov	ecx, DWORD PTR _cur$[ebp]
	mov	edx, DWORD PTR [ecx+24]
	mov	eax, DWORD PTR _cur$[ebp]
	mov	edx, DWORD PTR [edx]
	mov	ecx, DWORD PTR [eax+24]
	mov	eax, DWORD PTR [edx+68]
	call	eax

; 171  : 					cur->SubMenu_->SetNormColor(NormalColor_);

	mov	ecx, DWORD PTR _this$[ebp]
	mov	edx, DWORD PTR [ecx+120]
	push	edx
	mov	eax, DWORD PTR _cur$[ebp]
	mov	ecx, DWORD PTR [eax+24]
	call	?SetNormColor@C_PopupList@@QAEXK@Z	; C_PopupList::SetNormColor

; 172  : 					cur->SubMenu_->SetSelColor(SelColor_);

	mov	ecx, DWORD PTR _this$[ebp]
	mov	edx, DWORD PTR [ecx+124]
	push	edx
	mov	eax, DWORD PTR _cur$[ebp]
	mov	ecx, DWORD PTR [eax+24]
	call	?SetSelColor@C_PopupList@@QAEXK@Z	; C_PopupList::SetSelColor

; 173  : 					cur->SubMenu_->SetDisColor(DisColor_);

	mov	ecx, DWORD PTR _this$[ebp]
	mov	edx, DWORD PTR [ecx+128]
	push	edx
	mov	eax, DWORD PTR _cur$[ebp]
	mov	ecx, DWORD PTR [eax+24]
	call	?SetDisColor@C_PopupList@@QAEXK@Z	; C_PopupList::SetDisColor

; 174  : 					cur->SubMenu_->SetBarColor(BarColor_);

	mov	ecx, DWORD PTR _this$[ebp]
	mov	edx, DWORD PTR [ecx+132]
	push	edx
	mov	eax, DWORD PTR _cur$[ebp]
	mov	ecx, DWORD PTR [eax+24]
	call	?SetBarColor@C_PopupList@@QAEXK@Z	; C_PopupList::SetBarColor

; 175  : 					cur->SubMenu_->SetBgColor(BgColor_);

	mov	ecx, DWORD PTR _this$[ebp]
	mov	edx, DWORD PTR [ecx+136]
	push	edx
	mov	eax, DWORD PTR _cur$[ebp]
	mov	ecx, DWORD PTR [eax+24]
	call	?SetBgColor@C_PopupList@@QAEXK@Z	; C_PopupList::SetBgColor

; 176  : 					cur->SubMenu_->SetOpaque(Opaque_);

	mov	ecx, DWORD PTR _this$[ebp]
	mov	edx, DWORD PTR [ecx+108]
	push	edx
	mov	eax, DWORD PTR _cur$[ebp]
	mov	ecx, DWORD PTR [eax+24]
	call	?SetOpaque@C_PopupList@@QAEXJ@Z		; C_PopupList::SetOpaque

; 177  : 					cur->SubMenu_->SetBorderColor(BorderColor_);

	mov	ecx, DWORD PTR _this$[ebp]
	mov	edx, DWORD PTR [ecx+140]
	push	edx
	mov	eax, DWORD PTR _cur$[ebp]
	mov	ecx, DWORD PTR [eax+24]
	call	?SetBorderColor@C_PopupList@@QAEXK@Z	; C_PopupList::SetBorderColor
$LN10@AddItem:

; 178  : 				}
; 179  : 				return(cur->SubMenu_->AddItem(ID,Type,Str,0));

	push	0
	mov	ecx, DWORD PTR _Str$[ebp]
	push	ecx
	movzx	edx, WORD PTR _Type$[ebp]
	push	edx
	mov	eax, DWORD PTR _ID$[ebp]
	push	eax
	mov	ecx, DWORD PTR _cur$[ebp]
	mov	ecx, DWORD PTR [ecx+24]
	call	?AddItem@C_PopupList@@QAEHJFPADJ@Z	; C_PopupList::AddItem
	jmp	$LN16@AddItem
$LN13@AddItem:

; 180  : 			}
; 181  : 		}
; 182  : 	}
; 183  : 
; 184  : 	newitem=new POPUPLIST;

	push	40					; 00000028H
	call	??2@YAPAXI@Z				; operator new
	add	esp, 4
	mov	DWORD PTR $T5[ebp], eax
	mov	edx, DWORD PTR $T5[ebp]
	mov	DWORD PTR _newitem$[ebp], edx

; 185  : 	newitem->ID_=ID;

	mov	eax, DWORD PTR _newitem$[ebp]
	mov	ecx, DWORD PTR _ID$[ebp]
	mov	DWORD PTR [eax], ecx

; 186  : 	newitem->Type_=Type;

	mov	edx, DWORD PTR _newitem$[ebp]
	mov	ax, WORD PTR _Type$[ebp]
	mov	WORD PTR [edx+36], ax

; 187  : 	newitem->flags_= C_BIT_ENABLED;

	mov	ecx, DWORD PTR _newitem$[ebp]
	mov	DWORD PTR [ecx+4], 2048			; 00000800H

; 188  : 	newitem->Label_=NULL;

	mov	edx, DWORD PTR _newitem$[ebp]
	mov	DWORD PTR [edx+12], 0

; 189  : 	newitem->MenuIcon_=NULL;

	mov	eax, DWORD PTR _newitem$[ebp]
	mov	DWORD PTR [eax+16], 0

; 190  : 	newitem->CheckIcon_=NULL;

	mov	ecx, DWORD PTR _newitem$[ebp]
	mov	DWORD PTR [ecx+20], 0

; 191  : 	newitem->State_=0;

	xor	edx, edx
	mov	eax, DWORD PTR _newitem$[ebp]
	mov	WORD PTR [eax+38], dx

; 192  : 
; 193  : 	if(Str && Type != C_TYPE_NOTHING)

	cmp	DWORD PTR _Str$[ebp], 0
	je	$LN9@AddItem
	movsx	ecx, WORD PTR _Type$[ebp]
	cmp	ecx, 24					; 00000018H
	je	$LN9@AddItem

; 194  : 	{
; 195  : 		newitem->Label_=new O_Output;

	push	144					; 00000090H
	call	??2@YAPAXI@Z				; operator new
	add	esp, 4
	mov	DWORD PTR $T9[ebp], eax
	mov	DWORD PTR __$EHRec$[ebp+8], 1
	cmp	DWORD PTR $T9[ebp], 0
	je	SHORT $LN20@AddItem
	mov	ecx, DWORD PTR $T9[ebp]
	call	??0O_Output@@QAE@XZ			; O_Output::O_Output
	mov	DWORD PTR tv227[ebp], eax
	jmp	SHORT $LN21@AddItem
$LN20@AddItem:
	mov	DWORD PTR tv227[ebp], 0
$LN21@AddItem:
	mov	edx, DWORD PTR tv227[ebp]
	mov	DWORD PTR $T4[ebp], edx
	mov	DWORD PTR __$EHRec$[ebp+8], -1
	mov	eax, DWORD PTR _newitem$[ebp]
	mov	ecx, DWORD PTR $T4[ebp]
	mov	DWORD PTR [eax+12], ecx

; 196  : 		newitem->Label_->SetOwner(this);

	mov	edx, DWORD PTR _this$[ebp]
	push	edx
	mov	eax, DWORD PTR _newitem$[ebp]
	mov	ecx, DWORD PTR [eax+12]
	call	?SetOwner@O_Output@@QAEXPAVC_Base@@@Z	; O_Output::SetOwner

; 197  : 		newitem->Label_->SetFlags(GetFlags());

	mov	ecx, DWORD PTR _this$[ebp]
	call	?GetFlags@C_Base@@QAEJXZ		; C_Base::GetFlags
	push	eax
	mov	ecx, DWORD PTR _newitem$[ebp]
	mov	ecx, DWORD PTR [ecx+12]
	call	?SetFlags@O_Output@@QAEXJ@Z		; O_Output::SetFlags

; 198  : 		newitem->Label_->SetFont(GetFont());

	mov	edx, DWORD PTR _this$[ebp]
	mov	eax, DWORD PTR [edx]
	mov	ecx, DWORD PTR _this$[ebp]
	mov	edx, DWORD PTR [eax+124]
	call	edx
	push	eax
	mov	eax, DWORD PTR _newitem$[ebp]
	mov	ecx, DWORD PTR [eax+12]
	call	?SetFont@O_Output@@QAEXJ@Z		; O_Output::SetFont

; 199  : 		newitem->Label_->SetText(gStringMgr->GetText(gStringMgr->AddText(Str)));

	mov	ecx, DWORD PTR _Str$[ebp]
	push	ecx
	mov	ecx, DWORD PTR ?gStringMgr@@3PAVC_String@@A ; gStringMgr
	call	?AddText@C_String@@QAEJPBD@Z		; C_String::AddText
	push	eax
	mov	ecx, DWORD PTR ?gStringMgr@@3PAVC_String@@A ; gStringMgr
	call	?GetText@C_String@@QAEPADJ@Z		; C_String::GetText
	push	eax
	mov	edx, DWORD PTR _newitem$[ebp]
	mov	ecx, DWORD PTR [edx+12]
	call	?SetText@O_Output@@QAEXPAD@Z		; O_Output::SetText

; 200  : 		newitem->Label_->SetX(20);

	push	20					; 00000014H
	mov	eax, DWORD PTR _newitem$[ebp]
	mov	ecx, DWORD PTR [eax+12]
	call	?SetX@O_Output@@QAEXJ@Z			; O_Output::SetX

; 201  : 
; 202  : 		if(Type == C_TYPE_MENU && MenuIconID_)

	movsx	ecx, WORD PTR _Type$[ebp]
	cmp	ecx, 49					; 00000031H
	jne	$LN8@AddItem
	mov	edx, DWORD PTR _this$[ebp]
	cmp	DWORD PTR [edx+112], 0
	je	$LN8@AddItem

; 203  : 		{
; 204  : 			newitem->MenuIcon_=new O_Output;

	push	144					; 00000090H
	call	??2@YAPAXI@Z				; operator new
	add	esp, 4
	mov	DWORD PTR $T8[ebp], eax
	mov	DWORD PTR __$EHRec$[ebp+8], 2
	cmp	DWORD PTR $T8[ebp], 0
	je	SHORT $LN22@AddItem
	mov	ecx, DWORD PTR $T8[ebp]
	call	??0O_Output@@QAE@XZ			; O_Output::O_Output
	mov	DWORD PTR tv278[ebp], eax
	jmp	SHORT $LN23@AddItem
$LN22@AddItem:
	mov	DWORD PTR tv278[ebp], 0
$LN23@AddItem:
	mov	eax, DWORD PTR tv278[ebp]
	mov	DWORD PTR $T3[ebp], eax
	mov	DWORD PTR __$EHRec$[ebp+8], -1
	mov	ecx, DWORD PTR _newitem$[ebp]
	mov	edx, DWORD PTR $T3[ebp]
	mov	DWORD PTR [ecx+16], edx

; 205  : 			newitem->MenuIcon_->SetOwner(this);

	mov	eax, DWORD PTR _this$[ebp]
	push	eax
	mov	ecx, DWORD PTR _newitem$[ebp]
	mov	ecx, DWORD PTR [ecx+16]
	call	?SetOwner@O_Output@@QAEXPAVC_Base@@@Z	; O_Output::SetOwner

; 206  : 			newitem->MenuIcon_->SetFlags(GetFlags());

	mov	ecx, DWORD PTR _this$[ebp]
	call	?GetFlags@C_Base@@QAEJXZ		; C_Base::GetFlags
	push	eax
	mov	edx, DWORD PTR _newitem$[ebp]
	mov	ecx, DWORD PTR [edx+16]
	call	?SetFlags@O_Output@@QAEXJ@Z		; O_Output::SetFlags

; 207  : 			newitem->MenuIcon_->SetImage(MenuIconID_);

	mov	eax, DWORD PTR _this$[ebp]
	mov	ecx, DWORD PTR [eax+112]
	push	ecx
	mov	edx, DWORD PTR _newitem$[ebp]
	mov	ecx, DWORD PTR [edx+16]
	call	?SetImage@O_Output@@QAEXJ@Z		; O_Output::SetImage
	jmp	$LN9@AddItem
$LN8@AddItem:

; 208  : 		}
; 209  : 		else if((Type == C_TYPE_RADIO || Type == C_TYPE_TOGGLE) && CheckIconID_)

	movsx	eax, WORD PTR _Type$[ebp]
	cmp	eax, 27					; 0000001bH
	je	SHORT $LN5@AddItem
	movsx	ecx, WORD PTR _Type$[ebp]
	cmp	ecx, 26					; 0000001aH
	jne	$LN9@AddItem
$LN5@AddItem:
	mov	edx, DWORD PTR _this$[ebp]
	cmp	DWORD PTR [edx+116], 0
	je	$LN9@AddItem

; 210  : 		{
; 211  : 			newitem->CheckIcon_=new O_Output;

	push	144					; 00000090H
	call	??2@YAPAXI@Z				; operator new
	add	esp, 4
	mov	DWORD PTR $T7[ebp], eax
	mov	DWORD PTR __$EHRec$[ebp+8], 3
	cmp	DWORD PTR $T7[ebp], 0
	je	SHORT $LN24@AddItem
	mov	ecx, DWORD PTR $T7[ebp]
	call	??0O_Output@@QAE@XZ			; O_Output::O_Output
	mov	DWORD PTR tv312[ebp], eax
	jmp	SHORT $LN25@AddItem
$LN24@AddItem:
	mov	DWORD PTR tv312[ebp], 0
$LN25@AddItem:
	mov	eax, DWORD PTR tv312[ebp]
	mov	DWORD PTR $T2[ebp], eax
	mov	DWORD PTR __$EHRec$[ebp+8], -1
	mov	ecx, DWORD PTR _newitem$[ebp]
	mov	edx, DWORD PTR $T2[ebp]
	mov	DWORD PTR [ecx+20], edx

; 212  : 			newitem->CheckIcon_->SetOwner(this);

	mov	eax, DWORD PTR _this$[ebp]
	push	eax
	mov	ecx, DWORD PTR _newitem$[ebp]
	mov	ecx, DWORD PTR [ecx+20]
	call	?SetOwner@O_Output@@QAEXPAVC_Base@@@Z	; O_Output::SetOwner

; 213  : 			newitem->CheckIcon_->SetFlags(GetFlags());

	mov	ecx, DWORD PTR _this$[ebp]
	call	?GetFlags@C_Base@@QAEJXZ		; C_Base::GetFlags
	push	eax
	mov	edx, DWORD PTR _newitem$[ebp]
	mov	ecx, DWORD PTR [edx+20]
	call	?SetFlags@O_Output@@QAEXJ@Z		; O_Output::SetFlags

; 214  : 			newitem->CheckIcon_->SetImage(CheckIconID_);

	mov	eax, DWORD PTR _this$[ebp]
	mov	ecx, DWORD PTR [eax+116]
	push	ecx
	mov	edx, DWORD PTR _newitem$[ebp]
	mov	ecx, DWORD PTR [edx+20]
	call	?SetImage@O_Output@@QAEXJ@Z		; O_Output::SetImage

; 215  : 			newitem->CheckIcon_->SetX(4);

	push	4
	mov	eax, DWORD PTR _newitem$[ebp]
	mov	ecx, DWORD PTR [eax+20]
	call	?SetX@O_Output@@QAEXJ@Z			; O_Output::SetX
$LN9@AddItem:

; 216  : 		}
; 217  : 	}
; 218  : 
; 219  : 	newitem->SubMenu_=NULL;

	mov	ecx, DWORD PTR _newitem$[ebp]
	mov	DWORD PTR [ecx+24], 0

; 220  : 	newitem->Callback_=NULL;

	mov	edx, DWORD PTR _newitem$[ebp]
	mov	DWORD PTR [edx+28], 0

; 221  : 	newitem->Next=NULL;

	mov	eax, DWORD PTR _newitem$[ebp]
	mov	DWORD PTR [eax+32], 0

; 222  : 
; 223  : 	if(Root_ == NULL)

	mov	ecx, DWORD PTR _this$[ebp]
	cmp	DWORD PTR [ecx+152], 0
	jne	SHORT $LN4@AddItem

; 224  : 	{
; 225  : 		Root_=newitem;

	mov	edx, DWORD PTR _this$[ebp]
	mov	eax, DWORD PTR _newitem$[ebp]
	mov	DWORD PTR [edx+152], eax

; 226  : 	}
; 227  : 	else

	jmp	SHORT $LN3@AddItem
$LN4@AddItem:

; 228  : 	{
; 229  : 		cur=Root_;

	mov	ecx, DWORD PTR _this$[ebp]
	mov	edx, DWORD PTR [ecx+152]
	mov	DWORD PTR _cur$[ebp], edx
$LN2@AddItem:

; 230  : 		while(cur->Next)

	mov	eax, DWORD PTR _cur$[ebp]
	cmp	DWORD PTR [eax+32], 0
	je	SHORT $LN1@AddItem

; 231  : 			cur=cur->Next;

	mov	ecx, DWORD PTR _cur$[ebp]
	mov	edx, DWORD PTR [ecx+32]
	mov	DWORD PTR _cur$[ebp], edx
	jmp	SHORT $LN2@AddItem
$LN1@AddItem:

; 232  : 
; 233  : 		cur->Next=newitem;

	mov	eax, DWORD PTR _cur$[ebp]
	mov	ecx, DWORD PTR _newitem$[ebp]
	mov	DWORD PTR [eax+32], ecx
$LN3@AddItem:

; 234  : 	}
; 235  : 	return(TRUE);

	mov	eax, 1
$LN16@AddItem:

; 236  : }

	mov	ecx, DWORD PTR __$EHRec$[ebp]
	mov	DWORD PTR fs:0, ecx
	pop	ecx
	mov	esp, ebp
	pop	ebp
	ret	16					; 00000010H
_TEXT	ENDS
text$x	SEGMENT
__unwindfunclet$?AddItem@C_PopupList@@QAEHJFPADJ@Z$0:
	mov	eax, DWORD PTR $T10[ebp]
	push	eax
	call	??3@YAXPAX@Z				; operator delete
	pop	ecx
	ret	0
__unwindfunclet$?AddItem@C_PopupList@@QAEHJFPADJ@Z$1:
	mov	eax, DWORD PTR $T9[ebp]
	push	eax
	call	??3@YAXPAX@Z				; operator delete
	pop	ecx
	ret	0
__unwindfunclet$?AddItem@C_PopupList@@QAEHJFPADJ@Z$2:
	mov	eax, DWORD PTR $T8[ebp]
	push	eax
	call	??3@YAXPAX@Z				; operator delete
	pop	ecx
	ret	0
__unwindfunclet$?AddItem@C_PopupList@@QAEHJFPADJ@Z$3:
	mov	eax, DWORD PTR $T7[ebp]
	push	eax
	call	??3@YAXPAX@Z				; operator delete
	pop	ecx
	ret	0
__ehhandler$?AddItem@C_PopupList@@QAEHJFPADJ@Z:
	mov	edx, DWORD PTR [esp+8]
	lea	eax, DWORD PTR [edx+12]
	mov	ecx, DWORD PTR [edx-68]
	xor	ecx, eax
	call	@__security_check_cookie@4
	mov	eax, OFFSET __ehfuncinfo$?AddItem@C_PopupList@@QAEHJFPADJ@Z
	jmp	___CxxFrameHandler3
text$x	ENDS
?AddItem@C_PopupList@@QAEHJFPADJ@Z ENDP			; C_PopupList::AddItem
; Function compile flags: /Odtp
; File c:\users\zhitao li\documents\visual studio 2012\projects\freefalcon\ui95\cpopup.cpp
_TEXT	SEGMENT
_this$ = -4						; size = 4
_ID$ = 8						; size = 4
___formal$ = 12						; size = 2
_Handler$ = 16						; size = 4
_MenuIconID$ = 20					; size = 4
_CheckIconID$ = 24					; size = 4
?Setup@C_PopupList@@QAEXJFPAVC_Handler@@JJ@Z PROC	; C_PopupList::Setup
; _this$ = ecx

; 89   : {

	push	ebp
	mov	ebp, esp
	push	ecx
	mov	DWORD PTR _this$[ebp], ecx

; 90   : 	SetID(ID);

	mov	eax, DWORD PTR _ID$[ebp]
	push	eax
	mov	ecx, DWORD PTR _this$[ebp]
	call	?SetID@C_Base@@QAEXJ@Z			; C_Base::SetID

; 91   : 	SetDefaultFlags();

	mov	ecx, DWORD PTR _this$[ebp]
	call	?SetDefaultFlags@C_PopupList@@QAEXXZ	; C_PopupList::SetDefaultFlags

; 92   : 	Handler_=Handler;

	mov	ecx, DWORD PTR _this$[ebp]
	mov	edx, DWORD PTR _Handler$[ebp]
	mov	DWORD PTR [ecx+160], edx

; 93   : 	WinType_=C_TYPE_NORMAL;

	mov	eax, 25					; 00000019H
	mov	ecx, DWORD PTR _this$[ebp]
	mov	WORD PTR [ecx+144], ax

; 94   : 	MenuIconID_=MenuIconID;

	mov	edx, DWORD PTR _this$[ebp]
	mov	eax, DWORD PTR _MenuIconID$[ebp]
	mov	DWORD PTR [edx+112], eax

; 95   : 	CheckIconID_=CheckIconID;

	mov	ecx, DWORD PTR _this$[ebp]
	mov	edx, DWORD PTR _CheckIconID$[ebp]
	mov	DWORD PTR [ecx+116], edx

; 96   : 	SetReady(1);

	push	1
	mov	ecx, DWORD PTR _this$[ebp]
	call	?SetReady@C_Base@@QAEXF@Z		; C_Base::SetReady

; 97   : }

	mov	esp, ebp
	pop	ebp
	ret	20					; 00000014H
?Setup@C_PopupList@@QAEXJFPAVC_Handler@@JJ@Z ENDP	; C_PopupList::Setup
_TEXT	ENDS
; Function compile flags: /Odtp
; File c:\users\zhitao li\documents\visual studio 2012\projects\freefalcon\ui95\cpopup.cpp
_TEXT	SEGMENT
_this$ = -4						; size = 4
?Size@C_PopupList@@QAEJXZ PROC				; C_PopupList::Size
; _this$ = ecx

; 84   : {

	push	ebp
	mov	ebp, esp
	push	ecx
	mov	DWORD PTR _this$[ebp], ecx

; 85   : 	return(0);

	xor	eax, eax

; 86   : }

	mov	esp, ebp
	pop	ebp
	ret	0
?Size@C_PopupList@@QAEJXZ ENDP				; C_PopupList::Size
_TEXT	ENDS
; Function compile flags: /Odtp
; File c:\users\zhitao li\documents\visual studio 2012\projects\freefalcon\ui95\cpopup.cpp
_TEXT	SEGMENT
_this$ = -16						; size = 4
__$EHRec$ = -12						; size = 12
??1C_PopupList@@UAE@XZ PROC				; C_PopupList::~C_PopupList
; _this$ = ecx

; 78   : {

	push	ebp
	mov	ebp, esp
	push	-1
	push	__ehhandler$??1C_PopupList@@UAE@XZ
	mov	eax, DWORD PTR fs:0
	push	eax
	push	ecx
	mov	eax, DWORD PTR ___security_cookie
	xor	eax, ebp
	push	eax
	lea	eax, DWORD PTR __$EHRec$[ebp]
	mov	DWORD PTR fs:0, eax
	mov	DWORD PTR _this$[ebp], ecx
	mov	eax, DWORD PTR _this$[ebp]
	mov	DWORD PTR [eax], OFFSET ??_7C_PopupList@@6B@
	mov	DWORD PTR __$EHRec$[ebp+8], 0

; 79   : 	if(Root_)

	mov	ecx, DWORD PTR _this$[ebp]
	cmp	DWORD PTR [ecx+152], 0
	je	SHORT $LN2@C_PopupLis

; 80   : 		Cleanup();

	mov	ecx, DWORD PTR _this$[ebp]
	call	?Cleanup@C_PopupList@@UAEXXZ		; C_PopupList::Cleanup
$LN2@C_PopupLis:

; 81   : }

	mov	DWORD PTR __$EHRec$[ebp+8], -1
	mov	ecx, DWORD PTR _this$[ebp]
	call	??1C_Control@@UAE@XZ			; C_Control::~C_Control
	mov	ecx, DWORD PTR __$EHRec$[ebp]
	mov	DWORD PTR fs:0, ecx
	pop	ecx
	mov	esp, ebp
	pop	ebp
	ret	0
_TEXT	ENDS
text$x	SEGMENT
__unwindfunclet$??1C_PopupList@@UAE@XZ$0:
	mov	ecx, DWORD PTR _this$[ebp]
	jmp	??1C_Control@@UAE@XZ			; C_Control::~C_Control
__ehhandler$??1C_PopupList@@UAE@XZ:
	mov	edx, DWORD PTR [esp+8]
	lea	eax, DWORD PTR [edx+12]
	mov	ecx, DWORD PTR [edx-8]
	xor	ecx, eax
	call	@__security_check_cookie@4
	mov	eax, OFFSET __ehfuncinfo$??1C_PopupList@@UAE@XZ
	jmp	___CxxFrameHandler3
text$x	ENDS
??1C_PopupList@@UAE@XZ ENDP				; C_PopupList::~C_PopupList
; Function compile flags: /Odtp
; File c:\users\zhitao li\documents\visual studio 2012\projects\freefalcon\ui95\cpopup.cpp
_TEXT	SEGMENT
_this$ = -4						; size = 4
_fp$ = 8						; size = 4
??0C_PopupList@@QAE@PAU_iobuf@@@Z PROC			; C_PopupList::C_PopupList
; _this$ = ecx

; 74   : {

	push	ebp
	mov	ebp, esp
	push	ecx
	mov	DWORD PTR _this$[ebp], ecx
	mov	eax, DWORD PTR _fp$[ebp]
	push	eax
	mov	ecx, DWORD PTR _this$[ebp]
	call	??0C_Control@@QAE@PAU_iobuf@@@Z		; C_Control::C_Control
	mov	ecx, DWORD PTR _this$[ebp]
	mov	DWORD PTR [ecx], OFFSET ??_7C_PopupList@@6B@

; 75   : }

	mov	eax, DWORD PTR _this$[ebp]
	mov	esp, ebp
	pop	ebp
	ret	4
??0C_PopupList@@QAE@PAU_iobuf@@@Z ENDP			; C_PopupList::C_PopupList
_TEXT	ENDS
; Function compile flags: /Odtp
; File c:\users\zhitao li\documents\visual studio 2012\projects\freefalcon\ui95\cpopup.cpp
_TEXT	SEGMENT
_this$ = -4						; size = 4
_stream$ = 8						; size = 4
??0C_PopupList@@QAE@PAPAD@Z PROC			; C_PopupList::C_PopupList
; _this$ = ecx

; 70   : {

	push	ebp
	mov	ebp, esp
	push	ecx
	mov	DWORD PTR _this$[ebp], ecx
	mov	eax, DWORD PTR _stream$[ebp]
	push	eax
	mov	ecx, DWORD PTR _this$[ebp]
	call	??0C_Control@@QAE@PAPAD@Z		; C_Control::C_Control
	mov	ecx, DWORD PTR _this$[ebp]
	mov	DWORD PTR [ecx], OFFSET ??_7C_PopupList@@6B@

; 71   : }

	mov	eax, DWORD PTR _this$[ebp]
	mov	esp, ebp
	pop	ebp
	ret	4
??0C_PopupList@@QAE@PAPAD@Z ENDP			; C_PopupList::C_PopupList
_TEXT	ENDS
; Function compile flags: /Odtp
; File c:\users\zhitao li\documents\visual studio 2012\projects\freefalcon\ui95\cpopup.cpp
_TEXT	SEGMENT
_this$ = -16						; size = 4
__$EHRec$ = -12						; size = 12
??0C_PopupList@@QAE@XZ PROC				; C_PopupList::C_PopupList
; _this$ = ecx

; 47   : {

	push	ebp
	mov	ebp, esp
	push	-1
	push	__ehhandler$??0C_PopupList@@QAE@XZ
	mov	eax, DWORD PTR fs:0
	push	eax
	push	ecx
	mov	eax, DWORD PTR ___security_cookie
	xor	eax, ebp
	push	eax
	lea	eax, DWORD PTR __$EHRec$[ebp]
	mov	DWORD PTR fs:0, eax
	mov	DWORD PTR _this$[ebp], ecx
	mov	ecx, DWORD PTR _this$[ebp]
	call	??0C_Control@@QAE@XZ			; C_Control::C_Control
	mov	DWORD PTR __$EHRec$[ebp+8], 0
	mov	eax, DWORD PTR _this$[ebp]
	mov	DWORD PTR [eax], OFFSET ??_7C_PopupList@@6B@

; 48   : 	_SetCType_(_CNTL_POPUPLIST_);

	push	16392					; 00004008H
	mov	ecx, DWORD PTR _this$[ebp]
	call	?_SetCType_@C_Base@@QAEXF@Z		; C_Base::_SetCType_

; 49   : 	Root_=NULL;

	mov	ecx, DWORD PTR _this$[ebp]
	mov	DWORD PTR [ecx+152], 0

; 50   : 	Selected_=0;

	xor	edx, edx
	mov	eax, DWORD PTR _this$[ebp]
	mov	WORD PTR [eax+148], dx

; 51   : 	Count_=0;

	xor	ecx, ecx
	mov	edx, DWORD PTR _this$[ebp]
	mov	WORD PTR [edx+150], cx

; 52   : 	WinType_=0;

	xor	eax, eax
	mov	ecx, DWORD PTR _this$[ebp]
	mov	WORD PTR [ecx+144], ax

; 53   : 	Direction_=C_TYPE_RIGHT;

	mov	edx, 46					; 0000002eH
	mov	eax, DWORD PTR _this$[ebp]
	mov	WORD PTR [eax+146], dx

; 54   : 	MenuIconID_=0;

	mov	ecx, DWORD PTR _this$[ebp]
	mov	DWORD PTR [ecx+112], 0

; 55   : 	CheckIconID_=0;

	mov	edx, DWORD PTR _this$[ebp]
	mov	DWORD PTR [edx+116], 0

; 56   : 	NormalColor_=0;

	mov	eax, DWORD PTR _this$[ebp]
	mov	DWORD PTR [eax+120], 0

; 57   : 	SelColor_=0xffffff;

	mov	ecx, DWORD PTR _this$[ebp]
	mov	DWORD PTR [ecx+124], 16777215		; 00ffffffH

; 58   : 	DisColor_=0x888888;

	mov	edx, DWORD PTR _this$[ebp]
	mov	DWORD PTR [edx+128], 8947848		; 00888888H

; 59   : 	BarColor_=0;

	mov	eax, DWORD PTR _this$[ebp]
	mov	DWORD PTR [eax+132], 0

; 60   : 	BgColor_=0;

	mov	ecx, DWORD PTR _this$[ebp]
	mov	DWORD PTR [ecx+136], 0

; 61   : 	Opaque_=0;

	mov	edx, DWORD PTR _this$[ebp]
	mov	DWORD PTR [edx+108], 0

; 62   : 	BorderColor_=0;

	mov	eax, DWORD PTR _this$[ebp]
	mov	DWORD PTR [eax+140], 0

; 63   : 	OpenCallback_=NULL;

	mov	ecx, DWORD PTR _this$[ebp]
	mov	DWORD PTR [ecx+164], 0

; 64   : 	Window_=NULL;

	mov	edx, DWORD PTR _this$[ebp]
	mov	DWORD PTR [edx+156], 0

; 65   : 	Handler_=NULL;

	mov	eax, DWORD PTR _this$[ebp]
	mov	DWORD PTR [eax+160], 0

; 66   : 	DefaultFlags_=C_BIT_ENABLED;

	mov	ecx, DWORD PTR _this$[ebp]
	mov	DWORD PTR [ecx+100], 2048		; 00000800H

; 67   : }

	mov	DWORD PTR __$EHRec$[ebp+8], -1
	mov	eax, DWORD PTR _this$[ebp]
	mov	ecx, DWORD PTR __$EHRec$[ebp]
	mov	DWORD PTR fs:0, ecx
	pop	ecx
	mov	esp, ebp
	pop	ebp
	ret	0
_TEXT	ENDS
text$x	SEGMENT
__unwindfunclet$??0C_PopupList@@QAE@XZ$0:
	mov	ecx, DWORD PTR _this$[ebp]
	jmp	??1C_Control@@UAE@XZ			; C_Control::~C_Control
__ehhandler$??0C_PopupList@@QAE@XZ:
	mov	edx, DWORD PTR [esp+8]
	lea	eax, DWORD PTR [edx+12]
	mov	ecx, DWORD PTR [edx-8]
	xor	ecx, eax
	call	@__security_check_cookie@4
	mov	eax, OFFSET __ehfuncinfo$??0C_PopupList@@QAE@XZ
	jmp	___CxxFrameHandler3
text$x	ENDS
??0C_PopupList@@QAE@XZ ENDP				; C_PopupList::C_PopupList
; Function compile flags: /Odtp
; File c:\users\zhitao li\documents\visual studio 2012\projects\freefalcon\ui95\cpopup.cpp
_TEXT	SEGMENT
_this$ = -16						; size = 4
_cur$ = -12						; size = 4
_w$ = -8						; size = 2
_len$ = -4						; size = 2
_width$ = 8						; size = 4
_height$ = 12						; size = 4
?GetSize@C_PopupList@@AAEXPAF0@Z PROC			; C_PopupList::GetSize
; _this$ = ecx

; 416  : {

	push	ebp
	mov	ebp, esp
	sub	esp, 16					; 00000010H
	mov	DWORD PTR _this$[ebp], ecx

; 417  : 	short w,len;
; 418  : 	POPUPLIST *cur;
; 419  : 
; 420  : 	w=0;

	xor	eax, eax
	mov	WORD PTR _w$[ebp], ax

; 421  : 
; 422  : 	*height=static_cast<short>(gFontList->GetHeight(Font_) * Count_);//! 

	mov	ecx, DWORD PTR _this$[ebp]
	mov	edx, DWORD PTR [ecx+104]
	push	edx
	mov	ecx, DWORD PTR ?gFontList@@3PAVC_Font@@A ; gFontList
	call	?GetHeight@C_Font@@QAEHJ@Z		; C_Font::GetHeight
	mov	ecx, DWORD PTR _this$[ebp]
	movsx	edx, WORD PTR [ecx+150]
	imul	eax, edx
	mov	ecx, DWORD PTR _height$[ebp]
	mov	WORD PTR [ecx], ax

; 423  : 	cur=Root_;

	mov	edx, DWORD PTR _this$[ebp]
	mov	eax, DWORD PTR [edx+152]
	mov	DWORD PTR _cur$[ebp], eax
$LN7@GetSize:

; 424  : 	while(cur)

	cmp	DWORD PTR _cur$[ebp], 0
	je	SHORT $LN6@GetSize

; 425  : 	{
; 426  : 		if(!(cur->flags_ & C_BIT_INVISIBLE))

	mov	ecx, DWORD PTR _cur$[ebp]
	mov	edx, DWORD PTR [ecx+4]
	and	edx, 8192				; 00002000H
	jne	SHORT $LN5@GetSize

; 427  : 		{
; 428  : 			if(cur->Type_ != C_TYPE_NOTHING)

	mov	eax, DWORD PTR _cur$[ebp]
	movsx	ecx, WORD PTR [eax+36]
	cmp	ecx, 24					; 00000018H
	je	SHORT $LN5@GetSize

; 429  : 			{
; 430  : 				if(cur->Label_)

	mov	edx, DWORD PTR _cur$[ebp]
	cmp	DWORD PTR [edx+12], 0
	je	SHORT $LN3@GetSize

; 431  : 					len=static_cast<short>(gFontList->StrWidth(Font_,cur->Label_->GetText())); //! 

	mov	eax, DWORD PTR _cur$[ebp]
	mov	ecx, DWORD PTR [eax+12]
	call	?GetText@O_Output@@QAEPADXZ		; O_Output::GetText
	push	eax
	mov	ecx, DWORD PTR _this$[ebp]
	mov	edx, DWORD PTR [ecx+104]
	push	edx
	mov	ecx, DWORD PTR ?gFontList@@3PAVC_Font@@A ; gFontList
	call	?StrWidth@C_Font@@QAEHJPAD@Z		; C_Font::StrWidth
	mov	WORD PTR _len$[ebp], ax

; 432  : 				else

	jmp	SHORT $LN2@GetSize
$LN3@GetSize:

; 433  : 					len=0;

	xor	eax, eax
	mov	WORD PTR _len$[ebp], ax
$LN2@GetSize:

; 434  : 				if(len > w)

	movsx	ecx, WORD PTR _len$[ebp]
	movsx	edx, WORD PTR _w$[ebp]
	cmp	ecx, edx
	jle	SHORT $LN5@GetSize

; 435  : 					w=len;

	mov	ax, WORD PTR _len$[ebp]
	mov	WORD PTR _w$[ebp], ax
$LN5@GetSize:

; 436  : 			}
; 437  : 		}
; 438  : 		cur=cur->Next;

	mov	ecx, DWORD PTR _cur$[ebp]
	mov	edx, DWORD PTR [ecx+32]
	mov	DWORD PTR _cur$[ebp], edx

; 439  : 	}

	jmp	SHORT $LN7@GetSize
$LN6@GetSize:

; 440  : 	*width=w;

	mov	eax, DWORD PTR _width$[ebp]
	mov	cx, WORD PTR _w$[ebp]
	mov	WORD PTR [eax], cx

; 441  : }

	mov	esp, ebp
	pop	ebp
	ret	8
?GetSize@C_PopupList@@AAEXPAF0@Z ENDP			; C_PopupList::GetSize
_TEXT	ENDS
; Function compile flags: /Odtp
; File c:\users\zhitao li\documents\visual studio 2012\projects\freefalcon\ui95\cpopup.cpp
_TEXT	SEGMENT
_this$ = -12						; size = 4
_ret$ = -8						; size = 4
_Pop$ = -4						; size = 4
_pID$ = 8						; size = 4
?FindID@C_PopupList@@AAEPAUPopUpStr@@J@Z PROC		; C_PopupList::FindID
; _this$ = ecx

; 287  : {

	push	ebp
	mov	ebp, esp
	sub	esp, 12					; 0000000cH
	mov	DWORD PTR _this$[ebp], ecx

; 288  : 	POPUPLIST *Pop,*ret;
; 289  : 
; 290  : 	Pop=Root_;

	mov	eax, DWORD PTR _this$[ebp]
	mov	ecx, DWORD PTR [eax+152]
	mov	DWORD PTR _Pop$[ebp], ecx
$LN6@FindID:

; 291  : 	while(Pop)

	cmp	DWORD PTR _Pop$[ebp], 0
	je	SHORT $LN5@FindID

; 292  : 	{
; 293  : 		if(Pop->ID_ == pID)

	mov	edx, DWORD PTR _Pop$[ebp]
	mov	eax, DWORD PTR [edx]
	cmp	eax, DWORD PTR _pID$[ebp]
	jne	SHORT $LN4@FindID

; 294  : 			return(Pop);

	mov	eax, DWORD PTR _Pop$[ebp]
	jmp	SHORT $LN7@FindID
	jmp	SHORT $LN3@FindID
$LN4@FindID:

; 295  : 		else if(Pop->Type_ == C_TYPE_MENU && Pop->SubMenu_)

	mov	ecx, DWORD PTR _Pop$[ebp]
	movsx	edx, WORD PTR [ecx+36]
	cmp	edx, 49					; 00000031H
	jne	SHORT $LN3@FindID
	mov	eax, DWORD PTR _Pop$[ebp]
	cmp	DWORD PTR [eax+24], 0
	je	SHORT $LN3@FindID

; 296  : 		{
; 297  : 			ret=Pop->SubMenu_->FindID(pID);

	mov	ecx, DWORD PTR _pID$[ebp]
	push	ecx
	mov	edx, DWORD PTR _Pop$[ebp]
	mov	ecx, DWORD PTR [edx+24]
	call	?FindID@C_PopupList@@AAEPAUPopUpStr@@J@Z ; C_PopupList::FindID
	mov	DWORD PTR _ret$[ebp], eax

; 298  : 			if(ret)

	cmp	DWORD PTR _ret$[ebp], 0
	je	SHORT $LN3@FindID

; 299  : 				return(ret);

	mov	eax, DWORD PTR _ret$[ebp]
	jmp	SHORT $LN7@FindID
$LN3@FindID:

; 300  : 		}
; 301  : 		Pop=Pop->Next;

	mov	eax, DWORD PTR _Pop$[ebp]
	mov	ecx, DWORD PTR [eax+32]
	mov	DWORD PTR _Pop$[ebp], ecx

; 302  : 	}

	jmp	SHORT $LN6@FindID
$LN5@FindID:

; 303  : 	return(NULL);

	xor	eax, eax
$LN7@FindID:

; 304  : }

	mov	esp, ebp
	pop	ebp
	ret	4
?FindID@C_PopupList@@AAEPAUPopUpStr@@J@Z ENDP		; C_PopupList::FindID
_TEXT	ENDS
; Function compile flags: /Odtp
;	COMDAT ??_GC_Control@@UAEPAXI@Z
_TEXT	SEGMENT
_this$ = -4						; size = 4
___flags$ = 8						; size = 4
??_GC_Control@@UAEPAXI@Z PROC				; C_Control::`scalar deleting destructor', COMDAT
; _this$ = ecx
	push	ebp
	mov	ebp, esp
	push	ecx
	mov	DWORD PTR _this$[ebp], ecx
	mov	ecx, DWORD PTR _this$[ebp]
	call	??1C_Control@@UAE@XZ			; C_Control::~C_Control
	mov	eax, DWORD PTR ___flags$[ebp]
	and	eax, 1
	je	SHORT $LN1@scalar
	mov	ecx, DWORD PTR _this$[ebp]
	push	ecx
	call	??3@YAXPAX@Z				; operator delete
	add	esp, 4
$LN1@scalar:
	mov	eax, DWORD PTR _this$[ebp]
	mov	esp, ebp
	pop	ebp
	ret	4
??_GC_Control@@UAEPAXI@Z ENDP				; C_Control::`scalar deleting destructor'
_TEXT	ENDS
; Function compile flags: /Odtp
; File c:\users\zhitao li\documents\visual studio 2012\projects\freefalcon\ui95\ccontrol.h
;	COMDAT ?GetCallback@C_Control@@UAEP6AXJFPAVC_Base@@@ZXZ
_TEXT	SEGMENT
_this$ = -4						; size = 4
?GetCallback@C_Control@@UAEP6AXJFPAVC_Base@@@ZXZ PROC	; C_Control::GetCallback, COMDAT
; _this$ = ecx

; 82   : 		void (*GetCallback())(long,short,C_Base*)	{ return(Callback_); }

	push	ebp
	mov	ebp, esp
	push	ecx
	mov	DWORD PTR _this$[ebp], ecx
	mov	eax, DWORD PTR _this$[ebp]
	mov	eax, DWORD PTR [eax+96]
	mov	esp, ebp
	pop	ebp
	ret	0
?GetCallback@C_Control@@UAEP6AXJFPAVC_Base@@@ZXZ ENDP	; C_Control::GetCallback
_TEXT	ENDS
; Function compile flags: /Odtp
; File c:\users\zhitao li\documents\visual studio 2012\projects\freefalcon\ui95\ccontrol.h
;	COMDAT ?GetMouseOver@C_Control@@UAEFXZ
_TEXT	SEGMENT
_this$ = -4						; size = 4
?GetMouseOver@C_Control@@UAEFXZ PROC			; C_Control::GetMouseOver, COMDAT
; _this$ = ecx

; 80   : 		short GetMouseOver()			{ return(MouseOver_); }

	push	ebp
	mov	ebp, esp
	push	ecx
	mov	DWORD PTR _this$[ebp], ecx
	mov	eax, DWORD PTR _this$[ebp]
	mov	ax, WORD PTR [eax+82]
	mov	esp, ebp
	pop	ebp
	ret	0
?GetMouseOver@C_Control@@UAEFXZ ENDP			; C_Control::GetMouseOver
_TEXT	ENDS
; Function compile flags: /Odtp
; File c:\users\zhitao li\documents\visual studio 2012\projects\freefalcon\ui95\ccontrol.h
;	COMDAT ?GetHotKey@C_Control@@UAEFXZ
_TEXT	SEGMENT
_this$ = -4						; size = 4
?GetHotKey@C_Control@@UAEFXZ PROC			; C_Control::GetHotKey, COMDAT
; _this$ = ecx

; 79   : 		short GetHotKey()				{ return(HotKey_); }

	push	ebp
	mov	ebp, esp
	push	ecx
	mov	DWORD PTR _this$[ebp], ecx
	mov	eax, DWORD PTR _this$[ebp]
	mov	ax, WORD PTR [eax+80]
	mov	esp, ebp
	pop	ebp
	ret	0
?GetHotKey@C_Control@@UAEFXZ ENDP			; C_Control::GetHotKey
_TEXT	ENDS
; Function compile flags: /Odtp
; File c:\users\zhitao li\documents\visual studio 2012\projects\freefalcon\ui95\ccontrol.h
;	COMDAT ?GetHelpText@C_Control@@UAEJXZ
_TEXT	SEGMENT
_this$ = -4						; size = 4
?GetHelpText@C_Control@@UAEJXZ PROC			; C_Control::GetHelpText, COMDAT
; _this$ = ecx

; 78   : 		long  GetHelpText()				{ return(HelpTextID_); }

	push	ebp
	mov	ebp, esp
	push	ecx
	mov	DWORD PTR _this$[ebp], ecx
	mov	eax, DWORD PTR _this$[ebp]
	mov	eax, DWORD PTR [eax+64]
	mov	esp, ebp
	pop	ebp
	ret	0
?GetHelpText@C_Control@@UAEJXZ ENDP			; C_Control::GetHelpText
_TEXT	ENDS
; Function compile flags: /Odtp
; File c:\users\zhitao li\documents\visual studio 2012\projects\freefalcon\ui95\ccontrol.h
;	COMDAT ?GetMenu@C_Control@@UAEJXZ
_TEXT	SEGMENT
_this$ = -4						; size = 4
?GetMenu@C_Control@@UAEJXZ PROC				; C_Control::GetMenu, COMDAT
; _this$ = ecx

; 77   : 		long  GetMenu()					{ return(MenuID_); }

	push	ebp
	mov	ebp, esp
	push	ecx
	mov	DWORD PTR _this$[ebp], ecx
	mov	eax, DWORD PTR _this$[ebp]
	mov	eax, DWORD PTR [eax+60]
	mov	esp, ebp
	pop	ebp
	ret	0
?GetMenu@C_Control@@UAEJXZ ENDP				; C_Control::GetMenu
_TEXT	ENDS
; Function compile flags: /Odtp
; File c:\users\zhitao li\documents\visual studio 2012\projects\freefalcon\ui95\ccontrol.h
;	COMDAT ?GetDragCursorID@C_Control@@UAEJXZ
_TEXT	SEGMENT
_this$ = -4						; size = 4
?GetDragCursorID@C_Control@@UAEJXZ PROC			; C_Control::GetDragCursorID, COMDAT
; _this$ = ecx

; 76   : 		long  GetDragCursorID()			{ return(DragCursor_); }

	push	ebp
	mov	ebp, esp
	push	ecx
	mov	DWORD PTR _this$[ebp], ecx
	mov	eax, DWORD PTR _this$[ebp]
	mov	eax, DWORD PTR [eax+56]
	mov	esp, ebp
	pop	ebp
	ret	0
?GetDragCursorID@C_Control@@UAEJXZ ENDP			; C_Control::GetDragCursorID
_TEXT	ENDS
; Function compile flags: /Odtp
; File c:\users\zhitao li\documents\visual studio 2012\projects\freefalcon\ui95\ccontrol.h
;	COMDAT ?GetCursorID@C_Control@@UAEJXZ
_TEXT	SEGMENT
_this$ = -4						; size = 4
?GetCursorID@C_Control@@UAEJXZ PROC			; C_Control::GetCursorID, COMDAT
; _this$ = ecx

; 75   : 		long  GetCursorID()				{ return(Cursor_); }

	push	ebp
	mov	ebp, esp
	push	ecx
	mov	DWORD PTR _this$[ebp], ecx
	mov	eax, DWORD PTR _this$[ebp]
	mov	eax, DWORD PTR [eax+52]
	mov	esp, ebp
	pop	ebp
	ret	0
?GetCursorID@C_Control@@UAEJXZ ENDP			; C_Control::GetCursorID
_TEXT	ENDS
; Function compile flags: /Odtp
; File c:\users\zhitao li\documents\visual studio 2012\projects\freefalcon\ui95\ccontrol.h
;	COMDAT ?GetRelY@C_Control@@UAEJXZ
_TEXT	SEGMENT
_this$ = -4						; size = 4
?GetRelY@C_Control@@UAEJXZ PROC				; C_Control::GetRelY, COMDAT
; _this$ = ecx

; 73   : 		long GetRelY()					{ return(RelY_); }

	push	ebp
	mov	ebp, esp
	push	ecx
	mov	DWORD PTR _this$[ebp], ecx
	mov	eax, DWORD PTR _this$[ebp]
	mov	eax, DWORD PTR [eax+76]
	mov	esp, ebp
	pop	ebp
	ret	0
?GetRelY@C_Control@@UAEJXZ ENDP				; C_Control::GetRelY
_TEXT	ENDS
; Function compile flags: /Odtp
; File c:\users\zhitao li\documents\visual studio 2012\projects\freefalcon\ui95\ccontrol.h
;	COMDAT ?GetRelX@C_Control@@UAEJXZ
_TEXT	SEGMENT
_this$ = -4						; size = 4
?GetRelX@C_Control@@UAEJXZ PROC				; C_Control::GetRelX, COMDAT
; _this$ = ecx

; 72   : 		long GetRelX()					{ return(RelX_); }

	push	ebp
	mov	ebp, esp
	push	ecx
	mov	DWORD PTR _this$[ebp], ecx
	mov	eax, DWORD PTR _this$[ebp]
	mov	eax, DWORD PTR [eax+72]
	mov	esp, ebp
	pop	ebp
	ret	0
?GetRelX@C_Control@@UAEJXZ ENDP				; C_Control::GetRelX
_TEXT	ENDS
; Function compile flags: /Odtp
; File c:\users\zhitao li\documents\visual studio 2012\projects\freefalcon\ui95\ccontrol.h
;	COMDAT ?IsControl@C_Control@@UAEHXZ
_TEXT	SEGMENT
_this$ = -4						; size = 4
?IsControl@C_Control@@UAEHXZ PROC			; C_Control::IsControl, COMDAT
; _this$ = ecx

; 71   : 		BOOL  IsControl()				{ return(TRUE); }

	push	ebp
	mov	ebp, esp
	push	ecx
	mov	DWORD PTR _this$[ebp], ecx
	mov	eax, 1
	mov	esp, ebp
	pop	ebp
	ret	0
?IsControl@C_Control@@UAEHXZ ENDP			; C_Control::IsControl
_TEXT	ENDS
; Function compile flags: /Odtp
; File c:\users\zhitao li\documents\visual studio 2012\projects\freefalcon\ui95\ccontrol.h
;	COMDAT ?IsBase@C_Control@@UAEHXZ
_TEXT	SEGMENT
_this$ = -4						; size = 4
?IsBase@C_Control@@UAEHXZ PROC				; C_Control::IsBase, COMDAT
; _this$ = ecx

; 70   : 		BOOL  IsBase()					{ return(FALSE); }

	push	ebp
	mov	ebp, esp
	push	ecx
	mov	DWORD PTR _this$[ebp], ecx
	xor	eax, eax
	mov	esp, ebp
	pop	ebp
	ret	0
?IsBase@C_Control@@UAEHXZ ENDP				; C_Control::IsBase
_TEXT	ENDS
; Function compile flags: /Odtp
; File c:\users\zhitao li\documents\visual studio 2012\projects\freefalcon\ui95\ccontrol.h
;	COMDAT ?SetMouseOverPerc@C_Control@@UAEXF@Z
_TEXT	SEGMENT
_this$ = -4						; size = 4
_perc$ = 8						; size = 2
?SetMouseOverPerc@C_Control@@UAEXF@Z PROC		; C_Control::SetMouseOverPerc, COMDAT
; _this$ = ecx

; 67   : 		void SetMouseOverPerc(short perc)				{ MouseOverPercent_=perc; }

	push	ebp
	mov	ebp, esp
	push	ecx
	mov	DWORD PTR _this$[ebp], ecx
	mov	eax, DWORD PTR _this$[ebp]
	mov	cx, WORD PTR _perc$[ebp]
	mov	WORD PTR [eax+84], cx
	mov	esp, ebp
	pop	ebp
	ret	4
?SetMouseOverPerc@C_Control@@UAEXF@Z ENDP		; C_Control::SetMouseOverPerc
_TEXT	ENDS
; Function compile flags: /Odtp
; File c:\users\zhitao li\documents\visual studio 2012\projects\freefalcon\ui95\ccontrol.h
;	COMDAT ?SetMouseOverColor@C_Control@@UAEXK@Z
_TEXT	SEGMENT
_this$ = -4						; size = 4
_color$ = 8						; size = 4
?SetMouseOverColor@C_Control@@UAEXK@Z PROC		; C_Control::SetMouseOverColor, COMDAT
; _this$ = ecx

; 66   : 		void SetMouseOverColor(COLORREF color)			{ MouseOverColor_=color; }

	push	ebp
	mov	ebp, esp
	push	ecx
	mov	DWORD PTR _this$[ebp], ecx
	mov	eax, DWORD PTR _this$[ebp]
	mov	ecx, DWORD PTR _color$[ebp]
	mov	DWORD PTR [eax+68], ecx
	mov	esp, ebp
	pop	ebp
	ret	4
?SetMouseOverColor@C_Control@@UAEXK@Z ENDP		; C_Control::SetMouseOverColor
_TEXT	ENDS
; Function compile flags: /Odtp
; File c:\users\zhitao li\documents\visual studio 2012\projects\freefalcon\ui95\ccontrol.h
;	COMDAT ?SetMouseOver@C_Control@@UAEXF@Z
_TEXT	SEGMENT
_this$ = -4						; size = 4
_state$ = 8						; size = 2
?SetMouseOver@C_Control@@UAEXF@Z PROC			; C_Control::SetMouseOver, COMDAT
; _this$ = ecx

; 65   : 		void SetMouseOver(short state)					{ MouseOver_=state; }

	push	ebp
	mov	ebp, esp
	push	ecx
	mov	DWORD PTR _this$[ebp], ecx
	mov	eax, DWORD PTR _this$[ebp]
	mov	cx, WORD PTR _state$[ebp]
	mov	WORD PTR [eax+82], cx
	mov	esp, ebp
	pop	ebp
	ret	4
?SetMouseOver@C_Control@@UAEXF@Z ENDP			; C_Control::SetMouseOver
_TEXT	ENDS
; Function compile flags: /Odtp
; File c:\users\zhitao li\documents\visual studio 2012\projects\freefalcon\ui95\ccontrol.h
;	COMDAT ?SetCallback@C_Control@@UAEXP6AXJFPAVC_Base@@@Z@Z
_TEXT	SEGMENT
_this$ = -4						; size = 4
_cb$ = 8						; size = 4
?SetCallback@C_Control@@UAEXP6AXJFPAVC_Base@@@Z@Z PROC	; C_Control::SetCallback, COMDAT
; _this$ = ecx

; 63   : 		void SetCallback(void (*cb)(long,short,C_Base*)) { Callback_=cb; }

	push	ebp
	mov	ebp, esp
	push	ecx
	mov	DWORD PTR _this$[ebp], ecx
	mov	eax, DWORD PTR _this$[ebp]
	mov	ecx, DWORD PTR _cb$[ebp]
	mov	DWORD PTR [eax+96], ecx
	mov	esp, ebp
	pop	ebp
	ret	4
?SetCallback@C_Control@@UAEXP6AXJFPAVC_Base@@@Z@Z ENDP	; C_Control::SetCallback
_TEXT	ENDS
; Function compile flags: /Odtp
; File c:\users\zhitao li\documents\visual studio 2012\projects\freefalcon\ui95\ccontrol.h
;	COMDAT ?SetHotKey@C_Control@@UAEXF@Z
_TEXT	SEGMENT
_this$ = -4						; size = 4
_key$ = 8						; size = 2
?SetHotKey@C_Control@@UAEXF@Z PROC			; C_Control::SetHotKey, COMDAT
; _this$ = ecx

; 62   : 		void SetHotKey(short key)						{ HotKey_=key; }

	push	ebp
	mov	ebp, esp
	push	ecx
	mov	DWORD PTR _this$[ebp], ecx
	mov	eax, DWORD PTR _this$[ebp]
	mov	cx, WORD PTR _key$[ebp]
	mov	WORD PTR [eax+80], cx
	mov	esp, ebp
	pop	ebp
	ret	4
?SetHotKey@C_Control@@UAEXF@Z ENDP			; C_Control::SetHotKey
_TEXT	ENDS
; Function compile flags: /Odtp
; File c:\users\zhitao li\documents\visual studio 2012\projects\freefalcon\ui95\ccontrol.h
;	COMDAT ?SetHelpText@C_Control@@UAEXJ@Z
_TEXT	SEGMENT
_this$ = -4						; size = 4
_id$ = 8						; size = 4
?SetHelpText@C_Control@@UAEXJ@Z PROC			; C_Control::SetHelpText, COMDAT
; _this$ = ecx

; 61   : 		void SetHelpText(long id)						{ HelpTextID_=id; }

	push	ebp
	mov	ebp, esp
	push	ecx
	mov	DWORD PTR _this$[ebp], ecx
	mov	eax, DWORD PTR _this$[ebp]
	mov	ecx, DWORD PTR _id$[ebp]
	mov	DWORD PTR [eax+64], ecx
	mov	esp, ebp
	pop	ebp
	ret	4
?SetHelpText@C_Control@@UAEXJ@Z ENDP			; C_Control::SetHelpText
_TEXT	ENDS
; Function compile flags: /Odtp
; File c:\users\zhitao li\documents\visual studio 2012\projects\freefalcon\ui95\ccontrol.h
;	COMDAT ?SetMenu@C_Control@@UAEXJ@Z
_TEXT	SEGMENT
_this$ = -4						; size = 4
_id$ = 8						; size = 4
?SetMenu@C_Control@@UAEXJ@Z PROC			; C_Control::SetMenu, COMDAT
; _this$ = ecx

; 60   : 		void SetMenu(long id)							{ MenuID_=id; }

	push	ebp
	mov	ebp, esp
	push	ecx
	mov	DWORD PTR _this$[ebp], ecx
	mov	eax, DWORD PTR _this$[ebp]
	mov	ecx, DWORD PTR _id$[ebp]
	mov	DWORD PTR [eax+60], ecx
	mov	esp, ebp
	pop	ebp
	ret	4
?SetMenu@C_Control@@UAEXJ@Z ENDP			; C_Control::SetMenu
_TEXT	ENDS
; Function compile flags: /Odtp
; File c:\users\zhitao li\documents\visual studio 2012\projects\freefalcon\ui95\ccontrol.h
;	COMDAT ?SetDragCursorID@C_Control@@UAEXJ@Z
_TEXT	SEGMENT
_this$ = -4						; size = 4
_id$ = 8						; size = 4
?SetDragCursorID@C_Control@@UAEXJ@Z PROC		; C_Control::SetDragCursorID, COMDAT
; _this$ = ecx

; 59   : 		void SetDragCursorID(long id)					{ DragCursor_=id; }

	push	ebp
	mov	ebp, esp
	push	ecx
	mov	DWORD PTR _this$[ebp], ecx
	mov	eax, DWORD PTR _this$[ebp]
	mov	ecx, DWORD PTR _id$[ebp]
	mov	DWORD PTR [eax+56], ecx
	mov	esp, ebp
	pop	ebp
	ret	4
?SetDragCursorID@C_Control@@UAEXJ@Z ENDP		; C_Control::SetDragCursorID
_TEXT	ENDS
; Function compile flags: /Odtp
; File c:\users\zhitao li\documents\visual studio 2012\projects\freefalcon\ui95\ccontrol.h
;	COMDAT ?SetCursorID@C_Control@@UAEXJ@Z
_TEXT	SEGMENT
_this$ = -4						; size = 4
_id$ = 8						; size = 4
?SetCursorID@C_Control@@UAEXJ@Z PROC			; C_Control::SetCursorID, COMDAT
; _this$ = ecx

; 58   : 		void SetCursorID(long id)						{ Cursor_=id; }

	push	ebp
	mov	ebp, esp
	push	ecx
	mov	DWORD PTR _this$[ebp], ecx
	mov	eax, DWORD PTR _this$[ebp]
	mov	ecx, DWORD PTR _id$[ebp]
	mov	DWORD PTR [eax+52], ecx
	mov	esp, ebp
	pop	ebp
	ret	4
?SetCursorID@C_Control@@UAEXJ@Z ENDP			; C_Control::SetCursorID
_TEXT	ENDS
; Function compile flags: /Odtp
; File c:\users\zhitao li\documents\visual studio 2012\projects\freefalcon\ui95\ccontrol.h
;	COMDAT ?SetRelXY@C_Control@@UAEXJJ@Z
_TEXT	SEGMENT
_this$ = -4						; size = 4
_x$ = 8							; size = 4
_y$ = 12						; size = 4
?SetRelXY@C_Control@@UAEXJJ@Z PROC			; C_Control::SetRelXY, COMDAT
; _this$ = ecx

; 57   : 		void SetRelXY(long x,long y)					{ RelX_=x; RelY_=y; }

	push	ebp
	mov	ebp, esp
	push	ecx
	mov	DWORD PTR _this$[ebp], ecx
	mov	eax, DWORD PTR _this$[ebp]
	mov	ecx, DWORD PTR _x$[ebp]
	mov	DWORD PTR [eax+72], ecx
	mov	edx, DWORD PTR _this$[ebp]
	mov	eax, DWORD PTR _y$[ebp]
	mov	DWORD PTR [edx+76], eax
	mov	esp, ebp
	pop	ebp
	ret	8
?SetRelXY@C_Control@@UAEXJJ@Z ENDP			; C_Control::SetRelXY
_TEXT	ENDS
; Function compile flags: /Odtp
; File c:\users\zhitao li\documents\visual studio 2012\projects\freefalcon\ui95\ccontrol.h
;	COMDAT ?SetRelY@C_Control@@UAEXJ@Z
_TEXT	SEGMENT
_this$ = -4						; size = 4
_y$ = 8							; size = 4
?SetRelY@C_Control@@UAEXJ@Z PROC			; C_Control::SetRelY, COMDAT
; _this$ = ecx

; 56   : 		void SetRelY(long y)							{ RelY_=y; }

	push	ebp
	mov	ebp, esp
	push	ecx
	mov	DWORD PTR _this$[ebp], ecx
	mov	eax, DWORD PTR _this$[ebp]
	mov	ecx, DWORD PTR _y$[ebp]
	mov	DWORD PTR [eax+76], ecx
	mov	esp, ebp
	pop	ebp
	ret	4
?SetRelY@C_Control@@UAEXJ@Z ENDP			; C_Control::SetRelY
_TEXT	ENDS
; Function compile flags: /Odtp
; File c:\users\zhitao li\documents\visual studio 2012\projects\freefalcon\ui95\ccontrol.h
;	COMDAT ?SetRelX@C_Control@@UAEXJ@Z
_TEXT	SEGMENT
_this$ = -4						; size = 4
_x$ = 8							; size = 4
?SetRelX@C_Control@@UAEXJ@Z PROC			; C_Control::SetRelX, COMDAT
; _this$ = ecx

; 55   : 		void SetRelX(long x)							{ RelX_=x; }

	push	ebp
	mov	ebp, esp
	push	ecx
	mov	DWORD PTR _this$[ebp], ecx
	mov	eax, DWORD PTR _this$[ebp]
	mov	ecx, DWORD PTR _x$[ebp]
	mov	DWORD PTR [eax+72], ecx
	mov	esp, ebp
	pop	ebp
	ret	4
?SetRelX@C_Control@@UAEXJ@Z ENDP			; C_Control::SetRelX
_TEXT	ENDS
; Function compile flags: /Odtp
; File c:\users\zhitao li\documents\visual studio 2012\projects\freefalcon\ui95\ccontrol.h
;	COMDAT ??1C_Control@@UAE@XZ
_TEXT	SEGMENT
tv83 = -28						; size = 4
$T2 = -24						; size = 4
$T3 = -20						; size = 4
_this$ = -16						; size = 4
__$EHRec$ = -12						; size = 12
??1C_Control@@UAE@XZ PROC				; C_Control::~C_Control, COMDAT
; _this$ = ecx

; 40   : 		{

	push	ebp
	mov	ebp, esp
	push	-1
	push	__ehhandler$??1C_Control@@UAE@XZ
	mov	eax, DWORD PTR fs:0
	push	eax
	sub	esp, 16					; 00000010H
	mov	eax, DWORD PTR ___security_cookie
	xor	eax, ebp
	push	eax
	lea	eax, DWORD PTR __$EHRec$[ebp]
	mov	DWORD PTR fs:0, eax
	mov	DWORD PTR _this$[ebp], ecx
	mov	eax, DWORD PTR _this$[ebp]
	mov	DWORD PTR [eax], OFFSET ??_7C_Control@@6B@
	mov	DWORD PTR __$EHRec$[ebp+8], 0

; 41   : 			if(Sound_)

	mov	ecx, DWORD PTR _this$[ebp]
	cmp	DWORD PTR [ecx+92], 0
	je	SHORT $LN2@C_Control

; 42   : 			{
; 43   : 				Sound_->Cleanup();

	mov	edx, DWORD PTR _this$[ebp]
	mov	ecx, DWORD PTR [edx+92]
	call	?Cleanup@C_Hash@@QAEXXZ			; C_Hash::Cleanup

; 44   : 				delete Sound_;

	mov	eax, DWORD PTR _this$[ebp]
	mov	ecx, DWORD PTR [eax+92]
	mov	DWORD PTR $T2[ebp], ecx
	mov	edx, DWORD PTR $T2[ebp]
	mov	DWORD PTR $T3[ebp], edx
	cmp	DWORD PTR $T3[ebp], 0
	je	SHORT $LN4@C_Control
	push	1
	mov	ecx, DWORD PTR $T3[ebp]
	call	??_GC_Hash@@QAEPAXI@Z
	mov	DWORD PTR tv83[ebp], eax
	jmp	SHORT $LN2@C_Control
$LN4@C_Control:
	mov	DWORD PTR tv83[ebp], 0
$LN2@C_Control:

; 45   : 			}
; 46   : 		}

	mov	DWORD PTR __$EHRec$[ebp+8], -1
	mov	ecx, DWORD PTR _this$[ebp]
	call	??1C_Base@@UAE@XZ			; C_Base::~C_Base
	mov	ecx, DWORD PTR __$EHRec$[ebp]
	mov	DWORD PTR fs:0, ecx
	pop	ecx
	mov	esp, ebp
	pop	ebp
	ret	0
_TEXT	ENDS
;	COMDAT text$x
text$x	SEGMENT
__unwindfunclet$??1C_Control@@UAE@XZ$0:
	mov	ecx, DWORD PTR _this$[ebp]
	jmp	??1C_Base@@UAE@XZ			; C_Base::~C_Base
__ehhandler$??1C_Control@@UAE@XZ:
	mov	edx, DWORD PTR [esp+8]
	lea	eax, DWORD PTR [edx+12]
	mov	ecx, DWORD PTR [edx-20]
	xor	ecx, eax
	call	@__security_check_cookie@4
	mov	eax, OFFSET __ehfuncinfo$??1C_Control@@UAE@XZ
	jmp	___CxxFrameHandler3
text$x	ENDS
??1C_Control@@UAE@XZ ENDP				; C_Control::~C_Control
; Function compile flags: /Odtp
;	COMDAT ??_GC_Base@@UAEPAXI@Z
_TEXT	SEGMENT
_this$ = -4						; size = 4
___flags$ = 8						; size = 4
??_GC_Base@@UAEPAXI@Z PROC				; C_Base::`scalar deleting destructor', COMDAT
; _this$ = ecx
	push	ebp
	mov	ebp, esp
	push	ecx
	mov	DWORD PTR _this$[ebp], ecx
	mov	ecx, DWORD PTR _this$[ebp]
	call	??1C_Base@@UAE@XZ			; C_Base::~C_Base
	mov	eax, DWORD PTR ___flags$[ebp]
	and	eax, 1
	je	SHORT $LN1@scalar
	mov	ecx, DWORD PTR _this$[ebp]
	push	ecx
	call	??3@YAXPAX@Z				; operator delete
	add	esp, 4
$LN1@scalar:
	mov	eax, DWORD PTR _this$[ebp]
	mov	esp, ebp
	pop	ebp
	ret	4
??_GC_Base@@UAEPAXI@Z ENDP				; C_Base::`scalar deleting destructor'
_TEXT	ENDS
; Function compile flags: /Odtp
; File c:\users\zhitao li\documents\visual studio 2012\projects\freefalcon\ui95\cbase.h
;	COMDAT ?SaveText@C_Base@@UAEXPAXPAVC_Parser@@@Z
_TEXT	SEGMENT
_this$ = -4						; size = 4
_ofp$ = 8						; size = 4
_Parser$ = 12						; size = 4
?SaveText@C_Base@@UAEXPAXPAVC_Parser@@@Z PROC		; C_Base::SaveText, COMDAT
; _this$ = ecx

; 193  : 		virtual void SaveText(HANDLE ofp,C_Parser *Parser) {};

	push	ebp
	mov	ebp, esp
	push	ecx
	mov	DWORD PTR _this$[ebp], ecx
	mov	esp, ebp
	pop	ebp
	ret	8
?SaveText@C_Base@@UAEXPAXPAVC_Parser@@@Z ENDP		; C_Base::SaveText
_TEXT	ENDS
; Function compile flags: /Odtp
; File c:\users\zhitao li\documents\visual studio 2012\projects\freefalcon\ui95\cbase.h
;	COMDAT ?LocalFunction@C_Base@@UAEXFQAJPADPAVC_Handler@@@Z
_TEXT	SEGMENT
_this$ = -4						; size = 4
_ID$ = 8						; size = 2
_P$ = 12						; size = 4
_str$ = 16						; size = 4
_Hndlr$ = 20						; size = 4
?LocalFunction@C_Base@@UAEXFQAJPADPAVC_Handler@@@Z PROC	; C_Base::LocalFunction, COMDAT
; _this$ = ecx

; 192  : 		virtual void LocalFunction(short ID,long P[],_TCHAR *str,C_Handler *Hndlr) {};

	push	ebp
	mov	ebp, esp
	push	ecx
	mov	DWORD PTR _this$[ebp], ecx
	mov	esp, ebp
	pop	ebp
	ret	16					; 00000010H
?LocalFunction@C_Base@@UAEXFQAJPADPAVC_Handler@@@Z ENDP	; C_Base::LocalFunction
_TEXT	ENDS
; Function compile flags: /Odtp
; File c:\users\zhitao li\documents\visual studio 2012\projects\freefalcon\ui95\cbase.h
;	COMDAT ?LocalFind@C_Base@@UAEFPAD@Z
_TEXT	SEGMENT
_this$ = -4						; size = 4
_str$ = 8						; size = 4
?LocalFind@C_Base@@UAEFPAD@Z PROC			; C_Base::LocalFind, COMDAT
; _this$ = ecx

; 191  : 		virtual short LocalFind(char *str) { return(-1); } // Search local token list

	push	ebp
	mov	ebp, esp
	push	ecx
	mov	DWORD PTR _this$[ebp], ecx
	or	eax, -1
	mov	esp, ebp
	pop	ebp
	ret	4
?LocalFind@C_Base@@UAEFPAD@Z ENDP			; C_Base::LocalFind
_TEXT	ENDS
; Function compile flags: /Odtp
; File c:\users\zhitao li\documents\visual studio 2012\projects\freefalcon\ui95\cbase.h
;	COMDAT ?Wheel@C_Base@@UAEHHGG@Z
_TEXT	SEGMENT
_this$ = -4						; size = 4
_increments$ = 8					; size = 4
_MouseX$ = 12						; size = 2
_MouseY$ = 16						; size = 2
?Wheel@C_Base@@UAEHHGG@Z PROC				; C_Base::Wheel, COMDAT
; _this$ = ecx

; 187  : 		virtual BOOL Wheel(int increments, WORD MouseX, WORD MouseY)            { return FALSE; }

	push	ebp
	mov	ebp, esp
	push	ecx
	mov	DWORD PTR _this$[ebp], ecx
	xor	eax, eax
	mov	esp, ebp
	pop	ebp
	ret	12					; 0000000cH
?Wheel@C_Base@@UAEHHGG@Z ENDP				; C_Base::Wheel
_TEXT	ENDS
; Function compile flags: /Odtp
; File c:\users\zhitao li\documents\visual studio 2012\projects\freefalcon\ui95\cbase.h
;	COMDAT ?Drop@C_Base@@UAEHPAUGRABBER@@GGPAVC_Window@@@Z
_TEXT	SEGMENT
_this$ = -4						; size = 4
_Drag$ = 8						; size = 4
_MouseX$ = 12						; size = 2
_MouseY$ = 16						; size = 2
_over$ = 20						; size = 4
?Drop@C_Base@@UAEHPAUGRABBER@@GGPAVC_Window@@@Z PROC	; C_Base::Drop, COMDAT
; _this$ = ecx

; 182  : 		virtual BOOL Drop(GRABBER *Drag,WORD MouseX,WORD MouseY,C_Window *over) { return(FALSE); }

	push	ebp
	mov	ebp, esp
	push	ecx
	mov	DWORD PTR _this$[ebp], ecx
	xor	eax, eax
	mov	esp, ebp
	pop	ebp
	ret	16					; 00000010H
?Drop@C_Base@@UAEHPAUGRABBER@@GGPAVC_Window@@@Z ENDP	; C_Base::Drop
_TEXT	ENDS
; Function compile flags: /Odtp
; File c:\users\zhitao li\documents\visual studio 2012\projects\freefalcon\ui95\cbase.h
;	COMDAT ?Drag@C_Base@@UAEHPAUGRABBER@@GGPAVC_Window@@@Z
_TEXT	SEGMENT
_this$ = -4						; size = 4
_Drag$ = 8						; size = 4
_MouseX$ = 12						; size = 2
_MouseY$ = 16						; size = 2
_over$ = 20						; size = 4
?Drag@C_Base@@UAEHPAUGRABBER@@GGPAVC_Window@@@Z PROC	; C_Base::Drag, COMDAT
; _this$ = ecx

; 181  : 		virtual BOOL Drag(GRABBER *Drag,WORD MouseX,WORD MouseY,C_Window *over) { return(FALSE); }

	push	ebp
	mov	ebp, esp
	push	ecx
	mov	DWORD PTR _this$[ebp], ecx
	xor	eax, eax
	mov	esp, ebp
	pop	ebp
	ret	16					; 00000010H
?Drag@C_Base@@UAEHPAUGRABBER@@GGPAVC_Window@@@Z ENDP	; C_Base::Drag
_TEXT	ENDS
; Function compile flags: /Odtp
; File c:\users\zhitao li\documents\visual studio 2012\projects\freefalcon\ui95\cbase.h
;	COMDAT ?GetItemXY@C_Base@@UAEXJPAJ0@Z
_TEXT	SEGMENT
_this$ = -4						; size = 4
_ID$ = 8						; size = 4
_x$ = 12						; size = 4
_y$ = 16						; size = 4
?GetItemXY@C_Base@@UAEXJPAJ0@Z PROC			; C_Base::GetItemXY, COMDAT
; _this$ = ecx

; 180  : 		virtual void GetItemXY(long ID,long *x,long *y)	{}

	push	ebp
	mov	ebp, esp
	push	ecx
	mov	DWORD PTR _this$[ebp], ecx
	mov	esp, ebp
	pop	ebp
	ret	12					; 0000000cH
?GetItemXY@C_Base@@UAEXJPAJ0@Z ENDP			; C_Base::GetItemXY
_TEXT	ENDS
; Function compile flags: /Odtp
; File c:\users\zhitao li\documents\visual studio 2012\projects\freefalcon\ui95\cbase.h
;	COMDAT ?Dragable@C_Base@@UAEHJ@Z
_TEXT	SEGMENT
_this$ = -4						; size = 4
_ID$ = 8						; size = 4
?Dragable@C_Base@@UAEHJ@Z PROC				; C_Base::Dragable, COMDAT
; _this$ = ecx

; 179  : 		virtual BOOL Dragable(long ID)					{ return(FALSE); }

	push	ebp
	mov	ebp, esp
	push	ecx
	mov	DWORD PTR _this$[ebp], ecx
	xor	eax, eax
	mov	esp, ebp
	pop	ebp
	ret	4
?Dragable@C_Base@@UAEHJ@Z ENDP				; C_Base::Dragable
_TEXT	ENDS
; Function compile flags: /Odtp
; File c:\users\zhitao li\documents\visual studio 2012\projects\freefalcon\ui95\cbase.h
;	COMDAT ?GetMe@C_Base@@UAEPAV1@XZ
_TEXT	SEGMENT
_this$ = -4						; size = 4
?GetMe@C_Base@@UAEPAV1@XZ PROC				; C_Base::GetMe, COMDAT
; _this$ = ecx

; 178  : 		virtual C_Base *GetMe()							{ return(this); }

	push	ebp
	mov	ebp, esp
	push	ecx
	mov	DWORD PTR _this$[ebp], ecx
	mov	eax, DWORD PTR _this$[ebp]
	mov	esp, ebp
	pop	ebp
	ret	0
?GetMe@C_Base@@UAEPAV1@XZ ENDP				; C_Base::GetMe
_TEXT	ENDS
; Function compile flags: /Odtp
; File c:\users\zhitao li\documents\visual studio 2012\projects\freefalcon\ui95\cbase.h
;	COMDAT ?MouseOver@C_Base@@UAEHJJPAV1@@Z
_TEXT	SEGMENT
_this$ = -4						; size = 4
_relX$ = 8						; size = 4
_relY$ = 12						; size = 4
_me$ = 16						; size = 4
?MouseOver@C_Base@@UAEHJJPAV1@@Z PROC			; C_Base::MouseOver, COMDAT
; _this$ = ecx

; 177  : 		virtual BOOL MouseOver(long relX,long relY,C_Base *me) { return(FALSE); }

	push	ebp
	mov	ebp, esp
	push	ecx
	mov	DWORD PTR _this$[ebp], ecx
	xor	eax, eax
	mov	esp, ebp
	pop	ebp
	ret	12					; 0000000cH
?MouseOver@C_Base@@UAEHJJPAV1@@Z ENDP			; C_Base::MouseOver
_TEXT	ENDS
; Function compile flags: /Odtp
; File c:\users\zhitao li\documents\visual studio 2012\projects\freefalcon\ui95\cbase.h
;	COMDAT ?CloseWindow@C_Base@@UAEHXZ
_TEXT	SEGMENT
_this$ = -4						; size = 4
?CloseWindow@C_Base@@UAEHXZ PROC			; C_Base::CloseWindow, COMDAT
; _this$ = ecx

; 176  : 		virtual BOOL CloseWindow()						{ return(FALSE); }

	push	ebp
	mov	ebp, esp
	push	ecx
	mov	DWORD PTR _this$[ebp], ecx
	xor	eax, eax
	mov	esp, ebp
	pop	ebp
	ret	0
?CloseWindow@C_Base@@UAEHXZ ENDP			; C_Base::CloseWindow
_TEXT	ENDS
; Function compile flags: /Odtp
; File c:\users\zhitao li\documents\visual studio 2012\projects\freefalcon\ui95\cbase.h
;	COMDAT ?Process@C_Base@@UAEHJF@Z
_TEXT	SEGMENT
_this$ = -4						; size = 4
_ID$ = 8						; size = 4
_HitType$ = 12						; size = 2
?Process@C_Base@@UAEHJF@Z PROC				; C_Base::Process, COMDAT
; _this$ = ecx

; 175  : 		virtual BOOL Process(long ID,short HitType)		{ return(FALSE); }

	push	ebp
	mov	ebp, esp
	push	ecx
	mov	DWORD PTR _this$[ebp], ecx
	xor	eax, eax
	mov	esp, ebp
	pop	ebp
	ret	8
?Process@C_Base@@UAEHJF@Z ENDP				; C_Base::Process
_TEXT	ENDS
; Function compile flags: /Odtp
; File c:\users\zhitao li\documents\visual studio 2012\projects\freefalcon\ui95\cbase.h
;	COMDAT ?CheckKeyboard@C_Base@@UAEHEEEJ@Z
_TEXT	SEGMENT
_this$ = -4						; size = 4
_DKScanCode$ = 8					; size = 1
_Ascii$ = 12						; size = 1
_ShiftStates$ = 16					; size = 1
_RepeatCount$ = 20					; size = 4
?CheckKeyboard@C_Base@@UAEHEEEJ@Z PROC			; C_Base::CheckKeyboard, COMDAT
; _this$ = ecx

; 174  : 		virtual BOOL CheckKeyboard(uchar DKScanCode,uchar Ascii,uchar ShiftStates,long RepeatCount) { return(FALSE); }

	push	ebp
	mov	ebp, esp
	push	ecx
	mov	DWORD PTR _this$[ebp], ecx
	xor	eax, eax
	mov	esp, ebp
	pop	ebp
	ret	16					; 00000010H
?CheckKeyboard@C_Base@@UAEHEEEJ@Z ENDP			; C_Base::CheckKeyboard
_TEXT	ENDS
; Function compile flags: /Odtp
; File c:\users\zhitao li\documents\visual studio 2012\projects\freefalcon\ui95\cbase.h
;	COMDAT ?CheckHotSpots@C_Base@@UAEJJJ@Z
_TEXT	SEGMENT
_this$ = -4						; size = 4
_relx$ = 8						; size = 4
_rely$ = 12						; size = 4
?CheckHotSpots@C_Base@@UAEJJJ@Z PROC			; C_Base::CheckHotSpots, COMDAT
; _this$ = ecx

; 173  : 		virtual long CheckHotSpots(long relx,long rely)	{ return(0); }

	push	ebp
	mov	ebp, esp
	push	ecx
	mov	DWORD PTR _this$[ebp], ecx
	xor	eax, eax
	mov	esp, ebp
	pop	ebp
	ret	8
?CheckHotSpots@C_Base@@UAEJJJ@Z ENDP			; C_Base::CheckHotSpots
_TEXT	ENDS
; Function compile flags: /Odtp
; File c:\users\zhitao li\documents\visual studio 2012\projects\freefalcon\ui95\cbase.h
;	COMDAT ?Deactivate@C_Base@@UAEXXZ
_TEXT	SEGMENT
_this$ = -4						; size = 4
?Deactivate@C_Base@@UAEXXZ PROC				; C_Base::Deactivate, COMDAT
; _this$ = ecx

; 172  : 		virtual void Deactivate()						{}

	push	ebp
	mov	ebp, esp
	push	ecx
	mov	DWORD PTR _this$[ebp], ecx
	mov	esp, ebp
	pop	ebp
	ret	0
?Deactivate@C_Base@@UAEXXZ ENDP				; C_Base::Deactivate
_TEXT	ENDS
; Function compile flags: /Odtp
; File c:\users\zhitao li\documents\visual studio 2012\projects\freefalcon\ui95\cbase.h
;	COMDAT ?Activate@C_Base@@UAEXXZ
_TEXT	SEGMENT
_this$ = -4						; size = 4
?Activate@C_Base@@UAEXXZ PROC				; C_Base::Activate, COMDAT
; _this$ = ecx

; 171  : 		virtual void Activate()							{}

	push	ebp
	mov	ebp, esp
	push	ecx
	mov	DWORD PTR _this$[ebp], ecx
	mov	esp, ebp
	pop	ebp
	ret	0
?Activate@C_Base@@UAEXXZ ENDP				; C_Base::Activate
_TEXT	ENDS
; Function compile flags: /Odtp
; File c:\users\zhitao li\documents\visual studio 2012\projects\freefalcon\ui95\cbase.h
;	COMDAT ?TimerUpdate@C_Base@@UAEHXZ
_TEXT	SEGMENT
_this$ = -4						; size = 4
?TimerUpdate@C_Base@@UAEHXZ PROC			; C_Base::TimerUpdate, COMDAT
; _this$ = ecx

; 170  : 		virtual BOOL TimerUpdate()						{ return(FALSE); }

	push	ebp
	mov	ebp, esp
	push	ecx
	mov	DWORD PTR _this$[ebp], ecx
	xor	eax, eax
	mov	esp, ebp
	pop	ebp
	ret	0
?TimerUpdate@C_Base@@UAEHXZ ENDP			; C_Base::TimerUpdate
_TEXT	ENDS
; Function compile flags: /Odtp
; File c:\users\zhitao li\documents\visual studio 2012\projects\freefalcon\ui95\cbase.h
;	COMDAT ?Cleanup@C_Base@@UAEXXZ
_TEXT	SEGMENT
_this$ = -4						; size = 4
?Cleanup@C_Base@@UAEXXZ PROC				; C_Base::Cleanup, COMDAT
; _this$ = ecx

; 169  : 		virtual void Cleanup()							{}

	push	ebp
	mov	ebp, esp
	push	ecx
	mov	DWORD PTR _this$[ebp], ecx
	mov	esp, ebp
	pop	ebp
	ret	0
?Cleanup@C_Base@@UAEXXZ ENDP				; C_Base::Cleanup
_TEXT	ENDS
; Function compile flags: /Odtp
; File c:\users\zhitao li\documents\visual studio 2012\projects\freefalcon\ui95\cbase.h
;	COMDAT ?SetSubParents@C_Base@@UAEXPAVC_Window@@@Z
_TEXT	SEGMENT
_this$ = -4						; size = 4
_Parent$ = 8						; size = 4
?SetSubParents@C_Base@@UAEXPAVC_Window@@@Z PROC		; C_Base::SetSubParents, COMDAT
; _this$ = ecx

; 168  : 		virtual void SetSubParents(C_Window *Parent)	{}

	push	ebp
	mov	ebp, esp
	push	ecx
	mov	DWORD PTR _this$[ebp], ecx
	mov	esp, ebp
	pop	ebp
	ret	4
?SetSubParents@C_Base@@UAEXPAVC_Window@@@Z ENDP		; C_Base::SetSubParents
_TEXT	ENDS
; Function compile flags: /Odtp
; File c:\users\zhitao li\documents\visual studio 2012\projects\freefalcon\ui95\cbase.h
;	COMDAT ?HighLite@C_Base@@UAEXPAVSCREEN@@PAUUI95_RECT@@@Z
_TEXT	SEGMENT
_this$ = -4						; size = 4
_surface$ = 8						; size = 4
_cliprect$ = 12						; size = 4
?HighLite@C_Base@@UAEXPAVSCREEN@@PAUUI95_RECT@@@Z PROC	; C_Base::HighLite, COMDAT
; _this$ = ecx

; 167  : 		virtual void HighLite(SCREEN *surface,UI95_RECT *cliprect)		{}

	push	ebp
	mov	ebp, esp
	push	ecx
	mov	DWORD PTR _this$[ebp], ecx
	mov	esp, ebp
	pop	ebp
	ret	8
?HighLite@C_Base@@UAEXPAVSCREEN@@PAUUI95_RECT@@@Z ENDP	; C_Base::HighLite
_TEXT	ENDS
; Function compile flags: /Odtp
; File c:\users\zhitao li\documents\visual studio 2012\projects\freefalcon\ui95\cbase.h
;	COMDAT ?Draw@C_Base@@UAEXPAVSCREEN@@PAUUI95_RECT@@@Z
_TEXT	SEGMENT
_this$ = -4						; size = 4
_surface$ = 8						; size = 4
_cliprect$ = 12						; size = 4
?Draw@C_Base@@UAEXPAVSCREEN@@PAUUI95_RECT@@@Z PROC	; C_Base::Draw, COMDAT
; _this$ = ecx

; 166  : 		virtual void Draw(SCREEN *surface,UI95_RECT *cliprect)			{}

	push	ebp
	mov	ebp, esp
	push	ecx
	mov	DWORD PTR _this$[ebp], ecx
	mov	esp, ebp
	pop	ebp
	ret	8
?Draw@C_Base@@UAEXPAVSCREEN@@PAUUI95_RECT@@@Z ENDP	; C_Base::Draw
_TEXT	ENDS
; Function compile flags: /Odtp
; File c:\users\zhitao li\documents\visual studio 2012\projects\freefalcon\ui95\cbase.h
;	COMDAT ?Refresh@C_Base@@UAEXXZ
_TEXT	SEGMENT
_this$ = -4						; size = 4
?Refresh@C_Base@@UAEXXZ PROC				; C_Base::Refresh, COMDAT
; _this$ = ecx

; 165  : 		virtual void Refresh()							{}

	push	ebp
	mov	ebp, esp
	push	ecx
	mov	DWORD PTR _this$[ebp], ecx
	mov	esp, ebp
	pop	ebp
	ret	0
?Refresh@C_Base@@UAEXXZ ENDP				; C_Base::Refresh
_TEXT	ENDS
; Function compile flags: /Odtp
; File c:\users\zhitao li\documents\visual studio 2012\projects\freefalcon\ui95\cbase.h
;	COMDAT ?IsControl@C_Base@@UAEHXZ
_TEXT	SEGMENT
_this$ = -4						; size = 4
?IsControl@C_Base@@UAEHXZ PROC				; C_Base::IsControl, COMDAT
; _this$ = ecx

; 164  : 		virtual BOOL IsControl()						{ return(FALSE); }

	push	ebp
	mov	ebp, esp
	push	ecx
	mov	DWORD PTR _this$[ebp], ecx
	xor	eax, eax
	mov	esp, ebp
	pop	ebp
	ret	0
?IsControl@C_Base@@UAEHXZ ENDP				; C_Base::IsControl
_TEXT	ENDS
; Function compile flags: /Odtp
; File c:\users\zhitao li\documents\visual studio 2012\projects\freefalcon\ui95\cbase.h
;	COMDAT ?IsBase@C_Base@@UAEHXZ
_TEXT	SEGMENT
_this$ = -4						; size = 4
?IsBase@C_Base@@UAEHXZ PROC				; C_Base::IsBase, COMDAT
; _this$ = ecx

; 163  : 		virtual BOOL IsBase()							{ return(TRUE); }

	push	ebp
	mov	ebp, esp
	push	ecx
	mov	DWORD PTR _this$[ebp], ecx
	mov	eax, 1
	mov	esp, ebp
	pop	ebp
	ret	0
?IsBase@C_Base@@UAEHXZ ENDP				; C_Base::IsBase
_TEXT	ENDS
; Function compile flags: /Odtp
; File c:\users\zhitao li\documents\visual studio 2012\projects\freefalcon\ui95\cbase.h
;	COMDAT ?GetCallback@C_Base@@UAEP6AXJFPAV1@@ZXZ
_TEXT	SEGMENT
_this$ = -4						; size = 4
?GetCallback@C_Base@@UAEP6AXJFPAV1@@ZXZ PROC		; C_Base::GetCallback, COMDAT
; _this$ = ecx

; 160  : 		virtual void (*GetCallback())(long,short,C_Base*) { return(NULL); }

	push	ebp
	mov	ebp, esp
	push	ecx
	mov	DWORD PTR _this$[ebp], ecx
	xor	eax, eax
	mov	esp, ebp
	pop	ebp
	ret	0
?GetCallback@C_Base@@UAEP6AXJFPAV1@@ZXZ ENDP		; C_Base::GetCallback
_TEXT	ENDS
; Function compile flags: /Odtp
; File c:\users\zhitao li\documents\visual studio 2012\projects\freefalcon\ui95\cbase.h
;	COMDAT ?GetDragCursorID@C_Base@@UAEJXZ
_TEXT	SEGMENT
_this$ = -4						; size = 4
?GetDragCursorID@C_Base@@UAEJXZ PROC			; C_Base::GetDragCursorID, COMDAT
; _this$ = ecx

; 159  : 		virtual long  GetDragCursorID()	{ return(0); }

	push	ebp
	mov	ebp, esp
	push	ecx
	mov	DWORD PTR _this$[ebp], ecx
	xor	eax, eax
	mov	esp, ebp
	pop	ebp
	ret	0
?GetDragCursorID@C_Base@@UAEJXZ ENDP			; C_Base::GetDragCursorID
_TEXT	ENDS
; Function compile flags: /Odtp
; File c:\users\zhitao li\documents\visual studio 2012\projects\freefalcon\ui95\cbase.h
;	COMDAT ?GetCursorID@C_Base@@UAEJXZ
_TEXT	SEGMENT
_this$ = -4						; size = 4
?GetCursorID@C_Base@@UAEJXZ PROC			; C_Base::GetCursorID, COMDAT
; _this$ = ecx

; 158  : 		virtual long  GetCursorID()	{ return(0); }

	push	ebp
	mov	ebp, esp
	push	ecx
	mov	DWORD PTR _this$[ebp], ecx
	xor	eax, eax
	mov	esp, ebp
	pop	ebp
	ret	0
?GetCursorID@C_Base@@UAEJXZ ENDP			; C_Base::GetCursorID
_TEXT	ENDS
; Function compile flags: /Odtp
; File c:\users\zhitao li\documents\visual studio 2012\projects\freefalcon\ui95\cbase.h
;	COMDAT ?GetMouseOver@C_Base@@UAEFXZ
_TEXT	SEGMENT
_this$ = -4						; size = 4
?GetMouseOver@C_Base@@UAEFXZ PROC			; C_Base::GetMouseOver, COMDAT
; _this$ = ecx

; 157  : 		virtual short GetMouseOver() { return(0); }

	push	ebp
	mov	ebp, esp
	push	ecx
	mov	DWORD PTR _this$[ebp], ecx
	xor	eax, eax
	mov	esp, ebp
	pop	ebp
	ret	0
?GetMouseOver@C_Base@@UAEFXZ ENDP			; C_Base::GetMouseOver
_TEXT	ENDS
; Function compile flags: /Odtp
; File c:\users\zhitao li\documents\visual studio 2012\projects\freefalcon\ui95\cbase.h
;	COMDAT ?GetSound@C_Base@@UAEPAVSOUND_RES@@F@Z
_TEXT	SEGMENT
_this$ = -4						; size = 4
_Type$ = 8						; size = 2
?GetSound@C_Base@@UAEPAVSOUND_RES@@F@Z PROC		; C_Base::GetSound, COMDAT
; _this$ = ecx

; 156  : 		virtual SOUND_RES *GetSound(short Type) { return(NULL); }

	push	ebp
	mov	ebp, esp
	push	ecx
	mov	DWORD PTR _this$[ebp], ecx
	xor	eax, eax
	mov	esp, ebp
	pop	ebp
	ret	4
?GetSound@C_Base@@UAEPAVSOUND_RES@@F@Z ENDP		; C_Base::GetSound
_TEXT	ENDS
; Function compile flags: /Odtp
; File c:\users\zhitao li\documents\visual studio 2012\projects\freefalcon\ui95\cbase.h
;	COMDAT ?GetHelpText@C_Base@@UAEJXZ
_TEXT	SEGMENT
_this$ = -4						; size = 4
?GetHelpText@C_Base@@UAEJXZ PROC			; C_Base::GetHelpText, COMDAT
; _this$ = ecx

; 155  : 		virtual long  GetHelpText()	{ return(0); }

	push	ebp
	mov	ebp, esp
	push	ecx
	mov	DWORD PTR _this$[ebp], ecx
	xor	eax, eax
	mov	esp, ebp
	pop	ebp
	ret	0
?GetHelpText@C_Base@@UAEJXZ ENDP			; C_Base::GetHelpText
_TEXT	ENDS
; Function compile flags: /Odtp
; File c:\users\zhitao li\documents\visual studio 2012\projects\freefalcon\ui95\cbase.h
;	COMDAT ?GetFont@C_Base@@UAEJXZ
_TEXT	SEGMENT
_this$ = -4						; size = 4
?GetFont@C_Base@@UAEJXZ PROC				; C_Base::GetFont, COMDAT
; _this$ = ecx

; 154  : 		virtual long  GetFont()		{ return(0); }

	push	ebp
	mov	ebp, esp
	push	ecx
	mov	DWORD PTR _this$[ebp], ecx
	xor	eax, eax
	mov	esp, ebp
	pop	ebp
	ret	0
?GetFont@C_Base@@UAEJXZ ENDP				; C_Base::GetFont
_TEXT	ENDS
; Function compile flags: /Odtp
; File c:\users\zhitao li\documents\visual studio 2012\projects\freefalcon\ui95\cbase.h
;	COMDAT ?GetMenu@C_Base@@UAEJXZ
_TEXT	SEGMENT
_this$ = -4						; size = 4
?GetMenu@C_Base@@UAEJXZ PROC				; C_Base::GetMenu, COMDAT
; _this$ = ecx

; 153  : 		virtual long  GetMenu()		{ return(0); }

	push	ebp
	mov	ebp, esp
	push	ecx
	mov	DWORD PTR _this$[ebp], ecx
	xor	eax, eax
	mov	esp, ebp
	pop	ebp
	ret	0
?GetMenu@C_Base@@UAEJXZ ENDP				; C_Base::GetMenu
_TEXT	ENDS
; Function compile flags: /Odtp
; File c:\users\zhitao li\documents\visual studio 2012\projects\freefalcon\ui95\cbase.h
;	COMDAT ?GetHotKey@C_Base@@UAEFXZ
_TEXT	SEGMENT
_this$ = -4						; size = 4
?GetHotKey@C_Base@@UAEFXZ PROC				; C_Base::GetHotKey, COMDAT
; _this$ = ecx

; 152  : 		virtual short GetHotKey()	{ return(0); }

	push	ebp
	mov	ebp, esp
	push	ecx
	mov	DWORD PTR _this$[ebp], ecx
	xor	eax, eax
	mov	esp, ebp
	pop	ebp
	ret	0
?GetHotKey@C_Base@@UAEFXZ ENDP				; C_Base::GetHotKey
_TEXT	ENDS
; Function compile flags: /Odtp
; File c:\users\zhitao li\documents\visual studio 2012\projects\freefalcon\ui95\cbase.h
;	COMDAT ?GetState@C_Base@@UAEFXZ
_TEXT	SEGMENT
_this$ = -4						; size = 4
?GetState@C_Base@@UAEFXZ PROC				; C_Base::GetState, COMDAT
; _this$ = ecx

; 151  : 		virtual short GetState()	{ return(0); }

	push	ebp
	mov	ebp, esp
	push	ecx
	mov	DWORD PTR _this$[ebp], ecx
	xor	eax, eax
	mov	esp, ebp
	pop	ebp
	ret	0
?GetState@C_Base@@UAEFXZ ENDP				; C_Base::GetState
_TEXT	ENDS
; Function compile flags: /Odtp
; File c:\users\zhitao li\documents\visual studio 2012\projects\freefalcon\ui95\cbase.h
;	COMDAT ?Ready@C_Base@@QAEFXZ
_TEXT	SEGMENT
_this$ = -4						; size = 4
?Ready@C_Base@@QAEFXZ PROC				; C_Base::Ready, COMDAT
; _this$ = ecx

; 150  : 		short  Ready()				{ return(Ready_); }

	push	ebp
	mov	ebp, esp
	push	ecx
	mov	DWORD PTR _this$[ebp], ecx
	mov	eax, DWORD PTR _this$[ebp]
	mov	ax, WORD PTR [eax+42]
	mov	esp, ebp
	pop	ebp
	ret	0
?Ready@C_Base@@QAEFXZ ENDP				; C_Base::Ready
_TEXT	ENDS
; Function compile flags: /Odtp
; File c:\users\zhitao li\documents\visual studio 2012\projects\freefalcon\ui95\cbase.h
;	COMDAT ?GetRelY@C_Base@@UAEJXZ
_TEXT	SEGMENT
_this$ = -4						; size = 4
?GetRelY@C_Base@@UAEJXZ PROC				; C_Base::GetRelY, COMDAT
; _this$ = ecx

; 148  : 		virtual long GetRelY()		{ return(0); }

	push	ebp
	mov	ebp, esp
	push	ecx
	mov	DWORD PTR _this$[ebp], ecx
	xor	eax, eax
	mov	esp, ebp
	pop	ebp
	ret	0
?GetRelY@C_Base@@UAEJXZ ENDP				; C_Base::GetRelY
_TEXT	ENDS
; Function compile flags: /Odtp
; File c:\users\zhitao li\documents\visual studio 2012\projects\freefalcon\ui95\cbase.h
;	COMDAT ?GetRelX@C_Base@@UAEJXZ
_TEXT	SEGMENT
_this$ = -4						; size = 4
?GetRelX@C_Base@@UAEJXZ PROC				; C_Base::GetRelX, COMDAT
; _this$ = ecx

; 147  : 		virtual long GetRelX()		{ return(0); }

	push	ebp
	mov	ebp, esp
	push	ecx
	mov	DWORD PTR _this$[ebp], ecx
	xor	eax, eax
	mov	esp, ebp
	pop	ebp
	ret	0
?GetRelX@C_Base@@UAEJXZ ENDP				; C_Base::GetRelX
_TEXT	ENDS
; Function compile flags: /Odtp
; File c:\users\zhitao li\documents\visual studio 2012\projects\freefalcon\ui95\cbase.h
;	COMDAT ?GetY@C_Base@@QAEJXZ
_TEXT	SEGMENT
_this$ = -4						; size = 4
?GetY@C_Base@@QAEJXZ PROC				; C_Base::GetY, COMDAT
; _this$ = ecx

; 142  : 		long GetY()					{ return(y_); }

	push	ebp
	mov	ebp, esp
	push	ecx
	mov	DWORD PTR _this$[ebp], ecx
	mov	eax, DWORD PTR _this$[ebp]
	mov	eax, DWORD PTR [eax+28]
	mov	esp, ebp
	pop	ebp
	ret	0
?GetY@C_Base@@QAEJXZ ENDP				; C_Base::GetY
_TEXT	ENDS
; Function compile flags: /Odtp
; File c:\users\zhitao li\documents\visual studio 2012\projects\freefalcon\ui95\cbase.h
;	COMDAT ?GetX@C_Base@@QAEJXZ
_TEXT	SEGMENT
_this$ = -4						; size = 4
?GetX@C_Base@@QAEJXZ PROC				; C_Base::GetX, COMDAT
; _this$ = ecx

; 141  : 		long GetX()					{ return(x_); }

	push	ebp
	mov	ebp, esp
	push	ecx
	mov	DWORD PTR _this$[ebp], ecx
	mov	eax, DWORD PTR _this$[ebp]
	mov	eax, DWORD PTR [eax+24]
	mov	esp, ebp
	pop	ebp
	ret	0
?GetX@C_Base@@QAEJXZ ENDP				; C_Base::GetX
_TEXT	ENDS
; Function compile flags: /Odtp
; File c:\users\zhitao li\documents\visual studio 2012\projects\freefalcon\ui95\cbase.h
;	COMDAT ?GetClient@C_Base@@QAEFXZ
_TEXT	SEGMENT
_this$ = -4						; size = 4
?GetClient@C_Base@@QAEFXZ PROC				; C_Base::GetClient, COMDAT
; _this$ = ecx

; 140  : 		short GetClient()			{ return(Client_); }

	push	ebp
	mov	ebp, esp
	push	ecx
	mov	DWORD PTR _this$[ebp], ecx
	mov	eax, DWORD PTR _this$[ebp]
	mov	ax, WORD PTR [eax+40]
	mov	esp, ebp
	pop	ebp
	ret	0
?GetClient@C_Base@@QAEFXZ ENDP				; C_Base::GetClient
_TEXT	ENDS
; Function compile flags: /Odtp
; File c:\users\zhitao li\documents\visual studio 2012\projects\freefalcon\ui95\cbase.h
;	COMDAT ?GetFlags@C_Base@@QAEJXZ
_TEXT	SEGMENT
_this$ = -4						; size = 4
?GetFlags@C_Base@@QAEJXZ PROC				; C_Base::GetFlags, COMDAT
; _this$ = ecx

; 139  : 		long  GetFlags()			{ return(Flags_); }

	push	ebp
	mov	ebp, esp
	push	ecx
	mov	DWORD PTR _this$[ebp], ecx
	mov	eax, DWORD PTR _this$[ebp]
	mov	eax, DWORD PTR [eax+16]
	mov	esp, ebp
	pop	ebp
	ret	0
?GetFlags@C_Base@@QAEJXZ ENDP				; C_Base::GetFlags
_TEXT	ENDS
; Function compile flags: /Odtp
; File c:\users\zhitao li\documents\visual studio 2012\projects\freefalcon\ui95\cbase.h
;	COMDAT ?GetID@C_Base@@QAEJXZ
_TEXT	SEGMENT
_this$ = -4						; size = 4
?GetID@C_Base@@QAEJXZ PROC				; C_Base::GetID, COMDAT
; _this$ = ecx

; 134  : 		long  GetID()				{ return(ID_); }

	push	ebp
	mov	ebp, esp
	push	ecx
	mov	DWORD PTR _this$[ebp], ecx
	mov	eax, DWORD PTR _this$[ebp]
	mov	eax, DWORD PTR [eax+4]
	mov	esp, ebp
	pop	ebp
	ret	0
?GetID@C_Base@@QAEJXZ ENDP				; C_Base::GetID
_TEXT	ENDS
; Function compile flags: /Odtp
; File c:\users\zhitao li\documents\visual studio 2012\projects\freefalcon\ui95\cbase.h
;	COMDAT ?SetCallback@C_Base@@UAEXP6AXJFPAV1@@Z@Z
_TEXT	SEGMENT
_this$ = -4						; size = 4
_cb$ = 8						; size = 4
?SetCallback@C_Base@@UAEXP6AXJFPAV1@@Z@Z PROC		; C_Base::SetCallback, COMDAT
; _this$ = ecx

; 131  : 		virtual void SetCallback(void (*cb)(long,short,C_Base*)){}

	push	ebp
	mov	ebp, esp
	push	ecx
	mov	DWORD PTR _this$[ebp], ecx
	mov	esp, ebp
	pop	ebp
	ret	4
?SetCallback@C_Base@@UAEXP6AXJFPAV1@@Z@Z ENDP		; C_Base::SetCallback
_TEXT	ENDS
; Function compile flags: /Odtp
; File c:\users\zhitao li\documents\visual studio 2012\projects\freefalcon\ui95\cbase.h
;	COMDAT ?SetMouseOverPerc@C_Base@@UAEXF@Z
_TEXT	SEGMENT
_this$ = -4						; size = 4
_perc$ = 8						; size = 2
?SetMouseOverPerc@C_Base@@UAEXF@Z PROC			; C_Base::SetMouseOverPerc, COMDAT
; _this$ = ecx

; 130  : 		virtual void SetMouseOverPerc(short perc)				{}

	push	ebp
	mov	ebp, esp
	push	ecx
	mov	DWORD PTR _this$[ebp], ecx
	mov	esp, ebp
	pop	ebp
	ret	4
?SetMouseOverPerc@C_Base@@UAEXF@Z ENDP			; C_Base::SetMouseOverPerc
_TEXT	ENDS
; Function compile flags: /Odtp
; File c:\users\zhitao li\documents\visual studio 2012\projects\freefalcon\ui95\cbase.h
;	COMDAT ?SetMouseOverColor@C_Base@@UAEXK@Z
_TEXT	SEGMENT
_this$ = -4						; size = 4
_color$ = 8						; size = 4
?SetMouseOverColor@C_Base@@UAEXK@Z PROC			; C_Base::SetMouseOverColor, COMDAT
; _this$ = ecx

; 129  : 		virtual void SetMouseOverColor(COLORREF color)			{}

	push	ebp
	mov	ebp, esp
	push	ecx
	mov	DWORD PTR _this$[ebp], ecx
	mov	esp, ebp
	pop	ebp
	ret	4
?SetMouseOverColor@C_Base@@UAEXK@Z ENDP			; C_Base::SetMouseOverColor
_TEXT	ENDS
; Function compile flags: /Odtp
; File c:\users\zhitao li\documents\visual studio 2012\projects\freefalcon\ui95\cbase.h
;	COMDAT ?SetMouseOver@C_Base@@UAEXF@Z
_TEXT	SEGMENT
_this$ = -4						; size = 4
_state$ = 8						; size = 2
?SetMouseOver@C_Base@@UAEXF@Z PROC			; C_Base::SetMouseOver, COMDAT
; _this$ = ecx

; 128  : 		virtual void SetMouseOver(short state)					{}

	push	ebp
	mov	ebp, esp
	push	ecx
	mov	DWORD PTR _this$[ebp], ecx
	mov	esp, ebp
	pop	ebp
	ret	4
?SetMouseOver@C_Base@@UAEXF@Z ENDP			; C_Base::SetMouseOver
_TEXT	ENDS
; Function compile flags: /Odtp
; File c:\users\zhitao li\documents\visual studio 2012\projects\freefalcon\ui95\cbase.h
;	COMDAT ?SetHelpText@C_Base@@UAEXJ@Z
_TEXT	SEGMENT
_this$ = -4						; size = 4
_id$ = 8						; size = 4
?SetHelpText@C_Base@@UAEXJ@Z PROC			; C_Base::SetHelpText, COMDAT
; _this$ = ecx

; 127  : 		virtual void SetHelpText(long id)						{}

	push	ebp
	mov	ebp, esp
	push	ecx
	mov	DWORD PTR _this$[ebp], ecx
	mov	esp, ebp
	pop	ebp
	ret	4
?SetHelpText@C_Base@@UAEXJ@Z ENDP			; C_Base::SetHelpText
_TEXT	ENDS
; Function compile flags: /Odtp
; File c:\users\zhitao li\documents\visual studio 2012\projects\freefalcon\ui95\cbase.h
;	COMDAT ?SetDragCursorID@C_Base@@UAEXJ@Z
_TEXT	SEGMENT
_this$ = -4						; size = 4
_id$ = 8						; size = 4
?SetDragCursorID@C_Base@@UAEXJ@Z PROC			; C_Base::SetDragCursorID, COMDAT
; _this$ = ecx

; 126  : 		virtual void SetDragCursorID(long id)					{}

	push	ebp
	mov	ebp, esp
	push	ecx
	mov	DWORD PTR _this$[ebp], ecx
	mov	esp, ebp
	pop	ebp
	ret	4
?SetDragCursorID@C_Base@@UAEXJ@Z ENDP			; C_Base::SetDragCursorID
_TEXT	ENDS
; Function compile flags: /Odtp
; File c:\users\zhitao li\documents\visual studio 2012\projects\freefalcon\ui95\cbase.h
;	COMDAT ?SetCursorID@C_Base@@UAEXJ@Z
_TEXT	SEGMENT
_this$ = -4						; size = 4
_id$ = 8						; size = 4
?SetCursorID@C_Base@@UAEXJ@Z PROC			; C_Base::SetCursorID, COMDAT
; _this$ = ecx

; 125  : 		virtual void SetCursorID(long id)						{}

	push	ebp
	mov	ebp, esp
	push	ecx
	mov	DWORD PTR _this$[ebp], ecx
	mov	esp, ebp
	pop	ebp
	ret	4
?SetCursorID@C_Base@@UAEXJ@Z ENDP			; C_Base::SetCursorID
_TEXT	ENDS
; Function compile flags: /Odtp
; File c:\users\zhitao li\documents\visual studio 2012\projects\freefalcon\ui95\cbase.h
;	COMDAT ?SetSound@C_Base@@UAEXJF@Z
_TEXT	SEGMENT
_this$ = -4						; size = 4
_ID$ = 8						; size = 4
_type$ = 12						; size = 2
?SetSound@C_Base@@UAEXJF@Z PROC				; C_Base::SetSound, COMDAT
; _this$ = ecx

; 124  : 		virtual void SetSound(long ID,short type)				{}

	push	ebp
	mov	ebp, esp
	push	ecx
	mov	DWORD PTR _this$[ebp], ecx
	mov	esp, ebp
	pop	ebp
	ret	8
?SetSound@C_Base@@UAEXJF@Z ENDP				; C_Base::SetSound
_TEXT	ENDS
; Function compile flags: /Odtp
; File c:\users\zhitao li\documents\visual studio 2012\projects\freefalcon\ui95\cbase.h
;	COMDAT ?SetFont@C_Base@@UAEXJ@Z
_TEXT	SEGMENT
_this$ = -4						; size = 4
_ID$ = 8						; size = 4
?SetFont@C_Base@@UAEXJ@Z PROC				; C_Base::SetFont, COMDAT
; _this$ = ecx

; 123  : 		virtual void SetFont(long ID)							{}

	push	ebp
	mov	ebp, esp
	push	ecx
	mov	DWORD PTR _this$[ebp], ecx
	mov	esp, ebp
	pop	ebp
	ret	4
?SetFont@C_Base@@UAEXJ@Z ENDP				; C_Base::SetFont
_TEXT	ENDS
; Function compile flags: /Odtp
; File c:\users\zhitao li\documents\visual studio 2012\projects\freefalcon\ui95\cbase.h
;	COMDAT ?SetMenu@C_Base@@UAEXJ@Z
_TEXT	SEGMENT
_this$ = -4						; size = 4
_ID$ = 8						; size = 4
?SetMenu@C_Base@@UAEXJ@Z PROC				; C_Base::SetMenu, COMDAT
; _this$ = ecx

; 122  : 		virtual void SetMenu(long ID)							{}

	push	ebp
	mov	ebp, esp
	push	ecx
	mov	DWORD PTR _this$[ebp], ecx
	mov	esp, ebp
	pop	ebp
	ret	4
?SetMenu@C_Base@@UAEXJ@Z ENDP				; C_Base::SetMenu
_TEXT	ENDS
; Function compile flags: /Odtp
; File c:\users\zhitao li\documents\visual studio 2012\projects\freefalcon\ui95\cbase.h
;	COMDAT ?SetHotKey@C_Base@@UAEXF@Z
_TEXT	SEGMENT
_this$ = -4						; size = 4
_key$ = 8						; size = 2
?SetHotKey@C_Base@@UAEXF@Z PROC				; C_Base::SetHotKey, COMDAT
; _this$ = ecx

; 121  : 		virtual void SetHotKey(short key)						{}

	push	ebp
	mov	ebp, esp
	push	ecx
	mov	DWORD PTR _this$[ebp], ecx
	mov	esp, ebp
	pop	ebp
	ret	4
?SetHotKey@C_Base@@UAEXF@Z ENDP				; C_Base::SetHotKey
_TEXT	ENDS
; Function compile flags: /Odtp
; File c:\users\zhitao li\documents\visual studio 2012\projects\freefalcon\ui95\cbase.h
;	COMDAT ?SetState@C_Base@@UAEXF@Z
_TEXT	SEGMENT
_this$ = -4						; size = 4
_state$ = 8						; size = 2
?SetState@C_Base@@UAEXF@Z PROC				; C_Base::SetState, COMDAT
; _this$ = ecx

; 120  : 		virtual void SetState(short state)						{}

	push	ebp
	mov	ebp, esp
	push	ecx
	mov	DWORD PTR _this$[ebp], ecx
	mov	esp, ebp
	pop	ebp
	ret	4
?SetState@C_Base@@UAEXF@Z ENDP				; C_Base::SetState
_TEXT	ENDS
; Function compile flags: /Odtp
; File c:\users\zhitao li\documents\visual studio 2012\projects\freefalcon\ui95\cbase.h
;	COMDAT ?SetReady@C_Base@@QAEXF@Z
_TEXT	SEGMENT
_this$ = -4						; size = 4
_r$ = 8							; size = 2
?SetReady@C_Base@@QAEXF@Z PROC				; C_Base::SetReady, COMDAT
; _this$ = ecx

; 116  : 		void SetReady(short r)									{ Ready_=r; }

	push	ebp
	mov	ebp, esp
	push	ecx
	mov	DWORD PTR _this$[ebp], ecx
	mov	eax, DWORD PTR _this$[ebp]
	mov	cx, WORD PTR _r$[ebp]
	mov	WORD PTR [eax+42], cx
	mov	esp, ebp
	pop	ebp
	ret	4
?SetReady@C_Base@@QAEXF@Z ENDP				; C_Base::SetReady
_TEXT	ENDS
; Function compile flags: /Odtp
; File c:\users\zhitao li\documents\visual studio 2012\projects\freefalcon\ui95\cbase.h
;	COMDAT ?SetParent@C_Base@@QAEXPAVC_Window@@@Z
_TEXT	SEGMENT
_this$ = -4						; size = 4
_win$ = 8						; size = 4
?SetParent@C_Base@@QAEXPAVC_Window@@@Z PROC		; C_Base::SetParent, COMDAT
; _this$ = ecx

; 115  : 		void SetParent(C_Window *win)							{ Parent_=win; }

	push	ebp
	mov	ebp, esp
	push	ecx
	mov	DWORD PTR _this$[ebp], ecx
	mov	eax, DWORD PTR _this$[ebp]
	mov	ecx, DWORD PTR _win$[ebp]
	mov	DWORD PTR [eax+48], ecx
	mov	esp, ebp
	pop	ebp
	ret	4
?SetParent@C_Base@@QAEXPAVC_Window@@@Z ENDP		; C_Base::SetParent
_TEXT	ENDS
; Function compile flags: /Odtp
; File c:\users\zhitao li\documents\visual studio 2012\projects\freefalcon\ui95\cbase.h
;	COMDAT ?SetRelXY@C_Base@@UAEXJJ@Z
_TEXT	SEGMENT
_this$ = -4						; size = 4
_x$ = 8							; size = 4
_y$ = 12						; size = 4
?SetRelXY@C_Base@@UAEXJJ@Z PROC				; C_Base::SetRelXY, COMDAT
; _this$ = ecx

; 112  : 		virtual void SetRelXY(long x,long y)					{}

	push	ebp
	mov	ebp, esp
	push	ecx
	mov	DWORD PTR _this$[ebp], ecx
	mov	esp, ebp
	pop	ebp
	ret	8
?SetRelXY@C_Base@@UAEXJJ@Z ENDP				; C_Base::SetRelXY
_TEXT	ENDS
; Function compile flags: /Odtp
; File c:\users\zhitao li\documents\visual studio 2012\projects\freefalcon\ui95\cbase.h
;	COMDAT ?SetRelY@C_Base@@UAEXJ@Z
_TEXT	SEGMENT
_this$ = -4						; size = 4
_y$ = 8							; size = 4
?SetRelY@C_Base@@UAEXJ@Z PROC				; C_Base::SetRelY, COMDAT
; _this$ = ecx

; 111  : 		virtual void SetRelY(long y)							{}

	push	ebp
	mov	ebp, esp
	push	ecx
	mov	DWORD PTR _this$[ebp], ecx
	mov	esp, ebp
	pop	ebp
	ret	4
?SetRelY@C_Base@@UAEXJ@Z ENDP				; C_Base::SetRelY
_TEXT	ENDS
; Function compile flags: /Odtp
; File c:\users\zhitao li\documents\visual studio 2012\projects\freefalcon\ui95\cbase.h
;	COMDAT ?SetRelX@C_Base@@UAEXJ@Z
_TEXT	SEGMENT
_this$ = -4						; size = 4
_x$ = 8							; size = 4
?SetRelX@C_Base@@UAEXJ@Z PROC				; C_Base::SetRelX, COMDAT
; _this$ = ecx

; 110  : 		virtual void SetRelX(long x)							{}

	push	ebp
	mov	ebp, esp
	push	ecx
	mov	DWORD PTR _this$[ebp], ecx
	mov	esp, ebp
	pop	ebp
	ret	4
?SetRelX@C_Base@@UAEXJ@Z ENDP				; C_Base::SetRelX
_TEXT	ENDS
; Function compile flags: /Odtp
; File c:\users\zhitao li\documents\visual studio 2012\projects\freefalcon\ui95\cbase.h
;	COMDAT ?SetXYWH@C_Base@@UAEXJJJJ@Z
_TEXT	SEGMENT
_this$ = -4						; size = 4
_x$ = 8							; size = 4
_y$ = 12						; size = 4
_w$ = 16						; size = 4
_h$ = 20						; size = 4
?SetXYWH@C_Base@@UAEXJJJJ@Z PROC			; C_Base::SetXYWH, COMDAT
; _this$ = ecx

; 109  : 		virtual void SetXYWH(long x,long y,long w,long h)		{ x_=x; y_=y; w_=w; h_=h; }

	push	ebp
	mov	ebp, esp
	push	ecx
	mov	DWORD PTR _this$[ebp], ecx
	mov	eax, DWORD PTR _this$[ebp]
	mov	ecx, DWORD PTR _x$[ebp]
	mov	DWORD PTR [eax+24], ecx
	mov	edx, DWORD PTR _this$[ebp]
	mov	eax, DWORD PTR _y$[ebp]
	mov	DWORD PTR [edx+28], eax
	mov	ecx, DWORD PTR _this$[ebp]
	mov	edx, DWORD PTR _w$[ebp]
	mov	DWORD PTR [ecx+32], edx
	mov	eax, DWORD PTR _this$[ebp]
	mov	ecx, DWORD PTR _h$[ebp]
	mov	DWORD PTR [eax+36], ecx
	mov	esp, ebp
	pop	ebp
	ret	16					; 00000010H
?SetXYWH@C_Base@@UAEXJJJJ@Z ENDP			; C_Base::SetXYWH
_TEXT	ENDS
; Function compile flags: /Odtp
; File c:\users\zhitao li\documents\visual studio 2012\projects\freefalcon\ui95\cbase.h
;	COMDAT ?SetWH@C_Base@@UAEXJJ@Z
_TEXT	SEGMENT
_this$ = -4						; size = 4
_w$ = 8							; size = 4
_h$ = 12						; size = 4
?SetWH@C_Base@@UAEXJJ@Z PROC				; C_Base::SetWH, COMDAT
; _this$ = ecx

; 108  : 		virtual void SetWH(long w,long h)						{ w_=w; h_=h; }

	push	ebp
	mov	ebp, esp
	push	ecx
	mov	DWORD PTR _this$[ebp], ecx
	mov	eax, DWORD PTR _this$[ebp]
	mov	ecx, DWORD PTR _w$[ebp]
	mov	DWORD PTR [eax+32], ecx
	mov	edx, DWORD PTR _this$[ebp]
	mov	eax, DWORD PTR _h$[ebp]
	mov	DWORD PTR [edx+36], eax
	mov	esp, ebp
	pop	ebp
	ret	8
?SetWH@C_Base@@UAEXJJ@Z ENDP				; C_Base::SetWH
_TEXT	ENDS
; Function compile flags: /Odtp
; File c:\users\zhitao li\documents\visual studio 2012\projects\freefalcon\ui95\cbase.h
;	COMDAT ?SetXY@C_Base@@UAEXJJ@Z
_TEXT	SEGMENT
_this$ = -4						; size = 4
_x$ = 8							; size = 4
_y$ = 12						; size = 4
?SetXY@C_Base@@UAEXJJ@Z PROC				; C_Base::SetXY, COMDAT
; _this$ = ecx

; 107  : 		virtual void SetXY(long x,long y)						{ x_=x; y_=y; }

	push	ebp
	mov	ebp, esp
	push	ecx
	mov	DWORD PTR _this$[ebp], ecx
	mov	eax, DWORD PTR _this$[ebp]
	mov	ecx, DWORD PTR _x$[ebp]
	mov	DWORD PTR [eax+24], ecx
	mov	edx, DWORD PTR _this$[ebp]
	mov	eax, DWORD PTR _y$[ebp]
	mov	DWORD PTR [edx+28], eax
	mov	esp, ebp
	pop	ebp
	ret	8
?SetXY@C_Base@@UAEXJJ@Z ENDP				; C_Base::SetXY
_TEXT	ENDS
; Function compile flags: /Odtp
; File c:\users\zhitao li\documents\visual studio 2012\projects\freefalcon\ui95\cbase.h
;	COMDAT ?SetH@C_Base@@UAEXJ@Z
_TEXT	SEGMENT
_this$ = -4						; size = 4
_h$ = 8							; size = 4
?SetH@C_Base@@UAEXJ@Z PROC				; C_Base::SetH, COMDAT
; _this$ = ecx

; 106  : 		virtual void SetH(long h)								{ h_=h; }

	push	ebp
	mov	ebp, esp
	push	ecx
	mov	DWORD PTR _this$[ebp], ecx
	mov	eax, DWORD PTR _this$[ebp]
	mov	ecx, DWORD PTR _h$[ebp]
	mov	DWORD PTR [eax+36], ecx
	mov	esp, ebp
	pop	ebp
	ret	4
?SetH@C_Base@@UAEXJ@Z ENDP				; C_Base::SetH
_TEXT	ENDS
; Function compile flags: /Odtp
; File c:\users\zhitao li\documents\visual studio 2012\projects\freefalcon\ui95\cbase.h
;	COMDAT ?SetW@C_Base@@UAEXJ@Z
_TEXT	SEGMENT
_this$ = -4						; size = 4
_w$ = 8							; size = 4
?SetW@C_Base@@UAEXJ@Z PROC				; C_Base::SetW, COMDAT
; _this$ = ecx

; 105  : 		virtual void SetW(long w)								{ w_=w; }

	push	ebp
	mov	ebp, esp
	push	ecx
	mov	DWORD PTR _this$[ebp], ecx
	mov	eax, DWORD PTR _this$[ebp]
	mov	ecx, DWORD PTR _w$[ebp]
	mov	DWORD PTR [eax+32], ecx
	mov	esp, ebp
	pop	ebp
	ret	4
?SetW@C_Base@@UAEXJ@Z ENDP				; C_Base::SetW
_TEXT	ENDS
; Function compile flags: /Odtp
; File c:\users\zhitao li\documents\visual studio 2012\projects\freefalcon\ui95\cbase.h
;	COMDAT ?SetY@C_Base@@UAEXJ@Z
_TEXT	SEGMENT
_this$ = -4						; size = 4
_y$ = 8							; size = 4
?SetY@C_Base@@UAEXJ@Z PROC				; C_Base::SetY, COMDAT
; _this$ = ecx

; 104  : 		virtual void SetY(long y)								{ y_=y; }

	push	ebp
	mov	ebp, esp
	push	ecx
	mov	DWORD PTR _this$[ebp], ecx
	mov	eax, DWORD PTR _this$[ebp]
	mov	ecx, DWORD PTR _y$[ebp]
	mov	DWORD PTR [eax+28], ecx
	mov	esp, ebp
	pop	ebp
	ret	4
?SetY@C_Base@@UAEXJ@Z ENDP				; C_Base::SetY
_TEXT	ENDS
; Function compile flags: /Odtp
; File c:\users\zhitao li\documents\visual studio 2012\projects\freefalcon\ui95\cbase.h
;	COMDAT ?SetX@C_Base@@UAEXJ@Z
_TEXT	SEGMENT
_this$ = -4						; size = 4
_x$ = 8							; size = 4
?SetX@C_Base@@UAEXJ@Z PROC				; C_Base::SetX, COMDAT
; _this$ = ecx

; 103  : 		virtual void SetX(long x)								{ x_=x; }

	push	ebp
	mov	ebp, esp
	push	ecx
	mov	DWORD PTR _this$[ebp], ecx
	mov	eax, DWORD PTR _this$[ebp]
	mov	ecx, DWORD PTR _x$[ebp]
	mov	DWORD PTR [eax+24], ecx
	mov	esp, ebp
	pop	ebp
	ret	4
?SetX@C_Base@@UAEXJ@Z ENDP				; C_Base::SetX
_TEXT	ENDS
; Function compile flags: /Odtp
; File c:\users\zhitao li\documents\visual studio 2012\projects\freefalcon\ui95\cbase.h
;	COMDAT ?SetFlagBitOff@C_Base@@UAEXJ@Z
_TEXT	SEGMENT
_this$ = -4						; size = 4
_bits$ = 8						; size = 4
?SetFlagBitOff@C_Base@@UAEXJ@Z PROC			; C_Base::SetFlagBitOff, COMDAT
; _this$ = ecx

; 102  : 		virtual void SetFlagBitOff(long bits)					{ Flags_ &= ~bits; }

	push	ebp
	mov	ebp, esp
	push	ecx
	mov	DWORD PTR _this$[ebp], ecx
	mov	eax, DWORD PTR _bits$[ebp]
	not	eax
	mov	ecx, DWORD PTR _this$[ebp]
	and	eax, DWORD PTR [ecx+16]
	mov	edx, DWORD PTR _this$[ebp]
	mov	DWORD PTR [edx+16], eax
	mov	esp, ebp
	pop	ebp
	ret	4
?SetFlagBitOff@C_Base@@UAEXJ@Z ENDP			; C_Base::SetFlagBitOff
_TEXT	ENDS
; Function compile flags: /Odtp
; File c:\users\zhitao li\documents\visual studio 2012\projects\freefalcon\ui95\cbase.h
;	COMDAT ?SetFlagBitOn@C_Base@@UAEXJ@Z
_TEXT	SEGMENT
_this$ = -4						; size = 4
_bits$ = 8						; size = 4
?SetFlagBitOn@C_Base@@UAEXJ@Z PROC			; C_Base::SetFlagBitOn, COMDAT
; _this$ = ecx

; 101  : 		virtual void SetFlagBitOn(long bits)					{ Flags_ |= bits; }

	push	ebp
	mov	ebp, esp
	push	ecx
	mov	DWORD PTR _this$[ebp], ecx
	mov	eax, DWORD PTR _this$[ebp]
	mov	ecx, DWORD PTR [eax+16]
	or	ecx, DWORD PTR _bits$[ebp]
	mov	edx, DWORD PTR _this$[ebp]
	mov	DWORD PTR [edx+16], ecx
	mov	esp, ebp
	pop	ebp
	ret	4
?SetFlagBitOn@C_Base@@UAEXJ@Z ENDP			; C_Base::SetFlagBitOn
_TEXT	ENDS
; Function compile flags: /Odtp
; File c:\users\zhitao li\documents\visual studio 2012\projects\freefalcon\ui95\cbase.h
;	COMDAT ?SetFlags@C_Base@@UAEXJ@Z
_TEXT	SEGMENT
_this$ = -4						; size = 4
_flags$ = 8						; size = 4
?SetFlags@C_Base@@UAEXJ@Z PROC				; C_Base::SetFlags, COMDAT
; _this$ = ecx

; 100  : 		virtual void SetFlags(long flags)						{ Flags_=flags; }

	push	ebp
	mov	ebp, esp
	push	ecx
	mov	DWORD PTR _this$[ebp], ecx
	mov	eax, DWORD PTR _this$[ebp]
	mov	ecx, DWORD PTR _flags$[ebp]
	mov	DWORD PTR [eax+16], ecx
	mov	esp, ebp
	pop	ebp
	ret	4
?SetFlags@C_Base@@UAEXJ@Z ENDP				; C_Base::SetFlags
_TEXT	ENDS
; Function compile flags: /Odtp
; File c:\users\zhitao li\documents\visual studio 2012\projects\freefalcon\ui95\cbase.h
;	COMDAT ?SetControlFlags@C_Base@@QAEXJ@Z
_TEXT	SEGMENT
_this$ = -4						; size = 4
_flags$ = 8						; size = 4
?SetControlFlags@C_Base@@QAEXJ@Z PROC			; C_Base::SetControlFlags, COMDAT
; _this$ = ecx

; 99   : 		void SetControlFlags(long flags)						{ Flags_=flags; }

	push	ebp
	mov	ebp, esp
	push	ecx
	mov	DWORD PTR _this$[ebp], ecx
	mov	eax, DWORD PTR _this$[ebp]
	mov	ecx, DWORD PTR _flags$[ebp]
	mov	DWORD PTR [eax+16], ecx
	mov	esp, ebp
	pop	ebp
	ret	4
?SetControlFlags@C_Base@@QAEXJ@Z ENDP			; C_Base::SetControlFlags
_TEXT	ENDS
; Function compile flags: /Odtp
; File c:\users\zhitao li\documents\visual studio 2012\projects\freefalcon\ui95\cbase.h
;	COMDAT ?_SetCType_@C_Base@@QAEXF@Z
_TEXT	SEGMENT
_this$ = -4						; size = 4
_ctype$ = 8						; size = 2
?_SetCType_@C_Base@@QAEXF@Z PROC			; C_Base::_SetCType_, COMDAT
; _this$ = ecx

; 95   : 		void _SetCType_(short ctype)							{ _CType_=ctype; }

	push	ebp
	mov	ebp, esp
	push	ecx
	mov	DWORD PTR _this$[ebp], ecx
	mov	eax, DWORD PTR _this$[ebp]
	mov	cx, WORD PTR _ctype$[ebp]
	mov	WORD PTR [eax+20], cx
	mov	esp, ebp
	pop	ebp
	ret	4
?_SetCType_@C_Base@@QAEXF@Z ENDP			; C_Base::_SetCType_
_TEXT	ENDS
; Function compile flags: /Odtp
; File c:\users\zhitao li\documents\visual studio 2012\projects\freefalcon\ui95\cbase.h
;	COMDAT ?SetID@C_Base@@QAEXJ@Z
_TEXT	SEGMENT
_this$ = -4						; size = 4
_id$ = 8						; size = 4
?SetID@C_Base@@QAEXJ@Z PROC				; C_Base::SetID, COMDAT
; _this$ = ecx

; 93   : 		void SetID(long id)										{ ID_=id; }

	push	ebp
	mov	ebp, esp
	push	ecx
	mov	DWORD PTR _this$[ebp], ecx
	mov	eax, DWORD PTR _this$[ebp]
	mov	ecx, DWORD PTR _id$[ebp]
	mov	DWORD PTR [eax+4], ecx
	mov	esp, ebp
	pop	ebp
	ret	4
?SetID@C_Base@@QAEXJ@Z ENDP				; C_Base::SetID
_TEXT	ENDS
; Function compile flags: /Odtp
; File c:\users\zhitao li\documents\visual studio 2012\projects\freefalcon\ui95\cbase.h
;	COMDAT ??1C_Base@@UAE@XZ
_TEXT	SEGMENT
tv74 = -16						; size = 4
$T1 = -12						; size = 4
$T2 = -8						; size = 4
_this$ = -4						; size = 4
??1C_Base@@UAE@XZ PROC					; C_Base::~C_Base, COMDAT
; _this$ = ecx

; 81   : 		{

	push	ebp
	mov	ebp, esp
	sub	esp, 16					; 00000010H
	mov	DWORD PTR _this$[ebp], ecx
	mov	eax, DWORD PTR _this$[ebp]
	mov	DWORD PTR [eax], OFFSET ??_7C_Base@@6B@

; 82   : 			if(User_)

	mov	ecx, DWORD PTR _this$[ebp]
	cmp	DWORD PTR [ecx+44], 0
	je	SHORT $LN2@C_Base

; 83   : 			{
; 84   : 				User_->Cleanup();

	mov	edx, DWORD PTR _this$[ebp]
	mov	ecx, DWORD PTR [edx+44]
	call	?Cleanup@C_Hash@@QAEXXZ			; C_Hash::Cleanup

; 85   : 				delete User_;

	mov	eax, DWORD PTR _this$[ebp]
	mov	ecx, DWORD PTR [eax+44]
	mov	DWORD PTR $T1[ebp], ecx
	mov	edx, DWORD PTR $T1[ebp]
	mov	DWORD PTR $T2[ebp], edx
	cmp	DWORD PTR $T2[ebp], 0
	je	SHORT $LN4@C_Base
	push	1
	mov	ecx, DWORD PTR $T2[ebp]
	call	??_GC_Hash@@QAEPAXI@Z
	mov	DWORD PTR tv74[ebp], eax
	jmp	SHORT $LN2@C_Base
$LN4@C_Base:
	mov	DWORD PTR tv74[ebp], 0
$LN2@C_Base:

; 86   : 			}
; 87   : 		}

	mov	esp, ebp
	pop	ebp
	ret	0
??1C_Base@@UAE@XZ ENDP					; C_Base::~C_Base
_TEXT	ENDS
; Function compile flags: /Odtp
;	COMDAT ??_GO_Output@@QAEPAXI@Z
_TEXT	SEGMENT
_this$ = -4						; size = 4
___flags$ = 8						; size = 4
??_GO_Output@@QAEPAXI@Z PROC				; O_Output::`scalar deleting destructor', COMDAT
; _this$ = ecx
	push	ebp
	mov	ebp, esp
	push	ecx
	mov	DWORD PTR _this$[ebp], ecx
	mov	ecx, DWORD PTR _this$[ebp]
	call	??1O_Output@@QAE@XZ			; O_Output::~O_Output
	mov	eax, DWORD PTR ___flags$[ebp]
	and	eax, 1
	je	SHORT $LN1@scalar
	mov	ecx, DWORD PTR _this$[ebp]
	push	ecx
	call	??3@YAXPAX@Z				; operator delete
	add	esp, 4
$LN1@scalar:
	mov	eax, DWORD PTR _this$[ebp]
	mov	esp, ebp
	pop	ebp
	ret	4
??_GO_Output@@QAEPAXI@Z ENDP				; O_Output::`scalar deleting destructor'
_TEXT	ENDS
; Function compile flags: /Odtp
; File c:\users\zhitao li\documents\visual studio 2012\projects\freefalcon\ui95\ooutput.h
;	COMDAT ?GetText@O_Output@@QAEPADXZ
_TEXT	SEGMENT
_this$ = -4						; size = 4
?GetText@O_Output@@QAEPADXZ PROC			; O_Output::GetText, COMDAT
; _this$ = ecx

; 151  : 		_TCHAR *GetText()				{ return(Label_); }

	push	ebp
	mov	ebp, esp
	push	ecx
	mov	DWORD PTR _this$[ebp], ecx
	mov	eax, DWORD PTR _this$[ebp]
	mov	eax, DWORD PTR [eax+128]
	mov	esp, ebp
	pop	ebp
	ret	0
?GetText@O_Output@@QAEPADXZ ENDP			; O_Output::GetText
_TEXT	ENDS
; Function compile flags: /Odtp
; File c:\users\zhitao li\documents\visual studio 2012\projects\freefalcon\ui95\ooutput.h
;	COMDAT ?GetH@O_Output@@QAEJXZ
_TEXT	SEGMENT
_this$ = -4						; size = 4
?GetH@O_Output@@QAEJXZ PROC				; O_Output::GetH, COMDAT
; _this$ = ecx

; 148  : 		long GetH()						{ return(h_); }

	push	ebp
	mov	ebp, esp
	push	ecx
	mov	DWORD PTR _this$[ebp], ecx
	mov	eax, DWORD PTR _this$[ebp]
	mov	eax, DWORD PTR [eax+72]
	mov	esp, ebp
	pop	ebp
	ret	0
?GetH@O_Output@@QAEJXZ ENDP				; O_Output::GetH
_TEXT	ENDS
; Function compile flags: /Odtp
; File c:\users\zhitao li\documents\visual studio 2012\projects\freefalcon\ui95\ooutput.h
;	COMDAT ?GetW@O_Output@@QAEJXZ
_TEXT	SEGMENT
_this$ = -4						; size = 4
?GetW@O_Output@@QAEJXZ PROC				; O_Output::GetW, COMDAT
; _this$ = ecx

; 147  : 		long GetW()						{ return(w_); }

	push	ebp
	mov	ebp, esp
	push	ecx
	mov	DWORD PTR _this$[ebp], ecx
	mov	eax, DWORD PTR _this$[ebp]
	mov	eax, DWORD PTR [eax+68]
	mov	esp, ebp
	pop	ebp
	ret	0
?GetW@O_Output@@QAEJXZ ENDP				; O_Output::GetW
_TEXT	ENDS
; Function compile flags: /Odtp
; File c:\users\zhitao li\documents\visual studio 2012\projects\freefalcon\ui95\ooutput.h
;	COMDAT ?SetFgColor@O_Output@@QAEXK@Z
_TEXT	SEGMENT
_this$ = -4						; size = 4
_color$ = 8						; size = 4
?SetFgColor@O_Output@@QAEXK@Z PROC			; O_Output::SetFgColor, COMDAT
; _this$ = ecx

; 128  : 		void SetFgColor(COLORREF color)			{ FgColor_=color; }

	push	ebp
	mov	ebp, esp
	push	ecx
	mov	DWORD PTR _this$[ebp], ecx
	mov	eax, DWORD PTR _this$[ebp]
	mov	ecx, DWORD PTR _color$[ebp]
	mov	DWORD PTR [eax+12], ecx
	mov	esp, ebp
	pop	ebp
	ret	4
?SetFgColor@O_Output@@QAEXK@Z ENDP			; O_Output::SetFgColor
_TEXT	ENDS
; Function compile flags: /Odtp
; File c:\users\zhitao li\documents\visual studio 2012\projects\freefalcon\ui95\ooutput.h
;	COMDAT ?SetFont@O_Output@@QAEXJ@Z
_TEXT	SEGMENT
_this$ = -4						; size = 4
_FID$ = 8						; size = 4
?SetFont@O_Output@@QAEXJ@Z PROC				; O_Output::SetFont, COMDAT
; _this$ = ecx

; 127  : 		void SetFont(long FID)					{ Font_=FID; }

	push	ebp
	mov	ebp, esp
	push	ecx
	mov	DWORD PTR _this$[ebp], ecx
	mov	eax, DWORD PTR _this$[ebp]
	mov	ecx, DWORD PTR _FID$[ebp]
	mov	DWORD PTR [eax+4], ecx
	mov	esp, ebp
	pop	ebp
	ret	4
?SetFont@O_Output@@QAEXJ@Z ENDP				; O_Output::SetFont
_TEXT	ENDS
; Function compile flags: /Odtp
; File c:\users\zhitao li\documents\visual studio 2012\projects\freefalcon\ui95\ooutput.h
;	COMDAT ?SetFlags@O_Output@@QAEXJ@Z
_TEXT	SEGMENT
_this$ = -4						; size = 4
_flags$ = 8						; size = 4
?SetFlags@O_Output@@QAEXJ@Z PROC			; O_Output::SetFlags, COMDAT
; _this$ = ecx

; 126  : 		void SetFlags(long flags)				{ flags_=flags; }

	push	ebp
	mov	ebp, esp
	push	ecx
	mov	DWORD PTR _this$[ebp], ecx
	mov	eax, DWORD PTR _this$[ebp]
	mov	ecx, DWORD PTR _flags$[ebp]
	mov	DWORD PTR [eax], ecx
	mov	esp, ebp
	pop	ebp
	ret	4
?SetFlags@O_Output@@QAEXJ@Z ENDP			; O_Output::SetFlags
_TEXT	ENDS
; Function compile flags: /Odtp
; File c:\users\zhitao li\documents\visual studio 2012\projects\freefalcon\ui95\ooutput.h
;	COMDAT ?SetOwner@O_Output@@QAEXPAVC_Base@@@Z
_TEXT	SEGMENT
_this$ = -4						; size = 4
_owner$ = 8						; size = 4
?SetOwner@O_Output@@QAEXPAVC_Base@@@Z PROC		; O_Output::SetOwner, COMDAT
; _this$ = ecx

; 124  : 		void SetOwner(C_Base *owner)			{ Owner_ = owner; SetInfo(); }

	push	ebp
	mov	ebp, esp
	push	ecx
	mov	DWORD PTR _this$[ebp], ecx
	mov	eax, DWORD PTR _this$[ebp]
	mov	ecx, DWORD PTR _owner$[ebp]
	mov	DWORD PTR [eax+140], ecx
	mov	ecx, DWORD PTR _this$[ebp]
	call	?SetInfo@O_Output@@QAEXXZ		; O_Output::SetInfo
	mov	esp, ebp
	pop	ebp
	ret	4
?SetOwner@O_Output@@QAEXPAVC_Base@@@Z ENDP		; O_Output::SetOwner
_TEXT	ENDS
; Function compile flags: /Odtp
; File c:\users\zhitao li\documents\visual studio 2012\projects\freefalcon\ui95\ooutput.h
;	COMDAT ?SetY@O_Output@@QAEXJ@Z
_TEXT	SEGMENT
_this$ = -4						; size = 4
_y$ = 8							; size = 4
?SetY@O_Output@@QAEXJ@Z PROC				; O_Output::SetY, COMDAT
; _this$ = ecx

; 120  : 		void SetY(long y)						{ origy_ = y; }

	push	ebp
	mov	ebp, esp
	push	ecx
	mov	DWORD PTR _this$[ebp], ecx
	mov	eax, DWORD PTR _this$[ebp]
	mov	ecx, DWORD PTR _y$[ebp]
	mov	DWORD PTR [eax+56], ecx
	mov	esp, ebp
	pop	ebp
	ret	4
?SetY@O_Output@@QAEXJ@Z ENDP				; O_Output::SetY
_TEXT	ENDS
; Function compile flags: /Odtp
; File c:\users\zhitao li\documents\visual studio 2012\projects\freefalcon\ui95\ooutput.h
;	COMDAT ?SetX@O_Output@@QAEXJ@Z
_TEXT	SEGMENT
_this$ = -4						; size = 4
_x$ = 8							; size = 4
?SetX@O_Output@@QAEXJ@Z PROC				; O_Output::SetX, COMDAT
; _this$ = ecx

; 119  : 		void SetX(long x)						{ origx_ = x; }

	push	ebp
	mov	ebp, esp
	push	ecx
	mov	DWORD PTR _this$[ebp], ecx
	mov	eax, DWORD PTR _this$[ebp]
	mov	ecx, DWORD PTR _x$[ebp]
	mov	DWORD PTR [eax+52], ecx
	mov	esp, ebp
	pop	ebp
	ret	4
?SetX@O_Output@@QAEXJ@Z ENDP				; O_Output::SetX
_TEXT	ENDS
; Function compile flags: /Odtp
; File c:\users\zhitao li\documents\visual studio 2012\projects\freefalcon\ui95\ooutput.h
;	COMDAT ??1O_Output@@QAE@XZ
_TEXT	SEGMENT
_this$ = -4						; size = 4
??1O_Output@@QAE@XZ PROC				; O_Output::~O_Output, COMDAT
; _this$ = ecx

; 110  : 		~O_Output() {}

	push	ebp
	mov	ebp, esp
	push	ecx
	mov	DWORD PTR _this$[ebp], ecx
	mov	esp, ebp
	pop	ebp
	ret	0
??1O_Output@@QAE@XZ ENDP				; O_Output::~O_Output
_TEXT	ENDS
; Function compile flags: /Odtp
; File c:\users\zhitao li\documents\visual studio 2012\projects\freefalcon\ui95\ooutput.h
;	COMDAT ??0O_Output@@QAE@XZ
_TEXT	SEGMENT
_this$ = -4						; size = 4
??0O_Output@@QAE@XZ PROC				; O_Output::O_Output, COMDAT
; _this$ = ecx

; 75   : 		O_Output()

	push	ebp
	mov	ebp, esp
	push	ecx
	mov	DWORD PTR _this$[ebp], ecx

; 76   : 		{
; 77   : 			origx_=0,origy_=0;

	mov	eax, DWORD PTR _this$[ebp]
	mov	DWORD PTR [eax+52], 0
	mov	ecx, DWORD PTR _this$[ebp]
	mov	DWORD PTR [ecx+56], 0

; 78   : 			x_=0,y_=0;

	mov	edx, DWORD PTR _this$[ebp]
	mov	DWORD PTR [edx+60], 0
	mov	eax, DWORD PTR _this$[ebp]
	mov	DWORD PTR [eax+64], 0

; 79   : 			w_=0,h_=0;

	mov	ecx, DWORD PTR _this$[ebp]
	mov	DWORD PTR [ecx+68], 0
	mov	edx, DWORD PTR _this$[ebp]
	mov	DWORD PTR [edx+72], 0

; 80   : 			lastx_=0,lasty_=0;

	mov	eax, DWORD PTR _this$[ebp]
	mov	DWORD PTR [eax+76], 0
	mov	ecx, DWORD PTR _this$[ebp]
	mov	DWORD PTR [ecx+80], 0

; 81   : 			lastw_=0,lasth_=0;

	mov	edx, DWORD PTR _this$[ebp]
	mov	DWORD PTR [edx+84], 0
	mov	eax, DWORD PTR _this$[ebp]
	mov	DWORD PTR [eax+88], 0

; 82   : 			_OType_=0;

	xor	ecx, ecx
	mov	edx, DWORD PTR _this$[ebp]
	mov	WORD PTR [edx+92], cx

; 83   : 			flags_=0;

	mov	eax, DWORD PTR _this$[ebp]
	mov	DWORD PTR [eax], 0

; 84   : 			animtype_=0;

	xor	ecx, ecx
	mov	edx, DWORD PTR _this$[ebp]
	mov	WORD PTR [edx+94], cx

; 85   : 			frame_=0;

	xor	eax, eax
	mov	ecx, DWORD PTR _this$[ebp]
	mov	WORD PTR [ecx+96], ax

; 86   : 			direction_=0;

	xor	edx, edx
	mov	eax, DWORD PTR _this$[ebp]
	mov	WORD PTR [eax+98], dx

; 87   : 			ready_=0;

	xor	ecx, ecx
	mov	edx, DWORD PTR _this$[ebp]
	mov	WORD PTR [edx+100], cx

; 88   : 			fperc_=100,bperc_=0;

	mov	eax, 100				; 00000064H
	mov	ecx, DWORD PTR _this$[ebp]
	mov	WORD PTR [ecx+102], ax
	xor	edx, edx
	mov	eax, DWORD PTR _this$[ebp]
	mov	WORD PTR [eax+104], dx

; 89   : 			FgColor_=0xcccccc,BgColor_=0;

	mov	ecx, DWORD PTR _this$[ebp]
	mov	DWORD PTR [ecx+12], 13421772		; 00ccccccH
	mov	edx, DWORD PTR _this$[ebp]
	mov	DWORD PTR [edx+16], 0

; 90   : 			Font_=1;

	mov	eax, DWORD PTR _this$[ebp]
	mov	DWORD PTR [eax+4], 1

; 91   : 			LabelLen_=0;

	xor	ecx, ecx
	mov	edx, DWORD PTR _this$[ebp]
	mov	WORD PTR [edx+106], cx

; 92   : 			Src_.left=0; Src_.top=0; Src_.right=0; Src_.bottom=0;

	mov	eax, DWORD PTR _this$[ebp]
	mov	DWORD PTR [eax+20], 0
	mov	ecx, DWORD PTR _this$[ebp]
	mov	DWORD PTR [ecx+24], 0
	mov	edx, DWORD PTR _this$[ebp]
	mov	DWORD PTR [edx+28], 0
	mov	eax, DWORD PTR _this$[ebp]
	mov	DWORD PTR [eax+32], 0

; 93   : 			Dest_.left=0; Dest_.top=0; Dest_.right=0; Dest_.bottom=0;

	mov	ecx, DWORD PTR _this$[ebp]
	mov	DWORD PTR [ecx+36], 0
	mov	edx, DWORD PTR _this$[ebp]
	mov	DWORD PTR [edx+40], 0
	mov	eax, DWORD PTR _this$[ebp]
	mov	DWORD PTR [eax+44], 0
	mov	ecx, DWORD PTR _this$[ebp]
	mov	DWORD PTR [ecx+48], 0

; 94   : 			Rows_=NULL;

	mov	edx, DWORD PTR _this$[ebp]
	mov	DWORD PTR [edx+116], 0

; 95   : 			Cols_=NULL;

	mov	eax, DWORD PTR _this$[ebp]
	mov	DWORD PTR [eax+120], 0

; 96   : 			ScaleSet_=1;

	mov	ecx, DWORD PTR _this$[ebp]
	mov	DWORD PTR [ecx+8], 1

; 97   : 			OpStart_=0;

	xor	edx, edx
	mov	eax, DWORD PTR _this$[ebp]
	mov	WORD PTR [eax+112], dx

; 98   : 			OpEnd_=10000;

	mov	ecx, 10000				; 00002710H
	mov	edx, DWORD PTR _this$[ebp]
	mov	WORD PTR [edx+114], cx

; 99   : 			WWWidth_=0;

	xor	eax, eax
	mov	ecx, DWORD PTR _this$[ebp]
	mov	WORD PTR [ecx+108], ax

; 100  : 			WWCount_=0;

	xor	edx, edx
	mov	eax, DWORD PTR _this$[ebp]
	mov	WORD PTR [eax+110], dx

; 101  : 			Wrap_=NULL;

	mov	ecx, DWORD PTR _this$[ebp]
	mov	DWORD PTR [ecx+124], 0

; 102  : 			Label_=NULL;

	mov	edx, DWORD PTR _this$[ebp]
	mov	DWORD PTR [edx+128], 0

; 103  : 			Image_=NULL;

	mov	eax, DWORD PTR _this$[ebp]
	mov	DWORD PTR [eax+132], 0

; 104  : 			Anim_=NULL;

	mov	ecx, DWORD PTR _this$[ebp]
	mov	DWORD PTR [ecx+136], 0

; 105  : 			Owner_=NULL;

	mov	edx, DWORD PTR _this$[ebp]
	mov	DWORD PTR [edx+140], 0

; 106  : 		}

	mov	eax, DWORD PTR _this$[ebp]
	mov	esp, ebp
	pop	ebp
	ret	0
??0O_Output@@QAE@XZ ENDP				; O_Output::O_Output
_TEXT	ENDS
; Function compile flags: /Odtp
;	COMDAT ??_GC_Hash@@QAEPAXI@Z
_TEXT	SEGMENT
_this$ = -4						; size = 4
___flags$ = 8						; size = 4
??_GC_Hash@@QAEPAXI@Z PROC				; C_Hash::`scalar deleting destructor', COMDAT
; _this$ = ecx
	push	ebp
	mov	ebp, esp
	push	ecx
	mov	DWORD PTR _this$[ebp], ecx
	mov	ecx, DWORD PTR _this$[ebp]
	call	??1C_Hash@@QAE@XZ			; C_Hash::~C_Hash
	mov	eax, DWORD PTR ___flags$[ebp]
	and	eax, 1
	je	SHORT $LN1@scalar
	mov	ecx, DWORD PTR _this$[ebp]
	push	ecx
	call	??3@YAXPAX@Z				; operator delete
	add	esp, 4
$LN1@scalar:
	mov	eax, DWORD PTR _this$[ebp]
	mov	esp, ebp
	pop	ebp
	ret	4
??_GC_Hash@@QAEPAXI@Z ENDP				; C_Hash::`scalar deleting destructor'
_TEXT	ENDS
; Function compile flags: /Odtp
;	COMDAT ??_G_System_error_category@std@@UAEPAXI@Z
_TEXT	SEGMENT
_this$ = -4						; size = 4
___flags$ = 8						; size = 4
??_G_System_error_category@std@@UAEPAXI@Z PROC		; std::_System_error_category::`scalar deleting destructor', COMDAT
; _this$ = ecx
	push	ebp
	mov	ebp, esp
	push	ecx
	mov	DWORD PTR _this$[ebp], ecx
	mov	ecx, DWORD PTR _this$[ebp]
	call	??1_System_error_category@std@@UAE@XZ
	mov	eax, DWORD PTR ___flags$[ebp]
	and	eax, 1
	je	SHORT $LN1@scalar
	mov	ecx, DWORD PTR _this$[ebp]
	push	ecx
	call	??3@YAXPAX@Z				; operator delete
	add	esp, 4
$LN1@scalar:
	mov	eax, DWORD PTR _this$[ebp]
	mov	esp, ebp
	pop	ebp
	ret	4
??_G_System_error_category@std@@UAEPAXI@Z ENDP		; std::_System_error_category::`scalar deleting destructor'
_TEXT	ENDS
; Function compile flags: /Odtp
;	COMDAT ??1_System_error_category@std@@UAE@XZ
_TEXT	SEGMENT
_this$ = -4						; size = 4
??1_System_error_category@std@@UAE@XZ PROC		; std::_System_error_category::~_System_error_category, COMDAT
; _this$ = ecx
	push	ebp
	mov	ebp, esp
	push	ecx
	mov	DWORD PTR _this$[ebp], ecx
	mov	ecx, DWORD PTR _this$[ebp]
	call	??1_Generic_error_category@std@@UAE@XZ
	mov	esp, ebp
	pop	ebp
	ret	0
??1_System_error_category@std@@UAE@XZ ENDP		; std::_System_error_category::~_System_error_category
_TEXT	ENDS
; Function compile flags: /Odtp
; File c:\program files (x86)\microsoft visual studio 11.0\vc\include\system_error
;	COMDAT ?default_error_condition@_System_error_category@std@@UBE?AVerror_condition@2@H@Z
_TEXT	SEGMENT
_this$ = -4						; size = 4
___$ReturnUdt$ = 8					; size = 4
__Errval$ = 12						; size = 4
?default_error_condition@_System_error_category@std@@UBE?AVerror_condition@2@H@Z PROC ; std::_System_error_category::default_error_condition, COMDAT
; _this$ = ecx

; 641  : 		{	// make error_condition for error code (generic if possible)

	push	ebp
	mov	ebp, esp
	push	ecx
	mov	DWORD PTR _this$[ebp], ecx

; 642  : 		if (_Syserror_map(_Errval))

	mov	eax, DWORD PTR __Errval$[ebp]
	push	eax
	call	?_Syserror_map@std@@YAPBDH@Z		; std::_Syserror_map
	add	esp, 4
	test	eax, eax
	je	SHORT $LN2@default_er

; 643  : 			return (error_condition(_Errval, generic_category()));

	call	?generic_category@std@@YAABVerror_category@1@XZ ; std::generic_category
	push	eax
	mov	ecx, DWORD PTR __Errval$[ebp]
	push	ecx
	mov	ecx, DWORD PTR ___$ReturnUdt$[ebp]
	call	??0error_condition@std@@QAE@HABVerror_category@1@@Z ; std::error_condition::error_condition
	mov	eax, DWORD PTR ___$ReturnUdt$[ebp]
	jmp	SHORT $LN3@default_er

; 644  : 		else

	jmp	SHORT $LN3@default_er
$LN2@default_er:

; 645  : 			return (error_condition(_Errval, system_category()));

	call	?system_category@std@@YAABVerror_category@1@XZ ; std::system_category
	push	eax
	mov	edx, DWORD PTR __Errval$[ebp]
	push	edx
	mov	ecx, DWORD PTR ___$ReturnUdt$[ebp]
	call	??0error_condition@std@@QAE@HABVerror_category@1@@Z ; std::error_condition::error_condition
	mov	eax, DWORD PTR ___$ReturnUdt$[ebp]
$LN3@default_er:

; 646  : 		}

	mov	esp, ebp
	pop	ebp
	ret	8
?default_error_condition@_System_error_category@std@@UBE?AVerror_condition@2@H@Z ENDP ; std::_System_error_category::default_error_condition
_TEXT	ENDS
; Function compile flags: /Odtp
; File c:\program files (x86)\microsoft visual studio 11.0\vc\include\system_error
;	COMDAT ?message@_System_error_category@std@@UBE?AV?$basic_string@DU?$char_traits@D@std@@V?$allocator@D@2@@2@H@Z
_TEXT	SEGMENT
_this$ = -16						; size = 4
$T1 = -12						; size = 4
tv69 = -8						; size = 4
__Name$ = -4						; size = 4
___$ReturnUdt$ = 8					; size = 4
__Errcode$ = 12						; size = 4
?message@_System_error_category@std@@UBE?AV?$basic_string@DU?$char_traits@D@std@@V?$allocator@D@2@@2@H@Z PROC ; std::_System_error_category::message, COMDAT
; _this$ = ecx

; 634  : 		{	// convert to name of error

	push	ebp
	mov	ebp, esp
	sub	esp, 16					; 00000010H
	mov	DWORD PTR _this$[ebp], ecx
	mov	DWORD PTR $T1[ebp], 0

; 635  : 		const char *_Name = _Winerror_map(_Errcode);

	mov	eax, DWORD PTR __Errcode$[ebp]
	push	eax
	call	?_Winerror_map@std@@YAPBDH@Z		; std::_Winerror_map
	add	esp, 4
	mov	DWORD PTR __Name$[ebp], eax

; 636  : 		return (string(_Name != 0 ? _Name : "unknown error"));

	cmp	DWORD PTR __Name$[ebp], 0
	je	SHORT $LN3@message
	mov	ecx, DWORD PTR __Name$[ebp]
	mov	DWORD PTR tv69[ebp], ecx
	jmp	SHORT $LN4@message
$LN3@message:
	mov	DWORD PTR tv69[ebp], OFFSET ??_C@_0O@BFJCFAAK@unknown?5error?$AA@
$LN4@message:
	mov	edx, DWORD PTR tv69[ebp]
	push	edx
	mov	ecx, DWORD PTR ___$ReturnUdt$[ebp]
	call	??0?$basic_string@DU?$char_traits@D@std@@V?$allocator@D@2@@std@@QAE@PBD@Z ; std::basic_string<char,std::char_traits<char>,std::allocator<char> >::basic_string<char,std::char_traits<char>,std::allocator<char> >
	mov	eax, DWORD PTR $T1[ebp]
	or	eax, 1
	mov	DWORD PTR $T1[ebp], eax
	mov	eax, DWORD PTR ___$ReturnUdt$[ebp]

; 637  : 		}

	mov	esp, ebp
	pop	ebp
	ret	8
?message@_System_error_category@std@@UBE?AV?$basic_string@DU?$char_traits@D@std@@V?$allocator@D@2@@2@H@Z ENDP ; std::_System_error_category::message
_TEXT	ENDS
; Function compile flags: /Odtp
; File c:\program files (x86)\microsoft visual studio 11.0\vc\include\system_error
;	COMDAT ?name@_System_error_category@std@@UBEPBDXZ
_TEXT	SEGMENT
_this$ = -4						; size = 4
?name@_System_error_category@std@@UBEPBDXZ PROC		; std::_System_error_category::name, COMDAT
; _this$ = ecx

; 629  : 		{	// get name of category

	push	ebp
	mov	ebp, esp
	push	ecx
	mov	DWORD PTR _this$[ebp], ecx

; 630  : 		return ("system");

	mov	eax, OFFSET ??_C@_06FHFOAHML@system?$AA@

; 631  : 		}

	mov	esp, ebp
	pop	ebp
	ret	0
?name@_System_error_category@std@@UBEPBDXZ ENDP		; std::_System_error_category::name
_TEXT	ENDS
; Function compile flags: /Odtp
; File c:\program files (x86)\microsoft visual studio 11.0\vc\include\system_error
;	COMDAT ??0_System_error_category@std@@QAE@XZ
_TEXT	SEGMENT
_this$ = -4						; size = 4
??0_System_error_category@std@@QAE@XZ PROC		; std::_System_error_category::_System_error_category, COMDAT
; _this$ = ecx

; 624  : 	_System_error_category()

	push	ebp
	mov	ebp, esp
	push	ecx
	mov	DWORD PTR _this$[ebp], ecx
	mov	ecx, DWORD PTR _this$[ebp]
	call	??0_Generic_error_category@std@@QAE@XZ	; std::_Generic_error_category::_Generic_error_category
	mov	eax, DWORD PTR _this$[ebp]
	mov	DWORD PTR [eax], OFFSET ??_7_System_error_category@std@@6B@

; 625  : 		{	// default constructor
; 626  : 		}

	mov	eax, DWORD PTR _this$[ebp]
	mov	esp, ebp
	pop	ebp
	ret	0
??0_System_error_category@std@@QAE@XZ ENDP		; std::_System_error_category::_System_error_category
_TEXT	ENDS
; Function compile flags: /Odtp
;	COMDAT ??_G_Iostream_error_category@std@@UAEPAXI@Z
_TEXT	SEGMENT
_this$ = -4						; size = 4
___flags$ = 8						; size = 4
??_G_Iostream_error_category@std@@UAEPAXI@Z PROC	; std::_Iostream_error_category::`scalar deleting destructor', COMDAT
; _this$ = ecx
	push	ebp
	mov	ebp, esp
	push	ecx
	mov	DWORD PTR _this$[ebp], ecx
	mov	ecx, DWORD PTR _this$[ebp]
	call	??1_Iostream_error_category@std@@UAE@XZ
	mov	eax, DWORD PTR ___flags$[ebp]
	and	eax, 1
	je	SHORT $LN1@scalar
	mov	ecx, DWORD PTR _this$[ebp]
	push	ecx
	call	??3@YAXPAX@Z				; operator delete
	add	esp, 4
$LN1@scalar:
	mov	eax, DWORD PTR _this$[ebp]
	mov	esp, ebp
	pop	ebp
	ret	4
??_G_Iostream_error_category@std@@UAEPAXI@Z ENDP	; std::_Iostream_error_category::`scalar deleting destructor'
_TEXT	ENDS
; Function compile flags: /Odtp
;	COMDAT ??1_Iostream_error_category@std@@UAE@XZ
_TEXT	SEGMENT
_this$ = -4						; size = 4
??1_Iostream_error_category@std@@UAE@XZ PROC		; std::_Iostream_error_category::~_Iostream_error_category, COMDAT
; _this$ = ecx
	push	ebp
	mov	ebp, esp
	push	ecx
	mov	DWORD PTR _this$[ebp], ecx
	mov	ecx, DWORD PTR _this$[ebp]
	call	??1_Generic_error_category@std@@UAE@XZ
	mov	esp, ebp
	pop	ebp
	ret	0
??1_Iostream_error_category@std@@UAE@XZ ENDP		; std::_Iostream_error_category::~_Iostream_error_category
_TEXT	ENDS
; Function compile flags: /Odtp
; File c:\program files (x86)\microsoft visual studio 11.0\vc\include\system_error
;	COMDAT ?message@_Iostream_error_category@std@@UBE?AV?$basic_string@DU?$char_traits@D@std@@V?$allocator@D@2@@2@H@Z
_TEXT	SEGMENT
_this$ = -8						; size = 4
$T1 = -4						; size = 4
___$ReturnUdt$ = 8					; size = 4
__Errcode$ = 12						; size = 4
?message@_Iostream_error_category@std@@UBE?AV?$basic_string@DU?$char_traits@D@std@@V?$allocator@D@2@@2@H@Z PROC ; std::_Iostream_error_category::message, COMDAT
; _this$ = ecx

; 611  : 		{	// convert to name of error

	push	ebp
	mov	ebp, esp
	sub	esp, 8
	mov	DWORD PTR _this$[ebp], ecx
	mov	DWORD PTR $T1[ebp], 0

; 612  : 		if (_Errcode == (int)io_errc::stream)

	cmp	DWORD PTR __Errcode$[ebp], 1
	jne	SHORT $LN2@message

; 613  : 			return ("iostream stream error");

	push	OFFSET ??_C@_0BG@PADBLCHM@iostream?5stream?5error?$AA@
	mov	ecx, DWORD PTR ___$ReturnUdt$[ebp]
	call	??0?$basic_string@DU?$char_traits@D@std@@V?$allocator@D@2@@std@@QAE@PBD@Z ; std::basic_string<char,std::char_traits<char>,std::allocator<char> >::basic_string<char,std::char_traits<char>,std::allocator<char> >
	mov	eax, DWORD PTR $T1[ebp]
	or	eax, 1
	mov	DWORD PTR $T1[ebp], eax
	mov	eax, DWORD PTR ___$ReturnUdt$[ebp]
	jmp	SHORT $LN3@message

; 614  : 		else

	jmp	SHORT $LN3@message
$LN2@message:

; 615  : 			return (_Generic_error_category::message(_Errcode));

	mov	ecx, DWORD PTR __Errcode$[ebp]
	push	ecx
	mov	edx, DWORD PTR ___$ReturnUdt$[ebp]
	push	edx
	mov	ecx, DWORD PTR _this$[ebp]
	call	?message@_Generic_error_category@std@@UBE?AV?$basic_string@DU?$char_traits@D@std@@V?$allocator@D@2@@2@H@Z ; std::_Generic_error_category::message
	mov	eax, DWORD PTR $T1[ebp]
	or	eax, 1
	mov	DWORD PTR $T1[ebp], eax
	mov	eax, DWORD PTR ___$ReturnUdt$[ebp]
$LN3@message:

; 616  : 		}

	mov	esp, ebp
	pop	ebp
	ret	8
?message@_Iostream_error_category@std@@UBE?AV?$basic_string@DU?$char_traits@D@std@@V?$allocator@D@2@@2@H@Z ENDP ; std::_Iostream_error_category::message
_TEXT	ENDS
; Function compile flags: /Odtp
; File c:\program files (x86)\microsoft visual studio 11.0\vc\include\system_error
;	COMDAT ?name@_Iostream_error_category@std@@UBEPBDXZ
_TEXT	SEGMENT
_this$ = -4						; size = 4
?name@_Iostream_error_category@std@@UBEPBDXZ PROC	; std::_Iostream_error_category::name, COMDAT
; _this$ = ecx

; 606  : 		{	// get name of category

	push	ebp
	mov	ebp, esp
	push	ecx
	mov	DWORD PTR _this$[ebp], ecx

; 607  : 		return ("iostream");

	mov	eax, OFFSET ??_C@_08LLGCOLLL@iostream?$AA@

; 608  : 		}

	mov	esp, ebp
	pop	ebp
	ret	0
?name@_Iostream_error_category@std@@UBEPBDXZ ENDP	; std::_Iostream_error_category::name
_TEXT	ENDS
; Function compile flags: /Odtp
; File c:\program files (x86)\microsoft visual studio 11.0\vc\include\system_error
;	COMDAT ??0_Iostream_error_category@std@@QAE@XZ
_TEXT	SEGMENT
_this$ = -4						; size = 4
??0_Iostream_error_category@std@@QAE@XZ PROC		; std::_Iostream_error_category::_Iostream_error_category, COMDAT
; _this$ = ecx

; 601  : 	_Iostream_error_category()

	push	ebp
	mov	ebp, esp
	push	ecx
	mov	DWORD PTR _this$[ebp], ecx
	mov	ecx, DWORD PTR _this$[ebp]
	call	??0_Generic_error_category@std@@QAE@XZ	; std::_Generic_error_category::_Generic_error_category
	mov	eax, DWORD PTR _this$[ebp]
	mov	DWORD PTR [eax], OFFSET ??_7_Iostream_error_category@std@@6B@

; 602  : 		{	// default constructor
; 603  : 		}

	mov	eax, DWORD PTR _this$[ebp]
	mov	esp, ebp
	pop	ebp
	ret	0
??0_Iostream_error_category@std@@QAE@XZ ENDP		; std::_Iostream_error_category::_Iostream_error_category
_TEXT	ENDS
; Function compile flags: /Odtp
;	COMDAT ??_G_Generic_error_category@std@@UAEPAXI@Z
_TEXT	SEGMENT
_this$ = -4						; size = 4
___flags$ = 8						; size = 4
??_G_Generic_error_category@std@@UAEPAXI@Z PROC		; std::_Generic_error_category::`scalar deleting destructor', COMDAT
; _this$ = ecx
	push	ebp
	mov	ebp, esp
	push	ecx
	mov	DWORD PTR _this$[ebp], ecx
	mov	ecx, DWORD PTR _this$[ebp]
	call	??1_Generic_error_category@std@@UAE@XZ
	mov	eax, DWORD PTR ___flags$[ebp]
	and	eax, 1
	je	SHORT $LN1@scalar
	mov	ecx, DWORD PTR _this$[ebp]
	push	ecx
	call	??3@YAXPAX@Z				; operator delete
	add	esp, 4
$LN1@scalar:
	mov	eax, DWORD PTR _this$[ebp]
	mov	esp, ebp
	pop	ebp
	ret	4
??_G_Generic_error_category@std@@UAEPAXI@Z ENDP		; std::_Generic_error_category::`scalar deleting destructor'
_TEXT	ENDS
; Function compile flags: /Odtp
;	COMDAT ??1_Generic_error_category@std@@UAE@XZ
_TEXT	SEGMENT
_this$ = -4						; size = 4
??1_Generic_error_category@std@@UAE@XZ PROC		; std::_Generic_error_category::~_Generic_error_category, COMDAT
; _this$ = ecx
	push	ebp
	mov	ebp, esp
	push	ecx
	mov	DWORD PTR _this$[ebp], ecx
	mov	ecx, DWORD PTR _this$[ebp]
	call	??1error_category@std@@UAE@XZ		; std::error_category::~error_category
	mov	esp, ebp
	pop	ebp
	ret	0
??1_Generic_error_category@std@@UAE@XZ ENDP		; std::_Generic_error_category::~_Generic_error_category
_TEXT	ENDS
; Function compile flags: /Odtp
; File c:\program files (x86)\microsoft visual studio 11.0\vc\include\system_error
;	COMDAT ?message@_Generic_error_category@std@@UBE?AV?$basic_string@DU?$char_traits@D@std@@V?$allocator@D@2@@2@H@Z
_TEXT	SEGMENT
_this$ = -16						; size = 4
$T1 = -12						; size = 4
tv69 = -8						; size = 4
__Name$ = -4						; size = 4
___$ReturnUdt$ = 8					; size = 4
__Errcode$ = 12						; size = 4
?message@_Generic_error_category@std@@UBE?AV?$basic_string@DU?$char_traits@D@std@@V?$allocator@D@2@@2@H@Z PROC ; std::_Generic_error_category::message, COMDAT
; _this$ = ecx

; 590  : 		{	// convert to name of error

	push	ebp
	mov	ebp, esp
	sub	esp, 16					; 00000010H
	mov	DWORD PTR _this$[ebp], ecx
	mov	DWORD PTR $T1[ebp], 0

; 591  : 		const char *_Name = _Syserror_map(_Errcode);

	mov	eax, DWORD PTR __Errcode$[ebp]
	push	eax
	call	?_Syserror_map@std@@YAPBDH@Z		; std::_Syserror_map
	add	esp, 4
	mov	DWORD PTR __Name$[ebp], eax

; 592  : 		return (string(_Name != 0 ? _Name : "unknown error"));

	cmp	DWORD PTR __Name$[ebp], 0
	je	SHORT $LN3@message
	mov	ecx, DWORD PTR __Name$[ebp]
	mov	DWORD PTR tv69[ebp], ecx
	jmp	SHORT $LN4@message
$LN3@message:
	mov	DWORD PTR tv69[ebp], OFFSET ??_C@_0O@BFJCFAAK@unknown?5error?$AA@
$LN4@message:
	mov	edx, DWORD PTR tv69[ebp]
	push	edx
	mov	ecx, DWORD PTR ___$ReturnUdt$[ebp]
	call	??0?$basic_string@DU?$char_traits@D@std@@V?$allocator@D@2@@std@@QAE@PBD@Z ; std::basic_string<char,std::char_traits<char>,std::allocator<char> >::basic_string<char,std::char_traits<char>,std::allocator<char> >
	mov	eax, DWORD PTR $T1[ebp]
	or	eax, 1
	mov	DWORD PTR $T1[ebp], eax
	mov	eax, DWORD PTR ___$ReturnUdt$[ebp]

; 593  : 		}

	mov	esp, ebp
	pop	ebp
	ret	8
?message@_Generic_error_category@std@@UBE?AV?$basic_string@DU?$char_traits@D@std@@V?$allocator@D@2@@2@H@Z ENDP ; std::_Generic_error_category::message
_TEXT	ENDS
; Function compile flags: /Odtp
; File c:\program files (x86)\microsoft visual studio 11.0\vc\include\system_error
;	COMDAT ?name@_Generic_error_category@std@@UBEPBDXZ
_TEXT	SEGMENT
_this$ = -4						; size = 4
?name@_Generic_error_category@std@@UBEPBDXZ PROC	; std::_Generic_error_category::name, COMDAT
; _this$ = ecx

; 585  : 		{	// get name of category

	push	ebp
	mov	ebp, esp
	push	ecx
	mov	DWORD PTR _this$[ebp], ecx

; 586  : 		return ("generic");

	mov	eax, OFFSET ??_C@_07DCLBNMLN@generic?$AA@

; 587  : 		}

	mov	esp, ebp
	pop	ebp
	ret	0
?name@_Generic_error_category@std@@UBEPBDXZ ENDP	; std::_Generic_error_category::name
_TEXT	ENDS
; Function compile flags: /Odtp
; File c:\program files (x86)\microsoft visual studio 11.0\vc\include\system_error
;	COMDAT ??0_Generic_error_category@std@@QAE@XZ
_TEXT	SEGMENT
_this$ = -4						; size = 4
??0_Generic_error_category@std@@QAE@XZ PROC		; std::_Generic_error_category::_Generic_error_category, COMDAT
; _this$ = ecx

; 580  : 	_Generic_error_category()

	push	ebp
	mov	ebp, esp
	push	ecx
	mov	DWORD PTR _this$[ebp], ecx
	mov	ecx, DWORD PTR _this$[ebp]
	call	??0error_category@std@@QAE@XZ		; std::error_category::error_category
	mov	eax, DWORD PTR _this$[ebp]
	mov	DWORD PTR [eax], OFFSET ??_7_Generic_error_category@std@@6B@

; 581  : 		{	// default constructor
; 582  : 		}

	mov	eax, DWORD PTR _this$[ebp]
	mov	esp, ebp
	pop	ebp
	ret	0
??0_Generic_error_category@std@@QAE@XZ ENDP		; std::_Generic_error_category::_Generic_error_category
_TEXT	ENDS
; Function compile flags: /Odtp
; File c:\program files (x86)\microsoft visual studio 11.0\vc\include\system_error
;	COMDAT ??8error_condition@std@@QBE_NABV01@@Z
_TEXT	SEGMENT
tv78 = -8						; size = 4
_this$ = -4						; size = 4
__Right$ = 8						; size = 4
??8error_condition@std@@QBE_NABV01@@Z PROC		; std::error_condition::operator==, COMDAT
; _this$ = ecx

; 376  : 		{	// test if *this == _Right

	push	ebp
	mov	ebp, esp
	sub	esp, 8
	push	esi
	mov	DWORD PTR _this$[ebp], ecx

; 377  : 		return (category() == _Right.category()
; 378  : 			&& value() == _Right.value());

	mov	ecx, DWORD PTR __Right$[ebp]
	call	?category@error_condition@std@@QBEABVerror_category@2@XZ ; std::error_condition::category
	push	eax
	mov	ecx, DWORD PTR _this$[ebp]
	call	?category@error_condition@std@@QBEABVerror_category@2@XZ ; std::error_condition::category
	mov	ecx, eax
	call	??8error_category@std@@QBE_NABV01@@Z	; std::error_category::operator==
	movzx	eax, al
	test	eax, eax
	je	SHORT $LN3@operator
	mov	ecx, DWORD PTR _this$[ebp]
	call	?value@error_condition@std@@QBEHXZ	; std::error_condition::value
	mov	esi, eax
	mov	ecx, DWORD PTR __Right$[ebp]
	call	?value@error_condition@std@@QBEHXZ	; std::error_condition::value
	cmp	esi, eax
	jne	SHORT $LN3@operator
	mov	DWORD PTR tv78[ebp], 1
	jmp	SHORT $LN4@operator
$LN3@operator:
	mov	DWORD PTR tv78[ebp], 0
$LN4@operator:
	mov	al, BYTE PTR tv78[ebp]

; 379  : 		}

	pop	esi
	mov	esp, ebp
	pop	ebp
	ret	4
??8error_condition@std@@QBE_NABV01@@Z ENDP		; std::error_condition::operator==
_TEXT	ENDS
; Function compile flags: /Odtp
; File c:\program files (x86)\microsoft visual studio 11.0\vc\include\system_error
;	COMDAT ?category@error_condition@std@@QBEABVerror_category@2@XZ
_TEXT	SEGMENT
_this$ = -4						; size = 4
?category@error_condition@std@@QBEABVerror_category@2@XZ PROC ; std::error_condition::category, COMDAT
; _this$ = ecx

; 354  : 		{	// get category

	push	ebp
	mov	ebp, esp
	push	ecx
	mov	DWORD PTR _this$[ebp], ecx

; 355  : 		return (*_Mycat);

	mov	eax, DWORD PTR _this$[ebp]
	mov	eax, DWORD PTR [eax+4]

; 356  : 		}

	mov	esp, ebp
	pop	ebp
	ret	0
?category@error_condition@std@@QBEABVerror_category@2@XZ ENDP ; std::error_condition::category
_TEXT	ENDS
; Function compile flags: /Odtp
; File c:\program files (x86)\microsoft visual studio 11.0\vc\include\system_error
;	COMDAT ?value@error_condition@std@@QBEHXZ
_TEXT	SEGMENT
_this$ = -4						; size = 4
?value@error_condition@std@@QBEHXZ PROC			; std::error_condition::value, COMDAT
; _this$ = ecx

; 349  : 		{	// get error code

	push	ebp
	mov	ebp, esp
	push	ecx
	mov	DWORD PTR _this$[ebp], ecx

; 350  : 		return (_Myval);

	mov	eax, DWORD PTR _this$[ebp]
	mov	eax, DWORD PTR [eax]

; 351  : 		}

	mov	esp, ebp
	pop	ebp
	ret	0
?value@error_condition@std@@QBEHXZ ENDP			; std::error_condition::value
_TEXT	ENDS
; Function compile flags: /Odtp
; File c:\program files (x86)\microsoft visual studio 11.0\vc\include\system_error
;	COMDAT ??0error_condition@std@@QAE@HABVerror_category@1@@Z
_TEXT	SEGMENT
_this$ = -4						; size = 4
__Val$ = 8						; size = 4
__Cat$ = 12						; size = 4
??0error_condition@std@@QAE@HABVerror_category@1@@Z PROC ; std::error_condition::error_condition, COMDAT
; _this$ = ecx

; 316  : 		{	// construct from error code and category

	push	ebp
	mov	ebp, esp
	push	ecx
	mov	DWORD PTR _this$[ebp], ecx
	mov	eax, DWORD PTR _this$[ebp]
	mov	ecx, DWORD PTR __Val$[ebp]
	mov	DWORD PTR [eax], ecx
	mov	edx, DWORD PTR _this$[ebp]
	mov	eax, DWORD PTR __Cat$[ebp]
	mov	DWORD PTR [edx+4], eax

; 317  : 		}

	mov	eax, DWORD PTR _this$[ebp]
	mov	esp, ebp
	pop	ebp
	ret	8
??0error_condition@std@@QAE@HABVerror_category@1@@Z ENDP ; std::error_condition::error_condition
_TEXT	ENDS
; Function compile flags: /Odtp
; File c:\program files (x86)\microsoft visual studio 11.0\vc\include\system_error
;	COMDAT ?category@error_code@std@@QBEABVerror_category@2@XZ
_TEXT	SEGMENT
_this$ = -4						; size = 4
?category@error_code@std@@QBEABVerror_category@2@XZ PROC ; std::error_code::category, COMDAT
; _this$ = ecx

; 256  : 		{	// get category

	push	ebp
	mov	ebp, esp
	push	ecx
	mov	DWORD PTR _this$[ebp], ecx

; 257  : 		return (*_Mycat);

	mov	eax, DWORD PTR _this$[ebp]
	mov	eax, DWORD PTR [eax+4]

; 258  : 		}

	mov	esp, ebp
	pop	ebp
	ret	0
?category@error_code@std@@QBEABVerror_category@2@XZ ENDP ; std::error_code::category
_TEXT	ENDS
; Function compile flags: /Odtp
; File c:\program files (x86)\microsoft visual studio 11.0\vc\include\system_error
;	COMDAT ?value@error_code@std@@QBEHXZ
_TEXT	SEGMENT
_this$ = -4						; size = 4
?value@error_code@std@@QBEHXZ PROC			; std::error_code::value, COMDAT
; _this$ = ecx

; 251  : 		{	// get error code

	push	ebp
	mov	ebp, esp
	push	ecx
	mov	DWORD PTR _this$[ebp], ecx

; 252  : 		return (_Myval);

	mov	eax, DWORD PTR _this$[ebp]
	mov	eax, DWORD PTR [eax]

; 253  : 		}

	mov	esp, ebp
	pop	ebp
	ret	0
?value@error_code@std@@QBEHXZ ENDP			; std::error_code::value
_TEXT	ENDS
; Function compile flags: /Odtp
;	COMDAT ??_Gerror_category@std@@UAEPAXI@Z
_TEXT	SEGMENT
_this$ = -4						; size = 4
___flags$ = 8						; size = 4
??_Gerror_category@std@@UAEPAXI@Z PROC			; std::error_category::`scalar deleting destructor', COMDAT
; _this$ = ecx
	push	ebp
	mov	ebp, esp
	push	ecx
	mov	DWORD PTR _this$[ebp], ecx
	mov	ecx, DWORD PTR _this$[ebp]
	call	??1error_category@std@@UAE@XZ		; std::error_category::~error_category
	mov	eax, DWORD PTR ___flags$[ebp]
	and	eax, 1
	je	SHORT $LN1@scalar
	mov	ecx, DWORD PTR _this$[ebp]
	push	ecx
	call	??3@YAXPAX@Z				; operator delete
	add	esp, 4
$LN1@scalar:
	mov	eax, DWORD PTR _this$[ebp]
	mov	esp, ebp
	pop	ebp
	ret	4
??_Gerror_category@std@@UAEPAXI@Z ENDP			; std::error_category::`scalar deleting destructor'
_TEXT	ENDS
; Function compile flags: /Odtp
; File c:\program files (x86)\microsoft visual studio 11.0\vc\include\system_error
;	COMDAT ??8error_category@std@@QBE_NABV01@@Z
_TEXT	SEGMENT
_this$ = -8						; size = 4
tv65 = -4						; size = 4
__Right$ = 8						; size = 4
??8error_category@std@@QBE_NABV01@@Z PROC		; std::error_category::operator==, COMDAT
; _this$ = ecx

; 184  : 		{	// compare categories for equality

	push	ebp
	mov	ebp, esp
	sub	esp, 8
	mov	DWORD PTR _this$[ebp], ecx

; 185  : 		return (this == &_Right);

	mov	eax, DWORD PTR _this$[ebp]
	cmp	eax, DWORD PTR __Right$[ebp]
	jne	SHORT $LN3@operator
	mov	DWORD PTR tv65[ebp], 1
	jmp	SHORT $LN4@operator
$LN3@operator:
	mov	DWORD PTR tv65[ebp], 0
$LN4@operator:
	mov	al, BYTE PTR tv65[ebp]

; 186  : 		}

	mov	esp, ebp
	pop	ebp
	ret	4
??8error_category@std@@QBE_NABV01@@Z ENDP		; std::error_category::operator==
_TEXT	ENDS
; Function compile flags: /Odtp
; File c:\program files (x86)\microsoft visual studio 11.0\vc\include\system_error
;	COMDAT ?equivalent@error_category@std@@UBE_NABVerror_code@2@H@Z
_TEXT	SEGMENT
_this$ = -8						; size = 4
tv74 = -4						; size = 4
__Code$ = 8						; size = 4
__Errval$ = 12						; size = 4
?equivalent@error_category@std@@UBE_NABVerror_code@2@H@Z PROC ; std::error_category::equivalent, COMDAT
; _this$ = ecx

; 415  : 	{	// test if conditions same for this category

	push	ebp
	mov	ebp, esp
	sub	esp, 8
	mov	DWORD PTR _this$[ebp], ecx

; 416  : 	return (*this == _Code.category() && _Code.value() == _Errval);

	mov	ecx, DWORD PTR __Code$[ebp]
	call	?category@error_code@std@@QBEABVerror_category@2@XZ ; std::error_code::category
	push	eax
	mov	ecx, DWORD PTR _this$[ebp]
	call	??8error_category@std@@QBE_NABV01@@Z	; std::error_category::operator==
	movzx	eax, al
	test	eax, eax
	je	SHORT $LN3@equivalent
	mov	ecx, DWORD PTR __Code$[ebp]
	call	?value@error_code@std@@QBEHXZ		; std::error_code::value
	cmp	eax, DWORD PTR __Errval$[ebp]
	jne	SHORT $LN3@equivalent
	mov	DWORD PTR tv74[ebp], 1
	jmp	SHORT $LN4@equivalent
$LN3@equivalent:
	mov	DWORD PTR tv74[ebp], 0
$LN4@equivalent:
	mov	al, BYTE PTR tv74[ebp]

; 417  : 	}

	mov	esp, ebp
	pop	ebp
	ret	8
?equivalent@error_category@std@@UBE_NABVerror_code@2@H@Z ENDP ; std::error_category::equivalent
_TEXT	ENDS
; Function compile flags: /Odtp
; File c:\program files (x86)\microsoft visual studio 11.0\vc\include\system_error
;	COMDAT ?equivalent@error_category@std@@UBE_NHABVerror_condition@2@@Z
_TEXT	SEGMENT
$T1 = -12						; size = 8
_this$ = -4						; size = 4
__Errval$ = 8						; size = 4
__Cond$ = 12						; size = 4
?equivalent@error_category@std@@UBE_NHABVerror_condition@2@@Z PROC ; std::error_category::equivalent, COMDAT
; _this$ = ecx

; 408  : 	{	// test if error code same condition

	push	ebp
	mov	ebp, esp
	sub	esp, 12					; 0000000cH
	mov	DWORD PTR _this$[ebp], ecx

; 409  : 	return (default_error_condition(_Errval) == _Cond);

	mov	eax, DWORD PTR __Cond$[ebp]
	push	eax
	mov	ecx, DWORD PTR __Errval$[ebp]
	push	ecx
	lea	edx, DWORD PTR $T1[ebp]
	push	edx
	mov	eax, DWORD PTR _this$[ebp]
	mov	edx, DWORD PTR [eax]
	mov	ecx, DWORD PTR _this$[ebp]
	mov	eax, DWORD PTR [edx+12]
	call	eax
	mov	ecx, eax
	call	??8error_condition@std@@QBE_NABV01@@Z	; std::error_condition::operator==

; 410  : 	}

	mov	esp, ebp
	pop	ebp
	ret	8
?equivalent@error_category@std@@UBE_NHABVerror_condition@2@@Z ENDP ; std::error_category::equivalent
_TEXT	ENDS
; Function compile flags: /Odtp
; File c:\program files (x86)\microsoft visual studio 11.0\vc\include\system_error
;	COMDAT ?default_error_condition@error_category@std@@UBE?AVerror_condition@2@H@Z
_TEXT	SEGMENT
_this$ = -4						; size = 4
___$ReturnUdt$ = 8					; size = 4
__Errval$ = 12						; size = 4
?default_error_condition@error_category@std@@UBE?AVerror_condition@2@H@Z PROC ; std::error_category::default_error_condition, COMDAT
; _this$ = ecx

; 401  : 	{	// make error_condition for error code

	push	ebp
	mov	ebp, esp
	push	ecx
	mov	DWORD PTR _this$[ebp], ecx

; 402  : 	return (error_condition(_Errval, *this));

	mov	eax, DWORD PTR _this$[ebp]
	push	eax
	mov	ecx, DWORD PTR __Errval$[ebp]
	push	ecx
	mov	ecx, DWORD PTR ___$ReturnUdt$[ebp]
	call	??0error_condition@std@@QAE@HABVerror_category@1@@Z ; std::error_condition::error_condition
	mov	eax, DWORD PTR ___$ReturnUdt$[ebp]

; 403  : 	}

	mov	esp, ebp
	pop	ebp
	ret	8
?default_error_condition@error_category@std@@UBE?AVerror_condition@2@H@Z ENDP ; std::error_category::default_error_condition
_TEXT	ENDS
; Function compile flags: /Odtp
; File c:\program files (x86)\microsoft visual studio 11.0\vc\include\system_error
;	COMDAT ??1error_category@std@@UAE@XZ
_TEXT	SEGMENT
_this$ = -4						; size = 4
??1error_category@std@@UAE@XZ PROC			; std::error_category::~error_category, COMDAT
; _this$ = ecx

; 167  : 		{	// destroy the object

	push	ebp
	mov	ebp, esp
	push	ecx
	mov	DWORD PTR _this$[ebp], ecx
	mov	eax, DWORD PTR _this$[ebp]
	mov	DWORD PTR [eax], OFFSET ??_7error_category@std@@6B@

; 168  : 		}

	mov	esp, ebp
	pop	ebp
	ret	0
??1error_category@std@@UAE@XZ ENDP			; std::error_category::~error_category
_TEXT	ENDS
; Function compile flags: /Odtp
; File c:\program files (x86)\microsoft visual studio 11.0\vc\include\system_error
;	COMDAT ??0error_category@std@@QAE@XZ
_TEXT	SEGMENT
_this$ = -4						; size = 4
??0error_category@std@@QAE@XZ PROC			; std::error_category::error_category, COMDAT
; _this$ = ecx

; 162  : 	error_category()

	push	ebp
	mov	ebp, esp
	push	ecx
	mov	DWORD PTR _this$[ebp], ecx
	mov	eax, DWORD PTR _this$[ebp]
	mov	DWORD PTR [eax], OFFSET ??_7error_category@std@@6B@

; 163  : 		{	// default constructor
; 164  : 		}

	mov	eax, DWORD PTR _this$[ebp]
	mov	esp, ebp
	pop	ebp
	ret	0
??0error_category@std@@QAE@XZ ENDP			; std::error_category::error_category
_TEXT	ENDS
; Function compile flags: /Odtp
; File c:\program files (x86)\microsoft visual studio 11.0\vc\include\system_error
;	COMDAT ?system_category@std@@YAABVerror_category@1@XZ
_TEXT	SEGMENT
?system_category@std@@YAABVerror_category@1@XZ PROC	; std::system_category, COMDAT

; 679  : 	{	// get system_category

	push	ebp
	mov	ebp, esp

; 680  : 	return (_Error_objects<int>::_System_object);

	mov	eax, OFFSET ?_System_object@?$_Error_objects@H@std@@2V_System_error_category@2@A ; std::_Error_objects<int>::_System_object

; 681  : 	}

	pop	ebp
	ret	0
?system_category@std@@YAABVerror_category@1@XZ ENDP	; std::system_category
_TEXT	ENDS
; Function compile flags: /Odtp
; File c:\program files (x86)\microsoft visual studio 11.0\vc\include\system_error
;	COMDAT ?generic_category@std@@YAABVerror_category@1@XZ
_TEXT	SEGMENT
?generic_category@std@@YAABVerror_category@1@XZ PROC	; std::generic_category, COMDAT

; 669  : 	{	// get generic_category

	push	ebp
	mov	ebp, esp

; 670  : 	return (_Error_objects<int>::_Generic_object);

	mov	eax, OFFSET ?_Generic_object@?$_Error_objects@H@std@@2V_Generic_error_category@2@A ; std::_Error_objects<int>::_Generic_object

; 671  : 	}

	pop	ebp
	ret	0
?generic_category@std@@YAABVerror_category@1@XZ ENDP	; std::generic_category
_TEXT	ENDS
; Function compile flags: /Odtp
; File c:\program files (x86)\microsoft visual studio 11.0\vc\include\xlocale
;	COMDAT ??0id@locale@std@@QAE@I@Z
_TEXT	SEGMENT
_this$ = -4						; size = 4
__Val$ = 8						; size = 4
??0id@locale@std@@QAE@I@Z PROC				; std::locale::id::id, COMDAT
; _this$ = ecx

; 74   : 			{	// construct with specified stamp value

	push	ebp
	mov	ebp, esp
	push	ecx
	mov	DWORD PTR _this$[ebp], ecx
	mov	eax, DWORD PTR _this$[ebp]
	mov	ecx, DWORD PTR __Val$[ebp]
	mov	DWORD PTR [eax], ecx

; 75   : 			}

	mov	eax, DWORD PTR _this$[ebp]
	mov	esp, ebp
	pop	ebp
	ret	4
??0id@locale@std@@QAE@I@Z ENDP				; std::locale::id::id
_TEXT	ENDS
; Function compile flags: /Odtp
; File c:\program files (x86)\microsoft visual studio 11.0\vc\include\xstring
;	COMDAT ?_Xran@?$basic_string@DU?$char_traits@D@std@@V?$allocator@D@2@@std@@QBEXXZ
_TEXT	SEGMENT
_this$ = -4						; size = 4
?_Xran@?$basic_string@DU?$char_traits@D@std@@V?$allocator@D@2@@std@@QBEXXZ PROC ; std::basic_string<char,std::char_traits<char>,std::allocator<char> >::_Xran, COMDAT
; _this$ = ecx

; 2275 : 		{	// report an out_of_range error

	push	ebp
	mov	ebp, esp
	push	ecx
	mov	DWORD PTR _this$[ebp], ecx

; 2276 : 		_Xout_of_range("invalid string position");

	push	OFFSET ??_C@_0BI@CFPLBAOH@invalid?5string?5position?$AA@
	call	?_Xout_of_range@std@@YAXPBD@Z		; std::_Xout_of_range
$LN2@Xran:

; 2277 : 		}

	mov	esp, ebp
	pop	ebp
	ret	0
?_Xran@?$basic_string@DU?$char_traits@D@std@@V?$allocator@D@2@@std@@QBEXXZ ENDP ; std::basic_string<char,std::char_traits<char>,std::allocator<char> >::_Xran
_TEXT	ENDS
; Function compile flags: /Odtp
; File c:\program files (x86)\microsoft visual studio 11.0\vc\include\xstring
;	COMDAT ?_Xlen@?$basic_string@DU?$char_traits@D@std@@V?$allocator@D@2@@std@@QBEXXZ
_TEXT	SEGMENT
_this$ = -4						; size = 4
?_Xlen@?$basic_string@DU?$char_traits@D@std@@V?$allocator@D@2@@std@@QBEXXZ PROC ; std::basic_string<char,std::char_traits<char>,std::allocator<char> >::_Xlen, COMDAT
; _this$ = ecx

; 2270 : 		{	// report a length_error

	push	ebp
	mov	ebp, esp
	push	ecx
	mov	DWORD PTR _this$[ebp], ecx

; 2271 : 		_Xlength_error("string too long");

	push	OFFSET ??_C@_0BA@JFNIOLAK@string?5too?5long?$AA@
	call	?_Xlength_error@std@@YAXPBD@Z		; std::_Xlength_error
$LN2@Xlen:

; 2272 : 		}

	mov	esp, ebp
	pop	ebp
	ret	0
?_Xlen@?$basic_string@DU?$char_traits@D@std@@V?$allocator@D@2@@std@@QBEXXZ ENDP ; std::basic_string<char,std::char_traits<char>,std::allocator<char> >::_Xlen
_TEXT	ENDS
; Function compile flags: /Odtp
; File c:\program files (x86)\microsoft visual studio 11.0\vc\include\xstring
;	COMDAT ?_Tidy@?$basic_string@DU?$char_traits@D@std@@V?$allocator@D@2@@std@@QAEX_NI@Z
_TEXT	SEGMENT
__Ptr$1 = -12						; size = 4
_this$ = -8						; size = 4
$T2 = -2						; size = 1
$T3 = -1						; size = 1
__Built$ = 8						; size = 1
__Newsize$ = 12						; size = 4
?_Tidy@?$basic_string@DU?$char_traits@D@std@@V?$allocator@D@2@@std@@QAEX_NI@Z PROC ; std::basic_string<char,std::char_traits<char>,std::allocator<char> >::_Tidy, COMDAT
; _this$ = ecx

; 2253 : 		{	// initialize buffer, deallocating any storage

	push	ebp
	mov	ebp, esp
	sub	esp, 12					; 0000000cH
	mov	DWORD PTR _this$[ebp], ecx

; 2254 : 		if (!_Built)

	movzx	eax, BYTE PTR __Built$[ebp]
	test	eax, eax
	jne	SHORT $LN4@Tidy
	jmp	SHORT $LN3@Tidy
$LN4@Tidy:

; 2255 : 			;
; 2256 : 		else if (this->_BUF_SIZE <= this->_Myres)

	mov	ecx, DWORD PTR _this$[ebp]
	cmp	DWORD PTR [ecx+20], 16			; 00000010H
	jb	SHORT $LN3@Tidy

; 2257 : 			{	// copy any leftovers to small buffer and deallocate
; 2258 : 			pointer _Ptr = this->_Bx._Ptr;

	mov	edx, DWORD PTR _this$[ebp]
	mov	eax, DWORD PTR [edx]
	mov	DWORD PTR __Ptr$1[ebp], eax

; 2259 : 			this->_Getal().destroy(&this->_Bx._Ptr);

	mov	ecx, DWORD PTR _this$[ebp]
	push	ecx
	lea	edx, DWORD PTR $T3[ebp]
	push	edx
	mov	ecx, DWORD PTR _this$[ebp]
	call	?_Getal@?$_String_alloc@$0A@U?$_String_base_types@DV?$allocator@D@std@@@std@@@std@@QBE?AU?$_Wrap_alloc@V?$allocator@D@std@@@2@XZ ; std::_String_alloc<0,std::_String_base_types<char,std::allocator<char> > >::_Getal
	mov	ecx, eax
	call	??$destroy@PAD@?$_Wrap_alloc@V?$allocator@D@std@@@std@@QAEXPAPAD@Z ; std::_Wrap_alloc<std::allocator<char> >::destroy<char *>

; 2260 : 			if (0 < _Newsize)

	cmp	DWORD PTR __Newsize$[ebp], 0
	jbe	SHORT $LN1@Tidy

; 2261 : 				_Traits::copy(this->_Bx._Buf,
; 2262 : 					_STD addressof(*_Ptr), _Newsize);

	mov	eax, DWORD PTR __Newsize$[ebp]
	push	eax
	mov	ecx, DWORD PTR __Ptr$1[ebp]
	push	ecx
	call	??$addressof@D@std@@YAPADAAD@Z		; std::addressof<char>
	add	esp, 4
	push	eax
	mov	edx, DWORD PTR _this$[ebp]
	push	edx
	call	?copy@?$char_traits@D@std@@SAPADPADPBDI@Z ; std::char_traits<char>::copy
	add	esp, 12					; 0000000cH
$LN1@Tidy:

; 2263 : 			this->_Getal().deallocate(_Ptr, this->_Myres + 1);

	mov	eax, DWORD PTR _this$[ebp]
	mov	ecx, DWORD PTR [eax+20]
	add	ecx, 1
	push	ecx
	mov	edx, DWORD PTR __Ptr$1[ebp]
	push	edx
	lea	eax, DWORD PTR $T2[ebp]
	push	eax
	mov	ecx, DWORD PTR _this$[ebp]
	call	?_Getal@?$_String_alloc@$0A@U?$_String_base_types@DV?$allocator@D@std@@@std@@@std@@QBE?AU?$_Wrap_alloc@V?$allocator@D@std@@@2@XZ ; std::_String_alloc<0,std::_String_base_types<char,std::allocator<char> > >::_Getal
	mov	ecx, eax
	call	?deallocate@?$_Wrap_alloc@V?$allocator@D@std@@@std@@QAEXPADI@Z ; std::_Wrap_alloc<std::allocator<char> >::deallocate
$LN3@Tidy:

; 2264 : 			}
; 2265 : 		this->_Myres = this->_BUF_SIZE - 1;

	mov	ecx, DWORD PTR _this$[ebp]
	mov	DWORD PTR [ecx+20], 15			; 0000000fH

; 2266 : 		_Eos(_Newsize);

	mov	edx, DWORD PTR __Newsize$[ebp]
	push	edx
	mov	ecx, DWORD PTR _this$[ebp]
	call	?_Eos@?$basic_string@DU?$char_traits@D@std@@V?$allocator@D@2@@std@@QAEXI@Z ; std::basic_string<char,std::char_traits<char>,std::allocator<char> >::_Eos

; 2267 : 		}

	mov	esp, ebp
	pop	ebp
	ret	8
?_Tidy@?$basic_string@DU?$char_traits@D@std@@V?$allocator@D@2@@std@@QAEX_NI@Z ENDP ; std::basic_string<char,std::char_traits<char>,std::allocator<char> >::_Tidy
_TEXT	ENDS
; Function compile flags: /Odtp
; File c:\program files (x86)\microsoft visual studio 11.0\vc\include\xstring
;	COMDAT ?_Inside@?$basic_string@DU?$char_traits@D@std@@V?$allocator@D@2@@std@@QAE_NPBD@Z
_TEXT	SEGMENT
_this$ = -4						; size = 4
__Ptr$ = 8						; size = 4
?_Inside@?$basic_string@DU?$char_traits@D@std@@V?$allocator@D@2@@std@@QAE_NPBD@Z PROC ; std::basic_string<char,std::char_traits<char>,std::allocator<char> >::_Inside, COMDAT
; _this$ = ecx

; 2237 : 		{	// test if _Ptr points inside string

	push	ebp
	mov	ebp, esp
	push	ecx
	mov	DWORD PTR _this$[ebp], ecx

; 2238 : 		if (_Ptr == 0 || _Ptr < this->_Myptr()
; 2239 : 			|| this->_Myptr() + this->_Mysize <= _Ptr)

	cmp	DWORD PTR __Ptr$[ebp], 0
	je	SHORT $LN2@Inside
	mov	ecx, DWORD PTR _this$[ebp]
	call	?_Myptr@?$_String_val@U?$_Simple_types@D@std@@@std@@QAEPADXZ ; std::_String_val<std::_Simple_types<char> >::_Myptr
	cmp	DWORD PTR __Ptr$[ebp], eax
	jb	SHORT $LN2@Inside
	mov	ecx, DWORD PTR _this$[ebp]
	call	?_Myptr@?$_String_val@U?$_Simple_types@D@std@@@std@@QAEPADXZ ; std::_String_val<std::_Simple_types<char> >::_Myptr
	mov	ecx, DWORD PTR _this$[ebp]
	add	eax, DWORD PTR [ecx+16]
	cmp	eax, DWORD PTR __Ptr$[ebp]
	ja	SHORT $LN3@Inside
$LN2@Inside:

; 2240 : 			return (false);	// don't ask

	xor	al, al
	jmp	SHORT $LN4@Inside

; 2241 : 		else

	jmp	SHORT $LN4@Inside
$LN3@Inside:

; 2242 : 			return (true);

	mov	al, 1
$LN4@Inside:

; 2243 : 		}

	mov	esp, ebp
	pop	ebp
	ret	4
?_Inside@?$basic_string@DU?$char_traits@D@std@@V?$allocator@D@2@@std@@QAE_NPBD@Z ENDP ; std::basic_string<char,std::char_traits<char>,std::allocator<char> >::_Inside
_TEXT	ENDS
; Function compile flags: /Odtp
; File c:\program files (x86)\microsoft visual studio 11.0\vc\include\xstring
;	COMDAT ?_Grow@?$basic_string@DU?$char_traits@D@std@@V?$allocator@D@2@@std@@QAE_NI_N@Z
_TEXT	SEGMENT
tv136 = -12						; size = 4
tv129 = -8						; size = 4
_this$ = -4						; size = 4
__Newsize$ = 8						; size = 4
__Trim$ = 12						; size = 1
?_Grow@?$basic_string@DU?$char_traits@D@std@@V?$allocator@D@2@@std@@QAE_NI_N@Z PROC ; std::basic_string<char,std::char_traits<char>,std::allocator<char> >::_Grow, COMDAT
; _this$ = ecx

; 2223 : 		{	// ensure buffer is big enough, trim to size if _Trim is true

	push	ebp
	mov	ebp, esp
	sub	esp, 12					; 0000000cH
	mov	DWORD PTR _this$[ebp], ecx

; 2224 : 		if (max_size() < _Newsize)

	mov	ecx, DWORD PTR _this$[ebp]
	call	?max_size@?$basic_string@DU?$char_traits@D@std@@V?$allocator@D@2@@std@@QBEIXZ ; std::basic_string<char,std::char_traits<char>,std::allocator<char> >::max_size
	cmp	eax, DWORD PTR __Newsize$[ebp]
	jae	SHORT $LN6@Grow

; 2225 : 			_Xlen();	// result too long

	mov	ecx, DWORD PTR _this$[ebp]
	call	?_Xlen@?$basic_string@DU?$char_traits@D@std@@V?$allocator@D@2@@std@@QBEXXZ ; std::basic_string<char,std::char_traits<char>,std::allocator<char> >::_Xlen
$LN6@Grow:

; 2226 : 		if (this->_Myres < _Newsize)

	mov	eax, DWORD PTR _this$[ebp]
	mov	ecx, DWORD PTR [eax+20]
	cmp	ecx, DWORD PTR __Newsize$[ebp]
	jae	SHORT $LN5@Grow

; 2227 : 			_Copy(_Newsize, this->_Mysize);	// reallocate to grow

	mov	edx, DWORD PTR _this$[ebp]
	mov	eax, DWORD PTR [edx+16]
	push	eax
	mov	ecx, DWORD PTR __Newsize$[ebp]
	push	ecx
	mov	ecx, DWORD PTR _this$[ebp]
	call	?_Copy@?$basic_string@DU?$char_traits@D@std@@V?$allocator@D@2@@std@@QAEXII@Z ; std::basic_string<char,std::char_traits<char>,std::allocator<char> >::_Copy
	jmp	SHORT $LN4@Grow
$LN5@Grow:

; 2228 : 		else if (_Trim && _Newsize < this->_BUF_SIZE)

	movzx	edx, BYTE PTR __Trim$[ebp]
	test	edx, edx
	je	SHORT $LN3@Grow
	cmp	DWORD PTR __Newsize$[ebp], 16		; 00000010H
	jae	SHORT $LN3@Grow

; 2229 : 			_Tidy(true,	// copy and deallocate if trimming to small string
; 2230 : 				_Newsize < this->_Mysize ? _Newsize : this->_Mysize);

	mov	eax, DWORD PTR _this$[ebp]
	mov	ecx, DWORD PTR __Newsize$[ebp]
	cmp	ecx, DWORD PTR [eax+16]
	jae	SHORT $LN9@Grow
	mov	edx, DWORD PTR __Newsize$[ebp]
	mov	DWORD PTR tv129[ebp], edx
	jmp	SHORT $LN10@Grow
$LN9@Grow:
	mov	eax, DWORD PTR _this$[ebp]
	mov	ecx, DWORD PTR [eax+16]
	mov	DWORD PTR tv129[ebp], ecx
$LN10@Grow:
	mov	edx, DWORD PTR tv129[ebp]
	push	edx
	push	1
	mov	ecx, DWORD PTR _this$[ebp]
	call	?_Tidy@?$basic_string@DU?$char_traits@D@std@@V?$allocator@D@2@@std@@QAEX_NI@Z ; std::basic_string<char,std::char_traits<char>,std::allocator<char> >::_Tidy
	jmp	SHORT $LN4@Grow
$LN3@Grow:

; 2231 : 		else if (_Newsize == 0)

	cmp	DWORD PTR __Newsize$[ebp], 0
	jne	SHORT $LN4@Grow

; 2232 : 			_Eos(0);	// new size is zero, just null terminate

	push	0
	mov	ecx, DWORD PTR _this$[ebp]
	call	?_Eos@?$basic_string@DU?$char_traits@D@std@@V?$allocator@D@2@@std@@QAEXI@Z ; std::basic_string<char,std::char_traits<char>,std::allocator<char> >::_Eos
$LN4@Grow:

; 2233 : 		return (0 < _Newsize);	// return true only if more work to do

	cmp	DWORD PTR __Newsize$[ebp], 0
	jbe	SHORT $LN11@Grow
	mov	DWORD PTR tv136[ebp], 1
	jmp	SHORT $LN12@Grow
$LN11@Grow:
	mov	DWORD PTR tv136[ebp], 0
$LN12@Grow:
	mov	al, BYTE PTR tv136[ebp]
$LN8@Grow:

; 2234 : 		}

	mov	esp, ebp
	pop	ebp
	ret	8
?_Grow@?$basic_string@DU?$char_traits@D@std@@V?$allocator@D@2@@std@@QAE_NI_N@Z ENDP ; std::basic_string<char,std::char_traits<char>,std::allocator<char> >::_Grow
_TEXT	ENDS
; Function compile flags: /Odtp
; File c:\program files (x86)\microsoft visual studio 11.0\vc\include\xstring
;	COMDAT ?_Eos@?$basic_string@DU?$char_traits@D@std@@V?$allocator@D@2@@std@@QAEXI@Z
_TEXT	SEGMENT
_this$ = -8						; size = 4
$T1 = -1						; size = 1
__Newsize$ = 8						; size = 4
?_Eos@?$basic_string@DU?$char_traits@D@std@@V?$allocator@D@2@@std@@QAEXI@Z PROC ; std::basic_string<char,std::char_traits<char>,std::allocator<char> >::_Eos, COMDAT
; _this$ = ecx

; 2217 : 		{	// set new length and null terminator

	push	ebp
	mov	ebp, esp
	sub	esp, 8
	mov	DWORD PTR _this$[ebp], ecx

; 2218 : 		_Traits::assign(this->_Myptr()[this->_Mysize = _Newsize], _Elem());

	mov	BYTE PTR $T1[ebp], 0
	mov	eax, DWORD PTR _this$[ebp]
	mov	ecx, DWORD PTR __Newsize$[ebp]
	mov	DWORD PTR [eax+16], ecx
	lea	edx, DWORD PTR $T1[ebp]
	push	edx
	mov	ecx, DWORD PTR _this$[ebp]
	call	?_Myptr@?$_String_val@U?$_Simple_types@D@std@@@std@@QAEPADXZ ; std::_String_val<std::_Simple_types<char> >::_Myptr
	add	eax, DWORD PTR __Newsize$[ebp]
	push	eax
	call	?assign@?$char_traits@D@std@@SAXAADABD@Z ; std::char_traits<char>::assign
	add	esp, 8

; 2219 : 		}

	mov	esp, ebp
	pop	ebp
	ret	4
?_Eos@?$basic_string@DU?$char_traits@D@std@@V?$allocator@D@2@@std@@QAEXI@Z ENDP ; std::basic_string<char,std::char_traits<char>,std::allocator<char> >::_Eos
_TEXT	ENDS
; Function compile flags: /Odtp
; File c:\program files (x86)\microsoft visual studio 11.0\vc\include\xstring
;	COMDAT ?_Copy@?$basic_string@DU?$char_traits@D@std@@V?$allocator@D@2@@std@@QAEXII@Z
_TEXT	SEGMENT
tv205 = -48						; size = 4
tv204 = -44						; size = 4
tv203 = -40						; size = 4
tv202 = -36						; size = 4
__Ptr$ = -32						; size = 4
__Newres$ = -28						; size = 4
_this$ = -24						; size = 4
$T2 = -19						; size = 1
$T3 = -18						; size = 1
$T4 = -17						; size = 1
__$EHRec$ = -16						; size = 16
__Newsize$ = 8						; size = 4
__Oldlen$ = 12						; size = 4
?_Copy@?$basic_string@DU?$char_traits@D@std@@V?$allocator@D@2@@std@@QAEXII@Z PROC ; std::basic_string<char,std::char_traits<char>,std::allocator<char> >::_Copy, COMDAT
; _this$ = ecx

; 2182 : 		{	// copy _Oldlen elements to newly allocated buffer

	push	ebp
	mov	ebp, esp
	push	-1
	push	__ehhandler$?_Copy@?$basic_string@DU?$char_traits@D@std@@V?$allocator@D@2@@std@@QAEXII@Z
	mov	eax, DWORD PTR fs:0
	push	eax
	push	ecx
	sub	esp, 32					; 00000020H
	push	ebx
	push	esi
	push	edi
	mov	eax, DWORD PTR ___security_cookie
	xor	eax, ebp
	push	eax
	lea	eax, DWORD PTR __$EHRec$[ebp+4]
	mov	DWORD PTR fs:0, eax
	mov	DWORD PTR __$EHRec$[ebp], esp
	mov	DWORD PTR _this$[ebp], ecx

; 2183 : 		size_type _Newres = _Newsize | this->_ALLOC_MASK;

	mov	eax, DWORD PTR __Newsize$[ebp]
	or	eax, 15					; 0000000fH
	mov	DWORD PTR __Newres$[ebp], eax

; 2184 : 		if (max_size() < _Newres)

	mov	ecx, DWORD PTR _this$[ebp]
	call	?max_size@?$basic_string@DU?$char_traits@D@std@@V?$allocator@D@2@@std@@QBEIXZ ; std::basic_string<char,std::char_traits<char>,std::allocator<char> >::max_size
	cmp	eax, DWORD PTR __Newres$[ebp]
	jae	SHORT $LN9@Copy

; 2185 : 			_Newres = _Newsize;	// undo roundup if too big

	mov	ecx, DWORD PTR __Newsize$[ebp]
	mov	DWORD PTR __Newres$[ebp], ecx
	jmp	SHORT $LN8@Copy
$LN9@Copy:

; 2186 : 		else if (this->_Myres / 2 <= _Newres / 3)

	mov	eax, DWORD PTR __Newres$[ebp]
	xor	edx, edx
	mov	ecx, 3
	div	ecx
	mov	edx, DWORD PTR _this$[ebp]
	mov	ecx, DWORD PTR [edx+20]
	shr	ecx, 1
	cmp	ecx, eax
	ja	SHORT $LN7@Copy
	jmp	SHORT $LN8@Copy
$LN7@Copy:

; 2187 : 			;
; 2188 : 		else if (this->_Myres <= max_size() - this->_Myres / 2)

	mov	edx, DWORD PTR _this$[ebp]
	mov	esi, DWORD PTR [edx+20]
	shr	esi, 1
	mov	ecx, DWORD PTR _this$[ebp]
	call	?max_size@?$basic_string@DU?$char_traits@D@std@@V?$allocator@D@2@@std@@QBEIXZ ; std::basic_string<char,std::char_traits<char>,std::allocator<char> >::max_size
	sub	eax, esi
	mov	ecx, DWORD PTR _this$[ebp]
	cmp	DWORD PTR [ecx+20], eax
	ja	SHORT $LN5@Copy

; 2189 : 			_Newres = this->_Myres
; 2190 : 				+ this->_Myres / 2;	// grow exponentially if possible

	mov	edx, DWORD PTR _this$[ebp]
	mov	eax, DWORD PTR [edx+20]
	shr	eax, 1
	mov	ecx, DWORD PTR _this$[ebp]
	add	eax, DWORD PTR [ecx+20]
	mov	DWORD PTR __Newres$[ebp], eax

; 2191 : 		else

	jmp	SHORT $LN8@Copy
$LN5@Copy:

; 2192 : 			_Newres = max_size();	// settle for max_size()

	mov	ecx, DWORD PTR _this$[ebp]
	call	?max_size@?$basic_string@DU?$char_traits@D@std@@V?$allocator@D@2@@std@@QBEIXZ ; std::basic_string<char,std::char_traits<char>,std::allocator<char> >::max_size
	mov	DWORD PTR __Newres$[ebp], eax
$LN8@Copy:

; 2193 : 
; 2194 : 		_Elem *_Ptr;
; 2195 : 		_TRY_BEGIN

	mov	DWORD PTR __$EHRec$[ebp+12], 0

; 2196 : 			_Ptr = this->_Getal().allocate(_Newres + 1);

	lea	edx, DWORD PTR $T4[ebp]
	push	edx
	mov	ecx, DWORD PTR _this$[ebp]
	call	?_Getal@?$_String_alloc@$0A@U?$_String_base_types@DV?$allocator@D@std@@@std@@@std@@QBE?AU?$_Wrap_alloc@V?$allocator@D@std@@@2@XZ ; std::_String_alloc<0,std::_String_base_types<char,std::allocator<char> > >::_Getal
	mov	DWORD PTR tv202[ebp], eax
	mov	eax, DWORD PTR __Newres$[ebp]
	add	eax, 1
	push	eax
	mov	ecx, DWORD PTR tv202[ebp]
	call	?allocate@?$_Wrap_alloc@V?$allocator@D@std@@@std@@QAEPADI@Z ; std::_Wrap_alloc<std::allocator<char> >::allocate
	mov	DWORD PTR tv203[ebp], eax
	mov	ecx, DWORD PTR tv203[ebp]
	mov	DWORD PTR __Ptr$[ebp], ecx
	jmp	SHORT $LN12@Copy
__catch$?_Copy@?$basic_string@DU?$char_traits@D@std@@V?$allocator@D@2@@std@@QAEXII@Z$0:

; 2197 : 		_CATCH_ALL

	mov	DWORD PTR __$EHRec$[ebp], esp

; 2198 : 			_Newres = _Newsize;	// allocation failed, undo roundup and retry

	mov	edx, DWORD PTR __Newsize$[ebp]
	mov	DWORD PTR __Newres$[ebp], edx

; 2199 : 			_TRY_BEGIN

	mov	BYTE PTR __$EHRec$[ebp+12], 2

; 2200 : 				_Ptr = this->_Getal().allocate(_Newres + 1);

	lea	eax, DWORD PTR $T3[ebp]
	push	eax
	mov	ecx, DWORD PTR _this$[ebp]
	call	?_Getal@?$_String_alloc@$0A@U?$_String_base_types@DV?$allocator@D@std@@@std@@@std@@QBE?AU?$_Wrap_alloc@V?$allocator@D@std@@@2@XZ ; std::_String_alloc<0,std::_String_base_types<char,std::allocator<char> > >::_Getal
	mov	DWORD PTR tv204[ebp], eax
	mov	ecx, DWORD PTR __Newres$[ebp]
	add	ecx, 1
	push	ecx
	mov	ecx, DWORD PTR tv204[ebp]
	call	?allocate@?$_Wrap_alloc@V?$allocator@D@std@@@std@@QAEPADI@Z ; std::_Wrap_alloc<std::allocator<char> >::allocate
	mov	DWORD PTR tv205[ebp], eax
	mov	edx, DWORD PTR tv205[ebp]
	mov	DWORD PTR __Ptr$[ebp], edx
	jmp	SHORT $LN14@Copy
__catch$?_Copy@?$basic_string@DU?$char_traits@D@std@@V?$allocator@D@2@@std@@QAEXII@Z$1:

; 2201 : 			_CATCH_ALL
; 2202 : 			_Tidy(true);	// failed again, discard storage and reraise

	push	0
	push	1
	mov	ecx, DWORD PTR _this$[ebp]
	call	?_Tidy@?$basic_string@DU?$char_traits@D@std@@V?$allocator@D@2@@std@@QAEX_NI@Z ; std::basic_string<char,std::char_traits<char>,std::allocator<char> >::_Tidy

; 2203 : 			_RERAISE;

	push	0
	push	0
	call	__CxxThrowException@8

; 2204 : 			_CATCH_END

	mov	eax, $LN17@Copy
	ret	0
$LN14@Copy:
	mov	DWORD PTR __$EHRec$[ebp+12], 1
	jmp	SHORT __tryend$?_Copy@?$basic_string@DU?$char_traits@D@std@@V?$allocator@D@2@@std@@QAEXII@Z$2
$LN17@Copy:
	mov	DWORD PTR __$EHRec$[ebp+12], 1
__tryend$?_Copy@?$basic_string@DU?$char_traits@D@std@@V?$allocator@D@2@@std@@QAEXII@Z$2:

; 2205 : 		_CATCH_END

	mov	eax, $LN19@Copy
	ret	0
$LN12@Copy:
	mov	DWORD PTR __$EHRec$[ebp+12], -1
	jmp	SHORT __tryend$?_Copy@?$basic_string@DU?$char_traits@D@std@@V?$allocator@D@2@@std@@QAEXII@Z$3
$LN19@Copy:
	mov	DWORD PTR __$EHRec$[ebp+12], -1
__tryend$?_Copy@?$basic_string@DU?$char_traits@D@std@@V?$allocator@D@2@@std@@QAEXII@Z$3:

; 2206 : 
; 2207 : 		if (0 < _Oldlen)

	cmp	DWORD PTR __Oldlen$[ebp], 0
	jbe	SHORT $LN1@Copy

; 2208 : 			_Traits::copy(_Ptr, this->_Myptr(),
; 2209 : 				_Oldlen);	// copy existing elements

	mov	eax, DWORD PTR __Oldlen$[ebp]
	push	eax
	mov	ecx, DWORD PTR _this$[ebp]
	call	?_Myptr@?$_String_val@U?$_Simple_types@D@std@@@std@@QAEPADXZ ; std::_String_val<std::_Simple_types<char> >::_Myptr
	push	eax
	mov	ecx, DWORD PTR __Ptr$[ebp]
	push	ecx
	call	?copy@?$char_traits@D@std@@SAPADPADPBDI@Z ; std::char_traits<char>::copy
	add	esp, 12					; 0000000cH
$LN1@Copy:

; 2210 : 		_Tidy(true);

	push	0
	push	1
	mov	ecx, DWORD PTR _this$[ebp]
	call	?_Tidy@?$basic_string@DU?$char_traits@D@std@@V?$allocator@D@2@@std@@QAEX_NI@Z ; std::basic_string<char,std::char_traits<char>,std::allocator<char> >::_Tidy

; 2211 : 		this->_Getal().construct(&this->_Bx._Ptr, _Ptr);

	lea	edx, DWORD PTR __Ptr$[ebp]
	push	edx
	mov	eax, DWORD PTR _this$[ebp]
	push	eax
	lea	ecx, DWORD PTR $T2[ebp]
	push	ecx
	mov	ecx, DWORD PTR _this$[ebp]
	call	?_Getal@?$_String_alloc@$0A@U?$_String_base_types@DV?$allocator@D@std@@@std@@@std@@QBE?AU?$_Wrap_alloc@V?$allocator@D@std@@@2@XZ ; std::_String_alloc<0,std::_String_base_types<char,std::allocator<char> > >::_Getal
	mov	ecx, eax
	call	??$construct@PADAAPAD@?$_Wrap_alloc@V?$allocator@D@std@@@std@@QAEXPAPADAAPAD@Z ; std::_Wrap_alloc<std::allocator<char> >::construct<char *,char * &>

; 2212 : 		this->_Myres = _Newres;

	mov	edx, DWORD PTR _this$[ebp]
	mov	eax, DWORD PTR __Newres$[ebp]
	mov	DWORD PTR [edx+20], eax

; 2213 : 		_Eos(_Oldlen);

	mov	ecx, DWORD PTR __Oldlen$[ebp]
	push	ecx
	mov	ecx, DWORD PTR _this$[ebp]
	call	?_Eos@?$basic_string@DU?$char_traits@D@std@@V?$allocator@D@2@@std@@QAEXI@Z ; std::basic_string<char,std::char_traits<char>,std::allocator<char> >::_Eos
$LN11@Copy:

; 2214 : 		}

	mov	ecx, DWORD PTR __$EHRec$[ebp+4]
	mov	DWORD PTR fs:0, ecx
	pop	ecx
	pop	edi
	pop	esi
	pop	ebx
	mov	esp, ebp
	pop	ebp
	ret	8
_TEXT	ENDS
;	COMDAT text$x
text$x	SEGMENT
__ehhandler$?_Copy@?$basic_string@DU?$char_traits@D@std@@V?$allocator@D@2@@std@@QAEXII@Z:
	mov	edx, DWORD PTR [esp+8]
	lea	eax, DWORD PTR [edx+12]
	mov	ecx, DWORD PTR [edx-52]
	xor	ecx, eax
	call	@__security_check_cookie@4
	mov	eax, OFFSET __ehfuncinfo$?_Copy@?$basic_string@DU?$char_traits@D@std@@V?$allocator@D@2@@std@@QAEXII@Z
	jmp	___CxxFrameHandler3
text$x	ENDS
?_Copy@?$basic_string@DU?$char_traits@D@std@@V?$allocator@D@2@@std@@QAEXII@Z ENDP ; std::basic_string<char,std::char_traits<char>,std::allocator<char> >::_Copy
; Function compile flags: /Odtp
; File c:\program files (x86)\microsoft visual studio 11.0\vc\include\xstring
;	COMDAT ?max_size@?$basic_string@DU?$char_traits@D@std@@V?$allocator@D@2@@std@@QBEIXZ
_TEXT	SEGMENT
_this$ = -16						; size = 4
tv75 = -12						; size = 4
__Num$ = -8						; size = 4
$T1 = -1						; size = 1
?max_size@?$basic_string@DU?$char_traits@D@std@@V?$allocator@D@2@@std@@QBEIXZ PROC ; std::basic_string<char,std::char_traits<char>,std::allocator<char> >::max_size, COMDAT
; _this$ = ecx

; 1737 : 		{	// return maximum possible length of sequence

	push	ebp
	mov	ebp, esp
	sub	esp, 16					; 00000010H
	mov	DWORD PTR _this$[ebp], ecx

; 1738 : 		size_type _Num = this->_Getal().max_size();

	lea	eax, DWORD PTR $T1[ebp]
	push	eax
	mov	ecx, DWORD PTR _this$[ebp]
	call	?_Getal@?$_String_alloc@$0A@U?$_String_base_types@DV?$allocator@D@std@@@std@@@std@@QBE?AU?$_Wrap_alloc@V?$allocator@D@std@@@2@XZ ; std::_String_alloc<0,std::_String_base_types<char,std::allocator<char> > >::_Getal
	mov	ecx, eax
	call	?max_size@?$_Wrap_alloc@V?$allocator@D@std@@@std@@QBEIXZ ; std::_Wrap_alloc<std::allocator<char> >::max_size
	mov	DWORD PTR __Num$[ebp], eax

; 1739 : 		return (_Num <= 1 ? 1 : _Num - 1);

	cmp	DWORD PTR __Num$[ebp], 1
	ja	SHORT $LN3@max_size
	mov	DWORD PTR tv75[ebp], 1
	jmp	SHORT $LN4@max_size
$LN3@max_size:
	mov	ecx, DWORD PTR __Num$[ebp]
	sub	ecx, 1
	mov	DWORD PTR tv75[ebp], ecx
$LN4@max_size:
	mov	eax, DWORD PTR tv75[ebp]

; 1740 : 		}

	mov	esp, ebp
	pop	ebp
	ret	0
?max_size@?$basic_string@DU?$char_traits@D@std@@V?$allocator@D@2@@std@@QBEIXZ ENDP ; std::basic_string<char,std::char_traits<char>,std::allocator<char> >::max_size
_TEXT	ENDS
; Function compile flags: /Odtp
; File c:\program files (x86)\microsoft visual studio 11.0\vc\include\xstring
;	COMDAT ?size@?$basic_string@DU?$char_traits@D@std@@V?$allocator@D@2@@std@@QBEIXZ
_TEXT	SEGMENT
_this$ = -4						; size = 4
?size@?$basic_string@DU?$char_traits@D@std@@V?$allocator@D@2@@std@@QBEIXZ PROC ; std::basic_string<char,std::char_traits<char>,std::allocator<char> >::size, COMDAT
; _this$ = ecx

; 1732 : 		{	// return length of sequence

	push	ebp
	mov	ebp, esp
	push	ecx
	mov	DWORD PTR _this$[ebp], ecx

; 1733 : 		return (this->_Mysize);

	mov	eax, DWORD PTR _this$[ebp]
	mov	eax, DWORD PTR [eax+16]

; 1734 : 		}

	mov	esp, ebp
	pop	ebp
	ret	0
?size@?$basic_string@DU?$char_traits@D@std@@V?$allocator@D@2@@std@@QBEIXZ ENDP ; std::basic_string<char,std::char_traits<char>,std::allocator<char> >::size
_TEXT	ENDS
; Function compile flags: /Odtp
; File c:\program files (x86)\microsoft visual studio 11.0\vc\include\xstring
;	COMDAT ?erase@?$basic_string@DU?$char_traits@D@std@@V?$allocator@D@2@@std@@QAEAAV12@II@Z
_TEXT	SEGMENT
__Newsize$1 = -12					; size = 4
__Ptr$2 = -8						; size = 4
_this$ = -4						; size = 4
__Off$ = 8						; size = 4
__Count$ = 12						; size = 4
?erase@?$basic_string@DU?$char_traits@D@std@@V?$allocator@D@2@@std@@QAEAAV12@II@Z PROC ; std::basic_string<char,std::char_traits<char>,std::allocator<char> >::erase, COMDAT
; _this$ = ecx

; 1317 : 		{	// erase elements [_Off, _Off + _Count)

	push	ebp
	mov	ebp, esp
	sub	esp, 12					; 0000000cH
	mov	DWORD PTR _this$[ebp], ecx

; 1318 : 		if (this->_Mysize < _Off)

	mov	eax, DWORD PTR _this$[ebp]
	mov	ecx, DWORD PTR [eax+16]
	cmp	ecx, DWORD PTR __Off$[ebp]
	jae	SHORT $LN4@erase

; 1319 : 			_Xran();	// _Off off end

	mov	ecx, DWORD PTR _this$[ebp]
	call	?_Xran@?$basic_string@DU?$char_traits@D@std@@V?$allocator@D@2@@std@@QBEXXZ ; std::basic_string<char,std::char_traits<char>,std::allocator<char> >::_Xran
$LN4@erase:

; 1320 : 		if (this->_Mysize - _Off <= _Count)

	mov	edx, DWORD PTR _this$[ebp]
	mov	eax, DWORD PTR [edx+16]
	sub	eax, DWORD PTR __Off$[ebp]
	cmp	eax, DWORD PTR __Count$[ebp]
	ja	SHORT $LN3@erase

; 1321 : 			_Eos(_Off);	// erase elements [_Off, ...)

	mov	ecx, DWORD PTR __Off$[ebp]
	push	ecx
	mov	ecx, DWORD PTR _this$[ebp]
	call	?_Eos@?$basic_string@DU?$char_traits@D@std@@V?$allocator@D@2@@std@@QAEXI@Z ; std::basic_string<char,std::char_traits<char>,std::allocator<char> >::_Eos
	jmp	SHORT $LN2@erase
$LN3@erase:

; 1322 : 		else if (0 < _Count)

	cmp	DWORD PTR __Count$[ebp], 0
	jbe	SHORT $LN2@erase

; 1323 : 			{	// move elements down
; 1324 : 			value_type *_Ptr = this->_Myptr() + _Off;

	mov	ecx, DWORD PTR _this$[ebp]
	call	?_Myptr@?$_String_val@U?$_Simple_types@D@std@@@std@@QAEPADXZ ; std::_String_val<std::_Simple_types<char> >::_Myptr
	add	eax, DWORD PTR __Off$[ebp]
	mov	DWORD PTR __Ptr$2[ebp], eax

; 1325 : 			size_type _Newsize = this->_Mysize - _Count;

	mov	edx, DWORD PTR _this$[ebp]
	mov	eax, DWORD PTR [edx+16]
	sub	eax, DWORD PTR __Count$[ebp]
	mov	DWORD PTR __Newsize$1[ebp], eax

; 1326 : 			_Traits::move(_Ptr, _Ptr + _Count, _Newsize - _Off);

	mov	ecx, DWORD PTR __Newsize$1[ebp]
	sub	ecx, DWORD PTR __Off$[ebp]
	push	ecx
	mov	edx, DWORD PTR __Ptr$2[ebp]
	add	edx, DWORD PTR __Count$[ebp]
	push	edx
	mov	eax, DWORD PTR __Ptr$2[ebp]
	push	eax
	call	?move@?$char_traits@D@std@@SAPADPADPBDI@Z ; std::char_traits<char>::move
	add	esp, 12					; 0000000cH

; 1327 : 			_Eos(_Newsize);

	mov	ecx, DWORD PTR __Newsize$1[ebp]
	push	ecx
	mov	ecx, DWORD PTR _this$[ebp]
	call	?_Eos@?$basic_string@DU?$char_traits@D@std@@V?$allocator@D@2@@std@@QAEXI@Z ; std::basic_string<char,std::char_traits<char>,std::allocator<char> >::_Eos
$LN2@erase:

; 1328 : 			}
; 1329 : 		return (*this);

	mov	eax, DWORD PTR _this$[ebp]
$LN6@erase:

; 1330 : 		}

	mov	esp, ebp
	pop	ebp
	ret	8
?erase@?$basic_string@DU?$char_traits@D@std@@V?$allocator@D@2@@std@@QAEAAV12@II@Z ENDP ; std::basic_string<char,std::char_traits<char>,std::allocator<char> >::erase
_TEXT	ENDS
; Function compile flags: /Odtp
; File c:\program files (x86)\microsoft visual studio 11.0\vc\include\xstring
;	COMDAT ?erase@?$basic_string@DU?$char_traits@D@std@@V?$allocator@D@2@@std@@QAEAAV12@I@Z
_TEXT	SEGMENT
_this$ = -4						; size = 4
__Off$ = 8						; size = 4
?erase@?$basic_string@DU?$char_traits@D@std@@V?$allocator@D@2@@std@@QAEAAV12@I@Z PROC ; std::basic_string<char,std::char_traits<char>,std::allocator<char> >::erase, COMDAT
; _this$ = ecx

; 1309 : 		{	// erase elements [_Off, ...)

	push	ebp
	mov	ebp, esp
	push	ecx
	mov	DWORD PTR _this$[ebp], ecx

; 1310 : 		if (this->_Mysize < _Off)

	mov	eax, DWORD PTR _this$[ebp]
	mov	ecx, DWORD PTR [eax+16]
	cmp	ecx, DWORD PTR __Off$[ebp]
	jae	SHORT $LN1@erase

; 1311 : 			_Xran();	// _Off off end

	mov	ecx, DWORD PTR _this$[ebp]
	call	?_Xran@?$basic_string@DU?$char_traits@D@std@@V?$allocator@D@2@@std@@QBEXXZ ; std::basic_string<char,std::char_traits<char>,std::allocator<char> >::_Xran
$LN1@erase:

; 1312 : 		_Eos(_Off);

	mov	edx, DWORD PTR __Off$[ebp]
	push	edx
	mov	ecx, DWORD PTR _this$[ebp]
	call	?_Eos@?$basic_string@DU?$char_traits@D@std@@V?$allocator@D@2@@std@@QAEXI@Z ; std::basic_string<char,std::char_traits<char>,std::allocator<char> >::_Eos

; 1313 : 		return (*this);

	mov	eax, DWORD PTR _this$[ebp]
$LN3@erase:

; 1314 : 		}

	mov	esp, ebp
	pop	ebp
	ret	4
?erase@?$basic_string@DU?$char_traits@D@std@@V?$allocator@D@2@@std@@QAEAAV12@I@Z ENDP ; std::basic_string<char,std::char_traits<char>,std::allocator<char> >::erase
_TEXT	ENDS
; Function compile flags: /Odtp
; File c:\program files (x86)\microsoft visual studio 11.0\vc\include\xstring
;	COMDAT ?assign@?$basic_string@DU?$char_traits@D@std@@V?$allocator@D@2@@std@@QAEAAV12@PBD@Z
_TEXT	SEGMENT
_this$ = -4						; size = 4
__Ptr$ = 8						; size = 4
?assign@?$basic_string@DU?$char_traits@D@std@@V?$allocator@D@2@@std@@QAEAAV12@PBD@Z PROC ; std::basic_string<char,std::char_traits<char>,std::allocator<char> >::assign, COMDAT
; _this$ = ecx

; 1142 : 		{	// assign [_Ptr, <null>)

	push	ebp
	mov	ebp, esp
	push	ecx
	mov	DWORD PTR _this$[ebp], ecx

; 1143 : 		_DEBUG_POINTER(_Ptr);
; 1144 : 		return (assign(_Ptr, _Traits::length(_Ptr)));

	mov	eax, DWORD PTR __Ptr$[ebp]
	push	eax
	call	?length@?$char_traits@D@std@@SAIPBD@Z	; std::char_traits<char>::length
	add	esp, 4
	push	eax
	mov	ecx, DWORD PTR __Ptr$[ebp]
	push	ecx
	mov	ecx, DWORD PTR _this$[ebp]
	call	?assign@?$basic_string@DU?$char_traits@D@std@@V?$allocator@D@2@@std@@QAEAAV12@PBDI@Z ; std::basic_string<char,std::char_traits<char>,std::allocator<char> >::assign

; 1145 : 		}

	mov	esp, ebp
	pop	ebp
	ret	4
?assign@?$basic_string@DU?$char_traits@D@std@@V?$allocator@D@2@@std@@QAEAAV12@PBD@Z ENDP ; std::basic_string<char,std::char_traits<char>,std::allocator<char> >::assign
_TEXT	ENDS
; Function compile flags: /Odtp
; File c:\program files (x86)\microsoft visual studio 11.0\vc\include\xstring
;	COMDAT ?assign@?$basic_string@DU?$char_traits@D@std@@V?$allocator@D@2@@std@@QAEAAV12@PBDI@Z
_TEXT	SEGMENT
_this$ = -4						; size = 4
__Ptr$ = 8						; size = 4
__Count$ = 12						; size = 4
?assign@?$basic_string@DU?$char_traits@D@std@@V?$allocator@D@2@@std@@QAEAAV12@PBDI@Z PROC ; std::basic_string<char,std::char_traits<char>,std::allocator<char> >::assign, COMDAT
; _this$ = ecx

; 1123 : 		{	// assign [_Ptr, _Ptr + _Count)

	push	ebp
	mov	ebp, esp
	push	ecx
	mov	DWORD PTR _this$[ebp], ecx

; 1124 :  #if _ITERATOR_DEBUG_LEVEL == 2
; 1125 : 		if (_Count != 0)
; 1126 : 			_DEBUG_POINTER(_Ptr);
; 1127 :  #endif /* _ITERATOR_DEBUG_LEVEL == 2 */
; 1128 : 
; 1129 : 		if (_Inside(_Ptr))

	mov	eax, DWORD PTR __Ptr$[ebp]
	push	eax
	mov	ecx, DWORD PTR _this$[ebp]
	call	?_Inside@?$basic_string@DU?$char_traits@D@std@@V?$allocator@D@2@@std@@QAE_NPBD@Z ; std::basic_string<char,std::char_traits<char>,std::allocator<char> >::_Inside
	movzx	ecx, al
	test	ecx, ecx
	je	SHORT $LN2@assign

; 1130 : 			return (assign(*this,
; 1131 : 				_Ptr - this->_Myptr(), _Count));	// substring

	mov	edx, DWORD PTR __Count$[ebp]
	push	edx
	mov	ecx, DWORD PTR _this$[ebp]
	call	?_Myptr@?$_String_val@U?$_Simple_types@D@std@@@std@@QAEPADXZ ; std::_String_val<std::_Simple_types<char> >::_Myptr
	mov	ecx, DWORD PTR __Ptr$[ebp]
	sub	ecx, eax
	push	ecx
	mov	edx, DWORD PTR _this$[ebp]
	push	edx
	mov	ecx, DWORD PTR _this$[ebp]
	call	?assign@?$basic_string@DU?$char_traits@D@std@@V?$allocator@D@2@@std@@QAEAAV12@ABV12@II@Z ; std::basic_string<char,std::char_traits<char>,std::allocator<char> >::assign
	jmp	SHORT $LN3@assign
$LN2@assign:

; 1132 : 
; 1133 : 		if (_Grow(_Count))

	push	0
	mov	eax, DWORD PTR __Count$[ebp]
	push	eax
	mov	ecx, DWORD PTR _this$[ebp]
	call	?_Grow@?$basic_string@DU?$char_traits@D@std@@V?$allocator@D@2@@std@@QAE_NI_N@Z ; std::basic_string<char,std::char_traits<char>,std::allocator<char> >::_Grow
	movzx	ecx, al
	test	ecx, ecx
	je	SHORT $LN1@assign

; 1134 : 			{	// make room and assign new stuff
; 1135 : 			_Traits::copy(this->_Myptr(), _Ptr, _Count);

	mov	edx, DWORD PTR __Count$[ebp]
	push	edx
	mov	eax, DWORD PTR __Ptr$[ebp]
	push	eax
	mov	ecx, DWORD PTR _this$[ebp]
	call	?_Myptr@?$_String_val@U?$_Simple_types@D@std@@@std@@QAEPADXZ ; std::_String_val<std::_Simple_types<char> >::_Myptr
	push	eax
	call	?copy@?$char_traits@D@std@@SAPADPADPBDI@Z ; std::char_traits<char>::copy
	add	esp, 12					; 0000000cH

; 1136 : 			_Eos(_Count);

	mov	ecx, DWORD PTR __Count$[ebp]
	push	ecx
	mov	ecx, DWORD PTR _this$[ebp]
	call	?_Eos@?$basic_string@DU?$char_traits@D@std@@V?$allocator@D@2@@std@@QAEXI@Z ; std::basic_string<char,std::char_traits<char>,std::allocator<char> >::_Eos
$LN1@assign:

; 1137 : 			}
; 1138 : 		return (*this);

	mov	eax, DWORD PTR _this$[ebp]
$LN3@assign:

; 1139 : 		}

	mov	esp, ebp
	pop	ebp
	ret	8
?assign@?$basic_string@DU?$char_traits@D@std@@V?$allocator@D@2@@std@@QAEAAV12@PBDI@Z ENDP ; std::basic_string<char,std::char_traits<char>,std::allocator<char> >::assign
_TEXT	ENDS
; Function compile flags: /Odtp
; File c:\program files (x86)\microsoft visual studio 11.0\vc\include\xstring
;	COMDAT ?assign@?$basic_string@DU?$char_traits@D@std@@V?$allocator@D@2@@std@@QAEAAV12@ABV12@II@Z
_TEXT	SEGMENT
__Num$ = -8						; size = 4
_this$ = -4						; size = 4
__Right$ = 8						; size = 4
__Roff$ = 12						; size = 4
__Count$ = 16						; size = 4
?assign@?$basic_string@DU?$char_traits@D@std@@V?$allocator@D@2@@std@@QAEAAV12@ABV12@II@Z PROC ; std::basic_string<char,std::char_traits<char>,std::allocator<char> >::assign, COMDAT
; _this$ = ecx

; 1104 : 		{	// assign _Right [_Roff, _Roff + _Count)

	push	ebp
	mov	ebp, esp
	sub	esp, 8
	mov	DWORD PTR _this$[ebp], ecx

; 1105 : 		if (_Right.size() < _Roff)

	mov	ecx, DWORD PTR __Right$[ebp]
	call	?size@?$basic_string@DU?$char_traits@D@std@@V?$allocator@D@2@@std@@QBEIXZ ; std::basic_string<char,std::char_traits<char>,std::allocator<char> >::size
	cmp	eax, DWORD PTR __Roff$[ebp]
	jae	SHORT $LN5@assign

; 1106 : 			_Xran();	// _Roff off end

	mov	ecx, DWORD PTR _this$[ebp]
	call	?_Xran@?$basic_string@DU?$char_traits@D@std@@V?$allocator@D@2@@std@@QBEXXZ ; std::basic_string<char,std::char_traits<char>,std::allocator<char> >::_Xran
$LN5@assign:

; 1107 : 		size_type _Num = _Right.size() - _Roff;

	mov	ecx, DWORD PTR __Right$[ebp]
	call	?size@?$basic_string@DU?$char_traits@D@std@@V?$allocator@D@2@@std@@QBEIXZ ; std::basic_string<char,std::char_traits<char>,std::allocator<char> >::size
	sub	eax, DWORD PTR __Roff$[ebp]
	mov	DWORD PTR __Num$[ebp], eax

; 1108 : 		if (_Count < _Num)

	mov	eax, DWORD PTR __Count$[ebp]
	cmp	eax, DWORD PTR __Num$[ebp]
	jae	SHORT $LN4@assign

; 1109 : 			_Num = _Count;	// trim _Num to size

	mov	ecx, DWORD PTR __Count$[ebp]
	mov	DWORD PTR __Num$[ebp], ecx
$LN4@assign:

; 1110 : 
; 1111 : 		if (this == &_Right)

	mov	edx, DWORD PTR _this$[ebp]
	cmp	edx, DWORD PTR __Right$[ebp]
	jne	SHORT $LN3@assign

; 1112 : 			erase((size_type)(_Roff + _Num)), erase(0, _Roff);	// substring

	mov	eax, DWORD PTR __Roff$[ebp]
	add	eax, DWORD PTR __Num$[ebp]
	push	eax
	mov	ecx, DWORD PTR _this$[ebp]
	call	?erase@?$basic_string@DU?$char_traits@D@std@@V?$allocator@D@2@@std@@QAEAAV12@I@Z ; std::basic_string<char,std::char_traits<char>,std::allocator<char> >::erase
	mov	ecx, DWORD PTR __Roff$[ebp]
	push	ecx
	push	0
	mov	ecx, DWORD PTR _this$[ebp]
	call	?erase@?$basic_string@DU?$char_traits@D@std@@V?$allocator@D@2@@std@@QAEAAV12@II@Z ; std::basic_string<char,std::char_traits<char>,std::allocator<char> >::erase
	jmp	SHORT $LN2@assign
$LN3@assign:

; 1113 : 		else if (_Grow(_Num))

	push	0
	mov	edx, DWORD PTR __Num$[ebp]
	push	edx
	mov	ecx, DWORD PTR _this$[ebp]
	call	?_Grow@?$basic_string@DU?$char_traits@D@std@@V?$allocator@D@2@@std@@QAE_NI_N@Z ; std::basic_string<char,std::char_traits<char>,std::allocator<char> >::_Grow
	movzx	eax, al
	test	eax, eax
	je	SHORT $LN2@assign

; 1114 : 			{	// make room and assign new stuff
; 1115 : 			_Traits::copy(this->_Myptr(),
; 1116 : 				_Right._Myptr() + _Roff, _Num);

	mov	ecx, DWORD PTR __Num$[ebp]
	push	ecx
	mov	ecx, DWORD PTR __Right$[ebp]
	call	?_Myptr@?$_String_val@U?$_Simple_types@D@std@@@std@@QBEPBDXZ ; std::_String_val<std::_Simple_types<char> >::_Myptr
	add	eax, DWORD PTR __Roff$[ebp]
	push	eax
	mov	ecx, DWORD PTR _this$[ebp]
	call	?_Myptr@?$_String_val@U?$_Simple_types@D@std@@@std@@QAEPADXZ ; std::_String_val<std::_Simple_types<char> >::_Myptr
	push	eax
	call	?copy@?$char_traits@D@std@@SAPADPADPBDI@Z ; std::char_traits<char>::copy
	add	esp, 12					; 0000000cH

; 1117 : 			_Eos(_Num);

	mov	edx, DWORD PTR __Num$[ebp]
	push	edx
	mov	ecx, DWORD PTR _this$[ebp]
	call	?_Eos@?$basic_string@DU?$char_traits@D@std@@V?$allocator@D@2@@std@@QAEXI@Z ; std::basic_string<char,std::char_traits<char>,std::allocator<char> >::_Eos
$LN2@assign:

; 1118 : 			}
; 1119 : 		return (*this);

	mov	eax, DWORD PTR _this$[ebp]
$LN7@assign:

; 1120 : 		}

	mov	esp, ebp
	pop	ebp
	ret	12					; 0000000cH
?assign@?$basic_string@DU?$char_traits@D@std@@V?$allocator@D@2@@std@@QAEAAV12@ABV12@II@Z ENDP ; std::basic_string<char,std::char_traits<char>,std::allocator<char> >::assign
_TEXT	ENDS
; Function compile flags: /Odtp
; File c:\program files (x86)\microsoft visual studio 11.0\vc\include\xstring
;	COMDAT ??0?$basic_string@DU?$char_traits@D@std@@V?$allocator@D@2@@std@@QAE@PBD@Z
_TEXT	SEGMENT
_this$ = -8						; size = 4
$T1 = -1						; size = 1
__Ptr$ = 8						; size = 4
??0?$basic_string@DU?$char_traits@D@std@@V?$allocator@D@2@@std@@QAE@PBD@Z PROC ; std::basic_string<char,std::char_traits<char>,std::allocator<char> >::basic_string<char,std::char_traits<char>,std::allocator<char> >, COMDAT
; _this$ = ecx

; 791  : 		{	// construct from [_Ptr, <null>)

	push	ebp
	mov	ebp, esp
	sub	esp, 8
	mov	DWORD PTR _this$[ebp], ecx
	lea	ecx, DWORD PTR $T1[ebp]
	call	??0?$allocator@D@std@@QAE@XZ		; std::allocator<char>::allocator<char>
	push	eax
	mov	ecx, DWORD PTR _this$[ebp]
	call	??0?$_String_alloc@$0A@U?$_String_base_types@DV?$allocator@D@std@@@std@@@std@@QAE@ABV?$allocator@D@1@@Z ; std::_String_alloc<0,std::_String_base_types<char,std::allocator<char> > >::_String_alloc<0,std::_String_base_types<char,std::allocator<char> > >

; 792  : 		_Tidy();

	push	0
	push	0
	mov	ecx, DWORD PTR _this$[ebp]
	call	?_Tidy@?$basic_string@DU?$char_traits@D@std@@V?$allocator@D@2@@std@@QAEX_NI@Z ; std::basic_string<char,std::char_traits<char>,std::allocator<char> >::_Tidy

; 793  : 		assign(_Ptr);

	mov	eax, DWORD PTR __Ptr$[ebp]
	push	eax
	mov	ecx, DWORD PTR _this$[ebp]
	call	?assign@?$basic_string@DU?$char_traits@D@std@@V?$allocator@D@2@@std@@QAEAAV12@PBD@Z ; std::basic_string<char,std::char_traits<char>,std::allocator<char> >::assign

; 794  : 		}

	mov	eax, DWORD PTR _this$[ebp]
	mov	esp, ebp
	pop	ebp
	ret	4
??0?$basic_string@DU?$char_traits@D@std@@V?$allocator@D@2@@std@@QAE@PBD@Z ENDP ; std::basic_string<char,std::char_traits<char>,std::allocator<char> >::basic_string<char,std::char_traits<char>,std::allocator<char> >
_TEXT	ENDS
; Function compile flags: /Odtp
; File c:\program files (x86)\microsoft visual studio 11.0\vc\include\xstring
;	COMDAT ?_Getal@?$_String_alloc@$0A@U?$_String_base_types@DV?$allocator@D@std@@@std@@@std@@QBE?AU?$_Wrap_alloc@V?$allocator@D@std@@@2@XZ
_TEXT	SEGMENT
_this$ = -4						; size = 4
___$ReturnUdt$ = 8					; size = 4
?_Getal@?$_String_alloc@$0A@U?$_String_base_types@DV?$allocator@D@std@@@std@@@std@@QBE?AU?$_Wrap_alloc@V?$allocator@D@std@@@2@XZ PROC ; std::_String_alloc<0,std::_String_base_types<char,std::allocator<char> > >::_Getal, COMDAT
; _this$ = ecx

; 688  : 		{	// get reference to allocator

	push	ebp
	mov	ebp, esp
	push	ecx
	mov	DWORD PTR _this$[ebp], ecx

; 689  : 		return (_Alty());

	mov	ecx, DWORD PTR ___$ReturnUdt$[ebp]
	call	??0?$_Wrap_alloc@V?$allocator@D@std@@@std@@QAE@XZ ; std::_Wrap_alloc<std::allocator<char> >::_Wrap_alloc<std::allocator<char> >
	mov	eax, DWORD PTR ___$ReturnUdt$[ebp]

; 690  : 		}

	mov	esp, ebp
	pop	ebp
	ret	4
?_Getal@?$_String_alloc@$0A@U?$_String_base_types@DV?$allocator@D@std@@@std@@@std@@QBE?AU?$_Wrap_alloc@V?$allocator@D@std@@@2@XZ ENDP ; std::_String_alloc<0,std::_String_base_types<char,std::allocator<char> > >::_Getal
_TEXT	ENDS
; Function compile flags: /Odtp
; File c:\program files (x86)\microsoft visual studio 11.0\vc\include\xstring
;	COMDAT ??0?$_String_alloc@$0A@U?$_String_base_types@DV?$allocator@D@std@@@std@@@std@@QAE@ABV?$allocator@D@1@@Z
_TEXT	SEGMENT
_this$ = -4						; size = 4
___formal$ = 8						; size = 4
??0?$_String_alloc@$0A@U?$_String_base_types@DV?$allocator@D@std@@@std@@@std@@QAE@ABV?$allocator@D@1@@Z PROC ; std::_String_alloc<0,std::_String_base_types<char,std::allocator<char> > >::_String_alloc<0,std::_String_base_types<char,std::allocator<char> > >, COMDAT
; _this$ = ecx

; 635  : 	_String_alloc(const _Alloc& = _Alloc())

	push	ebp
	mov	ebp, esp
	push	ecx
	mov	DWORD PTR _this$[ebp], ecx
	mov	ecx, DWORD PTR _this$[ebp]
	call	??0?$_String_val@U?$_Simple_types@D@std@@@std@@QAE@XZ ; std::_String_val<std::_Simple_types<char> >::_String_val<std::_Simple_types<char> >

; 636  : 		{	// construct allocator from _Al
; 637  : 		}

	mov	eax, DWORD PTR _this$[ebp]
	mov	esp, ebp
	pop	ebp
	ret	4
??0?$_String_alloc@$0A@U?$_String_base_types@DV?$allocator@D@std@@@std@@@std@@QAE@ABV?$allocator@D@1@@Z ENDP ; std::_String_alloc<0,std::_String_base_types<char,std::allocator<char> > >::_String_alloc<0,std::_String_base_types<char,std::allocator<char> > >
_TEXT	ENDS
; Function compile flags: /Odtp
; File c:\program files (x86)\microsoft visual studio 11.0\vc\include\xstring
;	COMDAT ?_Myptr@?$_String_val@U?$_Simple_types@D@std@@@std@@QBEPBDXZ
_TEXT	SEGMENT
tv72 = -8						; size = 4
_this$ = -4						; size = 4
?_Myptr@?$_String_val@U?$_Simple_types@D@std@@@std@@QBEPBDXZ PROC ; std::_String_val<std::_Simple_types<char> >::_Myptr, COMDAT
; _this$ = ecx

; 521  : 		{	// determine current pointer to buffer for nonmutable string

	push	ebp
	mov	ebp, esp
	sub	esp, 8
	mov	DWORD PTR _this$[ebp], ecx

; 522  : 		return (this->_BUF_SIZE <= this->_Myres
; 523  : 			? _STD addressof(*this->_Bx._Ptr)
; 524  : 			: this->_Bx._Buf);

	mov	eax, DWORD PTR _this$[ebp]
	cmp	DWORD PTR [eax+20], 16			; 00000010H
	jb	SHORT $LN3@Myptr
	mov	ecx, DWORD PTR _this$[ebp]
	mov	edx, DWORD PTR [ecx]
	push	edx
	call	??$addressof@D@std@@YAPADAAD@Z		; std::addressof<char>
	add	esp, 4
	mov	DWORD PTR tv72[ebp], eax
	jmp	SHORT $LN4@Myptr
$LN3@Myptr:
	mov	eax, DWORD PTR _this$[ebp]
	mov	DWORD PTR tv72[ebp], eax
$LN4@Myptr:
	mov	eax, DWORD PTR tv72[ebp]

; 525  : 		}

	mov	esp, ebp
	pop	ebp
	ret	0
?_Myptr@?$_String_val@U?$_Simple_types@D@std@@@std@@QBEPBDXZ ENDP ; std::_String_val<std::_Simple_types<char> >::_Myptr
_TEXT	ENDS
; Function compile flags: /Odtp
; File c:\program files (x86)\microsoft visual studio 11.0\vc\include\xstring
;	COMDAT ?_Myptr@?$_String_val@U?$_Simple_types@D@std@@@std@@QAEPADXZ
_TEXT	SEGMENT
tv72 = -8						; size = 4
_this$ = -4						; size = 4
?_Myptr@?$_String_val@U?$_Simple_types@D@std@@@std@@QAEPADXZ PROC ; std::_String_val<std::_Simple_types<char> >::_Myptr, COMDAT
; _this$ = ecx

; 514  : 		{	// determine current pointer to buffer for mutable string

	push	ebp
	mov	ebp, esp
	sub	esp, 8
	mov	DWORD PTR _this$[ebp], ecx

; 515  : 		return (this->_BUF_SIZE <= this->_Myres
; 516  : 			? _STD addressof(*this->_Bx._Ptr)
; 517  : 			: this->_Bx._Buf);

	mov	eax, DWORD PTR _this$[ebp]
	cmp	DWORD PTR [eax+20], 16			; 00000010H
	jb	SHORT $LN3@Myptr
	mov	ecx, DWORD PTR _this$[ebp]
	mov	edx, DWORD PTR [ecx]
	push	edx
	call	??$addressof@D@std@@YAPADAAD@Z		; std::addressof<char>
	add	esp, 4
	mov	DWORD PTR tv72[ebp], eax
	jmp	SHORT $LN4@Myptr
$LN3@Myptr:
	mov	eax, DWORD PTR _this$[ebp]
	mov	DWORD PTR tv72[ebp], eax
$LN4@Myptr:
	mov	eax, DWORD PTR tv72[ebp]

; 518  : 		}

	mov	esp, ebp
	pop	ebp
	ret	0
?_Myptr@?$_String_val@U?$_Simple_types@D@std@@@std@@QAEPADXZ ENDP ; std::_String_val<std::_Simple_types<char> >::_Myptr
_TEXT	ENDS
; Function compile flags: /Odtp
; File c:\program files (x86)\microsoft visual studio 11.0\vc\include\xstring
;	COMDAT ??0?$_String_val@U?$_Simple_types@D@std@@@std@@QAE@XZ
_TEXT	SEGMENT
_this$ = -4						; size = 4
??0?$_String_val@U?$_Simple_types@D@std@@@std@@QAE@XZ PROC ; std::_String_val<std::_Simple_types<char> >::_String_val<std::_Simple_types<char> >, COMDAT
; _this$ = ecx

; 496  : 	_String_val()

	push	ebp
	mov	ebp, esp
	push	ecx
	mov	DWORD PTR _this$[ebp], ecx

; 497  : 		{	// initialize values
; 498  : 		_Mysize = 0;

	mov	eax, DWORD PTR _this$[ebp]
	mov	DWORD PTR [eax+16], 0

; 499  : 		_Myres = 0;

	mov	ecx, DWORD PTR _this$[ebp]
	mov	DWORD PTR [ecx+20], 0

; 500  : 		}

	mov	eax, DWORD PTR _this$[ebp]
	mov	esp, ebp
	pop	ebp
	ret	0
??0?$_String_val@U?$_Simple_types@D@std@@@std@@QAE@XZ ENDP ; std::_String_val<std::_Simple_types<char> >::_String_val<std::_Simple_types<char> >
_TEXT	ENDS
; Function compile flags: /Odtp
; File c:\program files (x86)\microsoft visual studio 11.0\vc\include\xmemory0
;	COMDAT ?max_size@?$_Wrap_alloc@V?$allocator@D@std@@@std@@QBEIXZ
_TEXT	SEGMENT
_this$ = -4						; size = 4
?max_size@?$_Wrap_alloc@V?$allocator@D@std@@@std@@QBEIXZ PROC ; std::_Wrap_alloc<std::allocator<char> >::max_size, COMDAT
; _this$ = ecx

; 913  : 		{	// get maximum size

	push	ebp
	mov	ebp, esp
	push	ecx
	mov	DWORD PTR _this$[ebp], ecx

; 914  : 		return (_Mytraits::max_size(*this));

	mov	eax, DWORD PTR _this$[ebp]
	push	eax
	call	?max_size@?$allocator_traits@V?$allocator@D@std@@@std@@SAIABV?$allocator@D@2@@Z ; std::allocator_traits<std::allocator<char> >::max_size
	add	esp, 4

; 915  : 		}

	mov	esp, ebp
	pop	ebp
	ret	0
?max_size@?$_Wrap_alloc@V?$allocator@D@std@@@std@@QBEIXZ ENDP ; std::_Wrap_alloc<std::allocator<char> >::max_size
_TEXT	ENDS
; Function compile flags: /Odtp
; File c:\program files (x86)\microsoft visual studio 11.0\vc\include\xmemory0
;	COMDAT ?deallocate@?$_Wrap_alloc@V?$allocator@D@std@@@std@@QAEXPADI@Z
_TEXT	SEGMENT
_this$ = -4						; size = 4
__Ptr$ = 8						; size = 4
__Count$ = 12						; size = 4
?deallocate@?$_Wrap_alloc@V?$allocator@D@std@@@std@@QAEXPADI@Z PROC ; std::_Wrap_alloc<std::allocator<char> >::deallocate, COMDAT
; _this$ = ecx

; 886  : 		{	// deallocate object at _Ptr, ignore size

	push	ebp
	mov	ebp, esp
	push	ecx
	mov	DWORD PTR _this$[ebp], ecx

; 887  : 		_Mybase::deallocate(_Ptr, _Count);

	mov	eax, DWORD PTR __Count$[ebp]
	push	eax
	mov	ecx, DWORD PTR __Ptr$[ebp]
	push	ecx
	mov	ecx, DWORD PTR _this$[ebp]
	call	?deallocate@?$allocator@D@std@@QAEXPADI@Z ; std::allocator<char>::deallocate

; 888  : 		}

	mov	esp, ebp
	pop	ebp
	ret	8
?deallocate@?$_Wrap_alloc@V?$allocator@D@std@@@std@@QAEXPADI@Z ENDP ; std::_Wrap_alloc<std::allocator<char> >::deallocate
_TEXT	ENDS
; Function compile flags: /Odtp
; File c:\program files (x86)\microsoft visual studio 11.0\vc\include\xmemory0
;	COMDAT ?allocate@?$_Wrap_alloc@V?$allocator@D@std@@@std@@QAEPADI@Z
_TEXT	SEGMENT
_this$ = -4						; size = 4
__Count$ = 8						; size = 4
?allocate@?$_Wrap_alloc@V?$allocator@D@std@@@std@@QAEPADI@Z PROC ; std::_Wrap_alloc<std::allocator<char> >::allocate, COMDAT
; _this$ = ecx

; 875  : 		{	// allocate array of _Count elements

	push	ebp
	mov	ebp, esp
	push	ecx
	mov	DWORD PTR _this$[ebp], ecx

; 876  : 		return (_Mybase::allocate(_Count));

	mov	eax, DWORD PTR __Count$[ebp]
	push	eax
	mov	ecx, DWORD PTR _this$[ebp]
	call	?allocate@?$allocator@D@std@@QAEPADI@Z	; std::allocator<char>::allocate

; 877  : 		}

	mov	esp, ebp
	pop	ebp
	ret	4
?allocate@?$_Wrap_alloc@V?$allocator@D@std@@@std@@QAEPADI@Z ENDP ; std::_Wrap_alloc<std::allocator<char> >::allocate
_TEXT	ENDS
; Function compile flags: /Odtp
; File c:\program files (x86)\microsoft visual studio 11.0\vc\include\xmemory0
;	COMDAT ??0?$_Wrap_alloc@V?$allocator@D@std@@@std@@QAE@XZ
_TEXT	SEGMENT
_this$ = -4						; size = 4
??0?$_Wrap_alloc@V?$allocator@D@std@@@std@@QAE@XZ PROC	; std::_Wrap_alloc<std::allocator<char> >::_Wrap_alloc<std::allocator<char> >, COMDAT
; _this$ = ecx

; 830  : 		{	// construct default allocator (do nothing)

	push	ebp
	mov	ebp, esp
	push	ecx
	mov	DWORD PTR _this$[ebp], ecx
	mov	ecx, DWORD PTR _this$[ebp]
	call	??0?$allocator@D@std@@QAE@XZ		; std::allocator<char>::allocator<char>

; 831  : 		}

	mov	eax, DWORD PTR _this$[ebp]
	mov	esp, ebp
	pop	ebp
	ret	0
??0?$_Wrap_alloc@V?$allocator@D@std@@@std@@QAE@XZ ENDP	; std::_Wrap_alloc<std::allocator<char> >::_Wrap_alloc<std::allocator<char> >
_TEXT	ENDS
; Function compile flags: /Odtp
; File c:\program files (x86)\microsoft visual studio 11.0\vc\include\xmemory0
;	COMDAT ?max_size@?$allocator_traits@V?$allocator@D@std@@@std@@SAIABV?$allocator@D@2@@Z
_TEXT	SEGMENT
__Al$ = 8						; size = 4
?max_size@?$allocator_traits@V?$allocator@D@std@@@std@@SAIABV?$allocator@D@2@@Z PROC ; std::allocator_traits<std::allocator<char> >::max_size, COMDAT

; 761  : 		{	// get maximum size

	push	ebp
	mov	ebp, esp

; 762  : 		return (_Al.max_size());

	mov	ecx, DWORD PTR __Al$[ebp]
	call	?max_size@?$allocator@D@std@@QBEIXZ	; std::allocator<char>::max_size

; 763  : 		}

	pop	ebp
	ret	0
?max_size@?$allocator_traits@V?$allocator@D@std@@@std@@SAIABV?$allocator@D@2@@Z ENDP ; std::allocator_traits<std::allocator<char> >::max_size
_TEXT	ENDS
; Function compile flags: /Odtp
; File c:\program files (x86)\microsoft visual studio 11.0\vc\include\xmemory0
;	COMDAT ?max_size@?$allocator@D@std@@QBEIXZ
_TEXT	SEGMENT
_this$ = -4						; size = 4
?max_size@?$allocator@D@std@@QBEIXZ PROC		; std::allocator<char>::max_size, COMDAT
; _this$ = ecx

; 627  : 		{	// estimate maximum array size

	push	ebp
	mov	ebp, esp
	push	ecx
	mov	DWORD PTR _this$[ebp], ecx

; 628  : 		return ((size_t)(-1) / sizeof (_Ty));

	or	eax, -1

; 629  : 		}

	mov	esp, ebp
	pop	ebp
	ret	0
?max_size@?$allocator@D@std@@QBEIXZ ENDP		; std::allocator<char>::max_size
_TEXT	ENDS
; Function compile flags: /Odtp
; File c:\program files (x86)\microsoft visual studio 11.0\vc\include\xmemory0
;	COMDAT ?allocate@?$allocator@D@std@@QAEPADI@Z
_TEXT	SEGMENT
_this$ = -4						; size = 4
__Count$ = 8						; size = 4
?allocate@?$allocator@D@std@@QAEPADI@Z PROC		; std::allocator<char>::allocate, COMDAT
; _this$ = ecx

; 590  : 		{	// allocate array of _Count elements

	push	ebp
	mov	ebp, esp
	push	ecx
	mov	DWORD PTR _this$[ebp], ecx

; 591  : 		return (_Allocate(_Count, (pointer)0));

	push	0
	mov	eax, DWORD PTR __Count$[ebp]
	push	eax
	call	??$_Allocate@D@std@@YAPADIPAD@Z		; std::_Allocate<char>
	add	esp, 8

; 592  : 		}

	mov	esp, ebp
	pop	ebp
	ret	4
?allocate@?$allocator@D@std@@QAEPADI@Z ENDP		; std::allocator<char>::allocate
_TEXT	ENDS
; Function compile flags: /Odtp
; File c:\program files (x86)\microsoft visual studio 11.0\vc\include\xmemory0
;	COMDAT ?deallocate@?$allocator@D@std@@QAEXPADI@Z
_TEXT	SEGMENT
_this$ = -4						; size = 4
__Ptr$ = 8						; size = 4
___formal$ = 12						; size = 4
?deallocate@?$allocator@D@std@@QAEXPADI@Z PROC		; std::allocator<char>::deallocate, COMDAT
; _this$ = ecx

; 585  : 		{	// deallocate object at _Ptr, ignore size

	push	ebp
	mov	ebp, esp
	push	ecx
	mov	DWORD PTR _this$[ebp], ecx

; 586  : 		::operator delete(_Ptr);

	mov	eax, DWORD PTR __Ptr$[ebp]
	push	eax
	call	??3@YAXPAX@Z				; operator delete
	add	esp, 4

; 587  : 		}

	mov	esp, ebp
	pop	ebp
	ret	8
?deallocate@?$allocator@D@std@@QAEXPADI@Z ENDP		; std::allocator<char>::deallocate
_TEXT	ENDS
; Function compile flags: /Odtp
; File c:\program files (x86)\microsoft visual studio 11.0\vc\include\xmemory0
;	COMDAT ??0?$allocator@D@std@@QAE@XZ
_TEXT	SEGMENT
_this$ = -4						; size = 4
??0?$allocator@D@std@@QAE@XZ PROC			; std::allocator<char>::allocator<char>, COMDAT
; _this$ = ecx

; 565  : 	allocator() _THROW0()

	push	ebp
	mov	ebp, esp
	push	ecx
	mov	DWORD PTR _this$[ebp], ecx

; 566  : 		{	// construct default allocator (do nothing)
; 567  : 		}

	mov	eax, DWORD PTR _this$[ebp]
	mov	esp, ebp
	pop	ebp
	ret	0
??0?$allocator@D@std@@QAE@XZ ENDP			; std::allocator<char>::allocator<char>
_TEXT	ENDS
; Function compile flags: /Odtp
; File c:\program files (x86)\microsoft visual studio 11.0\vc\include\xutility
;	COMDAT ??__Eallocator_arg@std@@YAXXZ
text$yc	SEGMENT
$T1 = -1						; size = 1
??__Eallocator_arg@std@@YAXXZ PROC			; std::`dynamic initializer for 'allocator_arg'', COMDAT

; 3644 : const allocator_arg_t allocator_arg = allocator_arg_t();

	push	ebp
	mov	ebp, esp
	push	ecx
	xor	eax, eax
	mov	BYTE PTR $T1[ebp], al
	mov	esp, ebp
	pop	ebp
	ret	0
??__Eallocator_arg@std@@YAXXZ ENDP			; std::`dynamic initializer for 'allocator_arg''
text$yc	ENDS
; Function compile flags: /Odtp
; File c:\program files (x86)\microsoft visual studio 11.0\vc\include\utility
;	COMDAT ??__Epiecewise_construct@std@@YAXXZ
text$yc	SEGMENT
$T1 = -1						; size = 1
??__Epiecewise_construct@std@@YAXXZ PROC		; std::`dynamic initializer for 'piecewise_construct'', COMDAT

; 65   : 	piecewise_construct_t();

	push	ebp
	mov	ebp, esp
	push	ecx
	xor	eax, eax
	mov	BYTE PTR $T1[ebp], al
	mov	esp, ebp
	pop	ebp
	ret	0
??__Epiecewise_construct@std@@YAXXZ ENDP		; std::`dynamic initializer for 'piecewise_construct''
text$yc	ENDS
; Function compile flags: /Odtp
; File c:\program files (x86)\microsoft visual studio 11.0\vc\include\iosfwd
;	COMDAT ?assign@?$char_traits@D@std@@SAXAADABD@Z
_TEXT	SEGMENT
__Left$ = 8						; size = 4
__Right$ = 12						; size = 4
?assign@?$char_traits@D@std@@SAXAADABD@Z PROC		; std::char_traits<char>::assign, COMDAT

; 563  : 		{	// assign an element

	push	ebp
	mov	ebp, esp

; 564  : 		_Left = _Right;

	mov	eax, DWORD PTR __Left$[ebp]
	mov	ecx, DWORD PTR __Right$[ebp]
	mov	dl, BYTE PTR [ecx]
	mov	BYTE PTR [eax], dl

; 565  : 		}

	pop	ebp
	ret	0
?assign@?$char_traits@D@std@@SAXAADABD@Z ENDP		; std::char_traits<char>::assign
_TEXT	ENDS
; Function compile flags: /Odtp
; File c:\program files (x86)\microsoft visual studio 11.0\vc\include\iosfwd
;	COMDAT ?move@?$char_traits@D@std@@SAPADPADPBDI@Z
_TEXT	SEGMENT
tv69 = -4						; size = 4
__First1$ = 8						; size = 4
__First2$ = 12						; size = 4
__Count$ = 16						; size = 4
?move@?$char_traits@D@std@@SAPADPADPBDI@Z PROC		; std::char_traits<char>::move, COMDAT

; 551  : 		{	// copy [_First2, _First2 + _Count) to [_First1, ...)

	push	ebp
	mov	ebp, esp
	push	ecx

; 552  : 		return (_Count == 0 ? _First1
; 553  : 			: (_Elem *)_CSTD memmove(_First1, _First2, _Count));

	cmp	DWORD PTR __Count$[ebp], 0
	jne	SHORT $LN3@move
	mov	eax, DWORD PTR __First1$[ebp]
	mov	DWORD PTR tv69[ebp], eax
	jmp	SHORT $LN4@move
$LN3@move:
	mov	ecx, DWORD PTR __Count$[ebp]
	push	ecx
	mov	edx, DWORD PTR __First2$[ebp]
	push	edx
	mov	eax, DWORD PTR __First1$[ebp]
	push	eax
	call	_memmove
	add	esp, 12					; 0000000cH
	mov	DWORD PTR tv69[ebp], eax
$LN4@move:
	mov	eax, DWORD PTR tv69[ebp]

; 554  : 		}

	mov	esp, ebp
	pop	ebp
	ret	0
?move@?$char_traits@D@std@@SAPADPADPBDI@Z ENDP		; std::char_traits<char>::move
_TEXT	ENDS
; Function compile flags: /Odtp
; File c:\program files (x86)\microsoft visual studio 11.0\vc\include\iosfwd
;	COMDAT ?copy@?$char_traits@D@std@@SAPADPADPBDI@Z
_TEXT	SEGMENT
tv69 = -4						; size = 4
__First1$ = 8						; size = 4
__First2$ = 12						; size = 4
__Count$ = 16						; size = 4
?copy@?$char_traits@D@std@@SAPADPADPBDI@Z PROC		; std::char_traits<char>::copy, COMDAT

; 528  : 		{	// copy [_First2, _First2 + _Count) to [_First1, ...)

	push	ebp
	mov	ebp, esp
	push	ecx

; 529  : 		return (_Count == 0 ? _First1
; 530  : 			: (_Elem *)_CSTD memcpy(_First1, _First2, _Count));

	cmp	DWORD PTR __Count$[ebp], 0
	jne	SHORT $LN3@copy
	mov	eax, DWORD PTR __First1$[ebp]
	mov	DWORD PTR tv69[ebp], eax
	jmp	SHORT $LN4@copy
$LN3@copy:
	mov	ecx, DWORD PTR __Count$[ebp]
	push	ecx
	mov	edx, DWORD PTR __First2$[ebp]
	push	edx
	mov	eax, DWORD PTR __First1$[ebp]
	push	eax
	call	_memcpy
	add	esp, 12					; 0000000cH
	mov	DWORD PTR tv69[ebp], eax
$LN4@copy:
	mov	eax, DWORD PTR tv69[ebp]

; 531  : 		}

	mov	esp, ebp
	pop	ebp
	ret	0
?copy@?$char_traits@D@std@@SAPADPADPBDI@Z ENDP		; std::char_traits<char>::copy
_TEXT	ENDS
; Function compile flags: /Odtp
; File c:\program files (x86)\microsoft visual studio 11.0\vc\include\iosfwd
;	COMDAT ?length@?$char_traits@D@std@@SAIPBD@Z
_TEXT	SEGMENT
tv68 = -4						; size = 4
__First$ = 8						; size = 4
?length@?$char_traits@D@std@@SAIPBD@Z PROC		; std::char_traits<char>::length, COMDAT

; 521  : 		{	// find length of null-terminated string

	push	ebp
	mov	ebp, esp
	push	ecx

; 522  : 		return (*_First == 0 ? 0
; 523  : 			: _CSTD strlen(_First));

	mov	eax, DWORD PTR __First$[ebp]
	movsx	ecx, BYTE PTR [eax]
	test	ecx, ecx
	jne	SHORT $LN3@length
	mov	DWORD PTR tv68[ebp], 0
	jmp	SHORT $LN4@length
$LN3@length:
	mov	edx, DWORD PTR __First$[ebp]
	push	edx
	call	_strlen
	add	esp, 4
	mov	DWORD PTR tv68[ebp], eax
$LN4@length:
	mov	eax, DWORD PTR tv68[ebp]

; 524  : 		}

	mov	esp, ebp
	pop	ebp
	ret	0
?length@?$char_traits@D@std@@SAIPBD@Z ENDP		; std::char_traits<char>::length
_TEXT	ENDS
; Function compile flags: /Odtp
;	COMDAT ??_Estringdispid@CComTypeInfoHolder@ATL@@QAEPAXI@Z
_TEXT	SEGMENT
_this$ = -4						; size = 4
___flags$ = 8						; size = 4
??_Estringdispid@CComTypeInfoHolder@ATL@@QAEPAXI@Z PROC	; ATL::CComTypeInfoHolder::stringdispid::`vector deleting destructor', COMDAT
; _this$ = ecx
	push	ebp
	mov	ebp, esp
	push	ecx
	mov	DWORD PTR _this$[ebp], ecx
	mov	eax, DWORD PTR ___flags$[ebp]
	and	eax, 2
	je	SHORT $LN3@vector
	push	OFFSET ??1stringdispid@CComTypeInfoHolder@ATL@@QAE@XZ
	mov	ecx, DWORD PTR _this$[ebp]
	mov	edx, DWORD PTR [ecx-4]
	push	edx
	push	12					; 0000000cH
	mov	eax, DWORD PTR _this$[ebp]
	push	eax
	call	??_M@YGXPAXIHP6EX0@Z@Z
	mov	ecx, DWORD PTR ___flags$[ebp]
	and	ecx, 1
	je	SHORT $LN2@vector
	mov	edx, DWORD PTR _this$[ebp]
	sub	edx, 4
	push	edx
	call	??_V@YAXPAX@Z				; operator delete[]
	add	esp, 4
$LN2@vector:
	mov	eax, DWORD PTR _this$[ebp]
	sub	eax, 4
	jmp	SHORT $LN4@vector
$LN3@vector:
	mov	ecx, DWORD PTR _this$[ebp]
	call	??1stringdispid@CComTypeInfoHolder@ATL@@QAE@XZ
	mov	eax, DWORD PTR ___flags$[ebp]
	and	eax, 1
	je	SHORT $LN1@vector
	mov	ecx, DWORD PTR _this$[ebp]
	push	ecx
	call	??3@YAXPAX@Z				; operator delete
	add	esp, 4
$LN1@vector:
	mov	eax, DWORD PTR _this$[ebp]
$LN4@vector:
	mov	esp, ebp
	pop	ebp
	ret	4
??_Estringdispid@CComTypeInfoHolder@ATL@@QAEPAXI@Z ENDP	; ATL::CComTypeInfoHolder::stringdispid::`vector deleting destructor'
_TEXT	ENDS
; Function compile flags: /Odtp
;	COMDAT ??1stringdispid@CComTypeInfoHolder@ATL@@QAE@XZ
_TEXT	SEGMENT
_this$ = -4						; size = 4
??1stringdispid@CComTypeInfoHolder@ATL@@QAE@XZ PROC	; ATL::CComTypeInfoHolder::stringdispid::~stringdispid, COMDAT
; _this$ = ecx
	push	ebp
	mov	ebp, esp
	push	ecx
	mov	DWORD PTR _this$[ebp], ecx
	mov	ecx, DWORD PTR _this$[ebp]
	call	??1CComBSTR@ATL@@QAE@XZ			; ATL::CComBSTR::~CComBSTR
	mov	esp, ebp
	pop	ebp
	ret	0
??1stringdispid@CComTypeInfoHolder@ATL@@QAE@XZ ENDP	; ATL::CComTypeInfoHolder::stringdispid::~stringdispid
_TEXT	ENDS
; Function compile flags: /Odtp
; File c:\program files (x86)\microsoft visual studio 11.0\vc\atlmfc\include\atlcomcli.h
;	COMDAT ??1CComBSTR@ATL@@QAE@XZ
_TEXT	SEGMENT
_this$ = -4						; size = 4
??1CComBSTR@ATL@@QAE@XZ PROC				; ATL::CComBSTR::~CComBSTR, COMDAT
; _this$ = ecx

; 1656 : {

	push	ebp
	mov	ebp, esp
	push	ecx
	mov	DWORD PTR _this$[ebp], ecx

; 1657 :     ::SysFreeString(m_str);

	mov	eax, DWORD PTR _this$[ebp]
	mov	ecx, DWORD PTR [eax]
	push	ecx
	call	DWORD PTR __imp__SysFreeString@4

; 1658 : }

	mov	esp, ebp
	pop	ebp
	ret	0
??1CComBSTR@ATL@@QAE@XZ ENDP				; ATL::CComBSTR::~CComBSTR
_TEXT	ENDS
; Function compile flags: /Odtp
; File c:\program files (x86)\microsoft visual studio 11.0\vc\include\new.h
;	COMDAT ??3@YAXPAX0@Z
_TEXT	SEGMENT
___formal$ = 8						; size = 4
___formal$ = 12						; size = 4
??3@YAXPAX0@Z PROC					; operator delete, COMDAT

; 83   :         {return; }

	push	ebp
	mov	ebp, esp
	pop	ebp
	ret	0
??3@YAXPAX0@Z ENDP					; operator delete
_TEXT	ENDS
; Function compile flags: /Odtp
; File c:\program files (x86)\microsoft visual studio 11.0\vc\include\new.h
;	COMDAT ??2@YAPAXIPAX@Z
_TEXT	SEGMENT
___formal$ = 8						; size = 4
__Where$ = 12						; size = 4
??2@YAPAXIPAX@Z PROC					; operator new, COMDAT

; 81   :         {return (_Where); }

	push	ebp
	mov	ebp, esp
	mov	eax, DWORD PTR __Where$[ebp]
	pop	ebp
	ret	0
??2@YAPAXIPAX@Z ENDP					; operator new
_TEXT	ENDS
END
