; Listing generated by Microsoft (R) Optimizing Compiler Version 17.00.51106.1 

	TITLE	C:\Users\Zhitao Li\Documents\Visual Studio 2012\Projects\Freefalcon\ui95\cscroll.cpp
	.686P
	.XMM
	include listing.inc
	.model	flat

INCLUDELIB LIBCMT
INCLUDELIB OLDNAMES

PUBLIC	?beg@?$_Iosb@H@std@@2W4_Seekdir@12@B		; std::_Iosb<int>::beg
PUBLIC	?pmField@?$CVarTypeInfo@PAK@ATL@@2QQtagVARIANT@@PAKQ3@ ; ATL::CVarTypeInfo<unsigned long *>::pmField
PUBLIC	?cur@?$_Iosb@H@std@@2W4_Seekdir@12@B		; std::_Iosb<int>::cur
PUBLIC	?end@?$_Iosb@H@std@@2W4_Seekdir@12@B		; std::_Iosb<int>::end
PUBLIC	?VT@?$CVarTypeInfo@_J@ATL@@2GB			; ATL::CVarTypeInfo<__int64>::VT
PUBLIC	?pmField@?$CVarTypeInfo@_J@ATL@@2QQtagVARIANT@@_JQ3@ ; ATL::CVarTypeInfo<__int64>::pmField
PUBLIC	___pobjMapEntryFirst
PUBLIC	___pobjMapEntryLast
PUBLIC	?VT@?$CVarTypeInfo@PA_J@ATL@@2GB		; ATL::CVarTypeInfo<__int64 *>::VT
PUBLIC	?pmField@?$CVarTypeInfo@PA_J@ATL@@2QQtagVARIANT@@PA_JQ3@ ; ATL::CVarTypeInfo<__int64 *>::pmField
PUBLIC	?value@?$_Sizeof@U_Nil@std@@U12@U12@U12@U12@U12@U12@U12@@std@@2IB ; std::_Sizeof<std::_Nil,std::_Nil,std::_Nil,std::_Nil,std::_Nil,std::_Nil,std::_Nil,std::_Nil>::value
PUBLIC	?_Stream_err@failure@ios_base@std@@0W4io_errc@43@B ; std::ios_base::failure::_Stream_err
PUBLIC	?VT@?$CVarTypeInfo@_K@ATL@@2GB			; ATL::CVarTypeInfo<unsigned __int64>::VT
PUBLIC	??_C@_0BF@HDDNNDFH@Component?5Categories?$AA@	; `string'
PUBLIC	?pmField@?$CVarTypeInfo@_K@ATL@@2QQtagVARIANT@@_KQ3@ ; ATL::CVarTypeInfo<unsigned __int64>::pmField
PUBLIC	??_C@_08PICKODJL@FileType?$AA@			; `string'
PUBLIC	??_C@_09JKPGEJCH@Interface?$AA@			; `string'
PUBLIC	??_C@_08PPIOJEA@Hardware?$AA@			; `string'
PUBLIC	?_pPerfRegFunc@ATL@@3P6AJPAUHINSTANCE__@@@ZA	; ATL::_pPerfRegFunc
PUBLIC	??_C@_04IHBFOLAC@Mime?$AA@			; `string'
PUBLIC	?_pPerfUnRegFunc@ATL@@3P6AJXZA			; ATL::_pPerfUnRegFunc
PUBLIC	??_C@_03DDIMFGBA@SAM?$AA@			; `string'
PUBLIC	?_AtlRegisterPerUser@ATL@@3_NA			; ATL::_AtlRegisterPerUser
PUBLIC	??_C@_08LOPHEHKG@SECURITY?$AA@			; `string'
PUBLIC	??_C@_06FDHFNJBJ@SYSTEM?$AA@			; `string'
PUBLIC	??_C@_08KEKAJNJI@Software?$AA@			; `string'
PUBLIC	??_C@_07KJLOKDKB@TypeLib?$AA@			; `string'
PUBLIC	?VT@?$CVarTypeInfo@PA_K@ATL@@2GB		; ATL::CVarTypeInfo<unsigned __int64 *>::VT
PUBLIC	?pmField@?$CVarTypeInfo@PA_K@ATL@@2QQtagVARIANT@@PA_KQ3@ ; ATL::CVarTypeInfo<unsigned __int64 *>::pmField
PUBLIC	__GUID_00000000_0000_0000_c000_000000000046
PUBLIC	?VT@?$CVarTypeInfo@M@ATL@@2GB			; ATL::CVarTypeInfo<float>::VT
PUBLIC	?pmField@?$CVarTypeInfo@M@ATL@@2QQtagVARIANT@@MQ3@ ; ATL::CVarTypeInfo<float>::pmField
PUBLIC	__GUID_a6bc3ac0_dbaa_11ce_9de3_00aa004bb851
PUBLIC	?VT@?$CVarTypeInfo@PAM@ATL@@2GB			; ATL::CVarTypeInfo<float *>::VT
PUBLIC	__GUID_00020400_0000_0000_c000_000000000046
PUBLIC	?pmField@?$CVarTypeInfo@PAM@ATL@@2QQtagVARIANT@@PAMQ3@ ; ATL::CVarTypeInfo<float *>::pmField
PUBLIC	?VT@?$CVarTypeInfo@N@ATL@@2GB			; ATL::CVarTypeInfo<double>::VT
PUBLIC	?pmField@?$CVarTypeInfo@N@ATL@@2QQtagVARIANT@@NQ3@ ; ATL::CVarTypeInfo<double>::pmField
PUBLIC	?VT@?$CVarTypeInfo@PAN@ATL@@2GB			; ATL::CVarTypeInfo<double *>::VT
PUBLIC	?pmField@?$CVarTypeInfo@PAN@ATL@@2QQtagVARIANT@@PANQ3@ ; ATL::CVarTypeInfo<double *>::pmField
PUBLIC	?VT@?$CVarTypeInfo@PAUtagVARIANT@@@ATL@@2GB	; ATL::CVarTypeInfo<tagVARIANT *>::VT
PUBLIC	?has_denorm@_Num_base@std@@2W4float_denorm_style@2@B ; std::_Num_base::has_denorm
PUBLIC	__GUID_0002e012_0000_0000_c000_000000000046
PUBLIC	?has_denorm_loss@_Num_base@std@@2_NB		; std::_Num_base::has_denorm_loss
PUBLIC	?VT@?$CVarTypeInfo@PA_W@ATL@@2GB		; ATL::CVarTypeInfo<wchar_t *>::VT
PUBLIC	?pmField@?$CVarTypeInfo@PA_W@ATL@@2QQtagVARIANT@@PA_WQ3@ ; ATL::CVarTypeInfo<wchar_t *>::pmField
PUBLIC	?has_infinity@_Num_base@std@@2_NB		; std::_Num_base::has_infinity
PUBLIC	?has_quiet_NaN@_Num_base@std@@2_NB		; std::_Num_base::has_quiet_NaN
PUBLIC	?has_signaling_NaN@_Num_base@std@@2_NB		; std::_Num_base::has_signaling_NaN
PUBLIC	?is_bounded@_Num_base@std@@2_NB			; std::_Num_base::is_bounded
PUBLIC	?VT@?$CVarTypeInfo@PAPA_W@ATL@@2GB		; ATL::CVarTypeInfo<wchar_t * *>::VT
PUBLIC	?is_exact@_Num_base@std@@2_NB			; std::_Num_base::is_exact
PUBLIC	?pmField@?$CVarTypeInfo@PAPA_W@ATL@@2QQtagVARIANT@@PAPA_WQ3@ ; ATL::CVarTypeInfo<wchar_t * *>::pmField
PUBLIC	?is_iec559@_Num_base@std@@2_NB			; std::_Num_base::is_iec559
PUBLIC	?is_integer@_Num_base@std@@2_NB			; std::_Num_base::is_integer
PUBLIC	?is_modulo@_Num_base@std@@2_NB			; std::_Num_base::is_modulo
PUBLIC	?VT@?$CVarTypeInfo@PAUIUnknown@@@ATL@@2GB	; ATL::CVarTypeInfo<IUnknown *>::VT
PUBLIC	?C_Scr_Tokens@@3PAPADA				; C_Scr_Tokens
PUBLIC	?is_signed@_Num_base@std@@2_NB			; std::_Num_base::is_signed
PUBLIC	??_C@_09NLBFAKCN@?$FLNOTHING?$FN?$AA@		; `string'
PUBLIC	?pmField@?$CVarTypeInfo@PAUIUnknown@@@ATL@@2QQtagVARIANT@@PAUIUnknown@@Q3@ ; ATL::CVarTypeInfo<IUnknown *>::pmField
PUBLIC	??_C@_07INNADMMB@?$FLSETUP?$FN?$AA@		; `string'
PUBLIC	??_C@_09PGPMFOBE@?$FLBGIMAGE?$FN?$AA@		; `string'
PUBLIC	?is_specialized@_Num_base@std@@2_NB		; std::_Num_base::is_specialized
PUBLIC	??_C@_0O@GENLBJC@?$FLSLIDERIMAGE?$FN?$AA@	; `string'
PUBLIC	??_C@_0N@IBMNFEGO@?$FLSLIDERRECT?$FN?$AA@	; `string'
PUBLIC	??_C@_08FOHCIFDC@?$FLCOLORS?$FN?$AA@		; `string'
PUBLIC	?tinyness_before@_Num_base@std@@2_NB		; std::_Num_base::tinyness_before
PUBLIC	??_C@_0P@LCDEMJJH@?$FLBUTTONIMAGES?$FN?$AA@	; `string'
PUBLIC	??_C@_0M@DOCEACLM@?$FLINCREMENT?$FN?$AA@	; `string'
PUBLIC	??_C@_08CMBDAJIO@?$FLBGLINE?$FN?$AA@		; `string'
PUBLIC	?traps@_Num_base@std@@2_NB			; std::_Num_base::traps
PUBLIC	?round_style@_Num_base@std@@2W4float_round_style@2@B ; std::_Num_base::round_style
PUBLIC	?VT@?$CVarTypeInfo@PAPAUIUnknown@@@ATL@@2GB	; ATL::CVarTypeInfo<IUnknown * *>::VT
PUBLIC	?pmField@?$CVarTypeInfo@PAPAUIUnknown@@@ATL@@2QQtagVARIANT@@PAPAUIUnknown@@Q3@ ; ATL::CVarTypeInfo<IUnknown * *>::pmField
PUBLIC	?digits@_Num_base@std@@2HB			; std::_Num_base::digits
PUBLIC	?digits10@_Num_base@std@@2HB			; std::_Num_base::digits10
PUBLIC	?max_digits10@_Num_base@std@@2HB		; std::_Num_base::max_digits10
PUBLIC	__GUID_0000010c_0000_0000_c000_000000000046
PUBLIC	?max_exponent@_Num_base@std@@2HB		; std::_Num_base::max_exponent
PUBLIC	?VT@?$CVarTypeInfo@PAUIDispatch@@@ATL@@2GB	; ATL::CVarTypeInfo<IDispatch *>::VT
PUBLIC	?max_exponent10@_Num_base@std@@2HB		; std::_Num_base::max_exponent10
PUBLIC	?pmField@?$CVarTypeInfo@PAUIDispatch@@@ATL@@2QQtagVARIANT@@PAUIDispatch@@Q3@ ; ATL::CVarTypeInfo<IDispatch *>::pmField
PUBLIC	?min_exponent@_Num_base@std@@2HB		; std::_Num_base::min_exponent
PUBLIC	??_C@_05GIBEAPNE@CLSID?$AA@			; `string'
PUBLIC	?min_exponent10@_Num_base@std@@2HB		; std::_Num_base::min_exponent10
PUBLIC	?radix@_Num_base@std@@2HB			; std::_Num_base::radix
PUBLIC	_IID_IAxWinHostWindow
PUBLIC	?VT@?$CVarTypeInfo@PAPAUIDispatch@@@ATL@@2GB	; ATL::CVarTypeInfo<IDispatch * *>::VT
PUBLIC	?pmField@?$CVarTypeInfo@PAPAUIDispatch@@@ATL@@2QQtagVARIANT@@PAPAUIDispatch@@Q3@ ; ATL::CVarTypeInfo<IDispatch * *>::pmField
PUBLIC	?VT@?$CVarTypeInfo@TtagCY@@@ATL@@2GB		; ATL::CVarTypeInfo<tagCY>::VT
PUBLIC	?pmField@?$CVarTypeInfo@TtagCY@@@ATL@@2QQtagVARIANT@@TtagCY@@Q3@ ; ATL::CVarTypeInfo<tagCY>::pmField
PUBLIC	??_C@_05PDIKPLII@AppID?$AA@			; `string'
PUBLIC	?VT@?$CVarTypeInfo@PATtagCY@@@ATL@@2GB		; ATL::CVarTypeInfo<tagCY *>::VT
PUBLIC	?is_bounded@_Num_int_base@std@@2_NB		; std::_Num_int_base::is_bounded
PUBLIC	?pmField@?$CVarTypeInfo@PATtagCY@@@ATL@@2QQtagVARIANT@@PATtagCY@@Q3@ ; ATL::CVarTypeInfo<tagCY *>::pmField
PUBLIC	?is_exact@_Num_int_base@std@@2_NB		; std::_Num_int_base::is_exact
PUBLIC	?is_integer@_Num_int_base@std@@2_NB		; std::_Num_int_base::is_integer
PUBLIC	?is_modulo@_Num_int_base@std@@2_NB		; std::_Num_int_base::is_modulo
PUBLIC	?is_specialized@_Num_int_base@std@@2_NB		; std::_Num_int_base::is_specialized
PUBLIC	?radix@_Num_int_base@std@@2HB			; std::_Num_int_base::radix
PUBLIC	?has_denorm@_Num_float_base@std@@2W4float_denorm_style@2@B ; std::_Num_float_base::has_denorm
PUBLIC	?has_denorm_loss@_Num_float_base@std@@2_NB	; std::_Num_float_base::has_denorm_loss
PUBLIC	?has_infinity@_Num_float_base@std@@2_NB		; std::_Num_float_base::has_infinity
PUBLIC	?has_quiet_NaN@_Num_float_base@std@@2_NB	; std::_Num_float_base::has_quiet_NaN
PUBLIC	?has_signaling_NaN@_Num_float_base@std@@2_NB	; std::_Num_float_base::has_signaling_NaN
PUBLIC	?is_bounded@_Num_float_base@std@@2_NB		; std::_Num_float_base::is_bounded
PUBLIC	?is_exact@_Num_float_base@std@@2_NB		; std::_Num_float_base::is_exact
PUBLIC	?is_iec559@_Num_float_base@std@@2_NB		; std::_Num_float_base::is_iec559
PUBLIC	?is_integer@_Num_float_base@std@@2_NB		; std::_Num_float_base::is_integer
PUBLIC	?chDirSep@ATL@@3DB				; ATL::chDirSep
PUBLIC	?chRightBracket@ATL@@3DB			; ATL::chRightBracket
PUBLIC	?is_modulo@_Num_float_base@std@@2_NB		; std::_Num_float_base::is_modulo
PUBLIC	?chLeftBracket@ATL@@3DB				; ATL::chLeftBracket
PUBLIC	?chQuote@ATL@@3DB				; ATL::chQuote
PUBLIC	?chEquals@ATL@@3DB				; ATL::chEquals
PUBLIC	?is_signed@_Num_float_base@std@@2_NB		; std::_Num_float_base::is_signed
PUBLIC	?szStringVal@ATL@@3QBDB				; ATL::szStringVal
PUBLIC	??_C@_01CPLAODJH@S?$AA@				; `string'
PUBLIC	?multiszStringVal@ATL@@3QBDB			; ATL::multiszStringVal
PUBLIC	_IID_IAxWinHostWindowLic
PUBLIC	?is_specialized@_Num_float_base@std@@2_NB	; std::_Num_float_base::is_specialized
PUBLIC	??_C@_01PLPBNMEI@M?$AA@				; `string'
PUBLIC	?szDwordVal@ATL@@3QBDB				; ATL::szDwordVal
PUBLIC	??_C@_01CKDDGHAB@D?$AA@				; `string'
PUBLIC	?tinyness_before@_Num_float_base@std@@2_NB	; std::_Num_float_base::tinyness_before
PUBLIC	?szBinaryVal@ATL@@3QBDB				; ATL::szBinaryVal
PUBLIC	??_C@_01HMGJMAIH@B?$AA@				; `string'
PUBLIC	?szValToken@ATL@@3QBDB				; ATL::szValToken
PUBLIC	?traps@_Num_float_base@std@@2_NB		; std::_Num_float_base::traps
PUBLIC	??_C@_03LAIAPFCB@Val?$AA@			; `string'
PUBLIC	?szForceRemove@ATL@@3QBDB			; ATL::szForceRemove
PUBLIC	??_C@_0M@DBGDLGLL@ForceRemove?$AA@		; `string'
PUBLIC	?round_style@_Num_float_base@std@@2W4float_round_style@2@B ; std::_Num_float_base::round_style
PUBLIC	?szNoRemove@ATL@@3QBDB				; ATL::szNoRemove
PUBLIC	??_C@_08KAAPDIAN@NoRemove?$AA@			; `string'
PUBLIC	?szDelete@ATL@@3QBDB				; ATL::szDelete
PUBLIC	?radix@_Num_float_base@std@@2HB			; std::_Num_float_base::radix
PUBLIC	??_C@_06JBKGCNBB@Delete?$AA@			; `string'
PUBLIC	?ATL_CREATE_OBJECT@CComApartment@ATL@@2IA	; ATL::CComApartment::ATL_CREATE_OBJECT
PUBLIC	?is_signed@?$numeric_limits@D@std@@2_NB		; std::numeric_limits<char>::is_signed
PUBLIC	?digits@?$numeric_limits@D@std@@2HB		; std::numeric_limits<char>::digits
PUBLIC	?digits10@?$numeric_limits@D@std@@2HB		; std::numeric_limits<char>::digits10
PUBLIC	_IID_IAxWinAmbientDispatch
PUBLIC	?collate@?$_Locbase@H@std@@2HB			; std::_Locbase<int>::collate
PUBLIC	?ctype@?$_Locbase@H@std@@2HB			; std::_Locbase<int>::ctype
PUBLIC	?monetary@?$_Locbase@H@std@@2HB			; std::_Locbase<int>::monetary
PUBLIC	?numeric@?$_Locbase@H@std@@2HB			; std::_Locbase<int>::numeric
PUBLIC	?time@?$_Locbase@H@std@@2HB			; std::_Locbase<int>::time
PUBLIC	?messages@?$_Locbase@H@std@@2HB			; std::_Locbase<int>::messages
PUBLIC	?all@?$_Locbase@H@std@@2HB			; std::_Locbase<int>::all
PUBLIC	?none@?$_Locbase@H@std@@2HB			; std::_Locbase<int>::none
PUBLIC	?is_signed@?$numeric_limits@_W@std@@2_NB	; std::numeric_limits<wchar_t>::is_signed
PUBLIC	?digits@?$numeric_limits@_W@std@@2HB		; std::numeric_limits<wchar_t>::digits
PUBLIC	?digits10@?$numeric_limits@_W@std@@2HB		; std::numeric_limits<wchar_t>::digits10
PUBLIC	?_pAtlAutoThreadModule@ATL@@3PAUIAtlAutoThreadModule@1@A ; ATL::_pAtlAutoThreadModule
PUBLIC	?is_modulo@?$numeric_limits@_N@std@@2_NB	; std::numeric_limits<bool>::is_modulo
PUBLIC	?is_signed@?$numeric_limits@_N@std@@2_NB	; std::numeric_limits<bool>::is_signed
PUBLIC	?digits@?$numeric_limits@_N@std@@2HB		; std::numeric_limits<bool>::digits
PUBLIC	?digits10@?$numeric_limits@_N@std@@2HB		; std::numeric_limits<bool>::digits10
PUBLIC	?value@?$_Sizeof@HU_Nil@std@@U12@U12@U12@U12@U12@U12@@std@@2IB ; std::_Sizeof<int,std::_Nil,std::_Nil,std::_Nil,std::_Nil,std::_Nil,std::_Nil,std::_Nil>::value
PUBLIC	?is_signed@?$numeric_limits@C@std@@2_NB		; std::numeric_limits<signed char>::is_signed
PUBLIC	?m_bInitFailed@CAtlBaseModule@ATL@@2_NA		; ATL::CAtlBaseModule::m_bInitFailed
PUBLIC	?digits@?$numeric_limits@C@std@@2HB		; std::numeric_limits<signed char>::digits
PUBLIC	?digits10@?$numeric_limits@C@std@@2HB		; std::numeric_limits<signed char>::digits10
PUBLIC	?table_size@?$ctype@D@std@@2IB			; std::ctype<char>::table_size
PUBLIC	?is_signed@?$numeric_limits@E@std@@2_NB		; std::numeric_limits<unsigned char>::is_signed
PUBLIC	?digits@?$numeric_limits@E@std@@2HB		; std::numeric_limits<unsigned char>::digits
PUBLIC	?digits10@?$numeric_limits@E@std@@2HB		; std::numeric_limits<unsigned char>::digits10
PUBLIC	?is_signed@?$numeric_limits@F@std@@2_NB		; std::numeric_limits<short>::is_signed
PUBLIC	?digits@?$numeric_limits@F@std@@2HB		; std::numeric_limits<short>::digits
PUBLIC	__GUID_00000000_0000_0000_0000_000000000000
PUBLIC	?digits10@?$numeric_limits@F@std@@2HB		; std::numeric_limits<short>::digits10
PUBLIC	?MAX_VALUE@CRegParser@ATL@@1HB			; ATL::CRegParser::MAX_VALUE
PUBLIC	?is_signed@?$numeric_limits@G@std@@2_NB		; std::numeric_limits<unsigned short>::is_signed
PUBLIC	?digits@?$numeric_limits@G@std@@2HB		; std::numeric_limits<unsigned short>::digits
PUBLIC	?digits10@?$numeric_limits@G@std@@2HB		; std::numeric_limits<unsigned short>::digits10
PUBLIC	?rgszNeverDelete@CRegParser@ATL@@1QBQBDB	; ATL::CRegParser::rgszNeverDelete
PUBLIC	?cbNeverDelete@CRegParser@ATL@@1HB		; ATL::CRegParser::cbNeverDelete
PUBLIC	?MAX_TYPE@CRegParser@ATL@@1HB			; ATL::CRegParser::MAX_TYPE
PUBLIC	?is_signed@?$numeric_limits@H@std@@2_NB		; std::numeric_limits<int>::is_signed
PUBLIC	?digits@?$numeric_limits@H@std@@2HB		; std::numeric_limits<int>::digits
PUBLIC	__GUID_fc4801a3_2ba9_11cf_a229_00aa003d7352
PUBLIC	?digits10@?$numeric_limits@H@std@@2HB		; std::numeric_limits<int>::digits10
PUBLIC	?is_signed@?$numeric_limits@I@std@@2_NB		; std::numeric_limits<unsigned int>::is_signed
PUBLIC	_IID_IAxWinAmbientDispatchEx
PUBLIC	?digits@?$numeric_limits@I@std@@2HB		; std::numeric_limits<unsigned int>::digits
PUBLIC	?digits10@?$numeric_limits@I@std@@2HB		; std::numeric_limits<unsigned int>::digits10
PUBLIC	_IID_IInternalConnection
PUBLIC	?is_signed@?$numeric_limits@J@std@@2_NB		; std::numeric_limits<long>::is_signed
PUBLIC	?digits@?$numeric_limits@J@std@@2HB		; std::numeric_limits<long>::digits
PUBLIC	?digits10@?$numeric_limits@J@std@@2HB		; std::numeric_limits<long>::digits10
PUBLIC	__GUID_1cf2b120_547d_101b_8e65_08002b2bd119
PUBLIC	?is_signed@?$numeric_limits@K@std@@2_NB		; std::numeric_limits<unsigned long>::is_signed
PUBLIC	?digits@?$numeric_limits@K@std@@2HB		; std::numeric_limits<unsigned long>::digits
PUBLIC	?digits10@?$numeric_limits@K@std@@2HB		; std::numeric_limits<unsigned long>::digits10
PUBLIC	?value@?$integral_constant@I$0A@@std@@2IB	; std::integral_constant<unsigned int,0>::value
PUBLIC	?_pAtlModule@ATL@@3PAVCAtlModule@1@A		; ATL::_pAtlModule
PUBLIC	?m_libid@CAtlModule@ATL@@2U_GUID@@A		; ATL::CAtlModule::m_libid
PUBLIC	?is_signed@?$numeric_limits@_J@std@@2_NB	; std::numeric_limits<__int64>::is_signed
PUBLIC	?digits@?$numeric_limits@_J@std@@2HB		; std::numeric_limits<__int64>::digits
PUBLIC	?digits10@?$numeric_limits@_J@std@@2HB		; std::numeric_limits<__int64>::digits10
PUBLIC	?is_signed@?$numeric_limits@_K@std@@2_NB	; std::numeric_limits<unsigned __int64>::is_signed
PUBLIC	?digits@?$numeric_limits@_K@std@@2HB		; std::numeric_limits<unsigned __int64>::digits
PUBLIC	?digits10@?$numeric_limits@_K@std@@2HB		; std::numeric_limits<unsigned __int64>::digits10
PUBLIC	__GUID_00000146_0000_0000_c000_000000000046
PUBLIC	?digits@?$numeric_limits@M@std@@2HB		; std::numeric_limits<float>::digits
PUBLIC	?digits10@?$numeric_limits@M@std@@2HB		; std::numeric_limits<float>::digits10
PUBLIC	?max_digits10@?$numeric_limits@M@std@@2HB	; std::numeric_limits<float>::max_digits10
PUBLIC	?max_exponent@?$numeric_limits@M@std@@2HB	; std::numeric_limits<float>::max_exponent
PUBLIC	?max_exponent10@?$numeric_limits@M@std@@2HB	; std::numeric_limits<float>::max_exponent10
PUBLIC	?min_exponent@?$numeric_limits@M@std@@2HB	; std::numeric_limits<float>::min_exponent
PUBLIC	?min_exponent10@?$numeric_limits@M@std@@2HB	; std::numeric_limits<float>::min_exponent10
PUBLIC	?VT@?$CVarTypeInfo@D@ATL@@2GB			; ATL::CVarTypeInfo<char>::VT
PUBLIC	?pmField@?$CVarTypeInfo@D@ATL@@2QQtagVARIANT@@DQ3@ ; ATL::CVarTypeInfo<char>::pmField
PUBLIC	?VT@?$CVarTypeInfo@E@ATL@@2GB			; ATL::CVarTypeInfo<unsigned char>::VT
PUBLIC	?pmField@?$CVarTypeInfo@E@ATL@@2QQtagVARIANT@@EQ3@ ; ATL::CVarTypeInfo<unsigned char>::pmField
PUBLIC	_CLSID_Registrar
PUBLIC	?digits@?$numeric_limits@N@std@@2HB		; std::numeric_limits<double>::digits
PUBLIC	?_Min@?$AtlLimits@H@ATL@@2HB			; ATL::AtlLimits<int>::_Min
PUBLIC	?VT@?$CVarTypeInfo@PAD@ATL@@2GB			; ATL::CVarTypeInfo<char *>::VT
PUBLIC	?_Max@?$AtlLimits@H@ATL@@2HB			; ATL::AtlLimits<int>::_Max
PUBLIC	?digits10@?$numeric_limits@N@std@@2HB		; std::numeric_limits<double>::digits10
PUBLIC	?pmField@?$CVarTypeInfo@PAD@ATL@@2QQtagVARIANT@@PADQ3@ ; ATL::CVarTypeInfo<char *>::pmField
PUBLIC	?max_digits10@?$numeric_limits@N@std@@2HB	; std::numeric_limits<double>::max_digits10
PUBLIC	?max_exponent@?$numeric_limits@N@std@@2HB	; std::numeric_limits<double>::max_exponent
PUBLIC	?_Min@?$AtlLimits@I@ATL@@2IB			; ATL::AtlLimits<unsigned int>::_Min
PUBLIC	?max_exponent10@?$numeric_limits@N@std@@2HB	; std::numeric_limits<double>::max_exponent10
PUBLIC	?_Max@?$AtlLimits@I@ATL@@2IB			; ATL::AtlLimits<unsigned int>::_Max
PUBLIC	?VT@?$CVarTypeInfo@PAE@ATL@@2GB			; ATL::CVarTypeInfo<unsigned char *>::VT
PUBLIC	__GUID_00000109_0000_0000_c000_000000000046
PUBLIC	?pmField@?$CVarTypeInfo@PAE@ATL@@2QQtagVARIANT@@PAEQ3@ ; ATL::CVarTypeInfo<unsigned char *>::pmField
PUBLIC	?min_exponent@?$numeric_limits@N@std@@2HB	; std::numeric_limits<double>::min_exponent
PUBLIC	__GUID_7fd52380_4e07_101b_ae2d_08002b2ec713
PUBLIC	?min_exponent10@?$numeric_limits@N@std@@2HB	; std::numeric_limits<double>::min_exponent10
PUBLIC	?_Min@?$AtlLimits@J@ATL@@2JB			; ATL::AtlLimits<long>::_Min
PUBLIC	__GUID_b196b284_bab4_101a_b69c_00aa00341d07
PUBLIC	?_Max@?$AtlLimits@J@ATL@@2JB			; ATL::AtlLimits<long>::_Max
PUBLIC	?VT@?$CVarTypeInfo@F@ATL@@2GB			; ATL::CVarTypeInfo<short>::VT
PUBLIC	_IID_IRegistrar
PUBLIC	?pmField@?$CVarTypeInfo@F@ATL@@2QQtagVARIANT@@FQ3@ ; ATL::CVarTypeInfo<short>::pmField
PUBLIC	?_Min@?$AtlLimits@K@ATL@@2KB			; ATL::AtlLimits<unsigned long>::_Min
PUBLIC	?_Max@?$AtlLimits@K@ATL@@2KB			; ATL::AtlLimits<unsigned long>::_Max
PUBLIC	?VT@?$CVarTypeInfo@PAF@ATL@@2GB			; ATL::CVarTypeInfo<short *>::VT
PUBLIC	?pmField@?$CVarTypeInfo@PAF@ATL@@2QQtagVARIANT@@PAFQ3@ ; ATL::CVarTypeInfo<short *>::pmField
PUBLIC	?_Min@?$AtlLimits@_J@ATL@@2_JB			; ATL::AtlLimits<__int64>::_Min
PUBLIC	__GUID_00000001_0000_0000_c000_000000000046
PUBLIC	?_Max@?$AtlLimits@_J@ATL@@2_JB			; ATL::AtlLimits<__int64>::_Max
PUBLIC	?digits@?$numeric_limits@O@std@@2HB		; std::numeric_limits<long double>::digits
PUBLIC	?VT@?$CVarTypeInfo@G@ATL@@2GB			; ATL::CVarTypeInfo<unsigned short>::VT
PUBLIC	?digits10@?$numeric_limits@O@std@@2HB		; std::numeric_limits<long double>::digits10
PUBLIC	?pmField@?$CVarTypeInfo@G@ATL@@2QQtagVARIANT@@GQ3@ ; ATL::CVarTypeInfo<unsigned short>::pmField
PUBLIC	?max_digits10@?$numeric_limits@O@std@@2HB	; std::numeric_limits<long double>::max_digits10
PUBLIC	__GUID_00020401_0000_0000_c000_000000000046
PUBLIC	?_Min@?$AtlLimits@_K@ATL@@2_KB			; ATL::AtlLimits<unsigned __int64>::_Min
PUBLIC	_LIBID_ATLLib
PUBLIC	?max_exponent@?$numeric_limits@O@std@@2HB	; std::numeric_limits<long double>::max_exponent
PUBLIC	?_Max@?$AtlLimits@_K@ATL@@2_KB			; ATL::AtlLimits<unsigned __int64>::_Max
PUBLIC	__GUID_00020412_0000_0000_c000_000000000046
PUBLIC	?max_exponent10@?$numeric_limits@O@std@@2HB	; std::numeric_limits<long double>::max_exponent10
PUBLIC	?VT@?$CVarTypeInfo@PAG@ATL@@2GB			; ATL::CVarTypeInfo<unsigned short *>::VT
PUBLIC	?skipws@?$_Iosb@H@std@@2W4_Fmtflags@12@B	; std::_Iosb<int>::skipws
PUBLIC	?pmField@?$CVarTypeInfo@PAG@ATL@@2QQtagVARIANT@@PAGQ3@ ; ATL::CVarTypeInfo<unsigned short *>::pmField
PUBLIC	?unitbuf@?$_Iosb@H@std@@2W4_Fmtflags@12@B	; std::_Iosb<int>::unitbuf
PUBLIC	?min_exponent@?$numeric_limits@O@std@@2HB	; std::numeric_limits<long double>::min_exponent
PUBLIC	?uppercase@?$_Iosb@H@std@@2W4_Fmtflags@12@B	; std::_Iosb<int>::uppercase
PUBLIC	?min_exponent10@?$numeric_limits@O@std@@2HB	; std::numeric_limits<long double>::min_exponent10
PUBLIC	?showbase@?$_Iosb@H@std@@2W4_Fmtflags@12@B	; std::_Iosb<int>::showbase
PUBLIC	?showpoint@?$_Iosb@H@std@@2W4_Fmtflags@12@B	; std::_Iosb<int>::showpoint
PUBLIC	?VT@?$CVarTypeInfo@H@ATL@@2GB			; ATL::CVarTypeInfo<int>::VT
PUBLIC	?pmField@?$CVarTypeInfo@H@ATL@@2QQtagVARIANT@@HQ3@ ; ATL::CVarTypeInfo<int>::pmField
PUBLIC	?showpos@?$_Iosb@H@std@@2W4_Fmtflags@12@B	; std::_Iosb<int>::showpos
PUBLIC	?left@?$_Iosb@H@std@@2W4_Fmtflags@12@B		; std::_Iosb<int>::left
PUBLIC	?right@?$_Iosb@H@std@@2W4_Fmtflags@12@B		; std::_Iosb<int>::right
PUBLIC	?internal@?$_Iosb@H@std@@2W4_Fmtflags@12@B	; std::_Iosb<int>::internal
PUBLIC	?VT@?$CVarTypeInfo@PAH@ATL@@2GB			; ATL::CVarTypeInfo<int *>::VT
PUBLIC	?dec@?$_Iosb@H@std@@2W4_Fmtflags@12@B		; std::_Iosb<int>::dec
PUBLIC	?pmField@?$CVarTypeInfo@PAH@ATL@@2QQtagVARIANT@@PAHQ3@ ; ATL::CVarTypeInfo<int *>::pmField
PUBLIC	?oct@?$_Iosb@H@std@@2W4_Fmtflags@12@B		; std::_Iosb<int>::oct
PUBLIC	?hex@?$_Iosb@H@std@@2W4_Fmtflags@12@B		; std::_Iosb<int>::hex
PUBLIC	?scientific@?$_Iosb@H@std@@2W4_Fmtflags@12@B	; std::_Iosb<int>::scientific
PUBLIC	?VT@?$CVarTypeInfo@I@ATL@@2GB			; ATL::CVarTypeInfo<unsigned int>::VT
PUBLIC	?fixed@?$_Iosb@H@std@@2W4_Fmtflags@12@B		; std::_Iosb<int>::fixed
PUBLIC	?pmField@?$CVarTypeInfo@I@ATL@@2QQtagVARIANT@@IQ3@ ; ATL::CVarTypeInfo<unsigned int>::pmField
PUBLIC	?hexfloat@?$_Iosb@H@std@@2W4_Fmtflags@12@B	; std::_Iosb<int>::hexfloat
PUBLIC	?boolalpha@?$_Iosb@H@std@@2W4_Fmtflags@12@B	; std::_Iosb<int>::boolalpha
PUBLIC	?_Stdio@?$_Iosb@H@std@@2W4_Fmtflags@12@B	; std::_Iosb<int>::_Stdio
PUBLIC	?value@?$integral_constant@_N$0A@@std@@2_NB	; std::integral_constant<bool,0>::value
PUBLIC	?adjustfield@?$_Iosb@H@std@@2W4_Fmtflags@12@B	; std::_Iosb<int>::adjustfield
PUBLIC	?VT@?$CVarTypeInfo@PAI@ATL@@2GB			; ATL::CVarTypeInfo<unsigned int *>::VT
PUBLIC	?pmField@?$CVarTypeInfo@PAI@ATL@@2QQtagVARIANT@@PAIQ3@ ; ATL::CVarTypeInfo<unsigned int *>::pmField
PUBLIC	?basefield@?$_Iosb@H@std@@2W4_Fmtflags@12@B	; std::_Iosb<int>::basefield
PUBLIC	?floatfield@?$_Iosb@H@std@@2W4_Fmtflags@12@B	; std::_Iosb<int>::floatfield
PUBLIC	?goodbit@?$_Iosb@H@std@@2W4_Iostate@12@B	; std::_Iosb<int>::goodbit
PUBLIC	?VT@?$CVarTypeInfo@J@ATL@@2GB			; ATL::CVarTypeInfo<long>::VT
PUBLIC	?eofbit@?$_Iosb@H@std@@2W4_Iostate@12@B		; std::_Iosb<int>::eofbit
PUBLIC	?value@?$integral_constant@_N$00@std@@2_NB	; std::integral_constant<bool,1>::value
PUBLIC	?pmField@?$CVarTypeInfo@J@ATL@@2QQtagVARIANT@@JQ3@ ; ATL::CVarTypeInfo<long>::pmField
PUBLIC	?failbit@?$_Iosb@H@std@@2W4_Iostate@12@B	; std::_Iosb<int>::failbit
PUBLIC	?_pModule@ATL@@3PAVCComModule@1@A		; ATL::_pModule
PUBLIC	?badbit@?$_Iosb@H@std@@2W4_Iostate@12@B		; std::_Iosb<int>::badbit
PUBLIC	?_Hardfail@?$_Iosb@H@std@@2W4_Iostate@12@B	; std::_Iosb<int>::_Hardfail
PUBLIC	?VT@?$CVarTypeInfo@PAJ@ATL@@2GB			; ATL::CVarTypeInfo<long *>::VT
PUBLIC	?in@?$_Iosb@H@std@@2W4_Openmode@12@B		; std::_Iosb<int>::in
PUBLIC	?pmField@?$CVarTypeInfo@PAJ@ATL@@2QQtagVARIANT@@PAJQ3@ ; ATL::CVarTypeInfo<long *>::pmField
PUBLIC	?out@?$_Iosb@H@std@@2W4_Openmode@12@B		; std::_Iosb<int>::out
PUBLIC	_IID_IDocHostUIHandlerDispatch
PUBLIC	?ate@?$_Iosb@H@std@@2W4_Openmode@12@B		; std::_Iosb<int>::ate
PUBLIC	?app@?$_Iosb@H@std@@2W4_Openmode@12@B		; std::_Iosb<int>::app
PUBLIC	?VT@?$CVarTypeInfo@K@ATL@@2GB			; ATL::CVarTypeInfo<unsigned long>::VT
PUBLIC	?trunc@?$_Iosb@H@std@@2W4_Openmode@12@B		; std::_Iosb<int>::trunc
PUBLIC	?pmField@?$CVarTypeInfo@K@ATL@@2QQtagVARIANT@@KQ3@ ; ATL::CVarTypeInfo<unsigned long>::pmField
PUBLIC	?_Nocreate@?$_Iosb@H@std@@2W4_Openmode@12@B	; std::_Iosb<int>::_Nocreate
PUBLIC	?_Noreplace@?$_Iosb@H@std@@2W4_Openmode@12@B	; std::_Iosb<int>::_Noreplace
PUBLIC	?binary@?$_Iosb@H@std@@2W4_Openmode@12@B	; std::_Iosb<int>::binary
PUBLIC	?VT@?$CVarTypeInfo@PAK@ATL@@2GB			; ATL::CVarTypeInfo<unsigned long *>::VT
;	COMDAT ?_pPerfRegFunc@ATL@@3P6AJPAUHINSTANCE__@@@ZA
_BSS	SEGMENT
?_pPerfRegFunc@ATL@@3P6AJPAUHINSTANCE__@@@ZA DD 01H DUP (?) ; ATL::_pPerfRegFunc
_BSS	ENDS
;	COMDAT ?_pPerfUnRegFunc@ATL@@3P6AJXZA
_BSS	SEGMENT
?_pPerfUnRegFunc@ATL@@3P6AJXZA DD 01H DUP (?)		; ATL::_pPerfUnRegFunc
_BSS	ENDS
;	COMDAT ?_AtlRegisterPerUser@ATL@@3_NA
_BSS	SEGMENT
?_AtlRegisterPerUser@ATL@@3_NA DB 01H DUP (?)		; ATL::_AtlRegisterPerUser
_BSS	ENDS
;	COMDAT ?ATL_CREATE_OBJECT@CComApartment@ATL@@2IA
_BSS	SEGMENT
?ATL_CREATE_OBJECT@CComApartment@ATL@@2IA DD 01H DUP (?) ; ATL::CComApartment::ATL_CREATE_OBJECT
_BSS	ENDS
;	COMDAT ?_pAtlAutoThreadModule@ATL@@3PAUIAtlAutoThreadModule@1@A
_BSS	SEGMENT
?_pAtlAutoThreadModule@ATL@@3PAUIAtlAutoThreadModule@1@A DD 01H DUP (?) ; ATL::_pAtlAutoThreadModule
_BSS	ENDS
;	COMDAT ?m_bInitFailed@CAtlBaseModule@ATL@@2_NA
_BSS	SEGMENT
?m_bInitFailed@CAtlBaseModule@ATL@@2_NA DB 01H DUP (?)	; ATL::CAtlBaseModule::m_bInitFailed
_BSS	ENDS
;	COMDAT ?_pAtlModule@ATL@@3PAVCAtlModule@1@A
_BSS	SEGMENT
?_pAtlModule@ATL@@3PAVCAtlModule@1@A DD 01H DUP (?)	; ATL::_pAtlModule
_BSS	ENDS
;	COMDAT ?m_libid@CAtlModule@ATL@@2U_GUID@@A
_BSS	SEGMENT
?m_libid@CAtlModule@ATL@@2U_GUID@@A DB 010H DUP (?)	; ATL::CAtlModule::m_libid
_BSS	ENDS
;	COMDAT ?_pModule@ATL@@3PAVCComModule@1@A
_BSS	SEGMENT
?_pModule@ATL@@3PAVCComModule@1@A DD 01H DUP (?)	; ATL::_pModule
_BSS	ENDS
;	COMDAT ?VT@?$CVarTypeInfo@PAK@ATL@@2GB
CONST	SEGMENT
?VT@?$CVarTypeInfo@PAK@ATL@@2GB DW 04013H		; ATL::CVarTypeInfo<unsigned long *>::VT
CONST	ENDS
;	COMDAT ?binary@?$_Iosb@H@std@@2W4_Openmode@12@B
CONST	SEGMENT
?binary@?$_Iosb@H@std@@2W4_Openmode@12@B DD 020H	; std::_Iosb<int>::binary
CONST	ENDS
;	COMDAT ?_Noreplace@?$_Iosb@H@std@@2W4_Openmode@12@B
CONST	SEGMENT
?_Noreplace@?$_Iosb@H@std@@2W4_Openmode@12@B DD 080H	; std::_Iosb<int>::_Noreplace
CONST	ENDS
;	COMDAT ?_Nocreate@?$_Iosb@H@std@@2W4_Openmode@12@B
CONST	SEGMENT
?_Nocreate@?$_Iosb@H@std@@2W4_Openmode@12@B DD 040H	; std::_Iosb<int>::_Nocreate
CONST	ENDS
;	COMDAT ?pmField@?$CVarTypeInfo@K@ATL@@2QQtagVARIANT@@KQ3@
CONST	SEGMENT
?pmField@?$CVarTypeInfo@K@ATL@@2QQtagVARIANT@@KQ3@ DD 08H ; ATL::CVarTypeInfo<unsigned long>::pmField
CONST	ENDS
;	COMDAT ?trunc@?$_Iosb@H@std@@2W4_Openmode@12@B
CONST	SEGMENT
?trunc@?$_Iosb@H@std@@2W4_Openmode@12@B DD 010H		; std::_Iosb<int>::trunc
CONST	ENDS
;	COMDAT ?VT@?$CVarTypeInfo@K@ATL@@2GB
CONST	SEGMENT
?VT@?$CVarTypeInfo@K@ATL@@2GB DW 013H			; ATL::CVarTypeInfo<unsigned long>::VT
CONST	ENDS
;	COMDAT ?app@?$_Iosb@H@std@@2W4_Openmode@12@B
CONST	SEGMENT
?app@?$_Iosb@H@std@@2W4_Openmode@12@B DD 08H		; std::_Iosb<int>::app
CONST	ENDS
;	COMDAT ?ate@?$_Iosb@H@std@@2W4_Openmode@12@B
CONST	SEGMENT
?ate@?$_Iosb@H@std@@2W4_Openmode@12@B DD 04H		; std::_Iosb<int>::ate
CONST	ENDS
;	COMDAT _IID_IDocHostUIHandlerDispatch
CONST	SEGMENT
_IID_IDocHostUIHandlerDispatch DD 0425b5af0H
	DW	065f1H
	DW	011d1H
	DB	096H
	DB	011H
	DB	00H
	DB	00H
	DB	0f8H
	DB	01eH
	DB	0dH
	DB	0dH
CONST	ENDS
;	COMDAT ?out@?$_Iosb@H@std@@2W4_Openmode@12@B
CONST	SEGMENT
?out@?$_Iosb@H@std@@2W4_Openmode@12@B DD 02H		; std::_Iosb<int>::out
CONST	ENDS
;	COMDAT ?pmField@?$CVarTypeInfo@PAJ@ATL@@2QQtagVARIANT@@PAJQ3@
CONST	SEGMENT
?pmField@?$CVarTypeInfo@PAJ@ATL@@2QQtagVARIANT@@PAJQ3@ DD 08H ; ATL::CVarTypeInfo<long *>::pmField
CONST	ENDS
;	COMDAT ?in@?$_Iosb@H@std@@2W4_Openmode@12@B
CONST	SEGMENT
?in@?$_Iosb@H@std@@2W4_Openmode@12@B DD 01H		; std::_Iosb<int>::in
CONST	ENDS
;	COMDAT ?VT@?$CVarTypeInfo@PAJ@ATL@@2GB
CONST	SEGMENT
?VT@?$CVarTypeInfo@PAJ@ATL@@2GB DW 04003H		; ATL::CVarTypeInfo<long *>::VT
CONST	ENDS
;	COMDAT ?_Hardfail@?$_Iosb@H@std@@2W4_Iostate@12@B
CONST	SEGMENT
?_Hardfail@?$_Iosb@H@std@@2W4_Iostate@12@B DD 010H	; std::_Iosb<int>::_Hardfail
CONST	ENDS
;	COMDAT ?badbit@?$_Iosb@H@std@@2W4_Iostate@12@B
CONST	SEGMENT
?badbit@?$_Iosb@H@std@@2W4_Iostate@12@B DD 04H		; std::_Iosb<int>::badbit
CONST	ENDS
;	COMDAT ?failbit@?$_Iosb@H@std@@2W4_Iostate@12@B
CONST	SEGMENT
?failbit@?$_Iosb@H@std@@2W4_Iostate@12@B DD 02H		; std::_Iosb<int>::failbit
CONST	ENDS
;	COMDAT ?pmField@?$CVarTypeInfo@J@ATL@@2QQtagVARIANT@@JQ3@
CONST	SEGMENT
?pmField@?$CVarTypeInfo@J@ATL@@2QQtagVARIANT@@JQ3@ DD 08H ; ATL::CVarTypeInfo<long>::pmField
CONST	ENDS
;	COMDAT ?value@?$integral_constant@_N$00@std@@2_NB
CONST	SEGMENT
?value@?$integral_constant@_N$00@std@@2_NB DB 01H	; std::integral_constant<bool,1>::value
CONST	ENDS
;	COMDAT ?eofbit@?$_Iosb@H@std@@2W4_Iostate@12@B
CONST	SEGMENT
?eofbit@?$_Iosb@H@std@@2W4_Iostate@12@B DD 01H		; std::_Iosb<int>::eofbit
CONST	ENDS
;	COMDAT ?VT@?$CVarTypeInfo@J@ATL@@2GB
CONST	SEGMENT
?VT@?$CVarTypeInfo@J@ATL@@2GB DW 03H			; ATL::CVarTypeInfo<long>::VT
CONST	ENDS
;	COMDAT ?goodbit@?$_Iosb@H@std@@2W4_Iostate@12@B
CONST	SEGMENT
?goodbit@?$_Iosb@H@std@@2W4_Iostate@12@B DD 00H		; std::_Iosb<int>::goodbit
CONST	ENDS
;	COMDAT ?floatfield@?$_Iosb@H@std@@2W4_Fmtflags@12@B
CONST	SEGMENT
?floatfield@?$_Iosb@H@std@@2W4_Fmtflags@12@B DD 03000H	; std::_Iosb<int>::floatfield
CONST	ENDS
;	COMDAT ?basefield@?$_Iosb@H@std@@2W4_Fmtflags@12@B
CONST	SEGMENT
?basefield@?$_Iosb@H@std@@2W4_Fmtflags@12@B DD 0e00H	; std::_Iosb<int>::basefield
CONST	ENDS
;	COMDAT ?pmField@?$CVarTypeInfo@PAI@ATL@@2QQtagVARIANT@@PAIQ3@
CONST	SEGMENT
?pmField@?$CVarTypeInfo@PAI@ATL@@2QQtagVARIANT@@PAIQ3@ DD 08H ; ATL::CVarTypeInfo<unsigned int *>::pmField
CONST	ENDS
;	COMDAT ?VT@?$CVarTypeInfo@PAI@ATL@@2GB
CONST	SEGMENT
?VT@?$CVarTypeInfo@PAI@ATL@@2GB DW 04013H		; ATL::CVarTypeInfo<unsigned int *>::VT
CONST	ENDS
;	COMDAT ?adjustfield@?$_Iosb@H@std@@2W4_Fmtflags@12@B
CONST	SEGMENT
?adjustfield@?$_Iosb@H@std@@2W4_Fmtflags@12@B DD 01c0H	; std::_Iosb<int>::adjustfield
CONST	ENDS
;	COMDAT ?value@?$integral_constant@_N$0A@@std@@2_NB
CONST	SEGMENT
?value@?$integral_constant@_N$0A@@std@@2_NB DB 00H	; std::integral_constant<bool,0>::value
CONST	ENDS
;	COMDAT ?_Stdio@?$_Iosb@H@std@@2W4_Fmtflags@12@B
CONST	SEGMENT
?_Stdio@?$_Iosb@H@std@@2W4_Fmtflags@12@B DD 08000H	; std::_Iosb<int>::_Stdio
CONST	ENDS
;	COMDAT ?boolalpha@?$_Iosb@H@std@@2W4_Fmtflags@12@B
CONST	SEGMENT
?boolalpha@?$_Iosb@H@std@@2W4_Fmtflags@12@B DD 04000H	; std::_Iosb<int>::boolalpha
CONST	ENDS
;	COMDAT ?hexfloat@?$_Iosb@H@std@@2W4_Fmtflags@12@B
CONST	SEGMENT
?hexfloat@?$_Iosb@H@std@@2W4_Fmtflags@12@B DD 03000H	; std::_Iosb<int>::hexfloat
CONST	ENDS
;	COMDAT ?pmField@?$CVarTypeInfo@I@ATL@@2QQtagVARIANT@@IQ3@
CONST	SEGMENT
?pmField@?$CVarTypeInfo@I@ATL@@2QQtagVARIANT@@IQ3@ DD 08H ; ATL::CVarTypeInfo<unsigned int>::pmField
CONST	ENDS
;	COMDAT ?fixed@?$_Iosb@H@std@@2W4_Fmtflags@12@B
CONST	SEGMENT
?fixed@?$_Iosb@H@std@@2W4_Fmtflags@12@B DD 02000H	; std::_Iosb<int>::fixed
CONST	ENDS
;	COMDAT ?VT@?$CVarTypeInfo@I@ATL@@2GB
CONST	SEGMENT
?VT@?$CVarTypeInfo@I@ATL@@2GB DW 013H			; ATL::CVarTypeInfo<unsigned int>::VT
CONST	ENDS
;	COMDAT ?scientific@?$_Iosb@H@std@@2W4_Fmtflags@12@B
CONST	SEGMENT
?scientific@?$_Iosb@H@std@@2W4_Fmtflags@12@B DD 01000H	; std::_Iosb<int>::scientific
CONST	ENDS
;	COMDAT ?hex@?$_Iosb@H@std@@2W4_Fmtflags@12@B
CONST	SEGMENT
?hex@?$_Iosb@H@std@@2W4_Fmtflags@12@B DD 0800H		; std::_Iosb<int>::hex
CONST	ENDS
;	COMDAT ?oct@?$_Iosb@H@std@@2W4_Fmtflags@12@B
CONST	SEGMENT
?oct@?$_Iosb@H@std@@2W4_Fmtflags@12@B DD 0400H		; std::_Iosb<int>::oct
CONST	ENDS
;	COMDAT ?pmField@?$CVarTypeInfo@PAH@ATL@@2QQtagVARIANT@@PAHQ3@
CONST	SEGMENT
?pmField@?$CVarTypeInfo@PAH@ATL@@2QQtagVARIANT@@PAHQ3@ DD 08H ; ATL::CVarTypeInfo<int *>::pmField
CONST	ENDS
;	COMDAT ?dec@?$_Iosb@H@std@@2W4_Fmtflags@12@B
CONST	SEGMENT
?dec@?$_Iosb@H@std@@2W4_Fmtflags@12@B DD 0200H		; std::_Iosb<int>::dec
CONST	ENDS
;	COMDAT ?VT@?$CVarTypeInfo@PAH@ATL@@2GB
CONST	SEGMENT
?VT@?$CVarTypeInfo@PAH@ATL@@2GB DW 04003H		; ATL::CVarTypeInfo<int *>::VT
CONST	ENDS
;	COMDAT ?internal@?$_Iosb@H@std@@2W4_Fmtflags@12@B
CONST	SEGMENT
?internal@?$_Iosb@H@std@@2W4_Fmtflags@12@B DD 0100H	; std::_Iosb<int>::internal
CONST	ENDS
;	COMDAT ?right@?$_Iosb@H@std@@2W4_Fmtflags@12@B
CONST	SEGMENT
?right@?$_Iosb@H@std@@2W4_Fmtflags@12@B DD 080H		; std::_Iosb<int>::right
CONST	ENDS
;	COMDAT ?left@?$_Iosb@H@std@@2W4_Fmtflags@12@B
CONST	SEGMENT
?left@?$_Iosb@H@std@@2W4_Fmtflags@12@B DD 040H		; std::_Iosb<int>::left
CONST	ENDS
;	COMDAT ?showpos@?$_Iosb@H@std@@2W4_Fmtflags@12@B
CONST	SEGMENT
?showpos@?$_Iosb@H@std@@2W4_Fmtflags@12@B DD 020H	; std::_Iosb<int>::showpos
CONST	ENDS
;	COMDAT ?pmField@?$CVarTypeInfo@H@ATL@@2QQtagVARIANT@@HQ3@
CONST	SEGMENT
?pmField@?$CVarTypeInfo@H@ATL@@2QQtagVARIANT@@HQ3@ DD 08H ; ATL::CVarTypeInfo<int>::pmField
CONST	ENDS
;	COMDAT ?VT@?$CVarTypeInfo@H@ATL@@2GB
CONST	SEGMENT
?VT@?$CVarTypeInfo@H@ATL@@2GB DW 03H			; ATL::CVarTypeInfo<int>::VT
CONST	ENDS
;	COMDAT ?showpoint@?$_Iosb@H@std@@2W4_Fmtflags@12@B
CONST	SEGMENT
?showpoint@?$_Iosb@H@std@@2W4_Fmtflags@12@B DD 010H	; std::_Iosb<int>::showpoint
CONST	ENDS
;	COMDAT ?showbase@?$_Iosb@H@std@@2W4_Fmtflags@12@B
CONST	SEGMENT
?showbase@?$_Iosb@H@std@@2W4_Fmtflags@12@B DD 08H	; std::_Iosb<int>::showbase
CONST	ENDS
;	COMDAT ?min_exponent10@?$numeric_limits@O@std@@2HB
CONST	SEGMENT
?min_exponent10@?$numeric_limits@O@std@@2HB DD 0fffffecdH ; std::numeric_limits<long double>::min_exponent10
CONST	ENDS
;	COMDAT ?uppercase@?$_Iosb@H@std@@2W4_Fmtflags@12@B
CONST	SEGMENT
?uppercase@?$_Iosb@H@std@@2W4_Fmtflags@12@B DD 04H	; std::_Iosb<int>::uppercase
CONST	ENDS
;	COMDAT ?min_exponent@?$numeric_limits@O@std@@2HB
CONST	SEGMENT
?min_exponent@?$numeric_limits@O@std@@2HB DD 0fffffc03H	; std::numeric_limits<long double>::min_exponent
CONST	ENDS
;	COMDAT ?unitbuf@?$_Iosb@H@std@@2W4_Fmtflags@12@B
CONST	SEGMENT
?unitbuf@?$_Iosb@H@std@@2W4_Fmtflags@12@B DD 02H	; std::_Iosb<int>::unitbuf
CONST	ENDS
;	COMDAT ?pmField@?$CVarTypeInfo@PAG@ATL@@2QQtagVARIANT@@PAGQ3@
CONST	SEGMENT
?pmField@?$CVarTypeInfo@PAG@ATL@@2QQtagVARIANT@@PAGQ3@ DD 08H ; ATL::CVarTypeInfo<unsigned short *>::pmField
CONST	ENDS
;	COMDAT ?skipws@?$_Iosb@H@std@@2W4_Fmtflags@12@B
CONST	SEGMENT
?skipws@?$_Iosb@H@std@@2W4_Fmtflags@12@B DD 01H		; std::_Iosb<int>::skipws
CONST	ENDS
;	COMDAT ?VT@?$CVarTypeInfo@PAG@ATL@@2GB
CONST	SEGMENT
?VT@?$CVarTypeInfo@PAG@ATL@@2GB DW 04012H		; ATL::CVarTypeInfo<unsigned short *>::VT
CONST	ENDS
;	COMDAT ?max_exponent10@?$numeric_limits@O@std@@2HB
CONST	SEGMENT
?max_exponent10@?$numeric_limits@O@std@@2HB DD 0134H	; std::numeric_limits<long double>::max_exponent10
CONST	ENDS
;	COMDAT __GUID_00020412_0000_0000_c000_000000000046
CONST	SEGMENT
__GUID_00020412_0000_0000_c000_000000000046 DD 020412H
	DW	00H
	DW	00H
	DB	0c0H
	DB	00H
	DB	00H
	DB	00H
	DB	00H
	DB	00H
	DB	00H
	DB	046H
CONST	ENDS
;	COMDAT ?_Max@?$AtlLimits@_K@ATL@@2_KB
CONST	SEGMENT
?_Max@?$AtlLimits@_K@ATL@@2_KB DQ ffffffffffffffffH	; ATL::AtlLimits<unsigned __int64>::_Max
CONST	ENDS
;	COMDAT ?max_exponent@?$numeric_limits@O@std@@2HB
CONST	SEGMENT
?max_exponent@?$numeric_limits@O@std@@2HB DD 0400H	; std::numeric_limits<long double>::max_exponent
CONST	ENDS
;	COMDAT _LIBID_ATLLib
CONST	SEGMENT
_LIBID_ATLLib DD 044ec0535H
	DW	0400fH
	DW	011d0H
	DB	09dH
	DB	0cdH
	DB	00H
	DB	0a0H
	DB	0c9H
	DB	03H
	DB	091H
	DB	0d3H
CONST	ENDS
;	COMDAT ?_Min@?$AtlLimits@_K@ATL@@2_KB
CONST	SEGMENT
?_Min@?$AtlLimits@_K@ATL@@2_KB DQ 0000000000000000H	; ATL::AtlLimits<unsigned __int64>::_Min
CONST	ENDS
;	COMDAT __GUID_00020401_0000_0000_c000_000000000046
CONST	SEGMENT
__GUID_00020401_0000_0000_c000_000000000046 DD 020401H
	DW	00H
	DW	00H
	DB	0c0H
	DB	00H
	DB	00H
	DB	00H
	DB	00H
	DB	00H
	DB	00H
	DB	046H
CONST	ENDS
;	COMDAT ?max_digits10@?$numeric_limits@O@std@@2HB
CONST	SEGMENT
?max_digits10@?$numeric_limits@O@std@@2HB DD 011H	; std::numeric_limits<long double>::max_digits10
CONST	ENDS
;	COMDAT ?pmField@?$CVarTypeInfo@G@ATL@@2QQtagVARIANT@@GQ3@
CONST	SEGMENT
?pmField@?$CVarTypeInfo@G@ATL@@2QQtagVARIANT@@GQ3@ DD 08H ; ATL::CVarTypeInfo<unsigned short>::pmField
CONST	ENDS
;	COMDAT ?digits10@?$numeric_limits@O@std@@2HB
CONST	SEGMENT
?digits10@?$numeric_limits@O@std@@2HB DD 0fH		; std::numeric_limits<long double>::digits10
CONST	ENDS
;	COMDAT ?VT@?$CVarTypeInfo@G@ATL@@2GB
CONST	SEGMENT
?VT@?$CVarTypeInfo@G@ATL@@2GB DW 012H			; ATL::CVarTypeInfo<unsigned short>::VT
CONST	ENDS
;	COMDAT ?digits@?$numeric_limits@O@std@@2HB
CONST	SEGMENT
?digits@?$numeric_limits@O@std@@2HB DD 035H		; std::numeric_limits<long double>::digits
CONST	ENDS
;	COMDAT ?_Max@?$AtlLimits@_J@ATL@@2_JB
CONST	SEGMENT
?_Max@?$AtlLimits@_J@ATL@@2_JB DQ 7fffffffffffffffH	; ATL::AtlLimits<__int64>::_Max
CONST	ENDS
;	COMDAT __GUID_00000001_0000_0000_c000_000000000046
CONST	SEGMENT
__GUID_00000001_0000_0000_c000_000000000046 DD 01H
	DW	00H
	DW	00H
	DB	0c0H
	DB	00H
	DB	00H
	DB	00H
	DB	00H
	DB	00H
	DB	00H
	DB	046H
CONST	ENDS
;	COMDAT ?_Min@?$AtlLimits@_J@ATL@@2_JB
CONST	SEGMENT
?_Min@?$AtlLimits@_J@ATL@@2_JB DQ 8000000000000000H	; ATL::AtlLimits<__int64>::_Min
CONST	ENDS
;	COMDAT ?pmField@?$CVarTypeInfo@PAF@ATL@@2QQtagVARIANT@@PAFQ3@
CONST	SEGMENT
?pmField@?$CVarTypeInfo@PAF@ATL@@2QQtagVARIANT@@PAFQ3@ DD 08H ; ATL::CVarTypeInfo<short *>::pmField
CONST	ENDS
;	COMDAT ?VT@?$CVarTypeInfo@PAF@ATL@@2GB
CONST	SEGMENT
?VT@?$CVarTypeInfo@PAF@ATL@@2GB DW 04002H		; ATL::CVarTypeInfo<short *>::VT
CONST	ENDS
;	COMDAT ?_Max@?$AtlLimits@K@ATL@@2KB
CONST	SEGMENT
?_Max@?$AtlLimits@K@ATL@@2KB DD 0ffffffffH		; ATL::AtlLimits<unsigned long>::_Max
CONST	ENDS
;	COMDAT ?_Min@?$AtlLimits@K@ATL@@2KB
CONST	SEGMENT
?_Min@?$AtlLimits@K@ATL@@2KB DD 00H			; ATL::AtlLimits<unsigned long>::_Min
CONST	ENDS
;	COMDAT ?pmField@?$CVarTypeInfo@F@ATL@@2QQtagVARIANT@@FQ3@
CONST	SEGMENT
?pmField@?$CVarTypeInfo@F@ATL@@2QQtagVARIANT@@FQ3@ DD 08H ; ATL::CVarTypeInfo<short>::pmField
CONST	ENDS
;	COMDAT _IID_IRegistrar
CONST	SEGMENT
_IID_IRegistrar DD 044ec053bH
	DW	0400fH
	DW	011d0H
	DB	09dH
	DB	0cdH
	DB	00H
	DB	0a0H
	DB	0c9H
	DB	03H
	DB	091H
	DB	0d3H
CONST	ENDS
;	COMDAT ?VT@?$CVarTypeInfo@F@ATL@@2GB
CONST	SEGMENT
?VT@?$CVarTypeInfo@F@ATL@@2GB DW 02H			; ATL::CVarTypeInfo<short>::VT
CONST	ENDS
;	COMDAT ?_Max@?$AtlLimits@J@ATL@@2JB
CONST	SEGMENT
?_Max@?$AtlLimits@J@ATL@@2JB DD 07fffffffH		; ATL::AtlLimits<long>::_Max
CONST	ENDS
;	COMDAT __GUID_b196b284_bab4_101a_b69c_00aa00341d07
CONST	SEGMENT
__GUID_b196b284_bab4_101a_b69c_00aa00341d07 DD 0b196b284H
	DW	0bab4H
	DW	0101aH
	DB	0b6H
	DB	09cH
	DB	00H
	DB	0aaH
	DB	00H
	DB	034H
	DB	01dH
	DB	07H
CONST	ENDS
;	COMDAT ?_Min@?$AtlLimits@J@ATL@@2JB
CONST	SEGMENT
?_Min@?$AtlLimits@J@ATL@@2JB DD 080000000H		; ATL::AtlLimits<long>::_Min
CONST	ENDS
;	COMDAT ?min_exponent10@?$numeric_limits@N@std@@2HB
CONST	SEGMENT
?min_exponent10@?$numeric_limits@N@std@@2HB DD 0fffffecdH ; std::numeric_limits<double>::min_exponent10
CONST	ENDS
;	COMDAT __GUID_7fd52380_4e07_101b_ae2d_08002b2ec713
CONST	SEGMENT
__GUID_7fd52380_4e07_101b_ae2d_08002b2ec713 DD 07fd52380H
	DW	04e07H
	DW	0101bH
	DB	0aeH
	DB	02dH
	DB	08H
	DB	00H
	DB	02bH
	DB	02eH
	DB	0c7H
	DB	013H
CONST	ENDS
;	COMDAT ?min_exponent@?$numeric_limits@N@std@@2HB
CONST	SEGMENT
?min_exponent@?$numeric_limits@N@std@@2HB DD 0fffffc03H	; std::numeric_limits<double>::min_exponent
CONST	ENDS
;	COMDAT ?pmField@?$CVarTypeInfo@PAE@ATL@@2QQtagVARIANT@@PAEQ3@
CONST	SEGMENT
?pmField@?$CVarTypeInfo@PAE@ATL@@2QQtagVARIANT@@PAEQ3@ DD 08H ; ATL::CVarTypeInfo<unsigned char *>::pmField
CONST	ENDS
;	COMDAT __GUID_00000109_0000_0000_c000_000000000046
CONST	SEGMENT
__GUID_00000109_0000_0000_c000_000000000046 DD 0109H
	DW	00H
	DW	00H
	DB	0c0H
	DB	00H
	DB	00H
	DB	00H
	DB	00H
	DB	00H
	DB	00H
	DB	046H
CONST	ENDS
;	COMDAT ?VT@?$CVarTypeInfo@PAE@ATL@@2GB
CONST	SEGMENT
?VT@?$CVarTypeInfo@PAE@ATL@@2GB DW 04011H		; ATL::CVarTypeInfo<unsigned char *>::VT
CONST	ENDS
;	COMDAT ?_Max@?$AtlLimits@I@ATL@@2IB
CONST	SEGMENT
?_Max@?$AtlLimits@I@ATL@@2IB DD 0ffffffffH		; ATL::AtlLimits<unsigned int>::_Max
CONST	ENDS
;	COMDAT ?max_exponent10@?$numeric_limits@N@std@@2HB
CONST	SEGMENT
?max_exponent10@?$numeric_limits@N@std@@2HB DD 0134H	; std::numeric_limits<double>::max_exponent10
CONST	ENDS
;	COMDAT ?_Min@?$AtlLimits@I@ATL@@2IB
CONST	SEGMENT
?_Min@?$AtlLimits@I@ATL@@2IB DD 00H			; ATL::AtlLimits<unsigned int>::_Min
CONST	ENDS
;	COMDAT ?max_exponent@?$numeric_limits@N@std@@2HB
CONST	SEGMENT
?max_exponent@?$numeric_limits@N@std@@2HB DD 0400H	; std::numeric_limits<double>::max_exponent
CONST	ENDS
;	COMDAT ?max_digits10@?$numeric_limits@N@std@@2HB
CONST	SEGMENT
?max_digits10@?$numeric_limits@N@std@@2HB DD 011H	; std::numeric_limits<double>::max_digits10
CONST	ENDS
;	COMDAT ?pmField@?$CVarTypeInfo@PAD@ATL@@2QQtagVARIANT@@PADQ3@
CONST	SEGMENT
?pmField@?$CVarTypeInfo@PAD@ATL@@2QQtagVARIANT@@PADQ3@ DD 08H ; ATL::CVarTypeInfo<char *>::pmField
CONST	ENDS
;	COMDAT ?digits10@?$numeric_limits@N@std@@2HB
CONST	SEGMENT
?digits10@?$numeric_limits@N@std@@2HB DD 0fH		; std::numeric_limits<double>::digits10
CONST	ENDS
;	COMDAT ?_Max@?$AtlLimits@H@ATL@@2HB
CONST	SEGMENT
?_Max@?$AtlLimits@H@ATL@@2HB DD 07fffffffH		; ATL::AtlLimits<int>::_Max
CONST	ENDS
;	COMDAT ?VT@?$CVarTypeInfo@PAD@ATL@@2GB
CONST	SEGMENT
?VT@?$CVarTypeInfo@PAD@ATL@@2GB DW 04010H		; ATL::CVarTypeInfo<char *>::VT
CONST	ENDS
;	COMDAT ?_Min@?$AtlLimits@H@ATL@@2HB
CONST	SEGMENT
?_Min@?$AtlLimits@H@ATL@@2HB DD 080000000H		; ATL::AtlLimits<int>::_Min
CONST	ENDS
;	COMDAT ?digits@?$numeric_limits@N@std@@2HB
CONST	SEGMENT
?digits@?$numeric_limits@N@std@@2HB DD 035H		; std::numeric_limits<double>::digits
CONST	ENDS
;	COMDAT _CLSID_Registrar
CONST	SEGMENT
_CLSID_Registrar DD 044ec053aH
	DW	0400fH
	DW	011d0H
	DB	09dH
	DB	0cdH
	DB	00H
	DB	0a0H
	DB	0c9H
	DB	03H
	DB	091H
	DB	0d3H
CONST	ENDS
;	COMDAT ?pmField@?$CVarTypeInfo@E@ATL@@2QQtagVARIANT@@EQ3@
CONST	SEGMENT
?pmField@?$CVarTypeInfo@E@ATL@@2QQtagVARIANT@@EQ3@ DD 08H ; ATL::CVarTypeInfo<unsigned char>::pmField
CONST	ENDS
;	COMDAT ?VT@?$CVarTypeInfo@E@ATL@@2GB
CONST	SEGMENT
?VT@?$CVarTypeInfo@E@ATL@@2GB DW 011H			; ATL::CVarTypeInfo<unsigned char>::VT
CONST	ENDS
;	COMDAT ?pmField@?$CVarTypeInfo@D@ATL@@2QQtagVARIANT@@DQ3@
CONST	SEGMENT
?pmField@?$CVarTypeInfo@D@ATL@@2QQtagVARIANT@@DQ3@ DD 08H ; ATL::CVarTypeInfo<char>::pmField
CONST	ENDS
;	COMDAT ?VT@?$CVarTypeInfo@D@ATL@@2GB
CONST	SEGMENT
?VT@?$CVarTypeInfo@D@ATL@@2GB DW 010H			; ATL::CVarTypeInfo<char>::VT
CONST	ENDS
;	COMDAT ?min_exponent10@?$numeric_limits@M@std@@2HB
CONST	SEGMENT
?min_exponent10@?$numeric_limits@M@std@@2HB DD 0ffffffdbH ; std::numeric_limits<float>::min_exponent10
CONST	ENDS
;	COMDAT ?min_exponent@?$numeric_limits@M@std@@2HB
CONST	SEGMENT
?min_exponent@?$numeric_limits@M@std@@2HB DD 0ffffff83H	; std::numeric_limits<float>::min_exponent
CONST	ENDS
;	COMDAT ?max_exponent10@?$numeric_limits@M@std@@2HB
CONST	SEGMENT
?max_exponent10@?$numeric_limits@M@std@@2HB DD 026H	; std::numeric_limits<float>::max_exponent10
CONST	ENDS
;	COMDAT ?max_exponent@?$numeric_limits@M@std@@2HB
CONST	SEGMENT
?max_exponent@?$numeric_limits@M@std@@2HB DD 080H	; std::numeric_limits<float>::max_exponent
CONST	ENDS
;	COMDAT ?max_digits10@?$numeric_limits@M@std@@2HB
CONST	SEGMENT
?max_digits10@?$numeric_limits@M@std@@2HB DD 09H	; std::numeric_limits<float>::max_digits10
CONST	ENDS
;	COMDAT ?digits10@?$numeric_limits@M@std@@2HB
CONST	SEGMENT
?digits10@?$numeric_limits@M@std@@2HB DD 06H		; std::numeric_limits<float>::digits10
CONST	ENDS
;	COMDAT ?digits@?$numeric_limits@M@std@@2HB
CONST	SEGMENT
?digits@?$numeric_limits@M@std@@2HB DD 018H		; std::numeric_limits<float>::digits
CONST	ENDS
;	COMDAT __GUID_00000146_0000_0000_c000_000000000046
CONST	SEGMENT
__GUID_00000146_0000_0000_c000_000000000046 DD 0146H
	DW	00H
	DW	00H
	DB	0c0H
	DB	00H
	DB	00H
	DB	00H
	DB	00H
	DB	00H
	DB	00H
	DB	046H
CONST	ENDS
;	COMDAT ?digits10@?$numeric_limits@_K@std@@2HB
CONST	SEGMENT
?digits10@?$numeric_limits@_K@std@@2HB DD 013H		; std::numeric_limits<unsigned __int64>::digits10
CONST	ENDS
;	COMDAT ?digits@?$numeric_limits@_K@std@@2HB
CONST	SEGMENT
?digits@?$numeric_limits@_K@std@@2HB DD 040H		; std::numeric_limits<unsigned __int64>::digits
CONST	ENDS
;	COMDAT ?is_signed@?$numeric_limits@_K@std@@2_NB
CONST	SEGMENT
?is_signed@?$numeric_limits@_K@std@@2_NB DB 00H		; std::numeric_limits<unsigned __int64>::is_signed
CONST	ENDS
;	COMDAT ?digits10@?$numeric_limits@_J@std@@2HB
CONST	SEGMENT
?digits10@?$numeric_limits@_J@std@@2HB DD 012H		; std::numeric_limits<__int64>::digits10
CONST	ENDS
;	COMDAT ?digits@?$numeric_limits@_J@std@@2HB
CONST	SEGMENT
?digits@?$numeric_limits@_J@std@@2HB DD 03fH		; std::numeric_limits<__int64>::digits
CONST	ENDS
;	COMDAT ?is_signed@?$numeric_limits@_J@std@@2_NB
CONST	SEGMENT
?is_signed@?$numeric_limits@_J@std@@2_NB DB 01H		; std::numeric_limits<__int64>::is_signed
CONST	ENDS
;	COMDAT ?value@?$integral_constant@I$0A@@std@@2IB
CONST	SEGMENT
?value@?$integral_constant@I$0A@@std@@2IB DD 00H	; std::integral_constant<unsigned int,0>::value
CONST	ENDS
;	COMDAT ?digits10@?$numeric_limits@K@std@@2HB
CONST	SEGMENT
?digits10@?$numeric_limits@K@std@@2HB DD 09H		; std::numeric_limits<unsigned long>::digits10
CONST	ENDS
;	COMDAT ?digits@?$numeric_limits@K@std@@2HB
CONST	SEGMENT
?digits@?$numeric_limits@K@std@@2HB DD 020H		; std::numeric_limits<unsigned long>::digits
CONST	ENDS
;	COMDAT ?is_signed@?$numeric_limits@K@std@@2_NB
CONST	SEGMENT
?is_signed@?$numeric_limits@K@std@@2_NB DB 00H		; std::numeric_limits<unsigned long>::is_signed
CONST	ENDS
;	COMDAT __GUID_1cf2b120_547d_101b_8e65_08002b2bd119
CONST	SEGMENT
__GUID_1cf2b120_547d_101b_8e65_08002b2bd119 DD 01cf2b120H
	DW	0547dH
	DW	0101bH
	DB	08eH
	DB	065H
	DB	08H
	DB	00H
	DB	02bH
	DB	02bH
	DB	0d1H
	DB	019H
CONST	ENDS
;	COMDAT ?digits10@?$numeric_limits@J@std@@2HB
CONST	SEGMENT
?digits10@?$numeric_limits@J@std@@2HB DD 09H		; std::numeric_limits<long>::digits10
CONST	ENDS
;	COMDAT ?digits@?$numeric_limits@J@std@@2HB
CONST	SEGMENT
?digits@?$numeric_limits@J@std@@2HB DD 01fH		; std::numeric_limits<long>::digits
CONST	ENDS
;	COMDAT ?is_signed@?$numeric_limits@J@std@@2_NB
CONST	SEGMENT
?is_signed@?$numeric_limits@J@std@@2_NB DB 01H		; std::numeric_limits<long>::is_signed
CONST	ENDS
;	COMDAT _IID_IInternalConnection
CONST	SEGMENT
_IID_IInternalConnection DD 072ad0770H
	DW	06a9fH
	DW	011d1H
	DB	0bcH
	DB	0ecH
	DB	00H
	DB	060H
	DB	08H
	DB	08fH
	DB	044H
	DB	04eH
CONST	ENDS
;	COMDAT ?digits10@?$numeric_limits@I@std@@2HB
CONST	SEGMENT
?digits10@?$numeric_limits@I@std@@2HB DD 09H		; std::numeric_limits<unsigned int>::digits10
CONST	ENDS
;	COMDAT ?digits@?$numeric_limits@I@std@@2HB
CONST	SEGMENT
?digits@?$numeric_limits@I@std@@2HB DD 020H		; std::numeric_limits<unsigned int>::digits
CONST	ENDS
;	COMDAT _IID_IAxWinAmbientDispatchEx
CONST	SEGMENT
_IID_IAxWinAmbientDispatchEx DD 0b2d0778bH
	DW	0ac99H
	DW	04c58H
	DB	0a5H
	DB	0c8H
	DB	0e7H
	DB	072H
	DB	04eH
	DB	053H
	DB	016H
	DB	0b5H
CONST	ENDS
;	COMDAT ?is_signed@?$numeric_limits@I@std@@2_NB
CONST	SEGMENT
?is_signed@?$numeric_limits@I@std@@2_NB DB 00H		; std::numeric_limits<unsigned int>::is_signed
CONST	ENDS
;	COMDAT ?digits10@?$numeric_limits@H@std@@2HB
CONST	SEGMENT
?digits10@?$numeric_limits@H@std@@2HB DD 09H		; std::numeric_limits<int>::digits10
CONST	ENDS
;	COMDAT __GUID_fc4801a3_2ba9_11cf_a229_00aa003d7352
CONST	SEGMENT
__GUID_fc4801a3_2ba9_11cf_a229_00aa003d7352 DD 0fc4801a3H
	DW	02ba9H
	DW	011cfH
	DB	0a2H
	DB	029H
	DB	00H
	DB	0aaH
	DB	00H
	DB	03dH
	DB	073H
	DB	052H
CONST	ENDS
;	COMDAT ?digits@?$numeric_limits@H@std@@2HB
CONST	SEGMENT
?digits@?$numeric_limits@H@std@@2HB DD 01fH		; std::numeric_limits<int>::digits
CONST	ENDS
;	COMDAT ?is_signed@?$numeric_limits@H@std@@2_NB
CONST	SEGMENT
?is_signed@?$numeric_limits@H@std@@2_NB DB 01H		; std::numeric_limits<int>::is_signed
CONST	ENDS
;	COMDAT ?MAX_TYPE@CRegParser@ATL@@1HB
CONST	SEGMENT
?MAX_TYPE@CRegParser@ATL@@1HB DD 01000H			; ATL::CRegParser::MAX_TYPE
CONST	ENDS
;	COMDAT ?cbNeverDelete@CRegParser@ATL@@1HB
CONST	SEGMENT
?cbNeverDelete@CRegParser@ATL@@1HB DD 0cH		; ATL::CRegParser::cbNeverDelete
CONST	ENDS
;	COMDAT ?rgszNeverDelete@CRegParser@ATL@@1QBQBDB
CONST	SEGMENT
?rgszNeverDelete@CRegParser@ATL@@1QBQBDB DD FLAT:??_C@_05PDIKPLII@AppID?$AA@ ; ATL::CRegParser::rgszNeverDelete
	DD	FLAT:??_C@_05GIBEAPNE@CLSID?$AA@
	DD	FLAT:??_C@_0BF@HDDNNDFH@Component?5Categories?$AA@
	DD	FLAT:??_C@_08PICKODJL@FileType?$AA@
	DD	FLAT:??_C@_09JKPGEJCH@Interface?$AA@
	DD	FLAT:??_C@_08PPIOJEA@Hardware?$AA@
	DD	FLAT:??_C@_04IHBFOLAC@Mime?$AA@
	DD	FLAT:??_C@_03DDIMFGBA@SAM?$AA@
	DD	FLAT:??_C@_08LOPHEHKG@SECURITY?$AA@
	DD	FLAT:??_C@_06FDHFNJBJ@SYSTEM?$AA@
	DD	FLAT:??_C@_08KEKAJNJI@Software?$AA@
	DD	FLAT:??_C@_07KJLOKDKB@TypeLib?$AA@
CONST	ENDS
;	COMDAT ?digits10@?$numeric_limits@G@std@@2HB
CONST	SEGMENT
?digits10@?$numeric_limits@G@std@@2HB DD 04H		; std::numeric_limits<unsigned short>::digits10
CONST	ENDS
;	COMDAT ?digits@?$numeric_limits@G@std@@2HB
CONST	SEGMENT
?digits@?$numeric_limits@G@std@@2HB DD 010H		; std::numeric_limits<unsigned short>::digits
CONST	ENDS
;	COMDAT ?is_signed@?$numeric_limits@G@std@@2_NB
CONST	SEGMENT
?is_signed@?$numeric_limits@G@std@@2_NB DB 00H		; std::numeric_limits<unsigned short>::is_signed
CONST	ENDS
;	COMDAT ?MAX_VALUE@CRegParser@ATL@@1HB
CONST	SEGMENT
?MAX_VALUE@CRegParser@ATL@@1HB DD 01000H		; ATL::CRegParser::MAX_VALUE
CONST	ENDS
;	COMDAT ?digits10@?$numeric_limits@F@std@@2HB
CONST	SEGMENT
?digits10@?$numeric_limits@F@std@@2HB DD 04H		; std::numeric_limits<short>::digits10
CONST	ENDS
;	COMDAT __GUID_00000000_0000_0000_0000_000000000000
CONST	SEGMENT
__GUID_00000000_0000_0000_0000_000000000000 DD 00H
	DW	00H
	DW	00H
	DB	00H
	DB	00H
	DB	00H
	DB	00H
	DB	00H
	DB	00H
	DB	00H
	DB	00H
CONST	ENDS
;	COMDAT ?digits@?$numeric_limits@F@std@@2HB
CONST	SEGMENT
?digits@?$numeric_limits@F@std@@2HB DD 0fH		; std::numeric_limits<short>::digits
CONST	ENDS
;	COMDAT ?is_signed@?$numeric_limits@F@std@@2_NB
CONST	SEGMENT
?is_signed@?$numeric_limits@F@std@@2_NB DB 01H		; std::numeric_limits<short>::is_signed
CONST	ENDS
;	COMDAT ?digits10@?$numeric_limits@E@std@@2HB
CONST	SEGMENT
?digits10@?$numeric_limits@E@std@@2HB DD 02H		; std::numeric_limits<unsigned char>::digits10
CONST	ENDS
;	COMDAT ?digits@?$numeric_limits@E@std@@2HB
CONST	SEGMENT
?digits@?$numeric_limits@E@std@@2HB DD 08H		; std::numeric_limits<unsigned char>::digits
CONST	ENDS
;	COMDAT ?is_signed@?$numeric_limits@E@std@@2_NB
CONST	SEGMENT
?is_signed@?$numeric_limits@E@std@@2_NB DB 00H		; std::numeric_limits<unsigned char>::is_signed
CONST	ENDS
;	COMDAT ?table_size@?$ctype@D@std@@2IB
CONST	SEGMENT
?table_size@?$ctype@D@std@@2IB DD 0100H			; std::ctype<char>::table_size
CONST	ENDS
;	COMDAT ?digits10@?$numeric_limits@C@std@@2HB
CONST	SEGMENT
?digits10@?$numeric_limits@C@std@@2HB DD 02H		; std::numeric_limits<signed char>::digits10
CONST	ENDS
;	COMDAT ?digits@?$numeric_limits@C@std@@2HB
CONST	SEGMENT
?digits@?$numeric_limits@C@std@@2HB DD 07H		; std::numeric_limits<signed char>::digits
CONST	ENDS
;	COMDAT ?is_signed@?$numeric_limits@C@std@@2_NB
CONST	SEGMENT
?is_signed@?$numeric_limits@C@std@@2_NB DB 01H		; std::numeric_limits<signed char>::is_signed
CONST	ENDS
;	COMDAT ?value@?$_Sizeof@HU_Nil@std@@U12@U12@U12@U12@U12@U12@@std@@2IB
CONST	SEGMENT
?value@?$_Sizeof@HU_Nil@std@@U12@U12@U12@U12@U12@U12@@std@@2IB DD 01H ; std::_Sizeof<int,std::_Nil,std::_Nil,std::_Nil,std::_Nil,std::_Nil,std::_Nil,std::_Nil>::value
CONST	ENDS
;	COMDAT ?digits10@?$numeric_limits@_N@std@@2HB
CONST	SEGMENT
?digits10@?$numeric_limits@_N@std@@2HB DD 00H		; std::numeric_limits<bool>::digits10
CONST	ENDS
;	COMDAT ?digits@?$numeric_limits@_N@std@@2HB
CONST	SEGMENT
?digits@?$numeric_limits@_N@std@@2HB DD 01H		; std::numeric_limits<bool>::digits
CONST	ENDS
;	COMDAT ?is_signed@?$numeric_limits@_N@std@@2_NB
CONST	SEGMENT
?is_signed@?$numeric_limits@_N@std@@2_NB DB 00H		; std::numeric_limits<bool>::is_signed
CONST	ENDS
;	COMDAT ?is_modulo@?$numeric_limits@_N@std@@2_NB
CONST	SEGMENT
?is_modulo@?$numeric_limits@_N@std@@2_NB DB 00H		; std::numeric_limits<bool>::is_modulo
CONST	ENDS
;	COMDAT ?digits10@?$numeric_limits@_W@std@@2HB
CONST	SEGMENT
?digits10@?$numeric_limits@_W@std@@2HB DD 04H		; std::numeric_limits<wchar_t>::digits10
CONST	ENDS
;	COMDAT ?digits@?$numeric_limits@_W@std@@2HB
CONST	SEGMENT
?digits@?$numeric_limits@_W@std@@2HB DD 010H		; std::numeric_limits<wchar_t>::digits
CONST	ENDS
;	COMDAT ?is_signed@?$numeric_limits@_W@std@@2_NB
CONST	SEGMENT
?is_signed@?$numeric_limits@_W@std@@2_NB DB 00H		; std::numeric_limits<wchar_t>::is_signed
CONST	ENDS
;	COMDAT ?none@?$_Locbase@H@std@@2HB
CONST	SEGMENT
?none@?$_Locbase@H@std@@2HB DD 00H			; std::_Locbase<int>::none
CONST	ENDS
;	COMDAT ?all@?$_Locbase@H@std@@2HB
CONST	SEGMENT
?all@?$_Locbase@H@std@@2HB DD 03fH			; std::_Locbase<int>::all
CONST	ENDS
;	COMDAT ?messages@?$_Locbase@H@std@@2HB
CONST	SEGMENT
?messages@?$_Locbase@H@std@@2HB DD 020H			; std::_Locbase<int>::messages
CONST	ENDS
;	COMDAT ?time@?$_Locbase@H@std@@2HB
CONST	SEGMENT
?time@?$_Locbase@H@std@@2HB DD 010H			; std::_Locbase<int>::time
CONST	ENDS
;	COMDAT ?numeric@?$_Locbase@H@std@@2HB
CONST	SEGMENT
?numeric@?$_Locbase@H@std@@2HB DD 08H			; std::_Locbase<int>::numeric
CONST	ENDS
;	COMDAT ?monetary@?$_Locbase@H@std@@2HB
CONST	SEGMENT
?monetary@?$_Locbase@H@std@@2HB DD 04H			; std::_Locbase<int>::monetary
CONST	ENDS
;	COMDAT ?ctype@?$_Locbase@H@std@@2HB
CONST	SEGMENT
?ctype@?$_Locbase@H@std@@2HB DD 02H			; std::_Locbase<int>::ctype
CONST	ENDS
;	COMDAT ?collate@?$_Locbase@H@std@@2HB
CONST	SEGMENT
?collate@?$_Locbase@H@std@@2HB DD 01H			; std::_Locbase<int>::collate
CONST	ENDS
;	COMDAT _IID_IAxWinAmbientDispatch
CONST	SEGMENT
_IID_IAxWinAmbientDispatch DD 0b6ea2051H
	DW	048aH
	DW	011d1H
	DB	082H
	DB	0b9H
	DB	00H
	DB	0c0H
	DB	04fH
	DB	0b9H
	DB	094H
	DB	02eH
CONST	ENDS
;	COMDAT ?digits10@?$numeric_limits@D@std@@2HB
CONST	SEGMENT
?digits10@?$numeric_limits@D@std@@2HB DD 02H		; std::numeric_limits<char>::digits10
CONST	ENDS
;	COMDAT ?digits@?$numeric_limits@D@std@@2HB
CONST	SEGMENT
?digits@?$numeric_limits@D@std@@2HB DD 07H		; std::numeric_limits<char>::digits
CONST	ENDS
;	COMDAT ?is_signed@?$numeric_limits@D@std@@2_NB
CONST	SEGMENT
?is_signed@?$numeric_limits@D@std@@2_NB DB 01H		; std::numeric_limits<char>::is_signed
CONST	ENDS
;	COMDAT ??_C@_06JBKGCNBB@Delete?$AA@
CONST	SEGMENT
??_C@_06JBKGCNBB@Delete?$AA@ DB 'Delete', 00H		; `string'
CONST	ENDS
;	COMDAT ?radix@_Num_float_base@std@@2HB
CONST	SEGMENT
?radix@_Num_float_base@std@@2HB DD 02H			; std::_Num_float_base::radix
CONST	ENDS
;	COMDAT ?szDelete@ATL@@3QBDB
CONST	SEGMENT
?szDelete@ATL@@3QBDB DD FLAT:??_C@_06JBKGCNBB@Delete?$AA@ ; ATL::szDelete
CONST	ENDS
;	COMDAT ??_C@_08KAAPDIAN@NoRemove?$AA@
CONST	SEGMENT
??_C@_08KAAPDIAN@NoRemove?$AA@ DB 'NoRemove', 00H	; `string'
CONST	ENDS
;	COMDAT ?szNoRemove@ATL@@3QBDB
CONST	SEGMENT
?szNoRemove@ATL@@3QBDB DD FLAT:??_C@_08KAAPDIAN@NoRemove?$AA@ ; ATL::szNoRemove
CONST	ENDS
;	COMDAT ?round_style@_Num_float_base@std@@2W4float_round_style@2@B
CONST	SEGMENT
?round_style@_Num_float_base@std@@2W4float_round_style@2@B DD 01H ; std::_Num_float_base::round_style
CONST	ENDS
;	COMDAT ??_C@_0M@DBGDLGLL@ForceRemove?$AA@
CONST	SEGMENT
??_C@_0M@DBGDLGLL@ForceRemove?$AA@ DB 'ForceRemove', 00H ; `string'
CONST	ENDS
CONST	SEGMENT
_L_2	DD	03f317218r			; 0.693147
CONST	ENDS
;	COMDAT ?szForceRemove@ATL@@3QBDB
CONST	SEGMENT
?szForceRemove@ATL@@3QBDB DD FLAT:??_C@_0M@DBGDLGLL@ForceRemove?$AA@ ; ATL::szForceRemove
CONST	ENDS
;	COMDAT ??_C@_03LAIAPFCB@Val?$AA@
CONST	SEGMENT
??_C@_03LAIAPFCB@Val?$AA@ DB 'Val', 00H			; `string'
CONST	ENDS
;	COMDAT ?traps@_Num_float_base@std@@2_NB
CONST	SEGMENT
?traps@_Num_float_base@std@@2_NB DB 00H			; std::_Num_float_base::traps
CONST	ENDS
;	COMDAT ?szValToken@ATL@@3QBDB
CONST	SEGMENT
?szValToken@ATL@@3QBDB DD FLAT:??_C@_03LAIAPFCB@Val?$AA@ ; ATL::szValToken
CONST	ENDS
;	COMDAT ??_C@_01HMGJMAIH@B?$AA@
CONST	SEGMENT
??_C@_01HMGJMAIH@B?$AA@ DB 'B', 00H			; `string'
CONST	ENDS
;	COMDAT ?szBinaryVal@ATL@@3QBDB
CONST	SEGMENT
?szBinaryVal@ATL@@3QBDB DD FLAT:??_C@_01HMGJMAIH@B?$AA@	; ATL::szBinaryVal
CONST	ENDS
;	COMDAT ?tinyness_before@_Num_float_base@std@@2_NB
CONST	SEGMENT
?tinyness_before@_Num_float_base@std@@2_NB DB 01H	; std::_Num_float_base::tinyness_before
CONST	ENDS
;	COMDAT ??_C@_01CKDDGHAB@D?$AA@
CONST	SEGMENT
??_C@_01CKDDGHAB@D?$AA@ DB 'D', 00H			; `string'
CONST	ENDS
;	COMDAT ?szDwordVal@ATL@@3QBDB
CONST	SEGMENT
?szDwordVal@ATL@@3QBDB DD FLAT:??_C@_01CKDDGHAB@D?$AA@	; ATL::szDwordVal
CONST	ENDS
;	COMDAT ??_C@_01PLPBNMEI@M?$AA@
CONST	SEGMENT
??_C@_01PLPBNMEI@M?$AA@ DB 'M', 00H			; `string'
CONST	ENDS
;	COMDAT ?is_specialized@_Num_float_base@std@@2_NB
CONST	SEGMENT
?is_specialized@_Num_float_base@std@@2_NB DB 01H	; std::_Num_float_base::is_specialized
CONST	ENDS
;	COMDAT _IID_IAxWinHostWindowLic
CONST	SEGMENT
_IID_IAxWinHostWindowLic DD 03935bda8H
	DW	04ed9H
	DW	0495cH
	DB	086H
	DB	050H
	DB	0e0H
	DB	01fH
	DB	0c1H
	DB	0e3H
	DB	08aH
	DB	04bH
CONST	ENDS
;	COMDAT ?multiszStringVal@ATL@@3QBDB
CONST	SEGMENT
?multiszStringVal@ATL@@3QBDB DD FLAT:??_C@_01PLPBNMEI@M?$AA@ ; ATL::multiszStringVal
CONST	ENDS
;	COMDAT ??_C@_01CPLAODJH@S?$AA@
CONST	SEGMENT
??_C@_01CPLAODJH@S?$AA@ DB 'S', 00H			; `string'
CONST	ENDS
;	COMDAT ?szStringVal@ATL@@3QBDB
CONST	SEGMENT
?szStringVal@ATL@@3QBDB DD FLAT:??_C@_01CPLAODJH@S?$AA@	; ATL::szStringVal
CONST	ENDS
;	COMDAT ?is_signed@_Num_float_base@std@@2_NB
CONST	SEGMENT
?is_signed@_Num_float_base@std@@2_NB DB 01H		; std::_Num_float_base::is_signed
CONST	ENDS
;	COMDAT ?chEquals@ATL@@3DB
CONST	SEGMENT
?chEquals@ATL@@3DB DB 03dH				; ATL::chEquals
CONST	ENDS
;	COMDAT ?chQuote@ATL@@3DB
CONST	SEGMENT
?chQuote@ATL@@3DB DB 027H				; ATL::chQuote
CONST	ENDS
;	COMDAT ?chLeftBracket@ATL@@3DB
CONST	SEGMENT
?chLeftBracket@ATL@@3DB DB 07bH				; ATL::chLeftBracket
CONST	ENDS
;	COMDAT ?is_modulo@_Num_float_base@std@@2_NB
CONST	SEGMENT
?is_modulo@_Num_float_base@std@@2_NB DB 00H		; std::_Num_float_base::is_modulo
CONST	ENDS
;	COMDAT ?chRightBracket@ATL@@3DB
CONST	SEGMENT
?chRightBracket@ATL@@3DB DB 07dH			; ATL::chRightBracket
CONST	ENDS
;	COMDAT ?chDirSep@ATL@@3DB
CONST	SEGMENT
?chDirSep@ATL@@3DB DB 05cH				; ATL::chDirSep
CONST	ENDS
;	COMDAT ?is_integer@_Num_float_base@std@@2_NB
CONST	SEGMENT
?is_integer@_Num_float_base@std@@2_NB DB 00H		; std::_Num_float_base::is_integer
CONST	ENDS
;	COMDAT ?is_iec559@_Num_float_base@std@@2_NB
CONST	SEGMENT
?is_iec559@_Num_float_base@std@@2_NB DB 01H		; std::_Num_float_base::is_iec559
CONST	ENDS
;	COMDAT ?is_exact@_Num_float_base@std@@2_NB
CONST	SEGMENT
?is_exact@_Num_float_base@std@@2_NB DB 00H		; std::_Num_float_base::is_exact
CONST	ENDS
;	COMDAT ?is_bounded@_Num_float_base@std@@2_NB
CONST	SEGMENT
?is_bounded@_Num_float_base@std@@2_NB DB 01H		; std::_Num_float_base::is_bounded
CONST	ENDS
;	COMDAT ?has_signaling_NaN@_Num_float_base@std@@2_NB
CONST	SEGMENT
?has_signaling_NaN@_Num_float_base@std@@2_NB DB 01H	; std::_Num_float_base::has_signaling_NaN
CONST	ENDS
;	COMDAT ?has_quiet_NaN@_Num_float_base@std@@2_NB
CONST	SEGMENT
?has_quiet_NaN@_Num_float_base@std@@2_NB DB 01H		; std::_Num_float_base::has_quiet_NaN
CONST	ENDS
;	COMDAT ?has_infinity@_Num_float_base@std@@2_NB
CONST	SEGMENT
?has_infinity@_Num_float_base@std@@2_NB DB 01H		; std::_Num_float_base::has_infinity
CONST	ENDS
;	COMDAT ?has_denorm_loss@_Num_float_base@std@@2_NB
CONST	SEGMENT
?has_denorm_loss@_Num_float_base@std@@2_NB DB 01H	; std::_Num_float_base::has_denorm_loss
CONST	ENDS
;	COMDAT ?has_denorm@_Num_float_base@std@@2W4float_denorm_style@2@B
CONST	SEGMENT
?has_denorm@_Num_float_base@std@@2W4float_denorm_style@2@B DD 01H ; std::_Num_float_base::has_denorm
CONST	ENDS
;	COMDAT ?radix@_Num_int_base@std@@2HB
CONST	SEGMENT
?radix@_Num_int_base@std@@2HB DD 02H			; std::_Num_int_base::radix
CONST	ENDS
;	COMDAT ?is_specialized@_Num_int_base@std@@2_NB
CONST	SEGMENT
?is_specialized@_Num_int_base@std@@2_NB DB 01H		; std::_Num_int_base::is_specialized
CONST	ENDS
;	COMDAT ?is_modulo@_Num_int_base@std@@2_NB
CONST	SEGMENT
?is_modulo@_Num_int_base@std@@2_NB DB 01H		; std::_Num_int_base::is_modulo
CONST	ENDS
;	COMDAT ?is_integer@_Num_int_base@std@@2_NB
CONST	SEGMENT
?is_integer@_Num_int_base@std@@2_NB DB 01H		; std::_Num_int_base::is_integer
CONST	ENDS
;	COMDAT ?is_exact@_Num_int_base@std@@2_NB
CONST	SEGMENT
?is_exact@_Num_int_base@std@@2_NB DB 01H		; std::_Num_int_base::is_exact
CONST	ENDS
;	COMDAT ?pmField@?$CVarTypeInfo@PATtagCY@@@ATL@@2QQtagVARIANT@@PATtagCY@@Q3@
CONST	SEGMENT
?pmField@?$CVarTypeInfo@PATtagCY@@@ATL@@2QQtagVARIANT@@PATtagCY@@Q3@ DD 08H ; ATL::CVarTypeInfo<tagCY *>::pmField
CONST	ENDS
;	COMDAT ?is_bounded@_Num_int_base@std@@2_NB
CONST	SEGMENT
?is_bounded@_Num_int_base@std@@2_NB DB 01H		; std::_Num_int_base::is_bounded
CONST	ENDS
;	COMDAT ?VT@?$CVarTypeInfo@PATtagCY@@@ATL@@2GB
CONST	SEGMENT
?VT@?$CVarTypeInfo@PATtagCY@@@ATL@@2GB DW 04006H	; ATL::CVarTypeInfo<tagCY *>::VT
CONST	ENDS
;	COMDAT ??_C@_05PDIKPLII@AppID?$AA@
CONST	SEGMENT
??_C@_05PDIKPLII@AppID?$AA@ DB 'AppID', 00H		; `string'
CONST	ENDS
;	COMDAT ?pmField@?$CVarTypeInfo@TtagCY@@@ATL@@2QQtagVARIANT@@TtagCY@@Q3@
CONST	SEGMENT
?pmField@?$CVarTypeInfo@TtagCY@@@ATL@@2QQtagVARIANT@@TtagCY@@Q3@ DD 08H ; ATL::CVarTypeInfo<tagCY>::pmField
CONST	ENDS
;	COMDAT ?VT@?$CVarTypeInfo@TtagCY@@@ATL@@2GB
CONST	SEGMENT
?VT@?$CVarTypeInfo@TtagCY@@@ATL@@2GB DW 06H		; ATL::CVarTypeInfo<tagCY>::VT
CONST	ENDS
;	COMDAT ?pmField@?$CVarTypeInfo@PAPAUIDispatch@@@ATL@@2QQtagVARIANT@@PAPAUIDispatch@@Q3@
CONST	SEGMENT
?pmField@?$CVarTypeInfo@PAPAUIDispatch@@@ATL@@2QQtagVARIANT@@PAPAUIDispatch@@Q3@ DD 08H ; ATL::CVarTypeInfo<IDispatch * *>::pmField
CONST	ENDS
;	COMDAT ?VT@?$CVarTypeInfo@PAPAUIDispatch@@@ATL@@2GB
CONST	SEGMENT
?VT@?$CVarTypeInfo@PAPAUIDispatch@@@ATL@@2GB DW 04009H	; ATL::CVarTypeInfo<IDispatch * *>::VT
CONST	ENDS
;	COMDAT _IID_IAxWinHostWindow
CONST	SEGMENT
_IID_IAxWinHostWindow DD 0b6ea2050H
	DW	048aH
	DW	011d1H
	DB	082H
	DB	0b9H
	DB	00H
	DB	0c0H
	DB	04fH
	DB	0b9H
	DB	094H
	DB	02eH
CONST	ENDS
;	COMDAT ?radix@_Num_base@std@@2HB
CONST	SEGMENT
?radix@_Num_base@std@@2HB DD 00H			; std::_Num_base::radix
CONST	ENDS
;	COMDAT ?min_exponent10@_Num_base@std@@2HB
CONST	SEGMENT
?min_exponent10@_Num_base@std@@2HB DD 00H		; std::_Num_base::min_exponent10
CONST	ENDS
;	COMDAT ??_C@_05GIBEAPNE@CLSID?$AA@
CONST	SEGMENT
??_C@_05GIBEAPNE@CLSID?$AA@ DB 'CLSID', 00H		; `string'
CONST	ENDS
;	COMDAT ?min_exponent@_Num_base@std@@2HB
CONST	SEGMENT
?min_exponent@_Num_base@std@@2HB DD 00H			; std::_Num_base::min_exponent
CONST	ENDS
;	COMDAT ?pmField@?$CVarTypeInfo@PAUIDispatch@@@ATL@@2QQtagVARIANT@@PAUIDispatch@@Q3@
CONST	SEGMENT
?pmField@?$CVarTypeInfo@PAUIDispatch@@@ATL@@2QQtagVARIANT@@PAUIDispatch@@Q3@ DD 08H ; ATL::CVarTypeInfo<IDispatch *>::pmField
CONST	ENDS
;	COMDAT ?max_exponent10@_Num_base@std@@2HB
CONST	SEGMENT
?max_exponent10@_Num_base@std@@2HB DD 00H		; std::_Num_base::max_exponent10
CONST	ENDS
;	COMDAT ?VT@?$CVarTypeInfo@PAUIDispatch@@@ATL@@2GB
CONST	SEGMENT
?VT@?$CVarTypeInfo@PAUIDispatch@@@ATL@@2GB DW 09H	; ATL::CVarTypeInfo<IDispatch *>::VT
CONST	ENDS
;	COMDAT ?max_exponent@_Num_base@std@@2HB
CONST	SEGMENT
?max_exponent@_Num_base@std@@2HB DD 00H			; std::_Num_base::max_exponent
CONST	ENDS
;	COMDAT __GUID_0000010c_0000_0000_c000_000000000046
CONST	SEGMENT
__GUID_0000010c_0000_0000_c000_000000000046 DD 010cH
	DW	00H
	DW	00H
	DB	0c0H
	DB	00H
	DB	00H
	DB	00H
	DB	00H
	DB	00H
	DB	00H
	DB	046H
CONST	ENDS
;	COMDAT ?max_digits10@_Num_base@std@@2HB
CONST	SEGMENT
?max_digits10@_Num_base@std@@2HB DD 00H			; std::_Num_base::max_digits10
CONST	ENDS
;	COMDAT ?digits10@_Num_base@std@@2HB
CONST	SEGMENT
?digits10@_Num_base@std@@2HB DD 00H			; std::_Num_base::digits10
CONST	ENDS
;	COMDAT ?digits@_Num_base@std@@2HB
CONST	SEGMENT
?digits@_Num_base@std@@2HB DD 00H			; std::_Num_base::digits
CONST	ENDS
;	COMDAT ?pmField@?$CVarTypeInfo@PAPAUIUnknown@@@ATL@@2QQtagVARIANT@@PAPAUIUnknown@@Q3@
CONST	SEGMENT
?pmField@?$CVarTypeInfo@PAPAUIUnknown@@@ATL@@2QQtagVARIANT@@PAPAUIUnknown@@Q3@ DD 08H ; ATL::CVarTypeInfo<IUnknown * *>::pmField
CONST	ENDS
;	COMDAT ?VT@?$CVarTypeInfo@PAPAUIUnknown@@@ATL@@2GB
CONST	SEGMENT
?VT@?$CVarTypeInfo@PAPAUIUnknown@@@ATL@@2GB DW 0400dH	; ATL::CVarTypeInfo<IUnknown * *>::VT
CONST	ENDS
;	COMDAT ?round_style@_Num_base@std@@2W4float_round_style@2@B
CONST	SEGMENT
?round_style@_Num_base@std@@2W4float_round_style@2@B DD 00H ; std::_Num_base::round_style
CONST	ENDS
;	COMDAT ?traps@_Num_base@std@@2_NB
CONST	SEGMENT
?traps@_Num_base@std@@2_NB DB 00H			; std::_Num_base::traps
CONST	ENDS
;	COMDAT ??_C@_08CMBDAJIO@?$FLBGLINE?$FN?$AA@
CONST	SEGMENT
??_C@_08CMBDAJIO@?$FLBGLINE?$FN?$AA@ DB '[BGLINE]', 00H	; `string'
CONST	ENDS
;	COMDAT ??_C@_0M@DOCEACLM@?$FLINCREMENT?$FN?$AA@
CONST	SEGMENT
??_C@_0M@DOCEACLM@?$FLINCREMENT?$FN?$AA@ DB '[INCREMENT]', 00H ; `string'
CONST	ENDS
;	COMDAT ??_C@_0P@LCDEMJJH@?$FLBUTTONIMAGES?$FN?$AA@
CONST	SEGMENT
??_C@_0P@LCDEMJJH@?$FLBUTTONIMAGES?$FN?$AA@ DB '[BUTTONIMAGES]', 00H ; `string'
CONST	ENDS
;	COMDAT ?tinyness_before@_Num_base@std@@2_NB
CONST	SEGMENT
?tinyness_before@_Num_base@std@@2_NB DB 00H		; std::_Num_base::tinyness_before
CONST	ENDS
;	COMDAT ??_C@_08FOHCIFDC@?$FLCOLORS?$FN?$AA@
CONST	SEGMENT
??_C@_08FOHCIFDC@?$FLCOLORS?$FN?$AA@ DB '[COLORS]', 00H	; `string'
CONST	ENDS
;	COMDAT ??_C@_0N@IBMNFEGO@?$FLSLIDERRECT?$FN?$AA@
CONST	SEGMENT
??_C@_0N@IBMNFEGO@?$FLSLIDERRECT?$FN?$AA@ DB '[SLIDERRECT]', 00H ; `string'
CONST	ENDS
;	COMDAT ??_C@_0O@GENLBJC@?$FLSLIDERIMAGE?$FN?$AA@
CONST	SEGMENT
??_C@_0O@GENLBJC@?$FLSLIDERIMAGE?$FN?$AA@ DB '[SLIDERIMAGE]', 00H ; `string'
CONST	ENDS
;	COMDAT ?is_specialized@_Num_base@std@@2_NB
CONST	SEGMENT
?is_specialized@_Num_base@std@@2_NB DB 00H		; std::_Num_base::is_specialized
CONST	ENDS
;	COMDAT ??_C@_09PGPMFOBE@?$FLBGIMAGE?$FN?$AA@
CONST	SEGMENT
??_C@_09PGPMFOBE@?$FLBGIMAGE?$FN?$AA@ DB '[BGIMAGE]', 00H ; `string'
CONST	ENDS
;	COMDAT ??_C@_07INNADMMB@?$FLSETUP?$FN?$AA@
CONST	SEGMENT
??_C@_07INNADMMB@?$FLSETUP?$FN?$AA@ DB '[SETUP]', 00H	; `string'
CONST	ENDS
;	COMDAT ?pmField@?$CVarTypeInfo@PAUIUnknown@@@ATL@@2QQtagVARIANT@@PAUIUnknown@@Q3@
CONST	SEGMENT
?pmField@?$CVarTypeInfo@PAUIUnknown@@@ATL@@2QQtagVARIANT@@PAUIUnknown@@Q3@ DD 08H ; ATL::CVarTypeInfo<IUnknown *>::pmField
CONST	ENDS
;	COMDAT ??_C@_09NLBFAKCN@?$FLNOTHING?$FN?$AA@
CONST	SEGMENT
??_C@_09NLBFAKCN@?$FLNOTHING?$FN?$AA@ DB '[NOTHING]', 00H ; `string'
CONST	ENDS
;	COMDAT ?is_signed@_Num_base@std@@2_NB
CONST	SEGMENT
?is_signed@_Num_base@std@@2_NB DB 00H			; std::_Num_base::is_signed
CONST	ENDS
_DATA	SEGMENT
?C_Scr_Tokens@@3PAPADA DD FLAT:??_C@_09NLBFAKCN@?$FLNOTHING?$FN?$AA@ ; C_Scr_Tokens
	DD	FLAT:??_C@_07INNADMMB@?$FLSETUP?$FN?$AA@
	DD	FLAT:??_C@_09PGPMFOBE@?$FLBGIMAGE?$FN?$AA@
	DD	FLAT:??_C@_0O@GENLBJC@?$FLSLIDERIMAGE?$FN?$AA@
	DD	FLAT:??_C@_0N@IBMNFEGO@?$FLSLIDERRECT?$FN?$AA@
	DD	FLAT:??_C@_08FOHCIFDC@?$FLCOLORS?$FN?$AA@
	DD	FLAT:??_C@_0P@LCDEMJJH@?$FLBUTTONIMAGES?$FN?$AA@
	DD	FLAT:??_C@_0M@DOCEACLM@?$FLINCREMENT?$FN?$AA@
	DD	FLAT:??_C@_08CMBDAJIO@?$FLBGLINE?$FN?$AA@
	DD	00H
_DATA	ENDS
;	COMDAT ?VT@?$CVarTypeInfo@PAUIUnknown@@@ATL@@2GB
CONST	SEGMENT
?VT@?$CVarTypeInfo@PAUIUnknown@@@ATL@@2GB DW 0dH	; ATL::CVarTypeInfo<IUnknown *>::VT
CONST	ENDS
;	COMDAT ?is_modulo@_Num_base@std@@2_NB
CONST	SEGMENT
?is_modulo@_Num_base@std@@2_NB DB 00H			; std::_Num_base::is_modulo
CONST	ENDS
;	COMDAT ?is_integer@_Num_base@std@@2_NB
CONST	SEGMENT
?is_integer@_Num_base@std@@2_NB DB 00H			; std::_Num_base::is_integer
CONST	ENDS
;	COMDAT ?is_iec559@_Num_base@std@@2_NB
CONST	SEGMENT
?is_iec559@_Num_base@std@@2_NB DB 00H			; std::_Num_base::is_iec559
CONST	ENDS
;	COMDAT ?pmField@?$CVarTypeInfo@PAPA_W@ATL@@2QQtagVARIANT@@PAPA_WQ3@
CONST	SEGMENT
?pmField@?$CVarTypeInfo@PAPA_W@ATL@@2QQtagVARIANT@@PAPA_WQ3@ DD 08H ; ATL::CVarTypeInfo<wchar_t * *>::pmField
CONST	ENDS
;	COMDAT ?is_exact@_Num_base@std@@2_NB
CONST	SEGMENT
?is_exact@_Num_base@std@@2_NB DB 00H			; std::_Num_base::is_exact
CONST	ENDS
;	COMDAT ?VT@?$CVarTypeInfo@PAPA_W@ATL@@2GB
CONST	SEGMENT
?VT@?$CVarTypeInfo@PAPA_W@ATL@@2GB DW 04008H		; ATL::CVarTypeInfo<wchar_t * *>::VT
CONST	ENDS
;	COMDAT ?is_bounded@_Num_base@std@@2_NB
CONST	SEGMENT
?is_bounded@_Num_base@std@@2_NB DB 00H			; std::_Num_base::is_bounded
CONST	ENDS
;	COMDAT ?has_signaling_NaN@_Num_base@std@@2_NB
CONST	SEGMENT
?has_signaling_NaN@_Num_base@std@@2_NB DB 00H		; std::_Num_base::has_signaling_NaN
CONST	ENDS
;	COMDAT ?has_quiet_NaN@_Num_base@std@@2_NB
CONST	SEGMENT
?has_quiet_NaN@_Num_base@std@@2_NB DB 00H		; std::_Num_base::has_quiet_NaN
CONST	ENDS
;	COMDAT ?has_infinity@_Num_base@std@@2_NB
CONST	SEGMENT
?has_infinity@_Num_base@std@@2_NB DB 00H		; std::_Num_base::has_infinity
CONST	ENDS
;	COMDAT ?pmField@?$CVarTypeInfo@PA_W@ATL@@2QQtagVARIANT@@PA_WQ3@
CONST	SEGMENT
?pmField@?$CVarTypeInfo@PA_W@ATL@@2QQtagVARIANT@@PA_WQ3@ DD 08H ; ATL::CVarTypeInfo<wchar_t *>::pmField
CONST	ENDS
;	COMDAT ?VT@?$CVarTypeInfo@PA_W@ATL@@2GB
CONST	SEGMENT
?VT@?$CVarTypeInfo@PA_W@ATL@@2GB DW 08H			; ATL::CVarTypeInfo<wchar_t *>::VT
CONST	ENDS
;	COMDAT ?has_denorm_loss@_Num_base@std@@2_NB
CONST	SEGMENT
?has_denorm_loss@_Num_base@std@@2_NB DB 00H		; std::_Num_base::has_denorm_loss
CONST	ENDS
;	COMDAT __GUID_0002e012_0000_0000_c000_000000000046
CONST	SEGMENT
__GUID_0002e012_0000_0000_c000_000000000046 DD 02e012H
	DW	00H
	DW	00H
	DB	0c0H
	DB	00H
	DB	00H
	DB	00H
	DB	00H
	DB	00H
	DB	00H
	DB	046H
CONST	ENDS
;	COMDAT ?has_denorm@_Num_base@std@@2W4float_denorm_style@2@B
CONST	SEGMENT
?has_denorm@_Num_base@std@@2W4float_denorm_style@2@B DD 00H ; std::_Num_base::has_denorm
CONST	ENDS
;	COMDAT ?VT@?$CVarTypeInfo@PAUtagVARIANT@@@ATL@@2GB
CONST	SEGMENT
?VT@?$CVarTypeInfo@PAUtagVARIANT@@@ATL@@2GB DW 0400cH	; ATL::CVarTypeInfo<tagVARIANT *>::VT
CONST	ENDS
;	COMDAT ?pmField@?$CVarTypeInfo@PAN@ATL@@2QQtagVARIANT@@PANQ3@
CONST	SEGMENT
?pmField@?$CVarTypeInfo@PAN@ATL@@2QQtagVARIANT@@PANQ3@ DD 08H ; ATL::CVarTypeInfo<double *>::pmField
CONST	ENDS
;	COMDAT ?VT@?$CVarTypeInfo@PAN@ATL@@2GB
CONST	SEGMENT
?VT@?$CVarTypeInfo@PAN@ATL@@2GB DW 04005H		; ATL::CVarTypeInfo<double *>::VT
CONST	ENDS
;	COMDAT ?pmField@?$CVarTypeInfo@N@ATL@@2QQtagVARIANT@@NQ3@
CONST	SEGMENT
?pmField@?$CVarTypeInfo@N@ATL@@2QQtagVARIANT@@NQ3@ DD 08H ; ATL::CVarTypeInfo<double>::pmField
CONST	ENDS
;	COMDAT ?VT@?$CVarTypeInfo@N@ATL@@2GB
CONST	SEGMENT
?VT@?$CVarTypeInfo@N@ATL@@2GB DW 05H			; ATL::CVarTypeInfo<double>::VT
CONST	ENDS
;	COMDAT ?pmField@?$CVarTypeInfo@PAM@ATL@@2QQtagVARIANT@@PAMQ3@
CONST	SEGMENT
?pmField@?$CVarTypeInfo@PAM@ATL@@2QQtagVARIANT@@PAMQ3@ DD 08H ; ATL::CVarTypeInfo<float *>::pmField
CONST	ENDS
;	COMDAT __GUID_00020400_0000_0000_c000_000000000046
CONST	SEGMENT
__GUID_00020400_0000_0000_c000_000000000046 DD 020400H
	DW	00H
	DW	00H
	DB	0c0H
	DB	00H
	DB	00H
	DB	00H
	DB	00H
	DB	00H
	DB	00H
	DB	046H
CONST	ENDS
;	COMDAT ?VT@?$CVarTypeInfo@PAM@ATL@@2GB
CONST	SEGMENT
?VT@?$CVarTypeInfo@PAM@ATL@@2GB DW 04004H		; ATL::CVarTypeInfo<float *>::VT
CONST	ENDS
;	COMDAT __GUID_a6bc3ac0_dbaa_11ce_9de3_00aa004bb851
CONST	SEGMENT
__GUID_a6bc3ac0_dbaa_11ce_9de3_00aa004bb851 DD 0a6bc3ac0H
	DW	0dbaaH
	DW	011ceH
	DB	09dH
	DB	0e3H
	DB	00H
	DB	0aaH
	DB	00H
	DB	04bH
	DB	0b8H
	DB	051H
CONST	ENDS
;	COMDAT ?pmField@?$CVarTypeInfo@M@ATL@@2QQtagVARIANT@@MQ3@
CONST	SEGMENT
?pmField@?$CVarTypeInfo@M@ATL@@2QQtagVARIANT@@MQ3@ DD 08H ; ATL::CVarTypeInfo<float>::pmField
CONST	ENDS
;	COMDAT ?VT@?$CVarTypeInfo@M@ATL@@2GB
CONST	SEGMENT
?VT@?$CVarTypeInfo@M@ATL@@2GB DW 04H			; ATL::CVarTypeInfo<float>::VT
CONST	ENDS
;	COMDAT __GUID_00000000_0000_0000_c000_000000000046
CONST	SEGMENT
__GUID_00000000_0000_0000_c000_000000000046 DD 00H
	DW	00H
	DW	00H
	DB	0c0H
	DB	00H
	DB	00H
	DB	00H
	DB	00H
	DB	00H
	DB	00H
	DB	046H
CONST	ENDS
;	COMDAT ?pmField@?$CVarTypeInfo@PA_K@ATL@@2QQtagVARIANT@@PA_KQ3@
CONST	SEGMENT
?pmField@?$CVarTypeInfo@PA_K@ATL@@2QQtagVARIANT@@PA_KQ3@ DD 08H ; ATL::CVarTypeInfo<unsigned __int64 *>::pmField
CONST	ENDS
;	COMDAT ?VT@?$CVarTypeInfo@PA_K@ATL@@2GB
CONST	SEGMENT
?VT@?$CVarTypeInfo@PA_K@ATL@@2GB DW 04015H		; ATL::CVarTypeInfo<unsigned __int64 *>::VT
CONST	ENDS
;	COMDAT ??_C@_07KJLOKDKB@TypeLib?$AA@
CONST	SEGMENT
??_C@_07KJLOKDKB@TypeLib?$AA@ DB 'TypeLib', 00H		; `string'
CONST	ENDS
;	COMDAT ??_C@_08KEKAJNJI@Software?$AA@
CONST	SEGMENT
??_C@_08KEKAJNJI@Software?$AA@ DB 'Software', 00H	; `string'
CONST	ENDS
;	COMDAT ??_C@_06FDHFNJBJ@SYSTEM?$AA@
CONST	SEGMENT
??_C@_06FDHFNJBJ@SYSTEM?$AA@ DB 'SYSTEM', 00H		; `string'
CONST	ENDS
;	COMDAT ??_C@_08LOPHEHKG@SECURITY?$AA@
CONST	SEGMENT
??_C@_08LOPHEHKG@SECURITY?$AA@ DB 'SECURITY', 00H	; `string'
CONST	ENDS
;	COMDAT ??_C@_03DDIMFGBA@SAM?$AA@
CONST	SEGMENT
??_C@_03DDIMFGBA@SAM?$AA@ DB 'SAM', 00H			; `string'
CONST	ENDS
;	COMDAT ??_C@_04IHBFOLAC@Mime?$AA@
CONST	SEGMENT
??_C@_04IHBFOLAC@Mime?$AA@ DB 'Mime', 00H		; `string'
CONST	ENDS
;	COMDAT ??_C@_08PPIOJEA@Hardware?$AA@
CONST	SEGMENT
??_C@_08PPIOJEA@Hardware?$AA@ DB 'Hardware', 00H	; `string'
CONST	ENDS
;	COMDAT ??_C@_09JKPGEJCH@Interface?$AA@
CONST	SEGMENT
??_C@_09JKPGEJCH@Interface?$AA@ DB 'Interface', 00H	; `string'
CONST	ENDS
;	COMDAT ??_C@_08PICKODJL@FileType?$AA@
CONST	SEGMENT
??_C@_08PICKODJL@FileType?$AA@ DB 'FileType', 00H	; `string'
CONST	ENDS
;	COMDAT ?pmField@?$CVarTypeInfo@_K@ATL@@2QQtagVARIANT@@_KQ3@
CONST	SEGMENT
?pmField@?$CVarTypeInfo@_K@ATL@@2QQtagVARIANT@@_KQ3@ DD 08H ; ATL::CVarTypeInfo<unsigned __int64>::pmField
CONST	ENDS
;	COMDAT ??_C@_0BF@HDDNNDFH@Component?5Categories?$AA@
CONST	SEGMENT
??_C@_0BF@HDDNNDFH@Component?5Categories?$AA@ DB 'Component Categories', 00H ; `string'
CONST	ENDS
;	COMDAT ?VT@?$CVarTypeInfo@_K@ATL@@2GB
CONST	SEGMENT
?VT@?$CVarTypeInfo@_K@ATL@@2GB DW 015H			; ATL::CVarTypeInfo<unsigned __int64>::VT
CONST	ENDS
;	COMDAT ?_Stream_err@failure@ios_base@std@@0W4io_errc@43@B
CONST	SEGMENT
?_Stream_err@failure@ios_base@std@@0W4io_errc@43@B DD 01H ; std::ios_base::failure::_Stream_err
CONST	ENDS
;	COMDAT ?value@?$_Sizeof@U_Nil@std@@U12@U12@U12@U12@U12@U12@U12@@std@@2IB
CONST	SEGMENT
?value@?$_Sizeof@U_Nil@std@@U12@U12@U12@U12@U12@U12@U12@@std@@2IB DD 00H ; std::_Sizeof<std::_Nil,std::_Nil,std::_Nil,std::_Nil,std::_Nil,std::_Nil,std::_Nil,std::_Nil>::value
CONST	ENDS
;	COMDAT ?pmField@?$CVarTypeInfo@PA_J@ATL@@2QQtagVARIANT@@PA_JQ3@
CONST	SEGMENT
?pmField@?$CVarTypeInfo@PA_J@ATL@@2QQtagVARIANT@@PA_JQ3@ DD 08H ; ATL::CVarTypeInfo<__int64 *>::pmField
CONST	ENDS
;	COMDAT ?VT@?$CVarTypeInfo@PA_J@ATL@@2GB
CONST	SEGMENT
?VT@?$CVarTypeInfo@PA_J@ATL@@2GB DW 04014H		; ATL::CVarTypeInfo<__int64 *>::VT
CONST	ENDS
;	COMDAT ___pobjMapEntryLast
ATL$__z	SEGMENT
___pobjMapEntryLast DD 00H
ATL$__z	ENDS
;	COMDAT ___pobjMapEntryFirst
ATL$__a	SEGMENT
___pobjMapEntryFirst DD 00H
ATL$__a	ENDS
;	COMDAT ?pmField@?$CVarTypeInfo@_J@ATL@@2QQtagVARIANT@@_JQ3@
CONST	SEGMENT
?pmField@?$CVarTypeInfo@_J@ATL@@2QQtagVARIANT@@_JQ3@ DD 08H ; ATL::CVarTypeInfo<__int64>::pmField
CONST	ENDS
;	COMDAT ?VT@?$CVarTypeInfo@_J@ATL@@2GB
CONST	SEGMENT
?VT@?$CVarTypeInfo@_J@ATL@@2GB DW 014H			; ATL::CVarTypeInfo<__int64>::VT
CONST	ENDS
;	COMDAT ?end@?$_Iosb@H@std@@2W4_Seekdir@12@B
CONST	SEGMENT
?end@?$_Iosb@H@std@@2W4_Seekdir@12@B DD 02H		; std::_Iosb<int>::end
CONST	ENDS
;	COMDAT ?cur@?$_Iosb@H@std@@2W4_Seekdir@12@B
CONST	SEGMENT
?cur@?$_Iosb@H@std@@2W4_Seekdir@12@B DD 01H		; std::_Iosb<int>::cur
CONST	ENDS
;	COMDAT ?pmField@?$CVarTypeInfo@PAK@ATL@@2QQtagVARIANT@@PAKQ3@
CONST	SEGMENT
?pmField@?$CVarTypeInfo@PAK@ATL@@2QQtagVARIANT@@PAKQ3@ DD 08H ; ATL::CVarTypeInfo<unsigned long *>::pmField
CONST	ENDS
;	COMDAT ?beg@?$_Iosb@H@std@@2W4_Seekdir@12@B
CONST	SEGMENT
?beg@?$_Iosb@H@std@@2W4_Seekdir@12@B DD 00H		; std::_Iosb<int>::beg
CONST	ENDS
PUBLIC	??2@YAPAXIPAX@Z					; operator new
PUBLIC	??3@YAXPAX0@Z					; operator delete
PUBLIC	??1CComBSTR@ATL@@QAE@XZ				; ATL::CComBSTR::~CComBSTR
PUBLIC	??1stringdispid@CComTypeInfoHolder@ATL@@QAE@XZ	; ATL::CComTypeInfoHolder::stringdispid::~stringdispid
PUBLIC	??_Estringdispid@CComTypeInfoHolder@ATL@@QAEPAXI@Z ; ATL::CComTypeInfoHolder::stringdispid::`vector deleting destructor'
PUBLIC	?length@?$char_traits@D@std@@SAIPBD@Z		; std::char_traits<char>::length
PUBLIC	?copy@?$char_traits@D@std@@SAPADPADPBDI@Z	; std::char_traits<char>::copy
PUBLIC	?move@?$char_traits@D@std@@SAPADPADPBDI@Z	; std::char_traits<char>::move
PUBLIC	?assign@?$char_traits@D@std@@SAXAADABD@Z	; std::char_traits<char>::assign
PUBLIC	??0?$allocator@D@std@@QAE@XZ			; std::allocator<char>::allocator<char>
PUBLIC	?deallocate@?$allocator@D@std@@QAEXPADI@Z	; std::allocator<char>::deallocate
PUBLIC	?allocate@?$allocator@D@std@@QAEPADI@Z		; std::allocator<char>::allocate
PUBLIC	?max_size@?$allocator@D@std@@QBEIXZ		; std::allocator<char>::max_size
PUBLIC	?max_size@?$allocator_traits@V?$allocator@D@std@@@std@@SAIABV?$allocator@D@2@@Z ; std::allocator_traits<std::allocator<char> >::max_size
PUBLIC	??0?$_Wrap_alloc@V?$allocator@D@std@@@std@@QAE@XZ ; std::_Wrap_alloc<std::allocator<char> >::_Wrap_alloc<std::allocator<char> >
PUBLIC	?allocate@?$_Wrap_alloc@V?$allocator@D@std@@@std@@QAEPADI@Z ; std::_Wrap_alloc<std::allocator<char> >::allocate
PUBLIC	?deallocate@?$_Wrap_alloc@V?$allocator@D@std@@@std@@QAEXPADI@Z ; std::_Wrap_alloc<std::allocator<char> >::deallocate
PUBLIC	?max_size@?$_Wrap_alloc@V?$allocator@D@std@@@std@@QBEIXZ ; std::_Wrap_alloc<std::allocator<char> >::max_size
PUBLIC	??0?$_String_val@U?$_Simple_types@D@std@@@std@@QAE@XZ ; std::_String_val<std::_Simple_types<char> >::_String_val<std::_Simple_types<char> >
PUBLIC	?_Myptr@?$_String_val@U?$_Simple_types@D@std@@@std@@QAEPADXZ ; std::_String_val<std::_Simple_types<char> >::_Myptr
PUBLIC	?_Myptr@?$_String_val@U?$_Simple_types@D@std@@@std@@QBEPBDXZ ; std::_String_val<std::_Simple_types<char> >::_Myptr
PUBLIC	??0?$_String_alloc@$0A@U?$_String_base_types@DV?$allocator@D@std@@@std@@@std@@QAE@ABV?$allocator@D@1@@Z ; std::_String_alloc<0,std::_String_base_types<char,std::allocator<char> > >::_String_alloc<0,std::_String_base_types<char,std::allocator<char> > >
PUBLIC	?_Getal@?$_String_alloc@$0A@U?$_String_base_types@DV?$allocator@D@std@@@std@@@std@@QBE?AU?$_Wrap_alloc@V?$allocator@D@std@@@2@XZ ; std::_String_alloc<0,std::_String_base_types<char,std::allocator<char> > >::_Getal
PUBLIC	??0?$basic_string@DU?$char_traits@D@std@@V?$allocator@D@2@@std@@QAE@PBD@Z ; std::basic_string<char,std::char_traits<char>,std::allocator<char> >::basic_string<char,std::char_traits<char>,std::allocator<char> >
PUBLIC	?assign@?$basic_string@DU?$char_traits@D@std@@V?$allocator@D@2@@std@@QAEAAV12@ABV12@II@Z ; std::basic_string<char,std::char_traits<char>,std::allocator<char> >::assign
PUBLIC	?assign@?$basic_string@DU?$char_traits@D@std@@V?$allocator@D@2@@std@@QAEAAV12@PBDI@Z ; std::basic_string<char,std::char_traits<char>,std::allocator<char> >::assign
PUBLIC	?assign@?$basic_string@DU?$char_traits@D@std@@V?$allocator@D@2@@std@@QAEAAV12@PBD@Z ; std::basic_string<char,std::char_traits<char>,std::allocator<char> >::assign
PUBLIC	?erase@?$basic_string@DU?$char_traits@D@std@@V?$allocator@D@2@@std@@QAEAAV12@I@Z ; std::basic_string<char,std::char_traits<char>,std::allocator<char> >::erase
PUBLIC	?erase@?$basic_string@DU?$char_traits@D@std@@V?$allocator@D@2@@std@@QAEAAV12@II@Z ; std::basic_string<char,std::char_traits<char>,std::allocator<char> >::erase
PUBLIC	?size@?$basic_string@DU?$char_traits@D@std@@V?$allocator@D@2@@std@@QBEIXZ ; std::basic_string<char,std::char_traits<char>,std::allocator<char> >::size
PUBLIC	?max_size@?$basic_string@DU?$char_traits@D@std@@V?$allocator@D@2@@std@@QBEIXZ ; std::basic_string<char,std::char_traits<char>,std::allocator<char> >::max_size
PUBLIC	?_Copy@?$basic_string@DU?$char_traits@D@std@@V?$allocator@D@2@@std@@QAEXII@Z ; std::basic_string<char,std::char_traits<char>,std::allocator<char> >::_Copy
PUBLIC	?_Eos@?$basic_string@DU?$char_traits@D@std@@V?$allocator@D@2@@std@@QAEXI@Z ; std::basic_string<char,std::char_traits<char>,std::allocator<char> >::_Eos
PUBLIC	?_Grow@?$basic_string@DU?$char_traits@D@std@@V?$allocator@D@2@@std@@QAE_NI_N@Z ; std::basic_string<char,std::char_traits<char>,std::allocator<char> >::_Grow
PUBLIC	?_Inside@?$basic_string@DU?$char_traits@D@std@@V?$allocator@D@2@@std@@QAE_NPBD@Z ; std::basic_string<char,std::char_traits<char>,std::allocator<char> >::_Inside
PUBLIC	?_Tidy@?$basic_string@DU?$char_traits@D@std@@V?$allocator@D@2@@std@@QAEX_NI@Z ; std::basic_string<char,std::char_traits<char>,std::allocator<char> >::_Tidy
PUBLIC	?_Xlen@?$basic_string@DU?$char_traits@D@std@@V?$allocator@D@2@@std@@QBEXXZ ; std::basic_string<char,std::char_traits<char>,std::allocator<char> >::_Xlen
PUBLIC	?_Xran@?$basic_string@DU?$char_traits@D@std@@V?$allocator@D@2@@std@@QBEXXZ ; std::basic_string<char,std::char_traits<char>,std::allocator<char> >::_Xran
PUBLIC	??0id@locale@std@@QAE@I@Z			; std::locale::id::id
PUBLIC	?generic_category@std@@YAABVerror_category@1@XZ	; std::generic_category
PUBLIC	?system_category@std@@YAABVerror_category@1@XZ	; std::system_category
PUBLIC	??0error_category@std@@QAE@XZ			; std::error_category::error_category
PUBLIC	??1error_category@std@@UAE@XZ			; std::error_category::~error_category
PUBLIC	?default_error_condition@error_category@std@@UBE?AVerror_condition@2@H@Z ; std::error_category::default_error_condition
PUBLIC	?equivalent@error_category@std@@UBE_NHABVerror_condition@2@@Z ; std::error_category::equivalent
PUBLIC	?equivalent@error_category@std@@UBE_NABVerror_code@2@H@Z ; std::error_category::equivalent
PUBLIC	??8error_category@std@@QBE_NABV01@@Z		; std::error_category::operator==
PUBLIC	??_Gerror_category@std@@UAEPAXI@Z		; std::error_category::`scalar deleting destructor'
PUBLIC	?value@error_code@std@@QBEHXZ			; std::error_code::value
PUBLIC	?category@error_code@std@@QBEABVerror_category@2@XZ ; std::error_code::category
PUBLIC	??0error_condition@std@@QAE@HABVerror_category@1@@Z ; std::error_condition::error_condition
PUBLIC	?value@error_condition@std@@QBEHXZ		; std::error_condition::value
PUBLIC	?category@error_condition@std@@QBEABVerror_category@2@XZ ; std::error_condition::category
PUBLIC	??8error_condition@std@@QBE_NABV01@@Z		; std::error_condition::operator==
PUBLIC	??0_Generic_error_category@std@@QAE@XZ		; std::_Generic_error_category::_Generic_error_category
PUBLIC	?name@_Generic_error_category@std@@UBEPBDXZ	; std::_Generic_error_category::name
PUBLIC	?message@_Generic_error_category@std@@UBE?AV?$basic_string@DU?$char_traits@D@std@@V?$allocator@D@2@@2@H@Z ; std::_Generic_error_category::message
PUBLIC	??1_Generic_error_category@std@@UAE@XZ		; std::_Generic_error_category::~_Generic_error_category
PUBLIC	??_G_Generic_error_category@std@@UAEPAXI@Z	; std::_Generic_error_category::`scalar deleting destructor'
PUBLIC	??0_Iostream_error_category@std@@QAE@XZ		; std::_Iostream_error_category::_Iostream_error_category
PUBLIC	?name@_Iostream_error_category@std@@UBEPBDXZ	; std::_Iostream_error_category::name
PUBLIC	?message@_Iostream_error_category@std@@UBE?AV?$basic_string@DU?$char_traits@D@std@@V?$allocator@D@2@@2@H@Z ; std::_Iostream_error_category::message
PUBLIC	??1_Iostream_error_category@std@@UAE@XZ		; std::_Iostream_error_category::~_Iostream_error_category
PUBLIC	??_G_Iostream_error_category@std@@UAEPAXI@Z	; std::_Iostream_error_category::`scalar deleting destructor'
PUBLIC	??0_System_error_category@std@@QAE@XZ		; std::_System_error_category::_System_error_category
PUBLIC	?name@_System_error_category@std@@UBEPBDXZ	; std::_System_error_category::name
PUBLIC	?message@_System_error_category@std@@UBE?AV?$basic_string@DU?$char_traits@D@std@@V?$allocator@D@2@@2@H@Z ; std::_System_error_category::message
PUBLIC	?default_error_condition@_System_error_category@std@@UBE?AVerror_condition@2@H@Z ; std::_System_error_category::default_error_condition
PUBLIC	??1_System_error_category@std@@UAE@XZ		; std::_System_error_category::~_System_error_category
PUBLIC	??_G_System_error_category@std@@UAEPAXI@Z	; std::_System_error_category::`scalar deleting destructor'
PUBLIC	??_GC_Hash@@QAEPAXI@Z				; C_Hash::`scalar deleting destructor'
PUBLIC	??0O_Output@@QAE@XZ				; O_Output::O_Output
PUBLIC	??1O_Output@@QAE@XZ				; O_Output::~O_Output
PUBLIC	?SetOwner@O_Output@@QAEXPAVC_Base@@@Z		; O_Output::SetOwner
PUBLIC	?Ready@O_Output@@QAEFXZ				; O_Output::Ready
PUBLIC	??_GO_Output@@QAEPAXI@Z				; O_Output::`scalar deleting destructor'
PUBLIC	??1C_Base@@UAE@XZ				; C_Base::~C_Base
PUBLIC	?SetID@C_Base@@QAEXJ@Z				; C_Base::SetID
PUBLIC	?SetType@C_Base@@QAEXF@Z			; C_Base::SetType
PUBLIC	?_SetCType_@C_Base@@QAEXF@Z			; C_Base::_SetCType_
PUBLIC	?SetGroup@C_Base@@QAEXJ@Z			; C_Base::SetGroup
PUBLIC	?SetFlags@C_Base@@UAEXJ@Z			; C_Base::SetFlags
PUBLIC	?SetFlagBitOn@C_Base@@UAEXJ@Z			; C_Base::SetFlagBitOn
PUBLIC	?SetFlagBitOff@C_Base@@UAEXJ@Z			; C_Base::SetFlagBitOff
PUBLIC	?SetX@C_Base@@UAEXJ@Z				; C_Base::SetX
PUBLIC	?SetY@C_Base@@UAEXJ@Z				; C_Base::SetY
PUBLIC	?SetW@C_Base@@UAEXJ@Z				; C_Base::SetW
PUBLIC	?SetH@C_Base@@UAEXJ@Z				; C_Base::SetH
PUBLIC	?SetXY@C_Base@@UAEXJJ@Z				; C_Base::SetXY
PUBLIC	?SetWH@C_Base@@UAEXJJ@Z				; C_Base::SetWH
PUBLIC	?SetXYWH@C_Base@@UAEXJJJJ@Z			; C_Base::SetXYWH
PUBLIC	?SetRelX@C_Base@@UAEXJ@Z			; C_Base::SetRelX
PUBLIC	?SetRelY@C_Base@@UAEXJ@Z			; C_Base::SetRelY
PUBLIC	?SetRelXY@C_Base@@UAEXJJ@Z			; C_Base::SetRelXY
PUBLIC	?SetParent@C_Base@@QAEXPAVC_Window@@@Z		; C_Base::SetParent
PUBLIC	?SetReady@C_Base@@QAEXF@Z			; C_Base::SetReady
PUBLIC	?SetState@C_Base@@UAEXF@Z			; C_Base::SetState
PUBLIC	?SetHotKey@C_Base@@UAEXF@Z			; C_Base::SetHotKey
PUBLIC	?SetMenu@C_Base@@UAEXJ@Z			; C_Base::SetMenu
PUBLIC	?SetFont@C_Base@@UAEXJ@Z			; C_Base::SetFont
PUBLIC	?SetSound@C_Base@@UAEXJF@Z			; C_Base::SetSound
PUBLIC	?SetCursorID@C_Base@@UAEXJ@Z			; C_Base::SetCursorID
PUBLIC	?SetDragCursorID@C_Base@@UAEXJ@Z		; C_Base::SetDragCursorID
PUBLIC	?SetHelpText@C_Base@@UAEXJ@Z			; C_Base::SetHelpText
PUBLIC	?SetMouseOver@C_Base@@UAEXF@Z			; C_Base::SetMouseOver
PUBLIC	?SetMouseOverColor@C_Base@@UAEXK@Z		; C_Base::SetMouseOverColor
PUBLIC	?SetMouseOverPerc@C_Base@@UAEXF@Z		; C_Base::SetMouseOverPerc
PUBLIC	?SetCallback@C_Base@@UAEXP6AXJFPAV1@@Z@Z	; C_Base::SetCallback
PUBLIC	?GetID@C_Base@@QAEJXZ				; C_Base::GetID
PUBLIC	?GetType@C_Base@@QAEFXZ				; C_Base::GetType
PUBLIC	?GetFlags@C_Base@@QAEJXZ			; C_Base::GetFlags
PUBLIC	?GetClient@C_Base@@QAEFXZ			; C_Base::GetClient
PUBLIC	?GetX@C_Base@@QAEJXZ				; C_Base::GetX
PUBLIC	?GetY@C_Base@@QAEJXZ				; C_Base::GetY
PUBLIC	?GetW@C_Base@@QAEJXZ				; C_Base::GetW
PUBLIC	?GetH@C_Base@@QAEJXZ				; C_Base::GetH
PUBLIC	?GetRelX@C_Base@@UAEJXZ				; C_Base::GetRelX
PUBLIC	?GetRelY@C_Base@@UAEJXZ				; C_Base::GetRelY
PUBLIC	?Ready@C_Base@@QAEFXZ				; C_Base::Ready
PUBLIC	?GetState@C_Base@@UAEFXZ			; C_Base::GetState
PUBLIC	?GetHotKey@C_Base@@UAEFXZ			; C_Base::GetHotKey
PUBLIC	?GetMenu@C_Base@@UAEJXZ				; C_Base::GetMenu
PUBLIC	?GetFont@C_Base@@UAEJXZ				; C_Base::GetFont
PUBLIC	?GetHelpText@C_Base@@UAEJXZ			; C_Base::GetHelpText
PUBLIC	?GetSound@C_Base@@UAEPAVSOUND_RES@@F@Z		; C_Base::GetSound
PUBLIC	?GetMouseOver@C_Base@@UAEFXZ			; C_Base::GetMouseOver
PUBLIC	?GetCursorID@C_Base@@UAEJXZ			; C_Base::GetCursorID
PUBLIC	?GetDragCursorID@C_Base@@UAEJXZ			; C_Base::GetDragCursorID
PUBLIC	?GetCallback@C_Base@@UAEP6AXJFPAV1@@ZXZ		; C_Base::GetCallback
PUBLIC	?IsBase@C_Base@@UAEHXZ				; C_Base::IsBase
PUBLIC	?IsControl@C_Base@@UAEHXZ			; C_Base::IsControl
PUBLIC	?Refresh@C_Base@@UAEXXZ				; C_Base::Refresh
PUBLIC	?Draw@C_Base@@UAEXPAVSCREEN@@PAUUI95_RECT@@@Z	; C_Base::Draw
PUBLIC	?HighLite@C_Base@@UAEXPAVSCREEN@@PAUUI95_RECT@@@Z ; C_Base::HighLite
PUBLIC	?SetSubParents@C_Base@@UAEXPAVC_Window@@@Z	; C_Base::SetSubParents
PUBLIC	?Cleanup@C_Base@@UAEXXZ				; C_Base::Cleanup
PUBLIC	?TimerUpdate@C_Base@@UAEHXZ			; C_Base::TimerUpdate
PUBLIC	?Activate@C_Base@@UAEXXZ			; C_Base::Activate
PUBLIC	?Deactivate@C_Base@@UAEXXZ			; C_Base::Deactivate
PUBLIC	?CheckHotSpots@C_Base@@UAEJJJ@Z			; C_Base::CheckHotSpots
PUBLIC	?CheckKeyboard@C_Base@@UAEHEEEJ@Z		; C_Base::CheckKeyboard
PUBLIC	?Process@C_Base@@UAEHJF@Z			; C_Base::Process
PUBLIC	?CloseWindow@C_Base@@UAEHXZ			; C_Base::CloseWindow
PUBLIC	?MouseOver@C_Base@@UAEHJJPAV1@@Z		; C_Base::MouseOver
PUBLIC	?GetMe@C_Base@@UAEPAV1@XZ			; C_Base::GetMe
PUBLIC	?Dragable@C_Base@@UAEHJ@Z			; C_Base::Dragable
PUBLIC	?GetItemXY@C_Base@@UAEXJPAJ0@Z			; C_Base::GetItemXY
PUBLIC	?Drag@C_Base@@UAEHPAUGRABBER@@GGPAVC_Window@@@Z	; C_Base::Drag
PUBLIC	?Drop@C_Base@@UAEHPAUGRABBER@@GGPAVC_Window@@@Z	; C_Base::Drop
PUBLIC	?Wheel@C_Base@@UAEHHGG@Z			; C_Base::Wheel
PUBLIC	?LocalFind@C_Base@@UAEFPAD@Z			; C_Base::LocalFind
PUBLIC	?LocalFunction@C_Base@@UAEXFQAJPADPAVC_Handler@@@Z ; C_Base::LocalFunction
PUBLIC	?SaveText@C_Base@@UAEXPAXPAVC_Parser@@@Z	; C_Base::SaveText
PUBLIC	??_GC_Base@@UAEPAXI@Z				; C_Base::`scalar deleting destructor'
PUBLIC	??1C_Control@@UAE@XZ				; C_Control::~C_Control
PUBLIC	?SetRelX@C_Control@@UAEXJ@Z			; C_Control::SetRelX
PUBLIC	?SetRelY@C_Control@@UAEXJ@Z			; C_Control::SetRelY
PUBLIC	?SetRelXY@C_Control@@UAEXJJ@Z			; C_Control::SetRelXY
PUBLIC	?SetCursorID@C_Control@@UAEXJ@Z			; C_Control::SetCursorID
PUBLIC	?SetDragCursorID@C_Control@@UAEXJ@Z		; C_Control::SetDragCursorID
PUBLIC	?SetMenu@C_Control@@UAEXJ@Z			; C_Control::SetMenu
PUBLIC	?SetHelpText@C_Control@@UAEXJ@Z			; C_Control::SetHelpText
PUBLIC	?SetHotKey@C_Control@@UAEXF@Z			; C_Control::SetHotKey
PUBLIC	?SetCallback@C_Control@@UAEXP6AXJFPAVC_Base@@@Z@Z ; C_Control::SetCallback
PUBLIC	?SetMouseOver@C_Control@@UAEXF@Z		; C_Control::SetMouseOver
PUBLIC	?SetMouseOverColor@C_Control@@UAEXK@Z		; C_Control::SetMouseOverColor
PUBLIC	?SetMouseOverPerc@C_Control@@UAEXF@Z		; C_Control::SetMouseOverPerc
PUBLIC	?IsBase@C_Control@@UAEHXZ			; C_Control::IsBase
PUBLIC	?IsControl@C_Control@@UAEHXZ			; C_Control::IsControl
PUBLIC	?GetRelX@C_Control@@UAEJXZ			; C_Control::GetRelX
PUBLIC	?GetRelY@C_Control@@UAEJXZ			; C_Control::GetRelY
PUBLIC	?GetCursorID@C_Control@@UAEJXZ			; C_Control::GetCursorID
PUBLIC	?GetDragCursorID@C_Control@@UAEJXZ		; C_Control::GetDragCursorID
PUBLIC	?GetMenu@C_Control@@UAEJXZ			; C_Control::GetMenu
PUBLIC	?GetHelpText@C_Control@@UAEJXZ			; C_Control::GetHelpText
PUBLIC	?GetHotKey@C_Control@@UAEFXZ			; C_Control::GetHotKey
PUBLIC	?GetMouseOver@C_Control@@UAEFXZ			; C_Control::GetMouseOver
PUBLIC	?GetCallback@C_Control@@UAEP6AXJFPAVC_Base@@@ZXZ ; C_Control::GetCallback
PUBLIC	??_GC_Control@@UAEPAXI@Z			; C_Control::`scalar deleting destructor'
PUBLIC	?CalcRanges@C_ScrollBar@@AAEXXZ			; C_ScrollBar::CalcRanges
PUBLIC	??0C_ScrollBar@@QAE@XZ				; C_ScrollBar::C_ScrollBar
PUBLIC	??0C_ScrollBar@@QAE@PAPAD@Z			; C_ScrollBar::C_ScrollBar
PUBLIC	??0C_ScrollBar@@QAE@PAU_iobuf@@@Z		; C_ScrollBar::C_ScrollBar
PUBLIC	??1C_ScrollBar@@UAE@XZ				; C_ScrollBar::~C_ScrollBar
PUBLIC	?Size@C_ScrollBar@@QAEJXZ			; C_ScrollBar::Size
PUBLIC	?Setup@C_ScrollBar@@QAEXJF@Z			; C_ScrollBar::Setup
PUBLIC	?Cleanup@C_ScrollBar@@UAEXXZ			; C_ScrollBar::Cleanup
PUBLIC	?SetDistance@C_ScrollBar@@QAEXH@Z		; C_ScrollBar::SetDistance
PUBLIC	?SetDefaultFlags@C_ScrollBar@@QAEXXZ		; C_ScrollBar::SetDefaultFlags
PUBLIC	?SetBgImage@C_ScrollBar@@QAEXJ@Z		; C_ScrollBar::SetBgImage
PUBLIC	?SetSliderImage@C_ScrollBar@@QAEXJ@Z		; C_ScrollBar::SetSliderImage
PUBLIC	?SetSliderRect@C_ScrollBar@@QAEXFFFF@Z		; C_ScrollBar::SetSliderRect
PUBLIC	?SetColors@C_ScrollBar@@QAEXKKK@Z		; C_ScrollBar::SetColors
PUBLIC	?SetLineColor@C_ScrollBar@@QAEXK@Z		; C_ScrollBar::SetLineColor
PUBLIC	?UpdatePosition@C_ScrollBar@@QAEXXZ		; C_ScrollBar::UpdatePosition
PUBLIC	?SetButtonImages@C_ScrollBar@@QAEXJJJJ@Z	; C_ScrollBar::SetButtonImages
PUBLIC	?CheckHotSpots@C_ScrollBar@@UAEJJJ@Z		; C_ScrollBar::CheckHotSpots
PUBLIC	?Process@C_ScrollBar@@UAEHJF@Z			; C_ScrollBar::Process
PUBLIC	?Wheel@C_ScrollBar@@UAEHHGG@Z			; C_ScrollBar::Wheel
PUBLIC	?Dragable@C_ScrollBar@@UAEHJ@Z			; C_ScrollBar::Dragable
PUBLIC	?Refresh@C_ScrollBar@@UAEXXZ			; C_ScrollBar::Refresh
PUBLIC	?Draw@C_ScrollBar@@UAEXPAVSCREEN@@PAUUI95_RECT@@@Z ; C_ScrollBar::Draw
PUBLIC	?GetItemXY@C_ScrollBar@@UAEXJPAJ0@Z		; C_ScrollBar::GetItemXY
PUBLIC	?Drag@C_ScrollBar@@UAEHPAUGRABBER@@GGPAVC_Window@@@Z ; C_ScrollBar::Drag
PUBLIC	?Drop@C_ScrollBar@@UAEHPAUGRABBER@@GGPAVC_Window@@@Z ; C_ScrollBar::Drop
PUBLIC	?SetSubParents@C_ScrollBar@@UAEXPAVC_Window@@@Z	; C_ScrollBar::SetSubParents
PUBLIC	?LocalFind@C_ScrollBar@@UAEFPAD@Z		; C_ScrollBar::LocalFind
PUBLIC	?LocalFunction@C_ScrollBar@@UAEXFQAJPADPAVC_Handler@@@Z ; C_ScrollBar::LocalFunction
PUBLIC	?SaveText@C_ScrollBar@@UAEXPAXPAVC_Parser@@@Z	; C_ScrollBar::SaveText
PUBLIC	??_GC_ScrollBar@@UAEPAXI@Z			; C_ScrollBar::`scalar deleting destructor'
PUBLIC	?GetX@C_Window@@QAEFXZ				; C_Window::GetX
PUBLIC	?GetY@C_Window@@QAEFXZ				; C_Window::GetY
PUBLIC	??$construct@PADAAPAD@?$_Wrap_alloc@V?$allocator@D@std@@@std@@QAEXPAPADAAPAD@Z ; std::_Wrap_alloc<std::allocator<char> >::construct<char *,char * &>
PUBLIC	??$destroy@PAD@?$_Wrap_alloc@V?$allocator@D@std@@@std@@QAEXPAPAD@Z ; std::_Wrap_alloc<std::allocator<char> >::destroy<char *>
PUBLIC	??$addressof@D@std@@YAPADAAD@Z			; std::addressof<char>
PUBLIC	??$_Allocate@D@std@@YAPADIPAD@Z			; std::_Allocate<char>
PUBLIC	??$forward@AAPAD@std@@YAAAPADAAPAD@Z		; std::forward<char * &>
PUBLIC	??$construct@PADAAPAD@?$allocator_traits@V?$allocator@D@std@@@std@@SAXAAV?$allocator@D@1@PAPADAAPAD@Z ; std::allocator_traits<std::allocator<char> >::construct<char *,char * &>
PUBLIC	??$destroy@PAD@?$allocator_traits@V?$allocator@D@std@@@std@@SAXAAV?$allocator@D@1@PAPAD@Z ; std::allocator_traits<std::allocator<char> >::destroy<char *>
PUBLIC	??$construct@PADAAPAD@?$allocator@D@std@@QAEXPAPADAAPAD@Z ; std::allocator<char>::construct<char *,char * &>
PUBLIC	??$destroy@PAD@?$allocator@D@std@@QAEXPAPAD@Z	; std::allocator<char>::destroy<char *>
PUBLIC	??_7error_category@std@@6B@			; std::error_category::`vftable'
PUBLIC	??_7_Generic_error_category@std@@6B@		; std::_Generic_error_category::`vftable'
PUBLIC	??_C@_07DCLBNMLN@generic?$AA@			; `string'
PUBLIC	??_C@_0O@BFJCFAAK@unknown?5error?$AA@		; `string'
PUBLIC	??_7_Iostream_error_category@std@@6B@		; std::_Iostream_error_category::`vftable'
PUBLIC	??_C@_08LLGCOLLL@iostream?$AA@			; `string'
PUBLIC	??_C@_0BG@PADBLCHM@iostream?5stream?5error?$AA@	; `string'
PUBLIC	??_7_System_error_category@std@@6B@		; std::_System_error_category::`vftable'
PUBLIC	??_C@_06FHFOAHML@system?$AA@			; `string'
PUBLIC	?_Generic_object@?$_Error_objects@H@std@@2V_Generic_error_category@2@A ; std::_Error_objects<int>::_Generic_object
PUBLIC	?_Iostream_object@?$_Error_objects@H@std@@2V_Iostream_error_category@2@A ; std::_Error_objects<int>::_Iostream_object
PUBLIC	?_System_object@?$_Error_objects@H@std@@2V_System_error_category@2@A ; std::_Error_objects<int>::_System_object
PUBLIC	?id@?$num_put@DV?$back_insert_iterator@V?$basic_string@DU?$char_traits@D@std@@V?$allocator@D@2@@std@@@std@@@std@@2V0locale@2@A ; std::num_put<char,std::back_insert_iterator<std::basic_string<char,std::char_traits<char>,std::allocator<char> > > >::id
PUBLIC	?id@?$num_put@_WV?$back_insert_iterator@V?$basic_string@_WU?$char_traits@_W@std@@V?$allocator@_W@2@@std@@@std@@@std@@2V0locale@2@A ; std::num_put<wchar_t,std::back_insert_iterator<std::basic_string<wchar_t,std::char_traits<wchar_t>,std::allocator<wchar_t> > > >::id
PUBLIC	??_7C_Base@@6B@					; C_Base::`vftable'
PUBLIC	??_7C_Control@@6B@				; C_Control::`vftable'
PUBLIC	??_7C_ScrollBar@@6B@				; C_ScrollBar::`vftable'
PUBLIC	?id@?$numpunct@D@std@@2V0locale@2@A		; std::numpunct<char>::id
PUBLIC	?id@?$numpunct@_W@std@@2V0locale@2@A		; std::numpunct<wchar_t>::id
PUBLIC	??_C@_0BI@CFPLBAOH@invalid?5string?5position?$AA@ ; `string'
PUBLIC	??_C@_0BA@JFNIOLAK@string?5too?5long?$AA@	; `string'
PUBLIC	??_R4error_category@std@@6B@			; std::error_category::`RTTI Complete Object Locator'
PUBLIC	??_R0?AVerror_category@std@@@8			; std::error_category `RTTI Type Descriptor'
PUBLIC	??_R3error_category@std@@8			; std::error_category::`RTTI Class Hierarchy Descriptor'
PUBLIC	??_R2error_category@std@@8			; std::error_category::`RTTI Base Class Array'
PUBLIC	??_R1A@?0A@EA@error_category@std@@8		; std::error_category::`RTTI Base Class Descriptor at (0,-1,0,64)'
PUBLIC	??_R4_Generic_error_category@std@@6B@		; std::_Generic_error_category::`RTTI Complete Object Locator'
PUBLIC	??_R0?AV_Generic_error_category@std@@@8		; std::_Generic_error_category `RTTI Type Descriptor'
PUBLIC	??_R3_Generic_error_category@std@@8		; std::_Generic_error_category::`RTTI Class Hierarchy Descriptor'
PUBLIC	??_R2_Generic_error_category@std@@8		; std::_Generic_error_category::`RTTI Base Class Array'
PUBLIC	??_R1A@?0A@EA@_Generic_error_category@std@@8	; std::_Generic_error_category::`RTTI Base Class Descriptor at (0,-1,0,64)'
PUBLIC	??_R4_Iostream_error_category@std@@6B@		; std::_Iostream_error_category::`RTTI Complete Object Locator'
PUBLIC	??_R0?AV_Iostream_error_category@std@@@8	; std::_Iostream_error_category `RTTI Type Descriptor'
PUBLIC	??_R3_Iostream_error_category@std@@8		; std::_Iostream_error_category::`RTTI Class Hierarchy Descriptor'
PUBLIC	??_R2_Iostream_error_category@std@@8		; std::_Iostream_error_category::`RTTI Base Class Array'
PUBLIC	??_R1A@?0A@EA@_Iostream_error_category@std@@8	; std::_Iostream_error_category::`RTTI Base Class Descriptor at (0,-1,0,64)'
PUBLIC	??_R4_System_error_category@std@@6B@		; std::_System_error_category::`RTTI Complete Object Locator'
PUBLIC	??_R0?AV_System_error_category@std@@@8		; std::_System_error_category `RTTI Type Descriptor'
PUBLIC	??_R3_System_error_category@std@@8		; std::_System_error_category::`RTTI Class Hierarchy Descriptor'
PUBLIC	??_R2_System_error_category@std@@8		; std::_System_error_category::`RTTI Base Class Array'
PUBLIC	??_R1A@?0A@EA@_System_error_category@std@@8	; std::_System_error_category::`RTTI Base Class Descriptor at (0,-1,0,64)'
PUBLIC	??_R4C_Base@@6B@				; C_Base::`RTTI Complete Object Locator'
PUBLIC	??_R0?AVC_Base@@@8				; C_Base `RTTI Type Descriptor'
PUBLIC	??_R3C_Base@@8					; C_Base::`RTTI Class Hierarchy Descriptor'
PUBLIC	??_R2C_Base@@8					; C_Base::`RTTI Base Class Array'
PUBLIC	??_R1A@?0A@EA@C_Base@@8				; C_Base::`RTTI Base Class Descriptor at (0,-1,0,64)'
PUBLIC	??_R4C_Control@@6B@				; C_Control::`RTTI Complete Object Locator'
PUBLIC	??_R0?AVC_Control@@@8				; C_Control `RTTI Type Descriptor'
PUBLIC	??_R3C_Control@@8				; C_Control::`RTTI Class Hierarchy Descriptor'
PUBLIC	??_R2C_Control@@8				; C_Control::`RTTI Base Class Array'
PUBLIC	??_R1A@?0A@EA@C_Control@@8			; C_Control::`RTTI Base Class Descriptor at (0,-1,0,64)'
PUBLIC	??_R4C_ScrollBar@@6B@				; C_ScrollBar::`RTTI Complete Object Locator'
PUBLIC	??_R0?AVC_ScrollBar@@@8				; C_ScrollBar `RTTI Type Descriptor'
PUBLIC	??_R3C_ScrollBar@@8				; C_ScrollBar::`RTTI Class Hierarchy Descriptor'
PUBLIC	??_R2C_ScrollBar@@8				; C_ScrollBar::`RTTI Base Class Array'
PUBLIC	??_R1A@?0A@EA@C_ScrollBar@@8			; C_ScrollBar::`RTTI Base Class Descriptor at (0,-1,0,64)'
PUBLIC	__real@3f800000
EXTRN	??_M@YGXPAXIHP6EX0@Z@Z:PROC			; `eh vector destructor iterator'
EXTRN	__purecall:PROC
EXTRN	??2@YAPAXI@Z:PROC				; operator new
EXTRN	??3@YAXPAX@Z:PROC				; operator delete
EXTRN	_atexit:PROC
EXTRN	_memcpy:PROC
EXTRN	_strlen:PROC
EXTRN	_memmove:PROC
EXTRN	_strnicmp:PROC
EXTRN	??_V@YAXPAX@Z:PROC				; operator delete[]
EXTRN	__imp__SysFreeString@4:PROC
EXTRN	?_Xbad_alloc@std@@YAXXZ:PROC			; std::_Xbad_alloc
EXTRN	?_Xlength_error@std@@YAXPBD@Z:PROC		; std::_Xlength_error
EXTRN	?_Xout_of_range@std@@YAXPBD@Z:PROC		; std::_Xout_of_range
EXTRN	??_Eerror_category@std@@UAEPAXI@Z:PROC		; std::error_category::`vector deleting destructor'
EXTRN	?_Syserror_map@std@@YAPBDH@Z:PROC		; std::_Syserror_map
EXTRN	?_Winerror_map@std@@YAPBDH@Z:PROC		; std::_Winerror_map
EXTRN	??_E_Generic_error_category@std@@UAEPAXI@Z:PROC	; std::_Generic_error_category::`vector deleting destructor'
EXTRN	??_E_Iostream_error_category@std@@UAEPAXI@Z:PROC ; std::_Iostream_error_category::`vector deleting destructor'
EXTRN	??_E_System_error_category@std@@UAEPAXI@Z:PROC	; std::_System_error_category::`vector deleting destructor'
EXTRN	??1C_Hash@@QAE@XZ:PROC				; C_Hash::~C_Hash
EXTRN	?Cleanup@C_Hash@@QAEXXZ:PROC			; C_Hash::Cleanup
EXTRN	?Blit@IMAGE_RSC@@QAEXPAVSCREEN@@JJJJJJ@Z:PROC	; IMAGE_RSC::Blit
EXTRN	?GetImage@C_Image@@QAEPAVIMAGE_RSC@@J@Z:PROC	; C_Image::GetImage
EXTRN	?PlaySoundA@C_Sound@@QAEHPAVSOUND_RES@@@Z:PROC	; C_Sound::PlaySoundA
EXTRN	?Draw@O_Output@@QAEXPAVSCREEN@@PAUUI95_RECT@@@Z:PROC ; O_Output::Draw
EXTRN	?Cleanup@O_Output@@QAEXXZ:PROC			; O_Output::Cleanup
EXTRN	?SetInfo@O_Output@@QAEXXZ:PROC			; O_Output::SetInfo
EXTRN	?SetImage@O_Output@@QAEXJ@Z:PROC		; O_Output::SetImage
EXTRN	?UI_Enter@@YAPAUF4CSECTIONHANDLE@@PAVC_Window@@@Z:PROC ; UI_Enter
EXTRN	?UI_Leave@@YAXPAUF4CSECTIONHANDLE@@@Z:PROC	; UI_Leave
EXTRN	??_EC_Base@@UAEPAXI@Z:PROC			; C_Base::`vector deleting destructor'
EXTRN	??0C_Control@@QAE@XZ:PROC			; C_Control::C_Control
EXTRN	??0C_Control@@QAE@PAPAD@Z:PROC			; C_Control::C_Control
EXTRN	??0C_Control@@QAE@PAU_iobuf@@@Z:PROC		; C_Control::C_Control
EXTRN	?MouseOver@C_Control@@UAEHJJPAVC_Base@@@Z:PROC	; C_Control::MouseOver
EXTRN	?SetSound@C_Control@@UAEXJF@Z:PROC		; C_Control::SetSound
EXTRN	?HighLite@C_Control@@UAEXPAVSCREEN@@PAUUI95_RECT@@@Z:PROC ; C_Control::HighLite
EXTRN	?GetSound@C_Control@@UAEPAVSOUND_RES@@F@Z:PROC	; C_Control::GetSound
EXTRN	??_EC_Control@@UAEPAXI@Z:PROC			; C_Control::`vector deleting destructor'
EXTRN	??0C_Button@@QAE@XZ:PROC			; C_Button::C_Button
EXTRN	?Setup@C_Button@@QAEXJFJJ@Z:PROC		; C_Button::Setup
EXTRN	?SetImage@C_Button@@QAEXFJ@Z:PROC		; C_Button::SetImage
EXTRN	??_EC_ScrollBar@@UAEPAXI@Z:PROC			; C_ScrollBar::`vector deleting destructor'
EXTRN	?SetUpdateRect@C_Window@@QAEXJJJJJJ@Z:PROC	; C_Window::SetUpdateRect
EXTRN	?ClipToArea@C_Window@@QAEHPAUUI95_RECT@@00@Z:PROC ; C_Window::ClipToArea
EXTRN	?RefreshClient@C_Window@@QAEXJ@Z:PROC		; C_Window::RefreshClient
EXTRN	?DrawHLine@C_Window@@QAEXPAVSCREEN@@KJJJJJPAUUI95_RECT@@@Z:PROC ; C_Window::DrawHLine
EXTRN	?DrawVLine@C_Window@@QAEXPAVSCREEN@@KJJJJJPAUUI95_RECT@@@Z:PROC ; C_Window::DrawVLine
EXTRN	@__security_check_cookie@4:PROC
EXTRN	__CxxThrowException@8:PROC
EXTRN	___CxxFrameHandler3:PROC
EXTRN	??_7type_info@@6B@:QWORD			; type_info::`vftable'
EXTRN	?gImageMgr@@3PAVC_Image@@A:DWORD		; gImageMgr
EXTRN	?gSoundMgr@@3PAVC_Sound@@A:DWORD		; gSoundMgr
EXTRN	___security_cookie:DWORD
EXTRN	__fltused:DWORD
_BSS	SEGMENT
_piecewise_construct DB 01H DUP (?)
_allocator_arg DB 01H DUP (?)
_BSS	ENDS
;	COMDAT ?_Generic_object@?$_Error_objects@H@std@@2V_Generic_error_category@2@A
_BSS	SEGMENT
?_Generic_object@?$_Error_objects@H@std@@2V_Generic_error_category@2@A DD 01H DUP (?) ; std::_Error_objects<int>::_Generic_object
_BSS	ENDS
;	COMDAT ?_Iostream_object@?$_Error_objects@H@std@@2V_Iostream_error_category@2@A
_BSS	SEGMENT
?_Iostream_object@?$_Error_objects@H@std@@2V_Iostream_error_category@2@A DD 01H DUP (?) ; std::_Error_objects<int>::_Iostream_object
_BSS	ENDS
;	COMDAT ?_System_object@?$_Error_objects@H@std@@2V_System_error_category@2@A
_BSS	SEGMENT
?_System_object@?$_Error_objects@H@std@@2V_System_error_category@2@A DD 01H DUP (?) ; std::_Error_objects<int>::_System_object
_BSS	ENDS
;	COMDAT ?id@?$num_put@DV?$back_insert_iterator@V?$basic_string@DU?$char_traits@D@std@@V?$allocator@D@2@@std@@@std@@@std@@2V0locale@2@A
_BSS	SEGMENT
?id@?$num_put@DV?$back_insert_iterator@V?$basic_string@DU?$char_traits@D@std@@V?$allocator@D@2@@std@@@std@@@std@@2V0locale@2@A DD 01H DUP (?) ; std::num_put<char,std::back_insert_iterator<std::basic_string<char,std::char_traits<char>,std::allocator<char> > > >::id
_BSS	ENDS
;	COMDAT ?id@?$num_put@_WV?$back_insert_iterator@V?$basic_string@_WU?$char_traits@_W@std@@V?$allocator@_W@2@@std@@@std@@@std@@2V0locale@2@A
_BSS	SEGMENT
?id@?$num_put@_WV?$back_insert_iterator@V?$basic_string@_WU?$char_traits@_W@std@@V?$allocator@_W@2@@std@@@std@@@std@@2V0locale@2@A DD 01H DUP (?) ; std::num_put<wchar_t,std::back_insert_iterator<std::basic_string<wchar_t,std::char_traits<wchar_t>,std::allocator<wchar_t> > > >::id
_BSS	ENDS
;	COMDAT ?id@?$numpunct@D@std@@2V0locale@2@A
_BSS	SEGMENT
?id@?$numpunct@D@std@@2V0locale@2@A DD 01H DUP (?)	; std::numpunct<char>::id
_BSS	ENDS
;	COMDAT ?id@?$numpunct@_W@std@@2V0locale@2@A
_BSS	SEGMENT
?id@?$numpunct@_W@std@@2V0locale@2@A DD 01H DUP (?)	; std::numpunct<wchar_t>::id
_BSS	ENDS
CRT$XCU	SEGMENT
_piecewise_construct$initializer$ DD FLAT:??__Epiecewise_construct@std@@YAXXZ
CRT$XCU	ENDS
;	COMDAT __real@3f800000
CONST	SEGMENT
__real@3f800000 DD 03f800000r			; 1
CONST	ENDS
;	COMDAT ??_R1A@?0A@EA@C_ScrollBar@@8
rdata$r	SEGMENT
??_R1A@?0A@EA@C_ScrollBar@@8 DD FLAT:??_R0?AVC_ScrollBar@@@8 ; C_ScrollBar::`RTTI Base Class Descriptor at (0,-1,0,64)'
	DD	02H
	DD	00H
	DD	0ffffffffH
	DD	00H
	DD	040H
	DD	FLAT:??_R3C_ScrollBar@@8
rdata$r	ENDS
;	COMDAT ??_R2C_ScrollBar@@8
rdata$r	SEGMENT
??_R2C_ScrollBar@@8 DD FLAT:??_R1A@?0A@EA@C_ScrollBar@@8 ; C_ScrollBar::`RTTI Base Class Array'
	DD	FLAT:??_R1A@?0A@EA@C_Control@@8
	DD	FLAT:??_R1A@?0A@EA@C_Base@@8
rdata$r	ENDS
;	COMDAT ??_R3C_ScrollBar@@8
rdata$r	SEGMENT
??_R3C_ScrollBar@@8 DD 00H				; C_ScrollBar::`RTTI Class Hierarchy Descriptor'
	DD	00H
	DD	03H
	DD	FLAT:??_R2C_ScrollBar@@8
rdata$r	ENDS
;	COMDAT ??_R0?AVC_ScrollBar@@@8
_DATA	SEGMENT
??_R0?AVC_ScrollBar@@@8 DD FLAT:??_7type_info@@6B@	; C_ScrollBar `RTTI Type Descriptor'
	DD	00H
	DB	'.?AVC_ScrollBar@@', 00H
_DATA	ENDS
;	COMDAT ??_R4C_ScrollBar@@6B@
rdata$r	SEGMENT
??_R4C_ScrollBar@@6B@ DD 00H				; C_ScrollBar::`RTTI Complete Object Locator'
	DD	00H
	DD	00H
	DD	FLAT:??_R0?AVC_ScrollBar@@@8
	DD	FLAT:??_R3C_ScrollBar@@8
rdata$r	ENDS
;	COMDAT ??_R1A@?0A@EA@C_Control@@8
rdata$r	SEGMENT
??_R1A@?0A@EA@C_Control@@8 DD FLAT:??_R0?AVC_Control@@@8 ; C_Control::`RTTI Base Class Descriptor at (0,-1,0,64)'
	DD	01H
	DD	00H
	DD	0ffffffffH
	DD	00H
	DD	040H
	DD	FLAT:??_R3C_Control@@8
rdata$r	ENDS
;	COMDAT ??_R2C_Control@@8
rdata$r	SEGMENT
??_R2C_Control@@8 DD FLAT:??_R1A@?0A@EA@C_Control@@8	; C_Control::`RTTI Base Class Array'
	DD	FLAT:??_R1A@?0A@EA@C_Base@@8
rdata$r	ENDS
;	COMDAT ??_R3C_Control@@8
rdata$r	SEGMENT
??_R3C_Control@@8 DD 00H				; C_Control::`RTTI Class Hierarchy Descriptor'
	DD	00H
	DD	02H
	DD	FLAT:??_R2C_Control@@8
rdata$r	ENDS
;	COMDAT ??_R0?AVC_Control@@@8
_DATA	SEGMENT
??_R0?AVC_Control@@@8 DD FLAT:??_7type_info@@6B@	; C_Control `RTTI Type Descriptor'
	DD	00H
	DB	'.?AVC_Control@@', 00H
_DATA	ENDS
;	COMDAT ??_R4C_Control@@6B@
rdata$r	SEGMENT
??_R4C_Control@@6B@ DD 00H				; C_Control::`RTTI Complete Object Locator'
	DD	00H
	DD	00H
	DD	FLAT:??_R0?AVC_Control@@@8
	DD	FLAT:??_R3C_Control@@8
rdata$r	ENDS
;	COMDAT ??_R1A@?0A@EA@C_Base@@8
rdata$r	SEGMENT
??_R1A@?0A@EA@C_Base@@8 DD FLAT:??_R0?AVC_Base@@@8	; C_Base::`RTTI Base Class Descriptor at (0,-1,0,64)'
	DD	00H
	DD	00H
	DD	0ffffffffH
	DD	00H
	DD	040H
	DD	FLAT:??_R3C_Base@@8
rdata$r	ENDS
;	COMDAT ??_R2C_Base@@8
rdata$r	SEGMENT
??_R2C_Base@@8 DD FLAT:??_R1A@?0A@EA@C_Base@@8		; C_Base::`RTTI Base Class Array'
rdata$r	ENDS
;	COMDAT ??_R3C_Base@@8
rdata$r	SEGMENT
??_R3C_Base@@8 DD 00H					; C_Base::`RTTI Class Hierarchy Descriptor'
	DD	00H
	DD	01H
	DD	FLAT:??_R2C_Base@@8
rdata$r	ENDS
;	COMDAT ??_R0?AVC_Base@@@8
_DATA	SEGMENT
??_R0?AVC_Base@@@8 DD FLAT:??_7type_info@@6B@		; C_Base `RTTI Type Descriptor'
	DD	00H
	DB	'.?AVC_Base@@', 00H
_DATA	ENDS
;	COMDAT ??_R4C_Base@@6B@
rdata$r	SEGMENT
??_R4C_Base@@6B@ DD 00H					; C_Base::`RTTI Complete Object Locator'
	DD	00H
	DD	00H
	DD	FLAT:??_R0?AVC_Base@@@8
	DD	FLAT:??_R3C_Base@@8
rdata$r	ENDS
;	COMDAT ??_R1A@?0A@EA@_System_error_category@std@@8
rdata$r	SEGMENT
??_R1A@?0A@EA@_System_error_category@std@@8 DD FLAT:??_R0?AV_System_error_category@std@@@8 ; std::_System_error_category::`RTTI Base Class Descriptor at (0,-1,0,64)'
	DD	02H
	DD	00H
	DD	0ffffffffH
	DD	00H
	DD	040H
	DD	FLAT:??_R3_System_error_category@std@@8
rdata$r	ENDS
;	COMDAT ??_R2_System_error_category@std@@8
rdata$r	SEGMENT
??_R2_System_error_category@std@@8 DD FLAT:??_R1A@?0A@EA@_System_error_category@std@@8 ; std::_System_error_category::`RTTI Base Class Array'
	DD	FLAT:??_R1A@?0A@EA@_Generic_error_category@std@@8
	DD	FLAT:??_R1A@?0A@EA@error_category@std@@8
rdata$r	ENDS
;	COMDAT ??_R3_System_error_category@std@@8
rdata$r	SEGMENT
??_R3_System_error_category@std@@8 DD 00H		; std::_System_error_category::`RTTI Class Hierarchy Descriptor'
	DD	00H
	DD	03H
	DD	FLAT:??_R2_System_error_category@std@@8
rdata$r	ENDS
;	COMDAT ??_R0?AV_System_error_category@std@@@8
_DATA	SEGMENT
??_R0?AV_System_error_category@std@@@8 DD FLAT:??_7type_info@@6B@ ; std::_System_error_category `RTTI Type Descriptor'
	DD	00H
	DB	'.?AV_System_error_category@std@@', 00H
_DATA	ENDS
;	COMDAT ??_R4_System_error_category@std@@6B@
rdata$r	SEGMENT
??_R4_System_error_category@std@@6B@ DD 00H		; std::_System_error_category::`RTTI Complete Object Locator'
	DD	00H
	DD	00H
	DD	FLAT:??_R0?AV_System_error_category@std@@@8
	DD	FLAT:??_R3_System_error_category@std@@8
rdata$r	ENDS
;	COMDAT ??_R1A@?0A@EA@_Iostream_error_category@std@@8
rdata$r	SEGMENT
??_R1A@?0A@EA@_Iostream_error_category@std@@8 DD FLAT:??_R0?AV_Iostream_error_category@std@@@8 ; std::_Iostream_error_category::`RTTI Base Class Descriptor at (0,-1,0,64)'
	DD	02H
	DD	00H
	DD	0ffffffffH
	DD	00H
	DD	040H
	DD	FLAT:??_R3_Iostream_error_category@std@@8
rdata$r	ENDS
;	COMDAT ??_R2_Iostream_error_category@std@@8
rdata$r	SEGMENT
??_R2_Iostream_error_category@std@@8 DD FLAT:??_R1A@?0A@EA@_Iostream_error_category@std@@8 ; std::_Iostream_error_category::`RTTI Base Class Array'
	DD	FLAT:??_R1A@?0A@EA@_Generic_error_category@std@@8
	DD	FLAT:??_R1A@?0A@EA@error_category@std@@8
rdata$r	ENDS
;	COMDAT ??_R3_Iostream_error_category@std@@8
rdata$r	SEGMENT
??_R3_Iostream_error_category@std@@8 DD 00H		; std::_Iostream_error_category::`RTTI Class Hierarchy Descriptor'
	DD	00H
	DD	03H
	DD	FLAT:??_R2_Iostream_error_category@std@@8
rdata$r	ENDS
;	COMDAT ??_R0?AV_Iostream_error_category@std@@@8
_DATA	SEGMENT
??_R0?AV_Iostream_error_category@std@@@8 DD FLAT:??_7type_info@@6B@ ; std::_Iostream_error_category `RTTI Type Descriptor'
	DD	00H
	DB	'.?AV_Iostream_error_category@std@@', 00H
_DATA	ENDS
;	COMDAT ??_R4_Iostream_error_category@std@@6B@
rdata$r	SEGMENT
??_R4_Iostream_error_category@std@@6B@ DD 00H		; std::_Iostream_error_category::`RTTI Complete Object Locator'
	DD	00H
	DD	00H
	DD	FLAT:??_R0?AV_Iostream_error_category@std@@@8
	DD	FLAT:??_R3_Iostream_error_category@std@@8
rdata$r	ENDS
;	COMDAT ??_R1A@?0A@EA@_Generic_error_category@std@@8
rdata$r	SEGMENT
??_R1A@?0A@EA@_Generic_error_category@std@@8 DD FLAT:??_R0?AV_Generic_error_category@std@@@8 ; std::_Generic_error_category::`RTTI Base Class Descriptor at (0,-1,0,64)'
	DD	01H
	DD	00H
	DD	0ffffffffH
	DD	00H
	DD	040H
	DD	FLAT:??_R3_Generic_error_category@std@@8
rdata$r	ENDS
;	COMDAT ??_R2_Generic_error_category@std@@8
rdata$r	SEGMENT
??_R2_Generic_error_category@std@@8 DD FLAT:??_R1A@?0A@EA@_Generic_error_category@std@@8 ; std::_Generic_error_category::`RTTI Base Class Array'
	DD	FLAT:??_R1A@?0A@EA@error_category@std@@8
rdata$r	ENDS
;	COMDAT ??_R3_Generic_error_category@std@@8
rdata$r	SEGMENT
??_R3_Generic_error_category@std@@8 DD 00H		; std::_Generic_error_category::`RTTI Class Hierarchy Descriptor'
	DD	00H
	DD	02H
	DD	FLAT:??_R2_Generic_error_category@std@@8
rdata$r	ENDS
;	COMDAT ??_R0?AV_Generic_error_category@std@@@8
_DATA	SEGMENT
??_R0?AV_Generic_error_category@std@@@8 DD FLAT:??_7type_info@@6B@ ; std::_Generic_error_category `RTTI Type Descriptor'
	DD	00H
	DB	'.?AV_Generic_error_category@std@@', 00H
_DATA	ENDS
;	COMDAT ??_R4_Generic_error_category@std@@6B@
rdata$r	SEGMENT
??_R4_Generic_error_category@std@@6B@ DD 00H		; std::_Generic_error_category::`RTTI Complete Object Locator'
	DD	00H
	DD	00H
	DD	FLAT:??_R0?AV_Generic_error_category@std@@@8
	DD	FLAT:??_R3_Generic_error_category@std@@8
rdata$r	ENDS
;	COMDAT ??_R1A@?0A@EA@error_category@std@@8
rdata$r	SEGMENT
??_R1A@?0A@EA@error_category@std@@8 DD FLAT:??_R0?AVerror_category@std@@@8 ; std::error_category::`RTTI Base Class Descriptor at (0,-1,0,64)'
	DD	00H
	DD	00H
	DD	0ffffffffH
	DD	00H
	DD	040H
	DD	FLAT:??_R3error_category@std@@8
rdata$r	ENDS
;	COMDAT ??_R2error_category@std@@8
rdata$r	SEGMENT
??_R2error_category@std@@8 DD FLAT:??_R1A@?0A@EA@error_category@std@@8 ; std::error_category::`RTTI Base Class Array'
rdata$r	ENDS
;	COMDAT ??_R3error_category@std@@8
rdata$r	SEGMENT
??_R3error_category@std@@8 DD 00H			; std::error_category::`RTTI Class Hierarchy Descriptor'
	DD	00H
	DD	01H
	DD	FLAT:??_R2error_category@std@@8
rdata$r	ENDS
;	COMDAT ??_R0?AVerror_category@std@@@8
_DATA	SEGMENT
??_R0?AVerror_category@std@@@8 DD FLAT:??_7type_info@@6B@ ; std::error_category `RTTI Type Descriptor'
	DD	00H
	DB	'.?AVerror_category@std@@', 00H
_DATA	ENDS
;	COMDAT ??_R4error_category@std@@6B@
rdata$r	SEGMENT
??_R4error_category@std@@6B@ DD 00H			; std::error_category::`RTTI Complete Object Locator'
	DD	00H
	DD	00H
	DD	FLAT:??_R0?AVerror_category@std@@@8
	DD	FLAT:??_R3error_category@std@@8
rdata$r	ENDS
;	COMDAT ??_C@_0BA@JFNIOLAK@string?5too?5long?$AA@
CONST	SEGMENT
??_C@_0BA@JFNIOLAK@string?5too?5long?$AA@ DB 'string too long', 00H ; `string'
CONST	ENDS
;	COMDAT ??_C@_0BI@CFPLBAOH@invalid?5string?5position?$AA@
CONST	SEGMENT
??_C@_0BI@CFPLBAOH@invalid?5string?5position?$AA@ DB 'invalid string posi'
	DB	'tion', 00H					; `string'
CONST	ENDS
;	COMDAT ??_7C_ScrollBar@@6B@
CONST	SEGMENT
??_7C_ScrollBar@@6B@ DD FLAT:??_R4C_ScrollBar@@6B@	; C_ScrollBar::`vftable'
	DD	FLAT:??_EC_ScrollBar@@UAEPAXI@Z
	DD	FLAT:?SetFlags@C_Base@@UAEXJ@Z
	DD	FLAT:?SetFlagBitOn@C_Base@@UAEXJ@Z
	DD	FLAT:?SetFlagBitOff@C_Base@@UAEXJ@Z
	DD	FLAT:?SetX@C_Base@@UAEXJ@Z
	DD	FLAT:?SetY@C_Base@@UAEXJ@Z
	DD	FLAT:?SetW@C_Base@@UAEXJ@Z
	DD	FLAT:?SetH@C_Base@@UAEXJ@Z
	DD	FLAT:?SetXY@C_Base@@UAEXJJ@Z
	DD	FLAT:?SetWH@C_Base@@UAEXJJ@Z
	DD	FLAT:?SetXYWH@C_Base@@UAEXJJJJ@Z
	DD	FLAT:?SetRelX@C_Control@@UAEXJ@Z
	DD	FLAT:?SetRelY@C_Control@@UAEXJ@Z
	DD	FLAT:?SetRelXY@C_Control@@UAEXJJ@Z
	DD	FLAT:?SetState@C_Base@@UAEXF@Z
	DD	FLAT:?SetHotKey@C_Control@@UAEXF@Z
	DD	FLAT:?SetMenu@C_Control@@UAEXJ@Z
	DD	FLAT:?SetFont@C_Base@@UAEXJ@Z
	DD	FLAT:?SetSound@C_Control@@UAEXJF@Z
	DD	FLAT:?SetCursorID@C_Control@@UAEXJ@Z
	DD	FLAT:?SetDragCursorID@C_Control@@UAEXJ@Z
	DD	FLAT:?SetHelpText@C_Control@@UAEXJ@Z
	DD	FLAT:?SetMouseOver@C_Control@@UAEXF@Z
	DD	FLAT:?SetMouseOverColor@C_Control@@UAEXK@Z
	DD	FLAT:?SetMouseOverPerc@C_Control@@UAEXF@Z
	DD	FLAT:?SetCallback@C_Control@@UAEXP6AXJFPAVC_Base@@@Z@Z
	DD	FLAT:?GetRelX@C_Control@@UAEJXZ
	DD	FLAT:?GetRelY@C_Control@@UAEJXZ
	DD	FLAT:?GetState@C_Base@@UAEFXZ
	DD	FLAT:?GetHotKey@C_Control@@UAEFXZ
	DD	FLAT:?GetMenu@C_Control@@UAEJXZ
	DD	FLAT:?GetFont@C_Base@@UAEJXZ
	DD	FLAT:?GetHelpText@C_Control@@UAEJXZ
	DD	FLAT:?GetSound@C_Control@@UAEPAVSOUND_RES@@F@Z
	DD	FLAT:?GetMouseOver@C_Control@@UAEFXZ
	DD	FLAT:?GetCursorID@C_Control@@UAEJXZ
	DD	FLAT:?GetDragCursorID@C_Control@@UAEJXZ
	DD	FLAT:?GetCallback@C_Control@@UAEP6AXJFPAVC_Base@@@ZXZ
	DD	FLAT:?IsBase@C_Control@@UAEHXZ
	DD	FLAT:?IsControl@C_Control@@UAEHXZ
	DD	FLAT:?Refresh@C_ScrollBar@@UAEXXZ
	DD	FLAT:?Draw@C_ScrollBar@@UAEXPAVSCREEN@@PAUUI95_RECT@@@Z
	DD	FLAT:?HighLite@C_Control@@UAEXPAVSCREEN@@PAUUI95_RECT@@@Z
	DD	FLAT:?SetSubParents@C_ScrollBar@@UAEXPAVC_Window@@@Z
	DD	FLAT:?Cleanup@C_ScrollBar@@UAEXXZ
	DD	FLAT:?TimerUpdate@C_Base@@UAEHXZ
	DD	FLAT:?Activate@C_Base@@UAEXXZ
	DD	FLAT:?Deactivate@C_Base@@UAEXXZ
	DD	FLAT:?CheckHotSpots@C_ScrollBar@@UAEJJJ@Z
	DD	FLAT:?CheckKeyboard@C_Base@@UAEHEEEJ@Z
	DD	FLAT:?Process@C_ScrollBar@@UAEHJF@Z
	DD	FLAT:?CloseWindow@C_Base@@UAEHXZ
	DD	FLAT:?MouseOver@C_Control@@UAEHJJPAVC_Base@@@Z
	DD	FLAT:?GetMe@C_Base@@UAEPAV1@XZ
	DD	FLAT:?Dragable@C_ScrollBar@@UAEHJ@Z
	DD	FLAT:?GetItemXY@C_ScrollBar@@UAEXJPAJ0@Z
	DD	FLAT:?Drag@C_ScrollBar@@UAEHPAUGRABBER@@GGPAVC_Window@@@Z
	DD	FLAT:?Drop@C_ScrollBar@@UAEHPAUGRABBER@@GGPAVC_Window@@@Z
	DD	FLAT:?Wheel@C_ScrollBar@@UAEHHGG@Z
	DD	FLAT:?LocalFind@C_ScrollBar@@UAEFPAD@Z
	DD	FLAT:?LocalFunction@C_ScrollBar@@UAEXFQAJPADPAVC_Handler@@@Z
	DD	FLAT:?SaveText@C_ScrollBar@@UAEXPAXPAVC_Parser@@@Z
CONST	ENDS
;	COMDAT ??_7C_Control@@6B@
CONST	SEGMENT
??_7C_Control@@6B@ DD FLAT:??_R4C_Control@@6B@		; C_Control::`vftable'
	DD	FLAT:??_EC_Control@@UAEPAXI@Z
	DD	FLAT:?SetFlags@C_Base@@UAEXJ@Z
	DD	FLAT:?SetFlagBitOn@C_Base@@UAEXJ@Z
	DD	FLAT:?SetFlagBitOff@C_Base@@UAEXJ@Z
	DD	FLAT:?SetX@C_Base@@UAEXJ@Z
	DD	FLAT:?SetY@C_Base@@UAEXJ@Z
	DD	FLAT:?SetW@C_Base@@UAEXJ@Z
	DD	FLAT:?SetH@C_Base@@UAEXJ@Z
	DD	FLAT:?SetXY@C_Base@@UAEXJJ@Z
	DD	FLAT:?SetWH@C_Base@@UAEXJJ@Z
	DD	FLAT:?SetXYWH@C_Base@@UAEXJJJJ@Z
	DD	FLAT:?SetRelX@C_Control@@UAEXJ@Z
	DD	FLAT:?SetRelY@C_Control@@UAEXJ@Z
	DD	FLAT:?SetRelXY@C_Control@@UAEXJJ@Z
	DD	FLAT:?SetState@C_Base@@UAEXF@Z
	DD	FLAT:?SetHotKey@C_Control@@UAEXF@Z
	DD	FLAT:?SetMenu@C_Control@@UAEXJ@Z
	DD	FLAT:?SetFont@C_Base@@UAEXJ@Z
	DD	FLAT:?SetSound@C_Control@@UAEXJF@Z
	DD	FLAT:?SetCursorID@C_Control@@UAEXJ@Z
	DD	FLAT:?SetDragCursorID@C_Control@@UAEXJ@Z
	DD	FLAT:?SetHelpText@C_Control@@UAEXJ@Z
	DD	FLAT:?SetMouseOver@C_Control@@UAEXF@Z
	DD	FLAT:?SetMouseOverColor@C_Control@@UAEXK@Z
	DD	FLAT:?SetMouseOverPerc@C_Control@@UAEXF@Z
	DD	FLAT:?SetCallback@C_Control@@UAEXP6AXJFPAVC_Base@@@Z@Z
	DD	FLAT:?GetRelX@C_Control@@UAEJXZ
	DD	FLAT:?GetRelY@C_Control@@UAEJXZ
	DD	FLAT:?GetState@C_Base@@UAEFXZ
	DD	FLAT:?GetHotKey@C_Control@@UAEFXZ
	DD	FLAT:?GetMenu@C_Control@@UAEJXZ
	DD	FLAT:?GetFont@C_Base@@UAEJXZ
	DD	FLAT:?GetHelpText@C_Control@@UAEJXZ
	DD	FLAT:?GetSound@C_Control@@UAEPAVSOUND_RES@@F@Z
	DD	FLAT:?GetMouseOver@C_Control@@UAEFXZ
	DD	FLAT:?GetCursorID@C_Control@@UAEJXZ
	DD	FLAT:?GetDragCursorID@C_Control@@UAEJXZ
	DD	FLAT:?GetCallback@C_Control@@UAEP6AXJFPAVC_Base@@@ZXZ
	DD	FLAT:?IsBase@C_Control@@UAEHXZ
	DD	FLAT:?IsControl@C_Control@@UAEHXZ
	DD	FLAT:?Refresh@C_Base@@UAEXXZ
	DD	FLAT:?Draw@C_Base@@UAEXPAVSCREEN@@PAUUI95_RECT@@@Z
	DD	FLAT:?HighLite@C_Control@@UAEXPAVSCREEN@@PAUUI95_RECT@@@Z
	DD	FLAT:?SetSubParents@C_Base@@UAEXPAVC_Window@@@Z
	DD	FLAT:?Cleanup@C_Base@@UAEXXZ
	DD	FLAT:?TimerUpdate@C_Base@@UAEHXZ
	DD	FLAT:?Activate@C_Base@@UAEXXZ
	DD	FLAT:?Deactivate@C_Base@@UAEXXZ
	DD	FLAT:?CheckHotSpots@C_Base@@UAEJJJ@Z
	DD	FLAT:?CheckKeyboard@C_Base@@UAEHEEEJ@Z
	DD	FLAT:?Process@C_Base@@UAEHJF@Z
	DD	FLAT:?CloseWindow@C_Base@@UAEHXZ
	DD	FLAT:?MouseOver@C_Control@@UAEHJJPAVC_Base@@@Z
	DD	FLAT:?GetMe@C_Base@@UAEPAV1@XZ
	DD	FLAT:?Dragable@C_Base@@UAEHJ@Z
	DD	FLAT:?GetItemXY@C_Base@@UAEXJPAJ0@Z
	DD	FLAT:?Drag@C_Base@@UAEHPAUGRABBER@@GGPAVC_Window@@@Z
	DD	FLAT:?Drop@C_Base@@UAEHPAUGRABBER@@GGPAVC_Window@@@Z
	DD	FLAT:?Wheel@C_Base@@UAEHHGG@Z
	DD	FLAT:?LocalFind@C_Base@@UAEFPAD@Z
	DD	FLAT:?LocalFunction@C_Base@@UAEXFQAJPADPAVC_Handler@@@Z
	DD	FLAT:?SaveText@C_Base@@UAEXPAXPAVC_Parser@@@Z
CONST	ENDS
;	COMDAT ??_7C_Base@@6B@
CONST	SEGMENT
??_7C_Base@@6B@ DD FLAT:??_R4C_Base@@6B@		; C_Base::`vftable'
	DD	FLAT:??_EC_Base@@UAEPAXI@Z
	DD	FLAT:?SetFlags@C_Base@@UAEXJ@Z
	DD	FLAT:?SetFlagBitOn@C_Base@@UAEXJ@Z
	DD	FLAT:?SetFlagBitOff@C_Base@@UAEXJ@Z
	DD	FLAT:?SetX@C_Base@@UAEXJ@Z
	DD	FLAT:?SetY@C_Base@@UAEXJ@Z
	DD	FLAT:?SetW@C_Base@@UAEXJ@Z
	DD	FLAT:?SetH@C_Base@@UAEXJ@Z
	DD	FLAT:?SetXY@C_Base@@UAEXJJ@Z
	DD	FLAT:?SetWH@C_Base@@UAEXJJ@Z
	DD	FLAT:?SetXYWH@C_Base@@UAEXJJJJ@Z
	DD	FLAT:?SetRelX@C_Base@@UAEXJ@Z
	DD	FLAT:?SetRelY@C_Base@@UAEXJ@Z
	DD	FLAT:?SetRelXY@C_Base@@UAEXJJ@Z
	DD	FLAT:?SetState@C_Base@@UAEXF@Z
	DD	FLAT:?SetHotKey@C_Base@@UAEXF@Z
	DD	FLAT:?SetMenu@C_Base@@UAEXJ@Z
	DD	FLAT:?SetFont@C_Base@@UAEXJ@Z
	DD	FLAT:?SetSound@C_Base@@UAEXJF@Z
	DD	FLAT:?SetCursorID@C_Base@@UAEXJ@Z
	DD	FLAT:?SetDragCursorID@C_Base@@UAEXJ@Z
	DD	FLAT:?SetHelpText@C_Base@@UAEXJ@Z
	DD	FLAT:?SetMouseOver@C_Base@@UAEXF@Z
	DD	FLAT:?SetMouseOverColor@C_Base@@UAEXK@Z
	DD	FLAT:?SetMouseOverPerc@C_Base@@UAEXF@Z
	DD	FLAT:?SetCallback@C_Base@@UAEXP6AXJFPAV1@@Z@Z
	DD	FLAT:?GetRelX@C_Base@@UAEJXZ
	DD	FLAT:?GetRelY@C_Base@@UAEJXZ
	DD	FLAT:?GetState@C_Base@@UAEFXZ
	DD	FLAT:?GetHotKey@C_Base@@UAEFXZ
	DD	FLAT:?GetMenu@C_Base@@UAEJXZ
	DD	FLAT:?GetFont@C_Base@@UAEJXZ
	DD	FLAT:?GetHelpText@C_Base@@UAEJXZ
	DD	FLAT:?GetSound@C_Base@@UAEPAVSOUND_RES@@F@Z
	DD	FLAT:?GetMouseOver@C_Base@@UAEFXZ
	DD	FLAT:?GetCursorID@C_Base@@UAEJXZ
	DD	FLAT:?GetDragCursorID@C_Base@@UAEJXZ
	DD	FLAT:?GetCallback@C_Base@@UAEP6AXJFPAV1@@ZXZ
	DD	FLAT:?IsBase@C_Base@@UAEHXZ
	DD	FLAT:?IsControl@C_Base@@UAEHXZ
	DD	FLAT:?Refresh@C_Base@@UAEXXZ
	DD	FLAT:?Draw@C_Base@@UAEXPAVSCREEN@@PAUUI95_RECT@@@Z
	DD	FLAT:?HighLite@C_Base@@UAEXPAVSCREEN@@PAUUI95_RECT@@@Z
	DD	FLAT:?SetSubParents@C_Base@@UAEXPAVC_Window@@@Z
	DD	FLAT:?Cleanup@C_Base@@UAEXXZ
	DD	FLAT:?TimerUpdate@C_Base@@UAEHXZ
	DD	FLAT:?Activate@C_Base@@UAEXXZ
	DD	FLAT:?Deactivate@C_Base@@UAEXXZ
	DD	FLAT:?CheckHotSpots@C_Base@@UAEJJJ@Z
	DD	FLAT:?CheckKeyboard@C_Base@@UAEHEEEJ@Z
	DD	FLAT:?Process@C_Base@@UAEHJF@Z
	DD	FLAT:?CloseWindow@C_Base@@UAEHXZ
	DD	FLAT:?MouseOver@C_Base@@UAEHJJPAV1@@Z
	DD	FLAT:?GetMe@C_Base@@UAEPAV1@XZ
	DD	FLAT:?Dragable@C_Base@@UAEHJ@Z
	DD	FLAT:?GetItemXY@C_Base@@UAEXJPAJ0@Z
	DD	FLAT:?Drag@C_Base@@UAEHPAUGRABBER@@GGPAVC_Window@@@Z
	DD	FLAT:?Drop@C_Base@@UAEHPAUGRABBER@@GGPAVC_Window@@@Z
	DD	FLAT:?Wheel@C_Base@@UAEHHGG@Z
	DD	FLAT:?LocalFind@C_Base@@UAEFPAD@Z
	DD	FLAT:?LocalFunction@C_Base@@UAEXFQAJPADPAVC_Handler@@@Z
	DD	FLAT:?SaveText@C_Base@@UAEXPAXPAVC_Parser@@@Z
CONST	ENDS
;	COMDAT ??_C@_06FHFOAHML@system?$AA@
CONST	SEGMENT
??_C@_06FHFOAHML@system?$AA@ DB 'system', 00H		; `string'
CONST	ENDS
;	COMDAT ??_7_System_error_category@std@@6B@
CONST	SEGMENT
??_7_System_error_category@std@@6B@ DD FLAT:??_R4_System_error_category@std@@6B@ ; std::_System_error_category::`vftable'
	DD	FLAT:??_E_System_error_category@std@@UAEPAXI@Z
	DD	FLAT:?name@_System_error_category@std@@UBEPBDXZ
	DD	FLAT:?message@_System_error_category@std@@UBE?AV?$basic_string@DU?$char_traits@D@std@@V?$allocator@D@2@@2@H@Z
	DD	FLAT:?default_error_condition@_System_error_category@std@@UBE?AVerror_condition@2@H@Z
	DD	FLAT:?equivalent@error_category@std@@UBE_NABVerror_code@2@H@Z
	DD	FLAT:?equivalent@error_category@std@@UBE_NHABVerror_condition@2@@Z
CONST	ENDS
;	COMDAT ??_C@_0BG@PADBLCHM@iostream?5stream?5error?$AA@
CONST	SEGMENT
??_C@_0BG@PADBLCHM@iostream?5stream?5error?$AA@ DB 'iostream stream error'
	DB	00H						; `string'
CONST	ENDS
;	COMDAT ??_C@_08LLGCOLLL@iostream?$AA@
CONST	SEGMENT
??_C@_08LLGCOLLL@iostream?$AA@ DB 'iostream', 00H	; `string'
CONST	ENDS
;	COMDAT ??_7_Iostream_error_category@std@@6B@
CONST	SEGMENT
??_7_Iostream_error_category@std@@6B@ DD FLAT:??_R4_Iostream_error_category@std@@6B@ ; std::_Iostream_error_category::`vftable'
	DD	FLAT:??_E_Iostream_error_category@std@@UAEPAXI@Z
	DD	FLAT:?name@_Iostream_error_category@std@@UBEPBDXZ
	DD	FLAT:?message@_Iostream_error_category@std@@UBE?AV?$basic_string@DU?$char_traits@D@std@@V?$allocator@D@2@@2@H@Z
	DD	FLAT:?default_error_condition@error_category@std@@UBE?AVerror_condition@2@H@Z
	DD	FLAT:?equivalent@error_category@std@@UBE_NABVerror_code@2@H@Z
	DD	FLAT:?equivalent@error_category@std@@UBE_NHABVerror_condition@2@@Z
CONST	ENDS
;	COMDAT ??_C@_0O@BFJCFAAK@unknown?5error?$AA@
CONST	SEGMENT
??_C@_0O@BFJCFAAK@unknown?5error?$AA@ DB 'unknown error', 00H ; `string'
CONST	ENDS
;	COMDAT ??_C@_07DCLBNMLN@generic?$AA@
CONST	SEGMENT
??_C@_07DCLBNMLN@generic?$AA@ DB 'generic', 00H		; `string'
CONST	ENDS
;	COMDAT ??_7_Generic_error_category@std@@6B@
CONST	SEGMENT
??_7_Generic_error_category@std@@6B@ DD FLAT:??_R4_Generic_error_category@std@@6B@ ; std::_Generic_error_category::`vftable'
	DD	FLAT:??_E_Generic_error_category@std@@UAEPAXI@Z
	DD	FLAT:?name@_Generic_error_category@std@@UBEPBDXZ
	DD	FLAT:?message@_Generic_error_category@std@@UBE?AV?$basic_string@DU?$char_traits@D@std@@V?$allocator@D@2@@2@H@Z
	DD	FLAT:?default_error_condition@error_category@std@@UBE?AVerror_condition@2@H@Z
	DD	FLAT:?equivalent@error_category@std@@UBE_NABVerror_code@2@H@Z
	DD	FLAT:?equivalent@error_category@std@@UBE_NHABVerror_condition@2@@Z
CONST	ENDS
;	COMDAT ??_7error_category@std@@6B@
CONST	SEGMENT
??_7error_category@std@@6B@ DD FLAT:??_R4error_category@std@@6B@ ; std::error_category::`vftable'
	DD	FLAT:??_Eerror_category@std@@UAEPAXI@Z
	DD	FLAT:__purecall
	DD	FLAT:__purecall
	DD	FLAT:?default_error_condition@error_category@std@@UBE?AVerror_condition@2@H@Z
	DD	FLAT:?equivalent@error_category@std@@UBE_NABVerror_code@2@H@Z
	DD	FLAT:?equivalent@error_category@std@@UBE_NHABVerror_condition@2@@Z
CONST	ENDS
;	COMDAT xdata$x
xdata$x	SEGMENT
__unwindtable$??$construct@PADAAPAD@?$allocator@D@std@@QAEXPAPADAAPAD@Z DD 0ffffffffH
	DD	FLAT:__unwindfunclet$??$construct@PADAAPAD@?$allocator@D@std@@QAEXPAPADAAPAD@Z$0
__ehfuncinfo$??$construct@PADAAPAD@?$allocator@D@std@@QAEXPAPADAAPAD@Z DD 019930522H
	DD	01H
	DD	FLAT:__unwindtable$??$construct@PADAAPAD@?$allocator@D@std@@QAEXPAPADAAPAD@Z
	DD	2 DUP(00H)
	DD	2 DUP(00H)
	DD	00H
	DD	01H
xdata$x	ENDS
xdata$x	SEGMENT
__unwindtable$?SetBgImage@C_ScrollBar@@QAEXJ@Z DD 0ffffffffH
	DD	FLAT:__unwindfunclet$?SetBgImage@C_ScrollBar@@QAEXJ@Z$0
__unwindtable$??0C_ScrollBar@@QAE@XZ DD 0ffffffffH
	DD	FLAT:__unwindfunclet$??0C_ScrollBar@@QAE@XZ$0
__unwindtable$?SetButtonImages@C_ScrollBar@@QAEXJJJJ@Z DD 0ffffffffH
	DD	FLAT:__unwindfunclet$?SetButtonImages@C_ScrollBar@@QAEXJJJJ@Z$0
	DD	0ffffffffH
	DD	FLAT:__unwindfunclet$?SetButtonImages@C_ScrollBar@@QAEXJJJJ@Z$1
__ehfuncinfo$?SetButtonImages@C_ScrollBar@@QAEXJJJJ@Z DD 019930522H
	DD	02H
	DD	FLAT:__unwindtable$?SetButtonImages@C_ScrollBar@@QAEXJJJJ@Z
	DD	2 DUP(00H)
	DD	2 DUP(00H)
	DD	00H
	DD	01H
__ehfuncinfo$?SetBgImage@C_ScrollBar@@QAEXJ@Z DD 019930522H
	DD	01H
	DD	FLAT:__unwindtable$?SetBgImage@C_ScrollBar@@QAEXJ@Z
	DD	2 DUP(00H)
	DD	2 DUP(00H)
	DD	00H
	DD	01H
__ehfuncinfo$??0C_ScrollBar@@QAE@XZ DD 019930522H
	DD	01H
	DD	FLAT:__unwindtable$??0C_ScrollBar@@QAE@XZ
	DD	2 DUP(00H)
	DD	2 DUP(00H)
	DD	00H
	DD	01H
xdata$x	ENDS
;	COMDAT xdata$x
xdata$x	SEGMENT
__unwindtable$??1C_Control@@UAE@XZ DD 0ffffffffH
	DD	FLAT:__unwindfunclet$??1C_Control@@UAE@XZ$0
__ehfuncinfo$??1C_Control@@UAE@XZ DD 019930522H
	DD	01H
	DD	FLAT:__unwindtable$??1C_Control@@UAE@XZ
	DD	2 DUP(00H)
	DD	2 DUP(00H)
	DD	00H
	DD	01H
xdata$x	ENDS
;	COMDAT xdata$x
xdata$x	SEGMENT
__catchsym$?_Copy@?$basic_string@DU?$char_traits@D@std@@V?$allocator@D@2@@std@@QAEXII@Z$5 DD 040H
	DD	00H
	DD	00H
	DD	FLAT:__catch$?_Copy@?$basic_string@DU?$char_traits@D@std@@V?$allocator@D@2@@std@@QAEXII@Z$0
__catchsym$?_Copy@?$basic_string@DU?$char_traits@D@std@@V?$allocator@D@2@@std@@QAEXII@Z$4 DD 040H
	DD	00H
	DD	00H
	DD	FLAT:__catch$?_Copy@?$basic_string@DU?$char_traits@D@std@@V?$allocator@D@2@@std@@QAEXII@Z$1
__unwindtable$?_Copy@?$basic_string@DU?$char_traits@D@std@@V?$allocator@D@2@@std@@QAEXII@Z DD 0ffffffffH
	DD	00H
	DD	0ffffffffH
	DD	00H
	DD	01H
	DD	00H
	DD	01H
	DD	00H
__ehfuncinfo$?_Copy@?$basic_string@DU?$char_traits@D@std@@V?$allocator@D@2@@std@@QAEXII@Z DD 019930522H
	DD	04H
	DD	FLAT:__unwindtable$?_Copy@?$basic_string@DU?$char_traits@D@std@@V?$allocator@D@2@@std@@QAEXII@Z
	DD	02H
	DD	FLAT:__tryblocktable$?_Copy@?$basic_string@DU?$char_traits@D@std@@V?$allocator@D@2@@std@@QAEXII@Z
	DD	2 DUP(00H)
	DD	00H
	DD	01H
__tryblocktable$?_Copy@?$basic_string@DU?$char_traits@D@std@@V?$allocator@D@2@@std@@QAEXII@Z DD 02H
	DD	02H
	DD	03H
	DD	01H
	DD	FLAT:__catchsym$?_Copy@?$basic_string@DU?$char_traits@D@std@@V?$allocator@D@2@@std@@QAEXII@Z$4
	DD	00H
	DD	00H
	DD	03H
	DD	01H
	DD	FLAT:__catchsym$?_Copy@?$basic_string@DU?$char_traits@D@std@@V?$allocator@D@2@@std@@QAEXII@Z$5
xdata$x	ENDS
CRT$XCU	SEGMENT
_allocator_arg$initializer$ DD FLAT:??__Eallocator_arg@std@@YAXXZ
CRT$XCU	ENDS
;	COMDAT CRT$XCU
CRT$XCU	SEGMENT
?_Generic_object$initializer$@?$_Error_objects@H@std@@2P6AXXZA DD FLAT:??__E?_Generic_object@?$_Error_objects@H@std@@2V_Generic_error_category@2@A@@YAXXZ ; std::_Error_objects<int>::_Generic_object$initializer$
CRT$XCU	ENDS
;	COMDAT CRT$XCU
CRT$XCU	SEGMENT
?_Iostream_object$initializer$@?$_Error_objects@H@std@@2P6AXXZA DD FLAT:??__E?_Iostream_object@?$_Error_objects@H@std@@2V_Iostream_error_category@2@A@@YAXXZ ; std::_Error_objects<int>::_Iostream_object$initializer$
CRT$XCU	ENDS
;	COMDAT CRT$XCU
CRT$XCU	SEGMENT
?_System_object$initializer$@?$_Error_objects@H@std@@2P6AXXZA DD FLAT:??__E?_System_object@?$_Error_objects@H@std@@2V_System_error_category@2@A@@YAXXZ ; std::_Error_objects<int>::_System_object$initializer$
CRT$XCU	ENDS
;	COMDAT CRT$XCU
CRT$XCU	SEGMENT
?id$initializer$@?$num_put@DV?$back_insert_iterator@V?$basic_string@DU?$char_traits@D@std@@V?$allocator@D@2@@std@@@std@@@std@@2P6AXXZA DD FLAT:??__E?id@?$num_put@DV?$back_insert_iterator@V?$basic_string@DU?$char_traits@D@std@@V?$allocator@D@2@@std@@@std@@@std@@2V0locale@2@A@@YAXXZ ; std::num_put<char,std::back_insert_iterator<std::basic_string<char,std::char_traits<char>,std::allocator<char> > > >::id$initializer$
CRT$XCU	ENDS
;	COMDAT CRT$XCU
CRT$XCU	SEGMENT
?id$initializer$@?$num_put@_WV?$back_insert_iterator@V?$basic_string@_WU?$char_traits@_W@std@@V?$allocator@_W@2@@std@@@std@@@std@@2P6AXXZA DD FLAT:??__E?id@?$num_put@_WV?$back_insert_iterator@V?$basic_string@_WU?$char_traits@_W@std@@V?$allocator@_W@2@@std@@@std@@@std@@2V0locale@2@A@@YAXXZ ; std::num_put<wchar_t,std::back_insert_iterator<std::basic_string<wchar_t,std::char_traits<wchar_t>,std::allocator<wchar_t> > > >::id$initializer$
CRT$XCU	ENDS
;	COMDAT CRT$XCU
CRT$XCU	SEGMENT
?id$initializer$@?$numpunct@D@std@@2P6AXXZA DD FLAT:??__E?id@?$numpunct@D@std@@2V0locale@2@A@@YAXXZ ; std::numpunct<char>::id$initializer$
CRT$XCU	ENDS
;	COMDAT CRT$XCU
CRT$XCU	SEGMENT
?id$initializer$@?$numpunct@_W@std@@2P6AXXZA DD FLAT:??__E?id@?$numpunct@_W@std@@2V0locale@2@A@@YAXXZ ; std::numpunct<wchar_t>::id$initializer$
CRT$XCU	ENDS
; Function compile flags: /Odtp
; File c:\program files (x86)\microsoft visual studio 11.0\vc\include\xmemory0
;	COMDAT ??$destroy@PAD@?$allocator@D@std@@QAEXPAPAD@Z
_TEXT	SEGMENT
_this$ = -4						; size = 4
__Ptr$ = 8						; size = 4
??$destroy@PAD@?$allocator@D@std@@QAEXPAPAD@Z PROC	; std::allocator<char>::destroy<char *>, COMDAT
; _this$ = ecx

; 621  : 		void destroy(_Uty *_Ptr)

	push	ebp
	mov	ebp, esp
	push	ecx
	mov	DWORD PTR _this$[ebp], ecx

; 622  : 		{	// destroy object at _Ptr
; 623  : 		_Ptr->~_Uty();
; 624  : 		}

	mov	esp, ebp
	pop	ebp
	ret	4
??$destroy@PAD@?$allocator@D@std@@QAEXPAPAD@Z ENDP	; std::allocator<char>::destroy<char *>
_TEXT	ENDS
; Function compile flags: /Odtp
; File c:\program files (x86)\microsoft visual studio 11.0\vc\include\xmemory0
;	COMDAT ??$construct@PADAAPAD@?$allocator@D@std@@QAEXPAPADAAPAD@Z
_TEXT	SEGMENT
$T2 = -28						; size = 4
_this$ = -24						; size = 4
tv73 = -20						; size = 4
$T3 = -16						; size = 4
__$EHRec$ = -12						; size = 12
__Ptr$ = 8						; size = 4
__V0$ = 12						; size = 4
??$construct@PADAAPAD@?$allocator@D@std@@QAEXPAPADAAPAD@Z PROC ; std::allocator<char>::construct<char *,char * &>, COMDAT
; _this$ = ecx

; 617  : _VARIADIC_EXPAND_0X(_ALLOC_MEMBER_CONSTRUCT, , , , )

	push	ebp
	mov	ebp, esp
	push	-1
	push	__ehhandler$??$construct@PADAAPAD@?$allocator@D@std@@QAEXPAPADAAPAD@Z
	mov	eax, DWORD PTR fs:0
	push	eax
	sub	esp, 16					; 00000010H
	mov	eax, DWORD PTR ___security_cookie
	xor	eax, ebp
	push	eax
	lea	eax, DWORD PTR __$EHRec$[ebp]
	mov	DWORD PTR fs:0, eax
	mov	DWORD PTR _this$[ebp], ecx
	mov	eax, DWORD PTR __Ptr$[ebp]
	push	eax
	push	4
	call	??2@YAPAXIPAX@Z				; operator new
	add	esp, 8
	mov	DWORD PTR $T3[ebp], eax
	mov	DWORD PTR __$EHRec$[ebp+8], 0
	cmp	DWORD PTR $T3[ebp], 0
	je	SHORT $LN3@construct
	mov	ecx, DWORD PTR __V0$[ebp]
	push	ecx
	call	??$forward@AAPAD@std@@YAAAPADAAPAD@Z	; std::forward<char * &>
	add	esp, 4
	mov	edx, DWORD PTR $T3[ebp]
	mov	eax, DWORD PTR [eax]
	mov	DWORD PTR [edx], eax
	mov	ecx, DWORD PTR $T3[ebp]
	mov	DWORD PTR tv73[ebp], ecx
	jmp	SHORT $LN4@construct
$LN3@construct:
	mov	DWORD PTR tv73[ebp], 0
$LN4@construct:
	mov	edx, DWORD PTR tv73[ebp]
	mov	DWORD PTR $T2[ebp], edx
	mov	DWORD PTR __$EHRec$[ebp+8], -1
	mov	ecx, DWORD PTR __$EHRec$[ebp]
	mov	DWORD PTR fs:0, ecx
	pop	ecx
	mov	esp, ebp
	pop	ebp
	ret	8
_TEXT	ENDS
;	COMDAT text$x
text$x	SEGMENT
__unwindfunclet$??$construct@PADAAPAD@?$allocator@D@std@@QAEXPAPADAAPAD@Z$0:
	mov	eax, DWORD PTR __Ptr$[ebp]
	push	eax
	mov	eax, DWORD PTR $T3[ebp]
	push	eax
	call	??3@YAXPAX0@Z				; operator delete
	add	esp, 8
	ret	0
__ehhandler$??$construct@PADAAPAD@?$allocator@D@std@@QAEXPAPADAAPAD@Z:
	mov	edx, DWORD PTR [esp+8]
	lea	eax, DWORD PTR [edx+12]
	mov	ecx, DWORD PTR [edx-20]
	xor	ecx, eax
	call	@__security_check_cookie@4
	mov	eax, OFFSET __ehfuncinfo$??$construct@PADAAPAD@?$allocator@D@std@@QAEXPAPADAAPAD@Z
	jmp	___CxxFrameHandler3
text$x	ENDS
??$construct@PADAAPAD@?$allocator@D@std@@QAEXPAPADAAPAD@Z ENDP ; std::allocator<char>::construct<char *,char * &>
; Function compile flags: /Odtp
; File c:\program files (x86)\microsoft visual studio 11.0\vc\include\xlocnum
;	COMDAT ??__E?id@?$numpunct@_W@std@@2V0locale@2@A@@YAXXZ
text$yc	SEGMENT
??__E?id@?$numpunct@_W@std@@2V0locale@2@A@@YAXXZ PROC	; `dynamic initializer for 'std::numpunct<wchar_t>::id'', COMDAT

; 155  : 		void _Getvals(wchar_t, const lconv *_Ptr, _Locinfo::_Cvtvec)

	push	ebp
	mov	ebp, esp
	push	0
	mov	ecx, OFFSET ?id@?$numpunct@_W@std@@2V0locale@2@A ; std::numpunct<wchar_t>::id
	call	??0id@locale@std@@QAE@I@Z		; std::locale::id::id
	pop	ebp
	ret	0
??__E?id@?$numpunct@_W@std@@2V0locale@2@A@@YAXXZ ENDP	; `dynamic initializer for 'std::numpunct<wchar_t>::id''
text$yc	ENDS
; Function compile flags: /Odtp
; File c:\program files (x86)\microsoft visual studio 11.0\vc\include\xlocnum
;	COMDAT ??__E?id@?$numpunct@D@std@@2V0locale@2@A@@YAXXZ
text$yc	SEGMENT
??__E?id@?$numpunct@D@std@@2V0locale@2@A@@YAXXZ PROC	; `dynamic initializer for 'std::numpunct<char>::id'', COMDAT

; 155  : 		void _Getvals(wchar_t, const lconv *_Ptr, _Locinfo::_Cvtvec)

	push	ebp
	mov	ebp, esp
	push	0
	mov	ecx, OFFSET ?id@?$numpunct@D@std@@2V0locale@2@A ; std::numpunct<char>::id
	call	??0id@locale@std@@QAE@I@Z		; std::locale::id::id
	pop	ebp
	ret	0
??__E?id@?$numpunct@D@std@@2V0locale@2@A@@YAXXZ ENDP	; `dynamic initializer for 'std::numpunct<char>::id''
text$yc	ENDS
; Function compile flags: /Odtp
; File c:\program files (x86)\microsoft visual studio 11.0\vc\include\xlocnum
;	COMDAT ??__E?id@?$num_put@_WV?$back_insert_iterator@V?$basic_string@_WU?$char_traits@_W@std@@V?$allocator@_W@2@@std@@@std@@@std@@2V0locale@2@A@@YAXXZ
text$yc	SEGMENT
??__E?id@?$num_put@_WV?$back_insert_iterator@V?$basic_string@_WU?$char_traits@_W@std@@V?$allocator@_W@2@@std@@@std@@@std@@2V0locale@2@A@@YAXXZ PROC ; `dynamic initializer for 'std::num_put<wchar_t,std::back_insert_iterator<std::basic_string<wchar_t,std::char_traits<wchar_t>,std::allocator<wchar_t> > > >::id'', COMDAT

; 155  : 		void _Getvals(wchar_t, const lconv *_Ptr, _Locinfo::_Cvtvec)

	push	ebp
	mov	ebp, esp
	push	0
	mov	ecx, OFFSET ?id@?$num_put@_WV?$back_insert_iterator@V?$basic_string@_WU?$char_traits@_W@std@@V?$allocator@_W@2@@std@@@std@@@std@@2V0locale@2@A ; std::num_put<wchar_t,std::back_insert_iterator<std::basic_string<wchar_t,std::char_traits<wchar_t>,std::allocator<wchar_t> > > >::id
	call	??0id@locale@std@@QAE@I@Z		; std::locale::id::id
	pop	ebp
	ret	0
??__E?id@?$num_put@_WV?$back_insert_iterator@V?$basic_string@_WU?$char_traits@_W@std@@V?$allocator@_W@2@@std@@@std@@@std@@2V0locale@2@A@@YAXXZ ENDP ; `dynamic initializer for 'std::num_put<wchar_t,std::back_insert_iterator<std::basic_string<wchar_t,std::char_traits<wchar_t>,std::allocator<wchar_t> > > >::id''
text$yc	ENDS
; Function compile flags: /Odtp
; File c:\program files (x86)\microsoft visual studio 11.0\vc\include\xlocnum
;	COMDAT ??__E?id@?$num_put@DV?$back_insert_iterator@V?$basic_string@DU?$char_traits@D@std@@V?$allocator@D@2@@std@@@std@@@std@@2V0locale@2@A@@YAXXZ
text$yc	SEGMENT
??__E?id@?$num_put@DV?$back_insert_iterator@V?$basic_string@DU?$char_traits@D@std@@V?$allocator@D@2@@std@@@std@@@std@@2V0locale@2@A@@YAXXZ PROC ; `dynamic initializer for 'std::num_put<char,std::back_insert_iterator<std::basic_string<char,std::char_traits<char>,std::allocator<char> > > >::id'', COMDAT

; 155  : 		void _Getvals(wchar_t, const lconv *_Ptr, _Locinfo::_Cvtvec)

	push	ebp
	mov	ebp, esp
	push	0
	mov	ecx, OFFSET ?id@?$num_put@DV?$back_insert_iterator@V?$basic_string@DU?$char_traits@D@std@@V?$allocator@D@2@@std@@@std@@@std@@2V0locale@2@A ; std::num_put<char,std::back_insert_iterator<std::basic_string<char,std::char_traits<char>,std::allocator<char> > > >::id
	call	??0id@locale@std@@QAE@I@Z		; std::locale::id::id
	pop	ebp
	ret	0
??__E?id@?$num_put@DV?$back_insert_iterator@V?$basic_string@DU?$char_traits@D@std@@V?$allocator@D@2@@std@@@std@@@std@@2V0locale@2@A@@YAXXZ ENDP ; `dynamic initializer for 'std::num_put<char,std::back_insert_iterator<std::basic_string<char,std::char_traits<char>,std::allocator<char> > > >::id''
text$yc	ENDS
; Function compile flags: /Odtp
; File c:\program files (x86)\microsoft visual studio 11.0\vc\include\xmemory0
;	COMDAT ??$destroy@PAD@?$allocator_traits@V?$allocator@D@std@@@std@@SAXAAV?$allocator@D@1@PAPAD@Z
_TEXT	SEGMENT
__Al$ = 8						; size = 4
__Ptr$ = 12						; size = 4
??$destroy@PAD@?$allocator_traits@V?$allocator@D@std@@@std@@SAXAAV?$allocator@D@1@PAPAD@Z PROC ; std::allocator_traits<std::allocator<char> >::destroy<char *>, COMDAT

; 755  : 		static void destroy(_Alloc& _Al, _Uty *_Ptr)

	push	ebp
	mov	ebp, esp

; 756  : 		{	// destroy object at _Ptr
; 757  : 		_Al.destroy(_Ptr);

	mov	eax, DWORD PTR __Ptr$[ebp]
	push	eax
	mov	ecx, DWORD PTR __Al$[ebp]
	call	??$destroy@PAD@?$allocator@D@std@@QAEXPAPAD@Z ; std::allocator<char>::destroy<char *>

; 758  : 		}

	pop	ebp
	ret	0
??$destroy@PAD@?$allocator_traits@V?$allocator@D@std@@@std@@SAXAAV?$allocator@D@1@PAPAD@Z ENDP ; std::allocator_traits<std::allocator<char> >::destroy<char *>
_TEXT	ENDS
; Function compile flags: /Odtp
; File c:\program files (x86)\microsoft visual studio 11.0\vc\include\xmemory0
;	COMDAT ??$construct@PADAAPAD@?$allocator_traits@V?$allocator@D@std@@@std@@SAXAAV?$allocator@D@1@PAPADAAPAD@Z
_TEXT	SEGMENT
__Al$ = 8						; size = 4
__Ptr$ = 12						; size = 4
__V0$ = 16						; size = 4
??$construct@PADAAPAD@?$allocator_traits@V?$allocator@D@std@@@std@@SAXAAV?$allocator@D@1@PAPADAAPAD@Z PROC ; std::allocator_traits<std::allocator<char> >::construct<char *,char * &>, COMDAT

; 751  : _VARIADIC_EXPAND_0X(_ALLOC_TRAITS_SPECIAL_CONSTRUCT, , , , )

	push	ebp
	mov	ebp, esp
	mov	eax, DWORD PTR __V0$[ebp]
	push	eax
	call	??$forward@AAPAD@std@@YAAAPADAAPAD@Z	; std::forward<char * &>
	add	esp, 4
	push	eax
	mov	ecx, DWORD PTR __Ptr$[ebp]
	push	ecx
	mov	ecx, DWORD PTR __Al$[ebp]
	call	??$construct@PADAAPAD@?$allocator@D@std@@QAEXPAPADAAPAD@Z ; std::allocator<char>::construct<char *,char * &>
	pop	ebp
	ret	0
??$construct@PADAAPAD@?$allocator_traits@V?$allocator@D@std@@@std@@SAXAAV?$allocator@D@1@PAPADAAPAD@Z ENDP ; std::allocator_traits<std::allocator<char> >::construct<char *,char * &>
_TEXT	ENDS
; Function compile flags: /Odtp
; File c:\program files (x86)\microsoft visual studio 11.0\vc\include\type_traits
;	COMDAT ??$forward@AAPAD@std@@YAAAPADAAPAD@Z
_TEXT	SEGMENT
__Arg$ = 8						; size = 4
??$forward@AAPAD@std@@YAAAPADAAPAD@Z PROC		; std::forward<char * &>, COMDAT

; 1775 : 	{	// forward an lvalue

	push	ebp
	mov	ebp, esp

; 1776 : 	return (static_cast<_Ty&&>(_Arg));

	mov	eax, DWORD PTR __Arg$[ebp]

; 1777 : 	}

	pop	ebp
	ret	0
??$forward@AAPAD@std@@YAAAPADAAPAD@Z ENDP		; std::forward<char * &>
_TEXT	ENDS
; Function compile flags: /Odtp
;	COMDAT ??__F?_System_object@?$_Error_objects@H@std@@2V_System_error_category@2@A@@YAXXZ
text$yd	SEGMENT
??__F?_System_object@?$_Error_objects@H@std@@2V_System_error_category@2@A@@YAXXZ PROC ; `dynamic atexit destructor for 'std::_Error_objects<int>::_System_object'', COMDAT
	push	ebp
	mov	ebp, esp
	mov	ecx, OFFSET ?_System_object@?$_Error_objects@H@std@@2V_System_error_category@2@A ; std::_Error_objects<int>::_System_object
	call	??1_System_error_category@std@@UAE@XZ
	pop	ebp
	ret	0
??__F?_System_object@?$_Error_objects@H@std@@2V_System_error_category@2@A@@YAXXZ ENDP ; `dynamic atexit destructor for 'std::_Error_objects<int>::_System_object''
text$yd	ENDS
; Function compile flags: /Odtp
; File c:\program files (x86)\microsoft visual studio 11.0\vc\include\xmemory0
;	COMDAT ??__E?_System_object@?$_Error_objects@H@std@@2V_System_error_category@2@A@@YAXXZ
text$yc	SEGMENT
??__E?_System_object@?$_Error_objects@H@std@@2V_System_error_category@2@A@@YAXXZ PROC ; `dynamic initializer for 'std::_Error_objects<int>::_System_object'', COMDAT

; 627  : 		{	// estimate maximum array size

	push	ebp
	mov	ebp, esp
	mov	ecx, OFFSET ?_System_object@?$_Error_objects@H@std@@2V_System_error_category@2@A ; std::_Error_objects<int>::_System_object
	call	??0_System_error_category@std@@QAE@XZ	; std::_System_error_category::_System_error_category
	push	OFFSET ??__F?_System_object@?$_Error_objects@H@std@@2V_System_error_category@2@A@@YAXXZ ; `dynamic atexit destructor for 'std::_Error_objects<int>::_System_object''
	call	_atexit
	add	esp, 4
	pop	ebp
	ret	0
??__E?_System_object@?$_Error_objects@H@std@@2V_System_error_category@2@A@@YAXXZ ENDP ; `dynamic initializer for 'std::_Error_objects<int>::_System_object''
text$yc	ENDS
; Function compile flags: /Odtp
;	COMDAT ??__F?_Iostream_object@?$_Error_objects@H@std@@2V_Iostream_error_category@2@A@@YAXXZ
text$yd	SEGMENT
??__F?_Iostream_object@?$_Error_objects@H@std@@2V_Iostream_error_category@2@A@@YAXXZ PROC ; `dynamic atexit destructor for 'std::_Error_objects<int>::_Iostream_object'', COMDAT
	push	ebp
	mov	ebp, esp
	mov	ecx, OFFSET ?_Iostream_object@?$_Error_objects@H@std@@2V_Iostream_error_category@2@A ; std::_Error_objects<int>::_Iostream_object
	call	??1_Iostream_error_category@std@@UAE@XZ
	pop	ebp
	ret	0
??__F?_Iostream_object@?$_Error_objects@H@std@@2V_Iostream_error_category@2@A@@YAXXZ ENDP ; `dynamic atexit destructor for 'std::_Error_objects<int>::_Iostream_object''
text$yd	ENDS
; Function compile flags: /Odtp
; File c:\program files (x86)\microsoft visual studio 11.0\vc\include\xmemory0
;	COMDAT ??__E?_Iostream_object@?$_Error_objects@H@std@@2V_Iostream_error_category@2@A@@YAXXZ
text$yc	SEGMENT
??__E?_Iostream_object@?$_Error_objects@H@std@@2V_Iostream_error_category@2@A@@YAXXZ PROC ; `dynamic initializer for 'std::_Error_objects<int>::_Iostream_object'', COMDAT

; 627  : 		{	// estimate maximum array size

	push	ebp
	mov	ebp, esp
	mov	ecx, OFFSET ?_Iostream_object@?$_Error_objects@H@std@@2V_Iostream_error_category@2@A ; std::_Error_objects<int>::_Iostream_object
	call	??0_Iostream_error_category@std@@QAE@XZ	; std::_Iostream_error_category::_Iostream_error_category
	push	OFFSET ??__F?_Iostream_object@?$_Error_objects@H@std@@2V_Iostream_error_category@2@A@@YAXXZ ; `dynamic atexit destructor for 'std::_Error_objects<int>::_Iostream_object''
	call	_atexit
	add	esp, 4
	pop	ebp
	ret	0
??__E?_Iostream_object@?$_Error_objects@H@std@@2V_Iostream_error_category@2@A@@YAXXZ ENDP ; `dynamic initializer for 'std::_Error_objects<int>::_Iostream_object''
text$yc	ENDS
; Function compile flags: /Odtp
;	COMDAT ??__F?_Generic_object@?$_Error_objects@H@std@@2V_Generic_error_category@2@A@@YAXXZ
text$yd	SEGMENT
??__F?_Generic_object@?$_Error_objects@H@std@@2V_Generic_error_category@2@A@@YAXXZ PROC ; `dynamic atexit destructor for 'std::_Error_objects<int>::_Generic_object'', COMDAT
	push	ebp
	mov	ebp, esp
	mov	ecx, OFFSET ?_Generic_object@?$_Error_objects@H@std@@2V_Generic_error_category@2@A ; std::_Error_objects<int>::_Generic_object
	call	??1_Generic_error_category@std@@UAE@XZ
	pop	ebp
	ret	0
??__F?_Generic_object@?$_Error_objects@H@std@@2V_Generic_error_category@2@A@@YAXXZ ENDP ; `dynamic atexit destructor for 'std::_Error_objects<int>::_Generic_object''
text$yd	ENDS
; Function compile flags: /Odtp
; File c:\program files (x86)\microsoft visual studio 11.0\vc\include\xmemory0
;	COMDAT ??__E?_Generic_object@?$_Error_objects@H@std@@2V_Generic_error_category@2@A@@YAXXZ
text$yc	SEGMENT
??__E?_Generic_object@?$_Error_objects@H@std@@2V_Generic_error_category@2@A@@YAXXZ PROC ; `dynamic initializer for 'std::_Error_objects<int>::_Generic_object'', COMDAT

; 627  : 		{	// estimate maximum array size

	push	ebp
	mov	ebp, esp
	mov	ecx, OFFSET ?_Generic_object@?$_Error_objects@H@std@@2V_Generic_error_category@2@A ; std::_Error_objects<int>::_Generic_object
	call	??0_Generic_error_category@std@@QAE@XZ	; std::_Generic_error_category::_Generic_error_category
	push	OFFSET ??__F?_Generic_object@?$_Error_objects@H@std@@2V_Generic_error_category@2@A@@YAXXZ ; `dynamic atexit destructor for 'std::_Error_objects<int>::_Generic_object''
	call	_atexit
	add	esp, 4
	pop	ebp
	ret	0
??__E?_Generic_object@?$_Error_objects@H@std@@2V_Generic_error_category@2@A@@YAXXZ ENDP ; `dynamic initializer for 'std::_Error_objects<int>::_Generic_object''
text$yc	ENDS
; Function compile flags: /Odtp
; File c:\program files (x86)\microsoft visual studio 11.0\vc\include\xmemory0
;	COMDAT ??$_Allocate@D@std@@YAPADIPAD@Z
_TEXT	SEGMENT
__Ptr$ = -4						; size = 4
__Count$ = 8						; size = 4
___formal$ = 12						; size = 4
??$_Allocate@D@std@@YAPADIPAD@Z PROC			; std::_Allocate<char>, COMDAT

; 22   : 	{	// allocate storage for _Count elements of type _Ty

	push	ebp
	mov	ebp, esp
	push	ecx

; 23   : 	void *_Ptr = 0;

	mov	DWORD PTR __Ptr$[ebp], 0

; 24   : 
; 25   : 	if (_Count == 0)

	cmp	DWORD PTR __Count$[ebp], 0
	jne	SHORT $LN4@Allocate

; 26   : 		;
; 27   : 	else if (((size_t)(-1) / sizeof (_Ty) < _Count)

	jmp	SHORT $LN3@Allocate
$LN4@Allocate:

; 28   : 		|| (_Ptr = ::operator new(_Count * sizeof (_Ty))) == 0)

	cmp	DWORD PTR __Count$[ebp], -1
	ja	SHORT $LN1@Allocate
	mov	eax, DWORD PTR __Count$[ebp]
	push	eax
	call	??2@YAPAXI@Z				; operator new
	add	esp, 4
	mov	DWORD PTR __Ptr$[ebp], eax
	cmp	DWORD PTR __Ptr$[ebp], 0
	jne	SHORT $LN3@Allocate
$LN1@Allocate:

; 29   : 		_Xbad_alloc();	// report no memory

	call	?_Xbad_alloc@std@@YAXXZ			; std::_Xbad_alloc
$LN3@Allocate:

; 30   : 
; 31   : 	return ((_Ty *)_Ptr);

	mov	eax, DWORD PTR __Ptr$[ebp]
$LN6@Allocate:

; 32   : 	}

	mov	esp, ebp
	pop	ebp
	ret	0
??$_Allocate@D@std@@YAPADIPAD@Z ENDP			; std::_Allocate<char>
_TEXT	ENDS
; Function compile flags: /Odtp
; File c:\program files (x86)\microsoft visual studio 11.0\vc\include\xstddef
;	COMDAT ??$addressof@D@std@@YAPADAAD@Z
_TEXT	SEGMENT
__Val$ = 8						; size = 4
??$addressof@D@std@@YAPADAAD@Z PROC			; std::addressof<char>, COMDAT

; 85   : 	{	// return address of _Val

	push	ebp
	mov	ebp, esp

; 86   : 	return (reinterpret_cast<_Ty *>(
; 87   : 		(&const_cast<char&>(
; 88   : 		reinterpret_cast<const volatile char&>(_Val)))));

	mov	eax, DWORD PTR __Val$[ebp]

; 89   : 	}

	pop	ebp
	ret	0
??$addressof@D@std@@YAPADAAD@Z ENDP			; std::addressof<char>
_TEXT	ENDS
; Function compile flags: /Odtp
; File c:\program files (x86)\microsoft visual studio 11.0\vc\include\xmemory0
;	COMDAT ??$destroy@PAD@?$_Wrap_alloc@V?$allocator@D@std@@@std@@QAEXPAPAD@Z
_TEXT	SEGMENT
_this$ = -4						; size = 4
__Ptr$ = 8						; size = 4
??$destroy@PAD@?$_Wrap_alloc@V?$allocator@D@std@@@std@@QAEXPAPAD@Z PROC ; std::_Wrap_alloc<std::allocator<char> >::destroy<char *>, COMDAT
; _this$ = ecx

; 907  : 		void destroy(_Ty *_Ptr)

	push	ebp
	mov	ebp, esp
	push	ecx
	mov	DWORD PTR _this$[ebp], ecx

; 908  : 		{	// destroy object at _Ptr
; 909  : 		_Mytraits::destroy(*this, _Ptr);

	mov	eax, DWORD PTR __Ptr$[ebp]
	push	eax
	mov	ecx, DWORD PTR _this$[ebp]
	push	ecx
	call	??$destroy@PAD@?$allocator_traits@V?$allocator@D@std@@@std@@SAXAAV?$allocator@D@1@PAPAD@Z ; std::allocator_traits<std::allocator<char> >::destroy<char *>
	add	esp, 8

; 910  : 		}

	mov	esp, ebp
	pop	ebp
	ret	4
??$destroy@PAD@?$_Wrap_alloc@V?$allocator@D@std@@@std@@QAEXPAPAD@Z ENDP ; std::_Wrap_alloc<std::allocator<char> >::destroy<char *>
_TEXT	ENDS
; Function compile flags: /Odtp
; File c:\program files (x86)\microsoft visual studio 11.0\vc\include\xmemory0
;	COMDAT ??$construct@PADAAPAD@?$_Wrap_alloc@V?$allocator@D@std@@@std@@QAEXPAPADAAPAD@Z
_TEXT	SEGMENT
_this$ = -4						; size = 4
__Ptr$ = 8						; size = 4
__V0$ = 12						; size = 4
??$construct@PADAAPAD@?$_Wrap_alloc@V?$allocator@D@std@@@std@@QAEXPAPADAAPAD@Z PROC ; std::_Wrap_alloc<std::allocator<char> >::construct<char *,char * &>, COMDAT
; _this$ = ecx

; 903  : _VARIADIC_EXPAND_0X(_WRAP_ALLOC_CONSTRUCT, , , , )

	push	ebp
	mov	ebp, esp
	push	ecx
	mov	DWORD PTR _this$[ebp], ecx
	mov	eax, DWORD PTR __V0$[ebp]
	push	eax
	call	??$forward@AAPAD@std@@YAAAPADAAPAD@Z	; std::forward<char * &>
	add	esp, 4
	push	eax
	mov	ecx, DWORD PTR __Ptr$[ebp]
	push	ecx
	mov	edx, DWORD PTR _this$[ebp]
	push	edx
	call	??$construct@PADAAPAD@?$allocator_traits@V?$allocator@D@std@@@std@@SAXAAV?$allocator@D@1@PAPADAAPAD@Z ; std::allocator_traits<std::allocator<char> >::construct<char *,char * &>
	add	esp, 12					; 0000000cH
	mov	esp, ebp
	pop	ebp
	ret	8
??$construct@PADAAPAD@?$_Wrap_alloc@V?$allocator@D@std@@@std@@QAEXPAPADAAPAD@Z ENDP ; std::_Wrap_alloc<std::allocator<char> >::construct<char *,char * &>
_TEXT	ENDS
; Function compile flags: /Odtp
; File c:\users\zhitao li\documents\visual studio 2012\projects\freefalcon\ui95\cwindow.h
;	COMDAT ?GetY@C_Window@@QAEFXZ
_TEXT	SEGMENT
_this$ = -4						; size = 4
?GetY@C_Window@@QAEFXZ PROC				; C_Window::GetY, COMDAT
; _this$ = ecx

; 311  : 		short GetY() { return(y_); }

	push	ebp
	mov	ebp, esp
	push	ecx
	mov	DWORD PTR _this$[ebp], ecx
	mov	eax, DWORD PTR _this$[ebp]
	mov	ax, WORD PTR [eax+430]
	mov	esp, ebp
	pop	ebp
	ret	0
?GetY@C_Window@@QAEFXZ ENDP				; C_Window::GetY
_TEXT	ENDS
; Function compile flags: /Odtp
; File c:\users\zhitao li\documents\visual studio 2012\projects\freefalcon\ui95\cwindow.h
;	COMDAT ?GetX@C_Window@@QAEFXZ
_TEXT	SEGMENT
_this$ = -4						; size = 4
?GetX@C_Window@@QAEFXZ PROC				; C_Window::GetX, COMDAT
; _this$ = ecx

; 310  : 		short GetX() { return(x_); }

	push	ebp
	mov	ebp, esp
	push	ecx
	mov	DWORD PTR _this$[ebp], ecx
	mov	eax, DWORD PTR _this$[ebp]
	mov	ax, WORD PTR [eax+428]
	mov	esp, ebp
	pop	ebp
	ret	0
?GetX@C_Window@@QAEFXZ ENDP				; C_Window::GetX
_TEXT	ENDS
; Function compile flags: /Odtp
;	COMDAT ??_GC_ScrollBar@@UAEPAXI@Z
_TEXT	SEGMENT
_this$ = -4						; size = 4
___flags$ = 8						; size = 4
??_GC_ScrollBar@@UAEPAXI@Z PROC				; C_ScrollBar::`scalar deleting destructor', COMDAT
; _this$ = ecx
	push	ebp
	mov	ebp, esp
	push	ecx
	mov	DWORD PTR _this$[ebp], ecx
	mov	ecx, DWORD PTR _this$[ebp]
	call	??1C_ScrollBar@@UAE@XZ			; C_ScrollBar::~C_ScrollBar
	mov	eax, DWORD PTR ___flags$[ebp]
	and	eax, 1
	je	SHORT $LN1@scalar
	mov	ecx, DWORD PTR _this$[ebp]
	push	ecx
	call	??3@YAXPAX@Z				; operator delete
	add	esp, 4
$LN1@scalar:
	mov	eax, DWORD PTR _this$[ebp]
	mov	esp, ebp
	pop	ebp
	ret	4
??_GC_ScrollBar@@UAEPAXI@Z ENDP				; C_ScrollBar::`scalar deleting destructor'
_TEXT	ENDS
; Function compile flags: /Odtp
; File c:\users\zhitao li\documents\visual studio 2012\projects\freefalcon\ui95\cscroll.h
;	COMDAT ?SaveText@C_ScrollBar@@UAEXPAXPAVC_Parser@@@Z
_TEXT	SEGMENT
_this$ = -4						; size = 4
___formal$ = 8						; size = 4
___formal$ = 12						; size = 4
?SaveText@C_ScrollBar@@UAEXPAXPAVC_Parser@@@Z PROC	; C_ScrollBar::SaveText, COMDAT
; _this$ = ecx

; 87   : 		void SaveText(HANDLE ,C_Parser *)	{ ; }

	push	ebp
	mov	ebp, esp
	push	ecx
	mov	DWORD PTR _this$[ebp], ecx
	mov	esp, ebp
	pop	ebp
	ret	8
?SaveText@C_ScrollBar@@UAEXPAXPAVC_Parser@@@Z ENDP	; C_ScrollBar::SaveText
_TEXT	ENDS
; Function compile flags: /Odtp
; File c:\users\zhitao li\documents\visual studio 2012\projects\freefalcon\ui95\cscroll.cpp
_TEXT	SEGMENT
tv65 = -8						; size = 4
_this$ = -4						; size = 4
_ID$ = 8						; size = 2
_P$ = 12						; size = 4
___formal$ = 16						; size = 4
___formal$ = 20						; size = 4
?LocalFunction@C_ScrollBar@@UAEXFQAJPADPAVC_Handler@@@Z PROC ; C_ScrollBar::LocalFunction
; _this$ = ecx

; 759  : {

	push	ebp
	mov	ebp, esp
	sub	esp, 8
	mov	DWORD PTR _this$[ebp], ecx

; 760  : 	switch(ID)

	movsx	eax, WORD PTR _ID$[ebp]
	mov	DWORD PTR tv65[ebp], eax
	mov	ecx, DWORD PTR tv65[ebp]
	sub	ecx, 1
	mov	DWORD PTR tv65[ebp], ecx
	cmp	DWORD PTR tv65[ebp], 7
	ja	$LN12@LocalFunct
	mov	edx, DWORD PTR tv65[ebp]
	jmp	DWORD PTR $LN14@LocalFunct[edx*4]
$LN9@LocalFunct:

; 761  : 	{
; 762  : 		case CSCR_SETUP:
; 763  : 			Setup(P[0],(short)P[1]);

	mov	eax, 4
	shl	eax, 0
	mov	ecx, DWORD PTR _P$[ebp]
	movzx	edx, WORD PTR [ecx+eax]
	push	edx
	mov	eax, 4
	imul	eax, 0
	mov	ecx, DWORD PTR _P$[ebp]
	mov	edx, DWORD PTR [ecx+eax]
	push	edx
	mov	ecx, DWORD PTR _this$[ebp]
	call	?Setup@C_ScrollBar@@QAEXJF@Z		; C_ScrollBar::Setup

; 764  : 			break;

	jmp	$LN12@LocalFunct
$LN8@LocalFunct:

; 765  : 		case CSCR_SETBGIMAGE:
; 766  : 			SetBgImage(P[0]);

	mov	eax, 4
	imul	eax, 0
	mov	ecx, DWORD PTR _P$[ebp]
	mov	edx, DWORD PTR [ecx+eax]
	push	edx
	mov	ecx, DWORD PTR _this$[ebp]
	call	?SetBgImage@C_ScrollBar@@QAEXJ@Z	; C_ScrollBar::SetBgImage

; 767  : 			break;

	jmp	$LN12@LocalFunct
$LN7@LocalFunct:

; 768  : 		case CSCR_SETSLIDERIMAGE:
; 769  : 			SetSliderImage(P[0]);

	mov	eax, 4
	imul	eax, 0
	mov	ecx, DWORD PTR _P$[ebp]
	mov	edx, DWORD PTR [ecx+eax]
	push	edx
	mov	ecx, DWORD PTR _this$[ebp]
	call	?SetSliderImage@C_ScrollBar@@QAEXJ@Z	; C_ScrollBar::SetSliderImage

; 770  : 			break;

	jmp	$LN12@LocalFunct
$LN6@LocalFunct:

; 771  : 		case CSCR_SETSLIDERRECT:
; 772  : 			SetSliderRect((short)P[0],(short)P[1],(short)P[2],(short)P[3]);

	mov	eax, 4
	imul	eax, 3
	mov	ecx, DWORD PTR _P$[ebp]
	movzx	edx, WORD PTR [ecx+eax]
	push	edx
	mov	eax, 4
	shl	eax, 1
	mov	ecx, DWORD PTR _P$[ebp]
	movzx	edx, WORD PTR [ecx+eax]
	push	edx
	mov	eax, 4
	shl	eax, 0
	mov	ecx, DWORD PTR _P$[ebp]
	movzx	edx, WORD PTR [ecx+eax]
	push	edx
	mov	eax, 4
	imul	eax, 0
	mov	ecx, DWORD PTR _P$[ebp]
	movzx	edx, WORD PTR [ecx+eax]
	push	edx
	mov	ecx, DWORD PTR _this$[ebp]
	call	?SetSliderRect@C_ScrollBar@@QAEXFFFF@Z	; C_ScrollBar::SetSliderRect

; 773  : 			break;

	jmp	$LN12@LocalFunct
$LN5@LocalFunct:

; 774  : 		case CSCR_SETCOLORS:
; 775  : 			SetColors(P[0]|(P[1] << 8)|(P[2] << 16),P[3]|(P[4] << 8)|(P[5] << 16),P[6]|(P[7] << 8)|(P[8] << 16));

	mov	eax, 4
	imul	eax, 6
	mov	ecx, 4
	imul	ecx, 7
	mov	edx, DWORD PTR _P$[ebp]
	mov	ecx, DWORD PTR [edx+ecx]
	shl	ecx, 8
	mov	edx, DWORD PTR _P$[ebp]
	or	ecx, DWORD PTR [edx+eax]
	mov	eax, 4
	shl	eax, 3
	mov	edx, DWORD PTR _P$[ebp]
	mov	eax, DWORD PTR [edx+eax]
	shl	eax, 16					; 00000010H
	or	ecx, eax
	push	ecx
	mov	ecx, 4
	imul	ecx, 3
	mov	edx, 4
	shl	edx, 2
	mov	eax, DWORD PTR _P$[ebp]
	mov	edx, DWORD PTR [eax+edx]
	shl	edx, 8
	mov	eax, DWORD PTR _P$[ebp]
	or	edx, DWORD PTR [eax+ecx]
	mov	ecx, 4
	imul	ecx, 5
	mov	eax, DWORD PTR _P$[ebp]
	mov	ecx, DWORD PTR [eax+ecx]
	shl	ecx, 16					; 00000010H
	or	edx, ecx
	push	edx
	mov	edx, 4
	imul	edx, 0
	mov	eax, 4
	shl	eax, 0
	mov	ecx, DWORD PTR _P$[ebp]
	mov	eax, DWORD PTR [ecx+eax]
	shl	eax, 8
	mov	ecx, DWORD PTR _P$[ebp]
	or	eax, DWORD PTR [ecx+edx]
	mov	edx, 4
	shl	edx, 1
	mov	ecx, DWORD PTR _P$[ebp]
	mov	edx, DWORD PTR [ecx+edx]
	shl	edx, 16					; 00000010H
	or	eax, edx
	push	eax
	mov	ecx, DWORD PTR _this$[ebp]
	call	?SetColors@C_ScrollBar@@QAEXKKK@Z	; C_ScrollBar::SetColors

; 776  : 			break;

	jmp	$LN12@LocalFunct
$LN4@LocalFunct:

; 777  : 		case CSCR_SETBUTTONIMAGES:
; 778  : 			SetButtonImages(P[0],P[1],P[2],P[3]);

	mov	eax, 4
	imul	eax, 3
	mov	ecx, DWORD PTR _P$[ebp]
	mov	edx, DWORD PTR [ecx+eax]
	push	edx
	mov	eax, 4
	shl	eax, 1
	mov	ecx, DWORD PTR _P$[ebp]
	mov	edx, DWORD PTR [ecx+eax]
	push	edx
	mov	eax, 4
	shl	eax, 0
	mov	ecx, DWORD PTR _P$[ebp]
	mov	edx, DWORD PTR [ecx+eax]
	push	edx
	mov	eax, 4
	imul	eax, 0
	mov	ecx, DWORD PTR _P$[ebp]
	mov	edx, DWORD PTR [ecx+eax]
	push	edx
	mov	ecx, DWORD PTR _this$[ebp]
	call	?SetButtonImages@C_ScrollBar@@QAEXJJJJ@Z ; C_ScrollBar::SetButtonImages

; 779  : 			break;

	jmp	$LN12@LocalFunct
$LN3@LocalFunct:

; 780  : 		case CSCR_SETDISTANCE:
; 781  : 			if(P[0] >= 1 && P[0] < 50)

	mov	eax, 4
	imul	eax, 0
	mov	ecx, DWORD PTR _P$[ebp]
	cmp	DWORD PTR [ecx+eax], 1
	jl	SHORT $LN2@LocalFunct
	mov	edx, 4
	imul	edx, 0
	mov	eax, DWORD PTR _P$[ebp]
	cmp	DWORD PTR [eax+edx], 50			; 00000032H
	jge	SHORT $LN2@LocalFunct

; 782  : 				SetDistance(P[0]);

	mov	ecx, 4
	imul	ecx, 0
	mov	edx, DWORD PTR _P$[ebp]
	mov	eax, DWORD PTR [edx+ecx]
	push	eax
	mov	ecx, DWORD PTR _this$[ebp]
	call	?SetDistance@C_ScrollBar@@QAEXH@Z	; C_ScrollBar::SetDistance
$LN2@LocalFunct:

; 783  : 			break;

	jmp	SHORT $LN12@LocalFunct
$LN1@LocalFunct:

; 784  : 		case CSCR_SETBGLINE:
; 785  : 			SetLineColor(P[0]|(P[1] << 8)|(P[2] << 16));

	mov	ecx, 4
	imul	ecx, 0
	mov	edx, 4
	shl	edx, 0
	mov	eax, DWORD PTR _P$[ebp]
	mov	edx, DWORD PTR [eax+edx]
	shl	edx, 8
	mov	eax, DWORD PTR _P$[ebp]
	or	edx, DWORD PTR [eax+ecx]
	mov	ecx, 4
	shl	ecx, 1
	mov	eax, DWORD PTR _P$[ebp]
	mov	ecx, DWORD PTR [eax+ecx]
	shl	ecx, 16					; 00000010H
	or	edx, ecx
	push	edx
	mov	ecx, DWORD PTR _this$[ebp]
	call	?SetLineColor@C_ScrollBar@@QAEXK@Z	; C_ScrollBar::SetLineColor

; 786  : 			SetFlagBitOn(C_BIT_USELINE);

	push	4194304					; 00400000H
	mov	edx, DWORD PTR _this$[ebp]
	mov	eax, DWORD PTR [edx]
	mov	ecx, DWORD PTR _this$[ebp]
	mov	edx, DWORD PTR [eax+8]
	call	edx
$LN12@LocalFunct:

; 787  : 			break;
; 788  : 	}
; 789  : }

	mov	esp, ebp
	pop	ebp
	ret	16					; 00000010H
	npad	1
$LN14@LocalFunct:
	DD	$LN9@LocalFunct
	DD	$LN8@LocalFunct
	DD	$LN7@LocalFunct
	DD	$LN6@LocalFunct
	DD	$LN5@LocalFunct
	DD	$LN4@LocalFunct
	DD	$LN3@LocalFunct
	DD	$LN1@LocalFunct
?LocalFunction@C_ScrollBar@@UAEXFQAJPADPAVC_Handler@@@Z ENDP ; C_ScrollBar::LocalFunction
_TEXT	ENDS
; Function compile flags: /Odtp
; File c:\users\zhitao li\documents\visual studio 2012\projects\freefalcon\ui95\cscroll.cpp
_TEXT	SEGMENT
_this$ = -8						; size = 4
_i$ = -4						; size = 2
_token$ = 8						; size = 4
?LocalFind@C_ScrollBar@@UAEFPAD@Z PROC			; C_ScrollBar::LocalFind
; _this$ = ecx

; 746  : {

	push	ebp
	mov	ebp, esp
	sub	esp, 8
	mov	DWORD PTR _this$[ebp], ecx

; 747  : 	short i=0;

	xor	eax, eax
	mov	WORD PTR _i$[ebp], ax
$LN3@LocalFind:

; 748  : 
; 749  : 	while(C_Scr_Tokens[i])

	movsx	ecx, WORD PTR _i$[ebp]
	cmp	DWORD PTR ?C_Scr_Tokens@@3PAPADA[ecx*4], 0
	je	SHORT $LN2@LocalFind

; 750  : 	{
; 751  : 		if(strnicmp(token,C_Scr_Tokens[i],strlen(C_Scr_Tokens[i])) == 0)

	movsx	edx, WORD PTR _i$[ebp]
	mov	eax, DWORD PTR ?C_Scr_Tokens@@3PAPADA[edx*4]
	push	eax
	call	_strlen
	add	esp, 4
	push	eax
	movsx	ecx, WORD PTR _i$[ebp]
	mov	edx, DWORD PTR ?C_Scr_Tokens@@3PAPADA[ecx*4]
	push	edx
	mov	eax, DWORD PTR _token$[ebp]
	push	eax
	call	_strnicmp
	add	esp, 12					; 0000000cH
	test	eax, eax
	jne	SHORT $LN1@LocalFind

; 752  : 			return(i);

	mov	ax, WORD PTR _i$[ebp]
	jmp	SHORT $LN4@LocalFind
$LN1@LocalFind:

; 753  : 		i++;

	mov	cx, WORD PTR _i$[ebp]
	add	cx, 1
	mov	WORD PTR _i$[ebp], cx

; 754  : 	}

	jmp	SHORT $LN3@LocalFind
$LN2@LocalFind:

; 755  : 	return(0);

	xor	eax, eax
$LN4@LocalFind:

; 756  : }

	mov	esp, ebp
	pop	ebp
	ret	4
?LocalFind@C_ScrollBar@@UAEFPAD@Z ENDP			; C_ScrollBar::LocalFind
_TEXT	ENDS
; Function compile flags: /Odtp
; File c:\users\zhitao li\documents\visual studio 2012\projects\freefalcon\ui95\cscroll.cpp
_TEXT	SEGMENT
_this$ = -4						; size = 4
_Parent$ = 8						; size = 4
?SetSubParents@C_ScrollBar@@UAEXPAVC_Window@@@Z PROC	; C_ScrollBar::SetSubParents
; _this$ = ecx

; 714  : {

	push	ebp
	mov	ebp, esp
	push	ecx
	push	esi
	mov	DWORD PTR _this$[ebp], ecx

; 715  : 	if(Minus_)

	mov	eax, DWORD PTR _this$[ebp]
	cmp	DWORD PTR [eax+196], 0
	je	$LN8@SetSubPare

; 716  : 	{
; 717  : 		Minus_->SetParent(Parent);

	mov	ecx, DWORD PTR _Parent$[ebp]
	push	ecx
	mov	edx, DWORD PTR _this$[ebp]
	mov	ecx, DWORD PTR [edx+196]
	call	?SetParent@C_Base@@QAEXPAVC_Window@@@Z	; C_Base::SetParent

; 718  : 		if(GetType() == C_TYPE_VERTICAL)

	mov	ecx, DWORD PTR _this$[ebp]
	call	?GetType@C_Base@@QAEFXZ			; C_Base::GetType
	cwde
	cmp	eax, 62					; 0000003eH
	jne	SHORT $LN7@SetSubPare

; 719  : 			Minus_->SetX(GetX()+GetW()/2-Minus_->GetW()/2);

	mov	ecx, DWORD PTR _this$[ebp]
	call	?GetX@C_Base@@QAEJXZ			; C_Base::GetX
	mov	esi, eax
	mov	ecx, DWORD PTR _this$[ebp]
	call	?GetW@C_Base@@QAEJXZ			; C_Base::GetW
	cdq
	sub	eax, edx
	sar	eax, 1
	add	esi, eax
	mov	ecx, DWORD PTR _this$[ebp]
	mov	ecx, DWORD PTR [ecx+196]
	call	?GetW@C_Base@@QAEJXZ			; C_Base::GetW
	cdq
	sub	eax, edx
	sar	eax, 1
	sub	esi, eax
	push	esi
	mov	edx, DWORD PTR _this$[ebp]
	mov	eax, DWORD PTR [edx+196]
	mov	ecx, DWORD PTR _this$[ebp]
	mov	edx, DWORD PTR [eax]
	mov	ecx, DWORD PTR [ecx+196]
	mov	eax, DWORD PTR [edx+16]
	call	eax
	jmp	SHORT $LN6@SetSubPare
$LN7@SetSubPare:

; 720  : 		else if(GetType() == C_TYPE_HORIZONTAL)

	mov	ecx, DWORD PTR _this$[ebp]
	call	?GetType@C_Base@@QAEFXZ			; C_Base::GetType
	movsx	ecx, ax
	cmp	ecx, 63					; 0000003fH
	jne	SHORT $LN6@SetSubPare

; 721  : 			Minus_->SetY(GetY()+GetH()/2-Minus_->GetH()/2);

	mov	ecx, DWORD PTR _this$[ebp]
	call	?GetY@C_Base@@QAEJXZ			; C_Base::GetY
	mov	esi, eax
	mov	ecx, DWORD PTR _this$[ebp]
	call	?GetH@C_Base@@QAEJXZ			; C_Base::GetH
	cdq
	sub	eax, edx
	sar	eax, 1
	add	esi, eax
	mov	edx, DWORD PTR _this$[ebp]
	mov	ecx, DWORD PTR [edx+196]
	call	?GetH@C_Base@@QAEJXZ			; C_Base::GetH
	cdq
	sub	eax, edx
	sar	eax, 1
	sub	esi, eax
	push	esi
	mov	eax, DWORD PTR _this$[ebp]
	mov	ecx, DWORD PTR [eax+196]
	mov	edx, DWORD PTR _this$[ebp]
	mov	eax, DWORD PTR [ecx]
	mov	ecx, DWORD PTR [edx+196]
	mov	edx, DWORD PTR [eax+20]
	call	edx
$LN6@SetSubPare:

; 722  : 		Minus_->SetFlags(GetFlags());

	mov	ecx, DWORD PTR _this$[ebp]
	call	?GetFlags@C_Base@@QAEJXZ		; C_Base::GetFlags
	push	eax
	mov	eax, DWORD PTR _this$[ebp]
	mov	ecx, DWORD PTR [eax+196]
	mov	edx, DWORD PTR _this$[ebp]
	mov	eax, DWORD PTR [ecx]
	mov	ecx, DWORD PTR [edx+196]
	mov	edx, DWORD PTR [eax+4]
	call	edx

; 723  : 		Minus_->SetSubParents(Parent);

	mov	eax, DWORD PTR _Parent$[ebp]
	push	eax
	mov	ecx, DWORD PTR _this$[ebp]
	mov	edx, DWORD PTR [ecx+196]
	mov	eax, DWORD PTR _this$[ebp]
	mov	edx, DWORD PTR [edx]
	mov	ecx, DWORD PTR [eax+196]
	mov	eax, DWORD PTR [edx+172]
	call	eax
$LN8@SetSubPare:

; 724  : 	}
; 725  : 	if(Plus_)

	mov	ecx, DWORD PTR _this$[ebp]
	cmp	DWORD PTR [ecx+192], 0
	je	$LN4@SetSubPare

; 726  : 	{
; 727  : 		Plus_->SetParent(Parent);

	mov	edx, DWORD PTR _Parent$[ebp]
	push	edx
	mov	eax, DWORD PTR _this$[ebp]
	mov	ecx, DWORD PTR [eax+192]
	call	?SetParent@C_Base@@QAEXPAVC_Window@@@Z	; C_Base::SetParent

; 728  : 		if(GetType() == C_TYPE_VERTICAL)

	mov	ecx, DWORD PTR _this$[ebp]
	call	?GetType@C_Base@@QAEFXZ			; C_Base::GetType
	movsx	ecx, ax
	cmp	ecx, 62					; 0000003eH
	jne	$LN3@SetSubPare

; 729  : 		{
; 730  : 			Plus_->SetX(GetX()+GetW()/2-Plus_->GetW()/2);

	mov	ecx, DWORD PTR _this$[ebp]
	call	?GetX@C_Base@@QAEJXZ			; C_Base::GetX
	mov	esi, eax
	mov	ecx, DWORD PTR _this$[ebp]
	call	?GetW@C_Base@@QAEJXZ			; C_Base::GetW
	cdq
	sub	eax, edx
	sar	eax, 1
	add	esi, eax
	mov	edx, DWORD PTR _this$[ebp]
	mov	ecx, DWORD PTR [edx+192]
	call	?GetW@C_Base@@QAEJXZ			; C_Base::GetW
	cdq
	sub	eax, edx
	sar	eax, 1
	sub	esi, eax
	push	esi
	mov	eax, DWORD PTR _this$[ebp]
	mov	ecx, DWORD PTR [eax+192]
	mov	edx, DWORD PTR _this$[ebp]
	mov	eax, DWORD PTR [ecx]
	mov	ecx, DWORD PTR [edx+192]
	mov	edx, DWORD PTR [eax+16]
	call	edx

; 731  : 			Plus_->SetY(GetY()+GetH()-Plus_->GetH());

	mov	ecx, DWORD PTR _this$[ebp]
	call	?GetY@C_Base@@QAEJXZ			; C_Base::GetY
	mov	esi, eax
	mov	ecx, DWORD PTR _this$[ebp]
	call	?GetH@C_Base@@QAEJXZ			; C_Base::GetH
	add	esi, eax
	mov	eax, DWORD PTR _this$[ebp]
	mov	ecx, DWORD PTR [eax+192]
	call	?GetH@C_Base@@QAEJXZ			; C_Base::GetH
	sub	esi, eax
	push	esi
	mov	ecx, DWORD PTR _this$[ebp]
	mov	edx, DWORD PTR [ecx+192]
	mov	eax, DWORD PTR _this$[ebp]
	mov	edx, DWORD PTR [edx]
	mov	ecx, DWORD PTR [eax+192]
	mov	eax, DWORD PTR [edx+20]
	call	eax
	jmp	$LN2@SetSubPare
$LN3@SetSubPare:

; 732  : 		}
; 733  : 		else if(GetType() == C_TYPE_HORIZONTAL)

	mov	ecx, DWORD PTR _this$[ebp]
	call	?GetType@C_Base@@QAEFXZ			; C_Base::GetType
	movsx	ecx, ax
	cmp	ecx, 63					; 0000003fH
	jne	$LN2@SetSubPare

; 734  : 		{
; 735  : 			Plus_->SetX(GetX()+GetW()-Plus_->GetW());

	mov	ecx, DWORD PTR _this$[ebp]
	call	?GetX@C_Base@@QAEJXZ			; C_Base::GetX
	mov	esi, eax
	mov	ecx, DWORD PTR _this$[ebp]
	call	?GetW@C_Base@@QAEJXZ			; C_Base::GetW
	add	esi, eax
	mov	edx, DWORD PTR _this$[ebp]
	mov	ecx, DWORD PTR [edx+192]
	call	?GetW@C_Base@@QAEJXZ			; C_Base::GetW
	sub	esi, eax
	push	esi
	mov	eax, DWORD PTR _this$[ebp]
	mov	ecx, DWORD PTR [eax+192]
	mov	edx, DWORD PTR _this$[ebp]
	mov	eax, DWORD PTR [ecx]
	mov	ecx, DWORD PTR [edx+192]
	mov	edx, DWORD PTR [eax+16]
	call	edx

; 736  : 			Plus_->SetY(GetY()+GetH()/2-Plus_->GetH()/2);

	mov	ecx, DWORD PTR _this$[ebp]
	call	?GetY@C_Base@@QAEJXZ			; C_Base::GetY
	mov	esi, eax
	mov	ecx, DWORD PTR _this$[ebp]
	call	?GetH@C_Base@@QAEJXZ			; C_Base::GetH
	cdq
	sub	eax, edx
	sar	eax, 1
	add	esi, eax
	mov	eax, DWORD PTR _this$[ebp]
	mov	ecx, DWORD PTR [eax+192]
	call	?GetH@C_Base@@QAEJXZ			; C_Base::GetH
	cdq
	sub	eax, edx
	sar	eax, 1
	sub	esi, eax
	push	esi
	mov	ecx, DWORD PTR _this$[ebp]
	mov	edx, DWORD PTR [ecx+192]
	mov	eax, DWORD PTR _this$[ebp]
	mov	edx, DWORD PTR [edx]
	mov	ecx, DWORD PTR [eax+192]
	mov	eax, DWORD PTR [edx+20]
	call	eax
$LN2@SetSubPare:

; 737  : 		}
; 738  : 		Plus_->SetFlags(GetFlags());

	mov	ecx, DWORD PTR _this$[ebp]
	call	?GetFlags@C_Base@@QAEJXZ		; C_Base::GetFlags
	push	eax
	mov	ecx, DWORD PTR _this$[ebp]
	mov	edx, DWORD PTR [ecx+192]
	mov	eax, DWORD PTR _this$[ebp]
	mov	edx, DWORD PTR [edx]
	mov	ecx, DWORD PTR [eax+192]
	mov	eax, DWORD PTR [edx+4]
	call	eax

; 739  : 		Plus_->SetSubParents(Parent);

	mov	ecx, DWORD PTR _Parent$[ebp]
	push	ecx
	mov	edx, DWORD PTR _this$[ebp]
	mov	eax, DWORD PTR [edx+192]
	mov	ecx, DWORD PTR _this$[ebp]
	mov	edx, DWORD PTR [eax]
	mov	ecx, DWORD PTR [ecx+192]
	mov	eax, DWORD PTR [edx+172]
	call	eax
$LN4@SetSubPare:

; 740  : 	}
; 741  : 	CalcRanges();

	mov	ecx, DWORD PTR _this$[ebp]
	call	?CalcRanges@C_ScrollBar@@AAEXXZ		; C_ScrollBar::CalcRanges

; 742  : }

	pop	esi
	mov	esp, ebp
	pop	ebp
	ret	4
?SetSubParents@C_ScrollBar@@UAEXPAVC_Window@@@Z ENDP	; C_ScrollBar::SetSubParents
_TEXT	ENDS
; Function compile flags: /Odtp
; File c:\users\zhitao li\documents\visual studio 2012\projects\freefalcon\ui95\cscroll.h
;	COMDAT ?Drop@C_ScrollBar@@UAEHPAUGRABBER@@GGPAVC_Window@@@Z
_TEXT	SEGMENT
_this$ = -4						; size = 4
___formal$ = 8						; size = 4
___formal$ = 12						; size = 2
___formal$ = 16						; size = 2
___formal$ = 20						; size = 4
?Drop@C_ScrollBar@@UAEHPAUGRABBER@@GGPAVC_Window@@@Z PROC ; C_ScrollBar::Drop, COMDAT
; _this$ = ecx

; 80   : 		BOOL Drop(GRABBER *,WORD ,WORD ,C_Window *)	{ return FALSE;	}

	push	ebp
	mov	ebp, esp
	push	ecx
	mov	DWORD PTR _this$[ebp], ecx
	xor	eax, eax
	mov	esp, ebp
	pop	ebp
	ret	16					; 00000010H
?Drop@C_ScrollBar@@UAEHPAUGRABBER@@GGPAVC_Window@@@Z ENDP ; C_ScrollBar::Drop
_TEXT	ENDS
; Function compile flags: /Odtp
; File c:\users\zhitao li\documents\visual studio 2012\projects\freefalcon\ui95\cscroll.cpp
_TEXT	SEGMENT
_Leave$ = -20						; size = 4
_x$ = -16						; size = 4
_y$ = -12						; size = 4
tv135 = -8						; size = 4
_this$ = -4						; size = 4
_Drag$ = 8						; size = 4
_MouseX$ = 12						; size = 2
_MouseY$ = 16						; size = 2
___formal$ = 20						; size = 4
?Drag@C_ScrollBar@@UAEHPAUGRABBER@@GGPAVC_Window@@@Z PROC ; C_ScrollBar::Drag
; _this$ = ecx

; 669  : {

	push	ebp
	mov	ebp, esp
	sub	esp, 20					; 00000014H
	push	ebx
	push	esi
	push	edi
	mov	DWORD PTR _this$[ebp], ecx

; 670  : 	long x,y;
; 671  : 	F4CSECTIONHANDLE* Leave;
; 672  : 
; 673  : 	if(GetFlags() & C_BIT_INVISIBLE)

	mov	ecx, DWORD PTR _this$[ebp]
	call	?GetFlags@C_Base@@QAEJXZ		; C_Base::GetFlags
	and	eax, 8192				; 00002000H
	je	SHORT $LN9@Drag

; 674  : 		return(FALSE);

	xor	eax, eax
	jmp	$LN10@Drag
$LN9@Drag:

; 675  : 
; 676  : 	Leave=UI_Enter(Parent_);

	mov	eax, DWORD PTR _this$[ebp]
	mov	ecx, DWORD PTR [eax+48]
	push	ecx
	call	?UI_Enter@@YAPAUF4CSECTIONHANDLE@@PAVC_Window@@@Z ; UI_Enter
	add	esp, 4
	mov	DWORD PTR _Leave$[ebp], eax

; 677  : 	Refresh();

	mov	edx, DWORD PTR _this$[ebp]
	mov	eax, DWORD PTR [edx]
	mov	ecx, DWORD PTR _this$[ebp]
	mov	edx, DWORD PTR [eax+160]
	call	edx

; 678  : 	x=Drag->ItemX_ + (MouseX - Drag->StartX_);

	movzx	eax, WORD PTR _MouseX$[ebp]
	mov	ecx, DWORD PTR _Drag$[ebp]
	sub	eax, DWORD PTR [ecx+4]
	mov	edx, DWORD PTR _Drag$[ebp]
	add	eax, DWORD PTR [edx+12]
	mov	DWORD PTR _x$[ebp], eax

; 679  : 	y=Drag->ItemY_ + (MouseY - Drag->StartY_);

	movzx	eax, WORD PTR _MouseY$[ebp]
	mov	ecx, DWORD PTR _Drag$[ebp]
	sub	eax, DWORD PTR [ecx+8]
	mov	edx, DWORD PTR _Drag$[ebp]
	add	eax, DWORD PTR [edx+16]
	mov	DWORD PTR _y$[ebp], eax

; 680  : 	switch(GetType())

	mov	ecx, DWORD PTR _this$[ebp]
	call	?GetType@C_Base@@QAEFXZ			; C_Base::GetType
	cwde
	mov	DWORD PTR tv135[ebp], eax
	cmp	DWORD PTR tv135[ebp], 62		; 0000003eH
	je	SHORT $LN6@Drag
	cmp	DWORD PTR tv135[ebp], 63		; 0000003fH
	je	$LN3@Drag
	jmp	$LN7@Drag
$LN6@Drag:

; 681  : 	{
; 682  : 		case C_TYPE_VERTICAL:
; 683  : 			SY_=y;

	mov	ecx, DWORD PTR _this$[ebp]
	mov	edx, DWORD PTR _y$[ebp]
	mov	DWORD PTR [ecx+132], edx

; 684  : 			if(SY_ < MinPos_)

	mov	eax, DWORD PTR _this$[ebp]
	mov	ecx, DWORD PTR _this$[ebp]
	mov	edx, DWORD PTR [eax+132]
	cmp	edx, DWORD PTR [ecx+152]
	jge	SHORT $LN5@Drag

; 685  : 				SY_=MinPos_;

	mov	eax, DWORD PTR _this$[ebp]
	mov	ecx, DWORD PTR _this$[ebp]
	mov	edx, DWORD PTR [ecx+152]
	mov	DWORD PTR [eax+132], edx
$LN5@Drag:

; 686  : 			if(SY_ > MaxPos_)

	mov	eax, DWORD PTR _this$[ebp]
	mov	ecx, DWORD PTR _this$[ebp]
	mov	edx, DWORD PTR [eax+132]
	cmp	edx, DWORD PTR [ecx+160]
	jle	SHORT $LN4@Drag

; 687  : 				SY_=MaxPos_;

	mov	eax, DWORD PTR _this$[ebp]
	mov	ecx, DWORD PTR _this$[ebp]
	mov	edx, DWORD PTR [ecx+160]
	mov	DWORD PTR [eax+132], edx
$LN4@Drag:

; 688  : 			Parent_->VY_[GetClient()]=(SY_-MinPos_)*(VirtualH_+Parent_->ClientArea_[GetClient()].bottom-Parent_->ClientArea_[GetClient()].top)/(MaxPos_-MinPos_) + Parent_->ClientArea_[GetClient()].top;

	mov	eax, DWORD PTR _this$[ebp]
	mov	ecx, DWORD PTR _this$[ebp]
	mov	esi, DWORD PTR [eax+132]
	sub	esi, DWORD PTR [ecx+152]
	mov	edx, DWORD PTR _this$[ebp]
	mov	edi, DWORD PTR [edx+48]
	mov	ecx, DWORD PTR _this$[ebp]
	call	?GetClient@C_Base@@QAEFXZ		; C_Base::GetClient
	cwde
	shl	eax, 4
	mov	ecx, DWORD PTR _this$[ebp]
	mov	ebx, DWORD PTR [ecx+124]
	add	ebx, DWORD PTR [edi+eax+180]
	mov	edx, DWORD PTR _this$[ebp]
	mov	edi, DWORD PTR [edx+48]
	mov	ecx, DWORD PTR _this$[ebp]
	call	?GetClient@C_Base@@QAEFXZ		; C_Base::GetClient
	cwde
	shl	eax, 4
	sub	ebx, DWORD PTR [edi+eax+172]
	imul	esi, ebx
	mov	ecx, DWORD PTR _this$[ebp]
	mov	edx, DWORD PTR _this$[ebp]
	mov	ecx, DWORD PTR [ecx+160]
	sub	ecx, DWORD PTR [edx+152]
	mov	eax, esi
	cdq
	idiv	ecx
	mov	esi, eax
	mov	edx, DWORD PTR _this$[ebp]
	mov	edi, DWORD PTR [edx+48]
	mov	ecx, DWORD PTR _this$[ebp]
	call	?GetClient@C_Base@@QAEFXZ		; C_Base::GetClient
	cwde
	shl	eax, 4
	add	esi, DWORD PTR [edi+eax+172]
	mov	ecx, DWORD PTR _this$[ebp]
	mov	edi, DWORD PTR [ecx+48]
	mov	ecx, DWORD PTR _this$[ebp]
	call	?GetClient@C_Base@@QAEFXZ		; C_Base::GetClient
	movsx	edx, ax
	mov	DWORD PTR [edi+edx*4+512], esi

; 689  : 			Parent_->RefreshClient(GetClient());

	mov	ecx, DWORD PTR _this$[ebp]
	call	?GetClient@C_Base@@QAEFXZ		; C_Base::GetClient
	cwde
	push	eax
	mov	ecx, DWORD PTR _this$[ebp]
	mov	ecx, DWORD PTR [ecx+48]
	call	?RefreshClient@C_Window@@QAEXJ@Z	; C_Window::RefreshClient

; 690  : 			break;

	jmp	$LN7@Drag
$LN3@Drag:

; 691  : 		case C_TYPE_HORIZONTAL:
; 692  : 			SX_=x;

	mov	edx, DWORD PTR _this$[ebp]
	mov	eax, DWORD PTR _x$[ebp]
	mov	DWORD PTR [edx+128], eax

; 693  : 			if(SX_ < MinPos_)

	mov	ecx, DWORD PTR _this$[ebp]
	mov	edx, DWORD PTR _this$[ebp]
	mov	eax, DWORD PTR [ecx+128]
	cmp	eax, DWORD PTR [edx+152]
	jge	SHORT $LN2@Drag

; 694  : 				SX_=MinPos_;

	mov	ecx, DWORD PTR _this$[ebp]
	mov	edx, DWORD PTR _this$[ebp]
	mov	eax, DWORD PTR [edx+152]
	mov	DWORD PTR [ecx+128], eax
$LN2@Drag:

; 695  : 			if(SX_ > MaxPos_)

	mov	ecx, DWORD PTR _this$[ebp]
	mov	edx, DWORD PTR _this$[ebp]
	mov	eax, DWORD PTR [ecx+128]
	cmp	eax, DWORD PTR [edx+160]
	jle	SHORT $LN1@Drag

; 696  : 				SX_=MaxPos_;

	mov	ecx, DWORD PTR _this$[ebp]
	mov	edx, DWORD PTR _this$[ebp]
	mov	eax, DWORD PTR [edx+160]
	mov	DWORD PTR [ecx+128], eax
$LN1@Drag:

; 697  : 			Parent_->VX_[GetClient()]=(SX_-MinPos_)*(VirtualW_+Parent_->ClientArea_[GetClient()].right-Parent_->ClientArea_[GetClient()].left)/(MaxPos_-MinPos_) + Parent_->ClientArea_[GetClient()].left;

	mov	ecx, DWORD PTR _this$[ebp]
	mov	edx, DWORD PTR _this$[ebp]
	mov	esi, DWORD PTR [ecx+128]
	sub	esi, DWORD PTR [edx+152]
	mov	eax, DWORD PTR _this$[ebp]
	mov	edi, DWORD PTR [eax+48]
	mov	ecx, DWORD PTR _this$[ebp]
	call	?GetClient@C_Base@@QAEFXZ		; C_Base::GetClient
	movsx	ecx, ax
	shl	ecx, 4
	mov	edx, DWORD PTR _this$[ebp]
	mov	ebx, DWORD PTR [edx+120]
	add	ebx, DWORD PTR [edi+ecx+176]
	mov	eax, DWORD PTR _this$[ebp]
	mov	edi, DWORD PTR [eax+48]
	mov	ecx, DWORD PTR _this$[ebp]
	call	?GetClient@C_Base@@QAEFXZ		; C_Base::GetClient
	movsx	ecx, ax
	shl	ecx, 4
	sub	ebx, DWORD PTR [edi+ecx+168]
	imul	esi, ebx
	mov	edx, DWORD PTR _this$[ebp]
	mov	eax, DWORD PTR _this$[ebp]
	mov	ecx, DWORD PTR [edx+160]
	sub	ecx, DWORD PTR [eax+152]
	mov	eax, esi
	cdq
	idiv	ecx
	mov	esi, eax
	mov	edx, DWORD PTR _this$[ebp]
	mov	edi, DWORD PTR [edx+48]
	mov	ecx, DWORD PTR _this$[ebp]
	call	?GetClient@C_Base@@QAEFXZ		; C_Base::GetClient
	cwde
	shl	eax, 4
	add	esi, DWORD PTR [edi+eax+168]
	mov	ecx, DWORD PTR _this$[ebp]
	mov	edi, DWORD PTR [ecx+48]
	mov	ecx, DWORD PTR _this$[ebp]
	call	?GetClient@C_Base@@QAEFXZ		; C_Base::GetClient
	movsx	edx, ax
	mov	DWORD PTR [edi+edx*4+480], esi

; 698  : 			Parent_->RefreshClient(GetClient());

	mov	ecx, DWORD PTR _this$[ebp]
	call	?GetClient@C_Base@@QAEFXZ		; C_Base::GetClient
	cwde
	push	eax
	mov	ecx, DWORD PTR _this$[ebp]
	mov	ecx, DWORD PTR [ecx+48]
	call	?RefreshClient@C_Window@@QAEXJ@Z	; C_Window::RefreshClient
$LN7@Drag:

; 699  : 			break;
; 700  : 	}
; 701  : 	Refresh();

	mov	edx, DWORD PTR _this$[ebp]
	mov	eax, DWORD PTR [edx]
	mov	ecx, DWORD PTR _this$[ebp]
	mov	edx, DWORD PTR [eax+160]
	call	edx

; 702  : 	UI_Leave(Leave);

	mov	eax, DWORD PTR _Leave$[ebp]
	push	eax
	call	?UI_Leave@@YAXPAUF4CSECTIONHANDLE@@@Z	; UI_Leave
	add	esp, 4

; 703  : 	return(TRUE);

	mov	eax, 1
$LN10@Drag:

; 704  : }

	pop	edi
	pop	esi
	pop	ebx
	mov	esp, ebp
	pop	ebp
	ret	16					; 00000010H
?Drag@C_ScrollBar@@UAEHPAUGRABBER@@GGPAVC_Window@@@Z ENDP ; C_ScrollBar::Drag
_TEXT	ENDS
; Function compile flags: /Odtp
; File c:\users\zhitao li\documents\visual studio 2012\projects\freefalcon\ui95\cscroll.cpp
_TEXT	SEGMENT
_this$ = -4						; size = 4
___formal$ = 8						; size = 4
_x$ = 12						; size = 4
_y$ = 16						; size = 4
?GetItemXY@C_ScrollBar@@UAEXJPAJ0@Z PROC		; C_ScrollBar::GetItemXY
; _this$ = ecx

; 708  : {

	push	ebp
	mov	ebp, esp
	push	ecx
	mov	DWORD PTR _this$[ebp], ecx

; 709  : 	*x=SX_;

	mov	eax, DWORD PTR _x$[ebp]
	mov	ecx, DWORD PTR _this$[ebp]
	mov	edx, DWORD PTR [ecx+128]
	mov	DWORD PTR [eax], edx

; 710  : 	*y=SY_;

	mov	eax, DWORD PTR _y$[ebp]
	mov	ecx, DWORD PTR _this$[ebp]
	mov	edx, DWORD PTR [ecx+132]
	mov	DWORD PTR [eax], edx

; 711  : }

	mov	esp, ebp
	pop	ebp
	ret	12					; 0000000cH
?GetItemXY@C_ScrollBar@@UAEXJPAJ0@Z ENDP		; C_ScrollBar::GetItemXY
_TEXT	ENDS
; Function compile flags: /Odtp
; File c:\users\zhitao li\documents\visual studio 2012\projects\freefalcon\ui95\cscroll.cpp
_TEXT	SEGMENT
_this$ = -40						; size = 4
_s$ = -36						; size = 16
_rect$ = -20						; size = 16
__$ArrayPad$ = -4					; size = 4
_surface$ = 8						; size = 4
_cliprect$ = 12						; size = 4
?Draw@C_ScrollBar@@UAEXPAVSCREEN@@PAUUI95_RECT@@@Z PROC	; C_ScrollBar::Draw
; _this$ = ecx

; 574  : {

	push	ebp
	mov	ebp, esp
	sub	esp, 40					; 00000028H
	mov	eax, DWORD PTR ___security_cookie
	xor	eax, ebp
	mov	DWORD PTR __$ArrayPad$[ebp], eax
	mov	DWORD PTR _this$[ebp], ecx

; 575  : 	UI95_RECT s,rect;
; 576  : 
; 577  : 	if(!Ready()) return;

	mov	ecx, DWORD PTR _this$[ebp]
	call	?Ready@C_Base@@QAEFXZ			; C_Base::Ready
	cwde
	test	eax, eax
	jne	SHORT $LN13@Draw
	jmp	$LN14@Draw
$LN13@Draw:

; 578  : 
; 579  : 	if(GetFlags() & C_BIT_INVISIBLE)

	mov	ecx, DWORD PTR _this$[ebp]
	call	?GetFlags@C_Base@@QAEJXZ		; C_Base::GetFlags
	and	eax, 8192				; 00002000H
	je	SHORT $LN12@Draw

; 580  : 		return;

	jmp	$LN14@Draw
$LN12@Draw:

; 581  : 
; 582  : 	if(GetFlags() & C_BIT_USEBGIMAGE)

	mov	ecx, DWORD PTR _this$[ebp]
	call	?GetFlags@C_Base@@QAEJXZ		; C_Base::GetFlags
	and	eax, 32768				; 00008000H
	je	SHORT $LN11@Draw

; 583  : 		BgImage_->Draw(surface,cliprect);

	mov	ecx, DWORD PTR _cliprect$[ebp]
	push	ecx
	mov	edx, DWORD PTR _surface$[ebp]
	push	edx
	mov	eax, DWORD PTR _this$[ebp]
	mov	ecx, DWORD PTR [eax+188]
	call	?Draw@O_Output@@QAEXPAVSCREEN@@PAUUI95_RECT@@@Z ; O_Output::Draw
$LN11@Draw:

; 584  : 
; 585  : 	if(GetFlags() & C_BIT_USELINE)

	mov	ecx, DWORD PTR _this$[ebp]
	call	?GetFlags@C_Base@@QAEJXZ		; C_Base::GetFlags
	and	eax, 4194304				; 00400000H
	je	$LN10@Draw

; 586  : 	{
; 587  : 		if(GetType() == C_TYPE_HORIZONTAL)

	mov	ecx, DWORD PTR _this$[ebp]
	call	?GetType@C_Base@@QAEFXZ			; C_Base::GetType
	movsx	ecx, ax
	cmp	ecx, 63					; 0000003fH
	jne	SHORT $LN9@Draw

; 588  : 			Parent_->DrawHLine(surface,LineColor_,GetX()+BGX_,GetY()+BGY_,BGW_,C_BIT_ABSOLUTE,0,cliprect);

	mov	edx, DWORD PTR _cliprect$[ebp]
	push	edx
	push	0
	push	262144					; 00040000H
	mov	eax, DWORD PTR _this$[ebp]
	mov	ecx, DWORD PTR [eax+112]
	push	ecx
	mov	ecx, DWORD PTR _this$[ebp]
	call	?GetY@C_Base@@QAEJXZ			; C_Base::GetY
	mov	edx, DWORD PTR _this$[ebp]
	add	eax, DWORD PTR [edx+108]
	push	eax
	mov	ecx, DWORD PTR _this$[ebp]
	call	?GetX@C_Base@@QAEJXZ			; C_Base::GetX
	mov	ecx, DWORD PTR _this$[ebp]
	add	eax, DWORD PTR [ecx+104]
	push	eax
	mov	edx, DWORD PTR _this$[ebp]
	mov	eax, DWORD PTR [edx+148]
	push	eax
	mov	ecx, DWORD PTR _surface$[ebp]
	push	ecx
	mov	edx, DWORD PTR _this$[ebp]
	mov	ecx, DWORD PTR [edx+48]
	call	?DrawHLine@C_Window@@QAEXPAVSCREEN@@KJJJJJPAUUI95_RECT@@@Z ; C_Window::DrawHLine

; 589  : 		else

	jmp	SHORT $LN10@Draw
$LN9@Draw:

; 590  : 			Parent_->DrawVLine(surface,LineColor_,GetX()+BGX_,GetY()+BGY_,BGH_,C_BIT_ABSOLUTE,0,cliprect);

	mov	eax, DWORD PTR _cliprect$[ebp]
	push	eax
	push	0
	push	262144					; 00040000H
	mov	ecx, DWORD PTR _this$[ebp]
	mov	edx, DWORD PTR [ecx+116]
	push	edx
	mov	ecx, DWORD PTR _this$[ebp]
	call	?GetY@C_Base@@QAEJXZ			; C_Base::GetY
	mov	ecx, DWORD PTR _this$[ebp]
	add	eax, DWORD PTR [ecx+108]
	push	eax
	mov	ecx, DWORD PTR _this$[ebp]
	call	?GetX@C_Base@@QAEJXZ			; C_Base::GetX
	mov	edx, DWORD PTR _this$[ebp]
	add	eax, DWORD PTR [edx+104]
	push	eax
	mov	eax, DWORD PTR _this$[ebp]
	mov	ecx, DWORD PTR [eax+148]
	push	ecx
	mov	edx, DWORD PTR _surface$[ebp]
	push	edx
	mov	eax, DWORD PTR _this$[ebp]
	mov	ecx, DWORD PTR [eax+48]
	call	?DrawVLine@C_Window@@QAEXPAVSCREEN@@KJJJJJPAUUI95_RECT@@@Z ; C_Window::DrawVLine
$LN10@Draw:

; 591  : 		
; 592  : 	}
; 593  : 	if(Minus_)

	mov	ecx, DWORD PTR _this$[ebp]
	cmp	DWORD PTR [ecx+196], 0
	je	SHORT $LN7@Draw

; 594  : 		Minus_->Draw(surface,cliprect);

	mov	edx, DWORD PTR _cliprect$[ebp]
	push	edx
	mov	eax, DWORD PTR _surface$[ebp]
	push	eax
	mov	ecx, DWORD PTR _this$[ebp]
	mov	edx, DWORD PTR [ecx+196]
	mov	eax, DWORD PTR _this$[ebp]
	mov	edx, DWORD PTR [edx]
	mov	ecx, DWORD PTR [eax+196]
	mov	eax, DWORD PTR [edx+164]
	call	eax
$LN7@Draw:

; 595  : 	if(Plus_)

	mov	ecx, DWORD PTR _this$[ebp]
	cmp	DWORD PTR [ecx+192], 0
	je	SHORT $LN6@Draw

; 596  : 		Plus_->Draw(surface,cliprect);

	mov	edx, DWORD PTR _cliprect$[ebp]
	push	edx
	mov	eax, DWORD PTR _surface$[ebp]
	push	eax
	mov	ecx, DWORD PTR _this$[ebp]
	mov	edx, DWORD PTR [ecx+192]
	mov	eax, DWORD PTR _this$[ebp]
	mov	edx, DWORD PTR [edx]
	mov	ecx, DWORD PTR [eax+192]
	mov	eax, DWORD PTR [edx+164]
	call	eax
$LN6@Draw:

; 597  : 	if(Slider_)

	mov	ecx, DWORD PTR _this$[ebp]
	cmp	DWORD PTR [ecx+200], 0
	je	$LN5@Draw

; 598  : 	{
; 599  : 		s.left=0;

	mov	DWORD PTR _s$[ebp], 0

; 600  : 		s.top=0;

	mov	DWORD PTR _s$[ebp+4], 0

; 601  : 		s.right=Slider_->Header->w;

	mov	edx, DWORD PTR _this$[ebp]
	mov	eax, DWORD PTR [edx+200]
	mov	ecx, DWORD PTR [eax+8]
	movsx	edx, WORD PTR [ecx+44]
	mov	DWORD PTR _s$[ebp+8], edx

; 602  : 		s.bottom=Slider_->Header->h;

	mov	eax, DWORD PTR _this$[ebp]
	mov	ecx, DWORD PTR [eax+200]
	mov	edx, DWORD PTR [ecx+8]
	movsx	eax, WORD PTR [edx+46]
	mov	DWORD PTR _s$[ebp+12], eax

; 603  : 
; 604  : 		rect.left=GetX()+SX_;

	mov	ecx, DWORD PTR _this$[ebp]
	call	?GetX@C_Base@@QAEJXZ			; C_Base::GetX
	mov	ecx, DWORD PTR _this$[ebp]
	add	eax, DWORD PTR [ecx+128]
	mov	DWORD PTR _rect$[ebp], eax

; 605  : 		rect.top=GetY()+SY_;

	mov	ecx, DWORD PTR _this$[ebp]
	call	?GetY@C_Base@@QAEJXZ			; C_Base::GetY
	mov	edx, DWORD PTR _this$[ebp]
	add	eax, DWORD PTR [edx+132]
	mov	DWORD PTR _rect$[ebp+4], eax

; 606  : 		rect.right=rect.left+Slider_->Header->w;

	mov	eax, DWORD PTR _this$[ebp]
	mov	ecx, DWORD PTR [eax+200]
	mov	edx, DWORD PTR [ecx+8]
	movsx	eax, WORD PTR [edx+44]
	add	eax, DWORD PTR _rect$[ebp]
	mov	DWORD PTR _rect$[ebp+8], eax

; 607  : 		rect.bottom=rect.top+Slider_->Header->h;

	mov	ecx, DWORD PTR _this$[ebp]
	mov	edx, DWORD PTR [ecx+200]
	mov	eax, DWORD PTR [edx+8]
	movsx	ecx, WORD PTR [eax+46]
	add	ecx, DWORD PTR _rect$[ebp+4]
	mov	DWORD PTR _rect$[ebp+12], ecx

; 608  : 
; 609  : 		if(!Parent_->ClipToArea(&s,&rect,&Parent_->Area_))

	mov	edx, DWORD PTR _this$[ebp]
	mov	eax, DWORD PTR [edx+48]
	add	eax, 112				; 00000070H
	push	eax
	lea	ecx, DWORD PTR _rect$[ebp]
	push	ecx
	lea	edx, DWORD PTR _s$[ebp]
	push	edx
	mov	eax, DWORD PTR _this$[ebp]
	mov	ecx, DWORD PTR [eax+48]
	call	?ClipToArea@C_Window@@QAEHPAUUI95_RECT@@00@Z ; C_Window::ClipToArea
	test	eax, eax
	jne	SHORT $LN4@Draw

; 610  : 			return;

	jmp	$LN14@Draw
$LN4@Draw:

; 611  : 
; 612  : 		if(!Parent_->ClipToArea(&s,&rect,cliprect))

	mov	ecx, DWORD PTR _cliprect$[ebp]
	push	ecx
	lea	edx, DWORD PTR _rect$[ebp]
	push	edx
	lea	eax, DWORD PTR _s$[ebp]
	push	eax
	mov	ecx, DWORD PTR _this$[ebp]
	mov	ecx, DWORD PTR [ecx+48]
	call	?ClipToArea@C_Window@@QAEHPAUUI95_RECT@@00@Z ; C_Window::ClipToArea
	test	eax, eax
	jne	SHORT $LN3@Draw

; 613  : 			return;

	jmp	$LN14@Draw
$LN3@Draw:

; 614  : 
; 615  : 		rect.left+=Parent_->GetX();

	mov	edx, DWORD PTR _this$[ebp]
	mov	ecx, DWORD PTR [edx+48]
	call	?GetX@C_Window@@QAEFXZ			; C_Window::GetX
	cwde
	add	eax, DWORD PTR _rect$[ebp]
	mov	DWORD PTR _rect$[ebp], eax

; 616  : 		rect.top+=Parent_->GetY();

	mov	ecx, DWORD PTR _this$[ebp]
	mov	ecx, DWORD PTR [ecx+48]
	call	?GetY@C_Window@@QAEFXZ			; C_Window::GetY
	movsx	edx, ax
	add	edx, DWORD PTR _rect$[ebp+4]
	mov	DWORD PTR _rect$[ebp+4], edx

; 617  : 		rect.right+=Parent_->GetX();

	mov	eax, DWORD PTR _this$[ebp]
	mov	ecx, DWORD PTR [eax+48]
	call	?GetX@C_Window@@QAEFXZ			; C_Window::GetX
	movsx	ecx, ax
	add	ecx, DWORD PTR _rect$[ebp+8]
	mov	DWORD PTR _rect$[ebp+8], ecx

; 618  : 		rect.bottom+=Parent_->GetY();

	mov	edx, DWORD PTR _this$[ebp]
	mov	ecx, DWORD PTR [edx+48]
	call	?GetY@C_Window@@QAEFXZ			; C_Window::GetY
	cwde
	add	eax, DWORD PTR _rect$[ebp+12]
	mov	DWORD PTR _rect$[ebp+12], eax

; 619  : 
; 620  : 		Slider_->Blit(surface,s.left,s.top,s.right-s.left,s.bottom-s.top,rect.left,rect.top);

	mov	ecx, DWORD PTR _rect$[ebp+4]
	push	ecx
	mov	edx, DWORD PTR _rect$[ebp]
	push	edx
	mov	eax, DWORD PTR _s$[ebp+12]
	sub	eax, DWORD PTR _s$[ebp+4]
	push	eax
	mov	ecx, DWORD PTR _s$[ebp+8]
	sub	ecx, DWORD PTR _s$[ebp]
	push	ecx
	mov	edx, DWORD PTR _s$[ebp+4]
	push	edx
	mov	eax, DWORD PTR _s$[ebp]
	push	eax
	mov	ecx, DWORD PTR _surface$[ebp]
	push	ecx
	mov	edx, DWORD PTR _this$[ebp]
	mov	ecx, DWORD PTR [edx+200]
	call	?Blit@IMAGE_RSC@@QAEXPAVSCREEN@@JJJJJJ@Z ; IMAGE_RSC::Blit
$LN5@Draw:

; 621  : 	}
; 622  : 	if(MouseOver_ || (GetFlags() & C_BIT_FORCEMOUSEOVER))

	mov	eax, DWORD PTR _this$[ebp]
	movsx	ecx, WORD PTR [eax+82]
	test	ecx, ecx
	jne	SHORT $LN1@Draw
	mov	ecx, DWORD PTR _this$[ebp]
	call	?GetFlags@C_Base@@QAEJXZ		; C_Base::GetFlags
	and	eax, 16384				; 00004000H
	je	SHORT $LN14@Draw
$LN1@Draw:

; 623  : 		HighLite(surface,cliprect);

	mov	edx, DWORD PTR _cliprect$[ebp]
	push	edx
	mov	eax, DWORD PTR _surface$[ebp]
	push	eax
	mov	ecx, DWORD PTR _this$[ebp]
	mov	edx, DWORD PTR [ecx]
	mov	ecx, DWORD PTR _this$[ebp]
	mov	eax, DWORD PTR [edx+168]
	call	eax
$LN14@Draw:

; 624  : }

	mov	ecx, DWORD PTR __$ArrayPad$[ebp]
	xor	ecx, ebp
	call	@__security_check_cookie@4
	mov	esp, ebp
	pop	ebp
	ret	8
?Draw@C_ScrollBar@@UAEXPAVSCREEN@@PAUUI95_RECT@@@Z ENDP	; C_ScrollBar::Draw
_TEXT	ENDS
; Function compile flags: /Odtp
; File c:\users\zhitao li\documents\visual studio 2012\projects\freefalcon\ui95\cscroll.cpp
_TEXT	SEGMENT
_this$ = -4						; size = 4
?Refresh@C_ScrollBar@@UAEXXZ PROC			; C_ScrollBar::Refresh
; _this$ = ecx

; 567  : {

	push	ebp
	mov	ebp, esp
	push	ecx
	push	esi
	mov	DWORD PTR _this$[ebp], ecx

; 568  : 	if(!Ready() || GetFlags() & C_BIT_INVISIBLE || Parent_ == NULL)

	mov	ecx, DWORD PTR _this$[ebp]
	call	?Ready@C_Base@@QAEFXZ			; C_Base::Ready
	cwde
	test	eax, eax
	je	SHORT $LN1@Refresh
	mov	ecx, DWORD PTR _this$[ebp]
	call	?GetFlags@C_Base@@QAEJXZ		; C_Base::GetFlags
	and	eax, 8192				; 00002000H
	jne	SHORT $LN1@Refresh
	mov	ecx, DWORD PTR _this$[ebp]
	cmp	DWORD PTR [ecx+48], 0
	jne	SHORT $LN2@Refresh
$LN1@Refresh:

; 569  : 		return;

	jmp	SHORT $LN3@Refresh
$LN2@Refresh:

; 570  : 	Parent_->SetUpdateRect(GetX(),GetY(),GetX()+GetW(),GetY()+GetH(),GetFlags(),GetClient());

	mov	ecx, DWORD PTR _this$[ebp]
	call	?GetClient@C_Base@@QAEFXZ		; C_Base::GetClient
	movsx	edx, ax
	push	edx
	mov	ecx, DWORD PTR _this$[ebp]
	call	?GetFlags@C_Base@@QAEJXZ		; C_Base::GetFlags
	push	eax
	mov	ecx, DWORD PTR _this$[ebp]
	call	?GetY@C_Base@@QAEJXZ			; C_Base::GetY
	mov	esi, eax
	mov	ecx, DWORD PTR _this$[ebp]
	call	?GetH@C_Base@@QAEJXZ			; C_Base::GetH
	add	esi, eax
	push	esi
	mov	ecx, DWORD PTR _this$[ebp]
	call	?GetX@C_Base@@QAEJXZ			; C_Base::GetX
	mov	esi, eax
	mov	ecx, DWORD PTR _this$[ebp]
	call	?GetW@C_Base@@QAEJXZ			; C_Base::GetW
	add	esi, eax
	push	esi
	mov	ecx, DWORD PTR _this$[ebp]
	call	?GetY@C_Base@@QAEJXZ			; C_Base::GetY
	push	eax
	mov	ecx, DWORD PTR _this$[ebp]
	call	?GetX@C_Base@@QAEJXZ			; C_Base::GetX
	push	eax
	mov	eax, DWORD PTR _this$[ebp]
	mov	ecx, DWORD PTR [eax+48]
	call	?SetUpdateRect@C_Window@@QAEXJJJJJJ@Z	; C_Window::SetUpdateRect
$LN3@Refresh:

; 571  : }

	pop	esi
	mov	esp, ebp
	pop	ebp
	ret	0
?Refresh@C_ScrollBar@@UAEXXZ ENDP			; C_ScrollBar::Refresh
_TEXT	ENDS
; Function compile flags: /Odtp
; File c:\users\zhitao li\documents\visual studio 2012\projects\freefalcon\ui95\cscroll.cpp
_TEXT	SEGMENT
tv212 = -20						; size = 4
tv210 = -16						; size = 4
tv185 = -12						; size = 4
tv71 = -8						; size = 4
_this$ = -4						; size = 4
___formal$ = 8						; size = 4
?Dragable@C_ScrollBar@@UAEHJ@Z PROC			; C_ScrollBar::Dragable
; _this$ = ecx

; 550  : {

	push	ebp
	mov	ebp, esp
	sub	esp, 20					; 00000014H
	push	ebx
	push	esi
	push	edi
	mov	DWORD PTR _this$[ebp], ecx

; 551  : 	switch(GetType())

	mov	ecx, DWORD PTR _this$[ebp]
	call	?GetType@C_Base@@QAEFXZ			; C_Base::GetType
	cwde
	mov	DWORD PTR tv71[ebp], eax
	cmp	DWORD PTR tv71[ebp], 62			; 0000003eH
	je	SHORT $LN4@Dragable
	cmp	DWORD PTR tv71[ebp], 63			; 0000003fH
	je	SHORT $LN2@Dragable
	jmp	$LN5@Dragable
$LN4@Dragable:

; 552  : 	{
; 553  : 		case C_TYPE_VERTICAL:
; 554  : 			if(-VirtualH_ < (Parent_->ClientArea_[GetClient()].bottom-Parent_->ClientArea_[GetClient()].top))

	mov	ecx, DWORD PTR _this$[ebp]
	mov	esi, DWORD PTR [ecx+124]
	neg	esi
	mov	edx, DWORD PTR _this$[ebp]
	mov	edi, DWORD PTR [edx+48]
	mov	ecx, DWORD PTR _this$[ebp]
	call	?GetClient@C_Base@@QAEFXZ		; C_Base::GetClient
	movsx	ebx, ax
	shl	ebx, 4
	mov	eax, DWORD PTR _this$[ebp]
	mov	eax, DWORD PTR [eax+48]
	mov	ecx, DWORD PTR _this$[ebp]
	mov	DWORD PTR tv210[ebp], eax
	call	?GetClient@C_Base@@QAEFXZ		; C_Base::GetClient
	movsx	ecx, ax
	shl	ecx, 4
	mov	edx, DWORD PTR [edi+ebx+180]
	mov	edi, DWORD PTR tv210[ebp]
	sub	edx, DWORD PTR [edi+ecx+172]
	cmp	esi, edx
	jge	SHORT $LN3@Dragable

; 555  : 				return(FALSE);

	xor	eax, eax
	jmp	SHORT $LN7@Dragable
$LN3@Dragable:

; 556  : 			break;

	jmp	SHORT $LN5@Dragable
$LN2@Dragable:

; 557  : 		case C_TYPE_HORIZONTAL:
; 558  : 			if(-VirtualW_ < (Parent_->ClientArea_[GetClient()].right-Parent_->ClientArea_[GetClient()].left))

	mov	eax, DWORD PTR _this$[ebp]
	mov	esi, DWORD PTR [eax+120]
	neg	esi
	mov	ecx, DWORD PTR _this$[ebp]
	mov	edi, DWORD PTR [ecx+48]
	mov	ecx, DWORD PTR _this$[ebp]
	call	?GetClient@C_Base@@QAEFXZ		; C_Base::GetClient
	movsx	ebx, ax
	shl	ebx, 4
	mov	edx, DWORD PTR _this$[ebp]
	mov	eax, DWORD PTR [edx+48]
	mov	ecx, DWORD PTR _this$[ebp]
	mov	DWORD PTR tv212[ebp], eax
	call	?GetClient@C_Base@@QAEFXZ		; C_Base::GetClient
	cwde
	shl	eax, 4
	mov	ecx, DWORD PTR [edi+ebx+176]
	mov	edi, DWORD PTR tv212[ebp]
	sub	ecx, DWORD PTR [edi+eax+168]
	cmp	esi, ecx
	jge	SHORT $LN5@Dragable

; 559  : 				return(FALSE);

	xor	eax, eax
	jmp	SHORT $LN7@Dragable
$LN5@Dragable:

; 560  : 			break;
; 561  : 	}
; 562  : 
; 563  : 	return(ControlPressed_ == 3);

	mov	edx, DWORD PTR _this$[ebp]
	movsx	eax, WORD PTR [edx+184]
	cmp	eax, 3
	jne	SHORT $LN9@Dragable
	mov	DWORD PTR tv185[ebp], 1
	jmp	SHORT $LN10@Dragable
$LN9@Dragable:
	mov	DWORD PTR tv185[ebp], 0
$LN10@Dragable:
	mov	eax, DWORD PTR tv185[ebp]
$LN7@Dragable:

; 564  : }

	pop	edi
	pop	esi
	pop	ebx
	mov	esp, ebp
	pop	ebp
	ret	4
?Dragable@C_ScrollBar@@UAEHJ@Z ENDP			; C_ScrollBar::Dragable
_TEXT	ENDS
; Function compile flags: /Odtp
; File c:\users\zhitao li\documents\visual studio 2012\projects\freefalcon\ui95\cscroll.cpp
_TEXT	SEGMENT
_Leave$ = -12						; size = 4
tv93 = -8						; size = 4
_this$ = -4						; size = 4
_increment$ = 8						; size = 4
_MouseX$ = 12						; size = 2
_MouseY$ = 16						; size = 2
?Wheel@C_ScrollBar@@UAEHHGG@Z PROC			; C_ScrollBar::Wheel
; _this$ = ecx

; 626  : BOOL C_ScrollBar::Wheel(int increment, WORD MouseX, WORD MouseY){

	push	ebp
	mov	ebp, esp
	sub	esp, 12					; 0000000cH
	push	ebx
	push	esi
	push	edi
	mov	DWORD PTR _this$[ebp], ecx

; 627  : //	long x,y;
; 628  : 	F4CSECTIONHANDLE* Leave;
; 629  : 
; 630  : 	if(GetFlags() & C_BIT_INVISIBLE){

	mov	ecx, DWORD PTR _this$[ebp]
	call	?GetFlags@C_Base@@QAEJXZ		; C_Base::GetFlags
	and	eax, 8192				; 00002000H
	je	SHORT $LN9@Wheel

; 631  : 		return(FALSE);

	xor	eax, eax
	jmp	$LN10@Wheel
$LN9@Wheel:

; 632  : 	}
; 633  : 
; 634  : 	Leave=UI_Enter(Parent_);

	mov	eax, DWORD PTR _this$[ebp]
	mov	ecx, DWORD PTR [eax+48]
	push	ecx
	call	?UI_Enter@@YAPAUF4CSECTIONHANDLE@@PAVC_Window@@@Z ; UI_Enter
	add	esp, 4
	mov	DWORD PTR _Leave$[ebp], eax

; 635  : 	Refresh();

	mov	edx, DWORD PTR _this$[ebp]
	mov	eax, DWORD PTR [edx]
	mov	ecx, DWORD PTR _this$[ebp]
	mov	edx, DWORD PTR [eax+160]
	call	edx

; 636  : 
; 637  : 	// get position
; 638  : 	switch(GetType())

	mov	ecx, DWORD PTR _this$[ebp]
	call	?GetType@C_Base@@QAEFXZ			; C_Base::GetType
	cwde
	mov	DWORD PTR tv93[ebp], eax
	cmp	DWORD PTR tv93[ebp], 62			; 0000003eH
	je	SHORT $LN6@Wheel
	cmp	DWORD PTR tv93[ebp], 63			; 0000003fH
	je	$LN3@Wheel
	jmp	$LN7@Wheel
$LN6@Wheel:

; 639  : 	{
; 640  : 		case C_TYPE_VERTICAL:
; 641  : 			SY_+=increment;

	mov	ecx, DWORD PTR _this$[ebp]
	mov	edx, DWORD PTR [ecx+132]
	add	edx, DWORD PTR _increment$[ebp]
	mov	eax, DWORD PTR _this$[ebp]
	mov	DWORD PTR [eax+132], edx

; 642  : 			if(SY_ < MinPos_){

	mov	ecx, DWORD PTR _this$[ebp]
	mov	edx, DWORD PTR _this$[ebp]
	mov	eax, DWORD PTR [ecx+132]
	cmp	eax, DWORD PTR [edx+152]
	jge	SHORT $LN5@Wheel

; 643  : 				SY_=MinPos_;

	mov	ecx, DWORD PTR _this$[ebp]
	mov	edx, DWORD PTR _this$[ebp]
	mov	eax, DWORD PTR [edx+152]
	mov	DWORD PTR [ecx+132], eax
$LN5@Wheel:

; 644  : 			}
; 645  : 			if(SY_ > MaxPos_){

	mov	ecx, DWORD PTR _this$[ebp]
	mov	edx, DWORD PTR _this$[ebp]
	mov	eax, DWORD PTR [ecx+132]
	cmp	eax, DWORD PTR [edx+160]
	jle	SHORT $LN4@Wheel

; 646  : 				SY_=MaxPos_;

	mov	ecx, DWORD PTR _this$[ebp]
	mov	edx, DWORD PTR _this$[ebp]
	mov	eax, DWORD PTR [edx+160]
	mov	DWORD PTR [ecx+132], eax
$LN4@Wheel:

; 647  : 			}
; 648  : 			Parent_->VY_[GetClient()]=(SY_-MinPos_)*(VirtualH_+Parent_->ClientArea_[GetClient()].bottom-Parent_->ClientArea_[GetClient()].top)/(MaxPos_-MinPos_) + Parent_->ClientArea_[GetClient()].top;

	mov	ecx, DWORD PTR _this$[ebp]
	mov	edx, DWORD PTR _this$[ebp]
	mov	esi, DWORD PTR [ecx+132]
	sub	esi, DWORD PTR [edx+152]
	mov	eax, DWORD PTR _this$[ebp]
	mov	edi, DWORD PTR [eax+48]
	mov	ecx, DWORD PTR _this$[ebp]
	call	?GetClient@C_Base@@QAEFXZ		; C_Base::GetClient
	movsx	ecx, ax
	shl	ecx, 4
	mov	edx, DWORD PTR _this$[ebp]
	mov	ebx, DWORD PTR [edx+124]
	add	ebx, DWORD PTR [edi+ecx+180]
	mov	eax, DWORD PTR _this$[ebp]
	mov	edi, DWORD PTR [eax+48]
	mov	ecx, DWORD PTR _this$[ebp]
	call	?GetClient@C_Base@@QAEFXZ		; C_Base::GetClient
	movsx	ecx, ax
	shl	ecx, 4
	sub	ebx, DWORD PTR [edi+ecx+172]
	imul	esi, ebx
	mov	edx, DWORD PTR _this$[ebp]
	mov	eax, DWORD PTR _this$[ebp]
	mov	ecx, DWORD PTR [edx+160]
	sub	ecx, DWORD PTR [eax+152]
	mov	eax, esi
	cdq
	idiv	ecx
	mov	esi, eax
	mov	edx, DWORD PTR _this$[ebp]
	mov	edi, DWORD PTR [edx+48]
	mov	ecx, DWORD PTR _this$[ebp]
	call	?GetClient@C_Base@@QAEFXZ		; C_Base::GetClient
	cwde
	shl	eax, 4
	add	esi, DWORD PTR [edi+eax+172]
	mov	ecx, DWORD PTR _this$[ebp]
	mov	edi, DWORD PTR [ecx+48]
	mov	ecx, DWORD PTR _this$[ebp]
	call	?GetClient@C_Base@@QAEFXZ		; C_Base::GetClient
	movsx	edx, ax
	mov	DWORD PTR [edi+edx*4+512], esi

; 649  : 			Parent_->RefreshClient(GetClient());

	mov	ecx, DWORD PTR _this$[ebp]
	call	?GetClient@C_Base@@QAEFXZ		; C_Base::GetClient
	cwde
	push	eax
	mov	ecx, DWORD PTR _this$[ebp]
	mov	ecx, DWORD PTR [ecx+48]
	call	?RefreshClient@C_Window@@QAEXJ@Z	; C_Window::RefreshClient

; 650  : 			break;

	jmp	$LN7@Wheel
$LN3@Wheel:

; 651  : 		case C_TYPE_HORIZONTAL:
; 652  : 			SX_+=increment;

	mov	edx, DWORD PTR _this$[ebp]
	mov	eax, DWORD PTR [edx+128]
	add	eax, DWORD PTR _increment$[ebp]
	mov	ecx, DWORD PTR _this$[ebp]
	mov	DWORD PTR [ecx+128], eax

; 653  : 			if(SX_ < MinPos_){

	mov	edx, DWORD PTR _this$[ebp]
	mov	eax, DWORD PTR _this$[ebp]
	mov	ecx, DWORD PTR [edx+128]
	cmp	ecx, DWORD PTR [eax+152]
	jge	SHORT $LN2@Wheel

; 654  : 				SX_=MinPos_;

	mov	edx, DWORD PTR _this$[ebp]
	mov	eax, DWORD PTR _this$[ebp]
	mov	ecx, DWORD PTR [eax+152]
	mov	DWORD PTR [edx+128], ecx
$LN2@Wheel:

; 655  : 			}
; 656  : 			if(SX_ > MaxPos_){

	mov	edx, DWORD PTR _this$[ebp]
	mov	eax, DWORD PTR _this$[ebp]
	mov	ecx, DWORD PTR [edx+128]
	cmp	ecx, DWORD PTR [eax+160]
	jle	SHORT $LN1@Wheel

; 657  : 				SX_=MaxPos_;

	mov	edx, DWORD PTR _this$[ebp]
	mov	eax, DWORD PTR _this$[ebp]
	mov	ecx, DWORD PTR [eax+160]
	mov	DWORD PTR [edx+128], ecx
$LN1@Wheel:

; 658  : 			}
; 659  : 			Parent_->VX_[GetClient()]=(SX_-MinPos_)*(VirtualW_+Parent_->ClientArea_[GetClient()].right-Parent_->ClientArea_[GetClient()].left)/(MaxPos_-MinPos_) + Parent_->ClientArea_[GetClient()].left;

	mov	edx, DWORD PTR _this$[ebp]
	mov	eax, DWORD PTR _this$[ebp]
	mov	esi, DWORD PTR [edx+128]
	sub	esi, DWORD PTR [eax+152]
	mov	ecx, DWORD PTR _this$[ebp]
	mov	edi, DWORD PTR [ecx+48]
	mov	ecx, DWORD PTR _this$[ebp]
	call	?GetClient@C_Base@@QAEFXZ		; C_Base::GetClient
	movsx	edx, ax
	shl	edx, 4
	mov	eax, DWORD PTR _this$[ebp]
	mov	ebx, DWORD PTR [eax+120]
	add	ebx, DWORD PTR [edi+edx+176]
	mov	ecx, DWORD PTR _this$[ebp]
	mov	edi, DWORD PTR [ecx+48]
	mov	ecx, DWORD PTR _this$[ebp]
	call	?GetClient@C_Base@@QAEFXZ		; C_Base::GetClient
	movsx	edx, ax
	shl	edx, 4
	sub	ebx, DWORD PTR [edi+edx+168]
	imul	esi, ebx
	mov	eax, DWORD PTR _this$[ebp]
	mov	ecx, DWORD PTR _this$[ebp]
	mov	edi, DWORD PTR [eax+160]
	sub	edi, DWORD PTR [ecx+152]
	mov	eax, esi
	cdq
	idiv	edi
	mov	esi, eax
	mov	edx, DWORD PTR _this$[ebp]
	mov	edi, DWORD PTR [edx+48]
	mov	ecx, DWORD PTR _this$[ebp]
	call	?GetClient@C_Base@@QAEFXZ		; C_Base::GetClient
	cwde
	shl	eax, 4
	add	esi, DWORD PTR [edi+eax+168]
	mov	ecx, DWORD PTR _this$[ebp]
	mov	edi, DWORD PTR [ecx+48]
	mov	ecx, DWORD PTR _this$[ebp]
	call	?GetClient@C_Base@@QAEFXZ		; C_Base::GetClient
	movsx	edx, ax
	mov	DWORD PTR [edi+edx*4+480], esi

; 660  : 			Parent_->RefreshClient(GetClient());

	mov	ecx, DWORD PTR _this$[ebp]
	call	?GetClient@C_Base@@QAEFXZ		; C_Base::GetClient
	cwde
	push	eax
	mov	ecx, DWORD PTR _this$[ebp]
	mov	ecx, DWORD PTR [ecx+48]
	call	?RefreshClient@C_Window@@QAEXJ@Z	; C_Window::RefreshClient
$LN7@Wheel:

; 661  : 			break;
; 662  : 	}
; 663  : 	Refresh();

	mov	edx, DWORD PTR _this$[ebp]
	mov	eax, DWORD PTR [edx]
	mov	ecx, DWORD PTR _this$[ebp]
	mov	edx, DWORD PTR [eax+160]
	call	edx

; 664  : 	UI_Leave(Leave);

	mov	eax, DWORD PTR _Leave$[ebp]
	push	eax
	call	?UI_Leave@@YAXPAUF4CSECTIONHANDLE@@@Z	; UI_Leave
	add	esp, 4

; 665  : 	return(TRUE);

	mov	eax, 1
$LN10@Wheel:

; 666  : }

	pop	edi
	pop	esi
	pop	ebx
	mov	esp, ebp
	pop	ebp
	ret	12					; 0000000cH
?Wheel@C_ScrollBar@@UAEHHGG@Z ENDP			; C_ScrollBar::Wheel
_TEXT	ENDS
; Function compile flags: /Odtp
; File c:\users\zhitao li\documents\visual studio 2012\projects\freefalcon\ui95\cscroll.cpp
_TEXT	SEGMENT
tv1970 = -116						; size = 4
tv1966 = -112						; size = 4
tv1968 = -108						; size = 4
tv1964 = -104						; size = 4
tv1960 = -100						; size = 4
tv1962 = -96						; size = 4
tv1958 = -92						; size = 4
tv1954 = -88						; size = 4
tv1956 = -84						; size = 4
tv1952 = -80						; size = 4
tv1948 = -76						; size = 4
tv1950 = -72						; size = 4
tv1946 = -68						; size = 4
tv1944 = -64						; size = 4
tv1417 = -60						; size = 4
tv1233 = -56						; size = 4
tv1215 = -52						; size = 4
tv1098 = -48						; size = 4
tv990 = -44						; size = 4
tv972 = -40						; size = 4
tv779 = -36						; size = 4
tv561 = -32						; size = 4
tv509 = -28						; size = 4
tv407 = -24						; size = 4
tv265 = -20						; size = 4
tv213 = -16						; size = 4
tv90 = -12						; size = 4
tv203 = -8						; size = 4
_this$ = -4						; size = 4
___formal$ = 8						; size = 4
_HitType$ = 12						; size = 2
?Process@C_ScrollBar@@UAEHJF@Z PROC			; C_ScrollBar::Process
; _this$ = ecx

; 430  : {

	push	ebp
	mov	ebp, esp
	sub	esp, 116				; 00000074H
	push	ebx
	push	esi
	push	edi
	mov	DWORD PTR _this$[ebp], ecx

; 431  : 	if(!Ready()) return(FALSE);

	mov	ecx, DWORD PTR _this$[ebp]
	call	?Ready@C_Base@@QAEFXZ			; C_Base::Ready
	cwde
	test	eax, eax
	jne	SHORT $LN42@Process
	xor	eax, eax
	jmp	$LN43@Process
$LN42@Process:

; 432  : 
; 433  : 	gSoundMgr->PlaySound(GetSound(HitType));

	movzx	ecx, WORD PTR _HitType$[ebp]
	push	ecx
	mov	edx, DWORD PTR _this$[ebp]
	mov	eax, DWORD PTR [edx]
	mov	ecx, DWORD PTR _this$[ebp]
	mov	edx, DWORD PTR [eax+132]
	call	edx
	push	eax
	mov	ecx, DWORD PTR ?gSoundMgr@@3PAVC_Sound@@A ; gSoundMgr
	call	?PlaySoundA@C_Sound@@QAEHPAVSOUND_RES@@@Z ; C_Sound::PlaySoundA

; 434  : 
; 435  : 	switch(GetType())

	mov	ecx, DWORD PTR _this$[ebp]
	call	?GetType@C_Base@@QAEFXZ			; C_Base::GetType
	cwde
	mov	DWORD PTR tv90[ebp], eax
	cmp	DWORD PTR tv90[ebp], 62			; 0000003eH
	je	SHORT $LN39@Process
	cmp	DWORD PTR tv90[ebp], 63			; 0000003fH
	je	SHORT $LN37@Process
	jmp	$LN40@Process
$LN39@Process:

; 436  : 	{
; 437  : 		case C_TYPE_VERTICAL:
; 438  : 			if(-VirtualH_ < (Parent_->ClientArea_[GetClient()].bottom-Parent_->ClientArea_[GetClient()].top))

	mov	ecx, DWORD PTR _this$[ebp]
	mov	esi, DWORD PTR [ecx+124]
	neg	esi
	mov	edx, DWORD PTR _this$[ebp]
	mov	edi, DWORD PTR [edx+48]
	mov	ecx, DWORD PTR _this$[ebp]
	call	?GetClient@C_Base@@QAEFXZ		; C_Base::GetClient
	movsx	ebx, ax
	shl	ebx, 4
	mov	eax, DWORD PTR _this$[ebp]
	mov	eax, DWORD PTR [eax+48]
	mov	ecx, DWORD PTR _this$[ebp]
	mov	DWORD PTR tv1944[ebp], eax
	call	?GetClient@C_Base@@QAEFXZ		; C_Base::GetClient
	movsx	ecx, ax
	shl	ecx, 4
	mov	edx, DWORD PTR [edi+ebx+180]
	mov	edi, DWORD PTR tv1944[ebp]
	sub	edx, DWORD PTR [edi+ecx+172]
	cmp	esi, edx
	jge	SHORT $LN38@Process

; 439  : 				return(FALSE);

	xor	eax, eax
	jmp	$LN43@Process
$LN38@Process:

; 440  : 			break;

	jmp	SHORT $LN40@Process
$LN37@Process:

; 441  : 		case C_TYPE_HORIZONTAL:
; 442  : 			if(-VirtualW_ < (Parent_->ClientArea_[GetClient()].right-Parent_->ClientArea_[GetClient()].left))

	mov	eax, DWORD PTR _this$[ebp]
	mov	esi, DWORD PTR [eax+120]
	neg	esi
	mov	ecx, DWORD PTR _this$[ebp]
	mov	edi, DWORD PTR [ecx+48]
	mov	ecx, DWORD PTR _this$[ebp]
	call	?GetClient@C_Base@@QAEFXZ		; C_Base::GetClient
	movsx	ebx, ax
	shl	ebx, 4
	mov	edx, DWORD PTR _this$[ebp]
	mov	eax, DWORD PTR [edx+48]
	mov	ecx, DWORD PTR _this$[ebp]
	mov	DWORD PTR tv1946[ebp], eax
	call	?GetClient@C_Base@@QAEFXZ		; C_Base::GetClient
	cwde
	shl	eax, 4
	mov	ecx, DWORD PTR [edi+ebx+176]
	mov	edi, DWORD PTR tv1946[ebp]
	sub	ecx, DWORD PTR [edi+eax+168]
	cmp	esi, ecx
	jge	SHORT $LN40@Process

; 443  : 				return(FALSE);

	xor	eax, eax
	jmp	$LN43@Process
$LN40@Process:

; 444  : 			break;
; 445  : 	}
; 446  : 
; 447  : 	switch(ControlPressed_)

	mov	edx, DWORD PTR _this$[ebp]
	movsx	eax, WORD PTR [edx+184]
	mov	DWORD PTR tv203[ebp], eax
	mov	ecx, DWORD PTR tv203[ebp]
	sub	ecx, 1
	mov	DWORD PTR tv203[ebp], ecx
	cmp	DWORD PTR tv203[ebp], 4
	ja	$LN34@Process
	mov	edx, DWORD PTR tv203[ebp]
	jmp	DWORD PTR $LN45@Process[edx*4]
$LN33@Process:

; 448  : 	{
; 449  : 		case 1: // Bar Minus side
; 450  : 			if(HitType != C_TYPE_LMOUSEUP)

	movsx	eax, WORD PTR _HitType$[ebp]
	cmp	eax, 52					; 00000034H
	je	SHORT $LN32@Process

; 451  : 				break;

	jmp	$LN34@Process
$LN32@Process:

; 452  : 			switch(GetType())

	mov	ecx, DWORD PTR _this$[ebp]
	call	?GetType@C_Base@@QAEFXZ			; C_Base::GetType
	movsx	ecx, ax
	mov	DWORD PTR tv213[ebp], ecx
	cmp	DWORD PTR tv213[ebp], 62		; 0000003eH
	je	SHORT $LN29@Process
	cmp	DWORD PTR tv213[ebp], 63		; 0000003fH
	je	$LN27@Process
	jmp	$LN30@Process
$LN29@Process:

; 453  : 			{
; 454  : 				case C_TYPE_VERTICAL:
; 455  : 					Parent_->VY_[GetClient()]+=(Parent_->ClientArea_[GetClient()].bottom-Parent_->ClientArea_[GetClient()].top);

	mov	edx, DWORD PTR _this$[ebp]
	mov	esi, DWORD PTR [edx+48]
	mov	ecx, DWORD PTR _this$[ebp]
	call	?GetClient@C_Base@@QAEFXZ		; C_Base::GetClient
	cwde
	lea	ecx, DWORD PTR [esi+eax*4+512]
	mov	DWORD PTR tv265[ebp], ecx
	mov	edx, DWORD PTR _this$[ebp]
	mov	esi, DWORD PTR [edx+48]
	mov	ecx, DWORD PTR _this$[ebp]
	call	?GetClient@C_Base@@QAEFXZ		; C_Base::GetClient
	movsx	edi, ax
	shl	edi, 4
	mov	eax, DWORD PTR _this$[ebp]
	mov	ebx, DWORD PTR [eax+48]
	mov	ecx, DWORD PTR _this$[ebp]
	call	?GetClient@C_Base@@QAEFXZ		; C_Base::GetClient
	movsx	ecx, ax
	shl	ecx, 4
	mov	edx, DWORD PTR [esi+edi+180]
	sub	edx, DWORD PTR [ebx+ecx+172]
	mov	eax, DWORD PTR tv265[ebp]
	add	edx, DWORD PTR [eax]
	mov	ecx, DWORD PTR tv265[ebp]
	mov	DWORD PTR [ecx], edx

; 456  : 					if(Parent_->VY_[GetClient()] > Parent_->ClientArea_[GetClient()].top)

	mov	edx, DWORD PTR _this$[ebp]
	mov	esi, DWORD PTR [edx+48]
	mov	ecx, DWORD PTR _this$[ebp]
	call	?GetClient@C_Base@@QAEFXZ		; C_Base::GetClient
	movsx	edi, ax
	mov	eax, DWORD PTR _this$[ebp]
	mov	ebx, DWORD PTR [eax+48]
	mov	ecx, DWORD PTR _this$[ebp]
	call	?GetClient@C_Base@@QAEFXZ		; C_Base::GetClient
	movsx	ecx, ax
	shl	ecx, 4
	mov	edx, DWORD PTR [esi+edi*4+512]
	cmp	edx, DWORD PTR [ebx+ecx+172]
	jle	SHORT $LN28@Process

; 457  : 						Parent_->VY_[GetClient()]=Parent_->ClientArea_[GetClient()].top;

	mov	eax, DWORD PTR _this$[ebp]
	mov	esi, DWORD PTR [eax+48]
	mov	ecx, DWORD PTR _this$[ebp]
	call	?GetClient@C_Base@@QAEFXZ		; C_Base::GetClient
	movsx	edi, ax
	shl	edi, 4
	mov	ecx, DWORD PTR _this$[ebp]
	mov	ebx, DWORD PTR [ecx+48]
	mov	ecx, DWORD PTR _this$[ebp]
	call	?GetClient@C_Base@@QAEFXZ		; C_Base::GetClient
	movsx	edx, ax
	mov	eax, DWORD PTR [esi+edi+172]
	mov	DWORD PTR [ebx+edx*4+512], eax
$LN28@Process:

; 458  : 					UpdatePosition();

	mov	ecx, DWORD PTR _this$[ebp]
	call	?UpdatePosition@C_ScrollBar@@QAEXXZ	; C_ScrollBar::UpdatePosition

; 459  : 					Refresh();

	mov	ecx, DWORD PTR _this$[ebp]
	mov	edx, DWORD PTR [ecx]
	mov	ecx, DWORD PTR _this$[ebp]
	mov	eax, DWORD PTR [edx+160]
	call	eax

; 460  : 					Parent_->RefreshClient(GetClient());

	mov	ecx, DWORD PTR _this$[ebp]
	call	?GetClient@C_Base@@QAEFXZ		; C_Base::GetClient
	movsx	ecx, ax
	push	ecx
	mov	edx, DWORD PTR _this$[ebp]
	mov	ecx, DWORD PTR [edx+48]
	call	?RefreshClient@C_Window@@QAEXJ@Z	; C_Window::RefreshClient

; 461  : 					break;

	jmp	$LN30@Process
$LN27@Process:

; 462  : 				case C_TYPE_HORIZONTAL:
; 463  : 					Parent_->VX_[GetClient()]+=(Parent_->ClientArea_[GetClient()].right-Parent_->ClientArea_[GetClient()].left);

	mov	eax, DWORD PTR _this$[ebp]
	mov	esi, DWORD PTR [eax+48]
	mov	ecx, DWORD PTR _this$[ebp]
	call	?GetClient@C_Base@@QAEFXZ		; C_Base::GetClient
	movsx	ecx, ax
	lea	edx, DWORD PTR [esi+ecx*4+480]
	mov	DWORD PTR tv407[ebp], edx
	mov	eax, DWORD PTR _this$[ebp]
	mov	esi, DWORD PTR [eax+48]
	mov	ecx, DWORD PTR _this$[ebp]
	call	?GetClient@C_Base@@QAEFXZ		; C_Base::GetClient
	movsx	edi, ax
	shl	edi, 4
	mov	ecx, DWORD PTR _this$[ebp]
	mov	ebx, DWORD PTR [ecx+48]
	mov	ecx, DWORD PTR _this$[ebp]
	call	?GetClient@C_Base@@QAEFXZ		; C_Base::GetClient
	movsx	edx, ax
	shl	edx, 4
	mov	eax, DWORD PTR [esi+edi+176]
	sub	eax, DWORD PTR [ebx+edx+168]
	mov	ecx, DWORD PTR tv407[ebp]
	add	eax, DWORD PTR [ecx]
	mov	edx, DWORD PTR tv407[ebp]
	mov	DWORD PTR [edx], eax

; 464  : 					if(Parent_->VX_[GetClient()] > Parent_->ClientArea_[GetClient()].left)

	mov	eax, DWORD PTR _this$[ebp]
	mov	esi, DWORD PTR [eax+48]
	mov	ecx, DWORD PTR _this$[ebp]
	call	?GetClient@C_Base@@QAEFXZ		; C_Base::GetClient
	movsx	edi, ax
	mov	ecx, DWORD PTR _this$[ebp]
	mov	ebx, DWORD PTR [ecx+48]
	mov	ecx, DWORD PTR _this$[ebp]
	call	?GetClient@C_Base@@QAEFXZ		; C_Base::GetClient
	movsx	edx, ax
	shl	edx, 4
	mov	eax, DWORD PTR [esi+edi*4+480]
	cmp	eax, DWORD PTR [ebx+edx+168]
	jle	SHORT $LN26@Process

; 465  : 						Parent_->VX_[GetClient()]=Parent_->ClientArea_[GetClient()].left;

	mov	ecx, DWORD PTR _this$[ebp]
	mov	esi, DWORD PTR [ecx+48]
	mov	ecx, DWORD PTR _this$[ebp]
	call	?GetClient@C_Base@@QAEFXZ		; C_Base::GetClient
	movsx	edi, ax
	shl	edi, 4
	mov	edx, DWORD PTR _this$[ebp]
	mov	ebx, DWORD PTR [edx+48]
	mov	ecx, DWORD PTR _this$[ebp]
	call	?GetClient@C_Base@@QAEFXZ		; C_Base::GetClient
	cwde
	mov	ecx, DWORD PTR [esi+edi+168]
	mov	DWORD PTR [ebx+eax*4+480], ecx
$LN26@Process:

; 466  : 					UpdatePosition();

	mov	ecx, DWORD PTR _this$[ebp]
	call	?UpdatePosition@C_ScrollBar@@QAEXXZ	; C_ScrollBar::UpdatePosition

; 467  : 					Refresh();

	mov	edx, DWORD PTR _this$[ebp]
	mov	eax, DWORD PTR [edx]
	mov	ecx, DWORD PTR _this$[ebp]
	mov	edx, DWORD PTR [eax+160]
	call	edx

; 468  : 					Parent_->RefreshClient(GetClient());

	mov	ecx, DWORD PTR _this$[ebp]
	call	?GetClient@C_Base@@QAEFXZ		; C_Base::GetClient
	cwde
	push	eax
	mov	ecx, DWORD PTR _this$[ebp]
	mov	ecx, DWORD PTR [ecx+48]
	call	?RefreshClient@C_Window@@QAEXJ@Z	; C_Window::RefreshClient
$LN30@Process:

; 469  : 					break;
; 470  : 			}
; 471  : 			break;

	jmp	$LN34@Process
$LN25@Process:

; 472  : 		case 2: // Bar Plus Side
; 473  : 			if(HitType != C_TYPE_LMOUSEUP)

	movsx	edx, WORD PTR _HitType$[ebp]
	cmp	edx, 52					; 00000034H
	je	SHORT $LN24@Process

; 474  : 				break;

	jmp	$LN34@Process
$LN24@Process:

; 475  : 			switch(GetType())

	mov	ecx, DWORD PTR _this$[ebp]
	call	?GetType@C_Base@@QAEFXZ			; C_Base::GetType
	cwde
	mov	DWORD PTR tv509[ebp], eax
	cmp	DWORD PTR tv509[ebp], 62		; 0000003eH
	je	SHORT $LN21@Process
	cmp	DWORD PTR tv509[ebp], 63		; 0000003fH
	je	$LN19@Process
	jmp	$LN22@Process
$LN21@Process:

; 476  : 			{
; 477  : 				case C_TYPE_VERTICAL:
; 478  : 					Parent_->VY_[GetClient()]-=(Parent_->ClientArea_[GetClient()].bottom-Parent_->ClientArea_[GetClient()].top);

	mov	ecx, DWORD PTR _this$[ebp]
	mov	esi, DWORD PTR [ecx+48]
	mov	ecx, DWORD PTR _this$[ebp]
	call	?GetClient@C_Base@@QAEFXZ		; C_Base::GetClient
	movsx	edx, ax
	lea	eax, DWORD PTR [esi+edx*4+512]
	mov	DWORD PTR tv561[ebp], eax
	mov	ecx, DWORD PTR _this$[ebp]
	mov	esi, DWORD PTR [ecx+48]
	mov	ecx, DWORD PTR _this$[ebp]
	call	?GetClient@C_Base@@QAEFXZ		; C_Base::GetClient
	movsx	edi, ax
	shl	edi, 4
	mov	edx, DWORD PTR _this$[ebp]
	mov	ebx, DWORD PTR [edx+48]
	mov	ecx, DWORD PTR _this$[ebp]
	call	?GetClient@C_Base@@QAEFXZ		; C_Base::GetClient
	cwde
	shl	eax, 4
	mov	ecx, DWORD PTR [esi+edi+180]
	sub	ecx, DWORD PTR [ebx+eax+172]
	mov	edx, DWORD PTR tv561[ebp]
	mov	eax, DWORD PTR [edx]
	sub	eax, ecx
	mov	ecx, DWORD PTR tv561[ebp]
	mov	DWORD PTR [ecx], eax

; 479  : 					if(Parent_->VY_[GetClient()] < (VirtualH_+(Parent_->ClientArea_[GetClient()].bottom-Parent_->ClientArea_[GetClient()].top)+Parent_->ClientArea_[GetClient()].top))

	mov	edx, DWORD PTR _this$[ebp]
	mov	esi, DWORD PTR [edx+48]
	mov	ecx, DWORD PTR _this$[ebp]
	call	?GetClient@C_Base@@QAEFXZ		; C_Base::GetClient
	movsx	edi, ax
	mov	eax, DWORD PTR _this$[ebp]
	mov	ebx, DWORD PTR [eax+48]
	mov	ecx, DWORD PTR _this$[ebp]
	call	?GetClient@C_Base@@QAEFXZ		; C_Base::GetClient
	cwde
	shl	eax, 4
	mov	ecx, DWORD PTR _this$[ebp]
	mov	ecx, DWORD PTR [ecx+48]
	mov	DWORD PTR tv1948[ebp], ecx
	mov	ecx, DWORD PTR _this$[ebp]
	mov	DWORD PTR tv1950[ebp], eax
	call	?GetClient@C_Base@@QAEFXZ		; C_Base::GetClient
	movsx	edx, ax
	shl	edx, 4
	mov	eax, DWORD PTR tv1950[ebp]
	mov	eax, DWORD PTR [ebx+eax+180]
	mov	ebx, DWORD PTR tv1948[ebp]
	sub	eax, DWORD PTR [ebx+edx+172]
	mov	ecx, DWORD PTR _this$[ebp]
	mov	ebx, DWORD PTR [ecx+124]
	add	ebx, eax
	mov	edx, DWORD PTR _this$[ebp]
	mov	eax, DWORD PTR [edx+48]
	mov	ecx, DWORD PTR _this$[ebp]
	mov	DWORD PTR tv1952[ebp], eax
	call	?GetClient@C_Base@@QAEFXZ		; C_Base::GetClient
	cwde
	shl	eax, 4
	mov	ecx, DWORD PTR tv1952[ebp]
	add	ebx, DWORD PTR [ecx+eax+172]
	cmp	DWORD PTR [esi+edi*4+512], ebx
	jge	SHORT $LN20@Process

; 480  : 						Parent_->VY_[GetClient()]=VirtualH_+(Parent_->ClientArea_[GetClient()].bottom-Parent_->ClientArea_[GetClient()].top)+Parent_->ClientArea_[GetClient()].top;

	mov	ecx, DWORD PTR _this$[ebp]
	mov	esi, DWORD PTR [ecx+48]
	mov	ecx, DWORD PTR _this$[ebp]
	call	?GetClient@C_Base@@QAEFXZ		; C_Base::GetClient
	movsx	edi, ax
	shl	edi, 4
	mov	edx, DWORD PTR _this$[ebp]
	mov	ebx, DWORD PTR [edx+48]
	mov	ecx, DWORD PTR _this$[ebp]
	call	?GetClient@C_Base@@QAEFXZ		; C_Base::GetClient
	cwde
	shl	eax, 4
	mov	ecx, DWORD PTR [esi+edi+180]
	sub	ecx, DWORD PTR [ebx+eax+172]
	mov	edx, DWORD PTR _this$[ebp]
	mov	esi, DWORD PTR [edx+124]
	add	esi, ecx
	mov	eax, DWORD PTR _this$[ebp]
	mov	edi, DWORD PTR [eax+48]
	mov	ecx, DWORD PTR _this$[ebp]
	call	?GetClient@C_Base@@QAEFXZ		; C_Base::GetClient
	movsx	ecx, ax
	shl	ecx, 4
	add	esi, DWORD PTR [edi+ecx+172]
	mov	edx, DWORD PTR _this$[ebp]
	mov	edi, DWORD PTR [edx+48]
	mov	ecx, DWORD PTR _this$[ebp]
	call	?GetClient@C_Base@@QAEFXZ		; C_Base::GetClient
	cwde
	mov	DWORD PTR [edi+eax*4+512], esi
$LN20@Process:

; 481  : 					UpdatePosition();

	mov	ecx, DWORD PTR _this$[ebp]
	call	?UpdatePosition@C_ScrollBar@@QAEXXZ	; C_ScrollBar::UpdatePosition

; 482  : 					Refresh();

	mov	ecx, DWORD PTR _this$[ebp]
	mov	edx, DWORD PTR [ecx]
	mov	ecx, DWORD PTR _this$[ebp]
	mov	eax, DWORD PTR [edx+160]
	call	eax

; 483  : 					Parent_->RefreshClient(GetClient());

	mov	ecx, DWORD PTR _this$[ebp]
	call	?GetClient@C_Base@@QAEFXZ		; C_Base::GetClient
	movsx	ecx, ax
	push	ecx
	mov	edx, DWORD PTR _this$[ebp]
	mov	ecx, DWORD PTR [edx+48]
	call	?RefreshClient@C_Window@@QAEXJ@Z	; C_Window::RefreshClient

; 484  : 					break;

	jmp	$LN22@Process
$LN19@Process:

; 485  : 				case C_TYPE_HORIZONTAL:
; 486  : 					Parent_->VX_[GetClient()]-=(Parent_->ClientArea_[GetClient()].right-Parent_->ClientArea_[GetClient()].left);

	mov	eax, DWORD PTR _this$[ebp]
	mov	esi, DWORD PTR [eax+48]
	mov	ecx, DWORD PTR _this$[ebp]
	call	?GetClient@C_Base@@QAEFXZ		; C_Base::GetClient
	movsx	ecx, ax
	lea	edx, DWORD PTR [esi+ecx*4+480]
	mov	DWORD PTR tv779[ebp], edx
	mov	eax, DWORD PTR _this$[ebp]
	mov	esi, DWORD PTR [eax+48]
	mov	ecx, DWORD PTR _this$[ebp]
	call	?GetClient@C_Base@@QAEFXZ		; C_Base::GetClient
	movsx	edi, ax
	shl	edi, 4
	mov	ecx, DWORD PTR _this$[ebp]
	mov	ebx, DWORD PTR [ecx+48]
	mov	ecx, DWORD PTR _this$[ebp]
	call	?GetClient@C_Base@@QAEFXZ		; C_Base::GetClient
	movsx	edx, ax
	shl	edx, 4
	mov	eax, DWORD PTR [esi+edi+176]
	sub	eax, DWORD PTR [ebx+edx+168]
	mov	ecx, DWORD PTR tv779[ebp]
	mov	edx, DWORD PTR [ecx]
	sub	edx, eax
	mov	eax, DWORD PTR tv779[ebp]
	mov	DWORD PTR [eax], edx

; 487  : 					if(Parent_->VX_[GetClient()] < (VirtualW_+(Parent_->ClientArea_[GetClient()].right-Parent_->ClientArea_[GetClient()].left)+Parent_->ClientArea_[GetClient()].left))

	mov	ecx, DWORD PTR _this$[ebp]
	mov	esi, DWORD PTR [ecx+48]
	mov	ecx, DWORD PTR _this$[ebp]
	call	?GetClient@C_Base@@QAEFXZ		; C_Base::GetClient
	movsx	edi, ax
	mov	edx, DWORD PTR _this$[ebp]
	mov	ebx, DWORD PTR [edx+48]
	mov	ecx, DWORD PTR _this$[ebp]
	call	?GetClient@C_Base@@QAEFXZ		; C_Base::GetClient
	cwde
	shl	eax, 4
	mov	ecx, DWORD PTR _this$[ebp]
	mov	ecx, DWORD PTR [ecx+48]
	mov	DWORD PTR tv1954[ebp], ecx
	mov	ecx, DWORD PTR _this$[ebp]
	mov	DWORD PTR tv1956[ebp], eax
	call	?GetClient@C_Base@@QAEFXZ		; C_Base::GetClient
	movsx	edx, ax
	shl	edx, 4
	mov	eax, DWORD PTR tv1956[ebp]
	mov	eax, DWORD PTR [ebx+eax+176]
	mov	ebx, DWORD PTR tv1954[ebp]
	sub	eax, DWORD PTR [ebx+edx+168]
	mov	ecx, DWORD PTR _this$[ebp]
	mov	ebx, DWORD PTR [ecx+120]
	add	ebx, eax
	mov	edx, DWORD PTR _this$[ebp]
	mov	eax, DWORD PTR [edx+48]
	mov	ecx, DWORD PTR _this$[ebp]
	mov	DWORD PTR tv1958[ebp], eax
	call	?GetClient@C_Base@@QAEFXZ		; C_Base::GetClient
	cwde
	shl	eax, 4
	mov	ecx, DWORD PTR tv1958[ebp]
	add	ebx, DWORD PTR [ecx+eax+168]
	cmp	DWORD PTR [esi+edi*4+480], ebx
	jge	SHORT $LN18@Process

; 488  : 						Parent_->VX_[GetClient()]=VirtualW_+(Parent_->ClientArea_[GetClient()].right-Parent_->ClientArea_[GetClient()].left)+Parent_->ClientArea_[GetClient()].left;

	mov	ecx, DWORD PTR _this$[ebp]
	mov	esi, DWORD PTR [ecx+48]
	mov	ecx, DWORD PTR _this$[ebp]
	call	?GetClient@C_Base@@QAEFXZ		; C_Base::GetClient
	movsx	edi, ax
	shl	edi, 4
	mov	edx, DWORD PTR _this$[ebp]
	mov	ebx, DWORD PTR [edx+48]
	mov	ecx, DWORD PTR _this$[ebp]
	call	?GetClient@C_Base@@QAEFXZ		; C_Base::GetClient
	cwde
	shl	eax, 4
	mov	ecx, DWORD PTR [esi+edi+176]
	sub	ecx, DWORD PTR [ebx+eax+168]
	mov	edx, DWORD PTR _this$[ebp]
	mov	esi, DWORD PTR [edx+120]
	add	esi, ecx
	mov	eax, DWORD PTR _this$[ebp]
	mov	edi, DWORD PTR [eax+48]
	mov	ecx, DWORD PTR _this$[ebp]
	call	?GetClient@C_Base@@QAEFXZ		; C_Base::GetClient
	movsx	ecx, ax
	shl	ecx, 4
	add	esi, DWORD PTR [edi+ecx+168]
	mov	edx, DWORD PTR _this$[ebp]
	mov	edi, DWORD PTR [edx+48]
	mov	ecx, DWORD PTR _this$[ebp]
	call	?GetClient@C_Base@@QAEFXZ		; C_Base::GetClient
	cwde
	mov	DWORD PTR [edi+eax*4+480], esi
$LN18@Process:

; 489  : 					UpdatePosition();

	mov	ecx, DWORD PTR _this$[ebp]
	call	?UpdatePosition@C_ScrollBar@@QAEXXZ	; C_ScrollBar::UpdatePosition

; 490  : 					Refresh();

	mov	ecx, DWORD PTR _this$[ebp]
	mov	edx, DWORD PTR [ecx]
	mov	ecx, DWORD PTR _this$[ebp]
	mov	eax, DWORD PTR [edx+160]
	call	eax

; 491  : 					Parent_->RefreshClient(GetClient());

	mov	ecx, DWORD PTR _this$[ebp]
	call	?GetClient@C_Base@@QAEFXZ		; C_Base::GetClient
	movsx	ecx, ax
	push	ecx
	mov	edx, DWORD PTR _this$[ebp]
	mov	ecx, DWORD PTR [edx+48]
	call	?RefreshClient@C_Window@@QAEXJ@Z	; C_Window::RefreshClient
$LN22@Process:

; 492  : 					break;
; 493  : 			}
; 494  : 			break;

	jmp	$LN34@Process

; 495  : 		case 3: // Slider knob
; 496  : 			break;

	jmp	$LN34@Process
$LN16@Process:

; 497  : 		case 4: // Minus Button
; 498  : 			Minus_->Process(4,HitType);

	movzx	eax, WORD PTR _HitType$[ebp]
	push	eax
	push	4
	mov	ecx, DWORD PTR _this$[ebp]
	mov	edx, DWORD PTR [ecx+196]
	mov	eax, DWORD PTR _this$[ebp]
	mov	edx, DWORD PTR [edx]
	mov	ecx, DWORD PTR [eax+196]
	mov	eax, DWORD PTR [edx+200]
	call	eax

; 499  : 			if(HitType != C_TYPE_LMOUSEUP && HitType != C_TYPE_REPEAT)

	movsx	ecx, WORD PTR _HitType$[ebp]
	cmp	ecx, 52					; 00000034H
	je	SHORT $LN15@Process
	movsx	edx, WORD PTR _HitType$[ebp]
	cmp	edx, 70					; 00000046H
	je	SHORT $LN15@Process

; 500  : 				break;

	jmp	$LN34@Process
$LN15@Process:

; 501  : 			switch(GetType())

	mov	ecx, DWORD PTR _this$[ebp]
	call	?GetType@C_Base@@QAEFXZ			; C_Base::GetType
	cwde
	mov	DWORD PTR tv972[ebp], eax
	cmp	DWORD PTR tv972[ebp], 62		; 0000003eH
	je	SHORT $LN12@Process
	cmp	DWORD PTR tv972[ebp], 63		; 0000003fH
	je	$LN10@Process
	jmp	$LN13@Process
$LN12@Process:

; 502  : 			{
; 503  : 				case C_TYPE_VERTICAL:
; 504  : 					Parent_->VY_[GetClient()]+=Distance_;

	mov	ecx, DWORD PTR _this$[ebp]
	mov	esi, DWORD PTR [ecx+48]
	mov	ecx, DWORD PTR _this$[ebp]
	call	?GetClient@C_Base@@QAEFXZ		; C_Base::GetClient
	movsx	edx, ax
	lea	eax, DWORD PTR [esi+edx*4+512]
	mov	DWORD PTR tv990[ebp], eax
	mov	ecx, DWORD PTR tv990[ebp]
	mov	edx, DWORD PTR [ecx]
	mov	eax, DWORD PTR _this$[ebp]
	add	edx, DWORD PTR [eax+156]
	mov	ecx, DWORD PTR tv990[ebp]
	mov	DWORD PTR [ecx], edx

; 505  : 					if(Parent_->VY_[GetClient()] > Parent_->ClientArea_[GetClient()].top)

	mov	edx, DWORD PTR _this$[ebp]
	mov	esi, DWORD PTR [edx+48]
	mov	ecx, DWORD PTR _this$[ebp]
	call	?GetClient@C_Base@@QAEFXZ		; C_Base::GetClient
	movsx	edi, ax
	mov	eax, DWORD PTR _this$[ebp]
	mov	ebx, DWORD PTR [eax+48]
	mov	ecx, DWORD PTR _this$[ebp]
	call	?GetClient@C_Base@@QAEFXZ		; C_Base::GetClient
	movsx	ecx, ax
	shl	ecx, 4
	mov	edx, DWORD PTR [esi+edi*4+512]
	cmp	edx, DWORD PTR [ebx+ecx+172]
	jle	SHORT $LN11@Process

; 506  : 						Parent_->VY_[GetClient()]=Parent_->ClientArea_[GetClient()].top;

	mov	eax, DWORD PTR _this$[ebp]
	mov	esi, DWORD PTR [eax+48]
	mov	ecx, DWORD PTR _this$[ebp]
	call	?GetClient@C_Base@@QAEFXZ		; C_Base::GetClient
	movsx	edi, ax
	shl	edi, 4
	mov	ecx, DWORD PTR _this$[ebp]
	mov	ebx, DWORD PTR [ecx+48]
	mov	ecx, DWORD PTR _this$[ebp]
	call	?GetClient@C_Base@@QAEFXZ		; C_Base::GetClient
	movsx	edx, ax
	mov	eax, DWORD PTR [esi+edi+172]
	mov	DWORD PTR [ebx+edx*4+512], eax
$LN11@Process:

; 507  : 					UpdatePosition();

	mov	ecx, DWORD PTR _this$[ebp]
	call	?UpdatePosition@C_ScrollBar@@QAEXXZ	; C_ScrollBar::UpdatePosition

; 508  : 					Refresh();

	mov	ecx, DWORD PTR _this$[ebp]
	mov	edx, DWORD PTR [ecx]
	mov	ecx, DWORD PTR _this$[ebp]
	mov	eax, DWORD PTR [edx+160]
	call	eax

; 509  : 					Parent_->RefreshClient(GetClient());

	mov	ecx, DWORD PTR _this$[ebp]
	call	?GetClient@C_Base@@QAEFXZ		; C_Base::GetClient
	movsx	ecx, ax
	push	ecx
	mov	edx, DWORD PTR _this$[ebp]
	mov	ecx, DWORD PTR [edx+48]
	call	?RefreshClient@C_Window@@QAEXJ@Z	; C_Window::RefreshClient

; 510  : 					break;

	jmp	$LN13@Process
$LN10@Process:

; 511  : 				case C_TYPE_HORIZONTAL:
; 512  : 					Parent_->VX_[GetClient()]+=Distance_;

	mov	eax, DWORD PTR _this$[ebp]
	mov	esi, DWORD PTR [eax+48]
	mov	ecx, DWORD PTR _this$[ebp]
	call	?GetClient@C_Base@@QAEFXZ		; C_Base::GetClient
	movsx	ecx, ax
	lea	edx, DWORD PTR [esi+ecx*4+480]
	mov	DWORD PTR tv1098[ebp], edx
	mov	eax, DWORD PTR tv1098[ebp]
	mov	ecx, DWORD PTR [eax]
	mov	edx, DWORD PTR _this$[ebp]
	add	ecx, DWORD PTR [edx+156]
	mov	eax, DWORD PTR tv1098[ebp]
	mov	DWORD PTR [eax], ecx

; 513  : 					if(Parent_->VX_[GetClient()] > Parent_->ClientArea_[GetClient()].left)

	mov	ecx, DWORD PTR _this$[ebp]
	mov	esi, DWORD PTR [ecx+48]
	mov	ecx, DWORD PTR _this$[ebp]
	call	?GetClient@C_Base@@QAEFXZ		; C_Base::GetClient
	movsx	edi, ax
	mov	edx, DWORD PTR _this$[ebp]
	mov	ebx, DWORD PTR [edx+48]
	mov	ecx, DWORD PTR _this$[ebp]
	call	?GetClient@C_Base@@QAEFXZ		; C_Base::GetClient
	cwde
	shl	eax, 4
	mov	ecx, DWORD PTR [esi+edi*4+480]
	cmp	ecx, DWORD PTR [ebx+eax+168]
	jle	SHORT $LN9@Process

; 514  : 						Parent_->VX_[GetClient()]=Parent_->ClientArea_[GetClient()].left;

	mov	edx, DWORD PTR _this$[ebp]
	mov	esi, DWORD PTR [edx+48]
	mov	ecx, DWORD PTR _this$[ebp]
	call	?GetClient@C_Base@@QAEFXZ		; C_Base::GetClient
	movsx	edi, ax
	shl	edi, 4
	mov	eax, DWORD PTR _this$[ebp]
	mov	ebx, DWORD PTR [eax+48]
	mov	ecx, DWORD PTR _this$[ebp]
	call	?GetClient@C_Base@@QAEFXZ		; C_Base::GetClient
	movsx	ecx, ax
	mov	edx, DWORD PTR [esi+edi+168]
	mov	DWORD PTR [ebx+ecx*4+480], edx
$LN9@Process:

; 515  : 					UpdatePosition();

	mov	ecx, DWORD PTR _this$[ebp]
	call	?UpdatePosition@C_ScrollBar@@QAEXXZ	; C_ScrollBar::UpdatePosition

; 516  : 					Refresh();

	mov	eax, DWORD PTR _this$[ebp]
	mov	edx, DWORD PTR [eax]
	mov	ecx, DWORD PTR _this$[ebp]
	mov	eax, DWORD PTR [edx+160]
	call	eax

; 517  : 					Parent_->RefreshClient(GetClient());

	mov	ecx, DWORD PTR _this$[ebp]
	call	?GetClient@C_Base@@QAEFXZ		; C_Base::GetClient
	movsx	ecx, ax
	push	ecx
	mov	edx, DWORD PTR _this$[ebp]
	mov	ecx, DWORD PTR [edx+48]
	call	?RefreshClient@C_Window@@QAEXJ@Z	; C_Window::RefreshClient
$LN13@Process:

; 518  : 					break;
; 519  : 			}
; 520  : 			break;

	jmp	$LN34@Process
$LN8@Process:

; 521  : 		case 5: // Plus Button
; 522  : 			Plus_->Process(5,HitType);

	movzx	eax, WORD PTR _HitType$[ebp]
	push	eax
	push	5
	mov	ecx, DWORD PTR _this$[ebp]
	mov	edx, DWORD PTR [ecx+192]
	mov	eax, DWORD PTR _this$[ebp]
	mov	edx, DWORD PTR [edx]
	mov	ecx, DWORD PTR [eax+192]
	mov	eax, DWORD PTR [edx+200]
	call	eax

; 523  : 			if(HitType != C_TYPE_LMOUSEUP && HitType != C_TYPE_REPEAT)

	movsx	ecx, WORD PTR _HitType$[ebp]
	cmp	ecx, 52					; 00000034H
	je	SHORT $LN7@Process
	movsx	edx, WORD PTR _HitType$[ebp]
	cmp	edx, 70					; 00000046H
	je	SHORT $LN7@Process

; 524  : 				break;

	jmp	$LN34@Process
$LN7@Process:

; 525  : 			switch(GetType())

	mov	ecx, DWORD PTR _this$[ebp]
	call	?GetType@C_Base@@QAEFXZ			; C_Base::GetType
	cwde
	mov	DWORD PTR tv1215[ebp], eax
	cmp	DWORD PTR tv1215[ebp], 62		; 0000003eH
	je	SHORT $LN4@Process
	cmp	DWORD PTR tv1215[ebp], 63		; 0000003fH
	je	$LN2@Process
	jmp	$LN34@Process
$LN4@Process:

; 526  : 			{
; 527  : 				case C_TYPE_VERTICAL:
; 528  : 					Parent_->VY_[GetClient()]-=Distance_;

	mov	ecx, DWORD PTR _this$[ebp]
	mov	esi, DWORD PTR [ecx+48]
	mov	ecx, DWORD PTR _this$[ebp]
	call	?GetClient@C_Base@@QAEFXZ		; C_Base::GetClient
	movsx	edx, ax
	lea	eax, DWORD PTR [esi+edx*4+512]
	mov	DWORD PTR tv1233[ebp], eax
	mov	ecx, DWORD PTR tv1233[ebp]
	mov	edx, DWORD PTR _this$[ebp]
	mov	eax, DWORD PTR [ecx]
	sub	eax, DWORD PTR [edx+156]
	mov	ecx, DWORD PTR tv1233[ebp]
	mov	DWORD PTR [ecx], eax

; 529  : 					if(Parent_->VY_[GetClient()] < (VirtualH_+(Parent_->ClientArea_[GetClient()].bottom-Parent_->ClientArea_[GetClient()].top)+Parent_->ClientArea_[GetClient()].top))

	mov	edx, DWORD PTR _this$[ebp]
	mov	esi, DWORD PTR [edx+48]
	mov	ecx, DWORD PTR _this$[ebp]
	call	?GetClient@C_Base@@QAEFXZ		; C_Base::GetClient
	movsx	edi, ax
	mov	eax, DWORD PTR _this$[ebp]
	mov	ebx, DWORD PTR [eax+48]
	mov	ecx, DWORD PTR _this$[ebp]
	call	?GetClient@C_Base@@QAEFXZ		; C_Base::GetClient
	cwde
	shl	eax, 4
	mov	ecx, DWORD PTR _this$[ebp]
	mov	ecx, DWORD PTR [ecx+48]
	mov	DWORD PTR tv1960[ebp], ecx
	mov	ecx, DWORD PTR _this$[ebp]
	mov	DWORD PTR tv1962[ebp], eax
	call	?GetClient@C_Base@@QAEFXZ		; C_Base::GetClient
	movsx	edx, ax
	shl	edx, 4
	mov	eax, DWORD PTR tv1962[ebp]
	mov	eax, DWORD PTR [ebx+eax+180]
	mov	ebx, DWORD PTR tv1960[ebp]
	sub	eax, DWORD PTR [ebx+edx+172]
	mov	ecx, DWORD PTR _this$[ebp]
	mov	ebx, DWORD PTR [ecx+124]
	add	ebx, eax
	mov	edx, DWORD PTR _this$[ebp]
	mov	eax, DWORD PTR [edx+48]
	mov	ecx, DWORD PTR _this$[ebp]
	mov	DWORD PTR tv1964[ebp], eax
	call	?GetClient@C_Base@@QAEFXZ		; C_Base::GetClient
	cwde
	shl	eax, 4
	mov	ecx, DWORD PTR tv1964[ebp]
	add	ebx, DWORD PTR [ecx+eax+172]
	cmp	DWORD PTR [esi+edi*4+512], ebx
	jge	SHORT $LN3@Process

; 530  : 						Parent_->VY_[GetClient()]=VirtualH_+(Parent_->ClientArea_[GetClient()].bottom-Parent_->ClientArea_[GetClient()].top)+Parent_->ClientArea_[GetClient()].top;

	mov	ecx, DWORD PTR _this$[ebp]
	mov	esi, DWORD PTR [ecx+48]
	mov	ecx, DWORD PTR _this$[ebp]
	call	?GetClient@C_Base@@QAEFXZ		; C_Base::GetClient
	movsx	edi, ax
	shl	edi, 4
	mov	edx, DWORD PTR _this$[ebp]
	mov	ebx, DWORD PTR [edx+48]
	mov	ecx, DWORD PTR _this$[ebp]
	call	?GetClient@C_Base@@QAEFXZ		; C_Base::GetClient
	cwde
	shl	eax, 4
	mov	ecx, DWORD PTR [esi+edi+180]
	sub	ecx, DWORD PTR [ebx+eax+172]
	mov	edx, DWORD PTR _this$[ebp]
	mov	esi, DWORD PTR [edx+124]
	add	esi, ecx
	mov	eax, DWORD PTR _this$[ebp]
	mov	edi, DWORD PTR [eax+48]
	mov	ecx, DWORD PTR _this$[ebp]
	call	?GetClient@C_Base@@QAEFXZ		; C_Base::GetClient
	movsx	ecx, ax
	shl	ecx, 4
	add	esi, DWORD PTR [edi+ecx+172]
	mov	edx, DWORD PTR _this$[ebp]
	mov	edi, DWORD PTR [edx+48]
	mov	ecx, DWORD PTR _this$[ebp]
	call	?GetClient@C_Base@@QAEFXZ		; C_Base::GetClient
	cwde
	mov	DWORD PTR [edi+eax*4+512], esi
$LN3@Process:

; 531  : 					UpdatePosition();

	mov	ecx, DWORD PTR _this$[ebp]
	call	?UpdatePosition@C_ScrollBar@@QAEXXZ	; C_ScrollBar::UpdatePosition

; 532  : 					Refresh();

	mov	ecx, DWORD PTR _this$[ebp]
	mov	edx, DWORD PTR [ecx]
	mov	ecx, DWORD PTR _this$[ebp]
	mov	eax, DWORD PTR [edx+160]
	call	eax

; 533  : 					Parent_->RefreshClient(GetClient());

	mov	ecx, DWORD PTR _this$[ebp]
	call	?GetClient@C_Base@@QAEFXZ		; C_Base::GetClient
	movsx	ecx, ax
	push	ecx
	mov	edx, DWORD PTR _this$[ebp]
	mov	ecx, DWORD PTR [edx+48]
	call	?RefreshClient@C_Window@@QAEXJ@Z	; C_Window::RefreshClient

; 534  : 					break;

	jmp	$LN34@Process
$LN2@Process:

; 535  : 				case C_TYPE_HORIZONTAL:
; 536  : 					Parent_->VX_[GetClient()]-=Distance_;

	mov	eax, DWORD PTR _this$[ebp]
	mov	esi, DWORD PTR [eax+48]
	mov	ecx, DWORD PTR _this$[ebp]
	call	?GetClient@C_Base@@QAEFXZ		; C_Base::GetClient
	movsx	ecx, ax
	lea	edx, DWORD PTR [esi+ecx*4+480]
	mov	DWORD PTR tv1417[ebp], edx
	mov	eax, DWORD PTR tv1417[ebp]
	mov	ecx, DWORD PTR _this$[ebp]
	mov	edx, DWORD PTR [eax]
	sub	edx, DWORD PTR [ecx+156]
	mov	eax, DWORD PTR tv1417[ebp]
	mov	DWORD PTR [eax], edx

; 537  : 					if(Parent_->VX_[GetClient()] < (VirtualW_+(Parent_->ClientArea_[GetClient()].right-Parent_->ClientArea_[GetClient()].left)+Parent_->ClientArea_[GetClient()].left))

	mov	ecx, DWORD PTR _this$[ebp]
	mov	esi, DWORD PTR [ecx+48]
	mov	ecx, DWORD PTR _this$[ebp]
	call	?GetClient@C_Base@@QAEFXZ		; C_Base::GetClient
	movsx	edi, ax
	mov	edx, DWORD PTR _this$[ebp]
	mov	ebx, DWORD PTR [edx+48]
	mov	ecx, DWORD PTR _this$[ebp]
	call	?GetClient@C_Base@@QAEFXZ		; C_Base::GetClient
	cwde
	shl	eax, 4
	mov	ecx, DWORD PTR _this$[ebp]
	mov	ecx, DWORD PTR [ecx+48]
	mov	DWORD PTR tv1966[ebp], ecx
	mov	ecx, DWORD PTR _this$[ebp]
	mov	DWORD PTR tv1968[ebp], eax
	call	?GetClient@C_Base@@QAEFXZ		; C_Base::GetClient
	movsx	edx, ax
	shl	edx, 4
	mov	eax, DWORD PTR tv1968[ebp]
	mov	eax, DWORD PTR [ebx+eax+176]
	mov	ebx, DWORD PTR tv1966[ebp]
	sub	eax, DWORD PTR [ebx+edx+168]
	mov	ecx, DWORD PTR _this$[ebp]
	mov	ebx, DWORD PTR [ecx+120]
	add	ebx, eax
	mov	edx, DWORD PTR _this$[ebp]
	mov	eax, DWORD PTR [edx+48]
	mov	ecx, DWORD PTR _this$[ebp]
	mov	DWORD PTR tv1970[ebp], eax
	call	?GetClient@C_Base@@QAEFXZ		; C_Base::GetClient
	cwde
	shl	eax, 4
	mov	ecx, DWORD PTR tv1970[ebp]
	add	ebx, DWORD PTR [ecx+eax+168]
	cmp	DWORD PTR [esi+edi*4+480], ebx
	jge	SHORT $LN1@Process

; 538  : 						Parent_->VX_[GetClient()]=VirtualW_+(Parent_->ClientArea_[GetClient()].right-Parent_->ClientArea_[GetClient()].left)+Parent_->ClientArea_[GetClient()].left;

	mov	ecx, DWORD PTR _this$[ebp]
	mov	esi, DWORD PTR [ecx+48]
	mov	ecx, DWORD PTR _this$[ebp]
	call	?GetClient@C_Base@@QAEFXZ		; C_Base::GetClient
	movsx	edi, ax
	shl	edi, 4
	mov	edx, DWORD PTR _this$[ebp]
	mov	ebx, DWORD PTR [edx+48]
	mov	ecx, DWORD PTR _this$[ebp]
	call	?GetClient@C_Base@@QAEFXZ		; C_Base::GetClient
	cwde
	shl	eax, 4
	mov	ecx, DWORD PTR [esi+edi+176]
	sub	ecx, DWORD PTR [ebx+eax+168]
	mov	edx, DWORD PTR _this$[ebp]
	mov	esi, DWORD PTR [edx+120]
	add	esi, ecx
	mov	eax, DWORD PTR _this$[ebp]
	mov	edi, DWORD PTR [eax+48]
	mov	ecx, DWORD PTR _this$[ebp]
	call	?GetClient@C_Base@@QAEFXZ		; C_Base::GetClient
	movsx	ecx, ax
	shl	ecx, 4
	add	esi, DWORD PTR [edi+ecx+168]
	mov	edx, DWORD PTR _this$[ebp]
	mov	edi, DWORD PTR [edx+48]
	mov	ecx, DWORD PTR _this$[ebp]
	call	?GetClient@C_Base@@QAEFXZ		; C_Base::GetClient
	cwde
	mov	DWORD PTR [edi+eax*4+480], esi
$LN1@Process:

; 539  : 					UpdatePosition();

	mov	ecx, DWORD PTR _this$[ebp]
	call	?UpdatePosition@C_ScrollBar@@QAEXXZ	; C_ScrollBar::UpdatePosition

; 540  : 					Refresh();

	mov	ecx, DWORD PTR _this$[ebp]
	mov	edx, DWORD PTR [ecx]
	mov	ecx, DWORD PTR _this$[ebp]
	mov	eax, DWORD PTR [edx+160]
	call	eax

; 541  : 					Parent_->RefreshClient(GetClient());

	mov	ecx, DWORD PTR _this$[ebp]
	call	?GetClient@C_Base@@QAEFXZ		; C_Base::GetClient
	movsx	ecx, ax
	push	ecx
	mov	edx, DWORD PTR _this$[ebp]
	mov	ecx, DWORD PTR [edx+48]
	call	?RefreshClient@C_Window@@QAEXJ@Z	; C_Window::RefreshClient
$LN34@Process:

; 542  : 					break;
; 543  : 			}
; 544  : 			break;
; 545  : 	}
; 546  : 	return(TRUE);

	mov	eax, 1
$LN43@Process:

; 547  : }

	pop	edi
	pop	esi
	pop	ebx
	mov	esp, ebp
	pop	ebp
	ret	8
$LN45@Process:
	DD	$LN33@Process
	DD	$LN25@Process
	DD	$LN34@Process
	DD	$LN16@Process
	DD	$LN8@Process
?Process@C_ScrollBar@@UAEHJF@Z ENDP			; C_ScrollBar::Process
_TEXT	ENDS
; Function compile flags: /Odtp
; File c:\users\zhitao li\documents\visual studio 2012\projects\freefalcon\ui95\cscroll.cpp
_TEXT	SEGMENT
tv269 = -8						; size = 4
_this$ = -4						; size = 4
_relX$ = 8						; size = 4
_relY$ = 12						; size = 4
?CheckHotSpots@C_ScrollBar@@UAEJJJ@Z PROC		; C_ScrollBar::CheckHotSpots
; _this$ = ecx

; 353  : {

	push	ebp
	mov	ebp, esp
	sub	esp, 8
	push	esi
	mov	DWORD PTR _this$[ebp], ecx

; 354  : 	if(GetFlags() & C_BIT_INVISIBLE || !(GetFlags() & C_BIT_ENABLED) || !Ready())

	mov	ecx, DWORD PTR _this$[ebp]
	call	?GetFlags@C_Base@@QAEJXZ		; C_Base::GetFlags
	and	eax, 8192				; 00002000H
	jne	SHORT $LN31@CheckHotSp
	mov	ecx, DWORD PTR _this$[ebp]
	call	?GetFlags@C_Base@@QAEJXZ		; C_Base::GetFlags
	and	eax, 2048				; 00000800H
	je	SHORT $LN31@CheckHotSp
	mov	ecx, DWORD PTR _this$[ebp]
	call	?Ready@C_Base@@QAEFXZ			; C_Base::Ready
	cwde
	test	eax, eax
	jne	SHORT $LN32@CheckHotSp
$LN31@CheckHotSp:

; 355  : 		return(0);

	xor	eax, eax
	jmp	$LN33@CheckHotSp
$LN32@CheckHotSp:

; 356  : 
; 357  : 	if(relX < GetX() || relX > (GetX()+GetW()) || relY < GetY() || relY > (GetY()+GetH()))

	mov	ecx, DWORD PTR _this$[ebp]
	call	?GetX@C_Base@@QAEJXZ			; C_Base::GetX
	cmp	DWORD PTR _relX$[ebp], eax
	jl	SHORT $LN29@CheckHotSp
	mov	ecx, DWORD PTR _this$[ebp]
	call	?GetX@C_Base@@QAEJXZ			; C_Base::GetX
	mov	esi, eax
	mov	ecx, DWORD PTR _this$[ebp]
	call	?GetW@C_Base@@QAEJXZ			; C_Base::GetW
	add	esi, eax
	cmp	DWORD PTR _relX$[ebp], esi
	jg	SHORT $LN29@CheckHotSp
	mov	ecx, DWORD PTR _this$[ebp]
	call	?GetY@C_Base@@QAEJXZ			; C_Base::GetY
	cmp	DWORD PTR _relY$[ebp], eax
	jl	SHORT $LN29@CheckHotSp
	mov	ecx, DWORD PTR _this$[ebp]
	call	?GetY@C_Base@@QAEJXZ			; C_Base::GetY
	mov	esi, eax
	mov	ecx, DWORD PTR _this$[ebp]
	call	?GetH@C_Base@@QAEJXZ			; C_Base::GetH
	add	esi, eax
	cmp	DWORD PTR _relY$[ebp], esi
	jle	SHORT $LN30@CheckHotSp
$LN29@CheckHotSp:

; 358  : 		return(0);

	xor	eax, eax
	jmp	$LN33@CheckHotSp
$LN30@CheckHotSp:

; 359  : 
; 360  : 	if(Minus_)

	mov	ecx, DWORD PTR _this$[ebp]
	cmp	DWORD PTR [ecx+196], 0
	je	SHORT $LN28@CheckHotSp

; 361  : 	{
; 362  : 		ControlPressed_=static_cast<short>(Minus_->CheckHotSpots(relX,relY));//! 

	mov	edx, DWORD PTR _relY$[ebp]
	push	edx
	mov	eax, DWORD PTR _relX$[ebp]
	push	eax
	mov	ecx, DWORD PTR _this$[ebp]
	mov	edx, DWORD PTR [ecx+196]
	mov	eax, DWORD PTR _this$[ebp]
	mov	edx, DWORD PTR [edx]
	mov	ecx, DWORD PTR [eax+196]
	mov	eax, DWORD PTR [edx+192]
	call	eax
	mov	ecx, DWORD PTR _this$[ebp]
	mov	WORD PTR [ecx+184], ax

; 363  : 		if(ControlPressed_)

	mov	edx, DWORD PTR _this$[ebp]
	movsx	eax, WORD PTR [edx+184]
	test	eax, eax
	je	SHORT $LN28@CheckHotSp

; 364  : 		{
; 365  : 			SetRelXY(relX-GetX(),relY-GetY());

	mov	ecx, DWORD PTR _this$[ebp]
	call	?GetY@C_Base@@QAEJXZ			; C_Base::GetY
	mov	ecx, DWORD PTR _relY$[ebp]
	sub	ecx, eax
	push	ecx
	mov	ecx, DWORD PTR _this$[ebp]
	call	?GetX@C_Base@@QAEJXZ			; C_Base::GetX
	mov	edx, DWORD PTR _relX$[ebp]
	sub	edx, eax
	push	edx
	mov	eax, DWORD PTR _this$[ebp]
	mov	edx, DWORD PTR [eax]
	mov	ecx, DWORD PTR _this$[ebp]
	mov	eax, DWORD PTR [edx+52]
	call	eax

; 366  : 			return(GetID());

	mov	ecx, DWORD PTR _this$[ebp]
	call	?GetID@C_Base@@QAEJXZ			; C_Base::GetID
	jmp	$LN33@CheckHotSp
$LN28@CheckHotSp:

; 367  : 		}
; 368  : 	}
; 369  : 	if(Plus_)

	mov	ecx, DWORD PTR _this$[ebp]
	cmp	DWORD PTR [ecx+192], 0
	je	SHORT $LN26@CheckHotSp

; 370  : 	{
; 371  : 		ControlPressed_=static_cast<short>(Plus_->CheckHotSpots(relX,relY));//! 

	mov	edx, DWORD PTR _relY$[ebp]
	push	edx
	mov	eax, DWORD PTR _relX$[ebp]
	push	eax
	mov	ecx, DWORD PTR _this$[ebp]
	mov	edx, DWORD PTR [ecx+192]
	mov	eax, DWORD PTR _this$[ebp]
	mov	edx, DWORD PTR [edx]
	mov	ecx, DWORD PTR [eax+192]
	mov	eax, DWORD PTR [edx+192]
	call	eax
	mov	ecx, DWORD PTR _this$[ebp]
	mov	WORD PTR [ecx+184], ax

; 372  : 		if(ControlPressed_)

	mov	edx, DWORD PTR _this$[ebp]
	movsx	eax, WORD PTR [edx+184]
	test	eax, eax
	je	SHORT $LN26@CheckHotSp

; 373  : 		{
; 374  : 			SetRelXY(relX-GetX(),relY-GetY());

	mov	ecx, DWORD PTR _this$[ebp]
	call	?GetY@C_Base@@QAEJXZ			; C_Base::GetY
	mov	ecx, DWORD PTR _relY$[ebp]
	sub	ecx, eax
	push	ecx
	mov	ecx, DWORD PTR _this$[ebp]
	call	?GetX@C_Base@@QAEJXZ			; C_Base::GetX
	mov	edx, DWORD PTR _relX$[ebp]
	sub	edx, eax
	push	edx
	mov	eax, DWORD PTR _this$[ebp]
	mov	edx, DWORD PTR [eax]
	mov	ecx, DWORD PTR _this$[ebp]
	mov	eax, DWORD PTR [edx+52]
	call	eax

; 375  : 			return(GetID());

	mov	ecx, DWORD PTR _this$[ebp]
	call	?GetID@C_Base@@QAEJXZ			; C_Base::GetID
	jmp	$LN33@CheckHotSp
$LN26@CheckHotSp:

; 376  : 		}
; 377  : 	}
; 378  : 
; 379  : 	switch(GetType())

	mov	ecx, DWORD PTR _this$[ebp]
	call	?GetType@C_Base@@QAEFXZ			; C_Base::GetType
	movsx	ecx, ax
	mov	DWORD PTR tv269[ebp], ecx
	cmp	DWORD PTR tv269[ebp], 62		; 0000003eH
	je	SHORT $LN22@CheckHotSp
	cmp	DWORD PTR tv269[ebp], 63		; 0000003fH
	je	$LN11@CheckHotSp
	jmp	$LN23@CheckHotSp
$LN22@CheckHotSp:

; 380  : 	{
; 381  : 		case C_TYPE_VERTICAL:
; 382  : 			if(Slider_)

	mov	edx, DWORD PTR _this$[ebp]
	cmp	DWORD PTR [edx+200], 0
	je	SHORT $LN21@CheckHotSp

; 383  : 			{
; 384  : 				if(relY < (GetY()+SY_))//+MinPos_))

	mov	ecx, DWORD PTR _this$[ebp]
	call	?GetY@C_Base@@QAEJXZ			; C_Base::GetY
	mov	ecx, DWORD PTR _this$[ebp]
	add	eax, DWORD PTR [ecx+132]
	cmp	DWORD PTR _relY$[ebp], eax
	jge	SHORT $LN20@CheckHotSp

; 385  : 					ControlPressed_=1;

	mov	edx, 1
	mov	eax, DWORD PTR _this$[ebp]
	mov	WORD PTR [eax+184], dx
	jmp	SHORT $LN19@CheckHotSp
$LN20@CheckHotSp:

; 386  : 				else if(relY > (GetY()+SY_+(Slider_->Header->h)))//+MinPos_))

	mov	ecx, DWORD PTR _this$[ebp]
	call	?GetY@C_Base@@QAEJXZ			; C_Base::GetY
	mov	ecx, DWORD PTR _this$[ebp]
	add	eax, DWORD PTR [ecx+132]
	mov	edx, DWORD PTR _this$[ebp]
	mov	ecx, DWORD PTR [edx+200]
	mov	edx, DWORD PTR [ecx+8]
	movsx	ecx, WORD PTR [edx+46]
	add	eax, ecx
	cmp	DWORD PTR _relY$[ebp], eax
	jle	SHORT $LN18@CheckHotSp

; 387  : 					ControlPressed_=2;

	mov	edx, 2
	mov	eax, DWORD PTR _this$[ebp]
	mov	WORD PTR [eax+184], dx

; 388  : 				else

	jmp	SHORT $LN19@CheckHotSp
$LN18@CheckHotSp:

; 389  : 					ControlPressed_=3;

	mov	ecx, 3
	mov	edx, DWORD PTR _this$[ebp]
	mov	WORD PTR [edx+184], cx
$LN19@CheckHotSp:

; 390  : 			}
; 391  : 			else

	jmp	SHORT $LN16@CheckHotSp
$LN21@CheckHotSp:

; 392  : 			{
; 393  : 				if(relY < (GetY()+SY_))//+MinPos_))

	mov	ecx, DWORD PTR _this$[ebp]
	call	?GetY@C_Base@@QAEJXZ			; C_Base::GetY
	mov	ecx, DWORD PTR _this$[ebp]
	add	eax, DWORD PTR [ecx+132]
	cmp	DWORD PTR _relY$[ebp], eax
	jge	SHORT $LN15@CheckHotSp

; 394  : 					ControlPressed_=1;

	mov	edx, 1
	mov	eax, DWORD PTR _this$[ebp]
	mov	WORD PTR [eax+184], dx
	jmp	SHORT $LN16@CheckHotSp
$LN15@CheckHotSp:

; 395  : 				else if(relY > (GetY()+SY_+(SliderRect_.bottom-SliderRect_.top)))//+MinPos_))

	mov	ecx, DWORD PTR _this$[ebp]
	call	?GetY@C_Base@@QAEJXZ			; C_Base::GetY
	mov	ecx, DWORD PTR _this$[ebp]
	add	eax, DWORD PTR [ecx+132]
	mov	edx, DWORD PTR _this$[ebp]
	mov	ecx, DWORD PTR _this$[ebp]
	mov	edx, DWORD PTR [edx+180]
	sub	edx, DWORD PTR [ecx+172]
	add	eax, edx
	cmp	DWORD PTR _relY$[ebp], eax
	jle	SHORT $LN13@CheckHotSp

; 396  : 					ControlPressed_=2;

	mov	eax, 2
	mov	ecx, DWORD PTR _this$[ebp]
	mov	WORD PTR [ecx+184], ax

; 397  : 				else

	jmp	SHORT $LN16@CheckHotSp
$LN13@CheckHotSp:

; 398  : 					ControlPressed_=3;

	mov	edx, 3
	mov	eax, DWORD PTR _this$[ebp]
	mov	WORD PTR [eax+184], dx
$LN16@CheckHotSp:

; 399  : 			}
; 400  : 			SetRelXY(relX-GetX(),relY-GetY());

	mov	ecx, DWORD PTR _this$[ebp]
	call	?GetY@C_Base@@QAEJXZ			; C_Base::GetY
	mov	ecx, DWORD PTR _relY$[ebp]
	sub	ecx, eax
	push	ecx
	mov	ecx, DWORD PTR _this$[ebp]
	call	?GetX@C_Base@@QAEJXZ			; C_Base::GetX
	mov	edx, DWORD PTR _relX$[ebp]
	sub	edx, eax
	push	edx
	mov	eax, DWORD PTR _this$[ebp]
	mov	edx, DWORD PTR [eax]
	mov	ecx, DWORD PTR _this$[ebp]
	mov	eax, DWORD PTR [edx+52]
	call	eax

; 401  : 			return(GetID());

	mov	ecx, DWORD PTR _this$[ebp]
	call	?GetID@C_Base@@QAEJXZ			; C_Base::GetID
	jmp	$LN33@CheckHotSp

; 402  : 			break;

	jmp	$LN23@CheckHotSp
$LN11@CheckHotSp:

; 403  : 		case C_TYPE_HORIZONTAL:
; 404  : 			if(Slider_)

	mov	ecx, DWORD PTR _this$[ebp]
	cmp	DWORD PTR [ecx+200], 0
	je	$LN10@CheckHotSp

; 405  : 			{
; 406  : 				if(relX < (GetX()+SX_+MinPos_))

	mov	ecx, DWORD PTR _this$[ebp]
	call	?GetX@C_Base@@QAEJXZ			; C_Base::GetX
	mov	edx, DWORD PTR _this$[ebp]
	add	eax, DWORD PTR [edx+128]
	mov	ecx, DWORD PTR _this$[ebp]
	add	eax, DWORD PTR [ecx+152]
	cmp	DWORD PTR _relX$[ebp], eax
	jge	SHORT $LN9@CheckHotSp

; 407  : 					ControlPressed_=1;

	mov	edx, 1
	mov	eax, DWORD PTR _this$[ebp]
	mov	WORD PTR [eax+184], dx
	jmp	SHORT $LN8@CheckHotSp
$LN9@CheckHotSp:

; 408  : 				else if(relX > (GetX()+SX_+(Slider_->Header->w)+MinPos_))

	mov	ecx, DWORD PTR _this$[ebp]
	call	?GetX@C_Base@@QAEJXZ			; C_Base::GetX
	mov	ecx, DWORD PTR _this$[ebp]
	add	eax, DWORD PTR [ecx+128]
	mov	edx, DWORD PTR _this$[ebp]
	mov	ecx, DWORD PTR [edx+200]
	mov	edx, DWORD PTR [ecx+8]
	movsx	ecx, WORD PTR [edx+44]
	add	eax, ecx
	mov	edx, DWORD PTR _this$[ebp]
	add	eax, DWORD PTR [edx+152]
	cmp	DWORD PTR _relX$[ebp], eax
	jle	SHORT $LN7@CheckHotSp

; 409  : 					ControlPressed_=2;

	mov	eax, 2
	mov	ecx, DWORD PTR _this$[ebp]
	mov	WORD PTR [ecx+184], ax

; 410  : 				else

	jmp	SHORT $LN8@CheckHotSp
$LN7@CheckHotSp:

; 411  : 					ControlPressed_=3;

	mov	edx, 3
	mov	eax, DWORD PTR _this$[ebp]
	mov	WORD PTR [eax+184], dx
$LN8@CheckHotSp:

; 412  : 			}
; 413  : 			else

	jmp	$LN5@CheckHotSp
$LN10@CheckHotSp:

; 414  : 			{
; 415  : 				if(relX < (GetX()+SX_+MinPos_))

	mov	ecx, DWORD PTR _this$[ebp]
	call	?GetX@C_Base@@QAEJXZ			; C_Base::GetX
	mov	ecx, DWORD PTR _this$[ebp]
	add	eax, DWORD PTR [ecx+128]
	mov	edx, DWORD PTR _this$[ebp]
	add	eax, DWORD PTR [edx+152]
	cmp	DWORD PTR _relX$[ebp], eax
	jge	SHORT $LN4@CheckHotSp

; 416  : 					ControlPressed_=1;

	mov	eax, 1
	mov	ecx, DWORD PTR _this$[ebp]
	mov	WORD PTR [ecx+184], ax
	jmp	SHORT $LN5@CheckHotSp
$LN4@CheckHotSp:

; 417  : 				else if(relX > (GetX()+SX_+(SliderRect_.right-SliderRect_.left)+MinPos_))

	mov	ecx, DWORD PTR _this$[ebp]
	call	?GetX@C_Base@@QAEJXZ			; C_Base::GetX
	mov	edx, DWORD PTR _this$[ebp]
	add	eax, DWORD PTR [edx+128]
	mov	ecx, DWORD PTR _this$[ebp]
	mov	edx, DWORD PTR _this$[ebp]
	mov	ecx, DWORD PTR [ecx+176]
	sub	ecx, DWORD PTR [edx+168]
	add	eax, ecx
	mov	edx, DWORD PTR _this$[ebp]
	add	eax, DWORD PTR [edx+152]
	cmp	DWORD PTR _relX$[ebp], eax
	jle	SHORT $LN2@CheckHotSp

; 418  : 					ControlPressed_=2;

	mov	eax, 2
	mov	ecx, DWORD PTR _this$[ebp]
	mov	WORD PTR [ecx+184], ax

; 419  : 				else

	jmp	SHORT $LN5@CheckHotSp
$LN2@CheckHotSp:

; 420  : 					ControlPressed_=3;

	mov	edx, 3
	mov	eax, DWORD PTR _this$[ebp]
	mov	WORD PTR [eax+184], dx
$LN5@CheckHotSp:

; 421  : 			}
; 422  : 			SetRelXY(relX-GetX(),relY-GetY());

	mov	ecx, DWORD PTR _this$[ebp]
	call	?GetY@C_Base@@QAEJXZ			; C_Base::GetY
	mov	ecx, DWORD PTR _relY$[ebp]
	sub	ecx, eax
	push	ecx
	mov	ecx, DWORD PTR _this$[ebp]
	call	?GetX@C_Base@@QAEJXZ			; C_Base::GetX
	mov	edx, DWORD PTR _relX$[ebp]
	sub	edx, eax
	push	edx
	mov	eax, DWORD PTR _this$[ebp]
	mov	edx, DWORD PTR [eax]
	mov	ecx, DWORD PTR _this$[ebp]
	mov	eax, DWORD PTR [edx+52]
	call	eax

; 423  : 			return(GetID());

	mov	ecx, DWORD PTR _this$[ebp]
	call	?GetID@C_Base@@QAEJXZ			; C_Base::GetID
	jmp	SHORT $LN33@CheckHotSp
$LN23@CheckHotSp:

; 424  : 			break;
; 425  : 	}
; 426  : 	return(0);

	xor	eax, eax
$LN33@CheckHotSp:

; 427  : }

	pop	esi
	mov	esp, ebp
	pop	ebp
	ret	8
?CheckHotSpots@C_ScrollBar@@UAEJJJ@Z ENDP		; C_ScrollBar::CheckHotSpots
_TEXT	ENDS
; Function compile flags: /Odtp
; File c:\users\zhitao li\documents\visual studio 2012\projects\freefalcon\ui95\cscroll.cpp
_TEXT	SEGMENT
$T2 = -68						; size = 4
tv422 = -64						; size = 4
$T3 = -60						; size = 4
$T4 = -56						; size = 4
tv92 = -52						; size = 4
$T5 = -48						; size = 4
tv434 = -44						; size = 4
$T6 = -40						; size = 4
tv136 = -36						; size = 4
$T7 = -32						; size = 4
$T8 = -28						; size = 4
$T9 = -24						; size = 4
_tmp$ = -20						; size = 4
_this$ = -16						; size = 4
__$EHRec$ = -12						; size = 12
_MinusUp$ = 8						; size = 4
_MinusDown$ = 12					; size = 4
_PlusUp$ = 16						; size = 4
_PlusDown$ = 20						; size = 4
?SetButtonImages@C_ScrollBar@@QAEXJJJJ@Z PROC		; C_ScrollBar::SetButtonImages
; _this$ = ecx

; 173  : {

	push	ebp
	mov	ebp, esp
	push	-1
	push	__ehhandler$?SetButtonImages@C_ScrollBar@@QAEXJJJJ@Z
	mov	eax, DWORD PTR fs:0
	push	eax
	sub	esp, 56					; 00000038H
	push	esi
	mov	eax, DWORD PTR ___security_cookie
	xor	eax, ebp
	push	eax
	lea	eax, DWORD PTR __$EHRec$[ebp]
	mov	DWORD PTR fs:0, eax
	mov	DWORD PTR _this$[ebp], ecx

; 174  : 	IMAGE_RSC *tmp;
; 175  : 
; 176  : 	tmp=gImageMgr->GetImage(MinusUp);

	mov	eax, DWORD PTR _MinusUp$[ebp]
	push	eax
	mov	ecx, DWORD PTR ?gImageMgr@@3PAVC_Image@@A ; gImageMgr
	call	?GetImage@C_Image@@QAEPAVIMAGE_RSC@@J@Z	; C_Image::GetImage
	mov	DWORD PTR _tmp$[ebp], eax

; 177  : 	if(tmp == NULL)

	cmp	DWORD PTR _tmp$[ebp], 0
	jne	SHORT $LN22@SetButtonI

; 178  : 	{
; 179  : 		if(Minus_)

	mov	ecx, DWORD PTR _this$[ebp]
	cmp	DWORD PTR [ecx+196], 0
	je	SHORT $LN21@SetButtonI

; 180  : 		{
; 181  : 			Minus_->Cleanup();

	mov	edx, DWORD PTR _this$[ebp]
	mov	eax, DWORD PTR [edx+196]
	mov	ecx, DWORD PTR _this$[ebp]
	mov	edx, DWORD PTR [eax]
	mov	ecx, DWORD PTR [ecx+196]
	mov	eax, DWORD PTR [edx+176]
	call	eax

; 182  : 			delete Minus_;

	mov	ecx, DWORD PTR _this$[ebp]
	mov	edx, DWORD PTR [ecx+196]
	mov	DWORD PTR $T5[ebp], edx
	mov	eax, DWORD PTR $T5[ebp]
	mov	DWORD PTR $T9[ebp], eax
	cmp	DWORD PTR $T9[ebp], 0
	je	SHORT $LN25@SetButtonI
	push	1
	mov	ecx, DWORD PTR $T9[ebp]
	mov	edx, DWORD PTR [ecx]
	mov	ecx, DWORD PTR $T9[ebp]
	mov	eax, DWORD PTR [edx]
	call	eax
	mov	DWORD PTR tv92[ebp], eax
	jmp	SHORT $LN26@SetButtonI
$LN25@SetButtonI:
	mov	DWORD PTR tv92[ebp], 0
$LN26@SetButtonI:

; 183  : 			Minus_=NULL;

	mov	ecx, DWORD PTR _this$[ebp]
	mov	DWORD PTR [ecx+196], 0
$LN21@SetButtonI:

; 184  : 		}
; 185  : 	}

	jmp	$LN20@SetButtonI
$LN22@SetButtonI:

; 186  : 	else if(Minus_ == NULL)

	mov	edx, DWORD PTR _this$[ebp]
	cmp	DWORD PTR [edx+196], 0
	jne	$LN19@SetButtonI

; 187  : 	{
; 188  : 		Minus_=new C_Button;

	push	160					; 000000a0H
	call	??2@YAPAXI@Z				; operator new
	add	esp, 4
	mov	DWORD PTR $T7[ebp], eax
	mov	DWORD PTR __$EHRec$[ebp+8], 0
	cmp	DWORD PTR $T7[ebp], 0
	je	SHORT $LN27@SetButtonI
	mov	ecx, DWORD PTR $T7[ebp]
	call	??0C_Button@@QAE@XZ			; C_Button::C_Button
	mov	DWORD PTR tv136[ebp], eax
	jmp	SHORT $LN28@SetButtonI
$LN27@SetButtonI:
	mov	DWORD PTR tv136[ebp], 0
$LN28@SetButtonI:
	mov	eax, DWORD PTR tv136[ebp]
	mov	DWORD PTR $T4[ebp], eax
	mov	DWORD PTR __$EHRec$[ebp+8], -1
	mov	ecx, DWORD PTR _this$[ebp]
	mov	edx, DWORD PTR $T4[ebp]
	mov	DWORD PTR [ecx+196], edx

; 189  : 		Minus_->Setup(4,C_TYPE_NORMAL,GetX(),GetY());

	mov	ecx, DWORD PTR _this$[ebp]
	call	?GetY@C_Base@@QAEJXZ			; C_Base::GetY
	push	eax
	mov	ecx, DWORD PTR _this$[ebp]
	call	?GetX@C_Base@@QAEJXZ			; C_Base::GetX
	push	eax
	push	25					; 00000019H
	push	4
	mov	eax, DWORD PTR _this$[ebp]
	mov	ecx, DWORD PTR [eax+196]
	call	?Setup@C_Button@@QAEXJFJJ@Z		; C_Button::Setup

; 190  : 		Minus_->SetImage(C_STATE_0,MinusUp);

	mov	ecx, DWORD PTR _MinusUp$[ebp]
	push	ecx
	push	0
	mov	edx, DWORD PTR _this$[ebp]
	mov	ecx, DWORD PTR [edx+196]
	call	?SetImage@C_Button@@QAEXFJ@Z		; C_Button::SetImage

; 191  : 		Minus_->SetImage(C_STATE_1,MinusDown);

	mov	eax, DWORD PTR _MinusDown$[ebp]
	push	eax
	push	1
	mov	ecx, DWORD PTR _this$[ebp]
	mov	ecx, DWORD PTR [ecx+196]
	call	?SetImage@C_Button@@QAEXFJ@Z		; C_Button::SetImage

; 192  : 		Minus_->SetImage(C_STATE_SELECTED,MinusUp);

	mov	edx, DWORD PTR _MinusUp$[ebp]
	push	edx
	push	22					; 00000016H
	mov	eax, DWORD PTR _this$[ebp]
	mov	ecx, DWORD PTR [eax+196]
	call	?SetImage@C_Button@@QAEXFJ@Z		; C_Button::SetImage

; 193  : 		Minus_->SetImage(C_STATE_DISABLED,MinusUp);

	mov	ecx, DWORD PTR _MinusUp$[ebp]
	push	ecx
	push	21					; 00000015H
	mov	edx, DWORD PTR _this$[ebp]
	mov	ecx, DWORD PTR [edx+196]
	call	?SetImage@C_Button@@QAEXFJ@Z		; C_Button::SetImage

; 194  : 		Minus_->SetFlags(GetFlags());

	mov	ecx, DWORD PTR _this$[ebp]
	call	?GetFlags@C_Base@@QAEJXZ		; C_Base::GetFlags
	push	eax
	mov	eax, DWORD PTR _this$[ebp]
	mov	ecx, DWORD PTR [eax+196]
	mov	edx, DWORD PTR _this$[ebp]
	mov	eax, DWORD PTR [ecx]
	mov	ecx, DWORD PTR [edx+196]
	mov	edx, DWORD PTR [eax+4]
	call	edx

; 195  : 		if(GetType() == C_TYPE_VERTICAL)

	mov	ecx, DWORD PTR _this$[ebp]
	call	?GetType@C_Base@@QAEFXZ			; C_Base::GetType
	cwde
	cmp	eax, 62					; 0000003eH
	jne	SHORT $LN18@SetButtonI

; 196  : 			Minus_->SetX(GetX()+GetW()/2-Minus_->GetW()/2);

	mov	ecx, DWORD PTR _this$[ebp]
	call	?GetX@C_Base@@QAEJXZ			; C_Base::GetX
	mov	esi, eax
	mov	ecx, DWORD PTR _this$[ebp]
	call	?GetW@C_Base@@QAEJXZ			; C_Base::GetW
	cdq
	sub	eax, edx
	sar	eax, 1
	add	esi, eax
	mov	ecx, DWORD PTR _this$[ebp]
	mov	ecx, DWORD PTR [ecx+196]
	call	?GetW@C_Base@@QAEJXZ			; C_Base::GetW
	cdq
	sub	eax, edx
	sar	eax, 1
	sub	esi, eax
	push	esi
	mov	edx, DWORD PTR _this$[ebp]
	mov	eax, DWORD PTR [edx+196]
	mov	ecx, DWORD PTR _this$[ebp]
	mov	edx, DWORD PTR [eax]
	mov	ecx, DWORD PTR [ecx+196]
	mov	eax, DWORD PTR [edx+16]
	call	eax
	jmp	SHORT $LN17@SetButtonI
$LN18@SetButtonI:

; 197  : 		else if(GetType() == C_TYPE_HORIZONTAL)

	mov	ecx, DWORD PTR _this$[ebp]
	call	?GetType@C_Base@@QAEFXZ			; C_Base::GetType
	movsx	ecx, ax
	cmp	ecx, 63					; 0000003fH
	jne	SHORT $LN17@SetButtonI

; 198  : 			Minus_->SetY(GetY()+GetH()/2-Minus_->GetH()/2);

	mov	ecx, DWORD PTR _this$[ebp]
	call	?GetY@C_Base@@QAEJXZ			; C_Base::GetY
	mov	esi, eax
	mov	ecx, DWORD PTR _this$[ebp]
	call	?GetH@C_Base@@QAEJXZ			; C_Base::GetH
	cdq
	sub	eax, edx
	sar	eax, 1
	add	esi, eax
	mov	edx, DWORD PTR _this$[ebp]
	mov	ecx, DWORD PTR [edx+196]
	call	?GetH@C_Base@@QAEJXZ			; C_Base::GetH
	cdq
	sub	eax, edx
	sar	eax, 1
	sub	esi, eax
	push	esi
	mov	eax, DWORD PTR _this$[ebp]
	mov	ecx, DWORD PTR [eax+196]
	mov	edx, DWORD PTR _this$[ebp]
	mov	eax, DWORD PTR [ecx]
	mov	ecx, DWORD PTR [edx+196]
	mov	edx, DWORD PTR [eax+20]
	call	edx
$LN17@SetButtonI:

; 199  : 	}
; 200  : 	else

	jmp	$LN20@SetButtonI
$LN19@SetButtonI:

; 201  : 	{
; 202  : 		Minus_->SetImage(C_STATE_0,MinusUp);

	mov	eax, DWORD PTR _MinusUp$[ebp]
	push	eax
	push	0
	mov	ecx, DWORD PTR _this$[ebp]
	mov	ecx, DWORD PTR [ecx+196]
	call	?SetImage@C_Button@@QAEXFJ@Z		; C_Button::SetImage

; 203  : 		Minus_->SetImage(C_STATE_1,MinusDown);

	mov	edx, DWORD PTR _MinusDown$[ebp]
	push	edx
	push	1
	mov	eax, DWORD PTR _this$[ebp]
	mov	ecx, DWORD PTR [eax+196]
	call	?SetImage@C_Button@@QAEXFJ@Z		; C_Button::SetImage

; 204  : 		Minus_->SetImage(C_STATE_SELECTED,MinusUp);

	mov	ecx, DWORD PTR _MinusUp$[ebp]
	push	ecx
	push	22					; 00000016H
	mov	edx, DWORD PTR _this$[ebp]
	mov	ecx, DWORD PTR [edx+196]
	call	?SetImage@C_Button@@QAEXFJ@Z		; C_Button::SetImage

; 205  : 		Minus_->SetImage(C_STATE_DISABLED,MinusUp);

	mov	eax, DWORD PTR _MinusUp$[ebp]
	push	eax
	push	21					; 00000015H
	mov	ecx, DWORD PTR _this$[ebp]
	mov	ecx, DWORD PTR [ecx+196]
	call	?SetImage@C_Button@@QAEXFJ@Z		; C_Button::SetImage

; 206  : 		Minus_->SetFlags(GetFlags());

	mov	ecx, DWORD PTR _this$[ebp]
	call	?GetFlags@C_Base@@QAEJXZ		; C_Base::GetFlags
	push	eax
	mov	edx, DWORD PTR _this$[ebp]
	mov	eax, DWORD PTR [edx+196]
	mov	ecx, DWORD PTR _this$[ebp]
	mov	edx, DWORD PTR [eax]
	mov	ecx, DWORD PTR [ecx+196]
	mov	eax, DWORD PTR [edx+4]
	call	eax

; 207  : 		if(GetType() == C_TYPE_VERTICAL)

	mov	ecx, DWORD PTR _this$[ebp]
	call	?GetType@C_Base@@QAEFXZ			; C_Base::GetType
	movsx	ecx, ax
	cmp	ecx, 62					; 0000003eH
	jne	SHORT $LN14@SetButtonI

; 208  : 			Minus_->SetX(GetX()+GetW()/2-Minus_->GetW()/2);

	mov	ecx, DWORD PTR _this$[ebp]
	call	?GetX@C_Base@@QAEJXZ			; C_Base::GetX
	mov	esi, eax
	mov	ecx, DWORD PTR _this$[ebp]
	call	?GetW@C_Base@@QAEJXZ			; C_Base::GetW
	cdq
	sub	eax, edx
	sar	eax, 1
	add	esi, eax
	mov	edx, DWORD PTR _this$[ebp]
	mov	ecx, DWORD PTR [edx+196]
	call	?GetW@C_Base@@QAEJXZ			; C_Base::GetW
	cdq
	sub	eax, edx
	sar	eax, 1
	sub	esi, eax
	push	esi
	mov	eax, DWORD PTR _this$[ebp]
	mov	ecx, DWORD PTR [eax+196]
	mov	edx, DWORD PTR _this$[ebp]
	mov	eax, DWORD PTR [ecx]
	mov	ecx, DWORD PTR [edx+196]
	mov	edx, DWORD PTR [eax+16]
	call	edx
	jmp	SHORT $LN20@SetButtonI
$LN14@SetButtonI:

; 209  : 		else if(GetType() == C_TYPE_HORIZONTAL)

	mov	ecx, DWORD PTR _this$[ebp]
	call	?GetType@C_Base@@QAEFXZ			; C_Base::GetType
	cwde
	cmp	eax, 63					; 0000003fH
	jne	SHORT $LN20@SetButtonI

; 210  : 			Minus_->SetY(GetY()+GetH()/2-Minus_->GetH()/2);

	mov	ecx, DWORD PTR _this$[ebp]
	call	?GetY@C_Base@@QAEJXZ			; C_Base::GetY
	mov	esi, eax
	mov	ecx, DWORD PTR _this$[ebp]
	call	?GetH@C_Base@@QAEJXZ			; C_Base::GetH
	cdq
	sub	eax, edx
	sar	eax, 1
	add	esi, eax
	mov	ecx, DWORD PTR _this$[ebp]
	mov	ecx, DWORD PTR [ecx+196]
	call	?GetH@C_Base@@QAEJXZ			; C_Base::GetH
	cdq
	sub	eax, edx
	sar	eax, 1
	sub	esi, eax
	push	esi
	mov	edx, DWORD PTR _this$[ebp]
	mov	eax, DWORD PTR [edx+196]
	mov	ecx, DWORD PTR _this$[ebp]
	mov	edx, DWORD PTR [eax]
	mov	ecx, DWORD PTR [ecx+196]
	mov	eax, DWORD PTR [edx+20]
	call	eax
$LN20@SetButtonI:

; 211  : 	}
; 212  : 
; 213  : 	tmp=gImageMgr->GetImage(PlusUp);

	mov	ecx, DWORD PTR _PlusUp$[ebp]
	push	ecx
	mov	ecx, DWORD PTR ?gImageMgr@@3PAVC_Image@@A ; gImageMgr
	call	?GetImage@C_Image@@QAEPAVIMAGE_RSC@@J@Z	; C_Image::GetImage
	mov	DWORD PTR _tmp$[ebp], eax

; 214  : 	if(tmp == NULL)

	cmp	DWORD PTR _tmp$[ebp], 0
	jne	SHORT $LN11@SetButtonI

; 215  : 	{
; 216  : 		if(Plus_)

	mov	edx, DWORD PTR _this$[ebp]
	cmp	DWORD PTR [edx+192], 0
	je	SHORT $LN10@SetButtonI

; 217  : 		{
; 218  : 			Plus_->Cleanup();

	mov	eax, DWORD PTR _this$[ebp]
	mov	ecx, DWORD PTR [eax+192]
	mov	edx, DWORD PTR _this$[ebp]
	mov	eax, DWORD PTR [ecx]
	mov	ecx, DWORD PTR [edx+192]
	mov	edx, DWORD PTR [eax+176]
	call	edx

; 219  : 			delete Plus_;

	mov	eax, DWORD PTR _this$[ebp]
	mov	ecx, DWORD PTR [eax+192]
	mov	DWORD PTR $T3[ebp], ecx
	mov	edx, DWORD PTR $T3[ebp]
	mov	DWORD PTR $T8[ebp], edx
	cmp	DWORD PTR $T8[ebp], 0
	je	SHORT $LN29@SetButtonI
	push	1
	mov	eax, DWORD PTR $T8[ebp]
	mov	edx, DWORD PTR [eax]
	mov	ecx, DWORD PTR $T8[ebp]
	mov	eax, DWORD PTR [edx]
	call	eax
	mov	DWORD PTR tv422[ebp], eax
	jmp	SHORT $LN30@SetButtonI
$LN29@SetButtonI:
	mov	DWORD PTR tv422[ebp], 0
$LN30@SetButtonI:

; 220  : 			Plus_=NULL;

	mov	ecx, DWORD PTR _this$[ebp]
	mov	DWORD PTR [ecx+192], 0
$LN10@SetButtonI:

; 221  : 		}
; 222  : 	}

	jmp	$LN23@SetButtonI
$LN11@SetButtonI:

; 223  : 	else if(Plus_ == NULL)

	mov	edx, DWORD PTR _this$[ebp]
	cmp	DWORD PTR [edx+192], 0
	jne	$LN8@SetButtonI

; 224  : 	{
; 225  : 		Plus_=new C_Button;

	push	160					; 000000a0H
	call	??2@YAPAXI@Z				; operator new
	add	esp, 4
	mov	DWORD PTR $T6[ebp], eax
	mov	DWORD PTR __$EHRec$[ebp+8], 1
	cmp	DWORD PTR $T6[ebp], 0
	je	SHORT $LN31@SetButtonI
	mov	ecx, DWORD PTR $T6[ebp]
	call	??0C_Button@@QAE@XZ			; C_Button::C_Button
	mov	DWORD PTR tv434[ebp], eax
	jmp	SHORT $LN32@SetButtonI
$LN31@SetButtonI:
	mov	DWORD PTR tv434[ebp], 0
$LN32@SetButtonI:
	mov	eax, DWORD PTR tv434[ebp]
	mov	DWORD PTR $T2[ebp], eax
	mov	DWORD PTR __$EHRec$[ebp+8], -1
	mov	ecx, DWORD PTR _this$[ebp]
	mov	edx, DWORD PTR $T2[ebp]
	mov	DWORD PTR [ecx+192], edx

; 226  : 		Plus_->Setup(5,C_TYPE_NORMAL,0,0);

	push	0
	push	0
	push	25					; 00000019H
	push	5
	mov	eax, DWORD PTR _this$[ebp]
	mov	ecx, DWORD PTR [eax+192]
	call	?Setup@C_Button@@QAEXJFJJ@Z		; C_Button::Setup

; 227  : 		Plus_->SetImage(C_STATE_0,PlusUp);

	mov	ecx, DWORD PTR _PlusUp$[ebp]
	push	ecx
	push	0
	mov	edx, DWORD PTR _this$[ebp]
	mov	ecx, DWORD PTR [edx+192]
	call	?SetImage@C_Button@@QAEXFJ@Z		; C_Button::SetImage

; 228  : 		Plus_->SetImage(C_STATE_1,PlusDown);

	mov	eax, DWORD PTR _PlusDown$[ebp]
	push	eax
	push	1
	mov	ecx, DWORD PTR _this$[ebp]
	mov	ecx, DWORD PTR [ecx+192]
	call	?SetImage@C_Button@@QAEXFJ@Z		; C_Button::SetImage

; 229  : 		Plus_->SetImage(C_STATE_SELECTED,PlusUp);

	mov	edx, DWORD PTR _PlusUp$[ebp]
	push	edx
	push	22					; 00000016H
	mov	eax, DWORD PTR _this$[ebp]
	mov	ecx, DWORD PTR [eax+192]
	call	?SetImage@C_Button@@QAEXFJ@Z		; C_Button::SetImage

; 230  : 		Plus_->SetImage(C_STATE_DISABLED,PlusUp);

	mov	ecx, DWORD PTR _PlusUp$[ebp]
	push	ecx
	push	21					; 00000015H
	mov	edx, DWORD PTR _this$[ebp]
	mov	ecx, DWORD PTR [edx+192]
	call	?SetImage@C_Button@@QAEXFJ@Z		; C_Button::SetImage

; 231  : 		Plus_->SetFlags(GetFlags());

	mov	ecx, DWORD PTR _this$[ebp]
	call	?GetFlags@C_Base@@QAEJXZ		; C_Base::GetFlags
	push	eax
	mov	eax, DWORD PTR _this$[ebp]
	mov	ecx, DWORD PTR [eax+192]
	mov	edx, DWORD PTR _this$[ebp]
	mov	eax, DWORD PTR [ecx]
	mov	ecx, DWORD PTR [edx+192]
	mov	edx, DWORD PTR [eax+4]
	call	edx

; 232  : 		if(GetType() == C_TYPE_VERTICAL)

	mov	ecx, DWORD PTR _this$[ebp]
	call	?GetType@C_Base@@QAEFXZ			; C_Base::GetType
	cwde
	cmp	eax, 62					; 0000003eH
	jne	SHORT $LN7@SetButtonI

; 233  : 			Plus_->SetXY(GetX()+GetW()/2-Plus_->GetW()/2,GetY()+GetH()-(tmp->Header->h));

	mov	ecx, DWORD PTR _this$[ebp]
	call	?GetY@C_Base@@QAEJXZ			; C_Base::GetY
	mov	esi, eax
	mov	ecx, DWORD PTR _this$[ebp]
	call	?GetH@C_Base@@QAEJXZ			; C_Base::GetH
	add	esi, eax
	mov	ecx, DWORD PTR _tmp$[ebp]
	mov	edx, DWORD PTR [ecx+8]
	movsx	eax, WORD PTR [edx+46]
	sub	esi, eax
	push	esi
	mov	ecx, DWORD PTR _this$[ebp]
	call	?GetX@C_Base@@QAEJXZ			; C_Base::GetX
	mov	esi, eax
	mov	ecx, DWORD PTR _this$[ebp]
	call	?GetW@C_Base@@QAEJXZ			; C_Base::GetW
	cdq
	sub	eax, edx
	sar	eax, 1
	add	esi, eax
	mov	ecx, DWORD PTR _this$[ebp]
	mov	ecx, DWORD PTR [ecx+192]
	call	?GetW@C_Base@@QAEJXZ			; C_Base::GetW
	cdq
	sub	eax, edx
	sar	eax, 1
	sub	esi, eax
	push	esi
	mov	edx, DWORD PTR _this$[ebp]
	mov	eax, DWORD PTR [edx+192]
	mov	ecx, DWORD PTR _this$[ebp]
	mov	edx, DWORD PTR [eax]
	mov	ecx, DWORD PTR [ecx+192]
	mov	eax, DWORD PTR [edx+32]
	call	eax
	jmp	SHORT $LN6@SetButtonI
$LN7@SetButtonI:

; 234  : 		else if(GetType() == C_TYPE_HORIZONTAL)

	mov	ecx, DWORD PTR _this$[ebp]
	call	?GetType@C_Base@@QAEFXZ			; C_Base::GetType
	movsx	ecx, ax
	cmp	ecx, 63					; 0000003fH
	jne	SHORT $LN6@SetButtonI

; 235  : 			Plus_->SetXY(GetX()+GetW()-(tmp->Header->w),GetY()+GetH()/2-Plus_->GetH()/2);

	mov	ecx, DWORD PTR _this$[ebp]
	call	?GetY@C_Base@@QAEJXZ			; C_Base::GetY
	mov	esi, eax
	mov	ecx, DWORD PTR _this$[ebp]
	call	?GetH@C_Base@@QAEJXZ			; C_Base::GetH
	cdq
	sub	eax, edx
	sar	eax, 1
	add	esi, eax
	mov	edx, DWORD PTR _this$[ebp]
	mov	ecx, DWORD PTR [edx+192]
	call	?GetH@C_Base@@QAEJXZ			; C_Base::GetH
	cdq
	sub	eax, edx
	sar	eax, 1
	sub	esi, eax
	push	esi
	mov	ecx, DWORD PTR _this$[ebp]
	call	?GetX@C_Base@@QAEJXZ			; C_Base::GetX
	mov	esi, eax
	mov	ecx, DWORD PTR _this$[ebp]
	call	?GetW@C_Base@@QAEJXZ			; C_Base::GetW
	add	esi, eax
	mov	eax, DWORD PTR _tmp$[ebp]
	mov	ecx, DWORD PTR [eax+8]
	movsx	edx, WORD PTR [ecx+44]
	sub	esi, edx
	push	esi
	mov	eax, DWORD PTR _this$[ebp]
	mov	ecx, DWORD PTR [eax+192]
	mov	edx, DWORD PTR _this$[ebp]
	mov	eax, DWORD PTR [ecx]
	mov	ecx, DWORD PTR [edx+192]
	mov	edx, DWORD PTR [eax+32]
	call	edx
$LN6@SetButtonI:

; 236  : 	}
; 237  : 	else

	jmp	$LN23@SetButtonI
$LN8@SetButtonI:

; 238  : 	{
; 239  : 		Plus_->SetImage(C_STATE_0,PlusUp);

	mov	eax, DWORD PTR _PlusUp$[ebp]
	push	eax
	push	0
	mov	ecx, DWORD PTR _this$[ebp]
	mov	ecx, DWORD PTR [ecx+192]
	call	?SetImage@C_Button@@QAEXFJ@Z		; C_Button::SetImage

; 240  : 		Plus_->SetImage(C_STATE_1,PlusDown);

	mov	edx, DWORD PTR _PlusDown$[ebp]
	push	edx
	push	1
	mov	eax, DWORD PTR _this$[ebp]
	mov	ecx, DWORD PTR [eax+192]
	call	?SetImage@C_Button@@QAEXFJ@Z		; C_Button::SetImage

; 241  : 		Plus_->SetImage(C_STATE_SELECTED,PlusUp);

	mov	ecx, DWORD PTR _PlusUp$[ebp]
	push	ecx
	push	22					; 00000016H
	mov	edx, DWORD PTR _this$[ebp]
	mov	ecx, DWORD PTR [edx+192]
	call	?SetImage@C_Button@@QAEXFJ@Z		; C_Button::SetImage

; 242  : 		Plus_->SetImage(C_STATE_DISABLED,PlusUp);

	mov	eax, DWORD PTR _PlusUp$[ebp]
	push	eax
	push	21					; 00000015H
	mov	ecx, DWORD PTR _this$[ebp]
	mov	ecx, DWORD PTR [ecx+192]
	call	?SetImage@C_Button@@QAEXFJ@Z		; C_Button::SetImage

; 243  : 		Plus_->SetFlags(GetFlags());

	mov	ecx, DWORD PTR _this$[ebp]
	call	?GetFlags@C_Base@@QAEJXZ		; C_Base::GetFlags
	push	eax
	mov	edx, DWORD PTR _this$[ebp]
	mov	eax, DWORD PTR [edx+192]
	mov	ecx, DWORD PTR _this$[ebp]
	mov	edx, DWORD PTR [eax]
	mov	ecx, DWORD PTR [ecx+192]
	mov	eax, DWORD PTR [edx+4]
	call	eax

; 244  : 		if(GetType() == C_TYPE_VERTICAL)

	mov	ecx, DWORD PTR _this$[ebp]
	call	?GetType@C_Base@@QAEFXZ			; C_Base::GetType
	movsx	ecx, ax
	cmp	ecx, 62					; 0000003eH
	jne	SHORT $LN3@SetButtonI

; 245  : 			Plus_->SetXY(GetX()+GetW()/2-Plus_->GetW()/2,GetY()+GetH()-(tmp->Header->h));

	mov	ecx, DWORD PTR _this$[ebp]
	call	?GetY@C_Base@@QAEJXZ			; C_Base::GetY
	mov	esi, eax
	mov	ecx, DWORD PTR _this$[ebp]
	call	?GetH@C_Base@@QAEJXZ			; C_Base::GetH
	add	esi, eax
	mov	edx, DWORD PTR _tmp$[ebp]
	mov	eax, DWORD PTR [edx+8]
	movsx	ecx, WORD PTR [eax+46]
	sub	esi, ecx
	push	esi
	mov	ecx, DWORD PTR _this$[ebp]
	call	?GetX@C_Base@@QAEJXZ			; C_Base::GetX
	mov	esi, eax
	mov	ecx, DWORD PTR _this$[ebp]
	call	?GetW@C_Base@@QAEJXZ			; C_Base::GetW
	cdq
	sub	eax, edx
	sar	eax, 1
	add	esi, eax
	mov	edx, DWORD PTR _this$[ebp]
	mov	ecx, DWORD PTR [edx+192]
	call	?GetW@C_Base@@QAEJXZ			; C_Base::GetW
	cdq
	sub	eax, edx
	sar	eax, 1
	sub	esi, eax
	push	esi
	mov	eax, DWORD PTR _this$[ebp]
	mov	ecx, DWORD PTR [eax+192]
	mov	edx, DWORD PTR _this$[ebp]
	mov	eax, DWORD PTR [ecx]
	mov	ecx, DWORD PTR [edx+192]
	mov	edx, DWORD PTR [eax+32]
	call	edx
	jmp	SHORT $LN23@SetButtonI
$LN3@SetButtonI:

; 246  : 		else if(GetType() == C_TYPE_HORIZONTAL)

	mov	ecx, DWORD PTR _this$[ebp]
	call	?GetType@C_Base@@QAEFXZ			; C_Base::GetType
	cwde
	cmp	eax, 63					; 0000003fH
	jne	SHORT $LN23@SetButtonI

; 247  : 			Plus_->SetXY(GetX()+GetW()-(tmp->Header->w),GetY()+GetH()/2-Plus_->GetH()/2);

	mov	ecx, DWORD PTR _this$[ebp]
	call	?GetY@C_Base@@QAEJXZ			; C_Base::GetY
	mov	esi, eax
	mov	ecx, DWORD PTR _this$[ebp]
	call	?GetH@C_Base@@QAEJXZ			; C_Base::GetH
	cdq
	sub	eax, edx
	sar	eax, 1
	add	esi, eax
	mov	ecx, DWORD PTR _this$[ebp]
	mov	ecx, DWORD PTR [ecx+192]
	call	?GetH@C_Base@@QAEJXZ			; C_Base::GetH
	cdq
	sub	eax, edx
	sar	eax, 1
	sub	esi, eax
	push	esi
	mov	ecx, DWORD PTR _this$[ebp]
	call	?GetX@C_Base@@QAEJXZ			; C_Base::GetX
	mov	esi, eax
	mov	ecx, DWORD PTR _this$[ebp]
	call	?GetW@C_Base@@QAEJXZ			; C_Base::GetW
	add	esi, eax
	mov	edx, DWORD PTR _tmp$[ebp]
	mov	eax, DWORD PTR [edx+8]
	movsx	ecx, WORD PTR [eax+44]
	sub	esi, ecx
	push	esi
	mov	edx, DWORD PTR _this$[ebp]
	mov	eax, DWORD PTR [edx+192]
	mov	ecx, DWORD PTR _this$[ebp]
	mov	edx, DWORD PTR [eax]
	mov	ecx, DWORD PTR [ecx+192]
	mov	eax, DWORD PTR [edx+32]
	call	eax
$LN23@SetButtonI:

; 248  : 	}
; 249  : }

	mov	ecx, DWORD PTR __$EHRec$[ebp]
	mov	DWORD PTR fs:0, ecx
	pop	ecx
	pop	esi
	mov	esp, ebp
	pop	ebp
	ret	16					; 00000010H
_TEXT	ENDS
text$x	SEGMENT
__unwindfunclet$?SetButtonImages@C_ScrollBar@@QAEXJJJJ@Z$0:
	mov	eax, DWORD PTR $T7[ebp]
	push	eax
	call	??3@YAXPAX@Z				; operator delete
	pop	ecx
	ret	0
__unwindfunclet$?SetButtonImages@C_ScrollBar@@QAEXJJJJ@Z$1:
	mov	eax, DWORD PTR $T6[ebp]
	push	eax
	call	??3@YAXPAX@Z				; operator delete
	pop	ecx
	ret	0
__ehhandler$?SetButtonImages@C_ScrollBar@@QAEXJJJJ@Z:
	mov	edx, DWORD PTR [esp+8]
	lea	eax, DWORD PTR [edx+12]
	mov	ecx, DWORD PTR [edx-64]
	xor	ecx, eax
	call	@__security_check_cookie@4
	mov	eax, OFFSET __ehfuncinfo$?SetButtonImages@C_ScrollBar@@QAEXJJJJ@Z
	jmp	___CxxFrameHandler3
text$x	ENDS
?SetButtonImages@C_ScrollBar@@QAEXJJJJ@Z ENDP		; C_ScrollBar::SetButtonImages
; Function compile flags: /Odtp
; File c:\users\zhitao li\documents\visual studio 2012\projects\freefalcon\ui95\cscroll.cpp
_TEXT	SEGMENT
_vl$ = -8						; size = 4
_this$ = -4						; size = 4
?UpdatePosition@C_ScrollBar@@QAEXXZ PROC		; C_ScrollBar::UpdatePosition
; _this$ = ecx

; 325  : {

	push	ebp
	mov	ebp, esp
	sub	esp, 8
	push	ebx
	push	esi
	push	edi
	mov	DWORD PTR _this$[ebp], ecx

; 326  : 	long vl;
; 327  : 
; 328  : 	if(GetType() == C_TYPE_VERTICAL)

	mov	ecx, DWORD PTR _this$[ebp]
	call	?GetType@C_Base@@QAEFXZ			; C_Base::GetType
	cwde
	cmp	eax, 62					; 0000003eH
	jne	$LN9@UpdatePosi

; 329  : 	{
; 330  : 		vl=(VirtualH_+Parent_->ClientArea_[GetClient()].bottom-Parent_->ClientArea_[GetClient()].top);

	mov	ecx, DWORD PTR _this$[ebp]
	mov	esi, DWORD PTR [ecx+48]
	mov	ecx, DWORD PTR _this$[ebp]
	call	?GetClient@C_Base@@QAEFXZ		; C_Base::GetClient
	movsx	edx, ax
	shl	edx, 4
	mov	eax, DWORD PTR _this$[ebp]
	mov	edi, DWORD PTR [eax+124]
	add	edi, DWORD PTR [esi+edx+180]
	mov	ecx, DWORD PTR _this$[ebp]
	mov	esi, DWORD PTR [ecx+48]
	mov	ecx, DWORD PTR _this$[ebp]
	call	?GetClient@C_Base@@QAEFXZ		; C_Base::GetClient
	movsx	edx, ax
	shl	edx, 4
	sub	edi, DWORD PTR [esi+edx+172]
	mov	DWORD PTR _vl$[ebp], edi

; 331  : 		if(!vl) vl=1;

	jne	SHORT $LN8@UpdatePosi
	mov	DWORD PTR _vl$[ebp], 1
$LN8@UpdatePosi:

; 332  : 
; 333  : 		SY_=((Parent_->VY_[GetClient()] - Parent_->ClientArea_[GetClient()].top) * (MaxPos_-MinPos_) / vl) + MinPos_;

	mov	eax, DWORD PTR _this$[ebp]
	mov	esi, DWORD PTR [eax+48]
	mov	ecx, DWORD PTR _this$[ebp]
	call	?GetClient@C_Base@@QAEFXZ		; C_Base::GetClient
	movsx	edi, ax
	mov	ecx, DWORD PTR _this$[ebp]
	mov	ebx, DWORD PTR [ecx+48]
	mov	ecx, DWORD PTR _this$[ebp]
	call	?GetClient@C_Base@@QAEFXZ		; C_Base::GetClient
	movsx	edx, ax
	shl	edx, 4
	mov	eax, DWORD PTR [esi+edi*4+512]
	sub	eax, DWORD PTR [ebx+edx+172]
	mov	ecx, DWORD PTR _this$[ebp]
	mov	edx, DWORD PTR _this$[ebp]
	mov	ecx, DWORD PTR [ecx+160]
	sub	ecx, DWORD PTR [edx+152]
	imul	eax, ecx
	cdq
	idiv	DWORD PTR _vl$[ebp]
	mov	edx, DWORD PTR _this$[ebp]
	add	eax, DWORD PTR [edx+152]
	mov	ecx, DWORD PTR _this$[ebp]
	mov	DWORD PTR [ecx+132], eax

; 334  : 		if(SY_ < MinPos_)

	mov	edx, DWORD PTR _this$[ebp]
	mov	eax, DWORD PTR _this$[ebp]
	mov	ecx, DWORD PTR [edx+132]
	cmp	ecx, DWORD PTR [eax+152]
	jge	SHORT $LN7@UpdatePosi

; 335  : 			SY_=MinPos_;

	mov	edx, DWORD PTR _this$[ebp]
	mov	eax, DWORD PTR _this$[ebp]
	mov	ecx, DWORD PTR [eax+152]
	mov	DWORD PTR [edx+132], ecx
$LN7@UpdatePosi:

; 336  : 		if(SY_ > MaxPos_)

	mov	edx, DWORD PTR _this$[ebp]
	mov	eax, DWORD PTR _this$[ebp]
	mov	ecx, DWORD PTR [edx+132]
	cmp	ecx, DWORD PTR [eax+160]
	jle	SHORT $LN6@UpdatePosi

; 337  : 			SY_=MaxPos_;

	mov	edx, DWORD PTR _this$[ebp]
	mov	eax, DWORD PTR _this$[ebp]
	mov	ecx, DWORD PTR [eax+160]
	mov	DWORD PTR [edx+132], ecx
$LN6@UpdatePosi:

; 338  : 	}

	jmp	$LN10@UpdatePosi
$LN9@UpdatePosi:

; 339  : 	else if(GetType() == C_TYPE_HORIZONTAL)

	mov	ecx, DWORD PTR _this$[ebp]
	call	?GetType@C_Base@@QAEFXZ			; C_Base::GetType
	movsx	edx, ax
	cmp	edx, 63					; 0000003fH
	jne	$LN10@UpdatePosi

; 340  : 	{
; 341  : 		vl=(VirtualW_+Parent_->ClientArea_[GetClient()].right-Parent_->ClientArea_[GetClient()].left);

	mov	eax, DWORD PTR _this$[ebp]
	mov	esi, DWORD PTR [eax+48]
	mov	ecx, DWORD PTR _this$[ebp]
	call	?GetClient@C_Base@@QAEFXZ		; C_Base::GetClient
	movsx	ecx, ax
	shl	ecx, 4
	mov	edx, DWORD PTR _this$[ebp]
	mov	edi, DWORD PTR [edx+120]
	add	edi, DWORD PTR [esi+ecx+176]
	mov	eax, DWORD PTR _this$[ebp]
	mov	esi, DWORD PTR [eax+48]
	mov	ecx, DWORD PTR _this$[ebp]
	call	?GetClient@C_Base@@QAEFXZ		; C_Base::GetClient
	movsx	ecx, ax
	shl	ecx, 4
	sub	edi, DWORD PTR [esi+ecx+168]
	mov	DWORD PTR _vl$[ebp], edi

; 342  : 		if(!vl) vl=1;

	jne	SHORT $LN3@UpdatePosi
	mov	DWORD PTR _vl$[ebp], 1
$LN3@UpdatePosi:

; 343  : 
; 344  : 		SX_=((Parent_->VX_[GetClient()] - Parent_->ClientArea_[GetClient()].left) * (MaxPos_-MinPos_) / vl) + MinPos_;

	mov	edx, DWORD PTR _this$[ebp]
	mov	esi, DWORD PTR [edx+48]
	mov	ecx, DWORD PTR _this$[ebp]
	call	?GetClient@C_Base@@QAEFXZ		; C_Base::GetClient
	movsx	edi, ax
	mov	eax, DWORD PTR _this$[ebp]
	mov	ebx, DWORD PTR [eax+48]
	mov	ecx, DWORD PTR _this$[ebp]
	call	?GetClient@C_Base@@QAEFXZ		; C_Base::GetClient
	movsx	ecx, ax
	shl	ecx, 4
	mov	eax, DWORD PTR [esi+edi*4+480]
	sub	eax, DWORD PTR [ebx+ecx+168]
	mov	edx, DWORD PTR _this$[ebp]
	mov	ecx, DWORD PTR _this$[ebp]
	mov	edx, DWORD PTR [edx+160]
	sub	edx, DWORD PTR [ecx+152]
	imul	eax, edx
	cdq
	idiv	DWORD PTR _vl$[ebp]
	mov	ecx, DWORD PTR _this$[ebp]
	add	eax, DWORD PTR [ecx+152]
	mov	edx, DWORD PTR _this$[ebp]
	mov	DWORD PTR [edx+128], eax

; 345  : 		if(SX_ < MinPos_)

	mov	eax, DWORD PTR _this$[ebp]
	mov	ecx, DWORD PTR _this$[ebp]
	mov	edx, DWORD PTR [eax+128]
	cmp	edx, DWORD PTR [ecx+152]
	jge	SHORT $LN2@UpdatePosi

; 346  : 			SX_=MinPos_;

	mov	eax, DWORD PTR _this$[ebp]
	mov	ecx, DWORD PTR _this$[ebp]
	mov	edx, DWORD PTR [ecx+152]
	mov	DWORD PTR [eax+128], edx
$LN2@UpdatePosi:

; 347  : 		if(SX_ > MaxPos_)

	mov	eax, DWORD PTR _this$[ebp]
	mov	ecx, DWORD PTR _this$[ebp]
	mov	edx, DWORD PTR [eax+128]
	cmp	edx, DWORD PTR [ecx+160]
	jle	SHORT $LN10@UpdatePosi

; 348  : 			SX_=MaxPos_;

	mov	eax, DWORD PTR _this$[ebp]
	mov	ecx, DWORD PTR _this$[ebp]
	mov	edx, DWORD PTR [ecx+160]
	mov	DWORD PTR [eax+128], edx
$LN10@UpdatePosi:

; 349  : 	}
; 350  : }

	pop	edi
	pop	esi
	pop	ebx
	mov	esp, ebp
	pop	ebp
	ret	0
?UpdatePosition@C_ScrollBar@@QAEXXZ ENDP		; C_ScrollBar::UpdatePosition
_TEXT	ENDS
; Function compile flags: /Odtp
; File c:\users\zhitao li\documents\visual studio 2012\projects\freefalcon\ui95\cscroll.h
;	COMDAT ?SetLineColor@C_ScrollBar@@QAEXK@Z
_TEXT	SEGMENT
_this$ = -4						; size = 4
_color$ = 8						; size = 4
?SetLineColor@C_ScrollBar@@QAEXK@Z PROC			; C_ScrollBar::SetLineColor, COMDAT
; _this$ = ecx

; 68   : 		void SetLineColor(COLORREF color) { LineColor_=color; }

	push	ebp
	mov	ebp, esp
	push	ecx
	mov	DWORD PTR _this$[ebp], ecx
	mov	eax, DWORD PTR _this$[ebp]
	mov	ecx, DWORD PTR _color$[ebp]
	mov	DWORD PTR [eax+148], ecx
	mov	esp, ebp
	pop	ebp
	ret	4
?SetLineColor@C_ScrollBar@@QAEXK@Z ENDP			; C_ScrollBar::SetLineColor
_TEXT	ENDS
; Function compile flags: /Odtp
; File c:\users\zhitao li\documents\visual studio 2012\projects\freefalcon\ui95\cscroll.cpp
_TEXT	SEGMENT
_this$ = -4						; size = 4
_lite$ = 8						; size = 4
_medium$ = 12						; size = 4
_dark$ = 16						; size = 4
?SetColors@C_ScrollBar@@QAEXKKK@Z PROC			; C_ScrollBar::SetColors
; _this$ = ecx

; 166  : {

	push	ebp
	mov	ebp, esp
	push	ecx
	mov	DWORD PTR _this$[ebp], ecx

; 167  : 	lite_=lite;

	mov	eax, DWORD PTR _this$[ebp]
	mov	ecx, DWORD PTR _lite$[ebp]
	mov	DWORD PTR [eax+136], ecx

; 168  : 	medium_=medium;

	mov	edx, DWORD PTR _this$[ebp]
	mov	eax, DWORD PTR _medium$[ebp]
	mov	DWORD PTR [edx+140], eax

; 169  : 	dark_=dark;

	mov	ecx, DWORD PTR _this$[ebp]
	mov	edx, DWORD PTR _dark$[ebp]
	mov	DWORD PTR [ecx+144], edx

; 170  : }

	mov	esp, ebp
	pop	ebp
	ret	12					; 0000000cH
?SetColors@C_ScrollBar@@QAEXKKK@Z ENDP			; C_ScrollBar::SetColors
_TEXT	ENDS
; Function compile flags: /Odtp
; File c:\users\zhitao li\documents\visual studio 2012\projects\freefalcon\ui95\cscroll.h
;	COMDAT ?SetSliderRect@C_ScrollBar@@QAEXFFFF@Z
_TEXT	SEGMENT
_this$ = -4						; size = 4
_x$ = 8							; size = 2
_y$ = 12						; size = 2
_w$ = 16						; size = 2
_h$ = 20						; size = 2
?SetSliderRect@C_ScrollBar@@QAEXFFFF@Z PROC		; C_ScrollBar::SetSliderRect, COMDAT
; _this$ = ecx

; 61   : 		void SetSliderRect(short x,short y,short w,short h) { SliderRect_.left=x; SliderRect_.top=y; SliderRect_.right=x+w; SliderRect_.bottom=y+h; SetReady(1);}

	push	ebp
	mov	ebp, esp
	push	ecx
	mov	DWORD PTR _this$[ebp], ecx
	movsx	eax, WORD PTR _x$[ebp]
	mov	ecx, DWORD PTR _this$[ebp]
	mov	DWORD PTR [ecx+168], eax
	movsx	edx, WORD PTR _y$[ebp]
	mov	eax, DWORD PTR _this$[ebp]
	mov	DWORD PTR [eax+172], edx
	movsx	ecx, WORD PTR _x$[ebp]
	movsx	edx, WORD PTR _w$[ebp]
	add	ecx, edx
	mov	eax, DWORD PTR _this$[ebp]
	mov	DWORD PTR [eax+176], ecx
	movsx	ecx, WORD PTR _y$[ebp]
	movsx	edx, WORD PTR _h$[ebp]
	add	ecx, edx
	mov	eax, DWORD PTR _this$[ebp]
	mov	DWORD PTR [eax+180], ecx
	push	1
	mov	ecx, DWORD PTR _this$[ebp]
	call	?SetReady@C_Base@@QAEXF@Z		; C_Base::SetReady
	mov	esp, ebp
	pop	ebp
	ret	16					; 00000010H
?SetSliderRect@C_ScrollBar@@QAEXFFFF@Z ENDP		; C_ScrollBar::SetSliderRect
_TEXT	ENDS
; Function compile flags: /Odtp
; File c:\users\zhitao li\documents\visual studio 2012\projects\freefalcon\ui95\cscroll.cpp
_TEXT	SEGMENT
_this$ = -4						; size = 4
_SliderID$ = 8						; size = 4
?SetSliderImage@C_ScrollBar@@QAEXJ@Z PROC		; C_ScrollBar::SetSliderImage
; _this$ = ecx

; 153  : {

	push	ebp
	mov	ebp, esp
	push	ecx
	mov	DWORD PTR _this$[ebp], ecx

; 154  : 	Slider_=gImageMgr->GetImage(SliderID);

	mov	eax, DWORD PTR _SliderID$[ebp]
	push	eax
	mov	ecx, DWORD PTR ?gImageMgr@@3PAVC_Image@@A ; gImageMgr
	call	?GetImage@C_Image@@QAEPAVIMAGE_RSC@@J@Z	; C_Image::GetImage
	mov	ecx, DWORD PTR _this$[ebp]
	mov	DWORD PTR [ecx+200], eax

; 155  : 	if(Slider_)

	mov	edx, DWORD PTR _this$[ebp]
	cmp	DWORD PTR [edx+200], 0
	je	SHORT $LN3@SetSliderI

; 156  : 	{
; 157  : 		if(GetW() < Slider_->Header->w)

	mov	ecx, DWORD PTR _this$[ebp]
	call	?GetW@C_Base@@QAEJXZ			; C_Base::GetW
	mov	ecx, DWORD PTR _this$[ebp]
	mov	edx, DWORD PTR [ecx+200]
	mov	ecx, DWORD PTR [edx+8]
	movsx	edx, WORD PTR [ecx+44]
	cmp	eax, edx
	jge	SHORT $LN2@SetSliderI

; 158  : 			SetW(Slider_->Header->w);

	mov	eax, DWORD PTR _this$[ebp]
	mov	ecx, DWORD PTR [eax+200]
	mov	edx, DWORD PTR [ecx+8]
	movsx	eax, WORD PTR [edx+44]
	push	eax
	mov	ecx, DWORD PTR _this$[ebp]
	mov	edx, DWORD PTR [ecx]
	mov	ecx, DWORD PTR _this$[ebp]
	mov	eax, DWORD PTR [edx+24]
	call	eax
$LN2@SetSliderI:

; 159  : 		if(GetH() < Slider_->Header->h)

	mov	ecx, DWORD PTR _this$[ebp]
	call	?GetH@C_Base@@QAEJXZ			; C_Base::GetH
	mov	ecx, DWORD PTR _this$[ebp]
	mov	edx, DWORD PTR [ecx+200]
	mov	ecx, DWORD PTR [edx+8]
	movsx	edx, WORD PTR [ecx+46]
	cmp	eax, edx
	jge	SHORT $LN3@SetSliderI

; 160  : 			SetH(Slider_->Header->h);

	mov	eax, DWORD PTR _this$[ebp]
	mov	ecx, DWORD PTR [eax+200]
	mov	edx, DWORD PTR [ecx+8]
	movsx	eax, WORD PTR [edx+46]
	push	eax
	mov	ecx, DWORD PTR _this$[ebp]
	mov	edx, DWORD PTR [ecx]
	mov	ecx, DWORD PTR _this$[ebp]
	mov	eax, DWORD PTR [edx+28]
	call	eax
$LN3@SetSliderI:

; 161  : 	}
; 162  : 	SetReady(1);

	push	1
	mov	ecx, DWORD PTR _this$[ebp]
	call	?SetReady@C_Base@@QAEXF@Z		; C_Base::SetReady

; 163  : }

	mov	esp, ebp
	pop	ebp
	ret	4
?SetSliderImage@C_ScrollBar@@QAEXJ@Z ENDP		; C_ScrollBar::SetSliderImage
_TEXT	ENDS
; Function compile flags: /Odtp
; File c:\users\zhitao li\documents\visual studio 2012\projects\freefalcon\ui95\cscroll.cpp
_TEXT	SEGMENT
$T2 = -28						; size = 4
tv74 = -24						; size = 4
$T3 = -20						; size = 4
_this$ = -16						; size = 4
__$EHRec$ = -12						; size = 12
_ImageID$ = 8						; size = 4
?SetBgImage@C_ScrollBar@@QAEXJ@Z PROC			; C_ScrollBar::SetBgImage
; _this$ = ecx

; 139  : {

	push	ebp
	mov	ebp, esp
	push	-1
	push	__ehhandler$?SetBgImage@C_ScrollBar@@QAEXJ@Z
	mov	eax, DWORD PTR fs:0
	push	eax
	sub	esp, 16					; 00000010H
	mov	eax, DWORD PTR ___security_cookie
	xor	eax, ebp
	push	eax
	lea	eax, DWORD PTR __$EHRec$[ebp]
	mov	DWORD PTR fs:0, eax
	mov	DWORD PTR _this$[ebp], ecx

; 140  : 	if(!BgImage_)

	mov	eax, DWORD PTR _this$[ebp]
	cmp	DWORD PTR [eax+188], 0
	jne	SHORT $LN3@SetBgImage

; 141  : 	{
; 142  : 		BgImage_=new O_Output;

	push	144					; 00000090H
	call	??2@YAPAXI@Z				; operator new
	add	esp, 4
	mov	DWORD PTR $T3[ebp], eax
	mov	DWORD PTR __$EHRec$[ebp+8], 0
	cmp	DWORD PTR $T3[ebp], 0
	je	SHORT $LN6@SetBgImage
	mov	ecx, DWORD PTR $T3[ebp]
	call	??0O_Output@@QAE@XZ			; O_Output::O_Output
	mov	DWORD PTR tv74[ebp], eax
	jmp	SHORT $LN7@SetBgImage
$LN6@SetBgImage:
	mov	DWORD PTR tv74[ebp], 0
$LN7@SetBgImage:
	mov	ecx, DWORD PTR tv74[ebp]
	mov	DWORD PTR $T2[ebp], ecx
	mov	DWORD PTR __$EHRec$[ebp+8], -1
	mov	edx, DWORD PTR _this$[ebp]
	mov	eax, DWORD PTR $T2[ebp]
	mov	DWORD PTR [edx+188], eax

; 143  : 		BgImage_->SetOwner(this);

	mov	ecx, DWORD PTR _this$[ebp]
	push	ecx
	mov	edx, DWORD PTR _this$[ebp]
	mov	ecx, DWORD PTR [edx+188]
	call	?SetOwner@O_Output@@QAEXPAVC_Base@@@Z	; O_Output::SetOwner
$LN3@SetBgImage:

; 144  : 	}
; 145  : 	BgImage_->SetImage(ImageID);

	mov	eax, DWORD PTR _ImageID$[ebp]
	push	eax
	mov	ecx, DWORD PTR _this$[ebp]
	mov	ecx, DWORD PTR [ecx+188]
	call	?SetImage@O_Output@@QAEXJ@Z		; O_Output::SetImage

; 146  : 	if(BgImage_->Ready())

	mov	edx, DWORD PTR _this$[ebp]
	mov	ecx, DWORD PTR [edx+188]
	call	?Ready@O_Output@@QAEFXZ			; O_Output::Ready
	cwde
	test	eax, eax
	je	SHORT $LN2@SetBgImage

; 147  : 		SetFlagBitOn(C_BIT_USEBGIMAGE);

	push	32768					; 00008000H
	mov	ecx, DWORD PTR _this$[ebp]
	mov	edx, DWORD PTR [ecx]
	mov	ecx, DWORD PTR _this$[ebp]
	mov	eax, DWORD PTR [edx+8]
	call	eax

; 148  : 	else

	jmp	SHORT $LN4@SetBgImage
$LN2@SetBgImage:

; 149  : 		SetFlagBitOff(C_BIT_USEBGIMAGE);

	push	32768					; 00008000H
	mov	ecx, DWORD PTR _this$[ebp]
	mov	edx, DWORD PTR [ecx]
	mov	ecx, DWORD PTR _this$[ebp]
	mov	eax, DWORD PTR [edx+12]
	call	eax
$LN4@SetBgImage:

; 150  : }

	mov	ecx, DWORD PTR __$EHRec$[ebp]
	mov	DWORD PTR fs:0, ecx
	pop	ecx
	mov	esp, ebp
	pop	ebp
	ret	4
_TEXT	ENDS
text$x	SEGMENT
__unwindfunclet$?SetBgImage@C_ScrollBar@@QAEXJ@Z$0:
	mov	eax, DWORD PTR $T3[ebp]
	push	eax
	call	??3@YAXPAX@Z				; operator delete
	pop	ecx
	ret	0
__ehhandler$?SetBgImage@C_ScrollBar@@QAEXJ@Z:
	mov	edx, DWORD PTR [esp+8]
	lea	eax, DWORD PTR [edx+12]
	mov	ecx, DWORD PTR [edx-20]
	xor	ecx, eax
	call	@__security_check_cookie@4
	mov	eax, OFFSET __ehfuncinfo$?SetBgImage@C_ScrollBar@@QAEXJ@Z
	jmp	___CxxFrameHandler3
text$x	ENDS
?SetBgImage@C_ScrollBar@@QAEXJ@Z ENDP			; C_ScrollBar::SetBgImage
; Function compile flags: /Odtp
; File c:\users\zhitao li\documents\visual studio 2012\projects\freefalcon\ui95\cscroll.h
;	COMDAT ?SetDefaultFlags@C_ScrollBar@@QAEXXZ
_TEXT	SEGMENT
_this$ = -4						; size = 4
?SetDefaultFlags@C_ScrollBar@@QAEXXZ PROC		; C_ScrollBar::SetDefaultFlags, COMDAT
; _this$ = ecx

; 52   : 		void SetDefaultFlags() { SetFlags(DefaultFlags_); }

	push	ebp
	mov	ebp, esp
	push	ecx
	mov	DWORD PTR _this$[ebp], ecx
	mov	eax, DWORD PTR _this$[ebp]
	mov	ecx, DWORD PTR [eax+100]
	push	ecx
	mov	edx, DWORD PTR _this$[ebp]
	mov	eax, DWORD PTR [edx]
	mov	ecx, DWORD PTR _this$[ebp]
	mov	edx, DWORD PTR [eax+4]
	call	edx
	mov	esp, ebp
	pop	ebp
	ret	0
?SetDefaultFlags@C_ScrollBar@@QAEXXZ ENDP		; C_ScrollBar::SetDefaultFlags
_TEXT	ENDS
; Function compile flags: /Odtp
; File c:\users\zhitao li\documents\visual studio 2012\projects\freefalcon\ui95\cscroll.h
;	COMDAT ?SetDistance@C_ScrollBar@@QAEXH@Z
_TEXT	SEGMENT
_this$ = -4						; size = 4
_dist$ = 8						; size = 4
?SetDistance@C_ScrollBar@@QAEXH@Z PROC			; C_ScrollBar::SetDistance, COMDAT
; _this$ = ecx

; 49   : 		void SetDistance(int dist) { Distance_=(short)dist; }//! 

	push	ebp
	mov	ebp, esp
	push	ecx
	mov	DWORD PTR _this$[ebp], ecx
	movsx	eax, WORD PTR _dist$[ebp]
	mov	ecx, DWORD PTR _this$[ebp]
	mov	DWORD PTR [ecx+156], eax
	mov	esp, ebp
	pop	ebp
	ret	4
?SetDistance@C_ScrollBar@@QAEXH@Z ENDP			; C_ScrollBar::SetDistance
_TEXT	ENDS
; Function compile flags: /Odtp
; File c:\users\zhitao li\documents\visual studio 2012\projects\freefalcon\ui95\cscroll.cpp
_TEXT	SEGMENT
tv157 = -40						; size = 4
$T1 = -36						; size = 4
tv131 = -32						; size = 4
$T2 = -28						; size = 4
tv73 = -24						; size = 4
$T3 = -20						; size = 4
$T4 = -16						; size = 4
$T5 = -12						; size = 4
$T6 = -8						; size = 4
_this$ = -4						; size = 4
?Cleanup@C_ScrollBar@@UAEXXZ PROC			; C_ScrollBar::Cleanup
; _this$ = ecx

; 115  : {

	push	ebp
	mov	ebp, esp
	sub	esp, 40					; 00000028H
	mov	DWORD PTR _this$[ebp], ecx

; 116  : 	if(BgImage_)

	mov	eax, DWORD PTR _this$[ebp]
	cmp	DWORD PTR [eax+188], 0
	je	SHORT $LN3@Cleanup

; 117  : 	{
; 118  : 		BgImage_->Cleanup();

	mov	ecx, DWORD PTR _this$[ebp]
	mov	ecx, DWORD PTR [ecx+188]
	call	?Cleanup@O_Output@@QAEXXZ		; O_Output::Cleanup

; 119  : 		delete BgImage_;

	mov	edx, DWORD PTR _this$[ebp]
	mov	eax, DWORD PTR [edx+188]
	mov	DWORD PTR $T3[ebp], eax
	mov	ecx, DWORD PTR $T3[ebp]
	mov	DWORD PTR $T4[ebp], ecx
	cmp	DWORD PTR $T4[ebp], 0
	je	SHORT $LN6@Cleanup
	push	1
	mov	ecx, DWORD PTR $T4[ebp]
	call	??_GO_Output@@QAEPAXI@Z
	mov	DWORD PTR tv73[ebp], eax
	jmp	SHORT $LN7@Cleanup
$LN6@Cleanup:
	mov	DWORD PTR tv73[ebp], 0
$LN7@Cleanup:

; 120  : 		BgImage_=NULL;

	mov	edx, DWORD PTR _this$[ebp]
	mov	DWORD PTR [edx+188], 0
$LN3@Cleanup:

; 121  : 	}
; 122  : 	if(Plus_)

	mov	eax, DWORD PTR _this$[ebp]
	cmp	DWORD PTR [eax+192], 0
	je	SHORT $LN2@Cleanup

; 123  : 	{
; 124  : 		Plus_->Cleanup();

	mov	ecx, DWORD PTR _this$[ebp]
	mov	edx, DWORD PTR [ecx+192]
	mov	eax, DWORD PTR _this$[ebp]
	mov	edx, DWORD PTR [edx]
	mov	ecx, DWORD PTR [eax+192]
	mov	eax, DWORD PTR [edx+176]
	call	eax

; 125  : 		delete Plus_;

	mov	ecx, DWORD PTR _this$[ebp]
	mov	edx, DWORD PTR [ecx+192]
	mov	DWORD PTR $T2[ebp], edx
	mov	eax, DWORD PTR $T2[ebp]
	mov	DWORD PTR $T6[ebp], eax
	cmp	DWORD PTR $T6[ebp], 0
	je	SHORT $LN8@Cleanup
	push	1
	mov	ecx, DWORD PTR $T6[ebp]
	mov	edx, DWORD PTR [ecx]
	mov	ecx, DWORD PTR $T6[ebp]
	mov	eax, DWORD PTR [edx]
	call	eax
	mov	DWORD PTR tv131[ebp], eax
	jmp	SHORT $LN9@Cleanup
$LN8@Cleanup:
	mov	DWORD PTR tv131[ebp], 0
$LN9@Cleanup:

; 126  : 		Plus_=NULL;

	mov	ecx, DWORD PTR _this$[ebp]
	mov	DWORD PTR [ecx+192], 0
$LN2@Cleanup:

; 127  : 	}
; 128  : 	if(Minus_)

	mov	edx, DWORD PTR _this$[ebp]
	cmp	DWORD PTR [edx+196], 0
	je	SHORT $LN1@Cleanup

; 129  : 	{
; 130  : 		Minus_->Cleanup();

	mov	eax, DWORD PTR _this$[ebp]
	mov	ecx, DWORD PTR [eax+196]
	mov	edx, DWORD PTR _this$[ebp]
	mov	eax, DWORD PTR [ecx]
	mov	ecx, DWORD PTR [edx+196]
	mov	edx, DWORD PTR [eax+176]
	call	edx

; 131  : 		delete Minus_;

	mov	eax, DWORD PTR _this$[ebp]
	mov	ecx, DWORD PTR [eax+196]
	mov	DWORD PTR $T1[ebp], ecx
	mov	edx, DWORD PTR $T1[ebp]
	mov	DWORD PTR $T5[ebp], edx
	cmp	DWORD PTR $T5[ebp], 0
	je	SHORT $LN10@Cleanup
	push	1
	mov	eax, DWORD PTR $T5[ebp]
	mov	edx, DWORD PTR [eax]
	mov	ecx, DWORD PTR $T5[ebp]
	mov	eax, DWORD PTR [edx]
	call	eax
	mov	DWORD PTR tv157[ebp], eax
	jmp	SHORT $LN11@Cleanup
$LN10@Cleanup:
	mov	DWORD PTR tv157[ebp], 0
$LN11@Cleanup:

; 132  : 		Minus_=NULL;

	mov	ecx, DWORD PTR _this$[ebp]
	mov	DWORD PTR [ecx+196], 0
$LN1@Cleanup:

; 133  : 	}
; 134  : 	Slider_=NULL;

	mov	edx, DWORD PTR _this$[ebp]
	mov	DWORD PTR [edx+200], 0

; 135  : 	SetReady(0);

	push	0
	mov	ecx, DWORD PTR _this$[ebp]
	call	?SetReady@C_Base@@QAEXF@Z		; C_Base::SetReady

; 136  : }

	mov	esp, ebp
	pop	ebp
	ret	0
?Cleanup@C_ScrollBar@@UAEXXZ ENDP			; C_ScrollBar::Cleanup
_TEXT	ENDS
; Function compile flags: /Odtp
; File c:\users\zhitao li\documents\visual studio 2012\projects\freefalcon\ui95\cscroll.cpp
_TEXT	SEGMENT
_this$ = -4						; size = 4
_ID$ = 8						; size = 4
_Type$ = 12						; size = 2
?Setup@C_ScrollBar@@QAEXJF@Z PROC			; C_ScrollBar::Setup
; _this$ = ecx

; 89   : {

	push	ebp
	mov	ebp, esp
	push	ecx
	mov	DWORD PTR _this$[ebp], ecx

; 90   : 	SetReady(0);

	push	0
	mov	ecx, DWORD PTR _this$[ebp]
	call	?SetReady@C_Base@@QAEXF@Z		; C_Base::SetReady

; 91   : 	SetID(ID);

	mov	eax, DWORD PTR _ID$[ebp]
	push	eax
	mov	ecx, DWORD PTR _this$[ebp]
	call	?SetID@C_Base@@QAEXJ@Z			; C_Base::SetID

; 92   : 	SetType(Type);

	movzx	ecx, WORD PTR _Type$[ebp]
	push	ecx
	mov	ecx, DWORD PTR _this$[ebp]
	call	?SetType@C_Base@@QAEXF@Z		; C_Base::SetType

; 93   : 	SetDefaultFlags();

	mov	ecx, DWORD PTR _this$[ebp]
	call	?SetDefaultFlags@C_ScrollBar@@QAEXXZ	; C_ScrollBar::SetDefaultFlags

; 94   : 	SetGroup(0);

	push	0
	mov	ecx, DWORD PTR _this$[ebp]
	call	?SetGroup@C_Base@@QAEXJ@Z		; C_Base::SetGroup

; 95   : 
; 96   : 	BGX_=0;

	mov	edx, DWORD PTR _this$[ebp]
	mov	DWORD PTR [edx+104], 0

; 97   : 	BGY_=0;

	mov	eax, DWORD PTR _this$[ebp]
	mov	DWORD PTR [eax+108], 0

; 98   : 	BGW_=0;

	mov	ecx, DWORD PTR _this$[ebp]
	mov	DWORD PTR [ecx+112], 0

; 99   : 	BGH_=0;

	mov	edx, DWORD PTR _this$[ebp]
	mov	DWORD PTR [edx+116], 0

; 100  : 	SX_=0;

	mov	eax, DWORD PTR _this$[ebp]
	mov	DWORD PTR [eax+128], 0

; 101  : 	SY_=0;

	mov	ecx, DWORD PTR _this$[ebp]
	mov	DWORD PTR [ecx+132], 0

; 102  : 	BgImage_=NULL;

	mov	edx, DWORD PTR _this$[ebp]
	mov	DWORD PTR [edx+188], 0

; 103  : 	Slider_=NULL;

	mov	eax, DWORD PTR _this$[ebp]
	mov	DWORD PTR [eax+200], 0

; 104  : 	ControlPressed_=0;

	xor	ecx, ecx
	mov	edx, DWORD PTR _this$[ebp]
	mov	WORD PTR [edx+184], cx

; 105  : 	Distance_=1;

	mov	eax, DWORD PTR _this$[ebp]
	mov	DWORD PTR [eax+156], 1

; 106  : 	MinPos_=0;

	mov	ecx, DWORD PTR _this$[ebp]
	mov	DWORD PTR [ecx+152], 0

; 107  : 	MaxPos_=1;

	mov	edx, DWORD PTR _this$[ebp]
	mov	DWORD PTR [edx+160], 1

; 108  : 	Range_=1.0f;

	mov	eax, DWORD PTR _this$[ebp]
	movss	xmm0, DWORD PTR __real@3f800000
	movss	DWORD PTR [eax+164], xmm0

; 109  : 
; 110  : 	Plus_=NULL;

	mov	ecx, DWORD PTR _this$[ebp]
	mov	DWORD PTR [ecx+192], 0

; 111  : 	Minus_=NULL;

	mov	edx, DWORD PTR _this$[ebp]
	mov	DWORD PTR [edx+196], 0

; 112  : }

	mov	esp, ebp
	pop	ebp
	ret	8
?Setup@C_ScrollBar@@QAEXJF@Z ENDP			; C_ScrollBar::Setup
_TEXT	ENDS
; Function compile flags: /Odtp
; File c:\users\zhitao li\documents\visual studio 2012\projects\freefalcon\ui95\cscroll.cpp
_TEXT	SEGMENT
_this$ = -4						; size = 4
?Size@C_ScrollBar@@QAEJXZ PROC				; C_ScrollBar::Size
; _this$ = ecx

; 84   : {

	push	ebp
	mov	ebp, esp
	push	ecx
	mov	DWORD PTR _this$[ebp], ecx

; 85   : 	return(0);

	xor	eax, eax

; 86   : }

	mov	esp, ebp
	pop	ebp
	ret	0
?Size@C_ScrollBar@@QAEJXZ ENDP				; C_ScrollBar::Size
_TEXT	ENDS
; Function compile flags: /Odtp
; File c:\users\zhitao li\documents\visual studio 2012\projects\freefalcon\ui95\cscroll.cpp
_TEXT	SEGMENT
_this$ = -4						; size = 4
??1C_ScrollBar@@UAE@XZ PROC				; C_ScrollBar::~C_ScrollBar
; _this$ = ecx

; 80   : {

	push	ebp
	mov	ebp, esp
	push	ecx
	mov	DWORD PTR _this$[ebp], ecx
	mov	eax, DWORD PTR _this$[ebp]
	mov	DWORD PTR [eax], OFFSET ??_7C_ScrollBar@@6B@

; 81   : }

	mov	ecx, DWORD PTR _this$[ebp]
	call	??1C_Control@@UAE@XZ			; C_Control::~C_Control
	mov	esp, ebp
	pop	ebp
	ret	0
??1C_ScrollBar@@UAE@XZ ENDP				; C_ScrollBar::~C_ScrollBar
_TEXT	ENDS
; Function compile flags: /Odtp
; File c:\users\zhitao li\documents\visual studio 2012\projects\freefalcon\ui95\cscroll.cpp
_TEXT	SEGMENT
_this$ = -4						; size = 4
_fp$ = 8						; size = 4
??0C_ScrollBar@@QAE@PAU_iobuf@@@Z PROC			; C_ScrollBar::C_ScrollBar
; _this$ = ecx

; 76   : {

	push	ebp
	mov	ebp, esp
	push	ecx
	mov	DWORD PTR _this$[ebp], ecx
	mov	eax, DWORD PTR _fp$[ebp]
	push	eax
	mov	ecx, DWORD PTR _this$[ebp]
	call	??0C_Control@@QAE@PAU_iobuf@@@Z		; C_Control::C_Control
	mov	ecx, DWORD PTR _this$[ebp]
	mov	DWORD PTR [ecx], OFFSET ??_7C_ScrollBar@@6B@

; 77   : }

	mov	eax, DWORD PTR _this$[ebp]
	mov	esp, ebp
	pop	ebp
	ret	4
??0C_ScrollBar@@QAE@PAU_iobuf@@@Z ENDP			; C_ScrollBar::C_ScrollBar
_TEXT	ENDS
; Function compile flags: /Odtp
; File c:\users\zhitao li\documents\visual studio 2012\projects\freefalcon\ui95\cscroll.cpp
_TEXT	SEGMENT
_this$ = -4						; size = 4
_stream$ = 8						; size = 4
??0C_ScrollBar@@QAE@PAPAD@Z PROC			; C_ScrollBar::C_ScrollBar
; _this$ = ecx

; 72   : {

	push	ebp
	mov	ebp, esp
	push	ecx
	mov	DWORD PTR _this$[ebp], ecx
	mov	eax, DWORD PTR _stream$[ebp]
	push	eax
	mov	ecx, DWORD PTR _this$[ebp]
	call	??0C_Control@@QAE@PAPAD@Z		; C_Control::C_Control
	mov	ecx, DWORD PTR _this$[ebp]
	mov	DWORD PTR [ecx], OFFSET ??_7C_ScrollBar@@6B@

; 73   : }

	mov	eax, DWORD PTR _this$[ebp]
	mov	esp, ebp
	pop	ebp
	ret	4
??0C_ScrollBar@@QAE@PAPAD@Z ENDP			; C_ScrollBar::C_ScrollBar
_TEXT	ENDS
; Function compile flags: /Odtp
; File c:\users\zhitao li\documents\visual studio 2012\projects\freefalcon\ui95\cscroll.cpp
_TEXT	SEGMENT
_this$ = -16						; size = 4
__$EHRec$ = -12						; size = 12
??0C_ScrollBar@@QAE@XZ PROC				; C_ScrollBar::C_ScrollBar
; _this$ = ecx

; 37   : {

	push	ebp
	mov	ebp, esp
	push	-1
	push	__ehhandler$??0C_ScrollBar@@QAE@XZ
	mov	eax, DWORD PTR fs:0
	push	eax
	push	ecx
	mov	eax, DWORD PTR ___security_cookie
	xor	eax, ebp
	push	eax
	lea	eax, DWORD PTR __$EHRec$[ebp]
	mov	DWORD PTR fs:0, eax
	mov	DWORD PTR _this$[ebp], ecx
	mov	ecx, DWORD PTR _this$[ebp]
	call	??0C_Control@@QAE@XZ			; C_Control::C_Control
	mov	DWORD PTR __$EHRec$[ebp+8], 0
	mov	eax, DWORD PTR _this$[ebp]
	mov	DWORD PTR [eax], OFFSET ??_7C_ScrollBar@@6B@

; 38   : 	_SetCType_(_CNTL_SCROLLBAR_);

	push	16393					; 00004009H
	mov	ecx, DWORD PTR _this$[ebp]
	call	?_SetCType_@C_Base@@QAEXF@Z		; C_Base::_SetCType_

; 39   : 	BGX_=0;

	mov	ecx, DWORD PTR _this$[ebp]
	mov	DWORD PTR [ecx+104], 0

; 40   : 	BGY_=0;

	mov	edx, DWORD PTR _this$[ebp]
	mov	DWORD PTR [edx+108], 0

; 41   : 	BGW_=0;

	mov	eax, DWORD PTR _this$[ebp]
	mov	DWORD PTR [eax+112], 0

; 42   : 	BGH_=0;

	mov	ecx, DWORD PTR _this$[ebp]
	mov	DWORD PTR [ecx+116], 0

; 43   : 	SX_=0;

	mov	edx, DWORD PTR _this$[ebp]
	mov	DWORD PTR [edx+128], 0

; 44   : 	SY_=0;

	mov	eax, DWORD PTR _this$[ebp]
	mov	DWORD PTR [eax+132], 0

; 45   : 	ControlPressed_=0;

	xor	ecx, ecx
	mov	edx, DWORD PTR _this$[ebp]
	mov	WORD PTR [edx+184], cx

; 46   : 
; 47   : 	MinPos_=0;

	mov	eax, DWORD PTR _this$[ebp]
	mov	DWORD PTR [eax+152], 0

; 48   : 	Distance_=0;

	mov	ecx, DWORD PTR _this$[ebp]
	mov	DWORD PTR [ecx+156], 0

; 49   : 	MaxPos_=0;

	mov	edx, DWORD PTR _this$[ebp]
	mov	DWORD PTR [edx+160], 0

; 50   : 	VirtualW_=-1;

	mov	eax, DWORD PTR _this$[ebp]
	mov	DWORD PTR [eax+120], -1

; 51   : 	VirtualH_=-1;

	mov	ecx, DWORD PTR _this$[ebp]
	mov	DWORD PTR [ecx+124], -1

; 52   : 
; 53   : 	lite_=0;

	mov	edx, DWORD PTR _this$[ebp]
	mov	DWORD PTR [edx+136], 0

; 54   : 	medium_=0;

	mov	eax, DWORD PTR _this$[ebp]
	mov	DWORD PTR [eax+140], 0

; 55   : 	dark_=0;

	mov	ecx, DWORD PTR _this$[ebp]
	mov	DWORD PTR [ecx+144], 0

; 56   : 
; 57   : 	LineColor_=0;

	mov	edx, DWORD PTR _this$[ebp]
	mov	DWORD PTR [edx+148], 0

; 58   : 
; 59   : 	Plus_=NULL;

	mov	eax, DWORD PTR _this$[ebp]
	mov	DWORD PTR [eax+192], 0

; 60   : 	Minus_=NULL;

	mov	ecx, DWORD PTR _this$[ebp]
	mov	DWORD PTR [ecx+196], 0

; 61   : 	BgImage_=NULL;

	mov	edx, DWORD PTR _this$[ebp]
	mov	DWORD PTR [edx+188], 0

; 62   : 	Slider_=NULL;

	mov	eax, DWORD PTR _this$[ebp]
	mov	DWORD PTR [eax+200], 0

; 63   : 	SliderRect_.left=0;

	mov	ecx, DWORD PTR _this$[ebp]
	mov	DWORD PTR [ecx+168], 0

; 64   : 	SliderRect_.top=0;

	mov	edx, DWORD PTR _this$[ebp]
	mov	DWORD PTR [edx+172], 0

; 65   : 	SliderRect_.right=0;

	mov	eax, DWORD PTR _this$[ebp]
	mov	DWORD PTR [eax+176], 0

; 66   : 	SliderRect_.bottom=0;

	mov	ecx, DWORD PTR _this$[ebp]
	mov	DWORD PTR [ecx+180], 0

; 67   : 
; 68   : 	DefaultFlags_=C_BIT_ENABLED|C_BIT_REMOVE|C_BIT_SELECTABLE|C_BIT_MOUSEOVER;

	mov	edx, DWORD PTR _this$[ebp]
	mov	DWORD PTR [edx+100], 336070656		; 14080800H

; 69   : }

	mov	DWORD PTR __$EHRec$[ebp+8], -1
	mov	eax, DWORD PTR _this$[ebp]
	mov	ecx, DWORD PTR __$EHRec$[ebp]
	mov	DWORD PTR fs:0, ecx
	pop	ecx
	mov	esp, ebp
	pop	ebp
	ret	0
_TEXT	ENDS
text$x	SEGMENT
__unwindfunclet$??0C_ScrollBar@@QAE@XZ$0:
	mov	ecx, DWORD PTR _this$[ebp]
	jmp	??1C_Control@@UAE@XZ			; C_Control::~C_Control
__ehhandler$??0C_ScrollBar@@QAE@XZ:
	mov	edx, DWORD PTR [esp+8]
	lea	eax, DWORD PTR [edx+12]
	mov	ecx, DWORD PTR [edx-8]
	xor	ecx, eax
	call	@__security_check_cookie@4
	mov	eax, OFFSET __ehfuncinfo$??0C_ScrollBar@@QAE@XZ
	jmp	___CxxFrameHandler3
text$x	ENDS
??0C_ScrollBar@@QAE@XZ ENDP				; C_ScrollBar::C_ScrollBar
; Function compile flags: /Odtp
; File c:\users\zhitao li\documents\visual studio 2012\projects\freefalcon\ui95\cscroll.cpp
_TEXT	SEGMENT
tv85 = -28						; size = 4
_this$ = -24						; size = 4
_rect$ = -20						; size = 16
__$ArrayPad$ = -4					; size = 4
?CalcRanges@C_ScrollBar@@AAEXXZ PROC			; C_ScrollBar::CalcRanges
; _this$ = ecx

; 252  : {

	push	ebp
	mov	ebp, esp
	sub	esp, 28					; 0000001cH
	mov	eax, DWORD PTR ___security_cookie
	xor	eax, ebp
	mov	DWORD PTR __$ArrayPad$[ebp], eax
	mov	DWORD PTR _this$[ebp], ecx

; 253  : 	UI95_RECT rect;
; 254  : 
; 255  : 	rect.left=0;

	mov	DWORD PTR _rect$[ebp], 0

; 256  : 	rect.top=0;

	mov	DWORD PTR _rect$[ebp+4], 0

; 257  : 	rect.right=rect.left+GetW();

	mov	ecx, DWORD PTR _this$[ebp]
	call	?GetW@C_Base@@QAEJXZ			; C_Base::GetW
	add	eax, DWORD PTR _rect$[ebp]
	mov	DWORD PTR _rect$[ebp+8], eax

; 258  : 	rect.bottom=rect.top+GetH();

	mov	ecx, DWORD PTR _this$[ebp]
	call	?GetH@C_Base@@QAEJXZ			; C_Base::GetH
	add	eax, DWORD PTR _rect$[ebp+4]
	mov	DWORD PTR _rect$[ebp+12], eax

; 259  : 
; 260  : 	switch(GetType())

	mov	ecx, DWORD PTR _this$[ebp]
	call	?GetType@C_Base@@QAEFXZ			; C_Base::GetType
	cwde
	mov	DWORD PTR tv85[ebp], eax
	cmp	DWORD PTR tv85[ebp], 62			; 0000003eH
	je	SHORT $LN16@CalcRanges
	cmp	DWORD PTR tv85[ebp], 63			; 0000003fH
	je	$LN8@CalcRanges
	jmp	$LN19@CalcRanges
$LN16@CalcRanges:

; 261  : 	{
; 262  : 		case C_TYPE_VERTICAL:
; 263  : 			if(Minus_)

	mov	ecx, DWORD PTR _this$[ebp]
	cmp	DWORD PTR [ecx+196], 0
	je	SHORT $LN15@CalcRanges

; 264  : 				rect.top+=Minus_->GetH();

	mov	edx, DWORD PTR _this$[ebp]
	mov	ecx, DWORD PTR [edx+196]
	call	?GetH@C_Base@@QAEJXZ			; C_Base::GetH
	add	eax, DWORD PTR _rect$[ebp+4]
	mov	DWORD PTR _rect$[ebp+4], eax
$LN15@CalcRanges:

; 265  : 			if(Plus_)

	mov	eax, DWORD PTR _this$[ebp]
	cmp	DWORD PTR [eax+192], 0
	je	SHORT $LN14@CalcRanges

; 266  : 				rect.bottom-= Plus_->GetH();

	mov	ecx, DWORD PTR _this$[ebp]
	mov	ecx, DWORD PTR [ecx+192]
	call	?GetH@C_Base@@QAEJXZ			; C_Base::GetH
	mov	edx, DWORD PTR _rect$[ebp+12]
	sub	edx, eax
	mov	DWORD PTR _rect$[ebp+12], edx
$LN14@CalcRanges:

; 267  : 			MinPos_=rect.top;

	mov	eax, DWORD PTR _this$[ebp]
	mov	ecx, DWORD PTR _rect$[ebp+4]
	mov	DWORD PTR [eax+152], ecx

; 268  : 			MaxPos_=rect.bottom;

	mov	edx, DWORD PTR _this$[ebp]
	mov	eax, DWORD PTR _rect$[ebp+12]
	mov	DWORD PTR [edx+160], eax

; 269  : 			if(Slider_)

	mov	ecx, DWORD PTR _this$[ebp]
	cmp	DWORD PTR [ecx+200], 0
	je	SHORT $LN13@CalcRanges

; 270  : 				MaxPos_-=Slider_->Header->h;

	mov	edx, DWORD PTR _this$[ebp]
	mov	eax, DWORD PTR [edx+200]
	mov	ecx, DWORD PTR [eax+8]
	movsx	edx, WORD PTR [ecx+46]
	mov	eax, DWORD PTR _this$[ebp]
	mov	ecx, DWORD PTR [eax+160]
	sub	ecx, edx
	mov	edx, DWORD PTR _this$[ebp]
	mov	DWORD PTR [edx+160], ecx

; 271  : 			else

	jmp	SHORT $LN12@CalcRanges
$LN13@CalcRanges:

; 272  : 			{
; 273  : 				SliderRect_.left=0;

	mov	eax, DWORD PTR _this$[ebp]
	mov	DWORD PTR [eax+168], 0

; 274  : 				SliderRect_.right=GetW();

	mov	ecx, DWORD PTR _this$[ebp]
	call	?GetW@C_Base@@QAEJXZ			; C_Base::GetW
	mov	ecx, DWORD PTR _this$[ebp]
	mov	DWORD PTR [ecx+176], eax

; 275  : 				SliderRect_.top=0;

	mov	edx, DWORD PTR _this$[ebp]
	mov	DWORD PTR [edx+172], 0

; 276  : 				SliderRect_.bottom=GetW();

	mov	ecx, DWORD PTR _this$[ebp]
	call	?GetW@C_Base@@QAEJXZ			; C_Base::GetW
	mov	ecx, DWORD PTR _this$[ebp]
	mov	DWORD PTR [ecx+180], eax

; 277  : 				MaxPos_-=GetW();

	mov	ecx, DWORD PTR _this$[ebp]
	call	?GetW@C_Base@@QAEJXZ			; C_Base::GetW
	mov	edx, DWORD PTR _this$[ebp]
	mov	ecx, DWORD PTR [edx+160]
	sub	ecx, eax
	mov	edx, DWORD PTR _this$[ebp]
	mov	DWORD PTR [edx+160], ecx
$LN12@CalcRanges:

; 278  : 			}
; 279  : 			if(SY_ < MinPos_)

	mov	eax, DWORD PTR _this$[ebp]
	mov	ecx, DWORD PTR _this$[ebp]
	mov	edx, DWORD PTR [eax+132]
	cmp	edx, DWORD PTR [ecx+152]
	jge	SHORT $LN11@CalcRanges

; 280  : 				SY_=MinPos_;

	mov	eax, DWORD PTR _this$[ebp]
	mov	ecx, DWORD PTR _this$[ebp]
	mov	edx, DWORD PTR [ecx+152]
	mov	DWORD PTR [eax+132], edx
$LN11@CalcRanges:

; 281  : 			if(SY_ > MaxPos_)

	mov	eax, DWORD PTR _this$[ebp]
	mov	ecx, DWORD PTR _this$[ebp]
	mov	edx, DWORD PTR [eax+132]
	cmp	edx, DWORD PTR [ecx+160]
	jle	SHORT $LN10@CalcRanges

; 282  : 				SY_=MaxPos_;

	mov	eax, DWORD PTR _this$[ebp]
	mov	ecx, DWORD PTR _this$[ebp]
	mov	edx, DWORD PTR [ecx+160]
	mov	DWORD PTR [eax+132], edx
$LN10@CalcRanges:

; 283  : 			if(GetFlags() & C_BIT_USELINE)

	mov	ecx, DWORD PTR _this$[ebp]
	call	?GetFlags@C_Base@@QAEJXZ		; C_Base::GetFlags
	and	eax, 4194304				; 00400000H
	je	SHORT $LN9@CalcRanges

; 284  : 			{
; 285  : 				BGX_=GetW()/2;

	mov	ecx, DWORD PTR _this$[ebp]
	call	?GetW@C_Base@@QAEJXZ			; C_Base::GetW
	cdq
	sub	eax, edx
	sar	eax, 1
	mov	ecx, DWORD PTR _this$[ebp]
	mov	DWORD PTR [ecx+104], eax

; 286  : 				BGY_=rect.top;

	mov	edx, DWORD PTR _this$[ebp]
	mov	eax, DWORD PTR _rect$[ebp+4]
	mov	DWORD PTR [edx+108], eax

; 287  : 				BGW_=1;

	mov	ecx, DWORD PTR _this$[ebp]
	mov	DWORD PTR [ecx+112], 1

; 288  : 				BGH_=rect.bottom-rect.top;

	mov	edx, DWORD PTR _rect$[ebp+12]
	sub	edx, DWORD PTR _rect$[ebp+4]
	mov	eax, DWORD PTR _this$[ebp]
	mov	DWORD PTR [eax+116], edx
$LN9@CalcRanges:

; 289  : 			}
; 290  : 			break;

	jmp	$LN19@CalcRanges
$LN8@CalcRanges:

; 291  : 		case C_TYPE_HORIZONTAL:
; 292  : 			if(Minus_)

	mov	ecx, DWORD PTR _this$[ebp]
	cmp	DWORD PTR [ecx+196], 0
	je	SHORT $LN7@CalcRanges

; 293  : 				rect.left+=Minus_->GetH();

	mov	edx, DWORD PTR _this$[ebp]
	mov	ecx, DWORD PTR [edx+196]
	call	?GetH@C_Base@@QAEJXZ			; C_Base::GetH
	add	eax, DWORD PTR _rect$[ebp]
	mov	DWORD PTR _rect$[ebp], eax
$LN7@CalcRanges:

; 294  : 			if(Plus_)

	mov	eax, DWORD PTR _this$[ebp]
	cmp	DWORD PTR [eax+192], 0
	je	SHORT $LN6@CalcRanges

; 295  : 				rect.right-= Plus_->GetH();

	mov	ecx, DWORD PTR _this$[ebp]
	mov	ecx, DWORD PTR [ecx+192]
	call	?GetH@C_Base@@QAEJXZ			; C_Base::GetH
	mov	edx, DWORD PTR _rect$[ebp+8]
	sub	edx, eax
	mov	DWORD PTR _rect$[ebp+8], edx
$LN6@CalcRanges:

; 296  : 			MinPos_=rect.left;

	mov	eax, DWORD PTR _this$[ebp]
	mov	ecx, DWORD PTR _rect$[ebp]
	mov	DWORD PTR [eax+152], ecx

; 297  : 			MaxPos_=rect.right;

	mov	edx, DWORD PTR _this$[ebp]
	mov	eax, DWORD PTR _rect$[ebp+8]
	mov	DWORD PTR [edx+160], eax

; 298  : 			if(Slider_)

	mov	ecx, DWORD PTR _this$[ebp]
	cmp	DWORD PTR [ecx+200], 0
	je	SHORT $LN5@CalcRanges

; 299  : 				MaxPos_-=Slider_->Header->w;

	mov	edx, DWORD PTR _this$[ebp]
	mov	eax, DWORD PTR [edx+200]
	mov	ecx, DWORD PTR [eax+8]
	movsx	edx, WORD PTR [ecx+44]
	mov	eax, DWORD PTR _this$[ebp]
	mov	ecx, DWORD PTR [eax+160]
	sub	ecx, edx
	mov	edx, DWORD PTR _this$[ebp]
	mov	DWORD PTR [edx+160], ecx

; 300  : 			else

	jmp	SHORT $LN4@CalcRanges
$LN5@CalcRanges:

; 301  : 			{
; 302  : 				SliderRect_.left=0;

	mov	eax, DWORD PTR _this$[ebp]
	mov	DWORD PTR [eax+168], 0

; 303  : 				SliderRect_.right=GetH();

	mov	ecx, DWORD PTR _this$[ebp]
	call	?GetH@C_Base@@QAEJXZ			; C_Base::GetH
	mov	ecx, DWORD PTR _this$[ebp]
	mov	DWORD PTR [ecx+176], eax

; 304  : 				SliderRect_.top=0;

	mov	edx, DWORD PTR _this$[ebp]
	mov	DWORD PTR [edx+172], 0

; 305  : 				SliderRect_.bottom=GetH();

	mov	ecx, DWORD PTR _this$[ebp]
	call	?GetH@C_Base@@QAEJXZ			; C_Base::GetH
	mov	ecx, DWORD PTR _this$[ebp]
	mov	DWORD PTR [ecx+180], eax

; 306  : 				MaxPos_-=GetH();

	mov	ecx, DWORD PTR _this$[ebp]
	call	?GetH@C_Base@@QAEJXZ			; C_Base::GetH
	mov	edx, DWORD PTR _this$[ebp]
	mov	ecx, DWORD PTR [edx+160]
	sub	ecx, eax
	mov	edx, DWORD PTR _this$[ebp]
	mov	DWORD PTR [edx+160], ecx
$LN4@CalcRanges:

; 307  : 			}
; 308  : 			if(SX_ < MinPos_)

	mov	eax, DWORD PTR _this$[ebp]
	mov	ecx, DWORD PTR _this$[ebp]
	mov	edx, DWORD PTR [eax+128]
	cmp	edx, DWORD PTR [ecx+152]
	jge	SHORT $LN3@CalcRanges

; 309  : 				SX_=MinPos_;

	mov	eax, DWORD PTR _this$[ebp]
	mov	ecx, DWORD PTR _this$[ebp]
	mov	edx, DWORD PTR [ecx+152]
	mov	DWORD PTR [eax+128], edx
$LN3@CalcRanges:

; 310  : 			if(SX_ > MaxPos_)

	mov	eax, DWORD PTR _this$[ebp]
	mov	ecx, DWORD PTR _this$[ebp]
	mov	edx, DWORD PTR [eax+128]
	cmp	edx, DWORD PTR [ecx+160]
	jle	SHORT $LN2@CalcRanges

; 311  : 				SX_=MaxPos_;

	mov	eax, DWORD PTR _this$[ebp]
	mov	ecx, DWORD PTR _this$[ebp]
	mov	edx, DWORD PTR [ecx+160]
	mov	DWORD PTR [eax+128], edx
$LN2@CalcRanges:

; 312  : 			if(GetFlags() & C_BIT_USELINE)

	mov	ecx, DWORD PTR _this$[ebp]
	call	?GetFlags@C_Base@@QAEJXZ		; C_Base::GetFlags
	and	eax, 4194304				; 00400000H
	je	SHORT $LN19@CalcRanges

; 313  : 			{
; 314  : 				BGY_=rect.left;

	mov	eax, DWORD PTR _this$[ebp]
	mov	ecx, DWORD PTR _rect$[ebp]
	mov	DWORD PTR [eax+108], ecx

; 315  : 				BGX_=GetH()/2;

	mov	ecx, DWORD PTR _this$[ebp]
	call	?GetH@C_Base@@QAEJXZ			; C_Base::GetH
	cdq
	sub	eax, edx
	sar	eax, 1
	mov	edx, DWORD PTR _this$[ebp]
	mov	DWORD PTR [edx+104], eax

; 316  : 				BGW_=rect.right-rect.left;

	mov	eax, DWORD PTR _rect$[ebp+8]
	sub	eax, DWORD PTR _rect$[ebp]
	mov	ecx, DWORD PTR _this$[ebp]
	mov	DWORD PTR [ecx+112], eax

; 317  : 				BGH_=1;

	mov	edx, DWORD PTR _this$[ebp]
	mov	DWORD PTR [edx+116], 1
$LN19@CalcRanges:

; 318  : 			}
; 319  : 			break;
; 320  : 	}
; 321  : 
; 322  : }

	mov	ecx, DWORD PTR __$ArrayPad$[ebp]
	xor	ecx, ebp
	call	@__security_check_cookie@4
	mov	esp, ebp
	pop	ebp
	ret	0
?CalcRanges@C_ScrollBar@@AAEXXZ ENDP			; C_ScrollBar::CalcRanges
_TEXT	ENDS
; Function compile flags: /Odtp
;	COMDAT ??_GC_Control@@UAEPAXI@Z
_TEXT	SEGMENT
_this$ = -4						; size = 4
___flags$ = 8						; size = 4
??_GC_Control@@UAEPAXI@Z PROC				; C_Control::`scalar deleting destructor', COMDAT
; _this$ = ecx
	push	ebp
	mov	ebp, esp
	push	ecx
	mov	DWORD PTR _this$[ebp], ecx
	mov	ecx, DWORD PTR _this$[ebp]
	call	??1C_Control@@UAE@XZ			; C_Control::~C_Control
	mov	eax, DWORD PTR ___flags$[ebp]
	and	eax, 1
	je	SHORT $LN1@scalar
	mov	ecx, DWORD PTR _this$[ebp]
	push	ecx
	call	??3@YAXPAX@Z				; operator delete
	add	esp, 4
$LN1@scalar:
	mov	eax, DWORD PTR _this$[ebp]
	mov	esp, ebp
	pop	ebp
	ret	4
??_GC_Control@@UAEPAXI@Z ENDP				; C_Control::`scalar deleting destructor'
_TEXT	ENDS
; Function compile flags: /Odtp
; File c:\users\zhitao li\documents\visual studio 2012\projects\freefalcon\ui95\ccontrol.h
;	COMDAT ?GetCallback@C_Control@@UAEP6AXJFPAVC_Base@@@ZXZ
_TEXT	SEGMENT
_this$ = -4						; size = 4
?GetCallback@C_Control@@UAEP6AXJFPAVC_Base@@@ZXZ PROC	; C_Control::GetCallback, COMDAT
; _this$ = ecx

; 82   : 		void (*GetCallback())(long,short,C_Base*)	{ return(Callback_); }

	push	ebp
	mov	ebp, esp
	push	ecx
	mov	DWORD PTR _this$[ebp], ecx
	mov	eax, DWORD PTR _this$[ebp]
	mov	eax, DWORD PTR [eax+96]
	mov	esp, ebp
	pop	ebp
	ret	0
?GetCallback@C_Control@@UAEP6AXJFPAVC_Base@@@ZXZ ENDP	; C_Control::GetCallback
_TEXT	ENDS
; Function compile flags: /Odtp
; File c:\users\zhitao li\documents\visual studio 2012\projects\freefalcon\ui95\ccontrol.h
;	COMDAT ?GetMouseOver@C_Control@@UAEFXZ
_TEXT	SEGMENT
_this$ = -4						; size = 4
?GetMouseOver@C_Control@@UAEFXZ PROC			; C_Control::GetMouseOver, COMDAT
; _this$ = ecx

; 80   : 		short GetMouseOver()			{ return(MouseOver_); }

	push	ebp
	mov	ebp, esp
	push	ecx
	mov	DWORD PTR _this$[ebp], ecx
	mov	eax, DWORD PTR _this$[ebp]
	mov	ax, WORD PTR [eax+82]
	mov	esp, ebp
	pop	ebp
	ret	0
?GetMouseOver@C_Control@@UAEFXZ ENDP			; C_Control::GetMouseOver
_TEXT	ENDS
; Function compile flags: /Odtp
; File c:\users\zhitao li\documents\visual studio 2012\projects\freefalcon\ui95\ccontrol.h
;	COMDAT ?GetHotKey@C_Control@@UAEFXZ
_TEXT	SEGMENT
_this$ = -4						; size = 4
?GetHotKey@C_Control@@UAEFXZ PROC			; C_Control::GetHotKey, COMDAT
; _this$ = ecx

; 79   : 		short GetHotKey()				{ return(HotKey_); }

	push	ebp
	mov	ebp, esp
	push	ecx
	mov	DWORD PTR _this$[ebp], ecx
	mov	eax, DWORD PTR _this$[ebp]
	mov	ax, WORD PTR [eax+80]
	mov	esp, ebp
	pop	ebp
	ret	0
?GetHotKey@C_Control@@UAEFXZ ENDP			; C_Control::GetHotKey
_TEXT	ENDS
; Function compile flags: /Odtp
; File c:\users\zhitao li\documents\visual studio 2012\projects\freefalcon\ui95\ccontrol.h
;	COMDAT ?GetHelpText@C_Control@@UAEJXZ
_TEXT	SEGMENT
_this$ = -4						; size = 4
?GetHelpText@C_Control@@UAEJXZ PROC			; C_Control::GetHelpText, COMDAT
; _this$ = ecx

; 78   : 		long  GetHelpText()				{ return(HelpTextID_); }

	push	ebp
	mov	ebp, esp
	push	ecx
	mov	DWORD PTR _this$[ebp], ecx
	mov	eax, DWORD PTR _this$[ebp]
	mov	eax, DWORD PTR [eax+64]
	mov	esp, ebp
	pop	ebp
	ret	0
?GetHelpText@C_Control@@UAEJXZ ENDP			; C_Control::GetHelpText
_TEXT	ENDS
; Function compile flags: /Odtp
; File c:\users\zhitao li\documents\visual studio 2012\projects\freefalcon\ui95\ccontrol.h
;	COMDAT ?GetMenu@C_Control@@UAEJXZ
_TEXT	SEGMENT
_this$ = -4						; size = 4
?GetMenu@C_Control@@UAEJXZ PROC				; C_Control::GetMenu, COMDAT
; _this$ = ecx

; 77   : 		long  GetMenu()					{ return(MenuID_); }

	push	ebp
	mov	ebp, esp
	push	ecx
	mov	DWORD PTR _this$[ebp], ecx
	mov	eax, DWORD PTR _this$[ebp]
	mov	eax, DWORD PTR [eax+60]
	mov	esp, ebp
	pop	ebp
	ret	0
?GetMenu@C_Control@@UAEJXZ ENDP				; C_Control::GetMenu
_TEXT	ENDS
; Function compile flags: /Odtp
; File c:\users\zhitao li\documents\visual studio 2012\projects\freefalcon\ui95\ccontrol.h
;	COMDAT ?GetDragCursorID@C_Control@@UAEJXZ
_TEXT	SEGMENT
_this$ = -4						; size = 4
?GetDragCursorID@C_Control@@UAEJXZ PROC			; C_Control::GetDragCursorID, COMDAT
; _this$ = ecx

; 76   : 		long  GetDragCursorID()			{ return(DragCursor_); }

	push	ebp
	mov	ebp, esp
	push	ecx
	mov	DWORD PTR _this$[ebp], ecx
	mov	eax, DWORD PTR _this$[ebp]
	mov	eax, DWORD PTR [eax+56]
	mov	esp, ebp
	pop	ebp
	ret	0
?GetDragCursorID@C_Control@@UAEJXZ ENDP			; C_Control::GetDragCursorID
_TEXT	ENDS
; Function compile flags: /Odtp
; File c:\users\zhitao li\documents\visual studio 2012\projects\freefalcon\ui95\ccontrol.h
;	COMDAT ?GetCursorID@C_Control@@UAEJXZ
_TEXT	SEGMENT
_this$ = -4						; size = 4
?GetCursorID@C_Control@@UAEJXZ PROC			; C_Control::GetCursorID, COMDAT
; _this$ = ecx

; 75   : 		long  GetCursorID()				{ return(Cursor_); }

	push	ebp
	mov	ebp, esp
	push	ecx
	mov	DWORD PTR _this$[ebp], ecx
	mov	eax, DWORD PTR _this$[ebp]
	mov	eax, DWORD PTR [eax+52]
	mov	esp, ebp
	pop	ebp
	ret	0
?GetCursorID@C_Control@@UAEJXZ ENDP			; C_Control::GetCursorID
_TEXT	ENDS
; Function compile flags: /Odtp
; File c:\users\zhitao li\documents\visual studio 2012\projects\freefalcon\ui95\ccontrol.h
;	COMDAT ?GetRelY@C_Control@@UAEJXZ
_TEXT	SEGMENT
_this$ = -4						; size = 4
?GetRelY@C_Control@@UAEJXZ PROC				; C_Control::GetRelY, COMDAT
; _this$ = ecx

; 73   : 		long GetRelY()					{ return(RelY_); }

	push	ebp
	mov	ebp, esp
	push	ecx
	mov	DWORD PTR _this$[ebp], ecx
	mov	eax, DWORD PTR _this$[ebp]
	mov	eax, DWORD PTR [eax+76]
	mov	esp, ebp
	pop	ebp
	ret	0
?GetRelY@C_Control@@UAEJXZ ENDP				; C_Control::GetRelY
_TEXT	ENDS
; Function compile flags: /Odtp
; File c:\users\zhitao li\documents\visual studio 2012\projects\freefalcon\ui95\ccontrol.h
;	COMDAT ?GetRelX@C_Control@@UAEJXZ
_TEXT	SEGMENT
_this$ = -4						; size = 4
?GetRelX@C_Control@@UAEJXZ PROC				; C_Control::GetRelX, COMDAT
; _this$ = ecx

; 72   : 		long GetRelX()					{ return(RelX_); }

	push	ebp
	mov	ebp, esp
	push	ecx
	mov	DWORD PTR _this$[ebp], ecx
	mov	eax, DWORD PTR _this$[ebp]
	mov	eax, DWORD PTR [eax+72]
	mov	esp, ebp
	pop	ebp
	ret	0
?GetRelX@C_Control@@UAEJXZ ENDP				; C_Control::GetRelX
_TEXT	ENDS
; Function compile flags: /Odtp
; File c:\users\zhitao li\documents\visual studio 2012\projects\freefalcon\ui95\ccontrol.h
;	COMDAT ?IsControl@C_Control@@UAEHXZ
_TEXT	SEGMENT
_this$ = -4						; size = 4
?IsControl@C_Control@@UAEHXZ PROC			; C_Control::IsControl, COMDAT
; _this$ = ecx

; 71   : 		BOOL  IsControl()				{ return(TRUE); }

	push	ebp
	mov	ebp, esp
	push	ecx
	mov	DWORD PTR _this$[ebp], ecx
	mov	eax, 1
	mov	esp, ebp
	pop	ebp
	ret	0
?IsControl@C_Control@@UAEHXZ ENDP			; C_Control::IsControl
_TEXT	ENDS
; Function compile flags: /Odtp
; File c:\users\zhitao li\documents\visual studio 2012\projects\freefalcon\ui95\ccontrol.h
;	COMDAT ?IsBase@C_Control@@UAEHXZ
_TEXT	SEGMENT
_this$ = -4						; size = 4
?IsBase@C_Control@@UAEHXZ PROC				; C_Control::IsBase, COMDAT
; _this$ = ecx

; 70   : 		BOOL  IsBase()					{ return(FALSE); }

	push	ebp
	mov	ebp, esp
	push	ecx
	mov	DWORD PTR _this$[ebp], ecx
	xor	eax, eax
	mov	esp, ebp
	pop	ebp
	ret	0
?IsBase@C_Control@@UAEHXZ ENDP				; C_Control::IsBase
_TEXT	ENDS
; Function compile flags: /Odtp
; File c:\users\zhitao li\documents\visual studio 2012\projects\freefalcon\ui95\ccontrol.h
;	COMDAT ?SetMouseOverPerc@C_Control@@UAEXF@Z
_TEXT	SEGMENT
_this$ = -4						; size = 4
_perc$ = 8						; size = 2
?SetMouseOverPerc@C_Control@@UAEXF@Z PROC		; C_Control::SetMouseOverPerc, COMDAT
; _this$ = ecx

; 67   : 		void SetMouseOverPerc(short perc)				{ MouseOverPercent_=perc; }

	push	ebp
	mov	ebp, esp
	push	ecx
	mov	DWORD PTR _this$[ebp], ecx
	mov	eax, DWORD PTR _this$[ebp]
	mov	cx, WORD PTR _perc$[ebp]
	mov	WORD PTR [eax+84], cx
	mov	esp, ebp
	pop	ebp
	ret	4
?SetMouseOverPerc@C_Control@@UAEXF@Z ENDP		; C_Control::SetMouseOverPerc
_TEXT	ENDS
; Function compile flags: /Odtp
; File c:\users\zhitao li\documents\visual studio 2012\projects\freefalcon\ui95\ccontrol.h
;	COMDAT ?SetMouseOverColor@C_Control@@UAEXK@Z
_TEXT	SEGMENT
_this$ = -4						; size = 4
_color$ = 8						; size = 4
?SetMouseOverColor@C_Control@@UAEXK@Z PROC		; C_Control::SetMouseOverColor, COMDAT
; _this$ = ecx

; 66   : 		void SetMouseOverColor(COLORREF color)			{ MouseOverColor_=color; }

	push	ebp
	mov	ebp, esp
	push	ecx
	mov	DWORD PTR _this$[ebp], ecx
	mov	eax, DWORD PTR _this$[ebp]
	mov	ecx, DWORD PTR _color$[ebp]
	mov	DWORD PTR [eax+68], ecx
	mov	esp, ebp
	pop	ebp
	ret	4
?SetMouseOverColor@C_Control@@UAEXK@Z ENDP		; C_Control::SetMouseOverColor
_TEXT	ENDS
; Function compile flags: /Odtp
; File c:\users\zhitao li\documents\visual studio 2012\projects\freefalcon\ui95\ccontrol.h
;	COMDAT ?SetMouseOver@C_Control@@UAEXF@Z
_TEXT	SEGMENT
_this$ = -4						; size = 4
_state$ = 8						; size = 2
?SetMouseOver@C_Control@@UAEXF@Z PROC			; C_Control::SetMouseOver, COMDAT
; _this$ = ecx

; 65   : 		void SetMouseOver(short state)					{ MouseOver_=state; }

	push	ebp
	mov	ebp, esp
	push	ecx
	mov	DWORD PTR _this$[ebp], ecx
	mov	eax, DWORD PTR _this$[ebp]
	mov	cx, WORD PTR _state$[ebp]
	mov	WORD PTR [eax+82], cx
	mov	esp, ebp
	pop	ebp
	ret	4
?SetMouseOver@C_Control@@UAEXF@Z ENDP			; C_Control::SetMouseOver
_TEXT	ENDS
; Function compile flags: /Odtp
; File c:\users\zhitao li\documents\visual studio 2012\projects\freefalcon\ui95\ccontrol.h
;	COMDAT ?SetCallback@C_Control@@UAEXP6AXJFPAVC_Base@@@Z@Z
_TEXT	SEGMENT
_this$ = -4						; size = 4
_cb$ = 8						; size = 4
?SetCallback@C_Control@@UAEXP6AXJFPAVC_Base@@@Z@Z PROC	; C_Control::SetCallback, COMDAT
; _this$ = ecx

; 63   : 		void SetCallback(void (*cb)(long,short,C_Base*)) { Callback_=cb; }

	push	ebp
	mov	ebp, esp
	push	ecx
	mov	DWORD PTR _this$[ebp], ecx
	mov	eax, DWORD PTR _this$[ebp]
	mov	ecx, DWORD PTR _cb$[ebp]
	mov	DWORD PTR [eax+96], ecx
	mov	esp, ebp
	pop	ebp
	ret	4
?SetCallback@C_Control@@UAEXP6AXJFPAVC_Base@@@Z@Z ENDP	; C_Control::SetCallback
_TEXT	ENDS
; Function compile flags: /Odtp
; File c:\users\zhitao li\documents\visual studio 2012\projects\freefalcon\ui95\ccontrol.h
;	COMDAT ?SetHotKey@C_Control@@UAEXF@Z
_TEXT	SEGMENT
_this$ = -4						; size = 4
_key$ = 8						; size = 2
?SetHotKey@C_Control@@UAEXF@Z PROC			; C_Control::SetHotKey, COMDAT
; _this$ = ecx

; 62   : 		void SetHotKey(short key)						{ HotKey_=key; }

	push	ebp
	mov	ebp, esp
	push	ecx
	mov	DWORD PTR _this$[ebp], ecx
	mov	eax, DWORD PTR _this$[ebp]
	mov	cx, WORD PTR _key$[ebp]
	mov	WORD PTR [eax+80], cx
	mov	esp, ebp
	pop	ebp
	ret	4
?SetHotKey@C_Control@@UAEXF@Z ENDP			; C_Control::SetHotKey
_TEXT	ENDS
; Function compile flags: /Odtp
; File c:\users\zhitao li\documents\visual studio 2012\projects\freefalcon\ui95\ccontrol.h
;	COMDAT ?SetHelpText@C_Control@@UAEXJ@Z
_TEXT	SEGMENT
_this$ = -4						; size = 4
_id$ = 8						; size = 4
?SetHelpText@C_Control@@UAEXJ@Z PROC			; C_Control::SetHelpText, COMDAT
; _this$ = ecx

; 61   : 		void SetHelpText(long id)						{ HelpTextID_=id; }

	push	ebp
	mov	ebp, esp
	push	ecx
	mov	DWORD PTR _this$[ebp], ecx
	mov	eax, DWORD PTR _this$[ebp]
	mov	ecx, DWORD PTR _id$[ebp]
	mov	DWORD PTR [eax+64], ecx
	mov	esp, ebp
	pop	ebp
	ret	4
?SetHelpText@C_Control@@UAEXJ@Z ENDP			; C_Control::SetHelpText
_TEXT	ENDS
; Function compile flags: /Odtp
; File c:\users\zhitao li\documents\visual studio 2012\projects\freefalcon\ui95\ccontrol.h
;	COMDAT ?SetMenu@C_Control@@UAEXJ@Z
_TEXT	SEGMENT
_this$ = -4						; size = 4
_id$ = 8						; size = 4
?SetMenu@C_Control@@UAEXJ@Z PROC			; C_Control::SetMenu, COMDAT
; _this$ = ecx

; 60   : 		void SetMenu(long id)							{ MenuID_=id; }

	push	ebp
	mov	ebp, esp
	push	ecx
	mov	DWORD PTR _this$[ebp], ecx
	mov	eax, DWORD PTR _this$[ebp]
	mov	ecx, DWORD PTR _id$[ebp]
	mov	DWORD PTR [eax+60], ecx
	mov	esp, ebp
	pop	ebp
	ret	4
?SetMenu@C_Control@@UAEXJ@Z ENDP			; C_Control::SetMenu
_TEXT	ENDS
; Function compile flags: /Odtp
; File c:\users\zhitao li\documents\visual studio 2012\projects\freefalcon\ui95\ccontrol.h
;	COMDAT ?SetDragCursorID@C_Control@@UAEXJ@Z
_TEXT	SEGMENT
_this$ = -4						; size = 4
_id$ = 8						; size = 4
?SetDragCursorID@C_Control@@UAEXJ@Z PROC		; C_Control::SetDragCursorID, COMDAT
; _this$ = ecx

; 59   : 		void SetDragCursorID(long id)					{ DragCursor_=id; }

	push	ebp
	mov	ebp, esp
	push	ecx
	mov	DWORD PTR _this$[ebp], ecx
	mov	eax, DWORD PTR _this$[ebp]
	mov	ecx, DWORD PTR _id$[ebp]
	mov	DWORD PTR [eax+56], ecx
	mov	esp, ebp
	pop	ebp
	ret	4
?SetDragCursorID@C_Control@@UAEXJ@Z ENDP		; C_Control::SetDragCursorID
_TEXT	ENDS
; Function compile flags: /Odtp
; File c:\users\zhitao li\documents\visual studio 2012\projects\freefalcon\ui95\ccontrol.h
;	COMDAT ?SetCursorID@C_Control@@UAEXJ@Z
_TEXT	SEGMENT
_this$ = -4						; size = 4
_id$ = 8						; size = 4
?SetCursorID@C_Control@@UAEXJ@Z PROC			; C_Control::SetCursorID, COMDAT
; _this$ = ecx

; 58   : 		void SetCursorID(long id)						{ Cursor_=id; }

	push	ebp
	mov	ebp, esp
	push	ecx
	mov	DWORD PTR _this$[ebp], ecx
	mov	eax, DWORD PTR _this$[ebp]
	mov	ecx, DWORD PTR _id$[ebp]
	mov	DWORD PTR [eax+52], ecx
	mov	esp, ebp
	pop	ebp
	ret	4
?SetCursorID@C_Control@@UAEXJ@Z ENDP			; C_Control::SetCursorID
_TEXT	ENDS
; Function compile flags: /Odtp
; File c:\users\zhitao li\documents\visual studio 2012\projects\freefalcon\ui95\ccontrol.h
;	COMDAT ?SetRelXY@C_Control@@UAEXJJ@Z
_TEXT	SEGMENT
_this$ = -4						; size = 4
_x$ = 8							; size = 4
_y$ = 12						; size = 4
?SetRelXY@C_Control@@UAEXJJ@Z PROC			; C_Control::SetRelXY, COMDAT
; _this$ = ecx

; 57   : 		void SetRelXY(long x,long y)					{ RelX_=x; RelY_=y; }

	push	ebp
	mov	ebp, esp
	push	ecx
	mov	DWORD PTR _this$[ebp], ecx
	mov	eax, DWORD PTR _this$[ebp]
	mov	ecx, DWORD PTR _x$[ebp]
	mov	DWORD PTR [eax+72], ecx
	mov	edx, DWORD PTR _this$[ebp]
	mov	eax, DWORD PTR _y$[ebp]
	mov	DWORD PTR [edx+76], eax
	mov	esp, ebp
	pop	ebp
	ret	8
?SetRelXY@C_Control@@UAEXJJ@Z ENDP			; C_Control::SetRelXY
_TEXT	ENDS
; Function compile flags: /Odtp
; File c:\users\zhitao li\documents\visual studio 2012\projects\freefalcon\ui95\ccontrol.h
;	COMDAT ?SetRelY@C_Control@@UAEXJ@Z
_TEXT	SEGMENT
_this$ = -4						; size = 4
_y$ = 8							; size = 4
?SetRelY@C_Control@@UAEXJ@Z PROC			; C_Control::SetRelY, COMDAT
; _this$ = ecx

; 56   : 		void SetRelY(long y)							{ RelY_=y; }

	push	ebp
	mov	ebp, esp
	push	ecx
	mov	DWORD PTR _this$[ebp], ecx
	mov	eax, DWORD PTR _this$[ebp]
	mov	ecx, DWORD PTR _y$[ebp]
	mov	DWORD PTR [eax+76], ecx
	mov	esp, ebp
	pop	ebp
	ret	4
?SetRelY@C_Control@@UAEXJ@Z ENDP			; C_Control::SetRelY
_TEXT	ENDS
; Function compile flags: /Odtp
; File c:\users\zhitao li\documents\visual studio 2012\projects\freefalcon\ui95\ccontrol.h
;	COMDAT ?SetRelX@C_Control@@UAEXJ@Z
_TEXT	SEGMENT
_this$ = -4						; size = 4
_x$ = 8							; size = 4
?SetRelX@C_Control@@UAEXJ@Z PROC			; C_Control::SetRelX, COMDAT
; _this$ = ecx

; 55   : 		void SetRelX(long x)							{ RelX_=x; }

	push	ebp
	mov	ebp, esp
	push	ecx
	mov	DWORD PTR _this$[ebp], ecx
	mov	eax, DWORD PTR _this$[ebp]
	mov	ecx, DWORD PTR _x$[ebp]
	mov	DWORD PTR [eax+72], ecx
	mov	esp, ebp
	pop	ebp
	ret	4
?SetRelX@C_Control@@UAEXJ@Z ENDP			; C_Control::SetRelX
_TEXT	ENDS
; Function compile flags: /Odtp
; File c:\users\zhitao li\documents\visual studio 2012\projects\freefalcon\ui95\ccontrol.h
;	COMDAT ??1C_Control@@UAE@XZ
_TEXT	SEGMENT
tv83 = -28						; size = 4
$T2 = -24						; size = 4
$T3 = -20						; size = 4
_this$ = -16						; size = 4
__$EHRec$ = -12						; size = 12
??1C_Control@@UAE@XZ PROC				; C_Control::~C_Control, COMDAT
; _this$ = ecx

; 40   : 		{

	push	ebp
	mov	ebp, esp
	push	-1
	push	__ehhandler$??1C_Control@@UAE@XZ
	mov	eax, DWORD PTR fs:0
	push	eax
	sub	esp, 16					; 00000010H
	mov	eax, DWORD PTR ___security_cookie
	xor	eax, ebp
	push	eax
	lea	eax, DWORD PTR __$EHRec$[ebp]
	mov	DWORD PTR fs:0, eax
	mov	DWORD PTR _this$[ebp], ecx
	mov	eax, DWORD PTR _this$[ebp]
	mov	DWORD PTR [eax], OFFSET ??_7C_Control@@6B@
	mov	DWORD PTR __$EHRec$[ebp+8], 0

; 41   : 			if(Sound_)

	mov	ecx, DWORD PTR _this$[ebp]
	cmp	DWORD PTR [ecx+92], 0
	je	SHORT $LN2@C_Control

; 42   : 			{
; 43   : 				Sound_->Cleanup();

	mov	edx, DWORD PTR _this$[ebp]
	mov	ecx, DWORD PTR [edx+92]
	call	?Cleanup@C_Hash@@QAEXXZ			; C_Hash::Cleanup

; 44   : 				delete Sound_;

	mov	eax, DWORD PTR _this$[ebp]
	mov	ecx, DWORD PTR [eax+92]
	mov	DWORD PTR $T2[ebp], ecx
	mov	edx, DWORD PTR $T2[ebp]
	mov	DWORD PTR $T3[ebp], edx
	cmp	DWORD PTR $T3[ebp], 0
	je	SHORT $LN4@C_Control
	push	1
	mov	ecx, DWORD PTR $T3[ebp]
	call	??_GC_Hash@@QAEPAXI@Z
	mov	DWORD PTR tv83[ebp], eax
	jmp	SHORT $LN2@C_Control
$LN4@C_Control:
	mov	DWORD PTR tv83[ebp], 0
$LN2@C_Control:

; 45   : 			}
; 46   : 		}

	mov	DWORD PTR __$EHRec$[ebp+8], -1
	mov	ecx, DWORD PTR _this$[ebp]
	call	??1C_Base@@UAE@XZ			; C_Base::~C_Base
	mov	ecx, DWORD PTR __$EHRec$[ebp]
	mov	DWORD PTR fs:0, ecx
	pop	ecx
	mov	esp, ebp
	pop	ebp
	ret	0
_TEXT	ENDS
;	COMDAT text$x
text$x	SEGMENT
__unwindfunclet$??1C_Control@@UAE@XZ$0:
	mov	ecx, DWORD PTR _this$[ebp]
	jmp	??1C_Base@@UAE@XZ			; C_Base::~C_Base
__ehhandler$??1C_Control@@UAE@XZ:
	mov	edx, DWORD PTR [esp+8]
	lea	eax, DWORD PTR [edx+12]
	mov	ecx, DWORD PTR [edx-20]
	xor	ecx, eax
	call	@__security_check_cookie@4
	mov	eax, OFFSET __ehfuncinfo$??1C_Control@@UAE@XZ
	jmp	___CxxFrameHandler3
text$x	ENDS
??1C_Control@@UAE@XZ ENDP				; C_Control::~C_Control
; Function compile flags: /Odtp
;	COMDAT ??_GC_Base@@UAEPAXI@Z
_TEXT	SEGMENT
_this$ = -4						; size = 4
___flags$ = 8						; size = 4
??_GC_Base@@UAEPAXI@Z PROC				; C_Base::`scalar deleting destructor', COMDAT
; _this$ = ecx
	push	ebp
	mov	ebp, esp
	push	ecx
	mov	DWORD PTR _this$[ebp], ecx
	mov	ecx, DWORD PTR _this$[ebp]
	call	??1C_Base@@UAE@XZ			; C_Base::~C_Base
	mov	eax, DWORD PTR ___flags$[ebp]
	and	eax, 1
	je	SHORT $LN1@scalar
	mov	ecx, DWORD PTR _this$[ebp]
	push	ecx
	call	??3@YAXPAX@Z				; operator delete
	add	esp, 4
$LN1@scalar:
	mov	eax, DWORD PTR _this$[ebp]
	mov	esp, ebp
	pop	ebp
	ret	4
??_GC_Base@@UAEPAXI@Z ENDP				; C_Base::`scalar deleting destructor'
_TEXT	ENDS
; Function compile flags: /Odtp
; File c:\users\zhitao li\documents\visual studio 2012\projects\freefalcon\ui95\cbase.h
;	COMDAT ?SaveText@C_Base@@UAEXPAXPAVC_Parser@@@Z
_TEXT	SEGMENT
_this$ = -4						; size = 4
_ofp$ = 8						; size = 4
_Parser$ = 12						; size = 4
?SaveText@C_Base@@UAEXPAXPAVC_Parser@@@Z PROC		; C_Base::SaveText, COMDAT
; _this$ = ecx

; 193  : 		virtual void SaveText(HANDLE ofp,C_Parser *Parser) {};

	push	ebp
	mov	ebp, esp
	push	ecx
	mov	DWORD PTR _this$[ebp], ecx
	mov	esp, ebp
	pop	ebp
	ret	8
?SaveText@C_Base@@UAEXPAXPAVC_Parser@@@Z ENDP		; C_Base::SaveText
_TEXT	ENDS
; Function compile flags: /Odtp
; File c:\users\zhitao li\documents\visual studio 2012\projects\freefalcon\ui95\cbase.h
;	COMDAT ?LocalFunction@C_Base@@UAEXFQAJPADPAVC_Handler@@@Z
_TEXT	SEGMENT
_this$ = -4						; size = 4
_ID$ = 8						; size = 2
_P$ = 12						; size = 4
_str$ = 16						; size = 4
_Hndlr$ = 20						; size = 4
?LocalFunction@C_Base@@UAEXFQAJPADPAVC_Handler@@@Z PROC	; C_Base::LocalFunction, COMDAT
; _this$ = ecx

; 192  : 		virtual void LocalFunction(short ID,long P[],_TCHAR *str,C_Handler *Hndlr) {};

	push	ebp
	mov	ebp, esp
	push	ecx
	mov	DWORD PTR _this$[ebp], ecx
	mov	esp, ebp
	pop	ebp
	ret	16					; 00000010H
?LocalFunction@C_Base@@UAEXFQAJPADPAVC_Handler@@@Z ENDP	; C_Base::LocalFunction
_TEXT	ENDS
; Function compile flags: /Odtp
; File c:\users\zhitao li\documents\visual studio 2012\projects\freefalcon\ui95\cbase.h
;	COMDAT ?LocalFind@C_Base@@UAEFPAD@Z
_TEXT	SEGMENT
_this$ = -4						; size = 4
_str$ = 8						; size = 4
?LocalFind@C_Base@@UAEFPAD@Z PROC			; C_Base::LocalFind, COMDAT
; _this$ = ecx

; 191  : 		virtual short LocalFind(char *str) { return(-1); } // Search local token list

	push	ebp
	mov	ebp, esp
	push	ecx
	mov	DWORD PTR _this$[ebp], ecx
	or	eax, -1
	mov	esp, ebp
	pop	ebp
	ret	4
?LocalFind@C_Base@@UAEFPAD@Z ENDP			; C_Base::LocalFind
_TEXT	ENDS
; Function compile flags: /Odtp
; File c:\users\zhitao li\documents\visual studio 2012\projects\freefalcon\ui95\cbase.h
;	COMDAT ?Wheel@C_Base@@UAEHHGG@Z
_TEXT	SEGMENT
_this$ = -4						; size = 4
_increments$ = 8					; size = 4
_MouseX$ = 12						; size = 2
_MouseY$ = 16						; size = 2
?Wheel@C_Base@@UAEHHGG@Z PROC				; C_Base::Wheel, COMDAT
; _this$ = ecx

; 187  : 		virtual BOOL Wheel(int increments, WORD MouseX, WORD MouseY)            { return FALSE; }

	push	ebp
	mov	ebp, esp
	push	ecx
	mov	DWORD PTR _this$[ebp], ecx
	xor	eax, eax
	mov	esp, ebp
	pop	ebp
	ret	12					; 0000000cH
?Wheel@C_Base@@UAEHHGG@Z ENDP				; C_Base::Wheel
_TEXT	ENDS
; Function compile flags: /Odtp
; File c:\users\zhitao li\documents\visual studio 2012\projects\freefalcon\ui95\cbase.h
;	COMDAT ?Drop@C_Base@@UAEHPAUGRABBER@@GGPAVC_Window@@@Z
_TEXT	SEGMENT
_this$ = -4						; size = 4
_Drag$ = 8						; size = 4
_MouseX$ = 12						; size = 2
_MouseY$ = 16						; size = 2
_over$ = 20						; size = 4
?Drop@C_Base@@UAEHPAUGRABBER@@GGPAVC_Window@@@Z PROC	; C_Base::Drop, COMDAT
; _this$ = ecx

; 182  : 		virtual BOOL Drop(GRABBER *Drag,WORD MouseX,WORD MouseY,C_Window *over) { return(FALSE); }

	push	ebp
	mov	ebp, esp
	push	ecx
	mov	DWORD PTR _this$[ebp], ecx
	xor	eax, eax
	mov	esp, ebp
	pop	ebp
	ret	16					; 00000010H
?Drop@C_Base@@UAEHPAUGRABBER@@GGPAVC_Window@@@Z ENDP	; C_Base::Drop
_TEXT	ENDS
; Function compile flags: /Odtp
; File c:\users\zhitao li\documents\visual studio 2012\projects\freefalcon\ui95\cbase.h
;	COMDAT ?Drag@C_Base@@UAEHPAUGRABBER@@GGPAVC_Window@@@Z
_TEXT	SEGMENT
_this$ = -4						; size = 4
_Drag$ = 8						; size = 4
_MouseX$ = 12						; size = 2
_MouseY$ = 16						; size = 2
_over$ = 20						; size = 4
?Drag@C_Base@@UAEHPAUGRABBER@@GGPAVC_Window@@@Z PROC	; C_Base::Drag, COMDAT
; _this$ = ecx

; 181  : 		virtual BOOL Drag(GRABBER *Drag,WORD MouseX,WORD MouseY,C_Window *over) { return(FALSE); }

	push	ebp
	mov	ebp, esp
	push	ecx
	mov	DWORD PTR _this$[ebp], ecx
	xor	eax, eax
	mov	esp, ebp
	pop	ebp
	ret	16					; 00000010H
?Drag@C_Base@@UAEHPAUGRABBER@@GGPAVC_Window@@@Z ENDP	; C_Base::Drag
_TEXT	ENDS
; Function compile flags: /Odtp
; File c:\users\zhitao li\documents\visual studio 2012\projects\freefalcon\ui95\cbase.h
;	COMDAT ?GetItemXY@C_Base@@UAEXJPAJ0@Z
_TEXT	SEGMENT
_this$ = -4						; size = 4
_ID$ = 8						; size = 4
_x$ = 12						; size = 4
_y$ = 16						; size = 4
?GetItemXY@C_Base@@UAEXJPAJ0@Z PROC			; C_Base::GetItemXY, COMDAT
; _this$ = ecx

; 180  : 		virtual void GetItemXY(long ID,long *x,long *y)	{}

	push	ebp
	mov	ebp, esp
	push	ecx
	mov	DWORD PTR _this$[ebp], ecx
	mov	esp, ebp
	pop	ebp
	ret	12					; 0000000cH
?GetItemXY@C_Base@@UAEXJPAJ0@Z ENDP			; C_Base::GetItemXY
_TEXT	ENDS
; Function compile flags: /Odtp
; File c:\users\zhitao li\documents\visual studio 2012\projects\freefalcon\ui95\cbase.h
;	COMDAT ?Dragable@C_Base@@UAEHJ@Z
_TEXT	SEGMENT
_this$ = -4						; size = 4
_ID$ = 8						; size = 4
?Dragable@C_Base@@UAEHJ@Z PROC				; C_Base::Dragable, COMDAT
; _this$ = ecx

; 179  : 		virtual BOOL Dragable(long ID)					{ return(FALSE); }

	push	ebp
	mov	ebp, esp
	push	ecx
	mov	DWORD PTR _this$[ebp], ecx
	xor	eax, eax
	mov	esp, ebp
	pop	ebp
	ret	4
?Dragable@C_Base@@UAEHJ@Z ENDP				; C_Base::Dragable
_TEXT	ENDS
; Function compile flags: /Odtp
; File c:\users\zhitao li\documents\visual studio 2012\projects\freefalcon\ui95\cbase.h
;	COMDAT ?GetMe@C_Base@@UAEPAV1@XZ
_TEXT	SEGMENT
_this$ = -4						; size = 4
?GetMe@C_Base@@UAEPAV1@XZ PROC				; C_Base::GetMe, COMDAT
; _this$ = ecx

; 178  : 		virtual C_Base *GetMe()							{ return(this); }

	push	ebp
	mov	ebp, esp
	push	ecx
	mov	DWORD PTR _this$[ebp], ecx
	mov	eax, DWORD PTR _this$[ebp]
	mov	esp, ebp
	pop	ebp
	ret	0
?GetMe@C_Base@@UAEPAV1@XZ ENDP				; C_Base::GetMe
_TEXT	ENDS
; Function compile flags: /Odtp
; File c:\users\zhitao li\documents\visual studio 2012\projects\freefalcon\ui95\cbase.h
;	COMDAT ?MouseOver@C_Base@@UAEHJJPAV1@@Z
_TEXT	SEGMENT
_this$ = -4						; size = 4
_relX$ = 8						; size = 4
_relY$ = 12						; size = 4
_me$ = 16						; size = 4
?MouseOver@C_Base@@UAEHJJPAV1@@Z PROC			; C_Base::MouseOver, COMDAT
; _this$ = ecx

; 177  : 		virtual BOOL MouseOver(long relX,long relY,C_Base *me) { return(FALSE); }

	push	ebp
	mov	ebp, esp
	push	ecx
	mov	DWORD PTR _this$[ebp], ecx
	xor	eax, eax
	mov	esp, ebp
	pop	ebp
	ret	12					; 0000000cH
?MouseOver@C_Base@@UAEHJJPAV1@@Z ENDP			; C_Base::MouseOver
_TEXT	ENDS
; Function compile flags: /Odtp
; File c:\users\zhitao li\documents\visual studio 2012\projects\freefalcon\ui95\cbase.h
;	COMDAT ?CloseWindow@C_Base@@UAEHXZ
_TEXT	SEGMENT
_this$ = -4						; size = 4
?CloseWindow@C_Base@@UAEHXZ PROC			; C_Base::CloseWindow, COMDAT
; _this$ = ecx

; 176  : 		virtual BOOL CloseWindow()						{ return(FALSE); }

	push	ebp
	mov	ebp, esp
	push	ecx
	mov	DWORD PTR _this$[ebp], ecx
	xor	eax, eax
	mov	esp, ebp
	pop	ebp
	ret	0
?CloseWindow@C_Base@@UAEHXZ ENDP			; C_Base::CloseWindow
_TEXT	ENDS
; Function compile flags: /Odtp
; File c:\users\zhitao li\documents\visual studio 2012\projects\freefalcon\ui95\cbase.h
;	COMDAT ?Process@C_Base@@UAEHJF@Z
_TEXT	SEGMENT
_this$ = -4						; size = 4
_ID$ = 8						; size = 4
_HitType$ = 12						; size = 2
?Process@C_Base@@UAEHJF@Z PROC				; C_Base::Process, COMDAT
; _this$ = ecx

; 175  : 		virtual BOOL Process(long ID,short HitType)		{ return(FALSE); }

	push	ebp
	mov	ebp, esp
	push	ecx
	mov	DWORD PTR _this$[ebp], ecx
	xor	eax, eax
	mov	esp, ebp
	pop	ebp
	ret	8
?Process@C_Base@@UAEHJF@Z ENDP				; C_Base::Process
_TEXT	ENDS
; Function compile flags: /Odtp
; File c:\users\zhitao li\documents\visual studio 2012\projects\freefalcon\ui95\cbase.h
;	COMDAT ?CheckKeyboard@C_Base@@UAEHEEEJ@Z
_TEXT	SEGMENT
_this$ = -4						; size = 4
_DKScanCode$ = 8					; size = 1
_Ascii$ = 12						; size = 1
_ShiftStates$ = 16					; size = 1
_RepeatCount$ = 20					; size = 4
?CheckKeyboard@C_Base@@UAEHEEEJ@Z PROC			; C_Base::CheckKeyboard, COMDAT
; _this$ = ecx

; 174  : 		virtual BOOL CheckKeyboard(uchar DKScanCode,uchar Ascii,uchar ShiftStates,long RepeatCount) { return(FALSE); }

	push	ebp
	mov	ebp, esp
	push	ecx
	mov	DWORD PTR _this$[ebp], ecx
	xor	eax, eax
	mov	esp, ebp
	pop	ebp
	ret	16					; 00000010H
?CheckKeyboard@C_Base@@UAEHEEEJ@Z ENDP			; C_Base::CheckKeyboard
_TEXT	ENDS
; Function compile flags: /Odtp
; File c:\users\zhitao li\documents\visual studio 2012\projects\freefalcon\ui95\cbase.h
;	COMDAT ?CheckHotSpots@C_Base@@UAEJJJ@Z
_TEXT	SEGMENT
_this$ = -4						; size = 4
_relx$ = 8						; size = 4
_rely$ = 12						; size = 4
?CheckHotSpots@C_Base@@UAEJJJ@Z PROC			; C_Base::CheckHotSpots, COMDAT
; _this$ = ecx

; 173  : 		virtual long CheckHotSpots(long relx,long rely)	{ return(0); }

	push	ebp
	mov	ebp, esp
	push	ecx
	mov	DWORD PTR _this$[ebp], ecx
	xor	eax, eax
	mov	esp, ebp
	pop	ebp
	ret	8
?CheckHotSpots@C_Base@@UAEJJJ@Z ENDP			; C_Base::CheckHotSpots
_TEXT	ENDS
; Function compile flags: /Odtp
; File c:\users\zhitao li\documents\visual studio 2012\projects\freefalcon\ui95\cbase.h
;	COMDAT ?Deactivate@C_Base@@UAEXXZ
_TEXT	SEGMENT
_this$ = -4						; size = 4
?Deactivate@C_Base@@UAEXXZ PROC				; C_Base::Deactivate, COMDAT
; _this$ = ecx

; 172  : 		virtual void Deactivate()						{}

	push	ebp
	mov	ebp, esp
	push	ecx
	mov	DWORD PTR _this$[ebp], ecx
	mov	esp, ebp
	pop	ebp
	ret	0
?Deactivate@C_Base@@UAEXXZ ENDP				; C_Base::Deactivate
_TEXT	ENDS
; Function compile flags: /Odtp
; File c:\users\zhitao li\documents\visual studio 2012\projects\freefalcon\ui95\cbase.h
;	COMDAT ?Activate@C_Base@@UAEXXZ
_TEXT	SEGMENT
_this$ = -4						; size = 4
?Activate@C_Base@@UAEXXZ PROC				; C_Base::Activate, COMDAT
; _this$ = ecx

; 171  : 		virtual void Activate()							{}

	push	ebp
	mov	ebp, esp
	push	ecx
	mov	DWORD PTR _this$[ebp], ecx
	mov	esp, ebp
	pop	ebp
	ret	0
?Activate@C_Base@@UAEXXZ ENDP				; C_Base::Activate
_TEXT	ENDS
; Function compile flags: /Odtp
; File c:\users\zhitao li\documents\visual studio 2012\projects\freefalcon\ui95\cbase.h
;	COMDAT ?TimerUpdate@C_Base@@UAEHXZ
_TEXT	SEGMENT
_this$ = -4						; size = 4
?TimerUpdate@C_Base@@UAEHXZ PROC			; C_Base::TimerUpdate, COMDAT
; _this$ = ecx

; 170  : 		virtual BOOL TimerUpdate()						{ return(FALSE); }

	push	ebp
	mov	ebp, esp
	push	ecx
	mov	DWORD PTR _this$[ebp], ecx
	xor	eax, eax
	mov	esp, ebp
	pop	ebp
	ret	0
?TimerUpdate@C_Base@@UAEHXZ ENDP			; C_Base::TimerUpdate
_TEXT	ENDS
; Function compile flags: /Odtp
; File c:\users\zhitao li\documents\visual studio 2012\projects\freefalcon\ui95\cbase.h
;	COMDAT ?Cleanup@C_Base@@UAEXXZ
_TEXT	SEGMENT
_this$ = -4						; size = 4
?Cleanup@C_Base@@UAEXXZ PROC				; C_Base::Cleanup, COMDAT
; _this$ = ecx

; 169  : 		virtual void Cleanup()							{}

	push	ebp
	mov	ebp, esp
	push	ecx
	mov	DWORD PTR _this$[ebp], ecx
	mov	esp, ebp
	pop	ebp
	ret	0
?Cleanup@C_Base@@UAEXXZ ENDP				; C_Base::Cleanup
_TEXT	ENDS
; Function compile flags: /Odtp
; File c:\users\zhitao li\documents\visual studio 2012\projects\freefalcon\ui95\cbase.h
;	COMDAT ?SetSubParents@C_Base@@UAEXPAVC_Window@@@Z
_TEXT	SEGMENT
_this$ = -4						; size = 4
_Parent$ = 8						; size = 4
?SetSubParents@C_Base@@UAEXPAVC_Window@@@Z PROC		; C_Base::SetSubParents, COMDAT
; _this$ = ecx

; 168  : 		virtual void SetSubParents(C_Window *Parent)	{}

	push	ebp
	mov	ebp, esp
	push	ecx
	mov	DWORD PTR _this$[ebp], ecx
	mov	esp, ebp
	pop	ebp
	ret	4
?SetSubParents@C_Base@@UAEXPAVC_Window@@@Z ENDP		; C_Base::SetSubParents
_TEXT	ENDS
; Function compile flags: /Odtp
; File c:\users\zhitao li\documents\visual studio 2012\projects\freefalcon\ui95\cbase.h
;	COMDAT ?HighLite@C_Base@@UAEXPAVSCREEN@@PAUUI95_RECT@@@Z
_TEXT	SEGMENT
_this$ = -4						; size = 4
_surface$ = 8						; size = 4
_cliprect$ = 12						; size = 4
?HighLite@C_Base@@UAEXPAVSCREEN@@PAUUI95_RECT@@@Z PROC	; C_Base::HighLite, COMDAT
; _this$ = ecx

; 167  : 		virtual void HighLite(SCREEN *surface,UI95_RECT *cliprect)		{}

	push	ebp
	mov	ebp, esp
	push	ecx
	mov	DWORD PTR _this$[ebp], ecx
	mov	esp, ebp
	pop	ebp
	ret	8
?HighLite@C_Base@@UAEXPAVSCREEN@@PAUUI95_RECT@@@Z ENDP	; C_Base::HighLite
_TEXT	ENDS
; Function compile flags: /Odtp
; File c:\users\zhitao li\documents\visual studio 2012\projects\freefalcon\ui95\cbase.h
;	COMDAT ?Draw@C_Base@@UAEXPAVSCREEN@@PAUUI95_RECT@@@Z
_TEXT	SEGMENT
_this$ = -4						; size = 4
_surface$ = 8						; size = 4
_cliprect$ = 12						; size = 4
?Draw@C_Base@@UAEXPAVSCREEN@@PAUUI95_RECT@@@Z PROC	; C_Base::Draw, COMDAT
; _this$ = ecx

; 166  : 		virtual void Draw(SCREEN *surface,UI95_RECT *cliprect)			{}

	push	ebp
	mov	ebp, esp
	push	ecx
	mov	DWORD PTR _this$[ebp], ecx
	mov	esp, ebp
	pop	ebp
	ret	8
?Draw@C_Base@@UAEXPAVSCREEN@@PAUUI95_RECT@@@Z ENDP	; C_Base::Draw
_TEXT	ENDS
; Function compile flags: /Odtp
; File c:\users\zhitao li\documents\visual studio 2012\projects\freefalcon\ui95\cbase.h
;	COMDAT ?Refresh@C_Base@@UAEXXZ
_TEXT	SEGMENT
_this$ = -4						; size = 4
?Refresh@C_Base@@UAEXXZ PROC				; C_Base::Refresh, COMDAT
; _this$ = ecx

; 165  : 		virtual void Refresh()							{}

	push	ebp
	mov	ebp, esp
	push	ecx
	mov	DWORD PTR _this$[ebp], ecx
	mov	esp, ebp
	pop	ebp
	ret	0
?Refresh@C_Base@@UAEXXZ ENDP				; C_Base::Refresh
_TEXT	ENDS
; Function compile flags: /Odtp
; File c:\users\zhitao li\documents\visual studio 2012\projects\freefalcon\ui95\cbase.h
;	COMDAT ?IsControl@C_Base@@UAEHXZ
_TEXT	SEGMENT
_this$ = -4						; size = 4
?IsControl@C_Base@@UAEHXZ PROC				; C_Base::IsControl, COMDAT
; _this$ = ecx

; 164  : 		virtual BOOL IsControl()						{ return(FALSE); }

	push	ebp
	mov	ebp, esp
	push	ecx
	mov	DWORD PTR _this$[ebp], ecx
	xor	eax, eax
	mov	esp, ebp
	pop	ebp
	ret	0
?IsControl@C_Base@@UAEHXZ ENDP				; C_Base::IsControl
_TEXT	ENDS
; Function compile flags: /Odtp
; File c:\users\zhitao li\documents\visual studio 2012\projects\freefalcon\ui95\cbase.h
;	COMDAT ?IsBase@C_Base@@UAEHXZ
_TEXT	SEGMENT
_this$ = -4						; size = 4
?IsBase@C_Base@@UAEHXZ PROC				; C_Base::IsBase, COMDAT
; _this$ = ecx

; 163  : 		virtual BOOL IsBase()							{ return(TRUE); }

	push	ebp
	mov	ebp, esp
	push	ecx
	mov	DWORD PTR _this$[ebp], ecx
	mov	eax, 1
	mov	esp, ebp
	pop	ebp
	ret	0
?IsBase@C_Base@@UAEHXZ ENDP				; C_Base::IsBase
_TEXT	ENDS
; Function compile flags: /Odtp
; File c:\users\zhitao li\documents\visual studio 2012\projects\freefalcon\ui95\cbase.h
;	COMDAT ?GetCallback@C_Base@@UAEP6AXJFPAV1@@ZXZ
_TEXT	SEGMENT
_this$ = -4						; size = 4
?GetCallback@C_Base@@UAEP6AXJFPAV1@@ZXZ PROC		; C_Base::GetCallback, COMDAT
; _this$ = ecx

; 160  : 		virtual void (*GetCallback())(long,short,C_Base*) { return(NULL); }

	push	ebp
	mov	ebp, esp
	push	ecx
	mov	DWORD PTR _this$[ebp], ecx
	xor	eax, eax
	mov	esp, ebp
	pop	ebp
	ret	0
?GetCallback@C_Base@@UAEP6AXJFPAV1@@ZXZ ENDP		; C_Base::GetCallback
_TEXT	ENDS
; Function compile flags: /Odtp
; File c:\users\zhitao li\documents\visual studio 2012\projects\freefalcon\ui95\cbase.h
;	COMDAT ?GetDragCursorID@C_Base@@UAEJXZ
_TEXT	SEGMENT
_this$ = -4						; size = 4
?GetDragCursorID@C_Base@@UAEJXZ PROC			; C_Base::GetDragCursorID, COMDAT
; _this$ = ecx

; 159  : 		virtual long  GetDragCursorID()	{ return(0); }

	push	ebp
	mov	ebp, esp
	push	ecx
	mov	DWORD PTR _this$[ebp], ecx
	xor	eax, eax
	mov	esp, ebp
	pop	ebp
	ret	0
?GetDragCursorID@C_Base@@UAEJXZ ENDP			; C_Base::GetDragCursorID
_TEXT	ENDS
; Function compile flags: /Odtp
; File c:\users\zhitao li\documents\visual studio 2012\projects\freefalcon\ui95\cbase.h
;	COMDAT ?GetCursorID@C_Base@@UAEJXZ
_TEXT	SEGMENT
_this$ = -4						; size = 4
?GetCursorID@C_Base@@UAEJXZ PROC			; C_Base::GetCursorID, COMDAT
; _this$ = ecx

; 158  : 		virtual long  GetCursorID()	{ return(0); }

	push	ebp
	mov	ebp, esp
	push	ecx
	mov	DWORD PTR _this$[ebp], ecx
	xor	eax, eax
	mov	esp, ebp
	pop	ebp
	ret	0
?GetCursorID@C_Base@@UAEJXZ ENDP			; C_Base::GetCursorID
_TEXT	ENDS
; Function compile flags: /Odtp
; File c:\users\zhitao li\documents\visual studio 2012\projects\freefalcon\ui95\cbase.h
;	COMDAT ?GetMouseOver@C_Base@@UAEFXZ
_TEXT	SEGMENT
_this$ = -4						; size = 4
?GetMouseOver@C_Base@@UAEFXZ PROC			; C_Base::GetMouseOver, COMDAT
; _this$ = ecx

; 157  : 		virtual short GetMouseOver() { return(0); }

	push	ebp
	mov	ebp, esp
	push	ecx
	mov	DWORD PTR _this$[ebp], ecx
	xor	eax, eax
	mov	esp, ebp
	pop	ebp
	ret	0
?GetMouseOver@C_Base@@UAEFXZ ENDP			; C_Base::GetMouseOver
_TEXT	ENDS
; Function compile flags: /Odtp
; File c:\users\zhitao li\documents\visual studio 2012\projects\freefalcon\ui95\cbase.h
;	COMDAT ?GetSound@C_Base@@UAEPAVSOUND_RES@@F@Z
_TEXT	SEGMENT
_this$ = -4						; size = 4
_Type$ = 8						; size = 2
?GetSound@C_Base@@UAEPAVSOUND_RES@@F@Z PROC		; C_Base::GetSound, COMDAT
; _this$ = ecx

; 156  : 		virtual SOUND_RES *GetSound(short Type) { return(NULL); }

	push	ebp
	mov	ebp, esp
	push	ecx
	mov	DWORD PTR _this$[ebp], ecx
	xor	eax, eax
	mov	esp, ebp
	pop	ebp
	ret	4
?GetSound@C_Base@@UAEPAVSOUND_RES@@F@Z ENDP		; C_Base::GetSound
_TEXT	ENDS
; Function compile flags: /Odtp
; File c:\users\zhitao li\documents\visual studio 2012\projects\freefalcon\ui95\cbase.h
;	COMDAT ?GetHelpText@C_Base@@UAEJXZ
_TEXT	SEGMENT
_this$ = -4						; size = 4
?GetHelpText@C_Base@@UAEJXZ PROC			; C_Base::GetHelpText, COMDAT
; _this$ = ecx

; 155  : 		virtual long  GetHelpText()	{ return(0); }

	push	ebp
	mov	ebp, esp
	push	ecx
	mov	DWORD PTR _this$[ebp], ecx
	xor	eax, eax
	mov	esp, ebp
	pop	ebp
	ret	0
?GetHelpText@C_Base@@UAEJXZ ENDP			; C_Base::GetHelpText
_TEXT	ENDS
; Function compile flags: /Odtp
; File c:\users\zhitao li\documents\visual studio 2012\projects\freefalcon\ui95\cbase.h
;	COMDAT ?GetFont@C_Base@@UAEJXZ
_TEXT	SEGMENT
_this$ = -4						; size = 4
?GetFont@C_Base@@UAEJXZ PROC				; C_Base::GetFont, COMDAT
; _this$ = ecx

; 154  : 		virtual long  GetFont()		{ return(0); }

	push	ebp
	mov	ebp, esp
	push	ecx
	mov	DWORD PTR _this$[ebp], ecx
	xor	eax, eax
	mov	esp, ebp
	pop	ebp
	ret	0
?GetFont@C_Base@@UAEJXZ ENDP				; C_Base::GetFont
_TEXT	ENDS
; Function compile flags: /Odtp
; File c:\users\zhitao li\documents\visual studio 2012\projects\freefalcon\ui95\cbase.h
;	COMDAT ?GetMenu@C_Base@@UAEJXZ
_TEXT	SEGMENT
_this$ = -4						; size = 4
?GetMenu@C_Base@@UAEJXZ PROC				; C_Base::GetMenu, COMDAT
; _this$ = ecx

; 153  : 		virtual long  GetMenu()		{ return(0); }

	push	ebp
	mov	ebp, esp
	push	ecx
	mov	DWORD PTR _this$[ebp], ecx
	xor	eax, eax
	mov	esp, ebp
	pop	ebp
	ret	0
?GetMenu@C_Base@@UAEJXZ ENDP				; C_Base::GetMenu
_TEXT	ENDS
; Function compile flags: /Odtp
; File c:\users\zhitao li\documents\visual studio 2012\projects\freefalcon\ui95\cbase.h
;	COMDAT ?GetHotKey@C_Base@@UAEFXZ
_TEXT	SEGMENT
_this$ = -4						; size = 4
?GetHotKey@C_Base@@UAEFXZ PROC				; C_Base::GetHotKey, COMDAT
; _this$ = ecx

; 152  : 		virtual short GetHotKey()	{ return(0); }

	push	ebp
	mov	ebp, esp
	push	ecx
	mov	DWORD PTR _this$[ebp], ecx
	xor	eax, eax
	mov	esp, ebp
	pop	ebp
	ret	0
?GetHotKey@C_Base@@UAEFXZ ENDP				; C_Base::GetHotKey
_TEXT	ENDS
; Function compile flags: /Odtp
; File c:\users\zhitao li\documents\visual studio 2012\projects\freefalcon\ui95\cbase.h
;	COMDAT ?GetState@C_Base@@UAEFXZ
_TEXT	SEGMENT
_this$ = -4						; size = 4
?GetState@C_Base@@UAEFXZ PROC				; C_Base::GetState, COMDAT
; _this$ = ecx

; 151  : 		virtual short GetState()	{ return(0); }

	push	ebp
	mov	ebp, esp
	push	ecx
	mov	DWORD PTR _this$[ebp], ecx
	xor	eax, eax
	mov	esp, ebp
	pop	ebp
	ret	0
?GetState@C_Base@@UAEFXZ ENDP				; C_Base::GetState
_TEXT	ENDS
; Function compile flags: /Odtp
; File c:\users\zhitao li\documents\visual studio 2012\projects\freefalcon\ui95\cbase.h
;	COMDAT ?Ready@C_Base@@QAEFXZ
_TEXT	SEGMENT
_this$ = -4						; size = 4
?Ready@C_Base@@QAEFXZ PROC				; C_Base::Ready, COMDAT
; _this$ = ecx

; 150  : 		short  Ready()				{ return(Ready_); }

	push	ebp
	mov	ebp, esp
	push	ecx
	mov	DWORD PTR _this$[ebp], ecx
	mov	eax, DWORD PTR _this$[ebp]
	mov	ax, WORD PTR [eax+42]
	mov	esp, ebp
	pop	ebp
	ret	0
?Ready@C_Base@@QAEFXZ ENDP				; C_Base::Ready
_TEXT	ENDS
; Function compile flags: /Odtp
; File c:\users\zhitao li\documents\visual studio 2012\projects\freefalcon\ui95\cbase.h
;	COMDAT ?GetRelY@C_Base@@UAEJXZ
_TEXT	SEGMENT
_this$ = -4						; size = 4
?GetRelY@C_Base@@UAEJXZ PROC				; C_Base::GetRelY, COMDAT
; _this$ = ecx

; 148  : 		virtual long GetRelY()		{ return(0); }

	push	ebp
	mov	ebp, esp
	push	ecx
	mov	DWORD PTR _this$[ebp], ecx
	xor	eax, eax
	mov	esp, ebp
	pop	ebp
	ret	0
?GetRelY@C_Base@@UAEJXZ ENDP				; C_Base::GetRelY
_TEXT	ENDS
; Function compile flags: /Odtp
; File c:\users\zhitao li\documents\visual studio 2012\projects\freefalcon\ui95\cbase.h
;	COMDAT ?GetRelX@C_Base@@UAEJXZ
_TEXT	SEGMENT
_this$ = -4						; size = 4
?GetRelX@C_Base@@UAEJXZ PROC				; C_Base::GetRelX, COMDAT
; _this$ = ecx

; 147  : 		virtual long GetRelX()		{ return(0); }

	push	ebp
	mov	ebp, esp
	push	ecx
	mov	DWORD PTR _this$[ebp], ecx
	xor	eax, eax
	mov	esp, ebp
	pop	ebp
	ret	0
?GetRelX@C_Base@@UAEJXZ ENDP				; C_Base::GetRelX
_TEXT	ENDS
; Function compile flags: /Odtp
; File c:\users\zhitao li\documents\visual studio 2012\projects\freefalcon\ui95\cbase.h
;	COMDAT ?GetH@C_Base@@QAEJXZ
_TEXT	SEGMENT
_this$ = -4						; size = 4
?GetH@C_Base@@QAEJXZ PROC				; C_Base::GetH, COMDAT
; _this$ = ecx

; 144  : 		long GetH()					{ return(h_); }

	push	ebp
	mov	ebp, esp
	push	ecx
	mov	DWORD PTR _this$[ebp], ecx
	mov	eax, DWORD PTR _this$[ebp]
	mov	eax, DWORD PTR [eax+36]
	mov	esp, ebp
	pop	ebp
	ret	0
?GetH@C_Base@@QAEJXZ ENDP				; C_Base::GetH
_TEXT	ENDS
; Function compile flags: /Odtp
; File c:\users\zhitao li\documents\visual studio 2012\projects\freefalcon\ui95\cbase.h
;	COMDAT ?GetW@C_Base@@QAEJXZ
_TEXT	SEGMENT
_this$ = -4						; size = 4
?GetW@C_Base@@QAEJXZ PROC				; C_Base::GetW, COMDAT
; _this$ = ecx

; 143  : 		long GetW()					{ return(w_); }

	push	ebp
	mov	ebp, esp
	push	ecx
	mov	DWORD PTR _this$[ebp], ecx
	mov	eax, DWORD PTR _this$[ebp]
	mov	eax, DWORD PTR [eax+32]
	mov	esp, ebp
	pop	ebp
	ret	0
?GetW@C_Base@@QAEJXZ ENDP				; C_Base::GetW
_TEXT	ENDS
; Function compile flags: /Odtp
; File c:\users\zhitao li\documents\visual studio 2012\projects\freefalcon\ui95\cbase.h
;	COMDAT ?GetY@C_Base@@QAEJXZ
_TEXT	SEGMENT
_this$ = -4						; size = 4
?GetY@C_Base@@QAEJXZ PROC				; C_Base::GetY, COMDAT
; _this$ = ecx

; 142  : 		long GetY()					{ return(y_); }

	push	ebp
	mov	ebp, esp
	push	ecx
	mov	DWORD PTR _this$[ebp], ecx
	mov	eax, DWORD PTR _this$[ebp]
	mov	eax, DWORD PTR [eax+28]
	mov	esp, ebp
	pop	ebp
	ret	0
?GetY@C_Base@@QAEJXZ ENDP				; C_Base::GetY
_TEXT	ENDS
; Function compile flags: /Odtp
; File c:\users\zhitao li\documents\visual studio 2012\projects\freefalcon\ui95\cbase.h
;	COMDAT ?GetX@C_Base@@QAEJXZ
_TEXT	SEGMENT
_this$ = -4						; size = 4
?GetX@C_Base@@QAEJXZ PROC				; C_Base::GetX, COMDAT
; _this$ = ecx

; 141  : 		long GetX()					{ return(x_); }

	push	ebp
	mov	ebp, esp
	push	ecx
	mov	DWORD PTR _this$[ebp], ecx
	mov	eax, DWORD PTR _this$[ebp]
	mov	eax, DWORD PTR [eax+24]
	mov	esp, ebp
	pop	ebp
	ret	0
?GetX@C_Base@@QAEJXZ ENDP				; C_Base::GetX
_TEXT	ENDS
; Function compile flags: /Odtp
; File c:\users\zhitao li\documents\visual studio 2012\projects\freefalcon\ui95\cbase.h
;	COMDAT ?GetClient@C_Base@@QAEFXZ
_TEXT	SEGMENT
_this$ = -4						; size = 4
?GetClient@C_Base@@QAEFXZ PROC				; C_Base::GetClient, COMDAT
; _this$ = ecx

; 140  : 		short GetClient()			{ return(Client_); }

	push	ebp
	mov	ebp, esp
	push	ecx
	mov	DWORD PTR _this$[ebp], ecx
	mov	eax, DWORD PTR _this$[ebp]
	mov	ax, WORD PTR [eax+40]
	mov	esp, ebp
	pop	ebp
	ret	0
?GetClient@C_Base@@QAEFXZ ENDP				; C_Base::GetClient
_TEXT	ENDS
; Function compile flags: /Odtp
; File c:\users\zhitao li\documents\visual studio 2012\projects\freefalcon\ui95\cbase.h
;	COMDAT ?GetFlags@C_Base@@QAEJXZ
_TEXT	SEGMENT
_this$ = -4						; size = 4
?GetFlags@C_Base@@QAEJXZ PROC				; C_Base::GetFlags, COMDAT
; _this$ = ecx

; 139  : 		long  GetFlags()			{ return(Flags_); }

	push	ebp
	mov	ebp, esp
	push	ecx
	mov	DWORD PTR _this$[ebp], ecx
	mov	eax, DWORD PTR _this$[ebp]
	mov	eax, DWORD PTR [eax+16]
	mov	esp, ebp
	pop	ebp
	ret	0
?GetFlags@C_Base@@QAEJXZ ENDP				; C_Base::GetFlags
_TEXT	ENDS
; Function compile flags: /Odtp
; File c:\users\zhitao li\documents\visual studio 2012\projects\freefalcon\ui95\cbase.h
;	COMDAT ?GetType@C_Base@@QAEFXZ
_TEXT	SEGMENT
_this$ = -4						; size = 4
?GetType@C_Base@@QAEFXZ PROC				; C_Base::GetType, COMDAT
; _this$ = ecx

; 135  : 		short GetType()				{ return(Type_); }

	push	ebp
	mov	ebp, esp
	push	ecx
	mov	DWORD PTR _this$[ebp], ecx
	mov	eax, DWORD PTR _this$[ebp]
	mov	ax, WORD PTR [eax+22]
	mov	esp, ebp
	pop	ebp
	ret	0
?GetType@C_Base@@QAEFXZ ENDP				; C_Base::GetType
_TEXT	ENDS
; Function compile flags: /Odtp
; File c:\users\zhitao li\documents\visual studio 2012\projects\freefalcon\ui95\cbase.h
;	COMDAT ?GetID@C_Base@@QAEJXZ
_TEXT	SEGMENT
_this$ = -4						; size = 4
?GetID@C_Base@@QAEJXZ PROC				; C_Base::GetID, COMDAT
; _this$ = ecx

; 134  : 		long  GetID()				{ return(ID_); }

	push	ebp
	mov	ebp, esp
	push	ecx
	mov	DWORD PTR _this$[ebp], ecx
	mov	eax, DWORD PTR _this$[ebp]
	mov	eax, DWORD PTR [eax+4]
	mov	esp, ebp
	pop	ebp
	ret	0
?GetID@C_Base@@QAEJXZ ENDP				; C_Base::GetID
_TEXT	ENDS
; Function compile flags: /Odtp
; File c:\users\zhitao li\documents\visual studio 2012\projects\freefalcon\ui95\cbase.h
;	COMDAT ?SetCallback@C_Base@@UAEXP6AXJFPAV1@@Z@Z
_TEXT	SEGMENT
_this$ = -4						; size = 4
_cb$ = 8						; size = 4
?SetCallback@C_Base@@UAEXP6AXJFPAV1@@Z@Z PROC		; C_Base::SetCallback, COMDAT
; _this$ = ecx

; 131  : 		virtual void SetCallback(void (*cb)(long,short,C_Base*)){}

	push	ebp
	mov	ebp, esp
	push	ecx
	mov	DWORD PTR _this$[ebp], ecx
	mov	esp, ebp
	pop	ebp
	ret	4
?SetCallback@C_Base@@UAEXP6AXJFPAV1@@Z@Z ENDP		; C_Base::SetCallback
_TEXT	ENDS
; Function compile flags: /Odtp
; File c:\users\zhitao li\documents\visual studio 2012\projects\freefalcon\ui95\cbase.h
;	COMDAT ?SetMouseOverPerc@C_Base@@UAEXF@Z
_TEXT	SEGMENT
_this$ = -4						; size = 4
_perc$ = 8						; size = 2
?SetMouseOverPerc@C_Base@@UAEXF@Z PROC			; C_Base::SetMouseOverPerc, COMDAT
; _this$ = ecx

; 130  : 		virtual void SetMouseOverPerc(short perc)				{}

	push	ebp
	mov	ebp, esp
	push	ecx
	mov	DWORD PTR _this$[ebp], ecx
	mov	esp, ebp
	pop	ebp
	ret	4
?SetMouseOverPerc@C_Base@@UAEXF@Z ENDP			; C_Base::SetMouseOverPerc
_TEXT	ENDS
; Function compile flags: /Odtp
; File c:\users\zhitao li\documents\visual studio 2012\projects\freefalcon\ui95\cbase.h
;	COMDAT ?SetMouseOverColor@C_Base@@UAEXK@Z
_TEXT	SEGMENT
_this$ = -4						; size = 4
_color$ = 8						; size = 4
?SetMouseOverColor@C_Base@@UAEXK@Z PROC			; C_Base::SetMouseOverColor, COMDAT
; _this$ = ecx

; 129  : 		virtual void SetMouseOverColor(COLORREF color)			{}

	push	ebp
	mov	ebp, esp
	push	ecx
	mov	DWORD PTR _this$[ebp], ecx
	mov	esp, ebp
	pop	ebp
	ret	4
?SetMouseOverColor@C_Base@@UAEXK@Z ENDP			; C_Base::SetMouseOverColor
_TEXT	ENDS
; Function compile flags: /Odtp
; File c:\users\zhitao li\documents\visual studio 2012\projects\freefalcon\ui95\cbase.h
;	COMDAT ?SetMouseOver@C_Base@@UAEXF@Z
_TEXT	SEGMENT
_this$ = -4						; size = 4
_state$ = 8						; size = 2
?SetMouseOver@C_Base@@UAEXF@Z PROC			; C_Base::SetMouseOver, COMDAT
; _this$ = ecx

; 128  : 		virtual void SetMouseOver(short state)					{}

	push	ebp
	mov	ebp, esp
	push	ecx
	mov	DWORD PTR _this$[ebp], ecx
	mov	esp, ebp
	pop	ebp
	ret	4
?SetMouseOver@C_Base@@UAEXF@Z ENDP			; C_Base::SetMouseOver
_TEXT	ENDS
; Function compile flags: /Odtp
; File c:\users\zhitao li\documents\visual studio 2012\projects\freefalcon\ui95\cbase.h
;	COMDAT ?SetHelpText@C_Base@@UAEXJ@Z
_TEXT	SEGMENT
_this$ = -4						; size = 4
_id$ = 8						; size = 4
?SetHelpText@C_Base@@UAEXJ@Z PROC			; C_Base::SetHelpText, COMDAT
; _this$ = ecx

; 127  : 		virtual void SetHelpText(long id)						{}

	push	ebp
	mov	ebp, esp
	push	ecx
	mov	DWORD PTR _this$[ebp], ecx
	mov	esp, ebp
	pop	ebp
	ret	4
?SetHelpText@C_Base@@UAEXJ@Z ENDP			; C_Base::SetHelpText
_TEXT	ENDS
; Function compile flags: /Odtp
; File c:\users\zhitao li\documents\visual studio 2012\projects\freefalcon\ui95\cbase.h
;	COMDAT ?SetDragCursorID@C_Base@@UAEXJ@Z
_TEXT	SEGMENT
_this$ = -4						; size = 4
_id$ = 8						; size = 4
?SetDragCursorID@C_Base@@UAEXJ@Z PROC			; C_Base::SetDragCursorID, COMDAT
; _this$ = ecx

; 126  : 		virtual void SetDragCursorID(long id)					{}

	push	ebp
	mov	ebp, esp
	push	ecx
	mov	DWORD PTR _this$[ebp], ecx
	mov	esp, ebp
	pop	ebp
	ret	4
?SetDragCursorID@C_Base@@UAEXJ@Z ENDP			; C_Base::SetDragCursorID
_TEXT	ENDS
; Function compile flags: /Odtp
; File c:\users\zhitao li\documents\visual studio 2012\projects\freefalcon\ui95\cbase.h
;	COMDAT ?SetCursorID@C_Base@@UAEXJ@Z
_TEXT	SEGMENT
_this$ = -4						; size = 4
_id$ = 8						; size = 4
?SetCursorID@C_Base@@UAEXJ@Z PROC			; C_Base::SetCursorID, COMDAT
; _this$ = ecx

; 125  : 		virtual void SetCursorID(long id)						{}

	push	ebp
	mov	ebp, esp
	push	ecx
	mov	DWORD PTR _this$[ebp], ecx
	mov	esp, ebp
	pop	ebp
	ret	4
?SetCursorID@C_Base@@UAEXJ@Z ENDP			; C_Base::SetCursorID
_TEXT	ENDS
; Function compile flags: /Odtp
; File c:\users\zhitao li\documents\visual studio 2012\projects\freefalcon\ui95\cbase.h
;	COMDAT ?SetSound@C_Base@@UAEXJF@Z
_TEXT	SEGMENT
_this$ = -4						; size = 4
_ID$ = 8						; size = 4
_type$ = 12						; size = 2
?SetSound@C_Base@@UAEXJF@Z PROC				; C_Base::SetSound, COMDAT
; _this$ = ecx

; 124  : 		virtual void SetSound(long ID,short type)				{}

	push	ebp
	mov	ebp, esp
	push	ecx
	mov	DWORD PTR _this$[ebp], ecx
	mov	esp, ebp
	pop	ebp
	ret	8
?SetSound@C_Base@@UAEXJF@Z ENDP				; C_Base::SetSound
_TEXT	ENDS
; Function compile flags: /Odtp
; File c:\users\zhitao li\documents\visual studio 2012\projects\freefalcon\ui95\cbase.h
;	COMDAT ?SetFont@C_Base@@UAEXJ@Z
_TEXT	SEGMENT
_this$ = -4						; size = 4
_ID$ = 8						; size = 4
?SetFont@C_Base@@UAEXJ@Z PROC				; C_Base::SetFont, COMDAT
; _this$ = ecx

; 123  : 		virtual void SetFont(long ID)							{}

	push	ebp
	mov	ebp, esp
	push	ecx
	mov	DWORD PTR _this$[ebp], ecx
	mov	esp, ebp
	pop	ebp
	ret	4
?SetFont@C_Base@@UAEXJ@Z ENDP				; C_Base::SetFont
_TEXT	ENDS
; Function compile flags: /Odtp
; File c:\users\zhitao li\documents\visual studio 2012\projects\freefalcon\ui95\cbase.h
;	COMDAT ?SetMenu@C_Base@@UAEXJ@Z
_TEXT	SEGMENT
_this$ = -4						; size = 4
_ID$ = 8						; size = 4
?SetMenu@C_Base@@UAEXJ@Z PROC				; C_Base::SetMenu, COMDAT
; _this$ = ecx

; 122  : 		virtual void SetMenu(long ID)							{}

	push	ebp
	mov	ebp, esp
	push	ecx
	mov	DWORD PTR _this$[ebp], ecx
	mov	esp, ebp
	pop	ebp
	ret	4
?SetMenu@C_Base@@UAEXJ@Z ENDP				; C_Base::SetMenu
_TEXT	ENDS
; Function compile flags: /Odtp
; File c:\users\zhitao li\documents\visual studio 2012\projects\freefalcon\ui95\cbase.h
;	COMDAT ?SetHotKey@C_Base@@UAEXF@Z
_TEXT	SEGMENT
_this$ = -4						; size = 4
_key$ = 8						; size = 2
?SetHotKey@C_Base@@UAEXF@Z PROC				; C_Base::SetHotKey, COMDAT
; _this$ = ecx

; 121  : 		virtual void SetHotKey(short key)						{}

	push	ebp
	mov	ebp, esp
	push	ecx
	mov	DWORD PTR _this$[ebp], ecx
	mov	esp, ebp
	pop	ebp
	ret	4
?SetHotKey@C_Base@@UAEXF@Z ENDP				; C_Base::SetHotKey
_TEXT	ENDS
; Function compile flags: /Odtp
; File c:\users\zhitao li\documents\visual studio 2012\projects\freefalcon\ui95\cbase.h
;	COMDAT ?SetState@C_Base@@UAEXF@Z
_TEXT	SEGMENT
_this$ = -4						; size = 4
_state$ = 8						; size = 2
?SetState@C_Base@@UAEXF@Z PROC				; C_Base::SetState, COMDAT
; _this$ = ecx

; 120  : 		virtual void SetState(short state)						{}

	push	ebp
	mov	ebp, esp
	push	ecx
	mov	DWORD PTR _this$[ebp], ecx
	mov	esp, ebp
	pop	ebp
	ret	4
?SetState@C_Base@@UAEXF@Z ENDP				; C_Base::SetState
_TEXT	ENDS
; Function compile flags: /Odtp
; File c:\users\zhitao li\documents\visual studio 2012\projects\freefalcon\ui95\cbase.h
;	COMDAT ?SetReady@C_Base@@QAEXF@Z
_TEXT	SEGMENT
_this$ = -4						; size = 4
_r$ = 8							; size = 2
?SetReady@C_Base@@QAEXF@Z PROC				; C_Base::SetReady, COMDAT
; _this$ = ecx

; 116  : 		void SetReady(short r)									{ Ready_=r; }

	push	ebp
	mov	ebp, esp
	push	ecx
	mov	DWORD PTR _this$[ebp], ecx
	mov	eax, DWORD PTR _this$[ebp]
	mov	cx, WORD PTR _r$[ebp]
	mov	WORD PTR [eax+42], cx
	mov	esp, ebp
	pop	ebp
	ret	4
?SetReady@C_Base@@QAEXF@Z ENDP				; C_Base::SetReady
_TEXT	ENDS
; Function compile flags: /Odtp
; File c:\users\zhitao li\documents\visual studio 2012\projects\freefalcon\ui95\cbase.h
;	COMDAT ?SetParent@C_Base@@QAEXPAVC_Window@@@Z
_TEXT	SEGMENT
_this$ = -4						; size = 4
_win$ = 8						; size = 4
?SetParent@C_Base@@QAEXPAVC_Window@@@Z PROC		; C_Base::SetParent, COMDAT
; _this$ = ecx

; 115  : 		void SetParent(C_Window *win)							{ Parent_=win; }

	push	ebp
	mov	ebp, esp
	push	ecx
	mov	DWORD PTR _this$[ebp], ecx
	mov	eax, DWORD PTR _this$[ebp]
	mov	ecx, DWORD PTR _win$[ebp]
	mov	DWORD PTR [eax+48], ecx
	mov	esp, ebp
	pop	ebp
	ret	4
?SetParent@C_Base@@QAEXPAVC_Window@@@Z ENDP		; C_Base::SetParent
_TEXT	ENDS
; Function compile flags: /Odtp
; File c:\users\zhitao li\documents\visual studio 2012\projects\freefalcon\ui95\cbase.h
;	COMDAT ?SetRelXY@C_Base@@UAEXJJ@Z
_TEXT	SEGMENT
_this$ = -4						; size = 4
_x$ = 8							; size = 4
_y$ = 12						; size = 4
?SetRelXY@C_Base@@UAEXJJ@Z PROC				; C_Base::SetRelXY, COMDAT
; _this$ = ecx

; 112  : 		virtual void SetRelXY(long x,long y)					{}

	push	ebp
	mov	ebp, esp
	push	ecx
	mov	DWORD PTR _this$[ebp], ecx
	mov	esp, ebp
	pop	ebp
	ret	8
?SetRelXY@C_Base@@UAEXJJ@Z ENDP				; C_Base::SetRelXY
_TEXT	ENDS
; Function compile flags: /Odtp
; File c:\users\zhitao li\documents\visual studio 2012\projects\freefalcon\ui95\cbase.h
;	COMDAT ?SetRelY@C_Base@@UAEXJ@Z
_TEXT	SEGMENT
_this$ = -4						; size = 4
_y$ = 8							; size = 4
?SetRelY@C_Base@@UAEXJ@Z PROC				; C_Base::SetRelY, COMDAT
; _this$ = ecx

; 111  : 		virtual void SetRelY(long y)							{}

	push	ebp
	mov	ebp, esp
	push	ecx
	mov	DWORD PTR _this$[ebp], ecx
	mov	esp, ebp
	pop	ebp
	ret	4
?SetRelY@C_Base@@UAEXJ@Z ENDP				; C_Base::SetRelY
_TEXT	ENDS
; Function compile flags: /Odtp
; File c:\users\zhitao li\documents\visual studio 2012\projects\freefalcon\ui95\cbase.h
;	COMDAT ?SetRelX@C_Base@@UAEXJ@Z
_TEXT	SEGMENT
_this$ = -4						; size = 4
_x$ = 8							; size = 4
?SetRelX@C_Base@@UAEXJ@Z PROC				; C_Base::SetRelX, COMDAT
; _this$ = ecx

; 110  : 		virtual void SetRelX(long x)							{}

	push	ebp
	mov	ebp, esp
	push	ecx
	mov	DWORD PTR _this$[ebp], ecx
	mov	esp, ebp
	pop	ebp
	ret	4
?SetRelX@C_Base@@UAEXJ@Z ENDP				; C_Base::SetRelX
_TEXT	ENDS
; Function compile flags: /Odtp
; File c:\users\zhitao li\documents\visual studio 2012\projects\freefalcon\ui95\cbase.h
;	COMDAT ?SetXYWH@C_Base@@UAEXJJJJ@Z
_TEXT	SEGMENT
_this$ = -4						; size = 4
_x$ = 8							; size = 4
_y$ = 12						; size = 4
_w$ = 16						; size = 4
_h$ = 20						; size = 4
?SetXYWH@C_Base@@UAEXJJJJ@Z PROC			; C_Base::SetXYWH, COMDAT
; _this$ = ecx

; 109  : 		virtual void SetXYWH(long x,long y,long w,long h)		{ x_=x; y_=y; w_=w; h_=h; }

	push	ebp
	mov	ebp, esp
	push	ecx
	mov	DWORD PTR _this$[ebp], ecx
	mov	eax, DWORD PTR _this$[ebp]
	mov	ecx, DWORD PTR _x$[ebp]
	mov	DWORD PTR [eax+24], ecx
	mov	edx, DWORD PTR _this$[ebp]
	mov	eax, DWORD PTR _y$[ebp]
	mov	DWORD PTR [edx+28], eax
	mov	ecx, DWORD PTR _this$[ebp]
	mov	edx, DWORD PTR _w$[ebp]
	mov	DWORD PTR [ecx+32], edx
	mov	eax, DWORD PTR _this$[ebp]
	mov	ecx, DWORD PTR _h$[ebp]
	mov	DWORD PTR [eax+36], ecx
	mov	esp, ebp
	pop	ebp
	ret	16					; 00000010H
?SetXYWH@C_Base@@UAEXJJJJ@Z ENDP			; C_Base::SetXYWH
_TEXT	ENDS
; Function compile flags: /Odtp
; File c:\users\zhitao li\documents\visual studio 2012\projects\freefalcon\ui95\cbase.h
;	COMDAT ?SetWH@C_Base@@UAEXJJ@Z
_TEXT	SEGMENT
_this$ = -4						; size = 4
_w$ = 8							; size = 4
_h$ = 12						; size = 4
?SetWH@C_Base@@UAEXJJ@Z PROC				; C_Base::SetWH, COMDAT
; _this$ = ecx

; 108  : 		virtual void SetWH(long w,long h)						{ w_=w; h_=h; }

	push	ebp
	mov	ebp, esp
	push	ecx
	mov	DWORD PTR _this$[ebp], ecx
	mov	eax, DWORD PTR _this$[ebp]
	mov	ecx, DWORD PTR _w$[ebp]
	mov	DWORD PTR [eax+32], ecx
	mov	edx, DWORD PTR _this$[ebp]
	mov	eax, DWORD PTR _h$[ebp]
	mov	DWORD PTR [edx+36], eax
	mov	esp, ebp
	pop	ebp
	ret	8
?SetWH@C_Base@@UAEXJJ@Z ENDP				; C_Base::SetWH
_TEXT	ENDS
; Function compile flags: /Odtp
; File c:\users\zhitao li\documents\visual studio 2012\projects\freefalcon\ui95\cbase.h
;	COMDAT ?SetXY@C_Base@@UAEXJJ@Z
_TEXT	SEGMENT
_this$ = -4						; size = 4
_x$ = 8							; size = 4
_y$ = 12						; size = 4
?SetXY@C_Base@@UAEXJJ@Z PROC				; C_Base::SetXY, COMDAT
; _this$ = ecx

; 107  : 		virtual void SetXY(long x,long y)						{ x_=x; y_=y; }

	push	ebp
	mov	ebp, esp
	push	ecx
	mov	DWORD PTR _this$[ebp], ecx
	mov	eax, DWORD PTR _this$[ebp]
	mov	ecx, DWORD PTR _x$[ebp]
	mov	DWORD PTR [eax+24], ecx
	mov	edx, DWORD PTR _this$[ebp]
	mov	eax, DWORD PTR _y$[ebp]
	mov	DWORD PTR [edx+28], eax
	mov	esp, ebp
	pop	ebp
	ret	8
?SetXY@C_Base@@UAEXJJ@Z ENDP				; C_Base::SetXY
_TEXT	ENDS
; Function compile flags: /Odtp
; File c:\users\zhitao li\documents\visual studio 2012\projects\freefalcon\ui95\cbase.h
;	COMDAT ?SetH@C_Base@@UAEXJ@Z
_TEXT	SEGMENT
_this$ = -4						; size = 4
_h$ = 8							; size = 4
?SetH@C_Base@@UAEXJ@Z PROC				; C_Base::SetH, COMDAT
; _this$ = ecx

; 106  : 		virtual void SetH(long h)								{ h_=h; }

	push	ebp
	mov	ebp, esp
	push	ecx
	mov	DWORD PTR _this$[ebp], ecx
	mov	eax, DWORD PTR _this$[ebp]
	mov	ecx, DWORD PTR _h$[ebp]
	mov	DWORD PTR [eax+36], ecx
	mov	esp, ebp
	pop	ebp
	ret	4
?SetH@C_Base@@UAEXJ@Z ENDP				; C_Base::SetH
_TEXT	ENDS
; Function compile flags: /Odtp
; File c:\users\zhitao li\documents\visual studio 2012\projects\freefalcon\ui95\cbase.h
;	COMDAT ?SetW@C_Base@@UAEXJ@Z
_TEXT	SEGMENT
_this$ = -4						; size = 4
_w$ = 8							; size = 4
?SetW@C_Base@@UAEXJ@Z PROC				; C_Base::SetW, COMDAT
; _this$ = ecx

; 105  : 		virtual void SetW(long w)								{ w_=w; }

	push	ebp
	mov	ebp, esp
	push	ecx
	mov	DWORD PTR _this$[ebp], ecx
	mov	eax, DWORD PTR _this$[ebp]
	mov	ecx, DWORD PTR _w$[ebp]
	mov	DWORD PTR [eax+32], ecx
	mov	esp, ebp
	pop	ebp
	ret	4
?SetW@C_Base@@UAEXJ@Z ENDP				; C_Base::SetW
_TEXT	ENDS
; Function compile flags: /Odtp
; File c:\users\zhitao li\documents\visual studio 2012\projects\freefalcon\ui95\cbase.h
;	COMDAT ?SetY@C_Base@@UAEXJ@Z
_TEXT	SEGMENT
_this$ = -4						; size = 4
_y$ = 8							; size = 4
?SetY@C_Base@@UAEXJ@Z PROC				; C_Base::SetY, COMDAT
; _this$ = ecx

; 104  : 		virtual void SetY(long y)								{ y_=y; }

	push	ebp
	mov	ebp, esp
	push	ecx
	mov	DWORD PTR _this$[ebp], ecx
	mov	eax, DWORD PTR _this$[ebp]
	mov	ecx, DWORD PTR _y$[ebp]
	mov	DWORD PTR [eax+28], ecx
	mov	esp, ebp
	pop	ebp
	ret	4
?SetY@C_Base@@UAEXJ@Z ENDP				; C_Base::SetY
_TEXT	ENDS
; Function compile flags: /Odtp
; File c:\users\zhitao li\documents\visual studio 2012\projects\freefalcon\ui95\cbase.h
;	COMDAT ?SetX@C_Base@@UAEXJ@Z
_TEXT	SEGMENT
_this$ = -4						; size = 4
_x$ = 8							; size = 4
?SetX@C_Base@@UAEXJ@Z PROC				; C_Base::SetX, COMDAT
; _this$ = ecx

; 103  : 		virtual void SetX(long x)								{ x_=x; }

	push	ebp
	mov	ebp, esp
	push	ecx
	mov	DWORD PTR _this$[ebp], ecx
	mov	eax, DWORD PTR _this$[ebp]
	mov	ecx, DWORD PTR _x$[ebp]
	mov	DWORD PTR [eax+24], ecx
	mov	esp, ebp
	pop	ebp
	ret	4
?SetX@C_Base@@UAEXJ@Z ENDP				; C_Base::SetX
_TEXT	ENDS
; Function compile flags: /Odtp
; File c:\users\zhitao li\documents\visual studio 2012\projects\freefalcon\ui95\cbase.h
;	COMDAT ?SetFlagBitOff@C_Base@@UAEXJ@Z
_TEXT	SEGMENT
_this$ = -4						; size = 4
_bits$ = 8						; size = 4
?SetFlagBitOff@C_Base@@UAEXJ@Z PROC			; C_Base::SetFlagBitOff, COMDAT
; _this$ = ecx

; 102  : 		virtual void SetFlagBitOff(long bits)					{ Flags_ &= ~bits; }

	push	ebp
	mov	ebp, esp
	push	ecx
	mov	DWORD PTR _this$[ebp], ecx
	mov	eax, DWORD PTR _bits$[ebp]
	not	eax
	mov	ecx, DWORD PTR _this$[ebp]
	and	eax, DWORD PTR [ecx+16]
	mov	edx, DWORD PTR _this$[ebp]
	mov	DWORD PTR [edx+16], eax
	mov	esp, ebp
	pop	ebp
	ret	4
?SetFlagBitOff@C_Base@@UAEXJ@Z ENDP			; C_Base::SetFlagBitOff
_TEXT	ENDS
; Function compile flags: /Odtp
; File c:\users\zhitao li\documents\visual studio 2012\projects\freefalcon\ui95\cbase.h
;	COMDAT ?SetFlagBitOn@C_Base@@UAEXJ@Z
_TEXT	SEGMENT
_this$ = -4						; size = 4
_bits$ = 8						; size = 4
?SetFlagBitOn@C_Base@@UAEXJ@Z PROC			; C_Base::SetFlagBitOn, COMDAT
; _this$ = ecx

; 101  : 		virtual void SetFlagBitOn(long bits)					{ Flags_ |= bits; }

	push	ebp
	mov	ebp, esp
	push	ecx
	mov	DWORD PTR _this$[ebp], ecx
	mov	eax, DWORD PTR _this$[ebp]
	mov	ecx, DWORD PTR [eax+16]
	or	ecx, DWORD PTR _bits$[ebp]
	mov	edx, DWORD PTR _this$[ebp]
	mov	DWORD PTR [edx+16], ecx
	mov	esp, ebp
	pop	ebp
	ret	4
?SetFlagBitOn@C_Base@@UAEXJ@Z ENDP			; C_Base::SetFlagBitOn
_TEXT	ENDS
; Function compile flags: /Odtp
; File c:\users\zhitao li\documents\visual studio 2012\projects\freefalcon\ui95\cbase.h
;	COMDAT ?SetFlags@C_Base@@UAEXJ@Z
_TEXT	SEGMENT
_this$ = -4						; size = 4
_flags$ = 8						; size = 4
?SetFlags@C_Base@@UAEXJ@Z PROC				; C_Base::SetFlags, COMDAT
; _this$ = ecx

; 100  : 		virtual void SetFlags(long flags)						{ Flags_=flags; }

	push	ebp
	mov	ebp, esp
	push	ecx
	mov	DWORD PTR _this$[ebp], ecx
	mov	eax, DWORD PTR _this$[ebp]
	mov	ecx, DWORD PTR _flags$[ebp]
	mov	DWORD PTR [eax+16], ecx
	mov	esp, ebp
	pop	ebp
	ret	4
?SetFlags@C_Base@@UAEXJ@Z ENDP				; C_Base::SetFlags
_TEXT	ENDS
; Function compile flags: /Odtp
; File c:\users\zhitao li\documents\visual studio 2012\projects\freefalcon\ui95\cbase.h
;	COMDAT ?SetGroup@C_Base@@QAEXJ@Z
_TEXT	SEGMENT
_this$ = -4						; size = 4
_id$ = 8						; size = 4
?SetGroup@C_Base@@QAEXJ@Z PROC				; C_Base::SetGroup, COMDAT
; _this$ = ecx

; 96   : 		void SetGroup(long id)									{ Section_[_GROUP_]=id; }

	push	ebp
	mov	ebp, esp
	push	ecx
	mov	DWORD PTR _this$[ebp], ecx
	mov	eax, 4
	imul	eax, 0
	mov	ecx, DWORD PTR _this$[ebp]
	mov	edx, DWORD PTR _id$[ebp]
	mov	DWORD PTR [ecx+eax+8], edx
	mov	esp, ebp
	pop	ebp
	ret	4
?SetGroup@C_Base@@QAEXJ@Z ENDP				; C_Base::SetGroup
_TEXT	ENDS
; Function compile flags: /Odtp
; File c:\users\zhitao li\documents\visual studio 2012\projects\freefalcon\ui95\cbase.h
;	COMDAT ?_SetCType_@C_Base@@QAEXF@Z
_TEXT	SEGMENT
_this$ = -4						; size = 4
_ctype$ = 8						; size = 2
?_SetCType_@C_Base@@QAEXF@Z PROC			; C_Base::_SetCType_, COMDAT
; _this$ = ecx

; 95   : 		void _SetCType_(short ctype)							{ _CType_=ctype; }

	push	ebp
	mov	ebp, esp
	push	ecx
	mov	DWORD PTR _this$[ebp], ecx
	mov	eax, DWORD PTR _this$[ebp]
	mov	cx, WORD PTR _ctype$[ebp]
	mov	WORD PTR [eax+20], cx
	mov	esp, ebp
	pop	ebp
	ret	4
?_SetCType_@C_Base@@QAEXF@Z ENDP			; C_Base::_SetCType_
_TEXT	ENDS
; Function compile flags: /Odtp
; File c:\users\zhitao li\documents\visual studio 2012\projects\freefalcon\ui95\cbase.h
;	COMDAT ?SetType@C_Base@@QAEXF@Z
_TEXT	SEGMENT
_this$ = -4						; size = 4
_type$ = 8						; size = 2
?SetType@C_Base@@QAEXF@Z PROC				; C_Base::SetType, COMDAT
; _this$ = ecx

; 94   : 		void SetType(short type)								{ Type_=type; }

	push	ebp
	mov	ebp, esp
	push	ecx
	mov	DWORD PTR _this$[ebp], ecx
	mov	eax, DWORD PTR _this$[ebp]
	mov	cx, WORD PTR _type$[ebp]
	mov	WORD PTR [eax+22], cx
	mov	esp, ebp
	pop	ebp
	ret	4
?SetType@C_Base@@QAEXF@Z ENDP				; C_Base::SetType
_TEXT	ENDS
; Function compile flags: /Odtp
; File c:\users\zhitao li\documents\visual studio 2012\projects\freefalcon\ui95\cbase.h
;	COMDAT ?SetID@C_Base@@QAEXJ@Z
_TEXT	SEGMENT
_this$ = -4						; size = 4
_id$ = 8						; size = 4
?SetID@C_Base@@QAEXJ@Z PROC				; C_Base::SetID, COMDAT
; _this$ = ecx

; 93   : 		void SetID(long id)										{ ID_=id; }

	push	ebp
	mov	ebp, esp
	push	ecx
	mov	DWORD PTR _this$[ebp], ecx
	mov	eax, DWORD PTR _this$[ebp]
	mov	ecx, DWORD PTR _id$[ebp]
	mov	DWORD PTR [eax+4], ecx
	mov	esp, ebp
	pop	ebp
	ret	4
?SetID@C_Base@@QAEXJ@Z ENDP				; C_Base::SetID
_TEXT	ENDS
; Function compile flags: /Odtp
; File c:\users\zhitao li\documents\visual studio 2012\projects\freefalcon\ui95\cbase.h
;	COMDAT ??1C_Base@@UAE@XZ
_TEXT	SEGMENT
tv74 = -16						; size = 4
$T1 = -12						; size = 4
$T2 = -8						; size = 4
_this$ = -4						; size = 4
??1C_Base@@UAE@XZ PROC					; C_Base::~C_Base, COMDAT
; _this$ = ecx

; 81   : 		{

	push	ebp
	mov	ebp, esp
	sub	esp, 16					; 00000010H
	mov	DWORD PTR _this$[ebp], ecx
	mov	eax, DWORD PTR _this$[ebp]
	mov	DWORD PTR [eax], OFFSET ??_7C_Base@@6B@

; 82   : 			if(User_)

	mov	ecx, DWORD PTR _this$[ebp]
	cmp	DWORD PTR [ecx+44], 0
	je	SHORT $LN2@C_Base

; 83   : 			{
; 84   : 				User_->Cleanup();

	mov	edx, DWORD PTR _this$[ebp]
	mov	ecx, DWORD PTR [edx+44]
	call	?Cleanup@C_Hash@@QAEXXZ			; C_Hash::Cleanup

; 85   : 				delete User_;

	mov	eax, DWORD PTR _this$[ebp]
	mov	ecx, DWORD PTR [eax+44]
	mov	DWORD PTR $T1[ebp], ecx
	mov	edx, DWORD PTR $T1[ebp]
	mov	DWORD PTR $T2[ebp], edx
	cmp	DWORD PTR $T2[ebp], 0
	je	SHORT $LN4@C_Base
	push	1
	mov	ecx, DWORD PTR $T2[ebp]
	call	??_GC_Hash@@QAEPAXI@Z
	mov	DWORD PTR tv74[ebp], eax
	jmp	SHORT $LN2@C_Base
$LN4@C_Base:
	mov	DWORD PTR tv74[ebp], 0
$LN2@C_Base:

; 86   : 			}
; 87   : 		}

	mov	esp, ebp
	pop	ebp
	ret	0
??1C_Base@@UAE@XZ ENDP					; C_Base::~C_Base
_TEXT	ENDS
; Function compile flags: /Odtp
;	COMDAT ??_GO_Output@@QAEPAXI@Z
_TEXT	SEGMENT
_this$ = -4						; size = 4
___flags$ = 8						; size = 4
??_GO_Output@@QAEPAXI@Z PROC				; O_Output::`scalar deleting destructor', COMDAT
; _this$ = ecx
	push	ebp
	mov	ebp, esp
	push	ecx
	mov	DWORD PTR _this$[ebp], ecx
	mov	ecx, DWORD PTR _this$[ebp]
	call	??1O_Output@@QAE@XZ			; O_Output::~O_Output
	mov	eax, DWORD PTR ___flags$[ebp]
	and	eax, 1
	je	SHORT $LN1@scalar
	mov	ecx, DWORD PTR _this$[ebp]
	push	ecx
	call	??3@YAXPAX@Z				; operator delete
	add	esp, 4
$LN1@scalar:
	mov	eax, DWORD PTR _this$[ebp]
	mov	esp, ebp
	pop	ebp
	ret	4
??_GO_Output@@QAEPAXI@Z ENDP				; O_Output::`scalar deleting destructor'
_TEXT	ENDS
; Function compile flags: /Odtp
; File c:\users\zhitao li\documents\visual studio 2012\projects\freefalcon\ui95\ooutput.h
;	COMDAT ?Ready@O_Output@@QAEFXZ
_TEXT	SEGMENT
_this$ = -4						; size = 4
?Ready@O_Output@@QAEFXZ PROC				; O_Output::Ready, COMDAT
; _this$ = ecx

; 149  : 		short Ready()					{ return(ready_); }

	push	ebp
	mov	ebp, esp
	push	ecx
	mov	DWORD PTR _this$[ebp], ecx
	mov	eax, DWORD PTR _this$[ebp]
	mov	ax, WORD PTR [eax+100]
	mov	esp, ebp
	pop	ebp
	ret	0
?Ready@O_Output@@QAEFXZ ENDP				; O_Output::Ready
_TEXT	ENDS
; Function compile flags: /Odtp
; File c:\users\zhitao li\documents\visual studio 2012\projects\freefalcon\ui95\ooutput.h
;	COMDAT ?SetOwner@O_Output@@QAEXPAVC_Base@@@Z
_TEXT	SEGMENT
_this$ = -4						; size = 4
_owner$ = 8						; size = 4
?SetOwner@O_Output@@QAEXPAVC_Base@@@Z PROC		; O_Output::SetOwner, COMDAT
; _this$ = ecx

; 124  : 		void SetOwner(C_Base *owner)			{ Owner_ = owner; SetInfo(); }

	push	ebp
	mov	ebp, esp
	push	ecx
	mov	DWORD PTR _this$[ebp], ecx
	mov	eax, DWORD PTR _this$[ebp]
	mov	ecx, DWORD PTR _owner$[ebp]
	mov	DWORD PTR [eax+140], ecx
	mov	ecx, DWORD PTR _this$[ebp]
	call	?SetInfo@O_Output@@QAEXXZ		; O_Output::SetInfo
	mov	esp, ebp
	pop	ebp
	ret	4
?SetOwner@O_Output@@QAEXPAVC_Base@@@Z ENDP		; O_Output::SetOwner
_TEXT	ENDS
; Function compile flags: /Odtp
; File c:\users\zhitao li\documents\visual studio 2012\projects\freefalcon\ui95\ooutput.h
;	COMDAT ??1O_Output@@QAE@XZ
_TEXT	SEGMENT
_this$ = -4						; size = 4
??1O_Output@@QAE@XZ PROC				; O_Output::~O_Output, COMDAT
; _this$ = ecx

; 110  : 		~O_Output() {}

	push	ebp
	mov	ebp, esp
	push	ecx
	mov	DWORD PTR _this$[ebp], ecx
	mov	esp, ebp
	pop	ebp
	ret	0
??1O_Output@@QAE@XZ ENDP				; O_Output::~O_Output
_TEXT	ENDS
; Function compile flags: /Odtp
; File c:\users\zhitao li\documents\visual studio 2012\projects\freefalcon\ui95\ooutput.h
;	COMDAT ??0O_Output@@QAE@XZ
_TEXT	SEGMENT
_this$ = -4						; size = 4
??0O_Output@@QAE@XZ PROC				; O_Output::O_Output, COMDAT
; _this$ = ecx

; 75   : 		O_Output()

	push	ebp
	mov	ebp, esp
	push	ecx
	mov	DWORD PTR _this$[ebp], ecx

; 76   : 		{
; 77   : 			origx_=0,origy_=0;

	mov	eax, DWORD PTR _this$[ebp]
	mov	DWORD PTR [eax+52], 0
	mov	ecx, DWORD PTR _this$[ebp]
	mov	DWORD PTR [ecx+56], 0

; 78   : 			x_=0,y_=0;

	mov	edx, DWORD PTR _this$[ebp]
	mov	DWORD PTR [edx+60], 0
	mov	eax, DWORD PTR _this$[ebp]
	mov	DWORD PTR [eax+64], 0

; 79   : 			w_=0,h_=0;

	mov	ecx, DWORD PTR _this$[ebp]
	mov	DWORD PTR [ecx+68], 0
	mov	edx, DWORD PTR _this$[ebp]
	mov	DWORD PTR [edx+72], 0

; 80   : 			lastx_=0,lasty_=0;

	mov	eax, DWORD PTR _this$[ebp]
	mov	DWORD PTR [eax+76], 0
	mov	ecx, DWORD PTR _this$[ebp]
	mov	DWORD PTR [ecx+80], 0

; 81   : 			lastw_=0,lasth_=0;

	mov	edx, DWORD PTR _this$[ebp]
	mov	DWORD PTR [edx+84], 0
	mov	eax, DWORD PTR _this$[ebp]
	mov	DWORD PTR [eax+88], 0

; 82   : 			_OType_=0;

	xor	ecx, ecx
	mov	edx, DWORD PTR _this$[ebp]
	mov	WORD PTR [edx+92], cx

; 83   : 			flags_=0;

	mov	eax, DWORD PTR _this$[ebp]
	mov	DWORD PTR [eax], 0

; 84   : 			animtype_=0;

	xor	ecx, ecx
	mov	edx, DWORD PTR _this$[ebp]
	mov	WORD PTR [edx+94], cx

; 85   : 			frame_=0;

	xor	eax, eax
	mov	ecx, DWORD PTR _this$[ebp]
	mov	WORD PTR [ecx+96], ax

; 86   : 			direction_=0;

	xor	edx, edx
	mov	eax, DWORD PTR _this$[ebp]
	mov	WORD PTR [eax+98], dx

; 87   : 			ready_=0;

	xor	ecx, ecx
	mov	edx, DWORD PTR _this$[ebp]
	mov	WORD PTR [edx+100], cx

; 88   : 			fperc_=100,bperc_=0;

	mov	eax, 100				; 00000064H
	mov	ecx, DWORD PTR _this$[ebp]
	mov	WORD PTR [ecx+102], ax
	xor	edx, edx
	mov	eax, DWORD PTR _this$[ebp]
	mov	WORD PTR [eax+104], dx

; 89   : 			FgColor_=0xcccccc,BgColor_=0;

	mov	ecx, DWORD PTR _this$[ebp]
	mov	DWORD PTR [ecx+12], 13421772		; 00ccccccH
	mov	edx, DWORD PTR _this$[ebp]
	mov	DWORD PTR [edx+16], 0

; 90   : 			Font_=1;

	mov	eax, DWORD PTR _this$[ebp]
	mov	DWORD PTR [eax+4], 1

; 91   : 			LabelLen_=0;

	xor	ecx, ecx
	mov	edx, DWORD PTR _this$[ebp]
	mov	WORD PTR [edx+106], cx

; 92   : 			Src_.left=0; Src_.top=0; Src_.right=0; Src_.bottom=0;

	mov	eax, DWORD PTR _this$[ebp]
	mov	DWORD PTR [eax+20], 0
	mov	ecx, DWORD PTR _this$[ebp]
	mov	DWORD PTR [ecx+24], 0
	mov	edx, DWORD PTR _this$[ebp]
	mov	DWORD PTR [edx+28], 0
	mov	eax, DWORD PTR _this$[ebp]
	mov	DWORD PTR [eax+32], 0

; 93   : 			Dest_.left=0; Dest_.top=0; Dest_.right=0; Dest_.bottom=0;

	mov	ecx, DWORD PTR _this$[ebp]
	mov	DWORD PTR [ecx+36], 0
	mov	edx, DWORD PTR _this$[ebp]
	mov	DWORD PTR [edx+40], 0
	mov	eax, DWORD PTR _this$[ebp]
	mov	DWORD PTR [eax+44], 0
	mov	ecx, DWORD PTR _this$[ebp]
	mov	DWORD PTR [ecx+48], 0

; 94   : 			Rows_=NULL;

	mov	edx, DWORD PTR _this$[ebp]
	mov	DWORD PTR [edx+116], 0

; 95   : 			Cols_=NULL;

	mov	eax, DWORD PTR _this$[ebp]
	mov	DWORD PTR [eax+120], 0

; 96   : 			ScaleSet_=1;

	mov	ecx, DWORD PTR _this$[ebp]
	mov	DWORD PTR [ecx+8], 1

; 97   : 			OpStart_=0;

	xor	edx, edx
	mov	eax, DWORD PTR _this$[ebp]
	mov	WORD PTR [eax+112], dx

; 98   : 			OpEnd_=10000;

	mov	ecx, 10000				; 00002710H
	mov	edx, DWORD PTR _this$[ebp]
	mov	WORD PTR [edx+114], cx

; 99   : 			WWWidth_=0;

	xor	eax, eax
	mov	ecx, DWORD PTR _this$[ebp]
	mov	WORD PTR [ecx+108], ax

; 100  : 			WWCount_=0;

	xor	edx, edx
	mov	eax, DWORD PTR _this$[ebp]
	mov	WORD PTR [eax+110], dx

; 101  : 			Wrap_=NULL;

	mov	ecx, DWORD PTR _this$[ebp]
	mov	DWORD PTR [ecx+124], 0

; 102  : 			Label_=NULL;

	mov	edx, DWORD PTR _this$[ebp]
	mov	DWORD PTR [edx+128], 0

; 103  : 			Image_=NULL;

	mov	eax, DWORD PTR _this$[ebp]
	mov	DWORD PTR [eax+132], 0

; 104  : 			Anim_=NULL;

	mov	ecx, DWORD PTR _this$[ebp]
	mov	DWORD PTR [ecx+136], 0

; 105  : 			Owner_=NULL;

	mov	edx, DWORD PTR _this$[ebp]
	mov	DWORD PTR [edx+140], 0

; 106  : 		}

	mov	eax, DWORD PTR _this$[ebp]
	mov	esp, ebp
	pop	ebp
	ret	0
??0O_Output@@QAE@XZ ENDP				; O_Output::O_Output
_TEXT	ENDS
; Function compile flags: /Odtp
;	COMDAT ??_GC_Hash@@QAEPAXI@Z
_TEXT	SEGMENT
_this$ = -4						; size = 4
___flags$ = 8						; size = 4
??_GC_Hash@@QAEPAXI@Z PROC				; C_Hash::`scalar deleting destructor', COMDAT
; _this$ = ecx
	push	ebp
	mov	ebp, esp
	push	ecx
	mov	DWORD PTR _this$[ebp], ecx
	mov	ecx, DWORD PTR _this$[ebp]
	call	??1C_Hash@@QAE@XZ			; C_Hash::~C_Hash
	mov	eax, DWORD PTR ___flags$[ebp]
	and	eax, 1
	je	SHORT $LN1@scalar
	mov	ecx, DWORD PTR _this$[ebp]
	push	ecx
	call	??3@YAXPAX@Z				; operator delete
	add	esp, 4
$LN1@scalar:
	mov	eax, DWORD PTR _this$[ebp]
	mov	esp, ebp
	pop	ebp
	ret	4
??_GC_Hash@@QAEPAXI@Z ENDP				; C_Hash::`scalar deleting destructor'
_TEXT	ENDS
; Function compile flags: /Odtp
;	COMDAT ??_G_System_error_category@std@@UAEPAXI@Z
_TEXT	SEGMENT
_this$ = -4						; size = 4
___flags$ = 8						; size = 4
??_G_System_error_category@std@@UAEPAXI@Z PROC		; std::_System_error_category::`scalar deleting destructor', COMDAT
; _this$ = ecx
	push	ebp
	mov	ebp, esp
	push	ecx
	mov	DWORD PTR _this$[ebp], ecx
	mov	ecx, DWORD PTR _this$[ebp]
	call	??1_System_error_category@std@@UAE@XZ
	mov	eax, DWORD PTR ___flags$[ebp]
	and	eax, 1
	je	SHORT $LN1@scalar
	mov	ecx, DWORD PTR _this$[ebp]
	push	ecx
	call	??3@YAXPAX@Z				; operator delete
	add	esp, 4
$LN1@scalar:
	mov	eax, DWORD PTR _this$[ebp]
	mov	esp, ebp
	pop	ebp
	ret	4
??_G_System_error_category@std@@UAEPAXI@Z ENDP		; std::_System_error_category::`scalar deleting destructor'
_TEXT	ENDS
; Function compile flags: /Odtp
;	COMDAT ??1_System_error_category@std@@UAE@XZ
_TEXT	SEGMENT
_this$ = -4						; size = 4
??1_System_error_category@std@@UAE@XZ PROC		; std::_System_error_category::~_System_error_category, COMDAT
; _this$ = ecx
	push	ebp
	mov	ebp, esp
	push	ecx
	mov	DWORD PTR _this$[ebp], ecx
	mov	ecx, DWORD PTR _this$[ebp]
	call	??1_Generic_error_category@std@@UAE@XZ
	mov	esp, ebp
	pop	ebp
	ret	0
??1_System_error_category@std@@UAE@XZ ENDP		; std::_System_error_category::~_System_error_category
_TEXT	ENDS
; Function compile flags: /Odtp
; File c:\program files (x86)\microsoft visual studio 11.0\vc\include\system_error
;	COMDAT ?default_error_condition@_System_error_category@std@@UBE?AVerror_condition@2@H@Z
_TEXT	SEGMENT
_this$ = -4						; size = 4
___$ReturnUdt$ = 8					; size = 4
__Errval$ = 12						; size = 4
?default_error_condition@_System_error_category@std@@UBE?AVerror_condition@2@H@Z PROC ; std::_System_error_category::default_error_condition, COMDAT
; _this$ = ecx

; 641  : 		{	// make error_condition for error code (generic if possible)

	push	ebp
	mov	ebp, esp
	push	ecx
	mov	DWORD PTR _this$[ebp], ecx

; 642  : 		if (_Syserror_map(_Errval))

	mov	eax, DWORD PTR __Errval$[ebp]
	push	eax
	call	?_Syserror_map@std@@YAPBDH@Z		; std::_Syserror_map
	add	esp, 4
	test	eax, eax
	je	SHORT $LN2@default_er

; 643  : 			return (error_condition(_Errval, generic_category()));

	call	?generic_category@std@@YAABVerror_category@1@XZ ; std::generic_category
	push	eax
	mov	ecx, DWORD PTR __Errval$[ebp]
	push	ecx
	mov	ecx, DWORD PTR ___$ReturnUdt$[ebp]
	call	??0error_condition@std@@QAE@HABVerror_category@1@@Z ; std::error_condition::error_condition
	mov	eax, DWORD PTR ___$ReturnUdt$[ebp]
	jmp	SHORT $LN3@default_er

; 644  : 		else

	jmp	SHORT $LN3@default_er
$LN2@default_er:

; 645  : 			return (error_condition(_Errval, system_category()));

	call	?system_category@std@@YAABVerror_category@1@XZ ; std::system_category
	push	eax
	mov	edx, DWORD PTR __Errval$[ebp]
	push	edx
	mov	ecx, DWORD PTR ___$ReturnUdt$[ebp]
	call	??0error_condition@std@@QAE@HABVerror_category@1@@Z ; std::error_condition::error_condition
	mov	eax, DWORD PTR ___$ReturnUdt$[ebp]
$LN3@default_er:

; 646  : 		}

	mov	esp, ebp
	pop	ebp
	ret	8
?default_error_condition@_System_error_category@std@@UBE?AVerror_condition@2@H@Z ENDP ; std::_System_error_category::default_error_condition
_TEXT	ENDS
; Function compile flags: /Odtp
; File c:\program files (x86)\microsoft visual studio 11.0\vc\include\system_error
;	COMDAT ?message@_System_error_category@std@@UBE?AV?$basic_string@DU?$char_traits@D@std@@V?$allocator@D@2@@2@H@Z
_TEXT	SEGMENT
_this$ = -16						; size = 4
$T1 = -12						; size = 4
tv69 = -8						; size = 4
__Name$ = -4						; size = 4
___$ReturnUdt$ = 8					; size = 4
__Errcode$ = 12						; size = 4
?message@_System_error_category@std@@UBE?AV?$basic_string@DU?$char_traits@D@std@@V?$allocator@D@2@@2@H@Z PROC ; std::_System_error_category::message, COMDAT
; _this$ = ecx

; 634  : 		{	// convert to name of error

	push	ebp
	mov	ebp, esp
	sub	esp, 16					; 00000010H
	mov	DWORD PTR _this$[ebp], ecx
	mov	DWORD PTR $T1[ebp], 0

; 635  : 		const char *_Name = _Winerror_map(_Errcode);

	mov	eax, DWORD PTR __Errcode$[ebp]
	push	eax
	call	?_Winerror_map@std@@YAPBDH@Z		; std::_Winerror_map
	add	esp, 4
	mov	DWORD PTR __Name$[ebp], eax

; 636  : 		return (string(_Name != 0 ? _Name : "unknown error"));

	cmp	DWORD PTR __Name$[ebp], 0
	je	SHORT $LN3@message
	mov	ecx, DWORD PTR __Name$[ebp]
	mov	DWORD PTR tv69[ebp], ecx
	jmp	SHORT $LN4@message
$LN3@message:
	mov	DWORD PTR tv69[ebp], OFFSET ??_C@_0O@BFJCFAAK@unknown?5error?$AA@
$LN4@message:
	mov	edx, DWORD PTR tv69[ebp]
	push	edx
	mov	ecx, DWORD PTR ___$ReturnUdt$[ebp]
	call	??0?$basic_string@DU?$char_traits@D@std@@V?$allocator@D@2@@std@@QAE@PBD@Z ; std::basic_string<char,std::char_traits<char>,std::allocator<char> >::basic_string<char,std::char_traits<char>,std::allocator<char> >
	mov	eax, DWORD PTR $T1[ebp]
	or	eax, 1
	mov	DWORD PTR $T1[ebp], eax
	mov	eax, DWORD PTR ___$ReturnUdt$[ebp]

; 637  : 		}

	mov	esp, ebp
	pop	ebp
	ret	8
?message@_System_error_category@std@@UBE?AV?$basic_string@DU?$char_traits@D@std@@V?$allocator@D@2@@2@H@Z ENDP ; std::_System_error_category::message
_TEXT	ENDS
; Function compile flags: /Odtp
; File c:\program files (x86)\microsoft visual studio 11.0\vc\include\system_error
;	COMDAT ?name@_System_error_category@std@@UBEPBDXZ
_TEXT	SEGMENT
_this$ = -4						; size = 4
?name@_System_error_category@std@@UBEPBDXZ PROC		; std::_System_error_category::name, COMDAT
; _this$ = ecx

; 629  : 		{	// get name of category

	push	ebp
	mov	ebp, esp
	push	ecx
	mov	DWORD PTR _this$[ebp], ecx

; 630  : 		return ("system");

	mov	eax, OFFSET ??_C@_06FHFOAHML@system?$AA@

; 631  : 		}

	mov	esp, ebp
	pop	ebp
	ret	0
?name@_System_error_category@std@@UBEPBDXZ ENDP		; std::_System_error_category::name
_TEXT	ENDS
; Function compile flags: /Odtp
; File c:\program files (x86)\microsoft visual studio 11.0\vc\include\system_error
;	COMDAT ??0_System_error_category@std@@QAE@XZ
_TEXT	SEGMENT
_this$ = -4						; size = 4
??0_System_error_category@std@@QAE@XZ PROC		; std::_System_error_category::_System_error_category, COMDAT
; _this$ = ecx

; 624  : 	_System_error_category()

	push	ebp
	mov	ebp, esp
	push	ecx
	mov	DWORD PTR _this$[ebp], ecx
	mov	ecx, DWORD PTR _this$[ebp]
	call	??0_Generic_error_category@std@@QAE@XZ	; std::_Generic_error_category::_Generic_error_category
	mov	eax, DWORD PTR _this$[ebp]
	mov	DWORD PTR [eax], OFFSET ??_7_System_error_category@std@@6B@

; 625  : 		{	// default constructor
; 626  : 		}

	mov	eax, DWORD PTR _this$[ebp]
	mov	esp, ebp
	pop	ebp
	ret	0
??0_System_error_category@std@@QAE@XZ ENDP		; std::_System_error_category::_System_error_category
_TEXT	ENDS
; Function compile flags: /Odtp
;	COMDAT ??_G_Iostream_error_category@std@@UAEPAXI@Z
_TEXT	SEGMENT
_this$ = -4						; size = 4
___flags$ = 8						; size = 4
??_G_Iostream_error_category@std@@UAEPAXI@Z PROC	; std::_Iostream_error_category::`scalar deleting destructor', COMDAT
; _this$ = ecx
	push	ebp
	mov	ebp, esp
	push	ecx
	mov	DWORD PTR _this$[ebp], ecx
	mov	ecx, DWORD PTR _this$[ebp]
	call	??1_Iostream_error_category@std@@UAE@XZ
	mov	eax, DWORD PTR ___flags$[ebp]
	and	eax, 1
	je	SHORT $LN1@scalar
	mov	ecx, DWORD PTR _this$[ebp]
	push	ecx
	call	??3@YAXPAX@Z				; operator delete
	add	esp, 4
$LN1@scalar:
	mov	eax, DWORD PTR _this$[ebp]
	mov	esp, ebp
	pop	ebp
	ret	4
??_G_Iostream_error_category@std@@UAEPAXI@Z ENDP	; std::_Iostream_error_category::`scalar deleting destructor'
_TEXT	ENDS
; Function compile flags: /Odtp
;	COMDAT ??1_Iostream_error_category@std@@UAE@XZ
_TEXT	SEGMENT
_this$ = -4						; size = 4
??1_Iostream_error_category@std@@UAE@XZ PROC		; std::_Iostream_error_category::~_Iostream_error_category, COMDAT
; _this$ = ecx
	push	ebp
	mov	ebp, esp
	push	ecx
	mov	DWORD PTR _this$[ebp], ecx
	mov	ecx, DWORD PTR _this$[ebp]
	call	??1_Generic_error_category@std@@UAE@XZ
	mov	esp, ebp
	pop	ebp
	ret	0
??1_Iostream_error_category@std@@UAE@XZ ENDP		; std::_Iostream_error_category::~_Iostream_error_category
_TEXT	ENDS
; Function compile flags: /Odtp
; File c:\program files (x86)\microsoft visual studio 11.0\vc\include\system_error
;	COMDAT ?message@_Iostream_error_category@std@@UBE?AV?$basic_string@DU?$char_traits@D@std@@V?$allocator@D@2@@2@H@Z
_TEXT	SEGMENT
_this$ = -8						; size = 4
$T1 = -4						; size = 4
___$ReturnUdt$ = 8					; size = 4
__Errcode$ = 12						; size = 4
?message@_Iostream_error_category@std@@UBE?AV?$basic_string@DU?$char_traits@D@std@@V?$allocator@D@2@@2@H@Z PROC ; std::_Iostream_error_category::message, COMDAT
; _this$ = ecx

; 611  : 		{	// convert to name of error

	push	ebp
	mov	ebp, esp
	sub	esp, 8
	mov	DWORD PTR _this$[ebp], ecx
	mov	DWORD PTR $T1[ebp], 0

; 612  : 		if (_Errcode == (int)io_errc::stream)

	cmp	DWORD PTR __Errcode$[ebp], 1
	jne	SHORT $LN2@message

; 613  : 			return ("iostream stream error");

	push	OFFSET ??_C@_0BG@PADBLCHM@iostream?5stream?5error?$AA@
	mov	ecx, DWORD PTR ___$ReturnUdt$[ebp]
	call	??0?$basic_string@DU?$char_traits@D@std@@V?$allocator@D@2@@std@@QAE@PBD@Z ; std::basic_string<char,std::char_traits<char>,std::allocator<char> >::basic_string<char,std::char_traits<char>,std::allocator<char> >
	mov	eax, DWORD PTR $T1[ebp]
	or	eax, 1
	mov	DWORD PTR $T1[ebp], eax
	mov	eax, DWORD PTR ___$ReturnUdt$[ebp]
	jmp	SHORT $LN3@message

; 614  : 		else

	jmp	SHORT $LN3@message
$LN2@message:

; 615  : 			return (_Generic_error_category::message(_Errcode));

	mov	ecx, DWORD PTR __Errcode$[ebp]
	push	ecx
	mov	edx, DWORD PTR ___$ReturnUdt$[ebp]
	push	edx
	mov	ecx, DWORD PTR _this$[ebp]
	call	?message@_Generic_error_category@std@@UBE?AV?$basic_string@DU?$char_traits@D@std@@V?$allocator@D@2@@2@H@Z ; std::_Generic_error_category::message
	mov	eax, DWORD PTR $T1[ebp]
	or	eax, 1
	mov	DWORD PTR $T1[ebp], eax
	mov	eax, DWORD PTR ___$ReturnUdt$[ebp]
$LN3@message:

; 616  : 		}

	mov	esp, ebp
	pop	ebp
	ret	8
?message@_Iostream_error_category@std@@UBE?AV?$basic_string@DU?$char_traits@D@std@@V?$allocator@D@2@@2@H@Z ENDP ; std::_Iostream_error_category::message
_TEXT	ENDS
; Function compile flags: /Odtp
; File c:\program files (x86)\microsoft visual studio 11.0\vc\include\system_error
;	COMDAT ?name@_Iostream_error_category@std@@UBEPBDXZ
_TEXT	SEGMENT
_this$ = -4						; size = 4
?name@_Iostream_error_category@std@@UBEPBDXZ PROC	; std::_Iostream_error_category::name, COMDAT
; _this$ = ecx

; 606  : 		{	// get name of category

	push	ebp
	mov	ebp, esp
	push	ecx
	mov	DWORD PTR _this$[ebp], ecx

; 607  : 		return ("iostream");

	mov	eax, OFFSET ??_C@_08LLGCOLLL@iostream?$AA@

; 608  : 		}

	mov	esp, ebp
	pop	ebp
	ret	0
?name@_Iostream_error_category@std@@UBEPBDXZ ENDP	; std::_Iostream_error_category::name
_TEXT	ENDS
; Function compile flags: /Odtp
; File c:\program files (x86)\microsoft visual studio 11.0\vc\include\system_error
;	COMDAT ??0_Iostream_error_category@std@@QAE@XZ
_TEXT	SEGMENT
_this$ = -4						; size = 4
??0_Iostream_error_category@std@@QAE@XZ PROC		; std::_Iostream_error_category::_Iostream_error_category, COMDAT
; _this$ = ecx

; 601  : 	_Iostream_error_category()

	push	ebp
	mov	ebp, esp
	push	ecx
	mov	DWORD PTR _this$[ebp], ecx
	mov	ecx, DWORD PTR _this$[ebp]
	call	??0_Generic_error_category@std@@QAE@XZ	; std::_Generic_error_category::_Generic_error_category
	mov	eax, DWORD PTR _this$[ebp]
	mov	DWORD PTR [eax], OFFSET ??_7_Iostream_error_category@std@@6B@

; 602  : 		{	// default constructor
; 603  : 		}

	mov	eax, DWORD PTR _this$[ebp]
	mov	esp, ebp
	pop	ebp
	ret	0
??0_Iostream_error_category@std@@QAE@XZ ENDP		; std::_Iostream_error_category::_Iostream_error_category
_TEXT	ENDS
; Function compile flags: /Odtp
;	COMDAT ??_G_Generic_error_category@std@@UAEPAXI@Z
_TEXT	SEGMENT
_this$ = -4						; size = 4
___flags$ = 8						; size = 4
??_G_Generic_error_category@std@@UAEPAXI@Z PROC		; std::_Generic_error_category::`scalar deleting destructor', COMDAT
; _this$ = ecx
	push	ebp
	mov	ebp, esp
	push	ecx
	mov	DWORD PTR _this$[ebp], ecx
	mov	ecx, DWORD PTR _this$[ebp]
	call	??1_Generic_error_category@std@@UAE@XZ
	mov	eax, DWORD PTR ___flags$[ebp]
	and	eax, 1
	je	SHORT $LN1@scalar
	mov	ecx, DWORD PTR _this$[ebp]
	push	ecx
	call	??3@YAXPAX@Z				; operator delete
	add	esp, 4
$LN1@scalar:
	mov	eax, DWORD PTR _this$[ebp]
	mov	esp, ebp
	pop	ebp
	ret	4
??_G_Generic_error_category@std@@UAEPAXI@Z ENDP		; std::_Generic_error_category::`scalar deleting destructor'
_TEXT	ENDS
; Function compile flags: /Odtp
;	COMDAT ??1_Generic_error_category@std@@UAE@XZ
_TEXT	SEGMENT
_this$ = -4						; size = 4
??1_Generic_error_category@std@@UAE@XZ PROC		; std::_Generic_error_category::~_Generic_error_category, COMDAT
; _this$ = ecx
	push	ebp
	mov	ebp, esp
	push	ecx
	mov	DWORD PTR _this$[ebp], ecx
	mov	ecx, DWORD PTR _this$[ebp]
	call	??1error_category@std@@UAE@XZ		; std::error_category::~error_category
	mov	esp, ebp
	pop	ebp
	ret	0
??1_Generic_error_category@std@@UAE@XZ ENDP		; std::_Generic_error_category::~_Generic_error_category
_TEXT	ENDS
; Function compile flags: /Odtp
; File c:\program files (x86)\microsoft visual studio 11.0\vc\include\system_error
;	COMDAT ?message@_Generic_error_category@std@@UBE?AV?$basic_string@DU?$char_traits@D@std@@V?$allocator@D@2@@2@H@Z
_TEXT	SEGMENT
_this$ = -16						; size = 4
$T1 = -12						; size = 4
tv69 = -8						; size = 4
__Name$ = -4						; size = 4
___$ReturnUdt$ = 8					; size = 4
__Errcode$ = 12						; size = 4
?message@_Generic_error_category@std@@UBE?AV?$basic_string@DU?$char_traits@D@std@@V?$allocator@D@2@@2@H@Z PROC ; std::_Generic_error_category::message, COMDAT
; _this$ = ecx

; 590  : 		{	// convert to name of error

	push	ebp
	mov	ebp, esp
	sub	esp, 16					; 00000010H
	mov	DWORD PTR _this$[ebp], ecx
	mov	DWORD PTR $T1[ebp], 0

; 591  : 		const char *_Name = _Syserror_map(_Errcode);

	mov	eax, DWORD PTR __Errcode$[ebp]
	push	eax
	call	?_Syserror_map@std@@YAPBDH@Z		; std::_Syserror_map
	add	esp, 4
	mov	DWORD PTR __Name$[ebp], eax

; 592  : 		return (string(_Name != 0 ? _Name : "unknown error"));

	cmp	DWORD PTR __Name$[ebp], 0
	je	SHORT $LN3@message
	mov	ecx, DWORD PTR __Name$[ebp]
	mov	DWORD PTR tv69[ebp], ecx
	jmp	SHORT $LN4@message
$LN3@message:
	mov	DWORD PTR tv69[ebp], OFFSET ??_C@_0O@BFJCFAAK@unknown?5error?$AA@
$LN4@message:
	mov	edx, DWORD PTR tv69[ebp]
	push	edx
	mov	ecx, DWORD PTR ___$ReturnUdt$[ebp]
	call	??0?$basic_string@DU?$char_traits@D@std@@V?$allocator@D@2@@std@@QAE@PBD@Z ; std::basic_string<char,std::char_traits<char>,std::allocator<char> >::basic_string<char,std::char_traits<char>,std::allocator<char> >
	mov	eax, DWORD PTR $T1[ebp]
	or	eax, 1
	mov	DWORD PTR $T1[ebp], eax
	mov	eax, DWORD PTR ___$ReturnUdt$[ebp]

; 593  : 		}

	mov	esp, ebp
	pop	ebp
	ret	8
?message@_Generic_error_category@std@@UBE?AV?$basic_string@DU?$char_traits@D@std@@V?$allocator@D@2@@2@H@Z ENDP ; std::_Generic_error_category::message
_TEXT	ENDS
; Function compile flags: /Odtp
; File c:\program files (x86)\microsoft visual studio 11.0\vc\include\system_error
;	COMDAT ?name@_Generic_error_category@std@@UBEPBDXZ
_TEXT	SEGMENT
_this$ = -4						; size = 4
?name@_Generic_error_category@std@@UBEPBDXZ PROC	; std::_Generic_error_category::name, COMDAT
; _this$ = ecx

; 585  : 		{	// get name of category

	push	ebp
	mov	ebp, esp
	push	ecx
	mov	DWORD PTR _this$[ebp], ecx

; 586  : 		return ("generic");

	mov	eax, OFFSET ??_C@_07DCLBNMLN@generic?$AA@

; 587  : 		}

	mov	esp, ebp
	pop	ebp
	ret	0
?name@_Generic_error_category@std@@UBEPBDXZ ENDP	; std::_Generic_error_category::name
_TEXT	ENDS
; Function compile flags: /Odtp
; File c:\program files (x86)\microsoft visual studio 11.0\vc\include\system_error
;	COMDAT ??0_Generic_error_category@std@@QAE@XZ
_TEXT	SEGMENT
_this$ = -4						; size = 4
??0_Generic_error_category@std@@QAE@XZ PROC		; std::_Generic_error_category::_Generic_error_category, COMDAT
; _this$ = ecx

; 580  : 	_Generic_error_category()

	push	ebp
	mov	ebp, esp
	push	ecx
	mov	DWORD PTR _this$[ebp], ecx
	mov	ecx, DWORD PTR _this$[ebp]
	call	??0error_category@std@@QAE@XZ		; std::error_category::error_category
	mov	eax, DWORD PTR _this$[ebp]
	mov	DWORD PTR [eax], OFFSET ??_7_Generic_error_category@std@@6B@

; 581  : 		{	// default constructor
; 582  : 		}

	mov	eax, DWORD PTR _this$[ebp]
	mov	esp, ebp
	pop	ebp
	ret	0
??0_Generic_error_category@std@@QAE@XZ ENDP		; std::_Generic_error_category::_Generic_error_category
_TEXT	ENDS
; Function compile flags: /Odtp
; File c:\program files (x86)\microsoft visual studio 11.0\vc\include\system_error
;	COMDAT ??8error_condition@std@@QBE_NABV01@@Z
_TEXT	SEGMENT
tv78 = -8						; size = 4
_this$ = -4						; size = 4
__Right$ = 8						; size = 4
??8error_condition@std@@QBE_NABV01@@Z PROC		; std::error_condition::operator==, COMDAT
; _this$ = ecx

; 376  : 		{	// test if *this == _Right

	push	ebp
	mov	ebp, esp
	sub	esp, 8
	push	esi
	mov	DWORD PTR _this$[ebp], ecx

; 377  : 		return (category() == _Right.category()
; 378  : 			&& value() == _Right.value());

	mov	ecx, DWORD PTR __Right$[ebp]
	call	?category@error_condition@std@@QBEABVerror_category@2@XZ ; std::error_condition::category
	push	eax
	mov	ecx, DWORD PTR _this$[ebp]
	call	?category@error_condition@std@@QBEABVerror_category@2@XZ ; std::error_condition::category
	mov	ecx, eax
	call	??8error_category@std@@QBE_NABV01@@Z	; std::error_category::operator==
	movzx	eax, al
	test	eax, eax
	je	SHORT $LN3@operator
	mov	ecx, DWORD PTR _this$[ebp]
	call	?value@error_condition@std@@QBEHXZ	; std::error_condition::value
	mov	esi, eax
	mov	ecx, DWORD PTR __Right$[ebp]
	call	?value@error_condition@std@@QBEHXZ	; std::error_condition::value
	cmp	esi, eax
	jne	SHORT $LN3@operator
	mov	DWORD PTR tv78[ebp], 1
	jmp	SHORT $LN4@operator
$LN3@operator:
	mov	DWORD PTR tv78[ebp], 0
$LN4@operator:
	mov	al, BYTE PTR tv78[ebp]

; 379  : 		}

	pop	esi
	mov	esp, ebp
	pop	ebp
	ret	4
??8error_condition@std@@QBE_NABV01@@Z ENDP		; std::error_condition::operator==
_TEXT	ENDS
; Function compile flags: /Odtp
; File c:\program files (x86)\microsoft visual studio 11.0\vc\include\system_error
;	COMDAT ?category@error_condition@std@@QBEABVerror_category@2@XZ
_TEXT	SEGMENT
_this$ = -4						; size = 4
?category@error_condition@std@@QBEABVerror_category@2@XZ PROC ; std::error_condition::category, COMDAT
; _this$ = ecx

; 354  : 		{	// get category

	push	ebp
	mov	ebp, esp
	push	ecx
	mov	DWORD PTR _this$[ebp], ecx

; 355  : 		return (*_Mycat);

	mov	eax, DWORD PTR _this$[ebp]
	mov	eax, DWORD PTR [eax+4]

; 356  : 		}

	mov	esp, ebp
	pop	ebp
	ret	0
?category@error_condition@std@@QBEABVerror_category@2@XZ ENDP ; std::error_condition::category
_TEXT	ENDS
; Function compile flags: /Odtp
; File c:\program files (x86)\microsoft visual studio 11.0\vc\include\system_error
;	COMDAT ?value@error_condition@std@@QBEHXZ
_TEXT	SEGMENT
_this$ = -4						; size = 4
?value@error_condition@std@@QBEHXZ PROC			; std::error_condition::value, COMDAT
; _this$ = ecx

; 349  : 		{	// get error code

	push	ebp
	mov	ebp, esp
	push	ecx
	mov	DWORD PTR _this$[ebp], ecx

; 350  : 		return (_Myval);

	mov	eax, DWORD PTR _this$[ebp]
	mov	eax, DWORD PTR [eax]

; 351  : 		}

	mov	esp, ebp
	pop	ebp
	ret	0
?value@error_condition@std@@QBEHXZ ENDP			; std::error_condition::value
_TEXT	ENDS
; Function compile flags: /Odtp
; File c:\program files (x86)\microsoft visual studio 11.0\vc\include\system_error
;	COMDAT ??0error_condition@std@@QAE@HABVerror_category@1@@Z
_TEXT	SEGMENT
_this$ = -4						; size = 4
__Val$ = 8						; size = 4
__Cat$ = 12						; size = 4
??0error_condition@std@@QAE@HABVerror_category@1@@Z PROC ; std::error_condition::error_condition, COMDAT
; _this$ = ecx

; 316  : 		{	// construct from error code and category

	push	ebp
	mov	ebp, esp
	push	ecx
	mov	DWORD PTR _this$[ebp], ecx
	mov	eax, DWORD PTR _this$[ebp]
	mov	ecx, DWORD PTR __Val$[ebp]
	mov	DWORD PTR [eax], ecx
	mov	edx, DWORD PTR _this$[ebp]
	mov	eax, DWORD PTR __Cat$[ebp]
	mov	DWORD PTR [edx+4], eax

; 317  : 		}

	mov	eax, DWORD PTR _this$[ebp]
	mov	esp, ebp
	pop	ebp
	ret	8
??0error_condition@std@@QAE@HABVerror_category@1@@Z ENDP ; std::error_condition::error_condition
_TEXT	ENDS
; Function compile flags: /Odtp
; File c:\program files (x86)\microsoft visual studio 11.0\vc\include\system_error
;	COMDAT ?category@error_code@std@@QBEABVerror_category@2@XZ
_TEXT	SEGMENT
_this$ = -4						; size = 4
?category@error_code@std@@QBEABVerror_category@2@XZ PROC ; std::error_code::category, COMDAT
; _this$ = ecx

; 256  : 		{	// get category

	push	ebp
	mov	ebp, esp
	push	ecx
	mov	DWORD PTR _this$[ebp], ecx

; 257  : 		return (*_Mycat);

	mov	eax, DWORD PTR _this$[ebp]
	mov	eax, DWORD PTR [eax+4]

; 258  : 		}

	mov	esp, ebp
	pop	ebp
	ret	0
?category@error_code@std@@QBEABVerror_category@2@XZ ENDP ; std::error_code::category
_TEXT	ENDS
; Function compile flags: /Odtp
; File c:\program files (x86)\microsoft visual studio 11.0\vc\include\system_error
;	COMDAT ?value@error_code@std@@QBEHXZ
_TEXT	SEGMENT
_this$ = -4						; size = 4
?value@error_code@std@@QBEHXZ PROC			; std::error_code::value, COMDAT
; _this$ = ecx

; 251  : 		{	// get error code

	push	ebp
	mov	ebp, esp
	push	ecx
	mov	DWORD PTR _this$[ebp], ecx

; 252  : 		return (_Myval);

	mov	eax, DWORD PTR _this$[ebp]
	mov	eax, DWORD PTR [eax]

; 253  : 		}

	mov	esp, ebp
	pop	ebp
	ret	0
?value@error_code@std@@QBEHXZ ENDP			; std::error_code::value
_TEXT	ENDS
; Function compile flags: /Odtp
;	COMDAT ??_Gerror_category@std@@UAEPAXI@Z
_TEXT	SEGMENT
_this$ = -4						; size = 4
___flags$ = 8						; size = 4
??_Gerror_category@std@@UAEPAXI@Z PROC			; std::error_category::`scalar deleting destructor', COMDAT
; _this$ = ecx
	push	ebp
	mov	ebp, esp
	push	ecx
	mov	DWORD PTR _this$[ebp], ecx
	mov	ecx, DWORD PTR _this$[ebp]
	call	??1error_category@std@@UAE@XZ		; std::error_category::~error_category
	mov	eax, DWORD PTR ___flags$[ebp]
	and	eax, 1
	je	SHORT $LN1@scalar
	mov	ecx, DWORD PTR _this$[ebp]
	push	ecx
	call	??3@YAXPAX@Z				; operator delete
	add	esp, 4
$LN1@scalar:
	mov	eax, DWORD PTR _this$[ebp]
	mov	esp, ebp
	pop	ebp
	ret	4
??_Gerror_category@std@@UAEPAXI@Z ENDP			; std::error_category::`scalar deleting destructor'
_TEXT	ENDS
; Function compile flags: /Odtp
; File c:\program files (x86)\microsoft visual studio 11.0\vc\include\system_error
;	COMDAT ??8error_category@std@@QBE_NABV01@@Z
_TEXT	SEGMENT
_this$ = -8						; size = 4
tv65 = -4						; size = 4
__Right$ = 8						; size = 4
??8error_category@std@@QBE_NABV01@@Z PROC		; std::error_category::operator==, COMDAT
; _this$ = ecx

; 184  : 		{	// compare categories for equality

	push	ebp
	mov	ebp, esp
	sub	esp, 8
	mov	DWORD PTR _this$[ebp], ecx

; 185  : 		return (this == &_Right);

	mov	eax, DWORD PTR _this$[ebp]
	cmp	eax, DWORD PTR __Right$[ebp]
	jne	SHORT $LN3@operator
	mov	DWORD PTR tv65[ebp], 1
	jmp	SHORT $LN4@operator
$LN3@operator:
	mov	DWORD PTR tv65[ebp], 0
$LN4@operator:
	mov	al, BYTE PTR tv65[ebp]

; 186  : 		}

	mov	esp, ebp
	pop	ebp
	ret	4
??8error_category@std@@QBE_NABV01@@Z ENDP		; std::error_category::operator==
_TEXT	ENDS
; Function compile flags: /Odtp
; File c:\program files (x86)\microsoft visual studio 11.0\vc\include\system_error
;	COMDAT ?equivalent@error_category@std@@UBE_NABVerror_code@2@H@Z
_TEXT	SEGMENT
_this$ = -8						; size = 4
tv74 = -4						; size = 4
__Code$ = 8						; size = 4
__Errval$ = 12						; size = 4
?equivalent@error_category@std@@UBE_NABVerror_code@2@H@Z PROC ; std::error_category::equivalent, COMDAT
; _this$ = ecx

; 415  : 	{	// test if conditions same for this category

	push	ebp
	mov	ebp, esp
	sub	esp, 8
	mov	DWORD PTR _this$[ebp], ecx

; 416  : 	return (*this == _Code.category() && _Code.value() == _Errval);

	mov	ecx, DWORD PTR __Code$[ebp]
	call	?category@error_code@std@@QBEABVerror_category@2@XZ ; std::error_code::category
	push	eax
	mov	ecx, DWORD PTR _this$[ebp]
	call	??8error_category@std@@QBE_NABV01@@Z	; std::error_category::operator==
	movzx	eax, al
	test	eax, eax
	je	SHORT $LN3@equivalent
	mov	ecx, DWORD PTR __Code$[ebp]
	call	?value@error_code@std@@QBEHXZ		; std::error_code::value
	cmp	eax, DWORD PTR __Errval$[ebp]
	jne	SHORT $LN3@equivalent
	mov	DWORD PTR tv74[ebp], 1
	jmp	SHORT $LN4@equivalent
$LN3@equivalent:
	mov	DWORD PTR tv74[ebp], 0
$LN4@equivalent:
	mov	al, BYTE PTR tv74[ebp]

; 417  : 	}

	mov	esp, ebp
	pop	ebp
	ret	8
?equivalent@error_category@std@@UBE_NABVerror_code@2@H@Z ENDP ; std::error_category::equivalent
_TEXT	ENDS
; Function compile flags: /Odtp
; File c:\program files (x86)\microsoft visual studio 11.0\vc\include\system_error
;	COMDAT ?equivalent@error_category@std@@UBE_NHABVerror_condition@2@@Z
_TEXT	SEGMENT
$T1 = -12						; size = 8
_this$ = -4						; size = 4
__Errval$ = 8						; size = 4
__Cond$ = 12						; size = 4
?equivalent@error_category@std@@UBE_NHABVerror_condition@2@@Z PROC ; std::error_category::equivalent, COMDAT
; _this$ = ecx

; 408  : 	{	// test if error code same condition

	push	ebp
	mov	ebp, esp
	sub	esp, 12					; 0000000cH
	mov	DWORD PTR _this$[ebp], ecx

; 409  : 	return (default_error_condition(_Errval) == _Cond);

	mov	eax, DWORD PTR __Cond$[ebp]
	push	eax
	mov	ecx, DWORD PTR __Errval$[ebp]
	push	ecx
	lea	edx, DWORD PTR $T1[ebp]
	push	edx
	mov	eax, DWORD PTR _this$[ebp]
	mov	edx, DWORD PTR [eax]
	mov	ecx, DWORD PTR _this$[ebp]
	mov	eax, DWORD PTR [edx+12]
	call	eax
	mov	ecx, eax
	call	??8error_condition@std@@QBE_NABV01@@Z	; std::error_condition::operator==

; 410  : 	}

	mov	esp, ebp
	pop	ebp
	ret	8
?equivalent@error_category@std@@UBE_NHABVerror_condition@2@@Z ENDP ; std::error_category::equivalent
_TEXT	ENDS
; Function compile flags: /Odtp
; File c:\program files (x86)\microsoft visual studio 11.0\vc\include\system_error
;	COMDAT ?default_error_condition@error_category@std@@UBE?AVerror_condition@2@H@Z
_TEXT	SEGMENT
_this$ = -4						; size = 4
___$ReturnUdt$ = 8					; size = 4
__Errval$ = 12						; size = 4
?default_error_condition@error_category@std@@UBE?AVerror_condition@2@H@Z PROC ; std::error_category::default_error_condition, COMDAT
; _this$ = ecx

; 401  : 	{	// make error_condition for error code

	push	ebp
	mov	ebp, esp
	push	ecx
	mov	DWORD PTR _this$[ebp], ecx

; 402  : 	return (error_condition(_Errval, *this));

	mov	eax, DWORD PTR _this$[ebp]
	push	eax
	mov	ecx, DWORD PTR __Errval$[ebp]
	push	ecx
	mov	ecx, DWORD PTR ___$ReturnUdt$[ebp]
	call	??0error_condition@std@@QAE@HABVerror_category@1@@Z ; std::error_condition::error_condition
	mov	eax, DWORD PTR ___$ReturnUdt$[ebp]

; 403  : 	}

	mov	esp, ebp
	pop	ebp
	ret	8
?default_error_condition@error_category@std@@UBE?AVerror_condition@2@H@Z ENDP ; std::error_category::default_error_condition
_TEXT	ENDS
; Function compile flags: /Odtp
; File c:\program files (x86)\microsoft visual studio 11.0\vc\include\system_error
;	COMDAT ??1error_category@std@@UAE@XZ
_TEXT	SEGMENT
_this$ = -4						; size = 4
??1error_category@std@@UAE@XZ PROC			; std::error_category::~error_category, COMDAT
; _this$ = ecx

; 167  : 		{	// destroy the object

	push	ebp
	mov	ebp, esp
	push	ecx
	mov	DWORD PTR _this$[ebp], ecx
	mov	eax, DWORD PTR _this$[ebp]
	mov	DWORD PTR [eax], OFFSET ??_7error_category@std@@6B@

; 168  : 		}

	mov	esp, ebp
	pop	ebp
	ret	0
??1error_category@std@@UAE@XZ ENDP			; std::error_category::~error_category
_TEXT	ENDS
; Function compile flags: /Odtp
; File c:\program files (x86)\microsoft visual studio 11.0\vc\include\system_error
;	COMDAT ??0error_category@std@@QAE@XZ
_TEXT	SEGMENT
_this$ = -4						; size = 4
??0error_category@std@@QAE@XZ PROC			; std::error_category::error_category, COMDAT
; _this$ = ecx

; 162  : 	error_category()

	push	ebp
	mov	ebp, esp
	push	ecx
	mov	DWORD PTR _this$[ebp], ecx
	mov	eax, DWORD PTR _this$[ebp]
	mov	DWORD PTR [eax], OFFSET ??_7error_category@std@@6B@

; 163  : 		{	// default constructor
; 164  : 		}

	mov	eax, DWORD PTR _this$[ebp]
	mov	esp, ebp
	pop	ebp
	ret	0
??0error_category@std@@QAE@XZ ENDP			; std::error_category::error_category
_TEXT	ENDS
; Function compile flags: /Odtp
; File c:\program files (x86)\microsoft visual studio 11.0\vc\include\system_error
;	COMDAT ?system_category@std@@YAABVerror_category@1@XZ
_TEXT	SEGMENT
?system_category@std@@YAABVerror_category@1@XZ PROC	; std::system_category, COMDAT

; 679  : 	{	// get system_category

	push	ebp
	mov	ebp, esp

; 680  : 	return (_Error_objects<int>::_System_object);

	mov	eax, OFFSET ?_System_object@?$_Error_objects@H@std@@2V_System_error_category@2@A ; std::_Error_objects<int>::_System_object

; 681  : 	}

	pop	ebp
	ret	0
?system_category@std@@YAABVerror_category@1@XZ ENDP	; std::system_category
_TEXT	ENDS
; Function compile flags: /Odtp
; File c:\program files (x86)\microsoft visual studio 11.0\vc\include\system_error
;	COMDAT ?generic_category@std@@YAABVerror_category@1@XZ
_TEXT	SEGMENT
?generic_category@std@@YAABVerror_category@1@XZ PROC	; std::generic_category, COMDAT

; 669  : 	{	// get generic_category

	push	ebp
	mov	ebp, esp

; 670  : 	return (_Error_objects<int>::_Generic_object);

	mov	eax, OFFSET ?_Generic_object@?$_Error_objects@H@std@@2V_Generic_error_category@2@A ; std::_Error_objects<int>::_Generic_object

; 671  : 	}

	pop	ebp
	ret	0
?generic_category@std@@YAABVerror_category@1@XZ ENDP	; std::generic_category
_TEXT	ENDS
; Function compile flags: /Odtp
; File c:\program files (x86)\microsoft visual studio 11.0\vc\include\xlocale
;	COMDAT ??0id@locale@std@@QAE@I@Z
_TEXT	SEGMENT
_this$ = -4						; size = 4
__Val$ = 8						; size = 4
??0id@locale@std@@QAE@I@Z PROC				; std::locale::id::id, COMDAT
; _this$ = ecx

; 74   : 			{	// construct with specified stamp value

	push	ebp
	mov	ebp, esp
	push	ecx
	mov	DWORD PTR _this$[ebp], ecx
	mov	eax, DWORD PTR _this$[ebp]
	mov	ecx, DWORD PTR __Val$[ebp]
	mov	DWORD PTR [eax], ecx

; 75   : 			}

	mov	eax, DWORD PTR _this$[ebp]
	mov	esp, ebp
	pop	ebp
	ret	4
??0id@locale@std@@QAE@I@Z ENDP				; std::locale::id::id
_TEXT	ENDS
; Function compile flags: /Odtp
; File c:\program files (x86)\microsoft visual studio 11.0\vc\include\xstring
;	COMDAT ?_Xran@?$basic_string@DU?$char_traits@D@std@@V?$allocator@D@2@@std@@QBEXXZ
_TEXT	SEGMENT
_this$ = -4						; size = 4
?_Xran@?$basic_string@DU?$char_traits@D@std@@V?$allocator@D@2@@std@@QBEXXZ PROC ; std::basic_string<char,std::char_traits<char>,std::allocator<char> >::_Xran, COMDAT
; _this$ = ecx

; 2275 : 		{	// report an out_of_range error

	push	ebp
	mov	ebp, esp
	push	ecx
	mov	DWORD PTR _this$[ebp], ecx

; 2276 : 		_Xout_of_range("invalid string position");

	push	OFFSET ??_C@_0BI@CFPLBAOH@invalid?5string?5position?$AA@
	call	?_Xout_of_range@std@@YAXPBD@Z		; std::_Xout_of_range
$LN2@Xran:

; 2277 : 		}

	mov	esp, ebp
	pop	ebp
	ret	0
?_Xran@?$basic_string@DU?$char_traits@D@std@@V?$allocator@D@2@@std@@QBEXXZ ENDP ; std::basic_string<char,std::char_traits<char>,std::allocator<char> >::_Xran
_TEXT	ENDS
; Function compile flags: /Odtp
; File c:\program files (x86)\microsoft visual studio 11.0\vc\include\xstring
;	COMDAT ?_Xlen@?$basic_string@DU?$char_traits@D@std@@V?$allocator@D@2@@std@@QBEXXZ
_TEXT	SEGMENT
_this$ = -4						; size = 4
?_Xlen@?$basic_string@DU?$char_traits@D@std@@V?$allocator@D@2@@std@@QBEXXZ PROC ; std::basic_string<char,std::char_traits<char>,std::allocator<char> >::_Xlen, COMDAT
; _this$ = ecx

; 2270 : 		{	// report a length_error

	push	ebp
	mov	ebp, esp
	push	ecx
	mov	DWORD PTR _this$[ebp], ecx

; 2271 : 		_Xlength_error("string too long");

	push	OFFSET ??_C@_0BA@JFNIOLAK@string?5too?5long?$AA@
	call	?_Xlength_error@std@@YAXPBD@Z		; std::_Xlength_error
$LN2@Xlen:

; 2272 : 		}

	mov	esp, ebp
	pop	ebp
	ret	0
?_Xlen@?$basic_string@DU?$char_traits@D@std@@V?$allocator@D@2@@std@@QBEXXZ ENDP ; std::basic_string<char,std::char_traits<char>,std::allocator<char> >::_Xlen
_TEXT	ENDS
; Function compile flags: /Odtp
; File c:\program files (x86)\microsoft visual studio 11.0\vc\include\xstring
;	COMDAT ?_Tidy@?$basic_string@DU?$char_traits@D@std@@V?$allocator@D@2@@std@@QAEX_NI@Z
_TEXT	SEGMENT
__Ptr$1 = -12						; size = 4
_this$ = -8						; size = 4
$T2 = -2						; size = 1
$T3 = -1						; size = 1
__Built$ = 8						; size = 1
__Newsize$ = 12						; size = 4
?_Tidy@?$basic_string@DU?$char_traits@D@std@@V?$allocator@D@2@@std@@QAEX_NI@Z PROC ; std::basic_string<char,std::char_traits<char>,std::allocator<char> >::_Tidy, COMDAT
; _this$ = ecx

; 2253 : 		{	// initialize buffer, deallocating any storage

	push	ebp
	mov	ebp, esp
	sub	esp, 12					; 0000000cH
	mov	DWORD PTR _this$[ebp], ecx

; 2254 : 		if (!_Built)

	movzx	eax, BYTE PTR __Built$[ebp]
	test	eax, eax
	jne	SHORT $LN4@Tidy
	jmp	SHORT $LN3@Tidy
$LN4@Tidy:

; 2255 : 			;
; 2256 : 		else if (this->_BUF_SIZE <= this->_Myres)

	mov	ecx, DWORD PTR _this$[ebp]
	cmp	DWORD PTR [ecx+20], 16			; 00000010H
	jb	SHORT $LN3@Tidy

; 2257 : 			{	// copy any leftovers to small buffer and deallocate
; 2258 : 			pointer _Ptr = this->_Bx._Ptr;

	mov	edx, DWORD PTR _this$[ebp]
	mov	eax, DWORD PTR [edx]
	mov	DWORD PTR __Ptr$1[ebp], eax

; 2259 : 			this->_Getal().destroy(&this->_Bx._Ptr);

	mov	ecx, DWORD PTR _this$[ebp]
	push	ecx
	lea	edx, DWORD PTR $T3[ebp]
	push	edx
	mov	ecx, DWORD PTR _this$[ebp]
	call	?_Getal@?$_String_alloc@$0A@U?$_String_base_types@DV?$allocator@D@std@@@std@@@std@@QBE?AU?$_Wrap_alloc@V?$allocator@D@std@@@2@XZ ; std::_String_alloc<0,std::_String_base_types<char,std::allocator<char> > >::_Getal
	mov	ecx, eax
	call	??$destroy@PAD@?$_Wrap_alloc@V?$allocator@D@std@@@std@@QAEXPAPAD@Z ; std::_Wrap_alloc<std::allocator<char> >::destroy<char *>

; 2260 : 			if (0 < _Newsize)

	cmp	DWORD PTR __Newsize$[ebp], 0
	jbe	SHORT $LN1@Tidy

; 2261 : 				_Traits::copy(this->_Bx._Buf,
; 2262 : 					_STD addressof(*_Ptr), _Newsize);

	mov	eax, DWORD PTR __Newsize$[ebp]
	push	eax
	mov	ecx, DWORD PTR __Ptr$1[ebp]
	push	ecx
	call	??$addressof@D@std@@YAPADAAD@Z		; std::addressof<char>
	add	esp, 4
	push	eax
	mov	edx, DWORD PTR _this$[ebp]
	push	edx
	call	?copy@?$char_traits@D@std@@SAPADPADPBDI@Z ; std::char_traits<char>::copy
	add	esp, 12					; 0000000cH
$LN1@Tidy:

; 2263 : 			this->_Getal().deallocate(_Ptr, this->_Myres + 1);

	mov	eax, DWORD PTR _this$[ebp]
	mov	ecx, DWORD PTR [eax+20]
	add	ecx, 1
	push	ecx
	mov	edx, DWORD PTR __Ptr$1[ebp]
	push	edx
	lea	eax, DWORD PTR $T2[ebp]
	push	eax
	mov	ecx, DWORD PTR _this$[ebp]
	call	?_Getal@?$_String_alloc@$0A@U?$_String_base_types@DV?$allocator@D@std@@@std@@@std@@QBE?AU?$_Wrap_alloc@V?$allocator@D@std@@@2@XZ ; std::_String_alloc<0,std::_String_base_types<char,std::allocator<char> > >::_Getal
	mov	ecx, eax
	call	?deallocate@?$_Wrap_alloc@V?$allocator@D@std@@@std@@QAEXPADI@Z ; std::_Wrap_alloc<std::allocator<char> >::deallocate
$LN3@Tidy:

; 2264 : 			}
; 2265 : 		this->_Myres = this->_BUF_SIZE - 1;

	mov	ecx, DWORD PTR _this$[ebp]
	mov	DWORD PTR [ecx+20], 15			; 0000000fH

; 2266 : 		_Eos(_Newsize);

	mov	edx, DWORD PTR __Newsize$[ebp]
	push	edx
	mov	ecx, DWORD PTR _this$[ebp]
	call	?_Eos@?$basic_string@DU?$char_traits@D@std@@V?$allocator@D@2@@std@@QAEXI@Z ; std::basic_string<char,std::char_traits<char>,std::allocator<char> >::_Eos

; 2267 : 		}

	mov	esp, ebp
	pop	ebp
	ret	8
?_Tidy@?$basic_string@DU?$char_traits@D@std@@V?$allocator@D@2@@std@@QAEX_NI@Z ENDP ; std::basic_string<char,std::char_traits<char>,std::allocator<char> >::_Tidy
_TEXT	ENDS
; Function compile flags: /Odtp
; File c:\program files (x86)\microsoft visual studio 11.0\vc\include\xstring
;	COMDAT ?_Inside@?$basic_string@DU?$char_traits@D@std@@V?$allocator@D@2@@std@@QAE_NPBD@Z
_TEXT	SEGMENT
_this$ = -4						; size = 4
__Ptr$ = 8						; size = 4
?_Inside@?$basic_string@DU?$char_traits@D@std@@V?$allocator@D@2@@std@@QAE_NPBD@Z PROC ; std::basic_string<char,std::char_traits<char>,std::allocator<char> >::_Inside, COMDAT
; _this$ = ecx

; 2237 : 		{	// test if _Ptr points inside string

	push	ebp
	mov	ebp, esp
	push	ecx
	mov	DWORD PTR _this$[ebp], ecx

; 2238 : 		if (_Ptr == 0 || _Ptr < this->_Myptr()
; 2239 : 			|| this->_Myptr() + this->_Mysize <= _Ptr)

	cmp	DWORD PTR __Ptr$[ebp], 0
	je	SHORT $LN2@Inside
	mov	ecx, DWORD PTR _this$[ebp]
	call	?_Myptr@?$_String_val@U?$_Simple_types@D@std@@@std@@QAEPADXZ ; std::_String_val<std::_Simple_types<char> >::_Myptr
	cmp	DWORD PTR __Ptr$[ebp], eax
	jb	SHORT $LN2@Inside
	mov	ecx, DWORD PTR _this$[ebp]
	call	?_Myptr@?$_String_val@U?$_Simple_types@D@std@@@std@@QAEPADXZ ; std::_String_val<std::_Simple_types<char> >::_Myptr
	mov	ecx, DWORD PTR _this$[ebp]
	add	eax, DWORD PTR [ecx+16]
	cmp	eax, DWORD PTR __Ptr$[ebp]
	ja	SHORT $LN3@Inside
$LN2@Inside:

; 2240 : 			return (false);	// don't ask

	xor	al, al
	jmp	SHORT $LN4@Inside

; 2241 : 		else

	jmp	SHORT $LN4@Inside
$LN3@Inside:

; 2242 : 			return (true);

	mov	al, 1
$LN4@Inside:

; 2243 : 		}

	mov	esp, ebp
	pop	ebp
	ret	4
?_Inside@?$basic_string@DU?$char_traits@D@std@@V?$allocator@D@2@@std@@QAE_NPBD@Z ENDP ; std::basic_string<char,std::char_traits<char>,std::allocator<char> >::_Inside
_TEXT	ENDS
; Function compile flags: /Odtp
; File c:\program files (x86)\microsoft visual studio 11.0\vc\include\xstring
;	COMDAT ?_Grow@?$basic_string@DU?$char_traits@D@std@@V?$allocator@D@2@@std@@QAE_NI_N@Z
_TEXT	SEGMENT
tv136 = -12						; size = 4
tv129 = -8						; size = 4
_this$ = -4						; size = 4
__Newsize$ = 8						; size = 4
__Trim$ = 12						; size = 1
?_Grow@?$basic_string@DU?$char_traits@D@std@@V?$allocator@D@2@@std@@QAE_NI_N@Z PROC ; std::basic_string<char,std::char_traits<char>,std::allocator<char> >::_Grow, COMDAT
; _this$ = ecx

; 2223 : 		{	// ensure buffer is big enough, trim to size if _Trim is true

	push	ebp
	mov	ebp, esp
	sub	esp, 12					; 0000000cH
	mov	DWORD PTR _this$[ebp], ecx

; 2224 : 		if (max_size() < _Newsize)

	mov	ecx, DWORD PTR _this$[ebp]
	call	?max_size@?$basic_string@DU?$char_traits@D@std@@V?$allocator@D@2@@std@@QBEIXZ ; std::basic_string<char,std::char_traits<char>,std::allocator<char> >::max_size
	cmp	eax, DWORD PTR __Newsize$[ebp]
	jae	SHORT $LN6@Grow

; 2225 : 			_Xlen();	// result too long

	mov	ecx, DWORD PTR _this$[ebp]
	call	?_Xlen@?$basic_string@DU?$char_traits@D@std@@V?$allocator@D@2@@std@@QBEXXZ ; std::basic_string<char,std::char_traits<char>,std::allocator<char> >::_Xlen
$LN6@Grow:

; 2226 : 		if (this->_Myres < _Newsize)

	mov	eax, DWORD PTR _this$[ebp]
	mov	ecx, DWORD PTR [eax+20]
	cmp	ecx, DWORD PTR __Newsize$[ebp]
	jae	SHORT $LN5@Grow

; 2227 : 			_Copy(_Newsize, this->_Mysize);	// reallocate to grow

	mov	edx, DWORD PTR _this$[ebp]
	mov	eax, DWORD PTR [edx+16]
	push	eax
	mov	ecx, DWORD PTR __Newsize$[ebp]
	push	ecx
	mov	ecx, DWORD PTR _this$[ebp]
	call	?_Copy@?$basic_string@DU?$char_traits@D@std@@V?$allocator@D@2@@std@@QAEXII@Z ; std::basic_string<char,std::char_traits<char>,std::allocator<char> >::_Copy
	jmp	SHORT $LN4@Grow
$LN5@Grow:

; 2228 : 		else if (_Trim && _Newsize < this->_BUF_SIZE)

	movzx	edx, BYTE PTR __Trim$[ebp]
	test	edx, edx
	je	SHORT $LN3@Grow
	cmp	DWORD PTR __Newsize$[ebp], 16		; 00000010H
	jae	SHORT $LN3@Grow

; 2229 : 			_Tidy(true,	// copy and deallocate if trimming to small string
; 2230 : 				_Newsize < this->_Mysize ? _Newsize : this->_Mysize);

	mov	eax, DWORD PTR _this$[ebp]
	mov	ecx, DWORD PTR __Newsize$[ebp]
	cmp	ecx, DWORD PTR [eax+16]
	jae	SHORT $LN9@Grow
	mov	edx, DWORD PTR __Newsize$[ebp]
	mov	DWORD PTR tv129[ebp], edx
	jmp	SHORT $LN10@Grow
$LN9@Grow:
	mov	eax, DWORD PTR _this$[ebp]
	mov	ecx, DWORD PTR [eax+16]
	mov	DWORD PTR tv129[ebp], ecx
$LN10@Grow:
	mov	edx, DWORD PTR tv129[ebp]
	push	edx
	push	1
	mov	ecx, DWORD PTR _this$[ebp]
	call	?_Tidy@?$basic_string@DU?$char_traits@D@std@@V?$allocator@D@2@@std@@QAEX_NI@Z ; std::basic_string<char,std::char_traits<char>,std::allocator<char> >::_Tidy
	jmp	SHORT $LN4@Grow
$LN3@Grow:

; 2231 : 		else if (_Newsize == 0)

	cmp	DWORD PTR __Newsize$[ebp], 0
	jne	SHORT $LN4@Grow

; 2232 : 			_Eos(0);	// new size is zero, just null terminate

	push	0
	mov	ecx, DWORD PTR _this$[ebp]
	call	?_Eos@?$basic_string@DU?$char_traits@D@std@@V?$allocator@D@2@@std@@QAEXI@Z ; std::basic_string<char,std::char_traits<char>,std::allocator<char> >::_Eos
$LN4@Grow:

; 2233 : 		return (0 < _Newsize);	// return true only if more work to do

	cmp	DWORD PTR __Newsize$[ebp], 0
	jbe	SHORT $LN11@Grow
	mov	DWORD PTR tv136[ebp], 1
	jmp	SHORT $LN12@Grow
$LN11@Grow:
	mov	DWORD PTR tv136[ebp], 0
$LN12@Grow:
	mov	al, BYTE PTR tv136[ebp]
$LN8@Grow:

; 2234 : 		}

	mov	esp, ebp
	pop	ebp
	ret	8
?_Grow@?$basic_string@DU?$char_traits@D@std@@V?$allocator@D@2@@std@@QAE_NI_N@Z ENDP ; std::basic_string<char,std::char_traits<char>,std::allocator<char> >::_Grow
_TEXT	ENDS
; Function compile flags: /Odtp
; File c:\program files (x86)\microsoft visual studio 11.0\vc\include\xstring
;	COMDAT ?_Eos@?$basic_string@DU?$char_traits@D@std@@V?$allocator@D@2@@std@@QAEXI@Z
_TEXT	SEGMENT
_this$ = -8						; size = 4
$T1 = -1						; size = 1
__Newsize$ = 8						; size = 4
?_Eos@?$basic_string@DU?$char_traits@D@std@@V?$allocator@D@2@@std@@QAEXI@Z PROC ; std::basic_string<char,std::char_traits<char>,std::allocator<char> >::_Eos, COMDAT
; _this$ = ecx

; 2217 : 		{	// set new length and null terminator

	push	ebp
	mov	ebp, esp
	sub	esp, 8
	mov	DWORD PTR _this$[ebp], ecx

; 2218 : 		_Traits::assign(this->_Myptr()[this->_Mysize = _Newsize], _Elem());

	mov	BYTE PTR $T1[ebp], 0
	mov	eax, DWORD PTR _this$[ebp]
	mov	ecx, DWORD PTR __Newsize$[ebp]
	mov	DWORD PTR [eax+16], ecx
	lea	edx, DWORD PTR $T1[ebp]
	push	edx
	mov	ecx, DWORD PTR _this$[ebp]
	call	?_Myptr@?$_String_val@U?$_Simple_types@D@std@@@std@@QAEPADXZ ; std::_String_val<std::_Simple_types<char> >::_Myptr
	add	eax, DWORD PTR __Newsize$[ebp]
	push	eax
	call	?assign@?$char_traits@D@std@@SAXAADABD@Z ; std::char_traits<char>::assign
	add	esp, 8

; 2219 : 		}

	mov	esp, ebp
	pop	ebp
	ret	4
?_Eos@?$basic_string@DU?$char_traits@D@std@@V?$allocator@D@2@@std@@QAEXI@Z ENDP ; std::basic_string<char,std::char_traits<char>,std::allocator<char> >::_Eos
_TEXT	ENDS
; Function compile flags: /Odtp
; File c:\program files (x86)\microsoft visual studio 11.0\vc\include\xstring
;	COMDAT ?_Copy@?$basic_string@DU?$char_traits@D@std@@V?$allocator@D@2@@std@@QAEXII@Z
_TEXT	SEGMENT
tv205 = -48						; size = 4
tv204 = -44						; size = 4
tv203 = -40						; size = 4
tv202 = -36						; size = 4
__Ptr$ = -32						; size = 4
__Newres$ = -28						; size = 4
_this$ = -24						; size = 4
$T2 = -19						; size = 1
$T3 = -18						; size = 1
$T4 = -17						; size = 1
__$EHRec$ = -16						; size = 16
__Newsize$ = 8						; size = 4
__Oldlen$ = 12						; size = 4
?_Copy@?$basic_string@DU?$char_traits@D@std@@V?$allocator@D@2@@std@@QAEXII@Z PROC ; std::basic_string<char,std::char_traits<char>,std::allocator<char> >::_Copy, COMDAT
; _this$ = ecx

; 2182 : 		{	// copy _Oldlen elements to newly allocated buffer

	push	ebp
	mov	ebp, esp
	push	-1
	push	__ehhandler$?_Copy@?$basic_string@DU?$char_traits@D@std@@V?$allocator@D@2@@std@@QAEXII@Z
	mov	eax, DWORD PTR fs:0
	push	eax
	push	ecx
	sub	esp, 32					; 00000020H
	push	ebx
	push	esi
	push	edi
	mov	eax, DWORD PTR ___security_cookie
	xor	eax, ebp
	push	eax
	lea	eax, DWORD PTR __$EHRec$[ebp+4]
	mov	DWORD PTR fs:0, eax
	mov	DWORD PTR __$EHRec$[ebp], esp
	mov	DWORD PTR _this$[ebp], ecx

; 2183 : 		size_type _Newres = _Newsize | this->_ALLOC_MASK;

	mov	eax, DWORD PTR __Newsize$[ebp]
	or	eax, 15					; 0000000fH
	mov	DWORD PTR __Newres$[ebp], eax

; 2184 : 		if (max_size() < _Newres)

	mov	ecx, DWORD PTR _this$[ebp]
	call	?max_size@?$basic_string@DU?$char_traits@D@std@@V?$allocator@D@2@@std@@QBEIXZ ; std::basic_string<char,std::char_traits<char>,std::allocator<char> >::max_size
	cmp	eax, DWORD PTR __Newres$[ebp]
	jae	SHORT $LN9@Copy

; 2185 : 			_Newres = _Newsize;	// undo roundup if too big

	mov	ecx, DWORD PTR __Newsize$[ebp]
	mov	DWORD PTR __Newres$[ebp], ecx
	jmp	SHORT $LN8@Copy
$LN9@Copy:

; 2186 : 		else if (this->_Myres / 2 <= _Newres / 3)

	mov	eax, DWORD PTR __Newres$[ebp]
	xor	edx, edx
	mov	ecx, 3
	div	ecx
	mov	edx, DWORD PTR _this$[ebp]
	mov	ecx, DWORD PTR [edx+20]
	shr	ecx, 1
	cmp	ecx, eax
	ja	SHORT $LN7@Copy
	jmp	SHORT $LN8@Copy
$LN7@Copy:

; 2187 : 			;
; 2188 : 		else if (this->_Myres <= max_size() - this->_Myres / 2)

	mov	edx, DWORD PTR _this$[ebp]
	mov	esi, DWORD PTR [edx+20]
	shr	esi, 1
	mov	ecx, DWORD PTR _this$[ebp]
	call	?max_size@?$basic_string@DU?$char_traits@D@std@@V?$allocator@D@2@@std@@QBEIXZ ; std::basic_string<char,std::char_traits<char>,std::allocator<char> >::max_size
	sub	eax, esi
	mov	ecx, DWORD PTR _this$[ebp]
	cmp	DWORD PTR [ecx+20], eax
	ja	SHORT $LN5@Copy

; 2189 : 			_Newres = this->_Myres
; 2190 : 				+ this->_Myres / 2;	// grow exponentially if possible

	mov	edx, DWORD PTR _this$[ebp]
	mov	eax, DWORD PTR [edx+20]
	shr	eax, 1
	mov	ecx, DWORD PTR _this$[ebp]
	add	eax, DWORD PTR [ecx+20]
	mov	DWORD PTR __Newres$[ebp], eax

; 2191 : 		else

	jmp	SHORT $LN8@Copy
$LN5@Copy:

; 2192 : 			_Newres = max_size();	// settle for max_size()

	mov	ecx, DWORD PTR _this$[ebp]
	call	?max_size@?$basic_string@DU?$char_traits@D@std@@V?$allocator@D@2@@std@@QBEIXZ ; std::basic_string<char,std::char_traits<char>,std::allocator<char> >::max_size
	mov	DWORD PTR __Newres$[ebp], eax
$LN8@Copy:

; 2193 : 
; 2194 : 		_Elem *_Ptr;
; 2195 : 		_TRY_BEGIN

	mov	DWORD PTR __$EHRec$[ebp+12], 0

; 2196 : 			_Ptr = this->_Getal().allocate(_Newres + 1);

	lea	edx, DWORD PTR $T4[ebp]
	push	edx
	mov	ecx, DWORD PTR _this$[ebp]
	call	?_Getal@?$_String_alloc@$0A@U?$_String_base_types@DV?$allocator@D@std@@@std@@@std@@QBE?AU?$_Wrap_alloc@V?$allocator@D@std@@@2@XZ ; std::_String_alloc<0,std::_String_base_types<char,std::allocator<char> > >::_Getal
	mov	DWORD PTR tv202[ebp], eax
	mov	eax, DWORD PTR __Newres$[ebp]
	add	eax, 1
	push	eax
	mov	ecx, DWORD PTR tv202[ebp]
	call	?allocate@?$_Wrap_alloc@V?$allocator@D@std@@@std@@QAEPADI@Z ; std::_Wrap_alloc<std::allocator<char> >::allocate
	mov	DWORD PTR tv203[ebp], eax
	mov	ecx, DWORD PTR tv203[ebp]
	mov	DWORD PTR __Ptr$[ebp], ecx
	jmp	SHORT $LN12@Copy
__catch$?_Copy@?$basic_string@DU?$char_traits@D@std@@V?$allocator@D@2@@std@@QAEXII@Z$0:

; 2197 : 		_CATCH_ALL

	mov	DWORD PTR __$EHRec$[ebp], esp

; 2198 : 			_Newres = _Newsize;	// allocation failed, undo roundup and retry

	mov	edx, DWORD PTR __Newsize$[ebp]
	mov	DWORD PTR __Newres$[ebp], edx

; 2199 : 			_TRY_BEGIN

	mov	BYTE PTR __$EHRec$[ebp+12], 2

; 2200 : 				_Ptr = this->_Getal().allocate(_Newres + 1);

	lea	eax, DWORD PTR $T3[ebp]
	push	eax
	mov	ecx, DWORD PTR _this$[ebp]
	call	?_Getal@?$_String_alloc@$0A@U?$_String_base_types@DV?$allocator@D@std@@@std@@@std@@QBE?AU?$_Wrap_alloc@V?$allocator@D@std@@@2@XZ ; std::_String_alloc<0,std::_String_base_types<char,std::allocator<char> > >::_Getal
	mov	DWORD PTR tv204[ebp], eax
	mov	ecx, DWORD PTR __Newres$[ebp]
	add	ecx, 1
	push	ecx
	mov	ecx, DWORD PTR tv204[ebp]
	call	?allocate@?$_Wrap_alloc@V?$allocator@D@std@@@std@@QAEPADI@Z ; std::_Wrap_alloc<std::allocator<char> >::allocate
	mov	DWORD PTR tv205[ebp], eax
	mov	edx, DWORD PTR tv205[ebp]
	mov	DWORD PTR __Ptr$[ebp], edx
	jmp	SHORT $LN14@Copy
__catch$?_Copy@?$basic_string@DU?$char_traits@D@std@@V?$allocator@D@2@@std@@QAEXII@Z$1:

; 2201 : 			_CATCH_ALL
; 2202 : 			_Tidy(true);	// failed again, discard storage and reraise

	push	0
	push	1
	mov	ecx, DWORD PTR _this$[ebp]
	call	?_Tidy@?$basic_string@DU?$char_traits@D@std@@V?$allocator@D@2@@std@@QAEX_NI@Z ; std::basic_string<char,std::char_traits<char>,std::allocator<char> >::_Tidy

; 2203 : 			_RERAISE;

	push	0
	push	0
	call	__CxxThrowException@8

; 2204 : 			_CATCH_END

	mov	eax, $LN17@Copy
	ret	0
$LN14@Copy:
	mov	DWORD PTR __$EHRec$[ebp+12], 1
	jmp	SHORT __tryend$?_Copy@?$basic_string@DU?$char_traits@D@std@@V?$allocator@D@2@@std@@QAEXII@Z$2
$LN17@Copy:
	mov	DWORD PTR __$EHRec$[ebp+12], 1
__tryend$?_Copy@?$basic_string@DU?$char_traits@D@std@@V?$allocator@D@2@@std@@QAEXII@Z$2:

; 2205 : 		_CATCH_END

	mov	eax, $LN19@Copy
	ret	0
$LN12@Copy:
	mov	DWORD PTR __$EHRec$[ebp+12], -1
	jmp	SHORT __tryend$?_Copy@?$basic_string@DU?$char_traits@D@std@@V?$allocator@D@2@@std@@QAEXII@Z$3
$LN19@Copy:
	mov	DWORD PTR __$EHRec$[ebp+12], -1
__tryend$?_Copy@?$basic_string@DU?$char_traits@D@std@@V?$allocator@D@2@@std@@QAEXII@Z$3:

; 2206 : 
; 2207 : 		if (0 < _Oldlen)

	cmp	DWORD PTR __Oldlen$[ebp], 0
	jbe	SHORT $LN1@Copy

; 2208 : 			_Traits::copy(_Ptr, this->_Myptr(),
; 2209 : 				_Oldlen);	// copy existing elements

	mov	eax, DWORD PTR __Oldlen$[ebp]
	push	eax
	mov	ecx, DWORD PTR _this$[ebp]
	call	?_Myptr@?$_String_val@U?$_Simple_types@D@std@@@std@@QAEPADXZ ; std::_String_val<std::_Simple_types<char> >::_Myptr
	push	eax
	mov	ecx, DWORD PTR __Ptr$[ebp]
	push	ecx
	call	?copy@?$char_traits@D@std@@SAPADPADPBDI@Z ; std::char_traits<char>::copy
	add	esp, 12					; 0000000cH
$LN1@Copy:

; 2210 : 		_Tidy(true);

	push	0
	push	1
	mov	ecx, DWORD PTR _this$[ebp]
	call	?_Tidy@?$basic_string@DU?$char_traits@D@std@@V?$allocator@D@2@@std@@QAEX_NI@Z ; std::basic_string<char,std::char_traits<char>,std::allocator<char> >::_Tidy

; 2211 : 		this->_Getal().construct(&this->_Bx._Ptr, _Ptr);

	lea	edx, DWORD PTR __Ptr$[ebp]
	push	edx
	mov	eax, DWORD PTR _this$[ebp]
	push	eax
	lea	ecx, DWORD PTR $T2[ebp]
	push	ecx
	mov	ecx, DWORD PTR _this$[ebp]
	call	?_Getal@?$_String_alloc@$0A@U?$_String_base_types@DV?$allocator@D@std@@@std@@@std@@QBE?AU?$_Wrap_alloc@V?$allocator@D@std@@@2@XZ ; std::_String_alloc<0,std::_String_base_types<char,std::allocator<char> > >::_Getal
	mov	ecx, eax
	call	??$construct@PADAAPAD@?$_Wrap_alloc@V?$allocator@D@std@@@std@@QAEXPAPADAAPAD@Z ; std::_Wrap_alloc<std::allocator<char> >::construct<char *,char * &>

; 2212 : 		this->_Myres = _Newres;

	mov	edx, DWORD PTR _this$[ebp]
	mov	eax, DWORD PTR __Newres$[ebp]
	mov	DWORD PTR [edx+20], eax

; 2213 : 		_Eos(_Oldlen);

	mov	ecx, DWORD PTR __Oldlen$[ebp]
	push	ecx
	mov	ecx, DWORD PTR _this$[ebp]
	call	?_Eos@?$basic_string@DU?$char_traits@D@std@@V?$allocator@D@2@@std@@QAEXI@Z ; std::basic_string<char,std::char_traits<char>,std::allocator<char> >::_Eos
$LN11@Copy:

; 2214 : 		}

	mov	ecx, DWORD PTR __$EHRec$[ebp+4]
	mov	DWORD PTR fs:0, ecx
	pop	ecx
	pop	edi
	pop	esi
	pop	ebx
	mov	esp, ebp
	pop	ebp
	ret	8
_TEXT	ENDS
;	COMDAT text$x
text$x	SEGMENT
__ehhandler$?_Copy@?$basic_string@DU?$char_traits@D@std@@V?$allocator@D@2@@std@@QAEXII@Z:
	mov	edx, DWORD PTR [esp+8]
	lea	eax, DWORD PTR [edx+12]
	mov	ecx, DWORD PTR [edx-52]
	xor	ecx, eax
	call	@__security_check_cookie@4
	mov	eax, OFFSET __ehfuncinfo$?_Copy@?$basic_string@DU?$char_traits@D@std@@V?$allocator@D@2@@std@@QAEXII@Z
	jmp	___CxxFrameHandler3
text$x	ENDS
?_Copy@?$basic_string@DU?$char_traits@D@std@@V?$allocator@D@2@@std@@QAEXII@Z ENDP ; std::basic_string<char,std::char_traits<char>,std::allocator<char> >::_Copy
; Function compile flags: /Odtp
; File c:\program files (x86)\microsoft visual studio 11.0\vc\include\xstring
;	COMDAT ?max_size@?$basic_string@DU?$char_traits@D@std@@V?$allocator@D@2@@std@@QBEIXZ
_TEXT	SEGMENT
_this$ = -16						; size = 4
tv75 = -12						; size = 4
__Num$ = -8						; size = 4
$T1 = -1						; size = 1
?max_size@?$basic_string@DU?$char_traits@D@std@@V?$allocator@D@2@@std@@QBEIXZ PROC ; std::basic_string<char,std::char_traits<char>,std::allocator<char> >::max_size, COMDAT
; _this$ = ecx

; 1737 : 		{	// return maximum possible length of sequence

	push	ebp
	mov	ebp, esp
	sub	esp, 16					; 00000010H
	mov	DWORD PTR _this$[ebp], ecx

; 1738 : 		size_type _Num = this->_Getal().max_size();

	lea	eax, DWORD PTR $T1[ebp]
	push	eax
	mov	ecx, DWORD PTR _this$[ebp]
	call	?_Getal@?$_String_alloc@$0A@U?$_String_base_types@DV?$allocator@D@std@@@std@@@std@@QBE?AU?$_Wrap_alloc@V?$allocator@D@std@@@2@XZ ; std::_String_alloc<0,std::_String_base_types<char,std::allocator<char> > >::_Getal
	mov	ecx, eax
	call	?max_size@?$_Wrap_alloc@V?$allocator@D@std@@@std@@QBEIXZ ; std::_Wrap_alloc<std::allocator<char> >::max_size
	mov	DWORD PTR __Num$[ebp], eax

; 1739 : 		return (_Num <= 1 ? 1 : _Num - 1);

	cmp	DWORD PTR __Num$[ebp], 1
	ja	SHORT $LN3@max_size
	mov	DWORD PTR tv75[ebp], 1
	jmp	SHORT $LN4@max_size
$LN3@max_size:
	mov	ecx, DWORD PTR __Num$[ebp]
	sub	ecx, 1
	mov	DWORD PTR tv75[ebp], ecx
$LN4@max_size:
	mov	eax, DWORD PTR tv75[ebp]

; 1740 : 		}

	mov	esp, ebp
	pop	ebp
	ret	0
?max_size@?$basic_string@DU?$char_traits@D@std@@V?$allocator@D@2@@std@@QBEIXZ ENDP ; std::basic_string<char,std::char_traits<char>,std::allocator<char> >::max_size
_TEXT	ENDS
; Function compile flags: /Odtp
; File c:\program files (x86)\microsoft visual studio 11.0\vc\include\xstring
;	COMDAT ?size@?$basic_string@DU?$char_traits@D@std@@V?$allocator@D@2@@std@@QBEIXZ
_TEXT	SEGMENT
_this$ = -4						; size = 4
?size@?$basic_string@DU?$char_traits@D@std@@V?$allocator@D@2@@std@@QBEIXZ PROC ; std::basic_string<char,std::char_traits<char>,std::allocator<char> >::size, COMDAT
; _this$ = ecx

; 1732 : 		{	// return length of sequence

	push	ebp
	mov	ebp, esp
	push	ecx
	mov	DWORD PTR _this$[ebp], ecx

; 1733 : 		return (this->_Mysize);

	mov	eax, DWORD PTR _this$[ebp]
	mov	eax, DWORD PTR [eax+16]

; 1734 : 		}

	mov	esp, ebp
	pop	ebp
	ret	0
?size@?$basic_string@DU?$char_traits@D@std@@V?$allocator@D@2@@std@@QBEIXZ ENDP ; std::basic_string<char,std::char_traits<char>,std::allocator<char> >::size
_TEXT	ENDS
; Function compile flags: /Odtp
; File c:\program files (x86)\microsoft visual studio 11.0\vc\include\xstring
;	COMDAT ?erase@?$basic_string@DU?$char_traits@D@std@@V?$allocator@D@2@@std@@QAEAAV12@II@Z
_TEXT	SEGMENT
__Newsize$1 = -12					; size = 4
__Ptr$2 = -8						; size = 4
_this$ = -4						; size = 4
__Off$ = 8						; size = 4
__Count$ = 12						; size = 4
?erase@?$basic_string@DU?$char_traits@D@std@@V?$allocator@D@2@@std@@QAEAAV12@II@Z PROC ; std::basic_string<char,std::char_traits<char>,std::allocator<char> >::erase, COMDAT
; _this$ = ecx

; 1317 : 		{	// erase elements [_Off, _Off + _Count)

	push	ebp
	mov	ebp, esp
	sub	esp, 12					; 0000000cH
	mov	DWORD PTR _this$[ebp], ecx

; 1318 : 		if (this->_Mysize < _Off)

	mov	eax, DWORD PTR _this$[ebp]
	mov	ecx, DWORD PTR [eax+16]
	cmp	ecx, DWORD PTR __Off$[ebp]
	jae	SHORT $LN4@erase

; 1319 : 			_Xran();	// _Off off end

	mov	ecx, DWORD PTR _this$[ebp]
	call	?_Xran@?$basic_string@DU?$char_traits@D@std@@V?$allocator@D@2@@std@@QBEXXZ ; std::basic_string<char,std::char_traits<char>,std::allocator<char> >::_Xran
$LN4@erase:

; 1320 : 		if (this->_Mysize - _Off <= _Count)

	mov	edx, DWORD PTR _this$[ebp]
	mov	eax, DWORD PTR [edx+16]
	sub	eax, DWORD PTR __Off$[ebp]
	cmp	eax, DWORD PTR __Count$[ebp]
	ja	SHORT $LN3@erase

; 1321 : 			_Eos(_Off);	// erase elements [_Off, ...)

	mov	ecx, DWORD PTR __Off$[ebp]
	push	ecx
	mov	ecx, DWORD PTR _this$[ebp]
	call	?_Eos@?$basic_string@DU?$char_traits@D@std@@V?$allocator@D@2@@std@@QAEXI@Z ; std::basic_string<char,std::char_traits<char>,std::allocator<char> >::_Eos
	jmp	SHORT $LN2@erase
$LN3@erase:

; 1322 : 		else if (0 < _Count)

	cmp	DWORD PTR __Count$[ebp], 0
	jbe	SHORT $LN2@erase

; 1323 : 			{	// move elements down
; 1324 : 			value_type *_Ptr = this->_Myptr() + _Off;

	mov	ecx, DWORD PTR _this$[ebp]
	call	?_Myptr@?$_String_val@U?$_Simple_types@D@std@@@std@@QAEPADXZ ; std::_String_val<std::_Simple_types<char> >::_Myptr
	add	eax, DWORD PTR __Off$[ebp]
	mov	DWORD PTR __Ptr$2[ebp], eax

; 1325 : 			size_type _Newsize = this->_Mysize - _Count;

	mov	edx, DWORD PTR _this$[ebp]
	mov	eax, DWORD PTR [edx+16]
	sub	eax, DWORD PTR __Count$[ebp]
	mov	DWORD PTR __Newsize$1[ebp], eax

; 1326 : 			_Traits::move(_Ptr, _Ptr + _Count, _Newsize - _Off);

	mov	ecx, DWORD PTR __Newsize$1[ebp]
	sub	ecx, DWORD PTR __Off$[ebp]
	push	ecx
	mov	edx, DWORD PTR __Ptr$2[ebp]
	add	edx, DWORD PTR __Count$[ebp]
	push	edx
	mov	eax, DWORD PTR __Ptr$2[ebp]
	push	eax
	call	?move@?$char_traits@D@std@@SAPADPADPBDI@Z ; std::char_traits<char>::move
	add	esp, 12					; 0000000cH

; 1327 : 			_Eos(_Newsize);

	mov	ecx, DWORD PTR __Newsize$1[ebp]
	push	ecx
	mov	ecx, DWORD PTR _this$[ebp]
	call	?_Eos@?$basic_string@DU?$char_traits@D@std@@V?$allocator@D@2@@std@@QAEXI@Z ; std::basic_string<char,std::char_traits<char>,std::allocator<char> >::_Eos
$LN2@erase:

; 1328 : 			}
; 1329 : 		return (*this);

	mov	eax, DWORD PTR _this$[ebp]
$LN6@erase:

; 1330 : 		}

	mov	esp, ebp
	pop	ebp
	ret	8
?erase@?$basic_string@DU?$char_traits@D@std@@V?$allocator@D@2@@std@@QAEAAV12@II@Z ENDP ; std::basic_string<char,std::char_traits<char>,std::allocator<char> >::erase
_TEXT	ENDS
; Function compile flags: /Odtp
; File c:\program files (x86)\microsoft visual studio 11.0\vc\include\xstring
;	COMDAT ?erase@?$basic_string@DU?$char_traits@D@std@@V?$allocator@D@2@@std@@QAEAAV12@I@Z
_TEXT	SEGMENT
_this$ = -4						; size = 4
__Off$ = 8						; size = 4
?erase@?$basic_string@DU?$char_traits@D@std@@V?$allocator@D@2@@std@@QAEAAV12@I@Z PROC ; std::basic_string<char,std::char_traits<char>,std::allocator<char> >::erase, COMDAT
; _this$ = ecx

; 1309 : 		{	// erase elements [_Off, ...)

	push	ebp
	mov	ebp, esp
	push	ecx
	mov	DWORD PTR _this$[ebp], ecx

; 1310 : 		if (this->_Mysize < _Off)

	mov	eax, DWORD PTR _this$[ebp]
	mov	ecx, DWORD PTR [eax+16]
	cmp	ecx, DWORD PTR __Off$[ebp]
	jae	SHORT $LN1@erase

; 1311 : 			_Xran();	// _Off off end

	mov	ecx, DWORD PTR _this$[ebp]
	call	?_Xran@?$basic_string@DU?$char_traits@D@std@@V?$allocator@D@2@@std@@QBEXXZ ; std::basic_string<char,std::char_traits<char>,std::allocator<char> >::_Xran
$LN1@erase:

; 1312 : 		_Eos(_Off);

	mov	edx, DWORD PTR __Off$[ebp]
	push	edx
	mov	ecx, DWORD PTR _this$[ebp]
	call	?_Eos@?$basic_string@DU?$char_traits@D@std@@V?$allocator@D@2@@std@@QAEXI@Z ; std::basic_string<char,std::char_traits<char>,std::allocator<char> >::_Eos

; 1313 : 		return (*this);

	mov	eax, DWORD PTR _this$[ebp]
$LN3@erase:

; 1314 : 		}

	mov	esp, ebp
	pop	ebp
	ret	4
?erase@?$basic_string@DU?$char_traits@D@std@@V?$allocator@D@2@@std@@QAEAAV12@I@Z ENDP ; std::basic_string<char,std::char_traits<char>,std::allocator<char> >::erase
_TEXT	ENDS
; Function compile flags: /Odtp
; File c:\program files (x86)\microsoft visual studio 11.0\vc\include\xstring
;	COMDAT ?assign@?$basic_string@DU?$char_traits@D@std@@V?$allocator@D@2@@std@@QAEAAV12@PBD@Z
_TEXT	SEGMENT
_this$ = -4						; size = 4
__Ptr$ = 8						; size = 4
?assign@?$basic_string@DU?$char_traits@D@std@@V?$allocator@D@2@@std@@QAEAAV12@PBD@Z PROC ; std::basic_string<char,std::char_traits<char>,std::allocator<char> >::assign, COMDAT
; _this$ = ecx

; 1142 : 		{	// assign [_Ptr, <null>)

	push	ebp
	mov	ebp, esp
	push	ecx
	mov	DWORD PTR _this$[ebp], ecx

; 1143 : 		_DEBUG_POINTER(_Ptr);
; 1144 : 		return (assign(_Ptr, _Traits::length(_Ptr)));

	mov	eax, DWORD PTR __Ptr$[ebp]
	push	eax
	call	?length@?$char_traits@D@std@@SAIPBD@Z	; std::char_traits<char>::length
	add	esp, 4
	push	eax
	mov	ecx, DWORD PTR __Ptr$[ebp]
	push	ecx
	mov	ecx, DWORD PTR _this$[ebp]
	call	?assign@?$basic_string@DU?$char_traits@D@std@@V?$allocator@D@2@@std@@QAEAAV12@PBDI@Z ; std::basic_string<char,std::char_traits<char>,std::allocator<char> >::assign

; 1145 : 		}

	mov	esp, ebp
	pop	ebp
	ret	4
?assign@?$basic_string@DU?$char_traits@D@std@@V?$allocator@D@2@@std@@QAEAAV12@PBD@Z ENDP ; std::basic_string<char,std::char_traits<char>,std::allocator<char> >::assign
_TEXT	ENDS
; Function compile flags: /Odtp
; File c:\program files (x86)\microsoft visual studio 11.0\vc\include\xstring
;	COMDAT ?assign@?$basic_string@DU?$char_traits@D@std@@V?$allocator@D@2@@std@@QAEAAV12@PBDI@Z
_TEXT	SEGMENT
_this$ = -4						; size = 4
__Ptr$ = 8						; size = 4
__Count$ = 12						; size = 4
?assign@?$basic_string@DU?$char_traits@D@std@@V?$allocator@D@2@@std@@QAEAAV12@PBDI@Z PROC ; std::basic_string<char,std::char_traits<char>,std::allocator<char> >::assign, COMDAT
; _this$ = ecx

; 1123 : 		{	// assign [_Ptr, _Ptr + _Count)

	push	ebp
	mov	ebp, esp
	push	ecx
	mov	DWORD PTR _this$[ebp], ecx

; 1124 :  #if _ITERATOR_DEBUG_LEVEL == 2
; 1125 : 		if (_Count != 0)
; 1126 : 			_DEBUG_POINTER(_Ptr);
; 1127 :  #endif /* _ITERATOR_DEBUG_LEVEL == 2 */
; 1128 : 
; 1129 : 		if (_Inside(_Ptr))

	mov	eax, DWORD PTR __Ptr$[ebp]
	push	eax
	mov	ecx, DWORD PTR _this$[ebp]
	call	?_Inside@?$basic_string@DU?$char_traits@D@std@@V?$allocator@D@2@@std@@QAE_NPBD@Z ; std::basic_string<char,std::char_traits<char>,std::allocator<char> >::_Inside
	movzx	ecx, al
	test	ecx, ecx
	je	SHORT $LN2@assign

; 1130 : 			return (assign(*this,
; 1131 : 				_Ptr - this->_Myptr(), _Count));	// substring

	mov	edx, DWORD PTR __Count$[ebp]
	push	edx
	mov	ecx, DWORD PTR _this$[ebp]
	call	?_Myptr@?$_String_val@U?$_Simple_types@D@std@@@std@@QAEPADXZ ; std::_String_val<std::_Simple_types<char> >::_Myptr
	mov	ecx, DWORD PTR __Ptr$[ebp]
	sub	ecx, eax
	push	ecx
	mov	edx, DWORD PTR _this$[ebp]
	push	edx
	mov	ecx, DWORD PTR _this$[ebp]
	call	?assign@?$basic_string@DU?$char_traits@D@std@@V?$allocator@D@2@@std@@QAEAAV12@ABV12@II@Z ; std::basic_string<char,std::char_traits<char>,std::allocator<char> >::assign
	jmp	SHORT $LN3@assign
$LN2@assign:

; 1132 : 
; 1133 : 		if (_Grow(_Count))

	push	0
	mov	eax, DWORD PTR __Count$[ebp]
	push	eax
	mov	ecx, DWORD PTR _this$[ebp]
	call	?_Grow@?$basic_string@DU?$char_traits@D@std@@V?$allocator@D@2@@std@@QAE_NI_N@Z ; std::basic_string<char,std::char_traits<char>,std::allocator<char> >::_Grow
	movzx	ecx, al
	test	ecx, ecx
	je	SHORT $LN1@assign

; 1134 : 			{	// make room and assign new stuff
; 1135 : 			_Traits::copy(this->_Myptr(), _Ptr, _Count);

	mov	edx, DWORD PTR __Count$[ebp]
	push	edx
	mov	eax, DWORD PTR __Ptr$[ebp]
	push	eax
	mov	ecx, DWORD PTR _this$[ebp]
	call	?_Myptr@?$_String_val@U?$_Simple_types@D@std@@@std@@QAEPADXZ ; std::_String_val<std::_Simple_types<char> >::_Myptr
	push	eax
	call	?copy@?$char_traits@D@std@@SAPADPADPBDI@Z ; std::char_traits<char>::copy
	add	esp, 12					; 0000000cH

; 1136 : 			_Eos(_Count);

	mov	ecx, DWORD PTR __Count$[ebp]
	push	ecx
	mov	ecx, DWORD PTR _this$[ebp]
	call	?_Eos@?$basic_string@DU?$char_traits@D@std@@V?$allocator@D@2@@std@@QAEXI@Z ; std::basic_string<char,std::char_traits<char>,std::allocator<char> >::_Eos
$LN1@assign:

; 1137 : 			}
; 1138 : 		return (*this);

	mov	eax, DWORD PTR _this$[ebp]
$LN3@assign:

; 1139 : 		}

	mov	esp, ebp
	pop	ebp
	ret	8
?assign@?$basic_string@DU?$char_traits@D@std@@V?$allocator@D@2@@std@@QAEAAV12@PBDI@Z ENDP ; std::basic_string<char,std::char_traits<char>,std::allocator<char> >::assign
_TEXT	ENDS
; Function compile flags: /Odtp
; File c:\program files (x86)\microsoft visual studio 11.0\vc\include\xstring
;	COMDAT ?assign@?$basic_string@DU?$char_traits@D@std@@V?$allocator@D@2@@std@@QAEAAV12@ABV12@II@Z
_TEXT	SEGMENT
__Num$ = -8						; size = 4
_this$ = -4						; size = 4
__Right$ = 8						; size = 4
__Roff$ = 12						; size = 4
__Count$ = 16						; size = 4
?assign@?$basic_string@DU?$char_traits@D@std@@V?$allocator@D@2@@std@@QAEAAV12@ABV12@II@Z PROC ; std::basic_string<char,std::char_traits<char>,std::allocator<char> >::assign, COMDAT
; _this$ = ecx

; 1104 : 		{	// assign _Right [_Roff, _Roff + _Count)

	push	ebp
	mov	ebp, esp
	sub	esp, 8
	mov	DWORD PTR _this$[ebp], ecx

; 1105 : 		if (_Right.size() < _Roff)

	mov	ecx, DWORD PTR __Right$[ebp]
	call	?size@?$basic_string@DU?$char_traits@D@std@@V?$allocator@D@2@@std@@QBEIXZ ; std::basic_string<char,std::char_traits<char>,std::allocator<char> >::size
	cmp	eax, DWORD PTR __Roff$[ebp]
	jae	SHORT $LN5@assign

; 1106 : 			_Xran();	// _Roff off end

	mov	ecx, DWORD PTR _this$[ebp]
	call	?_Xran@?$basic_string@DU?$char_traits@D@std@@V?$allocator@D@2@@std@@QBEXXZ ; std::basic_string<char,std::char_traits<char>,std::allocator<char> >::_Xran
$LN5@assign:

; 1107 : 		size_type _Num = _Right.size() - _Roff;

	mov	ecx, DWORD PTR __Right$[ebp]
	call	?size@?$basic_string@DU?$char_traits@D@std@@V?$allocator@D@2@@std@@QBEIXZ ; std::basic_string<char,std::char_traits<char>,std::allocator<char> >::size
	sub	eax, DWORD PTR __Roff$[ebp]
	mov	DWORD PTR __Num$[ebp], eax

; 1108 : 		if (_Count < _Num)

	mov	eax, DWORD PTR __Count$[ebp]
	cmp	eax, DWORD PTR __Num$[ebp]
	jae	SHORT $LN4@assign

; 1109 : 			_Num = _Count;	// trim _Num to size

	mov	ecx, DWORD PTR __Count$[ebp]
	mov	DWORD PTR __Num$[ebp], ecx
$LN4@assign:

; 1110 : 
; 1111 : 		if (this == &_Right)

	mov	edx, DWORD PTR _this$[ebp]
	cmp	edx, DWORD PTR __Right$[ebp]
	jne	SHORT $LN3@assign

; 1112 : 			erase((size_type)(_Roff + _Num)), erase(0, _Roff);	// substring

	mov	eax, DWORD PTR __Roff$[ebp]
	add	eax, DWORD PTR __Num$[ebp]
	push	eax
	mov	ecx, DWORD PTR _this$[ebp]
	call	?erase@?$basic_string@DU?$char_traits@D@std@@V?$allocator@D@2@@std@@QAEAAV12@I@Z ; std::basic_string<char,std::char_traits<char>,std::allocator<char> >::erase
	mov	ecx, DWORD PTR __Roff$[ebp]
	push	ecx
	push	0
	mov	ecx, DWORD PTR _this$[ebp]
	call	?erase@?$basic_string@DU?$char_traits@D@std@@V?$allocator@D@2@@std@@QAEAAV12@II@Z ; std::basic_string<char,std::char_traits<char>,std::allocator<char> >::erase
	jmp	SHORT $LN2@assign
$LN3@assign:

; 1113 : 		else if (_Grow(_Num))

	push	0
	mov	edx, DWORD PTR __Num$[ebp]
	push	edx
	mov	ecx, DWORD PTR _this$[ebp]
	call	?_Grow@?$basic_string@DU?$char_traits@D@std@@V?$allocator@D@2@@std@@QAE_NI_N@Z ; std::basic_string<char,std::char_traits<char>,std::allocator<char> >::_Grow
	movzx	eax, al
	test	eax, eax
	je	SHORT $LN2@assign

; 1114 : 			{	// make room and assign new stuff
; 1115 : 			_Traits::copy(this->_Myptr(),
; 1116 : 				_Right._Myptr() + _Roff, _Num);

	mov	ecx, DWORD PTR __Num$[ebp]
	push	ecx
	mov	ecx, DWORD PTR __Right$[ebp]
	call	?_Myptr@?$_String_val@U?$_Simple_types@D@std@@@std@@QBEPBDXZ ; std::_String_val<std::_Simple_types<char> >::_Myptr
	add	eax, DWORD PTR __Roff$[ebp]
	push	eax
	mov	ecx, DWORD PTR _this$[ebp]
	call	?_Myptr@?$_String_val@U?$_Simple_types@D@std@@@std@@QAEPADXZ ; std::_String_val<std::_Simple_types<char> >::_Myptr
	push	eax
	call	?copy@?$char_traits@D@std@@SAPADPADPBDI@Z ; std::char_traits<char>::copy
	add	esp, 12					; 0000000cH

; 1117 : 			_Eos(_Num);

	mov	edx, DWORD PTR __Num$[ebp]
	push	edx
	mov	ecx, DWORD PTR _this$[ebp]
	call	?_Eos@?$basic_string@DU?$char_traits@D@std@@V?$allocator@D@2@@std@@QAEXI@Z ; std::basic_string<char,std::char_traits<char>,std::allocator<char> >::_Eos
$LN2@assign:

; 1118 : 			}
; 1119 : 		return (*this);

	mov	eax, DWORD PTR _this$[ebp]
$LN7@assign:

; 1120 : 		}

	mov	esp, ebp
	pop	ebp
	ret	12					; 0000000cH
?assign@?$basic_string@DU?$char_traits@D@std@@V?$allocator@D@2@@std@@QAEAAV12@ABV12@II@Z ENDP ; std::basic_string<char,std::char_traits<char>,std::allocator<char> >::assign
_TEXT	ENDS
; Function compile flags: /Odtp
; File c:\program files (x86)\microsoft visual studio 11.0\vc\include\xstring
;	COMDAT ??0?$basic_string@DU?$char_traits@D@std@@V?$allocator@D@2@@std@@QAE@PBD@Z
_TEXT	SEGMENT
_this$ = -8						; size = 4
$T1 = -1						; size = 1
__Ptr$ = 8						; size = 4
??0?$basic_string@DU?$char_traits@D@std@@V?$allocator@D@2@@std@@QAE@PBD@Z PROC ; std::basic_string<char,std::char_traits<char>,std::allocator<char> >::basic_string<char,std::char_traits<char>,std::allocator<char> >, COMDAT
; _this$ = ecx

; 791  : 		{	// construct from [_Ptr, <null>)

	push	ebp
	mov	ebp, esp
	sub	esp, 8
	mov	DWORD PTR _this$[ebp], ecx
	lea	ecx, DWORD PTR $T1[ebp]
	call	??0?$allocator@D@std@@QAE@XZ		; std::allocator<char>::allocator<char>
	push	eax
	mov	ecx, DWORD PTR _this$[ebp]
	call	??0?$_String_alloc@$0A@U?$_String_base_types@DV?$allocator@D@std@@@std@@@std@@QAE@ABV?$allocator@D@1@@Z ; std::_String_alloc<0,std::_String_base_types<char,std::allocator<char> > >::_String_alloc<0,std::_String_base_types<char,std::allocator<char> > >

; 792  : 		_Tidy();

	push	0
	push	0
	mov	ecx, DWORD PTR _this$[ebp]
	call	?_Tidy@?$basic_string@DU?$char_traits@D@std@@V?$allocator@D@2@@std@@QAEX_NI@Z ; std::basic_string<char,std::char_traits<char>,std::allocator<char> >::_Tidy

; 793  : 		assign(_Ptr);

	mov	eax, DWORD PTR __Ptr$[ebp]
	push	eax
	mov	ecx, DWORD PTR _this$[ebp]
	call	?assign@?$basic_string@DU?$char_traits@D@std@@V?$allocator@D@2@@std@@QAEAAV12@PBD@Z ; std::basic_string<char,std::char_traits<char>,std::allocator<char> >::assign

; 794  : 		}

	mov	eax, DWORD PTR _this$[ebp]
	mov	esp, ebp
	pop	ebp
	ret	4
??0?$basic_string@DU?$char_traits@D@std@@V?$allocator@D@2@@std@@QAE@PBD@Z ENDP ; std::basic_string<char,std::char_traits<char>,std::allocator<char> >::basic_string<char,std::char_traits<char>,std::allocator<char> >
_TEXT	ENDS
; Function compile flags: /Odtp
; File c:\program files (x86)\microsoft visual studio 11.0\vc\include\xstring
;	COMDAT ?_Getal@?$_String_alloc@$0A@U?$_String_base_types@DV?$allocator@D@std@@@std@@@std@@QBE?AU?$_Wrap_alloc@V?$allocator@D@std@@@2@XZ
_TEXT	SEGMENT
_this$ = -4						; size = 4
___$ReturnUdt$ = 8					; size = 4
?_Getal@?$_String_alloc@$0A@U?$_String_base_types@DV?$allocator@D@std@@@std@@@std@@QBE?AU?$_Wrap_alloc@V?$allocator@D@std@@@2@XZ PROC ; std::_String_alloc<0,std::_String_base_types<char,std::allocator<char> > >::_Getal, COMDAT
; _this$ = ecx

; 688  : 		{	// get reference to allocator

	push	ebp
	mov	ebp, esp
	push	ecx
	mov	DWORD PTR _this$[ebp], ecx

; 689  : 		return (_Alty());

	mov	ecx, DWORD PTR ___$ReturnUdt$[ebp]
	call	??0?$_Wrap_alloc@V?$allocator@D@std@@@std@@QAE@XZ ; std::_Wrap_alloc<std::allocator<char> >::_Wrap_alloc<std::allocator<char> >
	mov	eax, DWORD PTR ___$ReturnUdt$[ebp]

; 690  : 		}

	mov	esp, ebp
	pop	ebp
	ret	4
?_Getal@?$_String_alloc@$0A@U?$_String_base_types@DV?$allocator@D@std@@@std@@@std@@QBE?AU?$_Wrap_alloc@V?$allocator@D@std@@@2@XZ ENDP ; std::_String_alloc<0,std::_String_base_types<char,std::allocator<char> > >::_Getal
_TEXT	ENDS
; Function compile flags: /Odtp
; File c:\program files (x86)\microsoft visual studio 11.0\vc\include\xstring
;	COMDAT ??0?$_String_alloc@$0A@U?$_String_base_types@DV?$allocator@D@std@@@std@@@std@@QAE@ABV?$allocator@D@1@@Z
_TEXT	SEGMENT
_this$ = -4						; size = 4
___formal$ = 8						; size = 4
??0?$_String_alloc@$0A@U?$_String_base_types@DV?$allocator@D@std@@@std@@@std@@QAE@ABV?$allocator@D@1@@Z PROC ; std::_String_alloc<0,std::_String_base_types<char,std::allocator<char> > >::_String_alloc<0,std::_String_base_types<char,std::allocator<char> > >, COMDAT
; _this$ = ecx

; 635  : 	_String_alloc(const _Alloc& = _Alloc())

	push	ebp
	mov	ebp, esp
	push	ecx
	mov	DWORD PTR _this$[ebp], ecx
	mov	ecx, DWORD PTR _this$[ebp]
	call	??0?$_String_val@U?$_Simple_types@D@std@@@std@@QAE@XZ ; std::_String_val<std::_Simple_types<char> >::_String_val<std::_Simple_types<char> >

; 636  : 		{	// construct allocator from _Al
; 637  : 		}

	mov	eax, DWORD PTR _this$[ebp]
	mov	esp, ebp
	pop	ebp
	ret	4
??0?$_String_alloc@$0A@U?$_String_base_types@DV?$allocator@D@std@@@std@@@std@@QAE@ABV?$allocator@D@1@@Z ENDP ; std::_String_alloc<0,std::_String_base_types<char,std::allocator<char> > >::_String_alloc<0,std::_String_base_types<char,std::allocator<char> > >
_TEXT	ENDS
; Function compile flags: /Odtp
; File c:\program files (x86)\microsoft visual studio 11.0\vc\include\xstring
;	COMDAT ?_Myptr@?$_String_val@U?$_Simple_types@D@std@@@std@@QBEPBDXZ
_TEXT	SEGMENT
tv72 = -8						; size = 4
_this$ = -4						; size = 4
?_Myptr@?$_String_val@U?$_Simple_types@D@std@@@std@@QBEPBDXZ PROC ; std::_String_val<std::_Simple_types<char> >::_Myptr, COMDAT
; _this$ = ecx

; 521  : 		{	// determine current pointer to buffer for nonmutable string

	push	ebp
	mov	ebp, esp
	sub	esp, 8
	mov	DWORD PTR _this$[ebp], ecx

; 522  : 		return (this->_BUF_SIZE <= this->_Myres
; 523  : 			? _STD addressof(*this->_Bx._Ptr)
; 524  : 			: this->_Bx._Buf);

	mov	eax, DWORD PTR _this$[ebp]
	cmp	DWORD PTR [eax+20], 16			; 00000010H
	jb	SHORT $LN3@Myptr
	mov	ecx, DWORD PTR _this$[ebp]
	mov	edx, DWORD PTR [ecx]
	push	edx
	call	??$addressof@D@std@@YAPADAAD@Z		; std::addressof<char>
	add	esp, 4
	mov	DWORD PTR tv72[ebp], eax
	jmp	SHORT $LN4@Myptr
$LN3@Myptr:
	mov	eax, DWORD PTR _this$[ebp]
	mov	DWORD PTR tv72[ebp], eax
$LN4@Myptr:
	mov	eax, DWORD PTR tv72[ebp]

; 525  : 		}

	mov	esp, ebp
	pop	ebp
	ret	0
?_Myptr@?$_String_val@U?$_Simple_types@D@std@@@std@@QBEPBDXZ ENDP ; std::_String_val<std::_Simple_types<char> >::_Myptr
_TEXT	ENDS
; Function compile flags: /Odtp
; File c:\program files (x86)\microsoft visual studio 11.0\vc\include\xstring
;	COMDAT ?_Myptr@?$_String_val@U?$_Simple_types@D@std@@@std@@QAEPADXZ
_TEXT	SEGMENT
tv72 = -8						; size = 4
_this$ = -4						; size = 4
?_Myptr@?$_String_val@U?$_Simple_types@D@std@@@std@@QAEPADXZ PROC ; std::_String_val<std::_Simple_types<char> >::_Myptr, COMDAT
; _this$ = ecx

; 514  : 		{	// determine current pointer to buffer for mutable string

	push	ebp
	mov	ebp, esp
	sub	esp, 8
	mov	DWORD PTR _this$[ebp], ecx

; 515  : 		return (this->_BUF_SIZE <= this->_Myres
; 516  : 			? _STD addressof(*this->_Bx._Ptr)
; 517  : 			: this->_Bx._Buf);

	mov	eax, DWORD PTR _this$[ebp]
	cmp	DWORD PTR [eax+20], 16			; 00000010H
	jb	SHORT $LN3@Myptr
	mov	ecx, DWORD PTR _this$[ebp]
	mov	edx, DWORD PTR [ecx]
	push	edx
	call	??$addressof@D@std@@YAPADAAD@Z		; std::addressof<char>
	add	esp, 4
	mov	DWORD PTR tv72[ebp], eax
	jmp	SHORT $LN4@Myptr
$LN3@Myptr:
	mov	eax, DWORD PTR _this$[ebp]
	mov	DWORD PTR tv72[ebp], eax
$LN4@Myptr:
	mov	eax, DWORD PTR tv72[ebp]

; 518  : 		}

	mov	esp, ebp
	pop	ebp
	ret	0
?_Myptr@?$_String_val@U?$_Simple_types@D@std@@@std@@QAEPADXZ ENDP ; std::_String_val<std::_Simple_types<char> >::_Myptr
_TEXT	ENDS
; Function compile flags: /Odtp
; File c:\program files (x86)\microsoft visual studio 11.0\vc\include\xstring
;	COMDAT ??0?$_String_val@U?$_Simple_types@D@std@@@std@@QAE@XZ
_TEXT	SEGMENT
_this$ = -4						; size = 4
??0?$_String_val@U?$_Simple_types@D@std@@@std@@QAE@XZ PROC ; std::_String_val<std::_Simple_types<char> >::_String_val<std::_Simple_types<char> >, COMDAT
; _this$ = ecx

; 496  : 	_String_val()

	push	ebp
	mov	ebp, esp
	push	ecx
	mov	DWORD PTR _this$[ebp], ecx

; 497  : 		{	// initialize values
; 498  : 		_Mysize = 0;

	mov	eax, DWORD PTR _this$[ebp]
	mov	DWORD PTR [eax+16], 0

; 499  : 		_Myres = 0;

	mov	ecx, DWORD PTR _this$[ebp]
	mov	DWORD PTR [ecx+20], 0

; 500  : 		}

	mov	eax, DWORD PTR _this$[ebp]
	mov	esp, ebp
	pop	ebp
	ret	0
??0?$_String_val@U?$_Simple_types@D@std@@@std@@QAE@XZ ENDP ; std::_String_val<std::_Simple_types<char> >::_String_val<std::_Simple_types<char> >
_TEXT	ENDS
; Function compile flags: /Odtp
; File c:\program files (x86)\microsoft visual studio 11.0\vc\include\xmemory0
;	COMDAT ?max_size@?$_Wrap_alloc@V?$allocator@D@std@@@std@@QBEIXZ
_TEXT	SEGMENT
_this$ = -4						; size = 4
?max_size@?$_Wrap_alloc@V?$allocator@D@std@@@std@@QBEIXZ PROC ; std::_Wrap_alloc<std::allocator<char> >::max_size, COMDAT
; _this$ = ecx

; 913  : 		{	// get maximum size

	push	ebp
	mov	ebp, esp
	push	ecx
	mov	DWORD PTR _this$[ebp], ecx

; 914  : 		return (_Mytraits::max_size(*this));

	mov	eax, DWORD PTR _this$[ebp]
	push	eax
	call	?max_size@?$allocator_traits@V?$allocator@D@std@@@std@@SAIABV?$allocator@D@2@@Z ; std::allocator_traits<std::allocator<char> >::max_size
	add	esp, 4

; 915  : 		}

	mov	esp, ebp
	pop	ebp
	ret	0
?max_size@?$_Wrap_alloc@V?$allocator@D@std@@@std@@QBEIXZ ENDP ; std::_Wrap_alloc<std::allocator<char> >::max_size
_TEXT	ENDS
; Function compile flags: /Odtp
; File c:\program files (x86)\microsoft visual studio 11.0\vc\include\xmemory0
;	COMDAT ?deallocate@?$_Wrap_alloc@V?$allocator@D@std@@@std@@QAEXPADI@Z
_TEXT	SEGMENT
_this$ = -4						; size = 4
__Ptr$ = 8						; size = 4
__Count$ = 12						; size = 4
?deallocate@?$_Wrap_alloc@V?$allocator@D@std@@@std@@QAEXPADI@Z PROC ; std::_Wrap_alloc<std::allocator<char> >::deallocate, COMDAT
; _this$ = ecx

; 886  : 		{	// deallocate object at _Ptr, ignore size

	push	ebp
	mov	ebp, esp
	push	ecx
	mov	DWORD PTR _this$[ebp], ecx

; 887  : 		_Mybase::deallocate(_Ptr, _Count);

	mov	eax, DWORD PTR __Count$[ebp]
	push	eax
	mov	ecx, DWORD PTR __Ptr$[ebp]
	push	ecx
	mov	ecx, DWORD PTR _this$[ebp]
	call	?deallocate@?$allocator@D@std@@QAEXPADI@Z ; std::allocator<char>::deallocate

; 888  : 		}

	mov	esp, ebp
	pop	ebp
	ret	8
?deallocate@?$_Wrap_alloc@V?$allocator@D@std@@@std@@QAEXPADI@Z ENDP ; std::_Wrap_alloc<std::allocator<char> >::deallocate
_TEXT	ENDS
; Function compile flags: /Odtp
; File c:\program files (x86)\microsoft visual studio 11.0\vc\include\xmemory0
;	COMDAT ?allocate@?$_Wrap_alloc@V?$allocator@D@std@@@std@@QAEPADI@Z
_TEXT	SEGMENT
_this$ = -4						; size = 4
__Count$ = 8						; size = 4
?allocate@?$_Wrap_alloc@V?$allocator@D@std@@@std@@QAEPADI@Z PROC ; std::_Wrap_alloc<std::allocator<char> >::allocate, COMDAT
; _this$ = ecx

; 875  : 		{	// allocate array of _Count elements

	push	ebp
	mov	ebp, esp
	push	ecx
	mov	DWORD PTR _this$[ebp], ecx

; 876  : 		return (_Mybase::allocate(_Count));

	mov	eax, DWORD PTR __Count$[ebp]
	push	eax
	mov	ecx, DWORD PTR _this$[ebp]
	call	?allocate@?$allocator@D@std@@QAEPADI@Z	; std::allocator<char>::allocate

; 877  : 		}

	mov	esp, ebp
	pop	ebp
	ret	4
?allocate@?$_Wrap_alloc@V?$allocator@D@std@@@std@@QAEPADI@Z ENDP ; std::_Wrap_alloc<std::allocator<char> >::allocate
_TEXT	ENDS
; Function compile flags: /Odtp
; File c:\program files (x86)\microsoft visual studio 11.0\vc\include\xmemory0
;	COMDAT ??0?$_Wrap_alloc@V?$allocator@D@std@@@std@@QAE@XZ
_TEXT	SEGMENT
_this$ = -4						; size = 4
??0?$_Wrap_alloc@V?$allocator@D@std@@@std@@QAE@XZ PROC	; std::_Wrap_alloc<std::allocator<char> >::_Wrap_alloc<std::allocator<char> >, COMDAT
; _this$ = ecx

; 830  : 		{	// construct default allocator (do nothing)

	push	ebp
	mov	ebp, esp
	push	ecx
	mov	DWORD PTR _this$[ebp], ecx
	mov	ecx, DWORD PTR _this$[ebp]
	call	??0?$allocator@D@std@@QAE@XZ		; std::allocator<char>::allocator<char>

; 831  : 		}

	mov	eax, DWORD PTR _this$[ebp]
	mov	esp, ebp
	pop	ebp
	ret	0
??0?$_Wrap_alloc@V?$allocator@D@std@@@std@@QAE@XZ ENDP	; std::_Wrap_alloc<std::allocator<char> >::_Wrap_alloc<std::allocator<char> >
_TEXT	ENDS
; Function compile flags: /Odtp
; File c:\program files (x86)\microsoft visual studio 11.0\vc\include\xmemory0
;	COMDAT ?max_size@?$allocator_traits@V?$allocator@D@std@@@std@@SAIABV?$allocator@D@2@@Z
_TEXT	SEGMENT
__Al$ = 8						; size = 4
?max_size@?$allocator_traits@V?$allocator@D@std@@@std@@SAIABV?$allocator@D@2@@Z PROC ; std::allocator_traits<std::allocator<char> >::max_size, COMDAT

; 761  : 		{	// get maximum size

	push	ebp
	mov	ebp, esp

; 762  : 		return (_Al.max_size());

	mov	ecx, DWORD PTR __Al$[ebp]
	call	?max_size@?$allocator@D@std@@QBEIXZ	; std::allocator<char>::max_size

; 763  : 		}

	pop	ebp
	ret	0
?max_size@?$allocator_traits@V?$allocator@D@std@@@std@@SAIABV?$allocator@D@2@@Z ENDP ; std::allocator_traits<std::allocator<char> >::max_size
_TEXT	ENDS
; Function compile flags: /Odtp
; File c:\program files (x86)\microsoft visual studio 11.0\vc\include\xmemory0
;	COMDAT ?max_size@?$allocator@D@std@@QBEIXZ
_TEXT	SEGMENT
_this$ = -4						; size = 4
?max_size@?$allocator@D@std@@QBEIXZ PROC		; std::allocator<char>::max_size, COMDAT
; _this$ = ecx

; 627  : 		{	// estimate maximum array size

	push	ebp
	mov	ebp, esp
	push	ecx
	mov	DWORD PTR _this$[ebp], ecx

; 628  : 		return ((size_t)(-1) / sizeof (_Ty));

	or	eax, -1

; 629  : 		}

	mov	esp, ebp
	pop	ebp
	ret	0
?max_size@?$allocator@D@std@@QBEIXZ ENDP		; std::allocator<char>::max_size
_TEXT	ENDS
; Function compile flags: /Odtp
; File c:\program files (x86)\microsoft visual studio 11.0\vc\include\xmemory0
;	COMDAT ?allocate@?$allocator@D@std@@QAEPADI@Z
_TEXT	SEGMENT
_this$ = -4						; size = 4
__Count$ = 8						; size = 4
?allocate@?$allocator@D@std@@QAEPADI@Z PROC		; std::allocator<char>::allocate, COMDAT
; _this$ = ecx

; 590  : 		{	// allocate array of _Count elements

	push	ebp
	mov	ebp, esp
	push	ecx
	mov	DWORD PTR _this$[ebp], ecx

; 591  : 		return (_Allocate(_Count, (pointer)0));

	push	0
	mov	eax, DWORD PTR __Count$[ebp]
	push	eax
	call	??$_Allocate@D@std@@YAPADIPAD@Z		; std::_Allocate<char>
	add	esp, 8

; 592  : 		}

	mov	esp, ebp
	pop	ebp
	ret	4
?allocate@?$allocator@D@std@@QAEPADI@Z ENDP		; std::allocator<char>::allocate
_TEXT	ENDS
; Function compile flags: /Odtp
; File c:\program files (x86)\microsoft visual studio 11.0\vc\include\xmemory0
;	COMDAT ?deallocate@?$allocator@D@std@@QAEXPADI@Z
_TEXT	SEGMENT
_this$ = -4						; size = 4
__Ptr$ = 8						; size = 4
___formal$ = 12						; size = 4
?deallocate@?$allocator@D@std@@QAEXPADI@Z PROC		; std::allocator<char>::deallocate, COMDAT
; _this$ = ecx

; 585  : 		{	// deallocate object at _Ptr, ignore size

	push	ebp
	mov	ebp, esp
	push	ecx
	mov	DWORD PTR _this$[ebp], ecx

; 586  : 		::operator delete(_Ptr);

	mov	eax, DWORD PTR __Ptr$[ebp]
	push	eax
	call	??3@YAXPAX@Z				; operator delete
	add	esp, 4

; 587  : 		}

	mov	esp, ebp
	pop	ebp
	ret	8
?deallocate@?$allocator@D@std@@QAEXPADI@Z ENDP		; std::allocator<char>::deallocate
_TEXT	ENDS
; Function compile flags: /Odtp
; File c:\program files (x86)\microsoft visual studio 11.0\vc\include\xmemory0
;	COMDAT ??0?$allocator@D@std@@QAE@XZ
_TEXT	SEGMENT
_this$ = -4						; size = 4
??0?$allocator@D@std@@QAE@XZ PROC			; std::allocator<char>::allocator<char>, COMDAT
; _this$ = ecx

; 565  : 	allocator() _THROW0()

	push	ebp
	mov	ebp, esp
	push	ecx
	mov	DWORD PTR _this$[ebp], ecx

; 566  : 		{	// construct default allocator (do nothing)
; 567  : 		}

	mov	eax, DWORD PTR _this$[ebp]
	mov	esp, ebp
	pop	ebp
	ret	0
??0?$allocator@D@std@@QAE@XZ ENDP			; std::allocator<char>::allocator<char>
_TEXT	ENDS
; Function compile flags: /Odtp
; File c:\program files (x86)\microsoft visual studio 11.0\vc\include\xutility
;	COMDAT ??__Eallocator_arg@std@@YAXXZ
text$yc	SEGMENT
$T1 = -1						; size = 1
??__Eallocator_arg@std@@YAXXZ PROC			; std::`dynamic initializer for 'allocator_arg'', COMDAT

; 3644 : const allocator_arg_t allocator_arg = allocator_arg_t();

	push	ebp
	mov	ebp, esp
	push	ecx
	xor	eax, eax
	mov	BYTE PTR $T1[ebp], al
	mov	esp, ebp
	pop	ebp
	ret	0
??__Eallocator_arg@std@@YAXXZ ENDP			; std::`dynamic initializer for 'allocator_arg''
text$yc	ENDS
; Function compile flags: /Odtp
; File c:\program files (x86)\microsoft visual studio 11.0\vc\include\utility
;	COMDAT ??__Epiecewise_construct@std@@YAXXZ
text$yc	SEGMENT
$T1 = -1						; size = 1
??__Epiecewise_construct@std@@YAXXZ PROC		; std::`dynamic initializer for 'piecewise_construct'', COMDAT

; 65   : 	piecewise_construct_t();

	push	ebp
	mov	ebp, esp
	push	ecx
	xor	eax, eax
	mov	BYTE PTR $T1[ebp], al
	mov	esp, ebp
	pop	ebp
	ret	0
??__Epiecewise_construct@std@@YAXXZ ENDP		; std::`dynamic initializer for 'piecewise_construct''
text$yc	ENDS
; Function compile flags: /Odtp
; File c:\program files (x86)\microsoft visual studio 11.0\vc\include\iosfwd
;	COMDAT ?assign@?$char_traits@D@std@@SAXAADABD@Z
_TEXT	SEGMENT
__Left$ = 8						; size = 4
__Right$ = 12						; size = 4
?assign@?$char_traits@D@std@@SAXAADABD@Z PROC		; std::char_traits<char>::assign, COMDAT

; 563  : 		{	// assign an element

	push	ebp
	mov	ebp, esp

; 564  : 		_Left = _Right;

	mov	eax, DWORD PTR __Left$[ebp]
	mov	ecx, DWORD PTR __Right$[ebp]
	mov	dl, BYTE PTR [ecx]
	mov	BYTE PTR [eax], dl

; 565  : 		}

	pop	ebp
	ret	0
?assign@?$char_traits@D@std@@SAXAADABD@Z ENDP		; std::char_traits<char>::assign
_TEXT	ENDS
; Function compile flags: /Odtp
; File c:\program files (x86)\microsoft visual studio 11.0\vc\include\iosfwd
;	COMDAT ?move@?$char_traits@D@std@@SAPADPADPBDI@Z
_TEXT	SEGMENT
tv69 = -4						; size = 4
__First1$ = 8						; size = 4
__First2$ = 12						; size = 4
__Count$ = 16						; size = 4
?move@?$char_traits@D@std@@SAPADPADPBDI@Z PROC		; std::char_traits<char>::move, COMDAT

; 551  : 		{	// copy [_First2, _First2 + _Count) to [_First1, ...)

	push	ebp
	mov	ebp, esp
	push	ecx

; 552  : 		return (_Count == 0 ? _First1
; 553  : 			: (_Elem *)_CSTD memmove(_First1, _First2, _Count));

	cmp	DWORD PTR __Count$[ebp], 0
	jne	SHORT $LN3@move
	mov	eax, DWORD PTR __First1$[ebp]
	mov	DWORD PTR tv69[ebp], eax
	jmp	SHORT $LN4@move
$LN3@move:
	mov	ecx, DWORD PTR __Count$[ebp]
	push	ecx
	mov	edx, DWORD PTR __First2$[ebp]
	push	edx
	mov	eax, DWORD PTR __First1$[ebp]
	push	eax
	call	_memmove
	add	esp, 12					; 0000000cH
	mov	DWORD PTR tv69[ebp], eax
$LN4@move:
	mov	eax, DWORD PTR tv69[ebp]

; 554  : 		}

	mov	esp, ebp
	pop	ebp
	ret	0
?move@?$char_traits@D@std@@SAPADPADPBDI@Z ENDP		; std::char_traits<char>::move
_TEXT	ENDS
; Function compile flags: /Odtp
; File c:\program files (x86)\microsoft visual studio 11.0\vc\include\iosfwd
;	COMDAT ?copy@?$char_traits@D@std@@SAPADPADPBDI@Z
_TEXT	SEGMENT
tv69 = -4						; size = 4
__First1$ = 8						; size = 4
__First2$ = 12						; size = 4
__Count$ = 16						; size = 4
?copy@?$char_traits@D@std@@SAPADPADPBDI@Z PROC		; std::char_traits<char>::copy, COMDAT

; 528  : 		{	// copy [_First2, _First2 + _Count) to [_First1, ...)

	push	ebp
	mov	ebp, esp
	push	ecx

; 529  : 		return (_Count == 0 ? _First1
; 530  : 			: (_Elem *)_CSTD memcpy(_First1, _First2, _Count));

	cmp	DWORD PTR __Count$[ebp], 0
	jne	SHORT $LN3@copy
	mov	eax, DWORD PTR __First1$[ebp]
	mov	DWORD PTR tv69[ebp], eax
	jmp	SHORT $LN4@copy
$LN3@copy:
	mov	ecx, DWORD PTR __Count$[ebp]
	push	ecx
	mov	edx, DWORD PTR __First2$[ebp]
	push	edx
	mov	eax, DWORD PTR __First1$[ebp]
	push	eax
	call	_memcpy
	add	esp, 12					; 0000000cH
	mov	DWORD PTR tv69[ebp], eax
$LN4@copy:
	mov	eax, DWORD PTR tv69[ebp]

; 531  : 		}

	mov	esp, ebp
	pop	ebp
	ret	0
?copy@?$char_traits@D@std@@SAPADPADPBDI@Z ENDP		; std::char_traits<char>::copy
_TEXT	ENDS
; Function compile flags: /Odtp
; File c:\program files (x86)\microsoft visual studio 11.0\vc\include\iosfwd
;	COMDAT ?length@?$char_traits@D@std@@SAIPBD@Z
_TEXT	SEGMENT
tv68 = -4						; size = 4
__First$ = 8						; size = 4
?length@?$char_traits@D@std@@SAIPBD@Z PROC		; std::char_traits<char>::length, COMDAT

; 521  : 		{	// find length of null-terminated string

	push	ebp
	mov	ebp, esp
	push	ecx

; 522  : 		return (*_First == 0 ? 0
; 523  : 			: _CSTD strlen(_First));

	mov	eax, DWORD PTR __First$[ebp]
	movsx	ecx, BYTE PTR [eax]
	test	ecx, ecx
	jne	SHORT $LN3@length
	mov	DWORD PTR tv68[ebp], 0
	jmp	SHORT $LN4@length
$LN3@length:
	mov	edx, DWORD PTR __First$[ebp]
	push	edx
	call	_strlen
	add	esp, 4
	mov	DWORD PTR tv68[ebp], eax
$LN4@length:
	mov	eax, DWORD PTR tv68[ebp]

; 524  : 		}

	mov	esp, ebp
	pop	ebp
	ret	0
?length@?$char_traits@D@std@@SAIPBD@Z ENDP		; std::char_traits<char>::length
_TEXT	ENDS
; Function compile flags: /Odtp
;	COMDAT ??_Estringdispid@CComTypeInfoHolder@ATL@@QAEPAXI@Z
_TEXT	SEGMENT
_this$ = -4						; size = 4
___flags$ = 8						; size = 4
??_Estringdispid@CComTypeInfoHolder@ATL@@QAEPAXI@Z PROC	; ATL::CComTypeInfoHolder::stringdispid::`vector deleting destructor', COMDAT
; _this$ = ecx
	push	ebp
	mov	ebp, esp
	push	ecx
	mov	DWORD PTR _this$[ebp], ecx
	mov	eax, DWORD PTR ___flags$[ebp]
	and	eax, 2
	je	SHORT $LN3@vector
	push	OFFSET ??1stringdispid@CComTypeInfoHolder@ATL@@QAE@XZ
	mov	ecx, DWORD PTR _this$[ebp]
	mov	edx, DWORD PTR [ecx-4]
	push	edx
	push	12					; 0000000cH
	mov	eax, DWORD PTR _this$[ebp]
	push	eax
	call	??_M@YGXPAXIHP6EX0@Z@Z
	mov	ecx, DWORD PTR ___flags$[ebp]
	and	ecx, 1
	je	SHORT $LN2@vector
	mov	edx, DWORD PTR _this$[ebp]
	sub	edx, 4
	push	edx
	call	??_V@YAXPAX@Z				; operator delete[]
	add	esp, 4
$LN2@vector:
	mov	eax, DWORD PTR _this$[ebp]
	sub	eax, 4
	jmp	SHORT $LN4@vector
$LN3@vector:
	mov	ecx, DWORD PTR _this$[ebp]
	call	??1stringdispid@CComTypeInfoHolder@ATL@@QAE@XZ
	mov	eax, DWORD PTR ___flags$[ebp]
	and	eax, 1
	je	SHORT $LN1@vector
	mov	ecx, DWORD PTR _this$[ebp]
	push	ecx
	call	??3@YAXPAX@Z				; operator delete
	add	esp, 4
$LN1@vector:
	mov	eax, DWORD PTR _this$[ebp]
$LN4@vector:
	mov	esp, ebp
	pop	ebp
	ret	4
??_Estringdispid@CComTypeInfoHolder@ATL@@QAEPAXI@Z ENDP	; ATL::CComTypeInfoHolder::stringdispid::`vector deleting destructor'
_TEXT	ENDS
; Function compile flags: /Odtp
;	COMDAT ??1stringdispid@CComTypeInfoHolder@ATL@@QAE@XZ
_TEXT	SEGMENT
_this$ = -4						; size = 4
??1stringdispid@CComTypeInfoHolder@ATL@@QAE@XZ PROC	; ATL::CComTypeInfoHolder::stringdispid::~stringdispid, COMDAT
; _this$ = ecx
	push	ebp
	mov	ebp, esp
	push	ecx
	mov	DWORD PTR _this$[ebp], ecx
	mov	ecx, DWORD PTR _this$[ebp]
	call	??1CComBSTR@ATL@@QAE@XZ			; ATL::CComBSTR::~CComBSTR
	mov	esp, ebp
	pop	ebp
	ret	0
??1stringdispid@CComTypeInfoHolder@ATL@@QAE@XZ ENDP	; ATL::CComTypeInfoHolder::stringdispid::~stringdispid
_TEXT	ENDS
; Function compile flags: /Odtp
; File c:\program files (x86)\microsoft visual studio 11.0\vc\atlmfc\include\atlcomcli.h
;	COMDAT ??1CComBSTR@ATL@@QAE@XZ
_TEXT	SEGMENT
_this$ = -4						; size = 4
??1CComBSTR@ATL@@QAE@XZ PROC				; ATL::CComBSTR::~CComBSTR, COMDAT
; _this$ = ecx

; 1656 : {

	push	ebp
	mov	ebp, esp
	push	ecx
	mov	DWORD PTR _this$[ebp], ecx

; 1657 :     ::SysFreeString(m_str);

	mov	eax, DWORD PTR _this$[ebp]
	mov	ecx, DWORD PTR [eax]
	push	ecx
	call	DWORD PTR __imp__SysFreeString@4

; 1658 : }

	mov	esp, ebp
	pop	ebp
	ret	0
??1CComBSTR@ATL@@QAE@XZ ENDP				; ATL::CComBSTR::~CComBSTR
_TEXT	ENDS
; Function compile flags: /Odtp
; File c:\program files (x86)\microsoft visual studio 11.0\vc\include\new.h
;	COMDAT ??3@YAXPAX0@Z
_TEXT	SEGMENT
___formal$ = 8						; size = 4
___formal$ = 12						; size = 4
??3@YAXPAX0@Z PROC					; operator delete, COMDAT

; 83   :         {return; }

	push	ebp
	mov	ebp, esp
	pop	ebp
	ret	0
??3@YAXPAX0@Z ENDP					; operator delete
_TEXT	ENDS
; Function compile flags: /Odtp
; File c:\program files (x86)\microsoft visual studio 11.0\vc\include\new.h
;	COMDAT ??2@YAPAXIPAX@Z
_TEXT	SEGMENT
___formal$ = 8						; size = 4
__Where$ = 12						; size = 4
??2@YAPAXIPAX@Z PROC					; operator new, COMDAT

; 81   :         {return (_Where); }

	push	ebp
	mov	ebp, esp
	mov	eax, DWORD PTR __Where$[ebp]
	pop	ebp
	ret	0
??2@YAPAXIPAX@Z ENDP					; operator new
_TEXT	ENDS
END
