; Listing generated by Microsoft (R) Optimizing Compiler Version 17.00.51106.1 

	TITLE	C:\Users\Zhitao Li\Documents\Visual Studio 2012\Projects\Freefalcon\ui95\cwindow.cpp
	.686P
	.XMM
	include listing.inc
	.model	flat

INCLUDELIB LIBCMT
INCLUDELIB OLDNAMES

PUBLIC	?beg@?$_Iosb@H@std@@2W4_Seekdir@12@B		; std::_Iosb<int>::beg
PUBLIC	?pmField@?$CVarTypeInfo@PAK@ATL@@2QQtagVARIANT@@PAKQ3@ ; ATL::CVarTypeInfo<unsigned long *>::pmField
PUBLIC	?cur@?$_Iosb@H@std@@2W4_Seekdir@12@B		; std::_Iosb<int>::cur
PUBLIC	?end@?$_Iosb@H@std@@2W4_Seekdir@12@B		; std::_Iosb<int>::end
PUBLIC	?VT@?$CVarTypeInfo@_J@ATL@@2GB			; ATL::CVarTypeInfo<__int64>::VT
PUBLIC	?pmField@?$CVarTypeInfo@_J@ATL@@2QQtagVARIANT@@_JQ3@ ; ATL::CVarTypeInfo<__int64>::pmField
PUBLIC	___pobjMapEntryFirst
PUBLIC	___pobjMapEntryLast
PUBLIC	?VT@?$CVarTypeInfo@PA_J@ATL@@2GB		; ATL::CVarTypeInfo<__int64 *>::VT
PUBLIC	?pmField@?$CVarTypeInfo@PA_J@ATL@@2QQtagVARIANT@@PA_JQ3@ ; ATL::CVarTypeInfo<__int64 *>::pmField
PUBLIC	?value@?$_Sizeof@U_Nil@std@@U12@U12@U12@U12@U12@U12@U12@@std@@2IB ; std::_Sizeof<std::_Nil,std::_Nil,std::_Nil,std::_Nil,std::_Nil,std::_Nil,std::_Nil,std::_Nil>::value
PUBLIC	?_Stream_err@failure@ios_base@std@@0W4io_errc@43@B ; std::ios_base::failure::_Stream_err
PUBLIC	?VT@?$CVarTypeInfo@_K@ATL@@2GB			; ATL::CVarTypeInfo<unsigned __int64>::VT
PUBLIC	??_C@_0BF@HDDNNDFH@Component?5Categories?$AA@	; `string'
PUBLIC	?pmField@?$CVarTypeInfo@_K@ATL@@2QQtagVARIANT@@_KQ3@ ; ATL::CVarTypeInfo<unsigned __int64>::pmField
PUBLIC	??_C@_08PICKODJL@FileType?$AA@			; `string'
PUBLIC	??_C@_09JKPGEJCH@Interface?$AA@			; `string'
PUBLIC	??_C@_08PPIOJEA@Hardware?$AA@			; `string'
PUBLIC	?_pPerfRegFunc@ATL@@3P6AJPAUHINSTANCE__@@@ZA	; ATL::_pPerfRegFunc
PUBLIC	??_C@_04IHBFOLAC@Mime?$AA@			; `string'
PUBLIC	?_pPerfUnRegFunc@ATL@@3P6AJXZA			; ATL::_pPerfUnRegFunc
PUBLIC	??_C@_03DDIMFGBA@SAM?$AA@			; `string'
PUBLIC	?_AtlRegisterPerUser@ATL@@3_NA			; ATL::_AtlRegisterPerUser
PUBLIC	??_C@_08LOPHEHKG@SECURITY?$AA@			; `string'
PUBLIC	??_C@_06FDHFNJBJ@SYSTEM?$AA@			; `string'
PUBLIC	??_C@_08KEKAJNJI@Software?$AA@			; `string'
PUBLIC	??_C@_07KJLOKDKB@TypeLib?$AA@			; `string'
PUBLIC	?VT@?$CVarTypeInfo@PA_K@ATL@@2GB		; ATL::CVarTypeInfo<unsigned __int64 *>::VT
PUBLIC	?pmField@?$CVarTypeInfo@PA_K@ATL@@2QQtagVARIANT@@PA_KQ3@ ; ATL::CVarTypeInfo<unsigned __int64 *>::pmField
PUBLIC	__GUID_00000000_0000_0000_c000_000000000046
PUBLIC	?VT@?$CVarTypeInfo@M@ATL@@2GB			; ATL::CVarTypeInfo<float>::VT
PUBLIC	?pmField@?$CVarTypeInfo@M@ATL@@2QQtagVARIANT@@MQ3@ ; ATL::CVarTypeInfo<float>::pmField
PUBLIC	__GUID_a6bc3ac0_dbaa_11ce_9de3_00aa004bb851
PUBLIC	?VT@?$CVarTypeInfo@PAM@ATL@@2GB			; ATL::CVarTypeInfo<float *>::VT
PUBLIC	__GUID_00020400_0000_0000_c000_000000000046
PUBLIC	?pmField@?$CVarTypeInfo@PAM@ATL@@2QQtagVARIANT@@PAMQ3@ ; ATL::CVarTypeInfo<float *>::pmField
PUBLIC	?VT@?$CVarTypeInfo@N@ATL@@2GB			; ATL::CVarTypeInfo<double>::VT
PUBLIC	?pmField@?$CVarTypeInfo@N@ATL@@2QQtagVARIANT@@NQ3@ ; ATL::CVarTypeInfo<double>::pmField
PUBLIC	?VT@?$CVarTypeInfo@PAN@ATL@@2GB			; ATL::CVarTypeInfo<double *>::VT
PUBLIC	?pmField@?$CVarTypeInfo@PAN@ATL@@2QQtagVARIANT@@PANQ3@ ; ATL::CVarTypeInfo<double *>::pmField
PUBLIC	?VT@?$CVarTypeInfo@PAUtagVARIANT@@@ATL@@2GB	; ATL::CVarTypeInfo<tagVARIANT *>::VT
PUBLIC	?has_denorm@_Num_base@std@@2W4float_denorm_style@2@B ; std::_Num_base::has_denorm
PUBLIC	__GUID_0002e012_0000_0000_c000_000000000046
PUBLIC	?has_denorm_loss@_Num_base@std@@2_NB		; std::_Num_base::has_denorm_loss
PUBLIC	?VT@?$CVarTypeInfo@PA_W@ATL@@2GB		; ATL::CVarTypeInfo<wchar_t *>::VT
PUBLIC	?pmField@?$CVarTypeInfo@PA_W@ATL@@2QQtagVARIANT@@PA_WQ3@ ; ATL::CVarTypeInfo<wchar_t *>::pmField
PUBLIC	?has_infinity@_Num_base@std@@2_NB		; std::_Num_base::has_infinity
PUBLIC	?has_quiet_NaN@_Num_base@std@@2_NB		; std::_Num_base::has_quiet_NaN
PUBLIC	?has_signaling_NaN@_Num_base@std@@2_NB		; std::_Num_base::has_signaling_NaN
PUBLIC	?is_bounded@_Num_base@std@@2_NB			; std::_Num_base::is_bounded
PUBLIC	?VT@?$CVarTypeInfo@PAPA_W@ATL@@2GB		; ATL::CVarTypeInfo<wchar_t * *>::VT
PUBLIC	?is_exact@_Num_base@std@@2_NB			; std::_Num_base::is_exact
PUBLIC	?pmField@?$CVarTypeInfo@PAPA_W@ATL@@2QQtagVARIANT@@PAPA_WQ3@ ; ATL::CVarTypeInfo<wchar_t * *>::pmField
PUBLIC	?is_iec559@_Num_base@std@@2_NB			; std::_Num_base::is_iec559
PUBLIC	?is_integer@_Num_base@std@@2_NB			; std::_Num_base::is_integer
PUBLIC	?is_modulo@_Num_base@std@@2_NB			; std::_Num_base::is_modulo
PUBLIC	?VT@?$CVarTypeInfo@PAUIUnknown@@@ATL@@2GB	; ATL::CVarTypeInfo<IUnknown *>::VT
PUBLIC	?is_signed@_Num_base@std@@2_NB			; std::_Num_base::is_signed
PUBLIC	?pmField@?$CVarTypeInfo@PAUIUnknown@@@ATL@@2QQtagVARIANT@@PAUIUnknown@@Q3@ ; ATL::CVarTypeInfo<IUnknown *>::pmField
PUBLIC	?is_specialized@_Num_base@std@@2_NB		; std::_Num_base::is_specialized
PUBLIC	?tinyness_before@_Num_base@std@@2_NB		; std::_Num_base::tinyness_before
PUBLIC	?traps@_Num_base@std@@2_NB			; std::_Num_base::traps
PUBLIC	?C_Win_Tokens@@3PAPADA				; C_Win_Tokens
PUBLIC	??_C@_09NLBFAKCN@?$FLNOTHING?$FN?$AA@		; `string'
PUBLIC	??_C@_07NDMCPPCN@?$FLSetup?$FN?$AA@		; `string'
PUBLIC	?round_style@_Num_base@std@@2W4float_round_style@2@B ; std::_Num_base::round_style
PUBLIC	?VT@?$CVarTypeInfo@PAPAUIUnknown@@@ATL@@2GB	; ATL::CVarTypeInfo<IUnknown * *>::VT
PUBLIC	??_C@_03KPANPEFB@?$FLX?$FN?$AA@			; `string'
PUBLIC	??_C@_03KOMPJOGG@?$FLY?$FN?$AA@			; `string'
PUBLIC	?pmField@?$CVarTypeInfo@PAPAUIUnknown@@@ATL@@2QQtagVARIANT@@PAPAUIUnknown@@Q3@ ; ATL::CVarTypeInfo<IUnknown * *>::pmField
PUBLIC	??_C@_04BENPOHFD@?$FLXY?$FN?$AA@		; `string'
PUBLIC	?digits@_Num_base@std@@2HB			; std::_Num_base::digits
PUBLIC	??_C@_03KEFBLDGM@?$FLW?$FN?$AA@			; `string'
PUBLIC	??_C@_03LDCLFHCB@?$FLH?$FN?$AA@			; `string'
PUBLIC	??_C@_08JPIFLAEG@?$FLRanges?$FN?$AA@		; `string'
PUBLIC	?digits10@_Num_base@std@@2HB			; std::_Num_base::digits10
PUBLIC	??_C@_0N@OIFFBCOJ@?$FLClientArea?$FN?$AA@	; `string'
PUBLIC	??_C@_06GDGPHIE@?$FLFont?$FN?$AA@		; `string'
PUBLIC	??_C@_07EJLANDEA@?$FLGroup?$FN?$AA@		; `string'
PUBLIC	?max_digits10@_Num_base@std@@2HB		; std::_Num_base::max_digits10
PUBLIC	__GUID_0000010c_0000_0000_c000_000000000046
PUBLIC	??_C@_0M@BJDPLCOH@?$FLFLAGBITON?$FN?$AA@	; `string'
PUBLIC	??_C@_0N@OEKFAPAO@?$FLFLAGBITOFF?$FN?$AA@	; `string'
PUBLIC	??_C@_07HAKAKNOM@?$FLDEPTH?$FN?$AA@		; `string'
PUBLIC	?max_exponent@_Num_base@std@@2HB		; std::_Num_base::max_exponent
PUBLIC	??_C@_0L@JKDBOFEC@?$FLOPENMENU?$FN?$AA@		; `string'
PUBLIC	?VT@?$CVarTypeInfo@PAUIDispatch@@@ATL@@2GB	; ATL::CVarTypeInfo<IDispatch *>::VT
PUBLIC	??_C@_0BB@NOAFCABC@?$FLOPENCLIENTMENU?$FN?$AA@	; `string'
PUBLIC	??_C@_08KCKBLKKP@?$FLCURSOR?$FN?$AA@		; `string'
PUBLIC	?max_exponent10@_Num_base@std@@2HB		; std::_Num_base::max_exponent10
PUBLIC	?pmField@?$CVarTypeInfo@PAUIDispatch@@@ATL@@2QQtagVARIANT@@PAUIDispatch@@Q3@ ; ATL::CVarTypeInfo<IDispatch *>::pmField
PUBLIC	??_C@_07HBFPNJIM@?$FLDRAGH?$FN?$AA@		; `string'
PUBLIC	??_C@_0N@IFCKHDOD@?$FLCLIENTFLAG?$FN?$AA@	; `string'
PUBLIC	?min_exponent@_Num_base@std@@2HB		; std::_Num_base::min_exponent
PUBLIC	??_C@_05GIBEAPNE@CLSID?$AA@			; `string'
PUBLIC	?SubTable@@3PAFA				; SubTable
PUBLIC	?TableVal@@3PAFA				; TableVal
PUBLIC	?min_exponent10@_Num_base@std@@2HB		; std::_Num_base::min_exponent10
PUBLIC	?radix@_Num_base@std@@2HB			; std::_Num_base::radix
PUBLIC	_IID_IAxWinHostWindow
PUBLIC	?VT@?$CVarTypeInfo@PAPAUIDispatch@@@ATL@@2GB	; ATL::CVarTypeInfo<IDispatch * *>::VT
PUBLIC	?pmField@?$CVarTypeInfo@PAPAUIDispatch@@@ATL@@2QQtagVARIANT@@PAPAUIDispatch@@Q3@ ; ATL::CVarTypeInfo<IDispatch * *>::pmField
PUBLIC	?VT@?$CVarTypeInfo@TtagCY@@@ATL@@2GB		; ATL::CVarTypeInfo<tagCY>::VT
PUBLIC	?Circle8@@3PAY01MA				; Circle8
PUBLIC	?pmField@?$CVarTypeInfo@TtagCY@@@ATL@@2QQtagVARIANT@@TtagCY@@Q3@ ; ATL::CVarTypeInfo<tagCY>::pmField
PUBLIC	??_C@_05PDIKPLII@AppID?$AA@			; `string'
PUBLIC	?VT@?$CVarTypeInfo@PATtagCY@@@ATL@@2GB		; ATL::CVarTypeInfo<tagCY *>::VT
PUBLIC	?is_bounded@_Num_int_base@std@@2_NB		; std::_Num_int_base::is_bounded
PUBLIC	?pmField@?$CVarTypeInfo@PATtagCY@@@ATL@@2QQtagVARIANT@@PATtagCY@@Q3@ ; ATL::CVarTypeInfo<tagCY *>::pmField
PUBLIC	?is_exact@_Num_int_base@std@@2_NB		; std::_Num_int_base::is_exact
PUBLIC	?is_integer@_Num_int_base@std@@2_NB		; std::_Num_int_base::is_integer
PUBLIC	?is_modulo@_Num_int_base@std@@2_NB		; std::_Num_int_base::is_modulo
PUBLIC	?is_specialized@_Num_int_base@std@@2_NB		; std::_Num_int_base::is_specialized
PUBLIC	?radix@_Num_int_base@std@@2HB			; std::_Num_int_base::radix
PUBLIC	?has_denorm@_Num_float_base@std@@2W4float_denorm_style@2@B ; std::_Num_float_base::has_denorm
PUBLIC	?has_denorm_loss@_Num_float_base@std@@2_NB	; std::_Num_float_base::has_denorm_loss
PUBLIC	?has_infinity@_Num_float_base@std@@2_NB		; std::_Num_float_base::has_infinity
PUBLIC	?has_quiet_NaN@_Num_float_base@std@@2_NB	; std::_Num_float_base::has_quiet_NaN
PUBLIC	?has_signaling_NaN@_Num_float_base@std@@2_NB	; std::_Num_float_base::has_signaling_NaN
PUBLIC	?is_bounded@_Num_float_base@std@@2_NB		; std::_Num_float_base::is_bounded
PUBLIC	?is_exact@_Num_float_base@std@@2_NB		; std::_Num_float_base::is_exact
PUBLIC	?is_iec559@_Num_float_base@std@@2_NB		; std::_Num_float_base::is_iec559
PUBLIC	?is_integer@_Num_float_base@std@@2_NB		; std::_Num_float_base::is_integer
PUBLIC	?chDirSep@ATL@@3DB				; ATL::chDirSep
PUBLIC	?chRightBracket@ATL@@3DB			; ATL::chRightBracket
PUBLIC	?is_modulo@_Num_float_base@std@@2_NB		; std::_Num_float_base::is_modulo
PUBLIC	?chLeftBracket@ATL@@3DB				; ATL::chLeftBracket
PUBLIC	?chQuote@ATL@@3DB				; ATL::chQuote
PUBLIC	?chEquals@ATL@@3DB				; ATL::chEquals
PUBLIC	?is_signed@_Num_float_base@std@@2_NB		; std::_Num_float_base::is_signed
PUBLIC	?szStringVal@ATL@@3QBDB				; ATL::szStringVal
PUBLIC	??_C@_01CPLAODJH@S?$AA@				; `string'
PUBLIC	?multiszStringVal@ATL@@3QBDB			; ATL::multiszStringVal
PUBLIC	_IID_IAxWinHostWindowLic
PUBLIC	?is_specialized@_Num_float_base@std@@2_NB	; std::_Num_float_base::is_specialized
PUBLIC	??_C@_01PLPBNMEI@M?$AA@				; `string'
PUBLIC	?szDwordVal@ATL@@3QBDB				; ATL::szDwordVal
PUBLIC	??_C@_01CKDDGHAB@D?$AA@				; `string'
PUBLIC	?tinyness_before@_Num_float_base@std@@2_NB	; std::_Num_float_base::tinyness_before
PUBLIC	?szBinaryVal@ATL@@3QBDB				; ATL::szBinaryVal
PUBLIC	??_C@_01HMGJMAIH@B?$AA@				; `string'
PUBLIC	?szValToken@ATL@@3QBDB				; ATL::szValToken
PUBLIC	?traps@_Num_float_base@std@@2_NB		; std::_Num_float_base::traps
PUBLIC	??_C@_03LAIAPFCB@Val?$AA@			; `string'
PUBLIC	?szForceRemove@ATL@@3QBDB			; ATL::szForceRemove
PUBLIC	??_C@_0M@DBGDLGLL@ForceRemove?$AA@		; `string'
PUBLIC	?round_style@_Num_float_base@std@@2W4float_round_style@2@B ; std::_Num_float_base::round_style
PUBLIC	?szNoRemove@ATL@@3QBDB				; ATL::szNoRemove
PUBLIC	??_C@_08KAAPDIAN@NoRemove?$AA@			; `string'
PUBLIC	?szDelete@ATL@@3QBDB				; ATL::szDelete
PUBLIC	?radix@_Num_float_base@std@@2HB			; std::_Num_float_base::radix
PUBLIC	??_C@_06JBKGCNBB@Delete?$AA@			; `string'
PUBLIC	?ATL_CREATE_OBJECT@CComApartment@ATL@@2IA	; ATL::CComApartment::ATL_CREATE_OBJECT
PUBLIC	?is_signed@?$numeric_limits@D@std@@2_NB		; std::numeric_limits<char>::is_signed
PUBLIC	?digits@?$numeric_limits@D@std@@2HB		; std::numeric_limits<char>::digits
PUBLIC	?digits10@?$numeric_limits@D@std@@2HB		; std::numeric_limits<char>::digits10
PUBLIC	_IID_IAxWinAmbientDispatch
PUBLIC	?collate@?$_Locbase@H@std@@2HB			; std::_Locbase<int>::collate
PUBLIC	?ctype@?$_Locbase@H@std@@2HB			; std::_Locbase<int>::ctype
PUBLIC	?monetary@?$_Locbase@H@std@@2HB			; std::_Locbase<int>::monetary
PUBLIC	?numeric@?$_Locbase@H@std@@2HB			; std::_Locbase<int>::numeric
PUBLIC	?time@?$_Locbase@H@std@@2HB			; std::_Locbase<int>::time
PUBLIC	?messages@?$_Locbase@H@std@@2HB			; std::_Locbase<int>::messages
PUBLIC	?all@?$_Locbase@H@std@@2HB			; std::_Locbase<int>::all
PUBLIC	?none@?$_Locbase@H@std@@2HB			; std::_Locbase<int>::none
PUBLIC	?is_signed@?$numeric_limits@_W@std@@2_NB	; std::numeric_limits<wchar_t>::is_signed
PUBLIC	?digits@?$numeric_limits@_W@std@@2HB		; std::numeric_limits<wchar_t>::digits
PUBLIC	?digits10@?$numeric_limits@_W@std@@2HB		; std::numeric_limits<wchar_t>::digits10
PUBLIC	?_pAtlAutoThreadModule@ATL@@3PAUIAtlAutoThreadModule@1@A ; ATL::_pAtlAutoThreadModule
PUBLIC	?is_modulo@?$numeric_limits@_N@std@@2_NB	; std::numeric_limits<bool>::is_modulo
PUBLIC	?is_signed@?$numeric_limits@_N@std@@2_NB	; std::numeric_limits<bool>::is_signed
PUBLIC	?digits@?$numeric_limits@_N@std@@2HB		; std::numeric_limits<bool>::digits
PUBLIC	?digits10@?$numeric_limits@_N@std@@2HB		; std::numeric_limits<bool>::digits10
PUBLIC	?value@?$_Sizeof@HU_Nil@std@@U12@U12@U12@U12@U12@U12@@std@@2IB ; std::_Sizeof<int,std::_Nil,std::_Nil,std::_Nil,std::_Nil,std::_Nil,std::_Nil,std::_Nil>::value
PUBLIC	?is_signed@?$numeric_limits@C@std@@2_NB		; std::numeric_limits<signed char>::is_signed
PUBLIC	?m_bInitFailed@CAtlBaseModule@ATL@@2_NA		; ATL::CAtlBaseModule::m_bInitFailed
PUBLIC	?digits@?$numeric_limits@C@std@@2HB		; std::numeric_limits<signed char>::digits
PUBLIC	?digits10@?$numeric_limits@C@std@@2HB		; std::numeric_limits<signed char>::digits10
PUBLIC	?table_size@?$ctype@D@std@@2IB			; std::ctype<char>::table_size
PUBLIC	?is_signed@?$numeric_limits@E@std@@2_NB		; std::numeric_limits<unsigned char>::is_signed
PUBLIC	?digits@?$numeric_limits@E@std@@2HB		; std::numeric_limits<unsigned char>::digits
PUBLIC	?digits10@?$numeric_limits@E@std@@2HB		; std::numeric_limits<unsigned char>::digits10
PUBLIC	?is_signed@?$numeric_limits@F@std@@2_NB		; std::numeric_limits<short>::is_signed
PUBLIC	?digits@?$numeric_limits@F@std@@2HB		; std::numeric_limits<short>::digits
PUBLIC	__GUID_00000000_0000_0000_0000_000000000000
PUBLIC	?digits10@?$numeric_limits@F@std@@2HB		; std::numeric_limits<short>::digits10
PUBLIC	?MAX_VALUE@CRegParser@ATL@@1HB			; ATL::CRegParser::MAX_VALUE
PUBLIC	?is_signed@?$numeric_limits@G@std@@2_NB		; std::numeric_limits<unsigned short>::is_signed
PUBLIC	?digits@?$numeric_limits@G@std@@2HB		; std::numeric_limits<unsigned short>::digits
PUBLIC	?digits10@?$numeric_limits@G@std@@2HB		; std::numeric_limits<unsigned short>::digits10
PUBLIC	?rgszNeverDelete@CRegParser@ATL@@1QBQBDB	; ATL::CRegParser::rgszNeverDelete
PUBLIC	?cbNeverDelete@CRegParser@ATL@@1HB		; ATL::CRegParser::cbNeverDelete
PUBLIC	?MAX_TYPE@CRegParser@ATL@@1HB			; ATL::CRegParser::MAX_TYPE
PUBLIC	?is_signed@?$numeric_limits@H@std@@2_NB		; std::numeric_limits<int>::is_signed
PUBLIC	?digits@?$numeric_limits@H@std@@2HB		; std::numeric_limits<int>::digits
PUBLIC	__GUID_fc4801a3_2ba9_11cf_a229_00aa003d7352
PUBLIC	?digits10@?$numeric_limits@H@std@@2HB		; std::numeric_limits<int>::digits10
PUBLIC	?is_signed@?$numeric_limits@I@std@@2_NB		; std::numeric_limits<unsigned int>::is_signed
PUBLIC	_IID_IAxWinAmbientDispatchEx
PUBLIC	?digits@?$numeric_limits@I@std@@2HB		; std::numeric_limits<unsigned int>::digits
PUBLIC	?digits10@?$numeric_limits@I@std@@2HB		; std::numeric_limits<unsigned int>::digits10
PUBLIC	_IID_IInternalConnection
PUBLIC	?is_signed@?$numeric_limits@J@std@@2_NB		; std::numeric_limits<long>::is_signed
PUBLIC	?digits@?$numeric_limits@J@std@@2HB		; std::numeric_limits<long>::digits
PUBLIC	?digits10@?$numeric_limits@J@std@@2HB		; std::numeric_limits<long>::digits10
PUBLIC	__GUID_1cf2b120_547d_101b_8e65_08002b2bd119
PUBLIC	?is_signed@?$numeric_limits@K@std@@2_NB		; std::numeric_limits<unsigned long>::is_signed
PUBLIC	?digits@?$numeric_limits@K@std@@2HB		; std::numeric_limits<unsigned long>::digits
PUBLIC	?digits10@?$numeric_limits@K@std@@2HB		; std::numeric_limits<unsigned long>::digits10
PUBLIC	?value@?$integral_constant@I$0A@@std@@2IB	; std::integral_constant<unsigned int,0>::value
PUBLIC	?_pAtlModule@ATL@@3PAVCAtlModule@1@A		; ATL::_pAtlModule
PUBLIC	?m_libid@CAtlModule@ATL@@2U_GUID@@A		; ATL::CAtlModule::m_libid
PUBLIC	?is_signed@?$numeric_limits@_J@std@@2_NB	; std::numeric_limits<__int64>::is_signed
PUBLIC	?digits@?$numeric_limits@_J@std@@2HB		; std::numeric_limits<__int64>::digits
PUBLIC	?digits10@?$numeric_limits@_J@std@@2HB		; std::numeric_limits<__int64>::digits10
PUBLIC	?is_signed@?$numeric_limits@_K@std@@2_NB	; std::numeric_limits<unsigned __int64>::is_signed
PUBLIC	?digits@?$numeric_limits@_K@std@@2HB		; std::numeric_limits<unsigned __int64>::digits
PUBLIC	?digits10@?$numeric_limits@_K@std@@2HB		; std::numeric_limits<unsigned __int64>::digits10
PUBLIC	__GUID_00000146_0000_0000_c000_000000000046
PUBLIC	?digits@?$numeric_limits@M@std@@2HB		; std::numeric_limits<float>::digits
PUBLIC	?digits10@?$numeric_limits@M@std@@2HB		; std::numeric_limits<float>::digits10
PUBLIC	?max_digits10@?$numeric_limits@M@std@@2HB	; std::numeric_limits<float>::max_digits10
PUBLIC	?max_exponent@?$numeric_limits@M@std@@2HB	; std::numeric_limits<float>::max_exponent
PUBLIC	?max_exponent10@?$numeric_limits@M@std@@2HB	; std::numeric_limits<float>::max_exponent10
PUBLIC	?min_exponent@?$numeric_limits@M@std@@2HB	; std::numeric_limits<float>::min_exponent
PUBLIC	?min_exponent10@?$numeric_limits@M@std@@2HB	; std::numeric_limits<float>::min_exponent10
PUBLIC	?VT@?$CVarTypeInfo@D@ATL@@2GB			; ATL::CVarTypeInfo<char>::VT
PUBLIC	?pmField@?$CVarTypeInfo@D@ATL@@2QQtagVARIANT@@DQ3@ ; ATL::CVarTypeInfo<char>::pmField
PUBLIC	?VT@?$CVarTypeInfo@E@ATL@@2GB			; ATL::CVarTypeInfo<unsigned char>::VT
PUBLIC	?pmField@?$CVarTypeInfo@E@ATL@@2QQtagVARIANT@@EQ3@ ; ATL::CVarTypeInfo<unsigned char>::pmField
PUBLIC	_CLSID_Registrar
PUBLIC	?digits@?$numeric_limits@N@std@@2HB		; std::numeric_limits<double>::digits
PUBLIC	?_Min@?$AtlLimits@H@ATL@@2HB			; ATL::AtlLimits<int>::_Min
PUBLIC	?VT@?$CVarTypeInfo@PAD@ATL@@2GB			; ATL::CVarTypeInfo<char *>::VT
PUBLIC	?_Max@?$AtlLimits@H@ATL@@2HB			; ATL::AtlLimits<int>::_Max
PUBLIC	?digits10@?$numeric_limits@N@std@@2HB		; std::numeric_limits<double>::digits10
PUBLIC	?pmField@?$CVarTypeInfo@PAD@ATL@@2QQtagVARIANT@@PADQ3@ ; ATL::CVarTypeInfo<char *>::pmField
PUBLIC	?max_digits10@?$numeric_limits@N@std@@2HB	; std::numeric_limits<double>::max_digits10
PUBLIC	?max_exponent@?$numeric_limits@N@std@@2HB	; std::numeric_limits<double>::max_exponent
PUBLIC	?_Min@?$AtlLimits@I@ATL@@2IB			; ATL::AtlLimits<unsigned int>::_Min
PUBLIC	?max_exponent10@?$numeric_limits@N@std@@2HB	; std::numeric_limits<double>::max_exponent10
PUBLIC	?_Max@?$AtlLimits@I@ATL@@2IB			; ATL::AtlLimits<unsigned int>::_Max
PUBLIC	?VT@?$CVarTypeInfo@PAE@ATL@@2GB			; ATL::CVarTypeInfo<unsigned char *>::VT
PUBLIC	__GUID_00000109_0000_0000_c000_000000000046
PUBLIC	?pmField@?$CVarTypeInfo@PAE@ATL@@2QQtagVARIANT@@PAEQ3@ ; ATL::CVarTypeInfo<unsigned char *>::pmField
PUBLIC	?min_exponent@?$numeric_limits@N@std@@2HB	; std::numeric_limits<double>::min_exponent
PUBLIC	__GUID_7fd52380_4e07_101b_ae2d_08002b2ec713
PUBLIC	?min_exponent10@?$numeric_limits@N@std@@2HB	; std::numeric_limits<double>::min_exponent10
PUBLIC	?_Min@?$AtlLimits@J@ATL@@2JB			; ATL::AtlLimits<long>::_Min
PUBLIC	__GUID_b196b284_bab4_101a_b69c_00aa00341d07
PUBLIC	?_Max@?$AtlLimits@J@ATL@@2JB			; ATL::AtlLimits<long>::_Max
PUBLIC	?VT@?$CVarTypeInfo@F@ATL@@2GB			; ATL::CVarTypeInfo<short>::VT
PUBLIC	_IID_IRegistrar
PUBLIC	?pmField@?$CVarTypeInfo@F@ATL@@2QQtagVARIANT@@FQ3@ ; ATL::CVarTypeInfo<short>::pmField
PUBLIC	?_Min@?$AtlLimits@K@ATL@@2KB			; ATL::AtlLimits<unsigned long>::_Min
PUBLIC	?_Max@?$AtlLimits@K@ATL@@2KB			; ATL::AtlLimits<unsigned long>::_Max
PUBLIC	?VT@?$CVarTypeInfo@PAF@ATL@@2GB			; ATL::CVarTypeInfo<short *>::VT
PUBLIC	?pmField@?$CVarTypeInfo@PAF@ATL@@2QQtagVARIANT@@PAFQ3@ ; ATL::CVarTypeInfo<short *>::pmField
PUBLIC	?_Min@?$AtlLimits@_J@ATL@@2_JB			; ATL::AtlLimits<__int64>::_Min
PUBLIC	__GUID_00000001_0000_0000_c000_000000000046
PUBLIC	?_Max@?$AtlLimits@_J@ATL@@2_JB			; ATL::AtlLimits<__int64>::_Max
PUBLIC	?digits@?$numeric_limits@O@std@@2HB		; std::numeric_limits<long double>::digits
PUBLIC	?VT@?$CVarTypeInfo@G@ATL@@2GB			; ATL::CVarTypeInfo<unsigned short>::VT
PUBLIC	?digits10@?$numeric_limits@O@std@@2HB		; std::numeric_limits<long double>::digits10
PUBLIC	?pmField@?$CVarTypeInfo@G@ATL@@2QQtagVARIANT@@GQ3@ ; ATL::CVarTypeInfo<unsigned short>::pmField
PUBLIC	?max_digits10@?$numeric_limits@O@std@@2HB	; std::numeric_limits<long double>::max_digits10
PUBLIC	__GUID_00020401_0000_0000_c000_000000000046
PUBLIC	?_Min@?$AtlLimits@_K@ATL@@2_KB			; ATL::AtlLimits<unsigned __int64>::_Min
PUBLIC	_LIBID_ATLLib
PUBLIC	?max_exponent@?$numeric_limits@O@std@@2HB	; std::numeric_limits<long double>::max_exponent
PUBLIC	?_Max@?$AtlLimits@_K@ATL@@2_KB			; ATL::AtlLimits<unsigned __int64>::_Max
PUBLIC	__GUID_00020412_0000_0000_c000_000000000046
PUBLIC	?max_exponent10@?$numeric_limits@O@std@@2HB	; std::numeric_limits<long double>::max_exponent10
PUBLIC	?VT@?$CVarTypeInfo@PAG@ATL@@2GB			; ATL::CVarTypeInfo<unsigned short *>::VT
PUBLIC	?skipws@?$_Iosb@H@std@@2W4_Fmtflags@12@B	; std::_Iosb<int>::skipws
PUBLIC	?pmField@?$CVarTypeInfo@PAG@ATL@@2QQtagVARIANT@@PAGQ3@ ; ATL::CVarTypeInfo<unsigned short *>::pmField
PUBLIC	?unitbuf@?$_Iosb@H@std@@2W4_Fmtflags@12@B	; std::_Iosb<int>::unitbuf
PUBLIC	?min_exponent@?$numeric_limits@O@std@@2HB	; std::numeric_limits<long double>::min_exponent
PUBLIC	?uppercase@?$_Iosb@H@std@@2W4_Fmtflags@12@B	; std::_Iosb<int>::uppercase
PUBLIC	?min_exponent10@?$numeric_limits@O@std@@2HB	; std::numeric_limits<long double>::min_exponent10
PUBLIC	?showbase@?$_Iosb@H@std@@2W4_Fmtflags@12@B	; std::_Iosb<int>::showbase
PUBLIC	?showpoint@?$_Iosb@H@std@@2W4_Fmtflags@12@B	; std::_Iosb<int>::showpoint
PUBLIC	?VT@?$CVarTypeInfo@H@ATL@@2GB			; ATL::CVarTypeInfo<int>::VT
PUBLIC	?pmField@?$CVarTypeInfo@H@ATL@@2QQtagVARIANT@@HQ3@ ; ATL::CVarTypeInfo<int>::pmField
PUBLIC	?showpos@?$_Iosb@H@std@@2W4_Fmtflags@12@B	; std::_Iosb<int>::showpos
PUBLIC	?left@?$_Iosb@H@std@@2W4_Fmtflags@12@B		; std::_Iosb<int>::left
PUBLIC	?right@?$_Iosb@H@std@@2W4_Fmtflags@12@B		; std::_Iosb<int>::right
PUBLIC	?internal@?$_Iosb@H@std@@2W4_Fmtflags@12@B	; std::_Iosb<int>::internal
PUBLIC	?VT@?$CVarTypeInfo@PAH@ATL@@2GB			; ATL::CVarTypeInfo<int *>::VT
PUBLIC	?dec@?$_Iosb@H@std@@2W4_Fmtflags@12@B		; std::_Iosb<int>::dec
PUBLIC	?pmField@?$CVarTypeInfo@PAH@ATL@@2QQtagVARIANT@@PAHQ3@ ; ATL::CVarTypeInfo<int *>::pmField
PUBLIC	?oct@?$_Iosb@H@std@@2W4_Fmtflags@12@B		; std::_Iosb<int>::oct
PUBLIC	?hex@?$_Iosb@H@std@@2W4_Fmtflags@12@B		; std::_Iosb<int>::hex
PUBLIC	?scientific@?$_Iosb@H@std@@2W4_Fmtflags@12@B	; std::_Iosb<int>::scientific
PUBLIC	?VT@?$CVarTypeInfo@I@ATL@@2GB			; ATL::CVarTypeInfo<unsigned int>::VT
PUBLIC	?fixed@?$_Iosb@H@std@@2W4_Fmtflags@12@B		; std::_Iosb<int>::fixed
PUBLIC	?pmField@?$CVarTypeInfo@I@ATL@@2QQtagVARIANT@@IQ3@ ; ATL::CVarTypeInfo<unsigned int>::pmField
PUBLIC	?hexfloat@?$_Iosb@H@std@@2W4_Fmtflags@12@B	; std::_Iosb<int>::hexfloat
PUBLIC	?boolalpha@?$_Iosb@H@std@@2W4_Fmtflags@12@B	; std::_Iosb<int>::boolalpha
PUBLIC	?_Stdio@?$_Iosb@H@std@@2W4_Fmtflags@12@B	; std::_Iosb<int>::_Stdio
PUBLIC	?value@?$integral_constant@_N$0A@@std@@2_NB	; std::integral_constant<bool,0>::value
PUBLIC	?adjustfield@?$_Iosb@H@std@@2W4_Fmtflags@12@B	; std::_Iosb<int>::adjustfield
PUBLIC	?VT@?$CVarTypeInfo@PAI@ATL@@2GB			; ATL::CVarTypeInfo<unsigned int *>::VT
PUBLIC	?pmField@?$CVarTypeInfo@PAI@ATL@@2QQtagVARIANT@@PAIQ3@ ; ATL::CVarTypeInfo<unsigned int *>::pmField
PUBLIC	?basefield@?$_Iosb@H@std@@2W4_Fmtflags@12@B	; std::_Iosb<int>::basefield
PUBLIC	?floatfield@?$_Iosb@H@std@@2W4_Fmtflags@12@B	; std::_Iosb<int>::floatfield
PUBLIC	?goodbit@?$_Iosb@H@std@@2W4_Iostate@12@B	; std::_Iosb<int>::goodbit
PUBLIC	?VT@?$CVarTypeInfo@J@ATL@@2GB			; ATL::CVarTypeInfo<long>::VT
PUBLIC	?eofbit@?$_Iosb@H@std@@2W4_Iostate@12@B		; std::_Iosb<int>::eofbit
PUBLIC	?value@?$integral_constant@_N$00@std@@2_NB	; std::integral_constant<bool,1>::value
PUBLIC	?pmField@?$CVarTypeInfo@J@ATL@@2QQtagVARIANT@@JQ3@ ; ATL::CVarTypeInfo<long>::pmField
PUBLIC	?failbit@?$_Iosb@H@std@@2W4_Iostate@12@B	; std::_Iosb<int>::failbit
PUBLIC	?_pModule@ATL@@3PAVCComModule@1@A		; ATL::_pModule
PUBLIC	?badbit@?$_Iosb@H@std@@2W4_Iostate@12@B		; std::_Iosb<int>::badbit
PUBLIC	?_Hardfail@?$_Iosb@H@std@@2W4_Iostate@12@B	; std::_Iosb<int>::_Hardfail
PUBLIC	?VT@?$CVarTypeInfo@PAJ@ATL@@2GB			; ATL::CVarTypeInfo<long *>::VT
PUBLIC	?in@?$_Iosb@H@std@@2W4_Openmode@12@B		; std::_Iosb<int>::in
PUBLIC	?pmField@?$CVarTypeInfo@PAJ@ATL@@2QQtagVARIANT@@PAJQ3@ ; ATL::CVarTypeInfo<long *>::pmField
PUBLIC	?out@?$_Iosb@H@std@@2W4_Openmode@12@B		; std::_Iosb<int>::out
PUBLIC	_IID_IDocHostUIHandlerDispatch
PUBLIC	?ate@?$_Iosb@H@std@@2W4_Openmode@12@B		; std::_Iosb<int>::ate
PUBLIC	?app@?$_Iosb@H@std@@2W4_Openmode@12@B		; std::_Iosb<int>::app
PUBLIC	?VT@?$CVarTypeInfo@K@ATL@@2GB			; ATL::CVarTypeInfo<unsigned long>::VT
PUBLIC	?trunc@?$_Iosb@H@std@@2W4_Openmode@12@B		; std::_Iosb<int>::trunc
PUBLIC	?pmField@?$CVarTypeInfo@K@ATL@@2QQtagVARIANT@@KQ3@ ; ATL::CVarTypeInfo<unsigned long>::pmField
PUBLIC	?_Nocreate@?$_Iosb@H@std@@2W4_Openmode@12@B	; std::_Iosb<int>::_Nocreate
PUBLIC	?_Noreplace@?$_Iosb@H@std@@2W4_Openmode@12@B	; std::_Iosb<int>::_Noreplace
PUBLIC	?binary@?$_Iosb@H@std@@2W4_Openmode@12@B	; std::_Iosb<int>::binary
PUBLIC	?VT@?$CVarTypeInfo@PAK@ATL@@2GB			; ATL::CVarTypeInfo<unsigned long *>::VT
;	COMDAT ?_pPerfRegFunc@ATL@@3P6AJPAUHINSTANCE__@@@ZA
_BSS	SEGMENT
?_pPerfRegFunc@ATL@@3P6AJPAUHINSTANCE__@@@ZA DD 01H DUP (?) ; ATL::_pPerfRegFunc
_BSS	ENDS
;	COMDAT ?_pPerfUnRegFunc@ATL@@3P6AJXZA
_BSS	SEGMENT
?_pPerfUnRegFunc@ATL@@3P6AJXZA DD 01H DUP (?)		; ATL::_pPerfUnRegFunc
_BSS	ENDS
;	COMDAT ?_AtlRegisterPerUser@ATL@@3_NA
_BSS	SEGMENT
?_AtlRegisterPerUser@ATL@@3_NA DB 01H DUP (?)		; ATL::_AtlRegisterPerUser
_BSS	ENDS
;	COMDAT ?ATL_CREATE_OBJECT@CComApartment@ATL@@2IA
_BSS	SEGMENT
?ATL_CREATE_OBJECT@CComApartment@ATL@@2IA DD 01H DUP (?) ; ATL::CComApartment::ATL_CREATE_OBJECT
_BSS	ENDS
;	COMDAT ?_pAtlAutoThreadModule@ATL@@3PAUIAtlAutoThreadModule@1@A
_BSS	SEGMENT
?_pAtlAutoThreadModule@ATL@@3PAUIAtlAutoThreadModule@1@A DD 01H DUP (?) ; ATL::_pAtlAutoThreadModule
_BSS	ENDS
;	COMDAT ?m_bInitFailed@CAtlBaseModule@ATL@@2_NA
_BSS	SEGMENT
?m_bInitFailed@CAtlBaseModule@ATL@@2_NA DB 01H DUP (?)	; ATL::CAtlBaseModule::m_bInitFailed
_BSS	ENDS
;	COMDAT ?_pAtlModule@ATL@@3PAVCAtlModule@1@A
_BSS	SEGMENT
?_pAtlModule@ATL@@3PAVCAtlModule@1@A DD 01H DUP (?)	; ATL::_pAtlModule
_BSS	ENDS
;	COMDAT ?m_libid@CAtlModule@ATL@@2U_GUID@@A
_BSS	SEGMENT
?m_libid@CAtlModule@ATL@@2U_GUID@@A DB 010H DUP (?)	; ATL::CAtlModule::m_libid
_BSS	ENDS
;	COMDAT ?_pModule@ATL@@3PAVCComModule@1@A
_BSS	SEGMENT
?_pModule@ATL@@3PAVCComModule@1@A DD 01H DUP (?)	; ATL::_pModule
_BSS	ENDS
;	COMDAT ?VT@?$CVarTypeInfo@PAK@ATL@@2GB
CONST	SEGMENT
?VT@?$CVarTypeInfo@PAK@ATL@@2GB DW 04013H		; ATL::CVarTypeInfo<unsigned long *>::VT
CONST	ENDS
;	COMDAT ?binary@?$_Iosb@H@std@@2W4_Openmode@12@B
CONST	SEGMENT
?binary@?$_Iosb@H@std@@2W4_Openmode@12@B DD 020H	; std::_Iosb<int>::binary
CONST	ENDS
;	COMDAT ?_Noreplace@?$_Iosb@H@std@@2W4_Openmode@12@B
CONST	SEGMENT
?_Noreplace@?$_Iosb@H@std@@2W4_Openmode@12@B DD 080H	; std::_Iosb<int>::_Noreplace
CONST	ENDS
;	COMDAT ?_Nocreate@?$_Iosb@H@std@@2W4_Openmode@12@B
CONST	SEGMENT
?_Nocreate@?$_Iosb@H@std@@2W4_Openmode@12@B DD 040H	; std::_Iosb<int>::_Nocreate
CONST	ENDS
;	COMDAT ?pmField@?$CVarTypeInfo@K@ATL@@2QQtagVARIANT@@KQ3@
CONST	SEGMENT
?pmField@?$CVarTypeInfo@K@ATL@@2QQtagVARIANT@@KQ3@ DD 08H ; ATL::CVarTypeInfo<unsigned long>::pmField
CONST	ENDS
;	COMDAT ?trunc@?$_Iosb@H@std@@2W4_Openmode@12@B
CONST	SEGMENT
?trunc@?$_Iosb@H@std@@2W4_Openmode@12@B DD 010H		; std::_Iosb<int>::trunc
CONST	ENDS
;	COMDAT ?VT@?$CVarTypeInfo@K@ATL@@2GB
CONST	SEGMENT
?VT@?$CVarTypeInfo@K@ATL@@2GB DW 013H			; ATL::CVarTypeInfo<unsigned long>::VT
CONST	ENDS
;	COMDAT ?app@?$_Iosb@H@std@@2W4_Openmode@12@B
CONST	SEGMENT
?app@?$_Iosb@H@std@@2W4_Openmode@12@B DD 08H		; std::_Iosb<int>::app
CONST	ENDS
;	COMDAT ?ate@?$_Iosb@H@std@@2W4_Openmode@12@B
CONST	SEGMENT
?ate@?$_Iosb@H@std@@2W4_Openmode@12@B DD 04H		; std::_Iosb<int>::ate
CONST	ENDS
;	COMDAT _IID_IDocHostUIHandlerDispatch
CONST	SEGMENT
_IID_IDocHostUIHandlerDispatch DD 0425b5af0H
	DW	065f1H
	DW	011d1H
	DB	096H
	DB	011H
	DB	00H
	DB	00H
	DB	0f8H
	DB	01eH
	DB	0dH
	DB	0dH
CONST	ENDS
;	COMDAT ?out@?$_Iosb@H@std@@2W4_Openmode@12@B
CONST	SEGMENT
?out@?$_Iosb@H@std@@2W4_Openmode@12@B DD 02H		; std::_Iosb<int>::out
CONST	ENDS
;	COMDAT ?pmField@?$CVarTypeInfo@PAJ@ATL@@2QQtagVARIANT@@PAJQ3@
CONST	SEGMENT
?pmField@?$CVarTypeInfo@PAJ@ATL@@2QQtagVARIANT@@PAJQ3@ DD 08H ; ATL::CVarTypeInfo<long *>::pmField
CONST	ENDS
;	COMDAT ?in@?$_Iosb@H@std@@2W4_Openmode@12@B
CONST	SEGMENT
?in@?$_Iosb@H@std@@2W4_Openmode@12@B DD 01H		; std::_Iosb<int>::in
CONST	ENDS
;	COMDAT ?VT@?$CVarTypeInfo@PAJ@ATL@@2GB
CONST	SEGMENT
?VT@?$CVarTypeInfo@PAJ@ATL@@2GB DW 04003H		; ATL::CVarTypeInfo<long *>::VT
CONST	ENDS
;	COMDAT ?_Hardfail@?$_Iosb@H@std@@2W4_Iostate@12@B
CONST	SEGMENT
?_Hardfail@?$_Iosb@H@std@@2W4_Iostate@12@B DD 010H	; std::_Iosb<int>::_Hardfail
CONST	ENDS
;	COMDAT ?badbit@?$_Iosb@H@std@@2W4_Iostate@12@B
CONST	SEGMENT
?badbit@?$_Iosb@H@std@@2W4_Iostate@12@B DD 04H		; std::_Iosb<int>::badbit
CONST	ENDS
;	COMDAT ?failbit@?$_Iosb@H@std@@2W4_Iostate@12@B
CONST	SEGMENT
?failbit@?$_Iosb@H@std@@2W4_Iostate@12@B DD 02H		; std::_Iosb<int>::failbit
CONST	ENDS
;	COMDAT ?pmField@?$CVarTypeInfo@J@ATL@@2QQtagVARIANT@@JQ3@
CONST	SEGMENT
?pmField@?$CVarTypeInfo@J@ATL@@2QQtagVARIANT@@JQ3@ DD 08H ; ATL::CVarTypeInfo<long>::pmField
CONST	ENDS
;	COMDAT ?value@?$integral_constant@_N$00@std@@2_NB
CONST	SEGMENT
?value@?$integral_constant@_N$00@std@@2_NB DB 01H	; std::integral_constant<bool,1>::value
CONST	ENDS
;	COMDAT ?eofbit@?$_Iosb@H@std@@2W4_Iostate@12@B
CONST	SEGMENT
?eofbit@?$_Iosb@H@std@@2W4_Iostate@12@B DD 01H		; std::_Iosb<int>::eofbit
CONST	ENDS
;	COMDAT ?VT@?$CVarTypeInfo@J@ATL@@2GB
CONST	SEGMENT
?VT@?$CVarTypeInfo@J@ATL@@2GB DW 03H			; ATL::CVarTypeInfo<long>::VT
CONST	ENDS
;	COMDAT ?goodbit@?$_Iosb@H@std@@2W4_Iostate@12@B
CONST	SEGMENT
?goodbit@?$_Iosb@H@std@@2W4_Iostate@12@B DD 00H		; std::_Iosb<int>::goodbit
CONST	ENDS
;	COMDAT ?floatfield@?$_Iosb@H@std@@2W4_Fmtflags@12@B
CONST	SEGMENT
?floatfield@?$_Iosb@H@std@@2W4_Fmtflags@12@B DD 03000H	; std::_Iosb<int>::floatfield
CONST	ENDS
;	COMDAT ?basefield@?$_Iosb@H@std@@2W4_Fmtflags@12@B
CONST	SEGMENT
?basefield@?$_Iosb@H@std@@2W4_Fmtflags@12@B DD 0e00H	; std::_Iosb<int>::basefield
CONST	ENDS
;	COMDAT ?pmField@?$CVarTypeInfo@PAI@ATL@@2QQtagVARIANT@@PAIQ3@
CONST	SEGMENT
?pmField@?$CVarTypeInfo@PAI@ATL@@2QQtagVARIANT@@PAIQ3@ DD 08H ; ATL::CVarTypeInfo<unsigned int *>::pmField
CONST	ENDS
;	COMDAT ?VT@?$CVarTypeInfo@PAI@ATL@@2GB
CONST	SEGMENT
?VT@?$CVarTypeInfo@PAI@ATL@@2GB DW 04013H		; ATL::CVarTypeInfo<unsigned int *>::VT
CONST	ENDS
;	COMDAT ?adjustfield@?$_Iosb@H@std@@2W4_Fmtflags@12@B
CONST	SEGMENT
?adjustfield@?$_Iosb@H@std@@2W4_Fmtflags@12@B DD 01c0H	; std::_Iosb<int>::adjustfield
CONST	ENDS
;	COMDAT ?value@?$integral_constant@_N$0A@@std@@2_NB
CONST	SEGMENT
?value@?$integral_constant@_N$0A@@std@@2_NB DB 00H	; std::integral_constant<bool,0>::value
CONST	ENDS
;	COMDAT ?_Stdio@?$_Iosb@H@std@@2W4_Fmtflags@12@B
CONST	SEGMENT
?_Stdio@?$_Iosb@H@std@@2W4_Fmtflags@12@B DD 08000H	; std::_Iosb<int>::_Stdio
CONST	ENDS
;	COMDAT ?boolalpha@?$_Iosb@H@std@@2W4_Fmtflags@12@B
CONST	SEGMENT
?boolalpha@?$_Iosb@H@std@@2W4_Fmtflags@12@B DD 04000H	; std::_Iosb<int>::boolalpha
CONST	ENDS
;	COMDAT ?hexfloat@?$_Iosb@H@std@@2W4_Fmtflags@12@B
CONST	SEGMENT
?hexfloat@?$_Iosb@H@std@@2W4_Fmtflags@12@B DD 03000H	; std::_Iosb<int>::hexfloat
CONST	ENDS
;	COMDAT ?pmField@?$CVarTypeInfo@I@ATL@@2QQtagVARIANT@@IQ3@
CONST	SEGMENT
?pmField@?$CVarTypeInfo@I@ATL@@2QQtagVARIANT@@IQ3@ DD 08H ; ATL::CVarTypeInfo<unsigned int>::pmField
CONST	ENDS
;	COMDAT ?fixed@?$_Iosb@H@std@@2W4_Fmtflags@12@B
CONST	SEGMENT
?fixed@?$_Iosb@H@std@@2W4_Fmtflags@12@B DD 02000H	; std::_Iosb<int>::fixed
CONST	ENDS
;	COMDAT ?VT@?$CVarTypeInfo@I@ATL@@2GB
CONST	SEGMENT
?VT@?$CVarTypeInfo@I@ATL@@2GB DW 013H			; ATL::CVarTypeInfo<unsigned int>::VT
CONST	ENDS
;	COMDAT ?scientific@?$_Iosb@H@std@@2W4_Fmtflags@12@B
CONST	SEGMENT
?scientific@?$_Iosb@H@std@@2W4_Fmtflags@12@B DD 01000H	; std::_Iosb<int>::scientific
CONST	ENDS
;	COMDAT ?hex@?$_Iosb@H@std@@2W4_Fmtflags@12@B
CONST	SEGMENT
?hex@?$_Iosb@H@std@@2W4_Fmtflags@12@B DD 0800H		; std::_Iosb<int>::hex
CONST	ENDS
;	COMDAT ?oct@?$_Iosb@H@std@@2W4_Fmtflags@12@B
CONST	SEGMENT
?oct@?$_Iosb@H@std@@2W4_Fmtflags@12@B DD 0400H		; std::_Iosb<int>::oct
CONST	ENDS
;	COMDAT ?pmField@?$CVarTypeInfo@PAH@ATL@@2QQtagVARIANT@@PAHQ3@
CONST	SEGMENT
?pmField@?$CVarTypeInfo@PAH@ATL@@2QQtagVARIANT@@PAHQ3@ DD 08H ; ATL::CVarTypeInfo<int *>::pmField
CONST	ENDS
;	COMDAT ?dec@?$_Iosb@H@std@@2W4_Fmtflags@12@B
CONST	SEGMENT
?dec@?$_Iosb@H@std@@2W4_Fmtflags@12@B DD 0200H		; std::_Iosb<int>::dec
CONST	ENDS
;	COMDAT ?VT@?$CVarTypeInfo@PAH@ATL@@2GB
CONST	SEGMENT
?VT@?$CVarTypeInfo@PAH@ATL@@2GB DW 04003H		; ATL::CVarTypeInfo<int *>::VT
CONST	ENDS
;	COMDAT ?internal@?$_Iosb@H@std@@2W4_Fmtflags@12@B
CONST	SEGMENT
?internal@?$_Iosb@H@std@@2W4_Fmtflags@12@B DD 0100H	; std::_Iosb<int>::internal
CONST	ENDS
;	COMDAT ?right@?$_Iosb@H@std@@2W4_Fmtflags@12@B
CONST	SEGMENT
?right@?$_Iosb@H@std@@2W4_Fmtflags@12@B DD 080H		; std::_Iosb<int>::right
CONST	ENDS
;	COMDAT ?left@?$_Iosb@H@std@@2W4_Fmtflags@12@B
CONST	SEGMENT
?left@?$_Iosb@H@std@@2W4_Fmtflags@12@B DD 040H		; std::_Iosb<int>::left
CONST	ENDS
;	COMDAT ?showpos@?$_Iosb@H@std@@2W4_Fmtflags@12@B
CONST	SEGMENT
?showpos@?$_Iosb@H@std@@2W4_Fmtflags@12@B DD 020H	; std::_Iosb<int>::showpos
CONST	ENDS
;	COMDAT ?pmField@?$CVarTypeInfo@H@ATL@@2QQtagVARIANT@@HQ3@
CONST	SEGMENT
?pmField@?$CVarTypeInfo@H@ATL@@2QQtagVARIANT@@HQ3@ DD 08H ; ATL::CVarTypeInfo<int>::pmField
CONST	ENDS
;	COMDAT ?VT@?$CVarTypeInfo@H@ATL@@2GB
CONST	SEGMENT
?VT@?$CVarTypeInfo@H@ATL@@2GB DW 03H			; ATL::CVarTypeInfo<int>::VT
CONST	ENDS
;	COMDAT ?showpoint@?$_Iosb@H@std@@2W4_Fmtflags@12@B
CONST	SEGMENT
?showpoint@?$_Iosb@H@std@@2W4_Fmtflags@12@B DD 010H	; std::_Iosb<int>::showpoint
CONST	ENDS
;	COMDAT ?showbase@?$_Iosb@H@std@@2W4_Fmtflags@12@B
CONST	SEGMENT
?showbase@?$_Iosb@H@std@@2W4_Fmtflags@12@B DD 08H	; std::_Iosb<int>::showbase
CONST	ENDS
;	COMDAT ?min_exponent10@?$numeric_limits@O@std@@2HB
CONST	SEGMENT
?min_exponent10@?$numeric_limits@O@std@@2HB DD 0fffffecdH ; std::numeric_limits<long double>::min_exponent10
CONST	ENDS
;	COMDAT ?uppercase@?$_Iosb@H@std@@2W4_Fmtflags@12@B
CONST	SEGMENT
?uppercase@?$_Iosb@H@std@@2W4_Fmtflags@12@B DD 04H	; std::_Iosb<int>::uppercase
CONST	ENDS
;	COMDAT ?min_exponent@?$numeric_limits@O@std@@2HB
CONST	SEGMENT
?min_exponent@?$numeric_limits@O@std@@2HB DD 0fffffc03H	; std::numeric_limits<long double>::min_exponent
CONST	ENDS
;	COMDAT ?unitbuf@?$_Iosb@H@std@@2W4_Fmtflags@12@B
CONST	SEGMENT
?unitbuf@?$_Iosb@H@std@@2W4_Fmtflags@12@B DD 02H	; std::_Iosb<int>::unitbuf
CONST	ENDS
;	COMDAT ?pmField@?$CVarTypeInfo@PAG@ATL@@2QQtagVARIANT@@PAGQ3@
CONST	SEGMENT
?pmField@?$CVarTypeInfo@PAG@ATL@@2QQtagVARIANT@@PAGQ3@ DD 08H ; ATL::CVarTypeInfo<unsigned short *>::pmField
CONST	ENDS
;	COMDAT ?skipws@?$_Iosb@H@std@@2W4_Fmtflags@12@B
CONST	SEGMENT
?skipws@?$_Iosb@H@std@@2W4_Fmtflags@12@B DD 01H		; std::_Iosb<int>::skipws
CONST	ENDS
;	COMDAT ?VT@?$CVarTypeInfo@PAG@ATL@@2GB
CONST	SEGMENT
?VT@?$CVarTypeInfo@PAG@ATL@@2GB DW 04012H		; ATL::CVarTypeInfo<unsigned short *>::VT
CONST	ENDS
;	COMDAT ?max_exponent10@?$numeric_limits@O@std@@2HB
CONST	SEGMENT
?max_exponent10@?$numeric_limits@O@std@@2HB DD 0134H	; std::numeric_limits<long double>::max_exponent10
CONST	ENDS
;	COMDAT __GUID_00020412_0000_0000_c000_000000000046
CONST	SEGMENT
__GUID_00020412_0000_0000_c000_000000000046 DD 020412H
	DW	00H
	DW	00H
	DB	0c0H
	DB	00H
	DB	00H
	DB	00H
	DB	00H
	DB	00H
	DB	00H
	DB	046H
CONST	ENDS
;	COMDAT ?_Max@?$AtlLimits@_K@ATL@@2_KB
CONST	SEGMENT
?_Max@?$AtlLimits@_K@ATL@@2_KB DQ ffffffffffffffffH	; ATL::AtlLimits<unsigned __int64>::_Max
CONST	ENDS
;	COMDAT ?max_exponent@?$numeric_limits@O@std@@2HB
CONST	SEGMENT
?max_exponent@?$numeric_limits@O@std@@2HB DD 0400H	; std::numeric_limits<long double>::max_exponent
CONST	ENDS
;	COMDAT _LIBID_ATLLib
CONST	SEGMENT
_LIBID_ATLLib DD 044ec0535H
	DW	0400fH
	DW	011d0H
	DB	09dH
	DB	0cdH
	DB	00H
	DB	0a0H
	DB	0c9H
	DB	03H
	DB	091H
	DB	0d3H
CONST	ENDS
;	COMDAT ?_Min@?$AtlLimits@_K@ATL@@2_KB
CONST	SEGMENT
?_Min@?$AtlLimits@_K@ATL@@2_KB DQ 0000000000000000H	; ATL::AtlLimits<unsigned __int64>::_Min
CONST	ENDS
;	COMDAT __GUID_00020401_0000_0000_c000_000000000046
CONST	SEGMENT
__GUID_00020401_0000_0000_c000_000000000046 DD 020401H
	DW	00H
	DW	00H
	DB	0c0H
	DB	00H
	DB	00H
	DB	00H
	DB	00H
	DB	00H
	DB	00H
	DB	046H
CONST	ENDS
;	COMDAT ?max_digits10@?$numeric_limits@O@std@@2HB
CONST	SEGMENT
?max_digits10@?$numeric_limits@O@std@@2HB DD 011H	; std::numeric_limits<long double>::max_digits10
CONST	ENDS
;	COMDAT ?pmField@?$CVarTypeInfo@G@ATL@@2QQtagVARIANT@@GQ3@
CONST	SEGMENT
?pmField@?$CVarTypeInfo@G@ATL@@2QQtagVARIANT@@GQ3@ DD 08H ; ATL::CVarTypeInfo<unsigned short>::pmField
CONST	ENDS
;	COMDAT ?digits10@?$numeric_limits@O@std@@2HB
CONST	SEGMENT
?digits10@?$numeric_limits@O@std@@2HB DD 0fH		; std::numeric_limits<long double>::digits10
CONST	ENDS
;	COMDAT ?VT@?$CVarTypeInfo@G@ATL@@2GB
CONST	SEGMENT
?VT@?$CVarTypeInfo@G@ATL@@2GB DW 012H			; ATL::CVarTypeInfo<unsigned short>::VT
CONST	ENDS
;	COMDAT ?digits@?$numeric_limits@O@std@@2HB
CONST	SEGMENT
?digits@?$numeric_limits@O@std@@2HB DD 035H		; std::numeric_limits<long double>::digits
CONST	ENDS
;	COMDAT ?_Max@?$AtlLimits@_J@ATL@@2_JB
CONST	SEGMENT
?_Max@?$AtlLimits@_J@ATL@@2_JB DQ 7fffffffffffffffH	; ATL::AtlLimits<__int64>::_Max
CONST	ENDS
;	COMDAT __GUID_00000001_0000_0000_c000_000000000046
CONST	SEGMENT
__GUID_00000001_0000_0000_c000_000000000046 DD 01H
	DW	00H
	DW	00H
	DB	0c0H
	DB	00H
	DB	00H
	DB	00H
	DB	00H
	DB	00H
	DB	00H
	DB	046H
CONST	ENDS
;	COMDAT ?_Min@?$AtlLimits@_J@ATL@@2_JB
CONST	SEGMENT
?_Min@?$AtlLimits@_J@ATL@@2_JB DQ 8000000000000000H	; ATL::AtlLimits<__int64>::_Min
CONST	ENDS
;	COMDAT ?pmField@?$CVarTypeInfo@PAF@ATL@@2QQtagVARIANT@@PAFQ3@
CONST	SEGMENT
?pmField@?$CVarTypeInfo@PAF@ATL@@2QQtagVARIANT@@PAFQ3@ DD 08H ; ATL::CVarTypeInfo<short *>::pmField
CONST	ENDS
;	COMDAT ?VT@?$CVarTypeInfo@PAF@ATL@@2GB
CONST	SEGMENT
?VT@?$CVarTypeInfo@PAF@ATL@@2GB DW 04002H		; ATL::CVarTypeInfo<short *>::VT
CONST	ENDS
;	COMDAT ?_Max@?$AtlLimits@K@ATL@@2KB
CONST	SEGMENT
?_Max@?$AtlLimits@K@ATL@@2KB DD 0ffffffffH		; ATL::AtlLimits<unsigned long>::_Max
CONST	ENDS
;	COMDAT ?_Min@?$AtlLimits@K@ATL@@2KB
CONST	SEGMENT
?_Min@?$AtlLimits@K@ATL@@2KB DD 00H			; ATL::AtlLimits<unsigned long>::_Min
CONST	ENDS
;	COMDAT ?pmField@?$CVarTypeInfo@F@ATL@@2QQtagVARIANT@@FQ3@
CONST	SEGMENT
?pmField@?$CVarTypeInfo@F@ATL@@2QQtagVARIANT@@FQ3@ DD 08H ; ATL::CVarTypeInfo<short>::pmField
CONST	ENDS
;	COMDAT _IID_IRegistrar
CONST	SEGMENT
_IID_IRegistrar DD 044ec053bH
	DW	0400fH
	DW	011d0H
	DB	09dH
	DB	0cdH
	DB	00H
	DB	0a0H
	DB	0c9H
	DB	03H
	DB	091H
	DB	0d3H
CONST	ENDS
;	COMDAT ?VT@?$CVarTypeInfo@F@ATL@@2GB
CONST	SEGMENT
?VT@?$CVarTypeInfo@F@ATL@@2GB DW 02H			; ATL::CVarTypeInfo<short>::VT
CONST	ENDS
;	COMDAT ?_Max@?$AtlLimits@J@ATL@@2JB
CONST	SEGMENT
?_Max@?$AtlLimits@J@ATL@@2JB DD 07fffffffH		; ATL::AtlLimits<long>::_Max
CONST	ENDS
;	COMDAT __GUID_b196b284_bab4_101a_b69c_00aa00341d07
CONST	SEGMENT
__GUID_b196b284_bab4_101a_b69c_00aa00341d07 DD 0b196b284H
	DW	0bab4H
	DW	0101aH
	DB	0b6H
	DB	09cH
	DB	00H
	DB	0aaH
	DB	00H
	DB	034H
	DB	01dH
	DB	07H
CONST	ENDS
;	COMDAT ?_Min@?$AtlLimits@J@ATL@@2JB
CONST	SEGMENT
?_Min@?$AtlLimits@J@ATL@@2JB DD 080000000H		; ATL::AtlLimits<long>::_Min
CONST	ENDS
;	COMDAT ?min_exponent10@?$numeric_limits@N@std@@2HB
CONST	SEGMENT
?min_exponent10@?$numeric_limits@N@std@@2HB DD 0fffffecdH ; std::numeric_limits<double>::min_exponent10
CONST	ENDS
;	COMDAT __GUID_7fd52380_4e07_101b_ae2d_08002b2ec713
CONST	SEGMENT
__GUID_7fd52380_4e07_101b_ae2d_08002b2ec713 DD 07fd52380H
	DW	04e07H
	DW	0101bH
	DB	0aeH
	DB	02dH
	DB	08H
	DB	00H
	DB	02bH
	DB	02eH
	DB	0c7H
	DB	013H
CONST	ENDS
;	COMDAT ?min_exponent@?$numeric_limits@N@std@@2HB
CONST	SEGMENT
?min_exponent@?$numeric_limits@N@std@@2HB DD 0fffffc03H	; std::numeric_limits<double>::min_exponent
CONST	ENDS
;	COMDAT ?pmField@?$CVarTypeInfo@PAE@ATL@@2QQtagVARIANT@@PAEQ3@
CONST	SEGMENT
?pmField@?$CVarTypeInfo@PAE@ATL@@2QQtagVARIANT@@PAEQ3@ DD 08H ; ATL::CVarTypeInfo<unsigned char *>::pmField
CONST	ENDS
;	COMDAT __GUID_00000109_0000_0000_c000_000000000046
CONST	SEGMENT
__GUID_00000109_0000_0000_c000_000000000046 DD 0109H
	DW	00H
	DW	00H
	DB	0c0H
	DB	00H
	DB	00H
	DB	00H
	DB	00H
	DB	00H
	DB	00H
	DB	046H
CONST	ENDS
;	COMDAT ?VT@?$CVarTypeInfo@PAE@ATL@@2GB
CONST	SEGMENT
?VT@?$CVarTypeInfo@PAE@ATL@@2GB DW 04011H		; ATL::CVarTypeInfo<unsigned char *>::VT
CONST	ENDS
;	COMDAT ?_Max@?$AtlLimits@I@ATL@@2IB
CONST	SEGMENT
?_Max@?$AtlLimits@I@ATL@@2IB DD 0ffffffffH		; ATL::AtlLimits<unsigned int>::_Max
CONST	ENDS
;	COMDAT ?max_exponent10@?$numeric_limits@N@std@@2HB
CONST	SEGMENT
?max_exponent10@?$numeric_limits@N@std@@2HB DD 0134H	; std::numeric_limits<double>::max_exponent10
CONST	ENDS
;	COMDAT ?_Min@?$AtlLimits@I@ATL@@2IB
CONST	SEGMENT
?_Min@?$AtlLimits@I@ATL@@2IB DD 00H			; ATL::AtlLimits<unsigned int>::_Min
CONST	ENDS
;	COMDAT ?max_exponent@?$numeric_limits@N@std@@2HB
CONST	SEGMENT
?max_exponent@?$numeric_limits@N@std@@2HB DD 0400H	; std::numeric_limits<double>::max_exponent
CONST	ENDS
;	COMDAT ?max_digits10@?$numeric_limits@N@std@@2HB
CONST	SEGMENT
?max_digits10@?$numeric_limits@N@std@@2HB DD 011H	; std::numeric_limits<double>::max_digits10
CONST	ENDS
;	COMDAT ?pmField@?$CVarTypeInfo@PAD@ATL@@2QQtagVARIANT@@PADQ3@
CONST	SEGMENT
?pmField@?$CVarTypeInfo@PAD@ATL@@2QQtagVARIANT@@PADQ3@ DD 08H ; ATL::CVarTypeInfo<char *>::pmField
CONST	ENDS
;	COMDAT ?digits10@?$numeric_limits@N@std@@2HB
CONST	SEGMENT
?digits10@?$numeric_limits@N@std@@2HB DD 0fH		; std::numeric_limits<double>::digits10
CONST	ENDS
;	COMDAT ?_Max@?$AtlLimits@H@ATL@@2HB
CONST	SEGMENT
?_Max@?$AtlLimits@H@ATL@@2HB DD 07fffffffH		; ATL::AtlLimits<int>::_Max
CONST	ENDS
;	COMDAT ?VT@?$CVarTypeInfo@PAD@ATL@@2GB
CONST	SEGMENT
?VT@?$CVarTypeInfo@PAD@ATL@@2GB DW 04010H		; ATL::CVarTypeInfo<char *>::VT
CONST	ENDS
;	COMDAT ?_Min@?$AtlLimits@H@ATL@@2HB
CONST	SEGMENT
?_Min@?$AtlLimits@H@ATL@@2HB DD 080000000H		; ATL::AtlLimits<int>::_Min
CONST	ENDS
;	COMDAT ?digits@?$numeric_limits@N@std@@2HB
CONST	SEGMENT
?digits@?$numeric_limits@N@std@@2HB DD 035H		; std::numeric_limits<double>::digits
CONST	ENDS
;	COMDAT _CLSID_Registrar
CONST	SEGMENT
_CLSID_Registrar DD 044ec053aH
	DW	0400fH
	DW	011d0H
	DB	09dH
	DB	0cdH
	DB	00H
	DB	0a0H
	DB	0c9H
	DB	03H
	DB	091H
	DB	0d3H
CONST	ENDS
;	COMDAT ?pmField@?$CVarTypeInfo@E@ATL@@2QQtagVARIANT@@EQ3@
CONST	SEGMENT
?pmField@?$CVarTypeInfo@E@ATL@@2QQtagVARIANT@@EQ3@ DD 08H ; ATL::CVarTypeInfo<unsigned char>::pmField
CONST	ENDS
;	COMDAT ?VT@?$CVarTypeInfo@E@ATL@@2GB
CONST	SEGMENT
?VT@?$CVarTypeInfo@E@ATL@@2GB DW 011H			; ATL::CVarTypeInfo<unsigned char>::VT
CONST	ENDS
;	COMDAT ?pmField@?$CVarTypeInfo@D@ATL@@2QQtagVARIANT@@DQ3@
CONST	SEGMENT
?pmField@?$CVarTypeInfo@D@ATL@@2QQtagVARIANT@@DQ3@ DD 08H ; ATL::CVarTypeInfo<char>::pmField
CONST	ENDS
;	COMDAT ?VT@?$CVarTypeInfo@D@ATL@@2GB
CONST	SEGMENT
?VT@?$CVarTypeInfo@D@ATL@@2GB DW 010H			; ATL::CVarTypeInfo<char>::VT
CONST	ENDS
;	COMDAT ?min_exponent10@?$numeric_limits@M@std@@2HB
CONST	SEGMENT
?min_exponent10@?$numeric_limits@M@std@@2HB DD 0ffffffdbH ; std::numeric_limits<float>::min_exponent10
CONST	ENDS
;	COMDAT ?min_exponent@?$numeric_limits@M@std@@2HB
CONST	SEGMENT
?min_exponent@?$numeric_limits@M@std@@2HB DD 0ffffff83H	; std::numeric_limits<float>::min_exponent
CONST	ENDS
;	COMDAT ?max_exponent10@?$numeric_limits@M@std@@2HB
CONST	SEGMENT
?max_exponent10@?$numeric_limits@M@std@@2HB DD 026H	; std::numeric_limits<float>::max_exponent10
CONST	ENDS
;	COMDAT ?max_exponent@?$numeric_limits@M@std@@2HB
CONST	SEGMENT
?max_exponent@?$numeric_limits@M@std@@2HB DD 080H	; std::numeric_limits<float>::max_exponent
CONST	ENDS
;	COMDAT ?max_digits10@?$numeric_limits@M@std@@2HB
CONST	SEGMENT
?max_digits10@?$numeric_limits@M@std@@2HB DD 09H	; std::numeric_limits<float>::max_digits10
CONST	ENDS
;	COMDAT ?digits10@?$numeric_limits@M@std@@2HB
CONST	SEGMENT
?digits10@?$numeric_limits@M@std@@2HB DD 06H		; std::numeric_limits<float>::digits10
CONST	ENDS
;	COMDAT ?digits@?$numeric_limits@M@std@@2HB
CONST	SEGMENT
?digits@?$numeric_limits@M@std@@2HB DD 018H		; std::numeric_limits<float>::digits
CONST	ENDS
;	COMDAT __GUID_00000146_0000_0000_c000_000000000046
CONST	SEGMENT
__GUID_00000146_0000_0000_c000_000000000046 DD 0146H
	DW	00H
	DW	00H
	DB	0c0H
	DB	00H
	DB	00H
	DB	00H
	DB	00H
	DB	00H
	DB	00H
	DB	046H
CONST	ENDS
;	COMDAT ?digits10@?$numeric_limits@_K@std@@2HB
CONST	SEGMENT
?digits10@?$numeric_limits@_K@std@@2HB DD 013H		; std::numeric_limits<unsigned __int64>::digits10
CONST	ENDS
;	COMDAT ?digits@?$numeric_limits@_K@std@@2HB
CONST	SEGMENT
?digits@?$numeric_limits@_K@std@@2HB DD 040H		; std::numeric_limits<unsigned __int64>::digits
CONST	ENDS
;	COMDAT ?is_signed@?$numeric_limits@_K@std@@2_NB
CONST	SEGMENT
?is_signed@?$numeric_limits@_K@std@@2_NB DB 00H		; std::numeric_limits<unsigned __int64>::is_signed
CONST	ENDS
;	COMDAT ?digits10@?$numeric_limits@_J@std@@2HB
CONST	SEGMENT
?digits10@?$numeric_limits@_J@std@@2HB DD 012H		; std::numeric_limits<__int64>::digits10
CONST	ENDS
;	COMDAT ?digits@?$numeric_limits@_J@std@@2HB
CONST	SEGMENT
?digits@?$numeric_limits@_J@std@@2HB DD 03fH		; std::numeric_limits<__int64>::digits
CONST	ENDS
;	COMDAT ?is_signed@?$numeric_limits@_J@std@@2_NB
CONST	SEGMENT
?is_signed@?$numeric_limits@_J@std@@2_NB DB 01H		; std::numeric_limits<__int64>::is_signed
CONST	ENDS
;	COMDAT ?value@?$integral_constant@I$0A@@std@@2IB
CONST	SEGMENT
?value@?$integral_constant@I$0A@@std@@2IB DD 00H	; std::integral_constant<unsigned int,0>::value
CONST	ENDS
;	COMDAT ?digits10@?$numeric_limits@K@std@@2HB
CONST	SEGMENT
?digits10@?$numeric_limits@K@std@@2HB DD 09H		; std::numeric_limits<unsigned long>::digits10
CONST	ENDS
;	COMDAT ?digits@?$numeric_limits@K@std@@2HB
CONST	SEGMENT
?digits@?$numeric_limits@K@std@@2HB DD 020H		; std::numeric_limits<unsigned long>::digits
CONST	ENDS
;	COMDAT ?is_signed@?$numeric_limits@K@std@@2_NB
CONST	SEGMENT
?is_signed@?$numeric_limits@K@std@@2_NB DB 00H		; std::numeric_limits<unsigned long>::is_signed
CONST	ENDS
;	COMDAT __GUID_1cf2b120_547d_101b_8e65_08002b2bd119
CONST	SEGMENT
__GUID_1cf2b120_547d_101b_8e65_08002b2bd119 DD 01cf2b120H
	DW	0547dH
	DW	0101bH
	DB	08eH
	DB	065H
	DB	08H
	DB	00H
	DB	02bH
	DB	02bH
	DB	0d1H
	DB	019H
CONST	ENDS
;	COMDAT ?digits10@?$numeric_limits@J@std@@2HB
CONST	SEGMENT
?digits10@?$numeric_limits@J@std@@2HB DD 09H		; std::numeric_limits<long>::digits10
CONST	ENDS
;	COMDAT ?digits@?$numeric_limits@J@std@@2HB
CONST	SEGMENT
?digits@?$numeric_limits@J@std@@2HB DD 01fH		; std::numeric_limits<long>::digits
CONST	ENDS
;	COMDAT ?is_signed@?$numeric_limits@J@std@@2_NB
CONST	SEGMENT
?is_signed@?$numeric_limits@J@std@@2_NB DB 01H		; std::numeric_limits<long>::is_signed
CONST	ENDS
;	COMDAT _IID_IInternalConnection
CONST	SEGMENT
_IID_IInternalConnection DD 072ad0770H
	DW	06a9fH
	DW	011d1H
	DB	0bcH
	DB	0ecH
	DB	00H
	DB	060H
	DB	08H
	DB	08fH
	DB	044H
	DB	04eH
CONST	ENDS
;	COMDAT ?digits10@?$numeric_limits@I@std@@2HB
CONST	SEGMENT
?digits10@?$numeric_limits@I@std@@2HB DD 09H		; std::numeric_limits<unsigned int>::digits10
CONST	ENDS
;	COMDAT ?digits@?$numeric_limits@I@std@@2HB
CONST	SEGMENT
?digits@?$numeric_limits@I@std@@2HB DD 020H		; std::numeric_limits<unsigned int>::digits
CONST	ENDS
;	COMDAT _IID_IAxWinAmbientDispatchEx
CONST	SEGMENT
_IID_IAxWinAmbientDispatchEx DD 0b2d0778bH
	DW	0ac99H
	DW	04c58H
	DB	0a5H
	DB	0c8H
	DB	0e7H
	DB	072H
	DB	04eH
	DB	053H
	DB	016H
	DB	0b5H
CONST	ENDS
;	COMDAT ?is_signed@?$numeric_limits@I@std@@2_NB
CONST	SEGMENT
?is_signed@?$numeric_limits@I@std@@2_NB DB 00H		; std::numeric_limits<unsigned int>::is_signed
CONST	ENDS
;	COMDAT ?digits10@?$numeric_limits@H@std@@2HB
CONST	SEGMENT
?digits10@?$numeric_limits@H@std@@2HB DD 09H		; std::numeric_limits<int>::digits10
CONST	ENDS
;	COMDAT __GUID_fc4801a3_2ba9_11cf_a229_00aa003d7352
CONST	SEGMENT
__GUID_fc4801a3_2ba9_11cf_a229_00aa003d7352 DD 0fc4801a3H
	DW	02ba9H
	DW	011cfH
	DB	0a2H
	DB	029H
	DB	00H
	DB	0aaH
	DB	00H
	DB	03dH
	DB	073H
	DB	052H
CONST	ENDS
;	COMDAT ?digits@?$numeric_limits@H@std@@2HB
CONST	SEGMENT
?digits@?$numeric_limits@H@std@@2HB DD 01fH		; std::numeric_limits<int>::digits
CONST	ENDS
;	COMDAT ?is_signed@?$numeric_limits@H@std@@2_NB
CONST	SEGMENT
?is_signed@?$numeric_limits@H@std@@2_NB DB 01H		; std::numeric_limits<int>::is_signed
CONST	ENDS
;	COMDAT ?MAX_TYPE@CRegParser@ATL@@1HB
CONST	SEGMENT
?MAX_TYPE@CRegParser@ATL@@1HB DD 01000H			; ATL::CRegParser::MAX_TYPE
CONST	ENDS
;	COMDAT ?cbNeverDelete@CRegParser@ATL@@1HB
CONST	SEGMENT
?cbNeverDelete@CRegParser@ATL@@1HB DD 0cH		; ATL::CRegParser::cbNeverDelete
CONST	ENDS
;	COMDAT ?rgszNeverDelete@CRegParser@ATL@@1QBQBDB
CONST	SEGMENT
?rgszNeverDelete@CRegParser@ATL@@1QBQBDB DD FLAT:??_C@_05PDIKPLII@AppID?$AA@ ; ATL::CRegParser::rgszNeverDelete
	DD	FLAT:??_C@_05GIBEAPNE@CLSID?$AA@
	DD	FLAT:??_C@_0BF@HDDNNDFH@Component?5Categories?$AA@
	DD	FLAT:??_C@_08PICKODJL@FileType?$AA@
	DD	FLAT:??_C@_09JKPGEJCH@Interface?$AA@
	DD	FLAT:??_C@_08PPIOJEA@Hardware?$AA@
	DD	FLAT:??_C@_04IHBFOLAC@Mime?$AA@
	DD	FLAT:??_C@_03DDIMFGBA@SAM?$AA@
	DD	FLAT:??_C@_08LOPHEHKG@SECURITY?$AA@
	DD	FLAT:??_C@_06FDHFNJBJ@SYSTEM?$AA@
	DD	FLAT:??_C@_08KEKAJNJI@Software?$AA@
	DD	FLAT:??_C@_07KJLOKDKB@TypeLib?$AA@
CONST	ENDS
;	COMDAT ?digits10@?$numeric_limits@G@std@@2HB
CONST	SEGMENT
?digits10@?$numeric_limits@G@std@@2HB DD 04H		; std::numeric_limits<unsigned short>::digits10
CONST	ENDS
;	COMDAT ?digits@?$numeric_limits@G@std@@2HB
CONST	SEGMENT
?digits@?$numeric_limits@G@std@@2HB DD 010H		; std::numeric_limits<unsigned short>::digits
CONST	ENDS
;	COMDAT ?is_signed@?$numeric_limits@G@std@@2_NB
CONST	SEGMENT
?is_signed@?$numeric_limits@G@std@@2_NB DB 00H		; std::numeric_limits<unsigned short>::is_signed
CONST	ENDS
;	COMDAT ?MAX_VALUE@CRegParser@ATL@@1HB
CONST	SEGMENT
?MAX_VALUE@CRegParser@ATL@@1HB DD 01000H		; ATL::CRegParser::MAX_VALUE
CONST	ENDS
;	COMDAT ?digits10@?$numeric_limits@F@std@@2HB
CONST	SEGMENT
?digits10@?$numeric_limits@F@std@@2HB DD 04H		; std::numeric_limits<short>::digits10
CONST	ENDS
;	COMDAT __GUID_00000000_0000_0000_0000_000000000000
CONST	SEGMENT
__GUID_00000000_0000_0000_0000_000000000000 DD 00H
	DW	00H
	DW	00H
	DB	00H
	DB	00H
	DB	00H
	DB	00H
	DB	00H
	DB	00H
	DB	00H
	DB	00H
CONST	ENDS
;	COMDAT ?digits@?$numeric_limits@F@std@@2HB
CONST	SEGMENT
?digits@?$numeric_limits@F@std@@2HB DD 0fH		; std::numeric_limits<short>::digits
CONST	ENDS
;	COMDAT ?is_signed@?$numeric_limits@F@std@@2_NB
CONST	SEGMENT
?is_signed@?$numeric_limits@F@std@@2_NB DB 01H		; std::numeric_limits<short>::is_signed
CONST	ENDS
;	COMDAT ?digits10@?$numeric_limits@E@std@@2HB
CONST	SEGMENT
?digits10@?$numeric_limits@E@std@@2HB DD 02H		; std::numeric_limits<unsigned char>::digits10
CONST	ENDS
;	COMDAT ?digits@?$numeric_limits@E@std@@2HB
CONST	SEGMENT
?digits@?$numeric_limits@E@std@@2HB DD 08H		; std::numeric_limits<unsigned char>::digits
CONST	ENDS
;	COMDAT ?is_signed@?$numeric_limits@E@std@@2_NB
CONST	SEGMENT
?is_signed@?$numeric_limits@E@std@@2_NB DB 00H		; std::numeric_limits<unsigned char>::is_signed
CONST	ENDS
;	COMDAT ?table_size@?$ctype@D@std@@2IB
CONST	SEGMENT
?table_size@?$ctype@D@std@@2IB DD 0100H			; std::ctype<char>::table_size
CONST	ENDS
;	COMDAT ?digits10@?$numeric_limits@C@std@@2HB
CONST	SEGMENT
?digits10@?$numeric_limits@C@std@@2HB DD 02H		; std::numeric_limits<signed char>::digits10
CONST	ENDS
;	COMDAT ?digits@?$numeric_limits@C@std@@2HB
CONST	SEGMENT
?digits@?$numeric_limits@C@std@@2HB DD 07H		; std::numeric_limits<signed char>::digits
CONST	ENDS
;	COMDAT ?is_signed@?$numeric_limits@C@std@@2_NB
CONST	SEGMENT
?is_signed@?$numeric_limits@C@std@@2_NB DB 01H		; std::numeric_limits<signed char>::is_signed
CONST	ENDS
;	COMDAT ?value@?$_Sizeof@HU_Nil@std@@U12@U12@U12@U12@U12@U12@@std@@2IB
CONST	SEGMENT
?value@?$_Sizeof@HU_Nil@std@@U12@U12@U12@U12@U12@U12@@std@@2IB DD 01H ; std::_Sizeof<int,std::_Nil,std::_Nil,std::_Nil,std::_Nil,std::_Nil,std::_Nil,std::_Nil>::value
CONST	ENDS
;	COMDAT ?digits10@?$numeric_limits@_N@std@@2HB
CONST	SEGMENT
?digits10@?$numeric_limits@_N@std@@2HB DD 00H		; std::numeric_limits<bool>::digits10
CONST	ENDS
;	COMDAT ?digits@?$numeric_limits@_N@std@@2HB
CONST	SEGMENT
?digits@?$numeric_limits@_N@std@@2HB DD 01H		; std::numeric_limits<bool>::digits
CONST	ENDS
;	COMDAT ?is_signed@?$numeric_limits@_N@std@@2_NB
CONST	SEGMENT
?is_signed@?$numeric_limits@_N@std@@2_NB DB 00H		; std::numeric_limits<bool>::is_signed
CONST	ENDS
;	COMDAT ?is_modulo@?$numeric_limits@_N@std@@2_NB
CONST	SEGMENT
?is_modulo@?$numeric_limits@_N@std@@2_NB DB 00H		; std::numeric_limits<bool>::is_modulo
CONST	ENDS
;	COMDAT ?digits10@?$numeric_limits@_W@std@@2HB
CONST	SEGMENT
?digits10@?$numeric_limits@_W@std@@2HB DD 04H		; std::numeric_limits<wchar_t>::digits10
CONST	ENDS
;	COMDAT ?digits@?$numeric_limits@_W@std@@2HB
CONST	SEGMENT
?digits@?$numeric_limits@_W@std@@2HB DD 010H		; std::numeric_limits<wchar_t>::digits
CONST	ENDS
;	COMDAT ?is_signed@?$numeric_limits@_W@std@@2_NB
CONST	SEGMENT
?is_signed@?$numeric_limits@_W@std@@2_NB DB 00H		; std::numeric_limits<wchar_t>::is_signed
CONST	ENDS
;	COMDAT ?none@?$_Locbase@H@std@@2HB
CONST	SEGMENT
?none@?$_Locbase@H@std@@2HB DD 00H			; std::_Locbase<int>::none
CONST	ENDS
;	COMDAT ?all@?$_Locbase@H@std@@2HB
CONST	SEGMENT
?all@?$_Locbase@H@std@@2HB DD 03fH			; std::_Locbase<int>::all
CONST	ENDS
;	COMDAT ?messages@?$_Locbase@H@std@@2HB
CONST	SEGMENT
?messages@?$_Locbase@H@std@@2HB DD 020H			; std::_Locbase<int>::messages
CONST	ENDS
;	COMDAT ?time@?$_Locbase@H@std@@2HB
CONST	SEGMENT
?time@?$_Locbase@H@std@@2HB DD 010H			; std::_Locbase<int>::time
CONST	ENDS
;	COMDAT ?numeric@?$_Locbase@H@std@@2HB
CONST	SEGMENT
?numeric@?$_Locbase@H@std@@2HB DD 08H			; std::_Locbase<int>::numeric
CONST	ENDS
;	COMDAT ?monetary@?$_Locbase@H@std@@2HB
CONST	SEGMENT
?monetary@?$_Locbase@H@std@@2HB DD 04H			; std::_Locbase<int>::monetary
CONST	ENDS
;	COMDAT ?ctype@?$_Locbase@H@std@@2HB
CONST	SEGMENT
?ctype@?$_Locbase@H@std@@2HB DD 02H			; std::_Locbase<int>::ctype
CONST	ENDS
;	COMDAT ?collate@?$_Locbase@H@std@@2HB
CONST	SEGMENT
?collate@?$_Locbase@H@std@@2HB DD 01H			; std::_Locbase<int>::collate
CONST	ENDS
;	COMDAT _IID_IAxWinAmbientDispatch
CONST	SEGMENT
_IID_IAxWinAmbientDispatch DD 0b6ea2051H
	DW	048aH
	DW	011d1H
	DB	082H
	DB	0b9H
	DB	00H
	DB	0c0H
	DB	04fH
	DB	0b9H
	DB	094H
	DB	02eH
CONST	ENDS
;	COMDAT ?digits10@?$numeric_limits@D@std@@2HB
CONST	SEGMENT
?digits10@?$numeric_limits@D@std@@2HB DD 02H		; std::numeric_limits<char>::digits10
CONST	ENDS
;	COMDAT ?digits@?$numeric_limits@D@std@@2HB
CONST	SEGMENT
?digits@?$numeric_limits@D@std@@2HB DD 07H		; std::numeric_limits<char>::digits
CONST	ENDS
;	COMDAT ?is_signed@?$numeric_limits@D@std@@2_NB
CONST	SEGMENT
?is_signed@?$numeric_limits@D@std@@2_NB DB 01H		; std::numeric_limits<char>::is_signed
CONST	ENDS
;	COMDAT ??_C@_06JBKGCNBB@Delete?$AA@
CONST	SEGMENT
??_C@_06JBKGCNBB@Delete?$AA@ DB 'Delete', 00H		; `string'
CONST	ENDS
;	COMDAT ?radix@_Num_float_base@std@@2HB
CONST	SEGMENT
?radix@_Num_float_base@std@@2HB DD 02H			; std::_Num_float_base::radix
CONST	ENDS
;	COMDAT ?szDelete@ATL@@3QBDB
CONST	SEGMENT
?szDelete@ATL@@3QBDB DD FLAT:??_C@_06JBKGCNBB@Delete?$AA@ ; ATL::szDelete
CONST	ENDS
;	COMDAT ??_C@_08KAAPDIAN@NoRemove?$AA@
CONST	SEGMENT
??_C@_08KAAPDIAN@NoRemove?$AA@ DB 'NoRemove', 00H	; `string'
CONST	ENDS
;	COMDAT ?szNoRemove@ATL@@3QBDB
CONST	SEGMENT
?szNoRemove@ATL@@3QBDB DD FLAT:??_C@_08KAAPDIAN@NoRemove?$AA@ ; ATL::szNoRemove
CONST	ENDS
;	COMDAT ?round_style@_Num_float_base@std@@2W4float_round_style@2@B
CONST	SEGMENT
?round_style@_Num_float_base@std@@2W4float_round_style@2@B DD 01H ; std::_Num_float_base::round_style
CONST	ENDS
;	COMDAT ??_C@_0M@DBGDLGLL@ForceRemove?$AA@
CONST	SEGMENT
??_C@_0M@DBGDLGLL@ForceRemove?$AA@ DB 'ForceRemove', 00H ; `string'
CONST	ENDS
CONST	SEGMENT
_L_2	DD	03f317218r			; 0.693147
CONST	ENDS
;	COMDAT ?szForceRemove@ATL@@3QBDB
CONST	SEGMENT
?szForceRemove@ATL@@3QBDB DD FLAT:??_C@_0M@DBGDLGLL@ForceRemove?$AA@ ; ATL::szForceRemove
CONST	ENDS
;	COMDAT ??_C@_03LAIAPFCB@Val?$AA@
CONST	SEGMENT
??_C@_03LAIAPFCB@Val?$AA@ DB 'Val', 00H			; `string'
CONST	ENDS
;	COMDAT ?traps@_Num_float_base@std@@2_NB
CONST	SEGMENT
?traps@_Num_float_base@std@@2_NB DB 00H			; std::_Num_float_base::traps
CONST	ENDS
;	COMDAT ?szValToken@ATL@@3QBDB
CONST	SEGMENT
?szValToken@ATL@@3QBDB DD FLAT:??_C@_03LAIAPFCB@Val?$AA@ ; ATL::szValToken
CONST	ENDS
;	COMDAT ??_C@_01HMGJMAIH@B?$AA@
CONST	SEGMENT
??_C@_01HMGJMAIH@B?$AA@ DB 'B', 00H			; `string'
CONST	ENDS
;	COMDAT ?szBinaryVal@ATL@@3QBDB
CONST	SEGMENT
?szBinaryVal@ATL@@3QBDB DD FLAT:??_C@_01HMGJMAIH@B?$AA@	; ATL::szBinaryVal
CONST	ENDS
;	COMDAT ?tinyness_before@_Num_float_base@std@@2_NB
CONST	SEGMENT
?tinyness_before@_Num_float_base@std@@2_NB DB 01H	; std::_Num_float_base::tinyness_before
CONST	ENDS
;	COMDAT ??_C@_01CKDDGHAB@D?$AA@
CONST	SEGMENT
??_C@_01CKDDGHAB@D?$AA@ DB 'D', 00H			; `string'
CONST	ENDS
;	COMDAT ?szDwordVal@ATL@@3QBDB
CONST	SEGMENT
?szDwordVal@ATL@@3QBDB DD FLAT:??_C@_01CKDDGHAB@D?$AA@	; ATL::szDwordVal
CONST	ENDS
;	COMDAT ??_C@_01PLPBNMEI@M?$AA@
CONST	SEGMENT
??_C@_01PLPBNMEI@M?$AA@ DB 'M', 00H			; `string'
CONST	ENDS
;	COMDAT ?is_specialized@_Num_float_base@std@@2_NB
CONST	SEGMENT
?is_specialized@_Num_float_base@std@@2_NB DB 01H	; std::_Num_float_base::is_specialized
CONST	ENDS
;	COMDAT _IID_IAxWinHostWindowLic
CONST	SEGMENT
_IID_IAxWinHostWindowLic DD 03935bda8H
	DW	04ed9H
	DW	0495cH
	DB	086H
	DB	050H
	DB	0e0H
	DB	01fH
	DB	0c1H
	DB	0e3H
	DB	08aH
	DB	04bH
CONST	ENDS
;	COMDAT ?multiszStringVal@ATL@@3QBDB
CONST	SEGMENT
?multiszStringVal@ATL@@3QBDB DD FLAT:??_C@_01PLPBNMEI@M?$AA@ ; ATL::multiszStringVal
CONST	ENDS
;	COMDAT ??_C@_01CPLAODJH@S?$AA@
CONST	SEGMENT
??_C@_01CPLAODJH@S?$AA@ DB 'S', 00H			; `string'
CONST	ENDS
;	COMDAT ?szStringVal@ATL@@3QBDB
CONST	SEGMENT
?szStringVal@ATL@@3QBDB DD FLAT:??_C@_01CPLAODJH@S?$AA@	; ATL::szStringVal
CONST	ENDS
;	COMDAT ?is_signed@_Num_float_base@std@@2_NB
CONST	SEGMENT
?is_signed@_Num_float_base@std@@2_NB DB 01H		; std::_Num_float_base::is_signed
CONST	ENDS
;	COMDAT ?chEquals@ATL@@3DB
CONST	SEGMENT
?chEquals@ATL@@3DB DB 03dH				; ATL::chEquals
CONST	ENDS
;	COMDAT ?chQuote@ATL@@3DB
CONST	SEGMENT
?chQuote@ATL@@3DB DB 027H				; ATL::chQuote
CONST	ENDS
;	COMDAT ?chLeftBracket@ATL@@3DB
CONST	SEGMENT
?chLeftBracket@ATL@@3DB DB 07bH				; ATL::chLeftBracket
CONST	ENDS
;	COMDAT ?is_modulo@_Num_float_base@std@@2_NB
CONST	SEGMENT
?is_modulo@_Num_float_base@std@@2_NB DB 00H		; std::_Num_float_base::is_modulo
CONST	ENDS
;	COMDAT ?chRightBracket@ATL@@3DB
CONST	SEGMENT
?chRightBracket@ATL@@3DB DB 07dH			; ATL::chRightBracket
CONST	ENDS
;	COMDAT ?chDirSep@ATL@@3DB
CONST	SEGMENT
?chDirSep@ATL@@3DB DB 05cH				; ATL::chDirSep
CONST	ENDS
;	COMDAT ?is_integer@_Num_float_base@std@@2_NB
CONST	SEGMENT
?is_integer@_Num_float_base@std@@2_NB DB 00H		; std::_Num_float_base::is_integer
CONST	ENDS
;	COMDAT ?is_iec559@_Num_float_base@std@@2_NB
CONST	SEGMENT
?is_iec559@_Num_float_base@std@@2_NB DB 01H		; std::_Num_float_base::is_iec559
CONST	ENDS
;	COMDAT ?is_exact@_Num_float_base@std@@2_NB
CONST	SEGMENT
?is_exact@_Num_float_base@std@@2_NB DB 00H		; std::_Num_float_base::is_exact
CONST	ENDS
;	COMDAT ?is_bounded@_Num_float_base@std@@2_NB
CONST	SEGMENT
?is_bounded@_Num_float_base@std@@2_NB DB 01H		; std::_Num_float_base::is_bounded
CONST	ENDS
;	COMDAT ?has_signaling_NaN@_Num_float_base@std@@2_NB
CONST	SEGMENT
?has_signaling_NaN@_Num_float_base@std@@2_NB DB 01H	; std::_Num_float_base::has_signaling_NaN
CONST	ENDS
;	COMDAT ?has_quiet_NaN@_Num_float_base@std@@2_NB
CONST	SEGMENT
?has_quiet_NaN@_Num_float_base@std@@2_NB DB 01H		; std::_Num_float_base::has_quiet_NaN
CONST	ENDS
;	COMDAT ?has_infinity@_Num_float_base@std@@2_NB
CONST	SEGMENT
?has_infinity@_Num_float_base@std@@2_NB DB 01H		; std::_Num_float_base::has_infinity
CONST	ENDS
;	COMDAT ?has_denorm_loss@_Num_float_base@std@@2_NB
CONST	SEGMENT
?has_denorm_loss@_Num_float_base@std@@2_NB DB 01H	; std::_Num_float_base::has_denorm_loss
CONST	ENDS
;	COMDAT ?has_denorm@_Num_float_base@std@@2W4float_denorm_style@2@B
CONST	SEGMENT
?has_denorm@_Num_float_base@std@@2W4float_denorm_style@2@B DD 01H ; std::_Num_float_base::has_denorm
CONST	ENDS
;	COMDAT ?radix@_Num_int_base@std@@2HB
CONST	SEGMENT
?radix@_Num_int_base@std@@2HB DD 02H			; std::_Num_int_base::radix
CONST	ENDS
;	COMDAT ?is_specialized@_Num_int_base@std@@2_NB
CONST	SEGMENT
?is_specialized@_Num_int_base@std@@2_NB DB 01H		; std::_Num_int_base::is_specialized
CONST	ENDS
;	COMDAT ?is_modulo@_Num_int_base@std@@2_NB
CONST	SEGMENT
?is_modulo@_Num_int_base@std@@2_NB DB 01H		; std::_Num_int_base::is_modulo
CONST	ENDS
;	COMDAT ?is_integer@_Num_int_base@std@@2_NB
CONST	SEGMENT
?is_integer@_Num_int_base@std@@2_NB DB 01H		; std::_Num_int_base::is_integer
CONST	ENDS
;	COMDAT ?is_exact@_Num_int_base@std@@2_NB
CONST	SEGMENT
?is_exact@_Num_int_base@std@@2_NB DB 01H		; std::_Num_int_base::is_exact
CONST	ENDS
;	COMDAT ?pmField@?$CVarTypeInfo@PATtagCY@@@ATL@@2QQtagVARIANT@@PATtagCY@@Q3@
CONST	SEGMENT
?pmField@?$CVarTypeInfo@PATtagCY@@@ATL@@2QQtagVARIANT@@PATtagCY@@Q3@ DD 08H ; ATL::CVarTypeInfo<tagCY *>::pmField
CONST	ENDS
;	COMDAT ?is_bounded@_Num_int_base@std@@2_NB
CONST	SEGMENT
?is_bounded@_Num_int_base@std@@2_NB DB 01H		; std::_Num_int_base::is_bounded
CONST	ENDS
;	COMDAT ?VT@?$CVarTypeInfo@PATtagCY@@@ATL@@2GB
CONST	SEGMENT
?VT@?$CVarTypeInfo@PATtagCY@@@ATL@@2GB DW 04006H	; ATL::CVarTypeInfo<tagCY *>::VT
CONST	ENDS
;	COMDAT ??_C@_05PDIKPLII@AppID?$AA@
CONST	SEGMENT
??_C@_05PDIKPLII@AppID?$AA@ DB 'AppID', 00H		; `string'
CONST	ENDS
;	COMDAT ?pmField@?$CVarTypeInfo@TtagCY@@@ATL@@2QQtagVARIANT@@TtagCY@@Q3@
CONST	SEGMENT
?pmField@?$CVarTypeInfo@TtagCY@@@ATL@@2QQtagVARIANT@@TtagCY@@Q3@ DD 08H ; ATL::CVarTypeInfo<tagCY>::pmField
CONST	ENDS
;	COMDAT ?VT@?$CVarTypeInfo@TtagCY@@@ATL@@2GB
CONST	SEGMENT
?VT@?$CVarTypeInfo@TtagCY@@@ATL@@2GB DW 06H		; ATL::CVarTypeInfo<tagCY>::VT
CONST	ENDS
;	COMDAT ?pmField@?$CVarTypeInfo@PAPAUIDispatch@@@ATL@@2QQtagVARIANT@@PAPAUIDispatch@@Q3@
CONST	SEGMENT
?pmField@?$CVarTypeInfo@PAPAUIDispatch@@@ATL@@2QQtagVARIANT@@PAPAUIDispatch@@Q3@ DD 08H ; ATL::CVarTypeInfo<IDispatch * *>::pmField
CONST	ENDS
;	COMDAT ?VT@?$CVarTypeInfo@PAPAUIDispatch@@@ATL@@2GB
CONST	SEGMENT
?VT@?$CVarTypeInfo@PAPAUIDispatch@@@ATL@@2GB DW 04009H	; ATL::CVarTypeInfo<IDispatch * *>::VT
CONST	ENDS
;	COMDAT _IID_IAxWinHostWindow
CONST	SEGMENT
_IID_IAxWinHostWindow DD 0b6ea2050H
	DW	048aH
	DW	011d1H
	DB	082H
	DB	0b9H
	DB	00H
	DB	0c0H
	DB	04fH
	DB	0b9H
	DB	094H
	DB	02eH
CONST	ENDS
;	COMDAT ?radix@_Num_base@std@@2HB
CONST	SEGMENT
?radix@_Num_base@std@@2HB DD 00H			; std::_Num_base::radix
CONST	ENDS
;	COMDAT ?min_exponent10@_Num_base@std@@2HB
CONST	SEGMENT
?min_exponent10@_Num_base@std@@2HB DD 00H		; std::_Num_base::min_exponent10
CONST	ENDS
;	COMDAT ??_C@_05GIBEAPNE@CLSID?$AA@
CONST	SEGMENT
??_C@_05GIBEAPNE@CLSID?$AA@ DB 'CLSID', 00H		; `string'
CONST	ENDS
;	COMDAT ?min_exponent@_Num_base@std@@2HB
CONST	SEGMENT
?min_exponent@_Num_base@std@@2HB DD 00H			; std::_Num_base::min_exponent
CONST	ENDS
;	COMDAT ??_C@_0N@IFCKHDOD@?$FLCLIENTFLAG?$FN?$AA@
CONST	SEGMENT
??_C@_0N@IFCKHDOD@?$FLCLIENTFLAG?$FN?$AA@ DB '[CLIENTFLAG]', 00H ; `string'
CONST	ENDS
;	COMDAT ??_C@_07HBFPNJIM@?$FLDRAGH?$FN?$AA@
CONST	SEGMENT
??_C@_07HBFPNJIM@?$FLDRAGH?$FN?$AA@ DB '[DRAGH]', 00H	; `string'
CONST	ENDS
;	COMDAT ?pmField@?$CVarTypeInfo@PAUIDispatch@@@ATL@@2QQtagVARIANT@@PAUIDispatch@@Q3@
CONST	SEGMENT
?pmField@?$CVarTypeInfo@PAUIDispatch@@@ATL@@2QQtagVARIANT@@PAUIDispatch@@Q3@ DD 08H ; ATL::CVarTypeInfo<IDispatch *>::pmField
CONST	ENDS
;	COMDAT ?max_exponent10@_Num_base@std@@2HB
CONST	SEGMENT
?max_exponent10@_Num_base@std@@2HB DD 00H		; std::_Num_base::max_exponent10
CONST	ENDS
;	COMDAT ??_C@_08KCKBLKKP@?$FLCURSOR?$FN?$AA@
CONST	SEGMENT
??_C@_08KCKBLKKP@?$FLCURSOR?$FN?$AA@ DB '[CURSOR]', 00H	; `string'
CONST	ENDS
;	COMDAT ??_C@_0BB@NOAFCABC@?$FLOPENCLIENTMENU?$FN?$AA@
CONST	SEGMENT
??_C@_0BB@NOAFCABC@?$FLOPENCLIENTMENU?$FN?$AA@ DB '[OPENCLIENTMENU]', 00H ; `string'
CONST	ENDS
;	COMDAT ?VT@?$CVarTypeInfo@PAUIDispatch@@@ATL@@2GB
CONST	SEGMENT
?VT@?$CVarTypeInfo@PAUIDispatch@@@ATL@@2GB DW 09H	; ATL::CVarTypeInfo<IDispatch *>::VT
CONST	ENDS
;	COMDAT ??_C@_0L@JKDBOFEC@?$FLOPENMENU?$FN?$AA@
CONST	SEGMENT
??_C@_0L@JKDBOFEC@?$FLOPENMENU?$FN?$AA@ DB '[OPENMENU]', 00H ; `string'
CONST	ENDS
;	COMDAT ?max_exponent@_Num_base@std@@2HB
CONST	SEGMENT
?max_exponent@_Num_base@std@@2HB DD 00H			; std::_Num_base::max_exponent
CONST	ENDS
;	COMDAT ??_C@_07HAKAKNOM@?$FLDEPTH?$FN?$AA@
CONST	SEGMENT
??_C@_07HAKAKNOM@?$FLDEPTH?$FN?$AA@ DB '[DEPTH]', 00H	; `string'
CONST	ENDS
;	COMDAT ??_C@_0N@OEKFAPAO@?$FLFLAGBITOFF?$FN?$AA@
CONST	SEGMENT
??_C@_0N@OEKFAPAO@?$FLFLAGBITOFF?$FN?$AA@ DB '[FLAGBITOFF]', 00H ; `string'
CONST	ENDS
;	COMDAT ??_C@_0M@BJDPLCOH@?$FLFLAGBITON?$FN?$AA@
CONST	SEGMENT
??_C@_0M@BJDPLCOH@?$FLFLAGBITON?$FN?$AA@ DB '[FLAGBITON]', 00H ; `string'
CONST	ENDS
;	COMDAT __GUID_0000010c_0000_0000_c000_000000000046
CONST	SEGMENT
__GUID_0000010c_0000_0000_c000_000000000046 DD 010cH
	DW	00H
	DW	00H
	DB	0c0H
	DB	00H
	DB	00H
	DB	00H
	DB	00H
	DB	00H
	DB	00H
	DB	046H
CONST	ENDS
;	COMDAT ?max_digits10@_Num_base@std@@2HB
CONST	SEGMENT
?max_digits10@_Num_base@std@@2HB DD 00H			; std::_Num_base::max_digits10
CONST	ENDS
;	COMDAT ??_C@_07EJLANDEA@?$FLGroup?$FN?$AA@
CONST	SEGMENT
??_C@_07EJLANDEA@?$FLGroup?$FN?$AA@ DB '[Group]', 00H	; `string'
CONST	ENDS
;	COMDAT ??_C@_06GDGPHIE@?$FLFont?$FN?$AA@
CONST	SEGMENT
??_C@_06GDGPHIE@?$FLFont?$FN?$AA@ DB '[Font]', 00H	; `string'
CONST	ENDS
;	COMDAT ??_C@_0N@OIFFBCOJ@?$FLClientArea?$FN?$AA@
CONST	SEGMENT
??_C@_0N@OIFFBCOJ@?$FLClientArea?$FN?$AA@ DB '[ClientArea]', 00H ; `string'
CONST	ENDS
;	COMDAT ?digits10@_Num_base@std@@2HB
CONST	SEGMENT
?digits10@_Num_base@std@@2HB DD 00H			; std::_Num_base::digits10
CONST	ENDS
;	COMDAT ??_C@_08JPIFLAEG@?$FLRanges?$FN?$AA@
CONST	SEGMENT
??_C@_08JPIFLAEG@?$FLRanges?$FN?$AA@ DB '[Ranges]', 00H	; `string'
CONST	ENDS
;	COMDAT ??_C@_03LDCLFHCB@?$FLH?$FN?$AA@
CONST	SEGMENT
??_C@_03LDCLFHCB@?$FLH?$FN?$AA@ DB '[H]', 00H		; `string'
CONST	ENDS
;	COMDAT ??_C@_03KEFBLDGM@?$FLW?$FN?$AA@
CONST	SEGMENT
??_C@_03KEFBLDGM@?$FLW?$FN?$AA@ DB '[W]', 00H		; `string'
CONST	ENDS
;	COMDAT ?digits@_Num_base@std@@2HB
CONST	SEGMENT
?digits@_Num_base@std@@2HB DD 00H			; std::_Num_base::digits
CONST	ENDS
;	COMDAT ??_C@_04BENPOHFD@?$FLXY?$FN?$AA@
CONST	SEGMENT
??_C@_04BENPOHFD@?$FLXY?$FN?$AA@ DB '[XY]', 00H		; `string'
CONST	ENDS
;	COMDAT ?pmField@?$CVarTypeInfo@PAPAUIUnknown@@@ATL@@2QQtagVARIANT@@PAPAUIUnknown@@Q3@
CONST	SEGMENT
?pmField@?$CVarTypeInfo@PAPAUIUnknown@@@ATL@@2QQtagVARIANT@@PAPAUIUnknown@@Q3@ DD 08H ; ATL::CVarTypeInfo<IUnknown * *>::pmField
CONST	ENDS
;	COMDAT ??_C@_03KOMPJOGG@?$FLY?$FN?$AA@
CONST	SEGMENT
??_C@_03KOMPJOGG@?$FLY?$FN?$AA@ DB '[Y]', 00H		; `string'
CONST	ENDS
;	COMDAT ??_C@_03KPANPEFB@?$FLX?$FN?$AA@
CONST	SEGMENT
??_C@_03KPANPEFB@?$FLX?$FN?$AA@ DB '[X]', 00H		; `string'
CONST	ENDS
;	COMDAT ?VT@?$CVarTypeInfo@PAPAUIUnknown@@@ATL@@2GB
CONST	SEGMENT
?VT@?$CVarTypeInfo@PAPAUIUnknown@@@ATL@@2GB DW 0400dH	; ATL::CVarTypeInfo<IUnknown * *>::VT
CONST	ENDS
;	COMDAT ?round_style@_Num_base@std@@2W4float_round_style@2@B
CONST	SEGMENT
?round_style@_Num_base@std@@2W4float_round_style@2@B DD 00H ; std::_Num_base::round_style
CONST	ENDS
;	COMDAT ??_C@_07NDMCPPCN@?$FLSetup?$FN?$AA@
CONST	SEGMENT
??_C@_07NDMCPPCN@?$FLSetup?$FN?$AA@ DB '[Setup]', 00H	; `string'
CONST	ENDS
;	COMDAT ??_C@_09NLBFAKCN@?$FLNOTHING?$FN?$AA@
CONST	SEGMENT
??_C@_09NLBFAKCN@?$FLNOTHING?$FN?$AA@ DB '[NOTHING]', 00H ; `string'
CONST	ENDS
_DATA	SEGMENT
?C_Win_Tokens@@3PAPADA DD FLAT:??_C@_09NLBFAKCN@?$FLNOTHING?$FN?$AA@ ; C_Win_Tokens
	DD	FLAT:??_C@_07NDMCPPCN@?$FLSetup?$FN?$AA@
	DD	FLAT:??_C@_03KPANPEFB@?$FLX?$FN?$AA@
	DD	FLAT:??_C@_03KOMPJOGG@?$FLY?$FN?$AA@
	DD	FLAT:??_C@_04BENPOHFD@?$FLXY?$FN?$AA@
	DD	FLAT:??_C@_03KEFBLDGM@?$FLW?$FN?$AA@
	DD	FLAT:??_C@_03LDCLFHCB@?$FLH?$FN?$AA@
	DD	FLAT:??_C@_08JPIFLAEG@?$FLRanges?$FN?$AA@
	DD	FLAT:??_C@_0N@OIFFBCOJ@?$FLClientArea?$FN?$AA@
	DD	FLAT:??_C@_06GDGPHIE@?$FLFont?$FN?$AA@
	DD	FLAT:??_C@_07EJLANDEA@?$FLGroup?$FN?$AA@
	DD	FLAT:??_C@_0M@BJDPLCOH@?$FLFLAGBITON?$FN?$AA@
	DD	FLAT:??_C@_0N@OEKFAPAO@?$FLFLAGBITOFF?$FN?$AA@
	DD	FLAT:??_C@_07HAKAKNOM@?$FLDEPTH?$FN?$AA@
	DD	FLAT:??_C@_0L@JKDBOFEC@?$FLOPENMENU?$FN?$AA@
	DD	FLAT:??_C@_0BB@NOAFCABC@?$FLOPENCLIENTMENU?$FN?$AA@
	DD	FLAT:??_C@_08KCKBLKKP@?$FLCURSOR?$FN?$AA@
	DD	FLAT:??_C@_07HBFPNJIM@?$FLDRAGH?$FN?$AA@
	DD	FLAT:??_C@_0N@IFCKHDOD@?$FLCLIENTFLAG?$FN?$AA@
	DD	00H
?SubTable@@3PAFA DW 08H					; SubTable
	DW	08H
	DW	07H
	DW	07H
	DW	06H
	DW	06H
	DW	05H
	DW	05H
	DW	04H
	DW	04H
	DW	03H
	DW	03H
	DW	02H
	DW	02H
	DW	01H
	DW	01H
?TableVal@@3PAFA DW 00H					; TableVal
	DW	02H
	DW	04H
	DW	06H
	DW	08H
	DW	0aH
	DW	0cH
	DW	0eH
	DW	010H
	DW	012H
	DW	014H
	DW	016H
	DW	018H
	DW	01aH
	DW	01cH
	DW	01eH
	DW	020H
	DW	020H
	DW	020H
	DW	020H
	DW	020H
	DW	020H
	DW	020H
	DW	020H
	DW	020H
	DW	020H
	DW	020H
	DW	020H
	DW	020H
	DW	020H
	DW	020H
	DW	020H
	DW	020H
	DW	020H
	DW	020H
	DW	020H
	DW	020H
	DW	020H
	DW	020H
	DW	020H
	DW	020H
	DW	020H
	DW	020H
	DW	020H
	DW	020H
	DW	020H
	DW	020H
	DW	020H
?Circle8@@3PAY01MA DD 000000000r		; 0	; Circle8
	DD	03f800000r			; 1
	DD	03e47c5c2r			; 0.19509
	DD	03f7b14ber			; 0.980785
	DD	03ec3ef15r			; 0.382683
	DD	03f6c835er			; 0.92388
	DD	03f0e39dar			; 0.55557
	DD	03f54db31r			; 0.83147
	DD	03f3504f3r			; 0.707107
	DD	03f3504f3r			; 0.707107
_DATA	ENDS
;	COMDAT ?traps@_Num_base@std@@2_NB
CONST	SEGMENT
?traps@_Num_base@std@@2_NB DB 00H			; std::_Num_base::traps
CONST	ENDS
;	COMDAT ?tinyness_before@_Num_base@std@@2_NB
CONST	SEGMENT
?tinyness_before@_Num_base@std@@2_NB DB 00H		; std::_Num_base::tinyness_before
CONST	ENDS
;	COMDAT ?is_specialized@_Num_base@std@@2_NB
CONST	SEGMENT
?is_specialized@_Num_base@std@@2_NB DB 00H		; std::_Num_base::is_specialized
CONST	ENDS
;	COMDAT ?pmField@?$CVarTypeInfo@PAUIUnknown@@@ATL@@2QQtagVARIANT@@PAUIUnknown@@Q3@
CONST	SEGMENT
?pmField@?$CVarTypeInfo@PAUIUnknown@@@ATL@@2QQtagVARIANT@@PAUIUnknown@@Q3@ DD 08H ; ATL::CVarTypeInfo<IUnknown *>::pmField
CONST	ENDS
;	COMDAT ?is_signed@_Num_base@std@@2_NB
CONST	SEGMENT
?is_signed@_Num_base@std@@2_NB DB 00H			; std::_Num_base::is_signed
CONST	ENDS
;	COMDAT ?VT@?$CVarTypeInfo@PAUIUnknown@@@ATL@@2GB
CONST	SEGMENT
?VT@?$CVarTypeInfo@PAUIUnknown@@@ATL@@2GB DW 0dH	; ATL::CVarTypeInfo<IUnknown *>::VT
CONST	ENDS
;	COMDAT ?is_modulo@_Num_base@std@@2_NB
CONST	SEGMENT
?is_modulo@_Num_base@std@@2_NB DB 00H			; std::_Num_base::is_modulo
CONST	ENDS
;	COMDAT ?is_integer@_Num_base@std@@2_NB
CONST	SEGMENT
?is_integer@_Num_base@std@@2_NB DB 00H			; std::_Num_base::is_integer
CONST	ENDS
;	COMDAT ?is_iec559@_Num_base@std@@2_NB
CONST	SEGMENT
?is_iec559@_Num_base@std@@2_NB DB 00H			; std::_Num_base::is_iec559
CONST	ENDS
;	COMDAT ?pmField@?$CVarTypeInfo@PAPA_W@ATL@@2QQtagVARIANT@@PAPA_WQ3@
CONST	SEGMENT
?pmField@?$CVarTypeInfo@PAPA_W@ATL@@2QQtagVARIANT@@PAPA_WQ3@ DD 08H ; ATL::CVarTypeInfo<wchar_t * *>::pmField
CONST	ENDS
;	COMDAT ?is_exact@_Num_base@std@@2_NB
CONST	SEGMENT
?is_exact@_Num_base@std@@2_NB DB 00H			; std::_Num_base::is_exact
CONST	ENDS
;	COMDAT ?VT@?$CVarTypeInfo@PAPA_W@ATL@@2GB
CONST	SEGMENT
?VT@?$CVarTypeInfo@PAPA_W@ATL@@2GB DW 04008H		; ATL::CVarTypeInfo<wchar_t * *>::VT
CONST	ENDS
;	COMDAT ?is_bounded@_Num_base@std@@2_NB
CONST	SEGMENT
?is_bounded@_Num_base@std@@2_NB DB 00H			; std::_Num_base::is_bounded
CONST	ENDS
;	COMDAT ?has_signaling_NaN@_Num_base@std@@2_NB
CONST	SEGMENT
?has_signaling_NaN@_Num_base@std@@2_NB DB 00H		; std::_Num_base::has_signaling_NaN
CONST	ENDS
;	COMDAT ?has_quiet_NaN@_Num_base@std@@2_NB
CONST	SEGMENT
?has_quiet_NaN@_Num_base@std@@2_NB DB 00H		; std::_Num_base::has_quiet_NaN
CONST	ENDS
;	COMDAT ?has_infinity@_Num_base@std@@2_NB
CONST	SEGMENT
?has_infinity@_Num_base@std@@2_NB DB 00H		; std::_Num_base::has_infinity
CONST	ENDS
;	COMDAT ?pmField@?$CVarTypeInfo@PA_W@ATL@@2QQtagVARIANT@@PA_WQ3@
CONST	SEGMENT
?pmField@?$CVarTypeInfo@PA_W@ATL@@2QQtagVARIANT@@PA_WQ3@ DD 08H ; ATL::CVarTypeInfo<wchar_t *>::pmField
CONST	ENDS
;	COMDAT ?VT@?$CVarTypeInfo@PA_W@ATL@@2GB
CONST	SEGMENT
?VT@?$CVarTypeInfo@PA_W@ATL@@2GB DW 08H			; ATL::CVarTypeInfo<wchar_t *>::VT
CONST	ENDS
;	COMDAT ?has_denorm_loss@_Num_base@std@@2_NB
CONST	SEGMENT
?has_denorm_loss@_Num_base@std@@2_NB DB 00H		; std::_Num_base::has_denorm_loss
CONST	ENDS
;	COMDAT __GUID_0002e012_0000_0000_c000_000000000046
CONST	SEGMENT
__GUID_0002e012_0000_0000_c000_000000000046 DD 02e012H
	DW	00H
	DW	00H
	DB	0c0H
	DB	00H
	DB	00H
	DB	00H
	DB	00H
	DB	00H
	DB	00H
	DB	046H
CONST	ENDS
;	COMDAT ?has_denorm@_Num_base@std@@2W4float_denorm_style@2@B
CONST	SEGMENT
?has_denorm@_Num_base@std@@2W4float_denorm_style@2@B DD 00H ; std::_Num_base::has_denorm
CONST	ENDS
;	COMDAT ?VT@?$CVarTypeInfo@PAUtagVARIANT@@@ATL@@2GB
CONST	SEGMENT
?VT@?$CVarTypeInfo@PAUtagVARIANT@@@ATL@@2GB DW 0400cH	; ATL::CVarTypeInfo<tagVARIANT *>::VT
CONST	ENDS
;	COMDAT ?pmField@?$CVarTypeInfo@PAN@ATL@@2QQtagVARIANT@@PANQ3@
CONST	SEGMENT
?pmField@?$CVarTypeInfo@PAN@ATL@@2QQtagVARIANT@@PANQ3@ DD 08H ; ATL::CVarTypeInfo<double *>::pmField
CONST	ENDS
;	COMDAT ?VT@?$CVarTypeInfo@PAN@ATL@@2GB
CONST	SEGMENT
?VT@?$CVarTypeInfo@PAN@ATL@@2GB DW 04005H		; ATL::CVarTypeInfo<double *>::VT
CONST	ENDS
;	COMDAT ?pmField@?$CVarTypeInfo@N@ATL@@2QQtagVARIANT@@NQ3@
CONST	SEGMENT
?pmField@?$CVarTypeInfo@N@ATL@@2QQtagVARIANT@@NQ3@ DD 08H ; ATL::CVarTypeInfo<double>::pmField
CONST	ENDS
;	COMDAT ?VT@?$CVarTypeInfo@N@ATL@@2GB
CONST	SEGMENT
?VT@?$CVarTypeInfo@N@ATL@@2GB DW 05H			; ATL::CVarTypeInfo<double>::VT
CONST	ENDS
;	COMDAT ?pmField@?$CVarTypeInfo@PAM@ATL@@2QQtagVARIANT@@PAMQ3@
CONST	SEGMENT
?pmField@?$CVarTypeInfo@PAM@ATL@@2QQtagVARIANT@@PAMQ3@ DD 08H ; ATL::CVarTypeInfo<float *>::pmField
CONST	ENDS
;	COMDAT __GUID_00020400_0000_0000_c000_000000000046
CONST	SEGMENT
__GUID_00020400_0000_0000_c000_000000000046 DD 020400H
	DW	00H
	DW	00H
	DB	0c0H
	DB	00H
	DB	00H
	DB	00H
	DB	00H
	DB	00H
	DB	00H
	DB	046H
CONST	ENDS
;	COMDAT ?VT@?$CVarTypeInfo@PAM@ATL@@2GB
CONST	SEGMENT
?VT@?$CVarTypeInfo@PAM@ATL@@2GB DW 04004H		; ATL::CVarTypeInfo<float *>::VT
CONST	ENDS
;	COMDAT __GUID_a6bc3ac0_dbaa_11ce_9de3_00aa004bb851
CONST	SEGMENT
__GUID_a6bc3ac0_dbaa_11ce_9de3_00aa004bb851 DD 0a6bc3ac0H
	DW	0dbaaH
	DW	011ceH
	DB	09dH
	DB	0e3H
	DB	00H
	DB	0aaH
	DB	00H
	DB	04bH
	DB	0b8H
	DB	051H
CONST	ENDS
;	COMDAT ?pmField@?$CVarTypeInfo@M@ATL@@2QQtagVARIANT@@MQ3@
CONST	SEGMENT
?pmField@?$CVarTypeInfo@M@ATL@@2QQtagVARIANT@@MQ3@ DD 08H ; ATL::CVarTypeInfo<float>::pmField
CONST	ENDS
;	COMDAT ?VT@?$CVarTypeInfo@M@ATL@@2GB
CONST	SEGMENT
?VT@?$CVarTypeInfo@M@ATL@@2GB DW 04H			; ATL::CVarTypeInfo<float>::VT
CONST	ENDS
;	COMDAT __GUID_00000000_0000_0000_c000_000000000046
CONST	SEGMENT
__GUID_00000000_0000_0000_c000_000000000046 DD 00H
	DW	00H
	DW	00H
	DB	0c0H
	DB	00H
	DB	00H
	DB	00H
	DB	00H
	DB	00H
	DB	00H
	DB	046H
CONST	ENDS
;	COMDAT ?pmField@?$CVarTypeInfo@PA_K@ATL@@2QQtagVARIANT@@PA_KQ3@
CONST	SEGMENT
?pmField@?$CVarTypeInfo@PA_K@ATL@@2QQtagVARIANT@@PA_KQ3@ DD 08H ; ATL::CVarTypeInfo<unsigned __int64 *>::pmField
CONST	ENDS
;	COMDAT ?VT@?$CVarTypeInfo@PA_K@ATL@@2GB
CONST	SEGMENT
?VT@?$CVarTypeInfo@PA_K@ATL@@2GB DW 04015H		; ATL::CVarTypeInfo<unsigned __int64 *>::VT
CONST	ENDS
;	COMDAT ??_C@_07KJLOKDKB@TypeLib?$AA@
CONST	SEGMENT
??_C@_07KJLOKDKB@TypeLib?$AA@ DB 'TypeLib', 00H		; `string'
CONST	ENDS
;	COMDAT ??_C@_08KEKAJNJI@Software?$AA@
CONST	SEGMENT
??_C@_08KEKAJNJI@Software?$AA@ DB 'Software', 00H	; `string'
CONST	ENDS
;	COMDAT ??_C@_06FDHFNJBJ@SYSTEM?$AA@
CONST	SEGMENT
??_C@_06FDHFNJBJ@SYSTEM?$AA@ DB 'SYSTEM', 00H		; `string'
CONST	ENDS
;	COMDAT ??_C@_08LOPHEHKG@SECURITY?$AA@
CONST	SEGMENT
??_C@_08LOPHEHKG@SECURITY?$AA@ DB 'SECURITY', 00H	; `string'
CONST	ENDS
;	COMDAT ??_C@_03DDIMFGBA@SAM?$AA@
CONST	SEGMENT
??_C@_03DDIMFGBA@SAM?$AA@ DB 'SAM', 00H			; `string'
CONST	ENDS
;	COMDAT ??_C@_04IHBFOLAC@Mime?$AA@
CONST	SEGMENT
??_C@_04IHBFOLAC@Mime?$AA@ DB 'Mime', 00H		; `string'
CONST	ENDS
;	COMDAT ??_C@_08PPIOJEA@Hardware?$AA@
CONST	SEGMENT
??_C@_08PPIOJEA@Hardware?$AA@ DB 'Hardware', 00H	; `string'
CONST	ENDS
;	COMDAT ??_C@_09JKPGEJCH@Interface?$AA@
CONST	SEGMENT
??_C@_09JKPGEJCH@Interface?$AA@ DB 'Interface', 00H	; `string'
CONST	ENDS
;	COMDAT ??_C@_08PICKODJL@FileType?$AA@
CONST	SEGMENT
??_C@_08PICKODJL@FileType?$AA@ DB 'FileType', 00H	; `string'
CONST	ENDS
;	COMDAT ?pmField@?$CVarTypeInfo@_K@ATL@@2QQtagVARIANT@@_KQ3@
CONST	SEGMENT
?pmField@?$CVarTypeInfo@_K@ATL@@2QQtagVARIANT@@_KQ3@ DD 08H ; ATL::CVarTypeInfo<unsigned __int64>::pmField
CONST	ENDS
;	COMDAT ??_C@_0BF@HDDNNDFH@Component?5Categories?$AA@
CONST	SEGMENT
??_C@_0BF@HDDNNDFH@Component?5Categories?$AA@ DB 'Component Categories', 00H ; `string'
CONST	ENDS
;	COMDAT ?VT@?$CVarTypeInfo@_K@ATL@@2GB
CONST	SEGMENT
?VT@?$CVarTypeInfo@_K@ATL@@2GB DW 015H			; ATL::CVarTypeInfo<unsigned __int64>::VT
CONST	ENDS
;	COMDAT ?_Stream_err@failure@ios_base@std@@0W4io_errc@43@B
CONST	SEGMENT
?_Stream_err@failure@ios_base@std@@0W4io_errc@43@B DD 01H ; std::ios_base::failure::_Stream_err
CONST	ENDS
;	COMDAT ?value@?$_Sizeof@U_Nil@std@@U12@U12@U12@U12@U12@U12@U12@@std@@2IB
CONST	SEGMENT
?value@?$_Sizeof@U_Nil@std@@U12@U12@U12@U12@U12@U12@U12@@std@@2IB DD 00H ; std::_Sizeof<std::_Nil,std::_Nil,std::_Nil,std::_Nil,std::_Nil,std::_Nil,std::_Nil,std::_Nil>::value
CONST	ENDS
;	COMDAT ?pmField@?$CVarTypeInfo@PA_J@ATL@@2QQtagVARIANT@@PA_JQ3@
CONST	SEGMENT
?pmField@?$CVarTypeInfo@PA_J@ATL@@2QQtagVARIANT@@PA_JQ3@ DD 08H ; ATL::CVarTypeInfo<__int64 *>::pmField
CONST	ENDS
;	COMDAT ?VT@?$CVarTypeInfo@PA_J@ATL@@2GB
CONST	SEGMENT
?VT@?$CVarTypeInfo@PA_J@ATL@@2GB DW 04014H		; ATL::CVarTypeInfo<__int64 *>::VT
CONST	ENDS
;	COMDAT ___pobjMapEntryLast
ATL$__z	SEGMENT
___pobjMapEntryLast DD 00H
ATL$__z	ENDS
;	COMDAT ___pobjMapEntryFirst
ATL$__a	SEGMENT
___pobjMapEntryFirst DD 00H
ATL$__a	ENDS
;	COMDAT ?pmField@?$CVarTypeInfo@_J@ATL@@2QQtagVARIANT@@_JQ3@
CONST	SEGMENT
?pmField@?$CVarTypeInfo@_J@ATL@@2QQtagVARIANT@@_JQ3@ DD 08H ; ATL::CVarTypeInfo<__int64>::pmField
CONST	ENDS
;	COMDAT ?VT@?$CVarTypeInfo@_J@ATL@@2GB
CONST	SEGMENT
?VT@?$CVarTypeInfo@_J@ATL@@2GB DW 014H			; ATL::CVarTypeInfo<__int64>::VT
CONST	ENDS
;	COMDAT ?end@?$_Iosb@H@std@@2W4_Seekdir@12@B
CONST	SEGMENT
?end@?$_Iosb@H@std@@2W4_Seekdir@12@B DD 02H		; std::_Iosb<int>::end
CONST	ENDS
;	COMDAT ?cur@?$_Iosb@H@std@@2W4_Seekdir@12@B
CONST	SEGMENT
?cur@?$_Iosb@H@std@@2W4_Seekdir@12@B DD 01H		; std::_Iosb<int>::cur
CONST	ENDS
;	COMDAT ?pmField@?$CVarTypeInfo@PAK@ATL@@2QQtagVARIANT@@PAKQ3@
CONST	SEGMENT
?pmField@?$CVarTypeInfo@PAK@ATL@@2QQtagVARIANT@@PAKQ3@ DD 08H ; ATL::CVarTypeInfo<unsigned long *>::pmField
CONST	ENDS
;	COMDAT ?beg@?$_Iosb@H@std@@2W4_Seekdir@12@B
CONST	SEGMENT
?beg@?$_Iosb@H@std@@2W4_Seekdir@12@B DD 00H		; std::_Iosb<int>::beg
CONST	ENDS
PUBLIC	??2@YAPAXIPAX@Z					; operator new
PUBLIC	??3@YAXPAX0@Z					; operator delete
PUBLIC	??1CComBSTR@ATL@@QAE@XZ				; ATL::CComBSTR::~CComBSTR
PUBLIC	??1stringdispid@CComTypeInfoHolder@ATL@@QAE@XZ	; ATL::CComTypeInfoHolder::stringdispid::~stringdispid
PUBLIC	??_Estringdispid@CComTypeInfoHolder@ATL@@QAEPAXI@Z ; ATL::CComTypeInfoHolder::stringdispid::`vector deleting destructor'
PUBLIC	?length@?$char_traits@D@std@@SAIPBD@Z		; std::char_traits<char>::length
PUBLIC	?copy@?$char_traits@D@std@@SAPADPADPBDI@Z	; std::char_traits<char>::copy
PUBLIC	?move@?$char_traits@D@std@@SAPADPADPBDI@Z	; std::char_traits<char>::move
PUBLIC	?assign@?$char_traits@D@std@@SAXAADABD@Z	; std::char_traits<char>::assign
PUBLIC	??0?$allocator@D@std@@QAE@XZ			; std::allocator<char>::allocator<char>
PUBLIC	?deallocate@?$allocator@D@std@@QAEXPADI@Z	; std::allocator<char>::deallocate
PUBLIC	?allocate@?$allocator@D@std@@QAEPADI@Z		; std::allocator<char>::allocate
PUBLIC	?max_size@?$allocator@D@std@@QBEIXZ		; std::allocator<char>::max_size
PUBLIC	?max_size@?$allocator_traits@V?$allocator@D@std@@@std@@SAIABV?$allocator@D@2@@Z ; std::allocator_traits<std::allocator<char> >::max_size
PUBLIC	??0?$_Wrap_alloc@V?$allocator@D@std@@@std@@QAE@XZ ; std::_Wrap_alloc<std::allocator<char> >::_Wrap_alloc<std::allocator<char> >
PUBLIC	?allocate@?$_Wrap_alloc@V?$allocator@D@std@@@std@@QAEPADI@Z ; std::_Wrap_alloc<std::allocator<char> >::allocate
PUBLIC	?deallocate@?$_Wrap_alloc@V?$allocator@D@std@@@std@@QAEXPADI@Z ; std::_Wrap_alloc<std::allocator<char> >::deallocate
PUBLIC	?max_size@?$_Wrap_alloc@V?$allocator@D@std@@@std@@QBEIXZ ; std::_Wrap_alloc<std::allocator<char> >::max_size
PUBLIC	??0?$_String_val@U?$_Simple_types@D@std@@@std@@QAE@XZ ; std::_String_val<std::_Simple_types<char> >::_String_val<std::_Simple_types<char> >
PUBLIC	?_Myptr@?$_String_val@U?$_Simple_types@D@std@@@std@@QAEPADXZ ; std::_String_val<std::_Simple_types<char> >::_Myptr
PUBLIC	?_Myptr@?$_String_val@U?$_Simple_types@D@std@@@std@@QBEPBDXZ ; std::_String_val<std::_Simple_types<char> >::_Myptr
PUBLIC	??0?$_String_alloc@$0A@U?$_String_base_types@DV?$allocator@D@std@@@std@@@std@@QAE@ABV?$allocator@D@1@@Z ; std::_String_alloc<0,std::_String_base_types<char,std::allocator<char> > >::_String_alloc<0,std::_String_base_types<char,std::allocator<char> > >
PUBLIC	?_Getal@?$_String_alloc@$0A@U?$_String_base_types@DV?$allocator@D@std@@@std@@@std@@QBE?AU?$_Wrap_alloc@V?$allocator@D@std@@@2@XZ ; std::_String_alloc<0,std::_String_base_types<char,std::allocator<char> > >::_Getal
PUBLIC	??0?$basic_string@DU?$char_traits@D@std@@V?$allocator@D@2@@std@@QAE@PBD@Z ; std::basic_string<char,std::char_traits<char>,std::allocator<char> >::basic_string<char,std::char_traits<char>,std::allocator<char> >
PUBLIC	?assign@?$basic_string@DU?$char_traits@D@std@@V?$allocator@D@2@@std@@QAEAAV12@ABV12@II@Z ; std::basic_string<char,std::char_traits<char>,std::allocator<char> >::assign
PUBLIC	?assign@?$basic_string@DU?$char_traits@D@std@@V?$allocator@D@2@@std@@QAEAAV12@PBDI@Z ; std::basic_string<char,std::char_traits<char>,std::allocator<char> >::assign
PUBLIC	?assign@?$basic_string@DU?$char_traits@D@std@@V?$allocator@D@2@@std@@QAEAAV12@PBD@Z ; std::basic_string<char,std::char_traits<char>,std::allocator<char> >::assign
PUBLIC	?erase@?$basic_string@DU?$char_traits@D@std@@V?$allocator@D@2@@std@@QAEAAV12@I@Z ; std::basic_string<char,std::char_traits<char>,std::allocator<char> >::erase
PUBLIC	?erase@?$basic_string@DU?$char_traits@D@std@@V?$allocator@D@2@@std@@QAEAAV12@II@Z ; std::basic_string<char,std::char_traits<char>,std::allocator<char> >::erase
PUBLIC	?size@?$basic_string@DU?$char_traits@D@std@@V?$allocator@D@2@@std@@QBEIXZ ; std::basic_string<char,std::char_traits<char>,std::allocator<char> >::size
PUBLIC	?max_size@?$basic_string@DU?$char_traits@D@std@@V?$allocator@D@2@@std@@QBEIXZ ; std::basic_string<char,std::char_traits<char>,std::allocator<char> >::max_size
PUBLIC	?_Copy@?$basic_string@DU?$char_traits@D@std@@V?$allocator@D@2@@std@@QAEXII@Z ; std::basic_string<char,std::char_traits<char>,std::allocator<char> >::_Copy
PUBLIC	?_Eos@?$basic_string@DU?$char_traits@D@std@@V?$allocator@D@2@@std@@QAEXI@Z ; std::basic_string<char,std::char_traits<char>,std::allocator<char> >::_Eos
PUBLIC	?_Grow@?$basic_string@DU?$char_traits@D@std@@V?$allocator@D@2@@std@@QAE_NI_N@Z ; std::basic_string<char,std::char_traits<char>,std::allocator<char> >::_Grow
PUBLIC	?_Inside@?$basic_string@DU?$char_traits@D@std@@V?$allocator@D@2@@std@@QAE_NPBD@Z ; std::basic_string<char,std::char_traits<char>,std::allocator<char> >::_Inside
PUBLIC	?_Tidy@?$basic_string@DU?$char_traits@D@std@@V?$allocator@D@2@@std@@QAEX_NI@Z ; std::basic_string<char,std::char_traits<char>,std::allocator<char> >::_Tidy
PUBLIC	?_Xlen@?$basic_string@DU?$char_traits@D@std@@V?$allocator@D@2@@std@@QBEXXZ ; std::basic_string<char,std::char_traits<char>,std::allocator<char> >::_Xlen
PUBLIC	?_Xran@?$basic_string@DU?$char_traits@D@std@@V?$allocator@D@2@@std@@QBEXXZ ; std::basic_string<char,std::char_traits<char>,std::allocator<char> >::_Xran
PUBLIC	??0id@locale@std@@QAE@I@Z			; std::locale::id::id
PUBLIC	?generic_category@std@@YAABVerror_category@1@XZ	; std::generic_category
PUBLIC	?system_category@std@@YAABVerror_category@1@XZ	; std::system_category
PUBLIC	??0error_category@std@@QAE@XZ			; std::error_category::error_category
PUBLIC	??1error_category@std@@UAE@XZ			; std::error_category::~error_category
PUBLIC	?default_error_condition@error_category@std@@UBE?AVerror_condition@2@H@Z ; std::error_category::default_error_condition
PUBLIC	?equivalent@error_category@std@@UBE_NHABVerror_condition@2@@Z ; std::error_category::equivalent
PUBLIC	?equivalent@error_category@std@@UBE_NABVerror_code@2@H@Z ; std::error_category::equivalent
PUBLIC	??8error_category@std@@QBE_NABV01@@Z		; std::error_category::operator==
PUBLIC	??_Gerror_category@std@@UAEPAXI@Z		; std::error_category::`scalar deleting destructor'
PUBLIC	?value@error_code@std@@QBEHXZ			; std::error_code::value
PUBLIC	?category@error_code@std@@QBEABVerror_category@2@XZ ; std::error_code::category
PUBLIC	??0error_condition@std@@QAE@HABVerror_category@1@@Z ; std::error_condition::error_condition
PUBLIC	?value@error_condition@std@@QBEHXZ		; std::error_condition::value
PUBLIC	?category@error_condition@std@@QBEABVerror_category@2@XZ ; std::error_condition::category
PUBLIC	??8error_condition@std@@QBE_NABV01@@Z		; std::error_condition::operator==
PUBLIC	??0_Generic_error_category@std@@QAE@XZ		; std::_Generic_error_category::_Generic_error_category
PUBLIC	?name@_Generic_error_category@std@@UBEPBDXZ	; std::_Generic_error_category::name
PUBLIC	?message@_Generic_error_category@std@@UBE?AV?$basic_string@DU?$char_traits@D@std@@V?$allocator@D@2@@2@H@Z ; std::_Generic_error_category::message
PUBLIC	??1_Generic_error_category@std@@UAE@XZ		; std::_Generic_error_category::~_Generic_error_category
PUBLIC	??_G_Generic_error_category@std@@UAEPAXI@Z	; std::_Generic_error_category::`scalar deleting destructor'
PUBLIC	??0_Iostream_error_category@std@@QAE@XZ		; std::_Iostream_error_category::_Iostream_error_category
PUBLIC	?name@_Iostream_error_category@std@@UBEPBDXZ	; std::_Iostream_error_category::name
PUBLIC	?message@_Iostream_error_category@std@@UBE?AV?$basic_string@DU?$char_traits@D@std@@V?$allocator@D@2@@2@H@Z ; std::_Iostream_error_category::message
PUBLIC	??1_Iostream_error_category@std@@UAE@XZ		; std::_Iostream_error_category::~_Iostream_error_category
PUBLIC	??_G_Iostream_error_category@std@@UAEPAXI@Z	; std::_Iostream_error_category::`scalar deleting destructor'
PUBLIC	??0_System_error_category@std@@QAE@XZ		; std::_System_error_category::_System_error_category
PUBLIC	?name@_System_error_category@std@@UBEPBDXZ	; std::_System_error_category::name
PUBLIC	?message@_System_error_category@std@@UBE?AV?$basic_string@DU?$char_traits@D@std@@V?$allocator@D@2@@2@H@Z ; std::_System_error_category::message
PUBLIC	?default_error_condition@_System_error_category@std@@UBE?AVerror_condition@2@H@Z ; std::_System_error_category::default_error_condition
PUBLIC	??1_System_error_category@std@@UAE@XZ		; std::_System_error_category::~_System_error_category
PUBLIC	??_G_System_error_category@std@@UAEPAXI@Z	; std::_System_error_category::`scalar deleting destructor'
PUBLIC	??_GC_Hash@@QAEPAXI@Z				; C_Hash::`scalar deleting destructor'
PUBLIC	?UI_Enter@@YAPAUF4CSECTIONHANDLE@@PAVC_Window@@@Z ; UI_Enter
PUBLIC	?UI_Leave@@YAXPAUF4CSECTIONHANDLE@@@Z		; UI_Leave
PUBLIC	?EnableGroup@C_Base@@QAEXJ@Z			; C_Base::EnableGroup
PUBLIC	?DisableGroup@C_Base@@QAEXJ@Z			; C_Base::DisableGroup
PUBLIC	?SetParent@C_Base@@QAEXPAVC_Window@@@Z		; C_Base::SetParent
PUBLIC	?GetID@C_Base@@QAEJXZ				; C_Base::GetID
PUBLIC	?GetType@C_Base@@QAEFXZ				; C_Base::GetType
PUBLIC	?GetGroup@C_Base@@QAEJXZ			; C_Base::GetGroup
PUBLIC	?GetCluster@C_Base@@QAEJXZ			; C_Base::GetCluster
PUBLIC	?GetFlags@C_Base@@QAEJXZ			; C_Base::GetFlags
PUBLIC	?GetClient@C_Base@@QAEFXZ			; C_Base::GetClient
PUBLIC	?GetX@C_Base@@QAEJXZ				; C_Base::GetX
PUBLIC	?GetY@C_Base@@QAEJXZ				; C_Base::GetY
PUBLIC	?GetW@C_Base@@QAEJXZ				; C_Base::GetW
PUBLIC	?GetH@C_Base@@QAEJXZ				; C_Base::GetH
PUBLIC	?ClearVW@C_ScrollBar@@QAEXXZ			; C_ScrollBar::ClearVW
PUBLIC	?ClearVH@C_ScrollBar@@QAEXXZ			; C_ScrollBar::ClearVH
PUBLIC	?SetVirtualW@C_ScrollBar@@QAEXJ@Z		; C_ScrollBar::SetVirtualW
PUBLIC	?SetVirtualH@C_ScrollBar@@QAEXJ@Z		; C_ScrollBar::SetVirtualH
PUBLIC	?FindControlInList@C_Window@@AAEPAUControlListStr@@PAVC_Base@@@Z ; C_Window::FindControlInList
PUBLIC	?GetScreenFormat@C_Window@@AAEXXZ		; C_Window::GetScreenFormat
PUBLIC	?SetCheckedUpdateRect@C_Window@@AAEJJJJJ@Z	; C_Window::SetCheckedUpdateRect
PUBLIC	?Fill@C_Window@@AAEXPAVSCREEN@@GPAUUI95_RECT@@@Z ; C_Window::Fill
PUBLIC	??0C_Window@@QAE@XZ				; C_Window::C_Window
PUBLIC	?GetCritical@C_Window@@QAEPAUF4CSECTIONHANDLE@@XZ ; C_Window::GetCritical
PUBLIC	?Setup@C_Window@@QAEXJFFF@Z			; C_Window::Setup
PUBLIC	?ResizeSurface@C_Window@@QAEXFF@Z		; C_Window::ResizeSurface
PUBLIC	?SetX@C_Window@@QAEXF@Z				; C_Window::SetX
PUBLIC	?SetY@C_Window@@QAEXF@Z				; C_Window::SetY
PUBLIC	?SetXY@C_Window@@QAEXFF@Z			; C_Window::SetXY
PUBLIC	?SetW@C_Window@@QAEXF@Z				; C_Window::SetW
PUBLIC	?SetH@C_Window@@QAEXF@Z				; C_Window::SetH
PUBLIC	?SetRanges@C_Window@@QAEXFFFFFF@Z		; C_Window::SetRanges
PUBLIC	?SetDepth@C_Window@@QAEXF@Z			; C_Window::SetDepth
PUBLIC	?SetDragH@C_Window@@QAEXF@Z			; C_Window::SetDragH
PUBLIC	?ScanClientArea@C_Window@@QAEXJ@Z		; C_Window::ScanClientArea
PUBLIC	?ScanClientAreas@C_Window@@QAEXXZ		; C_Window::ScanClientAreas
PUBLIC	?SetClientArea@C_Window@@QAEXJJJJF@Z		; C_Window::SetClientArea
PUBLIC	?SetVirtual@C_Window@@QAEXJJJJF@Z		; C_Window::SetVirtual
PUBLIC	?SetFlags@C_Window@@QAEXJ@Z			; C_Window::SetFlags
PUBLIC	?DeactivateControl@C_Window@@QAEXXZ		; C_Window::DeactivateControl
PUBLIC	?Activate@C_Window@@QAEXXZ			; C_Window::Activate
PUBLIC	?Deactivate@C_Window@@QAEXXZ			; C_Window::Deactivate
PUBLIC	?SetCursorID@C_Window@@QAEXJ@Z			; C_Window::SetCursorID
PUBLIC	?SetFlagBitOn@C_Window@@QAEXJ@Z			; C_Window::SetFlagBitOn
PUBLIC	?SetFlagBitOff@C_Window@@QAEXJ@Z		; C_Window::SetFlagBitOff
PUBLIC	?SetMenu@C_Window@@QAEXJ@Z			; C_Window::SetMenu
PUBLIC	?SetClientMenu@C_Window@@QAEXJJ@Z		; C_Window::SetClientMenu
PUBLIC	?SetClientFlags@C_Window@@QAEXJJ@Z		; C_Window::SetClientFlags
PUBLIC	?AdjustScrollbar@C_Window@@QAEXJ@Z		; C_Window::AdjustScrollbar
PUBLIC	?AddScrollBar@C_Window@@QAEXPAVC_ScrollBar@@@Z	; C_Window::AddScrollBar
PUBLIC	?AddControl@C_Window@@QAEXPAVC_Base@@@Z		; C_Window::AddControl
PUBLIC	?AddControlTop@C_Window@@QAEXPAVC_Base@@@Z	; C_Window::AddControlTop
PUBLIC	?RemoveControl@C_Window@@QAEXJ@Z		; C_Window::RemoveControl
PUBLIC	?RemoveControl@C_Window@@QAEPAUControlListStr@@PAU2@@Z ; C_Window::RemoveControl
PUBLIC	?RemoveAllControls@C_Window@@QAEXXZ		; C_Window::RemoveAllControls
PUBLIC	?SetFont@C_Window@@QAEHJ@Z			; C_Window::SetFont
PUBLIC	?CheckKeyboard@C_Window@@QAEHEEEJ@Z		; C_Window::CheckKeyboard
PUBLIC	?CheckHotKeys@C_Window@@QAEHEEEJ@Z		; C_Window::CheckHotKeys
PUBLIC	?SetControl@C_Window@@QAEXJ@Z			; C_Window::SetControl
PUBLIC	?SetPrevControl@C_Window@@QAEXXZ		; C_Window::SetPrevControl
PUBLIC	?SetNextControl@C_Window@@QAEXXZ		; C_Window::SetNextControl
PUBLIC	?Cleanup@C_Window@@QAEXXZ			; C_Window::Cleanup
PUBLIC	?SetDefaultFlags@C_Window@@QAEXXZ		; C_Window::SetDefaultFlags
PUBLIC	?AddUpdateRect@C_Window@@QAEXJJJJ@Z		; C_Window::AddUpdateRect
PUBLIC	?SetUpdateRect@C_Window@@QAEXJJJJJJ@Z		; C_Window::SetUpdateRect
PUBLIC	?ClearCheckedUpdateRect@C_Window@@QAEXJJJJ@Z	; C_Window::ClearCheckedUpdateRect
PUBLIC	?ClearUpdateRect@C_Window@@QAEXJJJJ@Z		; C_Window::ClearUpdateRect
PUBLIC	?SetGroup@C_Window@@QAEXJ@Z			; C_Window::SetGroup
PUBLIC	?GetX@C_Window@@QAEFXZ				; C_Window::GetX
PUBLIC	?GetY@C_Window@@QAEFXZ				; C_Window::GetY
PUBLIC	?GetW@C_Window@@QAEFXZ				; C_Window::GetW
PUBLIC	?GetH@C_Window@@QAEFXZ				; C_Window::GetH
PUBLIC	?GetPrimaryW@C_Window@@QAEFXZ			; C_Window::GetPrimaryW
PUBLIC	?Minimize@C_Window@@QAEXXZ			; C_Window::Minimize
PUBLIC	?Maximize@C_Window@@QAEXXZ			; C_Window::Maximize
PUBLIC	?ClipToArea@C_Window@@QAEHPAUUI95_RECT@@00@Z	; C_Window::ClipToArea
PUBLIC	?InsideClientWidth@C_Window@@QAEHJJJ@Z		; C_Window::InsideClientWidth
PUBLIC	?InsideClientHeight@C_Window@@QAEHJJJ@Z		; C_Window::InsideClientHeight
PUBLIC	?BelowClient@C_Window@@QAEHJJ@Z			; C_Window::BelowClient
PUBLIC	?EnableGroup@C_Window@@QAEXJ@Z			; C_Window::EnableGroup
PUBLIC	?DisableGroup@C_Window@@QAEXJ@Z			; C_Window::DisableGroup
PUBLIC	?UnHideGroup@C_Window@@QAEXJ@Z			; C_Window::UnHideGroup
PUBLIC	?HideGroup@C_Window@@QAEXJ@Z			; C_Window::HideGroup
PUBLIC	?EnableCluster@C_Window@@QAEXJ@Z		; C_Window::EnableCluster
PUBLIC	?DisableCluster@C_Window@@QAEXJ@Z		; C_Window::DisableCluster
PUBLIC	?UnHideCluster@C_Window@@QAEXJ@Z		; C_Window::UnHideCluster
PUBLIC	?HideCluster@C_Window@@QAEXJ@Z			; C_Window::HideCluster
PUBLIC	?SetGroupState@C_Window@@QAEXJF@Z		; C_Window::SetGroupState
PUBLIC	?RefreshWindow@C_Window@@QAEXXZ			; C_Window::RefreshWindow
PUBLIC	?RefreshClient@C_Window@@QAEXJ@Z		; C_Window::RefreshClient
PUBLIC	?DrawWindow@C_Window@@QAEXPAVSCREEN@@@Z		; C_Window::DrawWindow
PUBLIC	?UpdateTimerControls@C_Window@@QAEHXZ		; C_Window::UpdateTimerControls
PUBLIC	?DrawTimerControls@C_Window@@QAEXXZ		; C_Window::DrawTimerControls
PUBLIC	?Blend@C_Window@@QAEXPAGPAUUI95_RECT@@F01F01FFF@Z ; C_Window::Blend
PUBLIC	?BlendTransparent@C_Window@@QAEXGPAGPAUUI95_RECT@@F01F01FFF@Z ; C_Window::BlendTransparent
PUBLIC	?Translucency@C_Window@@QAEXPAGPAUUI95_RECT@@F01F@Z ; C_Window::Translucency
PUBLIC	?BlitTranslucent@C_Window@@QAEXPAVSCREEN@@KJPAUUI95_RECT@@JJ@Z ; C_Window::BlitTranslucent
PUBLIC	?CustomBlitTranslucent@C_Window@@QAEXPAVSCREEN@@KJPAUUI95_RECT@@JJ@Z ; C_Window::CustomBlitTranslucent
PUBLIC	?DitherFill@C_Window@@QAEXPAVSCREEN@@KJFPADPAUUI95_RECT@@JJ@Z ; C_Window::DitherFill
PUBLIC	?GradientFill@C_Window@@QAEXPAVSCREEN@@KJPAUUI95_RECT@@JJ@Z ; C_Window::GradientFill
PUBLIC	?BlitFill@C_Window@@QAEXPAVSCREEN@@KPAUUI95_RECT@@JJ@Z ; C_Window::BlitFill
PUBLIC	?BlitFill@C_Window@@QAEXPAVSCREEN@@KJJJJJJPAUUI95_RECT@@@Z ; C_Window::BlitFill
PUBLIC	?DrawHLine@C_Window@@QAEXPAVSCREEN@@KJJJJJPAUUI95_RECT@@@Z ; C_Window::DrawHLine
PUBLIC	?DrawVLine@C_Window@@QAEXPAVSCREEN@@KJJJJJPAUUI95_RECT@@@Z ; C_Window::DrawVLine
PUBLIC	?CheckLine@C_Window@@QAEHJJJJJJJJ@Z		; C_Window::CheckLine
PUBLIC	?DrawLine@C_Window@@QAEXPAVSCREEN@@KJJJJJJPAUUI95_RECT@@@Z ; C_Window::DrawLine
PUBLIC	?ClipLine@C_Window@@QAEHPAJ000PAUUI95_RECT@@@Z	; C_Window::ClipLine
PUBLIC	?DrawClipLine@C_Window@@QAEXPAVSCREEN@@JJJJPAUUI95_RECT@@G@Z ; C_Window::DrawClipLine
PUBLIC	?DrawCircle@C_Window@@QAEXPAVSCREEN@@KJJMJJPAUUI95_RECT@@@Z ; C_Window::DrawCircle
PUBLIC	?DrawArc@C_Window@@QAEXPAVSCREEN@@KJJMFJJPAUUI95_RECT@@@Z ; C_Window::DrawArc
PUBLIC	?ClearWindow@C_Window@@QAEXPAVSCREEN@@J@Z	; C_Window::ClearWindow
PUBLIC	?ClearArea@C_Window@@QAEXPAVSCREEN@@JJJJJJ@Z	; C_Window::ClearArea
PUBLIC	?KeyboardMode@C_Window@@QAEHXZ			; C_Window::KeyboardMode
PUBLIC	?RemovingControl@C_Window@@QAEXPAVC_Base@@@Z	; C_Window::RemovingControl
PUBLIC	?FindControl@C_Window@@QAEPAVC_Base@@J@Z	; C_Window::FindControl
PUBLIC	?GetControl@C_Window@@QAEPAVC_Base@@PAJJJ@Z	; C_Window::GetControl
PUBLIC	?MouseOver@C_Window@@QAEPAVC_Base@@JJPAV2@@Z	; C_Window::MouseOver
PUBLIC	?Drag@C_Window@@QAEHPAUGRABBER@@GGPAV1@@Z	; C_Window::Drag
PUBLIC	?Drop@C_Window@@QAEHPAUGRABBER@@GGPAV1@@Z	; C_Window::Drop
PUBLIC	?ConstraintsCorrection@C_Window@@QAEXJJ@Z	; C_Window::ConstraintsCorrection
PUBLIC	?LocalFind@C_Window@@QAEFPAD@Z			; C_Window::LocalFind
PUBLIC	?LocalFunction@C_Window@@QAEXFQAJPADPAVC_Handler@@@Z ; C_Window::LocalFunction
PUBLIC	?SaveTextControls@C_Window@@QAEXPAXPAVC_Parser@@@Z ; C_Window::SaveTextControls
PUBLIC	?SetKeyboardMode@C_Handler@@QAEXH@Z		; C_Handler::SetKeyboardMode
PUBLIC	?KeyboardMode@C_Handler@@QAEHXZ			; C_Handler::KeyboardMode
PUBLIC	?GetW@C_Handler@@QAEJXZ				; C_Handler::GetW
PUBLIC	?GetH@C_Handler@@QAEJXZ				; C_Handler::GetH
PUBLIC	?GetFront@C_Handler@@QAEPAVImageBuffer@@XZ	; C_Handler::GetFront
PUBLIC	??$construct@PADAAPAD@?$_Wrap_alloc@V?$allocator@D@std@@@std@@QAEXPAPADAAPAD@Z ; std::_Wrap_alloc<std::allocator<char> >::construct<char *,char * &>
PUBLIC	??$destroy@PAD@?$_Wrap_alloc@V?$allocator@D@std@@@std@@QAEXPAPAD@Z ; std::_Wrap_alloc<std::allocator<char> >::destroy<char *>
PUBLIC	??$addressof@D@std@@YAPADAAD@Z			; std::addressof<char>
PUBLIC	??$_Allocate@D@std@@YAPADIPAD@Z			; std::_Allocate<char>
PUBLIC	??$forward@AAPAD@std@@YAAAPADAAPAD@Z		; std::forward<char * &>
PUBLIC	??$construct@PADAAPAD@?$allocator_traits@V?$allocator@D@std@@@std@@SAXAAV?$allocator@D@1@PAPADAAPAD@Z ; std::allocator_traits<std::allocator<char> >::construct<char *,char * &>
PUBLIC	??$destroy@PAD@?$allocator_traits@V?$allocator@D@std@@@std@@SAXAAV?$allocator@D@1@PAPAD@Z ; std::allocator_traits<std::allocator<char> >::destroy<char *>
PUBLIC	??$construct@PADAAPAD@?$allocator@D@std@@QAEXPAPADAAPAD@Z ; std::allocator<char>::construct<char *,char * &>
PUBLIC	??$destroy@PAD@?$allocator@D@std@@QAEXPAPAD@Z	; std::allocator<char>::destroy<char *>
PUBLIC	??_7error_category@std@@6B@			; std::error_category::`vftable'
PUBLIC	??_7_Generic_error_category@std@@6B@		; std::_Generic_error_category::`vftable'
PUBLIC	??_C@_07DCLBNMLN@generic?$AA@			; `string'
PUBLIC	??_C@_0O@BFJCFAAK@unknown?5error?$AA@		; `string'
PUBLIC	??_7_Iostream_error_category@std@@6B@		; std::_Iostream_error_category::`vftable'
PUBLIC	??_C@_08LLGCOLLL@iostream?$AA@			; `string'
PUBLIC	??_C@_0BG@PADBLCHM@iostream?5stream?5error?$AA@	; `string'
PUBLIC	??_7_System_error_category@std@@6B@		; std::_System_error_category::`vftable'
PUBLIC	??_C@_06FHFOAHML@system?$AA@			; `string'
PUBLIC	?_Generic_object@?$_Error_objects@H@std@@2V_Generic_error_category@2@A ; std::_Error_objects<int>::_Generic_object
PUBLIC	?_Iostream_object@?$_Error_objects@H@std@@2V_Iostream_error_category@2@A ; std::_Error_objects<int>::_Iostream_object
PUBLIC	?_System_object@?$_Error_objects@H@std@@2V_System_error_category@2@A ; std::_Error_objects<int>::_System_object
PUBLIC	?id@?$num_put@DV?$back_insert_iterator@V?$basic_string@DU?$char_traits@D@std@@V?$allocator@D@2@@std@@@std@@@std@@2V0locale@2@A ; std::num_put<char,std::back_insert_iterator<std::basic_string<char,std::char_traits<char>,std::allocator<char> > > >::id
PUBLIC	?id@?$num_put@_WV?$back_insert_iterator@V?$basic_string@_WU?$char_traits@_W@std@@V?$allocator@_W@2@@std@@@std@@@std@@2V0locale@2@A ; std::num_put<wchar_t,std::back_insert_iterator<std::basic_string<wchar_t,std::char_traits<wchar_t>,std::allocator<wchar_t> > > >::id
PUBLIC	?id@?$numpunct@D@std@@2V0locale@2@A		; std::numpunct<char>::id
PUBLIC	?id@?$numpunct@_W@std@@2V0locale@2@A		; std::numpunct<wchar_t>::id
PUBLIC	??_C@_0BI@CFPLBAOH@invalid?5string?5position?$AA@ ; `string'
PUBLIC	??_C@_0BA@JFNIOLAK@string?5too?5long?$AA@	; `string'
PUBLIC	??_R4error_category@std@@6B@			; std::error_category::`RTTI Complete Object Locator'
PUBLIC	??_R0?AVerror_category@std@@@8			; std::error_category `RTTI Type Descriptor'
PUBLIC	??_R3error_category@std@@8			; std::error_category::`RTTI Class Hierarchy Descriptor'
PUBLIC	??_R2error_category@std@@8			; std::error_category::`RTTI Base Class Array'
PUBLIC	??_R1A@?0A@EA@error_category@std@@8		; std::error_category::`RTTI Base Class Descriptor at (0,-1,0,64)'
PUBLIC	??_R4_Generic_error_category@std@@6B@		; std::_Generic_error_category::`RTTI Complete Object Locator'
PUBLIC	??_R0?AV_Generic_error_category@std@@@8		; std::_Generic_error_category `RTTI Type Descriptor'
PUBLIC	??_R3_Generic_error_category@std@@8		; std::_Generic_error_category::`RTTI Class Hierarchy Descriptor'
PUBLIC	??_R2_Generic_error_category@std@@8		; std::_Generic_error_category::`RTTI Base Class Array'
PUBLIC	??_R1A@?0A@EA@_Generic_error_category@std@@8	; std::_Generic_error_category::`RTTI Base Class Descriptor at (0,-1,0,64)'
PUBLIC	??_R4_Iostream_error_category@std@@6B@		; std::_Iostream_error_category::`RTTI Complete Object Locator'
PUBLIC	??_R0?AV_Iostream_error_category@std@@@8	; std::_Iostream_error_category `RTTI Type Descriptor'
PUBLIC	??_R3_Iostream_error_category@std@@8		; std::_Iostream_error_category::`RTTI Class Hierarchy Descriptor'
PUBLIC	??_R2_Iostream_error_category@std@@8		; std::_Iostream_error_category::`RTTI Base Class Array'
PUBLIC	??_R1A@?0A@EA@_Iostream_error_category@std@@8	; std::_Iostream_error_category::`RTTI Base Class Descriptor at (0,-1,0,64)'
PUBLIC	??_R4_System_error_category@std@@6B@		; std::_System_error_category::`RTTI Complete Object Locator'
PUBLIC	??_R0?AV_System_error_category@std@@@8		; std::_System_error_category `RTTI Type Descriptor'
PUBLIC	??_R3_System_error_category@std@@8		; std::_System_error_category::`RTTI Class Hierarchy Descriptor'
PUBLIC	??_R2_System_error_category@std@@8		; std::_System_error_category::`RTTI Base Class Array'
PUBLIC	??_R1A@?0A@EA@_System_error_category@std@@8	; std::_System_error_category::`RTTI Base Class Descriptor at (0,-1,0,64)'
PUBLIC	__real@00000000
EXTRN	??_M@YGXPAXIHP6EX0@Z@Z:PROC			; `eh vector destructor iterator'
EXTRN	__purecall:PROC
EXTRN	??2@YAPAXI@Z:PROC				; operator new
EXTRN	??3@YAXPAX@Z:PROC				; operator delete
EXTRN	_atexit:PROC
EXTRN	_memcpy:PROC
EXTRN	_memset:PROC
EXTRN	_strlen:PROC
EXTRN	_memmove:PROC
EXTRN	_strnicmp:PROC
EXTRN	__imp__WriteFile@20:PROC
EXTRN	??_V@YAXPAX@Z:PROC				; operator delete[]
EXTRN	__imp__SysFreeString@4:PROC
EXTRN	?_Xbad_alloc@std@@YAXXZ:PROC			; std::_Xbad_alloc
EXTRN	?_Xlength_error@std@@YAXPBD@Z:PROC		; std::_Xlength_error
EXTRN	?_Xout_of_range@std@@YAXPBD@Z:PROC		; std::_Xout_of_range
EXTRN	??_Eerror_category@std@@UAEPAXI@Z:PROC		; std::error_category::`vector deleting destructor'
EXTRN	?_Syserror_map@std@@YAPBDH@Z:PROC		; std::_Syserror_map
EXTRN	?_Winerror_map@std@@YAPBDH@Z:PROC		; std::_Winerror_map
EXTRN	??_E_Generic_error_category@std@@UAEPAXI@Z:PROC	; std::_Generic_error_category::`vector deleting destructor'
EXTRN	??_E_Iostream_error_category@std@@UAEPAXI@Z:PROC ; std::_Iostream_error_category::`vector deleting destructor'
EXTRN	??_E_System_error_category@std@@UAEPAXI@Z:PROC	; std::_System_error_category::`vector deleting destructor'
EXTRN	_F4EnterCriticalSection:PROC
EXTRN	_F4LeaveCriticalSection:PROC
EXTRN	?UI95_GetScreenColorInfo@@YAXAAKAAG0101@Z:PROC	; UI95_GetScreenColorInfo
EXTRN	?UI95_RGB24Bit@@YAGK@Z:PROC			; UI95_RGB24Bit
EXTRN	?F4IsBadReadPtr@@YA_NPBXI@Z:PROC		; F4IsBadReadPtr
EXTRN	??0C_Hash@@QAE@XZ:PROC				; C_Hash::C_Hash
EXTRN	??1C_Hash@@QAE@XZ:PROC				; C_Hash::~C_Hash
EXTRN	?Setup@C_Hash@@QAEXJ@Z:PROC			; C_Hash::Setup
EXTRN	?Cleanup@C_Hash@@QAEXXZ:PROC			; C_Hash::Cleanup
EXTRN	?Find@C_Hash@@QAEPAXJ@Z:PROC			; C_Hash::Find
EXTRN	?Add@C_Hash@@QAEXJPAX@Z:PROC			; C_Hash::Add
EXTRN	?Remove@C_Hash@@QAEXJ@Z:PROC			; C_Hash::Remove
EXTRN	?CalcRanges@C_ScrollBar@@AAEXXZ:PROC		; C_ScrollBar::CalcRanges
EXTRN	?UpdatePosition@C_ScrollBar@@QAEXXZ:PROC	; C_ScrollBar::UpdatePosition
EXTRN	?SetBehindWindow@C_Handler@@QAEXPAVC_Window@@@Z:PROC ; C_Handler::SetBehindWindow
EXTRN	?RemovingControl@C_Handler@@QAEXPAVC_Base@@@Z:PROC ; C_Handler::RemovingControl
EXTRN	?RGB565toRGB8@@YAKG@Z:PROC			; RGB565toRGB8
EXTRN	?RGB8toRGB565@@YAGK@Z:PROC			; RGB8toRGB565
EXTRN	@__security_check_cookie@4:PROC
EXTRN	__CxxThrowException@8:PROC
EXTRN	___CxxFrameHandler3:PROC
EXTRN	__ftol2_sse:PROC
EXTRN	??_7type_info@@6B@:QWORD			; type_info::`vftable'
EXTRN	?gMainHandler@@3PAVC_Handler@@A:DWORD		; gMainHandler
EXTRN	?UIColorTable@@3PAY0BAA@GA:BYTE			; UIColorTable
EXTRN	?rShift@@3PAGA:BYTE				; rShift
EXTRN	?bShift@@3PAGA:BYTE				; bShift
EXTRN	?gShift@@3PAGA:BYTE				; gShift
EXTRN	?ParseCRLF@@3PADA:BYTE				; ParseCRLF
EXTRN	___security_cookie:DWORD
EXTRN	__fltused:DWORD
_BSS	SEGMENT
_piecewise_construct DB 01H DUP (?)
_allocator_arg DB 01H DUP (?)
_BSS	ENDS
;	COMDAT ?_Generic_object@?$_Error_objects@H@std@@2V_Generic_error_category@2@A
_BSS	SEGMENT
?_Generic_object@?$_Error_objects@H@std@@2V_Generic_error_category@2@A DD 01H DUP (?) ; std::_Error_objects<int>::_Generic_object
_BSS	ENDS
;	COMDAT ?_Iostream_object@?$_Error_objects@H@std@@2V_Iostream_error_category@2@A
_BSS	SEGMENT
?_Iostream_object@?$_Error_objects@H@std@@2V_Iostream_error_category@2@A DD 01H DUP (?) ; std::_Error_objects<int>::_Iostream_object
_BSS	ENDS
;	COMDAT ?_System_object@?$_Error_objects@H@std@@2V_System_error_category@2@A
_BSS	SEGMENT
?_System_object@?$_Error_objects@H@std@@2V_System_error_category@2@A DD 01H DUP (?) ; std::_Error_objects<int>::_System_object
_BSS	ENDS
;	COMDAT ?id@?$num_put@DV?$back_insert_iterator@V?$basic_string@DU?$char_traits@D@std@@V?$allocator@D@2@@std@@@std@@@std@@2V0locale@2@A
_BSS	SEGMENT
?id@?$num_put@DV?$back_insert_iterator@V?$basic_string@DU?$char_traits@D@std@@V?$allocator@D@2@@std@@@std@@@std@@2V0locale@2@A DD 01H DUP (?) ; std::num_put<char,std::back_insert_iterator<std::basic_string<char,std::char_traits<char>,std::allocator<char> > > >::id
_BSS	ENDS
;	COMDAT ?id@?$num_put@_WV?$back_insert_iterator@V?$basic_string@_WU?$char_traits@_W@std@@V?$allocator@_W@2@@std@@@std@@@std@@2V0locale@2@A
_BSS	SEGMENT
?id@?$num_put@_WV?$back_insert_iterator@V?$basic_string@_WU?$char_traits@_W@std@@V?$allocator@_W@2@@std@@@std@@@std@@2V0locale@2@A DD 01H DUP (?) ; std::num_put<wchar_t,std::back_insert_iterator<std::basic_string<wchar_t,std::char_traits<wchar_t>,std::allocator<wchar_t> > > >::id
_BSS	ENDS
;	COMDAT ?id@?$numpunct@D@std@@2V0locale@2@A
_BSS	SEGMENT
?id@?$numpunct@D@std@@2V0locale@2@A DD 01H DUP (?)	; std::numpunct<char>::id
_BSS	ENDS
;	COMDAT ?id@?$numpunct@_W@std@@2V0locale@2@A
_BSS	SEGMENT
?id@?$numpunct@_W@std@@2V0locale@2@A DD 01H DUP (?)	; std::numpunct<wchar_t>::id
_BSS	ENDS
CRT$XCU	SEGMENT
_piecewise_construct$initializer$ DD FLAT:??__Epiecewise_construct@std@@YAXXZ
CRT$XCU	ENDS
;	COMDAT __real@00000000
CONST	SEGMENT
__real@00000000 DD 000000000r			; 0
CONST	ENDS
;	COMDAT ??_R1A@?0A@EA@_System_error_category@std@@8
rdata$r	SEGMENT
??_R1A@?0A@EA@_System_error_category@std@@8 DD FLAT:??_R0?AV_System_error_category@std@@@8 ; std::_System_error_category::`RTTI Base Class Descriptor at (0,-1,0,64)'
	DD	02H
	DD	00H
	DD	0ffffffffH
	DD	00H
	DD	040H
	DD	FLAT:??_R3_System_error_category@std@@8
rdata$r	ENDS
;	COMDAT ??_R2_System_error_category@std@@8
rdata$r	SEGMENT
??_R2_System_error_category@std@@8 DD FLAT:??_R1A@?0A@EA@_System_error_category@std@@8 ; std::_System_error_category::`RTTI Base Class Array'
	DD	FLAT:??_R1A@?0A@EA@_Generic_error_category@std@@8
	DD	FLAT:??_R1A@?0A@EA@error_category@std@@8
rdata$r	ENDS
;	COMDAT ??_R3_System_error_category@std@@8
rdata$r	SEGMENT
??_R3_System_error_category@std@@8 DD 00H		; std::_System_error_category::`RTTI Class Hierarchy Descriptor'
	DD	00H
	DD	03H
	DD	FLAT:??_R2_System_error_category@std@@8
rdata$r	ENDS
;	COMDAT ??_R0?AV_System_error_category@std@@@8
_DATA	SEGMENT
??_R0?AV_System_error_category@std@@@8 DD FLAT:??_7type_info@@6B@ ; std::_System_error_category `RTTI Type Descriptor'
	DD	00H
	DB	'.?AV_System_error_category@std@@', 00H
_DATA	ENDS
;	COMDAT ??_R4_System_error_category@std@@6B@
rdata$r	SEGMENT
??_R4_System_error_category@std@@6B@ DD 00H		; std::_System_error_category::`RTTI Complete Object Locator'
	DD	00H
	DD	00H
	DD	FLAT:??_R0?AV_System_error_category@std@@@8
	DD	FLAT:??_R3_System_error_category@std@@8
rdata$r	ENDS
;	COMDAT ??_R1A@?0A@EA@_Iostream_error_category@std@@8
rdata$r	SEGMENT
??_R1A@?0A@EA@_Iostream_error_category@std@@8 DD FLAT:??_R0?AV_Iostream_error_category@std@@@8 ; std::_Iostream_error_category::`RTTI Base Class Descriptor at (0,-1,0,64)'
	DD	02H
	DD	00H
	DD	0ffffffffH
	DD	00H
	DD	040H
	DD	FLAT:??_R3_Iostream_error_category@std@@8
rdata$r	ENDS
;	COMDAT ??_R2_Iostream_error_category@std@@8
rdata$r	SEGMENT
??_R2_Iostream_error_category@std@@8 DD FLAT:??_R1A@?0A@EA@_Iostream_error_category@std@@8 ; std::_Iostream_error_category::`RTTI Base Class Array'
	DD	FLAT:??_R1A@?0A@EA@_Generic_error_category@std@@8
	DD	FLAT:??_R1A@?0A@EA@error_category@std@@8
rdata$r	ENDS
;	COMDAT ??_R3_Iostream_error_category@std@@8
rdata$r	SEGMENT
??_R3_Iostream_error_category@std@@8 DD 00H		; std::_Iostream_error_category::`RTTI Class Hierarchy Descriptor'
	DD	00H
	DD	03H
	DD	FLAT:??_R2_Iostream_error_category@std@@8
rdata$r	ENDS
;	COMDAT ??_R0?AV_Iostream_error_category@std@@@8
_DATA	SEGMENT
??_R0?AV_Iostream_error_category@std@@@8 DD FLAT:??_7type_info@@6B@ ; std::_Iostream_error_category `RTTI Type Descriptor'
	DD	00H
	DB	'.?AV_Iostream_error_category@std@@', 00H
_DATA	ENDS
;	COMDAT ??_R4_Iostream_error_category@std@@6B@
rdata$r	SEGMENT
??_R4_Iostream_error_category@std@@6B@ DD 00H		; std::_Iostream_error_category::`RTTI Complete Object Locator'
	DD	00H
	DD	00H
	DD	FLAT:??_R0?AV_Iostream_error_category@std@@@8
	DD	FLAT:??_R3_Iostream_error_category@std@@8
rdata$r	ENDS
;	COMDAT ??_R1A@?0A@EA@_Generic_error_category@std@@8
rdata$r	SEGMENT
??_R1A@?0A@EA@_Generic_error_category@std@@8 DD FLAT:??_R0?AV_Generic_error_category@std@@@8 ; std::_Generic_error_category::`RTTI Base Class Descriptor at (0,-1,0,64)'
	DD	01H
	DD	00H
	DD	0ffffffffH
	DD	00H
	DD	040H
	DD	FLAT:??_R3_Generic_error_category@std@@8
rdata$r	ENDS
;	COMDAT ??_R2_Generic_error_category@std@@8
rdata$r	SEGMENT
??_R2_Generic_error_category@std@@8 DD FLAT:??_R1A@?0A@EA@_Generic_error_category@std@@8 ; std::_Generic_error_category::`RTTI Base Class Array'
	DD	FLAT:??_R1A@?0A@EA@error_category@std@@8
rdata$r	ENDS
;	COMDAT ??_R3_Generic_error_category@std@@8
rdata$r	SEGMENT
??_R3_Generic_error_category@std@@8 DD 00H		; std::_Generic_error_category::`RTTI Class Hierarchy Descriptor'
	DD	00H
	DD	02H
	DD	FLAT:??_R2_Generic_error_category@std@@8
rdata$r	ENDS
;	COMDAT ??_R0?AV_Generic_error_category@std@@@8
_DATA	SEGMENT
??_R0?AV_Generic_error_category@std@@@8 DD FLAT:??_7type_info@@6B@ ; std::_Generic_error_category `RTTI Type Descriptor'
	DD	00H
	DB	'.?AV_Generic_error_category@std@@', 00H
_DATA	ENDS
;	COMDAT ??_R4_Generic_error_category@std@@6B@
rdata$r	SEGMENT
??_R4_Generic_error_category@std@@6B@ DD 00H		; std::_Generic_error_category::`RTTI Complete Object Locator'
	DD	00H
	DD	00H
	DD	FLAT:??_R0?AV_Generic_error_category@std@@@8
	DD	FLAT:??_R3_Generic_error_category@std@@8
rdata$r	ENDS
;	COMDAT ??_R1A@?0A@EA@error_category@std@@8
rdata$r	SEGMENT
??_R1A@?0A@EA@error_category@std@@8 DD FLAT:??_R0?AVerror_category@std@@@8 ; std::error_category::`RTTI Base Class Descriptor at (0,-1,0,64)'
	DD	00H
	DD	00H
	DD	0ffffffffH
	DD	00H
	DD	040H
	DD	FLAT:??_R3error_category@std@@8
rdata$r	ENDS
;	COMDAT ??_R2error_category@std@@8
rdata$r	SEGMENT
??_R2error_category@std@@8 DD FLAT:??_R1A@?0A@EA@error_category@std@@8 ; std::error_category::`RTTI Base Class Array'
rdata$r	ENDS
;	COMDAT ??_R3error_category@std@@8
rdata$r	SEGMENT
??_R3error_category@std@@8 DD 00H			; std::error_category::`RTTI Class Hierarchy Descriptor'
	DD	00H
	DD	01H
	DD	FLAT:??_R2error_category@std@@8
rdata$r	ENDS
;	COMDAT ??_R0?AVerror_category@std@@@8
_DATA	SEGMENT
??_R0?AVerror_category@std@@@8 DD FLAT:??_7type_info@@6B@ ; std::error_category `RTTI Type Descriptor'
	DD	00H
	DB	'.?AVerror_category@std@@', 00H
_DATA	ENDS
;	COMDAT ??_R4error_category@std@@6B@
rdata$r	SEGMENT
??_R4error_category@std@@6B@ DD 00H			; std::error_category::`RTTI Complete Object Locator'
	DD	00H
	DD	00H
	DD	FLAT:??_R0?AVerror_category@std@@@8
	DD	FLAT:??_R3error_category@std@@8
rdata$r	ENDS
;	COMDAT ??_C@_0BA@JFNIOLAK@string?5too?5long?$AA@
CONST	SEGMENT
??_C@_0BA@JFNIOLAK@string?5too?5long?$AA@ DB 'string too long', 00H ; `string'
CONST	ENDS
;	COMDAT ??_C@_0BI@CFPLBAOH@invalid?5string?5position?$AA@
CONST	SEGMENT
??_C@_0BI@CFPLBAOH@invalid?5string?5position?$AA@ DB 'invalid string posi'
	DB	'tion', 00H					; `string'
CONST	ENDS
;	COMDAT ??_C@_06FHFOAHML@system?$AA@
CONST	SEGMENT
??_C@_06FHFOAHML@system?$AA@ DB 'system', 00H		; `string'
CONST	ENDS
;	COMDAT ??_7_System_error_category@std@@6B@
CONST	SEGMENT
??_7_System_error_category@std@@6B@ DD FLAT:??_R4_System_error_category@std@@6B@ ; std::_System_error_category::`vftable'
	DD	FLAT:??_E_System_error_category@std@@UAEPAXI@Z
	DD	FLAT:?name@_System_error_category@std@@UBEPBDXZ
	DD	FLAT:?message@_System_error_category@std@@UBE?AV?$basic_string@DU?$char_traits@D@std@@V?$allocator@D@2@@2@H@Z
	DD	FLAT:?default_error_condition@_System_error_category@std@@UBE?AVerror_condition@2@H@Z
	DD	FLAT:?equivalent@error_category@std@@UBE_NABVerror_code@2@H@Z
	DD	FLAT:?equivalent@error_category@std@@UBE_NHABVerror_condition@2@@Z
CONST	ENDS
;	COMDAT ??_C@_0BG@PADBLCHM@iostream?5stream?5error?$AA@
CONST	SEGMENT
??_C@_0BG@PADBLCHM@iostream?5stream?5error?$AA@ DB 'iostream stream error'
	DB	00H						; `string'
CONST	ENDS
;	COMDAT ??_C@_08LLGCOLLL@iostream?$AA@
CONST	SEGMENT
??_C@_08LLGCOLLL@iostream?$AA@ DB 'iostream', 00H	; `string'
CONST	ENDS
;	COMDAT ??_7_Iostream_error_category@std@@6B@
CONST	SEGMENT
??_7_Iostream_error_category@std@@6B@ DD FLAT:??_R4_Iostream_error_category@std@@6B@ ; std::_Iostream_error_category::`vftable'
	DD	FLAT:??_E_Iostream_error_category@std@@UAEPAXI@Z
	DD	FLAT:?name@_Iostream_error_category@std@@UBEPBDXZ
	DD	FLAT:?message@_Iostream_error_category@std@@UBE?AV?$basic_string@DU?$char_traits@D@std@@V?$allocator@D@2@@2@H@Z
	DD	FLAT:?default_error_condition@error_category@std@@UBE?AVerror_condition@2@H@Z
	DD	FLAT:?equivalent@error_category@std@@UBE_NABVerror_code@2@H@Z
	DD	FLAT:?equivalent@error_category@std@@UBE_NHABVerror_condition@2@@Z
CONST	ENDS
;	COMDAT ??_C@_0O@BFJCFAAK@unknown?5error?$AA@
CONST	SEGMENT
??_C@_0O@BFJCFAAK@unknown?5error?$AA@ DB 'unknown error', 00H ; `string'
CONST	ENDS
;	COMDAT ??_C@_07DCLBNMLN@generic?$AA@
CONST	SEGMENT
??_C@_07DCLBNMLN@generic?$AA@ DB 'generic', 00H		; `string'
CONST	ENDS
;	COMDAT ??_7_Generic_error_category@std@@6B@
CONST	SEGMENT
??_7_Generic_error_category@std@@6B@ DD FLAT:??_R4_Generic_error_category@std@@6B@ ; std::_Generic_error_category::`vftable'
	DD	FLAT:??_E_Generic_error_category@std@@UAEPAXI@Z
	DD	FLAT:?name@_Generic_error_category@std@@UBEPBDXZ
	DD	FLAT:?message@_Generic_error_category@std@@UBE?AV?$basic_string@DU?$char_traits@D@std@@V?$allocator@D@2@@2@H@Z
	DD	FLAT:?default_error_condition@error_category@std@@UBE?AVerror_condition@2@H@Z
	DD	FLAT:?equivalent@error_category@std@@UBE_NABVerror_code@2@H@Z
	DD	FLAT:?equivalent@error_category@std@@UBE_NHABVerror_condition@2@@Z
CONST	ENDS
;	COMDAT ??_7error_category@std@@6B@
CONST	SEGMENT
??_7error_category@std@@6B@ DD FLAT:??_R4error_category@std@@6B@ ; std::error_category::`vftable'
	DD	FLAT:??_Eerror_category@std@@UAEPAXI@Z
	DD	FLAT:__purecall
	DD	FLAT:__purecall
	DD	FLAT:?default_error_condition@error_category@std@@UBE?AVerror_condition@2@H@Z
	DD	FLAT:?equivalent@error_category@std@@UBE_NABVerror_code@2@H@Z
	DD	FLAT:?equivalent@error_category@std@@UBE_NHABVerror_condition@2@@Z
CONST	ENDS
;	COMDAT xdata$x
xdata$x	SEGMENT
__unwindtable$??$construct@PADAAPAD@?$allocator@D@std@@QAEXPAPADAAPAD@Z DD 0ffffffffH
	DD	FLAT:__unwindfunclet$??$construct@PADAAPAD@?$allocator@D@std@@QAEXPAPADAAPAD@Z$0
__ehfuncinfo$??$construct@PADAAPAD@?$allocator@D@std@@QAEXPAPADAAPAD@Z DD 019930522H
	DD	01H
	DD	FLAT:__unwindtable$??$construct@PADAAPAD@?$allocator@D@std@@QAEXPAPADAAPAD@Z
	DD	2 DUP(00H)
	DD	2 DUP(00H)
	DD	00H
	DD	01H
xdata$x	ENDS
xdata$x	SEGMENT
__unwindtable$?Setup@C_Window@@QAEXJFFF@Z DD 0ffffffffH
	DD	FLAT:__unwindfunclet$?Setup@C_Window@@QAEXJFFF@Z$0
__ehfuncinfo$?Setup@C_Window@@QAEXJFFF@Z DD 019930522H
	DD	01H
	DD	FLAT:__unwindtable$?Setup@C_Window@@QAEXJFFF@Z
	DD	2 DUP(00H)
	DD	2 DUP(00H)
	DD	00H
	DD	01H
xdata$x	ENDS
;	COMDAT xdata$x
xdata$x	SEGMENT
__catchsym$?_Copy@?$basic_string@DU?$char_traits@D@std@@V?$allocator@D@2@@std@@QAEXII@Z$5 DD 040H
	DD	00H
	DD	00H
	DD	FLAT:__catch$?_Copy@?$basic_string@DU?$char_traits@D@std@@V?$allocator@D@2@@std@@QAEXII@Z$0
__catchsym$?_Copy@?$basic_string@DU?$char_traits@D@std@@V?$allocator@D@2@@std@@QAEXII@Z$4 DD 040H
	DD	00H
	DD	00H
	DD	FLAT:__catch$?_Copy@?$basic_string@DU?$char_traits@D@std@@V?$allocator@D@2@@std@@QAEXII@Z$1
__unwindtable$?_Copy@?$basic_string@DU?$char_traits@D@std@@V?$allocator@D@2@@std@@QAEXII@Z DD 0ffffffffH
	DD	00H
	DD	0ffffffffH
	DD	00H
	DD	01H
	DD	00H
	DD	01H
	DD	00H
__ehfuncinfo$?_Copy@?$basic_string@DU?$char_traits@D@std@@V?$allocator@D@2@@std@@QAEXII@Z DD 019930522H
	DD	04H
	DD	FLAT:__unwindtable$?_Copy@?$basic_string@DU?$char_traits@D@std@@V?$allocator@D@2@@std@@QAEXII@Z
	DD	02H
	DD	FLAT:__tryblocktable$?_Copy@?$basic_string@DU?$char_traits@D@std@@V?$allocator@D@2@@std@@QAEXII@Z
	DD	2 DUP(00H)
	DD	00H
	DD	01H
__tryblocktable$?_Copy@?$basic_string@DU?$char_traits@D@std@@V?$allocator@D@2@@std@@QAEXII@Z DD 02H
	DD	02H
	DD	03H
	DD	01H
	DD	FLAT:__catchsym$?_Copy@?$basic_string@DU?$char_traits@D@std@@V?$allocator@D@2@@std@@QAEXII@Z$4
	DD	00H
	DD	00H
	DD	03H
	DD	01H
	DD	FLAT:__catchsym$?_Copy@?$basic_string@DU?$char_traits@D@std@@V?$allocator@D@2@@std@@QAEXII@Z$5
xdata$x	ENDS
CRT$XCU	SEGMENT
_allocator_arg$initializer$ DD FLAT:??__Eallocator_arg@std@@YAXXZ
CRT$XCU	ENDS
;	COMDAT CRT$XCU
CRT$XCU	SEGMENT
?_Generic_object$initializer$@?$_Error_objects@H@std@@2P6AXXZA DD FLAT:??__E?_Generic_object@?$_Error_objects@H@std@@2V_Generic_error_category@2@A@@YAXXZ ; std::_Error_objects<int>::_Generic_object$initializer$
CRT$XCU	ENDS
;	COMDAT CRT$XCU
CRT$XCU	SEGMENT
?_Iostream_object$initializer$@?$_Error_objects@H@std@@2P6AXXZA DD FLAT:??__E?_Iostream_object@?$_Error_objects@H@std@@2V_Iostream_error_category@2@A@@YAXXZ ; std::_Error_objects<int>::_Iostream_object$initializer$
CRT$XCU	ENDS
;	COMDAT CRT$XCU
CRT$XCU	SEGMENT
?_System_object$initializer$@?$_Error_objects@H@std@@2P6AXXZA DD FLAT:??__E?_System_object@?$_Error_objects@H@std@@2V_System_error_category@2@A@@YAXXZ ; std::_Error_objects<int>::_System_object$initializer$
CRT$XCU	ENDS
;	COMDAT CRT$XCU
CRT$XCU	SEGMENT
?id$initializer$@?$num_put@DV?$back_insert_iterator@V?$basic_string@DU?$char_traits@D@std@@V?$allocator@D@2@@std@@@std@@@std@@2P6AXXZA DD FLAT:??__E?id@?$num_put@DV?$back_insert_iterator@V?$basic_string@DU?$char_traits@D@std@@V?$allocator@D@2@@std@@@std@@@std@@2V0locale@2@A@@YAXXZ ; std::num_put<char,std::back_insert_iterator<std::basic_string<char,std::char_traits<char>,std::allocator<char> > > >::id$initializer$
CRT$XCU	ENDS
;	COMDAT CRT$XCU
CRT$XCU	SEGMENT
?id$initializer$@?$num_put@_WV?$back_insert_iterator@V?$basic_string@_WU?$char_traits@_W@std@@V?$allocator@_W@2@@std@@@std@@@std@@2P6AXXZA DD FLAT:??__E?id@?$num_put@_WV?$back_insert_iterator@V?$basic_string@_WU?$char_traits@_W@std@@V?$allocator@_W@2@@std@@@std@@@std@@2V0locale@2@A@@YAXXZ ; std::num_put<wchar_t,std::back_insert_iterator<std::basic_string<wchar_t,std::char_traits<wchar_t>,std::allocator<wchar_t> > > >::id$initializer$
CRT$XCU	ENDS
;	COMDAT CRT$XCU
CRT$XCU	SEGMENT
?id$initializer$@?$numpunct@D@std@@2P6AXXZA DD FLAT:??__E?id@?$numpunct@D@std@@2V0locale@2@A@@YAXXZ ; std::numpunct<char>::id$initializer$
CRT$XCU	ENDS
;	COMDAT CRT$XCU
CRT$XCU	SEGMENT
?id$initializer$@?$numpunct@_W@std@@2P6AXXZA DD FLAT:??__E?id@?$numpunct@_W@std@@2V0locale@2@A@@YAXXZ ; std::numpunct<wchar_t>::id$initializer$
CRT$XCU	ENDS
; Function compile flags: /Odtp
; File c:\program files (x86)\microsoft visual studio 11.0\vc\include\xmemory0
;	COMDAT ??$destroy@PAD@?$allocator@D@std@@QAEXPAPAD@Z
_TEXT	SEGMENT
_this$ = -4						; size = 4
__Ptr$ = 8						; size = 4
??$destroy@PAD@?$allocator@D@std@@QAEXPAPAD@Z PROC	; std::allocator<char>::destroy<char *>, COMDAT
; _this$ = ecx

; 621  : 		void destroy(_Uty *_Ptr)

	push	ebp
	mov	ebp, esp
	push	ecx
	mov	DWORD PTR _this$[ebp], ecx

; 622  : 		{	// destroy object at _Ptr
; 623  : 		_Ptr->~_Uty();
; 624  : 		}

	mov	esp, ebp
	pop	ebp
	ret	4
??$destroy@PAD@?$allocator@D@std@@QAEXPAPAD@Z ENDP	; std::allocator<char>::destroy<char *>
_TEXT	ENDS
; Function compile flags: /Odtp
; File c:\program files (x86)\microsoft visual studio 11.0\vc\include\xmemory0
;	COMDAT ??$construct@PADAAPAD@?$allocator@D@std@@QAEXPAPADAAPAD@Z
_TEXT	SEGMENT
$T2 = -28						; size = 4
_this$ = -24						; size = 4
tv73 = -20						; size = 4
$T3 = -16						; size = 4
__$EHRec$ = -12						; size = 12
__Ptr$ = 8						; size = 4
__V0$ = 12						; size = 4
??$construct@PADAAPAD@?$allocator@D@std@@QAEXPAPADAAPAD@Z PROC ; std::allocator<char>::construct<char *,char * &>, COMDAT
; _this$ = ecx

; 617  : _VARIADIC_EXPAND_0X(_ALLOC_MEMBER_CONSTRUCT, , , , )

	push	ebp
	mov	ebp, esp
	push	-1
	push	__ehhandler$??$construct@PADAAPAD@?$allocator@D@std@@QAEXPAPADAAPAD@Z
	mov	eax, DWORD PTR fs:0
	push	eax
	sub	esp, 16					; 00000010H
	mov	eax, DWORD PTR ___security_cookie
	xor	eax, ebp
	push	eax
	lea	eax, DWORD PTR __$EHRec$[ebp]
	mov	DWORD PTR fs:0, eax
	mov	DWORD PTR _this$[ebp], ecx
	mov	eax, DWORD PTR __Ptr$[ebp]
	push	eax
	push	4
	call	??2@YAPAXIPAX@Z				; operator new
	add	esp, 8
	mov	DWORD PTR $T3[ebp], eax
	mov	DWORD PTR __$EHRec$[ebp+8], 0
	cmp	DWORD PTR $T3[ebp], 0
	je	SHORT $LN3@construct
	mov	ecx, DWORD PTR __V0$[ebp]
	push	ecx
	call	??$forward@AAPAD@std@@YAAAPADAAPAD@Z	; std::forward<char * &>
	add	esp, 4
	mov	edx, DWORD PTR $T3[ebp]
	mov	eax, DWORD PTR [eax]
	mov	DWORD PTR [edx], eax
	mov	ecx, DWORD PTR $T3[ebp]
	mov	DWORD PTR tv73[ebp], ecx
	jmp	SHORT $LN4@construct
$LN3@construct:
	mov	DWORD PTR tv73[ebp], 0
$LN4@construct:
	mov	edx, DWORD PTR tv73[ebp]
	mov	DWORD PTR $T2[ebp], edx
	mov	DWORD PTR __$EHRec$[ebp+8], -1
	mov	ecx, DWORD PTR __$EHRec$[ebp]
	mov	DWORD PTR fs:0, ecx
	pop	ecx
	mov	esp, ebp
	pop	ebp
	ret	8
_TEXT	ENDS
;	COMDAT text$x
text$x	SEGMENT
__unwindfunclet$??$construct@PADAAPAD@?$allocator@D@std@@QAEXPAPADAAPAD@Z$0:
	mov	eax, DWORD PTR __Ptr$[ebp]
	push	eax
	mov	eax, DWORD PTR $T3[ebp]
	push	eax
	call	??3@YAXPAX0@Z				; operator delete
	add	esp, 8
	ret	0
__ehhandler$??$construct@PADAAPAD@?$allocator@D@std@@QAEXPAPADAAPAD@Z:
	mov	edx, DWORD PTR [esp+8]
	lea	eax, DWORD PTR [edx+12]
	mov	ecx, DWORD PTR [edx-20]
	xor	ecx, eax
	call	@__security_check_cookie@4
	mov	eax, OFFSET __ehfuncinfo$??$construct@PADAAPAD@?$allocator@D@std@@QAEXPAPADAAPAD@Z
	jmp	___CxxFrameHandler3
text$x	ENDS
??$construct@PADAAPAD@?$allocator@D@std@@QAEXPAPADAAPAD@Z ENDP ; std::allocator<char>::construct<char *,char * &>
; Function compile flags: /Odtp
; File c:\program files (x86)\microsoft visual studio 11.0\vc\include\xlocnum
;	COMDAT ??__E?id@?$numpunct@_W@std@@2V0locale@2@A@@YAXXZ
text$yc	SEGMENT
??__E?id@?$numpunct@_W@std@@2V0locale@2@A@@YAXXZ PROC	; `dynamic initializer for 'std::numpunct<wchar_t>::id'', COMDAT

; 155  : 		void _Getvals(wchar_t, const lconv *_Ptr, _Locinfo::_Cvtvec)

	push	ebp
	mov	ebp, esp
	push	0
	mov	ecx, OFFSET ?id@?$numpunct@_W@std@@2V0locale@2@A ; std::numpunct<wchar_t>::id
	call	??0id@locale@std@@QAE@I@Z		; std::locale::id::id
	pop	ebp
	ret	0
??__E?id@?$numpunct@_W@std@@2V0locale@2@A@@YAXXZ ENDP	; `dynamic initializer for 'std::numpunct<wchar_t>::id''
text$yc	ENDS
; Function compile flags: /Odtp
; File c:\program files (x86)\microsoft visual studio 11.0\vc\include\xlocnum
;	COMDAT ??__E?id@?$numpunct@D@std@@2V0locale@2@A@@YAXXZ
text$yc	SEGMENT
??__E?id@?$numpunct@D@std@@2V0locale@2@A@@YAXXZ PROC	; `dynamic initializer for 'std::numpunct<char>::id'', COMDAT

; 155  : 		void _Getvals(wchar_t, const lconv *_Ptr, _Locinfo::_Cvtvec)

	push	ebp
	mov	ebp, esp
	push	0
	mov	ecx, OFFSET ?id@?$numpunct@D@std@@2V0locale@2@A ; std::numpunct<char>::id
	call	??0id@locale@std@@QAE@I@Z		; std::locale::id::id
	pop	ebp
	ret	0
??__E?id@?$numpunct@D@std@@2V0locale@2@A@@YAXXZ ENDP	; `dynamic initializer for 'std::numpunct<char>::id''
text$yc	ENDS
; Function compile flags: /Odtp
; File c:\program files (x86)\microsoft visual studio 11.0\vc\include\xlocnum
;	COMDAT ??__E?id@?$num_put@_WV?$back_insert_iterator@V?$basic_string@_WU?$char_traits@_W@std@@V?$allocator@_W@2@@std@@@std@@@std@@2V0locale@2@A@@YAXXZ
text$yc	SEGMENT
??__E?id@?$num_put@_WV?$back_insert_iterator@V?$basic_string@_WU?$char_traits@_W@std@@V?$allocator@_W@2@@std@@@std@@@std@@2V0locale@2@A@@YAXXZ PROC ; `dynamic initializer for 'std::num_put<wchar_t,std::back_insert_iterator<std::basic_string<wchar_t,std::char_traits<wchar_t>,std::allocator<wchar_t> > > >::id'', COMDAT

; 155  : 		void _Getvals(wchar_t, const lconv *_Ptr, _Locinfo::_Cvtvec)

	push	ebp
	mov	ebp, esp
	push	0
	mov	ecx, OFFSET ?id@?$num_put@_WV?$back_insert_iterator@V?$basic_string@_WU?$char_traits@_W@std@@V?$allocator@_W@2@@std@@@std@@@std@@2V0locale@2@A ; std::num_put<wchar_t,std::back_insert_iterator<std::basic_string<wchar_t,std::char_traits<wchar_t>,std::allocator<wchar_t> > > >::id
	call	??0id@locale@std@@QAE@I@Z		; std::locale::id::id
	pop	ebp
	ret	0
??__E?id@?$num_put@_WV?$back_insert_iterator@V?$basic_string@_WU?$char_traits@_W@std@@V?$allocator@_W@2@@std@@@std@@@std@@2V0locale@2@A@@YAXXZ ENDP ; `dynamic initializer for 'std::num_put<wchar_t,std::back_insert_iterator<std::basic_string<wchar_t,std::char_traits<wchar_t>,std::allocator<wchar_t> > > >::id''
text$yc	ENDS
; Function compile flags: /Odtp
; File c:\program files (x86)\microsoft visual studio 11.0\vc\include\xlocnum
;	COMDAT ??__E?id@?$num_put@DV?$back_insert_iterator@V?$basic_string@DU?$char_traits@D@std@@V?$allocator@D@2@@std@@@std@@@std@@2V0locale@2@A@@YAXXZ
text$yc	SEGMENT
??__E?id@?$num_put@DV?$back_insert_iterator@V?$basic_string@DU?$char_traits@D@std@@V?$allocator@D@2@@std@@@std@@@std@@2V0locale@2@A@@YAXXZ PROC ; `dynamic initializer for 'std::num_put<char,std::back_insert_iterator<std::basic_string<char,std::char_traits<char>,std::allocator<char> > > >::id'', COMDAT

; 155  : 		void _Getvals(wchar_t, const lconv *_Ptr, _Locinfo::_Cvtvec)

	push	ebp
	mov	ebp, esp
	push	0
	mov	ecx, OFFSET ?id@?$num_put@DV?$back_insert_iterator@V?$basic_string@DU?$char_traits@D@std@@V?$allocator@D@2@@std@@@std@@@std@@2V0locale@2@A ; std::num_put<char,std::back_insert_iterator<std::basic_string<char,std::char_traits<char>,std::allocator<char> > > >::id
	call	??0id@locale@std@@QAE@I@Z		; std::locale::id::id
	pop	ebp
	ret	0
??__E?id@?$num_put@DV?$back_insert_iterator@V?$basic_string@DU?$char_traits@D@std@@V?$allocator@D@2@@std@@@std@@@std@@2V0locale@2@A@@YAXXZ ENDP ; `dynamic initializer for 'std::num_put<char,std::back_insert_iterator<std::basic_string<char,std::char_traits<char>,std::allocator<char> > > >::id''
text$yc	ENDS
; Function compile flags: /Odtp
; File c:\program files (x86)\microsoft visual studio 11.0\vc\include\xmemory0
;	COMDAT ??$destroy@PAD@?$allocator_traits@V?$allocator@D@std@@@std@@SAXAAV?$allocator@D@1@PAPAD@Z
_TEXT	SEGMENT
__Al$ = 8						; size = 4
__Ptr$ = 12						; size = 4
??$destroy@PAD@?$allocator_traits@V?$allocator@D@std@@@std@@SAXAAV?$allocator@D@1@PAPAD@Z PROC ; std::allocator_traits<std::allocator<char> >::destroy<char *>, COMDAT

; 755  : 		static void destroy(_Alloc& _Al, _Uty *_Ptr)

	push	ebp
	mov	ebp, esp

; 756  : 		{	// destroy object at _Ptr
; 757  : 		_Al.destroy(_Ptr);

	mov	eax, DWORD PTR __Ptr$[ebp]
	push	eax
	mov	ecx, DWORD PTR __Al$[ebp]
	call	??$destroy@PAD@?$allocator@D@std@@QAEXPAPAD@Z ; std::allocator<char>::destroy<char *>

; 758  : 		}

	pop	ebp
	ret	0
??$destroy@PAD@?$allocator_traits@V?$allocator@D@std@@@std@@SAXAAV?$allocator@D@1@PAPAD@Z ENDP ; std::allocator_traits<std::allocator<char> >::destroy<char *>
_TEXT	ENDS
; Function compile flags: /Odtp
; File c:\program files (x86)\microsoft visual studio 11.0\vc\include\xmemory0
;	COMDAT ??$construct@PADAAPAD@?$allocator_traits@V?$allocator@D@std@@@std@@SAXAAV?$allocator@D@1@PAPADAAPAD@Z
_TEXT	SEGMENT
__Al$ = 8						; size = 4
__Ptr$ = 12						; size = 4
__V0$ = 16						; size = 4
??$construct@PADAAPAD@?$allocator_traits@V?$allocator@D@std@@@std@@SAXAAV?$allocator@D@1@PAPADAAPAD@Z PROC ; std::allocator_traits<std::allocator<char> >::construct<char *,char * &>, COMDAT

; 751  : _VARIADIC_EXPAND_0X(_ALLOC_TRAITS_SPECIAL_CONSTRUCT, , , , )

	push	ebp
	mov	ebp, esp
	mov	eax, DWORD PTR __V0$[ebp]
	push	eax
	call	??$forward@AAPAD@std@@YAAAPADAAPAD@Z	; std::forward<char * &>
	add	esp, 4
	push	eax
	mov	ecx, DWORD PTR __Ptr$[ebp]
	push	ecx
	mov	ecx, DWORD PTR __Al$[ebp]
	call	??$construct@PADAAPAD@?$allocator@D@std@@QAEXPAPADAAPAD@Z ; std::allocator<char>::construct<char *,char * &>
	pop	ebp
	ret	0
??$construct@PADAAPAD@?$allocator_traits@V?$allocator@D@std@@@std@@SAXAAV?$allocator@D@1@PAPADAAPAD@Z ENDP ; std::allocator_traits<std::allocator<char> >::construct<char *,char * &>
_TEXT	ENDS
; Function compile flags: /Odtp
; File c:\program files (x86)\microsoft visual studio 11.0\vc\include\type_traits
;	COMDAT ??$forward@AAPAD@std@@YAAAPADAAPAD@Z
_TEXT	SEGMENT
__Arg$ = 8						; size = 4
??$forward@AAPAD@std@@YAAAPADAAPAD@Z PROC		; std::forward<char * &>, COMDAT

; 1775 : 	{	// forward an lvalue

	push	ebp
	mov	ebp, esp

; 1776 : 	return (static_cast<_Ty&&>(_Arg));

	mov	eax, DWORD PTR __Arg$[ebp]

; 1777 : 	}

	pop	ebp
	ret	0
??$forward@AAPAD@std@@YAAAPADAAPAD@Z ENDP		; std::forward<char * &>
_TEXT	ENDS
; Function compile flags: /Odtp
;	COMDAT ??__F?_System_object@?$_Error_objects@H@std@@2V_System_error_category@2@A@@YAXXZ
text$yd	SEGMENT
??__F?_System_object@?$_Error_objects@H@std@@2V_System_error_category@2@A@@YAXXZ PROC ; `dynamic atexit destructor for 'std::_Error_objects<int>::_System_object'', COMDAT
	push	ebp
	mov	ebp, esp
	mov	ecx, OFFSET ?_System_object@?$_Error_objects@H@std@@2V_System_error_category@2@A ; std::_Error_objects<int>::_System_object
	call	??1_System_error_category@std@@UAE@XZ
	pop	ebp
	ret	0
??__F?_System_object@?$_Error_objects@H@std@@2V_System_error_category@2@A@@YAXXZ ENDP ; `dynamic atexit destructor for 'std::_Error_objects<int>::_System_object''
text$yd	ENDS
; Function compile flags: /Odtp
; File c:\program files (x86)\microsoft visual studio 11.0\vc\include\xmemory0
;	COMDAT ??__E?_System_object@?$_Error_objects@H@std@@2V_System_error_category@2@A@@YAXXZ
text$yc	SEGMENT
??__E?_System_object@?$_Error_objects@H@std@@2V_System_error_category@2@A@@YAXXZ PROC ; `dynamic initializer for 'std::_Error_objects<int>::_System_object'', COMDAT

; 627  : 		{	// estimate maximum array size

	push	ebp
	mov	ebp, esp
	mov	ecx, OFFSET ?_System_object@?$_Error_objects@H@std@@2V_System_error_category@2@A ; std::_Error_objects<int>::_System_object
	call	??0_System_error_category@std@@QAE@XZ	; std::_System_error_category::_System_error_category
	push	OFFSET ??__F?_System_object@?$_Error_objects@H@std@@2V_System_error_category@2@A@@YAXXZ ; `dynamic atexit destructor for 'std::_Error_objects<int>::_System_object''
	call	_atexit
	add	esp, 4
	pop	ebp
	ret	0
??__E?_System_object@?$_Error_objects@H@std@@2V_System_error_category@2@A@@YAXXZ ENDP ; `dynamic initializer for 'std::_Error_objects<int>::_System_object''
text$yc	ENDS
; Function compile flags: /Odtp
;	COMDAT ??__F?_Iostream_object@?$_Error_objects@H@std@@2V_Iostream_error_category@2@A@@YAXXZ
text$yd	SEGMENT
??__F?_Iostream_object@?$_Error_objects@H@std@@2V_Iostream_error_category@2@A@@YAXXZ PROC ; `dynamic atexit destructor for 'std::_Error_objects<int>::_Iostream_object'', COMDAT
	push	ebp
	mov	ebp, esp
	mov	ecx, OFFSET ?_Iostream_object@?$_Error_objects@H@std@@2V_Iostream_error_category@2@A ; std::_Error_objects<int>::_Iostream_object
	call	??1_Iostream_error_category@std@@UAE@XZ
	pop	ebp
	ret	0
??__F?_Iostream_object@?$_Error_objects@H@std@@2V_Iostream_error_category@2@A@@YAXXZ ENDP ; `dynamic atexit destructor for 'std::_Error_objects<int>::_Iostream_object''
text$yd	ENDS
; Function compile flags: /Odtp
; File c:\program files (x86)\microsoft visual studio 11.0\vc\include\xmemory0
;	COMDAT ??__E?_Iostream_object@?$_Error_objects@H@std@@2V_Iostream_error_category@2@A@@YAXXZ
text$yc	SEGMENT
??__E?_Iostream_object@?$_Error_objects@H@std@@2V_Iostream_error_category@2@A@@YAXXZ PROC ; `dynamic initializer for 'std::_Error_objects<int>::_Iostream_object'', COMDAT

; 627  : 		{	// estimate maximum array size

	push	ebp
	mov	ebp, esp
	mov	ecx, OFFSET ?_Iostream_object@?$_Error_objects@H@std@@2V_Iostream_error_category@2@A ; std::_Error_objects<int>::_Iostream_object
	call	??0_Iostream_error_category@std@@QAE@XZ	; std::_Iostream_error_category::_Iostream_error_category
	push	OFFSET ??__F?_Iostream_object@?$_Error_objects@H@std@@2V_Iostream_error_category@2@A@@YAXXZ ; `dynamic atexit destructor for 'std::_Error_objects<int>::_Iostream_object''
	call	_atexit
	add	esp, 4
	pop	ebp
	ret	0
??__E?_Iostream_object@?$_Error_objects@H@std@@2V_Iostream_error_category@2@A@@YAXXZ ENDP ; `dynamic initializer for 'std::_Error_objects<int>::_Iostream_object''
text$yc	ENDS
; Function compile flags: /Odtp
;	COMDAT ??__F?_Generic_object@?$_Error_objects@H@std@@2V_Generic_error_category@2@A@@YAXXZ
text$yd	SEGMENT
??__F?_Generic_object@?$_Error_objects@H@std@@2V_Generic_error_category@2@A@@YAXXZ PROC ; `dynamic atexit destructor for 'std::_Error_objects<int>::_Generic_object'', COMDAT
	push	ebp
	mov	ebp, esp
	mov	ecx, OFFSET ?_Generic_object@?$_Error_objects@H@std@@2V_Generic_error_category@2@A ; std::_Error_objects<int>::_Generic_object
	call	??1_Generic_error_category@std@@UAE@XZ
	pop	ebp
	ret	0
??__F?_Generic_object@?$_Error_objects@H@std@@2V_Generic_error_category@2@A@@YAXXZ ENDP ; `dynamic atexit destructor for 'std::_Error_objects<int>::_Generic_object''
text$yd	ENDS
; Function compile flags: /Odtp
; File c:\program files (x86)\microsoft visual studio 11.0\vc\include\xmemory0
;	COMDAT ??__E?_Generic_object@?$_Error_objects@H@std@@2V_Generic_error_category@2@A@@YAXXZ
text$yc	SEGMENT
??__E?_Generic_object@?$_Error_objects@H@std@@2V_Generic_error_category@2@A@@YAXXZ PROC ; `dynamic initializer for 'std::_Error_objects<int>::_Generic_object'', COMDAT

; 627  : 		{	// estimate maximum array size

	push	ebp
	mov	ebp, esp
	mov	ecx, OFFSET ?_Generic_object@?$_Error_objects@H@std@@2V_Generic_error_category@2@A ; std::_Error_objects<int>::_Generic_object
	call	??0_Generic_error_category@std@@QAE@XZ	; std::_Generic_error_category::_Generic_error_category
	push	OFFSET ??__F?_Generic_object@?$_Error_objects@H@std@@2V_Generic_error_category@2@A@@YAXXZ ; `dynamic atexit destructor for 'std::_Error_objects<int>::_Generic_object''
	call	_atexit
	add	esp, 4
	pop	ebp
	ret	0
??__E?_Generic_object@?$_Error_objects@H@std@@2V_Generic_error_category@2@A@@YAXXZ ENDP ; `dynamic initializer for 'std::_Error_objects<int>::_Generic_object''
text$yc	ENDS
; Function compile flags: /Odtp
; File c:\program files (x86)\microsoft visual studio 11.0\vc\include\xmemory0
;	COMDAT ??$_Allocate@D@std@@YAPADIPAD@Z
_TEXT	SEGMENT
__Ptr$ = -4						; size = 4
__Count$ = 8						; size = 4
___formal$ = 12						; size = 4
??$_Allocate@D@std@@YAPADIPAD@Z PROC			; std::_Allocate<char>, COMDAT

; 22   : 	{	// allocate storage for _Count elements of type _Ty

	push	ebp
	mov	ebp, esp
	push	ecx

; 23   : 	void *_Ptr = 0;

	mov	DWORD PTR __Ptr$[ebp], 0

; 24   : 
; 25   : 	if (_Count == 0)

	cmp	DWORD PTR __Count$[ebp], 0
	jne	SHORT $LN4@Allocate

; 26   : 		;
; 27   : 	else if (((size_t)(-1) / sizeof (_Ty) < _Count)

	jmp	SHORT $LN3@Allocate
$LN4@Allocate:

; 28   : 		|| (_Ptr = ::operator new(_Count * sizeof (_Ty))) == 0)

	cmp	DWORD PTR __Count$[ebp], -1
	ja	SHORT $LN1@Allocate
	mov	eax, DWORD PTR __Count$[ebp]
	push	eax
	call	??2@YAPAXI@Z				; operator new
	add	esp, 4
	mov	DWORD PTR __Ptr$[ebp], eax
	cmp	DWORD PTR __Ptr$[ebp], 0
	jne	SHORT $LN3@Allocate
$LN1@Allocate:

; 29   : 		_Xbad_alloc();	// report no memory

	call	?_Xbad_alloc@std@@YAXXZ			; std::_Xbad_alloc
$LN3@Allocate:

; 30   : 
; 31   : 	return ((_Ty *)_Ptr);

	mov	eax, DWORD PTR __Ptr$[ebp]
$LN6@Allocate:

; 32   : 	}

	mov	esp, ebp
	pop	ebp
	ret	0
??$_Allocate@D@std@@YAPADIPAD@Z ENDP			; std::_Allocate<char>
_TEXT	ENDS
; Function compile flags: /Odtp
; File c:\program files (x86)\microsoft visual studio 11.0\vc\include\xstddef
;	COMDAT ??$addressof@D@std@@YAPADAAD@Z
_TEXT	SEGMENT
__Val$ = 8						; size = 4
??$addressof@D@std@@YAPADAAD@Z PROC			; std::addressof<char>, COMDAT

; 85   : 	{	// return address of _Val

	push	ebp
	mov	ebp, esp

; 86   : 	return (reinterpret_cast<_Ty *>(
; 87   : 		(&const_cast<char&>(
; 88   : 		reinterpret_cast<const volatile char&>(_Val)))));

	mov	eax, DWORD PTR __Val$[ebp]

; 89   : 	}

	pop	ebp
	ret	0
??$addressof@D@std@@YAPADAAD@Z ENDP			; std::addressof<char>
_TEXT	ENDS
; Function compile flags: /Odtp
; File c:\program files (x86)\microsoft visual studio 11.0\vc\include\xmemory0
;	COMDAT ??$destroy@PAD@?$_Wrap_alloc@V?$allocator@D@std@@@std@@QAEXPAPAD@Z
_TEXT	SEGMENT
_this$ = -4						; size = 4
__Ptr$ = 8						; size = 4
??$destroy@PAD@?$_Wrap_alloc@V?$allocator@D@std@@@std@@QAEXPAPAD@Z PROC ; std::_Wrap_alloc<std::allocator<char> >::destroy<char *>, COMDAT
; _this$ = ecx

; 907  : 		void destroy(_Ty *_Ptr)

	push	ebp
	mov	ebp, esp
	push	ecx
	mov	DWORD PTR _this$[ebp], ecx

; 908  : 		{	// destroy object at _Ptr
; 909  : 		_Mytraits::destroy(*this, _Ptr);

	mov	eax, DWORD PTR __Ptr$[ebp]
	push	eax
	mov	ecx, DWORD PTR _this$[ebp]
	push	ecx
	call	??$destroy@PAD@?$allocator_traits@V?$allocator@D@std@@@std@@SAXAAV?$allocator@D@1@PAPAD@Z ; std::allocator_traits<std::allocator<char> >::destroy<char *>
	add	esp, 8

; 910  : 		}

	mov	esp, ebp
	pop	ebp
	ret	4
??$destroy@PAD@?$_Wrap_alloc@V?$allocator@D@std@@@std@@QAEXPAPAD@Z ENDP ; std::_Wrap_alloc<std::allocator<char> >::destroy<char *>
_TEXT	ENDS
; Function compile flags: /Odtp
; File c:\program files (x86)\microsoft visual studio 11.0\vc\include\xmemory0
;	COMDAT ??$construct@PADAAPAD@?$_Wrap_alloc@V?$allocator@D@std@@@std@@QAEXPAPADAAPAD@Z
_TEXT	SEGMENT
_this$ = -4						; size = 4
__Ptr$ = 8						; size = 4
__V0$ = 12						; size = 4
??$construct@PADAAPAD@?$_Wrap_alloc@V?$allocator@D@std@@@std@@QAEXPAPADAAPAD@Z PROC ; std::_Wrap_alloc<std::allocator<char> >::construct<char *,char * &>, COMDAT
; _this$ = ecx

; 903  : _VARIADIC_EXPAND_0X(_WRAP_ALLOC_CONSTRUCT, , , , )

	push	ebp
	mov	ebp, esp
	push	ecx
	mov	DWORD PTR _this$[ebp], ecx
	mov	eax, DWORD PTR __V0$[ebp]
	push	eax
	call	??$forward@AAPAD@std@@YAAAPADAAPAD@Z	; std::forward<char * &>
	add	esp, 4
	push	eax
	mov	ecx, DWORD PTR __Ptr$[ebp]
	push	ecx
	mov	edx, DWORD PTR _this$[ebp]
	push	edx
	call	??$construct@PADAAPAD@?$allocator_traits@V?$allocator@D@std@@@std@@SAXAAV?$allocator@D@1@PAPADAAPAD@Z ; std::allocator_traits<std::allocator<char> >::construct<char *,char * &>
	add	esp, 12					; 0000000cH
	mov	esp, ebp
	pop	ebp
	ret	8
??$construct@PADAAPAD@?$_Wrap_alloc@V?$allocator@D@std@@@std@@QAEXPAPADAAPAD@Z ENDP ; std::_Wrap_alloc<std::allocator<char> >::construct<char *,char * &>
_TEXT	ENDS
; Function compile flags: /Odtp
; File c:\users\zhitao li\documents\visual studio 2012\projects\freefalcon\ui95\chandler.h
;	COMDAT ?GetFront@C_Handler@@QAEPAVImageBuffer@@XZ
_TEXT	SEGMENT
_this$ = -4						; size = 4
?GetFront@C_Handler@@QAEPAVImageBuffer@@XZ PROC		; C_Handler::GetFront, COMDAT
; _this$ = ecx

; 242  : 		ImageBuffer *GetFront() { return(Front_); }

	push	ebp
	mov	ebp, esp
	push	ecx
	mov	DWORD PTR _this$[ebp], ecx
	mov	eax, DWORD PTR _this$[ebp]
	mov	eax, DWORD PTR [eax+16]
	mov	esp, ebp
	pop	ebp
	ret	0
?GetFront@C_Handler@@QAEPAVImageBuffer@@XZ ENDP		; C_Handler::GetFront
_TEXT	ENDS
; Function compile flags: /Odtp
; File c:\users\zhitao li\documents\visual studio 2012\projects\freefalcon\ui95\chandler.h
;	COMDAT ?GetH@C_Handler@@QAEJXZ
_TEXT	SEGMENT
_this$ = -4						; size = 4
?GetH@C_Handler@@QAEJXZ PROC				; C_Handler::GetH, COMDAT
; _this$ = ecx

; 214  : 		long  GetH() { return(FrontRect_.bottom-FrontRect_.top);}

	push	ebp
	mov	ebp, esp
	push	ecx
	mov	DWORD PTR _this$[ebp], ecx
	mov	eax, DWORD PTR _this$[ebp]
	mov	ecx, DWORD PTR _this$[ebp]
	mov	eax, DWORD PTR [eax+48]
	sub	eax, DWORD PTR [ecx+40]
	mov	esp, ebp
	pop	ebp
	ret	0
?GetH@C_Handler@@QAEJXZ ENDP				; C_Handler::GetH
_TEXT	ENDS
; Function compile flags: /Odtp
; File c:\users\zhitao li\documents\visual studio 2012\projects\freefalcon\ui95\chandler.h
;	COMDAT ?GetW@C_Handler@@QAEJXZ
_TEXT	SEGMENT
_this$ = -4						; size = 4
?GetW@C_Handler@@QAEJXZ PROC				; C_Handler::GetW, COMDAT
; _this$ = ecx

; 213  : 		long  GetW() { return(FrontRect_.right-FrontRect_.left);}

	push	ebp
	mov	ebp, esp
	push	ecx
	mov	DWORD PTR _this$[ebp], ecx
	mov	eax, DWORD PTR _this$[ebp]
	mov	ecx, DWORD PTR _this$[ebp]
	mov	eax, DWORD PTR [eax+44]
	sub	eax, DWORD PTR [ecx+36]
	mov	esp, ebp
	pop	ebp
	ret	0
?GetW@C_Handler@@QAEJXZ ENDP				; C_Handler::GetW
_TEXT	ENDS
; Function compile flags: /Odtp
; File c:\users\zhitao li\documents\visual studio 2012\projects\freefalcon\ui95\chandler.h
;	COMDAT ?KeyboardMode@C_Handler@@QAEHXZ
_TEXT	SEGMENT
_this$ = -4						; size = 4
?KeyboardMode@C_Handler@@QAEHXZ PROC			; C_Handler::KeyboardMode, COMDAT
; _this$ = ecx

; 192  : 		BOOL KeyboardMode() { return(KeyboardMode_); }

	push	ebp
	mov	ebp, esp
	push	ecx
	mov	DWORD PTR _this$[ebp], ecx
	mov	eax, DWORD PTR _this$[ebp]
	mov	eax, DWORD PTR [eax+116]
	mov	esp, ebp
	pop	ebp
	ret	0
?KeyboardMode@C_Handler@@QAEHXZ ENDP			; C_Handler::KeyboardMode
_TEXT	ENDS
; Function compile flags: /Odtp
; File c:\users\zhitao li\documents\visual studio 2012\projects\freefalcon\ui95\chandler.h
;	COMDAT ?SetKeyboardMode@C_Handler@@QAEXH@Z
_TEXT	SEGMENT
_this$ = -4						; size = 4
_mode$ = 8						; size = 4
?SetKeyboardMode@C_Handler@@QAEXH@Z PROC		; C_Handler::SetKeyboardMode, COMDAT
; _this$ = ecx

; 191  : 		void SetKeyboardMode(BOOL mode) { KeyboardMode_=mode; }

	push	ebp
	mov	ebp, esp
	push	ecx
	mov	DWORD PTR _this$[ebp], ecx
	mov	eax, DWORD PTR _this$[ebp]
	mov	ecx, DWORD PTR _mode$[ebp]
	mov	DWORD PTR [eax+116], ecx
	mov	esp, ebp
	pop	ebp
	ret	4
?SetKeyboardMode@C_Handler@@QAEXH@Z ENDP		; C_Handler::SetKeyboardMode
_TEXT	ENDS
; Function compile flags: /Odtp
; File c:\users\zhitao li\documents\visual studio 2012\projects\freefalcon\ui95\cwindow.cpp
_TEXT	SEGMENT
_bw$ = -12						; size = 4
_this$ = -8						; size = 4
_cntrl$ = -4						; size = 4
_ofp$ = 8						; size = 4
_Parser$ = 12						; size = 4
?SaveTextControls@C_Window@@QAEXPAXPAVC_Parser@@@Z PROC	; C_Window::SaveTextControls
; _this$ = ecx

; 2738 : {

	push	ebp
	mov	ebp, esp
	sub	esp, 12					; 0000000cH
	mov	DWORD PTR _this$[ebp], ecx

; 2739 : 	CONTROLLIST *cntrl;
; 2740 : 	DWORD bw;
; 2741 : 
; 2742 : 	cntrl=Controls_;

	mov	eax, DWORD PTR _this$[ebp]
	mov	ecx, DWORD PTR [eax+4304]
	mov	DWORD PTR _cntrl$[ebp], ecx
$LN2@SaveTextCo:

; 2743 : 	while(cntrl)

	cmp	DWORD PTR _cntrl$[ebp], 0
	je	SHORT $LN3@SaveTextCo

; 2744 : 	{
; 2745 : 		cntrl->Control_->SaveText(ofp,Parser);

	mov	edx, DWORD PTR _Parser$[ebp]
	push	edx
	mov	eax, DWORD PTR _ofp$[ebp]
	push	eax
	mov	ecx, DWORD PTR _cntrl$[ebp]
	mov	edx, DWORD PTR [ecx]
	mov	eax, DWORD PTR _cntrl$[ebp]
	mov	edx, DWORD PTR [edx]
	mov	ecx, DWORD PTR [eax]
	mov	eax, DWORD PTR [edx+244]
	call	eax

; 2746 : 		WriteFile(ofp,ParseCRLF,strlen(ParseCRLF),&bw,NULL);

	push	0
	lea	ecx, DWORD PTR _bw$[ebp]
	push	ecx
	push	OFFSET ?ParseCRLF@@3PADA		; ParseCRLF
	call	_strlen
	add	esp, 4
	push	eax
	push	OFFSET ?ParseCRLF@@3PADA		; ParseCRLF
	mov	edx, DWORD PTR _ofp$[ebp]
	push	edx
	call	DWORD PTR __imp__WriteFile@20

; 2747 : 		cntrl=cntrl->Next;

	mov	eax, DWORD PTR _cntrl$[ebp]
	mov	ecx, DWORD PTR [eax+8]
	mov	DWORD PTR _cntrl$[ebp], ecx

; 2748 : 	}

	jmp	SHORT $LN2@SaveTextCo
$LN3@SaveTextCo:

; 2749 : }

	mov	esp, ebp
	pop	ebp
	ret	8
?SaveTextControls@C_Window@@QAEXPAXPAVC_Parser@@@Z ENDP	; C_Window::SaveTextControls
_TEXT	ENDS
; Function compile flags: /Odtp
; File c:\users\zhitao li\documents\visual studio 2012\projects\freefalcon\ui95\cwindow.cpp
_TEXT	SEGMENT
tv65 = -8						; size = 4
_this$ = -4						; size = 4
_ID$ = 8						; size = 2
_P$ = 12						; size = 4
___formal$ = 16						; size = 4
___formal$ = 20						; size = 4
?LocalFunction@C_Window@@QAEXFQAJPADPAVC_Handler@@@Z PROC ; C_Window::LocalFunction
; _this$ = ecx

; 2674 : {

	push	ebp
	mov	ebp, esp
	sub	esp, 8
	mov	DWORD PTR _this$[ebp], ecx

; 2675 : 	switch(ID)

	movsx	eax, WORD PTR _ID$[ebp]
	mov	DWORD PTR tv65[ebp], eax
	mov	ecx, DWORD PTR tv65[ebp]
	sub	ecx, 1
	mov	DWORD PTR tv65[ebp], ecx
	cmp	DWORD PTR tv65[ebp], 17			; 00000011H
	ja	$LN21@LocalFunct
	mov	edx, DWORD PTR tv65[ebp]
	jmp	DWORD PTR $LN23@LocalFunct[edx*4]
$LN18@LocalFunct:

; 2676 : 	{
; 2677 : 		case CWIN_SETUP:
; 2678 : 			Setup(P[0],(short)P[1],(short)P[2],(short)P[3]);

	mov	eax, 4
	imul	eax, 3
	mov	ecx, DWORD PTR _P$[ebp]
	movzx	edx, WORD PTR [ecx+eax]
	push	edx
	mov	eax, 4
	shl	eax, 1
	mov	ecx, DWORD PTR _P$[ebp]
	movzx	edx, WORD PTR [ecx+eax]
	push	edx
	mov	eax, 4
	shl	eax, 0
	mov	ecx, DWORD PTR _P$[ebp]
	movzx	edx, WORD PTR [ecx+eax]
	push	edx
	mov	eax, 4
	imul	eax, 0
	mov	ecx, DWORD PTR _P$[ebp]
	mov	edx, DWORD PTR [ecx+eax]
	push	edx
	mov	ecx, DWORD PTR _this$[ebp]
	call	?Setup@C_Window@@QAEXJFFF@Z		; C_Window::Setup

; 2679 : 			break;

	jmp	$LN21@LocalFunct
$LN17@LocalFunct:

; 2680 : 		case CWIN_SETX:
; 2681 : 			SetX((short)P[0]);

	mov	eax, 4
	imul	eax, 0
	mov	ecx, DWORD PTR _P$[ebp]
	movzx	edx, WORD PTR [ecx+eax]
	push	edx
	mov	ecx, DWORD PTR _this$[ebp]
	call	?SetX@C_Window@@QAEXF@Z			; C_Window::SetX

; 2682 : 			break;

	jmp	$LN21@LocalFunct
$LN16@LocalFunct:

; 2683 : 		case CWIN_SETY:
; 2684 : 			SetY((short)P[0]);

	mov	eax, 4
	imul	eax, 0
	mov	ecx, DWORD PTR _P$[ebp]
	movzx	edx, WORD PTR [ecx+eax]
	push	edx
	mov	ecx, DWORD PTR _this$[ebp]
	call	?SetY@C_Window@@QAEXF@Z			; C_Window::SetY

; 2685 : 			break;

	jmp	$LN21@LocalFunct
$LN15@LocalFunct:

; 2686 : 		case CWIN_SETXY:
; 2687 : 			SetXY((short)P[0],(short)P[1]);

	mov	eax, 4
	shl	eax, 0
	mov	ecx, DWORD PTR _P$[ebp]
	movzx	edx, WORD PTR [ecx+eax]
	push	edx
	mov	eax, 4
	imul	eax, 0
	mov	ecx, DWORD PTR _P$[ebp]
	movzx	edx, WORD PTR [ecx+eax]
	push	edx
	mov	ecx, DWORD PTR _this$[ebp]
	call	?SetXY@C_Window@@QAEXFF@Z		; C_Window::SetXY

; 2688 : 			break;

	jmp	$LN21@LocalFunct
$LN14@LocalFunct:

; 2689 : 		case CWIN_SETW:
; 2690 : 			SetW((short)P[0]);

	mov	eax, 4
	imul	eax, 0
	mov	ecx, DWORD PTR _P$[ebp]
	movzx	edx, WORD PTR [ecx+eax]
	push	edx
	mov	ecx, DWORD PTR _this$[ebp]
	call	?SetW@C_Window@@QAEXF@Z			; C_Window::SetW

; 2691 : 			break;

	jmp	$LN21@LocalFunct
$LN13@LocalFunct:

; 2692 : 		case CWIN_SETH:
; 2693 : 			SetH((short)P[0]);

	mov	eax, 4
	imul	eax, 0
	mov	ecx, DWORD PTR _P$[ebp]
	movzx	edx, WORD PTR [ecx+eax]
	push	edx
	mov	ecx, DWORD PTR _this$[ebp]
	call	?SetH@C_Window@@QAEXF@Z			; C_Window::SetH

; 2694 : 			break;

	jmp	$LN21@LocalFunct
$LN12@LocalFunct:

; 2695 : 		case CWIN_SETRANGES:
; 2696 : 			SetRanges((short)P[0],(short)P[1],(short)P[2],(short)P[3],(short)P[4],(short)P[5]);

	mov	eax, 4
	imul	eax, 5
	mov	ecx, DWORD PTR _P$[ebp]
	movzx	edx, WORD PTR [ecx+eax]
	push	edx
	mov	eax, 4
	shl	eax, 2
	mov	ecx, DWORD PTR _P$[ebp]
	movzx	edx, WORD PTR [ecx+eax]
	push	edx
	mov	eax, 4
	imul	eax, 3
	mov	ecx, DWORD PTR _P$[ebp]
	movzx	edx, WORD PTR [ecx+eax]
	push	edx
	mov	eax, 4
	shl	eax, 1
	mov	ecx, DWORD PTR _P$[ebp]
	movzx	edx, WORD PTR [ecx+eax]
	push	edx
	mov	eax, 4
	shl	eax, 0
	mov	ecx, DWORD PTR _P$[ebp]
	movzx	edx, WORD PTR [ecx+eax]
	push	edx
	mov	eax, 4
	imul	eax, 0
	mov	ecx, DWORD PTR _P$[ebp]
	movzx	edx, WORD PTR [ecx+eax]
	push	edx
	mov	ecx, DWORD PTR _this$[ebp]
	call	?SetRanges@C_Window@@QAEXFFFFFF@Z	; C_Window::SetRanges

; 2697 : 			break;

	jmp	$LN21@LocalFunct
$LN11@LocalFunct:

; 2698 : 		case CWIN_SETFONT:
; 2699 : 			SetFont(P[0]);

	mov	eax, 4
	imul	eax, 0
	mov	ecx, DWORD PTR _P$[ebp]
	mov	edx, DWORD PTR [ecx+eax]
	push	edx
	mov	ecx, DWORD PTR _this$[ebp]
	call	?SetFont@C_Window@@QAEHJ@Z		; C_Window::SetFont

; 2700 : 			break;

	jmp	$LN21@LocalFunct
$LN10@LocalFunct:

; 2701 : 		case CWIN_SETGROUP:
; 2702 : 			SetGroup(P[0]);

	mov	eax, 4
	imul	eax, 0
	mov	ecx, DWORD PTR _P$[ebp]
	mov	edx, DWORD PTR [ecx+eax]
	push	edx
	mov	ecx, DWORD PTR _this$[ebp]
	call	?SetGroup@C_Window@@QAEXJ@Z		; C_Window::SetGroup

; 2703 : 			break;

	jmp	$LN21@LocalFunct
$LN9@LocalFunct:

; 2704 : 		case CWIN_SETCLIENTAREA:
; 2705 : 			SetClientArea((short)P[0],(short)P[1],(short)P[2],(short)P[3],(short)P[4]);

	mov	eax, 4
	shl	eax, 2
	mov	ecx, DWORD PTR _P$[ebp]
	movzx	edx, WORD PTR [ecx+eax]
	push	edx
	mov	eax, 4
	imul	eax, 3
	mov	ecx, DWORD PTR _P$[ebp]
	movsx	edx, WORD PTR [ecx+eax]
	push	edx
	mov	eax, 4
	shl	eax, 1
	mov	ecx, DWORD PTR _P$[ebp]
	movsx	edx, WORD PTR [ecx+eax]
	push	edx
	mov	eax, 4
	shl	eax, 0
	mov	ecx, DWORD PTR _P$[ebp]
	movsx	edx, WORD PTR [ecx+eax]
	push	edx
	mov	eax, 4
	imul	eax, 0
	mov	ecx, DWORD PTR _P$[ebp]
	movsx	edx, WORD PTR [ecx+eax]
	push	edx
	mov	ecx, DWORD PTR _this$[ebp]
	call	?SetClientArea@C_Window@@QAEXJJJJF@Z	; C_Window::SetClientArea

; 2706 : 			break;

	jmp	$LN21@LocalFunct
$LN8@LocalFunct:

; 2707 : 		case CWIN_SETFLAGBITON:
; 2708 : 			SetFlagBitOn(P[0]);

	mov	eax, 4
	imul	eax, 0
	mov	ecx, DWORD PTR _P$[ebp]
	mov	edx, DWORD PTR [ecx+eax]
	push	edx
	mov	ecx, DWORD PTR _this$[ebp]
	call	?SetFlagBitOn@C_Window@@QAEXJ@Z		; C_Window::SetFlagBitOn

; 2709 : 			break;

	jmp	$LN21@LocalFunct
$LN7@LocalFunct:

; 2710 : 		case CWIN_SETFLAGBITOFF:
; 2711 : 			SetFlagBitOff(P[0]);

	mov	eax, 4
	imul	eax, 0
	mov	ecx, DWORD PTR _P$[ebp]
	mov	edx, DWORD PTR [ecx+eax]
	push	edx
	mov	ecx, DWORD PTR _this$[ebp]
	call	?SetFlagBitOff@C_Window@@QAEXJ@Z	; C_Window::SetFlagBitOff

; 2712 : 			break;

	jmp	$LN21@LocalFunct
$LN6@LocalFunct:

; 2713 : 		case CWIN_SETDEPTH:
; 2714 : 			SetDepth((short)P[0]);

	mov	eax, 4
	imul	eax, 0
	mov	ecx, DWORD PTR _P$[ebp]
	movzx	edx, WORD PTR [ecx+eax]
	push	edx
	mov	ecx, DWORD PTR _this$[ebp]
	call	?SetDepth@C_Window@@QAEXF@Z		; C_Window::SetDepth

; 2715 : 			break;

	jmp	$LN21@LocalFunct
$LN5@LocalFunct:

; 2716 : 		case CWIN_SETMENUID:
; 2717 : 			SetMenu(P[0]);

	mov	eax, 4
	imul	eax, 0
	mov	ecx, DWORD PTR _P$[ebp]
	mov	edx, DWORD PTR [ecx+eax]
	push	edx
	mov	ecx, DWORD PTR _this$[ebp]
	call	?SetMenu@C_Window@@QAEXJ@Z		; C_Window::SetMenu

; 2718 : 			break;

	jmp	$LN21@LocalFunct
$LN4@LocalFunct:

; 2719 : 		case CWIN_SETCLIENTMENUID:
; 2720 : 			SetClientMenu(P[0],P[1]);

	mov	eax, 4
	shl	eax, 0
	mov	ecx, DWORD PTR _P$[ebp]
	mov	edx, DWORD PTR [ecx+eax]
	push	edx
	mov	eax, 4
	imul	eax, 0
	mov	ecx, DWORD PTR _P$[ebp]
	mov	edx, DWORD PTR [ecx+eax]
	push	edx
	mov	ecx, DWORD PTR _this$[ebp]
	call	?SetClientMenu@C_Window@@QAEXJJ@Z	; C_Window::SetClientMenu

; 2721 : 			break;

	jmp	SHORT $LN21@LocalFunct
$LN3@LocalFunct:

; 2722 : 		case CWIN_SETCURSOR:
; 2723 : 			SetCursorID(P[0]);

	mov	eax, 4
	imul	eax, 0
	mov	ecx, DWORD PTR _P$[ebp]
	mov	edx, DWORD PTR [ecx+eax]
	push	edx
	mov	ecx, DWORD PTR _this$[ebp]
	call	?SetCursorID@C_Window@@QAEXJ@Z		; C_Window::SetCursorID

; 2724 : 			break;

	jmp	SHORT $LN21@LocalFunct
$LN2@LocalFunct:

; 2725 : 		case CWIN_SETDRAGH:
; 2726 : 			SetDragH((short)P[0]);

	mov	eax, 4
	imul	eax, 0
	mov	ecx, DWORD PTR _P$[ebp]
	movzx	edx, WORD PTR [ecx+eax]
	push	edx
	mov	ecx, DWORD PTR _this$[ebp]
	call	?SetDragH@C_Window@@QAEXF@Z		; C_Window::SetDragH

; 2727 : 			break;

	jmp	SHORT $LN21@LocalFunct
$LN1@LocalFunct:

; 2728 : 		case CWIN_SETCLIENTFLAGS:
; 2729 : 			SetClientFlags(P[0],P[1]);

	mov	eax, 4
	shl	eax, 0
	mov	ecx, DWORD PTR _P$[ebp]
	mov	edx, DWORD PTR [ecx+eax]
	push	edx
	mov	eax, 4
	imul	eax, 0
	mov	ecx, DWORD PTR _P$[ebp]
	mov	edx, DWORD PTR [ecx+eax]
	push	edx
	mov	ecx, DWORD PTR _this$[ebp]
	call	?SetClientFlags@C_Window@@QAEXJJ@Z	; C_Window::SetClientFlags
$LN21@LocalFunct:

; 2730 : 			break;
; 2731 : 	}
; 2732 : }

	mov	esp, ebp
	pop	ebp
	ret	16					; 00000010H
	npad	3
$LN23@LocalFunct:
	DD	$LN18@LocalFunct
	DD	$LN17@LocalFunct
	DD	$LN16@LocalFunct
	DD	$LN15@LocalFunct
	DD	$LN14@LocalFunct
	DD	$LN13@LocalFunct
	DD	$LN12@LocalFunct
	DD	$LN9@LocalFunct
	DD	$LN11@LocalFunct
	DD	$LN10@LocalFunct
	DD	$LN8@LocalFunct
	DD	$LN7@LocalFunct
	DD	$LN6@LocalFunct
	DD	$LN5@LocalFunct
	DD	$LN4@LocalFunct
	DD	$LN3@LocalFunct
	DD	$LN2@LocalFunct
	DD	$LN1@LocalFunct
?LocalFunction@C_Window@@QAEXFQAJPADPAVC_Handler@@@Z ENDP ; C_Window::LocalFunction
_TEXT	ENDS
; Function compile flags: /Odtp
; File c:\users\zhitao li\documents\visual studio 2012\projects\freefalcon\ui95\cwindow.cpp
_TEXT	SEGMENT
_this$ = -8						; size = 4
_i$ = -4						; size = 2
_token$ = 8						; size = 4
?LocalFind@C_Window@@QAEFPAD@Z PROC			; C_Window::LocalFind
; _this$ = ecx

; 2661 : {

	push	ebp
	mov	ebp, esp
	sub	esp, 8
	mov	DWORD PTR _this$[ebp], ecx

; 2662 : 	short i=0;

	xor	eax, eax
	mov	WORD PTR _i$[ebp], ax
$LN3@LocalFind:

; 2663 : 
; 2664 : 	while(C_Win_Tokens[i])

	movsx	ecx, WORD PTR _i$[ebp]
	cmp	DWORD PTR ?C_Win_Tokens@@3PAPADA[ecx*4], 0
	je	SHORT $LN2@LocalFind

; 2665 : 	{
; 2666 : 		if(strnicmp(token,C_Win_Tokens[i],strlen(C_Win_Tokens[i])) == 0)

	movsx	edx, WORD PTR _i$[ebp]
	mov	eax, DWORD PTR ?C_Win_Tokens@@3PAPADA[edx*4]
	push	eax
	call	_strlen
	add	esp, 4
	push	eax
	movsx	ecx, WORD PTR _i$[ebp]
	mov	edx, DWORD PTR ?C_Win_Tokens@@3PAPADA[ecx*4]
	push	edx
	mov	eax, DWORD PTR _token$[ebp]
	push	eax
	call	_strnicmp
	add	esp, 12					; 0000000cH
	test	eax, eax
	jne	SHORT $LN1@LocalFind

; 2667 : 			return(i);

	mov	ax, WORD PTR _i$[ebp]
	jmp	SHORT $LN4@LocalFind
$LN1@LocalFind:

; 2668 : 		i++;

	mov	cx, WORD PTR _i$[ebp]
	add	cx, 1
	mov	WORD PTR _i$[ebp], cx

; 2669 : 	}

	jmp	SHORT $LN3@LocalFind
$LN2@LocalFind:

; 2670 : 	return(0);

	xor	eax, eax
$LN4@LocalFind:

; 2671 : }

	mov	esp, ebp
	pop	ebp
	ret	4
?LocalFind@C_Window@@QAEFPAD@Z ENDP			; C_Window::LocalFind
_TEXT	ENDS
; Function compile flags: /Odtp
; File c:\users\zhitao li\documents\visual studio 2012\projects\freefalcon\ui95\cwindow.cpp
_TEXT	SEGMENT
_this$ = -4						; size = 4
_w$ = 8							; size = 4
_h$ = 12						; size = 4
?ConstraintsCorrection@C_Window@@QAEXJJ@Z PROC		; C_Window::ConstraintsCorrection
; _this$ = ecx

; 2649 : void C_Window::ConstraintsCorrection(long w, long h){

	push	ebp
	mov	ebp, esp
	push	ecx
	mov	DWORD PTR _this$[ebp], ecx

; 2650 : 	// clip window dimensions to screen
; 2651 : 	if (this->x_ + this->Area_.right >= w){

	mov	eax, DWORD PTR _this$[ebp]
	movsx	ecx, WORD PTR [eax+428]
	mov	edx, DWORD PTR _this$[ebp]
	add	ecx, DWORD PTR [edx+120]
	cmp	ecx, DWORD PTR _w$[ebp]
	jl	SHORT $LN2@Constraint

; 2652 : 		this->Area_.right -= ((this->x_ + this->Area_.right) - w + 1);

	mov	eax, DWORD PTR _this$[ebp]
	movsx	ecx, WORD PTR [eax+428]
	mov	edx, DWORD PTR _this$[ebp]
	add	ecx, DWORD PTR [edx+120]
	sub	ecx, DWORD PTR _w$[ebp]
	add	ecx, 1
	mov	eax, DWORD PTR _this$[ebp]
	mov	edx, DWORD PTR [eax+120]
	sub	edx, ecx
	mov	eax, DWORD PTR _this$[ebp]
	mov	DWORD PTR [eax+120], edx
$LN2@Constraint:

; 2653 : 	}
; 2654 : 	if (this->y_ + this->Area_.bottom >= h){

	mov	ecx, DWORD PTR _this$[ebp]
	movsx	edx, WORD PTR [ecx+430]
	mov	eax, DWORD PTR _this$[ebp]
	add	edx, DWORD PTR [eax+124]
	cmp	edx, DWORD PTR _h$[ebp]
	jl	SHORT $LN3@Constraint

; 2655 : 		this->Area_.bottom -= ((this->y_ + this->Area_.bottom) - h + 1);

	mov	ecx, DWORD PTR _this$[ebp]
	movsx	edx, WORD PTR [ecx+430]
	mov	eax, DWORD PTR _this$[ebp]
	add	edx, DWORD PTR [eax+124]
	sub	edx, DWORD PTR _h$[ebp]
	add	edx, 1
	mov	ecx, DWORD PTR _this$[ebp]
	mov	eax, DWORD PTR [ecx+124]
	sub	eax, edx
	mov	ecx, DWORD PTR _this$[ebp]
	mov	DWORD PTR [ecx+124], eax
$LN3@Constraint:

; 2656 : 	}
; 2657 : }

	mov	esp, ebp
	pop	ebp
	ret	8
?ConstraintsCorrection@C_Window@@QAEXJJ@Z ENDP		; C_Window::ConstraintsCorrection
_TEXT	ENDS
; Function compile flags: /Odtp
; File c:\users\zhitao li\documents\visual studio 2012\projects\freefalcon\ui95\cwindow.cpp
_TEXT	SEGMENT
_this$ = -4						; size = 4
___formal$ = 8						; size = 4
___formal$ = 12						; size = 2
___formal$ = 16						; size = 2
___formal$ = 20						; size = 4
?Drop@C_Window@@QAEHPAUGRABBER@@GGPAV1@@Z PROC		; C_Window::Drop
; _this$ = ecx

; 2644 : {

	push	ebp
	mov	ebp, esp
	push	ecx
	mov	DWORD PTR _this$[ebp], ecx

; 2645 : 	return(FALSE);

	xor	eax, eax

; 2646 : }

	mov	esp, ebp
	pop	ebp
	ret	16					; 00000010H
?Drop@C_Window@@QAEHPAUGRABBER@@GGPAV1@@Z ENDP		; C_Window::Drop
_TEXT	ENDS
; Function compile flags: /Odtp
; File c:\users\zhitao li\documents\visual studio 2012\projects\freefalcon\ui95\cwindow.cpp
_TEXT	SEGMENT
_Leave$ = -16						; size = 4
_x$ = -12						; size = 4
_y$ = -8						; size = 4
_this$ = -4						; size = 4
_Drag$ = 8						; size = 4
_MouseX$ = 12						; size = 2
_MouseY$ = 16						; size = 2
___formal$ = 20						; size = 4
?Drag@C_Window@@QAEHPAUGRABBER@@GGPAV1@@Z PROC		; C_Window::Drag
; _this$ = ecx

; 2620 : {

	push	ebp
	mov	ebp, esp
	sub	esp, 16					; 00000010H
	push	esi
	mov	DWORD PTR _this$[ebp], ecx

; 2621 : 	long x,y;
; 2622 : 	F4CSECTIONHANDLE* Leave;
; 2623 : 
; 2624 : 	x=Drag->ItemX_ + (MouseX - Drag->StartX_);

	movzx	eax, WORD PTR _MouseX$[ebp]
	mov	ecx, DWORD PTR _Drag$[ebp]
	sub	eax, DWORD PTR [ecx+4]
	mov	edx, DWORD PTR _Drag$[ebp]
	add	eax, DWORD PTR [edx+12]
	mov	DWORD PTR _x$[ebp], eax

; 2625 : 	y=Drag->ItemY_ + (MouseY - Drag->StartY_);

	movzx	eax, WORD PTR _MouseY$[ebp]
	mov	ecx, DWORD PTR _Drag$[ebp]
	sub	eax, DWORD PTR [ecx+8]
	mov	edx, DWORD PTR _Drag$[ebp]
	add	eax, DWORD PTR [edx+16]
	mov	DWORD PTR _y$[ebp], eax

; 2626 : 
; 2627 : 	if(x < MinX_) x=MinX_;

	mov	eax, DWORD PTR _this$[ebp]
	movsx	ecx, WORD PTR [eax+436]
	cmp	DWORD PTR _x$[ebp], ecx
	jge	SHORT $LN5@Drag
	mov	edx, DWORD PTR _this$[ebp]
	movsx	eax, WORD PTR [edx+436]
	mov	DWORD PTR _x$[ebp], eax
$LN5@Drag:

; 2628 : 	if((x+GetW()) > MaxX_) x=MaxX_-GetW();

	mov	ecx, DWORD PTR _this$[ebp]
	call	?GetW@C_Window@@QAEFXZ			; C_Window::GetW
	movsx	ecx, ax
	add	ecx, DWORD PTR _x$[ebp]
	mov	edx, DWORD PTR _this$[ebp]
	movsx	eax, WORD PTR [edx+440]
	cmp	ecx, eax
	jle	SHORT $LN4@Drag
	mov	ecx, DWORD PTR _this$[ebp]
	movsx	esi, WORD PTR [ecx+440]
	mov	ecx, DWORD PTR _this$[ebp]
	call	?GetW@C_Window@@QAEFXZ			; C_Window::GetW
	movsx	edx, ax
	sub	esi, edx
	mov	DWORD PTR _x$[ebp], esi
$LN4@Drag:

; 2629 : 	if(y < MinY_) y=MinY_;

	mov	eax, DWORD PTR _this$[ebp]
	movsx	ecx, WORD PTR [eax+438]
	cmp	DWORD PTR _y$[ebp], ecx
	jge	SHORT $LN3@Drag
	mov	edx, DWORD PTR _this$[ebp]
	movsx	eax, WORD PTR [edx+438]
	mov	DWORD PTR _y$[ebp], eax
$LN3@Drag:

; 2630 : 	if((y+GetH()) > MaxY_) y=MaxY_-GetH();

	mov	ecx, DWORD PTR _this$[ebp]
	call	?GetH@C_Window@@QAEFXZ			; C_Window::GetH
	movsx	ecx, ax
	add	ecx, DWORD PTR _y$[ebp]
	mov	edx, DWORD PTR _this$[ebp]
	movsx	eax, WORD PTR [edx+442]
	cmp	ecx, eax
	jle	SHORT $LN2@Drag
	mov	ecx, DWORD PTR _this$[ebp]
	movsx	esi, WORD PTR [ecx+442]
	mov	ecx, DWORD PTR _this$[ebp]
	call	?GetH@C_Window@@QAEFXZ			; C_Window::GetH
	movsx	edx, ax
	sub	esi, edx
	mov	DWORD PTR _y$[ebp], esi
$LN2@Drag:

; 2631 : 
; 2632 : 	Leave=UI_Enter(this);

	mov	eax, DWORD PTR _this$[ebp]
	push	eax
	call	?UI_Enter@@YAPAUF4CSECTIONHANDLE@@PAVC_Window@@@Z ; UI_Enter
	add	esp, 4
	mov	DWORD PTR _Leave$[ebp], eax

; 2633 : 	Handler_->SetBehindWindow(this);

	mov	ecx, DWORD PTR _this$[ebp]
	push	ecx
	mov	edx, DWORD PTR _this$[ebp]
	mov	ecx, DWORD PTR [edx+4328]
	call	?SetBehindWindow@C_Handler@@QAEXPAVC_Window@@@Z ; C_Handler::SetBehindWindow

; 2634 : 	SetXY((short)x,(short)y);

	movzx	eax, WORD PTR _y$[ebp]
	push	eax
	movzx	ecx, WORD PTR _x$[ebp]
	push	ecx
	mov	ecx, DWORD PTR _this$[ebp]
	call	?SetXY@C_Window@@QAEXFF@Z		; C_Window::SetXY

; 2635 : 	if(DragCallback_)

	mov	edx, DWORD PTR _this$[ebp]
	cmp	DWORD PTR [edx+4316], 0
	je	SHORT $LN1@Drag

; 2636 : 		(*DragCallback_)(this);

	mov	eax, DWORD PTR _this$[ebp]
	push	eax
	mov	ecx, DWORD PTR _this$[ebp]
	mov	edx, DWORD PTR [ecx+4316]
	call	edx
	add	esp, 4
$LN1@Drag:

; 2637 : 	RefreshWindow();

	mov	ecx, DWORD PTR _this$[ebp]
	call	?RefreshWindow@C_Window@@QAEXXZ		; C_Window::RefreshWindow

; 2638 : 	UI_Leave(Leave);

	mov	eax, DWORD PTR _Leave$[ebp]
	push	eax
	call	?UI_Leave@@YAXPAUF4CSECTIONHANDLE@@@Z	; UI_Leave
	add	esp, 4

; 2639 : 	return(TRUE);

	mov	eax, 1

; 2640 : }

	pop	esi
	mov	esp, ebp
	pop	ebp
	ret	16					; 00000010H
?Drag@C_Window@@QAEHPAUGRABBER@@GGPAV1@@Z ENDP		; C_Window::Drag
_TEXT	ENDS
; Function compile flags: /Odtp
; File c:\users\zhitao li\documents\visual studio 2012\projects\freefalcon\ui95\cwindow.cpp
_TEXT	SEGMENT
_Found_$ = -12						; size = 4
_this$ = -8						; size = 4
_cur$ = -4						; size = 4
_relx$ = 8						; size = 4
_rely$ = 12						; size = 4
_lastover$ = 16						; size = 4
?MouseOver@C_Window@@QAEPAVC_Base@@JJPAV2@@Z PROC	; C_Window::MouseOver
; _this$ = ecx

; 1334 : {

	push	ebp
	mov	ebp, esp
	sub	esp, 12					; 0000000cH
	mov	DWORD PTR _this$[ebp], ecx

; 1335 : 	CONTROLLIST *cur;
; 1336 : 	C_Base *Found_=NULL;

	mov	DWORD PTR _Found_$[ebp], 0

; 1337 : 
; 1338 : 	cur = Controls_;

	mov	eax, DWORD PTR _this$[ebp]
	mov	ecx, DWORD PTR [eax+4304]
	mov	DWORD PTR _cur$[ebp], ecx
$LN7@MouseOver:

; 1339 : 	while (cur){

	cmp	DWORD PTR _cur$[ebp], 0
	je	$LN6@MouseOver

; 1340 : 		if (cur->Control_->GetFlags() & C_BIT_ABSOLUTE){

	mov	edx, DWORD PTR _cur$[ebp]
	mov	ecx, DWORD PTR [edx]
	call	?GetFlags@C_Base@@QAEJXZ		; C_Base::GetFlags
	and	eax, 262144				; 00040000H
	je	SHORT $LN5@MouseOver

; 1341 : 			if (cur->Control_->MouseOver(relx,rely,lastover)){

	mov	eax, DWORD PTR _lastover$[ebp]
	push	eax
	mov	ecx, DWORD PTR _rely$[ebp]
	push	ecx
	mov	edx, DWORD PTR _relx$[ebp]
	push	edx
	mov	eax, DWORD PTR _cur$[ebp]
	mov	ecx, DWORD PTR [eax]
	mov	edx, DWORD PTR _cur$[ebp]
	mov	eax, DWORD PTR [ecx]
	mov	ecx, DWORD PTR [edx]
	mov	edx, DWORD PTR [eax+208]
	call	edx
	test	eax, eax
	je	SHORT $LN4@MouseOver

; 1342 : 				// 99% of the time this will return cur->Control_ except 
; 1343 : 				// in the case of piggyback controls (like trees)
; 1344 : 				Found_= cur->Control_->GetMe();

	mov	eax, DWORD PTR _cur$[ebp]
	mov	ecx, DWORD PTR [eax]
	mov	edx, DWORD PTR _cur$[ebp]
	mov	eax, DWORD PTR [ecx]
	mov	ecx, DWORD PTR [edx]
	mov	edx, DWORD PTR [eax+212]
	call	edx
	mov	DWORD PTR _Found_$[ebp], eax
$LN4@MouseOver:

; 1345 : 			}
; 1346 : 		}
; 1347 : 		else if (

	jmp	$LN3@MouseOver
$LN5@MouseOver:

; 1348 : 			relx >= ClientArea_[cur->Control_->GetClient()].left && 
; 1349 : 			relx <= ClientArea_[cur->Control_->GetClient()].right && 
; 1350 : 			rely >= ClientArea_[cur->Control_->GetClient()].top && 
; 1351 : 			rely <= ClientArea_[cur->Control_->GetClient()].bottom
; 1352 : 		){

	mov	eax, DWORD PTR _cur$[ebp]
	mov	ecx, DWORD PTR [eax]
	call	?GetClient@C_Base@@QAEFXZ		; C_Base::GetClient
	movsx	ecx, ax
	shl	ecx, 4
	mov	edx, DWORD PTR _this$[ebp]
	mov	eax, DWORD PTR _relx$[ebp]
	cmp	eax, DWORD PTR [edx+ecx+168]
	jl	$LN3@MouseOver
	mov	ecx, DWORD PTR _cur$[ebp]
	mov	ecx, DWORD PTR [ecx]
	call	?GetClient@C_Base@@QAEFXZ		; C_Base::GetClient
	movsx	edx, ax
	shl	edx, 4
	mov	eax, DWORD PTR _this$[ebp]
	mov	ecx, DWORD PTR _relx$[ebp]
	cmp	ecx, DWORD PTR [eax+edx+176]
	jg	$LN3@MouseOver
	mov	edx, DWORD PTR _cur$[ebp]
	mov	ecx, DWORD PTR [edx]
	call	?GetClient@C_Base@@QAEFXZ		; C_Base::GetClient
	cwde
	shl	eax, 4
	mov	ecx, DWORD PTR _this$[ebp]
	mov	edx, DWORD PTR _rely$[ebp]
	cmp	edx, DWORD PTR [ecx+eax+172]
	jl	$LN3@MouseOver
	mov	eax, DWORD PTR _cur$[ebp]
	mov	ecx, DWORD PTR [eax]
	call	?GetClient@C_Base@@QAEFXZ		; C_Base::GetClient
	movsx	ecx, ax
	shl	ecx, 4
	mov	edx, DWORD PTR _this$[ebp]
	mov	eax, DWORD PTR _rely$[ebp]
	cmp	eax, DWORD PTR [edx+ecx+180]
	jg	SHORT $LN3@MouseOver

; 1353 : 			if (
; 1354 : 				cur->Control_->MouseOver(
; 1355 : 					relx-VX_[cur->Control_->GetClient()], rely-VY_[cur->Control_->GetClient()], lastover
; 1356 : 				)
; 1357 : 			){

	mov	ecx, DWORD PTR _lastover$[ebp]
	push	ecx
	mov	edx, DWORD PTR _cur$[ebp]
	mov	ecx, DWORD PTR [edx]
	call	?GetClient@C_Base@@QAEFXZ		; C_Base::GetClient
	cwde
	mov	ecx, DWORD PTR _this$[ebp]
	mov	edx, DWORD PTR _rely$[ebp]
	sub	edx, DWORD PTR [ecx+eax*4+512]
	push	edx
	mov	eax, DWORD PTR _cur$[ebp]
	mov	ecx, DWORD PTR [eax]
	call	?GetClient@C_Base@@QAEFXZ		; C_Base::GetClient
	movsx	ecx, ax
	mov	edx, DWORD PTR _this$[ebp]
	mov	eax, DWORD PTR _relx$[ebp]
	sub	eax, DWORD PTR [edx+ecx*4+480]
	push	eax
	mov	ecx, DWORD PTR _cur$[ebp]
	mov	edx, DWORD PTR [ecx]
	mov	eax, DWORD PTR _cur$[ebp]
	mov	edx, DWORD PTR [edx]
	mov	ecx, DWORD PTR [eax]
	mov	eax, DWORD PTR [edx+208]
	call	eax
	test	eax, eax
	je	SHORT $LN3@MouseOver

; 1358 : 				Found_ = cur->Control_->GetMe();

	mov	ecx, DWORD PTR _cur$[ebp]
	mov	edx, DWORD PTR [ecx]
	mov	eax, DWORD PTR _cur$[ebp]
	mov	edx, DWORD PTR [edx]
	mov	ecx, DWORD PTR [eax]
	mov	eax, DWORD PTR [edx+212]
	call	eax
	mov	DWORD PTR _Found_$[ebp], eax
$LN3@MouseOver:

; 1359 : 			}
; 1360 : 		}
; 1361 : 		cur=cur->Next;

	mov	ecx, DWORD PTR _cur$[ebp]
	mov	edx, DWORD PTR [ecx+8]
	mov	DWORD PTR _cur$[ebp], edx

; 1362 : 	}

	jmp	$LN7@MouseOver
$LN6@MouseOver:

; 1363 : 	return (Found_);

	mov	eax, DWORD PTR _Found_$[ebp]

; 1364 : }

	mov	esp, ebp
	pop	ebp
	ret	12					; 0000000cH
?MouseOver@C_Window@@QAEPAVC_Base@@JJPAV2@@Z ENDP	; C_Window::MouseOver
_TEXT	ENDS
; Function compile flags: /Odtp
; File c:\users\zhitao li\documents\visual studio 2012\projects\freefalcon\ui95\cwindow.cpp
_TEXT	SEGMENT
_last$ = -20						; size = 4
_lastID$ = -16						; size = 4
_thisID$ = -12						; size = 4
_this$ = -8						; size = 4
_cur$1 = -4						; size = 4
_ID$ = 8						; size = 4
_relX$ = 12						; size = 4
_relY$ = 16						; size = 4
?GetControl@C_Window@@QAEPAVC_Base@@PAJJJ@Z PROC	; C_Window::GetControl
; _this$ = ecx

; 1265 : C_Base *C_Window::GetControl(long *ID,long relX,long relY){

	push	ebp
	mov	ebp, esp
	sub	esp, 20					; 00000014H
	mov	DWORD PTR _this$[ebp], ecx

; 1266 : 	C_Base *last=NULL;

	mov	DWORD PTR _last$[ebp], 0

; 1267 : 	long thisID,lastID=0;

	mov	DWORD PTR _lastID$[ebp], 0

; 1268 : 
; 1269 : 	// run all controls in window
; 1270 : 	for(CONTROLLIST *cur=Controls_;cur!=NULL;cur=cur->Next){

	mov	eax, DWORD PTR _this$[ebp]
	mov	ecx, DWORD PTR [eax+4304]
	mov	DWORD PTR _cur$1[ebp], ecx
	jmp	SHORT $LN10@GetControl
$LN9@GetControl:
	mov	edx, DWORD PTR _cur$1[ebp]
	mov	eax, DWORD PTR [edx+8]
	mov	DWORD PTR _cur$1[ebp], eax
$LN10@GetControl:
	cmp	DWORD PTR _cur$1[ebp], 0
	je	$LN8@GetControl

; 1271 : 		if(cur->Control_->IsControl()){

	mov	ecx, DWORD PTR _cur$1[ebp]
	mov	edx, DWORD PTR [ecx]
	mov	eax, DWORD PTR _cur$1[ebp]
	mov	edx, DWORD PTR [edx]
	mov	ecx, DWORD PTR [eax]
	mov	eax, DWORD PTR [edx+156]
	call	eax
	test	eax, eax
	je	$LN7@GetControl

; 1272 : 			if(cur->Control_->GetFlags() & C_BIT_ABSOLUTE){

	mov	ecx, DWORD PTR _cur$1[ebp]
	mov	ecx, DWORD PTR [ecx]
	call	?GetFlags@C_Base@@QAEJXZ		; C_Base::GetFlags
	and	eax, 262144				; 00040000H
	je	SHORT $LN6@GetControl

; 1273 : 				thisID=cur->Control_->CheckHotSpots(relX,relY);

	mov	edx, DWORD PTR _relY$[ebp]
	push	edx
	mov	eax, DWORD PTR _relX$[ebp]
	push	eax
	mov	ecx, DWORD PTR _cur$1[ebp]
	mov	edx, DWORD PTR [ecx]
	mov	eax, DWORD PTR _cur$1[ebp]
	mov	edx, DWORD PTR [edx]
	mov	ecx, DWORD PTR [eax]
	mov	eax, DWORD PTR [edx+192]
	call	eax
	mov	DWORD PTR _thisID$[ebp], eax

; 1274 : 				if(thisID){

	cmp	DWORD PTR _thisID$[ebp], 0
	je	SHORT $LN5@GetControl

; 1275 : 					lastID=thisID;

	mov	ecx, DWORD PTR _thisID$[ebp]
	mov	DWORD PTR _lastID$[ebp], ecx

; 1276 : 					last=cur->Control_;

	mov	edx, DWORD PTR _cur$1[ebp]
	mov	eax, DWORD PTR [edx]
	mov	DWORD PTR _last$[ebp], eax
$LN5@GetControl:

; 1277 : 				}
; 1278 : 			}
; 1279 : 			else{

	jmp	$LN7@GetControl
$LN6@GetControl:

; 1280 : 				if(relX >= ClientArea_[cur->Control_->GetClient()].left && relX <= ClientArea_[cur->Control_->GetClient()].right && relY >= ClientArea_[cur->Control_->GetClient()].top && relY <= ClientArea_[cur->Control_->GetClient()].bottom){

	mov	ecx, DWORD PTR _cur$1[ebp]
	mov	ecx, DWORD PTR [ecx]
	call	?GetClient@C_Base@@QAEFXZ		; C_Base::GetClient
	movsx	edx, ax
	shl	edx, 4
	mov	eax, DWORD PTR _this$[ebp]
	mov	ecx, DWORD PTR _relX$[ebp]
	cmp	ecx, DWORD PTR [eax+edx+168]
	jl	$LN7@GetControl
	mov	edx, DWORD PTR _cur$1[ebp]
	mov	ecx, DWORD PTR [edx]
	call	?GetClient@C_Base@@QAEFXZ		; C_Base::GetClient
	cwde
	shl	eax, 4
	mov	ecx, DWORD PTR _this$[ebp]
	mov	edx, DWORD PTR _relX$[ebp]
	cmp	edx, DWORD PTR [ecx+eax+176]
	jg	$LN7@GetControl
	mov	eax, DWORD PTR _cur$1[ebp]
	mov	ecx, DWORD PTR [eax]
	call	?GetClient@C_Base@@QAEFXZ		; C_Base::GetClient
	movsx	ecx, ax
	shl	ecx, 4
	mov	edx, DWORD PTR _this$[ebp]
	mov	eax, DWORD PTR _relY$[ebp]
	cmp	eax, DWORD PTR [edx+ecx+172]
	jl	SHORT $LN7@GetControl
	mov	ecx, DWORD PTR _cur$1[ebp]
	mov	ecx, DWORD PTR [ecx]
	call	?GetClient@C_Base@@QAEFXZ		; C_Base::GetClient
	movsx	edx, ax
	shl	edx, 4
	mov	eax, DWORD PTR _this$[ebp]
	mov	ecx, DWORD PTR _relY$[ebp]
	cmp	ecx, DWORD PTR [eax+edx+180]
	jg	SHORT $LN7@GetControl

; 1281 : 					thisID=cur->Control_->CheckHotSpots(relX-VX_[cur->Control_->GetClient()],relY-VY_[cur->Control_->GetClient()]);

	mov	edx, DWORD PTR _cur$1[ebp]
	mov	ecx, DWORD PTR [edx]
	call	?GetClient@C_Base@@QAEFXZ		; C_Base::GetClient
	cwde
	mov	ecx, DWORD PTR _this$[ebp]
	mov	edx, DWORD PTR _relY$[ebp]
	sub	edx, DWORD PTR [ecx+eax*4+512]
	push	edx
	mov	eax, DWORD PTR _cur$1[ebp]
	mov	ecx, DWORD PTR [eax]
	call	?GetClient@C_Base@@QAEFXZ		; C_Base::GetClient
	movsx	ecx, ax
	mov	edx, DWORD PTR _this$[ebp]
	mov	eax, DWORD PTR _relX$[ebp]
	sub	eax, DWORD PTR [edx+ecx*4+480]
	push	eax
	mov	ecx, DWORD PTR _cur$1[ebp]
	mov	edx, DWORD PTR [ecx]
	mov	eax, DWORD PTR _cur$1[ebp]
	mov	edx, DWORD PTR [edx]
	mov	ecx, DWORD PTR [eax]
	mov	eax, DWORD PTR [edx+192]
	call	eax
	mov	DWORD PTR _thisID$[ebp], eax

; 1282 : 					if(thisID){

	cmp	DWORD PTR _thisID$[ebp], 0
	je	SHORT $LN7@GetControl

; 1283 : 						lastID=thisID;

	mov	ecx, DWORD PTR _thisID$[ebp]
	mov	DWORD PTR _lastID$[ebp], ecx

; 1284 : 						last=cur->Control_;

	mov	edx, DWORD PTR _cur$1[ebp]
	mov	eax, DWORD PTR [edx]
	mov	DWORD PTR _last$[ebp], eax
$LN7@GetControl:

; 1285 : 					}
; 1286 : 				}
; 1287 : 			}
; 1288 : 		}
; 1289 : 	}

	jmp	$LN9@GetControl
$LN8@GetControl:

; 1290 : 
; 1291 : 	if(lastID){

	cmp	DWORD PTR _lastID$[ebp], 0
	je	SHORT $LN1@GetControl

; 1292 : 		*ID=lastID;

	mov	ecx, DWORD PTR _ID$[ebp]
	mov	edx, DWORD PTR _lastID$[ebp]
	mov	DWORD PTR [ecx], edx

; 1293 : 		return(last);

	mov	eax, DWORD PTR _last$[ebp]
	jmp	SHORT $LN11@GetControl
$LN1@GetControl:

; 1294 : 	}
; 1295 : 
; 1296 : 	*ID=0;

	mov	eax, DWORD PTR _ID$[ebp]
	mov	DWORD PTR [eax], 0

; 1297 : 	return(NULL);

	xor	eax, eax
$LN11@GetControl:

; 1298 : }

	mov	esp, ebp
	pop	ebp
	ret	12					; 0000000cH
?GetControl@C_Window@@QAEPAVC_Base@@PAJJJ@Z ENDP	; C_Window::GetControl
_TEXT	ENDS
; Function compile flags: /Odtp
; File c:\users\zhitao li\documents\visual studio 2012\projects\freefalcon\ui95\cwindow.cpp
_TEXT	SEGMENT
_this$ = -8						; size = 4
_cur$ = -4						; size = 4
_ID$ = 8						; size = 4
?FindControl@C_Window@@QAEPAVC_Base@@J@Z PROC		; C_Window::FindControl
; _this$ = ecx

; 1301 : {

	push	ebp
	mov	ebp, esp
	sub	esp, 8
	mov	DWORD PTR _this$[ebp], ecx

; 1302 : 	CONTROLLIST *cur=NULL;

	mov	DWORD PTR _cur$[ebp], 0

; 1303 : 
; 1304 : 	if (F4IsBadReadPtr(Hash_, sizeof(C_Hash))) // JB 010404 CTD

	push	20					; 00000014H
	mov	eax, DWORD PTR _this$[ebp]
	mov	ecx, DWORD PTR [eax+4300]
	push	ecx
	call	?F4IsBadReadPtr@@YA_NPBXI@Z		; F4IsBadReadPtr
	add	esp, 8
	movzx	edx, al
	test	edx, edx
	je	SHORT $LN3@FindContro

; 1305 : 		return NULL;

	xor	eax, eax
	jmp	SHORT $LN4@FindContro
$LN3@FindContro:

; 1306 : 
; 1307 : 	if(ID > 0)

	cmp	DWORD PTR _ID$[ebp], 0
	jle	SHORT $LN2@FindContro

; 1308 : 		cur=(CONTROLLIST*)Hash_->Find(ID);

	mov	eax, DWORD PTR _ID$[ebp]
	push	eax
	mov	ecx, DWORD PTR _this$[ebp]
	mov	ecx, DWORD PTR [ecx+4300]
	call	?Find@C_Hash@@QAEPAXJ@Z			; C_Hash::Find
	mov	DWORD PTR _cur$[ebp], eax
$LN2@FindContro:

; 1309 : 	if(cur)

	cmp	DWORD PTR _cur$[ebp], 0
	je	SHORT $LN1@FindContro

; 1310 : 		return(cur->Control_);

	mov	edx, DWORD PTR _cur$[ebp]
	mov	eax, DWORD PTR [edx]
	jmp	SHORT $LN4@FindContro
$LN1@FindContro:

; 1311 : 	return(NULL);

	xor	eax, eax
$LN4@FindContro:

; 1312 : }

	mov	esp, ebp
	pop	ebp
	ret	4
?FindControl@C_Window@@QAEPAVC_Base@@J@Z ENDP		; C_Window::FindControl
_TEXT	ENDS
; Function compile flags: /Odtp
; File c:\users\zhitao li\documents\visual studio 2012\projects\freefalcon\ui95\cwindow.cpp
_TEXT	SEGMENT
_this$ = -4						; size = 4
_control$ = 8						; size = 4
?RemovingControl@C_Window@@QAEXPAVC_Base@@@Z PROC	; C_Window::RemovingControl
; _this$ = ecx

; 2384 : {

	push	ebp
	mov	ebp, esp
	push	ecx
	mov	DWORD PTR _this$[ebp], ecx

; 2385 : 	if(CurControl_ == control)

	mov	eax, DWORD PTR _this$[ebp]
	mov	ecx, DWORD PTR [eax+4312]
	cmp	ecx, DWORD PTR _control$[ebp]
	jne	SHORT $LN1@RemovingCo

; 2386 : 		CurControl_=NULL;

	mov	edx, DWORD PTR _this$[ebp]
	mov	DWORD PTR [edx+4312], 0
$LN1@RemovingCo:

; 2387 : 	Handler_->RemovingControl(control);

	mov	eax, DWORD PTR _control$[ebp]
	push	eax
	mov	ecx, DWORD PTR _this$[ebp]
	mov	ecx, DWORD PTR [ecx+4328]
	call	?RemovingControl@C_Handler@@QAEXPAVC_Base@@@Z ; C_Handler::RemovingControl

; 2388 : }

	mov	esp, ebp
	pop	ebp
	ret	4
?RemovingControl@C_Window@@QAEXPAVC_Base@@@Z ENDP	; C_Window::RemovingControl
_TEXT	ENDS
; Function compile flags: /Odtp
; File c:\users\zhitao li\documents\visual studio 2012\projects\freefalcon\ui95\cwindow.cpp
_TEXT	SEGMENT
_this$ = -4						; size = 4
?KeyboardMode@C_Window@@QAEHXZ PROC			; C_Window::KeyboardMode
; _this$ = ecx

; 2368 : {

	push	ebp
	mov	ebp, esp
	push	ecx
	mov	DWORD PTR _this$[ebp], ecx

; 2369 : 	if(Handler_)

	mov	eax, DWORD PTR _this$[ebp]
	cmp	DWORD PTR [eax+4328], 0
	je	SHORT $LN1@KeyboardMo

; 2370 : 		return(Handler_->KeyboardMode());

	mov	ecx, DWORD PTR _this$[ebp]
	mov	ecx, DWORD PTR [ecx+4328]
	call	?KeyboardMode@C_Handler@@QAEHXZ		; C_Handler::KeyboardMode
	jmp	SHORT $LN2@KeyboardMo
$LN1@KeyboardMo:

; 2371 : 	return(FALSE);

	xor	eax, eax
$LN2@KeyboardMo:

; 2372 : }

	mov	esp, ebp
	pop	ebp
	ret	0
?KeyboardMode@C_Window@@QAEHXZ ENDP			; C_Window::KeyboardMode
_TEXT	ENDS
; Function compile flags: /Odtp
; File c:\users\zhitao li\documents\visual studio 2012\projects\freefalcon\ui95\cwindow.cpp
_TEXT	SEGMENT
_this$ = -24						; size = 4
_rect$ = -20						; size = 16
__$ArrayPad$ = -4					; size = 4
_surface$ = 8						; size = 4
_x$ = 12						; size = 4
_y$ = 16						; size = 4
_w$ = 20						; size = 4
_h$ = 24						; size = 4
_flags$ = 28						; size = 4
_Client$ = 32						; size = 4
?ClearArea@C_Window@@QAEXPAVSCREEN@@JJJJJJ@Z PROC	; C_Window::ClearArea
; _this$ = ecx

; 1254 : {

	push	ebp
	mov	ebp, esp
	sub	esp, 24					; 00000018H
	mov	eax, DWORD PTR ___security_cookie
	xor	eax, ebp
	mov	DWORD PTR __$ArrayPad$[ebp], eax
	mov	DWORD PTR _this$[ebp], ecx

; 1255 : 	UI95_RECT rect;
; 1256 : 
; 1257 : 	rect.left=x;

	mov	eax, DWORD PTR _x$[ebp]
	mov	DWORD PTR _rect$[ebp], eax

; 1258 : 	rect.top=y;

	mov	ecx, DWORD PTR _y$[ebp]
	mov	DWORD PTR _rect$[ebp+4], ecx

; 1259 : 	rect.right=rect.left+w;

	mov	edx, DWORD PTR _rect$[ebp]
	add	edx, DWORD PTR _w$[ebp]
	mov	DWORD PTR _rect$[ebp+8], edx

; 1260 : 	rect.bottom=rect.top+h;

	mov	eax, DWORD PTR _rect$[ebp+4]
	add	eax, DWORD PTR _h$[ebp]
	mov	DWORD PTR _rect$[ebp+12], eax

; 1261 : 
; 1262 : 	BlitFill(surface,BgColor_,&rect,flags,Client);

	mov	ecx, DWORD PTR _Client$[ebp]
	push	ecx
	mov	edx, DWORD PTR _flags$[ebp]
	push	edx
	lea	eax, DWORD PTR _rect$[ebp]
	push	eax
	mov	ecx, DWORD PTR _this$[ebp]
	mov	edx, DWORD PTR [ecx+164]
	push	edx
	mov	eax, DWORD PTR _surface$[ebp]
	push	eax
	mov	ecx, DWORD PTR _this$[ebp]
	call	?BlitFill@C_Window@@QAEXPAVSCREEN@@KPAUUI95_RECT@@JJ@Z ; C_Window::BlitFill

; 1263 : }

	mov	ecx, DWORD PTR __$ArrayPad$[ebp]
	xor	ecx, ebp
	call	@__security_check_cookie@4
	mov	esp, ebp
	pop	ebp
	ret	28					; 0000001cH
?ClearArea@C_Window@@QAEXPAVSCREEN@@JJJJJJ@Z ENDP	; C_Window::ClearArea
_TEXT	ENDS
; Function compile flags: /Odtp
; File c:\users\zhitao li\documents\visual studio 2012\projects\freefalcon\ui95\cwindow.cpp
_TEXT	SEGMENT
_this$ = -4						; size = 4
_surface$ = 8						; size = 4
_Client$ = 12						; size = 4
?ClearWindow@C_Window@@QAEXPAVSCREEN@@J@Z PROC		; C_Window::ClearWindow
; _this$ = ecx

; 1248 : {

	push	ebp
	mov	ebp, esp
	push	ecx
	mov	DWORD PTR _this$[ebp], ecx

; 1249 : 	BlitFill(surface,BgColor_,&ClientArea_[Client],C_BIT_ABSOLUTE,Client);

	mov	eax, DWORD PTR _Client$[ebp]
	push	eax
	push	262144					; 00040000H
	mov	ecx, DWORD PTR _Client$[ebp]
	shl	ecx, 4
	mov	edx, DWORD PTR _this$[ebp]
	lea	eax, DWORD PTR [edx+ecx+168]
	push	eax
	mov	ecx, DWORD PTR _this$[ebp]
	mov	edx, DWORD PTR [ecx+164]
	push	edx
	mov	eax, DWORD PTR _surface$[ebp]
	push	eax
	mov	ecx, DWORD PTR _this$[ebp]
	call	?BlitFill@C_Window@@QAEXPAVSCREEN@@KPAUUI95_RECT@@JJ@Z ; C_Window::BlitFill

; 1250 : 	SetUpdateRect(ClientArea_[Client].left,ClientArea_[Client].top,ClientArea_[Client].right,ClientArea_[Client].bottom,C_BIT_ABSOLUTE,0);

	push	0
	push	262144					; 00040000H
	mov	ecx, DWORD PTR _Client$[ebp]
	shl	ecx, 4
	mov	edx, DWORD PTR _this$[ebp]
	mov	eax, DWORD PTR [edx+ecx+180]
	push	eax
	mov	ecx, DWORD PTR _Client$[ebp]
	shl	ecx, 4
	mov	edx, DWORD PTR _this$[ebp]
	mov	eax, DWORD PTR [edx+ecx+176]
	push	eax
	mov	ecx, DWORD PTR _Client$[ebp]
	shl	ecx, 4
	mov	edx, DWORD PTR _this$[ebp]
	mov	eax, DWORD PTR [edx+ecx+172]
	push	eax
	mov	ecx, DWORD PTR _Client$[ebp]
	shl	ecx, 4
	mov	edx, DWORD PTR _this$[ebp]
	mov	eax, DWORD PTR [edx+ecx+168]
	push	eax
	mov	ecx, DWORD PTR _this$[ebp]
	call	?SetUpdateRect@C_Window@@QAEXJJJJJJ@Z	; C_Window::SetUpdateRect

; 1251 : }

	mov	esp, ebp
	pop	ebp
	ret	8
?ClearWindow@C_Window@@QAEXPAVSCREEN@@J@Z ENDP		; C_Window::ClearWindow
_TEXT	ENDS
; Function compile flags: /Odtp
; File c:\users\zhitao li\documents\visual studio 2012\projects\freefalcon\ui95\cwindow.cpp
_TEXT	SEGMENT
tv93 = -32						; size = 4
_this$ = -28						; size = 4
_y1$ = -24						; size = 4
_y2$ = -20						; size = 4
_x1$ = -16						; size = 4
_x2$ = -12						; size = 4
_i$ = -8						; size = 2
_j$ = -4						; size = 2
_surface$ = 8						; size = 4
_color$ = 12						; size = 4
_x$ = 16						; size = 4
_y$ = 20						; size = 4
_radius$ = 24						; size = 4
_section$ = 28						; size = 2
_Flags$ = 32						; size = 4
_Client$ = 36						; size = 4
_clip$ = 40						; size = 4
?DrawArc@C_Window@@QAEXPAVSCREEN@@KJJMFJJPAUUI95_RECT@@@Z PROC ; C_Window::DrawArc
; _this$ = ecx

; 2277 : {

	push	ebp
	mov	ebp, esp
	sub	esp, 32					; 00000020H
	mov	DWORD PTR _this$[ebp], ecx

; 2278 : 	short i,j;
; 2279 : 	float x1,y1,x2,y2;
; 2280 : 
; 2281 : 	for(i=0;i<8;i++)

	xor	eax, eax
	mov	WORD PTR _i$[ebp], ax
	jmp	SHORT $LN16@DrawArc
$LN15@DrawArc:
	mov	cx, WORD PTR _i$[ebp]
	add	cx, 1
	mov	WORD PTR _i$[ebp], cx
$LN16@DrawArc:
	movsx	edx, WORD PTR _i$[ebp]
	cmp	edx, 8
	jge	$LN14@DrawArc

; 2282 : 	{
; 2283 : 		x1=Circle8[0][0]*radius;

	mov	eax, 8
	imul	eax, 0
	mov	ecx, 4
	imul	ecx, 0
	movss	xmm0, DWORD PTR ?Circle8@@3PAY01MA[eax+ecx]
	mulss	xmm0, DWORD PTR _radius$[ebp]
	movss	DWORD PTR _x1$[ebp], xmm0

; 2284 : 		y1=Circle8[0][1]*radius;

	mov	edx, 8
	imul	edx, 0
	mov	eax, 4
	shl	eax, 0
	movss	xmm0, DWORD PTR ?Circle8@@3PAY01MA[edx+eax]
	mulss	xmm0, DWORD PTR _radius$[ebp]
	movss	DWORD PTR _y1$[ebp], xmm0

; 2285 : 
; 2286 : 		for(j=1;j<CIRCLE_POINTS;j++)

	mov	ecx, 1
	mov	WORD PTR _j$[ebp], cx
	jmp	SHORT $LN13@DrawArc
$LN12@DrawArc:
	mov	dx, WORD PTR _j$[ebp]
	add	dx, 1
	mov	WORD PTR _j$[ebp], dx
$LN13@DrawArc:
	movsx	eax, WORD PTR _j$[ebp]
	cmp	eax, 5
	jge	$LN11@DrawArc

; 2287 : 		{
; 2288 : 			x2=Circle8[j][0]*radius;

	movsx	ecx, WORD PTR _j$[ebp]
	mov	edx, 4
	imul	edx, 0
	movss	xmm0, DWORD PTR ?Circle8@@3PAY01MA[edx+ecx*8]
	mulss	xmm0, DWORD PTR _radius$[ebp]
	movss	DWORD PTR _x2$[ebp], xmm0

; 2289 : 			y2=Circle8[j][1]*radius;

	movsx	eax, WORD PTR _j$[ebp]
	mov	ecx, 4
	shl	ecx, 0
	movss	xmm0, DWORD PTR ?Circle8@@3PAY01MA[ecx+eax*8]
	mulss	xmm0, DWORD PTR _radius$[ebp]
	movss	DWORD PTR _y2$[ebp], xmm0

; 2290 : 
; 2291 : 			switch(section)

	movsx	edx, WORD PTR _section$[ebp]
	mov	DWORD PTR tv93[ebp], edx
	cmp	DWORD PTR tv93[ebp], 7
	ja	$LN9@DrawArc
	mov	eax, DWORD PTR tv93[ebp]
	jmp	DWORD PTR $LN19@DrawArc[eax*4]
$LN8@DrawArc:

; 2292 : 			{
; 2293 : 				case 0:
; 2294 : 					DrawLine(surface,color,x+(long)x1,y-(long)y1,x+(long)x2,y-(long)y2,Flags,Client,clip);

	mov	ecx, DWORD PTR _clip$[ebp]
	push	ecx
	mov	edx, DWORD PTR _Client$[ebp]
	push	edx
	mov	eax, DWORD PTR _Flags$[ebp]
	push	eax
	cvttss2si ecx, DWORD PTR _y2$[ebp]
	mov	edx, DWORD PTR _y$[ebp]
	sub	edx, ecx
	push	edx
	cvttss2si eax, DWORD PTR _x2$[ebp]
	add	eax, DWORD PTR _x$[ebp]
	push	eax
	cvttss2si ecx, DWORD PTR _y1$[ebp]
	mov	edx, DWORD PTR _y$[ebp]
	sub	edx, ecx
	push	edx
	cvttss2si eax, DWORD PTR _x1$[ebp]
	add	eax, DWORD PTR _x$[ebp]
	push	eax
	mov	ecx, DWORD PTR _color$[ebp]
	push	ecx
	mov	edx, DWORD PTR _surface$[ebp]
	push	edx
	mov	ecx, DWORD PTR _this$[ebp]
	call	?DrawLine@C_Window@@QAEXPAVSCREEN@@KJJJJJJPAUUI95_RECT@@@Z ; C_Window::DrawLine

; 2295 : 					break;

	jmp	$LN9@DrawArc
$LN7@DrawArc:

; 2296 : 				case 1:
; 2297 : 					DrawLine(surface,color,x+(long)y1,y-(long)x1,x+(long)y2,y-(long)x2,Flags,Client,clip);

	mov	eax, DWORD PTR _clip$[ebp]
	push	eax
	mov	ecx, DWORD PTR _Client$[ebp]
	push	ecx
	mov	edx, DWORD PTR _Flags$[ebp]
	push	edx
	cvttss2si eax, DWORD PTR _x2$[ebp]
	mov	ecx, DWORD PTR _y$[ebp]
	sub	ecx, eax
	push	ecx
	cvttss2si edx, DWORD PTR _y2$[ebp]
	add	edx, DWORD PTR _x$[ebp]
	push	edx
	cvttss2si eax, DWORD PTR _x1$[ebp]
	mov	ecx, DWORD PTR _y$[ebp]
	sub	ecx, eax
	push	ecx
	cvttss2si edx, DWORD PTR _y1$[ebp]
	add	edx, DWORD PTR _x$[ebp]
	push	edx
	mov	eax, DWORD PTR _color$[ebp]
	push	eax
	mov	ecx, DWORD PTR _surface$[ebp]
	push	ecx
	mov	ecx, DWORD PTR _this$[ebp]
	call	?DrawLine@C_Window@@QAEXPAVSCREEN@@KJJJJJJPAUUI95_RECT@@@Z ; C_Window::DrawLine

; 2298 : 					break;

	jmp	$LN9@DrawArc
$LN6@DrawArc:

; 2299 : 				case 2:
; 2300 : 					DrawLine(surface,color,x+(long)y1,y+(long)x1,x+(long)y2,y+(long)x2,Flags,Client,clip);

	mov	edx, DWORD PTR _clip$[ebp]
	push	edx
	mov	eax, DWORD PTR _Client$[ebp]
	push	eax
	mov	ecx, DWORD PTR _Flags$[ebp]
	push	ecx
	cvttss2si edx, DWORD PTR _x2$[ebp]
	add	edx, DWORD PTR _y$[ebp]
	push	edx
	cvttss2si eax, DWORD PTR _y2$[ebp]
	add	eax, DWORD PTR _x$[ebp]
	push	eax
	cvttss2si ecx, DWORD PTR _x1$[ebp]
	add	ecx, DWORD PTR _y$[ebp]
	push	ecx
	cvttss2si edx, DWORD PTR _y1$[ebp]
	add	edx, DWORD PTR _x$[ebp]
	push	edx
	mov	eax, DWORD PTR _color$[ebp]
	push	eax
	mov	ecx, DWORD PTR _surface$[ebp]
	push	ecx
	mov	ecx, DWORD PTR _this$[ebp]
	call	?DrawLine@C_Window@@QAEXPAVSCREEN@@KJJJJJJPAUUI95_RECT@@@Z ; C_Window::DrawLine

; 2301 : 					break;

	jmp	$LN9@DrawArc
$LN5@DrawArc:

; 2302 : 				case 3:
; 2303 : 					DrawLine(surface,color,x+(long)x1,y+(long)y1,x+(long)x2,y+(long)y2,Flags,Client,clip);

	mov	edx, DWORD PTR _clip$[ebp]
	push	edx
	mov	eax, DWORD PTR _Client$[ebp]
	push	eax
	mov	ecx, DWORD PTR _Flags$[ebp]
	push	ecx
	cvttss2si edx, DWORD PTR _y2$[ebp]
	add	edx, DWORD PTR _y$[ebp]
	push	edx
	cvttss2si eax, DWORD PTR _x2$[ebp]
	add	eax, DWORD PTR _x$[ebp]
	push	eax
	cvttss2si ecx, DWORD PTR _y1$[ebp]
	add	ecx, DWORD PTR _y$[ebp]
	push	ecx
	cvttss2si edx, DWORD PTR _x1$[ebp]
	add	edx, DWORD PTR _x$[ebp]
	push	edx
	mov	eax, DWORD PTR _color$[ebp]
	push	eax
	mov	ecx, DWORD PTR _surface$[ebp]
	push	ecx
	mov	ecx, DWORD PTR _this$[ebp]
	call	?DrawLine@C_Window@@QAEXPAVSCREEN@@KJJJJJJPAUUI95_RECT@@@Z ; C_Window::DrawLine

; 2304 : 					break;

	jmp	$LN9@DrawArc
$LN4@DrawArc:

; 2305 : 				case 4:
; 2306 : 					DrawLine(surface,color,x-(long)x1,y+(long)y1,x-(long)x2,y+(long)y2,Flags,Client,clip);

	mov	edx, DWORD PTR _clip$[ebp]
	push	edx
	mov	eax, DWORD PTR _Client$[ebp]
	push	eax
	mov	ecx, DWORD PTR _Flags$[ebp]
	push	ecx
	cvttss2si edx, DWORD PTR _y2$[ebp]
	add	edx, DWORD PTR _y$[ebp]
	push	edx
	cvttss2si eax, DWORD PTR _x2$[ebp]
	mov	ecx, DWORD PTR _x$[ebp]
	sub	ecx, eax
	push	ecx
	cvttss2si edx, DWORD PTR _y1$[ebp]
	add	edx, DWORD PTR _y$[ebp]
	push	edx
	cvttss2si eax, DWORD PTR _x1$[ebp]
	mov	ecx, DWORD PTR _x$[ebp]
	sub	ecx, eax
	push	ecx
	mov	edx, DWORD PTR _color$[ebp]
	push	edx
	mov	eax, DWORD PTR _surface$[ebp]
	push	eax
	mov	ecx, DWORD PTR _this$[ebp]
	call	?DrawLine@C_Window@@QAEXPAVSCREEN@@KJJJJJJPAUUI95_RECT@@@Z ; C_Window::DrawLine

; 2307 : 					break;

	jmp	$LN9@DrawArc
$LN3@DrawArc:

; 2308 : 				case 5:
; 2309 : 					DrawLine(surface,color,x-(long)y1,y+(long)x1,x-(long)y2,y+(long)x2,Flags,Client,clip);

	mov	ecx, DWORD PTR _clip$[ebp]
	push	ecx
	mov	edx, DWORD PTR _Client$[ebp]
	push	edx
	mov	eax, DWORD PTR _Flags$[ebp]
	push	eax
	cvttss2si ecx, DWORD PTR _x2$[ebp]
	add	ecx, DWORD PTR _y$[ebp]
	push	ecx
	cvttss2si edx, DWORD PTR _y2$[ebp]
	mov	eax, DWORD PTR _x$[ebp]
	sub	eax, edx
	push	eax
	cvttss2si ecx, DWORD PTR _x1$[ebp]
	add	ecx, DWORD PTR _y$[ebp]
	push	ecx
	cvttss2si edx, DWORD PTR _y1$[ebp]
	mov	eax, DWORD PTR _x$[ebp]
	sub	eax, edx
	push	eax
	mov	ecx, DWORD PTR _color$[ebp]
	push	ecx
	mov	edx, DWORD PTR _surface$[ebp]
	push	edx
	mov	ecx, DWORD PTR _this$[ebp]
	call	?DrawLine@C_Window@@QAEXPAVSCREEN@@KJJJJJJPAUUI95_RECT@@@Z ; C_Window::DrawLine

; 2310 : 					break;

	jmp	$LN9@DrawArc
$LN2@DrawArc:

; 2311 : 				case 6:
; 2312 : 					DrawLine(surface,color,x-(long)y1,y-(long)x1,x-(long)y2,y-(long)x2,Flags,Client,clip);

	mov	eax, DWORD PTR _clip$[ebp]
	push	eax
	mov	ecx, DWORD PTR _Client$[ebp]
	push	ecx
	mov	edx, DWORD PTR _Flags$[ebp]
	push	edx
	cvttss2si eax, DWORD PTR _x2$[ebp]
	mov	ecx, DWORD PTR _y$[ebp]
	sub	ecx, eax
	push	ecx
	cvttss2si edx, DWORD PTR _y2$[ebp]
	mov	eax, DWORD PTR _x$[ebp]
	sub	eax, edx
	push	eax
	cvttss2si ecx, DWORD PTR _x1$[ebp]
	mov	edx, DWORD PTR _y$[ebp]
	sub	edx, ecx
	push	edx
	cvttss2si eax, DWORD PTR _y1$[ebp]
	mov	ecx, DWORD PTR _x$[ebp]
	sub	ecx, eax
	push	ecx
	mov	edx, DWORD PTR _color$[ebp]
	push	edx
	mov	eax, DWORD PTR _surface$[ebp]
	push	eax
	mov	ecx, DWORD PTR _this$[ebp]
	call	?DrawLine@C_Window@@QAEXPAVSCREEN@@KJJJJJJPAUUI95_RECT@@@Z ; C_Window::DrawLine

; 2313 : 					break;

	jmp	SHORT $LN9@DrawArc
$LN1@DrawArc:

; 2314 : 				case 7:
; 2315 : 					DrawLine(surface,color,x-(long)x1,y-(long)y1,x-(long)x2,y-(long)y2,Flags,Client,clip);

	mov	ecx, DWORD PTR _clip$[ebp]
	push	ecx
	mov	edx, DWORD PTR _Client$[ebp]
	push	edx
	mov	eax, DWORD PTR _Flags$[ebp]
	push	eax
	cvttss2si ecx, DWORD PTR _y2$[ebp]
	mov	edx, DWORD PTR _y$[ebp]
	sub	edx, ecx
	push	edx
	cvttss2si eax, DWORD PTR _x2$[ebp]
	mov	ecx, DWORD PTR _x$[ebp]
	sub	ecx, eax
	push	ecx
	cvttss2si edx, DWORD PTR _y1$[ebp]
	mov	eax, DWORD PTR _y$[ebp]
	sub	eax, edx
	push	eax
	cvttss2si ecx, DWORD PTR _x1$[ebp]
	mov	edx, DWORD PTR _x$[ebp]
	sub	edx, ecx
	push	edx
	mov	eax, DWORD PTR _color$[ebp]
	push	eax
	mov	ecx, DWORD PTR _surface$[ebp]
	push	ecx
	mov	ecx, DWORD PTR _this$[ebp]
	call	?DrawLine@C_Window@@QAEXPAVSCREEN@@KJJJJJJPAUUI95_RECT@@@Z ; C_Window::DrawLine
$LN9@DrawArc:

; 2316 : 					break;
; 2317 : 			}
; 2318 : 
; 2319 : 			x1=x2;

	movss	xmm0, DWORD PTR _x2$[ebp]
	movss	DWORD PTR _x1$[ebp], xmm0

; 2320 : 			y1=y2;

	movss	xmm0, DWORD PTR _y2$[ebp]
	movss	DWORD PTR _y1$[ebp], xmm0

; 2321 : 		}

	jmp	$LN12@DrawArc
$LN11@DrawArc:

; 2322 : 	}

	jmp	$LN15@DrawArc
$LN14@DrawArc:

; 2323 : }

	mov	esp, ebp
	pop	ebp
	ret	36					; 00000024H
	npad	3
$LN19@DrawArc:
	DD	$LN8@DrawArc
	DD	$LN7@DrawArc
	DD	$LN6@DrawArc
	DD	$LN5@DrawArc
	DD	$LN4@DrawArc
	DD	$LN3@DrawArc
	DD	$LN2@DrawArc
	DD	$LN1@DrawArc
?DrawArc@C_Window@@QAEXPAVSCREEN@@KJJMFJJPAUUI95_RECT@@@Z ENDP ; C_Window::DrawArc
_TEXT	ENDS
; Function compile flags: /Odtp
; File c:\users\zhitao li\documents\visual studio 2012\projects\freefalcon\ui95\cwindow.cpp
_TEXT	SEGMENT
_i$ = -52						; size = 2
_y1$ = -48						; size = 4
_j$ = -44						; size = 2
_x1$ = -40						; size = 4
_y2$ = -36						; size = 4
_x2$ = -32						; size = 4
_linecolor$ = -28					; size = 2
_this$ = -24						; size = 4
_clipper$ = -20						; size = 16
__$ArrayPad$ = -4					; size = 4
_surface$ = 8						; size = 4
_color$ = 12						; size = 4
_x$ = 16						; size = 4
_y$ = 20						; size = 4
_radius$ = 24						; size = 4
_Flags$ = 28						; size = 4
_Client$ = 32						; size = 4
_clip$ = 36						; size = 4
?DrawCircle@C_Window@@QAEXPAVSCREEN@@KJJMJJPAUUI95_RECT@@@Z PROC ; C_Window::DrawCircle
; _this$ = ecx

; 2216 : {

	push	ebp
	mov	ebp, esp
	sub	esp, 52					; 00000034H
	mov	eax, DWORD PTR ___security_cookie
	xor	eax, ebp
	mov	DWORD PTR __$ArrayPad$[ebp], eax
	mov	DWORD PTR _this$[ebp], ecx

; 2217 : 	short i,j;
; 2218 : 	long x1,y1,x2,y2;
; 2219 : 	WORD linecolor;
; 2220 : 	UI95_RECT clipper;
; 2221 : 
; 2222 : 	clipper=*clip;

	mov	eax, DWORD PTR _clip$[ebp]
	mov	ecx, DWORD PTR [eax]
	mov	DWORD PTR _clipper$[ebp], ecx
	mov	edx, DWORD PTR [eax+4]
	mov	DWORD PTR _clipper$[ebp+4], edx
	mov	ecx, DWORD PTR [eax+8]
	mov	DWORD PTR _clipper$[ebp+8], ecx
	mov	edx, DWORD PTR [eax+12]
	mov	DWORD PTR _clipper$[ebp+12], edx

; 2223 : 
; 2224 : 	if(!(Flags & C_BIT_ABSOLUTE))

	mov	eax, DWORD PTR _Flags$[ebp]
	and	eax, 262144				; 00040000H
	jne	$LN8@DrawCircle

; 2225 : 	{
; 2226 : 		x+=VX_[Client];

	mov	ecx, DWORD PTR _Client$[ebp]
	mov	edx, DWORD PTR _this$[ebp]
	mov	eax, DWORD PTR _x$[ebp]
	add	eax, DWORD PTR [edx+ecx*4+480]
	mov	DWORD PTR _x$[ebp], eax

; 2227 : 		y+=VY_[Client];

	mov	ecx, DWORD PTR _Client$[ebp]
	mov	edx, DWORD PTR _this$[ebp]
	mov	eax, DWORD PTR _y$[ebp]
	add	eax, DWORD PTR [edx+ecx*4+512]
	mov	DWORD PTR _y$[ebp], eax

; 2228 : 		if(clipper.left < ClientArea_[Client].left) clipper.left=ClientArea_[Client].left;

	mov	ecx, DWORD PTR _Client$[ebp]
	shl	ecx, 4
	mov	edx, DWORD PTR _this$[ebp]
	mov	eax, DWORD PTR _clipper$[ebp]
	cmp	eax, DWORD PTR [edx+ecx+168]
	jge	SHORT $LN11@DrawCircle
	mov	ecx, DWORD PTR _Client$[ebp]
	shl	ecx, 4
	mov	edx, DWORD PTR _this$[ebp]
	mov	eax, DWORD PTR [edx+ecx+168]
	mov	DWORD PTR _clipper$[ebp], eax
$LN11@DrawCircle:

; 2229 : 		if(clipper.top < ClientArea_[Client].top) clipper.top=ClientArea_[Client].top;

	mov	ecx, DWORD PTR _Client$[ebp]
	shl	ecx, 4
	mov	edx, DWORD PTR _this$[ebp]
	mov	eax, DWORD PTR _clipper$[ebp+4]
	cmp	eax, DWORD PTR [edx+ecx+172]
	jge	SHORT $LN10@DrawCircle
	mov	ecx, DWORD PTR _Client$[ebp]
	shl	ecx, 4
	mov	edx, DWORD PTR _this$[ebp]
	mov	eax, DWORD PTR [edx+ecx+172]
	mov	DWORD PTR _clipper$[ebp+4], eax
$LN10@DrawCircle:

; 2230 : 		if(clipper.right > ClientArea_[Client].right) clipper.right=ClientArea_[Client].right;

	mov	ecx, DWORD PTR _Client$[ebp]
	shl	ecx, 4
	mov	edx, DWORD PTR _this$[ebp]
	mov	eax, DWORD PTR _clipper$[ebp+8]
	cmp	eax, DWORD PTR [edx+ecx+176]
	jle	SHORT $LN9@DrawCircle
	mov	ecx, DWORD PTR _Client$[ebp]
	shl	ecx, 4
	mov	edx, DWORD PTR _this$[ebp]
	mov	eax, DWORD PTR [edx+ecx+176]
	mov	DWORD PTR _clipper$[ebp+8], eax
$LN9@DrawCircle:

; 2231 : 		if(clipper.bottom > ClientArea_[Client].bottom) clipper.bottom=ClientArea_[Client].bottom;

	mov	ecx, DWORD PTR _Client$[ebp]
	shl	ecx, 4
	mov	edx, DWORD PTR _this$[ebp]
	mov	eax, DWORD PTR _clipper$[ebp+12]
	cmp	eax, DWORD PTR [edx+ecx+180]
	jle	SHORT $LN8@DrawCircle
	mov	ecx, DWORD PTR _Client$[ebp]
	shl	ecx, 4
	mov	edx, DWORD PTR _this$[ebp]
	mov	eax, DWORD PTR [edx+ecx+180]
	mov	DWORD PTR _clipper$[ebp+12], eax
$LN8@DrawCircle:

; 2232 : 	}
; 2233 : 	x1=x-(long)radius;

	cvttss2si ecx, DWORD PTR _radius$[ebp]
	mov	edx, DWORD PTR _x$[ebp]
	sub	edx, ecx
	mov	DWORD PTR _x1$[ebp], edx

; 2234 : 	y1=y-(long)radius;

	cvttss2si eax, DWORD PTR _radius$[ebp]
	mov	ecx, DWORD PTR _y$[ebp]
	sub	ecx, eax
	mov	DWORD PTR _y1$[ebp], ecx

; 2235 : 	x2=x+(long)radius;

	cvttss2si edx, DWORD PTR _radius$[ebp]
	add	edx, DWORD PTR _x$[ebp]
	mov	DWORD PTR _x2$[ebp], edx

; 2236 : 	y2=y+(long)radius;

	cvttss2si eax, DWORD PTR _radius$[ebp]
	add	eax, DWORD PTR _y$[ebp]
	mov	DWORD PTR _y2$[ebp], eax

; 2237 : 
; 2238 : 	if(!CheckLine(x1,y1,x2,y2,clipper.left,clipper.top,clipper.right,clipper.bottom))

	mov	ecx, DWORD PTR _clipper$[ebp+12]
	push	ecx
	mov	edx, DWORD PTR _clipper$[ebp+8]
	push	edx
	mov	eax, DWORD PTR _clipper$[ebp+4]
	push	eax
	mov	ecx, DWORD PTR _clipper$[ebp]
	push	ecx
	mov	edx, DWORD PTR _y2$[ebp]
	push	edx
	mov	eax, DWORD PTR _x2$[ebp]
	push	eax
	mov	ecx, DWORD PTR _y1$[ebp]
	push	ecx
	mov	edx, DWORD PTR _x1$[ebp]
	push	edx
	mov	ecx, DWORD PTR _this$[ebp]
	call	?CheckLine@C_Window@@QAEHJJJJJJJJ@Z	; C_Window::CheckLine
	test	eax, eax
	jne	SHORT $LN7@DrawCircle

; 2239 : 		return;

	jmp	$LN13@DrawCircle
$LN7@DrawCircle:

; 2240 : 
; 2241 : 	x+=GetX();

	mov	ecx, DWORD PTR _this$[ebp]
	call	?GetX@C_Window@@QAEFXZ			; C_Window::GetX
	cwde
	add	eax, DWORD PTR _x$[ebp]
	mov	DWORD PTR _x$[ebp], eax

; 2242 : 	y+=GetY();

	mov	ecx, DWORD PTR _this$[ebp]
	call	?GetY@C_Window@@QAEFXZ			; C_Window::GetY
	movsx	ecx, ax
	add	ecx, DWORD PTR _y$[ebp]
	mov	DWORD PTR _y$[ebp], ecx

; 2243 : 	clipper.left+=GetX();

	mov	ecx, DWORD PTR _this$[ebp]
	call	?GetX@C_Window@@QAEFXZ			; C_Window::GetX
	movsx	edx, ax
	add	edx, DWORD PTR _clipper$[ebp]
	mov	DWORD PTR _clipper$[ebp], edx

; 2244 : 	clipper.top+=GetY();

	mov	ecx, DWORD PTR _this$[ebp]
	call	?GetY@C_Window@@QAEFXZ			; C_Window::GetY
	cwde
	add	eax, DWORD PTR _clipper$[ebp+4]
	mov	DWORD PTR _clipper$[ebp+4], eax

; 2245 : 	clipper.right+=GetX();

	mov	ecx, DWORD PTR _this$[ebp]
	call	?GetX@C_Window@@QAEFXZ			; C_Window::GetX
	movsx	ecx, ax
	add	ecx, DWORD PTR _clipper$[ebp+8]
	mov	DWORD PTR _clipper$[ebp+8], ecx

; 2246 : 	clipper.bottom+=GetY();

	mov	ecx, DWORD PTR _this$[ebp]
	call	?GetY@C_Window@@QAEFXZ			; C_Window::GetY
	movsx	edx, ax
	add	edx, DWORD PTR _clipper$[ebp+12]
	mov	DWORD PTR _clipper$[ebp+12], edx

; 2247 : 
; 2248 : 	linecolor=(WORD)UI95_RGB24Bit(color);

	mov	eax, DWORD PTR _color$[ebp]
	push	eax
	call	?UI95_RGB24Bit@@YAGK@Z			; UI95_RGB24Bit
	add	esp, 4
	mov	WORD PTR _linecolor$[ebp], ax

; 2249 : 
; 2250 : 	for(i=0;i<8;i++)

	xor	ecx, ecx
	mov	WORD PTR _i$[ebp], cx
	jmp	SHORT $LN6@DrawCircle
$LN5@DrawCircle:
	mov	dx, WORD PTR _i$[ebp]
	add	dx, 1
	mov	WORD PTR _i$[ebp], dx
$LN6@DrawCircle:
	movsx	eax, WORD PTR _i$[ebp]
	cmp	eax, 8
	jge	$LN4@DrawCircle

; 2251 : 	{
; 2252 : 		x1=(long)(Circle8[0][0]*radius);

	mov	ecx, 8
	imul	ecx, 0
	mov	edx, 4
	imul	edx, 0
	movss	xmm0, DWORD PTR ?Circle8@@3PAY01MA[ecx+edx]
	mulss	xmm0, DWORD PTR _radius$[ebp]
	cvttss2si eax, xmm0
	mov	DWORD PTR _x1$[ebp], eax

; 2253 : 		y1=(long)(Circle8[0][1]*radius);

	mov	ecx, 8
	imul	ecx, 0
	mov	edx, 4
	shl	edx, 0
	movss	xmm0, DWORD PTR ?Circle8@@3PAY01MA[ecx+edx]
	mulss	xmm0, DWORD PTR _radius$[ebp]
	cvttss2si eax, xmm0
	mov	DWORD PTR _y1$[ebp], eax

; 2254 : 
; 2255 : 		for(j=1;j<CIRCLE_POINTS;j++)

	mov	ecx, 1
	mov	WORD PTR _j$[ebp], cx
	jmp	SHORT $LN3@DrawCircle
$LN2@DrawCircle:
	mov	dx, WORD PTR _j$[ebp]
	add	dx, 1
	mov	WORD PTR _j$[ebp], dx
$LN3@DrawCircle:
	movsx	eax, WORD PTR _j$[ebp]
	cmp	eax, 5
	jge	$LN1@DrawCircle

; 2256 : 		{
; 2257 : 			x2=(long)(Circle8[j][0]*radius);

	movsx	ecx, WORD PTR _j$[ebp]
	mov	edx, 4
	imul	edx, 0
	movss	xmm0, DWORD PTR ?Circle8@@3PAY01MA[edx+ecx*8]
	mulss	xmm0, DWORD PTR _radius$[ebp]
	cvttss2si eax, xmm0
	mov	DWORD PTR _x2$[ebp], eax

; 2258 : 			y2=(long)(Circle8[j][1]*radius);

	movsx	ecx, WORD PTR _j$[ebp]
	mov	edx, 4
	shl	edx, 0
	movss	xmm0, DWORD PTR ?Circle8@@3PAY01MA[edx+ecx*8]
	mulss	xmm0, DWORD PTR _radius$[ebp]
	cvttss2si eax, xmm0
	mov	DWORD PTR _y2$[ebp], eax

; 2259 : 
; 2260 : 			DrawClipLine(surface,x+x1,y+y1,x+x2,y+y2,&clipper,linecolor);

	movzx	ecx, WORD PTR _linecolor$[ebp]
	push	ecx
	lea	edx, DWORD PTR _clipper$[ebp]
	push	edx
	mov	eax, DWORD PTR _y$[ebp]
	add	eax, DWORD PTR _y2$[ebp]
	push	eax
	mov	ecx, DWORD PTR _x$[ebp]
	add	ecx, DWORD PTR _x2$[ebp]
	push	ecx
	mov	edx, DWORD PTR _y$[ebp]
	add	edx, DWORD PTR _y1$[ebp]
	push	edx
	mov	eax, DWORD PTR _x$[ebp]
	add	eax, DWORD PTR _x1$[ebp]
	push	eax
	mov	ecx, DWORD PTR _surface$[ebp]
	push	ecx
	mov	ecx, DWORD PTR _this$[ebp]
	call	?DrawClipLine@C_Window@@QAEXPAVSCREEN@@JJJJPAUUI95_RECT@@G@Z ; C_Window::DrawClipLine

; 2261 : 			DrawClipLine(surface,x-x1,y+y1,x-x2,y+y2,&clipper,linecolor);

	movzx	edx, WORD PTR _linecolor$[ebp]
	push	edx
	lea	eax, DWORD PTR _clipper$[ebp]
	push	eax
	mov	ecx, DWORD PTR _y$[ebp]
	add	ecx, DWORD PTR _y2$[ebp]
	push	ecx
	mov	edx, DWORD PTR _x$[ebp]
	sub	edx, DWORD PTR _x2$[ebp]
	push	edx
	mov	eax, DWORD PTR _y$[ebp]
	add	eax, DWORD PTR _y1$[ebp]
	push	eax
	mov	ecx, DWORD PTR _x$[ebp]
	sub	ecx, DWORD PTR _x1$[ebp]
	push	ecx
	mov	edx, DWORD PTR _surface$[ebp]
	push	edx
	mov	ecx, DWORD PTR _this$[ebp]
	call	?DrawClipLine@C_Window@@QAEXPAVSCREEN@@JJJJPAUUI95_RECT@@G@Z ; C_Window::DrawClipLine

; 2262 : 			DrawClipLine(surface,x+x1,y-y1,x+x2,y-y2,&clipper,linecolor);

	movzx	eax, WORD PTR _linecolor$[ebp]
	push	eax
	lea	ecx, DWORD PTR _clipper$[ebp]
	push	ecx
	mov	edx, DWORD PTR _y$[ebp]
	sub	edx, DWORD PTR _y2$[ebp]
	push	edx
	mov	eax, DWORD PTR _x$[ebp]
	add	eax, DWORD PTR _x2$[ebp]
	push	eax
	mov	ecx, DWORD PTR _y$[ebp]
	sub	ecx, DWORD PTR _y1$[ebp]
	push	ecx
	mov	edx, DWORD PTR _x$[ebp]
	add	edx, DWORD PTR _x1$[ebp]
	push	edx
	mov	eax, DWORD PTR _surface$[ebp]
	push	eax
	mov	ecx, DWORD PTR _this$[ebp]
	call	?DrawClipLine@C_Window@@QAEXPAVSCREEN@@JJJJPAUUI95_RECT@@G@Z ; C_Window::DrawClipLine

; 2263 : 			DrawClipLine(surface,x-x1,y-y1,x-x2,y-y2,&clipper,linecolor);

	movzx	ecx, WORD PTR _linecolor$[ebp]
	push	ecx
	lea	edx, DWORD PTR _clipper$[ebp]
	push	edx
	mov	eax, DWORD PTR _y$[ebp]
	sub	eax, DWORD PTR _y2$[ebp]
	push	eax
	mov	ecx, DWORD PTR _x$[ebp]
	sub	ecx, DWORD PTR _x2$[ebp]
	push	ecx
	mov	edx, DWORD PTR _y$[ebp]
	sub	edx, DWORD PTR _y1$[ebp]
	push	edx
	mov	eax, DWORD PTR _x$[ebp]
	sub	eax, DWORD PTR _x1$[ebp]
	push	eax
	mov	ecx, DWORD PTR _surface$[ebp]
	push	ecx
	mov	ecx, DWORD PTR _this$[ebp]
	call	?DrawClipLine@C_Window@@QAEXPAVSCREEN@@JJJJPAUUI95_RECT@@G@Z ; C_Window::DrawClipLine

; 2264 : 
; 2265 : 			DrawClipLine(surface,x+y1,y+x1,x+y2,y+x2,&clipper,linecolor);

	movzx	edx, WORD PTR _linecolor$[ebp]
	push	edx
	lea	eax, DWORD PTR _clipper$[ebp]
	push	eax
	mov	ecx, DWORD PTR _y$[ebp]
	add	ecx, DWORD PTR _x2$[ebp]
	push	ecx
	mov	edx, DWORD PTR _x$[ebp]
	add	edx, DWORD PTR _y2$[ebp]
	push	edx
	mov	eax, DWORD PTR _y$[ebp]
	add	eax, DWORD PTR _x1$[ebp]
	push	eax
	mov	ecx, DWORD PTR _x$[ebp]
	add	ecx, DWORD PTR _y1$[ebp]
	push	ecx
	mov	edx, DWORD PTR _surface$[ebp]
	push	edx
	mov	ecx, DWORD PTR _this$[ebp]
	call	?DrawClipLine@C_Window@@QAEXPAVSCREEN@@JJJJPAUUI95_RECT@@G@Z ; C_Window::DrawClipLine

; 2266 : 			DrawClipLine(surface,x-y1,y+x1,x-y2,y+x2,&clipper,linecolor);

	movzx	eax, WORD PTR _linecolor$[ebp]
	push	eax
	lea	ecx, DWORD PTR _clipper$[ebp]
	push	ecx
	mov	edx, DWORD PTR _y$[ebp]
	add	edx, DWORD PTR _x2$[ebp]
	push	edx
	mov	eax, DWORD PTR _x$[ebp]
	sub	eax, DWORD PTR _y2$[ebp]
	push	eax
	mov	ecx, DWORD PTR _y$[ebp]
	add	ecx, DWORD PTR _x1$[ebp]
	push	ecx
	mov	edx, DWORD PTR _x$[ebp]
	sub	edx, DWORD PTR _y1$[ebp]
	push	edx
	mov	eax, DWORD PTR _surface$[ebp]
	push	eax
	mov	ecx, DWORD PTR _this$[ebp]
	call	?DrawClipLine@C_Window@@QAEXPAVSCREEN@@JJJJPAUUI95_RECT@@G@Z ; C_Window::DrawClipLine

; 2267 : 			DrawClipLine(surface,x+y1,y-x1,x+y2,y-x2,&clipper,linecolor);

	movzx	ecx, WORD PTR _linecolor$[ebp]
	push	ecx
	lea	edx, DWORD PTR _clipper$[ebp]
	push	edx
	mov	eax, DWORD PTR _y$[ebp]
	sub	eax, DWORD PTR _x2$[ebp]
	push	eax
	mov	ecx, DWORD PTR _x$[ebp]
	add	ecx, DWORD PTR _y2$[ebp]
	push	ecx
	mov	edx, DWORD PTR _y$[ebp]
	sub	edx, DWORD PTR _x1$[ebp]
	push	edx
	mov	eax, DWORD PTR _x$[ebp]
	add	eax, DWORD PTR _y1$[ebp]
	push	eax
	mov	ecx, DWORD PTR _surface$[ebp]
	push	ecx
	mov	ecx, DWORD PTR _this$[ebp]
	call	?DrawClipLine@C_Window@@QAEXPAVSCREEN@@JJJJPAUUI95_RECT@@G@Z ; C_Window::DrawClipLine

; 2268 : 			DrawClipLine(surface,x-y1,y-x1,x-y2,y-x2,&clipper,linecolor);

	movzx	edx, WORD PTR _linecolor$[ebp]
	push	edx
	lea	eax, DWORD PTR _clipper$[ebp]
	push	eax
	mov	ecx, DWORD PTR _y$[ebp]
	sub	ecx, DWORD PTR _x2$[ebp]
	push	ecx
	mov	edx, DWORD PTR _x$[ebp]
	sub	edx, DWORD PTR _y2$[ebp]
	push	edx
	mov	eax, DWORD PTR _y$[ebp]
	sub	eax, DWORD PTR _x1$[ebp]
	push	eax
	mov	ecx, DWORD PTR _x$[ebp]
	sub	ecx, DWORD PTR _y1$[ebp]
	push	ecx
	mov	edx, DWORD PTR _surface$[ebp]
	push	edx
	mov	ecx, DWORD PTR _this$[ebp]
	call	?DrawClipLine@C_Window@@QAEXPAVSCREEN@@JJJJPAUUI95_RECT@@G@Z ; C_Window::DrawClipLine

; 2269 : 
; 2270 : 			x1=x2;

	mov	eax, DWORD PTR _x2$[ebp]
	mov	DWORD PTR _x1$[ebp], eax

; 2271 : 			y1=y2;

	mov	ecx, DWORD PTR _y2$[ebp]
	mov	DWORD PTR _y1$[ebp], ecx

; 2272 : 		}

	jmp	$LN2@DrawCircle
$LN1@DrawCircle:

; 2273 : 	}

	jmp	$LN5@DrawCircle
$LN4@DrawCircle:
$LN13@DrawCircle:

; 2274 : }

	mov	ecx, DWORD PTR __$ArrayPad$[ebp]
	xor	ecx, ebp
	call	@__security_check_cookie@4
	mov	esp, ebp
	pop	ebp
	ret	32					; 00000020H
?DrawCircle@C_Window@@QAEXPAVSCREEN@@KJJMJJPAUUI95_RECT@@@Z ENDP ; C_Window::DrawCircle
_TEXT	ENDS
; Function compile flags: /Odtp
; File c:\users\zhitao li\documents\visual studio 2012\projects\freefalcon\ui95\cwindow.cpp
_TEXT	SEGMENT
_this$ = -40						; size = 4
_y_dir$ = -36						; size = 4
_y_unit$ = -32						; size = 4
_length$ = -28						; size = 4
_x_unit$ = -24						; size = 4
_ydiff$ = -20						; size = 4
_i$ = -16						; size = 4
_xdiff$ = -12						; size = 4
_error_term$ = -8					; size = 4
_offset$ = -4						; size = 4
_surface$ = 8						; size = 4
_x1$ = 12						; size = 4
_y1$ = 16						; size = 4
_x2$ = 20						; size = 4
_y2$ = 24						; size = 4
_clip$ = 28						; size = 4
_color$ = 32						; size = 2
?DrawClipLine@C_Window@@QAEXPAVSCREEN@@JJJJPAUUI95_RECT@@G@Z PROC ; C_Window::DrawClipLine
; _this$ = ecx

; 2134 : {

	push	ebp
	mov	ebp, esp
	sub	esp, 40					; 00000028H
	mov	DWORD PTR _this$[ebp], ecx

; 2135 : 	long x_unit,y_unit;
; 2136 : 	long offset,y_dir;
; 2137 : 	long xdiff,ydiff;
; 2138 : 	long error_term;
; 2139 : 	long length,i;
; 2140 : 
; 2141 : 	if(!ClipLine(&x1,&y1,&x2,&y2,clip))

	mov	eax, DWORD PTR _clip$[ebp]
	push	eax
	lea	ecx, DWORD PTR _y2$[ebp]
	push	ecx
	lea	edx, DWORD PTR _x2$[ebp]
	push	edx
	lea	eax, DWORD PTR _y1$[ebp]
	push	eax
	lea	ecx, DWORD PTR _x1$[ebp]
	push	ecx
	mov	ecx, DWORD PTR _this$[ebp]
	call	?ClipLine@C_Window@@QAEHPAJ000PAUUI95_RECT@@@Z ; C_Window::ClipLine
	test	eax, eax
	jne	SHORT $LN20@DrawClipLi

; 2142 : 		if(!ClipLine(&x1,&y1,&x2,&y2,clip))

	mov	edx, DWORD PTR _clip$[ebp]
	push	edx
	lea	eax, DWORD PTR _y2$[ebp]
	push	eax
	lea	ecx, DWORD PTR _x2$[ebp]
	push	ecx
	lea	edx, DWORD PTR _y1$[ebp]
	push	edx
	lea	eax, DWORD PTR _x1$[ebp]
	push	eax
	mov	ecx, DWORD PTR _this$[ebp]
	call	?ClipLine@C_Window@@QAEHPAJ000PAUUI95_RECT@@@Z ; C_Window::ClipLine
	test	eax, eax
	jne	SHORT $LN20@DrawClipLi

; 2143 : 			return;

	jmp	$LN21@DrawClipLi
$LN20@DrawClipLi:

; 2144 : 
; 2145 : 	ydiff=y2-y1;

	mov	ecx, DWORD PTR _y2$[ebp]
	sub	ecx, DWORD PTR _y1$[ebp]
	mov	DWORD PTR _ydiff$[ebp], ecx

; 2146 : 	if(ydiff < 0)

	jns	SHORT $LN18@DrawClipLi

; 2147 : 	{
; 2148 : 		ydiff=-ydiff;

	mov	edx, DWORD PTR _ydiff$[ebp]
	neg	edx
	mov	DWORD PTR _ydiff$[ebp], edx

; 2149 : 		y_unit=-surface->width;

	mov	eax, DWORD PTR _surface$[ebp]
	movsx	ecx, WORD PTR [eax+4]
	neg	ecx
	mov	DWORD PTR _y_unit$[ebp], ecx

; 2150 : 		y_dir=-1;

	mov	DWORD PTR _y_dir$[ebp], -1

; 2151 : 	}
; 2152 : 	else

	jmp	SHORT $LN17@DrawClipLi
$LN18@DrawClipLi:

; 2153 : 	{
; 2154 : 		y_unit=surface->width;

	mov	edx, DWORD PTR _surface$[ebp]
	movsx	eax, WORD PTR [edx+4]
	mov	DWORD PTR _y_unit$[ebp], eax

; 2155 : 		y_dir=1;

	mov	DWORD PTR _y_dir$[ebp], 1
$LN17@DrawClipLi:

; 2156 : 	}
; 2157 : 
; 2158 : 	xdiff=x2-x1;

	mov	ecx, DWORD PTR _x2$[ebp]
	sub	ecx, DWORD PTR _x1$[ebp]
	mov	DWORD PTR _xdiff$[ebp], ecx

; 2159 : 	if(xdiff < 0)

	jns	SHORT $LN16@DrawClipLi

; 2160 : 	{
; 2161 : 		xdiff=-xdiff;

	mov	edx, DWORD PTR _xdiff$[ebp]
	neg	edx
	mov	DWORD PTR _xdiff$[ebp], edx

; 2162 : 		x_unit=-1;

	mov	DWORD PTR _x_unit$[ebp], -1

; 2163 : 	}
; 2164 : 	else

	jmp	SHORT $LN15@DrawClipLi
$LN16@DrawClipLi:

; 2165 : 		x_unit=1;

	mov	DWORD PTR _x_unit$[ebp], 1
$LN15@DrawClipLi:

; 2166 : 
; 2167 : 	offset=y1*surface->width+x1;

	mov	eax, DWORD PTR _surface$[ebp]
	movsx	ecx, WORD PTR [eax+4]
	imul	ecx, DWORD PTR _y1$[ebp]
	add	ecx, DWORD PTR _x1$[ebp]
	mov	DWORD PTR _offset$[ebp], ecx

; 2168 : 	error_term=0;

	mov	DWORD PTR _error_term$[ebp], 0

; 2169 : 
; 2170 : 	if(xdiff > ydiff)

	mov	edx, DWORD PTR _xdiff$[ebp]
	cmp	edx, DWORD PTR _ydiff$[ebp]
	jle	$LN14@DrawClipLi

; 2171 : 	{
; 2172 : 		length=xdiff+1;

	mov	eax, DWORD PTR _xdiff$[ebp]
	add	eax, 1
	mov	DWORD PTR _length$[ebp], eax

; 2173 : 		for(i=0;i<length;i++)

	mov	DWORD PTR _i$[ebp], 0
	jmp	SHORT $LN13@DrawClipLi
$LN12@DrawClipLi:
	mov	ecx, DWORD PTR _i$[ebp]
	add	ecx, 1
	mov	DWORD PTR _i$[ebp], ecx
$LN13@DrawClipLi:
	mov	edx, DWORD PTR _i$[ebp]
	cmp	edx, DWORD PTR _length$[ebp]
	jge	SHORT $LN11@DrawClipLi

; 2174 : 		{
; 2175 : 			if( surface->bpp == 32 )//XX

	mov	eax, DWORD PTR _surface$[ebp]
	movzx	ecx, BYTE PTR [eax+8]
	cmp	ecx, 32					; 00000020H
	jne	SHORT $LN10@DrawClipLi

; 2176 : 				((DWORD*)surface->mem)[offset] = RGB565toRGB8( color );

	movzx	edx, WORD PTR _color$[ebp]
	push	edx
	call	?RGB565toRGB8@@YAKG@Z			; RGB565toRGB8
	add	esp, 4
	mov	ecx, DWORD PTR _surface$[ebp]
	mov	edx, DWORD PTR [ecx]
	mov	ecx, DWORD PTR _offset$[ebp]
	mov	DWORD PTR [edx+ecx*4], eax

; 2177 : 			else

	jmp	SHORT $LN9@DrawClipLi
$LN10@DrawClipLi:

; 2178 : 			surface->mem[offset]=color;

	mov	edx, DWORD PTR _surface$[ebp]
	mov	eax, DWORD PTR [edx]
	mov	ecx, DWORD PTR _offset$[ebp]
	mov	dx, WORD PTR _color$[ebp]
	mov	WORD PTR [eax+ecx*2], dx
$LN9@DrawClipLi:

; 2179 : 
; 2180 : 			error_term+=ydiff;

	mov	eax, DWORD PTR _error_term$[ebp]
	add	eax, DWORD PTR _ydiff$[ebp]
	mov	DWORD PTR _error_term$[ebp], eax

; 2181 : 
; 2182 : 			offset+=x_unit;

	mov	ecx, DWORD PTR _offset$[ebp]
	add	ecx, DWORD PTR _x_unit$[ebp]
	mov	DWORD PTR _offset$[ebp], ecx

; 2183 : 			x1+=x_unit;

	mov	edx, DWORD PTR _x1$[ebp]
	add	edx, DWORD PTR _x_unit$[ebp]
	mov	DWORD PTR _x1$[ebp], edx

; 2184 : 			if(error_term > xdiff)

	mov	eax, DWORD PTR _error_term$[ebp]
	cmp	eax, DWORD PTR _xdiff$[ebp]
	jle	SHORT $LN8@DrawClipLi

; 2185 : 			{
; 2186 : 				error_term-=xdiff;

	mov	ecx, DWORD PTR _error_term$[ebp]
	sub	ecx, DWORD PTR _xdiff$[ebp]
	mov	DWORD PTR _error_term$[ebp], ecx

; 2187 : 				offset+=y_unit;

	mov	edx, DWORD PTR _offset$[ebp]
	add	edx, DWORD PTR _y_unit$[ebp]
	mov	DWORD PTR _offset$[ebp], edx

; 2188 : 				y1+=y_dir;

	mov	eax, DWORD PTR _y1$[ebp]
	add	eax, DWORD PTR _y_dir$[ebp]
	mov	DWORD PTR _y1$[ebp], eax
$LN8@DrawClipLi:

; 2189 : 			}
; 2190 : 		}

	jmp	$LN12@DrawClipLi
$LN11@DrawClipLi:

; 2191 : 	}
; 2192 : 	else

	jmp	$LN21@DrawClipLi
$LN14@DrawClipLi:

; 2193 : 	{
; 2194 : 		length=ydiff+1;

	mov	ecx, DWORD PTR _ydiff$[ebp]
	add	ecx, 1
	mov	DWORD PTR _length$[ebp], ecx

; 2195 : 		for(i=0;i<length;i++)

	mov	DWORD PTR _i$[ebp], 0
	jmp	SHORT $LN6@DrawClipLi
$LN5@DrawClipLi:
	mov	edx, DWORD PTR _i$[ebp]
	add	edx, 1
	mov	DWORD PTR _i$[ebp], edx
$LN6@DrawClipLi:
	mov	eax, DWORD PTR _i$[ebp]
	cmp	eax, DWORD PTR _length$[ebp]
	jge	SHORT $LN21@DrawClipLi

; 2196 : 		{
; 2197 : 			if( surface->bpp == 32 )//XX

	mov	ecx, DWORD PTR _surface$[ebp]
	movzx	edx, BYTE PTR [ecx+8]
	cmp	edx, 32					; 00000020H
	jne	SHORT $LN3@DrawClipLi

; 2198 : 				((DWORD*)surface->mem)[offset] = RGB565toRGB8( color );

	movzx	eax, WORD PTR _color$[ebp]
	push	eax
	call	?RGB565toRGB8@@YAKG@Z			; RGB565toRGB8
	add	esp, 4
	mov	ecx, DWORD PTR _surface$[ebp]
	mov	edx, DWORD PTR [ecx]
	mov	ecx, DWORD PTR _offset$[ebp]
	mov	DWORD PTR [edx+ecx*4], eax

; 2199 : 			else

	jmp	SHORT $LN2@DrawClipLi
$LN3@DrawClipLi:

; 2200 : 			surface->mem[offset]=color;

	mov	edx, DWORD PTR _surface$[ebp]
	mov	eax, DWORD PTR [edx]
	mov	ecx, DWORD PTR _offset$[ebp]
	mov	dx, WORD PTR _color$[ebp]
	mov	WORD PTR [eax+ecx*2], dx
$LN2@DrawClipLi:

; 2201 : 
; 2202 : 			error_term+=xdiff;

	mov	eax, DWORD PTR _error_term$[ebp]
	add	eax, DWORD PTR _xdiff$[ebp]
	mov	DWORD PTR _error_term$[ebp], eax

; 2203 : 			offset+=y_unit;

	mov	ecx, DWORD PTR _offset$[ebp]
	add	ecx, DWORD PTR _y_unit$[ebp]
	mov	DWORD PTR _offset$[ebp], ecx

; 2204 : 			y1+=y_dir;

	mov	edx, DWORD PTR _y1$[ebp]
	add	edx, DWORD PTR _y_dir$[ebp]
	mov	DWORD PTR _y1$[ebp], edx

; 2205 : 			if(error_term > 0)

	cmp	DWORD PTR _error_term$[ebp], 0
	jle	SHORT $LN1@DrawClipLi

; 2206 : 			{
; 2207 : 				error_term-=ydiff;

	mov	eax, DWORD PTR _error_term$[ebp]
	sub	eax, DWORD PTR _ydiff$[ebp]
	mov	DWORD PTR _error_term$[ebp], eax

; 2208 : 				offset+=x_unit;

	mov	ecx, DWORD PTR _offset$[ebp]
	add	ecx, DWORD PTR _x_unit$[ebp]
	mov	DWORD PTR _offset$[ebp], ecx

; 2209 : 				x1+=x_unit;

	mov	edx, DWORD PTR _x1$[ebp]
	add	edx, DWORD PTR _x_unit$[ebp]
	mov	DWORD PTR _x1$[ebp], edx
$LN1@DrawClipLi:

; 2210 : 			}
; 2211 : 		}

	jmp	$LN5@DrawClipLi
$LN21@DrawClipLi:

; 2212 : 	}
; 2213 : }

	mov	esp, ebp
	pop	ebp
	ret	28					; 0000001cH
?DrawClipLine@C_Window@@QAEXPAVSCREEN@@JJJJPAUUI95_RECT@@G@Z ENDP ; C_Window::DrawClipLine
_TEXT	ENDS
; Function compile flags: /Odtp
; File c:\users\zhitao li\documents\visual studio 2012\projects\freefalcon\ui95\cwindow.cpp
_TEXT	SEGMENT
_this$ = -16						; size = 4
_slope2$ = -12						; size = 4
_slope1$ = -8						; size = 4
_flag2$ = -2						; size = 1
_flag1$ = -1						; size = 1
_x1$ = 8						; size = 4
_y1$ = 12						; size = 4
_x2$ = 16						; size = 4
_y2$ = 20						; size = 4
_clip$ = 24						; size = 4
?ClipLine@C_Window@@QAEHPAJ000PAUUI95_RECT@@@Z PROC	; C_Window::ClipLine
; _this$ = ecx

; 1985 : {

	push	ebp
	mov	ebp, esp
	sub	esp, 16					; 00000010H
	mov	DWORD PTR _this$[ebp], ecx

; 1986 : 	char flag1,flag2;
; 1987 : 	float slope1=0.0,slope2=0.0;  //! 

	movss	xmm0, DWORD PTR __real@00000000
	movss	DWORD PTR _slope1$[ebp], xmm0
	movss	xmm0, DWORD PTR __real@00000000
	movss	DWORD PTR _slope2$[ebp], xmm0

; 1988 : 
; 1989 : 	flag1=0;

	mov	BYTE PTR _flag1$[ebp], 0

; 1990 : 	flag2=0;

	mov	BYTE PTR _flag2$[ebp], 0

; 1991 : 
; 1992 : 	if(*x1 < clip->left)

	mov	eax, DWORD PTR _x1$[ebp]
	mov	ecx, DWORD PTR _clip$[ebp]
	mov	edx, DWORD PTR [eax]
	cmp	edx, DWORD PTR [ecx]
	jge	SHORT $LN49@ClipLine

; 1993 : 		flag1 |= LINE_CLIP_LEFT;

	movsx	eax, BYTE PTR _flag1$[ebp]
	or	eax, 1
	mov	BYTE PTR _flag1$[ebp], al
$LN49@ClipLine:

; 1994 : 	if(*x2 < clip->left)

	mov	ecx, DWORD PTR _x2$[ebp]
	mov	edx, DWORD PTR _clip$[ebp]
	mov	eax, DWORD PTR [ecx]
	cmp	eax, DWORD PTR [edx]
	jge	SHORT $LN48@ClipLine

; 1995 : 		flag2 |= LINE_CLIP_LEFT;

	movsx	ecx, BYTE PTR _flag2$[ebp]
	or	ecx, 1
	mov	BYTE PTR _flag2$[ebp], cl
$LN48@ClipLine:

; 1996 : 
; 1997 : 	if(*y1 < clip->top)

	mov	edx, DWORD PTR _y1$[ebp]
	mov	eax, DWORD PTR _clip$[ebp]
	mov	ecx, DWORD PTR [edx]
	cmp	ecx, DWORD PTR [eax+4]
	jge	SHORT $LN47@ClipLine

; 1998 : 		flag1 |= LINE_CLIP_TOP;

	movsx	edx, BYTE PTR _flag1$[ebp]
	or	edx, 4
	mov	BYTE PTR _flag1$[ebp], dl
$LN47@ClipLine:

; 1999 : 	if(*y2 < clip->top)

	mov	eax, DWORD PTR _y2$[ebp]
	mov	ecx, DWORD PTR _clip$[ebp]
	mov	edx, DWORD PTR [eax]
	cmp	edx, DWORD PTR [ecx+4]
	jge	SHORT $LN46@ClipLine

; 2000 : 		flag2 |= LINE_CLIP_TOP;

	movsx	eax, BYTE PTR _flag2$[ebp]
	or	eax, 4
	mov	BYTE PTR _flag2$[ebp], al
$LN46@ClipLine:

; 2001 : 
; 2002 : 	if(*x1 > clip->right)

	mov	ecx, DWORD PTR _x1$[ebp]
	mov	edx, DWORD PTR _clip$[ebp]
	mov	eax, DWORD PTR [ecx]
	cmp	eax, DWORD PTR [edx+8]
	jle	SHORT $LN45@ClipLine

; 2003 : 		flag1 |= LINE_CLIP_RIGHT;

	movsx	ecx, BYTE PTR _flag1$[ebp]
	or	ecx, 2
	mov	BYTE PTR _flag1$[ebp], cl
$LN45@ClipLine:

; 2004 : 	if(*x2 > clip->right)

	mov	edx, DWORD PTR _x2$[ebp]
	mov	eax, DWORD PTR _clip$[ebp]
	mov	ecx, DWORD PTR [edx]
	cmp	ecx, DWORD PTR [eax+8]
	jle	SHORT $LN44@ClipLine

; 2005 : 		flag2 |= LINE_CLIP_RIGHT;

	movsx	edx, BYTE PTR _flag2$[ebp]
	or	edx, 2
	mov	BYTE PTR _flag2$[ebp], dl
$LN44@ClipLine:

; 2006 : 
; 2007 : 	if(*y1 > clip->bottom)

	mov	eax, DWORD PTR _y1$[ebp]
	mov	ecx, DWORD PTR _clip$[ebp]
	mov	edx, DWORD PTR [eax]
	cmp	edx, DWORD PTR [ecx+12]
	jle	SHORT $LN43@ClipLine

; 2008 : 		flag1 |= LINE_CLIP_BOTTOM;

	movsx	eax, BYTE PTR _flag1$[ebp]
	or	eax, 8
	mov	BYTE PTR _flag1$[ebp], al
$LN43@ClipLine:

; 2009 : 	if(*y2 > clip->bottom)

	mov	ecx, DWORD PTR _y2$[ebp]
	mov	edx, DWORD PTR _clip$[ebp]
	mov	eax, DWORD PTR [ecx]
	cmp	eax, DWORD PTR [edx+12]
	jle	SHORT $LN42@ClipLine

; 2010 : 		flag2 |= LINE_CLIP_BOTTOM;

	movsx	ecx, BYTE PTR _flag2$[ebp]
	or	ecx, 8
	mov	BYTE PTR _flag2$[ebp], cl
$LN42@ClipLine:

; 2011 : 
; 2012 : 	if(!flag1 && !flag2) // return, because both points are inside clip rect

	movsx	edx, BYTE PTR _flag1$[ebp]
	test	edx, edx
	jne	SHORT $LN41@ClipLine
	movsx	eax, BYTE PTR _flag2$[ebp]
	test	eax, eax
	jne	SHORT $LN41@ClipLine

; 2013 : 		return(TRUE);

	mov	eax, 1
	jmp	$LN50@ClipLine
$LN41@ClipLine:

; 2014 : 
; 2015 : 	if(((flag1 & flag2) & LINE_CLIP_LEFT) || // If both points are on the same side of the clip rect... don't draw
; 2016 : 	   ((flag1 & flag2) & LINE_CLIP_TOP) ||
; 2017 : 	   ((flag1 & flag2) & LINE_CLIP_RIGHT) ||
; 2018 : 	   ((flag1 & flag2) & LINE_CLIP_BOTTOM))

	movsx	ecx, BYTE PTR _flag1$[ebp]
	movsx	edx, BYTE PTR _flag2$[ebp]
	and	ecx, edx
	and	ecx, 1
	jne	SHORT $LN39@ClipLine
	movsx	eax, BYTE PTR _flag1$[ebp]
	movsx	ecx, BYTE PTR _flag2$[ebp]
	and	eax, ecx
	and	eax, 4
	jne	SHORT $LN39@ClipLine
	movsx	edx, BYTE PTR _flag1$[ebp]
	movsx	eax, BYTE PTR _flag2$[ebp]
	and	edx, eax
	and	edx, 2
	jne	SHORT $LN39@ClipLine
	movsx	ecx, BYTE PTR _flag1$[ebp]
	movsx	edx, BYTE PTR _flag2$[ebp]
	and	ecx, edx
	and	ecx, 8
	je	SHORT $LN40@ClipLine
$LN39@ClipLine:

; 2019 : 		return(FALSE);

	xor	eax, eax
	jmp	$LN50@ClipLine
$LN40@ClipLine:

; 2020 : 
; 2021 : 	if(*x1 == *x2) // if x's are the same... no math required

	mov	eax, DWORD PTR _x1$[ebp]
	mov	ecx, DWORD PTR _x2$[ebp]
	mov	edx, DWORD PTR [eax]
	cmp	edx, DWORD PTR [ecx]
	jne	SHORT $LN38@ClipLine

; 2022 : 	{
; 2023 : 		if(flag1 & LINE_CLIP_TOP)

	movsx	eax, BYTE PTR _flag1$[ebp]
	and	eax, 4
	je	SHORT $LN37@ClipLine

; 2024 : 			*y1=clip->top;

	mov	ecx, DWORD PTR _y1$[ebp]
	mov	edx, DWORD PTR _clip$[ebp]
	mov	eax, DWORD PTR [edx+4]
	mov	DWORD PTR [ecx], eax
	jmp	SHORT $LN35@ClipLine
$LN37@ClipLine:

; 2025 : 		else if(flag1 & LINE_CLIP_BOTTOM)

	movsx	ecx, BYTE PTR _flag1$[ebp]
	and	ecx, 8
	je	SHORT $LN35@ClipLine

; 2026 : 			*y1=clip->bottom;

	mov	edx, DWORD PTR _y1$[ebp]
	mov	eax, DWORD PTR _clip$[ebp]
	mov	ecx, DWORD PTR [eax+12]
	mov	DWORD PTR [edx], ecx
$LN35@ClipLine:

; 2027 : 
; 2028 : 		if(flag2 & LINE_CLIP_TOP)

	movsx	edx, BYTE PTR _flag2$[ebp]
	and	edx, 4
	je	SHORT $LN34@ClipLine

; 2029 : 			*y2=clip->top;

	mov	eax, DWORD PTR _y2$[ebp]
	mov	ecx, DWORD PTR _clip$[ebp]
	mov	edx, DWORD PTR [ecx+4]
	mov	DWORD PTR [eax], edx
	jmp	SHORT $LN32@ClipLine
$LN34@ClipLine:

; 2030 : 		else if(flag2 & LINE_CLIP_BOTTOM)

	movsx	eax, BYTE PTR _flag2$[ebp]
	and	eax, 8
	je	SHORT $LN32@ClipLine

; 2031 : 			*y2=clip->bottom;

	mov	ecx, DWORD PTR _y2$[ebp]
	mov	edx, DWORD PTR _clip$[ebp]
	mov	eax, DWORD PTR [edx+12]
	mov	DWORD PTR [ecx], eax
$LN32@ClipLine:

; 2032 : 	}

	jmp	$LN3@ClipLine
$LN38@ClipLine:

; 2033 : 	else if(*y1 == *y2)

	mov	ecx, DWORD PTR _y1$[ebp]
	mov	edx, DWORD PTR _y2$[ebp]
	mov	eax, DWORD PTR [ecx]
	cmp	eax, DWORD PTR [edx]
	jne	SHORT $LN30@ClipLine

; 2034 : 	{
; 2035 : 		if(flag1 & LINE_CLIP_LEFT)

	movsx	ecx, BYTE PTR _flag1$[ebp]
	and	ecx, 1
	je	SHORT $LN29@ClipLine

; 2036 : 			*x1=clip->left;

	mov	edx, DWORD PTR _x1$[ebp]
	mov	eax, DWORD PTR _clip$[ebp]
	mov	ecx, DWORD PTR [eax]
	mov	DWORD PTR [edx], ecx
	jmp	SHORT $LN27@ClipLine
$LN29@ClipLine:

; 2037 : 		else if(flag1 & LINE_CLIP_RIGHT)

	movsx	edx, BYTE PTR _flag1$[ebp]
	and	edx, 2
	je	SHORT $LN27@ClipLine

; 2038 : 			*x1=clip->right;

	mov	eax, DWORD PTR _x1$[ebp]
	mov	ecx, DWORD PTR _clip$[ebp]
	mov	edx, DWORD PTR [ecx+8]
	mov	DWORD PTR [eax], edx
$LN27@ClipLine:

; 2039 : 
; 2040 : 		if(flag2 & LINE_CLIP_LEFT)

	movsx	eax, BYTE PTR _flag2$[ebp]
	and	eax, 1
	je	SHORT $LN26@ClipLine

; 2041 : 			*x2=clip->left;

	mov	ecx, DWORD PTR _x2$[ebp]
	mov	edx, DWORD PTR _clip$[ebp]
	mov	eax, DWORD PTR [edx]
	mov	DWORD PTR [ecx], eax
	jmp	SHORT $LN24@ClipLine
$LN26@ClipLine:

; 2042 : 		else if(flag2 & LINE_CLIP_RIGHT)

	movsx	ecx, BYTE PTR _flag2$[ebp]
	and	ecx, 2
	je	SHORT $LN24@ClipLine

; 2043 : 			*x2=clip->right;

	mov	edx, DWORD PTR _x2$[ebp]
	mov	eax, DWORD PTR _clip$[ebp]
	mov	ecx, DWORD PTR [eax+8]
	mov	DWORD PTR [edx], ecx
$LN24@ClipLine:

; 2044 : 	}
; 2045 : 	else

	jmp	$LN3@ClipLine
$LN30@ClipLine:

; 2046 : 	{
; 2047 : 		if((flag1 | flag2) & (LINE_CLIP_LEFT|LINE_CLIP_RIGHT))

	movsx	edx, BYTE PTR _flag1$[ebp]
	movsx	eax, BYTE PTR _flag2$[ebp]
	or	edx, eax
	and	edx, 3
	je	SHORT $LN22@ClipLine

; 2048 : 			slope1=(float)(*y2 - *y1) / (float)(*x2 - *x1);

	mov	ecx, DWORD PTR _y2$[ebp]
	mov	edx, DWORD PTR _y1$[ebp]
	mov	eax, DWORD PTR [ecx]
	sub	eax, DWORD PTR [edx]
	cvtsi2ss xmm0, eax
	mov	ecx, DWORD PTR _x2$[ebp]
	mov	edx, DWORD PTR _x1$[ebp]
	mov	eax, DWORD PTR [ecx]
	sub	eax, DWORD PTR [edx]
	cvtsi2ss xmm1, eax
	divss	xmm0, xmm1
	movss	DWORD PTR _slope1$[ebp], xmm0
$LN22@ClipLine:

; 2049 : 		if((flag1 | flag2) & (LINE_CLIP_TOP|LINE_CLIP_BOTTOM))

	movsx	ecx, BYTE PTR _flag1$[ebp]
	movsx	edx, BYTE PTR _flag2$[ebp]
	or	ecx, edx
	and	ecx, 12					; 0000000cH
	je	SHORT $LN21@ClipLine

; 2050 : 			slope2=(float)(*x2 - *x1) / (float)(*y2 - *y1);

	mov	eax, DWORD PTR _x2$[ebp]
	mov	ecx, DWORD PTR _x1$[ebp]
	mov	edx, DWORD PTR [eax]
	sub	edx, DWORD PTR [ecx]
	cvtsi2ss xmm0, edx
	mov	eax, DWORD PTR _y2$[ebp]
	mov	ecx, DWORD PTR _y1$[ebp]
	mov	edx, DWORD PTR [eax]
	sub	edx, DWORD PTR [ecx]
	cvtsi2ss xmm1, edx
	divss	xmm0, xmm1
	movss	DWORD PTR _slope2$[ebp], xmm0
$LN21@ClipLine:

; 2051 : 
; 2052 : 		if(flag1 & LINE_CLIP_LEFT)

	movsx	eax, BYTE PTR _flag1$[ebp]
	and	eax, 1
	je	SHORT $LN20@ClipLine

; 2053 : 		{
; 2054 : 			*y1=FloatToInt32(*y1 + (clip->left - *x1) * slope1);

	mov	ecx, DWORD PTR _y1$[ebp]
	cvtsi2ss xmm0, DWORD PTR [ecx]
	mov	edx, DWORD PTR _clip$[ebp]
	mov	eax, DWORD PTR _x1$[ebp]
	mov	ecx, DWORD PTR [edx]
	sub	ecx, DWORD PTR [eax]
	cvtsi2ss xmm1, ecx
	mulss	xmm1, DWORD PTR _slope1$[ebp]
	addss	xmm0, xmm1
	push	ecx
	movss	DWORD PTR [esp], xmm0
	call	?FloatToInt32@@YAHM@Z			; FloatToInt32
	add	esp, 4
	mov	edx, DWORD PTR _y1$[ebp]
	mov	DWORD PTR [edx], eax

; 2055 : 			*x1=clip->left;

	mov	eax, DWORD PTR _x1$[ebp]
	mov	ecx, DWORD PTR _clip$[ebp]
	mov	edx, DWORD PTR [ecx]
	mov	DWORD PTR [eax], edx
	jmp	$LN14@ClipLine
$LN20@ClipLine:

; 2056 : 		}
; 2057 : 		else if(flag1 & LINE_CLIP_RIGHT)

	movsx	eax, BYTE PTR _flag1$[ebp]
	and	eax, 2
	je	SHORT $LN18@ClipLine

; 2058 : 		{
; 2059 : 			*y1=FloatToInt32(*y1 + (clip->right - *x1) * slope1);

	mov	ecx, DWORD PTR _y1$[ebp]
	cvtsi2ss xmm0, DWORD PTR [ecx]
	mov	edx, DWORD PTR _clip$[ebp]
	mov	eax, DWORD PTR _x1$[ebp]
	mov	ecx, DWORD PTR [edx+8]
	sub	ecx, DWORD PTR [eax]
	cvtsi2ss xmm1, ecx
	mulss	xmm1, DWORD PTR _slope1$[ebp]
	addss	xmm0, xmm1
	push	ecx
	movss	DWORD PTR [esp], xmm0
	call	?FloatToInt32@@YAHM@Z			; FloatToInt32
	add	esp, 4
	mov	edx, DWORD PTR _y1$[ebp]
	mov	DWORD PTR [edx], eax

; 2060 : 			*x1=clip->right;

	mov	eax, DWORD PTR _x1$[ebp]
	mov	ecx, DWORD PTR _clip$[ebp]
	mov	edx, DWORD PTR [ecx+8]
	mov	DWORD PTR [eax], edx
	jmp	$LN14@ClipLine
$LN18@ClipLine:

; 2061 : 		}
; 2062 : 		else if(flag1 & LINE_CLIP_TOP)

	movsx	eax, BYTE PTR _flag1$[ebp]
	and	eax, 4
	je	SHORT $LN16@ClipLine

; 2063 : 		{
; 2064 : 			*x1=FloatToInt32(*x1 + (clip->top - *y1) * slope2);

	mov	ecx, DWORD PTR _x1$[ebp]
	cvtsi2ss xmm0, DWORD PTR [ecx]
	mov	edx, DWORD PTR _clip$[ebp]
	mov	eax, DWORD PTR _y1$[ebp]
	mov	ecx, DWORD PTR [edx+4]
	sub	ecx, DWORD PTR [eax]
	cvtsi2ss xmm1, ecx
	mulss	xmm1, DWORD PTR _slope2$[ebp]
	addss	xmm0, xmm1
	push	ecx
	movss	DWORD PTR [esp], xmm0
	call	?FloatToInt32@@YAHM@Z			; FloatToInt32
	add	esp, 4
	mov	edx, DWORD PTR _x1$[ebp]
	mov	DWORD PTR [edx], eax

; 2065 : 			*y1=clip->top;

	mov	eax, DWORD PTR _y1$[ebp]
	mov	ecx, DWORD PTR _clip$[ebp]
	mov	edx, DWORD PTR [ecx+4]
	mov	DWORD PTR [eax], edx
	jmp	SHORT $LN14@ClipLine
$LN16@ClipLine:

; 2066 : 		}
; 2067 : 		else if(flag1 & LINE_CLIP_BOTTOM)

	movsx	eax, BYTE PTR _flag1$[ebp]
	and	eax, 8
	je	SHORT $LN14@ClipLine

; 2068 : 		{
; 2069 : 			*x1=FloatToInt32(*x1 + (clip->bottom - *y1) * slope2);

	mov	ecx, DWORD PTR _x1$[ebp]
	cvtsi2ss xmm0, DWORD PTR [ecx]
	mov	edx, DWORD PTR _clip$[ebp]
	mov	eax, DWORD PTR _y1$[ebp]
	mov	ecx, DWORD PTR [edx+12]
	sub	ecx, DWORD PTR [eax]
	cvtsi2ss xmm1, ecx
	mulss	xmm1, DWORD PTR _slope2$[ebp]
	addss	xmm0, xmm1
	push	ecx
	movss	DWORD PTR [esp], xmm0
	call	?FloatToInt32@@YAHM@Z			; FloatToInt32
	add	esp, 4
	mov	edx, DWORD PTR _x1$[ebp]
	mov	DWORD PTR [edx], eax

; 2070 : 			*y1=clip->bottom;

	mov	eax, DWORD PTR _y1$[ebp]
	mov	ecx, DWORD PTR _clip$[ebp]
	mov	edx, DWORD PTR [ecx+12]
	mov	DWORD PTR [eax], edx
$LN14@ClipLine:

; 2071 : 		}
; 2072 : 
; 2073 : 		if(flag2 & LINE_CLIP_LEFT)

	movsx	eax, BYTE PTR _flag2$[ebp]
	and	eax, 1
	je	SHORT $LN13@ClipLine

; 2074 : 		{
; 2075 : 			*y2=FloatToInt32(*y2 + (clip->left - *x2) * slope1);

	mov	ecx, DWORD PTR _y2$[ebp]
	cvtsi2ss xmm0, DWORD PTR [ecx]
	mov	edx, DWORD PTR _clip$[ebp]
	mov	eax, DWORD PTR _x2$[ebp]
	mov	ecx, DWORD PTR [edx]
	sub	ecx, DWORD PTR [eax]
	cvtsi2ss xmm1, ecx
	mulss	xmm1, DWORD PTR _slope1$[ebp]
	addss	xmm0, xmm1
	push	ecx
	movss	DWORD PTR [esp], xmm0
	call	?FloatToInt32@@YAHM@Z			; FloatToInt32
	add	esp, 4
	mov	edx, DWORD PTR _y2$[ebp]
	mov	DWORD PTR [edx], eax

; 2076 : 			*x2=clip->left;

	mov	eax, DWORD PTR _x2$[ebp]
	mov	ecx, DWORD PTR _clip$[ebp]
	mov	edx, DWORD PTR [ecx]
	mov	DWORD PTR [eax], edx
	jmp	$LN7@ClipLine
$LN13@ClipLine:

; 2077 : 		}
; 2078 : 		else if(flag2 & LINE_CLIP_RIGHT)

	movsx	eax, BYTE PTR _flag2$[ebp]
	and	eax, 2
	je	SHORT $LN11@ClipLine

; 2079 : 		{
; 2080 : 			*y2=FloatToInt32(*y2 + (clip->right - *x2) * slope1);

	mov	ecx, DWORD PTR _y2$[ebp]
	cvtsi2ss xmm0, DWORD PTR [ecx]
	mov	edx, DWORD PTR _clip$[ebp]
	mov	eax, DWORD PTR _x2$[ebp]
	mov	ecx, DWORD PTR [edx+8]
	sub	ecx, DWORD PTR [eax]
	cvtsi2ss xmm1, ecx
	mulss	xmm1, DWORD PTR _slope1$[ebp]
	addss	xmm0, xmm1
	push	ecx
	movss	DWORD PTR [esp], xmm0
	call	?FloatToInt32@@YAHM@Z			; FloatToInt32
	add	esp, 4
	mov	edx, DWORD PTR _y2$[ebp]
	mov	DWORD PTR [edx], eax

; 2081 : 			*x2=clip->right;

	mov	eax, DWORD PTR _x2$[ebp]
	mov	ecx, DWORD PTR _clip$[ebp]
	mov	edx, DWORD PTR [ecx+8]
	mov	DWORD PTR [eax], edx
	jmp	$LN7@ClipLine
$LN11@ClipLine:

; 2082 : 		}
; 2083 : 		else if(flag2 & LINE_CLIP_TOP)

	movsx	eax, BYTE PTR _flag2$[ebp]
	and	eax, 4
	je	SHORT $LN9@ClipLine

; 2084 : 		{
; 2085 : 			*x2=FloatToInt32(*x2 + (clip->top - *y2) * slope2);

	mov	ecx, DWORD PTR _x2$[ebp]
	cvtsi2ss xmm0, DWORD PTR [ecx]
	mov	edx, DWORD PTR _clip$[ebp]
	mov	eax, DWORD PTR _y2$[ebp]
	mov	ecx, DWORD PTR [edx+4]
	sub	ecx, DWORD PTR [eax]
	cvtsi2ss xmm1, ecx
	mulss	xmm1, DWORD PTR _slope2$[ebp]
	addss	xmm0, xmm1
	push	ecx
	movss	DWORD PTR [esp], xmm0
	call	?FloatToInt32@@YAHM@Z			; FloatToInt32
	add	esp, 4
	mov	edx, DWORD PTR _x2$[ebp]
	mov	DWORD PTR [edx], eax

; 2086 : 			*y2=clip->top;

	mov	eax, DWORD PTR _y2$[ebp]
	mov	ecx, DWORD PTR _clip$[ebp]
	mov	edx, DWORD PTR [ecx+4]
	mov	DWORD PTR [eax], edx
	jmp	SHORT $LN7@ClipLine
$LN9@ClipLine:

; 2087 : 		}
; 2088 : 		else if(flag2 & LINE_CLIP_BOTTOM)

	movsx	eax, BYTE PTR _flag2$[ebp]
	and	eax, 8
	je	SHORT $LN7@ClipLine

; 2089 : 		{
; 2090 : 			*x2=FloatToInt32(*x2 + (clip->bottom - *y2) * slope2);

	mov	ecx, DWORD PTR _x2$[ebp]
	cvtsi2ss xmm0, DWORD PTR [ecx]
	mov	edx, DWORD PTR _clip$[ebp]
	mov	eax, DWORD PTR _y2$[ebp]
	mov	ecx, DWORD PTR [edx+12]
	sub	ecx, DWORD PTR [eax]
	cvtsi2ss xmm1, ecx
	mulss	xmm1, DWORD PTR _slope2$[ebp]
	addss	xmm0, xmm1
	push	ecx
	movss	DWORD PTR [esp], xmm0
	call	?FloatToInt32@@YAHM@Z			; FloatToInt32
	add	esp, 4
	mov	edx, DWORD PTR _x2$[ebp]
	mov	DWORD PTR [edx], eax

; 2091 : 			*y2=clip->bottom;

	mov	eax, DWORD PTR _y2$[ebp]
	mov	ecx, DWORD PTR _clip$[ebp]
	mov	edx, DWORD PTR [ecx+12]
	mov	DWORD PTR [eax], edx
$LN7@ClipLine:

; 2092 : 		}
; 2093 : 
; 2094 : 		if((*x1 < clip->left || *x2 < clip->left) || (*x1 > clip->right || *x2 > clip->right))

	mov	eax, DWORD PTR _x1$[ebp]
	mov	ecx, DWORD PTR _clip$[ebp]
	mov	edx, DWORD PTR [eax]
	cmp	edx, DWORD PTR [ecx]
	jl	SHORT $LN4@ClipLine
	mov	eax, DWORD PTR _x2$[ebp]
	mov	ecx, DWORD PTR _clip$[ebp]
	mov	edx, DWORD PTR [eax]
	cmp	edx, DWORD PTR [ecx]
	jl	SHORT $LN4@ClipLine
	mov	eax, DWORD PTR _x1$[ebp]
	mov	ecx, DWORD PTR _clip$[ebp]
	mov	edx, DWORD PTR [eax]
	cmp	edx, DWORD PTR [ecx+8]
	jg	SHORT $LN4@ClipLine
	mov	eax, DWORD PTR _x2$[ebp]
	mov	ecx, DWORD PTR _clip$[ebp]
	mov	edx, DWORD PTR [eax]
	cmp	edx, DWORD PTR [ecx+8]
	jle	SHORT $LN6@ClipLine
$LN4@ClipLine:

; 2095 : 			return(FALSE);

	xor	eax, eax
	jmp	SHORT $LN50@ClipLine
$LN6@ClipLine:

; 2096 : 		if((*y1 < clip->top || *y2 < clip->top) || (*y1 > clip->bottom || *y2 > clip->bottom))

	mov	eax, DWORD PTR _y1$[ebp]
	mov	ecx, DWORD PTR _clip$[ebp]
	mov	edx, DWORD PTR [eax]
	cmp	edx, DWORD PTR [ecx+4]
	jl	SHORT $LN1@ClipLine
	mov	eax, DWORD PTR _y2$[ebp]
	mov	ecx, DWORD PTR _clip$[ebp]
	mov	edx, DWORD PTR [eax]
	cmp	edx, DWORD PTR [ecx+4]
	jl	SHORT $LN1@ClipLine
	mov	eax, DWORD PTR _y1$[ebp]
	mov	ecx, DWORD PTR _clip$[ebp]
	mov	edx, DWORD PTR [eax]
	cmp	edx, DWORD PTR [ecx+12]
	jg	SHORT $LN1@ClipLine
	mov	eax, DWORD PTR _y2$[ebp]
	mov	ecx, DWORD PTR _clip$[ebp]
	mov	edx, DWORD PTR [eax]
	cmp	edx, DWORD PTR [ecx+12]
	jle	SHORT $LN3@ClipLine
$LN1@ClipLine:

; 2097 : 			return(FALSE);

	xor	eax, eax
	jmp	SHORT $LN50@ClipLine
$LN3@ClipLine:

; 2098 : 	}
; 2099 : 	return(TRUE);

	mov	eax, 1
$LN50@ClipLine:

; 2100 : }

	mov	esp, ebp
	pop	ebp
	ret	20					; 00000014H
?ClipLine@C_Window@@QAEHPAJ000PAUUI95_RECT@@@Z ENDP	; C_Window::ClipLine
_TEXT	ENDS
; Function compile flags: /Odtp
; File c:\users\zhitao li\documents\visual studio 2012\projects\freefalcon\ui95\cwindow.cpp
_TEXT	SEGMENT
_drawcolor$ = -28					; size = 2
_this$ = -24						; size = 4
_clipper$ = -20						; size = 16
__$ArrayPad$ = -4					; size = 4
_surface$ = 8						; size = 4
_color$ = 12						; size = 4
_x1$ = 16						; size = 4
_y1$ = 20						; size = 4
_x2$ = 24						; size = 4
_y2$ = 28						; size = 4
_Flags$ = 32						; size = 4
_Client$ = 36						; size = 4
_clip$ = 40						; size = 4
?DrawLine@C_Window@@QAEXPAVSCREEN@@KJJJJJJPAUUI95_RECT@@@Z PROC ; C_Window::DrawLine
; _this$ = ecx

; 2103 : {

	push	ebp
	mov	ebp, esp
	sub	esp, 28					; 0000001cH
	mov	eax, DWORD PTR ___security_cookie
	xor	eax, ebp
	mov	DWORD PTR __$ArrayPad$[ebp], eax
	mov	DWORD PTR _this$[ebp], ecx

; 2104 : 	WORD drawcolor;
; 2105 : 	UI95_RECT clipper;
; 2106 : 
; 2107 : 	clipper=*clip;

	mov	eax, DWORD PTR _clip$[ebp]
	mov	ecx, DWORD PTR [eax]
	mov	DWORD PTR _clipper$[ebp], ecx
	mov	edx, DWORD PTR [eax+4]
	mov	DWORD PTR _clipper$[ebp+4], edx
	mov	ecx, DWORD PTR [eax+8]
	mov	DWORD PTR _clipper$[ebp+8], ecx
	mov	edx, DWORD PTR [eax+12]
	mov	DWORD PTR _clipper$[ebp+12], edx

; 2108 : 
; 2109 : 	if(!(Flags & C_BIT_ABSOLUTE))

	mov	eax, DWORD PTR _Flags$[ebp]
	and	eax, 262144				; 00040000H
	jne	$LN5@DrawLine

; 2110 : 	{
; 2111 : 		x1+=VX_[Client];

	mov	ecx, DWORD PTR _Client$[ebp]
	mov	edx, DWORD PTR _this$[ebp]
	mov	eax, DWORD PTR _x1$[ebp]
	add	eax, DWORD PTR [edx+ecx*4+480]
	mov	DWORD PTR _x1$[ebp], eax

; 2112 : 		y1+=VY_[Client];

	mov	ecx, DWORD PTR _Client$[ebp]
	mov	edx, DWORD PTR _this$[ebp]
	mov	eax, DWORD PTR _y1$[ebp]
	add	eax, DWORD PTR [edx+ecx*4+512]
	mov	DWORD PTR _y1$[ebp], eax

; 2113 : 		x2+=VX_[Client];

	mov	ecx, DWORD PTR _Client$[ebp]
	mov	edx, DWORD PTR _this$[ebp]
	mov	eax, DWORD PTR _x2$[ebp]
	add	eax, DWORD PTR [edx+ecx*4+480]
	mov	DWORD PTR _x2$[ebp], eax

; 2114 : 		y2+=VY_[Client];

	mov	ecx, DWORD PTR _Client$[ebp]
	mov	edx, DWORD PTR _this$[ebp]
	mov	eax, DWORD PTR _y2$[ebp]
	add	eax, DWORD PTR [edx+ecx*4+512]
	mov	DWORD PTR _y2$[ebp], eax

; 2115 : 		if(clipper.left < ClientArea_[Client].left) clipper.left=ClientArea_[Client].left;

	mov	ecx, DWORD PTR _Client$[ebp]
	shl	ecx, 4
	mov	edx, DWORD PTR _this$[ebp]
	mov	eax, DWORD PTR _clipper$[ebp]
	cmp	eax, DWORD PTR [edx+ecx+168]
	jge	SHORT $LN4@DrawLine
	mov	ecx, DWORD PTR _Client$[ebp]
	shl	ecx, 4
	mov	edx, DWORD PTR _this$[ebp]
	mov	eax, DWORD PTR [edx+ecx+168]
	mov	DWORD PTR _clipper$[ebp], eax
$LN4@DrawLine:

; 2116 : 		if(clipper.top < ClientArea_[Client].top) clipper.top=ClientArea_[Client].top;

	mov	ecx, DWORD PTR _Client$[ebp]
	shl	ecx, 4
	mov	edx, DWORD PTR _this$[ebp]
	mov	eax, DWORD PTR _clipper$[ebp+4]
	cmp	eax, DWORD PTR [edx+ecx+172]
	jge	SHORT $LN3@DrawLine
	mov	ecx, DWORD PTR _Client$[ebp]
	shl	ecx, 4
	mov	edx, DWORD PTR _this$[ebp]
	mov	eax, DWORD PTR [edx+ecx+172]
	mov	DWORD PTR _clipper$[ebp+4], eax
$LN3@DrawLine:

; 2117 : 		if(clipper.right > ClientArea_[Client].right) clipper.right=ClientArea_[Client].right;

	mov	ecx, DWORD PTR _Client$[ebp]
	shl	ecx, 4
	mov	edx, DWORD PTR _this$[ebp]
	mov	eax, DWORD PTR _clipper$[ebp+8]
	cmp	eax, DWORD PTR [edx+ecx+176]
	jle	SHORT $LN2@DrawLine
	mov	ecx, DWORD PTR _Client$[ebp]
	shl	ecx, 4
	mov	edx, DWORD PTR _this$[ebp]
	mov	eax, DWORD PTR [edx+ecx+176]
	mov	DWORD PTR _clipper$[ebp+8], eax
$LN2@DrawLine:

; 2118 : 		if(clipper.bottom > ClientArea_[Client].bottom) clipper.bottom=ClientArea_[Client].bottom;

	mov	ecx, DWORD PTR _Client$[ebp]
	shl	ecx, 4
	mov	edx, DWORD PTR _this$[ebp]
	mov	eax, DWORD PTR _clipper$[ebp+12]
	cmp	eax, DWORD PTR [edx+ecx+180]
	jle	SHORT $LN5@DrawLine
	mov	ecx, DWORD PTR _Client$[ebp]
	shl	ecx, 4
	mov	edx, DWORD PTR _this$[ebp]
	mov	eax, DWORD PTR [edx+ecx+180]
	mov	DWORD PTR _clipper$[ebp+12], eax
$LN5@DrawLine:

; 2119 : 	}
; 2120 : 	x1+=GetX();

	mov	ecx, DWORD PTR _this$[ebp]
	call	?GetX@C_Window@@QAEFXZ			; C_Window::GetX
	movsx	ecx, ax
	add	ecx, DWORD PTR _x1$[ebp]
	mov	DWORD PTR _x1$[ebp], ecx

; 2121 : 	y1+=GetY();

	mov	ecx, DWORD PTR _this$[ebp]
	call	?GetY@C_Window@@QAEFXZ			; C_Window::GetY
	movsx	edx, ax
	add	edx, DWORD PTR _y1$[ebp]
	mov	DWORD PTR _y1$[ebp], edx

; 2122 : 	x2+=GetX();

	mov	ecx, DWORD PTR _this$[ebp]
	call	?GetX@C_Window@@QAEFXZ			; C_Window::GetX
	cwde
	add	eax, DWORD PTR _x2$[ebp]
	mov	DWORD PTR _x2$[ebp], eax

; 2123 : 	y2+=GetY();

	mov	ecx, DWORD PTR _this$[ebp]
	call	?GetY@C_Window@@QAEFXZ			; C_Window::GetY
	movsx	ecx, ax
	add	ecx, DWORD PTR _y2$[ebp]
	mov	DWORD PTR _y2$[ebp], ecx

; 2124 : 	clipper.left+=GetX();

	mov	ecx, DWORD PTR _this$[ebp]
	call	?GetX@C_Window@@QAEFXZ			; C_Window::GetX
	movsx	edx, ax
	add	edx, DWORD PTR _clipper$[ebp]
	mov	DWORD PTR _clipper$[ebp], edx

; 2125 : 	clipper.top+=GetY();

	mov	ecx, DWORD PTR _this$[ebp]
	call	?GetY@C_Window@@QAEFXZ			; C_Window::GetY
	cwde
	add	eax, DWORD PTR _clipper$[ebp+4]
	mov	DWORD PTR _clipper$[ebp+4], eax

; 2126 : 	clipper.right+=GetX();

	mov	ecx, DWORD PTR _this$[ebp]
	call	?GetX@C_Window@@QAEFXZ			; C_Window::GetX
	movsx	ecx, ax
	add	ecx, DWORD PTR _clipper$[ebp+8]
	mov	DWORD PTR _clipper$[ebp+8], ecx

; 2127 : 	clipper.bottom+=GetY();

	mov	ecx, DWORD PTR _this$[ebp]
	call	?GetY@C_Window@@QAEFXZ			; C_Window::GetY
	movsx	edx, ax
	add	edx, DWORD PTR _clipper$[ebp+12]
	mov	DWORD PTR _clipper$[ebp+12], edx

; 2128 : 
; 2129 : 	drawcolor=(WORD)UI95_RGB24Bit(color);

	mov	eax, DWORD PTR _color$[ebp]
	push	eax
	call	?UI95_RGB24Bit@@YAGK@Z			; UI95_RGB24Bit
	add	esp, 4
	mov	WORD PTR _drawcolor$[ebp], ax

; 2130 : 	DrawClipLine(surface,x1,y1,x2,y2,&clipper,drawcolor);

	movzx	ecx, WORD PTR _drawcolor$[ebp]
	push	ecx
	lea	edx, DWORD PTR _clipper$[ebp]
	push	edx
	mov	eax, DWORD PTR _y2$[ebp]
	push	eax
	mov	ecx, DWORD PTR _x2$[ebp]
	push	ecx
	mov	edx, DWORD PTR _y1$[ebp]
	push	edx
	mov	eax, DWORD PTR _x1$[ebp]
	push	eax
	mov	ecx, DWORD PTR _surface$[ebp]
	push	ecx
	mov	ecx, DWORD PTR _this$[ebp]
	call	?DrawClipLine@C_Window@@QAEXPAVSCREEN@@JJJJPAUUI95_RECT@@G@Z ; C_Window::DrawClipLine

; 2131 : }

	mov	ecx, DWORD PTR __$ArrayPad$[ebp]
	xor	ecx, ebp
	call	@__security_check_cookie@4
	mov	esp, ebp
	pop	ebp
	ret	36					; 00000024H
?DrawLine@C_Window@@QAEXPAVSCREEN@@KJJJJJJPAUUI95_RECT@@@Z ENDP ; C_Window::DrawLine
_TEXT	ENDS
; Function compile flags: /Odtp
; File c:\users\zhitao li\documents\visual studio 2012\projects\freefalcon\ui95\cwindow.cpp
_TEXT	SEGMENT
_this$ = -4						; size = 4
_x1$ = 8						; size = 4
_y1$ = 12						; size = 4
_x2$ = 16						; size = 4
_y2$ = 20						; size = 4
_minx$ = 24						; size = 4
_miny$ = 28						; size = 4
_maxx$ = 32						; size = 4
_maxy$ = 36						; size = 4
?CheckLine@C_Window@@QAEHJJJJJJJJ@Z PROC		; C_Window::CheckLine
; _this$ = ecx

; 1968 : {

	push	ebp
	mov	ebp, esp
	push	ecx
	mov	DWORD PTR _this$[ebp], ecx

; 1969 : 	if(x1 < minx && x2 < minx) return(FALSE);

	mov	eax, DWORD PTR _x1$[ebp]
	cmp	eax, DWORD PTR _minx$[ebp]
	jge	SHORT $LN4@CheckLine
	mov	ecx, DWORD PTR _x2$[ebp]
	cmp	ecx, DWORD PTR _minx$[ebp]
	jge	SHORT $LN4@CheckLine
	xor	eax, eax
	jmp	SHORT $LN5@CheckLine
$LN4@CheckLine:

; 1970 : 	if(y1 < miny && y2 < miny) return(FALSE);

	mov	edx, DWORD PTR _y1$[ebp]
	cmp	edx, DWORD PTR _miny$[ebp]
	jge	SHORT $LN3@CheckLine
	mov	eax, DWORD PTR _y2$[ebp]
	cmp	eax, DWORD PTR _miny$[ebp]
	jge	SHORT $LN3@CheckLine
	xor	eax, eax
	jmp	SHORT $LN5@CheckLine
$LN3@CheckLine:

; 1971 : 	if(x1 > maxx && x2 > maxx) return(FALSE);

	mov	ecx, DWORD PTR _x1$[ebp]
	cmp	ecx, DWORD PTR _maxx$[ebp]
	jle	SHORT $LN2@CheckLine
	mov	edx, DWORD PTR _x2$[ebp]
	cmp	edx, DWORD PTR _maxx$[ebp]
	jle	SHORT $LN2@CheckLine
	xor	eax, eax
	jmp	SHORT $LN5@CheckLine
$LN2@CheckLine:

; 1972 : 	if(y1 > maxy && y2 > maxy) return(FALSE);

	mov	eax, DWORD PTR _y1$[ebp]
	cmp	eax, DWORD PTR _maxy$[ebp]
	jle	SHORT $LN1@CheckLine
	mov	ecx, DWORD PTR _y2$[ebp]
	cmp	ecx, DWORD PTR _maxy$[ebp]
	jle	SHORT $LN1@CheckLine
	xor	eax, eax
	jmp	SHORT $LN5@CheckLine
$LN1@CheckLine:

; 1973 : 	return(TRUE);

	mov	eax, 1
$LN5@CheckLine:

; 1974 : }

	mov	esp, ebp
	pop	ebp
	ret	32					; 00000020H
?CheckLine@C_Window@@QAEHJJJJJJJJ@Z ENDP		; C_Window::CheckLine
_TEXT	ENDS
; Function compile flags: /Odtp
; File c:\users\zhitao li\documents\visual studio 2012\projects\freefalcon\ui95\cwindow.cpp
_TEXT	SEGMENT
_this$ = -40						; size = 4
_s$ = -36						; size = 16
_rect$ = -20						; size = 16
__$ArrayPad$ = -4					; size = 4
_surface$ = 8						; size = 4
_color$ = 12						; size = 4
_x$ = 16						; size = 4
_y$ = 20						; size = 4
_h$ = 24						; size = 4
_Flags$ = 28						; size = 4
_Client$ = 32						; size = 4
_clip$ = 36						; size = 4
?DrawVLine@C_Window@@QAEXPAVSCREEN@@KJJJJJPAUUI95_RECT@@@Z PROC ; C_Window::DrawVLine
; _this$ = ecx

; 1938 : {

	push	ebp
	mov	ebp, esp
	sub	esp, 40					; 00000028H
	mov	eax, DWORD PTR ___security_cookie
	xor	eax, ebp
	mov	DWORD PTR __$ArrayPad$[ebp], eax
	mov	DWORD PTR _this$[ebp], ecx

; 1939 : 	UI95_RECT rect,s;
; 1940 : 
; 1941 : 	rect.left=x;

	mov	eax, DWORD PTR _x$[ebp]
	mov	DWORD PTR _rect$[ebp], eax

; 1942 : 	rect.right=x+1;

	mov	ecx, DWORD PTR _x$[ebp]
	add	ecx, 1
	mov	DWORD PTR _rect$[ebp+8], ecx

; 1943 : 	rect.top=y;

	mov	edx, DWORD PTR _y$[ebp]
	mov	DWORD PTR _rect$[ebp+4], edx

; 1944 : 	rect.bottom=y+h;

	mov	eax, DWORD PTR _y$[ebp]
	add	eax, DWORD PTR _h$[ebp]
	mov	DWORD PTR _rect$[ebp+12], eax

; 1945 : 	s = rect; // JPO - initialise to something.

	mov	ecx, DWORD PTR _rect$[ebp]
	mov	DWORD PTR _s$[ebp], ecx
	mov	edx, DWORD PTR _rect$[ebp+4]
	mov	DWORD PTR _s$[ebp+4], edx
	mov	eax, DWORD PTR _rect$[ebp+8]
	mov	DWORD PTR _s$[ebp+8], eax
	mov	ecx, DWORD PTR _rect$[ebp+12]
	mov	DWORD PTR _s$[ebp+12], ecx

; 1946 : 
; 1947 : 	if(Flags & C_BIT_ABSOLUTE)

	mov	edx, DWORD PTR _Flags$[ebp]
	and	edx, 262144				; 00040000H
	je	SHORT $LN5@DrawVLine

; 1948 : 	{
; 1949 : 		if(!ClipToArea(&s,&rect,&Area_))

	mov	eax, DWORD PTR _this$[ebp]
	add	eax, 112				; 00000070H
	push	eax
	lea	ecx, DWORD PTR _rect$[ebp]
	push	ecx
	lea	edx, DWORD PTR _s$[ebp]
	push	edx
	mov	ecx, DWORD PTR _this$[ebp]
	call	?ClipToArea@C_Window@@QAEHPAUUI95_RECT@@00@Z ; C_Window::ClipToArea
	test	eax, eax
	jne	SHORT $LN4@DrawVLine

; 1950 : 			return;

	jmp	$LN6@DrawVLine
$LN4@DrawVLine:

; 1951 : 	}
; 1952 : 	else

	jmp	SHORT $LN3@DrawVLine
$LN5@DrawVLine:

; 1953 : 	{
; 1954 : 		rect.left+=VX_[Client];

	mov	eax, DWORD PTR _Client$[ebp]
	mov	ecx, DWORD PTR _this$[ebp]
	mov	edx, DWORD PTR _rect$[ebp]
	add	edx, DWORD PTR [ecx+eax*4+480]
	mov	DWORD PTR _rect$[ebp], edx

; 1955 : 		rect.top+=VY_[Client];

	mov	eax, DWORD PTR _Client$[ebp]
	mov	ecx, DWORD PTR _this$[ebp]
	mov	edx, DWORD PTR _rect$[ebp+4]
	add	edx, DWORD PTR [ecx+eax*4+512]
	mov	DWORD PTR _rect$[ebp+4], edx

; 1956 : 		rect.right+=VX_[Client];

	mov	eax, DWORD PTR _Client$[ebp]
	mov	ecx, DWORD PTR _this$[ebp]
	mov	edx, DWORD PTR _rect$[ebp+8]
	add	edx, DWORD PTR [ecx+eax*4+480]
	mov	DWORD PTR _rect$[ebp+8], edx

; 1957 : 		rect.bottom+=VY_[Client];

	mov	eax, DWORD PTR _Client$[ebp]
	mov	ecx, DWORD PTR _this$[ebp]
	mov	edx, DWORD PTR _rect$[ebp+12]
	add	edx, DWORD PTR [ecx+eax*4+512]
	mov	DWORD PTR _rect$[ebp+12], edx

; 1958 : 		if(!ClipToArea(&s,&rect,&ClientArea_[Client]))

	mov	eax, DWORD PTR _Client$[ebp]
	shl	eax, 4
	mov	ecx, DWORD PTR _this$[ebp]
	lea	edx, DWORD PTR [ecx+eax+168]
	push	edx
	lea	eax, DWORD PTR _rect$[ebp]
	push	eax
	lea	ecx, DWORD PTR _s$[ebp]
	push	ecx
	mov	ecx, DWORD PTR _this$[ebp]
	call	?ClipToArea@C_Window@@QAEHPAUUI95_RECT@@00@Z ; C_Window::ClipToArea
	test	eax, eax
	jne	SHORT $LN3@DrawVLine

; 1959 : 			return;

	jmp	SHORT $LN6@DrawVLine
$LN3@DrawVLine:

; 1960 : 	}
; 1961 : 	if(!ClipToArea(&s,&rect,clip))

	mov	edx, DWORD PTR _clip$[ebp]
	push	edx
	lea	eax, DWORD PTR _rect$[ebp]
	push	eax
	lea	ecx, DWORD PTR _s$[ebp]
	push	ecx
	mov	ecx, DWORD PTR _this$[ebp]
	call	?ClipToArea@C_Window@@QAEHPAUUI95_RECT@@00@Z ; C_Window::ClipToArea
	test	eax, eax
	jne	SHORT $LN1@DrawVLine

; 1962 : 		return;

	jmp	SHORT $LN6@DrawVLine
$LN1@DrawVLine:

; 1963 : 
; 1964 : 	BlitFill(surface,color,&rect,C_BIT_ABSOLUTE,0);

	push	0
	push	262144					; 00040000H
	lea	edx, DWORD PTR _rect$[ebp]
	push	edx
	mov	eax, DWORD PTR _color$[ebp]
	push	eax
	mov	ecx, DWORD PTR _surface$[ebp]
	push	ecx
	mov	ecx, DWORD PTR _this$[ebp]
	call	?BlitFill@C_Window@@QAEXPAVSCREEN@@KPAUUI95_RECT@@JJ@Z ; C_Window::BlitFill
$LN6@DrawVLine:

; 1965 : }

	mov	ecx, DWORD PTR __$ArrayPad$[ebp]
	xor	ecx, ebp
	call	@__security_check_cookie@4
	mov	esp, ebp
	pop	ebp
	ret	32					; 00000020H
?DrawVLine@C_Window@@QAEXPAVSCREEN@@KJJJJJPAUUI95_RECT@@@Z ENDP ; C_Window::DrawVLine
_TEXT	ENDS
; Function compile flags: /Odtp
; File c:\users\zhitao li\documents\visual studio 2012\projects\freefalcon\ui95\cwindow.cpp
_TEXT	SEGMENT
_this$ = -40						; size = 4
_s$ = -36						; size = 16
_rect$ = -20						; size = 16
__$ArrayPad$ = -4					; size = 4
_surface$ = 8						; size = 4
_color$ = 12						; size = 4
_x$ = 16						; size = 4
_y$ = 20						; size = 4
_w$ = 24						; size = 4
_Flags$ = 28						; size = 4
_Client$ = 32						; size = 4
_clip$ = 36						; size = 4
?DrawHLine@C_Window@@QAEXPAVSCREEN@@KJJJJJPAUUI95_RECT@@@Z PROC ; C_Window::DrawHLine
; _this$ = ecx

; 1907 : {

	push	ebp
	mov	ebp, esp
	sub	esp, 40					; 00000028H
	mov	eax, DWORD PTR ___security_cookie
	xor	eax, ebp
	mov	DWORD PTR __$ArrayPad$[ebp], eax
	mov	DWORD PTR _this$[ebp], ecx

; 1908 : 	UI95_RECT rect,s;
; 1909 : 
; 1910 : 	rect.left=x;

	mov	eax, DWORD PTR _x$[ebp]
	mov	DWORD PTR _rect$[ebp], eax

; 1911 : 	rect.right=x+w;

	mov	ecx, DWORD PTR _x$[ebp]
	add	ecx, DWORD PTR _w$[ebp]
	mov	DWORD PTR _rect$[ebp+8], ecx

; 1912 : 	rect.top=y;

	mov	edx, DWORD PTR _y$[ebp]
	mov	DWORD PTR _rect$[ebp+4], edx

; 1913 : 	rect.bottom=y+1;

	mov	eax, DWORD PTR _y$[ebp]
	add	eax, 1
	mov	DWORD PTR _rect$[ebp+12], eax

; 1914 : 	s = rect; // JPO initialise to something

	mov	ecx, DWORD PTR _rect$[ebp]
	mov	DWORD PTR _s$[ebp], ecx
	mov	edx, DWORD PTR _rect$[ebp+4]
	mov	DWORD PTR _s$[ebp+4], edx
	mov	eax, DWORD PTR _rect$[ebp+8]
	mov	DWORD PTR _s$[ebp+8], eax
	mov	ecx, DWORD PTR _rect$[ebp+12]
	mov	DWORD PTR _s$[ebp+12], ecx

; 1915 : 
; 1916 : 	if(Flags & C_BIT_ABSOLUTE)

	mov	edx, DWORD PTR _Flags$[ebp]
	and	edx, 262144				; 00040000H
	je	SHORT $LN6@DrawHLine

; 1917 : 	{
; 1918 : 		if(!ClipToArea(&s,&rect,&Area_))

	mov	eax, DWORD PTR _this$[ebp]
	add	eax, 112				; 00000070H
	push	eax
	lea	ecx, DWORD PTR _rect$[ebp]
	push	ecx
	lea	edx, DWORD PTR _s$[ebp]
	push	edx
	mov	ecx, DWORD PTR _this$[ebp]
	call	?ClipToArea@C_Window@@QAEHPAUUI95_RECT@@00@Z ; C_Window::ClipToArea
	test	eax, eax
	jne	SHORT $LN5@DrawHLine

; 1919 : 			return;

	jmp	$LN7@DrawHLine
$LN5@DrawHLine:

; 1920 : 	}
; 1921 : 	else

	jmp	$LN4@DrawHLine
$LN6@DrawHLine:

; 1922 : 	{
; 1923 : 		rect.left+=VX_[Client];

	mov	eax, DWORD PTR _Client$[ebp]
	mov	ecx, DWORD PTR _this$[ebp]
	mov	edx, DWORD PTR _rect$[ebp]
	add	edx, DWORD PTR [ecx+eax*4+480]
	mov	DWORD PTR _rect$[ebp], edx

; 1924 : 		rect.top+=VY_[Client];

	mov	eax, DWORD PTR _Client$[ebp]
	mov	ecx, DWORD PTR _this$[ebp]
	mov	edx, DWORD PTR _rect$[ebp+4]
	add	edx, DWORD PTR [ecx+eax*4+512]
	mov	DWORD PTR _rect$[ebp+4], edx

; 1925 : 		rect.right+=VX_[Client];

	mov	eax, DWORD PTR _Client$[ebp]
	mov	ecx, DWORD PTR _this$[ebp]
	mov	edx, DWORD PTR _rect$[ebp+8]
	add	edx, DWORD PTR [ecx+eax*4+480]
	mov	DWORD PTR _rect$[ebp+8], edx

; 1926 : 		rect.bottom+=VY_[Client];

	mov	eax, DWORD PTR _Client$[ebp]
	mov	ecx, DWORD PTR _this$[ebp]
	mov	edx, DWORD PTR _rect$[ebp+12]
	add	edx, DWORD PTR [ecx+eax*4+512]
	mov	DWORD PTR _rect$[ebp+12], edx

; 1927 : 		if(!ClipToArea(&s,&rect,clip))

	mov	eax, DWORD PTR _clip$[ebp]
	push	eax
	lea	ecx, DWORD PTR _rect$[ebp]
	push	ecx
	lea	edx, DWORD PTR _s$[ebp]
	push	edx
	mov	ecx, DWORD PTR _this$[ebp]
	call	?ClipToArea@C_Window@@QAEHPAUUI95_RECT@@00@Z ; C_Window::ClipToArea
	test	eax, eax
	jne	SHORT $LN3@DrawHLine

; 1928 : 			return;

	jmp	SHORT $LN7@DrawHLine
$LN3@DrawHLine:

; 1929 : 		if(!ClipToArea(&s,&rect,&ClientArea_[Client]))

	mov	eax, DWORD PTR _Client$[ebp]
	shl	eax, 4
	mov	ecx, DWORD PTR _this$[ebp]
	lea	edx, DWORD PTR [ecx+eax+168]
	push	edx
	lea	eax, DWORD PTR _rect$[ebp]
	push	eax
	lea	ecx, DWORD PTR _s$[ebp]
	push	ecx
	mov	ecx, DWORD PTR _this$[ebp]
	call	?ClipToArea@C_Window@@QAEHPAUUI95_RECT@@00@Z ; C_Window::ClipToArea
	test	eax, eax
	jne	SHORT $LN4@DrawHLine

; 1930 : 			return;

	jmp	SHORT $LN7@DrawHLine
$LN4@DrawHLine:

; 1931 : 	}
; 1932 : 	if(!ClipToArea(&s,&rect,clip))

	mov	edx, DWORD PTR _clip$[ebp]
	push	edx
	lea	eax, DWORD PTR _rect$[ebp]
	push	eax
	lea	ecx, DWORD PTR _s$[ebp]
	push	ecx
	mov	ecx, DWORD PTR _this$[ebp]
	call	?ClipToArea@C_Window@@QAEHPAUUI95_RECT@@00@Z ; C_Window::ClipToArea
	test	eax, eax
	jne	SHORT $LN1@DrawHLine

; 1933 : 		return;

	jmp	SHORT $LN7@DrawHLine
$LN1@DrawHLine:

; 1934 : 	BlitFill(surface,color,&rect,C_BIT_ABSOLUTE,0);

	push	0
	push	262144					; 00040000H
	lea	edx, DWORD PTR _rect$[ebp]
	push	edx
	mov	eax, DWORD PTR _color$[ebp]
	push	eax
	mov	ecx, DWORD PTR _surface$[ebp]
	push	ecx
	mov	ecx, DWORD PTR _this$[ebp]
	call	?BlitFill@C_Window@@QAEXPAVSCREEN@@KPAUUI95_RECT@@JJ@Z ; C_Window::BlitFill
$LN7@DrawHLine:

; 1935 : }

	mov	ecx, DWORD PTR __$ArrayPad$[ebp]
	xor	ecx, ebp
	call	@__security_check_cookie@4
	mov	esp, ebp
	pop	ebp
	ret	32					; 00000020H
?DrawHLine@C_Window@@QAEXPAVSCREEN@@KJJJJJPAUUI95_RECT@@@Z ENDP ; C_Window::DrawHLine
_TEXT	ENDS
; Function compile flags: /Odtp
; File c:\users\zhitao li\documents\visual studio 2012\projects\freefalcon\ui95\cwindow.cpp
_TEXT	SEGMENT
_this$ = -40						; size = 4
_s$ = -36						; size = 16
_d$ = -20						; size = 16
__$ArrayPad$ = -4					; size = 4
_surface$ = 8						; size = 4
_Color$ = 12						; size = 4
_x$ = 16						; size = 4
_y$ = 20						; size = 4
_w$ = 24						; size = 4
_h$ = 28						; size = 4
_Flags$ = 32						; size = 4
_Client$ = 36						; size = 4
_clip$ = 40						; size = 4
?BlitFill@C_Window@@QAEXPAVSCREEN@@KJJJJJJPAUUI95_RECT@@@Z PROC ; C_Window::BlitFill
; _this$ = ecx

; 1878 : {

	push	ebp
	mov	ebp, esp
	sub	esp, 40					; 00000028H
	mov	eax, DWORD PTR ___security_cookie
	xor	eax, ebp
	mov	DWORD PTR __$ArrayPad$[ebp], eax
	mov	DWORD PTR _this$[ebp], ecx

; 1879 : 	UI95_RECT d,s;
; 1880 : 
; 1881 : 	s.left = s.top = s.right = s.bottom = 0; // JPO initialise to something

	mov	DWORD PTR _s$[ebp+12], 0
	mov	eax, DWORD PTR _s$[ebp+12]
	mov	DWORD PTR _s$[ebp+8], eax
	mov	ecx, DWORD PTR _s$[ebp+8]
	mov	DWORD PTR _s$[ebp+4], ecx
	mov	edx, DWORD PTR _s$[ebp+4]
	mov	DWORD PTR _s$[ebp], edx

; 1882 : 	d.left=x;

	mov	eax, DWORD PTR _x$[ebp]
	mov	DWORD PTR _d$[ebp], eax

; 1883 : 	d.top=y;

	mov	ecx, DWORD PTR _y$[ebp]
	mov	DWORD PTR _d$[ebp+4], ecx

; 1884 : 	d.right=x+w;

	mov	edx, DWORD PTR _x$[ebp]
	add	edx, DWORD PTR _w$[ebp]
	mov	DWORD PTR _d$[ebp+8], edx

; 1885 : 	d.bottom=y+h;

	mov	eax, DWORD PTR _y$[ebp]
	add	eax, DWORD PTR _h$[ebp]
	mov	DWORD PTR _d$[ebp+12], eax

; 1886 : 
; 1887 : 	if(Flags & C_BIT_ABSOLUTE)

	mov	ecx, DWORD PTR _Flags$[ebp]
	and	ecx, 262144				; 00040000H
	je	SHORT $LN5@BlitFill

; 1888 : 	{
; 1889 : 		if(!ClipToArea(&s,&d,&Area_))

	mov	edx, DWORD PTR _this$[ebp]
	add	edx, 112				; 00000070H
	push	edx
	lea	eax, DWORD PTR _d$[ebp]
	push	eax
	lea	ecx, DWORD PTR _s$[ebp]
	push	ecx
	mov	ecx, DWORD PTR _this$[ebp]
	call	?ClipToArea@C_Window@@QAEHPAUUI95_RECT@@00@Z ; C_Window::ClipToArea
	test	eax, eax
	jne	SHORT $LN4@BlitFill

; 1890 : 			return;

	jmp	$LN6@BlitFill
$LN4@BlitFill:

; 1891 : 	}
; 1892 : 	else

	jmp	SHORT $LN3@BlitFill
$LN5@BlitFill:

; 1893 : 	{
; 1894 : 		d.left+=VX_[Client];

	mov	edx, DWORD PTR _Client$[ebp]
	mov	eax, DWORD PTR _this$[ebp]
	mov	ecx, DWORD PTR _d$[ebp]
	add	ecx, DWORD PTR [eax+edx*4+480]
	mov	DWORD PTR _d$[ebp], ecx

; 1895 : 		d.top+=VY_[Client];

	mov	edx, DWORD PTR _Client$[ebp]
	mov	eax, DWORD PTR _this$[ebp]
	mov	ecx, DWORD PTR _d$[ebp+4]
	add	ecx, DWORD PTR [eax+edx*4+512]
	mov	DWORD PTR _d$[ebp+4], ecx

; 1896 : 		d.right+=VX_[Client];

	mov	edx, DWORD PTR _Client$[ebp]
	mov	eax, DWORD PTR _this$[ebp]
	mov	ecx, DWORD PTR _d$[ebp+8]
	add	ecx, DWORD PTR [eax+edx*4+480]
	mov	DWORD PTR _d$[ebp+8], ecx

; 1897 : 		d.bottom+=VY_[Client];

	mov	edx, DWORD PTR _Client$[ebp]
	mov	eax, DWORD PTR _this$[ebp]
	mov	ecx, DWORD PTR _d$[ebp+12]
	add	ecx, DWORD PTR [eax+edx*4+512]
	mov	DWORD PTR _d$[ebp+12], ecx

; 1898 : 		if(!ClipToArea(&s,&d,&ClientArea_[Client]))

	mov	edx, DWORD PTR _Client$[ebp]
	shl	edx, 4
	mov	eax, DWORD PTR _this$[ebp]
	lea	ecx, DWORD PTR [eax+edx+168]
	push	ecx
	lea	edx, DWORD PTR _d$[ebp]
	push	edx
	lea	eax, DWORD PTR _s$[ebp]
	push	eax
	mov	ecx, DWORD PTR _this$[ebp]
	call	?ClipToArea@C_Window@@QAEHPAUUI95_RECT@@00@Z ; C_Window::ClipToArea
	test	eax, eax
	jne	SHORT $LN3@BlitFill

; 1899 : 			return;

	jmp	SHORT $LN6@BlitFill
$LN3@BlitFill:

; 1900 : 	}
; 1901 : 	if(!ClipToArea(&s,&d,clip))

	mov	ecx, DWORD PTR _clip$[ebp]
	push	ecx
	lea	edx, DWORD PTR _d$[ebp]
	push	edx
	lea	eax, DWORD PTR _s$[ebp]
	push	eax
	mov	ecx, DWORD PTR _this$[ebp]
	call	?ClipToArea@C_Window@@QAEHPAUUI95_RECT@@00@Z ; C_Window::ClipToArea
	test	eax, eax
	jne	SHORT $LN1@BlitFill

; 1902 : 		return;

	jmp	SHORT $LN6@BlitFill
$LN1@BlitFill:

; 1903 : 	BlitFill(surface,Color,&d,C_BIT_ABSOLUTE,0);

	push	0
	push	262144					; 00040000H
	lea	ecx, DWORD PTR _d$[ebp]
	push	ecx
	mov	edx, DWORD PTR _Color$[ebp]
	push	edx
	mov	eax, DWORD PTR _surface$[ebp]
	push	eax
	mov	ecx, DWORD PTR _this$[ebp]
	call	?BlitFill@C_Window@@QAEXPAVSCREEN@@KPAUUI95_RECT@@JJ@Z ; C_Window::BlitFill
$LN6@BlitFill:

; 1904 : }

	mov	ecx, DWORD PTR __$ArrayPad$[ebp]
	xor	ecx, ebp
	call	@__security_check_cookie@4
	mov	esp, ebp
	pop	ebp
	ret	36					; 00000024H
?BlitFill@C_Window@@QAEXPAVSCREEN@@KJJJJJJPAUUI95_RECT@@@Z ENDP ; C_Window::BlitFill
_TEXT	ENDS
; Function compile flags: /Odtp
; File c:\users\zhitao li\documents\visual studio 2012\projects\freefalcon\ui95\cwindow.cpp
_TEXT	SEGMENT
_this$ = -40						; size = 4
_s$ = -36						; size = 16
_d$ = -20						; size = 16
__$ArrayPad$ = -4					; size = 4
_surface$ = 8						; size = 4
_Color$ = 12						; size = 4
_dst$ = 16						; size = 4
_Flags$ = 20						; size = 4
_Client$ = 24						; size = 4
?BlitFill@C_Window@@QAEXPAVSCREEN@@KPAUUI95_RECT@@JJ@Z PROC ; C_Window::BlitFill
; _this$ = ecx

; 1814 : {

	push	ebp
	mov	ebp, esp
	sub	esp, 40					; 00000028H
	mov	eax, DWORD PTR ___security_cookie
	xor	eax, ebp
	mov	DWORD PTR __$ArrayPad$[ebp], eax
	mov	DWORD PTR _this$[ebp], ecx

; 1815 : 	UI95_RECT s,d;
; 1816 : 
; 1817 : 	d=*dst;

	mov	eax, DWORD PTR _dst$[ebp]
	mov	ecx, DWORD PTR [eax]
	mov	DWORD PTR _d$[ebp], ecx
	mov	edx, DWORD PTR [eax+4]
	mov	DWORD PTR _d$[ebp+4], edx
	mov	ecx, DWORD PTR [eax+8]
	mov	DWORD PTR _d$[ebp+8], ecx
	mov	edx, DWORD PTR [eax+12]
	mov	DWORD PTR _d$[ebp+12], edx

; 1818 : 	if(Flags & C_BIT_ABSOLUTE)

	mov	eax, DWORD PTR _Flags$[ebp]
	and	eax, 262144				; 00040000H
	je	SHORT $LN4@BlitFill

; 1819 : 	{
; 1820 : 		if(!ClipToArea(&s,&d,&Area_))

	mov	ecx, DWORD PTR _this$[ebp]
	add	ecx, 112				; 00000070H
	push	ecx
	lea	edx, DWORD PTR _d$[ebp]
	push	edx
	lea	eax, DWORD PTR _s$[ebp]
	push	eax
	mov	ecx, DWORD PTR _this$[ebp]
	call	?ClipToArea@C_Window@@QAEHPAUUI95_RECT@@00@Z ; C_Window::ClipToArea
	test	eax, eax
	jne	SHORT $LN3@BlitFill

; 1821 : 			return;

	jmp	$LN5@BlitFill
$LN3@BlitFill:

; 1822 : 	}
; 1823 : 	else

	jmp	SHORT $LN2@BlitFill
$LN4@BlitFill:

; 1824 : 	{
; 1825 : 		d.left+=VX_[Client];

	mov	ecx, DWORD PTR _Client$[ebp]
	mov	edx, DWORD PTR _this$[ebp]
	mov	eax, DWORD PTR _d$[ebp]
	add	eax, DWORD PTR [edx+ecx*4+480]
	mov	DWORD PTR _d$[ebp], eax

; 1826 : 		d.top+=VY_[Client];

	mov	ecx, DWORD PTR _Client$[ebp]
	mov	edx, DWORD PTR _this$[ebp]
	mov	eax, DWORD PTR _d$[ebp+4]
	add	eax, DWORD PTR [edx+ecx*4+512]
	mov	DWORD PTR _d$[ebp+4], eax

; 1827 : 		d.right+=VX_[Client];

	mov	ecx, DWORD PTR _Client$[ebp]
	mov	edx, DWORD PTR _this$[ebp]
	mov	eax, DWORD PTR _d$[ebp+8]
	add	eax, DWORD PTR [edx+ecx*4+480]
	mov	DWORD PTR _d$[ebp+8], eax

; 1828 : 		d.bottom+=VY_[Client];

	mov	ecx, DWORD PTR _Client$[ebp]
	mov	edx, DWORD PTR _this$[ebp]
	mov	eax, DWORD PTR _d$[ebp+12]
	add	eax, DWORD PTR [edx+ecx*4+512]
	mov	DWORD PTR _d$[ebp+12], eax

; 1829 : 		if(!ClipToArea(&s,&d,&ClientArea_[Client]))

	mov	ecx, DWORD PTR _Client$[ebp]
	shl	ecx, 4
	mov	edx, DWORD PTR _this$[ebp]
	lea	eax, DWORD PTR [edx+ecx+168]
	push	eax
	lea	ecx, DWORD PTR _d$[ebp]
	push	ecx
	lea	edx, DWORD PTR _s$[ebp]
	push	edx
	mov	ecx, DWORD PTR _this$[ebp]
	call	?ClipToArea@C_Window@@QAEHPAUUI95_RECT@@00@Z ; C_Window::ClipToArea
	test	eax, eax
	jne	SHORT $LN2@BlitFill

; 1830 : 			return;

	jmp	SHORT $LN5@BlitFill
$LN2@BlitFill:

; 1831 : 	}
; 1832 : 
; 1833 : 	d.left+=GetX();

	mov	ecx, DWORD PTR _this$[ebp]
	call	?GetX@C_Window@@QAEFXZ			; C_Window::GetX
	cwde
	add	eax, DWORD PTR _d$[ebp]
	mov	DWORD PTR _d$[ebp], eax

; 1834 : 	d.top+=GetY();

	mov	ecx, DWORD PTR _this$[ebp]
	call	?GetY@C_Window@@QAEFXZ			; C_Window::GetY
	movsx	ecx, ax
	add	ecx, DWORD PTR _d$[ebp+4]
	mov	DWORD PTR _d$[ebp+4], ecx

; 1835 : 	d.right+=GetX();

	mov	ecx, DWORD PTR _this$[ebp]
	call	?GetX@C_Window@@QAEFXZ			; C_Window::GetX
	movsx	edx, ax
	add	edx, DWORD PTR _d$[ebp+8]
	mov	DWORD PTR _d$[ebp+8], edx

; 1836 : 	d.bottom+=GetY();

	mov	ecx, DWORD PTR _this$[ebp]
	call	?GetY@C_Window@@QAEFXZ			; C_Window::GetY
	cwde
	add	eax, DWORD PTR _d$[ebp+12]
	mov	DWORD PTR _d$[ebp+12], eax

; 1837 : 
