; Listing generated by Microsoft (R) Optimizing Compiler Version 17.00.51106.1 

	TITLE	C:\Users\Zhitao Li\Documents\Visual Studio 2012\Projects\Freefalcon\SIM\RWR\HarmPod.cpp
	.686P
	.XMM
	include listing.inc
	.model	flat

INCLUDELIB LIBCMT
INCLUDELIB OLDNAMES

PUBLIC	?traps@_Num_base@std@@2_NB			; std::_Num_base::traps
PUBLIC	?round_style@_Num_base@std@@2W4float_round_style@2@B ; std::_Num_base::round_style
PUBLIC	?digits@_Num_base@std@@2HB			; std::_Num_base::digits
PUBLIC	?digits10@_Num_base@std@@2HB			; std::_Num_base::digits10
PUBLIC	?max_digits10@_Num_base@std@@2HB		; std::_Num_base::max_digits10
PUBLIC	?max_exponent@_Num_base@std@@2HB		; std::_Num_base::max_exponent
PUBLIC	?max_exponent10@_Num_base@std@@2HB		; std::_Num_base::max_exponent10
PUBLIC	?min_exponent@_Num_base@std@@2HB		; std::_Num_base::min_exponent
PUBLIC	?min_exponent10@_Num_base@std@@2HB		; std::_Num_base::min_exponent10
PUBLIC	?radix@_Num_base@std@@2HB			; std::_Num_base::radix
PUBLIC	?is_bounded@_Num_int_base@std@@2_NB		; std::_Num_int_base::is_bounded
PUBLIC	?is_exact@_Num_int_base@std@@2_NB		; std::_Num_int_base::is_exact
PUBLIC	?is_integer@_Num_int_base@std@@2_NB		; std::_Num_int_base::is_integer
PUBLIC	?is_modulo@_Num_int_base@std@@2_NB		; std::_Num_int_base::is_modulo
PUBLIC	?is_specialized@_Num_int_base@std@@2_NB		; std::_Num_int_base::is_specialized
PUBLIC	?radix@_Num_int_base@std@@2HB			; std::_Num_int_base::radix
PUBLIC	?has_denorm@_Num_float_base@std@@2W4float_denorm_style@2@B ; std::_Num_float_base::has_denorm
PUBLIC	?has_denorm_loss@_Num_float_base@std@@2_NB	; std::_Num_float_base::has_denorm_loss
PUBLIC	?SIMDIRTYDATA_INTERVAL@FalconEntity@@2KB	; FalconEntity::SIMDIRTYDATA_INTERVAL
PUBLIC	?CMPDIRTYDATA_INTERVAL@FalconEntity@@2KB	; FalconEntity::CMPDIRTYDATA_INTERVAL
PUBLIC	?has_infinity@_Num_float_base@std@@2_NB		; std::_Num_float_base::has_infinity
PUBLIC	?has_quiet_NaN@_Num_float_base@std@@2_NB	; std::_Num_float_base::has_quiet_NaN
PUBLIC	?has_signaling_NaN@_Num_float_base@std@@2_NB	; std::_Num_float_base::has_signaling_NaN
PUBLIC	?is_bounded@_Num_float_base@std@@2_NB		; std::_Num_float_base::is_bounded
PUBLIC	?is_exact@_Num_float_base@std@@2_NB		; std::_Num_float_base::is_exact
PUBLIC	?is_iec559@_Num_float_base@std@@2_NB		; std::_Num_float_base::is_iec559
PUBLIC	?is_integer@_Num_float_base@std@@2_NB		; std::_Num_float_base::is_integer
PUBLIC	?is_modulo@_Num_float_base@std@@2_NB		; std::_Num_float_base::is_modulo
PUBLIC	?is_signed@_Num_float_base@std@@2_NB		; std::_Num_float_base::is_signed
PUBLIC	?is_specialized@_Num_float_base@std@@2_NB	; std::_Num_float_base::is_specialized
PUBLIC	?tinyness_before@_Num_float_base@std@@2_NB	; std::_Num_float_base::tinyness_before
PUBLIC	?traps@_Num_float_base@std@@2_NB		; std::_Num_float_base::traps
PUBLIC	?round_style@_Num_float_base@std@@2W4float_round_style@2@B ; std::_Num_float_base::round_style
PUBLIC	?radix@_Num_float_base@std@@2HB			; std::_Num_float_base::radix
PUBLIC	?collate@?$_Locbase@H@std@@2HB			; std::_Locbase<int>::collate
PUBLIC	?ctype@?$_Locbase@H@std@@2HB			; std::_Locbase<int>::ctype
PUBLIC	?monetary@?$_Locbase@H@std@@2HB			; std::_Locbase<int>::monetary
PUBLIC	?numeric@?$_Locbase@H@std@@2HB			; std::_Locbase<int>::numeric
PUBLIC	?time@?$_Locbase@H@std@@2HB			; std::_Locbase<int>::time
PUBLIC	?messages@?$_Locbase@H@std@@2HB			; std::_Locbase<int>::messages
PUBLIC	?all@?$_Locbase@H@std@@2HB			; std::_Locbase<int>::all
PUBLIC	?is_signed@?$numeric_limits@D@std@@2_NB		; std::numeric_limits<char>::is_signed
PUBLIC	?none@?$_Locbase@H@std@@2HB			; std::_Locbase<int>::none
PUBLIC	?digits@?$numeric_limits@D@std@@2HB		; std::numeric_limits<char>::digits
PUBLIC	?digits10@?$numeric_limits@D@std@@2HB		; std::numeric_limits<char>::digits10
PUBLIC	?is_signed@?$numeric_limits@_W@std@@2_NB	; std::numeric_limits<wchar_t>::is_signed
PUBLIC	?digits@?$numeric_limits@_W@std@@2HB		; std::numeric_limits<wchar_t>::digits
PUBLIC	?digits10@?$numeric_limits@_W@std@@2HB		; std::numeric_limits<wchar_t>::digits10
PUBLIC	?RANGE_POSITION@@3MB				; RANGE_POSITION
PUBLIC	?RANGE_MIDPOINT@@3MB				; RANGE_MIDPOINT
PUBLIC	?is_modulo@?$numeric_limits@_N@std@@2_NB	; std::numeric_limits<bool>::is_modulo
PUBLIC	?is_signed@?$numeric_limits@_N@std@@2_NB	; std::numeric_limits<bool>::is_signed
PUBLIC	?digits@?$numeric_limits@_N@std@@2HB		; std::numeric_limits<bool>::digits
PUBLIC	?digits10@?$numeric_limits@_N@std@@2HB		; std::numeric_limits<bool>::digits10
PUBLIC	?table_size@?$ctype@D@std@@2IB			; std::ctype<char>::table_size
PUBLIC	?is_signed@?$numeric_limits@C@std@@2_NB		; std::numeric_limits<signed char>::is_signed
PUBLIC	?digits@?$numeric_limits@C@std@@2HB		; std::numeric_limits<signed char>::digits
PUBLIC	?digits10@?$numeric_limits@C@std@@2HB		; std::numeric_limits<signed char>::digits10
PUBLIC	?is_signed@?$numeric_limits@E@std@@2_NB		; std::numeric_limits<unsigned char>::is_signed
PUBLIC	?value@?$integral_constant@_N$0A@@std@@2_NB	; std::integral_constant<bool,0>::value
PUBLIC	?digits@?$numeric_limits@E@std@@2HB		; std::numeric_limits<unsigned char>::digits
PUBLIC	?digits10@?$numeric_limits@E@std@@2HB		; std::numeric_limits<unsigned char>::digits10
PUBLIC	?value@?$integral_constant@_N$00@std@@2_NB	; std::integral_constant<bool,1>::value
PUBLIC	?is_signed@?$numeric_limits@F@std@@2_NB		; std::numeric_limits<short>::is_signed
PUBLIC	?digits@?$numeric_limits@F@std@@2HB		; std::numeric_limits<short>::digits
PUBLIC	?digits10@?$numeric_limits@F@std@@2HB		; std::numeric_limits<short>::digits10
PUBLIC	?is_signed@?$numeric_limits@G@std@@2_NB		; std::numeric_limits<unsigned short>::is_signed
PUBLIC	?digits@?$numeric_limits@G@std@@2HB		; std::numeric_limits<unsigned short>::digits
PUBLIC	?digits10@?$numeric_limits@G@std@@2HB		; std::numeric_limits<unsigned short>::digits10
PUBLIC	?flash@HarmTargetingPod@@1HA			; HarmTargetingPod::flash
PUBLIC	?is_signed@?$numeric_limits@H@std@@2_NB		; std::numeric_limits<int>::is_signed
PUBLIC	?value@?$_Sizeof@HU_Nil@std@@U12@U12@U12@U12@U12@U12@@std@@2IB ; std::_Sizeof<int,std::_Nil,std::_Nil,std::_Nil,std::_Nil,std::_Nil,std::_Nil,std::_Nil>::value
PUBLIC	?digits@?$numeric_limits@H@std@@2HB		; std::numeric_limits<int>::digits
PUBLIC	?digits10@?$numeric_limits@H@std@@2HB		; std::numeric_limits<int>::digits10
PUBLIC	?is_signed@?$numeric_limits@I@std@@2_NB		; std::numeric_limits<unsigned int>::is_signed
PUBLIC	?digits@?$numeric_limits@I@std@@2HB		; std::numeric_limits<unsigned int>::digits
PUBLIC	?digits10@?$numeric_limits@I@std@@2HB		; std::numeric_limits<unsigned int>::digits10
PUBLIC	?is_signed@?$numeric_limits@J@std@@2_NB		; std::numeric_limits<long>::is_signed
PUBLIC	?digits@?$numeric_limits@J@std@@2HB		; std::numeric_limits<long>::digits
PUBLIC	?digits10@?$numeric_limits@J@std@@2HB		; std::numeric_limits<long>::digits10
PUBLIC	?is_signed@?$numeric_limits@K@std@@2_NB		; std::numeric_limits<unsigned long>::is_signed
PUBLIC	?digits@?$numeric_limits@K@std@@2HB		; std::numeric_limits<unsigned long>::digits
PUBLIC	?digits10@?$numeric_limits@K@std@@2HB		; std::numeric_limits<unsigned long>::digits10
PUBLIC	?is_signed@?$numeric_limits@_J@std@@2_NB	; std::numeric_limits<__int64>::is_signed
PUBLIC	?digits@?$numeric_limits@_J@std@@2HB		; std::numeric_limits<__int64>::digits
PUBLIC	?digits10@?$numeric_limits@_J@std@@2HB		; std::numeric_limits<__int64>::digits10
PUBLIC	?is_signed@?$numeric_limits@_K@std@@2_NB	; std::numeric_limits<unsigned __int64>::is_signed
PUBLIC	?digits@?$numeric_limits@_K@std@@2HB		; std::numeric_limits<unsigned __int64>::digits
PUBLIC	?digits10@?$numeric_limits@_K@std@@2HB		; std::numeric_limits<unsigned __int64>::digits10
PUBLIC	?digits@?$numeric_limits@M@std@@2HB		; std::numeric_limits<float>::digits
PUBLIC	?digits10@?$numeric_limits@M@std@@2HB		; std::numeric_limits<float>::digits10
PUBLIC	?max_digits10@?$numeric_limits@M@std@@2HB	; std::numeric_limits<float>::max_digits10
PUBLIC	?max_exponent@?$numeric_limits@M@std@@2HB	; std::numeric_limits<float>::max_exponent
PUBLIC	?max_exponent10@?$numeric_limits@M@std@@2HB	; std::numeric_limits<float>::max_exponent10
PUBLIC	?min_exponent@?$numeric_limits@M@std@@2HB	; std::numeric_limits<float>::min_exponent
PUBLIC	?min_exponent10@?$numeric_limits@M@std@@2HB	; std::numeric_limits<float>::min_exponent10
PUBLIC	?value@?$integral_constant@I$0A@@std@@2IB	; std::integral_constant<unsigned int,0>::value
PUBLIC	?digits@?$numeric_limits@N@std@@2HB		; std::numeric_limits<double>::digits
PUBLIC	?digits10@?$numeric_limits@N@std@@2HB		; std::numeric_limits<double>::digits10
PUBLIC	?max_digits10@?$numeric_limits@N@std@@2HB	; std::numeric_limits<double>::max_digits10
PUBLIC	?max_exponent@?$numeric_limits@N@std@@2HB	; std::numeric_limits<double>::max_exponent
PUBLIC	?max_exponent10@?$numeric_limits@N@std@@2HB	; std::numeric_limits<double>::max_exponent10
PUBLIC	?min_exponent@?$numeric_limits@N@std@@2HB	; std::numeric_limits<double>::min_exponent
PUBLIC	?min_exponent10@?$numeric_limits@N@std@@2HB	; std::numeric_limits<double>::min_exponent10
PUBLIC	?skipws@?$_Iosb@H@std@@2W4_Fmtflags@12@B	; std::_Iosb<int>::skipws
PUBLIC	?unitbuf@?$_Iosb@H@std@@2W4_Fmtflags@12@B	; std::_Iosb<int>::unitbuf
PUBLIC	?uppercase@?$_Iosb@H@std@@2W4_Fmtflags@12@B	; std::_Iosb<int>::uppercase
PUBLIC	?showbase@?$_Iosb@H@std@@2W4_Fmtflags@12@B	; std::_Iosb<int>::showbase
PUBLIC	?showpoint@?$_Iosb@H@std@@2W4_Fmtflags@12@B	; std::_Iosb<int>::showpoint
PUBLIC	?digits@?$numeric_limits@O@std@@2HB		; std::numeric_limits<long double>::digits
PUBLIC	?showpos@?$_Iosb@H@std@@2W4_Fmtflags@12@B	; std::_Iosb<int>::showpos
PUBLIC	?left@?$_Iosb@H@std@@2W4_Fmtflags@12@B		; std::_Iosb<int>::left
PUBLIC	?digits10@?$numeric_limits@O@std@@2HB		; std::numeric_limits<long double>::digits10
PUBLIC	?max_digits10@?$numeric_limits@O@std@@2HB	; std::numeric_limits<long double>::max_digits10
PUBLIC	?right@?$_Iosb@H@std@@2W4_Fmtflags@12@B		; std::_Iosb<int>::right
PUBLIC	?internal@?$_Iosb@H@std@@2W4_Fmtflags@12@B	; std::_Iosb<int>::internal
PUBLIC	?max_exponent@?$numeric_limits@O@std@@2HB	; std::numeric_limits<long double>::max_exponent
PUBLIC	?dec@?$_Iosb@H@std@@2W4_Fmtflags@12@B		; std::_Iosb<int>::dec
PUBLIC	?max_exponent10@?$numeric_limits@O@std@@2HB	; std::numeric_limits<long double>::max_exponent10
PUBLIC	?oct@?$_Iosb@H@std@@2W4_Fmtflags@12@B		; std::_Iosb<int>::oct
PUBLIC	?hex@?$_Iosb@H@std@@2W4_Fmtflags@12@B		; std::_Iosb<int>::hex
PUBLIC	?min_exponent@?$numeric_limits@O@std@@2HB	; std::numeric_limits<long double>::min_exponent
PUBLIC	?scientific@?$_Iosb@H@std@@2W4_Fmtflags@12@B	; std::_Iosb<int>::scientific
PUBLIC	?min_exponent10@?$numeric_limits@O@std@@2HB	; std::numeric_limits<long double>::min_exponent10
PUBLIC	?fixed@?$_Iosb@H@std@@2W4_Fmtflags@12@B		; std::_Iosb<int>::fixed
PUBLIC	?hexfloat@?$_Iosb@H@std@@2W4_Fmtflags@12@B	; std::_Iosb<int>::hexfloat
PUBLIC	?boolalpha@?$_Iosb@H@std@@2W4_Fmtflags@12@B	; std::_Iosb<int>::boolalpha
PUBLIC	?_Stdio@?$_Iosb@H@std@@2W4_Fmtflags@12@B	; std::_Iosb<int>::_Stdio
PUBLIC	?adjustfield@?$_Iosb@H@std@@2W4_Fmtflags@12@B	; std::_Iosb<int>::adjustfield
PUBLIC	?basefield@?$_Iosb@H@std@@2W4_Fmtflags@12@B	; std::_Iosb<int>::basefield
PUBLIC	?floatfield@?$_Iosb@H@std@@2W4_Fmtflags@12@B	; std::_Iosb<int>::floatfield
PUBLIC	?goodbit@?$_Iosb@H@std@@2W4_Iostate@12@B	; std::_Iosb<int>::goodbit
PUBLIC	?eofbit@?$_Iosb@H@std@@2W4_Iostate@12@B		; std::_Iosb<int>::eofbit
PUBLIC	?failbit@?$_Iosb@H@std@@2W4_Iostate@12@B	; std::_Iosb<int>::failbit
PUBLIC	?badbit@?$_Iosb@H@std@@2W4_Iostate@12@B		; std::_Iosb<int>::badbit
PUBLIC	?_Hardfail@?$_Iosb@H@std@@2W4_Iostate@12@B	; std::_Iosb<int>::_Hardfail
PUBLIC	?in@?$_Iosb@H@std@@2W4_Openmode@12@B		; std::_Iosb<int>::in
PUBLIC	?out@?$_Iosb@H@std@@2W4_Openmode@12@B		; std::_Iosb<int>::out
PUBLIC	?ate@?$_Iosb@H@std@@2W4_Openmode@12@B		; std::_Iosb<int>::ate
PUBLIC	?app@?$_Iosb@H@std@@2W4_Openmode@12@B		; std::_Iosb<int>::app
PUBLIC	?trunc@?$_Iosb@H@std@@2W4_Openmode@12@B		; std::_Iosb<int>::trunc
PUBLIC	?_Nocreate@?$_Iosb@H@std@@2W4_Openmode@12@B	; std::_Iosb<int>::_Nocreate
PUBLIC	?_Noreplace@?$_Iosb@H@std@@2W4_Openmode@12@B	; std::_Iosb<int>::_Noreplace
PUBLIC	?binary@?$_Iosb@H@std@@2W4_Openmode@12@B	; std::_Iosb<int>::binary
PUBLIC	?beg@?$_Iosb@H@std@@2W4_Seekdir@12@B		; std::_Iosb<int>::beg
PUBLIC	?cur@?$_Iosb@H@std@@2W4_Seekdir@12@B		; std::_Iosb<int>::cur
PUBLIC	?end@?$_Iosb@H@std@@2W4_Seekdir@12@B		; std::_Iosb<int>::end
PUBLIC	?_Stream_err@failure@ios_base@std@@0W4io_errc@43@B ; std::ios_base::failure::_Stream_err
PUBLIC	?value@?$_Sizeof@U_Nil@std@@U12@U12@U12@U12@U12@U12@U12@@std@@2IB ; std::_Sizeof<std::_Nil,std::_Nil,std::_Nil,std::_Nil,std::_Nil,std::_Nil,std::_Nil,std::_Nil>::value
PUBLIC	?has_denorm@_Num_base@std@@2W4float_denorm_style@2@B ; std::_Num_base::has_denorm
PUBLIC	?has_denorm_loss@_Num_base@std@@2_NB		; std::_Num_base::has_denorm_loss
PUBLIC	?has_infinity@_Num_base@std@@2_NB		; std::_Num_base::has_infinity
PUBLIC	?has_quiet_NaN@_Num_base@std@@2_NB		; std::_Num_base::has_quiet_NaN
PUBLIC	?has_signaling_NaN@_Num_base@std@@2_NB		; std::_Num_base::has_signaling_NaN
PUBLIC	?is_bounded@_Num_base@std@@2_NB			; std::_Num_base::is_bounded
PUBLIC	?is_exact@_Num_base@std@@2_NB			; std::_Num_base::is_exact
PUBLIC	?is_iec559@_Num_base@std@@2_NB			; std::_Num_base::is_iec559
PUBLIC	?is_integer@_Num_base@std@@2_NB			; std::_Num_base::is_integer
PUBLIC	?is_modulo@_Num_base@std@@2_NB			; std::_Num_base::is_modulo
PUBLIC	?is_signed@_Num_base@std@@2_NB			; std::_Num_base::is_signed
PUBLIC	?is_specialized@_Num_base@std@@2_NB		; std::_Num_base::is_specialized
PUBLIC	?tinyness_before@_Num_base@std@@2_NB		; std::_Num_base::tinyness_before
_BSS	SEGMENT
?flash@HarmTargetingPod@@1HA DD 01H DUP (?)		; HarmTargetingPod::flash
_BSS	ENDS
;	COMDAT ?tinyness_before@_Num_base@std@@2_NB
CONST	SEGMENT
?tinyness_before@_Num_base@std@@2_NB DB 00H		; std::_Num_base::tinyness_before
CONST	ENDS
;	COMDAT ?is_specialized@_Num_base@std@@2_NB
CONST	SEGMENT
?is_specialized@_Num_base@std@@2_NB DB 00H		; std::_Num_base::is_specialized
CONST	ENDS
;	COMDAT ?is_signed@_Num_base@std@@2_NB
CONST	SEGMENT
?is_signed@_Num_base@std@@2_NB DB 00H			; std::_Num_base::is_signed
CONST	ENDS
;	COMDAT ?is_modulo@_Num_base@std@@2_NB
CONST	SEGMENT
?is_modulo@_Num_base@std@@2_NB DB 00H			; std::_Num_base::is_modulo
CONST	ENDS
;	COMDAT ?is_integer@_Num_base@std@@2_NB
CONST	SEGMENT
?is_integer@_Num_base@std@@2_NB DB 00H			; std::_Num_base::is_integer
CONST	ENDS
;	COMDAT ?is_iec559@_Num_base@std@@2_NB
CONST	SEGMENT
?is_iec559@_Num_base@std@@2_NB DB 00H			; std::_Num_base::is_iec559
CONST	ENDS
;	COMDAT ?is_exact@_Num_base@std@@2_NB
CONST	SEGMENT
?is_exact@_Num_base@std@@2_NB DB 00H			; std::_Num_base::is_exact
CONST	ENDS
;	COMDAT ?is_bounded@_Num_base@std@@2_NB
CONST	SEGMENT
?is_bounded@_Num_base@std@@2_NB DB 00H			; std::_Num_base::is_bounded
CONST	ENDS
;	COMDAT ?has_signaling_NaN@_Num_base@std@@2_NB
CONST	SEGMENT
?has_signaling_NaN@_Num_base@std@@2_NB DB 00H		; std::_Num_base::has_signaling_NaN
CONST	ENDS
;	COMDAT ?has_quiet_NaN@_Num_base@std@@2_NB
CONST	SEGMENT
?has_quiet_NaN@_Num_base@std@@2_NB DB 00H		; std::_Num_base::has_quiet_NaN
CONST	ENDS
;	COMDAT ?has_infinity@_Num_base@std@@2_NB
CONST	SEGMENT
?has_infinity@_Num_base@std@@2_NB DB 00H		; std::_Num_base::has_infinity
CONST	ENDS
;	COMDAT ?has_denorm_loss@_Num_base@std@@2_NB
CONST	SEGMENT
?has_denorm_loss@_Num_base@std@@2_NB DB 00H		; std::_Num_base::has_denorm_loss
CONST	ENDS
;	COMDAT ?has_denorm@_Num_base@std@@2W4float_denorm_style@2@B
CONST	SEGMENT
?has_denorm@_Num_base@std@@2W4float_denorm_style@2@B DD 00H ; std::_Num_base::has_denorm
CONST	ENDS
;	COMDAT ?value@?$_Sizeof@U_Nil@std@@U12@U12@U12@U12@U12@U12@U12@@std@@2IB
CONST	SEGMENT
?value@?$_Sizeof@U_Nil@std@@U12@U12@U12@U12@U12@U12@U12@@std@@2IB DD 00H ; std::_Sizeof<std::_Nil,std::_Nil,std::_Nil,std::_Nil,std::_Nil,std::_Nil,std::_Nil,std::_Nil>::value
CONST	ENDS
;	COMDAT ?_Stream_err@failure@ios_base@std@@0W4io_errc@43@B
CONST	SEGMENT
?_Stream_err@failure@ios_base@std@@0W4io_errc@43@B DD 01H ; std::ios_base::failure::_Stream_err
CONST	ENDS
;	COMDAT ?end@?$_Iosb@H@std@@2W4_Seekdir@12@B
CONST	SEGMENT
?end@?$_Iosb@H@std@@2W4_Seekdir@12@B DD 02H		; std::_Iosb<int>::end
CONST	ENDS
;	COMDAT ?cur@?$_Iosb@H@std@@2W4_Seekdir@12@B
CONST	SEGMENT
?cur@?$_Iosb@H@std@@2W4_Seekdir@12@B DD 01H		; std::_Iosb<int>::cur
CONST	ENDS
;	COMDAT ?beg@?$_Iosb@H@std@@2W4_Seekdir@12@B
CONST	SEGMENT
?beg@?$_Iosb@H@std@@2W4_Seekdir@12@B DD 00H		; std::_Iosb<int>::beg
CONST	ENDS
;	COMDAT ?binary@?$_Iosb@H@std@@2W4_Openmode@12@B
CONST	SEGMENT
?binary@?$_Iosb@H@std@@2W4_Openmode@12@B DD 020H	; std::_Iosb<int>::binary
CONST	ENDS
;	COMDAT ?_Noreplace@?$_Iosb@H@std@@2W4_Openmode@12@B
CONST	SEGMENT
?_Noreplace@?$_Iosb@H@std@@2W4_Openmode@12@B DD 080H	; std::_Iosb<int>::_Noreplace
CONST	ENDS
;	COMDAT ?_Nocreate@?$_Iosb@H@std@@2W4_Openmode@12@B
CONST	SEGMENT
?_Nocreate@?$_Iosb@H@std@@2W4_Openmode@12@B DD 040H	; std::_Iosb<int>::_Nocreate
CONST	ENDS
;	COMDAT ?trunc@?$_Iosb@H@std@@2W4_Openmode@12@B
CONST	SEGMENT
?trunc@?$_Iosb@H@std@@2W4_Openmode@12@B DD 010H		; std::_Iosb<int>::trunc
CONST	ENDS
;	COMDAT ?app@?$_Iosb@H@std@@2W4_Openmode@12@B
CONST	SEGMENT
?app@?$_Iosb@H@std@@2W4_Openmode@12@B DD 08H		; std::_Iosb<int>::app
CONST	ENDS
;	COMDAT ?ate@?$_Iosb@H@std@@2W4_Openmode@12@B
CONST	SEGMENT
?ate@?$_Iosb@H@std@@2W4_Openmode@12@B DD 04H		; std::_Iosb<int>::ate
CONST	ENDS
;	COMDAT ?out@?$_Iosb@H@std@@2W4_Openmode@12@B
CONST	SEGMENT
?out@?$_Iosb@H@std@@2W4_Openmode@12@B DD 02H		; std::_Iosb<int>::out
CONST	ENDS
;	COMDAT ?in@?$_Iosb@H@std@@2W4_Openmode@12@B
CONST	SEGMENT
?in@?$_Iosb@H@std@@2W4_Openmode@12@B DD 01H		; std::_Iosb<int>::in
CONST	ENDS
;	COMDAT ?_Hardfail@?$_Iosb@H@std@@2W4_Iostate@12@B
CONST	SEGMENT
?_Hardfail@?$_Iosb@H@std@@2W4_Iostate@12@B DD 010H	; std::_Iosb<int>::_Hardfail
CONST	ENDS
;	COMDAT ?badbit@?$_Iosb@H@std@@2W4_Iostate@12@B
CONST	SEGMENT
?badbit@?$_Iosb@H@std@@2W4_Iostate@12@B DD 04H		; std::_Iosb<int>::badbit
CONST	ENDS
;	COMDAT ?failbit@?$_Iosb@H@std@@2W4_Iostate@12@B
CONST	SEGMENT
?failbit@?$_Iosb@H@std@@2W4_Iostate@12@B DD 02H		; std::_Iosb<int>::failbit
CONST	ENDS
;	COMDAT ?eofbit@?$_Iosb@H@std@@2W4_Iostate@12@B
CONST	SEGMENT
?eofbit@?$_Iosb@H@std@@2W4_Iostate@12@B DD 01H		; std::_Iosb<int>::eofbit
CONST	ENDS
;	COMDAT ?goodbit@?$_Iosb@H@std@@2W4_Iostate@12@B
CONST	SEGMENT
?goodbit@?$_Iosb@H@std@@2W4_Iostate@12@B DD 00H		; std::_Iosb<int>::goodbit
CONST	ENDS
;	COMDAT ?floatfield@?$_Iosb@H@std@@2W4_Fmtflags@12@B
CONST	SEGMENT
?floatfield@?$_Iosb@H@std@@2W4_Fmtflags@12@B DD 03000H	; std::_Iosb<int>::floatfield
CONST	ENDS
;	COMDAT ?basefield@?$_Iosb@H@std@@2W4_Fmtflags@12@B
CONST	SEGMENT
?basefield@?$_Iosb@H@std@@2W4_Fmtflags@12@B DD 0e00H	; std::_Iosb<int>::basefield
CONST	ENDS
;	COMDAT ?adjustfield@?$_Iosb@H@std@@2W4_Fmtflags@12@B
CONST	SEGMENT
?adjustfield@?$_Iosb@H@std@@2W4_Fmtflags@12@B DD 01c0H	; std::_Iosb<int>::adjustfield
CONST	ENDS
;	COMDAT ?_Stdio@?$_Iosb@H@std@@2W4_Fmtflags@12@B
CONST	SEGMENT
?_Stdio@?$_Iosb@H@std@@2W4_Fmtflags@12@B DD 08000H	; std::_Iosb<int>::_Stdio
CONST	ENDS
;	COMDAT ?boolalpha@?$_Iosb@H@std@@2W4_Fmtflags@12@B
CONST	SEGMENT
?boolalpha@?$_Iosb@H@std@@2W4_Fmtflags@12@B DD 04000H	; std::_Iosb<int>::boolalpha
CONST	ENDS
;	COMDAT ?hexfloat@?$_Iosb@H@std@@2W4_Fmtflags@12@B
CONST	SEGMENT
?hexfloat@?$_Iosb@H@std@@2W4_Fmtflags@12@B DD 03000H	; std::_Iosb<int>::hexfloat
CONST	ENDS
;	COMDAT ?fixed@?$_Iosb@H@std@@2W4_Fmtflags@12@B
CONST	SEGMENT
?fixed@?$_Iosb@H@std@@2W4_Fmtflags@12@B DD 02000H	; std::_Iosb<int>::fixed
CONST	ENDS
;	COMDAT ?min_exponent10@?$numeric_limits@O@std@@2HB
CONST	SEGMENT
?min_exponent10@?$numeric_limits@O@std@@2HB DD 0fffffecdH ; std::numeric_limits<long double>::min_exponent10
CONST	ENDS
;	COMDAT ?scientific@?$_Iosb@H@std@@2W4_Fmtflags@12@B
CONST	SEGMENT
?scientific@?$_Iosb@H@std@@2W4_Fmtflags@12@B DD 01000H	; std::_Iosb<int>::scientific
CONST	ENDS
;	COMDAT ?min_exponent@?$numeric_limits@O@std@@2HB
CONST	SEGMENT
?min_exponent@?$numeric_limits@O@std@@2HB DD 0fffffc03H	; std::numeric_limits<long double>::min_exponent
CONST	ENDS
;	COMDAT ?hex@?$_Iosb@H@std@@2W4_Fmtflags@12@B
CONST	SEGMENT
?hex@?$_Iosb@H@std@@2W4_Fmtflags@12@B DD 0800H		; std::_Iosb<int>::hex
CONST	ENDS
;	COMDAT ?oct@?$_Iosb@H@std@@2W4_Fmtflags@12@B
CONST	SEGMENT
?oct@?$_Iosb@H@std@@2W4_Fmtflags@12@B DD 0400H		; std::_Iosb<int>::oct
CONST	ENDS
;	COMDAT ?max_exponent10@?$numeric_limits@O@std@@2HB
CONST	SEGMENT
?max_exponent10@?$numeric_limits@O@std@@2HB DD 0134H	; std::numeric_limits<long double>::max_exponent10
CONST	ENDS
;	COMDAT ?dec@?$_Iosb@H@std@@2W4_Fmtflags@12@B
CONST	SEGMENT
?dec@?$_Iosb@H@std@@2W4_Fmtflags@12@B DD 0200H		; std::_Iosb<int>::dec
CONST	ENDS
;	COMDAT ?max_exponent@?$numeric_limits@O@std@@2HB
CONST	SEGMENT
?max_exponent@?$numeric_limits@O@std@@2HB DD 0400H	; std::numeric_limits<long double>::max_exponent
CONST	ENDS
;	COMDAT ?internal@?$_Iosb@H@std@@2W4_Fmtflags@12@B
CONST	SEGMENT
?internal@?$_Iosb@H@std@@2W4_Fmtflags@12@B DD 0100H	; std::_Iosb<int>::internal
CONST	ENDS
;	COMDAT ?right@?$_Iosb@H@std@@2W4_Fmtflags@12@B
CONST	SEGMENT
?right@?$_Iosb@H@std@@2W4_Fmtflags@12@B DD 080H		; std::_Iosb<int>::right
CONST	ENDS
;	COMDAT ?max_digits10@?$numeric_limits@O@std@@2HB
CONST	SEGMENT
?max_digits10@?$numeric_limits@O@std@@2HB DD 011H	; std::numeric_limits<long double>::max_digits10
CONST	ENDS
;	COMDAT ?digits10@?$numeric_limits@O@std@@2HB
CONST	SEGMENT
?digits10@?$numeric_limits@O@std@@2HB DD 0fH		; std::numeric_limits<long double>::digits10
CONST	ENDS
;	COMDAT ?left@?$_Iosb@H@std@@2W4_Fmtflags@12@B
CONST	SEGMENT
?left@?$_Iosb@H@std@@2W4_Fmtflags@12@B DD 040H		; std::_Iosb<int>::left
CONST	ENDS
;	COMDAT ?showpos@?$_Iosb@H@std@@2W4_Fmtflags@12@B
CONST	SEGMENT
?showpos@?$_Iosb@H@std@@2W4_Fmtflags@12@B DD 020H	; std::_Iosb<int>::showpos
CONST	ENDS
;	COMDAT ?digits@?$numeric_limits@O@std@@2HB
CONST	SEGMENT
?digits@?$numeric_limits@O@std@@2HB DD 035H		; std::numeric_limits<long double>::digits
CONST	ENDS
;	COMDAT ?showpoint@?$_Iosb@H@std@@2W4_Fmtflags@12@B
CONST	SEGMENT
?showpoint@?$_Iosb@H@std@@2W4_Fmtflags@12@B DD 010H	; std::_Iosb<int>::showpoint
CONST	ENDS
;	COMDAT ?showbase@?$_Iosb@H@std@@2W4_Fmtflags@12@B
CONST	SEGMENT
?showbase@?$_Iosb@H@std@@2W4_Fmtflags@12@B DD 08H	; std::_Iosb<int>::showbase
CONST	ENDS
;	COMDAT ?uppercase@?$_Iosb@H@std@@2W4_Fmtflags@12@B
CONST	SEGMENT
?uppercase@?$_Iosb@H@std@@2W4_Fmtflags@12@B DD 04H	; std::_Iosb<int>::uppercase
CONST	ENDS
;	COMDAT ?unitbuf@?$_Iosb@H@std@@2W4_Fmtflags@12@B
CONST	SEGMENT
?unitbuf@?$_Iosb@H@std@@2W4_Fmtflags@12@B DD 02H	; std::_Iosb<int>::unitbuf
CONST	ENDS
;	COMDAT ?skipws@?$_Iosb@H@std@@2W4_Fmtflags@12@B
CONST	SEGMENT
?skipws@?$_Iosb@H@std@@2W4_Fmtflags@12@B DD 01H		; std::_Iosb<int>::skipws
CONST	ENDS
;	COMDAT ?min_exponent10@?$numeric_limits@N@std@@2HB
CONST	SEGMENT
?min_exponent10@?$numeric_limits@N@std@@2HB DD 0fffffecdH ; std::numeric_limits<double>::min_exponent10
CONST	ENDS
;	COMDAT ?min_exponent@?$numeric_limits@N@std@@2HB
CONST	SEGMENT
?min_exponent@?$numeric_limits@N@std@@2HB DD 0fffffc03H	; std::numeric_limits<double>::min_exponent
CONST	ENDS
;	COMDAT ?max_exponent10@?$numeric_limits@N@std@@2HB
CONST	SEGMENT
?max_exponent10@?$numeric_limits@N@std@@2HB DD 0134H	; std::numeric_limits<double>::max_exponent10
CONST	ENDS
;	COMDAT ?max_exponent@?$numeric_limits@N@std@@2HB
CONST	SEGMENT
?max_exponent@?$numeric_limits@N@std@@2HB DD 0400H	; std::numeric_limits<double>::max_exponent
CONST	ENDS
;	COMDAT ?max_digits10@?$numeric_limits@N@std@@2HB
CONST	SEGMENT
?max_digits10@?$numeric_limits@N@std@@2HB DD 011H	; std::numeric_limits<double>::max_digits10
CONST	ENDS
;	COMDAT ?digits10@?$numeric_limits@N@std@@2HB
CONST	SEGMENT
?digits10@?$numeric_limits@N@std@@2HB DD 0fH		; std::numeric_limits<double>::digits10
CONST	ENDS
;	COMDAT ?digits@?$numeric_limits@N@std@@2HB
CONST	SEGMENT
?digits@?$numeric_limits@N@std@@2HB DD 035H		; std::numeric_limits<double>::digits
CONST	ENDS
;	COMDAT ?value@?$integral_constant@I$0A@@std@@2IB
CONST	SEGMENT
?value@?$integral_constant@I$0A@@std@@2IB DD 00H	; std::integral_constant<unsigned int,0>::value
CONST	ENDS
;	COMDAT ?min_exponent10@?$numeric_limits@M@std@@2HB
CONST	SEGMENT
?min_exponent10@?$numeric_limits@M@std@@2HB DD 0ffffffdbH ; std::numeric_limits<float>::min_exponent10
CONST	ENDS
;	COMDAT ?min_exponent@?$numeric_limits@M@std@@2HB
CONST	SEGMENT
?min_exponent@?$numeric_limits@M@std@@2HB DD 0ffffff83H	; std::numeric_limits<float>::min_exponent
CONST	ENDS
;	COMDAT ?max_exponent10@?$numeric_limits@M@std@@2HB
CONST	SEGMENT
?max_exponent10@?$numeric_limits@M@std@@2HB DD 026H	; std::numeric_limits<float>::max_exponent10
CONST	ENDS
;	COMDAT ?max_exponent@?$numeric_limits@M@std@@2HB
CONST	SEGMENT
?max_exponent@?$numeric_limits@M@std@@2HB DD 080H	; std::numeric_limits<float>::max_exponent
CONST	ENDS
;	COMDAT ?max_digits10@?$numeric_limits@M@std@@2HB
CONST	SEGMENT
?max_digits10@?$numeric_limits@M@std@@2HB DD 09H	; std::numeric_limits<float>::max_digits10
CONST	ENDS
;	COMDAT ?digits10@?$numeric_limits@M@std@@2HB
CONST	SEGMENT
?digits10@?$numeric_limits@M@std@@2HB DD 06H		; std::numeric_limits<float>::digits10
CONST	ENDS
;	COMDAT ?digits@?$numeric_limits@M@std@@2HB
CONST	SEGMENT
?digits@?$numeric_limits@M@std@@2HB DD 018H		; std::numeric_limits<float>::digits
CONST	ENDS
;	COMDAT ?digits10@?$numeric_limits@_K@std@@2HB
CONST	SEGMENT
?digits10@?$numeric_limits@_K@std@@2HB DD 013H		; std::numeric_limits<unsigned __int64>::digits10
CONST	ENDS
;	COMDAT ?digits@?$numeric_limits@_K@std@@2HB
CONST	SEGMENT
?digits@?$numeric_limits@_K@std@@2HB DD 040H		; std::numeric_limits<unsigned __int64>::digits
CONST	ENDS
;	COMDAT ?is_signed@?$numeric_limits@_K@std@@2_NB
CONST	SEGMENT
?is_signed@?$numeric_limits@_K@std@@2_NB DB 00H		; std::numeric_limits<unsigned __int64>::is_signed
CONST	ENDS
;	COMDAT ?digits10@?$numeric_limits@_J@std@@2HB
CONST	SEGMENT
?digits10@?$numeric_limits@_J@std@@2HB DD 012H		; std::numeric_limits<__int64>::digits10
CONST	ENDS
;	COMDAT ?digits@?$numeric_limits@_J@std@@2HB
CONST	SEGMENT
?digits@?$numeric_limits@_J@std@@2HB DD 03fH		; std::numeric_limits<__int64>::digits
CONST	ENDS
;	COMDAT ?is_signed@?$numeric_limits@_J@std@@2_NB
CONST	SEGMENT
?is_signed@?$numeric_limits@_J@std@@2_NB DB 01H		; std::numeric_limits<__int64>::is_signed
CONST	ENDS
;	COMDAT ?digits10@?$numeric_limits@K@std@@2HB
CONST	SEGMENT
?digits10@?$numeric_limits@K@std@@2HB DD 09H		; std::numeric_limits<unsigned long>::digits10
CONST	ENDS
;	COMDAT ?digits@?$numeric_limits@K@std@@2HB
CONST	SEGMENT
?digits@?$numeric_limits@K@std@@2HB DD 020H		; std::numeric_limits<unsigned long>::digits
CONST	ENDS
;	COMDAT ?is_signed@?$numeric_limits@K@std@@2_NB
CONST	SEGMENT
?is_signed@?$numeric_limits@K@std@@2_NB DB 00H		; std::numeric_limits<unsigned long>::is_signed
CONST	ENDS
;	COMDAT ?digits10@?$numeric_limits@J@std@@2HB
CONST	SEGMENT
?digits10@?$numeric_limits@J@std@@2HB DD 09H		; std::numeric_limits<long>::digits10
CONST	ENDS
;	COMDAT ?digits@?$numeric_limits@J@std@@2HB
CONST	SEGMENT
?digits@?$numeric_limits@J@std@@2HB DD 01fH		; std::numeric_limits<long>::digits
CONST	ENDS
;	COMDAT ?is_signed@?$numeric_limits@J@std@@2_NB
CONST	SEGMENT
?is_signed@?$numeric_limits@J@std@@2_NB DB 01H		; std::numeric_limits<long>::is_signed
CONST	ENDS
;	COMDAT ?digits10@?$numeric_limits@I@std@@2HB
CONST	SEGMENT
?digits10@?$numeric_limits@I@std@@2HB DD 09H		; std::numeric_limits<unsigned int>::digits10
CONST	ENDS
;	COMDAT ?digits@?$numeric_limits@I@std@@2HB
CONST	SEGMENT
?digits@?$numeric_limits@I@std@@2HB DD 020H		; std::numeric_limits<unsigned int>::digits
CONST	ENDS
;	COMDAT ?is_signed@?$numeric_limits@I@std@@2_NB
CONST	SEGMENT
?is_signed@?$numeric_limits@I@std@@2_NB DB 00H		; std::numeric_limits<unsigned int>::is_signed
CONST	ENDS
_DATA	SEGMENT
_cloudPntList DD 0c5bcc000r			; -6040
	DD	0c4070000r			; -540
	DD	0c694ac00r			; -19030
	DD	0c6de1c00r			; -28430
	DD	0c4dfc000r			; -1790
	DD	046dcc800r			; 28260
	DD	047104200r			; 36930
	DD	045732000r			; 3890
	DD	04744ea00r			; 50410
	DD	045336000r			; 2870
	DD	0c4d48000r			; -1700
	DD	04736da00r			; 46810
	DD	0c763ee00r			; -58350
	DD	0c4d48000r			; -1700
	DD	0c64c1000r			; -13060
	DD	046f2bc00r			; 31070
	DD	045480000r			; 3200
	DD	0c7293800r			; -43320
	DD	0c7bdc400r			; -97160
	DD	0c4d48000r			; -1700
	DD	04576e000r			; 3950
	DD	0c792e000r			; -75200
	DD	0c4bb8000r			; -1500
	DD	047957400r			; 76520
	DD	04759ee00r			; 55790
	DD	0c5a1e000r			; -5180
	DD	0c7a24e00r			; -83100
	DD	0c7473800r			; -51000
	DD	0c3a00000r			; -320
	DD	0c7829100r			; -66850
	DD	047733400r			; 62260
	DD	0c3a00000r			; -320
	DD	047708200r			; 61570
	DD	0c7710e00r			; -61710
	DD	0c550c000r			; -3340
	DD	046fb7c00r			; 32190
	DD	0c7719a00r			; -61850
	DD	0c7483200r			; -51250
	DD	047543a00r			; 54330
	DD	0c5bcc000r			; -6040
	DD	0c7495400r			; -51540
	DD	0c694ac00r			; -19030
	DD	0c6a7a800r			; -21460
	DD	0c74b0200r			; -51970
	DD	0468e8000r			; 18240
	DD	047298800r			; 43400
	DD	0c74bf200r			; -52210
	DD	046bc7000r			; 24120
	DD	0c749f400r			; -51700
	DD	0c74bc000r			; -52160
	DD	046948400r			; 19010
	DD	0c605e800r			; -8570
	DD	0c7488200r			; -51330
	DD	0c74ca600r			; -52390
	DD	04731bc00r			; 45500
	DD	0c7509800r			; -53400
	DD	0c6725800r			; -15510
	DD	0c7719a00r			; -61850
	DD	0c7483200r			; -51250
	DD	047543a00r			; 54330
	DD	047553400r			; 54580
	DD	0c74ddc00r			; -52700
	DD	0479a5600r			; 79020
	DD	047a7e400r			; 85960
	DD	0c74c5600r			; -52310
	DD	0477d4800r			; 64840
	DD	0c7c44500r			; -100490
	DD	0c74d1400r			; -52500
	DD	047ac2600r			; 88140
	DD	0c7a1ae00r			; -82780
	DD	0c749ea00r			; -51690
	DD	0c7bce300r			; -96710
	DD	0c6126800r			; -9370
	DD	0c7495400r			; -51540
	DD	043cd0000r			; 410
	DD	0c6a7a800r			; -21460
	DD	0c74a8a00r			; -51850
	DD	0473fae00r			; 49070
	DD	0457c8000r			; 4040
	DD	0c74e4a00r			; -52810
	DD	047871e00r			; 69180
	DD	0c6cbc000r			; -26080
	DD	0c74bc000r			; -52160
	DD	046984400r			; 19490
	DD	0452fa000r			; 2810
	DD	0c7488200r			; -51330
	DD	0c7081800r			; -34840
	DD	0c7719a00r			; -61850
	DD	0c749d600r			; -51670
	DD	047b17600r			; 90860
	DD	047553400r			; 54580
	DD	0c74ddc00r			; -52700
	DD	0479a5600r			; 79020
	DD	047a7e400r			; 85960
	DD	0c74c5600r			; -52310
	DD	0477d4800r			; 64840
	DD	0c7c44500r			; -100490
	DD	0c74d1400r			; -52500
	DD	047ac2600r			; 88140
	DD	047c04e00r			; 98460
	DD	0c74d1400r			; -52500
	DD	0c732a200r			; -45730
	DD	0467b9000r			; 16100
	DD	0c7487800r			; -51320
	DD	0c749a400r			; -51620
	DD	047636c00r			; 58220
	DD	0c74e0400r			; -52740
	DD	0c760b000r			; -57520
	DD	0c6126800r			; -9370
	DD	0c4070000r			; -540
	DD	043cd0000r			; 410
	DD	0c4e60000r			; -1840
	DD	0c6a30c00r			; -20870
	DD	0470a6600r			; 35430
	DD	0c7230c00r			; -41740
	DD	046924000r			; 18720
	DD	04797d600r			; 77740
	DD	0460d9000r			; 9060
	DD	0c616c800r			; -9650
	DD	0c7921300r			; -74790
_lightningPosList DD 041300000r			; 11
	DD	000000000r			; 0
	DD	040e00000r			; 7
	DD	040a00000r			; 5
	DD	041100000r			; 9
	DD	041000000r			; 8
	DD	041000000r			; 8
	DD	041600000r			; 14
	DD	041800000r			; 16
	DD	041a00000r			; 20
	DD	041200000r			; 10
	DD	041c00000r			; 24
	DD	041300000r			; 11
	DD	041d80000r			; 27
	DD	040c00000r			; 6
	DD	041f00000r			; 30
	DD	040e00000r			; 7
	DD	042040000r			; 33
	DD	03f800000r			; 1
	DD	042180000r			; 38
	DD	040a00000r			; 5
	DD	042280000r			; 42
	DD	040a00000r			; 5
	DD	042340000r			; 45
	DD	041400000r			; 12
	DD	042400000r			; 48
	DD	041a00000r			; 20
	DD	042500000r			; 52
	DD	041a00000r			; 20
	DD	042680000r			; 58
	DD	041b80000r			; 23
	DD	042740000r			; 61
	DD	041b00000r			; 22
	DD	0427c0000r			; 63
	DD	041b00000r			; 22
	DD	042840000r			; 66
	DD	041c80000r			; 25
	DD	042880000r			; 68
	DD	041a00000r			; 20
	DD	0428c0000r			; 70
	DD	041c00000r			; 24
	DD	042960000r			; 75
	DD	041c00000r			; 24
	DD	0429a0000r			; 77
	DD	041f80000r			; 31
	DD	042a00000r			; 80
	DD	041f80000r			; 31
	DD	042a60000r			; 83
	DD	042040000r			; 33
	DD	042b00000r			; 88
	DD	041f80000r			; 31
	DD	042b80000r			; 92
	DD	0423c0000r			; 47
	DD	042ce0000r			; 103
	DD	042380000r			; 46
	DD	042d20000r			; 105
	DD	0423c0000r			; 47
	DD	042d60000r			; 107
	DD	042340000r			; 45
	DD	042e00000r			; 112
	DD	042400000r			; 48
	DD	042e40000r			; 114
	DD	042380000r			; 46
	DD	042ea0000r			; 117
	DD	0422c0000r			; 43
	DD	043000000r			; 128
_DATA	ENDS
;	COMDAT ?digits10@?$numeric_limits@H@std@@2HB
CONST	SEGMENT
?digits10@?$numeric_limits@H@std@@2HB DD 09H		; std::numeric_limits<int>::digits10
CONST	ENDS
;	COMDAT ?digits@?$numeric_limits@H@std@@2HB
CONST	SEGMENT
?digits@?$numeric_limits@H@std@@2HB DD 01fH		; std::numeric_limits<int>::digits
CONST	ENDS
;	COMDAT ?value@?$_Sizeof@HU_Nil@std@@U12@U12@U12@U12@U12@U12@@std@@2IB
CONST	SEGMENT
?value@?$_Sizeof@HU_Nil@std@@U12@U12@U12@U12@U12@U12@@std@@2IB DD 01H ; std::_Sizeof<int,std::_Nil,std::_Nil,std::_Nil,std::_Nil,std::_Nil,std::_Nil,std::_Nil>::value
CONST	ENDS
;	COMDAT ?is_signed@?$numeric_limits@H@std@@2_NB
CONST	SEGMENT
?is_signed@?$numeric_limits@H@std@@2_NB DB 01H		; std::numeric_limits<int>::is_signed
CONST	ENDS
;	COMDAT ?digits10@?$numeric_limits@G@std@@2HB
CONST	SEGMENT
?digits10@?$numeric_limits@G@std@@2HB DD 04H		; std::numeric_limits<unsigned short>::digits10
CONST	ENDS
;	COMDAT ?digits@?$numeric_limits@G@std@@2HB
CONST	SEGMENT
?digits@?$numeric_limits@G@std@@2HB DD 010H		; std::numeric_limits<unsigned short>::digits
CONST	ENDS
;	COMDAT ?is_signed@?$numeric_limits@G@std@@2_NB
CONST	SEGMENT
?is_signed@?$numeric_limits@G@std@@2_NB DB 00H		; std::numeric_limits<unsigned short>::is_signed
CONST	ENDS
;	COMDAT ?digits10@?$numeric_limits@F@std@@2HB
CONST	SEGMENT
?digits10@?$numeric_limits@F@std@@2HB DD 04H		; std::numeric_limits<short>::digits10
CONST	ENDS
;	COMDAT ?digits@?$numeric_limits@F@std@@2HB
CONST	SEGMENT
?digits@?$numeric_limits@F@std@@2HB DD 0fH		; std::numeric_limits<short>::digits
CONST	ENDS
;	COMDAT ?is_signed@?$numeric_limits@F@std@@2_NB
CONST	SEGMENT
?is_signed@?$numeric_limits@F@std@@2_NB DB 01H		; std::numeric_limits<short>::is_signed
CONST	ENDS
;	COMDAT ?value@?$integral_constant@_N$00@std@@2_NB
CONST	SEGMENT
?value@?$integral_constant@_N$00@std@@2_NB DB 01H	; std::integral_constant<bool,1>::value
CONST	ENDS
;	COMDAT ?digits10@?$numeric_limits@E@std@@2HB
CONST	SEGMENT
?digits10@?$numeric_limits@E@std@@2HB DD 02H		; std::numeric_limits<unsigned char>::digits10
CONST	ENDS
;	COMDAT ?digits@?$numeric_limits@E@std@@2HB
CONST	SEGMENT
?digits@?$numeric_limits@E@std@@2HB DD 08H		; std::numeric_limits<unsigned char>::digits
CONST	ENDS
;	COMDAT ?value@?$integral_constant@_N$0A@@std@@2_NB
CONST	SEGMENT
?value@?$integral_constant@_N$0A@@std@@2_NB DB 00H	; std::integral_constant<bool,0>::value
CONST	ENDS
;	COMDAT ?is_signed@?$numeric_limits@E@std@@2_NB
CONST	SEGMENT
?is_signed@?$numeric_limits@E@std@@2_NB DB 00H		; std::numeric_limits<unsigned char>::is_signed
CONST	ENDS
;	COMDAT ?digits10@?$numeric_limits@C@std@@2HB
CONST	SEGMENT
?digits10@?$numeric_limits@C@std@@2HB DD 02H		; std::numeric_limits<signed char>::digits10
CONST	ENDS
;	COMDAT ?digits@?$numeric_limits@C@std@@2HB
CONST	SEGMENT
?digits@?$numeric_limits@C@std@@2HB DD 07H		; std::numeric_limits<signed char>::digits
CONST	ENDS
;	COMDAT ?is_signed@?$numeric_limits@C@std@@2_NB
CONST	SEGMENT
?is_signed@?$numeric_limits@C@std@@2_NB DB 01H		; std::numeric_limits<signed char>::is_signed
CONST	ENDS
;	COMDAT ?table_size@?$ctype@D@std@@2IB
CONST	SEGMENT
?table_size@?$ctype@D@std@@2IB DD 0100H			; std::ctype<char>::table_size
CONST	ENDS
;	COMDAT ?digits10@?$numeric_limits@_N@std@@2HB
CONST	SEGMENT
?digits10@?$numeric_limits@_N@std@@2HB DD 00H		; std::numeric_limits<bool>::digits10
CONST	ENDS
;	COMDAT ?digits@?$numeric_limits@_N@std@@2HB
CONST	SEGMENT
?digits@?$numeric_limits@_N@std@@2HB DD 01H		; std::numeric_limits<bool>::digits
CONST	ENDS
;	COMDAT ?is_signed@?$numeric_limits@_N@std@@2_NB
CONST	SEGMENT
?is_signed@?$numeric_limits@_N@std@@2_NB DB 00H		; std::numeric_limits<bool>::is_signed
CONST	ENDS
;	COMDAT ?is_modulo@?$numeric_limits@_N@std@@2_NB
CONST	SEGMENT
?is_modulo@?$numeric_limits@_N@std@@2_NB DB 00H		; std::numeric_limits<bool>::is_modulo
CONST	ENDS
CONST	SEGMENT
?RANGE_POSITION@@3MB DD 0bf4ccccdr		; -0.8	; RANGE_POSITION
?RANGE_MIDPOINT@@3MB DD 03ee66666r		; 0.45	; RANGE_MIDPOINT
_NEAR_CLIP DD	03f800000r			; 1
_L_2	DD	03f317218r			; 0.693147
_CURSOR_SIZE DD	03d4ccccdr			; 0.05
CONST	ENDS
;	COMDAT ?digits10@?$numeric_limits@_W@std@@2HB
CONST	SEGMENT
?digits10@?$numeric_limits@_W@std@@2HB DD 04H		; std::numeric_limits<wchar_t>::digits10
CONST	ENDS
;	COMDAT ?digits@?$numeric_limits@_W@std@@2HB
CONST	SEGMENT
?digits@?$numeric_limits@_W@std@@2HB DD 010H		; std::numeric_limits<wchar_t>::digits
CONST	ENDS
;	COMDAT ?is_signed@?$numeric_limits@_W@std@@2_NB
CONST	SEGMENT
?is_signed@?$numeric_limits@_W@std@@2_NB DB 00H		; std::numeric_limits<wchar_t>::is_signed
CONST	ENDS
;	COMDAT ?digits10@?$numeric_limits@D@std@@2HB
CONST	SEGMENT
?digits10@?$numeric_limits@D@std@@2HB DD 02H		; std::numeric_limits<char>::digits10
CONST	ENDS
;	COMDAT ?digits@?$numeric_limits@D@std@@2HB
CONST	SEGMENT
?digits@?$numeric_limits@D@std@@2HB DD 07H		; std::numeric_limits<char>::digits
CONST	ENDS
;	COMDAT ?none@?$_Locbase@H@std@@2HB
CONST	SEGMENT
?none@?$_Locbase@H@std@@2HB DD 00H			; std::_Locbase<int>::none
CONST	ENDS
;	COMDAT ?is_signed@?$numeric_limits@D@std@@2_NB
CONST	SEGMENT
?is_signed@?$numeric_limits@D@std@@2_NB DB 01H		; std::numeric_limits<char>::is_signed
CONST	ENDS
;	COMDAT ?all@?$_Locbase@H@std@@2HB
CONST	SEGMENT
?all@?$_Locbase@H@std@@2HB DD 03fH			; std::_Locbase<int>::all
CONST	ENDS
;	COMDAT ?messages@?$_Locbase@H@std@@2HB
CONST	SEGMENT
?messages@?$_Locbase@H@std@@2HB DD 020H			; std::_Locbase<int>::messages
CONST	ENDS
;	COMDAT ?time@?$_Locbase@H@std@@2HB
CONST	SEGMENT
?time@?$_Locbase@H@std@@2HB DD 010H			; std::_Locbase<int>::time
CONST	ENDS
;	COMDAT ?numeric@?$_Locbase@H@std@@2HB
CONST	SEGMENT
?numeric@?$_Locbase@H@std@@2HB DD 08H			; std::_Locbase<int>::numeric
CONST	ENDS
;	COMDAT ?monetary@?$_Locbase@H@std@@2HB
CONST	SEGMENT
?monetary@?$_Locbase@H@std@@2HB DD 04H			; std::_Locbase<int>::monetary
CONST	ENDS
;	COMDAT ?ctype@?$_Locbase@H@std@@2HB
CONST	SEGMENT
?ctype@?$_Locbase@H@std@@2HB DD 02H			; std::_Locbase<int>::ctype
CONST	ENDS
;	COMDAT ?collate@?$_Locbase@H@std@@2HB
CONST	SEGMENT
?collate@?$_Locbase@H@std@@2HB DD 01H			; std::_Locbase<int>::collate
CONST	ENDS
;	COMDAT ?radix@_Num_float_base@std@@2HB
CONST	SEGMENT
?radix@_Num_float_base@std@@2HB DD 02H			; std::_Num_float_base::radix
CONST	ENDS
;	COMDAT ?round_style@_Num_float_base@std@@2W4float_round_style@2@B
CONST	SEGMENT
?round_style@_Num_float_base@std@@2W4float_round_style@2@B DD 01H ; std::_Num_float_base::round_style
CONST	ENDS
;	COMDAT ?traps@_Num_float_base@std@@2_NB
CONST	SEGMENT
?traps@_Num_float_base@std@@2_NB DB 00H			; std::_Num_float_base::traps
CONST	ENDS
;	COMDAT ?tinyness_before@_Num_float_base@std@@2_NB
CONST	SEGMENT
?tinyness_before@_Num_float_base@std@@2_NB DB 01H	; std::_Num_float_base::tinyness_before
CONST	ENDS
;	COMDAT ?is_specialized@_Num_float_base@std@@2_NB
CONST	SEGMENT
?is_specialized@_Num_float_base@std@@2_NB DB 01H	; std::_Num_float_base::is_specialized
CONST	ENDS
;	COMDAT ?is_signed@_Num_float_base@std@@2_NB
CONST	SEGMENT
?is_signed@_Num_float_base@std@@2_NB DB 01H		; std::_Num_float_base::is_signed
CONST	ENDS
;	COMDAT ?is_modulo@_Num_float_base@std@@2_NB
CONST	SEGMENT
?is_modulo@_Num_float_base@std@@2_NB DB 00H		; std::_Num_float_base::is_modulo
CONST	ENDS
;	COMDAT ?is_integer@_Num_float_base@std@@2_NB
CONST	SEGMENT
?is_integer@_Num_float_base@std@@2_NB DB 00H		; std::_Num_float_base::is_integer
CONST	ENDS
;	COMDAT ?is_iec559@_Num_float_base@std@@2_NB
CONST	SEGMENT
?is_iec559@_Num_float_base@std@@2_NB DB 01H		; std::_Num_float_base::is_iec559
CONST	ENDS
;	COMDAT ?is_exact@_Num_float_base@std@@2_NB
CONST	SEGMENT
?is_exact@_Num_float_base@std@@2_NB DB 00H		; std::_Num_float_base::is_exact
CONST	ENDS
;	COMDAT ?is_bounded@_Num_float_base@std@@2_NB
CONST	SEGMENT
?is_bounded@_Num_float_base@std@@2_NB DB 01H		; std::_Num_float_base::is_bounded
CONST	ENDS
;	COMDAT ?has_signaling_NaN@_Num_float_base@std@@2_NB
CONST	SEGMENT
?has_signaling_NaN@_Num_float_base@std@@2_NB DB 01H	; std::_Num_float_base::has_signaling_NaN
CONST	ENDS
;	COMDAT ?has_quiet_NaN@_Num_float_base@std@@2_NB
CONST	SEGMENT
?has_quiet_NaN@_Num_float_base@std@@2_NB DB 01H		; std::_Num_float_base::has_quiet_NaN
CONST	ENDS
;	COMDAT ?has_infinity@_Num_float_base@std@@2_NB
CONST	SEGMENT
?has_infinity@_Num_float_base@std@@2_NB DB 01H		; std::_Num_float_base::has_infinity
CONST	ENDS
;	COMDAT ?CMPDIRTYDATA_INTERVAL@FalconEntity@@2KB
CONST	SEGMENT
?CMPDIRTYDATA_INTERVAL@FalconEntity@@2KB DD 0c8H	; FalconEntity::CMPDIRTYDATA_INTERVAL
CONST	ENDS
;	COMDAT ?SIMDIRTYDATA_INTERVAL@FalconEntity@@2KB
CONST	SEGMENT
?SIMDIRTYDATA_INTERVAL@FalconEntity@@2KB DD 0c8H	; FalconEntity::SIMDIRTYDATA_INTERVAL
CONST	ENDS
;	COMDAT ?has_denorm_loss@_Num_float_base@std@@2_NB
CONST	SEGMENT
?has_denorm_loss@_Num_float_base@std@@2_NB DB 01H	; std::_Num_float_base::has_denorm_loss
CONST	ENDS
;	COMDAT ?has_denorm@_Num_float_base@std@@2W4float_denorm_style@2@B
CONST	SEGMENT
?has_denorm@_Num_float_base@std@@2W4float_denorm_style@2@B DD 01H ; std::_Num_float_base::has_denorm
CONST	ENDS
;	COMDAT ?radix@_Num_int_base@std@@2HB
CONST	SEGMENT
?radix@_Num_int_base@std@@2HB DD 02H			; std::_Num_int_base::radix
CONST	ENDS
;	COMDAT ?is_specialized@_Num_int_base@std@@2_NB
CONST	SEGMENT
?is_specialized@_Num_int_base@std@@2_NB DB 01H		; std::_Num_int_base::is_specialized
CONST	ENDS
;	COMDAT ?is_modulo@_Num_int_base@std@@2_NB
CONST	SEGMENT
?is_modulo@_Num_int_base@std@@2_NB DB 01H		; std::_Num_int_base::is_modulo
CONST	ENDS
;	COMDAT ?is_integer@_Num_int_base@std@@2_NB
CONST	SEGMENT
?is_integer@_Num_int_base@std@@2_NB DB 01H		; std::_Num_int_base::is_integer
CONST	ENDS
;	COMDAT ?is_exact@_Num_int_base@std@@2_NB
CONST	SEGMENT
?is_exact@_Num_int_base@std@@2_NB DB 01H		; std::_Num_int_base::is_exact
CONST	ENDS
;	COMDAT ?is_bounded@_Num_int_base@std@@2_NB
CONST	SEGMENT
?is_bounded@_Num_int_base@std@@2_NB DB 01H		; std::_Num_int_base::is_bounded
CONST	ENDS
;	COMDAT ?radix@_Num_base@std@@2HB
CONST	SEGMENT
?radix@_Num_base@std@@2HB DD 00H			; std::_Num_base::radix
CONST	ENDS
;	COMDAT ?min_exponent10@_Num_base@std@@2HB
CONST	SEGMENT
?min_exponent10@_Num_base@std@@2HB DD 00H		; std::_Num_base::min_exponent10
CONST	ENDS
;	COMDAT ?min_exponent@_Num_base@std@@2HB
CONST	SEGMENT
?min_exponent@_Num_base@std@@2HB DD 00H			; std::_Num_base::min_exponent
CONST	ENDS
;	COMDAT ?max_exponent10@_Num_base@std@@2HB
CONST	SEGMENT
?max_exponent10@_Num_base@std@@2HB DD 00H		; std::_Num_base::max_exponent10
CONST	ENDS
;	COMDAT ?max_exponent@_Num_base@std@@2HB
CONST	SEGMENT
?max_exponent@_Num_base@std@@2HB DD 00H			; std::_Num_base::max_exponent
CONST	ENDS
;	COMDAT ?max_digits10@_Num_base@std@@2HB
CONST	SEGMENT
?max_digits10@_Num_base@std@@2HB DD 00H			; std::_Num_base::max_digits10
CONST	ENDS
;	COMDAT ?digits10@_Num_base@std@@2HB
CONST	SEGMENT
?digits10@_Num_base@std@@2HB DD 00H			; std::_Num_base::digits10
CONST	ENDS
;	COMDAT ?digits@_Num_base@std@@2HB
CONST	SEGMENT
?digits@_Num_base@std@@2HB DD 00H			; std::_Num_base::digits
CONST	ENDS
;	COMDAT ?round_style@_Num_base@std@@2W4float_round_style@2@B
CONST	SEGMENT
?round_style@_Num_base@std@@2W4float_round_style@2@B DD 00H ; std::_Num_base::round_style
CONST	ENDS
;	COMDAT ?traps@_Num_base@std@@2_NB
CONST	SEGMENT
?traps@_Num_base@std@@2_NB DB 00H			; std::_Num_base::traps
CONST	ENDS
PUBLIC	_fabsf
PUBLIC	_atanf
PUBLIC	_cosf
PUBLIC	_sinf
PUBLIC	?atan@@YAMM@Z					; atan
PUBLIC	?cos@@YAMM@Z					; cos
PUBLIC	?fabs@@YAMM@Z					; fabs
PUBLIC	?sin@@YAMM@Z					; sin
PUBLIC	?Id@VuEntity@@QBE?AVVU_ID@@XZ			; VuEntity::Id
PUBLIC	?XPos@VuEntity@@QBEMXZ				; VuEntity::XPos
PUBLIC	?YPos@VuEntity@@QBEMXZ				; VuEntity::YPos
PUBLIC	?ZPos@VuEntity@@QBEMXZ				; VuEntity::ZPos
PUBLIC	?Yaw@VuEntity@@QBEMXZ				; VuEntity::Yaw
PUBLIC	??2@YAPAXIPAX@Z					; operator new
PUBLIC	??3@YAXPAX0@Z					; operator delete
PUBLIC	?length@?$char_traits@D@std@@SAIPBD@Z		; std::char_traits<char>::length
PUBLIC	?copy@?$char_traits@D@std@@SAPADPADPBDI@Z	; std::char_traits<char>::copy
PUBLIC	?move@?$char_traits@D@std@@SAPADPADPBDI@Z	; std::char_traits<char>::move
PUBLIC	?assign@?$char_traits@D@std@@SAXAADABD@Z	; std::char_traits<char>::assign
PUBLIC	??0?$allocator@D@std@@QAE@XZ			; std::allocator<char>::allocator<char>
PUBLIC	?deallocate@?$allocator@D@std@@QAEXPADI@Z	; std::allocator<char>::deallocate
PUBLIC	?allocate@?$allocator@D@std@@QAEPADI@Z		; std::allocator<char>::allocate
PUBLIC	?max_size@?$allocator@D@std@@QBEIXZ		; std::allocator<char>::max_size
PUBLIC	?max_size@?$allocator_traits@V?$allocator@D@std@@@std@@SAIABV?$allocator@D@2@@Z ; std::allocator_traits<std::allocator<char> >::max_size
PUBLIC	??0?$_Wrap_alloc@V?$allocator@D@std@@@std@@QAE@XZ ; std::_Wrap_alloc<std::allocator<char> >::_Wrap_alloc<std::allocator<char> >
PUBLIC	?allocate@?$_Wrap_alloc@V?$allocator@D@std@@@std@@QAEPADI@Z ; std::_Wrap_alloc<std::allocator<char> >::allocate
PUBLIC	?deallocate@?$_Wrap_alloc@V?$allocator@D@std@@@std@@QAEXPADI@Z ; std::_Wrap_alloc<std::allocator<char> >::deallocate
PUBLIC	?max_size@?$_Wrap_alloc@V?$allocator@D@std@@@std@@QBEIXZ ; std::_Wrap_alloc<std::allocator<char> >::max_size
PUBLIC	??0?$_String_val@U?$_Simple_types@D@std@@@std@@QAE@XZ ; std::_String_val<std::_Simple_types<char> >::_String_val<std::_Simple_types<char> >
PUBLIC	?_Myptr@?$_String_val@U?$_Simple_types@D@std@@@std@@QAEPADXZ ; std::_String_val<std::_Simple_types<char> >::_Myptr
PUBLIC	?_Myptr@?$_String_val@U?$_Simple_types@D@std@@@std@@QBEPBDXZ ; std::_String_val<std::_Simple_types<char> >::_Myptr
PUBLIC	??0?$_String_alloc@$0A@U?$_String_base_types@DV?$allocator@D@std@@@std@@@std@@QAE@ABV?$allocator@D@1@@Z ; std::_String_alloc<0,std::_String_base_types<char,std::allocator<char> > >::_String_alloc<0,std::_String_base_types<char,std::allocator<char> > >
PUBLIC	?_Getal@?$_String_alloc@$0A@U?$_String_base_types@DV?$allocator@D@std@@@std@@@std@@QBE?AU?$_Wrap_alloc@V?$allocator@D@std@@@2@XZ ; std::_String_alloc<0,std::_String_base_types<char,std::allocator<char> > >::_Getal
PUBLIC	??0?$basic_string@DU?$char_traits@D@std@@V?$allocator@D@2@@std@@QAE@PBD@Z ; std::basic_string<char,std::char_traits<char>,std::allocator<char> >::basic_string<char,std::char_traits<char>,std::allocator<char> >
PUBLIC	?assign@?$basic_string@DU?$char_traits@D@std@@V?$allocator@D@2@@std@@QAEAAV12@ABV12@II@Z ; std::basic_string<char,std::char_traits<char>,std::allocator<char> >::assign
PUBLIC	?assign@?$basic_string@DU?$char_traits@D@std@@V?$allocator@D@2@@std@@QAEAAV12@PBDI@Z ; std::basic_string<char,std::char_traits<char>,std::allocator<char> >::assign
PUBLIC	?assign@?$basic_string@DU?$char_traits@D@std@@V?$allocator@D@2@@std@@QAEAAV12@PBD@Z ; std::basic_string<char,std::char_traits<char>,std::allocator<char> >::assign
PUBLIC	?erase@?$basic_string@DU?$char_traits@D@std@@V?$allocator@D@2@@std@@QAEAAV12@I@Z ; std::basic_string<char,std::char_traits<char>,std::allocator<char> >::erase
PUBLIC	?erase@?$basic_string@DU?$char_traits@D@std@@V?$allocator@D@2@@std@@QAEAAV12@II@Z ; std::basic_string<char,std::char_traits<char>,std::allocator<char> >::erase
PUBLIC	?size@?$basic_string@DU?$char_traits@D@std@@V?$allocator@D@2@@std@@QBEIXZ ; std::basic_string<char,std::char_traits<char>,std::allocator<char> >::size
PUBLIC	?max_size@?$basic_string@DU?$char_traits@D@std@@V?$allocator@D@2@@std@@QBEIXZ ; std::basic_string<char,std::char_traits<char>,std::allocator<char> >::max_size
PUBLIC	?_Copy@?$basic_string@DU?$char_traits@D@std@@V?$allocator@D@2@@std@@QAEXII@Z ; std::basic_string<char,std::char_traits<char>,std::allocator<char> >::_Copy
PUBLIC	?_Eos@?$basic_string@DU?$char_traits@D@std@@V?$allocator@D@2@@std@@QAEXI@Z ; std::basic_string<char,std::char_traits<char>,std::allocator<char> >::_Eos
PUBLIC	?_Grow@?$basic_string@DU?$char_traits@D@std@@V?$allocator@D@2@@std@@QAE_NI_N@Z ; std::basic_string<char,std::char_traits<char>,std::allocator<char> >::_Grow
PUBLIC	?_Inside@?$basic_string@DU?$char_traits@D@std@@V?$allocator@D@2@@std@@QAE_NPBD@Z ; std::basic_string<char,std::char_traits<char>,std::allocator<char> >::_Inside
PUBLIC	?_Tidy@?$basic_string@DU?$char_traits@D@std@@V?$allocator@D@2@@std@@QAEX_NI@Z ; std::basic_string<char,std::char_traits<char>,std::allocator<char> >::_Tidy
PUBLIC	?_Xlen@?$basic_string@DU?$char_traits@D@std@@V?$allocator@D@2@@std@@QBEXXZ ; std::basic_string<char,std::char_traits<char>,std::allocator<char> >::_Xlen
PUBLIC	?_Xran@?$basic_string@DU?$char_traits@D@std@@V?$allocator@D@2@@std@@QBEXXZ ; std::basic_string<char,std::char_traits<char>,std::allocator<char> >::_Xran
PUBLIC	?IsSim@FalconEntity@@QAEHXZ			; FalconEntity::IsSim
PUBLIC	?mlSinCos@@YAXPAUmlTrig@@M@Z			; mlSinCos
PUBLIC	?RdrCycleTime@SimBaseClass@@QAEMXZ		; SimBaseClass::RdrCycleTime
PUBLIC	?RdrRng@SimBaseClass@@QAEMXZ			; SimBaseClass::RdrRng
PUBLIC	?get@?$VuBin@VFalconEntity@@@@QBEPAVFalconEntity@@XZ ; VuBin<FalconEntity>::get
PUBLIC	??B?$VuBin@VSimWeaponClass@@@@QBE_NXZ		; VuBin<SimWeaponClass>::operator bool
PUBLIC	??C?$VuBin@VSimWeaponClass@@@@QBEPAVSimWeaponClass@@XZ ; VuBin<SimWeaponClass>::operator->
PUBLIC	?GetWPAction@WayPointClass@@QAEHXZ		; WayPointClass::GetWPAction
PUBLIC	?GetNextWP@WayPointClass@@QAEPAV1@XZ		; WayPointClass::GetNextWP
PUBLIC	?GetPrevWP@WayPointClass@@QAEPAV1@XZ		; WayPointClass::GetPrevWP
PUBLIC	??0id@locale@std@@QAE@I@Z			; std::locale::id::id
PUBLIC	?generic_category@std@@YAABVerror_category@1@XZ	; std::generic_category
PUBLIC	?system_category@std@@YAABVerror_category@1@XZ	; std::system_category
PUBLIC	??0error_category@std@@QAE@XZ			; std::error_category::error_category
PUBLIC	??1error_category@std@@UAE@XZ			; std::error_category::~error_category
PUBLIC	?default_error_condition@error_category@std@@UBE?AVerror_condition@2@H@Z ; std::error_category::default_error_condition
PUBLIC	?equivalent@error_category@std@@UBE_NHABVerror_condition@2@@Z ; std::error_category::equivalent
PUBLIC	?equivalent@error_category@std@@UBE_NABVerror_code@2@H@Z ; std::error_category::equivalent
PUBLIC	??8error_category@std@@QBE_NABV01@@Z		; std::error_category::operator==
PUBLIC	??_Gerror_category@std@@UAEPAXI@Z		; std::error_category::`scalar deleting destructor'
PUBLIC	?value@error_code@std@@QBEHXZ			; std::error_code::value
PUBLIC	?category@error_code@std@@QBEABVerror_category@2@XZ ; std::error_code::category
PUBLIC	??0error_condition@std@@QAE@HABVerror_category@1@@Z ; std::error_condition::error_condition
PUBLIC	?value@error_condition@std@@QBEHXZ		; std::error_condition::value
PUBLIC	?category@error_condition@std@@QBEABVerror_category@2@XZ ; std::error_condition::category
PUBLIC	??8error_condition@std@@QBE_NABV01@@Z		; std::error_condition::operator==
PUBLIC	??0_Generic_error_category@std@@QAE@XZ		; std::_Generic_error_category::_Generic_error_category
PUBLIC	?name@_Generic_error_category@std@@UBEPBDXZ	; std::_Generic_error_category::name
PUBLIC	?message@_Generic_error_category@std@@UBE?AV?$basic_string@DU?$char_traits@D@std@@V?$allocator@D@2@@2@H@Z ; std::_Generic_error_category::message
PUBLIC	??1_Generic_error_category@std@@UAE@XZ		; std::_Generic_error_category::~_Generic_error_category
PUBLIC	??_G_Generic_error_category@std@@UAEPAXI@Z	; std::_Generic_error_category::`scalar deleting destructor'
PUBLIC	??0_Iostream_error_category@std@@QAE@XZ		; std::_Iostream_error_category::_Iostream_error_category
PUBLIC	?name@_Iostream_error_category@std@@UBEPBDXZ	; std::_Iostream_error_category::name
PUBLIC	?message@_Iostream_error_category@std@@UBE?AV?$basic_string@DU?$char_traits@D@std@@V?$allocator@D@2@@2@H@Z ; std::_Iostream_error_category::message
PUBLIC	??1_Iostream_error_category@std@@UAE@XZ		; std::_Iostream_error_category::~_Iostream_error_category
PUBLIC	??_G_Iostream_error_category@std@@UAEPAXI@Z	; std::_Iostream_error_category::`scalar deleting destructor'
PUBLIC	??0_System_error_category@std@@QAE@XZ		; std::_System_error_category::_System_error_category
PUBLIC	?name@_System_error_category@std@@UBEPBDXZ	; std::_System_error_category::name
PUBLIC	?message@_System_error_category@std@@UBE?AV?$basic_string@DU?$char_traits@D@std@@V?$allocator@D@2@@2@H@Z ; std::_System_error_category::message
PUBLIC	?default_error_condition@_System_error_category@std@@UBE?AVerror_condition@2@H@Z ; std::_System_error_category::default_error_condition
PUBLIC	??1_System_error_category@std@@UAE@XZ		; std::_System_error_category::~_System_error_category
PUBLIC	??_G_System_error_category@std@@UAEPAXI@Z	; std::_System_error_category::`scalar deleting destructor'
PUBLIC	?CenterOriginInViewport@VirtualDisplay@@QAEXXZ	; VirtualDisplay::CenterOriginInViewport
PUBLIC	?GetSOI@SimVehicleClass@@QAE?AW4SOI@1@XZ	; SimVehicleClass::GetSOI
PUBLIC	?IsAggregate@CampBaseClass@@QAEHXZ		; CampBaseClass::IsAggregate
PUBLIC	?SetType@SensorClass@@UAEXW4SensorType@1@@Z	; SensorClass::SetType
PUBLIC	?SetPower@SensorClass@@UAEXH@Z			; SensorClass::SetPower
PUBLIC	?IsOn@SensorClass@@UAEHXZ			; SensorClass::IsOn
PUBLIC	?ExecModes@SensorClass@@UAEXHH@Z		; SensorClass::ExecModes
PUBLIC	?UpdateState@SensorClass@@UAEXHH@Z		; SensorClass::UpdateState
PUBLIC	?SetSeekerPos@SensorClass@@UAEXMM@Z		; SensorClass::SetSeekerPos
PUBLIC	?TargetUnderCursor@SensorClass@@UAE?AVVU_ID@@XZ	; SensorClass::TargetUnderCursor
PUBLIC	?GetDisplay@SensorClass@@UAEPAVVirtualDisplay@@XZ ; SensorClass::GetDisplay
PUBLIC	?BaseObject@GroundListElement@@QAEPAVFalconEntity@@XZ ; GroundListElement::BaseObject
PUBLIC	?GetNext@GroundListElement@@QAEPAV1@XZ		; GroundListElement::GetNext
PUBLIC	?SetFlag@GroundListElement@@QAEXH@Z		; GroundListElement::SetFlag
PUBLIC	?IsSet@GroundListElement@@QAEHH@Z		; GroundListElement::IsSet
PUBLIC	?ClearFlag@GroundListElement@@QAEXH@Z		; GroundListElement::ClearFlag
PUBLIC	?GetFirstGroundElement@FireControlComputer@@QAEPAVGroundListElement@@XZ ; FireControlComputer::GetFirstGroundElement
PUBLIC	?AddGroundElement@FireControlComputer@@QAEXPAVGroundListElement@@@Z ; FireControlComputer::AddGroundElement
PUBLIC	?BaseData@SimObjectType@@QAEPAVFalconEntity@@XZ	; SimObjectType::BaseData
PUBLIC	??0HarmTargetingPod@@QAE@HPAVSimMoverClass@@@Z	; HarmTargetingPod::HarmTargetingPod
PUBLIC	??1HarmTargetingPod@@UAE@XZ			; HarmTargetingPod::~HarmTargetingPod
PUBLIC	?GetAGCenter@HarmTargetingPod@@UAEXPAM0@Z	; HarmTargetingPod::GetAGCenter
PUBLIC	?Exec@HarmTargetingPod@@UAEPAVSimObjectType@@PAV2@@Z ; HarmTargetingPod::Exec
PUBLIC	?HADDisplay@HarmTargetingPod@@UAEXPAVVirtualDisplay@@@Z ; HarmTargetingPod::HADDisplay
PUBLIC	?HADExpDisplay@HarmTargetingPod@@UAEXPAVVirtualDisplay@@@Z ; HarmTargetingPod::HADExpDisplay
PUBLIC	?HASDisplay@HarmTargetingPod@@UAEXPAVVirtualDisplay@@@Z ; HarmTargetingPod::HASDisplay
PUBLIC	?POSDisplay@HarmTargetingPod@@UAEXPAVVirtualDisplay@@@Z ; HarmTargetingPod::POSDisplay
PUBLIC	?HandoffDisplay@HarmTargetingPod@@UAEXPAVVirtualDisplay@@@Z ; HarmTargetingPod::HandoffDisplay
PUBLIC	?ObjectDetected@HarmTargetingPod@@UAEHPAVFalconEntity@@HH@Z ; HarmTargetingPod::ObjectDetected
PUBLIC	?IncreaseRange@HarmTargetingPod@@QAEXXZ		; HarmTargetingPod::IncreaseRange
PUBLIC	?DecreaseRange@HarmTargetingPod@@QAEXXZ		; HarmTargetingPod::DecreaseRange
PUBLIC	?ToggleZoomMode@HarmTargetingPod@@QAEXXZ	; HarmTargetingPod::ToggleZoomMode
PUBLIC	?ToggleHADZoomMode@HarmTargetingPod@@QAEXXZ	; HarmTargetingPod::ToggleHADZoomMode
PUBLIC	?LockTargetUnderCursor@HarmTargetingPod@@QAEXXZ	; HarmTargetingPod::LockTargetUnderCursor
PUBLIC	?BoresightTarget@HarmTargetingPod@@QAEXXZ	; HarmTargetingPod::BoresightTarget
PUBLIC	?NextTarget@HarmTargetingPod@@QAEXXZ		; HarmTargetingPod::NextTarget
PUBLIC	?PrevTarget@HarmTargetingPod@@QAEXXZ		; HarmTargetingPod::PrevTarget
PUBLIC	?SetDesiredTarget@HarmTargetingPod@@UAEXPAVSimObjectType@@@Z ; HarmTargetingPod::SetDesiredTarget
PUBLIC	?FindIDUnderCursor@HarmTargetingPod@@QAE?AVVU_ID@@XZ ; HarmTargetingPod::FindIDUnderCursor
PUBLIC	?FindTargetUnderCursor@HarmTargetingPod@@QAEPAVGroundListElement@@XZ ; HarmTargetingPod::FindTargetUnderCursor
PUBLIC	?FindHASTargetUnderCursor@HarmTargetingPod@@QAEPAVGroundListElement@@XZ ; HarmTargetingPod::FindHASTargetUnderCursor
PUBLIC	?FindPOSTarget@HarmTargetingPod@@QAEPAVGroundListElement@@XZ ; HarmTargetingPod::FindPOSTarget
PUBLIC	?LockPOSTarget@HarmTargetingPod@@QAEXXZ		; HarmTargetingPod::LockPOSTarget
PUBLIC	?SetPOSTargetIndex@HarmTargetingPod@@QAEXH@Z	; HarmTargetingPod::SetPOSTargetIndex
PUBLIC	?GetFilterMode@HarmTargetingPod@@QAE?AW4HASFilterMode@1@XZ ; HarmTargetingPod::GetFilterMode
PUBLIC	?SaveHadCursorPos@HarmTargetingPod@@QAEXXZ	; HarmTargetingPod::SaveHadCursorPos
PUBLIC	?ResetHadCursorPos@HarmTargetingPod@@QAEXXZ	; HarmTargetingPod::ResetHadCursorPos
PUBLIC	?FindEmmitter@HarmTargetingPod@@IAEPAVGroundListElement@@PAVFalconEntity@@@Z ; HarmTargetingPod::FindEmmitter
PUBLIC	?LockListElement@HarmTargetingPod@@IAEXPAVGroundListElement@@@Z ; HarmTargetingPod::LockListElement
PUBLIC	?DrawWEZ@HarmTargetingPod@@IAEXPAVMissileClass@@@Z ; HarmTargetingPod::DrawWEZ
PUBLIC	?DrawDTSBBox@HarmTargetingPod@@IAEXXZ		; HarmTargetingPod::DrawDTSBBox
PUBLIC	?UpdateDTSB@HarmTargetingPod@@IAEXHAAM0@Z	; HarmTargetingPod::UpdateDTSB
PUBLIC	?ClearDTSB@HarmTargetingPod@@IAEXXZ		; HarmTargetingPod::ClearDTSB
PUBLIC	?BoxTargetDTSB@HarmTargetingPod@@IAEXHAAM0@Z	; HarmTargetingPod::BoxTargetDTSB
PUBLIC	?ClearPOSTargets@HarmTargetingPod@@IAEXXZ	; HarmTargetingPod::ClearPOSTargets
PUBLIC	?BuildPOSTargets@HarmTargetingPod@@IAEXXZ	; HarmTargetingPod::BuildPOSTargets
PUBLIC	?FindWaypointNum@HarmTargetingPod@@IAEHPAVWayPointClass@@@Z ; HarmTargetingPod::FindWaypointNum
PUBLIC	?IsInsideALIC@HarmTargetingPod@@IAE_NAAM0@Z	; HarmTargetingPod::IsInsideALIC
PUBLIC	?IsInPriorityList@HarmTargetingPod@@IAE_NH@Z	; HarmTargetingPod::IsInPriorityList
PUBLIC	??_GHarmTargetingPod@@UAEPAXI@Z			; HarmTargetingPod::`scalar deleting destructor'
PUBLIC	?AnalogIsUsed@SIMLIB_IO_CLASS@@QAE_NW4GameAxis_t@@@Z ; SIMLIB_IO_CLASS::AnalogIsUsed
PUBLIC	?GetCurWezAngle@@YAXHAAM000@Z			; GetCurWezAngle
PUBLIC	?GetCurWezValue@@YAXHAAM000@Z			; GetCurWezValue
PUBLIC	??$construct@PADAAPAD@?$_Wrap_alloc@V?$allocator@D@std@@@std@@QAEXPAPADAAPAD@Z ; std::_Wrap_alloc<std::allocator<char> >::construct<char *,char * &>
PUBLIC	??$destroy@PAD@?$_Wrap_alloc@V?$allocator@D@std@@@std@@QAEXPAPAD@Z ; std::_Wrap_alloc<std::allocator<char> >::destroy<char *>
PUBLIC	??$addressof@D@std@@YAPADAAD@Z			; std::addressof<char>
PUBLIC	??$_Allocate@D@std@@YAPADIPAD@Z			; std::_Allocate<char>
PUBLIC	??$forward@AAPAD@std@@YAAAPADAAPAD@Z		; std::forward<char * &>
PUBLIC	??$construct@PADAAPAD@?$allocator_traits@V?$allocator@D@std@@@std@@SAXAAV?$allocator@D@1@PAPADAAPAD@Z ; std::allocator_traits<std::allocator<char> >::construct<char *,char * &>
PUBLIC	??$destroy@PAD@?$allocator_traits@V?$allocator@D@std@@@std@@SAXAAV?$allocator@D@1@PAPAD@Z ; std::allocator_traits<std::allocator<char> >::destroy<char *>
PUBLIC	??$construct@PADAAPAD@?$allocator@D@std@@QAEXPAPADAAPAD@Z ; std::allocator<char>::construct<char *,char * &>
PUBLIC	??$destroy@PAD@?$allocator@D@std@@QAEXPAPAD@Z	; std::allocator<char>::destroy<char *>
PUBLIC	??_7error_category@std@@6B@			; std::error_category::`vftable'
PUBLIC	??_7_Generic_error_category@std@@6B@		; std::_Generic_error_category::`vftable'
PUBLIC	??_C@_07DCLBNMLN@generic?$AA@			; `string'
PUBLIC	??_C@_0O@BFJCFAAK@unknown?5error?$AA@		; `string'
PUBLIC	??_7_Iostream_error_category@std@@6B@		; std::_Iostream_error_category::`vftable'
PUBLIC	??_C@_08LLGCOLLL@iostream?$AA@			; `string'
PUBLIC	??_C@_0BG@PADBLCHM@iostream?5stream?5error?$AA@	; `string'
PUBLIC	??_7_System_error_category@std@@6B@		; std::_System_error_category::`vftable'
PUBLIC	??_C@_06FHFOAHML@system?$AA@			; `string'
PUBLIC	?_Generic_object@?$_Error_objects@H@std@@2V_Generic_error_category@2@A ; std::_Error_objects<int>::_Generic_object
PUBLIC	?_Iostream_object@?$_Error_objects@H@std@@2V_Iostream_error_category@2@A ; std::_Error_objects<int>::_Iostream_object
PUBLIC	?_System_object@?$_Error_objects@H@std@@2V_System_error_category@2@A ; std::_Error_objects<int>::_System_object
PUBLIC	?id@?$num_put@DV?$back_insert_iterator@V?$basic_string@DU?$char_traits@D@std@@V?$allocator@D@2@@std@@@std@@@std@@2V0locale@2@A ; std::num_put<char,std::back_insert_iterator<std::basic_string<char,std::char_traits<char>,std::allocator<char> > > >::id
PUBLIC	?id@?$num_put@_WV?$back_insert_iterator@V?$basic_string@_WU?$char_traits@_W@std@@V?$allocator@_W@2@@std@@@std@@@std@@2V0locale@2@A ; std::num_put<wchar_t,std::back_insert_iterator<std::basic_string<wchar_t,std::char_traits<wchar_t>,std::allocator<wchar_t> > > >::id
PUBLIC	??_7HarmTargetingPod@@6B@			; HarmTargetingPod::`vftable'
PUBLIC	??_C@_03GOOLIKIF@?$CF3d?$AA@			; `string'
PUBLIC	??_C@_05GJNDEMGI@SCT?91?$AA@			; `string'
PUBLIC	??_C@_07COCHMHBB@?$CFd?3?$CF02d?$AA@		; `string'
PUBLIC	??_C@_03KDFFCEML@RDY?$AA@			; `string'
PUBLIC	?id@?$numpunct@D@std@@2V0locale@2@A		; std::numpunct<char>::id
PUBLIC	?id@?$numpunct@_W@std@@2V0locale@2@A		; std::numpunct<wchar_t>::id
PUBLIC	??_C@_0BI@CFPLBAOH@invalid?5string?5position?$AA@ ; `string'
PUBLIC	??_C@_0BA@JFNIOLAK@string?5too?5long?$AA@	; `string'
PUBLIC	??_R4error_category@std@@6B@			; std::error_category::`RTTI Complete Object Locator'
PUBLIC	??_R0?AVerror_category@std@@@8			; std::error_category `RTTI Type Descriptor'
PUBLIC	??_R3error_category@std@@8			; std::error_category::`RTTI Class Hierarchy Descriptor'
PUBLIC	??_R2error_category@std@@8			; std::error_category::`RTTI Base Class Array'
PUBLIC	??_R1A@?0A@EA@error_category@std@@8		; std::error_category::`RTTI Base Class Descriptor at (0,-1,0,64)'
PUBLIC	??_R4_Generic_error_category@std@@6B@		; std::_Generic_error_category::`RTTI Complete Object Locator'
PUBLIC	??_R0?AV_Generic_error_category@std@@@8		; std::_Generic_error_category `RTTI Type Descriptor'
PUBLIC	??_R3_Generic_error_category@std@@8		; std::_Generic_error_category::`RTTI Class Hierarchy Descriptor'
PUBLIC	??_R2_Generic_error_category@std@@8		; std::_Generic_error_category::`RTTI Base Class Array'
PUBLIC	??_R1A@?0A@EA@_Generic_error_category@std@@8	; std::_Generic_error_category::`RTTI Base Class Descriptor at (0,-1,0,64)'
PUBLIC	??_R4_Iostream_error_category@std@@6B@		; std::_Iostream_error_category::`RTTI Complete Object Locator'
PUBLIC	??_R0?AV_Iostream_error_category@std@@@8	; std::_Iostream_error_category `RTTI Type Descriptor'
PUBLIC	??_R3_Iostream_error_category@std@@8		; std::_Iostream_error_category::`RTTI Class Hierarchy Descriptor'
PUBLIC	??_R2_Iostream_error_category@std@@8		; std::_Iostream_error_category::`RTTI Base Class Array'
PUBLIC	??_R1A@?0A@EA@_Iostream_error_category@std@@8	; std::_Iostream_error_category::`RTTI Base Class Descriptor at (0,-1,0,64)'
PUBLIC	??_R4_System_error_category@std@@6B@		; std::_System_error_category::`RTTI Complete Object Locator'
PUBLIC	??_R0?AV_System_error_category@std@@@8		; std::_System_error_category `RTTI Type Descriptor'
PUBLIC	??_R3_System_error_category@std@@8		; std::_System_error_category::`RTTI Class Hierarchy Descriptor'
PUBLIC	??_R2_System_error_category@std@@8		; std::_System_error_category::`RTTI Base Class Array'
PUBLIC	??_R1A@?0A@EA@_System_error_category@std@@8	; std::_System_error_category::`RTTI Base Class Descriptor at (0,-1,0,64)'
PUBLIC	??_R0?AVDrawableClass@@@8			; DrawableClass `RTTI Type Descriptor'
PUBLIC	??_R3DrawableClass@@8				; DrawableClass::`RTTI Class Hierarchy Descriptor'
PUBLIC	??_R2DrawableClass@@8				; DrawableClass::`RTTI Base Class Array'
PUBLIC	??_R1A@?0A@EA@DrawableClass@@8			; DrawableClass::`RTTI Base Class Descriptor at (0,-1,0,64)'
PUBLIC	??_R0?AVMfdDrawable@@@8				; MfdDrawable `RTTI Type Descriptor'
PUBLIC	??_R3MfdDrawable@@8				; MfdDrawable::`RTTI Class Hierarchy Descriptor'
PUBLIC	??_R2MfdDrawable@@8				; MfdDrawable::`RTTI Base Class Array'
PUBLIC	??_R1A@?0A@EA@MfdDrawable@@8			; MfdDrawable::`RTTI Base Class Descriptor at (0,-1,0,64)'
PUBLIC	??_R1A@?0A@EA@SensorClass@@8			; SensorClass::`RTTI Base Class Descriptor at (0,-1,0,64)'
PUBLIC	??_R0?AVSensorClass@@@8				; SensorClass `RTTI Type Descriptor'
PUBLIC	??_R3SensorClass@@8				; SensorClass::`RTTI Class Hierarchy Descriptor'
PUBLIC	??_R2SensorClass@@8				; SensorClass::`RTTI Base Class Array'
PUBLIC	??_R4HarmTargetingPod@@6B@			; HarmTargetingPod::`RTTI Complete Object Locator'
PUBLIC	??_R0?AVHarmTargetingPod@@@8			; HarmTargetingPod `RTTI Type Descriptor'
PUBLIC	??_R3HarmTargetingPod@@8			; HarmTargetingPod::`RTTI Class Hierarchy Descriptor'
PUBLIC	??_R2HarmTargetingPod@@8			; HarmTargetingPod::`RTTI Base Class Array'
PUBLIC	??_R1A@?0A@EA@HarmTargetingPod@@8		; HarmTargetingPod::`RTTI Base Class Descriptor at (0,-1,0,64)'
PUBLIC	??_R1A@?0A@EA@RwrClass@@8			; RwrClass::`RTTI Base Class Descriptor at (0,-1,0,64)'
PUBLIC	??_R0?AVRwrClass@@@8				; RwrClass `RTTI Type Descriptor'
PUBLIC	??_R3RwrClass@@8				; RwrClass::`RTTI Class Hierarchy Descriptor'
PUBLIC	??_R2RwrClass@@8				; RwrClass::`RTTI Base Class Array'
PUBLIC	__real@00000000
PUBLIC	__real@392c987a
PUBLIC	__real@3ba3d70a
PUBLIC	__real@3ca3d70a
PUBLIC	__real@3d23d70a
PUBLIC	__real@3d4ccccd
PUBLIC	__real@3d75c28f
PUBLIC	__real@3d800000
PUBLIC	__real@3d851eb8
PUBLIC	__real@3da3d70a
PUBLIC	__real@3dae147b
PUBLIC	__real@3db33333
PUBLIC	__real@3dcccccd
PUBLIC	__real@3e000000
PUBLIC	__real@3e19999a
PUBLIC	__real@3e3126e9
PUBLIC	__real@3e3851ec
PUBLIC	__real@3e4ccccd
PUBLIC	__real@3e841893
PUBLIC	__real@3e99999a
PUBLIC	__real@3eb33333
PUBLIC	__real@3ed81062
PUBLIC	__real@3eec8b44
PUBLIC	__real@3f000000
PUBLIC	__real@3f0ccccc
PUBLIC	__real@3f0ccccd
PUBLIC	__real@3f19999a
PUBLIC	__real@3f245a1d
PUBLIC	__real@3f266666
PUBLIC	__real@3f28f5c3
PUBLIC	__real@3f333333
PUBLIC	__real@3f3851ec
PUBLIC	__real@3f400000
PUBLIC	__real@3f441893
PUBLIC	__real@3f59999a
PUBLIC	__real@3f5db22d
PUBLIC	__real@3f67ef9e
PUBLIC	__real@3f6c8b44
PUBLIC	__real@3f733333
PUBLIC	__real@3f747ae1
PUBLIC	__real@3f75c28f
PUBLIC	__real@3f770a3d
PUBLIC	__real@3f7be76d
PUBLIC	__real@3f800000
PUBLIC	__real@3f866666
PUBLIC	__real@3f933333
PUBLIC	__real@3f9c28f6
PUBLIC	__real@3f9ccccd
PUBLIC	__real@3fb33333
PUBLIC	__real@3fc00000
PUBLIC	__real@3fc90fd9
PUBLIC	__real@3fc90fdb
PUBLIC	__real@40000000
PUBLIC	__real@40200000
PUBLIC	__real@40400000
PUBLIC	__real@40490fd9
PUBLIC	__real@40800000
PUBLIC	__real@409996c6
PUBLIC	__real@41000000
PUBLIC	__real@41180000
PUBLIC	__real@41200000
PUBLIC	__real@41300000
PUBLIC	__real@41400000
PUBLIC	__real@41cc0000
PUBLIC	__real@41f00000
PUBLIC	__real@42700000
PUBLIC	__real@447a0000
PUBLIC	__real@45bde1b0
PUBLIC	__real@461c4000
PUBLIC	__real@49742400
PUBLIC	__real@bc23d70a
PUBLIC	__real@bd75c28f
PUBLIC	__real@bd800000
PUBLIC	__real@bd99999a
PUBLIC	__real@bda3d70a
PUBLIC	__real@bdae147b
PUBLIC	__real@be3126e9
PUBLIC	__real@be4ccccd
PUBLIC	__real@be800000
PUBLIC	__real@becccccd
PUBLIC	__real@bf000000
PUBLIC	__real@bf400000
PUBLIC	__real@bf441893
PUBLIC	__real@bf4ccccd
PUBLIC	__real@bf733333
PUBLIC	__real@bf800000
PUBLIC	__xmm@41f00000000000000000000000000000
PUBLIC	__xmm@80000000800000008000000080000000
EXTRN	__purecall:PROC
EXTRN	??2@YAPAXI@Z:PROC				; operator new
EXTRN	??3@YAXPAX@Z:PROC				; operator delete
EXTRN	_atexit:PROC
EXTRN	_sprintf:PROC
EXTRN	_atan:PROC
EXTRN	_cos:PROC
EXTRN	_fabs:PROC
EXTRN	_sin:PROC
EXTRN	_memcpy:PROC
EXTRN	_strlen:PROC
EXTRN	_memmove:PROC
EXTRN	?_Xbad_alloc@std@@YAXXZ:PROC			; std::_Xbad_alloc
EXTRN	?_Xlength_error@std@@YAXPBD@Z:PROC		; std::_Xlength_error
EXTRN	?_Xout_of_range@std@@YAXPBD@Z:PROC		; std::_Xout_of_range
EXTRN	??0VuListIterator@@QAE@PAVVuLinkedList@@@Z:PROC	; VuListIterator::VuListIterator
EXTRN	??1VuListIterator@@UAE@XZ:PROC			; VuListIterator::~VuListIterator
EXTRN	?GetFirst@VuListIterator@@QAEPAVVuEntity@@XZ:PROC ; VuListIterator::GetFirst
EXTRN	?GetNext@VuListIterator@@QAEPAVVuEntity@@XZ:PROC ; VuListIterator::GetNext
EXTRN	?GetLocation@WayPointClass@@QBEXPAM00@Z:PROC	; WayPointClass::GetLocation
EXTRN	??_Eerror_category@std@@UAEPAXI@Z:PROC		; std::error_category::`vector deleting destructor'
EXTRN	?_Syserror_map@std@@YAPBDH@Z:PROC		; std::_Syserror_map
EXTRN	?_Winerror_map@std@@YAPBDH@Z:PROC		; std::_Winerror_map
EXTRN	??_E_Generic_error_category@std@@UAEPAXI@Z:PROC	; std::_Generic_error_category::`vector deleting destructor'
EXTRN	??_E_Iostream_error_category@std@@UAEPAXI@Z:PROC ; std::_Iostream_error_category::`vector deleting destructor'
EXTRN	??_E_System_error_category@std@@UAEPAXI@Z:PROC	; std::_System_error_category::`vector deleting destructor'
EXTRN	?AdjustOriginInViewport@VirtualDisplay@@QAEXMM@Z:PROC ; VirtualDisplay::AdjustOriginInViewport
EXTRN	?GetRMax@MissileClass@@QAEMMMMMM@Z:PROC		; MissileClass::GetRMax
EXTRN	?GetPlayerAircraft@SimulationDriver@@QBEPAVAircraftClass@@XZ:PROC ; SimulationDriver::GetPlayerAircraft
EXTRN	?DisplayExit@DrawableClass@@UAEXXZ:PROC		; DrawableClass::DisplayExit
EXTRN	?DrawBorder@DrawableClass@@QAEXXZ:PROC		; DrawableClass::DrawBorder
EXTRN	?GetButtonPos@DrawableClass@@QAEXHPAM0@Z:PROC	; DrawableClass::GetButtonPos
EXTRN	?GetMfdColor@DrawableClass@@QAEIW4MfdColor@@@Z:PROC ; DrawableClass::GetMfdColor
EXTRN	?PushButton@MfdDrawable@@UAEXHH@Z:PROC		; MfdDrawable::PushButton
EXTRN	?ClearSensorTarget@SensorClass@@UAEXXZ:PROC	; SensorClass::ClearSensorTarget
EXTRN	?SetSensorTarget@SensorClass@@MAEXPAVSimObjectType@@@Z:PROC ; SensorClass::SetSensorTarget
EXTRN	?SetSensorTargetHack@SensorClass@@MAEXPAVFalconEntity@@@Z:PROC ; SensorClass::SetSensorTargetHack
EXTRN	?CheckLockedTarget@SensorClass@@MAEXXZ:PROC	; SensorClass::CheckLockedTarget
EXTRN	??0GroundListElement@@QAE@PAVFalconEntity@@@Z:PROC ; GroundListElement::GroundListElement
EXTRN	?HandoffBaseObject@GroundListElement@@QAEXXZ:PROC ; GroundListElement::HandoffBaseObject
EXTRN	?UpdatePlanned@FireControlComputer@@QAEXXZ:PROC	; FireControlComputer::UpdatePlanned
EXTRN	??0RwrClass@@QAE@HPAVSimMoverClass@@@Z:PROC	; RwrClass::RwrClass
EXTRN	??1RwrClass@@UAE@XZ:PROC			; RwrClass::~RwrClass
EXTRN	?DisplayInit@RwrClass@@UAEXPAVImageBuffer@@@Z:PROC ; RwrClass::DisplayInit
EXTRN	?CanDetectObject@RwrClass@@QAEHPAVSimObjectType@@@Z:PROC ; RwrClass::CanDetectObject
EXTRN	?BeingPainted@RwrClass@@IAEHPAVSimObjectType@@@Z:PROC ; RwrClass::BeingPainted
EXTRN	?CanDetectObject@RwrClass@@IAEHPAVFalconEntity@@@Z:PROC ; RwrClass::CanDetectObject
EXTRN	?DrawEmitterSymbol@RwrClass@@IAEXHH@Z:PROC	; RwrClass::DrawEmitterSymbol
EXTRN	?Display@HarmTargetingPod@@UAEXPAVVirtualDisplay@@@Z:PROC ; HarmTargetingPod::Display
EXTRN	??_EHarmTargetingPod@@UAEPAXI@Z:PROC		; HarmTargetingPod::`vector deleting destructor'
EXTRN	?GetAreaFloorAndCeiling@OTWDriverClass@@QAEXPAM0@Z:PROC ; OTWDriverClass::GetAreaFloorAndCeiling
EXTRN	?CheckLOS@OTWDriverClass@@QAEHPAVFalconEntity@@0@Z:PROC ; OTWDriverClass::CheckLOS
EXTRN	@__security_check_cookie@4:PROC
EXTRN	__CxxThrowException@8:PROC
EXTRN	___CxxFrameHandler3:PROC
EXTRN	?vuxRealTime@@3KA:DWORD				; vuxRealTime
EXTRN	?FalconNullId@@3VVU_ID@@A:QWORD			; FalconNullId
EXTRN	?SimLibMajorFrameTime@@3MA:DWORD		; SimLibMajorFrameTime
EXTRN	?SimLibElapsedTime@@3KA:DWORD			; SimLibElapsedTime
EXTRN	??_7type_info@@6B@:QWORD			; type_info::`vftable'
EXTRN	?EmitterList@@3PAVFalconPrivateList@@A:DWORD	; EmitterList
EXTRN	?SimDriver@@3VSimulationDriver@@A:BYTE		; SimDriver
EXTRN	?g_bRealisticAvionics@@3_NA:BYTE		; g_bRealisticAvionics
EXTRN	?TrackUpdateTime@RadarClass@@2KB:DWORD		; RadarClass::TrackUpdateTime
EXTRN	?RADIATE_CYCLE@RwrClass@@2HB:DWORD		; RwrClass::RADIATE_CYCLE
EXTRN	?TRACK_CYCLE@RwrClass@@2HB:DWORD		; RwrClass::TRACK_CYCLE
EXTRN	?OTWDriver@@3VOTWDriverClass@@A:BYTE		; OTWDriver
EXTRN	?IO@@3VSIMLIB_IO_CLASS@@A:BYTE			; IO
EXTRN	?g_fCursorSpeed@@3MA:DWORD			; g_fCursorSpeed
EXTRN	___security_cookie:DWORD
EXTRN	__fltused:DWORD
_BSS	SEGMENT
_piecewise_construct DB 01H DUP (?)
	ALIGN	4

_allocator_arg DB 01H DUP (?)
_BSS	ENDS
;	COMDAT ?_Generic_object@?$_Error_objects@H@std@@2V_Generic_error_category@2@A
_BSS	SEGMENT
?_Generic_object@?$_Error_objects@H@std@@2V_Generic_error_category@2@A DD 01H DUP (?) ; std::_Error_objects<int>::_Generic_object
_BSS	ENDS
;	COMDAT ?_Iostream_object@?$_Error_objects@H@std@@2V_Iostream_error_category@2@A
_BSS	SEGMENT
?_Iostream_object@?$_Error_objects@H@std@@2V_Iostream_error_category@2@A DD 01H DUP (?) ; std::_Error_objects<int>::_Iostream_object
_BSS	ENDS
;	COMDAT ?_System_object@?$_Error_objects@H@std@@2V_System_error_category@2@A
_BSS	SEGMENT
?_System_object@?$_Error_objects@H@std@@2V_System_error_category@2@A DD 01H DUP (?) ; std::_Error_objects<int>::_System_object
_BSS	ENDS
;	COMDAT ?id@?$num_put@DV?$back_insert_iterator@V?$basic_string@DU?$char_traits@D@std@@V?$allocator@D@2@@std@@@std@@@std@@2V0locale@2@A
_BSS	SEGMENT
?id@?$num_put@DV?$back_insert_iterator@V?$basic_string@DU?$char_traits@D@std@@V?$allocator@D@2@@std@@@std@@@std@@2V0locale@2@A DD 01H DUP (?) ; std::num_put<char,std::back_insert_iterator<std::basic_string<char,std::char_traits<char>,std::allocator<char> > > >::id
_BSS	ENDS
;	COMDAT ?id@?$num_put@_WV?$back_insert_iterator@V?$basic_string@_WU?$char_traits@_W@std@@V?$allocator@_W@2@@std@@@std@@@std@@2V0locale@2@A
_BSS	SEGMENT
?id@?$num_put@_WV?$back_insert_iterator@V?$basic_string@_WU?$char_traits@_W@std@@V?$allocator@_W@2@@std@@@std@@@std@@2V0locale@2@A DD 01H DUP (?) ; std::num_put<wchar_t,std::back_insert_iterator<std::basic_string<wchar_t,std::char_traits<wchar_t>,std::allocator<wchar_t> > > >::id
_BSS	ENDS
;	COMDAT ?HorizontalRangeLine@?5??HASDisplay@HarmTargetingPod@@UAEXPAVVirtualDisplay@@@Z@4MB
_BSS	SEGMENT
?HorizontalRangeLine@?5??HASDisplay@HarmTargetingPod@@UAEXPAVVirtualDisplay@@@Z@4MB DD 01H DUP (?) ; `HarmTargetingPod::HASDisplay'::`6'::HorizontalRangeLine
_BSS	ENDS
;	COMDAT ?$S1@?5??HASDisplay@HarmTargetingPod@@UAEXPAVVirtualDisplay@@@Z@4IA
_BSS	SEGMENT
?$S1@?5??HASDisplay@HarmTargetingPod@@UAEXPAVVirtualDisplay@@@Z@4IA DD 01H DUP (?) ; `HarmTargetingPod::HASDisplay'::`6'::$S1
_BSS	ENDS
;	COMDAT ?VerticalRangeLineTOP@?5??HASDisplay@HarmTargetingPod@@UAEXPAVVirtualDisplay@@@Z@4MB
_BSS	SEGMENT
?VerticalRangeLineTOP@?5??HASDisplay@HarmTargetingPod@@UAEXPAVVirtualDisplay@@@Z@4MB DD 01H DUP (?) ; `HarmTargetingPod::HASDisplay'::`6'::VerticalRangeLineTOP
_BSS	ENDS
;	COMDAT ?VerticalRangeLineBottom@?5??HASDisplay@HarmTargetingPod@@UAEXPAVVirtualDisplay@@@Z@4MB
_BSS	SEGMENT
?VerticalRangeLineBottom@?5??HASDisplay@HarmTargetingPod@@UAEXPAVVirtualDisplay@@@Z@4MB DD 01H DUP (?) ; `HarmTargetingPod::HASDisplay'::`6'::VerticalRangeLineBottom
_BSS	ENDS
;	COMDAT ?horizontalLinesSpace@?5??HASDisplay@HarmTargetingPod@@UAEXPAVVirtualDisplay@@@Z@4MB
_BSS	SEGMENT
?horizontalLinesSpace@?5??HASDisplay@HarmTargetingPod@@UAEXPAVVirtualDisplay@@@Z@4MB DD 01H DUP (?) ; `HarmTargetingPod::HASDisplay'::`6'::horizontalLinesSpace
_BSS	ENDS
;	COMDAT ?verticalLinesSpace@?5??HASDisplay@HarmTargetingPod@@UAEXPAVVirtualDisplay@@@Z@4MB
_BSS	SEGMENT
?verticalLinesSpace@?5??HASDisplay@HarmTargetingPod@@UAEXPAVVirtualDisplay@@@Z@4MB DD 01H DUP (?) ; `HarmTargetingPod::HASDisplay'::`6'::verticalLinesSpace
_BSS	ENDS
;	COMDAT ?verticalHandoffLineTop@?1??HandoffDisplay@HarmTargetingPod@@UAEXPAVVirtualDisplay@@@Z@4MB
_BSS	SEGMENT
?verticalHandoffLineTop@?1??HandoffDisplay@HarmTargetingPod@@UAEXPAVVirtualDisplay@@@Z@4MB DD 01H DUP (?) ; `HarmTargetingPod::HandoffDisplay'::`2'::verticalHandoffLineTop
_BSS	ENDS
;	COMDAT ?$S2@?1??HandoffDisplay@HarmTargetingPod@@UAEXPAVVirtualDisplay@@@Z@4IA
_BSS	SEGMENT
?$S2@?1??HandoffDisplay@HarmTargetingPod@@UAEXPAVVirtualDisplay@@@Z@4IA DD 01H DUP (?) ; `HarmTargetingPod::HandoffDisplay'::`2'::$S2
_BSS	ENDS
;	COMDAT ?verticalHandoffLineBottom@?1??HandoffDisplay@HarmTargetingPod@@UAEXPAVVirtualDisplay@@@Z@4MB
_BSS	SEGMENT
?verticalHandoffLineBottom@?1??HandoffDisplay@HarmTargetingPod@@UAEXPAVVirtualDisplay@@@Z@4MB DD 01H DUP (?) ; `HarmTargetingPod::HandoffDisplay'::`2'::verticalHandoffLineBottom
_BSS	ENDS
;	COMDAT ?horizontalHandoffLine@?1??HandoffDisplay@HarmTargetingPod@@UAEXPAVVirtualDisplay@@@Z@4MB
_BSS	SEGMENT
?horizontalHandoffLine@?1??HandoffDisplay@HarmTargetingPod@@UAEXPAVVirtualDisplay@@@Z@4MB DD 01H DUP (?) ; `HarmTargetingPod::HandoffDisplay'::`2'::horizontalHandoffLine
_BSS	ENDS
;	COMDAT ?horizontalEdges@?1??HandoffDisplay@HarmTargetingPod@@UAEXPAVVirtualDisplay@@@Z@4MB
_BSS	SEGMENT
?horizontalEdges@?1??HandoffDisplay@HarmTargetingPod@@UAEXPAVVirtualDisplay@@@Z@4MB DD 01H DUP (?) ; `HarmTargetingPod::HandoffDisplay'::`2'::horizontalEdges
_BSS	ENDS
;	COMDAT ?id@?$numpunct@D@std@@2V0locale@2@A
_BSS	SEGMENT
?id@?$numpunct@D@std@@2V0locale@2@A DD 01H DUP (?)	; std::numpunct<char>::id
_BSS	ENDS
;	COMDAT ?id@?$numpunct@_W@std@@2V0locale@2@A
_BSS	SEGMENT
?id@?$numpunct@_W@std@@2V0locale@2@A DD 01H DUP (?)	; std::numpunct<wchar_t>::id
_BSS	ENDS
CRT$XCU	SEGMENT
_piecewise_construct$initializer$ DD FLAT:??__Epiecewise_construct@std@@YAXXZ
CRT$XCU	ENDS
;	COMDAT __xmm@80000000800000008000000080000000
CONST	SEGMENT
__xmm@80000000800000008000000080000000 DB 00H, 00H, 00H, 080H, 00H, 00H, 00H
	DB	080H, 00H, 00H, 00H, 080H, 00H, 00H, 00H, 080H
CONST	ENDS
;	COMDAT __xmm@41f00000000000000000000000000000
CONST	SEGMENT
__xmm@41f00000000000000000000000000000 DB 00H, 00H, 00H, 00H, 00H, 00H, 00H
	DB	00H, 00H, 00H, 00H, 00H, 00H, 00H, 0f0H, 'A'
CONST	ENDS
;	COMDAT __real@bf800000
CONST	SEGMENT
__real@bf800000 DD 0bf800000r			; -1
CONST	ENDS
;	COMDAT __real@bf733333
CONST	SEGMENT
__real@bf733333 DD 0bf733333r			; -0.95
CONST	ENDS
;	COMDAT __real@bf4ccccd
CONST	SEGMENT
__real@bf4ccccd DD 0bf4ccccdr			; -0.8
CONST	ENDS
;	COMDAT __real@bf441893
CONST	SEGMENT
__real@bf441893 DD 0bf441893r			; -0.766
CONST	ENDS
;	COMDAT __real@bf400000
CONST	SEGMENT
__real@bf400000 DD 0bf400000r			; -0.75
CONST	ENDS
;	COMDAT __real@bf000000
CONST	SEGMENT
__real@bf000000 DD 0bf000000r			; -0.5
CONST	ENDS
;	COMDAT __real@becccccd
CONST	SEGMENT
__real@becccccd DD 0becccccdr			; -0.4
CONST	ENDS
;	COMDAT __real@be800000
CONST	SEGMENT
__real@be800000 DD 0be800000r			; -0.25
CONST	ENDS
;	COMDAT __real@be4ccccd
CONST	SEGMENT
__real@be4ccccd DD 0be4ccccdr			; -0.2
CONST	ENDS
;	COMDAT __real@be3126e9
CONST	SEGMENT
__real@be3126e9 DD 0be3126e9r			; -0.173
CONST	ENDS
;	COMDAT __real@bdae147b
CONST	SEGMENT
__real@bdae147b DD 0bdae147br			; -0.085
CONST	ENDS
;	COMDAT __real@bda3d70a
CONST	SEGMENT
__real@bda3d70a DD 0bda3d70ar			; -0.08
CONST	ENDS
;	COMDAT __real@bd99999a
CONST	SEGMENT
__real@bd99999a DD 0bd99999ar			; -0.075
CONST	ENDS
;	COMDAT __real@bd800000
CONST	SEGMENT
__real@bd800000 DD 0bd800000r			; -0.0625
CONST	ENDS
;	COMDAT __real@bd75c28f
CONST	SEGMENT
__real@bd75c28f DD 0bd75c28fr			; -0.06
CONST	ENDS
;	COMDAT __real@bc23d70a
CONST	SEGMENT
__real@bc23d70a DD 0bc23d70ar			; -0.01
CONST	ENDS
;	COMDAT __real@49742400
CONST	SEGMENT
__real@49742400 DD 049742400r			; 1e+006
CONST	ENDS
;	COMDAT __real@461c4000
CONST	SEGMENT
__real@461c4000 DD 0461c4000r			; 10000
CONST	ENDS
;	COMDAT __real@45bde1b0
CONST	SEGMENT
__real@45bde1b0 DD 045bde1b0r			; 6076.21
CONST	ENDS
;	COMDAT __real@447a0000
CONST	SEGMENT
__real@447a0000 DD 0447a0000r			; 1000
CONST	ENDS
;	COMDAT __real@42700000
CONST	SEGMENT
__real@42700000 DD 042700000r			; 60
CONST	ENDS
;	COMDAT __real@41f00000
CONST	SEGMENT
__real@41f00000 DD 041f00000r			; 30
CONST	ENDS
;	COMDAT __real@41cc0000
CONST	SEGMENT
__real@41cc0000 DD 041cc0000r			; 25.5
CONST	ENDS
;	COMDAT __real@41400000
CONST	SEGMENT
__real@41400000 DD 041400000r			; 12
CONST	ENDS
;	COMDAT __real@41300000
CONST	SEGMENT
__real@41300000 DD 041300000r			; 11
CONST	ENDS
;	COMDAT __real@41200000
CONST	SEGMENT
__real@41200000 DD 041200000r			; 10
CONST	ENDS
;	COMDAT __real@41180000
CONST	SEGMENT
__real@41180000 DD 041180000r			; 9.5
CONST	ENDS
;	COMDAT __real@41000000
CONST	SEGMENT
__real@41000000 DD 041000000r			; 8
CONST	ENDS
;	COMDAT __real@409996c6
CONST	SEGMENT
__real@409996c6 DD 0409996c6r			; 4.79965
CONST	ENDS
;	COMDAT __real@40800000
CONST	SEGMENT
__real@40800000 DD 040800000r			; 4
CONST	ENDS
;	COMDAT __real@40490fd9
CONST	SEGMENT
__real@40490fd9 DD 040490fd9r			; 3.14159
CONST	ENDS
;	COMDAT __real@40400000
CONST	SEGMENT
__real@40400000 DD 040400000r			; 3
CONST	ENDS
;	COMDAT __real@40200000
CONST	SEGMENT
__real@40200000 DD 040200000r			; 2.5
CONST	ENDS
;	COMDAT __real@40000000
CONST	SEGMENT
__real@40000000 DD 040000000r			; 2
CONST	ENDS
;	COMDAT __real@3fc90fdb
CONST	SEGMENT
__real@3fc90fdb DD 03fc90fdbr			; 1.5708
CONST	ENDS
;	COMDAT __real@3fc90fd9
CONST	SEGMENT
__real@3fc90fd9 DD 03fc90fd9r			; 1.5708
CONST	ENDS
;	COMDAT __real@3fc00000
CONST	SEGMENT
__real@3fc00000 DD 03fc00000r			; 1.5
CONST	ENDS
;	COMDAT __real@3fb33333
CONST	SEGMENT
__real@3fb33333 DD 03fb33333r			; 1.4
CONST	ENDS
;	COMDAT __real@3f9ccccd
CONST	SEGMENT
__real@3f9ccccd DD 03f9ccccdr			; 1.225
CONST	ENDS
;	COMDAT __real@3f9c28f6
CONST	SEGMENT
__real@3f9c28f6 DD 03f9c28f6r			; 1.22
CONST	ENDS
;	COMDAT __real@3f933333
CONST	SEGMENT
__real@3f933333 DD 03f933333r			; 1.15
CONST	ENDS
;	COMDAT __real@3f866666
CONST	SEGMENT
__real@3f866666 DD 03f866666r			; 1.05
CONST	ENDS
;	COMDAT __real@3f800000
CONST	SEGMENT
__real@3f800000 DD 03f800000r			; 1
CONST	ENDS
;	COMDAT __real@3f7be76d
CONST	SEGMENT
__real@3f7be76d DD 03f7be76dr			; 0.984
CONST	ENDS
;	COMDAT __real@3f770a3d
CONST	SEGMENT
__real@3f770a3d DD 03f770a3dr			; 0.965
CONST	ENDS
;	COMDAT __real@3f75c28f
CONST	SEGMENT
__real@3f75c28f DD 03f75c28fr			; 0.96
CONST	ENDS
;	COMDAT __real@3f747ae1
CONST	SEGMENT
__real@3f747ae1 DD 03f747ae1r			; 0.955
CONST	ENDS
;	COMDAT __real@3f733333
CONST	SEGMENT
__real@3f733333 DD 03f733333r			; 0.95
CONST	ENDS
;	COMDAT __real@3f6c8b44
CONST	SEGMENT
__real@3f6c8b44 DD 03f6c8b44r			; 0.924
CONST	ENDS
;	COMDAT __real@3f67ef9e
CONST	SEGMENT
__real@3f67ef9e DD 03f67ef9er			; 0.906
CONST	ENDS
;	COMDAT __real@3f5db22d
CONST	SEGMENT
__real@3f5db22d DD 03f5db22dr			; 0.866
CONST	ENDS
;	COMDAT __real@3f59999a
CONST	SEGMENT
__real@3f59999a DD 03f59999ar			; 0.85
CONST	ENDS
;	COMDAT __real@3f441893
CONST	SEGMENT
__real@3f441893 DD 03f441893r			; 0.766
CONST	ENDS
;	COMDAT __real@3f400000
CONST	SEGMENT
__real@3f400000 DD 03f400000r			; 0.75
CONST	ENDS
;	COMDAT __real@3f3851ec
CONST	SEGMENT
__real@3f3851ec DD 03f3851ecr			; 0.72
CONST	ENDS
;	COMDAT __real@3f333333
CONST	SEGMENT
__real@3f333333 DD 03f333333r			; 0.7
CONST	ENDS
;	COMDAT __real@3f28f5c3
CONST	SEGMENT
__real@3f28f5c3 DD 03f28f5c3r			; 0.66
CONST	ENDS
;	COMDAT __real@3f266666
CONST	SEGMENT
__real@3f266666 DD 03f266666r			; 0.65
CONST	ENDS
;	COMDAT __real@3f245a1d
CONST	SEGMENT
__real@3f245a1d DD 03f245a1dr			; 0.642
CONST	ENDS
;	COMDAT __real@3f19999a
CONST	SEGMENT
__real@3f19999a DD 03f19999ar			; 0.6
CONST	ENDS
;	COMDAT __real@3f0ccccd
CONST	SEGMENT
__real@3f0ccccd DD 03f0ccccdr			; 0.55
CONST	ENDS
;	COMDAT __real@3f0ccccc
CONST	SEGMENT
__real@3f0ccccc DD 03f0cccccr			; 0.55
CONST	ENDS
;	COMDAT __real@3f000000
CONST	SEGMENT
__real@3f000000 DD 03f000000r			; 0.5
CONST	ENDS
;	COMDAT __real@3eec8b44
CONST	SEGMENT
__real@3eec8b44 DD 03eec8b44r			; 0.462
CONST	ENDS
;	COMDAT __real@3ed81062
CONST	SEGMENT
__real@3ed81062 DD 03ed81062r			; 0.422
CONST	ENDS
;	COMDAT __real@3eb33333
CONST	SEGMENT
__real@3eb33333 DD 03eb33333r			; 0.35
CONST	ENDS
;	COMDAT __real@3e99999a
CONST	SEGMENT
__real@3e99999a DD 03e99999ar			; 0.3
CONST	ENDS
;	COMDAT __real@3e841893
CONST	SEGMENT
__real@3e841893 DD 03e841893r			; 0.258
CONST	ENDS
;	COMDAT __real@3e4ccccd
CONST	SEGMENT
__real@3e4ccccd DD 03e4ccccdr			; 0.2
CONST	ENDS
;	COMDAT __real@3e3851ec
CONST	SEGMENT
__real@3e3851ec DD 03e3851ecr			; 0.18
CONST	ENDS
;	COMDAT __real@3e3126e9
CONST	SEGMENT
__real@3e3126e9 DD 03e3126e9r			; 0.173
CONST	ENDS
;	COMDAT __real@3e19999a
CONST	SEGMENT
__real@3e19999a DD 03e19999ar			; 0.15
CONST	ENDS
;	COMDAT __real@3e000000
CONST	SEGMENT
__real@3e000000 DD 03e000000r			; 0.125
CONST	ENDS
;	COMDAT __real@3dcccccd
CONST	SEGMENT
__real@3dcccccd DD 03dcccccdr			; 0.1
CONST	ENDS
;	COMDAT __real@3db33333
CONST	SEGMENT
__real@3db33333 DD 03db33333r			; 0.0875
CONST	ENDS
;	COMDAT __real@3dae147b
CONST	SEGMENT
__real@3dae147b DD 03dae147br			; 0.085
CONST	ENDS
;	COMDAT __real@3da3d70a
CONST	SEGMENT
__real@3da3d70a DD 03da3d70ar			; 0.08
CONST	ENDS
;	COMDAT __real@3d851eb8
CONST	SEGMENT
__real@3d851eb8 DD 03d851eb8r			; 0.065
CONST	ENDS
;	COMDAT __real@3d800000
CONST	SEGMENT
__real@3d800000 DD 03d800000r			; 0.0625
CONST	ENDS
;	COMDAT __real@3d75c28f
CONST	SEGMENT
__real@3d75c28f DD 03d75c28fr			; 0.06
CONST	ENDS
;	COMDAT __real@3d4ccccd
CONST	SEGMENT
__real@3d4ccccd DD 03d4ccccdr			; 0.05
CONST	ENDS
;	COMDAT __real@3d23d70a
CONST	SEGMENT
__real@3d23d70a DD 03d23d70ar			; 0.04
CONST	ENDS
;	COMDAT __real@3ca3d70a
CONST	SEGMENT
__real@3ca3d70a DD 03ca3d70ar			; 0.02
CONST	ENDS
;	COMDAT __real@3ba3d70a
CONST	SEGMENT
__real@3ba3d70a DD 03ba3d70ar			; 0.005
CONST	ENDS
;	COMDAT __real@392c987a
CONST	SEGMENT
__real@392c987a DD 0392c987ar			; 0.0001646
CONST	ENDS
;	COMDAT __real@00000000
CONST	SEGMENT
__real@00000000 DD 000000000r			; 0
CONST	ENDS
;	COMDAT ??_R2RwrClass@@8
rdata$r	SEGMENT
??_R2RwrClass@@8 DD FLAT:??_R1A@?0A@EA@RwrClass@@8	; RwrClass::`RTTI Base Class Array'
	DD	FLAT:??_R1A@?0A@EA@SensorClass@@8
	DD	FLAT:??_R1A@?0A@EA@MfdDrawable@@8
	DD	FLAT:??_R1A@?0A@EA@DrawableClass@@8
rdata$r	ENDS
;	COMDAT ??_R3RwrClass@@8
rdata$r	SEGMENT
??_R3RwrClass@@8 DD 00H					; RwrClass::`RTTI Class Hierarchy Descriptor'
	DD	00H
	DD	04H
	DD	FLAT:??_R2RwrClass@@8
rdata$r	ENDS
;	COMDAT ??_R0?AVRwrClass@@@8
_DATA	SEGMENT
??_R0?AVRwrClass@@@8 DD FLAT:??_7type_info@@6B@		; RwrClass `RTTI Type Descriptor'
	DD	00H
	DB	'.?AVRwrClass@@', 00H
_DATA	ENDS
;	COMDAT ??_R1A@?0A@EA@RwrClass@@8
rdata$r	SEGMENT
??_R1A@?0A@EA@RwrClass@@8 DD FLAT:??_R0?AVRwrClass@@@8	; RwrClass::`RTTI Base Class Descriptor at (0,-1,0,64)'
	DD	03H
	DD	00H
	DD	0ffffffffH
	DD	00H
	DD	040H
	DD	FLAT:??_R3RwrClass@@8
rdata$r	ENDS
;	COMDAT ??_R1A@?0A@EA@HarmTargetingPod@@8
rdata$r	SEGMENT
??_R1A@?0A@EA@HarmTargetingPod@@8 DD FLAT:??_R0?AVHarmTargetingPod@@@8 ; HarmTargetingPod::`RTTI Base Class Descriptor at (0,-1,0,64)'
	DD	04H
	DD	00H
	DD	0ffffffffH
	DD	00H
	DD	040H
	DD	FLAT:??_R3HarmTargetingPod@@8
rdata$r	ENDS
;	COMDAT ??_R2HarmTargetingPod@@8
rdata$r	SEGMENT
??_R2HarmTargetingPod@@8 DD FLAT:??_R1A@?0A@EA@HarmTargetingPod@@8 ; HarmTargetingPod::`RTTI Base Class Array'
	DD	FLAT:??_R1A@?0A@EA@RwrClass@@8
	DD	FLAT:??_R1A@?0A@EA@SensorClass@@8
	DD	FLAT:??_R1A@?0A@EA@MfdDrawable@@8
	DD	FLAT:??_R1A@?0A@EA@DrawableClass@@8
rdata$r	ENDS
;	COMDAT ??_R3HarmTargetingPod@@8
rdata$r	SEGMENT
??_R3HarmTargetingPod@@8 DD 00H				; HarmTargetingPod::`RTTI Class Hierarchy Descriptor'
	DD	00H
	DD	05H
	DD	FLAT:??_R2HarmTargetingPod@@8
rdata$r	ENDS
;	COMDAT ??_R0?AVHarmTargetingPod@@@8
_DATA	SEGMENT
??_R0?AVHarmTargetingPod@@@8 DD FLAT:??_7type_info@@6B@	; HarmTargetingPod `RTTI Type Descriptor'
	DD	00H
	DB	'.?AVHarmTargetingPod@@', 00H
_DATA	ENDS
;	COMDAT ??_R4HarmTargetingPod@@6B@
rdata$r	SEGMENT
??_R4HarmTargetingPod@@6B@ DD 00H			; HarmTargetingPod::`RTTI Complete Object Locator'
	DD	00H
	DD	00H
	DD	FLAT:??_R0?AVHarmTargetingPod@@@8
	DD	FLAT:??_R3HarmTargetingPod@@8
rdata$r	ENDS
;	COMDAT ??_R2SensorClass@@8
rdata$r	SEGMENT
??_R2SensorClass@@8 DD FLAT:??_R1A@?0A@EA@SensorClass@@8 ; SensorClass::`RTTI Base Class Array'
	DD	FLAT:??_R1A@?0A@EA@MfdDrawable@@8
	DD	FLAT:??_R1A@?0A@EA@DrawableClass@@8
rdata$r	ENDS
;	COMDAT ??_R3SensorClass@@8
rdata$r	SEGMENT
??_R3SensorClass@@8 DD 00H				; SensorClass::`RTTI Class Hierarchy Descriptor'
	DD	00H
	DD	03H
	DD	FLAT:??_R2SensorClass@@8
rdata$r	ENDS
;	COMDAT ??_R0?AVSensorClass@@@8
_DATA	SEGMENT
??_R0?AVSensorClass@@@8 DD FLAT:??_7type_info@@6B@	; SensorClass `RTTI Type Descriptor'
	DD	00H
	DB	'.?AVSensorClass@@', 00H
_DATA	ENDS
;	COMDAT ??_R1A@?0A@EA@SensorClass@@8
rdata$r	SEGMENT
??_R1A@?0A@EA@SensorClass@@8 DD FLAT:??_R0?AVSensorClass@@@8 ; SensorClass::`RTTI Base Class Descriptor at (0,-1,0,64)'
	DD	02H
	DD	00H
	DD	0ffffffffH
	DD	00H
	DD	040H
	DD	FLAT:??_R3SensorClass@@8
rdata$r	ENDS
;	COMDAT ??_R1A@?0A@EA@MfdDrawable@@8
rdata$r	SEGMENT
??_R1A@?0A@EA@MfdDrawable@@8 DD FLAT:??_R0?AVMfdDrawable@@@8 ; MfdDrawable::`RTTI Base Class Descriptor at (0,-1,0,64)'
	DD	01H
	DD	00H
	DD	0ffffffffH
	DD	00H
	DD	040H
	DD	FLAT:??_R3MfdDrawable@@8
rdata$r	ENDS
;	COMDAT ??_R2MfdDrawable@@8
rdata$r	SEGMENT
??_R2MfdDrawable@@8 DD FLAT:??_R1A@?0A@EA@MfdDrawable@@8 ; MfdDrawable::`RTTI Base Class Array'
	DD	FLAT:??_R1A@?0A@EA@DrawableClass@@8
rdata$r	ENDS
;	COMDAT ??_R3MfdDrawable@@8
rdata$r	SEGMENT
??_R3MfdDrawable@@8 DD 00H				; MfdDrawable::`RTTI Class Hierarchy Descriptor'
	DD	00H
	DD	02H
	DD	FLAT:??_R2MfdDrawable@@8
rdata$r	ENDS
;	COMDAT ??_R0?AVMfdDrawable@@@8
_DATA	SEGMENT
??_R0?AVMfdDrawable@@@8 DD FLAT:??_7type_info@@6B@	; MfdDrawable `RTTI Type Descriptor'
	DD	00H
	DB	'.?AVMfdDrawable@@', 00H
_DATA	ENDS
;	COMDAT ??_R1A@?0A@EA@DrawableClass@@8
rdata$r	SEGMENT
??_R1A@?0A@EA@DrawableClass@@8 DD FLAT:??_R0?AVDrawableClass@@@8 ; DrawableClass::`RTTI Base Class Descriptor at (0,-1,0,64)'
	DD	00H
	DD	00H
	DD	0ffffffffH
	DD	00H
	DD	040H
	DD	FLAT:??_R3DrawableClass@@8
rdata$r	ENDS
;	COMDAT ??_R2DrawableClass@@8
rdata$r	SEGMENT
??_R2DrawableClass@@8 DD FLAT:??_R1A@?0A@EA@DrawableClass@@8 ; DrawableClass::`RTTI Base Class Array'
rdata$r	ENDS
;	COMDAT ??_R3DrawableClass@@8
rdata$r	SEGMENT
??_R3DrawableClass@@8 DD 00H				; DrawableClass::`RTTI Class Hierarchy Descriptor'
	DD	00H
	DD	01H
	DD	FLAT:??_R2DrawableClass@@8
rdata$r	ENDS
;	COMDAT ??_R0?AVDrawableClass@@@8
_DATA	SEGMENT
??_R0?AVDrawableClass@@@8 DD FLAT:??_7type_info@@6B@	; DrawableClass `RTTI Type Descriptor'
	DD	00H
	DB	'.?AVDrawableClass@@', 00H
_DATA	ENDS
;	COMDAT ??_R1A@?0A@EA@_System_error_category@std@@8
rdata$r	SEGMENT
??_R1A@?0A@EA@_System_error_category@std@@8 DD FLAT:??_R0?AV_System_error_category@std@@@8 ; std::_System_error_category::`RTTI Base Class Descriptor at (0,-1,0,64)'
	DD	02H
	DD	00H
	DD	0ffffffffH
	DD	00H
	DD	040H
	DD	FLAT:??_R3_System_error_category@std@@8
rdata$r	ENDS
;	COMDAT ??_R2_System_error_category@std@@8
rdata$r	SEGMENT
??_R2_System_error_category@std@@8 DD FLAT:??_R1A@?0A@EA@_System_error_category@std@@8 ; std::_System_error_category::`RTTI Base Class Array'
	DD	FLAT:??_R1A@?0A@EA@_Generic_error_category@std@@8
	DD	FLAT:??_R1A@?0A@EA@error_category@std@@8
rdata$r	ENDS
;	COMDAT ??_R3_System_error_category@std@@8
rdata$r	SEGMENT
??_R3_System_error_category@std@@8 DD 00H		; std::_System_error_category::`RTTI Class Hierarchy Descriptor'
	DD	00H
	DD	03H
	DD	FLAT:??_R2_System_error_category@std@@8
rdata$r	ENDS
;	COMDAT ??_R0?AV_System_error_category@std@@@8
_DATA	SEGMENT
??_R0?AV_System_error_category@std@@@8 DD FLAT:??_7type_info@@6B@ ; std::_System_error_category `RTTI Type Descriptor'
	DD	00H
	DB	'.?AV_System_error_category@std@@', 00H
_DATA	ENDS
;	COMDAT ??_R4_System_error_category@std@@6B@
rdata$r	SEGMENT
??_R4_System_error_category@std@@6B@ DD 00H		; std::_System_error_category::`RTTI Complete Object Locator'
	DD	00H
	DD	00H
	DD	FLAT:??_R0?AV_System_error_category@std@@@8
	DD	FLAT:??_R3_System_error_category@std@@8
rdata$r	ENDS
;	COMDAT ??_R1A@?0A@EA@_Iostream_error_category@std@@8
rdata$r	SEGMENT
??_R1A@?0A@EA@_Iostream_error_category@std@@8 DD FLAT:??_R0?AV_Iostream_error_category@std@@@8 ; std::_Iostream_error_category::`RTTI Base Class Descriptor at (0,-1,0,64)'
	DD	02H
	DD	00H
	DD	0ffffffffH
	DD	00H
	DD	040H
	DD	FLAT:??_R3_Iostream_error_category@std@@8
rdata$r	ENDS
;	COMDAT ??_R2_Iostream_error_category@std@@8
rdata$r	SEGMENT
??_R2_Iostream_error_category@std@@8 DD FLAT:??_R1A@?0A@EA@_Iostream_error_category@std@@8 ; std::_Iostream_error_category::`RTTI Base Class Array'
	DD	FLAT:??_R1A@?0A@EA@_Generic_error_category@std@@8
	DD	FLAT:??_R1A@?0A@EA@error_category@std@@8
rdata$r	ENDS
;	COMDAT ??_R3_Iostream_error_category@std@@8
rdata$r	SEGMENT
??_R3_Iostream_error_category@std@@8 DD 00H		; std::_Iostream_error_category::`RTTI Class Hierarchy Descriptor'
	DD	00H
	DD	03H
	DD	FLAT:??_R2_Iostream_error_category@std@@8
rdata$r	ENDS
;	COMDAT ??_R0?AV_Iostream_error_category@std@@@8
_DATA	SEGMENT
??_R0?AV_Iostream_error_category@std@@@8 DD FLAT:??_7type_info@@6B@ ; std::_Iostream_error_category `RTTI Type Descriptor'
	DD	00H
	DB	'.?AV_Iostream_error_category@std@@', 00H
_DATA	ENDS
;	COMDAT ??_R4_Iostream_error_category@std@@6B@
rdata$r	SEGMENT
??_R4_Iostream_error_category@std@@6B@ DD 00H		; std::_Iostream_error_category::`RTTI Complete Object Locator'
	DD	00H
	DD	00H
	DD	FLAT:??_R0?AV_Iostream_error_category@std@@@8
	DD	FLAT:??_R3_Iostream_error_category@std@@8
rdata$r	ENDS
;	COMDAT ??_R1A@?0A@EA@_Generic_error_category@std@@8
rdata$r	SEGMENT
??_R1A@?0A@EA@_Generic_error_category@std@@8 DD FLAT:??_R0?AV_Generic_error_category@std@@@8 ; std::_Generic_error_category::`RTTI Base Class Descriptor at (0,-1,0,64)'
	DD	01H
	DD	00H
	DD	0ffffffffH
	DD	00H
	DD	040H
	DD	FLAT:??_R3_Generic_error_category@std@@8
rdata$r	ENDS
;	COMDAT ??_R2_Generic_error_category@std@@8
rdata$r	SEGMENT
??_R2_Generic_error_category@std@@8 DD FLAT:??_R1A@?0A@EA@_Generic_error_category@std@@8 ; std::_Generic_error_category::`RTTI Base Class Array'
	DD	FLAT:??_R1A@?0A@EA@error_category@std@@8
rdata$r	ENDS
;	COMDAT ??_R3_Generic_error_category@std@@8
rdata$r	SEGMENT
??_R3_Generic_error_category@std@@8 DD 00H		; std::_Generic_error_category::`RTTI Class Hierarchy Descriptor'
	DD	00H
	DD	02H
	DD	FLAT:??_R2_Generic_error_category@std@@8
rdata$r	ENDS
;	COMDAT ??_R0?AV_Generic_error_category@std@@@8
_DATA	SEGMENT
??_R0?AV_Generic_error_category@std@@@8 DD FLAT:??_7type_info@@6B@ ; std::_Generic_error_category `RTTI Type Descriptor'
	DD	00H
	DB	'.?AV_Generic_error_category@std@@', 00H
_DATA	ENDS
;	COMDAT ??_R4_Generic_error_category@std@@6B@
rdata$r	SEGMENT
??_R4_Generic_error_category@std@@6B@ DD 00H		; std::_Generic_error_category::`RTTI Complete Object Locator'
	DD	00H
	DD	00H
	DD	FLAT:??_R0?AV_Generic_error_category@std@@@8
	DD	FLAT:??_R3_Generic_error_category@std@@8
rdata$r	ENDS
;	COMDAT ??_R1A@?0A@EA@error_category@std@@8
rdata$r	SEGMENT
??_R1A@?0A@EA@error_category@std@@8 DD FLAT:??_R0?AVerror_category@std@@@8 ; std::error_category::`RTTI Base Class Descriptor at (0,-1,0,64)'
	DD	00H
	DD	00H
	DD	0ffffffffH
	DD	00H
	DD	040H
	DD	FLAT:??_R3error_category@std@@8
rdata$r	ENDS
;	COMDAT ??_R2error_category@std@@8
rdata$r	SEGMENT
??_R2error_category@std@@8 DD FLAT:??_R1A@?0A@EA@error_category@std@@8 ; std::error_category::`RTTI Base Class Array'
rdata$r	ENDS
;	COMDAT ??_R3error_category@std@@8
rdata$r	SEGMENT
??_R3error_category@std@@8 DD 00H			; std::error_category::`RTTI Class Hierarchy Descriptor'
	DD	00H
	DD	01H
	DD	FLAT:??_R2error_category@std@@8
rdata$r	ENDS
;	COMDAT ??_R0?AVerror_category@std@@@8
_DATA	SEGMENT
??_R0?AVerror_category@std@@@8 DD FLAT:??_7type_info@@6B@ ; std::error_category `RTTI Type Descriptor'
	DD	00H
	DB	'.?AVerror_category@std@@', 00H
_DATA	ENDS
;	COMDAT ??_R4error_category@std@@6B@
rdata$r	SEGMENT
??_R4error_category@std@@6B@ DD 00H			; std::error_category::`RTTI Complete Object Locator'
	DD	00H
	DD	00H
	DD	FLAT:??_R0?AVerror_category@std@@@8
	DD	FLAT:??_R3error_category@std@@8
rdata$r	ENDS
;	COMDAT ??_C@_0BA@JFNIOLAK@string?5too?5long?$AA@
CONST	SEGMENT
??_C@_0BA@JFNIOLAK@string?5too?5long?$AA@ DB 'string too long', 00H ; `string'
CONST	ENDS
;	COMDAT ??_C@_0BI@CFPLBAOH@invalid?5string?5position?$AA@
CONST	SEGMENT
??_C@_0BI@CFPLBAOH@invalid?5string?5position?$AA@ DB 'invalid string posi'
	DB	'tion', 00H					; `string'
CONST	ENDS
;	COMDAT ?DTSBBottom@?4??DrawDTSBBox@HarmTargetingPod@@IAEXXZ@4MB
CONST	SEGMENT
?DTSBBottom@?4??DrawDTSBBox@HarmTargetingPod@@IAEXXZ@4MB DD 03f933333r ; 1.15 ; `HarmTargetingPod::DrawDTSBBox'::`5'::DTSBBottom
CONST	ENDS
;	COMDAT ?DTSBTop@?4??DrawDTSBBox@HarmTargetingPod@@IAEXXZ@4MB
CONST	SEGMENT
?DTSBTop@?4??DrawDTSBBox@HarmTargetingPod@@IAEXXZ@4MB DD 03fa66666r ; 1.3 ; `HarmTargetingPod::DrawDTSBBox'::`5'::DTSBTop
CONST	ENDS
;	COMDAT ?DTSBSide@?4??DrawDTSBBox@HarmTargetingPod@@IAEXXZ@4MB
CONST	SEGMENT
?DTSBSide@?4??DrawDTSBBox@HarmTargetingPod@@IAEXXZ@4MB DD 03f266666r ; 0.65 ; `HarmTargetingPod::DrawDTSBBox'::`5'::DTSBSide
CONST	ENDS
;	COMDAT ??_C@_03KDFFCEML@RDY?$AA@
CONST	SEGMENT
??_C@_03KDFFCEML@RDY?$AA@ DB 'RDY', 00H			; `string'
CONST	ENDS
;	COMDAT ??_C@_07COCHMHBB@?$CFd?3?$CF02d?$AA@
CONST	SEGMENT
??_C@_07COCHMHBB@?$CFd?3?$CF02d?$AA@ DB '%d:%02d', 00H	; `string'
CONST	ENDS
;	COMDAT ??_C@_05GJNDEMGI@SCT?91?$AA@
CONST	SEGMENT
??_C@_05GJNDEMGI@SCT?91?$AA@ DB 'SCT-1', 00H		; `string'
CONST	ENDS
;	COMDAT ??_C@_03GOOLIKIF@?$CF3d?$AA@
CONST	SEGMENT
??_C@_03GOOLIKIF@?$CF3d?$AA@ DB '%3d', 00H		; `string'
CONST	ENDS
;	COMDAT ?TAIL_WING@?1??HADDisplay@HarmTargetingPod@@UAEXPAVVirtualDisplay@@@Z@4MB
CONST	SEGMENT
?TAIL_WING@?1??HADDisplay@HarmTargetingPod@@UAEXPAVVirtualDisplay@@@Z@4MB DD 03ca3d70ar ; 0.02 ; `HarmTargetingPod::HADDisplay'::`2'::TAIL_WING
CONST	ENDS
;	COMDAT ?WING@?1??HADDisplay@HarmTargetingPod@@UAEXPAVVirtualDisplay@@@Z@4MB
CONST	SEGMENT
?WING@?1??HADDisplay@HarmTargetingPod@@UAEXPAVVirtualDisplay@@@Z@4MB DD 03d75c28fr ; 0.06 ; `HarmTargetingPod::HADDisplay'::`2'::WING
CONST	ENDS
;	COMDAT ?TAIL@?1??HADDisplay@HarmTargetingPod@@UAEXPAVVirtualDisplay@@@Z@4MB
CONST	SEGMENT
?TAIL@?1??HADDisplay@HarmTargetingPod@@UAEXPAVVirtualDisplay@@@Z@4MB DD 03da3d70ar ; 0.08 ; `HarmTargetingPod::HADDisplay'::`2'::TAIL
CONST	ENDS
;	COMDAT ?NOSE@?1??HADDisplay@HarmTargetingPod@@UAEXPAVVirtualDisplay@@@Z@4MB
CONST	SEGMENT
?NOSE@?1??HADDisplay@HarmTargetingPod@@UAEXPAVVirtualDisplay@@@Z@4MB DD 03ca3d70ar ; 0.02 ; `HarmTargetingPod::HADDisplay'::`2'::NOSE
CONST	ENDS
;	COMDAT ?arrowW@?1??HADDisplay@HarmTargetingPod@@UAEXPAVVirtualDisplay@@@Z@4MB
CONST	SEGMENT
?arrowW@?1??HADDisplay@HarmTargetingPod@@UAEXPAVVirtualDisplay@@@Z@4MB DD 03d315b57r ; 0.0433 ; `HarmTargetingPod::HADDisplay'::`2'::arrowW
CONST	ENDS
;	COMDAT ?arrowH@?1??HADDisplay@HarmTargetingPod@@UAEXPAVVirtualDisplay@@@Z@4MB
CONST	SEGMENT
?arrowH@?1??HADDisplay@HarmTargetingPod@@UAEXPAVVirtualDisplay@@@Z@4MB DD 03d19999ar ; 0.0375 ; `HarmTargetingPod::HADDisplay'::`2'::arrowH
CONST	ENDS
;	COMDAT ??_7HarmTargetingPod@@6B@
CONST	SEGMENT
??_7HarmTargetingPod@@6B@ DD FLAT:??_R4HarmTargetingPod@@6B@ ; HarmTargetingPod::`vftable'
	DD	FLAT:??_EHarmTargetingPod@@UAEPAXI@Z
	DD	FLAT:?Display@HarmTargetingPod@@UAEXPAVVirtualDisplay@@@Z
	DD	FLAT:?DisplayInit@RwrClass@@UAEXPAVImageBuffer@@@Z
	DD	FLAT:?DisplayExit@DrawableClass@@UAEXXZ
	DD	FLAT:?GetDisplay@SensorClass@@UAEPAVVirtualDisplay@@XZ
	DD	FLAT:?PushButton@MfdDrawable@@UAEXHH@Z
	DD	FLAT:?SetType@SensorClass@@UAEXW4SensorType@1@@Z
	DD	FLAT:?SetPower@SensorClass@@UAEXH@Z
	DD	FLAT:?IsOn@SensorClass@@UAEHXZ
	DD	FLAT:?SetDesiredTarget@HarmTargetingPod@@UAEXPAVSimObjectType@@@Z
	DD	FLAT:?ClearSensorTarget@SensorClass@@UAEXXZ
	DD	FLAT:?Exec@HarmTargetingPod@@UAEPAVSimObjectType@@PAV2@@Z
	DD	FLAT:?ExecModes@SensorClass@@UAEXHH@Z
	DD	FLAT:?UpdateState@SensorClass@@UAEXHH@Z
	DD	FLAT:?SetSeekerPos@SensorClass@@UAEXMM@Z
	DD	FLAT:?TargetUnderCursor@SensorClass@@UAE?AVVU_ID@@XZ
	DD	FLAT:?SetSensorTarget@SensorClass@@MAEXPAVSimObjectType@@@Z
	DD	FLAT:?SetSensorTargetHack@SensorClass@@MAEXPAVFalconEntity@@@Z
	DD	FLAT:?CheckLockedTarget@SensorClass@@MAEXXZ
	DD	FLAT:?ObjectDetected@HarmTargetingPod@@UAEHPAVFalconEntity@@HH@Z
	DD	FLAT:?GetAGCenter@HarmTargetingPod@@UAEXPAM0@Z
	DD	FLAT:?HADDisplay@HarmTargetingPod@@UAEXPAVVirtualDisplay@@@Z
	DD	FLAT:?HADExpDisplay@HarmTargetingPod@@UAEXPAVVirtualDisplay@@@Z
	DD	FLAT:?HASDisplay@HarmTargetingPod@@UAEXPAVVirtualDisplay@@@Z
	DD	FLAT:?POSDisplay@HarmTargetingPod@@UAEXPAVVirtualDisplay@@@Z
	DD	FLAT:?HandoffDisplay@HarmTargetingPod@@UAEXPAVVirtualDisplay@@@Z
CONST	ENDS
;	COMDAT ??_C@_06FHFOAHML@system?$AA@
CONST	SEGMENT
??_C@_06FHFOAHML@system?$AA@ DB 'system', 00H		; `string'
CONST	ENDS
;	COMDAT ??_7_System_error_category@std@@6B@
CONST	SEGMENT
??_7_System_error_category@std@@6B@ DD FLAT:??_R4_System_error_category@std@@6B@ ; std::_System_error_category::`vftable'
	DD	FLAT:??_E_System_error_category@std@@UAEPAXI@Z
	DD	FLAT:?name@_System_error_category@std@@UBEPBDXZ
	DD	FLAT:?message@_System_error_category@std@@UBE?AV?$basic_string@DU?$char_traits@D@std@@V?$allocator@D@2@@2@H@Z
	DD	FLAT:?default_error_condition@_System_error_category@std@@UBE?AVerror_condition@2@H@Z
	DD	FLAT:?equivalent@error_category@std@@UBE_NABVerror_code@2@H@Z
	DD	FLAT:?equivalent@error_category@std@@UBE_NHABVerror_condition@2@@Z
CONST	ENDS
;	COMDAT ??_C@_0BG@PADBLCHM@iostream?5stream?5error?$AA@
CONST	SEGMENT
??_C@_0BG@PADBLCHM@iostream?5stream?5error?$AA@ DB 'iostream stream error'
	DB	00H						; `string'
CONST	ENDS
;	COMDAT ??_C@_08LLGCOLLL@iostream?$AA@
CONST	SEGMENT
??_C@_08LLGCOLLL@iostream?$AA@ DB 'iostream', 00H	; `string'
CONST	ENDS
;	COMDAT ??_7_Iostream_error_category@std@@6B@
CONST	SEGMENT
??_7_Iostream_error_category@std@@6B@ DD FLAT:??_R4_Iostream_error_category@std@@6B@ ; std::_Iostream_error_category::`vftable'
	DD	FLAT:??_E_Iostream_error_category@std@@UAEPAXI@Z
	DD	FLAT:?name@_Iostream_error_category@std@@UBEPBDXZ
	DD	FLAT:?message@_Iostream_error_category@std@@UBE?AV?$basic_string@DU?$char_traits@D@std@@V?$allocator@D@2@@2@H@Z
	DD	FLAT:?default_error_condition@error_category@std@@UBE?AVerror_condition@2@H@Z
	DD	FLAT:?equivalent@error_category@std@@UBE_NABVerror_code@2@H@Z
	DD	FLAT:?equivalent@error_category@std@@UBE_NHABVerror_condition@2@@Z
CONST	ENDS
;	COMDAT ??_C@_0O@BFJCFAAK@unknown?5error?$AA@
CONST	SEGMENT
??_C@_0O@BFJCFAAK@unknown?5error?$AA@ DB 'unknown error', 00H ; `string'
CONST	ENDS
;	COMDAT ??_C@_07DCLBNMLN@generic?$AA@
CONST	SEGMENT
??_C@_07DCLBNMLN@generic?$AA@ DB 'generic', 00H		; `string'
CONST	ENDS
;	COMDAT ??_7_Generic_error_category@std@@6B@
CONST	SEGMENT
??_7_Generic_error_category@std@@6B@ DD FLAT:??_R4_Generic_error_category@std@@6B@ ; std::_Generic_error_category::`vftable'
	DD	FLAT:??_E_Generic_error_category@std@@UAEPAXI@Z
	DD	FLAT:?name@_Generic_error_category@std@@UBEPBDXZ
	DD	FLAT:?message@_Generic_error_category@std@@UBE?AV?$basic_string@DU?$char_traits@D@std@@V?$allocator@D@2@@2@H@Z
	DD	FLAT:?default_error_condition@error_category@std@@UBE?AVerror_condition@2@H@Z
	DD	FLAT:?equivalent@error_category@std@@UBE_NABVerror_code@2@H@Z
	DD	FLAT:?equivalent@error_category@std@@UBE_NHABVerror_condition@2@@Z
CONST	ENDS
;	COMDAT ??_7error_category@std@@6B@
CONST	SEGMENT
??_7error_category@std@@6B@ DD FLAT:??_R4error_category@std@@6B@ ; std::error_category::`vftable'
	DD	FLAT:??_Eerror_category@std@@UAEPAXI@Z
	DD	FLAT:__purecall
	DD	FLAT:__purecall
	DD	FLAT:?default_error_condition@error_category@std@@UBE?AVerror_condition@2@H@Z
	DD	FLAT:?equivalent@error_category@std@@UBE_NABVerror_code@2@H@Z
	DD	FLAT:?equivalent@error_category@std@@UBE_NHABVerror_condition@2@@Z
CONST	ENDS
;	COMDAT xdata$x
xdata$x	SEGMENT
__unwindtable$??$construct@PADAAPAD@?$allocator@D@std@@QAEXPAPADAAPAD@Z DD 0ffffffffH
	DD	FLAT:__unwindfunclet$??$construct@PADAAPAD@?$allocator@D@std@@QAEXPAPADAAPAD@Z$0
__ehfuncinfo$??$construct@PADAAPAD@?$allocator@D@std@@QAEXPAPADAAPAD@Z DD 019930522H
	DD	01H
	DD	FLAT:__unwindtable$??$construct@PADAAPAD@?$allocator@D@std@@QAEXPAPADAAPAD@Z
	DD	2 DUP(00H)
	DD	2 DUP(00H)
	DD	00H
	DD	01H
xdata$x	ENDS
xdata$x	SEGMENT
__unwindtable$?SetDesiredTarget@HarmTargetingPod@@UAEXPAVSimObjectType@@@Z DD 0ffffffffH
	DD	FLAT:__unwindfunclet$?SetDesiredTarget@HarmTargetingPod@@UAEXPAVSimObjectType@@@Z$0
__unwindtable$?ObjectDetected@HarmTargetingPod@@UAEHPAVFalconEntity@@HH@Z DD 0ffffffffH
	DD	FLAT:__unwindfunclet$?ObjectDetected@HarmTargetingPod@@UAEHPAVFalconEntity@@HH@Z$0
__unwindtable$?Exec@HarmTargetingPod@@UAEPAVSimObjectType@@PAV2@@Z DD 0ffffffffH
	DD	FLAT:__unwindfunclet$?Exec@HarmTargetingPod@@UAEPAVSimObjectType@@PAV2@@Z$0
__unwindtable$??0HarmTargetingPod@@QAE@HPAVSimMoverClass@@@Z DD 0ffffffffH
	DD	FLAT:__unwindfunclet$??0HarmTargetingPod@@QAE@HPAVSimMoverClass@@@Z$0
__ehfuncinfo$?SetDesiredTarget@HarmTargetingPod@@UAEXPAVSimObjectType@@@Z DD 019930522H
	DD	01H
	DD	FLAT:__unwindtable$?SetDesiredTarget@HarmTargetingPod@@UAEXPAVSimObjectType@@@Z
	DD	2 DUP(00H)
	DD	2 DUP(00H)
	DD	00H
	DD	01H
__ehfuncinfo$?ObjectDetected@HarmTargetingPod@@UAEHPAVFalconEntity@@HH@Z DD 019930522H
	DD	01H
	DD	FLAT:__unwindtable$?ObjectDetected@HarmTargetingPod@@UAEHPAVFalconEntity@@HH@Z
	DD	2 DUP(00H)
	DD	2 DUP(00H)
	DD	00H
	DD	01H
__ehfuncinfo$?Exec@HarmTargetingPod@@UAEPAVSimObjectType@@PAV2@@Z DD 019930522H
	DD	01H
	DD	FLAT:__unwindtable$?Exec@HarmTargetingPod@@UAEPAVSimObjectType@@PAV2@@Z
	DD	2 DUP(00H)
	DD	2 DUP(00H)
	DD	00H
	DD	01H
__ehfuncinfo$??0HarmTargetingPod@@QAE@HPAVSimMoverClass@@@Z DD 019930522H
	DD	01H
	DD	FLAT:__unwindtable$??0HarmTargetingPod@@QAE@HPAVSimMoverClass@@@Z
	DD	2 DUP(00H)
	DD	2 DUP(00H)
	DD	00H
	DD	01H
xdata$x	ENDS
;	COMDAT xdata$x
xdata$x	SEGMENT
__catchsym$?_Copy@?$basic_string@DU?$char_traits@D@std@@V?$allocator@D@2@@std@@QAEXII@Z$5 DD 040H
	DD	00H
	DD	00H
	DD	FLAT:__catch$?_Copy@?$basic_string@DU?$char_traits@D@std@@V?$allocator@D@2@@std@@QAEXII@Z$0
__catchsym$?_Copy@?$basic_string@DU?$char_traits@D@std@@V?$allocator@D@2@@std@@QAEXII@Z$4 DD 040H
	DD	00H
	DD	00H
	DD	FLAT:__catch$?_Copy@?$basic_string@DU?$char_traits@D@std@@V?$allocator@D@2@@std@@QAEXII@Z$1
__unwindtable$?_Copy@?$basic_string@DU?$char_traits@D@std@@V?$allocator@D@2@@std@@QAEXII@Z DD 0ffffffffH
	DD	00H
	DD	0ffffffffH
	DD	00H
	DD	01H
	DD	00H
	DD	01H
	DD	00H
__ehfuncinfo$?_Copy@?$basic_string@DU?$char_traits@D@std@@V?$allocator@D@2@@std@@QAEXII@Z DD 019930522H
	DD	04H
	DD	FLAT:__unwindtable$?_Copy@?$basic_string@DU?$char_traits@D@std@@V?$allocator@D@2@@std@@QAEXII@Z
	DD	02H
	DD	FLAT:__tryblocktable$?_Copy@?$basic_string@DU?$char_traits@D@std@@V?$allocator@D@2@@std@@QAEXII@Z
	DD	2 DUP(00H)
	DD	00H
	DD	01H
__tryblocktable$?_Copy@?$basic_string@DU?$char_traits@D@std@@V?$allocator@D@2@@std@@QAEXII@Z DD 02H
	DD	02H
	DD	03H
	DD	01H
	DD	FLAT:__catchsym$?_Copy@?$basic_string@DU?$char_traits@D@std@@V?$allocator@D@2@@std@@QAEXII@Z$4
	DD	00H
	DD	00H
	DD	03H
	DD	01H
	DD	FLAT:__catchsym$?_Copy@?$basic_string@DU?$char_traits@D@std@@V?$allocator@D@2@@std@@QAEXII@Z$5
xdata$x	ENDS
CRT$XCU	SEGMENT
_allocator_arg$initializer$ DD FLAT:??__Eallocator_arg@std@@YAXXZ
CRT$XCU	ENDS
;	COMDAT CRT$XCU
CRT$XCU	SEGMENT
?_Generic_object$initializer$@?$_Error_objects@H@std@@2P6AXXZA DD FLAT:??__E?_Generic_object@?$_Error_objects@H@std@@2V_Generic_error_category@2@A@@YAXXZ ; std::_Error_objects<int>::_Generic_object$initializer$
CRT$XCU	ENDS
;	COMDAT CRT$XCU
CRT$XCU	SEGMENT
?_Iostream_object$initializer$@?$_Error_objects@H@std@@2P6AXXZA DD FLAT:??__E?_Iostream_object@?$_Error_objects@H@std@@2V_Iostream_error_category@2@A@@YAXXZ ; std::_Error_objects<int>::_Iostream_object$initializer$
CRT$XCU	ENDS
;	COMDAT CRT$XCU
CRT$XCU	SEGMENT
?_System_object$initializer$@?$_Error_objects@H@std@@2P6AXXZA DD FLAT:??__E?_System_object@?$_Error_objects@H@std@@2V_System_error_category@2@A@@YAXXZ ; std::_Error_objects<int>::_System_object$initializer$
CRT$XCU	ENDS
;	COMDAT CRT$XCU
CRT$XCU	SEGMENT
?id$initializer$@?$num_put@DV?$back_insert_iterator@V?$basic_string@DU?$char_traits@D@std@@V?$allocator@D@2@@std@@@std@@@std@@2P6AXXZA DD FLAT:??__E?id@?$num_put@DV?$back_insert_iterator@V?$basic_string@DU?$char_traits@D@std@@V?$allocator@D@2@@std@@@std@@@std@@2V0locale@2@A@@YAXXZ ; std::num_put<char,std::back_insert_iterator<std::basic_string<char,std::char_traits<char>,std::allocator<char> > > >::id$initializer$
CRT$XCU	ENDS
;	COMDAT CRT$XCU
CRT$XCU	SEGMENT
?id$initializer$@?$num_put@_WV?$back_insert_iterator@V?$basic_string@_WU?$char_traits@_W@std@@V?$allocator@_W@2@@std@@@std@@@std@@2P6AXXZA DD FLAT:??__E?id@?$num_put@_WV?$back_insert_iterator@V?$basic_string@_WU?$char_traits@_W@std@@V?$allocator@_W@2@@std@@@std@@@std@@2V0locale@2@A@@YAXXZ ; std::num_put<wchar_t,std::back_insert_iterator<std::basic_string<wchar_t,std::char_traits<wchar_t>,std::allocator<wchar_t> > > >::id$initializer$
CRT$XCU	ENDS
;	COMDAT CRT$XCU
CRT$XCU	SEGMENT
?id$initializer$@?$numpunct@D@std@@2P6AXXZA DD FLAT:??__E?id@?$numpunct@D@std@@2V0locale@2@A@@YAXXZ ; std::numpunct<char>::id$initializer$
CRT$XCU	ENDS
;	COMDAT CRT$XCU
CRT$XCU	SEGMENT
?id$initializer$@?$numpunct@_W@std@@2P6AXXZA DD FLAT:??__E?id@?$numpunct@_W@std@@2V0locale@2@A@@YAXXZ ; std::numpunct<wchar_t>::id$initializer$
CRT$XCU	ENDS
; Function compile flags: /Odtp
; File c:\program files (x86)\microsoft visual studio 11.0\vc\include\xmemory0
;	COMDAT ??$destroy@PAD@?$allocator@D@std@@QAEXPAPAD@Z
_TEXT	SEGMENT
_this$ = -4						; size = 4
__Ptr$ = 8						; size = 4
??$destroy@PAD@?$allocator@D@std@@QAEXPAPAD@Z PROC	; std::allocator<char>::destroy<char *>, COMDAT
; _this$ = ecx

; 621  : 		void destroy(_Uty *_Ptr)

	push	ebp
	mov	ebp, esp
	push	ecx
	mov	DWORD PTR _this$[ebp], ecx

; 622  : 		{	// destroy object at _Ptr
; 623  : 		_Ptr->~_Uty();
; 624  : 		}

	mov	esp, ebp
	pop	ebp
	ret	4
??$destroy@PAD@?$allocator@D@std@@QAEXPAPAD@Z ENDP	; std::allocator<char>::destroy<char *>
_TEXT	ENDS
; Function compile flags: /Odtp
; File c:\program files (x86)\microsoft visual studio 11.0\vc\include\xmemory0
;	COMDAT ??$construct@PADAAPAD@?$allocator@D@std@@QAEXPAPADAAPAD@Z
_TEXT	SEGMENT
$T2 = -28						; size = 4
_this$ = -24						; size = 4
tv73 = -20						; size = 4
$T3 = -16						; size = 4
__$EHRec$ = -12						; size = 12
__Ptr$ = 8						; size = 4
__V0$ = 12						; size = 4
??$construct@PADAAPAD@?$allocator@D@std@@QAEXPAPADAAPAD@Z PROC ; std::allocator<char>::construct<char *,char * &>, COMDAT
; _this$ = ecx

; 617  : _VARIADIC_EXPAND_0X(_ALLOC_MEMBER_CONSTRUCT, , , , )

	push	ebp
	mov	ebp, esp
	push	-1
	push	__ehhandler$??$construct@PADAAPAD@?$allocator@D@std@@QAEXPAPADAAPAD@Z
	mov	eax, DWORD PTR fs:0
	push	eax
	sub	esp, 16					; 00000010H
	mov	eax, DWORD PTR ___security_cookie
	xor	eax, ebp
	push	eax
	lea	eax, DWORD PTR __$EHRec$[ebp]
	mov	DWORD PTR fs:0, eax
	mov	DWORD PTR _this$[ebp], ecx
	mov	eax, DWORD PTR __Ptr$[ebp]
	push	eax
	push	4
	call	??2@YAPAXIPAX@Z				; operator new
	add	esp, 8
	mov	DWORD PTR $T3[ebp], eax
	mov	DWORD PTR __$EHRec$[ebp+8], 0
	cmp	DWORD PTR $T3[ebp], 0
	je	SHORT $LN3@construct
	mov	ecx, DWORD PTR __V0$[ebp]
	push	ecx
	call	??$forward@AAPAD@std@@YAAAPADAAPAD@Z	; std::forward<char * &>
	add	esp, 4
	mov	edx, DWORD PTR $T3[ebp]
	mov	eax, DWORD PTR [eax]
	mov	DWORD PTR [edx], eax
	mov	ecx, DWORD PTR $T3[ebp]
	mov	DWORD PTR tv73[ebp], ecx
	jmp	SHORT $LN4@construct
$LN3@construct:
	mov	DWORD PTR tv73[ebp], 0
$LN4@construct:
	mov	edx, DWORD PTR tv73[ebp]
	mov	DWORD PTR $T2[ebp], edx
	mov	DWORD PTR __$EHRec$[ebp+8], -1
	mov	ecx, DWORD PTR __$EHRec$[ebp]
	mov	DWORD PTR fs:0, ecx
	pop	ecx
	mov	esp, ebp
	pop	ebp
	ret	8
_TEXT	ENDS
;	COMDAT text$x
text$x	SEGMENT
__unwindfunclet$??$construct@PADAAPAD@?$allocator@D@std@@QAEXPAPADAAPAD@Z$0:
	mov	eax, DWORD PTR __Ptr$[ebp]
	push	eax
	mov	eax, DWORD PTR $T3[ebp]
	push	eax
	call	??3@YAXPAX0@Z				; operator delete
	add	esp, 8
	ret	0
__ehhandler$??$construct@PADAAPAD@?$allocator@D@std@@QAEXPAPADAAPAD@Z:
	mov	edx, DWORD PTR [esp+8]
	lea	eax, DWORD PTR [edx+12]
	mov	ecx, DWORD PTR [edx-20]
	xor	ecx, eax
	call	@__security_check_cookie@4
	mov	eax, OFFSET __ehfuncinfo$??$construct@PADAAPAD@?$allocator@D@std@@QAEXPAPADAAPAD@Z
	jmp	___CxxFrameHandler3
text$x	ENDS
??$construct@PADAAPAD@?$allocator@D@std@@QAEXPAPADAAPAD@Z ENDP ; std::allocator<char>::construct<char *,char * &>
; Function compile flags: /Odtp
; File c:\program files (x86)\microsoft visual studio 11.0\vc\include\xlocnum
;	COMDAT ??__E?id@?$numpunct@_W@std@@2V0locale@2@A@@YAXXZ
text$yc	SEGMENT
??__E?id@?$numpunct@_W@std@@2V0locale@2@A@@YAXXZ PROC	; `dynamic initializer for 'std::numpunct<wchar_t>::id'', COMDAT

; 155  : 		void _Getvals(wchar_t, const lconv *_Ptr, _Locinfo::_Cvtvec)

	push	ebp
	mov	ebp, esp
	push	0
	mov	ecx, OFFSET ?id@?$numpunct@_W@std@@2V0locale@2@A ; std::numpunct<wchar_t>::id
	call	??0id@locale@std@@QAE@I@Z		; std::locale::id::id
	pop	ebp
	ret	0
??__E?id@?$numpunct@_W@std@@2V0locale@2@A@@YAXXZ ENDP	; `dynamic initializer for 'std::numpunct<wchar_t>::id''
text$yc	ENDS
; Function compile flags: /Odtp
; File c:\program files (x86)\microsoft visual studio 11.0\vc\include\xlocnum
;	COMDAT ??__E?id@?$numpunct@D@std@@2V0locale@2@A@@YAXXZ
text$yc	SEGMENT
??__E?id@?$numpunct@D@std@@2V0locale@2@A@@YAXXZ PROC	; `dynamic initializer for 'std::numpunct<char>::id'', COMDAT

; 155  : 		void _Getvals(wchar_t, const lconv *_Ptr, _Locinfo::_Cvtvec)

	push	ebp
	mov	ebp, esp
	push	0
	mov	ecx, OFFSET ?id@?$numpunct@D@std@@2V0locale@2@A ; std::numpunct<char>::id
	call	??0id@locale@std@@QAE@I@Z		; std::locale::id::id
	pop	ebp
	ret	0
??__E?id@?$numpunct@D@std@@2V0locale@2@A@@YAXXZ ENDP	; `dynamic initializer for 'std::numpunct<char>::id''
text$yc	ENDS
; Function compile flags: /Odtp
; File c:\program files (x86)\microsoft visual studio 11.0\vc\include\xlocnum
;	COMDAT ??__E?id@?$num_put@_WV?$back_insert_iterator@V?$basic_string@_WU?$char_traits@_W@std@@V?$allocator@_W@2@@std@@@std@@@std@@2V0locale@2@A@@YAXXZ
text$yc	SEGMENT
??__E?id@?$num_put@_WV?$back_insert_iterator@V?$basic_string@_WU?$char_traits@_W@std@@V?$allocator@_W@2@@std@@@std@@@std@@2V0locale@2@A@@YAXXZ PROC ; `dynamic initializer for 'std::num_put<wchar_t,std::back_insert_iterator<std::basic_string<wchar_t,std::char_traits<wchar_t>,std::allocator<wchar_t> > > >::id'', COMDAT

; 155  : 		void _Getvals(wchar_t, const lconv *_Ptr, _Locinfo::_Cvtvec)

	push	ebp
	mov	ebp, esp
	push	0
	mov	ecx, OFFSET ?id@?$num_put@_WV?$back_insert_iterator@V?$basic_string@_WU?$char_traits@_W@std@@V?$allocator@_W@2@@std@@@std@@@std@@2V0locale@2@A ; std::num_put<wchar_t,std::back_insert_iterator<std::basic_string<wchar_t,std::char_traits<wchar_t>,std::allocator<wchar_t> > > >::id
	call	??0id@locale@std@@QAE@I@Z		; std::locale::id::id
	pop	ebp
	ret	0
??__E?id@?$num_put@_WV?$back_insert_iterator@V?$basic_string@_WU?$char_traits@_W@std@@V?$allocator@_W@2@@std@@@std@@@std@@2V0locale@2@A@@YAXXZ ENDP ; `dynamic initializer for 'std::num_put<wchar_t,std::back_insert_iterator<std::basic_string<wchar_t,std::char_traits<wchar_t>,std::allocator<wchar_t> > > >::id''
text$yc	ENDS
; Function compile flags: /Odtp
; File c:\program files (x86)\microsoft visual studio 11.0\vc\include\xlocnum
;	COMDAT ??__E?id@?$num_put@DV?$back_insert_iterator@V?$basic_string@DU?$char_traits@D@std@@V?$allocator@D@2@@std@@@std@@@std@@2V0locale@2@A@@YAXXZ
text$yc	SEGMENT
??__E?id@?$num_put@DV?$back_insert_iterator@V?$basic_string@DU?$char_traits@D@std@@V?$allocator@D@2@@std@@@std@@@std@@2V0locale@2@A@@YAXXZ PROC ; `dynamic initializer for 'std::num_put<char,std::back_insert_iterator<std::basic_string<char,std::char_traits<char>,std::allocator<char> > > >::id'', COMDAT

; 155  : 		void _Getvals(wchar_t, const lconv *_Ptr, _Locinfo::_Cvtvec)

	push	ebp
	mov	ebp, esp
	push	0
	mov	ecx, OFFSET ?id@?$num_put@DV?$back_insert_iterator@V?$basic_string@DU?$char_traits@D@std@@V?$allocator@D@2@@std@@@std@@@std@@2V0locale@2@A ; std::num_put<char,std::back_insert_iterator<std::basic_string<char,std::char_traits<char>,std::allocator<char> > > >::id
	call	??0id@locale@std@@QAE@I@Z		; std::locale::id::id
	pop	ebp
	ret	0
??__E?id@?$num_put@DV?$back_insert_iterator@V?$basic_string@DU?$char_traits@D@std@@V?$allocator@D@2@@std@@@std@@@std@@2V0locale@2@A@@YAXXZ ENDP ; `dynamic initializer for 'std::num_put<char,std::back_insert_iterator<std::basic_string<char,std::char_traits<char>,std::allocator<char> > > >::id''
text$yc	ENDS
; Function compile flags: /Odtp
; File c:\program files (x86)\microsoft visual studio 11.0\vc\include\xmemory0
;	COMDAT ??$destroy@PAD@?$allocator_traits@V?$allocator@D@std@@@std@@SAXAAV?$allocator@D@1@PAPAD@Z
_TEXT	SEGMENT
__Al$ = 8						; size = 4
__Ptr$ = 12						; size = 4
??$destroy@PAD@?$allocator_traits@V?$allocator@D@std@@@std@@SAXAAV?$allocator@D@1@PAPAD@Z PROC ; std::allocator_traits<std::allocator<char> >::destroy<char *>, COMDAT

; 755  : 		static void destroy(_Alloc& _Al, _Uty *_Ptr)

	push	ebp
	mov	ebp, esp

; 756  : 		{	// destroy object at _Ptr
; 757  : 		_Al.destroy(_Ptr);

	mov	eax, DWORD PTR __Ptr$[ebp]
	push	eax
	mov	ecx, DWORD PTR __Al$[ebp]
	call	??$destroy@PAD@?$allocator@D@std@@QAEXPAPAD@Z ; std::allocator<char>::destroy<char *>

; 758  : 		}

	pop	ebp
	ret	0
??$destroy@PAD@?$allocator_traits@V?$allocator@D@std@@@std@@SAXAAV?$allocator@D@1@PAPAD@Z ENDP ; std::allocator_traits<std::allocator<char> >::destroy<char *>
_TEXT	ENDS
; Function compile flags: /Odtp
; File c:\program files (x86)\microsoft visual studio 11.0\vc\include\xmemory0
;	COMDAT ??$construct@PADAAPAD@?$allocator_traits@V?$allocator@D@std@@@std@@SAXAAV?$allocator@D@1@PAPADAAPAD@Z
_TEXT	SEGMENT
__Al$ = 8						; size = 4
__Ptr$ = 12						; size = 4
__V0$ = 16						; size = 4
??$construct@PADAAPAD@?$allocator_traits@V?$allocator@D@std@@@std@@SAXAAV?$allocator@D@1@PAPADAAPAD@Z PROC ; std::allocator_traits<std::allocator<char> >::construct<char *,char * &>, COMDAT

; 751  : _VARIADIC_EXPAND_0X(_ALLOC_TRAITS_SPECIAL_CONSTRUCT, , , , )

	push	ebp
	mov	ebp, esp
	mov	eax, DWORD PTR __V0$[ebp]
	push	eax
	call	??$forward@AAPAD@std@@YAAAPADAAPAD@Z	; std::forward<char * &>
	add	esp, 4
	push	eax
	mov	ecx, DWORD PTR __Ptr$[ebp]
	push	ecx
	mov	ecx, DWORD PTR __Al$[ebp]
	call	??$construct@PADAAPAD@?$allocator@D@std@@QAEXPAPADAAPAD@Z ; std::allocator<char>::construct<char *,char * &>
	pop	ebp
	ret	0
??$construct@PADAAPAD@?$allocator_traits@V?$allocator@D@std@@@std@@SAXAAV?$allocator@D@1@PAPADAAPAD@Z ENDP ; std::allocator_traits<std::allocator<char> >::construct<char *,char * &>
_TEXT	ENDS
; Function compile flags: /Odtp
; File c:\program files (x86)\microsoft visual studio 11.0\vc\include\type_traits
;	COMDAT ??$forward@AAPAD@std@@YAAAPADAAPAD@Z
_TEXT	SEGMENT
__Arg$ = 8						; size = 4
??$forward@AAPAD@std@@YAAAPADAAPAD@Z PROC		; std::forward<char * &>, COMDAT

; 1775 : 	{	// forward an lvalue

	push	ebp
	mov	ebp, esp

; 1776 : 	return (static_cast<_Ty&&>(_Arg));

	mov	eax, DWORD PTR __Arg$[ebp]

; 1777 : 	}

	pop	ebp
	ret	0
??$forward@AAPAD@std@@YAAAPADAAPAD@Z ENDP		; std::forward<char * &>
_TEXT	ENDS
; Function compile flags: /Odtp
;	COMDAT ??__F?_System_object@?$_Error_objects@H@std@@2V_System_error_category@2@A@@YAXXZ
text$yd	SEGMENT
??__F?_System_object@?$_Error_objects@H@std@@2V_System_error_category@2@A@@YAXXZ PROC ; `dynamic atexit destructor for 'std::_Error_objects<int>::_System_object'', COMDAT
	push	ebp
	mov	ebp, esp
	mov	ecx, OFFSET ?_System_object@?$_Error_objects@H@std@@2V_System_error_category@2@A ; std::_Error_objects<int>::_System_object
	call	??1_System_error_category@std@@UAE@XZ
	pop	ebp
	ret	0
??__F?_System_object@?$_Error_objects@H@std@@2V_System_error_category@2@A@@YAXXZ ENDP ; `dynamic atexit destructor for 'std::_Error_objects<int>::_System_object''
text$yd	ENDS
; Function compile flags: /Odtp
; File c:\program files (x86)\microsoft visual studio 11.0\vc\include\xmemory0
;	COMDAT ??__E?_System_object@?$_Error_objects@H@std@@2V_System_error_category@2@A@@YAXXZ
text$yc	SEGMENT
??__E?_System_object@?$_Error_objects@H@std@@2V_System_error_category@2@A@@YAXXZ PROC ; `dynamic initializer for 'std::_Error_objects<int>::_System_object'', COMDAT

; 627  : 		{	// estimate maximum array size

	push	ebp
	mov	ebp, esp
	mov	ecx, OFFSET ?_System_object@?$_Error_objects@H@std@@2V_System_error_category@2@A ; std::_Error_objects<int>::_System_object
	call	??0_System_error_category@std@@QAE@XZ	; std::_System_error_category::_System_error_category
	push	OFFSET ??__F?_System_object@?$_Error_objects@H@std@@2V_System_error_category@2@A@@YAXXZ ; `dynamic atexit destructor for 'std::_Error_objects<int>::_System_object''
	call	_atexit
	add	esp, 4
	pop	ebp
	ret	0
??__E?_System_object@?$_Error_objects@H@std@@2V_System_error_category@2@A@@YAXXZ ENDP ; `dynamic initializer for 'std::_Error_objects<int>::_System_object''
text$yc	ENDS
; Function compile flags: /Odtp
;	COMDAT ??__F?_Iostream_object@?$_Error_objects@H@std@@2V_Iostream_error_category@2@A@@YAXXZ
text$yd	SEGMENT
??__F?_Iostream_object@?$_Error_objects@H@std@@2V_Iostream_error_category@2@A@@YAXXZ PROC ; `dynamic atexit destructor for 'std::_Error_objects<int>::_Iostream_object'', COMDAT
	push	ebp
	mov	ebp, esp
	mov	ecx, OFFSET ?_Iostream_object@?$_Error_objects@H@std@@2V_Iostream_error_category@2@A ; std::_Error_objects<int>::_Iostream_object
	call	??1_Iostream_error_category@std@@UAE@XZ
	pop	ebp
	ret	0
??__F?_Iostream_object@?$_Error_objects@H@std@@2V_Iostream_error_category@2@A@@YAXXZ ENDP ; `dynamic atexit destructor for 'std::_Error_objects<int>::_Iostream_object''
text$yd	ENDS
; Function compile flags: /Odtp
; File c:\program files (x86)\microsoft visual studio 11.0\vc\include\xmemory0
;	COMDAT ??__E?_Iostream_object@?$_Error_objects@H@std@@2V_Iostream_error_category@2@A@@YAXXZ
text$yc	SEGMENT
??__E?_Iostream_object@?$_Error_objects@H@std@@2V_Iostream_error_category@2@A@@YAXXZ PROC ; `dynamic initializer for 'std::_Error_objects<int>::_Iostream_object'', COMDAT

; 627  : 		{	// estimate maximum array size

	push	ebp
	mov	ebp, esp
	mov	ecx, OFFSET ?_Iostream_object@?$_Error_objects@H@std@@2V_Iostream_error_category@2@A ; std::_Error_objects<int>::_Iostream_object
	call	??0_Iostream_error_category@std@@QAE@XZ	; std::_Iostream_error_category::_Iostream_error_category
	push	OFFSET ??__F?_Iostream_object@?$_Error_objects@H@std@@2V_Iostream_error_category@2@A@@YAXXZ ; `dynamic atexit destructor for 'std::_Error_objects<int>::_Iostream_object''
	call	_atexit
	add	esp, 4
	pop	ebp
	ret	0
??__E?_Iostream_object@?$_Error_objects@H@std@@2V_Iostream_error_category@2@A@@YAXXZ ENDP ; `dynamic initializer for 'std::_Error_objects<int>::_Iostream_object''
text$yc	ENDS
; Function compile flags: /Odtp
;	COMDAT ??__F?_Generic_object@?$_Error_objects@H@std@@2V_Generic_error_category@2@A@@YAXXZ
text$yd	SEGMENT
??__F?_Generic_object@?$_Error_objects@H@std@@2V_Generic_error_category@2@A@@YAXXZ PROC ; `dynamic atexit destructor for 'std::_Error_objects<int>::_Generic_object'', COMDAT
	push	ebp
	mov	ebp, esp
	mov	ecx, OFFSET ?_Generic_object@?$_Error_objects@H@std@@2V_Generic_error_category@2@A ; std::_Error_objects<int>::_Generic_object
	call	??1_Generic_error_category@std@@UAE@XZ
	pop	ebp
	ret	0
??__F?_Generic_object@?$_Error_objects@H@std@@2V_Generic_error_category@2@A@@YAXXZ ENDP ; `dynamic atexit destructor for 'std::_Error_objects<int>::_Generic_object''
text$yd	ENDS
; Function compile flags: /Odtp
; File c:\program files (x86)\microsoft visual studio 11.0\vc\include\xmemory0
;	COMDAT ??__E?_Generic_object@?$_Error_objects@H@std@@2V_Generic_error_category@2@A@@YAXXZ
text$yc	SEGMENT
??__E?_Generic_object@?$_Error_objects@H@std@@2V_Generic_error_category@2@A@@YAXXZ PROC ; `dynamic initializer for 'std::_Error_objects<int>::_Generic_object'', COMDAT

; 627  : 		{	// estimate maximum array size

	push	ebp
	mov	ebp, esp
	mov	ecx, OFFSET ?_Generic_object@?$_Error_objects@H@std@@2V_Generic_error_category@2@A ; std::_Error_objects<int>::_Generic_object
	call	??0_Generic_error_category@std@@QAE@XZ	; std::_Generic_error_category::_Generic_error_category
	push	OFFSET ??__F?_Generic_object@?$_Error_objects@H@std@@2V_Generic_error_category@2@A@@YAXXZ ; `dynamic atexit destructor for 'std::_Error_objects<int>::_Generic_object''
	call	_atexit
	add	esp, 4
	pop	ebp
	ret	0
??__E?_Generic_object@?$_Error_objects@H@std@@2V_Generic_error_category@2@A@@YAXXZ ENDP ; `dynamic initializer for 'std::_Error_objects<int>::_Generic_object''
text$yc	ENDS
; Function compile flags: /Odtp
; File c:\program files (x86)\microsoft visual studio 11.0\vc\include\xmemory0
;	COMDAT ??$_Allocate@D@std@@YAPADIPAD@Z
_TEXT	SEGMENT
__Ptr$ = -4						; size = 4
__Count$ = 8						; size = 4
___formal$ = 12						; size = 4
??$_Allocate@D@std@@YAPADIPAD@Z PROC			; std::_Allocate<char>, COMDAT

; 22   : 	{	// allocate storage for _Count elements of type _Ty

	push	ebp
	mov	ebp, esp
	push	ecx

; 23   : 	void *_Ptr = 0;

	mov	DWORD PTR __Ptr$[ebp], 0

; 24   : 
; 25   : 	if (_Count == 0)

	cmp	DWORD PTR __Count$[ebp], 0
	jne	SHORT $LN4@Allocate

; 26   : 		;
; 27   : 	else if (((size_t)(-1) / sizeof (_Ty) < _Count)

	jmp	SHORT $LN3@Allocate
$LN4@Allocate:

; 28   : 		|| (_Ptr = ::operator new(_Count * sizeof (_Ty))) == 0)

	cmp	DWORD PTR __Count$[ebp], -1
	ja	SHORT $LN1@Allocate
	mov	eax, DWORD PTR __Count$[ebp]
	push	eax
	call	??2@YAPAXI@Z				; operator new
	add	esp, 4
	mov	DWORD PTR __Ptr$[ebp], eax
	cmp	DWORD PTR __Ptr$[ebp], 0
	jne	SHORT $LN3@Allocate
$LN1@Allocate:

; 29   : 		_Xbad_alloc();	// report no memory

	call	?_Xbad_alloc@std@@YAXXZ			; std::_Xbad_alloc
$LN3@Allocate:

; 30   : 
; 31   : 	return ((_Ty *)_Ptr);

	mov	eax, DWORD PTR __Ptr$[ebp]
$LN6@Allocate:

; 32   : 	}

	mov	esp, ebp
	pop	ebp
	ret	0
??$_Allocate@D@std@@YAPADIPAD@Z ENDP			; std::_Allocate<char>
_TEXT	ENDS
; Function compile flags: /Odtp
; File c:\program files (x86)\microsoft visual studio 11.0\vc\include\xstddef
;	COMDAT ??$addressof@D@std@@YAPADAAD@Z
_TEXT	SEGMENT
__Val$ = 8						; size = 4
??$addressof@D@std@@YAPADAAD@Z PROC			; std::addressof<char>, COMDAT

; 85   : 	{	// return address of _Val

	push	ebp
	mov	ebp, esp

; 86   : 	return (reinterpret_cast<_Ty *>(
; 87   : 		(&const_cast<char&>(
; 88   : 		reinterpret_cast<const volatile char&>(_Val)))));

	mov	eax, DWORD PTR __Val$[ebp]

; 89   : 	}

	pop	ebp
	ret	0
??$addressof@D@std@@YAPADAAD@Z ENDP			; std::addressof<char>
_TEXT	ENDS
; Function compile flags: /Odtp
; File c:\program files (x86)\microsoft visual studio 11.0\vc\include\xmemory0
;	COMDAT ??$destroy@PAD@?$_Wrap_alloc@V?$allocator@D@std@@@std@@QAEXPAPAD@Z
_TEXT	SEGMENT
_this$ = -4						; size = 4
__Ptr$ = 8						; size = 4
??$destroy@PAD@?$_Wrap_alloc@V?$allocator@D@std@@@std@@QAEXPAPAD@Z PROC ; std::_Wrap_alloc<std::allocator<char> >::destroy<char *>, COMDAT
; _this$ = ecx

; 907  : 		void destroy(_Ty *_Ptr)

	push	ebp
	mov	ebp, esp
	push	ecx
	mov	DWORD PTR _this$[ebp], ecx

; 908  : 		{	// destroy object at _Ptr
; 909  : 		_Mytraits::destroy(*this, _Ptr);

	mov	eax, DWORD PTR __Ptr$[ebp]
	push	eax
	mov	ecx, DWORD PTR _this$[ebp]
	push	ecx
	call	??$destroy@PAD@?$allocator_traits@V?$allocator@D@std@@@std@@SAXAAV?$allocator@D@1@PAPAD@Z ; std::allocator_traits<std::allocator<char> >::destroy<char *>
	add	esp, 8

; 910  : 		}

	mov	esp, ebp
	pop	ebp
	ret	4
??$destroy@PAD@?$_Wrap_alloc@V?$allocator@D@std@@@std@@QAEXPAPAD@Z ENDP ; std::_Wrap_alloc<std::allocator<char> >::destroy<char *>
_TEXT	ENDS
; Function compile flags: /Odtp
; File c:\program files (x86)\microsoft visual studio 11.0\vc\include\xmemory0
;	COMDAT ??$construct@PADAAPAD@?$_Wrap_alloc@V?$allocator@D@std@@@std@@QAEXPAPADAAPAD@Z
_TEXT	SEGMENT
_this$ = -4						; size = 4
__Ptr$ = 8						; size = 4
__V0$ = 12						; size = 4
??$construct@PADAAPAD@?$_Wrap_alloc@V?$allocator@D@std@@@std@@QAEXPAPADAAPAD@Z PROC ; std::_Wrap_alloc<std::allocator<char> >::construct<char *,char * &>, COMDAT
; _this$ = ecx

; 903  : _VARIADIC_EXPAND_0X(_WRAP_ALLOC_CONSTRUCT, , , , )

	push	ebp
	mov	ebp, esp
	push	ecx
	mov	DWORD PTR _this$[ebp], ecx
	mov	eax, DWORD PTR __V0$[ebp]
	push	eax
	call	??$forward@AAPAD@std@@YAAAPADAAPAD@Z	; std::forward<char * &>
	add	esp, 4
	push	eax
	mov	ecx, DWORD PTR __Ptr$[ebp]
	push	ecx
	mov	edx, DWORD PTR _this$[ebp]
	push	edx
	call	??$construct@PADAAPAD@?$allocator_traits@V?$allocator@D@std@@@std@@SAXAAV?$allocator@D@1@PAPADAAPAD@Z ; std::allocator_traits<std::allocator<char> >::construct<char *,char * &>
	add	esp, 12					; 0000000cH
	mov	esp, ebp
	pop	ebp
	ret	8
??$construct@PADAAPAD@?$_Wrap_alloc@V?$allocator@D@std@@@std@@QAEXPAPADAAPAD@Z ENDP ; std::_Wrap_alloc<std::allocator<char> >::construct<char *,char * &>
_TEXT	ENDS
; Function compile flags: /Odtp
; File c:\users\zhitao li\documents\visual studio 2012\projects\freefalcon\sim\rwr\harmpod.cpp
_TEXT	SEGMENT
tv64 = -8						; size = 4
_scale$ = -4						; size = 4
_i$ = 8							; size = 4
_curX$ = 12						; size = 4
_curY$ = 16						; size = 4
_nextX$ = 20						; size = 4
_nextY$ = 24						; size = 4
?GetCurWezValue@@YAXHAAM000@Z PROC			; GetCurWezValue

; 1976 : {

	push	ebp
	mov	ebp, esp
	sub	esp, 8

; 1977 : 	float scale = 1.22f;

	movss	xmm0, DWORD PTR __real@3f9c28f6
	movss	DWORD PTR _scale$[ebp], xmm0

; 1978 : 
; 1979 : 	switch (i)

	mov	eax, DWORD PTR _i$[ebp]
	mov	DWORD PTR tv64[ebp], eax
	cmp	DWORD PTR tv64[ebp], 7
	ja	$LN9@GetCurWezV
	mov	ecx, DWORD PTR tv64[ebp]
	jmp	DWORD PTR $LN13@GetCurWezV[ecx*4]
$LN8@GetCurWezV:

; 1980 : 	{
; 1981 : 	case 0: 
; 1982 : 		curX = nextX;

	mov	edx, DWORD PTR _curX$[ebp]
	mov	eax, DWORD PTR _nextX$[ebp]
	mov	ecx, DWORD PTR [eax]
	mov	DWORD PTR [edx], ecx

; 1983 : 		curY = nextY;

	mov	edx, DWORD PTR _curY$[ebp]
	mov	eax, DWORD PTR _nextY$[ebp]
	mov	ecx, DWORD PTR [eax]
	mov	DWORD PTR [edx], ecx

; 1984 : 		nextX = 0.35f * scale;

	movss	xmm0, DWORD PTR __real@3eb33333
	mulss	xmm0, DWORD PTR _scale$[ebp]
	mov	edx, DWORD PTR _nextX$[ebp]
	movss	DWORD PTR [edx], xmm0

; 1985 : 		nextY = 0.1f * scale;

	movss	xmm0, DWORD PTR __real@3dcccccd
	mulss	xmm0, DWORD PTR _scale$[ebp]
	mov	eax, DWORD PTR _nextY$[ebp]
	movss	DWORD PTR [eax], xmm0

; 1986 : 		break;

	jmp	$LN9@GetCurWezV
$LN7@GetCurWezV:

; 1987 : 
; 1988 : 	case 1: 
; 1989 : 		curX = nextX;

	mov	ecx, DWORD PTR _curX$[ebp]
	mov	edx, DWORD PTR _nextX$[ebp]
	mov	eax, DWORD PTR [edx]
	mov	DWORD PTR [ecx], eax

; 1990 : 		curY = nextY;

	mov	ecx, DWORD PTR _curY$[ebp]
	mov	edx, DWORD PTR _nextY$[ebp]
	mov	eax, DWORD PTR [edx]
	mov	DWORD PTR [ecx], eax

; 1991 : 		nextX = 0.55f * scale;

	movss	xmm0, DWORD PTR __real@3f0ccccd
	mulss	xmm0, DWORD PTR _scale$[ebp]
	mov	ecx, DWORD PTR _nextX$[ebp]
	movss	DWORD PTR [ecx], xmm0

; 1992 : 		nextY = 0.18f * scale;

	movss	xmm0, DWORD PTR __real@3e3851ec
	mulss	xmm0, DWORD PTR _scale$[ebp]
	mov	edx, DWORD PTR _nextY$[ebp]
	movss	DWORD PTR [edx], xmm0

; 1993 : 		break;

	jmp	$LN9@GetCurWezV
$LN6@GetCurWezV:

; 1994 : 
; 1995 : 	case 2: 
; 1996 : 		curX = nextX;

	mov	eax, DWORD PTR _curX$[ebp]
	mov	ecx, DWORD PTR _nextX$[ebp]
	mov	edx, DWORD PTR [ecx]
	mov	DWORD PTR [eax], edx

; 1997 : 		curY = nextY;

	mov	eax, DWORD PTR _curY$[ebp]
	mov	ecx, DWORD PTR _nextY$[ebp]
	mov	edx, DWORD PTR [ecx]
	mov	DWORD PTR [eax], edx

; 1998 : 		nextX = 0.65f * scale;

	movss	xmm0, DWORD PTR __real@3f266666
	mulss	xmm0, DWORD PTR _scale$[ebp]
	mov	eax, DWORD PTR _nextX$[ebp]
	movss	DWORD PTR [eax], xmm0

; 1999 : 		nextY = 0.3f * scale;

	movss	xmm0, DWORD PTR __real@3e99999a
	mulss	xmm0, DWORD PTR _scale$[ebp]
	mov	ecx, DWORD PTR _nextY$[ebp]
	movss	DWORD PTR [ecx], xmm0

; 2000 : 		break;

	jmp	$LN9@GetCurWezV
$LN5@GetCurWezV:

; 2001 : 
; 2002 : 	case 3: 
; 2003 : 		curX = nextX;

	mov	edx, DWORD PTR _curX$[ebp]
	mov	eax, DWORD PTR _nextX$[ebp]
	mov	ecx, DWORD PTR [eax]
	mov	DWORD PTR [edx], ecx

; 2004 : 		curY = nextY;

	mov	edx, DWORD PTR _curY$[ebp]
	mov	eax, DWORD PTR _nextY$[ebp]
	mov	ecx, DWORD PTR [eax]
	mov	DWORD PTR [edx], ecx

; 2005 : 		nextX = 0.72f * scale;

	movss	xmm0, DWORD PTR __real@3f3851ec
	mulss	xmm0, DWORD PTR _scale$[ebp]
	mov	edx, DWORD PTR _nextX$[ebp]
	movss	DWORD PTR [edx], xmm0

; 2006 : 		nextY = 0.65f * scale;

	movss	xmm0, DWORD PTR __real@3f266666
	mulss	xmm0, DWORD PTR _scale$[ebp]
	mov	eax, DWORD PTR _nextY$[ebp]
	movss	DWORD PTR [eax], xmm0

; 2007 : 		break;

	jmp	$LN9@GetCurWezV
$LN4@GetCurWezV:

; 2008 : 
; 2009 : 	case 4: 
; 2010 : 		curX = nextX;

	mov	ecx, DWORD PTR _curX$[ebp]
	mov	edx, DWORD PTR _nextX$[ebp]
	mov	eax, DWORD PTR [edx]
	mov	DWORD PTR [ecx], eax

; 2011 : 		curY = nextY;

	mov	ecx, DWORD PTR _curY$[ebp]
	mov	edx, DWORD PTR _nextY$[ebp]
	mov	eax, DWORD PTR [edx]
	mov	DWORD PTR [ecx], eax

; 2012 : 		nextX = 0.6f * scale;

	movss	xmm0, DWORD PTR __real@3f19999a
	mulss	xmm0, DWORD PTR _scale$[ebp]
	mov	ecx, DWORD PTR _nextX$[ebp]
	movss	DWORD PTR [ecx], xmm0

; 2013 : 		nextY = 0.85f * scale;

	movss	xmm0, DWORD PTR __real@3f59999a
	mulss	xmm0, DWORD PTR _scale$[ebp]
	mov	edx, DWORD PTR _nextY$[ebp]
	movss	DWORD PTR [edx], xmm0

; 2014 : 		break;

	jmp	$LN9@GetCurWezV
$LN3@GetCurWezV:

; 2015 : 
; 2016 : 	case 5: 
; 2017 : 		curX = nextX;

	mov	eax, DWORD PTR _curX$[ebp]
	mov	ecx, DWORD PTR _nextX$[ebp]
	mov	edx, DWORD PTR [ecx]
	mov	DWORD PTR [eax], edx

; 2018 : 		curY = nextY;

	mov	eax, DWORD PTR _curY$[ebp]
	mov	ecx, DWORD PTR _nextY$[ebp]
	mov	edx, DWORD PTR [ecx]
	mov	DWORD PTR [eax], edx

; 2019 : 		nextX = 0.2f * scale;

	movss	xmm0, DWORD PTR __real@3e4ccccd
	mulss	xmm0, DWORD PTR _scale$[ebp]
	mov	eax, DWORD PTR _nextX$[ebp]
	movss	DWORD PTR [eax], xmm0

; 2020 : 		nextY = 0.95f * scale;

	movss	xmm0, DWORD PTR __real@3f733333
	mulss	xmm0, DWORD PTR _scale$[ebp]
	mov	ecx, DWORD PTR _nextY$[ebp]
	movss	DWORD PTR [ecx], xmm0

; 2021 : 		break;

	jmp	SHORT $LN9@GetCurWezV
$LN2@GetCurWezV:

; 2022 : 
; 2023 : 	case 6: 
; 2024 : 		curX = nextX;

	mov	edx, DWORD PTR _curX$[ebp]
	mov	eax, DWORD PTR _nextX$[ebp]
	mov	ecx, DWORD PTR [eax]
	mov	DWORD PTR [edx], ecx

; 2025 : 		curY = nextY;

	mov	edx, DWORD PTR _curY$[ebp]
	mov	eax, DWORD PTR _nextY$[ebp]
	mov	ecx, DWORD PTR [eax]
	mov	DWORD PTR [edx], ecx

; 2026 : 		nextX = 0.05f * scale;

	movss	xmm0, DWORD PTR __real@3d4ccccd
	mulss	xmm0, DWORD PTR _scale$[ebp]
	mov	edx, DWORD PTR _nextX$[ebp]
	movss	DWORD PTR [edx], xmm0

; 2027 : 		nextY = 0.955f * scale;

	movss	xmm0, DWORD PTR __real@3f747ae1
	mulss	xmm0, DWORD PTR _scale$[ebp]
	mov	eax, DWORD PTR _nextY$[ebp]
	movss	DWORD PTR [eax], xmm0

; 2028 : 		break;

	jmp	SHORT $LN9@GetCurWezV
$LN1@GetCurWezV:

; 2029 : 
; 2030 : 	case 7: 
; 2031 : 		curX = nextX;

	mov	ecx, DWORD PTR _curX$[ebp]
	mov	edx, DWORD PTR _nextX$[ebp]
	mov	eax, DWORD PTR [edx]
	mov	DWORD PTR [ecx], eax

; 2032 : 		curY = nextY;

	mov	ecx, DWORD PTR _curY$[ebp]
	mov	edx, DWORD PTR _nextY$[ebp]
	mov	eax, DWORD PTR [edx]
	mov	DWORD PTR [ecx], eax

; 2033 : 		nextX = 0.0f * scale;

	movss	xmm0, DWORD PTR __real@00000000
	mulss	xmm0, DWORD PTR _scale$[ebp]
	mov	ecx, DWORD PTR _nextX$[ebp]
	movss	DWORD PTR [ecx], xmm0

; 2034 : 		nextY = 0.96f * scale;

	movss	xmm0, DWORD PTR __real@3f75c28f
	mulss	xmm0, DWORD PTR _scale$[ebp]
	mov	edx, DWORD PTR _nextY$[ebp]
	movss	DWORD PTR [edx], xmm0
$LN9@GetCurWezV:

; 2035 : 		break;
; 2036 : 	}
; 2037 : }

	mov	esp, ebp
	pop	ebp
	ret	0
	npad	2
$LN13@GetCurWezV:
	DD	$LN8@GetCurWezV
	DD	$LN7@GetCurWezV
	DD	$LN6@GetCurWezV
	DD	$LN5@GetCurWezV
	DD	$LN4@GetCurWezV
	DD	$LN3@GetCurWezV
	DD	$LN2@GetCurWezV
	DD	$LN1@GetCurWezV
?GetCurWezValue@@YAXHAAM000@Z ENDP			; GetCurWezValue
_TEXT	ENDS
; Function compile flags: /Odtp
; File c:\users\zhitao li\documents\visual studio 2012\projects\freefalcon\sim\rwr\harmpod.cpp
_TEXT	SEGMENT
tv64 = -4						; size = 4
_i$ = 8							; size = 4
_angleX$ = 12						; size = 4
_angleY$ = 16						; size = 4
_offsetX$ = 20						; size = 4
_offsetY$ = 24						; size = 4
?GetCurWezAngle@@YAXHAAM000@Z PROC			; GetCurWezAngle

; 1914 : {

	push	ebp
	mov	ebp, esp
	push	ecx

; 1915 : 	switch (i)

	mov	eax, DWORD PTR _i$[ebp]
	mov	DWORD PTR tv64[ebp], eax
	cmp	DWORD PTR tv64[ebp], 7
	ja	$LN9@GetCurWezA
	mov	ecx, DWORD PTR tv64[ebp]
	jmp	DWORD PTR $LN13@GetCurWezA[ecx*4]
$LN8@GetCurWezA:

; 1916 : 	{
; 1917 : 	case 0: // angle is 310
; 1918 : 		angleX = 0.642f;

	mov	edx, DWORD PTR _angleX$[ebp]
	movss	xmm0, DWORD PTR __real@3f245a1d
	movss	DWORD PTR [edx], xmm0

; 1919 : 		offsetX = 0.065f;

	mov	eax, DWORD PTR _offsetX$[ebp]
	movss	xmm0, DWORD PTR __real@3d851eb8
	movss	DWORD PTR [eax], xmm0

; 1920 : 		angleY = -0.766f;

	mov	ecx, DWORD PTR _angleY$[ebp]
	movss	xmm0, DWORD PTR __real@bf441893
	movss	DWORD PTR [ecx], xmm0

; 1921 : 		offsetY = -0.01f;

	mov	edx, DWORD PTR _offsetY$[ebp]
	movss	xmm0, DWORD PTR __real@bc23d70a
	movss	DWORD PTR [edx], xmm0

; 1922 : 		break;

	jmp	$LN9@GetCurWezA
$LN7@GetCurWezA:

; 1923 : 
; 1924 : 	case 1: // angle is 330
; 1925 : 		angleX = 0.866f;

	mov	eax, DWORD PTR _angleX$[ebp]
	movss	xmm0, DWORD PTR __real@3f5db22d
	movss	DWORD PTR [eax], xmm0

; 1926 : 		offsetX = 0.085f;

	mov	ecx, DWORD PTR _offsetX$[ebp]
	movss	xmm0, DWORD PTR __real@3dae147b
	movss	DWORD PTR [ecx], xmm0

; 1927 : 		angleY = -0.5f;

	mov	edx, DWORD PTR _angleY$[ebp]
	movss	xmm0, DWORD PTR __real@bf000000
	movss	DWORD PTR [edx], xmm0

; 1928 : 		offsetY = -0.01f;

	mov	eax, DWORD PTR _offsetY$[ebp]
	movss	xmm0, DWORD PTR __real@bc23d70a
	movss	DWORD PTR [eax], xmm0

; 1929 : 		break;

	jmp	$LN9@GetCurWezA
$LN6@GetCurWezA:

; 1930 : 
; 1931 : 	case 2: // angle is 350
; 1932 : 		angleX = 0.984f;

	mov	ecx, DWORD PTR _angleX$[ebp]
	movss	xmm0, DWORD PTR __real@3f7be76d
	movss	DWORD PTR [ecx], xmm0

; 1933 : 		offsetX = 0.08f;

	mov	edx, DWORD PTR _offsetX$[ebp]
	movss	xmm0, DWORD PTR __real@3da3d70a
	movss	DWORD PTR [edx], xmm0

; 1934 : 		angleY = -0.173f;

	mov	eax, DWORD PTR _angleY$[ebp]
	movss	xmm0, DWORD PTR __real@be3126e9
	movss	DWORD PTR [eax], xmm0

; 1935 : 		offsetY = 0.0f;

	mov	ecx, DWORD PTR _offsetY$[ebp]
	movss	xmm0, DWORD PTR __real@00000000
	movss	DWORD PTR [ecx], xmm0

; 1936 : 		break;

	jmp	$LN9@GetCurWezA
$LN5@GetCurWezA:

; 1937 : 
; 1938 : 	case 3: // angle is 015
; 1939 : 		angleX = 0.965f;

	mov	edx, DWORD PTR _angleX$[ebp]
	movss	xmm0, DWORD PTR __real@3f770a3d
	movss	DWORD PTR [edx], xmm0

; 1940 : 		offsetX = 0.125f;

	mov	eax, DWORD PTR _offsetX$[ebp]
	movss	xmm0, DWORD PTR __real@3e000000
	movss	DWORD PTR [eax], xmm0

; 1941 : 		angleY = 0.258f;

	mov	ecx, DWORD PTR _angleY$[ebp]
	movss	xmm0, DWORD PTR __real@3e841893
	movss	DWORD PTR [ecx], xmm0

; 1942 : 		offsetY = 0.0f;

	mov	edx, DWORD PTR _offsetY$[ebp]
	movss	xmm0, DWORD PTR __real@00000000
	movss	DWORD PTR [edx], xmm0

; 1943 : 		break;

	jmp	$LN9@GetCurWezA
$LN4@GetCurWezA:

; 1944 : 
; 1945 : 	case 4: // angle is 040
; 1946 : 		angleX = 0.766f;

	mov	eax, DWORD PTR _angleX$[ebp]
	movss	xmm0, DWORD PTR __real@3f441893
	movss	DWORD PTR [eax], xmm0

; 1947 : 		offsetX = 0.085f;

	mov	ecx, DWORD PTR _offsetX$[ebp]
	movss	xmm0, DWORD PTR __real@3dae147b
	movss	DWORD PTR [ecx], xmm0

; 1948 : 		angleY = 0.642f;

	mov	edx, DWORD PTR _angleY$[ebp]
	movss	xmm0, DWORD PTR __real@3f245a1d
	movss	DWORD PTR [edx], xmm0

; 1949 : 		offsetY = 0.02f;

	mov	eax, DWORD PTR _offsetY$[ebp]
	movss	xmm0, DWORD PTR __real@3ca3d70a
	movss	DWORD PTR [eax], xmm0

; 1950 : 		break;

	jmp	$LN9@GetCurWezA
$LN3@GetCurWezA:

; 1951 : 
; 1952 : 	case 5: // angle is 065
; 1953 : 		angleX = 0.422f;

	mov	ecx, DWORD PTR _angleX$[ebp]
	movss	xmm0, DWORD PTR __real@3ed81062
	movss	DWORD PTR [ecx], xmm0

; 1954 : 		offsetX = 0.0f;

	mov	edx, DWORD PTR _offsetX$[ebp]
	movss	xmm0, DWORD PTR __real@00000000
	movss	DWORD PTR [edx], xmm0

; 1955 : 		angleY = 0.906f;

	mov	eax, DWORD PTR _angleY$[ebp]
	movss	xmm0, DWORD PTR __real@3f67ef9e
	movss	DWORD PTR [eax], xmm0

; 1956 : 		offsetY = -0.06f;

	mov	ecx, DWORD PTR _offsetY$[ebp]
	movss	xmm0, DWORD PTR __real@bd75c28f
	movss	DWORD PTR [ecx], xmm0

; 1957 : 		break;

	jmp	SHORT $LN9@GetCurWezA
$LN2@GetCurWezA:

; 1958 : 
; 1959 : 	case 6: // angle is 080
; 1960 : 		angleX = 0.173f;

	mov	edx, DWORD PTR _angleX$[ebp]
	movss	xmm0, DWORD PTR __real@3e3126e9
	movss	DWORD PTR [edx], xmm0

; 1961 : 		offsetX = 0.0f;

	mov	eax, DWORD PTR _offsetX$[ebp]
	movss	xmm0, DWORD PTR __real@00000000
	movss	DWORD PTR [eax], xmm0

; 1962 : 		angleY = 0.984f;

	mov	ecx, DWORD PTR _angleY$[ebp]
	movss	xmm0, DWORD PTR __real@3f7be76d
	movss	DWORD PTR [ecx], xmm0

; 1963 : 		offsetY = -0.075f;

	mov	edx, DWORD PTR _offsetY$[ebp]
	movss	xmm0, DWORD PTR __real@bd99999a
	movss	DWORD PTR [edx], xmm0

; 1964 : 		break;

	jmp	SHORT $LN9@GetCurWezA
$LN1@GetCurWezA:

; 1965 : 
; 1966 : 	case 7: // angle is 090
; 1967 : 		angleX = 0.0f;

	mov	eax, DWORD PTR _angleX$[ebp]
	movss	xmm0, DWORD PTR __real@00000000
	movss	DWORD PTR [eax], xmm0

; 1968 : 		offsetX = 0.0f;

	mov	ecx, DWORD PTR _offsetX$[ebp]
	movss	xmm0, DWORD PTR __real@00000000
	movss	DWORD PTR [ecx], xmm0

; 1969 : 		angleY = 1.0f;

	mov	edx, DWORD PTR _angleY$[ebp]
	movss	xmm0, DWORD PTR __real@3f800000
	movss	DWORD PTR [edx], xmm0

; 1970 : 		offsetY = -0.085f;

	mov	eax, DWORD PTR _offsetY$[ebp]
	movss	xmm0, DWORD PTR __real@bdae147b
	movss	DWORD PTR [eax], xmm0
$LN9@GetCurWezA:

; 1971 : 		break;
; 1972 : 	}
; 1973 : }

	mov	esp, ebp
	pop	ebp
	ret	0
	npad	1
$LN13@GetCurWezA:
	DD	$LN8@GetCurWezA
	DD	$LN7@GetCurWezA
	DD	$LN6@GetCurWezA
	DD	$LN5@GetCurWezA
	DD	$LN4@GetCurWezA
	DD	$LN3@GetCurWezA
	DD	$LN2@GetCurWezA
	DD	$LN1@GetCurWezA
?GetCurWezAngle@@YAXHAAM000@Z ENDP			; GetCurWezAngle
_TEXT	ENDS
; Function compile flags: /Odtp
; File c:\users\zhitao li\documents\visual studio 2012\projects\freefalcon\sim\include\simio.h
;	COMDAT ?AnalogIsUsed@SIMLIB_IO_CLASS@@QAE_NW4GameAxis_t@@@Z
_TEXT	SEGMENT
_this$ = -4						; size = 4
_id$ = 8						; size = 4
?AnalogIsUsed@SIMLIB_IO_CLASS@@QAE_NW4GameAxis_t@@@Z PROC ; SIMLIB_IO_CLASS::AnalogIsUsed, COMDAT
; _this$ = ecx

; 237  : 	bool	AnalogIsUsed(GameAxis_t id) { return ( analog[id].isUsed); };

	push	ebp
	mov	ebp, esp
	push	ecx
	mov	DWORD PTR _this$[ebp], ecx
	mov	eax, DWORD PTR _id$[ebp]
	imul	eax, 28					; 0000001cH
	mov	ecx, DWORD PTR _this$[ebp]
	mov	al, BYTE PTR [ecx+eax+12]
	mov	esp, ebp
	pop	ebp
	ret	4
?AnalogIsUsed@SIMLIB_IO_CLASS@@QAE_NW4GameAxis_t@@@Z ENDP ; SIMLIB_IO_CLASS::AnalogIsUsed
_TEXT	ENDS
; Function compile flags: /Odtp
;	COMDAT ??_GHarmTargetingPod@@UAEPAXI@Z
_TEXT	SEGMENT
_this$ = -4						; size = 4
___flags$ = 8						; size = 4
??_GHarmTargetingPod@@UAEPAXI@Z PROC			; HarmTargetingPod::`scalar deleting destructor', COMDAT
; _this$ = ecx
	push	ebp
	mov	ebp, esp
	push	ecx
	mov	DWORD PTR _this$[ebp], ecx
	mov	ecx, DWORD PTR _this$[ebp]
	call	??1HarmTargetingPod@@UAE@XZ		; HarmTargetingPod::~HarmTargetingPod
	mov	eax, DWORD PTR ___flags$[ebp]
	and	eax, 1
	je	SHORT $LN1@scalar
	mov	ecx, DWORD PTR _this$[ebp]
	push	ecx
	call	??3@YAXPAX@Z				; operator delete
	add	esp, 4
$LN1@scalar:
	mov	eax, DWORD PTR _this$[ebp]
	mov	esp, ebp
	pop	ebp
	ret	4
??_GHarmTargetingPod@@UAEPAXI@Z ENDP			; HarmTargetingPod::`scalar deleting destructor'
_TEXT	ENDS
; Function compile flags: /Odtp
; File c:\users\zhitao li\documents\visual studio 2012\projects\freefalcon\sim\rwr\harmpod.cpp
_TEXT	SEGMENT
_curMode$ = -12						; size = 4
_this$ = -8						; size = 4
tv66 = -4						; size = 4
_symbol$ = 8						; size = 4
?IsInPriorityList@HarmTargetingPod@@IAE_NH@Z PROC	; HarmTargetingPod::IsInPriorityList
; _this$ = ecx

; 1816 : {

	push	ebp
	mov	ebp, esp
	sub	esp, 12					; 0000000cH
	mov	DWORD PTR _this$[ebp], ecx

; 1817 : 	HASFilterMode curMode = GetFilterMode();

	mov	ecx, DWORD PTR _this$[ebp]
	call	?GetFilterMode@HarmTargetingPod@@QAE?AW4HASFilterMode@1@XZ ; HarmTargetingPod::GetFilterMode
	mov	DWORD PTR _curMode$[ebp], eax

; 1818 : 
; 1819 : 	switch ( curMode )

	mov	eax, DWORD PTR _curMode$[ebp]
	mov	DWORD PTR tv66[ebp], eax
	cmp	DWORD PTR tv66[ebp], 1
	je	SHORT $LN15@IsInPriori
	cmp	DWORD PTR tv66[ebp], 2
	je	SHORT $LN10@IsInPriori
	cmp	DWORD PTR tv66[ebp], 3
	je	SHORT $LN5@IsInPriori

; 1820 : 	{
; 1821 : 	case ALL: // Return always true here
; 1822 : 	default:
; 1823 : 		return true;

	mov	al, 1
	jmp	$LN19@IsInPriori

; 1824 : 		break;

	jmp	$LN19@IsInPriori
$LN15@IsInPriori:

; 1825 : 
; 1826 : 	case HP: // Get only high priority threats, basically only SAMs and AAA radars
; 1827 : 		if ( symbol < RWRSYM_HAWK ||
; 1828 : 			(symbol > 23 && symbol != 111 && symbol != 112 &&
; 1829 :              symbol != 117) && 
; 1830 : 			 symbol != RWRSYM_KSAM ||
; 1831 : 			 symbol == RWRSYM_SEARCH )

	cmp	DWORD PTR _symbol$[ebp], 5
	jl	SHORT $LN13@IsInPriori
	cmp	DWORD PTR _symbol$[ebp], 23		; 00000017H
	jle	SHORT $LN12@IsInPriori
	cmp	DWORD PTR _symbol$[ebp], 111		; 0000006fH
	je	SHORT $LN12@IsInPriori
	cmp	DWORD PTR _symbol$[ebp], 112		; 00000070H
	je	SHORT $LN12@IsInPriori
	cmp	DWORD PTR _symbol$[ebp], 117		; 00000075H
	je	SHORT $LN12@IsInPriori
	cmp	DWORD PTR _symbol$[ebp], 30		; 0000001eH
	jne	SHORT $LN13@IsInPriori
$LN12@IsInPriori:
	cmp	DWORD PTR _symbol$[ebp], 17		; 00000011H
	jne	SHORT $LN14@IsInPriori
$LN13@IsInPriori:

; 1832 : 		{
; 1833 : 			return false;

	xor	al, al
	jmp	$LN19@IsInPriori

; 1834 : 		}
; 1835 : 
; 1836 : 		else

	jmp	SHORT $LN11@IsInPriori
$LN14@IsInPriori:

; 1837 : 		{
; 1838 : 			return true;

	mov	al, 1
	jmp	SHORT $LN19@IsInPriori
$LN11@IsInPriori:

; 1839 : 		}
; 1840 : 
; 1841 : 		break;

	jmp	SHORT $LN19@IsInPriori
$LN10@IsInPriori:

; 1842 : 
; 1843 : 	case HA: // Get only high altitude threats, basically all large SAMs
; 1844 : 
; 1845 : 		if ( (symbol >= RWRSYM_HAWK && symbol <= RWRSYM_SA6) ||
; 1846 : 			 symbol == RWRSYM_SA10 ||
; 1847 :              symbol == RWRSYM_NIKE ||
; 1848 : 			 symbol == 111 ||
; 1849 : 			 symbol == 112 ||
; 1850 : 			 symbol == 117 )

	cmp	DWORD PTR _symbol$[ebp], 5
	jl	SHORT $LN7@IsInPriori
	cmp	DWORD PTR _symbol$[ebp], 11		; 0000000bH
	jle	SHORT $LN8@IsInPriori
$LN7@IsInPriori:
	cmp	DWORD PTR _symbol$[ebp], 14		; 0000000eH
	je	SHORT $LN8@IsInPriori
	cmp	DWORD PTR _symbol$[ebp], 21		; 00000015H
	je	SHORT $LN8@IsInPriori
	cmp	DWORD PTR _symbol$[ebp], 111		; 0000006fH
	je	SHORT $LN8@IsInPriori
	cmp	DWORD PTR _symbol$[ebp], 112		; 00000070H
	je	SHORT $LN8@IsInPriori
	cmp	DWORD PTR _symbol$[ebp], 117		; 00000075H
	jne	SHORT $LN9@IsInPriori
$LN8@IsInPriori:

; 1851 : 		{
; 1852 : 			return true;

	mov	al, 1
	jmp	SHORT $LN19@IsInPriori

; 1853 : 		}
; 1854 : 
; 1855 : 		else

	jmp	SHORT $LN6@IsInPriori
$LN9@IsInPriori:

; 1856 : 		{
; 1857 : 			return false;

	xor	al, al
	jmp	SHORT $LN19@IsInPriori
$LN6@IsInPriori:

; 1858 : 		}
; 1859 : 
; 1860 : 		break;

	jmp	SHORT $LN19@IsInPriori
$LN5@IsInPriori:

; 1861 : 
; 1862 : 	case LA: // Get only low altitude threats, basically all small SAMs and AAA
; 1863 : 
; 1864 : 		if ( symbol == RWRSYM_SA8 ||
; 1865 : 			 symbol == RWRSYM_SA9 ||
; 1866 : 			 symbol == RWRSYM_SA13 ||
; 1867 :              symbol == RWRSYM_AAA ||
; 1868 : 			 symbol == RWRSYM_CHAPARAL ||
; 1869 : 			 symbol == RWRSYM_CHAPARAL || 
; 1870 : 			 symbol == RWRSYM_SA15 ||
; 1871 : 			 ( symbol >= 21 && symbol <= 23 ) ||
; 1872 : 			 symbol == RWRSYM_KSAM
; 1873 : 			)

	cmp	DWORD PTR _symbol$[ebp], 12		; 0000000cH
	je	SHORT $LN3@IsInPriori
	cmp	DWORD PTR _symbol$[ebp], 13		; 0000000dH
	je	SHORT $LN3@IsInPriori
	cmp	DWORD PTR _symbol$[ebp], 15		; 0000000fH
	je	SHORT $LN3@IsInPriori
	cmp	DWORD PTR _symbol$[ebp], 16		; 00000010H
	je	SHORT $LN3@IsInPriori
	cmp	DWORD PTR _symbol$[ebp], 19		; 00000013H
	je	SHORT $LN3@IsInPriori
	cmp	DWORD PTR _symbol$[ebp], 19		; 00000013H
	je	SHORT $LN3@IsInPriori
	cmp	DWORD PTR _symbol$[ebp], 20		; 00000014H
	je	SHORT $LN3@IsInPriori
	cmp	DWORD PTR _symbol$[ebp], 21		; 00000015H
	jl	SHORT $LN2@IsInPriori
	cmp	DWORD PTR _symbol$[ebp], 23		; 00000017H
	jle	SHORT $LN3@IsInPriori
$LN2@IsInPriori:
	cmp	DWORD PTR _symbol$[ebp], 30		; 0000001eH
	jne	SHORT $LN4@IsInPriori
$LN3@IsInPriori:

; 1874 : 		{
; 1875 : 			return true;

	mov	al, 1
	jmp	SHORT $LN19@IsInPriori

; 1876 : 		}
; 1877 : 
; 1878 : 		else

	jmp	SHORT $LN19@IsInPriori
$LN4@IsInPriori:

; 1879 : 		{
; 1880 : 			return false;

	xor	al, al
$LN19@IsInPriori:

; 1881 : 		}
; 1882 : 
; 1883 : 		break;
; 1884 : 
; 1885 : 	}
; 1886 : }

	mov	esp, ebp
	pop	ebp
	ret	4
?IsInPriorityList@HarmTargetingPod@@IAE_NH@Z ENDP	; HarmTargetingPod::IsInPriorityList
_TEXT	ENDS
; Function compile flags: /Odtp
; File c:\users\zhitao li\documents\visual studio 2012\projects\freefalcon\sim\rwr\harmpod.cpp
_TEXT	SEGMENT
tv84 = -8						; size = 4
_this$ = -4						; size = 4
_displayX$ = 8						; size = 4
_displayY$ = 12						; size = 4
?IsInsideALIC@HarmTargetingPod@@IAE_NAAM0@Z PROC	; HarmTargetingPod::IsInsideALIC
; _this$ = ecx

; 1565 : {

	push	ebp
	mov	ebp, esp
	sub	esp, 8
	mov	DWORD PTR _this$[ebp], ecx

; 1566 : 	if ( fabs(displayX) > (0.75f * zoomFactor) || displayY > ((1.05f + HTS_Y_OFFSET) * zoomFactor) ||
; 1567 : 	     displayY < ((-0.3f + HTS_Y_OFFSET) * zoomFactor) )

	mov	eax, DWORD PTR _displayX$[ebp]
	push	ecx
	movss	xmm0, DWORD PTR [eax]
	movss	DWORD PTR [esp], xmm0
	call	?fabs@@YAMM@Z				; fabs
	add	esp, 4
	fstp	DWORD PTR tv84[ebp]
	movss	xmm0, DWORD PTR tv84[ebp]
	mov	ecx, DWORD PTR _this$[ebp]
	movss	xmm1, DWORD PTR __real@3f400000
	mulss	xmm1, DWORD PTR [ecx+152]
	comiss	xmm0, xmm1
	ja	SHORT $LN2@IsInsideAL
	mov	edx, DWORD PTR _this$[ebp]
	movss	xmm0, DWORD PTR __real@3f0ccccc
	mulss	xmm0, DWORD PTR [edx+152]
	mov	eax, DWORD PTR _displayY$[ebp]
	movss	xmm1, DWORD PTR [eax]
	comiss	xmm1, xmm0
	ja	SHORT $LN2@IsInsideAL
	mov	ecx, DWORD PTR _this$[ebp]
	movss	xmm0, DWORD PTR __real@bf4ccccd
	mulss	xmm0, DWORD PTR [ecx+152]
	mov	edx, DWORD PTR _displayY$[ebp]
	comiss	xmm0, DWORD PTR [edx]
	jbe	SHORT $LN3@IsInsideAL
$LN2@IsInsideAL:

; 1568 : 	{
; 1569 : 		return false;

	xor	al, al
	jmp	SHORT $LN1@IsInsideAL

; 1570 : 	}
; 1571 : 
; 1572 : 	else

	jmp	SHORT $LN1@IsInsideAL
$LN3@IsInsideAL:

; 1573 : 	{
; 1574 :         return true;

	mov	al, 1
$LN1@IsInsideAL:

; 1575 : 	}
; 1576 : }

	mov	esp, ebp
	pop	ebp
	ret	8
?IsInsideALIC@HarmTargetingPod@@IAE_NAAM0@Z ENDP	; HarmTargetingPod::IsInsideALIC
_TEXT	ENDS
; Function compile flags: /Odtp
; File c:\users\zhitao li\documents\visual studio 2012\projects\freefalcon\sim\rwr\harmpod.cpp
_TEXT	SEGMENT
_this$ = -12						; size = 4
_WPnum$ = -8						; size = 4
_tempWaypoint$ = -4					; size = 4
_theWP$ = 8						; size = 4
?FindWaypointNum@HarmTargetingPod@@IAEHPAVWayPointClass@@@Z PROC ; HarmTargetingPod::FindWaypointNum
; _this$ = ecx

; 1796 : {

	push	ebp
	mov	ebp, esp
	sub	esp, 12					; 0000000cH
	mov	DWORD PTR _this$[ebp], ecx

; 1797 : 	int WPnum;
; 1798 :     WayPointClass* tempWaypoint;
; 1799 : 
; 1800 : 	tempWaypoint = ((SimVehicleClass*)platform)->waypoint;

	mov	eax, DWORD PTR _this$[ebp]
	mov	ecx, DWORD PTR [eax+32]
	mov	edx, DWORD PTR [ecx+732]
	mov	DWORD PTR _tempWaypoint$[ebp], edx

; 1801 : 
; 1802 : 	if ( !tempWaypoint ) return -1;

	cmp	DWORD PTR _tempWaypoint$[ebp], 0
	jne	SHORT $LN3@FindWaypoi
	or	eax, -1
	jmp	SHORT $LN4@FindWaypoi
$LN3@FindWaypoi:

; 1803 : 
; 1804 : 	WPnum = 1;

	mov	DWORD PTR _WPnum$[ebp], 1
$LN2@FindWaypoi:

; 1805 : 	while (tempWaypoint && tempWaypoint != theWP)

	cmp	DWORD PTR _tempWaypoint$[ebp], 0
	je	SHORT $LN1@FindWaypoi
	mov	eax, DWORD PTR _tempWaypoint$[ebp]
	cmp	eax, DWORD PTR _theWP$[ebp]
	je	SHORT $LN1@FindWaypoi

; 1806 : 	{
; 1807 : 		tempWaypoint = tempWaypoint->GetNextWP();

	mov	ecx, DWORD PTR _tempWaypoint$[ebp]
	call	?GetNextWP@WayPointClass@@QAEPAV1@XZ	; WayPointClass::GetNextWP
	mov	DWORD PTR _tempWaypoint$[ebp], eax

; 1808 : 		WPnum++;

	mov	ecx, DWORD PTR _WPnum$[ebp]
	add	ecx, 1
	mov	DWORD PTR _WPnum$[ebp], ecx

; 1809 : 	}

	jmp	SHORT $LN2@FindWaypoi
$LN1@FindWaypoi:

; 1810 : 
; 1811 : 	return WPnum;

	mov	eax, DWORD PTR _WPnum$[ebp]
$LN4@FindWaypoi:

; 1812 : }

	mov	esp, ebp
	pop	ebp
	ret	4
?FindWaypointNum@HarmTargetingPod@@IAEHPAVWayPointClass@@@Z ENDP ; HarmTargetingPod::FindWaypointNum
_TEXT	ENDS
; Function compile flags: /Odtp
; File c:\users\zhitao li\documents\visual studio 2012\projects\freefalcon\sim\rwr\harmpod.cpp
_TEXT	SEGMENT
_wpZ$ = -144						; size = 4
tv442 = -140						; size = 4
_lastValidWP$ = -136					; size = 4
tv515 = -132						; size = 4
tv476 = -128						; size = 4
_firstFreeTargetIndex$ = -124				; size = 4
tv519 = -120						; size = 4
_wpX$ = -116						; size = 4
tv469 = -112						; size = 4
tv517 = -108						; size = 4
tv457 = -104						; size = 4
tv432 = -100						; size = 4
_wpY$ = -96						; size = 4
tv427 = -92						; size = 4
tv451 = -88						; size = 4
tv437 = -84						; size = 4
_waypointY$ = -80					; size = 4
_waypointX$ = -76					; size = 4
_displayX$ = -72					; size = 4
tv294 = -68						; size = 4
_bestSoFar$ = -64					; size = 4
_delta$ = -60						; size = 4
_FCC$ = -56						; size = 4
_firstValidWP$ = -52					; size = 4
_displayY$ = -48					; size = 4
_trig$ = -44						; size = 8
_choice$ = -36						; size = 4
_tempIndex$ = -32					; size = 4
_y$ = -28						; size = 4
_x$ = -24						; size = 4
_curWaypoint$ = -20					; size = 4
_tmpElement$ = -16					; size = 4
_tempWP$ = -12						; size = 4
_curTargetFound$ = -5					; size = 1
_this$ = -4						; size = 4
?BuildPOSTargets@HarmTargetingPod@@IAEXXZ PROC		; HarmTargetingPod::BuildPOSTargets
; _this$ = ecx

; 1241 : {

	push	ebp
	mov	ebp, esp
	sub	esp, 144				; 00000090H
	push	esi
	mov	DWORD PTR _this$[ebp], ecx

; 1242 : 	GroundListElement		*tmpElement;
; 1243 : 	GroundListElement		*choice		= NULL;

	mov	DWORD PTR _choice$[ebp], 0

; 1244 : 	float			bestSoFar; // very small value from waypoint
; 1245 : 	mlTrig			trig;
; 1246 : 	float			wpX, wpY, wpZ;
; 1247 : 	float			x, y;
; 1248 : 	float			displayX, displayY;
; 1249 : 	float			delta;
; 1250 : 	float			waypointX, waypointY;
; 1251 : 	int				firstFreeTargetIndex;
; 1252 : 	WayPointClass	*curWaypoint;
; 1253 : 	WayPointClass	*tempWP, *firstValidWP, *lastValidWP;
; 1254 : 	FireControlComputer* FCC = ((SimVehicleClass*)platform)->GetFCC();

	mov	eax, DWORD PTR _this$[ebp]
	mov	ecx, DWORD PTR [eax+32]
	mov	edx, DWORD PTR _this$[ebp]
	mov	eax, DWORD PTR [ecx]
	mov	ecx, DWORD PTR [edx+32]
	mov	edx, DWORD PTR [eax+460]
	call	edx
	mov	DWORD PTR _FCC$[ebp], eax

; 1255 : 	bool			curTargetFound = false;

	mov	BYTE PTR _curTargetFound$[ebp], 0

; 1256 : 
; 1257 : 	curWaypoint = ((SimVehicleClass*)platform)->curWaypoint; // Get the current waypoint

	mov	eax, DWORD PTR _this$[ebp]
	mov	ecx, DWORD PTR [eax+32]
	mov	edx, DWORD PTR [ecx+728]
	mov	DWORD PTR _curWaypoint$[ebp], edx

; 1258 : 
; 1259 : 	if ( !curWaypoint ) return; // Don't do anything if waypoint is NULL

	cmp	DWORD PTR _curWaypoint$[ebp], 0
	jne	SHORT $LN26@BuildPOSTa
	jmp	$LN27@BuildPOSTa
$LN26@BuildPOSTa:

; 1260 : 
; 1261 : 	if ( POSTargets[MAX_POS_TARGETS -1] ) return; // Don't bother if POS targets list already full

	mov	eax, 4
	imul	eax, 3
	mov	ecx, DWORD PTR _this$[ebp]
	cmp	DWORD PTR [ecx+eax+188], 0
	je	SHORT $LN25@BuildPOSTa
	jmp	$LN27@BuildPOSTa
$LN25@BuildPOSTa:

; 1262 : 
; 1263 : 	// Now the purpose is to get to first valid waypoint and last valid waypoint, then
; 1264 : 	// start to build a PB list in between
; 1265 : 	if ( curWaypoint->GetWPAction() == WP_TAKEOFF ) // check if the current is the Take-off WP

	mov	ecx, DWORD PTR _curWaypoint$[ebp]
	call	?GetWPAction@WayPointClass@@QAEHXZ	; WayPointClass::GetWPAction
	cmp	eax, 1
	jne	SHORT $LN24@BuildPOSTa

; 1266 : 	{
; 1267 : 		if ( curWaypoint->GetNextWP() ) // Validate next one isn't NULL

	mov	ecx, DWORD PTR _curWaypoint$[ebp]
	call	?GetNextWP@WayPointClass@@QAEPAV1@XZ	; WayPointClass::GetNextWP
	test	eax, eax
	je	SHORT $LN23@BuildPOSTa

; 1268 : 		{
; 1269 : 			firstValidWP = curWaypoint->GetNextWP(); // Mark next one as the first valid WP 

	mov	ecx, DWORD PTR _curWaypoint$[ebp]
	call	?GetNextWP@WayPointClass@@QAEPAV1@XZ	; WayPointClass::GetNextWP
	mov	DWORD PTR _firstValidWP$[ebp], eax

; 1270 : 		}
; 1271 : 
; 1272 : 		else 

	jmp	SHORT $LN22@BuildPOSTa
$LN23@BuildPOSTa:

; 1273 : 		{
; 1274 : 			return;

	jmp	$LN27@BuildPOSTa
$LN22@BuildPOSTa:

; 1275 : 		}
; 1276 : 	}
; 1277 : 
; 1278 : 	else // Find the first waypoint

	jmp	SHORT $LN21@BuildPOSTa
$LN24@BuildPOSTa:

; 1279 : 	{
; 1280 :         while ( curWaypoint->GetPrevWP() && (curWaypoint->GetPrevWP())->GetWPAction() != WP_TAKEOFF ) 

	mov	ecx, DWORD PTR _curWaypoint$[ebp]
	call	?GetPrevWP@WayPointClass@@QAEPAV1@XZ	; WayPointClass::GetPrevWP
	test	eax, eax
	je	SHORT $LN19@BuildPOSTa
	mov	ecx, DWORD PTR _curWaypoint$[ebp]
	call	?GetPrevWP@WayPointClass@@QAEPAV1@XZ	; WayPointClass::GetPrevWP
	mov	ecx, eax
	call	?GetWPAction@WayPointClass@@QAEHXZ	; WayPointClass::GetWPAction
	cmp	eax, 1
	je	SHORT $LN19@BuildPOSTa

; 1281 : 		{
; 1282 : 			curWaypoint = curWaypoint->GetPrevWP();

	mov	ecx, DWORD PTR _curWaypoint$[ebp]
	call	?GetPrevWP@WayPointClass@@QAEPAV1@XZ	; WayPointClass::GetPrevWP
	mov	DWORD PTR _curWaypoint$[ebp], eax

; 1283 : 		}

	jmp	SHORT $LN24@BuildPOSTa
$LN19@BuildPOSTa:

; 1284 : 
; 1285 : 		firstValidWP = curWaypoint;

	mov	edx, DWORD PTR _curWaypoint$[ebp]
	mov	DWORD PTR _firstValidWP$[ebp], edx
$LN21@BuildPOSTa:

; 1286 : 	}
; 1287 : 
; 1288 : 	tempWP = firstValidWP;

	mov	eax, DWORD PTR _firstValidWP$[ebp]
	mov	DWORD PTR _tempWP$[ebp], eax
$LN18@BuildPOSTa:

; 1289 : 
; 1290 : 	// Now move on to find the last valid WP
; 1291 : 	while ( tempWP->GetNextWP() && (tempWP->GetNextWP())->GetWPAction() != WP_LAND )

	mov	ecx, DWORD PTR _tempWP$[ebp]
	call	?GetNextWP@WayPointClass@@QAEPAV1@XZ	; WayPointClass::GetNextWP
	test	eax, eax
	je	SHORT $LN17@BuildPOSTa
	mov	ecx, DWORD PTR _tempWP$[ebp]
	call	?GetNextWP@WayPointClass@@QAEPAV1@XZ	; WayPointClass::GetNextWP
	mov	ecx, eax
	call	?GetWPAction@WayPointClass@@QAEHXZ	; WayPointClass::GetWPAction
	cmp	eax, 7
	je	SHORT $LN17@BuildPOSTa

; 1292 : 	{
; 1293 : 		tempWP = tempWP->GetNextWP();

	mov	ecx, DWORD PTR _tempWP$[ebp]
	call	?GetNextWP@WayPointClass@@QAEPAV1@XZ	; WayPointClass::GetNextWP
	mov	DWORD PTR _tempWP$[ebp], eax

; 1294 : 	}

	jmp	SHORT $LN18@BuildPOSTa
$LN17@BuildPOSTa:

; 1295 : 
; 1296 : 	lastValidWP = tempWP;

	mov	ecx, DWORD PTR _tempWP$[ebp]
	mov	DWORD PTR _lastValidWP$[ebp], ecx

; 1297 : 
; 1298 : 	firstFreeTargetIndex = 0;

	mov	DWORD PTR _firstFreeTargetIndex$[ebp], 0

; 1299 : 
; 1300 : 	int tempIndex = firstFreeTargetIndex;

	mov	edx, DWORD PTR _firstFreeTargetIndex$[ebp]
	mov	DWORD PTR _tempIndex$[ebp], edx

; 1301 : 
; 1302 : 	for ( tempWP = firstValidWP; tempWP != lastValidWP->GetNextWP(); tempWP = tempWP->GetNextWP() )

	mov	eax, DWORD PTR _firstValidWP$[ebp]
	mov	DWORD PTR _tempWP$[ebp], eax
	jmp	SHORT $LN16@BuildPOSTa
$LN15@BuildPOSTa:
	mov	ecx, DWORD PTR _tempWP$[ebp]
	call	?GetNextWP@WayPointClass@@QAEPAV1@XZ	; WayPointClass::GetNextWP
	mov	DWORD PTR _tempWP$[ebp], eax
$LN16@BuildPOSTa:
	mov	ecx, DWORD PTR _lastValidWP$[ebp]
	call	?GetNextWP@WayPointClass@@QAEPAV1@XZ	; WayPointClass::GetNextWP
	cmp	DWORD PTR _tempWP$[ebp], eax
	je	$LN14@BuildPOSTa

; 1303 : 	{
; 1304 : 		mlSinCos (&trig, platform->Yaw());

	mov	ecx, DWORD PTR _this$[ebp]
	mov	ecx, DWORD PTR [ecx+32]
	call	?Yaw@VuEntity@@QBEMXZ			; VuEntity::Yaw
	push	ecx
	fstp	DWORD PTR [esp]
	lea	edx, DWORD PTR _trig$[ebp]
	push	edx
	call	?mlSinCos@@YAXPAUmlTrig@@M@Z		; mlSinCos
	add	esp, 8

; 1305 : 
; 1306 : 		tempWP->GetLocation (&wpX, &wpY, &wpZ);

	lea	eax, DWORD PTR _wpZ$[ebp]
	push	eax
	lea	ecx, DWORD PTR _wpY$[ebp]
	push	ecx
	lea	edx, DWORD PTR _wpX$[ebp]
	push	edx
	mov	ecx, DWORD PTR _tempWP$[ebp]
	call	?GetLocation@WayPointClass@@QBEXPAM00@Z	; WayPointClass::GetLocation

; 1307 : 	
; 1308 : 		// Walk our list looking for the thing in range and nearest the waypoint
; 1309 : 		bestSoFar = 0.005f;

	movss	xmm0, DWORD PTR __real@3ba3d70a
	movss	DWORD PTR _bestSoFar$[ebp], xmm0

; 1310 : 		choice = NULL;

	mov	DWORD PTR _choice$[ebp], 0

; 1311 : 
; 1312 : 		for (tmpElement	= FCC->GetFirstGroundElement(); tmpElement; tmpElement = tmpElement->GetNext())

	mov	ecx, DWORD PTR _FCC$[ebp]
	call	?GetFirstGroundElement@FireControlComputer@@QAEPAVGroundListElement@@XZ ; FireControlComputer::GetFirstGroundElement
	mov	DWORD PTR _tmpElement$[ebp], eax
	jmp	SHORT $LN13@BuildPOSTa
$LN12@BuildPOSTa:
	mov	ecx, DWORD PTR _tmpElement$[ebp]
	call	?GetNext@GroundListElement@@QAEPAV1@XZ	; GroundListElement::GetNext
	mov	DWORD PTR _tmpElement$[ebp], eax
$LN13@BuildPOSTa:
	cmp	DWORD PTR _tmpElement$[ebp], 0
	je	$LN11@BuildPOSTa

; 1313 : 		{
; 1314 : 			if (tmpElement->BaseObject() == NULL) continue;

	mov	ecx, DWORD PTR _tmpElement$[ebp]
	call	?BaseObject@GroundListElement@@QAEPAVFalconEntity@@XZ ; GroundListElement::BaseObject
	test	eax, eax
	jne	SHORT $LN10@BuildPOSTa
	jmp	SHORT $LN12@BuildPOSTa
$LN10@BuildPOSTa:

; 1315 : 
; 1316 : 			// Although not displaying anything, still using the display variables...
; 1317 : 			// Convert to normalized display space with heading up
; 1318 : 			y = (tmpElement->BaseObject()->XPos() - platform->XPos()) * FT_TO_NM / 30.0f * HTS_DISPLAY_RADIUS;

	mov	ecx, DWORD PTR _tmpElement$[ebp]
	call	?BaseObject@GroundListElement@@QAEPAVFalconEntity@@XZ ; GroundListElement::BaseObject
	mov	ecx, eax
	call	?XPos@VuEntity@@QBEMXZ			; VuEntity::XPos
	fstp	DWORD PTR tv427[ebp]
	movss	xmm0, DWORD PTR tv427[ebp]
	mov	eax, DWORD PTR _this$[ebp]
	mov	ecx, DWORD PTR [eax+32]
	movss	DWORD PTR tv515[ebp], xmm0
	call	?XPos@VuEntity@@QBEMXZ			; VuEntity::XPos
	fstp	DWORD PTR tv432[ebp]
	movss	xmm0, DWORD PTR tv515[ebp]
	subss	xmm0, DWORD PTR tv432[ebp]
	mulss	xmm0, DWORD PTR __real@392c987a
	divss	xmm0, DWORD PTR __real@41f00000
	mulss	xmm0, DWORD PTR __real@3fb33333
	movss	DWORD PTR _y$[ebp], xmm0

; 1319 : 			x = (tmpElement->BaseObject()->YPos() - platform->YPos()) * FT_TO_NM / 30.0f * HTS_DISPLAY_RADIUS;

	mov	ecx, DWORD PTR _tmpElement$[ebp]
	call	?BaseObject@GroundListElement@@QAEPAVFalconEntity@@XZ ; GroundListElement::BaseObject
	mov	ecx, eax
	call	?YPos@VuEntity@@QBEMXZ			; VuEntity::YPos
	fstp	DWORD PTR tv437[ebp]
	movss	xmm0, DWORD PTR tv437[ebp]
	mov	ecx, DWORD PTR _this$[ebp]
	mov	ecx, DWORD PTR [ecx+32]
	movss	DWORD PTR tv517[ebp], xmm0
	call	?YPos@VuEntity@@QBEMXZ			; VuEntity::YPos
	fstp	DWORD PTR tv442[ebp]
	movss	xmm0, DWORD PTR tv517[ebp]
	subss	xmm0, DWORD PTR tv442[ebp]
	mulss	xmm0, DWORD PTR __real@392c987a
	divss	xmm0, DWORD PTR __real@41f00000
	mulss	xmm0, DWORD PTR __real@3fb33333
	movss	DWORD PTR _x$[ebp], xmm0

; 1320 : 			displayX = trig.cos * x - trig.sin * y;

	movss	xmm0, DWORD PTR _trig$[ebp+4]
	mulss	xmm0, DWORD PTR _x$[ebp]
	movss	xmm1, DWORD PTR _trig$[ebp]
	mulss	xmm1, DWORD PTR _y$[ebp]
	subss	xmm0, xmm1
	movss	DWORD PTR _displayX$[ebp], xmm0

; 1321 : 			displayY = trig.sin * x + trig.cos * y;

	movss	xmm0, DWORD PTR _trig$[ebp]
	mulss	xmm0, DWORD PTR _x$[ebp]
	movss	xmm1, DWORD PTR _trig$[ebp+4]
	mulss	xmm1, DWORD PTR _y$[ebp]
	addss	xmm0, xmm1
	movss	DWORD PTR _displayY$[ebp], xmm0

; 1322 : 
; 1323 : 			// Now get the waypoint's position
; 1324 : 			y = (wpX - platform->XPos()) * FT_TO_NM / 30.0f * HTS_DISPLAY_RADIUS;

	mov	edx, DWORD PTR _this$[ebp]
	mov	ecx, DWORD PTR [edx+32]
	call	?XPos@VuEntity@@QBEMXZ			; VuEntity::XPos
	fstp	DWORD PTR tv451[ebp]
	movss	xmm0, DWORD PTR _wpX$[ebp]
	subss	xmm0, DWORD PTR tv451[ebp]
	mulss	xmm0, DWORD PTR __real@392c987a
	divss	xmm0, DWORD PTR __real@41f00000
	mulss	xmm0, DWORD PTR __real@3fb33333
	movss	DWORD PTR _y$[ebp], xmm0

; 1325 : 			x = (wpY - platform->YPos()) * FT_TO_NM / 30.0f * HTS_DISPLAY_RADIUS;

	mov	eax, DWORD PTR _this$[ebp]
	mov	ecx, DWORD PTR [eax+32]
	call	?YPos@VuEntity@@QBEMXZ			; VuEntity::YPos
	fstp	DWORD PTR tv457[ebp]
	movss	xmm0, DWORD PTR _wpY$[ebp]
	subss	xmm0, DWORD PTR tv457[ebp]
	mulss	xmm0, DWORD PTR __real@392c987a
	divss	xmm0, DWORD PTR __real@41f00000
	mulss	xmm0, DWORD PTR __real@3fb33333
	movss	DWORD PTR _x$[ebp], xmm0

; 1326 : 			waypointX = trig.cos * x - trig.sin * y;

	movss	xmm0, DWORD PTR _trig$[ebp+4]
	mulss	xmm0, DWORD PTR _x$[ebp]
	movss	xmm1, DWORD PTR _trig$[ebp]
	mulss	xmm1, DWORD PTR _y$[ebp]
	subss	xmm0, xmm1
	movss	DWORD PTR _waypointX$[ebp], xmm0

; 1327 : 			waypointY = trig.sin * x + trig.cos * y;

	movss	xmm0, DWORD PTR _trig$[ebp]
	mulss	xmm0, DWORD PTR _x$[ebp]
	movss	xmm1, DWORD PTR _trig$[ebp+4]
	mulss	xmm1, DWORD PTR _y$[ebp]
	addss	xmm0, xmm1
	movss	DWORD PTR _waypointY$[ebp], xmm0

; 1328 : 			
; 1329 : 			// See if this is the closest to the waypoint so far (must be smaller than 0.0005f anyway)
; 1330 : 			delta = (float)max( fabs(displayX - waypointX), fabs(displayY - waypointY) );

	movss	xmm0, DWORD PTR _displayX$[ebp]
	subss	xmm0, DWORD PTR _waypointX$[ebp]
	push	ecx
	movss	DWORD PTR [esp], xmm0
	call	?fabs@@YAMM@Z				; fabs
	add	esp, 4
	fstp	DWORD PTR tv469[ebp]
	movss	xmm0, DWORD PTR tv469[ebp]
	movss	xmm1, DWORD PTR _displayY$[ebp]
	subss	xmm1, DWORD PTR _waypointY$[ebp]
	push	ecx
	movss	DWORD PTR [esp], xmm1
	movss	DWORD PTR tv519[ebp], xmm0
	call	?fabs@@YAMM@Z				; fabs
	add	esp, 4
	fstp	DWORD PTR tv476[ebp]
	movss	xmm0, DWORD PTR tv519[ebp]
	comiss	xmm0, DWORD PTR tv476[ebp]
	jbe	SHORT $LN29@BuildPOSTa
	movss	xmm0, DWORD PTR _displayX$[ebp]
	subss	xmm0, DWORD PTR _waypointX$[ebp]
	push	ecx
	movss	DWORD PTR [esp], xmm0
	call	?fabs@@YAMM@Z				; fabs
	add	esp, 4
	fstp	DWORD PTR tv294[ebp]
	jmp	SHORT $LN30@BuildPOSTa
$LN29@BuildPOSTa:
	movss	xmm0, DWORD PTR _displayY$[ebp]
	subss	xmm0, DWORD PTR _waypointY$[ebp]
	push	ecx
	movss	DWORD PTR [esp], xmm0
	call	?fabs@@YAMM@Z				; fabs
	add	esp, 4
	fstp	DWORD PTR tv294[ebp]
$LN30@BuildPOSTa:
	movss	xmm0, DWORD PTR tv294[ebp]
	movss	DWORD PTR _delta$[ebp], xmm0

; 1331 : 			if (delta < bestSoFar) {

	movss	xmm0, DWORD PTR _bestSoFar$[ebp]
	comiss	xmm0, DWORD PTR _delta$[ebp]
	jbe	SHORT $LN9@BuildPOSTa

; 1332 : 				bestSoFar = delta;

	movss	xmm0, DWORD PTR _delta$[ebp]
	movss	DWORD PTR _bestSoFar$[ebp], xmm0

; 1333 : 				choice = tmpElement;

	mov	ecx, DWORD PTR _tmpElement$[ebp]
	mov	DWORD PTR _choice$[ebp], ecx
$LN9@BuildPOSTa:

; 1334 : 			}
; 1335 : 
; 1336 : 			if ( !curTargetFound && curTarget && curTarget->BaseObject() )

	movzx	edx, BYTE PTR _curTargetFound$[ebp]
	test	edx, edx
	jne	SHORT $LN7@BuildPOSTa
	mov	eax, DWORD PTR _this$[ebp]
	cmp	DWORD PTR [eax+220], 0
	je	SHORT $LN7@BuildPOSTa
	mov	ecx, DWORD PTR _this$[ebp]
	mov	ecx, DWORD PTR [ecx+220]
	call	?BaseObject@GroundListElement@@QAEPAVFalconEntity@@XZ ; GroundListElement::BaseObject
	test	eax, eax
	je	SHORT $LN7@BuildPOSTa

; 1337 : 			{
; 1338 : 				if ( tmpElement == curTarget || tmpElement->BaseObject() == curTarget->BaseObject() )

	mov	edx, DWORD PTR _this$[ebp]
	mov	eax, DWORD PTR _tmpElement$[ebp]
	cmp	eax, DWORD PTR [edx+220]
	je	SHORT $LN6@BuildPOSTa
	mov	ecx, DWORD PTR _tmpElement$[ebp]
	call	?BaseObject@GroundListElement@@QAEPAVFalconEntity@@XZ ; GroundListElement::BaseObject
	mov	esi, eax
	mov	ecx, DWORD PTR _this$[ebp]
	mov	ecx, DWORD PTR [ecx+220]
	call	?BaseObject@GroundListElement@@QAEPAVFalconEntity@@XZ ; GroundListElement::BaseObject
	cmp	esi, eax
	jne	SHORT $LN7@BuildPOSTa
$LN6@BuildPOSTa:

; 1339 : 				{
; 1340 : 					curTargetFound = true;

	mov	BYTE PTR _curTargetFound$[ebp], 1
$LN7@BuildPOSTa:

; 1341 : 				}
; 1342 : 			}
; 1343 : 
; 1344 : 			if ( lockedTarget && lockedTarget->BaseData() == tmpElement->BaseObject() )

	mov	edx, DWORD PTR _this$[ebp]
	cmp	DWORD PTR [edx+48], 0
	je	SHORT $LN4@BuildPOSTa
	mov	eax, DWORD PTR _this$[ebp]
	mov	ecx, DWORD PTR [eax+48]
	call	?BaseData@SimObjectType@@QAEPAVFalconEntity@@XZ ; SimObjectType::BaseData
	mov	esi, eax
	mov	ecx, DWORD PTR _tmpElement$[ebp]
	call	?BaseObject@GroundListElement@@QAEPAVFalconEntity@@XZ ; GroundListElement::BaseObject
	cmp	esi, eax
	jne	SHORT $LN4@BuildPOSTa

; 1345 : 			{
; 1346 : 				if ( displayY < 0.0f )

	movss	xmm0, DWORD PTR __real@00000000
	comiss	xmm0, DWORD PTR _displayY$[ebp]
	jbe	SHORT $LN4@BuildPOSTa

; 1347 : 				{
; 1348 : 					FCC->dropTrackCmd = TRUE;

	mov	ecx, DWORD PTR _FCC$[ebp]
	mov	BYTE PTR [ecx+185], 1
$LN4@BuildPOSTa:

; 1349 : 				}
; 1350 : 			}
; 1351 : 		}

	jmp	$LN12@BuildPOSTa
$LN11@BuildPOSTa:

; 1352 : 
; 1353 :         // If choice is not NULL, we got a matching element
; 1354 : 		if ( choice )

	cmp	DWORD PTR _choice$[ebp], 0
	je	SHORT $LN2@BuildPOSTa

; 1355 : 		{
; 1356 :             POSTargets[tempIndex] = choice;

	mov	edx, DWORD PTR _tempIndex$[ebp]
	mov	eax, DWORD PTR _this$[ebp]
	mov	ecx, DWORD PTR _choice$[ebp]
	mov	DWORD PTR [eax+edx*4+188], ecx

; 1357 : 			POSTargetsWPs[tempIndex] = tempWP;

	mov	edx, DWORD PTR _tempIndex$[ebp]
	mov	eax, DWORD PTR _this$[ebp]
	mov	ecx, DWORD PTR _tempWP$[ebp]
	mov	DWORD PTR [eax+edx*4+204], ecx

; 1358 : 			tempIndex++;

	mov	edx, DWORD PTR _tempIndex$[ebp]
	add	edx, 1
	mov	DWORD PTR _tempIndex$[ebp], edx

; 1359 : 			if ( tempIndex > MAX_POS_TARGETS - 1 ) // list is full, get out...

	cmp	DWORD PTR _tempIndex$[ebp], 3
	jle	SHORT $LN2@BuildPOSTa

; 1360 : 			{
; 1361 : 				break;

	jmp	SHORT $LN14@BuildPOSTa
$LN2@BuildPOSTa:

; 1362 : 			}
; 1363 : 		}
; 1364 : 
; 1365 : 		if ( !curTargetFound ) // If the cur target no longer alive, NULL the curTarget pointer

	movzx	eax, BYTE PTR _curTargetFound$[ebp]
	test	eax, eax
	jne	SHORT $LN1@BuildPOSTa

; 1366 : 		{
; 1367 : 			curTarget = NULL;

	mov	ecx, DWORD PTR _this$[ebp]
	mov	DWORD PTR [ecx+220], 0
$LN1@BuildPOSTa:

; 1368 : 		}
; 1369 : 	}

	jmp	$LN15@BuildPOSTa
$LN14@BuildPOSTa:
$LN27@BuildPOSTa:

; 1370 : }

	pop	esi
	mov	esp, ebp
	pop	ebp
	ret	0
?BuildPOSTargets@HarmTargetingPod@@IAEXXZ ENDP		; HarmTargetingPod::BuildPOSTargets
_TEXT	ENDS
; Function compile flags: /Odtp
; File c:\users\zhitao li\documents\visual studio 2012\projects\freefalcon\sim\rwr\harmpod.cpp
_TEXT	SEGMENT
_this$ = -8						; size = 4
_i$1 = -4						; size = 4
?ClearPOSTargets@HarmTargetingPod@@IAEXXZ PROC		; HarmTargetingPod::ClearPOSTargets
; _this$ = ecx

; 1775 : {

	push	ebp
	mov	ebp, esp
	sub	esp, 8
	mov	DWORD PTR _this$[ebp], ecx

; 1776 : 	for ( int i = 0; i < MAX_POS_TARGETS; i++ )

	mov	DWORD PTR _i$1[ebp], 0
	jmp	SHORT $LN3@ClearPOSTa
$LN2@ClearPOSTa:
	mov	eax, DWORD PTR _i$1[ebp]
	add	eax, 1
	mov	DWORD PTR _i$1[ebp], eax
$LN3@ClearPOSTa:
	cmp	DWORD PTR _i$1[ebp], 4
	jge	SHORT $LN4@ClearPOSTa

; 1777 : 	{
; 1778 : 		POSTargets[i] = NULL;

	mov	ecx, DWORD PTR _i$1[ebp]
	mov	edx, DWORD PTR _this$[ebp]
	mov	DWORD PTR [edx+ecx*4+188], 0

; 1779 : 		POSTargetsWPs[i] = NULL;

	mov	eax, DWORD PTR _i$1[ebp]
	mov	ecx, DWORD PTR _this$[ebp]
	mov	DWORD PTR [ecx+eax*4+204], 0

; 1780 : 	}

	jmp	SHORT $LN2@ClearPOSTa
$LN4@ClearPOSTa:

; 1781 : }

	mov	esp, ebp
	pop	ebp
	ret	0
?ClearPOSTargets@HarmTargetingPod@@IAEXXZ ENDP		; HarmTargetingPod::ClearPOSTargets
_TEXT	ENDS
; Function compile flags: /Odtp
; File c:\users\zhitao li\documents\visual studio 2012\projects\freefalcon\sim\rwr\harmpod.cpp
_TEXT	SEGMENT
_tempColor$1 = -28					; size = 4
_horizontalSpace$ = -24					; size = 4
_verticalPos$ = -20					; size = 4
_horizontalPos$ = -16					; size = 4
_i$ = -12						; size = 4
_this$ = -8						; size = 4
_found$ = -1						; size = 1
_symbol$ = 8						; size = 4
_displayX$ = 12						; size = 4
_displayY$ = 16						; size = 4
?BoxTargetDTSB@HarmTargetingPod@@IAEXHAAM0@Z PROC	; HarmTargetingPod::BoxTargetDTSB
; _this$ = ecx

; 1720 : {

	push	ebp
	mov	ebp, esp
	sub	esp, 28					; 0000001cH
	mov	DWORD PTR _this$[ebp], ecx

; 1721 : 	float verticalPos = 1.225f; // vertical center of DTSB box

	movss	xmm0, DWORD PTR __real@3f9ccccd
	movss	DWORD PTR _verticalPos$[ebp], xmm0

; 1722 : 	float horizontalPos = -0.5f; // first slot to write into (starting from left to right) 

	movss	xmm0, DWORD PTR __real@bf000000
	movss	DWORD PTR _horizontalPos$[ebp], xmm0

; 1723 : 	float horizontalSpace = 0.2f; // space between symbols in the box 

	movss	xmm0, DWORD PTR __real@3e4ccccd
	movss	DWORD PTR _horizontalSpace$[ebp], xmm0

; 1724 : 	int i;
; 1725 : 	bool found = false;

	mov	BYTE PTR _found$[ebp], 0

; 1726 : 
; 1727 : 	// Get into list only a "worthy" symbol, SAM or search radar
; 1728 : 	if ( !IsInPriorityList ( symbol ) )

	mov	eax, DWORD PTR _symbol$[ebp]
	push	eax
	mov	ecx, DWORD PTR _this$[ebp]
	call	?IsInPriorityList@HarmTargetingPod@@IAE_NH@Z ; HarmTargetingPod::IsInPriorityList
	movzx	ecx, al
	test	ecx, ecx
	jne	SHORT $LN8@BoxTargetD

; 1729 : 	{
; 1730 : 		return;

	jmp	$LN9@BoxTargetD
$LN8@BoxTargetD:

; 1731 : 	}
; 1732 : 
; 1733 : 	// Do not draw unknown threats into DTSB
; 1734 : 	if ( symbol == RWRSYM_UNKNOWN ||
; 1735 : 		 symbol == RWRSYM_UNK1 ||
; 1736 : 		 symbol == RWRSYM_UNK2 ||
; 1737 : 		 symbol == RWRSYM_UNK3 ||
; 1738 : 		 symbol == RWRSYM_MIB_F_U ||
; 1739 : 		 symbol == RWRSYM_VS ||
; 1740 : 		 symbol == RWRSYM_MIB_F_S ||
; 1741 : 		 symbol == RWRSYM_MIB_BW_S
; 1742 : 		 )

	cmp	DWORD PTR _symbol$[ebp], 1
	je	SHORT $LN6@BoxTargetD
	cmp	DWORD PTR _symbol$[ebp], 27		; 0000001bH
	je	SHORT $LN6@BoxTargetD
	cmp	DWORD PTR _symbol$[ebp], 28		; 0000001cH
	je	SHORT $LN6@BoxTargetD
	cmp	DWORD PTR _symbol$[ebp], 29		; 0000001dH
	je	SHORT $LN6@BoxTargetD
	cmp	DWORD PTR _symbol$[ebp], 60		; 0000003cH
	je	SHORT $LN6@BoxTargetD
	cmp	DWORD PTR _symbol$[ebp], 53		; 00000035H
	je	SHORT $LN6@BoxTargetD
	cmp	DWORD PTR _symbol$[ebp], 57		; 00000039H
	je	SHORT $LN6@BoxTargetD
	cmp	DWORD PTR _symbol$[ebp], 62		; 0000003eH
	jne	SHORT $LN7@BoxTargetD
$LN6@BoxTargetD:

; 1743 : 	{
; 1744 : 		return;

	jmp	$LN9@BoxTargetD
$LN7@BoxTargetD:

; 1745 : 	}
; 1746 : 
; 1747 : 	for ( i = 0; i < 5; i++ )

	mov	DWORD PTR _i$[ebp], 0
	jmp	SHORT $LN5@BoxTargetD
$LN4@BoxTargetD:
	mov	edx, DWORD PTR _i$[ebp]
	add	edx, 1
	mov	DWORD PTR _i$[ebp], edx
$LN5@BoxTargetD:
	cmp	DWORD PTR _i$[ebp], 5
	jge	SHORT $LN3@BoxTargetD

; 1748 : 	{
; 1749 : 		if ( DTSBList[i] == symbol )

	mov	eax, DWORD PTR _i$[ebp]
	mov	ecx, DWORD PTR _this$[ebp]
	mov	edx, DWORD PTR [ecx+eax*4+124]
	cmp	edx, DWORD PTR _symbol$[ebp]
	jne	SHORT $LN2@BoxTargetD

; 1750 : 		{
; 1751 : 			found = true;

	mov	BYTE PTR _found$[ebp], 1

; 1752 : 			break;

	jmp	SHORT $LN3@BoxTargetD
$LN2@BoxTargetD:

; 1753 : 		}
; 1754 : 
; 1755 : 		horizontalPos += horizontalSpace; 

	movss	xmm0, DWORD PTR _horizontalPos$[ebp]
	addss	xmm0, DWORD PTR _horizontalSpace$[ebp]
	movss	DWORD PTR _horizontalPos$[ebp], xmm0

; 1756 : 	}

	jmp	SHORT $LN4@BoxTargetD
$LN3@BoxTargetD:

; 1757 : 
; 1758 : 	if ( found )

	movzx	eax, BYTE PTR _found$[ebp]
	test	eax, eax
	je	$LN1@BoxTargetD

; 1759 : 	{
; 1760 : 		// Adjust the display according to the correct slot position on the box
; 1761 : 		display->AdjustOriginInViewport ( -displayX + horizontalPos, -displayY + verticalPos + HTS_Y_OFFSET );

	mov	ecx, DWORD PTR _displayY$[ebp]
	movss	xmm0, DWORD PTR [ecx]
	xorps	xmm0, DWORD PTR __xmm@80000000800000008000000080000000
	addss	xmm0, DWORD PTR _verticalPos$[ebp]
	addss	xmm0, DWORD PTR __real@bf000000
	push	ecx
	movss	DWORD PTR [esp], xmm0
	mov	edx, DWORD PTR _displayX$[ebp]
	movss	xmm0, DWORD PTR [edx]
	xorps	xmm0, DWORD PTR __xmm@80000000800000008000000080000000
	addss	xmm0, DWORD PTR _horizontalPos$[ebp]
	push	ecx
	movss	DWORD PTR [esp], xmm0
	mov	eax, DWORD PTR _this$[ebp]
	mov	ecx, DWORD PTR [eax+20]
	call	?AdjustOriginInViewport@VirtualDisplay@@QAEXMM@Z ; VirtualDisplay::AdjustOriginInViewport

; 1762 : 		DWORD tempColor = display->Color();

	mov	ecx, DWORD PTR _this$[ebp]
	mov	edx, DWORD PTR [ecx+20]
	mov	eax, DWORD PTR _this$[ebp]
	mov	edx, DWORD PTR [edx]
	mov	ecx, DWORD PTR [eax+20]
	mov	eax, DWORD PTR [edx+108]
	call	eax
	mov	DWORD PTR _tempColor$1[ebp], eax

; 1763 : 		display->SetColor (GetMfdColor(MFD_WHITY_GRAY)); // "whity" gray

	push	9
	mov	ecx, DWORD PTR _this$[ebp]
	call	?GetMfdColor@DrawableClass@@QAEIW4MfdColor@@@Z ; DrawableClass::GetMfdColor
	push	eax
	mov	ecx, DWORD PTR _this$[ebp]
	mov	edx, DWORD PTR [ecx+20]
	mov	eax, DWORD PTR _this$[ebp]
	mov	edx, DWORD PTR [edx]
	mov	ecx, DWORD PTR [eax+20]
	mov	eax, DWORD PTR [edx+92]
	call	eax

; 1764 : 
; 1765 : 		DrawEmitterSymbol( symbol, 2 ); // Draw the symbol in a box

	push	2
	mov	ecx, DWORD PTR _symbol$[ebp]
	push	ecx
	mov	ecx, DWORD PTR _this$[ebp]
	call	?DrawEmitterSymbol@RwrClass@@IAEXHH@Z	; RwrClass::DrawEmitterSymbol

; 1766 : 
; 1767 : 		// Reset the display back
; 1768 : 		display->SetColor (tempColor);

	mov	edx, DWORD PTR _tempColor$1[ebp]
	push	edx
	mov	eax, DWORD PTR _this$[ebp]
	mov	ecx, DWORD PTR [eax+20]
	mov	edx, DWORD PTR _this$[ebp]
	mov	eax, DWORD PTR [ecx]
	mov	ecx, DWORD PTR [edx+20]
	mov	edx, DWORD PTR [eax+92]
	call	edx

; 1769 : 		display->AdjustOriginInViewport ( displayX - horizontalPos, +displayY - verticalPos - HTS_Y_OFFSET );

	mov	eax, DWORD PTR _displayY$[ebp]
	movss	xmm0, DWORD PTR [eax]
	subss	xmm0, DWORD PTR _verticalPos$[ebp]
	subss	xmm0, DWORD PTR __real@bf000000
	push	ecx
	movss	DWORD PTR [esp], xmm0
	mov	ecx, DWORD PTR _displayX$[ebp]
	movss	xmm0, DWORD PTR [ecx]
	subss	xmm0, DWORD PTR _horizontalPos$[ebp]
	push	ecx
	movss	DWORD PTR [esp], xmm0
	mov	edx, DWORD PTR _this$[ebp]
	mov	ecx, DWORD PTR [edx+20]
	call	?AdjustOriginInViewport@VirtualDisplay@@QAEXMM@Z ; VirtualDisplay::AdjustOriginInViewport
$LN1@BoxTargetD:
$LN9@BoxTargetD:

; 1770 : 	}
; 1771 : }

	mov	esp, ebp
	pop	ebp
	ret	12					; 0000000cH
?BoxTargetDTSB@HarmTargetingPod@@IAEXHAAM0@Z ENDP	; HarmTargetingPod::BoxTargetDTSB
_TEXT	ENDS
; Function compile flags: /Odtp
; File c:\users\zhitao li\documents\visual studio 2012\projects\freefalcon\sim\include\harmpod.h
;	COMDAT ?ClearDTSB@HarmTargetingPod@@IAEXXZ
_TEXT	SEGMENT
_this$ = -8						; size = 4
_i$1 = -4						; size = 4
?ClearDTSB@HarmTargetingPod@@IAEXXZ PROC		; HarmTargetingPod::ClearDTSB, COMDAT
; _this$ = ecx

; 146  : 	void			ClearDTSB ( void ) { for ( int i = 0; i < MAX_DTSB_TARGETS; i++ ) DTSBList[i] = 0; };

	push	ebp
	mov	ebp, esp
	sub	esp, 8
	mov	DWORD PTR _this$[ebp], ecx
	mov	DWORD PTR _i$1[ebp], 0
	jmp	SHORT $LN3@ClearDTSB
$LN2@ClearDTSB:
	mov	eax, DWORD PTR _i$1[ebp]
	add	eax, 1
	mov	DWORD PTR _i$1[ebp], eax
$LN3@ClearDTSB:
	cmp	DWORD PTR _i$1[ebp], 5
	jge	SHORT $LN4@ClearDTSB
	mov	ecx, DWORD PTR _i$1[ebp]
	mov	edx, DWORD PTR _this$[ebp]
	mov	DWORD PTR [edx+ecx*4+124], 0
	jmp	SHORT $LN2@ClearDTSB
$LN4@ClearDTSB:
	mov	esp, ebp
	pop	ebp
	ret	0
?ClearDTSB@HarmTargetingPod@@IAEXXZ ENDP		; HarmTargetingPod::ClearDTSB
_TEXT	ENDS
; Function compile flags: /Odtp
; File c:\users\zhitao li\documents\visual studio 2012\projects\freefalcon\sim\rwr\harmpod.cpp
_TEXT	SEGMENT
_tempColor$ = -24					; size = 4
_horizontalSpace$ = -20					; size = 4
_verticalPos$ = -16					; size = 4
_horizontalPos$ = -12					; size = 4
_i$ = -8						; size = 4
_this$ = -4						; size = 4
_symbol$ = 8						; size = 4
_displayX$ = 12						; size = 4
_displayY$ = 16						; size = 4
?UpdateDTSB@HarmTargetingPod@@IAEXHAAM0@Z PROC		; HarmTargetingPod::UpdateDTSB
; _this$ = ecx

; 1649 : {

	push	ebp
	mov	ebp, esp
	sub	esp, 24					; 00000018H
	mov	DWORD PTR _this$[ebp], ecx

; 1650 : 	float verticalPos = 1.225f; // vertical center of DTSB box

	movss	xmm0, DWORD PTR __real@3f9ccccd
	movss	DWORD PTR _verticalPos$[ebp], xmm0

; 1651 : 	float horizontalPos = -0.5f; // first slot to write into (starting from left to right) 

	movss	xmm0, DWORD PTR __real@bf000000
	movss	DWORD PTR _horizontalPos$[ebp], xmm0

; 1652 : 	float horizontalSpace = 0.2f; // space between symbols in the box 

	movss	xmm0, DWORD PTR __real@3e4ccccd
	movss	DWORD PTR _horizontalSpace$[ebp], xmm0

; 1653 : 	int i;
; 1654 : 
; 1655 : 	if ( zoomFactor > 1.0f ) // no DTSB in zoomed mode

	mov	eax, DWORD PTR _this$[ebp]
	movss	xmm0, DWORD PTR [eax+152]
	comiss	xmm0, DWORD PTR __real@3f800000
	jbe	SHORT $LN11@UpdateDTSB

; 1656 : 	{
; 1657 : 		return;

	jmp	$LN12@UpdateDTSB
$LN11@UpdateDTSB:

; 1658 : 	}
; 1659 : 
; 1660 : 	if ( DTSBList[MAX_DTSB_TARGETS - 1] ) // list is already full, no place for you, sorry...

	mov	ecx, 4
	shl	ecx, 2
	mov	edx, DWORD PTR _this$[ebp]
	cmp	DWORD PTR [edx+ecx+124], 0
	je	SHORT $LN10@UpdateDTSB

; 1661 : 	{
; 1662 : 		return;

	jmp	$LN12@UpdateDTSB
$LN10@UpdateDTSB:

; 1663 : 	}
; 1664 : 
; 1665 : 	// Get into list only a "worthy" symbol, SAM or search radar
; 1666 : 	if ( !IsInPriorityList ( symbol ) )

	mov	eax, DWORD PTR _symbol$[ebp]
	push	eax
	mov	ecx, DWORD PTR _this$[ebp]
	call	?IsInPriorityList@HarmTargetingPod@@IAE_NH@Z ; HarmTargetingPod::IsInPriorityList
	movzx	ecx, al
	test	ecx, ecx
	jne	SHORT $LN9@UpdateDTSB

; 1667 : 	{
; 1668 : 		return;

	jmp	$LN12@UpdateDTSB
$LN9@UpdateDTSB:

; 1669 : 	}
; 1670 : 
; 1671 : 	// Do not draw unknown threats into DTSB
; 1672 : 	if ( symbol == RWRSYM_UNKNOWN ||
; 1673 : 		 symbol == RWRSYM_UNK1 ||
; 1674 : 		 symbol == RWRSYM_UNK2 ||
; 1675 : 		 symbol == RWRSYM_UNK3 ||
; 1676 : 		 symbol == RWRSYM_MIB_F_U ||
; 1677 : 		 symbol == RWRSYM_VS ||
; 1678 : 		 symbol == RWRSYM_MIB_F_S ||
; 1679 : 		 symbol == RWRSYM_MIB_BW_S
; 1680 : 		 )

	cmp	DWORD PTR _symbol$[ebp], 1
	je	SHORT $LN7@UpdateDTSB
	cmp	DWORD PTR _symbol$[ebp], 27		; 0000001bH
	je	SHORT $LN7@UpdateDTSB
	cmp	DWORD PTR _symbol$[ebp], 28		; 0000001cH
	je	SHORT $LN7@UpdateDTSB
	cmp	DWORD PTR _symbol$[ebp], 29		; 0000001dH
	je	SHORT $LN7@UpdateDTSB
	cmp	DWORD PTR _symbol$[ebp], 60		; 0000003cH
	je	SHORT $LN7@UpdateDTSB
	cmp	DWORD PTR _symbol$[ebp], 53		; 00000035H
	je	SHORT $LN7@UpdateDTSB
	cmp	DWORD PTR _symbol$[ebp], 57		; 00000039H
	je	SHORT $LN7@UpdateDTSB
	cmp	DWORD PTR _symbol$[ebp], 62		; 0000003eH
	jne	SHORT $LN8@UpdateDTSB
$LN7@UpdateDTSB:

; 1681 : 	{
; 1682 : 		return;

	jmp	$LN12@UpdateDTSB
$LN8@UpdateDTSB:

; 1683 : 	}
; 1684 : 
; 1685 : 	// Start filling the DTSB list
; 1686 : 	// Look for first open slot
; 1687 : 	for ( i = 0; i < MAX_DTSB_TARGETS; i++ )

	mov	DWORD PTR _i$[ebp], 0
	jmp	SHORT $LN6@UpdateDTSB
$LN5@UpdateDTSB:
	mov	edx, DWORD PTR _i$[ebp]
	add	edx, 1
	mov	DWORD PTR _i$[ebp], edx
$LN6@UpdateDTSB:
	cmp	DWORD PTR _i$[ebp], 5
	jge	SHORT $LN4@UpdateDTSB

; 1688 : 	{
; 1689 : 		if ( DTSBList[i] ) // this position is already taken...

	mov	eax, DWORD PTR _i$[ebp]
	mov	ecx, DWORD PTR _this$[ebp]
	cmp	DWORD PTR [ecx+eax*4+124], 0
	je	SHORT $LN3@UpdateDTSB

; 1690 : 		{
; 1691 : 			if ( DTSBList[i] == symbol ) // symbol is already on the list... return

	mov	edx, DWORD PTR _i$[ebp]
	mov	eax, DWORD PTR _this$[ebp]
	mov	ecx, DWORD PTR [eax+edx*4+124]
	cmp	ecx, DWORD PTR _symbol$[ebp]
	jne	SHORT $LN2@UpdateDTSB

; 1692 : 			{
; 1693 : 				return;

	jmp	$LN12@UpdateDTSB
$LN2@UpdateDTSB:

; 1694 : 			}
; 1695 : 
; 1696 : 			horizontalPos += horizontalSpace; // jump one slot to the right

	movss	xmm0, DWORD PTR _horizontalPos$[ebp]
	addss	xmm0, DWORD PTR _horizontalSpace$[ebp]
	movss	DWORD PTR _horizontalPos$[ebp], xmm0

; 1697 : 			continue;

	jmp	SHORT $LN5@UpdateDTSB

; 1698 : 		}
; 1699 : 
; 1700 : 		else

	jmp	SHORT $LN1@UpdateDTSB
$LN3@UpdateDTSB:

; 1701 : 		{
; 1702 : 			break;

	jmp	SHORT $LN4@UpdateDTSB
$LN1@UpdateDTSB:

; 1703 : 		}
; 1704 : 	}

	jmp	SHORT $LN5@UpdateDTSB
$LN4@UpdateDTSB:

; 1705 : 
; 1706 : 	// Adjust the display according to the correct slot position on the box
; 1707 : 	display->AdjustOriginInViewport ( -displayX + horizontalPos, -displayY + verticalPos + HTS_Y_OFFSET );

	mov	edx, DWORD PTR _displayY$[ebp]
	movss	xmm0, DWORD PTR [edx]
	xorps	xmm0, DWORD PTR __xmm@80000000800000008000000080000000
	addss	xmm0, DWORD PTR _verticalPos$[ebp]
	addss	xmm0, DWORD PTR __real@bf000000
	push	ecx
	movss	DWORD PTR [esp], xmm0
	mov	eax, DWORD PTR _displayX$[ebp]
	movss	xmm0, DWORD PTR [eax]
	xorps	xmm0, DWORD PTR __xmm@80000000800000008000000080000000
	addss	xmm0, DWORD PTR _horizontalPos$[ebp]
	push	ecx
	movss	DWORD PTR [esp], xmm0
	mov	ecx, DWORD PTR _this$[ebp]
	mov	ecx, DWORD PTR [ecx+20]
	call	?AdjustOriginInViewport@VirtualDisplay@@QAEXMM@Z ; VirtualDisplay::AdjustOriginInViewport

; 1708 : 	DWORD tempColor = display->Color();

	mov	edx, DWORD PTR _this$[ebp]
	mov	eax, DWORD PTR [edx+20]
	mov	ecx, DWORD PTR _this$[ebp]
	mov	edx, DWORD PTR [eax]
	mov	ecx, DWORD PTR [ecx+20]
	mov	eax, DWORD PTR [edx+108]
	call	eax
	mov	DWORD PTR _tempColor$[ebp], eax

; 1709 : 	display->SetColor (GetMfdColor(MFD_WHITY_GRAY)); // "whity" gray

	push	9
	mov	ecx, DWORD PTR _this$[ebp]
	call	?GetMfdColor@DrawableClass@@QAEIW4MfdColor@@@Z ; DrawableClass::GetMfdColor
	push	eax
	mov	ecx, DWORD PTR _this$[ebp]
	mov	edx, DWORD PTR [ecx+20]
	mov	eax, DWORD PTR _this$[ebp]
	mov	edx, DWORD PTR [edx]
	mov	ecx, DWORD PTR [eax+20]
	mov	eax, DWORD PTR [edx+92]
	call	eax

; 1710 : 
; 1711 : 	DrawEmitterSymbol( symbol, 0 ); // Draw the symbol in the box

	push	0
	mov	ecx, DWORD PTR _symbol$[ebp]
	push	ecx
	mov	ecx, DWORD PTR _this$[ebp]
	call	?DrawEmitterSymbol@RwrClass@@IAEXHH@Z	; RwrClass::DrawEmitterSymbol

; 1712 : 	DTSBList[i] = symbol; // Add the symbol to the list

	mov	edx, DWORD PTR _i$[ebp]
	mov	eax, DWORD PTR _this$[ebp]
	mov	ecx, DWORD PTR _symbol$[ebp]
	mov	DWORD PTR [eax+edx*4+124], ecx

; 1713 : 
; 1714 :     // Reset the display back
; 1715 : 	display->SetColor (tempColor);

	mov	edx, DWORD PTR _tempColor$[ebp]
	push	edx
	mov	eax, DWORD PTR _this$[ebp]
	mov	ecx, DWORD PTR [eax+20]
	mov	edx, DWORD PTR _this$[ebp]
	mov	eax, DWORD PTR [ecx]
	mov	ecx, DWORD PTR [edx+20]
	mov	edx, DWORD PTR [eax+92]
	call	edx

; 1716 : 	display->AdjustOriginInViewport ( displayX - horizontalPos, +displayY - verticalPos - HTS_Y_OFFSET );

	mov	eax, DWORD PTR _displayY$[ebp]
	movss	xmm0, DWORD PTR [eax]
	subss	xmm0, DWORD PTR _verticalPos$[ebp]
	subss	xmm0, DWORD PTR __real@bf000000
	push	ecx
	movss	DWORD PTR [esp], xmm0
	mov	ecx, DWORD PTR _displayX$[ebp]
	movss	xmm0, DWORD PTR [ecx]
	subss	xmm0, DWORD PTR _horizontalPos$[ebp]
	push	ecx
	movss	DWORD PTR [esp], xmm0
	mov	edx, DWORD PTR _this$[ebp]
	mov	ecx, DWORD PTR [edx+20]
	call	?AdjustOriginInViewport@VirtualDisplay@@QAEXMM@Z ; VirtualDisplay::AdjustOriginInViewport
$LN12@UpdateDTSB:

; 1717 : }

	mov	esp, ebp
	pop	ebp
	ret	12					; 0000000cH
?UpdateDTSB@HarmTargetingPod@@IAEXHAAM0@Z ENDP		; HarmTargetingPod::UpdateDTSB
_TEXT	ENDS
; Function compile flags: /Odtp
; File c:\users\zhitao li\documents\visual studio 2012\projects\freefalcon\sim\rwr\harmpod.cpp
_TEXT	SEGMENT
_tempColor$ = -8					; size = 4
_this$ = -4						; size = 4
?DrawDTSBBox@HarmTargetingPod@@IAEXXZ PROC		; HarmTargetingPod::DrawDTSBBox
; _this$ = ecx

; 1628 : {

	push	ebp
	mov	ebp, esp
	sub	esp, 8
	mov	DWORD PTR _this$[ebp], ecx

; 1629 : 	if ( zoomFactor > 1.0f ) // No do in a zoom mode

	mov	eax, DWORD PTR _this$[ebp]
	movss	xmm0, DWORD PTR [eax+152]
	comiss	xmm0, DWORD PTR __real@3f800000
	jbe	SHORT $LN1@DrawDTSBBo

; 1630 : 	{
; 1631 : 		return;

	jmp	$LN2@DrawDTSBBo
$LN1@DrawDTSBBo:

; 1632 : 	}
; 1633 : 
; 1634 : 	DWORD tempColor = display->Color();

	mov	ecx, DWORD PTR _this$[ebp]
	mov	edx, DWORD PTR [ecx+20]
	mov	eax, DWORD PTR _this$[ebp]
	mov	edx, DWORD PTR [edx]
	mov	ecx, DWORD PTR [eax+20]
	mov	eax, DWORD PTR [edx+108]
	call	eax
	mov	DWORD PTR _tempColor$[ebp], eax

; 1635 : 
; 1636 : 	display->SetColor(GetMfdColor(MFD_BRIGHT_GREEN)); // Bright green

	push	8
	mov	ecx, DWORD PTR _this$[ebp]
	call	?GetMfdColor@DrawableClass@@QAEIW4MfdColor@@@Z ; DrawableClass::GetMfdColor
	push	eax
	mov	ecx, DWORD PTR _this$[ebp]
	mov	edx, DWORD PTR [ecx+20]
	mov	eax, DWORD PTR _this$[ebp]
	mov	edx, DWORD PTR [edx]
	mov	ecx, DWORD PTR [eax+20]
	mov	eax, DWORD PTR [edx+92]
	call	eax

; 1637 : 	static const float	DTSBSide	= 0.65f;
; 1638 : 	static const float	DTSBTop		= 1.3f;
; 1639 : 	static const float	DTSBBottom	= 1.15f;
; 1640 : 	display->Line( -DTSBSide,   DTSBTop,  DTSBSide,  DTSBTop );

	push	ecx
	movss	xmm0, DWORD PTR ?DTSBTop@?4??DrawDTSBBox@HarmTargetingPod@@IAEXXZ@4MB
	movss	DWORD PTR [esp], xmm0
	push	ecx
	movss	xmm0, DWORD PTR ?DTSBSide@?4??DrawDTSBBox@HarmTargetingPod@@IAEXXZ@4MB
	movss	DWORD PTR [esp], xmm0
	push	ecx
	movss	xmm0, DWORD PTR ?DTSBTop@?4??DrawDTSBBox@HarmTargetingPod@@IAEXXZ@4MB
	movss	DWORD PTR [esp], xmm0
	movss	xmm0, DWORD PTR ?DTSBSide@?4??DrawDTSBBox@HarmTargetingPod@@IAEXXZ@4MB
	xorps	xmm0, DWORD PTR __xmm@80000000800000008000000080000000
	push	ecx
	movss	DWORD PTR [esp], xmm0
	mov	ecx, DWORD PTR _this$[ebp]
	mov	edx, DWORD PTR [ecx+20]
	mov	eax, DWORD PTR _this$[ebp]
	mov	edx, DWORD PTR [edx]
	mov	ecx, DWORD PTR [eax+20]
	mov	eax, DWORD PTR [edx+32]
	call	eax

; 1641 : 	display->Line( -DTSBSide,   DTSBTop,  -DTSBSide,  DTSBBottom );

	push	ecx
	movss	xmm0, DWORD PTR ?DTSBBottom@?4??DrawDTSBBox@HarmTargetingPod@@IAEXXZ@4MB
	movss	DWORD PTR [esp], xmm0
	movss	xmm0, DWORD PTR ?DTSBSide@?4??DrawDTSBBox@HarmTargetingPod@@IAEXXZ@4MB
	xorps	xmm0, DWORD PTR __xmm@80000000800000008000000080000000
	push	ecx
	movss	DWORD PTR [esp], xmm0
	push	ecx
	movss	xmm0, DWORD PTR ?DTSBTop@?4??DrawDTSBBox@HarmTargetingPod@@IAEXXZ@4MB
	movss	DWORD PTR [esp], xmm0
	movss	xmm0, DWORD PTR ?DTSBSide@?4??DrawDTSBBox@HarmTargetingPod@@IAEXXZ@4MB
	xorps	xmm0, DWORD PTR __xmm@80000000800000008000000080000000
	push	ecx
	movss	DWORD PTR [esp], xmm0
	mov	ecx, DWORD PTR _this$[ebp]
	mov	edx, DWORD PTR [ecx+20]
	mov	eax, DWORD PTR _this$[ebp]
	mov	edx, DWORD PTR [edx]
	mov	ecx, DWORD PTR [eax+20]
	mov	eax, DWORD PTR [edx+32]
	call	eax

; 1642 : 	display->Line( -DTSBSide,   DTSBBottom,  DTSBSide,  DTSBBottom );

	push	ecx
	movss	xmm0, DWORD PTR ?DTSBBottom@?4??DrawDTSBBox@HarmTargetingPod@@IAEXXZ@4MB
	movss	DWORD PTR [esp], xmm0
	push	ecx
	movss	xmm0, DWORD PTR ?DTSBSide@?4??DrawDTSBBox@HarmTargetingPod@@IAEXXZ@4MB
	movss	DWORD PTR [esp], xmm0
	push	ecx
	movss	xmm0, DWORD PTR ?DTSBBottom@?4??DrawDTSBBox@HarmTargetingPod@@IAEXXZ@4MB
	movss	DWORD PTR [esp], xmm0
	movss	xmm0, DWORD PTR ?DTSBSide@?4??DrawDTSBBox@HarmTargetingPod@@IAEXXZ@4MB
	xorps	xmm0, DWORD PTR __xmm@80000000800000008000000080000000
	push	ecx
	movss	DWORD PTR [esp], xmm0
	mov	ecx, DWORD PTR _this$[ebp]
	mov	edx, DWORD PTR [ecx+20]
	mov	eax, DWORD PTR _this$[ebp]
	mov	edx, DWORD PTR [edx]
	mov	ecx, DWORD PTR [eax+20]
	mov	eax, DWORD PTR [edx+32]
	call	eax

; 1643 : 	display->Line( DTSBSide,   DTSBTop,  DTSBSide,  DTSBBottom );

	push	ecx
	movss	xmm0, DWORD PTR ?DTSBBottom@?4??DrawDTSBBox@HarmTargetingPod@@IAEXXZ@4MB
	movss	DWORD PTR [esp], xmm0
	push	ecx
	movss	xmm0, DWORD PTR ?DTSBSide@?4??DrawDTSBBox@HarmTargetingPod@@IAEXXZ@4MB
	movss	DWORD PTR [esp], xmm0
	push	ecx
	movss	xmm0, DWORD PTR ?DTSBTop@?4??DrawDTSBBox@HarmTargetingPod@@IAEXXZ@4MB
	movss	DWORD PTR [esp], xmm0
	push	ecx
	movss	xmm0, DWORD PTR ?DTSBSide@?4??DrawDTSBBox@HarmTargetingPod@@IAEXXZ@4MB
	movss	DWORD PTR [esp], xmm0
	mov	ecx, DWORD PTR _this$[ebp]
	mov	edx, DWORD PTR [ecx+20]
	mov	eax, DWORD PTR _this$[ebp]
	mov	edx, DWORD PTR [edx]
	mov	ecx, DWORD PTR [eax+20]
	mov	eax, DWORD PTR [edx+32]
	call	eax

; 1644 : 
; 1645 : 	display->SetColor(tempColor);

	mov	ecx, DWORD PTR _tempColor$[ebp]
	push	ecx
	mov	edx, DWORD PTR _this$[ebp]
	mov	eax, DWORD PTR [edx+20]
	mov	ecx, DWORD PTR _this$[ebp]
	mov	edx, DWORD PTR [eax]
	mov	ecx, DWORD PTR [ecx+20]
	mov	eax, DWORD PTR [edx+92]
	call	eax
$LN2@DrawDTSBBo:

; 1646 : }

	mov	esp, ebp
	pop	ebp
	ret	0
?DrawDTSBBox@HarmTargetingPod@@IAEXXZ ENDP		; HarmTargetingPod::DrawDTSBBox
_TEXT	ENDS
; Function compile flags: /Odtp
; File c:\users\zhitao li\documents\visual studio 2012\projects\freefalcon\sim\rwr\harmpod.cpp
_TEXT	SEGMENT
_curAngle$1 = -136					; size = 4
_scale$2 = -132						; size = 4
_footprintRatio$ = -128					; size = 4
tv525 = -124						; size = 4
tv548 = -120						; size = 4
tv571 = -116						; size = 4
_offsetY$ = -112					; size = 4
_mnRng$ = -108						; size = 4
_angleY$ = -104						; size = 4
tv584 = -100						; size = 4
_offsetX$ = -96						; size = 4
tv561 = -92						; size = 4
_angleX$ = -88						; size = 4
tv538 = -84						; size = 4
_draw$3 = -80						; size = 4
_latRng$ = -76						; size = 4
_scaleMaxRange$4 = -72					; size = 4
_stepX$ = -68						; size = 4
_stepY$ = -64						; size = 4
_scale$5 = -60						; size = 4
_cur2X$ = -56						; size = 4
_i$6 = -52						; size = 4
_i$7 = -48						; size = 4
_cur2Y$ = -44						; size = 4
_j$8 = -40						; size = 4
_mxRng$ = -36						; size = 4
_next2X$ = -32						; size = 4
_next2Y$ = -28						; size = 4
_footprintRad$ = -24					; size = 4
_nextX$ = -20						; size = 4
_curY$ = -16						; size = 4
_nextY$ = -12						; size = 4
_curX$ = -8						; size = 4
_this$ = -4						; size = 4
_theMissile$ = 8					; size = 4
?DrawWEZ@HarmTargetingPod@@IAEXPAVMissileClass@@@Z PROC	; HarmTargetingPod::DrawWEZ
; _this$ = ecx

; 715  : {

	push	ebp
	mov	ebp, esp
	sub	esp, 136				; 00000088H
	mov	DWORD PTR _this$[ebp], ecx

; 716  : 	float curX, curY, nextX, nextY, angleX, angleY, offsetX, offsetY;
; 717  : 	float cur2X, cur2Y, next2X, next2Y, stepX, stepY;
; 718  : 	
; 719  : 	// If we don't have a missile, quit now
; 720  : 	if (!theMissile ) {

	cmp	DWORD PTR _theMissile$[ebp], 0
	jne	SHORT $LN13@DrawWEZ

; 721  : 		return;

	jmp	$LN14@DrawWEZ
$LN13@DrawWEZ:

; 722  : 	}
; 723  : 
; 724  : 	display->AdjustOriginInViewport (0.0f, HTS_Y_OFFSET);

	push	ecx
	movss	xmm0, DWORD PTR __real@bf000000
	movss	DWORD PTR [esp], xmm0
	push	ecx
	movss	xmm0, DWORD PTR __real@00000000
	movss	DWORD PTR [esp], xmm0
	mov	eax, DWORD PTR _this$[ebp]
	mov	ecx, DWORD PTR [eax+20]
	call	?AdjustOriginInViewport@VirtualDisplay@@QAEXMM@Z ; VirtualDisplay::AdjustOriginInViewport

; 725  : 
; 726  : 	// This would be very nice, but would require correct data (and a missile)
; 727  : 	float mxRng  =  theMissile->GetRMax (-platform->ZPos(), platform->GetVt(),   0.0f,     0.0f, 0.0f) * FT_TO_NM;

	push	ecx
	movss	xmm0, DWORD PTR __real@00000000
	movss	DWORD PTR [esp], xmm0
	push	ecx
	movss	xmm0, DWORD PTR __real@00000000
	movss	DWORD PTR [esp], xmm0
	push	ecx
	movss	xmm0, DWORD PTR __real@00000000
	movss	DWORD PTR [esp], xmm0
	mov	ecx, DWORD PTR _this$[ebp]
	mov	edx, DWORD PTR [ecx+32]
	mov	eax, DWORD PTR _this$[ebp]
	mov	edx, DWORD PTR [edx]
	mov	ecx, DWORD PTR [eax+32]
	mov	eax, DWORD PTR [edx+220]
	call	eax
	push	ecx
	fstp	DWORD PTR [esp]
	mov	ecx, DWORD PTR _this$[ebp]
	mov	ecx, DWORD PTR [ecx+32]
	call	?ZPos@VuEntity@@QBEMXZ			; VuEntity::ZPos
	fstp	DWORD PTR tv525[ebp]
	movss	xmm0, DWORD PTR tv525[ebp]
	xorps	xmm0, DWORD PTR __xmm@80000000800000008000000080000000
	push	ecx
	movss	DWORD PTR [esp], xmm0
	mov	ecx, DWORD PTR _theMissile$[ebp]
	call	?GetRMax@MissileClass@@QAEMMMMMM@Z	; MissileClass::GetRMax
	fstp	DWORD PTR tv538[ebp]
	movss	xmm0, DWORD PTR tv538[ebp]
	mulss	xmm0, DWORD PTR __real@392c987a
	movss	DWORD PTR _mxRng$[ebp], xmm0

; 728  : 	float mnRng  = -theMissile->GetRMax (-platform->ZPos(), platform->GetVt(), 180.0f*DTR, 0.0f, 180.0f*DTR) * FT_TO_NM;

	push	ecx
	movss	xmm0, DWORD PTR __real@40490fd9
	movss	DWORD PTR [esp], xmm0
	push	ecx
	movss	xmm0, DWORD PTR __real@00000000
	movss	DWORD PTR [esp], xmm0
	push	ecx
	movss	xmm0, DWORD PTR __real@40490fd9
	movss	DWORD PTR [esp], xmm0
	mov	edx, DWORD PTR _this$[ebp]
	mov	eax, DWORD PTR [edx+32]
	mov	ecx, DWORD PTR _this$[ebp]
	mov	edx, DWORD PTR [eax]
	mov	ecx, DWORD PTR [ecx+32]
	mov	eax, DWORD PTR [edx+220]
	call	eax
	push	ecx
	fstp	DWORD PTR [esp]
	mov	ecx, DWORD PTR _this$[ebp]
	mov	ecx, DWORD PTR [ecx+32]
	call	?ZPos@VuEntity@@QBEMXZ			; VuEntity::ZPos
	fstp	DWORD PTR tv548[ebp]
	movss	xmm0, DWORD PTR tv548[ebp]
	xorps	xmm0, DWORD PTR __xmm@80000000800000008000000080000000
	push	ecx
	movss	DWORD PTR [esp], xmm0
	mov	ecx, DWORD PTR _theMissile$[ebp]
	call	?GetRMax@MissileClass@@QAEMMMMMM@Z	; MissileClass::GetRMax
	fstp	DWORD PTR tv561[ebp]
	movss	xmm0, DWORD PTR tv561[ebp]
	xorps	xmm0, DWORD PTR __xmm@80000000800000008000000080000000
	mulss	xmm0, DWORD PTR __real@392c987a
	movss	DWORD PTR _mnRng$[ebp], xmm0

; 729  : 	float latRng =  theMissile->GetRMax (-platform->ZPos(), platform->GetVt(),  90.0f*DTR, 0.0f,  90.0f*DTR) * FT_TO_NM;

	push	ecx
	movss	xmm0, DWORD PTR __real@3fc90fd9
	movss	DWORD PTR [esp], xmm0
	push	ecx
	movss	xmm0, DWORD PTR __real@00000000
	movss	DWORD PTR [esp], xmm0
	push	ecx
	movss	xmm0, DWORD PTR __real@3fc90fd9
	movss	DWORD PTR [esp], xmm0
	mov	edx, DWORD PTR _this$[ebp]
	mov	eax, DWORD PTR [edx+32]
	mov	ecx, DWORD PTR _this$[ebp]
	mov	edx, DWORD PTR [eax]
	mov	ecx, DWORD PTR [ecx+32]
	mov	eax, DWORD PTR [edx+220]
	call	eax
	push	ecx
	fstp	DWORD PTR [esp]
	mov	ecx, DWORD PTR _this$[ebp]
	mov	ecx, DWORD PTR [ecx+32]
	call	?ZPos@VuEntity@@QBEMXZ			; VuEntity::ZPos
	fstp	DWORD PTR tv571[ebp]
	movss	xmm0, DWORD PTR tv571[ebp]
	xorps	xmm0, DWORD PTR __xmm@80000000800000008000000080000000
	push	ecx
	movss	DWORD PTR [esp], xmm0
	mov	ecx, DWORD PTR _theMissile$[ebp]
	call	?GetRMax@MissileClass@@QAEMMMMMM@Z	; MissileClass::GetRMax
	fstp	DWORD PTR tv584[ebp]
	movss	xmm0, DWORD PTR tv584[ebp]
	mulss	xmm0, DWORD PTR __real@392c987a
	movss	DWORD PTR _latRng$[ebp], xmm0

; 730  : 	float footprintRatio = 2.0f * latRng/(mxRng - mnRng);

	movss	xmm0, DWORD PTR __real@40000000
	mulss	xmm0, DWORD PTR _latRng$[ebp]
	movss	xmm1, DWORD PTR _mxRng$[ebp]
	subss	xmm1, DWORD PTR _mnRng$[ebp]
	divss	xmm0, xmm1
	movss	DWORD PTR _footprintRatio$[ebp], xmm0

; 731  : 
; 732  : 	// Shrink the displayed WEZ a little to represent a good launch zone instead of strictly Rmax
; 733  : 	//mnRng *= 0.8f;
; 734  : 
; 735  : 	// RV - I-Hawk - Make it a little bigger... it's too small
; 736  : 	mxRng *= 1.15f;

	movss	xmm0, DWORD PTR _mxRng$[ebp]
	mulss	xmm0, DWORD PTR __real@3f933333
	movss	DWORD PTR _mxRng$[ebp], xmm0

; 737  : 
; 738  : 	//	float footprintCtr =  (mxRng * ( 1.8f ))  / (2.0f * displayRange) ;
; 739  : 	float footprintRad = mxRng  / displayRange;

	mov	edx, DWORD PTR _this$[ebp]
	cvtsi2ss xmm0, DWORD PTR [edx+116]
	movss	xmm1, DWORD PTR _mxRng$[ebp]
	divss	xmm1, xmm0
	movss	DWORD PTR _footprintRad$[ebp], xmm1

; 740  : 
; 741  : 	// RV - I-Hawk - White color
; 742  : 	display->SetColor( GetMfdColor(MFD_WHITY_GRAY) ); // MFD_WHITE

	push	9
	mov	ecx, DWORD PTR _this$[ebp]
	call	?GetMfdColor@DrawableClass@@QAEIW4MfdColor@@@Z ; DrawableClass::GetMfdColor
	push	eax
	mov	eax, DWORD PTR _this$[ebp]
	mov	ecx, DWORD PTR [eax+20]
	mov	edx, DWORD PTR _this$[ebp]
	mov	eax, DWORD PTR [ecx]
	mov	ecx, DWORD PTR [edx+20]
	mov	edx, DWORD PTR [eax+92]
	call	edx

; 743  : 
; 744  : 	// RV - I-Hawk - Changing the way the WEZ is draw. No more circles or arcs but interpolated
; 745  : 	// curves of a circle, but with offsets at some point...
; 746  : 	// If the WEZ is too big for the current display scale, draw at MFD edges and use dashes
; 747  : 	if (footprintRad > 0.7f) 

	movss	xmm0, DWORD PTR _footprintRad$[ebp]
	comiss	xmm0, DWORD PTR __real@3f333333
	jbe	$LN12@DrawWEZ

; 748  : 	{
; 749  : 		footprintRad = 0.75f;

	movss	xmm0, DWORD PTR __real@3f400000
	movss	DWORD PTR _footprintRad$[ebp], xmm0

; 750  : 		display->SetColor( GetMfdColor(MFD_YELLOW) ); // MFD_WHITE

	push	3
	mov	ecx, DWORD PTR _this$[ebp]
	call	?GetMfdColor@DrawableClass@@QAEIW4MfdColor@@@Z ; DrawableClass::GetMfdColor
	push	eax
	mov	eax, DWORD PTR _this$[ebp]
	mov	ecx, DWORD PTR [eax+20]
	mov	edx, DWORD PTR _this$[ebp]
	mov	eax, DWORD PTR [ecx]
	mov	ecx, DWORD PTR [edx+20]
	mov	edx, DWORD PTR [eax+92]
	call	edx

; 751  : 
; 752  : 		float scale = (float)(displayRange / 60);

	mov	eax, DWORD PTR _this$[ebp]
	mov	eax, DWORD PTR [eax+116]
	cdq
	mov	ecx, 60					; 0000003cH
	idiv	ecx
	cvtsi2ss xmm0, eax
	movss	DWORD PTR _scale$2[ebp], xmm0

; 753  : 
; 754  : 		curX = 0.0f;

	movss	xmm0, DWORD PTR __real@00000000
	movss	DWORD PTR _curX$[ebp], xmm0

; 755  : 		curY = 0.0f;

	movss	xmm0, DWORD PTR __real@00000000
	movss	DWORD PTR _curY$[ebp], xmm0

; 756  : 		nextX = 0.0625f;

	movss	xmm0, DWORD PTR __real@3d800000
	movss	DWORD PTR _nextX$[ebp], xmm0

; 757  : 		nextY = -0.0625f;

	movss	xmm0, DWORD PTR __real@bd800000
	movss	DWORD PTR _nextY$[ebp], xmm0

; 758  : 		display->Line ( curX, curY, nextX, nextY );

	push	ecx
	movss	xmm0, DWORD PTR _nextY$[ebp]
	movss	DWORD PTR [esp], xmm0
	push	ecx
	movss	xmm0, DWORD PTR _nextX$[ebp]
	movss	DWORD PTR [esp], xmm0
	push	ecx
	movss	xmm0, DWORD PTR _curY$[ebp]
	movss	DWORD PTR [esp], xmm0
	push	ecx
	movss	xmm0, DWORD PTR _curX$[ebp]
	movss	DWORD PTR [esp], xmm0
	mov	edx, DWORD PTR _this$[ebp]
	mov	eax, DWORD PTR [edx+20]
	mov	ecx, DWORD PTR _this$[ebp]
	mov	edx, DWORD PTR [eax]
	mov	ecx, DWORD PTR [ecx+20]
	mov	eax, DWORD PTR [edx+32]
	call	eax

; 759  : 		display->Line ( curX, curY, -nextX, nextY );

	push	ecx
	movss	xmm0, DWORD PTR _nextY$[ebp]
	movss	DWORD PTR [esp], xmm0
	movss	xmm0, DWORD PTR _nextX$[ebp]
	xorps	xmm0, DWORD PTR __xmm@80000000800000008000000080000000
	push	ecx
	movss	DWORD PTR [esp], xmm0
	push	ecx
	movss	xmm0, DWORD PTR _curY$[ebp]
	movss	DWORD PTR [esp], xmm0
	push	ecx
	movss	xmm0, DWORD PTR _curX$[ebp]
	movss	DWORD PTR [esp], xmm0
	mov	ecx, DWORD PTR _this$[ebp]
	mov	edx, DWORD PTR [ecx+20]
	mov	eax, DWORD PTR _this$[ebp]
	mov	edx, DWORD PTR [edx]
	mov	ecx, DWORD PTR [eax+20]
	mov	eax, DWORD PTR [edx+32]
	call	eax

; 760  : 
; 761  : 		for ( int i = 0; i < 8; i++ )

	mov	DWORD PTR _i$7[ebp], 0
	jmp	SHORT $LN11@DrawWEZ
$LN10@DrawWEZ:
	mov	ecx, DWORD PTR _i$7[ebp]
	add	ecx, 1
	mov	DWORD PTR _i$7[ebp], ecx
$LN11@DrawWEZ:
	cmp	DWORD PTR _i$7[ebp], 8
	jge	$LN9@DrawWEZ

; 762  : 		{
; 763  : 			// get some preset values, as this footprint is constant
; 764  : 			GetCurWezValue( i, curX, curY, nextX, nextY );  

	lea	edx, DWORD PTR _nextY$[ebp]
	push	edx
	lea	eax, DWORD PTR _nextX$[ebp]
	push	eax
	lea	ecx, DWORD PTR _curY$[ebp]
	push	ecx
	lea	edx, DWORD PTR _curX$[ebp]
	push	edx
	mov	eax, DWORD PTR _i$7[ebp]
	push	eax
	call	?GetCurWezValue@@YAXHAAM000@Z		; GetCurWezValue
	add	esp, 20					; 00000014H

; 765  : 
; 766  : 			// Cutting the line into 4 pieces, to make it look dashed...
; 767  : 			stepX = (nextX - curX) / 4.0f;

	movss	xmm0, DWORD PTR _nextX$[ebp]
	subss	xmm0, DWORD PTR _curX$[ebp]
	divss	xmm0, DWORD PTR __real@40800000
	movss	DWORD PTR _stepX$[ebp], xmm0

; 768  : 			stepY = (nextY - curY) / 4.0f;

	movss	xmm0, DWORD PTR _nextY$[ebp]
	subss	xmm0, DWORD PTR _curY$[ebp]
	divss	xmm0, DWORD PTR __real@40800000
	movss	DWORD PTR _stepY$[ebp], xmm0

; 769  : 			cur2X = curX;

	movss	xmm0, DWORD PTR _curX$[ebp]
	movss	DWORD PTR _cur2X$[ebp], xmm0

; 770  : 			cur2Y = curY;

	movss	xmm0, DWORD PTR _curY$[ebp]
	movss	DWORD PTR _cur2Y$[ebp], xmm0

; 771  : 			next2X = cur2X + stepX;

	movss	xmm0, DWORD PTR _cur2X$[ebp]
	addss	xmm0, DWORD PTR _stepX$[ebp]
	movss	DWORD PTR _next2X$[ebp], xmm0

; 772  : 			next2Y = cur2Y + stepY;

	movss	xmm0, DWORD PTR _cur2Y$[ebp]
	addss	xmm0, DWORD PTR _stepY$[ebp]
	movss	DWORD PTR _next2Y$[ebp], xmm0

; 773  : 
; 774  : 			for ( int j = 0; j < 4; j++ )

	mov	DWORD PTR _j$8[ebp], 0
	jmp	SHORT $LN8@DrawWEZ
$LN7@DrawWEZ:
	mov	ecx, DWORD PTR _j$8[ebp]
	add	ecx, 1
	mov	DWORD PTR _j$8[ebp], ecx
$LN8@DrawWEZ:
	cmp	DWORD PTR _j$8[ebp], 4
	jge	$LN6@DrawWEZ

; 775  : 			{
; 776  : 				int draw = j & 1;  

	mov	edx, DWORD PTR _j$8[ebp]
	and	edx, 1
	mov	DWORD PTR _draw$3[ebp], edx

; 777  : 
; 778  : 				if ( draw )

	je	$LN5@DrawWEZ

; 779  : 				{
; 780  : 					display->Line( cur2X, cur2Y, next2X, next2Y );

	push	ecx
	movss	xmm0, DWORD PTR _next2Y$[ebp]
	movss	DWORD PTR [esp], xmm0
	push	ecx
	movss	xmm0, DWORD PTR _next2X$[ebp]
	movss	DWORD PTR [esp], xmm0
	push	ecx
	movss	xmm0, DWORD PTR _cur2Y$[ebp]
	movss	DWORD PTR [esp], xmm0
	push	ecx
	movss	xmm0, DWORD PTR _cur2X$[ebp]
	movss	DWORD PTR [esp], xmm0
	mov	eax, DWORD PTR _this$[ebp]
	mov	ecx, DWORD PTR [eax+20]
	mov	edx, DWORD PTR _this$[ebp]
	mov	eax, DWORD PTR [ecx]
	mov	ecx, DWORD PTR [edx+20]
	mov	edx, DWORD PTR [eax+32]
	call	edx

; 781  : 					display->Line( -cur2X, cur2Y, -next2X, next2Y );

	push	ecx
	movss	xmm0, DWORD PTR _next2Y$[ebp]
	movss	DWORD PTR [esp], xmm0
	movss	xmm0, DWORD PTR _next2X$[ebp]
	xorps	xmm0, DWORD PTR __xmm@80000000800000008000000080000000
	push	ecx
	movss	DWORD PTR [esp], xmm0
	push	ecx
	movss	xmm0, DWORD PTR _cur2Y$[ebp]
	movss	DWORD PTR [esp], xmm0
	movss	xmm0, DWORD PTR _cur2X$[ebp]
	xorps	xmm0, DWORD PTR __xmm@80000000800000008000000080000000
	push	ecx
	movss	DWORD PTR [esp], xmm0
	mov	eax, DWORD PTR _this$[ebp]
	mov	ecx, DWORD PTR [eax+20]
	mov	edx, DWORD PTR _this$[ebp]
	mov	eax, DWORD PTR [ecx]
	mov	ecx, DWORD PTR [edx+20]
	mov	edx, DWORD PTR [eax+32]
	call	edx
$LN5@DrawWEZ:

; 782  : 				}
; 783  : 
; 784  : 				cur2X = next2X;

	movss	xmm0, DWORD PTR _next2X$[ebp]
	movss	DWORD PTR _cur2X$[ebp], xmm0

; 785  : 				cur2Y = next2Y;

	movss	xmm0, DWORD PTR _next2Y$[ebp]
	movss	DWORD PTR _cur2Y$[ebp], xmm0

; 786  : 				next2X += stepX;

	movss	xmm0, DWORD PTR _next2X$[ebp]
	addss	xmm0, DWORD PTR _stepX$[ebp]
	movss	DWORD PTR _next2X$[ebp], xmm0

; 787  : 				next2Y += stepY;

	movss	xmm0, DWORD PTR _next2Y$[ebp]
	addss	xmm0, DWORD PTR _stepY$[ebp]
	movss	DWORD PTR _next2Y$[ebp], xmm0

; 788  : 			}

	jmp	$LN7@DrawWEZ
$LN6@DrawWEZ:

; 789  : 		}

	jmp	$LN10@DrawWEZ
$LN9@DrawWEZ:

; 790  : 	}
; 791  : 	else

	jmp	$LN1@DrawWEZ
$LN12@DrawWEZ:

; 792  : 	{
; 793  : 		//display->Circle (  0.0f, footprintCtr, /*footprintRatio*footprintRad,*/ footprintRad);
; 794  : 
; 795  : 		// Some scaling values... 
; 796  : 		float scaleMaxRange = mxRng / 25.5f; // Scale for missiles range compared to AGM-88 as a reference

	movss	xmm0, DWORD PTR _mxRng$[ebp]
	divss	xmm0, DWORD PTR __real@41cc0000
	movss	DWORD PTR _scaleMaxRange$4[ebp], xmm0

; 797  : 		float scale = (float)((float)displayRange / 60.0f); // Scale for display range compared to 60NM

	mov	eax, DWORD PTR _this$[ebp]
	cvtsi2ss xmm0, DWORD PTR [eax+116]
	divss	xmm0, DWORD PTR __real@42700000
	movss	DWORD PTR _scale$5[ebp], xmm0

; 798  : 
; 799  : 		curX = 0.0f;

	movss	xmm0, DWORD PTR __real@00000000
	movss	DWORD PTR _curX$[ebp], xmm0

; 800  : 		curY = 0.0f;

	movss	xmm0, DWORD PTR __real@00000000
	movss	DWORD PTR _curY$[ebp], xmm0

; 801  : 		nextX = (footprintRad / 8.0f);

	movss	xmm0, DWORD PTR _footprintRad$[ebp]
	divss	xmm0, DWORD PTR __real@41000000
	movss	DWORD PTR _nextX$[ebp], xmm0

; 802  : 		nextY = -(footprintRad / 8.0f);

	movss	xmm0, DWORD PTR _footprintRad$[ebp]
	divss	xmm0, DWORD PTR __real@41000000
	xorps	xmm0, DWORD PTR __xmm@80000000800000008000000080000000
	movss	DWORD PTR _nextY$[ebp], xmm0

; 803  : 		display->Line ( curX, curY, nextX, nextY );

	push	ecx
	movss	xmm0, DWORD PTR _nextY$[ebp]
	movss	DWORD PTR [esp], xmm0
	push	ecx
	movss	xmm0, DWORD PTR _nextX$[ebp]
	movss	DWORD PTR [esp], xmm0
	push	ecx
	movss	xmm0, DWORD PTR _curY$[ebp]
	movss	DWORD PTR [esp], xmm0
	push	ecx
	movss	xmm0, DWORD PTR _curX$[ebp]
	movss	DWORD PTR [esp], xmm0
	mov	ecx, DWORD PTR _this$[ebp]
	mov	edx, DWORD PTR [ecx+20]
	mov	eax, DWORD PTR _this$[ebp]
	mov	edx, DWORD PTR [edx]
	mov	ecx, DWORD PTR [eax+20]
	mov	eax, DWORD PTR [edx+32]
	call	eax

; 804  : 		display->Line ( curX, curY, -nextX, nextY );

	push	ecx
	movss	xmm0, DWORD PTR _nextY$[ebp]
	movss	DWORD PTR [esp], xmm0
	movss	xmm0, DWORD PTR _nextX$[ebp]
	xorps	xmm0, DWORD PTR __xmm@80000000800000008000000080000000
	push	ecx
	movss	DWORD PTR [esp], xmm0
	push	ecx
	movss	xmm0, DWORD PTR _curY$[ebp]
	movss	DWORD PTR [esp], xmm0
	push	ecx
	movss	xmm0, DWORD PTR _curX$[ebp]
	movss	DWORD PTR [esp], xmm0
	mov	ecx, DWORD PTR _this$[ebp]
	mov	edx, DWORD PTR [ecx+20]
	mov	eax, DWORD PTR _this$[ebp]
	mov	edx, DWORD PTR [edx]
	mov	ecx, DWORD PTR [eax+20]
	mov	eax, DWORD PTR [edx+32]
	call	eax

; 805  : 		curX = nextX;

	movss	xmm0, DWORD PTR _nextX$[ebp]
	movss	DWORD PTR _curX$[ebp], xmm0

; 806  : 		curY = nextY;

	movss	xmm0, DWORD PTR _nextY$[ebp]
	movss	DWORD PTR _curY$[ebp], xmm0

; 807  : 
; 808  : 		float curAngle = 275.0f * DTR;

	movss	xmm0, DWORD PTR __real@409996c6
	movss	DWORD PTR _curAngle$1[ebp], xmm0

; 809  : 
; 810  : 		for ( int i = 0; i < 8; i++ )

	mov	DWORD PTR _i$6[ebp], 0
	jmp	SHORT $LN3@DrawWEZ
$LN2@DrawWEZ:
	mov	ecx, DWORD PTR _i$6[ebp]
	add	ecx, 1
	mov	DWORD PTR _i$6[ebp], ecx
$LN3@DrawWEZ:
	cmp	DWORD PTR _i$6[ebp], 8
	jge	$LN1@DrawWEZ

; 811  : 		{
; 812  : 			// Get preset trig values (already calculated by hand in such function), as the angles are always the same
; 813  : 			GetCurWezAngle( i, angleX, angleY, offsetX, offsetY );

	lea	edx, DWORD PTR _offsetY$[ebp]
	push	edx
	lea	eax, DWORD PTR _offsetX$[ebp]
	push	eax
	lea	ecx, DWORD PTR _angleY$[ebp]
	push	ecx
	lea	edx, DWORD PTR _angleX$[ebp]
	push	edx
	mov	eax, DWORD PTR _i$6[ebp]
	push	eax
	call	?GetCurWezAngle@@YAXHAAM000@Z		; GetCurWezAngle
	add	esp, 20					; 00000014H

; 814  : 			nextX = footprintRad * angleX + offsetX / scale * scaleMaxRange ; 

	movss	xmm0, DWORD PTR _footprintRad$[ebp]
	mulss	xmm0, DWORD PTR _angleX$[ebp]
	movss	xmm1, DWORD PTR _offsetX$[ebp]
	divss	xmm1, DWORD PTR _scale$5[ebp]
	mulss	xmm1, DWORD PTR _scaleMaxRange$4[ebp]
	addss	xmm0, xmm1
	movss	DWORD PTR _nextX$[ebp], xmm0

; 815  : 			nextY = scaleMaxRange * ( footprintRad * angleY + offsetY / scale - (HTS_Y_OFFSET / 1.25f / scale) );

	movss	xmm0, DWORD PTR _footprintRad$[ebp]
	mulss	xmm0, DWORD PTR _angleY$[ebp]
	movss	xmm1, DWORD PTR _offsetY$[ebp]
	divss	xmm1, DWORD PTR _scale$5[ebp]
	addss	xmm0, xmm1
	movss	xmm1, DWORD PTR __real@becccccd
	divss	xmm1, DWORD PTR _scale$5[ebp]
	subss	xmm0, xmm1
	mulss	xmm0, DWORD PTR _scaleMaxRange$4[ebp]
	movss	DWORD PTR _nextY$[ebp], xmm0

; 816  : 
; 817  : 			display->Line ( curX, curY, nextX, nextY );

	push	ecx
	movss	xmm0, DWORD PTR _nextY$[ebp]
	movss	DWORD PTR [esp], xmm0
	push	ecx
	movss	xmm0, DWORD PTR _nextX$[ebp]
	movss	DWORD PTR [esp], xmm0
	push	ecx
	movss	xmm0, DWORD PTR _curY$[ebp]
	movss	DWORD PTR [esp], xmm0
	push	ecx
	movss	xmm0, DWORD PTR _curX$[ebp]
	movss	DWORD PTR [esp], xmm0
	mov	ecx, DWORD PTR _this$[ebp]
	mov	edx, DWORD PTR [ecx+20]
	mov	eax, DWORD PTR _this$[ebp]
	mov	edx, DWORD PTR [edx]
	mov	ecx, DWORD PTR [eax+20]
	mov	eax, DWORD PTR [edx+32]
	call	eax

; 818  : 			display->Line ( -curX, curY, -nextX, nextY );

	push	ecx
	movss	xmm0, DWORD PTR _nextY$[ebp]
	movss	DWORD PTR [esp], xmm0
	movss	xmm0, DWORD PTR _nextX$[ebp]
	xorps	xmm0, DWORD PTR __xmm@80000000800000008000000080000000
	push	ecx
	movss	DWORD PTR [esp], xmm0
	push	ecx
	movss	xmm0, DWORD PTR _curY$[ebp]
	movss	DWORD PTR [esp], xmm0
	movss	xmm0, DWORD PTR _curX$[ebp]
	xorps	xmm0, DWORD PTR __xmm@80000000800000008000000080000000
	push	ecx
	movss	DWORD PTR [esp], xmm0
	mov	ecx, DWORD PTR _this$[ebp]
	mov	edx, DWORD PTR [ecx+20]
	mov	eax, DWORD PTR _this$[ebp]
	mov	edx, DWORD PTR [edx]
	mov	ecx, DWORD PTR [eax+20]
	mov	eax, DWORD PTR [edx+32]
	call	eax

; 819  : 			curX = nextX;

	movss	xmm0, DWORD PTR _nextX$[ebp]
	movss	DWORD PTR _curX$[ebp], xmm0

; 820  : 			curY = nextY;

	movss	xmm0, DWORD PTR _nextY$[ebp]
	movss	DWORD PTR _curY$[ebp], xmm0

; 821  : 		}

	jmp	$LN2@DrawWEZ
$LN1@DrawWEZ:

; 822  : 	}
; 823  : 
; 824  : 	// Restore the default full intensity green color
; 825  : 	display->SetColor( 0xFF00FF00 );

	push	-16711936				; ff00ff00H
	mov	ecx, DWORD PTR _this$[ebp]
	mov	edx, DWORD PTR [ecx+20]
	mov	eax, DWORD PTR _this$[ebp]
	mov	edx, DWORD PTR [edx]
	mov	ecx, DWORD PTR [eax+20]
	mov	eax, DWORD PTR [edx+92]
	call	eax

; 826  : 	display->AdjustOriginInViewport (0.0f, -HTS_Y_OFFSET);

	push	ecx
	movss	xmm0, DWORD PTR __real@3f000000
	movss	DWORD PTR [esp], xmm0
	push	ecx
	movss	xmm0, DWORD PTR __real@00000000
	movss	DWORD PTR [esp], xmm0
	mov	ecx, DWORD PTR _this$[ebp]
	mov	ecx, DWORD PTR [ecx+20]
	call	?AdjustOriginInViewport@VirtualDisplay@@QAEXMM@Z ; VirtualDisplay::AdjustOriginInViewport
$LN14@DrawWEZ:

; 827  : }

	mov	esp, ebp
	pop	ebp
	ret	4
?DrawWEZ@HarmTargetingPod@@IAEXPAVMissileClass@@@Z ENDP	; HarmTargetingPod::DrawWEZ
_TEXT	ENDS
; Function compile flags: /Odtp
; File c:\users\zhitao li\documents\visual studio 2012\projects\freefalcon\sim\rwr\harmpod.cpp
_TEXT	SEGMENT
_this$ = -8						; size = 4
_obj$ = -4						; size = 4
_choice$ = 8						; size = 4
?LockListElement@HarmTargetingPod@@IAEXPAVGroundListElement@@@Z PROC ; HarmTargetingPod::LockListElement
; _this$ = ecx

; 1492 : {

	push	ebp
	mov	ebp, esp
	sub	esp, 8
	push	esi
	mov	DWORD PTR _this$[ebp], ecx

; 1493 : 	SimObjectType	*obj;
; 1494 : 
; 1495 : 	// If we have a candidate, look for it in the platform's target list
; 1496 : 	if (choice)

	cmp	DWORD PTR _choice$[ebp], 0
	je	SHORT $LN7@LockListEl

; 1497 : 	{
; 1498 : 		for (obj = platform->targetList; obj; obj = obj->next)

	mov	eax, DWORD PTR _this$[ebp]
	mov	ecx, DWORD PTR [eax+32]
	mov	edx, DWORD PTR [ecx+660]
	mov	DWORD PTR _obj$[ebp], edx
	jmp	SHORT $LN5@LockListEl
$LN4@LockListEl:
	mov	eax, DWORD PTR _obj$[ebp]
	mov	ecx, DWORD PTR [eax+16]
	mov	DWORD PTR _obj$[ebp], ecx
$LN5@LockListEl:
	cmp	DWORD PTR _obj$[ebp], 0
	je	SHORT $LN3@LockListEl

; 1499 : 		{
; 1500 : 			if (obj->BaseData() == choice->BaseObject())

	mov	ecx, DWORD PTR _obj$[ebp]
	call	?BaseData@SimObjectType@@QAEPAVFalconEntity@@XZ ; SimObjectType::BaseData
	mov	esi, eax
	mov	ecx, DWORD PTR _choice$[ebp]
	call	?BaseObject@GroundListElement@@QAEPAVFalconEntity@@XZ ; GroundListElement::BaseObject
	cmp	esi, eax
	jne	SHORT $LN2@LockListEl

; 1501 : 			{
; 1502 : 				// We found a match!
; 1503 : 				SetSensorTarget( obj );

	mov	edx, DWORD PTR _obj$[ebp]
	push	edx
	mov	eax, DWORD PTR _this$[ebp]
	mov	edx, DWORD PTR [eax]
	mov	ecx, DWORD PTR _this$[ebp]
	mov	eax, DWORD PTR [edx+64]
	call	eax

; 1504 : 				break;

	jmp	SHORT $LN3@LockListEl
$LN2@LockListEl:

; 1505 : 			}
; 1506 : 		}

	jmp	SHORT $LN4@LockListEl
$LN3@LockListEl:

; 1507 : 
; 1508 : 		// If we didn't find it in the target list, force the issue anyway...
; 1509 : 		if (!obj)

	cmp	DWORD PTR _obj$[ebp], 0
	jne	SHORT $LN7@LockListEl

; 1510 : 		{
; 1511 : 			SetSensorTargetHack( choice->BaseObject() );

	mov	ecx, DWORD PTR _choice$[ebp]
	call	?BaseObject@GroundListElement@@QAEPAVFalconEntity@@XZ ; GroundListElement::BaseObject
	push	eax
	mov	ecx, DWORD PTR _this$[ebp]
	mov	edx, DWORD PTR [ecx]
	mov	ecx, DWORD PTR _this$[ebp]
	mov	eax, DWORD PTR [edx+68]
	call	eax
$LN7@LockListEl:

; 1512 : 		}
; 1513 : 	}
; 1514 : }

	pop	esi
	mov	esp, ebp
	pop	ebp
	ret	4
?LockListElement@HarmTargetingPod@@IAEXPAVGroundListElement@@@Z ENDP ; HarmTargetingPod::LockListElement
_TEXT	ENDS
; Function compile flags: /Odtp
; File c:\users\zhitao li\documents\visual studio 2012\projects\freefalcon\sim\rwr\harmpod.cpp
_TEXT	SEGMENT
_FCC$ = -12						; size = 4
_this$ = -8						; size = 4
_tmpElement$ = -4					; size = 4
_entity$ = 8						; size = 4
?FindEmmitter@HarmTargetingPod@@IAEPAVGroundListElement@@PAVFalconEntity@@@Z PROC ; HarmTargetingPod::FindEmmitter
; _this$ = ecx

; 1421 : {

	push	ebp
	mov	ebp, esp
	sub	esp, 12					; 0000000cH
	mov	DWORD PTR _this$[ebp], ecx

; 1422 : 	FireControlComputer* FCC = ((SimVehicleClass*)platform)->GetFCC();

	mov	eax, DWORD PTR _this$[ebp]
	mov	ecx, DWORD PTR [eax+32]
	mov	edx, DWORD PTR _this$[ebp]
	mov	eax, DWORD PTR [ecx]
	mov	ecx, DWORD PTR [edx+32]
	mov	edx, DWORD PTR [eax+460]
	call	edx
	mov	DWORD PTR _FCC$[ebp], eax

; 1423 : 	GroundListElement* tmpElement = FCC->GetFirstGroundElement();

	mov	ecx, DWORD PTR _FCC$[ebp]
	call	?GetFirstGroundElement@FireControlComputer@@QAEPAVGroundListElement@@XZ ; FireControlComputer::GetFirstGroundElement
	mov	DWORD PTR _tmpElement$[ebp], eax
$LN3@FindEmmitt:

; 1424 : 	
; 1425 : 	while (tmpElement)

	cmp	DWORD PTR _tmpElement$[ebp], 0
	je	SHORT $LN2@FindEmmitt

; 1426 : 	{
; 1427 : 		if (tmpElement->BaseObject() == entity) { break; }

	mov	ecx, DWORD PTR _tmpElement$[ebp]
	call	?BaseObject@GroundListElement@@QAEPAVFalconEntity@@XZ ; GroundListElement::BaseObject
	cmp	eax, DWORD PTR _entity$[ebp]
	jne	SHORT $LN1@FindEmmitt
	jmp	SHORT $LN2@FindEmmitt
$LN1@FindEmmitt:

; 1428 : 
; 1429 : 		tmpElement = tmpElement->GetNext();

	mov	ecx, DWORD PTR _tmpElement$[ebp]
	call	?GetNext@GroundListElement@@QAEPAV1@XZ	; GroundListElement::GetNext
	mov	DWORD PTR _tmpElement$[ebp], eax

; 1430 : 	}

	jmp	SHORT $LN3@FindEmmitt
$LN2@FindEmmitt:

; 1431 : 	
; 1432 : 	return (tmpElement);

	mov	eax, DWORD PTR _tmpElement$[ebp]

; 1433 : }

	mov	esp, ebp
	pop	ebp
	ret	4
?FindEmmitter@HarmTargetingPod@@IAEPAVGroundListElement@@PAVFalconEntity@@@Z ENDP ; HarmTargetingPod::FindEmmitter
_TEXT	ENDS
; Function compile flags: /Odtp
; File c:\users\zhitao li\documents\visual studio 2012\projects\freefalcon\sim\rwr\harmpod.cpp
_TEXT	SEGMENT
_this$ = -4						; size = 4
?ResetHadCursorPos@HarmTargetingPod@@QAEXXZ PROC	; HarmTargetingPod::ResetHadCursorPos
; _this$ = ecx

; 1908 : {

	push	ebp
	mov	ebp, esp
	push	ecx
	mov	DWORD PTR _this$[ebp], ecx

; 1909 : 	HadOrigCursorX = HadOrigCursorY = yawBackup = XPosBackup = YPosBackup = 0.0f;

	mov	eax, DWORD PTR _this$[ebp]
	movss	xmm0, DWORD PTR __real@00000000
	movss	DWORD PTR [eax+108], xmm0
	mov	ecx, DWORD PTR _this$[ebp]
	movss	xmm0, DWORD PTR __real@00000000
	movss	DWORD PTR [ecx+104], xmm0
	mov	edx, DWORD PTR _this$[ebp]
	movss	xmm0, DWORD PTR __real@00000000
	movss	DWORD PTR [edx+100], xmm0
	mov	eax, DWORD PTR _this$[ebp]
	movss	xmm0, DWORD PTR __real@00000000
	movss	DWORD PTR [eax+88], xmm0
	mov	ecx, DWORD PTR _this$[ebp]
	movss	xmm0, DWORD PTR __real@00000000
	movss	DWORD PTR [ecx+84], xmm0

; 1910 : 	HadOrigCursorX2 = HadOrigCursorY2 = 0.0f;

	mov	edx, DWORD PTR _this$[ebp]
	movss	xmm0, DWORD PTR __real@00000000
	movss	DWORD PTR [edx+96], xmm0
	mov	eax, DWORD PTR _this$[ebp]
	movss	xmm0, DWORD PTR __real@00000000
	movss	DWORD PTR [eax+92], xmm0

; 1911 : }

	mov	esp, ebp
	pop	ebp
	ret	0
?ResetHadCursorPos@HarmTargetingPod@@QAEXXZ ENDP	; HarmTargetingPod::ResetHadCursorPos
_TEXT	ENDS
; Function compile flags: /Odtp
; File c:\users\zhitao li\documents\visual studio 2012\projects\freefalcon\sim\rwr\harmpod.cpp
_TEXT	SEGMENT
_this$ = -4						; size = 4
?SaveHadCursorPos@HarmTargetingPod@@QAEXXZ PROC		; HarmTargetingPod::SaveHadCursorPos
; _this$ = ecx

; 1889 : {

	push	ebp
	mov	ebp, esp
	push	ecx
	mov	DWORD PTR _this$[ebp], ecx

; 1890 : 	// We switched to EXP1 zoom mode, save yaw... if EXP2 no need as orientation of AC already saved from EXP1
; 1891 : 	if ( HadZoomMode == EXP1 ) 

	mov	eax, DWORD PTR _this$[ebp]
	cmp	DWORD PTR [eax+180], 1
	jne	SHORT $LN2@SaveHadCur

; 1892 : 	{
; 1893 :         HadOrigCursorX = cursorX;

	mov	ecx, DWORD PTR _this$[ebp]
	mov	edx, DWORD PTR _this$[ebp]
	mov	eax, DWORD PTR [edx+76]
	mov	DWORD PTR [ecx+84], eax

; 1894 : 		HadOrigCursorY = cursorY;

	mov	ecx, DWORD PTR _this$[ebp]
	mov	edx, DWORD PTR _this$[ebp]
	mov	eax, DWORD PTR [edx+80]
	mov	DWORD PTR [ecx+88], eax

; 1895 : 		yawBackup = platform->Yaw();

	mov	ecx, DWORD PTR _this$[ebp]
	mov	ecx, DWORD PTR [ecx+32]
	call	?Yaw@VuEntity@@QBEMXZ			; VuEntity::Yaw
	mov	edx, DWORD PTR _this$[ebp]
	fstp	DWORD PTR [edx+100]

; 1896 : 		XPosBackup = platform->XPos();

	mov	eax, DWORD PTR _this$[ebp]
	mov	ecx, DWORD PTR [eax+32]
	call	?XPos@VuEntity@@QBEMXZ			; VuEntity::XPos
	mov	ecx, DWORD PTR _this$[ebp]
	fstp	DWORD PTR [ecx+104]

; 1897 : 		YPosBackup = platform->YPos();

	mov	edx, DWORD PTR _this$[ebp]
	mov	ecx, DWORD PTR [edx+32]
	call	?YPos@VuEntity@@QBEMXZ			; VuEntity::YPos
	mov	eax, DWORD PTR _this$[ebp]
	fstp	DWORD PTR [eax+108]
$LN2@SaveHadCur:

; 1898 : 	}
; 1899 : 
; 1900 : 	if ( HadZoomMode == EXP2 )

	mov	ecx, DWORD PTR _this$[ebp]
	cmp	DWORD PTR [ecx+180], 2
	jne	SHORT $LN1@SaveHadCur

; 1901 : 	{
; 1902 : 		HadOrigCursorX2 = cursorX;

	mov	edx, DWORD PTR _this$[ebp]
	mov	eax, DWORD PTR _this$[ebp]
	mov	ecx, DWORD PTR [eax+76]
	mov	DWORD PTR [edx+92], ecx

; 1903 : 		HadOrigCursorY2 = cursorY;

	mov	edx, DWORD PTR _this$[ebp]
	mov	eax, DWORD PTR _this$[ebp]
	mov	ecx, DWORD PTR [eax+80]
	mov	DWORD PTR [edx+96], ecx
$LN1@SaveHadCur:

; 1904 : 	}
; 1905 : }

	mov	esp, ebp
	pop	ebp
	ret	0
?SaveHadCursorPos@HarmTargetingPod@@QAEXXZ ENDP		; HarmTargetingPod::SaveHadCursorPos
_TEXT	ENDS
; Function compile flags: /Odtp
; File c:\users\zhitao li\documents\visual studio 2012\projects\freefalcon\sim\include\harmpod.h
;	COMDAT ?GetFilterMode@HarmTargetingPod@@QAE?AW4HASFilterMode@1@XZ
_TEXT	SEGMENT
_this$ = -4						; size = 4
?GetFilterMode@HarmTargetingPod@@QAE?AW4HASFilterMode@1@XZ PROC ; HarmTargetingPod::GetFilterMode, COMDAT
; _this$ = ecx

; 108  : 	HASFilterMode	GetFilterMode ( void ) { return filterMode; }

	push	ebp
	mov	ebp, esp
	push	ecx
	mov	DWORD PTR _this$[ebp], ecx
	mov	eax, DWORD PTR _this$[ebp]
	mov	eax, DWORD PTR [eax+184]
	mov	esp, ebp
	pop	ebp
	ret	0
?GetFilterMode@HarmTargetingPod@@QAE?AW4HASFilterMode@1@XZ ENDP ; HarmTargetingPod::GetFilterMode
_TEXT	ENDS
; Function compile flags: /Odtp
; File c:\users\zhitao li\documents\visual studio 2012\projects\freefalcon\sim\rwr\harmpod.cpp
_TEXT	SEGMENT
_this$ = -4						; size = 4
_index$ = 8						; size = 4
?SetPOSTargetIndex@HarmTargetingPod@@QAEXH@Z PROC	; HarmTargetingPod::SetPOSTargetIndex
; _this$ = ecx

; 1784 : {

	push	ebp
	mov	ebp, esp
	push	ecx
	mov	DWORD PTR _this$[ebp], ecx

; 1785 : 	if ( index < 0 || index > 3 )

	cmp	DWORD PTR _index$[ebp], 0
	jl	SHORT $LN1@SetPOSTarg
	cmp	DWORD PTR _index$[ebp], 3
	jle	SHORT $LN2@SetPOSTarg
$LN1@SetPOSTarg:

; 1786 : 	{
; 1787 : 		POSTargetIndex = -1;

	mov	eax, DWORD PTR _this$[ebp]
	mov	DWORD PTR [eax+144], -1

; 1788 : 		return;

	jmp	SHORT $LN3@SetPOSTarg
$LN2@SetPOSTarg:

; 1789 : 	}
; 1790 : 
; 1791 : 	POSTargetIndex = index;

	mov	ecx, DWORD PTR _this$[ebp]
	mov	edx, DWORD PTR _index$[ebp]
	mov	DWORD PTR [ecx+144], edx
$LN3@SetPOSTarg:

; 1792 : }

	mov	esp, ebp
	pop	ebp
	ret	4
?SetPOSTargetIndex@HarmTargetingPod@@QAEXH@Z ENDP	; HarmTargetingPod::SetPOSTargetIndex
_TEXT	ENDS
; Function compile flags: /Odtp
; File c:\users\zhitao li\documents\visual studio 2012\projects\freefalcon\sim\rwr\harmpod.cpp
_TEXT	SEGMENT
_FCC$1 = -12						; size = 4
_choice$ = -8						; size = 4
_this$ = -4						; size = 4
?LockPOSTarget@HarmTargetingPod@@QAEXXZ PROC		; HarmTargetingPod::LockPOSTarget
; _this$ = ecx

; 97   : {

	push	ebp
	mov	ebp, esp
	sub	esp, 12					; 0000000cH
	mov	DWORD PTR _this$[ebp], ecx

; 98   : 	GroundListElement	*choice = FindPOSTarget();

	mov	ecx, DWORD PTR _this$[ebp]
	call	?FindPOSTarget@HarmTargetingPod@@QAEPAVGroundListElement@@XZ ; HarmTargetingPod::FindPOSTarget
	mov	DWORD PTR _choice$[ebp], eax

; 99   : 
; 100  : 	handedoff = false; // Reset the handed off flag

	mov	eax, DWORD PTR _this$[ebp]
	mov	BYTE PTR [eax+112], 0

; 101  : 	handoffRefTime = SimLibElapsedTime; // assign the current time to the Handoff timer

	mov	ecx, DWORD PTR _this$[ebp]
	mov	edx, DWORD PTR ?SimLibElapsedTime@@3KA	; SimLibElapsedTime
	mov	DWORD PTR [ecx+160], edx

; 102  : 
; 103  : 	// Will lock the sensor on the related entity (no change if NULL)
; 104  : 	if ( choice )

	cmp	DWORD PTR _choice$[ebp], 0
	je	SHORT $LN3@LockPOSTar

; 105  : 	{
; 106  :         LockListElement( choice );

	mov	eax, DWORD PTR _choice$[ebp]
	push	eax
	mov	ecx, DWORD PTR _this$[ebp]
	call	?LockListElement@HarmTargetingPod@@IAEXPAVGroundListElement@@@Z ; HarmTargetingPod::LockListElement

; 107  : 	}
; 108  : 
; 109  : 	else

	jmp	SHORT $LN4@LockPOSTar
$LN3@LockPOSTar:

; 110  : 	{
; 111  : 		FireControlComputer* FCC = ((SimVehicleClass*)platform) -> GetFCC();

	mov	ecx, DWORD PTR _this$[ebp]
	mov	edx, DWORD PTR [ecx+32]
	mov	eax, DWORD PTR _this$[ebp]
	mov	edx, DWORD PTR [edx]
	mov	ecx, DWORD PTR [eax+32]
	mov	eax, DWORD PTR [edx+460]
	call	eax
	mov	DWORD PTR _FCC$1[ebp], eax

; 112  : 
; 113  : 		if ( FCC )

	cmp	DWORD PTR _FCC$1[ebp], 0
	je	SHORT $LN4@LockPOSTar

; 114  : 		{
; 115  : 			FCC->dropTrackCmd = TRUE;

	mov	ecx, DWORD PTR _FCC$1[ebp]
	mov	BYTE PTR [ecx+185], 1
$LN4@LockPOSTar:

; 116  : 		}
; 117  : 	}
; 118  : }

	mov	esp, ebp
	pop	ebp
	ret	0
?LockPOSTarget@HarmTargetingPod@@QAEXXZ ENDP		; HarmTargetingPod::LockPOSTarget
_TEXT	ENDS
; Function compile flags: /Odtp
; File c:\users\zhitao li\documents\visual studio 2012\projects\freefalcon\sim\rwr\harmpod.cpp
_TEXT	SEGMENT
_this$ = -4						; size = 4
?FindPOSTarget@HarmTargetingPod@@QAEPAVGroundListElement@@XZ PROC ; HarmTargetingPod::FindPOSTarget
; _this$ = ecx

; 1225 : {

	push	ebp
	mov	ebp, esp
	push	ecx
	mov	DWORD PTR _this$[ebp], ecx

; 1226 : 	if ( POSTargetIndex >= 0 && POSTargetIndex <= 3  )

	mov	eax, DWORD PTR _this$[ebp]
	cmp	DWORD PTR [eax+144], 0
	jl	SHORT $LN2@FindPOSTar
	mov	ecx, DWORD PTR _this$[ebp]
	cmp	DWORD PTR [ecx+144], 3
	jg	SHORT $LN2@FindPOSTar

; 1227 : 	{
; 1228 : 		return POSTargets[POSTargetIndex];

	mov	edx, DWORD PTR _this$[ebp]
	mov	eax, DWORD PTR [edx+144]
	mov	ecx, DWORD PTR _this$[ebp]
	mov	eax, DWORD PTR [ecx+eax*4+188]
	jmp	SHORT $LN3@FindPOSTar

; 1229 : 	}
; 1230 : 
; 1231 : 	else

	jmp	SHORT $LN3@FindPOSTar
$LN2@FindPOSTar:

; 1232 : 	{
; 1233 : 		return NULL;

	xor	eax, eax
$LN3@FindPOSTar:

; 1234 : 	}
; 1235 : }

	mov	esp, ebp
	pop	ebp
	ret	0
?FindPOSTarget@HarmTargetingPod@@QAEPAVGroundListElement@@XZ ENDP ; HarmTargetingPod::FindPOSTarget
_TEXT	ENDS
; Function compile flags: /Odtp
; File c:\users\zhitao li\documents\visual studio 2012\projects\freefalcon\sim\rwr\harmpod.cpp
_TEXT	SEGMENT
tv343 = -144						; size = 4
_FCC$ = -140						; size = 4
tv425 = -136						; size = 4
tv452 = -132						; size = 4
tv454 = -128						; size = 4
_y2$ = -124						; size = 4
tv417 = -120						; size = 4
tv365 = -116						; size = 4
_ey$ = -112						; size = 4
tv348 = -108						; size = 4
_ex$ = -104						; size = 4
_x2$ = -100						; size = 4
tv404 = -96						; size = 4
tv370 = -92						; size = 4
tv397 = -88						; size = 4
tv359 = -84						; size = 4
_alpha$ = -80						; size = 4
tv354 = -76						; size = 4
_range$ = -72						; size = 4
tv448 = -68						; size = 4
_alt$ = -64						; size = 4
tv450 = -60						; size = 4
_trig$ = -56						; size = 8
_phi$ = -48						; size = 4
_choice$ = -44						; size = 4
_elevation$ = -40					; size = 4
_delta$ = -36						; size = 4
tv273 = -32						; size = 4
_bestSoFar$ = -28					; size = 4
_displayY$ = -24					; size = 4
_y$ = -20						; size = 4
_displayX$ = -16					; size = 4
_x$ = -12						; size = 4
_tmpElement$ = -8					; size = 4
_this$ = -4						; size = 4
?FindHASTargetUnderCursor@HarmTargetingPod@@QAEPAVGroundListElement@@XZ PROC ; HarmTargetingPod::FindHASTargetUnderCursor
; _this$ = ecx

; 1162 : {

	push	ebp
	mov	ebp, esp
	sub	esp, 144				; 00000090H
	mov	DWORD PTR _this$[ebp], ecx

; 1163 : 	GroundListElement		*tmpElement;
; 1164 : 	GroundListElement		*choice		= NULL;

	mov	DWORD PTR _choice$[ebp], 0

; 1165 : 	float			bestSoFar	= 10.0f;

	movss	xmm0, DWORD PTR __real@41200000
	movss	DWORD PTR _bestSoFar$[ebp], xmm0

; 1166 : 	float			x, y, x2, y2;
; 1167 : 	float			displayX, displayY;
; 1168 : 	float			alt, range, elevation, phi, alpha, ex, ey; 
; 1169 : 	mlTrig			trig;
; 1170 : 	float			delta;
; 1171 : 	
; 1172 : 	mlSinCos (&trig, platform->Yaw());

	mov	eax, DWORD PTR _this$[ebp]
	mov	ecx, DWORD PTR [eax+32]
	call	?Yaw@VuEntity@@QBEMXZ			; VuEntity::Yaw
	push	ecx
	fstp	DWORD PTR [esp]
	lea	ecx, DWORD PTR _trig$[ebp]
	push	ecx
	call	?mlSinCos@@YAXPAUmlTrig@@M@Z		; mlSinCos
	add	esp, 8

; 1173 : 
; 1174 : 	FireControlComputer* FCC = ((SimVehicleClass*)platform)->GetFCC();

	mov	edx, DWORD PTR _this$[ebp]
	mov	eax, DWORD PTR [edx+32]
	mov	ecx, DWORD PTR _this$[ebp]
	mov	edx, DWORD PTR [eax]
	mov	ecx, DWORD PTR [ecx+32]
	mov	eax, DWORD PTR [edx+460]
	call	eax
	mov	DWORD PTR _FCC$[ebp], eax

; 1175 : 	
; 1176 : 	// Walk our list looking for the thing in range and nearest the center of the cursors
; 1177 : 	for (tmpElement	= FCC->GetFirstGroundElement(); tmpElement; tmpElement = tmpElement->GetNext())

	mov	ecx, DWORD PTR _FCC$[ebp]
	call	?GetFirstGroundElement@FireControlComputer@@QAEPAVGroundListElement@@XZ ; FireControlComputer::GetFirstGroundElement
	mov	DWORD PTR _tmpElement$[ebp], eax
	jmp	SHORT $LN8@FindHASTar
$LN7@FindHASTar:
	mov	ecx, DWORD PTR _tmpElement$[ebp]
	call	?GetNext@GroundListElement@@QAEPAV1@XZ	; GroundListElement::GetNext
	mov	DWORD PTR _tmpElement$[ebp], eax
$LN8@FindHASTar:
	cmp	DWORD PTR _tmpElement$[ebp], 0
	je	$LN6@FindHASTar

; 1178 : 	{
; 1179 : 	    if (tmpElement->BaseObject() == NULL) continue;

	mov	ecx, DWORD PTR _tmpElement$[ebp]
	call	?BaseObject@GroundListElement@@QAEPAVFalconEntity@@XZ ; GroundListElement::BaseObject
	test	eax, eax
	jne	SHORT $LN5@FindHASTar
	jmp	SHORT $LN7@FindHASTar
$LN5@FindHASTar:

; 1180 : 
; 1181 : 		if ( !IsInPriorityList ( tmpElement->symbol ) )

	mov	ecx, DWORD PTR _tmpElement$[ebp]
	mov	edx, DWORD PTR [ecx+8]
	push	edx
	mov	ecx, DWORD PTR _this$[ebp]
	call	?IsInPriorityList@HarmTargetingPod@@IAE_NH@Z ; HarmTargetingPod::IsInPriorityList
	movzx	eax, al
	test	eax, eax
	jne	SHORT $LN4@FindHASTar

; 1182 : 		{
; 1183 : 			continue;

	jmp	SHORT $LN7@FindHASTar
$LN4@FindHASTar:

; 1184 : 		}
; 1185 : 
; 1186 : 		// Convert to normalized display space with heading up
; 1187 : 		y = (tmpElement->BaseObject()->XPos() - platform->XPos()) * FT_TO_NM / displayRange * HAS_DISPLAY_RADIUS;

	mov	ecx, DWORD PTR _tmpElement$[ebp]
	call	?BaseObject@GroundListElement@@QAEPAVFalconEntity@@XZ ; GroundListElement::BaseObject
	mov	ecx, eax
	call	?XPos@VuEntity@@QBEMXZ			; VuEntity::XPos
	fstp	DWORD PTR tv343[ebp]
	movss	xmm0, DWORD PTR tv343[ebp]
	mov	ecx, DWORD PTR _this$[ebp]
	mov	ecx, DWORD PTR [ecx+32]
	movss	DWORD PTR tv448[ebp], xmm0
	call	?XPos@VuEntity@@QBEMXZ			; VuEntity::XPos
	fstp	DWORD PTR tv348[ebp]
	movss	xmm0, DWORD PTR tv448[ebp]
	subss	xmm0, DWORD PTR tv348[ebp]
	mulss	xmm0, DWORD PTR __real@392c987a
	mov	edx, DWORD PTR _this$[ebp]
	cvtsi2ss xmm1, DWORD PTR [edx+116]
	divss	xmm0, xmm1
	mulss	xmm0, DWORD PTR __real@3f400000
	movss	DWORD PTR _y$[ebp], xmm0

; 1188 : 		x = (tmpElement->BaseObject()->YPos() - platform->YPos()) * FT_TO_NM / displayRange * HAS_DISPLAY_RADIUS;

	mov	ecx, DWORD PTR _tmpElement$[ebp]
	call	?BaseObject@GroundListElement@@QAEPAVFalconEntity@@XZ ; GroundListElement::BaseObject
	mov	ecx, eax
	call	?YPos@VuEntity@@QBEMXZ			; VuEntity::YPos
	fstp	DWORD PTR tv354[ebp]
	movss	xmm0, DWORD PTR tv354[ebp]
	mov	eax, DWORD PTR _this$[ebp]
	mov	ecx, DWORD PTR [eax+32]
	movss	DWORD PTR tv450[ebp], xmm0
	call	?YPos@VuEntity@@QBEMXZ			; VuEntity::YPos
	fstp	DWORD PTR tv359[ebp]
	movss	xmm0, DWORD PTR tv450[ebp]
	subss	xmm0, DWORD PTR tv359[ebp]
	mulss	xmm0, DWORD PTR __real@392c987a
	mov	ecx, DWORD PTR _this$[ebp]
	cvtsi2ss xmm1, DWORD PTR [ecx+116]
	divss	xmm0, xmm1
	mulss	xmm0, DWORD PTR __real@3f400000
	movss	DWORD PTR _x$[ebp], xmm0

; 1189 : 		alt = (-platform->ZPos() - (-tmpElement->BaseObject()->ZPos())) * FT_TO_NM / displayRange * HAS_DISPLAY_RADIUS; 

	mov	edx, DWORD PTR _this$[ebp]
	mov	ecx, DWORD PTR [edx+32]
	call	?ZPos@VuEntity@@QBEMXZ			; VuEntity::ZPos
	fstp	DWORD PTR tv365[ebp]
	movss	xmm0, DWORD PTR tv365[ebp]
	xorps	xmm0, DWORD PTR __xmm@80000000800000008000000080000000
	mov	ecx, DWORD PTR _tmpElement$[ebp]
	movss	DWORD PTR tv452[ebp], xmm0
	call	?BaseObject@GroundListElement@@QAEPAVFalconEntity@@XZ ; GroundListElement::BaseObject
	mov	ecx, eax
	call	?ZPos@VuEntity@@QBEMXZ			; VuEntity::ZPos
	fstp	DWORD PTR tv370[ebp]
	movss	xmm0, DWORD PTR tv370[ebp]
	xorps	xmm0, DWORD PTR __xmm@80000000800000008000000080000000
	movss	xmm1, DWORD PTR tv452[ebp]
	subss	xmm1, xmm0
	mulss	xmm1, DWORD PTR __real@392c987a
	mov	eax, DWORD PTR _this$[ebp]
	cvtsi2ss xmm0, DWORD PTR [eax+116]
	divss	xmm1, xmm0
	mulss	xmm1, DWORD PTR __real@3f400000
	movss	DWORD PTR _alt$[ebp], xmm1

; 1190 : 		x2 = x * x;

	movss	xmm0, DWORD PTR _x$[ebp]
	mulss	xmm0, DWORD PTR _x$[ebp]
	movss	DWORD PTR _x2$[ebp], xmm0

; 1191 : 		y2 = y * y;

	movss	xmm0, DWORD PTR _y$[ebp]
	mulss	xmm0, DWORD PTR _y$[ebp]
	movss	DWORD PTR _y2$[ebp], xmm0

; 1192 : 		range = sqrt( x2 + y2 );

	movss	xmm0, DWORD PTR _x2$[ebp]
	addss	xmm0, DWORD PTR _y2$[ebp]
	push	ecx
	movss	DWORD PTR [esp], xmm0
	call	?SqrtSSE@@YAMM@Z			; SqrtSSE
	add	esp, 4
	fstp	DWORD PTR _range$[ebp]

; 1193 : 		alpha = atan ( alt / range );

	movss	xmm0, DWORD PTR _alt$[ebp]
	divss	xmm0, DWORD PTR _range$[ebp]
	push	ecx
	movss	DWORD PTR [esp], xmm0
	call	?atan@@YAMM@Z				; atan
	add	esp, 4
	fstp	DWORD PTR _alpha$[ebp]

; 1194 : 		elevation = (1.0f - (alpha / (PI/2.0f))) * HAS_DISPLAY_RADIUS;

	movss	xmm0, DWORD PTR _alpha$[ebp]
	divss	xmm0, DWORD PTR __real@3fc90fdb
	movss	xmm1, DWORD PTR __real@3f800000
	subss	xmm1, xmm0
	mulss	xmm1, DWORD PTR __real@3f400000
	movss	DWORD PTR _elevation$[ebp], xmm1

; 1195 : 
; 1196 : 		displayX = trig.cos * x - trig.sin * y;

	movss	xmm0, DWORD PTR _trig$[ebp+4]
	mulss	xmm0, DWORD PTR _x$[ebp]
	movss	xmm1, DWORD PTR _trig$[ebp]
	mulss	xmm1, DWORD PTR _y$[ebp]
	subss	xmm0, xmm1
	movss	DWORD PTR _displayX$[ebp], xmm0

; 1197 : 		displayY = trig.sin * x + trig.cos * y;

	movss	xmm0, DWORD PTR _trig$[ebp]
	mulss	xmm0, DWORD PTR _x$[ebp]
	movss	xmm1, DWORD PTR _trig$[ebp+4]
	mulss	xmm1, DWORD PTR _y$[ebp]
	addss	xmm0, xmm1
	movss	DWORD PTR _displayY$[ebp], xmm0

; 1198 :         
; 1199 : 		phi = atan ( displayX / displayY );

	movss	xmm0, DWORD PTR _displayX$[ebp]
	divss	xmm0, DWORD PTR _displayY$[ebp]
	push	ecx
	movss	DWORD PTR [esp], xmm0
	call	?atan@@YAMM@Z				; atan
	add	esp, 4
	fstp	DWORD PTR _phi$[ebp]

; 1200 : 		ex = elevation * sin(phi);

	push	ecx
	movss	xmm0, DWORD PTR _phi$[ebp]
	movss	DWORD PTR [esp], xmm0
	call	?sin@@YAMM@Z				; sin
	add	esp, 4
	fstp	DWORD PTR tv397[ebp]
	movss	xmm0, DWORD PTR tv397[ebp]
	mulss	xmm0, DWORD PTR _elevation$[ebp]
	movss	DWORD PTR _ex$[ebp], xmm0

; 1201 : 		ey = elevation * cos(phi);

	push	ecx
	movss	xmm0, DWORD PTR _phi$[ebp]
	movss	DWORD PTR [esp], xmm0
	call	?cos@@YAMM@Z				; cos
	add	esp, 4
	fstp	DWORD PTR tv404[ebp]
	movss	xmm0, DWORD PTR tv404[ebp]
	mulss	xmm0, DWORD PTR _elevation$[ebp]
	movss	DWORD PTR _ey$[ebp], xmm0

; 1202 : 		displayX = ex * zoomFactor;

	mov	ecx, DWORD PTR _this$[ebp]
	movss	xmm0, DWORD PTR _ex$[ebp]
	mulss	xmm0, DWORD PTR [ecx+152]
	movss	DWORD PTR _displayX$[ebp], xmm0

; 1203 : 		displayY = ey * zoomFactor; 

	mov	edx, DWORD PTR _this$[ebp]
	movss	xmm0, DWORD PTR _ey$[ebp]
	mulss	xmm0, DWORD PTR [edx+152]
	movss	DWORD PTR _displayY$[ebp], xmm0

; 1204 : 		
; 1205 : 		// See if this is the closest to the cursor point so far
; 1206 : 		delta = (float)max( fabs(displayX - cursorX), fabs(displayY - cursorY) );

	mov	eax, DWORD PTR _this$[ebp]
	movss	xmm0, DWORD PTR _displayX$[ebp]
	subss	xmm0, DWORD PTR [eax+76]
	push	ecx
	movss	DWORD PTR [esp], xmm0
	call	?fabs@@YAMM@Z				; fabs
	add	esp, 4
	fstp	DWORD PTR tv417[ebp]
	movss	xmm0, DWORD PTR tv417[ebp]
	mov	ecx, DWORD PTR _this$[ebp]
	movss	xmm1, DWORD PTR _displayY$[ebp]
	subss	xmm1, DWORD PTR [ecx+80]
	push	ecx
	movss	DWORD PTR [esp], xmm1
	movss	DWORD PTR tv454[ebp], xmm0
	call	?fabs@@YAMM@Z				; fabs
	add	esp, 4
	fstp	DWORD PTR tv425[ebp]
	movss	xmm0, DWORD PTR tv454[ebp]
	comiss	xmm0, DWORD PTR tv425[ebp]
	jbe	SHORT $LN11@FindHASTar
	mov	edx, DWORD PTR _this$[ebp]
	movss	xmm0, DWORD PTR _displayX$[ebp]
	subss	xmm0, DWORD PTR [edx+76]
	push	ecx
	movss	DWORD PTR [esp], xmm0
	call	?fabs@@YAMM@Z				; fabs
	add	esp, 4
	fstp	DWORD PTR tv273[ebp]
	jmp	SHORT $LN12@FindHASTar
$LN11@FindHASTar:
	mov	eax, DWORD PTR _this$[ebp]
	movss	xmm0, DWORD PTR _displayY$[ebp]
	subss	xmm0, DWORD PTR [eax+80]
	push	ecx
	movss	DWORD PTR [esp], xmm0
	call	?fabs@@YAMM@Z				; fabs
	add	esp, 4
	fstp	DWORD PTR tv273[ebp]
$LN12@FindHASTar:
	movss	xmm0, DWORD PTR tv273[ebp]
	movss	DWORD PTR _delta$[ebp], xmm0

; 1207 : 		if (delta < bestSoFar) {

	movss	xmm0, DWORD PTR _bestSoFar$[ebp]
	comiss	xmm0, DWORD PTR _delta$[ebp]
	jbe	SHORT $LN3@FindHASTar

; 1208 : 			bestSoFar = delta;

	movss	xmm0, DWORD PTR _delta$[ebp]
	movss	DWORD PTR _bestSoFar$[ebp], xmm0

; 1209 : 			choice = tmpElement;

	mov	ecx, DWORD PTR _tmpElement$[ebp]
	mov	DWORD PTR _choice$[ebp], ecx
$LN3@FindHASTar:

; 1210 : 		}
; 1211 : 	}

	jmp	$LN7@FindHASTar
$LN6@FindHASTar:

; 1212 : 	
; 1213 : 	// See if this is inside the cursor region
; 1214 : 	if ( bestSoFar < (CURSOR_SIZE * zoomFactor) )

	mov	edx, DWORD PTR _this$[ebp]
	movss	xmm0, DWORD PTR _CURSOR_SIZE
	mulss	xmm0, DWORD PTR [edx+152]
	comiss	xmm0, DWORD PTR _bestSoFar$[ebp]
	jbe	SHORT $LN2@FindHASTar

; 1215 : 	{
; 1216 : 		return choice;

	mov	eax, DWORD PTR _choice$[ebp]
	jmp	SHORT $LN1@FindHASTar

; 1217 : 	}
; 1218 : 	else

	jmp	SHORT $LN1@FindHASTar
$LN2@FindHASTar:

; 1219 : 	{
; 1220 : 		return NULL;

	xor	eax, eax
$LN1@FindHASTar:

; 1221 : 	}
; 1222 : }

	mov	esp, ebp
	pop	ebp
	ret	0
?FindHASTargetUnderCursor@HarmTargetingPod@@QAEPAVGroundListElement@@XZ ENDP ; HarmTargetingPod::FindHASTargetUnderCursor
_TEXT	ENDS
; Function compile flags: /Odtp
; File c:\users\zhitao li\documents\visual studio 2012\projects\freefalcon\sim\rwr\harmpod.cpp
_TEXT	SEGMENT
_trig$ = -116						; size = 8
tv417 = -108						; size = 4
tv443 = -104						; size = 4
tv409 = -100						; size = 4
_EXP2OffsetX$ = -96					; size = 4
_EXP1OffsetY$ = -92					; size = 4
_EXP1OffsetX$ = -88					; size = 4
tv372 = -84						; size = 4
tv365 = -80						; size = 4
tv355 = -76						; size = 4
tv441 = -72						; size = 4
tv350 = -68						; size = 4
tv344 = -64						; size = 4
tv439 = -60						; size = 4
tv339 = -56						; size = 4
_FCC$ = -52						; size = 4
_choice$ = -48						; size = 4
_delta$ = -44						; size = 4
tv297 = -40						; size = 4
tv149 = -36						; size = 4
_bestSoFar$ = -32					; size = 4
_y$ = -28						; size = 4
_x$ = -24						; size = 4
_displayX$ = -20					; size = 4
_EXP2OffsetY$ = -16					; size = 4
_displayY$ = -12					; size = 4
_tmpElement$ = -8					; size = 4
_this$ = -4						; size = 4
?FindTargetUnderCursor@HarmTargetingPod@@QAEPAVGroundListElement@@XZ PROC ; HarmTargetingPod::FindTargetUnderCursor
; _this$ = ecx

; 1054 : {

	push	ebp
	mov	ebp, esp
	sub	esp, 116				; 00000074H
	mov	DWORD PTR _this$[ebp], ecx

; 1055 : 	GroundListElement		*tmpElement;
; 1056 : 	GroundListElement		*choice		= NULL;

	mov	DWORD PTR _choice$[ebp], 0

; 1057 : 	float			bestSoFar	= 10.0f;

	movss	xmm0, DWORD PTR __real@41200000
	movss	DWORD PTR _bestSoFar$[ebp], xmm0

; 1058 : 	float			x, y;
; 1059 : 	float			displayX, displayY;
; 1060 : 	mlTrig			trig;
; 1061 : 	float			delta;
; 1062 : 	float			EXP1OffsetX, EXP1OffsetY, EXP2OffsetX, EXP2OffsetY;
; 1063 : 
; 1064 : 	if ( HadZoomMode == NORM )

	mov	eax, DWORD PTR _this$[ebp]
	cmp	DWORD PTR [eax+180], 0
	jne	SHORT $LN19@FindTarget

; 1065 : 	{
; 1066 :         mlSinCos (&trig, platform->Yaw());

	mov	ecx, DWORD PTR _this$[ebp]
	mov	ecx, DWORD PTR [ecx+32]
	call	?Yaw@VuEntity@@QBEMXZ			; VuEntity::Yaw
	push	ecx
	fstp	DWORD PTR [esp]
	lea	edx, DWORD PTR _trig$[ebp]
	push	edx
	call	?mlSinCos@@YAXPAUmlTrig@@M@Z		; mlSinCos
	add	esp, 8
	jmp	SHORT $LN17@FindTarget
$LN19@FindTarget:

; 1067 : 	}
; 1068 : 
; 1069 : 	else if ( HadZoomMode == EXP1 || HadZoomMode == EXP2 )

	mov	eax, DWORD PTR _this$[ebp]
	cmp	DWORD PTR [eax+180], 1
	je	SHORT $LN16@FindTarget
	mov	ecx, DWORD PTR _this$[ebp]
	cmp	DWORD PTR [ecx+180], 2
	jne	SHORT $LN17@FindTarget
$LN16@FindTarget:

; 1070 : 	{
; 1071 : 		mlSinCos (&trig, yawBackup);

	mov	edx, DWORD PTR _this$[ebp]
	push	ecx
	movss	xmm0, DWORD PTR [edx+100]
	movss	DWORD PTR [esp], xmm0
	lea	eax, DWORD PTR _trig$[ebp]
	push	eax
	call	?mlSinCos@@YAXPAUmlTrig@@M@Z		; mlSinCos
	add	esp, 8
$LN17@FindTarget:

; 1072 : 	}
; 1073 : 
; 1074 : 	FireControlComputer* FCC = ((SimVehicleClass*)platform)->GetFCC();

	mov	ecx, DWORD PTR _this$[ebp]
	mov	edx, DWORD PTR [ecx+32]
	mov	eax, DWORD PTR _this$[ebp]
	mov	edx, DWORD PTR [edx]
	mov	ecx, DWORD PTR [eax+32]
	mov	eax, DWORD PTR [edx+460]
	call	eax
	mov	DWORD PTR _FCC$[ebp], eax

; 1075 : 	
; 1076 : 	// Walk our list looking for the thing in range and nearest the center of the cursors
; 1077 : 	for (tmpElement	= FCC->GetFirstGroundElement(); tmpElement; tmpElement = tmpElement->GetNext())

	mov	ecx, DWORD PTR _FCC$[ebp]
	call	?GetFirstGroundElement@FireControlComputer@@QAEPAVGroundListElement@@XZ ; FireControlComputer::GetFirstGroundElement
	mov	DWORD PTR _tmpElement$[ebp], eax
	jmp	SHORT $LN15@FindTarget
$LN14@FindTarget:
	mov	ecx, DWORD PTR _tmpElement$[ebp]
	call	?GetNext@GroundListElement@@QAEPAV1@XZ	; GroundListElement::GetNext
	mov	DWORD PTR _tmpElement$[ebp], eax
$LN15@FindTarget:
	cmp	DWORD PTR _tmpElement$[ebp], 0
	je	$LN13@FindTarget

; 1078 : 	{
; 1079 : 	    if (tmpElement->BaseObject() == NULL) continue;

	mov	ecx, DWORD PTR _tmpElement$[ebp]
	call	?BaseObject@GroundListElement@@QAEPAVFalconEntity@@XZ ; GroundListElement::BaseObject
	test	eax, eax
	jne	SHORT $LN12@FindTarget
	jmp	SHORT $LN14@FindTarget
$LN12@FindTarget:

; 1080 : 
; 1081 : 		if ( !IsInPriorityList ( tmpElement->symbol ) )

	mov	ecx, DWORD PTR _tmpElement$[ebp]
	mov	edx, DWORD PTR [ecx+8]
	push	edx
	mov	ecx, DWORD PTR _this$[ebp]
	call	?IsInPriorityList@HarmTargetingPod@@IAE_NH@Z ; HarmTargetingPod::IsInPriorityList
	movzx	eax, al
	test	eax, eax
	jne	SHORT $LN11@FindTarget

; 1082 : 		{
; 1083 : 			continue;

	jmp	SHORT $LN14@FindTarget
$LN11@FindTarget:

; 1084 : 		}
; 1085 : 
; 1086 : 		switch ( HadZoomMode )

	mov	ecx, DWORD PTR _this$[ebp]
	mov	edx, DWORD PTR [ecx+180]
	mov	DWORD PTR tv149[ebp], edx
	cmp	DWORD PTR tv149[ebp], 0
	jle	SHORT $LN8@FindTarget
	cmp	DWORD PTR tv149[ebp], 2
	jle	$LN7@FindTarget
$LN8@FindTarget:

; 1087 : 		{
; 1088 : 		case NORM:
; 1089 : 		default:
; 1090 : 			// Convert to normalized display space with heading up
; 1091 : 			y = (tmpElement->BaseObject()->XPos() - platform->XPos()) * FT_TO_NM / displayRange * HTS_DISPLAY_RADIUS;

	mov	ecx, DWORD PTR _tmpElement$[ebp]
	call	?BaseObject@GroundListElement@@QAEPAVFalconEntity@@XZ ; GroundListElement::BaseObject
	mov	ecx, eax
	call	?XPos@VuEntity@@QBEMXZ			; VuEntity::XPos
	fstp	DWORD PTR tv339[ebp]
	movss	xmm0, DWORD PTR tv339[ebp]
	mov	eax, DWORD PTR _this$[ebp]
	mov	ecx, DWORD PTR [eax+32]
	movss	DWORD PTR tv439[ebp], xmm0
	call	?XPos@VuEntity@@QBEMXZ			; VuEntity::XPos
	fstp	DWORD PTR tv344[ebp]
	movss	xmm0, DWORD PTR tv439[ebp]
	subss	xmm0, DWORD PTR tv344[ebp]
	mulss	xmm0, DWORD PTR __real@392c987a
	mov	ecx, DWORD PTR _this$[ebp]
	cvtsi2ss xmm1, DWORD PTR [ecx+116]
	divss	xmm0, xmm1
	mulss	xmm0, DWORD PTR __real@3fb33333
	movss	DWORD PTR _y$[ebp], xmm0

; 1092 : 			x = (tmpElement->BaseObject()->YPos() - platform->YPos()) * FT_TO_NM / displayRange * HTS_DISPLAY_RADIUS;

	mov	ecx, DWORD PTR _tmpElement$[ebp]
	call	?BaseObject@GroundListElement@@QAEPAVFalconEntity@@XZ ; GroundListElement::BaseObject
	mov	ecx, eax
	call	?YPos@VuEntity@@QBEMXZ			; VuEntity::YPos
	fstp	DWORD PTR tv350[ebp]
	movss	xmm0, DWORD PTR tv350[ebp]
	mov	edx, DWORD PTR _this$[ebp]
	mov	ecx, DWORD PTR [edx+32]
	movss	DWORD PTR tv441[ebp], xmm0
	call	?YPos@VuEntity@@QBEMXZ			; VuEntity::YPos
	fstp	DWORD PTR tv355[ebp]
	movss	xmm0, DWORD PTR tv441[ebp]
	subss	xmm0, DWORD PTR tv355[ebp]
	mulss	xmm0, DWORD PTR __real@392c987a
	mov	eax, DWORD PTR _this$[ebp]
	cvtsi2ss xmm1, DWORD PTR [eax+116]
	divss	xmm0, xmm1
	mulss	xmm0, DWORD PTR __real@3fb33333
	movss	DWORD PTR _x$[ebp], xmm0

; 1093 : 			displayX = trig.cos * x - trig.sin * y;

	movss	xmm0, DWORD PTR _trig$[ebp+4]
	mulss	xmm0, DWORD PTR _x$[ebp]
	movss	xmm1, DWORD PTR _trig$[ebp]
	mulss	xmm1, DWORD PTR _y$[ebp]
	subss	xmm0, xmm1
	movss	DWORD PTR _displayX$[ebp], xmm0

; 1094 : 			displayY = trig.sin * x + trig.cos * y;

	movss	xmm0, DWORD PTR _trig$[ebp]
	mulss	xmm0, DWORD PTR _x$[ebp]
	movss	xmm1, DWORD PTR _trig$[ebp+4]
	mulss	xmm1, DWORD PTR _y$[ebp]
	addss	xmm0, xmm1
	movss	DWORD PTR _displayY$[ebp], xmm0

; 1095 : 			break;

	jmp	$LN9@FindTarget
$LN7@FindTarget:

; 1096 : 
; 1097 : 		// RV - I-Hawk - if in zoom modes, do the right offsets
; 1098 : 		case EXP1:
; 1099 : 		case EXP2:
; 1100 : 			// Compute the world space oriented, display space scaled, obacked up ownship relative position of the emitter
; 1101 : 			y = (tmpElement->BaseObject()->XPos() - XPosBackup) * FT_TO_NM / displayRange * HTS_DISPLAY_RADIUS;

	mov	ecx, DWORD PTR _tmpElement$[ebp]
	call	?BaseObject@GroundListElement@@QAEPAVFalconEntity@@XZ ; GroundListElement::BaseObject
	mov	ecx, eax
	call	?XPos@VuEntity@@QBEMXZ			; VuEntity::XPos
	fstp	DWORD PTR tv365[ebp]
	movss	xmm0, DWORD PTR tv365[ebp]
	mov	ecx, DWORD PTR _this$[ebp]
	subss	xmm0, DWORD PTR [ecx+104]
	mulss	xmm0, DWORD PTR __real@392c987a
	mov	edx, DWORD PTR _this$[ebp]
	cvtsi2ss xmm1, DWORD PTR [edx+116]
	divss	xmm0, xmm1
	mulss	xmm0, DWORD PTR __real@3fb33333
	movss	DWORD PTR _y$[ebp], xmm0

; 1102 : 			x = (tmpElement->BaseObject()->YPos() - YPosBackup) * FT_TO_NM / displayRange * HTS_DISPLAY_RADIUS;

	mov	ecx, DWORD PTR _tmpElement$[ebp]
	call	?BaseObject@GroundListElement@@QAEPAVFalconEntity@@XZ ; GroundListElement::BaseObject
	mov	ecx, eax
	call	?YPos@VuEntity@@QBEMXZ			; VuEntity::YPos
	fstp	DWORD PTR tv372[ebp]
	movss	xmm0, DWORD PTR tv372[ebp]
	mov	eax, DWORD PTR _this$[ebp]
	subss	xmm0, DWORD PTR [eax+108]
	mulss	xmm0, DWORD PTR __real@392c987a
	mov	ecx, DWORD PTR _this$[ebp]
	cvtsi2ss xmm1, DWORD PTR [ecx+116]
	divss	xmm0, xmm1
	mulss	xmm0, DWORD PTR __real@3fb33333
	movss	DWORD PTR _x$[ebp], xmm0

; 1103 : 
; 1104 : 			// Rotate it into heading up space and translate it down to deal with our vertical offset
; 1105 : 			displayX = trig.cos * x - trig.sin * y;

	movss	xmm0, DWORD PTR _trig$[ebp+4]
	mulss	xmm0, DWORD PTR _x$[ebp]
	movss	xmm1, DWORD PTR _trig$[ebp]
	mulss	xmm1, DWORD PTR _y$[ebp]
	subss	xmm0, xmm1
	movss	DWORD PTR _displayX$[ebp], xmm0

; 1106 : 			displayY = trig.sin * x + trig.cos * y;

	movss	xmm0, DWORD PTR _trig$[ebp]
	mulss	xmm0, DWORD PTR _x$[ebp]
	movss	xmm1, DWORD PTR _trig$[ebp+4]
	mulss	xmm1, DWORD PTR _y$[ebp]
	addss	xmm0, xmm1
	movss	DWORD PTR _displayY$[ebp], xmm0

; 1107 : 		
; 1108 : 			// Deal with the EXP1 offset
; 1109 : 			EXP1OffsetX = 2.0f * HadOrigCursorX;

	mov	edx, DWORD PTR _this$[ebp]
	movss	xmm0, DWORD PTR __real@40000000
	mulss	xmm0, DWORD PTR [edx+84]
	movss	DWORD PTR _EXP1OffsetX$[ebp], xmm0

; 1110 : 			EXP1OffsetY = 2.0f * HadOrigCursorY;

	mov	eax, DWORD PTR _this$[ebp]
	movss	xmm0, DWORD PTR __real@40000000
	mulss	xmm0, DWORD PTR [eax+88]
	movss	DWORD PTR _EXP1OffsetY$[ebp], xmm0

; 1111 : 			
; 1112 : 			displayX -= EXP1OffsetX;

	movss	xmm0, DWORD PTR _displayX$[ebp]
	subss	xmm0, DWORD PTR _EXP1OffsetX$[ebp]
	movss	DWORD PTR _displayX$[ebp], xmm0

; 1113 : 			displayY -= EXP1OffsetY;

	movss	xmm0, DWORD PTR _displayY$[ebp]
	subss	xmm0, DWORD PTR _EXP1OffsetY$[ebp]
	movss	DWORD PTR _displayY$[ebp], xmm0

; 1114 : 
; 1115 : 			displayY -= HTS_Y_OFFSET;

	movss	xmm0, DWORD PTR _displayY$[ebp]
	subss	xmm0, DWORD PTR __real@bf000000
	movss	DWORD PTR _displayY$[ebp], xmm0

; 1116 : 
; 1117 : 			// Here also add the EXP2 offset
; 1118 : 			if ( HadZoomMode == EXP2 )

	mov	ecx, DWORD PTR _this$[ebp]
	cmp	DWORD PTR [ecx+180], 2
	jne	$LN6@FindTarget

; 1119 : 			{
; 1120 : 				EXP2OffsetX = 2.0f * HadOrigCursorX + 2.0f * HadOrigCursorX2;

	mov	edx, DWORD PTR _this$[ebp]
	movss	xmm0, DWORD PTR __real@40000000
	mulss	xmm0, DWORD PTR [edx+84]
	mov	eax, DWORD PTR _this$[ebp]
	movss	xmm1, DWORD PTR __real@40000000
	mulss	xmm1, DWORD PTR [eax+92]
	addss	xmm0, xmm1
	movss	DWORD PTR _EXP2OffsetX$[ebp], xmm0

; 1121 : 				EXP2OffsetY = 2.0f * HadOrigCursorY + 2.0f * HadOrigCursorY2;

	mov	ecx, DWORD PTR _this$[ebp]
	movss	xmm0, DWORD PTR __real@40000000
	mulss	xmm0, DWORD PTR [ecx+88]
	mov	edx, DWORD PTR _this$[ebp]
	movss	xmm1, DWORD PTR __real@40000000
	mulss	xmm1, DWORD PTR [edx+96]
	addss	xmm0, xmm1
	movss	DWORD PTR _EXP2OffsetY$[ebp], xmm0

; 1122 : 
; 1123 : 				EXP2OffsetY += 2.0f * HTS_Y_OFFSET;

	movss	xmm0, DWORD PTR _EXP2OffsetY$[ebp]
	addss	xmm0, DWORD PTR __real@bf800000
	movss	DWORD PTR _EXP2OffsetY$[ebp], xmm0

; 1124 : 
; 1125 : 				if ( displayRange < 10 )

	mov	eax, DWORD PTR _this$[ebp]
	cmp	DWORD PTR [eax+116], 10			; 0000000aH
	jge	SHORT $LN4@FindTarget

; 1126 : 				{
; 1127 : 					EXP2OffsetY -= HTS_Y_OFFSET / 2.0f;

	movss	xmm0, DWORD PTR _EXP2OffsetY$[ebp]
	subss	xmm0, DWORD PTR __real@be800000
	movss	DWORD PTR _EXP2OffsetY$[ebp], xmm0

; 1128 : 
; 1129 : 					if ( displayRange < 5 )

	mov	ecx, DWORD PTR _this$[ebp]
	cmp	DWORD PTR [ecx+116], 5
	jge	SHORT $LN4@FindTarget

; 1130 : 					{
; 1131 : 						EXP2OffsetY -= HTS_Y_OFFSET / 2.0f;

	movss	xmm0, DWORD PTR _EXP2OffsetY$[ebp]
	subss	xmm0, DWORD PTR __real@be800000
	movss	DWORD PTR _EXP2OffsetY$[ebp], xmm0
$LN4@FindTarget:

; 1132 : 					}
; 1133 : 				}
; 1134 : 
; 1135 : 				displayX -= EXP2OffsetX;

	movss	xmm0, DWORD PTR _displayX$[ebp]
	subss	xmm0, DWORD PTR _EXP2OffsetX$[ebp]
	movss	DWORD PTR _displayX$[ebp], xmm0

; 1136 : 				displayY -= EXP2OffsetY;

	movss	xmm0, DWORD PTR _displayY$[ebp]
	subss	xmm0, DWORD PTR _EXP2OffsetY$[ebp]
	movss	DWORD PTR _displayY$[ebp], xmm0
$LN6@FindTarget:
$LN9@FindTarget:

; 1137 : 			}
; 1138 : 
; 1139 :             break;
; 1140 : 		}
; 1141 : 		
; 1142 : 		// See if this is the closest to the cursor point so far
; 1143 : 		delta = (float)max( fabs(displayX - cursorX), fabs(displayY - cursorY) );

	mov	edx, DWORD PTR _this$[ebp]
	movss	xmm0, DWORD PTR _displayX$[ebp]
	subss	xmm0, DWORD PTR [edx+76]
	push	ecx
	movss	DWORD PTR [esp], xmm0
	call	?fabs@@YAMM@Z				; fabs
	add	esp, 4
	fstp	DWORD PTR tv409[ebp]
	movss	xmm0, DWORD PTR tv409[ebp]
	mov	eax, DWORD PTR _this$[ebp]
	movss	xmm1, DWORD PTR _displayY$[ebp]
	subss	xmm1, DWORD PTR [eax+80]
	push	ecx
	movss	DWORD PTR [esp], xmm1
	movss	DWORD PTR tv443[ebp], xmm0
	call	?fabs@@YAMM@Z				; fabs
	add	esp, 4
	fstp	DWORD PTR tv417[ebp]
	movss	xmm0, DWORD PTR tv443[ebp]
	comiss	xmm0, DWORD PTR tv417[ebp]
	jbe	SHORT $LN22@FindTarget
	mov	ecx, DWORD PTR _this$[ebp]
	movss	xmm0, DWORD PTR _displayX$[ebp]
	subss	xmm0, DWORD PTR [ecx+76]
	push	ecx
	movss	DWORD PTR [esp], xmm0
	call	?fabs@@YAMM@Z				; fabs
	add	esp, 4
	fstp	DWORD PTR tv297[ebp]
	jmp	SHORT $LN23@FindTarget
$LN22@FindTarget:
	mov	edx, DWORD PTR _this$[ebp]
	movss	xmm0, DWORD PTR _displayY$[ebp]
	subss	xmm0, DWORD PTR [edx+80]
	push	ecx
	movss	DWORD PTR [esp], xmm0
	call	?fabs@@YAMM@Z				; fabs
	add	esp, 4
	fstp	DWORD PTR tv297[ebp]
$LN23@FindTarget:
	movss	xmm0, DWORD PTR tv297[ebp]
	movss	DWORD PTR _delta$[ebp], xmm0

; 1144 : 		if (delta < bestSoFar) {

	movss	xmm0, DWORD PTR _bestSoFar$[ebp]
	comiss	xmm0, DWORD PTR _delta$[ebp]
	jbe	SHORT $LN3@FindTarget

; 1145 : 			bestSoFar = delta;

	movss	xmm0, DWORD PTR _delta$[ebp]
	movss	DWORD PTR _bestSoFar$[ebp], xmm0

; 1146 : 			choice = tmpElement;

	mov	eax, DWORD PTR _tmpElement$[ebp]
	mov	DWORD PTR _choice$[ebp], eax
$LN3@FindTarget:

; 1147 : 		}
; 1148 : 	}

	jmp	$LN14@FindTarget
$LN13@FindTarget:

; 1149 : 	
; 1150 : 	// See if this is inside the cursor region
; 1151 : 	if ( bestSoFar < (CURSOR_SIZE) )

	movss	xmm0, DWORD PTR _CURSOR_SIZE
	comiss	xmm0, DWORD PTR _bestSoFar$[ebp]
	jbe	SHORT $LN2@FindTarget

; 1152 : 	{
; 1153 : 		return choice;

	mov	eax, DWORD PTR _choice$[ebp]
	jmp	SHORT $LN1@FindTarget

; 1154 : 	}
; 1155 : 	else

	jmp	SHORT $LN1@FindTarget
$LN2@FindTarget:

; 1156 : 	{
; 1157 : 		return NULL;

	xor	eax, eax
$LN1@FindTarget:

; 1158 : 	}
; 1159 : }

	mov	esp, ebp
	pop	ebp
	ret	0
?FindTargetUnderCursor@HarmTargetingPod@@QAEPAVGroundListElement@@XZ ENDP ; HarmTargetingPod::FindTargetUnderCursor
_TEXT	ENDS
; Function compile flags: /Odtp
; File c:\users\zhitao li\documents\visual studio 2012\projects\freefalcon\sim\rwr\harmpod.cpp
_TEXT	SEGMENT
$T1 = -24						; size = 8
_tgtId$ = -16						; size = 8
_this$ = -8						; size = 4
_choice$ = -4						; size = 4
___$ReturnUdt$ = 8					; size = 4
?FindIDUnderCursor@HarmTargetingPod@@QAE?AVVU_ID@@XZ PROC ; HarmTargetingPod::FindIDUnderCursor
; _this$ = ecx

; 1041 : {

	push	ebp
	mov	ebp, esp
	sub	esp, 24					; 00000018H
	mov	DWORD PTR _this$[ebp], ecx

; 1042 : 	GroundListElement	*choice = FindTargetUnderCursor();

	mov	ecx, DWORD PTR _this$[ebp]
	call	?FindTargetUnderCursor@HarmTargetingPod@@QAEPAVGroundListElement@@XZ ; HarmTargetingPod::FindTargetUnderCursor
	mov	DWORD PTR _choice$[ebp], eax

; 1043 : 	VU_ID tgtId = FalconNullId;

	mov	eax, DWORD PTR ?FalconNullId@@3VVU_ID@@A
	mov	DWORD PTR _tgtId$[ebp], eax
	mov	ecx, DWORD PTR ?FalconNullId@@3VVU_ID@@A+4
	mov	DWORD PTR _tgtId$[ebp+4], ecx

; 1044 : 
; 1045 :     if (choice && choice->BaseObject())

	cmp	DWORD PTR _choice$[ebp], 0
