; Listing generated by Microsoft (R) Optimizing Compiler Version 17.00.51106.1 

	TITLE	C:\Users\Zhitao Li\Documents\Visual Studio 2012\Projects\Freefalcon\SIM\FCC\Lgbfcc.cpp
	.686P
	.XMM
	include listing.inc
	.model	flat

INCLUDELIB LIBCMT
INCLUDELIB OLDNAMES

PUBLIC	?traps@_Num_base@std@@2_NB			; std::_Num_base::traps
PUBLIC	?round_style@_Num_base@std@@2W4float_round_style@2@B ; std::_Num_base::round_style
PUBLIC	?digits@_Num_base@std@@2HB			; std::_Num_base::digits
PUBLIC	?digits10@_Num_base@std@@2HB			; std::_Num_base::digits10
PUBLIC	?max_digits10@_Num_base@std@@2HB		; std::_Num_base::max_digits10
PUBLIC	?max_exponent@_Num_base@std@@2HB		; std::_Num_base::max_exponent
PUBLIC	?max_exponent10@_Num_base@std@@2HB		; std::_Num_base::max_exponent10
PUBLIC	?min_exponent@_Num_base@std@@2HB		; std::_Num_base::min_exponent
PUBLIC	?min_exponent10@_Num_base@std@@2HB		; std::_Num_base::min_exponent10
PUBLIC	?radix@_Num_base@std@@2HB			; std::_Num_base::radix
PUBLIC	?is_bounded@_Num_int_base@std@@2_NB		; std::_Num_int_base::is_bounded
PUBLIC	?is_exact@_Num_int_base@std@@2_NB		; std::_Num_int_base::is_exact
PUBLIC	?is_integer@_Num_int_base@std@@2_NB		; std::_Num_int_base::is_integer
PUBLIC	?is_modulo@_Num_int_base@std@@2_NB		; std::_Num_int_base::is_modulo
PUBLIC	?is_specialized@_Num_int_base@std@@2_NB		; std::_Num_int_base::is_specialized
PUBLIC	?radix@_Num_int_base@std@@2HB			; std::_Num_int_base::radix
PUBLIC	?has_denorm@_Num_float_base@std@@2W4float_denorm_style@2@B ; std::_Num_float_base::has_denorm
PUBLIC	?has_denorm_loss@_Num_float_base@std@@2_NB	; std::_Num_float_base::has_denorm_loss
PUBLIC	?SIMDIRTYDATA_INTERVAL@FalconEntity@@2KB	; FalconEntity::SIMDIRTYDATA_INTERVAL
PUBLIC	?CMPDIRTYDATA_INTERVAL@FalconEntity@@2KB	; FalconEntity::CMPDIRTYDATA_INTERVAL
PUBLIC	?has_infinity@_Num_float_base@std@@2_NB		; std::_Num_float_base::has_infinity
PUBLIC	?has_quiet_NaN@_Num_float_base@std@@2_NB	; std::_Num_float_base::has_quiet_NaN
PUBLIC	?has_signaling_NaN@_Num_float_base@std@@2_NB	; std::_Num_float_base::has_signaling_NaN
PUBLIC	?is_bounded@_Num_float_base@std@@2_NB		; std::_Num_float_base::is_bounded
PUBLIC	?is_exact@_Num_float_base@std@@2_NB		; std::_Num_float_base::is_exact
PUBLIC	?is_iec559@_Num_float_base@std@@2_NB		; std::_Num_float_base::is_iec559
PUBLIC	?is_integer@_Num_float_base@std@@2_NB		; std::_Num_float_base::is_integer
PUBLIC	?is_modulo@_Num_float_base@std@@2_NB		; std::_Num_float_base::is_modulo
PUBLIC	?is_signed@_Num_float_base@std@@2_NB		; std::_Num_float_base::is_signed
PUBLIC	?is_specialized@_Num_float_base@std@@2_NB	; std::_Num_float_base::is_specialized
PUBLIC	?tinyness_before@_Num_float_base@std@@2_NB	; std::_Num_float_base::tinyness_before
PUBLIC	?traps@_Num_float_base@std@@2_NB		; std::_Num_float_base::traps
PUBLIC	?round_style@_Num_float_base@std@@2W4float_round_style@2@B ; std::_Num_float_base::round_style
PUBLIC	?radix@_Num_float_base@std@@2HB			; std::_Num_float_base::radix
PUBLIC	?is_signed@?$numeric_limits@D@std@@2_NB		; std::numeric_limits<char>::is_signed
PUBLIC	?digits@?$numeric_limits@D@std@@2HB		; std::numeric_limits<char>::digits
PUBLIC	?digits10@?$numeric_limits@D@std@@2HB		; std::numeric_limits<char>::digits10
PUBLIC	?is_signed@?$numeric_limits@_W@std@@2_NB	; std::numeric_limits<wchar_t>::is_signed
PUBLIC	?digits@?$numeric_limits@_W@std@@2HB		; std::numeric_limits<wchar_t>::digits
PUBLIC	?digits10@?$numeric_limits@_W@std@@2HB		; std::numeric_limits<wchar_t>::digits10
PUBLIC	?collate@?$_Locbase@H@std@@2HB			; std::_Locbase<int>::collate
PUBLIC	?ctype@?$_Locbase@H@std@@2HB			; std::_Locbase<int>::ctype
PUBLIC	?monetary@?$_Locbase@H@std@@2HB			; std::_Locbase<int>::monetary
PUBLIC	?numeric@?$_Locbase@H@std@@2HB			; std::_Locbase<int>::numeric
PUBLIC	?time@?$_Locbase@H@std@@2HB			; std::_Locbase<int>::time
PUBLIC	?messages@?$_Locbase@H@std@@2HB			; std::_Locbase<int>::messages
PUBLIC	?all@?$_Locbase@H@std@@2HB			; std::_Locbase<int>::all
PUBLIC	?none@?$_Locbase@H@std@@2HB			; std::_Locbase<int>::none
PUBLIC	?is_modulo@?$numeric_limits@_N@std@@2_NB	; std::numeric_limits<bool>::is_modulo
PUBLIC	?is_signed@?$numeric_limits@_N@std@@2_NB	; std::numeric_limits<bool>::is_signed
PUBLIC	?digits@?$numeric_limits@_N@std@@2HB		; std::numeric_limits<bool>::digits
PUBLIC	?digits10@?$numeric_limits@_N@std@@2HB		; std::numeric_limits<bool>::digits10
PUBLIC	?is_signed@?$numeric_limits@C@std@@2_NB		; std::numeric_limits<signed char>::is_signed
PUBLIC	?digits@?$numeric_limits@C@std@@2HB		; std::numeric_limits<signed char>::digits
PUBLIC	?digits10@?$numeric_limits@C@std@@2HB		; std::numeric_limits<signed char>::digits10
PUBLIC	?is_signed@?$numeric_limits@E@std@@2_NB		; std::numeric_limits<unsigned char>::is_signed
PUBLIC	?value@?$integral_constant@_N$0A@@std@@2_NB	; std::integral_constant<bool,0>::value
PUBLIC	?digits@?$numeric_limits@E@std@@2HB		; std::numeric_limits<unsigned char>::digits
PUBLIC	?digits10@?$numeric_limits@E@std@@2HB		; std::numeric_limits<unsigned char>::digits10
PUBLIC	?value@?$integral_constant@_N$00@std@@2_NB	; std::integral_constant<bool,1>::value
PUBLIC	?table_size@?$ctype@D@std@@2IB			; std::ctype<char>::table_size
PUBLIC	?is_signed@?$numeric_limits@F@std@@2_NB		; std::numeric_limits<short>::is_signed
PUBLIC	?digits@?$numeric_limits@F@std@@2HB		; std::numeric_limits<short>::digits
PUBLIC	?digits10@?$numeric_limits@F@std@@2HB		; std::numeric_limits<short>::digits10
PUBLIC	?is_signed@?$numeric_limits@G@std@@2_NB		; std::numeric_limits<unsigned short>::is_signed
PUBLIC	?digits@?$numeric_limits@G@std@@2HB		; std::numeric_limits<unsigned short>::digits
PUBLIC	?digits10@?$numeric_limits@G@std@@2HB		; std::numeric_limits<unsigned short>::digits10
PUBLIC	?is_signed@?$numeric_limits@H@std@@2_NB		; std::numeric_limits<int>::is_signed
PUBLIC	?value@?$_Sizeof@HU_Nil@std@@U12@U12@U12@U12@U12@U12@@std@@2IB ; std::_Sizeof<int,std::_Nil,std::_Nil,std::_Nil,std::_Nil,std::_Nil,std::_Nil,std::_Nil>::value
PUBLIC	?digits@?$numeric_limits@H@std@@2HB		; std::numeric_limits<int>::digits
PUBLIC	?digits10@?$numeric_limits@H@std@@2HB		; std::numeric_limits<int>::digits10
PUBLIC	?is_signed@?$numeric_limits@I@std@@2_NB		; std::numeric_limits<unsigned int>::is_signed
PUBLIC	?digits@?$numeric_limits@I@std@@2HB		; std::numeric_limits<unsigned int>::digits
PUBLIC	?digits10@?$numeric_limits@I@std@@2HB		; std::numeric_limits<unsigned int>::digits10
PUBLIC	?is_signed@?$numeric_limits@J@std@@2_NB		; std::numeric_limits<long>::is_signed
PUBLIC	?digits@?$numeric_limits@J@std@@2HB		; std::numeric_limits<long>::digits
PUBLIC	?digits10@?$numeric_limits@J@std@@2HB		; std::numeric_limits<long>::digits10
PUBLIC	?is_signed@?$numeric_limits@K@std@@2_NB		; std::numeric_limits<unsigned long>::is_signed
PUBLIC	?digits@?$numeric_limits@K@std@@2HB		; std::numeric_limits<unsigned long>::digits
PUBLIC	?digits10@?$numeric_limits@K@std@@2HB		; std::numeric_limits<unsigned long>::digits10
PUBLIC	?is_signed@?$numeric_limits@_J@std@@2_NB	; std::numeric_limits<__int64>::is_signed
PUBLIC	?digits@?$numeric_limits@_J@std@@2HB		; std::numeric_limits<__int64>::digits
PUBLIC	?digits10@?$numeric_limits@_J@std@@2HB		; std::numeric_limits<__int64>::digits10
PUBLIC	?is_signed@?$numeric_limits@_K@std@@2_NB	; std::numeric_limits<unsigned __int64>::is_signed
PUBLIC	?digits@?$numeric_limits@_K@std@@2HB		; std::numeric_limits<unsigned __int64>::digits
PUBLIC	?digits10@?$numeric_limits@_K@std@@2HB		; std::numeric_limits<unsigned __int64>::digits10
PUBLIC	?digits@?$numeric_limits@M@std@@2HB		; std::numeric_limits<float>::digits
PUBLIC	?digits10@?$numeric_limits@M@std@@2HB		; std::numeric_limits<float>::digits10
PUBLIC	?max_digits10@?$numeric_limits@M@std@@2HB	; std::numeric_limits<float>::max_digits10
PUBLIC	?max_exponent@?$numeric_limits@M@std@@2HB	; std::numeric_limits<float>::max_exponent
PUBLIC	?max_exponent10@?$numeric_limits@M@std@@2HB	; std::numeric_limits<float>::max_exponent10
PUBLIC	?min_exponent@?$numeric_limits@M@std@@2HB	; std::numeric_limits<float>::min_exponent
PUBLIC	?min_exponent10@?$numeric_limits@M@std@@2HB	; std::numeric_limits<float>::min_exponent10
PUBLIC	?value@?$integral_constant@I$0A@@std@@2IB	; std::integral_constant<unsigned int,0>::value
PUBLIC	?digits@?$numeric_limits@N@std@@2HB		; std::numeric_limits<double>::digits
PUBLIC	?digits10@?$numeric_limits@N@std@@2HB		; std::numeric_limits<double>::digits10
PUBLIC	?max_digits10@?$numeric_limits@N@std@@2HB	; std::numeric_limits<double>::max_digits10
PUBLIC	?max_exponent@?$numeric_limits@N@std@@2HB	; std::numeric_limits<double>::max_exponent
PUBLIC	?max_exponent10@?$numeric_limits@N@std@@2HB	; std::numeric_limits<double>::max_exponent10
PUBLIC	?min_exponent@?$numeric_limits@N@std@@2HB	; std::numeric_limits<double>::min_exponent
PUBLIC	?min_exponent10@?$numeric_limits@N@std@@2HB	; std::numeric_limits<double>::min_exponent10
PUBLIC	?digits@?$numeric_limits@O@std@@2HB		; std::numeric_limits<long double>::digits
PUBLIC	?digits10@?$numeric_limits@O@std@@2HB		; std::numeric_limits<long double>::digits10
PUBLIC	?max_digits10@?$numeric_limits@O@std@@2HB	; std::numeric_limits<long double>::max_digits10
PUBLIC	?max_exponent@?$numeric_limits@O@std@@2HB	; std::numeric_limits<long double>::max_exponent
PUBLIC	?max_exponent10@?$numeric_limits@O@std@@2HB	; std::numeric_limits<long double>::max_exponent10
PUBLIC	?min_exponent@?$numeric_limits@O@std@@2HB	; std::numeric_limits<long double>::min_exponent
PUBLIC	?min_exponent10@?$numeric_limits@O@std@@2HB	; std::numeric_limits<long double>::min_exponent10
PUBLIC	?skipws@?$_Iosb@H@std@@2W4_Fmtflags@12@B	; std::_Iosb<int>::skipws
PUBLIC	?unitbuf@?$_Iosb@H@std@@2W4_Fmtflags@12@B	; std::_Iosb<int>::unitbuf
PUBLIC	?uppercase@?$_Iosb@H@std@@2W4_Fmtflags@12@B	; std::_Iosb<int>::uppercase
PUBLIC	?showbase@?$_Iosb@H@std@@2W4_Fmtflags@12@B	; std::_Iosb<int>::showbase
PUBLIC	?showpoint@?$_Iosb@H@std@@2W4_Fmtflags@12@B	; std::_Iosb<int>::showpoint
PUBLIC	?showpos@?$_Iosb@H@std@@2W4_Fmtflags@12@B	; std::_Iosb<int>::showpos
PUBLIC	?left@?$_Iosb@H@std@@2W4_Fmtflags@12@B		; std::_Iosb<int>::left
PUBLIC	?right@?$_Iosb@H@std@@2W4_Fmtflags@12@B		; std::_Iosb<int>::right
PUBLIC	?internal@?$_Iosb@H@std@@2W4_Fmtflags@12@B	; std::_Iosb<int>::internal
PUBLIC	?dec@?$_Iosb@H@std@@2W4_Fmtflags@12@B		; std::_Iosb<int>::dec
PUBLIC	?oct@?$_Iosb@H@std@@2W4_Fmtflags@12@B		; std::_Iosb<int>::oct
PUBLIC	?hex@?$_Iosb@H@std@@2W4_Fmtflags@12@B		; std::_Iosb<int>::hex
PUBLIC	?scientific@?$_Iosb@H@std@@2W4_Fmtflags@12@B	; std::_Iosb<int>::scientific
PUBLIC	?fixed@?$_Iosb@H@std@@2W4_Fmtflags@12@B		; std::_Iosb<int>::fixed
PUBLIC	?hexfloat@?$_Iosb@H@std@@2W4_Fmtflags@12@B	; std::_Iosb<int>::hexfloat
PUBLIC	?boolalpha@?$_Iosb@H@std@@2W4_Fmtflags@12@B	; std::_Iosb<int>::boolalpha
PUBLIC	?_Stdio@?$_Iosb@H@std@@2W4_Fmtflags@12@B	; std::_Iosb<int>::_Stdio
PUBLIC	?adjustfield@?$_Iosb@H@std@@2W4_Fmtflags@12@B	; std::_Iosb<int>::adjustfield
PUBLIC	?basefield@?$_Iosb@H@std@@2W4_Fmtflags@12@B	; std::_Iosb<int>::basefield
PUBLIC	?floatfield@?$_Iosb@H@std@@2W4_Fmtflags@12@B	; std::_Iosb<int>::floatfield
PUBLIC	?goodbit@?$_Iosb@H@std@@2W4_Iostate@12@B	; std::_Iosb<int>::goodbit
PUBLIC	?eofbit@?$_Iosb@H@std@@2W4_Iostate@12@B		; std::_Iosb<int>::eofbit
PUBLIC	?failbit@?$_Iosb@H@std@@2W4_Iostate@12@B	; std::_Iosb<int>::failbit
PUBLIC	?badbit@?$_Iosb@H@std@@2W4_Iostate@12@B		; std::_Iosb<int>::badbit
PUBLIC	?_Hardfail@?$_Iosb@H@std@@2W4_Iostate@12@B	; std::_Iosb<int>::_Hardfail
PUBLIC	?in@?$_Iosb@H@std@@2W4_Openmode@12@B		; std::_Iosb<int>::in
PUBLIC	?out@?$_Iosb@H@std@@2W4_Openmode@12@B		; std::_Iosb<int>::out
PUBLIC	?ate@?$_Iosb@H@std@@2W4_Openmode@12@B		; std::_Iosb<int>::ate
PUBLIC	?app@?$_Iosb@H@std@@2W4_Openmode@12@B		; std::_Iosb<int>::app
PUBLIC	?trunc@?$_Iosb@H@std@@2W4_Openmode@12@B		; std::_Iosb<int>::trunc
PUBLIC	?_Nocreate@?$_Iosb@H@std@@2W4_Openmode@12@B	; std::_Iosb<int>::_Nocreate
PUBLIC	?_Noreplace@?$_Iosb@H@std@@2W4_Openmode@12@B	; std::_Iosb<int>::_Noreplace
PUBLIC	?value@?$_Sizeof@U_Nil@std@@U12@U12@U12@U12@U12@U12@U12@@std@@2IB ; std::_Sizeof<std::_Nil,std::_Nil,std::_Nil,std::_Nil,std::_Nil,std::_Nil,std::_Nil,std::_Nil>::value
PUBLIC	?binary@?$_Iosb@H@std@@2W4_Openmode@12@B	; std::_Iosb<int>::binary
PUBLIC	?beg@?$_Iosb@H@std@@2W4_Seekdir@12@B		; std::_Iosb<int>::beg
PUBLIC	?cur@?$_Iosb@H@std@@2W4_Seekdir@12@B		; std::_Iosb<int>::cur
PUBLIC	?end@?$_Iosb@H@std@@2W4_Seekdir@12@B		; std::_Iosb<int>::end
PUBLIC	?_Stream_err@failure@ios_base@std@@0W4io_errc@43@B ; std::ios_base::failure::_Stream_err
PUBLIC	?has_denorm@_Num_base@std@@2W4float_denorm_style@2@B ; std::_Num_base::has_denorm
PUBLIC	?has_denorm_loss@_Num_base@std@@2_NB		; std::_Num_base::has_denorm_loss
PUBLIC	?has_infinity@_Num_base@std@@2_NB		; std::_Num_base::has_infinity
PUBLIC	?has_quiet_NaN@_Num_base@std@@2_NB		; std::_Num_base::has_quiet_NaN
PUBLIC	?has_signaling_NaN@_Num_base@std@@2_NB		; std::_Num_base::has_signaling_NaN
PUBLIC	?is_bounded@_Num_base@std@@2_NB			; std::_Num_base::is_bounded
PUBLIC	?is_exact@_Num_base@std@@2_NB			; std::_Num_base::is_exact
PUBLIC	?is_iec559@_Num_base@std@@2_NB			; std::_Num_base::is_iec559
PUBLIC	?is_integer@_Num_base@std@@2_NB			; std::_Num_base::is_integer
PUBLIC	?is_modulo@_Num_base@std@@2_NB			; std::_Num_base::is_modulo
PUBLIC	?is_signed@_Num_base@std@@2_NB			; std::_Num_base::is_signed
PUBLIC	?is_specialized@_Num_base@std@@2_NB		; std::_Num_base::is_specialized
PUBLIC	?tinyness_before@_Num_base@std@@2_NB		; std::_Num_base::tinyness_before
;	COMDAT ?tinyness_before@_Num_base@std@@2_NB
CONST	SEGMENT
?tinyness_before@_Num_base@std@@2_NB DB 00H		; std::_Num_base::tinyness_before
CONST	ENDS
;	COMDAT ?is_specialized@_Num_base@std@@2_NB
CONST	SEGMENT
?is_specialized@_Num_base@std@@2_NB DB 00H		; std::_Num_base::is_specialized
CONST	ENDS
;	COMDAT ?is_signed@_Num_base@std@@2_NB
CONST	SEGMENT
?is_signed@_Num_base@std@@2_NB DB 00H			; std::_Num_base::is_signed
CONST	ENDS
;	COMDAT ?is_modulo@_Num_base@std@@2_NB
CONST	SEGMENT
?is_modulo@_Num_base@std@@2_NB DB 00H			; std::_Num_base::is_modulo
CONST	ENDS
;	COMDAT ?is_integer@_Num_base@std@@2_NB
CONST	SEGMENT
?is_integer@_Num_base@std@@2_NB DB 00H			; std::_Num_base::is_integer
CONST	ENDS
;	COMDAT ?is_iec559@_Num_base@std@@2_NB
CONST	SEGMENT
?is_iec559@_Num_base@std@@2_NB DB 00H			; std::_Num_base::is_iec559
CONST	ENDS
;	COMDAT ?is_exact@_Num_base@std@@2_NB
CONST	SEGMENT
?is_exact@_Num_base@std@@2_NB DB 00H			; std::_Num_base::is_exact
CONST	ENDS
;	COMDAT ?is_bounded@_Num_base@std@@2_NB
CONST	SEGMENT
?is_bounded@_Num_base@std@@2_NB DB 00H			; std::_Num_base::is_bounded
CONST	ENDS
;	COMDAT ?has_signaling_NaN@_Num_base@std@@2_NB
CONST	SEGMENT
?has_signaling_NaN@_Num_base@std@@2_NB DB 00H		; std::_Num_base::has_signaling_NaN
CONST	ENDS
;	COMDAT ?has_quiet_NaN@_Num_base@std@@2_NB
CONST	SEGMENT
?has_quiet_NaN@_Num_base@std@@2_NB DB 00H		; std::_Num_base::has_quiet_NaN
CONST	ENDS
;	COMDAT ?has_infinity@_Num_base@std@@2_NB
CONST	SEGMENT
?has_infinity@_Num_base@std@@2_NB DB 00H		; std::_Num_base::has_infinity
CONST	ENDS
;	COMDAT ?has_denorm_loss@_Num_base@std@@2_NB
CONST	SEGMENT
?has_denorm_loss@_Num_base@std@@2_NB DB 00H		; std::_Num_base::has_denorm_loss
CONST	ENDS
;	COMDAT ?has_denorm@_Num_base@std@@2W4float_denorm_style@2@B
CONST	SEGMENT
?has_denorm@_Num_base@std@@2W4float_denorm_style@2@B DD 00H ; std::_Num_base::has_denorm
CONST	ENDS
;	COMDAT ?_Stream_err@failure@ios_base@std@@0W4io_errc@43@B
CONST	SEGMENT
?_Stream_err@failure@ios_base@std@@0W4io_errc@43@B DD 01H ; std::ios_base::failure::_Stream_err
CONST	ENDS
;	COMDAT ?end@?$_Iosb@H@std@@2W4_Seekdir@12@B
CONST	SEGMENT
?end@?$_Iosb@H@std@@2W4_Seekdir@12@B DD 02H		; std::_Iosb<int>::end
CONST	ENDS
;	COMDAT ?cur@?$_Iosb@H@std@@2W4_Seekdir@12@B
CONST	SEGMENT
?cur@?$_Iosb@H@std@@2W4_Seekdir@12@B DD 01H		; std::_Iosb<int>::cur
CONST	ENDS
;	COMDAT ?beg@?$_Iosb@H@std@@2W4_Seekdir@12@B
CONST	SEGMENT
?beg@?$_Iosb@H@std@@2W4_Seekdir@12@B DD 00H		; std::_Iosb<int>::beg
CONST	ENDS
;	COMDAT ?binary@?$_Iosb@H@std@@2W4_Openmode@12@B
CONST	SEGMENT
?binary@?$_Iosb@H@std@@2W4_Openmode@12@B DD 020H	; std::_Iosb<int>::binary
CONST	ENDS
;	COMDAT ?value@?$_Sizeof@U_Nil@std@@U12@U12@U12@U12@U12@U12@U12@@std@@2IB
CONST	SEGMENT
?value@?$_Sizeof@U_Nil@std@@U12@U12@U12@U12@U12@U12@U12@@std@@2IB DD 00H ; std::_Sizeof<std::_Nil,std::_Nil,std::_Nil,std::_Nil,std::_Nil,std::_Nil,std::_Nil,std::_Nil>::value
CONST	ENDS
;	COMDAT ?_Noreplace@?$_Iosb@H@std@@2W4_Openmode@12@B
CONST	SEGMENT
?_Noreplace@?$_Iosb@H@std@@2W4_Openmode@12@B DD 080H	; std::_Iosb<int>::_Noreplace
CONST	ENDS
;	COMDAT ?_Nocreate@?$_Iosb@H@std@@2W4_Openmode@12@B
CONST	SEGMENT
?_Nocreate@?$_Iosb@H@std@@2W4_Openmode@12@B DD 040H	; std::_Iosb<int>::_Nocreate
CONST	ENDS
;	COMDAT ?trunc@?$_Iosb@H@std@@2W4_Openmode@12@B
CONST	SEGMENT
?trunc@?$_Iosb@H@std@@2W4_Openmode@12@B DD 010H		; std::_Iosb<int>::trunc
CONST	ENDS
;	COMDAT ?app@?$_Iosb@H@std@@2W4_Openmode@12@B
CONST	SEGMENT
?app@?$_Iosb@H@std@@2W4_Openmode@12@B DD 08H		; std::_Iosb<int>::app
CONST	ENDS
;	COMDAT ?ate@?$_Iosb@H@std@@2W4_Openmode@12@B
CONST	SEGMENT
?ate@?$_Iosb@H@std@@2W4_Openmode@12@B DD 04H		; std::_Iosb<int>::ate
CONST	ENDS
;	COMDAT ?out@?$_Iosb@H@std@@2W4_Openmode@12@B
CONST	SEGMENT
?out@?$_Iosb@H@std@@2W4_Openmode@12@B DD 02H		; std::_Iosb<int>::out
CONST	ENDS
;	COMDAT ?in@?$_Iosb@H@std@@2W4_Openmode@12@B
CONST	SEGMENT
?in@?$_Iosb@H@std@@2W4_Openmode@12@B DD 01H		; std::_Iosb<int>::in
CONST	ENDS
;	COMDAT ?_Hardfail@?$_Iosb@H@std@@2W4_Iostate@12@B
CONST	SEGMENT
?_Hardfail@?$_Iosb@H@std@@2W4_Iostate@12@B DD 010H	; std::_Iosb<int>::_Hardfail
CONST	ENDS
;	COMDAT ?badbit@?$_Iosb@H@std@@2W4_Iostate@12@B
CONST	SEGMENT
?badbit@?$_Iosb@H@std@@2W4_Iostate@12@B DD 04H		; std::_Iosb<int>::badbit
CONST	ENDS
;	COMDAT ?failbit@?$_Iosb@H@std@@2W4_Iostate@12@B
CONST	SEGMENT
?failbit@?$_Iosb@H@std@@2W4_Iostate@12@B DD 02H		; std::_Iosb<int>::failbit
CONST	ENDS
;	COMDAT ?eofbit@?$_Iosb@H@std@@2W4_Iostate@12@B
CONST	SEGMENT
?eofbit@?$_Iosb@H@std@@2W4_Iostate@12@B DD 01H		; std::_Iosb<int>::eofbit
CONST	ENDS
;	COMDAT ?goodbit@?$_Iosb@H@std@@2W4_Iostate@12@B
CONST	SEGMENT
?goodbit@?$_Iosb@H@std@@2W4_Iostate@12@B DD 00H		; std::_Iosb<int>::goodbit
CONST	ENDS
;	COMDAT ?floatfield@?$_Iosb@H@std@@2W4_Fmtflags@12@B
CONST	SEGMENT
?floatfield@?$_Iosb@H@std@@2W4_Fmtflags@12@B DD 03000H	; std::_Iosb<int>::floatfield
CONST	ENDS
;	COMDAT ?basefield@?$_Iosb@H@std@@2W4_Fmtflags@12@B
CONST	SEGMENT
?basefield@?$_Iosb@H@std@@2W4_Fmtflags@12@B DD 0e00H	; std::_Iosb<int>::basefield
CONST	ENDS
;	COMDAT ?adjustfield@?$_Iosb@H@std@@2W4_Fmtflags@12@B
CONST	SEGMENT
?adjustfield@?$_Iosb@H@std@@2W4_Fmtflags@12@B DD 01c0H	; std::_Iosb<int>::adjustfield
CONST	ENDS
;	COMDAT ?_Stdio@?$_Iosb@H@std@@2W4_Fmtflags@12@B
CONST	SEGMENT
?_Stdio@?$_Iosb@H@std@@2W4_Fmtflags@12@B DD 08000H	; std::_Iosb<int>::_Stdio
CONST	ENDS
;	COMDAT ?boolalpha@?$_Iosb@H@std@@2W4_Fmtflags@12@B
CONST	SEGMENT
?boolalpha@?$_Iosb@H@std@@2W4_Fmtflags@12@B DD 04000H	; std::_Iosb<int>::boolalpha
CONST	ENDS
;	COMDAT ?hexfloat@?$_Iosb@H@std@@2W4_Fmtflags@12@B
CONST	SEGMENT
?hexfloat@?$_Iosb@H@std@@2W4_Fmtflags@12@B DD 03000H	; std::_Iosb<int>::hexfloat
CONST	ENDS
;	COMDAT ?fixed@?$_Iosb@H@std@@2W4_Fmtflags@12@B
CONST	SEGMENT
?fixed@?$_Iosb@H@std@@2W4_Fmtflags@12@B DD 02000H	; std::_Iosb<int>::fixed
CONST	ENDS
;	COMDAT ?scientific@?$_Iosb@H@std@@2W4_Fmtflags@12@B
CONST	SEGMENT
?scientific@?$_Iosb@H@std@@2W4_Fmtflags@12@B DD 01000H	; std::_Iosb<int>::scientific
CONST	ENDS
;	COMDAT ?hex@?$_Iosb@H@std@@2W4_Fmtflags@12@B
CONST	SEGMENT
?hex@?$_Iosb@H@std@@2W4_Fmtflags@12@B DD 0800H		; std::_Iosb<int>::hex
CONST	ENDS
;	COMDAT ?oct@?$_Iosb@H@std@@2W4_Fmtflags@12@B
CONST	SEGMENT
?oct@?$_Iosb@H@std@@2W4_Fmtflags@12@B DD 0400H		; std::_Iosb<int>::oct
CONST	ENDS
;	COMDAT ?dec@?$_Iosb@H@std@@2W4_Fmtflags@12@B
CONST	SEGMENT
?dec@?$_Iosb@H@std@@2W4_Fmtflags@12@B DD 0200H		; std::_Iosb<int>::dec
CONST	ENDS
;	COMDAT ?internal@?$_Iosb@H@std@@2W4_Fmtflags@12@B
CONST	SEGMENT
?internal@?$_Iosb@H@std@@2W4_Fmtflags@12@B DD 0100H	; std::_Iosb<int>::internal
CONST	ENDS
;	COMDAT ?right@?$_Iosb@H@std@@2W4_Fmtflags@12@B
CONST	SEGMENT
?right@?$_Iosb@H@std@@2W4_Fmtflags@12@B DD 080H		; std::_Iosb<int>::right
CONST	ENDS
;	COMDAT ?left@?$_Iosb@H@std@@2W4_Fmtflags@12@B
CONST	SEGMENT
?left@?$_Iosb@H@std@@2W4_Fmtflags@12@B DD 040H		; std::_Iosb<int>::left
CONST	ENDS
;	COMDAT ?showpos@?$_Iosb@H@std@@2W4_Fmtflags@12@B
CONST	SEGMENT
?showpos@?$_Iosb@H@std@@2W4_Fmtflags@12@B DD 020H	; std::_Iosb<int>::showpos
CONST	ENDS
;	COMDAT ?showpoint@?$_Iosb@H@std@@2W4_Fmtflags@12@B
CONST	SEGMENT
?showpoint@?$_Iosb@H@std@@2W4_Fmtflags@12@B DD 010H	; std::_Iosb<int>::showpoint
CONST	ENDS
;	COMDAT ?showbase@?$_Iosb@H@std@@2W4_Fmtflags@12@B
CONST	SEGMENT
?showbase@?$_Iosb@H@std@@2W4_Fmtflags@12@B DD 08H	; std::_Iosb<int>::showbase
CONST	ENDS
;	COMDAT ?uppercase@?$_Iosb@H@std@@2W4_Fmtflags@12@B
CONST	SEGMENT
?uppercase@?$_Iosb@H@std@@2W4_Fmtflags@12@B DD 04H	; std::_Iosb<int>::uppercase
CONST	ENDS
;	COMDAT ?unitbuf@?$_Iosb@H@std@@2W4_Fmtflags@12@B
CONST	SEGMENT
?unitbuf@?$_Iosb@H@std@@2W4_Fmtflags@12@B DD 02H	; std::_Iosb<int>::unitbuf
CONST	ENDS
;	COMDAT ?skipws@?$_Iosb@H@std@@2W4_Fmtflags@12@B
CONST	SEGMENT
?skipws@?$_Iosb@H@std@@2W4_Fmtflags@12@B DD 01H		; std::_Iosb<int>::skipws
CONST	ENDS
;	COMDAT ?min_exponent10@?$numeric_limits@O@std@@2HB
CONST	SEGMENT
?min_exponent10@?$numeric_limits@O@std@@2HB DD 0fffffecdH ; std::numeric_limits<long double>::min_exponent10
CONST	ENDS
;	COMDAT ?min_exponent@?$numeric_limits@O@std@@2HB
CONST	SEGMENT
?min_exponent@?$numeric_limits@O@std@@2HB DD 0fffffc03H	; std::numeric_limits<long double>::min_exponent
CONST	ENDS
;	COMDAT ?max_exponent10@?$numeric_limits@O@std@@2HB
CONST	SEGMENT
?max_exponent10@?$numeric_limits@O@std@@2HB DD 0134H	; std::numeric_limits<long double>::max_exponent10
CONST	ENDS
;	COMDAT ?max_exponent@?$numeric_limits@O@std@@2HB
CONST	SEGMENT
?max_exponent@?$numeric_limits@O@std@@2HB DD 0400H	; std::numeric_limits<long double>::max_exponent
CONST	ENDS
;	COMDAT ?max_digits10@?$numeric_limits@O@std@@2HB
CONST	SEGMENT
?max_digits10@?$numeric_limits@O@std@@2HB DD 011H	; std::numeric_limits<long double>::max_digits10
CONST	ENDS
;	COMDAT ?digits10@?$numeric_limits@O@std@@2HB
CONST	SEGMENT
?digits10@?$numeric_limits@O@std@@2HB DD 0fH		; std::numeric_limits<long double>::digits10
CONST	ENDS
;	COMDAT ?digits@?$numeric_limits@O@std@@2HB
CONST	SEGMENT
?digits@?$numeric_limits@O@std@@2HB DD 035H		; std::numeric_limits<long double>::digits
CONST	ENDS
;	COMDAT ?min_exponent10@?$numeric_limits@N@std@@2HB
CONST	SEGMENT
?min_exponent10@?$numeric_limits@N@std@@2HB DD 0fffffecdH ; std::numeric_limits<double>::min_exponent10
CONST	ENDS
;	COMDAT ?min_exponent@?$numeric_limits@N@std@@2HB
CONST	SEGMENT
?min_exponent@?$numeric_limits@N@std@@2HB DD 0fffffc03H	; std::numeric_limits<double>::min_exponent
CONST	ENDS
;	COMDAT ?max_exponent10@?$numeric_limits@N@std@@2HB
CONST	SEGMENT
?max_exponent10@?$numeric_limits@N@std@@2HB DD 0134H	; std::numeric_limits<double>::max_exponent10
CONST	ENDS
;	COMDAT ?max_exponent@?$numeric_limits@N@std@@2HB
CONST	SEGMENT
?max_exponent@?$numeric_limits@N@std@@2HB DD 0400H	; std::numeric_limits<double>::max_exponent
CONST	ENDS
;	COMDAT ?max_digits10@?$numeric_limits@N@std@@2HB
CONST	SEGMENT
?max_digits10@?$numeric_limits@N@std@@2HB DD 011H	; std::numeric_limits<double>::max_digits10
CONST	ENDS
;	COMDAT ?digits10@?$numeric_limits@N@std@@2HB
CONST	SEGMENT
?digits10@?$numeric_limits@N@std@@2HB DD 0fH		; std::numeric_limits<double>::digits10
CONST	ENDS
;	COMDAT ?digits@?$numeric_limits@N@std@@2HB
CONST	SEGMENT
?digits@?$numeric_limits@N@std@@2HB DD 035H		; std::numeric_limits<double>::digits
CONST	ENDS
;	COMDAT ?value@?$integral_constant@I$0A@@std@@2IB
CONST	SEGMENT
?value@?$integral_constant@I$0A@@std@@2IB DD 00H	; std::integral_constant<unsigned int,0>::value
CONST	ENDS
;	COMDAT ?min_exponent10@?$numeric_limits@M@std@@2HB
CONST	SEGMENT
?min_exponent10@?$numeric_limits@M@std@@2HB DD 0ffffffdbH ; std::numeric_limits<float>::min_exponent10
CONST	ENDS
;	COMDAT ?min_exponent@?$numeric_limits@M@std@@2HB
CONST	SEGMENT
?min_exponent@?$numeric_limits@M@std@@2HB DD 0ffffff83H	; std::numeric_limits<float>::min_exponent
CONST	ENDS
;	COMDAT ?max_exponent10@?$numeric_limits@M@std@@2HB
CONST	SEGMENT
?max_exponent10@?$numeric_limits@M@std@@2HB DD 026H	; std::numeric_limits<float>::max_exponent10
CONST	ENDS
;	COMDAT ?max_exponent@?$numeric_limits@M@std@@2HB
CONST	SEGMENT
?max_exponent@?$numeric_limits@M@std@@2HB DD 080H	; std::numeric_limits<float>::max_exponent
CONST	ENDS
;	COMDAT ?max_digits10@?$numeric_limits@M@std@@2HB
CONST	SEGMENT
?max_digits10@?$numeric_limits@M@std@@2HB DD 09H	; std::numeric_limits<float>::max_digits10
CONST	ENDS
;	COMDAT ?digits10@?$numeric_limits@M@std@@2HB
CONST	SEGMENT
?digits10@?$numeric_limits@M@std@@2HB DD 06H		; std::numeric_limits<float>::digits10
CONST	ENDS
;	COMDAT ?digits@?$numeric_limits@M@std@@2HB
CONST	SEGMENT
?digits@?$numeric_limits@M@std@@2HB DD 018H		; std::numeric_limits<float>::digits
CONST	ENDS
;	COMDAT ?digits10@?$numeric_limits@_K@std@@2HB
CONST	SEGMENT
?digits10@?$numeric_limits@_K@std@@2HB DD 013H		; std::numeric_limits<unsigned __int64>::digits10
CONST	ENDS
;	COMDAT ?digits@?$numeric_limits@_K@std@@2HB
CONST	SEGMENT
?digits@?$numeric_limits@_K@std@@2HB DD 040H		; std::numeric_limits<unsigned __int64>::digits
CONST	ENDS
;	COMDAT ?is_signed@?$numeric_limits@_K@std@@2_NB
CONST	SEGMENT
?is_signed@?$numeric_limits@_K@std@@2_NB DB 00H		; std::numeric_limits<unsigned __int64>::is_signed
CONST	ENDS
;	COMDAT ?digits10@?$numeric_limits@_J@std@@2HB
CONST	SEGMENT
?digits10@?$numeric_limits@_J@std@@2HB DD 012H		; std::numeric_limits<__int64>::digits10
CONST	ENDS
;	COMDAT ?digits@?$numeric_limits@_J@std@@2HB
CONST	SEGMENT
?digits@?$numeric_limits@_J@std@@2HB DD 03fH		; std::numeric_limits<__int64>::digits
CONST	ENDS
;	COMDAT ?is_signed@?$numeric_limits@_J@std@@2_NB
CONST	SEGMENT
?is_signed@?$numeric_limits@_J@std@@2_NB DB 01H		; std::numeric_limits<__int64>::is_signed
CONST	ENDS
_DATA	SEGMENT
_matrix33_ident DD 03f800000r			; 1
	DD	000000000r			; 0
	DD	000000000r			; 0
	DD	000000000r			; 0
	DD	03f800000r			; 1
	DD	000000000r			; 0
	DD	000000000r			; 0
	DD	000000000r			; 0
	DD	03f800000r			; 1
	ORG $+4
_matrix44_ident DD 03f800000r			; 1
	DD	000000000r			; 0
	DD	000000000r			; 0
	DD	000000000r			; 0
	DD	000000000r			; 0
	DD	03f800000r			; 1
	DD	000000000r			; 0
	DD	000000000r			; 0
	DD	000000000r			; 0
	DD	000000000r			; 0
	DD	03f800000r			; 1
	DD	000000000r			; 0
	DD	000000000r			; 0
	DD	000000000r			; 0
	DD	000000000r			; 0
	DD	03f800000r			; 1
_DATA	ENDS
;	COMDAT ?digits10@?$numeric_limits@K@std@@2HB
CONST	SEGMENT
?digits10@?$numeric_limits@K@std@@2HB DD 09H		; std::numeric_limits<unsigned long>::digits10
CONST	ENDS
;	COMDAT ?digits@?$numeric_limits@K@std@@2HB
CONST	SEGMENT
?digits@?$numeric_limits@K@std@@2HB DD 020H		; std::numeric_limits<unsigned long>::digits
CONST	ENDS
;	COMDAT ?is_signed@?$numeric_limits@K@std@@2_NB
CONST	SEGMENT
?is_signed@?$numeric_limits@K@std@@2_NB DB 00H		; std::numeric_limits<unsigned long>::is_signed
CONST	ENDS
;	COMDAT ?digits10@?$numeric_limits@J@std@@2HB
CONST	SEGMENT
?digits10@?$numeric_limits@J@std@@2HB DD 09H		; std::numeric_limits<long>::digits10
CONST	ENDS
;	COMDAT ?digits@?$numeric_limits@J@std@@2HB
CONST	SEGMENT
?digits@?$numeric_limits@J@std@@2HB DD 01fH		; std::numeric_limits<long>::digits
CONST	ENDS
;	COMDAT ?is_signed@?$numeric_limits@J@std@@2_NB
CONST	SEGMENT
?is_signed@?$numeric_limits@J@std@@2_NB DB 01H		; std::numeric_limits<long>::is_signed
CONST	ENDS
;	COMDAT ?digits10@?$numeric_limits@I@std@@2HB
CONST	SEGMENT
?digits10@?$numeric_limits@I@std@@2HB DD 09H		; std::numeric_limits<unsigned int>::digits10
CONST	ENDS
;	COMDAT ?digits@?$numeric_limits@I@std@@2HB
CONST	SEGMENT
?digits@?$numeric_limits@I@std@@2HB DD 020H		; std::numeric_limits<unsigned int>::digits
CONST	ENDS
;	COMDAT ?is_signed@?$numeric_limits@I@std@@2_NB
CONST	SEGMENT
?is_signed@?$numeric_limits@I@std@@2_NB DB 00H		; std::numeric_limits<unsigned int>::is_signed
CONST	ENDS
;	COMDAT ?digits10@?$numeric_limits@H@std@@2HB
CONST	SEGMENT
?digits10@?$numeric_limits@H@std@@2HB DD 09H		; std::numeric_limits<int>::digits10
CONST	ENDS
;	COMDAT ?digits@?$numeric_limits@H@std@@2HB
CONST	SEGMENT
?digits@?$numeric_limits@H@std@@2HB DD 01fH		; std::numeric_limits<int>::digits
CONST	ENDS
;	COMDAT ?value@?$_Sizeof@HU_Nil@std@@U12@U12@U12@U12@U12@U12@@std@@2IB
CONST	SEGMENT
?value@?$_Sizeof@HU_Nil@std@@U12@U12@U12@U12@U12@U12@@std@@2IB DD 01H ; std::_Sizeof<int,std::_Nil,std::_Nil,std::_Nil,std::_Nil,std::_Nil,std::_Nil,std::_Nil>::value
CONST	ENDS
;	COMDAT ?is_signed@?$numeric_limits@H@std@@2_NB
CONST	SEGMENT
?is_signed@?$numeric_limits@H@std@@2_NB DB 01H		; std::numeric_limits<int>::is_signed
CONST	ENDS
;	COMDAT ?digits10@?$numeric_limits@G@std@@2HB
CONST	SEGMENT
?digits10@?$numeric_limits@G@std@@2HB DD 04H		; std::numeric_limits<unsigned short>::digits10
CONST	ENDS
;	COMDAT ?digits@?$numeric_limits@G@std@@2HB
CONST	SEGMENT
?digits@?$numeric_limits@G@std@@2HB DD 010H		; std::numeric_limits<unsigned short>::digits
CONST	ENDS
;	COMDAT ?is_signed@?$numeric_limits@G@std@@2_NB
CONST	SEGMENT
?is_signed@?$numeric_limits@G@std@@2_NB DB 00H		; std::numeric_limits<unsigned short>::is_signed
CONST	ENDS
;	COMDAT ?digits10@?$numeric_limits@F@std@@2HB
CONST	SEGMENT
?digits10@?$numeric_limits@F@std@@2HB DD 04H		; std::numeric_limits<short>::digits10
CONST	ENDS
;	COMDAT ?digits@?$numeric_limits@F@std@@2HB
CONST	SEGMENT
?digits@?$numeric_limits@F@std@@2HB DD 0fH		; std::numeric_limits<short>::digits
CONST	ENDS
;	COMDAT ?is_signed@?$numeric_limits@F@std@@2_NB
CONST	SEGMENT
?is_signed@?$numeric_limits@F@std@@2_NB DB 01H		; std::numeric_limits<short>::is_signed
CONST	ENDS
;	COMDAT ?table_size@?$ctype@D@std@@2IB
CONST	SEGMENT
?table_size@?$ctype@D@std@@2IB DD 0100H			; std::ctype<char>::table_size
CONST	ENDS
;	COMDAT ?value@?$integral_constant@_N$00@std@@2_NB
CONST	SEGMENT
?value@?$integral_constant@_N$00@std@@2_NB DB 01H	; std::integral_constant<bool,1>::value
CONST	ENDS
;	COMDAT ?digits10@?$numeric_limits@E@std@@2HB
CONST	SEGMENT
?digits10@?$numeric_limits@E@std@@2HB DD 02H		; std::numeric_limits<unsigned char>::digits10
CONST	ENDS
;	COMDAT ?digits@?$numeric_limits@E@std@@2HB
CONST	SEGMENT
?digits@?$numeric_limits@E@std@@2HB DD 08H		; std::numeric_limits<unsigned char>::digits
CONST	ENDS
;	COMDAT ?value@?$integral_constant@_N$0A@@std@@2_NB
CONST	SEGMENT
?value@?$integral_constant@_N$0A@@std@@2_NB DB 00H	; std::integral_constant<bool,0>::value
CONST	ENDS
;	COMDAT ?is_signed@?$numeric_limits@E@std@@2_NB
CONST	SEGMENT
?is_signed@?$numeric_limits@E@std@@2_NB DB 00H		; std::numeric_limits<unsigned char>::is_signed
CONST	ENDS
;	COMDAT ?digits10@?$numeric_limits@C@std@@2HB
CONST	SEGMENT
?digits10@?$numeric_limits@C@std@@2HB DD 02H		; std::numeric_limits<signed char>::digits10
CONST	ENDS
;	COMDAT ?digits@?$numeric_limits@C@std@@2HB
CONST	SEGMENT
?digits@?$numeric_limits@C@std@@2HB DD 07H		; std::numeric_limits<signed char>::digits
CONST	ENDS
;	COMDAT ?is_signed@?$numeric_limits@C@std@@2_NB
CONST	SEGMENT
?is_signed@?$numeric_limits@C@std@@2_NB DB 01H		; std::numeric_limits<signed char>::is_signed
CONST	ENDS
;	COMDAT ?digits10@?$numeric_limits@_N@std@@2HB
CONST	SEGMENT
?digits10@?$numeric_limits@_N@std@@2HB DD 00H		; std::numeric_limits<bool>::digits10
CONST	ENDS
;	COMDAT ?digits@?$numeric_limits@_N@std@@2HB
CONST	SEGMENT
?digits@?$numeric_limits@_N@std@@2HB DD 01H		; std::numeric_limits<bool>::digits
CONST	ENDS
;	COMDAT ?is_signed@?$numeric_limits@_N@std@@2_NB
CONST	SEGMENT
?is_signed@?$numeric_limits@_N@std@@2_NB DB 00H		; std::numeric_limits<bool>::is_signed
CONST	ENDS
;	COMDAT ?is_modulo@?$numeric_limits@_N@std@@2_NB
CONST	SEGMENT
?is_modulo@?$numeric_limits@_N@std@@2_NB DB 00H		; std::numeric_limits<bool>::is_modulo
CONST	ENDS
;	COMDAT ?none@?$_Locbase@H@std@@2HB
CONST	SEGMENT
?none@?$_Locbase@H@std@@2HB DD 00H			; std::_Locbase<int>::none
CONST	ENDS
;	COMDAT ?all@?$_Locbase@H@std@@2HB
CONST	SEGMENT
?all@?$_Locbase@H@std@@2HB DD 03fH			; std::_Locbase<int>::all
CONST	ENDS
;	COMDAT ?messages@?$_Locbase@H@std@@2HB
CONST	SEGMENT
?messages@?$_Locbase@H@std@@2HB DD 020H			; std::_Locbase<int>::messages
CONST	ENDS
;	COMDAT ?time@?$_Locbase@H@std@@2HB
CONST	SEGMENT
?time@?$_Locbase@H@std@@2HB DD 010H			; std::_Locbase<int>::time
CONST	ENDS
;	COMDAT ?numeric@?$_Locbase@H@std@@2HB
CONST	SEGMENT
?numeric@?$_Locbase@H@std@@2HB DD 08H			; std::_Locbase<int>::numeric
CONST	ENDS
;	COMDAT ?monetary@?$_Locbase@H@std@@2HB
CONST	SEGMENT
?monetary@?$_Locbase@H@std@@2HB DD 04H			; std::_Locbase<int>::monetary
CONST	ENDS
;	COMDAT ?ctype@?$_Locbase@H@std@@2HB
CONST	SEGMENT
?ctype@?$_Locbase@H@std@@2HB DD 02H			; std::_Locbase<int>::ctype
CONST	ENDS
;	COMDAT ?collate@?$_Locbase@H@std@@2HB
CONST	SEGMENT
?collate@?$_Locbase@H@std@@2HB DD 01H			; std::_Locbase<int>::collate
CONST	ENDS
;	COMDAT ?digits10@?$numeric_limits@_W@std@@2HB
CONST	SEGMENT
?digits10@?$numeric_limits@_W@std@@2HB DD 04H		; std::numeric_limits<wchar_t>::digits10
CONST	ENDS
;	COMDAT ?digits@?$numeric_limits@_W@std@@2HB
CONST	SEGMENT
?digits@?$numeric_limits@_W@std@@2HB DD 010H		; std::numeric_limits<wchar_t>::digits
CONST	ENDS
;	COMDAT ?is_signed@?$numeric_limits@_W@std@@2_NB
CONST	SEGMENT
?is_signed@?$numeric_limits@_W@std@@2_NB DB 00H		; std::numeric_limits<wchar_t>::is_signed
CONST	ENDS
;	COMDAT ?digits10@?$numeric_limits@D@std@@2HB
CONST	SEGMENT
?digits10@?$numeric_limits@D@std@@2HB DD 02H		; std::numeric_limits<char>::digits10
CONST	ENDS
;	COMDAT ?digits@?$numeric_limits@D@std@@2HB
CONST	SEGMENT
?digits@?$numeric_limits@D@std@@2HB DD 07H		; std::numeric_limits<char>::digits
CONST	ENDS
;	COMDAT ?is_signed@?$numeric_limits@D@std@@2_NB
CONST	SEGMENT
?is_signed@?$numeric_limits@D@std@@2_NB DB 01H		; std::numeric_limits<char>::is_signed
CONST	ENDS
;	COMDAT ?radix@_Num_float_base@std@@2HB
CONST	SEGMENT
?radix@_Num_float_base@std@@2HB DD 02H			; std::_Num_float_base::radix
CONST	ENDS
;	COMDAT ?round_style@_Num_float_base@std@@2W4float_round_style@2@B
CONST	SEGMENT
?round_style@_Num_float_base@std@@2W4float_round_style@2@B DD 01H ; std::_Num_float_base::round_style
CONST	ENDS
;	COMDAT ?traps@_Num_float_base@std@@2_NB
CONST	SEGMENT
?traps@_Num_float_base@std@@2_NB DB 00H			; std::_Num_float_base::traps
CONST	ENDS
;	COMDAT ?tinyness_before@_Num_float_base@std@@2_NB
CONST	SEGMENT
?tinyness_before@_Num_float_base@std@@2_NB DB 01H	; std::_Num_float_base::tinyness_before
CONST	ENDS
;	COMDAT ?is_specialized@_Num_float_base@std@@2_NB
CONST	SEGMENT
?is_specialized@_Num_float_base@std@@2_NB DB 01H	; std::_Num_float_base::is_specialized
CONST	ENDS
;	COMDAT ?is_signed@_Num_float_base@std@@2_NB
CONST	SEGMENT
?is_signed@_Num_float_base@std@@2_NB DB 01H		; std::_Num_float_base::is_signed
CONST	ENDS
;	COMDAT ?is_modulo@_Num_float_base@std@@2_NB
CONST	SEGMENT
?is_modulo@_Num_float_base@std@@2_NB DB 00H		; std::_Num_float_base::is_modulo
CONST	ENDS
;	COMDAT ?is_integer@_Num_float_base@std@@2_NB
CONST	SEGMENT
?is_integer@_Num_float_base@std@@2_NB DB 00H		; std::_Num_float_base::is_integer
CONST	ENDS
;	COMDAT ?is_iec559@_Num_float_base@std@@2_NB
CONST	SEGMENT
?is_iec559@_Num_float_base@std@@2_NB DB 01H		; std::_Num_float_base::is_iec559
CONST	ENDS
;	COMDAT ?is_exact@_Num_float_base@std@@2_NB
CONST	SEGMENT
?is_exact@_Num_float_base@std@@2_NB DB 00H		; std::_Num_float_base::is_exact
CONST	ENDS
;	COMDAT ?is_bounded@_Num_float_base@std@@2_NB
CONST	SEGMENT
?is_bounded@_Num_float_base@std@@2_NB DB 01H		; std::_Num_float_base::is_bounded
CONST	ENDS
;	COMDAT ?has_signaling_NaN@_Num_float_base@std@@2_NB
CONST	SEGMENT
?has_signaling_NaN@_Num_float_base@std@@2_NB DB 01H	; std::_Num_float_base::has_signaling_NaN
CONST	ENDS
;	COMDAT ?has_quiet_NaN@_Num_float_base@std@@2_NB
CONST	SEGMENT
?has_quiet_NaN@_Num_float_base@std@@2_NB DB 01H		; std::_Num_float_base::has_quiet_NaN
CONST	ENDS
;	COMDAT ?has_infinity@_Num_float_base@std@@2_NB
CONST	SEGMENT
?has_infinity@_Num_float_base@std@@2_NB DB 01H		; std::_Num_float_base::has_infinity
CONST	ENDS
;	COMDAT ?CMPDIRTYDATA_INTERVAL@FalconEntity@@2KB
CONST	SEGMENT
?CMPDIRTYDATA_INTERVAL@FalconEntity@@2KB DD 0c8H	; FalconEntity::CMPDIRTYDATA_INTERVAL
CONST	ENDS
;	COMDAT ?SIMDIRTYDATA_INTERVAL@FalconEntity@@2KB
CONST	SEGMENT
?SIMDIRTYDATA_INTERVAL@FalconEntity@@2KB DD 0c8H	; FalconEntity::SIMDIRTYDATA_INTERVAL
CONST	ENDS
;	COMDAT ?has_denorm_loss@_Num_float_base@std@@2_NB
CONST	SEGMENT
?has_denorm_loss@_Num_float_base@std@@2_NB DB 01H	; std::_Num_float_base::has_denorm_loss
CONST	ENDS
;	COMDAT ?has_denorm@_Num_float_base@std@@2W4float_denorm_style@2@B
CONST	SEGMENT
?has_denorm@_Num_float_base@std@@2W4float_denorm_style@2@B DD 01H ; std::_Num_float_base::has_denorm
CONST	ENDS
CONST	SEGMENT
_LASER_SLEW_RATE DD 03d4ccccdr			; 0.05
_L_2	DD	03f317218r			; 0.693147
CONST	ENDS
;	COMDAT ?radix@_Num_int_base@std@@2HB
CONST	SEGMENT
?radix@_Num_int_base@std@@2HB DD 02H			; std::_Num_int_base::radix
CONST	ENDS
;	COMDAT ?is_specialized@_Num_int_base@std@@2_NB
CONST	SEGMENT
?is_specialized@_Num_int_base@std@@2_NB DB 01H		; std::_Num_int_base::is_specialized
CONST	ENDS
;	COMDAT ?is_modulo@_Num_int_base@std@@2_NB
CONST	SEGMENT
?is_modulo@_Num_int_base@std@@2_NB DB 01H		; std::_Num_int_base::is_modulo
CONST	ENDS
;	COMDAT ?is_integer@_Num_int_base@std@@2_NB
CONST	SEGMENT
?is_integer@_Num_int_base@std@@2_NB DB 01H		; std::_Num_int_base::is_integer
CONST	ENDS
;	COMDAT ?is_exact@_Num_int_base@std@@2_NB
CONST	SEGMENT
?is_exact@_Num_int_base@std@@2_NB DB 01H		; std::_Num_int_base::is_exact
CONST	ENDS
;	COMDAT ?is_bounded@_Num_int_base@std@@2_NB
CONST	SEGMENT
?is_bounded@_Num_int_base@std@@2_NB DB 01H		; std::_Num_int_base::is_bounded
CONST	ENDS
;	COMDAT ?radix@_Num_base@std@@2HB
CONST	SEGMENT
?radix@_Num_base@std@@2HB DD 00H			; std::_Num_base::radix
CONST	ENDS
;	COMDAT ?min_exponent10@_Num_base@std@@2HB
CONST	SEGMENT
?min_exponent10@_Num_base@std@@2HB DD 00H		; std::_Num_base::min_exponent10
CONST	ENDS
;	COMDAT ?min_exponent@_Num_base@std@@2HB
CONST	SEGMENT
?min_exponent@_Num_base@std@@2HB DD 00H			; std::_Num_base::min_exponent
CONST	ENDS
;	COMDAT ?max_exponent10@_Num_base@std@@2HB
CONST	SEGMENT
?max_exponent10@_Num_base@std@@2HB DD 00H		; std::_Num_base::max_exponent10
CONST	ENDS
;	COMDAT ?max_exponent@_Num_base@std@@2HB
CONST	SEGMENT
?max_exponent@_Num_base@std@@2HB DD 00H			; std::_Num_base::max_exponent
CONST	ENDS
;	COMDAT ?max_digits10@_Num_base@std@@2HB
CONST	SEGMENT
?max_digits10@_Num_base@std@@2HB DD 00H			; std::_Num_base::max_digits10
CONST	ENDS
;	COMDAT ?digits10@_Num_base@std@@2HB
CONST	SEGMENT
?digits10@_Num_base@std@@2HB DD 00H			; std::_Num_base::digits10
CONST	ENDS
;	COMDAT ?digits@_Num_base@std@@2HB
CONST	SEGMENT
?digits@_Num_base@std@@2HB DD 00H			; std::_Num_base::digits
CONST	ENDS
;	COMDAT ?round_style@_Num_base@std@@2W4float_round_style@2@B
CONST	SEGMENT
?round_style@_Num_base@std@@2W4float_round_style@2@B DD 00H ; std::_Num_base::round_style
CONST	ENDS
;	COMDAT ?traps@_Num_base@std@@2_NB
CONST	SEGMENT
?traps@_Num_base@std@@2_NB DB 00H			; std::_Num_base::traps
CONST	ENDS
PUBLIC	_fabsf
PUBLIC	_acosf
PUBLIC	_atanf
PUBLIC	_cosf
PUBLIC	_sinf
PUBLIC	_tanf
PUBLIC	?acos@@YAMM@Z					; acos
PUBLIC	?atan@@YAMM@Z					; atan
PUBLIC	?cos@@YAMM@Z					; cos
PUBLIC	?fabs@@YAMM@Z					; fabs
PUBLIC	?sin@@YAMM@Z					; sin
PUBLIC	?tan@@YAMM@Z					; tan
PUBLIC	?XPos@VuEntity@@QBEMXZ				; VuEntity::XPos
PUBLIC	?YPos@VuEntity@@QBEMXZ				; VuEntity::YPos
PUBLIC	?ZPos@VuEntity@@QBEMXZ				; VuEntity::ZPos
PUBLIC	?Yaw@VuEntity@@QBEMXZ				; VuEntity::Yaw
PUBLIC	?Pitch@VuEntity@@QBEMXZ				; VuEntity::Pitch
PUBLIC	?Roll@VuEntity@@QBEMXZ				; VuEntity::Roll
PUBLIC	??2@YAPAXIPAX@Z					; operator new
PUBLIC	??3@YAXPAX0@Z					; operator delete
PUBLIC	?length@?$char_traits@D@std@@SAIPBD@Z		; std::char_traits<char>::length
PUBLIC	?copy@?$char_traits@D@std@@SAPADPADPBDI@Z	; std::char_traits<char>::copy
PUBLIC	?move@?$char_traits@D@std@@SAPADPADPBDI@Z	; std::char_traits<char>::move
PUBLIC	?assign@?$char_traits@D@std@@SAXAADABD@Z	; std::char_traits<char>::assign
PUBLIC	??0?$allocator@D@std@@QAE@XZ			; std::allocator<char>::allocator<char>
PUBLIC	?deallocate@?$allocator@D@std@@QAEXPADI@Z	; std::allocator<char>::deallocate
PUBLIC	?allocate@?$allocator@D@std@@QAEPADI@Z		; std::allocator<char>::allocate
PUBLIC	?max_size@?$allocator@D@std@@QBEIXZ		; std::allocator<char>::max_size
PUBLIC	?max_size@?$allocator_traits@V?$allocator@D@std@@@std@@SAIABV?$allocator@D@2@@Z ; std::allocator_traits<std::allocator<char> >::max_size
PUBLIC	??0?$_Wrap_alloc@V?$allocator@D@std@@@std@@QAE@XZ ; std::_Wrap_alloc<std::allocator<char> >::_Wrap_alloc<std::allocator<char> >
PUBLIC	?allocate@?$_Wrap_alloc@V?$allocator@D@std@@@std@@QAEPADI@Z ; std::_Wrap_alloc<std::allocator<char> >::allocate
PUBLIC	?deallocate@?$_Wrap_alloc@V?$allocator@D@std@@@std@@QAEXPADI@Z ; std::_Wrap_alloc<std::allocator<char> >::deallocate
PUBLIC	?max_size@?$_Wrap_alloc@V?$allocator@D@std@@@std@@QBEIXZ ; std::_Wrap_alloc<std::allocator<char> >::max_size
PUBLIC	??0?$_String_val@U?$_Simple_types@D@std@@@std@@QAE@XZ ; std::_String_val<std::_Simple_types<char> >::_String_val<std::_Simple_types<char> >
PUBLIC	?_Myptr@?$_String_val@U?$_Simple_types@D@std@@@std@@QAEPADXZ ; std::_String_val<std::_Simple_types<char> >::_Myptr
PUBLIC	?_Myptr@?$_String_val@U?$_Simple_types@D@std@@@std@@QBEPBDXZ ; std::_String_val<std::_Simple_types<char> >::_Myptr
PUBLIC	??0?$_String_alloc@$0A@U?$_String_base_types@DV?$allocator@D@std@@@std@@@std@@QAE@ABV?$allocator@D@1@@Z ; std::_String_alloc<0,std::_String_base_types<char,std::allocator<char> > >::_String_alloc<0,std::_String_base_types<char,std::allocator<char> > >
PUBLIC	?_Getal@?$_String_alloc@$0A@U?$_String_base_types@DV?$allocator@D@std@@@std@@@std@@QBE?AU?$_Wrap_alloc@V?$allocator@D@std@@@2@XZ ; std::_String_alloc<0,std::_String_base_types<char,std::allocator<char> > >::_Getal
PUBLIC	??0?$basic_string@DU?$char_traits@D@std@@V?$allocator@D@2@@std@@QAE@PBD@Z ; std::basic_string<char,std::char_traits<char>,std::allocator<char> >::basic_string<char,std::char_traits<char>,std::allocator<char> >
PUBLIC	?assign@?$basic_string@DU?$char_traits@D@std@@V?$allocator@D@2@@std@@QAEAAV12@ABV12@II@Z ; std::basic_string<char,std::char_traits<char>,std::allocator<char> >::assign
PUBLIC	?assign@?$basic_string@DU?$char_traits@D@std@@V?$allocator@D@2@@std@@QAEAAV12@PBDI@Z ; std::basic_string<char,std::char_traits<char>,std::allocator<char> >::assign
PUBLIC	?assign@?$basic_string@DU?$char_traits@D@std@@V?$allocator@D@2@@std@@QAEAAV12@PBD@Z ; std::basic_string<char,std::char_traits<char>,std::allocator<char> >::assign
PUBLIC	?erase@?$basic_string@DU?$char_traits@D@std@@V?$allocator@D@2@@std@@QAEAAV12@I@Z ; std::basic_string<char,std::char_traits<char>,std::allocator<char> >::erase
PUBLIC	?erase@?$basic_string@DU?$char_traits@D@std@@V?$allocator@D@2@@std@@QAEAAV12@II@Z ; std::basic_string<char,std::char_traits<char>,std::allocator<char> >::erase
PUBLIC	?size@?$basic_string@DU?$char_traits@D@std@@V?$allocator@D@2@@std@@QBEIXZ ; std::basic_string<char,std::char_traits<char>,std::allocator<char> >::size
PUBLIC	?max_size@?$basic_string@DU?$char_traits@D@std@@V?$allocator@D@2@@std@@QBEIXZ ; std::basic_string<char,std::char_traits<char>,std::allocator<char> >::max_size
PUBLIC	?_Copy@?$basic_string@DU?$char_traits@D@std@@V?$allocator@D@2@@std@@QAEXII@Z ; std::basic_string<char,std::char_traits<char>,std::allocator<char> >::_Copy
PUBLIC	?_Eos@?$basic_string@DU?$char_traits@D@std@@V?$allocator@D@2@@std@@QAEXI@Z ; std::basic_string<char,std::char_traits<char>,std::allocator<char> >::_Eos
PUBLIC	?_Grow@?$basic_string@DU?$char_traits@D@std@@V?$allocator@D@2@@std@@QAE_NI_N@Z ; std::basic_string<char,std::char_traits<char>,std::allocator<char> >::_Grow
PUBLIC	?_Inside@?$basic_string@DU?$char_traits@D@std@@V?$allocator@D@2@@std@@QAE_NPBD@Z ; std::basic_string<char,std::char_traits<char>,std::allocator<char> >::_Inside
PUBLIC	?_Tidy@?$basic_string@DU?$char_traits@D@std@@V?$allocator@D@2@@std@@QAEX_NI@Z ; std::basic_string<char,std::char_traits<char>,std::allocator<char> >::_Tidy
PUBLIC	?_Xlen@?$basic_string@DU?$char_traits@D@std@@V?$allocator@D@2@@std@@QBEXXZ ; std::basic_string<char,std::char_traits<char>,std::allocator<char> >::_Xlen
PUBLIC	?_Xran@?$basic_string@DU?$char_traits@D@std@@V?$allocator@D@2@@std@@QBEXXZ ; std::basic_string<char,std::char_traits<char>,std::allocator<char> >::_Xran
PUBLIC	?IsSim@FalconEntity@@QAEHXZ			; FalconEntity::IsSim
PUBLIC	?IsSimObjective@FalconEntity@@QAEHXZ		; FalconEntity::IsSimObjective
PUBLIC	?mlSinCos@@YAXPAUmlTrig@@M@Z			; mlSinCos
PUBLIC	?checked_atan2@@YANNN@Z				; checked_atan2
PUBLIC	?IsSOI@DrawableClass@@QAEHXZ			; DrawableClass::IsSOI
PUBLIC	?CurrentTarget@SensorClass@@QAEPAVSimObjectType@@XZ ; SensorClass::CurrentTarget
PUBLIC	?get@?$VuBin@VFalconEntity@@@@QBEPAVFalconEntity@@XZ ; VuBin<FalconEntity>::get
PUBLIC	?TargetingPodMode@FireControlComputer@@AAEXXZ	; FireControlComputer::TargetingPodMode
PUBLIC	?CheckFeatures@FireControlComputer@@AAEXPAVLaserPodClass@@@Z ; FireControlComputer::CheckFeatures
PUBLIC	?ToggleLaserArm@FireControlComputer@@QAEXXZ	; FireControlComputer::ToggleLaserArm
PUBLIC	?RecalcPos@FireControlComputer@@QAEXXZ		; FireControlComputer::RecalcPos
PUBLIC	?Ownship@SMSBaseClass@@QAEPAVSimVehicleClass@@XZ ; SMSBaseClass::Ownship
PUBLIC	?MasterArm@SMSBaseClass@@QAE?AW4MasterArmState@1@XZ ; SMSBaseClass::MasterArm
PUBLIC	?BaseData@SimObjectType@@QAEPAVFalconEntity@@XZ	; SimObjectType::BaseData
PUBLIC	??0id@locale@std@@QAE@I@Z			; std::locale::id::id
PUBLIC	?generic_category@std@@YAABVerror_category@1@XZ	; std::generic_category
PUBLIC	?system_category@std@@YAABVerror_category@1@XZ	; std::system_category
PUBLIC	??0error_category@std@@QAE@XZ			; std::error_category::error_category
PUBLIC	??1error_category@std@@UAE@XZ			; std::error_category::~error_category
PUBLIC	?default_error_condition@error_category@std@@UBE?AVerror_condition@2@H@Z ; std::error_category::default_error_condition
PUBLIC	?equivalent@error_category@std@@UBE_NHABVerror_condition@2@@Z ; std::error_category::equivalent
PUBLIC	?equivalent@error_category@std@@UBE_NABVerror_code@2@H@Z ; std::error_category::equivalent
PUBLIC	??8error_category@std@@QBE_NABV01@@Z		; std::error_category::operator==
PUBLIC	??_Gerror_category@std@@UAEPAXI@Z		; std::error_category::`scalar deleting destructor'
PUBLIC	?value@error_code@std@@QBEHXZ			; std::error_code::value
PUBLIC	?category@error_code@std@@QBEABVerror_category@2@XZ ; std::error_code::category
PUBLIC	??0error_condition@std@@QAE@HABVerror_category@1@@Z ; std::error_condition::error_condition
PUBLIC	?value@error_condition@std@@QBEHXZ		; std::error_condition::value
PUBLIC	?category@error_condition@std@@QBEABVerror_category@2@XZ ; std::error_condition::category
PUBLIC	??8error_condition@std@@QBE_NABV01@@Z		; std::error_condition::operator==
PUBLIC	??0_Generic_error_category@std@@QAE@XZ		; std::_Generic_error_category::_Generic_error_category
PUBLIC	?name@_Generic_error_category@std@@UBEPBDXZ	; std::_Generic_error_category::name
PUBLIC	?message@_Generic_error_category@std@@UBE?AV?$basic_string@DU?$char_traits@D@std@@V?$allocator@D@2@@2@H@Z ; std::_Generic_error_category::message
PUBLIC	??1_Generic_error_category@std@@UAE@XZ		; std::_Generic_error_category::~_Generic_error_category
PUBLIC	??_G_Generic_error_category@std@@UAEPAXI@Z	; std::_Generic_error_category::`scalar deleting destructor'
PUBLIC	??0_Iostream_error_category@std@@QAE@XZ		; std::_Iostream_error_category::_Iostream_error_category
PUBLIC	?name@_Iostream_error_category@std@@UBEPBDXZ	; std::_Iostream_error_category::name
PUBLIC	?message@_Iostream_error_category@std@@UBE?AV?$basic_string@DU?$char_traits@D@std@@V?$allocator@D@2@@2@H@Z ; std::_Iostream_error_category::message
PUBLIC	??1_Iostream_error_category@std@@UAE@XZ		; std::_Iostream_error_category::~_Iostream_error_category
PUBLIC	??_G_Iostream_error_category@std@@UAEPAXI@Z	; std::_Iostream_error_category::`scalar deleting destructor'
PUBLIC	??0_System_error_category@std@@QAE@XZ		; std::_System_error_category::_System_error_category
PUBLIC	?name@_System_error_category@std@@UBEPBDXZ	; std::_System_error_category::name
PUBLIC	?message@_System_error_category@std@@UBE?AV?$basic_string@DU?$char_traits@D@std@@V?$allocator@D@2@@2@H@Z ; std::_System_error_category::message
PUBLIC	?default_error_condition@_System_error_category@std@@UBE?AVerror_condition@2@H@Z ; std::_System_error_category::default_error_condition
PUBLIC	??1_System_error_category@std@@UAE@XZ		; std::_System_error_category::~_System_error_category
PUBLIC	??_G_System_error_category@std@@UAEPAXI@Z	; std::_System_error_category::`scalar deleting destructor'
PUBLIC	?GetAvionicsType@PlayerOptionsClass@@QAEHXZ	; PlayerOptionsClass::GetAvionicsType
PUBLIC	?Brain@SimVehicleClass@@QAEPAVBaseBrain@@XZ	; SimVehicleClass::Brain
PUBLIC	?IsLocked@LaserPodClass@@QAEHXZ			; LaserPodClass::IsLocked
PUBLIC	?CurFOV@LaserPodClass@@QAEMXZ			; LaserPodClass::CurFOV
PUBLIC	?SetYPR@LaserPodClass@@QAEXMMM@Z		; LaserPodClass::SetYPR
PUBLIC	?GetYPR@LaserPodClass@@QAEXPAM00@Z		; LaserPodClass::GetYPR
PUBLIC	?SetTargetPosition@LaserPodClass@@QAEXMMM@Z	; LaserPodClass::SetTargetPosition
PUBLIC	?AutopilotType@AircraftClass@@QAE?AW4AutoPilotType@1@XZ ; AircraftClass::AutopilotType
PUBLIC	?GetGroundTarget@DigitalBrain@@QAEPAVSimObjectType@@XZ ; DigitalBrain::GetGroundTarget
PUBLIC	?AnalogIsUsed@SIMLIB_IO_CLASS@@QAE_NW4GameAxis_t@@@Z ; SIMLIB_IO_CLASS::AnalogIsUsed
PUBLIC	?GetMaxLasingAlt@AirframeClass@@QAEMXZ		; AirframeClass::GetMaxLasingAlt
PUBLIC	??$construct@PADAAPAD@?$_Wrap_alloc@V?$allocator@D@std@@@std@@QAEXPAPADAAPAD@Z ; std::_Wrap_alloc<std::allocator<char> >::construct<char *,char * &>
PUBLIC	??$destroy@PAD@?$_Wrap_alloc@V?$allocator@D@std@@@std@@QAEXPAPAD@Z ; std::_Wrap_alloc<std::allocator<char> >::destroy<char *>
PUBLIC	??$addressof@D@std@@YAPADAAD@Z			; std::addressof<char>
PUBLIC	??$_Allocate@D@std@@YAPADIPAD@Z			; std::_Allocate<char>
PUBLIC	??$forward@AAPAD@std@@YAAAPADAAPAD@Z		; std::forward<char * &>
PUBLIC	??$construct@PADAAPAD@?$allocator_traits@V?$allocator@D@std@@@std@@SAXAAV?$allocator@D@1@PAPADAAPAD@Z ; std::allocator_traits<std::allocator<char> >::construct<char *,char * &>
PUBLIC	??$destroy@PAD@?$allocator_traits@V?$allocator@D@std@@@std@@SAXAAV?$allocator@D@1@PAPAD@Z ; std::allocator_traits<std::allocator<char> >::destroy<char *>
PUBLIC	??$construct@PADAAPAD@?$allocator@D@std@@QAEXPAPADAAPAD@Z ; std::allocator<char>::construct<char *,char * &>
PUBLIC	??$destroy@PAD@?$allocator@D@std@@QAEXPAPAD@Z	; std::allocator<char>::destroy<char *>
PUBLIC	??_7error_category@std@@6B@			; std::error_category::`vftable'
PUBLIC	??_7_Generic_error_category@std@@6B@		; std::_Generic_error_category::`vftable'
PUBLIC	??_C@_07DCLBNMLN@generic?$AA@			; `string'
PUBLIC	??_C@_0O@BFJCFAAK@unknown?5error?$AA@		; `string'
PUBLIC	??_7_Iostream_error_category@std@@6B@		; std::_Iostream_error_category::`vftable'
PUBLIC	??_C@_08LLGCOLLL@iostream?$AA@			; `string'
PUBLIC	??_C@_0BG@PADBLCHM@iostream?5stream?5error?$AA@	; `string'
PUBLIC	??_7_System_error_category@std@@6B@		; std::_System_error_category::`vftable'
PUBLIC	??_C@_06FHFOAHML@system?$AA@			; `string'
PUBLIC	?_Generic_object@?$_Error_objects@H@std@@2V_Generic_error_category@2@A ; std::_Error_objects<int>::_Generic_object
PUBLIC	?_Iostream_object@?$_Error_objects@H@std@@2V_Iostream_error_category@2@A ; std::_Error_objects<int>::_Iostream_object
PUBLIC	?_System_object@?$_Error_objects@H@std@@2V_System_error_category@2@A ; std::_Error_objects<int>::_System_object
PUBLIC	?id@?$num_put@DV?$back_insert_iterator@V?$basic_string@DU?$char_traits@D@std@@V?$allocator@D@2@@std@@@std@@@std@@2V0locale@2@A ; std::num_put<char,std::back_insert_iterator<std::basic_string<char,std::char_traits<char>,std::allocator<char> > > >::id
PUBLIC	?id@?$num_put@_WV?$back_insert_iterator@V?$basic_string@_WU?$char_traits@_W@std@@V?$allocator@_W@2@@std@@@std@@@std@@2V0locale@2@A ; std::num_put<wchar_t,std::back_insert_iterator<std::basic_string<wchar_t,std::char_traits<wchar_t>,std::allocator<wchar_t> > > >::id
PUBLIC	??_C@_0CI@MMOOAKBD@TGP?5r?$CF?44f?5?$CF?44f?5?$CF?44f?5?5?5ypr?$CF?44f?5?$CF?4@ ; `string'
PUBLIC	?id@?$numpunct@D@std@@2V0locale@2@A		; std::numpunct<char>::id
PUBLIC	?id@?$numpunct@_W@std@@2V0locale@2@A		; std::numpunct<wchar_t>::id
PUBLIC	??_C@_0BI@CFPLBAOH@invalid?5string?5position?$AA@ ; `string'
PUBLIC	??_C@_0BA@JFNIOLAK@string?5too?5long?$AA@	; `string'
PUBLIC	??_R4error_category@std@@6B@			; std::error_category::`RTTI Complete Object Locator'
PUBLIC	??_R0?AVerror_category@std@@@8			; std::error_category `RTTI Type Descriptor'
PUBLIC	??_R3error_category@std@@8			; std::error_category::`RTTI Class Hierarchy Descriptor'
PUBLIC	??_R2error_category@std@@8			; std::error_category::`RTTI Base Class Array'
PUBLIC	??_R1A@?0A@EA@error_category@std@@8		; std::error_category::`RTTI Base Class Descriptor at (0,-1,0,64)'
PUBLIC	??_R4_Generic_error_category@std@@6B@		; std::_Generic_error_category::`RTTI Complete Object Locator'
PUBLIC	??_R0?AV_Generic_error_category@std@@@8		; std::_Generic_error_category `RTTI Type Descriptor'
PUBLIC	??_R3_Generic_error_category@std@@8		; std::_Generic_error_category::`RTTI Class Hierarchy Descriptor'
PUBLIC	??_R2_Generic_error_category@std@@8		; std::_Generic_error_category::`RTTI Base Class Array'
PUBLIC	??_R1A@?0A@EA@_Generic_error_category@std@@8	; std::_Generic_error_category::`RTTI Base Class Descriptor at (0,-1,0,64)'
PUBLIC	??_R4_Iostream_error_category@std@@6B@		; std::_Iostream_error_category::`RTTI Complete Object Locator'
PUBLIC	??_R0?AV_Iostream_error_category@std@@@8	; std::_Iostream_error_category `RTTI Type Descriptor'
PUBLIC	??_R3_Iostream_error_category@std@@8		; std::_Iostream_error_category::`RTTI Class Hierarchy Descriptor'
PUBLIC	??_R2_Iostream_error_category@std@@8		; std::_Iostream_error_category::`RTTI Base Class Array'
PUBLIC	??_R1A@?0A@EA@_Iostream_error_category@std@@8	; std::_Iostream_error_category::`RTTI Base Class Descriptor at (0,-1,0,64)'
PUBLIC	??_R4_System_error_category@std@@6B@		; std::_System_error_category::`RTTI Complete Object Locator'
PUBLIC	??_R0?AV_System_error_category@std@@@8		; std::_System_error_category `RTTI Type Descriptor'
PUBLIC	??_R3_System_error_category@std@@8		; std::_System_error_category::`RTTI Class Hierarchy Descriptor'
PUBLIC	??_R2_System_error_category@std@@8		; std::_System_error_category::`RTTI Base Class Array'
PUBLIC	??_R1A@?0A@EA@_System_error_category@std@@8	; std::_System_error_category::`RTTI Base Class Descriptor at (0,-1,0,64)'
PUBLIC	__real@00000000
PUBLIC	__real@0000000000000000
PUBLIC	__real@36fba882
PUBLIC	__real@38d1b717
PUBLIC	__real@3b64c387
PUBLIC	__real@3c23d70a
PUBLIC	__real@3c8efa34
PUBLIC	__real@3d565d3a
PUBLIC	__real@3d7a35db
PUBLIC	__real@3dcccccd
PUBLIC	__real@3e800000
PUBLIC	__real@3f000000
PUBLIC	__real@3f7fa626
PUBLIC	__real@3f800000
PUBLIC	__real@3ff921fb54442d18
PUBLIC	__real@40000000
PUBLIC	__real@400921f9f01b866e
PUBLIC	__real@400921fb54442d18
PUBLIC	__real@40490fdb
PUBLIC	__real@40900000
PUBLIC	__real@41000000
PUBLIC	__real@41200000
PUBLIC	__real@43340000
PUBLIC	__real@461c4000
PUBLIC	__real@463b8000
PUBLIC	__real@46a41000
PUBLIC	__real@47435000
PUBLIC	__real@484d1400
PUBLIC	__real@8000000000000000
PUBLIC	__real@bf800000
PUBLIC	__real@bff921fb54442d18
PUBLIC	__xmm@80000000800000008000000080000000
EXTRN	__purecall:PROC
EXTRN	??2@YAPAXI@Z:PROC				; operator new
EXTRN	??3@YAXPAX@Z:PROC				; operator delete
EXTRN	_atexit:PROC
EXTRN	_acos:PROC
EXTRN	_atan:PROC
EXTRN	_cos:PROC
EXTRN	_fabs:PROC
EXTRN	_sin:PROC
EXTRN	_tan:PROC
EXTRN	_memcpy:PROC
EXTRN	_strlen:PROC
EXTRN	_memmove:PROC
EXTRN	_MonoPrint:PROC
EXTRN	?F4IsBadReadPtr@@YA_NPBXI@Z:PROC		; F4IsBadReadPtr
EXTRN	?F4IsBadWritePtr@@YA_NPAXI@Z:PROC		; F4IsBadWritePtr
EXTRN	?SetPosition@VuEntity@@QAEXMMM@Z:PROC		; VuEntity::SetPosition
EXTRN	?_Xbad_alloc@std@@YAXXZ:PROC			; std::_Xbad_alloc
EXTRN	?_Xlength_error@std@@YAXPBD@Z:PROC		; std::_Xlength_error
EXTRN	?_Xout_of_range@std@@YAXPBD@Z:PROC		; std::_Xout_of_range
EXTRN	??0VuListIterator@@QAE@PAVVuLinkedList@@@Z:PROC	; VuListIterator::VuListIterator
EXTRN	??1VuListIterator@@UAE@XZ:PROC			; VuListIterator::~VuListIterator
EXTRN	?GetFirst@VuListIterator@@QAEPAVVuEntity@@XZ:PROC ; VuListIterator::GetFirst
EXTRN	?GetNext@VuListIterator@@QAEPAVVuEntity@@XZ:PROC ; VuListIterator::GetNext
EXTRN	?GetLocation@WayPointClass@@QBEXPAM00@Z:PROC	; WayPointClass::GetLocation
EXTRN	?FindSensor@@YAPAVSensorClass@@PAVSimMoverClass@@H@Z:PROC ; FindSensor
EXTRN	?CalcRelGeom@@YAXPAVSimBaseClass@@PAVSimObjectType@@QAY02MM@Z:PROC ; CalcRelGeom
EXTRN	?CalculateImpactPoint@FireControlComputer@@AAEXXZ:PROC ; FireControlComputer::CalculateImpactPoint
EXTRN	?FindRelativeImpactPoint@FireControlComputer@@AAEXXZ:PROC ; FireControlComputer::FindRelativeImpactPoint
EXTRN	?CalculateReleaseRange@FireControlComputer@@AAEXXZ:PROC ; FireControlComputer::CalculateReleaseRange
EXTRN	?FindGroundIntersection@FireControlComputer@@AAEHMMPAM00@Z:PROC ; FireControlComputer::FindGroundIntersection
EXTRN	?UpdateGroundObjectRelativeGeometry@FireControlComputer@@AAEXXZ:PROC ; FireControlComputer::UpdateGroundObjectRelativeGeometry
EXTRN	?ClearCurrentTarget@FireControlComputer@@QAEXXZ:PROC ; FireControlComputer::ClearCurrentTarget
EXTRN	?SetTarget@FireControlComputer@@QAEXPAVSimObjectType@@@Z:PROC ; FireControlComputer::SetTarget
EXTRN	??0SimObjectType@@QAE@PAVFalconEntity@@@Z:PROC	; SimObjectType::SimObjectType
EXTRN	?Reference@SimObjectType@@QAEXXZ:PROC		; SimObjectType::Reference
EXTRN	?Release@SimObjectType@@QAEXXZ:PROC		; SimObjectType::Release
EXTRN	??_Eerror_category@std@@UAEPAXI@Z:PROC		; std::error_category::`vector deleting destructor'
EXTRN	?_Syserror_map@std@@YAPBDH@Z:PROC		; std::_Syserror_map
EXTRN	?_Winerror_map@std@@YAPBDH@Z:PROC		; std::_Winerror_map
EXTRN	??_E_Generic_error_category@std@@UAEPAXI@Z:PROC	; std::_Generic_error_category::`vector deleting destructor'
EXTRN	??_E_Iostream_error_category@std@@UAEPAXI@Z:PROC ; std::_Iostream_error_category::`vector deleting destructor'
EXTRN	??_E_System_error_category@std@@UAEPAXI@Z:PROC	; std::_System_error_category::`vector deleting destructor'
EXTRN	?GetGroundLevel@OTWDriverClass@@QAEMMMPAUTpoint@@@Z:PROC ; OTWDriverClass::GetGroundLevel
EXTRN	?SOIManager@SimVehicleClass@@QAEXW4SOI@1@@Z:PROC ; SimVehicleClass::SOIManager
EXTRN	?LockTarget@LaserPodClass@@QAEHXZ:PROC		; LaserPodClass::LockTarget
EXTRN	?SetDesiredSeekerPos@LaserPodClass@@QAEHPAM0@Z:PROC ; LaserPodClass::SetDesiredSeekerPos
EXTRN	?GetPlayerAircraft@SimulationDriver@@QBEPAVAircraftClass@@XZ:PROC ; SimulationDriver::GetPlayerAircraft
EXTRN	?FindLaserPod@@YAPAVSensorClass@@PAVSimMoverClass@@@Z:PROC ; FindLaserPod
EXTRN	@__security_check_cookie@4:PROC
EXTRN	__CxxThrowException@8:PROC
EXTRN	___CxxFrameHandler3:PROC
EXTRN	?SimLibMajorFrameTime@@3MA:DWORD		; SimLibMajorFrameTime
EXTRN	?g_bRealisticAvionics@@3_NA:BYTE		; g_bRealisticAvionics
EXTRN	??_7type_info@@6B@:QWORD			; type_info::`vftable'
EXTRN	?PlayerOptions@@3VPlayerOptionsClass@@A:BYTE	; PlayerOptions
EXTRN	?OTWDriver@@3VOTWDriverClass@@A:BYTE		; OTWDriver
EXTRN	?SimDriver@@3VSimulationDriver@@A:BYTE		; SimDriver
EXTRN	?cockpitFlightData@@3VFlightData@@A:BYTE	; cockpitFlightData
EXTRN	?IO@@3VSIMLIB_IO_CLASS@@A:BYTE			; IO
EXTRN	?g_fCursorSpeed@@3MA:DWORD			; g_fCursorSpeed
EXTRN	?g_bLgbFixes@@3_NA:BYTE				; g_bLgbFixes
EXTRN	?g_bAGRadarFixes@@3_NA:BYTE			; g_bAGRadarFixes
EXTRN	___security_cookie:DWORD
EXTRN	__fltused:DWORD
_BSS	SEGMENT
_piecewise_construct DB 01H DUP (?)
	ALIGN	4

_allocator_arg DB 01H DUP (?)
_BSS	ENDS
;	COMDAT ?_Generic_object@?$_Error_objects@H@std@@2V_Generic_error_category@2@A
_BSS	SEGMENT
?_Generic_object@?$_Error_objects@H@std@@2V_Generic_error_category@2@A DD 01H DUP (?) ; std::_Error_objects<int>::_Generic_object
_BSS	ENDS
;	COMDAT ?_Iostream_object@?$_Error_objects@H@std@@2V_Iostream_error_category@2@A
_BSS	SEGMENT
?_Iostream_object@?$_Error_objects@H@std@@2V_Iostream_error_category@2@A DD 01H DUP (?) ; std::_Error_objects<int>::_Iostream_object
_BSS	ENDS
;	COMDAT ?_System_object@?$_Error_objects@H@std@@2V_System_error_category@2@A
_BSS	SEGMENT
?_System_object@?$_Error_objects@H@std@@2V_System_error_category@2@A DD 01H DUP (?) ; std::_Error_objects<int>::_System_object
_BSS	ENDS
;	COMDAT ?id@?$num_put@DV?$back_insert_iterator@V?$basic_string@DU?$char_traits@D@std@@V?$allocator@D@2@@std@@@std@@@std@@2V0locale@2@A
_BSS	SEGMENT
?id@?$num_put@DV?$back_insert_iterator@V?$basic_string@DU?$char_traits@D@std@@V?$allocator@D@2@@std@@@std@@@std@@2V0locale@2@A DD 01H DUP (?) ; std::num_put<char,std::back_insert_iterator<std::basic_string<char,std::char_traits<char>,std::allocator<char> > > >::id
_BSS	ENDS
;	COMDAT ?id@?$num_put@_WV?$back_insert_iterator@V?$basic_string@_WU?$char_traits@_W@std@@V?$allocator@_W@2@@std@@@std@@@std@@2V0locale@2@A
_BSS	SEGMENT
?id@?$num_put@_WV?$back_insert_iterator@V?$basic_string@_WU?$char_traits@_W@std@@V?$allocator@_W@2@@std@@@std@@@std@@2V0locale@2@A DD 01H DUP (?) ; std::num_put<wchar_t,std::back_insert_iterator<std::basic_string<wchar_t,std::char_traits<wchar_t>,std::allocator<wchar_t> > > >::id
_BSS	ENDS
_BSS	SEGMENT
	ALIGN	4

_rangeFOV DD	01H DUP (?)
_BSS	ENDS
;	COMDAT ?id@?$numpunct@D@std@@2V0locale@2@A
_BSS	SEGMENT
?id@?$numpunct@D@std@@2V0locale@2@A DD 01H DUP (?)	; std::numpunct<char>::id
_BSS	ENDS
;	COMDAT ?id@?$numpunct@_W@std@@2V0locale@2@A
_BSS	SEGMENT
?id@?$numpunct@_W@std@@2V0locale@2@A DD 01H DUP (?)	; std::numpunct<wchar_t>::id
_BSS	ENDS
CRT$XCU	SEGMENT
_piecewise_construct$initializer$ DD FLAT:??__Epiecewise_construct@std@@YAXXZ
CRT$XCU	ENDS
;	COMDAT __xmm@80000000800000008000000080000000
CONST	SEGMENT
__xmm@80000000800000008000000080000000 DB 00H, 00H, 00H, 080H, 00H, 00H, 00H
	DB	080H, 00H, 00H, 00H, 080H, 00H, 00H, 00H, 080H
CONST	ENDS
;	COMDAT __real@bff921fb54442d18
CONST	SEGMENT
__real@bff921fb54442d18 DQ 0bff921fb54442d18r	; -1.5708
CONST	ENDS
;	COMDAT __real@bf800000
CONST	SEGMENT
__real@bf800000 DD 0bf800000r			; -1
CONST	ENDS
;	COMDAT __real@8000000000000000
CONST	SEGMENT
__real@8000000000000000 DQ 08000000000000000r	; -0
CONST	ENDS
;	COMDAT __real@484d1400
CONST	SEGMENT
__real@484d1400 DD 0484d1400r			; 210000
CONST	ENDS
;	COMDAT __real@47435000
CONST	SEGMENT
__real@47435000 DD 047435000r			; 50000
CONST	ENDS
;	COMDAT __real@46a41000
CONST	SEGMENT
__real@46a41000 DD 046a41000r			; 21000
CONST	ENDS
;	COMDAT __real@463b8000
CONST	SEGMENT
__real@463b8000 DD 0463b8000r			; 12000
CONST	ENDS
;	COMDAT __real@461c4000
CONST	SEGMENT
__real@461c4000 DD 0461c4000r			; 10000
CONST	ENDS
;	COMDAT __real@43340000
CONST	SEGMENT
__real@43340000 DD 043340000r			; 180
CONST	ENDS
;	COMDAT __real@41200000
CONST	SEGMENT
__real@41200000 DD 041200000r			; 10
CONST	ENDS
;	COMDAT __real@41000000
CONST	SEGMENT
__real@41000000 DD 041000000r			; 8
CONST	ENDS
;	COMDAT __real@40900000
CONST	SEGMENT
__real@40900000 DD 040900000r			; 4.5
CONST	ENDS
;	COMDAT __real@40490fdb
CONST	SEGMENT
__real@40490fdb DD 040490fdbr			; 3.14159
CONST	ENDS
;	COMDAT __real@400921fb54442d18
CONST	SEGMENT
__real@400921fb54442d18 DQ 0400921fb54442d18r	; 3.14159
CONST	ENDS
;	COMDAT __real@400921f9f01b866e
CONST	SEGMENT
__real@400921f9f01b866e DQ 0400921f9f01b866er	; 3.14159
CONST	ENDS
;	COMDAT __real@40000000
CONST	SEGMENT
__real@40000000 DD 040000000r			; 2
CONST	ENDS
;	COMDAT __real@3ff921fb54442d18
CONST	SEGMENT
__real@3ff921fb54442d18 DQ 03ff921fb54442d18r	; 1.5708
CONST	ENDS
;	COMDAT __real@3f800000
CONST	SEGMENT
__real@3f800000 DD 03f800000r			; 1
CONST	ENDS
;	COMDAT __real@3f7fa626
CONST	SEGMENT
__real@3f7fa626 DD 03f7fa626r			; 0.998629
CONST	ENDS
;	COMDAT __real@3f000000
CONST	SEGMENT
__real@3f000000 DD 03f000000r			; 0.5
CONST	ENDS
;	COMDAT __real@3e800000
CONST	SEGMENT
__real@3e800000 DD 03e800000r			; 0.25
CONST	ENDS
;	COMDAT __real@3dcccccd
CONST	SEGMENT
__real@3dcccccd DD 03dcccccdr			; 0.1
CONST	ENDS
;	COMDAT __real@3d7a35db
CONST	SEGMENT
__real@3d7a35db DD 03d7a35dbr			; 0.0610865
CONST	ENDS
;	COMDAT __real@3d565d3a
CONST	SEGMENT
__real@3d565d3a DD 03d565d3ar			; 0.052335
CONST	ENDS
;	COMDAT __real@3c8efa34
CONST	SEGMENT
__real@3c8efa34 DD 03c8efa34r			; 0.0174533
CONST	ENDS
;	COMDAT __real@3c23d70a
CONST	SEGMENT
__real@3c23d70a DD 03c23d70ar			; 0.01
CONST	ENDS
;	COMDAT __real@3b64c387
CONST	SEGMENT
__real@3b64c387 DD 03b64c387r			; 0.00349066
CONST	ENDS
;	COMDAT __real@38d1b717
CONST	SEGMENT
__real@38d1b717 DD 038d1b717r			; 0.0001
CONST	ENDS
;	COMDAT __real@36fba882
CONST	SEGMENT
__real@36fba882 DD 036fba882r			; 7.5e-006
CONST	ENDS
;	COMDAT __real@0000000000000000
CONST	SEGMENT
__real@0000000000000000 DQ 00000000000000000r	; 0
CONST	ENDS
;	COMDAT __real@00000000
CONST	SEGMENT
__real@00000000 DD 000000000r			; 0
CONST	ENDS
;	COMDAT ??_R1A@?0A@EA@_System_error_category@std@@8
rdata$r	SEGMENT
??_R1A@?0A@EA@_System_error_category@std@@8 DD FLAT:??_R0?AV_System_error_category@std@@@8 ; std::_System_error_category::`RTTI Base Class Descriptor at (0,-1,0,64)'
	DD	02H
	DD	00H
	DD	0ffffffffH
	DD	00H
	DD	040H
	DD	FLAT:??_R3_System_error_category@std@@8
rdata$r	ENDS
;	COMDAT ??_R2_System_error_category@std@@8
rdata$r	SEGMENT
??_R2_System_error_category@std@@8 DD FLAT:??_R1A@?0A@EA@_System_error_category@std@@8 ; std::_System_error_category::`RTTI Base Class Array'
	DD	FLAT:??_R1A@?0A@EA@_Generic_error_category@std@@8
	DD	FLAT:??_R1A@?0A@EA@error_category@std@@8
rdata$r	ENDS
;	COMDAT ??_R3_System_error_category@std@@8
rdata$r	SEGMENT
??_R3_System_error_category@std@@8 DD 00H		; std::_System_error_category::`RTTI Class Hierarchy Descriptor'
	DD	00H
	DD	03H
	DD	FLAT:??_R2_System_error_category@std@@8
rdata$r	ENDS
;	COMDAT ??_R0?AV_System_error_category@std@@@8
_DATA	SEGMENT
??_R0?AV_System_error_category@std@@@8 DD FLAT:??_7type_info@@6B@ ; std::_System_error_category `RTTI Type Descriptor'
	DD	00H
	DB	'.?AV_System_error_category@std@@', 00H
_DATA	ENDS
;	COMDAT ??_R4_System_error_category@std@@6B@
rdata$r	SEGMENT
??_R4_System_error_category@std@@6B@ DD 00H		; std::_System_error_category::`RTTI Complete Object Locator'
	DD	00H
	DD	00H
	DD	FLAT:??_R0?AV_System_error_category@std@@@8
	DD	FLAT:??_R3_System_error_category@std@@8
rdata$r	ENDS
;	COMDAT ??_R1A@?0A@EA@_Iostream_error_category@std@@8
rdata$r	SEGMENT
??_R1A@?0A@EA@_Iostream_error_category@std@@8 DD FLAT:??_R0?AV_Iostream_error_category@std@@@8 ; std::_Iostream_error_category::`RTTI Base Class Descriptor at (0,-1,0,64)'
	DD	02H
	DD	00H
	DD	0ffffffffH
	DD	00H
	DD	040H
	DD	FLAT:??_R3_Iostream_error_category@std@@8
rdata$r	ENDS
;	COMDAT ??_R2_Iostream_error_category@std@@8
rdata$r	SEGMENT
??_R2_Iostream_error_category@std@@8 DD FLAT:??_R1A@?0A@EA@_Iostream_error_category@std@@8 ; std::_Iostream_error_category::`RTTI Base Class Array'
	DD	FLAT:??_R1A@?0A@EA@_Generic_error_category@std@@8
	DD	FLAT:??_R1A@?0A@EA@error_category@std@@8
rdata$r	ENDS
;	COMDAT ??_R3_Iostream_error_category@std@@8
rdata$r	SEGMENT
??_R3_Iostream_error_category@std@@8 DD 00H		; std::_Iostream_error_category::`RTTI Class Hierarchy Descriptor'
	DD	00H
	DD	03H
	DD	FLAT:??_R2_Iostream_error_category@std@@8
rdata$r	ENDS
;	COMDAT ??_R0?AV_Iostream_error_category@std@@@8
_DATA	SEGMENT
??_R0?AV_Iostream_error_category@std@@@8 DD FLAT:??_7type_info@@6B@ ; std::_Iostream_error_category `RTTI Type Descriptor'
	DD	00H
	DB	'.?AV_Iostream_error_category@std@@', 00H
_DATA	ENDS
;	COMDAT ??_R4_Iostream_error_category@std@@6B@
rdata$r	SEGMENT
??_R4_Iostream_error_category@std@@6B@ DD 00H		; std::_Iostream_error_category::`RTTI Complete Object Locator'
	DD	00H
	DD	00H
	DD	FLAT:??_R0?AV_Iostream_error_category@std@@@8
	DD	FLAT:??_R3_Iostream_error_category@std@@8
rdata$r	ENDS
;	COMDAT ??_R1A@?0A@EA@_Generic_error_category@std@@8
rdata$r	SEGMENT
??_R1A@?0A@EA@_Generic_error_category@std@@8 DD FLAT:??_R0?AV_Generic_error_category@std@@@8 ; std::_Generic_error_category::`RTTI Base Class Descriptor at (0,-1,0,64)'
	DD	01H
	DD	00H
	DD	0ffffffffH
	DD	00H
	DD	040H
	DD	FLAT:??_R3_Generic_error_category@std@@8
rdata$r	ENDS
;	COMDAT ??_R2_Generic_error_category@std@@8
rdata$r	SEGMENT
??_R2_Generic_error_category@std@@8 DD FLAT:??_R1A@?0A@EA@_Generic_error_category@std@@8 ; std::_Generic_error_category::`RTTI Base Class Array'
	DD	FLAT:??_R1A@?0A@EA@error_category@std@@8
rdata$r	ENDS
;	COMDAT ??_R3_Generic_error_category@std@@8
rdata$r	SEGMENT
??_R3_Generic_error_category@std@@8 DD 00H		; std::_Generic_error_category::`RTTI Class Hierarchy Descriptor'
	DD	00H
	DD	02H
	DD	FLAT:??_R2_Generic_error_category@std@@8
rdata$r	ENDS
;	COMDAT ??_R0?AV_Generic_error_category@std@@@8
_DATA	SEGMENT
??_R0?AV_Generic_error_category@std@@@8 DD FLAT:??_7type_info@@6B@ ; std::_Generic_error_category `RTTI Type Descriptor'
	DD	00H
	DB	'.?AV_Generic_error_category@std@@', 00H
_DATA	ENDS
;	COMDAT ??_R4_Generic_error_category@std@@6B@
rdata$r	SEGMENT
??_R4_Generic_error_category@std@@6B@ DD 00H		; std::_Generic_error_category::`RTTI Complete Object Locator'
	DD	00H
	DD	00H
	DD	FLAT:??_R0?AV_Generic_error_category@std@@@8
	DD	FLAT:??_R3_Generic_error_category@std@@8
rdata$r	ENDS
;	COMDAT ??_R1A@?0A@EA@error_category@std@@8
rdata$r	SEGMENT
??_R1A@?0A@EA@error_category@std@@8 DD FLAT:??_R0?AVerror_category@std@@@8 ; std::error_category::`RTTI Base Class Descriptor at (0,-1,0,64)'
	DD	00H
	DD	00H
	DD	0ffffffffH
	DD	00H
	DD	040H
	DD	FLAT:??_R3error_category@std@@8
rdata$r	ENDS
;	COMDAT ??_R2error_category@std@@8
rdata$r	SEGMENT
??_R2error_category@std@@8 DD FLAT:??_R1A@?0A@EA@error_category@std@@8 ; std::error_category::`RTTI Base Class Array'
rdata$r	ENDS
;	COMDAT ??_R3error_category@std@@8
rdata$r	SEGMENT
??_R3error_category@std@@8 DD 00H			; std::error_category::`RTTI Class Hierarchy Descriptor'
	DD	00H
	DD	01H
	DD	FLAT:??_R2error_category@std@@8
rdata$r	ENDS
;	COMDAT ??_R0?AVerror_category@std@@@8
_DATA	SEGMENT
??_R0?AVerror_category@std@@@8 DD FLAT:??_7type_info@@6B@ ; std::error_category `RTTI Type Descriptor'
	DD	00H
	DB	'.?AVerror_category@std@@', 00H
_DATA	ENDS
;	COMDAT ??_R4error_category@std@@6B@
rdata$r	SEGMENT
??_R4error_category@std@@6B@ DD 00H			; std::error_category::`RTTI Complete Object Locator'
	DD	00H
	DD	00H
	DD	FLAT:??_R0?AVerror_category@std@@@8
	DD	FLAT:??_R3error_category@std@@8
rdata$r	ENDS
;	COMDAT ??_C@_0BA@JFNIOLAK@string?5too?5long?$AA@
CONST	SEGMENT
??_C@_0BA@JFNIOLAK@string?5too?5long?$AA@ DB 'string too long', 00H ; `string'
CONST	ENDS
;	COMDAT ??_C@_0BI@CFPLBAOH@invalid?5string?5position?$AA@
CONST	SEGMENT
??_C@_0BI@CFPLBAOH@invalid?5string?5position?$AA@ DB 'invalid string posi'
	DB	'tion', 00H					; `string'
CONST	ENDS
;	COMDAT ??_C@_0CI@MMOOAKBD@TGP?5r?$CF?44f?5?$CF?44f?5?$CF?44f?5?5?5ypr?$CF?44f?5?$CF?4@
CONST	SEGMENT
??_C@_0CI@MMOOAKBD@TGP?5r?$CF?44f?5?$CF?44f?5?$CF?44f?5?5?5ypr?$CF?44f?5?$CF?4@ DB 'T'
	DB	'GP r%.4f %.4f %.4f   ypr%.4f %.4f %.4f', 00H ; `string'
CONST	ENDS
;	COMDAT ??_C@_06FHFOAHML@system?$AA@
CONST	SEGMENT
??_C@_06FHFOAHML@system?$AA@ DB 'system', 00H		; `string'
CONST	ENDS
;	COMDAT ??_7_System_error_category@std@@6B@
CONST	SEGMENT
??_7_System_error_category@std@@6B@ DD FLAT:??_R4_System_error_category@std@@6B@ ; std::_System_error_category::`vftable'
	DD	FLAT:??_E_System_error_category@std@@UAEPAXI@Z
	DD	FLAT:?name@_System_error_category@std@@UBEPBDXZ
	DD	FLAT:?message@_System_error_category@std@@UBE?AV?$basic_string@DU?$char_traits@D@std@@V?$allocator@D@2@@2@H@Z
	DD	FLAT:?default_error_condition@_System_error_category@std@@UBE?AVerror_condition@2@H@Z
	DD	FLAT:?equivalent@error_category@std@@UBE_NABVerror_code@2@H@Z
	DD	FLAT:?equivalent@error_category@std@@UBE_NHABVerror_condition@2@@Z
CONST	ENDS
;	COMDAT ??_C@_0BG@PADBLCHM@iostream?5stream?5error?$AA@
CONST	SEGMENT
??_C@_0BG@PADBLCHM@iostream?5stream?5error?$AA@ DB 'iostream stream error'
	DB	00H						; `string'
CONST	ENDS
;	COMDAT ??_C@_08LLGCOLLL@iostream?$AA@
CONST	SEGMENT
??_C@_08LLGCOLLL@iostream?$AA@ DB 'iostream', 00H	; `string'
CONST	ENDS
;	COMDAT ??_7_Iostream_error_category@std@@6B@
CONST	SEGMENT
??_7_Iostream_error_category@std@@6B@ DD FLAT:??_R4_Iostream_error_category@std@@6B@ ; std::_Iostream_error_category::`vftable'
	DD	FLAT:??_E_Iostream_error_category@std@@UAEPAXI@Z
	DD	FLAT:?name@_Iostream_error_category@std@@UBEPBDXZ
	DD	FLAT:?message@_Iostream_error_category@std@@UBE?AV?$basic_string@DU?$char_traits@D@std@@V?$allocator@D@2@@2@H@Z
	DD	FLAT:?default_error_condition@error_category@std@@UBE?AVerror_condition@2@H@Z
	DD	FLAT:?equivalent@error_category@std@@UBE_NABVerror_code@2@H@Z
	DD	FLAT:?equivalent@error_category@std@@UBE_NHABVerror_condition@2@@Z
CONST	ENDS
;	COMDAT ??_C@_0O@BFJCFAAK@unknown?5error?$AA@
CONST	SEGMENT
??_C@_0O@BFJCFAAK@unknown?5error?$AA@ DB 'unknown error', 00H ; `string'
CONST	ENDS
;	COMDAT ??_C@_07DCLBNMLN@generic?$AA@
CONST	SEGMENT
??_C@_07DCLBNMLN@generic?$AA@ DB 'generic', 00H		; `string'
CONST	ENDS
;	COMDAT ??_7_Generic_error_category@std@@6B@
CONST	SEGMENT
??_7_Generic_error_category@std@@6B@ DD FLAT:??_R4_Generic_error_category@std@@6B@ ; std::_Generic_error_category::`vftable'
	DD	FLAT:??_E_Generic_error_category@std@@UAEPAXI@Z
	DD	FLAT:?name@_Generic_error_category@std@@UBEPBDXZ
	DD	FLAT:?message@_Generic_error_category@std@@UBE?AV?$basic_string@DU?$char_traits@D@std@@V?$allocator@D@2@@2@H@Z
	DD	FLAT:?default_error_condition@error_category@std@@UBE?AVerror_condition@2@H@Z
	DD	FLAT:?equivalent@error_category@std@@UBE_NABVerror_code@2@H@Z
	DD	FLAT:?equivalent@error_category@std@@UBE_NHABVerror_condition@2@@Z
CONST	ENDS
;	COMDAT ??_7error_category@std@@6B@
CONST	SEGMENT
??_7error_category@std@@6B@ DD FLAT:??_R4error_category@std@@6B@ ; std::error_category::`vftable'
	DD	FLAT:??_Eerror_category@std@@UAEPAXI@Z
	DD	FLAT:__purecall
	DD	FLAT:__purecall
	DD	FLAT:?default_error_condition@error_category@std@@UBE?AVerror_condition@2@H@Z
	DD	FLAT:?equivalent@error_category@std@@UBE_NABVerror_code@2@H@Z
	DD	FLAT:?equivalent@error_category@std@@UBE_NHABVerror_condition@2@@Z
CONST	ENDS
;	COMDAT xdata$x
xdata$x	SEGMENT
__unwindtable$??$construct@PADAAPAD@?$allocator@D@std@@QAEXPAPADAAPAD@Z DD 0ffffffffH
	DD	FLAT:__unwindfunclet$??$construct@PADAAPAD@?$allocator@D@std@@QAEXPAPADAAPAD@Z$0
__ehfuncinfo$??$construct@PADAAPAD@?$allocator@D@std@@QAEXPAPADAAPAD@Z DD 019930522H
	DD	01H
	DD	FLAT:__unwindtable$??$construct@PADAAPAD@?$allocator@D@std@@QAEXPAPADAAPAD@Z
	DD	2 DUP(00H)
	DD	2 DUP(00H)
	DD	00H
	DD	01H
xdata$x	ENDS
xdata$x	SEGMENT
__unwindtable$?CheckFeatures@FireControlComputer@@AAEXPAVLaserPodClass@@@Z DD 0ffffffffH
	DD	FLAT:__unwindfunclet$?CheckFeatures@FireControlComputer@@AAEXPAVLaserPodClass@@@Z$0
	DD	0ffffffffH
	DD	FLAT:__unwindfunclet$?CheckFeatures@FireControlComputer@@AAEXPAVLaserPodClass@@@Z$1
__ehfuncinfo$?CheckFeatures@FireControlComputer@@AAEXPAVLaserPodClass@@@Z DD 019930522H
	DD	02H
	DD	FLAT:__unwindtable$?CheckFeatures@FireControlComputer@@AAEXPAVLaserPodClass@@@Z
	DD	2 DUP(00H)
	DD	2 DUP(00H)
	DD	00H
	DD	01H
xdata$x	ENDS
;	COMDAT xdata$x
xdata$x	SEGMENT
__catchsym$?_Copy@?$basic_string@DU?$char_traits@D@std@@V?$allocator@D@2@@std@@QAEXII@Z$5 DD 040H
	DD	00H
	DD	00H
	DD	FLAT:__catch$?_Copy@?$basic_string@DU?$char_traits@D@std@@V?$allocator@D@2@@std@@QAEXII@Z$0
__catchsym$?_Copy@?$basic_string@DU?$char_traits@D@std@@V?$allocator@D@2@@std@@QAEXII@Z$4 DD 040H
	DD	00H
	DD	00H
	DD	FLAT:__catch$?_Copy@?$basic_string@DU?$char_traits@D@std@@V?$allocator@D@2@@std@@QAEXII@Z$1
__unwindtable$?_Copy@?$basic_string@DU?$char_traits@D@std@@V?$allocator@D@2@@std@@QAEXII@Z DD 0ffffffffH
	DD	00H
	DD	0ffffffffH
	DD	00H
	DD	01H
	DD	00H
	DD	01H
	DD	00H
__ehfuncinfo$?_Copy@?$basic_string@DU?$char_traits@D@std@@V?$allocator@D@2@@std@@QAEXII@Z DD 019930522H
	DD	04H
	DD	FLAT:__unwindtable$?_Copy@?$basic_string@DU?$char_traits@D@std@@V?$allocator@D@2@@std@@QAEXII@Z
	DD	02H
	DD	FLAT:__tryblocktable$?_Copy@?$basic_string@DU?$char_traits@D@std@@V?$allocator@D@2@@std@@QAEXII@Z
	DD	2 DUP(00H)
	DD	00H
	DD	01H
__tryblocktable$?_Copy@?$basic_string@DU?$char_traits@D@std@@V?$allocator@D@2@@std@@QAEXII@Z DD 02H
	DD	02H
	DD	03H
	DD	01H
	DD	FLAT:__catchsym$?_Copy@?$basic_string@DU?$char_traits@D@std@@V?$allocator@D@2@@std@@QAEXII@Z$4
	DD	00H
	DD	00H
	DD	03H
	DD	01H
	DD	FLAT:__catchsym$?_Copy@?$basic_string@DU?$char_traits@D@std@@V?$allocator@D@2@@std@@QAEXII@Z$5
xdata$x	ENDS
CRT$XCU	SEGMENT
_allocator_arg$initializer$ DD FLAT:??__Eallocator_arg@std@@YAXXZ
CRT$XCU	ENDS
CRT$XCU	SEGMENT
_rangeFOV$initializer$ DD FLAT:??__ErangeFOV@@YAXXZ
CRT$XCU	ENDS
;	COMDAT CRT$XCU
CRT$XCU	SEGMENT
?_Generic_object$initializer$@?$_Error_objects@H@std@@2P6AXXZA DD FLAT:??__E?_Generic_object@?$_Error_objects@H@std@@2V_Generic_error_category@2@A@@YAXXZ ; std::_Error_objects<int>::_Generic_object$initializer$
CRT$XCU	ENDS
;	COMDAT CRT$XCU
CRT$XCU	SEGMENT
?_Iostream_object$initializer$@?$_Error_objects@H@std@@2P6AXXZA DD FLAT:??__E?_Iostream_object@?$_Error_objects@H@std@@2V_Iostream_error_category@2@A@@YAXXZ ; std::_Error_objects<int>::_Iostream_object$initializer$
CRT$XCU	ENDS
;	COMDAT CRT$XCU
CRT$XCU	SEGMENT
?_System_object$initializer$@?$_Error_objects@H@std@@2P6AXXZA DD FLAT:??__E?_System_object@?$_Error_objects@H@std@@2V_System_error_category@2@A@@YAXXZ ; std::_Error_objects<int>::_System_object$initializer$
CRT$XCU	ENDS
;	COMDAT CRT$XCU
CRT$XCU	SEGMENT
?id$initializer$@?$num_put@DV?$back_insert_iterator@V?$basic_string@DU?$char_traits@D@std@@V?$allocator@D@2@@std@@@std@@@std@@2P6AXXZA DD FLAT:??__E?id@?$num_put@DV?$back_insert_iterator@V?$basic_string@DU?$char_traits@D@std@@V?$allocator@D@2@@std@@@std@@@std@@2V0locale@2@A@@YAXXZ ; std::num_put<char,std::back_insert_iterator<std::basic_string<char,std::char_traits<char>,std::allocator<char> > > >::id$initializer$
CRT$XCU	ENDS
;	COMDAT CRT$XCU
CRT$XCU	SEGMENT
?id$initializer$@?$num_put@_WV?$back_insert_iterator@V?$basic_string@_WU?$char_traits@_W@std@@V?$allocator@_W@2@@std@@@std@@@std@@2P6AXXZA DD FLAT:??__E?id@?$num_put@_WV?$back_insert_iterator@V?$basic_string@_WU?$char_traits@_W@std@@V?$allocator@_W@2@@std@@@std@@@std@@2V0locale@2@A@@YAXXZ ; std::num_put<wchar_t,std::back_insert_iterator<std::basic_string<wchar_t,std::char_traits<wchar_t>,std::allocator<wchar_t> > > >::id$initializer$
CRT$XCU	ENDS
;	COMDAT CRT$XCU
CRT$XCU	SEGMENT
?id$initializer$@?$numpunct@D@std@@2P6AXXZA DD FLAT:??__E?id@?$numpunct@D@std@@2V0locale@2@A@@YAXXZ ; std::numpunct<char>::id$initializer$
CRT$XCU	ENDS
;	COMDAT CRT$XCU
CRT$XCU	SEGMENT
?id$initializer$@?$numpunct@_W@std@@2P6AXXZA DD FLAT:??__E?id@?$numpunct@_W@std@@2V0locale@2@A@@YAXXZ ; std::numpunct<wchar_t>::id$initializer$
CRT$XCU	ENDS
; Function compile flags: /Odtp
; File c:\program files (x86)\microsoft visual studio 11.0\vc\include\xmemory0
;	COMDAT ??$destroy@PAD@?$allocator@D@std@@QAEXPAPAD@Z
_TEXT	SEGMENT
_this$ = -4						; size = 4
__Ptr$ = 8						; size = 4
??$destroy@PAD@?$allocator@D@std@@QAEXPAPAD@Z PROC	; std::allocator<char>::destroy<char *>, COMDAT
; _this$ = ecx

; 621  : 		void destroy(_Uty *_Ptr)

	push	ebp
	mov	ebp, esp
	push	ecx
	mov	DWORD PTR _this$[ebp], ecx

; 622  : 		{	// destroy object at _Ptr
; 623  : 		_Ptr->~_Uty();
; 624  : 		}

	mov	esp, ebp
	pop	ebp
	ret	4
??$destroy@PAD@?$allocator@D@std@@QAEXPAPAD@Z ENDP	; std::allocator<char>::destroy<char *>
_TEXT	ENDS
; Function compile flags: /Odtp
; File c:\program files (x86)\microsoft visual studio 11.0\vc\include\xmemory0
;	COMDAT ??$construct@PADAAPAD@?$allocator@D@std@@QAEXPAPADAAPAD@Z
_TEXT	SEGMENT
$T2 = -28						; size = 4
_this$ = -24						; size = 4
tv73 = -20						; size = 4
$T3 = -16						; size = 4
__$EHRec$ = -12						; size = 12
__Ptr$ = 8						; size = 4
__V0$ = 12						; size = 4
??$construct@PADAAPAD@?$allocator@D@std@@QAEXPAPADAAPAD@Z PROC ; std::allocator<char>::construct<char *,char * &>, COMDAT
; _this$ = ecx

; 617  : _VARIADIC_EXPAND_0X(_ALLOC_MEMBER_CONSTRUCT, , , , )

	push	ebp
	mov	ebp, esp
	push	-1
	push	__ehhandler$??$construct@PADAAPAD@?$allocator@D@std@@QAEXPAPADAAPAD@Z
	mov	eax, DWORD PTR fs:0
	push	eax
	sub	esp, 16					; 00000010H
	mov	eax, DWORD PTR ___security_cookie
	xor	eax, ebp
	push	eax
	lea	eax, DWORD PTR __$EHRec$[ebp]
	mov	DWORD PTR fs:0, eax
	mov	DWORD PTR _this$[ebp], ecx
	mov	eax, DWORD PTR __Ptr$[ebp]
	push	eax
	push	4
	call	??2@YAPAXIPAX@Z				; operator new
	add	esp, 8
	mov	DWORD PTR $T3[ebp], eax
	mov	DWORD PTR __$EHRec$[ebp+8], 0
	cmp	DWORD PTR $T3[ebp], 0
	je	SHORT $LN3@construct
	mov	ecx, DWORD PTR __V0$[ebp]
	push	ecx
	call	??$forward@AAPAD@std@@YAAAPADAAPAD@Z	; std::forward<char * &>
	add	esp, 4
	mov	edx, DWORD PTR $T3[ebp]
	mov	eax, DWORD PTR [eax]
	mov	DWORD PTR [edx], eax
	mov	ecx, DWORD PTR $T3[ebp]
	mov	DWORD PTR tv73[ebp], ecx
	jmp	SHORT $LN4@construct
$LN3@construct:
	mov	DWORD PTR tv73[ebp], 0
$LN4@construct:
	mov	edx, DWORD PTR tv73[ebp]
	mov	DWORD PTR $T2[ebp], edx
	mov	DWORD PTR __$EHRec$[ebp+8], -1
	mov	ecx, DWORD PTR __$EHRec$[ebp]
	mov	DWORD PTR fs:0, ecx
	pop	ecx
	mov	esp, ebp
	pop	ebp
	ret	8
_TEXT	ENDS
;	COMDAT text$x
text$x	SEGMENT
__unwindfunclet$??$construct@PADAAPAD@?$allocator@D@std@@QAEXPAPADAAPAD@Z$0:
	mov	eax, DWORD PTR __Ptr$[ebp]
	push	eax
	mov	eax, DWORD PTR $T3[ebp]
	push	eax
	call	??3@YAXPAX0@Z				; operator delete
	add	esp, 8
	ret	0
__ehhandler$??$construct@PADAAPAD@?$allocator@D@std@@QAEXPAPADAAPAD@Z:
	mov	edx, DWORD PTR [esp+8]
	lea	eax, DWORD PTR [edx+12]
	mov	ecx, DWORD PTR [edx-20]
	xor	ecx, eax
	call	@__security_check_cookie@4
	mov	eax, OFFSET __ehfuncinfo$??$construct@PADAAPAD@?$allocator@D@std@@QAEXPAPADAAPAD@Z
	jmp	___CxxFrameHandler3
text$x	ENDS
??$construct@PADAAPAD@?$allocator@D@std@@QAEXPAPADAAPAD@Z ENDP ; std::allocator<char>::construct<char *,char * &>
; Function compile flags: /Odtp
; File c:\program files (x86)\microsoft visual studio 11.0\vc\include\xlocnum
;	COMDAT ??__E?id@?$numpunct@_W@std@@2V0locale@2@A@@YAXXZ
text$yc	SEGMENT
??__E?id@?$numpunct@_W@std@@2V0locale@2@A@@YAXXZ PROC	; `dynamic initializer for 'std::numpunct<wchar_t>::id'', COMDAT

; 155  : 		void _Getvals(wchar_t, const lconv *_Ptr, _Locinfo::_Cvtvec)

	push	ebp
	mov	ebp, esp
	push	0
	mov	ecx, OFFSET ?id@?$numpunct@_W@std@@2V0locale@2@A ; std::numpunct<wchar_t>::id
	call	??0id@locale@std@@QAE@I@Z		; std::locale::id::id
	pop	ebp
	ret	0
??__E?id@?$numpunct@_W@std@@2V0locale@2@A@@YAXXZ ENDP	; `dynamic initializer for 'std::numpunct<wchar_t>::id''
text$yc	ENDS
; Function compile flags: /Odtp
; File c:\program files (x86)\microsoft visual studio 11.0\vc\include\xlocnum
;	COMDAT ??__E?id@?$numpunct@D@std@@2V0locale@2@A@@YAXXZ
text$yc	SEGMENT
??__E?id@?$numpunct@D@std@@2V0locale@2@A@@YAXXZ PROC	; `dynamic initializer for 'std::numpunct<char>::id'', COMDAT

; 155  : 		void _Getvals(wchar_t, const lconv *_Ptr, _Locinfo::_Cvtvec)

	push	ebp
	mov	ebp, esp
	push	0
	mov	ecx, OFFSET ?id@?$numpunct@D@std@@2V0locale@2@A ; std::numpunct<char>::id
	call	??0id@locale@std@@QAE@I@Z		; std::locale::id::id
	pop	ebp
	ret	0
??__E?id@?$numpunct@D@std@@2V0locale@2@A@@YAXXZ ENDP	; `dynamic initializer for 'std::numpunct<char>::id''
text$yc	ENDS
; Function compile flags: /Odtp
; File c:\program files (x86)\microsoft visual studio 11.0\vc\include\xlocnum
;	COMDAT ??__E?id@?$num_put@_WV?$back_insert_iterator@V?$basic_string@_WU?$char_traits@_W@std@@V?$allocator@_W@2@@std@@@std@@@std@@2V0locale@2@A@@YAXXZ
text$yc	SEGMENT
??__E?id@?$num_put@_WV?$back_insert_iterator@V?$basic_string@_WU?$char_traits@_W@std@@V?$allocator@_W@2@@std@@@std@@@std@@2V0locale@2@A@@YAXXZ PROC ; `dynamic initializer for 'std::num_put<wchar_t,std::back_insert_iterator<std::basic_string<wchar_t,std::char_traits<wchar_t>,std::allocator<wchar_t> > > >::id'', COMDAT

; 155  : 		void _Getvals(wchar_t, const lconv *_Ptr, _Locinfo::_Cvtvec)

	push	ebp
	mov	ebp, esp
	push	0
	mov	ecx, OFFSET ?id@?$num_put@_WV?$back_insert_iterator@V?$basic_string@_WU?$char_traits@_W@std@@V?$allocator@_W@2@@std@@@std@@@std@@2V0locale@2@A ; std::num_put<wchar_t,std::back_insert_iterator<std::basic_string<wchar_t,std::char_traits<wchar_t>,std::allocator<wchar_t> > > >::id
	call	??0id@locale@std@@QAE@I@Z		; std::locale::id::id
	pop	ebp
	ret	0
??__E?id@?$num_put@_WV?$back_insert_iterator@V?$basic_string@_WU?$char_traits@_W@std@@V?$allocator@_W@2@@std@@@std@@@std@@2V0locale@2@A@@YAXXZ ENDP ; `dynamic initializer for 'std::num_put<wchar_t,std::back_insert_iterator<std::basic_string<wchar_t,std::char_traits<wchar_t>,std::allocator<wchar_t> > > >::id''
text$yc	ENDS
; Function compile flags: /Odtp
; File c:\program files (x86)\microsoft visual studio 11.0\vc\include\xlocnum
;	COMDAT ??__E?id@?$num_put@DV?$back_insert_iterator@V?$basic_string@DU?$char_traits@D@std@@V?$allocator@D@2@@std@@@std@@@std@@2V0locale@2@A@@YAXXZ
text$yc	SEGMENT
??__E?id@?$num_put@DV?$back_insert_iterator@V?$basic_string@DU?$char_traits@D@std@@V?$allocator@D@2@@std@@@std@@@std@@2V0locale@2@A@@YAXXZ PROC ; `dynamic initializer for 'std::num_put<char,std::back_insert_iterator<std::basic_string<char,std::char_traits<char>,std::allocator<char> > > >::id'', COMDAT

; 155  : 		void _Getvals(wchar_t, const lconv *_Ptr, _Locinfo::_Cvtvec)

	push	ebp
	mov	ebp, esp
	push	0
	mov	ecx, OFFSET ?id@?$num_put@DV?$back_insert_iterator@V?$basic_string@DU?$char_traits@D@std@@V?$allocator@D@2@@std@@@std@@@std@@2V0locale@2@A ; std::num_put<char,std::back_insert_iterator<std::basic_string<char,std::char_traits<char>,std::allocator<char> > > >::id
	call	??0id@locale@std@@QAE@I@Z		; std::locale::id::id
	pop	ebp
	ret	0
??__E?id@?$num_put@DV?$back_insert_iterator@V?$basic_string@DU?$char_traits@D@std@@V?$allocator@D@2@@std@@@std@@@std@@2V0locale@2@A@@YAXXZ ENDP ; `dynamic initializer for 'std::num_put<char,std::back_insert_iterator<std::basic_string<char,std::char_traits<char>,std::allocator<char> > > >::id''
text$yc	ENDS
; Function compile flags: /Odtp
; File c:\program files (x86)\microsoft visual studio 11.0\vc\include\xmemory0
;	COMDAT ??$destroy@PAD@?$allocator_traits@V?$allocator@D@std@@@std@@SAXAAV?$allocator@D@1@PAPAD@Z
_TEXT	SEGMENT
__Al$ = 8						; size = 4
__Ptr$ = 12						; size = 4
??$destroy@PAD@?$allocator_traits@V?$allocator@D@std@@@std@@SAXAAV?$allocator@D@1@PAPAD@Z PROC ; std::allocator_traits<std::allocator<char> >::destroy<char *>, COMDAT

; 755  : 		static void destroy(_Alloc& _Al, _Uty *_Ptr)

	push	ebp
	mov	ebp, esp

; 756  : 		{	// destroy object at _Ptr
; 757  : 		_Al.destroy(_Ptr);

	mov	eax, DWORD PTR __Ptr$[ebp]
	push	eax
	mov	ecx, DWORD PTR __Al$[ebp]
	call	??$destroy@PAD@?$allocator@D@std@@QAEXPAPAD@Z ; std::allocator<char>::destroy<char *>

; 758  : 		}

	pop	ebp
	ret	0
??$destroy@PAD@?$allocator_traits@V?$allocator@D@std@@@std@@SAXAAV?$allocator@D@1@PAPAD@Z ENDP ; std::allocator_traits<std::allocator<char> >::destroy<char *>
_TEXT	ENDS
; Function compile flags: /Odtp
; File c:\program files (x86)\microsoft visual studio 11.0\vc\include\xmemory0
;	COMDAT ??$construct@PADAAPAD@?$allocator_traits@V?$allocator@D@std@@@std@@SAXAAV?$allocator@D@1@PAPADAAPAD@Z
_TEXT	SEGMENT
__Al$ = 8						; size = 4
__Ptr$ = 12						; size = 4
__V0$ = 16						; size = 4
??$construct@PADAAPAD@?$allocator_traits@V?$allocator@D@std@@@std@@SAXAAV?$allocator@D@1@PAPADAAPAD@Z PROC ; std::allocator_traits<std::allocator<char> >::construct<char *,char * &>, COMDAT

; 751  : _VARIADIC_EXPAND_0X(_ALLOC_TRAITS_SPECIAL_CONSTRUCT, , , , )

	push	ebp
	mov	ebp, esp
	mov	eax, DWORD PTR __V0$[ebp]
	push	eax
	call	??$forward@AAPAD@std@@YAAAPADAAPAD@Z	; std::forward<char * &>
	add	esp, 4
	push	eax
	mov	ecx, DWORD PTR __Ptr$[ebp]
	push	ecx
	mov	ecx, DWORD PTR __Al$[ebp]
	call	??$construct@PADAAPAD@?$allocator@D@std@@QAEXPAPADAAPAD@Z ; std::allocator<char>::construct<char *,char * &>
	pop	ebp
	ret	0
??$construct@PADAAPAD@?$allocator_traits@V?$allocator@D@std@@@std@@SAXAAV?$allocator@D@1@PAPADAAPAD@Z ENDP ; std::allocator_traits<std::allocator<char> >::construct<char *,char * &>
_TEXT	ENDS
; Function compile flags: /Odtp
; File c:\program files (x86)\microsoft visual studio 11.0\vc\include\type_traits
;	COMDAT ??$forward@AAPAD@std@@YAAAPADAAPAD@Z
_TEXT	SEGMENT
__Arg$ = 8						; size = 4
??$forward@AAPAD@std@@YAAAPADAAPAD@Z PROC		; std::forward<char * &>, COMDAT

; 1775 : 	{	// forward an lvalue

	push	ebp
	mov	ebp, esp

; 1776 : 	return (static_cast<_Ty&&>(_Arg));

	mov	eax, DWORD PTR __Arg$[ebp]

; 1777 : 	}

	pop	ebp
	ret	0
??$forward@AAPAD@std@@YAAAPADAAPAD@Z ENDP		; std::forward<char * &>
_TEXT	ENDS
; Function compile flags: /Odtp
;	COMDAT ??__F?_System_object@?$_Error_objects@H@std@@2V_System_error_category@2@A@@YAXXZ
text$yd	SEGMENT
??__F?_System_object@?$_Error_objects@H@std@@2V_System_error_category@2@A@@YAXXZ PROC ; `dynamic atexit destructor for 'std::_Error_objects<int>::_System_object'', COMDAT
	push	ebp
	mov	ebp, esp
	mov	ecx, OFFSET ?_System_object@?$_Error_objects@H@std@@2V_System_error_category@2@A ; std::_Error_objects<int>::_System_object
	call	??1_System_error_category@std@@UAE@XZ
	pop	ebp
	ret	0
??__F?_System_object@?$_Error_objects@H@std@@2V_System_error_category@2@A@@YAXXZ ENDP ; `dynamic atexit destructor for 'std::_Error_objects<int>::_System_object''
text$yd	ENDS
; Function compile flags: /Odtp
; File c:\program files (x86)\microsoft visual studio 11.0\vc\include\xmemory0
;	COMDAT ??__E?_System_object@?$_Error_objects@H@std@@2V_System_error_category@2@A@@YAXXZ
text$yc	SEGMENT
??__E?_System_object@?$_Error_objects@H@std@@2V_System_error_category@2@A@@YAXXZ PROC ; `dynamic initializer for 'std::_Error_objects<int>::_System_object'', COMDAT

; 627  : 		{	// estimate maximum array size

	push	ebp
	mov	ebp, esp
	mov	ecx, OFFSET ?_System_object@?$_Error_objects@H@std@@2V_System_error_category@2@A ; std::_Error_objects<int>::_System_object
	call	??0_System_error_category@std@@QAE@XZ	; std::_System_error_category::_System_error_category
	push	OFFSET ??__F?_System_object@?$_Error_objects@H@std@@2V_System_error_category@2@A@@YAXXZ ; `dynamic atexit destructor for 'std::_Error_objects<int>::_System_object''
	call	_atexit
	add	esp, 4
	pop	ebp
	ret	0
??__E?_System_object@?$_Error_objects@H@std@@2V_System_error_category@2@A@@YAXXZ ENDP ; `dynamic initializer for 'std::_Error_objects<int>::_System_object''
text$yc	ENDS
; Function compile flags: /Odtp
;	COMDAT ??__F?_Iostream_object@?$_Error_objects@H@std@@2V_Iostream_error_category@2@A@@YAXXZ
text$yd	SEGMENT
??__F?_Iostream_object@?$_Error_objects@H@std@@2V_Iostream_error_category@2@A@@YAXXZ PROC ; `dynamic atexit destructor for 'std::_Error_objects<int>::_Iostream_object'', COMDAT
	push	ebp
	mov	ebp, esp
	mov	ecx, OFFSET ?_Iostream_object@?$_Error_objects@H@std@@2V_Iostream_error_category@2@A ; std::_Error_objects<int>::_Iostream_object
	call	??1_Iostream_error_category@std@@UAE@XZ
	pop	ebp
	ret	0
??__F?_Iostream_object@?$_Error_objects@H@std@@2V_Iostream_error_category@2@A@@YAXXZ ENDP ; `dynamic atexit destructor for 'std::_Error_objects<int>::_Iostream_object''
text$yd	ENDS
; Function compile flags: /Odtp
; File c:\program files (x86)\microsoft visual studio 11.0\vc\include\xmemory0
;	COMDAT ??__E?_Iostream_object@?$_Error_objects@H@std@@2V_Iostream_error_category@2@A@@YAXXZ
text$yc	SEGMENT
??__E?_Iostream_object@?$_Error_objects@H@std@@2V_Iostream_error_category@2@A@@YAXXZ PROC ; `dynamic initializer for 'std::_Error_objects<int>::_Iostream_object'', COMDAT

; 627  : 		{	// estimate maximum array size

	push	ebp
	mov	ebp, esp
	mov	ecx, OFFSET ?_Iostream_object@?$_Error_objects@H@std@@2V_Iostream_error_category@2@A ; std::_Error_objects<int>::_Iostream_object
	call	??0_Iostream_error_category@std@@QAE@XZ	; std::_Iostream_error_category::_Iostream_error_category
	push	OFFSET ??__F?_Iostream_object@?$_Error_objects@H@std@@2V_Iostream_error_category@2@A@@YAXXZ ; `dynamic atexit destructor for 'std::_Error_objects<int>::_Iostream_object''
	call	_atexit
	add	esp, 4
	pop	ebp
	ret	0
??__E?_Iostream_object@?$_Error_objects@H@std@@2V_Iostream_error_category@2@A@@YAXXZ ENDP ; `dynamic initializer for 'std::_Error_objects<int>::_Iostream_object''
text$yc	ENDS
; Function compile flags: /Odtp
;	COMDAT ??__F?_Generic_object@?$_Error_objects@H@std@@2V_Generic_error_category@2@A@@YAXXZ
text$yd	SEGMENT
??__F?_Generic_object@?$_Error_objects@H@std@@2V_Generic_error_category@2@A@@YAXXZ PROC ; `dynamic atexit destructor for 'std::_Error_objects<int>::_Generic_object'', COMDAT
	push	ebp
	mov	ebp, esp
	mov	ecx, OFFSET ?_Generic_object@?$_Error_objects@H@std@@2V_Generic_error_category@2@A ; std::_Error_objects<int>::_Generic_object
	call	??1_Generic_error_category@std@@UAE@XZ
	pop	ebp
	ret	0
??__F?_Generic_object@?$_Error_objects@H@std@@2V_Generic_error_category@2@A@@YAXXZ ENDP ; `dynamic atexit destructor for 'std::_Error_objects<int>::_Generic_object''
text$yd	ENDS
; Function compile flags: /Odtp
; File c:\program files (x86)\microsoft visual studio 11.0\vc\include\xmemory0
;	COMDAT ??__E?_Generic_object@?$_Error_objects@H@std@@2V_Generic_error_category@2@A@@YAXXZ
text$yc	SEGMENT
??__E?_Generic_object@?$_Error_objects@H@std@@2V_Generic_error_category@2@A@@YAXXZ PROC ; `dynamic initializer for 'std::_Error_objects<int>::_Generic_object'', COMDAT

; 627  : 		{	// estimate maximum array size

	push	ebp
	mov	ebp, esp
	mov	ecx, OFFSET ?_Generic_object@?$_Error_objects@H@std@@2V_Generic_error_category@2@A ; std::_Error_objects<int>::_Generic_object
	call	??0_Generic_error_category@std@@QAE@XZ	; std::_Generic_error_category::_Generic_error_category
	push	OFFSET ??__F?_Generic_object@?$_Error_objects@H@std@@2V_Generic_error_category@2@A@@YAXXZ ; `dynamic atexit destructor for 'std::_Error_objects<int>::_Generic_object''
	call	_atexit
	add	esp, 4
	pop	ebp
	ret	0
??__E?_Generic_object@?$_Error_objects@H@std@@2V_Generic_error_category@2@A@@YAXXZ ENDP ; `dynamic initializer for 'std::_Error_objects<int>::_Generic_object''
text$yc	ENDS
; Function compile flags: /Odtp
; File c:\program files (x86)\microsoft visual studio 11.0\vc\include\xmemory0
;	COMDAT ??$_Allocate@D@std@@YAPADIPAD@Z
_TEXT	SEGMENT
__Ptr$ = -4						; size = 4
__Count$ = 8						; size = 4
___formal$ = 12						; size = 4
??$_Allocate@D@std@@YAPADIPAD@Z PROC			; std::_Allocate<char>, COMDAT

; 22   : 	{	// allocate storage for _Count elements of type _Ty

	push	ebp
	mov	ebp, esp
	push	ecx

; 23   : 	void *_Ptr = 0;

	mov	DWORD PTR __Ptr$[ebp], 0

; 24   : 
; 25   : 	if (_Count == 0)

	cmp	DWORD PTR __Count$[ebp], 0
	jne	SHORT $LN4@Allocate

; 26   : 		;
; 27   : 	else if (((size_t)(-1) / sizeof (_Ty) < _Count)

	jmp	SHORT $LN3@Allocate
$LN4@Allocate:

; 28   : 		|| (_Ptr = ::operator new(_Count * sizeof (_Ty))) == 0)

	cmp	DWORD PTR __Count$[ebp], -1
	ja	SHORT $LN1@Allocate
	mov	eax, DWORD PTR __Count$[ebp]
	push	eax
	call	??2@YAPAXI@Z				; operator new
	add	esp, 4
	mov	DWORD PTR __Ptr$[ebp], eax
	cmp	DWORD PTR __Ptr$[ebp], 0
	jne	SHORT $LN3@Allocate
$LN1@Allocate:

; 29   : 		_Xbad_alloc();	// report no memory

	call	?_Xbad_alloc@std@@YAXXZ			; std::_Xbad_alloc
$LN3@Allocate:

; 30   : 
; 31   : 	return ((_Ty *)_Ptr);

	mov	eax, DWORD PTR __Ptr$[ebp]
$LN6@Allocate:

; 32   : 	}

	mov	esp, ebp
	pop	ebp
	ret	0
??$_Allocate@D@std@@YAPADIPAD@Z ENDP			; std::_Allocate<char>
_TEXT	ENDS
; Function compile flags: /Odtp
; File c:\program files (x86)\microsoft visual studio 11.0\vc\include\xstddef
;	COMDAT ??$addressof@D@std@@YAPADAAD@Z
_TEXT	SEGMENT
__Val$ = 8						; size = 4
??$addressof@D@std@@YAPADAAD@Z PROC			; std::addressof<char>, COMDAT

; 85   : 	{	// return address of _Val

	push	ebp
	mov	ebp, esp

; 86   : 	return (reinterpret_cast<_Ty *>(
; 87   : 		(&const_cast<char&>(
; 88   : 		reinterpret_cast<const volatile char&>(_Val)))));

	mov	eax, DWORD PTR __Val$[ebp]

; 89   : 	}

	pop	ebp
	ret	0
??$addressof@D@std@@YAPADAAD@Z ENDP			; std::addressof<char>
_TEXT	ENDS
; Function compile flags: /Odtp
; File c:\program files (x86)\microsoft visual studio 11.0\vc\include\xmemory0
;	COMDAT ??$destroy@PAD@?$_Wrap_alloc@V?$allocator@D@std@@@std@@QAEXPAPAD@Z
_TEXT	SEGMENT
_this$ = -4						; size = 4
__Ptr$ = 8						; size = 4
??$destroy@PAD@?$_Wrap_alloc@V?$allocator@D@std@@@std@@QAEXPAPAD@Z PROC ; std::_Wrap_alloc<std::allocator<char> >::destroy<char *>, COMDAT
; _this$ = ecx

; 907  : 		void destroy(_Ty *_Ptr)

	push	ebp
	mov	ebp, esp
	push	ecx
	mov	DWORD PTR _this$[ebp], ecx

; 908  : 		{	// destroy object at _Ptr
; 909  : 		_Mytraits::destroy(*this, _Ptr);

	mov	eax, DWORD PTR __Ptr$[ebp]
	push	eax
	mov	ecx, DWORD PTR _this$[ebp]
	push	ecx
	call	??$destroy@PAD@?$allocator_traits@V?$allocator@D@std@@@std@@SAXAAV?$allocator@D@1@PAPAD@Z ; std::allocator_traits<std::allocator<char> >::destroy<char *>
	add	esp, 8

; 910  : 		}

	mov	esp, ebp
	pop	ebp
	ret	4
??$destroy@PAD@?$_Wrap_alloc@V?$allocator@D@std@@@std@@QAEXPAPAD@Z ENDP ; std::_Wrap_alloc<std::allocator<char> >::destroy<char *>
_TEXT	ENDS
; Function compile flags: /Odtp
; File c:\program files (x86)\microsoft visual studio 11.0\vc\include\xmemory0
;	COMDAT ??$construct@PADAAPAD@?$_Wrap_alloc@V?$allocator@D@std@@@std@@QAEXPAPADAAPAD@Z
_TEXT	SEGMENT
_this$ = -4						; size = 4
__Ptr$ = 8						; size = 4
__V0$ = 12						; size = 4
??$construct@PADAAPAD@?$_Wrap_alloc@V?$allocator@D@std@@@std@@QAEXPAPADAAPAD@Z PROC ; std::_Wrap_alloc<std::allocator<char> >::construct<char *,char * &>, COMDAT
; _this$ = ecx

; 903  : _VARIADIC_EXPAND_0X(_WRAP_ALLOC_CONSTRUCT, , , , )

	push	ebp
	mov	ebp, esp
	push	ecx
	mov	DWORD PTR _this$[ebp], ecx
	mov	eax, DWORD PTR __V0$[ebp]
	push	eax
	call	??$forward@AAPAD@std@@YAAAPADAAPAD@Z	; std::forward<char * &>
	add	esp, 4
	push	eax
	mov	ecx, DWORD PTR __Ptr$[ebp]
	push	ecx
	mov	edx, DWORD PTR _this$[ebp]
	push	edx
	call	??$construct@PADAAPAD@?$allocator_traits@V?$allocator@D@std@@@std@@SAXAAV?$allocator@D@1@PAPADAAPAD@Z ; std::allocator_traits<std::allocator<char> >::construct<char *,char * &>
	add	esp, 12					; 0000000cH
	mov	esp, ebp
	pop	ebp
	ret	8
??$construct@PADAAPAD@?$_Wrap_alloc@V?$allocator@D@std@@@std@@QAEXPAPADAAPAD@Z ENDP ; std::_Wrap_alloc<std::allocator<char> >::construct<char *,char * &>
_TEXT	ENDS
; Function compile flags: /Odtp
; File c:\users\zhitao li\documents\visual studio 2012\projects\freefalcon\sim\fcc\lgbfcc.cpp
;	COMDAT ??__ErangeFOV@@YAXXZ
text$yc	SEGMENT
??__ErangeFOV@@YAXXZ PROC				; `dynamic initializer for 'rangeFOV'', COMDAT

; 26   : static const float rangeFOV = (float)tan (1.0F * DTR);

	push	ebp
	mov	ebp, esp
	push	ecx
	movss	xmm0, DWORD PTR __real@3c8efa34
	movss	DWORD PTR [esp], xmm0
	call	?tan@@YAMM@Z				; tan
	add	esp, 4
	fstp	DWORD PTR _rangeFOV
	pop	ebp
	ret	0
??__ErangeFOV@@YAXXZ ENDP				; `dynamic initializer for 'rangeFOV''
text$yc	ENDS
; Function compile flags: /Odtp
; File c:\users\zhitao li\documents\visual studio 2012\projects\freefalcon\sim\include\airframe.h
;	COMDAT ?GetMaxLasingAlt@AirframeClass@@QAEMXZ
_TEXT	SEGMENT
_this$ = -4						; size = 4
?GetMaxLasingAlt@AirframeClass@@QAEMXZ PROC		; AirframeClass::GetMaxLasingAlt, COMDAT
; _this$ = ecx

; 751  : 	float GetMaxLasingAlt() { return auxaeroData->maxLasingAlt; };

	push	ebp
	mov	ebp, esp
	push	ecx
	mov	DWORD PTR _this$[ebp], ecx
	mov	eax, DWORD PTR _this$[ebp]
	mov	ecx, DWORD PTR [eax+4]
	fld	DWORD PTR [ecx+2632]
	mov	esp, ebp
	pop	ebp
	ret	0
?GetMaxLasingAlt@AirframeClass@@QAEMXZ ENDP		; AirframeClass::GetMaxLasingAlt
_TEXT	ENDS
; Function compile flags: /Odtp
; File c:\users\zhitao li\documents\visual studio 2012\projects\freefalcon\sim\include\simio.h
;	COMDAT ?AnalogIsUsed@SIMLIB_IO_CLASS@@QAE_NW4GameAxis_t@@@Z
_TEXT	SEGMENT
_this$ = -4						; size = 4
_id$ = 8						; size = 4
?AnalogIsUsed@SIMLIB_IO_CLASS@@QAE_NW4GameAxis_t@@@Z PROC ; SIMLIB_IO_CLASS::AnalogIsUsed, COMDAT
; _this$ = ecx

; 237  : 	bool	AnalogIsUsed(GameAxis_t id) { return ( analog[id].isUsed); };

	push	ebp
	mov	ebp, esp
	push	ecx
	mov	DWORD PTR _this$[ebp], ecx
	mov	eax, DWORD PTR _id$[ebp]
	imul	eax, 28					; 0000001cH
	mov	ecx, DWORD PTR _this$[ebp]
	mov	al, BYTE PTR [ecx+eax+12]
	mov	esp, ebp
	pop	ebp
	ret	4
?AnalogIsUsed@SIMLIB_IO_CLASS@@QAE_NW4GameAxis_t@@@Z ENDP ; SIMLIB_IO_CLASS::AnalogIsUsed
_TEXT	ENDS
; Function compile flags: /Odtp
; File c:\users\zhitao li\documents\visual studio 2012\projects\freefalcon\sim\include\digi.h
;	COMDAT ?GetGroundTarget@DigitalBrain@@QAEPAVSimObjectType@@XZ
_TEXT	SEGMENT
_this$ = -4						; size = 4
?GetGroundTarget@DigitalBrain@@QAEPAVSimObjectType@@XZ PROC ; DigitalBrain::GetGroundTarget, COMDAT
; _this$ = ecx

; 676  : 	SimObjectType* GetGroundTarget( void )				{return groundTargetPtr;};

	push	ebp
	mov	ebp, esp
	push	ecx
	mov	DWORD PTR _this$[ebp], ecx
	mov	eax, DWORD PTR _this$[ebp]
	mov	eax, DWORD PTR [eax+224]
	mov	esp, ebp
	pop	ebp
	ret	0
?GetGroundTarget@DigitalBrain@@QAEPAVSimObjectType@@XZ ENDP ; DigitalBrain::GetGroundTarget
_TEXT	ENDS
; Function compile flags: /Odtp
; File c:\users\zhitao li\documents\visual studio 2012\projects\freefalcon\sim\include\aircrft.h
;	COMDAT ?AutopilotType@AircraftClass@@QAE?AW4AutoPilotType@1@XZ
_TEXT	SEGMENT
_this$ = -4						; size = 4
?AutopilotType@AircraftClass@@QAE?AW4AutoPilotType@1@XZ PROC ; AircraftClass::AutopilotType, COMDAT
; _this$ = ecx

; 329  : 	AutoPilotType	AutopilotType (void) {return autopilotType;};

	push	ebp
	mov	ebp, esp
	push	ecx
	mov	DWORD PTR _this$[ebp], ecx
	mov	eax, DWORD PTR _this$[ebp]
	mov	eax, DWORD PTR [eax+968]
	mov	esp, ebp
	pop	ebp
	ret	0
?AutopilotType@AircraftClass@@QAE?AW4AutoPilotType@1@XZ ENDP ; AircraftClass::AutopilotType
_TEXT	ENDS
; Function compile flags: /Odtp
; File c:\users\zhitao li\documents\visual studio 2012\projects\freefalcon\sim\include\laserpod.h
;	COMDAT ?SetTargetPosition@LaserPodClass@@QAEXMMM@Z
_TEXT	SEGMENT
_this$ = -4						; size = 4
_a$ = 8							; size = 4
_b$ = 12						; size = 4
_c$ = 16						; size = 4
?SetTargetPosition@LaserPodClass@@QAEXMMM@Z PROC	; LaserPodClass::SetTargetPosition, COMDAT
; _this$ = ecx

; 29   : 	void SetTargetPosition (float a, float b, float c)		{ tgtX=a; tgtY=b; tgtZ=c; };

	push	ebp
	mov	ebp, esp
	push	ecx
	mov	DWORD PTR _this$[ebp], ecx
	mov	eax, DWORD PTR _this$[ebp]
	movss	xmm0, DWORD PTR _a$[ebp]
	movss	DWORD PTR [eax+104], xmm0
	mov	ecx, DWORD PTR _this$[ebp]
	movss	xmm0, DWORD PTR _b$[ebp]
	movss	DWORD PTR [ecx+108], xmm0
	mov	edx, DWORD PTR _this$[ebp]
	movss	xmm0, DWORD PTR _c$[ebp]
	movss	DWORD PTR [edx+112], xmm0
	mov	esp, ebp
	pop	ebp
	ret	12					; 0000000cH
?SetTargetPosition@LaserPodClass@@QAEXMMM@Z ENDP	; LaserPodClass::SetTargetPosition
_TEXT	ENDS
; Function compile flags: /Odtp
; File c:\users\zhitao li\documents\visual studio 2012\projects\freefalcon\sim\include\laserpod.h
;	COMDAT ?GetYPR@LaserPodClass@@QAEXPAM00@Z
_TEXT	SEGMENT
_this$ = -4						; size = 4
_a$ = 8							; size = 4
_b$ = 12						; size = 4
_c$ = 16						; size = 4
?GetYPR@LaserPodClass@@QAEXPAM00@Z PROC			; LaserPodClass::GetYPR, COMDAT
; _this$ = ecx

; 27   : 	void GetYPR (float* a, float* b, float* c)	{ *a=yaw; *b=pitch; *c=roll; };

	push	ebp
	mov	ebp, esp
	push	ecx
	mov	DWORD PTR _this$[ebp], ecx
	mov	eax, DWORD PTR _a$[ebp]
	mov	ecx, DWORD PTR _this$[ebp]
	mov	edx, DWORD PTR [ecx+100]
	mov	DWORD PTR [eax], edx
	mov	eax, DWORD PTR _b$[ebp]
	mov	ecx, DWORD PTR _this$[ebp]
	mov	edx, DWORD PTR [ecx+96]
	mov	DWORD PTR [eax], edx
	mov	eax, DWORD PTR _c$[ebp]
	mov	ecx, DWORD PTR _this$[ebp]
	mov	edx, DWORD PTR [ecx+92]
	mov	DWORD PTR [eax], edx
	mov	esp, ebp
	pop	ebp
	ret	12					; 0000000cH
?GetYPR@LaserPodClass@@QAEXPAM00@Z ENDP			; LaserPodClass::GetYPR
_TEXT	ENDS
; Function compile flags: /Odtp
; File c:\users\zhitao li\documents\visual studio 2012\projects\freefalcon\sim\include\laserpod.h
;	COMDAT ?SetYPR@LaserPodClass@@QAEXMMM@Z
_TEXT	SEGMENT
_this$ = -4						; size = 4
_a$ = 8							; size = 4
_b$ = 12						; size = 4
_c$ = 16						; size = 4
?SetYPR@LaserPodClass@@QAEXMMM@Z PROC			; LaserPodClass::SetYPR, COMDAT
; _this$ = ecx

; 26   : 	void SetYPR (float a, float b, float c)		{ yaw=a; pitch=b; roll=c; };

	push	ebp
	mov	ebp, esp
	push	ecx
	mov	DWORD PTR _this$[ebp], ecx
	mov	eax, DWORD PTR _this$[ebp]
	movss	xmm0, DWORD PTR _a$[ebp]
	movss	DWORD PTR [eax+100], xmm0
	mov	ecx, DWORD PTR _this$[ebp]
	movss	xmm0, DWORD PTR _b$[ebp]
	movss	DWORD PTR [ecx+96], xmm0
	mov	edx, DWORD PTR _this$[ebp]
	movss	xmm0, DWORD PTR _c$[ebp]
	movss	DWORD PTR [edx+92], xmm0
	mov	esp, ebp
	pop	ebp
	ret	12					; 0000000cH
?SetYPR@LaserPodClass@@QAEXMMM@Z ENDP			; LaserPodClass::SetYPR
_TEXT	ENDS
; Function compile flags: /Odtp
; File c:\users\zhitao li\documents\visual studio 2012\projects\freefalcon\sim\include\laserpod.h
;	COMDAT ?CurFOV@LaserPodClass@@QAEMXZ
_TEXT	SEGMENT
_this$ = -4						; size = 4
?CurFOV@LaserPodClass@@QAEMXZ PROC			; LaserPodClass::CurFOV, COMDAT
; _this$ = ecx

; 22   : 	float CurFOV (void)							{return curFOV;};

	push	ebp
	mov	ebp, esp
	push	ecx
	mov	DWORD PTR _this$[ebp], ecx
	mov	eax, DWORD PTR _this$[ebp]
	fld	DWORD PTR [eax+88]
	mov	esp, ebp
	pop	ebp
	ret	0
?CurFOV@LaserPodClass@@QAEMXZ ENDP			; LaserPodClass::CurFOV
_TEXT	ENDS
; Function compile flags: /Odtp
; File c:\users\zhitao li\documents\visual studio 2012\projects\freefalcon\sim\include\laserpod.h
;	COMDAT ?IsLocked@LaserPodClass@@QAEHXZ
_TEXT	SEGMENT
_this$ = -8						; size = 4
tv66 = -4						; size = 4
?IsLocked@LaserPodClass@@QAEHXZ PROC			; LaserPodClass::IsLocked, COMDAT
; _this$ = ecx

; 19   : 	int IsLocked (void)							{return (hasTarget == TargetLocked);}

	push	ebp
	mov	ebp, esp
	sub	esp, 8
	mov	DWORD PTR _this$[ebp], ecx
	mov	eax, DWORD PTR _this$[ebp]
	cmp	DWORD PTR [eax+84], 1
	jne	SHORT $LN3@IsLocked
	mov	DWORD PTR tv66[ebp], 1
	jmp	SHORT $LN4@IsLocked
$LN3@IsLocked:
	mov	DWORD PTR tv66[ebp], 0
$LN4@IsLocked:
	mov	eax, DWORD PTR tv66[ebp]
	mov	esp, ebp
	pop	ebp
	ret	0
?IsLocked@LaserPodClass@@QAEHXZ ENDP			; LaserPodClass::IsLocked
_TEXT	ENDS
; Function compile flags: /Odtp
; File c:\users\zhitao li\documents\visual studio 2012\projects\freefalcon\sim\include\simveh.h
;	COMDAT ?Brain@SimVehicleClass@@QAEPAVBaseBrain@@XZ
_TEXT	SEGMENT
_this$ = -4						; size = 4
?Brain@SimVehicleClass@@QAEPAVBaseBrain@@XZ PROC	; SimVehicleClass::Brain, COMDAT
; _this$ = ecx

; 67   : 	BaseBrain* Brain(void) {return theBrain;};

	push	ebp
	mov	ebp, esp
	push	ecx
	mov	DWORD PTR _this$[ebp], ecx
	mov	eax, DWORD PTR _this$[ebp]
	mov	eax, DWORD PTR [eax+672]
	mov	esp, ebp
	pop	ebp
	ret	0
?Brain@SimVehicleClass@@QAEPAVBaseBrain@@XZ ENDP	; SimVehicleClass::Brain
_TEXT	ENDS
; Function compile flags: /Odtp
; File c:\users\zhitao li\documents\visual studio 2012\projects\freefalcon\falclib\include\playerop.h
;	COMDAT ?GetAvionicsType@PlayerOptionsClass@@QAEHXZ
_TEXT	SEGMENT
_this$ = -4						; size = 4
?GetAvionicsType@PlayerOptionsClass@@QAEHXZ PROC	; PlayerOptionsClass::GetAvionicsType, COMDAT
; _this$ = ecx

; 142  : 	int GetAvionicsType (void)								{ return SimAvionicsType; }

	push	ebp
	mov	ebp, esp
	push	ecx
	mov	DWORD PTR _this$[ebp], ecx
	mov	eax, DWORD PTR _this$[ebp]
	mov	eax, DWORD PTR [eax+64]
	mov	esp, ebp
	pop	ebp
	ret	0
?GetAvionicsType@PlayerOptionsClass@@QAEHXZ ENDP	; PlayerOptionsClass::GetAvionicsType
_TEXT	ENDS
; Function compile flags: /Odtp
;	COMDAT ??_G_System_error_category@std@@UAEPAXI@Z
_TEXT	SEGMENT
_this$ = -4						; size = 4
___flags$ = 8						; size = 4
??_G_System_error_category@std@@UAEPAXI@Z PROC		; std::_System_error_category::`scalar deleting destructor', COMDAT
; _this$ = ecx
	push	ebp
	mov	ebp, esp
	push	ecx
	mov	DWORD PTR _this$[ebp], ecx
	mov	ecx, DWORD PTR _this$[ebp]
	call	??1_System_error_category@std@@UAE@XZ
	mov	eax, DWORD PTR ___flags$[ebp]
	and	eax, 1
	je	SHORT $LN1@scalar
	mov	ecx, DWORD PTR _this$[ebp]
	push	ecx
	call	??3@YAXPAX@Z				; operator delete
	add	esp, 4
$LN1@scalar:
	mov	eax, DWORD PTR _this$[ebp]
	mov	esp, ebp
	pop	ebp
	ret	4
??_G_System_error_category@std@@UAEPAXI@Z ENDP		; std::_System_error_category::`scalar deleting destructor'
_TEXT	ENDS
; Function compile flags: /Odtp
;	COMDAT ??1_System_error_category@std@@UAE@XZ
_TEXT	SEGMENT
_this$ = -4						; size = 4
??1_System_error_category@std@@UAE@XZ PROC		; std::_System_error_category::~_System_error_category, COMDAT
; _this$ = ecx
	push	ebp
	mov	ebp, esp
	push	ecx
	mov	DWORD PTR _this$[ebp], ecx
	mov	ecx, DWORD PTR _this$[ebp]
	call	??1_Generic_error_category@std@@UAE@XZ
	mov	esp, ebp
	pop	ebp
	ret	0
??1_System_error_category@std@@UAE@XZ ENDP		; std::_System_error_category::~_System_error_category
_TEXT	ENDS
; Function compile flags: /Odtp
; File c:\program files (x86)\microsoft visual studio 11.0\vc\include\system_error
;	COMDAT ?default_error_condition@_System_error_category@std@@UBE?AVerror_condition@2@H@Z
_TEXT	SEGMENT
_this$ = -4						; size = 4
___$ReturnUdt$ = 8					; size = 4
__Errval$ = 12						; size = 4
?default_error_condition@_System_error_category@std@@UBE?AVerror_condition@2@H@Z PROC ; std::_System_error_category::default_error_condition, COMDAT
; _this$ = ecx

; 641  : 		{	// make error_condition for error code (generic if possible)

	push	ebp
	mov	ebp, esp
	push	ecx
	mov	DWORD PTR _this$[ebp], ecx

; 642  : 		if (_Syserror_map(_Errval))

	mov	eax, DWORD PTR __Errval$[ebp]
	push	eax
	call	?_Syserror_map@std@@YAPBDH@Z		; std::_Syserror_map
	add	esp, 4
	test	eax, eax
	je	SHORT $LN2@default_er

; 643  : 			return (error_condition(_Errval, generic_category()));

	call	?generic_category@std@@YAABVerror_category@1@XZ ; std::generic_category
	push	eax
	mov	ecx, DWORD PTR __Errval$[ebp]
	push	ecx
	mov	ecx, DWORD PTR ___$ReturnUdt$[ebp]
	call	??0error_condition@std@@QAE@HABVerror_category@1@@Z ; std::error_condition::error_condition
	mov	eax, DWORD PTR ___$ReturnUdt$[ebp]
	jmp	SHORT $LN3@default_er

; 644  : 		else

	jmp	SHORT $LN3@default_er
$LN2@default_er:

; 645  : 			return (error_condition(_Errval, system_category()));

	call	?system_category@std@@YAABVerror_category@1@XZ ; std::system_category
	push	eax
	mov	edx, DWORD PTR __Errval$[ebp]
	push	edx
	mov	ecx, DWORD PTR ___$ReturnUdt$[ebp]
	call	??0error_condition@std@@QAE@HABVerror_category@1@@Z ; std::error_condition::error_condition
	mov	eax, DWORD PTR ___$ReturnUdt$[ebp]
$LN3@default_er:

; 646  : 		}

	mov	esp, ebp
	pop	ebp
	ret	8
?default_error_condition@_System_error_category@std@@UBE?AVerror_condition@2@H@Z ENDP ; std::_System_error_category::default_error_condition
_TEXT	ENDS
; Function compile flags: /Odtp
; File c:\program files (x86)\microsoft visual studio 11.0\vc\include\system_error
;	COMDAT ?message@_System_error_category@std@@UBE?AV?$basic_string@DU?$char_traits@D@std@@V?$allocator@D@2@@2@H@Z
_TEXT	SEGMENT
_this$ = -16						; size = 4
$T1 = -12						; size = 4
tv69 = -8						; size = 4
__Name$ = -4						; size = 4
___$ReturnUdt$ = 8					; size = 4
__Errcode$ = 12						; size = 4
?message@_System_error_category@std@@UBE?AV?$basic_string@DU?$char_traits@D@std@@V?$allocator@D@2@@2@H@Z PROC ; std::_System_error_category::message, COMDAT
; _this$ = ecx

; 634  : 		{	// convert to name of error

	push	ebp
	mov	ebp, esp
	sub	esp, 16					; 00000010H
	mov	DWORD PTR _this$[ebp], ecx
	mov	DWORD PTR $T1[ebp], 0

; 635  : 		const char *_Name = _Winerror_map(_Errcode);

	mov	eax, DWORD PTR __Errcode$[ebp]
	push	eax
	call	?_Winerror_map@std@@YAPBDH@Z		; std::_Winerror_map
	add	esp, 4
	mov	DWORD PTR __Name$[ebp], eax

; 636  : 		return (string(_Name != 0 ? _Name : "unknown error"));

	cmp	DWORD PTR __Name$[ebp], 0
	je	SHORT $LN3@message
	mov	ecx, DWORD PTR __Name$[ebp]
	mov	DWORD PTR tv69[ebp], ecx
	jmp	SHORT $LN4@message
$LN3@message:
	mov	DWORD PTR tv69[ebp], OFFSET ??_C@_0O@BFJCFAAK@unknown?5error?$AA@
$LN4@message:
	mov	edx, DWORD PTR tv69[ebp]
	push	edx
	mov	ecx, DWORD PTR ___$ReturnUdt$[ebp]
	call	??0?$basic_string@DU?$char_traits@D@std@@V?$allocator@D@2@@std@@QAE@PBD@Z ; std::basic_string<char,std::char_traits<char>,std::allocator<char> >::basic_string<char,std::char_traits<char>,std::allocator<char> >
	mov	eax, DWORD PTR $T1[ebp]
	or	eax, 1
	mov	DWORD PTR $T1[ebp], eax
	mov	eax, DWORD PTR ___$ReturnUdt$[ebp]

; 637  : 		}

	mov	esp, ebp
	pop	ebp
	ret	8
?message@_System_error_category@std@@UBE?AV?$basic_string@DU?$char_traits@D@std@@V?$allocator@D@2@@2@H@Z ENDP ; std::_System_error_category::message
_TEXT	ENDS
; Function compile flags: /Odtp
; File c:\program files (x86)\microsoft visual studio 11.0\vc\include\system_error
;	COMDAT ?name@_System_error_category@std@@UBEPBDXZ
_TEXT	SEGMENT
_this$ = -4						; size = 4
?name@_System_error_category@std@@UBEPBDXZ PROC		; std::_System_error_category::name, COMDAT
; _this$ = ecx

; 629  : 		{	// get name of category

	push	ebp
	mov	ebp, esp
	push	ecx
	mov	DWORD PTR _this$[ebp], ecx

; 630  : 		return ("system");

	mov	eax, OFFSET ??_C@_06FHFOAHML@system?$AA@

; 631  : 		}

	mov	esp, ebp
	pop	ebp
	ret	0
?name@_System_error_category@std@@UBEPBDXZ ENDP		; std::_System_error_category::name
_TEXT	ENDS
; Function compile flags: /Odtp
; File c:\program files (x86)\microsoft visual studio 11.0\vc\include\system_error
;	COMDAT ??0_System_error_category@std@@QAE@XZ
_TEXT	SEGMENT
_this$ = -4						; size = 4
??0_System_error_category@std@@QAE@XZ PROC		; std::_System_error_category::_System_error_category, COMDAT
; _this$ = ecx

; 624  : 	_System_error_category()

	push	ebp
	mov	ebp, esp
	push	ecx
	mov	DWORD PTR _this$[ebp], ecx
	mov	ecx, DWORD PTR _this$[ebp]
	call	??0_Generic_error_category@std@@QAE@XZ	; std::_Generic_error_category::_Generic_error_category
	mov	eax, DWORD PTR _this$[ebp]
	mov	DWORD PTR [eax], OFFSET ??_7_System_error_category@std@@6B@

; 625  : 		{	// default constructor
; 626  : 		}

	mov	eax, DWORD PTR _this$[ebp]
	mov	esp, ebp
	pop	ebp
	ret	0
??0_System_error_category@std@@QAE@XZ ENDP		; std::_System_error_category::_System_error_category
_TEXT	ENDS
; Function compile flags: /Odtp
;	COMDAT ??_G_Iostream_error_category@std@@UAEPAXI@Z
_TEXT	SEGMENT
_this$ = -4						; size = 4
___flags$ = 8						; size = 4
??_G_Iostream_error_category@std@@UAEPAXI@Z PROC	; std::_Iostream_error_category::`scalar deleting destructor', COMDAT
; _this$ = ecx
	push	ebp
	mov	ebp, esp
	push	ecx
	mov	DWORD PTR _this$[ebp], ecx
	mov	ecx, DWORD PTR _this$[ebp]
	call	??1_Iostream_error_category@std@@UAE@XZ
	mov	eax, DWORD PTR ___flags$[ebp]
	and	eax, 1
	je	SHORT $LN1@scalar
	mov	ecx, DWORD PTR _this$[ebp]
	push	ecx
	call	??3@YAXPAX@Z				; operator delete
	add	esp, 4
$LN1@scalar:
	mov	eax, DWORD PTR _this$[ebp]
	mov	esp, ebp
	pop	ebp
	ret	4
??_G_Iostream_error_category@std@@UAEPAXI@Z ENDP	; std::_Iostream_error_category::`scalar deleting destructor'
_TEXT	ENDS
; Function compile flags: /Odtp
;	COMDAT ??1_Iostream_error_category@std@@UAE@XZ
_TEXT	SEGMENT
_this$ = -4						; size = 4
??1_Iostream_error_category@std@@UAE@XZ PROC		; std::_Iostream_error_category::~_Iostream_error_category, COMDAT
; _this$ = ecx
	push	ebp
	mov	ebp, esp
	push	ecx
	mov	DWORD PTR _this$[ebp], ecx
	mov	ecx, DWORD PTR _this$[ebp]
	call	??1_Generic_error_category@std@@UAE@XZ
	mov	esp, ebp
	pop	ebp
	ret	0
??1_Iostream_error_category@std@@UAE@XZ ENDP		; std::_Iostream_error_category::~_Iostream_error_category
_TEXT	ENDS
; Function compile flags: /Odtp
; File c:\program files (x86)\microsoft visual studio 11.0\vc\include\system_error
;	COMDAT ?message@_Iostream_error_category@std@@UBE?AV?$basic_string@DU?$char_traits@D@std@@V?$allocator@D@2@@2@H@Z
_TEXT	SEGMENT
_this$ = -8						; size = 4
$T1 = -4						; size = 4
___$ReturnUdt$ = 8					; size = 4
__Errcode$ = 12						; size = 4
?message@_Iostream_error_category@std@@UBE?AV?$basic_string@DU?$char_traits@D@std@@V?$allocator@D@2@@2@H@Z PROC ; std::_Iostream_error_category::message, COMDAT
; _this$ = ecx

; 611  : 		{	// convert to name of error

	push	ebp
	mov	ebp, esp
	sub	esp, 8
	mov	DWORD PTR _this$[ebp], ecx
	mov	DWORD PTR $T1[ebp], 0

; 612  : 		if (_Errcode == (int)io_errc::stream)

	cmp	DWORD PTR __Errcode$[ebp], 1
	jne	SHORT $LN2@message

; 613  : 			return ("iostream stream error");

	push	OFFSET ??_C@_0BG@PADBLCHM@iostream?5stream?5error?$AA@
	mov	ecx, DWORD PTR ___$ReturnUdt$[ebp]
	call	??0?$basic_string@DU?$char_traits@D@std@@V?$allocator@D@2@@std@@QAE@PBD@Z ; std::basic_string<char,std::char_traits<char>,std::allocator<char> >::basic_string<char,std::char_traits<char>,std::allocator<char> >
	mov	eax, DWORD PTR $T1[ebp]
	or	eax, 1
	mov	DWORD PTR $T1[ebp], eax
	mov	eax, DWORD PTR ___$ReturnUdt$[ebp]
	jmp	SHORT $LN3@message

; 614  : 		else

	jmp	SHORT $LN3@message
$LN2@message:

; 615  : 			return (_Generic_error_category::message(_Errcode));

	mov	ecx, DWORD PTR __Errcode$[ebp]
	push	ecx
	mov	edx, DWORD PTR ___$ReturnUdt$[ebp]
	push	edx
	mov	ecx, DWORD PTR _this$[ebp]
	call	?message@_Generic_error_category@std@@UBE?AV?$basic_string@DU?$char_traits@D@std@@V?$allocator@D@2@@2@H@Z ; std::_Generic_error_category::message
	mov	eax, DWORD PTR $T1[ebp]
	or	eax, 1
	mov	DWORD PTR $T1[ebp], eax
	mov	eax, DWORD PTR ___$ReturnUdt$[ebp]
$LN3@message:

; 616  : 		}

	mov	esp, ebp
	pop	ebp
	ret	8
?message@_Iostream_error_category@std@@UBE?AV?$basic_string@DU?$char_traits@D@std@@V?$allocator@D@2@@2@H@Z ENDP ; std::_Iostream_error_category::message
_TEXT	ENDS
; Function compile flags: /Odtp
; File c:\program files (x86)\microsoft visual studio 11.0\vc\include\system_error
;	COMDAT ?name@_Iostream_error_category@std@@UBEPBDXZ
_TEXT	SEGMENT
_this$ = -4						; size = 4
?name@_Iostream_error_category@std@@UBEPBDXZ PROC	; std::_Iostream_error_category::name, COMDAT
; _this$ = ecx

; 606  : 		{	// get name of category

	push	ebp
	mov	ebp, esp
	push	ecx
	mov	DWORD PTR _this$[ebp], ecx

; 607  : 		return ("iostream");

	mov	eax, OFFSET ??_C@_08LLGCOLLL@iostream?$AA@

; 608  : 		}

	mov	esp, ebp
	pop	ebp
	ret	0
?name@_Iostream_error_category@std@@UBEPBDXZ ENDP	; std::_Iostream_error_category::name
_TEXT	ENDS
; Function compile flags: /Odtp
; File c:\program files (x86)\microsoft visual studio 11.0\vc\include\system_error
;	COMDAT ??0_Iostream_error_category@std@@QAE@XZ
_TEXT	SEGMENT
_this$ = -4						; size = 4
??0_Iostream_error_category@std@@QAE@XZ PROC		; std::_Iostream_error_category::_Iostream_error_category, COMDAT
; _this$ = ecx

; 601  : 	_Iostream_error_category()

	push	ebp
	mov	ebp, esp
	push	ecx
	mov	DWORD PTR _this$[ebp], ecx
	mov	ecx, DWORD PTR _this$[ebp]
	call	??0_Generic_error_category@std@@QAE@XZ	; std::_Generic_error_category::_Generic_error_category
	mov	eax, DWORD PTR _this$[ebp]
	mov	DWORD PTR [eax], OFFSET ??_7_Iostream_error_category@std@@6B@

; 602  : 		{	// default constructor
; 603  : 		}

	mov	eax, DWORD PTR _this$[ebp]
	mov	esp, ebp
	pop	ebp
	ret	0
??0_Iostream_error_category@std@@QAE@XZ ENDP		; std::_Iostream_error_category::_Iostream_error_category
_TEXT	ENDS
; Function compile flags: /Odtp
;	COMDAT ??_G_Generic_error_category@std@@UAEPAXI@Z
_TEXT	SEGMENT
_this$ = -4						; size = 4
___flags$ = 8						; size = 4
??_G_Generic_error_category@std@@UAEPAXI@Z PROC		; std::_Generic_error_category::`scalar deleting destructor', COMDAT
; _this$ = ecx
	push	ebp
	mov	ebp, esp
	push	ecx
	mov	DWORD PTR _this$[ebp], ecx
	mov	ecx, DWORD PTR _this$[ebp]
	call	??1_Generic_error_category@std@@UAE@XZ
	mov	eax, DWORD PTR ___flags$[ebp]
	and	eax, 1
	je	SHORT $LN1@scalar
	mov	ecx, DWORD PTR _this$[ebp]
	push	ecx
	call	??3@YAXPAX@Z				; operator delete
	add	esp, 4
$LN1@scalar:
	mov	eax, DWORD PTR _this$[ebp]
	mov	esp, ebp
	pop	ebp
	ret	4
??_G_Generic_error_category@std@@UAEPAXI@Z ENDP		; std::_Generic_error_category::`scalar deleting destructor'
_TEXT	ENDS
; Function compile flags: /Odtp
;	COMDAT ??1_Generic_error_category@std@@UAE@XZ
_TEXT	SEGMENT
_this$ = -4						; size = 4
??1_Generic_error_category@std@@UAE@XZ PROC		; std::_Generic_error_category::~_Generic_error_category, COMDAT
; _this$ = ecx
	push	ebp
	mov	ebp, esp
	push	ecx
	mov	DWORD PTR _this$[ebp], ecx
	mov	ecx, DWORD PTR _this$[ebp]
	call	??1error_category@std@@UAE@XZ		; std::error_category::~error_category
	mov	esp, ebp
	pop	ebp
	ret	0
??1_Generic_error_category@std@@UAE@XZ ENDP		; std::_Generic_error_category::~_Generic_error_category
_TEXT	ENDS
; Function compile flags: /Odtp
; File c:\program files (x86)\microsoft visual studio 11.0\vc\include\system_error
;	COMDAT ?message@_Generic_error_category@std@@UBE?AV?$basic_string@DU?$char_traits@D@std@@V?$allocator@D@2@@2@H@Z
_TEXT	SEGMENT
_this$ = -16						; size = 4
$T1 = -12						; size = 4
tv69 = -8						; size = 4
__Name$ = -4						; size = 4
___$ReturnUdt$ = 8					; size = 4
__Errcode$ = 12						; size = 4
?message@_Generic_error_category@std@@UBE?AV?$basic_string@DU?$char_traits@D@std@@V?$allocator@D@2@@2@H@Z PROC ; std::_Generic_error_category::message, COMDAT
; _this$ = ecx

; 590  : 		{	// convert to name of error

	push	ebp
	mov	ebp, esp
	sub	esp, 16					; 00000010H
	mov	DWORD PTR _this$[ebp], ecx
	mov	DWORD PTR $T1[ebp], 0

; 591  : 		const char *_Name = _Syserror_map(_Errcode);

	mov	eax, DWORD PTR __Errcode$[ebp]
	push	eax
	call	?_Syserror_map@std@@YAPBDH@Z		; std::_Syserror_map
	add	esp, 4
	mov	DWORD PTR __Name$[ebp], eax

; 592  : 		return (string(_Name != 0 ? _Name : "unknown error"));

	cmp	DWORD PTR __Name$[ebp], 0
	je	SHORT $LN3@message
	mov	ecx, DWORD PTR __Name$[ebp]
	mov	DWORD PTR tv69[ebp], ecx
	jmp	SHORT $LN4@message
$LN3@message:
	mov	DWORD PTR tv69[ebp], OFFSET ??_C@_0O@BFJCFAAK@unknown?5error?$AA@
$LN4@message:
	mov	edx, DWORD PTR tv69[ebp]
	push	edx
	mov	ecx, DWORD PTR ___$ReturnUdt$[ebp]
	call	??0?$basic_string@DU?$char_traits@D@std@@V?$allocator@D@2@@std@@QAE@PBD@Z ; std::basic_string<char,std::char_traits<char>,std::allocator<char> >::basic_string<char,std::char_traits<char>,std::allocator<char> >
	mov	eax, DWORD PTR $T1[ebp]
	or	eax, 1
	mov	DWORD PTR $T1[ebp], eax
	mov	eax, DWORD PTR ___$ReturnUdt$[ebp]

; 593  : 		}

	mov	esp, ebp
	pop	ebp
	ret	8
?message@_Generic_error_category@std@@UBE?AV?$basic_string@DU?$char_traits@D@std@@V?$allocator@D@2@@2@H@Z ENDP ; std::_Generic_error_category::message
_TEXT	ENDS
; Function compile flags: /Odtp
; File c:\program files (x86)\microsoft visual studio 11.0\vc\include\system_error
;	COMDAT ?name@_Generic_error_category@std@@UBEPBDXZ
_TEXT	SEGMENT
_this$ = -4						; size = 4
?name@_Generic_error_category@std@@UBEPBDXZ PROC	; std::_Generic_error_category::name, COMDAT
; _this$ = ecx

; 585  : 		{	// get name of category

	push	ebp
	mov	ebp, esp
	push	ecx
	mov	DWORD PTR _this$[ebp], ecx

; 586  : 		return ("generic");

	mov	eax, OFFSET ??_C@_07DCLBNMLN@generic?$AA@

; 587  : 		}

	mov	esp, ebp
	pop	ebp
	ret	0
?name@_Generic_error_category@std@@UBEPBDXZ ENDP	; std::_Generic_error_category::name
_TEXT	ENDS
; Function compile flags: /Odtp
; File c:\program files (x86)\microsoft visual studio 11.0\vc\include\system_error
;	COMDAT ??0_Generic_error_category@std@@QAE@XZ
_TEXT	SEGMENT
_this$ = -4						; size = 4
??0_Generic_error_category@std@@QAE@XZ PROC		; std::_Generic_error_category::_Generic_error_category, COMDAT
; _this$ = ecx

; 580  : 	_Generic_error_category()

	push	ebp
	mov	ebp, esp
	push	ecx
	mov	DWORD PTR _this$[ebp], ecx
	mov	ecx, DWORD PTR _this$[ebp]
	call	??0error_category@std@@QAE@XZ		; std::error_category::error_category
	mov	eax, DWORD PTR _this$[ebp]
	mov	DWORD PTR [eax], OFFSET ??_7_Generic_error_category@std@@6B@

; 581  : 		{	// default constructor
; 582  : 		}

	mov	eax, DWORD PTR _this$[ebp]
	mov	esp, ebp
	pop	ebp
	ret	0
??0_Generic_error_category@std@@QAE@XZ ENDP		; std::_Generic_error_category::_Generic_error_category
_TEXT	ENDS
; Function compile flags: /Odtp
; File c:\program files (x86)\microsoft visual studio 11.0\vc\include\system_error
;	COMDAT ??8error_condition@std@@QBE_NABV01@@Z
_TEXT	SEGMENT
tv78 = -8						; size = 4
_this$ = -4						; size = 4
__Right$ = 8						; size = 4
??8error_condition@std@@QBE_NABV01@@Z PROC		; std::error_condition::operator==, COMDAT
; _this$ = ecx

; 376  : 		{	// test if *this == _Right

	push	ebp
	mov	ebp, esp
	sub	esp, 8
	push	esi
	mov	DWORD PTR _this$[ebp], ecx

; 377  : 		return (category() == _Right.category()
; 378  : 			&& value() == _Right.value());

	mov	ecx, DWORD PTR __Right$[ebp]
	call	?category@error_condition@std@@QBEABVerror_category@2@XZ ; std::error_condition::category
	push	eax
	mov	ecx, DWORD PTR _this$[ebp]
	call	?category@error_condition@std@@QBEABVerror_category@2@XZ ; std::error_condition::category
	mov	ecx, eax
	call	??8error_category@std@@QBE_NABV01@@Z	; std::error_category::operator==
	movzx	eax, al
	test	eax, eax
	je	SHORT $LN3@operator
	mov	ecx, DWORD PTR _this$[ebp]
	call	?value@error_condition@std@@QBEHXZ	; std::error_condition::value
	mov	esi, eax
	mov	ecx, DWORD PTR __Right$[ebp]
	call	?value@error_condition@std@@QBEHXZ	; std::error_condition::value
	cmp	esi, eax
	jne	SHORT $LN3@operator
	mov	DWORD PTR tv78[ebp], 1
	jmp	SHORT $LN4@operator
$LN3@operator:
	mov	DWORD PTR tv78[ebp], 0
$LN4@operator:
	mov	al, BYTE PTR tv78[ebp]

; 379  : 		}

	pop	esi
	mov	esp, ebp
	pop	ebp
	ret	4
??8error_condition@std@@QBE_NABV01@@Z ENDP		; std::error_condition::operator==
_TEXT	ENDS
; Function compile flags: /Odtp
; File c:\program files (x86)\microsoft visual studio 11.0\vc\include\system_error
;	COMDAT ?category@error_condition@std@@QBEABVerror_category@2@XZ
_TEXT	SEGMENT
_this$ = -4						; size = 4
?category@error_condition@std@@QBEABVerror_category@2@XZ PROC ; std::error_condition::category, COMDAT
; _this$ = ecx

; 354  : 		{	// get category

	push	ebp
	mov	ebp, esp
	push	ecx
	mov	DWORD PTR _this$[ebp], ecx

; 355  : 		return (*_Mycat);

	mov	eax, DWORD PTR _this$[ebp]
	mov	eax, DWORD PTR [eax+4]

; 356  : 		}

	mov	esp, ebp
	pop	ebp
	ret	0
?category@error_condition@std@@QBEABVerror_category@2@XZ ENDP ; std::error_condition::category
_TEXT	ENDS
; Function compile flags: /Odtp
; File c:\program files (x86)\microsoft visual studio 11.0\vc\include\system_error
;	COMDAT ?value@error_condition@std@@QBEHXZ
_TEXT	SEGMENT
_this$ = -4						; size = 4
?value@error_condition@std@@QBEHXZ PROC			; std::error_condition::value, COMDAT
; _this$ = ecx

; 349  : 		{	// get error code

	push	ebp
	mov	ebp, esp
	push	ecx
	mov	DWORD PTR _this$[ebp], ecx

; 350  : 		return (_Myval);

	mov	eax, DWORD PTR _this$[ebp]
	mov	eax, DWORD PTR [eax]

; 351  : 		}

	mov	esp, ebp
	pop	ebp
	ret	0
?value@error_condition@std@@QBEHXZ ENDP			; std::error_condition::value
_TEXT	ENDS
; Function compile flags: /Odtp
; File c:\program files (x86)\microsoft visual studio 11.0\vc\include\system_error
;	COMDAT ??0error_condition@std@@QAE@HABVerror_category@1@@Z
_TEXT	SEGMENT
_this$ = -4						; size = 4
__Val$ = 8						; size = 4
__Cat$ = 12						; size = 4
??0error_condition@std@@QAE@HABVerror_category@1@@Z PROC ; std::error_condition::error_condition, COMDAT
; _this$ = ecx

; 316  : 		{	// construct from error code and category

	push	ebp
	mov	ebp, esp
	push	ecx
	mov	DWORD PTR _this$[ebp], ecx
	mov	eax, DWORD PTR _this$[ebp]
	mov	ecx, DWORD PTR __Val$[ebp]
	mov	DWORD PTR [eax], ecx
	mov	edx, DWORD PTR _this$[ebp]
	mov	eax, DWORD PTR __Cat$[ebp]
	mov	DWORD PTR [edx+4], eax

; 317  : 		}

	mov	eax, DWORD PTR _this$[ebp]
	mov	esp, ebp
	pop	ebp
	ret	8
??0error_condition@std@@QAE@HABVerror_category@1@@Z ENDP ; std::error_condition::error_condition
_TEXT	ENDS
; Function compile flags: /Odtp
; File c:\program files (x86)\microsoft visual studio 11.0\vc\include\system_error
;	COMDAT ?category@error_code@std@@QBEABVerror_category@2@XZ
_TEXT	SEGMENT
_this$ = -4						; size = 4
?category@error_code@std@@QBEABVerror_category@2@XZ PROC ; std::error_code::category, COMDAT
; _this$ = ecx

; 256  : 		{	// get category

	push	ebp
	mov	ebp, esp
	push	ecx
	mov	DWORD PTR _this$[ebp], ecx

; 257  : 		return (*_Mycat);

	mov	eax, DWORD PTR _this$[ebp]
	mov	eax, DWORD PTR [eax+4]

; 258  : 		}

	mov	esp, ebp
	pop	ebp
	ret	0
?category@error_code@std@@QBEABVerror_category@2@XZ ENDP ; std::error_code::category
_TEXT	ENDS
; Function compile flags: /Odtp
; File c:\program files (x86)\microsoft visual studio 11.0\vc\include\system_error
;	COMDAT ?value@error_code@std@@QBEHXZ
_TEXT	SEGMENT
_this$ = -4						; size = 4
?value@error_code@std@@QBEHXZ PROC			; std::error_code::value, COMDAT
; _this$ = ecx

; 251  : 		{	// get error code

	push	ebp
	mov	ebp, esp
	push	ecx
	mov	DWORD PTR _this$[ebp], ecx

; 252  : 		return (_Myval);

	mov	eax, DWORD PTR _this$[ebp]
	mov	eax, DWORD PTR [eax]

; 253  : 		}

	mov	esp, ebp
	pop	ebp
	ret	0
?value@error_code@std@@QBEHXZ ENDP			; std::error_code::value
_TEXT	ENDS
; Function compile flags: /Odtp
;	COMDAT ??_Gerror_category@std@@UAEPAXI@Z
_TEXT	SEGMENT
_this$ = -4						; size = 4
___flags$ = 8						; size = 4
??_Gerror_category@std@@UAEPAXI@Z PROC			; std::error_category::`scalar deleting destructor', COMDAT
; _this$ = ecx
	push	ebp
	mov	ebp, esp
	push	ecx
	mov	DWORD PTR _this$[ebp], ecx
	mov	ecx, DWORD PTR _this$[ebp]
	call	??1error_category@std@@UAE@XZ		; std::error_category::~error_category
	mov	eax, DWORD PTR ___flags$[ebp]
	and	eax, 1
	je	SHORT $LN1@scalar
	mov	ecx, DWORD PTR _this$[ebp]
	push	ecx
	call	??3@YAXPAX@Z				; operator delete
	add	esp, 4
$LN1@scalar:
	mov	eax, DWORD PTR _this$[ebp]
	mov	esp, ebp
	pop	ebp
	ret	4
??_Gerror_category@std@@UAEPAXI@Z ENDP			; std::error_category::`scalar deleting destructor'
_TEXT	ENDS
; Function compile flags: /Odtp
; File c:\program files (x86)\microsoft visual studio 11.0\vc\include\system_error
;	COMDAT ??8error_category@std@@QBE_NABV01@@Z
_TEXT	SEGMENT
_this$ = -8						; size = 4
tv65 = -4						; size = 4
__Right$ = 8						; size = 4
??8error_category@std@@QBE_NABV01@@Z PROC		; std::error_category::operator==, COMDAT
; _this$ = ecx

; 184  : 		{	// compare categories for equality

	push	ebp
	mov	ebp, esp
	sub	esp, 8
	mov	DWORD PTR _this$[ebp], ecx

; 185  : 		return (this == &_Right);

	mov	eax, DWORD PTR _this$[ebp]
	cmp	eax, DWORD PTR __Right$[ebp]
	jne	SHORT $LN3@operator
	mov	DWORD PTR tv65[ebp], 1
	jmp	SHORT $LN4@operator
$LN3@operator:
	mov	DWORD PTR tv65[ebp], 0
$LN4@operator:
	mov	al, BYTE PTR tv65[ebp]

; 186  : 		}

	mov	esp, ebp
	pop	ebp
	ret	4
??8error_category@std@@QBE_NABV01@@Z ENDP		; std::error_category::operator==
_TEXT	ENDS
; Function compile flags: /Odtp
; File c:\program files (x86)\microsoft visual studio 11.0\vc\include\system_error
;	COMDAT ?equivalent@error_category@std@@UBE_NABVerror_code@2@H@Z
_TEXT	SEGMENT
_this$ = -8						; size = 4
tv74 = -4						; size = 4
__Code$ = 8						; size = 4
__Errval$ = 12						; size = 4
?equivalent@error_category@std@@UBE_NABVerror_code@2@H@Z PROC ; std::error_category::equivalent, COMDAT
; _this$ = ecx

; 415  : 	{	// test if conditions same for this category

	push	ebp
	mov	ebp, esp
	sub	esp, 8
	mov	DWORD PTR _this$[ebp], ecx

; 416  : 	return (*this == _Code.category() && _Code.value() == _Errval);

	mov	ecx, DWORD PTR __Code$[ebp]
	call	?category@error_code@std@@QBEABVerror_category@2@XZ ; std::error_code::category
	push	eax
	mov	ecx, DWORD PTR _this$[ebp]
	call	??8error_category@std@@QBE_NABV01@@Z	; std::error_category::operator==
	movzx	eax, al
	test	eax, eax
	je	SHORT $LN3@equivalent
	mov	ecx, DWORD PTR __Code$[ebp]
	call	?value@error_code@std@@QBEHXZ		; std::error_code::value
	cmp	eax, DWORD PTR __Errval$[ebp]
	jne	SHORT $LN3@equivalent
	mov	DWORD PTR tv74[ebp], 1
	jmp	SHORT $LN4@equivalent
$LN3@equivalent:
	mov	DWORD PTR tv74[ebp], 0
$LN4@equivalent:
	mov	al, BYTE PTR tv74[ebp]

; 417  : 	}

	mov	esp, ebp
	pop	ebp
	ret	8
?equivalent@error_category@std@@UBE_NABVerror_code@2@H@Z ENDP ; std::error_category::equivalent
_TEXT	ENDS
; Function compile flags: /Odtp
; File c:\program files (x86)\microsoft visual studio 11.0\vc\include\system_error
;	COMDAT ?equivalent@error_category@std@@UBE_NHABVerror_condition@2@@Z
_TEXT	SEGMENT
$T1 = -12						; size = 8
_this$ = -4						; size = 4
__Errval$ = 8						; size = 4
__Cond$ = 12						; size = 4
?equivalent@error_category@std@@UBE_NHABVerror_condition@2@@Z PROC ; std::error_category::equivalent, COMDAT
; _this$ = ecx

; 408  : 	{	// test if error code same condition

	push	ebp
	mov	ebp, esp
	sub	esp, 12					; 0000000cH
	mov	DWORD PTR _this$[ebp], ecx

; 409  : 	return (default_error_condition(_Errval) == _Cond);

	mov	eax, DWORD PTR __Cond$[ebp]
	push	eax
	mov	ecx, DWORD PTR __Errval$[ebp]
	push	ecx
	lea	edx, DWORD PTR $T1[ebp]
	push	edx
	mov	eax, DWORD PTR _this$[ebp]
	mov	edx, DWORD PTR [eax]
	mov	ecx, DWORD PTR _this$[ebp]
	mov	eax, DWORD PTR [edx+12]
	call	eax
	mov	ecx, eax
	call	??8error_condition@std@@QBE_NABV01@@Z	; std::error_condition::operator==

; 410  : 	}

	mov	esp, ebp
	pop	ebp
	ret	8
?equivalent@error_category@std@@UBE_NHABVerror_condition@2@@Z ENDP ; std::error_category::equivalent
_TEXT	ENDS
; Function compile flags: /Odtp
; File c:\program files (x86)\microsoft visual studio 11.0\vc\include\system_error
;	COMDAT ?default_error_condition@error_category@std@@UBE?AVerror_condition@2@H@Z
_TEXT	SEGMENT
_this$ = -4						; size = 4
___$ReturnUdt$ = 8					; size = 4
__Errval$ = 12						; size = 4
?default_error_condition@error_category@std@@UBE?AVerror_condition@2@H@Z PROC ; std::error_category::default_error_condition, COMDAT
; _this$ = ecx

; 401  : 	{	// make error_condition for error code

	push	ebp
	mov	ebp, esp
	push	ecx
	mov	DWORD PTR _this$[ebp], ecx

; 402  : 	return (error_condition(_Errval, *this));

	mov	eax, DWORD PTR _this$[ebp]
	push	eax
	mov	ecx, DWORD PTR __Errval$[ebp]
	push	ecx
	mov	ecx, DWORD PTR ___$ReturnUdt$[ebp]
	call	??0error_condition@std@@QAE@HABVerror_category@1@@Z ; std::error_condition::error_condition
	mov	eax, DWORD PTR ___$ReturnUdt$[ebp]

; 403  : 	}

	mov	esp, ebp
	pop	ebp
	ret	8
?default_error_condition@error_category@std@@UBE?AVerror_condition@2@H@Z ENDP ; std::error_category::default_error_condition
_TEXT	ENDS
; Function compile flags: /Odtp
; File c:\program files (x86)\microsoft visual studio 11.0\vc\include\system_error
;	COMDAT ??1error_category@std@@UAE@XZ
_TEXT	SEGMENT
_this$ = -4						; size = 4
??1error_category@std@@UAE@XZ PROC			; std::error_category::~error_category, COMDAT
; _this$ = ecx

; 167  : 		{	// destroy the object

	push	ebp
	mov	ebp, esp
	push	ecx
	mov	DWORD PTR _this$[ebp], ecx
	mov	eax, DWORD PTR _this$[ebp]
	mov	DWORD PTR [eax], OFFSET ??_7error_category@std@@6B@

; 168  : 		}

	mov	esp, ebp
	pop	ebp
	ret	0
??1error_category@std@@UAE@XZ ENDP			; std::error_category::~error_category
_TEXT	ENDS
; Function compile flags: /Odtp
; File c:\program files (x86)\microsoft visual studio 11.0\vc\include\system_error
;	COMDAT ??0error_category@std@@QAE@XZ
_TEXT	SEGMENT
_this$ = -4						; size = 4
??0error_category@std@@QAE@XZ PROC			; std::error_category::error_category, COMDAT
; _this$ = ecx

; 162  : 	error_category()

	push	ebp
	mov	ebp, esp
	push	ecx
	mov	DWORD PTR _this$[ebp], ecx
	mov	eax, DWORD PTR _this$[ebp]
	mov	DWORD PTR [eax], OFFSET ??_7error_category@std@@6B@

; 163  : 		{	// default constructor
; 164  : 		}

	mov	eax, DWORD PTR _this$[ebp]
	mov	esp, ebp
	pop	ebp
	ret	0
??0error_category@std@@QAE@XZ ENDP			; std::error_category::error_category
_TEXT	ENDS
; Function compile flags: /Odtp
; File c:\program files (x86)\microsoft visual studio 11.0\vc\include\system_error
;	COMDAT ?system_category@std@@YAABVerror_category@1@XZ
_TEXT	SEGMENT
?system_category@std@@YAABVerror_category@1@XZ PROC	; std::system_category, COMDAT

; 679  : 	{	// get system_category

	push	ebp
	mov	ebp, esp

; 680  : 	return (_Error_objects<int>::_System_object);

	mov	eax, OFFSET ?_System_object@?$_Error_objects@H@std@@2V_System_error_category@2@A ; std::_Error_objects<int>::_System_object

; 681  : 	}

	pop	ebp
	ret	0
?system_category@std@@YAABVerror_category@1@XZ ENDP	; std::system_category
_TEXT	ENDS
; Function compile flags: /Odtp
; File c:\program files (x86)\microsoft visual studio 11.0\vc\include\system_error
;	COMDAT ?generic_category@std@@YAABVerror_category@1@XZ
_TEXT	SEGMENT
?generic_category@std@@YAABVerror_category@1@XZ PROC	; std::generic_category, COMDAT

; 669  : 	{	// get generic_category

	push	ebp
	mov	ebp, esp

; 670  : 	return (_Error_objects<int>::_Generic_object);

	mov	eax, OFFSET ?_Generic_object@?$_Error_objects@H@std@@2V_Generic_error_category@2@A ; std::_Error_objects<int>::_Generic_object

; 671  : 	}

	pop	ebp
	ret	0
?generic_category@std@@YAABVerror_category@1@XZ ENDP	; std::generic_category
_TEXT	ENDS
; Function compile flags: /Odtp
; File c:\program files (x86)\microsoft visual studio 11.0\vc\include\xlocale
;	COMDAT ??0id@locale@std@@QAE@I@Z
_TEXT	SEGMENT
_this$ = -4						; size = 4
__Val$ = 8						; size = 4
??0id@locale@std@@QAE@I@Z PROC				; std::locale::id::id, COMDAT
; _this$ = ecx

; 74   : 			{	// construct with specified stamp value

	push	ebp
	mov	ebp, esp
	push	ecx
	mov	DWORD PTR _this$[ebp], ecx
	mov	eax, DWORD PTR _this$[ebp]
	mov	ecx, DWORD PTR __Val$[ebp]
	mov	DWORD PTR [eax], ecx

; 75   : 			}

	mov	eax, DWORD PTR _this$[ebp]
	mov	esp, ebp
	pop	ebp
	ret	4
??0id@locale@std@@QAE@I@Z ENDP				; std::locale::id::id
_TEXT	ENDS
; Function compile flags: /Odtp
; File c:\users\zhitao li\documents\visual studio 2012\projects\freefalcon\sim\include\object.h
;	COMDAT ?BaseData@SimObjectType@@QAEPAVFalconEntity@@XZ
_TEXT	SEGMENT
_this$ = -4						; size = 4
?BaseData@SimObjectType@@QAEPAVFalconEntity@@XZ PROC	; SimObjectType::BaseData, COMDAT
; _this$ = ecx

; 92   : 	FalconEntity* BaseData(void) { return baseData.get(); };

	push	ebp
	mov	ebp, esp
	push	ecx
	mov	DWORD PTR _this$[ebp], ecx
	mov	ecx, DWORD PTR _this$[ebp]
	call	?get@?$VuBin@VFalconEntity@@@@QBEPAVFalconEntity@@XZ ; VuBin<FalconEntity>::get
	mov	esp, ebp
	pop	ebp
	ret	0
?BaseData@SimObjectType@@QAEPAVFalconEntity@@XZ ENDP	; SimObjectType::BaseData
_TEXT	ENDS
; Function compile flags: /Odtp
; File c:\users\zhitao li\documents\visual studio 2012\projects\freefalcon\sim\include\sms.h
;	COMDAT ?MasterArm@SMSBaseClass@@QAE?AW4MasterArmState@1@XZ
_TEXT	SEGMENT
_this$ = -4						; size = 4
?MasterArm@SMSBaseClass@@QAE?AW4MasterArmState@1@XZ PROC ; SMSBaseClass::MasterArm, COMDAT
; _this$ = ecx

; 92   : 	MasterArmState MasterArm(void) {return masterArm;};

	push	ebp
	mov	ebp, esp
	push	ecx
	mov	DWORD PTR _this$[ebp], ecx
	mov	eax, DWORD PTR _this$[ebp]
	mov	eax, DWORD PTR [eax+8]
	mov	esp, ebp
	pop	ebp
	ret	0
?MasterArm@SMSBaseClass@@QAE?AW4MasterArmState@1@XZ ENDP ; SMSBaseClass::MasterArm
_TEXT	ENDS
; Function compile flags: /Odtp
; File c:\users\zhitao li\documents\visual studio 2012\projects\freefalcon\sim\include\sms.h
;	COMDAT ?Ownship@SMSBaseClass@@QAEPAVSimVehicleClass@@XZ
_TEXT	SEGMENT
_this$ = -4						; size = 4
?Ownship@SMSBaseClass@@QAEPAVSimVehicleClass@@XZ PROC	; SMSBaseClass::Ownship, COMDAT
; _this$ = ecx

; 91   : 	SimVehicleClass* Ownship(void) {return ownship;};

	push	ebp
	mov	ebp, esp
	push	ecx
	mov	DWORD PTR _this$[ebp], ecx
	mov	eax, DWORD PTR _this$[ebp]
	mov	eax, DWORD PTR [eax+56]
	mov	esp, ebp
	pop	ebp
	ret	0
?Ownship@SMSBaseClass@@QAEPAVSimVehicleClass@@XZ ENDP	; SMSBaseClass::Ownship
_TEXT	ENDS
; Function compile flags: /Odtp
; File c:\users\zhitao li\documents\visual studio 2012\projects\freefalcon\sim\fcc\lgbfcc.cpp
_TEXT	SEGMENT
tv530 = -68						; size = 4
tv552 = -64						; size = 4
tv497 = -60						; size = 4
tv550 = -56						; size = 4
tv445 = -52						; size = 4
tv438 = -48						; size = 4
tv431 = -44						; size = 4
_rz$ = -40						; size = 4
_curWaypoint$ = -36					; size = 4
_rx$ = -32						; size = 4
_targetingPod$ = -28					; size = 4
_dz$ = -24						; size = 4
_ry$ = -20						; size = 4
_theRadar$ = -16					; size = 4
_dy$ = -12						; size = 4
_dx$ = -8						; size = 4
_this$ = -4						; size = 4
?RecalcPos@FireControlComputer@@QAEXXZ PROC		; FireControlComputer::RecalcPos
; _this$ = ecx

; 895  : {

	push	ebp
	mov	ebp, esp
	sub	esp, 68					; 00000044H
	mov	DWORD PTR _this$[ebp], ecx

; 896  : float dx, dy, dz;
; 897  : float rx, ry, rz;
; 898  : 
; 899  : 	LaserPodClass* targetingPod = (LaserPodClass*) FindLaserPod (platform);

	mov	eax, DWORD PTR _this$[ebp]
	mov	ecx, DWORD PTR [eax+140]
	push	ecx
	call	?FindLaserPod@@YAPAVSensorClass@@PAVSimMoverClass@@@Z ; FindLaserPod
	add	esp, 4
	mov	DWORD PTR _targetingPod$[ebp], eax

; 900  : 	RadarClass* theRadar = (RadarClass*) FindSensor (platform, SensorClass::Radar);

	push	1
	mov	edx, DWORD PTR _this$[ebp]
	mov	eax, DWORD PTR [edx+140]
	push	eax
	call	?FindSensor@@YAPAVSensorClass@@PAVSimMoverClass@@H@Z ; FindSensor
	add	esp, 8
	mov	DWORD PTR _theRadar$[ebp], eax

; 901  : 	WayPointClass* curWaypoint = platform->curWaypoint;

	mov	ecx, DWORD PTR _this$[ebp]
	mov	edx, DWORD PTR [ecx+140]
	mov	eax, DWORD PTR [edx+728]
	mov	DWORD PTR _curWaypoint$[ebp], eax

; 902  : 	if(targetingPod)

	cmp	DWORD PTR _targetingPod$[ebp], 0
	je	$LN5@RecalcPos

; 903  : 	{
; 904  : 		if(theRadar && theRadar->IsAG())

	cmp	DWORD PTR _theRadar$[ebp], 0
	je	SHORT $LN4@RecalcPos
	mov	ecx, DWORD PTR _theRadar$[ebp]
	mov	edx, DWORD PTR [ecx]
	mov	ecx, DWORD PTR _theRadar$[ebp]
	mov	eax, DWORD PTR [edx+188]
	call	eax
	test	eax, eax
	je	SHORT $LN4@RecalcPos

; 905  : 		{
; 906  : 			theRadar->GetAGCenter (&groundDesignateX, &groundDesignateY);

	mov	ecx, DWORD PTR _this$[ebp]
	add	ecx, 380				; 0000017cH
	push	ecx
	mov	edx, DWORD PTR _this$[ebp]
	add	edx, 376				; 00000178H
	push	edx
	mov	eax, DWORD PTR _theRadar$[ebp]
	mov	edx, DWORD PTR [eax]
	mov	ecx, DWORD PTR _theRadar$[ebp]
	mov	eax, DWORD PTR [edx+192]
	call	eax

; 907  : 			groundDesignateZ = OTWDriver.GetGroundLevel(groundDesignateX, groundDesignateY);

	push	0
	mov	ecx, DWORD PTR _this$[ebp]
	push	ecx
	movss	xmm0, DWORD PTR [ecx+380]
	movss	DWORD PTR [esp], xmm0
	mov	edx, DWORD PTR _this$[ebp]
	push	ecx
	movss	xmm0, DWORD PTR [edx+376]
	movss	DWORD PTR [esp], xmm0
	mov	ecx, OFFSET ?OTWDriver@@3VOTWDriverClass@@A ; OTWDriver
	call	?GetGroundLevel@OTWDriverClass@@QAEMMMPAUTpoint@@@Z ; OTWDriverClass::GetGroundLevel
	mov	eax, DWORD PTR _this$[ebp]
	fstp	DWORD PTR [eax+384]
	jmp	SHORT $LN2@RecalcPos
$LN4@RecalcPos:

; 908  : 		}
; 909  : 		else if (curWaypoint)

	cmp	DWORD PTR _curWaypoint$[ebp], 0
	je	SHORT $LN2@RecalcPos

; 910  : 		{
; 911  : 			curWaypoint->GetLocation (&groundDesignateX, &groundDesignateY, &groundDesignateZ);

	mov	ecx, DWORD PTR _this$[ebp]
	add	ecx, 384				; 00000180H
	push	ecx
	mov	edx, DWORD PTR _this$[ebp]
	add	edx, 380				; 0000017cH
	push	edx
	mov	eax, DWORD PTR _this$[ebp]
	add	eax, 376				; 00000178H
	push	eax
	mov	ecx, DWORD PTR _curWaypoint$[ebp]
	call	?GetLocation@WayPointClass@@QBEXPAM00@Z	; WayPointClass::GetLocation

; 912  : 			groundDesignateZ = OTWDriver.GetGroundLevel(groundDesignateX, groundDesignateY);

	push	0
	mov	ecx, DWORD PTR _this$[ebp]
	push	ecx
	movss	xmm0, DWORD PTR [ecx+380]
	movss	DWORD PTR [esp], xmm0
	mov	edx, DWORD PTR _this$[ebp]
	push	ecx
	movss	xmm0, DWORD PTR [edx+376]
	movss	DWORD PTR [esp], xmm0
	mov	ecx, OFFSET ?OTWDriver@@3VOTWDriverClass@@A ; OTWDriver
	call	?GetGroundLevel@OTWDriverClass@@QAEMMMPAUTpoint@@@Z ; OTWDriverClass::GetGroundLevel
	mov	eax, DWORD PTR _this$[ebp]
	fstp	DWORD PTR [eax+384]
$LN2@RecalcPos:

; 913  : 		}
; 914  : 		else
; 915  : 		{
; 916  : 			ShiWarning( "Warning:  Junk data for slave mode" );
; 917  : 		}
; 918  : 
; 919  : 		targetingPod->SetTargetPosition (groundDesignateX, groundDesignateY, groundDesignateZ);

	mov	ecx, DWORD PTR _this$[ebp]
	push	ecx
	movss	xmm0, DWORD PTR [ecx+384]
	movss	DWORD PTR [esp], xmm0
	mov	edx, DWORD PTR _this$[ebp]
	push	ecx
	movss	xmm0, DWORD PTR [edx+380]
	movss	DWORD PTR [esp], xmm0
	mov	eax, DWORD PTR _this$[ebp]
	push	ecx
	movss	xmm0, DWORD PTR [eax+376]
	movss	DWORD PTR [esp], xmm0
	mov	ecx, DWORD PTR _targetingPod$[ebp]
	call	?SetTargetPosition@LaserPodClass@@QAEXMMM@Z ; LaserPodClass::SetTargetPosition

; 920  : 
; 921  : 		dx = groundDesignateX - platform->XPos();

	mov	ecx, DWORD PTR _this$[ebp]
	mov	ecx, DWORD PTR [ecx+140]
	call	?XPos@VuEntity@@QBEMXZ			; VuEntity::XPos
	fstp	DWORD PTR tv431[ebp]
	mov	edx, DWORD PTR _this$[ebp]
	movss	xmm0, DWORD PTR [edx+376]
	subss	xmm0, DWORD PTR tv431[ebp]
	movss	DWORD PTR _dx$[ebp], xmm0

; 922  : 		dy = groundDesignateY - platform->YPos();

	mov	eax, DWORD PTR _this$[ebp]
	mov	ecx, DWORD PTR [eax+140]
	call	?YPos@VuEntity@@QBEMXZ			; VuEntity::YPos
	fstp	DWORD PTR tv438[ebp]
	mov	ecx, DWORD PTR _this$[ebp]
	movss	xmm0, DWORD PTR [ecx+380]
	subss	xmm0, DWORD PTR tv438[ebp]
	movss	DWORD PTR _dy$[ebp], xmm0

; 923  : 		dz = groundDesignateZ - platform->ZPos();

	mov	edx, DWORD PTR _this$[ebp]
	mov	ecx, DWORD PTR [edx+140]
	call	?ZPos@VuEntity@@QBEMXZ			; VuEntity::ZPos
	fstp	DWORD PTR tv445[ebp]
	mov	eax, DWORD PTR _this$[ebp]
	movss	xmm0, DWORD PTR [eax+384]
	subss	xmm0, DWORD PTR tv445[ebp]
	movss	DWORD PTR _dz$[ebp], xmm0

; 924  : 
; 925  : 		rx = platform->dmx[0][0]*dx + platform->dmx[0][1]*dy + platform->dmx[0][2]*dz;

	mov	ecx, DWORD PTR _this$[ebp]
	mov	edx, DWORD PTR [ecx+140]
	mov	eax, 12					; 0000000cH
	imul	eax, 0
	lea	ecx, DWORD PTR [edx+eax+296]
	mov	edx, 4
	imul	edx, 0
	movss	xmm0, DWORD PTR [ecx+edx]
	mulss	xmm0, DWORD PTR _dx$[ebp]
	mov	eax, DWORD PTR _this$[ebp]
	mov	ecx, DWORD PTR [eax+140]
	mov	edx, 12					; 0000000cH
	imul	edx, 0
	lea	eax, DWORD PTR [ecx+edx+296]
	mov	ecx, 4
	shl	ecx, 0
	movss	xmm1, DWORD PTR [eax+ecx]
	mulss	xmm1, DWORD PTR _dy$[ebp]
	addss	xmm0, xmm1
	mov	edx, DWORD PTR _this$[ebp]
	mov	eax, DWORD PTR [edx+140]
	mov	ecx, 12					; 0000000cH
	imul	ecx, 0
	lea	edx, DWORD PTR [eax+ecx+296]
	mov	eax, 4
	shl	eax, 1
	movss	xmm1, DWORD PTR [edx+eax]
	mulss	xmm1, DWORD PTR _dz$[ebp]
	addss	xmm0, xmm1
	movss	DWORD PTR _rx$[ebp], xmm0

; 926  : 		ry = platform->dmx[1][0]*dx + platform->dmx[1][1]*dy + platform->dmx[1][2]*dz;

	mov	ecx, DWORD PTR _this$[ebp]
	mov	edx, DWORD PTR [ecx+140]
	mov	eax, 12					; 0000000cH
	shl	eax, 0
	lea	ecx, DWORD PTR [edx+eax+296]
	mov	edx, 4
	imul	edx, 0
	movss	xmm0, DWORD PTR [ecx+edx]
	mulss	xmm0, DWORD PTR _dx$[ebp]
	mov	eax, DWORD PTR _this$[ebp]
	mov	ecx, DWORD PTR [eax+140]
	mov	edx, 12					; 0000000cH
	shl	edx, 0
	lea	eax, DWORD PTR [ecx+edx+296]
	mov	ecx, 4
	shl	ecx, 0
	movss	xmm1, DWORD PTR [eax+ecx]
	mulss	xmm1, DWORD PTR _dy$[ebp]
	addss	xmm0, xmm1
	mov	edx, DWORD PTR _this$[ebp]
	mov	eax, DWORD PTR [edx+140]
	mov	ecx, 12					; 0000000cH
	shl	ecx, 0
	lea	edx, DWORD PTR [eax+ecx+296]
	mov	eax, 4
	shl	eax, 1
	movss	xmm1, DWORD PTR [edx+eax]
	mulss	xmm1, DWORD PTR _dz$[ebp]
	addss	xmm0, xmm1
	movss	DWORD PTR _ry$[ebp], xmm0

; 927  : 		rz = platform->dmx[2][0]*dx + platform->dmx[2][1]*dy + platform->dmx[2][2]*dz;

	mov	ecx, DWORD PTR _this$[ebp]
	mov	edx, DWORD PTR [ecx+140]
	mov	eax, 12					; 0000000cH
	shl	eax, 1
	lea	ecx, DWORD PTR [edx+eax+296]
	mov	edx, 4
	imul	edx, 0
	movss	xmm0, DWORD PTR [ecx+edx]
	mulss	xmm0, DWORD PTR _dx$[ebp]
	mov	eax, DWORD PTR _this$[ebp]
	mov	ecx, DWORD PTR [eax+140]
	mov	edx, 12					; 0000000cH
	shl	edx, 1
	lea	eax, DWORD PTR [ecx+edx+296]
	mov	ecx, 4
	shl	ecx, 0
	movss	xmm1, DWORD PTR [eax+ecx]
	mulss	xmm1, DWORD PTR _dy$[ebp]
	addss	xmm0, xmm1
	mov	edx, DWORD PTR _this$[ebp]
	mov	eax, DWORD PTR [edx+140]
	mov	ecx, 12					; 0000000cH
	shl	ecx, 1
	lea	edx, DWORD PTR [eax+ecx+296]
	mov	eax, 4
	shl	eax, 1
	movss	xmm1, DWORD PTR [edx+eax]
	mulss	xmm1, DWORD PTR _dz$[ebp]
	addss	xmm0, xmm1
	movss	DWORD PTR _rz$[ebp], xmm0

; 928  : 
; 929  : 		groundDesignateAz    = (float)atan2 (ry,rx);

	cvtss2sd xmm0, DWORD PTR _rx$[ebp]
	sub	esp, 8
	movsd	QWORD PTR [esp], xmm0
	cvtss2sd xmm0, DWORD PTR _ry$[ebp]
	sub	esp, 8
	movsd	QWORD PTR [esp], xmm0
	call	?checked_atan2@@YANNN@Z			; checked_atan2
	add	esp, 16					; 00000010H
	mov	ecx, DWORD PTR _this$[ebp]
	fstp	DWORD PTR [ecx+364]

; 930  : 		groundDesignateEl    = (float)atan (-rz/(float)sqrt(rx*rx+ry*ry+.1f));

	movss	xmm0, DWORD PTR _rz$[ebp]
	xorps	xmm0, DWORD PTR __xmm@80000000800000008000000080000000
	movss	xmm1, DWORD PTR _rx$[ebp]
	mulss	xmm1, DWORD PTR _rx$[ebp]
	movss	xmm2, DWORD PTR _ry$[ebp]
	mulss	xmm2, DWORD PTR _ry$[ebp]
	addss	xmm1, xmm2
	addss	xmm1, DWORD PTR __real@3dcccccd
	push	ecx
	movss	DWORD PTR [esp], xmm1
	movss	DWORD PTR tv550[ebp], xmm0
	call	?SqrtSSE@@YAMM@Z			; SqrtSSE
	add	esp, 4
	fstp	DWORD PTR tv497[ebp]
	movss	xmm0, DWORD PTR tv550[ebp]
	divss	xmm0, DWORD PTR tv497[ebp]
	push	ecx
	movss	DWORD PTR [esp], xmm0
	call	?atan@@YAMM@Z				; atan
	add	esp, 4
	mov	edx, DWORD PTR _this$[ebp]
	fstp	DWORD PTR [edx+368]

; 931  : 		groundDesignateDroll = (float)atan2 (ry,-rz);

	movss	xmm0, DWORD PTR _rz$[ebp]
	xorps	xmm0, DWORD PTR __xmm@80000000800000008000000080000000
	cvtss2sd xmm0, xmm0
	sub	esp, 8
	movsd	QWORD PTR [esp], xmm0
	cvtss2sd xmm0, DWORD PTR _ry$[ebp]
	sub	esp, 8
	movsd	QWORD PTR [esp], xmm0
	call	?checked_atan2@@YANNN@Z			; checked_atan2
	add	esp, 16					; 00000010H
	mov	eax, DWORD PTR _this$[ebp]
	fstp	DWORD PTR [eax+372]

; 932  : 		yaw = groundDesignateAz;

	mov	ecx, DWORD PTR _this$[ebp]
	mov	edx, DWORD PTR _this$[ebp]
	mov	eax, DWORD PTR [edx+364]
	mov	DWORD PTR [ecx+448], eax

; 933  : 		pitch = groundDesignateEl;

	mov	ecx, DWORD PTR _this$[ebp]
	mov	edx, DWORD PTR _this$[ebp]
	mov	eax, DWORD PTR [edx+368]
	mov	DWORD PTR [ecx+440], eax

; 934  : 		targetingPod->SetDesiredSeekerPos (&yaw, &pitch);

	mov	ecx, DWORD PTR _this$[ebp]
	add	ecx, 440				; 000001b8H
	push	ecx
	mov	edx, DWORD PTR _this$[ebp]
	add	edx, 448				; 000001c0H
	push	edx
	mov	ecx, DWORD PTR _targetingPod$[ebp]
	call	?SetDesiredSeekerPos@LaserPodClass@@QAEHPAM0@Z ; LaserPodClass::SetDesiredSeekerPos

; 935  : 
; 936  : 		yaw   = (float)atan2 (dy,dx);

	cvtss2sd xmm0, DWORD PTR _dx$[ebp]
	sub	esp, 8
	movsd	QWORD PTR [esp], xmm0
	cvtss2sd xmm0, DWORD PTR _dy$[ebp]
	sub	esp, 8
	movsd	QWORD PTR [esp], xmm0
	call	?checked_atan2@@YANNN@Z			; checked_atan2
	add	esp, 16					; 00000010H
	mov	eax, DWORD PTR _this$[ebp]
	fstp	DWORD PTR [eax+448]

; 937  : 		pitch = (float)atan (-dz/(float)sqrt(dx*dx+dy*dy+.1f));

	movss	xmm0, DWORD PTR _dz$[ebp]
	xorps	xmm0, DWORD PTR __xmm@80000000800000008000000080000000
	movss	xmm1, DWORD PTR _dx$[ebp]
	mulss	xmm1, DWORD PTR _dx$[ebp]
	movss	xmm2, DWORD PTR _dy$[ebp]
	mulss	xmm2, DWORD PTR _dy$[ebp]
	addss	xmm1, xmm2
	addss	xmm1, DWORD PTR __real@3dcccccd
	push	ecx
	movss	DWORD PTR [esp], xmm1
	movss	DWORD PTR tv552[ebp], xmm0
	call	?SqrtSSE@@YAMM@Z			; SqrtSSE
	add	esp, 4
	fstp	DWORD PTR tv530[ebp]
	movss	xmm0, DWORD PTR tv552[ebp]
	divss	xmm0, DWORD PTR tv530[ebp]
	push	ecx
	movss	DWORD PTR [esp], xmm0
	call	?atan@@YAMM@Z				; atan
	add	esp, 4
	mov	ecx, DWORD PTR _this$[ebp]
	fstp	DWORD PTR [ecx+440]

; 938  : 		roll  = platform->Roll();

	mov	edx, DWORD PTR _this$[ebp]
	mov	ecx, DWORD PTR [edx+140]
	call	?Roll@VuEntity@@QBEMXZ			; VuEntity::Roll
	mov	eax, DWORD PTR _this$[ebp]
	fstp	DWORD PTR [eax+444]

; 939  : 		targetingPod->SetYPR (yaw, pitch, roll);

	mov	ecx, DWORD PTR _this$[ebp]
	push	ecx
	movss	xmm0, DWORD PTR [ecx+444]
	movss	DWORD PTR [esp], xmm0
	mov	edx, DWORD PTR _this$[ebp]
	push	ecx
	movss	xmm0, DWORD PTR [edx+440]
	movss	DWORD PTR [esp], xmm0
	mov	eax, DWORD PTR _this$[ebp]
	push	ecx
	movss	xmm0, DWORD PTR [eax+448]
	movss	DWORD PTR [esp], xmm0
	mov	ecx, DWORD PTR _targetingPod$[ebp]
	call	?SetYPR@LaserPodClass@@QAEXMMM@Z	; LaserPodClass::SetYPR
$LN5@RecalcPos:

; 940  : 	}
; 941  : }

	mov	esp, ebp
	pop	ebp
	ret	0
?RecalcPos@FireControlComputer@@QAEXXZ ENDP		; FireControlComputer::RecalcPos
_TEXT	ENDS
; Function compile flags: /Odtp
; File c:\users\zhitao li\documents\visual studio 2012\projects\freefalcon\sim\fcc\lgbfcc.cpp
_TEXT	SEGMENT
tv79 = -12						; size = 4
_playerAC$ = -8						; size = 4
_this$ = -4						; size = 4
?ToggleLaserArm@FireControlComputer@@QAEXXZ PROC	; FireControlComputer::ToggleLaserArm
; _this$ = ecx

; 886  : {

	push	ebp
	mov	ebp, esp
	sub	esp, 12					; 0000000cH
	mov	DWORD PTR _this$[ebp], ecx

; 887  : 	AircraftClass *playerAC = SimDriver.GetPlayerAircraft();

	mov	ecx, OFFSET ?SimDriver@@3VSimulationDriver@@A ; SimDriver
	call	?GetPlayerAircraft@SimulationDriver@@QBEPAVAircraftClass@@XZ ; SimulationDriver::GetPlayerAircraft
	mov	DWORD PTR _playerAC$[ebp], eax

; 888  : 	if(playerAC && playerAC->Sms->MasterArm() != SMSBaseClass::MasterArmState::Arm)

	cmp	DWORD PTR _playerAC$[ebp], 0
	je	SHORT $LN1@ToggleLase
	mov	eax, DWORD PTR _playerAC$[ebp]
	mov	ecx, DWORD PTR [eax+940]
	call	?MasterArm@SMSBaseClass@@QAE?AW4MasterArmState@1@XZ ; SMSBaseClass::MasterArm
	cmp	eax, 2
	je	SHORT $LN1@ToggleLase

; 889  : 		return;

	jmp	SHORT $LN2@ToggleLase
$LN1@ToggleLase:

; 890  : 
; 891  : 	LaserArm = !LaserArm;

	mov	ecx, DWORD PTR _this$[ebp]
	movzx	edx, BYTE PTR [ecx+420]
	test	edx, edx
	jne	SHORT $LN4@ToggleLase
	mov	DWORD PTR tv79[ebp], 1
	jmp	SHORT $LN5@ToggleLase
$LN4@ToggleLase:
	mov	DWORD PTR tv79[ebp], 0
$LN5@ToggleLase:
	mov	eax, DWORD PTR _this$[ebp]
	mov	cl, BYTE PTR tv79[ebp]
	mov	BYTE PTR [eax+420], cl

; 892  : 	LaserFire = FALSE;

	mov	edx, DWORD PTR _this$[ebp]
	mov	BYTE PTR [edx+423], 0
$LN2@ToggleLase:

; 893  : }

	mov	esp, ebp
	pop	ebp
	ret	0
?ToggleLaserArm@FireControlComputer@@QAEXXZ ENDP	; FireControlComputer::ToggleLaserArm
_TEXT	ENDS
; Function compile flags: /Odtp
; File c:\users\zhitao li\documents\visual studio 2012\projects\freefalcon\sim\fcc\lgbfcc.cpp
_TEXT	SEGMENT
_simTarg$ = -256					; size = 4
_fc$ = -252						; size = 4
_featureWalker$2 = -248					; size = 12
tv529 = -236						; size = 4
tv522 = -232						; size = 4
_groundRange$ = -228					; size = 4
tv754 = -224						; size = 4
tv649 = -220						; size = 4
tv768 = -216						; size = 4
tv543 = -212						; size = 4
tv772 = -208						; size = 4
tv675 = -204						; size = 4
tv720 = -200						; size = 4
tv656 = -196						; size = 4
tv774 = -192						; size = 4
tv571 = -188						; size = 4
tv715 = -184						; size = 4
tv750 = -180						; size = 4
tv710 = -176						; size = 4
tv746 = -172						; size = 4
tv770 = -168						; size = 4
tv758 = -164						; size = 4
tv705 = -160						; size = 4
tv670 = -156						; size = 4
tv760 = -152						; size = 4
tv665 = -148						; size = 4
tv764 = -144						; size = 4
tv515 = -140						; size = 4
tv700 = -136						; size = 4
$T3 = -132						; size = 4
tv766 = -128						; size = 4
tv563 = -124						; size = 4
tv695 = -120						; size = 4
tv748 = -116						; size = 4
tv690 = -112						; size = 4
tv550 = -108						; size = 4
tv762 = -104						; size = 4
tv744 = -100						; size = 4
tv685 = -96						; size = 4
tv536 = -92						; size = 4
tv756 = -88						; size = 4
tv742 = -84						; size = 4
tv680 = -80						; size = 4
tv752 = -76						; size = 4
_dy$ = -72						; size = 4
$T4 = -68						; size = 4
tv287 = -64						; size = 4
_CurRange$5 = -60					; size = 4
tv235 = -56						; size = 4
_dx$ = -52						; size = 4
_closestObj$ = -48					; size = 4
_curMin$ = -44						; size = 4
_testObject$ = -40					; size = 4
_tmpTarget$ = -36					; size = 4
_this$ = -32						; size = 4
_pos$6 = -28						; size = 12
__$ArrayPad$ = -16					; size = 4
__$EHRec$ = -12						; size = 12
_targetingPod$ = 8					; size = 4
?CheckFeatures@FireControlComputer@@AAEXPAVLaserPodClass@@@Z PROC ; FireControlComputer::CheckFeatures
; _this$ = ecx

; 790  : {

	push	ebp
	mov	ebp, esp
	push	-1
	push	__ehhandler$?CheckFeatures@FireControlComputer@@AAEXPAVLaserPodClass@@@Z
	mov	eax, DWORD PTR fs:0
	push	eax
	sub	esp, 244				; 000000f4H
	mov	eax, DWORD PTR ___security_cookie
	xor	eax, ebp
	mov	DWORD PTR __$ArrayPad$[ebp], eax
	push	eax
	lea	eax, DWORD PTR __$EHRec$[ebp]
	mov	DWORD PTR fs:0, eax
	mov	DWORD PTR _this$[ebp], ecx

; 791  : 	FalconEntity* testObject = NULL;

	mov	DWORD PTR _testObject$[ebp], 0

; 792  : 	FalconEntity* closestObj = NULL;

	mov	DWORD PTR _closestObj$[ebp], 0

; 793  : 	SimObjectType* tmpTarget = NULL;

	mov	DWORD PTR _tmpTarget$[ebp], 0

; 794  : 	FeatureClassDataType	*fc = NULL;

	mov	DWORD PTR _fc$[ebp], 0

; 795  : 	SimBaseClass *simTarg = NULL;

	mov	DWORD PTR _simTarg$[ebp], 0

; 796  : 	float groundRange;
; 797  : 	float curMin, dx, dy;
; 798  : 
; 799  :    if (!targetPtr)

	mov	eax, DWORD PTR _this$[ebp]
	cmp	DWORD PTR [eax+132], 0
	jne	$LN1@CheckFeatu

; 800  :    {
; 801  : 		// Actually slant range
; 802  : 		groundRange = (float)sqrt ((groundDesignateX - platform->XPos())*(groundDesignateX - platform->XPos()) +
; 803  : 			(groundDesignateY - platform->YPos())*(groundDesignateY - platform->YPos()) +
; 804  : 			(groundDesignateZ - platform->ZPos())*(groundDesignateZ - platform->ZPos()));

	mov	ecx, DWORD PTR _this$[ebp]
	mov	ecx, DWORD PTR [ecx+140]
	call	?XPos@VuEntity@@QBEMXZ			; VuEntity::XPos
	fstp	DWORD PTR tv515[ebp]
	mov	edx, DWORD PTR _this$[ebp]
	movss	xmm0, DWORD PTR [edx+376]
	subss	xmm0, DWORD PTR tv515[ebp]
	mov	eax, DWORD PTR _this$[ebp]
	mov	ecx, DWORD PTR [eax+140]
	movss	DWORD PTR tv742[ebp], xmm0
	call	?XPos@VuEntity@@QBEMXZ			; VuEntity::XPos
	fstp	DWORD PTR tv522[ebp]
	mov	ecx, DWORD PTR _this$[ebp]
	movss	xmm0, DWORD PTR [ecx+376]
	subss	xmm0, DWORD PTR tv522[ebp]
	movss	xmm1, DWORD PTR tv742[ebp]
	mulss	xmm1, xmm0
	mov	edx, DWORD PTR _this$[ebp]
	mov	ecx, DWORD PTR [edx+140]
	movss	DWORD PTR tv744[ebp], xmm1
	call	?YPos@VuEntity@@QBEMXZ			; VuEntity::YPos
	fstp	DWORD PTR tv529[ebp]
	mov	eax, DWORD PTR _this$[ebp]
	movss	xmm0, DWORD PTR [eax+380]
	subss	xmm0, DWORD PTR tv529[ebp]
	mov	ecx, DWORD PTR _this$[ebp]
	mov	ecx, DWORD PTR [ecx+140]
	movss	DWORD PTR tv746[ebp], xmm0
	call	?YPos@VuEntity@@QBEMXZ			; VuEntity::YPos
	fstp	DWORD PTR tv536[ebp]
	mov	edx, DWORD PTR _this$[ebp]
	movss	xmm0, DWORD PTR [edx+380]
	subss	xmm0, DWORD PTR tv536[ebp]
	movss	xmm1, DWORD PTR tv746[ebp]
	mulss	xmm1, xmm0
	movss	xmm0, DWORD PTR tv744[ebp]
	addss	xmm0, xmm1
	mov	eax, DWORD PTR _this$[ebp]
	mov	ecx, DWORD PTR [eax+140]
	movss	DWORD PTR tv748[ebp], xmm0
	call	?ZPos@VuEntity@@QBEMXZ			; VuEntity::ZPos
	fstp	DWORD PTR tv543[ebp]
	mov	ecx, DWORD PTR _this$[ebp]
	movss	xmm0, DWORD PTR [ecx+384]
	subss	xmm0, DWORD PTR tv543[ebp]
	mov	edx, DWORD PTR _this$[ebp]
	mov	ecx, DWORD PTR [edx+140]
	movss	DWORD PTR tv750[ebp], xmm0
	call	?ZPos@VuEntity@@QBEMXZ			; VuEntity::ZPos
	fstp	DWORD PTR tv550[ebp]
	mov	eax, DWORD PTR _this$[ebp]
	movss	xmm0, DWORD PTR [eax+384]
	subss	xmm0, DWORD PTR tv550[ebp]
	movss	xmm1, DWORD PTR tv750[ebp]
	mulss	xmm1, xmm0
	movss	xmm0, DWORD PTR tv748[ebp]
	addss	xmm0, xmm1
	push	ecx
	movss	DWORD PTR [esp], xmm0
	call	?SqrtSSE@@YAMM@Z			; SqrtSSE
	add	esp, 4
	fstp	DWORD PTR _groundRange$[ebp]

; 805  : 		curMin = rangeFOV * groundRange;

	movss	xmm0, DWORD PTR _rangeFOV
	mulss	xmm0, DWORD PTR _groundRange$[ebp]
	movss	DWORD PTR _curMin$[ebp], xmm0

; 806  : 		if(g_bRealisticAvionics){

	movzx	ecx, BYTE PTR ?g_bRealisticAvionics@@3_NA ; g_bRealisticAvionics
	test	ecx, ecx
	je	SHORT $LN7@CheckFeatu

; 807  : 			curMin *= 2;	//double the range

	movss	xmm0, DWORD PTR _curMin$[ebp]
	mulss	xmm0, DWORD PTR __real@40000000
	movss	DWORD PTR _curMin$[ebp], xmm0
$LN7@CheckFeatu:

; 808  : 		}
; 809  : 
; 810  : 		{
; 811  : 			VuListIterator featureWalker (SimDriver.featureList);

	mov	edx, DWORD PTR ?SimDriver@@3VSimulationDriver@@A+4
	push	edx
	lea	ecx, DWORD PTR _featureWalker$2[ebp]
	call	??0VuListIterator@@QAE@PAVVuLinkedList@@@Z ; VuListIterator::VuListIterator
	mov	DWORD PTR __$EHRec$[ebp+8], 0

; 812  : 			testObject = (FalconEntity*)featureWalker.GetFirst();

	lea	ecx, DWORD PTR _featureWalker$2[ebp]
	call	?GetFirst@VuListIterator@@QAEPAVVuEntity@@XZ ; VuListIterator::GetFirst
	mov	DWORD PTR _testObject$[ebp], eax
$LN6@CheckFeatu:

; 813  : 			while (testObject){

	cmp	DWORD PTR _testObject$[ebp], 0
	je	$LN5@CheckFeatu

; 814  : 				dx = (float)fabs (testObject->XPos() - groundDesignateX);

	mov	ecx, DWORD PTR _testObject$[ebp]
	call	?XPos@VuEntity@@QBEMXZ			; VuEntity::XPos
	fstp	DWORD PTR tv563[ebp]
	movss	xmm0, DWORD PTR tv563[ebp]
	mov	eax, DWORD PTR _this$[ebp]
	subss	xmm0, DWORD PTR [eax+376]
	push	ecx
	movss	DWORD PTR [esp], xmm0
	call	?fabs@@YAMM@Z				; fabs
	add	esp, 4
	fstp	DWORD PTR _dx$[ebp]

; 815  : 				dy = (float)fabs (testObject->YPos() - groundDesignateY);

	mov	ecx, DWORD PTR _testObject$[ebp]
	call	?YPos@VuEntity@@QBEMXZ			; VuEntity::YPos
	fstp	DWORD PTR tv571[ebp]
	movss	xmm0, DWORD PTR tv571[ebp]
	mov	ecx, DWORD PTR _this$[ebp]
	subss	xmm0, DWORD PTR [ecx+380]
	push	ecx
	movss	DWORD PTR [esp], xmm0
	call	?fabs@@YAMM@Z				; fabs
	add	esp, 4
	fstp	DWORD PTR _dy$[ebp]

; 816  : 				//MI fix for jumping cursors
; 817  : 				float CurRange = (float)sqrt(dx*dx+dy*dy);

	movss	xmm0, DWORD PTR _dx$[ebp]
	mulss	xmm0, DWORD PTR _dx$[ebp]
	movss	xmm1, DWORD PTR _dy$[ebp]
	mulss	xmm1, DWORD PTR _dy$[ebp]
	addss	xmm0, xmm1
	push	ecx
	movss	DWORD PTR [esp], xmm0
	call	?SqrtSSE@@YAMM@Z			; SqrtSSE
	add	esp, 4
	fstp	DWORD PTR _CurRange$5[ebp]

; 818  : 				// 2001-11-01 Added IsDead || 
; 819  : 				//IsExploding check by M.N. - we don't want to bomb something that is already destroyed
; 820  : 				if((CurRange < curMin) && !(testObject->IsDead() || testObject->IsExploding())){

	movss	xmm0, DWORD PTR _curMin$[ebp]
	comiss	xmm0, DWORD PTR _CurRange$5[ebp]
	jbe	SHORT $LN4@CheckFeatu
	mov	edx, DWORD PTR _testObject$[ebp]
	mov	eax, DWORD PTR [edx]
	mov	ecx, DWORD PTR _testObject$[ebp]
	mov	edx, DWORD PTR [eax+212]
	call	edx
	test	eax, eax
	jne	SHORT $LN4@CheckFeatu
	mov	eax, DWORD PTR _testObject$[ebp]
	mov	edx, DWORD PTR [eax]
	mov	ecx, DWORD PTR _testObject$[ebp]
	mov	eax, DWORD PTR [edx+208]
	call	eax
	test	eax, eax
	jne	SHORT $LN4@CheckFeatu

; 821  : 					//simTarg = (SimBaseClass*)testObject;
; 822  : 					//if (simTarg->IsStatic())
; 823  : 					//fc = GetFeatureClassData(((Objective)simTarg)->GetFeatureID(0));
; 824  : 					//if (fc && !F4IsBadReadPtr(fc, sizeof (fc)) && fc->Priority > 2) 
; 825  : 					// higher priority number = lower priority
; 826  : 					closestObj = testObject;

	mov	ecx, DWORD PTR _testObject$[ebp]
	mov	DWORD PTR _closestObj$[ebp], ecx

; 827  : 					curMin = CurRange;

	movss	xmm0, DWORD PTR _CurRange$5[ebp]
	movss	DWORD PTR _curMin$[ebp], xmm0
$LN4@CheckFeatu:

; 828  : 				}
; 829  : 				testObject = (FalconEntity*)featureWalker.GetNext();

	lea	ecx, DWORD PTR _featureWalker$2[ebp]
	call	?GetNext@VuListIterator@@QAEPAVVuEntity@@XZ ; VuListIterator::GetNext
	mov	DWORD PTR _testObject$[ebp], eax

; 830  : 			}

	jmp	$LN6@CheckFeatu
$LN5@CheckFeatu:

; 831  : 		}

	mov	DWORD PTR __$EHRec$[ebp+8], -1
	lea	ecx, DWORD PTR _featureWalker$2[ebp]
	call	??1VuListIterator@@UAE@XZ		; VuListIterator::~VuListIterator

; 832  : 
; 833  : 		if (closestObj){

	cmp	DWORD PTR _closestObj$[ebp], 0
	je	$LN3@CheckFeatu

; 834  : 			Tpoint pos;
; 835  : #ifdef DEBUG
; 836  : 			//tmpTarget = new SimObjectType(OBJ_TAG, platform, closestObj);
; 837  : #else
; 838  : 			tmpTarget = new SimObjectType(closestObj);

	push	24					; 00000018H
	call	??2@YAPAXI@Z				; operator new
	add	esp, 4
	mov	DWORD PTR $T4[ebp], eax
	mov	DWORD PTR __$EHRec$[ebp+8], 1
	cmp	DWORD PTR $T4[ebp], 0
	je	SHORT $LN11@CheckFeatu
	mov	edx, DWORD PTR _closestObj$[ebp]
	push	edx
	mov	ecx, DWORD PTR $T4[ebp]
	call	??0SimObjectType@@QAE@PAVFalconEntity@@@Z ; SimObjectType::SimObjectType
	mov	DWORD PTR tv235[ebp], eax
	jmp	SHORT $LN12@CheckFeatu
$LN11@CheckFeatu:
	mov	DWORD PTR tv235[ebp], 0
$LN12@CheckFeatu:
	mov	eax, DWORD PTR tv235[ebp]
	mov	DWORD PTR $T3[ebp], eax
	mov	DWORD PTR __$EHRec$[ebp+8], -1
	mov	ecx, DWORD PTR $T3[ebp]
	mov	DWORD PTR _tmpTarget$[ebp], ecx

; 839  : #endif
; 840  : 			tmpTarget->Reference(  );

	mov	ecx, DWORD PTR _tmpTarget$[ebp]
	call	?Reference@SimObjectType@@QAEXXZ	; SimObjectType::Reference

; 841  : 
; 842  : 			//if ((SimBaseClass*)tmpTarget->BaseData()-> )
; 843  : 			/*  JB 010624 Why? Setting the position like this screws up multiplayer and entitys' movement
; 844  : 				 if (tmpTarget->BaseData()->IsSim())		
; 845  : 				 // We ASSUMED that testObject IsSim above, so why check here???
; 846  : 				{
; 847  : 					((SimBaseClass*)tmpTarget->BaseData())->drawPointer->GetPosition (&pos);
; 848  : 				} else 
; 849  : 			*/
; 850  : 			{
; 851  : 				pos.x = tmpTarget->BaseData()->XPos();

	mov	ecx, DWORD PTR _tmpTarget$[ebp]
	call	?BaseData@SimObjectType@@QAEPAVFalconEntity@@XZ ; SimObjectType::BaseData
	mov	ecx, eax
	call	?XPos@VuEntity@@QBEMXZ			; VuEntity::XPos
	fstp	DWORD PTR _pos$6[ebp]

; 852  : 				pos.y = tmpTarget->BaseData()->YPos();

	mov	ecx, DWORD PTR _tmpTarget$[ebp]
	call	?BaseData@SimObjectType@@QAEPAVFalconEntity@@XZ ; SimObjectType::BaseData
	mov	ecx, eax
	call	?YPos@VuEntity@@QBEMXZ			; VuEntity::YPos
	fstp	DWORD PTR _pos$6[ebp+4]

; 853  : 				pos.z = OTWDriver.GetGroundLevel( pos.x, pos.y );

	push	0
	push	ecx
	movss	xmm0, DWORD PTR _pos$6[ebp+4]
	movss	DWORD PTR [esp], xmm0
	push	ecx
	movss	xmm0, DWORD PTR _pos$6[ebp]
	movss	DWORD PTR [esp], xmm0
	mov	ecx, OFFSET ?OTWDriver@@3VOTWDriverClass@@A ; OTWDriver
	call	?GetGroundLevel@OTWDriverClass@@QAEMMMPAUTpoint@@@Z ; OTWDriverClass::GetGroundLevel
	fstp	DWORD PTR _pos$6[ebp+8]

; 854  : 			}
; 855  : 			tmpTarget->BaseData()->SetPosition (pos.x, pos.y, pos.z);

	push	ecx
	movss	xmm0, DWORD PTR _pos$6[ebp+8]
	movss	DWORD PTR [esp], xmm0
	push	ecx
	movss	xmm0, DWORD PTR _pos$6[ebp+4]
	movss	DWORD PTR [esp], xmm0
	push	ecx
	movss	xmm0, DWORD PTR _pos$6[ebp]
	movss	DWORD PTR [esp], xmm0
	mov	ecx, DWORD PTR _tmpTarget$[ebp]
	call	?BaseData@SimObjectType@@QAEPAVFalconEntity@@XZ ; SimObjectType::BaseData
	mov	ecx, eax
	call	?SetPosition@VuEntity@@QAEXMMM@Z	; VuEntity::SetPosition

; 856  : 
; 857  : 			tmpTarget->localData->az = groundDesignateAz;

	mov	edx, DWORD PTR _tmpTarget$[ebp]
	mov	eax, DWORD PTR [edx+12]
	mov	ecx, DWORD PTR _this$[ebp]
	mov	edx, DWORD PTR [ecx+364]
	mov	DWORD PTR [eax+16], edx

; 858  : 			tmpTarget->localData->el = groundDesignateEl;

	mov	eax, DWORD PTR _tmpTarget$[ebp]
	mov	ecx, DWORD PTR [eax+12]
	mov	edx, DWORD PTR _this$[ebp]
	mov	eax, DWORD PTR [edx+368]
	mov	DWORD PTR [ecx+28], eax

; 859  : 			tmpTarget->localData->droll = groundDesignateDroll = 
; 860  : 				(float)atan2 (sin(groundDesignateAz), sin(groundDesignateEl));

	mov	ecx, DWORD PTR _this$[ebp]
	push	ecx
	movss	xmm0, DWORD PTR [ecx+368]
	movss	DWORD PTR [esp], xmm0
	call	?sin@@YAMM@Z				; sin
	add	esp, -4					; fffffffcH
	fstp	QWORD PTR [esp]
	mov	edx, DWORD PTR _this$[ebp]
	push	ecx
	movss	xmm0, DWORD PTR [edx+364]
	movss	DWORD PTR [esp], xmm0
	call	?sin@@YAMM@Z				; sin
	add	esp, -4					; fffffffcH
	fstp	QWORD PTR [esp]
	call	?checked_atan2@@YANNN@Z			; checked_atan2
	add	esp, 16					; 00000010H
	fstp	DWORD PTR tv287[ebp]
	mov	eax, DWORD PTR _this$[ebp]
	movss	xmm0, DWORD PTR tv287[ebp]
	movss	DWORD PTR [eax+372], xmm0
	mov	ecx, DWORD PTR _tmpTarget$[ebp]
	mov	edx, DWORD PTR [ecx+12]
	movss	xmm0, DWORD PTR tv287[ebp]
	movss	DWORD PTR [edx+40], xmm0

; 861  : 			tmpTarget->localData->ata = (float)acos (cos (groundDesignateAz) * cos (groundDesignateEl));

	mov	eax, DWORD PTR _this$[ebp]
	push	ecx
	movss	xmm0, DWORD PTR [eax+364]
	movss	DWORD PTR [esp], xmm0
	call	?cos@@YAMM@Z				; cos
	add	esp, 4
	fstp	DWORD PTR tv649[ebp]
	movss	xmm0, DWORD PTR tv649[ebp]
	mov	ecx, DWORD PTR _this$[ebp]
	push	ecx
	movss	xmm1, DWORD PTR [ecx+368]
	movss	DWORD PTR [esp], xmm1
	movss	DWORD PTR tv752[ebp], xmm0
	call	?cos@@YAMM@Z				; cos
	add	esp, 4
	fstp	DWORD PTR tv656[ebp]
	movss	xmm0, DWORD PTR tv752[ebp]
	mulss	xmm0, DWORD PTR tv656[ebp]
	push	ecx
	movss	DWORD PTR [esp], xmm0
	call	?acos@@YAMM@Z				; acos
	add	esp, 4
	mov	edx, DWORD PTR _tmpTarget$[ebp]
	mov	eax, DWORD PTR [edx+12]
	fstp	DWORD PTR [eax]

; 862  : 
; 863  : 			tmpTarget->localData->range = 
; 864  : 				(float)sqrt(
; 865  : 					((tmpTarget->BaseData()->XPos() - platform->XPos()) * 
; 866  : 						(tmpTarget->BaseData()->XPos() - platform->XPos())) +
; 867  : 					((tmpTarget->BaseData()->YPos() - platform->YPos()) * 
; 868  : 						(tmpTarget->BaseData()->YPos() - platform->YPos())) +
; 869  : 					((tmpTarget->BaseData()->ZPos() - platform->ZPos()) * 
; 870  : 						(tmpTarget->BaseData()->ZPos() - platform->ZPos()))
; 871  : 				)
; 872  : 			;

	mov	ecx, DWORD PTR _tmpTarget$[ebp]
	call	?BaseData@SimObjectType@@QAEPAVFalconEntity@@XZ ; SimObjectType::BaseData
	mov	ecx, eax
	call	?XPos@VuEntity@@QBEMXZ			; VuEntity::XPos
	fstp	DWORD PTR tv665[ebp]
	movss	xmm0, DWORD PTR tv665[ebp]
	mov	ecx, DWORD PTR _this$[ebp]
	mov	ecx, DWORD PTR [ecx+140]
	movss	DWORD PTR tv754[ebp], xmm0
	call	?XPos@VuEntity@@QBEMXZ			; VuEntity::XPos
	fstp	DWORD PTR tv670[ebp]
	movss	xmm0, DWORD PTR tv754[ebp]
	subss	xmm0, DWORD PTR tv670[ebp]
	mov	ecx, DWORD PTR _tmpTarget$[ebp]
	movss	DWORD PTR tv756[ebp], xmm0
	call	?BaseData@SimObjectType@@QAEPAVFalconEntity@@XZ ; SimObjectType::BaseData
	mov	ecx, eax
	call	?XPos@VuEntity@@QBEMXZ			; VuEntity::XPos
	fstp	DWORD PTR tv675[ebp]
	movss	xmm0, DWORD PTR tv675[ebp]
	mov	edx, DWORD PTR _this$[ebp]
	mov	ecx, DWORD PTR [edx+140]
	movss	DWORD PTR tv758[ebp], xmm0
	call	?XPos@VuEntity@@QBEMXZ			; VuEntity::XPos
	fstp	DWORD PTR tv680[ebp]
	movss	xmm0, DWORD PTR tv758[ebp]
	subss	xmm0, DWORD PTR tv680[ebp]
	movss	xmm1, DWORD PTR tv756[ebp]
	mulss	xmm1, xmm0
	mov	ecx, DWORD PTR _tmpTarget$[ebp]
	movss	DWORD PTR tv760[ebp], xmm1
	call	?BaseData@SimObjectType@@QAEPAVFalconEntity@@XZ ; SimObjectType::BaseData
	mov	ecx, eax
	call	?YPos@VuEntity@@QBEMXZ			; VuEntity::YPos
	fstp	DWORD PTR tv685[ebp]
	movss	xmm0, DWORD PTR tv685[ebp]
	mov	eax, DWORD PTR _this$[ebp]
	mov	ecx, DWORD PTR [eax+140]
	movss	DWORD PTR tv762[ebp], xmm0
	call	?YPos@VuEntity@@QBEMXZ			; VuEntity::YPos
	fstp	DWORD PTR tv690[ebp]
	movss	xmm0, DWORD PTR tv762[ebp]
	subss	xmm0, DWORD PTR tv690[ebp]
	mov	ecx, DWORD PTR _tmpTarget$[ebp]
	movss	DWORD PTR tv764[ebp], xmm0
	call	?BaseData@SimObjectType@@QAEPAVFalconEntity@@XZ ; SimObjectType::BaseData
	mov	ecx, eax
	call	?YPos@VuEntity@@QBEMXZ			; VuEntity::YPos
	fstp	DWORD PTR tv695[ebp]
	movss	xmm0, DWORD PTR tv695[ebp]
	mov	ecx, DWORD PTR _this$[ebp]
	mov	ecx, DWORD PTR [ecx+140]
	movss	DWORD PTR tv766[ebp], xmm0
	call	?YPos@VuEntity@@QBEMXZ			; VuEntity::YPos
	fstp	DWORD PTR tv700[ebp]
	movss	xmm0, DWORD PTR tv766[ebp]
	subss	xmm0, DWORD PTR tv700[ebp]
	movss	xmm1, DWORD PTR tv764[ebp]
	mulss	xmm1, xmm0
	movss	xmm0, DWORD PTR tv760[ebp]
	addss	xmm0, xmm1
	mov	ecx, DWORD PTR _tmpTarget$[ebp]
	movss	DWORD PTR tv768[ebp], xmm0
	call	?BaseData@SimObjectType@@QAEPAVFalconEntity@@XZ ; SimObjectType::BaseData
	mov	ecx, eax
	call	?ZPos@VuEntity@@QBEMXZ			; VuEntity::ZPos
	fstp	DWORD PTR tv705[ebp]
	movss	xmm0, DWORD PTR tv705[ebp]
	mov	edx, DWORD PTR _this$[ebp]
	mov	ecx, DWORD PTR [edx+140]
	movss	DWORD PTR tv770[ebp], xmm0
	call	?ZPos@VuEntity@@QBEMXZ			; VuEntity::ZPos
	fstp	DWORD PTR tv710[ebp]
	movss	xmm0, DWORD PTR tv770[ebp]
	subss	xmm0, DWORD PTR tv710[ebp]
	mov	ecx, DWORD PTR _tmpTarget$[ebp]
	movss	DWORD PTR tv772[ebp], xmm0
	call	?BaseData@SimObjectType@@QAEPAVFalconEntity@@XZ ; SimObjectType::BaseData
	mov	ecx, eax
	call	?ZPos@VuEntity@@QBEMXZ			; VuEntity::ZPos
	fstp	DWORD PTR tv715[ebp]
	movss	xmm0, DWORD PTR tv715[ebp]
	mov	eax, DWORD PTR _this$[ebp]
	mov	ecx, DWORD PTR [eax+140]
	movss	DWORD PTR tv774[ebp], xmm0
	call	?ZPos@VuEntity@@QBEMXZ			; VuEntity::ZPos
	fstp	DWORD PTR tv720[ebp]
	movss	xmm0, DWORD PTR tv774[ebp]
	subss	xmm0, DWORD PTR tv720[ebp]
	movss	xmm1, DWORD PTR tv772[ebp]
	mulss	xmm1, xmm0
	movss	xmm0, DWORD PTR tv768[ebp]
	addss	xmm0, xmm1
	push	ecx
	movss	DWORD PTR [esp], xmm0
	call	?SqrtSSE@@YAMM@Z			; SqrtSSE
	add	esp, 4
	mov	ecx, DWORD PTR _tmpTarget$[ebp]
	mov	edx, DWORD PTR [ecx+12]
	fstp	DWORD PTR [edx+44]

; 873  : 
; 874  : 			targetingPod->SetTargetPosition (groundDesignateX, groundDesignateY, groundDesignateZ);

	mov	eax, DWORD PTR _this$[ebp]
	push	ecx
	movss	xmm0, DWORD PTR [eax+384]
	movss	DWORD PTR [esp], xmm0
	mov	ecx, DWORD PTR _this$[ebp]
	push	ecx
	movss	xmm0, DWORD PTR [ecx+380]
	movss	DWORD PTR [esp], xmm0
	mov	edx, DWORD PTR _this$[ebp]
	push	ecx
	movss	xmm0, DWORD PTR [edx+376]
	movss	DWORD PTR [esp], xmm0
	mov	ecx, DWORD PTR _targetingPod$[ebp]
	call	?SetTargetPosition@LaserPodClass@@QAEXMMM@Z ; LaserPodClass::SetTargetPosition

; 875  : 			targetingPod->SetDesiredTarget(tmpTarget);

	mov	eax, DWORD PTR _tmpTarget$[ebp]
	push	eax
	mov	ecx, DWORD PTR _targetingPod$[ebp]
	mov	edx, DWORD PTR [ecx]
	mov	ecx, DWORD PTR _targetingPod$[ebp]
	mov	eax, DWORD PTR [edx+36]
	call	eax

; 876  : 			tmpTarget->Release(  );

	mov	ecx, DWORD PTR _tmpTarget$[ebp]
	call	?Release@SimObjectType@@QAEXXZ		; SimObjectType::Release
	jmp	SHORT $LN1@CheckFeatu
$LN3@CheckFeatu:

; 877  : 		}
; 878  : 		else if (targetingPod->CurrentTarget()){

	mov	ecx, DWORD PTR _targetingPod$[ebp]
	call	?CurrentTarget@SensorClass@@QAEPAVSimObjectType@@XZ ; SensorClass::CurrentTarget
	test	eax, eax
	je	SHORT $LN1@CheckFeatu

; 879  : 			targetingPod->SetDesiredTarget(NULL);

	push	0
	mov	ecx, DWORD PTR _targetingPod$[ebp]
	mov	edx, DWORD PTR [ecx]
	mov	ecx, DWORD PTR _targetingPod$[ebp]
	mov	eax, DWORD PTR [edx+36]
	call	eax
$LN1@CheckFeatu:

; 880  : 		}
; 881  : 	}
; 882  : }

	mov	ecx, DWORD PTR __$EHRec$[ebp]
	mov	DWORD PTR fs:0, ecx
	pop	ecx
	mov	ecx, DWORD PTR __$ArrayPad$[ebp]
	xor	ecx, ebp
	call	@__security_check_cookie@4
	mov	esp, ebp
	pop	ebp
	ret	4
_TEXT	ENDS
text$x	SEGMENT
__unwindfunclet$?CheckFeatures@FireControlComputer@@AAEXPAVLaserPodClass@@@Z$0:
	lea	ecx, DWORD PTR _featureWalker$2[ebp]
	jmp	??1VuListIterator@@UAE@XZ		; VuListIterator::~VuListIterator
__unwindfunclet$?CheckFeatures@FireControlComputer@@AAEXPAVLaserPodClass@@@Z$1:
	mov	eax, DWORD PTR $T4[ebp]
	push	eax
	call	??3@YAXPAX@Z				; operator delete
	pop	ecx
	ret	0
__ehhandler$?CheckFeatures@FireControlComputer@@AAEXPAVLaserPodClass@@@Z:
	mov	edx, DWORD PTR [esp+8]
	lea	eax, DWORD PTR [edx+12]
	mov	ecx, DWORD PTR [edx-248]
	xor	ecx, eax
	call	@__security_check_cookie@4
	mov	ecx, DWORD PTR [edx-4]
	xor	ecx, eax
	call	@__security_check_cookie@4
	mov	eax, OFFSET __ehfuncinfo$?CheckFeatures@FireControlComputer@@AAEXPAVLaserPodClass@@@Z
	jmp	___CxxFrameHandler3
text$x	ENDS
?CheckFeatures@FireControlComputer@@AAEXPAVLaserPodClass@@@Z ENDP ; FireControlComputer::CheckFeatures
; Function compile flags: /Odtp
; File c:\users\zhitao li\documents\visual studio 2012\projects\freefalcon\sim\fcc\lgbfcc.cpp
_TEXT	SEGMENT
tv3327 = -492						; size = 8
tv3889 = -484						; size = 4
tv2649 = -480						; size = 4
tv2710 = -476						; size = 4
tv3869 = -472						; size = 4
tv2642 = -468						; size = 4
tv3863 = -464						; size = 4
tv3288 = -460						; size = 4
tv3857 = -456						; size = 4
tv2888 = -452						; size = 4
tv3901 = -448						; size = 4
tv2801 = -444						; size = 4
tv3816 = -440						; size = 4
tv3302 = -436						; size = 4
tv3810 = -432						; size = 4
tv3891 = -428						; size = 4
tv3899 = -424						; size = 4
tv3047 = -420						; size = 4
tv3731 = -416						; size = 4
tv2863 = -412						; size = 4
tv3722 = -408						; size = 4
tv2807 = -404						; size = 4
tv3695 = -400						; size = 4
tv2742 = -396						; size = 4
tv3686 = -392						; size = 4
tv2656 = -388						; size = 4
tv3624 = -384						; size = 4
tv3295 = -380						; size = 4
tv3897 = -376						; size = 4
tv3140 = -372						; size = 4
tv3553 = -368						; size = 4
tv3106 = -364						; size = 4
tv3895 = -360						; size = 4
tv3054 = -356						; size = 4
tv3543 = -352						; size = 4
tv3040 = -348						; size = 4
tv3536 = -344						; size = 4
tv3887 = -340						; size = 4
tv3529 = -336						; size = 4
tv3885 = -332						; size = 4
tv3432 = -328						; size = 4
_z$1 = -324						; size = 4
tv3370 = -320						; size = 4
_y$2 = -316						; size = 4
tv3359 = -312						; size = 4
_x$3 = -308						; size = 4
tv3336 = -304						; size = 4
tv3883 = -300						; size = 4
tv3893 = -296						; size = 4
tv3881 = -292						; size = 4
_groundrange$4 = -288					; size = 4
tv3321 = -284						; size = 4
tv2813 = -280						; size = 4
_trig$ = -276						; size = 8
_dz$5 = -268						; size = 4
_pitch$6 = -264						; size = 4
_dy$7 = -260						; size = 4
tv398 = -256						; size = 4
_dx$8 = -252						; size = 4
_rz$9 = -248						; size = 4
tv2119 = -244						; size = 4
tv949 = -240						; size = 4
tv2057 = -236						; size = 4
_rz$10 = -232						; size = 4
tv2030 = -228						; size = 4
_tgpmode$11 = -224					; size = 4
tv156 = -220						; size = 4
_curWaypoint$ = -216					; size = 4
_sinphi$12 = -212					; size = 4
_yaw$13 = -208						; size = 4
_sintheta$14 = -204					; size = 4
_roll$15 = -200						; size = 4
_cosphi$16 = -196					; size = 4
_roll$17 = -192						; size = 4
_costheta$18 = -188					; size = 4
tv539 = -184						; size = 4
tv1479 = -180						; size = 4
tv401 = -176						; size = 4
_pi$19 = -172						; size = 4
tv164 = -168						; size = 4
tv205 = -164						; size = 4
_sensoryaw$20 = -160					; size = 4
_onGround$ = -156					; size = 4
_tmpZ$ = -152						; size = 4
_yaw$21 = -148						; size = 4
_tmpY$ = -144						; size = 4
_dy$22 = -140						; size = 4
_tmpX$ = -136						; size = 4
tv537 = -132						; size = 4
_alpha$23 = -128					; size = 4
_dx$24 = -124						; size = 4
_phi$25 = -120						; size = 4
_pitch$26 = -116					; size = 4
_theta$27 = -112					; size = 4
_dz$28 = -108						; size = 4
_rx$29 = -104						; size = 4
_minDist$ = -100					; size = 4
_dz$30 = -96						; size = 4
_rx$31 = -92						; size = 4
_ry$32 = -88						; size = 4
_ry$33 = -84						; size = 4
_range$34 = -80						; size = 4
_dy$35 = -76						; size = 4
_dx$36 = -72						; size = 4
_deltaY$37 = -68					; size = 4
_deltaX$38 = -64					; size = 4
_cosalpha$39 = -60					; size = 4
_rz$ = -56						; size = 4
_yMove$40 = -52						; size = 4
_isLimited$ = -48					; size = 4
_xMove$41 = -44						; size = 4
_theRadar$ = -40					; size = 4
_rx$ = -36						; size = 4
_ry$ = -32						; size = 4
_systemTarget$ = -28					; size = 4
_dz$ = -24						; size = 4
_curTarget$ = -20					; size = 4
_dx$ = -16						; size = 4
_dy$ = -12						; size = 4
_targetingPod$ = -8					; size = 4
_this$ = -4						; size = 4
?TargetingPodMode@FireControlComputer@@AAEXXZ PROC	; FireControlComputer::TargetingPodMode
; _this$ = ecx

; 36   : {

	push	ebp
	mov	ebp, esp
	sub	esp, 492				; 000001ecH
	mov	DWORD PTR _this$[ebp], ecx

; 37   : 	float dx, dy, dz;
; 38   : 	float rx, ry, rz;
; 39   : 	//float pitch, roll, yaw;	//moved to the class
; 40   : 	float tmpX, tmpY, tmpZ;
; 41   : 	int isLimited = FALSE;

	mov	DWORD PTR _isLimited$[ebp], 0

; 42   : 	WayPointClass* curWaypoint = platform->curWaypoint;

	mov	eax, DWORD PTR _this$[ebp]
	mov	ecx, DWORD PTR [eax+140]
	mov	edx, DWORD PTR [ecx+728]
	mov	DWORD PTR _curWaypoint$[ebp], edx

; 43   : 	LaserPodClass* targetingPod = (LaserPodClass*) FindLaserPod (platform);

	mov	eax, DWORD PTR _this$[ebp]
	mov	ecx, DWORD PTR [eax+140]
	push	ecx
	call	?FindLaserPod@@YAPAVSensorClass@@PAVSimMoverClass@@@Z ; FindLaserPod
	add	esp, 4
	mov	DWORD PTR _targetingPod$[ebp], eax

; 44   : 	SimObjectType *curTarget = targetPtr;

	mov	edx, DWORD PTR _this$[ebp]
	mov	eax, DWORD PTR [edx+132]
	mov	DWORD PTR _curTarget$[ebp], eax

; 45   : 	mlTrig trig;
; 46   : 	int onGround = TRUE;

	mov	DWORD PTR _onGround$[ebp], 1

; 47   : 	SimObjectType *systemTarget;
; 48   : 	float minDist;
; 49   : 
; 50   : 	if(!targetingPod) return; // MLR 4/10/2004 - we're going to enable the TGP for non GBU types

	cmp	DWORD PTR _targetingPod$[ebp], 0
	jne	SHORT $LN119@TargetingP
	jmp	$LN120@TargetingP
$LN119@TargetingP:

; 51   : 
; 52   : 	if(!targetingPod->IsOn()) return; // can't do anything if off

	mov	ecx, DWORD PTR _targetingPod$[ebp]
	mov	edx, DWORD PTR [ecx]
	mov	ecx, DWORD PTR _targetingPod$[ebp]
	mov	eax, DWORD PTR [edx+32]
	call	eax
	test	eax, eax
	jne	SHORT $LN118@TargetingP
	jmp	$LN120@TargetingP
$LN118@TargetingP:

; 53   : 
; 54   : 	// Get our platforms radar (if any)
; 55   : 	RadarClass* theRadar = (RadarClass*) FindSensor (platform, SensorClass::Radar);

	push	1
	mov	ecx, DWORD PTR _this$[ebp]
	mov	edx, DWORD PTR [ecx+140]
	push	edx
	call	?FindSensor@@YAPAVSensorClass@@PAVSimMoverClass@@H@Z ; FindSensor
	add	esp, 8
	mov	DWORD PTR _theRadar$[ebp], eax

; 56   : 	
; 57   : 	if (theRadar) 

	cmp	DWORD PTR _theRadar$[ebp], 0
	je	SHORT $LN117@TargetingP

; 58   : 		systemTarget = theRadar->CurrentTarget();

	mov	ecx, DWORD PTR _theRadar$[ebp]
	call	?CurrentTarget@SensorClass@@QAEPAVSimObjectType@@XZ ; SensorClass::CurrentTarget
	mov	DWORD PTR _systemTarget$[ebp], eax

; 59   : 	else

	jmp	SHORT $LN116@TargetingP
$LN117@TargetingP:

; 60   : 		systemTarget = targetPtr;

	mov	eax, DWORD PTR _this$[ebp]
	mov	ecx, DWORD PTR [eax+132]
	mov	DWORD PTR _systemTarget$[ebp], ecx
$LN116@TargetingP:

; 61   : 	
; 62   : 	// 2001-11-01 ADDED BY M.N. IT MAY BE THAT theRadar HAS LOST THE TARGET, BUT OUR TARGETING POD
; 63   : 	// STILL HAS IT. SO SEE IF WE HAVE ONE LOCKED WITH THE POD
; 64   : 	if (!systemTarget && !F4IsBadReadPtr(targetingPod, sizeof (targetingPod)))	// M.N. CTD fix

	cmp	DWORD PTR _systemTarget$[ebp], 0
	jne	SHORT $LN115@TargetingP
	push	4
	mov	edx, DWORD PTR _targetingPod$[ebp]
	push	edx
	call	?F4IsBadReadPtr@@YA_NPBXI@Z		; F4IsBadReadPtr
	add	esp, 8
	movzx	eax, al
	test	eax, eax
	jne	SHORT $LN115@TargetingP

; 65   : 	{
; 66   : 		systemTarget = targetingPod->CurrentTarget();

	mov	ecx, DWORD PTR _targetingPod$[ebp]
	call	?CurrentTarget@SensorClass@@QAEPAVSimObjectType@@XZ ; SensorClass::CurrentTarget
	mov	DWORD PTR _systemTarget$[ebp], eax
$LN115@TargetingP:

; 67   : 		
; 68   : 	}
; 69   : 
; 70   : 
; 71   : 
; 72   : 	// Is the currently aimed target dead or exploding ? If so, delete the pod targetpointer
; 73   : 	if (systemTarget && (systemTarget->BaseData()->IsDead() || systemTarget->BaseData()->IsExploding()) 
; 74   : 		&& !F4IsBadWritePtr(targetingPod, sizeof (targetingPod))) // CTD fix

	cmp	DWORD PTR _systemTarget$[ebp], 0
	je	SHORT $LN114@TargetingP
	mov	ecx, DWORD PTR _systemTarget$[ebp]
	call	?BaseData@SimObjectType@@QAEPAVFalconEntity@@XZ ; SimObjectType::BaseData
	mov	DWORD PTR tv156[ebp], eax
	mov	ecx, DWORD PTR tv156[ebp]
	mov	edx, DWORD PTR [ecx]
	mov	ecx, DWORD PTR tv156[ebp]
	mov	eax, DWORD PTR [edx+212]
	call	eax
	test	eax, eax
	jne	SHORT $LN113@TargetingP
	mov	ecx, DWORD PTR _systemTarget$[ebp]
	call	?BaseData@SimObjectType@@QAEPAVFalconEntity@@XZ ; SimObjectType::BaseData
	mov	DWORD PTR tv164[ebp], eax
	mov	ecx, DWORD PTR tv164[ebp]
	mov	edx, DWORD PTR [ecx]
	mov	ecx, DWORD PTR tv164[ebp]
	mov	eax, DWORD PTR [edx+208]
	call	eax
	test	eax, eax
	je	SHORT $LN114@TargetingP
$LN113@TargetingP:
	push	4
	mov	ecx, DWORD PTR _targetingPod$[ebp]
	push	ecx
	call	?F4IsBadWritePtr@@YA_NPAXI@Z		; F4IsBadWritePtr
	add	esp, 8
	movzx	edx, al
	test	edx, edx
	jne	SHORT $LN114@TargetingP

; 75   : 	{
; 76   : 		systemTarget = NULL;

	mov	DWORD PTR _systemTarget$[ebp], 0

; 77   : 		targetingPod->SetDesiredTarget(NULL);

	push	0
	mov	eax, DWORD PTR _targetingPod$[ebp]
	mov	edx, DWORD PTR [eax]
	mov	ecx, DWORD PTR _targetingPod$[ebp]
	mov	eax, DWORD PTR [edx+36]
	call	eax
$LN114@TargetingP:

; 78   : 	}
; 79   : 	// END of added section
; 80   : #if 0 // MLR - erm. Why?
; 81   : 	// Make sure it's on the ground
; 82   : 	if (systemTarget)
; 83   : 	{
; 84   : 	/* JB 010624 Why? Setting the position like this screws up multiplayer and entitys' movement
; 85   : 	if (systemTarget->BaseData()->IsSim() &&
; 86   : 	systemTarget->BaseData()->OnGround() &&
; 87   : 	((SimBaseClass*)systemTarget->BaseData())->IsAwake())
; 88   : 	{
; 89   : 	((SimBaseClass*)systemTarget->BaseData())->drawPointer->GetPosition (&pos);
; 90   : 	}
; 91   : 	else
; 92   : 		*/
; 93   : 		{
; 94   : 			pos.x = systemTarget->BaseData()->XPos();
; 95   : 			pos.y = systemTarget->BaseData()->YPos();
; 96   : 			pos.z = OTWDriver.GetGroundLevel( pos.x, pos.y );
; 97   : 		}
; 98   : 		systemTarget->BaseData()->SetPosition (pos.x, pos.y, pos.z);
; 99   : 	}
; 100  : #endif
; 101  : 	if (targetingPod) // we already know we have a TGP

	cmp	DWORD PTR _targetingPod$[ebp], 0
	je	$LN112@TargetingP

; 102  : 	{
; 103  : 		// Simple radars, look at locked target if any, otherwise look at cursors
; 104  : 		// 2001-04-16 MODIFIED BY S.G. CombatAP GETS TO USE THIS STUFF AS WELL.
; 105  : 		//    if  (playerFCC && (PlayerOptions.GetAvionicsType() != ATRealistic) && (subMode == SLAVE))
; 106  : 		// M.N. added full realism mode
; 107  : 		if ((playerFCC && (PlayerOptions.GetAvionicsType() != ATRealistic && PlayerOptions.GetAvionicsType() != ATRealisticAV) 
; 108  : 			&& (subMode == SLAVE)) || ((AircraftClass *)platform)->AutopilotType() == AircraftClass::CombatAP)

	mov	ecx, DWORD PTR _this$[ebp]
	cmp	DWORD PTR [ecx+92], 0
	je	SHORT $LN109@TargetingP
	mov	ecx, OFFSET ?PlayerOptions@@3VPlayerOptionsClass@@A ; PlayerOptions
	call	?GetAvionicsType@PlayerOptionsClass@@QAEHXZ ; PlayerOptionsClass::GetAvionicsType
	cmp	eax, 2
	je	SHORT $LN109@TargetingP
	mov	ecx, OFFSET ?PlayerOptions@@3VPlayerOptionsClass@@A ; PlayerOptions
	call	?GetAvionicsType@PlayerOptionsClass@@QAEHXZ ; PlayerOptionsClass::GetAvionicsType
	cmp	eax, 3
	je	SHORT $LN109@TargetingP
	mov	edx, DWORD PTR _this$[ebp]
	cmp	DWORD PTR [edx+148], 15			; 0000000fH
	je	SHORT $LN110@TargetingP
$LN109@TargetingP:
	mov	eax, DWORD PTR _this$[ebp]
	mov	ecx, DWORD PTR [eax+140]
	call	?AutopilotType@AircraftClass@@QAE?AW4AutoPilotType@1@XZ ; AircraftClass::AutopilotType
	cmp	eax, 2
	jne	$LN111@TargetingP
$LN110@TargetingP:

; 109  : 		{		  
; 110  : 			if (systemTarget && systemTarget->BaseData()->OnGround())

	cmp	DWORD PTR _systemTarget$[ebp], 0
	je	SHORT $LN108@TargetingP
	mov	ecx, DWORD PTR _systemTarget$[ebp]
	call	?BaseData@SimObjectType@@QAEPAVFalconEntity@@XZ ; SimObjectType::BaseData
	mov	DWORD PTR tv205[ebp], eax
	mov	ecx, DWORD PTR tv205[ebp]
	mov	edx, DWORD PTR [ecx]
	mov	ecx, DWORD PTR tv205[ebp]
	mov	eax, DWORD PTR [edx+148]
	call	eax
	test	eax, eax
	je	SHORT $LN108@TargetingP

; 111  : 			{
; 112  : 			/*  JB 010624 Why? Setting the position like this screws up multiplayer and entitys' movement
; 113  :             if (systemTarget->BaseData()->IsSim() && ((SimBaseClass*)systemTarget->BaseData())->IsAwake())
; 114  :             {
; 115  : 			((SimBaseClass*)systemTarget->BaseData())->drawPointer->GetPosition( &pos );
; 116  : 			systemTarget->BaseData()->SetPosition(	systemTarget->BaseData()->XPos(),
; 117  : 			systemTarget->BaseData()->YPos(), pos.z);
; 118  :             }
; 119  : 				*/
; 120  : 				groundDesignateX = systemTarget->BaseData()->XPos();

	mov	ecx, DWORD PTR _systemTarget$[ebp]
	call	?BaseData@SimObjectType@@QAEPAVFalconEntity@@XZ ; SimObjectType::BaseData
	mov	ecx, eax
	call	?XPos@VuEntity@@QBEMXZ			; VuEntity::XPos
	mov	ecx, DWORD PTR _this$[ebp]
	fstp	DWORD PTR [ecx+376]

; 121  : 				groundDesignateY = systemTarget->BaseData()->YPos();

	mov	ecx, DWORD PTR _systemTarget$[ebp]
	call	?BaseData@SimObjectType@@QAEPAVFalconEntity@@XZ ; SimObjectType::BaseData
	mov	ecx, eax
	call	?YPos@VuEntity@@QBEMXZ			; VuEntity::YPos
	mov	edx, DWORD PTR _this$[ebp]
	fstp	DWORD PTR [edx+380]

; 122  : 				groundDesignateZ = systemTarget->BaseData()->ZPos();

	mov	ecx, DWORD PTR _systemTarget$[ebp]
	call	?BaseData@SimObjectType@@QAEPAVFalconEntity@@XZ ; SimObjectType::BaseData
	mov	ecx, eax
	call	?ZPos@VuEntity@@QBEMXZ			; VuEntity::ZPos
	mov	eax, DWORD PTR _this$[ebp]
	fstp	DWORD PTR [eax+384]

; 123  : 			}
; 124  : 			else

	jmp	SHORT $LN107@TargetingP
$LN108@TargetingP:

; 125  : 			{
; 126  : 				// Find the ground Point
; 127  : 				ShiAssert( theRadar );
; 128  : 				theRadar->GetAGCenter (&groundDesignateX, &groundDesignateY);

	mov	ecx, DWORD PTR _this$[ebp]
	add	ecx, 380				; 0000017cH
	push	ecx
	mov	edx, DWORD PTR _this$[ebp]
	add	edx, 376				; 00000178H
	push	edx
	mov	eax, DWORD PTR _theRadar$[ebp]
	mov	edx, DWORD PTR [eax]
	mov	ecx, DWORD PTR _theRadar$[ebp]
	mov	eax, DWORD PTR [edx+192]
	call	eax

; 129  : 				groundDesignateZ = OTWDriver.GetGroundLevel(groundDesignateX, groundDesignateY);

	push	0
	mov	ecx, DWORD PTR _this$[ebp]
	push	ecx
	movss	xmm0, DWORD PTR [ecx+380]
	movss	DWORD PTR [esp], xmm0
	mov	edx, DWORD PTR _this$[ebp]
	push	ecx
	movss	xmm0, DWORD PTR [edx+376]
	movss	DWORD PTR [esp], xmm0
	mov	ecx, OFFSET ?OTWDriver@@3VOTWDriverClass@@A ; OTWDriver
	call	?GetGroundLevel@OTWDriverClass@@QAEMMMPAUTpoint@@@Z ; OTWDriverClass::GetGroundLevel
	mov	eax, DWORD PTR _this$[ebp]
	fstp	DWORD PTR [eax+384]
$LN107@TargetingP:

; 130  : 			}
; 131  : 			
; 132  : 			targetingPod->SetTargetPosition (groundDesignateX, groundDesignateY, groundDesignateZ);

	mov	ecx, DWORD PTR _this$[ebp]
	push	ecx
	movss	xmm0, DWORD PTR [ecx+384]
	movss	DWORD PTR [esp], xmm0
	mov	edx, DWORD PTR _this$[ebp]
	push	ecx
	movss	xmm0, DWORD PTR [edx+380]
	movss	DWORD PTR [esp], xmm0
	mov	eax, DWORD PTR _this$[ebp]
	push	ecx
	movss	xmm0, DWORD PTR [eax+376]
	movss	DWORD PTR [esp], xmm0
	mov	ecx, DWORD PTR _targetingPod$[ebp]
	call	?SetTargetPosition@LaserPodClass@@QAEXMMM@Z ; LaserPodClass::SetTargetPosition

; 133  : 			
; 134  : 			dx = groundDesignateX - platform->XPos();

	mov	ecx, DWORD PTR _this$[ebp]
	mov	ecx, DWORD PTR [ecx+140]
	call	?XPos@VuEntity@@QBEMXZ			; VuEntity::XPos
	fstp	DWORD PTR tv2642[ebp]
	mov	edx, DWORD PTR _this$[ebp]
	movss	xmm0, DWORD PTR [edx+376]
	subss	xmm0, DWORD PTR tv2642[ebp]
	movss	DWORD PTR _dx$[ebp], xmm0

; 135  : 			dy = groundDesignateY - platform->YPos();

	mov	eax, DWORD PTR _this$[ebp]
	mov	ecx, DWORD PTR [eax+140]
	call	?YPos@VuEntity@@QBEMXZ			; VuEntity::YPos
	fstp	DWORD PTR tv2649[ebp]
	mov	ecx, DWORD PTR _this$[ebp]
	movss	xmm0, DWORD PTR [ecx+380]
	subss	xmm0, DWORD PTR tv2649[ebp]
	movss	DWORD PTR _dy$[ebp], xmm0

; 136  : 			dz = groundDesignateZ - platform->ZPos();

	mov	edx, DWORD PTR _this$[ebp]
	mov	ecx, DWORD PTR [edx+140]
	call	?ZPos@VuEntity@@QBEMXZ			; VuEntity::ZPos
	fstp	DWORD PTR tv2656[ebp]
	mov	eax, DWORD PTR _this$[ebp]
	movss	xmm0, DWORD PTR [eax+384]
	subss	xmm0, DWORD PTR tv2656[ebp]
	movss	DWORD PTR _dz$[ebp], xmm0

; 137  : 			
; 138  : 			rx = platform->dmx[0][0]*dx + platform->dmx[0][1]*dy + platform->dmx[0][2]*dz;

	mov	ecx, DWORD PTR _this$[ebp]
	mov	edx, DWORD PTR [ecx+140]
	mov	eax, 12					; 0000000cH
	imul	eax, 0
	lea	ecx, DWORD PTR [edx+eax+296]
	mov	edx, 4
	imul	edx, 0
	movss	xmm0, DWORD PTR [ecx+edx]
	mulss	xmm0, DWORD PTR _dx$[ebp]
	mov	eax, DWORD PTR _this$[ebp]
	mov	ecx, DWORD PTR [eax+140]
	mov	edx, 12					; 0000000cH
	imul	edx, 0
	lea	eax, DWORD PTR [ecx+edx+296]
	mov	ecx, 4
	shl	ecx, 0
	movss	xmm1, DWORD PTR [eax+ecx]
	mulss	xmm1, DWORD PTR _dy$[ebp]
	addss	xmm0, xmm1
	mov	edx, DWORD PTR _this$[ebp]
	mov	eax, DWORD PTR [edx+140]
	mov	ecx, 12					; 0000000cH
	imul	ecx, 0
	lea	edx, DWORD PTR [eax+ecx+296]
	mov	eax, 4
	shl	eax, 1
	movss	xmm1, DWORD PTR [edx+eax]
	mulss	xmm1, DWORD PTR _dz$[ebp]
	addss	xmm0, xmm1
	movss	DWORD PTR _rx$[ebp], xmm0

; 139  : 			ry = platform->dmx[1][0]*dx + platform->dmx[1][1]*dy + platform->dmx[1][2]*dz;

	mov	ecx, DWORD PTR _this$[ebp]
	mov	edx, DWORD PTR [ecx+140]
	mov	eax, 12					; 0000000cH
	shl	eax, 0
	lea	ecx, DWORD PTR [edx+eax+296]
	mov	edx, 4
	imul	edx, 0
	movss	xmm0, DWORD PTR [ecx+edx]
	mulss	xmm0, DWORD PTR _dx$[ebp]
	mov	eax, DWORD PTR _this$[ebp]
	mov	ecx, DWORD PTR [eax+140]
	mov	edx, 12					; 0000000cH
	shl	edx, 0
	lea	eax, DWORD PTR [ecx+edx+296]
	mov	ecx, 4
	shl	ecx, 0
	movss	xmm1, DWORD PTR [eax+ecx]
	mulss	xmm1, DWORD PTR _dy$[ebp]
	addss	xmm0, xmm1
	mov	edx, DWORD PTR _this$[ebp]
	mov	eax, DWORD PTR [edx+140]
	mov	ecx, 12					; 0000000cH
	shl	ecx, 0
	lea	edx, DWORD PTR [eax+ecx+296]
	mov	eax, 4
	shl	eax, 1
	movss	xmm1, DWORD PTR [edx+eax]
	mulss	xmm1, DWORD PTR _dz$[ebp]
	addss	xmm0, xmm1
	movss	DWORD PTR _ry$[ebp], xmm0

; 140  : 			rz = platform->dmx[2][0]*dx + platform->dmx[2][1]*dy + platform->dmx[2][2]*dz;

	mov	ecx, DWORD PTR _this$[ebp]
	mov	edx, DWORD PTR [ecx+140]
	mov	eax, 12					; 0000000cH
	shl	eax, 1
	lea	ecx, DWORD PTR [edx+eax+296]
	mov	edx, 4
	imul	edx, 0
	movss	xmm0, DWORD PTR [ecx+edx]
	mulss	xmm0, DWORD PTR _dx$[ebp]
	mov	eax, DWORD PTR _this$[ebp]
	mov	ecx, DWORD PTR [eax+140]
	mov	edx, 12					; 0000000cH
	shl	edx, 1
	lea	eax, DWORD PTR [ecx+edx+296]
	mov	ecx, 4
	shl	ecx, 0
	movss	xmm1, DWORD PTR [eax+ecx]
	mulss	xmm1, DWORD PTR _dy$[ebp]
	addss	xmm0, xmm1
	mov	edx, DWORD PTR _this$[ebp]
	mov	eax, DWORD PTR [edx+140]
	mov	ecx, 12					; 0000000cH
	shl	ecx, 1
	lea	edx, DWORD PTR [eax+ecx+296]
	mov	eax, 4
	shl	eax, 1
	movss	xmm1, DWORD PTR [edx+eax]
	mulss	xmm1, DWORD PTR _dz$[ebp]
	addss	xmm0, xmm1
	movss	DWORD PTR _rz$[ebp], xmm0

; 141  : 			
; 142  : 			yaw   = groundDesignateAz    = (float)atan2 (ry,rx);

	cvtss2sd xmm0, DWORD PTR _rx$[ebp]
	sub	esp, 8
	movsd	QWORD PTR [esp], xmm0
	cvtss2sd xmm0, DWORD PTR _ry$[ebp]
	sub	esp, 8
	movsd	QWORD PTR [esp], xmm0
	call	?checked_atan2@@YANNN@Z			; checked_atan2
	add	esp, 16					; 00000010H
	fstp	DWORD PTR tv398[ebp]
	mov	ecx, DWORD PTR _this$[ebp]
	movss	xmm0, DWORD PTR tv398[ebp]
	movss	DWORD PTR [ecx+364], xmm0
	mov	edx, DWORD PTR _this$[ebp]
	movss	xmm0, DWORD PTR tv398[ebp]
	movss	DWORD PTR [edx+448], xmm0

; 143  : 			pitch = groundDesignateEl    = (float)atan (-rz/(float)sqrt(rx*rx+ry*ry+.1f));

	movss	xmm0, DWORD PTR _rz$[ebp]
	xorps	xmm0, DWORD PTR __xmm@80000000800000008000000080000000
	movss	xmm1, DWORD PTR _rx$[ebp]
	mulss	xmm1, DWORD PTR _rx$[ebp]
	movss	xmm2, DWORD PTR _ry$[ebp]
	mulss	xmm2, DWORD PTR _ry$[ebp]
	addss	xmm1, xmm2
	addss	xmm1, DWORD PTR __real@3dcccccd
	push	ecx
	movss	DWORD PTR [esp], xmm1
	movss	DWORD PTR tv3881[ebp], xmm0
	call	?SqrtSSE@@YAMM@Z			; SqrtSSE
	add	esp, 4
	fstp	DWORD PTR tv2710[ebp]
	movss	xmm0, DWORD PTR tv3881[ebp]
	divss	xmm0, DWORD PTR tv2710[ebp]
	push	ecx
	movss	DWORD PTR [esp], xmm0
	call	?atan@@YAMM@Z				; atan
	add	esp, 4
	fstp	DWORD PTR tv401[ebp]
	mov	eax, DWORD PTR _this$[ebp]
	movss	xmm0, DWORD PTR tv401[ebp]
	movss	DWORD PTR [eax+368], xmm0
	mov	ecx, DWORD PTR _this$[ebp]
	movss	xmm0, DWORD PTR tv401[ebp]
	movss	DWORD PTR [ecx+440], xmm0

; 144  : 			groundDesignateDroll = (float)atan2 (ry,-rz);

	movss	xmm0, DWORD PTR _rz$[ebp]
	xorps	xmm0, DWORD PTR __xmm@80000000800000008000000080000000
	cvtss2sd xmm0, xmm0
	sub	esp, 8
	movsd	QWORD PTR [esp], xmm0
	cvtss2sd xmm0, DWORD PTR _ry$[ebp]
	sub	esp, 8
	movsd	QWORD PTR [esp], xmm0
	call	?checked_atan2@@YANNN@Z			; checked_atan2
	add	esp, 16					; 00000010H
	mov	edx, DWORD PTR _this$[ebp]
	fstp	DWORD PTR [edx+372]

; 145  : 			isLimited = targetingPod->SetDesiredSeekerPos (&yaw, &pitch);

	mov	eax, DWORD PTR _this$[ebp]
	add	eax, 440				; 000001b8H
	push	eax
	mov	ecx, DWORD PTR _this$[ebp]
	add	ecx, 448				; 000001c0H
	push	ecx
	mov	ecx, DWORD PTR _targetingPod$[ebp]
	call	?SetDesiredSeekerPos@LaserPodClass@@QAEHPAM0@Z ; LaserPodClass::SetDesiredSeekerPos
	mov	DWORD PTR _isLimited$[ebp], eax

; 146  : 			
; 147  : 			yaw   = (float)atan2 (dy,dx);

	cvtss2sd xmm0, DWORD PTR _dx$[ebp]
	sub	esp, 8
	movsd	QWORD PTR [esp], xmm0
	cvtss2sd xmm0, DWORD PTR _dy$[ebp]
	sub	esp, 8
	movsd	QWORD PTR [esp], xmm0
	call	?checked_atan2@@YANNN@Z			; checked_atan2
	add	esp, 16					; 00000010H
	mov	edx, DWORD PTR _this$[ebp]
	fstp	DWORD PTR [edx+448]

; 148  : 			pitch = (float)atan (-dz/(float)sqrt(dx*dx+dy*dy+.1f));

	movss	xmm0, DWORD PTR _dz$[ebp]
	xorps	xmm0, DWORD PTR __xmm@80000000800000008000000080000000
	movss	xmm1, DWORD PTR _dx$[ebp]
	mulss	xmm1, DWORD PTR _dx$[ebp]
	movss	xmm2, DWORD PTR _dy$[ebp]
	mulss	xmm2, DWORD PTR _dy$[ebp]
	addss	xmm1, xmm2
	addss	xmm1, DWORD PTR __real@3dcccccd
	push	ecx
	movss	DWORD PTR [esp], xmm1
	movss	DWORD PTR tv3883[ebp], xmm0
	call	?SqrtSSE@@YAMM@Z			; SqrtSSE
	add	esp, 4
	fstp	DWORD PTR tv2742[ebp]
	movss	xmm0, DWORD PTR tv3883[ebp]
	divss	xmm0, DWORD PTR tv2742[ebp]
	push	ecx
	movss	DWORD PTR [esp], xmm0
	call	?atan@@YAMM@Z				; atan
	add	esp, 4
	mov	eax, DWORD PTR _this$[ebp]
	fstp	DWORD PTR [eax+440]

; 149  : 			roll  = platform->Roll();

	mov	ecx, DWORD PTR _this$[ebp]
	mov	ecx, DWORD PTR [ecx+140]
	call	?Roll@VuEntity@@QBEMXZ			; VuEntity::Roll
	mov	edx, DWORD PTR _this$[ebp]
	fstp	DWORD PTR [edx+444]

; 150  : 			targetingPod->SetYPR (yaw, pitch, roll);

	mov	eax, DWORD PTR _this$[ebp]
	push	ecx
	movss	xmm0, DWORD PTR [eax+444]
	movss	DWORD PTR [esp], xmm0
	mov	ecx, DWORD PTR _this$[ebp]
	push	ecx
	movss	xmm0, DWORD PTR [ecx+440]
	movss	DWORD PTR [esp], xmm0
	mov	edx, DWORD PTR _this$[ebp]
	push	ecx
	movss	xmm0, DWORD PTR [edx+448]
	movss	DWORD PTR [esp], xmm0
	mov	ecx, DWORD PTR _targetingPod$[ebp]
	call	?SetYPR@LaserPodClass@@QAEXMMM@Z	; LaserPodClass::SetYPR

; 151  : 			inRange = TRUE;

	mov	eax, DWORD PTR _this$[ebp]
	mov	DWORD PTR [eax+216], 1

; 152  : 			
; 153  : 			// 2001-04-16 MODIFIED BY S.G. ONLY SET THE TARGET IF OUR POD CAN SEE IT
; 154  : 			//		 targetingPod->SetDesiredTarget(systemTarget);
; 155  : 			if (systemTarget) 

	cmp	DWORD PTR _systemTarget$[ebp], 0
	je	SHORT $LN106@TargetingP

; 156  : 			{
; 157  : 				CalcRelGeom(platform, systemTarget, NULL, 1.0F / SimLibMajorFrameTime);

	movss	xmm0, DWORD PTR __real@3f800000
	divss	xmm0, DWORD PTR ?SimLibMajorFrameTime@@3MA
	push	ecx
	movss	DWORD PTR [esp], xmm0
	push	0
	mov	ecx, DWORD PTR _systemTarget$[ebp]
	push	ecx
	mov	edx, DWORD PTR _this$[ebp]
	mov	eax, DWORD PTR [edx+140]
	push	eax
	call	?CalcRelGeom@@YAXPAVSimBaseClass@@PAVSimObjectType@@QAY02MM@Z ; CalcRelGeom
	add	esp, 16					; 00000010H

; 158  : 				if (targetingPod->CanSeeObject(systemTarget) && targetingPod->CanDetectObject(systemTarget))

	mov	ecx, DWORD PTR _systemTarget$[ebp]
	push	ecx
	mov	edx, DWORD PTR _targetingPod$[ebp]
	mov	eax, DWORD PTR [edx]
	mov	ecx, DWORD PTR _targetingPod$[ebp]
	mov	edx, DWORD PTR [eax+80]
	call	edx
	test	eax, eax
	je	SHORT $LN105@TargetingP
	mov	eax, DWORD PTR _systemTarget$[ebp]
	push	eax
	mov	ecx, DWORD PTR _targetingPod$[ebp]
	mov	edx, DWORD PTR [ecx]
	mov	ecx, DWORD PTR _targetingPod$[ebp]
	mov	eax, DWORD PTR [edx+88]
	call	eax
	test	eax, eax
	je	SHORT $LN105@TargetingP

; 159  :  					targetingPod->SetDesiredTarget(systemTarget);

	mov	ecx, DWORD PTR _systemTarget$[ebp]
	push	ecx
	mov	edx, DWORD PTR _targetingPod$[ebp]
	mov	eax, DWORD PTR [edx]
	mov	ecx, DWORD PTR _targetingPod$[ebp]
	mov	edx, DWORD PTR [eax+36]
	call	edx

; 160  : 				else

	jmp	SHORT $LN104@TargetingP
$LN105@TargetingP:

; 161  : 					targetingPod->SetDesiredTarget(NULL);

	push	0
	mov	eax, DWORD PTR _targetingPod$[ebp]
	mov	edx, DWORD PTR [eax]
	mov	ecx, DWORD PTR _targetingPod$[ebp]
	mov	eax, DWORD PTR [edx+36]
	call	eax
$LN104@TargetingP:

; 162  : 			}
; 163  : 			else

	jmp	SHORT $LN103@TargetingP
$LN106@TargetingP:

; 164  : 				targetingPod->SetDesiredTarget(NULL);

	push	0
	mov	ecx, DWORD PTR _targetingPod$[ebp]
	mov	edx, DWORD PTR [ecx]
	mov	ecx, DWORD PTR _targetingPod$[ebp]
	mov	eax, DWORD PTR [edx+36]
	call	eax
$LN103@TargetingP:

; 165  : 			// END OF MODIFIED SECTION
; 166  : 			
; 167  : 			if (targetingPod->CurrentTarget())

	mov	ecx, DWORD PTR _targetingPod$[ebp]
	call	?CurrentTarget@SensorClass@@QAEPAVSimObjectType@@XZ ; SensorClass::CurrentTarget
	test	eax, eax
	je	SHORT $LN102@TargetingP

; 168  : 				targetingPod->LockTarget();

	mov	ecx, DWORD PTR _targetingPod$[ebp]
	call	?LockTarget@LaserPodClass@@QAEHXZ	; LaserPodClass::LockTarget
$LN102@TargetingP:

; 169  : 			
; 170  : 			// 2001-04-16 ADDED BY S.G. Set the LGB current TARGET IF WE ARE LOCKED
; 171  : 			if (targetingPod->IsLocked())

	mov	ecx, DWORD PTR _targetingPod$[ebp]
	call	?IsLocked@LaserPodClass@@QAEHXZ		; LaserPodClass::IsLocked
	test	eax, eax
	je	SHORT $LN101@TargetingP

; 172  : 				SetTarget(targetingPod->CurrentTarget());

	mov	ecx, DWORD PTR _targetingPod$[ebp]
	call	?CurrentTarget@SensorClass@@QAEPAVSimObjectType@@XZ ; SensorClass::CurrentTarget
	push	eax
	mov	ecx, DWORD PTR _this$[ebp]
	call	?SetTarget@FireControlComputer@@QAEXPAVSimObjectType@@@Z ; FireControlComputer::SetTarget
$LN101@TargetingP:

; 173  : 			// END OF ADDED SECTION
; 174  : 			
; 175  : 			platform->SOIManager (SimVehicleClass::SOI_WEAPON);

	push	2
	mov	ecx, DWORD PTR _this$[ebp]
	mov	ecx, DWORD PTR [ecx+140]
	call	?SOIManager@SimVehicleClass@@QAEXW4SOI@1@@Z ; SimVehicleClass::SOIManager

; 176  : 		}
; 177  : 		else

	jmp	$LN23@TargetingP
$LN111@TargetingP:

; 178  : 		{
; 179  : 			switch(masterMode)

	mov	edx, DWORD PTR _this$[ebp]
	mov	eax, DWORD PTR [edx+144]
	mov	DWORD PTR tv537[ebp], eax
	cmp	DWORD PTR tv537[ebp], 2
	je	SHORT $LN97@TargetingP
	cmp	DWORD PTR tv537[ebp], 8
	jle	$LN90@TargetingP
	cmp	DWORD PTR tv537[ebp], 10		; 0000000aH
	jle	SHORT $LN97@TargetingP
	jmp	$LN90@TargetingP
$LN97@TargetingP:

; 180  : 			{
; 181  : 			case Missile:
; 182  : 			case Dogfight:
; 183  : 			case MissileOverride:
; 184  : 				/* MLR - very early stages of implementing AA TGP mode */
; 185  : 				{
; 186  : 					enum AATGPMode { OWNTGT, FCRLOS, BORESIGHT };
; 187  : 					
; 188  : 					AATGPMode tgpmode = BORESIGHT;

	mov	DWORD PTR _tgpmode$11[ebp], 2

; 189  : 					
; 190  : 					if (systemTarget)

	cmp	DWORD PTR _systemTarget$[ebp], 0
	je	SHORT $LN96@TargetingP

; 191  : 					{
; 192  : 						tgpmode=FCRLOS;

	mov	DWORD PTR _tgpmode$11[ebp], 1
$LN96@TargetingP:

; 193  : 					}
; 194  : 
; 195  : 					/*
; 196  : 					if(targetingPod->IsSOI())
; 197  : 					{
; 198  : 						if(targetingPod->CurrentTarget())
; 199  : 						{
; 200  : 							tgpmode=OWNTGT;
; 201  : 						}
; 202  : 					}
; 203  : 					*/
; 204  : 
; 205  : 					/* In A-A the TGP is initially commanded to the FCR LOS if the FCR 
; 206  : 					is tracking an A-A target.
; 207  : 				    */
; 208  : 
; 209  : 					switch (tgpmode)

	mov	ecx, DWORD PTR _tgpmode$11[ebp]
	mov	DWORD PTR tv539[ebp], ecx
	cmp	DWORD PTR tv539[ebp], 1
	je	SHORT $LN93@TargetingP
	cmp	DWORD PTR tv539[ebp], 2
	je	$LN92@TargetingP
	jmp	$LN94@TargetingP
$LN93@TargetingP:

; 210  : 					{
; 211  : 					case FCRLOS:
; 212  : 						{				
; 213  : 							float x,y,z;
; 214  : 							x = systemTarget->BaseData()->XPos();

	mov	ecx, DWORD PTR _systemTarget$[ebp]
	call	?BaseData@SimObjectType@@QAEPAVFalconEntity@@XZ ; SimObjectType::BaseData
	mov	ecx, eax
	call	?XPos@VuEntity@@QBEMXZ			; VuEntity::XPos
	fstp	DWORD PTR _x$3[ebp]

; 215  : 							y = systemTarget->BaseData()->YPos();

	mov	ecx, DWORD PTR _systemTarget$[ebp]
	call	?BaseData@SimObjectType@@QAEPAVFalconEntity@@XZ ; SimObjectType::BaseData
	mov	ecx, eax
	call	?YPos@VuEntity@@QBEMXZ			; VuEntity::YPos
	fstp	DWORD PTR _y$2[ebp]

; 216  : 							z = systemTarget->BaseData()->ZPos();

	mov	ecx, DWORD PTR _systemTarget$[ebp]
	call	?BaseData@SimObjectType@@QAEPAVFalconEntity@@XZ ; SimObjectType::BaseData
	mov	ecx, eax
	call	?ZPos@VuEntity@@QBEMXZ			; VuEntity::ZPos
	fstp	DWORD PTR _z$1[ebp]

; 217  : 							
; 218  : 							float dx,dy,dz,rx,ry,rz,yaw,pitch,roll;
; 219  : 							
; 220  : 							dx = x - platform->XPos();

	mov	edx, DWORD PTR _this$[ebp]
	mov	ecx, DWORD PTR [edx+140]
	call	?XPos@VuEntity@@QBEMXZ			; VuEntity::XPos
	fstp	DWORD PTR tv2801[ebp]
	movss	xmm0, DWORD PTR _x$3[ebp]
	subss	xmm0, DWORD PTR tv2801[ebp]
	movss	DWORD PTR _dx$36[ebp], xmm0

; 221  : 							dy = y - platform->YPos();

	mov	eax, DWORD PTR _this$[ebp]
	mov	ecx, DWORD PTR [eax+140]
	call	?YPos@VuEntity@@QBEMXZ			; VuEntity::YPos
	fstp	DWORD PTR tv2807[ebp]
	movss	xmm0, DWORD PTR _y$2[ebp]
	subss	xmm0, DWORD PTR tv2807[ebp]
	movss	DWORD PTR _dy$35[ebp], xmm0

; 222  : 							dz = z - platform->ZPos();

	mov	ecx, DWORD PTR _this$[ebp]
	mov	ecx, DWORD PTR [ecx+140]
	call	?ZPos@VuEntity@@QBEMXZ			; VuEntity::ZPos
	fstp	DWORD PTR tv2813[ebp]
	movss	xmm0, DWORD PTR _z$1[ebp]
	subss	xmm0, DWORD PTR tv2813[ebp]
	movss	DWORD PTR _dz$30[ebp], xmm0

; 223  : 							
; 224  : 							rx = platform->dmx[0][0]*dx + platform->dmx[0][1]*dy + platform->dmx[0][2]*dz;

	mov	edx, DWORD PTR _this$[ebp]
	mov	eax, DWORD PTR [edx+140]
	mov	ecx, 12					; 0000000cH
	imul	ecx, 0
	lea	edx, DWORD PTR [eax+ecx+296]
	mov	eax, 4
	imul	eax, 0
	movss	xmm0, DWORD PTR [edx+eax]
	mulss	xmm0, DWORD PTR _dx$36[ebp]
	mov	ecx, DWORD PTR _this$[ebp]
	mov	edx, DWORD PTR [ecx+140]
	mov	eax, 12					; 0000000cH
	imul	eax, 0
	lea	ecx, DWORD PTR [edx+eax+296]
	mov	edx, 4
	shl	edx, 0
	movss	xmm1, DWORD PTR [ecx+edx]
	mulss	xmm1, DWORD PTR _dy$35[ebp]
	addss	xmm0, xmm1
	mov	eax, DWORD PTR _this$[ebp]
	mov	ecx, DWORD PTR [eax+140]
	mov	edx, 12					; 0000000cH
	imul	edx, 0
	lea	eax, DWORD PTR [ecx+edx+296]
	mov	ecx, 4
	shl	ecx, 1
	movss	xmm1, DWORD PTR [eax+ecx]
	mulss	xmm1, DWORD PTR _dz$30[ebp]
	addss	xmm0, xmm1
	movss	DWORD PTR _rx$29[ebp], xmm0

; 225  : 							ry = platform->dmx[1][0]*dx + platform->dmx[1][1]*dy + platform->dmx[1][2]*dz;

	mov	edx, DWORD PTR _this$[ebp]
	mov	eax, DWORD PTR [edx+140]
	mov	ecx, 12					; 0000000cH
	shl	ecx, 0
	lea	edx, DWORD PTR [eax+ecx+296]
	mov	eax, 4
	imul	eax, 0
	movss	xmm0, DWORD PTR [edx+eax]
	mulss	xmm0, DWORD PTR _dx$36[ebp]
	mov	ecx, DWORD PTR _this$[ebp]
	mov	edx, DWORD PTR [ecx+140]
	mov	eax, 12					; 0000000cH
	shl	eax, 0
	lea	ecx, DWORD PTR [edx+eax+296]
	mov	edx, 4
	shl	edx, 0
	movss	xmm1, DWORD PTR [ecx+edx]
	mulss	xmm1, DWORD PTR _dy$35[ebp]
	addss	xmm0, xmm1
	mov	eax, DWORD PTR _this$[ebp]
	mov	ecx, DWORD PTR [eax+140]
	mov	edx, 12					; 0000000cH
	shl	edx, 0
	lea	eax, DWORD PTR [ecx+edx+296]
	mov	ecx, 4
	shl	ecx, 1
	movss	xmm1, DWORD PTR [eax+ecx]
	mulss	xmm1, DWORD PTR _dz$30[ebp]
	addss	xmm0, xmm1
	movss	DWORD PTR _ry$33[ebp], xmm0

; 226  : 							rz = platform->dmx[2][0]*dx + platform->dmx[2][1]*dy + platform->dmx[2][2]*dz;

	mov	edx, DWORD PTR _this$[ebp]
	mov	eax, DWORD PTR [edx+140]
	mov	ecx, 12					; 0000000cH
	shl	ecx, 1
	lea	edx, DWORD PTR [eax+ecx+296]
	mov	eax, 4
	imul	eax, 0
	movss	xmm0, DWORD PTR [edx+eax]
	mulss	xmm0, DWORD PTR _dx$36[ebp]
	mov	ecx, DWORD PTR _this$[ebp]
	mov	edx, DWORD PTR [ecx+140]
	mov	eax, 12					; 0000000cH
	shl	eax, 1
	lea	ecx, DWORD PTR [edx+eax+296]
	mov	edx, 4
	shl	edx, 0
	movss	xmm1, DWORD PTR [ecx+edx]
	mulss	xmm1, DWORD PTR _dy$35[ebp]
	addss	xmm0, xmm1
	mov	eax, DWORD PTR _this$[ebp]
	mov	ecx, DWORD PTR [eax+140]
	mov	edx, 12					; 0000000cH
	shl	edx, 1
	lea	eax, DWORD PTR [ecx+edx+296]
	mov	ecx, 4
	shl	ecx, 1
	movss	xmm1, DWORD PTR [eax+ecx]
	mulss	xmm1, DWORD PTR _dz$30[ebp]
	addss	xmm0, xmm1
	movss	DWORD PTR _rz$9[ebp], xmm0

; 227  : 							
; 228  : 							yaw    = (float)atan2 (ry,rx);

	cvtss2sd xmm0, DWORD PTR _rx$29[ebp]
	sub	esp, 8
	movsd	QWORD PTR [esp], xmm0
	cvtss2sd xmm0, DWORD PTR _ry$33[ebp]
	sub	esp, 8
	movsd	QWORD PTR [esp], xmm0
	call	?checked_atan2@@YANNN@Z			; checked_atan2
	add	esp, 16					; 00000010H
	fstp	DWORD PTR _yaw$21[ebp]

; 229  : 							pitch  = (float)atan (-rz/(float)sqrt(rx*rx+ry*ry+.1f));

	movss	xmm0, DWORD PTR _rz$9[ebp]
	xorps	xmm0, DWORD PTR __xmm@80000000800000008000000080000000
	movss	xmm1, DWORD PTR _rx$29[ebp]
	mulss	xmm1, DWORD PTR _rx$29[ebp]
	movss	xmm2, DWORD PTR _ry$33[ebp]
	mulss	xmm2, DWORD PTR _ry$33[ebp]
	addss	xmm1, xmm2
	addss	xmm1, DWORD PTR __real@3dcccccd
	push	ecx
	movss	DWORD PTR [esp], xmm1
	movss	DWORD PTR tv3885[ebp], xmm0
	call	?SqrtSSE@@YAMM@Z			; SqrtSSE
	add	esp, 4
	fstp	DWORD PTR tv2863[ebp]
	movss	xmm0, DWORD PTR tv3885[ebp]
	divss	xmm0, DWORD PTR tv2863[ebp]
	push	ecx
	movss	DWORD PTR [esp], xmm0
	call	?atan@@YAMM@Z				; atan
	add	esp, 4
	fstp	DWORD PTR _pitch$26[ebp]

; 230  : 							roll   = (float)atan2 (ry,-rz);

	movss	xmm0, DWORD PTR _rz$9[ebp]
	xorps	xmm0, DWORD PTR __xmm@80000000800000008000000080000000
	cvtss2sd xmm0, xmm0
	sub	esp, 8
	movsd	QWORD PTR [esp], xmm0
	cvtss2sd xmm0, DWORD PTR _ry$33[ebp]
	sub	esp, 8
	movsd	QWORD PTR [esp], xmm0
	call	?checked_atan2@@YANNN@Z			; checked_atan2
	add	esp, 16					; 00000010H
	fstp	DWORD PTR _roll$17[ebp]

; 231  : 							
; 232  : 							isLimited = targetingPod->SetDesiredSeekerPos (&yaw, &pitch);

	lea	edx, DWORD PTR _pitch$26[ebp]
	push	edx
	lea	eax, DWORD PTR _yaw$21[ebp]
	push	eax
	mov	ecx, DWORD PTR _targetingPod$[ebp]
	call	?SetDesiredSeekerPos@LaserPodClass@@QAEHPAM0@Z ; LaserPodClass::SetDesiredSeekerPos
	mov	DWORD PTR _isLimited$[ebp], eax

; 233  : 							
; 234  : 							yaw   = (float)atan2 (dy,dx);

	cvtss2sd xmm0, DWORD PTR _dx$36[ebp]
	sub	esp, 8
	movsd	QWORD PTR [esp], xmm0
	cvtss2sd xmm0, DWORD PTR _dy$35[ebp]
	sub	esp, 8
	movsd	QWORD PTR [esp], xmm0
	call	?checked_atan2@@YANNN@Z			; checked_atan2
	add	esp, 16					; 00000010H
	fstp	DWORD PTR _yaw$21[ebp]

; 235  : 							pitch = (float)atan (-dz/(float)sqrt(dx*dx+dy*dy+.1f));

	movss	xmm0, DWORD PTR _dz$30[ebp]
	xorps	xmm0, DWORD PTR __xmm@80000000800000008000000080000000
	movss	xmm1, DWORD PTR _dx$36[ebp]
	mulss	xmm1, DWORD PTR _dx$36[ebp]
	movss	xmm2, DWORD PTR _dy$35[ebp]
	mulss	xmm2, DWORD PTR _dy$35[ebp]
	addss	xmm1, xmm2
	addss	xmm1, DWORD PTR __real@3dcccccd
	push	ecx
	movss	DWORD PTR [esp], xmm1
	movss	DWORD PTR tv3887[ebp], xmm0
	call	?SqrtSSE@@YAMM@Z			; SqrtSSE
	add	esp, 4
	fstp	DWORD PTR tv2888[ebp]
	movss	xmm0, DWORD PTR tv3887[ebp]
	divss	xmm0, DWORD PTR tv2888[ebp]
	push	ecx
	movss	DWORD PTR [esp], xmm0
	call	?atan@@YAMM@Z				; atan
	add	esp, 4
	fstp	DWORD PTR _pitch$26[ebp]

; 236  : 							roll  = platform->Roll();

	mov	ecx, DWORD PTR _this$[ebp]
	mov	ecx, DWORD PTR [ecx+140]
	call	?Roll@VuEntity@@QBEMXZ			; VuEntity::Roll
	fstp	DWORD PTR _roll$17[ebp]

; 237  : 							
; 238  : 							targetingPod->SetYPR (yaw, pitch, roll);				

	push	ecx
	movss	xmm0, DWORD PTR _roll$17[ebp]
	movss	DWORD PTR [esp], xmm0
	push	ecx
	movss	xmm0, DWORD PTR _pitch$26[ebp]
	movss	DWORD PTR [esp], xmm0
	push	ecx
	movss	xmm0, DWORD PTR _yaw$21[ebp]
	movss	DWORD PTR [esp], xmm0
	mov	ecx, DWORD PTR _targetingPod$[ebp]
	call	?SetYPR@LaserPodClass@@QAEXMMM@Z	; LaserPodClass::SetYPR

; 239  : 						
; 240  : 							/*
; 241  : 							if(designateCmd)
; 242  : 							{
; 243  : 								if (targetingPod->CanSeeObject(systemTarget) && targetingPod->CanDetectObject(systemTarget))
; 244  : 								{
; 245  : 									targetingPod->SetDesiredTarget(systemTarget);
; 246  : 								}
; 247  : 							}
; 248  : 							*/
; 249  : 						}
; 250  : 						break;

	jmp	$LN94@TargetingP
$LN92@TargetingP:

; 251  : 						case BORESIGHT:
; 252  : 						{ 
; 253  : 							/* When the TGP is not the SOI and the FCR is not tracking a target, 
; 254  : 							the TGP LOS is positioned to 0 degrees azimuth and 3 degrees elevation.
; 255  : 								*/
; 256  : 								float dx,dy,dz,rx,ry,rz,yaw,pitch,roll;
; 257  : 								
; 258  : 								// -3 degrees down
; 259  : 								dx = 0.998629f;

	movss	xmm0, DWORD PTR __real@3f7fa626
	movss	DWORD PTR _dx$24[ebp], xmm0

; 260  : 								dy = 0;

	movss	xmm0, DWORD PTR __real@00000000
	movss	DWORD PTR _dy$22[ebp], xmm0

; 261  : 								dz = 0.052335f;

	movss	xmm0, DWORD PTR __real@3d565d3a
	movss	DWORD PTR _dz$28[ebp], xmm0

; 262  : 								
; 263  : 								rx = platform->dmx[0][0]*dx + platform->dmx[1][0]*dy + platform->dmx[2][0]*dz;

	mov	edx, DWORD PTR _this$[ebp]
	mov	eax, DWORD PTR [edx+140]
	mov	ecx, 12					; 0000000cH
	imul	ecx, 0
	lea	edx, DWORD PTR [eax+ecx+296]
	mov	eax, 4
	imul	eax, 0
	movss	xmm0, DWORD PTR [edx+eax]
	mulss	xmm0, DWORD PTR _dx$24[ebp]
	mov	ecx, DWORD PTR _this$[ebp]
	mov	edx, DWORD PTR [ecx+140]
	mov	eax, 12					; 0000000cH
	shl	eax, 0
	lea	ecx, DWORD PTR [edx+eax+296]
	mov	edx, 4
	imul	edx, 0
	movss	xmm1, DWORD PTR [ecx+edx]
	mulss	xmm1, DWORD PTR _dy$22[ebp]
	addss	xmm0, xmm1
	mov	eax, DWORD PTR _this$[ebp]
	mov	ecx, DWORD PTR [eax+140]
	mov	edx, 12					; 0000000cH
	shl	edx, 1
	lea	eax, DWORD PTR [ecx+edx+296]
	mov	ecx, 4
	imul	ecx, 0
	movss	xmm1, DWORD PTR [eax+ecx]
	mulss	xmm1, DWORD PTR _dz$28[ebp]
	addss	xmm0, xmm1
	movss	DWORD PTR _rx$31[ebp], xmm0

; 264  : 								ry = platform->dmx[0][1]*dx + platform->dmx[1][1]*dy + platform->dmx[2][1]*dz;

	mov	edx, DWORD PTR _this$[ebp]
	mov	eax, DWORD PTR [edx+140]
	mov	ecx, 12					; 0000000cH
	imul	ecx, 0
	lea	edx, DWORD PTR [eax+ecx+296]
	mov	eax, 4
	shl	eax, 0
	movss	xmm0, DWORD PTR [edx+eax]
	mulss	xmm0, DWORD PTR _dx$24[ebp]
	mov	ecx, DWORD PTR _this$[ebp]
	mov	edx, DWORD PTR [ecx+140]
	mov	eax, 12					; 0000000cH
	shl	eax, 0
	lea	ecx, DWORD PTR [edx+eax+296]
	mov	edx, 4
	shl	edx, 0
	movss	xmm1, DWORD PTR [ecx+edx]
	mulss	xmm1, DWORD PTR _dy$22[ebp]
	addss	xmm0, xmm1
	mov	eax, DWORD PTR _this$[ebp]
	mov	ecx, DWORD PTR [eax+140]
	mov	edx, 12					; 0000000cH
	shl	edx, 1
	lea	eax, DWORD PTR [ecx+edx+296]
	mov	ecx, 4
	shl	ecx, 0
	movss	xmm1, DWORD PTR [eax+ecx]
	mulss	xmm1, DWORD PTR _dz$28[ebp]
	addss	xmm0, xmm1
	movss	DWORD PTR _ry$32[ebp], xmm0

; 265  : 								rz = platform->dmx[0][2]*dx + platform->dmx[1][2]*dy + platform->dmx[2][2]*dz;

	mov	edx, DWORD PTR _this$[ebp]
	mov	eax, DWORD PTR [edx+140]
	mov	ecx, 12					; 0000000cH
	imul	ecx, 0
	lea	edx, DWORD PTR [eax+ecx+296]
	mov	eax, 4
	shl	eax, 1
	movss	xmm0, DWORD PTR [edx+eax]
	mulss	xmm0, DWORD PTR _dx$24[ebp]
	mov	ecx, DWORD PTR _this$[ebp]
	mov	edx, DWORD PTR [ecx+140]
	mov	eax, 12					; 0000000cH
	shl	eax, 0
	lea	ecx, DWORD PTR [edx+eax+296]
	mov	edx, 4
	shl	edx, 1
	movss	xmm1, DWORD PTR [ecx+edx]
	mulss	xmm1, DWORD PTR _dy$22[ebp]
	addss	xmm0, xmm1
	mov	eax, DWORD PTR _this$[ebp]
	mov	ecx, DWORD PTR [eax+140]
	mov	edx, 12					; 0000000cH
	shl	edx, 1
	lea	eax, DWORD PTR [ecx+edx+296]
	mov	ecx, 4
	shl	ecx, 1
	movss	xmm1, DWORD PTR [eax+ecx]
	mulss	xmm1, DWORD PTR _dz$28[ebp]
	addss	xmm0, xmm1
	movss	DWORD PTR _rz$10[ebp], xmm0

; 266  : 								
; 267  : 								yaw    = (float)atan2 (ry,rx);

	cvtss2sd xmm0, DWORD PTR _rx$31[ebp]
	sub	esp, 8
	movsd	QWORD PTR [esp], xmm0
	cvtss2sd xmm0, DWORD PTR _ry$32[ebp]
	sub	esp, 8
	movsd	QWORD PTR [esp], xmm0
	call	?checked_atan2@@YANNN@Z			; checked_atan2
	add	esp, 16					; 00000010H
	fstp	DWORD PTR _yaw$13[ebp]

; 268  : 								pitch  =  (float)atan2 (-rz,(float)sqrt(rx*rx+ry*ry+.1f));

	movss	xmm0, DWORD PTR _rx$31[ebp]
	mulss	xmm0, DWORD PTR _rx$31[ebp]
	movss	xmm1, DWORD PTR _ry$32[ebp]
	mulss	xmm1, DWORD PTR _ry$32[ebp]
	addss	xmm0, xmm1
	addss	xmm0, DWORD PTR __real@3dcccccd
	push	ecx
	movss	DWORD PTR [esp], xmm0
	call	?SqrtSSE@@YAMM@Z			; SqrtSSE
	add	esp, -4					; fffffffcH
	fstp	QWORD PTR [esp]
	movss	xmm0, DWORD PTR _rz$10[ebp]
	xorps	xmm0, DWORD PTR __xmm@80000000800000008000000080000000
	cvtss2sd xmm0, xmm0
	sub	esp, 8
	movsd	QWORD PTR [esp], xmm0
	call	?checked_atan2@@YANNN@Z			; checked_atan2
	add	esp, 16					; 00000010H
	fstp	DWORD PTR _pitch$6[ebp]

; 269  : 								//roll   = (float)atan2 (ry,-rz);
; 270  : 								roll = platform->Roll();

	mov	edx, DWORD PTR _this$[ebp]
	mov	ecx, DWORD PTR [edx+140]
	call	?Roll@VuEntity@@QBEMXZ			; VuEntity::Roll
	fstp	DWORD PTR _roll$15[ebp]

; 271  : 								
; 272  : 								MonoPrint("TGP r%.4f %.4f %.4f   ypr%.4f %.4f %.4f",rx,ry,rz,yaw *180/3.14159,pitch*180/3.14159,roll*180/3.14159);

	movss	xmm0, DWORD PTR _roll$15[ebp]
	mulss	xmm0, DWORD PTR __real@43340000
	cvtss2sd xmm0, xmm0
	divsd	xmm0, QWORD PTR __real@400921f9f01b866e
	sub	esp, 8
	movsd	QWORD PTR [esp], xmm0
	movss	xmm0, DWORD PTR _pitch$6[ebp]
	mulss	xmm0, DWORD PTR __real@43340000
	cvtss2sd xmm0, xmm0
	divsd	xmm0, QWORD PTR __real@400921f9f01b866e
	sub	esp, 8
	movsd	QWORD PTR [esp], xmm0
	movss	xmm0, DWORD PTR _yaw$13[ebp]
	mulss	xmm0, DWORD PTR __real@43340000
	cvtss2sd xmm0, xmm0
	divsd	xmm0, QWORD PTR __real@400921f9f01b866e
	sub	esp, 8
	movsd	QWORD PTR [esp], xmm0
	cvtss2sd xmm0, DWORD PTR _rz$10[ebp]
	sub	esp, 8
	movsd	QWORD PTR [esp], xmm0
	cvtss2sd xmm0, DWORD PTR _ry$32[ebp]
	sub	esp, 8
	movsd	QWORD PTR [esp], xmm0
	cvtss2sd xmm0, DWORD PTR _rx$31[ebp]
	sub	esp, 8
	movsd	QWORD PTR [esp], xmm0
	push	OFFSET ??_C@_0CI@MMOOAKBD@TGP?5r?$CF?44f?5?$CF?44f?5?$CF?44f?5?5?5ypr?$CF?44f?5?$CF?4@
	call	_MonoPrint

; 273  : 								targetingPod->SetYPR (yaw, pitch, roll);

	add	esp, 48					; 00000030H
	movss	xmm0, DWORD PTR _roll$15[ebp]
	movss	DWORD PTR [esp], xmm0
	push	ecx
	movss	xmm0, DWORD PTR _pitch$6[ebp]
	movss	DWORD PTR [esp], xmm0
	push	ecx
	movss	xmm0, DWORD PTR _yaw$13[ebp]
	movss	DWORD PTR [esp], xmm0
	mov	ecx, DWORD PTR _targetingPod$[ebp]
	call	?SetYPR@LaserPodClass@@QAEXMMM@Z	; LaserPodClass::SetYPR
$LN94@TargetingP:

; 274  : 						}
; 275  : 						break;
; 276  : 					}
; 277  : 				}
; 278  : 				return;

	jmp	$LN120@TargetingP

; 279  : 				case AirGroundLaser:
; 280  : 					break;

	jmp	SHORT $LN98@TargetingP
$LN90@TargetingP:

; 281  : 				default:
; 282  : 					break;

	jmp	SHORT $LN98@TargetingP

; 283  : 				return;

	jmp	$LN120@TargetingP
$LN98@TargetingP:

; 284  : 			}
; 285  : 
; 286  : 			if (preDesignate)	//not ground stabilized

	mov	eax, DWORD PTR _this$[ebp]
	movsx	ecx, BYTE PTR [eax+182]
	test	ecx, ecx
	je	$LN89@TargetingP

; 287  : 			{
; 288  : 				if (subMode == SLAVE)

	mov	edx, DWORD PTR _this$[ebp]
	cmp	DWORD PTR [edx+148], 15			; 0000000fH
	jne	$LN88@TargetingP

; 289  : 				{
; 290  : 					if (targetPtr && targetPtr->BaseData()->OnGround())

	mov	eax, DWORD PTR _this$[ebp]
	cmp	DWORD PTR [eax+132], 0
	je	$LN87@TargetingP
	mov	ecx, DWORD PTR _this$[ebp]
	mov	ecx, DWORD PTR [ecx+132]
	call	?BaseData@SimObjectType@@QAEPAVFalconEntity@@XZ ; SimObjectType::BaseData
	mov	DWORD PTR tv949[ebp], eax
	mov	edx, DWORD PTR tv949[ebp]
	mov	eax, DWORD PTR [edx]
	mov	ecx, DWORD PTR tv949[ebp]
	mov	edx, DWORD PTR [eax+148]
	call	edx
	test	eax, eax
	je	SHORT $LN87@TargetingP

; 291  : 					{
; 292  : 						groundDesignateX = targetPtr->BaseData()->XPos();

	mov	eax, DWORD PTR _this$[ebp]
	mov	ecx, DWORD PTR [eax+132]
	call	?BaseData@SimObjectType@@QAEPAVFalconEntity@@XZ ; SimObjectType::BaseData
	mov	ecx, eax
	call	?XPos@VuEntity@@QBEMXZ			; VuEntity::XPos
	mov	ecx, DWORD PTR _this$[ebp]
	fstp	DWORD PTR [ecx+376]

; 293  : 						groundDesignateY = targetPtr->BaseData()->YPos();

	mov	edx, DWORD PTR _this$[ebp]
	mov	ecx, DWORD PTR [edx+132]
	call	?BaseData@SimObjectType@@QAEPAVFalconEntity@@XZ ; SimObjectType::BaseData
	mov	ecx, eax
	call	?YPos@VuEntity@@QBEMXZ			; VuEntity::YPos
	mov	eax, DWORD PTR _this$[ebp]
	fstp	DWORD PTR [eax+380]

; 294  : 						groundDesignateZ = targetPtr->BaseData()->ZPos();

	mov	ecx, DWORD PTR _this$[ebp]
	mov	ecx, DWORD PTR [ecx+132]
	call	?BaseData@SimObjectType@@QAEPAVFalconEntity@@XZ ; SimObjectType::BaseData
	mov	ecx, eax
	call	?ZPos@VuEntity@@QBEMXZ			; VuEntity::ZPos
	mov	edx, DWORD PTR _this$[ebp]
	fstp	DWORD PTR [edx+384]
	jmp	$LN83@TargetingP
$LN87@TargetingP:

; 295  : 					}
; 296  : 					else if (theRadar && theRadar->IsAG())

	cmp	DWORD PTR _theRadar$[ebp], 0
	je	SHORT $LN85@TargetingP
	mov	eax, DWORD PTR _theRadar$[ebp]
	mov	edx, DWORD PTR [eax]
	mov	ecx, DWORD PTR _theRadar$[ebp]
	mov	eax, DWORD PTR [edx+188]
	call	eax
	test	eax, eax
	je	SHORT $LN85@TargetingP

; 297  : 					{
; 298  : 						theRadar->GetAGCenter (&groundDesignateX, &groundDesignateY);

	mov	ecx, DWORD PTR _this$[ebp]
	add	ecx, 380				; 0000017cH
	push	ecx
	mov	edx, DWORD PTR _this$[ebp]
	add	edx, 376				; 00000178H
	push	edx
	mov	eax, DWORD PTR _theRadar$[ebp]
	mov	edx, DWORD PTR [eax]
	mov	ecx, DWORD PTR _theRadar$[ebp]
	mov	eax, DWORD PTR [edx+192]
	call	eax

; 299  : 						groundDesignateZ = OTWDriver.GetGroundLevel(groundDesignateX, groundDesignateY);

	push	0
	mov	ecx, DWORD PTR _this$[ebp]
	push	ecx
	movss	xmm0, DWORD PTR [ecx+380]
	movss	DWORD PTR [esp], xmm0
	mov	edx, DWORD PTR _this$[ebp]
	push	ecx
	movss	xmm0, DWORD PTR [edx+376]
	movss	DWORD PTR [esp], xmm0
	mov	ecx, OFFSET ?OTWDriver@@3VOTWDriverClass@@A ; OTWDriver
	call	?GetGroundLevel@OTWDriverClass@@QAEMMMPAUTpoint@@@Z ; OTWDriverClass::GetGroundLevel
	mov	eax, DWORD PTR _this$[ebp]
	fstp	DWORD PTR [eax+384]
	jmp	SHORT $LN83@TargetingP
$LN85@TargetingP:

; 300  : 					}
; 301  : 					else if (curWaypoint)

	cmp	DWORD PTR _curWaypoint$[ebp], 0
	je	SHORT $LN83@TargetingP

; 302  : 					{
; 303  : 						curWaypoint->GetLocation (&groundDesignateX, &groundDesignateY, &groundDesignateZ);

	mov	ecx, DWORD PTR _this$[ebp]
	add	ecx, 384				; 00000180H
	push	ecx
	mov	edx, DWORD PTR _this$[ebp]
	add	edx, 380				; 0000017cH
	push	edx
	mov	eax, DWORD PTR _this$[ebp]
	add	eax, 376				; 00000178H
	push	eax
	mov	ecx, DWORD PTR _curWaypoint$[ebp]
	call	?GetLocation@WayPointClass@@QBEXPAM00@Z	; WayPointClass::GetLocation

; 304  : 						groundDesignateZ = OTWDriver.GetGroundLevel(groundDesignateX, groundDesignateY);

	push	0
	mov	ecx, DWORD PTR _this$[ebp]
	push	ecx
	movss	xmm0, DWORD PTR [ecx+380]
	movss	DWORD PTR [esp], xmm0
	mov	edx, DWORD PTR _this$[ebp]
	push	ecx
	movss	xmm0, DWORD PTR [edx+376]
	movss	DWORD PTR [esp], xmm0
	mov	ecx, OFFSET ?OTWDriver@@3VOTWDriverClass@@A ; OTWDriver
	call	?GetGroundLevel@OTWDriverClass@@QAEMMMPAUTpoint@@@Z ; OTWDriverClass::GetGroundLevel
	mov	eax, DWORD PTR _this$[ebp]
	fstp	DWORD PTR [eax+384]
$LN83@TargetingP:

; 305  : 					}
; 306  : 					else
; 307  : 					{
; 308  : 						ShiWarning( "Warning:  Junk data for slave mode" );
; 309  : 					}
; 310  : 					
; 311  : 					targetingPod->SetTargetPosition (groundDesignateX, groundDesignateY, groundDesignateZ);

	mov	ecx, DWORD PTR _this$[ebp]
	push	ecx
	movss	xmm0, DWORD PTR [ecx+384]
	movss	DWORD PTR [esp], xmm0
	mov	edx, DWORD PTR _this$[ebp]
	push	ecx
	movss	xmm0, DWORD PTR [edx+380]
	movss	DWORD PTR [esp], xmm0
	mov	eax, DWORD PTR _this$[ebp]
	push	ecx
	movss	xmm0, DWORD PTR [eax+376]
	movss	DWORD PTR [esp], xmm0
	mov	ecx, DWORD PTR _targetingPod$[ebp]
	call	?SetTargetPosition@LaserPodClass@@QAEXMMM@Z ; LaserPodClass::SetTargetPosition

; 312  : 					
; 313  : 					dx = groundDesignateX - platform->XPos();

	mov	ecx, DWORD PTR _this$[ebp]
	mov	ecx, DWORD PTR [ecx+140]
	call	?XPos@VuEntity@@QBEMXZ			; VuEntity::XPos
	fstp	DWORD PTR tv3040[ebp]
	mov	edx, DWORD PTR _this$[ebp]
	movss	xmm0, DWORD PTR [edx+376]
	subss	xmm0, DWORD PTR tv3040[ebp]
	movss	DWORD PTR _dx$[ebp], xmm0

; 314  : 					dy = groundDesignateY - platform->YPos();

	mov	eax, DWORD PTR _this$[ebp]
	mov	ecx, DWORD PTR [eax+140]
	call	?YPos@VuEntity@@QBEMXZ			; VuEntity::YPos
	fstp	DWORD PTR tv3047[ebp]
	mov	ecx, DWORD PTR _this$[ebp]
	movss	xmm0, DWORD PTR [ecx+380]
	subss	xmm0, DWORD PTR tv3047[ebp]
	movss	DWORD PTR _dy$[ebp], xmm0

; 315  : 					dz = groundDesignateZ - platform->ZPos();

	mov	edx, DWORD PTR _this$[ebp]
	mov	ecx, DWORD PTR [edx+140]
	call	?ZPos@VuEntity@@QBEMXZ			; VuEntity::ZPos
	fstp	DWORD PTR tv3054[ebp]
	mov	eax, DWORD PTR _this$[ebp]
	movss	xmm0, DWORD PTR [eax+384]
	subss	xmm0, DWORD PTR tv3054[ebp]
	movss	DWORD PTR _dz$[ebp], xmm0

; 316  : 					
; 317  : 					rx = platform->dmx[0][0]*dx + platform->dmx[0][1]*dy + platform->dmx[0][2]*dz;

	mov	ecx, DWORD PTR _this$[ebp]
	mov	edx, DWORD PTR [ecx+140]
	mov	eax, 12					; 0000000cH
	imul	eax, 0
	lea	ecx, DWORD PTR [edx+eax+296]
	mov	edx, 4
	imul	edx, 0
	movss	xmm0, DWORD PTR [ecx+edx]
	mulss	xmm0, DWORD PTR _dx$[ebp]
	mov	eax, DWORD PTR _this$[ebp]
	mov	ecx, DWORD PTR [eax+140]
	mov	edx, 12					; 0000000cH
	imul	edx, 0
	lea	eax, DWORD PTR [ecx+edx+296]
	mov	ecx, 4
	shl	ecx, 0
	movss	xmm1, DWORD PTR [eax+ecx]
	mulss	xmm1, DWORD PTR _dy$[ebp]
	addss	xmm0, xmm1
	mov	edx, DWORD PTR _this$[ebp]
	mov	eax, DWORD PTR [edx+140]
	mov	ecx, 12					; 0000000cH
	imul	ecx, 0
	lea	edx, DWORD PTR [eax+ecx+296]
	mov	eax, 4
	shl	eax, 1
	movss	xmm1, DWORD PTR [edx+eax]
	mulss	xmm1, DWORD PTR _dz$[ebp]
	addss	xmm0, xmm1
	movss	DWORD PTR _rx$[ebp], xmm0

; 318  : 					ry = platform->dmx[1][0]*dx + platform->dmx[1][1]*dy + platform->dmx[1][2]*dz;

	mov	ecx, DWORD PTR _this$[ebp]
	mov	edx, DWORD PTR [ecx+140]
	mov	eax, 12					; 0000000cH
	shl	eax, 0
	lea	ecx, DWORD PTR [edx+eax+296]
	mov	edx, 4
	imul	edx, 0
	movss	xmm0, DWORD PTR [ecx+edx]
	mulss	xmm0, DWORD PTR _dx$[ebp]
	mov	eax, DWORD PTR _this$[ebp]
	mov	ecx, DWORD PTR [eax+140]
	mov	edx, 12					; 0000000cH
	shl	edx, 0
	lea	eax, DWORD PTR [ecx+edx+296]
	mov	ecx, 4
	shl	ecx, 0
	movss	xmm1, DWORD PTR [eax+ecx]
	mulss	xmm1, DWORD PTR _dy$[ebp]
	addss	xmm0, xmm1
	mov	edx, DWORD PTR _this$[ebp]
	mov	eax, DWORD PTR [edx+140]
	mov	ecx, 12					; 0000000cH
	shl	ecx, 0
	lea	edx, DWORD PTR [eax+ecx+296]
	mov	eax, 4
	shl	eax, 1
	movss	xmm1, DWORD PTR [edx+eax]
	mulss	xmm1, DWORD PTR _dz$[ebp]
	addss	xmm0, xmm1
	movss	DWORD PTR _ry$[ebp], xmm0

; 319  : 					rz = platform->dmx[2][0]*dx + platform->dmx[2][1]*dy + platform->dmx[2][2]*dz;

	mov	ecx, DWORD PTR _this$[ebp]
	mov	edx, DWORD PTR [ecx+140]
	mov	eax, 12					; 0000000cH
	shl	eax, 1
	lea	ecx, DWORD PTR [edx+eax+296]
	mov	edx, 4
	imul	edx, 0
	movss	xmm0, DWORD PTR [ecx+edx]
	mulss	xmm0, DWORD PTR _dx$[ebp]
	mov	eax, DWORD PTR _this$[ebp]
	mov	ecx, DWORD PTR [eax+140]
	mov	edx, 12					; 0000000cH
	shl	edx, 1
	lea	eax, DWORD PTR [ecx+edx+296]
	mov	ecx, 4
	shl	ecx, 0
	movss	xmm1, DWORD PTR [eax+ecx]
	mulss	xmm1, DWORD PTR _dy$[ebp]
	addss	xmm0, xmm1
	mov	edx, DWORD PTR _this$[ebp]
	mov	eax, DWORD PTR [edx+140]
	mov	ecx, 12					; 0000000cH
	shl	ecx, 1
	lea	edx, DWORD PTR [eax+ecx+296]
	mov	eax, 4
	shl	eax, 1
	movss	xmm1, DWORD PTR [edx+eax]
	mulss	xmm1, DWORD PTR _dz$[ebp]
	addss	xmm0, xmm1
	movss	DWORD PTR _rz$[ebp], xmm0

; 320  : 					
; 321  : 					groundDesignateAz    = (float)atan2 (ry,rx);

	cvtss2sd xmm0, DWORD PTR _rx$[ebp]
	sub	esp, 8
	movsd	QWORD PTR [esp], xmm0
	cvtss2sd xmm0, DWORD PTR _ry$[ebp]
	sub	esp, 8
	movsd	QWORD PTR [esp], xmm0
	call	?checked_atan2@@YANNN@Z			; checked_atan2
	add	esp, 16					; 00000010H
	mov	ecx, DWORD PTR _this$[ebp]
	fstp	DWORD PTR [ecx+364]

; 322  : 					groundDesignateEl    = (float)atan (-rz/(float)sqrt(rx*rx+ry*ry+.1f));

	movss	xmm0, DWORD PTR _rz$[ebp]
	xorps	xmm0, DWORD PTR __xmm@80000000800000008000000080000000
	movss	xmm1, DWORD PTR _rx$[ebp]
	mulss	xmm1, DWORD PTR _rx$[ebp]
	movss	xmm2, DWORD PTR _ry$[ebp]
	mulss	xmm2, DWORD PTR _ry$[ebp]
	addss	xmm1, xmm2
	addss	xmm1, DWORD PTR __real@3dcccccd
	push	ecx
	movss	DWORD PTR [esp], xmm1
	movss	DWORD PTR tv3889[ebp], xmm0
	call	?SqrtSSE@@YAMM@Z			; SqrtSSE
	add	esp, 4
	fstp	DWORD PTR tv3106[ebp]
	movss	xmm0, DWORD PTR tv3889[ebp]
	divss	xmm0, DWORD PTR tv3106[ebp]
	push	ecx
	movss	DWORD PTR [esp], xmm0
	call	?atan@@YAMM@Z				; atan
	add	esp, 4
	mov	edx, DWORD PTR _this$[ebp]
	fstp	DWORD PTR [edx+368]

; 323  : 					groundDesignateDroll = (float)atan2 (ry,-rz);

	movss	xmm0, DWORD PTR _rz$[ebp]
	xorps	xmm0, DWORD PTR __xmm@80000000800000008000000080000000
	cvtss2sd xmm0, xmm0
	sub	esp, 8
	movsd	QWORD PTR [esp], xmm0
	cvtss2sd xmm0, DWORD PTR _ry$[ebp]
	sub	esp, 8
	movsd	QWORD PTR [esp], xmm0
	call	?checked_atan2@@YANNN@Z			; checked_atan2
	add	esp, 16					; 00000010H
	mov	eax, DWORD PTR _this$[ebp]
	fstp	DWORD PTR [eax+372]

; 324  : 					yaw = groundDesignateAz;

	mov	ecx, DWORD PTR _this$[ebp]
	mov	edx, DWORD PTR _this$[ebp]
	mov	eax, DWORD PTR [edx+364]
	mov	DWORD PTR [ecx+448], eax

; 325  : 					pitch = groundDesignateEl;

	mov	ecx, DWORD PTR _this$[ebp]
	mov	edx, DWORD PTR _this$[ebp]
	mov	eax, DWORD PTR [edx+368]
	mov	DWORD PTR [ecx+440], eax

; 326  : 					isLimited = targetingPod->SetDesiredSeekerPos (&yaw, &pitch);

	mov	ecx, DWORD PTR _this$[ebp]
	add	ecx, 440				; 000001b8H
	push	ecx
	mov	edx, DWORD PTR _this$[ebp]
	add	edx, 448				; 000001c0H
	push	edx
	mov	ecx, DWORD PTR _targetingPod$[ebp]
	call	?SetDesiredSeekerPos@LaserPodClass@@QAEHPAM0@Z ; LaserPodClass::SetDesiredSeekerPos
	mov	DWORD PTR _isLimited$[ebp], eax

; 327  : 					
; 328  : 					yaw   = (float)atan2 (dy,dx);

	cvtss2sd xmm0, DWORD PTR _dx$[ebp]
	sub	esp, 8
	movsd	QWORD PTR [esp], xmm0
	cvtss2sd xmm0, DWORD PTR _dy$[ebp]
	sub	esp, 8
	movsd	QWORD PTR [esp], xmm0
	call	?checked_atan2@@YANNN@Z			; checked_atan2
	add	esp, 16					; 00000010H
	mov	eax, DWORD PTR _this$[ebp]
	fstp	DWORD PTR [eax+448]

; 329  : 					pitch = (float)atan (-dz/(float)sqrt(dx*dx+dy*dy+.1f));

	movss	xmm0, DWORD PTR _dz$[ebp]
	xorps	xmm0, DWORD PTR __xmm@80000000800000008000000080000000
	movss	xmm1, DWORD PTR _dx$[ebp]
	mulss	xmm1, DWORD PTR _dx$[ebp]
	movss	xmm2, DWORD PTR _dy$[ebp]
	mulss	xmm2, DWORD PTR _dy$[ebp]
	addss	xmm1, xmm2
	addss	xmm1, DWORD PTR __real@3dcccccd
	push	ecx
	movss	DWORD PTR [esp], xmm1
	movss	DWORD PTR tv3891[ebp], xmm0
	call	?SqrtSSE@@YAMM@Z			; SqrtSSE
	add	esp, 4
	fstp	DWORD PTR tv3140[ebp]
	movss	xmm0, DWORD PTR tv3891[ebp]
	divss	xmm0, DWORD PTR tv3140[ebp]
	push	ecx
	movss	DWORD PTR [esp], xmm0
	call	?atan@@YAMM@Z				; atan
	add	esp, 4
	mov	ecx, DWORD PTR _this$[ebp]
	fstp	DWORD PTR [ecx+440]

; 330  : 					roll  = platform->Roll();

	mov	edx, DWORD PTR _this$[ebp]
	mov	ecx, DWORD PTR [edx+140]
	call	?Roll@VuEntity@@QBEMXZ			; VuEntity::Roll
	mov	eax, DWORD PTR _this$[ebp]
	fstp	DWORD PTR [eax+444]

; 331  : 					
; 332  : 					targetingPod->SetYPR (yaw, pitch, roll);

	mov	ecx, DWORD PTR _this$[ebp]
	push	ecx
	movss	xmm0, DWORD PTR [ecx+444]
	movss	DWORD PTR [esp], xmm0
	mov	edx, DWORD PTR _this$[ebp]
	push	ecx
	movss	xmm0, DWORD PTR [edx+440]
	movss	DWORD PTR [esp], xmm0
	mov	eax, DWORD PTR _this$[ebp]
	push	ecx
	movss	xmm0, DWORD PTR [eax+448]
	movss	DWORD PTR [esp], xmm0
	mov	ecx, DWORD PTR _targetingPod$[ebp]
	call	?SetYPR@LaserPodClass@@QAEXMMM@Z	; LaserPodClass::SetYPR

; 333  : 					inRange = FALSE;

	mov	ecx, DWORD PTR _this$[ebp]
	mov	DWORD PTR [ecx+216], 0

; 334  : 					if (designateCmd && !lastDesignate)

	mov	edx, DWORD PTR _this$[ebp]
	movsx	eax, BYTE PTR [edx+184]
	test	eax, eax
	je	$LN81@TargetingP
	mov	ecx, DWORD PTR _this$[ebp]
	cmp	DWORD PTR [ecx+96], 0
	jne	SHORT $LN81@TargetingP

; 335  : 					{
; 336  : 						preDesignate = FALSE;

	mov	edx, DWORD PTR _this$[ebp]
	mov	BYTE PTR [edx+182], 0

; 337  : 						inRange = TRUE;

	mov	eax, DWORD PTR _this$[ebp]
	mov	DWORD PTR [eax+216], 1

; 338  : 						platform->SOIManager (SimVehicleClass::SOI_WEAPON);

	push	2
	mov	ecx, DWORD PTR _this$[ebp]
	mov	ecx, DWORD PTR [ecx+140]
	call	?SOIManager@SimVehicleClass@@QAEXW4SOI@1@@Z ; SimVehicleClass::SOIManager

; 339  : 						targetingPod->SetTargetPosition (groundDesignateX, groundDesignateY, groundDesignateZ);

	mov	edx, DWORD PTR _this$[ebp]
	push	ecx
	movss	xmm0, DWORD PTR [edx+384]
	movss	DWORD PTR [esp], xmm0
	mov	eax, DWORD PTR _this$[ebp]
	push	ecx
	movss	xmm0, DWORD PTR [eax+380]
	movss	DWORD PTR [esp], xmm0
	mov	ecx, DWORD PTR _this$[ebp]
	push	ecx
	movss	xmm0, DWORD PTR [ecx+376]
	movss	DWORD PTR [esp], xmm0
	mov	ecx, DWORD PTR _targetingPod$[ebp]
	call	?SetTargetPosition@LaserPodClass@@QAEXMMM@Z ; LaserPodClass::SetTargetPosition

; 340  : 						//MI fix
; 341  : 						targetingPod->SetDesiredSeekerPos(&yaw, &pitch);

	mov	edx, DWORD PTR _this$[ebp]
	add	edx, 440				; 000001b8H
	push	edx
	mov	eax, DWORD PTR _this$[ebp]
	add	eax, 448				; 000001c0H
	push	eax
	mov	ecx, DWORD PTR _targetingPod$[ebp]
	call	?SetDesiredSeekerPos@LaserPodClass@@QAEHPAM0@Z ; LaserPodClass::SetDesiredSeekerPos
$LN81@TargetingP:

; 342  : 					}
; 343  : 				}
; 344  : 				else

	jmp	$LN77@TargetingP
$LN88@TargetingP:

; 345  : 				{
; 346  : 					yaw   = 0.0F;

	mov	ecx, DWORD PTR _this$[ebp]
	movss	xmm0, DWORD PTR __real@00000000
	movss	DWORD PTR [ecx+448], xmm0

; 347  : 					pitch = 0.0F;

	mov	edx, DWORD PTR _this$[ebp]
	movss	xmm0, DWORD PTR __real@00000000
	movss	DWORD PTR [edx+440], xmm0

; 348  : 					isLimited = targetingPod->SetDesiredSeekerPos (&yaw, &pitch);

	mov	eax, DWORD PTR _this$[ebp]
	add	eax, 440				; 000001b8H
	push	eax
	mov	ecx, DWORD PTR _this$[ebp]
	add	ecx, 448				; 000001c0H
	push	ecx
	mov	ecx, DWORD PTR _targetingPod$[ebp]
	call	?SetDesiredSeekerPos@LaserPodClass@@QAEHPAM0@Z ; LaserPodClass::SetDesiredSeekerPos
	mov	DWORD PTR _isLimited$[ebp], eax

; 349  : 					yaw   = platform->Yaw();

	mov	edx, DWORD PTR _this$[ebp]
	mov	ecx, DWORD PTR [edx+140]
	call	?Yaw@VuEntity@@QBEMXZ			; VuEntity::Yaw
	mov	eax, DWORD PTR _this$[ebp]
	fstp	DWORD PTR [eax+448]

; 350  : 					pitch = platform->Pitch();

	mov	ecx, DWORD PTR _this$[ebp]
	mov	ecx, DWORD PTR [ecx+140]
	call	?Pitch@VuEntity@@QBEMXZ			; VuEntity::Pitch
	mov	edx, DWORD PTR _this$[ebp]
	fstp	DWORD PTR [edx+440]

; 351  : 					roll  = platform->Roll();

	mov	eax, DWORD PTR _this$[ebp]
	mov	ecx, DWORD PTR [eax+140]
	call	?Roll@VuEntity@@QBEMXZ			; VuEntity::Roll
	mov	ecx, DWORD PTR _this$[ebp]
	fstp	DWORD PTR [ecx+444]

; 352  : 					mlSinCos (&trig, roll);

	mov	edx, DWORD PTR _this$[ebp]
	push	ecx
	movss	xmm0, DWORD PTR [edx+444]
	movss	DWORD PTR [esp], xmm0
	lea	eax, DWORD PTR _trig$[ebp]
	push	eax
	call	?mlSinCos@@YAXPAUmlTrig@@M@Z		; mlSinCos
	add	esp, 8

; 353  : 					groundDesignateAz = -cockpitFlightData.beta*DTR + cockpitFlightData.windOffset*platform->platformAngles.cosphi;

	movss	xmm0, DWORD PTR ?cockpitFlightData@@3VFlightData@@A+28
	xorps	xmm0, DWORD PTR __xmm@80000000800000008000000080000000
	mulss	xmm0, DWORD PTR __real@3c8efa34
	mov	ecx, DWORD PTR _this$[ebp]
	mov	edx, DWORD PTR [ecx+140]
	movss	xmm1, DWORD PTR ?cockpitFlightData@@3VFlightData@@A+64
	mulss	xmm1, DWORD PTR [edx+400]
	addss	xmm0, xmm1
	mov	eax, DWORD PTR _this$[ebp]
	movss	DWORD PTR [eax+364], xmm0

; 354  : 					groundDesignateEl = -cockpitFlightData.alpha*DTR + cockpitFlightData.windOffset*platform->platformAngles.sinphi;

	movss	xmm0, DWORD PTR ?cockpitFlightData@@3VFlightData@@A+24
	xorps	xmm0, DWORD PTR __xmm@80000000800000008000000080000000
	mulss	xmm0, DWORD PTR __real@3c8efa34
	mov	ecx, DWORD PTR _this$[ebp]
	mov	edx, DWORD PTR [ecx+140]
	movss	xmm1, DWORD PTR ?cockpitFlightData@@3VFlightData@@A+64
	mulss	xmm1, DWORD PTR [edx+396]
	addss	xmm0, xmm1
	mov	eax, DWORD PTR _this$[ebp]
	movss	DWORD PTR [eax+368], xmm0

; 355  : 					pitch += groundDesignateEl * trig.cos - groundDesignateAz * trig.sin;

	mov	ecx, DWORD PTR _this$[ebp]
	movss	xmm0, DWORD PTR [ecx+368]
	mulss	xmm0, DWORD PTR _trig$[ebp+4]
	mov	edx, DWORD PTR _this$[ebp]
	movss	xmm1, DWORD PTR [edx+364]
	mulss	xmm1, DWORD PTR _trig$[ebp]
	subss	xmm0, xmm1
	mov	eax, DWORD PTR _this$[ebp]
	addss	xmm0, DWORD PTR [eax+440]
	mov	ecx, DWORD PTR _this$[ebp]
	movss	DWORD PTR [ecx+440], xmm0

; 356  : 					yaw += groundDesignateEl * trig.sin + groundDesignateAz * trig.cos;

	mov	edx, DWORD PTR _this$[ebp]
	movss	xmm0, DWORD PTR [edx+368]
	mulss	xmm0, DWORD PTR _trig$[ebp]
	mov	eax, DWORD PTR _this$[ebp]
	movss	xmm1, DWORD PTR [eax+364]
	mulss	xmm1, DWORD PTR _trig$[ebp+4]
	addss	xmm0, xmm1
	mov	ecx, DWORD PTR _this$[ebp]
	addss	xmm0, DWORD PTR [ecx+448]
	mov	edx, DWORD PTR _this$[ebp]
	movss	DWORD PTR [edx+448], xmm0

; 357  : 					
; 358  : 					targetingPod->SetYPR (yaw, pitch, roll);

	mov	eax, DWORD PTR _this$[ebp]
	push	ecx
	movss	xmm0, DWORD PTR [eax+444]
	movss	DWORD PTR [esp], xmm0
	mov	ecx, DWORD PTR _this$[ebp]
	push	ecx
	movss	xmm0, DWORD PTR [ecx+440]
	movss	DWORD PTR [esp], xmm0
	mov	edx, DWORD PTR _this$[ebp]
	push	ecx
	movss	xmm0, DWORD PTR [edx+448]
	movss	DWORD PTR [esp], xmm0
	mov	ecx, DWORD PTR _targetingPod$[ebp]
	call	?SetYPR@LaserPodClass@@QAEXMMM@Z	; LaserPodClass::SetYPR

; 359  : 					inRange = FALSE;

	mov	eax, DWORD PTR _this$[ebp]
	mov	DWORD PTR [eax+216], 0

; 360  : 					if (FindGroundIntersection (pitch, yaw, &tmpX, &tmpY, &tmpZ))

	lea	ecx, DWORD PTR _tmpZ$[ebp]
	push	ecx
	lea	edx, DWORD PTR _tmpY$[ebp]
	push	edx
	lea	eax, DWORD PTR _tmpX$[ebp]
	push	eax
	mov	ecx, DWORD PTR _this$[ebp]
	push	ecx
	movss	xmm0, DWORD PTR [ecx+448]
	movss	DWORD PTR [esp], xmm0
	mov	edx, DWORD PTR _this$[ebp]
	push	ecx
	movss	xmm0, DWORD PTR [edx+440]
	movss	DWORD PTR [esp], xmm0
	mov	ecx, DWORD PTR _this$[ebp]
	call	?FindGroundIntersection@FireControlComputer@@AAEHMMPAM00@Z ; FireControlComputer::FindGroundIntersection
	test	eax, eax
	je	$LN79@TargetingP

; 361  : 					{
; 362  : 						groundDesignateX = tmpX;

	mov	eax, DWORD PTR _this$[ebp]
	movss	xmm0, DWORD PTR _tmpX$[ebp]
	movss	DWORD PTR [eax+376], xmm0

; 363  : 						groundDesignateY = tmpY;

	mov	ecx, DWORD PTR _this$[ebp]
	movss	xmm0, DWORD PTR _tmpY$[ebp]
	movss	DWORD PTR [ecx+380], xmm0

; 364  : 						groundDesignateZ = tmpZ;

	mov	edx, DWORD PTR _this$[ebp]
	movss	xmm0, DWORD PTR _tmpZ$[ebp]
	movss	DWORD PTR [edx+384], xmm0

; 365  : 						// Must be looking at the ground to designate
; 366  : 						if (designateCmd && !lastDesignate)

	mov	eax, DWORD PTR _this$[ebp]
	movsx	ecx, BYTE PTR [eax+184]
	test	ecx, ecx
	je	SHORT $LN78@TargetingP
	mov	edx, DWORD PTR _this$[ebp]
	cmp	DWORD PTR [edx+96], 0
	jne	SHORT $LN78@TargetingP

; 367  : 						{
; 368  : 							preDesignate = FALSE;

	mov	eax, DWORD PTR _this$[ebp]
	mov	BYTE PTR [eax+182], 0

; 369  : 							inRange = TRUE;

	mov	ecx, DWORD PTR _this$[ebp]
	mov	DWORD PTR [ecx+216], 1

; 370  : 							platform->SOIManager (SimVehicleClass::SOI_WEAPON);

	push	2
	mov	edx, DWORD PTR _this$[ebp]
	mov	ecx, DWORD PTR [edx+140]
	call	?SOIManager@SimVehicleClass@@QAEXW4SOI@1@@Z ; SimVehicleClass::SOIManager

; 371  : 							targetingPod->SetTargetPosition (groundDesignateX, groundDesignateY, groundDesignateZ);

	mov	eax, DWORD PTR _this$[ebp]
	push	ecx
	movss	xmm0, DWORD PTR [eax+384]
	movss	DWORD PTR [esp], xmm0
	mov	ecx, DWORD PTR _this$[ebp]
	push	ecx
	movss	xmm0, DWORD PTR [ecx+380]
	movss	DWORD PTR [esp], xmm0
	mov	edx, DWORD PTR _this$[ebp]
	push	ecx
	movss	xmm0, DWORD PTR [edx+376]
	movss	DWORD PTR [esp], xmm0
	mov	ecx, DWORD PTR _targetingPod$[ebp]
	call	?SetTargetPosition@LaserPodClass@@QAEXMMM@Z ; LaserPodClass::SetTargetPosition
$LN78@TargetingP:

; 372  : 						}
; 373  : 					}
; 374  : 					else

	jmp	SHORT $LN77@TargetingP
$LN79@TargetingP:

; 375  : 					{
; 376  : 						onGround = FALSE;

	mov	DWORD PTR _onGround$[ebp], 0
$LN77@TargetingP:

; 377  : 					}
; 378  : 				}
; 379  : 			}
; 380  : 			else	//predesignate (ground stabilized)

	jmp	$LN76@TargetingP
$LN89@TargetingP:

; 381  : 			{
; 382  : 				float xMove = 0.0F, yMove = 0.0F;

	movss	xmm0, DWORD PTR __real@00000000
	movss	DWORD PTR _xMove$41[ebp], xmm0
	movss	xmm0, DWORD PTR __real@00000000
	movss	DWORD PTR _yMove$40[ebp], xmm0

; 383  : 				if ((cursorXCmd != 0) || (cursorYCmd != 0))

	mov	eax, DWORD PTR _this$[ebp]
	cmp	DWORD PTR [eax+196], 0
	jne	SHORT $LN74@TargetingP
	mov	ecx, DWORD PTR _this$[ebp]
	cmp	DWORD PTR [ecx+200], 0
	je	SHORT $LN72@TargetingP
$LN74@TargetingP:

; 384  : 				{
; 385  : 					if ((IO.AnalogIsUsed(AXIS_CURSOR_X) == true) && (IO.AnalogIsUsed(AXIS_CURSOR_Y) == true))

	push	11					; 0000000bH
	mov	ecx, OFFSET ?IO@@3VSIMLIB_IO_CLASS@@A	; IO
	call	?AnalogIsUsed@SIMLIB_IO_CLASS@@QAE_NW4GameAxis_t@@@Z ; SIMLIB_IO_CLASS::AnalogIsUsed
	movzx	edx, al
	cmp	edx, 1
	jne	SHORT $LN73@TargetingP
	push	12					; 0000000cH
	mov	ecx, OFFSET ?IO@@3VSIMLIB_IO_CLASS@@A	; IO
	call	?AnalogIsUsed@SIMLIB_IO_CLASS@@QAE_NW4GameAxis_t@@@Z ; SIMLIB_IO_CLASS::AnalogIsUsed
	movzx	eax, al
	cmp	eax, 1
	jne	SHORT $LN73@TargetingP

; 386  : 					{
; 387  : 						yMove = (float)cursorYCmd / 10000.0F;

	mov	ecx, DWORD PTR _this$[ebp]
	cvtsi2ss xmm0, DWORD PTR [ecx+200]
	divss	xmm0, DWORD PTR __real@461c4000
	movss	DWORD PTR _yMove$40[ebp], xmm0

; 388  : 						xMove = (float)cursorXCmd / 10000.0F;

	mov	edx, DWORD PTR _this$[ebp]
	cvtsi2ss xmm0, DWORD PTR [edx+196]
	divss	xmm0, DWORD PTR __real@461c4000
	movss	DWORD PTR _xMove$41[ebp], xmm0

; 389  : 					}
; 390  : 					else

	jmp	SHORT $LN72@TargetingP
$LN73@TargetingP:

; 391  : 					{
; 392  : 						yMove = (float)cursorYCmd;

	mov	eax, DWORD PTR _this$[ebp]
	cvtsi2ss xmm0, DWORD PTR [eax+200]
	movss	DWORD PTR _yMove$40[ebp], xmm0

; 393  : 						xMove = (float)cursorXCmd;

	mov	ecx, DWORD PTR _this$[ebp]
	cvtsi2ss xmm0, DWORD PTR [ecx+196]
	movss	DWORD PTR _xMove$41[ebp], xmm0
$LN72@TargetingP:

; 394  : 					}
; 395  : 				}
; 396  : 
; 397  : 				if (((cursorXCmd != 0) || (cursorYCmd != 0)) && !targetingPod->IsLocked())

	mov	edx, DWORD PTR _this$[ebp]
	cmp	DWORD PTR [edx+196], 0
	jne	SHORT $LN70@TargetingP
	mov	eax, DWORD PTR _this$[ebp]
	cmp	DWORD PTR [eax+200], 0
	je	$LN58@TargetingP
$LN70@TargetingP:
	mov	ecx, DWORD PTR _targetingPod$[ebp]
	call	?IsLocked@LaserPodClass@@QAEHXZ		; LaserPodClass::IsLocked
	test	eax, eax
	jne	$LN58@TargetingP

; 398  : 				{
; 399  : 					if (g_bLgbFixes) // a.s. 26.Febr.2002. begin: New Code for slewing LGBs. With this code, not the angles are altered, but

	movzx	ecx, BYTE PTR ?g_bLgbFixes@@3_NA	; g_bLgbFixes
	test	ecx, ecx
	je	$LN69@TargetingP

; 400  : 						// directly the designated point. A non-orthogonal rotation of the co-ordinate system is necessary 	
; 401  : 					{
; 402  : 						
; 403  : 						float deltaX = 0.0F, deltaY = 0.0F;

	movss	xmm0, DWORD PTR __real@00000000
	movss	DWORD PTR _deltaX$38[ebp], xmm0
	movss	xmm0, DWORD PTR __real@00000000
	movss	DWORD PTR _deltaY$37[ebp], xmm0

; 404  : 						float theta = 0.0F, costheta = 0.0F, sintheta = 0.0F;

	movss	xmm0, DWORD PTR __real@00000000
	movss	DWORD PTR _theta$27[ebp], xmm0
	movss	xmm0, DWORD PTR __real@00000000
	movss	DWORD PTR _costheta$18[ebp], xmm0
	movss	xmm0, DWORD PTR __real@00000000
	movss	DWORD PTR _sintheta$14[ebp], xmm0

; 405  : 						float phi = 0.0F, cosphi = 0.0F, sinphi = 0.0F;

	movss	xmm0, DWORD PTR __real@00000000
	movss	DWORD PTR _phi$25[ebp], xmm0
	movss	xmm0, DWORD PTR __real@00000000
	movss	DWORD PTR _cosphi$16[ebp], xmm0
	movss	xmm0, DWORD PTR __real@00000000
	movss	DWORD PTR _sinphi$12[ebp], xmm0

; 406  : 						float alpha = 0, cosalpha, sensoryaw = 0.0F;

	movss	xmm0, DWORD PTR __real@00000000
	movss	DWORD PTR _alpha$23[ebp], xmm0
	movss	xmm0, DWORD PTR __real@00000000
	movss	DWORD PTR _sensoryaw$20[ebp], xmm0

; 407  : 						float groundrange, range;
; 408  : 						float pi = 3.1415926535898F;

	movss	xmm0, DWORD PTR __real@40490fdb
	movss	DWORD PTR _pi$19[ebp], xmm0

; 409  : 						
; 410  : 						
; 411  : 						dx = groundDesignateX - platform->XPos();

	mov	edx, DWORD PTR _this$[ebp]
	mov	ecx, DWORD PTR [edx+140]
	call	?XPos@VuEntity@@QBEMXZ			; VuEntity::XPos
	fstp	DWORD PTR tv3288[ebp]
	mov	eax, DWORD PTR _this$[ebp]
	movss	xmm0, DWORD PTR [eax+376]
	subss	xmm0, DWORD PTR tv3288[ebp]
	movss	DWORD PTR _dx$[ebp], xmm0

; 412  : 						dy = groundDesignateY - platform->YPos();

	mov	ecx, DWORD PTR _this$[ebp]
	mov	ecx, DWORD PTR [ecx+140]
	call	?YPos@VuEntity@@QBEMXZ			; VuEntity::YPos
	fstp	DWORD PTR tv3295[ebp]
	mov	edx, DWORD PTR _this$[ebp]
	movss	xmm0, DWORD PTR [edx+380]
	subss	xmm0, DWORD PTR tv3295[ebp]
	movss	DWORD PTR _dy$[ebp], xmm0

; 413  : 						dz = groundDesignateZ - platform->ZPos();

	mov	eax, DWORD PTR _this$[ebp]
	mov	ecx, DWORD PTR [eax+140]
	call	?ZPos@VuEntity@@QBEMXZ			; VuEntity::ZPos
	fstp	DWORD PTR tv3302[ebp]
	mov	ecx, DWORD PTR _this$[ebp]
	movss	xmm0, DWORD PTR [ecx+384]
	subss	xmm0, DWORD PTR tv3302[ebp]
	movss	DWORD PTR _dz$[ebp], xmm0

; 414  : 						
; 415  : 						groundrange = (float) sqrt ( dx*dx + dy*dy + 0.01F);

	movss	xmm0, DWORD PTR _dx$[ebp]
	mulss	xmm0, DWORD PTR _dx$[ebp]
	movss	xmm1, DWORD PTR _dy$[ebp]
	mulss	xmm1, DWORD PTR _dy$[ebp]
	addss	xmm0, xmm1
	addss	xmm0, DWORD PTR __real@3c23d70a
	push	ecx
	movss	DWORD PTR [esp], xmm0
	call	?SqrtSSE@@YAMM@Z			; SqrtSSE
	add	esp, 4
	fstp	DWORD PTR _groundrange$4[ebp]

; 416  : 						range = (float) sqrt ( dx*dx + dy*dy + dz*dz + 0.01F);

	movss	xmm0, DWORD PTR _dx$[ebp]
	mulss	xmm0, DWORD PTR _dx$[ebp]
	movss	xmm1, DWORD PTR _dy$[ebp]
	mulss	xmm1, DWORD PTR _dy$[ebp]
	addss	xmm0, xmm1
	movss	xmm1, DWORD PTR _dz$[ebp]
	mulss	xmm1, DWORD PTR _dz$[ebp]
	addss	xmm0, xmm1
	addss	xmm0, DWORD PTR __real@3c23d70a
	push	ecx
	movss	DWORD PTR [esp], xmm0
	call	?SqrtSSE@@YAMM@Z			; SqrtSSE
	add	esp, 4
	fstp	DWORD PTR _range$34[ebp]

; 417  : 						
; 418  : 						theta = -(platform->Yaw());  // platform yaw  - rotation angle of y-axis

	mov	edx, DWORD PTR _this$[ebp]
	mov	ecx, DWORD PTR [edx+140]
	call	?Yaw@VuEntity@@QBEMXZ			; VuEntity::Yaw
	fstp	DWORD PTR tv3321[ebp]
	movss	xmm0, DWORD PTR tv3321[ebp]
	xorps	xmm0, DWORD PTR __xmm@80000000800000008000000080000000
	movss	DWORD PTR _theta$27[ebp], xmm0

; 419  : 						
; 420  : 						sensoryaw = -(float)atan2 (dy,dx);  // sensor yaw

	cvtss2sd xmm0, DWORD PTR _dx$[ebp]
	sub	esp, 8
	movsd	QWORD PTR [esp], xmm0
	cvtss2sd xmm0, DWORD PTR _dy$[ebp]
	sub	esp, 8
	movsd	QWORD PTR [esp], xmm0
	call	?checked_atan2@@YANNN@Z			; checked_atan2
	add	esp, 16					; 00000010H
	fstp	QWORD PTR tv3327[ebp]
	movsd	xmm0, QWORD PTR tv3327[ebp]
	cvtsd2ss xmm0, xmm0
	xorps	xmm0, DWORD PTR __xmm@80000000800000008000000080000000
	movss	DWORD PTR _sensoryaw$20[ebp], xmm0

; 421  : 						
; 422  : 						phi =   pi/2.0F + sensoryaw; // rotation angle of x-axis 

	movss	xmm0, DWORD PTR _pi$19[ebp]
	divss	xmm0, DWORD PTR __real@40000000
	addss	xmm0, DWORD PTR _sensoryaw$20[ebp]
	movss	DWORD PTR _phi$25[ebp], xmm0

; 423  : 						alpha = pi/2.0F + ((float)atan (-dz/groundrange));  // (90 - sensor pitch)

	movss	xmm0, DWORD PTR _pi$19[ebp]
	divss	xmm0, DWORD PTR __real@40000000
	movss	xmm1, DWORD PTR _dz$[ebp]
	xorps	xmm1, DWORD PTR __xmm@80000000800000008000000080000000
	divss	xmm1, DWORD PTR _groundrange$4[ebp]
	push	ecx
	movss	DWORD PTR [esp], xmm1
	movss	DWORD PTR tv3893[ebp], xmm0
	call	?atan@@YAMM@Z				; atan
	add	esp, 4
	fstp	DWORD PTR tv3336[ebp]
	movss	xmm0, DWORD PTR tv3893[ebp]
	addss	xmm0, DWORD PTR tv3336[ebp]
	movss	DWORD PTR _alpha$23[ebp], xmm0

; 424  : 						
; 425  : 						costheta = (float) cos(theta);

	push	ecx
	movss	xmm0, DWORD PTR _theta$27[ebp]
	movss	DWORD PTR [esp], xmm0
	call	?cos@@YAMM@Z				; cos
	add	esp, 4
	fstp	DWORD PTR _costheta$18[ebp]

; 426  : 						sintheta = (float) sin(theta);

	push	ecx
	movss	xmm0, DWORD PTR _theta$27[ebp]
	movss	DWORD PTR [esp], xmm0
	call	?sin@@YAMM@Z				; sin
	add	esp, 4
	fstp	DWORD PTR _sintheta$14[ebp]

; 427  : 						cosphi = (float) cos(phi);

	push	ecx
	movss	xmm0, DWORD PTR _phi$25[ebp]
	movss	DWORD PTR [esp], xmm0
	call	?cos@@YAMM@Z				; cos
	add	esp, 4
	fstp	DWORD PTR _cosphi$16[ebp]

; 428  : 						sinphi = (float) sin(phi);

	push	ecx
	movss	xmm0, DWORD PTR _phi$25[ebp]
	movss	DWORD PTR [esp], xmm0
	call	?sin@@YAMM@Z				; sin
	add	esp, 4
	fstp	DWORD PTR _sinphi$12[ebp]

; 429  : 						cosalpha = max( (float) cos(alpha),  0.0001F); // we need this for adjusting slew-rate

	push	ecx
	movss	xmm0, DWORD PTR _alpha$23[ebp]
	movss	DWORD PTR [esp], xmm0
	call	?cos@@YAMM@Z				; cos
	add	esp, 4
	fstp	DWORD PTR tv3359[ebp]
	movss	xmm0, DWORD PTR tv3359[ebp]
	comiss	xmm0, DWORD PTR __real@38d1b717
	jbe	SHORT $LN122@TargetingP
	push	ecx
	movss	xmm0, DWORD PTR _alpha$23[ebp]
	movss	DWORD PTR [esp], xmm0
	call	?cos@@YAMM@Z				; cos
	add	esp, 4
	fstp	DWORD PTR tv1479[ebp]
	jmp	SHORT $LN123@TargetingP
$LN122@TargetingP:
	movss	xmm0, DWORD PTR __real@38d1b717
	movss	DWORD PTR tv1479[ebp], xmm0
$LN123@TargetingP:
	movss	xmm0, DWORD PTR tv1479[ebp]
	movss	DWORD PTR _cosalpha$39[ebp], xmm0

; 430  : 						
; 431  : 						if(targetingPod->CurFOV() < 3.5F * DTR) 

	mov	ecx, DWORD PTR _targetingPod$[ebp]
	call	?CurFOV@LaserPodClass@@QAEMXZ		; LaserPodClass::CurFOV
	fstp	DWORD PTR tv3370[ebp]
	movss	xmm0, DWORD PTR __real@3d7a35db
	comiss	xmm0, DWORD PTR tv3370[ebp]
	jbe	$LN68@TargetingP

; 432  : 						{
; 433  : 							//MI only move if we are SOI
; 434  : 							if(g_bRealisticAvionics)

	movzx	eax, BYTE PTR ?g_bRealisticAvionics@@3_NA ; g_bRealisticAvionics
	test	eax, eax
	je	$LN67@TargetingP

; 435  : 							{
; 436  : 								if(targetingPod->IsSOI())

	mov	ecx, DWORD PTR _targetingPod$[ebp]
	call	?IsSOI@DrawableClass@@QAEHXZ		; DrawableClass::IsSOI
	test	eax, eax
	je	$LN66@TargetingP

; 437  : 								{
; 438  : 									deltaX = yMove * 50000.0F * dz/(cosalpha*cosalpha) * (0.03F/4000) * g_fCursorSpeed * (LASER_SLEW_RATE /8.0F) * SimLibMajorFrameTime; // calibrated for 4000 ft high and 10 pitch, (cos^2 10) = 0.03; "dx = z/(cos^2 alpha)*dalpha"

	movss	xmm0, DWORD PTR _yMove$40[ebp]
	mulss	xmm0, DWORD PTR __real@47435000
	mulss	xmm0, DWORD PTR _dz$[ebp]
	movss	xmm1, DWORD PTR _cosalpha$39[ebp]
	mulss	xmm1, DWORD PTR _cosalpha$39[ebp]
	divss	xmm0, xmm1
	mulss	xmm0, DWORD PTR __real@36fba882
	mulss	xmm0, DWORD PTR ?g_fCursorSpeed@@3MA
	movss	xmm1, DWORD PTR _LASER_SLEW_RATE
	divss	xmm1, DWORD PTR __real@41000000
	mulss	xmm0, xmm1
	mulss	xmm0, DWORD PTR ?SimLibMajorFrameTime@@3MA
	movss	DWORD PTR _deltaX$38[ebp], xmm0

; 439  : 									deltaY = xMove * 12000.0F * range/21000.0F * g_fCursorSpeed * (LASER_SLEW_RATE /8.0F) * SimLibMajorFrameTime; // calibrated for 21000 ft range

	movss	xmm0, DWORD PTR _xMove$41[ebp]
	mulss	xmm0, DWORD PTR __real@463b8000
	mulss	xmm0, DWORD PTR _range$34[ebp]
	divss	xmm0, DWORD PTR __real@46a41000
	mulss	xmm0, DWORD PTR ?g_fCursorSpeed@@3MA
	movss	xmm1, DWORD PTR _LASER_SLEW_RATE
	divss	xmm1, DWORD PTR __real@41000000
	mulss	xmm0, xmm1
	mulss	xmm0, DWORD PTR ?SimLibMajorFrameTime@@3MA
	movss	DWORD PTR _deltaY$37[ebp], xmm0
$LN66@TargetingP:

; 440  : 								}
; 441  : 							}
; 442  : 							else

	jmp	$LN65@TargetingP
$LN67@TargetingP:

; 443  : 							{
; 444  : 								deltaX = yMove * 50000.0F * dz/(cosalpha*cosalpha) * (0.03F/4000) * g_fCursorSpeed * (LASER_SLEW_RATE /8.0F) * SimLibMajorFrameTime; // calibrated for 4000 ft high and 10 pitch, (cos^2 10) = 0.03; "dx = z/(cos^2 alpha)*dalpha"

	movss	xmm0, DWORD PTR _yMove$40[ebp]
	mulss	xmm0, DWORD PTR __real@47435000
	mulss	xmm0, DWORD PTR _dz$[ebp]
	movss	xmm1, DWORD PTR _cosalpha$39[ebp]
	mulss	xmm1, DWORD PTR _cosalpha$39[ebp]
	divss	xmm0, xmm1
	mulss	xmm0, DWORD PTR __real@36fba882
	mulss	xmm0, DWORD PTR ?g_fCursorSpeed@@3MA
	movss	xmm1, DWORD PTR _LASER_SLEW_RATE
	divss	xmm1, DWORD PTR __real@41000000
	mulss	xmm0, xmm1
	mulss	xmm0, DWORD PTR ?SimLibMajorFrameTime@@3MA
	movss	DWORD PTR _deltaX$38[ebp], xmm0

; 445  : 								deltaY = xMove * 12000.0F * range/21000.0F * g_fCursorSpeed * (LASER_SLEW_RATE /8.0F) * SimLibMajorFrameTime; // calibrated for 21000 ft range

	movss	xmm0, DWORD PTR _xMove$41[ebp]
	mulss	xmm0, DWORD PTR __real@463b8000
	mulss	xmm0, DWORD PTR _range$34[ebp]
	divss	xmm0, DWORD PTR __real@46a41000
	mulss	xmm0, DWORD PTR ?g_fCursorSpeed@@3MA
	movss	xmm1, DWORD PTR _LASER_SLEW_RATE
	divss	xmm1, DWORD PTR __real@41000000
	mulss	xmm0, xmm1
	mulss	xmm0, DWORD PTR ?SimLibMajorFrameTime@@3MA
	movss	DWORD PTR _deltaY$37[ebp], xmm0
$LN65@TargetingP:

; 446  : 							}
; 447  : 						}
; 448  : 						else

	jmp	$LN61@TargetingP
$LN68@TargetingP:

; 449  : 						{
; 450  : 							//MI only move if we are SOI
; 451  : 							if(g_bRealisticAvionics)

	movzx	ecx, BYTE PTR ?g_bRealisticAvionics@@3_NA ; g_bRealisticAvionics
	test	ecx, ecx
	je	$LN63@TargetingP

; 452  : 							{
; 453  : 								if(targetingPod->IsSOI())

	mov	ecx, DWORD PTR _targetingPod$[ebp]
	call	?IsSOI@DrawableClass@@QAEHXZ		; DrawableClass::IsSOI
	test	eax, eax
	je	SHORT $LN62@TargetingP

; 454  : 								{
; 455  : 									deltaX = yMove * 50000.0F * dz/(cosalpha*cosalpha) * (0.03F/4000)* g_fCursorSpeed * LASER_SLEW_RATE  * SimLibMajorFrameTime; // calibrated for 4000 ft high and 10 pitch, (cos^2 10) = 0.03

	movss	xmm0, DWORD PTR _yMove$40[ebp]
	mulss	xmm0, DWORD PTR __real@47435000
	mulss	xmm0, DWORD PTR _dz$[ebp]
	movss	xmm1, DWORD PTR _cosalpha$39[ebp]
	mulss	xmm1, DWORD PTR _cosalpha$39[ebp]
	divss	xmm0, xmm1
	mulss	xmm0, DWORD PTR __real@36fba882
	mulss	xmm0, DWORD PTR ?g_fCursorSpeed@@3MA
	mulss	xmm0, DWORD PTR _LASER_SLEW_RATE
	mulss	xmm0, DWORD PTR ?SimLibMajorFrameTime@@3MA
	movss	DWORD PTR _deltaX$38[ebp], xmm0

; 456  : 									deltaY = xMove * 12000.0F * range/21000.0F * g_fCursorSpeed * LASER_SLEW_RATE  * SimLibMajorFrameTime;  // calibrated for 21000 ft range

