; Listing generated by Microsoft (R) Optimizing Compiler Version 17.00.51106.1 

	TITLE	C:\Users\Zhitao Li\Documents\Visual Studio 2012\Projects\Freefalcon\SIM\FCC\Mavfcc.cpp
	.686P
	.XMM
	include listing.inc
	.model	flat

INCLUDELIB LIBCMT
INCLUDELIB OLDNAMES

PUBLIC	?is_signed@?$numeric_limits@C@std@@2_NB		; std::numeric_limits<signed char>::is_signed
PUBLIC	?digits@?$numeric_limits@C@std@@2HB		; std::numeric_limits<signed char>::digits
PUBLIC	?digits10@?$numeric_limits@C@std@@2HB		; std::numeric_limits<signed char>::digits10
PUBLIC	?is_signed@?$numeric_limits@E@std@@2_NB		; std::numeric_limits<unsigned char>::is_signed
PUBLIC	?digits@?$numeric_limits@E@std@@2HB		; std::numeric_limits<unsigned char>::digits
PUBLIC	?digits10@?$numeric_limits@E@std@@2HB		; std::numeric_limits<unsigned char>::digits10
PUBLIC	?collate@?$_Locbase@H@std@@2HB			; std::_Locbase<int>::collate
PUBLIC	?ctype@?$_Locbase@H@std@@2HB			; std::_Locbase<int>::ctype
PUBLIC	?SIMDIRTYDATA_INTERVAL@FalconEntity@@2KB	; FalconEntity::SIMDIRTYDATA_INTERVAL
PUBLIC	?monetary@?$_Locbase@H@std@@2HB			; std::_Locbase<int>::monetary
PUBLIC	?CMPDIRTYDATA_INTERVAL@FalconEntity@@2KB	; FalconEntity::CMPDIRTYDATA_INTERVAL
PUBLIC	?numeric@?$_Locbase@H@std@@2HB			; std::_Locbase<int>::numeric
PUBLIC	?time@?$_Locbase@H@std@@2HB			; std::_Locbase<int>::time
PUBLIC	?messages@?$_Locbase@H@std@@2HB			; std::_Locbase<int>::messages
PUBLIC	?all@?$_Locbase@H@std@@2HB			; std::_Locbase<int>::all
PUBLIC	?is_signed@?$numeric_limits@F@std@@2_NB		; std::numeric_limits<short>::is_signed
PUBLIC	?none@?$_Locbase@H@std@@2HB			; std::_Locbase<int>::none
PUBLIC	?digits@?$numeric_limits@F@std@@2HB		; std::numeric_limits<short>::digits
PUBLIC	?digits10@?$numeric_limits@F@std@@2HB		; std::numeric_limits<short>::digits10
PUBLIC	?is_signed@?$numeric_limits@G@std@@2_NB		; std::numeric_limits<unsigned short>::is_signed
PUBLIC	?digits@?$numeric_limits@G@std@@2HB		; std::numeric_limits<unsigned short>::digits
PUBLIC	?digits10@?$numeric_limits@G@std@@2HB		; std::numeric_limits<unsigned short>::digits10
PUBLIC	?is_signed@?$numeric_limits@H@std@@2_NB		; std::numeric_limits<int>::is_signed
PUBLIC	?value@?$_Sizeof@HU_Nil@std@@U12@U12@U12@U12@U12@U12@@std@@2IB ; std::_Sizeof<int,std::_Nil,std::_Nil,std::_Nil,std::_Nil,std::_Nil,std::_Nil,std::_Nil>::value
PUBLIC	?digits@?$numeric_limits@H@std@@2HB		; std::numeric_limits<int>::digits
PUBLIC	?digits10@?$numeric_limits@H@std@@2HB		; std::numeric_limits<int>::digits10
PUBLIC	?table_size@?$ctype@D@std@@2IB			; std::ctype<char>::table_size
PUBLIC	?is_signed@?$numeric_limits@I@std@@2_NB		; std::numeric_limits<unsigned int>::is_signed
PUBLIC	?digits@?$numeric_limits@I@std@@2HB		; std::numeric_limits<unsigned int>::digits
PUBLIC	?digits10@?$numeric_limits@I@std@@2HB		; std::numeric_limits<unsigned int>::digits10
PUBLIC	?is_signed@?$numeric_limits@J@std@@2_NB		; std::numeric_limits<long>::is_signed
PUBLIC	?digits@?$numeric_limits@J@std@@2HB		; std::numeric_limits<long>::digits
PUBLIC	?digits10@?$numeric_limits@J@std@@2HB		; std::numeric_limits<long>::digits10
PUBLIC	?is_signed@?$numeric_limits@K@std@@2_NB		; std::numeric_limits<unsigned long>::is_signed
PUBLIC	?digits@?$numeric_limits@K@std@@2HB		; std::numeric_limits<unsigned long>::digits
PUBLIC	?digits10@?$numeric_limits@K@std@@2HB		; std::numeric_limits<unsigned long>::digits10
PUBLIC	?is_signed@?$numeric_limits@_J@std@@2_NB	; std::numeric_limits<__int64>::is_signed
PUBLIC	?digits@?$numeric_limits@_J@std@@2HB		; std::numeric_limits<__int64>::digits
PUBLIC	?digits10@?$numeric_limits@_J@std@@2HB		; std::numeric_limits<__int64>::digits10
PUBLIC	?is_signed@?$numeric_limits@_K@std@@2_NB	; std::numeric_limits<unsigned __int64>::is_signed
PUBLIC	?digits@?$numeric_limits@_K@std@@2HB		; std::numeric_limits<unsigned __int64>::digits
PUBLIC	?digits10@?$numeric_limits@_K@std@@2HB		; std::numeric_limits<unsigned __int64>::digits10
PUBLIC	?digits@?$numeric_limits@M@std@@2HB		; std::numeric_limits<float>::digits
PUBLIC	?digits10@?$numeric_limits@M@std@@2HB		; std::numeric_limits<float>::digits10
PUBLIC	?max_digits10@?$numeric_limits@M@std@@2HB	; std::numeric_limits<float>::max_digits10
PUBLIC	?max_exponent@?$numeric_limits@M@std@@2HB	; std::numeric_limits<float>::max_exponent
PUBLIC	?max_exponent10@?$numeric_limits@M@std@@2HB	; std::numeric_limits<float>::max_exponent10
PUBLIC	?min_exponent@?$numeric_limits@M@std@@2HB	; std::numeric_limits<float>::min_exponent
PUBLIC	?min_exponent10@?$numeric_limits@M@std@@2HB	; std::numeric_limits<float>::min_exponent10
PUBLIC	?value@?$integral_constant@I$0A@@std@@2IB	; std::integral_constant<unsigned int,0>::value
PUBLIC	?digits@?$numeric_limits@N@std@@2HB		; std::numeric_limits<double>::digits
PUBLIC	?digits10@?$numeric_limits@N@std@@2HB		; std::numeric_limits<double>::digits10
PUBLIC	?max_digits10@?$numeric_limits@N@std@@2HB	; std::numeric_limits<double>::max_digits10
PUBLIC	?max_exponent@?$numeric_limits@N@std@@2HB	; std::numeric_limits<double>::max_exponent
PUBLIC	?max_exponent10@?$numeric_limits@N@std@@2HB	; std::numeric_limits<double>::max_exponent10
PUBLIC	?min_exponent@?$numeric_limits@N@std@@2HB	; std::numeric_limits<double>::min_exponent
PUBLIC	?min_exponent10@?$numeric_limits@N@std@@2HB	; std::numeric_limits<double>::min_exponent10
PUBLIC	?digits@?$numeric_limits@O@std@@2HB		; std::numeric_limits<long double>::digits
PUBLIC	?digits10@?$numeric_limits@O@std@@2HB		; std::numeric_limits<long double>::digits10
PUBLIC	?max_digits10@?$numeric_limits@O@std@@2HB	; std::numeric_limits<long double>::max_digits10
PUBLIC	?max_exponent@?$numeric_limits@O@std@@2HB	; std::numeric_limits<long double>::max_exponent
PUBLIC	?max_exponent10@?$numeric_limits@O@std@@2HB	; std::numeric_limits<long double>::max_exponent10
PUBLIC	?min_exponent@?$numeric_limits@O@std@@2HB	; std::numeric_limits<long double>::min_exponent
PUBLIC	?min_exponent10@?$numeric_limits@O@std@@2HB	; std::numeric_limits<long double>::min_exponent10
PUBLIC	?value@?$_Sizeof@U_Nil@std@@U12@U12@U12@U12@U12@U12@U12@@std@@2IB ; std::_Sizeof<std::_Nil,std::_Nil,std::_Nil,std::_Nil,std::_Nil,std::_Nil,std::_Nil,std::_Nil>::value
PUBLIC	?skipws@?$_Iosb@H@std@@2W4_Fmtflags@12@B	; std::_Iosb<int>::skipws
PUBLIC	?unitbuf@?$_Iosb@H@std@@2W4_Fmtflags@12@B	; std::_Iosb<int>::unitbuf
PUBLIC	?uppercase@?$_Iosb@H@std@@2W4_Fmtflags@12@B	; std::_Iosb<int>::uppercase
PUBLIC	?showbase@?$_Iosb@H@std@@2W4_Fmtflags@12@B	; std::_Iosb<int>::showbase
PUBLIC	?showpoint@?$_Iosb@H@std@@2W4_Fmtflags@12@B	; std::_Iosb<int>::showpoint
PUBLIC	?showpos@?$_Iosb@H@std@@2W4_Fmtflags@12@B	; std::_Iosb<int>::showpos
PUBLIC	?left@?$_Iosb@H@std@@2W4_Fmtflags@12@B		; std::_Iosb<int>::left
PUBLIC	?right@?$_Iosb@H@std@@2W4_Fmtflags@12@B		; std::_Iosb<int>::right
PUBLIC	?internal@?$_Iosb@H@std@@2W4_Fmtflags@12@B	; std::_Iosb<int>::internal
PUBLIC	?dec@?$_Iosb@H@std@@2W4_Fmtflags@12@B		; std::_Iosb<int>::dec
PUBLIC	?oct@?$_Iosb@H@std@@2W4_Fmtflags@12@B		; std::_Iosb<int>::oct
PUBLIC	?hex@?$_Iosb@H@std@@2W4_Fmtflags@12@B		; std::_Iosb<int>::hex
PUBLIC	?scientific@?$_Iosb@H@std@@2W4_Fmtflags@12@B	; std::_Iosb<int>::scientific
PUBLIC	?fixed@?$_Iosb@H@std@@2W4_Fmtflags@12@B		; std::_Iosb<int>::fixed
PUBLIC	?hexfloat@?$_Iosb@H@std@@2W4_Fmtflags@12@B	; std::_Iosb<int>::hexfloat
PUBLIC	?boolalpha@?$_Iosb@H@std@@2W4_Fmtflags@12@B	; std::_Iosb<int>::boolalpha
PUBLIC	?_Stdio@?$_Iosb@H@std@@2W4_Fmtflags@12@B	; std::_Iosb<int>::_Stdio
PUBLIC	?adjustfield@?$_Iosb@H@std@@2W4_Fmtflags@12@B	; std::_Iosb<int>::adjustfield
PUBLIC	?basefield@?$_Iosb@H@std@@2W4_Fmtflags@12@B	; std::_Iosb<int>::basefield
PUBLIC	?floatfield@?$_Iosb@H@std@@2W4_Fmtflags@12@B	; std::_Iosb<int>::floatfield
PUBLIC	?goodbit@?$_Iosb@H@std@@2W4_Iostate@12@B	; std::_Iosb<int>::goodbit
PUBLIC	?eofbit@?$_Iosb@H@std@@2W4_Iostate@12@B		; std::_Iosb<int>::eofbit
PUBLIC	?failbit@?$_Iosb@H@std@@2W4_Iostate@12@B	; std::_Iosb<int>::failbit
PUBLIC	?has_denorm@_Num_base@std@@2W4float_denorm_style@2@B ; std::_Num_base::has_denorm
PUBLIC	?badbit@?$_Iosb@H@std@@2W4_Iostate@12@B		; std::_Iosb<int>::badbit
PUBLIC	?has_denorm_loss@_Num_base@std@@2_NB		; std::_Num_base::has_denorm_loss
PUBLIC	?_Hardfail@?$_Iosb@H@std@@2W4_Iostate@12@B	; std::_Iosb<int>::_Hardfail
PUBLIC	?has_infinity@_Num_base@std@@2_NB		; std::_Num_base::has_infinity
PUBLIC	?has_quiet_NaN@_Num_base@std@@2_NB		; std::_Num_base::has_quiet_NaN
PUBLIC	?in@?$_Iosb@H@std@@2W4_Openmode@12@B		; std::_Iosb<int>::in
PUBLIC	?out@?$_Iosb@H@std@@2W4_Openmode@12@B		; std::_Iosb<int>::out
PUBLIC	?has_signaling_NaN@_Num_base@std@@2_NB		; std::_Num_base::has_signaling_NaN
PUBLIC	?ate@?$_Iosb@H@std@@2W4_Openmode@12@B		; std::_Iosb<int>::ate
PUBLIC	?is_bounded@_Num_base@std@@2_NB			; std::_Num_base::is_bounded
PUBLIC	?is_exact@_Num_base@std@@2_NB			; std::_Num_base::is_exact
PUBLIC	?app@?$_Iosb@H@std@@2W4_Openmode@12@B		; std::_Iosb<int>::app
PUBLIC	?is_iec559@_Num_base@std@@2_NB			; std::_Num_base::is_iec559
PUBLIC	?trunc@?$_Iosb@H@std@@2W4_Openmode@12@B		; std::_Iosb<int>::trunc
PUBLIC	?_Nocreate@?$_Iosb@H@std@@2W4_Openmode@12@B	; std::_Iosb<int>::_Nocreate
PUBLIC	?is_integer@_Num_base@std@@2_NB			; std::_Num_base::is_integer
PUBLIC	?_Noreplace@?$_Iosb@H@std@@2W4_Openmode@12@B	; std::_Iosb<int>::_Noreplace
PUBLIC	?is_modulo@_Num_base@std@@2_NB			; std::_Num_base::is_modulo
PUBLIC	?is_signed@_Num_base@std@@2_NB			; std::_Num_base::is_signed
PUBLIC	?binary@?$_Iosb@H@std@@2W4_Openmode@12@B	; std::_Iosb<int>::binary
PUBLIC	?is_specialized@_Num_base@std@@2_NB		; std::_Num_base::is_specialized
PUBLIC	?beg@?$_Iosb@H@std@@2W4_Seekdir@12@B		; std::_Iosb<int>::beg
PUBLIC	?tinyness_before@_Num_base@std@@2_NB		; std::_Num_base::tinyness_before
PUBLIC	?cur@?$_Iosb@H@std@@2W4_Seekdir@12@B		; std::_Iosb<int>::cur
PUBLIC	?traps@_Num_base@std@@2_NB			; std::_Num_base::traps
PUBLIC	?end@?$_Iosb@H@std@@2W4_Seekdir@12@B		; std::_Iosb<int>::end
PUBLIC	?round_style@_Num_base@std@@2W4float_round_style@2@B ; std::_Num_base::round_style
PUBLIC	?digits@_Num_base@std@@2HB			; std::_Num_base::digits
PUBLIC	?digits10@_Num_base@std@@2HB			; std::_Num_base::digits10
PUBLIC	?max_digits10@_Num_base@std@@2HB		; std::_Num_base::max_digits10
PUBLIC	?max_exponent@_Num_base@std@@2HB		; std::_Num_base::max_exponent
PUBLIC	?max_exponent10@_Num_base@std@@2HB		; std::_Num_base::max_exponent10
PUBLIC	?min_exponent@_Num_base@std@@2HB		; std::_Num_base::min_exponent
PUBLIC	?min_exponent10@_Num_base@std@@2HB		; std::_Num_base::min_exponent10
PUBLIC	?radix@_Num_base@std@@2HB			; std::_Num_base::radix
PUBLIC	?_Stream_err@failure@ios_base@std@@0W4io_errc@43@B ; std::ios_base::failure::_Stream_err
PUBLIC	?is_bounded@_Num_int_base@std@@2_NB		; std::_Num_int_base::is_bounded
PUBLIC	?is_exact@_Num_int_base@std@@2_NB		; std::_Num_int_base::is_exact
PUBLIC	?is_integer@_Num_int_base@std@@2_NB		; std::_Num_int_base::is_integer
PUBLIC	?is_modulo@_Num_int_base@std@@2_NB		; std::_Num_int_base::is_modulo
PUBLIC	?is_specialized@_Num_int_base@std@@2_NB		; std::_Num_int_base::is_specialized
PUBLIC	?radix@_Num_int_base@std@@2HB			; std::_Num_int_base::radix
PUBLIC	?has_denorm@_Num_float_base@std@@2W4float_denorm_style@2@B ; std::_Num_float_base::has_denorm
PUBLIC	?has_denorm_loss@_Num_float_base@std@@2_NB	; std::_Num_float_base::has_denorm_loss
PUBLIC	?has_infinity@_Num_float_base@std@@2_NB		; std::_Num_float_base::has_infinity
PUBLIC	?has_quiet_NaN@_Num_float_base@std@@2_NB	; std::_Num_float_base::has_quiet_NaN
PUBLIC	?has_signaling_NaN@_Num_float_base@std@@2_NB	; std::_Num_float_base::has_signaling_NaN
PUBLIC	?is_bounded@_Num_float_base@std@@2_NB		; std::_Num_float_base::is_bounded
PUBLIC	?is_exact@_Num_float_base@std@@2_NB		; std::_Num_float_base::is_exact
PUBLIC	?is_iec559@_Num_float_base@std@@2_NB		; std::_Num_float_base::is_iec559
PUBLIC	?is_integer@_Num_float_base@std@@2_NB		; std::_Num_float_base::is_integer
PUBLIC	?is_modulo@_Num_float_base@std@@2_NB		; std::_Num_float_base::is_modulo
PUBLIC	?is_signed@_Num_float_base@std@@2_NB		; std::_Num_float_base::is_signed
PUBLIC	?is_specialized@_Num_float_base@std@@2_NB	; std::_Num_float_base::is_specialized
PUBLIC	?tinyness_before@_Num_float_base@std@@2_NB	; std::_Num_float_base::tinyness_before
PUBLIC	?traps@_Num_float_base@std@@2_NB		; std::_Num_float_base::traps
PUBLIC	?round_style@_Num_float_base@std@@2W4float_round_style@2@B ; std::_Num_float_base::round_style
PUBLIC	?radix@_Num_float_base@std@@2HB			; std::_Num_float_base::radix
PUBLIC	?is_signed@?$numeric_limits@D@std@@2_NB		; std::numeric_limits<char>::is_signed
PUBLIC	?digits@?$numeric_limits@D@std@@2HB		; std::numeric_limits<char>::digits
PUBLIC	?digits10@?$numeric_limits@D@std@@2HB		; std::numeric_limits<char>::digits10
PUBLIC	?value@?$integral_constant@_N$0A@@std@@2_NB	; std::integral_constant<bool,0>::value
PUBLIC	?is_signed@?$numeric_limits@_W@std@@2_NB	; std::numeric_limits<wchar_t>::is_signed
PUBLIC	?digits@?$numeric_limits@_W@std@@2HB		; std::numeric_limits<wchar_t>::digits
PUBLIC	?digits10@?$numeric_limits@_W@std@@2HB		; std::numeric_limits<wchar_t>::digits10
PUBLIC	?value@?$integral_constant@_N$00@std@@2_NB	; std::integral_constant<bool,1>::value
PUBLIC	?is_modulo@?$numeric_limits@_N@std@@2_NB	; std::numeric_limits<bool>::is_modulo
PUBLIC	?is_signed@?$numeric_limits@_N@std@@2_NB	; std::numeric_limits<bool>::is_signed
PUBLIC	?digits@?$numeric_limits@_N@std@@2HB		; std::numeric_limits<bool>::digits
PUBLIC	?digits10@?$numeric_limits@_N@std@@2HB		; std::numeric_limits<bool>::digits10
;	COMDAT ?digits10@?$numeric_limits@_N@std@@2HB
CONST	SEGMENT
?digits10@?$numeric_limits@_N@std@@2HB DD 00H		; std::numeric_limits<bool>::digits10
CONST	ENDS
;	COMDAT ?digits@?$numeric_limits@_N@std@@2HB
CONST	SEGMENT
?digits@?$numeric_limits@_N@std@@2HB DD 01H		; std::numeric_limits<bool>::digits
CONST	ENDS
;	COMDAT ?is_signed@?$numeric_limits@_N@std@@2_NB
CONST	SEGMENT
?is_signed@?$numeric_limits@_N@std@@2_NB DB 00H		; std::numeric_limits<bool>::is_signed
CONST	ENDS
;	COMDAT ?is_modulo@?$numeric_limits@_N@std@@2_NB
CONST	SEGMENT
?is_modulo@?$numeric_limits@_N@std@@2_NB DB 00H		; std::numeric_limits<bool>::is_modulo
CONST	ENDS
;	COMDAT ?value@?$integral_constant@_N$00@std@@2_NB
CONST	SEGMENT
?value@?$integral_constant@_N$00@std@@2_NB DB 01H	; std::integral_constant<bool,1>::value
CONST	ENDS
;	COMDAT ?digits10@?$numeric_limits@_W@std@@2HB
CONST	SEGMENT
?digits10@?$numeric_limits@_W@std@@2HB DD 04H		; std::numeric_limits<wchar_t>::digits10
CONST	ENDS
;	COMDAT ?digits@?$numeric_limits@_W@std@@2HB
CONST	SEGMENT
?digits@?$numeric_limits@_W@std@@2HB DD 010H		; std::numeric_limits<wchar_t>::digits
CONST	ENDS
;	COMDAT ?is_signed@?$numeric_limits@_W@std@@2_NB
CONST	SEGMENT
?is_signed@?$numeric_limits@_W@std@@2_NB DB 00H		; std::numeric_limits<wchar_t>::is_signed
CONST	ENDS
;	COMDAT ?value@?$integral_constant@_N$0A@@std@@2_NB
CONST	SEGMENT
?value@?$integral_constant@_N$0A@@std@@2_NB DB 00H	; std::integral_constant<bool,0>::value
CONST	ENDS
;	COMDAT ?digits10@?$numeric_limits@D@std@@2HB
CONST	SEGMENT
?digits10@?$numeric_limits@D@std@@2HB DD 02H		; std::numeric_limits<char>::digits10
CONST	ENDS
;	COMDAT ?digits@?$numeric_limits@D@std@@2HB
CONST	SEGMENT
?digits@?$numeric_limits@D@std@@2HB DD 07H		; std::numeric_limits<char>::digits
CONST	ENDS
;	COMDAT ?is_signed@?$numeric_limits@D@std@@2_NB
CONST	SEGMENT
?is_signed@?$numeric_limits@D@std@@2_NB DB 01H		; std::numeric_limits<char>::is_signed
CONST	ENDS
;	COMDAT ?radix@_Num_float_base@std@@2HB
CONST	SEGMENT
?radix@_Num_float_base@std@@2HB DD 02H			; std::_Num_float_base::radix
CONST	ENDS
;	COMDAT ?round_style@_Num_float_base@std@@2W4float_round_style@2@B
CONST	SEGMENT
?round_style@_Num_float_base@std@@2W4float_round_style@2@B DD 01H ; std::_Num_float_base::round_style
CONST	ENDS
;	COMDAT ?traps@_Num_float_base@std@@2_NB
CONST	SEGMENT
?traps@_Num_float_base@std@@2_NB DB 00H			; std::_Num_float_base::traps
CONST	ENDS
;	COMDAT ?tinyness_before@_Num_float_base@std@@2_NB
CONST	SEGMENT
?tinyness_before@_Num_float_base@std@@2_NB DB 01H	; std::_Num_float_base::tinyness_before
CONST	ENDS
;	COMDAT ?is_specialized@_Num_float_base@std@@2_NB
CONST	SEGMENT
?is_specialized@_Num_float_base@std@@2_NB DB 01H	; std::_Num_float_base::is_specialized
CONST	ENDS
;	COMDAT ?is_signed@_Num_float_base@std@@2_NB
CONST	SEGMENT
?is_signed@_Num_float_base@std@@2_NB DB 01H		; std::_Num_float_base::is_signed
CONST	ENDS
;	COMDAT ?is_modulo@_Num_float_base@std@@2_NB
CONST	SEGMENT
?is_modulo@_Num_float_base@std@@2_NB DB 00H		; std::_Num_float_base::is_modulo
CONST	ENDS
;	COMDAT ?is_integer@_Num_float_base@std@@2_NB
CONST	SEGMENT
?is_integer@_Num_float_base@std@@2_NB DB 00H		; std::_Num_float_base::is_integer
CONST	ENDS
;	COMDAT ?is_iec559@_Num_float_base@std@@2_NB
CONST	SEGMENT
?is_iec559@_Num_float_base@std@@2_NB DB 01H		; std::_Num_float_base::is_iec559
CONST	ENDS
;	COMDAT ?is_exact@_Num_float_base@std@@2_NB
CONST	SEGMENT
?is_exact@_Num_float_base@std@@2_NB DB 00H		; std::_Num_float_base::is_exact
CONST	ENDS
;	COMDAT ?is_bounded@_Num_float_base@std@@2_NB
CONST	SEGMENT
?is_bounded@_Num_float_base@std@@2_NB DB 01H		; std::_Num_float_base::is_bounded
CONST	ENDS
;	COMDAT ?has_signaling_NaN@_Num_float_base@std@@2_NB
CONST	SEGMENT
?has_signaling_NaN@_Num_float_base@std@@2_NB DB 01H	; std::_Num_float_base::has_signaling_NaN
CONST	ENDS
;	COMDAT ?has_quiet_NaN@_Num_float_base@std@@2_NB
CONST	SEGMENT
?has_quiet_NaN@_Num_float_base@std@@2_NB DB 01H		; std::_Num_float_base::has_quiet_NaN
CONST	ENDS
;	COMDAT ?has_infinity@_Num_float_base@std@@2_NB
CONST	SEGMENT
?has_infinity@_Num_float_base@std@@2_NB DB 01H		; std::_Num_float_base::has_infinity
CONST	ENDS
;	COMDAT ?has_denorm_loss@_Num_float_base@std@@2_NB
CONST	SEGMENT
?has_denorm_loss@_Num_float_base@std@@2_NB DB 01H	; std::_Num_float_base::has_denorm_loss
CONST	ENDS
;	COMDAT ?has_denorm@_Num_float_base@std@@2W4float_denorm_style@2@B
CONST	SEGMENT
?has_denorm@_Num_float_base@std@@2W4float_denorm_style@2@B DD 01H ; std::_Num_float_base::has_denorm
CONST	ENDS
;	COMDAT ?radix@_Num_int_base@std@@2HB
CONST	SEGMENT
?radix@_Num_int_base@std@@2HB DD 02H			; std::_Num_int_base::radix
CONST	ENDS
;	COMDAT ?is_specialized@_Num_int_base@std@@2_NB
CONST	SEGMENT
?is_specialized@_Num_int_base@std@@2_NB DB 01H		; std::_Num_int_base::is_specialized
CONST	ENDS
;	COMDAT ?is_modulo@_Num_int_base@std@@2_NB
CONST	SEGMENT
?is_modulo@_Num_int_base@std@@2_NB DB 01H		; std::_Num_int_base::is_modulo
CONST	ENDS
;	COMDAT ?is_integer@_Num_int_base@std@@2_NB
CONST	SEGMENT
?is_integer@_Num_int_base@std@@2_NB DB 01H		; std::_Num_int_base::is_integer
CONST	ENDS
;	COMDAT ?is_exact@_Num_int_base@std@@2_NB
CONST	SEGMENT
?is_exact@_Num_int_base@std@@2_NB DB 01H		; std::_Num_int_base::is_exact
CONST	ENDS
;	COMDAT ?is_bounded@_Num_int_base@std@@2_NB
CONST	SEGMENT
?is_bounded@_Num_int_base@std@@2_NB DB 01H		; std::_Num_int_base::is_bounded
CONST	ENDS
;	COMDAT ?_Stream_err@failure@ios_base@std@@0W4io_errc@43@B
CONST	SEGMENT
?_Stream_err@failure@ios_base@std@@0W4io_errc@43@B DD 01H ; std::ios_base::failure::_Stream_err
CONST	ENDS
;	COMDAT ?radix@_Num_base@std@@2HB
CONST	SEGMENT
?radix@_Num_base@std@@2HB DD 00H			; std::_Num_base::radix
CONST	ENDS
;	COMDAT ?min_exponent10@_Num_base@std@@2HB
CONST	SEGMENT
?min_exponent10@_Num_base@std@@2HB DD 00H		; std::_Num_base::min_exponent10
CONST	ENDS
;	COMDAT ?min_exponent@_Num_base@std@@2HB
CONST	SEGMENT
?min_exponent@_Num_base@std@@2HB DD 00H			; std::_Num_base::min_exponent
CONST	ENDS
;	COMDAT ?max_exponent10@_Num_base@std@@2HB
CONST	SEGMENT
?max_exponent10@_Num_base@std@@2HB DD 00H		; std::_Num_base::max_exponent10
CONST	ENDS
;	COMDAT ?max_exponent@_Num_base@std@@2HB
CONST	SEGMENT
?max_exponent@_Num_base@std@@2HB DD 00H			; std::_Num_base::max_exponent
CONST	ENDS
;	COMDAT ?max_digits10@_Num_base@std@@2HB
CONST	SEGMENT
?max_digits10@_Num_base@std@@2HB DD 00H			; std::_Num_base::max_digits10
CONST	ENDS
;	COMDAT ?digits10@_Num_base@std@@2HB
CONST	SEGMENT
?digits10@_Num_base@std@@2HB DD 00H			; std::_Num_base::digits10
CONST	ENDS
;	COMDAT ?digits@_Num_base@std@@2HB
CONST	SEGMENT
?digits@_Num_base@std@@2HB DD 00H			; std::_Num_base::digits
CONST	ENDS
;	COMDAT ?round_style@_Num_base@std@@2W4float_round_style@2@B
CONST	SEGMENT
?round_style@_Num_base@std@@2W4float_round_style@2@B DD 00H ; std::_Num_base::round_style
CONST	ENDS
;	COMDAT ?end@?$_Iosb@H@std@@2W4_Seekdir@12@B
CONST	SEGMENT
?end@?$_Iosb@H@std@@2W4_Seekdir@12@B DD 02H		; std::_Iosb<int>::end
CONST	ENDS
;	COMDAT ?traps@_Num_base@std@@2_NB
CONST	SEGMENT
?traps@_Num_base@std@@2_NB DB 00H			; std::_Num_base::traps
CONST	ENDS
;	COMDAT ?cur@?$_Iosb@H@std@@2W4_Seekdir@12@B
CONST	SEGMENT
?cur@?$_Iosb@H@std@@2W4_Seekdir@12@B DD 01H		; std::_Iosb<int>::cur
CONST	ENDS
;	COMDAT ?tinyness_before@_Num_base@std@@2_NB
CONST	SEGMENT
?tinyness_before@_Num_base@std@@2_NB DB 00H		; std::_Num_base::tinyness_before
CONST	ENDS
;	COMDAT ?beg@?$_Iosb@H@std@@2W4_Seekdir@12@B
CONST	SEGMENT
?beg@?$_Iosb@H@std@@2W4_Seekdir@12@B DD 00H		; std::_Iosb<int>::beg
CONST	ENDS
;	COMDAT ?is_specialized@_Num_base@std@@2_NB
CONST	SEGMENT
?is_specialized@_Num_base@std@@2_NB DB 00H		; std::_Num_base::is_specialized
CONST	ENDS
;	COMDAT ?binary@?$_Iosb@H@std@@2W4_Openmode@12@B
CONST	SEGMENT
?binary@?$_Iosb@H@std@@2W4_Openmode@12@B DD 020H	; std::_Iosb<int>::binary
CONST	ENDS
;	COMDAT ?is_signed@_Num_base@std@@2_NB
CONST	SEGMENT
?is_signed@_Num_base@std@@2_NB DB 00H			; std::_Num_base::is_signed
CONST	ENDS
;	COMDAT ?is_modulo@_Num_base@std@@2_NB
CONST	SEGMENT
?is_modulo@_Num_base@std@@2_NB DB 00H			; std::_Num_base::is_modulo
CONST	ENDS
;	COMDAT ?_Noreplace@?$_Iosb@H@std@@2W4_Openmode@12@B
CONST	SEGMENT
?_Noreplace@?$_Iosb@H@std@@2W4_Openmode@12@B DD 080H	; std::_Iosb<int>::_Noreplace
CONST	ENDS
;	COMDAT ?is_integer@_Num_base@std@@2_NB
CONST	SEGMENT
?is_integer@_Num_base@std@@2_NB DB 00H			; std::_Num_base::is_integer
CONST	ENDS
;	COMDAT ?_Nocreate@?$_Iosb@H@std@@2W4_Openmode@12@B
CONST	SEGMENT
?_Nocreate@?$_Iosb@H@std@@2W4_Openmode@12@B DD 040H	; std::_Iosb<int>::_Nocreate
CONST	ENDS
;	COMDAT ?trunc@?$_Iosb@H@std@@2W4_Openmode@12@B
CONST	SEGMENT
?trunc@?$_Iosb@H@std@@2W4_Openmode@12@B DD 010H		; std::_Iosb<int>::trunc
CONST	ENDS
;	COMDAT ?is_iec559@_Num_base@std@@2_NB
CONST	SEGMENT
?is_iec559@_Num_base@std@@2_NB DB 00H			; std::_Num_base::is_iec559
CONST	ENDS
;	COMDAT ?app@?$_Iosb@H@std@@2W4_Openmode@12@B
CONST	SEGMENT
?app@?$_Iosb@H@std@@2W4_Openmode@12@B DD 08H		; std::_Iosb<int>::app
CONST	ENDS
;	COMDAT ?is_exact@_Num_base@std@@2_NB
CONST	SEGMENT
?is_exact@_Num_base@std@@2_NB DB 00H			; std::_Num_base::is_exact
CONST	ENDS
;	COMDAT ?is_bounded@_Num_base@std@@2_NB
CONST	SEGMENT
?is_bounded@_Num_base@std@@2_NB DB 00H			; std::_Num_base::is_bounded
CONST	ENDS
;	COMDAT ?ate@?$_Iosb@H@std@@2W4_Openmode@12@B
CONST	SEGMENT
?ate@?$_Iosb@H@std@@2W4_Openmode@12@B DD 04H		; std::_Iosb<int>::ate
CONST	ENDS
;	COMDAT ?has_signaling_NaN@_Num_base@std@@2_NB
CONST	SEGMENT
?has_signaling_NaN@_Num_base@std@@2_NB DB 00H		; std::_Num_base::has_signaling_NaN
CONST	ENDS
;	COMDAT ?out@?$_Iosb@H@std@@2W4_Openmode@12@B
CONST	SEGMENT
?out@?$_Iosb@H@std@@2W4_Openmode@12@B DD 02H		; std::_Iosb<int>::out
CONST	ENDS
;	COMDAT ?in@?$_Iosb@H@std@@2W4_Openmode@12@B
CONST	SEGMENT
?in@?$_Iosb@H@std@@2W4_Openmode@12@B DD 01H		; std::_Iosb<int>::in
CONST	ENDS
;	COMDAT ?has_quiet_NaN@_Num_base@std@@2_NB
CONST	SEGMENT
?has_quiet_NaN@_Num_base@std@@2_NB DB 00H		; std::_Num_base::has_quiet_NaN
CONST	ENDS
;	COMDAT ?has_infinity@_Num_base@std@@2_NB
CONST	SEGMENT
?has_infinity@_Num_base@std@@2_NB DB 00H		; std::_Num_base::has_infinity
CONST	ENDS
;	COMDAT ?_Hardfail@?$_Iosb@H@std@@2W4_Iostate@12@B
CONST	SEGMENT
?_Hardfail@?$_Iosb@H@std@@2W4_Iostate@12@B DD 010H	; std::_Iosb<int>::_Hardfail
CONST	ENDS
;	COMDAT ?has_denorm_loss@_Num_base@std@@2_NB
CONST	SEGMENT
?has_denorm_loss@_Num_base@std@@2_NB DB 00H		; std::_Num_base::has_denorm_loss
CONST	ENDS
;	COMDAT ?badbit@?$_Iosb@H@std@@2W4_Iostate@12@B
CONST	SEGMENT
?badbit@?$_Iosb@H@std@@2W4_Iostate@12@B DD 04H		; std::_Iosb<int>::badbit
CONST	ENDS
;	COMDAT ?has_denorm@_Num_base@std@@2W4float_denorm_style@2@B
CONST	SEGMENT
?has_denorm@_Num_base@std@@2W4float_denorm_style@2@B DD 00H ; std::_Num_base::has_denorm
CONST	ENDS
;	COMDAT ?failbit@?$_Iosb@H@std@@2W4_Iostate@12@B
CONST	SEGMENT
?failbit@?$_Iosb@H@std@@2W4_Iostate@12@B DD 02H		; std::_Iosb<int>::failbit
CONST	ENDS
;	COMDAT ?eofbit@?$_Iosb@H@std@@2W4_Iostate@12@B
CONST	SEGMENT
?eofbit@?$_Iosb@H@std@@2W4_Iostate@12@B DD 01H		; std::_Iosb<int>::eofbit
CONST	ENDS
;	COMDAT ?goodbit@?$_Iosb@H@std@@2W4_Iostate@12@B
CONST	SEGMENT
?goodbit@?$_Iosb@H@std@@2W4_Iostate@12@B DD 00H		; std::_Iosb<int>::goodbit
CONST	ENDS
;	COMDAT ?floatfield@?$_Iosb@H@std@@2W4_Fmtflags@12@B
CONST	SEGMENT
?floatfield@?$_Iosb@H@std@@2W4_Fmtflags@12@B DD 03000H	; std::_Iosb<int>::floatfield
CONST	ENDS
;	COMDAT ?basefield@?$_Iosb@H@std@@2W4_Fmtflags@12@B
CONST	SEGMENT
?basefield@?$_Iosb@H@std@@2W4_Fmtflags@12@B DD 0e00H	; std::_Iosb<int>::basefield
CONST	ENDS
;	COMDAT ?adjustfield@?$_Iosb@H@std@@2W4_Fmtflags@12@B
CONST	SEGMENT
?adjustfield@?$_Iosb@H@std@@2W4_Fmtflags@12@B DD 01c0H	; std::_Iosb<int>::adjustfield
CONST	ENDS
;	COMDAT ?_Stdio@?$_Iosb@H@std@@2W4_Fmtflags@12@B
CONST	SEGMENT
?_Stdio@?$_Iosb@H@std@@2W4_Fmtflags@12@B DD 08000H	; std::_Iosb<int>::_Stdio
CONST	ENDS
;	COMDAT ?boolalpha@?$_Iosb@H@std@@2W4_Fmtflags@12@B
CONST	SEGMENT
?boolalpha@?$_Iosb@H@std@@2W4_Fmtflags@12@B DD 04000H	; std::_Iosb<int>::boolalpha
CONST	ENDS
;	COMDAT ?hexfloat@?$_Iosb@H@std@@2W4_Fmtflags@12@B
CONST	SEGMENT
?hexfloat@?$_Iosb@H@std@@2W4_Fmtflags@12@B DD 03000H	; std::_Iosb<int>::hexfloat
CONST	ENDS
;	COMDAT ?fixed@?$_Iosb@H@std@@2W4_Fmtflags@12@B
CONST	SEGMENT
?fixed@?$_Iosb@H@std@@2W4_Fmtflags@12@B DD 02000H	; std::_Iosb<int>::fixed
CONST	ENDS
;	COMDAT ?scientific@?$_Iosb@H@std@@2W4_Fmtflags@12@B
CONST	SEGMENT
?scientific@?$_Iosb@H@std@@2W4_Fmtflags@12@B DD 01000H	; std::_Iosb<int>::scientific
CONST	ENDS
;	COMDAT ?hex@?$_Iosb@H@std@@2W4_Fmtflags@12@B
CONST	SEGMENT
?hex@?$_Iosb@H@std@@2W4_Fmtflags@12@B DD 0800H		; std::_Iosb<int>::hex
CONST	ENDS
;	COMDAT ?oct@?$_Iosb@H@std@@2W4_Fmtflags@12@B
CONST	SEGMENT
?oct@?$_Iosb@H@std@@2W4_Fmtflags@12@B DD 0400H		; std::_Iosb<int>::oct
CONST	ENDS
;	COMDAT ?dec@?$_Iosb@H@std@@2W4_Fmtflags@12@B
CONST	SEGMENT
?dec@?$_Iosb@H@std@@2W4_Fmtflags@12@B DD 0200H		; std::_Iosb<int>::dec
CONST	ENDS
;	COMDAT ?internal@?$_Iosb@H@std@@2W4_Fmtflags@12@B
CONST	SEGMENT
?internal@?$_Iosb@H@std@@2W4_Fmtflags@12@B DD 0100H	; std::_Iosb<int>::internal
CONST	ENDS
;	COMDAT ?right@?$_Iosb@H@std@@2W4_Fmtflags@12@B
CONST	SEGMENT
?right@?$_Iosb@H@std@@2W4_Fmtflags@12@B DD 080H		; std::_Iosb<int>::right
CONST	ENDS
;	COMDAT ?left@?$_Iosb@H@std@@2W4_Fmtflags@12@B
CONST	SEGMENT
?left@?$_Iosb@H@std@@2W4_Fmtflags@12@B DD 040H		; std::_Iosb<int>::left
CONST	ENDS
;	COMDAT ?showpos@?$_Iosb@H@std@@2W4_Fmtflags@12@B
CONST	SEGMENT
?showpos@?$_Iosb@H@std@@2W4_Fmtflags@12@B DD 020H	; std::_Iosb<int>::showpos
CONST	ENDS
;	COMDAT ?showpoint@?$_Iosb@H@std@@2W4_Fmtflags@12@B
CONST	SEGMENT
?showpoint@?$_Iosb@H@std@@2W4_Fmtflags@12@B DD 010H	; std::_Iosb<int>::showpoint
CONST	ENDS
;	COMDAT ?showbase@?$_Iosb@H@std@@2W4_Fmtflags@12@B
CONST	SEGMENT
?showbase@?$_Iosb@H@std@@2W4_Fmtflags@12@B DD 08H	; std::_Iosb<int>::showbase
CONST	ENDS
;	COMDAT ?uppercase@?$_Iosb@H@std@@2W4_Fmtflags@12@B
CONST	SEGMENT
?uppercase@?$_Iosb@H@std@@2W4_Fmtflags@12@B DD 04H	; std::_Iosb<int>::uppercase
CONST	ENDS
;	COMDAT ?unitbuf@?$_Iosb@H@std@@2W4_Fmtflags@12@B
CONST	SEGMENT
?unitbuf@?$_Iosb@H@std@@2W4_Fmtflags@12@B DD 02H	; std::_Iosb<int>::unitbuf
CONST	ENDS
;	COMDAT ?skipws@?$_Iosb@H@std@@2W4_Fmtflags@12@B
CONST	SEGMENT
?skipws@?$_Iosb@H@std@@2W4_Fmtflags@12@B DD 01H		; std::_Iosb<int>::skipws
CONST	ENDS
;	COMDAT ?value@?$_Sizeof@U_Nil@std@@U12@U12@U12@U12@U12@U12@U12@@std@@2IB
CONST	SEGMENT
?value@?$_Sizeof@U_Nil@std@@U12@U12@U12@U12@U12@U12@U12@@std@@2IB DD 00H ; std::_Sizeof<std::_Nil,std::_Nil,std::_Nil,std::_Nil,std::_Nil,std::_Nil,std::_Nil,std::_Nil>::value
CONST	ENDS
;	COMDAT ?min_exponent10@?$numeric_limits@O@std@@2HB
CONST	SEGMENT
?min_exponent10@?$numeric_limits@O@std@@2HB DD 0fffffecdH ; std::numeric_limits<long double>::min_exponent10
CONST	ENDS
;	COMDAT ?min_exponent@?$numeric_limits@O@std@@2HB
CONST	SEGMENT
?min_exponent@?$numeric_limits@O@std@@2HB DD 0fffffc03H	; std::numeric_limits<long double>::min_exponent
CONST	ENDS
;	COMDAT ?max_exponent10@?$numeric_limits@O@std@@2HB
CONST	SEGMENT
?max_exponent10@?$numeric_limits@O@std@@2HB DD 0134H	; std::numeric_limits<long double>::max_exponent10
CONST	ENDS
;	COMDAT ?max_exponent@?$numeric_limits@O@std@@2HB
CONST	SEGMENT
?max_exponent@?$numeric_limits@O@std@@2HB DD 0400H	; std::numeric_limits<long double>::max_exponent
CONST	ENDS
;	COMDAT ?max_digits10@?$numeric_limits@O@std@@2HB
CONST	SEGMENT
?max_digits10@?$numeric_limits@O@std@@2HB DD 011H	; std::numeric_limits<long double>::max_digits10
CONST	ENDS
;	COMDAT ?digits10@?$numeric_limits@O@std@@2HB
CONST	SEGMENT
?digits10@?$numeric_limits@O@std@@2HB DD 0fH		; std::numeric_limits<long double>::digits10
CONST	ENDS
;	COMDAT ?digits@?$numeric_limits@O@std@@2HB
CONST	SEGMENT
?digits@?$numeric_limits@O@std@@2HB DD 035H		; std::numeric_limits<long double>::digits
CONST	ENDS
;	COMDAT ?min_exponent10@?$numeric_limits@N@std@@2HB
CONST	SEGMENT
?min_exponent10@?$numeric_limits@N@std@@2HB DD 0fffffecdH ; std::numeric_limits<double>::min_exponent10
CONST	ENDS
;	COMDAT ?min_exponent@?$numeric_limits@N@std@@2HB
CONST	SEGMENT
?min_exponent@?$numeric_limits@N@std@@2HB DD 0fffffc03H	; std::numeric_limits<double>::min_exponent
CONST	ENDS
;	COMDAT ?max_exponent10@?$numeric_limits@N@std@@2HB
CONST	SEGMENT
?max_exponent10@?$numeric_limits@N@std@@2HB DD 0134H	; std::numeric_limits<double>::max_exponent10
CONST	ENDS
;	COMDAT ?max_exponent@?$numeric_limits@N@std@@2HB
CONST	SEGMENT
?max_exponent@?$numeric_limits@N@std@@2HB DD 0400H	; std::numeric_limits<double>::max_exponent
CONST	ENDS
;	COMDAT ?max_digits10@?$numeric_limits@N@std@@2HB
CONST	SEGMENT
?max_digits10@?$numeric_limits@N@std@@2HB DD 011H	; std::numeric_limits<double>::max_digits10
CONST	ENDS
;	COMDAT ?digits10@?$numeric_limits@N@std@@2HB
CONST	SEGMENT
?digits10@?$numeric_limits@N@std@@2HB DD 0fH		; std::numeric_limits<double>::digits10
CONST	ENDS
;	COMDAT ?digits@?$numeric_limits@N@std@@2HB
CONST	SEGMENT
?digits@?$numeric_limits@N@std@@2HB DD 035H		; std::numeric_limits<double>::digits
CONST	ENDS
;	COMDAT ?value@?$integral_constant@I$0A@@std@@2IB
CONST	SEGMENT
?value@?$integral_constant@I$0A@@std@@2IB DD 00H	; std::integral_constant<unsigned int,0>::value
CONST	ENDS
;	COMDAT ?min_exponent10@?$numeric_limits@M@std@@2HB
CONST	SEGMENT
?min_exponent10@?$numeric_limits@M@std@@2HB DD 0ffffffdbH ; std::numeric_limits<float>::min_exponent10
CONST	ENDS
;	COMDAT ?min_exponent@?$numeric_limits@M@std@@2HB
CONST	SEGMENT
?min_exponent@?$numeric_limits@M@std@@2HB DD 0ffffff83H	; std::numeric_limits<float>::min_exponent
CONST	ENDS
;	COMDAT ?max_exponent10@?$numeric_limits@M@std@@2HB
CONST	SEGMENT
?max_exponent10@?$numeric_limits@M@std@@2HB DD 026H	; std::numeric_limits<float>::max_exponent10
CONST	ENDS
;	COMDAT ?max_exponent@?$numeric_limits@M@std@@2HB
CONST	SEGMENT
?max_exponent@?$numeric_limits@M@std@@2HB DD 080H	; std::numeric_limits<float>::max_exponent
CONST	ENDS
;	COMDAT ?max_digits10@?$numeric_limits@M@std@@2HB
CONST	SEGMENT
?max_digits10@?$numeric_limits@M@std@@2HB DD 09H	; std::numeric_limits<float>::max_digits10
CONST	ENDS
;	COMDAT ?digits10@?$numeric_limits@M@std@@2HB
CONST	SEGMENT
?digits10@?$numeric_limits@M@std@@2HB DD 06H		; std::numeric_limits<float>::digits10
CONST	ENDS
;	COMDAT ?digits@?$numeric_limits@M@std@@2HB
CONST	SEGMENT
?digits@?$numeric_limits@M@std@@2HB DD 018H		; std::numeric_limits<float>::digits
CONST	ENDS
;	COMDAT ?digits10@?$numeric_limits@_K@std@@2HB
CONST	SEGMENT
?digits10@?$numeric_limits@_K@std@@2HB DD 013H		; std::numeric_limits<unsigned __int64>::digits10
CONST	ENDS
;	COMDAT ?digits@?$numeric_limits@_K@std@@2HB
CONST	SEGMENT
?digits@?$numeric_limits@_K@std@@2HB DD 040H		; std::numeric_limits<unsigned __int64>::digits
CONST	ENDS
;	COMDAT ?is_signed@?$numeric_limits@_K@std@@2_NB
CONST	SEGMENT
?is_signed@?$numeric_limits@_K@std@@2_NB DB 00H		; std::numeric_limits<unsigned __int64>::is_signed
CONST	ENDS
;	COMDAT ?digits10@?$numeric_limits@_J@std@@2HB
CONST	SEGMENT
?digits10@?$numeric_limits@_J@std@@2HB DD 012H		; std::numeric_limits<__int64>::digits10
CONST	ENDS
;	COMDAT ?digits@?$numeric_limits@_J@std@@2HB
CONST	SEGMENT
?digits@?$numeric_limits@_J@std@@2HB DD 03fH		; std::numeric_limits<__int64>::digits
CONST	ENDS
;	COMDAT ?is_signed@?$numeric_limits@_J@std@@2_NB
CONST	SEGMENT
?is_signed@?$numeric_limits@_J@std@@2_NB DB 01H		; std::numeric_limits<__int64>::is_signed
CONST	ENDS
;	COMDAT ?digits10@?$numeric_limits@K@std@@2HB
CONST	SEGMENT
?digits10@?$numeric_limits@K@std@@2HB DD 09H		; std::numeric_limits<unsigned long>::digits10
CONST	ENDS
;	COMDAT ?digits@?$numeric_limits@K@std@@2HB
CONST	SEGMENT
?digits@?$numeric_limits@K@std@@2HB DD 020H		; std::numeric_limits<unsigned long>::digits
CONST	ENDS
;	COMDAT ?is_signed@?$numeric_limits@K@std@@2_NB
CONST	SEGMENT
?is_signed@?$numeric_limits@K@std@@2_NB DB 00H		; std::numeric_limits<unsigned long>::is_signed
CONST	ENDS
;	COMDAT ?digits10@?$numeric_limits@J@std@@2HB
CONST	SEGMENT
?digits10@?$numeric_limits@J@std@@2HB DD 09H		; std::numeric_limits<long>::digits10
CONST	ENDS
;	COMDAT ?digits@?$numeric_limits@J@std@@2HB
CONST	SEGMENT
?digits@?$numeric_limits@J@std@@2HB DD 01fH		; std::numeric_limits<long>::digits
CONST	ENDS
;	COMDAT ?is_signed@?$numeric_limits@J@std@@2_NB
CONST	SEGMENT
?is_signed@?$numeric_limits@J@std@@2_NB DB 01H		; std::numeric_limits<long>::is_signed
CONST	ENDS
;	COMDAT ?digits10@?$numeric_limits@I@std@@2HB
CONST	SEGMENT
?digits10@?$numeric_limits@I@std@@2HB DD 09H		; std::numeric_limits<unsigned int>::digits10
CONST	ENDS
;	COMDAT ?digits@?$numeric_limits@I@std@@2HB
CONST	SEGMENT
?digits@?$numeric_limits@I@std@@2HB DD 020H		; std::numeric_limits<unsigned int>::digits
CONST	ENDS
_DATA	SEGMENT
_cloudPntList DD 0c5bcc000r			; -6040
	DD	0c4070000r			; -540
	DD	0c694ac00r			; -19030
	DD	0c6de1c00r			; -28430
	DD	0c4dfc000r			; -1790
	DD	046dcc800r			; 28260
	DD	047104200r			; 36930
	DD	045732000r			; 3890
	DD	04744ea00r			; 50410
	DD	045336000r			; 2870
	DD	0c4d48000r			; -1700
	DD	04736da00r			; 46810
	DD	0c763ee00r			; -58350
	DD	0c4d48000r			; -1700
	DD	0c64c1000r			; -13060
	DD	046f2bc00r			; 31070
	DD	045480000r			; 3200
	DD	0c7293800r			; -43320
	DD	0c7bdc400r			; -97160
	DD	0c4d48000r			; -1700
	DD	04576e000r			; 3950
	DD	0c792e000r			; -75200
	DD	0c4bb8000r			; -1500
	DD	047957400r			; 76520
	DD	04759ee00r			; 55790
	DD	0c5a1e000r			; -5180
	DD	0c7a24e00r			; -83100
	DD	0c7473800r			; -51000
	DD	0c3a00000r			; -320
	DD	0c7829100r			; -66850
	DD	047733400r			; 62260
	DD	0c3a00000r			; -320
	DD	047708200r			; 61570
	DD	0c7710e00r			; -61710
	DD	0c550c000r			; -3340
	DD	046fb7c00r			; 32190
	DD	0c7719a00r			; -61850
	DD	0c7483200r			; -51250
	DD	047543a00r			; 54330
	DD	0c5bcc000r			; -6040
	DD	0c7495400r			; -51540
	DD	0c694ac00r			; -19030
	DD	0c6a7a800r			; -21460
	DD	0c74b0200r			; -51970
	DD	0468e8000r			; 18240
	DD	047298800r			; 43400
	DD	0c74bf200r			; -52210
	DD	046bc7000r			; 24120
	DD	0c749f400r			; -51700
	DD	0c74bc000r			; -52160
	DD	046948400r			; 19010
	DD	0c605e800r			; -8570
	DD	0c7488200r			; -51330
	DD	0c74ca600r			; -52390
	DD	04731bc00r			; 45500
	DD	0c7509800r			; -53400
	DD	0c6725800r			; -15510
	DD	0c7719a00r			; -61850
	DD	0c7483200r			; -51250
	DD	047543a00r			; 54330
	DD	047553400r			; 54580
	DD	0c74ddc00r			; -52700
	DD	0479a5600r			; 79020
	DD	047a7e400r			; 85960
	DD	0c74c5600r			; -52310
	DD	0477d4800r			; 64840
	DD	0c7c44500r			; -100490
	DD	0c74d1400r			; -52500
	DD	047ac2600r			; 88140
	DD	0c7a1ae00r			; -82780
	DD	0c749ea00r			; -51690
	DD	0c7bce300r			; -96710
	DD	0c6126800r			; -9370
	DD	0c7495400r			; -51540
	DD	043cd0000r			; 410
	DD	0c6a7a800r			; -21460
	DD	0c74a8a00r			; -51850
	DD	0473fae00r			; 49070
	DD	0457c8000r			; 4040
	DD	0c74e4a00r			; -52810
	DD	047871e00r			; 69180
	DD	0c6cbc000r			; -26080
	DD	0c74bc000r			; -52160
	DD	046984400r			; 19490
	DD	0452fa000r			; 2810
	DD	0c7488200r			; -51330
	DD	0c7081800r			; -34840
	DD	0c7719a00r			; -61850
	DD	0c749d600r			; -51670
	DD	047b17600r			; 90860
	DD	047553400r			; 54580
	DD	0c74ddc00r			; -52700
	DD	0479a5600r			; 79020
	DD	047a7e400r			; 85960
	DD	0c74c5600r			; -52310
	DD	0477d4800r			; 64840
	DD	0c7c44500r			; -100490
	DD	0c74d1400r			; -52500
	DD	047ac2600r			; 88140
	DD	047c04e00r			; 98460
	DD	0c74d1400r			; -52500
	DD	0c732a200r			; -45730
	DD	0467b9000r			; 16100
	DD	0c7487800r			; -51320
	DD	0c749a400r			; -51620
	DD	047636c00r			; 58220
	DD	0c74e0400r			; -52740
	DD	0c760b000r			; -57520
	DD	0c6126800r			; -9370
	DD	0c4070000r			; -540
	DD	043cd0000r			; 410
	DD	0c4e60000r			; -1840
	DD	0c6a30c00r			; -20870
	DD	0470a6600r			; 35430
	DD	0c7230c00r			; -41740
	DD	046924000r			; 18720
	DD	04797d600r			; 77740
	DD	0460d9000r			; 9060
	DD	0c616c800r			; -9650
	DD	0c7921300r			; -74790
_lightningPosList DD 041300000r			; 11
	DD	000000000r			; 0
	DD	040e00000r			; 7
	DD	040a00000r			; 5
	DD	041100000r			; 9
	DD	041000000r			; 8
	DD	041000000r			; 8
	DD	041600000r			; 14
	DD	041800000r			; 16
	DD	041a00000r			; 20
	DD	041200000r			; 10
	DD	041c00000r			; 24
	DD	041300000r			; 11
	DD	041d80000r			; 27
	DD	040c00000r			; 6
	DD	041f00000r			; 30
	DD	040e00000r			; 7
	DD	042040000r			; 33
	DD	03f800000r			; 1
	DD	042180000r			; 38
	DD	040a00000r			; 5
	DD	042280000r			; 42
	DD	040a00000r			; 5
	DD	042340000r			; 45
	DD	041400000r			; 12
	DD	042400000r			; 48
	DD	041a00000r			; 20
	DD	042500000r			; 52
	DD	041a00000r			; 20
	DD	042680000r			; 58
	DD	041b80000r			; 23
	DD	042740000r			; 61
	DD	041b00000r			; 22
	DD	0427c0000r			; 63
	DD	041b00000r			; 22
	DD	042840000r			; 66
	DD	041c80000r			; 25
	DD	042880000r			; 68
	DD	041a00000r			; 20
	DD	0428c0000r			; 70
	DD	041c00000r			; 24
	DD	042960000r			; 75
	DD	041c00000r			; 24
	DD	0429a0000r			; 77
	DD	041f80000r			; 31
	DD	042a00000r			; 80
	DD	041f80000r			; 31
	DD	042a60000r			; 83
	DD	042040000r			; 33
	DD	042b00000r			; 88
	DD	041f80000r			; 31
	DD	042b80000r			; 92
	DD	0423c0000r			; 47
	DD	042ce0000r			; 103
	DD	042380000r			; 46
	DD	042d20000r			; 105
	DD	0423c0000r			; 47
	DD	042d60000r			; 107
	DD	042340000r			; 45
	DD	042e00000r			; 112
	DD	042400000r			; 48
	DD	042e40000r			; 114
	DD	042380000r			; 46
	DD	042ea0000r			; 117
	DD	0422c0000r			; 43
	DD	043000000r			; 128
_DATA	ENDS
;	COMDAT ?is_signed@?$numeric_limits@I@std@@2_NB
CONST	SEGMENT
?is_signed@?$numeric_limits@I@std@@2_NB DB 00H		; std::numeric_limits<unsigned int>::is_signed
CONST	ENDS
;	COMDAT ?table_size@?$ctype@D@std@@2IB
CONST	SEGMENT
?table_size@?$ctype@D@std@@2IB DD 0100H			; std::ctype<char>::table_size
CONST	ENDS
;	COMDAT ?digits10@?$numeric_limits@H@std@@2HB
CONST	SEGMENT
?digits10@?$numeric_limits@H@std@@2HB DD 09H		; std::numeric_limits<int>::digits10
CONST	ENDS
;	COMDAT ?digits@?$numeric_limits@H@std@@2HB
CONST	SEGMENT
?digits@?$numeric_limits@H@std@@2HB DD 01fH		; std::numeric_limits<int>::digits
CONST	ENDS
;	COMDAT ?value@?$_Sizeof@HU_Nil@std@@U12@U12@U12@U12@U12@U12@@std@@2IB
CONST	SEGMENT
?value@?$_Sizeof@HU_Nil@std@@U12@U12@U12@U12@U12@U12@@std@@2IB DD 01H ; std::_Sizeof<int,std::_Nil,std::_Nil,std::_Nil,std::_Nil,std::_Nil,std::_Nil,std::_Nil>::value
CONST	ENDS
;	COMDAT ?is_signed@?$numeric_limits@H@std@@2_NB
CONST	SEGMENT
?is_signed@?$numeric_limits@H@std@@2_NB DB 01H		; std::numeric_limits<int>::is_signed
CONST	ENDS
;	COMDAT ?digits10@?$numeric_limits@G@std@@2HB
CONST	SEGMENT
?digits10@?$numeric_limits@G@std@@2HB DD 04H		; std::numeric_limits<unsigned short>::digits10
CONST	ENDS
;	COMDAT ?digits@?$numeric_limits@G@std@@2HB
CONST	SEGMENT
?digits@?$numeric_limits@G@std@@2HB DD 010H		; std::numeric_limits<unsigned short>::digits
CONST	ENDS
;	COMDAT ?is_signed@?$numeric_limits@G@std@@2_NB
CONST	SEGMENT
?is_signed@?$numeric_limits@G@std@@2_NB DB 00H		; std::numeric_limits<unsigned short>::is_signed
CONST	ENDS
CONST	SEGMENT
_NEAR_CLIP DD	03f800000r			; 1
_MAVERICK_SLEW_RATE DD 03d4ccccdr		; 0.05
_L_2	DD	03f317218r			; 0.693147
CONST	ENDS
;	COMDAT ?digits10@?$numeric_limits@F@std@@2HB
CONST	SEGMENT
?digits10@?$numeric_limits@F@std@@2HB DD 04H		; std::numeric_limits<short>::digits10
CONST	ENDS
;	COMDAT ?digits@?$numeric_limits@F@std@@2HB
CONST	SEGMENT
?digits@?$numeric_limits@F@std@@2HB DD 0fH		; std::numeric_limits<short>::digits
CONST	ENDS
;	COMDAT ?none@?$_Locbase@H@std@@2HB
CONST	SEGMENT
?none@?$_Locbase@H@std@@2HB DD 00H			; std::_Locbase<int>::none
CONST	ENDS
;	COMDAT ?is_signed@?$numeric_limits@F@std@@2_NB
CONST	SEGMENT
?is_signed@?$numeric_limits@F@std@@2_NB DB 01H		; std::numeric_limits<short>::is_signed
CONST	ENDS
;	COMDAT ?all@?$_Locbase@H@std@@2HB
CONST	SEGMENT
?all@?$_Locbase@H@std@@2HB DD 03fH			; std::_Locbase<int>::all
CONST	ENDS
;	COMDAT ?messages@?$_Locbase@H@std@@2HB
CONST	SEGMENT
?messages@?$_Locbase@H@std@@2HB DD 020H			; std::_Locbase<int>::messages
CONST	ENDS
;	COMDAT ?time@?$_Locbase@H@std@@2HB
CONST	SEGMENT
?time@?$_Locbase@H@std@@2HB DD 010H			; std::_Locbase<int>::time
CONST	ENDS
;	COMDAT ?numeric@?$_Locbase@H@std@@2HB
CONST	SEGMENT
?numeric@?$_Locbase@H@std@@2HB DD 08H			; std::_Locbase<int>::numeric
CONST	ENDS
;	COMDAT ?CMPDIRTYDATA_INTERVAL@FalconEntity@@2KB
CONST	SEGMENT
?CMPDIRTYDATA_INTERVAL@FalconEntity@@2KB DD 0c8H	; FalconEntity::CMPDIRTYDATA_INTERVAL
CONST	ENDS
;	COMDAT ?monetary@?$_Locbase@H@std@@2HB
CONST	SEGMENT
?monetary@?$_Locbase@H@std@@2HB DD 04H			; std::_Locbase<int>::monetary
CONST	ENDS
;	COMDAT ?SIMDIRTYDATA_INTERVAL@FalconEntity@@2KB
CONST	SEGMENT
?SIMDIRTYDATA_INTERVAL@FalconEntity@@2KB DD 0c8H	; FalconEntity::SIMDIRTYDATA_INTERVAL
CONST	ENDS
;	COMDAT ?ctype@?$_Locbase@H@std@@2HB
CONST	SEGMENT
?ctype@?$_Locbase@H@std@@2HB DD 02H			; std::_Locbase<int>::ctype
CONST	ENDS
;	COMDAT ?collate@?$_Locbase@H@std@@2HB
CONST	SEGMENT
?collate@?$_Locbase@H@std@@2HB DD 01H			; std::_Locbase<int>::collate
CONST	ENDS
;	COMDAT ?digits10@?$numeric_limits@E@std@@2HB
CONST	SEGMENT
?digits10@?$numeric_limits@E@std@@2HB DD 02H		; std::numeric_limits<unsigned char>::digits10
CONST	ENDS
;	COMDAT ?digits@?$numeric_limits@E@std@@2HB
CONST	SEGMENT
?digits@?$numeric_limits@E@std@@2HB DD 08H		; std::numeric_limits<unsigned char>::digits
CONST	ENDS
;	COMDAT ?is_signed@?$numeric_limits@E@std@@2_NB
CONST	SEGMENT
?is_signed@?$numeric_limits@E@std@@2_NB DB 00H		; std::numeric_limits<unsigned char>::is_signed
CONST	ENDS
;	COMDAT ?digits10@?$numeric_limits@C@std@@2HB
CONST	SEGMENT
?digits10@?$numeric_limits@C@std@@2HB DD 02H		; std::numeric_limits<signed char>::digits10
CONST	ENDS
;	COMDAT ?digits@?$numeric_limits@C@std@@2HB
CONST	SEGMENT
?digits@?$numeric_limits@C@std@@2HB DD 07H		; std::numeric_limits<signed char>::digits
CONST	ENDS
;	COMDAT ?is_signed@?$numeric_limits@C@std@@2_NB
CONST	SEGMENT
?is_signed@?$numeric_limits@C@std@@2_NB DB 01H		; std::numeric_limits<signed char>::is_signed
CONST	ENDS
PUBLIC	_fabsf
PUBLIC	_acosf
PUBLIC	_atanf
PUBLIC	_cosf
PUBLIC	_sinf
PUBLIC	_tanf
PUBLIC	?acos@@YAMM@Z					; acos
PUBLIC	?atan@@YAMM@Z					; atan
PUBLIC	?cos@@YAMM@Z					; cos
PUBLIC	?fabs@@YAMM@Z					; fabs
PUBLIC	?sin@@YAMM@Z					; sin
PUBLIC	?tan@@YAMM@Z					; tan
PUBLIC	??2@YAPAXIPAX@Z					; operator new
PUBLIC	??3@YAXPAX0@Z					; operator delete
PUBLIC	?length@?$char_traits@D@std@@SAIPBD@Z		; std::char_traits<char>::length
PUBLIC	?copy@?$char_traits@D@std@@SAPADPADPBDI@Z	; std::char_traits<char>::copy
PUBLIC	?move@?$char_traits@D@std@@SAPADPADPBDI@Z	; std::char_traits<char>::move
PUBLIC	?assign@?$char_traits@D@std@@SAXAADABD@Z	; std::char_traits<char>::assign
PUBLIC	??0?$allocator@D@std@@QAE@XZ			; std::allocator<char>::allocator<char>
PUBLIC	?deallocate@?$allocator@D@std@@QAEXPADI@Z	; std::allocator<char>::deallocate
PUBLIC	?allocate@?$allocator@D@std@@QAEPADI@Z		; std::allocator<char>::allocate
PUBLIC	?max_size@?$allocator@D@std@@QBEIXZ		; std::allocator<char>::max_size
PUBLIC	?max_size@?$allocator_traits@V?$allocator@D@std@@@std@@SAIABV?$allocator@D@2@@Z ; std::allocator_traits<std::allocator<char> >::max_size
PUBLIC	??0?$_Wrap_alloc@V?$allocator@D@std@@@std@@QAE@XZ ; std::_Wrap_alloc<std::allocator<char> >::_Wrap_alloc<std::allocator<char> >
PUBLIC	?allocate@?$_Wrap_alloc@V?$allocator@D@std@@@std@@QAEPADI@Z ; std::_Wrap_alloc<std::allocator<char> >::allocate
PUBLIC	?deallocate@?$_Wrap_alloc@V?$allocator@D@std@@@std@@QAEXPADI@Z ; std::_Wrap_alloc<std::allocator<char> >::deallocate
PUBLIC	?max_size@?$_Wrap_alloc@V?$allocator@D@std@@@std@@QBEIXZ ; std::_Wrap_alloc<std::allocator<char> >::max_size
PUBLIC	??0?$_String_val@U?$_Simple_types@D@std@@@std@@QAE@XZ ; std::_String_val<std::_Simple_types<char> >::_String_val<std::_Simple_types<char> >
PUBLIC	?_Myptr@?$_String_val@U?$_Simple_types@D@std@@@std@@QAEPADXZ ; std::_String_val<std::_Simple_types<char> >::_Myptr
PUBLIC	?_Myptr@?$_String_val@U?$_Simple_types@D@std@@@std@@QBEPBDXZ ; std::_String_val<std::_Simple_types<char> >::_Myptr
PUBLIC	??0?$_String_alloc@$0A@U?$_String_base_types@DV?$allocator@D@std@@@std@@@std@@QAE@ABV?$allocator@D@1@@Z ; std::_String_alloc<0,std::_String_base_types<char,std::allocator<char> > >::_String_alloc<0,std::_String_base_types<char,std::allocator<char> > >
PUBLIC	?_Getal@?$_String_alloc@$0A@U?$_String_base_types@DV?$allocator@D@std@@@std@@@std@@QBE?AU?$_Wrap_alloc@V?$allocator@D@std@@@2@XZ ; std::_String_alloc<0,std::_String_base_types<char,std::allocator<char> > >::_Getal
PUBLIC	??0?$basic_string@DU?$char_traits@D@std@@V?$allocator@D@2@@std@@QAE@PBD@Z ; std::basic_string<char,std::char_traits<char>,std::allocator<char> >::basic_string<char,std::char_traits<char>,std::allocator<char> >
PUBLIC	?assign@?$basic_string@DU?$char_traits@D@std@@V?$allocator@D@2@@std@@QAEAAV12@ABV12@II@Z ; std::basic_string<char,std::char_traits<char>,std::allocator<char> >::assign
PUBLIC	?assign@?$basic_string@DU?$char_traits@D@std@@V?$allocator@D@2@@std@@QAEAAV12@PBDI@Z ; std::basic_string<char,std::char_traits<char>,std::allocator<char> >::assign
PUBLIC	?assign@?$basic_string@DU?$char_traits@D@std@@V?$allocator@D@2@@std@@QAEAAV12@PBD@Z ; std::basic_string<char,std::char_traits<char>,std::allocator<char> >::assign
PUBLIC	?erase@?$basic_string@DU?$char_traits@D@std@@V?$allocator@D@2@@std@@QAEAAV12@I@Z ; std::basic_string<char,std::char_traits<char>,std::allocator<char> >::erase
PUBLIC	?erase@?$basic_string@DU?$char_traits@D@std@@V?$allocator@D@2@@std@@QAEAAV12@II@Z ; std::basic_string<char,std::char_traits<char>,std::allocator<char> >::erase
PUBLIC	?size@?$basic_string@DU?$char_traits@D@std@@V?$allocator@D@2@@std@@QBEIXZ ; std::basic_string<char,std::char_traits<char>,std::allocator<char> >::size
PUBLIC	?max_size@?$basic_string@DU?$char_traits@D@std@@V?$allocator@D@2@@std@@QBEIXZ ; std::basic_string<char,std::char_traits<char>,std::allocator<char> >::max_size
PUBLIC	?_Copy@?$basic_string@DU?$char_traits@D@std@@V?$allocator@D@2@@std@@QAEXII@Z ; std::basic_string<char,std::char_traits<char>,std::allocator<char> >::_Copy
PUBLIC	?_Eos@?$basic_string@DU?$char_traits@D@std@@V?$allocator@D@2@@std@@QAEXI@Z ; std::basic_string<char,std::char_traits<char>,std::allocator<char> >::_Eos
PUBLIC	?_Grow@?$basic_string@DU?$char_traits@D@std@@V?$allocator@D@2@@std@@QAE_NI_N@Z ; std::basic_string<char,std::char_traits<char>,std::allocator<char> >::_Grow
PUBLIC	?_Inside@?$basic_string@DU?$char_traits@D@std@@V?$allocator@D@2@@std@@QAE_NPBD@Z ; std::basic_string<char,std::char_traits<char>,std::allocator<char> >::_Inside
PUBLIC	?_Tidy@?$basic_string@DU?$char_traits@D@std@@V?$allocator@D@2@@std@@QAEX_NI@Z ; std::basic_string<char,std::char_traits<char>,std::allocator<char> >::_Tidy
PUBLIC	?_Xlen@?$basic_string@DU?$char_traits@D@std@@V?$allocator@D@2@@std@@QBEXXZ ; std::basic_string<char,std::char_traits<char>,std::allocator<char> >::_Xlen
PUBLIC	?_Xran@?$basic_string@DU?$char_traits@D@std@@V?$allocator@D@2@@std@@QBEXXZ ; std::basic_string<char,std::char_traits<char>,std::allocator<char> >::_Xran
PUBLIC	??0id@locale@std@@QAE@I@Z			; std::locale::id::id
PUBLIC	?generic_category@std@@YAABVerror_category@1@XZ	; std::generic_category
PUBLIC	?system_category@std@@YAABVerror_category@1@XZ	; std::system_category
PUBLIC	??0error_category@std@@QAE@XZ			; std::error_category::error_category
PUBLIC	??1error_category@std@@UAE@XZ			; std::error_category::~error_category
PUBLIC	?default_error_condition@error_category@std@@UBE?AVerror_condition@2@H@Z ; std::error_category::default_error_condition
PUBLIC	?equivalent@error_category@std@@UBE_NHABVerror_condition@2@@Z ; std::error_category::equivalent
PUBLIC	?equivalent@error_category@std@@UBE_NABVerror_code@2@H@Z ; std::error_category::equivalent
PUBLIC	??8error_category@std@@QBE_NABV01@@Z		; std::error_category::operator==
PUBLIC	??_Gerror_category@std@@UAEPAXI@Z		; std::error_category::`scalar deleting destructor'
PUBLIC	?value@error_code@std@@QBEHXZ			; std::error_code::value
PUBLIC	?category@error_code@std@@QBEABVerror_category@2@XZ ; std::error_code::category
PUBLIC	??0error_condition@std@@QAE@HABVerror_category@1@@Z ; std::error_condition::error_condition
PUBLIC	?value@error_condition@std@@QBEHXZ		; std::error_condition::value
PUBLIC	?category@error_condition@std@@QBEABVerror_category@2@XZ ; std::error_condition::category
PUBLIC	??8error_condition@std@@QBE_NABV01@@Z		; std::error_condition::operator==
PUBLIC	??0_Generic_error_category@std@@QAE@XZ		; std::_Generic_error_category::_Generic_error_category
PUBLIC	?name@_Generic_error_category@std@@UBEPBDXZ	; std::_Generic_error_category::name
PUBLIC	?message@_Generic_error_category@std@@UBE?AV?$basic_string@DU?$char_traits@D@std@@V?$allocator@D@2@@2@H@Z ; std::_Generic_error_category::message
PUBLIC	??1_Generic_error_category@std@@UAE@XZ		; std::_Generic_error_category::~_Generic_error_category
PUBLIC	??_G_Generic_error_category@std@@UAEPAXI@Z	; std::_Generic_error_category::`scalar deleting destructor'
PUBLIC	??0_Iostream_error_category@std@@QAE@XZ		; std::_Iostream_error_category::_Iostream_error_category
PUBLIC	?name@_Iostream_error_category@std@@UBEPBDXZ	; std::_Iostream_error_category::name
PUBLIC	?message@_Iostream_error_category@std@@UBE?AV?$basic_string@DU?$char_traits@D@std@@V?$allocator@D@2@@2@H@Z ; std::_Iostream_error_category::message
PUBLIC	??1_Iostream_error_category@std@@UAE@XZ		; std::_Iostream_error_category::~_Iostream_error_category
PUBLIC	??_G_Iostream_error_category@std@@UAEPAXI@Z	; std::_Iostream_error_category::`scalar deleting destructor'
PUBLIC	??0_System_error_category@std@@QAE@XZ		; std::_System_error_category::_System_error_category
PUBLIC	?name@_System_error_category@std@@UBEPBDXZ	; std::_System_error_category::name
PUBLIC	?message@_System_error_category@std@@UBE?AV?$basic_string@DU?$char_traits@D@std@@V?$allocator@D@2@@2@H@Z ; std::_System_error_category::message
PUBLIC	?default_error_condition@_System_error_category@std@@UBE?AVerror_condition@2@H@Z ; std::_System_error_category::default_error_condition
PUBLIC	??1_System_error_category@std@@UAE@XZ		; std::_System_error_category::~_System_error_category
PUBLIC	??_G_System_error_category@std@@UAEPAXI@Z	; std::_System_error_category::`scalar deleting destructor'
PUBLIC	?SetYPR@VuEntity@@QAEXMMM@Z			; VuEntity::SetYPR
PUBLIC	?XPos@VuEntity@@QBEMXZ				; VuEntity::XPos
PUBLIC	?YPos@VuEntity@@QBEMXZ				; VuEntity::YPos
PUBLIC	?ZPos@VuEntity@@QBEMXZ				; VuEntity::ZPos
PUBLIC	?Yaw@VuEntity@@QBEMXZ				; VuEntity::Yaw
PUBLIC	?Pitch@VuEntity@@QBEMXZ				; VuEntity::Pitch
PUBLIC	?Roll@VuEntity@@QBEMXZ				; VuEntity::Roll
PUBLIC	?IsSim@FalconEntity@@QAEHXZ			; FalconEntity::IsSim
PUBLIC	?IsSimObjective@FalconEntity@@QAEHXZ		; FalconEntity::IsSimObjective
PUBLIC	?IsSetFalcFlag@FalconEntity@@QAEHH@Z		; FalconEntity::IsSetFalcFlag
PUBLIC	?IsPlayer@FalconEntity@@QAEHXZ			; FalconEntity::IsPlayer
PUBLIC	?mlSinCos@@YAXPAUmlTrig@@M@Z			; mlSinCos
PUBLIC	?checked_atan2@@YANNN@Z				; checked_atan2
PUBLIC	?CurrentTarget@SensorClass@@QAEPAVSimObjectType@@XZ ; SensorClass::CurrentTarget
PUBLIC	?SeekerAz@SensorClass@@QAEMXZ			; SensorClass::SeekerAz
PUBLIC	?SeekerEl@SensorClass@@QAEMXZ			; SensorClass::SeekerEl
PUBLIC	??B?$VuBin@VSimWeaponClass@@@@QBE_NXZ		; VuBin<SimWeaponClass>::operator bool
PUBLIC	??B?$VuBin@VFalconEntity@@@@QBE_NXZ		; VuBin<FalconEntity>::operator bool
PUBLIC	?get@?$VuBin@VFalconEntity@@@@QBEPAVFalconEntity@@XZ ; VuBin<FalconEntity>::get
PUBLIC	?AirGroundMissileMode@FireControlComputer@@AAEXXZ ; FireControlComputer::AirGroundMissileMode
PUBLIC	?MaverickMode@FireControlComputer@@AAEXXZ	; FireControlComputer::MaverickMode
PUBLIC	?MavCheckLock@FireControlComputer@@AAEPAVSimObjectType@@PAVMissileClass@@@Z ; FireControlComputer::MavCheckLock
PUBLIC	?FindGroundIntersection@FireControlComputer@@AAEHMMPAM00@Z ; FireControlComputer::FindGroundIntersection
PUBLIC	?CheckFeatures@FireControlComputer@@AAEXPAVMissileClass@@@Z ; FireControlComputer::CheckFeatures
PUBLIC	?UpdateGroundObjectRelativeGeometry@FireControlComputer@@AAEXXZ ; FireControlComputer::UpdateGroundObjectRelativeGeometry
PUBLIC	?GetWEZmax@MissileClass@@QAEMXZ			; MissileClass::GetWEZmax
PUBLIC	?GetWEZmin@MissileClass@@QAEMXZ			; MissileClass::GetWEZmin
PUBLIC	?SetTargetPosition@MissileClass@@QAEXMMM@Z	; MissileClass::SetTargetPosition
PUBLIC	?GetAvionicsType@PlayerOptionsClass@@QAEHXZ	; PlayerOptionsClass::GetAvionicsType
PUBLIC	?AutopilotType@AircraftClass@@QAE?AW4AutoPilotType@1@XZ ; AircraftClass::AutopilotType
PUBLIC	?CurHardpoint@SMSBaseClass@@QAEHXZ		; SMSBaseClass::CurHardpoint
PUBLIC	?SetXYZ@MissileDisplayClass@@QAEXMMM@Z		; MissileDisplayClass::SetXYZ
PUBLIC	?GetYPR@MissileDisplayClass@@QAEXPAM00@Z	; MissileDisplayClass::GetYPR
PUBLIC	?SetYPR@MissileDisplayClass@@QAEXMMM@Z		; MissileDisplayClass::SetYPR
PUBLIC	?SetTarget@MaverickDisplayClass@@QAEXH@Z	; MaverickDisplayClass::SetTarget
PUBLIC	?CurFOV@MaverickDisplayClass@@QAEMXZ		; MaverickDisplayClass::CurFOV
PUBLIC	?IsLocked@MaverickDisplayClass@@QAEHXZ		; MaverickDisplayClass::IsLocked
PUBLIC	?BaseData@SimObjectType@@QAEPAVFalconEntity@@XZ	; SimObjectType::BaseData
PUBLIC	?AnalogIsUsed@SIMLIB_IO_CLASS@@QAE_NW4GameAxis_t@@@Z ; SIMLIB_IO_CLASS::AnalogIsUsed
PUBLIC	??$construct@PADAAPAD@?$_Wrap_alloc@V?$allocator@D@std@@@std@@QAEXPAPADAAPAD@Z ; std::_Wrap_alloc<std::allocator<char> >::construct<char *,char * &>
PUBLIC	??$destroy@PAD@?$_Wrap_alloc@V?$allocator@D@std@@@std@@QAEXPAPAD@Z ; std::_Wrap_alloc<std::allocator<char> >::destroy<char *>
PUBLIC	??$addressof@D@std@@YAPADAAD@Z			; std::addressof<char>
PUBLIC	??$_Allocate@D@std@@YAPADIPAD@Z			; std::_Allocate<char>
PUBLIC	??$forward@AAPAD@std@@YAAAPADAAPAD@Z		; std::forward<char * &>
PUBLIC	??$construct@PADAAPAD@?$allocator_traits@V?$allocator@D@std@@@std@@SAXAAV?$allocator@D@1@PAPADAAPAD@Z ; std::allocator_traits<std::allocator<char> >::construct<char *,char * &>
PUBLIC	??$destroy@PAD@?$allocator_traits@V?$allocator@D@std@@@std@@SAXAAV?$allocator@D@1@PAPAD@Z ; std::allocator_traits<std::allocator<char> >::destroy<char *>
PUBLIC	??$construct@PADAAPAD@?$allocator@D@std@@QAEXPAPADAAPAD@Z ; std::allocator<char>::construct<char *,char * &>
PUBLIC	??$destroy@PAD@?$allocator@D@std@@QAEXPAPAD@Z	; std::allocator<char>::destroy<char *>
PUBLIC	??_7error_category@std@@6B@			; std::error_category::`vftable'
PUBLIC	??_7_Generic_error_category@std@@6B@		; std::_Generic_error_category::`vftable'
PUBLIC	??_C@_07DCLBNMLN@generic?$AA@			; `string'
PUBLIC	??_C@_0O@BFJCFAAK@unknown?5error?$AA@		; `string'
PUBLIC	??_7_Iostream_error_category@std@@6B@		; std::_Iostream_error_category::`vftable'
PUBLIC	??_C@_08LLGCOLLL@iostream?$AA@			; `string'
PUBLIC	??_C@_0BG@PADBLCHM@iostream?5stream?5error?$AA@	; `string'
PUBLIC	??_7_System_error_category@std@@6B@		; std::_System_error_category::`vftable'
PUBLIC	??_C@_06FHFOAHML@system?$AA@			; `string'
PUBLIC	?_Generic_object@?$_Error_objects@H@std@@2V_Generic_error_category@2@A ; std::_Error_objects<int>::_Generic_object
PUBLIC	?_Iostream_object@?$_Error_objects@H@std@@2V_Iostream_error_category@2@A ; std::_Error_objects<int>::_Iostream_object
PUBLIC	?_System_object@?$_Error_objects@H@std@@2V_System_error_category@2@A ; std::_Error_objects<int>::_System_object
PUBLIC	?id@?$num_put@DV?$back_insert_iterator@V?$basic_string@DU?$char_traits@D@std@@V?$allocator@D@2@@std@@@std@@@std@@2V0locale@2@A ; std::num_put<char,std::back_insert_iterator<std::basic_string<char,std::char_traits<char>,std::allocator<char> > > >::id
PUBLIC	?id@?$num_put@_WV?$back_insert_iterator@V?$basic_string@_WU?$char_traits@_W@std@@V?$allocator@_W@2@@std@@@std@@@std@@2V0locale@2@A ; std::num_put<wchar_t,std::back_insert_iterator<std::basic_string<wchar_t,std::char_traits<wchar_t>,std::allocator<wchar_t> > > >::id
PUBLIC	?id@?$numpunct@D@std@@2V0locale@2@A		; std::numpunct<char>::id
PUBLIC	?id@?$numpunct@_W@std@@2V0locale@2@A		; std::numpunct<wchar_t>::id
PUBLIC	??_C@_0BI@CFPLBAOH@invalid?5string?5position?$AA@ ; `string'
PUBLIC	??_C@_0BA@JFNIOLAK@string?5too?5long?$AA@	; `string'
PUBLIC	??_R4error_category@std@@6B@			; std::error_category::`RTTI Complete Object Locator'
PUBLIC	??_R0?AVerror_category@std@@@8			; std::error_category `RTTI Type Descriptor'
PUBLIC	??_R3error_category@std@@8			; std::error_category::`RTTI Class Hierarchy Descriptor'
PUBLIC	??_R2error_category@std@@8			; std::error_category::`RTTI Base Class Array'
PUBLIC	??_R1A@?0A@EA@error_category@std@@8		; std::error_category::`RTTI Base Class Descriptor at (0,-1,0,64)'
PUBLIC	??_R4_Generic_error_category@std@@6B@		; std::_Generic_error_category::`RTTI Complete Object Locator'
PUBLIC	??_R0?AV_Generic_error_category@std@@@8		; std::_Generic_error_category `RTTI Type Descriptor'
PUBLIC	??_R3_Generic_error_category@std@@8		; std::_Generic_error_category::`RTTI Class Hierarchy Descriptor'
PUBLIC	??_R2_Generic_error_category@std@@8		; std::_Generic_error_category::`RTTI Base Class Array'
PUBLIC	??_R1A@?0A@EA@_Generic_error_category@std@@8	; std::_Generic_error_category::`RTTI Base Class Descriptor at (0,-1,0,64)'
PUBLIC	??_R4_Iostream_error_category@std@@6B@		; std::_Iostream_error_category::`RTTI Complete Object Locator'
PUBLIC	??_R0?AV_Iostream_error_category@std@@@8	; std::_Iostream_error_category `RTTI Type Descriptor'
PUBLIC	??_R3_Iostream_error_category@std@@8		; std::_Iostream_error_category::`RTTI Class Hierarchy Descriptor'
PUBLIC	??_R2_Iostream_error_category@std@@8		; std::_Iostream_error_category::`RTTI Base Class Array'
PUBLIC	??_R1A@?0A@EA@_Iostream_error_category@std@@8	; std::_Iostream_error_category::`RTTI Base Class Descriptor at (0,-1,0,64)'
PUBLIC	??_R4_System_error_category@std@@6B@		; std::_System_error_category::`RTTI Complete Object Locator'
PUBLIC	??_R0?AV_System_error_category@std@@@8		; std::_System_error_category `RTTI Type Descriptor'
PUBLIC	??_R3_System_error_category@std@@8		; std::_System_error_category::`RTTI Class Hierarchy Descriptor'
PUBLIC	??_R2_System_error_category@std@@8		; std::_System_error_category::`RTTI Base Class Array'
PUBLIC	??_R1A@?0A@EA@_System_error_category@std@@8	; std::_System_error_category::`RTTI Base Class Descriptor at (0,-1,0,64)'
PUBLIC	__real@00000000
PUBLIC	__real@0000000000000000
PUBLIC	__real@36fba882
PUBLIC	__real@3716feb5
PUBLIC	__real@38d1b717
PUBLIC	__real@3b64c387
PUBLIC	__real@3c23d70a
PUBLIC	__real@3c8efa34
PUBLIC	__real@3d7a35db
PUBLIC	__real@3d99999a
PUBLIC	__real@3dcccccd
PUBLIC	__real@3e4ccccd
PUBLIC	__real@3f19999a
PUBLIC	__real@3f4ccccd
PUBLIC	__real@3f800000
PUBLIC	__real@3ff921fb54442d18
PUBLIC	__real@40000000
PUBLIC	__real@400921fb54442d18
PUBLIC	__real@40490fdb
PUBLIC	__real@40a00000
PUBLIC	__real@42ca8a53
PUBLIC	__real@45bde1b0
PUBLIC	__real@461c4000
PUBLIC	__real@463b8000
PUBLIC	__real@46a41000
PUBLIC	__real@473de1b0
PUBLIC	__real@47435000
PUBLIC	__real@476d5a1c
PUBLIC	__real@47ed5a1c
PUBLIC	__real@484d1400
PUBLIC	__real@486d5a1c
PUBLIC	__real@48ed5a1c
PUBLIC	__real@496d5a1c
PUBLIC	__real@8000000000000000
PUBLIC	__real@bf800000
PUBLIC	__real@bff921fb54442d18
PUBLIC	__xmm@80000000800000008000000080000000
EXTRN	__purecall:PROC
EXTRN	??2@YAPAXI@Z:PROC				; operator new
EXTRN	??3@YAXPAX@Z:PROC				; operator delete
EXTRN	_atexit:PROC
EXTRN	_acos:PROC
EXTRN	_atan:PROC
EXTRN	_cos:PROC
EXTRN	_fabs:PROC
EXTRN	_sin:PROC
EXTRN	_tan:PROC
EXTRN	_memcpy:PROC
EXTRN	_strlen:PROC
EXTRN	_memmove:PROC
EXTRN	?_Xbad_alloc@std@@YAXXZ:PROC			; std::_Xbad_alloc
EXTRN	?_Xlength_error@std@@YAXPBD@Z:PROC		; std::_Xlength_error
EXTRN	?_Xout_of_range@std@@YAXPBD@Z:PROC		; std::_Xout_of_range
EXTRN	??_Eerror_category@std@@UAEPAXI@Z:PROC		; std::error_category::`vector deleting destructor'
EXTRN	?_Syserror_map@std@@YAPBDH@Z:PROC		; std::_Syserror_map
EXTRN	?_Winerror_map@std@@YAPBDH@Z:PROC		; std::_Winerror_map
EXTRN	??_E_Generic_error_category@std@@UAEPAXI@Z:PROC	; std::_Generic_error_category::`vector deleting destructor'
EXTRN	??_E_Iostream_error_category@std@@UAEPAXI@Z:PROC ; std::_Iostream_error_category::`vector deleting destructor'
EXTRN	??_E_System_error_category@std@@UAEPAXI@Z:PROC	; std::_System_error_category::`vector deleting destructor'
EXTRN	?SetPosition@VuEntity@@QAEXMMM@Z:PROC		; VuEntity::SetPosition
EXTRN	??0VuListIterator@@QAE@PAVVuLinkedList@@@Z:PROC	; VuListIterator::VuListIterator
EXTRN	??1VuListIterator@@UAE@XZ:PROC			; VuListIterator::~VuListIterator
EXTRN	?GetFirst@VuListIterator@@QAEPAVVuEntity@@XZ:PROC ; VuListIterator::GetFirst
EXTRN	?GetNext@VuListIterator@@QAEPAVVuEntity@@XZ:PROC ; VuListIterator::GetNext
EXTRN	?FindSensor@@YAPAVSensorClass@@PAVSimMoverClass@@H@Z:PROC ; FindSensor
EXTRN	?CalcRelGeom@@YAXPAVSimBaseClass@@PAVSimObjectType@@QAY02MM@Z:PROC ; CalcRelGeom
EXTRN	?HarmMode@FireControlComputer@@AAEXXZ:PROC	; FireControlComputer::HarmMode
EXTRN	?ClearCurrentTarget@FireControlComputer@@QAEXXZ:PROC ; FireControlComputer::ClearCurrentTarget
EXTRN	?SetTarget@FireControlComputer@@QAEXPAVSimObjectType@@@Z:PROC ; FireControlComputer::SetTarget
EXTRN	?SetTarget@MissileClass@@QAEXPAVSimObjectType@@@Z:PROC ; MissileClass::SetTarget
EXTRN	?SetSeekerPos@MissileClass@@QAEHPAM0@Z:PROC	; MissileClass::SetSeekerPos
EXTRN	?GetSeekerPos@MissileClass@@QAEXPAM0@Z:PROC	; MissileClass::GetSeekerPos
EXTRN	?RunSeeker@MissileClass@@QAEXXZ:PROC		; MissileClass::RunSeeker
EXTRN	?GetRMax@MissileClass@@QAEMMMMMM@Z:PROC		; MissileClass::GetRMax
EXTRN	?GetTOF@MissileClass@@QAEMMMMMM@Z:PROC		; MissileClass::GetTOF
EXTRN	?GetGroundLevel@OTWDriverClass@@QAEMMMPAUTpoint@@@Z:PROC ; OTWDriverClass::GetGroundLevel
EXTRN	?GetGroundIntersection@OTWDriverClass@@QAEHPAUeuler@@PAUvector@@@Z:PROC ; OTWDriverClass::GetGroundIntersection
EXTRN	?SOIManager@SimVehicleClass@@QAEXW4SOI@1@@Z:PROC ; SimVehicleClass::SOIManager
EXTRN	?WeaponStep@SMSClass@@QAEHH@Z:PROC		; SMSClass::WeaponStep
EXTRN	?ResetCurrentWeapon@SMSClass@@QAEXXZ:PROC	; SMSClass::ResetCurrentWeapon
EXTRN	?LockTarget@MaverickDisplayClass@@QAEXXZ:PROC	; MaverickDisplayClass::LockTarget
EXTRN	?DetectTarget@MaverickDisplayClass@@QAEXXZ:PROC	; MaverickDisplayClass::DetectTarget
EXTRN	?DropTarget@MaverickDisplayClass@@QAEXXZ:PROC	; MaverickDisplayClass::DropTarget
EXTRN	??0SimObjectType@@QAE@PAVFalconEntity@@@Z:PROC	; SimObjectType::SimObjectType
EXTRN	?Reference@SimObjectType@@QAEXXZ:PROC		; SimObjectType::Reference
EXTRN	?Release@SimObjectType@@QAEXXZ:PROC		; SimObjectType::Release
EXTRN	@__security_check_cookie@4:PROC
EXTRN	__CxxThrowException@8:PROC
EXTRN	___CxxFrameHandler3:PROC
EXTRN	??_7type_info@@6B@:QWORD			; type_info::`vftable'
EXTRN	?SimLibMajorFrameTime@@3MA:DWORD		; SimLibMajorFrameTime
EXTRN	?g_bRealisticAvionics@@3_NA:BYTE		; g_bRealisticAvionics
EXTRN	?PlayerOptions@@3VPlayerOptionsClass@@A:BYTE	; PlayerOptions
EXTRN	?OTWDriver@@3VOTWDriverClass@@A:BYTE		; OTWDriver
EXTRN	?SimDriver@@3VSimulationDriver@@A:BYTE		; SimDriver
EXTRN	?cockpitFlightData@@3VFlightData@@A:BYTE	; cockpitFlightData
EXTRN	?IO@@3VSIMLIB_IO_CLASS@@A:BYTE			; IO
EXTRN	?g_fCursorSpeed@@3MA:DWORD			; g_fCursorSpeed
EXTRN	?g_bMavFixes@@3_NA:BYTE				; g_bMavFixes
EXTRN	?g_bMavFix2@@3_NA:BYTE				; g_bMavFix2
EXTRN	___security_cookie:DWORD
EXTRN	__fltused:DWORD
_BSS	SEGMENT
_piecewise_construct DB 01H DUP (?)
	ALIGN	4

_allocator_arg DB 01H DUP (?)
_BSS	ENDS
;	COMDAT ?_Generic_object@?$_Error_objects@H@std@@2V_Generic_error_category@2@A
_BSS	SEGMENT
?_Generic_object@?$_Error_objects@H@std@@2V_Generic_error_category@2@A DD 01H DUP (?) ; std::_Error_objects<int>::_Generic_object
_BSS	ENDS
;	COMDAT ?_Iostream_object@?$_Error_objects@H@std@@2V_Iostream_error_category@2@A
_BSS	SEGMENT
?_Iostream_object@?$_Error_objects@H@std@@2V_Iostream_error_category@2@A DD 01H DUP (?) ; std::_Error_objects<int>::_Iostream_object
_BSS	ENDS
;	COMDAT ?_System_object@?$_Error_objects@H@std@@2V_System_error_category@2@A
_BSS	SEGMENT
?_System_object@?$_Error_objects@H@std@@2V_System_error_category@2@A DD 01H DUP (?) ; std::_Error_objects<int>::_System_object
_BSS	ENDS
;	COMDAT ?id@?$num_put@DV?$back_insert_iterator@V?$basic_string@DU?$char_traits@D@std@@V?$allocator@D@2@@std@@@std@@@std@@2V0locale@2@A
_BSS	SEGMENT
?id@?$num_put@DV?$back_insert_iterator@V?$basic_string@DU?$char_traits@D@std@@V?$allocator@D@2@@std@@@std@@@std@@2V0locale@2@A DD 01H DUP (?) ; std::num_put<char,std::back_insert_iterator<std::basic_string<char,std::char_traits<char>,std::allocator<char> > > >::id
_BSS	ENDS
;	COMDAT ?id@?$num_put@_WV?$back_insert_iterator@V?$basic_string@_WU?$char_traits@_W@std@@V?$allocator@_W@2@@std@@@std@@@std@@2V0locale@2@A
_BSS	SEGMENT
?id@?$num_put@_WV?$back_insert_iterator@V?$basic_string@_WU?$char_traits@_W@std@@V?$allocator@_W@2@@std@@@std@@@std@@2V0locale@2@A DD 01H DUP (?) ; std::num_put<wchar_t,std::back_insert_iterator<std::basic_string<wchar_t,std::char_traits<wchar_t>,std::allocator<wchar_t> > > >::id
_BSS	ENDS
_BSS	SEGMENT
	ALIGN	4

_rangeFOV DD	01H DUP (?)
_BSS	ENDS
;	COMDAT ?id@?$numpunct@D@std@@2V0locale@2@A
_BSS	SEGMENT
?id@?$numpunct@D@std@@2V0locale@2@A DD 01H DUP (?)	; std::numpunct<char>::id
_BSS	ENDS
;	COMDAT ?id@?$numpunct@_W@std@@2V0locale@2@A
_BSS	SEGMENT
?id@?$numpunct@_W@std@@2V0locale@2@A DD 01H DUP (?)	; std::numpunct<wchar_t>::id
_BSS	ENDS
CRT$XCU	SEGMENT
_piecewise_construct$initializer$ DD FLAT:??__Epiecewise_construct@std@@YAXXZ
CRT$XCU	ENDS
;	COMDAT __xmm@80000000800000008000000080000000
CONST	SEGMENT
__xmm@80000000800000008000000080000000 DB 00H, 00H, 00H, 080H, 00H, 00H, 00H
	DB	080H, 00H, 00H, 00H, 080H, 00H, 00H, 00H, 080H
CONST	ENDS
;	COMDAT __real@bff921fb54442d18
CONST	SEGMENT
__real@bff921fb54442d18 DQ 0bff921fb54442d18r	; -1.5708
CONST	ENDS
;	COMDAT __real@bf800000
CONST	SEGMENT
__real@bf800000 DD 0bf800000r			; -1
CONST	ENDS
;	COMDAT __real@8000000000000000
CONST	SEGMENT
__real@8000000000000000 DQ 08000000000000000r	; -0
CONST	ENDS
;	COMDAT __real@496d5a1c
CONST	SEGMENT
__real@496d5a1c DD 0496d5a1cr			; 972194
CONST	ENDS
;	COMDAT __real@48ed5a1c
CONST	SEGMENT
__real@48ed5a1c DD 048ed5a1cr			; 486097
CONST	ENDS
;	COMDAT __real@486d5a1c
CONST	SEGMENT
__real@486d5a1c DD 0486d5a1cr			; 243048
CONST	ENDS
;	COMDAT __real@484d1400
CONST	SEGMENT
__real@484d1400 DD 0484d1400r			; 210000
CONST	ENDS
;	COMDAT __real@47ed5a1c
CONST	SEGMENT
__real@47ed5a1c DD 047ed5a1cr			; 121524
CONST	ENDS
;	COMDAT __real@476d5a1c
CONST	SEGMENT
__real@476d5a1c DD 0476d5a1cr			; 60762.1
CONST	ENDS
;	COMDAT __real@47435000
CONST	SEGMENT
__real@47435000 DD 047435000r			; 50000
CONST	ENDS
;	COMDAT __real@473de1b0
CONST	SEGMENT
__real@473de1b0 DD 0473de1b0r			; 48609.7
CONST	ENDS
;	COMDAT __real@46a41000
CONST	SEGMENT
__real@46a41000 DD 046a41000r			; 21000
CONST	ENDS
;	COMDAT __real@463b8000
CONST	SEGMENT
__real@463b8000 DD 0463b8000r			; 12000
CONST	ENDS
;	COMDAT __real@461c4000
CONST	SEGMENT
__real@461c4000 DD 0461c4000r			; 10000
CONST	ENDS
;	COMDAT __real@45bde1b0
CONST	SEGMENT
__real@45bde1b0 DD 045bde1b0r			; 6076.21
CONST	ENDS
;	COMDAT __real@42ca8a53
CONST	SEGMENT
__real@42ca8a53 DD 042ca8a53r			; 101.27
CONST	ENDS
;	COMDAT __real@40a00000
CONST	SEGMENT
__real@40a00000 DD 040a00000r			; 5
CONST	ENDS
;	COMDAT __real@40490fdb
CONST	SEGMENT
__real@40490fdb DD 040490fdbr			; 3.14159
CONST	ENDS
;	COMDAT __real@400921fb54442d18
CONST	SEGMENT
__real@400921fb54442d18 DQ 0400921fb54442d18r	; 3.14159
CONST	ENDS
;	COMDAT __real@40000000
CONST	SEGMENT
__real@40000000 DD 040000000r			; 2
CONST	ENDS
;	COMDAT __real@3ff921fb54442d18
CONST	SEGMENT
__real@3ff921fb54442d18 DQ 03ff921fb54442d18r	; 1.5708
CONST	ENDS
;	COMDAT __real@3f800000
CONST	SEGMENT
__real@3f800000 DD 03f800000r			; 1
CONST	ENDS
;	COMDAT __real@3f4ccccd
CONST	SEGMENT
__real@3f4ccccd DD 03f4ccccdr			; 0.8
CONST	ENDS
;	COMDAT __real@3f19999a
CONST	SEGMENT
__real@3f19999a DD 03f19999ar			; 0.6
CONST	ENDS
;	COMDAT __real@3e4ccccd
CONST	SEGMENT
__real@3e4ccccd DD 03e4ccccdr			; 0.2
CONST	ENDS
;	COMDAT __real@3dcccccd
CONST	SEGMENT
__real@3dcccccd DD 03dcccccdr			; 0.1
CONST	ENDS
;	COMDAT __real@3d99999a
CONST	SEGMENT
__real@3d99999a DD 03d99999ar			; 0.075
CONST	ENDS
;	COMDAT __real@3d7a35db
CONST	SEGMENT
__real@3d7a35db DD 03d7a35dbr			; 0.0610865
CONST	ENDS
;	COMDAT __real@3c8efa34
CONST	SEGMENT
__real@3c8efa34 DD 03c8efa34r			; 0.0174533
CONST	ENDS
;	COMDAT __real@3c23d70a
CONST	SEGMENT
__real@3c23d70a DD 03c23d70ar			; 0.01
CONST	ENDS
;	COMDAT __real@3b64c387
CONST	SEGMENT
__real@3b64c387 DD 03b64c387r			; 0.00349066
CONST	ENDS
;	COMDAT __real@38d1b717
CONST	SEGMENT
__real@38d1b717 DD 038d1b717r			; 0.0001
CONST	ENDS
;	COMDAT __real@3716feb5
CONST	SEGMENT
__real@3716feb5 DD 03716feb5r			; 9e-006
CONST	ENDS
;	COMDAT __real@36fba882
CONST	SEGMENT
__real@36fba882 DD 036fba882r			; 7.5e-006
CONST	ENDS
;	COMDAT __real@0000000000000000
CONST	SEGMENT
__real@0000000000000000 DQ 00000000000000000r	; 0
CONST	ENDS
;	COMDAT __real@00000000
CONST	SEGMENT
__real@00000000 DD 000000000r			; 0
CONST	ENDS
;	COMDAT ??_R1A@?0A@EA@_System_error_category@std@@8
rdata$r	SEGMENT
??_R1A@?0A@EA@_System_error_category@std@@8 DD FLAT:??_R0?AV_System_error_category@std@@@8 ; std::_System_error_category::`RTTI Base Class Descriptor at (0,-1,0,64)'
	DD	02H
	DD	00H
	DD	0ffffffffH
	DD	00H
	DD	040H
	DD	FLAT:??_R3_System_error_category@std@@8
rdata$r	ENDS
;	COMDAT ??_R2_System_error_category@std@@8
rdata$r	SEGMENT
??_R2_System_error_category@std@@8 DD FLAT:??_R1A@?0A@EA@_System_error_category@std@@8 ; std::_System_error_category::`RTTI Base Class Array'
	DD	FLAT:??_R1A@?0A@EA@_Generic_error_category@std@@8
	DD	FLAT:??_R1A@?0A@EA@error_category@std@@8
rdata$r	ENDS
;	COMDAT ??_R3_System_error_category@std@@8
rdata$r	SEGMENT
??_R3_System_error_category@std@@8 DD 00H		; std::_System_error_category::`RTTI Class Hierarchy Descriptor'
	DD	00H
	DD	03H
	DD	FLAT:??_R2_System_error_category@std@@8
rdata$r	ENDS
;	COMDAT ??_R0?AV_System_error_category@std@@@8
_DATA	SEGMENT
??_R0?AV_System_error_category@std@@@8 DD FLAT:??_7type_info@@6B@ ; std::_System_error_category `RTTI Type Descriptor'
	DD	00H
	DB	'.?AV_System_error_category@std@@', 00H
_DATA	ENDS
;	COMDAT ??_R4_System_error_category@std@@6B@
rdata$r	SEGMENT
??_R4_System_error_category@std@@6B@ DD 00H		; std::_System_error_category::`RTTI Complete Object Locator'
	DD	00H
	DD	00H
	DD	FLAT:??_R0?AV_System_error_category@std@@@8
	DD	FLAT:??_R3_System_error_category@std@@8
rdata$r	ENDS
;	COMDAT ??_R1A@?0A@EA@_Iostream_error_category@std@@8
rdata$r	SEGMENT
??_R1A@?0A@EA@_Iostream_error_category@std@@8 DD FLAT:??_R0?AV_Iostream_error_category@std@@@8 ; std::_Iostream_error_category::`RTTI Base Class Descriptor at (0,-1,0,64)'
	DD	02H
	DD	00H
	DD	0ffffffffH
	DD	00H
	DD	040H
	DD	FLAT:??_R3_Iostream_error_category@std@@8
rdata$r	ENDS
;	COMDAT ??_R2_Iostream_error_category@std@@8
rdata$r	SEGMENT
??_R2_Iostream_error_category@std@@8 DD FLAT:??_R1A@?0A@EA@_Iostream_error_category@std@@8 ; std::_Iostream_error_category::`RTTI Base Class Array'
	DD	FLAT:??_R1A@?0A@EA@_Generic_error_category@std@@8
	DD	FLAT:??_R1A@?0A@EA@error_category@std@@8
rdata$r	ENDS
;	COMDAT ??_R3_Iostream_error_category@std@@8
rdata$r	SEGMENT
??_R3_Iostream_error_category@std@@8 DD 00H		; std::_Iostream_error_category::`RTTI Class Hierarchy Descriptor'
	DD	00H
	DD	03H
	DD	FLAT:??_R2_Iostream_error_category@std@@8
rdata$r	ENDS
;	COMDAT ??_R0?AV_Iostream_error_category@std@@@8
_DATA	SEGMENT
??_R0?AV_Iostream_error_category@std@@@8 DD FLAT:??_7type_info@@6B@ ; std::_Iostream_error_category `RTTI Type Descriptor'
	DD	00H
	DB	'.?AV_Iostream_error_category@std@@', 00H
_DATA	ENDS
;	COMDAT ??_R4_Iostream_error_category@std@@6B@
rdata$r	SEGMENT
??_R4_Iostream_error_category@std@@6B@ DD 00H		; std::_Iostream_error_category::`RTTI Complete Object Locator'
	DD	00H
	DD	00H
	DD	FLAT:??_R0?AV_Iostream_error_category@std@@@8
	DD	FLAT:??_R3_Iostream_error_category@std@@8
rdata$r	ENDS
;	COMDAT ??_R1A@?0A@EA@_Generic_error_category@std@@8
rdata$r	SEGMENT
??_R1A@?0A@EA@_Generic_error_category@std@@8 DD FLAT:??_R0?AV_Generic_error_category@std@@@8 ; std::_Generic_error_category::`RTTI Base Class Descriptor at (0,-1,0,64)'
	DD	01H
	DD	00H
	DD	0ffffffffH
	DD	00H
	DD	040H
	DD	FLAT:??_R3_Generic_error_category@std@@8
rdata$r	ENDS
;	COMDAT ??_R2_Generic_error_category@std@@8
rdata$r	SEGMENT
??_R2_Generic_error_category@std@@8 DD FLAT:??_R1A@?0A@EA@_Generic_error_category@std@@8 ; std::_Generic_error_category::`RTTI Base Class Array'
	DD	FLAT:??_R1A@?0A@EA@error_category@std@@8
rdata$r	ENDS
;	COMDAT ??_R3_Generic_error_category@std@@8
rdata$r	SEGMENT
??_R3_Generic_error_category@std@@8 DD 00H		; std::_Generic_error_category::`RTTI Class Hierarchy Descriptor'
	DD	00H
	DD	02H
	DD	FLAT:??_R2_Generic_error_category@std@@8
rdata$r	ENDS
;	COMDAT ??_R0?AV_Generic_error_category@std@@@8
_DATA	SEGMENT
??_R0?AV_Generic_error_category@std@@@8 DD FLAT:??_7type_info@@6B@ ; std::_Generic_error_category `RTTI Type Descriptor'
	DD	00H
	DB	'.?AV_Generic_error_category@std@@', 00H
_DATA	ENDS
;	COMDAT ??_R4_Generic_error_category@std@@6B@
rdata$r	SEGMENT
??_R4_Generic_error_category@std@@6B@ DD 00H		; std::_Generic_error_category::`RTTI Complete Object Locator'
	DD	00H
	DD	00H
	DD	FLAT:??_R0?AV_Generic_error_category@std@@@8
	DD	FLAT:??_R3_Generic_error_category@std@@8
rdata$r	ENDS
;	COMDAT ??_R1A@?0A@EA@error_category@std@@8
rdata$r	SEGMENT
??_R1A@?0A@EA@error_category@std@@8 DD FLAT:??_R0?AVerror_category@std@@@8 ; std::error_category::`RTTI Base Class Descriptor at (0,-1,0,64)'
	DD	00H
	DD	00H
	DD	0ffffffffH
	DD	00H
	DD	040H
	DD	FLAT:??_R3error_category@std@@8
rdata$r	ENDS
;	COMDAT ??_R2error_category@std@@8
rdata$r	SEGMENT
??_R2error_category@std@@8 DD FLAT:??_R1A@?0A@EA@error_category@std@@8 ; std::error_category::`RTTI Base Class Array'
rdata$r	ENDS
;	COMDAT ??_R3error_category@std@@8
rdata$r	SEGMENT
??_R3error_category@std@@8 DD 00H			; std::error_category::`RTTI Class Hierarchy Descriptor'
	DD	00H
	DD	01H
	DD	FLAT:??_R2error_category@std@@8
rdata$r	ENDS
;	COMDAT ??_R0?AVerror_category@std@@@8
_DATA	SEGMENT
??_R0?AVerror_category@std@@@8 DD FLAT:??_7type_info@@6B@ ; std::error_category `RTTI Type Descriptor'
	DD	00H
	DB	'.?AVerror_category@std@@', 00H
_DATA	ENDS
;	COMDAT ??_R4error_category@std@@6B@
rdata$r	SEGMENT
??_R4error_category@std@@6B@ DD 00H			; std::error_category::`RTTI Complete Object Locator'
	DD	00H
	DD	00H
	DD	FLAT:??_R0?AVerror_category@std@@@8
	DD	FLAT:??_R3error_category@std@@8
rdata$r	ENDS
;	COMDAT ??_C@_0BA@JFNIOLAK@string?5too?5long?$AA@
CONST	SEGMENT
??_C@_0BA@JFNIOLAK@string?5too?5long?$AA@ DB 'string too long', 00H ; `string'
CONST	ENDS
;	COMDAT ??_C@_0BI@CFPLBAOH@invalid?5string?5position?$AA@
CONST	SEGMENT
??_C@_0BI@CFPLBAOH@invalid?5string?5position?$AA@ DB 'invalid string posi'
	DB	'tion', 00H					; `string'
CONST	ENDS
;	COMDAT ??_C@_06FHFOAHML@system?$AA@
CONST	SEGMENT
??_C@_06FHFOAHML@system?$AA@ DB 'system', 00H		; `string'
CONST	ENDS
;	COMDAT ??_7_System_error_category@std@@6B@
CONST	SEGMENT
??_7_System_error_category@std@@6B@ DD FLAT:??_R4_System_error_category@std@@6B@ ; std::_System_error_category::`vftable'
	DD	FLAT:??_E_System_error_category@std@@UAEPAXI@Z
	DD	FLAT:?name@_System_error_category@std@@UBEPBDXZ
	DD	FLAT:?message@_System_error_category@std@@UBE?AV?$basic_string@DU?$char_traits@D@std@@V?$allocator@D@2@@2@H@Z
	DD	FLAT:?default_error_condition@_System_error_category@std@@UBE?AVerror_condition@2@H@Z
	DD	FLAT:?equivalent@error_category@std@@UBE_NABVerror_code@2@H@Z
	DD	FLAT:?equivalent@error_category@std@@UBE_NHABVerror_condition@2@@Z
CONST	ENDS
;	COMDAT ??_C@_0BG@PADBLCHM@iostream?5stream?5error?$AA@
CONST	SEGMENT
??_C@_0BG@PADBLCHM@iostream?5stream?5error?$AA@ DB 'iostream stream error'
	DB	00H						; `string'
CONST	ENDS
;	COMDAT ??_C@_08LLGCOLLL@iostream?$AA@
CONST	SEGMENT
??_C@_08LLGCOLLL@iostream?$AA@ DB 'iostream', 00H	; `string'
CONST	ENDS
;	COMDAT ??_7_Iostream_error_category@std@@6B@
CONST	SEGMENT
??_7_Iostream_error_category@std@@6B@ DD FLAT:??_R4_Iostream_error_category@std@@6B@ ; std::_Iostream_error_category::`vftable'
	DD	FLAT:??_E_Iostream_error_category@std@@UAEPAXI@Z
	DD	FLAT:?name@_Iostream_error_category@std@@UBEPBDXZ
	DD	FLAT:?message@_Iostream_error_category@std@@UBE?AV?$basic_string@DU?$char_traits@D@std@@V?$allocator@D@2@@2@H@Z
	DD	FLAT:?default_error_condition@error_category@std@@UBE?AVerror_condition@2@H@Z
	DD	FLAT:?equivalent@error_category@std@@UBE_NABVerror_code@2@H@Z
	DD	FLAT:?equivalent@error_category@std@@UBE_NHABVerror_condition@2@@Z
CONST	ENDS
;	COMDAT ??_C@_0O@BFJCFAAK@unknown?5error?$AA@
CONST	SEGMENT
??_C@_0O@BFJCFAAK@unknown?5error?$AA@ DB 'unknown error', 00H ; `string'
CONST	ENDS
;	COMDAT ??_C@_07DCLBNMLN@generic?$AA@
CONST	SEGMENT
??_C@_07DCLBNMLN@generic?$AA@ DB 'generic', 00H		; `string'
CONST	ENDS
;	COMDAT ??_7_Generic_error_category@std@@6B@
CONST	SEGMENT
??_7_Generic_error_category@std@@6B@ DD FLAT:??_R4_Generic_error_category@std@@6B@ ; std::_Generic_error_category::`vftable'
	DD	FLAT:??_E_Generic_error_category@std@@UAEPAXI@Z
	DD	FLAT:?name@_Generic_error_category@std@@UBEPBDXZ
	DD	FLAT:?message@_Generic_error_category@std@@UBE?AV?$basic_string@DU?$char_traits@D@std@@V?$allocator@D@2@@2@H@Z
	DD	FLAT:?default_error_condition@error_category@std@@UBE?AVerror_condition@2@H@Z
	DD	FLAT:?equivalent@error_category@std@@UBE_NABVerror_code@2@H@Z
	DD	FLAT:?equivalent@error_category@std@@UBE_NHABVerror_condition@2@@Z
CONST	ENDS
;	COMDAT ??_7error_category@std@@6B@
CONST	SEGMENT
??_7error_category@std@@6B@ DD FLAT:??_R4error_category@std@@6B@ ; std::error_category::`vftable'
	DD	FLAT:??_Eerror_category@std@@UAEPAXI@Z
	DD	FLAT:__purecall
	DD	FLAT:__purecall
	DD	FLAT:?default_error_condition@error_category@std@@UBE?AVerror_condition@2@H@Z
	DD	FLAT:?equivalent@error_category@std@@UBE_NABVerror_code@2@H@Z
	DD	FLAT:?equivalent@error_category@std@@UBE_NHABVerror_condition@2@@Z
CONST	ENDS
;	COMDAT xdata$x
xdata$x	SEGMENT
__unwindtable$??$construct@PADAAPAD@?$allocator@D@std@@QAEXPAPADAAPAD@Z DD 0ffffffffH
	DD	FLAT:__unwindfunclet$??$construct@PADAAPAD@?$allocator@D@std@@QAEXPAPADAAPAD@Z$0
__ehfuncinfo$??$construct@PADAAPAD@?$allocator@D@std@@QAEXPAPADAAPAD@Z DD 019930522H
	DD	01H
	DD	FLAT:__unwindtable$??$construct@PADAAPAD@?$allocator@D@std@@QAEXPAPADAAPAD@Z
	DD	2 DUP(00H)
	DD	2 DUP(00H)
	DD	00H
	DD	01H
xdata$x	ENDS
xdata$x	SEGMENT
__unwindtable$?CheckFeatures@FireControlComputer@@AAEXPAVMissileClass@@@Z DD 0ffffffffH
	DD	FLAT:__unwindfunclet$?CheckFeatures@FireControlComputer@@AAEXPAVMissileClass@@@Z$0
	DD	00H
	DD	FLAT:__unwindfunclet$?CheckFeatures@FireControlComputer@@AAEXPAVMissileClass@@@Z$1
__ehfuncinfo$?CheckFeatures@FireControlComputer@@AAEXPAVMissileClass@@@Z DD 019930522H
	DD	02H
	DD	FLAT:__unwindtable$?CheckFeatures@FireControlComputer@@AAEXPAVMissileClass@@@Z
	DD	2 DUP(00H)
	DD	2 DUP(00H)
	DD	00H
	DD	01H
xdata$x	ENDS
;	COMDAT xdata$x
xdata$x	SEGMENT
__catchsym$?_Copy@?$basic_string@DU?$char_traits@D@std@@V?$allocator@D@2@@std@@QAEXII@Z$5 DD 040H
	DD	00H
	DD	00H
	DD	FLAT:__catch$?_Copy@?$basic_string@DU?$char_traits@D@std@@V?$allocator@D@2@@std@@QAEXII@Z$0
__catchsym$?_Copy@?$basic_string@DU?$char_traits@D@std@@V?$allocator@D@2@@std@@QAEXII@Z$4 DD 040H
	DD	00H
	DD	00H
	DD	FLAT:__catch$?_Copy@?$basic_string@DU?$char_traits@D@std@@V?$allocator@D@2@@std@@QAEXII@Z$1
__unwindtable$?_Copy@?$basic_string@DU?$char_traits@D@std@@V?$allocator@D@2@@std@@QAEXII@Z DD 0ffffffffH
	DD	00H
	DD	0ffffffffH
	DD	00H
	DD	01H
	DD	00H
	DD	01H
	DD	00H
__ehfuncinfo$?_Copy@?$basic_string@DU?$char_traits@D@std@@V?$allocator@D@2@@std@@QAEXII@Z DD 019930522H
	DD	04H
	DD	FLAT:__unwindtable$?_Copy@?$basic_string@DU?$char_traits@D@std@@V?$allocator@D@2@@std@@QAEXII@Z
	DD	02H
	DD	FLAT:__tryblocktable$?_Copy@?$basic_string@DU?$char_traits@D@std@@V?$allocator@D@2@@std@@QAEXII@Z
	DD	2 DUP(00H)
	DD	00H
	DD	01H
__tryblocktable$?_Copy@?$basic_string@DU?$char_traits@D@std@@V?$allocator@D@2@@std@@QAEXII@Z DD 02H
	DD	02H
	DD	03H
	DD	01H
	DD	FLAT:__catchsym$?_Copy@?$basic_string@DU?$char_traits@D@std@@V?$allocator@D@2@@std@@QAEXII@Z$4
	DD	00H
	DD	00H
	DD	03H
	DD	01H
	DD	FLAT:__catchsym$?_Copy@?$basic_string@DU?$char_traits@D@std@@V?$allocator@D@2@@std@@QAEXII@Z$5
xdata$x	ENDS
CRT$XCU	SEGMENT
_allocator_arg$initializer$ DD FLAT:??__Eallocator_arg@std@@YAXXZ
CRT$XCU	ENDS
CRT$XCU	SEGMENT
_rangeFOV$initializer$ DD FLAT:??__ErangeFOV@@YAXXZ
CRT$XCU	ENDS
;	COMDAT CRT$XCU
CRT$XCU	SEGMENT
?_Generic_object$initializer$@?$_Error_objects@H@std@@2P6AXXZA DD FLAT:??__E?_Generic_object@?$_Error_objects@H@std@@2V_Generic_error_category@2@A@@YAXXZ ; std::_Error_objects<int>::_Generic_object$initializer$
CRT$XCU	ENDS
;	COMDAT CRT$XCU
CRT$XCU	SEGMENT
?_Iostream_object$initializer$@?$_Error_objects@H@std@@2P6AXXZA DD FLAT:??__E?_Iostream_object@?$_Error_objects@H@std@@2V_Iostream_error_category@2@A@@YAXXZ ; std::_Error_objects<int>::_Iostream_object$initializer$
CRT$XCU	ENDS
;	COMDAT CRT$XCU
CRT$XCU	SEGMENT
?_System_object$initializer$@?$_Error_objects@H@std@@2P6AXXZA DD FLAT:??__E?_System_object@?$_Error_objects@H@std@@2V_System_error_category@2@A@@YAXXZ ; std::_Error_objects<int>::_System_object$initializer$
CRT$XCU	ENDS
;	COMDAT CRT$XCU
CRT$XCU	SEGMENT
?id$initializer$@?$num_put@DV?$back_insert_iterator@V?$basic_string@DU?$char_traits@D@std@@V?$allocator@D@2@@std@@@std@@@std@@2P6AXXZA DD FLAT:??__E?id@?$num_put@DV?$back_insert_iterator@V?$basic_string@DU?$char_traits@D@std@@V?$allocator@D@2@@std@@@std@@@std@@2V0locale@2@A@@YAXXZ ; std::num_put<char,std::back_insert_iterator<std::basic_string<char,std::char_traits<char>,std::allocator<char> > > >::id$initializer$
CRT$XCU	ENDS
;	COMDAT CRT$XCU
CRT$XCU	SEGMENT
?id$initializer$@?$num_put@_WV?$back_insert_iterator@V?$basic_string@_WU?$char_traits@_W@std@@V?$allocator@_W@2@@std@@@std@@@std@@2P6AXXZA DD FLAT:??__E?id@?$num_put@_WV?$back_insert_iterator@V?$basic_string@_WU?$char_traits@_W@std@@V?$allocator@_W@2@@std@@@std@@@std@@2V0locale@2@A@@YAXXZ ; std::num_put<wchar_t,std::back_insert_iterator<std::basic_string<wchar_t,std::char_traits<wchar_t>,std::allocator<wchar_t> > > >::id$initializer$
CRT$XCU	ENDS
;	COMDAT CRT$XCU
CRT$XCU	SEGMENT
?id$initializer$@?$numpunct@D@std@@2P6AXXZA DD FLAT:??__E?id@?$numpunct@D@std@@2V0locale@2@A@@YAXXZ ; std::numpunct<char>::id$initializer$
CRT$XCU	ENDS
;	COMDAT CRT$XCU
CRT$XCU	SEGMENT
?id$initializer$@?$numpunct@_W@std@@2P6AXXZA DD FLAT:??__E?id@?$numpunct@_W@std@@2V0locale@2@A@@YAXXZ ; std::numpunct<wchar_t>::id$initializer$
CRT$XCU	ENDS
; Function compile flags: /Odtp
; File c:\program files (x86)\microsoft visual studio 11.0\vc\include\xmemory0
;	COMDAT ??$destroy@PAD@?$allocator@D@std@@QAEXPAPAD@Z
_TEXT	SEGMENT
_this$ = -4						; size = 4
__Ptr$ = 8						; size = 4
??$destroy@PAD@?$allocator@D@std@@QAEXPAPAD@Z PROC	; std::allocator<char>::destroy<char *>, COMDAT
; _this$ = ecx

; 621  : 		void destroy(_Uty *_Ptr)

	push	ebp
	mov	ebp, esp
	push	ecx
	mov	DWORD PTR _this$[ebp], ecx

; 622  : 		{	// destroy object at _Ptr
; 623  : 		_Ptr->~_Uty();
; 624  : 		}

	mov	esp, ebp
	pop	ebp
	ret	4
??$destroy@PAD@?$allocator@D@std@@QAEXPAPAD@Z ENDP	; std::allocator<char>::destroy<char *>
_TEXT	ENDS
; Function compile flags: /Odtp
; File c:\program files (x86)\microsoft visual studio 11.0\vc\include\xmemory0
;	COMDAT ??$construct@PADAAPAD@?$allocator@D@std@@QAEXPAPADAAPAD@Z
_TEXT	SEGMENT
$T2 = -28						; size = 4
_this$ = -24						; size = 4
tv73 = -20						; size = 4
$T3 = -16						; size = 4
__$EHRec$ = -12						; size = 12
__Ptr$ = 8						; size = 4
__V0$ = 12						; size = 4
??$construct@PADAAPAD@?$allocator@D@std@@QAEXPAPADAAPAD@Z PROC ; std::allocator<char>::construct<char *,char * &>, COMDAT
; _this$ = ecx

; 617  : _VARIADIC_EXPAND_0X(_ALLOC_MEMBER_CONSTRUCT, , , , )

	push	ebp
	mov	ebp, esp
	push	-1
	push	__ehhandler$??$construct@PADAAPAD@?$allocator@D@std@@QAEXPAPADAAPAD@Z
	mov	eax, DWORD PTR fs:0
	push	eax
	sub	esp, 16					; 00000010H
	mov	eax, DWORD PTR ___security_cookie
	xor	eax, ebp
	push	eax
	lea	eax, DWORD PTR __$EHRec$[ebp]
	mov	DWORD PTR fs:0, eax
	mov	DWORD PTR _this$[ebp], ecx
	mov	eax, DWORD PTR __Ptr$[ebp]
	push	eax
	push	4
	call	??2@YAPAXIPAX@Z				; operator new
	add	esp, 8
	mov	DWORD PTR $T3[ebp], eax
	mov	DWORD PTR __$EHRec$[ebp+8], 0
	cmp	DWORD PTR $T3[ebp], 0
	je	SHORT $LN3@construct
	mov	ecx, DWORD PTR __V0$[ebp]
	push	ecx
	call	??$forward@AAPAD@std@@YAAAPADAAPAD@Z	; std::forward<char * &>
	add	esp, 4
	mov	edx, DWORD PTR $T3[ebp]
	mov	eax, DWORD PTR [eax]
	mov	DWORD PTR [edx], eax
	mov	ecx, DWORD PTR $T3[ebp]
	mov	DWORD PTR tv73[ebp], ecx
	jmp	SHORT $LN4@construct
$LN3@construct:
	mov	DWORD PTR tv73[ebp], 0
$LN4@construct:
	mov	edx, DWORD PTR tv73[ebp]
	mov	DWORD PTR $T2[ebp], edx
	mov	DWORD PTR __$EHRec$[ebp+8], -1
	mov	ecx, DWORD PTR __$EHRec$[ebp]
	mov	DWORD PTR fs:0, ecx
	pop	ecx
	mov	esp, ebp
	pop	ebp
	ret	8
_TEXT	ENDS
;	COMDAT text$x
text$x	SEGMENT
__unwindfunclet$??$construct@PADAAPAD@?$allocator@D@std@@QAEXPAPADAAPAD@Z$0:
	mov	eax, DWORD PTR __Ptr$[ebp]
	push	eax
	mov	eax, DWORD PTR $T3[ebp]
	push	eax
	call	??3@YAXPAX0@Z				; operator delete
	add	esp, 8
	ret	0
__ehhandler$??$construct@PADAAPAD@?$allocator@D@std@@QAEXPAPADAAPAD@Z:
	mov	edx, DWORD PTR [esp+8]
	lea	eax, DWORD PTR [edx+12]
	mov	ecx, DWORD PTR [edx-20]
	xor	ecx, eax
	call	@__security_check_cookie@4
	mov	eax, OFFSET __ehfuncinfo$??$construct@PADAAPAD@?$allocator@D@std@@QAEXPAPADAAPAD@Z
	jmp	___CxxFrameHandler3
text$x	ENDS
??$construct@PADAAPAD@?$allocator@D@std@@QAEXPAPADAAPAD@Z ENDP ; std::allocator<char>::construct<char *,char * &>
; Function compile flags: /Odtp
; File c:\program files (x86)\microsoft visual studio 11.0\vc\include\xlocnum
;	COMDAT ??__E?id@?$numpunct@_W@std@@2V0locale@2@A@@YAXXZ
text$yc	SEGMENT
??__E?id@?$numpunct@_W@std@@2V0locale@2@A@@YAXXZ PROC	; `dynamic initializer for 'std::numpunct<wchar_t>::id'', COMDAT

; 155  : 		void _Getvals(wchar_t, const lconv *_Ptr, _Locinfo::_Cvtvec)

	push	ebp
	mov	ebp, esp
	push	0
	mov	ecx, OFFSET ?id@?$numpunct@_W@std@@2V0locale@2@A ; std::numpunct<wchar_t>::id
	call	??0id@locale@std@@QAE@I@Z		; std::locale::id::id
	pop	ebp
	ret	0
??__E?id@?$numpunct@_W@std@@2V0locale@2@A@@YAXXZ ENDP	; `dynamic initializer for 'std::numpunct<wchar_t>::id''
text$yc	ENDS
; Function compile flags: /Odtp
; File c:\program files (x86)\microsoft visual studio 11.0\vc\include\xlocnum
;	COMDAT ??__E?id@?$numpunct@D@std@@2V0locale@2@A@@YAXXZ
text$yc	SEGMENT
??__E?id@?$numpunct@D@std@@2V0locale@2@A@@YAXXZ PROC	; `dynamic initializer for 'std::numpunct<char>::id'', COMDAT

; 155  : 		void _Getvals(wchar_t, const lconv *_Ptr, _Locinfo::_Cvtvec)

	push	ebp
	mov	ebp, esp
	push	0
	mov	ecx, OFFSET ?id@?$numpunct@D@std@@2V0locale@2@A ; std::numpunct<char>::id
	call	??0id@locale@std@@QAE@I@Z		; std::locale::id::id
	pop	ebp
	ret	0
??__E?id@?$numpunct@D@std@@2V0locale@2@A@@YAXXZ ENDP	; `dynamic initializer for 'std::numpunct<char>::id''
text$yc	ENDS
; Function compile flags: /Odtp
; File c:\program files (x86)\microsoft visual studio 11.0\vc\include\xlocnum
;	COMDAT ??__E?id@?$num_put@_WV?$back_insert_iterator@V?$basic_string@_WU?$char_traits@_W@std@@V?$allocator@_W@2@@std@@@std@@@std@@2V0locale@2@A@@YAXXZ
text$yc	SEGMENT
??__E?id@?$num_put@_WV?$back_insert_iterator@V?$basic_string@_WU?$char_traits@_W@std@@V?$allocator@_W@2@@std@@@std@@@std@@2V0locale@2@A@@YAXXZ PROC ; `dynamic initializer for 'std::num_put<wchar_t,std::back_insert_iterator<std::basic_string<wchar_t,std::char_traits<wchar_t>,std::allocator<wchar_t> > > >::id'', COMDAT

; 155  : 		void _Getvals(wchar_t, const lconv *_Ptr, _Locinfo::_Cvtvec)

	push	ebp
	mov	ebp, esp
	push	0
	mov	ecx, OFFSET ?id@?$num_put@_WV?$back_insert_iterator@V?$basic_string@_WU?$char_traits@_W@std@@V?$allocator@_W@2@@std@@@std@@@std@@2V0locale@2@A ; std::num_put<wchar_t,std::back_insert_iterator<std::basic_string<wchar_t,std::char_traits<wchar_t>,std::allocator<wchar_t> > > >::id
	call	??0id@locale@std@@QAE@I@Z		; std::locale::id::id
	pop	ebp
	ret	0
??__E?id@?$num_put@_WV?$back_insert_iterator@V?$basic_string@_WU?$char_traits@_W@std@@V?$allocator@_W@2@@std@@@std@@@std@@2V0locale@2@A@@YAXXZ ENDP ; `dynamic initializer for 'std::num_put<wchar_t,std::back_insert_iterator<std::basic_string<wchar_t,std::char_traits<wchar_t>,std::allocator<wchar_t> > > >::id''
text$yc	ENDS
; Function compile flags: /Odtp
; File c:\program files (x86)\microsoft visual studio 11.0\vc\include\xlocnum
;	COMDAT ??__E?id@?$num_put@DV?$back_insert_iterator@V?$basic_string@DU?$char_traits@D@std@@V?$allocator@D@2@@std@@@std@@@std@@2V0locale@2@A@@YAXXZ
text$yc	SEGMENT
??__E?id@?$num_put@DV?$back_insert_iterator@V?$basic_string@DU?$char_traits@D@std@@V?$allocator@D@2@@std@@@std@@@std@@2V0locale@2@A@@YAXXZ PROC ; `dynamic initializer for 'std::num_put<char,std::back_insert_iterator<std::basic_string<char,std::char_traits<char>,std::allocator<char> > > >::id'', COMDAT

; 155  : 		void _Getvals(wchar_t, const lconv *_Ptr, _Locinfo::_Cvtvec)

	push	ebp
	mov	ebp, esp
	push	0
	mov	ecx, OFFSET ?id@?$num_put@DV?$back_insert_iterator@V?$basic_string@DU?$char_traits@D@std@@V?$allocator@D@2@@std@@@std@@@std@@2V0locale@2@A ; std::num_put<char,std::back_insert_iterator<std::basic_string<char,std::char_traits<char>,std::allocator<char> > > >::id
	call	??0id@locale@std@@QAE@I@Z		; std::locale::id::id
	pop	ebp
	ret	0
??__E?id@?$num_put@DV?$back_insert_iterator@V?$basic_string@DU?$char_traits@D@std@@V?$allocator@D@2@@std@@@std@@@std@@2V0locale@2@A@@YAXXZ ENDP ; `dynamic initializer for 'std::num_put<char,std::back_insert_iterator<std::basic_string<char,std::char_traits<char>,std::allocator<char> > > >::id''
text$yc	ENDS
; Function compile flags: /Odtp
; File c:\program files (x86)\microsoft visual studio 11.0\vc\include\xmemory0
;	COMDAT ??$destroy@PAD@?$allocator_traits@V?$allocator@D@std@@@std@@SAXAAV?$allocator@D@1@PAPAD@Z
_TEXT	SEGMENT
__Al$ = 8						; size = 4
__Ptr$ = 12						; size = 4
??$destroy@PAD@?$allocator_traits@V?$allocator@D@std@@@std@@SAXAAV?$allocator@D@1@PAPAD@Z PROC ; std::allocator_traits<std::allocator<char> >::destroy<char *>, COMDAT

; 755  : 		static void destroy(_Alloc& _Al, _Uty *_Ptr)

	push	ebp
	mov	ebp, esp

; 756  : 		{	// destroy object at _Ptr
; 757  : 		_Al.destroy(_Ptr);

	mov	eax, DWORD PTR __Ptr$[ebp]
	push	eax
	mov	ecx, DWORD PTR __Al$[ebp]
	call	??$destroy@PAD@?$allocator@D@std@@QAEXPAPAD@Z ; std::allocator<char>::destroy<char *>

; 758  : 		}

	pop	ebp
	ret	0
??$destroy@PAD@?$allocator_traits@V?$allocator@D@std@@@std@@SAXAAV?$allocator@D@1@PAPAD@Z ENDP ; std::allocator_traits<std::allocator<char> >::destroy<char *>
_TEXT	ENDS
; Function compile flags: /Odtp
; File c:\program files (x86)\microsoft visual studio 11.0\vc\include\xmemory0
;	COMDAT ??$construct@PADAAPAD@?$allocator_traits@V?$allocator@D@std@@@std@@SAXAAV?$allocator@D@1@PAPADAAPAD@Z
_TEXT	SEGMENT
__Al$ = 8						; size = 4
__Ptr$ = 12						; size = 4
__V0$ = 16						; size = 4
??$construct@PADAAPAD@?$allocator_traits@V?$allocator@D@std@@@std@@SAXAAV?$allocator@D@1@PAPADAAPAD@Z PROC ; std::allocator_traits<std::allocator<char> >::construct<char *,char * &>, COMDAT

; 751  : _VARIADIC_EXPAND_0X(_ALLOC_TRAITS_SPECIAL_CONSTRUCT, , , , )

	push	ebp
	mov	ebp, esp
	mov	eax, DWORD PTR __V0$[ebp]
	push	eax
	call	??$forward@AAPAD@std@@YAAAPADAAPAD@Z	; std::forward<char * &>
	add	esp, 4
	push	eax
	mov	ecx, DWORD PTR __Ptr$[ebp]
	push	ecx
	mov	ecx, DWORD PTR __Al$[ebp]
	call	??$construct@PADAAPAD@?$allocator@D@std@@QAEXPAPADAAPAD@Z ; std::allocator<char>::construct<char *,char * &>
	pop	ebp
	ret	0
??$construct@PADAAPAD@?$allocator_traits@V?$allocator@D@std@@@std@@SAXAAV?$allocator@D@1@PAPADAAPAD@Z ENDP ; std::allocator_traits<std::allocator<char> >::construct<char *,char * &>
_TEXT	ENDS
; Function compile flags: /Odtp
; File c:\program files (x86)\microsoft visual studio 11.0\vc\include\type_traits
;	COMDAT ??$forward@AAPAD@std@@YAAAPADAAPAD@Z
_TEXT	SEGMENT
__Arg$ = 8						; size = 4
??$forward@AAPAD@std@@YAAAPADAAPAD@Z PROC		; std::forward<char * &>, COMDAT

; 1775 : 	{	// forward an lvalue

	push	ebp
	mov	ebp, esp

; 1776 : 	return (static_cast<_Ty&&>(_Arg));

	mov	eax, DWORD PTR __Arg$[ebp]

; 1777 : 	}

	pop	ebp
	ret	0
??$forward@AAPAD@std@@YAAAPADAAPAD@Z ENDP		; std::forward<char * &>
_TEXT	ENDS
; Function compile flags: /Odtp
;	COMDAT ??__F?_System_object@?$_Error_objects@H@std@@2V_System_error_category@2@A@@YAXXZ
text$yd	SEGMENT
??__F?_System_object@?$_Error_objects@H@std@@2V_System_error_category@2@A@@YAXXZ PROC ; `dynamic atexit destructor for 'std::_Error_objects<int>::_System_object'', COMDAT
	push	ebp
	mov	ebp, esp
	mov	ecx, OFFSET ?_System_object@?$_Error_objects@H@std@@2V_System_error_category@2@A ; std::_Error_objects<int>::_System_object
	call	??1_System_error_category@std@@UAE@XZ
	pop	ebp
	ret	0
??__F?_System_object@?$_Error_objects@H@std@@2V_System_error_category@2@A@@YAXXZ ENDP ; `dynamic atexit destructor for 'std::_Error_objects<int>::_System_object''
text$yd	ENDS
; Function compile flags: /Odtp
; File c:\program files (x86)\microsoft visual studio 11.0\vc\include\xmemory0
;	COMDAT ??__E?_System_object@?$_Error_objects@H@std@@2V_System_error_category@2@A@@YAXXZ
text$yc	SEGMENT
??__E?_System_object@?$_Error_objects@H@std@@2V_System_error_category@2@A@@YAXXZ PROC ; `dynamic initializer for 'std::_Error_objects<int>::_System_object'', COMDAT

; 627  : 		{	// estimate maximum array size

	push	ebp
	mov	ebp, esp
	mov	ecx, OFFSET ?_System_object@?$_Error_objects@H@std@@2V_System_error_category@2@A ; std::_Error_objects<int>::_System_object
	call	??0_System_error_category@std@@QAE@XZ	; std::_System_error_category::_System_error_category
	push	OFFSET ??__F?_System_object@?$_Error_objects@H@std@@2V_System_error_category@2@A@@YAXXZ ; `dynamic atexit destructor for 'std::_Error_objects<int>::_System_object''
	call	_atexit
	add	esp, 4
	pop	ebp
	ret	0
??__E?_System_object@?$_Error_objects@H@std@@2V_System_error_category@2@A@@YAXXZ ENDP ; `dynamic initializer for 'std::_Error_objects<int>::_System_object''
text$yc	ENDS
; Function compile flags: /Odtp
;	COMDAT ??__F?_Iostream_object@?$_Error_objects@H@std@@2V_Iostream_error_category@2@A@@YAXXZ
text$yd	SEGMENT
??__F?_Iostream_object@?$_Error_objects@H@std@@2V_Iostream_error_category@2@A@@YAXXZ PROC ; `dynamic atexit destructor for 'std::_Error_objects<int>::_Iostream_object'', COMDAT
	push	ebp
	mov	ebp, esp
	mov	ecx, OFFSET ?_Iostream_object@?$_Error_objects@H@std@@2V_Iostream_error_category@2@A ; std::_Error_objects<int>::_Iostream_object
	call	??1_Iostream_error_category@std@@UAE@XZ
	pop	ebp
	ret	0
??__F?_Iostream_object@?$_Error_objects@H@std@@2V_Iostream_error_category@2@A@@YAXXZ ENDP ; `dynamic atexit destructor for 'std::_Error_objects<int>::_Iostream_object''
text$yd	ENDS
; Function compile flags: /Odtp
; File c:\program files (x86)\microsoft visual studio 11.0\vc\include\xmemory0
;	COMDAT ??__E?_Iostream_object@?$_Error_objects@H@std@@2V_Iostream_error_category@2@A@@YAXXZ
text$yc	SEGMENT
??__E?_Iostream_object@?$_Error_objects@H@std@@2V_Iostream_error_category@2@A@@YAXXZ PROC ; `dynamic initializer for 'std::_Error_objects<int>::_Iostream_object'', COMDAT

; 627  : 		{	// estimate maximum array size

	push	ebp
	mov	ebp, esp
	mov	ecx, OFFSET ?_Iostream_object@?$_Error_objects@H@std@@2V_Iostream_error_category@2@A ; std::_Error_objects<int>::_Iostream_object
	call	??0_Iostream_error_category@std@@QAE@XZ	; std::_Iostream_error_category::_Iostream_error_category
	push	OFFSET ??__F?_Iostream_object@?$_Error_objects@H@std@@2V_Iostream_error_category@2@A@@YAXXZ ; `dynamic atexit destructor for 'std::_Error_objects<int>::_Iostream_object''
	call	_atexit
	add	esp, 4
	pop	ebp
	ret	0
??__E?_Iostream_object@?$_Error_objects@H@std@@2V_Iostream_error_category@2@A@@YAXXZ ENDP ; `dynamic initializer for 'std::_Error_objects<int>::_Iostream_object''
text$yc	ENDS
; Function compile flags: /Odtp
;	COMDAT ??__F?_Generic_object@?$_Error_objects@H@std@@2V_Generic_error_category@2@A@@YAXXZ
text$yd	SEGMENT
??__F?_Generic_object@?$_Error_objects@H@std@@2V_Generic_error_category@2@A@@YAXXZ PROC ; `dynamic atexit destructor for 'std::_Error_objects<int>::_Generic_object'', COMDAT
	push	ebp
	mov	ebp, esp
	mov	ecx, OFFSET ?_Generic_object@?$_Error_objects@H@std@@2V_Generic_error_category@2@A ; std::_Error_objects<int>::_Generic_object
	call	??1_Generic_error_category@std@@UAE@XZ
	pop	ebp
	ret	0
??__F?_Generic_object@?$_Error_objects@H@std@@2V_Generic_error_category@2@A@@YAXXZ ENDP ; `dynamic atexit destructor for 'std::_Error_objects<int>::_Generic_object''
text$yd	ENDS
; Function compile flags: /Odtp
; File c:\program files (x86)\microsoft visual studio 11.0\vc\include\xmemory0
;	COMDAT ??__E?_Generic_object@?$_Error_objects@H@std@@2V_Generic_error_category@2@A@@YAXXZ
text$yc	SEGMENT
??__E?_Generic_object@?$_Error_objects@H@std@@2V_Generic_error_category@2@A@@YAXXZ PROC ; `dynamic initializer for 'std::_Error_objects<int>::_Generic_object'', COMDAT

; 627  : 		{	// estimate maximum array size

	push	ebp
	mov	ebp, esp
	mov	ecx, OFFSET ?_Generic_object@?$_Error_objects@H@std@@2V_Generic_error_category@2@A ; std::_Error_objects<int>::_Generic_object
	call	??0_Generic_error_category@std@@QAE@XZ	; std::_Generic_error_category::_Generic_error_category
	push	OFFSET ??__F?_Generic_object@?$_Error_objects@H@std@@2V_Generic_error_category@2@A@@YAXXZ ; `dynamic atexit destructor for 'std::_Error_objects<int>::_Generic_object''
	call	_atexit
	add	esp, 4
	pop	ebp
	ret	0
??__E?_Generic_object@?$_Error_objects@H@std@@2V_Generic_error_category@2@A@@YAXXZ ENDP ; `dynamic initializer for 'std::_Error_objects<int>::_Generic_object''
text$yc	ENDS
; Function compile flags: /Odtp
; File c:\program files (x86)\microsoft visual studio 11.0\vc\include\xmemory0
;	COMDAT ??$_Allocate@D@std@@YAPADIPAD@Z
_TEXT	SEGMENT
__Ptr$ = -4						; size = 4
__Count$ = 8						; size = 4
___formal$ = 12						; size = 4
??$_Allocate@D@std@@YAPADIPAD@Z PROC			; std::_Allocate<char>, COMDAT

; 22   : 	{	// allocate storage for _Count elements of type _Ty

	push	ebp
	mov	ebp, esp
	push	ecx

; 23   : 	void *_Ptr = 0;

	mov	DWORD PTR __Ptr$[ebp], 0

; 24   : 
; 25   : 	if (_Count == 0)

	cmp	DWORD PTR __Count$[ebp], 0
	jne	SHORT $LN4@Allocate

; 26   : 		;
; 27   : 	else if (((size_t)(-1) / sizeof (_Ty) < _Count)

	jmp	SHORT $LN3@Allocate
$LN4@Allocate:

; 28   : 		|| (_Ptr = ::operator new(_Count * sizeof (_Ty))) == 0)

	cmp	DWORD PTR __Count$[ebp], -1
	ja	SHORT $LN1@Allocate
	mov	eax, DWORD PTR __Count$[ebp]
	push	eax
	call	??2@YAPAXI@Z				; operator new
	add	esp, 4
	mov	DWORD PTR __Ptr$[ebp], eax
	cmp	DWORD PTR __Ptr$[ebp], 0
	jne	SHORT $LN3@Allocate
$LN1@Allocate:

; 29   : 		_Xbad_alloc();	// report no memory

	call	?_Xbad_alloc@std@@YAXXZ			; std::_Xbad_alloc
$LN3@Allocate:

; 30   : 
; 31   : 	return ((_Ty *)_Ptr);

	mov	eax, DWORD PTR __Ptr$[ebp]
$LN6@Allocate:

; 32   : 	}

	mov	esp, ebp
	pop	ebp
	ret	0
??$_Allocate@D@std@@YAPADIPAD@Z ENDP			; std::_Allocate<char>
_TEXT	ENDS
; Function compile flags: /Odtp
; File c:\program files (x86)\microsoft visual studio 11.0\vc\include\xstddef
;	COMDAT ??$addressof@D@std@@YAPADAAD@Z
_TEXT	SEGMENT
__Val$ = 8						; size = 4
??$addressof@D@std@@YAPADAAD@Z PROC			; std::addressof<char>, COMDAT

; 85   : 	{	// return address of _Val

	push	ebp
	mov	ebp, esp

; 86   : 	return (reinterpret_cast<_Ty *>(
; 87   : 		(&const_cast<char&>(
; 88   : 		reinterpret_cast<const volatile char&>(_Val)))));

	mov	eax, DWORD PTR __Val$[ebp]

; 89   : 	}

	pop	ebp
	ret	0
??$addressof@D@std@@YAPADAAD@Z ENDP			; std::addressof<char>
_TEXT	ENDS
; Function compile flags: /Odtp
; File c:\program files (x86)\microsoft visual studio 11.0\vc\include\xmemory0
;	COMDAT ??$destroy@PAD@?$_Wrap_alloc@V?$allocator@D@std@@@std@@QAEXPAPAD@Z
_TEXT	SEGMENT
_this$ = -4						; size = 4
__Ptr$ = 8						; size = 4
??$destroy@PAD@?$_Wrap_alloc@V?$allocator@D@std@@@std@@QAEXPAPAD@Z PROC ; std::_Wrap_alloc<std::allocator<char> >::destroy<char *>, COMDAT
; _this$ = ecx

; 907  : 		void destroy(_Ty *_Ptr)

	push	ebp
	mov	ebp, esp
	push	ecx
	mov	DWORD PTR _this$[ebp], ecx

; 908  : 		{	// destroy object at _Ptr
; 909  : 		_Mytraits::destroy(*this, _Ptr);

	mov	eax, DWORD PTR __Ptr$[ebp]
	push	eax
	mov	ecx, DWORD PTR _this$[ebp]
	push	ecx
	call	??$destroy@PAD@?$allocator_traits@V?$allocator@D@std@@@std@@SAXAAV?$allocator@D@1@PAPAD@Z ; std::allocator_traits<std::allocator<char> >::destroy<char *>
	add	esp, 8

; 910  : 		}

	mov	esp, ebp
	pop	ebp
	ret	4
??$destroy@PAD@?$_Wrap_alloc@V?$allocator@D@std@@@std@@QAEXPAPAD@Z ENDP ; std::_Wrap_alloc<std::allocator<char> >::destroy<char *>
_TEXT	ENDS
; Function compile flags: /Odtp
; File c:\program files (x86)\microsoft visual studio 11.0\vc\include\xmemory0
;	COMDAT ??$construct@PADAAPAD@?$_Wrap_alloc@V?$allocator@D@std@@@std@@QAEXPAPADAAPAD@Z
_TEXT	SEGMENT
_this$ = -4						; size = 4
__Ptr$ = 8						; size = 4
__V0$ = 12						; size = 4
??$construct@PADAAPAD@?$_Wrap_alloc@V?$allocator@D@std@@@std@@QAEXPAPADAAPAD@Z PROC ; std::_Wrap_alloc<std::allocator<char> >::construct<char *,char * &>, COMDAT
; _this$ = ecx

; 903  : _VARIADIC_EXPAND_0X(_WRAP_ALLOC_CONSTRUCT, , , , )

	push	ebp
	mov	ebp, esp
	push	ecx
	mov	DWORD PTR _this$[ebp], ecx
	mov	eax, DWORD PTR __V0$[ebp]
	push	eax
	call	??$forward@AAPAD@std@@YAAAPADAAPAD@Z	; std::forward<char * &>
	add	esp, 4
	push	eax
	mov	ecx, DWORD PTR __Ptr$[ebp]
	push	ecx
	mov	edx, DWORD PTR _this$[ebp]
	push	edx
	call	??$construct@PADAAPAD@?$allocator_traits@V?$allocator@D@std@@@std@@SAXAAV?$allocator@D@1@PAPADAAPAD@Z ; std::allocator_traits<std::allocator<char> >::construct<char *,char * &>
	add	esp, 12					; 0000000cH
	mov	esp, ebp
	pop	ebp
	ret	8
??$construct@PADAAPAD@?$_Wrap_alloc@V?$allocator@D@std@@@std@@QAEXPAPADAAPAD@Z ENDP ; std::_Wrap_alloc<std::allocator<char> >::construct<char *,char * &>
_TEXT	ENDS
; Function compile flags: /Odtp
; File c:\users\zhitao li\documents\visual studio 2012\projects\freefalcon\sim\fcc\mavfcc.cpp
;	COMDAT ??__ErangeFOV@@YAXXZ
text$yc	SEGMENT
??__ErangeFOV@@YAXXZ PROC				; `dynamic initializer for 'rangeFOV'', COMDAT

; 22   : static const float rangeFOV = (float)tan (1.0F * DTR);

	push	ebp
	mov	ebp, esp
	push	ecx
	movss	xmm0, DWORD PTR __real@3c8efa34
	movss	DWORD PTR [esp], xmm0
	call	?tan@@YAMM@Z				; tan
	add	esp, 4
	fstp	DWORD PTR _rangeFOV
	pop	ebp
	ret	0
??__ErangeFOV@@YAXXZ ENDP				; `dynamic initializer for 'rangeFOV''
text$yc	ENDS
; Function compile flags: /Odtp
; File c:\users\zhitao li\documents\visual studio 2012\projects\freefalcon\sim\include\simio.h
;	COMDAT ?AnalogIsUsed@SIMLIB_IO_CLASS@@QAE_NW4GameAxis_t@@@Z
_TEXT	SEGMENT
_this$ = -4						; size = 4
_id$ = 8						; size = 4
?AnalogIsUsed@SIMLIB_IO_CLASS@@QAE_NW4GameAxis_t@@@Z PROC ; SIMLIB_IO_CLASS::AnalogIsUsed, COMDAT
; _this$ = ecx

; 237  : 	bool	AnalogIsUsed(GameAxis_t id) { return ( analog[id].isUsed); };

	push	ebp
	mov	ebp, esp
	push	ecx
	mov	DWORD PTR _this$[ebp], ecx
	mov	eax, DWORD PTR _id$[ebp]
	imul	eax, 28					; 0000001cH
	mov	ecx, DWORD PTR _this$[ebp]
	mov	al, BYTE PTR [ecx+eax+12]
	mov	esp, ebp
	pop	ebp
	ret	4
?AnalogIsUsed@SIMLIB_IO_CLASS@@QAE_NW4GameAxis_t@@@Z ENDP ; SIMLIB_IO_CLASS::AnalogIsUsed
_TEXT	ENDS
; Function compile flags: /Odtp
; File c:\users\zhitao li\documents\visual studio 2012\projects\freefalcon\sim\include\object.h
;	COMDAT ?BaseData@SimObjectType@@QAEPAVFalconEntity@@XZ
_TEXT	SEGMENT
_this$ = -4						; size = 4
?BaseData@SimObjectType@@QAEPAVFalconEntity@@XZ PROC	; SimObjectType::BaseData, COMDAT
; _this$ = ecx

; 92   : 	FalconEntity* BaseData(void) { return baseData.get(); };

	push	ebp
	mov	ebp, esp
	push	ecx
	mov	DWORD PTR _this$[ebp], ecx
	mov	ecx, DWORD PTR _this$[ebp]
	call	?get@?$VuBin@VFalconEntity@@@@QBEPAVFalconEntity@@XZ ; VuBin<FalconEntity>::get
	mov	esp, ebp
	pop	ebp
	ret	0
?BaseData@SimObjectType@@QAEPAVFalconEntity@@XZ ENDP	; SimObjectType::BaseData
_TEXT	ENDS
; Function compile flags: /Odtp
; File c:\users\zhitao li\documents\visual studio 2012\projects\freefalcon\sim\include\mavdisp.h
;	COMDAT ?IsLocked@MaverickDisplayClass@@QAEHXZ
_TEXT	SEGMENT
_this$ = -8						; size = 4
tv66 = -4						; size = 4
?IsLocked@MaverickDisplayClass@@QAEHXZ PROC		; MaverickDisplayClass::IsLocked, COMDAT
; _this$ = ecx

; 35   :       int IsLocked (void) {return (trackStatus == TargetLocked);};

	push	ebp
	mov	ebp, esp
	sub	esp, 8
	mov	DWORD PTR _this$[ebp], ecx
	mov	eax, DWORD PTR _this$[ebp]
	cmp	DWORD PTR [eax+64], 2
	jne	SHORT $LN3@IsLocked
	mov	DWORD PTR tv66[ebp], 1
	jmp	SHORT $LN4@IsLocked
$LN3@IsLocked:
	mov	DWORD PTR tv66[ebp], 0
$LN4@IsLocked:
	mov	eax, DWORD PTR tv66[ebp]
	mov	esp, ebp
	pop	ebp
	ret	0
?IsLocked@MaverickDisplayClass@@QAEHXZ ENDP		; MaverickDisplayClass::IsLocked
_TEXT	ENDS
; Function compile flags: /Odtp
; File c:\users\zhitao li\documents\visual studio 2012\projects\freefalcon\sim\include\mavdisp.h
;	COMDAT ?CurFOV@MaverickDisplayClass@@QAEMXZ
_TEXT	SEGMENT
_this$ = -4						; size = 4
?CurFOV@MaverickDisplayClass@@QAEMXZ PROC		; MaverickDisplayClass::CurFOV, COMDAT
; _this$ = ecx

; 32   :       float CurFOV (void) {return curFOV;};

	push	ebp
	mov	ebp, esp
	push	ecx
	mov	DWORD PTR _this$[ebp], ecx
	mov	eax, DWORD PTR _this$[ebp]
	fld	DWORD PTR [eax+60]
	mov	esp, ebp
	pop	ebp
	ret	0
?CurFOV@MaverickDisplayClass@@QAEMXZ ENDP		; MaverickDisplayClass::CurFOV
_TEXT	ENDS
; Function compile flags: /Odtp
; File c:\users\zhitao li\documents\visual studio 2012\projects\freefalcon\sim\include\mavdisp.h
;	COMDAT ?SetTarget@MaverickDisplayClass@@QAEXH@Z
_TEXT	SEGMENT
_this$ = -4						; size = 4
_flag$ = 8						; size = 4
?SetTarget@MaverickDisplayClass@@QAEXH@Z PROC		; MaverickDisplayClass::SetTarget, COMDAT
; _this$ = ecx

; 29   :       void SetTarget (int flag) { seesTarget = flag; };

	push	ebp
	mov	ebp, esp
	push	ecx
	mov	DWORD PTR _this$[ebp], ecx
	mov	eax, DWORD PTR _this$[ebp]
	mov	ecx, DWORD PTR _flag$[ebp]
	mov	DWORD PTR [eax+44], ecx
	mov	esp, ebp
	pop	ebp
	ret	4
?SetTarget@MaverickDisplayClass@@QAEXH@Z ENDP		; MaverickDisplayClass::SetTarget
_TEXT	ENDS
; Function compile flags: /Odtp
; File c:\users\zhitao li\documents\visual studio 2012\projects\freefalcon\sim\include\misldisp.h
;	COMDAT ?SetYPR@MissileDisplayClass@@QAEXMMM@Z
_TEXT	SEGMENT
_this$ = -4						; size = 4
_y$ = 8							; size = 4
_p$ = 12						; size = 4
_r$ = 16						; size = 4
?SetYPR@MissileDisplayClass@@QAEXMMM@Z PROC		; MissileDisplayClass::SetYPR, COMDAT
; _this$ = ecx

; 23   :       void SetYPR (float y, float p, float r) { platform->SetYPR(y, p, r); };

	push	ebp
	mov	ebp, esp
	push	ecx
	mov	DWORD PTR _this$[ebp], ecx
	push	ecx
	movss	xmm0, DWORD PTR _r$[ebp]
	movss	DWORD PTR [esp], xmm0
	push	ecx
	movss	xmm0, DWORD PTR _p$[ebp]
	movss	DWORD PTR [esp], xmm0
	push	ecx
	movss	xmm0, DWORD PTR _y$[ebp]
	movss	DWORD PTR [esp], xmm0
	mov	eax, DWORD PTR _this$[ebp]
	mov	ecx, DWORD PTR [eax+32]
	call	?SetYPR@VuEntity@@QAEXMMM@Z		; VuEntity::SetYPR
	mov	esp, ebp
	pop	ebp
	ret	12					; 0000000cH
?SetYPR@MissileDisplayClass@@QAEXMMM@Z ENDP		; MissileDisplayClass::SetYPR
_TEXT	ENDS
; Function compile flags: /Odtp
; File c:\users\zhitao li\documents\visual studio 2012\projects\freefalcon\sim\include\misldisp.h
;	COMDAT ?GetYPR@MissileDisplayClass@@QAEXPAM00@Z
_TEXT	SEGMENT
_this$ = -4						; size = 4
_y$ = 8							; size = 4
_p$ = 12						; size = 4
_r$ = 16						; size = 4
?GetYPR@MissileDisplayClass@@QAEXPAM00@Z PROC		; MissileDisplayClass::GetYPR, COMDAT
; _this$ = ecx

; 21   :       void GetYPR (float* y, float* p, float* r) { *y = platform->Yaw();

	push	ebp
	mov	ebp, esp
	push	ecx
	mov	DWORD PTR _this$[ebp], ecx
	mov	eax, DWORD PTR _this$[ebp]
	mov	ecx, DWORD PTR [eax+32]
	call	?Yaw@VuEntity@@QBEMXZ			; VuEntity::Yaw
	mov	ecx, DWORD PTR _y$[ebp]
	fstp	DWORD PTR [ecx]

; 22   :           *p = platform->Pitch(); *r = platform->Roll(); } ;

	mov	edx, DWORD PTR _this$[ebp]
	mov	ecx, DWORD PTR [edx+32]
	call	?Pitch@VuEntity@@QBEMXZ			; VuEntity::Pitch
	mov	eax, DWORD PTR _p$[ebp]
	fstp	DWORD PTR [eax]
	mov	ecx, DWORD PTR _this$[ebp]
	mov	ecx, DWORD PTR [ecx+32]
	call	?Roll@VuEntity@@QBEMXZ			; VuEntity::Roll
	mov	edx, DWORD PTR _r$[ebp]
	fstp	DWORD PTR [edx]
	mov	esp, ebp
	pop	ebp
	ret	12					; 0000000cH
?GetYPR@MissileDisplayClass@@QAEXPAM00@Z ENDP		; MissileDisplayClass::GetYPR
_TEXT	ENDS
; Function compile flags: /Odtp
; File c:\users\zhitao li\documents\visual studio 2012\projects\freefalcon\sim\include\misldisp.h
;	COMDAT ?SetXYZ@MissileDisplayClass@@QAEXMMM@Z
_TEXT	SEGMENT
_this$ = -4						; size = 4
_x$ = 8							; size = 4
_y$ = 12						; size = 4
_z$ = 16						; size = 4
?SetXYZ@MissileDisplayClass@@QAEXMMM@Z PROC		; MissileDisplayClass::SetXYZ, COMDAT
; _this$ = ecx

; 20   :       void SetXYZ (float x, float y, float z) { platform->SetPosition (x, y, z); } ;

	push	ebp
	mov	ebp, esp
	push	ecx
	mov	DWORD PTR _this$[ebp], ecx
	push	ecx
	movss	xmm0, DWORD PTR _z$[ebp]
	movss	DWORD PTR [esp], xmm0
	push	ecx
	movss	xmm0, DWORD PTR _y$[ebp]
	movss	DWORD PTR [esp], xmm0
	push	ecx
	movss	xmm0, DWORD PTR _x$[ebp]
	movss	DWORD PTR [esp], xmm0
	mov	eax, DWORD PTR _this$[ebp]
	mov	ecx, DWORD PTR [eax+32]
	call	?SetPosition@VuEntity@@QAEXMMM@Z	; VuEntity::SetPosition
	mov	esp, ebp
	pop	ebp
	ret	12					; 0000000cH
?SetXYZ@MissileDisplayClass@@QAEXMMM@Z ENDP		; MissileDisplayClass::SetXYZ
_TEXT	ENDS
; Function compile flags: /Odtp
; File c:\users\zhitao li\documents\visual studio 2012\projects\freefalcon\sim\include\sms.h
;	COMDAT ?CurHardpoint@SMSBaseClass@@QAEHXZ
_TEXT	SEGMENT
_this$ = -4						; size = 4
?CurHardpoint@SMSBaseClass@@QAEHXZ PROC			; SMSBaseClass::CurHardpoint, COMDAT
; _this$ = ecx

; 88   : 	int CurHardpoint (void) {return curHardpoint;};

	push	ebp
	mov	ebp, esp
	push	ecx
	mov	DWORD PTR _this$[ebp], ecx
	mov	eax, DWORD PTR _this$[ebp]
	mov	eax, DWORD PTR [eax+44]
	mov	esp, ebp
	pop	ebp
	ret	0
?CurHardpoint@SMSBaseClass@@QAEHXZ ENDP			; SMSBaseClass::CurHardpoint
_TEXT	ENDS
; Function compile flags: /Odtp
; File c:\users\zhitao li\documents\visual studio 2012\projects\freefalcon\sim\include\aircrft.h
;	COMDAT ?AutopilotType@AircraftClass@@QAE?AW4AutoPilotType@1@XZ
_TEXT	SEGMENT
_this$ = -4						; size = 4
?AutopilotType@AircraftClass@@QAE?AW4AutoPilotType@1@XZ PROC ; AircraftClass::AutopilotType, COMDAT
; _this$ = ecx

; 329  : 	AutoPilotType	AutopilotType (void) {return autopilotType;};

	push	ebp
	mov	ebp, esp
	push	ecx
	mov	DWORD PTR _this$[ebp], ecx
	mov	eax, DWORD PTR _this$[ebp]
	mov	eax, DWORD PTR [eax+968]
	mov	esp, ebp
	pop	ebp
	ret	0
?AutopilotType@AircraftClass@@QAE?AW4AutoPilotType@1@XZ ENDP ; AircraftClass::AutopilotType
_TEXT	ENDS
; Function compile flags: /Odtp
; File c:\users\zhitao li\documents\visual studio 2012\projects\freefalcon\falclib\include\playerop.h
;	COMDAT ?GetAvionicsType@PlayerOptionsClass@@QAEHXZ
_TEXT	SEGMENT
_this$ = -4						; size = 4
?GetAvionicsType@PlayerOptionsClass@@QAEHXZ PROC	; PlayerOptionsClass::GetAvionicsType, COMDAT
; _this$ = ecx

; 142  : 	int GetAvionicsType (void)								{ return SimAvionicsType; }

	push	ebp
	mov	ebp, esp
	push	ecx
	mov	DWORD PTR _this$[ebp], ecx
	mov	eax, DWORD PTR _this$[ebp]
	mov	eax, DWORD PTR [eax+64]
	mov	esp, ebp
	pop	ebp
	ret	0
?GetAvionicsType@PlayerOptionsClass@@QAEHXZ ENDP	; PlayerOptionsClass::GetAvionicsType
_TEXT	ENDS
; Function compile flags: /Odtp
; File c:\users\zhitao li\documents\visual studio 2012\projects\freefalcon\sim\include\missile.h
;	COMDAT ?SetTargetPosition@MissileClass@@QAEXMMM@Z
_TEXT	SEGMENT
_this$ = -4						; size = 4
_newX$ = 8						; size = 4
_newY$ = 12						; size = 4
_newZ$ = 16						; size = 4
?SetTargetPosition@MissileClass@@QAEXMMM@Z PROC		; MissileClass::SetTargetPosition, COMDAT
; _this$ = ecx

; 320  : 	void SetTargetPosition (float newX, float newY, float newZ) {

	push	ebp
	mov	ebp, esp
	push	ecx
	mov	DWORD PTR _this$[ebp], ecx

; 321  : 		targetX = newX; targetY = newY; targetZ = newZ;};

	mov	eax, DWORD PTR _this$[ebp]
	movss	xmm0, DWORD PTR _newX$[ebp]
	movss	DWORD PTR [eax+904], xmm0
	mov	ecx, DWORD PTR _this$[ebp]
	movss	xmm0, DWORD PTR _newY$[ebp]
	movss	DWORD PTR [ecx+908], xmm0
	mov	edx, DWORD PTR _this$[ebp]
	movss	xmm0, DWORD PTR _newZ$[ebp]
	movss	DWORD PTR [edx+912], xmm0
	mov	esp, ebp
	pop	ebp
	ret	12					; 0000000cH
?SetTargetPosition@MissileClass@@QAEXMMM@Z ENDP		; MissileClass::SetTargetPosition
_TEXT	ENDS
; Function compile flags: /Odtp
; File c:\users\zhitao li\documents\visual studio 2012\projects\freefalcon\sim\include\missile.h
;	COMDAT ?GetWEZmin@MissileClass@@QAEMXZ
_TEXT	SEGMENT
_this$ = -4						; size = 4
?GetWEZmin@MissileClass@@QAEMXZ PROC			; MissileClass::GetWEZmin, COMDAT
; _this$ = ecx

; 275  : 	float GetWEZmin (void) { return auxData->WEZmin;};

	push	ebp
	mov	ebp, esp
	push	ecx
	mov	DWORD PTR _this$[ebp], ecx
	mov	eax, DWORD PTR _this$[ebp]
	mov	ecx, DWORD PTR [eax+860]
	fld	DWORD PTR [ecx+12]
	mov	esp, ebp
	pop	ebp
	ret	0
?GetWEZmin@MissileClass@@QAEMXZ ENDP			; MissileClass::GetWEZmin
_TEXT	ENDS
; Function compile flags: /Odtp
; File c:\users\zhitao li\documents\visual studio 2012\projects\freefalcon\sim\include\missile.h
;	COMDAT ?GetWEZmax@MissileClass@@QAEMXZ
_TEXT	SEGMENT
_this$ = -4						; size = 4
?GetWEZmax@MissileClass@@QAEMXZ PROC			; MissileClass::GetWEZmax, COMDAT
; _this$ = ecx

; 274  : 	float GetWEZmax (void) { return auxData->WEZmax;};

	push	ebp
	mov	ebp, esp
	push	ecx
	mov	DWORD PTR _this$[ebp], ecx
	mov	eax, DWORD PTR _this$[ebp]
	mov	ecx, DWORD PTR [eax+860]
	fld	DWORD PTR [ecx+8]
	mov	esp, ebp
	pop	ebp
	ret	0
?GetWEZmax@MissileClass@@QAEMXZ ENDP			; MissileClass::GetWEZmax
_TEXT	ENDS
; Function compile flags: /Odtp
; File c:\users\zhitao li\documents\visual studio 2012\projects\freefalcon\sim\fcc\mavfcc.cpp
_TEXT	SEGMENT
tv259 = -80						; size = 8
tv350 = -72						; size = 4
tv352 = -68						; size = 4
tv333 = -64						; size = 4
tv326 = -60						; size = 4
tv346 = -56						; size = 4
tv348 = -52						; size = 4
tv319 = -48						; size = 4
tv312 = -44						; size = 4
tv344 = -40						; size = 4
tv305 = -36						; size = 4
tv298 = -32						; size = 4
tv293 = -28						; size = 4
tv280 = -24						; size = 4
tv342 = -20						; size = 4
tv273 = -16						; size = 4
tv88 = -12						; size = 4
_tmp$ = -8						; size = 4
_this$ = -4						; size = 4
?UpdateGroundObjectRelativeGeometry@FireControlComputer@@AAEXXZ PROC ; FireControlComputer::UpdateGroundObjectRelativeGeometry
; _this$ = ecx

; 862  : {

	push	ebp
	mov	ebp, esp
	sub	esp, 80					; 00000050H
	mov	DWORD PTR _this$[ebp], ecx

; 863  : //Tpoint pos;
; 864  : float tmp;
; 865  : 
; 866  :    /* JB 010624 Why? Setting the position like this screws up multiplayer and entitys' movement
; 867  : 	 if (targetPtr->BaseData()->IsSim() && ((SimBaseClass*)targetPtr->BaseData())->IsAwake())
; 868  :    {
; 869  :       ((SimBaseClass*)targetPtr->BaseData())->drawPointer->GetPosition (&pos);
; 870  :       targetPtr->BaseData()->SetPosition (pos.x, pos.y, pos.z);
; 871  :    }
; 872  : 	 */
; 873  : 
; 874  :    targetPtr->localData->az = groundDesignateAz;

	mov	eax, DWORD PTR _this$[ebp]
	mov	ecx, DWORD PTR [eax+132]
	mov	edx, DWORD PTR [ecx+12]
	mov	eax, DWORD PTR _this$[ebp]
	mov	ecx, DWORD PTR [eax+364]
	mov	DWORD PTR [edx+16], ecx

; 875  :    targetPtr->localData->el = groundDesignateEl;

	mov	edx, DWORD PTR _this$[ebp]
	mov	eax, DWORD PTR [edx+132]
	mov	ecx, DWORD PTR [eax+12]
	mov	edx, DWORD PTR _this$[ebp]
	mov	eax, DWORD PTR [edx+368]
	mov	DWORD PTR [ecx+28], eax

; 876  :    targetPtr->localData->droll = groundDesignateDroll = -(float)atan2 (sin(groundDesignateAz), sin(groundDesignateEl));

	mov	ecx, DWORD PTR _this$[ebp]
	push	ecx
	movss	xmm0, DWORD PTR [ecx+368]
	movss	DWORD PTR [esp], xmm0
	call	?sin@@YAMM@Z				; sin
	add	esp, -4					; fffffffcH
	fstp	QWORD PTR [esp]
	mov	edx, DWORD PTR _this$[ebp]
	push	ecx
	movss	xmm0, DWORD PTR [edx+364]
	movss	DWORD PTR [esp], xmm0
	call	?sin@@YAMM@Z				; sin
	add	esp, -4					; fffffffcH
	fstp	QWORD PTR [esp]
	call	?checked_atan2@@YANNN@Z			; checked_atan2
	add	esp, 16					; 00000010H
	fstp	QWORD PTR tv259[ebp]
	movsd	xmm0, QWORD PTR tv259[ebp]
	cvtsd2ss xmm0, xmm0
	xorps	xmm0, DWORD PTR __xmm@80000000800000008000000080000000
	movss	DWORD PTR tv88[ebp], xmm0
	mov	eax, DWORD PTR _this$[ebp]
	movss	xmm0, DWORD PTR tv88[ebp]
	movss	DWORD PTR [eax+372], xmm0
	mov	ecx, DWORD PTR _this$[ebp]
	mov	edx, DWORD PTR [ecx+132]
	mov	eax, DWORD PTR [edx+12]
	movss	xmm0, DWORD PTR tv88[ebp]
	movss	DWORD PTR [eax+40], xmm0

; 877  : 
; 878  :    tmp = (float)(cos (groundDesignateAz) * cos (groundDesignateEl));

	mov	ecx, DWORD PTR _this$[ebp]
	push	ecx
	movss	xmm0, DWORD PTR [ecx+364]
	movss	DWORD PTR [esp], xmm0
	call	?cos@@YAMM@Z				; cos
	add	esp, 4
	fstp	DWORD PTR tv273[ebp]
	movss	xmm0, DWORD PTR tv273[ebp]
	mov	edx, DWORD PTR _this$[ebp]
	push	ecx
	movss	xmm1, DWORD PTR [edx+368]
	movss	DWORD PTR [esp], xmm1
	movss	DWORD PTR tv342[ebp], xmm0
	call	?cos@@YAMM@Z				; cos
	add	esp, 4
	fstp	DWORD PTR tv280[ebp]
	movss	xmm0, DWORD PTR tv342[ebp]
	mulss	xmm0, DWORD PTR tv280[ebp]
	movss	DWORD PTR _tmp$[ebp], xmm0

; 879  :    targetPtr->localData->ata = (float)atan2(sqrt(1-tmp*tmp),tmp);

	cvtss2sd xmm0, DWORD PTR _tmp$[ebp]
	sub	esp, 8
	movsd	QWORD PTR [esp], xmm0
	movss	xmm0, DWORD PTR _tmp$[ebp]
	mulss	xmm0, DWORD PTR _tmp$[ebp]
	movss	xmm1, DWORD PTR __real@3f800000
	subss	xmm1, xmm0
	push	ecx
	movss	DWORD PTR [esp], xmm1
	call	?SqrtSSE@@YAMM@Z			; SqrtSSE
	add	esp, -4					; fffffffcH
	fstp	QWORD PTR [esp]
	call	?checked_atan2@@YANNN@Z			; checked_atan2
	add	esp, 16					; 00000010H
	fstp	DWORD PTR tv293[ebp]
	fld	DWORD PTR tv293[ebp]
	mov	eax, DWORD PTR _this$[ebp]
	mov	ecx, DWORD PTR [eax+132]
	mov	edx, DWORD PTR [ecx+12]
	fstp	DWORD PTR [edx]

; 880  : 
; 881  :    targetPtr->localData->range = (float) sqrt (
; 882  :       ((groundDesignateX - platform->XPos()) * (groundDesignateX - platform->XPos())) +
; 883  :       ((groundDesignateY - platform->YPos()) * (groundDesignateY - platform->YPos())) +
; 884  :       ((groundDesignateZ - platform->ZPos()) * (groundDesignateZ - platform->ZPos())));

	mov	eax, DWORD PTR _this$[ebp]
	mov	ecx, DWORD PTR [eax+140]
	call	?XPos@VuEntity@@QBEMXZ			; VuEntity::XPos
	fstp	DWORD PTR tv298[ebp]
	mov	ecx, DWORD PTR _this$[ebp]
	movss	xmm0, DWORD PTR [ecx+376]
	subss	xmm0, DWORD PTR tv298[ebp]
	mov	edx, DWORD PTR _this$[ebp]
	mov	ecx, DWORD PTR [edx+140]
	movss	DWORD PTR tv344[ebp], xmm0
	call	?XPos@VuEntity@@QBEMXZ			; VuEntity::XPos
	fstp	DWORD PTR tv305[ebp]
	mov	eax, DWORD PTR _this$[ebp]
	movss	xmm0, DWORD PTR [eax+376]
	subss	xmm0, DWORD PTR tv305[ebp]
	movss	xmm1, DWORD PTR tv344[ebp]
	mulss	xmm1, xmm0
	mov	ecx, DWORD PTR _this$[ebp]
	mov	ecx, DWORD PTR [ecx+140]
	movss	DWORD PTR tv346[ebp], xmm1
	call	?YPos@VuEntity@@QBEMXZ			; VuEntity::YPos
	fstp	DWORD PTR tv312[ebp]
	mov	edx, DWORD PTR _this$[ebp]
	movss	xmm0, DWORD PTR [edx+380]
	subss	xmm0, DWORD PTR tv312[ebp]
	mov	eax, DWORD PTR _this$[ebp]
	mov	ecx, DWORD PTR [eax+140]
	movss	DWORD PTR tv348[ebp], xmm0
	call	?YPos@VuEntity@@QBEMXZ			; VuEntity::YPos
	fstp	DWORD PTR tv319[ebp]
	mov	ecx, DWORD PTR _this$[ebp]
	movss	xmm0, DWORD PTR [ecx+380]
	subss	xmm0, DWORD PTR tv319[ebp]
	movss	xmm1, DWORD PTR tv348[ebp]
	mulss	xmm1, xmm0
	movss	xmm0, DWORD PTR tv346[ebp]
	addss	xmm0, xmm1
	mov	edx, DWORD PTR _this$[ebp]
	mov	ecx, DWORD PTR [edx+140]
	movss	DWORD PTR tv350[ebp], xmm0
	call	?ZPos@VuEntity@@QBEMXZ			; VuEntity::ZPos
	fstp	DWORD PTR tv326[ebp]
	mov	eax, DWORD PTR _this$[ebp]
	movss	xmm0, DWORD PTR [eax+384]
	subss	xmm0, DWORD PTR tv326[ebp]
	mov	ecx, DWORD PTR _this$[ebp]
	mov	ecx, DWORD PTR [ecx+140]
	movss	DWORD PTR tv352[ebp], xmm0
	call	?ZPos@VuEntity@@QBEMXZ			; VuEntity::ZPos
	fstp	DWORD PTR tv333[ebp]
	mov	edx, DWORD PTR _this$[ebp]
	movss	xmm0, DWORD PTR [edx+384]
	subss	xmm0, DWORD PTR tv333[ebp]
	movss	xmm1, DWORD PTR tv352[ebp]
	mulss	xmm1, xmm0
	movss	xmm0, DWORD PTR tv350[ebp]
	addss	xmm0, xmm1
	push	ecx
	movss	DWORD PTR [esp], xmm0
	call	?SqrtSSE@@YAMM@Z			; SqrtSSE
	add	esp, 4
	mov	eax, DWORD PTR _this$[ebp]
	mov	ecx, DWORD PTR [eax+132]
	mov	edx, DWORD PTR [ecx+12]
	fstp	DWORD PTR [edx+44]

; 885  : }

	mov	esp, ebp
	pop	ebp
	ret	0
?UpdateGroundObjectRelativeGeometry@FireControlComputer@@AAEXXZ ENDP ; FireControlComputer::UpdateGroundObjectRelativeGeometry
_TEXT	ENDS
; Function compile flags: /Odtp
; File c:\users\zhitao li\documents\visual studio 2012\projects\freefalcon\sim\fcc\mavfcc.cpp
_TEXT	SEGMENT
_featureWalker$ = -244					; size = 12
tv674 = -232						; size = 4
tv463 = -228						; size = 4
tv593 = -224						; size = 4
tv692 = -220						; size = 4
tv612 = -216						; size = 4
tv696 = -212						; size = 4
tv510 = -208						; size = 4
tv657 = -204						; size = 4
tv670 = -200						; size = 4
tv698 = -196						; size = 4
tv678 = -192						; size = 4
tv652 = -188						; size = 4
tv586 = -184						; size = 4
tv647 = -180						; size = 4
_groundRange$ = -176					; size = 4
tv694 = -172						; size = 4
tv484 = -168						; size = 4
tv642 = -164						; size = 4
tv470 = -160						; size = 4
tv684 = -156						; size = 4
tv607 = -152						; size = 4
tv688 = -148						; size = 4
tv602 = -144						; size = 4
tv637 = -140						; size = 4
tv456 = -136						; size = 4
tv690 = -132						; size = 4
$T2 = -128						; size = 4
tv632 = -124						; size = 4
tv502 = -120						; size = 4
tv627 = -116						; size = 4
tv672 = -112						; size = 4
tv686 = -108						; size = 4
tv491 = -104						; size = 4
tv622 = -100						; size = 4
tv668 = -96						; size = 4
tv680 = -92						; size = 4
tv477 = -88						; size = 4
tv617 = -84						; size = 4
tv666 = -80						; size = 4
tv682 = -76						; size = 4
tv676 = -72						; size = 4
_dx$ = -68						; size = 4
_curMin$ = -64						; size = 4
tv232 = -60						; size = 4
_CurRange$3 = -56					; size = 4
$T4 = -52						; size = 4
_dy$ = -48						; size = 4
_closestObj$ = -44					; size = 4
_testObject$ = -40					; size = 4
_tmpTarget$ = -36					; size = 4
_this$ = -32						; size = 4
_pos$5 = -28						; size = 12
__$ArrayPad$ = -16					; size = 4
__$EHRec$ = -12						; size = 12
_theMissile$ = 8					; size = 4
?CheckFeatures@FireControlComputer@@AAEXPAVMissileClass@@@Z PROC ; FireControlComputer::CheckFeatures
; _this$ = ecx

; 785  : {

	push	ebp
	mov	ebp, esp
	push	-1
	push	__ehhandler$?CheckFeatures@FireControlComputer@@AAEXPAVMissileClass@@@Z
	mov	eax, DWORD PTR fs:0
	push	eax
	sub	esp, 232				; 000000e8H
	mov	eax, DWORD PTR ___security_cookie
	xor	eax, ebp
	mov	DWORD PTR __$ArrayPad$[ebp], eax
	push	eax
	lea	eax, DWORD PTR __$EHRec$[ebp]
	mov	DWORD PTR fs:0, eax
	mov	DWORD PTR _this$[ebp], ecx

; 786  : 	VuListIterator featureWalker (SimDriver.featureList);

	mov	eax, DWORD PTR ?SimDriver@@3VSimulationDriver@@A+4
	push	eax
	lea	ecx, DWORD PTR _featureWalker$[ebp]
	call	??0VuListIterator@@QAE@PAVVuLinkedList@@@Z ; VuListIterator::VuListIterator
	mov	DWORD PTR __$EHRec$[ebp+8], 0

; 787  : 	FalconEntity* testObject = NULL;

	mov	DWORD PTR _testObject$[ebp], 0

; 788  : 	FalconEntity* closestObj = NULL;

	mov	DWORD PTR _closestObj$[ebp], 0

; 789  : 	SimObjectType* tmpTarget;
; 790  : 	float groundRange;
; 791  : 	float curMin, dx, dy;
; 792  : 
; 793  : 	if (!targetPtr)

	mov	ecx, DWORD PTR _this$[ebp]
	cmp	DWORD PTR [ecx+132], 0
	jne	$LN1@CheckFeatu

; 794  : 	{
; 795  : 		groundRange = (float)sqrt ((groundDesignateX - platform->XPos())*(groundDesignateX - platform->XPos()) +
; 796  : 			(groundDesignateY - platform->YPos())*(groundDesignateY - platform->YPos()) +
; 797  : 			(groundDesignateZ - platform->ZPos())*(groundDesignateZ - platform->ZPos()));

	mov	edx, DWORD PTR _this$[ebp]
	mov	ecx, DWORD PTR [edx+140]
	call	?XPos@VuEntity@@QBEMXZ			; VuEntity::XPos
	fstp	DWORD PTR tv456[ebp]
	mov	eax, DWORD PTR _this$[ebp]
	movss	xmm0, DWORD PTR [eax+376]
	subss	xmm0, DWORD PTR tv456[ebp]
	mov	ecx, DWORD PTR _this$[ebp]
	mov	ecx, DWORD PTR [ecx+140]
	movss	DWORD PTR tv666[ebp], xmm0
	call	?XPos@VuEntity@@QBEMXZ			; VuEntity::XPos
	fstp	DWORD PTR tv463[ebp]
	mov	edx, DWORD PTR _this$[ebp]
	movss	xmm0, DWORD PTR [edx+376]
	subss	xmm0, DWORD PTR tv463[ebp]
	movss	xmm1, DWORD PTR tv666[ebp]
	mulss	xmm1, xmm0
	mov	eax, DWORD PTR _this$[ebp]
	mov	ecx, DWORD PTR [eax+140]
	movss	DWORD PTR tv668[ebp], xmm1
	call	?YPos@VuEntity@@QBEMXZ			; VuEntity::YPos
	fstp	DWORD PTR tv470[ebp]
	mov	ecx, DWORD PTR _this$[ebp]
	movss	xmm0, DWORD PTR [ecx+380]
	subss	xmm0, DWORD PTR tv470[ebp]
	mov	edx, DWORD PTR _this$[ebp]
	mov	ecx, DWORD PTR [edx+140]
	movss	DWORD PTR tv670[ebp], xmm0
	call	?YPos@VuEntity@@QBEMXZ			; VuEntity::YPos
	fstp	DWORD PTR tv477[ebp]
	mov	eax, DWORD PTR _this$[ebp]
	movss	xmm0, DWORD PTR [eax+380]
	subss	xmm0, DWORD PTR tv477[ebp]
	movss	xmm1, DWORD PTR tv670[ebp]
	mulss	xmm1, xmm0
	movss	xmm0, DWORD PTR tv668[ebp]
	addss	xmm0, xmm1
	mov	ecx, DWORD PTR _this$[ebp]
	mov	ecx, DWORD PTR [ecx+140]
	movss	DWORD PTR tv672[ebp], xmm0
	call	?ZPos@VuEntity@@QBEMXZ			; VuEntity::ZPos
	fstp	DWORD PTR tv484[ebp]
	mov	edx, DWORD PTR _this$[ebp]
	movss	xmm0, DWORD PTR [edx+384]
	subss	xmm0, DWORD PTR tv484[ebp]
	mov	eax, DWORD PTR _this$[ebp]
	mov	ecx, DWORD PTR [eax+140]
	movss	DWORD PTR tv674[ebp], xmm0
	call	?ZPos@VuEntity@@QBEMXZ			; VuEntity::ZPos
	fstp	DWORD PTR tv491[ebp]
	mov	ecx, DWORD PTR _this$[ebp]
	movss	xmm0, DWORD PTR [ecx+384]
	subss	xmm0, DWORD PTR tv491[ebp]
	movss	xmm1, DWORD PTR tv674[ebp]
	mulss	xmm1, xmm0
	movss	xmm0, DWORD PTR tv672[ebp]
	addss	xmm0, xmm1
	push	ecx
	movss	DWORD PTR [esp], xmm0
	call	?SqrtSSE@@YAMM@Z			; SqrtSSE
	add	esp, 4
	fstp	DWORD PTR _groundRange$[ebp]

; 798  : 		curMin = rangeFOV * groundRange;

	movss	xmm0, DWORD PTR _rangeFOV
	mulss	xmm0, DWORD PTR _groundRange$[ebp]
	movss	DWORD PTR _curMin$[ebp], xmm0

; 799  : 
; 800  : 		{
; 801  : 			testObject = (FalconEntity*)featureWalker.GetFirst();

	lea	ecx, DWORD PTR _featureWalker$[ebp]
	call	?GetFirst@VuListIterator@@QAEPAVVuEntity@@XZ ; VuListIterator::GetFirst
	mov	DWORD PTR _testObject$[ebp], eax
$LN6@CheckFeatu:

; 802  : 			while (testObject){

	cmp	DWORD PTR _testObject$[ebp], 0
	je	$LN5@CheckFeatu

; 803  : 				dx = (float)fabs (testObject->XPos() - groundDesignateX);

	mov	ecx, DWORD PTR _testObject$[ebp]
	call	?XPos@VuEntity@@QBEMXZ			; VuEntity::XPos
	fstp	DWORD PTR tv502[ebp]
	movss	xmm0, DWORD PTR tv502[ebp]
	mov	edx, DWORD PTR _this$[ebp]
	subss	xmm0, DWORD PTR [edx+376]
	push	ecx
	movss	DWORD PTR [esp], xmm0
	call	?fabs@@YAMM@Z				; fabs
	add	esp, 4
	fstp	DWORD PTR _dx$[ebp]

; 804  : 				dy = (float)fabs (testObject->YPos() - groundDesignateY);

	mov	ecx, DWORD PTR _testObject$[ebp]
	call	?YPos@VuEntity@@QBEMXZ			; VuEntity::YPos
	fstp	DWORD PTR tv510[ebp]
	movss	xmm0, DWORD PTR tv510[ebp]
	mov	eax, DWORD PTR _this$[ebp]
	subss	xmm0, DWORD PTR [eax+380]
	push	ecx
	movss	DWORD PTR [esp], xmm0
	call	?fabs@@YAMM@Z				; fabs
	add	esp, 4
	fstp	DWORD PTR _dy$[ebp]

; 805  : 				//MI I don't know who did the original code below, but something must have been screwed
; 806  : 				//in his head when he wrote this! Fix for the jumping cursors
; 807  : 				float CurRange = (float)sqrt(dx*dx+dy*dy);

	movss	xmm0, DWORD PTR _dx$[ebp]
	mulss	xmm0, DWORD PTR _dx$[ebp]
	movss	xmm1, DWORD PTR _dy$[ebp]
	mulss	xmm1, DWORD PTR _dy$[ebp]
	addss	xmm0, xmm1
	push	ecx
	movss	DWORD PTR [esp], xmm0
	call	?SqrtSSE@@YAMM@Z			; SqrtSSE
	add	esp, 4
	fstp	DWORD PTR _CurRange$3[ebp]

; 808  : 				if((CurRange < curMin) && !(testObject->IsDead() || testObject->IsExploding())){

	movss	xmm0, DWORD PTR _curMin$[ebp]
	comiss	xmm0, DWORD PTR _CurRange$3[ebp]
	jbe	SHORT $LN4@CheckFeatu
	mov	ecx, DWORD PTR _testObject$[ebp]
	mov	edx, DWORD PTR [ecx]
	mov	ecx, DWORD PTR _testObject$[ebp]
	mov	eax, DWORD PTR [edx+212]
	call	eax
	test	eax, eax
	jne	SHORT $LN4@CheckFeatu
	mov	ecx, DWORD PTR _testObject$[ebp]
	mov	edx, DWORD PTR [ecx]
	mov	ecx, DWORD PTR _testObject$[ebp]
	mov	eax, DWORD PTR [edx+208]
	call	eax
	test	eax, eax
	jne	SHORT $LN4@CheckFeatu

; 809  : 					closestObj = testObject;

	mov	ecx, DWORD PTR _testObject$[ebp]
	mov	DWORD PTR _closestObj$[ebp], ecx

; 810  : 					curMin = CurRange;

	movss	xmm0, DWORD PTR _CurRange$3[ebp]
	movss	DWORD PTR _curMin$[ebp], xmm0
$LN4@CheckFeatu:

; 811  : 				}
; 812  : 				testObject = (FalconEntity*)featureWalker.GetNext();

	lea	ecx, DWORD PTR _featureWalker$[ebp]
	call	?GetNext@VuListIterator@@QAEPAVVuEntity@@XZ ; VuListIterator::GetNext
	mov	DWORD PTR _testObject$[ebp], eax

; 813  : 			}

	jmp	$LN6@CheckFeatu
$LN5@CheckFeatu:

; 814  : 		}
; 815  : 
; 816  : 		if (closestObj){

	cmp	DWORD PTR _closestObj$[ebp], 0
	je	$LN3@CheckFeatu

; 817  : 			Tpoint pos;
; 818  : 
; 819  : 			#ifdef DEBUG
; 820  : 			//tmpTarget = new SimObjectType(OBJ_TAG, platform, closestObj);
; 821  : 			#else
; 822  : 			tmpTarget = new SimObjectType(closestObj);

	push	24					; 00000018H
	call	??2@YAPAXI@Z				; operator new
	add	esp, 4
	mov	DWORD PTR $T4[ebp], eax
	mov	BYTE PTR __$EHRec$[ebp+8], 1
	cmp	DWORD PTR $T4[ebp], 0
	je	SHORT $LN10@CheckFeatu
	mov	edx, DWORD PTR _closestObj$[ebp]
	push	edx
	mov	ecx, DWORD PTR $T4[ebp]
	call	??0SimObjectType@@QAE@PAVFalconEntity@@@Z ; SimObjectType::SimObjectType
	mov	DWORD PTR tv232[ebp], eax
	jmp	SHORT $LN11@CheckFeatu
$LN10@CheckFeatu:
	mov	DWORD PTR tv232[ebp], 0
$LN11@CheckFeatu:
	mov	eax, DWORD PTR tv232[ebp]
	mov	DWORD PTR $T2[ebp], eax
	mov	BYTE PTR __$EHRec$[ebp+8], 0
	mov	ecx, DWORD PTR $T2[ebp]
	mov	DWORD PTR _tmpTarget$[ebp], ecx

; 823  : 			#endif
; 824  : 			tmpTarget->Reference(  );

	mov	ecx, DWORD PTR _tmpTarget$[ebp]
	call	?Reference@SimObjectType@@QAEXXZ	; SimObjectType::Reference

; 825  : 
; 826  : 					/* JB 010624 Why? Setting the position like this screws up multiplayer and entitys' movement
; 827  : 			if (tmpTarget->BaseData()->IsSim())		// We ASSUMED that testObject IsSim above, so why check here???
; 828  : 			{
; 829  : 				((SimBaseClass*)tmpTarget->BaseData())->drawPointer->GetPosition (&pos);
; 830  : 			} else 
; 831  : 					*/
; 832  : 			{
; 833  : 				pos.x = tmpTarget->BaseData()->XPos();

	mov	ecx, DWORD PTR _tmpTarget$[ebp]
	call	?BaseData@SimObjectType@@QAEPAVFalconEntity@@XZ ; SimObjectType::BaseData
	mov	ecx, eax
	call	?XPos@VuEntity@@QBEMXZ			; VuEntity::XPos
	fstp	DWORD PTR _pos$5[ebp]

; 834  : 				pos.y = tmpTarget->BaseData()->YPos();

	mov	ecx, DWORD PTR _tmpTarget$[ebp]
	call	?BaseData@SimObjectType@@QAEPAVFalconEntity@@XZ ; SimObjectType::BaseData
	mov	ecx, eax
	call	?YPos@VuEntity@@QBEMXZ			; VuEntity::YPos
	fstp	DWORD PTR _pos$5[ebp+4]

; 835  : 				pos.z = OTWDriver.GetGroundLevel( pos.x, pos.y );

	push	0
	push	ecx
	movss	xmm0, DWORD PTR _pos$5[ebp+4]
	movss	DWORD PTR [esp], xmm0
	push	ecx
	movss	xmm0, DWORD PTR _pos$5[ebp]
	movss	DWORD PTR [esp], xmm0
	mov	ecx, OFFSET ?OTWDriver@@3VOTWDriverClass@@A ; OTWDriver
	call	?GetGroundLevel@OTWDriverClass@@QAEMMMPAUTpoint@@@Z ; OTWDriverClass::GetGroundLevel
	fstp	DWORD PTR _pos$5[ebp+8]

; 836  : 			}
; 837  : 			tmpTarget->BaseData()->SetPosition (pos.x, pos.y, pos.z);

	push	ecx
	movss	xmm0, DWORD PTR _pos$5[ebp+8]
	movss	DWORD PTR [esp], xmm0
	push	ecx
	movss	xmm0, DWORD PTR _pos$5[ebp+4]
	movss	DWORD PTR [esp], xmm0
	push	ecx
	movss	xmm0, DWORD PTR _pos$5[ebp]
	movss	DWORD PTR [esp], xmm0
	mov	ecx, DWORD PTR _tmpTarget$[ebp]
	call	?BaseData@SimObjectType@@QAEPAVFalconEntity@@XZ ; SimObjectType::BaseData
	mov	ecx, eax
	call	?SetPosition@VuEntity@@QAEXMMM@Z	; VuEntity::SetPosition

; 838  : 
; 839  : 			tmpTarget->localData->az = groundDesignateAz;

	mov	edx, DWORD PTR _tmpTarget$[ebp]
	mov	eax, DWORD PTR [edx+12]
	mov	ecx, DWORD PTR _this$[ebp]
	mov	edx, DWORD PTR [ecx+364]
	mov	DWORD PTR [eax+16], edx

; 840  : 			tmpTarget->localData->el = groundDesignateEl;

	mov	eax, DWORD PTR _tmpTarget$[ebp]
	mov	ecx, DWORD PTR [eax+12]
	mov	edx, DWORD PTR _this$[ebp]
	mov	eax, DWORD PTR [edx+368]
	mov	DWORD PTR [ecx+28], eax

; 841  : 			groundDesignateDroll = (float)atan2 (sin(groundDesignateAz), sin(groundDesignateEl));

	mov	ecx, DWORD PTR _this$[ebp]
	push	ecx
	movss	xmm0, DWORD PTR [ecx+368]
	movss	DWORD PTR [esp], xmm0
	call	?sin@@YAMM@Z				; sin
	add	esp, -4					; fffffffcH
	fstp	QWORD PTR [esp]
	mov	edx, DWORD PTR _this$[ebp]
	push	ecx
	movss	xmm0, DWORD PTR [edx+364]
	movss	DWORD PTR [esp], xmm0
	call	?sin@@YAMM@Z				; sin
	add	esp, -4					; fffffffcH
	fstp	QWORD PTR [esp]
	call	?checked_atan2@@YANNN@Z			; checked_atan2
	add	esp, 16					; 00000010H
	mov	eax, DWORD PTR _this$[ebp]
	fstp	DWORD PTR [eax+372]

; 842  : 
; 843  : 			tmpTarget->localData->ata = (float)acos (cos (groundDesignateAz) * cos (groundDesignateEl));

	mov	ecx, DWORD PTR _this$[ebp]
	push	ecx
	movss	xmm0, DWORD PTR [ecx+364]
	movss	DWORD PTR [esp], xmm0
	call	?cos@@YAMM@Z				; cos
	add	esp, 4
	fstp	DWORD PTR tv586[ebp]
	movss	xmm0, DWORD PTR tv586[ebp]
	mov	edx, DWORD PTR _this$[ebp]
	push	ecx
	movss	xmm1, DWORD PTR [edx+368]
	movss	DWORD PTR [esp], xmm1
	movss	DWORD PTR tv676[ebp], xmm0
	call	?cos@@YAMM@Z				; cos
	add	esp, 4
	fstp	DWORD PTR tv593[ebp]
	movss	xmm0, DWORD PTR tv676[ebp]
	mulss	xmm0, DWORD PTR tv593[ebp]
	push	ecx
	movss	DWORD PTR [esp], xmm0
	call	?acos@@YAMM@Z				; acos
	add	esp, 4
	mov	eax, DWORD PTR _tmpTarget$[ebp]
	mov	ecx, DWORD PTR [eax+12]
	fstp	DWORD PTR [ecx]

; 844  : 
; 845  : 			tmpTarget->localData->range = (float) sqrt (
; 846  : 				((tmpTarget->BaseData()->XPos() - platform->XPos()) * (tmpTarget->BaseData()->XPos() - platform->XPos())) +
; 847  : 				((tmpTarget->BaseData()->YPos() - platform->YPos()) * (tmpTarget->BaseData()->YPos() - platform->YPos())) +
; 848  : 				((tmpTarget->BaseData()->ZPos() - platform->ZPos()) * (tmpTarget->BaseData()->ZPos() - platform->ZPos())));

	mov	ecx, DWORD PTR _tmpTarget$[ebp]
	call	?BaseData@SimObjectType@@QAEPAVFalconEntity@@XZ ; SimObjectType::BaseData
	mov	ecx, eax
	call	?XPos@VuEntity@@QBEMXZ			; VuEntity::XPos
	fstp	DWORD PTR tv602[ebp]
	movss	xmm0, DWORD PTR tv602[ebp]
	mov	edx, DWORD PTR _this$[ebp]
	mov	ecx, DWORD PTR [edx+140]
	movss	DWORD PTR tv678[ebp], xmm0
	call	?XPos@VuEntity@@QBEMXZ			; VuEntity::XPos
	fstp	DWORD PTR tv607[ebp]
	movss	xmm0, DWORD PTR tv678[ebp]
	subss	xmm0, DWORD PTR tv607[ebp]
	mov	ecx, DWORD PTR _tmpTarget$[ebp]
	movss	DWORD PTR tv680[ebp], xmm0
	call	?BaseData@SimObjectType@@QAEPAVFalconEntity@@XZ ; SimObjectType::BaseData
	mov	ecx, eax
	call	?XPos@VuEntity@@QBEMXZ			; VuEntity::XPos
	fstp	DWORD PTR tv612[ebp]
	movss	xmm0, DWORD PTR tv612[ebp]
	mov	eax, DWORD PTR _this$[ebp]
	mov	ecx, DWORD PTR [eax+140]
	movss	DWORD PTR tv682[ebp], xmm0
	call	?XPos@VuEntity@@QBEMXZ			; VuEntity::XPos
	fstp	DWORD PTR tv617[ebp]
	movss	xmm0, DWORD PTR tv682[ebp]
	subss	xmm0, DWORD PTR tv617[ebp]
	movss	xmm1, DWORD PTR tv680[ebp]
	mulss	xmm1, xmm0
	mov	ecx, DWORD PTR _tmpTarget$[ebp]
	movss	DWORD PTR tv684[ebp], xmm1
	call	?BaseData@SimObjectType@@QAEPAVFalconEntity@@XZ ; SimObjectType::BaseData
	mov	ecx, eax
	call	?YPos@VuEntity@@QBEMXZ			; VuEntity::YPos
	fstp	DWORD PTR tv622[ebp]
	movss	xmm0, DWORD PTR tv622[ebp]
	mov	ecx, DWORD PTR _this$[ebp]
	mov	ecx, DWORD PTR [ecx+140]
	movss	DWORD PTR tv686[ebp], xmm0
	call	?YPos@VuEntity@@QBEMXZ			; VuEntity::YPos
	fstp	DWORD PTR tv627[ebp]
	movss	xmm0, DWORD PTR tv686[ebp]
	subss	xmm0, DWORD PTR tv627[ebp]
	mov	ecx, DWORD PTR _tmpTarget$[ebp]
	movss	DWORD PTR tv688[ebp], xmm0
	call	?BaseData@SimObjectType@@QAEPAVFalconEntity@@XZ ; SimObjectType::BaseData
	mov	ecx, eax
	call	?YPos@VuEntity@@QBEMXZ			; VuEntity::YPos
	fstp	DWORD PTR tv632[ebp]
	movss	xmm0, DWORD PTR tv632[ebp]
	mov	edx, DWORD PTR _this$[ebp]
	mov	ecx, DWORD PTR [edx+140]
	movss	DWORD PTR tv690[ebp], xmm0
	call	?YPos@VuEntity@@QBEMXZ			; VuEntity::YPos
	fstp	DWORD PTR tv637[ebp]
	movss	xmm0, DWORD PTR tv690[ebp]
	subss	xmm0, DWORD PTR tv637[ebp]
	movss	xmm1, DWORD PTR tv688[ebp]
	mulss	xmm1, xmm0
	movss	xmm0, DWORD PTR tv684[ebp]
	addss	xmm0, xmm1
	mov	ecx, DWORD PTR _tmpTarget$[ebp]
	movss	DWORD PTR tv692[ebp], xmm0
	call	?BaseData@SimObjectType@@QAEPAVFalconEntity@@XZ ; SimObjectType::BaseData
	mov	ecx, eax
	call	?ZPos@VuEntity@@QBEMXZ			; VuEntity::ZPos
	fstp	DWORD PTR tv642[ebp]
	movss	xmm0, DWORD PTR tv642[ebp]
	mov	eax, DWORD PTR _this$[ebp]
	mov	ecx, DWORD PTR [eax+140]
	movss	DWORD PTR tv694[ebp], xmm0
	call	?ZPos@VuEntity@@QBEMXZ			; VuEntity::ZPos
	fstp	DWORD PTR tv647[ebp]
	movss	xmm0, DWORD PTR tv694[ebp]
	subss	xmm0, DWORD PTR tv647[ebp]
	mov	ecx, DWORD PTR _tmpTarget$[ebp]
	movss	DWORD PTR tv696[ebp], xmm0
	call	?BaseData@SimObjectType@@QAEPAVFalconEntity@@XZ ; SimObjectType::BaseData
	mov	ecx, eax
	call	?ZPos@VuEntity@@QBEMXZ			; VuEntity::ZPos
	fstp	DWORD PTR tv652[ebp]
	movss	xmm0, DWORD PTR tv652[ebp]
	mov	ecx, DWORD PTR _this$[ebp]
	mov	ecx, DWORD PTR [ecx+140]
	movss	DWORD PTR tv698[ebp], xmm0
	call	?ZPos@VuEntity@@QBEMXZ			; VuEntity::ZPos
	fstp	DWORD PTR tv657[ebp]
	movss	xmm0, DWORD PTR tv698[ebp]
	subss	xmm0, DWORD PTR tv657[ebp]
	movss	xmm1, DWORD PTR tv696[ebp]
	mulss	xmm1, xmm0
	movss	xmm0, DWORD PTR tv692[ebp]
	addss	xmm0, xmm1
	push	ecx
	movss	DWORD PTR [esp], xmm0
	call	?SqrtSSE@@YAMM@Z			; SqrtSSE
	add	esp, 4
	mov	edx, DWORD PTR _tmpTarget$[ebp]
	mov	eax, DWORD PTR [edx+12]
	fstp	DWORD PTR [eax+44]

; 849  : 
; 850  : 			theMissile->SetTarget(tmpTarget);

	mov	ecx, DWORD PTR _tmpTarget$[ebp]
	push	ecx
	mov	ecx, DWORD PTR _theMissile$[ebp]
	call	?SetTarget@MissileClass@@QAEXPAVSimObjectType@@@Z ; MissileClass::SetTarget

; 851  : 			theMissile->RunSeeker();

	mov	ecx, DWORD PTR _theMissile$[ebp]
	call	?RunSeeker@MissileClass@@QAEXXZ		; MissileClass::RunSeeker

; 852  :  			tmpTarget->Release(  );

	mov	ecx, DWORD PTR _tmpTarget$[ebp]
	call	?Release@SimObjectType@@QAEXXZ		; SimObjectType::Release
	jmp	SHORT $LN1@CheckFeatu
$LN3@CheckFeatu:

; 853  : 		}
; 854  : 		else if (theMissile->targetPtr)

	mov	edx, DWORD PTR _theMissile$[ebp]
	cmp	DWORD PTR [edx+656], 0
	je	SHORT $LN1@CheckFeatu

; 855  : 		{
; 856  : 			theMissile->SetTarget(NULL);

	push	0
	mov	ecx, DWORD PTR _theMissile$[ebp]
	call	?SetTarget@MissileClass@@QAEXPAVSimObjectType@@@Z ; MissileClass::SetTarget
$LN1@CheckFeatu:

; 857  : 		}
; 858  :    }
; 859  : }

	mov	DWORD PTR __$EHRec$[ebp+8], -1
	lea	ecx, DWORD PTR _featureWalker$[ebp]
	call	??1VuListIterator@@UAE@XZ		; VuListIterator::~VuListIterator
	mov	ecx, DWORD PTR __$EHRec$[ebp]
	mov	DWORD PTR fs:0, ecx
	pop	ecx
	mov	ecx, DWORD PTR __$ArrayPad$[ebp]
	xor	ecx, ebp
	call	@__security_check_cookie@4
	mov	esp, ebp
	pop	ebp
	ret	4
_TEXT	ENDS
text$x	SEGMENT
__unwindfunclet$?CheckFeatures@FireControlComputer@@AAEXPAVMissileClass@@@Z$0:
	lea	ecx, DWORD PTR _featureWalker$[ebp]
	jmp	??1VuListIterator@@UAE@XZ		; VuListIterator::~VuListIterator
__unwindfunclet$?CheckFeatures@FireControlComputer@@AAEXPAVMissileClass@@@Z$1:
	mov	eax, DWORD PTR $T4[ebp]
	push	eax
	call	??3@YAXPAX@Z				; operator delete
	pop	ecx
	ret	0
__ehhandler$?CheckFeatures@FireControlComputer@@AAEXPAVMissileClass@@@Z:
	mov	edx, DWORD PTR [esp+8]
	lea	eax, DWORD PTR [edx+12]
	mov	ecx, DWORD PTR [edx-236]
	xor	ecx, eax
	call	@__security_check_cookie@4
	mov	ecx, DWORD PTR [edx-4]
	xor	ecx, eax
	call	@__security_check_cookie@4
	mov	eax, OFFSET __ehfuncinfo$?CheckFeatures@FireControlComputer@@AAEXPAVMissileClass@@@Z
	jmp	___CxxFrameHandler3
text$x	ENDS
?CheckFeatures@FireControlComputer@@AAEXPAVMissileClass@@@Z ENDP ; FireControlComputer::CheckFeatures
; Function compile flags: /Odtp
; File c:\users\zhitao li\documents\visual studio 2012\projects\freefalcon\sim\fcc\mavfcc.cpp
_TEXT	SEGMENT
_this$ = -36						; size = 4
_retval$ = -32						; size = 4
_pos$ = -28						; size = 12
_dir$ = -16						; size = 12
__$ArrayPad$ = -4					; size = 4
_el$ = 8						; size = 4
_az$ = 12						; size = 4
_x$ = 16						; size = 4
_y$ = 20						; size = 4
_z$ = 24						; size = 4
?FindGroundIntersection@FireControlComputer@@AAEHMMPAM00@Z PROC ; FireControlComputer::FindGroundIntersection
; _this$ = ecx

; 760  : {

	push	ebp
	mov	ebp, esp
	sub	esp, 36					; 00000024H
	mov	eax, DWORD PTR ___security_cookie
	xor	eax, ebp
	mov	DWORD PTR __$ArrayPad$[ebp], eax
	mov	DWORD PTR _this$[ebp], ecx

; 761  : euler dir;
; 762  : vector pos;
; 763  : int retval;
; 764  : 
; 765  :    dir.yaw = az;

	movss	xmm0, DWORD PTR _az$[ebp]
	movss	DWORD PTR _dir$[ebp], xmm0

; 766  :    dir.pitch = el;

	movss	xmm0, DWORD PTR _el$[ebp]
	movss	DWORD PTR _dir$[ebp+4], xmm0

; 767  :    dir.roll  = platform->Roll();

	mov	eax, DWORD PTR _this$[ebp]
	mov	ecx, DWORD PTR [eax+140]
	call	?Roll@VuEntity@@QBEMXZ			; VuEntity::Roll
	fstp	DWORD PTR _dir$[ebp+8]

; 768  : 
; 769  :    if (OTWDriver.GetGroundIntersection (&dir, &pos))

	lea	ecx, DWORD PTR _pos$[ebp]
	push	ecx
	lea	edx, DWORD PTR _dir$[ebp]
	push	edx
	mov	ecx, OFFSET ?OTWDriver@@3VOTWDriverClass@@A ; OTWDriver
	call	?GetGroundIntersection@OTWDriverClass@@QAEHPAUeuler@@PAUvector@@@Z ; OTWDriverClass::GetGroundIntersection
	test	eax, eax
	je	SHORT $LN2@FindGround

; 770  :    {
; 771  :       *x = pos.x;

	mov	eax, DWORD PTR _x$[ebp]
	movss	xmm0, DWORD PTR _pos$[ebp]
	movss	DWORD PTR [eax], xmm0

; 772  :       *y = pos.y;

	mov	ecx, DWORD PTR _y$[ebp]
	movss	xmm0, DWORD PTR _pos$[ebp+4]
	movss	DWORD PTR [ecx], xmm0

; 773  :       *z = pos.z;

	mov	edx, DWORD PTR _z$[ebp]
	movss	xmm0, DWORD PTR _pos$[ebp+8]
	movss	DWORD PTR [edx], xmm0

; 774  :       retval = TRUE;

	mov	DWORD PTR _retval$[ebp], 1

; 775  :    }
; 776  :    else

	jmp	SHORT $LN1@FindGround
$LN2@FindGround:

; 777  :    {
; 778  :       retval = FALSE;

	mov	DWORD PTR _retval$[ebp], 0
$LN1@FindGround:

; 779  :    }
; 780  : 
; 781  :    return retval;

	mov	eax, DWORD PTR _retval$[ebp]

; 782  : }

	mov	ecx, DWORD PTR __$ArrayPad$[ebp]
	xor	ecx, ebp
	call	@__security_check_cookie@4
	mov	esp, ebp
	pop	ebp
	ret	20					; 00000014H
?FindGroundIntersection@FireControlComputer@@AAEHMMPAM00@Z ENDP ; FireControlComputer::FindGroundIntersection
_TEXT	ENDS
; Function compile flags: /Odtp
; File c:\users\zhitao li\documents\visual studio 2012\projects\freefalcon\sim\fcc\mavfcc.cpp
_TEXT	SEGMENT
tv475 = -120						; size = 4
tv440 = -116						; size = 4
tv432 = -112						; size = 4
tv421 = -108						; size = 4
tv407 = -104						; size = 4
tv399 = -100						; size = 4
tv471 = -96						; size = 4
tv473 = -92						; size = 4
tv368 = -88						; size = 4
tv361 = -84						; size = 4
tv467 = -80						; size = 4
tv469 = -76						; size = 4
tv354 = -72						; size = 4
tv347 = -68						; size = 4
tv465 = -64						; size = 4
tv340 = -60						; size = 4
tv333 = -56						; size = 4
tv278 = -52						; size = 4
tv239 = -48						; size = 4
tv231 = -44						; size = 4
tv203 = -40						; size = 4
tv202 = -36						; size = 4
tv193 = -32						; size = 4
_pa$ = -28						; size = 4
_pitch$ = -24						; size = 4
_yaw$ = -20						; size = 4
_minDist$ = -16						; size = 4
_range$ = -12						; size = 4
_curTarget$ = -8					; size = 4
_this$ = -4						; size = 4
_theMissile$ = 8					; size = 4
?MavCheckLock@FireControlComputer@@AAEPAVSimObjectType@@PAVMissileClass@@@Z PROC ; FireControlComputer::MavCheckLock
; _this$ = ecx

; 888  : {

	push	ebp
	mov	ebp, esp
	sub	esp, 120				; 00000078H
	mov	DWORD PTR _this$[ebp], ecx

; 889  : SimObjectType* curTarget = targetList;

	mov	eax, DWORD PTR _this$[ebp]
	mov	ecx, DWORD PTR [eax+136]
	mov	DWORD PTR _curTarget$[ebp], ecx

; 890  : float minDist;
; 891  : 
; 892  : float range = 0.0F; // a.s.

	movss	xmm0, DWORD PTR __real@00000000
	movss	DWORD PTR _range$[ebp], xmm0

; 893  : 
; 894  : //MI fix for better Maverick target selection
; 895  : AircraftClass *pa = (AircraftClass *)platform;

	mov	edx, DWORD PTR _this$[ebp]
	mov	eax, DWORD PTR [edx+140]
	mov	DWORD PTR _pa$[ebp], eax

; 896  : if (!playerFCC || (pa->IsPlayer() && pa->AutopilotType() == AircraftClass::CombatAP))

	mov	ecx, DWORD PTR _this$[ebp]
	cmp	DWORD PTR [ecx+92], 0
	je	SHORT $LN9@MavCheckLo
	mov	ecx, DWORD PTR _pa$[ebp]
	call	?IsPlayer@FalconEntity@@QAEHXZ		; FalconEntity::IsPlayer
	test	eax, eax
	je	SHORT $LN10@MavCheckLo
	mov	ecx, DWORD PTR _pa$[ebp]
	call	?AutopilotType@AircraftClass@@QAE?AW4AutoPilotType@1@XZ ; AircraftClass::AutopilotType
	cmp	eax, 2
	jne	SHORT $LN10@MavCheckLo
$LN9@MavCheckLo:

; 897  : 	minDist = 1.0F * DTR;	

	movss	xmm0, DWORD PTR __real@3c8efa34
	movss	DWORD PTR _minDist$[ebp], xmm0

; 898  : else

	jmp	$LN6@MavCheckLo
$LN10@MavCheckLo:

; 899  : {
; 900  : 	if (g_bMavFixes)  // a.s. 20.Ferb.2002 begin

	movzx	edx, BYTE PTR ?g_bMavFixes@@3_NA	; g_bMavFixes
	test	edx, edx
	je	$LN7@MavCheckLo

; 901  : 	{
; 902  : 		range = (float) sqrt (  
; 903  :         ((groundDesignateX - platform->XPos()) * (groundDesignateX - platform->XPos())) +
; 904  :         ((groundDesignateY - platform->YPos()) * (groundDesignateY - platform->YPos())) +
; 905  :         ((groundDesignateZ - platform->ZPos()) * (groundDesignateZ - platform->ZPos())));

	mov	eax, DWORD PTR _this$[ebp]
	mov	ecx, DWORD PTR [eax+140]
	call	?XPos@VuEntity@@QBEMXZ			; VuEntity::XPos
	fstp	DWORD PTR tv333[ebp]
	mov	ecx, DWORD PTR _this$[ebp]
	movss	xmm0, DWORD PTR [ecx+376]
	subss	xmm0, DWORD PTR tv333[ebp]
	mov	edx, DWORD PTR _this$[ebp]
	mov	ecx, DWORD PTR [edx+140]
	movss	DWORD PTR tv465[ebp], xmm0
	call	?XPos@VuEntity@@QBEMXZ			; VuEntity::XPos
	fstp	DWORD PTR tv340[ebp]
	mov	eax, DWORD PTR _this$[ebp]
	movss	xmm0, DWORD PTR [eax+376]
	subss	xmm0, DWORD PTR tv340[ebp]
	movss	xmm1, DWORD PTR tv465[ebp]
	mulss	xmm1, xmm0
	mov	ecx, DWORD PTR _this$[ebp]
	mov	ecx, DWORD PTR [ecx+140]
	movss	DWORD PTR tv467[ebp], xmm1
	call	?YPos@VuEntity@@QBEMXZ			; VuEntity::YPos
	fstp	DWORD PTR tv347[ebp]
	mov	edx, DWORD PTR _this$[ebp]
	movss	xmm0, DWORD PTR [edx+380]
	subss	xmm0, DWORD PTR tv347[ebp]
	mov	eax, DWORD PTR _this$[ebp]
	mov	ecx, DWORD PTR [eax+140]
	movss	DWORD PTR tv469[ebp], xmm0
	call	?YPos@VuEntity@@QBEMXZ			; VuEntity::YPos
	fstp	DWORD PTR tv354[ebp]
	mov	ecx, DWORD PTR _this$[ebp]
	movss	xmm0, DWORD PTR [ecx+380]
	subss	xmm0, DWORD PTR tv354[ebp]
	movss	xmm1, DWORD PTR tv469[ebp]
	mulss	xmm1, xmm0
	movss	xmm0, DWORD PTR tv467[ebp]
	addss	xmm0, xmm1
	mov	edx, DWORD PTR _this$[ebp]
	mov	ecx, DWORD PTR [edx+140]
	movss	DWORD PTR tv471[ebp], xmm0
	call	?ZPos@VuEntity@@QBEMXZ			; VuEntity::ZPos
	fstp	DWORD PTR tv361[ebp]
	mov	eax, DWORD PTR _this$[ebp]
	movss	xmm0, DWORD PTR [eax+384]
	subss	xmm0, DWORD PTR tv361[ebp]
	mov	ecx, DWORD PTR _this$[ebp]
	mov	ecx, DWORD PTR [ecx+140]
	movss	DWORD PTR tv473[ebp], xmm0
	call	?ZPos@VuEntity@@QBEMXZ			; VuEntity::ZPos
	fstp	DWORD PTR tv368[ebp]
	mov	edx, DWORD PTR _this$[ebp]
	movss	xmm0, DWORD PTR [edx+384]
	subss	xmm0, DWORD PTR tv368[ebp]
	movss	xmm1, DWORD PTR tv473[ebp]
	mulss	xmm1, xmm0
	movss	xmm0, DWORD PTR tv471[ebp]
	addss	xmm0, xmm1
	push	ecx
	movss	DWORD PTR [esp], xmm0
	call	?SqrtSSE@@YAMM@Z			; SqrtSSE
	add	esp, 4
	fstp	DWORD PTR _range$[ebp]

; 906  : 		// minDist is now between 0.2 and 0.6, depending on the dinstance to the rarget. The closer to the target the bigger minDist. 
; 907  : 		// Min (0.2) is reached at 45000 ft (apprx 9 miles
; 908  : 		minDist = min(0.6F , max(0.2F, 0.6F - 0.000009F * range ) ) * DTR; 

	movss	xmm0, DWORD PTR __real@3716feb5
	mulss	xmm0, DWORD PTR _range$[ebp]
	movss	xmm1, DWORD PTR __real@3f19999a
	subss	xmm1, xmm0
	movss	xmm0, DWORD PTR __real@3e4ccccd
	comiss	xmm0, xmm1
	jbe	SHORT $LN13@MavCheckLo
	movss	xmm0, DWORD PTR __real@3e4ccccd
	movss	DWORD PTR tv193[ebp], xmm0
	jmp	SHORT $LN14@MavCheckLo
$LN13@MavCheckLo:
	movss	xmm0, DWORD PTR __real@3716feb5
	mulss	xmm0, DWORD PTR _range$[ebp]
	movss	xmm1, DWORD PTR __real@3f19999a
	subss	xmm1, xmm0
	movss	DWORD PTR tv193[ebp], xmm1
$LN14@MavCheckLo:
	movss	xmm0, DWORD PTR tv193[ebp]
	comiss	xmm0, DWORD PTR __real@3f19999a
	jbe	SHORT $LN17@MavCheckLo
	movss	xmm0, DWORD PTR __real@3f19999a
	movss	DWORD PTR tv203[ebp], xmm0
	jmp	SHORT $LN18@MavCheckLo
$LN17@MavCheckLo:
	movss	xmm0, DWORD PTR __real@3716feb5
	mulss	xmm0, DWORD PTR _range$[ebp]
	movss	xmm1, DWORD PTR __real@3f19999a
	subss	xmm1, xmm0
	movss	xmm0, DWORD PTR __real@3e4ccccd
	comiss	xmm0, xmm1
	jbe	SHORT $LN15@MavCheckLo
	movss	xmm0, DWORD PTR __real@3e4ccccd
	movss	DWORD PTR tv202[ebp], xmm0
	jmp	SHORT $LN16@MavCheckLo
$LN15@MavCheckLo:
	movss	xmm0, DWORD PTR __real@3716feb5
	mulss	xmm0, DWORD PTR _range$[ebp]
	movss	xmm1, DWORD PTR __real@3f19999a
	subss	xmm1, xmm0
	movss	DWORD PTR tv202[ebp], xmm1
$LN16@MavCheckLo:
	movss	xmm0, DWORD PTR tv202[ebp]
	movss	DWORD PTR tv203[ebp], xmm0
$LN18@MavCheckLo:
	movss	xmm0, DWORD PTR tv203[ebp]
	mulss	xmm0, DWORD PTR __real@3c8efa34
	movss	DWORD PTR _minDist$[ebp], xmm0

; 909  : 	}  // a.s. end
; 910  : 	else

	jmp	SHORT $LN6@MavCheckLo
$LN7@MavCheckLo:

; 911  : 	{
; 912  : 		minDist = 0.2F * DTR;  // old value

	movss	xmm0, DWORD PTR __real@3b64c387
	movss	DWORD PTR _minDist$[ebp], xmm0
$LN6@MavCheckLo:

; 913  : 	}
; 914  : }
; 915  : 
; 916  : float yaw, pitch;
; 917  : 
; 918  :    // Find out where the missile is looking
; 919  :    theMissile->GetSeekerPos (&yaw, &pitch);

	lea	eax, DWORD PTR _pitch$[ebp]
	push	eax
	lea	ecx, DWORD PTR _yaw$[ebp]
	push	ecx
	mov	ecx, DWORD PTR _theMissile$[ebp]
	call	?GetSeekerPos@MissileClass@@QAEXPAM0@Z	; MissileClass::GetSeekerPos

; 920  :    theMissile->SetTarget(NULL);

	push	0
	mov	ecx, DWORD PTR _theMissile$[ebp]
	call	?SetTarget@MissileClass@@QAEXPAVSimObjectType@@@Z ; MissileClass::SetTarget
$LN5@MavCheckLo:

; 921  : 
; 922  :    // Look for a target
; 923  :    while (curTarget)

	cmp	DWORD PTR _curTarget$[ebp], 0
	je	$LN4@MavCheckLo

; 924  : 	{
; 925  :       if (fabs(curTarget->localData->az - yaw) < minDist &&
; 926  :           fabs(curTarget->localData->el - pitch) < minDist &&
; 927  :           curTarget->BaseData()->IsSim() &&
; 928  :           !curTarget->BaseData()->IsWeapon() &&
; 929  : 		  curTarget->BaseData()->GetVt() <= 60*KNOTS_TO_FTPSEC)	//MI Maverik lockup fix

	mov	edx, DWORD PTR _curTarget$[ebp]
	mov	eax, DWORD PTR [edx+12]
	movss	xmm0, DWORD PTR [eax+16]
	subss	xmm0, DWORD PTR _yaw$[ebp]
	push	ecx
	movss	DWORD PTR [esp], xmm0
	call	?fabs@@YAMM@Z				; fabs
	add	esp, 4
	fstp	DWORD PTR tv399[ebp]
	movss	xmm0, DWORD PTR _minDist$[ebp]
	comiss	xmm0, DWORD PTR tv399[ebp]
	jbe	$LN2@MavCheckLo
	mov	ecx, DWORD PTR _curTarget$[ebp]
	mov	edx, DWORD PTR [ecx+12]
	movss	xmm0, DWORD PTR [edx+28]
	subss	xmm0, DWORD PTR _pitch$[ebp]
	push	ecx
	movss	DWORD PTR [esp], xmm0
	call	?fabs@@YAMM@Z				; fabs
	add	esp, 4
	fstp	DWORD PTR tv407[ebp]
	movss	xmm0, DWORD PTR _minDist$[ebp]
	comiss	xmm0, DWORD PTR tv407[ebp]
	jbe	$LN2@MavCheckLo
	mov	ecx, DWORD PTR _curTarget$[ebp]
	call	?BaseData@SimObjectType@@QAEPAVFalconEntity@@XZ ; SimObjectType::BaseData
	mov	ecx, eax
	call	?IsSim@FalconEntity@@QAEHXZ		; FalconEntity::IsSim
	test	eax, eax
	je	$LN2@MavCheckLo
	mov	ecx, DWORD PTR _curTarget$[ebp]
	call	?BaseData@SimObjectType@@QAEPAVFalconEntity@@XZ ; SimObjectType::BaseData
	mov	DWORD PTR tv231[ebp], eax
	mov	eax, DWORD PTR tv231[ebp]
	mov	edx, DWORD PTR [eax]
	mov	ecx, DWORD PTR tv231[ebp]
	mov	eax, DWORD PTR [edx+204]
	call	eax
	test	eax, eax
	jne	$LN2@MavCheckLo
	mov	ecx, DWORD PTR _curTarget$[ebp]
	call	?BaseData@SimObjectType@@QAEPAVFalconEntity@@XZ ; SimObjectType::BaseData
	mov	DWORD PTR tv239[ebp], eax
	mov	ecx, DWORD PTR tv239[ebp]
	mov	edx, DWORD PTR [ecx]
	mov	ecx, DWORD PTR tv239[ebp]
	mov	eax, DWORD PTR [edx+220]
	call	eax
	fstp	DWORD PTR tv421[ebp]
	movss	xmm0, DWORD PTR __real@42ca8a53
	comiss	xmm0, DWORD PTR tv421[ebp]
	jb	$LN2@MavCheckLo

; 930  :       {
; 931  :          theMissile->SetTarget(curTarget);

	mov	ecx, DWORD PTR _curTarget$[ebp]
	push	ecx
	mov	ecx, DWORD PTR _theMissile$[ebp]
	call	?SetTarget@MissileClass@@QAEXPAVSimObjectType@@@Z ; MissileClass::SetTarget

; 932  :          theMissile->RunSeeker();

	mov	ecx, DWORD PTR _theMissile$[ebp]
	call	?RunSeeker@MissileClass@@QAEXXZ		; MissileClass::RunSeeker

; 933  :          if (theMissile->targetPtr)

	mov	edx, DWORD PTR _theMissile$[ebp]
	cmp	DWORD PTR [edx+656], 0
	je	$LN2@MavCheckLo

; 934  :          {
; 935  :             minDist = (float)min (fabs(curTarget->localData->az - yaw), fabs(curTarget->localData->el - pitch));

	mov	eax, DWORD PTR _curTarget$[ebp]
	mov	ecx, DWORD PTR [eax+12]
	movss	xmm0, DWORD PTR [ecx+16]
	subss	xmm0, DWORD PTR _yaw$[ebp]
	push	ecx
	movss	DWORD PTR [esp], xmm0
	call	?fabs@@YAMM@Z				; fabs
	add	esp, 4
	fstp	DWORD PTR tv432[ebp]
	movss	xmm0, DWORD PTR tv432[ebp]
	mov	edx, DWORD PTR _curTarget$[ebp]
	mov	eax, DWORD PTR [edx+12]
	movss	xmm1, DWORD PTR [eax+28]
	subss	xmm1, DWORD PTR _pitch$[ebp]
	push	ecx
	movss	DWORD PTR [esp], xmm1
	movss	DWORD PTR tv475[ebp], xmm0
	call	?fabs@@YAMM@Z				; fabs
	add	esp, 4
	fstp	DWORD PTR tv440[ebp]
	movss	xmm0, DWORD PTR tv440[ebp]
	movss	xmm1, DWORD PTR tv475[ebp]
	comiss	xmm0, xmm1
	jbe	SHORT $LN19@MavCheckLo
	mov	ecx, DWORD PTR _curTarget$[ebp]
	mov	edx, DWORD PTR [ecx+12]
	movss	xmm0, DWORD PTR [edx+16]
	subss	xmm0, DWORD PTR _yaw$[ebp]
	push	ecx
	movss	DWORD PTR [esp], xmm0
	call	?fabs@@YAMM@Z				; fabs
	add	esp, 4
	fstp	DWORD PTR tv278[ebp]
	jmp	SHORT $LN20@MavCheckLo
$LN19@MavCheckLo:
	mov	eax, DWORD PTR _curTarget$[ebp]
	mov	ecx, DWORD PTR [eax+12]
	movss	xmm0, DWORD PTR [ecx+28]
	subss	xmm0, DWORD PTR _pitch$[ebp]
	push	ecx
	movss	DWORD PTR [esp], xmm0
	call	?fabs@@YAMM@Z				; fabs
	add	esp, 4
	fstp	DWORD PTR tv278[ebp]
$LN20@MavCheckLo:
	movss	xmm0, DWORD PTR tv278[ebp]
	movss	DWORD PTR _minDist$[ebp], xmm0
$LN2@MavCheckLo:

; 936  :          }
; 937  :       }
; 938  :       curTarget = curTarget->next;

	mov	edx, DWORD PTR _curTarget$[ebp]
	mov	eax, DWORD PTR [edx+16]
	mov	DWORD PTR _curTarget$[ebp], eax

; 939  :    }

	jmp	$LN5@MavCheckLo
$LN4@MavCheckLo:

; 940  :    curTarget = theMissile->targetPtr;

	mov	ecx, DWORD PTR _theMissile$[ebp]
	mov	edx, DWORD PTR [ecx+656]
	mov	DWORD PTR _curTarget$[ebp], edx

; 941  : 
; 942  :    if (!theMissile->targetPtr)

	mov	eax, DWORD PTR _theMissile$[ebp]
	cmp	DWORD PTR [eax+656], 0
	jne	SHORT $LN1@MavCheckLo

; 943  :    {
; 944  :       CheckFeatures (theMissile);

	mov	ecx, DWORD PTR _theMissile$[ebp]
	push	ecx
	mov	ecx, DWORD PTR _this$[ebp]
	call	?CheckFeatures@FireControlComputer@@AAEXPAVMissileClass@@@Z ; FireControlComputer::CheckFeatures

; 945  :       curTarget = theMissile->targetPtr;

	mov	edx, DWORD PTR _theMissile$[ebp]
	mov	eax, DWORD PTR [edx+656]
	mov	DWORD PTR _curTarget$[ebp], eax
$LN1@MavCheckLo:

; 946  :    }
; 947  : 
; 948  :    return curTarget;

	mov	eax, DWORD PTR _curTarget$[ebp]

; 949  : }

	mov	esp, ebp
	pop	ebp
	ret	4
?MavCheckLock@FireControlComputer@@AAEPAVSimObjectType@@PAVMissileClass@@@Z ENDP ; FireControlComputer::MavCheckLock
_TEXT	ENDS
; Function compile flags: /Odtp
; File c:\users\zhitao li\documents\visual studio 2012\projects\freefalcon\sim\fcc\mavfcc.cpp
_TEXT	SEGMENT
tv3412 = -392						; size = 8
tv2987 = -384						; size = 4
tv2563 = -380						; size = 4
tv3373 = -376						; size = 4
tv3866 = -372						; size = 4
tv2715 = -368						; size = 4
tv3836 = -364						; size = 4
tv3252 = -360						; size = 4
_range$1 = -356						; size = 4
tv2912 = -352						; size = 4
tv3805 = -348						; size = 4
tv2647 = -344						; size = 4
tv3779 = -340						; size = 4
tv3919 = -336						; size = 4
tv3730 = -332						; size = 4
tv3102 = -328						; size = 4
tv3925 = -324						; size = 4
tv2926 = -320						; size = 4
tv3678 = -316						; size = 4
tv2776 = -312						; size = 4
tv3672 = -308						; size = 4
tv2701 = -304						; size = 4
tv3633 = -300						; size = 4
_tmpPtr$2 = -296					; size = 4
tv3923 = -292						; size = 4
tv3320 = -288						; size = 4
tv3572 = -284						; size = 4
tv3259 = -280						; size = 4
tv3565 = -276						; size = 4
tv3245 = -272						; size = 4
tv3558 = -268						; size = 4
tv3096 = -264						; size = 4
tv3506 = -260						; size = 4
tv3917 = -256						; size = 4
tv3455 = -252						; size = 4
tv2919 = -248						; size = 4
tv3444 = -244						; size = 4
tv2817 = -240						; size = 4
tv3421 = -236						; size = 4
tv3915 = -232						; size = 4
tv3921 = -228						; size = 4
tv2708 = -224						; size = 4
_groundrange$3 = -220					; size = 4
tv2652 = -216						; size = 4
tv3406 = -212						; size = 4
tv2642 = -208						; size = 4
tv3387 = -204						; size = 4
tv3380 = -200						; size = 4
tv2568 = -196						; size = 4
tv203 = -192						; size = 4
tv1669 = -188						; size = 4
_pa$4 = -184						; size = 4
_pa$5 = -180						; size = 4
tv2182 = -176						; size = 4
_sensoryaw$6 = -172					; size = 4
tv2171 = -168						; size = 4
_costheta$7 = -164					; size = 4
_curTarget$ = -160					; size = 4
_pi$8 = -156						; size = 4
_sinphi$9 = -152					; size = 4
tv189 = -148						; size = 4
_sintheta$10 = -144					; size = 4
tv240 = -140						; size = 4
_cosphi$11 = -136					; size = 4
tv416 = -132						; size = 4
_theRadar$12 = -128					; size = 4
_phi$13 = -124						; size = 4
_range$14 = -120					; size = 4
_alpha$15 = -116					; size = 4
_theta$16 = -112					; size = 4
_deltaY$17 = -108					; size = 4
_cosalpha$18 = -104					; size = 4
_isLimited$ = -100					; size = 4
_deltaX$19 = -96					; size = 4
_theRadar$ = -92					; size = 4
_curWeapon$ = -88					; size = 4
_theRadar$20 = -84					; size = 4
_tmpZ$ = -80						; size = 4
_tmpY$ = -76						; size = 4
_roll$ = -72						; size = 4
_tmpX$ = -68						; size = 4
_xMove$ = -64						; size = 4
_yMove$ = -60						; size = 4
_trig$ = -56						; size = 8
_rz$ = -48						; size = 4
_systemTarget$ = -44					; size = 4
_rx$ = -40						; size = 4
_dz$ = -36						; size = 4
_ry$ = -32						; size = 4
_dy$ = -28						; size = 4
_dx$ = -24						; size = 4
_theDisplay$ = -20					; size = 4
_yaw$ = -16						; size = 4
_pitch$ = -12						; size = 4
_theMissile$ = -8					; size = 4
_this$ = -4						; size = 4
?MaverickMode@FireControlComputer@@AAEXXZ PROC		; FireControlComputer::MaverickMode
; _this$ = ecx

; 75   : {

	push	ebp
	mov	ebp, esp
	sub	esp, 392				; 00000188H
	push	esi
	mov	DWORD PTR _this$[ebp], ecx

; 76   : SimObjectType *curTarget;
; 77   : MissileClass* theMissile;
; 78   : MaverickDisplayClass* theDisplay=NULL;

	mov	DWORD PTR _theDisplay$[ebp], 0

; 79   : float yaw, pitch, roll;
; 80   : float dx, dy, dz;
; 81   : float rx, ry, rz;
; 82   : float tmpX, tmpY, tmpZ;
; 83   : int isLimited;
; 84   : mlTrig trig;
; 85   : //Tpoint pos;
; 86   : SimObjectType *systemTarget;
; 87   : 
; 88   : // MD -- 20040110: adding for analog cursor support
; 89   : float xMove = 0.0F, yMove = 0.0F;

	movss	xmm0, DWORD PTR __real@00000000
	movss	DWORD PTR _xMove$[ebp], xmm0
	movss	xmm0, DWORD PTR __real@00000000
	movss	DWORD PTR _yMove$[ebp], xmm0

; 90   : 
; 91   : 	if ((cursorXCmd != 0) || (cursorYCmd != 0))

	mov	eax, DWORD PTR _this$[ebp]
	cmp	DWORD PTR [eax+196], 0
	jne	SHORT $LN101@MaverickMo
	mov	ecx, DWORD PTR _this$[ebp]
	cmp	DWORD PTR [ecx+200], 0
	je	SHORT $LN99@MaverickMo
$LN101@MaverickMo:

; 92   : 		if ((IO.AnalogIsUsed(AXIS_CURSOR_X) == true) && (IO.AnalogIsUsed(AXIS_CURSOR_Y) == true))

	push	11					; 0000000bH
	mov	ecx, OFFSET ?IO@@3VSIMLIB_IO_CLASS@@A	; IO
	call	?AnalogIsUsed@SIMLIB_IO_CLASS@@QAE_NW4GameAxis_t@@@Z ; SIMLIB_IO_CLASS::AnalogIsUsed
	movzx	edx, al
	cmp	edx, 1
	jne	SHORT $LN100@MaverickMo
	push	12					; 0000000cH
	mov	ecx, OFFSET ?IO@@3VSIMLIB_IO_CLASS@@A	; IO
	call	?AnalogIsUsed@SIMLIB_IO_CLASS@@QAE_NW4GameAxis_t@@@Z ; SIMLIB_IO_CLASS::AnalogIsUsed
	movzx	eax, al
	cmp	eax, 1
	jne	SHORT $LN100@MaverickMo

; 93   : 		{
; 94   : 			yMove = (float)cursorYCmd / 10000.0F;

	mov	ecx, DWORD PTR _this$[ebp]
	cvtsi2ss xmm0, DWORD PTR [ecx+200]
	divss	xmm0, DWORD PTR __real@461c4000
	movss	DWORD PTR _yMove$[ebp], xmm0

; 95   : 			xMove = (float)cursorXCmd / 10000.0F;

	mov	edx, DWORD PTR _this$[ebp]
	cvtsi2ss xmm0, DWORD PTR [edx+196]
	divss	xmm0, DWORD PTR __real@461c4000
	movss	DWORD PTR _xMove$[ebp], xmm0

; 96   : 		}
; 97   : 		else

	jmp	SHORT $LN99@MaverickMo
$LN100@MaverickMo:

; 98   : 		{
; 99   : 			yMove = (float)cursorYCmd;

	mov	eax, DWORD PTR _this$[ebp]
	cvtsi2ss xmm0, DWORD PTR [eax+200]
	movss	DWORD PTR _yMove$[ebp], xmm0

; 100  : 			xMove = (float)cursorXCmd;

	mov	ecx, DWORD PTR _this$[ebp]
	cvtsi2ss xmm0, DWORD PTR [ecx+196]
	movss	DWORD PTR _xMove$[ebp], xmm0
$LN99@MaverickMo:

; 101  : 		}
; 102  : 
; 103  : 
; 104  : 	// See if we have a radar target
; 105  : 	RadarClass* theRadar = (RadarClass*) FindSensor (platform, SensorClass::Radar);

	push	1
	mov	edx, DWORD PTR _this$[ebp]
	mov	eax, DWORD PTR [edx+140]
	push	eax
	call	?FindSensor@@YAPAVSensorClass@@PAVSimMoverClass@@H@Z ; FindSensor
	add	esp, 8
	mov	DWORD PTR _theRadar$[ebp], eax

; 106  : 	if (theRadar) 

	cmp	DWORD PTR _theRadar$[ebp], 0
	je	SHORT $LN98@MaverickMo

; 107  : 		systemTarget = theRadar->CurrentTarget();

	mov	ecx, DWORD PTR _theRadar$[ebp]
	call	?CurrentTarget@SensorClass@@QAEPAVSimObjectType@@XZ ; SensorClass::CurrentTarget
	mov	DWORD PTR _systemTarget$[ebp], eax

; 108  : 	else

	jmp	SHORT $LN97@MaverickMo
$LN98@MaverickMo:

; 109  : 		systemTarget = targetPtr;

	mov	ecx, DWORD PTR _this$[ebp]
	mov	edx, DWORD PTR [ecx+132]
	mov	DWORD PTR _systemTarget$[ebp], edx
$LN97@MaverickMo:

; 110  : 
; 111  : 	// COBRA - RED - FIXING CTDs - Make the display to be available before using it...
; 112  : 	theMissile = (MissileClass *)(Sms->GetCurrentWeapon());

	mov	eax, DWORD PTR _this$[ebp]
	mov	ecx, DWORD PTR [eax+408]
	mov	edx, DWORD PTR _this$[ebp]
	mov	eax, DWORD PTR [ecx]
	mov	ecx, DWORD PTR [edx+408]
	mov	edx, DWORD PTR [eax+12]
	call	edx
	mov	DWORD PTR _theMissile$[ebp], eax

; 113  :    if (theMissile && (MaverickDisplayClass*)(theMissile->display) && Sms->CurHardpoint() >= 0){

	cmp	DWORD PTR _theMissile$[ebp], 0
	je	SHORT $LN96@MaverickMo
	mov	eax, DWORD PTR _theMissile$[ebp]
	cmp	DWORD PTR [eax+712], 0
	je	SHORT $LN96@MaverickMo
	mov	ecx, DWORD PTR _this$[ebp]
	mov	ecx, DWORD PTR [ecx+408]
	call	?CurHardpoint@SMSBaseClass@@QAEHXZ	; SMSBaseClass::CurHardpoint
	test	eax, eax
	jl	SHORT $LN96@MaverickMo

; 114  :       theDisplay = (MaverickDisplayClass*)(theMissile->display);

	mov	edx, DWORD PTR _theMissile$[ebp]
	mov	eax, DWORD PTR [edx+712]
	mov	DWORD PTR _theDisplay$[ebp], eax

; 115  : 		// RV - Biker - Get WEZ max/min and convert to ft
; 116  : 		missileWEZmax = theMissile->GetWEZmax()*NM_TO_FT;

	mov	ecx, DWORD PTR _theMissile$[ebp]
	call	?GetWEZmax@MissileClass@@QAEMXZ		; MissileClass::GetWEZmax
	fstp	DWORD PTR tv2563[ebp]
	movss	xmm0, DWORD PTR tv2563[ebp]
	mulss	xmm0, DWORD PTR __real@45bde1b0
	mov	ecx, DWORD PTR _this$[ebp]
	movss	DWORD PTR [ecx+316], xmm0

; 117  : 		missileWEZmin = theMissile->GetWEZmin()*NM_TO_FT;

	mov	ecx, DWORD PTR _theMissile$[ebp]
	call	?GetWEZmin@MissileClass@@QAEMXZ		; MissileClass::GetWEZmin
	fstp	DWORD PTR tv2568[ebp]
	movss	xmm0, DWORD PTR tv2568[ebp]
	mulss	xmm0, DWORD PTR __real@45bde1b0
	mov	edx, DWORD PTR _this$[ebp]
	movss	DWORD PTR [edx+320], xmm0
$LN96@MaverickMo:

; 118  :    }
; 119  : 
; 120  :    //sfr: added display check
; 121  :    if ((theDisplay != NULL) && systemTarget && systemTarget->BaseData()->IsAirplane()) // Cobra - Target only ground targets

	cmp	DWORD PTR _theDisplay$[ebp], 0
	je	SHORT $LN95@MaverickMo
	cmp	DWORD PTR _systemTarget$[ebp], 0
	je	SHORT $LN95@MaverickMo
	mov	ecx, DWORD PTR _systemTarget$[ebp]
	call	?BaseData@SimObjectType@@QAEPAVFalconEntity@@XZ ; SimObjectType::BaseData
	mov	DWORD PTR tv189[ebp], eax
	mov	eax, DWORD PTR tv189[ebp]
	mov	edx, DWORD PTR [eax]
	mov	ecx, DWORD PTR tv189[ebp]
	mov	eax, DWORD PTR [edx+192]
	call	eax
	test	eax, eax
	je	SHORT $LN95@MaverickMo

; 122  :    {
; 123  :      if(theDisplay) theDisplay->DropTarget();

	cmp	DWORD PTR _theDisplay$[ebp], 0
	je	SHORT $LN94@MaverickMo
	mov	ecx, DWORD PTR _theDisplay$[ebp]
	call	?DropTarget@MaverickDisplayClass@@QAEXXZ ; MaverickDisplayClass::DropTarget
$LN94@MaverickMo:

; 124  :      ClearCurrentTarget();

	mov	ecx, DWORD PTR _this$[ebp]
	call	?ClearCurrentTarget@FireControlComputer@@QAEXXZ ; FireControlComputer::ClearCurrentTarget

; 125  :      missileTarget = FALSE;

	mov	ecx, DWORD PTR _this$[ebp]
	mov	BYTE PTR [ecx+192], 0

; 126  :      missileTOF    = 0.0f;

	mov	edx, DWORD PTR _this$[ebp]
	movss	xmm0, DWORD PTR __real@00000000
	movss	DWORD PTR [edx+232], xmm0

; 127  : 		return;

	jmp	$LN103@MaverickMo
$LN95@MaverickMo:

; 128  :    }
; 129  : 
; 130  :    // Make sure relative geometry is updated for the system target
; 131  :    if (systemTarget && systemTarget->BaseData()->IsStatic())

	cmp	DWORD PTR _systemTarget$[ebp], 0
	je	SHORT $LN93@MaverickMo
	mov	ecx, DWORD PTR _systemTarget$[ebp]
	call	?BaseData@SimObjectType@@QAEPAVFalconEntity@@XZ ; SimObjectType::BaseData
	mov	DWORD PTR tv203[ebp], eax
	mov	eax, DWORD PTR tv203[ebp]
	mov	edx, DWORD PTR [eax]
	mov	ecx, DWORD PTR tv203[ebp]
	mov	eax, DWORD PTR [edx+180]
	call	eax
	test	eax, eax
	je	SHORT $LN93@MaverickMo

; 132  :    {
; 133  :       SimObjectType* tmpPtr = systemTarget->next;

	mov	ecx, DWORD PTR _systemTarget$[ebp]
	mov	edx, DWORD PTR [ecx+16]
	mov	DWORD PTR _tmpPtr$2[ebp], edx

; 134  :       systemTarget->next = NULL;

	mov	eax, DWORD PTR _systemTarget$[ebp]
	mov	DWORD PTR [eax+16], 0

; 135  :       CalcRelGeom(platform, systemTarget, NULL, 1.0F / SimLibMajorFrameTime);

	movss	xmm0, DWORD PTR __real@3f800000
	divss	xmm0, DWORD PTR ?SimLibMajorFrameTime@@3MA
	push	ecx
	movss	DWORD PTR [esp], xmm0
	push	0
	mov	ecx, DWORD PTR _systemTarget$[ebp]
	push	ecx
	mov	edx, DWORD PTR _this$[ebp]
	mov	eax, DWORD PTR [edx+140]
	push	eax
	call	?CalcRelGeom@@YAXPAVSimBaseClass@@PAVSimObjectType@@QAY02MM@Z ; CalcRelGeom
	add	esp, 16					; 00000010H

; 136  :       systemTarget->next = tmpPtr;

	mov	ecx, DWORD PTR _systemTarget$[ebp]
	mov	edx, DWORD PTR _tmpPtr$2[ebp]
	mov	DWORD PTR [ecx+16], edx
$LN93@MaverickMo:

; 137  :    }
; 138  : 
; 139  :    // edg: I noted that sms->curHardpoint was -1 and caused a crash.  ergo the last
; 140  :    // test in this if stmt
; 141  : 
; 142  :    if (theDisplay)	

	cmp	DWORD PTR _theDisplay$[ebp], 0
	je	$LN92@MaverickMo

; 143  :    {
; 144  :       Sms->hardPoint[Sms->CurHardpoint()]->GetSubPosition(Sms->curWpnNum, &rx, &ry, &rz);

	mov	eax, DWORD PTR _this$[ebp]
	mov	esi, DWORD PTR [eax+408]
	mov	ecx, DWORD PTR _this$[ebp]
	mov	ecx, DWORD PTR [ecx+408]
	call	?CurHardpoint@SMSBaseClass@@QAEHXZ	; SMSBaseClass::CurHardpoint
	mov	edx, DWORD PTR [esi+4]
	mov	eax, DWORD PTR [edx+eax*4]
	mov	DWORD PTR tv240[ebp], eax
	lea	ecx, DWORD PTR _rz$[ebp]
	push	ecx
	lea	edx, DWORD PTR _ry$[ebp]
	push	edx
	lea	eax, DWORD PTR _rx$[ebp]
	push	eax
	mov	ecx, DWORD PTR _this$[ebp]
	mov	edx, DWORD PTR [ecx+408]
	mov	eax, DWORD PTR [edx+136]
	push	eax
	mov	ecx, DWORD PTR tv240[ebp]
	mov	edx, DWORD PTR [ecx]
	mov	ecx, DWORD PTR tv240[ebp]
	mov	eax, DWORD PTR [edx+32]
	call	eax

; 145  :       rx += 5.0F;

	movss	xmm0, DWORD PTR _rx$[ebp]
	addss	xmm0, DWORD PTR __real@40a00000
	movss	DWORD PTR _rx$[ebp], xmm0

; 146  :       dx = rx*platform->dmx[0][0] + ry*platform->dmx[1][0] + rz*platform->dmx[2][0];

	mov	ecx, DWORD PTR _this$[ebp]
	mov	edx, DWORD PTR [ecx+140]
	mov	eax, 12					; 0000000cH
	imul	eax, 0
	lea	ecx, DWORD PTR [edx+eax+296]
	mov	edx, 4
	imul	edx, 0
	movss	xmm0, DWORD PTR _rx$[ebp]
	mulss	xmm0, DWORD PTR [ecx+edx]
	mov	eax, DWORD PTR _this$[ebp]
	mov	ecx, DWORD PTR [eax+140]
	mov	edx, 12					; 0000000cH
	shl	edx, 0
	lea	eax, DWORD PTR [ecx+edx+296]
	mov	ecx, 4
	imul	ecx, 0
	movss	xmm1, DWORD PTR _ry$[ebp]
	mulss	xmm1, DWORD PTR [eax+ecx]
	addss	xmm0, xmm1
	mov	edx, DWORD PTR _this$[ebp]
	mov	eax, DWORD PTR [edx+140]
	mov	ecx, 12					; 0000000cH
	shl	ecx, 1
	lea	edx, DWORD PTR [eax+ecx+296]
	mov	eax, 4
	imul	eax, 0
	movss	xmm1, DWORD PTR _rz$[ebp]
	mulss	xmm1, DWORD PTR [edx+eax]
	addss	xmm0, xmm1
	movss	DWORD PTR _dx$[ebp], xmm0

; 147  :       dy = rx*platform->dmx[0][1] + ry*platform->dmx[1][1] + rz*platform->dmx[2][1];

	mov	ecx, DWORD PTR _this$[ebp]
	mov	edx, DWORD PTR [ecx+140]
	mov	eax, 12					; 0000000cH
	imul	eax, 0
	lea	ecx, DWORD PTR [edx+eax+296]
	mov	edx, 4
	shl	edx, 0
	movss	xmm0, DWORD PTR _rx$[ebp]
	mulss	xmm0, DWORD PTR [ecx+edx]
	mov	eax, DWORD PTR _this$[ebp]
	mov	ecx, DWORD PTR [eax+140]
	mov	edx, 12					; 0000000cH
	shl	edx, 0
	lea	eax, DWORD PTR [ecx+edx+296]
	mov	ecx, 4
	shl	ecx, 0
	movss	xmm1, DWORD PTR _ry$[ebp]
	mulss	xmm1, DWORD PTR [eax+ecx]
	addss	xmm0, xmm1
	mov	edx, DWORD PTR _this$[ebp]
	mov	eax, DWORD PTR [edx+140]
	mov	ecx, 12					; 0000000cH
	shl	ecx, 1
	lea	edx, DWORD PTR [eax+ecx+296]
	mov	eax, 4
	shl	eax, 0
	movss	xmm1, DWORD PTR _rz$[ebp]
	mulss	xmm1, DWORD PTR [edx+eax]
	addss	xmm0, xmm1
	movss	DWORD PTR _dy$[ebp], xmm0

; 148  :       dz = rx*platform->dmx[0][2] + ry*platform->dmx[1][2] + rz*platform->dmx[2][2];

	mov	ecx, DWORD PTR _this$[ebp]
	mov	edx, DWORD PTR [ecx+140]
	mov	eax, 12					; 0000000cH
	imul	eax, 0
	lea	ecx, DWORD PTR [edx+eax+296]
	mov	edx, 4
	shl	edx, 1
	movss	xmm0, DWORD PTR _rx$[ebp]
	mulss	xmm0, DWORD PTR [ecx+edx]
	mov	eax, DWORD PTR _this$[ebp]
	mov	ecx, DWORD PTR [eax+140]
	mov	edx, 12					; 0000000cH
	shl	edx, 0
	lea	eax, DWORD PTR [ecx+edx+296]
	mov	ecx, 4
	shl	ecx, 1
	movss	xmm1, DWORD PTR _ry$[ebp]
	mulss	xmm1, DWORD PTR [eax+ecx]
	addss	xmm0, xmm1
	mov	edx, DWORD PTR _this$[ebp]
	mov	eax, DWORD PTR [edx+140]
	mov	ecx, 12					; 0000000cH
	shl	ecx, 1
	lea	edx, DWORD PTR [eax+ecx+296]
	mov	eax, 4
	shl	eax, 1
	movss	xmm1, DWORD PTR _rz$[ebp]
	mulss	xmm1, DWORD PTR [edx+eax]
	addss	xmm0, xmm1
	movss	DWORD PTR _dz$[ebp], xmm0

; 149  : 
; 150  :       theDisplay->SetXYZ (platform->XPos() + dx, platform->YPos() + dy, platform->ZPos() + dz);

	mov	ecx, DWORD PTR _this$[ebp]
	mov	ecx, DWORD PTR [ecx+140]
	call	?ZPos@VuEntity@@QBEMXZ			; VuEntity::ZPos
	fstp	DWORD PTR tv2642[ebp]
	movss	xmm0, DWORD PTR tv2642[ebp]
	addss	xmm0, DWORD PTR _dz$[ebp]
	push	ecx
	movss	DWORD PTR [esp], xmm0
	mov	edx, DWORD PTR _this$[ebp]
	mov	ecx, DWORD PTR [edx+140]
	call	?YPos@VuEntity@@QBEMXZ			; VuEntity::YPos
	fstp	DWORD PTR tv2647[ebp]
	movss	xmm0, DWORD PTR tv2647[ebp]
	addss	xmm0, DWORD PTR _dy$[ebp]
	push	ecx
	movss	DWORD PTR [esp], xmm0
	mov	eax, DWORD PTR _this$[ebp]
	mov	ecx, DWORD PTR [eax+140]
	call	?XPos@VuEntity@@QBEMXZ			; VuEntity::XPos
	fstp	DWORD PTR tv2652[ebp]
	movss	xmm0, DWORD PTR tv2652[ebp]
	addss	xmm0, DWORD PTR _dx$[ebp]
	push	ecx
	movss	DWORD PTR [esp], xmm0
	mov	ecx, DWORD PTR _theDisplay$[ebp]
	call	?SetXYZ@MissileDisplayClass@@QAEXMMM@Z	; MissileDisplayClass::SetXYZ

; 151  : 
; 152  :       // Simple radars, look at locked target if any, otherwise look at cursors
; 153  : 	  // M.N. added full realism mode
; 154  :  			AircraftClass *pa = (AircraftClass *)platform;

	mov	ecx, DWORD PTR _this$[ebp]
	mov	edx, DWORD PTR [ecx+140]
	mov	DWORD PTR _pa$5[ebp], edx

; 155  :      if (!playerFCC || (pa->IsPlayer() && pa->AutopilotType() == AircraftClass::CombatAP) || ((PlayerOptions.GetAvionicsType() != ATRealistic && PlayerOptions.GetAvionicsType() != ATRealisticAV) && (subMode == SLAVE)))

	mov	eax, DWORD PTR _this$[ebp]
	cmp	DWORD PTR [eax+92], 0
	je	SHORT $LN90@MaverickMo
	mov	ecx, DWORD PTR _pa$5[ebp]
	call	?IsPlayer@FalconEntity@@QAEHXZ		; FalconEntity::IsPlayer
	test	eax, eax
	je	SHORT $LN89@MaverickMo
	mov	ecx, DWORD PTR _pa$5[ebp]
	call	?AutopilotType@AircraftClass@@QAE?AW4AutoPilotType@1@XZ ; AircraftClass::AutopilotType
	cmp	eax, 2
	je	SHORT $LN90@MaverickMo
$LN89@MaverickMo:
	mov	ecx, OFFSET ?PlayerOptions@@3VPlayerOptionsClass@@A ; PlayerOptions
	call	?GetAvionicsType@PlayerOptionsClass@@QAEHXZ ; PlayerOptionsClass::GetAvionicsType
	cmp	eax, 2
	je	$LN91@MaverickMo
	mov	ecx, OFFSET ?PlayerOptions@@3VPlayerOptionsClass@@A ; PlayerOptions
	call	?GetAvionicsType@PlayerOptionsClass@@QAEHXZ ; PlayerOptionsClass::GetAvionicsType
	cmp	eax, 3
	je	$LN91@MaverickMo
	mov	ecx, DWORD PTR _this$[ebp]
	cmp	DWORD PTR [ecx+148], 15			; 0000000fH
	jne	$LN91@MaverickMo
$LN90@MaverickMo:

; 156  :       {
; 157  :          if (systemTarget && systemTarget->BaseData()->OnGround())

	cmp	DWORD PTR _systemTarget$[ebp], 0
	je	SHORT $LN88@MaverickMo
	mov	ecx, DWORD PTR _systemTarget$[ebp]
	call	?BaseData@SimObjectType@@QAEPAVFalconEntity@@XZ ; SimObjectType::BaseData
	mov	DWORD PTR tv416[ebp], eax
	mov	edx, DWORD PTR tv416[ebp]
	mov	eax, DWORD PTR [edx]
	mov	ecx, DWORD PTR tv416[ebp]
	mov	edx, DWORD PTR [eax+148]
	call	edx
	test	eax, eax
	je	SHORT $LN88@MaverickMo

; 158  :          {
; 159  :             /* JB 010624 Why? Setting the position like this screws up multiplayer and entitys' movement
; 160  : 						if (systemTarget->BaseData()->IsSim() && ((SimBaseClass*)systemTarget->BaseData())->IsAwake())
; 161  :             {
; 162  :                ((SimBaseClass*)systemTarget->BaseData())->drawPointer->GetPosition (&pos);
; 163  :                systemTarget->BaseData()->SetPosition (systemTarget->BaseData()->XPos(),
; 164  :                   systemTarget->BaseData()->YPos(), pos.z);
; 165  :             }
; 166  : 						*/
; 167  : 
; 168  :             groundDesignateX = systemTarget->BaseData()->XPos();

	mov	ecx, DWORD PTR _systemTarget$[ebp]
	call	?BaseData@SimObjectType@@QAEPAVFalconEntity@@XZ ; SimObjectType::BaseData
	mov	ecx, eax
	call	?XPos@VuEntity@@QBEMXZ			; VuEntity::XPos
	mov	eax, DWORD PTR _this$[ebp]
	fstp	DWORD PTR [eax+376]

; 169  :             groundDesignateY = systemTarget->BaseData()->YPos();

	mov	ecx, DWORD PTR _systemTarget$[ebp]
	call	?BaseData@SimObjectType@@QAEPAVFalconEntity@@XZ ; SimObjectType::BaseData
	mov	ecx, eax
	call	?YPos@VuEntity@@QBEMXZ			; VuEntity::YPos
	mov	ecx, DWORD PTR _this$[ebp]
	fstp	DWORD PTR [ecx+380]

; 170  :             groundDesignateZ = systemTarget->BaseData()->ZPos();

	mov	ecx, DWORD PTR _systemTarget$[ebp]
	call	?BaseData@SimObjectType@@QAEPAVFalconEntity@@XZ ; SimObjectType::BaseData
	mov	ecx, eax
	call	?ZPos@VuEntity@@QBEMXZ			; VuEntity::ZPos
	mov	edx, DWORD PTR _this$[ebp]
	fstp	DWORD PTR [edx+384]

; 171  :          }
; 172  :          else

	jmp	SHORT $LN86@MaverickMo
$LN88@MaverickMo:

; 173  :          {
; 174  :             // Find the ground Point
; 175  : 			   RadarClass* theRadar = (RadarClass*) FindSensor (platform, SensorClass::Radar);

	push	1
	mov	eax, DWORD PTR _this$[ebp]
	mov	ecx, DWORD PTR [eax+140]
	push	ecx
	call	?FindSensor@@YAPAVSensorClass@@PAVSimMoverClass@@H@Z ; FindSensor
	add	esp, 8
	mov	DWORD PTR _theRadar$12[ebp], eax

; 176  : 			   if (theRadar)

	cmp	DWORD PTR _theRadar$12[ebp], 0
	je	SHORT $LN86@MaverickMo

; 177  :             {
; 178  : 				   theRadar->GetAGCenter (&groundDesignateX, &groundDesignateY);

	mov	edx, DWORD PTR _this$[ebp]
	add	edx, 380				; 0000017cH
	push	edx
	mov	eax, DWORD PTR _this$[ebp]
	add	eax, 376				; 00000178H
	push	eax
	mov	ecx, DWORD PTR _theRadar$12[ebp]
	mov	edx, DWORD PTR [ecx]
	mov	ecx, DWORD PTR _theRadar$12[ebp]
	mov	eax, DWORD PTR [edx+192]
	call	eax

; 179  : 				   groundDesignateZ = OTWDriver.GetGroundLevel(groundDesignateX, groundDesignateY);

	push	0
	mov	ecx, DWORD PTR _this$[ebp]
	push	ecx
	movss	xmm0, DWORD PTR [ecx+380]
	movss	DWORD PTR [esp], xmm0
	mov	edx, DWORD PTR _this$[ebp]
	push	ecx
	movss	xmm0, DWORD PTR [edx+376]
	movss	DWORD PTR [esp], xmm0
	mov	ecx, OFFSET ?OTWDriver@@3VOTWDriverClass@@A ; OTWDriver
	call	?GetGroundLevel@OTWDriverClass@@QAEMMMPAUTpoint@@@Z ; OTWDriverClass::GetGroundLevel
	mov	eax, DWORD PTR _this$[ebp]
	fstp	DWORD PTR [eax+384]
$LN86@MaverickMo:

; 180  : 			   }
; 181  :          }
; 182  : 
; 183  :          // Missile is stabalized, OK to have DLZ
; 184  :          missileTarget = TRUE;

	mov	ecx, DWORD PTR _this$[ebp]
	mov	BYTE PTR [ecx+192], 1

; 185  : 
; 186  :          // Point at the designated spot
; 187  :          dx = groundDesignateX - platform->XPos();

	mov	edx, DWORD PTR _this$[ebp]
	mov	ecx, DWORD PTR [edx+140]
	call	?XPos@VuEntity@@QBEMXZ			; VuEntity::XPos
	fstp	DWORD PTR tv2701[ebp]
	mov	eax, DWORD PTR _this$[ebp]
	movss	xmm0, DWORD PTR [eax+376]
	subss	xmm0, DWORD PTR tv2701[ebp]
	movss	DWORD PTR _dx$[ebp], xmm0

; 188  :          dy = groundDesignateY - platform->YPos();

	mov	ecx, DWORD PTR _this$[ebp]
	mov	ecx, DWORD PTR [ecx+140]
	call	?YPos@VuEntity@@QBEMXZ			; VuEntity::YPos
	fstp	DWORD PTR tv2708[ebp]
	mov	edx, DWORD PTR _this$[ebp]
	movss	xmm0, DWORD PTR [edx+380]
	subss	xmm0, DWORD PTR tv2708[ebp]
	movss	DWORD PTR _dy$[ebp], xmm0

; 189  :          dz = groundDesignateZ - platform->ZPos();

	mov	eax, DWORD PTR _this$[ebp]
	mov	ecx, DWORD PTR [eax+140]
	call	?ZPos@VuEntity@@QBEMXZ			; VuEntity::ZPos
	fstp	DWORD PTR tv2715[ebp]
	mov	ecx, DWORD PTR _this$[ebp]
	movss	xmm0, DWORD PTR [ecx+384]
	subss	xmm0, DWORD PTR tv2715[ebp]
	movss	DWORD PTR _dz$[ebp], xmm0

; 190  :          theMissile->SetTargetPosition (groundDesignateX, groundDesignateY, groundDesignateZ);

	mov	edx, DWORD PTR _this$[ebp]
	push	ecx
	movss	xmm0, DWORD PTR [edx+384]
	movss	DWORD PTR [esp], xmm0
	mov	eax, DWORD PTR _this$[ebp]
	push	ecx
	movss	xmm0, DWORD PTR [eax+380]
	movss	DWORD PTR [esp], xmm0
	mov	ecx, DWORD PTR _this$[ebp]
	push	ecx
	movss	xmm0, DWORD PTR [ecx+376]
	movss	DWORD PTR [esp], xmm0
	mov	ecx, DWORD PTR _theMissile$[ebp]
	call	?SetTargetPosition@MissileClass@@QAEXMMM@Z ; MissileClass::SetTargetPosition

; 191  : 
; 192  :          rx = platform->dmx[0][0]*dx + platform->dmx[0][1]*dy + platform->dmx[0][2]*dz;

	mov	edx, DWORD PTR _this$[ebp]
	mov	eax, DWORD PTR [edx+140]
	mov	ecx, 12					; 0000000cH
	imul	ecx, 0
	lea	edx, DWORD PTR [eax+ecx+296]
	mov	eax, 4
	imul	eax, 0
	movss	xmm0, DWORD PTR [edx+eax]
	mulss	xmm0, DWORD PTR _dx$[ebp]
	mov	ecx, DWORD PTR _this$[ebp]
	mov	edx, DWORD PTR [ecx+140]
	mov	eax, 12					; 0000000cH
	imul	eax, 0
	lea	ecx, DWORD PTR [edx+eax+296]
	mov	edx, 4
	shl	edx, 0
	movss	xmm1, DWORD PTR [ecx+edx]
	mulss	xmm1, DWORD PTR _dy$[ebp]
	addss	xmm0, xmm1
	mov	eax, DWORD PTR _this$[ebp]
	mov	ecx, DWORD PTR [eax+140]
	mov	edx, 12					; 0000000cH
	imul	edx, 0
	lea	eax, DWORD PTR [ecx+edx+296]
	mov	ecx, 4
	shl	ecx, 1
	movss	xmm1, DWORD PTR [eax+ecx]
	mulss	xmm1, DWORD PTR _dz$[ebp]
	addss	xmm0, xmm1
	movss	DWORD PTR _rx$[ebp], xmm0

; 193  :          ry = platform->dmx[1][0]*dx + platform->dmx[1][1]*dy + platform->dmx[1][2]*dz;

	mov	edx, DWORD PTR _this$[ebp]
	mov	eax, DWORD PTR [edx+140]
	mov	ecx, 12					; 0000000cH
	shl	ecx, 0
	lea	edx, DWORD PTR [eax+ecx+296]
	mov	eax, 4
	imul	eax, 0
	movss	xmm0, DWORD PTR [edx+eax]
	mulss	xmm0, DWORD PTR _dx$[ebp]
	mov	ecx, DWORD PTR _this$[ebp]
	mov	edx, DWORD PTR [ecx+140]
	mov	eax, 12					; 0000000cH
	shl	eax, 0
	lea	ecx, DWORD PTR [edx+eax+296]
	mov	edx, 4
	shl	edx, 0
	movss	xmm1, DWORD PTR [ecx+edx]
	mulss	xmm1, DWORD PTR _dy$[ebp]
	addss	xmm0, xmm1
	mov	eax, DWORD PTR _this$[ebp]
	mov	ecx, DWORD PTR [eax+140]
	mov	edx, 12					; 0000000cH
	shl	edx, 0
	lea	eax, DWORD PTR [ecx+edx+296]
	mov	ecx, 4
	shl	ecx, 1
	movss	xmm1, DWORD PTR [eax+ecx]
	mulss	xmm1, DWORD PTR _dz$[ebp]
	addss	xmm0, xmm1
	movss	DWORD PTR _ry$[ebp], xmm0

; 194  :          rz = platform->dmx[2][0]*dx + platform->dmx[2][1]*dy + platform->dmx[2][2]*dz;

	mov	edx, DWORD PTR _this$[ebp]
	mov	eax, DWORD PTR [edx+140]
	mov	ecx, 12					; 0000000cH
	shl	ecx, 1
	lea	edx, DWORD PTR [eax+ecx+296]
	mov	eax, 4
	imul	eax, 0
	movss	xmm0, DWORD PTR [edx+eax]
	mulss	xmm0, DWORD PTR _dx$[ebp]
	mov	ecx, DWORD PTR _this$[ebp]
	mov	edx, DWORD PTR [ecx+140]
	mov	eax, 12					; 0000000cH
	shl	eax, 1
	lea	ecx, DWORD PTR [edx+eax+296]
	mov	edx, 4
	shl	edx, 0
	movss	xmm1, DWORD PTR [ecx+edx]
	mulss	xmm1, DWORD PTR _dy$[ebp]
	addss	xmm0, xmm1
	mov	eax, DWORD PTR _this$[ebp]
	mov	ecx, DWORD PTR [eax+140]
	mov	edx, 12					; 0000000cH
	shl	edx, 1
	lea	eax, DWORD PTR [ecx+edx+296]
	mov	ecx, 4
	shl	ecx, 1
	movss	xmm1, DWORD PTR [eax+ecx]
	mulss	xmm1, DWORD PTR _dz$[ebp]
	addss	xmm0, xmm1
	movss	DWORD PTR _rz$[ebp], xmm0

; 195  : 
; 196  :          groundDesignateAz = (float)atan2 (ry,rx);

	cvtss2sd xmm0, DWORD PTR _rx$[ebp]
	sub	esp, 8
	movsd	QWORD PTR [esp], xmm0
	cvtss2sd xmm0, DWORD PTR _ry$[ebp]
	sub	esp, 8
	movsd	QWORD PTR [esp], xmm0
	call	?checked_atan2@@YANNN@Z			; checked_atan2
	add	esp, 16					; 00000010H
	mov	edx, DWORD PTR _this$[ebp]
	fstp	DWORD PTR [edx+364]

; 197  :          groundDesignateEl = (float)atan (-rz/(float)sqrt(rx*rx+ry*ry+.1f));

	movss	xmm0, DWORD PTR _rz$[ebp]
	xorps	xmm0, DWORD PTR __xmm@80000000800000008000000080000000
	movss	xmm1, DWORD PTR _rx$[ebp]
	mulss	xmm1, DWORD PTR _rx$[ebp]
	movss	xmm2, DWORD PTR _ry$[ebp]
	mulss	xmm2, DWORD PTR _ry$[ebp]
	addss	xmm1, xmm2
	addss	xmm1, DWORD PTR __real@3dcccccd
	push	ecx
	movss	DWORD PTR [esp], xmm1
	movss	DWORD PTR tv3915[ebp], xmm0
	call	?SqrtSSE@@YAMM@Z			; SqrtSSE
	add	esp, 4
	fstp	DWORD PTR tv2776[ebp]
	movss	xmm0, DWORD PTR tv3915[ebp]
	divss	xmm0, DWORD PTR tv2776[ebp]
	push	ecx
	movss	DWORD PTR [esp], xmm0
	call	?atan@@YAMM@Z				; atan
	add	esp, 4
	mov	eax, DWORD PTR _this$[ebp]
	fstp	DWORD PTR [eax+368]

; 198  :          groundDesignateDroll = (float)atan2 (ry, -rz);

	movss	xmm0, DWORD PTR _rz$[ebp]
	xorps	xmm0, DWORD PTR __xmm@80000000800000008000000080000000
	cvtss2sd xmm0, xmm0
	sub	esp, 8
	movsd	QWORD PTR [esp], xmm0
	cvtss2sd xmm0, DWORD PTR _ry$[ebp]
	sub	esp, 8
	movsd	QWORD PTR [esp], xmm0
	call	?checked_atan2@@YANNN@Z			; checked_atan2
	add	esp, 16					; 00000010H
	mov	ecx, DWORD PTR _this$[ebp]
	fstp	DWORD PTR [ecx+372]

; 199  : 
; 200  :          // Can the missile see the target?
; 201  :          theMissile->SetTarget(systemTarget);

	mov	edx, DWORD PTR _systemTarget$[ebp]
	push	edx
	mov	ecx, DWORD PTR _theMissile$[ebp]
	call	?SetTarget@MissileClass@@QAEXPAVSimObjectType@@@Z ; MissileClass::SetTarget

; 202  : 
; 203  : // 2001-05-25 ADDED BY S.G. SO RELATIVE GEOMETRY IS CALCULATED FOR THE TARGET
; 204  : // 2001-05-25 MODIFIED BY S.G. DONE IN 'SetTarget' INSTEAD.
; 205  : // 2001-10-20 MODIFIED BY S.G. THE CODE IN 'SetTarget' SLOWS DOWN AIM-9 TARGET HUNTING. TRYING IT HERE AGAIN...
; 206  : 		 if (theMissile->targetPtr)

	mov	eax, DWORD PTR _theMissile$[ebp]
	cmp	DWORD PTR [eax+656], 0
	je	SHORT $LN85@MaverickMo

; 207  : 		     CalcRelGeom(platform, theMissile->targetPtr, NULL, 1.0F / SimLibMajorFrameTime);

	movss	xmm0, DWORD PTR __real@3f800000
	divss	xmm0, DWORD PTR ?SimLibMajorFrameTime@@3MA
	push	ecx
	movss	DWORD PTR [esp], xmm0
	push	0
	mov	ecx, DWORD PTR _theMissile$[ebp]
	mov	edx, DWORD PTR [ecx+656]
	push	edx
	mov	eax, DWORD PTR _this$[ebp]
	mov	ecx, DWORD PTR [eax+140]
	push	ecx
	call	?CalcRelGeom@@YAXPAVSimBaseClass@@PAVSimObjectType@@QAY02MM@Z ; CalcRelGeom
	add	esp, 16					; 00000010H
$LN85@MaverickMo:

; 208  : // END OF ADDED SECTION
; 209  : 
; 210  :          pitch = groundDesignateEl;

	mov	edx, DWORD PTR _this$[ebp]
	movss	xmm0, DWORD PTR [edx+368]
	movss	DWORD PTR _pitch$[ebp], xmm0

; 211  :          yaw   = groundDesignateAz;

	mov	eax, DWORD PTR _this$[ebp]
	movss	xmm0, DWORD PTR [eax+364]
	movss	DWORD PTR _yaw$[ebp], xmm0

; 212  :          isLimited = theMissile->SetSeekerPos (&yaw, &pitch);

	lea	ecx, DWORD PTR _pitch$[ebp]
	push	ecx
	lea	edx, DWORD PTR _yaw$[ebp]
	push	edx
	mov	ecx, DWORD PTR _theMissile$[ebp]
	call	?SetSeekerPos@MissileClass@@QAEHPAM0@Z	; MissileClass::SetSeekerPos
	mov	DWORD PTR _isLimited$[ebp], eax

; 213  :          theMissile->RunSeeker();

	mov	ecx, DWORD PTR _theMissile$[ebp]
	call	?RunSeeker@MissileClass@@QAEXXZ		; MissileClass::RunSeeker

; 214  : 
; 215  :          if (theMissile->targetPtr)

	mov	eax, DWORD PTR _theMissile$[ebp]
	cmp	DWORD PTR [eax+656], 0
	je	$LN84@MaverickMo

; 216  :          {
; 217  :             theDisplay->LockTarget();

	mov	ecx, DWORD PTR _theDisplay$[ebp]
	call	?LockTarget@MaverickDisplayClass@@QAEXXZ ; MaverickDisplayClass::LockTarget

; 218  :             SetTarget( theMissile->targetPtr );

	mov	ecx, DWORD PTR _theMissile$[ebp]
	mov	edx, DWORD PTR [ecx+656]
	push	edx
	mov	ecx, DWORD PTR _this$[ebp]
	call	?SetTarget@FireControlComputer@@QAEXPAVSimObjectType@@@Z ; FireControlComputer::SetTarget

; 219  :             missileTarget = TRUE;

	mov	eax, DWORD PTR _this$[ebp]
	mov	BYTE PTR [eax+192], 1

; 220  :             missileTOF    = theMissile->GetTOF(-platform->ZPos(), platform->GetVt(), 0.0f, 0.0f, targetPtr->localData->range);

	mov	ecx, DWORD PTR _this$[ebp]
	mov	edx, DWORD PTR [ecx+132]
	mov	eax, DWORD PTR [edx+12]
	push	ecx
	movss	xmm0, DWORD PTR [eax+44]
	movss	DWORD PTR [esp], xmm0
	push	ecx
	movss	xmm0, DWORD PTR __real@00000000
	movss	DWORD PTR [esp], xmm0
	push	ecx
	movss	xmm0, DWORD PTR __real@00000000
	movss	DWORD PTR [esp], xmm0
	mov	ecx, DWORD PTR _this$[ebp]
	mov	edx, DWORD PTR [ecx+140]
	mov	eax, DWORD PTR _this$[ebp]
	mov	edx, DWORD PTR [edx]
	mov	ecx, DWORD PTR [eax+140]
	mov	eax, DWORD PTR [edx+220]
	call	eax
	push	ecx
	fstp	DWORD PTR [esp]
	mov	ecx, DWORD PTR _this$[ebp]
	mov	ecx, DWORD PTR [ecx+140]
	call	?ZPos@VuEntity@@QBEMXZ			; VuEntity::ZPos
	fstp	DWORD PTR tv2817[ebp]
	movss	xmm0, DWORD PTR tv2817[ebp]
	xorps	xmm0, DWORD PTR __xmm@80000000800000008000000080000000
	push	ecx
	movss	DWORD PTR [esp], xmm0
	mov	ecx, DWORD PTR _theMissile$[ebp]
	call	?GetTOF@MissileClass@@QAEMMMMMM@Z	; MissileClass::GetTOF
	mov	edx, DWORD PTR _this$[ebp]
	fstp	DWORD PTR [edx+232]

; 221  :          }
; 222  :          else

	jmp	SHORT $LN83@MaverickMo
$LN84@MaverickMo:

; 223  :          {
; 224  :             theDisplay->DropTarget();

	mov	ecx, DWORD PTR _theDisplay$[ebp]
	call	?DropTarget@MaverickDisplayClass@@QAEXXZ ; MaverickDisplayClass::DropTarget

; 225  :             ClearCurrentTarget();

	mov	ecx, DWORD PTR _this$[ebp]
	call	?ClearCurrentTarget@FireControlComputer@@QAEXXZ ; FireControlComputer::ClearCurrentTarget

; 226  :             missileTarget = FALSE;

	mov	eax, DWORD PTR _this$[ebp]
	mov	BYTE PTR [eax+192], 0

; 227  :             missileTOF    = 0.0f;

	mov	ecx, DWORD PTR _this$[ebp]
	movss	xmm0, DWORD PTR __real@00000000
	movss	DWORD PTR [ecx+232], xmm0
$LN83@MaverickMo:

; 228  :          }
; 229  : 
; 230  :          platform->SOIManager (SimVehicleClass::SOI_WEAPON);

	push	2
	mov	edx, DWORD PTR _this$[ebp]
	mov	ecx, DWORD PTR [edx+140]
	call	?SOIManager@SimVehicleClass@@QAEXW4SOI@1@@Z ; SimVehicleClass::SOIManager

; 231  :       }
; 232  :       else

	jmp	$LN11@MaverickMo
$LN91@MaverickMo:

; 233  :       {
; 234  :          if (dropTrackCmd)

	mov	eax, DWORD PTR _this$[ebp]
	movsx	ecx, BYTE PTR [eax+185]
	test	ecx, ecx
	je	$LN81@MaverickMo

; 235  :          {
; 236  :             if (theDisplay->IsLocked())

	mov	ecx, DWORD PTR _theDisplay$[ebp]
	call	?IsLocked@MaverickDisplayClass@@QAEHXZ	; MaverickDisplayClass::IsLocked
	test	eax, eax
	je	SHORT $LN80@MaverickMo

; 237  :             {
; 238  :                theDisplay->DetectTarget();

	mov	ecx, DWORD PTR _theDisplay$[ebp]
	call	?DetectTarget@MaverickDisplayClass@@QAEXXZ ; MaverickDisplayClass::DetectTarget

; 239  :                ClearCurrentTarget();

	mov	ecx, DWORD PTR _this$[ebp]
	call	?ClearCurrentTarget@FireControlComputer@@QAEXXZ ; FireControlComputer::ClearCurrentTarget

; 240  : 			      dropTrackCmd = FALSE;

	mov	edx, DWORD PTR _this$[ebp]
	mov	BYTE PTR [edx+185], 0

; 241  :             }
; 242  :             else

	jmp	$LN79@MaverickMo
$LN80@MaverickMo:

; 243  :             {
; 244  :                theDisplay->DropTarget();

	mov	ecx, DWORD PTR _theDisplay$[ebp]
	call	?DropTarget@MaverickDisplayClass@@QAEXXZ ; MaverickDisplayClass::DropTarget

; 245  :                preDesignate = TRUE;

	mov	eax, DWORD PTR _this$[ebp]
	mov	BYTE PTR [eax+182], 1

; 246  :                if (subMode != SLAVE)

	mov	ecx, DWORD PTR _this$[ebp]
	cmp	DWORD PTR [ecx+148], 15			; 0000000fH
	je	SHORT $LN78@MaverickMo

; 247  :                   platform->SOIManager (SimVehicleClass::SOI_HUD);

	push	0
	mov	edx, DWORD PTR _this$[ebp]
	mov	ecx, DWORD PTR [edx+140]
	call	?SOIManager@SimVehicleClass@@QAEXW4SOI@1@@Z ; SimVehicleClass::SOIManager

; 248  :                else

	jmp	SHORT $LN77@MaverickMo
$LN78@MaverickMo:

; 249  :                   platform->SOIManager (SimVehicleClass::SOI_RADAR);

	push	1
	mov	eax, DWORD PTR _this$[ebp]
	mov	ecx, DWORD PTR [eax+140]
	call	?SOIManager@SimVehicleClass@@QAEXW4SOI@1@@Z ; SimVehicleClass::SOIManager
$LN77@MaverickMo:

; 250  :                groundPipperAz = 0.0F;

	mov	ecx, DWORD PTR _this$[ebp]
	movss	xmm0, DWORD PTR __real@00000000
	movss	DWORD PTR [ecx+388], xmm0

; 251  :                groundPipperEl = 0.0F;

	mov	edx, DWORD PTR _this$[ebp]
	movss	xmm0, DWORD PTR __real@00000000
	movss	DWORD PTR [edx+392], xmm0

; 252  :                groundDesignateX = 0.0F;

	mov	eax, DWORD PTR _this$[ebp]
	movss	xmm0, DWORD PTR __real@00000000
	movss	DWORD PTR [eax+376], xmm0

; 253  :                groundDesignateY = 0.0F;

	mov	ecx, DWORD PTR _this$[ebp]
	movss	xmm0, DWORD PTR __real@00000000
	movss	DWORD PTR [ecx+380], xmm0

; 254  :                groundDesignateZ = 0.0F;

	mov	edx, DWORD PTR _this$[ebp]
	movss	xmm0, DWORD PTR __real@00000000
	movss	DWORD PTR [edx+384], xmm0

; 255  :                groundDesignateAz = 0.0F;

	mov	eax, DWORD PTR _this$[ebp]
	movss	xmm0, DWORD PTR __real@00000000
	movss	DWORD PTR [eax+364], xmm0

; 256  :                groundDesignateEl = 0.0F;

	mov	ecx, DWORD PTR _this$[ebp]
	movss	xmm0, DWORD PTR __real@00000000
	movss	DWORD PTR [ecx+368], xmm0

; 257  :                yaw = 0.0F;

	movss	xmm0, DWORD PTR __real@00000000
	movss	DWORD PTR _yaw$[ebp], xmm0

; 258  :                pitch = 0.0F;

	movss	xmm0, DWORD PTR __real@00000000
	movss	DWORD PTR _pitch$[ebp], xmm0

; 259  :                theMissile->SetSeekerPos (&yaw, &pitch);

	lea	edx, DWORD PTR _pitch$[ebp]
	push	edx
	lea	eax, DWORD PTR _yaw$[ebp]
	push	eax
	mov	ecx, DWORD PTR _theMissile$[ebp]
	call	?SetSeekerPos@MissileClass@@QAEHPAM0@Z	; MissileClass::SetSeekerPos

; 260  :                theDisplay->SetYPR (platform->Yaw(), platform->Pitch(), platform->Roll());

	mov	ecx, DWORD PTR _this$[ebp]
	mov	ecx, DWORD PTR [ecx+140]
	call	?Roll@VuEntity@@QBEMXZ			; VuEntity::Roll
	push	ecx
	fstp	DWORD PTR [esp]
	mov	edx, DWORD PTR _this$[ebp]
	mov	ecx, DWORD PTR [edx+140]
	call	?Pitch@VuEntity@@QBEMXZ			; VuEntity::Pitch
	push	ecx
	fstp	DWORD PTR [esp]
	mov	eax, DWORD PTR _this$[ebp]
	mov	ecx, DWORD PTR [eax+140]
	call	?Yaw@VuEntity@@QBEMXZ			; VuEntity::Yaw
	push	ecx
	fstp	DWORD PTR [esp]
	mov	ecx, DWORD PTR _theDisplay$[ebp]
	call	?SetYPR@MissileDisplayClass@@QAEXMMM@Z	; MissileDisplayClass::SetYPR

; 261  : 							 dropTrackCmd = FALSE;

	mov	ecx, DWORD PTR _this$[ebp]
	mov	BYTE PTR [ecx+185], 0

; 262  :                ClearCurrentTarget();

	mov	ecx, DWORD PTR _this$[ebp]
	call	?ClearCurrentTarget@FireControlComputer@@QAEXXZ ; FireControlComputer::ClearCurrentTarget

; 263  :                theDisplay->DropTarget();

	mov	ecx, DWORD PTR _theDisplay$[ebp]
	call	?DropTarget@MaverickDisplayClass@@QAEXXZ ; MaverickDisplayClass::DropTarget

; 264  : 
; 265  :                // Do back to unstabalized, NO DLZ
; 266  :                missileTarget = FALSE;

	mov	edx, DWORD PTR _this$[ebp]
	mov	BYTE PTR [edx+192], 0
$LN79@MaverickMo:

; 267  :             }

	jmp	$LN60@MaverickMo
$LN81@MaverickMo:

; 268  :          }
; 269  :          else if (preDesignate)

	mov	eax, DWORD PTR _this$[ebp]
	movsx	ecx, BYTE PTR [eax+182]
	test	ecx, ecx
	je	$LN75@MaverickMo

; 270  :          {
; 271  :             if (designateCmd)

	mov	edx, DWORD PTR _this$[ebp]
	movsx	eax, BYTE PTR [edx+184]
	test	eax, eax
	je	$LN74@MaverickMo

; 272  :             {
; 273  :                yaw   = platform->Yaw();

	mov	ecx, DWORD PTR _this$[ebp]
	mov	ecx, DWORD PTR [ecx+140]
	call	?Yaw@VuEntity@@QBEMXZ			; VuEntity::Yaw
	fstp	DWORD PTR _yaw$[ebp]

; 274  :                pitch = platform->Pitch();

	mov	edx, DWORD PTR _this$[ebp]
	mov	ecx, DWORD PTR [edx+140]
	call	?Pitch@VuEntity@@QBEMXZ			; VuEntity::Pitch
	fstp	DWORD PTR _pitch$[ebp]

; 275  :                mlSinCos (&trig, platform->Roll());

	mov	eax, DWORD PTR _this$[ebp]
	mov	ecx, DWORD PTR [eax+140]
	call	?Roll@VuEntity@@QBEMXZ			; VuEntity::Roll
	push	ecx
	fstp	DWORD PTR [esp]
	lea	ecx, DWORD PTR _trig$[ebp]
	push	ecx
	call	?mlSinCos@@YAXPAUmlTrig@@M@Z		; mlSinCos
	add	esp, 8

; 276  :                pitch += groundDesignateEl * trig.cos - groundDesignateAz*trig.sin;

	mov	edx, DWORD PTR _this$[ebp]
	movss	xmm0, DWORD PTR [edx+368]
	mulss	xmm0, DWORD PTR _trig$[ebp+4]
	mov	eax, DWORD PTR _this$[ebp]
	movss	xmm1, DWORD PTR [eax+364]
	mulss	xmm1, DWORD PTR _trig$[ebp]
	subss	xmm0, xmm1
	addss	xmm0, DWORD PTR _pitch$[ebp]
	movss	DWORD PTR _pitch$[ebp], xmm0

; 277  :                yaw   += groundDesignateEl * trig.sin + groundDesignateAz*trig.cos;

	mov	ecx, DWORD PTR _this$[ebp]
	movss	xmm0, DWORD PTR [ecx+368]
	mulss	xmm0, DWORD PTR _trig$[ebp]
	mov	edx, DWORD PTR _this$[ebp]
	movss	xmm1, DWORD PTR [edx+364]
	mulss	xmm1, DWORD PTR _trig$[ebp+4]
	addss	xmm0, xmm1
	addss	xmm0, DWORD PTR _yaw$[ebp]
	movss	DWORD PTR _yaw$[ebp], xmm0

; 278  :                if (FindGroundIntersection (pitch, yaw, &tmpX, &tmpY, &tmpZ))

	lea	eax, DWORD PTR _tmpZ$[ebp]
	push	eax
	lea	ecx, DWORD PTR _tmpY$[ebp]
	push	ecx
	lea	edx, DWORD PTR _tmpX$[ebp]
	push	edx
	push	ecx
	movss	xmm0, DWORD PTR _yaw$[ebp]
	movss	DWORD PTR [esp], xmm0
	push	ecx
	movss	xmm0, DWORD PTR _pitch$[ebp]
	movss	DWORD PTR [esp], xmm0
	mov	ecx, DWORD PTR _this$[ebp]
	call	?FindGroundIntersection@FireControlComputer@@AAEHMMPAM00@Z ; FireControlComputer::FindGroundIntersection
	test	eax, eax
	je	$LN73@MaverickMo

; 279  :                {
; 280  :                   // Point at the designated spot
; 281  :                   dx = groundDesignateX - platform->XPos();

	mov	eax, DWORD PTR _this$[ebp]
	mov	ecx, DWORD PTR [eax+140]
	call	?XPos@VuEntity@@QBEMXZ			; VuEntity::XPos
	fstp	DWORD PTR tv2912[ebp]
	mov	ecx, DWORD PTR _this$[ebp]
	movss	xmm0, DWORD PTR [ecx+376]
	subss	xmm0, DWORD PTR tv2912[ebp]
	movss	DWORD PTR _dx$[ebp], xmm0

; 282  :                   dy = groundDesignateY - platform->YPos();

	mov	edx, DWORD PTR _this$[ebp]
	mov	ecx, DWORD PTR [edx+140]
	call	?YPos@VuEntity@@QBEMXZ			; VuEntity::YPos
	fstp	DWORD PTR tv2919[ebp]
	mov	eax, DWORD PTR _this$[ebp]
	movss	xmm0, DWORD PTR [eax+380]
	subss	xmm0, DWORD PTR tv2919[ebp]
	movss	DWORD PTR _dy$[ebp], xmm0

; 283  :                   dz = groundDesignateZ - platform->ZPos();

	mov	ecx, DWORD PTR _this$[ebp]
	mov	ecx, DWORD PTR [ecx+140]
	call	?ZPos@VuEntity@@QBEMXZ			; VuEntity::ZPos
	fstp	DWORD PTR tv2926[ebp]
	mov	edx, DWORD PTR _this$[ebp]
	movss	xmm0, DWORD PTR [edx+384]
	subss	xmm0, DWORD PTR tv2926[ebp]
	movss	DWORD PTR _dz$[ebp], xmm0

; 284  :                   theMissile->SetTargetPosition (groundDesignateX, groundDesignateY, groundDesignateZ);

	mov	eax, DWORD PTR _this$[ebp]
	push	ecx
	movss	xmm0, DWORD PTR [eax+384]
	movss	DWORD PTR [esp], xmm0
	mov	ecx, DWORD PTR _this$[ebp]
	push	ecx
	movss	xmm0, DWORD PTR [ecx+380]
	movss	DWORD PTR [esp], xmm0
	mov	edx, DWORD PTR _this$[ebp]
	push	ecx
	movss	xmm0, DWORD PTR [edx+376]
	movss	DWORD PTR [esp], xmm0
	mov	ecx, DWORD PTR _theMissile$[ebp]
	call	?SetTargetPosition@MissileClass@@QAEXMMM@Z ; MissileClass::SetTargetPosition

; 285  : 
; 286  :                   rx = platform->dmx[0][0]*dx + platform->dmx[0][1]*dy + platform->dmx[0][2]*dz;

	mov	eax, DWORD PTR _this$[ebp]
	mov	ecx, DWORD PTR [eax+140]
	mov	edx, 12					; 0000000cH
	imul	edx, 0
	lea	eax, DWORD PTR [ecx+edx+296]
	mov	ecx, 4
	imul	ecx, 0
	movss	xmm0, DWORD PTR [eax+ecx]
	mulss	xmm0, DWORD PTR _dx$[ebp]
	mov	edx, DWORD PTR _this$[ebp]
	mov	eax, DWORD PTR [edx+140]
	mov	ecx, 12					; 0000000cH
	imul	ecx, 0
	lea	edx, DWORD PTR [eax+ecx+296]
	mov	eax, 4
	shl	eax, 0
	movss	xmm1, DWORD PTR [edx+eax]
	mulss	xmm1, DWORD PTR _dy$[ebp]
	addss	xmm0, xmm1
	mov	ecx, DWORD PTR _this$[ebp]
	mov	edx, DWORD PTR [ecx+140]
	mov	eax, 12					; 0000000cH
	imul	eax, 0
	lea	ecx, DWORD PTR [edx+eax+296]
	mov	edx, 4
	shl	edx, 1
	movss	xmm1, DWORD PTR [ecx+edx]
	mulss	xmm1, DWORD PTR _dz$[ebp]
	addss	xmm0, xmm1
	movss	DWORD PTR _rx$[ebp], xmm0

; 287  :                   ry = platform->dmx[1][0]*dx + platform->dmx[1][1]*dy + platform->dmx[1][2]*dz;

	mov	eax, DWORD PTR _this$[ebp]
	mov	ecx, DWORD PTR [eax+140]
	mov	edx, 12					; 0000000cH
	shl	edx, 0
	lea	eax, DWORD PTR [ecx+edx+296]
	mov	ecx, 4
	imul	ecx, 0
	movss	xmm0, DWORD PTR [eax+ecx]
	mulss	xmm0, DWORD PTR _dx$[ebp]
	mov	edx, DWORD PTR _this$[ebp]
	mov	eax, DWORD PTR [edx+140]
	mov	ecx, 12					; 0000000cH
	shl	ecx, 0
	lea	edx, DWORD PTR [eax+ecx+296]
	mov	eax, 4
	shl	eax, 0
	movss	xmm1, DWORD PTR [edx+eax]
	mulss	xmm1, DWORD PTR _dy$[ebp]
	addss	xmm0, xmm1
	mov	ecx, DWORD PTR _this$[ebp]
	mov	edx, DWORD PTR [ecx+140]
	mov	eax, 12					; 0000000cH
	shl	eax, 0
	lea	ecx, DWORD PTR [edx+eax+296]
	mov	edx, 4
	shl	edx, 1
	movss	xmm1, DWORD PTR [ecx+edx]
	mulss	xmm1, DWORD PTR _dz$[ebp]
	addss	xmm0, xmm1
	movss	DWORD PTR _ry$[ebp], xmm0

; 288  :                   rz = platform->dmx[2][0]*dx + platform->dmx[2][1]*dy + platform->dmx[2][2]*dz;

	mov	eax, DWORD PTR _this$[ebp]
	mov	ecx, DWORD PTR [eax+140]
	mov	edx, 12					; 0000000cH
	shl	edx, 1
	lea	eax, DWORD PTR [ecx+edx+296]
	mov	ecx, 4
	imul	ecx, 0
	movss	xmm0, DWORD PTR [eax+ecx]
	mulss	xmm0, DWORD PTR _dx$[ebp]
	mov	edx, DWORD PTR _this$[ebp]
	mov	eax, DWORD PTR [edx+140]
	mov	ecx, 12					; 0000000cH
	shl	ecx, 1
	lea	edx, DWORD PTR [eax+ecx+296]
	mov	eax, 4
	shl	eax, 0
	movss	xmm1, DWORD PTR [edx+eax]
	mulss	xmm1, DWORD PTR _dy$[ebp]
	addss	xmm0, xmm1
	mov	ecx, DWORD PTR _this$[ebp]
	mov	edx, DWORD PTR [ecx+140]
	mov	eax, 12					; 0000000cH
	shl	eax, 1
	lea	ecx, DWORD PTR [edx+eax+296]
	mov	edx, 4
	shl	edx, 1
	movss	xmm1, DWORD PTR [ecx+edx]
	mulss	xmm1, DWORD PTR _dz$[ebp]
	addss	xmm0, xmm1
	movss	DWORD PTR _rz$[ebp], xmm0

; 289  : 
; 290  :                   groundDesignateAz = (float)atan2 (ry,rx);

	cvtss2sd xmm0, DWORD PTR _rx$[ebp]
	sub	esp, 8
	movsd	QWORD PTR [esp], xmm0
	cvtss2sd xmm0, DWORD PTR _ry$[ebp]
	sub	esp, 8
	movsd	QWORD PTR [esp], xmm0
	call	?checked_atan2@@YANNN@Z			; checked_atan2
	add	esp, 16					; 00000010H
	mov	eax, DWORD PTR _this$[ebp]
	fstp	DWORD PTR [eax+364]

; 291  :                   groundDesignateEl = (float)atan (-rz/(float)sqrt(rx*rx+ry*ry+.1f));

	movss	xmm0, DWORD PTR _rz$[ebp]
	xorps	xmm0, DWORD PTR __xmm@80000000800000008000000080000000
	movss	xmm1, DWORD PTR _rx$[ebp]
	mulss	xmm1, DWORD PTR _rx$[ebp]
	movss	xmm2, DWORD PTR _ry$[ebp]
	mulss	xmm2, DWORD PTR _ry$[ebp]
	addss	xmm1, xmm2
	addss	xmm1, DWORD PTR __real@3dcccccd
	push	ecx
	movss	DWORD PTR [esp], xmm1
	movss	DWORD PTR tv3917[ebp], xmm0
	call	?SqrtSSE@@YAMM@Z			; SqrtSSE
	add	esp, 4
	fstp	DWORD PTR tv2987[ebp]
	movss	xmm0, DWORD PTR tv3917[ebp]
	divss	xmm0, DWORD PTR tv2987[ebp]
	push	ecx
	movss	DWORD PTR [esp], xmm0
	call	?atan@@YAMM@Z				; atan
	add	esp, 4
	mov	ecx, DWORD PTR _this$[ebp]
	fstp	DWORD PTR [ecx+368]

; 292  :                   groundDesignateDroll = (float)atan2 (ry, -rz);

	movss	xmm0, DWORD PTR _rz$[ebp]
	xorps	xmm0, DWORD PTR __xmm@80000000800000008000000080000000
	cvtss2sd xmm0, xmm0
	sub	esp, 8
	movsd	QWORD PTR [esp], xmm0
	cvtss2sd xmm0, DWORD PTR _ry$[ebp]
	sub	esp, 8
	movsd	QWORD PTR [esp], xmm0
	call	?checked_atan2@@YANNN@Z			; checked_atan2
	add	esp, 16					; 00000010H
	mov	edx, DWORD PTR _this$[ebp]
	fstp	DWORD PTR [edx+372]

; 293  :                   theMissile->SetTargetPosition (tmpX, tmpY, tmpZ);

	push	ecx
	movss	xmm0, DWORD PTR _tmpZ$[ebp]
	movss	DWORD PTR [esp], xmm0
	push	ecx
	movss	xmm0, DWORD PTR _tmpY$[ebp]
	movss	DWORD PTR [esp], xmm0
	push	ecx
	movss	xmm0, DWORD PTR _tmpX$[ebp]
	movss	DWORD PTR [esp], xmm0
	mov	ecx, DWORD PTR _theMissile$[ebp]
	call	?SetTargetPosition@MissileClass@@QAEXMMM@Z ; MissileClass::SetTargetPosition

; 294  :                   preDesignate = FALSE;

	mov	eax, DWORD PTR _this$[ebp]
	mov	BYTE PTR [eax+182], 0

; 295  :                   platform->SOIManager (SimVehicleClass::SOI_WEAPON);

	push	2
	mov	ecx, DWORD PTR _this$[ebp]
	mov	ecx, DWORD PTR [ecx+140]
	call	?SOIManager@SimVehicleClass@@QAEXW4SOI@1@@Z ; SimVehicleClass::SOIManager

; 296  :                   missileTarget = TRUE;

	mov	edx, DWORD PTR _this$[ebp]
	mov	BYTE PTR [edx+192], 1

; 297  :                }
; 298  :                else

	jmp	SHORT $LN72@MaverickMo
$LN73@MaverickMo:

; 299  :                {
; 300  : 				      missileTarget = FALSE;

	mov	eax, DWORD PTR _this$[ebp]
	mov	BYTE PTR [eax+192], 0
$LN72@MaverickMo:

; 301  : 			      }
; 302  :             }
; 303  :             else

	jmp	$LN62@MaverickMo
$LN74@MaverickMo:

; 304  :             {
; 305  :                ClearCurrentTarget();

	mov	ecx, DWORD PTR _this$[ebp]
	call	?ClearCurrentTarget@FireControlComputer@@QAEXXZ ; FireControlComputer::ClearCurrentTarget

; 306  :                theDisplay->DropTarget();

	mov	ecx, DWORD PTR _theDisplay$[ebp]
	call	?DropTarget@MaverickDisplayClass@@QAEXXZ ; MaverickDisplayClass::DropTarget

; 307  :                missileTarget = TRUE;

	mov	ecx, DWORD PTR _this$[ebp]
	mov	BYTE PTR [ecx+192], 1

; 308  :                if (subMode == SLAVE)

	mov	edx, DWORD PTR _this$[ebp]
	cmp	DWORD PTR [edx+148], 15			; 0000000fH
	jne	$LN70@MaverickMo

; 309  :                {
; 310  :                   if (systemTarget)

	cmp	DWORD PTR _systemTarget$[ebp], 0
	je	SHORT $LN69@MaverickMo

; 311  :                   {
; 312  : 	                  yaw   = systemTarget->localData->az;

	mov	eax, DWORD PTR _systemTarget$[ebp]
	mov	ecx, DWORD PTR [eax+12]
	movss	xmm0, DWORD PTR [ecx+16]
	movss	DWORD PTR _yaw$[ebp], xmm0

; 313  : 	                  pitch = systemTarget->localData->el;

	mov	edx, DWORD PTR _systemTarget$[ebp]
	mov	eax, DWORD PTR [edx+12]
	movss	xmm0, DWORD PTR [eax+28]
	movss	DWORD PTR _pitch$[ebp], xmm0

; 314  :                      groundDesignateX = systemTarget->BaseData()->XPos();

	mov	ecx, DWORD PTR _systemTarget$[ebp]
	call	?BaseData@SimObjectType@@QAEPAVFalconEntity@@XZ ; SimObjectType::BaseData
	mov	ecx, eax
	call	?XPos@VuEntity@@QBEMXZ			; VuEntity::XPos
	mov	ecx, DWORD PTR _this$[ebp]
	fstp	DWORD PTR [ecx+376]

; 315  :                      groundDesignateY = systemTarget->BaseData()->YPos();

	mov	ecx, DWORD PTR _systemTarget$[ebp]
	call	?BaseData@SimObjectType@@QAEPAVFalconEntity@@XZ ; SimObjectType::BaseData
	mov	ecx, eax
	call	?YPos@VuEntity@@QBEMXZ			; VuEntity::YPos
	mov	edx, DWORD PTR _this$[ebp]
	fstp	DWORD PTR [edx+380]

; 316  :                      groundDesignateZ = systemTarget->BaseData()->ZPos();

	mov	ecx, DWORD PTR _systemTarget$[ebp]
	call	?BaseData@SimObjectType@@QAEPAVFalconEntity@@XZ ; SimObjectType::BaseData
	mov	ecx, eax
	call	?ZPos@VuEntity@@QBEMXZ			; VuEntity::ZPos
	mov	eax, DWORD PTR _this$[ebp]
	fstp	DWORD PTR [eax+384]

; 317  :                   }
; 318  :                   else

	jmp	$LN66@MaverickMo
$LN69@MaverickMo:

; 319  :                   {
; 320  : 	                  RadarClass* theRadar = (RadarClass*) FindSensor (platform, SensorClass::Radar);

	push	1
	mov	ecx, DWORD PTR _this$[ebp]
	mov	edx, DWORD PTR [ecx+140]
	push	edx
	call	?FindSensor@@YAPAVSensorClass@@PAVSimMoverClass@@H@Z ; FindSensor
	add	esp, 8
	mov	DWORD PTR _theRadar$20[ebp], eax

; 321  : 	                  if (theRadar)

	cmp	DWORD PTR _theRadar$20[ebp], 0
	je	SHORT $LN67@MaverickMo

; 322  :                      {
; 323  : 		                  pitch = theRadar->SeekerEl();

	mov	ecx, DWORD PTR _theRadar$20[ebp]
	call	?SeekerEl@SensorClass@@QAEMXZ		; SensorClass::SeekerEl
	fstp	DWORD PTR _pitch$[ebp]

; 324  : 		                  yaw   = theRadar->SeekerAz();

	mov	ecx, DWORD PTR _theRadar$20[ebp]
	call	?SeekerAz@SensorClass@@QAEMXZ		; SensorClass::SeekerAz
	fstp	DWORD PTR _yaw$[ebp]

; 325  :                         theRadar->GetAGCenter (&groundDesignateX, &groundDesignateY);

	mov	eax, DWORD PTR _this$[ebp]
	add	eax, 380				; 0000017cH
	push	eax
	mov	ecx, DWORD PTR _this$[ebp]
	add	ecx, 376				; 00000178H
	push	ecx
	mov	edx, DWORD PTR _theRadar$20[ebp]
	mov	eax, DWORD PTR [edx]
	mov	ecx, DWORD PTR _theRadar$20[ebp]
	mov	edx, DWORD PTR [eax+192]
	call	edx

; 326  :                         groundDesignateZ = OTWDriver.GetGroundLevel(groundDesignateX, groundDesignateY);

	push	0
	mov	eax, DWORD PTR _this$[ebp]
	push	ecx
	movss	xmm0, DWORD PTR [eax+380]
	movss	DWORD PTR [esp], xmm0
	mov	ecx, DWORD PTR _this$[ebp]
	push	ecx
	movss	xmm0, DWORD PTR [ecx+376]
	movss	DWORD PTR [esp], xmm0
	mov	ecx, OFFSET ?OTWDriver@@3VOTWDriverClass@@A ; OTWDriver
	call	?GetGroundLevel@OTWDriverClass@@QAEMMMPAUTpoint@@@Z ; OTWDriverClass::GetGroundLevel
	mov	edx, DWORD PTR _this$[ebp]
	fstp	DWORD PTR [edx+384]

; 327  : 	                  }
; 328  :                      else

	jmp	SHORT $LN66@MaverickMo
$LN67@MaverickMo:

; 329  :                      {
; 330  : 		                  pitch = 0.0f;

	movss	xmm0, DWORD PTR __real@00000000
	movss	DWORD PTR _pitch$[ebp], xmm0

; 331  : 		                  yaw   = 0.0f;

	movss	xmm0, DWORD PTR __real@00000000
	movss	DWORD PTR _yaw$[ebp], xmm0

; 332  :                         groundDesignateX = 0.0F;

	mov	eax, DWORD PTR _this$[ebp]
	movss	xmm0, DWORD PTR __real@00000000
	movss	DWORD PTR [eax+376], xmm0

; 333  :                         groundDesignateY = 0.0F;

	mov	ecx, DWORD PTR _this$[ebp]
	movss	xmm0, DWORD PTR __real@00000000
	movss	DWORD PTR [ecx+380], xmm0

; 334  :                         groundDesignateZ = 0.0F;

	mov	edx, DWORD PTR _this$[ebp]
	movss	xmm0, DWORD PTR __real@00000000
	movss	DWORD PTR [edx+384], xmm0

; 335  :                         missileTarget = FALSE;

	mov	eax, DWORD PTR _this$[ebp]
	mov	BYTE PTR [eax+192], 0
$LN66@MaverickMo:

; 336  : 	                  }
; 337  :                   }
; 338  : 
; 339  :                   mlSinCos (&trig, platform->Roll());

	mov	ecx, DWORD PTR _this$[ebp]
	mov	ecx, DWORD PTR [ecx+140]
	call	?Roll@VuEntity@@QBEMXZ			; VuEntity::Roll
	push	ecx
	fstp	DWORD PTR [esp]
	lea	edx, DWORD PTR _trig$[ebp]
	push	edx
	call	?mlSinCos@@YAXPAUmlTrig@@M@Z		; mlSinCos
	add	esp, 8

; 340  :                   groundDesignateEl =  pitch * trig.cos + yaw * trig.sin;

	movss	xmm0, DWORD PTR _pitch$[ebp]
	mulss	xmm0, DWORD PTR _trig$[ebp+4]
	movss	xmm1, DWORD PTR _yaw$[ebp]
	mulss	xmm1, DWORD PTR _trig$[ebp]
	addss	xmm0, xmm1
	mov	eax, DWORD PTR _this$[ebp]
	movss	DWORD PTR [eax+368], xmm0

; 341  :                   groundDesignateAz = -pitch * trig.sin + yaw * trig.cos;

	movss	xmm0, DWORD PTR _pitch$[ebp]
	xorps	xmm0, DWORD PTR __xmm@80000000800000008000000080000000
	mulss	xmm0, DWORD PTR _trig$[ebp]
	movss	xmm1, DWORD PTR _yaw$[ebp]
	mulss	xmm1, DWORD PTR _trig$[ebp+4]
	addss	xmm0, xmm1
	mov	ecx, DWORD PTR _this$[ebp]
	movss	DWORD PTR [ecx+364], xmm0

; 342  :                   groundDesignateDroll = (float)atan2 (sin(groundDesignateAz), sin(groundDesignateEl));

	mov	edx, DWORD PTR _this$[ebp]
	push	ecx
	movss	xmm0, DWORD PTR [edx+368]
	movss	DWORD PTR [esp], xmm0
	call	?sin@@YAMM@Z				; sin
	add	esp, -4					; fffffffcH
	fstp	QWORD PTR [esp]
	mov	eax, DWORD PTR _this$[ebp]
	push	ecx
	movss	xmm0, DWORD PTR [eax+364]
	movss	DWORD PTR [esp], xmm0
	call	?sin@@YAMM@Z				; sin
	add	esp, -4					; fffffffcH
	fstp	QWORD PTR [esp]
	call	?checked_atan2@@YANNN@Z			; checked_atan2
	add	esp, 16					; 00000010H
	mov	ecx, DWORD PTR _this$[ebp]
	fstp	DWORD PTR [ecx+372]

; 343  :                   groundPipperEl = 0.0F;

	mov	edx, DWORD PTR _this$[ebp]
	movss	xmm0, DWORD PTR __real@00000000
	movss	DWORD PTR [edx+392], xmm0

; 344  :                   groundPipperAz = 0.0F;

	mov	eax, DWORD PTR _this$[ebp]
	movss	xmm0, DWORD PTR __real@00000000
	movss	DWORD PTR [eax+388], xmm0

; 345  : 
; 346  : 									pitch += platform->Pitch();

	mov	ecx, DWORD PTR _this$[ebp]
	mov	ecx, DWORD PTR [ecx+140]
	call	?Pitch@VuEntity@@QBEMXZ			; VuEntity::Pitch
	fstp	DWORD PTR tv3096[ebp]
	movss	xmm0, DWORD PTR tv3096[ebp]
	addss	xmm0, DWORD PTR _pitch$[ebp]
	movss	DWORD PTR _pitch$[ebp], xmm0

; 347  :                   yaw   += platform->Yaw();

	mov	edx, DWORD PTR _this$[ebp]
	mov	ecx, DWORD PTR [edx+140]
	call	?Yaw@VuEntity@@QBEMXZ			; VuEntity::Yaw
	fstp	DWORD PTR tv3102[ebp]
	movss	xmm0, DWORD PTR tv3102[ebp]
	addss	xmm0, DWORD PTR _yaw$[ebp]
	movss	DWORD PTR _yaw$[ebp], xmm0

; 348  :                   roll  = 0.0F;

	movss	xmm0, DWORD PTR __real@00000000
	movss	DWORD PTR _roll$[ebp], xmm0

; 349  :                }
; 350  :                else

	jmp	$LN63@MaverickMo
$LN70@MaverickMo:

; 351  :                {
; 352  :                   groundDesignateAz = -cockpitFlightData.beta*DTR + cockpitFlightData.windOffset*platform->platformAngles.cosphi;

	movss	xmm0, DWORD PTR ?cockpitFlightData@@3VFlightData@@A+28
	xorps	xmm0, DWORD PTR __xmm@80000000800000008000000080000000
	mulss	xmm0, DWORD PTR __real@3c8efa34
	mov	eax, DWORD PTR _this$[ebp]
	mov	ecx, DWORD PTR [eax+140]
	movss	xmm1, DWORD PTR ?cockpitFlightData@@3VFlightData@@A+64
	mulss	xmm1, DWORD PTR [ecx+400]
	addss	xmm0, xmm1
	mov	edx, DWORD PTR _this$[ebp]
	movss	DWORD PTR [edx+364], xmm0

; 353  :                   groundDesignateEl = -cockpitFlightData.alpha*DTR + cockpitFlightData.windOffset*platform->platformAngles.sinphi;

	movss	xmm0, DWORD PTR ?cockpitFlightData@@3VFlightData@@A+24
	xorps	xmm0, DWORD PTR __xmm@80000000800000008000000080000000
	mulss	xmm0, DWORD PTR __real@3c8efa34
	mov	eax, DWORD PTR _this$[ebp]
	mov	ecx, DWORD PTR [eax+140]
	movss	xmm1, DWORD PTR ?cockpitFlightData@@3VFlightData@@A+64
	mulss	xmm1, DWORD PTR [ecx+396]
	addss	xmm0, xmm1
	mov	edx, DWORD PTR _this$[ebp]
	movss	DWORD PTR [edx+368], xmm0

; 354  :                   groundDesignateAz += groundPipperAz;

	mov	eax, DWORD PTR _this$[ebp]
	mov	ecx, DWORD PTR _this$[ebp]
	movss	xmm0, DWORD PTR [eax+364]
	addss	xmm0, DWORD PTR [ecx+388]
	mov	edx, DWORD PTR _this$[ebp]
	movss	DWORD PTR [edx+364], xmm0

; 355  :                   groundDesignateEl += groundPipperEl;

	mov	eax, DWORD PTR _this$[ebp]
	mov	ecx, DWORD PTR _this$[ebp]
	movss	xmm0, DWORD PTR [eax+368]
	addss	xmm0, DWORD PTR [ecx+392]
	mov	edx, DWORD PTR _this$[ebp]
	movss	DWORD PTR [edx+368], xmm0

; 356  :                   groundDesignateDroll = (float)atan2 (sin(groundDesignateAz), sin(groundDesignateEl));

	mov	eax, DWORD PTR _this$[ebp]
	push	ecx
	movss	xmm0, DWORD PTR [eax+368]
	movss	DWORD PTR [esp], xmm0
	call	?sin@@YAMM@Z				; sin
	add	esp, -4					; fffffffcH
	fstp	QWORD PTR [esp]
	mov	ecx, DWORD PTR _this$[ebp]
	push	ecx
	movss	xmm0, DWORD PTR [ecx+364]
	movss	DWORD PTR [esp], xmm0
	call	?sin@@YAMM@Z				; sin
	add	esp, -4					; fffffffcH
	fstp	QWORD PTR [esp]
	call	?checked_atan2@@YANNN@Z			; checked_atan2
	add	esp, 16					; 00000010H
	mov	edx, DWORD PTR _this$[ebp]
	fstp	DWORD PTR [edx+372]

; 357  : 
; 358  :                   groundPipperEl += yMove * g_fCursorSpeed * MAVERICK_SLEW_RATE * SimLibMajorFrameTime;

	movss	xmm0, DWORD PTR _yMove$[ebp]
	mulss	xmm0, DWORD PTR ?g_fCursorSpeed@@3MA
	mulss	xmm0, DWORD PTR _MAVERICK_SLEW_RATE
	mulss	xmm0, DWORD PTR ?SimLibMajorFrameTime@@3MA
	mov	eax, DWORD PTR _this$[ebp]
	addss	xmm0, DWORD PTR [eax+392]
	mov	ecx, DWORD PTR _this$[ebp]
	movss	DWORD PTR [ecx+392], xmm0

; 359  :                   groundPipperAz += xMove * g_fCursorSpeed * MAVERICK_SLEW_RATE * SimLibMajorFrameTime;

	movss	xmm0, DWORD PTR _xMove$[ebp]
	mulss	xmm0, DWORD PTR ?g_fCursorSpeed@@3MA
	mulss	xmm0, DWORD PTR _MAVERICK_SLEW_RATE
	mulss	xmm0, DWORD PTR ?SimLibMajorFrameTime@@3MA
	mov	edx, DWORD PTR _this$[ebp]
	addss	xmm0, DWORD PTR [edx+388]
	mov	eax, DWORD PTR _this$[ebp]
	movss	DWORD PTR [eax+388], xmm0

; 360  : 
; 361  :                   yaw   = platform->Yaw();

	mov	ecx, DWORD PTR _this$[ebp]
	mov	ecx, DWORD PTR [ecx+140]
	call	?Yaw@VuEntity@@QBEMXZ			; VuEntity::Yaw
	fstp	DWORD PTR _yaw$[ebp]

; 362  :                   pitch = platform->Pitch();

	mov	edx, DWORD PTR _this$[ebp]
	mov	ecx, DWORD PTR [edx+140]
	call	?Pitch@VuEntity@@QBEMXZ			; VuEntity::Pitch
	fstp	DWORD PTR _pitch$[ebp]

; 363  :                   roll  = platform->Roll();

	mov	eax, DWORD PTR _this$[ebp]
	mov	ecx, DWORD PTR [eax+140]
	call	?Roll@VuEntity@@QBEMXZ			; VuEntity::Roll
	fstp	DWORD PTR _roll$[ebp]

; 364  :                   mlSinCos (&trig, platform->Roll());

	mov	ecx, DWORD PTR _this$[ebp]
	mov	ecx, DWORD PTR [ecx+140]
	call	?Roll@VuEntity@@QBEMXZ			; VuEntity::Roll
	push	ecx
	fstp	DWORD PTR [esp]
	lea	edx, DWORD PTR _trig$[ebp]
	push	edx
	call	?mlSinCos@@YAXPAUmlTrig@@M@Z		; mlSinCos
	add	esp, 8

; 365  :                   pitch += groundDesignateEl * trig.cos - groundDesignateAz * trig.sin;

	mov	eax, DWORD PTR _this$[ebp]
	movss	xmm0, DWORD PTR [eax+368]
	mulss	xmm0, DWORD PTR _trig$[ebp+4]
	mov	ecx, DWORD PTR _this$[ebp]
	movss	xmm1, DWORD PTR [ecx+364]
	mulss	xmm1, DWORD PTR _trig$[ebp]
	subss	xmm0, xmm1
	addss	xmm0, DWORD PTR _pitch$[ebp]
	movss	DWORD PTR _pitch$[ebp], xmm0

; 366  :                   yaw += groundDesignateEl * trig.sin + groundDesignateAz * trig.cos;

	mov	edx, DWORD PTR _this$[ebp]
	movss	xmm0, DWORD PTR [edx+368]
	mulss	xmm0, DWORD PTR _trig$[ebp]
	mov	eax, DWORD PTR _this$[ebp]
	movss	xmm1, DWORD PTR [eax+364]
	mulss	xmm1, DWORD PTR _trig$[ebp+4]
	addss	xmm0, xmm1
	addss	xmm0, DWORD PTR _yaw$[ebp]
	movss	DWORD PTR _yaw$[ebp], xmm0

; 367  :                   if (!FindGroundIntersection (pitch, yaw, &tmpX, &tmpY, &tmpZ))

	lea	ecx, DWORD PTR _tmpZ$[ebp]
	push	ecx
	lea	edx, DWORD PTR _tmpY$[ebp]
	push	edx
	lea	eax, DWORD PTR _tmpX$[ebp]
	push	eax
	push	ecx
	movss	xmm0, DWORD PTR _yaw$[ebp]
	movss	DWORD PTR [esp], xmm0
	push	ecx
	movss	xmm0, DWORD PTR _pitch$[ebp]
	movss	DWORD PTR [esp], xmm0
	mov	ecx, DWORD PTR _this$[ebp]
	call	?FindGroundIntersection@FireControlComputer@@AAEHMMPAM00@Z ; FireControlComputer::FindGroundIntersection
	test	eax, eax
	jne	SHORT $LN64@MaverickMo

; 368  :                   {
; 369  :                      groundDesignateX = 0.0F;

	mov	ecx, DWORD PTR _this$[ebp]
	movss	xmm0, DWORD PTR __real@00000000
	movss	DWORD PTR [ecx+376], xmm0

; 370  :                      groundDesignateY = 0.0F;

	mov	edx, DWORD PTR _this$[ebp]
	movss	xmm0, DWORD PTR __real@00000000
	movss	DWORD PTR [edx+380], xmm0

; 371  :                      groundDesignateZ = 0.0F;

	mov	eax, DWORD PTR _this$[ebp]
	movss	xmm0, DWORD PTR __real@00000000
	movss	DWORD PTR [eax+384], xmm0

; 372  :                      missileTarget = FALSE;

	mov	ecx, DWORD PTR _this$[ebp]
	mov	BYTE PTR [ecx+192], 0

; 373  :                   }
; 374  :                   else

	jmp	SHORT $LN63@MaverickMo
$LN64@MaverickMo:

; 375  :                   {
; 376  :                      groundDesignateX = tmpX;

	mov	edx, DWORD PTR _this$[ebp]
	movss	xmm0, DWORD PTR _tmpX$[ebp]
	movss	DWORD PTR [edx+376], xmm0

; 377  :                      groundDesignateY = tmpY;

	mov	eax, DWORD PTR _this$[ebp]
	movss	xmm0, DWORD PTR _tmpY$[ebp]
	movss	DWORD PTR [eax+380], xmm0

; 378  :                      groundDesignateZ = tmpZ;

	mov	ecx, DWORD PTR _this$[ebp]
	movss	xmm0, DWORD PTR _tmpZ$[ebp]
	movss	DWORD PTR [ecx+384], xmm0

; 379  :                      missileTarget = TRUE;

	mov	edx, DWORD PTR _this$[ebp]
	mov	BYTE PTR [edx+192], 1
$LN63@MaverickMo:

; 380  :                   }
; 381  :                }
; 382  : 
; 383  :                theDisplay->SetYPR (yaw, pitch, roll);

	push	ecx
	movss	xmm0, DWORD PTR _roll$[ebp]
	movss	DWORD PTR [esp], xmm0
	push	ecx
	movss	xmm0, DWORD PTR _pitch$[ebp]
	movss	DWORD PTR [esp], xmm0
	push	ecx
	movss	xmm0, DWORD PTR _yaw$[ebp]
	movss	DWORD PTR [esp], xmm0
	mov	ecx, DWORD PTR _theDisplay$[ebp]
	call	?SetYPR@MissileDisplayClass@@QAEXMMM@Z	; MissileDisplayClass::SetYPR

; 384  :                dx = groundDesignateAz;

	mov	eax, DWORD PTR _this$[ebp]
	movss	xmm0, DWORD PTR [eax+364]
	movss	DWORD PTR _dx$[ebp], xmm0

; 385  :                dy = groundDesignateEl;

	mov	ecx, DWORD PTR _this$[ebp]
	movss	xmm0, DWORD PTR [ecx+368]
	movss	DWORD PTR _dy$[ebp], xmm0

; 386  :                isLimited = theMissile->SetSeekerPos (&dx, &dy);

	lea	edx, DWORD PTR _dy$[ebp]
	push	edx
	lea	eax, DWORD PTR _dx$[ebp]
	push	eax
	mov	ecx, DWORD PTR _theMissile$[ebp]
	call	?SetSeekerPos@MissileClass@@QAEHPAM0@Z	; MissileClass::SetSeekerPos
	mov	DWORD PTR _isLimited$[ebp], eax

; 387  : 
; 388  :                if (missileTarget)

	mov	ecx, DWORD PTR _this$[ebp]
	movsx	edx, BYTE PTR [ecx+192]
	test	edx, edx
	je	SHORT $LN62@MaverickMo

; 389  :                {
; 390  :                   theMissile->SetTargetPosition (groundDesignateX, groundDesignateY, groundDesignateZ);

	mov	eax, DWORD PTR _this$[ebp]
	push	ecx
	movss	xmm0, DWORD PTR [eax+384]
	movss	DWORD PTR [esp], xmm0
	mov	ecx, DWORD PTR _this$[ebp]
	push	ecx
	movss	xmm0, DWORD PTR [ecx+380]
	movss	DWORD PTR [esp], xmm0
	mov	edx, DWORD PTR _this$[ebp]
	push	ecx
	movss	xmm0, DWORD PTR [edx+376]
	movss	DWORD PTR [esp], xmm0
	mov	ecx, DWORD PTR _theMissile$[ebp]
	call	?SetTargetPosition@MissileClass@@QAEXMMM@Z ; MissileClass::SetTargetPosition

; 391  :                   MavCheckLock(theMissile);

	mov	eax, DWORD PTR _theMissile$[ebp]
	push	eax
	mov	ecx, DWORD PTR _this$[ebp]
	call	?MavCheckLock@FireControlComputer@@AAEPAVSimObjectType@@PAVMissileClass@@@Z ; FireControlComputer::MavCheckLock
$LN62@MaverickMo:

; 392  :                }
; 393  :             }

	jmp	$LN60@MaverickMo
$LN75@MaverickMo:

; 394  :          }
; 395  :          else if (!preDesignate)

	mov	ecx, DWORD PTR _this$[ebp]
	movsx	edx, BYTE PTR [ecx+182]
	test	edx, edx
	jne	$LN60@MaverickMo

; 396  :          {
; 397  :             if (theDisplay->IsLocked())

	mov	ecx, DWORD PTR _theDisplay$[ebp]
	call	?IsLocked@MaverickDisplayClass@@QAEHXZ	; MaverickDisplayClass::IsLocked
	test	eax, eax
	je	$LN59@MaverickMo

; 398  :             {
; 399  :                if (targetPtr)

	mov	eax, DWORD PTR _this$[ebp]
	cmp	DWORD PTR [eax+132], 0
	je	SHORT $LN58@MaverickMo

; 400  :                {
; 401  :                   if (targetPtr->BaseData()->IsSimObjective())

	mov	ecx, DWORD PTR _this$[ebp]
	mov	ecx, DWORD PTR [ecx+132]
	call	?BaseData@SimObjectType@@QAEPAVFalconEntity@@XZ ; SimObjectType::BaseData
	mov	ecx, eax
	call	?IsSimObjective@FalconEntity@@QAEHXZ	; FalconEntity::IsSimObjective
	test	eax, eax
	je	SHORT $LN57@MaverickMo

; 402  :                   {
; 403  :                      UpdateGroundObjectRelativeGeometry ();

	mov	ecx, DWORD PTR _this$[ebp]
	call	?UpdateGroundObjectRelativeGeometry@FireControlComputer@@AAEXXZ ; FireControlComputer::UpdateGroundObjectRelativeGeometry
$LN57@MaverickMo:

; 404  :                   }
; 405  : 
; 406  :                   groundDesignateX = targetPtr->BaseData()->XPos();

	mov	edx, DWORD PTR _this$[ebp]
	mov	ecx, DWORD PTR [edx+132]
	call	?BaseData@SimObjectType@@QAEPAVFalconEntity@@XZ ; SimObjectType::BaseData
	mov	ecx, eax
	call	?XPos@VuEntity@@QBEMXZ			; VuEntity::XPos
	mov	eax, DWORD PTR _this$[ebp]
	fstp	DWORD PTR [eax+376]

; 407  :                   groundDesignateY = targetPtr->BaseData()->YPos();

	mov	ecx, DWORD PTR _this$[ebp]
	mov	ecx, DWORD PTR [ecx+132]
	call	?BaseData@SimObjectType@@QAEPAVFalconEntity@@XZ ; SimObjectType::BaseData
	mov	ecx, eax
	call	?YPos@VuEntity@@QBEMXZ			; VuEntity::YPos
	mov	edx, DWORD PTR _this$[ebp]
	fstp	DWORD PTR [edx+380]

; 408  :                   groundDesignateZ = targetPtr->BaseData()->ZPos();

	mov	eax, DWORD PTR _this$[ebp]
	mov	ecx, DWORD PTR [eax+132]
	call	?BaseData@SimObjectType@@QAEPAVFalconEntity@@XZ ; SimObjectType::BaseData
	mov	ecx, eax
	call	?ZPos@VuEntity@@QBEMXZ			; VuEntity::ZPos
	mov	ecx, DWORD PTR _this$[ebp]
	fstp	DWORD PTR [ecx+384]
$LN58@MaverickMo:

; 409  :                }
; 410  : 
; 411  :                // Point at the designated spot
; 412  :                dx = groundDesignateX - platform->XPos();

	mov	edx, DWORD PTR _this$[ebp]
	mov	ecx, DWORD PTR [edx+140]
	call	?XPos@VuEntity@@QBEMXZ			; VuEntity::XPos
	fstp	DWORD PTR tv3245[ebp]
	mov	eax, DWORD PTR _this$[ebp]
	movss	xmm0, DWORD PTR [eax+376]
	subss	xmm0, DWORD PTR tv3245[ebp]
	movss	DWORD PTR _dx$[ebp], xmm0

; 413  :                dy = groundDesignateY - platform->YPos();

	mov	ecx, DWORD PTR _this$[ebp]
	mov	ecx, DWORD PTR [ecx+140]
	call	?YPos@VuEntity@@QBEMXZ			; VuEntity::YPos
	fstp	DWORD PTR tv3252[ebp]
	mov	edx, DWORD PTR _this$[ebp]
	movss	xmm0, DWORD PTR [edx+380]
	subss	xmm0, DWORD PTR tv3252[ebp]
	movss	DWORD PTR _dy$[ebp], xmm0

; 414  :                dz = groundDesignateZ - platform->ZPos();

	mov	eax, DWORD PTR _this$[ebp]
	mov	ecx, DWORD PTR [eax+140]
	call	?ZPos@VuEntity@@QBEMXZ			; VuEntity::ZPos
	fstp	DWORD PTR tv3259[ebp]
	mov	ecx, DWORD PTR _this$[ebp]
	movss	xmm0, DWORD PTR [ecx+384]
	subss	xmm0, DWORD PTR tv3259[ebp]
	movss	DWORD PTR _dz$[ebp], xmm0

; 415  :                theMissile->SetTargetPosition (groundDesignateX, groundDesignateY, groundDesignateZ);

	mov	edx, DWORD PTR _this$[ebp]
	push	ecx
	movss	xmm0, DWORD PTR [edx+384]
	movss	DWORD PTR [esp], xmm0
	mov	eax, DWORD PTR _this$[ebp]
	push	ecx
	movss	xmm0, DWORD PTR [eax+380]
	movss	DWORD PTR [esp], xmm0
	mov	ecx, DWORD PTR _this$[ebp]
	push	ecx
	movss	xmm0, DWORD PTR [ecx+376]
	movss	DWORD PTR [esp], xmm0
	mov	ecx, DWORD PTR _theMissile$[ebp]
	call	?SetTargetPosition@MissileClass@@QAEXMMM@Z ; MissileClass::SetTargetPosition

; 416  : 
; 417  :                rx = platform->dmx[0][0]*dx + platform->dmx[0][1]*dy + platform->dmx[0][2]*dz;

	mov	edx, DWORD PTR _this$[ebp]
	mov	eax, DWORD PTR [edx+140]
	mov	ecx, 12					; 0000000cH
	imul	ecx, 0
	lea	edx, DWORD PTR [eax+ecx+296]
	mov	eax, 4
	imul	eax, 0
	movss	xmm0, DWORD PTR [edx+eax]
	mulss	xmm0, DWORD PTR _dx$[ebp]
	mov	ecx, DWORD PTR _this$[ebp]
	mov	edx, DWORD PTR [ecx+140]
	mov	eax, 12					; 0000000cH
	imul	eax, 0
	lea	ecx, DWORD PTR [edx+eax+296]
	mov	edx, 4
	shl	edx, 0
	movss	xmm1, DWORD PTR [ecx+edx]
	mulss	xmm1, DWORD PTR _dy$[ebp]
	addss	xmm0, xmm1
	mov	eax, DWORD PTR _this$[ebp]
	mov	ecx, DWORD PTR [eax+140]
	mov	edx, 12					; 0000000cH
	imul	edx, 0
	lea	eax, DWORD PTR [ecx+edx+296]
	mov	ecx, 4
	shl	ecx, 1
	movss	xmm1, DWORD PTR [eax+ecx]
	mulss	xmm1, DWORD PTR _dz$[ebp]
	addss	xmm0, xmm1
	movss	DWORD PTR _rx$[ebp], xmm0

; 418  :                ry = platform->dmx[1][0]*dx + platform->dmx[1][1]*dy + platform->dmx[1][2]*dz;

	mov	edx, DWORD PTR _this$[ebp]
	mov	eax, DWORD PTR [edx+140]
	mov	ecx, 12					; 0000000cH
	shl	ecx, 0
	lea	edx, DWORD PTR [eax+ecx+296]
	mov	eax, 4
	imul	eax, 0
	movss	xmm0, DWORD PTR [edx+eax]
	mulss	xmm0, DWORD PTR _dx$[ebp]
	mov	ecx, DWORD PTR _this$[ebp]
	mov	edx, DWORD PTR [ecx+140]
	mov	eax, 12					; 0000000cH
	shl	eax, 0
	lea	ecx, DWORD PTR [edx+eax+296]
	mov	edx, 4
	shl	edx, 0
	movss	xmm1, DWORD PTR [ecx+edx]
	mulss	xmm1, DWORD PTR _dy$[ebp]
	addss	xmm0, xmm1
	mov	eax, DWORD PTR _this$[ebp]
	mov	ecx, DWORD PTR [eax+140]
	mov	edx, 12					; 0000000cH
	shl	edx, 0
	lea	eax, DWORD PTR [ecx+edx+296]
	mov	ecx, 4
	shl	ecx, 1
	movss	xmm1, DWORD PTR [eax+ecx]
	mulss	xmm1, DWORD PTR _dz$[ebp]
	addss	xmm0, xmm1
	movss	DWORD PTR _ry$[ebp], xmm0

; 419  :                rz = platform->dmx[2][0]*dx + platform->dmx[2][1]*dy + platform->dmx[2][2]*dz;

	mov	edx, DWORD PTR _this$[ebp]
	mov	eax, DWORD PTR [edx+140]
	mov	ecx, 12					; 0000000cH
	shl	ecx, 1
	lea	edx, DWORD PTR [eax+ecx+296]
	mov	eax, 4
	imul	eax, 0
	movss	xmm0, DWORD PTR [edx+eax]
	mulss	xmm0, DWORD PTR _dx$[ebp]
	mov	ecx, DWORD PTR _this$[ebp]
	mov	edx, DWORD PTR [ecx+140]
	mov	eax, 12					; 0000000cH
	shl	eax, 1
	lea	ecx, DWORD PTR [edx+eax+296]
	mov	edx, 4
	shl	edx, 0
	movss	xmm1, DWORD PTR [ecx+edx]
	mulss	xmm1, DWORD PTR _dy$[ebp]
	addss	xmm0, xmm1
	mov	eax, DWORD PTR _this$[ebp]
	mov	ecx, DWORD PTR [eax+140]
	mov	edx, 12					; 0000000cH
	shl	edx, 1
	lea	eax, DWORD PTR [ecx+edx+296]
	mov	ecx, 4
	shl	ecx, 1
	movss	xmm1, DWORD PTR [eax+ecx]
	mulss	xmm1, DWORD PTR _dz$[ebp]
	addss	xmm0, xmm1
	movss	DWORD PTR _rz$[ebp], xmm0

; 420  : 
; 421  :                groundDesignateAz = (float)atan2 (ry,rx);

	cvtss2sd xmm0, DWORD PTR _rx$[ebp]
	sub	esp, 8
	movsd	QWORD PTR [esp], xmm0
	cvtss2sd xmm0, DWORD PTR _ry$[ebp]
	sub	esp, 8
	movsd	QWORD PTR [esp], xmm0
	call	?checked_atan2@@YANNN@Z			; checked_atan2
	add	esp, 16					; 00000010H
	mov	edx, DWORD PTR _this$[ebp]
	fstp	DWORD PTR [edx+364]

; 422  :                groundDesignateEl = (float)atan (-rz/(float)sqrt(rx*rx+ry*ry+.1f));

	movss	xmm0, DWORD PTR _rz$[ebp]
	xorps	xmm0, DWORD PTR __xmm@80000000800000008000000080000000
	movss	xmm1, DWORD PTR _rx$[ebp]
	mulss	xmm1, DWORD PTR _rx$[ebp]
	movss	xmm2, DWORD PTR _ry$[ebp]
	mulss	xmm2, DWORD PTR _ry$[ebp]
	addss	xmm1, xmm2
	addss	xmm1, DWORD PTR __real@3dcccccd
	push	ecx
	movss	DWORD PTR [esp], xmm1
	movss	DWORD PTR tv3919[ebp], xmm0
	call	?SqrtSSE@@YAMM@Z			; SqrtSSE
	add	esp, 4
	fstp	DWORD PTR tv3320[ebp]
	movss	xmm0, DWORD PTR tv3919[ebp]
	divss	xmm0, DWORD PTR tv3320[ebp]
	push	ecx
	movss	DWORD PTR [esp], xmm0
	call	?atan@@YAMM@Z				; atan
	add	esp, 4
	mov	eax, DWORD PTR _this$[ebp]
	fstp	DWORD PTR [eax+368]

; 423  :                groundDesignateDroll = (float)atan2 (ry, -rz);

	movss	xmm0, DWORD PTR _rz$[ebp]
	xorps	xmm0, DWORD PTR __xmm@80000000800000008000000080000000
	cvtss2sd xmm0, xmm0
	sub	esp, 8
	movsd	QWORD PTR [esp], xmm0
	cvtss2sd xmm0, DWORD PTR _ry$[ebp]
	sub	esp, 8
	movsd	QWORD PTR [esp], xmm0
	call	?checked_atan2@@YANNN@Z			; checked_atan2
	add	esp, 16					; 00000010H
	mov	ecx, DWORD PTR _this$[ebp]
	fstp	DWORD PTR [ecx+372]

; 424  : 
; 425  :                if (targetPtr)

	mov	edx, DWORD PTR _this$[ebp]
	cmp	DWORD PTR [edx+132], 0
	je	$LN56@MaverickMo

; 426  :                {
; 427  :                   theMissile->SetTarget(targetPtr);

	mov	eax, DWORD PTR _this$[ebp]
	mov	ecx, DWORD PTR [eax+132]
	push	ecx
	mov	ecx, DWORD PTR _theMissile$[ebp]
	call	?SetTarget@MissileClass@@QAEXPAVSimObjectType@@@Z ; MissileClass::SetTarget

; 428  : // 2001-10-20 ADDED BY S.G. THE CODE IN 'SetTarget' BETTER BE SAFE THAN SORRY. FOR PLAYER'S FCC, ALSO SET THE Target Geometry
; 429  : 				  if (theMissile->targetPtr)

	mov	edx, DWORD PTR _theMissile$[ebp]
	cmp	DWORD PTR [edx+656], 0
	je	SHORT $LN55@MaverickMo

; 430  : 					  CalcRelGeom(platform, theMissile->targetPtr, NULL, 1.0F / SimLibMajorFrameTime);

	movss	xmm0, DWORD PTR __real@3f800000
	divss	xmm0, DWORD PTR ?SimLibMajorFrameTime@@3MA
	push	ecx
	movss	DWORD PTR [esp], xmm0
	push	0
	mov	eax, DWORD PTR _theMissile$[ebp]
	mov	ecx, DWORD PTR [eax+656]
	push	ecx
	mov	edx, DWORD PTR _this$[ebp]
	mov	eax, DWORD PTR [edx+140]
	push	eax
	call	?CalcRelGeom@@YAXPAVSimBaseClass@@PAVSimObjectType@@QAY02MM@Z ; CalcRelGeom
	add	esp, 16					; 00000010H
$LN55@MaverickMo:

; 431  : // END OF ADDED SECTION
; 432  :                   pitch = groundDesignateEl;

	mov	ecx, DWORD PTR _this$[ebp]
	movss	xmm0, DWORD PTR [ecx+368]
	movss	DWORD PTR _pitch$[ebp], xmm0

; 433  :                   yaw   = groundDesignateAz;

	mov	edx, DWORD PTR _this$[ebp]
	movss	xmm0, DWORD PTR [edx+364]
	movss	DWORD PTR _yaw$[ebp], xmm0

; 434  :                   isLimited = theMissile->SetSeekerPos (&yaw, &pitch);

	lea	eax, DWORD PTR _pitch$[ebp]
	push	eax
	lea	ecx, DWORD PTR _yaw$[ebp]
	push	ecx
	mov	ecx, DWORD PTR _theMissile$[ebp]
	call	?SetSeekerPos@MissileClass@@QAEHPAM0@Z	; MissileClass::SetSeekerPos
	mov	DWORD PTR _isLimited$[ebp], eax

; 435  :                   theMissile->RunSeeker();

	mov	ecx, DWORD PTR _theMissile$[ebp]
	call	?RunSeeker@MissileClass@@QAEXXZ		; MissileClass::RunSeeker

; 436  :                   if (!theMissile->targetPtr)

	mov	edx, DWORD PTR _theMissile$[ebp]
	cmp	DWORD PTR [edx+656], 0
	jne	SHORT $LN54@MaverickMo

; 437  :                   {
; 438  :                      if (subMode != SLAVE)

	mov	eax, DWORD PTR _this$[ebp]
	cmp	DWORD PTR [eax+148], 15			; 0000000fH
	je	SHORT $LN53@MaverickMo

; 439  :                         platform->SOIManager (SimVehicleClass::SOI_HUD);

	push	0
	mov	ecx, DWORD PTR _this$[ebp]
	mov	ecx, DWORD PTR [ecx+140]
	call	?SOIManager@SimVehicleClass@@QAEXW4SOI@1@@Z ; SimVehicleClass::SOIManager

; 440  :                      else

	jmp	SHORT $LN52@MaverickMo
$LN53@MaverickMo:

; 441  :                         platform->SOIManager (SimVehicleClass::SOI_RADAR);

	push	1
	mov	edx, DWORD PTR _this$[ebp]
	mov	ecx, DWORD PTR [edx+140]
	call	?SOIManager@SimVehicleClass@@QAEXW4SOI@1@@Z ; SimVehicleClass::SOIManager
$LN52@MaverickMo:

; 442  :                      ClearCurrentTarget();

	mov	ecx, DWORD PTR _this$[ebp]
	call	?ClearCurrentTarget@FireControlComputer@@QAEXXZ ; FireControlComputer::ClearCurrentTarget

; 443  :                      theDisplay->DropTarget();

	mov	ecx, DWORD PTR _theDisplay$[ebp]
	call	?DropTarget@MaverickDisplayClass@@QAEXXZ ; MaverickDisplayClass::DropTarget
$LN54@MaverickMo:

; 444  :                   }
; 445  :                }
; 446  :                else

	jmp	SHORT $LN51@MaverickMo
$LN56@MaverickMo:

; 447  :                {
; 448  :                   if (subMode != SLAVE)

	mov	eax, DWORD PTR _this$[ebp]
	cmp	DWORD PTR [eax+148], 15			; 0000000fH
	je	SHORT $LN50@MaverickMo

; 449  :                      platform->SOIManager (SimVehicleClass::SOI_HUD);

	push	0
	mov	ecx, DWORD PTR _this$[ebp]
	mov	ecx, DWORD PTR [ecx+140]
	call	?SOIManager@SimVehicleClass@@QAEXW4SOI@1@@Z ; SimVehicleClass::SOIManager

; 450  :                   else

	jmp	SHORT $LN49@MaverickMo
$LN50@MaverickMo:

; 451  :                      platform->SOIManager (SimVehicleClass::SOI_RADAR);

	push	1
	mov	edx, DWORD PTR _this$[ebp]
	mov	ecx, DWORD PTR [edx+140]
	call	?SOIManager@SimVehicleClass@@QAEXW4SOI@1@@Z ; SimVehicleClass::SOIManager
$LN49@MaverickMo:

; 452  :                   theDisplay->DropTarget();

	mov	ecx, DWORD PTR _theDisplay$[ebp]
	call	?DropTarget@MaverickDisplayClass@@QAEXXZ ; MaverickDisplayClass::DropTarget
$LN51@MaverickMo:

; 453  :                }
; 454  :             }
; 455  :             else

	jmp	$LN28@MaverickMo
$LN59@MaverickMo:

; 456  :             {
; 457  :                if ((cursorXCmd != 0) || (cursorYCmd != 0))

	mov	eax, DWORD PTR _this$[ebp]
	cmp	DWORD PTR [eax+196], 0
	jne	SHORT $LN46@MaverickMo
	mov	ecx, DWORD PTR _this$[ebp]
	cmp	DWORD PTR [ecx+200], 0
	je	$LN39@MaverickMo
$LN46@MaverickMo:

; 458  :                {
; 459  : 				   
; 460  : 				   if (g_bMavFixes) // a.s. 20.Febr.2002. begin: New Code for slewing MAVs. With this code, not the angles are altered, but

	movzx	edx, BYTE PTR ?g_bMavFixes@@3_NA	; g_bMavFixes
	test	edx, edx
	je	$LN45@MaverickMo

; 461  : 									// directly the designated point. A non-orthogonal rotation of the co-ordinate system is necessary 	
; 462  : 				   {
; 463  : 						float deltaX = 0.0F, deltaY = 0.0F;

	movss	xmm0, DWORD PTR __real@00000000
	movss	DWORD PTR _deltaX$19[ebp], xmm0
	movss	xmm0, DWORD PTR __real@00000000
	movss	DWORD PTR _deltaY$17[ebp], xmm0

; 464  : 						float theta = 0.0F, costheta = 0.0F, sintheta = 0.0F;

	movss	xmm0, DWORD PTR __real@00000000
	movss	DWORD PTR _theta$16[ebp], xmm0
	movss	xmm0, DWORD PTR __real@00000000
	movss	DWORD PTR _costheta$7[ebp], xmm0
	movss	xmm0, DWORD PTR __real@00000000
	movss	DWORD PTR _sintheta$10[ebp], xmm0

; 465  : 						float phi = 0.0F, cosphi = 0.0F, sinphi = 0.0F;

	movss	xmm0, DWORD PTR __real@00000000
	movss	DWORD PTR _phi$13[ebp], xmm0
	movss	xmm0, DWORD PTR __real@00000000
	movss	DWORD PTR _cosphi$11[ebp], xmm0
	movss	xmm0, DWORD PTR __real@00000000
	movss	DWORD PTR _sinphi$9[ebp], xmm0

; 466  : 						float alpha = 0, cosalpha, sensoryaw = 0.0F;

	movss	xmm0, DWORD PTR __real@00000000
	movss	DWORD PTR _alpha$15[ebp], xmm0
	movss	xmm0, DWORD PTR __real@00000000
	movss	DWORD PTR _sensoryaw$6[ebp], xmm0

; 467  : 						float groundrange, range;
; 468  : 						float pi = 3.1415926535898F;

	movss	xmm0, DWORD PTR __real@40490fdb
	movss	DWORD PTR _pi$8[ebp], xmm0

; 469  : 
; 470  : 						dx = groundDesignateX - platform->XPos();

	mov	eax, DWORD PTR _this$[ebp]
	mov	ecx, DWORD PTR [eax+140]
	call	?XPos@VuEntity@@QBEMXZ			; VuEntity::XPos
	fstp	DWORD PTR tv3373[ebp]
	mov	ecx, DWORD PTR _this$[ebp]
	movss	xmm0, DWORD PTR [ecx+376]
	subss	xmm0, DWORD PTR tv3373[ebp]
	movss	DWORD PTR _dx$[ebp], xmm0

; 471  : 						dy = groundDesignateY - platform->YPos();

	mov	edx, DWORD PTR _this$[ebp]
	mov	ecx, DWORD PTR [edx+140]
	call	?YPos@VuEntity@@QBEMXZ			; VuEntity::YPos
	fstp	DWORD PTR tv3380[ebp]
	mov	eax, DWORD PTR _this$[ebp]
	movss	xmm0, DWORD PTR [eax+380]
	subss	xmm0, DWORD PTR tv3380[ebp]
	movss	DWORD PTR _dy$[ebp], xmm0

; 472  : 						dz = groundDesignateZ - platform->ZPos();

	mov	ecx, DWORD PTR _this$[ebp]
	mov	ecx, DWORD PTR [ecx+140]
	call	?ZPos@VuEntity@@QBEMXZ			; VuEntity::ZPos
	fstp	DWORD PTR tv3387[ebp]
	mov	edx, DWORD PTR _this$[ebp]
	movss	xmm0, DWORD PTR [edx+384]
	subss	xmm0, DWORD PTR tv3387[ebp]
	movss	DWORD PTR _dz$[ebp], xmm0

; 473  : 
; 474  : 						groundrange = (float) sqrt ( dx*dx + dy*dy + 0.01F);

	movss	xmm0, DWORD PTR _dx$[ebp]
	mulss	xmm0, DWORD PTR _dx$[ebp]
	movss	xmm1, DWORD PTR _dy$[ebp]
	mulss	xmm1, DWORD PTR _dy$[ebp]
	addss	xmm0, xmm1
	addss	xmm0, DWORD PTR __real@3c23d70a
	push	ecx
	movss	DWORD PTR [esp], xmm0
	call	?SqrtSSE@@YAMM@Z			; SqrtSSE
	add	esp, 4
	fstp	DWORD PTR _groundrange$3[ebp]

; 475  : 						range = (float) sqrt ( dx*dx + dy*dy + dz*dz + 0.01F);

	movss	xmm0, DWORD PTR _dx$[ebp]
	mulss	xmm0, DWORD PTR _dx$[ebp]
	movss	xmm1, DWORD PTR _dy$[ebp]
	mulss	xmm1, DWORD PTR _dy$[ebp]
	addss	xmm0, xmm1
	movss	xmm1, DWORD PTR _dz$[ebp]
	mulss	xmm1, DWORD PTR _dz$[ebp]
	addss	xmm0, xmm1
	addss	xmm0, DWORD PTR __real@3c23d70a
	push	ecx
	movss	DWORD PTR [esp], xmm0
	call	?SqrtSSE@@YAMM@Z			; SqrtSSE
	add	esp, 4
	fstp	DWORD PTR _range$14[ebp]

; 476  : 
; 477  : 						theta = -(platform->Yaw());  // platform yaw  - rotation angle of y-achse

	mov	eax, DWORD PTR _this$[ebp]
	mov	ecx, DWORD PTR [eax+140]
	call	?Yaw@VuEntity@@QBEMXZ			; VuEntity::Yaw
	fstp	DWORD PTR tv3406[ebp]
	movss	xmm0, DWORD PTR tv3406[ebp]
	xorps	xmm0, DWORD PTR __xmm@80000000800000008000000080000000
	movss	DWORD PTR _theta$16[ebp], xmm0

; 478  : 
; 479  : 						sensoryaw = -(float)atan2 (dy,dx);  // sensor yaw

	cvtss2sd xmm0, DWORD PTR _dx$[ebp]
	sub	esp, 8
	movsd	QWORD PTR [esp], xmm0
	cvtss2sd xmm0, DWORD PTR _dy$[ebp]
	sub	esp, 8
	movsd	QWORD PTR [esp], xmm0
	call	?checked_atan2@@YANNN@Z			; checked_atan2
	add	esp, 16					; 00000010H
	fstp	QWORD PTR tv3412[ebp]
	movsd	xmm0, QWORD PTR tv3412[ebp]
	cvtsd2ss xmm0, xmm0
	xorps	xmm0, DWORD PTR __xmm@80000000800000008000000080000000
	movss	DWORD PTR _sensoryaw$6[ebp], xmm0

; 480  : 				 
; 481  : 						phi =   pi/2.0F + sensoryaw; // rotation angle of x-achse 

	movss	xmm0, DWORD PTR _pi$8[ebp]
	divss	xmm0, DWORD PTR __real@40000000
	addss	xmm0, DWORD PTR _sensoryaw$6[ebp]
	movss	DWORD PTR _phi$13[ebp], xmm0

; 482  : 		         
; 483  : 						alpha = pi/2.0F + ((float)atan (-dz/groundrange));  // (90 - sensor pitch)

	movss	xmm0, DWORD PTR _pi$8[ebp]
	divss	xmm0, DWORD PTR __real@40000000
	movss	xmm1, DWORD PTR _dz$[ebp]
	xorps	xmm1, DWORD PTR __xmm@80000000800000008000000080000000
	divss	xmm1, DWORD PTR _groundrange$3[ebp]
	push	ecx
	movss	DWORD PTR [esp], xmm1
	movss	DWORD PTR tv3921[ebp], xmm0
	call	?atan@@YAMM@Z				; atan
	add	esp, 4
	fstp	DWORD PTR tv3421[ebp]
	movss	xmm0, DWORD PTR tv3921[ebp]
	addss	xmm0, DWORD PTR tv3421[ebp]
	movss	DWORD PTR _alpha$15[ebp], xmm0

; 484  : 
; 485  : 						costheta = (float) cos(theta);

	push	ecx
	movss	xmm0, DWORD PTR _theta$16[ebp]
	movss	DWORD PTR [esp], xmm0
	call	?cos@@YAMM@Z				; cos
	add	esp, 4
	fstp	DWORD PTR _costheta$7[ebp]

; 486  : 						sintheta = (float) sin(theta);

	push	ecx
	movss	xmm0, DWORD PTR _theta$16[ebp]
	movss	DWORD PTR [esp], xmm0
	call	?sin@@YAMM@Z				; sin
	add	esp, 4
	fstp	DWORD PTR _sintheta$10[ebp]

; 487  : 						cosphi = (float) cos(phi);

	push	ecx
	movss	xmm0, DWORD PTR _phi$13[ebp]
	movss	DWORD PTR [esp], xmm0
	call	?cos@@YAMM@Z				; cos
	add	esp, 4
	fstp	DWORD PTR _cosphi$11[ebp]

; 488  : 						sinphi = (float) sin(phi);

	push	ecx
	movss	xmm0, DWORD PTR _phi$13[ebp]
	movss	DWORD PTR [esp], xmm0
	call	?sin@@YAMM@Z				; sin
	add	esp, 4
	fstp	DWORD PTR _sinphi$9[ebp]

; 489  : 						cosalpha = max( (float) cos(alpha),  0.0001F); // we need this for adjusting slew-rate

	push	ecx
	movss	xmm0, DWORD PTR _alpha$15[ebp]
	movss	DWORD PTR [esp], xmm0
	call	?cos@@YAMM@Z				; cos
	add	esp, 4
	fstp	DWORD PTR tv3444[ebp]
	movss	xmm0, DWORD PTR tv3444[ebp]
	comiss	xmm0, DWORD PTR __real@38d1b717
	jbe	SHORT $LN105@MaverickMo
	push	ecx
	movss	xmm0, DWORD PTR _alpha$15[ebp]
	movss	DWORD PTR [esp], xmm0
	call	?cos@@YAMM@Z				; cos
	add	esp, 4
	fstp	DWORD PTR tv1669[ebp]
	jmp	SHORT $LN106@MaverickMo
$LN105@MaverickMo:
	movss	xmm0, DWORD PTR __real@38d1b717
	movss	DWORD PTR tv1669[ebp], xmm0
$LN106@MaverickMo:
	movss	xmm0, DWORD PTR tv1669[ebp]
	movss	DWORD PTR _cosalpha$18[ebp], xmm0

; 490  : 
; 491  : 
; 492  : 						if(theDisplay->CurFOV() < (3.5F * DTR)) 

	mov	ecx, DWORD PTR _theDisplay$[ebp]
	call	?CurFOV@MaverickDisplayClass@@QAEMXZ	; MaverickDisplayClass::CurFOV
	fstp	DWORD PTR tv3455[ebp]
	movss	xmm0, DWORD PTR __real@3d7a35db
	comiss	xmm0, DWORD PTR tv3455[ebp]
	jbe	$LN44@MaverickMo

; 493  : 						{
; 494  : 							 deltaX = yMove * 50000.0F * dz/(cosalpha*cosalpha) * (0.03F/4000) * g_fCursorSpeed * (MAVERICK_SLEW_RATE/2.0F) * SimLibMajorFrameTime; // calibrated for 4000 ft high and 10 pitch, (cos^2 10) = 0.03; "dx = z/(cos^2 alpha)*dalpha"

	movss	xmm0, DWORD PTR _yMove$[ebp]
	mulss	xmm0, DWORD PTR __real@47435000
	mulss	xmm0, DWORD PTR _dz$[ebp]
	movss	xmm1, DWORD PTR _cosalpha$18[ebp]
	mulss	xmm1, DWORD PTR _cosalpha$18[ebp]
	divss	xmm0, xmm1
	mulss	xmm0, DWORD PTR __real@36fba882
	mulss	xmm0, DWORD PTR ?g_fCursorSpeed@@3MA
	movss	xmm1, DWORD PTR _MAVERICK_SLEW_RATE
	divss	xmm1, DWORD PTR __real@40000000
	mulss	xmm0, xmm1
	mulss	xmm0, DWORD PTR ?SimLibMajorFrameTime@@3MA
	movss	DWORD PTR _deltaX$19[ebp], xmm0

; 495  : 							 deltaY = xMove * 12000.0F * range/21000.0F * g_fCursorSpeed * (MAVERICK_SLEW_RATE/2.0F) * SimLibMajorFrameTime; // calibrated for 21000 ft range

	movss	xmm0, DWORD PTR _xMove$[ebp]
	mulss	xmm0, DWORD PTR __real@463b8000
	mulss	xmm0, DWORD PTR _range$14[ebp]
	divss	xmm0, DWORD PTR __real@46a41000
	mulss	xmm0, DWORD PTR ?g_fCursorSpeed@@3MA
	movss	xmm1, DWORD PTR _MAVERICK_SLEW_RATE
	divss	xmm1, DWORD PTR __real@40000000
	mulss	xmm0, xmm1
	mulss	xmm0, DWORD PTR ?SimLibMajorFrameTime@@3MA
	movss	DWORD PTR _deltaY$17[ebp], xmm0

; 496  : 						 }
; 497  : 						else

	jmp	SHORT $LN43@MaverickMo
$LN44@MaverickMo:

; 498  : 						{
; 499  : 							 deltaX = yMove * 50000.0F * dz/(cosalpha*cosalpha) * (0.03F/4000)* g_fCursorSpeed * MAVERICK_SLEW_RATE * SimLibMajorFrameTime; // calibrated for 4000 ft high and 10 pitch, (cos^2 10) = 0.03

	movss	xmm0, DWORD PTR _yMove$[ebp]
	mulss	xmm0, DWORD PTR __real@47435000
	mulss	xmm0, DWORD PTR _dz$[ebp]
	movss	xmm1, DWORD PTR _cosalpha$18[ebp]
	mulss	xmm1, DWORD PTR _cosalpha$18[ebp]
	divss	xmm0, xmm1
	mulss	xmm0, DWORD PTR __real@36fba882
	mulss	xmm0, DWORD PTR ?g_fCursorSpeed@@3MA
	mulss	xmm0, DWORD PTR _MAVERICK_SLEW_RATE
	mulss	xmm0, DWORD PTR ?SimLibMajorFrameTime@@3MA
	movss	DWORD PTR _deltaX$19[ebp], xmm0

; 500  : 							 deltaY = xMove * 12000.0F * range/21000.0F * g_fCursorSpeed * MAVERICK_SLEW_RATE * SimLibMajorFrameTime;  // calibrated for 21000 ft range

	movss	xmm0, DWORD PTR _xMove$[ebp]
	mulss	xmm0, DWORD PTR __real@463b8000
	mulss	xmm0, DWORD PTR _range$14[ebp]
	divss	xmm0, DWORD PTR __real@46a41000
	mulss	xmm0, DWORD PTR ?g_fCursorSpeed@@3MA
	mulss	xmm0, DWORD PTR _MAVERICK_SLEW_RATE
	mulss	xmm0, DWORD PTR ?SimLibMajorFrameTime@@3MA
	movss	DWORD PTR _deltaY$17[ebp], xmm0
$LN43@MaverickMo:

; 501  : 						}
; 502  : 
; 503  : 
; 504  :  						ry =  (costheta * deltaY + cosphi * deltaX);   // non-orthogonal rotation of euklidian base  

	movss	xmm0, DWORD PTR _costheta$7[ebp]
	mulss	xmm0, DWORD PTR _deltaY$17[ebp]
	movss	xmm1, DWORD PTR _cosphi$11[ebp]
	mulss	xmm1, DWORD PTR _deltaX$19[ebp]
	addss	xmm0, xmm1
	movss	DWORD PTR _ry$[ebp], xmm0

; 505  : 						rx =  (sintheta * deltaY + sinphi * deltaX);

	movss	xmm0, DWORD PTR _sintheta$10[ebp]
	mulss	xmm0, DWORD PTR _deltaY$17[ebp]
	movss	xmm1, DWORD PTR _sinphi$9[ebp]
	mulss	xmm1, DWORD PTR _deltaX$19[ebp]
	addss	xmm0, xmm1
	movss	DWORD PTR _rx$[ebp], xmm0

; 506  : 						rz = 0.0F;

	movss	xmm0, DWORD PTR __real@00000000
	movss	DWORD PTR _rz$[ebp], xmm0

; 507  : 				
; 508  : 						/*
; 509  : 						ry =  costheta * deltaY - sintheta * deltaX;	// orthogonal rotation of euklidian base 
; 510  : 						rx =  sintheta * deltaY + costheta * deltaX;
; 511  : 						rz = 0.0F;
; 512  : 						*/
; 513  : 
; 514  : 						groundDesignateX += rx;   // adjusting the designated point

	mov	ecx, DWORD PTR _this$[ebp]
	movss	xmm0, DWORD PTR [ecx+376]
	addss	xmm0, DWORD PTR _rx$[ebp]
	mov	edx, DWORD PTR _this$[ebp]
	movss	DWORD PTR [edx+376], xmm0

; 515  : 						groundDesignateY += ry;

	mov	eax, DWORD PTR _this$[ebp]
	movss	xmm0, DWORD PTR [eax+380]
	addss	xmm0, DWORD PTR _ry$[ebp]
	mov	ecx, DWORD PTR _this$[ebp]
	movss	DWORD PTR [ecx+380], xmm0

; 516  : 						groundDesignateZ += 0.0F;

	mov	edx, DWORD PTR _this$[ebp]
	movss	xmm0, DWORD PTR [edx+384]
	addss	xmm0, DWORD PTR __real@00000000
	mov	eax, DWORD PTR _this$[ebp]
	movss	DWORD PTR [eax+384], xmm0

; 517  : 
; 518  : 
; 519  : 						if (range > 210000.0F)  // no more than 40 Miles

	movss	xmm0, DWORD PTR _range$14[ebp]
	comiss	xmm0, DWORD PTR __real@484d1400
	jbe	SHORT $LN42@MaverickMo

; 520  : 						{
; 521  : 							preDesignate = TRUE;

	mov	ecx, DWORD PTR _this$[ebp]
	mov	BYTE PTR [ecx+182], 1

; 522  : 							groundPipperAz = 0.0F;

	mov	edx, DWORD PTR _this$[ebp]
	movss	xmm0, DWORD PTR __real@00000000
	movss	DWORD PTR [edx+388], xmm0

; 523  : 							groundPipperEl = 0.0F;

	mov	eax, DWORD PTR _this$[ebp]
	movss	xmm0, DWORD PTR __real@00000000
	movss	DWORD PTR [eax+392], xmm0

; 524  : 							yaw = 0.0F;

	movss	xmm0, DWORD PTR __real@00000000
	movss	DWORD PTR _yaw$[ebp], xmm0

; 525  : 							pitch = 0.0F;

	movss	xmm0, DWORD PTR __real@00000000
	movss	DWORD PTR _pitch$[ebp], xmm0

; 526  : 							platform->SOIManager (SimVehicleClass::SOI_HUD);

	push	0
	mov	ecx, DWORD PTR _this$[ebp]
	mov	ecx, DWORD PTR [ecx+140]
	call	?SOIManager@SimVehicleClass@@QAEXW4SOI@1@@Z ; SimVehicleClass::SOIManager

; 527  : 							missileTarget = FALSE;

	mov	edx, DWORD PTR _this$[ebp]
	mov	BYTE PTR [edx+192], 0

; 528  : // 2002-04-22 MN when setting back to SOI_HUD, set designateCmd to false. This way slewing continues at the last position of the MAV SOI
; 529  : 							if (g_bMavFix2)

	movzx	eax, BYTE PTR ?g_bMavFix2@@3_NA		; g_bMavFix2
	test	eax, eax
	je	SHORT $LN41@MaverickMo

; 530  : 								designateCmd = false;

	mov	ecx, DWORD PTR _this$[ebp]
	mov	BYTE PTR [ecx+184], 0
$LN41@MaverickMo:

; 531  : 						}
; 532  : 						else

	jmp	SHORT $LN40@MaverickMo
$LN42@MaverickMo:

; 533  : 						{
; 534  : 							theMissile->SetTargetPosition (groundDesignateX, groundDesignateY, groundDesignateZ);

	mov	edx, DWORD PTR _this$[ebp]
	push	ecx
	movss	xmm0, DWORD PTR [edx+384]
	movss	DWORD PTR [esp], xmm0
	mov	eax, DWORD PTR _this$[ebp]
	push	ecx
	movss	xmm0, DWORD PTR [eax+380]
	movss	DWORD PTR [esp], xmm0
	mov	ecx, DWORD PTR _this$[ebp]
	push	ecx
	movss	xmm0, DWORD PTR [ecx+376]
	movss	DWORD PTR [esp], xmm0
	mov	ecx, DWORD PTR _theMissile$[ebp]
	call	?SetTargetPosition@MissileClass@@QAEXMMM@Z ; MissileClass::SetTargetPosition

; 535  : 							missileTarget = TRUE;

	mov	edx, DWORD PTR _this$[ebp]
	mov	BYTE PTR [edx+192], 1
$LN40@MaverickMo:

; 536  : 						}
; 537  : 
; 538  : 						theMissile->SetTarget(NULL); 

	push	0
	mov	ecx, DWORD PTR _theMissile$[ebp]
	call	?SetTarget@MissileClass@@QAEXPAVSimObjectType@@@Z ; MissileClass::SetTarget

; 539  : 				   }  
; 540  : 				   // a.s. end of new slew code
; 541  : 
; 542  : 				   else  // old SLEW Code

	jmp	$LN39@MaverickMo
$LN45@MaverickMo:

; 543  : 				   {
; 544  : 						theDisplay->GetYPR (&yaw, &pitch, &roll);

	lea	eax, DWORD PTR _roll$[ebp]
	push	eax
	lea	ecx, DWORD PTR _pitch$[ebp]
	push	ecx
	lea	edx, DWORD PTR _yaw$[ebp]
	push	edx
	mov	ecx, DWORD PTR _theDisplay$[ebp]
	call	?GetYPR@MissileDisplayClass@@QAEXPAM00@Z ; MissileDisplayClass::GetYPR

; 545  : 						//MI
; 546  : 						if(theDisplay->CurFOV() < (3.5F * DTR))

	mov	ecx, DWORD PTR _theDisplay$[ebp]
	call	?CurFOV@MaverickDisplayClass@@QAEMXZ	; MaverickDisplayClass::CurFOV
	fstp	DWORD PTR tv3506[ebp]
	movss	xmm0, DWORD PTR __real@3d7a35db
	comiss	xmm0, DWORD PTR tv3506[ebp]
	jbe	SHORT $LN38@MaverickMo

; 547  : 						{
; 548  : 							pitch += yMove * g_fCursorSpeed * (MAVERICK_SLEW_RATE/2) * SimLibMajorFrameTime;

	movss	xmm0, DWORD PTR _yMove$[ebp]
	mulss	xmm0, DWORD PTR ?g_fCursorSpeed@@3MA
	movss	xmm1, DWORD PTR _MAVERICK_SLEW_RATE
	divss	xmm1, DWORD PTR __real@40000000
	mulss	xmm0, xmm1
	mulss	xmm0, DWORD PTR ?SimLibMajorFrameTime@@3MA
	addss	xmm0, DWORD PTR _pitch$[ebp]
	movss	DWORD PTR _pitch$[ebp], xmm0

; 549  : 							yaw += xMove * g_fCursorSpeed * (MAVERICK_SLEW_RATE/2) * SimLibMajorFrameTime;

	movss	xmm0, DWORD PTR _xMove$[ebp]
	mulss	xmm0, DWORD PTR ?g_fCursorSpeed@@3MA
	movss	xmm1, DWORD PTR _MAVERICK_SLEW_RATE
	divss	xmm1, DWORD PTR __real@40000000
	mulss	xmm0, xmm1
	mulss	xmm0, DWORD PTR ?SimLibMajorFrameTime@@3MA
	addss	xmm0, DWORD PTR _yaw$[ebp]
	movss	DWORD PTR _yaw$[ebp], xmm0

; 550  : 						}
; 551  : 						else

	jmp	SHORT $LN37@MaverickMo
$LN38@MaverickMo:

; 552  : 						{
; 553  : 							pitch += yMove * g_fCursorSpeed * MAVERICK_SLEW_RATE * SimLibMajorFrameTime;

	movss	xmm0, DWORD PTR _yMove$[ebp]
	mulss	xmm0, DWORD PTR ?g_fCursorSpeed@@3MA
	mulss	xmm0, DWORD PTR _MAVERICK_SLEW_RATE
	mulss	xmm0, DWORD PTR ?SimLibMajorFrameTime@@3MA
	addss	xmm0, DWORD PTR _pitch$[ebp]
	movss	DWORD PTR _pitch$[ebp], xmm0

; 554  : 							yaw += xMove * g_fCursorSpeed * MAVERICK_SLEW_RATE * SimLibMajorFrameTime;

	movss	xmm0, DWORD PTR _xMove$[ebp]
	mulss	xmm0, DWORD PTR ?g_fCursorSpeed@@3MA
	mulss	xmm0, DWORD PTR _MAVERICK_SLEW_RATE
	mulss	xmm0, DWORD PTR ?SimLibMajorFrameTime@@3MA
	addss	xmm0, DWORD PTR _yaw$[ebp]
	movss	DWORD PTR _yaw$[ebp], xmm0
$LN37@MaverickMo:

; 555  : 						}
; 556  : 
; 557  : 						if (!FindGroundIntersection (pitch, yaw, &tmpX, &tmpY, &tmpZ))

	lea	eax, DWORD PTR _tmpZ$[ebp]
	push	eax
	lea	ecx, DWORD PTR _tmpY$[ebp]
	push	ecx
	lea	edx, DWORD PTR _tmpX$[ebp]
	push	edx
	push	ecx
	movss	xmm0, DWORD PTR _yaw$[ebp]
	movss	DWORD PTR [esp], xmm0
	push	ecx
	movss	xmm0, DWORD PTR _pitch$[ebp]
	movss	DWORD PTR [esp], xmm0
	mov	ecx, DWORD PTR _this$[ebp]
	call	?FindGroundIntersection@FireControlComputer@@AAEHMMPAM00@Z ; FireControlComputer::FindGroundIntersection
	test	eax, eax
	jne	SHORT $LN36@MaverickMo

; 558  : 						{
; 559  : 							preDesignate = TRUE;

	mov	eax, DWORD PTR _this$[ebp]
	mov	BYTE PTR [eax+182], 1

; 560  : 							groundPipperAz = 0.0F;

	mov	ecx, DWORD PTR _this$[ebp]
	movss	xmm0, DWORD PTR __real@00000000
	movss	DWORD PTR [ecx+388], xmm0

; 561  : 							groundPipperEl = 0.0F;

	mov	edx, DWORD PTR _this$[ebp]
	movss	xmm0, DWORD PTR __real@00000000
	movss	DWORD PTR [edx+392], xmm0

; 562  : 							yaw = 0.0F;

	movss	xmm0, DWORD PTR __real@00000000
	movss	DWORD PTR _yaw$[ebp], xmm0

; 563  : 							pitch = 0.0F;

	movss	xmm0, DWORD PTR __real@00000000
	movss	DWORD PTR _pitch$[ebp], xmm0

; 564  : 							platform->SOIManager (SimVehicleClass::SOI_HUD);

	push	0
	mov	eax, DWORD PTR _this$[ebp]
	mov	ecx, DWORD PTR [eax+140]
	call	?SOIManager@SimVehicleClass@@QAEXW4SOI@1@@Z ; SimVehicleClass::SOIManager

; 565  : 							missileTarget = FALSE;

	mov	ecx, DWORD PTR _this$[ebp]
	mov	BYTE PTR [ecx+192], 0

; 566  : 						}
; 567  : 						else

	jmp	$LN35@MaverickMo
$LN36@MaverickMo:

; 568  : 						{
; 569  : 							theDisplay->SetYPR (yaw, pitch, roll);

	push	ecx
	movss	xmm0, DWORD PTR _roll$[ebp]
	movss	DWORD PTR [esp], xmm0
	push	ecx
	movss	xmm0, DWORD PTR _pitch$[ebp]
	movss	DWORD PTR [esp], xmm0
	push	ecx
	movss	xmm0, DWORD PTR _yaw$[ebp]
	movss	DWORD PTR [esp], xmm0
	mov	ecx, DWORD PTR _theDisplay$[ebp]
	call	?SetYPR@MissileDisplayClass@@QAEXMMM@Z	; MissileDisplayClass::SetYPR

; 570  : 							groundDesignateX = tmpX;

	mov	edx, DWORD PTR _this$[ebp]
	movss	xmm0, DWORD PTR _tmpX$[ebp]
	movss	DWORD PTR [edx+376], xmm0

; 571  : 							groundDesignateY = tmpY;

	mov	eax, DWORD PTR _this$[ebp]
	movss	xmm0, DWORD PTR _tmpY$[ebp]
	movss	DWORD PTR [eax+380], xmm0

; 572  : 							groundDesignateZ = tmpZ;

	mov	ecx, DWORD PTR _this$[ebp]
	movss	xmm0, DWORD PTR _tmpZ$[ebp]
	movss	DWORD PTR [ecx+384], xmm0

; 573  : 							theMissile->SetTargetPosition (tmpX, tmpY, tmpZ);

	push	ecx
	movss	xmm0, DWORD PTR _tmpZ$[ebp]
	movss	DWORD PTR [esp], xmm0
	push	ecx
	movss	xmm0, DWORD PTR _tmpY$[ebp]
	movss	DWORD PTR [esp], xmm0
	push	ecx
	movss	xmm0, DWORD PTR _tmpX$[ebp]
	movss	DWORD PTR [esp], xmm0
	mov	ecx, DWORD PTR _theMissile$[ebp]
	call	?SetTargetPosition@MissileClass@@QAEXMMM@Z ; MissileClass::SetTargetPosition

; 574  : 							missileTarget = TRUE;

	mov	edx, DWORD PTR _this$[ebp]
	mov	BYTE PTR [edx+192], 1
$LN35@MaverickMo:

; 575  : 						}
; 576  : 						theMissile->SetTarget(NULL);

	push	0
	mov	ecx, DWORD PTR _theMissile$[ebp]
	call	?SetTarget@MissileClass@@QAEXPAVSimObjectType@@@Z ; MissileClass::SetTarget
$LN39@MaverickMo:

; 577  : 				   } // end old SLEW Code 
; 578  : 
; 579  :                }
; 580  : 
; 581  :                // Point at the designated spot
; 582  :                dx = groundDesignateX - platform->XPos();

	mov	eax, DWORD PTR _this$[ebp]
	mov	ecx, DWORD PTR [eax+140]
	call	?XPos@VuEntity@@QBEMXZ			; VuEntity::XPos
	fstp	DWORD PTR tv3558[ebp]
	mov	ecx, DWORD PTR _this$[ebp]
	movss	xmm0, DWORD PTR [ecx+376]
	subss	xmm0, DWORD PTR tv3558[ebp]
	movss	DWORD PTR _dx$[ebp], xmm0

; 583  :                dy = groundDesignateY - platform->YPos();

	mov	edx, DWORD PTR _this$[ebp]
	mov	ecx, DWORD PTR [edx+140]
	call	?YPos@VuEntity@@QBEMXZ			; VuEntity::YPos
	fstp	DWORD PTR tv3565[ebp]
	mov	eax, DWORD PTR _this$[ebp]
	movss	xmm0, DWORD PTR [eax+380]
	subss	xmm0, DWORD PTR tv3565[ebp]
	movss	DWORD PTR _dy$[ebp], xmm0

; 584  :                dz = groundDesignateZ - platform->ZPos();

	mov	ecx, DWORD PTR _this$[ebp]
	mov	ecx, DWORD PTR [ecx+140]
	call	?ZPos@VuEntity@@QBEMXZ			; VuEntity::ZPos
	fstp	DWORD PTR tv3572[ebp]
	mov	edx, DWORD PTR _this$[ebp]
	movss	xmm0, DWORD PTR [edx+384]
	subss	xmm0, DWORD PTR tv3572[ebp]
	movss	DWORD PTR _dz$[ebp], xmm0

; 585  :                theMissile->SetTargetPosition (groundDesignateX, groundDesignateY, groundDesignateZ);

	mov	eax, DWORD PTR _this$[ebp]
	push	ecx
	movss	xmm0, DWORD PTR [eax+384]
	movss	DWORD PTR [esp], xmm0
	mov	ecx, DWORD PTR _this$[ebp]
	push	ecx
	movss	xmm0, DWORD PTR [ecx+380]
	movss	DWORD PTR [esp], xmm0
	mov	edx, DWORD PTR _this$[ebp]
	push	ecx
	movss	xmm0, DWORD PTR [edx+376]
	movss	DWORD PTR [esp], xmm0
	mov	ecx, DWORD PTR _theMissile$[ebp]
	call	?SetTargetPosition@MissileClass@@QAEXMMM@Z ; MissileClass::SetTargetPosition

; 586  : 
; 587  :                rx = platform->dmx[0][0]*dx + platform->dmx[0][1]*dy + platform->dmx[0][2]*dz;

	mov	eax, DWORD PTR _this$[ebp]
	mov	ecx, DWORD PTR [eax+140]
	mov	edx, 12					; 0000000cH
	imul	edx, 0
	lea	eax, DWORD PTR [ecx+edx+296]
	mov	ecx, 4
	imul	ecx, 0
	movss	xmm0, DWORD PTR [eax+ecx]
	mulss	xmm0, DWORD PTR _dx$[ebp]
	mov	edx, DWORD PTR _this$[ebp]
	mov	eax, DWORD PTR [edx+140]
	mov	ecx, 12					; 0000000cH
	imul	ecx, 0
	lea	edx, DWORD PTR [eax+ecx+296]
	mov	eax, 4
	shl	eax, 0
	movss	xmm1, DWORD PTR [edx+eax]
	mulss	xmm1, DWORD PTR _dy$[ebp]
	addss	xmm0, xmm1
	mov	ecx, DWORD PTR _this$[ebp]
	mov	edx, DWORD PTR [ecx+140]
	mov	eax, 12					; 0000000cH
	imul	eax, 0
	lea	ecx, DWORD PTR [edx+eax+296]
	mov	edx, 4
	shl	edx, 1
	movss	xmm1, DWORD PTR [ecx+edx]
	mulss	xmm1, DWORD PTR _dz$[ebp]
	addss	xmm0, xmm1
	movss	DWORD PTR _rx$[ebp], xmm0

; 588  :                ry = platform->dmx[1][0]*dx + platform->dmx[1][1]*dy + platform->dmx[1][2]*dz;

	mov	eax, DWORD PTR _this$[ebp]
	mov	ecx, DWORD PTR [eax+140]
	mov	edx, 12					; 0000000cH
	shl	edx, 0
	lea	eax, DWORD PTR [ecx+edx+296]
	mov	ecx, 4
	imul	ecx, 0
	movss	xmm0, DWORD PTR [eax+ecx]
	mulss	xmm0, DWORD PTR _dx$[ebp]
	mov	edx, DWORD PTR _this$[ebp]
	mov	eax, DWORD PTR [edx+140]
	mov	ecx, 12					; 0000000cH
	shl	ecx, 0
	lea	edx, DWORD PTR [eax+ecx+296]
	mov	eax, 4
	shl	eax, 0
	movss	xmm1, DWORD PTR [edx+eax]
	mulss	xmm1, DWORD PTR _dy$[ebp]
	addss	xmm0, xmm1
	mov	ecx, DWORD PTR _this$[ebp]
	mov	edx, DWORD PTR [ecx+140]
	mov	eax, 12					; 0000000cH
	shl	eax, 0
	lea	ecx, DWORD PTR [edx+eax+296]
	mov	edx, 4
	shl	edx, 1
	movss	xmm1, DWORD PTR [ecx+edx]
	mulss	xmm1, DWORD PTR _dz$[ebp]
	addss	xmm0, xmm1
	movss	DWORD PTR _ry$[ebp], xmm0

; 589  :                rz = platform->dmx[2][0]*dx + platform->dmx[2][1]*dy + platform->dmx[2][2]*dz;

	mov	eax, DWORD PTR _this$[ebp]
	mov	ecx, DWORD PTR [eax+140]
	mov	edx, 12					; 0000000cH
	shl	edx, 1
	lea	eax, DWORD PTR [ecx+edx+296]
	mov	ecx, 4
	imul	ecx, 0
	movss	xmm0, DWORD PTR [eax+ecx]
	mulss	xmm0, DWORD PTR _dx$[ebp]
	mov	edx, DWORD PTR _this$[ebp]
	mov	eax, DWORD PTR [edx+140]
	mov	ecx, 12					; 0000000cH
	shl	ecx, 1
	lea	edx, DWORD PTR [eax+ecx+296]
	mov	eax, 4
	shl	eax, 0
	movss	xmm1, DWORD PTR [edx+eax]
	mulss	xmm1, DWORD PTR _dy$[ebp]
	addss	xmm0, xmm1
	mov	ecx, DWORD PTR _this$[ebp]
	mov	edx, DWORD PTR [ecx+140]
	mov	eax, 12					; 0000000cH
	shl	eax, 1
	lea	ecx, DWORD PTR [edx+eax+296]
	mov	edx, 4
	shl	edx, 1
	movss	xmm1, DWORD PTR [ecx+edx]
	mulss	xmm1, DWORD PTR _dz$[ebp]
	addss	xmm0, xmm1
	movss	DWORD PTR _rz$[ebp], xmm0

; 590  : 
; 591  :                groundDesignateAz = (float)atan2 (ry,rx);

	cvtss2sd xmm0, DWORD PTR _rx$[ebp]
	sub	esp, 8
	movsd	QWORD PTR [esp], xmm0
	cvtss2sd xmm0, DWORD PTR _ry$[ebp]
	sub	esp, 8
	movsd	QWORD PTR [esp], xmm0
	call	?checked_atan2@@YANNN@Z			; checked_atan2
	add	esp, 16					; 00000010H
	mov	eax, DWORD PTR _this$[ebp]
	fstp	DWORD PTR [eax+364]

; 592  :                groundDesignateEl = (float)atan (-rz/(float)sqrt(rx*rx+ry*ry+.1f));

	movss	xmm0, DWORD PTR _rz$[ebp]
	xorps	xmm0, DWORD PTR __xmm@80000000800000008000000080000000
	movss	xmm1, DWORD PTR _rx$[ebp]
	mulss	xmm1, DWORD PTR _rx$[ebp]
	movss	xmm2, DWORD PTR _ry$[ebp]
	mulss	xmm2, DWORD PTR _ry$[ebp]
	addss	xmm1, xmm2
	addss	xmm1, DWORD PTR __real@3dcccccd
	push	ecx
	movss	DWORD PTR [esp], xmm1
	movss	DWORD PTR tv3923[ebp], xmm0
	call	?SqrtSSE@@YAMM@Z			; SqrtSSE
	add	esp, 4
	fstp	DWORD PTR tv3633[ebp]
	movss	xmm0, DWORD PTR tv3923[ebp]
	divss	xmm0, DWORD PTR tv3633[ebp]
	push	ecx
	movss	DWORD PTR [esp], xmm0
	call	?atan@@YAMM@Z				; atan
	add	esp, 4
	mov	ecx, DWORD PTR _this$[ebp]
	fstp	DWORD PTR [ecx+368]

; 593  :                groundDesignateDroll = (float)atan2 (ry, -rz);

	movss	xmm0, DWORD PTR _rz$[ebp]
	xorps	xmm0, DWORD PTR __xmm@80000000800000008000000080000000
	cvtss2sd xmm0, xmm0
	sub	esp, 8
	movsd	QWORD PTR [esp], xmm0
	cvtss2sd xmm0, DWORD PTR _ry$[ebp]
	sub	esp, 8
	movsd	QWORD PTR [esp], xmm0
	call	?checked_atan2@@YANNN@Z			; checked_atan2
	add	esp, 16					; 00000010H
	mov	edx, DWORD PTR _this$[ebp]
	fstp	DWORD PTR [edx+372]

; 594  : 
; 595  :                pitch = groundDesignateEl;

	mov	eax, DWORD PTR _this$[ebp]
	movss	xmm0, DWORD PTR [eax+368]
	movss	DWORD PTR _pitch$[ebp], xmm0

; 596  :                yaw   = groundDesignateAz;

	mov	ecx, DWORD PTR _this$[ebp]
	movss	xmm0, DWORD PTR [ecx+364]
	movss	DWORD PTR _yaw$[ebp], xmm0

; 597  :                isLimited = theMissile->SetSeekerPos (&yaw, &pitch);

	lea	edx, DWORD PTR _pitch$[ebp]
	push	edx
	lea	eax, DWORD PTR _yaw$[ebp]
	push	eax
	mov	ecx, DWORD PTR _theMissile$[ebp]
	call	?SetSeekerPos@MissileClass@@QAEHPAM0@Z	; MissileClass::SetSeekerPos
	mov	DWORD PTR _isLimited$[ebp], eax

; 598  : 
; 599  :                if (!isLimited)

	cmp	DWORD PTR _isLimited$[ebp], 0
	jne	$LN34@MaverickMo

; 600  :                {
; 601  :                   curTarget = MavCheckLock(theMissile);

	mov	ecx, DWORD PTR _theMissile$[ebp]
	push	ecx
	mov	ecx, DWORD PTR _this$[ebp]
	call	?MavCheckLock@FireControlComputer@@AAEPAVSimObjectType@@PAVMissileClass@@@Z ; FireControlComputer::MavCheckLock
	mov	DWORD PTR _curTarget$[ebp], eax

; 602  : 
; 603  :                   mlSinCos (&trig, platform->Roll());

	mov	edx, DWORD PTR _this$[ebp]
	mov	ecx, DWORD PTR [edx+140]
	call	?Roll@VuEntity@@QBEMXZ			; VuEntity::Roll
	push	ecx
	fstp	DWORD PTR [esp]
	lea	eax, DWORD PTR _trig$[ebp]
	push	eax
	call	?mlSinCos@@YAXPAUmlTrig@@M@Z		; mlSinCos
	add	esp, 8

; 604  :                   pitch = groundDesignateEl * trig.cos - groundDesignateAz * trig.sin;

	mov	ecx, DWORD PTR _this$[ebp]
	movss	xmm0, DWORD PTR [ecx+368]
	mulss	xmm0, DWORD PTR _trig$[ebp+4]
	mov	edx, DWORD PTR _this$[ebp]
	movss	xmm1, DWORD PTR [edx+364]
	mulss	xmm1, DWORD PTR _trig$[ebp]
	subss	xmm0, xmm1
	movss	DWORD PTR _pitch$[ebp], xmm0

; 605  :                   yaw = groundDesignateEl * trig.sin + groundDesignateAz * trig.cos;

	mov	eax, DWORD PTR _this$[ebp]
	movss	xmm0, DWORD PTR [eax+368]
	mulss	xmm0, DWORD PTR _trig$[ebp]
	mov	ecx, DWORD PTR _this$[ebp]
	movss	xmm1, DWORD PTR [ecx+364]
	mulss	xmm1, DWORD PTR _trig$[ebp+4]
	addss	xmm0, xmm1
	movss	DWORD PTR _yaw$[ebp], xmm0

; 606  :                   theDisplay->SetYPR (yaw + platform->Yaw(), pitch + platform->Pitch(), 0.0F);

	push	ecx
	movss	xmm0, DWORD PTR __real@00000000
	movss	DWORD PTR [esp], xmm0
	mov	edx, DWORD PTR _this$[ebp]
	mov	ecx, DWORD PTR [edx+140]
	call	?Pitch@VuEntity@@QBEMXZ			; VuEntity::Pitch
	fstp	DWORD PTR tv3672[ebp]
	movss	xmm0, DWORD PTR tv3672[ebp]
	addss	xmm0, DWORD PTR _pitch$[ebp]
	push	ecx
	movss	DWORD PTR [esp], xmm0
	mov	eax, DWORD PTR _this$[ebp]
	mov	ecx, DWORD PTR [eax+140]
	call	?Yaw@VuEntity@@QBEMXZ			; VuEntity::Yaw
	fstp	DWORD PTR tv3678[ebp]
	movss	xmm0, DWORD PTR tv3678[ebp]
	addss	xmm0, DWORD PTR _yaw$[ebp]
	push	ecx
	movss	DWORD PTR [esp], xmm0
	mov	ecx, DWORD PTR _theDisplay$[ebp]
	call	?SetYPR@MissileDisplayClass@@QAEXMMM@Z	; MissileDisplayClass::SetYPR

; 607  :                   theDisplay->DetectTarget();

	mov	ecx, DWORD PTR _theDisplay$[ebp]
	call	?DetectTarget@MaverickDisplayClass@@QAEXXZ ; MaverickDisplayClass::DetectTarget

; 608  :                }
; 609  :                else

	jmp	SHORT $LN31@MaverickMo
$LN34@MaverickMo:

; 610  :                {
; 611  :                   curTarget = NULL;

	mov	DWORD PTR _curTarget$[ebp], 0

; 612  :                   preDesignate = TRUE;

	mov	ecx, DWORD PTR _this$[ebp]
	mov	BYTE PTR [ecx+182], 1

; 613  :                   if (subMode != SLAVE)

	mov	edx, DWORD PTR _this$[ebp]
	cmp	DWORD PTR [edx+148], 15			; 0000000fH
	je	SHORT $LN32@MaverickMo

; 614  :                      platform->SOIManager (SimVehicleClass::SOI_HUD);

	push	0
	mov	eax, DWORD PTR _this$[ebp]
	mov	ecx, DWORD PTR [eax+140]
	call	?SOIManager@SimVehicleClass@@QAEXW4SOI@1@@Z ; SimVehicleClass::SOIManager

; 615  :                   else

	jmp	SHORT $LN31@MaverickMo
$LN32@MaverickMo:

; 616  :                      platform->SOIManager (SimVehicleClass::SOI_RADAR);

	push	1
	mov	ecx, DWORD PTR _this$[ebp]
	mov	ecx, DWORD PTR [ecx+140]
	call	?SOIManager@SimVehicleClass@@QAEXW4SOI@1@@Z ; SimVehicleClass::SOIManager
$LN31@MaverickMo:

; 617  :                }
; 618  : 
; 619  :                if (theMissile->targetPtr && designateCmd && !lastDesignate)

	mov	edx, DWORD PTR _theMissile$[ebp]
	cmp	DWORD PTR [edx+656], 0
	je	SHORT $LN30@MaverickMo
	mov	eax, DWORD PTR _this$[ebp]
	movsx	ecx, BYTE PTR [eax+184]
	test	ecx, ecx
	je	SHORT $LN30@MaverickMo
	mov	edx, DWORD PTR _this$[ebp]
	cmp	DWORD PTR [edx+96], 0
	jne	SHORT $LN30@MaverickMo

; 620  :                {
; 621  : 				   SetTarget(curTarget);

	mov	eax, DWORD PTR _curTarget$[ebp]
	push	eax
	mov	ecx, DWORD PTR _this$[ebp]
	call	?SetTarget@FireControlComputer@@QAEXPAVSimObjectType@@@Z ; FireControlComputer::SetTarget

; 622  : 				   theDisplay->LockTarget();

	mov	ecx, DWORD PTR _theDisplay$[ebp]
	call	?LockTarget@MaverickDisplayClass@@QAEXXZ ; MaverickDisplayClass::LockTarget

; 623  : 				   platform->SOIManager (SimVehicleClass::SOI_WEAPON);

	push	2
	mov	ecx, DWORD PTR _this$[ebp]
	mov	ecx, DWORD PTR [ecx+140]
	call	?SOIManager@SimVehicleClass@@QAEXW4SOI@1@@Z ; SimVehicleClass::SOIManager
$LN30@MaverickMo:

; 624  :                }
; 625  : 
; 626  :                if (theDisplay->IsLocked())

	mov	ecx, DWORD PTR _theDisplay$[ebp]
	call	?IsLocked@MaverickDisplayClass@@QAEHXZ	; MaverickDisplayClass::IsLocked
	test	eax, eax
	je	$LN28@MaverickMo

; 627  :                {
; 628  :                   if (targetPtr)

	mov	edx, DWORD PTR _this$[ebp]
	cmp	DWORD PTR [edx+132], 0
	je	$LN28@MaverickMo

; 629  :                   {
; 630  :                      if (targetPtr->BaseData()->IsSimObjective())

	mov	eax, DWORD PTR _this$[ebp]
	mov	ecx, DWORD PTR [eax+132]
	call	?BaseData@SimObjectType@@QAEPAVFalconEntity@@XZ ; SimObjectType::BaseData
	mov	ecx, eax
	call	?IsSimObjective@FalconEntity@@QAEHXZ	; FalconEntity::IsSimObjective
	test	eax, eax
	je	SHORT $LN27@MaverickMo

; 631  :                      {
; 632  :                         UpdateGroundObjectRelativeGeometry ();

	mov	ecx, DWORD PTR _this$[ebp]
	call	?UpdateGroundObjectRelativeGeometry@FireControlComputer@@AAEXXZ ; FireControlComputer::UpdateGroundObjectRelativeGeometry
$LN27@MaverickMo:

; 633  :                      }
; 634  :                      groundDesignateX = targetPtr->BaseData()->XPos();

	mov	ecx, DWORD PTR _this$[ebp]
	mov	ecx, DWORD PTR [ecx+132]
	call	?BaseData@SimObjectType@@QAEPAVFalconEntity@@XZ ; SimObjectType::BaseData
	mov	ecx, eax
	call	?XPos@VuEntity@@QBEMXZ			; VuEntity::XPos
	mov	edx, DWORD PTR _this$[ebp]
	fstp	DWORD PTR [edx+376]

; 635  :                      groundDesignateY = targetPtr->BaseData()->YPos();

	mov	eax, DWORD PTR _this$[ebp]
	mov	ecx, DWORD PTR [eax+132]
	call	?BaseData@SimObjectType@@QAEPAVFalconEntity@@XZ ; SimObjectType::BaseData
	mov	ecx, eax
	call	?YPos@VuEntity@@QBEMXZ			; VuEntity::YPos
	mov	ecx, DWORD PTR _this$[ebp]
	fstp	DWORD PTR [ecx+380]

; 636  :                      groundDesignateZ = targetPtr->BaseData()->ZPos();

	mov	edx, DWORD PTR _this$[ebp]
	mov	ecx, DWORD PTR [edx+132]
	call	?BaseData@SimObjectType@@QAEPAVFalconEntity@@XZ ; SimObjectType::BaseData
	mov	ecx, eax
	call	?ZPos@VuEntity@@QBEMXZ			; VuEntity::ZPos
	mov	eax, DWORD PTR _this$[ebp]
	fstp	DWORD PTR [eax+384]

; 637  :                      theMissile->SetTargetPosition (groundDesignateX, groundDesignateY, groundDesignateZ);

	mov	ecx, DWORD PTR _this$[ebp]
	push	ecx
	movss	xmm0, DWORD PTR [ecx+384]
	movss	DWORD PTR [esp], xmm0
	mov	edx, DWORD PTR _this$[ebp]
	push	ecx
	movss	xmm0, DWORD PTR [edx+380]
	movss	DWORD PTR [esp], xmm0
	mov	eax, DWORD PTR _this$[ebp]
	push	ecx
	movss	xmm0, DWORD PTR [eax+376]
	movss	DWORD PTR [esp], xmm0
	mov	ecx, DWORD PTR _theMissile$[ebp]
	call	?SetTargetPosition@MissileClass@@QAEXMMM@Z ; MissileClass::SetTargetPosition
$LN28@MaverickMo:

; 638  :                   }
; 639  :                }
; 640  :             }
; 641  : 
; 642  :             if (targetPtr)

	mov	ecx, DWORD PTR _this$[ebp]
	cmp	DWORD PTR [ecx+132], 0
	je	$LN26@MaverickMo

; 643  :             {
; 644  :                pitch = (float)atan (-dz/(float)sqrt(dx*dx+dy*dy+.1f));

	movss	xmm0, DWORD PTR _dz$[ebp]
	xorps	xmm0, DWORD PTR __xmm@80000000800000008000000080000000
	movss	xmm1, DWORD PTR _dx$[ebp]
	mulss	xmm1, DWORD PTR _dx$[ebp]
	movss	xmm2, DWORD PTR _dy$[ebp]
	mulss	xmm2, DWORD PTR _dy$[ebp]
	addss	xmm1, xmm2
	addss	xmm1, DWORD PTR __real@3dcccccd
	push	ecx
	movss	DWORD PTR [esp], xmm1
	movss	DWORD PTR tv3925[ebp], xmm0
	call	?SqrtSSE@@YAMM@Z			; SqrtSSE
	add	esp, 4
	fstp	DWORD PTR tv3730[ebp]
	movss	xmm0, DWORD PTR tv3925[ebp]
	divss	xmm0, DWORD PTR tv3730[ebp]
	push	ecx
	movss	DWORD PTR [esp], xmm0
	call	?atan@@YAMM@Z				; atan
	add	esp, 4
	fstp	DWORD PTR _pitch$[ebp]

; 645  :                yaw = (float)atan2 (dy,dx);

	cvtss2sd xmm0, DWORD PTR _dx$[ebp]
	sub	esp, 8
	movsd	QWORD PTR [esp], xmm0
	cvtss2sd xmm0, DWORD PTR _dy$[ebp]
	sub	esp, 8
	movsd	QWORD PTR [esp], xmm0
	call	?checked_atan2@@YANNN@Z			; checked_atan2
	add	esp, 16					; 00000010H
	fstp	DWORD PTR _yaw$[ebp]

; 646  :                roll = 0.0F;

	movss	xmm0, DWORD PTR __real@00000000
	movss	DWORD PTR _roll$[ebp], xmm0

; 647  : 
; 648  :                theDisplay->SetYPR (yaw, pitch, roll);

	push	ecx
	movss	xmm0, DWORD PTR _roll$[ebp]
	movss	DWORD PTR [esp], xmm0
	push	ecx
	movss	xmm0, DWORD PTR _pitch$[ebp]
	movss	DWORD PTR [esp], xmm0
	push	ecx
	movss	xmm0, DWORD PTR _yaw$[ebp]
	movss	DWORD PTR [esp], xmm0
	mov	ecx, DWORD PTR _theDisplay$[ebp]
	call	?SetYPR@MissileDisplayClass@@QAEXMMM@Z	; MissileDisplayClass::SetYPR

; 649  :                pitch = groundDesignateEl;

	mov	edx, DWORD PTR _this$[ebp]
	movss	xmm0, DWORD PTR [edx+368]
	movss	DWORD PTR _pitch$[ebp], xmm0

; 650  :                yaw   = groundDesignateAz;

	mov	eax, DWORD PTR _this$[ebp]
	movss	xmm0, DWORD PTR [eax+364]
	movss	DWORD PTR _yaw$[ebp], xmm0

; 651  :                theMissile->SetSeekerPos (&yaw, &pitch);

	lea	ecx, DWORD PTR _pitch$[ebp]
	push	ecx
	lea	edx, DWORD PTR _yaw$[ebp]
	push	edx
	mov	ecx, DWORD PTR _theMissile$[ebp]
	call	?SetSeekerPos@MissileClass@@QAEHPAM0@Z	; MissileClass::SetSeekerPos
$LN26@MaverickMo:
$LN60@MaverickMo:

; 652  :             }
; 653  :          }
; 654  :          else
; 655  :          {
; 656  : 				ShiWarning ("MavFCC, How did I get here?");
; 657  :          }
; 658  : 
; 659  : 		// RV - Biker - New WEZ calculation for Mavs
; 660  :         // if (targetPtr)
; 661  :         //{
; 662  :         //	missileWEZDisplayRange = 10.0F * NM_TO_FT;
; 663  : 		//	theDisplay->SetTarget(TRUE);
; 664  : 		//	missileTOF    = theMissile->GetTOF(-platform->ZPos(), platform->GetVt(), 0.0f, 0.0f, targetPtr->localData->range);
; 665  : 		//}
; 666  : 
; 667  : 		if (targetPtr) {

	mov	eax, DWORD PTR _this$[ebp]
	cmp	DWORD PTR [eax+132], 0
	je	$LN24@MaverickMo

; 668  : 			if (theRadar) {

	cmp	DWORD PTR _theRadar$[ebp], 0
	je	$LN23@MaverickMo

; 669  : 				// We are in range
; 670  : 				if (targetPtr->localData->range < missileRMax) {

	mov	ecx, DWORD PTR _this$[ebp]
	mov	edx, DWORD PTR [ecx+132]
	mov	eax, DWORD PTR [edx+12]
	mov	ecx, DWORD PTR _this$[ebp]
	movss	xmm0, DWORD PTR [ecx+288]
	comiss	xmm0, DWORD PTR [eax+44]
	jbe	$LN22@MaverickMo

; 671  : 					if (missileRMax > 80 * NM_TO_FT)

	mov	edx, DWORD PTR _this$[ebp]
	movss	xmm0, DWORD PTR [edx+288]
	comiss	xmm0, DWORD PTR __real@48ed5a1c
	jbe	SHORT $LN21@MaverickMo

; 672  : 						missileWEZDisplayRange = 160.0F * NM_TO_FT;

	mov	eax, DWORD PTR _this$[ebp]
	movss	xmm0, DWORD PTR __real@496d5a1c
	movss	DWORD PTR [eax+312], xmm0
	jmp	$LN14@MaverickMo
$LN21@MaverickMo:

; 673  : 					else if (missileRMax > 40 * NM_TO_FT)

	mov	ecx, DWORD PTR _this$[ebp]
	movss	xmm0, DWORD PTR [ecx+288]
	comiss	xmm0, DWORD PTR __real@486d5a1c
	jbe	SHORT $LN19@MaverickMo

; 674  : 						missileWEZDisplayRange = 80.0F * NM_TO_FT;

	mov	edx, DWORD PTR _this$[ebp]
	movss	xmm0, DWORD PTR __real@48ed5a1c
	movss	DWORD PTR [edx+312], xmm0
	jmp	SHORT $LN14@MaverickMo
$LN19@MaverickMo:

; 675  : 					else if (missileRMax > 20 * NM_TO_FT)

	mov	eax, DWORD PTR _this$[ebp]
	movss	xmm0, DWORD PTR [eax+288]
	comiss	xmm0, DWORD PTR __real@47ed5a1c
	jbe	SHORT $LN17@MaverickMo

; 676  : 						missileWEZDisplayRange = 40.0F * NM_TO_FT;

	mov	ecx, DWORD PTR _this$[ebp]
	movss	xmm0, DWORD PTR __real@486d5a1c
	movss	DWORD PTR [ecx+312], xmm0
	jmp	SHORT $LN14@MaverickMo
$LN17@MaverickMo:

; 677  : 					else if (missileRMax > 10 * NM_TO_FT)

	mov	edx, DWORD PTR _this$[ebp]
	movss	xmm0, DWORD PTR [edx+288]
	comiss	xmm0, DWORD PTR __real@476d5a1c
	jbe	SHORT $LN15@MaverickMo

; 678  : 						missileWEZDisplayRange = 20.0F * NM_TO_FT;

	mov	eax, DWORD PTR _this$[ebp]
	movss	xmm0, DWORD PTR __real@47ed5a1c
	movss	DWORD PTR [eax+312], xmm0

; 679  : 					else

	jmp	SHORT $LN14@MaverickMo
$LN15@MaverickMo:

; 680  : 						missileWEZDisplayRange = 10.0F * NM_TO_FT;

	mov	ecx, DWORD PTR _this$[ebp]
	movss	xmm0, DWORD PTR __real@476d5a1c
	movss	DWORD PTR [ecx+312], xmm0
$LN14@MaverickMo:

; 681  : 				}
; 682  : 				else {

	jmp	$LN13@MaverickMo
$LN22@MaverickMo:

; 683  : 					missileWEZDisplayRange = theRadar->GetRange() * NM_TO_FT;

	mov	edx, DWORD PTR _theRadar$[ebp]
	mov	eax, DWORD PTR [edx]
	mov	ecx, DWORD PTR _theRadar$[ebp]
	mov	edx, DWORD PTR [eax+196]
	call	edx
	fstp	DWORD PTR tv3779[ebp]
	movss	xmm0, DWORD PTR tv3779[ebp]
	mulss	xmm0, DWORD PTR __real@45bde1b0
	mov	eax, DWORD PTR _this$[ebp]
	movss	DWORD PTR [eax+312], xmm0

; 684  : 					missileWEZDisplayRange = min(missileWEZDisplayRange, missileWEZmax);

	mov	ecx, DWORD PTR _this$[ebp]
	mov	edx, DWORD PTR _this$[ebp]
	movss	xmm0, DWORD PTR [edx+316]
	comiss	xmm0, DWORD PTR [ecx+312]
	jbe	SHORT $LN107@MaverickMo
	mov	eax, DWORD PTR _this$[ebp]
	movss	xmm0, DWORD PTR [eax+312]
	movss	DWORD PTR tv2171[ebp], xmm0
	jmp	SHORT $LN108@MaverickMo
$LN107@MaverickMo:
	mov	ecx, DWORD PTR _this$[ebp]
	movss	xmm0, DWORD PTR [ecx+316]
	movss	DWORD PTR tv2171[ebp], xmm0
$LN108@MaverickMo:
	mov	edx, DWORD PTR _this$[ebp]
	movss	xmm0, DWORD PTR tv2171[ebp]
	movss	DWORD PTR [edx+312], xmm0
$LN13@MaverickMo:

; 685  : 				}
; 686  : 				missileWEZDisplayRange = max(missileWEZDisplayRange, missileWEZmin);

	mov	eax, DWORD PTR _this$[ebp]
	movss	xmm0, DWORD PTR [eax+312]
	mov	ecx, DWORD PTR _this$[ebp]
	comiss	xmm0, DWORD PTR [ecx+320]
	jbe	SHORT $LN109@MaverickMo
	mov	edx, DWORD PTR _this$[ebp]
	movss	xmm0, DWORD PTR [edx+312]
	movss	DWORD PTR tv2182[ebp], xmm0
	jmp	SHORT $LN110@MaverickMo
$LN109@MaverickMo:
	mov	eax, DWORD PTR _this$[ebp]
	movss	xmm0, DWORD PTR [eax+320]
	movss	DWORD PTR tv2182[ebp], xmm0
$LN110@MaverickMo:
	mov	ecx, DWORD PTR _this$[ebp]
	movss	xmm0, DWORD PTR tv2182[ebp]
	movss	DWORD PTR [ecx+312], xmm0

; 687  : 			}
; 688  : 			else

	jmp	SHORT $LN12@MaverickMo
$LN23@MaverickMo:

; 689  : 				missileWEZDisplayRange = 20.0F * NM_TO_FT;

	mov	edx, DWORD PTR _this$[ebp]
	movss	xmm0, DWORD PTR __real@47ed5a1c
	movss	DWORD PTR [edx+312], xmm0
$LN12@MaverickMo:

; 690  : 			theDisplay->SetTarget(TRUE);

	push	1
	mov	ecx, DWORD PTR _theDisplay$[ebp]
	call	?SetTarget@MaverickDisplayClass@@QAEXH@Z ; MaverickDisplayClass::SetTarget

; 691  :             missileTOF = theMissile->GetTOF(-platform->ZPos(), platform->GetVt(), 0.0f, 0.0f, targetPtr->localData->range);

	mov	eax, DWORD PTR _this$[ebp]
	mov	ecx, DWORD PTR [eax+132]
	mov	edx, DWORD PTR [ecx+12]
	push	ecx
	movss	xmm0, DWORD PTR [edx+44]
	movss	DWORD PTR [esp], xmm0
	push	ecx
	movss	xmm0, DWORD PTR __real@00000000
	movss	DWORD PTR [esp], xmm0
	push	ecx
	movss	xmm0, DWORD PTR __real@00000000
	movss	DWORD PTR [esp], xmm0
	mov	eax, DWORD PTR _this$[ebp]
	mov	ecx, DWORD PTR [eax+140]
	mov	edx, DWORD PTR _this$[ebp]
	mov	eax, DWORD PTR [ecx]
	mov	ecx, DWORD PTR [edx+140]
	mov	edx, DWORD PTR [eax+220]
	call	edx
	push	ecx
	fstp	DWORD PTR [esp]
	mov	eax, DWORD PTR _this$[ebp]
	mov	ecx, DWORD PTR [eax+140]
	call	?ZPos@VuEntity@@QBEMXZ			; VuEntity::ZPos
	fstp	DWORD PTR tv3805[ebp]
	movss	xmm0, DWORD PTR tv3805[ebp]
	xorps	xmm0, DWORD PTR __xmm@80000000800000008000000080000000
	push	ecx
	movss	DWORD PTR [esp], xmm0
	mov	ecx, DWORD PTR _theMissile$[ebp]
	call	?GetTOF@MissileClass@@QAEMMMMMM@Z	; MissileClass::GetTOF
	mov	ecx, DWORD PTR _this$[ebp]
	fstp	DWORD PTR [ecx+232]

; 692  : 		}
; 693  : 
; 694  :          else

	jmp	$LN11@MaverickMo
$LN24@MaverickMo:

; 695  :          {
; 696  : 			float range = (float)sqrt(groundDesignateX*groundDesignateX + groundDesignateY*groundDesignateY);

	mov	edx, DWORD PTR _this$[ebp]
	mov	eax, DWORD PTR _this$[ebp]
	movss	xmm0, DWORD PTR [edx+376]
	mulss	xmm0, DWORD PTR [eax+376]
	mov	ecx, DWORD PTR _this$[ebp]
	mov	edx, DWORD PTR _this$[ebp]
	movss	xmm1, DWORD PTR [ecx+380]
	mulss	xmm1, DWORD PTR [edx+380]
	addss	xmm0, xmm1
	push	ecx
	movss	DWORD PTR [esp], xmm0
	call	?SqrtSSE@@YAMM@Z			; SqrtSSE
	add	esp, 4
	fstp	DWORD PTR _range$1[ebp]

; 697  : 
; 698  :             theDisplay->SetTarget(FALSE);

	push	0
	mov	ecx, DWORD PTR _theDisplay$[ebp]
	call	?SetTarget@MaverickDisplayClass@@QAEXH@Z ; MaverickDisplayClass::SetTarget

; 699  :             missileTOF    = theMissile->GetTOF(-platform->ZPos(), platform->GetVt(), 0.0f, 0.0f, range);

	push	ecx
	movss	xmm0, DWORD PTR _range$1[ebp]
	movss	DWORD PTR [esp], xmm0
	push	ecx
	movss	xmm0, DWORD PTR __real@00000000
	movss	DWORD PTR [esp], xmm0
	push	ecx
	movss	xmm0, DWORD PTR __real@00000000
	movss	DWORD PTR [esp], xmm0
	mov	eax, DWORD PTR _this$[ebp]
	mov	ecx, DWORD PTR [eax+140]
	mov	edx, DWORD PTR _this$[ebp]
	mov	eax, DWORD PTR [ecx]
	mov	ecx, DWORD PTR [edx+140]
	mov	edx, DWORD PTR [eax+220]
	call	edx
	push	ecx
	fstp	DWORD PTR [esp]
	mov	eax, DWORD PTR _this$[ebp]
	mov	ecx, DWORD PTR [eax+140]
	call	?ZPos@VuEntity@@QBEMXZ			; VuEntity::ZPos
	fstp	DWORD PTR tv3836[ebp]
	movss	xmm0, DWORD PTR tv3836[ebp]
	xorps	xmm0, DWORD PTR __xmm@80000000800000008000000080000000
	push	ecx
	movss	DWORD PTR [esp], xmm0
	mov	ecx, DWORD PTR _theMissile$[ebp]
	call	?GetTOF@MissileClass@@QAEMMMMMM@Z	; MissileClass::GetTOF
	mov	ecx, DWORD PTR _this$[ebp]
	fstp	DWORD PTR [ecx+232]
$LN11@MaverickMo:

; 700  :          }
; 701  :       }
; 702  : 
; 703  :    }
; 704  :    else

	jmp	SHORT $LN10@MaverickMo
$LN92@MaverickMo:

; 705  :    {
; 706  :       if (subMode != SLAVE)

	mov	edx, DWORD PTR _this$[ebp]
	cmp	DWORD PTR [edx+148], 15			; 0000000fH
	je	SHORT $LN9@MaverickMo

; 707  :          platform->SOIManager (SimVehicleClass::SOI_HUD);

	push	0
	mov	eax, DWORD PTR _this$[ebp]
	mov	ecx, DWORD PTR [eax+140]
	call	?SOIManager@SimVehicleClass@@QAEXW4SOI@1@@Z ; SimVehicleClass::SOIManager

; 708  :       else

	jmp	SHORT $LN8@MaverickMo
$LN9@MaverickMo:

; 709  :          platform->SOIManager (SimVehicleClass::SOI_RADAR);

	push	1
	mov	ecx, DWORD PTR _this$[ebp]
	mov	ecx, DWORD PTR [ecx+140]
	call	?SOIManager@SimVehicleClass@@QAEXW4SOI@1@@Z ; SimVehicleClass::SOIManager
$LN8@MaverickMo:

; 710  :       ClearCurrentTarget();

	mov	ecx, DWORD PTR _this$[ebp]
	call	?ClearCurrentTarget@FireControlComputer@@QAEXXZ ; FireControlComputer::ClearCurrentTarget

; 711  :       missileTarget = FALSE;

	mov	edx, DWORD PTR _this$[ebp]
	mov	BYTE PTR [edx+192], 0
$LN10@MaverickMo:

; 712  :    }
; 713  : 
; 714  :    if (!releaseConsent)

	mov	eax, DWORD PTR _this$[ebp]
	movsx	ecx, BYTE PTR [eax+181]
	test	ecx, ecx
	jne	SHORT $LN7@MaverickMo

; 715  :    {
; 716  :       postDrop = FALSE;

	mov	edx, DWORD PTR _this$[ebp]
	mov	BYTE PTR [edx+183], 0
$LN7@MaverickMo:

; 717  :    }
; 718  : 
; 719  :    // edg: sigh.  The data is ALL WRONG for AGM missiles.  Just stuff
; 720  :    // some sane data for now
; 721  :    // RV - Biker - Why all data is wrong??? Data can be fixed easier
; 722  :    //missileRMax = 8.0f * NM_TO_FT;
; 723  :    if (targetPtr)

	mov	eax, DWORD PTR _this$[ebp]
	cmp	DWORD PTR [eax+132], 0
	je	$LN6@MaverickMo

; 724  : 		missileRMax   = theMissile->GetRMax (-platform->ZPos(), platform->GetVt(), targetPtr->localData->az, 0.0f, 0.0f);

	push	ecx
	movss	xmm0, DWORD PTR __real@00000000
	movss	DWORD PTR [esp], xmm0
	push	ecx
	movss	xmm0, DWORD PTR __real@00000000
	movss	DWORD PTR [esp], xmm0
	mov	ecx, DWORD PTR _this$[ebp]
	mov	edx, DWORD PTR [ecx+132]
	mov	eax, DWORD PTR [edx+12]
	push	ecx
	movss	xmm0, DWORD PTR [eax+16]
	movss	DWORD PTR [esp], xmm0
	mov	ecx, DWORD PTR _this$[ebp]
	mov	edx, DWORD PTR [ecx+140]
	mov	eax, DWORD PTR _this$[ebp]
	mov	edx, DWORD PTR [edx]
	mov	ecx, DWORD PTR [eax+140]
	mov	eax, DWORD PTR [edx+220]
	call	eax
	push	ecx
	fstp	DWORD PTR [esp]
	mov	ecx, DWORD PTR _this$[ebp]
	mov	ecx, DWORD PTR [ecx+140]
	call	?ZPos@VuEntity@@QBEMXZ			; VuEntity::ZPos
	fstp	DWORD PTR tv3866[ebp]
	movss	xmm0, DWORD PTR tv3866[ebp]
	xorps	xmm0, DWORD PTR __xmm@80000000800000008000000080000000
	push	ecx
	movss	DWORD PTR [esp], xmm0
	mov	ecx, DWORD PTR _theMissile$[ebp]
	call	?GetRMax@MissileClass@@QAEMMMMMM@Z	; MissileClass::GetRMax
	mov	edx, DWORD PTR _this$[ebp]
	fstp	DWORD PTR [edx+288]

; 725  :    else

	jmp	SHORT $LN5@MaverickMo
$LN6@MaverickMo:

; 726  : 		missileRMax = 8.0f * NM_TO_FT;

	mov	eax, DWORD PTR _this$[ebp]
	movss	xmm0, DWORD PTR __real@473de1b0
	movss	DWORD PTR [eax+288], xmm0
$LN5@MaverickMo:

; 727  : 		
; 728  :    missileRMin   = 0.075F * missileRMax;

	mov	ecx, DWORD PTR _this$[ebp]
	movss	xmm0, DWORD PTR __real@3d99999a
	mulss	xmm0, DWORD PTR [ecx+288]
	mov	edx, DWORD PTR _this$[ebp]
	movss	DWORD PTR [edx+292], xmm0

; 729  :    missileRneMax = 0.8F * missileRMax;

	mov	eax, DWORD PTR _this$[ebp]
	movss	xmm0, DWORD PTR __real@3f4ccccd
	mulss	xmm0, DWORD PTR [eax+288]
	mov	ecx, DWORD PTR _this$[ebp]
	movss	DWORD PTR [ecx+296], xmm0

; 730  :    missileRneMin = 0.2F * missileRMax;

	mov	edx, DWORD PTR _this$[ebp]
	movss	xmm0, DWORD PTR __real@3e4ccccd
	mulss	xmm0, DWORD PTR [edx+288]
	mov	eax, DWORD PTR _this$[ebp]
	movss	DWORD PTR [eax+300], xmm0

; 731  : 
; 732  :    // Stuff some dummy data...
; 733  :    missileActiveRange = 0.0F;

	mov	ecx, DWORD PTR _this$[ebp]
	movss	xmm0, DWORD PTR __real@00000000
	movss	DWORD PTR [ecx+284], xmm0

; 734  :    missileActiveTime = -1.0F;

	mov	edx, DWORD PTR _this$[ebp]
	movss	xmm0, DWORD PTR __real@bf800000
	movss	DWORD PTR [edx+280], xmm0

; 735  :    missileSeekerAz = 0.0F;

	mov	eax, DWORD PTR _this$[ebp]
	movss	xmm0, DWORD PTR __real@00000000
	movss	DWORD PTR [eax+304], xmm0

; 736  :    missileSeekerEl = 0.0F;

	mov	ecx, DWORD PTR _this$[ebp]
	movss	xmm0, DWORD PTR __real@00000000
	movss	DWORD PTR [ecx+308], xmm0

; 737  : 
; 738  :    //MI
; 739  :    MissileClass *curWeapon = NULL;

	mov	DWORD PTR _curWeapon$[ebp], 0

; 740  :    curWeapon = ((MissileClass*)Sms->GetCurrentWeapon());

	mov	edx, DWORD PTR _this$[ebp]
	mov	eax, DWORD PTR [edx+408]
	mov	ecx, DWORD PTR _this$[ebp]
	mov	edx, DWORD PTR [eax]
	mov	ecx, DWORD PTR [ecx+408]
	mov	eax, DWORD PTR [edx+12]
	call	eax
	mov	DWORD PTR _curWeapon$[ebp], eax

; 741  : 	if(g_bRealisticAvionics && Sms && playerFCC)

	movzx	ecx, BYTE PTR ?g_bRealisticAvionics@@3_NA ; g_bRealisticAvionics
	test	ecx, ecx
	je	$LN3@MaverickMo
	mov	edx, DWORD PTR _this$[ebp]
	cmp	DWORD PTR [edx+408], 0
	je	$LN3@MaverickMo
	mov	eax, DWORD PTR _this$[ebp]
	cmp	DWORD PTR [eax+92], 0
	je	$LN3@MaverickMo

; 742  : 	{
; 743  : 		AircraftClass *pa = (AircraftClass *)curWeapon->parent.get();

	mov	ecx, DWORD PTR _curWeapon$[ebp]
	add	ecx, 688				; 000002b0H
	call	?get@?$VuBin@VFalconEntity@@@@QBEPAVFalconEntity@@XZ ; VuBin<FalconEntity>::get
	mov	DWORD PTR _pa$4[ebp], eax

; 744  : 		if(
; 745  : 			curWeapon && 
; 746  : 			(curWeapon->parent &&
; 747  : 			pa->IsPlayer() &&
; 748  : 			!(pa->AutopilotType() == AircraftClass::CombatAP) &&
; 749  : 			(curWeapon->Covered || !Sms->Powered))
; 750  : 		){

	cmp	DWORD PTR _curWeapon$[ebp], 0
	je	SHORT $LN3@MaverickMo
	mov	ecx, DWORD PTR _curWeapon$[ebp]
	add	ecx, 688				; 000002b0H
	call	??B?$VuBin@VFalconEntity@@@@QBE_NXZ	; VuBin<FalconEntity>::operator bool
	movzx	ecx, al
	test	ecx, ecx
	je	SHORT $LN3@MaverickMo
	mov	ecx, DWORD PTR _pa$4[ebp]
	call	?IsPlayer@FalconEntity@@QAEHXZ		; FalconEntity::IsPlayer
	test	eax, eax
	je	SHORT $LN3@MaverickMo
	mov	ecx, DWORD PTR _pa$4[ebp]
	call	?AutopilotType@AircraftClass@@QAE?AW4AutoPilotType@1@XZ ; AircraftClass::AutopilotType
	cmp	eax, 2
	je	SHORT $LN3@MaverickMo
	mov	edx, DWORD PTR _curWeapon$[ebp]
	movzx	eax, BYTE PTR [edx+812]
	test	eax, eax
	jne	SHORT $LN2@MaverickMo
	mov	ecx, DWORD PTR _this$[ebp]
	mov	edx, DWORD PTR [ecx+408]
	movzx	eax, BYTE PTR [edx+16]
	test	eax, eax
	jne	SHORT $LN3@MaverickMo
$LN2@MaverickMo:

; 751  : 			missileTarget = FALSE;

	mov	ecx, DWORD PTR _this$[ebp]
	mov	BYTE PTR [ecx+192], 0

; 752  : 			ClearCurrentTarget();

	mov	ecx, DWORD PTR _this$[ebp]
	call	?ClearCurrentTarget@FireControlComputer@@QAEXXZ ; FireControlComputer::ClearCurrentTarget

; 753  : 			if(theDisplay){ theDisplay->DropTarget(); }

	cmp	DWORD PTR _theDisplay$[ebp], 0
	je	SHORT $LN1@MaverickMo
	mov	ecx, DWORD PTR _theDisplay$[ebp]
	call	?DropTarget@MaverickDisplayClass@@QAEXXZ ; MaverickDisplayClass::DropTarget
$LN1@MaverickMo:

; 754  : 			theMissile->SetTarget(NULL);

	push	0
	mov	ecx, DWORD PTR _theMissile$[ebp]
	call	?SetTarget@MissileClass@@QAEXPAVSimObjectType@@@Z ; MissileClass::SetTarget
$LN3@MaverickMo:
$LN103@MaverickMo:

; 755  : 		}
; 756  : 	}
; 757  : }

	pop	esi
	mov	esp, ebp
	pop	ebp
	ret	0
?MaverickMode@FireControlComputer@@AAEXXZ ENDP		; FireControlComputer::MaverickMode
_TEXT	ENDS
; Function compile flags: /Odtp
; File c:\users\zhitao li\documents\visual studio 2012\projects\freefalcon\sim\fcc\mavfcc.cpp
_TEXT	SEGMENT
tv66 = -8						; size = 4
_this$ = -4						; size = 4
?AirGroundMissileMode@FireControlComputer@@AAEXXZ PROC	; FireControlComputer::AirGroundMissileMode
; _this$ = ecx

; 32   : {

	push	ebp
	mov	ebp, esp
	sub	esp, 8
	mov	DWORD PTR _this$[ebp], ecx

; 33   :    switch (Sms->curWeaponType)

	mov	eax, DWORD PTR _this$[ebp]
	mov	ecx, DWORD PTR [eax+408]
	mov	edx, DWORD PTR [ecx+148]
	mov	DWORD PTR tv66[ebp], edx
	cmp	DWORD PTR tv66[ebp], 3
	je	SHORT $LN6@AirGroundM
	cmp	DWORD PTR tv66[ebp], 4
	je	SHORT $LN5@AirGroundM
	jmp	SHORT $LN4@AirGroundM
$LN6@AirGroundM:

; 34   :    {
; 35   :       case wtAgm88:
; 36   :          HarmMode();

	mov	ecx, DWORD PTR _this$[ebp]
	call	?HarmMode@FireControlComputer@@AAEXXZ	; FireControlComputer::HarmMode

; 37   :       break;

	jmp	$LN7@AirGroundM
$LN5@AirGroundM:

; 38   : 
; 39   :       case wtAgm65:
; 40   :          MaverickMode();

	mov	ecx, DWORD PTR _this$[ebp]
	call	?MaverickMode@FireControlComputer@@AAEXXZ ; FireControlComputer::MaverickMode

; 41   :       break;

	jmp	$LN7@AirGroundM
$LN4@AirGroundM:

; 42   : 
; 43   :       default:
; 44   :          if (!releaseConsent)

	mov	eax, DWORD PTR _this$[ebp]
	movsx	ecx, BYTE PTR [eax+181]
	test	ecx, ecx
	jne	$LN3@AirGroundM

; 45   :          {
; 46   :             // Check for regeneration of weapon
; 47   :             if (postDrop && Sms->curWeapon == NULL)

	mov	edx, DWORD PTR _this$[ebp]
	movsx	eax, BYTE PTR [edx+183]
	test	eax, eax
	je	SHORT $LN2@AirGroundM
	mov	ecx, DWORD PTR _this$[ebp]
	mov	ecx, DWORD PTR [ecx+408]
	add	ecx, 164				; 000000a4H
	call	??B?$VuBin@VSimWeaponClass@@@@QBE_NXZ	; VuBin<SimWeaponClass>::operator bool
	movzx	edx, al
	test	edx, edx
	jne	SHORT $LN2@AirGroundM

; 48   :             {
; 49   :                Sms->ResetCurrentWeapon();

	mov	eax, DWORD PTR _this$[ebp]
	mov	ecx, DWORD PTR [eax+408]
	call	?ResetCurrentWeapon@SMSClass@@QAEXXZ	; SMSClass::ResetCurrentWeapon

; 50   :                Sms->WeaponStep();

	push	0
	mov	ecx, DWORD PTR _this$[ebp]
	mov	ecx, DWORD PTR [ecx+408]
	call	?WeaponStep@SMSClass@@QAEHH@Z		; SMSClass::WeaponStep

; 51   :                if (Sms->curWeapon)

	mov	edx, DWORD PTR _this$[ebp]
	mov	ecx, DWORD PTR [edx+408]
	add	ecx, 164				; 000000a4H
	call	??B?$VuBin@VSimWeaponClass@@@@QBE_NXZ	; VuBin<SimWeaponClass>::operator bool
	movzx	eax, al
	test	eax, eax
	je	SHORT $LN1@AirGroundM

; 52   :                {
; 53   :                   platform->SOIManager (SimVehicleClass::SOI_WEAPON);

	push	2
	mov	ecx, DWORD PTR _this$[ebp]
	mov	ecx, DWORD PTR [ecx+140]
	call	?SOIManager@SimVehicleClass@@QAEXW4SOI@1@@Z ; SimVehicleClass::SOIManager
$LN1@AirGroundM:

; 54   :                }
; 55   :                ClearCurrentTarget();

	mov	ecx, DWORD PTR _this$[ebp]
	call	?ClearCurrentTarget@FireControlComputer@@QAEXXZ ; FireControlComputer::ClearCurrentTarget
$LN2@AirGroundM:

; 56   :             }
; 57   :             postDrop = FALSE;

	mov	edx, DWORD PTR _this$[ebp]
	mov	BYTE PTR [edx+183], 0
$LN3@AirGroundM:

; 58   :          }
; 59   : 
; 60   :          missileTOF = 0.0F;

	mov	eax, DWORD PTR _this$[ebp]
	movss	xmm0, DWORD PTR __real@00000000
	movss	DWORD PTR [eax+232], xmm0

; 61   :          missileActiveRange = 0.0F;

	mov	ecx, DWORD PTR _this$[ebp]
	movss	xmm0, DWORD PTR __real@00000000
	movss	DWORD PTR [ecx+284], xmm0

; 62   :          missileActiveTime = -1.0F;

	mov	edx, DWORD PTR _this$[ebp]
	movss	xmm0, DWORD PTR __real@bf800000
	movss	DWORD PTR [edx+280], xmm0

; 63   :          missileSeekerAz = 0.0F;

	mov	eax, DWORD PTR _this$[ebp]
	movss	xmm0, DWORD PTR __real@00000000
	movss	DWORD PTR [eax+304], xmm0

; 64   :          missileSeekerEl = 0.0F;

	mov	ecx, DWORD PTR _this$[ebp]
	movss	xmm0, DWORD PTR __real@00000000
	movss	DWORD PTR [ecx+308], xmm0

; 65   :          //LRKLUDGE
; 66   :          missileRMax   = 10000.0F;

	mov	edx, DWORD PTR _this$[ebp]
	movss	xmm0, DWORD PTR __real@461c4000
	movss	DWORD PTR [edx+288], xmm0

; 67   :          missileRMin   = 0.075F * missileRMax;

	mov	eax, DWORD PTR _this$[ebp]
	movss	xmm0, DWORD PTR __real@3d99999a
	mulss	xmm0, DWORD PTR [eax+288]
	mov	ecx, DWORD PTR _this$[ebp]
	movss	DWORD PTR [ecx+292], xmm0

; 68   :          missileRneMax = 0.8F * missileRMax;

	mov	edx, DWORD PTR _this$[ebp]
	movss	xmm0, DWORD PTR __real@3f4ccccd
	mulss	xmm0, DWORD PTR [edx+288]
	mov	eax, DWORD PTR _this$[ebp]
	movss	DWORD PTR [eax+296], xmm0

; 69   :          missileRneMin = 0.2F * missileRMax;

	mov	ecx, DWORD PTR _this$[ebp]
	movss	xmm0, DWORD PTR __real@3e4ccccd
	mulss	xmm0, DWORD PTR [ecx+288]
	mov	edx, DWORD PTR _this$[ebp]
	movss	DWORD PTR [edx+300], xmm0
$LN7@AirGroundM:

; 70   :       break;
; 71   :    }
; 72   : }

	mov	esp, ebp
	pop	ebp
	ret	0
?AirGroundMissileMode@FireControlComputer@@AAEXXZ ENDP	; FireControlComputer::AirGroundMissileMode
_TEXT	ENDS
; Function compile flags: /Odtp
; File c:\users\zhitao li\documents\visual studio 2012\projects\freefalcon\vu2\include\vu_templates.h
;	COMDAT ?get@?$VuBin@VFalconEntity@@@@QBEPAVFalconEntity@@XZ
_TEXT	SEGMENT
_this$ = -4						; size = 4
?get@?$VuBin@VFalconEntity@@@@QBEPAVFalconEntity@@XZ PROC ; VuBin<FalconEntity>::get, COMDAT
; _this$ = ecx

; 55   : 	E *get() const{

	push	ebp
	mov	ebp, esp
	push	ecx
	mov	DWORD PTR _this$[ebp], ecx

; 56   : 		return e;

	mov	eax, DWORD PTR _this$[ebp]
	mov	eax, DWORD PTR [eax]

; 57   : 	}

	mov	esp, ebp
	pop	ebp
	ret	0
?get@?$VuBin@VFalconEntity@@@@QBEPAVFalconEntity@@XZ ENDP ; VuBin<FalconEntity>::get
_TEXT	ENDS
; Function compile flags: /Odtp
; File c:\users\zhitao li\documents\visual studio 2012\projects\freefalcon\vu2\include\vu_templates.h
;	COMDAT ??B?$VuBin@VFalconEntity@@@@QBE_NXZ
_TEXT	SEGMENT
_this$ = -8						; size = 4
tv66 = -4						; size = 4
??B?$VuBin@VFalconEntity@@@@QBE_NXZ PROC		; VuBin<FalconEntity>::operator bool, COMDAT
; _this$ = ecx

; 40   : 	operator bool() const{

	push	ebp
	mov	ebp, esp
	sub	esp, 8
	mov	DWORD PTR _this$[ebp], ecx

; 41   : 		return e != NULL;

	mov	eax, DWORD PTR _this$[ebp]
	cmp	DWORD PTR [eax], 0
	je	SHORT $LN3@operator
	mov	DWORD PTR tv66[ebp], 1
	jmp	SHORT $LN4@operator
$LN3@operator:
	mov	DWORD PTR tv66[ebp], 0
$LN4@operator:
	mov	al, BYTE PTR tv66[ebp]

; 42   : 	}

	mov	esp, ebp
	pop	ebp
	ret	0
??B?$VuBin@VFalconEntity@@@@QBE_NXZ ENDP		; VuBin<FalconEntity>::operator bool
_TEXT	ENDS
; Function compile flags: /Odtp
; File c:\users\zhitao li\documents\visual studio 2012\projects\freefalcon\vu2\include\vu_templates.h
;	COMDAT ??B?$VuBin@VSimWeaponClass@@@@QBE_NXZ
_TEXT	SEGMENT
_this$ = -8						; size = 4
tv66 = -4						; size = 4
??B?$VuBin@VSimWeaponClass@@@@QBE_NXZ PROC		; VuBin<SimWeaponClass>::operator bool, COMDAT
; _this$ = ecx

; 40   : 	operator bool() const{

	push	ebp
	mov	ebp, esp
	sub	esp, 8
	mov	DWORD PTR _this$[ebp], ecx

; 41   : 		return e != NULL;

	mov	eax, DWORD PTR _this$[ebp]
	cmp	DWORD PTR [eax], 0
	je	SHORT $LN3@operator
	mov	DWORD PTR tv66[ebp], 1
	jmp	SHORT $LN4@operator
$LN3@operator:
	mov	DWORD PTR tv66[ebp], 0
$LN4@operator:
	mov	al, BYTE PTR tv66[ebp]

; 42   : 	}

	mov	esp, ebp
	pop	ebp
	ret	0
??B?$VuBin@VSimWeaponClass@@@@QBE_NXZ ENDP		; VuBin<SimWeaponClass>::operator bool
_TEXT	ENDS
; Function compile flags: /Odtp
; File c:\users\zhitao li\documents\visual studio 2012\projects\freefalcon\sim\include\sensclas.h
;	COMDAT ?SeekerEl@SensorClass@@QAEMXZ
_TEXT	SEGMENT
_this$ = -4						; size = 4
?SeekerEl@SensorClass@@QAEMXZ PROC			; SensorClass::SeekerEl, COMDAT
; _this$ = ecx

; 57   : 	float			SeekerEl(void)							{ return seekerElCenter; }

	push	ebp
	mov	ebp, esp
	push	ecx
	mov	DWORD PTR _this$[ebp], ecx
	mov	eax, DWORD PTR _this$[ebp]
	fld	DWORD PTR [eax+60]
	mov	esp, ebp
	pop	ebp
	ret	0
?SeekerEl@SensorClass@@QAEMXZ ENDP			; SensorClass::SeekerEl
_TEXT	ENDS
; Function compile flags: /Odtp
; File c:\users\zhitao li\documents\visual studio 2012\projects\freefalcon\sim\include\sensclas.h
;	COMDAT ?SeekerAz@SensorClass@@QAEMXZ
_TEXT	SEGMENT
_this$ = -4						; size = 4
?SeekerAz@SensorClass@@QAEMXZ PROC			; SensorClass::SeekerAz, COMDAT
; _this$ = ecx

; 56   : 	float			SeekerAz(void)                          { return seekerAzCenter; }

	push	ebp
	mov	ebp, esp
	push	ecx
	mov	DWORD PTR _this$[ebp], ecx
	mov	eax, DWORD PTR _this$[ebp]
	fld	DWORD PTR [eax+56]
	mov	esp, ebp
	pop	ebp
	ret	0
?SeekerAz@SensorClass@@QAEMXZ ENDP			; SensorClass::SeekerAz
_TEXT	ENDS
; Function compile flags: /Odtp
; File c:\users\zhitao li\documents\visual studio 2012\projects\freefalcon\sim\include\sensclas.h
;	COMDAT ?CurrentTarget@SensorClass@@QAEPAVSimObjectType@@XZ
_TEXT	SEGMENT
_this$ = -4						; size = 4
?CurrentTarget@SensorClass@@QAEPAVSimObjectType@@XZ PROC ; SensorClass::CurrentTarget, COMDAT
; _this$ = ecx

; 46   : 	SimObjectType* CurrentTarget(void)	{ return lockedTarget; };

	push	ebp
	mov	ebp, esp
	push	ecx
	mov	DWORD PTR _this$[ebp], ecx
	mov	eax, DWORD PTR _this$[ebp]
	mov	eax, DWORD PTR [eax+48]
	mov	esp, ebp
	pop	ebp
	ret	0
?CurrentTarget@SensorClass@@QAEPAVSimObjectType@@XZ ENDP ; SensorClass::CurrentTarget
_TEXT	ENDS
; Function compile flags: /Odtp
; File c:\users\zhitao li\documents\visual studio 2012\projects\freefalcon\falclib\include\mltrig.h
;	COMDAT ?checked_atan2@@YANNN@Z
_TEXT	SEGMENT
_z$ = -8						; size = 8
_y$ = 8							; size = 8
_x$ = 16						; size = 8
?checked_atan2@@YANNN@Z PROC				; checked_atan2, COMDAT

; 46   : {

	push	ebp
	mov	ebp, esp
	sub	esp, 8

; 47   : 	double z;
; 48   : 	
; 49   : 	if (x == -0.0)

	movsd	xmm0, QWORD PTR _x$[ebp]
	ucomisd	xmm0, QWORD PTR __real@8000000000000000
	lahf
	test	ah, 68					; 00000044H
	jp	SHORT $LN8@checked_at

; 50   : 		x = 0.0;

	movsd	xmm0, QWORD PTR __real@0000000000000000
	movsd	QWORD PTR _x$[ebp], xmm0
$LN8@checked_at:

; 51   : 	
; 52   : 	if (x != 0)

	movsd	xmm0, QWORD PTR _x$[ebp]
	ucomisd	xmm0, QWORD PTR __real@0000000000000000
	lahf
	test	ah, 68					; 00000044H
	jnp	SHORT $LN7@checked_at

; 53   : 		z = atan(y / x);

	movsd	xmm0, QWORD PTR _y$[ebp]
	divsd	xmm0, QWORD PTR _x$[ebp]
	sub	esp, 8
	movsd	QWORD PTR [esp], xmm0
	call	_atan
	add	esp, 8
	fstp	QWORD PTR _z$[ebp]
	jmp	SHORT $LN4@checked_at
$LN7@checked_at:

; 54   : 	else if (y > 0)

	movsd	xmm0, QWORD PTR _y$[ebp]
	comisd	xmm0, QWORD PTR __real@0000000000000000
	jbe	SHORT $LN5@checked_at

; 55   : 		z = HALF_DPI;

	movsd	xmm0, QWORD PTR __real@3ff921fb54442d18
	movsd	QWORD PTR _z$[ebp], xmm0

; 56   : 	else

	jmp	SHORT $LN4@checked_at
$LN5@checked_at:

; 57   : 		z = -HALF_DPI;

	movsd	xmm0, QWORD PTR __real@bff921fb54442d18
	movsd	QWORD PTR _z$[ebp], xmm0
$LN4@checked_at:

; 58   : 
; 59   : 	if (x < 0)

	movsd	xmm0, QWORD PTR __real@0000000000000000
	comisd	xmm0, QWORD PTR _x$[ebp]
	jbe	SHORT $LN1@checked_at

; 60   : 	{
; 61   : 		if (y < 0)

	movsd	xmm0, QWORD PTR __real@0000000000000000
	comisd	xmm0, QWORD PTR _y$[ebp]
	jbe	SHORT $LN2@checked_at

; 62   : 			z -= DPI;

	movsd	xmm0, QWORD PTR _z$[ebp]
	subsd	xmm0, QWORD PTR __real@400921fb54442d18
	movsd	QWORD PTR _z$[ebp], xmm0

; 63   : 		else

	jmp	SHORT $LN1@checked_at
$LN2@checked_at:

; 64   : 			z += DPI;

	movsd	xmm0, QWORD PTR _z$[ebp]
	addsd	xmm0, QWORD PTR __real@400921fb54442d18
	movsd	QWORD PTR _z$[ebp], xmm0
$LN1@checked_at:

; 65   : 	}
; 66   : 
; 67   : 	return z;

	fld	QWORD PTR _z$[ebp]

; 68   : }

	mov	esp, ebp
	pop	ebp
	ret	0
?checked_atan2@@YANNN@Z ENDP				; checked_atan2
_TEXT	ENDS
; Function compile flags: /Odtp
; File c:\users\zhitao li\documents\visual studio 2012\projects\freefalcon\falclib\include\mltrig.h
;	COMDAT ?mlSinCos@@YAXPAUmlTrig@@M@Z
_TEXT	SEGMENT
_trig$ = 8						; size = 4
_angle$ = 12						; size = 4
?mlSinCos@@YAXPAUmlTrig@@M@Z PROC			; mlSinCos, COMDAT

; 12   : {

	push	ebp
	mov	ebp, esp

; 13   : #if defined(_MSC_VER)
; 14   : 	__asm 
; 15   : 	{
; 16   : 		__asm	mov     ecx, trig;

	mov	ecx, DWORD PTR _trig$[ebp]

; 17   : 		__asm	fld     dword ptr [angle];

	fld	DWORD PTR _angle$[ebp]

; 18   : 		__asm	fsincos;

	fsincos

; 19   : 		__asm	fstp    dword ptr [ecx]trig.cos;

	fstp	DWORD PTR [ecx+4]

; 20   : 		__asm	fstp    dword ptr [ecx]trig.sin;

	fstp	DWORD PTR [ecx]

; 21   : 	}
; 22   : #else
; 23   : 	trig->sin = (Float32)sin(angle);
; 24   : 	trig->cos = (Float32)cos(angle);
; 25   : #endif
; 26   : }

	pop	ebp
	ret	0
?mlSinCos@@YAXPAUmlTrig@@M@Z ENDP			; mlSinCos
_TEXT	ENDS
; Function compile flags: /Odtp
; File c:\users\zhitao li\documents\visual studio 2012\projects\freefalcon\falclib\include\falcent.h
;	COMDAT ?IsPlayer@FalconEntity@@QAEHXZ
_TEXT	SEGMENT
_this$ = -4						; size = 4
?IsPlayer@FalconEntity@@QAEHXZ PROC			; FalconEntity::IsPlayer, COMDAT
; _this$ = ecx

; 113  : 	int IsPlayer (void)							{ return IsSetFalcFlag(FEC_HASPLAYERS); };

	push	ebp
	mov	ebp, esp
	push	ecx
	mov	DWORD PTR _this$[ebp], ecx
	push	4
	mov	ecx, DWORD PTR _this$[ebp]
	call	?IsSetFalcFlag@FalconEntity@@QAEHH@Z	; FalconEntity::IsSetFalcFlag
	mov	esp, ebp
	pop	ebp
	ret	0
?IsPlayer@FalconEntity@@QAEHXZ ENDP			; FalconEntity::IsPlayer
_TEXT	ENDS
; Function compile flags: /Odtp
; File c:\users\zhitao li\documents\visual studio 2012\projects\freefalcon\falclib\include\falcent.h
;	COMDAT ?IsSetFalcFlag@FalconEntity@@QAEHH@Z
_TEXT	SEGMENT
_this$ = -4						; size = 4
_flag$ = 8						; size = 4
?IsSetFalcFlag@FalconEntity@@QAEHH@Z PROC		; FalconEntity::IsSetFalcFlag, COMDAT
; _this$ = ecx

; 112  : 	int IsSetFalcFlag (int flag)				{ return falconFlags & flag; };

	push	ebp
	mov	ebp, esp
	push	ecx
	mov	DWORD PTR _this$[ebp], ecx
	mov	eax, DWORD PTR _this$[ebp]
	movzx	eax, BYTE PTR [eax+136]
	and	eax, DWORD PTR _flag$[ebp]
	mov	esp, ebp
	pop	ebp
	ret	4
?IsSetFalcFlag@FalconEntity@@QAEHH@Z ENDP		; FalconEntity::IsSetFalcFlag
_TEXT	ENDS
; Function compile flags: /Odtp
; File c:\users\zhitao li\documents\visual studio 2012\projects\freefalcon\falclib\include\falcent.h
;	COMDAT ?IsSimObjective@FalconEntity@@QAEHXZ
_TEXT	SEGMENT
_this$ = -8						; size = 4
tv68 = -4						; size = 4
?IsSimObjective@FalconEntity@@QAEHXZ PROC		; FalconEntity::IsSimObjective, COMDAT
; _this$ = ecx

; 105  : 		{return (falconType & FalconSimObjective) ? TRUE : FALSE;};

	push	ebp
	mov	ebp, esp
	sub	esp, 8
	mov	DWORD PTR _this$[ebp], ecx
	mov	eax, DWORD PTR _this$[ebp]
	movsx	ecx, BYTE PTR [eax+137]
	and	ecx, 32					; 00000020H
	je	SHORT $LN3@IsSimObjec
	mov	DWORD PTR tv68[ebp], 1
	jmp	SHORT $LN4@IsSimObjec
$LN3@IsSimObjec:
	mov	DWORD PTR tv68[ebp], 0
$LN4@IsSimObjec:
	mov	eax, DWORD PTR tv68[ebp]
	mov	esp, ebp
	pop	ebp
	ret	0
?IsSimObjective@FalconEntity@@QAEHXZ ENDP		; FalconEntity::IsSimObjective
_TEXT	ENDS
; Function compile flags: /Odtp
; File c:\users\zhitao li\documents\visual studio 2012\projects\freefalcon\falclib\include\falcent.h
;	COMDAT ?IsSim@FalconEntity@@QAEHXZ
_TEXT	SEGMENT
_this$ = -8						; size = 4
tv68 = -4						; size = 4
?IsSim@FalconEntity@@QAEHXZ PROC			; FalconEntity::IsSim, COMDAT
; _this$ = ecx

; 103  : 		{return (falconType & FalconSimEntity) ? TRUE : FALSE;};

	push	ebp
	mov	ebp, esp
	sub	esp, 8
	mov	DWORD PTR _this$[ebp], ecx
	mov	eax, DWORD PTR _this$[ebp]
	movsx	ecx, BYTE PTR [eax+137]
	and	ecx, 2
	je	SHORT $LN3@IsSim
	mov	DWORD PTR tv68[ebp], 1
	jmp	SHORT $LN4@IsSim
$LN3@IsSim:
	mov	DWORD PTR tv68[ebp], 0
$LN4@IsSim:
	mov	eax, DWORD PTR tv68[ebp]
	mov	esp, ebp
	pop	ebp
	ret	0
?IsSim@FalconEntity@@QAEHXZ ENDP			; FalconEntity::IsSim
_TEXT	ENDS
; Function compile flags: /Odtp
; File c:\users\zhitao li\documents\visual studio 2012\projects\freefalcon\vu2\include\vuentity.h
;	COMDAT ?Roll@VuEntity@@QBEMXZ
_TEXT	SEGMENT
_this$ = -4						; size = 4
?Roll@VuEntity@@QBEMXZ PROC				; VuEntity::Roll, COMDAT
; _this$ = ecx

; 166  : 	SM_SCALAR Roll() const { return orient_.roll_; }

	push	ebp
	mov	ebp, esp
	push	ecx
	mov	DWORD PTR _this$[ebp], ecx
	mov	eax, DWORD PTR _this$[ebp]
	fld	DWORD PTR [eax+68]
	mov	esp, ebp
	pop	ebp
	ret	0
?Roll@VuEntity@@QBEMXZ ENDP				; VuEntity::Roll
_TEXT	ENDS
; Function compile flags: /Odtp
; File c:\users\zhitao li\documents\visual studio 2012\projects\freefalcon\vu2\include\vuentity.h
;	COMDAT ?Pitch@VuEntity@@QBEMXZ
_TEXT	SEGMENT
_this$ = -4						; size = 4
?Pitch@VuEntity@@QBEMXZ PROC				; VuEntity::Pitch, COMDAT
; _this$ = ecx

; 165  : 	SM_SCALAR Pitch() const { return orient_.pitch_; }

	push	ebp
	mov	ebp, esp
	push	ecx
	mov	DWORD PTR _this$[ebp], ecx
	mov	eax, DWORD PTR _this$[ebp]
	fld	DWORD PTR [eax+64]
	mov	esp, ebp
	pop	ebp
	ret	0
?Pitch@VuEntity@@QBEMXZ ENDP				; VuEntity::Pitch
_TEXT	ENDS
; Function compile flags: /Odtp
; File c:\users\zhitao li\documents\visual studio 2012\projects\freefalcon\vu2\include\vuentity.h
;	COMDAT ?Yaw@VuEntity@@QBEMXZ
_TEXT	SEGMENT
_this$ = -4						; size = 4
?Yaw@VuEntity@@QBEMXZ PROC				; VuEntity::Yaw, COMDAT
; _this$ = ecx

; 164  : 	SM_SCALAR Yaw() const { return orient_.yaw_; }

	push	ebp
	mov	ebp, esp
	push	ecx
	mov	DWORD PTR _this$[ebp], ecx
	mov	eax, DWORD PTR _this$[ebp]
	fld	DWORD PTR [eax+60]
	mov	esp, ebp
	pop	ebp
	ret	0
?Yaw@VuEntity@@QBEMXZ ENDP				; VuEntity::Yaw
_TEXT	ENDS
; Function compile flags: /Odtp
; File c:\users\zhitao li\documents\visual studio 2012\projects\freefalcon\vu2\include\vuentity.h
;	COMDAT ?ZPos@VuEntity@@QBEMXZ
_TEXT	SEGMENT
_this$ = -4						; size = 4
?ZPos@VuEntity@@QBEMXZ PROC				; VuEntity::ZPos, COMDAT
; _this$ = ecx

; 160  : 	BIG_SCALAR ZPos()	const { return pos_.z_; }

	push	ebp
	mov	ebp, esp
	push	ecx
	mov	DWORD PTR _this$[ebp], ecx
	mov	eax, DWORD PTR _this$[ebp]
	fld	DWORD PTR [eax+44]
	mov	esp, ebp
	pop	ebp
	ret	0
?ZPos@VuEntity@@QBEMXZ ENDP				; VuEntity::ZPos
_TEXT	ENDS
; Function compile flags: /Odtp
; File c:\users\zhitao li\documents\visual studio 2012\projects\freefalcon\vu2\include\vuentity.h
;	COMDAT ?YPos@VuEntity@@QBEMXZ
_TEXT	SEGMENT
_this$ = -4						; size = 4
?YPos@VuEntity@@QBEMXZ PROC				; VuEntity::YPos, COMDAT
; _this$ = ecx

; 159  : 	BIG_SCALAR YPos()	const { return pos_.y_; }

	push	ebp
	mov	ebp, esp
	push	ecx
	mov	DWORD PTR _this$[ebp], ecx
	mov	eax, DWORD PTR _this$[ebp]
	fld	DWORD PTR [eax+40]
	mov	esp, ebp
	pop	ebp
	ret	0
?YPos@VuEntity@@QBEMXZ ENDP				; VuEntity::YPos
_TEXT	ENDS
; Function compile flags: /Odtp
; File c:\users\zhitao li\documents\visual studio 2012\projects\freefalcon\vu2\include\vuentity.h
;	COMDAT ?XPos@VuEntity@@QBEMXZ
_TEXT	SEGMENT
_this$ = -4						; size = 4
?XPos@VuEntity@@QBEMXZ PROC				; VuEntity::XPos, COMDAT
; _this$ = ecx

; 158  : 	BIG_SCALAR XPos() const { return pos_.x_; }

	push	ebp
	mov	ebp, esp
	push	ecx
	mov	DWORD PTR _this$[ebp], ecx
	mov	eax, DWORD PTR _this$[ebp]
	fld	DWORD PTR [eax+36]
	mov	esp, ebp
	pop	ebp
	ret	0
?XPos@VuEntity@@QBEMXZ ENDP				; VuEntity::XPos
_TEXT	ENDS
; Function compile flags: /Odtp
; File c:\users\zhitao li\documents\visual studio 2012\projects\freefalcon\vu2\include\vuentity.h
;	COMDAT ?SetYPR@VuEntity@@QAEXMMM@Z
_TEXT	SEGMENT
_this$ = -4						; size = 4
_yaw$ = 8						; size = 4
_pitch$ = 12						; size = 4
_roll$ = 16						; size = 4
?SetYPR@VuEntity@@QAEXMMM@Z PROC			; VuEntity::SetYPR, COMDAT
; _this$ = ecx

; 113  : 	void SetYPR(SM_SCALAR yaw, SM_SCALAR pitch, SM_SCALAR roll){ 

	push	ebp
	mov	ebp, esp
	push	ecx
	mov	DWORD PTR _this$[ebp], ecx

; 114  : 		orient_.yaw_ = yaw; orient_.pitch_ = pitch; orient_.roll_ = roll; 

	mov	eax, DWORD PTR _this$[ebp]
	movss	xmm0, DWORD PTR _yaw$[ebp]
	movss	DWORD PTR [eax+60], xmm0
	mov	ecx, DWORD PTR _this$[ebp]
	movss	xmm0, DWORD PTR _pitch$[ebp]
	movss	DWORD PTR [ecx+64], xmm0
	mov	edx, DWORD PTR _this$[ebp]
	movss	xmm0, DWORD PTR _roll$[ebp]
	movss	DWORD PTR [edx+68], xmm0

; 115  : 	}

	mov	esp, ebp
	pop	ebp
	ret	12					; 0000000cH
?SetYPR@VuEntity@@QAEXMMM@Z ENDP			; VuEntity::SetYPR
_TEXT	ENDS
; Function compile flags: /Odtp
;	COMDAT ??_G_System_error_category@std@@UAEPAXI@Z
_TEXT	SEGMENT
_this$ = -4						; size = 4
___flags$ = 8						; size = 4
??_G_System_error_category@std@@UAEPAXI@Z PROC		; std::_System_error_category::`scalar deleting destructor', COMDAT
; _this$ = ecx
	push	ebp
	mov	ebp, esp
	push	ecx
	mov	DWORD PTR _this$[ebp], ecx
	mov	ecx, DWORD PTR _this$[ebp]
	call	??1_System_error_category@std@@UAE@XZ
	mov	eax, DWORD PTR ___flags$[ebp]
	and	eax, 1
	je	SHORT $LN1@scalar
	mov	ecx, DWORD PTR _this$[ebp]
	push	ecx
	call	??3@YAXPAX@Z				; operator delete
	add	esp, 4
$LN1@scalar:
	mov	eax, DWORD PTR _this$[ebp]
	mov	esp, ebp
	pop	ebp
	ret	4
??_G_System_error_category@std@@UAEPAXI@Z ENDP		; std::_System_error_category::`scalar deleting destructor'
_TEXT	ENDS
; Function compile flags: /Odtp
;	COMDAT ??1_System_error_category@std@@UAE@XZ
_TEXT	SEGMENT
_this$ = -4						; size = 4
??1_System_error_category@std@@UAE@XZ PROC		; std::_System_error_category::~_System_error_category, COMDAT
; _this$ = ecx
	push	ebp
	mov	ebp, esp
	push	ecx
	mov	DWORD PTR _this$[ebp], ecx
	mov	ecx, DWORD PTR _this$[ebp]
	call	??1_Generic_error_category@std@@UAE@XZ
	mov	esp, ebp
	pop	ebp
	ret	0
??1_System_error_category@std@@UAE@XZ ENDP		; std::_System_error_category::~_System_error_category
_TEXT	ENDS
; Function compile flags: /Odtp
; File c:\program files (x86)\microsoft visual studio 11.0\vc\include\system_error
;	COMDAT ?default_error_condition@_System_error_category@std@@UBE?AVerror_condition@2@H@Z
_TEXT	SEGMENT
_this$ = -4						; size = 4
___$ReturnUdt$ = 8					; size = 4
__Errval$ = 12						; size = 4
?default_error_condition@_System_error_category@std@@UBE?AVerror_condition@2@H@Z PROC ; std::_System_error_category::default_error_condition, COMDAT
; _this$ = ecx

; 641  : 		{	// make error_condition for error code (generic if possible)

	push	ebp
	mov	ebp, esp
	push	ecx
	mov	DWORD PTR _this$[ebp], ecx

; 642  : 		if (_Syserror_map(_Errval))

	mov	eax, DWORD PTR __Errval$[ebp]
	push	eax
	call	?_Syserror_map@std@@YAPBDH@Z		; std::_Syserror_map
	add	esp, 4
	test	eax, eax
	je	SHORT $LN2@default_er

; 643  : 			return (error_condition(_Errval, generic_category()));

	call	?generic_category@std@@YAABVerror_category@1@XZ ; std::generic_category
	push	eax
	mov	ecx, DWORD PTR __Errval$[ebp]
	push	ecx
	mov	ecx, DWORD PTR ___$ReturnUdt$[ebp]
	call	??0error_condition@std@@QAE@HABVerror_category@1@@Z ; std::error_condition::error_condition
	mov	eax, DWORD PTR ___$ReturnUdt$[ebp]
	jmp	SHORT $LN3@default_er

; 644  : 		else

	jmp	SHORT $LN3@default_er
$LN2@default_er:

; 645  : 			return (error_condition(_Errval, system_category()));

	call	?system_category@std@@YAABVerror_category@1@XZ ; std::system_category
	push	eax
	mov	edx, DWORD PTR __Errval$[ebp]
	push	edx
	mov	ecx, DWORD PTR ___$ReturnUdt$[ebp]
	call	??0error_condition@std@@QAE@HABVerror_category@1@@Z ; std::error_condition::error_condition
	mov	eax, DWORD PTR ___$ReturnUdt$[ebp]
$LN3@default_er:

; 646  : 		}

	mov	esp, ebp
	pop	ebp
	ret	8
?default_error_condition@_System_error_category@std@@UBE?AVerror_condition@2@H@Z ENDP ; std::_System_error_category::default_error_condition
_TEXT	ENDS
; Function compile flags: /Odtp
; File c:\program files (x86)\microsoft visual studio 11.0\vc\include\system_error
;	COMDAT ?message@_System_error_category@std@@UBE?AV?$basic_string@DU?$char_traits@D@std@@V?$allocator@D@2@@2@H@Z
_TEXT	SEGMENT
_this$ = -16						; size = 4
$T1 = -12						; size = 4
tv69 = -8						; size = 4
__Name$ = -4						; size = 4
___$ReturnUdt$ = 8					; size = 4
__Errcode$ = 12						; size = 4
?message@_System_error_category@std@@UBE?AV?$basic_string@DU?$char_traits@D@std@@V?$allocator@D@2@@2@H@Z PROC ; std::_System_error_category::message, COMDAT
; _this$ = ecx

; 634  : 		{	// convert to name of error

	push	ebp
	mov	ebp, esp
	sub	esp, 16					; 00000010H
	mov	DWORD PTR _this$[ebp], ecx
	mov	DWORD PTR $T1[ebp], 0

; 635  : 		const char *_Name = _Winerror_map(_Errcode);

	mov	eax, DWORD PTR __Errcode$[ebp]
	push	eax
	call	?_Winerror_map@std@@YAPBDH@Z		; std::_Winerror_map
	add	esp, 4
	mov	DWORD PTR __Name$[ebp], eax

; 636  : 		return (string(_Name != 0 ? _Name : "unknown error"));

	cmp	DWORD PTR __Name$[ebp], 0
	je	SHORT $LN3@message
	mov	ecx, DWORD PTR __Name$[ebp]
	mov	DWORD PTR tv69[ebp], ecx
	jmp	SHORT $LN4@message
$LN3@message:
	mov	DWORD PTR tv69[ebp], OFFSET ??_C@_0O@BFJCFAAK@unknown?5error?$AA@
$LN4@message:
	mov	edx, DWORD PTR tv69[ebp]
	push	edx
	mov	ecx, DWORD PTR ___$ReturnUdt$[ebp]
	call	??0?$basic_string@DU?$char_traits@D@std@@V?$allocator@D@2@@std@@QAE@PBD@Z ; std::basic_string<char,std::char_traits<char>,std::allocator<char> >::basic_string<char,std::char_traits<char>,std::allocator<char> >
	mov	eax, DWORD PTR $T1[ebp]
	or	eax, 1
	mov	DWORD PTR $T1[ebp], eax
	mov	eax, DWORD PTR ___$ReturnUdt$[ebp]

; 637  : 		}

	mov	esp, ebp
	pop	ebp
	ret	8
?message@_System_error_category@std@@UBE?AV?$basic_string@DU?$char_traits@D@std@@V?$allocator@D@2@@2@H@Z ENDP ; std::_System_error_category::message
_TEXT	ENDS
; Function compile flags: /Odtp
; File c:\program files (x86)\microsoft visual studio 11.0\vc\include\system_error
;	COMDAT ?name@_System_error_category@std@@UBEPBDXZ
_TEXT	SEGMENT
_this$ = -4						; size = 4
?name@_System_error_category@std@@UBEPBDXZ PROC		; std::_System_error_category::name, COMDAT
; _this$ = ecx

; 629  : 		{	// get name of category

	push	ebp
	mov	ebp, esp
	push	ecx
	mov	DWORD PTR _this$[ebp], ecx

; 630  : 		return ("system");

	mov	eax, OFFSET ??_C@_06FHFOAHML@system?$AA@

; 631  : 		}

	mov	esp, ebp
	pop	ebp
	ret	0
?name@_System_error_category@std@@UBEPBDXZ ENDP		; std::_System_error_category::name
_TEXT	ENDS
; Function compile flags: /Odtp
; File c:\program files (x86)\microsoft visual studio 11.0\vc\include\system_error
;	COMDAT ??0_System_error_category@std@@QAE@XZ
_TEXT	SEGMENT
_this$ = -4						; size = 4
??0_System_error_category@std@@QAE@XZ PROC		; std::_System_error_category::_System_error_category, COMDAT
; _this$ = ecx

; 624  : 	_System_error_category()

	push	ebp
	mov	ebp, esp
	push	ecx
	mov	DWORD PTR _this$[ebp], ecx
	mov	ecx, DWORD PTR _this$[ebp]
	call	??0_Generic_error_category@std@@QAE@XZ	; std::_Generic_error_category::_Generic_error_category
	mov	eax, DWORD PTR _this$[ebp]
	mov	DWORD PTR [eax], OFFSET ??_7_System_error_category@std@@6B@

; 625  : 		{	// default constructor
; 626  : 		}

	mov	eax, DWORD PTR _this$[ebp]
	mov	esp, ebp
	pop	ebp
	ret	0
??0_System_error_category@std@@QAE@XZ ENDP		; std::_System_error_category::_System_error_category
_TEXT	ENDS
; Function compile flags: /Odtp
;	COMDAT ??_G_Iostream_error_category@std@@UAEPAXI@Z
_TEXT	SEGMENT
_this$ = -4						; size = 4
___flags$ = 8						; size = 4
??_G_Iostream_error_category@std@@UAEPAXI@Z PROC	; std::_Iostream_error_category::`scalar deleting destructor', COMDAT
; _this$ = ecx
	push	ebp
	mov	ebp, esp
	push	ecx
	mov	DWORD PTR _this$[ebp], ecx
	mov	ecx, DWORD PTR _this$[ebp]
	call	??1_Iostream_error_category@std@@UAE@XZ
	mov	eax, DWORD PTR ___flags$[ebp]
	and	eax, 1
	je	SHORT $LN1@scalar
	mov	ecx, DWORD PTR _this$[ebp]
	push	ecx
	call	??3@YAXPAX@Z				; operator delete
	add	esp, 4
$LN1@scalar:
	mov	eax, DWORD PTR _this$[ebp]
	mov	esp, ebp
	pop	ebp
	ret	4
??_G_Iostream_error_category@std@@UAEPAXI@Z ENDP	; std::_Iostream_error_category::`scalar deleting destructor'
_TEXT	ENDS
; Function compile flags: /Odtp
;	COMDAT ??1_Iostream_error_category@std@@UAE@XZ
_TEXT	SEGMENT
_this$ = -4						; size = 4
??1_Iostream_error_category@std@@UAE@XZ PROC		; std::_Iostream_error_category::~_Iostream_error_category, COMDAT
; _this$ = ecx
	push	ebp
	mov	ebp, esp
	push	ecx
	mov	DWORD PTR _this$[ebp], ecx
	mov	ecx, DWORD PTR _this$[ebp]
	call	??1_Generic_error_category@std@@UAE@XZ
	mov	esp, ebp
	pop	ebp
	ret	0
??1_Iostream_error_category@std@@UAE@XZ ENDP		; std::_Iostream_error_category::~_Iostream_error_category
_TEXT	ENDS
; Function compile flags: /Odtp
; File c:\program files (x86)\microsoft visual studio 11.0\vc\include\system_error
;	COMDAT ?message@_Iostream_error_category@std@@UBE?AV?$basic_string@DU?$char_traits@D@std@@V?$allocator@D@2@@2@H@Z
_TEXT	SEGMENT
_this$ = -8						; size = 4
$T1 = -4						; size = 4
___$ReturnUdt$ = 8					; size = 4
__Errcode$ = 12						; size = 4
?message@_Iostream_error_category@std@@UBE?AV?$basic_string@DU?$char_traits@D@std@@V?$allocator@D@2@@2@H@Z PROC ; std::_Iostream_error_category::message, COMDAT
; _this$ = ecx

; 611  : 		{	// convert to name of error

	push	ebp
	mov	ebp, esp
	sub	esp, 8
	mov	DWORD PTR _this$[ebp], ecx
	mov	DWORD PTR $T1[ebp], 0

; 612  : 		if (_Errcode == (int)io_errc::stream)

	cmp	DWORD PTR __Errcode$[ebp], 1
	jne	SHORT $LN2@message

; 613  : 			return ("iostream stream error");

	push	OFFSET ??_C@_0BG@PADBLCHM@iostream?5stream?5error?$AA@
	mov	ecx, DWORD PTR ___$ReturnUdt$[ebp]
	call	??0?$basic_string@DU?$char_traits@D@std@@V?$allocator@D@2@@std@@QAE@PBD@Z ; std::basic_string<char,std::char_traits<char>,std::allocator<char> >::basic_string<char,std::char_traits<char>,std::allocator<char> >
	mov	eax, DWORD PTR $T1[ebp]
	or	eax, 1
	mov	DWORD PTR $T1[ebp], eax
	mov	eax, DWORD PTR ___$ReturnUdt$[ebp]
	jmp	SHORT $LN3@message

; 614  : 		else

	jmp	SHORT $LN3@message
$LN2@message:

; 615  : 			return (_Generic_error_category::message(_Errcode));

	mov	ecx, DWORD PTR __Errcode$[ebp]
	push	ecx
	mov	edx, DWORD PTR ___$ReturnUdt$[ebp]
	push	edx
	mov	ecx, DWORD PTR _this$[ebp]
	call	?message@_Generic_error_category@std@@UBE?AV?$basic_string@DU?$char_traits@D@std@@V?$allocator@D@2@@2@H@Z ; std::_Generic_error_category::message
	mov	eax, DWORD PTR $T1[ebp]
	or	eax, 1
	mov	DWORD PTR $T1[ebp], eax
	mov	eax, DWORD PTR ___$ReturnUdt$[ebp]
$LN3@message:

; 616  : 		}

	mov	esp, ebp
	pop	ebp
	ret	8
?message@_Iostream_error_category@std@@UBE?AV?$basic_string@DU?$char_traits@D@std@@V?$allocator@D@2@@2@H@Z ENDP ; std::_Iostream_error_category::message
_TEXT	ENDS
; Function compile flags: /Odtp
; File c:\program files (x86)\microsoft visual studio 11.0\vc\include\system_error
;	COMDAT ?name@_Iostream_error_category@std@@UBEPBDXZ
_TEXT	SEGMENT
_this$ = -4						; size = 4
?name@_Iostream_error_category@std@@UBEPBDXZ PROC	; std::_Iostream_error_category::name, COMDAT
; _this$ = ecx

; 606  : 		{	// get name of category

	push	ebp
	mov	ebp, esp
	push	ecx
	mov	DWORD PTR _this$[ebp], ecx

; 607  : 		return ("iostream");

	mov	eax, OFFSET ??_C@_08LLGCOLLL@iostream?$AA@

; 608  : 		}

	mov	esp, ebp
	pop	ebp
	ret	0
?name@_Iostream_error_category@std@@UBEPBDXZ ENDP	; std::_Iostream_error_category::name
_TEXT	ENDS
; Function compile flags: /Odtp
; File c:\program files (x86)\microsoft visual studio 11.0\vc\include\system_error
;	COMDAT ??0_Iostream_error_category@std@@QAE@XZ
_TEXT	SEGMENT
_this$ = -4						; size = 4
??0_Iostream_error_category@std@@QAE@XZ PROC		; std::_Iostream_error_category::_Iostream_error_category, COMDAT
; _this$ = ecx

; 601  : 	_Iostream_error_category()

	push	ebp
	mov	ebp, esp
	push	ecx
	mov	DWORD PTR _this$[ebp], ecx
	mov	ecx, DWORD PTR _this$[ebp]
	call	??0_Generic_error_category@std@@QAE@XZ	; std::_Generic_error_category::_Generic_error_category
	mov	eax, DWORD PTR _this$[ebp]
	mov	DWORD PTR [eax], OFFSET ??_7_Iostream_error_category@std@@6B@

; 602  : 		{	// default constructor
; 603  : 		}

	mov	eax, DWORD PTR _this$[ebp]
	mov	esp, ebp
	pop	ebp
	ret	0
??0_Iostream_error_category@std@@QAE@XZ ENDP		; std::_Iostream_error_category::_Iostream_error_category
_TEXT	ENDS
; Function compile flags: /Odtp
;	COMDAT ??_G_Generic_error_category@std@@UAEPAXI@Z
_TEXT	SEGMENT
_this$ = -4						; size = 4
___flags$ = 8						; size = 4
??_G_Generic_error_category@std@@UAEPAXI@Z PROC		; std::_Generic_error_category::`scalar deleting destructor', COMDAT
; _this$ = ecx
	push	ebp
	mov	ebp, esp
	push	ecx
	mov	DWORD PTR _this$[ebp], ecx
	mov	ecx, DWORD PTR _this$[ebp]
	call	??1_Generic_error_category@std@@UAE@XZ
	mov	eax, DWORD PTR ___flags$[ebp]
	and	eax, 1
	je	SHORT $LN1@scalar
	mov	ecx, DWORD PTR _this$[ebp]
	push	ecx
	call	??3@YAXPAX@Z				; operator delete
	add	esp, 4
$LN1@scalar:
	mov	eax, DWORD PTR _this$[ebp]
	mov	esp, ebp
	pop	ebp
	ret	4
??_G_Generic_error_category@std@@UAEPAXI@Z ENDP		; std::_Generic_error_category::`scalar deleting destructor'
_TEXT	ENDS
; Function compile flags: /Odtp
;	COMDAT ??1_Generic_error_category@std@@UAE@XZ
_TEXT	SEGMENT
_this$ = -4						; size = 4
??1_Generic_error_category@std@@UAE@XZ PROC		; std::_Generic_error_category::~_Generic_error_category, COMDAT
; _this$ = ecx
	push	ebp
	mov	ebp, esp
	push	ecx
	mov	DWORD PTR _this$[ebp], ecx
	mov	ecx, DWORD PTR _this$[ebp]
	call	??1error_category@std@@UAE@XZ		; std::error_category::~error_category
	mov	esp, ebp
	pop	ebp
	ret	0
??1_Generic_error_category@std@@UAE@XZ ENDP		; std::_Generic_error_category::~_Generic_error_category
_TEXT	ENDS
; Function compile flags: /Odtp
; File c:\program files (x86)\microsoft visual studio 11.0\vc\include\system_error
;	COMDAT ?message@_Generic_error_category@std@@UBE?AV?$basic_string@DU?$char_traits@D@std@@V?$allocator@D@2@@2@H@Z
_TEXT	SEGMENT
_this$ = -16						; size = 4
$T1 = -12						; size = 4
tv69 = -8						; size = 4
__Name$ = -4						; size = 4
___$ReturnUdt$ = 8					; size = 4
__Errcode$ = 12						; size = 4
?message@_Generic_error_category@std@@UBE?AV?$basic_string@DU?$char_traits@D@std@@V?$allocator@D@2@@2@H@Z PROC ; std::_Generic_error_category::message, COMDAT
; _this$ = ecx

; 590  : 		{	// convert to name of error

	push	ebp
	mov	ebp, esp
	sub	esp, 16					; 00000010H
	mov	DWORD PTR _this$[ebp], ecx
	mov	DWORD PTR $T1[ebp], 0

; 591  : 		const char *_Name = _Syserror_map(_Errcode);

	mov	eax, DWORD PTR __Errcode$[ebp]
	push	eax
	call	?_Syserror_map@std@@YAPBDH@Z		; std::_Syserror_map
	add	esp, 4
	mov	DWORD PTR __Name$[ebp], eax

; 592  : 		return (string(_Name != 0 ? _Name : "unknown error"));

	cmp	DWORD PTR __Name$[ebp], 0
	je	SHORT $LN3@message
	mov	ecx, DWORD PTR __Name$[ebp]
	mov	DWORD PTR tv69[ebp], ecx
	jmp	SHORT $LN4@message
$LN3@message:
	mov	DWORD PTR tv69[ebp], OFFSET ??_C@_0O@BFJCFAAK@unknown?5error?$AA@
$LN4@message:
	mov	edx, DWORD PTR tv69[ebp]
	push	edx
	mov	ecx, DWORD PTR ___$ReturnUdt$[ebp]
	call	??0?$basic_string@DU?$char_traits@D@std@@V?$allocator@D@2@@std@@QAE@PBD@Z ; std::basic_string<char,std::char_traits<char>,std::allocator<char> >::basic_string<char,std::char_traits<char>,std::allocator<char> >
	mov	eax, DWORD PTR $T1[ebp]
	or	eax, 1
	mov	DWORD PTR $T1[ebp], eax
	mov	eax, DWORD PTR ___$ReturnUdt$[ebp]

; 593  : 		}

	mov	esp, ebp
	pop	ebp
	ret	8
?message@_Generic_error_category@std@@UBE?AV?$basic_string@DU?$char_traits@D@std@@V?$allocator@D@2@@2@H@Z ENDP ; std::_Generic_error_category::message
_TEXT	ENDS
; Function compile flags: /Odtp
; File c:\program files (x86)\microsoft visual studio 11.0\vc\include\system_error
;	COMDAT ?name@_Generic_error_category@std@@UBEPBDXZ
_TEXT	SEGMENT
_this$ = -4						; size = 4
?name@_Generic_error_category@std@@UBEPBDXZ PROC	; std::_Generic_error_category::name, COMDAT
; _this$ = ecx

; 585  : 		{	// get name of category

	push	ebp
	mov	ebp, esp
	push	ecx
	mov	DWORD PTR _this$[ebp], ecx

; 586  : 		return ("generic");

	mov	eax, OFFSET ??_C@_07DCLBNMLN@generic?$AA@

; 587  : 		}

	mov	esp, ebp
	pop	ebp
	ret	0
?name@_Generic_error_category@std@@UBEPBDXZ ENDP	; std::_Generic_error_category::name
_TEXT	ENDS
; Function compile flags: /Odtp
; File c:\program files (x86)\microsoft visual studio 11.0\vc\include\system_error
;	COMDAT ??0_Generic_error_category@std@@QAE@XZ
_TEXT	SEGMENT
_this$ = -4						; size = 4
??0_Generic_error_category@std@@QAE@XZ PROC		; std::_Generic_error_category::_Generic_error_category, COMDAT
; _this$ = ecx

; 580  : 	_Generic_error_category()

	push	ebp
	mov	ebp, esp
	push	ecx
	mov	DWORD PTR _this$[ebp], ecx
	mov	ecx, DWORD PTR _this$[ebp]
	call	??0error_category@std@@QAE@XZ		; std::error_category::error_category
	mov	eax, DWORD PTR _this$[ebp]
	mov	DWORD PTR [eax], OFFSET ??_7_Generic_error_category@std@@6B@

; 581  : 		{	// default constructor
; 582  : 		}

	mov	eax, DWORD PTR _this$[ebp]
	mov	esp, ebp
	pop	ebp
	ret	0
??0_Generic_error_category@std@@QAE@XZ ENDP		; std::_Generic_error_category::_Generic_error_category
_TEXT	ENDS
; Function compile flags: /Odtp
; File c:\program files (x86)\microsoft visual studio 11.0\vc\include\system_error
;	COMDAT ??8error_condition@std@@QBE_NABV01@@Z
_TEXT	SEGMENT
tv78 = -8						; size = 4
_this$ = -4						; size = 4
__Right$ = 8						; size = 4
??8error_condition@std@@QBE_NABV01@@Z PROC		; std::error_condition::operator==, COMDAT
; _this$ = ecx

; 376  : 		{	// test if *this == _Right

	push	ebp
	mov	ebp, esp
	sub	esp, 8
	push	esi
	mov	DWORD PTR _this$[ebp], ecx

; 377  : 		return (category() == _Right.category()
; 378  : 			&& value() == _Right.value());

	mov	ecx, DWORD PTR __Right$[ebp]
	call	?category@error_condition@std@@QBEABVerror_category@2@XZ ; std::error_condition::category
	push	eax
	mov	ecx, DWORD PTR _this$[ebp]
	call	?category@error_condition@std@@QBEABVerror_category@2@XZ ; std::error_condition::category
	mov	ecx, eax
	call	??8error_category@std@@QBE_NABV01@@Z	; std::error_category::operator==
	movzx	eax, al
	test	eax, eax
	je	SHORT $LN3@operator
	mov	ecx, DWORD PTR _this$[ebp]
	call	?value@error_condition@std@@QBEHXZ	; std::error_condition::value
	mov	esi, eax
	mov	ecx, DWORD PTR __Right$[ebp]
	call	?value@error_condition@std@@QBEHXZ	; std::error_condition::value
	cmp	esi, eax
	jne	SHORT $LN3@operator
	mov	DWORD PTR tv78[ebp], 1
	jmp	SHORT $LN4@operator
$LN3@operator:
	mov	DWORD PTR tv78[ebp], 0
$LN4@operator:
	mov	al, BYTE PTR tv78[ebp]

; 379  : 		}

	pop	esi
	mov	esp, ebp
	pop	ebp
	ret	4
??8error_condition@std@@QBE_NABV01@@Z ENDP		; std::error_condition::operator==
_TEXT	ENDS
; Function compile flags: /Odtp
; File c:\program files (x86)\microsoft visual studio 11.0\vc\include\system_error
;	COMDAT ?category@error_condition@std@@QBEABVerror_category@2@XZ
_TEXT	SEGMENT
_this$ = -4						; size = 4
?category@error_condition@std@@QBEABVerror_category@2@XZ PROC ; std::error_condition::category, COMDAT
; _this$ = ecx

; 354  : 		{	// get category

	push	ebp
	mov	ebp, esp
	push	ecx
	mov	DWORD PTR _this$[ebp], ecx

; 355  : 		return (*_Mycat);

	mov	eax, DWORD PTR _this$[ebp]
	mov	eax, DWORD PTR [eax+4]

; 356  : 		}

	mov	esp, ebp
	pop	ebp
	ret	0
?category@error_condition@std@@QBEABVerror_category@2@XZ ENDP ; std::error_condition::category
_TEXT	ENDS
; Function compile flags: /Odtp
; File c:\program files (x86)\microsoft visual studio 11.0\vc\include\system_error
;	COMDAT ?value@error_condition@std@@QBEHXZ
_TEXT	SEGMENT
_this$ = -4						; size = 4
?value@error_condition@std@@QBEHXZ PROC			; std::error_condition::value, COMDAT
; _this$ = ecx

; 349  : 		{	// get error code

	push	ebp
	mov	ebp, esp
	push	ecx
	mov	DWORD PTR _this$[ebp], ecx

; 350  : 		return (_Myval);

	mov	eax, DWORD PTR _this$[ebp]
	mov	eax, DWORD PTR [eax]

; 351  : 		}

	mov	esp, ebp
	pop	ebp
	ret	0
?value@error_condition@std@@QBEHXZ ENDP			; std::error_condition::value
_TEXT	ENDS
; Function compile flags: /Odtp
; File c:\program files (x86)\microsoft visual studio 11.0\vc\include\system_error
;	COMDAT ??0error_condition@std@@QAE@HABVerror_category@1@@Z
_TEXT	SEGMENT
_this$ = -4						; size = 4
__Val$ = 8						; size = 4
__Cat$ = 12						; size = 4
??0error_condition@std@@QAE@HABVerror_category@1@@Z PROC ; std::error_condition::error_condition, COMDAT
; _this$ = ecx

; 316  : 		{	// construct from error code and category

	push	ebp
	mov	ebp, esp
	push	ecx
	mov	DWORD PTR _this$[ebp], ecx
	mov	eax, DWORD PTR _this$[ebp]
	mov	ecx, DWORD PTR __Val$[ebp]
	mov	DWORD PTR [eax], ecx
	mov	edx, DWORD PTR _this$[ebp]
	mov	eax, DWORD PTR __Cat$[ebp]
	mov	DWORD PTR [edx+4], eax

; 317  : 		}

	mov	eax, DWORD PTR _this$[ebp]
	mov	esp, ebp
	pop	ebp
	ret	8
??0error_condition@std@@QAE@HABVerror_category@1@@Z ENDP ; std::error_condition::error_condition
_TEXT	ENDS
; Function compile flags: /Odtp
; File c:\program files (x86)\microsoft visual studio 11.0\vc\include\system_error
;	COMDAT ?category@error_code@std@@QBEABVerror_category@2@XZ
_TEXT	SEGMENT
_this$ = -4						; size = 4
?category@error_code@std@@QBEABVerror_category@2@XZ PROC ; std::error_code::category, COMDAT
; _this$ = ecx

; 256  : 		{	// get category

	push	ebp
	mov	ebp, esp
	push	ecx
	mov	DWORD PTR _this$[ebp], ecx

; 257  : 		return (*_Mycat);

	mov	eax, DWORD PTR _this$[ebp]
	mov	eax, DWORD PTR [eax+4]

; 258  : 		}

	mov	esp, ebp
	pop	ebp
	ret	0
?category@error_code@std@@QBEABVerror_category@2@XZ ENDP ; std::error_code::category
_TEXT	ENDS
; Function compile flags: /Odtp
; File c:\program files (x86)\microsoft visual studio 11.0\vc\include\system_error
;	COMDAT ?value@error_code@std@@QBEHXZ
_TEXT	SEGMENT
_this$ = -4						; size = 4
?value@error_code@std@@QBEHXZ PROC			; std::error_code::value, COMDAT
; _this$ = ecx

; 251  : 		{	// get error code

	push	ebp
	mov	ebp, esp
	push	ecx
	mov	DWORD PTR _this$[ebp], ecx

; 252  : 		return (_Myval);

	mov	eax, DWORD PTR _this$[ebp]
	mov	eax, DWORD PTR [eax]

; 253  : 		}

	mov	esp, ebp
	pop	ebp
	ret	0
?value@error_code@std@@QBEHXZ ENDP			; std::error_code::value
_TEXT	ENDS
; Function compile flags: /Odtp
;	COMDAT ??_Gerror_category@std@@UAEPAXI@Z
_TEXT	SEGMENT
_this$ = -4						; size = 4
___flags$ = 8						; size = 4
??_Gerror_category@std@@UAEPAXI@Z PROC			; std::error_category::`scalar deleting destructor', COMDAT
; _this$ = ecx
	push	ebp
	mov	ebp, esp
	push	ecx
	mov	DWORD PTR _this$[ebp], ecx
	mov	ecx, DWORD PTR _this$[ebp]
	call	??1error_category@std@@UAE@XZ		; std::error_category::~error_category
	mov	eax, DWORD PTR ___flags$[ebp]
	and	eax, 1
	je	SHORT $LN1@scalar
	mov	ecx, DWORD PTR _this$[ebp]
	push	ecx
	call	??3@YAXPAX@Z				; operator delete
	add	esp, 4
$LN1@scalar:
	mov	eax, DWORD PTR _this$[ebp]
	mov	esp, ebp
	pop	ebp
	ret	4
??_Gerror_category@std@@UAEPAXI@Z ENDP			; std::error_category::`scalar deleting destructor'
_TEXT	ENDS
; Function compile flags: /Odtp
; File c:\program files (x86)\microsoft visual studio 11.0\vc\include\system_error
;	COMDAT ??8error_category@std@@QBE_NABV01@@Z
_TEXT	SEGMENT
_this$ = -8						; size = 4
tv65 = -4						; size = 4
__Right$ = 8						; size = 4
??8error_category@std@@QBE_NABV01@@Z PROC		; std::error_category::operator==, COMDAT
; _this$ = ecx

; 184  : 		{	// compare categories for equality

	push	ebp
	mov	ebp, esp
	sub	esp, 8
	mov	DWORD PTR _this$[ebp], ecx

; 185  : 		return (this == &_Right);

	mov	eax, DWORD PTR _this$[ebp]
	cmp	eax, DWORD PTR __Right$[ebp]
	jne	SHORT $LN3@operator
	mov	DWORD PTR tv65[ebp], 1
	jmp	SHORT $LN4@operator
$LN3@operator:
	mov	DWORD PTR tv65[ebp], 0
$LN4@operator:
	mov	al, BYTE PTR tv65[ebp]

; 186  : 		}

	mov	esp, ebp
	pop	ebp
	ret	4
??8error_category@std@@QBE_NABV01@@Z ENDP		; std::error_category::operator==
_TEXT	ENDS
; Function compile flags: /Odtp
; File c:\program files (x86)\microsoft visual studio 11.0\vc\include\system_error
;	COMDAT ?equivalent@error_category@std@@UBE_NABVerror_code@2@H@Z
_TEXT	SEGMENT
_this$ = -8						; size = 4
tv74 = -4						; size = 4
__Code$ = 8						; size = 4
__Errval$ = 12						; size = 4
?equivalent@error_category@std@@UBE_NABVerror_code@2@H@Z PROC ; std::error_category::equivalent, COMDAT
; _this$ = ecx

; 415  : 	{	// test if conditions same for this category

	push	ebp
	mov	ebp, esp
	sub	esp, 8
	mov	DWORD PTR _this$[ebp], ecx

; 416  : 	return (*this == _Code.category() && _Code.value() == _Errval);

	mov	ecx, DWORD PTR __Code$[ebp]
	call	?category@error_code@std@@QBEABVerror_category@2@XZ ; std::error_code::category
	push	eax
	mov	ecx, DWORD PTR _this$[ebp]
	call	??8error_category@std@@QBE_NABV01@@Z	; std::error_category::operator==
	movzx	eax, al
	test	eax, eax
	je	SHORT $LN3@equivalent
	mov	ecx, DWORD PTR __Code$[ebp]
	call	?value@error_code@std@@QBEHXZ		; std::error_code::value
	cmp	eax, DWORD PTR __Errval$[ebp]
	jne	SHORT $LN3@equivalent
	mov	DWORD PTR tv74[ebp], 1
	jmp	SHORT $LN4@equivalent
$LN3@equivalent:
	mov	DWORD PTR tv74[ebp], 0
$LN4@equivalent:
	mov	al, BYTE PTR tv74[ebp]

; 417  : 	}

	mov	esp, ebp
	pop	ebp
	ret	8
?equivalent@error_category@std@@UBE_NABVerror_code@2@H@Z ENDP ; std::error_category::equivalent
_TEXT	ENDS
; Function compile flags: /Odtp
; File c:\program files (x86)\microsoft visual studio 11.0\vc\include\system_error
;	COMDAT ?equivalent@error_category@std@@UBE_NHABVerror_condition@2@@Z
_TEXT	SEGMENT
$T1 = -12						; size = 8
_this$ = -4						; size = 4
__Errval$ = 8						; size = 4
__Cond$ = 12						; size = 4
?equivalent@error_category@std@@UBE_NHABVerror_condition@2@@Z PROC ; std::error_category::equivalent, COMDAT
; _this$ = ecx

; 408  : 	{	// test if error code same condition

	push	ebp
	mov	ebp, esp
	sub	esp, 12					; 0000000cH
	mov	DWORD PTR _this$[ebp], ecx

; 409  : 	return (default_error_condition(_Errval) == _Cond);

	mov	eax, DWORD PTR __Cond$[ebp]
	push	eax
	mov	ecx, DWORD PTR __Errval$[ebp]
	push	ecx
	lea	edx, DWORD PTR $T1[ebp]
	push	edx
	mov	eax, DWORD PTR _this$[ebp]
	mov	edx, DWORD PTR [eax]
	mov	ecx, DWORD PTR _this$[ebp]
	mov	eax, DWORD PTR [edx+12]
	call	eax
	mov	ecx, eax
	call	??8error_condition@std@@QBE_NABV01@@Z	; std::error_condition::operator==

; 410  : 	}

	mov	esp, ebp
	pop	ebp
	ret	8
?equivalent@error_category@std@@UBE_NHABVerror_condition@2@@Z ENDP ; std::error_category::equivalent
_TEXT	ENDS
; Function compile flags: /Odtp
; File c:\program files (x86)\microsoft visual studio 11.0\vc\include\system_error
;	COMDAT ?default_error_condition@error_category@std@@UBE?AVerror_condition@2@H@Z
_TEXT	SEGMENT
_this$ = -4						; size = 4
___$ReturnUdt$ = 8					; size = 4
__Errval$ = 12						; size = 4
?default_error_condition@error_category@std@@UBE?AVerror_condition@2@H@Z PROC ; std::error_category::default_error_condition, COMDAT
; _this$ = ecx

; 401  : 	{	// make error_condition for error code

	push	ebp
	mov	ebp, esp
	push	ecx
	mov	DWORD PTR _this$[ebp], ecx

; 402  : 	return (error_condition(_Errval, *this));

	mov	eax, DWORD PTR _this$[ebp]
	push	eax
	mov	ecx, DWORD PTR __Errval$[ebp]
	push	ecx
	mov	ecx, DWORD PTR ___$ReturnUdt$[ebp]
	call	??0error_condition@std@@QAE@HABVerror_category@1@@Z ; std::error_condition::error_condition
	mov	eax, DWORD PTR ___$ReturnUdt$[ebp]

; 403  : 	}

	mov	esp, ebp
	pop	ebp
	ret	8
?default_error_condition@error_category@std@@UBE?AVerror_condition@2@H@Z ENDP ; std::error_category::default_error_condition
_TEXT	ENDS
; Function compile flags: /Odtp
; File c:\program files (x86)\microsoft visual studio 11.0\vc\include\system_error
;	COMDAT ??1error_category@std@@UAE@XZ
_TEXT	SEGMENT
_this$ = -4						; size = 4
??1error_category@std@@UAE@XZ PROC			; std::error_category::~error_category, COMDAT
; _this$ = ecx

; 167  : 		{	// destroy the object

	push	ebp
	mov	ebp, esp
	push	ecx
	mov	DWORD PTR _this$[ebp], ecx
	mov	eax, DWORD PTR _this$[ebp]
	mov	DWORD PTR [eax], OFFSET ??_7error_category@std@@6B@

; 168  : 		}

	mov	esp, ebp
	pop	ebp
	ret	0
??1error_category@std@@UAE@XZ ENDP			; std::error_category::~error_category
_TEXT	ENDS
; Function compile flags: /Odtp
; File c:\program files (x86)\microsoft visual studio 11.0\vc\include\system_error
;	COMDAT ??0error_category@std@@QAE@XZ
_TEXT	SEGMENT
_this$ = -4						; size = 4
??0error_category@std@@QAE@XZ PROC			; std::error_category::error_category, COMDAT
; _this$ = ecx

; 162  : 	error_category()

	push	ebp
	mov	ebp, esp
	push	ecx
	mov	DWORD PTR _this$[ebp], ecx
	mov	eax, DWORD PTR _this$[ebp]
	mov	DWORD PTR [eax], OFFSET ??_7error_category@std@@6B@

; 163  : 		{	// default constructor
; 164  : 		}

	mov	eax, DWORD PTR _this$[ebp]
	mov	esp, ebp
	pop	ebp
	ret	0
??0error_category@std@@QAE@XZ ENDP			; std::error_category::error_category
_TEXT	ENDS
; Function compile flags: /Odtp
; File c:\program files (x86)\microsoft visual studio 11.0\vc\include\system_error
;	COMDAT ?system_category@std@@YAABVerror_category@1@XZ
_TEXT	SEGMENT
?system_category@std@@YAABVerror_category@1@XZ PROC	; std::system_category, COMDAT

; 679  : 	{	// get system_category

	push	ebp
	mov	ebp, esp

; 680  : 	return (_Error_objects<int>::_System_object);

	mov	eax, OFFSET ?_System_object@?$_Error_objects@H@std@@2V_System_error_category@2@A ; std::_Error_objects<int>::_System_object

; 681  : 	}

	pop	ebp
	ret	0
?system_category@std@@YAABVerror_category@1@XZ ENDP	; std::system_category
_TEXT	ENDS
; Function compile flags: /Odtp
; File c:\program files (x86)\microsoft visual studio 11.0\vc\include\system_error
;	COMDAT ?generic_category@std@@YAABVerror_category@1@XZ
_TEXT	SEGMENT
?generic_category@std@@YAABVerror_category@1@XZ PROC	; std::generic_category, COMDAT

; 669  : 	{	// get generic_category

	push	ebp
	mov	ebp, esp

; 670  : 	return (_Error_objects<int>::_Generic_object);

	mov	eax, OFFSET ?_Generic_object@?$_Error_objects@H@std@@2V_Generic_error_category@2@A ; std::_Error_objects<int>::_Generic_object

; 671  : 	}

	pop	ebp
	ret	0
?generic_category@std@@YAABVerror_category@1@XZ ENDP	; std::generic_category
_TEXT	ENDS
; Function compile flags: /Odtp
; File c:\program files (x86)\microsoft visual studio 11.0\vc\include\xlocale
;	COMDAT ??0id@locale@std@@QAE@I@Z
_TEXT	SEGMENT
_this$ = -4						; size = 4
__Val$ = 8						; size = 4
??0id@locale@std@@QAE@I@Z PROC				; std::locale::id::id, COMDAT
; _this$ = ecx

; 74   : 			{	// construct with specified stamp value

	push	ebp
	mov	ebp, esp
	push	ecx
	mov	DWORD PTR _this$[ebp], ecx
	mov	eax, DWORD PTR _this$[ebp]
	mov	ecx, DWORD PTR __Val$[ebp]
	mov	DWORD PTR [eax], ecx

; 75   : 			}

	mov	eax, DWORD PTR _this$[ebp]
	mov	esp, ebp
	pop	ebp
	ret	4
??0id@locale@std@@QAE@I@Z ENDP				; std::locale::id::id
_TEXT	ENDS
; Function compile flags: /Odtp
; File c:\program files (x86)\microsoft visual studio 11.0\vc\include\xstring
;	COMDAT ?_Xran@?$basic_string@DU?$char_traits@D@std@@V?$allocator@D@2@@std@@QBEXXZ
_TEXT	SEGMENT
_this$ = -4						; size = 4
?_Xran@?$basic_string@DU?$char_traits@D@std@@V?$allocator@D@2@@std@@QBEXXZ PROC ; std::basic_string<char,std::char_traits<char>,std::allocator<char> >::_Xran, COMDAT
; _this$ = ecx

; 2275 : 		{	// report an out_of_range error

	push	ebp
	mov	ebp, esp
	push	ecx
	mov	DWORD PTR _this$[ebp], ecx

; 2276 : 		_Xout_of_range("invalid string position");

	push	OFFSET ??_C@_0BI@CFPLBAOH@invalid?5string?5position?$AA@
	call	?_Xout_of_range@std@@YAXPBD@Z		; std::_Xout_of_range
$LN2@Xran:

; 2277 : 		}

	mov	esp, ebp
	pop	ebp
	ret	0
?_Xran@?$basic_string@DU?$char_traits@D@std@@V?$allocator@D@2@@std@@QBEXXZ ENDP ; std::basic_string<char,std::char_traits<char>,std::allocator<char> >::_Xran
_TEXT	ENDS
; Function compile flags: /Odtp
; File c:\program files (x86)\microsoft visual studio 11.0\vc\include\xstring
;	COMDAT ?_Xlen@?$basic_string@DU?$char_traits@D@std@@V?$allocator@D@2@@std@@QBEXXZ
_TEXT	SEGMENT
_this$ = -4						; size = 4
?_Xlen@?$basic_string@DU?$char_traits@D@std@@V?$allocator@D@2@@std@@QBEXXZ PROC ; std::basic_string<char,std::char_traits<char>,std::allocator<char> >::_Xlen, COMDAT
; _this$ = ecx

; 2270 : 		{	// report a length_error

	push	ebp
	mov	ebp, esp
	push	ecx
	mov	DWORD PTR _this$[ebp], ecx

; 2271 : 		_Xlength_error("string too long");

	push	OFFSET ??_C@_0BA@JFNIOLAK@string?5too?5long?$AA@
	call	?_Xlength_error@std@@YAXPBD@Z		; std::_Xlength_error
$LN2@Xlen:

; 2272 : 		}

	mov	esp, ebp
	pop	ebp
	ret	0
?_Xlen@?$basic_string@DU?$char_traits@D@std@@V?$allocator@D@2@@std@@QBEXXZ ENDP ; std::basic_string<char,std::char_traits<char>,std::allocator<char> >::_Xlen
_TEXT	ENDS
; Function compile flags: /Odtp
; File c:\program files (x86)\microsoft visual studio 11.0\vc\include\xstring
;	COMDAT ?_Tidy@?$basic_string@DU?$char_traits@D@std@@V?$allocator@D@2@@std@@QAEX_NI@Z
_TEXT	SEGMENT
__Ptr$1 = -12						; size = 4
_this$ = -8						; size = 4
$T2 = -2						; size = 1
$T3 = -1						; size = 1
__Built$ = 8						; size = 1
__Newsize$ = 12						; size = 4
?_Tidy@?$basic_string@DU?$char_traits@D@std@@V?$allocator@D@2@@std@@QAEX_NI@Z PROC ; std::basic_string<char,std::char_traits<char>,std::allocator<char> >::_Tidy, COMDAT
; _this$ = ecx

; 2253 : 		{	// initialize buffer, deallocating any storage

	push	ebp
	mov	ebp, esp
	sub	esp, 12					; 0000000cH
	mov	DWORD PTR _this$[ebp], ecx

; 2254 : 		if (!_Built)

	movzx	eax, BYTE PTR __Built$[ebp]
	test	eax, eax
	jne	SHORT $LN4@Tidy
	jmp	SHORT $LN3@Tidy
$LN4@Tidy:

; 2255 : 			;
; 2256 : 		else if (this->_BUF_SIZE <= this->_Myres)

	mov	ecx, DWORD PTR _this$[ebp]
	cmp	DWORD PTR [ecx+20], 16			; 00000010H
	jb	SHORT $LN3@Tidy

; 2257 : 			{	// copy any leftovers to small buffer and deallocate
; 2258 : 			pointer _Ptr = this->_Bx._Ptr;

	mov	edx, DWORD PTR _this$[ebp]
	mov	eax, DWORD PTR [edx]
	mov	DWORD PTR __Ptr$1[ebp], eax

; 2259 : 			this->_Getal().destroy(&this->_Bx._Ptr);

	mov	ecx, DWORD PTR _this$[ebp]
	push	ecx
	lea	edx, DWORD PTR $T3[ebp]
	push	edx
	mov	ecx, DWORD PTR _this$[ebp]
	call	?_Getal@?$_String_alloc@$0A@U?$_String_base_types@DV?$allocator@D@std@@@std@@@std@@QBE?AU?$_Wrap_alloc@V?$allocator@D@std@@@2@XZ ; std::_String_alloc<0,std::_String_base_types<char,std::allocator<char> > >::_Getal
	mov	ecx, eax
	call	??$destroy@PAD@?$_Wrap_alloc@V?$allocator@D@std@@@std@@QAEXPAPAD@Z ; std::_Wrap_alloc<std::allocator<char> >::destroy<char *>

; 2260 : 			if (0 < _Newsize)

	cmp	DWORD PTR __Newsize$[ebp], 0
	jbe	SHORT $LN1@Tidy

; 2261 : 				_Traits::copy(this->_Bx._Buf,
; 2262 : 					_STD addressof(*_Ptr), _Newsize);

	mov	eax, DWORD PTR __Newsize$[ebp]
	push	eax
	mov	ecx, DWORD PTR __Ptr$1[ebp]
	push	ecx
	call	??$addressof@D@std@@YAPADAAD@Z		; std::addressof<char>
	add	esp, 4
	push	eax
	mov	edx, DWORD PTR _this$[ebp]
	push	edx
	call	?copy@?$char_traits@D@std@@SAPADPADPBDI@Z ; std::char_traits<char>::copy
	add	esp, 12					; 0000000cH
$LN1@Tidy:

; 2263 : 			this->_Getal().deallocate(_Ptr, this->_Myres + 1);

	mov	eax, DWORD PTR _this$[ebp]
	mov	ecx, DWORD PTR [eax+20]
	add	ecx, 1
	push	ecx
	mov	edx, DWORD PTR __Ptr$1[ebp]
	push	edx
	lea	eax, DWORD PTR $T2[ebp]
	push	eax
	mov	ecx, DWORD PTR _this$[ebp]
	call	?_Getal@?$_String_alloc@$0A@U?$_String_base_types@DV?$allocator@D@std@@@std@@@std@@QBE?AU?$_Wrap_alloc@V?$allocator@D@std@@@2@XZ ; std::_String_alloc<0,std::_String_base_types<char,std::allocator<char> > >::_Getal
	mov	ecx, eax
	call	?deallocate@?$_Wrap_alloc@V?$allocator@D@std@@@std@@QAEXPADI@Z ; std::_Wrap_alloc<std::allocator<char> >::deallocate
$LN3@Tidy:

; 2264 : 			}
; 2265 : 		this->_Myres = this->_BUF_SIZE - 1;

	mov	ecx, DWORD PTR _this$[ebp]
	mov	DWORD PTR [ecx+20], 15			; 0000000fH

; 2266 : 		_Eos(_Newsize);

	mov	edx, DWORD PTR __Newsize$[ebp]
	push	edx
	mov	ecx, DWORD PTR _this$[ebp]
	call	?_Eos@?$basic_string@DU?$char_traits@D@std@@V?$allocator@D@2@@std@@QAEXI@Z ; std::basic_string<char,std::char_traits<char>,std::allocator<char> >::_Eos

; 2267 : 		}

	mov	esp, ebp
	pop	ebp
	ret	8
?_Tidy@?$basic_string@DU?$char_traits@D@std@@V?$allocator@D@2@@std@@QAEX_NI@Z ENDP ; std::basic_string<char,std::char_traits<char>,std::allocator<char> >::_Tidy
_TEXT	ENDS
; Function compile flags: /Odtp
; File c:\program files (x86)\microsoft visual studio 11.0\vc\include\xstring
;	COMDAT ?_Inside@?$basic_string@DU?$char_traits@D@std@@V?$allocator@D@2@@std@@QAE_NPBD@Z
_TEXT	SEGMENT
_this$ = -4						; size = 4
__Ptr$ = 8						; size = 4
?_Inside@?$basic_string@DU?$char_traits@D@std@@V?$allocator@D@2@@std@@QAE_NPBD@Z PROC ; std::basic_string<char,std::char_traits<char>,std::allocator<char> >::_Inside, COMDAT
; _this$ = ecx

; 2237 : 		{	// test if _Ptr points inside string

	push	ebp
	mov	ebp, esp
	push	ecx
	mov	DWORD PTR _this$[ebp], ecx

; 2238 : 		if (_Ptr == 0 || _Ptr < this->_Myptr()
; 2239 : 			|| this->_Myptr() + this->_Mysize <= _Ptr)

	cmp	DWORD PTR __Ptr$[ebp], 0
	je	SHORT $LN2@Inside
	mov	ecx, DWORD PTR _this$[ebp]
	call	?_Myptr@?$_String_val@U?$_Simple_types@D@std@@@std@@QAEPADXZ ; std::_String_val<std::_Simple_types<char> >::_Myptr
	cmp	DWORD PTR __Ptr$[ebp], eax
	jb	SHORT $LN2@Inside
	mov	ecx, DWORD PTR _this$[ebp]
	call	?_Myptr@?$_String_val@U?$_Simple_types@D@std@@@std@@QAEPADXZ ; std::_String_val<std::_Simple_types<char> >::_Myptr
	mov	ecx, DWORD PTR _this$[ebp]
	add	eax, DWORD PTR [ecx+16]
	cmp	eax, DWORD PTR __Ptr$[ebp]
	ja	SHORT $LN3@Inside
$LN2@Inside:

; 2240 : 			return (false);	// don't ask

	xor	al, al
	jmp	SHORT $LN4@Inside

; 2241 : 		else

	jmp	SHORT $LN4@Inside
$LN3@Inside:

; 2242 : 			return (true);

	mov	al, 1
$LN4@Inside:

; 2243 : 		}

	mov	esp, ebp
	pop	ebp
	ret	4
?_Inside@?$basic_string@DU?$char_traits@D@std@@V?$allocator@D@2@@std@@QAE_NPBD@Z ENDP ; std::basic_string<char,std::char_traits<char>,std::allocator<char> >::_Inside
_TEXT	ENDS
; Function compile flags: /Odtp
; File c:\program files (x86)\microsoft visual studio 11.0\vc\include\xstring
;	COMDAT ?_Grow@?$basic_string@DU?$char_traits@D@std@@V?$allocator@D@2@@std@@QAE_NI_N@Z
_TEXT	SEGMENT
tv136 = -12						; size = 4
tv129 = -8						; size = 4
_this$ = -4						; size = 4
__Newsize$ = 8						; size = 4
__Trim$ = 12						; size = 1
?_Grow@?$basic_string@DU?$char_traits@D@std@@V?$allocator@D@2@@std@@QAE_NI_N@Z PROC ; std::basic_string<char,std::char_traits<char>,std::allocator<char> >::_Grow, COMDAT
; _this$ = ecx

; 2223 : 		{	// ensure buffer is big enough, trim to size if _Trim is true

	push	ebp
	mov	ebp, esp
	sub	esp, 12					; 0000000cH
	mov	DWORD PTR _this$[ebp], ecx

; 2224 : 		if (max_size() < _Newsize)

	mov	ecx, DWORD PTR _this$[ebp]
	call	?max_size@?$basic_string@DU?$char_traits@D@std@@V?$allocator@D@2@@std@@QBEIXZ ; std::basic_string<char,std::char_traits<char>,std::allocator<char> >::max_size
	cmp	eax, DWORD PTR __Newsize$[ebp]
	jae	SHORT $LN6@Grow

; 2225 : 			_Xlen();	// result too long

	mov	ecx, DWORD PTR _this$[ebp]
	call	?_Xlen@?$basic_string@DU?$char_traits@D@std@@V?$allocator@D@2@@std@@QBEXXZ ; std::basic_string<char,std::char_traits<char>,std::allocator<char> >::_Xlen
$LN6@Grow:

; 2226 : 		if (this->_Myres < _Newsize)

	mov	eax, DWORD PTR _this$[ebp]
	mov	ecx, DWORD PTR [eax+20]
	cmp	ecx, DWORD PTR __Newsize$[ebp]
	jae	SHORT $LN5@Grow

; 2227 : 			_Copy(_Newsize, this->_Mysize);	// reallocate to grow

	mov	edx, DWORD PTR _this$[ebp]
	mov	eax, DWORD PTR [edx+16]
	push	eax
	mov	ecx, DWORD PTR __Newsize$[ebp]
	push	ecx
	mov	ecx, DWORD PTR _this$[ebp]
	call	?_Copy@?$basic_string@DU?$char_traits@D@std@@V?$allocator@D@2@@std@@QAEXII@Z ; std::basic_string<char,std::char_traits<char>,std::allocator<char> >::_Copy
	jmp	SHORT $LN4@Grow
$LN5@Grow:

; 2228 : 		else if (_Trim && _Newsize < this->_BUF_SIZE)

	movzx	edx, BYTE PTR __Trim$[ebp]
	test	edx, edx
	je	SHORT $LN3@Grow
	cmp	DWORD PTR __Newsize$[ebp], 16		; 00000010H
	jae	SHORT $LN3@Grow

; 2229 : 			_Tidy(true,	// copy and deallocate if trimming to small string
; 2230 : 				_Newsize < this->_Mysize ? _Newsize : this->_Mysize);

	mov	eax, DWORD PTR _this$[ebp]
	mov	ecx, DWORD PTR __Newsize$[ebp]
	cmp	ecx, DWORD PTR [eax+16]
	jae	SHORT $LN9@Grow
	mov	edx, DWORD PTR __Newsize$[ebp]
	mov	DWORD PTR tv129[ebp], edx
	jmp	SHORT $LN10@Grow
$LN9@Grow:
	mov	eax, DWORD PTR _this$[ebp]
	mov	ecx, DWORD PTR [eax+16]
	mov	DWORD PTR tv129[ebp], ecx
$LN10@Grow:
	mov	edx, DWORD PTR tv129[ebp]
	push	edx
	push	1
	mov	ecx, DWORD PTR _this$[ebp]
	call	?_Tidy@?$basic_string@DU?$char_traits@D@std@@V?$allocator@D@2@@std@@QAEX_NI@Z ; std::basic_string<char,std::char_traits<char>,std::allocator<char> >::_Tidy
	jmp	SHORT $LN4@Grow
$LN3@Grow:

; 2231 : 		else if (_Newsize == 0)

	cmp	DWORD PTR __Newsize$[ebp], 0
	jne	SHORT $LN4@Grow

; 2232 : 			_Eos(0);	// new size is zero, just null terminate

	push	0
	mov	ecx, DWORD PTR _this$[ebp]
	call	?_Eos@?$basic_string@DU?$char_traits@D@std@@V?$allocator@D@2@@std@@QAEXI@Z ; std::basic_string<char,std::char_traits<char>,std::allocator<char> >::_Eos
$LN4@Grow:

; 2233 : 		return (0 < _Newsize);	// return true only if more work to do

	cmp	DWORD PTR __Newsize$[ebp], 0
	jbe	SHORT $LN11@Grow
	mov	DWORD PTR tv136[ebp], 1
	jmp	SHORT $LN12@Grow
$LN11@Grow:
	mov	DWORD PTR tv136[ebp], 0
$LN12@Grow:
	mov	al, BYTE PTR tv136[ebp]
$LN8@Grow:

; 2234 : 		}

	mov	esp, ebp
	pop	ebp
	ret	8
?_Grow@?$basic_string@DU?$char_traits@D@std@@V?$allocator@D@2@@std@@QAE_NI_N@Z ENDP ; std::basic_string<char,std::char_traits<char>,std::allocator<char> >::_Grow
_TEXT	ENDS
; Function compile flags: /Odtp
; File c:\program files (x86)\microsoft visual studio 11.0\vc\include\xstring
;	COMDAT ?_Eos@?$basic_string@DU?$char_traits@D@std@@V?$allocator@D@2@@std@@QAEXI@Z
_TEXT	SEGMENT
_this$ = -8						; size = 4
$T1 = -1						; size = 1
__Newsize$ = 8						; size = 4
?_Eos@?$basic_string@DU?$char_traits@D@std@@V?$allocator@D@2@@std@@QAEXI@Z PROC ; std::basic_string<char,std::char_traits<char>,std::allocator<char> >::_Eos, COMDAT
; _this$ = ecx

; 2217 : 		{	// set new length and null terminator

	push	ebp
	mov	ebp, esp
	sub	esp, 8
	mov	DWORD PTR _this$[ebp], ecx

; 2218 : 		_Traits::assign(this->_Myptr()[this->_Mysize = _Newsize], _Elem());

	mov	BYTE PTR $T1[ebp], 0
	mov	eax, DWORD PTR _this$[ebp]
	mov	ecx, DWORD PTR __Newsize$[ebp]
	mov	DWORD PTR [eax+16], ecx
	lea	edx, DWORD PTR $T1[ebp]
	push	edx
	mov	ecx, DWORD PTR _this$[ebp]
	call	?_Myptr@?$_String_val@U?$_Simple_types@D@std@@@std@@QAEPADXZ ; std::_String_val<std::_Simple_types<char> >::_Myptr
	add	eax, DWORD PTR __Newsize$[ebp]
	push	eax
	call	?assign@?$char_traits@D@std@@SAXAADABD@Z ; std::char_traits<char>::assign
	add	esp, 8

; 2219 : 		}

	mov	esp, ebp
	pop	ebp
	ret	4
?_Eos@?$basic_string@DU?$char_traits@D@std@@V?$allocator@D@2@@std@@QAEXI@Z ENDP ; std::basic_string<char,std::char_traits<char>,std::allocator<char> >::_Eos
_TEXT	ENDS
; Function compile flags: /Odtp
; File c:\program files (x86)\microsoft visual studio 11.0\vc\include\xstring
;	COMDAT ?_Copy@?$basic_string@DU?$char_traits@D@std@@V?$allocator@D@2@@std@@QAEXII@Z
_TEXT	SEGMENT
tv205 = -48						; size = 4
tv204 = -44						; size = 4
tv203 = -40						; size = 4
tv202 = -36						; size = 4
__Ptr$ = -32						; size = 4
__Newres$ = -28						; size = 4
_this$ = -24						; size = 4
$T2 = -19						; size = 1
$T3 = -18						; size = 1
$T4 = -17						; size = 1
__$EHRec$ = -16						; size = 16
__Newsize$ = 8						; size = 4
__Oldlen$ = 12						; size = 4
?_Copy@?$basic_string@DU?$char_traits@D@std@@V?$allocator@D@2@@std@@QAEXII@Z PROC ; std::basic_string<char,std::char_traits<char>,std::allocator<char> >::_Copy, COMDAT
; _this$ = ecx

; 2182 : 		{	// copy _Oldlen elements to newly allocated buffer

	push	ebp
	mov	ebp, esp
	push	-1
	push	__ehhandler$?_Copy@?$basic_string@DU?$char_traits@D@std@@V?$allocator@D@2@@std@@QAEXII@Z
	mov	eax, DWORD PTR fs:0
	push	eax
	push	ecx
	sub	esp, 32					; 00000020H
	push	ebx
	push	esi
	push	edi
	mov	eax, DWORD PTR ___security_cookie
	xor	eax, ebp
	push	eax
	lea	eax, DWORD PTR __$EHRec$[ebp+4]
	mov	DWORD PTR fs:0, eax
	mov	DWORD PTR __$EHRec$[ebp], esp
	mov	DWORD PTR _this$[ebp], ecx

; 2183 : 		size_type _Newres = _Newsize | this->_ALLOC_MASK;

	mov	eax, DWORD PTR __Newsize$[ebp]
	or	eax, 15					; 0000000fH
	mov	DWORD PTR __Newres$[ebp], eax

; 2184 : 		if (max_size() < _Newres)

	mov	ecx, DWORD PTR _this$[ebp]
	call	?max_size@?$basic_string@DU?$char_traits@D@std@@V?$allocator@D@2@@std@@QBEIXZ ; std::basic_string<char,std::char_traits<char>,std::allocator<char> >::max_size
	cmp	eax, DWORD PTR __Newres$[ebp]
	jae	SHORT $LN9@Copy

; 2185 : 			_Newres = _Newsize;	// undo roundup if too big

	mov	ecx, DWORD PTR __Newsize$[ebp]
	mov	DWORD PTR __Newres$[ebp], ecx
	jmp	SHORT $LN8@Copy
$LN9@Copy:

; 2186 : 		else if (this->_Myres / 2 <= _Newres / 3)

	mov	eax, DWORD PTR __Newres$[ebp]
	xor	edx, edx
	mov	ecx, 3
	div	ecx
	mov	edx, DWORD PTR _this$[ebp]
	mov	ecx, DWORD PTR [edx+20]
	shr	ecx, 1
	cmp	ecx, eax
	ja	SHORT $LN7@Copy
	jmp	SHORT $LN8@Copy
$LN7@Copy:

; 2187 : 			;
; 2188 : 		else if (this->_Myres <= max_size() - this->_Myres / 2)

	mov	edx, DWORD PTR _this$[ebp]
	mov	esi, DWORD PTR [edx+20]
	shr	esi, 1
	mov	ecx, DWORD PTR _this$[ebp]
	call	?max_size@?$basic_string@DU?$char_traits@D@std@@V?$allocator@D@2@@std@@QBEIXZ ; std::basic_string<char,std::char_traits<char>,std::allocator<char> >::max_size
	sub	eax, esi
	mov	ecx, DWORD PTR _this$[ebp]
	cmp	DWORD PTR [ecx+20], eax
	ja	SHORT $LN5@Copy

; 2189 : 			_Newres = this->_Myres
; 2190 : 				+ this->_Myres / 2;	// grow exponentially if possible

	mov	edx, DWORD PTR _this$[ebp]
	mov	eax, DWORD PTR [edx+20]
	shr	eax, 1
	mov	ecx, DWORD PTR _this$[ebp]
	add	eax, DWORD PTR [ecx+20]
	mov	DWORD PTR __Newres$[ebp], eax

; 2191 : 		else

	jmp	SHORT $LN8@Copy
$LN5@Copy:

; 2192 : 			_Newres = max_size();	// settle for max_size()

	mov	ecx, DWORD PTR _this$[ebp]
	call	?max_size@?$basic_string@DU?$char_traits@D@std@@V?$allocator@D@2@@std@@QBEIXZ ; std::basic_string<char,std::char_traits<char>,std::allocator<char> >::max_size
	mov	DWORD PTR __Newres$[ebp], eax
$LN8@Copy:

; 2193 : 
; 2194 : 		_Elem *_Ptr;
; 2195 : 		_TRY_BEGIN

	mov	DWORD PTR __$EHRec$[ebp+12], 0

; 2196 : 			_Ptr = this->_Getal().allocate(_Newres + 1);

	lea	edx, DWORD PTR $T4[ebp]
	push	edx
	mov	ecx, DWORD PTR _this$[ebp]
	call	?_Getal@?$_String_alloc@$0A@U?$_String_base_types@DV?$allocator@D@std@@@std@@@std@@QBE?AU?$_Wrap_alloc@V?$allocator@D@std@@@2@XZ ; std::_String_alloc<0,std::_String_base_types<char,std::allocator<char> > >::_Getal
	mov	DWORD PTR tv202[ebp], eax
	mov	eax, DWORD PTR __Newres$[ebp]
	add	eax, 1
	push	eax
	mov	ecx, DWORD PTR tv202[ebp]
	call	?allocate@?$_Wrap_alloc@V?$allocator@D@std@@@std@@QAEPADI@Z ; std::_Wrap_alloc<std::allocator<char> >::allocate
	mov	DWORD PTR tv203[ebp], eax
	mov	ecx, DWORD PTR tv203[ebp]
	mov	DWORD PTR __Ptr$[ebp], ecx
	jmp	SHORT $LN12@Copy
__catch$?_Copy@?$basic_string@DU?$char_traits@D@std@@V?$allocator@D@2@@std@@QAEXII@Z$0:

; 2197 : 		_CATCH_ALL

	mov	DWORD PTR __$EHRec$[ebp], esp

; 2198 : 			_Newres = _Newsize;	// allocation failed, undo roundup and retry

	mov	edx, DWORD PTR __Newsize$[ebp]
	mov	DWORD PTR __Newres$[ebp], edx

; 2199 : 			_TRY_BEGIN

	mov	BYTE PTR __$EHRec$[ebp+12], 2

; 2200 : 				_Ptr = this->_Getal().allocate(_Newres + 1);

	lea	eax, DWORD PTR $T3[ebp]
	push	eax
	mov	ecx, DWORD PTR _this$[ebp]
	call	?_Getal@?$_String_alloc@$0A@U?$_String_base_types@DV?$allocator@D@std@@@std@@@std@@QBE?AU?$_Wrap_alloc@V?$allocator@D@std@@@2@XZ ; std::_String_alloc<0,std::_String_base_types<char,std::allocator<char> > >::_Getal
	mov	DWORD PTR tv204[ebp], eax
	mov	ecx, DWORD PTR __Newres$[ebp]
	add	ecx, 1
	push	ecx
	mov	ecx, DWORD PTR tv204[ebp]
	call	?allocate@?$_Wrap_alloc@V?$allocator@D@std@@@std@@QAEPADI@Z ; std::_Wrap_alloc<std::allocator<char> >::allocate
	mov	DWORD PTR tv205[ebp], eax
	mov	edx, DWORD PTR tv205[ebp]
	mov	DWORD PTR __Ptr$[ebp], edx
	jmp	SHORT $LN14@Copy
__catch$?_Copy@?$basic_string@DU?$char_traits@D@std@@V?$allocator@D@2@@std@@QAEXII@Z$1:

; 2201 : 			_CATCH_ALL
; 2202 : 			_Tidy(true);	// failed again, discard storage and reraise

	push	0
	push	1
	mov	ecx, DWORD PTR _this$[ebp]
	call	?_Tidy@?$basic_string@DU?$char_traits@D@std@@V?$allocator@D@2@@std@@QAEX_NI@Z ; std::basic_string<char,std::char_traits<char>,std::allocator<char> >::_Tidy

; 2203 : 			_RERAISE;

	push	0
	push	0
	call	__CxxThrowException@8

; 2204 : 			_CATCH_END

	mov	eax, $LN17@Copy
	ret	0
$LN14@Copy:
	mov	DWORD PTR __$EHRec$[ebp+12], 1
	jmp	SHORT __tryend$?_Copy@?$basic_string@DU?$char_traits@D@std@@V?$allocator@D@2@@std@@QAEXII@Z$2
$LN17@Copy:
	mov	DWORD PTR __$EHRec$[ebp+12], 1
__tryend$?_Copy@?$basic_string@DU?$char_traits@D@std@@V?$allocator@D@2@@std@@QAEXII@Z$2:

; 2205 : 		_CATCH_END

	mov	eax, $LN19@Copy
	ret	0
$LN12@Copy:
	mov	DWORD PTR __$EHRec$[ebp+12], -1
	jmp	SHORT __tryend$?_Copy@?$basic_string@DU?$char_traits@D@std@@V?$allocator@D@2@@std@@QAEXII@Z$3
$LN19@Copy:
	mov	DWORD PTR __$EHRec$[ebp+12], -1
__tryend$?_Copy@?$basic_string@DU?$char_traits@D@std@@V?$allocator@D@2@@std@@QAEXII@Z$3:

; 2206 : 
; 2207 : 		if (0 < _Oldlen)

	cmp	DWORD PTR __Oldlen$[ebp], 0
	jbe	SHORT $LN1@Copy

; 2208 : 			_Traits::copy(_Ptr, this->_Myptr(),
; 2209 : 				_Oldlen);	// copy existing elements

	mov	eax, DWORD PTR __Oldlen$[ebp]
	push	eax
	mov	ecx, DWORD PTR _this$[ebp]
	call	?_Myptr@?$_String_val@U?$_Simple_types@D@std@@@std@@QAEPADXZ ; std::_String_val<std::_Simple_types<char> >::_Myptr
	push	eax
	mov	ecx, DWORD PTR __Ptr$[ebp]
	push	ecx
	call	?copy@?$char_traits@D@std@@SAPADPADPBDI@Z ; std::char_traits<char>::copy
	add	esp, 12					; 0000000cH
$LN1@Copy:

; 2210 : 		_Tidy(true);

	push	0
	push	1
	mov	ecx, DWORD PTR _this$[ebp]
	call	?_Tidy@?$basic_string@DU?$char_traits@D@std@@V?$allocator@D@2@@std@@QAEX_NI@Z ; std::basic_string<char,std::char_traits<char>,std::allocator<char> >::_Tidy

; 2211 : 		this->_Getal().construct(&this->_Bx._Ptr, _Ptr);

	lea	edx, DWORD PTR __Ptr$[ebp]
	push	edx
	mov	eax, DWORD PTR _this$[ebp]
	push	eax
	lea	ecx, DWORD PTR $T2[ebp]
	push	ecx
	mov	ecx, DWORD PTR _this$[ebp]
	call	?_Getal@?$_String_alloc@$0A@U?$_String_base_types@DV?$allocator@D@std@@@std@@@std@@QBE?AU?$_Wrap_alloc@V?$allocator@D@std@@@2@XZ ; std::_String_alloc<0,std::_String_base_types<char,std::allocator<char> > >::_Getal
	mov	ecx, eax
	call	??$construct@PADAAPAD@?$_Wrap_alloc@V?$allocator@D@std@@@std@@QAEXPAPADAAPAD@Z ; std::_Wrap_alloc<std::allocator<char> >::construct<char *,char * &>

; 2212 : 		this->_Myres = _Newres;

	mov	edx, DWORD PTR _this$[ebp]
	mov	eax, DWORD PTR __Newres$[ebp]
	mov	DWORD PTR [edx+20], eax

; 2213 : 		_Eos(_Oldlen);

	mov	ecx, DWORD PTR __Oldlen$[ebp]
	push	ecx
	mov	ecx, DWORD PTR _this$[ebp]
	call	?_Eos@?$basic_string@DU?$char_traits@D@std@@V?$allocator@D@2@@std@@QAEXI@Z ; std::basic_string<char,std::char_traits<char>,std::allocator<char> >::_Eos
$LN11@Copy:

; 2214 : 		}

	mov	ecx, DWORD PTR __$EHRec$[ebp+4]
	mov	DWORD PTR fs:0, ecx
	pop	ecx
	pop	edi
	pop	esi
	pop	ebx
	mov	esp, ebp
	pop	ebp
	ret	8
_TEXT	ENDS
;	COMDAT text$x
text$x	SEGMENT
__ehhandler$?_Copy@?$basic_string@DU?$char_traits@D@std@@V?$allocator@D@2@@std@@QAEXII@Z:
	mov	edx, DWORD PTR [esp+8]
	lea	eax, DWORD PTR [edx+12]
	mov	ecx, DWORD PTR [edx-52]
	xor	ecx, eax
	call	@__security_check_cookie@4
	mov	eax, OFFSET __ehfuncinfo$?_Copy@?$basic_string@DU?$char_traits@D@std@@V?$allocator@D@2@@std@@QAEXII@Z
	jmp	___CxxFrameHandler3
text$x	ENDS
?_Copy@?$basic_string@DU?$char_traits@D@std@@V?$allocator@D@2@@std@@QAEXII@Z ENDP ; std::basic_string<char,std::char_traits<char>,std::allocator<char> >::_Copy
; Function compile flags: /Odtp
; File c:\program files (x86)\microsoft visual studio 11.0\vc\include\xstring
;	COMDAT ?max_size@?$basic_string@DU?$char_traits@D@std@@V?$allocator@D@2@@std@@QBEIXZ
_TEXT	SEGMENT
_this$ = -16						; size = 4
tv75 = -12						; size = 4
__Num$ = -8						; size = 4
$T1 = -1						; size = 1
?max_size@?$basic_string@DU?$char_traits@D@std@@V?$allocator@D@2@@std@@QBEIXZ PROC ; std::basic_string<char,std::char_traits<char>,std::allocator<char> >::max_size, COMDAT
; _this$ = ecx

; 1737 : 		{	// return maximum possible length of sequence

	push	ebp
	mov	ebp, esp
	sub	esp, 16					; 00000010H
	mov	DWORD PTR _this$[ebp], ecx

; 1738 : 		size_type _Num = this->_Getal().max_size();

	lea	eax, DWORD PTR $T1[ebp]
	push	eax
	mov	ecx, DWORD PTR _this$[ebp]
	call	?_Getal@?$_String_alloc@$0A@U?$_String_base_types@DV?$allocator@D@std@@@std@@@std@@QBE?AU?$_Wrap_alloc@V?$allocator@D@std@@@2@XZ ; std::_String_alloc<0,std::_String_base_types<char,std::allocator<char> > >::_Getal
	mov	ecx, eax
	call	?max_size@?$_Wrap_alloc@V?$allocator@D@std@@@std@@QBEIXZ ; std::_Wrap_alloc<std::allocator<char> >::max_size
	mov	DWORD PTR __Num$[ebp], eax

; 1739 : 		return (_Num <= 1 ? 1 : _Num - 1);

	cmp	DWORD PTR __Num$[ebp], 1
	ja	SHORT $LN3@max_size
	mov	DWORD PTR tv75[ebp], 1
	jmp	SHORT $LN4@max_size
$LN3@max_size:
	mov	ecx, DWORD PTR __Num$[ebp]
	sub	ecx, 1
	mov	DWORD PTR tv75[ebp], ecx
$LN4@max_size:
	mov	eax, DWORD PTR tv75[ebp]

; 1740 : 		}

	mov	esp, ebp
	pop	ebp
	ret	0
?max_size@?$basic_string@DU?$char_traits@D@std@@V?$allocator@D@2@@std@@QBEIXZ ENDP ; std::basic_string<char,std::char_traits<char>,std::allocator<char> >::max_size
_TEXT	ENDS
; Function compile flags: /Odtp
; File c:\program files (x86)\microsoft visual studio 11.0\vc\include\xstring
;	COMDAT ?size@?$basic_string@DU?$char_traits@D@std@@V?$allocator@D@2@@std@@QBEIXZ
_TEXT	SEGMENT
_this$ = -4						; size = 4
?size@?$basic_string@DU?$char_traits@D@std@@V?$allocator@D@2@@std@@QBEIXZ PROC ; std::basic_string<char,std::char_traits<char>,std::allocator<char> >::size, COMDAT
; _this$ = ecx

; 1732 : 		{	// return length of sequence

	push	ebp
	mov	ebp, esp
	push	ecx
	mov	DWORD PTR _this$[ebp], ecx

; 1733 : 		return (this->_Mysize);

	mov	eax, DWORD PTR _this$[ebp]
	mov	eax, DWORD PTR [eax+16]

; 1734 : 		}

	mov	esp, ebp
	pop	ebp
	ret	0
?size@?$basic_string@DU?$char_traits@D@std@@V?$allocator@D@2@@std@@QBEIXZ ENDP ; std::basic_string<char,std::char_traits<char>,std::allocator<char> >::size
_TEXT	ENDS
; Function compile flags: /Odtp
; File c:\program files (x86)\microsoft visual studio 11.0\vc\include\xstring
;	COMDAT ?erase@?$basic_string@DU?$char_traits@D@std@@V?$allocator@D@2@@std@@QAEAAV12@II@Z
_TEXT	SEGMENT
__Newsize$1 = -12					; size = 4
__Ptr$2 = -8						; size = 4
_this$ = -4						; size = 4
__Off$ = 8						; size = 4
__Count$ = 12						; size = 4
?erase@?$basic_string@DU?$char_traits@D@std@@V?$allocator@D@2@@std@@QAEAAV12@II@Z PROC ; std::basic_string<char,std::char_traits<char>,std::allocator<char> >::erase, COMDAT
; _this$ = ecx

; 1317 : 		{	// erase elements [_Off, _Off + _Count)

	push	ebp
	mov	ebp, esp
	sub	esp, 12					; 0000000cH
	mov	DWORD PTR _this$[ebp], ecx

; 1318 : 		if (this->_Mysize < _Off)

	mov	eax, DWORD PTR _this$[ebp]
	mov	ecx, DWORD PTR [eax+16]
	cmp	ecx, DWORD PTR __Off$[ebp]
	jae	SHORT $LN4@erase

; 1319 : 			_Xran();	// _Off off end

	mov	ecx, DWORD PTR _this$[ebp]
	call	?_Xran@?$basic_string@DU?$char_traits@D@std@@V?$allocator@D@2@@std@@QBEXXZ ; std::basic_string<char,std::char_traits<char>,std::allocator<char> >::_Xran
$LN4@erase:

; 1320 : 		if (this->_Mysize - _Off <= _Count)

	mov	edx, DWORD PTR _this$[ebp]
	mov	eax, DWORD PTR [edx+16]
	sub	eax, DWORD PTR __Off$[ebp]
	cmp	eax, DWORD PTR __Count$[ebp]
	ja	SHORT $LN3@erase

; 1321 : 			_Eos(_Off);	// erase elements [_Off, ...)

	mov	ecx, DWORD PTR __Off$[ebp]
	push	ecx
	mov	ecx, DWORD PTR _this$[ebp]
	call	?_Eos@?$basic_string@DU?$char_traits@D@std@@V?$allocator@D@2@@std@@QAEXI@Z ; std::basic_string<char,std::char_traits<char>,std::allocator<char> >::_Eos
	jmp	SHORT $LN2@erase
$LN3@erase:

; 1322 : 		else if (0 < _Count)

	cmp	DWORD PTR __Count$[ebp], 0
	jbe	SHORT $LN2@erase

; 1323 : 			{	// move elements down
; 1324 : 			value_type *_Ptr = this->_Myptr() + _Off;

	mov	ecx, DWORD PTR _this$[ebp]
	call	?_Myptr@?$_String_val@U?$_Simple_types@D@std@@@std@@QAEPADXZ ; std::_String_val<std::_Simple_types<char> >::_Myptr
	add	eax, DWORD PTR __Off$[ebp]
	mov	DWORD PTR __Ptr$2[ebp], eax

; 1325 : 			size_type _Newsize = this->_Mysize - _Count;

	mov	edx, DWORD PTR _this$[ebp]
	mov	eax, DWORD PTR [edx+16]
	sub	eax, DWORD PTR __Count$[ebp]
	mov	DWORD PTR __Newsize$1[ebp], eax

; 1326 : 			_Traits::move(_Ptr, _Ptr + _Count, _Newsize - _Off);

	mov	ecx, DWORD PTR __Newsize$1[ebp]
	sub	ecx, DWORD PTR __Off$[ebp]
	push	ecx
	mov	edx, DWORD PTR __Ptr$2[ebp]
	add	edx, DWORD PTR __Count$[ebp]
	push	edx
	mov	eax, DWORD PTR __Ptr$2[ebp]
	push	eax
	call	?move@?$char_traits@D@std@@SAPADPADPBDI@Z ; std::char_traits<char>::move
	add	esp, 12					; 0000000cH

; 1327 : 			_Eos(_Newsize);

	mov	ecx, DWORD PTR __Newsize$1[ebp]
	push	ecx
	mov	ecx, DWORD PTR _this$[ebp]
	call	?_Eos@?$basic_string@DU?$char_traits@D@std@@V?$allocator@D@2@@std@@QAEXI@Z ; std::basic_string<char,std::char_traits<char>,std::allocator<char> >::_Eos
$LN2@erase:

; 1328 : 			}
; 1329 : 		return (*this);

	mov	eax, DWORD PTR _this$[ebp]
$LN6@erase:

; 1330 : 		}

	mov	esp, ebp
	pop	ebp
	ret	8
?erase@?$basic_string@DU?$char_traits@D@std@@V?$allocator@D@2@@std@@QAEAAV12@II@Z ENDP ; std::basic_string<char,std::char_traits<char>,std::allocator<char> >::erase
_TEXT	ENDS
; Function compile flags: /Odtp
; File c:\program files (x86)\microsoft visual studio 11.0\vc\include\xstring
;	COMDAT ?erase@?$basic_string@DU?$char_traits@D@std@@V?$allocator@D@2@@std@@QAEAAV12@I@Z
_TEXT	SEGMENT
_this$ = -4						; size = 4
__Off$ = 8						; size = 4
?erase@?$basic_string@DU?$char_traits@D@std@@V?$allocator@D@2@@std@@QAEAAV12@I@Z PROC ; std::basic_string<char,std::char_traits<char>,std::allocator<char> >::erase, COMDAT
; _this$ = ecx

; 1309 : 		{	// erase elements [_Off, ...)

	push	ebp
	mov	ebp, esp
	push	ecx
	mov	DWORD PTR _this$[ebp], ecx

; 1310 : 		if (this->_Mysize < _Off)

	mov	eax, DWORD PTR _this$[ebp]
	mov	ecx, DWORD PTR [eax+16]
	cmp	ecx, DWORD PTR __Off$[ebp]
	jae	SHORT $LN1@erase

; 1311 : 			_Xran();	// _Off off end

	mov	ecx, DWORD PTR _this$[ebp]
	call	?_Xran@?$basic_string@DU?$char_traits@D@std@@V?$allocator@D@2@@std@@QBEXXZ ; std::basic_string<char,std::char_traits<char>,std::allocator<char> >::_Xran
$LN1@erase:

; 1312 : 		_Eos(_Off);

	mov	edx, DWORD PTR __Off$[ebp]
	push	edx
	mov	ecx, DWORD PTR _this$[ebp]
	call	?_Eos@?$basic_string@DU?$char_traits@D@std@@V?$allocator@D@2@@std@@QAEXI@Z ; std::basic_string<char,std::char_traits<char>,std::allocator<char> >::_Eos

; 1313 : 		return (*this);

	mov	eax, DWORD PTR _this$[ebp]
$LN3@erase:

; 1314 : 		}

	mov	esp, ebp
	pop	ebp
	ret	4
?erase@?$basic_string@DU?$char_traits@D@std@@V?$allocator@D@2@@std@@QAEAAV12@I@Z ENDP ; std::basic_string<char,std::char_traits<char>,std::allocator<char> >::erase
_TEXT	ENDS
; Function compile flags: /Odtp
; File c:\program files (x86)\microsoft visual studio 11.0\vc\include\xstring
;	COMDAT ?assign@?$basic_string@DU?$char_traits@D@std@@V?$allocator@D@2@@std@@QAEAAV12@PBD@Z
_TEXT	SEGMENT
_this$ = -4						; size = 4
__Ptr$ = 8						; size = 4
?assign@?$basic_string@DU?$char_traits@D@std@@V?$allocator@D@2@@std@@QAEAAV12@PBD@Z PROC ; std::basic_string<char,std::char_traits<char>,std::allocator<char> >::assign, COMDAT
; _this$ = ecx

; 1142 : 		{	// assign [_Ptr, <null>)

	push	ebp
	mov	ebp, esp
	push	ecx
	mov	DWORD PTR _this$[ebp], ecx

; 1143 : 		_DEBUG_POINTER(_Ptr);
; 1144 : 		return (assign(_Ptr, _Traits::length(_Ptr)));

	mov	eax, DWORD PTR __Ptr$[ebp]
	push	eax
	call	?length@?$char_traits@D@std@@SAIPBD@Z	; std::char_traits<char>::length
	add	esp, 4
	push	eax
	mov	ecx, DWORD PTR __Ptr$[ebp]
	push	ecx
	mov	ecx, DWORD PTR _this$[ebp]
	call	?assign@?$basic_string@DU?$char_traits@D@std@@V?$allocator@D@2@@std@@QAEAAV12@PBDI@Z ; std::basic_string<char,std::char_traits<char>,std::allocator<char> >::assign

; 1145 : 		}

	mov	esp, ebp
	pop	ebp
	ret	4
?assign@?$basic_string@DU?$char_traits@D@std@@V?$allocator@D@2@@std@@QAEAAV12@PBD@Z ENDP ; std::basic_string<char,std::char_traits<char>,std::allocator<char> >::assign
_TEXT	ENDS
; Function compile flags: /Odtp
; File c:\program files (x86)\microsoft visual studio 11.0\vc\include\xstring
;	COMDAT ?assign@?$basic_string@DU?$char_traits@D@std@@V?$allocator@D@2@@std@@QAEAAV12@PBDI@Z
_TEXT	SEGMENT
_this$ = -4						; size = 4
__Ptr$ = 8						; size = 4
__Count$ = 12						; size = 4
?assign@?$basic_string@DU?$char_traits@D@std@@V?$allocator@D@2@@std@@QAEAAV12@PBDI@Z PROC ; std::basic_string<char,std::char_traits<char>,std::allocator<char> >::assign, COMDAT
; _this$ = ecx

; 1123 : 		{	// assign [_Ptr, _Ptr + _Count)

	push	ebp
	mov	ebp, esp
	push	ecx
	mov	DWORD PTR _this$[ebp], ecx

; 1124 :  #if _ITERATOR_DEBUG_LEVEL == 2
; 1125 : 		if (_Count != 0)
; 1126 : 			_DEBUG_POINTER(_Ptr);
; 1127 :  #endif /* _ITERATOR_DEBUG_LEVEL == 2 */
; 1128 : 
; 1129 : 		if (_Inside(_Ptr))

	mov	eax, DWORD PTR __Ptr$[ebp]
	push	eax
	mov	ecx, DWORD PTR _this$[ebp]
	call	?_Inside@?$basic_string@DU?$char_traits@D@std@@V?$allocator@D@2@@std@@QAE_NPBD@Z ; std::basic_string<char,std::char_traits<char>,std::allocator<char> >::_Inside
	movzx	ecx, al
	test	ecx, ecx
	je	SHORT $LN2@assign

; 1130 : 			return (assign(*this,
; 1131 : 				_Ptr - this->_Myptr(), _Count));	// substring

	mov	edx, DWORD PTR __Count$[ebp]
	push	edx
	mov	ecx, DWORD PTR _this$[ebp]
	call	?_Myptr@?$_String_val@U?$_Simple_types@D@std@@@std@@QAEPADXZ ; std::_String_val<std::_Simple_types<char> >::_Myptr
	mov	ecx, DWORD PTR __Ptr$[ebp]
	sub	ecx, eax
	push	ecx
	mov	edx, DWORD PTR _this$[ebp]
	push	edx
	mov	ecx, DWORD PTR _this$[ebp]
	call	?assign@?$basic_string@DU?$char_traits@D@std@@V?$allocator@D@2@@std@@QAEAAV12@ABV12@II@Z ; std::basic_string<char,std::char_traits<char>,std::allocator<char> >::assign
	jmp	SHORT $LN3@assign
$LN2@assign:

; 1132 : 
; 1133 : 		if (_Grow(_Count))

	push	0
	mov	eax, DWORD PTR __Count$[ebp]
	push	eax
	mov	ecx, DWORD PTR _this$[ebp]
	call	?_Grow@?$basic_string@DU?$char_traits@D@std@@V?$allocator@D@2@@std@@QAE_NI_N@Z ; std::basic_string<char,std::char_traits<char>,std::allocator<char> >::_Grow
	movzx	ecx, al
	test	ecx, ecx
	je	SHORT $LN1@assign

; 1134 : 			{	// make room and assign new stuff
; 1135 : 			_Traits::copy(this->_Myptr(), _Ptr, _Count);

	mov	edx, DWORD PTR __Count$[ebp]
	push	edx
	mov	eax, DWORD PTR __Ptr$[ebp]
	push	eax
	mov	ecx, DWORD PTR _this$[ebp]
	call	?_Myptr@?$_String_val@U?$_Simple_types@D@std@@@std@@QAEPADXZ ; std::_String_val<std::_Simple_types<char> >::_Myptr
	push	eax
	call	?copy@?$char_traits@D@std@@SAPADPADPBDI@Z ; std::char_traits<char>::copy
	add	esp, 12					; 0000000cH

; 1136 : 			_Eos(_Count);

	mov	ecx, DWORD PTR __Count$[ebp]
	push	ecx
	mov	ecx, DWORD PTR _this$[ebp]
	call	?_Eos@?$basic_string@DU?$char_traits@D@std@@V?$allocator@D@2@@std@@QAEXI@Z ; std::basic_string<char,std::char_traits<char>,std::allocator<char> >::_Eos
$LN1@assign:

; 1137 : 			}
; 1138 : 		return (*this);

	mov	eax, DWORD PTR _this$[ebp]
$LN3@assign:

; 1139 : 		}

	mov	esp, ebp
	pop	ebp
	ret	8
?assign@?$basic_string@DU?$char_traits@D@std@@V?$allocator@D@2@@std@@QAEAAV12@PBDI@Z ENDP ; std::basic_string<char,std::char_traits<char>,std::allocator<char> >::assign
_TEXT	ENDS
; Function compile flags: /Odtp
; File c:\program files (x86)\microsoft visual studio 11.0\vc\include\xstring
;	COMDAT ?assign@?$basic_string@DU?$char_traits@D@std@@V?$allocator@D@2@@std@@QAEAAV12@ABV12@II@Z
_TEXT	SEGMENT
__Num$ = -8						; size = 4
_this$ = -4						; size = 4
__Right$ = 8						; size = 4
__Roff$ = 12						; size = 4
__Count$ = 16						; size = 4
?assign@?$basic_string@DU?$char_traits@D@std@@V?$allocator@D@2@@std@@QAEAAV12@ABV12@II@Z PROC ; std::basic_string<char,std::char_traits<char>,std::allocator<char> >::assign, COMDAT
; _this$ = ecx

; 1104 : 		{	// assign _Right [_Roff, _Roff + _Count)

	push	ebp
	mov	ebp, esp
	sub	esp, 8
	mov	DWORD PTR _this$[ebp], ecx

; 1105 : 		if (_Right.size() < _Roff)

	mov	ecx, DWORD PTR __Right$[ebp]
	call	?size@?$basic_string@DU?$char_traits@D@std@@V?$allocator@D@2@@std@@QBEIXZ ; std::basic_string<char,std::char_traits<char>,std::allocator<char> >::size
	cmp	eax, DWORD PTR __Roff$[ebp]
	jae	SHORT $LN5@assign

; 1106 : 			_Xran();	// _Roff off end

	mov	ecx, DWORD PTR _this$[ebp]
	call	?_Xran@?$basic_string@DU?$char_traits@D@std@@V?$allocator@D@2@@std@@QBEXXZ ; std::basic_string<char,std::char_traits<char>,std::allocator<char> >::_Xran
$LN5@assign:

; 1107 : 		size_type _Num = _Right.size() - _Roff;

	mov	ecx, DWORD PTR __Right$[ebp]
	call	?size@?$basic_string@DU?$char_traits@D@std@@V?$allocator@D@2@@std@@QBEIXZ ; std::basic_string<char,std::char_traits<char>,std::allocator<char> >::size
	sub	eax, DWORD PTR __Roff$[ebp]
	mov	DWORD PTR __Num$[ebp], eax

; 1108 : 		if (_Count < _Num)

	mov	eax, DWORD PTR __Count$[ebp]
	cmp	eax, DWORD PTR __Num$[ebp]
	jae	SHORT $LN4@assign

; 1109 : 			_Num = _Count;	// trim _Num to size

	mov	ecx, DWORD PTR __Count$[ebp]
	mov	DWORD PTR __Num$[ebp], ecx
$LN4@assign:

; 1110 : 
; 1111 : 		if (this == &_Right)

	mov	edx, DWORD PTR _this$[ebp]
	cmp	edx, DWORD PTR __Right$[ebp]
	jne	SHORT $LN3@assign

; 1112 : 			erase((size_type)(_Roff + _Num)), erase(0, _Roff);	// substring

	mov	eax, DWORD PTR __Roff$[ebp]
	add	eax, DWORD PTR __Num$[ebp]
	push	eax
	mov	ecx, DWORD PTR _this$[ebp]
	call	?erase@?$basic_string@DU?$char_traits@D@std@@V?$allocator@D@2@@std@@QAEAAV12@I@Z ; std::basic_string<char,std::char_traits<char>,std::allocator<char> >::erase
	mov	ecx, DWORD PTR __Roff$[ebp]
	push	ecx
	push	0
	mov	ecx, DWORD PTR _this$[ebp]
	call	?erase@?$basic_string@DU?$char_traits@D@std@@V?$allocator@D@2@@std@@QAEAAV12@II@Z ; std::basic_string<char,std::char_traits<char>,std::allocator<char> >::erase
	jmp	SHORT $LN2@assign
$LN3@assign:

; 1113 : 		else if (_Grow(_Num))

	push	0
	mov	edx, DWORD PTR __Num$[ebp]
	push	edx
	mov	ecx, DWORD PTR _this$[ebp]
	call	?_Grow@?$basic_string@DU?$char_traits@D@std@@V?$allocator@D@2@@std@@QAE_NI_N@Z ; std::basic_string<char,std::char_traits<char>,std::allocator<char> >::_Grow
	movzx	eax, al
	test	eax, eax
	je	SHORT $LN2@assign

; 1114 : 			{	// make room and assign new stuff
; 1115 : 			_Traits::copy(this->_Myptr(),
; 1116 : 				_Right._Myptr() + _Roff, _Num);

	mov	ecx, DWORD PTR __Num$[ebp]
	push	ecx
	mov	ecx, DWORD PTR __Right$[ebp]
	call	?_Myptr@?$_String_val@U?$_Simple_types@D@std@@@std@@QBEPBDXZ ; std::_String_val<std::_Simple_types<char> >::_Myptr
	add	eax, DWORD PTR __Roff$[ebp]
	push	eax
	mov	ecx, DWORD PTR _this$[ebp]
	call	?_Myptr@?$_String_val@U?$_Simple_types@D@std@@@std@@QAEPADXZ ; std::_String_val<std::_Simple_types<char> >::_Myptr
	push	eax
	call	?copy@?$char_traits@D@std@@SAPADPADPBDI@Z ; std::char_traits<char>::copy
	add	esp, 12					; 0000000cH

; 1117 : 			_Eos(_Num);

	mov	edx, DWORD PTR __Num$[ebp]
	push	edx
	mov	ecx, DWORD PTR _this$[ebp]
	call	?_Eos@?$basic_string@DU?$char_traits@D@std@@V?$allocator@D@2@@std@@QAEXI@Z ; std::basic_string<char,std::char_traits<char>,std::allocator<char> >::_Eos
$LN2@assign:

; 1118 : 			}
; 1119 : 		return (*this);

	mov	eax, DWORD PTR _this$[ebp]
$LN7@assign:

; 1120 : 		}

	mov	esp, ebp
	pop	ebp
	ret	12					; 0000000cH
?assign@?$basic_string@DU?$char_traits@D@std@@V?$allocator@D@2@@std@@QAEAAV12@ABV12@II@Z ENDP ; std::basic_string<char,std::char_traits<char>,std::allocator<char> >::assign
_TEXT	ENDS
; Function compile flags: /Odtp
; File c:\program files (x86)\microsoft visual studio 11.0\vc\include\xstring
;	COMDAT ??0?$basic_string@DU?$char_traits@D@std@@V?$allocator@D@2@@std@@QAE@PBD@Z
_TEXT	SEGMENT
_this$ = -8						; size = 4
$T1 = -1						; size = 1
__Ptr$ = 8						; size = 4
??0?$basic_string@DU?$char_traits@D@std@@V?$allocator@D@2@@std@@QAE@PBD@Z PROC ; std::basic_string<char,std::char_traits<char>,std::allocator<char> >::basic_string<char,std::char_traits<char>,std::allocator<char> >, COMDAT
; _this$ = ecx

; 791  : 		{	// construct from [_Ptr, <null>)

	push	ebp
	mov	ebp, esp
	sub	esp, 8
	mov	DWORD PTR _this$[ebp], ecx
	lea	ecx, DWORD PTR $T1[ebp]
	call	??0?$allocator@D@std@@QAE@XZ		; std::allocator<char>::allocator<char>
	push	eax
	mov	ecx, DWORD PTR _this$[ebp]
	call	??0?$_String_alloc@$0A@U?$_String_base_types@DV?$allocator@D@std@@@std@@@std@@QAE@ABV?$allocator@D@1@@Z ; std::_String_alloc<0,std::_String_base_types<char,std::allocator<char> > >::_String_alloc<0,std::_String_base_types<char,std::allocator<char> > >

; 792  : 		_Tidy();

	push	0
	push	0
	mov	ecx, DWORD PTR _this$[ebp]
	call	?_Tidy@?$basic_string@DU?$char_traits@D@std@@V?$allocator@D@2@@std@@QAEX_NI@Z ; std::basic_string<char,std::char_traits<char>,std::allocator<char> >::_Tidy

; 793  : 		assign(_Ptr);

	mov	eax, DWORD PTR __Ptr$[ebp]
	push	eax
	mov	ecx, DWORD PTR _this$[ebp]
	call	?assign@?$basic_string@DU?$char_traits@D@std@@V?$allocator@D@2@@std@@QAEAAV12@PBD@Z ; std::basic_string<char,std::char_traits<char>,std::allocator<char> >::assign

; 794  : 		}

	mov	eax, DWORD PTR _this$[ebp]
	mov	esp, ebp
	pop	ebp
	ret	4
??0?$basic_string@DU?$char_traits@D@std@@V?$allocator@D@2@@std@@QAE@PBD@Z ENDP ; std::basic_string<char,std::char_traits<char>,std::allocator<char> >::basic_string<char,std::char_traits<char>,std::allocator<char> >
_TEXT	ENDS
; Function compile flags: /Odtp
; File c:\program files (x86)\microsoft visual studio 11.0\vc\include\xstring
;	COMDAT ?_Getal@?$_String_alloc@$0A@U?$_String_base_types@DV?$allocator@D@std@@@std@@@std@@QBE?AU?$_Wrap_alloc@V?$allocator@D@std@@@2@XZ
_TEXT	SEGMENT
_this$ = -4						; size = 4
___$ReturnUdt$ = 8					; size = 4
?_Getal@?$_String_alloc@$0A@U?$_String_base_types@DV?$allocator@D@std@@@std@@@std@@QBE?AU?$_Wrap_alloc@V?$allocator@D@std@@@2@XZ PROC ; std::_String_alloc<0,std::_String_base_types<char,std::allocator<char> > >::_Getal, COMDAT
; _this$ = ecx

; 688  : 		{	// get reference to allocator

	push	ebp
	mov	ebp, esp
	push	ecx
	mov	DWORD PTR _this$[ebp], ecx

; 689  : 		return (_Alty());

	mov	ecx, DWORD PTR ___$ReturnUdt$[ebp]
	call	??0?$_Wrap_alloc@V?$allocator@D@std@@@std@@QAE@XZ ; std::_Wrap_alloc<std::allocator<char> >::_Wrap_alloc<std::allocator<char> >
	mov	eax, DWORD PTR ___$ReturnUdt$[ebp]

; 690  : 		}

	mov	esp, ebp
	pop	ebp
	ret	4
?_Getal@?$_String_alloc@$0A@U?$_String_base_types@DV?$allocator@D@std@@@std@@@std@@QBE?AU?$_Wrap_alloc@V?$allocator@D@std@@@2@XZ ENDP ; std::_String_alloc<0,std::_String_base_types<char,std::allocator<char> > >::_Getal
_TEXT	ENDS
; Function compile flags: /Odtp
; File c:\program files (x86)\microsoft visual studio 11.0\vc\include\xstring
;	COMDAT ??0?$_String_alloc@$0A@U?$_String_base_types@DV?$allocator@D@std@@@std@@@std@@QAE@ABV?$allocator@D@1@@Z
_TEXT	SEGMENT
_this$ = -4						; size = 4
___formal$ = 8						; size = 4
??0?$_String_alloc@$0A@U?$_String_base_types@DV?$allocator@D@std@@@std@@@std@@QAE@ABV?$allocator@D@1@@Z PROC ; std::_String_alloc<0,std::_String_base_types<char,std::allocator<char> > >::_String_alloc<0,std::_String_base_types<char,std::allocator<char> > >, COMDAT
; _this$ = ecx

; 635  : 	_String_alloc(const _Alloc& = _Alloc())

	push	ebp
	mov	ebp, esp
	push	ecx
	mov	DWORD PTR _this$[ebp], ecx
	mov	ecx, DWORD PTR _this$[ebp]
	call	??0?$_String_val@U?$_Simple_types@D@std@@@std@@QAE@XZ ; std::_String_val<std::_Simple_types<char> >::_String_val<std::_Simple_types<char> >

; 636  : 		{	// construct allocator from _Al
; 637  : 		}

	mov	eax, DWORD PTR _this$[ebp]
	mov	esp, ebp
	pop	ebp
	ret	4
??0?$_String_alloc@$0A@U?$_String_base_types@DV?$allocator@D@std@@@std@@@std@@QAE@ABV?$allocator@D@1@@Z ENDP ; std::_String_alloc<0,std::_String_base_types<char,std::allocator<char> > >::_String_alloc<0,std::_String_base_types<char,std::allocator<char> > >
_TEXT	ENDS
; Function compile flags: /Odtp
; File c:\program files (x86)\microsoft visual studio 11.0\vc\include\xstring
;	COMDAT ?_Myptr@?$_String_val@U?$_Simple_types@D@std@@@std@@QBEPBDXZ
_TEXT	SEGMENT
tv72 = -8						; size = 4
_this$ = -4						; size = 4
?_Myptr@?$_String_val@U?$_Simple_types@D@std@@@std@@QBEPBDXZ PROC ; std::_String_val<std::_Simple_types<char> >::_Myptr, COMDAT
; _this$ = ecx

; 521  : 		{	// determine current pointer to buffer for nonmutable string

	push	ebp
	mov	ebp, esp
	sub	esp, 8
	mov	DWORD PTR _this$[ebp], ecx

; 522  : 		return (this->_BUF_SIZE <= this->_Myres
; 523  : 			? _STD addressof(*this->_Bx._Ptr)
; 524  : 			: this->_Bx._Buf);

	mov	eax, DWORD PTR _this$[ebp]
	cmp	DWORD PTR [eax+20], 16			; 00000010H
	jb	SHORT $LN3@Myptr
	mov	ecx, DWORD PTR _this$[ebp]
	mov	edx, DWORD PTR [ecx]
	push	edx
	call	??$addressof@D@std@@YAPADAAD@Z		; std::addressof<char>
	add	esp, 4
	mov	DWORD PTR tv72[ebp], eax
	jmp	SHORT $LN4@Myptr
$LN3@Myptr:
	mov	eax, DWORD PTR _this$[ebp]
	mov	DWORD PTR tv72[ebp], eax
$LN4@Myptr:
	mov	eax, DWORD PTR tv72[ebp]

; 525  : 		}

	mov	esp, ebp
	pop	ebp
	ret	0
?_Myptr@?$_String_val@U?$_Simple_types@D@std@@@std@@QBEPBDXZ ENDP ; std::_String_val<std::_Simple_types<char> >::_Myptr
_TEXT	ENDS
; Function compile flags: /Odtp
; File c:\program files (x86)\microsoft visual studio 11.0\vc\include\xstring
;	COMDAT ?_Myptr@?$_String_val@U?$_Simple_types@D@std@@@std@@QAEPADXZ
_TEXT	SEGMENT
tv72 = -8						; size = 4
_this$ = -4						; size = 4
?_Myptr@?$_String_val@U?$_Simple_types@D@std@@@std@@QAEPADXZ PROC ; std::_String_val<std::_Simple_types<char> >::_Myptr, COMDAT
; _this$ = ecx

; 514  : 		{	// determine current pointer to buffer for mutable string

	push	ebp
	mov	ebp, esp
	sub	esp, 8
	mov	DWORD PTR _this$[ebp], ecx

; 515  : 		return (this->_BUF_SIZE <= this->_Myres
; 516  : 			? _STD addressof(*this->_Bx._Ptr)
; 517  : 			: this->_Bx._Buf);

	mov	eax, DWORD PTR _this$[ebp]
	cmp	DWORD PTR [eax+20], 16			; 00000010H
	jb	SHORT $LN3@Myptr
	mov	ecx, DWORD PTR _this$[ebp]
	mov	edx, DWORD PTR [ecx]
	push	edx
	call	??$addressof@D@std@@YAPADAAD@Z		; std::addressof<char>
	add	esp, 4
	mov	DWORD PTR tv72[ebp], eax
	jmp	SHORT $LN4@Myptr
$LN3@Myptr:
	mov	eax, DWORD PTR _this$[ebp]
	mov	DWORD PTR tv72[ebp], eax
$LN4@Myptr:
	mov	eax, DWORD PTR tv72[ebp]

; 518  : 		}

	mov	esp, ebp
	pop	ebp
	ret	0
?_Myptr@?$_String_val@U?$_Simple_types@D@std@@@std@@QAEPADXZ ENDP ; std::_String_val<std::_Simple_types<char> >::_Myptr
_TEXT	ENDS
; Function compile flags: /Odtp
; File c:\program files (x86)\microsoft visual studio 11.0\vc\include\xstring
;	COMDAT ??0?$_String_val@U?$_Simple_types@D@std@@@std@@QAE@XZ
_TEXT	SEGMENT
_this$ = -4						; size = 4
??0?$_String_val@U?$_Simple_types@D@std@@@std@@QAE@XZ PROC ; std::_String_val<std::_Simple_types<char> >::_String_val<std::_Simple_types<char> >, COMDAT
; _this$ = ecx

; 496  : 	_String_val()

	push	ebp
	mov	ebp, esp
	push	ecx
	mov	DWORD PTR _this$[ebp], ecx

; 497  : 		{	// initialize values
; 498  : 		_Mysize = 0;

	mov	eax, DWORD PTR _this$[ebp]
	mov	DWORD PTR [eax+16], 0

; 499  : 		_Myres = 0;

	mov	ecx, DWORD PTR _this$[ebp]
	mov	DWORD PTR [ecx+20], 0

; 500  : 		}

	mov	eax, DWORD PTR _this$[ebp]
	mov	esp, ebp
	pop	ebp
	ret	0
??0?$_String_val@U?$_Simple_types@D@std@@@std@@QAE@XZ ENDP ; std::_String_val<std::_Simple_types<char> >::_String_val<std::_Simple_types<char> >
_TEXT	ENDS
; Function compile flags: /Odtp
; File c:\program files (x86)\microsoft visual studio 11.0\vc\include\xmemory0
;	COMDAT ?max_size@?$_Wrap_alloc@V?$allocator@D@std@@@std@@QBEIXZ
_TEXT	SEGMENT
_this$ = -4						; size = 4
?max_size@?$_Wrap_alloc@V?$allocator@D@std@@@std@@QBEIXZ PROC ; std::_Wrap_alloc<std::allocator<char> >::max_size, COMDAT
; _this$ = ecx

; 913  : 		{	// get maximum size

	push	ebp
	mov	ebp, esp
	push	ecx
	mov	DWORD PTR _this$[ebp], ecx

; 914  : 		return (_Mytraits::max_size(*this));

	mov	eax, DWORD PTR _this$[ebp]
	push	eax
	call	?max_size@?$allocator_traits@V?$allocator@D@std@@@std@@SAIABV?$allocator@D@2@@Z ; std::allocator_traits<std::allocator<char> >::max_size
	add	esp, 4

; 915  : 		}

	mov	esp, ebp
	pop	ebp
	ret	0
?max_size@?$_Wrap_alloc@V?$allocator@D@std@@@std@@QBEIXZ ENDP ; std::_Wrap_alloc<std::allocator<char> >::max_size
_TEXT	ENDS
; Function compile flags: /Odtp
; File c:\program files (x86)\microsoft visual studio 11.0\vc\include\xmemory0
;	COMDAT ?deallocate@?$_Wrap_alloc@V?$allocator@D@std@@@std@@QAEXPADI@Z
_TEXT	SEGMENT
_this$ = -4						; size = 4
__Ptr$ = 8						; size = 4
__Count$ = 12						; size = 4
?deallocate@?$_Wrap_alloc@V?$allocator@D@std@@@std@@QAEXPADI@Z PROC ; std::_Wrap_alloc<std::allocator<char> >::deallocate, COMDAT
; _this$ = ecx

; 886  : 		{	// deallocate object at _Ptr, ignore size

	push	ebp
	mov	ebp, esp
	push	ecx
	mov	DWORD PTR _this$[ebp], ecx

; 887  : 		_Mybase::deallocate(_Ptr, _Count);

	mov	eax, DWORD PTR __Count$[ebp]
	push	eax
	mov	ecx, DWORD PTR __Ptr$[ebp]
	push	ecx
	mov	ecx, DWORD PTR _this$[ebp]
	call	?deallocate@?$allocator@D@std@@QAEXPADI@Z ; std::allocator<char>::deallocate

; 888  : 		}

	mov	esp, ebp
	pop	ebp
	ret	8
?deallocate@?$_Wrap_alloc@V?$allocator@D@std@@@std@@QAEXPADI@Z ENDP ; std::_Wrap_alloc<std::allocator<char> >::deallocate
_TEXT	ENDS
; Function compile flags: /Odtp
; File c:\program files (x86)\microsoft visual studio 11.0\vc\include\xmemory0
;	COMDAT ?allocate@?$_Wrap_alloc@V?$allocator@D@std@@@std@@QAEPADI@Z
_TEXT	SEGMENT
_this$ = -4						; size = 4
__Count$ = 8						; size = 4
?allocate@?$_Wrap_alloc@V?$allocator@D@std@@@std@@QAEPADI@Z PROC ; std::_Wrap_alloc<std::allocator<char> >::allocate, COMDAT
; _this$ = ecx

; 875  : 		{	// allocate array of _Count elements

	push	ebp
	mov	ebp, esp
	push	ecx
	mov	DWORD PTR _this$[ebp], ecx

; 876  : 		return (_Mybase::allocate(_Count));

	mov	eax, DWORD PTR __Count$[ebp]
	push	eax
	mov	ecx, DWORD PTR _this$[ebp]
	call	?allocate@?$allocator@D@std@@QAEPADI@Z	; std::allocator<char>::allocate

; 877  : 		}

	mov	esp, ebp
	pop	ebp
	ret	4
?allocate@?$_Wrap_alloc@V?$allocator@D@std@@@std@@QAEPADI@Z ENDP ; std::_Wrap_alloc<std::allocator<char> >::allocate
_TEXT	ENDS
; Function compile flags: /Odtp
; File c:\program files (x86)\microsoft visual studio 11.0\vc\include\xmemory0
;	COMDAT ??0?$_Wrap_alloc@V?$allocator@D@std@@@std@@QAE@XZ
_TEXT	SEGMENT
_this$ = -4						; size = 4
??0?$_Wrap_alloc@V?$allocator@D@std@@@std@@QAE@XZ PROC	; std::_Wrap_alloc<std::allocator<char> >::_Wrap_alloc<std::allocator<char> >, COMDAT
; _this$ = ecx

; 830  : 		{	// construct default allocator (do nothing)

	push	ebp
	mov	ebp, esp
	push	ecx
	mov	DWORD PTR _this$[ebp], ecx
	mov	ecx, DWORD PTR _this$[ebp]
	call	??0?$allocator@D@std@@QAE@XZ		; std::allocator<char>::allocator<char>

; 831  : 		}

	mov	eax, DWORD PTR _this$[ebp]
	mov	esp, ebp
	pop	ebp
	ret	0
??0?$_Wrap_alloc@V?$allocator@D@std@@@std@@QAE@XZ ENDP	; std::_Wrap_alloc<std::allocator<char> >::_Wrap_alloc<std::allocator<char> >
_TEXT	ENDS
; Function compile flags: /Odtp
; File c:\program files (x86)\microsoft visual studio 11.0\vc\include\xmemory0
;	COMDAT ?max_size@?$allocator_traits@V?$allocator@D@std@@@std@@SAIABV?$allocator@D@2@@Z
_TEXT	SEGMENT
__Al$ = 8						; size = 4
?max_size@?$allocator_traits@V?$allocator@D@std@@@std@@SAIABV?$allocator@D@2@@Z PROC ; std::allocator_traits<std::allocator<char> >::max_size, COMDAT

; 761  : 		{	// get maximum size

	push	ebp
	mov	ebp, esp

; 762  : 		return (_Al.max_size());

	mov	ecx, DWORD PTR __Al$[ebp]
	call	?max_size@?$allocator@D@std@@QBEIXZ	; std::allocator<char>::max_size

; 763  : 		}

	pop	ebp
	ret	0
?max_size@?$allocator_traits@V?$allocator@D@std@@@std@@SAIABV?$allocator@D@2@@Z ENDP ; std::allocator_traits<std::allocator<char> >::max_size
_TEXT	ENDS
; Function compile flags: /Odtp
; File c:\program files (x86)\microsoft visual studio 11.0\vc\include\xmemory0
;	COMDAT ?max_size@?$allocator@D@std@@QBEIXZ
_TEXT	SEGMENT
_this$ = -4						; size = 4
?max_size@?$allocator@D@std@@QBEIXZ PROC		; std::allocator<char>::max_size, COMDAT
; _this$ = ecx

; 627  : 		{	// estimate maximum array size

	push	ebp
	mov	ebp, esp
	push	ecx
	mov	DWORD PTR _this$[ebp], ecx

; 628  : 		return ((size_t)(-1) / sizeof (_Ty));

	or	eax, -1

; 629  : 		}

	mov	esp, ebp
	pop	ebp
	ret	0
?max_size@?$allocator@D@std@@QBEIXZ ENDP		; std::allocator<char>::max_size
_TEXT	ENDS
; Function compile flags: /Odtp
; File c:\program files (x86)\microsoft visual studio 11.0\vc\include\xmemory0
;	COMDAT ?allocate@?$allocator@D@std@@QAEPADI@Z
_TEXT	SEGMENT
_this$ = -4						; size = 4
__Count$ = 8						; size = 4
?allocate@?$allocator@D@std@@QAEPADI@Z PROC		; std::allocator<char>::allocate, COMDAT
; _this$ = ecx

; 590  : 		{	// allocate array of _Count elements

	push	ebp
	mov	ebp, esp
	push	ecx
	mov	DWORD PTR _this$[ebp], ecx

; 591  : 		return (_Allocate(_Count, (pointer)0));

	push	0
	mov	eax, DWORD PTR __Count$[ebp]
	push	eax
	call	??$_Allocate@D@std@@YAPADIPAD@Z		; std::_Allocate<char>
	add	esp, 8

; 592  : 		}

	mov	esp, ebp
	pop	ebp
	ret	4
?allocate@?$allocator@D@std@@QAEPADI@Z ENDP		; std::allocator<char>::allocate
_TEXT	ENDS
; Function compile flags: /Odtp
; File c:\program files (x86)\microsoft visual studio 11.0\vc\include\xmemory0
;	COMDAT ?deallocate@?$allocator@D@std@@QAEXPADI@Z
_TEXT	SEGMENT
_this$ = -4						; size = 4
__Ptr$ = 8						; size = 4
___formal$ = 12						; size = 4
?deallocate@?$allocator@D@std@@QAEXPADI@Z PROC		; std::allocator<char>::deallocate, COMDAT
; _this$ = ecx

; 585  : 		{	// deallocate object at _Ptr, ignore size

	push	ebp
	mov	ebp, esp
	push	ecx
	mov	DWORD PTR _this$[ebp], ecx

; 586  : 		::operator delete(_Ptr);

	mov	eax, DWORD PTR __Ptr$[ebp]
	push	eax
	call	??3@YAXPAX@Z				; operator delete
	add	esp, 4

; 587  : 		}

	mov	esp, ebp
	pop	ebp
	ret	8
?deallocate@?$allocator@D@std@@QAEXPADI@Z ENDP		; std::allocator<char>::deallocate
_TEXT	ENDS
; Function compile flags: /Odtp
; File c:\program files (x86)\microsoft visual studio 11.0\vc\include\xmemory0
;	COMDAT ??0?$allocator@D@std@@QAE@XZ
_TEXT	SEGMENT
_this$ = -4						; size = 4
??0?$allocator@D@std@@QAE@XZ PROC			; std::allocator<char>::allocator<char>, COMDAT
; _this$ = ecx

; 565  : 	allocator() _THROW0()

	push	ebp
	mov	ebp, esp
	push	ecx
	mov	DWORD PTR _this$[ebp], ecx

; 566  : 		{	// construct default allocator (do nothing)
; 567  : 		}

	mov	eax, DWORD PTR _this$[ebp]
	mov	esp, ebp
	pop	ebp
	ret	0
??0?$allocator@D@std@@QAE@XZ ENDP			; std::allocator<char>::allocator<char>
_TEXT	ENDS
; Function compile flags: /Odtp
; File c:\program files (x86)\microsoft visual studio 11.0\vc\include\xutility
;	COMDAT ??__Eallocator_arg@std@@YAXXZ
text$yc	SEGMENT
$T1 = -1						; size = 1
??__Eallocator_arg@std@@YAXXZ PROC			; std::`dynamic initializer for 'allocator_arg'', COMDAT

; 3644 : const allocator_arg_t allocator_arg = allocator_arg_t();

	push	ebp
	mov	ebp, esp
	push	ecx
	xor	eax, eax
	mov	BYTE PTR $T1[ebp], al
	mov	esp, ebp
	pop	ebp
	ret	0
??__Eallocator_arg@std@@YAXXZ ENDP			; std::`dynamic initializer for 'allocator_arg''
text$yc	ENDS
; Function compile flags: /Odtp
; File c:\program files (x86)\microsoft visual studio 11.0\vc\include\utility
;	COMDAT ??__Epiecewise_construct@std@@YAXXZ
text$yc	SEGMENT
$T1 = -1						; size = 1
??__Epiecewise_construct@std@@YAXXZ PROC		; std::`dynamic initializer for 'piecewise_construct'', COMDAT

; 65   : 	piecewise_construct_t();

	push	ebp
	mov	ebp, esp
	push	ecx
	xor	eax, eax
	mov	BYTE PTR $T1[ebp], al
	mov	esp, ebp
	pop	ebp
	ret	0
??__Epiecewise_construct@std@@YAXXZ ENDP		; std::`dynamic initializer for 'piecewise_construct''
text$yc	ENDS
; Function compile flags: /Odtp
; File c:\program files (x86)\microsoft visual studio 11.0\vc\include\iosfwd
;	COMDAT ?assign@?$char_traits@D@std@@SAXAADABD@Z
_TEXT	SEGMENT
__Left$ = 8						; size = 4
__Right$ = 12						; size = 4
?assign@?$char_traits@D@std@@SAXAADABD@Z PROC		; std::char_traits<char>::assign, COMDAT

; 563  : 		{	// assign an element

	push	ebp
	mov	ebp, esp

; 564  : 		_Left = _Right;

	mov	eax, DWORD PTR __Left$[ebp]
	mov	ecx, DWORD PTR __Right$[ebp]
	mov	dl, BYTE PTR [ecx]
	mov	BYTE PTR [eax], dl

; 565  : 		}

	pop	ebp
	ret	0
?assign@?$char_traits@D@std@@SAXAADABD@Z ENDP		; std::char_traits<char>::assign
_TEXT	ENDS
; Function compile flags: /Odtp
; File c:\program files (x86)\microsoft visual studio 11.0\vc\include\iosfwd
;	COMDAT ?move@?$char_traits@D@std@@SAPADPADPBDI@Z
_TEXT	SEGMENT
tv69 = -4						; size = 4
__First1$ = 8						; size = 4
__First2$ = 12						; size = 4
__Count$ = 16						; size = 4
?move@?$char_traits@D@std@@SAPADPADPBDI@Z PROC		; std::char_traits<char>::move, COMDAT

; 551  : 		{	// copy [_First2, _First2 + _Count) to [_First1, ...)

	push	ebp
	mov	ebp, esp
	push	ecx

; 552  : 		return (_Count == 0 ? _First1
; 553  : 			: (_Elem *)_CSTD memmove(_First1, _First2, _Count));

	cmp	DWORD PTR __Count$[ebp], 0
	jne	SHORT $LN3@move
	mov	eax, DWORD PTR __First1$[ebp]
	mov	DWORD PTR tv69[ebp], eax
	jmp	SHORT $LN4@move
$LN3@move:
	mov	ecx, DWORD PTR __Count$[ebp]
	push	ecx
	mov	edx, DWORD PTR __First2$[ebp]
	push	edx
	mov	eax, DWORD PTR __First1$[ebp]
	push	eax
	call	_memmove
	add	esp, 12					; 0000000cH
	mov	DWORD PTR tv69[ebp], eax
$LN4@move:
	mov	eax, DWORD PTR tv69[ebp]

; 554  : 		}

	mov	esp, ebp
	pop	ebp
	ret	0
?move@?$char_traits@D@std@@SAPADPADPBDI@Z ENDP		; std::char_traits<char>::move
_TEXT	ENDS
; Function compile flags: /Odtp
; File c:\program files (x86)\microsoft visual studio 11.0\vc\include\iosfwd
;	COMDAT ?copy@?$char_traits@D@std@@SAPADPADPBDI@Z
_TEXT	SEGMENT
tv69 = -4						; size = 4
__First1$ = 8						; size = 4
__First2$ = 12						; size = 4
__Count$ = 16						; size = 4
?copy@?$char_traits@D@std@@SAPADPADPBDI@Z PROC		; std::char_traits<char>::copy, COMDAT

; 528  : 		{	// copy [_First2, _First2 + _Count) to [_First1, ...)

	push	ebp
	mov	ebp, esp
	push	ecx

; 529  : 		return (_Count == 0 ? _First1
; 530  : 			: (_Elem *)_CSTD memcpy(_First1, _First2, _Count));

	cmp	DWORD PTR __Count$[ebp], 0
	jne	SHORT $LN3@copy
	mov	eax, DWORD PTR __First1$[ebp]
	mov	DWORD PTR tv69[ebp], eax
	jmp	SHORT $LN4@copy
$LN3@copy:
	mov	ecx, DWORD PTR __Count$[ebp]
	push	ecx
	mov	edx, DWORD PTR __First2$[ebp]
	push	edx
	mov	eax, DWORD PTR __First1$[ebp]
	push	eax
	call	_memcpy
	add	esp, 12					; 0000000cH
	mov	DWORD PTR tv69[ebp], eax
$LN4@copy:
	mov	eax, DWORD PTR tv69[ebp]

; 531  : 		}

	mov	esp, ebp
	pop	ebp
	ret	0
?copy@?$char_traits@D@std@@SAPADPADPBDI@Z ENDP		; std::char_traits<char>::copy
_TEXT	ENDS
; Function compile flags: /Odtp
; File c:\program files (x86)\microsoft visual studio 11.0\vc\include\iosfwd
;	COMDAT ?length@?$char_traits@D@std@@SAIPBD@Z
_TEXT	SEGMENT
tv68 = -4						; size = 4
__First$ = 8						; size = 4
?length@?$char_traits@D@std@@SAIPBD@Z PROC		; std::char_traits<char>::length, COMDAT

; 521  : 		{	// find length of null-terminated string

	push	ebp
	mov	ebp, esp
	push	ecx

; 522  : 		return (*_First == 0 ? 0
; 523  : 			: _CSTD strlen(_First));

	mov	eax, DWORD PTR __First$[ebp]
	movsx	ecx, BYTE PTR [eax]
	test	ecx, ecx
	jne	SHORT $LN3@length
	mov	DWORD PTR tv68[ebp], 0
	jmp	SHORT $LN4@length
$LN3@length:
	mov	edx, DWORD PTR __First$[ebp]
	push	edx
	call	_strlen
	add	esp, 4
	mov	DWORD PTR tv68[ebp], eax
$LN4@length:
	mov	eax, DWORD PTR tv68[ebp]

; 524  : 		}

	mov	esp, ebp
	pop	ebp
	ret	0
?length@?$char_traits@D@std@@SAIPBD@Z ENDP		; std::char_traits<char>::length
_TEXT	ENDS
; Function compile flags: /Odtp
; File c:\program files (x86)\microsoft visual studio 11.0\vc\include\new
;	COMDAT ??3@YAXPAX0@Z
_TEXT	SEGMENT
___formal$ = 8						; size = 4
___formal$ = 12						; size = 4
??3@YAXPAX0@Z PROC					; operator delete, COMDAT

; 64   : 	{	// delete if placement new fails

	push	ebp
	mov	ebp, esp

; 65   : 	}

	pop	ebp
	ret	0
??3@YAXPAX0@Z ENDP					; operator delete
_TEXT	ENDS
; Function compile flags: /Odtp
; File c:\program files (x86)\microsoft visual studio 11.0\vc\include\new
;	COMDAT ??2@YAPAXIPAX@Z
_TEXT	SEGMENT
___formal$ = 8						; size = 4
__Where$ = 12						; size = 4
??2@YAPAXIPAX@Z PROC					; operator new, COMDAT

; 59   : 	{	// construct array with placement at _Where

	push	ebp
	mov	ebp, esp

; 60   : 	return (_Where);

	mov	eax, DWORD PTR __Where$[ebp]

; 61   : 	}

	pop	ebp
	ret	0
??2@YAPAXIPAX@Z ENDP					; operator new
_TEXT	ENDS
; Function compile flags: /Odtp
; File c:\users\zhitao li\documents\visual studio 2012\projects\freefalcon\mathlib\math.h
_TEXT	SEGMENT
_x$ = 8							; size = 4
?SqrtSSE@@YAMM@Z PROC					; SqrtSSE

; 91   : static inline float SqrtSSE(float x){ 

	push	ebp
	mov	ebp, esp

; 92   :     __asm 
; 93   :     { 
; 94   :         sqrtss xmm0,x 

	sqrtss	xmm0, DWORD PTR _x$[ebp]

; 95   :         movss x,xmm0 

	movss	XMMWORD PTR _x$[ebp], xmm0

; 96   :     } 
; 97   : 
; 98   :     return x; 

	fld	DWORD PTR _x$[ebp]

; 99   : } 

	pop	ebp
	ret	0
?SqrtSSE@@YAMM@Z ENDP					; SqrtSSE
_TEXT	ENDS
; Function compile flags: /Odtp
; File c:\program files (x86)\microsoft visual studio 11.0\vc\include\math.h
;	COMDAT ?tan@@YAMM@Z
_TEXT	SEGMENT
__X$ = 8						; size = 4
?tan@@YAMM@Z PROC					; tan, COMDAT

; 543  :         {return (tanf(_X)); }

	push	ebp
	mov	ebp, esp
	push	ecx
	movss	xmm0, DWORD PTR __X$[ebp]
	movss	DWORD PTR [esp], xmm0
	call	_tanf
	add	esp, 4
	pop	ebp
	ret	0
?tan@@YAMM@Z ENDP					; tan
_TEXT	ENDS
; Function compile flags: /Odtp
; File c:\program files (x86)\microsoft visual studio 11.0\vc\include\math.h
;	COMDAT ?sin@@YAMM@Z
_TEXT	SEGMENT
__X$ = 8						; size = 4
?sin@@YAMM@Z PROC					; sin, COMDAT

; 537  :         {return (sinf(_X)); }

	push	ebp
	mov	ebp, esp
	push	ecx
	movss	xmm0, DWORD PTR __X$[ebp]
	movss	DWORD PTR [esp], xmm0
	call	_sinf
	add	esp, 4
	pop	ebp
	ret	0
?sin@@YAMM@Z ENDP					; sin
_TEXT	ENDS
; Function compile flags: /Odtp
; File c:\program files (x86)\microsoft visual studio 11.0\vc\include\math.h
;	COMDAT ?fabs@@YAMM@Z
_TEXT	SEGMENT
__X$ = 8						; size = 4
?fabs@@YAMM@Z PROC					; fabs, COMDAT

; 517  :         {return (fabsf(_X)); }

	push	ebp
	mov	ebp, esp
	push	ecx
	movss	xmm0, DWORD PTR __X$[ebp]
	movss	DWORD PTR [esp], xmm0
	call	_fabsf
	add	esp, 4
	pop	ebp
	ret	0
?fabs@@YAMM@Z ENDP					; fabs
_TEXT	ENDS
; Function compile flags: /Odtp
; File c:\program files (x86)\microsoft visual studio 11.0\vc\include\math.h
;	COMDAT ?cos@@YAMM@Z
_TEXT	SEGMENT
__X$ = 8						; size = 4
?cos@@YAMM@Z PROC					; cos, COMDAT

; 511  :         {return (cosf(_X)); }

	push	ebp
	mov	ebp, esp
	push	ecx
	movss	xmm0, DWORD PTR __X$[ebp]
	movss	DWORD PTR [esp], xmm0
	call	_cosf
	add	esp, 4
	pop	ebp
	ret	0
?cos@@YAMM@Z ENDP					; cos
_TEXT	ENDS
; Function compile flags: /Odtp
; File c:\program files (x86)\microsoft visual studio 11.0\vc\include\math.h
;	COMDAT ?atan@@YAMM@Z
_TEXT	SEGMENT
__X$ = 8						; size = 4
?atan@@YAMM@Z PROC					; atan, COMDAT

; 505  :         {return (atanf(_X)); }

	push	ebp
	mov	ebp, esp
	push	ecx
	movss	xmm0, DWORD PTR __X$[ebp]
	movss	DWORD PTR [esp], xmm0
	call	_atanf
	add	esp, 4
	pop	ebp
	ret	0
?atan@@YAMM@Z ENDP					; atan
_TEXT	ENDS
; Function compile flags: /Odtp
; File c:\program files (x86)\microsoft visual studio 11.0\vc\include\math.h
;	COMDAT ?acos@@YAMM@Z
_TEXT	SEGMENT
__X$ = 8						; size = 4
?acos@@YAMM@Z PROC					; acos, COMDAT

; 501  :         {return (acosf(_X)); }

	push	ebp
	mov	ebp, esp
	push	ecx
	movss	xmm0, DWORD PTR __X$[ebp]
	movss	DWORD PTR [esp], xmm0
	call	_acosf
	add	esp, 4
	pop	ebp
	ret	0
?acos@@YAMM@Z ENDP					; acos
_TEXT	ENDS
; Function compile flags: /Odtp
; File c:\program files (x86)\microsoft visual studio 11.0\vc\include\math.h
;	COMDAT _tanf
_TEXT	SEGMENT
tv74 = -12						; size = 8
tv76 = -4						; size = 4
__X$ = 8						; size = 4
_tanf	PROC						; COMDAT

; 436  :         {return ((float)tan((double)_X)); }

	push	ebp
	mov	ebp, esp
	sub	esp, 12					; 0000000cH
	cvtss2sd xmm0, DWORD PTR __X$[ebp]
	sub	esp, 8
	movsd	QWORD PTR [esp], xmm0
	call	_tan
	add	esp, 8
	fstp	QWORD PTR tv74[ebp]
	movsd	xmm0, QWORD PTR tv74[ebp]
	cvtsd2ss xmm0, xmm0
	movss	DWORD PTR tv76[ebp], xmm0
	fld	DWORD PTR tv76[ebp]
	mov	esp, ebp
	pop	ebp
	ret	0
_tanf	ENDP
_TEXT	ENDS
; Function compile flags: /Odtp
; File c:\program files (x86)\microsoft visual studio 11.0\vc\include\math.h
;	COMDAT _sinf
_TEXT	SEGMENT
tv74 = -12						; size = 8
tv76 = -4						; size = 4
__X$ = 8						; size = 4
_sinf	PROC						; COMDAT

; 430  :         {return ((float)sin((double)_X)); }

	push	ebp
	mov	ebp, esp
	sub	esp, 12					; 0000000cH
	cvtss2sd xmm0, DWORD PTR __X$[ebp]
	sub	esp, 8
	movsd	QWORD PTR [esp], xmm0
	call	_sin
	add	esp, 8
	fstp	QWORD PTR tv74[ebp]
	movsd	xmm0, QWORD PTR tv74[ebp]
	cvtsd2ss xmm0, xmm0
	movss	DWORD PTR tv76[ebp], xmm0
	fld	DWORD PTR tv76[ebp]
	mov	esp, ebp
	pop	ebp
	ret	0
_sinf	ENDP
_TEXT	ENDS
; Function compile flags: /Odtp
; File c:\program files (x86)\microsoft visual studio 11.0\vc\include\math.h
;	COMDAT _cosf
_TEXT	SEGMENT
tv74 = -12						; size = 8
tv76 = -4						; size = 4
__X$ = 8						; size = 4
_cosf	PROC						; COMDAT

; 410  :         {return ((float)cos((double)_X)); }

	push	ebp
	mov	ebp, esp
	sub	esp, 12					; 0000000cH
	cvtss2sd xmm0, DWORD PTR __X$[ebp]
	sub	esp, 8
	movsd	QWORD PTR [esp], xmm0
	call	_cos
	add	esp, 8
	fstp	QWORD PTR tv74[ebp]
	movsd	xmm0, QWORD PTR tv74[ebp]
	cvtsd2ss xmm0, xmm0
	movss	DWORD PTR tv76[ebp], xmm0
	fld	DWORD PTR tv76[ebp]
	mov	esp, ebp
	pop	ebp
	ret	0
_cosf	ENDP
_TEXT	ENDS
; Function compile flags: /Odtp
; File c:\program files (x86)\microsoft visual studio 11.0\vc\include\math.h
;	COMDAT _atanf
_TEXT	SEGMENT
tv74 = -12						; size = 8
tv76 = -4						; size = 4
__X$ = 8						; size = 4
_atanf	PROC						; COMDAT

; 404  :         {return ((float)atan((double)_X)); }

	push	ebp
	mov	ebp, esp
	sub	esp, 12					; 0000000cH
	cvtss2sd xmm0, DWORD PTR __X$[ebp]
	sub	esp, 8
	movsd	QWORD PTR [esp], xmm0
	call	_atan
	add	esp, 8
	fstp	QWORD PTR tv74[ebp]
	movsd	xmm0, QWORD PTR tv74[ebp]
	cvtsd2ss xmm0, xmm0
	movss	DWORD PTR tv76[ebp], xmm0
	fld	DWORD PTR tv76[ebp]
	mov	esp, ebp
	pop	ebp
	ret	0
_atanf	ENDP
_TEXT	ENDS
; Function compile flags: /Odtp
; File c:\program files (x86)\microsoft visual studio 11.0\vc\include\math.h
;	COMDAT _acosf
_TEXT	SEGMENT
tv74 = -12						; size = 8
tv76 = -4						; size = 4
__X$ = 8						; size = 4
_acosf	PROC						; COMDAT

; 400  :         {return ((float)acos((double)_X)); }

	push	ebp
	mov	ebp, esp
	sub	esp, 12					; 0000000cH
	cvtss2sd xmm0, DWORD PTR __X$[ebp]
	sub	esp, 8
	movsd	QWORD PTR [esp], xmm0
	call	_acos
	add	esp, 8
	fstp	QWORD PTR tv74[ebp]
	movsd	xmm0, QWORD PTR tv74[ebp]
	cvtsd2ss xmm0, xmm0
	movss	DWORD PTR tv76[ebp], xmm0
	fld	DWORD PTR tv76[ebp]
	mov	esp, ebp
	pop	ebp
	ret	0
_acosf	ENDP
_TEXT	ENDS
; Function compile flags: /Odtp
; File c:\program files (x86)\microsoft visual studio 11.0\vc\include\math.h
;	COMDAT _fabsf
_TEXT	SEGMENT
tv74 = -12						; size = 8
tv76 = -4						; size = 4
__X$ = 8						; size = 4
_fabsf	PROC						; COMDAT

; 392  :         {return ((float)fabs((double)_X)); }

	push	ebp
	mov	ebp, esp
	sub	esp, 12					; 0000000cH
	cvtss2sd xmm0, DWORD PTR __X$[ebp]
	sub	esp, 8
	movsd	QWORD PTR [esp], xmm0
	call	_fabs
	add	esp, 8
	fstp	QWORD PTR tv74[ebp]
	movsd	xmm0, QWORD PTR tv74[ebp]
	cvtsd2ss xmm0, xmm0
	movss	DWORD PTR tv76[ebp], xmm0
	fld	DWORD PTR tv76[ebp]
	mov	esp, ebp
	pop	ebp
	ret	0
_fabsf	ENDP
_TEXT	ENDS
END
