; Listing generated by Microsoft (R) Optimizing Compiler Version 17.00.51106.1 

	TITLE	C:\Users\Zhitao Li\Documents\Visual Studio 2012\Projects\Freefalcon\SIM\FCC\Mislfcc.cpp
	.686P
	.XMM
	include listing.inc
	.model	flat

INCLUDELIB LIBCMT
INCLUDELIB OLDNAMES

PUBLIC	?skipws@?$_Iosb@H@std@@2W4_Fmtflags@12@B	; std::_Iosb<int>::skipws
PUBLIC	?traps@_Num_base@std@@2_NB			; std::_Num_base::traps
PUBLIC	?unitbuf@?$_Iosb@H@std@@2W4_Fmtflags@12@B	; std::_Iosb<int>::unitbuf
PUBLIC	?round_style@_Num_base@std@@2W4float_round_style@2@B ; std::_Num_base::round_style
PUBLIC	?digits@_Num_base@std@@2HB			; std::_Num_base::digits
PUBLIC	?uppercase@?$_Iosb@H@std@@2W4_Fmtflags@12@B	; std::_Iosb<int>::uppercase
PUBLIC	?showbase@?$_Iosb@H@std@@2W4_Fmtflags@12@B	; std::_Iosb<int>::showbase
PUBLIC	?digits10@_Num_base@std@@2HB			; std::_Num_base::digits10
PUBLIC	?max_digits10@_Num_base@std@@2HB		; std::_Num_base::max_digits10
PUBLIC	?showpoint@?$_Iosb@H@std@@2W4_Fmtflags@12@B	; std::_Iosb<int>::showpoint
PUBLIC	?showpos@?$_Iosb@H@std@@2W4_Fmtflags@12@B	; std::_Iosb<int>::showpos
PUBLIC	?max_exponent@_Num_base@std@@2HB		; std::_Num_base::max_exponent
PUBLIC	?max_exponent10@_Num_base@std@@2HB		; std::_Num_base::max_exponent10
PUBLIC	?left@?$_Iosb@H@std@@2W4_Fmtflags@12@B		; std::_Iosb<int>::left
PUBLIC	?min_exponent@_Num_base@std@@2HB		; std::_Num_base::min_exponent
PUBLIC	?right@?$_Iosb@H@std@@2W4_Fmtflags@12@B		; std::_Iosb<int>::right
PUBLIC	?min_exponent10@_Num_base@std@@2HB		; std::_Num_base::min_exponent10
PUBLIC	?internal@?$_Iosb@H@std@@2W4_Fmtflags@12@B	; std::_Iosb<int>::internal
PUBLIC	?dec@?$_Iosb@H@std@@2W4_Fmtflags@12@B		; std::_Iosb<int>::dec
PUBLIC	?radix@_Num_base@std@@2HB			; std::_Num_base::radix
PUBLIC	?oct@?$_Iosb@H@std@@2W4_Fmtflags@12@B		; std::_Iosb<int>::oct
PUBLIC	?hex@?$_Iosb@H@std@@2W4_Fmtflags@12@B		; std::_Iosb<int>::hex
PUBLIC	?scientific@?$_Iosb@H@std@@2W4_Fmtflags@12@B	; std::_Iosb<int>::scientific
PUBLIC	?fixed@?$_Iosb@H@std@@2W4_Fmtflags@12@B		; std::_Iosb<int>::fixed
PUBLIC	?hexfloat@?$_Iosb@H@std@@2W4_Fmtflags@12@B	; std::_Iosb<int>::hexfloat
PUBLIC	?boolalpha@?$_Iosb@H@std@@2W4_Fmtflags@12@B	; std::_Iosb<int>::boolalpha
PUBLIC	?_Stdio@?$_Iosb@H@std@@2W4_Fmtflags@12@B	; std::_Iosb<int>::_Stdio
PUBLIC	?adjustfield@?$_Iosb@H@std@@2W4_Fmtflags@12@B	; std::_Iosb<int>::adjustfield
PUBLIC	?basefield@?$_Iosb@H@std@@2W4_Fmtflags@12@B	; std::_Iosb<int>::basefield
PUBLIC	?floatfield@?$_Iosb@H@std@@2W4_Fmtflags@12@B	; std::_Iosb<int>::floatfield
PUBLIC	?is_bounded@_Num_int_base@std@@2_NB		; std::_Num_int_base::is_bounded
PUBLIC	?is_exact@_Num_int_base@std@@2_NB		; std::_Num_int_base::is_exact
PUBLIC	?goodbit@?$_Iosb@H@std@@2W4_Iostate@12@B	; std::_Iosb<int>::goodbit
PUBLIC	?is_integer@_Num_int_base@std@@2_NB		; std::_Num_int_base::is_integer
PUBLIC	?eofbit@?$_Iosb@H@std@@2W4_Iostate@12@B		; std::_Iosb<int>::eofbit
PUBLIC	?is_modulo@_Num_int_base@std@@2_NB		; std::_Num_int_base::is_modulo
PUBLIC	?failbit@?$_Iosb@H@std@@2W4_Iostate@12@B	; std::_Iosb<int>::failbit
PUBLIC	?is_specialized@_Num_int_base@std@@2_NB		; std::_Num_int_base::is_specialized
PUBLIC	?badbit@?$_Iosb@H@std@@2W4_Iostate@12@B		; std::_Iosb<int>::badbit
PUBLIC	?radix@_Num_int_base@std@@2HB			; std::_Num_int_base::radix
PUBLIC	?_Hardfail@?$_Iosb@H@std@@2W4_Iostate@12@B	; std::_Iosb<int>::_Hardfail
PUBLIC	?in@?$_Iosb@H@std@@2W4_Openmode@12@B		; std::_Iosb<int>::in
PUBLIC	?out@?$_Iosb@H@std@@2W4_Openmode@12@B		; std::_Iosb<int>::out
PUBLIC	?has_denorm@_Num_float_base@std@@2W4float_denorm_style@2@B ; std::_Num_float_base::has_denorm
PUBLIC	?ate@?$_Iosb@H@std@@2W4_Openmode@12@B		; std::_Iosb<int>::ate
PUBLIC	?has_denorm_loss@_Num_float_base@std@@2_NB	; std::_Num_float_base::has_denorm_loss
PUBLIC	?SIMDIRTYDATA_INTERVAL@FalconEntity@@2KB	; FalconEntity::SIMDIRTYDATA_INTERVAL
PUBLIC	?CMPDIRTYDATA_INTERVAL@FalconEntity@@2KB	; FalconEntity::CMPDIRTYDATA_INTERVAL
PUBLIC	?has_infinity@_Num_float_base@std@@2_NB		; std::_Num_float_base::has_infinity
PUBLIC	?app@?$_Iosb@H@std@@2W4_Openmode@12@B		; std::_Iosb<int>::app
PUBLIC	?has_quiet_NaN@_Num_float_base@std@@2_NB	; std::_Num_float_base::has_quiet_NaN
PUBLIC	?trunc@?$_Iosb@H@std@@2W4_Openmode@12@B		; std::_Iosb<int>::trunc
PUBLIC	?_Nocreate@?$_Iosb@H@std@@2W4_Openmode@12@B	; std::_Iosb<int>::_Nocreate
PUBLIC	?has_signaling_NaN@_Num_float_base@std@@2_NB	; std::_Num_float_base::has_signaling_NaN
PUBLIC	?_Noreplace@?$_Iosb@H@std@@2W4_Openmode@12@B	; std::_Iosb<int>::_Noreplace
PUBLIC	?is_bounded@_Num_float_base@std@@2_NB		; std::_Num_float_base::is_bounded
PUBLIC	?is_exact@_Num_float_base@std@@2_NB		; std::_Num_float_base::is_exact
PUBLIC	?binary@?$_Iosb@H@std@@2W4_Openmode@12@B	; std::_Iosb<int>::binary
PUBLIC	?is_iec559@_Num_float_base@std@@2_NB		; std::_Num_float_base::is_iec559
PUBLIC	?beg@?$_Iosb@H@std@@2W4_Seekdir@12@B		; std::_Iosb<int>::beg
PUBLIC	?is_integer@_Num_float_base@std@@2_NB		; std::_Num_float_base::is_integer
PUBLIC	?cur@?$_Iosb@H@std@@2W4_Seekdir@12@B		; std::_Iosb<int>::cur
PUBLIC	?is_modulo@_Num_float_base@std@@2_NB		; std::_Num_float_base::is_modulo
PUBLIC	?end@?$_Iosb@H@std@@2W4_Seekdir@12@B		; std::_Iosb<int>::end
PUBLIC	?is_signed@_Num_float_base@std@@2_NB		; std::_Num_float_base::is_signed
PUBLIC	?is_specialized@_Num_float_base@std@@2_NB	; std::_Num_float_base::is_specialized
PUBLIC	?tinyness_before@_Num_float_base@std@@2_NB	; std::_Num_float_base::tinyness_before
PUBLIC	?traps@_Num_float_base@std@@2_NB		; std::_Num_float_base::traps
PUBLIC	?round_style@_Num_float_base@std@@2W4float_round_style@2@B ; std::_Num_float_base::round_style
PUBLIC	?radix@_Num_float_base@std@@2HB			; std::_Num_float_base::radix
PUBLIC	?_Stream_err@failure@ios_base@std@@0W4io_errc@43@B ; std::ios_base::failure::_Stream_err
PUBLIC	?is_signed@?$numeric_limits@D@std@@2_NB		; std::numeric_limits<char>::is_signed
PUBLIC	?digits@?$numeric_limits@D@std@@2HB		; std::numeric_limits<char>::digits
PUBLIC	?digits10@?$numeric_limits@D@std@@2HB		; std::numeric_limits<char>::digits10
PUBLIC	?is_signed@?$numeric_limits@_W@std@@2_NB	; std::numeric_limits<wchar_t>::is_signed
PUBLIC	?digits@?$numeric_limits@_W@std@@2HB		; std::numeric_limits<wchar_t>::digits
PUBLIC	?digits10@?$numeric_limits@_W@std@@2HB		; std::numeric_limits<wchar_t>::digits10
PUBLIC	?is_modulo@?$numeric_limits@_N@std@@2_NB	; std::numeric_limits<bool>::is_modulo
PUBLIC	?is_signed@?$numeric_limits@_N@std@@2_NB	; std::numeric_limits<bool>::is_signed
PUBLIC	?digits@?$numeric_limits@_N@std@@2HB		; std::numeric_limits<bool>::digits
PUBLIC	?digits10@?$numeric_limits@_N@std@@2HB		; std::numeric_limits<bool>::digits10
PUBLIC	?is_signed@?$numeric_limits@C@std@@2_NB		; std::numeric_limits<signed char>::is_signed
PUBLIC	?digits@?$numeric_limits@C@std@@2HB		; std::numeric_limits<signed char>::digits
PUBLIC	?digits10@?$numeric_limits@C@std@@2HB		; std::numeric_limits<signed char>::digits10
PUBLIC	?is_signed@?$numeric_limits@E@std@@2_NB		; std::numeric_limits<unsigned char>::is_signed
PUBLIC	?value@?$integral_constant@_N$0A@@std@@2_NB	; std::integral_constant<bool,0>::value
PUBLIC	?digits@?$numeric_limits@E@std@@2HB		; std::numeric_limits<unsigned char>::digits
PUBLIC	?digits10@?$numeric_limits@E@std@@2HB		; std::numeric_limits<unsigned char>::digits10
PUBLIC	?value@?$integral_constant@_N$00@std@@2_NB	; std::integral_constant<bool,1>::value
PUBLIC	?is_signed@?$numeric_limits@F@std@@2_NB		; std::numeric_limits<short>::is_signed
PUBLIC	?digits@?$numeric_limits@F@std@@2HB		; std::numeric_limits<short>::digits
PUBLIC	?digits10@?$numeric_limits@F@std@@2HB		; std::numeric_limits<short>::digits10
PUBLIC	?is_signed@?$numeric_limits@G@std@@2_NB		; std::numeric_limits<unsigned short>::is_signed
PUBLIC	?digits@?$numeric_limits@G@std@@2HB		; std::numeric_limits<unsigned short>::digits
PUBLIC	?digits10@?$numeric_limits@G@std@@2HB		; std::numeric_limits<unsigned short>::digits10
PUBLIC	?is_signed@?$numeric_limits@H@std@@2_NB		; std::numeric_limits<int>::is_signed
PUBLIC	?value@?$_Sizeof@HU_Nil@std@@U12@U12@U12@U12@U12@U12@@std@@2IB ; std::_Sizeof<int,std::_Nil,std::_Nil,std::_Nil,std::_Nil,std::_Nil,std::_Nil,std::_Nil>::value
PUBLIC	?digits@?$numeric_limits@H@std@@2HB		; std::numeric_limits<int>::digits
PUBLIC	?digits10@?$numeric_limits@H@std@@2HB		; std::numeric_limits<int>::digits10
PUBLIC	?collate@?$_Locbase@H@std@@2HB			; std::_Locbase<int>::collate
PUBLIC	?ctype@?$_Locbase@H@std@@2HB			; std::_Locbase<int>::ctype
PUBLIC	?monetary@?$_Locbase@H@std@@2HB			; std::_Locbase<int>::monetary
PUBLIC	?numeric@?$_Locbase@H@std@@2HB			; std::_Locbase<int>::numeric
PUBLIC	?time@?$_Locbase@H@std@@2HB			; std::_Locbase<int>::time
PUBLIC	?messages@?$_Locbase@H@std@@2HB			; std::_Locbase<int>::messages
PUBLIC	?all@?$_Locbase@H@std@@2HB			; std::_Locbase<int>::all
PUBLIC	?none@?$_Locbase@H@std@@2HB			; std::_Locbase<int>::none
PUBLIC	?is_signed@?$numeric_limits@I@std@@2_NB		; std::numeric_limits<unsigned int>::is_signed
PUBLIC	?digits@?$numeric_limits@I@std@@2HB		; std::numeric_limits<unsigned int>::digits
PUBLIC	?digits10@?$numeric_limits@I@std@@2HB		; std::numeric_limits<unsigned int>::digits10
PUBLIC	?is_signed@?$numeric_limits@J@std@@2_NB		; std::numeric_limits<long>::is_signed
PUBLIC	?digits@?$numeric_limits@J@std@@2HB		; std::numeric_limits<long>::digits
PUBLIC	?digits10@?$numeric_limits@J@std@@2HB		; std::numeric_limits<long>::digits10
PUBLIC	?is_signed@?$numeric_limits@K@std@@2_NB		; std::numeric_limits<unsigned long>::is_signed
PUBLIC	?digits@?$numeric_limits@K@std@@2HB		; std::numeric_limits<unsigned long>::digits
PUBLIC	?digits10@?$numeric_limits@K@std@@2HB		; std::numeric_limits<unsigned long>::digits10
PUBLIC	?table_size@?$ctype@D@std@@2IB			; std::ctype<char>::table_size
PUBLIC	?is_signed@?$numeric_limits@_J@std@@2_NB	; std::numeric_limits<__int64>::is_signed
PUBLIC	?digits@?$numeric_limits@_J@std@@2HB		; std::numeric_limits<__int64>::digits
PUBLIC	?digits10@?$numeric_limits@_J@std@@2HB		; std::numeric_limits<__int64>::digits10
PUBLIC	?is_signed@?$numeric_limits@_K@std@@2_NB	; std::numeric_limits<unsigned __int64>::is_signed
PUBLIC	?digits@?$numeric_limits@_K@std@@2HB		; std::numeric_limits<unsigned __int64>::digits
PUBLIC	?digits10@?$numeric_limits@_K@std@@2HB		; std::numeric_limits<unsigned __int64>::digits10
PUBLIC	?digits@?$numeric_limits@M@std@@2HB		; std::numeric_limits<float>::digits
PUBLIC	?digits10@?$numeric_limits@M@std@@2HB		; std::numeric_limits<float>::digits10
PUBLIC	?max_digits10@?$numeric_limits@M@std@@2HB	; std::numeric_limits<float>::max_digits10
PUBLIC	?max_exponent@?$numeric_limits@M@std@@2HB	; std::numeric_limits<float>::max_exponent
PUBLIC	?max_exponent10@?$numeric_limits@M@std@@2HB	; std::numeric_limits<float>::max_exponent10
PUBLIC	?min_exponent@?$numeric_limits@M@std@@2HB	; std::numeric_limits<float>::min_exponent
PUBLIC	?min_exponent10@?$numeric_limits@M@std@@2HB	; std::numeric_limits<float>::min_exponent10
PUBLIC	?value@?$integral_constant@I$0A@@std@@2IB	; std::integral_constant<unsigned int,0>::value
PUBLIC	?digits@?$numeric_limits@N@std@@2HB		; std::numeric_limits<double>::digits
PUBLIC	?digits10@?$numeric_limits@N@std@@2HB		; std::numeric_limits<double>::digits10
PUBLIC	?max_digits10@?$numeric_limits@N@std@@2HB	; std::numeric_limits<double>::max_digits10
PUBLIC	?max_exponent@?$numeric_limits@N@std@@2HB	; std::numeric_limits<double>::max_exponent
PUBLIC	?max_exponent10@?$numeric_limits@N@std@@2HB	; std::numeric_limits<double>::max_exponent10
PUBLIC	?min_exponent@?$numeric_limits@N@std@@2HB	; std::numeric_limits<double>::min_exponent
PUBLIC	?min_exponent10@?$numeric_limits@N@std@@2HB	; std::numeric_limits<double>::min_exponent10
PUBLIC	?digits@?$numeric_limits@O@std@@2HB		; std::numeric_limits<long double>::digits
PUBLIC	?digits10@?$numeric_limits@O@std@@2HB		; std::numeric_limits<long double>::digits10
PUBLIC	?max_digits10@?$numeric_limits@O@std@@2HB	; std::numeric_limits<long double>::max_digits10
PUBLIC	?max_exponent@?$numeric_limits@O@std@@2HB	; std::numeric_limits<long double>::max_exponent
PUBLIC	?max_exponent10@?$numeric_limits@O@std@@2HB	; std::numeric_limits<long double>::max_exponent10
PUBLIC	?min_exponent@?$numeric_limits@O@std@@2HB	; std::numeric_limits<long double>::min_exponent
PUBLIC	?min_exponent10@?$numeric_limits@O@std@@2HB	; std::numeric_limits<long double>::min_exponent10
PUBLIC	?value@?$_Sizeof@U_Nil@std@@U12@U12@U12@U12@U12@U12@U12@@std@@2IB ; std::_Sizeof<std::_Nil,std::_Nil,std::_Nil,std::_Nil,std::_Nil,std::_Nil,std::_Nil,std::_Nil>::value
PUBLIC	?has_denorm@_Num_base@std@@2W4float_denorm_style@2@B ; std::_Num_base::has_denorm
PUBLIC	?has_denorm_loss@_Num_base@std@@2_NB		; std::_Num_base::has_denorm_loss
PUBLIC	?has_infinity@_Num_base@std@@2_NB		; std::_Num_base::has_infinity
PUBLIC	?has_quiet_NaN@_Num_base@std@@2_NB		; std::_Num_base::has_quiet_NaN
PUBLIC	?has_signaling_NaN@_Num_base@std@@2_NB		; std::_Num_base::has_signaling_NaN
PUBLIC	?is_bounded@_Num_base@std@@2_NB			; std::_Num_base::is_bounded
PUBLIC	?is_exact@_Num_base@std@@2_NB			; std::_Num_base::is_exact
PUBLIC	?is_iec559@_Num_base@std@@2_NB			; std::_Num_base::is_iec559
PUBLIC	?is_integer@_Num_base@std@@2_NB			; std::_Num_base::is_integer
PUBLIC	?is_modulo@_Num_base@std@@2_NB			; std::_Num_base::is_modulo
PUBLIC	?is_signed@_Num_base@std@@2_NB			; std::_Num_base::is_signed
PUBLIC	?is_specialized@_Num_base@std@@2_NB		; std::_Num_base::is_specialized
PUBLIC	?tinyness_before@_Num_base@std@@2_NB		; std::_Num_base::tinyness_before
;	COMDAT ?tinyness_before@_Num_base@std@@2_NB
CONST	SEGMENT
?tinyness_before@_Num_base@std@@2_NB DB 00H		; std::_Num_base::tinyness_before
CONST	ENDS
;	COMDAT ?is_specialized@_Num_base@std@@2_NB
CONST	SEGMENT
?is_specialized@_Num_base@std@@2_NB DB 00H		; std::_Num_base::is_specialized
CONST	ENDS
;	COMDAT ?is_signed@_Num_base@std@@2_NB
CONST	SEGMENT
?is_signed@_Num_base@std@@2_NB DB 00H			; std::_Num_base::is_signed
CONST	ENDS
;	COMDAT ?is_modulo@_Num_base@std@@2_NB
CONST	SEGMENT
?is_modulo@_Num_base@std@@2_NB DB 00H			; std::_Num_base::is_modulo
CONST	ENDS
;	COMDAT ?is_integer@_Num_base@std@@2_NB
CONST	SEGMENT
?is_integer@_Num_base@std@@2_NB DB 00H			; std::_Num_base::is_integer
CONST	ENDS
;	COMDAT ?is_iec559@_Num_base@std@@2_NB
CONST	SEGMENT
?is_iec559@_Num_base@std@@2_NB DB 00H			; std::_Num_base::is_iec559
CONST	ENDS
;	COMDAT ?is_exact@_Num_base@std@@2_NB
CONST	SEGMENT
?is_exact@_Num_base@std@@2_NB DB 00H			; std::_Num_base::is_exact
CONST	ENDS
;	COMDAT ?is_bounded@_Num_base@std@@2_NB
CONST	SEGMENT
?is_bounded@_Num_base@std@@2_NB DB 00H			; std::_Num_base::is_bounded
CONST	ENDS
;	COMDAT ?has_signaling_NaN@_Num_base@std@@2_NB
CONST	SEGMENT
?has_signaling_NaN@_Num_base@std@@2_NB DB 00H		; std::_Num_base::has_signaling_NaN
CONST	ENDS
;	COMDAT ?has_quiet_NaN@_Num_base@std@@2_NB
CONST	SEGMENT
?has_quiet_NaN@_Num_base@std@@2_NB DB 00H		; std::_Num_base::has_quiet_NaN
CONST	ENDS
;	COMDAT ?has_infinity@_Num_base@std@@2_NB
CONST	SEGMENT
?has_infinity@_Num_base@std@@2_NB DB 00H		; std::_Num_base::has_infinity
CONST	ENDS
;	COMDAT ?has_denorm_loss@_Num_base@std@@2_NB
CONST	SEGMENT
?has_denorm_loss@_Num_base@std@@2_NB DB 00H		; std::_Num_base::has_denorm_loss
CONST	ENDS
;	COMDAT ?has_denorm@_Num_base@std@@2W4float_denorm_style@2@B
CONST	SEGMENT
?has_denorm@_Num_base@std@@2W4float_denorm_style@2@B DD 00H ; std::_Num_base::has_denorm
CONST	ENDS
;	COMDAT ?value@?$_Sizeof@U_Nil@std@@U12@U12@U12@U12@U12@U12@U12@@std@@2IB
CONST	SEGMENT
?value@?$_Sizeof@U_Nil@std@@U12@U12@U12@U12@U12@U12@U12@@std@@2IB DD 00H ; std::_Sizeof<std::_Nil,std::_Nil,std::_Nil,std::_Nil,std::_Nil,std::_Nil,std::_Nil,std::_Nil>::value
CONST	ENDS
;	COMDAT ?min_exponent10@?$numeric_limits@O@std@@2HB
CONST	SEGMENT
?min_exponent10@?$numeric_limits@O@std@@2HB DD 0fffffecdH ; std::numeric_limits<long double>::min_exponent10
CONST	ENDS
;	COMDAT ?min_exponent@?$numeric_limits@O@std@@2HB
CONST	SEGMENT
?min_exponent@?$numeric_limits@O@std@@2HB DD 0fffffc03H	; std::numeric_limits<long double>::min_exponent
CONST	ENDS
;	COMDAT ?max_exponent10@?$numeric_limits@O@std@@2HB
CONST	SEGMENT
?max_exponent10@?$numeric_limits@O@std@@2HB DD 0134H	; std::numeric_limits<long double>::max_exponent10
CONST	ENDS
;	COMDAT ?max_exponent@?$numeric_limits@O@std@@2HB
CONST	SEGMENT
?max_exponent@?$numeric_limits@O@std@@2HB DD 0400H	; std::numeric_limits<long double>::max_exponent
CONST	ENDS
;	COMDAT ?max_digits10@?$numeric_limits@O@std@@2HB
CONST	SEGMENT
?max_digits10@?$numeric_limits@O@std@@2HB DD 011H	; std::numeric_limits<long double>::max_digits10
CONST	ENDS
;	COMDAT ?digits10@?$numeric_limits@O@std@@2HB
CONST	SEGMENT
?digits10@?$numeric_limits@O@std@@2HB DD 0fH		; std::numeric_limits<long double>::digits10
CONST	ENDS
;	COMDAT ?digits@?$numeric_limits@O@std@@2HB
CONST	SEGMENT
?digits@?$numeric_limits@O@std@@2HB DD 035H		; std::numeric_limits<long double>::digits
CONST	ENDS
_DATA	SEGMENT
_cloudPntList DD 0c5bcc000r			; -6040
	DD	0c4070000r			; -540
	DD	0c694ac00r			; -19030
	DD	0c6de1c00r			; -28430
	DD	0c4dfc000r			; -1790
	DD	046dcc800r			; 28260
	DD	047104200r			; 36930
	DD	045732000r			; 3890
	DD	04744ea00r			; 50410
	DD	045336000r			; 2870
	DD	0c4d48000r			; -1700
	DD	04736da00r			; 46810
	DD	0c763ee00r			; -58350
	DD	0c4d48000r			; -1700
	DD	0c64c1000r			; -13060
	DD	046f2bc00r			; 31070
	DD	045480000r			; 3200
	DD	0c7293800r			; -43320
	DD	0c7bdc400r			; -97160
	DD	0c4d48000r			; -1700
	DD	04576e000r			; 3950
	DD	0c792e000r			; -75200
	DD	0c4bb8000r			; -1500
	DD	047957400r			; 76520
	DD	04759ee00r			; 55790
	DD	0c5a1e000r			; -5180
	DD	0c7a24e00r			; -83100
	DD	0c7473800r			; -51000
	DD	0c3a00000r			; -320
	DD	0c7829100r			; -66850
	DD	047733400r			; 62260
	DD	0c3a00000r			; -320
	DD	047708200r			; 61570
	DD	0c7710e00r			; -61710
	DD	0c550c000r			; -3340
	DD	046fb7c00r			; 32190
	DD	0c7719a00r			; -61850
	DD	0c7483200r			; -51250
	DD	047543a00r			; 54330
	DD	0c5bcc000r			; -6040
	DD	0c7495400r			; -51540
	DD	0c694ac00r			; -19030
	DD	0c6a7a800r			; -21460
	DD	0c74b0200r			; -51970
	DD	0468e8000r			; 18240
	DD	047298800r			; 43400
	DD	0c74bf200r			; -52210
	DD	046bc7000r			; 24120
	DD	0c749f400r			; -51700
	DD	0c74bc000r			; -52160
	DD	046948400r			; 19010
	DD	0c605e800r			; -8570
	DD	0c7488200r			; -51330
	DD	0c74ca600r			; -52390
	DD	04731bc00r			; 45500
	DD	0c7509800r			; -53400
	DD	0c6725800r			; -15510
	DD	0c7719a00r			; -61850
	DD	0c7483200r			; -51250
	DD	047543a00r			; 54330
	DD	047553400r			; 54580
	DD	0c74ddc00r			; -52700
	DD	0479a5600r			; 79020
	DD	047a7e400r			; 85960
	DD	0c74c5600r			; -52310
	DD	0477d4800r			; 64840
	DD	0c7c44500r			; -100490
	DD	0c74d1400r			; -52500
	DD	047ac2600r			; 88140
	DD	0c7a1ae00r			; -82780
	DD	0c749ea00r			; -51690
	DD	0c7bce300r			; -96710
	DD	0c6126800r			; -9370
	DD	0c7495400r			; -51540
	DD	043cd0000r			; 410
	DD	0c6a7a800r			; -21460
	DD	0c74a8a00r			; -51850
	DD	0473fae00r			; 49070
	DD	0457c8000r			; 4040
	DD	0c74e4a00r			; -52810
	DD	047871e00r			; 69180
	DD	0c6cbc000r			; -26080
	DD	0c74bc000r			; -52160
	DD	046984400r			; 19490
	DD	0452fa000r			; 2810
	DD	0c7488200r			; -51330
	DD	0c7081800r			; -34840
	DD	0c7719a00r			; -61850
	DD	0c749d600r			; -51670
	DD	047b17600r			; 90860
	DD	047553400r			; 54580
	DD	0c74ddc00r			; -52700
	DD	0479a5600r			; 79020
	DD	047a7e400r			; 85960
	DD	0c74c5600r			; -52310
	DD	0477d4800r			; 64840
	DD	0c7c44500r			; -100490
	DD	0c74d1400r			; -52500
	DD	047ac2600r			; 88140
	DD	047c04e00r			; 98460
	DD	0c74d1400r			; -52500
	DD	0c732a200r			; -45730
	DD	0467b9000r			; 16100
	DD	0c7487800r			; -51320
	DD	0c749a400r			; -51620
	DD	047636c00r			; 58220
	DD	0c74e0400r			; -52740
	DD	0c760b000r			; -57520
	DD	0c6126800r			; -9370
	DD	0c4070000r			; -540
	DD	043cd0000r			; 410
	DD	0c4e60000r			; -1840
	DD	0c6a30c00r			; -20870
	DD	0470a6600r			; 35430
	DD	0c7230c00r			; -41740
	DD	046924000r			; 18720
	DD	04797d600r			; 77740
	DD	0460d9000r			; 9060
	DD	0c616c800r			; -9650
	DD	0c7921300r			; -74790
_lightningPosList DD 041300000r			; 11
	DD	000000000r			; 0
	DD	040e00000r			; 7
	DD	040a00000r			; 5
	DD	041100000r			; 9
	DD	041000000r			; 8
	DD	041000000r			; 8
	DD	041600000r			; 14
	DD	041800000r			; 16
	DD	041a00000r			; 20
	DD	041200000r			; 10
	DD	041c00000r			; 24
	DD	041300000r			; 11
	DD	041d80000r			; 27
	DD	040c00000r			; 6
	DD	041f00000r			; 30
	DD	040e00000r			; 7
	DD	042040000r			; 33
	DD	03f800000r			; 1
	DD	042180000r			; 38
	DD	040a00000r			; 5
	DD	042280000r			; 42
	DD	040a00000r			; 5
	DD	042340000r			; 45
	DD	041400000r			; 12
	DD	042400000r			; 48
	DD	041a00000r			; 20
	DD	042500000r			; 52
	DD	041a00000r			; 20
	DD	042680000r			; 58
	DD	041b80000r			; 23
	DD	042740000r			; 61
	DD	041b00000r			; 22
	DD	0427c0000r			; 63
	DD	041b00000r			; 22
	DD	042840000r			; 66
	DD	041c80000r			; 25
	DD	042880000r			; 68
	DD	041a00000r			; 20
	DD	0428c0000r			; 70
	DD	041c00000r			; 24
	DD	042960000r			; 75
	DD	041c00000r			; 24
	DD	0429a0000r			; 77
	DD	041f80000r			; 31
	DD	042a00000r			; 80
	DD	041f80000r			; 31
	DD	042a60000r			; 83
	DD	042040000r			; 33
	DD	042b00000r			; 88
	DD	041f80000r			; 31
	DD	042b80000r			; 92
	DD	0423c0000r			; 47
	DD	042ce0000r			; 103
	DD	042380000r			; 46
	DD	042d20000r			; 105
	DD	0423c0000r			; 47
	DD	042d60000r			; 107
	DD	042340000r			; 45
	DD	042e00000r			; 112
	DD	042400000r			; 48
	DD	042e40000r			; 114
	DD	042380000r			; 46
	DD	042ea0000r			; 117
	DD	0422c0000r			; 43
	DD	043000000r			; 128
_DATA	ENDS
;	COMDAT ?min_exponent10@?$numeric_limits@N@std@@2HB
CONST	SEGMENT
?min_exponent10@?$numeric_limits@N@std@@2HB DD 0fffffecdH ; std::numeric_limits<double>::min_exponent10
CONST	ENDS
;	COMDAT ?min_exponent@?$numeric_limits@N@std@@2HB
CONST	SEGMENT
?min_exponent@?$numeric_limits@N@std@@2HB DD 0fffffc03H	; std::numeric_limits<double>::min_exponent
CONST	ENDS
;	COMDAT ?max_exponent10@?$numeric_limits@N@std@@2HB
CONST	SEGMENT
?max_exponent10@?$numeric_limits@N@std@@2HB DD 0134H	; std::numeric_limits<double>::max_exponent10
CONST	ENDS
;	COMDAT ?max_exponent@?$numeric_limits@N@std@@2HB
CONST	SEGMENT
?max_exponent@?$numeric_limits@N@std@@2HB DD 0400H	; std::numeric_limits<double>::max_exponent
CONST	ENDS
;	COMDAT ?max_digits10@?$numeric_limits@N@std@@2HB
CONST	SEGMENT
?max_digits10@?$numeric_limits@N@std@@2HB DD 011H	; std::numeric_limits<double>::max_digits10
CONST	ENDS
;	COMDAT ?digits10@?$numeric_limits@N@std@@2HB
CONST	SEGMENT
?digits10@?$numeric_limits@N@std@@2HB DD 0fH		; std::numeric_limits<double>::digits10
CONST	ENDS
;	COMDAT ?digits@?$numeric_limits@N@std@@2HB
CONST	SEGMENT
?digits@?$numeric_limits@N@std@@2HB DD 035H		; std::numeric_limits<double>::digits
CONST	ENDS
;	COMDAT ?value@?$integral_constant@I$0A@@std@@2IB
CONST	SEGMENT
?value@?$integral_constant@I$0A@@std@@2IB DD 00H	; std::integral_constant<unsigned int,0>::value
CONST	ENDS
;	COMDAT ?min_exponent10@?$numeric_limits@M@std@@2HB
CONST	SEGMENT
?min_exponent10@?$numeric_limits@M@std@@2HB DD 0ffffffdbH ; std::numeric_limits<float>::min_exponent10
CONST	ENDS
;	COMDAT ?min_exponent@?$numeric_limits@M@std@@2HB
CONST	SEGMENT
?min_exponent@?$numeric_limits@M@std@@2HB DD 0ffffff83H	; std::numeric_limits<float>::min_exponent
CONST	ENDS
;	COMDAT ?max_exponent10@?$numeric_limits@M@std@@2HB
CONST	SEGMENT
?max_exponent10@?$numeric_limits@M@std@@2HB DD 026H	; std::numeric_limits<float>::max_exponent10
CONST	ENDS
;	COMDAT ?max_exponent@?$numeric_limits@M@std@@2HB
CONST	SEGMENT
?max_exponent@?$numeric_limits@M@std@@2HB DD 080H	; std::numeric_limits<float>::max_exponent
CONST	ENDS
;	COMDAT ?max_digits10@?$numeric_limits@M@std@@2HB
CONST	SEGMENT
?max_digits10@?$numeric_limits@M@std@@2HB DD 09H	; std::numeric_limits<float>::max_digits10
CONST	ENDS
;	COMDAT ?digits10@?$numeric_limits@M@std@@2HB
CONST	SEGMENT
?digits10@?$numeric_limits@M@std@@2HB DD 06H		; std::numeric_limits<float>::digits10
CONST	ENDS
;	COMDAT ?digits@?$numeric_limits@M@std@@2HB
CONST	SEGMENT
?digits@?$numeric_limits@M@std@@2HB DD 018H		; std::numeric_limits<float>::digits
CONST	ENDS
;	COMDAT ?digits10@?$numeric_limits@_K@std@@2HB
CONST	SEGMENT
?digits10@?$numeric_limits@_K@std@@2HB DD 013H		; std::numeric_limits<unsigned __int64>::digits10
CONST	ENDS
;	COMDAT ?digits@?$numeric_limits@_K@std@@2HB
CONST	SEGMENT
?digits@?$numeric_limits@_K@std@@2HB DD 040H		; std::numeric_limits<unsigned __int64>::digits
CONST	ENDS
;	COMDAT ?is_signed@?$numeric_limits@_K@std@@2_NB
CONST	SEGMENT
?is_signed@?$numeric_limits@_K@std@@2_NB DB 00H		; std::numeric_limits<unsigned __int64>::is_signed
CONST	ENDS
;	COMDAT ?digits10@?$numeric_limits@_J@std@@2HB
CONST	SEGMENT
?digits10@?$numeric_limits@_J@std@@2HB DD 012H		; std::numeric_limits<__int64>::digits10
CONST	ENDS
;	COMDAT ?digits@?$numeric_limits@_J@std@@2HB
CONST	SEGMENT
?digits@?$numeric_limits@_J@std@@2HB DD 03fH		; std::numeric_limits<__int64>::digits
CONST	ENDS
;	COMDAT ?is_signed@?$numeric_limits@_J@std@@2_NB
CONST	SEGMENT
?is_signed@?$numeric_limits@_J@std@@2_NB DB 01H		; std::numeric_limits<__int64>::is_signed
CONST	ENDS
;	COMDAT ?table_size@?$ctype@D@std@@2IB
CONST	SEGMENT
?table_size@?$ctype@D@std@@2IB DD 0100H			; std::ctype<char>::table_size
CONST	ENDS
;	COMDAT ?digits10@?$numeric_limits@K@std@@2HB
CONST	SEGMENT
?digits10@?$numeric_limits@K@std@@2HB DD 09H		; std::numeric_limits<unsigned long>::digits10
CONST	ENDS
;	COMDAT ?digits@?$numeric_limits@K@std@@2HB
CONST	SEGMENT
?digits@?$numeric_limits@K@std@@2HB DD 020H		; std::numeric_limits<unsigned long>::digits
CONST	ENDS
;	COMDAT ?is_signed@?$numeric_limits@K@std@@2_NB
CONST	SEGMENT
?is_signed@?$numeric_limits@K@std@@2_NB DB 00H		; std::numeric_limits<unsigned long>::is_signed
CONST	ENDS
;	COMDAT ?digits10@?$numeric_limits@J@std@@2HB
CONST	SEGMENT
?digits10@?$numeric_limits@J@std@@2HB DD 09H		; std::numeric_limits<long>::digits10
CONST	ENDS
;	COMDAT ?digits@?$numeric_limits@J@std@@2HB
CONST	SEGMENT
?digits@?$numeric_limits@J@std@@2HB DD 01fH		; std::numeric_limits<long>::digits
CONST	ENDS
;	COMDAT ?is_signed@?$numeric_limits@J@std@@2_NB
CONST	SEGMENT
?is_signed@?$numeric_limits@J@std@@2_NB DB 01H		; std::numeric_limits<long>::is_signed
CONST	ENDS
;	COMDAT ?digits10@?$numeric_limits@I@std@@2HB
CONST	SEGMENT
?digits10@?$numeric_limits@I@std@@2HB DD 09H		; std::numeric_limits<unsigned int>::digits10
CONST	ENDS
;	COMDAT ?digits@?$numeric_limits@I@std@@2HB
CONST	SEGMENT
?digits@?$numeric_limits@I@std@@2HB DD 020H		; std::numeric_limits<unsigned int>::digits
CONST	ENDS
;	COMDAT ?is_signed@?$numeric_limits@I@std@@2_NB
CONST	SEGMENT
?is_signed@?$numeric_limits@I@std@@2_NB DB 00H		; std::numeric_limits<unsigned int>::is_signed
CONST	ENDS
;	COMDAT ?none@?$_Locbase@H@std@@2HB
CONST	SEGMENT
?none@?$_Locbase@H@std@@2HB DD 00H			; std::_Locbase<int>::none
CONST	ENDS
;	COMDAT ?all@?$_Locbase@H@std@@2HB
CONST	SEGMENT
?all@?$_Locbase@H@std@@2HB DD 03fH			; std::_Locbase<int>::all
CONST	ENDS
;	COMDAT ?messages@?$_Locbase@H@std@@2HB
CONST	SEGMENT
?messages@?$_Locbase@H@std@@2HB DD 020H			; std::_Locbase<int>::messages
CONST	ENDS
;	COMDAT ?time@?$_Locbase@H@std@@2HB
CONST	SEGMENT
?time@?$_Locbase@H@std@@2HB DD 010H			; std::_Locbase<int>::time
CONST	ENDS
;	COMDAT ?numeric@?$_Locbase@H@std@@2HB
CONST	SEGMENT
?numeric@?$_Locbase@H@std@@2HB DD 08H			; std::_Locbase<int>::numeric
CONST	ENDS
;	COMDAT ?monetary@?$_Locbase@H@std@@2HB
CONST	SEGMENT
?monetary@?$_Locbase@H@std@@2HB DD 04H			; std::_Locbase<int>::monetary
CONST	ENDS
;	COMDAT ?ctype@?$_Locbase@H@std@@2HB
CONST	SEGMENT
?ctype@?$_Locbase@H@std@@2HB DD 02H			; std::_Locbase<int>::ctype
CONST	ENDS
;	COMDAT ?collate@?$_Locbase@H@std@@2HB
CONST	SEGMENT
?collate@?$_Locbase@H@std@@2HB DD 01H			; std::_Locbase<int>::collate
CONST	ENDS
;	COMDAT ?digits10@?$numeric_limits@H@std@@2HB
CONST	SEGMENT
?digits10@?$numeric_limits@H@std@@2HB DD 09H		; std::numeric_limits<int>::digits10
CONST	ENDS
;	COMDAT ?digits@?$numeric_limits@H@std@@2HB
CONST	SEGMENT
?digits@?$numeric_limits@H@std@@2HB DD 01fH		; std::numeric_limits<int>::digits
CONST	ENDS
;	COMDAT ?value@?$_Sizeof@HU_Nil@std@@U12@U12@U12@U12@U12@U12@@std@@2IB
CONST	SEGMENT
?value@?$_Sizeof@HU_Nil@std@@U12@U12@U12@U12@U12@U12@@std@@2IB DD 01H ; std::_Sizeof<int,std::_Nil,std::_Nil,std::_Nil,std::_Nil,std::_Nil,std::_Nil,std::_Nil>::value
CONST	ENDS
;	COMDAT ?is_signed@?$numeric_limits@H@std@@2_NB
CONST	SEGMENT
?is_signed@?$numeric_limits@H@std@@2_NB DB 01H		; std::numeric_limits<int>::is_signed
CONST	ENDS
;	COMDAT ?digits10@?$numeric_limits@G@std@@2HB
CONST	SEGMENT
?digits10@?$numeric_limits@G@std@@2HB DD 04H		; std::numeric_limits<unsigned short>::digits10
CONST	ENDS
;	COMDAT ?digits@?$numeric_limits@G@std@@2HB
CONST	SEGMENT
?digits@?$numeric_limits@G@std@@2HB DD 010H		; std::numeric_limits<unsigned short>::digits
CONST	ENDS
;	COMDAT ?is_signed@?$numeric_limits@G@std@@2_NB
CONST	SEGMENT
?is_signed@?$numeric_limits@G@std@@2_NB DB 00H		; std::numeric_limits<unsigned short>::is_signed
CONST	ENDS
;	COMDAT ?digits10@?$numeric_limits@F@std@@2HB
CONST	SEGMENT
?digits10@?$numeric_limits@F@std@@2HB DD 04H		; std::numeric_limits<short>::digits10
CONST	ENDS
;	COMDAT ?digits@?$numeric_limits@F@std@@2HB
CONST	SEGMENT
?digits@?$numeric_limits@F@std@@2HB DD 0fH		; std::numeric_limits<short>::digits
CONST	ENDS
;	COMDAT ?is_signed@?$numeric_limits@F@std@@2_NB
CONST	SEGMENT
?is_signed@?$numeric_limits@F@std@@2_NB DB 01H		; std::numeric_limits<short>::is_signed
CONST	ENDS
;	COMDAT ?value@?$integral_constant@_N$00@std@@2_NB
CONST	SEGMENT
?value@?$integral_constant@_N$00@std@@2_NB DB 01H	; std::integral_constant<bool,1>::value
CONST	ENDS
;	COMDAT ?digits10@?$numeric_limits@E@std@@2HB
CONST	SEGMENT
?digits10@?$numeric_limits@E@std@@2HB DD 02H		; std::numeric_limits<unsigned char>::digits10
CONST	ENDS
;	COMDAT ?digits@?$numeric_limits@E@std@@2HB
CONST	SEGMENT
?digits@?$numeric_limits@E@std@@2HB DD 08H		; std::numeric_limits<unsigned char>::digits
CONST	ENDS
;	COMDAT ?value@?$integral_constant@_N$0A@@std@@2_NB
CONST	SEGMENT
?value@?$integral_constant@_N$0A@@std@@2_NB DB 00H	; std::integral_constant<bool,0>::value
CONST	ENDS
;	COMDAT ?is_signed@?$numeric_limits@E@std@@2_NB
CONST	SEGMENT
?is_signed@?$numeric_limits@E@std@@2_NB DB 00H		; std::numeric_limits<unsigned char>::is_signed
CONST	ENDS
;	COMDAT ?digits10@?$numeric_limits@C@std@@2HB
CONST	SEGMENT
?digits10@?$numeric_limits@C@std@@2HB DD 02H		; std::numeric_limits<signed char>::digits10
CONST	ENDS
;	COMDAT ?digits@?$numeric_limits@C@std@@2HB
CONST	SEGMENT
?digits@?$numeric_limits@C@std@@2HB DD 07H		; std::numeric_limits<signed char>::digits
CONST	ENDS
;	COMDAT ?is_signed@?$numeric_limits@C@std@@2_NB
CONST	SEGMENT
?is_signed@?$numeric_limits@C@std@@2_NB DB 01H		; std::numeric_limits<signed char>::is_signed
CONST	ENDS
CONST	SEGMENT
_L_2	DD	03f317218r			; 0.693147
_NEAR_CLIP DD	03f800000r			; 1
CONST	ENDS
;	COMDAT ?digits10@?$numeric_limits@_N@std@@2HB
CONST	SEGMENT
?digits10@?$numeric_limits@_N@std@@2HB DD 00H		; std::numeric_limits<bool>::digits10
CONST	ENDS
;	COMDAT ?digits@?$numeric_limits@_N@std@@2HB
CONST	SEGMENT
?digits@?$numeric_limits@_N@std@@2HB DD 01H		; std::numeric_limits<bool>::digits
CONST	ENDS
;	COMDAT ?is_signed@?$numeric_limits@_N@std@@2_NB
CONST	SEGMENT
?is_signed@?$numeric_limits@_N@std@@2_NB DB 00H		; std::numeric_limits<bool>::is_signed
CONST	ENDS
;	COMDAT ?is_modulo@?$numeric_limits@_N@std@@2_NB
CONST	SEGMENT
?is_modulo@?$numeric_limits@_N@std@@2_NB DB 00H		; std::numeric_limits<bool>::is_modulo
CONST	ENDS
;	COMDAT ?digits10@?$numeric_limits@_W@std@@2HB
CONST	SEGMENT
?digits10@?$numeric_limits@_W@std@@2HB DD 04H		; std::numeric_limits<wchar_t>::digits10
CONST	ENDS
;	COMDAT ?digits@?$numeric_limits@_W@std@@2HB
CONST	SEGMENT
?digits@?$numeric_limits@_W@std@@2HB DD 010H		; std::numeric_limits<wchar_t>::digits
CONST	ENDS
;	COMDAT ?is_signed@?$numeric_limits@_W@std@@2_NB
CONST	SEGMENT
?is_signed@?$numeric_limits@_W@std@@2_NB DB 00H		; std::numeric_limits<wchar_t>::is_signed
CONST	ENDS
;	COMDAT ?digits10@?$numeric_limits@D@std@@2HB
CONST	SEGMENT
?digits10@?$numeric_limits@D@std@@2HB DD 02H		; std::numeric_limits<char>::digits10
CONST	ENDS
;	COMDAT ?digits@?$numeric_limits@D@std@@2HB
CONST	SEGMENT
?digits@?$numeric_limits@D@std@@2HB DD 07H		; std::numeric_limits<char>::digits
CONST	ENDS
;	COMDAT ?is_signed@?$numeric_limits@D@std@@2_NB
CONST	SEGMENT
?is_signed@?$numeric_limits@D@std@@2_NB DB 01H		; std::numeric_limits<char>::is_signed
CONST	ENDS
;	COMDAT ?_Stream_err@failure@ios_base@std@@0W4io_errc@43@B
CONST	SEGMENT
?_Stream_err@failure@ios_base@std@@0W4io_errc@43@B DD 01H ; std::ios_base::failure::_Stream_err
CONST	ENDS
;	COMDAT ?radix@_Num_float_base@std@@2HB
CONST	SEGMENT
?radix@_Num_float_base@std@@2HB DD 02H			; std::_Num_float_base::radix
CONST	ENDS
;	COMDAT ?round_style@_Num_float_base@std@@2W4float_round_style@2@B
CONST	SEGMENT
?round_style@_Num_float_base@std@@2W4float_round_style@2@B DD 01H ; std::_Num_float_base::round_style
CONST	ENDS
;	COMDAT ?traps@_Num_float_base@std@@2_NB
CONST	SEGMENT
?traps@_Num_float_base@std@@2_NB DB 00H			; std::_Num_float_base::traps
CONST	ENDS
;	COMDAT ?tinyness_before@_Num_float_base@std@@2_NB
CONST	SEGMENT
?tinyness_before@_Num_float_base@std@@2_NB DB 01H	; std::_Num_float_base::tinyness_before
CONST	ENDS
;	COMDAT ?is_specialized@_Num_float_base@std@@2_NB
CONST	SEGMENT
?is_specialized@_Num_float_base@std@@2_NB DB 01H	; std::_Num_float_base::is_specialized
CONST	ENDS
;	COMDAT ?is_signed@_Num_float_base@std@@2_NB
CONST	SEGMENT
?is_signed@_Num_float_base@std@@2_NB DB 01H		; std::_Num_float_base::is_signed
CONST	ENDS
;	COMDAT ?end@?$_Iosb@H@std@@2W4_Seekdir@12@B
CONST	SEGMENT
?end@?$_Iosb@H@std@@2W4_Seekdir@12@B DD 02H		; std::_Iosb<int>::end
CONST	ENDS
;	COMDAT ?is_modulo@_Num_float_base@std@@2_NB
CONST	SEGMENT
?is_modulo@_Num_float_base@std@@2_NB DB 00H		; std::_Num_float_base::is_modulo
CONST	ENDS
;	COMDAT ?cur@?$_Iosb@H@std@@2W4_Seekdir@12@B
CONST	SEGMENT
?cur@?$_Iosb@H@std@@2W4_Seekdir@12@B DD 01H		; std::_Iosb<int>::cur
CONST	ENDS
;	COMDAT ?is_integer@_Num_float_base@std@@2_NB
CONST	SEGMENT
?is_integer@_Num_float_base@std@@2_NB DB 00H		; std::_Num_float_base::is_integer
CONST	ENDS
;	COMDAT ?beg@?$_Iosb@H@std@@2W4_Seekdir@12@B
CONST	SEGMENT
?beg@?$_Iosb@H@std@@2W4_Seekdir@12@B DD 00H		; std::_Iosb<int>::beg
CONST	ENDS
;	COMDAT ?is_iec559@_Num_float_base@std@@2_NB
CONST	SEGMENT
?is_iec559@_Num_float_base@std@@2_NB DB 01H		; std::_Num_float_base::is_iec559
CONST	ENDS
;	COMDAT ?binary@?$_Iosb@H@std@@2W4_Openmode@12@B
CONST	SEGMENT
?binary@?$_Iosb@H@std@@2W4_Openmode@12@B DD 020H	; std::_Iosb<int>::binary
CONST	ENDS
;	COMDAT ?is_exact@_Num_float_base@std@@2_NB
CONST	SEGMENT
?is_exact@_Num_float_base@std@@2_NB DB 00H		; std::_Num_float_base::is_exact
CONST	ENDS
;	COMDAT ?is_bounded@_Num_float_base@std@@2_NB
CONST	SEGMENT
?is_bounded@_Num_float_base@std@@2_NB DB 01H		; std::_Num_float_base::is_bounded
CONST	ENDS
;	COMDAT ?_Noreplace@?$_Iosb@H@std@@2W4_Openmode@12@B
CONST	SEGMENT
?_Noreplace@?$_Iosb@H@std@@2W4_Openmode@12@B DD 080H	; std::_Iosb<int>::_Noreplace
CONST	ENDS
;	COMDAT ?has_signaling_NaN@_Num_float_base@std@@2_NB
CONST	SEGMENT
?has_signaling_NaN@_Num_float_base@std@@2_NB DB 01H	; std::_Num_float_base::has_signaling_NaN
CONST	ENDS
;	COMDAT ?_Nocreate@?$_Iosb@H@std@@2W4_Openmode@12@B
CONST	SEGMENT
?_Nocreate@?$_Iosb@H@std@@2W4_Openmode@12@B DD 040H	; std::_Iosb<int>::_Nocreate
CONST	ENDS
;	COMDAT ?trunc@?$_Iosb@H@std@@2W4_Openmode@12@B
CONST	SEGMENT
?trunc@?$_Iosb@H@std@@2W4_Openmode@12@B DD 010H		; std::_Iosb<int>::trunc
CONST	ENDS
;	COMDAT ?has_quiet_NaN@_Num_float_base@std@@2_NB
CONST	SEGMENT
?has_quiet_NaN@_Num_float_base@std@@2_NB DB 01H		; std::_Num_float_base::has_quiet_NaN
CONST	ENDS
;	COMDAT ?app@?$_Iosb@H@std@@2W4_Openmode@12@B
CONST	SEGMENT
?app@?$_Iosb@H@std@@2W4_Openmode@12@B DD 08H		; std::_Iosb<int>::app
CONST	ENDS
;	COMDAT ?has_infinity@_Num_float_base@std@@2_NB
CONST	SEGMENT
?has_infinity@_Num_float_base@std@@2_NB DB 01H		; std::_Num_float_base::has_infinity
CONST	ENDS
;	COMDAT ?CMPDIRTYDATA_INTERVAL@FalconEntity@@2KB
CONST	SEGMENT
?CMPDIRTYDATA_INTERVAL@FalconEntity@@2KB DD 0c8H	; FalconEntity::CMPDIRTYDATA_INTERVAL
CONST	ENDS
;	COMDAT ?SIMDIRTYDATA_INTERVAL@FalconEntity@@2KB
CONST	SEGMENT
?SIMDIRTYDATA_INTERVAL@FalconEntity@@2KB DD 0c8H	; FalconEntity::SIMDIRTYDATA_INTERVAL
CONST	ENDS
;	COMDAT ?has_denorm_loss@_Num_float_base@std@@2_NB
CONST	SEGMENT
?has_denorm_loss@_Num_float_base@std@@2_NB DB 01H	; std::_Num_float_base::has_denorm_loss
CONST	ENDS
;	COMDAT ?ate@?$_Iosb@H@std@@2W4_Openmode@12@B
CONST	SEGMENT
?ate@?$_Iosb@H@std@@2W4_Openmode@12@B DD 04H		; std::_Iosb<int>::ate
CONST	ENDS
;	COMDAT ?has_denorm@_Num_float_base@std@@2W4float_denorm_style@2@B
CONST	SEGMENT
?has_denorm@_Num_float_base@std@@2W4float_denorm_style@2@B DD 01H ; std::_Num_float_base::has_denorm
CONST	ENDS
;	COMDAT ?out@?$_Iosb@H@std@@2W4_Openmode@12@B
CONST	SEGMENT
?out@?$_Iosb@H@std@@2W4_Openmode@12@B DD 02H		; std::_Iosb<int>::out
CONST	ENDS
;	COMDAT ?in@?$_Iosb@H@std@@2W4_Openmode@12@B
CONST	SEGMENT
?in@?$_Iosb@H@std@@2W4_Openmode@12@B DD 01H		; std::_Iosb<int>::in
CONST	ENDS
;	COMDAT ?_Hardfail@?$_Iosb@H@std@@2W4_Iostate@12@B
CONST	SEGMENT
?_Hardfail@?$_Iosb@H@std@@2W4_Iostate@12@B DD 010H	; std::_Iosb<int>::_Hardfail
CONST	ENDS
;	COMDAT ?radix@_Num_int_base@std@@2HB
CONST	SEGMENT
?radix@_Num_int_base@std@@2HB DD 02H			; std::_Num_int_base::radix
CONST	ENDS
;	COMDAT ?badbit@?$_Iosb@H@std@@2W4_Iostate@12@B
CONST	SEGMENT
?badbit@?$_Iosb@H@std@@2W4_Iostate@12@B DD 04H		; std::_Iosb<int>::badbit
CONST	ENDS
;	COMDAT ?is_specialized@_Num_int_base@std@@2_NB
CONST	SEGMENT
?is_specialized@_Num_int_base@std@@2_NB DB 01H		; std::_Num_int_base::is_specialized
CONST	ENDS
;	COMDAT ?failbit@?$_Iosb@H@std@@2W4_Iostate@12@B
CONST	SEGMENT
?failbit@?$_Iosb@H@std@@2W4_Iostate@12@B DD 02H		; std::_Iosb<int>::failbit
CONST	ENDS
;	COMDAT ?is_modulo@_Num_int_base@std@@2_NB
CONST	SEGMENT
?is_modulo@_Num_int_base@std@@2_NB DB 01H		; std::_Num_int_base::is_modulo
CONST	ENDS
;	COMDAT ?eofbit@?$_Iosb@H@std@@2W4_Iostate@12@B
CONST	SEGMENT
?eofbit@?$_Iosb@H@std@@2W4_Iostate@12@B DD 01H		; std::_Iosb<int>::eofbit
CONST	ENDS
;	COMDAT ?is_integer@_Num_int_base@std@@2_NB
CONST	SEGMENT
?is_integer@_Num_int_base@std@@2_NB DB 01H		; std::_Num_int_base::is_integer
CONST	ENDS
;	COMDAT ?goodbit@?$_Iosb@H@std@@2W4_Iostate@12@B
CONST	SEGMENT
?goodbit@?$_Iosb@H@std@@2W4_Iostate@12@B DD 00H		; std::_Iosb<int>::goodbit
CONST	ENDS
;	COMDAT ?is_exact@_Num_int_base@std@@2_NB
CONST	SEGMENT
?is_exact@_Num_int_base@std@@2_NB DB 01H		; std::_Num_int_base::is_exact
CONST	ENDS
;	COMDAT ?is_bounded@_Num_int_base@std@@2_NB
CONST	SEGMENT
?is_bounded@_Num_int_base@std@@2_NB DB 01H		; std::_Num_int_base::is_bounded
CONST	ENDS
;	COMDAT ?floatfield@?$_Iosb@H@std@@2W4_Fmtflags@12@B
CONST	SEGMENT
?floatfield@?$_Iosb@H@std@@2W4_Fmtflags@12@B DD 03000H	; std::_Iosb<int>::floatfield
CONST	ENDS
;	COMDAT ?basefield@?$_Iosb@H@std@@2W4_Fmtflags@12@B
CONST	SEGMENT
?basefield@?$_Iosb@H@std@@2W4_Fmtflags@12@B DD 0e00H	; std::_Iosb<int>::basefield
CONST	ENDS
;	COMDAT ?adjustfield@?$_Iosb@H@std@@2W4_Fmtflags@12@B
CONST	SEGMENT
?adjustfield@?$_Iosb@H@std@@2W4_Fmtflags@12@B DD 01c0H	; std::_Iosb<int>::adjustfield
CONST	ENDS
;	COMDAT ?_Stdio@?$_Iosb@H@std@@2W4_Fmtflags@12@B
CONST	SEGMENT
?_Stdio@?$_Iosb@H@std@@2W4_Fmtflags@12@B DD 08000H	; std::_Iosb<int>::_Stdio
CONST	ENDS
;	COMDAT ?boolalpha@?$_Iosb@H@std@@2W4_Fmtflags@12@B
CONST	SEGMENT
?boolalpha@?$_Iosb@H@std@@2W4_Fmtflags@12@B DD 04000H	; std::_Iosb<int>::boolalpha
CONST	ENDS
;	COMDAT ?hexfloat@?$_Iosb@H@std@@2W4_Fmtflags@12@B
CONST	SEGMENT
?hexfloat@?$_Iosb@H@std@@2W4_Fmtflags@12@B DD 03000H	; std::_Iosb<int>::hexfloat
CONST	ENDS
;	COMDAT ?fixed@?$_Iosb@H@std@@2W4_Fmtflags@12@B
CONST	SEGMENT
?fixed@?$_Iosb@H@std@@2W4_Fmtflags@12@B DD 02000H	; std::_Iosb<int>::fixed
CONST	ENDS
;	COMDAT ?scientific@?$_Iosb@H@std@@2W4_Fmtflags@12@B
CONST	SEGMENT
?scientific@?$_Iosb@H@std@@2W4_Fmtflags@12@B DD 01000H	; std::_Iosb<int>::scientific
CONST	ENDS
;	COMDAT ?hex@?$_Iosb@H@std@@2W4_Fmtflags@12@B
CONST	SEGMENT
?hex@?$_Iosb@H@std@@2W4_Fmtflags@12@B DD 0800H		; std::_Iosb<int>::hex
CONST	ENDS
;	COMDAT ?oct@?$_Iosb@H@std@@2W4_Fmtflags@12@B
CONST	SEGMENT
?oct@?$_Iosb@H@std@@2W4_Fmtflags@12@B DD 0400H		; std::_Iosb<int>::oct
CONST	ENDS
;	COMDAT ?radix@_Num_base@std@@2HB
CONST	SEGMENT
?radix@_Num_base@std@@2HB DD 00H			; std::_Num_base::radix
CONST	ENDS
;	COMDAT ?dec@?$_Iosb@H@std@@2W4_Fmtflags@12@B
CONST	SEGMENT
?dec@?$_Iosb@H@std@@2W4_Fmtflags@12@B DD 0200H		; std::_Iosb<int>::dec
CONST	ENDS
;	COMDAT ?internal@?$_Iosb@H@std@@2W4_Fmtflags@12@B
CONST	SEGMENT
?internal@?$_Iosb@H@std@@2W4_Fmtflags@12@B DD 0100H	; std::_Iosb<int>::internal
CONST	ENDS
;	COMDAT ?min_exponent10@_Num_base@std@@2HB
CONST	SEGMENT
?min_exponent10@_Num_base@std@@2HB DD 00H		; std::_Num_base::min_exponent10
CONST	ENDS
;	COMDAT ?right@?$_Iosb@H@std@@2W4_Fmtflags@12@B
CONST	SEGMENT
?right@?$_Iosb@H@std@@2W4_Fmtflags@12@B DD 080H		; std::_Iosb<int>::right
CONST	ENDS
;	COMDAT ?min_exponent@_Num_base@std@@2HB
CONST	SEGMENT
?min_exponent@_Num_base@std@@2HB DD 00H			; std::_Num_base::min_exponent
CONST	ENDS
;	COMDAT ?left@?$_Iosb@H@std@@2W4_Fmtflags@12@B
CONST	SEGMENT
?left@?$_Iosb@H@std@@2W4_Fmtflags@12@B DD 040H		; std::_Iosb<int>::left
CONST	ENDS
;	COMDAT ?max_exponent10@_Num_base@std@@2HB
CONST	SEGMENT
?max_exponent10@_Num_base@std@@2HB DD 00H		; std::_Num_base::max_exponent10
CONST	ENDS
;	COMDAT ?max_exponent@_Num_base@std@@2HB
CONST	SEGMENT
?max_exponent@_Num_base@std@@2HB DD 00H			; std::_Num_base::max_exponent
CONST	ENDS
;	COMDAT ?showpos@?$_Iosb@H@std@@2W4_Fmtflags@12@B
CONST	SEGMENT
?showpos@?$_Iosb@H@std@@2W4_Fmtflags@12@B DD 020H	; std::_Iosb<int>::showpos
CONST	ENDS
;	COMDAT ?showpoint@?$_Iosb@H@std@@2W4_Fmtflags@12@B
CONST	SEGMENT
?showpoint@?$_Iosb@H@std@@2W4_Fmtflags@12@B DD 010H	; std::_Iosb<int>::showpoint
CONST	ENDS
;	COMDAT ?max_digits10@_Num_base@std@@2HB
CONST	SEGMENT
?max_digits10@_Num_base@std@@2HB DD 00H			; std::_Num_base::max_digits10
CONST	ENDS
;	COMDAT ?digits10@_Num_base@std@@2HB
CONST	SEGMENT
?digits10@_Num_base@std@@2HB DD 00H			; std::_Num_base::digits10
CONST	ENDS
;	COMDAT ?showbase@?$_Iosb@H@std@@2W4_Fmtflags@12@B
CONST	SEGMENT
?showbase@?$_Iosb@H@std@@2W4_Fmtflags@12@B DD 08H	; std::_Iosb<int>::showbase
CONST	ENDS
;	COMDAT ?uppercase@?$_Iosb@H@std@@2W4_Fmtflags@12@B
CONST	SEGMENT
?uppercase@?$_Iosb@H@std@@2W4_Fmtflags@12@B DD 04H	; std::_Iosb<int>::uppercase
CONST	ENDS
;	COMDAT ?digits@_Num_base@std@@2HB
CONST	SEGMENT
?digits@_Num_base@std@@2HB DD 00H			; std::_Num_base::digits
CONST	ENDS
;	COMDAT ?round_style@_Num_base@std@@2W4float_round_style@2@B
CONST	SEGMENT
?round_style@_Num_base@std@@2W4float_round_style@2@B DD 00H ; std::_Num_base::round_style
CONST	ENDS
;	COMDAT ?unitbuf@?$_Iosb@H@std@@2W4_Fmtflags@12@B
CONST	SEGMENT
?unitbuf@?$_Iosb@H@std@@2W4_Fmtflags@12@B DD 02H	; std::_Iosb<int>::unitbuf
CONST	ENDS
;	COMDAT ?traps@_Num_base@std@@2_NB
CONST	SEGMENT
?traps@_Num_base@std@@2_NB DB 00H			; std::_Num_base::traps
CONST	ENDS
;	COMDAT ?skipws@?$_Iosb@H@std@@2W4_Fmtflags@12@B
CONST	SEGMENT
?skipws@?$_Iosb@H@std@@2W4_Fmtflags@12@B DD 01H		; std::_Iosb<int>::skipws
CONST	ENDS
PUBLIC	_fabsf
PUBLIC	_cosf
PUBLIC	_sinf
PUBLIC	?cos@@YAMM@Z					; cos
PUBLIC	?fabs@@YAMM@Z					; fabs
PUBLIC	?sin@@YAMM@Z					; sin
PUBLIC	?Type@VuEntity@@QBEGXZ				; VuEntity::Type
PUBLIC	?XPos@VuEntity@@QBEMXZ				; VuEntity::XPos
PUBLIC	?YPos@VuEntity@@QBEMXZ				; VuEntity::YPos
PUBLIC	?ZPos@VuEntity@@QBEMXZ				; VuEntity::ZPos
PUBLIC	?Yaw@VuEntity@@QBEMXZ				; VuEntity::Yaw
PUBLIC	?Pitch@VuEntity@@QBEMXZ				; VuEntity::Pitch
PUBLIC	?Roll@VuEntity@@QBEMXZ				; VuEntity::Roll
PUBLIC	?EntityType@VuEntity@@QBEPAUVuEntityType@@XZ	; VuEntity::EntityType
PUBLIC	??2@YAPAXIPAX@Z					; operator new
PUBLIC	??3@YAXPAX0@Z					; operator delete
PUBLIC	?length@?$char_traits@D@std@@SAIPBD@Z		; std::char_traits<char>::length
PUBLIC	?copy@?$char_traits@D@std@@SAPADPADPBDI@Z	; std::char_traits<char>::copy
PUBLIC	?move@?$char_traits@D@std@@SAPADPADPBDI@Z	; std::char_traits<char>::move
PUBLIC	?assign@?$char_traits@D@std@@SAXAADABD@Z	; std::char_traits<char>::assign
PUBLIC	??0?$allocator@D@std@@QAE@XZ			; std::allocator<char>::allocator<char>
PUBLIC	?deallocate@?$allocator@D@std@@QAEXPADI@Z	; std::allocator<char>::deallocate
PUBLIC	?allocate@?$allocator@D@std@@QAEPADI@Z		; std::allocator<char>::allocate
PUBLIC	?max_size@?$allocator@D@std@@QBEIXZ		; std::allocator<char>::max_size
PUBLIC	?max_size@?$allocator_traits@V?$allocator@D@std@@@std@@SAIABV?$allocator@D@2@@Z ; std::allocator_traits<std::allocator<char> >::max_size
PUBLIC	??0?$_Wrap_alloc@V?$allocator@D@std@@@std@@QAE@XZ ; std::_Wrap_alloc<std::allocator<char> >::_Wrap_alloc<std::allocator<char> >
PUBLIC	?allocate@?$_Wrap_alloc@V?$allocator@D@std@@@std@@QAEPADI@Z ; std::_Wrap_alloc<std::allocator<char> >::allocate
PUBLIC	?deallocate@?$_Wrap_alloc@V?$allocator@D@std@@@std@@QAEXPADI@Z ; std::_Wrap_alloc<std::allocator<char> >::deallocate
PUBLIC	?max_size@?$_Wrap_alloc@V?$allocator@D@std@@@std@@QBEIXZ ; std::_Wrap_alloc<std::allocator<char> >::max_size
PUBLIC	??0?$_String_val@U?$_Simple_types@D@std@@@std@@QAE@XZ ; std::_String_val<std::_Simple_types<char> >::_String_val<std::_Simple_types<char> >
PUBLIC	?_Myptr@?$_String_val@U?$_Simple_types@D@std@@@std@@QAEPADXZ ; std::_String_val<std::_Simple_types<char> >::_Myptr
PUBLIC	?_Myptr@?$_String_val@U?$_Simple_types@D@std@@@std@@QBEPBDXZ ; std::_String_val<std::_Simple_types<char> >::_Myptr
PUBLIC	??0?$_String_alloc@$0A@U?$_String_base_types@DV?$allocator@D@std@@@std@@@std@@QAE@ABV?$allocator@D@1@@Z ; std::_String_alloc<0,std::_String_base_types<char,std::allocator<char> > >::_String_alloc<0,std::_String_base_types<char,std::allocator<char> > >
PUBLIC	?_Getal@?$_String_alloc@$0A@U?$_String_base_types@DV?$allocator@D@std@@@std@@@std@@QBE?AU?$_Wrap_alloc@V?$allocator@D@std@@@2@XZ ; std::_String_alloc<0,std::_String_base_types<char,std::allocator<char> > >::_Getal
PUBLIC	??0?$basic_string@DU?$char_traits@D@std@@V?$allocator@D@2@@std@@QAE@PBD@Z ; std::basic_string<char,std::char_traits<char>,std::allocator<char> >::basic_string<char,std::char_traits<char>,std::allocator<char> >
PUBLIC	?assign@?$basic_string@DU?$char_traits@D@std@@V?$allocator@D@2@@std@@QAEAAV12@ABV12@II@Z ; std::basic_string<char,std::char_traits<char>,std::allocator<char> >::assign
PUBLIC	?assign@?$basic_string@DU?$char_traits@D@std@@V?$allocator@D@2@@std@@QAEAAV12@PBDI@Z ; std::basic_string<char,std::char_traits<char>,std::allocator<char> >::assign
PUBLIC	?assign@?$basic_string@DU?$char_traits@D@std@@V?$allocator@D@2@@std@@QAEAAV12@PBD@Z ; std::basic_string<char,std::char_traits<char>,std::allocator<char> >::assign
PUBLIC	?erase@?$basic_string@DU?$char_traits@D@std@@V?$allocator@D@2@@std@@QAEAAV12@I@Z ; std::basic_string<char,std::char_traits<char>,std::allocator<char> >::erase
PUBLIC	?erase@?$basic_string@DU?$char_traits@D@std@@V?$allocator@D@2@@std@@QAEAAV12@II@Z ; std::basic_string<char,std::char_traits<char>,std::allocator<char> >::erase
PUBLIC	?size@?$basic_string@DU?$char_traits@D@std@@V?$allocator@D@2@@std@@QBEIXZ ; std::basic_string<char,std::char_traits<char>,std::allocator<char> >::size
PUBLIC	?max_size@?$basic_string@DU?$char_traits@D@std@@V?$allocator@D@2@@std@@QBEIXZ ; std::basic_string<char,std::char_traits<char>,std::allocator<char> >::max_size
PUBLIC	?_Copy@?$basic_string@DU?$char_traits@D@std@@V?$allocator@D@2@@std@@QAEXII@Z ; std::basic_string<char,std::char_traits<char>,std::allocator<char> >::_Copy
PUBLIC	?_Eos@?$basic_string@DU?$char_traits@D@std@@V?$allocator@D@2@@std@@QAEXI@Z ; std::basic_string<char,std::char_traits<char>,std::allocator<char> >::_Eos
PUBLIC	?_Grow@?$basic_string@DU?$char_traits@D@std@@V?$allocator@D@2@@std@@QAE_NI_N@Z ; std::basic_string<char,std::char_traits<char>,std::allocator<char> >::_Grow
PUBLIC	?_Inside@?$basic_string@DU?$char_traits@D@std@@V?$allocator@D@2@@std@@QAE_NPBD@Z ; std::basic_string<char,std::char_traits<char>,std::allocator<char> >::_Inside
PUBLIC	?_Tidy@?$basic_string@DU?$char_traits@D@std@@V?$allocator@D@2@@std@@QAEX_NI@Z ; std::basic_string<char,std::char_traits<char>,std::allocator<char> >::_Tidy
PUBLIC	?_Xlen@?$basic_string@DU?$char_traits@D@std@@V?$allocator@D@2@@std@@QBEXXZ ; std::basic_string<char,std::char_traits<char>,std::allocator<char> >::_Xlen
PUBLIC	?_Xran@?$basic_string@DU?$char_traits@D@std@@V?$allocator@D@2@@std@@QBEXXZ ; std::basic_string<char,std::char_traits<char>,std::allocator<char> >::_Xran
PUBLIC	?IsSim@FalconEntity@@QAEHXZ			; FalconEntity::IsSim
PUBLIC	?mlSinCos@@YAXPAUmlTrig@@M@Z			; mlSinCos
PUBLIC	?Type@SensorClass@@QAE?AW4SensorType@1@XZ	; SensorClass::Type
PUBLIC	?SeekerAz@SensorClass@@QAEMXZ			; SensorClass::SeekerAz
PUBLIC	?SeekerEl@SensorClass@@QAEMXZ			; SensorClass::SeekerEl
PUBLIC	??B?$VuBin@VSimWeaponClass@@@@QBE_NXZ		; VuBin<SimWeaponClass>::operator bool
PUBLIC	?GetSPType@SimBaseClass@@QBEEXZ			; SimBaseClass::GetSPType
PUBLIC	?get@?$VuBin@VFalconEntity@@@@QBEPAVFalconEntity@@XZ ; VuBin<FalconEntity>::get
PUBLIC	?AirAirMode@FireControlComputer@@AAEXXZ		; FireControlComputer::AirAirMode
PUBLIC	??0id@locale@std@@QAE@I@Z			; std::locale::id::id
PUBLIC	?generic_category@std@@YAABVerror_category@1@XZ	; std::generic_category
PUBLIC	?system_category@std@@YAABVerror_category@1@XZ	; std::system_category
PUBLIC	??0error_category@std@@QAE@XZ			; std::error_category::error_category
PUBLIC	??1error_category@std@@UAE@XZ			; std::error_category::~error_category
PUBLIC	?default_error_condition@error_category@std@@UBE?AVerror_condition@2@H@Z ; std::error_category::default_error_condition
PUBLIC	?equivalent@error_category@std@@UBE_NHABVerror_condition@2@@Z ; std::error_category::equivalent
PUBLIC	?equivalent@error_category@std@@UBE_NABVerror_code@2@H@Z ; std::error_category::equivalent
PUBLIC	??8error_category@std@@QBE_NABV01@@Z		; std::error_category::operator==
PUBLIC	??_Gerror_category@std@@UAEPAXI@Z		; std::error_category::`scalar deleting destructor'
PUBLIC	?value@error_code@std@@QBEHXZ			; std::error_code::value
PUBLIC	?category@error_code@std@@QBEABVerror_category@2@XZ ; std::error_code::category
PUBLIC	??0error_condition@std@@QAE@HABVerror_category@1@@Z ; std::error_condition::error_condition
PUBLIC	?value@error_condition@std@@QBEHXZ		; std::error_condition::value
PUBLIC	?category@error_condition@std@@QBEABVerror_category@2@XZ ; std::error_condition::category
PUBLIC	??8error_condition@std@@QBE_NABV01@@Z		; std::error_condition::operator==
PUBLIC	??0_Generic_error_category@std@@QAE@XZ		; std::_Generic_error_category::_Generic_error_category
PUBLIC	?name@_Generic_error_category@std@@UBEPBDXZ	; std::_Generic_error_category::name
PUBLIC	?message@_Generic_error_category@std@@UBE?AV?$basic_string@DU?$char_traits@D@std@@V?$allocator@D@2@@2@H@Z ; std::_Generic_error_category::message
PUBLIC	??1_Generic_error_category@std@@UAE@XZ		; std::_Generic_error_category::~_Generic_error_category
PUBLIC	??_G_Generic_error_category@std@@UAEPAXI@Z	; std::_Generic_error_category::`scalar deleting destructor'
PUBLIC	??0_Iostream_error_category@std@@QAE@XZ		; std::_Iostream_error_category::_Iostream_error_category
PUBLIC	?name@_Iostream_error_category@std@@UBEPBDXZ	; std::_Iostream_error_category::name
PUBLIC	?message@_Iostream_error_category@std@@UBE?AV?$basic_string@DU?$char_traits@D@std@@V?$allocator@D@2@@2@H@Z ; std::_Iostream_error_category::message
PUBLIC	??1_Iostream_error_category@std@@UAE@XZ		; std::_Iostream_error_category::~_Iostream_error_category
PUBLIC	??_G_Iostream_error_category@std@@UAEPAXI@Z	; std::_Iostream_error_category::`scalar deleting destructor'
PUBLIC	??0_System_error_category@std@@QAE@XZ		; std::_System_error_category::_System_error_category
PUBLIC	?name@_System_error_category@std@@UBEPBDXZ	; std::_System_error_category::name
PUBLIC	?message@_System_error_category@std@@UBE?AV?$basic_string@DU?$char_traits@D@std@@V?$allocator@D@2@@2@H@Z ; std::_System_error_category::message
PUBLIC	?default_error_condition@_System_error_category@std@@UBE?AVerror_condition@2@H@Z ; std::_System_error_category::default_error_condition
PUBLIC	??1_System_error_category@std@@UAE@XZ		; std::_System_error_category::~_System_error_category
PUBLIC	??_G_System_error_category@std@@UAEPAXI@Z	; std::_System_error_category::`scalar deleting destructor'
PUBLIC	?GetmaxTof@MissileClass@@QAEMXZ			; MissileClass::GetmaxTof
PUBLIC	?GetSndAim9Growl@MissileClass@@QAEHXZ		; MissileClass::GetSndAim9Growl
PUBLIC	?GetSndAim9Uncaged@MissileClass@@QAEHXZ		; MissileClass::GetSndAim9Uncaged
PUBLIC	?GetSndAim9EnviroSky@MissileClass@@QAEHXZ	; MissileClass::GetSndAim9EnviroSky
PUBLIC	?GetSndAim9EnviroGround@MissileClass@@QAEHXZ	; MissileClass::GetSndAim9EnviroGround
PUBLIC	?GetCoolState@SMSClass@@QAE?AW4Aim9Mode@1@XZ	; SMSClass::GetCoolState
PUBLIC	?BaseData@SimObjectType@@QAEPAVFalconEntity@@XZ	; SimObjectType::BaseData
PUBLIC	?DisplayInCockpit@OTWDriverClass@@QAEHXZ	; OTWDriverClass::DisplayInCockpit
PUBLIC	?AutopilotType@AircraftClass@@QAE?AW4AutoPilotType@1@XZ ; AircraftClass::AutopilotType
PUBLIC	?AnalogIsUsed@SIMLIB_IO_CLASS@@QAE_NW4GameAxis_t@@@Z ; SIMLIB_IO_CLASS::AnalogIsUsed
PUBLIC	??$construct@PADAAPAD@?$_Wrap_alloc@V?$allocator@D@std@@@std@@QAEXPAPADAAPAD@Z ; std::_Wrap_alloc<std::allocator<char> >::construct<char *,char * &>
PUBLIC	??$destroy@PAD@?$_Wrap_alloc@V?$allocator@D@std@@@std@@QAEXPAPAD@Z ; std::_Wrap_alloc<std::allocator<char> >::destroy<char *>
PUBLIC	??$addressof@D@std@@YAPADAAD@Z			; std::addressof<char>
PUBLIC	??$_Allocate@D@std@@YAPADIPAD@Z			; std::_Allocate<char>
PUBLIC	??$forward@AAPAD@std@@YAAAPADAAPAD@Z		; std::forward<char * &>
PUBLIC	??$construct@PADAAPAD@?$allocator_traits@V?$allocator@D@std@@@std@@SAXAAV?$allocator@D@1@PAPADAAPAD@Z ; std::allocator_traits<std::allocator<char> >::construct<char *,char * &>
PUBLIC	??$destroy@PAD@?$allocator_traits@V?$allocator@D@std@@@std@@SAXAAV?$allocator@D@1@PAPAD@Z ; std::allocator_traits<std::allocator<char> >::destroy<char *>
PUBLIC	??$construct@PADAAPAD@?$allocator@D@std@@QAEXPAPADAAPAD@Z ; std::allocator<char>::construct<char *,char * &>
PUBLIC	??$destroy@PAD@?$allocator@D@std@@QAEXPAPAD@Z	; std::allocator<char>::destroy<char *>
PUBLIC	??_7error_category@std@@6B@			; std::error_category::`vftable'
PUBLIC	??_7_Generic_error_category@std@@6B@		; std::_Generic_error_category::`vftable'
PUBLIC	??_C@_07DCLBNMLN@generic?$AA@			; `string'
PUBLIC	??_C@_0O@BFJCFAAK@unknown?5error?$AA@		; `string'
PUBLIC	??_7_Iostream_error_category@std@@6B@		; std::_Iostream_error_category::`vftable'
PUBLIC	??_C@_08LLGCOLLL@iostream?$AA@			; `string'
PUBLIC	??_C@_0BG@PADBLCHM@iostream?5stream?5error?$AA@	; `string'
PUBLIC	??_7_System_error_category@std@@6B@		; std::_System_error_category::`vftable'
PUBLIC	??_C@_06FHFOAHML@system?$AA@			; `string'
PUBLIC	?_Generic_object@?$_Error_objects@H@std@@2V_Generic_error_category@2@A ; std::_Error_objects<int>::_Generic_object
PUBLIC	?_Iostream_object@?$_Error_objects@H@std@@2V_Iostream_error_category@2@A ; std::_Error_objects<int>::_Iostream_object
PUBLIC	?_System_object@?$_Error_objects@H@std@@2V_System_error_category@2@A ; std::_Error_objects<int>::_System_object
PUBLIC	?id@?$num_put@DV?$back_insert_iterator@V?$basic_string@DU?$char_traits@D@std@@V?$allocator@D@2@@std@@@std@@@std@@2V0locale@2@A ; std::num_put<char,std::back_insert_iterator<std::basic_string<char,std::char_traits<char>,std::allocator<char> > > >::id
PUBLIC	?id@?$num_put@_WV?$back_insert_iterator@V?$basic_string@_WU?$char_traits@_W@std@@V?$allocator@_W@2@@std@@@std@@@std@@2V0locale@2@A ; std::num_put<wchar_t,std::back_insert_iterator<std::basic_string<wchar_t,std::char_traits<wchar_t>,std::allocator<wchar_t> > > >::id
PUBLIC	?id@?$numpunct@D@std@@2V0locale@2@A		; std::numpunct<char>::id
PUBLIC	?id@?$numpunct@_W@std@@2V0locale@2@A		; std::numpunct<wchar_t>::id
PUBLIC	??_C@_0BI@CFPLBAOH@invalid?5string?5position?$AA@ ; `string'
PUBLIC	??_C@_0BA@JFNIOLAK@string?5too?5long?$AA@	; `string'
PUBLIC	??_R4error_category@std@@6B@			; std::error_category::`RTTI Complete Object Locator'
PUBLIC	??_R0?AVerror_category@std@@@8			; std::error_category `RTTI Type Descriptor'
PUBLIC	??_R3error_category@std@@8			; std::error_category::`RTTI Class Hierarchy Descriptor'
PUBLIC	??_R2error_category@std@@8			; std::error_category::`RTTI Base Class Array'
PUBLIC	??_R1A@?0A@EA@error_category@std@@8		; std::error_category::`RTTI Base Class Descriptor at (0,-1,0,64)'
PUBLIC	??_R4_Generic_error_category@std@@6B@		; std::_Generic_error_category::`RTTI Complete Object Locator'
PUBLIC	??_R0?AV_Generic_error_category@std@@@8		; std::_Generic_error_category `RTTI Type Descriptor'
PUBLIC	??_R3_Generic_error_category@std@@8		; std::_Generic_error_category::`RTTI Class Hierarchy Descriptor'
PUBLIC	??_R2_Generic_error_category@std@@8		; std::_Generic_error_category::`RTTI Base Class Array'
PUBLIC	??_R1A@?0A@EA@_Generic_error_category@std@@8	; std::_Generic_error_category::`RTTI Base Class Descriptor at (0,-1,0,64)'
PUBLIC	??_R4_Iostream_error_category@std@@6B@		; std::_Iostream_error_category::`RTTI Complete Object Locator'
PUBLIC	??_R0?AV_Iostream_error_category@std@@@8	; std::_Iostream_error_category `RTTI Type Descriptor'
PUBLIC	??_R3_Iostream_error_category@std@@8		; std::_Iostream_error_category::`RTTI Class Hierarchy Descriptor'
PUBLIC	??_R2_Iostream_error_category@std@@8		; std::_Iostream_error_category::`RTTI Base Class Array'
PUBLIC	??_R1A@?0A@EA@_Iostream_error_category@std@@8	; std::_Iostream_error_category::`RTTI Base Class Descriptor at (0,-1,0,64)'
PUBLIC	??_R4_System_error_category@std@@6B@		; std::_System_error_category::`RTTI Complete Object Locator'
PUBLIC	??_R0?AV_System_error_category@std@@@8		; std::_System_error_category `RTTI Type Descriptor'
PUBLIC	??_R3_System_error_category@std@@8		; std::_System_error_category::`RTTI Class Hierarchy Descriptor'
PUBLIC	??_R2_System_error_category@std@@8		; std::_System_error_category::`RTTI Base Class Array'
PUBLIC	??_R1A@?0A@EA@_System_error_category@std@@8	; std::_System_error_category::`RTTI Base Class Descriptor at (0,-1,0,64)'
PUBLIC	__real@00000000
PUBLIC	__real@3c23d70a
PUBLIC	__real@3c8efa34
PUBLIC	__real@3ca3d70a
PUBLIC	__real@3cf5c28f
PUBLIC	__real@3d75c28f
PUBLIC	__real@3d8f5c29
PUBLIC	__real@3d99999a
PUBLIC	__real@3dcccccd
PUBLIC	__real@3e4ccccd
PUBLIC	__real@3e75c28f
PUBLIC	__real@3e851eb8
PUBLIC	__real@3e8f5c29
PUBLIC	__real@3e9eb852
PUBLIC	__real@3ea8f5c3
PUBLIC	__real@3eb2b8c1
PUBLIC	__real@3f000000
PUBLIC	__real@3f17ac60
PUBLIC	__real@3f400000
PUBLIC	__real@3f4a3d71
PUBLIC	__real@3f4ccccd
PUBLIC	__real@3f800000
PUBLIC	__real@3f8147ae
PUBLIC	__real@3f847ae147ae147b
PUBLIC	__real@3f866666
PUBLIC	__real@3fc00000
PUBLIC	__real@3fd80b03
PUBLIC	__real@40000000
PUBLIC	__real@40033333
PUBLIC	__real@40900000
PUBLIC	__real@41000000
PUBLIC	__real@41200000
PUBLIC	__real@41800000
PUBLIC	__real@42652ee1
PUBLIC	__real@43160000
PUBLIC	__real@437a0000
PUBLIC	__real@4428c89a
PUBLIC	__real@447a0000
PUBLIC	__real@44af0000
PUBLIC	__real@44bb8000
PUBLIC	__real@44fa0000
PUBLIC	__real@45bde1b0
PUBLIC	__real@461c4000
PUBLIC	__real@46d59de6
PUBLIC	__real@46e17c01
PUBLIC	__real@46ea6000
PUBLIC	__real@46ed5a1c
PUBLIC	__real@46fffe00
PUBLIC	__real@47ed5a1c
PUBLIC	__real@bb9aa810
PUBLIC	__real@bd75c28f
PUBLIC	__real@bdd6774e
PUBLIC	__real@bf800000
PUBLIC	__real@bf847ae147ae147b
PUBLIC	__real@bfa999999999999a
PUBLIC	__real@bfb1eb851eb851ec
PUBLIC	__real@c0a00000
PUBLIC	__real@c61c4000
PUBLIC	__xmm@80000000800000008000000080000000
EXTRN	__purecall:PROC
EXTRN	??2@YAPAXI@Z:PROC				; operator new
EXTRN	??3@YAXPAX@Z:PROC				; operator delete
EXTRN	_atexit:PROC
EXTRN	_cos:PROC
EXTRN	_fabs:PROC
EXTRN	_sin:PROC
EXTRN	_rand:PROC
EXTRN	_memcpy:PROC
EXTRN	_strlen:PROC
EXTRN	_memmove:PROC
EXTRN	?SetPosition@VuEntity@@QAEXMMM@Z:PROC		; VuEntity::SetPosition
EXTRN	?_Xbad_alloc@std@@YAXXZ:PROC			; std::_Xbad_alloc
EXTRN	?_Xlength_error@std@@YAXPBD@Z:PROC		; std::_Xlength_error
EXTRN	?_Xout_of_range@std@@YAXPBD@Z:PROC		; std::_Xout_of_range
EXTRN	?FindSensor@@YAPAVSensorClass@@PAVSimMoverClass@@H@Z:PROC ; FindSensor
EXTRN	_F4SoundFXSetDist:PROC
EXTRN	?FindGroundIntersection@FireControlComputer@@AAEHMMPAM00@Z:PROC ; FireControlComputer::FindGroundIntersection
EXTRN	?ClearCurrentTarget@FireControlComputer@@QAEXXZ:PROC ; FireControlComputer::ClearCurrentTarget
EXTRN	??_Eerror_category@std@@UAEPAXI@Z:PROC		; std::error_category::`vector deleting destructor'
EXTRN	?_Syserror_map@std@@YAPBDH@Z:PROC		; std::_Syserror_map
EXTRN	?_Winerror_map@std@@YAPBDH@Z:PROC		; std::_Winerror_map
EXTRN	??_E_Generic_error_category@std@@UAEPAXI@Z:PROC	; std::_Generic_error_category::`vector deleting destructor'
EXTRN	??_E_Iostream_error_category@std@@UAEPAXI@Z:PROC ; std::_Iostream_error_category::`vector deleting destructor'
EXTRN	??_E_System_error_category@std@@UAEPAXI@Z:PROC	; std::_System_error_category::`vector deleting destructor'
EXTRN	?SetTarget@MissileClass@@QAEXPAVSimObjectType@@@Z:PROC ; MissileClass::SetTarget
EXTRN	?DropTarget@MissileClass@@QAEXXZ:PROC		; MissileClass::DropTarget
EXTRN	?SetSeekerPos@MissileClass@@QAEHPAM0@Z:PROC	; MissileClass::SetSeekerPos
EXTRN	?RunSeeker@MissileClass@@QAEXXZ:PROC		; MissileClass::RunSeeker
EXTRN	?GetRMax@MissileClass@@QAEMMMMMM@Z:PROC		; MissileClass::GetRMax
EXTRN	?GetTOF@MissileClass@@QAEMMMMMM@Z:PROC		; MissileClass::GetTOF
EXTRN	?GetActiveTime@MissileClass@@QAEMMMMMM@Z:PROC	; MissileClass::GetActiveTime
EXTRN	?GetActiveRange@MissileClass@@QAEMMMMMM@Z:PROC	; MissileClass::GetActiveRange
EXTRN	?WeaponStep@SMSClass@@QAEHH@Z:PROC		; SMSClass::WeaponStep
EXTRN	?ResetCurrentWeapon@SMSClass@@QAEXXZ:PROC	; SMSClass::ResetCurrentWeapon
EXTRN	?GetOTWDisplayMode@OTWDriverClass@@QAE?AW4OTWDisplayMode@1@XZ:PROC ; OTWDriverClass::GetOTWDisplayMode
EXTRN	?GetFault@FackClass@@QAEHW4type_FSubSystem@FaultClass@@@Z:PROC ; FackClass::GetFault
EXTRN	?GetPlayerAircraft@SimulationDriver@@QBEPAVAircraftClass@@XZ:PROC ; SimulationDriver::GetPlayerAircraft
EXTRN	?GetAxisValue@SIMLIB_IO_CLASS@@QAEHW4GameAxis_t@@@Z:PROC ; SIMLIB_IO_CLASS::GetAxisValue
EXTRN	@__security_check_cookie@4:PROC
EXTRN	__CxxThrowException@8:PROC
EXTRN	___CxxFrameHandler3:PROC
EXTRN	?SimLibMajorFrameTime@@3MA:DWORD		; SimLibMajorFrameTime
EXTRN	?Falcon4ClassTable@@3PAUFalcon4EntityClassType@@A:DWORD ; Falcon4ClassTable
EXTRN	?g_bRealisticAvionics@@3_NA:BYTE		; g_bRealisticAvionics
EXTRN	??_7type_info@@6B@:QWORD			; type_info::`vftable'
EXTRN	?OTWDriver@@3VOTWDriverClass@@A:BYTE		; OTWDriver
EXTRN	?SimDriver@@3VSimulationDriver@@A:BYTE		; SimDriver
EXTRN	?g_nRNESpeed@@3HA:DWORD				; g_nRNESpeed
EXTRN	?IO@@3VSIMLIB_IO_CLASS@@A:BYTE			; IO
EXTRN	___security_cookie:DWORD
EXTRN	__fltused:DWORD
_BSS	SEGMENT
_piecewise_construct DB 01H DUP (?)
	ALIGN	4

_allocator_arg DB 01H DUP (?)
_BSS	ENDS
;	COMDAT ?_Generic_object@?$_Error_objects@H@std@@2V_Generic_error_category@2@A
_BSS	SEGMENT
?_Generic_object@?$_Error_objects@H@std@@2V_Generic_error_category@2@A DD 01H DUP (?) ; std::_Error_objects<int>::_Generic_object
_BSS	ENDS
;	COMDAT ?_Iostream_object@?$_Error_objects@H@std@@2V_Iostream_error_category@2@A
_BSS	SEGMENT
?_Iostream_object@?$_Error_objects@H@std@@2V_Iostream_error_category@2@A DD 01H DUP (?) ; std::_Error_objects<int>::_Iostream_object
_BSS	ENDS
;	COMDAT ?_System_object@?$_Error_objects@H@std@@2V_System_error_category@2@A
_BSS	SEGMENT
?_System_object@?$_Error_objects@H@std@@2V_System_error_category@2@A DD 01H DUP (?) ; std::_Error_objects<int>::_System_object
_BSS	ENDS
;	COMDAT ?id@?$num_put@DV?$back_insert_iterator@V?$basic_string@DU?$char_traits@D@std@@V?$allocator@D@2@@std@@@std@@@std@@2V0locale@2@A
_BSS	SEGMENT
?id@?$num_put@DV?$back_insert_iterator@V?$basic_string@DU?$char_traits@D@std@@V?$allocator@D@2@@std@@@std@@@std@@2V0locale@2@A DD 01H DUP (?) ; std::num_put<char,std::back_insert_iterator<std::basic_string<char,std::char_traits<char>,std::allocator<char> > > >::id
_BSS	ENDS
;	COMDAT ?id@?$num_put@_WV?$back_insert_iterator@V?$basic_string@_WU?$char_traits@_W@std@@V?$allocator@_W@2@@std@@@std@@@std@@2V0locale@2@A
_BSS	SEGMENT
?id@?$num_put@_WV?$back_insert_iterator@V?$basic_string@_WU?$char_traits@_W@std@@V?$allocator@_W@2@@std@@@std@@@std@@2V0locale@2@A DD 01H DUP (?) ; std::num_put<wchar_t,std::back_insert_iterator<std::basic_string<wchar_t,std::char_traits<wchar_t>,std::allocator<wchar_t> > > >::id
_BSS	ENDS
_BSS	SEGMENT
	ALIGN	4

_COS_SUN_EFFECT_HALF_ANGLE DD 01H DUP (?)
_BSS	ENDS
;	COMDAT ?lastIrSig@?1??AirAirMode@FireControlComputer@@AAEXXZ@4MA
_BSS	SEGMENT
?lastIrSig@?1??AirAirMode@FireControlComputer@@AAEXXZ@4MA DD 01H DUP (?) ; `FireControlComputer::AirAirMode'::`2'::lastIrSig
_BSS	ENDS
;	COMDAT ?bElReversed@?1??AirAirMode@FireControlComputer@@AAEXXZ@4_NA
_BSS	SEGMENT
?bElReversed@?1??AirAirMode@FireControlComputer@@AAEXXZ@4_NA DB 01H DUP (?) ; `FireControlComputer::AirAirMode'::`2'::bElReversed
_BSS	ENDS
;	COMDAT ?bAzReversed@?1??AirAirMode@FireControlComputer@@AAEXXZ@4_NA
_BSS	SEGMENT
?bAzReversed@?1??AirAirMode@FireControlComputer@@AAEXXZ@4_NA DB 01H DUP (?) ; `FireControlComputer::AirAirMode'::`2'::bAzReversed
_BSS	ENDS
;	COMDAT ?id@?$numpunct@D@std@@2V0locale@2@A
_BSS	SEGMENT
?id@?$numpunct@D@std@@2V0locale@2@A DD 01H DUP (?)	; std::numpunct<char>::id
_BSS	ENDS
;	COMDAT ?id@?$numpunct@_W@std@@2V0locale@2@A
_BSS	SEGMENT
?id@?$numpunct@_W@std@@2V0locale@2@A DD 01H DUP (?)	; std::numpunct<wchar_t>::id
_BSS	ENDS
CRT$XCU	SEGMENT
_piecewise_construct$initializer$ DD FLAT:??__Epiecewise_construct@std@@YAXXZ
CRT$XCU	ENDS
;	COMDAT __xmm@80000000800000008000000080000000
CONST	SEGMENT
__xmm@80000000800000008000000080000000 DB 00H, 00H, 00H, 080H, 00H, 00H, 00H
	DB	080H, 00H, 00H, 00H, 080H, 00H, 00H, 00H, 080H
CONST	ENDS
;	COMDAT __real@c61c4000
CONST	SEGMENT
__real@c61c4000 DD 0c61c4000r			; -10000
CONST	ENDS
;	COMDAT __real@c0a00000
CONST	SEGMENT
__real@c0a00000 DD 0c0a00000r			; -5
CONST	ENDS
;	COMDAT __real@bfb1eb851eb851ec
CONST	SEGMENT
__real@bfb1eb851eb851ec DQ 0bfb1eb851eb851ecr	; -0.07
CONST	ENDS
;	COMDAT __real@bfa999999999999a
CONST	SEGMENT
__real@bfa999999999999a DQ 0bfa999999999999ar	; -0.05
CONST	ENDS
;	COMDAT __real@bf847ae147ae147b
CONST	SEGMENT
__real@bf847ae147ae147b DQ 0bf847ae147ae147br	; -0.01
CONST	ENDS
;	COMDAT __real@bf800000
CONST	SEGMENT
__real@bf800000 DD 0bf800000r			; -1
CONST	ENDS
;	COMDAT __real@bdd6774e
CONST	SEGMENT
__real@bdd6774e DD 0bdd6774er			; -0.10472
CONST	ENDS
;	COMDAT __real@bd75c28f
CONST	SEGMENT
__real@bd75c28f DD 0bd75c28fr			; -0.06
CONST	ENDS
;	COMDAT __real@bb9aa810
CONST	SEGMENT
__real@bb9aa810 DD 0bb9aa810r			; -0.00471974
CONST	ENDS
;	COMDAT __real@47ed5a1c
CONST	SEGMENT
__real@47ed5a1c DD 047ed5a1cr			; 121524
CONST	ENDS
;	COMDAT __real@46fffe00
CONST	SEGMENT
__real@46fffe00 DD 046fffe00r			; 32767
CONST	ENDS
;	COMDAT __real@46ed5a1c
CONST	SEGMENT
__real@46ed5a1c DD 046ed5a1cr			; 30381.1
CONST	ENDS
;	COMDAT __real@46ea6000
CONST	SEGMENT
__real@46ea6000 DD 046ea6000r			; 30000
CONST	ENDS
;	COMDAT __real@46e17c01
CONST	SEGMENT
__real@46e17c01 DD 046e17c01r			; 28862
CONST	ENDS
;	COMDAT __real@46d59de6
CONST	SEGMENT
__real@46d59de6 DD 046d59de6r			; 27342.9
CONST	ENDS
;	COMDAT __real@461c4000
CONST	SEGMENT
__real@461c4000 DD 0461c4000r			; 10000
CONST	ENDS
;	COMDAT __real@45bde1b0
CONST	SEGMENT
__real@45bde1b0 DD 045bde1b0r			; 6076.21
CONST	ENDS
;	COMDAT __real@44fa0000
CONST	SEGMENT
__real@44fa0000 DD 044fa0000r			; 2000
CONST	ENDS
;	COMDAT __real@44bb8000
CONST	SEGMENT
__real@44bb8000 DD 044bb8000r			; 1500
CONST	ENDS
;	COMDAT __real@44af0000
CONST	SEGMENT
__real@44af0000 DD 044af0000r			; 1400
CONST	ENDS
;	COMDAT __real@447a0000
CONST	SEGMENT
__real@447a0000 DD 0447a0000r			; 1000
CONST	ENDS
;	COMDAT __real@4428c89a
CONST	SEGMENT
__real@4428c89a DD 04428c89ar			; 675.134
CONST	ENDS
;	COMDAT __real@437a0000
CONST	SEGMENT
__real@437a0000 DD 0437a0000r			; 250
CONST	ENDS
;	COMDAT __real@43160000
CONST	SEGMENT
__real@43160000 DD 043160000r			; 150
CONST	ENDS
;	COMDAT __real@42652ee1
CONST	SEGMENT
__real@42652ee1 DD 042652ee1r			; 57.2958
CONST	ENDS
;	COMDAT __real@41800000
CONST	SEGMENT
__real@41800000 DD 041800000r			; 16
CONST	ENDS
;	COMDAT __real@41200000
CONST	SEGMENT
__real@41200000 DD 041200000r			; 10
CONST	ENDS
;	COMDAT __real@41000000
CONST	SEGMENT
__real@41000000 DD 041000000r			; 8
CONST	ENDS
;	COMDAT __real@40900000
CONST	SEGMENT
__real@40900000 DD 040900000r			; 4.5
CONST	ENDS
;	COMDAT __real@40033333
CONST	SEGMENT
__real@40033333 DD 040033333r			; 2.05
CONST	ENDS
;	COMDAT __real@40000000
CONST	SEGMENT
__real@40000000 DD 040000000r			; 2
CONST	ENDS
;	COMDAT __real@3fd80b03
CONST	SEGMENT
__real@3fd80b03 DD 03fd80b03r			; 1.68784
CONST	ENDS
;	COMDAT __real@3fc00000
CONST	SEGMENT
__real@3fc00000 DD 03fc00000r			; 1.5
CONST	ENDS
;	COMDAT __real@3f866666
CONST	SEGMENT
__real@3f866666 DD 03f866666r			; 1.05
CONST	ENDS
;	COMDAT __real@3f847ae147ae147b
CONST	SEGMENT
__real@3f847ae147ae147b DQ 03f847ae147ae147br	; 0.01
CONST	ENDS
;	COMDAT __real@3f8147ae
CONST	SEGMENT
__real@3f8147ae DD 03f8147aer			; 1.01
CONST	ENDS
;	COMDAT __real@3f800000
CONST	SEGMENT
__real@3f800000 DD 03f800000r			; 1
CONST	ENDS
;	COMDAT __real@3f4ccccd
CONST	SEGMENT
__real@3f4ccccd DD 03f4ccccdr			; 0.8
CONST	ENDS
;	COMDAT __real@3f4a3d71
CONST	SEGMENT
__real@3f4a3d71 DD 03f4a3d71r			; 0.79
CONST	ENDS
;	COMDAT __real@3f400000
CONST	SEGMENT
__real@3f400000 DD 03f400000r			; 0.75
CONST	ENDS
;	COMDAT __real@3f17ac60
CONST	SEGMENT
__real@3f17ac60 DD 03f17ac60r			; 0.592474
CONST	ENDS
;	COMDAT __real@3f000000
CONST	SEGMENT
__real@3f000000 DD 03f000000r			; 0.5
CONST	ENDS
;	COMDAT __real@3eb2b8c1
CONST	SEGMENT
__real@3eb2b8c1 DD 03eb2b8c1r			; 0.349066
CONST	ENDS
;	COMDAT __real@3ea8f5c3
CONST	SEGMENT
__real@3ea8f5c3 DD 03ea8f5c3r			; 0.33
CONST	ENDS
;	COMDAT __real@3e9eb852
CONST	SEGMENT
__real@3e9eb852 DD 03e9eb852r			; 0.31
CONST	ENDS
;	COMDAT __real@3e8f5c29
CONST	SEGMENT
__real@3e8f5c29 DD 03e8f5c29r			; 0.28
CONST	ENDS
;	COMDAT __real@3e851eb8
CONST	SEGMENT
__real@3e851eb8 DD 03e851eb8r			; 0.26
CONST	ENDS
;	COMDAT __real@3e75c28f
CONST	SEGMENT
__real@3e75c28f DD 03e75c28fr			; 0.24
CONST	ENDS
;	COMDAT __real@3e4ccccd
CONST	SEGMENT
__real@3e4ccccd DD 03e4ccccdr			; 0.2
CONST	ENDS
;	COMDAT __real@3dcccccd
CONST	SEGMENT
__real@3dcccccd DD 03dcccccdr			; 0.1
CONST	ENDS
;	COMDAT __real@3d99999a
CONST	SEGMENT
__real@3d99999a DD 03d99999ar			; 0.075
CONST	ENDS
;	COMDAT __real@3d8f5c29
CONST	SEGMENT
__real@3d8f5c29 DD 03d8f5c29r			; 0.07
CONST	ENDS
;	COMDAT __real@3d75c28f
CONST	SEGMENT
__real@3d75c28f DD 03d75c28fr			; 0.06
CONST	ENDS
;	COMDAT __real@3cf5c28f
CONST	SEGMENT
__real@3cf5c28f DD 03cf5c28fr			; 0.03
CONST	ENDS
;	COMDAT __real@3ca3d70a
CONST	SEGMENT
__real@3ca3d70a DD 03ca3d70ar			; 0.02
CONST	ENDS
;	COMDAT __real@3c8efa34
CONST	SEGMENT
__real@3c8efa34 DD 03c8efa34r			; 0.0174533
CONST	ENDS
;	COMDAT __real@3c23d70a
CONST	SEGMENT
__real@3c23d70a DD 03c23d70ar			; 0.01
CONST	ENDS
;	COMDAT __real@00000000
CONST	SEGMENT
__real@00000000 DD 000000000r			; 0
CONST	ENDS
;	COMDAT ??_R1A@?0A@EA@_System_error_category@std@@8
rdata$r	SEGMENT
??_R1A@?0A@EA@_System_error_category@std@@8 DD FLAT:??_R0?AV_System_error_category@std@@@8 ; std::_System_error_category::`RTTI Base Class Descriptor at (0,-1,0,64)'
	DD	02H
	DD	00H
	DD	0ffffffffH
	DD	00H
	DD	040H
	DD	FLAT:??_R3_System_error_category@std@@8
rdata$r	ENDS
;	COMDAT ??_R2_System_error_category@std@@8
rdata$r	SEGMENT
??_R2_System_error_category@std@@8 DD FLAT:??_R1A@?0A@EA@_System_error_category@std@@8 ; std::_System_error_category::`RTTI Base Class Array'
	DD	FLAT:??_R1A@?0A@EA@_Generic_error_category@std@@8
	DD	FLAT:??_R1A@?0A@EA@error_category@std@@8
rdata$r	ENDS
;	COMDAT ??_R3_System_error_category@std@@8
rdata$r	SEGMENT
??_R3_System_error_category@std@@8 DD 00H		; std::_System_error_category::`RTTI Class Hierarchy Descriptor'
	DD	00H
	DD	03H
	DD	FLAT:??_R2_System_error_category@std@@8
rdata$r	ENDS
;	COMDAT ??_R0?AV_System_error_category@std@@@8
_DATA	SEGMENT
??_R0?AV_System_error_category@std@@@8 DD FLAT:??_7type_info@@6B@ ; std::_System_error_category `RTTI Type Descriptor'
	DD	00H
	DB	'.?AV_System_error_category@std@@', 00H
_DATA	ENDS
;	COMDAT ??_R4_System_error_category@std@@6B@
rdata$r	SEGMENT
??_R4_System_error_category@std@@6B@ DD 00H		; std::_System_error_category::`RTTI Complete Object Locator'
	DD	00H
	DD	00H
	DD	FLAT:??_R0?AV_System_error_category@std@@@8
	DD	FLAT:??_R3_System_error_category@std@@8
rdata$r	ENDS
;	COMDAT ??_R1A@?0A@EA@_Iostream_error_category@std@@8
rdata$r	SEGMENT
??_R1A@?0A@EA@_Iostream_error_category@std@@8 DD FLAT:??_R0?AV_Iostream_error_category@std@@@8 ; std::_Iostream_error_category::`RTTI Base Class Descriptor at (0,-1,0,64)'
	DD	02H
	DD	00H
	DD	0ffffffffH
	DD	00H
	DD	040H
	DD	FLAT:??_R3_Iostream_error_category@std@@8
rdata$r	ENDS
;	COMDAT ??_R2_Iostream_error_category@std@@8
rdata$r	SEGMENT
??_R2_Iostream_error_category@std@@8 DD FLAT:??_R1A@?0A@EA@_Iostream_error_category@std@@8 ; std::_Iostream_error_category::`RTTI Base Class Array'
	DD	FLAT:??_R1A@?0A@EA@_Generic_error_category@std@@8
	DD	FLAT:??_R1A@?0A@EA@error_category@std@@8
rdata$r	ENDS
;	COMDAT ??_R3_Iostream_error_category@std@@8
rdata$r	SEGMENT
??_R3_Iostream_error_category@std@@8 DD 00H		; std::_Iostream_error_category::`RTTI Class Hierarchy Descriptor'
	DD	00H
	DD	03H
	DD	FLAT:??_R2_Iostream_error_category@std@@8
rdata$r	ENDS
;	COMDAT ??_R0?AV_Iostream_error_category@std@@@8
_DATA	SEGMENT
??_R0?AV_Iostream_error_category@std@@@8 DD FLAT:??_7type_info@@6B@ ; std::_Iostream_error_category `RTTI Type Descriptor'
	DD	00H
	DB	'.?AV_Iostream_error_category@std@@', 00H
_DATA	ENDS
;	COMDAT ??_R4_Iostream_error_category@std@@6B@
rdata$r	SEGMENT
??_R4_Iostream_error_category@std@@6B@ DD 00H		; std::_Iostream_error_category::`RTTI Complete Object Locator'
	DD	00H
	DD	00H
	DD	FLAT:??_R0?AV_Iostream_error_category@std@@@8
	DD	FLAT:??_R3_Iostream_error_category@std@@8
rdata$r	ENDS
;	COMDAT ??_R1A@?0A@EA@_Generic_error_category@std@@8
rdata$r	SEGMENT
??_R1A@?0A@EA@_Generic_error_category@std@@8 DD FLAT:??_R0?AV_Generic_error_category@std@@@8 ; std::_Generic_error_category::`RTTI Base Class Descriptor at (0,-1,0,64)'
	DD	01H
	DD	00H
	DD	0ffffffffH
	DD	00H
	DD	040H
	DD	FLAT:??_R3_Generic_error_category@std@@8
rdata$r	ENDS
;	COMDAT ??_R2_Generic_error_category@std@@8
rdata$r	SEGMENT
??_R2_Generic_error_category@std@@8 DD FLAT:??_R1A@?0A@EA@_Generic_error_category@std@@8 ; std::_Generic_error_category::`RTTI Base Class Array'
	DD	FLAT:??_R1A@?0A@EA@error_category@std@@8
rdata$r	ENDS
;	COMDAT ??_R3_Generic_error_category@std@@8
rdata$r	SEGMENT
??_R3_Generic_error_category@std@@8 DD 00H		; std::_Generic_error_category::`RTTI Class Hierarchy Descriptor'
	DD	00H
	DD	02H
	DD	FLAT:??_R2_Generic_error_category@std@@8
rdata$r	ENDS
;	COMDAT ??_R0?AV_Generic_error_category@std@@@8
_DATA	SEGMENT
??_R0?AV_Generic_error_category@std@@@8 DD FLAT:??_7type_info@@6B@ ; std::_Generic_error_category `RTTI Type Descriptor'
	DD	00H
	DB	'.?AV_Generic_error_category@std@@', 00H
_DATA	ENDS
;	COMDAT ??_R4_Generic_error_category@std@@6B@
rdata$r	SEGMENT
??_R4_Generic_error_category@std@@6B@ DD 00H		; std::_Generic_error_category::`RTTI Complete Object Locator'
	DD	00H
	DD	00H
	DD	FLAT:??_R0?AV_Generic_error_category@std@@@8
	DD	FLAT:??_R3_Generic_error_category@std@@8
rdata$r	ENDS
;	COMDAT ??_R1A@?0A@EA@error_category@std@@8
rdata$r	SEGMENT
??_R1A@?0A@EA@error_category@std@@8 DD FLAT:??_R0?AVerror_category@std@@@8 ; std::error_category::`RTTI Base Class Descriptor at (0,-1,0,64)'
	DD	00H
	DD	00H
	DD	0ffffffffH
	DD	00H
	DD	040H
	DD	FLAT:??_R3error_category@std@@8
rdata$r	ENDS
;	COMDAT ??_R2error_category@std@@8
rdata$r	SEGMENT
??_R2error_category@std@@8 DD FLAT:??_R1A@?0A@EA@error_category@std@@8 ; std::error_category::`RTTI Base Class Array'
rdata$r	ENDS
;	COMDAT ??_R3error_category@std@@8
rdata$r	SEGMENT
??_R3error_category@std@@8 DD 00H			; std::error_category::`RTTI Class Hierarchy Descriptor'
	DD	00H
	DD	01H
	DD	FLAT:??_R2error_category@std@@8
rdata$r	ENDS
;	COMDAT ??_R0?AVerror_category@std@@@8
_DATA	SEGMENT
??_R0?AVerror_category@std@@@8 DD FLAT:??_7type_info@@6B@ ; std::error_category `RTTI Type Descriptor'
	DD	00H
	DB	'.?AVerror_category@std@@', 00H
_DATA	ENDS
;	COMDAT ??_R4error_category@std@@6B@
rdata$r	SEGMENT
??_R4error_category@std@@6B@ DD 00H			; std::error_category::`RTTI Complete Object Locator'
	DD	00H
	DD	00H
	DD	FLAT:??_R0?AVerror_category@std@@@8
	DD	FLAT:??_R3error_category@std@@8
rdata$r	ENDS
;	COMDAT ??_C@_0BA@JFNIOLAK@string?5too?5long?$AA@
CONST	SEGMENT
??_C@_0BA@JFNIOLAK@string?5too?5long?$AA@ DB 'string too long', 00H ; `string'
CONST	ENDS
;	COMDAT ??_C@_0BI@CFPLBAOH@invalid?5string?5position?$AA@
CONST	SEGMENT
??_C@_0BI@CFPLBAOH@invalid?5string?5position?$AA@ DB 'invalid string posi'
	DB	'tion', 00H					; `string'
CONST	ENDS
;	COMDAT ?MISSILE_TEORY_SPEED@?NG@??AirAirMode@FireControlComputer@@AAEXXZ@4MB
CONST	SEGMENT
?MISSILE_TEORY_SPEED@?NG@??AirAirMode@FireControlComputer@@AAEXXZ@4MB DD 045354000r ; 2900 ; `FireControlComputer::AirAirMode'::`214'::MISSILE_TEORY_SPEED
CONST	ENDS
;	COMDAT ?MISSILE_SPEED@?NG@??AirAirMode@FireControlComputer@@AAEXXZ@4MB
CONST	SEGMENT
?MISSILE_SPEED@?NG@??AirAirMode@FireControlComputer@@AAEXXZ@4MB DD 044bb8000r ; 1500 ; `FireControlComputer::AirAirMode'::`214'::MISSILE_SPEED
CONST	ENDS
;	COMDAT ?MISSILE_ALTITUDE_BONUS@?NG@??AirAirMode@FireControlComputer@@AAEXXZ@4MB
CONST	SEGMENT
?MISSILE_ALTITUDE_BONUS@?NG@??AirAirMode@FireControlComputer@@AAEXXZ@4MB DD 041b80000r ; 23 ; `FireControlComputer::AirAirMode'::`214'::MISSILE_ALTITUDE_BONUS
CONST	ENDS
;	COMDAT ?TC@?MA@??AirAirMode@FireControlComputer@@AAEXXZ@4MB
CONST	SEGMENT
?TC@?MA@??AirAirMode@FireControlComputer@@AAEXXZ@4MB DD 03f800000r ; 1 ; `FireControlComputer::AirAirMode'::`192'::TC
CONST	ENDS
;	COMDAT ?TC@?LI@??AirAirMode@FireControlComputer@@AAEXXZ@4MB
CONST	SEGMENT
?TC@?LI@??AirAirMode@FireControlComputer@@AAEXXZ@4MB DD 03f800000r ; 1 ; `FireControlComputer::AirAirMode'::`184'::TC
CONST	ENDS
;	COMDAT ?TC@?KO@??AirAirMode@FireControlComputer@@AAEXXZ@4MB
CONST	SEGMENT
?TC@?KO@??AirAirMode@FireControlComputer@@AAEXXZ@4MB DD 03f800000r ; 1 ; `FireControlComputer::AirAirMode'::`174'::TC
CONST	ENDS
;	COMDAT ??_C@_06FHFOAHML@system?$AA@
CONST	SEGMENT
??_C@_06FHFOAHML@system?$AA@ DB 'system', 00H		; `string'
CONST	ENDS
;	COMDAT ??_7_System_error_category@std@@6B@
CONST	SEGMENT
??_7_System_error_category@std@@6B@ DD FLAT:??_R4_System_error_category@std@@6B@ ; std::_System_error_category::`vftable'
	DD	FLAT:??_E_System_error_category@std@@UAEPAXI@Z
	DD	FLAT:?name@_System_error_category@std@@UBEPBDXZ
	DD	FLAT:?message@_System_error_category@std@@UBE?AV?$basic_string@DU?$char_traits@D@std@@V?$allocator@D@2@@2@H@Z
	DD	FLAT:?default_error_condition@_System_error_category@std@@UBE?AVerror_condition@2@H@Z
	DD	FLAT:?equivalent@error_category@std@@UBE_NABVerror_code@2@H@Z
	DD	FLAT:?equivalent@error_category@std@@UBE_NHABVerror_condition@2@@Z
CONST	ENDS
;	COMDAT ??_C@_0BG@PADBLCHM@iostream?5stream?5error?$AA@
CONST	SEGMENT
??_C@_0BG@PADBLCHM@iostream?5stream?5error?$AA@ DB 'iostream stream error'
	DB	00H						; `string'
CONST	ENDS
;	COMDAT ??_C@_08LLGCOLLL@iostream?$AA@
CONST	SEGMENT
??_C@_08LLGCOLLL@iostream?$AA@ DB 'iostream', 00H	; `string'
CONST	ENDS
;	COMDAT ??_7_Iostream_error_category@std@@6B@
CONST	SEGMENT
??_7_Iostream_error_category@std@@6B@ DD FLAT:??_R4_Iostream_error_category@std@@6B@ ; std::_Iostream_error_category::`vftable'
	DD	FLAT:??_E_Iostream_error_category@std@@UAEPAXI@Z
	DD	FLAT:?name@_Iostream_error_category@std@@UBEPBDXZ
	DD	FLAT:?message@_Iostream_error_category@std@@UBE?AV?$basic_string@DU?$char_traits@D@std@@V?$allocator@D@2@@2@H@Z
	DD	FLAT:?default_error_condition@error_category@std@@UBE?AVerror_condition@2@H@Z
	DD	FLAT:?equivalent@error_category@std@@UBE_NABVerror_code@2@H@Z
	DD	FLAT:?equivalent@error_category@std@@UBE_NHABVerror_condition@2@@Z
CONST	ENDS
;	COMDAT ??_C@_0O@BFJCFAAK@unknown?5error?$AA@
CONST	SEGMENT
??_C@_0O@BFJCFAAK@unknown?5error?$AA@ DB 'unknown error', 00H ; `string'
CONST	ENDS
;	COMDAT ??_C@_07DCLBNMLN@generic?$AA@
CONST	SEGMENT
??_C@_07DCLBNMLN@generic?$AA@ DB 'generic', 00H		; `string'
CONST	ENDS
;	COMDAT ??_7_Generic_error_category@std@@6B@
CONST	SEGMENT
??_7_Generic_error_category@std@@6B@ DD FLAT:??_R4_Generic_error_category@std@@6B@ ; std::_Generic_error_category::`vftable'
	DD	FLAT:??_E_Generic_error_category@std@@UAEPAXI@Z
	DD	FLAT:?name@_Generic_error_category@std@@UBEPBDXZ
	DD	FLAT:?message@_Generic_error_category@std@@UBE?AV?$basic_string@DU?$char_traits@D@std@@V?$allocator@D@2@@2@H@Z
	DD	FLAT:?default_error_condition@error_category@std@@UBE?AVerror_condition@2@H@Z
	DD	FLAT:?equivalent@error_category@std@@UBE_NABVerror_code@2@H@Z
	DD	FLAT:?equivalent@error_category@std@@UBE_NHABVerror_condition@2@@Z
CONST	ENDS
;	COMDAT ??_7error_category@std@@6B@
CONST	SEGMENT
??_7error_category@std@@6B@ DD FLAT:??_R4error_category@std@@6B@ ; std::error_category::`vftable'
	DD	FLAT:??_Eerror_category@std@@UAEPAXI@Z
	DD	FLAT:__purecall
	DD	FLAT:__purecall
	DD	FLAT:?default_error_condition@error_category@std@@UBE?AVerror_condition@2@H@Z
	DD	FLAT:?equivalent@error_category@std@@UBE_NABVerror_code@2@H@Z
	DD	FLAT:?equivalent@error_category@std@@UBE_NHABVerror_condition@2@@Z
CONST	ENDS
;	COMDAT xdata$x
xdata$x	SEGMENT
__unwindtable$??$construct@PADAAPAD@?$allocator@D@std@@QAEXPAPADAAPAD@Z DD 0ffffffffH
	DD	FLAT:__unwindfunclet$??$construct@PADAAPAD@?$allocator@D@std@@QAEXPAPADAAPAD@Z$0
__ehfuncinfo$??$construct@PADAAPAD@?$allocator@D@std@@QAEXPAPADAAPAD@Z DD 019930522H
	DD	01H
	DD	FLAT:__unwindtable$??$construct@PADAAPAD@?$allocator@D@std@@QAEXPAPADAAPAD@Z
	DD	2 DUP(00H)
	DD	2 DUP(00H)
	DD	00H
	DD	01H
xdata$x	ENDS
;	COMDAT xdata$x
xdata$x	SEGMENT
__catchsym$?_Copy@?$basic_string@DU?$char_traits@D@std@@V?$allocator@D@2@@std@@QAEXII@Z$5 DD 040H
	DD	00H
	DD	00H
	DD	FLAT:__catch$?_Copy@?$basic_string@DU?$char_traits@D@std@@V?$allocator@D@2@@std@@QAEXII@Z$0
__catchsym$?_Copy@?$basic_string@DU?$char_traits@D@std@@V?$allocator@D@2@@std@@QAEXII@Z$4 DD 040H
	DD	00H
	DD	00H
	DD	FLAT:__catch$?_Copy@?$basic_string@DU?$char_traits@D@std@@V?$allocator@D@2@@std@@QAEXII@Z$1
__unwindtable$?_Copy@?$basic_string@DU?$char_traits@D@std@@V?$allocator@D@2@@std@@QAEXII@Z DD 0ffffffffH
	DD	00H
	DD	0ffffffffH
	DD	00H
	DD	01H
	DD	00H
	DD	01H
	DD	00H
__ehfuncinfo$?_Copy@?$basic_string@DU?$char_traits@D@std@@V?$allocator@D@2@@std@@QAEXII@Z DD 019930522H
	DD	04H
	DD	FLAT:__unwindtable$?_Copy@?$basic_string@DU?$char_traits@D@std@@V?$allocator@D@2@@std@@QAEXII@Z
	DD	02H
	DD	FLAT:__tryblocktable$?_Copy@?$basic_string@DU?$char_traits@D@std@@V?$allocator@D@2@@std@@QAEXII@Z
	DD	2 DUP(00H)
	DD	00H
	DD	01H
__tryblocktable$?_Copy@?$basic_string@DU?$char_traits@D@std@@V?$allocator@D@2@@std@@QAEXII@Z DD 02H
	DD	02H
	DD	03H
	DD	01H
	DD	FLAT:__catchsym$?_Copy@?$basic_string@DU?$char_traits@D@std@@V?$allocator@D@2@@std@@QAEXII@Z$4
	DD	00H
	DD	00H
	DD	03H
	DD	01H
	DD	FLAT:__catchsym$?_Copy@?$basic_string@DU?$char_traits@D@std@@V?$allocator@D@2@@std@@QAEXII@Z$5
xdata$x	ENDS
CRT$XCU	SEGMENT
_allocator_arg$initializer$ DD FLAT:??__Eallocator_arg@std@@YAXXZ
CRT$XCU	ENDS
CRT$XCU	SEGMENT
_COS_SUN_EFFECT_HALF_ANGLE$initializer$ DD FLAT:??__ECOS_SUN_EFFECT_HALF_ANGLE@@YAXXZ
CRT$XCU	ENDS
;	COMDAT CRT$XCU
CRT$XCU	SEGMENT
?_Generic_object$initializer$@?$_Error_objects@H@std@@2P6AXXZA DD FLAT:??__E?_Generic_object@?$_Error_objects@H@std@@2V_Generic_error_category@2@A@@YAXXZ ; std::_Error_objects<int>::_Generic_object$initializer$
CRT$XCU	ENDS
;	COMDAT CRT$XCU
CRT$XCU	SEGMENT
?_Iostream_object$initializer$@?$_Error_objects@H@std@@2P6AXXZA DD FLAT:??__E?_Iostream_object@?$_Error_objects@H@std@@2V_Iostream_error_category@2@A@@YAXXZ ; std::_Error_objects<int>::_Iostream_object$initializer$
CRT$XCU	ENDS
;	COMDAT CRT$XCU
CRT$XCU	SEGMENT
?_System_object$initializer$@?$_Error_objects@H@std@@2P6AXXZA DD FLAT:??__E?_System_object@?$_Error_objects@H@std@@2V_System_error_category@2@A@@YAXXZ ; std::_Error_objects<int>::_System_object$initializer$
CRT$XCU	ENDS
;	COMDAT CRT$XCU
CRT$XCU	SEGMENT
?id$initializer$@?$num_put@DV?$back_insert_iterator@V?$basic_string@DU?$char_traits@D@std@@V?$allocator@D@2@@std@@@std@@@std@@2P6AXXZA DD FLAT:??__E?id@?$num_put@DV?$back_insert_iterator@V?$basic_string@DU?$char_traits@D@std@@V?$allocator@D@2@@std@@@std@@@std@@2V0locale@2@A@@YAXXZ ; std::num_put<char,std::back_insert_iterator<std::basic_string<char,std::char_traits<char>,std::allocator<char> > > >::id$initializer$
CRT$XCU	ENDS
;	COMDAT CRT$XCU
CRT$XCU	SEGMENT
?id$initializer$@?$num_put@_WV?$back_insert_iterator@V?$basic_string@_WU?$char_traits@_W@std@@V?$allocator@_W@2@@std@@@std@@@std@@2P6AXXZA DD FLAT:??__E?id@?$num_put@_WV?$back_insert_iterator@V?$basic_string@_WU?$char_traits@_W@std@@V?$allocator@_W@2@@std@@@std@@@std@@2V0locale@2@A@@YAXXZ ; std::num_put<wchar_t,std::back_insert_iterator<std::basic_string<wchar_t,std::char_traits<wchar_t>,std::allocator<wchar_t> > > >::id$initializer$
CRT$XCU	ENDS
;	COMDAT CRT$XCU
CRT$XCU	SEGMENT
?id$initializer$@?$numpunct@D@std@@2P6AXXZA DD FLAT:??__E?id@?$numpunct@D@std@@2V0locale@2@A@@YAXXZ ; std::numpunct<char>::id$initializer$
CRT$XCU	ENDS
;	COMDAT CRT$XCU
CRT$XCU	SEGMENT
?id$initializer$@?$numpunct@_W@std@@2P6AXXZA DD FLAT:??__E?id@?$numpunct@_W@std@@2V0locale@2@A@@YAXXZ ; std::numpunct<wchar_t>::id$initializer$
CRT$XCU	ENDS
; Function compile flags: /Odtp
; File c:\program files (x86)\microsoft visual studio 11.0\vc\include\xmemory0
;	COMDAT ??$destroy@PAD@?$allocator@D@std@@QAEXPAPAD@Z
_TEXT	SEGMENT
_this$ = -4						; size = 4
__Ptr$ = 8						; size = 4
??$destroy@PAD@?$allocator@D@std@@QAEXPAPAD@Z PROC	; std::allocator<char>::destroy<char *>, COMDAT
; _this$ = ecx

; 621  : 		void destroy(_Uty *_Ptr)

	push	ebp
	mov	ebp, esp
	push	ecx
	mov	DWORD PTR _this$[ebp], ecx

; 622  : 		{	// destroy object at _Ptr
; 623  : 		_Ptr->~_Uty();
; 624  : 		}

	mov	esp, ebp
	pop	ebp
	ret	4
??$destroy@PAD@?$allocator@D@std@@QAEXPAPAD@Z ENDP	; std::allocator<char>::destroy<char *>
_TEXT	ENDS
; Function compile flags: /Odtp
; File c:\program files (x86)\microsoft visual studio 11.0\vc\include\xmemory0
;	COMDAT ??$construct@PADAAPAD@?$allocator@D@std@@QAEXPAPADAAPAD@Z
_TEXT	SEGMENT
$T2 = -28						; size = 4
_this$ = -24						; size = 4
tv73 = -20						; size = 4
$T3 = -16						; size = 4
__$EHRec$ = -12						; size = 12
__Ptr$ = 8						; size = 4
__V0$ = 12						; size = 4
??$construct@PADAAPAD@?$allocator@D@std@@QAEXPAPADAAPAD@Z PROC ; std::allocator<char>::construct<char *,char * &>, COMDAT
; _this$ = ecx

; 617  : _VARIADIC_EXPAND_0X(_ALLOC_MEMBER_CONSTRUCT, , , , )

	push	ebp
	mov	ebp, esp
	push	-1
	push	__ehhandler$??$construct@PADAAPAD@?$allocator@D@std@@QAEXPAPADAAPAD@Z
	mov	eax, DWORD PTR fs:0
	push	eax
	sub	esp, 16					; 00000010H
	mov	eax, DWORD PTR ___security_cookie
	xor	eax, ebp
	push	eax
	lea	eax, DWORD PTR __$EHRec$[ebp]
	mov	DWORD PTR fs:0, eax
	mov	DWORD PTR _this$[ebp], ecx
	mov	eax, DWORD PTR __Ptr$[ebp]
	push	eax
	push	4
	call	??2@YAPAXIPAX@Z				; operator new
	add	esp, 8
	mov	DWORD PTR $T3[ebp], eax
	mov	DWORD PTR __$EHRec$[ebp+8], 0
	cmp	DWORD PTR $T3[ebp], 0
	je	SHORT $LN3@construct
	mov	ecx, DWORD PTR __V0$[ebp]
	push	ecx
	call	??$forward@AAPAD@std@@YAAAPADAAPAD@Z	; std::forward<char * &>
	add	esp, 4
	mov	edx, DWORD PTR $T3[ebp]
	mov	eax, DWORD PTR [eax]
	mov	DWORD PTR [edx], eax
	mov	ecx, DWORD PTR $T3[ebp]
	mov	DWORD PTR tv73[ebp], ecx
	jmp	SHORT $LN4@construct
$LN3@construct:
	mov	DWORD PTR tv73[ebp], 0
$LN4@construct:
	mov	edx, DWORD PTR tv73[ebp]
	mov	DWORD PTR $T2[ebp], edx
	mov	DWORD PTR __$EHRec$[ebp+8], -1
	mov	ecx, DWORD PTR __$EHRec$[ebp]
	mov	DWORD PTR fs:0, ecx
	pop	ecx
	mov	esp, ebp
	pop	ebp
	ret	8
_TEXT	ENDS
;	COMDAT text$x
text$x	SEGMENT
__unwindfunclet$??$construct@PADAAPAD@?$allocator@D@std@@QAEXPAPADAAPAD@Z$0:
	mov	eax, DWORD PTR __Ptr$[ebp]
	push	eax
	mov	eax, DWORD PTR $T3[ebp]
	push	eax
	call	??3@YAXPAX0@Z				; operator delete
	add	esp, 8
	ret	0
__ehhandler$??$construct@PADAAPAD@?$allocator@D@std@@QAEXPAPADAAPAD@Z:
	mov	edx, DWORD PTR [esp+8]
	lea	eax, DWORD PTR [edx+12]
	mov	ecx, DWORD PTR [edx-20]
	xor	ecx, eax
	call	@__security_check_cookie@4
	mov	eax, OFFSET __ehfuncinfo$??$construct@PADAAPAD@?$allocator@D@std@@QAEXPAPADAAPAD@Z
	jmp	___CxxFrameHandler3
text$x	ENDS
??$construct@PADAAPAD@?$allocator@D@std@@QAEXPAPADAAPAD@Z ENDP ; std::allocator<char>::construct<char *,char * &>
; Function compile flags: /Odtp
; File c:\program files (x86)\microsoft visual studio 11.0\vc\include\xlocnum
;	COMDAT ??__E?id@?$numpunct@_W@std@@2V0locale@2@A@@YAXXZ
text$yc	SEGMENT
??__E?id@?$numpunct@_W@std@@2V0locale@2@A@@YAXXZ PROC	; `dynamic initializer for 'std::numpunct<wchar_t>::id'', COMDAT

; 155  : 		void _Getvals(wchar_t, const lconv *_Ptr, _Locinfo::_Cvtvec)

	push	ebp
	mov	ebp, esp
	push	0
	mov	ecx, OFFSET ?id@?$numpunct@_W@std@@2V0locale@2@A ; std::numpunct<wchar_t>::id
	call	??0id@locale@std@@QAE@I@Z		; std::locale::id::id
	pop	ebp
	ret	0
??__E?id@?$numpunct@_W@std@@2V0locale@2@A@@YAXXZ ENDP	; `dynamic initializer for 'std::numpunct<wchar_t>::id''
text$yc	ENDS
; Function compile flags: /Odtp
; File c:\program files (x86)\microsoft visual studio 11.0\vc\include\xlocnum
;	COMDAT ??__E?id@?$numpunct@D@std@@2V0locale@2@A@@YAXXZ
text$yc	SEGMENT
??__E?id@?$numpunct@D@std@@2V0locale@2@A@@YAXXZ PROC	; `dynamic initializer for 'std::numpunct<char>::id'', COMDAT

; 155  : 		void _Getvals(wchar_t, const lconv *_Ptr, _Locinfo::_Cvtvec)

	push	ebp
	mov	ebp, esp
	push	0
	mov	ecx, OFFSET ?id@?$numpunct@D@std@@2V0locale@2@A ; std::numpunct<char>::id
	call	??0id@locale@std@@QAE@I@Z		; std::locale::id::id
	pop	ebp
	ret	0
??__E?id@?$numpunct@D@std@@2V0locale@2@A@@YAXXZ ENDP	; `dynamic initializer for 'std::numpunct<char>::id''
text$yc	ENDS
; Function compile flags: /Odtp
; File c:\program files (x86)\microsoft visual studio 11.0\vc\include\xlocnum
;	COMDAT ??__E?id@?$num_put@_WV?$back_insert_iterator@V?$basic_string@_WU?$char_traits@_W@std@@V?$allocator@_W@2@@std@@@std@@@std@@2V0locale@2@A@@YAXXZ
text$yc	SEGMENT
??__E?id@?$num_put@_WV?$back_insert_iterator@V?$basic_string@_WU?$char_traits@_W@std@@V?$allocator@_W@2@@std@@@std@@@std@@2V0locale@2@A@@YAXXZ PROC ; `dynamic initializer for 'std::num_put<wchar_t,std::back_insert_iterator<std::basic_string<wchar_t,std::char_traits<wchar_t>,std::allocator<wchar_t> > > >::id'', COMDAT

; 155  : 		void _Getvals(wchar_t, const lconv *_Ptr, _Locinfo::_Cvtvec)

	push	ebp
	mov	ebp, esp
	push	0
	mov	ecx, OFFSET ?id@?$num_put@_WV?$back_insert_iterator@V?$basic_string@_WU?$char_traits@_W@std@@V?$allocator@_W@2@@std@@@std@@@std@@2V0locale@2@A ; std::num_put<wchar_t,std::back_insert_iterator<std::basic_string<wchar_t,std::char_traits<wchar_t>,std::allocator<wchar_t> > > >::id
	call	??0id@locale@std@@QAE@I@Z		; std::locale::id::id
	pop	ebp
	ret	0
??__E?id@?$num_put@_WV?$back_insert_iterator@V?$basic_string@_WU?$char_traits@_W@std@@V?$allocator@_W@2@@std@@@std@@@std@@2V0locale@2@A@@YAXXZ ENDP ; `dynamic initializer for 'std::num_put<wchar_t,std::back_insert_iterator<std::basic_string<wchar_t,std::char_traits<wchar_t>,std::allocator<wchar_t> > > >::id''
text$yc	ENDS
; Function compile flags: /Odtp
; File c:\program files (x86)\microsoft visual studio 11.0\vc\include\xlocnum
;	COMDAT ??__E?id@?$num_put@DV?$back_insert_iterator@V?$basic_string@DU?$char_traits@D@std@@V?$allocator@D@2@@std@@@std@@@std@@2V0locale@2@A@@YAXXZ
text$yc	SEGMENT
??__E?id@?$num_put@DV?$back_insert_iterator@V?$basic_string@DU?$char_traits@D@std@@V?$allocator@D@2@@std@@@std@@@std@@2V0locale@2@A@@YAXXZ PROC ; `dynamic initializer for 'std::num_put<char,std::back_insert_iterator<std::basic_string<char,std::char_traits<char>,std::allocator<char> > > >::id'', COMDAT

; 155  : 		void _Getvals(wchar_t, const lconv *_Ptr, _Locinfo::_Cvtvec)

	push	ebp
	mov	ebp, esp
	push	0
	mov	ecx, OFFSET ?id@?$num_put@DV?$back_insert_iterator@V?$basic_string@DU?$char_traits@D@std@@V?$allocator@D@2@@std@@@std@@@std@@2V0locale@2@A ; std::num_put<char,std::back_insert_iterator<std::basic_string<char,std::char_traits<char>,std::allocator<char> > > >::id
	call	??0id@locale@std@@QAE@I@Z		; std::locale::id::id
	pop	ebp
	ret	0
??__E?id@?$num_put@DV?$back_insert_iterator@V?$basic_string@DU?$char_traits@D@std@@V?$allocator@D@2@@std@@@std@@@std@@2V0locale@2@A@@YAXXZ ENDP ; `dynamic initializer for 'std::num_put<char,std::back_insert_iterator<std::basic_string<char,std::char_traits<char>,std::allocator<char> > > >::id''
text$yc	ENDS
; Function compile flags: /Odtp
; File c:\program files (x86)\microsoft visual studio 11.0\vc\include\xmemory0
;	COMDAT ??$destroy@PAD@?$allocator_traits@V?$allocator@D@std@@@std@@SAXAAV?$allocator@D@1@PAPAD@Z
_TEXT	SEGMENT
__Al$ = 8						; size = 4
__Ptr$ = 12						; size = 4
??$destroy@PAD@?$allocator_traits@V?$allocator@D@std@@@std@@SAXAAV?$allocator@D@1@PAPAD@Z PROC ; std::allocator_traits<std::allocator<char> >::destroy<char *>, COMDAT

; 755  : 		static void destroy(_Alloc& _Al, _Uty *_Ptr)

	push	ebp
	mov	ebp, esp

; 756  : 		{	// destroy object at _Ptr
; 757  : 		_Al.destroy(_Ptr);

	mov	eax, DWORD PTR __Ptr$[ebp]
	push	eax
	mov	ecx, DWORD PTR __Al$[ebp]
	call	??$destroy@PAD@?$allocator@D@std@@QAEXPAPAD@Z ; std::allocator<char>::destroy<char *>

; 758  : 		}

	pop	ebp
	ret	0
??$destroy@PAD@?$allocator_traits@V?$allocator@D@std@@@std@@SAXAAV?$allocator@D@1@PAPAD@Z ENDP ; std::allocator_traits<std::allocator<char> >::destroy<char *>
_TEXT	ENDS
; Function compile flags: /Odtp
; File c:\program files (x86)\microsoft visual studio 11.0\vc\include\xmemory0
;	COMDAT ??$construct@PADAAPAD@?$allocator_traits@V?$allocator@D@std@@@std@@SAXAAV?$allocator@D@1@PAPADAAPAD@Z
_TEXT	SEGMENT
__Al$ = 8						; size = 4
__Ptr$ = 12						; size = 4
__V0$ = 16						; size = 4
??$construct@PADAAPAD@?$allocator_traits@V?$allocator@D@std@@@std@@SAXAAV?$allocator@D@1@PAPADAAPAD@Z PROC ; std::allocator_traits<std::allocator<char> >::construct<char *,char * &>, COMDAT

; 751  : _VARIADIC_EXPAND_0X(_ALLOC_TRAITS_SPECIAL_CONSTRUCT, , , , )

	push	ebp
	mov	ebp, esp
	mov	eax, DWORD PTR __V0$[ebp]
	push	eax
	call	??$forward@AAPAD@std@@YAAAPADAAPAD@Z	; std::forward<char * &>
	add	esp, 4
	push	eax
	mov	ecx, DWORD PTR __Ptr$[ebp]
	push	ecx
	mov	ecx, DWORD PTR __Al$[ebp]
	call	??$construct@PADAAPAD@?$allocator@D@std@@QAEXPAPADAAPAD@Z ; std::allocator<char>::construct<char *,char * &>
	pop	ebp
	ret	0
??$construct@PADAAPAD@?$allocator_traits@V?$allocator@D@std@@@std@@SAXAAV?$allocator@D@1@PAPADAAPAD@Z ENDP ; std::allocator_traits<std::allocator<char> >::construct<char *,char * &>
_TEXT	ENDS
; Function compile flags: /Odtp
; File c:\program files (x86)\microsoft visual studio 11.0\vc\include\type_traits
;	COMDAT ??$forward@AAPAD@std@@YAAAPADAAPAD@Z
_TEXT	SEGMENT
__Arg$ = 8						; size = 4
??$forward@AAPAD@std@@YAAAPADAAPAD@Z PROC		; std::forward<char * &>, COMDAT

; 1775 : 	{	// forward an lvalue

	push	ebp
	mov	ebp, esp

; 1776 : 	return (static_cast<_Ty&&>(_Arg));

	mov	eax, DWORD PTR __Arg$[ebp]

; 1777 : 	}

	pop	ebp
	ret	0
??$forward@AAPAD@std@@YAAAPADAAPAD@Z ENDP		; std::forward<char * &>
_TEXT	ENDS
; Function compile flags: /Odtp
;	COMDAT ??__F?_System_object@?$_Error_objects@H@std@@2V_System_error_category@2@A@@YAXXZ
text$yd	SEGMENT
??__F?_System_object@?$_Error_objects@H@std@@2V_System_error_category@2@A@@YAXXZ PROC ; `dynamic atexit destructor for 'std::_Error_objects<int>::_System_object'', COMDAT
	push	ebp
	mov	ebp, esp
	mov	ecx, OFFSET ?_System_object@?$_Error_objects@H@std@@2V_System_error_category@2@A ; std::_Error_objects<int>::_System_object
	call	??1_System_error_category@std@@UAE@XZ
	pop	ebp
	ret	0
??__F?_System_object@?$_Error_objects@H@std@@2V_System_error_category@2@A@@YAXXZ ENDP ; `dynamic atexit destructor for 'std::_Error_objects<int>::_System_object''
text$yd	ENDS
; Function compile flags: /Odtp
; File c:\program files (x86)\microsoft visual studio 11.0\vc\include\xmemory0
;	COMDAT ??__E?_System_object@?$_Error_objects@H@std@@2V_System_error_category@2@A@@YAXXZ
text$yc	SEGMENT
??__E?_System_object@?$_Error_objects@H@std@@2V_System_error_category@2@A@@YAXXZ PROC ; `dynamic initializer for 'std::_Error_objects<int>::_System_object'', COMDAT

; 627  : 		{	// estimate maximum array size

	push	ebp
	mov	ebp, esp
	mov	ecx, OFFSET ?_System_object@?$_Error_objects@H@std@@2V_System_error_category@2@A ; std::_Error_objects<int>::_System_object
	call	??0_System_error_category@std@@QAE@XZ	; std::_System_error_category::_System_error_category
	push	OFFSET ??__F?_System_object@?$_Error_objects@H@std@@2V_System_error_category@2@A@@YAXXZ ; `dynamic atexit destructor for 'std::_Error_objects<int>::_System_object''
	call	_atexit
	add	esp, 4
	pop	ebp
	ret	0
??__E?_System_object@?$_Error_objects@H@std@@2V_System_error_category@2@A@@YAXXZ ENDP ; `dynamic initializer for 'std::_Error_objects<int>::_System_object''
text$yc	ENDS
; Function compile flags: /Odtp
;	COMDAT ??__F?_Iostream_object@?$_Error_objects@H@std@@2V_Iostream_error_category@2@A@@YAXXZ
text$yd	SEGMENT
??__F?_Iostream_object@?$_Error_objects@H@std@@2V_Iostream_error_category@2@A@@YAXXZ PROC ; `dynamic atexit destructor for 'std::_Error_objects<int>::_Iostream_object'', COMDAT
	push	ebp
	mov	ebp, esp
	mov	ecx, OFFSET ?_Iostream_object@?$_Error_objects@H@std@@2V_Iostream_error_category@2@A ; std::_Error_objects<int>::_Iostream_object
	call	??1_Iostream_error_category@std@@UAE@XZ
	pop	ebp
	ret	0
??__F?_Iostream_object@?$_Error_objects@H@std@@2V_Iostream_error_category@2@A@@YAXXZ ENDP ; `dynamic atexit destructor for 'std::_Error_objects<int>::_Iostream_object''
text$yd	ENDS
; Function compile flags: /Odtp
; File c:\program files (x86)\microsoft visual studio 11.0\vc\include\xmemory0
;	COMDAT ??__E?_Iostream_object@?$_Error_objects@H@std@@2V_Iostream_error_category@2@A@@YAXXZ
text$yc	SEGMENT
??__E?_Iostream_object@?$_Error_objects@H@std@@2V_Iostream_error_category@2@A@@YAXXZ PROC ; `dynamic initializer for 'std::_Error_objects<int>::_Iostream_object'', COMDAT

; 627  : 		{	// estimate maximum array size

	push	ebp
	mov	ebp, esp
	mov	ecx, OFFSET ?_Iostream_object@?$_Error_objects@H@std@@2V_Iostream_error_category@2@A ; std::_Error_objects<int>::_Iostream_object
	call	??0_Iostream_error_category@std@@QAE@XZ	; std::_Iostream_error_category::_Iostream_error_category
	push	OFFSET ??__F?_Iostream_object@?$_Error_objects@H@std@@2V_Iostream_error_category@2@A@@YAXXZ ; `dynamic atexit destructor for 'std::_Error_objects<int>::_Iostream_object''
	call	_atexit
	add	esp, 4
	pop	ebp
	ret	0
??__E?_Iostream_object@?$_Error_objects@H@std@@2V_Iostream_error_category@2@A@@YAXXZ ENDP ; `dynamic initializer for 'std::_Error_objects<int>::_Iostream_object''
text$yc	ENDS
; Function compile flags: /Odtp
;	COMDAT ??__F?_Generic_object@?$_Error_objects@H@std@@2V_Generic_error_category@2@A@@YAXXZ
text$yd	SEGMENT
??__F?_Generic_object@?$_Error_objects@H@std@@2V_Generic_error_category@2@A@@YAXXZ PROC ; `dynamic atexit destructor for 'std::_Error_objects<int>::_Generic_object'', COMDAT
	push	ebp
	mov	ebp, esp
	mov	ecx, OFFSET ?_Generic_object@?$_Error_objects@H@std@@2V_Generic_error_category@2@A ; std::_Error_objects<int>::_Generic_object
	call	??1_Generic_error_category@std@@UAE@XZ
	pop	ebp
	ret	0
??__F?_Generic_object@?$_Error_objects@H@std@@2V_Generic_error_category@2@A@@YAXXZ ENDP ; `dynamic atexit destructor for 'std::_Error_objects<int>::_Generic_object''
text$yd	ENDS
; Function compile flags: /Odtp
; File c:\program files (x86)\microsoft visual studio 11.0\vc\include\xmemory0
;	COMDAT ??__E?_Generic_object@?$_Error_objects@H@std@@2V_Generic_error_category@2@A@@YAXXZ
text$yc	SEGMENT
??__E?_Generic_object@?$_Error_objects@H@std@@2V_Generic_error_category@2@A@@YAXXZ PROC ; `dynamic initializer for 'std::_Error_objects<int>::_Generic_object'', COMDAT

; 627  : 		{	// estimate maximum array size

	push	ebp
	mov	ebp, esp
	mov	ecx, OFFSET ?_Generic_object@?$_Error_objects@H@std@@2V_Generic_error_category@2@A ; std::_Error_objects<int>::_Generic_object
	call	??0_Generic_error_category@std@@QAE@XZ	; std::_Generic_error_category::_Generic_error_category
	push	OFFSET ??__F?_Generic_object@?$_Error_objects@H@std@@2V_Generic_error_category@2@A@@YAXXZ ; `dynamic atexit destructor for 'std::_Error_objects<int>::_Generic_object''
	call	_atexit
	add	esp, 4
	pop	ebp
	ret	0
??__E?_Generic_object@?$_Error_objects@H@std@@2V_Generic_error_category@2@A@@YAXXZ ENDP ; `dynamic initializer for 'std::_Error_objects<int>::_Generic_object''
text$yc	ENDS
; Function compile flags: /Odtp
; File c:\program files (x86)\microsoft visual studio 11.0\vc\include\xmemory0
;	COMDAT ??$_Allocate@D@std@@YAPADIPAD@Z
_TEXT	SEGMENT
__Ptr$ = -4						; size = 4
__Count$ = 8						; size = 4
___formal$ = 12						; size = 4
??$_Allocate@D@std@@YAPADIPAD@Z PROC			; std::_Allocate<char>, COMDAT

; 22   : 	{	// allocate storage for _Count elements of type _Ty

	push	ebp
	mov	ebp, esp
	push	ecx

; 23   : 	void *_Ptr = 0;

	mov	DWORD PTR __Ptr$[ebp], 0

; 24   : 
; 25   : 	if (_Count == 0)

	cmp	DWORD PTR __Count$[ebp], 0
	jne	SHORT $LN4@Allocate

; 26   : 		;
; 27   : 	else if (((size_t)(-1) / sizeof (_Ty) < _Count)

	jmp	SHORT $LN3@Allocate
$LN4@Allocate:

; 28   : 		|| (_Ptr = ::operator new(_Count * sizeof (_Ty))) == 0)

	cmp	DWORD PTR __Count$[ebp], -1
	ja	SHORT $LN1@Allocate
	mov	eax, DWORD PTR __Count$[ebp]
	push	eax
	call	??2@YAPAXI@Z				; operator new
	add	esp, 4
	mov	DWORD PTR __Ptr$[ebp], eax
	cmp	DWORD PTR __Ptr$[ebp], 0
	jne	SHORT $LN3@Allocate
$LN1@Allocate:

; 29   : 		_Xbad_alloc();	// report no memory

	call	?_Xbad_alloc@std@@YAXXZ			; std::_Xbad_alloc
$LN3@Allocate:

; 30   : 
; 31   : 	return ((_Ty *)_Ptr);

	mov	eax, DWORD PTR __Ptr$[ebp]
$LN6@Allocate:

; 32   : 	}

	mov	esp, ebp
	pop	ebp
	ret	0
??$_Allocate@D@std@@YAPADIPAD@Z ENDP			; std::_Allocate<char>
_TEXT	ENDS
; Function compile flags: /Odtp
; File c:\program files (x86)\microsoft visual studio 11.0\vc\include\xstddef
;	COMDAT ??$addressof@D@std@@YAPADAAD@Z
_TEXT	SEGMENT
__Val$ = 8						; size = 4
??$addressof@D@std@@YAPADAAD@Z PROC			; std::addressof<char>, COMDAT

; 85   : 	{	// return address of _Val

	push	ebp
	mov	ebp, esp

; 86   : 	return (reinterpret_cast<_Ty *>(
; 87   : 		(&const_cast<char&>(
; 88   : 		reinterpret_cast<const volatile char&>(_Val)))));

	mov	eax, DWORD PTR __Val$[ebp]

; 89   : 	}

	pop	ebp
	ret	0
??$addressof@D@std@@YAPADAAD@Z ENDP			; std::addressof<char>
_TEXT	ENDS
; Function compile flags: /Odtp
; File c:\program files (x86)\microsoft visual studio 11.0\vc\include\xmemory0
;	COMDAT ??$destroy@PAD@?$_Wrap_alloc@V?$allocator@D@std@@@std@@QAEXPAPAD@Z
_TEXT	SEGMENT
_this$ = -4						; size = 4
__Ptr$ = 8						; size = 4
??$destroy@PAD@?$_Wrap_alloc@V?$allocator@D@std@@@std@@QAEXPAPAD@Z PROC ; std::_Wrap_alloc<std::allocator<char> >::destroy<char *>, COMDAT
; _this$ = ecx

; 907  : 		void destroy(_Ty *_Ptr)

	push	ebp
	mov	ebp, esp
	push	ecx
	mov	DWORD PTR _this$[ebp], ecx

; 908  : 		{	// destroy object at _Ptr
; 909  : 		_Mytraits::destroy(*this, _Ptr);

	mov	eax, DWORD PTR __Ptr$[ebp]
	push	eax
	mov	ecx, DWORD PTR _this$[ebp]
	push	ecx
	call	??$destroy@PAD@?$allocator_traits@V?$allocator@D@std@@@std@@SAXAAV?$allocator@D@1@PAPAD@Z ; std::allocator_traits<std::allocator<char> >::destroy<char *>
	add	esp, 8

; 910  : 		}

	mov	esp, ebp
	pop	ebp
	ret	4
??$destroy@PAD@?$_Wrap_alloc@V?$allocator@D@std@@@std@@QAEXPAPAD@Z ENDP ; std::_Wrap_alloc<std::allocator<char> >::destroy<char *>
_TEXT	ENDS
; Function compile flags: /Odtp
; File c:\program files (x86)\microsoft visual studio 11.0\vc\include\xmemory0
;	COMDAT ??$construct@PADAAPAD@?$_Wrap_alloc@V?$allocator@D@std@@@std@@QAEXPAPADAAPAD@Z
_TEXT	SEGMENT
_this$ = -4						; size = 4
__Ptr$ = 8						; size = 4
__V0$ = 12						; size = 4
??$construct@PADAAPAD@?$_Wrap_alloc@V?$allocator@D@std@@@std@@QAEXPAPADAAPAD@Z PROC ; std::_Wrap_alloc<std::allocator<char> >::construct<char *,char * &>, COMDAT
; _this$ = ecx

; 903  : _VARIADIC_EXPAND_0X(_WRAP_ALLOC_CONSTRUCT, , , , )

	push	ebp
	mov	ebp, esp
	push	ecx
	mov	DWORD PTR _this$[ebp], ecx
	mov	eax, DWORD PTR __V0$[ebp]
	push	eax
	call	??$forward@AAPAD@std@@YAAAPADAAPAD@Z	; std::forward<char * &>
	add	esp, 4
	push	eax
	mov	ecx, DWORD PTR __Ptr$[ebp]
	push	ecx
	mov	edx, DWORD PTR _this$[ebp]
	push	edx
	call	??$construct@PADAAPAD@?$allocator_traits@V?$allocator@D@std@@@std@@SAXAAV?$allocator@D@1@PAPADAAPAD@Z ; std::allocator_traits<std::allocator<char> >::construct<char *,char * &>
	add	esp, 12					; 0000000cH
	mov	esp, ebp
	pop	ebp
	ret	8
??$construct@PADAAPAD@?$_Wrap_alloc@V?$allocator@D@std@@@std@@QAEXPAPADAAPAD@Z ENDP ; std::_Wrap_alloc<std::allocator<char> >::construct<char *,char * &>
_TEXT	ENDS
; Function compile flags: /Odtp
; File c:\users\zhitao li\documents\visual studio 2012\projects\freefalcon\sim\include\simio.h
;	COMDAT ?AnalogIsUsed@SIMLIB_IO_CLASS@@QAE_NW4GameAxis_t@@@Z
_TEXT	SEGMENT
_this$ = -4						; size = 4
_id$ = 8						; size = 4
?AnalogIsUsed@SIMLIB_IO_CLASS@@QAE_NW4GameAxis_t@@@Z PROC ; SIMLIB_IO_CLASS::AnalogIsUsed, COMDAT
; _this$ = ecx

; 237  : 	bool	AnalogIsUsed(GameAxis_t id) { return ( analog[id].isUsed); };

	push	ebp
	mov	ebp, esp
	push	ecx
	mov	DWORD PTR _this$[ebp], ecx
	mov	eax, DWORD PTR _id$[ebp]
	imul	eax, 28					; 0000001cH
	mov	ecx, DWORD PTR _this$[ebp]
	mov	al, BYTE PTR [ecx+eax+12]
	mov	esp, ebp
	pop	ebp
	ret	4
?AnalogIsUsed@SIMLIB_IO_CLASS@@QAE_NW4GameAxis_t@@@Z ENDP ; SIMLIB_IO_CLASS::AnalogIsUsed
_TEXT	ENDS
; Function compile flags: /Odtp
; File c:\users\zhitao li\documents\visual studio 2012\projects\freefalcon\sim\fcc\mislfcc.cpp
;	COMDAT ??__ECOS_SUN_EFFECT_HALF_ANGLE@@YAXXZ
text$yc	SEGMENT
??__ECOS_SUN_EFFECT_HALF_ANGLE@@YAXXZ PROC		; `dynamic initializer for 'COS_SUN_EFFECT_HALF_ANGLE'', COMDAT

; 21   : static const float	COS_SUN_EFFECT_HALF_ANGLE	= (float)cos( 20.0f * DTR );//me123 changed from 10 since the sun is so small in f4

	push	ebp
	mov	ebp, esp
	push	ecx
	movss	xmm0, DWORD PTR __real@3eb2b8c1
	movss	DWORD PTR [esp], xmm0
	call	?cos@@YAMM@Z				; cos
	add	esp, 4
	fstp	DWORD PTR _COS_SUN_EFFECT_HALF_ANGLE
	pop	ebp
	ret	0
??__ECOS_SUN_EFFECT_HALF_ANGLE@@YAXXZ ENDP		; `dynamic initializer for 'COS_SUN_EFFECT_HALF_ANGLE''
text$yc	ENDS
; Function compile flags: /Odtp
; File c:\users\zhitao li\documents\visual studio 2012\projects\freefalcon\sim\include\aircrft.h
;	COMDAT ?AutopilotType@AircraftClass@@QAE?AW4AutoPilotType@1@XZ
_TEXT	SEGMENT
_this$ = -4						; size = 4
?AutopilotType@AircraftClass@@QAE?AW4AutoPilotType@1@XZ PROC ; AircraftClass::AutopilotType, COMDAT
; _this$ = ecx

; 329  : 	AutoPilotType	AutopilotType (void) {return autopilotType;};

	push	ebp
	mov	ebp, esp
	push	ecx
	mov	DWORD PTR _this$[ebp], ecx
	mov	eax, DWORD PTR _this$[ebp]
	mov	eax, DWORD PTR [eax+968]
	mov	esp, ebp
	pop	ebp
	ret	0
?AutopilotType@AircraftClass@@QAE?AW4AutoPilotType@1@XZ ENDP ; AircraftClass::AutopilotType
_TEXT	ENDS
; Function compile flags: /Odtp
; File c:\users\zhitao li\documents\visual studio 2012\projects\freefalcon\sim\include\otwdrive.h
;	COMDAT ?DisplayInCockpit@OTWDriverClass@@QAEHXZ
_TEXT	SEGMENT
_this$ = -4						; size = 4
?DisplayInCockpit@OTWDriverClass@@QAEHXZ PROC		; OTWDriverClass::DisplayInCockpit, COMDAT
; _this$ = ecx

; 244  : 		inline BOOL DisplayInCockpit( void ){

	push	ebp
	mov	ebp, esp
	push	ecx
	mov	DWORD PTR _this$[ebp], ecx

; 245  : 			if (mOTWDisplayMode >= ModeHud && mOTWDisplayMode <= ModePadlockEFOV )

	mov	eax, DWORD PTR _this$[ebp]
	cmp	DWORD PTR [eax+32328], 1
	jl	SHORT $LN1@DisplayInC
	mov	ecx, DWORD PTR _this$[ebp]
	cmp	DWORD PTR [ecx+32328], 5
	jg	SHORT $LN1@DisplayInC

; 246  : 		  		return TRUE;

	mov	eax, 1
	jmp	SHORT $LN2@DisplayInC
$LN1@DisplayInC:

; 247  : 			return FALSE;

	xor	eax, eax
$LN2@DisplayInC:

; 248  : 		}

	mov	esp, ebp
	pop	ebp
	ret	0
?DisplayInCockpit@OTWDriverClass@@QAEHXZ ENDP		; OTWDriverClass::DisplayInCockpit
_TEXT	ENDS
; Function compile flags: /Odtp
; File c:\users\zhitao li\documents\visual studio 2012\projects\freefalcon\sim\include\object.h
;	COMDAT ?BaseData@SimObjectType@@QAEPAVFalconEntity@@XZ
_TEXT	SEGMENT
_this$ = -4						; size = 4
?BaseData@SimObjectType@@QAEPAVFalconEntity@@XZ PROC	; SimObjectType::BaseData, COMDAT
; _this$ = ecx

; 92   : 	FalconEntity* BaseData(void) { return baseData.get(); };

	push	ebp
	mov	ebp, esp
	push	ecx
	mov	DWORD PTR _this$[ebp], ecx
	mov	ecx, DWORD PTR _this$[ebp]
	call	?get@?$VuBin@VFalconEntity@@@@QBEPAVFalconEntity@@XZ ; VuBin<FalconEntity>::get
	mov	esp, ebp
	pop	ebp
	ret	0
?BaseData@SimObjectType@@QAEPAVFalconEntity@@XZ ENDP	; SimObjectType::BaseData
_TEXT	ENDS
; Function compile flags: /Odtp
; File c:\users\zhitao li\documents\visual studio 2012\projects\freefalcon\sim\include\sms.h
;	COMDAT ?GetCoolState@SMSClass@@QAE?AW4Aim9Mode@1@XZ
_TEXT	SEGMENT
_this$ = -4						; size = 4
?GetCoolState@SMSClass@@QAE?AW4Aim9Mode@1@XZ PROC	; SMSClass::GetCoolState, COMDAT
; _this$ = ecx

; 270  : 	Aim9Mode GetCoolState() { return aim9mode; };

	push	ebp
	mov	ebp, esp
	push	ecx
	mov	DWORD PTR _this$[ebp], ecx
	mov	eax, DWORD PTR _this$[ebp]
	mov	eax, DWORD PTR [eax+180]
	mov	esp, ebp
	pop	ebp
	ret	0
?GetCoolState@SMSClass@@QAE?AW4Aim9Mode@1@XZ ENDP	; SMSClass::GetCoolState
_TEXT	ENDS
; Function compile flags: /Odtp
; File c:\users\zhitao li\documents\visual studio 2012\projects\freefalcon\sim\include\missile.h
;	COMDAT ?GetSndAim9EnviroGround@MissileClass@@QAEHXZ
_TEXT	SEGMENT
_this$ = -4						; size = 4
?GetSndAim9EnviroGround@MissileClass@@QAEHXZ PROC	; MissileClass::GetSndAim9EnviroGround, COMDAT
; _this$ = ecx

; 356  : 	int GetSndAim9EnviroGround(void)	{return auxData->sndAim9EnviroGround;};

	push	ebp
	mov	ebp, esp
	push	ecx
	mov	DWORD PTR _this$[ebp], ecx
	mov	eax, DWORD PTR _this$[ebp]
	mov	ecx, DWORD PTR [eax+860]
	mov	eax, DWORD PTR [ecx+112]
	mov	esp, ebp
	pop	ebp
	ret	0
?GetSndAim9EnviroGround@MissileClass@@QAEHXZ ENDP	; MissileClass::GetSndAim9EnviroGround
_TEXT	ENDS
; Function compile flags: /Odtp
; File c:\users\zhitao li\documents\visual studio 2012\projects\freefalcon\sim\include\missile.h
;	COMDAT ?GetSndAim9EnviroSky@MissileClass@@QAEHXZ
_TEXT	SEGMENT
_this$ = -4						; size = 4
?GetSndAim9EnviroSky@MissileClass@@QAEHXZ PROC		; MissileClass::GetSndAim9EnviroSky, COMDAT
; _this$ = ecx

; 355  : 	int GetSndAim9EnviroSky(void)		{return auxData->sndAim9EnviroSky;};

	push	ebp
	mov	ebp, esp
	push	ecx
	mov	DWORD PTR _this$[ebp], ecx
	mov	eax, DWORD PTR _this$[ebp]
	mov	ecx, DWORD PTR [eax+860]
	mov	eax, DWORD PTR [ecx+108]
	mov	esp, ebp
	pop	ebp
	ret	0
?GetSndAim9EnviroSky@MissileClass@@QAEHXZ ENDP		; MissileClass::GetSndAim9EnviroSky
_TEXT	ENDS
; Function compile flags: /Odtp
; File c:\users\zhitao li\documents\visual studio 2012\projects\freefalcon\sim\include\missile.h
;	COMDAT ?GetSndAim9Uncaged@MissileClass@@QAEHXZ
_TEXT	SEGMENT
_this$ = -4						; size = 4
?GetSndAim9Uncaged@MissileClass@@QAEHXZ PROC		; MissileClass::GetSndAim9Uncaged, COMDAT
; _this$ = ecx

; 354  : 	int GetSndAim9Uncaged(void)			{return auxData->sndAim9Uncaged;};

	push	ebp
	mov	ebp, esp
	push	ecx
	mov	DWORD PTR _this$[ebp], ecx
	mov	eax, DWORD PTR _this$[ebp]
	mov	ecx, DWORD PTR [eax+860]
	mov	eax, DWORD PTR [ecx+104]
	mov	esp, ebp
	pop	ebp
	ret	0
?GetSndAim9Uncaged@MissileClass@@QAEHXZ ENDP		; MissileClass::GetSndAim9Uncaged
_TEXT	ENDS
; Function compile flags: /Odtp
; File c:\users\zhitao li\documents\visual studio 2012\projects\freefalcon\sim\include\missile.h
;	COMDAT ?GetSndAim9Growl@MissileClass@@QAEHXZ
_TEXT	SEGMENT
_this$ = -4						; size = 4
?GetSndAim9Growl@MissileClass@@QAEHXZ PROC		; MissileClass::GetSndAim9Growl, COMDAT
; _this$ = ecx

; 352  : 	int GetSndAim9Growl(void)			{return auxData->sndAim9Growl;};

	push	ebp
	mov	ebp, esp
	push	ecx
	mov	DWORD PTR _this$[ebp], ecx
	mov	eax, DWORD PTR _this$[ebp]
	mov	ecx, DWORD PTR [eax+860]
	mov	eax, DWORD PTR [ecx+96]
	mov	esp, ebp
	pop	ebp
	ret	0
?GetSndAim9Growl@MissileClass@@QAEHXZ ENDP		; MissileClass::GetSndAim9Growl
_TEXT	ENDS
; Function compile flags: /Odtp
; File c:\users\zhitao li\documents\visual studio 2012\projects\freefalcon\sim\include\missile.h
;	COMDAT ?GetmaxTof@MissileClass@@QAEMXZ
_TEXT	SEGMENT
_this$ = -4						; size = 4
?GetmaxTof@MissileClass@@QAEMXZ PROC			; MissileClass::GetmaxTof, COMDAT
; _this$ = ecx

; 265  : 	float GetmaxTof (void) { return inputData->maxTof;};//me123

	push	ebp
	mov	ebp, esp
	push	ecx
	mov	DWORD PTR _this$[ebp], ecx
	mov	eax, DWORD PTR _this$[ebp]
	mov	ecx, DWORD PTR [eax+848]
	fld	DWORD PTR [ecx]
	mov	esp, ebp
	pop	ebp
	ret	0
?GetmaxTof@MissileClass@@QAEMXZ ENDP			; MissileClass::GetmaxTof
_TEXT	ENDS
; Function compile flags: /Odtp
;	COMDAT ??_G_System_error_category@std@@UAEPAXI@Z
_TEXT	SEGMENT
_this$ = -4						; size = 4
___flags$ = 8						; size = 4
??_G_System_error_category@std@@UAEPAXI@Z PROC		; std::_System_error_category::`scalar deleting destructor', COMDAT
; _this$ = ecx
	push	ebp
	mov	ebp, esp
	push	ecx
	mov	DWORD PTR _this$[ebp], ecx
	mov	ecx, DWORD PTR _this$[ebp]
	call	??1_System_error_category@std@@UAE@XZ
	mov	eax, DWORD PTR ___flags$[ebp]
	and	eax, 1
	je	SHORT $LN1@scalar
	mov	ecx, DWORD PTR _this$[ebp]
	push	ecx
	call	??3@YAXPAX@Z				; operator delete
	add	esp, 4
$LN1@scalar:
	mov	eax, DWORD PTR _this$[ebp]
	mov	esp, ebp
	pop	ebp
	ret	4
??_G_System_error_category@std@@UAEPAXI@Z ENDP		; std::_System_error_category::`scalar deleting destructor'
_TEXT	ENDS
; Function compile flags: /Odtp
;	COMDAT ??1_System_error_category@std@@UAE@XZ
_TEXT	SEGMENT
_this$ = -4						; size = 4
??1_System_error_category@std@@UAE@XZ PROC		; std::_System_error_category::~_System_error_category, COMDAT
; _this$ = ecx
	push	ebp
	mov	ebp, esp
	push	ecx
	mov	DWORD PTR _this$[ebp], ecx
	mov	ecx, DWORD PTR _this$[ebp]
	call	??1_Generic_error_category@std@@UAE@XZ
	mov	esp, ebp
	pop	ebp
	ret	0
??1_System_error_category@std@@UAE@XZ ENDP		; std::_System_error_category::~_System_error_category
_TEXT	ENDS
; Function compile flags: /Odtp
; File c:\program files (x86)\microsoft visual studio 11.0\vc\include\system_error
;	COMDAT ?default_error_condition@_System_error_category@std@@UBE?AVerror_condition@2@H@Z
_TEXT	SEGMENT
_this$ = -4						; size = 4
___$ReturnUdt$ = 8					; size = 4
__Errval$ = 12						; size = 4
?default_error_condition@_System_error_category@std@@UBE?AVerror_condition@2@H@Z PROC ; std::_System_error_category::default_error_condition, COMDAT
; _this$ = ecx

; 641  : 		{	// make error_condition for error code (generic if possible)

	push	ebp
	mov	ebp, esp
	push	ecx
	mov	DWORD PTR _this$[ebp], ecx

; 642  : 		if (_Syserror_map(_Errval))

	mov	eax, DWORD PTR __Errval$[ebp]
	push	eax
	call	?_Syserror_map@std@@YAPBDH@Z		; std::_Syserror_map
	add	esp, 4
	test	eax, eax
	je	SHORT $LN2@default_er

; 643  : 			return (error_condition(_Errval, generic_category()));

	call	?generic_category@std@@YAABVerror_category@1@XZ ; std::generic_category
	push	eax
	mov	ecx, DWORD PTR __Errval$[ebp]
	push	ecx
	mov	ecx, DWORD PTR ___$ReturnUdt$[ebp]
	call	??0error_condition@std@@QAE@HABVerror_category@1@@Z ; std::error_condition::error_condition
	mov	eax, DWORD PTR ___$ReturnUdt$[ebp]
	jmp	SHORT $LN3@default_er

; 644  : 		else

	jmp	SHORT $LN3@default_er
$LN2@default_er:

; 645  : 			return (error_condition(_Errval, system_category()));

	call	?system_category@std@@YAABVerror_category@1@XZ ; std::system_category
	push	eax
	mov	edx, DWORD PTR __Errval$[ebp]
	push	edx
	mov	ecx, DWORD PTR ___$ReturnUdt$[ebp]
	call	??0error_condition@std@@QAE@HABVerror_category@1@@Z ; std::error_condition::error_condition
	mov	eax, DWORD PTR ___$ReturnUdt$[ebp]
$LN3@default_er:

; 646  : 		}

	mov	esp, ebp
	pop	ebp
	ret	8
?default_error_condition@_System_error_category@std@@UBE?AVerror_condition@2@H@Z ENDP ; std::_System_error_category::default_error_condition
_TEXT	ENDS
; Function compile flags: /Odtp
; File c:\program files (x86)\microsoft visual studio 11.0\vc\include\system_error
;	COMDAT ?message@_System_error_category@std@@UBE?AV?$basic_string@DU?$char_traits@D@std@@V?$allocator@D@2@@2@H@Z
_TEXT	SEGMENT
_this$ = -16						; size = 4
$T1 = -12						; size = 4
tv69 = -8						; size = 4
__Name$ = -4						; size = 4
___$ReturnUdt$ = 8					; size = 4
__Errcode$ = 12						; size = 4
?message@_System_error_category@std@@UBE?AV?$basic_string@DU?$char_traits@D@std@@V?$allocator@D@2@@2@H@Z PROC ; std::_System_error_category::message, COMDAT
; _this$ = ecx

; 634  : 		{	// convert to name of error

	push	ebp
	mov	ebp, esp
	sub	esp, 16					; 00000010H
	mov	DWORD PTR _this$[ebp], ecx
	mov	DWORD PTR $T1[ebp], 0

; 635  : 		const char *_Name = _Winerror_map(_Errcode);

	mov	eax, DWORD PTR __Errcode$[ebp]
	push	eax
	call	?_Winerror_map@std@@YAPBDH@Z		; std::_Winerror_map
	add	esp, 4
	mov	DWORD PTR __Name$[ebp], eax

; 636  : 		return (string(_Name != 0 ? _Name : "unknown error"));

	cmp	DWORD PTR __Name$[ebp], 0
	je	SHORT $LN3@message
	mov	ecx, DWORD PTR __Name$[ebp]
	mov	DWORD PTR tv69[ebp], ecx
	jmp	SHORT $LN4@message
$LN3@message:
	mov	DWORD PTR tv69[ebp], OFFSET ??_C@_0O@BFJCFAAK@unknown?5error?$AA@
$LN4@message:
	mov	edx, DWORD PTR tv69[ebp]
	push	edx
	mov	ecx, DWORD PTR ___$ReturnUdt$[ebp]
	call	??0?$basic_string@DU?$char_traits@D@std@@V?$allocator@D@2@@std@@QAE@PBD@Z ; std::basic_string<char,std::char_traits<char>,std::allocator<char> >::basic_string<char,std::char_traits<char>,std::allocator<char> >
	mov	eax, DWORD PTR $T1[ebp]
	or	eax, 1
	mov	DWORD PTR $T1[ebp], eax
	mov	eax, DWORD PTR ___$ReturnUdt$[ebp]

; 637  : 		}

	mov	esp, ebp
	pop	ebp
	ret	8
?message@_System_error_category@std@@UBE?AV?$basic_string@DU?$char_traits@D@std@@V?$allocator@D@2@@2@H@Z ENDP ; std::_System_error_category::message
_TEXT	ENDS
; Function compile flags: /Odtp
; File c:\program files (x86)\microsoft visual studio 11.0\vc\include\system_error
;	COMDAT ?name@_System_error_category@std@@UBEPBDXZ
_TEXT	SEGMENT
_this$ = -4						; size = 4
?name@_System_error_category@std@@UBEPBDXZ PROC		; std::_System_error_category::name, COMDAT
; _this$ = ecx

; 629  : 		{	// get name of category

	push	ebp
	mov	ebp, esp
	push	ecx
	mov	DWORD PTR _this$[ebp], ecx

; 630  : 		return ("system");

	mov	eax, OFFSET ??_C@_06FHFOAHML@system?$AA@

; 631  : 		}

	mov	esp, ebp
	pop	ebp
	ret	0
?name@_System_error_category@std@@UBEPBDXZ ENDP		; std::_System_error_category::name
_TEXT	ENDS
; Function compile flags: /Odtp
; File c:\program files (x86)\microsoft visual studio 11.0\vc\include\system_error
;	COMDAT ??0_System_error_category@std@@QAE@XZ
_TEXT	SEGMENT
_this$ = -4						; size = 4
??0_System_error_category@std@@QAE@XZ PROC		; std::_System_error_category::_System_error_category, COMDAT
; _this$ = ecx

; 624  : 	_System_error_category()

	push	ebp
	mov	ebp, esp
	push	ecx
	mov	DWORD PTR _this$[ebp], ecx
	mov	ecx, DWORD PTR _this$[ebp]
	call	??0_Generic_error_category@std@@QAE@XZ	; std::_Generic_error_category::_Generic_error_category
	mov	eax, DWORD PTR _this$[ebp]
	mov	DWORD PTR [eax], OFFSET ??_7_System_error_category@std@@6B@

; 625  : 		{	// default constructor
; 626  : 		}

	mov	eax, DWORD PTR _this$[ebp]
	mov	esp, ebp
	pop	ebp
	ret	0
??0_System_error_category@std@@QAE@XZ ENDP		; std::_System_error_category::_System_error_category
_TEXT	ENDS
; Function compile flags: /Odtp
;	COMDAT ??_G_Iostream_error_category@std@@UAEPAXI@Z
_TEXT	SEGMENT
_this$ = -4						; size = 4
___flags$ = 8						; size = 4
??_G_Iostream_error_category@std@@UAEPAXI@Z PROC	; std::_Iostream_error_category::`scalar deleting destructor', COMDAT
; _this$ = ecx
	push	ebp
	mov	ebp, esp
	push	ecx
	mov	DWORD PTR _this$[ebp], ecx
	mov	ecx, DWORD PTR _this$[ebp]
	call	??1_Iostream_error_category@std@@UAE@XZ
	mov	eax, DWORD PTR ___flags$[ebp]
	and	eax, 1
	je	SHORT $LN1@scalar
	mov	ecx, DWORD PTR _this$[ebp]
	push	ecx
	call	??3@YAXPAX@Z				; operator delete
	add	esp, 4
$LN1@scalar:
	mov	eax, DWORD PTR _this$[ebp]
	mov	esp, ebp
	pop	ebp
	ret	4
??_G_Iostream_error_category@std@@UAEPAXI@Z ENDP	; std::_Iostream_error_category::`scalar deleting destructor'
_TEXT	ENDS
; Function compile flags: /Odtp
;	COMDAT ??1_Iostream_error_category@std@@UAE@XZ
_TEXT	SEGMENT
_this$ = -4						; size = 4
??1_Iostream_error_category@std@@UAE@XZ PROC		; std::_Iostream_error_category::~_Iostream_error_category, COMDAT
; _this$ = ecx
	push	ebp
	mov	ebp, esp
	push	ecx
	mov	DWORD PTR _this$[ebp], ecx
	mov	ecx, DWORD PTR _this$[ebp]
	call	??1_Generic_error_category@std@@UAE@XZ
	mov	esp, ebp
	pop	ebp
	ret	0
??1_Iostream_error_category@std@@UAE@XZ ENDP		; std::_Iostream_error_category::~_Iostream_error_category
_TEXT	ENDS
; Function compile flags: /Odtp
; File c:\program files (x86)\microsoft visual studio 11.0\vc\include\system_error
;	COMDAT ?message@_Iostream_error_category@std@@UBE?AV?$basic_string@DU?$char_traits@D@std@@V?$allocator@D@2@@2@H@Z
_TEXT	SEGMENT
_this$ = -8						; size = 4
$T1 = -4						; size = 4
___$ReturnUdt$ = 8					; size = 4
__Errcode$ = 12						; size = 4
?message@_Iostream_error_category@std@@UBE?AV?$basic_string@DU?$char_traits@D@std@@V?$allocator@D@2@@2@H@Z PROC ; std::_Iostream_error_category::message, COMDAT
; _this$ = ecx

; 611  : 		{	// convert to name of error

	push	ebp
	mov	ebp, esp
	sub	esp, 8
	mov	DWORD PTR _this$[ebp], ecx
	mov	DWORD PTR $T1[ebp], 0

; 612  : 		if (_Errcode == (int)io_errc::stream)

	cmp	DWORD PTR __Errcode$[ebp], 1
	jne	SHORT $LN2@message

; 613  : 			return ("iostream stream error");

	push	OFFSET ??_C@_0BG@PADBLCHM@iostream?5stream?5error?$AA@
	mov	ecx, DWORD PTR ___$ReturnUdt$[ebp]
	call	??0?$basic_string@DU?$char_traits@D@std@@V?$allocator@D@2@@std@@QAE@PBD@Z ; std::basic_string<char,std::char_traits<char>,std::allocator<char> >::basic_string<char,std::char_traits<char>,std::allocator<char> >
	mov	eax, DWORD PTR $T1[ebp]
	or	eax, 1
	mov	DWORD PTR $T1[ebp], eax
	mov	eax, DWORD PTR ___$ReturnUdt$[ebp]
	jmp	SHORT $LN3@message

; 614  : 		else

	jmp	SHORT $LN3@message
$LN2@message:

; 615  : 			return (_Generic_error_category::message(_Errcode));

	mov	ecx, DWORD PTR __Errcode$[ebp]
	push	ecx
	mov	edx, DWORD PTR ___$ReturnUdt$[ebp]
	push	edx
	mov	ecx, DWORD PTR _this$[ebp]
	call	?message@_Generic_error_category@std@@UBE?AV?$basic_string@DU?$char_traits@D@std@@V?$allocator@D@2@@2@H@Z ; std::_Generic_error_category::message
	mov	eax, DWORD PTR $T1[ebp]
	or	eax, 1
	mov	DWORD PTR $T1[ebp], eax
	mov	eax, DWORD PTR ___$ReturnUdt$[ebp]
$LN3@message:

; 616  : 		}

	mov	esp, ebp
	pop	ebp
	ret	8
?message@_Iostream_error_category@std@@UBE?AV?$basic_string@DU?$char_traits@D@std@@V?$allocator@D@2@@2@H@Z ENDP ; std::_Iostream_error_category::message
_TEXT	ENDS
; Function compile flags: /Odtp
; File c:\program files (x86)\microsoft visual studio 11.0\vc\include\system_error
;	COMDAT ?name@_Iostream_error_category@std@@UBEPBDXZ
_TEXT	SEGMENT
_this$ = -4						; size = 4
?name@_Iostream_error_category@std@@UBEPBDXZ PROC	; std::_Iostream_error_category::name, COMDAT
; _this$ = ecx

; 606  : 		{	// get name of category

	push	ebp
	mov	ebp, esp
	push	ecx
	mov	DWORD PTR _this$[ebp], ecx

; 607  : 		return ("iostream");

	mov	eax, OFFSET ??_C@_08LLGCOLLL@iostream?$AA@

; 608  : 		}

	mov	esp, ebp
	pop	ebp
	ret	0
?name@_Iostream_error_category@std@@UBEPBDXZ ENDP	; std::_Iostream_error_category::name
_TEXT	ENDS
; Function compile flags: /Odtp
; File c:\program files (x86)\microsoft visual studio 11.0\vc\include\system_error
;	COMDAT ??0_Iostream_error_category@std@@QAE@XZ
_TEXT	SEGMENT
_this$ = -4						; size = 4
??0_Iostream_error_category@std@@QAE@XZ PROC		; std::_Iostream_error_category::_Iostream_error_category, COMDAT
; _this$ = ecx

; 601  : 	_Iostream_error_category()

	push	ebp
	mov	ebp, esp
	push	ecx
	mov	DWORD PTR _this$[ebp], ecx
	mov	ecx, DWORD PTR _this$[ebp]
	call	??0_Generic_error_category@std@@QAE@XZ	; std::_Generic_error_category::_Generic_error_category
	mov	eax, DWORD PTR _this$[ebp]
	mov	DWORD PTR [eax], OFFSET ??_7_Iostream_error_category@std@@6B@

; 602  : 		{	// default constructor
; 603  : 		}

	mov	eax, DWORD PTR _this$[ebp]
	mov	esp, ebp
	pop	ebp
	ret	0
??0_Iostream_error_category@std@@QAE@XZ ENDP		; std::_Iostream_error_category::_Iostream_error_category
_TEXT	ENDS
; Function compile flags: /Odtp
;	COMDAT ??_G_Generic_error_category@std@@UAEPAXI@Z
_TEXT	SEGMENT
_this$ = -4						; size = 4
___flags$ = 8						; size = 4
??_G_Generic_error_category@std@@UAEPAXI@Z PROC		; std::_Generic_error_category::`scalar deleting destructor', COMDAT
; _this$ = ecx
	push	ebp
	mov	ebp, esp
	push	ecx
	mov	DWORD PTR _this$[ebp], ecx
	mov	ecx, DWORD PTR _this$[ebp]
	call	??1_Generic_error_category@std@@UAE@XZ
	mov	eax, DWORD PTR ___flags$[ebp]
	and	eax, 1
	je	SHORT $LN1@scalar
	mov	ecx, DWORD PTR _this$[ebp]
	push	ecx
	call	??3@YAXPAX@Z				; operator delete
	add	esp, 4
$LN1@scalar:
	mov	eax, DWORD PTR _this$[ebp]
	mov	esp, ebp
	pop	ebp
	ret	4
??_G_Generic_error_category@std@@UAEPAXI@Z ENDP		; std::_Generic_error_category::`scalar deleting destructor'
_TEXT	ENDS
; Function compile flags: /Odtp
;	COMDAT ??1_Generic_error_category@std@@UAE@XZ
_TEXT	SEGMENT
_this$ = -4						; size = 4
??1_Generic_error_category@std@@UAE@XZ PROC		; std::_Generic_error_category::~_Generic_error_category, COMDAT
; _this$ = ecx
	push	ebp
	mov	ebp, esp
	push	ecx
	mov	DWORD PTR _this$[ebp], ecx
	mov	ecx, DWORD PTR _this$[ebp]
	call	??1error_category@std@@UAE@XZ		; std::error_category::~error_category
	mov	esp, ebp
	pop	ebp
	ret	0
??1_Generic_error_category@std@@UAE@XZ ENDP		; std::_Generic_error_category::~_Generic_error_category
_TEXT	ENDS
; Function compile flags: /Odtp
; File c:\program files (x86)\microsoft visual studio 11.0\vc\include\system_error
;	COMDAT ?message@_Generic_error_category@std@@UBE?AV?$basic_string@DU?$char_traits@D@std@@V?$allocator@D@2@@2@H@Z
_TEXT	SEGMENT
_this$ = -16						; size = 4
$T1 = -12						; size = 4
tv69 = -8						; size = 4
__Name$ = -4						; size = 4
___$ReturnUdt$ = 8					; size = 4
__Errcode$ = 12						; size = 4
?message@_Generic_error_category@std@@UBE?AV?$basic_string@DU?$char_traits@D@std@@V?$allocator@D@2@@2@H@Z PROC ; std::_Generic_error_category::message, COMDAT
; _this$ = ecx

; 590  : 		{	// convert to name of error

	push	ebp
	mov	ebp, esp
	sub	esp, 16					; 00000010H
	mov	DWORD PTR _this$[ebp], ecx
	mov	DWORD PTR $T1[ebp], 0

; 591  : 		const char *_Name = _Syserror_map(_Errcode);

	mov	eax, DWORD PTR __Errcode$[ebp]
	push	eax
	call	?_Syserror_map@std@@YAPBDH@Z		; std::_Syserror_map
	add	esp, 4
	mov	DWORD PTR __Name$[ebp], eax

; 592  : 		return (string(_Name != 0 ? _Name : "unknown error"));

	cmp	DWORD PTR __Name$[ebp], 0
	je	SHORT $LN3@message
	mov	ecx, DWORD PTR __Name$[ebp]
	mov	DWORD PTR tv69[ebp], ecx
	jmp	SHORT $LN4@message
$LN3@message:
	mov	DWORD PTR tv69[ebp], OFFSET ??_C@_0O@BFJCFAAK@unknown?5error?$AA@
$LN4@message:
	mov	edx, DWORD PTR tv69[ebp]
	push	edx
	mov	ecx, DWORD PTR ___$ReturnUdt$[ebp]
	call	??0?$basic_string@DU?$char_traits@D@std@@V?$allocator@D@2@@std@@QAE@PBD@Z ; std::basic_string<char,std::char_traits<char>,std::allocator<char> >::basic_string<char,std::char_traits<char>,std::allocator<char> >
	mov	eax, DWORD PTR $T1[ebp]
	or	eax, 1
	mov	DWORD PTR $T1[ebp], eax
	mov	eax, DWORD PTR ___$ReturnUdt$[ebp]

; 593  : 		}

	mov	esp, ebp
	pop	ebp
	ret	8
?message@_Generic_error_category@std@@UBE?AV?$basic_string@DU?$char_traits@D@std@@V?$allocator@D@2@@2@H@Z ENDP ; std::_Generic_error_category::message
_TEXT	ENDS
; Function compile flags: /Odtp
; File c:\program files (x86)\microsoft visual studio 11.0\vc\include\system_error
;	COMDAT ?name@_Generic_error_category@std@@UBEPBDXZ
_TEXT	SEGMENT
_this$ = -4						; size = 4
?name@_Generic_error_category@std@@UBEPBDXZ PROC	; std::_Generic_error_category::name, COMDAT
; _this$ = ecx

; 585  : 		{	// get name of category

	push	ebp
	mov	ebp, esp
	push	ecx
	mov	DWORD PTR _this$[ebp], ecx

; 586  : 		return ("generic");

	mov	eax, OFFSET ??_C@_07DCLBNMLN@generic?$AA@

; 587  : 		}

	mov	esp, ebp
	pop	ebp
	ret	0
?name@_Generic_error_category@std@@UBEPBDXZ ENDP	; std::_Generic_error_category::name
_TEXT	ENDS
; Function compile flags: /Odtp
; File c:\program files (x86)\microsoft visual studio 11.0\vc\include\system_error
;	COMDAT ??0_Generic_error_category@std@@QAE@XZ
_TEXT	SEGMENT
_this$ = -4						; size = 4
??0_Generic_error_category@std@@QAE@XZ PROC		; std::_Generic_error_category::_Generic_error_category, COMDAT
; _this$ = ecx

; 580  : 	_Generic_error_category()

	push	ebp
	mov	ebp, esp
	push	ecx
	mov	DWORD PTR _this$[ebp], ecx
	mov	ecx, DWORD PTR _this$[ebp]
	call	??0error_category@std@@QAE@XZ		; std::error_category::error_category
	mov	eax, DWORD PTR _this$[ebp]
	mov	DWORD PTR [eax], OFFSET ??_7_Generic_error_category@std@@6B@

; 581  : 		{	// default constructor
; 582  : 		}

	mov	eax, DWORD PTR _this$[ebp]
	mov	esp, ebp
	pop	ebp
	ret	0
??0_Generic_error_category@std@@QAE@XZ ENDP		; std::_Generic_error_category::_Generic_error_category
_TEXT	ENDS
; Function compile flags: /Odtp
; File c:\program files (x86)\microsoft visual studio 11.0\vc\include\system_error
;	COMDAT ??8error_condition@std@@QBE_NABV01@@Z
_TEXT	SEGMENT
tv78 = -8						; size = 4
_this$ = -4						; size = 4
__Right$ = 8						; size = 4
??8error_condition@std@@QBE_NABV01@@Z PROC		; std::error_condition::operator==, COMDAT
; _this$ = ecx

; 376  : 		{	// test if *this == _Right

	push	ebp
	mov	ebp, esp
	sub	esp, 8
	push	esi
	mov	DWORD PTR _this$[ebp], ecx

; 377  : 		return (category() == _Right.category()
; 378  : 			&& value() == _Right.value());

	mov	ecx, DWORD PTR __Right$[ebp]
	call	?category@error_condition@std@@QBEABVerror_category@2@XZ ; std::error_condition::category
	push	eax
	mov	ecx, DWORD PTR _this$[ebp]
	call	?category@error_condition@std@@QBEABVerror_category@2@XZ ; std::error_condition::category
	mov	ecx, eax
	call	??8error_category@std@@QBE_NABV01@@Z	; std::error_category::operator==
	movzx	eax, al
	test	eax, eax
	je	SHORT $LN3@operator
	mov	ecx, DWORD PTR _this$[ebp]
	call	?value@error_condition@std@@QBEHXZ	; std::error_condition::value
	mov	esi, eax
	mov	ecx, DWORD PTR __Right$[ebp]
	call	?value@error_condition@std@@QBEHXZ	; std::error_condition::value
	cmp	esi, eax
	jne	SHORT $LN3@operator
	mov	DWORD PTR tv78[ebp], 1
	jmp	SHORT $LN4@operator
$LN3@operator:
	mov	DWORD PTR tv78[ebp], 0
$LN4@operator:
	mov	al, BYTE PTR tv78[ebp]

; 379  : 		}

	pop	esi
	mov	esp, ebp
	pop	ebp
	ret	4
??8error_condition@std@@QBE_NABV01@@Z ENDP		; std::error_condition::operator==
_TEXT	ENDS
; Function compile flags: /Odtp
; File c:\program files (x86)\microsoft visual studio 11.0\vc\include\system_error
;	COMDAT ?category@error_condition@std@@QBEABVerror_category@2@XZ
_TEXT	SEGMENT
_this$ = -4						; size = 4
?category@error_condition@std@@QBEABVerror_category@2@XZ PROC ; std::error_condition::category, COMDAT
; _this$ = ecx

; 354  : 		{	// get category

	push	ebp
	mov	ebp, esp
	push	ecx
	mov	DWORD PTR _this$[ebp], ecx

; 355  : 		return (*_Mycat);

	mov	eax, DWORD PTR _this$[ebp]
	mov	eax, DWORD PTR [eax+4]

; 356  : 		}

	mov	esp, ebp
	pop	ebp
	ret	0
?category@error_condition@std@@QBEABVerror_category@2@XZ ENDP ; std::error_condition::category
_TEXT	ENDS
; Function compile flags: /Odtp
; File c:\program files (x86)\microsoft visual studio 11.0\vc\include\system_error
;	COMDAT ?value@error_condition@std@@QBEHXZ
_TEXT	SEGMENT
_this$ = -4						; size = 4
?value@error_condition@std@@QBEHXZ PROC			; std::error_condition::value, COMDAT
; _this$ = ecx

; 349  : 		{	// get error code

	push	ebp
	mov	ebp, esp
	push	ecx
	mov	DWORD PTR _this$[ebp], ecx

; 350  : 		return (_Myval);

	mov	eax, DWORD PTR _this$[ebp]
	mov	eax, DWORD PTR [eax]

; 351  : 		}

	mov	esp, ebp
	pop	ebp
	ret	0
?value@error_condition@std@@QBEHXZ ENDP			; std::error_condition::value
_TEXT	ENDS
; Function compile flags: /Odtp
; File c:\program files (x86)\microsoft visual studio 11.0\vc\include\system_error
;	COMDAT ??0error_condition@std@@QAE@HABVerror_category@1@@Z
_TEXT	SEGMENT
_this$ = -4						; size = 4
__Val$ = 8						; size = 4
__Cat$ = 12						; size = 4
??0error_condition@std@@QAE@HABVerror_category@1@@Z PROC ; std::error_condition::error_condition, COMDAT
; _this$ = ecx

; 316  : 		{	// construct from error code and category

	push	ebp
	mov	ebp, esp
	push	ecx
	mov	DWORD PTR _this$[ebp], ecx
	mov	eax, DWORD PTR _this$[ebp]
	mov	ecx, DWORD PTR __Val$[ebp]
	mov	DWORD PTR [eax], ecx
	mov	edx, DWORD PTR _this$[ebp]
	mov	eax, DWORD PTR __Cat$[ebp]
	mov	DWORD PTR [edx+4], eax

; 317  : 		}

	mov	eax, DWORD PTR _this$[ebp]
	mov	esp, ebp
	pop	ebp
	ret	8
??0error_condition@std@@QAE@HABVerror_category@1@@Z ENDP ; std::error_condition::error_condition
_TEXT	ENDS
; Function compile flags: /Odtp
; File c:\program files (x86)\microsoft visual studio 11.0\vc\include\system_error
;	COMDAT ?category@error_code@std@@QBEABVerror_category@2@XZ
_TEXT	SEGMENT
_this$ = -4						; size = 4
?category@error_code@std@@QBEABVerror_category@2@XZ PROC ; std::error_code::category, COMDAT
; _this$ = ecx

; 256  : 		{	// get category

	push	ebp
	mov	ebp, esp
	push	ecx
	mov	DWORD PTR _this$[ebp], ecx

; 257  : 		return (*_Mycat);

	mov	eax, DWORD PTR _this$[ebp]
	mov	eax, DWORD PTR [eax+4]

; 258  : 		}

	mov	esp, ebp
	pop	ebp
	ret	0
?category@error_code@std@@QBEABVerror_category@2@XZ ENDP ; std::error_code::category
_TEXT	ENDS
; Function compile flags: /Odtp
; File c:\program files (x86)\microsoft visual studio 11.0\vc\include\system_error
;	COMDAT ?value@error_code@std@@QBEHXZ
_TEXT	SEGMENT
_this$ = -4						; size = 4
?value@error_code@std@@QBEHXZ PROC			; std::error_code::value, COMDAT
; _this$ = ecx

; 251  : 		{	// get error code

	push	ebp
	mov	ebp, esp
	push	ecx
	mov	DWORD PTR _this$[ebp], ecx

; 252  : 		return (_Myval);

	mov	eax, DWORD PTR _this$[ebp]
	mov	eax, DWORD PTR [eax]

; 253  : 		}

	mov	esp, ebp
	pop	ebp
	ret	0
?value@error_code@std@@QBEHXZ ENDP			; std::error_code::value
_TEXT	ENDS
; Function compile flags: /Odtp
;	COMDAT ??_Gerror_category@std@@UAEPAXI@Z
_TEXT	SEGMENT
_this$ = -4						; size = 4
___flags$ = 8						; size = 4
??_Gerror_category@std@@UAEPAXI@Z PROC			; std::error_category::`scalar deleting destructor', COMDAT
; _this$ = ecx
	push	ebp
	mov	ebp, esp
	push	ecx
	mov	DWORD PTR _this$[ebp], ecx
	mov	ecx, DWORD PTR _this$[ebp]
	call	??1error_category@std@@UAE@XZ		; std::error_category::~error_category
	mov	eax, DWORD PTR ___flags$[ebp]
	and	eax, 1
	je	SHORT $LN1@scalar
	mov	ecx, DWORD PTR _this$[ebp]
	push	ecx
	call	??3@YAXPAX@Z				; operator delete
	add	esp, 4
$LN1@scalar:
	mov	eax, DWORD PTR _this$[ebp]
	mov	esp, ebp
	pop	ebp
	ret	4
??_Gerror_category@std@@UAEPAXI@Z ENDP			; std::error_category::`scalar deleting destructor'
_TEXT	ENDS
; Function compile flags: /Odtp
; File c:\program files (x86)\microsoft visual studio 11.0\vc\include\system_error
;	COMDAT ??8error_category@std@@QBE_NABV01@@Z
_TEXT	SEGMENT
_this$ = -8						; size = 4
tv65 = -4						; size = 4
__Right$ = 8						; size = 4
??8error_category@std@@QBE_NABV01@@Z PROC		; std::error_category::operator==, COMDAT
; _this$ = ecx

; 184  : 		{	// compare categories for equality

	push	ebp
	mov	ebp, esp
	sub	esp, 8
	mov	DWORD PTR _this$[ebp], ecx

; 185  : 		return (this == &_Right);

	mov	eax, DWORD PTR _this$[ebp]
	cmp	eax, DWORD PTR __Right$[ebp]
	jne	SHORT $LN3@operator
	mov	DWORD PTR tv65[ebp], 1
	jmp	SHORT $LN4@operator
$LN3@operator:
	mov	DWORD PTR tv65[ebp], 0
$LN4@operator:
	mov	al, BYTE PTR tv65[ebp]

; 186  : 		}

	mov	esp, ebp
	pop	ebp
	ret	4
??8error_category@std@@QBE_NABV01@@Z ENDP		; std::error_category::operator==
_TEXT	ENDS
; Function compile flags: /Odtp
; File c:\program files (x86)\microsoft visual studio 11.0\vc\include\system_error
;	COMDAT ?equivalent@error_category@std@@UBE_NABVerror_code@2@H@Z
_TEXT	SEGMENT
_this$ = -8						; size = 4
tv74 = -4						; size = 4
__Code$ = 8						; size = 4
__Errval$ = 12						; size = 4
?equivalent@error_category@std@@UBE_NABVerror_code@2@H@Z PROC ; std::error_category::equivalent, COMDAT
; _this$ = ecx

; 415  : 	{	// test if conditions same for this category

	push	ebp
	mov	ebp, esp
	sub	esp, 8
	mov	DWORD PTR _this$[ebp], ecx

; 416  : 	return (*this == _Code.category() && _Code.value() == _Errval);

	mov	ecx, DWORD PTR __Code$[ebp]
	call	?category@error_code@std@@QBEABVerror_category@2@XZ ; std::error_code::category
	push	eax
	mov	ecx, DWORD PTR _this$[ebp]
	call	??8error_category@std@@QBE_NABV01@@Z	; std::error_category::operator==
	movzx	eax, al
	test	eax, eax
	je	SHORT $LN3@equivalent
	mov	ecx, DWORD PTR __Code$[ebp]
	call	?value@error_code@std@@QBEHXZ		; std::error_code::value
	cmp	eax, DWORD PTR __Errval$[ebp]
	jne	SHORT $LN3@equivalent
	mov	DWORD PTR tv74[ebp], 1
	jmp	SHORT $LN4@equivalent
$LN3@equivalent:
	mov	DWORD PTR tv74[ebp], 0
$LN4@equivalent:
	mov	al, BYTE PTR tv74[ebp]

; 417  : 	}

	mov	esp, ebp
	pop	ebp
	ret	8
?equivalent@error_category@std@@UBE_NABVerror_code@2@H@Z ENDP ; std::error_category::equivalent
_TEXT	ENDS
; Function compile flags: /Odtp
; File c:\program files (x86)\microsoft visual studio 11.0\vc\include\system_error
;	COMDAT ?equivalent@error_category@std@@UBE_NHABVerror_condition@2@@Z
_TEXT	SEGMENT
$T1 = -12						; size = 8
_this$ = -4						; size = 4
__Errval$ = 8						; size = 4
__Cond$ = 12						; size = 4
?equivalent@error_category@std@@UBE_NHABVerror_condition@2@@Z PROC ; std::error_category::equivalent, COMDAT
; _this$ = ecx

; 408  : 	{	// test if error code same condition

	push	ebp
	mov	ebp, esp
	sub	esp, 12					; 0000000cH
	mov	DWORD PTR _this$[ebp], ecx

; 409  : 	return (default_error_condition(_Errval) == _Cond);

	mov	eax, DWORD PTR __Cond$[ebp]
	push	eax
	mov	ecx, DWORD PTR __Errval$[ebp]
	push	ecx
	lea	edx, DWORD PTR $T1[ebp]
	push	edx
	mov	eax, DWORD PTR _this$[ebp]
	mov	edx, DWORD PTR [eax]
	mov	ecx, DWORD PTR _this$[ebp]
	mov	eax, DWORD PTR [edx+12]
	call	eax
	mov	ecx, eax
	call	??8error_condition@std@@QBE_NABV01@@Z	; std::error_condition::operator==

; 410  : 	}

	mov	esp, ebp
	pop	ebp
	ret	8
?equivalent@error_category@std@@UBE_NHABVerror_condition@2@@Z ENDP ; std::error_category::equivalent
_TEXT	ENDS
; Function compile flags: /Odtp
; File c:\program files (x86)\microsoft visual studio 11.0\vc\include\system_error
;	COMDAT ?default_error_condition@error_category@std@@UBE?AVerror_condition@2@H@Z
_TEXT	SEGMENT
_this$ = -4						; size = 4
___$ReturnUdt$ = 8					; size = 4
__Errval$ = 12						; size = 4
?default_error_condition@error_category@std@@UBE?AVerror_condition@2@H@Z PROC ; std::error_category::default_error_condition, COMDAT
; _this$ = ecx

; 401  : 	{	// make error_condition for error code

	push	ebp
	mov	ebp, esp
	push	ecx
	mov	DWORD PTR _this$[ebp], ecx

; 402  : 	return (error_condition(_Errval, *this));

	mov	eax, DWORD PTR _this$[ebp]
	push	eax
	mov	ecx, DWORD PTR __Errval$[ebp]
	push	ecx
	mov	ecx, DWORD PTR ___$ReturnUdt$[ebp]
	call	??0error_condition@std@@QAE@HABVerror_category@1@@Z ; std::error_condition::error_condition
	mov	eax, DWORD PTR ___$ReturnUdt$[ebp]

; 403  : 	}

	mov	esp, ebp
	pop	ebp
	ret	8
?default_error_condition@error_category@std@@UBE?AVerror_condition@2@H@Z ENDP ; std::error_category::default_error_condition
_TEXT	ENDS
; Function compile flags: /Odtp
; File c:\program files (x86)\microsoft visual studio 11.0\vc\include\system_error
;	COMDAT ??1error_category@std@@UAE@XZ
_TEXT	SEGMENT
_this$ = -4						; size = 4
??1error_category@std@@UAE@XZ PROC			; std::error_category::~error_category, COMDAT
; _this$ = ecx

; 167  : 		{	// destroy the object

	push	ebp
	mov	ebp, esp
	push	ecx
	mov	DWORD PTR _this$[ebp], ecx
	mov	eax, DWORD PTR _this$[ebp]
	mov	DWORD PTR [eax], OFFSET ??_7error_category@std@@6B@

; 168  : 		}

	mov	esp, ebp
	pop	ebp
	ret	0
??1error_category@std@@UAE@XZ ENDP			; std::error_category::~error_category
_TEXT	ENDS
; Function compile flags: /Odtp
; File c:\program files (x86)\microsoft visual studio 11.0\vc\include\system_error
;	COMDAT ??0error_category@std@@QAE@XZ
_TEXT	SEGMENT
_this$ = -4						; size = 4
??0error_category@std@@QAE@XZ PROC			; std::error_category::error_category, COMDAT
; _this$ = ecx

; 162  : 	error_category()

	push	ebp
	mov	ebp, esp
	push	ecx
	mov	DWORD PTR _this$[ebp], ecx
	mov	eax, DWORD PTR _this$[ebp]
	mov	DWORD PTR [eax], OFFSET ??_7error_category@std@@6B@

; 163  : 		{	// default constructor
; 164  : 		}

	mov	eax, DWORD PTR _this$[ebp]
	mov	esp, ebp
	pop	ebp
	ret	0
??0error_category@std@@QAE@XZ ENDP			; std::error_category::error_category
_TEXT	ENDS
; Function compile flags: /Odtp
; File c:\program files (x86)\microsoft visual studio 11.0\vc\include\system_error
;	COMDAT ?system_category@std@@YAABVerror_category@1@XZ
_TEXT	SEGMENT
?system_category@std@@YAABVerror_category@1@XZ PROC	; std::system_category, COMDAT

; 679  : 	{	// get system_category

	push	ebp
	mov	ebp, esp

; 680  : 	return (_Error_objects<int>::_System_object);

	mov	eax, OFFSET ?_System_object@?$_Error_objects@H@std@@2V_System_error_category@2@A ; std::_Error_objects<int>::_System_object

; 681  : 	}

	pop	ebp
	ret	0
?system_category@std@@YAABVerror_category@1@XZ ENDP	; std::system_category
_TEXT	ENDS
; Function compile flags: /Odtp
; File c:\program files (x86)\microsoft visual studio 11.0\vc\include\system_error
;	COMDAT ?generic_category@std@@YAABVerror_category@1@XZ
_TEXT	SEGMENT
?generic_category@std@@YAABVerror_category@1@XZ PROC	; std::generic_category, COMDAT

; 669  : 	{	// get generic_category

	push	ebp
	mov	ebp, esp

; 670  : 	return (_Error_objects<int>::_Generic_object);

	mov	eax, OFFSET ?_Generic_object@?$_Error_objects@H@std@@2V_Generic_error_category@2@A ; std::_Error_objects<int>::_Generic_object

; 671  : 	}

	pop	ebp
	ret	0
?generic_category@std@@YAABVerror_category@1@XZ ENDP	; std::generic_category
_TEXT	ENDS
; Function compile flags: /Odtp
; File c:\program files (x86)\microsoft visual studio 11.0\vc\include\xlocale
;	COMDAT ??0id@locale@std@@QAE@I@Z
_TEXT	SEGMENT
_this$ = -4						; size = 4
__Val$ = 8						; size = 4
??0id@locale@std@@QAE@I@Z PROC				; std::locale::id::id, COMDAT
; _this$ = ecx

; 74   : 			{	// construct with specified stamp value

	push	ebp
	mov	ebp, esp
	push	ecx
	mov	DWORD PTR _this$[ebp], ecx
	mov	eax, DWORD PTR _this$[ebp]
	mov	ecx, DWORD PTR __Val$[ebp]
	mov	DWORD PTR [eax], ecx

; 75   : 			}

	mov	eax, DWORD PTR _this$[ebp]
	mov	esp, ebp
	pop	ebp
	ret	4
??0id@locale@std@@QAE@I@Z ENDP				; std::locale::id::id
_TEXT	ENDS
; Function compile flags: /Odtp
; File c:\users\zhitao li\documents\visual studio 2012\projects\freefalcon\sim\fcc\mislfcc.cpp
_TEXT	SEGMENT
_trig$1 = -424						; size = 8
_tmpY$2 = -416						; size = 4
_tmpX$3 = -412						; size = 4
_tmpZ$4 = -408						; size = 4
_yaw$5 = -404						; size = 4
tv2827 = -400						; size = 4
tv2440 = -396						; size = 4
_oldAz$6 = -392						; size = 4
tv2814 = -388						; size = 4
tv2349 = -384						; size = 4
tv2784 = -380						; size = 4
_im$7 = -376						; size = 4
tv2981 = -372						; size = 4
tv2049 = -368						; size = 4
tv2644 = -364						; size = 4
tv2457 = -360						; size = 4
tv2979 = -356						; size = 4
tv2389 = -352						; size = 4
tv2635 = -348						; size = 4
tv2829 = -344						; size = 4
tv2977 = -340						; size = 4
tv2315 = -336						; size = 4
tv2626 = -332						; size = 4
_im$8 = -328						; size = 4
tv2847 = -324						; size = 4
tv2071 = -320						; size = 4
tv2617 = -316						; size = 4
tv2030 = -312						; size = 4
tv2594 = -308						; size = 4
tv1914 = -304						; size = 4
tv2564 = -300						; size = 4
tv2451 = -296						; size = 4
tv2540 = -292						; size = 4
tv2419 = -288						; size = 4
tv2845 = -284						; size = 4
tv2365 = -280						; size = 4
tv2506 = -276						; size = 4
tv2335 = -272						; size = 4
tv2843 = -268						; size = 4
tv2327 = -264						; size = 4
tv2499 = -260						; size = 4
tv2321 = -256						; size = 4
tv2841 = -252						; size = 4
tv2274 = -248						; size = 4
tv2487 = -244						; size = 4
_im$9 = -240						; size = 4
tv2839 = -236						; size = 4
_pitch$10 = -232					; size = 4
tv2480 = -228						; size = 4
tv2825 = -224						; size = 4
tv2474 = -220						; size = 4
tv1905 = -216						; size = 4
tv2831 = -212						; size = 4
tv2040 = -208						; size = 4
tv2833 = -204						; size = 4
tv2021 = -200						; size = 4
tv2837 = -196						; size = 4
_oldEl$11 = -192					; size = 4
tv2464 = -188						; size = 4
tv2835 = -184						; size = 4
tv2061 = -180						; size = 4
tv1673 = -176						; size = 4
_m$12 = -172						; size = 4
_a$13 = -168						; size = 4
tv686 = -164						; size = 4
_Az$14 = -160						; size = 4
tv729 = -156						; size = 4
_El$15 = -152						; size = 4
_m$16 = -148						; size = 4
tv1313 = -144						; size = 4
_m$17 = -140						; size = 4
tv1174 = -136						; size = 4
tv690 = -132						; size = 4
tv1142 = -128						; size = 4
tv327 = -124						; size = 4
tv1090 = -120						; size = 4
tv757 = -116						; size = 4
tv1042 = -112						; size = 4
tv738 = -108						; size = 4
tv955 = -104						; size = 4
tv730 = -100						; size = 4
_missileTeoryRMax$18 = -96				; size = 4
_vc$19 = -92						; size = 4
tv915 = -88						; size = 4
tv689 = -84						; size = 4
tv835 = -80						; size = 4
tv406 = -76						; size = 4
tv808 = -72						; size = 4
tv775 = -68						; size = 4
tv726 = -64						; size = 4
_irSigTDBP$ = -60					; size = 4
tv656 = -56						; size = 4
_overtake$20 = -52					; size = 4
_missileteoryMaxTof$21 = -48				; size = 4
_cw$ = -44						; size = 4
_theRadar$ = -40					; size = 4
_playerAC$ = -36					; size = 4
_aim9Vol$22 = -32					; size = 4
_bCageSound$ = -25					; size = 1
_curTarget$ = -24					; size = 4
_aim9Pitch$23 = -20					; size = 4
_IsCAP$24 = -13						; size = 1
_irSig$ = -12						; size = 4
_theMissile$ = -8					; size = 4
_this$ = -4						; size = 4
?AirAirMode@FireControlComputer@@AAEXXZ PROC		; FireControlComputer::AirAirMode
; _this$ = ecx

; 29   : {

	push	ebp
	mov	ebp, esp
	sub	esp, 424				; 000001a8H
	push	esi
	mov	DWORD PTR _this$[ebp], ecx

; 30   : 	MissileClass* theMissile;
; 31   : 	float irSig;
; 32   : 	SimObjectType* curTarget;
; 33   : 	RadarClass* theRadar = (RadarClass*)FindSensor(platform, SensorClass::Radar);

	push	1
	mov	eax, DWORD PTR _this$[ebp]
	mov	ecx, DWORD PTR [eax+140]
	push	ecx
	call	?FindSensor@@YAPAVSensorClass@@PAVSimMoverClass@@H@Z ; FindSensor
	add	esp, 8
	mov	DWORD PTR _theRadar$[ebp], eax

; 34   : 	static float lastIrSig = 0.0F;
; 35   : 	static const float MISSILE_ALTITUDE_BONUS = 24.0f;//me123 addet and in missmain.cpp
; 36   : 	static bool bElReversed = false; // Marco - is diamond for aim9 uncaged reversed movement in HUD?
; 37   : 	static bool bAzReversed = false;
; 38   : 	// Marco - set if there is a target under the diamond but missile slave/caged and radar not locked up
; 39   : 	bool bCageSound = false ; 

	mov	BYTE PTR _bCageSound$[ebp], 0

; 40   : 	float irSigTDBP = 0.0F ;	// Marco - storage for irSig

	movss	xmm0, DWORD PTR __real@00000000
	movss	DWORD PTR _irSigTDBP$[ebp], xmm0

; 41   : 	AircraftClass *playerAC = SimDriver.GetPlayerAircraft();

	mov	ecx, OFFSET ?SimDriver@@3VSimulationDriver@@A ; SimDriver
	call	?GetPlayerAircraft@SimulationDriver@@QBEPAVAircraftClass@@XZ ; SimulationDriver::GetPlayerAircraft
	mov	DWORD PTR _playerAC$[ebp], eax

; 42   : 
; 43   : 	if (!(Sms->curWeaponType == wtAim120 || Sms->curWeaponType ==wtAim9)) return;//me123

	mov	edx, DWORD PTR _this$[ebp]
	mov	eax, DWORD PTR [edx+408]
	cmp	DWORD PTR [eax+148], 2
	je	SHORT $LN129@AirAirMode
	mov	ecx, DWORD PTR _this$[ebp]
	mov	edx, DWORD PTR [ecx+408]
	cmp	DWORD PTR [edx+148], 1
	je	SHORT $LN129@AirAirMode
	jmp	$LN130@AirAirMode
$LN129@AirAirMode:

; 44   : 
; 45   : 	SimWeaponClass *cw = Sms->GetCurrentWeapon();

	mov	eax, DWORD PTR _this$[ebp]
	mov	ecx, DWORD PTR [eax+408]
	mov	edx, DWORD PTR _this$[ebp]
	mov	eax, DWORD PTR [ecx]
	mov	ecx, DWORD PTR [edx+408]
	mov	edx, DWORD PTR [eax+12]
	call	edx
	mov	DWORD PTR _cw$[ebp], eax

; 46   : 	if (cw){

	cmp	DWORD PTR _cw$[ebp], 0
	je	$LN128@AirAirMode

; 47   : 		theMissile = static_cast<MissileClass *>(cw);

	mov	eax, DWORD PTR _cw$[ebp]
	mov	DWORD PTR _theMissile$[ebp], eax

; 48   : 		if (theMissile->launchState == MissileClass::PreLaunch){

	mov	ecx, DWORD PTR _theMissile$[ebp]
	cmp	DWORD PTR [ecx+724], 0
	jne	$LN127@AirAirMode

; 49   : 			theMissile->SetPosition(platform->XPos(), platform->YPos(), platform->ZPos());

	mov	edx, DWORD PTR _this$[ebp]
	mov	ecx, DWORD PTR [edx+140]
	call	?ZPos@VuEntity@@QBEMXZ			; VuEntity::ZPos
	push	ecx
	fstp	DWORD PTR [esp]
	mov	eax, DWORD PTR _this$[ebp]
	mov	ecx, DWORD PTR [eax+140]
	call	?YPos@VuEntity@@QBEMXZ			; VuEntity::YPos
	push	ecx
	fstp	DWORD PTR [esp]
	mov	ecx, DWORD PTR _this$[ebp]
	mov	ecx, DWORD PTR [ecx+140]
	call	?XPos@VuEntity@@QBEMXZ			; VuEntity::XPos
	push	ecx
	fstp	DWORD PTR [esp]
	mov	ecx, DWORD PTR _theMissile$[ebp]
	call	?SetPosition@VuEntity@@QAEXMMM@Z	; VuEntity::SetPosition

; 50   : 			
; 51   : 			// Draw the DLZ
; 52   : 			if (targetPtr){

	mov	edx, DWORD PTR _this$[ebp]
	cmp	DWORD PTR [edx+132], 0
	je	$LN126@AirAirMode

; 53   : 				if (theRadar){

	cmp	DWORD PTR _theRadar$[ebp], 0
	je	SHORT $LN125@AirAirMode

; 54   : 					if (targetPtr->localData->range < 4.5F * NM_TO_FT)

	mov	eax, DWORD PTR _this$[ebp]
	mov	ecx, DWORD PTR [eax+132]
	mov	edx, DWORD PTR [ecx+12]
	movss	xmm0, DWORD PTR __real@46d59de6
	comiss	xmm0, DWORD PTR [edx+44]
	jbe	SHORT $LN124@AirAirMode

; 55   : 						missileWEZDisplayRange = 5.0F * NM_TO_FT;

	mov	eax, DWORD PTR _this$[ebp]
	movss	xmm0, DWORD PTR __real@46ed5a1c
	movss	DWORD PTR [eax+312], xmm0
	jmp	SHORT $LN122@AirAirMode
$LN124@AirAirMode:

; 56   : 					else if (targetPtr->localData->range > 4.75F * NM_TO_FT) 

	mov	ecx, DWORD PTR _this$[ebp]
	mov	edx, DWORD PTR [ecx+132]
	mov	eax, DWORD PTR [edx+12]
	movss	xmm0, DWORD PTR [eax+44]
	comiss	xmm0, DWORD PTR __real@46e17c01
	jbe	SHORT $LN122@AirAirMode

; 57   : 						missileWEZDisplayRange = theRadar->GetRange() * NM_TO_FT;

	mov	ecx, DWORD PTR _theRadar$[ebp]
	mov	edx, DWORD PTR [ecx]
	mov	ecx, DWORD PTR _theRadar$[ebp]
	mov	eax, DWORD PTR [edx+196]
	call	eax
	fstp	DWORD PTR tv1905[ebp]
	movss	xmm0, DWORD PTR tv1905[ebp]
	mulss	xmm0, DWORD PTR __real@45bde1b0
	mov	ecx, DWORD PTR _this$[ebp]
	movss	DWORD PTR [ecx+312], xmm0
$LN122@AirAirMode:

; 58   : 				}
; 59   : 				else

	jmp	SHORT $LN121@AirAirMode
$LN125@AirAirMode:

; 60   : 					missileWEZDisplayRange = 20.0F * NM_TO_FT;

	mov	edx, DWORD PTR _this$[ebp]
	movss	xmm0, DWORD PTR __real@47ed5a1c
	movss	DWORD PTR [edx+312], xmm0
$LN121@AirAirMode:

; 61   : 			}
; 62   : 			else {

	jmp	SHORT $LN118@AirAirMode
$LN126@AirAirMode:

; 63   : 				if (theRadar){

	cmp	DWORD PTR _theRadar$[ebp], 0
	je	SHORT $LN119@AirAirMode

; 64   : 					missileWEZDisplayRange = theRadar->GetRange() * NM_TO_FT;

	mov	eax, DWORD PTR _theRadar$[ebp]
	mov	edx, DWORD PTR [eax]
	mov	ecx, DWORD PTR _theRadar$[ebp]
	mov	eax, DWORD PTR [edx+196]
	call	eax
	fstp	DWORD PTR tv1914[ebp]
	movss	xmm0, DWORD PTR tv1914[ebp]
	mulss	xmm0, DWORD PTR __real@45bde1b0
	mov	ecx, DWORD PTR _this$[ebp]
	movss	DWORD PTR [ecx+312], xmm0

; 65   : 				}
; 66   : 				else {

	jmp	SHORT $LN118@AirAirMode
$LN119@AirAirMode:

; 67   : 					missileWEZDisplayRange = 20.0F * NM_TO_FT;

	mov	edx, DWORD PTR _this$[ebp]
	movss	xmm0, DWORD PTR __real@47ed5a1c
	movss	DWORD PTR [edx+312], xmm0
$LN118@AirAirMode:

; 68   : 				}
; 69   : 			}
; 70   : 			
; 71   : 			// Marco Edit - Slave/Bore Mode
; 72   : 			if(missileSlaveCmd){

	mov	eax, DWORD PTR _this$[ebp]
	movsx	ecx, BYTE PTR [eax+189]
	test	ecx, ecx
	je	SHORT $LN117@AirAirMode

; 73   : 				theMissile->isSlave = 1 - theMissile->isSlave;

	mov	edx, DWORD PTR _theMissile$[ebp]
	mov	eax, 1
	sub	eax, DWORD PTR [edx+736]
	mov	ecx, DWORD PTR _theMissile$[ebp]
	mov	DWORD PTR [ecx+736], eax

; 74   : 				missileSlaveCmd = FALSE;

	mov	edx, DWORD PTR _this$[ebp]
	mov	BYTE PTR [edx+189], 0
$LN117@AirAirMode:

; 75   : 			}
; 76   : 			// Marco Edit - AIM9 Spot/Scan
; 77   : 			if (
; 78   : 				Sms->curWeaponType == wtAim9 && missileSpotScanCmd && 
; 79   : 				cw->GetSPType() != SPTYPE_AIM9P
; 80   : 			){

	mov	eax, DWORD PTR _this$[ebp]
	mov	ecx, DWORD PTR [eax+408]
	cmp	DWORD PTR [ecx+148], 1
	jne	SHORT $LN116@AirAirMode
	mov	edx, DWORD PTR _this$[ebp]
	movsx	eax, BYTE PTR [edx+188]
	test	eax, eax
	je	SHORT $LN116@AirAirMode
	mov	ecx, DWORD PTR _cw$[ebp]
	call	?GetSPType@SimBaseClass@@QBEEXZ		; SimBaseClass::GetSPType
	movzx	ecx, al
	cmp	ecx, 17					; 00000011H
	je	SHORT $LN116@AirAirMode

; 81   : 				theMissile->isSpot = 1 - theMissile->isSpot;

	mov	edx, DWORD PTR _theMissile$[ebp]
	mov	eax, 1
	sub	eax, DWORD PTR [edx+732]
	mov	ecx, DWORD PTR _theMissile$[ebp]
	mov	DWORD PTR [ecx+732], eax

; 82   : 				if (!theMissile->isSpot){

	mov	edx, DWORD PTR _theMissile$[ebp]
	cmp	DWORD PTR [edx+732], 0
	jne	SHORT $LN115@AirAirMode

; 83   : 					missileSeekerAz = 0.00f;

	mov	eax, DWORD PTR _this$[ebp]
	movss	xmm0, DWORD PTR __real@00000000
	movss	DWORD PTR [eax+304], xmm0

; 84   : 					missileSeekerEl = -0.06f;

	mov	ecx, DWORD PTR _this$[ebp]
	movss	xmm0, DWORD PTR __real@bd75c28f
	movss	DWORD PTR [ecx+308], xmm0
$LN115@AirAirMode:

; 85   : 				}
; 86   : 				missileSpotScanCmd = FALSE;

	mov	edx, DWORD PTR _this$[ebp]
	mov	BYTE PTR [edx+188], 0
$LN116@AirAirMode:

; 87   : 			}
; 88   : 
; 89   : 			// Marco Edit - AIM9 Cage/Uncaged
; 90   : 			if (Sms->curWeaponType == wtAim9 && missileCageCmd)

	mov	eax, DWORD PTR _this$[ebp]
	mov	ecx, DWORD PTR [eax+408]
	cmp	DWORD PTR [ecx+148], 1
	jne	SHORT $LN114@AirAirMode
	mov	edx, DWORD PTR _this$[ebp]
	movsx	eax, BYTE PTR [edx+187]
	test	eax, eax
	je	SHORT $LN114@AirAirMode

; 91   : 			{
; 92   : 				theMissile->isCaged = 1 - theMissile->isCaged;

	mov	ecx, DWORD PTR _theMissile$[ebp]
	mov	edx, 1
	sub	edx, DWORD PTR [ecx+728]
	mov	eax, DWORD PTR _theMissile$[ebp]
	mov	DWORD PTR [eax+728], edx

; 93   : 				missileCageCmd = FALSE;

	mov	ecx, DWORD PTR _this$[ebp]
	mov	BYTE PTR [ecx+187], 0
$LN114@AirAirMode:

; 94   : 			}
; 95   : 			// Marco Edit - AIM9 Auto Uncage
; 96   : 			if (Sms->curWeaponType == wtAim9 && missileTDBPCmd)

	mov	edx, DWORD PTR _this$[ebp]
	mov	eax, DWORD PTR [edx+408]
	cmp	DWORD PTR [eax+148], 1
	jne	SHORT $LN113@AirAirMode
	mov	ecx, DWORD PTR _this$[ebp]
	movsx	edx, BYTE PTR [ecx+190]
	test	edx, edx
	je	SHORT $LN113@AirAirMode

; 97   : 			{
; 98   : 				theMissile->isTD = 1 - theMissile->isTD;

	mov	eax, DWORD PTR _theMissile$[ebp]
	mov	ecx, 1
	sub	ecx, DWORD PTR [eax+740]
	mov	edx, DWORD PTR _theMissile$[ebp]
	mov	DWORD PTR [edx+740], ecx

; 99   : 				missileTDBPCmd = FALSE;

	mov	eax, DWORD PTR _this$[ebp]
	mov	BYTE PTR [eax+190], 0
$LN113@AirAirMode:

; 100  : 			}
; 101  : 
; 102  : 			//MI 02/02/02 make sure we don't get an "unallowed" mode for the P's
; 103  : 			if (Sms->curWeaponType == wtAim9 && cw->GetSPType() == SPTYPE_AIM9P)

	mov	ecx, DWORD PTR _this$[ebp]
	mov	edx, DWORD PTR [ecx+408]
	cmp	DWORD PTR [edx+148], 1
	jne	SHORT $LN109@AirAirMode
	mov	ecx, DWORD PTR _cw$[ebp]
	call	?GetSPType@SimBaseClass@@QBEEXZ		; SimBaseClass::GetSPType
	movzx	eax, al
	cmp	eax, 17					; 00000011H
	jne	SHORT $LN109@AirAirMode

; 104  : 			{
; 105  : 				if(!theMissile->isSpot)

	mov	ecx, DWORD PTR _theMissile$[ebp]
	cmp	DWORD PTR [ecx+732], 0
	jne	SHORT $LN111@AirAirMode

; 106  : 					theMissile->isSpot = TRUE;

	mov	edx, DWORD PTR _theMissile$[ebp]
	mov	DWORD PTR [edx+732], 1
$LN111@AirAirMode:

; 107  : 				if(!theMissile->isSlave)

	mov	eax, DWORD PTR _theMissile$[ebp]
	cmp	DWORD PTR [eax+736], 0
	jne	SHORT $LN110@AirAirMode

; 108  : 					theMissile->isSlave = TRUE;

	mov	ecx, DWORD PTR _theMissile$[ebp]
	mov	DWORD PTR [ecx+736], 1
$LN110@AirAirMode:

; 109  : 				if(theMissile->isTD)

	mov	edx, DWORD PTR _theMissile$[ebp]
	cmp	DWORD PTR [edx+740], 0
	je	SHORT $LN109@AirAirMode

; 110  : 					theMissile->isTD = FALSE;

	mov	eax, DWORD PTR _theMissile$[ebp]
	mov	DWORD PTR [eax+740], 0
$LN109@AirAirMode:

; 111  : 			}
; 112  : 			
; 113  : 			if (
; 114  : 				(subMode == Aim9 || mrmSubMode == Aim9 || masterMode == Dogfight ) && 
; 115  : 				Sms->curWeaponType == wtAim9
; 116  : 			){

	mov	ecx, DWORD PTR _this$[ebp]
	cmp	DWORD PTR [ecx+148], 5
	je	SHORT $LN107@AirAirMode
	mov	edx, DWORD PTR _this$[ebp]
	cmp	DWORD PTR [edx+156], 5
	je	SHORT $LN107@AirAirMode
	mov	eax, DWORD PTR _this$[ebp]
	cmp	DWORD PTR [eax+144], 9
	jne	$LN108@AirAirMode
$LN107@AirAirMode:
	mov	ecx, DWORD PTR _this$[ebp]
	mov	edx, DWORD PTR [ecx+408]
	cmp	DWORD PTR [edx+148], 1
	jne	$LN108@AirAirMode

; 117  : 				// ASSOCIATOR: Added mrmSubMode
; 118  : 				// If slave failure, force boresight
; 119  : 				if (playerFCC && ((AircraftClass*)platform)->mFaults->GetFault(FaultClass::msl_fault)){

	mov	eax, DWORD PTR _this$[ebp]
	cmp	DWORD PTR [eax+92], 0
	je	SHORT $LN106@AirAirMode
	push	23					; 00000017H
	mov	ecx, DWORD PTR _this$[ebp]
	mov	edx, DWORD PTR [ecx+140]
	mov	ecx, DWORD PTR [edx+928]
	call	?GetFault@FackClass@@QAEHW4type_FSubSystem@FaultClass@@@Z ; FackClass::GetFault
	test	eax, eax
	je	SHORT $LN106@AirAirMode

; 120  : 					theMissile->isSlave = FALSE;

	mov	eax, DWORD PTR _theMissile$[ebp]
	mov	DWORD PTR [eax+736], 0
$LN106@AirAirMode:

; 121  : 				}
; 122  : 				
; 123  : 				// Marco Edit - rewritten the sidewinder header stuff
; 124  : 				// to support spot/scan, cage/uncage, slav/bore
; 125  : 				
; 126  : 				// First off - if uncaged with a target then
; 127  : 				// track it
; 128  : 
; 129  : 				// 2001-01-31 MODIFIED BY S.G. SO IN HMS PLANE, 
; 130  : 				// UNCAGED IR MISSILE DOESN'T GO FIND A TARGET BY THEMSELF.
; 131  : 				// THIS IS FOUND BY QUERYING BIT 20000000 
; 132  : 				// OF Flags OF THE VEHICLE. A 1 THERE MEANS THIS VEHICLE IS HMS EQUIPPED AND SHOULD SKIP THIS CODE
; 133  : 				VehicleClassDataType	*vc	= 
; 134  : 					(VehicleClassDataType *)Falcon4ClassTable[platform->Type() - VU_LAST_ENTITY_TYPE].dataPtr;

	mov	ecx, DWORD PTR _this$[ebp]
	mov	ecx, DWORD PTR [ecx+140]
	call	?Type@VuEntity@@QBEGXZ			; VuEntity::Type
	movzx	edx, ax
	sub	edx, 100				; 00000064H
	imul	edx, 81					; 00000051H
	mov	eax, DWORD PTR ?Falcon4ClassTable@@3PAUFalcon4EntityClassType@@A ; Falcon4ClassTable
	mov	ecx, DWORD PTR [eax+edx+77]
	mov	DWORD PTR _vc$19[ebp], ecx

; 135  : 				if (!playerFCC || ( // don't do this check for ai
; 136  : 					vc && (!(vc->Flags & 0x20000000) || 
; 137  : 					// JB 010712 Normal behavior for the 2d cockpit
; 138  : 					OTWDriver.GetOTWDisplayMode() == OTWDriverClass::Mode2DCockpit) && 
; 139  : 					!theMissile->isCaged)
; 140  : 				){

	mov	edx, DWORD PTR _this$[ebp]
	cmp	DWORD PTR [edx+92], 0
	je	SHORT $LN104@AirAirMode
	cmp	DWORD PTR _vc$19[ebp], 0
	je	$LN97@AirAirMode
	mov	eax, DWORD PTR _vc$19[ebp]
	mov	ecx, DWORD PTR [eax+4]
	and	ecx, 536870912				; 20000000H
	je	SHORT $LN103@AirAirMode
	mov	ecx, OFFSET ?OTWDriver@@3VOTWDriverClass@@A ; OTWDriver
	call	?GetOTWDisplayMode@OTWDriverClass@@QAE?AW4OTWDisplayMode@1@XZ ; OTWDriverClass::GetOTWDisplayMode
	cmp	eax, 2
	jne	$LN97@AirAirMode
$LN103@AirAirMode:
	mov	edx, DWORD PTR _theMissile$[ebp]
	cmp	DWORD PTR [edx+728], 0
	jne	$LN97@AirAirMode
$LN104@AirAirMode:

; 141  : 					// We don't have a target so find one
; 142  : 					if (!theMissile->targetPtr){

	mov	eax, DWORD PTR _theMissile$[ebp]
	cmp	DWORD PTR [eax+656], 0
	jne	$LN102@AirAirMode

; 143  : 						theMissile->SetSeekerPos (&missileSeekerAz, &missileSeekerEl);

	mov	ecx, DWORD PTR _this$[ebp]
	add	ecx, 308				; 00000134H
	push	ecx
	mov	edx, DWORD PTR _this$[ebp]
	add	edx, 304				; 00000130H
	push	edx
	mov	ecx, DWORD PTR _theMissile$[ebp]
	call	?SetSeekerPos@MissileClass@@QAEHPAM0@Z	; MissileClass::SetSeekerPos

; 144  : 						curTarget = targetList;

	mov	eax, DWORD PTR _this$[ebp]
	mov	ecx, DWORD PTR [eax+136]
	mov	DWORD PTR _curTarget$[ebp], ecx
$LN101@AirAirMode:

; 145  : 						while (curTarget)

	cmp	DWORD PTR _curTarget$[ebp], 0
	je	SHORT $LN100@AirAirMode

; 146  : 						{
; 147  : 							if (curTarget->BaseData()->IsSim() &&
; 148  : 								!curTarget->BaseData()->IsWeapon())

	mov	ecx, DWORD PTR _curTarget$[ebp]
	call	?BaseData@SimObjectType@@QAEPAVFalconEntity@@XZ ; SimObjectType::BaseData
	mov	ecx, eax
	call	?IsSim@FalconEntity@@QAEHXZ		; FalconEntity::IsSim
	test	eax, eax
	je	SHORT $LN98@AirAirMode
	mov	ecx, DWORD PTR _curTarget$[ebp]
	call	?BaseData@SimObjectType@@QAEPAVFalconEntity@@XZ ; SimObjectType::BaseData
	mov	DWORD PTR tv327[ebp], eax
	mov	edx, DWORD PTR tv327[ebp]
	mov	eax, DWORD PTR [edx]
	mov	ecx, DWORD PTR tv327[ebp]
	mov	edx, DWORD PTR [eax+204]
	call	edx
	test	eax, eax
	jne	SHORT $LN98@AirAirMode

; 149  : 							{
; 150  : 								theMissile->SetTarget(curTarget);

	mov	eax, DWORD PTR _curTarget$[ebp]
	push	eax
	mov	ecx, DWORD PTR _theMissile$[ebp]
	call	?SetTarget@MissileClass@@QAEXPAVSimObjectType@@@Z ; MissileClass::SetTarget

; 151  : 								theMissile->RunSeeker();

	mov	ecx, DWORD PTR _theMissile$[ebp]
	call	?RunSeeker@MissileClass@@QAEXXZ		; MissileClass::RunSeeker

; 152  : 								if (theMissile->targetPtr)

	mov	ecx, DWORD PTR _theMissile$[ebp]
	cmp	DWORD PTR [ecx+656], 0
	je	SHORT $LN98@AirAirMode

; 153  : 								{
; 154  : 									break;

	jmp	SHORT $LN100@AirAirMode
$LN98@AirAirMode:

; 155  : 								}
; 156  : 							}
; 157  : 							curTarget = curTarget->next;

	mov	edx, DWORD PTR _curTarget$[ebp]
	mov	eax, DWORD PTR [edx+16]
	mov	DWORD PTR _curTarget$[ebp], eax

; 158  : 						}

	jmp	SHORT $LN101@AirAirMode
$LN100@AirAirMode:

; 159  : 					}
; 160  : 					else

	jmp	SHORT $LN97@AirAirMode
$LN102@AirAirMode:

; 161  : 					// We have a target so track it
; 162  : 					{
; 163  : 						theMissile->SetSeekerPos (&theMissile->targetPtr->localData->az, &theMissile->targetPtr->localData->el);

	mov	ecx, DWORD PTR _theMissile$[ebp]
	mov	edx, DWORD PTR [ecx+656]
	mov	eax, DWORD PTR [edx+12]
	add	eax, 28					; 0000001cH
	push	eax
	mov	ecx, DWORD PTR _theMissile$[ebp]
	mov	edx, DWORD PTR [ecx+656]
	mov	eax, DWORD PTR [edx+12]
	add	eax, 16					; 00000010H
	push	eax
	mov	ecx, DWORD PTR _theMissile$[ebp]
	call	?SetSeekerPos@MissileClass@@QAEHPAM0@Z	; MissileClass::SetSeekerPos

; 164  : 						theMissile->RunSeeker();

	mov	ecx, DWORD PTR _theMissile$[ebp]
	call	?RunSeeker@MissileClass@@QAEXXZ		; MissileClass::RunSeeker
$LN97@AirAirMode:

; 165  : 					}
; 166  : 				}
; 167  : 				
; 168  : 				// Missile is Caged so bore/slave becomes important
; 169  : 				if (theMissile->isCaged)

	mov	ecx, DWORD PTR _theMissile$[ebp]
	cmp	DWORD PTR [ecx+728], 0
	je	$LN84@AirAirMode

; 170  : 				{
; 171  : 					// First, drop the current target
; 172  : 					if (theMissile->targetPtr)

	mov	edx, DWORD PTR _theMissile$[ebp]
	cmp	DWORD PTR [edx+656], 0
	je	SHORT $LN95@AirAirMode

; 173  : 						theMissile->DropTarget();

	mov	ecx, DWORD PTR _theMissile$[ebp]
	call	?DropTarget@MissileClass@@QAEXXZ	; MissileClass::DropTarget
$LN95@AirAirMode:

; 174  : 
; 175  : 					// Deal if we have both a radar tgt and missile is slaved to radar
; 176  : // M.N. 2001-12-13 fix - we didn't run the seeker, which didn't update the irSignature, which didn't give us a release consent from the FCC
; 177  : 					if (targetPtr && theMissile->isSlave)

	mov	eax, DWORD PTR _this$[ebp]
	cmp	DWORD PTR [eax+132], 0
	je	SHORT $LN94@AirAirMode
	mov	ecx, DWORD PTR _theMissile$[ebp]
	cmp	DWORD PTR [ecx+736], 0
	je	SHORT $LN94@AirAirMode

; 178  : 					{
; 179  : 						theMissile->SetTarget(targetPtr);

	mov	edx, DWORD PTR _this$[ebp]
	mov	eax, DWORD PTR [edx+132]
	push	eax
	mov	ecx, DWORD PTR _theMissile$[ebp]
	call	?SetTarget@MissileClass@@QAEXPAVSimObjectType@@@Z ; MissileClass::SetTarget

; 180  : 						theMissile->SetSeekerPos (&theMissile->targetPtr->localData->az, &theMissile->targetPtr->localData->el);

	mov	ecx, DWORD PTR _theMissile$[ebp]
	mov	edx, DWORD PTR [ecx+656]
	mov	eax, DWORD PTR [edx+12]
	add	eax, 28					; 0000001cH
	push	eax
	mov	ecx, DWORD PTR _theMissile$[ebp]
	mov	edx, DWORD PTR [ecx+656]
	mov	eax, DWORD PTR [edx+12]
	add	eax, 16					; 00000010H
	push	eax
	mov	ecx, DWORD PTR _theMissile$[ebp]
	call	?SetSeekerPos@MissileClass@@QAEHPAM0@Z	; MissileClass::SetSeekerPos

; 181  : 						theMissile->RunSeeker();	// We still need to run the seeker even if slaved to radar ! How to get new irSig otherwise ??

	mov	ecx, DWORD PTR _theMissile$[ebp]
	call	?RunSeeker@MissileClass@@QAEXXZ		; MissileClass::RunSeeker

; 182  : /*** old code				irSig = targetPtr->localData->irSignature;
; 183  : 						theMissile->SetTarget(targetPtr);
; 184  : 						targetPtr->localData->irSignature = irSig;
; 185  : 						theMissile->SetSeekerPos (&theMissile->targetPtr->localData->az, &theMissile->targetPtr->localData->el);*/
; 186  : 					}
; 187  : 					else

	jmp	$LN84@AirAirMode
$LN94@AirAirMode:

; 188  : 					{
; 189  : 						// Here either we don't care about the actual target
; 190  : 						// or we are caged and won't 'lock' on to it
; 191  : 						float oldAz = missileSeekerAz;

	mov	ecx, DWORD PTR _this$[ebp]
	movss	xmm0, DWORD PTR [ecx+304]
	movss	DWORD PTR _oldAz$6[ebp], xmm0

; 192  : 						float oldEl = missileSeekerEl;

	mov	edx, DWORD PTR _this$[ebp]
	movss	xmm0, DWORD PTR [edx+308]
	movss	DWORD PTR _oldEl$11[ebp], xmm0

; 193  : 						curTarget = targetList;

	mov	eax, DWORD PTR _this$[ebp]
	mov	ecx, DWORD PTR [eax+136]
	mov	DWORD PTR _curTarget$[ebp], ecx
$LN92@AirAirMode:

; 194  : 						while (curTarget)

	cmp	DWORD PTR _curTarget$[ebp], 0
	je	$LN91@AirAirMode

; 195  : 						{
; 196  : 							if (curTarget->BaseData()->IsSim() && !curTarget->BaseData()->IsWeapon())

	mov	ecx, DWORD PTR _curTarget$[ebp]
	call	?BaseData@SimObjectType@@QAEPAVFalconEntity@@XZ ; SimObjectType::BaseData
	mov	ecx, eax
	call	?IsSim@FalconEntity@@QAEHXZ		; FalconEntity::IsSim
	test	eax, eax
	je	$LN87@AirAirMode
	mov	ecx, DWORD PTR _curTarget$[ebp]
	call	?BaseData@SimObjectType@@QAEPAVFalconEntity@@XZ ; SimObjectType::BaseData
	mov	DWORD PTR tv406[ebp], eax
	mov	edx, DWORD PTR tv406[ebp]
	mov	eax, DWORD PTR [edx]
	mov	ecx, DWORD PTR tv406[ebp]
	mov	edx, DWORD PTR [eax+204]
	call	edx
	test	eax, eax
	jne	$LN87@AirAirMode

; 197  : 							{
; 198  : 								theMissile->SetTarget(curTarget);

	mov	eax, DWORD PTR _curTarget$[ebp]
	push	eax
	mov	ecx, DWORD PTR _theMissile$[ebp]
	call	?SetTarget@MissileClass@@QAEXPAVSimObjectType@@@Z ; MissileClass::SetTarget

; 199  : 								theMissile->RunSeeker();

	mov	ecx, DWORD PTR _theMissile$[ebp]
	call	?RunSeeker@MissileClass@@QAEXXZ		; MissileClass::RunSeeker

; 200  : 								theMissile->SetSeekerPos (&oldAz, &oldEl);// reset the seeker

	lea	ecx, DWORD PTR _oldEl$11[ebp]
	push	ecx
	lea	edx, DWORD PTR _oldAz$6[ebp]
	push	edx
	mov	ecx, DWORD PTR _theMissile$[ebp]
	call	?SetSeekerPos@MissileClass@@QAEHPAM0@Z	; MissileClass::SetSeekerPos

; 201  : 								if (theMissile->targetPtr)

	mov	eax, DWORD PTR _theMissile$[ebp]
	cmp	DWORD PTR [eax+656], 0
	je	$LN87@AirAirMode

; 202  : 								{
; 203  : 									// We assume we have an IRST seeker - so check if it's near the diamond
; 204  : 									// if (theMissile->targetPtr->localData->ata < 1.0 * DTR)
; 205  : 									//IrstClass*  Irst = (IrstClass *)theMissile->sensorArray[0];
; 206  : 	
; 207  : 									if (theMissile->isSpot && fabs(theMissile->targetPtr->localData->el - missileSeekerEl) <  0.03f && 
; 208  : 										fabs(theMissile->targetPtr->localData->az - missileSeekerAz) <  0.03f ) 

	mov	ecx, DWORD PTR _theMissile$[ebp]
	cmp	DWORD PTR [ecx+732], 0
	je	$LN88@AirAirMode
	mov	edx, DWORD PTR _theMissile$[ebp]
	mov	eax, DWORD PTR [edx+656]
	mov	ecx, DWORD PTR [eax+12]
	mov	edx, DWORD PTR _this$[ebp]
	movss	xmm0, DWORD PTR [ecx+28]
	subss	xmm0, DWORD PTR [edx+308]
	push	ecx
	movss	DWORD PTR [esp], xmm0
	call	?fabs@@YAMM@Z				; fabs
	add	esp, 4
	fstp	DWORD PTR tv2021[ebp]
	movss	xmm0, DWORD PTR __real@3cf5c28f
	comiss	xmm0, DWORD PTR tv2021[ebp]
	jbe	SHORT $LN88@AirAirMode
	mov	eax, DWORD PTR _theMissile$[ebp]
	mov	ecx, DWORD PTR [eax+656]
	mov	edx, DWORD PTR [ecx+12]
	mov	eax, DWORD PTR _this$[ebp]
	movss	xmm0, DWORD PTR [edx+16]
	subss	xmm0, DWORD PTR [eax+304]
	push	ecx
	movss	DWORD PTR [esp], xmm0
	call	?fabs@@YAMM@Z				; fabs
	add	esp, 4
	fstp	DWORD PTR tv2030[ebp]
	movss	xmm0, DWORD PTR __real@3cf5c28f
	comiss	xmm0, DWORD PTR tv2030[ebp]
	jbe	SHORT $LN88@AirAirMode

; 209  : 									{
; 210  : 										// nb. Exec checks LOS and stuff like that
; 211  : 										break;

	jmp	$LN91@AirAirMode
$LN88@AirAirMode:

; 212  : 									}
; 213  : 									if (!theMissile->isSpot && fabs(theMissile->targetPtr->localData->el - missileSeekerEl) <  0.06f && 
; 214  : 										fabs(theMissile->targetPtr->localData->az - missileSeekerAz) <  0.06f ) 

	mov	ecx, DWORD PTR _theMissile$[ebp]
	cmp	DWORD PTR [ecx+732], 0
	jne	$LN87@AirAirMode
	mov	edx, DWORD PTR _theMissile$[ebp]
	mov	eax, DWORD PTR [edx+656]
	mov	ecx, DWORD PTR [eax+12]
	mov	edx, DWORD PTR _this$[ebp]
	movss	xmm0, DWORD PTR [ecx+28]
	subss	xmm0, DWORD PTR [edx+308]
	push	ecx
	movss	DWORD PTR [esp], xmm0
	call	?fabs@@YAMM@Z				; fabs
	add	esp, 4
	fstp	DWORD PTR tv2040[ebp]
	movss	xmm0, DWORD PTR __real@3d75c28f
	comiss	xmm0, DWORD PTR tv2040[ebp]
	jbe	SHORT $LN87@AirAirMode
	mov	eax, DWORD PTR _theMissile$[ebp]
	mov	ecx, DWORD PTR [eax+656]
	mov	edx, DWORD PTR [ecx+12]
	mov	eax, DWORD PTR _this$[ebp]
	movss	xmm0, DWORD PTR [edx+16]
	subss	xmm0, DWORD PTR [eax+304]
	push	ecx
	movss	DWORD PTR [esp], xmm0
	call	?fabs@@YAMM@Z				; fabs
	add	esp, 4
	fstp	DWORD PTR tv2049[ebp]
	movss	xmm0, DWORD PTR __real@3d75c28f
	comiss	xmm0, DWORD PTR tv2049[ebp]
	jbe	SHORT $LN87@AirAirMode

; 215  : 									{
; 216  : 										break;

	jmp	SHORT $LN91@AirAirMode
$LN87@AirAirMode:

; 217  : 									}
; 218  : 								}
; 219  : 							}
; 220  : 							curTarget = curTarget->next;

	mov	ecx, DWORD PTR _curTarget$[ebp]
	mov	edx, DWORD PTR [ecx+16]
	mov	DWORD PTR _curTarget$[ebp], edx

; 221  : 						}

	jmp	$LN92@AirAirMode
$LN91@AirAirMode:

; 222  : 						// Now get the IR Signature for the sound
; 223  : 						if (curTarget)

	cmp	DWORD PTR _curTarget$[ebp], 0
	je	$LN86@AirAirMode

; 224  : 						{
; 225  : 							bCageSound = true;

	mov	BYTE PTR _bCageSound$[ebp], 1

; 226  : 							irSig = theMissile->targetPtr->localData->irSignature 
; 227  : 								* ((0.02f - (float)fabs(theMissile->targetPtr->localData->el - missileSeekerEl)) / 0.01f) 
; 228  : 								* ((0.02f - (float)fabs(theMissile->targetPtr->localData->az - missileSeekerAz)) / 0.01f)
; 229  : 								/ 2.0f + 0.75f;

	mov	eax, DWORD PTR _theMissile$[ebp]
	mov	ecx, DWORD PTR [eax+656]
	mov	esi, DWORD PTR [ecx+12]
	mov	edx, DWORD PTR _theMissile$[ebp]
	mov	eax, DWORD PTR [edx+656]
	mov	ecx, DWORD PTR [eax+12]
	mov	edx, DWORD PTR _this$[ebp]
	movss	xmm0, DWORD PTR [ecx+28]
	subss	xmm0, DWORD PTR [edx+308]
	push	ecx
	movss	DWORD PTR [esp], xmm0
	call	?fabs@@YAMM@Z				; fabs
	add	esp, 4
	fstp	DWORD PTR tv2061[ebp]
	movss	xmm0, DWORD PTR __real@3ca3d70a
	subss	xmm0, DWORD PTR tv2061[ebp]
	divss	xmm0, DWORD PTR __real@3c23d70a
	mulss	xmm0, DWORD PTR [esi+220]
	mov	eax, DWORD PTR _theMissile$[ebp]
	mov	ecx, DWORD PTR [eax+656]
	mov	edx, DWORD PTR [ecx+12]
	mov	eax, DWORD PTR _this$[ebp]
	movss	xmm1, DWORD PTR [edx+16]
	subss	xmm1, DWORD PTR [eax+304]
	push	ecx
	movss	DWORD PTR [esp], xmm1
	movss	DWORD PTR tv2825[ebp], xmm0
	call	?fabs@@YAMM@Z				; fabs
	add	esp, 4
	fstp	DWORD PTR tv2071[ebp]
	movss	xmm0, DWORD PTR __real@3ca3d70a
	subss	xmm0, DWORD PTR tv2071[ebp]
	divss	xmm0, DWORD PTR __real@3c23d70a
	movss	xmm1, DWORD PTR tv2825[ebp]
	mulss	xmm1, xmm0
	divss	xmm1, DWORD PTR __real@40000000
	addss	xmm1, DWORD PTR __real@3f400000
	movss	DWORD PTR _irSig$[ebp], xmm1

; 230  : 							
; 231  : //							missileSeekerAz = theMissile->targetPtr->localData->az;
; 232  : //							missileSeekerEl = theMissile->targetPtr->localData->el;
; 233  : //							theMissile->SetSeekerPos (&missileSeekerAz, &missileSeekerEl);
; 234  : 						}
; 235  : 						else

	jmp	SHORT $LN84@AirAirMode
$LN86@AirAirMode:

; 236  : 						{
; 237  : 							if (theMissile->targetPtr)

	mov	ecx, DWORD PTR _theMissile$[ebp]
	cmp	DWORD PTR [ecx+656], 0
	je	SHORT $LN84@AirAirMode

; 238  : 								theMissile->DropTarget();

	mov	ecx, DWORD PTR _theMissile$[ebp]
	call	?DropTarget@MissileClass@@QAEXXZ	; MissileClass::DropTarget
$LN84@AirAirMode:

; 239  : 						}
; 240  : 					}
; 241  : 
; 242  : 				}
; 243  : 
; 244  : 
; 245  : 
; 246  : 				// Do a check - if seekerhead is not cool then
; 247  : 				// we can't track any target(s)
; 248  : 				//MI 02/02/02 added check for PlayerFCC and or AIM9P
; 249  : 				bool IsCAP = true;

	mov	BYTE PTR _IsCAP$24[ebp], 1

; 250  : 				if (playerAC && playerAC->AutopilotType() != AircraftClass::CombatAP)

	cmp	DWORD PTR _playerAC$[ebp], 0
	je	SHORT $LN83@AirAirMode
	mov	ecx, DWORD PTR _playerAC$[ebp]
	call	?AutopilotType@AircraftClass@@QAE?AW4AutoPilotType@1@XZ ; AircraftClass::AutopilotType
	cmp	eax, 2
	je	SHORT $LN83@AirAirMode

; 251  : 					IsCAP = false;

	mov	BYTE PTR _IsCAP$24[ebp], 0
$LN83@AirAirMode:

; 252  : 				if(playerFCC && !IsCAP 
; 253  : 						&& (Sms->GetCoolState() != SMSClass::COOL && Sms->GetCoolState() != SMSClass::WARMING)
; 254  : 						&& theMissile->targetPtr && Sms->GetCurrentWeapon() && Sms->curWeaponType == wtAim9 
; 255  : 						&& cw->GetSPType() != SPTYPE_AIM9P)

	mov	edx, DWORD PTR _this$[ebp]
	cmp	DWORD PTR [edx+92], 0
	je	$LN82@AirAirMode
	movzx	eax, BYTE PTR _IsCAP$24[ebp]
	test	eax, eax
	jne	$LN82@AirAirMode
	mov	ecx, DWORD PTR _this$[ebp]
	mov	ecx, DWORD PTR [ecx+408]
	call	?GetCoolState@SMSClass@@QAE?AW4Aim9Mode@1@XZ ; SMSClass::GetCoolState
	cmp	eax, 2
	je	SHORT $LN82@AirAirMode
	mov	edx, DWORD PTR _this$[ebp]
	mov	ecx, DWORD PTR [edx+408]
	call	?GetCoolState@SMSClass@@QAE?AW4Aim9Mode@1@XZ ; SMSClass::GetCoolState
	cmp	eax, 3
	je	SHORT $LN82@AirAirMode
	mov	eax, DWORD PTR _theMissile$[ebp]
	cmp	DWORD PTR [eax+656], 0
	je	SHORT $LN82@AirAirMode
	mov	ecx, DWORD PTR _this$[ebp]
	mov	edx, DWORD PTR [ecx+408]
	mov	eax, DWORD PTR _this$[ebp]
	mov	edx, DWORD PTR [edx]
	mov	ecx, DWORD PTR [eax+408]
	mov	eax, DWORD PTR [edx+12]
	call	eax
	test	eax, eax
	je	SHORT $LN82@AirAirMode
	mov	ecx, DWORD PTR _this$[ebp]
	mov	edx, DWORD PTR [ecx+408]
	cmp	DWORD PTR [edx+148], 1
	jne	SHORT $LN82@AirAirMode
	mov	ecx, DWORD PTR _cw$[ebp]
	call	?GetSPType@SimBaseClass@@QBEEXZ		; SimBaseClass::GetSPType
	movzx	eax, al
	cmp	eax, 17					; 00000011H
	je	SHORT $LN82@AirAirMode

; 256  : 				{
; 257  : 					theMissile->DropTarget();

	mov	ecx, DWORD PTR _theMissile$[ebp]
	call	?DropTarget@MissileClass@@QAEXXZ	; MissileClass::DropTarget

; 258  : 					irSig = 0.0;

	movss	xmm0, DWORD PTR __real@00000000
	movss	DWORD PTR _irSig$[ebp], xmm0
$LN82@AirAirMode:

; 259  : 				}
; 260  : 				
; 261  : 				if (theMissile->targetPtr)

	mov	ecx, DWORD PTR _theMissile$[ebp]
	cmp	DWORD PTR [ecx+656], 0
	je	SHORT $LN81@AirAirMode

; 262  : 				{
; 263  : 					irSig = theMissile->targetPtr->localData->irSignature;

	mov	edx, DWORD PTR _theMissile$[ebp]
	mov	eax, DWORD PTR [edx+656]
	mov	ecx, DWORD PTR [eax+12]
	movss	xmm0, DWORD PTR [ecx+220]
	movss	DWORD PTR _irSig$[ebp], xmm0
	jmp	SHORT $LN79@AirAirMode
$LN81@AirAirMode:

; 264  : 				}
; 265  : 				else if (!bCageSound)

	movzx	edx, BYTE PTR _bCageSound$[ebp]
	test	edx, edx
	jne	SHORT $LN79@AirAirMode

; 266  : 				{
; 267  : 					irSig = 0.0f;

	movss	xmm0, DWORD PTR __real@00000000
	movss	DWORD PTR _irSig$[ebp], xmm0
$LN79@AirAirMode:

; 268  : 				}
; 269  : 
; 270  : 				if (irSig < 0.0f)

	movss	xmm0, DWORD PTR __real@00000000
	comiss	xmm0, DWORD PTR _irSig$[ebp]
	jbe	SHORT $LN78@AirAirMode

; 271  : 				{
; 272  : 					irSig = 0.0f;

	movss	xmm0, DWORD PTR __real@00000000
	movss	DWORD PTR _irSig$[ebp], xmm0
$LN78@AirAirMode:

; 273  : 				}
; 274  : 				
; 275  : 				if (irSig > 1.05F) 

	movss	xmm0, DWORD PTR _irSig$[ebp]
	comiss	xmm0, DWORD PTR __real@3f866666
	jbe	SHORT $LN77@AirAirMode

; 276  : 				{
; 277  : 					inRange = TRUE;

	mov	eax, DWORD PTR _this$[ebp]
	mov	DWORD PTR [eax+216], 1
	jmp	SHORT $LN75@AirAirMode
$LN77@AirAirMode:

; 278  : 				}
; 279  : 				else if (irSig < 1.01F || theMissile->targetPtr != targetPtr)

	movss	xmm0, DWORD PTR __real@3f8147ae
	comiss	xmm0, DWORD PTR _irSig$[ebp]
	ja	SHORT $LN74@AirAirMode
	mov	ecx, DWORD PTR _theMissile$[ebp]
	mov	edx, DWORD PTR _this$[ebp]
	mov	eax, DWORD PTR [ecx+656]
	cmp	eax, DWORD PTR [edx+132]
	je	SHORT $LN75@AirAirMode
$LN74@AirAirMode:

; 280  : 				{
; 281  : 					inRange = FALSE;

	mov	ecx, DWORD PTR _this$[ebp]
	mov	DWORD PTR [ecx+216], 0
$LN75@AirAirMode:

; 282  : 				}
; 283  : 				
; 284  : 				//if (playerFCC && (playerAC && playerAC->AutopilotType() != AircraftClass::CombatAP)) 
; 285  : 				IsCAP = true;

	mov	BYTE PTR _IsCAP$24[ebp], 1

; 286  : 				if (playerAC && playerAC->AutopilotType() != AircraftClass::CombatAP)

	cmp	DWORD PTR _playerAC$[ebp], 0
	je	SHORT $LN73@AirAirMode
	mov	ecx, DWORD PTR _playerAC$[ebp]
	call	?AutopilotType@AircraftClass@@QAE?AW4AutoPilotType@1@XZ ; AircraftClass::AutopilotType
	cmp	eax, 2
	je	SHORT $LN73@AirAirMode

; 287  : 					IsCAP = false;

	mov	BYTE PTR _IsCAP$24[ebp], 0
$LN73@AirAirMode:

; 288  : 				if (playerFCC && !IsCAP) 

	mov	edx, DWORD PTR _this$[ebp]
	cmp	DWORD PTR [edx+92], 0
	je	$LN72@AirAirMode
	movzx	eax, BYTE PTR _IsCAP$24[ebp]
	test	eax, eax
	jne	$LN72@AirAirMode

; 289  : 				{
; 290  : 					float aim9Vol=0;

	movss	xmm0, DWORD PTR __real@00000000
	movss	DWORD PTR _aim9Vol$22[ebp], xmm0

; 291  : 					// Marco Edit
; 292  : 					irSigTDBP = irSig;

	movss	xmm0, DWORD PTR _irSig$[ebp]
	movss	DWORD PTR _irSigTDBP$[ebp], xmm0

; 293  : 					if (!theMissile->isTD)

	mov	ecx, DWORD PTR _theMissile$[ebp]
	cmp	DWORD PTR [ecx+740], 0
	jne	SHORT $LN71@AirAirMode

; 294  : 					{
; 295  : 						irSigTDBP = 0.0f;

	movss	xmm0, DWORD PTR __real@00000000
	movss	DWORD PTR _irSigTDBP$[ebp], xmm0
$LN71@AirAirMode:

; 296  : 					}
; 297  : 
; 298  : 					if(playerAC) // CTD exiting mission

	cmp	DWORD PTR _playerAC$[ebp], 0
	je	SHORT $LN66@AirAirMode

; 299  : 					{
; 300  : 						if (IO.AnalogIsUsed(AXIS_MSL_VOLUME) == false)						// Retro 3Jan2004

	push	16					; 00000010H
	mov	ecx, OFFSET ?IO@@3VSIMLIB_IO_CLASS@@A	; IO
	call	?AnalogIsUsed@SIMLIB_IO_CLASS@@QAE_NW4GameAxis_t@@@Z ; SIMLIB_IO_CLASS::AnalogIsUsed
	movzx	edx, al
	test	edx, edx
	jne	SHORT $LN69@AirAirMode

; 301  : 						{
; 302  : 							if(playerAC->MissileVolume == 8)

	mov	eax, DWORD PTR _playerAC$[ebp]
	cmp	DWORD PTR [eax+876], 8
	jne	SHORT $LN68@AirAirMode

; 303  : 								aim9Vol=-10000;

	movss	xmm0, DWORD PTR __real@c61c4000
	movss	DWORD PTR _aim9Vol$22[ebp], xmm0

; 304  : 							else

	jmp	SHORT $LN67@AirAirMode
$LN68@AirAirMode:

; 305  : 								aim9Vol=-(float)playerAC->MissileVolume * 250;

	mov	ecx, DWORD PTR _playerAC$[ebp]
	cvtsi2ss xmm0, DWORD PTR [ecx+876]
	xorps	xmm0, DWORD PTR __xmm@80000000800000008000000080000000
	mulss	xmm0, DWORD PTR __real@437a0000
	movss	DWORD PTR _aim9Vol$22[ebp], xmm0
$LN67@AirAirMode:

; 306  : 						}
; 307  : 						else																// Retro 3Jan2004

	jmp	SHORT $LN66@AirAirMode
$LN69@AirAirMode:

; 308  : 						{
; 309  : 							// Retro 26Jan2004 - the axis is now reversed on default and scales linear to the axis
; 310  : 							//					- the user will have to shape it to logarithmic to use the throw efficiently
; 311  : 							aim9Vol = -(float)(/*15000-*/IO.GetAxisValue(AXIS_MSL_VOLUME))/1.5F;		// Retro 26Jan2004

	push	16					; 00000010H
	mov	ecx, OFFSET ?IO@@3VSIMLIB_IO_CLASS@@A	; IO
	call	?GetAxisValue@SIMLIB_IO_CLASS@@QAEHW4GameAxis_t@@@Z ; SIMLIB_IO_CLASS::GetAxisValue
	cvtsi2ss xmm0, eax
	xorps	xmm0, DWORD PTR __xmm@80000000800000008000000080000000
	divss	xmm0, DWORD PTR __real@3fc00000
	movss	DWORD PTR _aim9Vol$22[ebp], xmm0
$LN66@AirAirMode:

; 312  : 						}
; 313  : 					}
; 314  : 
; 315  : 
; 316  : 					if (g_bRealisticAvionics && !irSig)

	movzx	edx, BYTE PTR ?g_bRealisticAvionics@@3_NA ; g_bRealisticAvionics
	test	edx, edx
	je	$LN65@AirAirMode
	movss	xmm0, DWORD PTR _irSig$[ebp]
	ucomiss	xmm0, DWORD PTR __real@00000000
	lahf
	test	ah, 68					; 00000044H
	jp	$LN65@AirAirMode

; 317  : 					{
; 318  : 						mlTrig trig;
; 319  : 						float yaw   = platform->Yaw();

	mov	eax, DWORD PTR _this$[ebp]
	mov	ecx, DWORD PTR [eax+140]
	call	?Yaw@VuEntity@@QBEMXZ			; VuEntity::Yaw
	fstp	DWORD PTR _yaw$5[ebp]

; 320  : 						float pitch = platform->Pitch();

	mov	ecx, DWORD PTR _this$[ebp]
	mov	ecx, DWORD PTR [ecx+140]
	call	?Pitch@VuEntity@@QBEMXZ			; VuEntity::Pitch
	fstp	DWORD PTR _pitch$10[ebp]

; 321  : 						float tmpX, tmpY, tmpZ;
; 322  : 						float aim9Pitch ;
; 323  : 
; 324  : 						mlSinCos (&trig, platform->Roll());

	mov	edx, DWORD PTR _this$[ebp]
	mov	ecx, DWORD PTR [edx+140]
	call	?Roll@VuEntity@@QBEMXZ			; VuEntity::Roll
	push	ecx
	fstp	DWORD PTR [esp]
	lea	eax, DWORD PTR _trig$1[ebp]
	push	eax
	call	?mlSinCos@@YAXPAUmlTrig@@M@Z		; mlSinCos
	add	esp, 8

; 325  : 
; 326  : 						switch (Sms->GetCoolState())

	mov	ecx, DWORD PTR _this$[ebp]
	mov	ecx, DWORD PTR [ecx+408]
	call	?GetCoolState@SMSClass@@QAE?AW4Aim9Mode@1@XZ ; SMSClass::GetCoolState
	mov	DWORD PTR tv656[ebp], eax
	cmp	DWORD PTR tv656[ebp], 0
	je	SHORT $LN62@AirAirMode
	cmp	DWORD PTR tv656[ebp], 1
	je	SHORT $LN61@AirAirMode
	cmp	DWORD PTR tv656[ebp], 3
	je	SHORT $LN60@AirAirMode
	jmp	$LN59@AirAirMode
$LN62@AirAirMode:

; 327  : 						{
; 328  : 							case SMSClass::WARM:
; 329  : 							{
; 330  : 								aim9Pitch = 0.5f;

	movss	xmm0, DWORD PTR __real@3f000000
	movss	DWORD PTR _aim9Pitch$23[ebp], xmm0

; 331  : 								break;

	jmp	$LN63@AirAirMode
$LN61@AirAirMode:

; 332  : 							}
; 333  : 							case SMSClass::COOLING:
; 334  : 							{
; 335  : 								aim9Pitch = (float)(Sms->aim9cooltime - SimLibMajorFrameTime);

	mov	edx, DWORD PTR _this$[ebp]
	mov	eax, DWORD PTR [edx+408]
	movss	xmm0, DWORD PTR [eax+184]
	subss	xmm0, DWORD PTR ?SimLibMajorFrameTime@@3MA
	movss	DWORD PTR _aim9Pitch$23[ebp], xmm0

; 336  : 								aim9Pitch /= (3 * CampaignSeconds) / 2 ;

	movss	xmm0, DWORD PTR _aim9Pitch$23[ebp]
	divss	xmm0, DWORD PTR __real@44bb8000
	movss	DWORD PTR _aim9Pitch$23[ebp], xmm0

; 337  : 								aim9Pitch = 1.0f - aim9Pitch;

	movss	xmm0, DWORD PTR __real@3f800000
	subss	xmm0, DWORD PTR _aim9Pitch$23[ebp]
	movss	DWORD PTR _aim9Pitch$23[ebp], xmm0

; 338  : 								break;

	jmp	SHORT $LN63@AirAirMode
$LN60@AirAirMode:

; 339  : 							}
; 340  : 							case SMSClass::WARMING:
; 341  : 							{
; 342  : 								aim9Pitch = (float)(Sms->aim9warmtime - SimLibMajorFrameTime);

	mov	ecx, DWORD PTR _this$[ebp]
	mov	edx, DWORD PTR [ecx+408]
	movss	xmm0, DWORD PTR [edx+192]
	subss	xmm0, DWORD PTR ?SimLibMajorFrameTime@@3MA
	movss	DWORD PTR _aim9Pitch$23[ebp], xmm0

; 343  : 								aim9Pitch /= (60 * CampaignSeconds) / 2 ;

	movss	xmm0, DWORD PTR _aim9Pitch$23[ebp]
	divss	xmm0, DWORD PTR __real@46ea6000
	movss	DWORD PTR _aim9Pitch$23[ebp], xmm0

; 344  : 								break;

	jmp	SHORT $LN63@AirAirMode
$LN59@AirAirMode:

; 345  : 							}
; 346  : 							default:
; 347  : 							{
; 348  : 								aim9Pitch = 1.0f;

	movss	xmm0, DWORD PTR __real@3f800000
	movss	DWORD PTR _aim9Pitch$23[ebp], xmm0
$LN63@AirAirMode:

; 349  : 								break;
; 350  : 							}
; 351  : 						}
; 352  : 						//MI 02/02/02 9P cooling works differently, no button on SMS
; 353  : 						if (cw->GetSPType() == SPTYPE_AIM9P){

	mov	ecx, DWORD PTR _cw$[ebp]
	call	?GetSPType@SimBaseClass@@QBEEXZ		; SimBaseClass::GetSPType
	movzx	eax, al
	cmp	eax, 17					; 00000011H
	jne	SHORT $LN58@AirAirMode

; 354  : 							aim9Pitch = (float)(Sms->aim9cooltime - SimLibMajorFrameTime) ;

	mov	ecx, DWORD PTR _this$[ebp]
	mov	edx, DWORD PTR [ecx+408]
	movss	xmm0, DWORD PTR [edx+184]
	subss	xmm0, DWORD PTR ?SimLibMajorFrameTime@@3MA
	movss	DWORD PTR _aim9Pitch$23[ebp], xmm0

; 355  : 							aim9Pitch /= (3 * CampaignSeconds) / 2 ;

	movss	xmm0, DWORD PTR _aim9Pitch$23[ebp]
	divss	xmm0, DWORD PTR __real@44bb8000
	movss	DWORD PTR _aim9Pitch$23[ebp], xmm0

; 356  : 							aim9Pitch = 1.0f - aim9Pitch;

	movss	xmm0, DWORD PTR __real@3f800000
	subss	xmm0, DWORD PTR _aim9Pitch$23[ebp]
	movss	DWORD PTR _aim9Pitch$23[ebp], xmm0
$LN58@AirAirMode:

; 357  : 						}
; 358  : 						// Ensure it's between right values
; 359  : 						//ShiAssert(aim9Pitch <= 1.0f);
; 360  : 						//ShiAssert(aim9Pitch >= 0.5f);
; 361  : 						aim9Pitch = min( max(aim9Pitch, 0.5f), 1.0f);

	movss	xmm0, DWORD PTR _aim9Pitch$23[ebp]
	comiss	xmm0, DWORD PTR __real@3f000000
	jbe	SHORT $LN132@AirAirMode
	movss	xmm0, DWORD PTR _aim9Pitch$23[ebp]
	movss	DWORD PTR tv686[ebp], xmm0
	jmp	SHORT $LN133@AirAirMode
$LN132@AirAirMode:
	movss	xmm0, DWORD PTR __real@3f000000
	movss	DWORD PTR tv686[ebp], xmm0
$LN133@AirAirMode:
	movss	xmm0, DWORD PTR __real@3f800000
	comiss	xmm0, DWORD PTR tv686[ebp]
	jbe	SHORT $LN136@AirAirMode
	movss	xmm0, DWORD PTR _aim9Pitch$23[ebp]
	comiss	xmm0, DWORD PTR __real@3f000000
	jbe	SHORT $LN134@AirAirMode
	movss	xmm0, DWORD PTR _aim9Pitch$23[ebp]
	movss	DWORD PTR tv689[ebp], xmm0
	jmp	SHORT $LN135@AirAirMode
$LN134@AirAirMode:
	movss	xmm0, DWORD PTR __real@3f000000
	movss	DWORD PTR tv689[ebp], xmm0
$LN135@AirAirMode:
	movss	xmm0, DWORD PTR tv689[ebp]
	movss	DWORD PTR tv690[ebp], xmm0
	jmp	SHORT $LN137@AirAirMode
$LN136@AirAirMode:
	movss	xmm0, DWORD PTR __real@3f800000
	movss	DWORD PTR tv690[ebp], xmm0
$LN137@AirAirMode:
	movss	xmm0, DWORD PTR tv690[ebp]
	movss	DWORD PTR _aim9Pitch$23[ebp], xmm0

; 362  : 
; 363  : 						if (FindGroundIntersection (pitch, yaw, &tmpX, &tmpY, &tmpZ))

	lea	eax, DWORD PTR _tmpZ$4[ebp]
	push	eax
	lea	ecx, DWORD PTR _tmpY$2[ebp]
	push	ecx
	lea	edx, DWORD PTR _tmpX$3[ebp]
	push	edx
	push	ecx
	movss	xmm0, DWORD PTR _yaw$5[ebp]
	movss	DWORD PTR [esp], xmm0
	push	ecx
	movss	xmm0, DWORD PTR _pitch$10[ebp]
	movss	DWORD PTR [esp], xmm0
	mov	ecx, DWORD PTR _this$[ebp]
	call	?FindGroundIntersection@FireControlComputer@@AAEHMMPAM00@Z ; FireControlComputer::FindGroundIntersection
	test	eax, eax
	je	SHORT $LN57@AirAirMode

; 364  : 						{
; 365  : 							Aim9AtGround = true ;

	mov	eax, DWORD PTR _this$[ebp]
	mov	BYTE PTR [eax+324], 1

; 366  : 							if (OTWDriver.DisplayInCockpit ())

	mov	ecx, OFFSET ?OTWDriver@@3VOTWDriverClass@@A ; OTWDriver
	call	?DisplayInCockpit@OTWDriverClass@@QAEHXZ ; OTWDriverClass::DisplayInCockpit
	test	eax, eax
	je	SHORT $LN56@AirAirMode

; 367  : 							{
; 368  : 								//F4SoundFXSetDist (SFX_AIM9_ENVIRO_GND, 0, aim9Vol, aim9Pitch);
; 369  : 								F4SoundFXSetDist (theMissile->GetSndAim9EnviroGround(), 0, aim9Vol, aim9Pitch);

	push	ecx
	movss	xmm0, DWORD PTR _aim9Pitch$23[ebp]
	movss	DWORD PTR [esp], xmm0
	push	ecx
	movss	xmm0, DWORD PTR _aim9Vol$22[ebp]
	movss	DWORD PTR [esp], xmm0
	push	0
	mov	ecx, DWORD PTR _theMissile$[ebp]
	call	?GetSndAim9EnviroGround@MissileClass@@QAEHXZ ; MissileClass::GetSndAim9EnviroGround
	push	eax
	call	_F4SoundFXSetDist
	add	esp, 16					; 00000010H
$LN56@AirAirMode:

; 370  : 							}
; 371  : 						}
; 372  : 						else

	jmp	SHORT $LN54@AirAirMode
$LN57@AirAirMode:

; 373  : 						{
; 374  : 							Aim9AtGround = false ;

	mov	ecx, DWORD PTR _this$[ebp]
	mov	BYTE PTR [ecx+324], 0

; 375  : 							if (OTWDriver.DisplayInCockpit ())

	mov	ecx, OFFSET ?OTWDriver@@3VOTWDriverClass@@A ; OTWDriver
	call	?DisplayInCockpit@OTWDriverClass@@QAEHXZ ; OTWDriverClass::DisplayInCockpit
	test	eax, eax
	je	SHORT $LN54@AirAirMode

; 376  : 							{
; 377  : 								//F4SoundFXSetDist (SFX_AIM9_ENVIRO_SKY, 0, aim9Vol, aim9Pitch);
; 378  : 								F4SoundFXSetDist (theMissile->GetSndAim9EnviroSky(), 0, aim9Vol, aim9Pitch);

	push	ecx
	movss	xmm0, DWORD PTR _aim9Pitch$23[ebp]
	movss	DWORD PTR [esp], xmm0
	push	ecx
	movss	xmm0, DWORD PTR _aim9Vol$22[ebp]
	movss	DWORD PTR [esp], xmm0
	push	0
	mov	ecx, DWORD PTR _theMissile$[ebp]
	call	?GetSndAim9EnviroSky@MissileClass@@QAEHXZ ; MissileClass::GetSndAim9EnviroSky
	push	eax
	call	_F4SoundFXSetDist
	add	esp, 16					; 00000010H
$LN54@AirAirMode:

; 379  : 							}
; 380  : 						}

	jmp	$LN43@AirAirMode
$LN65@AirAirMode:

; 381  : 					}
; 382  : 					else if (irSig && theMissile->isCaged == TRUE)

	movss	xmm0, DWORD PTR _irSig$[ebp]
	ucomiss	xmm0, DWORD PTR __real@00000000
	lahf
	test	ah, 68					; 00000044H
	jnp	$LN52@AirAirMode
	mov	edx, DWORD PTR _theMissile$[ebp]
	cmp	DWORD PTR [edx+728], 1
	jne	$LN52@AirAirMode

; 383  : 					{
; 384  : 						irSig -= 0.75F;

	movss	xmm0, DWORD PTR _irSig$[ebp]
	subss	xmm0, DWORD PTR __real@3f400000
	movss	DWORD PTR _irSig$[ebp], xmm0

; 385  : 						irSig *= 2.0F;

	movss	xmm0, DWORD PTR _irSig$[ebp]
	mulss	xmm0, DWORD PTR __real@40000000
	movss	DWORD PTR _irSig$[ebp], xmm0

; 386  : 						irSig += 2.00F;

	movss	xmm0, DWORD PTR _irSig$[ebp]
	addss	xmm0, DWORD PTR __real@40000000
	movss	DWORD PTR _irSig$[ebp], xmm0

; 387  : 						irSig = max(2.0F, min (irSig, 4.5F));

	movss	xmm0, DWORD PTR __real@40900000
	comiss	xmm0, DWORD PTR _irSig$[ebp]
	jbe	SHORT $LN138@AirAirMode
	movss	xmm0, DWORD PTR _irSig$[ebp]
	movss	DWORD PTR tv726[ebp], xmm0
	jmp	SHORT $LN139@AirAirMode
$LN138@AirAirMode:
	movss	xmm0, DWORD PTR __real@40900000
	movss	DWORD PTR tv726[ebp], xmm0
$LN139@AirAirMode:
	movss	xmm0, DWORD PTR __real@40000000
	comiss	xmm0, DWORD PTR tv726[ebp]
	jbe	SHORT $LN142@AirAirMode
	movss	xmm0, DWORD PTR __real@40000000
	movss	DWORD PTR tv730[ebp], xmm0
	jmp	SHORT $LN143@AirAirMode
$LN142@AirAirMode:
	movss	xmm0, DWORD PTR __real@40900000
	comiss	xmm0, DWORD PTR _irSig$[ebp]
	jbe	SHORT $LN140@AirAirMode
	movss	xmm0, DWORD PTR _irSig$[ebp]
	movss	DWORD PTR tv729[ebp], xmm0
	jmp	SHORT $LN141@AirAirMode
$LN140@AirAirMode:
	movss	xmm0, DWORD PTR __real@40900000
	movss	DWORD PTR tv729[ebp], xmm0
$LN141@AirAirMode:
	movss	xmm0, DWORD PTR tv729[ebp]
	movss	DWORD PTR tv730[ebp], xmm0
$LN143@AirAirMode:
	movss	xmm0, DWORD PTR tv730[ebp]
	movss	DWORD PTR _irSig$[ebp], xmm0

; 388  : 						
; 389  : 						// IIR filtered
; 390  : 						static const float TC = 1.0f;	// Seconds...
; 391  : 						
; 392  : 						if (SimLibMajorFrameTime < TC)

	movss	xmm0, DWORD PTR ?TC@?KO@??AirAirMode@FireControlComputer@@AAEXXZ@4MB
	comiss	xmm0, DWORD PTR ?SimLibMajorFrameTime@@3MA
	jbe	SHORT $LN51@AirAirMode

; 393  : 						{
; 394  : 							float m  = SimLibMajorFrameTime/TC;

	movss	xmm0, DWORD PTR ?SimLibMajorFrameTime@@3MA
	divss	xmm0, DWORD PTR ?TC@?KO@??AirAirMode@FireControlComputer@@AAEXXZ@4MB
	movss	DWORD PTR _m$17[ebp], xmm0

; 395  : 							float im = 1.0f - m;

	movss	xmm0, DWORD PTR __real@3f800000
	subss	xmm0, DWORD PTR _m$17[ebp]
	movss	DWORD PTR _im$8[ebp], xmm0

; 396  : 							lastIrSig = irSig*m + lastIrSig*im;

	movss	xmm0, DWORD PTR _irSig$[ebp]
	mulss	xmm0, DWORD PTR _m$17[ebp]
	movss	xmm1, DWORD PTR ?lastIrSig@?1??AirAirMode@FireControlComputer@@AAEXXZ@4MA
	mulss	xmm1, DWORD PTR _im$8[ebp]
	addss	xmm0, xmm1
	movss	DWORD PTR ?lastIrSig@?1??AirAirMode@FireControlComputer@@AAEXXZ@4MA, xmm0
$LN51@AirAirMode:

; 397  : 						}
; 398  : 						lastIrSig = min (irSig, 4.5F);//me123 changed from 4.5

	movss	xmm0, DWORD PTR __real@40900000
	comiss	xmm0, DWORD PTR _irSig$[ebp]
	jbe	SHORT $LN144@AirAirMode
	movss	xmm0, DWORD PTR _irSig$[ebp]
	movss	DWORD PTR tv738[ebp], xmm0
	jmp	SHORT $LN145@AirAirMode
$LN144@AirAirMode:
	movss	xmm0, DWORD PTR __real@40900000
	movss	DWORD PTR tv738[ebp], xmm0
$LN145@AirAirMode:
	movss	xmm0, DWORD PTR tv738[ebp]
	movss	DWORD PTR ?lastIrSig@?1??AirAirMode@FireControlComputer@@AAEXXZ@4MA, xmm0

; 399  : 						
; 400  : 						if (OTWDriver.DisplayInCockpit ())

	mov	ecx, OFFSET ?OTWDriver@@3VOTWDriverClass@@A ; OTWDriver
	call	?DisplayInCockpit@OTWDriverClass@@QAEHXZ ; OTWDriverClass::DisplayInCockpit
	test	eax, eax
	je	SHORT $LN50@AirAirMode

; 401  : 						{
; 402  : //							MonoPrint ("%f\n", lastIrSig);
; 403  : 							// 1000000.0f = max distance
; 404  : 							// lastIrSig between 2.0 and 4.5
; 405  : 							//F4SoundFXSetDist (SFX_GROWL, 0, aim9Vol, lastIrSig / 4.5F);
; 406  : 							F4SoundFXSetDist (theMissile->GetSndAim9Growl(), 0, aim9Vol, lastIrSig / 4.5F);

	movss	xmm0, DWORD PTR ?lastIrSig@?1??AirAirMode@FireControlComputer@@AAEXXZ@4MA
	divss	xmm0, DWORD PTR __real@40900000
	push	ecx
	movss	DWORD PTR [esp], xmm0
	push	ecx
	movss	xmm0, DWORD PTR _aim9Vol$22[ebp]
	movss	DWORD PTR [esp], xmm0
	push	0
	mov	ecx, DWORD PTR _theMissile$[ebp]
	call	?GetSndAim9Growl@MissileClass@@QAEHXZ	; MissileClass::GetSndAim9Growl
	push	eax
	call	_F4SoundFXSetDist
	add	esp, 16					; 00000010H
$LN50@AirAirMode:

; 407  : 						}
; 408  : 					}

	jmp	$LN43@AirAirMode
$LN52@AirAirMode:

; 409  : 
; 410  : 					else if (irSig)

	movss	xmm0, DWORD PTR _irSig$[ebp]
	ucomiss	xmm0, DWORD PTR __real@00000000
	lahf
	test	ah, 68					; 00000044H
	jnp	$LN48@AirAirMode

; 411  : 					{
; 412  : 						irSig = 16;

	movss	xmm0, DWORD PTR __real@41800000
	movss	DWORD PTR _irSig$[ebp], xmm0

; 413  : 						static const float TC = 1.0f;	// Seconds...
; 414  : 						
; 415  : 						if (SimLibMajorFrameTime < TC)

	movss	xmm0, DWORD PTR ?TC@?LI@??AirAirMode@FireControlComputer@@AAEXXZ@4MB
	comiss	xmm0, DWORD PTR ?SimLibMajorFrameTime@@3MA
	jbe	SHORT $LN47@AirAirMode

; 416  : 						{
; 417  : 							float m  = SimLibMajorFrameTime/TC;

	movss	xmm0, DWORD PTR ?SimLibMajorFrameTime@@3MA
	divss	xmm0, DWORD PTR ?TC@?LI@??AirAirMode@FireControlComputer@@AAEXXZ@4MB
	movss	DWORD PTR _m$12[ebp], xmm0

; 418  : 							float im = 1.0f - m;

	movss	xmm0, DWORD PTR __real@3f800000
	subss	xmm0, DWORD PTR _m$12[ebp]
	movss	DWORD PTR _im$9[ebp], xmm0

; 419  : 							lastIrSig = irSig*m + lastIrSig*im;

	movss	xmm0, DWORD PTR _irSig$[ebp]
	mulss	xmm0, DWORD PTR _m$12[ebp]
	movss	xmm1, DWORD PTR ?lastIrSig@?1??AirAirMode@FireControlComputer@@AAEXXZ@4MA
	mulss	xmm1, DWORD PTR _im$9[ebp]
	addss	xmm0, xmm1
	movss	DWORD PTR ?lastIrSig@?1??AirAirMode@FireControlComputer@@AAEXXZ@4MA, xmm0
$LN47@AirAirMode:

; 420  : 						}
; 421  : 						lastIrSig = min (irSig, 16.0F);//me123 changed from 4.5

	movss	xmm0, DWORD PTR __real@41800000
	comiss	xmm0, DWORD PTR _irSig$[ebp]
	jbe	SHORT $LN146@AirAirMode
	movss	xmm0, DWORD PTR _irSig$[ebp]
	movss	DWORD PTR tv757[ebp], xmm0
	jmp	SHORT $LN147@AirAirMode
$LN146@AirAirMode:
	movss	xmm0, DWORD PTR __real@41800000
	movss	DWORD PTR tv757[ebp], xmm0
$LN147@AirAirMode:
	movss	xmm0, DWORD PTR tv757[ebp]
	movss	DWORD PTR ?lastIrSig@?1??AirAirMode@FireControlComputer@@AAEXXZ@4MA, xmm0

; 422  : 						
; 423  : 						if (OTWDriver.DisplayInCockpit ())

	mov	ecx, OFFSET ?OTWDriver@@3VOTWDriverClass@@A ; OTWDriver
	call	?DisplayInCockpit@OTWDriverClass@@QAEHXZ ; OTWDriverClass::DisplayInCockpit
	test	eax, eax
	je	SHORT $LN46@AirAirMode

; 424  : 						{
; 425  : //							MonoPrint ("%f\n", lastIrSig);
; 426  : 							//MI Changed for new sound
; 427  : 							//F4SoundFXSetDist (SFX_GROWL, 0, 0.0f, lastIrSig / 4.5F);
; 428  : //							F4SoundFXSetDist (SFX_NO_CAGE, 0, aim9Vol, lastIrSig / 16);
; 429  : 							F4SoundFXSetDist (theMissile->GetSndAim9Uncaged(), 0, aim9Vol, lastIrSig / 16);

	movss	xmm0, DWORD PTR ?lastIrSig@?1??AirAirMode@FireControlComputer@@AAEXXZ@4MA
	divss	xmm0, DWORD PTR __real@41800000
	push	ecx
	movss	DWORD PTR [esp], xmm0
	push	ecx
	movss	xmm0, DWORD PTR _aim9Vol$22[ebp]
	movss	DWORD PTR [esp], xmm0
	push	0
	mov	ecx, DWORD PTR _theMissile$[ebp]
	call	?GetSndAim9Uncaged@MissileClass@@QAEHXZ	; MissileClass::GetSndAim9Uncaged
	push	eax
	call	_F4SoundFXSetDist
	add	esp, 16					; 00000010H
$LN46@AirAirMode:

; 430  : 
; 431  : 						}
; 432  : 					}
; 433  : 
; 434  : 					else

	jmp	$LN43@AirAirMode
$LN48@AirAirMode:

; 435  : 					{
; 436  : 						irSig = 2.0f;

	movss	xmm0, DWORD PTR __real@40000000
	movss	DWORD PTR _irSig$[ebp], xmm0

; 437  : 						
; 438  : 						// IIR filtered
; 439  : 						static const float TC = 1.0f;	// Seconds...
; 440  : 						
; 441  : 						if (SimLibMajorFrameTime < TC)

	movss	xmm0, DWORD PTR ?TC@?MA@??AirAirMode@FireControlComputer@@AAEXXZ@4MB
	comiss	xmm0, DWORD PTR ?SimLibMajorFrameTime@@3MA
	jbe	SHORT $LN44@AirAirMode

; 442  : 						{
; 443  : 							float m  = SimLibMajorFrameTime/TC;

	movss	xmm0, DWORD PTR ?SimLibMajorFrameTime@@3MA
	divss	xmm0, DWORD PTR ?TC@?MA@??AirAirMode@FireControlComputer@@AAEXXZ@4MB
	movss	DWORD PTR _m$16[ebp], xmm0

; 444  : 							float im = 1.0f - m;

	movss	xmm0, DWORD PTR __real@3f800000
	subss	xmm0, DWORD PTR _m$16[ebp]
	movss	DWORD PTR _im$7[ebp], xmm0

; 445  : 							lastIrSig = irSig*m + lastIrSig*im;

	movss	xmm0, DWORD PTR _irSig$[ebp]
	mulss	xmm0, DWORD PTR _m$16[ebp]
	movss	xmm1, DWORD PTR ?lastIrSig@?1??AirAirMode@FireControlComputer@@AAEXXZ@4MA
	mulss	xmm1, DWORD PTR _im$7[ebp]
	addss	xmm0, xmm1
	movss	DWORD PTR ?lastIrSig@?1??AirAirMode@FireControlComputer@@AAEXXZ@4MA, xmm0
$LN44@AirAirMode:

; 446  : 						}
; 447  : 						lastIrSig = min (irSig, 4.5F);//me123 changed from 4.5

	movss	xmm0, DWORD PTR __real@40900000
	comiss	xmm0, DWORD PTR _irSig$[ebp]
	jbe	SHORT $LN148@AirAirMode
	movss	xmm0, DWORD PTR _irSig$[ebp]
	movss	DWORD PTR tv775[ebp], xmm0
	jmp	SHORT $LN149@AirAirMode
$LN148@AirAirMode:
	movss	xmm0, DWORD PTR __real@40900000
	movss	DWORD PTR tv775[ebp], xmm0
$LN149@AirAirMode:
	movss	xmm0, DWORD PTR tv775[ebp]
	movss	DWORD PTR ?lastIrSig@?1??AirAirMode@FireControlComputer@@AAEXXZ@4MA, xmm0

; 448  : 						
; 449  : 						if (OTWDriver.DisplayInCockpit ())

	mov	ecx, OFFSET ?OTWDriver@@3VOTWDriverClass@@A ; OTWDriver
	call	?DisplayInCockpit@OTWDriverClass@@QAEHXZ ; OTWDriverClass::DisplayInCockpit
	test	eax, eax
	je	SHORT $LN43@AirAirMode

; 450  : 						{
; 451  : 
; 452  : //							MonoPrint ("%f\n", lastIrSig);
; 453  : //							F4SoundFXSetDist (SFX_GROWL, 0, aim9Vol, lastIrSig / 4.5f);
; 454  : 							F4SoundFXSetDist (theMissile->GetSndAim9Growl(), 0, aim9Vol, lastIrSig / 4.5f);

	movss	xmm0, DWORD PTR ?lastIrSig@?1??AirAirMode@FireControlComputer@@AAEXXZ@4MA
	divss	xmm0, DWORD PTR __real@40900000
	push	ecx
	movss	DWORD PTR [esp], xmm0
	push	ecx
	movss	xmm0, DWORD PTR _aim9Vol$22[ebp]
	movss	DWORD PTR [esp], xmm0
	push	0
	mov	ecx, DWORD PTR _theMissile$[ebp]
	call	?GetSndAim9Growl@MissileClass@@QAEHXZ	; MissileClass::GetSndAim9Growl
	push	eax
	call	_F4SoundFXSetDist
	add	esp, 16					; 00000010H
$LN43@AirAirMode:

; 455  : 
; 456  : 						}
; 457  : 
; 458  : 					}
; 459  : 					if(theMissile->targetPtr && ((SimBaseClass*)theMissile->targetPtr->BaseData())->OnGround())

	mov	eax, DWORD PTR _theMissile$[ebp]
	cmp	DWORD PTR [eax+656], 0
	je	SHORT $LN42@AirAirMode
	mov	ecx, DWORD PTR _theMissile$[ebp]
	mov	ecx, DWORD PTR [ecx+656]
	call	?BaseData@SimObjectType@@QAEPAVFalconEntity@@XZ ; SimObjectType::BaseData
	mov	DWORD PTR tv808[ebp], eax
	mov	edx, DWORD PTR tv808[ebp]
	mov	eax, DWORD PTR [edx]
	mov	ecx, DWORD PTR tv808[ebp]
	mov	edx, DWORD PTR [eax+148]
	call	edx
	test	eax, eax
	je	SHORT $LN42@AirAirMode

; 460  : 					{
; 461  : 						theMissile->DropTarget() ;

	mov	ecx, DWORD PTR _theMissile$[ebp]
	call	?DropTarget@MissileClass@@QAEXXZ	; MissileClass::DropTarget

; 462  : 						irSig = 0.0;

	movss	xmm0, DWORD PTR __real@00000000
	movss	DWORD PTR _irSig$[ebp], xmm0
$LN42@AirAirMode:

; 463  : 					}
; 464  : 				}
; 465  : 				else //me123 digi cage stuff

	jmp	SHORT $LN41@AirAirMode
$LN72@AirAirMode:

; 466  : 				{
; 467  : 					irSig = 0.0f;		   

	movss	xmm0, DWORD PTR __real@00000000
	movss	DWORD PTR _irSig$[ebp], xmm0
$LN41@AirAirMode:

; 468  : 				}
; 469  : 			}
; 470  : 			else	//not DF or Aim9

	jmp	SHORT $LN40@AirAirMode
$LN108@AirAirMode:

; 471  : 			{
; 472  : 				if (playerFCC)

	mov	eax, DWORD PTR _this$[ebp]
	cmp	DWORD PTR [eax+92], 0
	je	SHORT $LN39@AirAirMode

; 473  : 				{
; 474  : 					lastIrSig = 0.0F;

	movss	xmm0, DWORD PTR __real@00000000
	movss	DWORD PTR ?lastIrSig@?1??AirAirMode@FireControlComputer@@AAEXXZ@4MA, xmm0
$LN39@AirAirMode:

; 475  : 				}
; 476  : 				
; 477  : 				inRange = TRUE;

	mov	ecx, DWORD PTR _this$[ebp]
	mov	DWORD PTR [ecx+216], 1
$LN40@AirAirMode:

; 478  : 			}
; 479  : 			
; 480  : 			if (targetPtr && theMissile->isCaged && theMissile->isSlave)

	mov	edx, DWORD PTR _this$[ebp]
	cmp	DWORD PTR [edx+132], 0
	je	$LN38@AirAirMode
	mov	eax, DWORD PTR _theMissile$[ebp]
	cmp	DWORD PTR [eax+728], 0
	je	$LN38@AirAirMode
	mov	ecx, DWORD PTR _theMissile$[ebp]
	cmp	DWORD PTR [ecx+736], 0
	je	$LN38@AirAirMode

; 481  : 			{
; 482  : 				missileTarget   = TRUE;

	mov	edx, DWORD PTR _this$[ebp]
	mov	BYTE PTR [edx+192], 1

; 483  : 				missileRMax   = theMissile->GetRMax (-platform->ZPos(), platform->GetVt(),
; 484  : 				targetPtr->localData->az, targetPtr->BaseData()->GetVt(),
; 485  : 				targetPtr->localData->ataFrom);

	mov	eax, DWORD PTR _this$[ebp]
	mov	ecx, DWORD PTR [eax+132]
	call	?BaseData@SimObjectType@@QAEPAVFalconEntity@@XZ ; SimObjectType::BaseData
	mov	DWORD PTR tv835[ebp], eax
	mov	ecx, DWORD PTR _this$[ebp]
	mov	edx, DWORD PTR [ecx+132]
	mov	eax, DWORD PTR [edx+12]
	push	ecx
	movss	xmm0, DWORD PTR [eax+4]
	movss	DWORD PTR [esp], xmm0
	mov	ecx, DWORD PTR tv835[ebp]
	mov	edx, DWORD PTR [ecx]
	mov	ecx, DWORD PTR tv835[ebp]
	mov	eax, DWORD PTR [edx+220]
	call	eax
	push	ecx
	fstp	DWORD PTR [esp]
	mov	ecx, DWORD PTR _this$[ebp]
	mov	edx, DWORD PTR [ecx+132]
	mov	eax, DWORD PTR [edx+12]
	push	ecx
	movss	xmm0, DWORD PTR [eax+16]
	movss	DWORD PTR [esp], xmm0
	mov	ecx, DWORD PTR _this$[ebp]
	mov	edx, DWORD PTR _this$[ebp]
	mov	eax, DWORD PTR [edx+140]
	mov	edx, DWORD PTR [eax]
	mov	ecx, DWORD PTR [ecx+140]
	mov	eax, DWORD PTR [edx+220]
	call	eax
	push	ecx
	fstp	DWORD PTR [esp]
	mov	ecx, DWORD PTR _this$[ebp]
	mov	ecx, DWORD PTR [ecx+140]
	call	?ZPos@VuEntity@@QBEMXZ			; VuEntity::ZPos
	fstp	DWORD PTR tv2274[ebp]
	movss	xmm0, DWORD PTR tv2274[ebp]
	xorps	xmm0, DWORD PTR __xmm@80000000800000008000000080000000
	push	ecx
	movss	DWORD PTR [esp], xmm0
	mov	ecx, DWORD PTR _theMissile$[ebp]
	call	?GetRMax@MissileClass@@QAEMMMMMM@Z	; MissileClass::GetRMax
	mov	edx, DWORD PTR _this$[ebp]
	fstp	DWORD PTR [edx+288]

; 486  : 				//me123
; 487  : 				missileMaxTof = theMissile->GetmaxTof()  ;//me123

	mov	ecx, DWORD PTR _theMissile$[ebp]
	call	?GetmaxTof@MissileClass@@QAEMXZ		; MissileClass::GetmaxTof
	mov	eax, DWORD PTR _this$[ebp]
	fstp	DWORD PTR [eax+264]

; 488  : 				theMissile->SetSeekerPos(&targetPtr->localData->az, &targetPtr->localData->el);

	mov	ecx, DWORD PTR _this$[ebp]
	mov	edx, DWORD PTR [ecx+132]
	mov	eax, DWORD PTR [edx+12]
	add	eax, 28					; 0000001cH
	push	eax
	mov	ecx, DWORD PTR _this$[ebp]
	mov	edx, DWORD PTR [ecx+132]
	mov	eax, DWORD PTR [edx+12]
	add	eax, 16					; 00000010H
	push	eax
	mov	ecx, DWORD PTR _theMissile$[ebp]
	call	?SetSeekerPos@MissileClass@@QAEHPAM0@Z	; MissileClass::SetSeekerPos

; 489  : 				//if (g_bHardCoreReal && (	MI
; 490  : 				if(g_bRealisticAvionics && (
; 491  : 					theMissile->sensorArray[0]->Type() == SensorClass::Radar
; 492  : 					//|| theMissile->sensorArray[0]->Type() == SensorClass::RadarHoming
; 493  : 					))

	movzx	ecx, BYTE PTR ?g_bRealisticAvionics@@3_NA ; g_bRealisticAvionics
	test	ecx, ecx
	je	$LN37@AirAirMode
	mov	edx, 4
	imul	edx, 0
	mov	eax, DWORD PTR _theMissile$[ebp]
	mov	ecx, DWORD PTR [eax+648]
	mov	ecx, DWORD PTR [ecx+edx]
	call	?Type@SensorClass@@QAE?AW4SensorType@1@XZ ; SensorClass::Type
	cmp	eax, 1
	jne	$LN37@AirAirMode

; 494  : 				{
; 495  : 					static const float MISSILE_ALTITUDE_BONUS = 23.0f; // JB 010215 changed from 24 to 23
; 496  : 					static const float	MISSILE_SPEED = 1500.0f; // JB 010215 changed from 1300 to 1500
; 497  : 					static const float MISSILE_TEORY_SPEED = 2900.0f;
; 498  : 					float missileTeoryRMax   = theMissile->GetRMax (30000.0f, 400.0f*KNOTS_TO_FTPSEC ,0.0f, 400.0f*KNOTS_TO_FTPSEC, 0.0f);

	push	ecx
	movss	xmm0, DWORD PTR __real@00000000
	movss	DWORD PTR [esp], xmm0
	push	ecx
	movss	xmm0, DWORD PTR __real@4428c89a
	movss	DWORD PTR [esp], xmm0
	push	ecx
	movss	xmm0, DWORD PTR __real@00000000
	movss	DWORD PTR [esp], xmm0
	push	ecx
	movss	xmm0, DWORD PTR __real@4428c89a
	movss	DWORD PTR [esp], xmm0
	push	ecx
	movss	xmm0, DWORD PTR __real@46ea6000
	movss	DWORD PTR [esp], xmm0
	mov	ecx, DWORD PTR _theMissile$[ebp]
	call	?GetRMax@MissileClass@@QAEMMMMMM@Z	; MissileClass::GetRMax
	fstp	DWORD PTR _missileTeoryRMax$18[ebp]

; 499  : 
; 500  : 					float overtake = MISSILE_SPEED +  (-targetPtr->BaseData()->ZPos()/1000.0f * MISSILE_ALTITUDE_BONUS)+ 
; 501  : 									targetPtr->BaseData()->GetVt()* (float)cos(targetPtr->localData->ataFrom);

	mov	edx, DWORD PTR _this$[ebp]
	mov	ecx, DWORD PTR [edx+132]
	call	?BaseData@SimObjectType@@QAEPAVFalconEntity@@XZ ; SimObjectType::BaseData
	mov	DWORD PTR tv915[ebp], eax
	mov	eax, DWORD PTR _this$[ebp]
	mov	ecx, DWORD PTR [eax+132]
	mov	edx, DWORD PTR [ecx+12]
	push	ecx
	movss	xmm0, DWORD PTR [edx+4]
	movss	DWORD PTR [esp], xmm0
	call	?cos@@YAMM@Z				; cos
	add	esp, 4
	fstp	DWORD PTR tv2315[ebp]
	movss	xmm0, DWORD PTR tv2315[ebp]
	mov	eax, DWORD PTR tv915[ebp]
	mov	edx, DWORD PTR [eax]
	mov	ecx, DWORD PTR tv915[ebp]
	mov	eax, DWORD PTR [edx+220]
	movss	DWORD PTR tv2827[ebp], xmm0
	call	eax
	fstp	DWORD PTR tv2321[ebp]
	movss	xmm0, DWORD PTR tv2321[ebp]
	movss	xmm1, DWORD PTR tv2827[ebp]
	mulss	xmm0, xmm1
	mov	ecx, DWORD PTR _this$[ebp]
	mov	ecx, DWORD PTR [ecx+132]
	movss	DWORD PTR tv2829[ebp], xmm0
	call	?BaseData@SimObjectType@@QAEPAVFalconEntity@@XZ ; SimObjectType::BaseData
	mov	ecx, eax
	call	?ZPos@VuEntity@@QBEMXZ			; VuEntity::ZPos
	fstp	DWORD PTR tv2327[ebp]
	movss	xmm0, DWORD PTR tv2327[ebp]
	xorps	xmm0, DWORD PTR __xmm@80000000800000008000000080000000
	divss	xmm0, DWORD PTR __real@447a0000
	mulss	xmm0, DWORD PTR ?MISSILE_ALTITUDE_BONUS@?NG@??AirAirMode@FireControlComputer@@AAEXXZ@4MB
	addss	xmm0, DWORD PTR ?MISSILE_SPEED@?NG@??AirAirMode@FireControlComputer@@AAEXXZ@4MB
	movss	xmm1, DWORD PTR tv2829[ebp]
	addss	xmm0, xmm1
	movss	DWORD PTR _overtake$20[ebp], xmm0

; 502  : 					overtake = overtake + ((platform->GetVt() * FTPSEC_TO_KNOTS - 150.0f)/2 );//me123 platform speed bonus // JB 010215 changed from 250 to 150

	mov	edx, DWORD PTR _this$[ebp]
	mov	eax, DWORD PTR [edx+140]
	mov	ecx, DWORD PTR _this$[ebp]
	mov	edx, DWORD PTR [eax]
	mov	ecx, DWORD PTR [ecx+140]
	mov	eax, DWORD PTR [edx+220]
	call	eax
	fstp	DWORD PTR tv2335[ebp]
	movss	xmm0, DWORD PTR tv2335[ebp]
	mulss	xmm0, DWORD PTR __real@3f17ac60
	subss	xmm0, DWORD PTR __real@43160000
	divss	xmm0, DWORD PTR __real@40000000
	addss	xmm0, DWORD PTR _overtake$20[ebp]
	movss	DWORD PTR _overtake$20[ebp], xmm0

; 503  : 
; 504  : 					float missileteoryMaxTof = min (missileMaxTof-8.0f,missileTeoryRMax / MISSILE_TEORY_SPEED);

	mov	ecx, DWORD PTR _this$[ebp]
	movss	xmm0, DWORD PTR [ecx+264]
	subss	xmm0, DWORD PTR __real@41000000
	movss	xmm1, DWORD PTR _missileTeoryRMax$18[ebp]
	divss	xmm1, DWORD PTR ?MISSILE_TEORY_SPEED@?NG@??AirAirMode@FireControlComputer@@AAEXXZ@4MB
	comiss	xmm1, xmm0
	jbe	SHORT $LN150@AirAirMode
	mov	edx, DWORD PTR _this$[ebp]
	movss	xmm0, DWORD PTR [edx+264]
	subss	xmm0, DWORD PTR __real@41000000
	movss	DWORD PTR tv955[ebp], xmm0
	jmp	SHORT $LN151@AirAirMode
$LN150@AirAirMode:
	movss	xmm0, DWORD PTR _missileTeoryRMax$18[ebp]
	divss	xmm0, DWORD PTR ?MISSILE_TEORY_SPEED@?NG@??AirAirMode@FireControlComputer@@AAEXXZ@4MB
	movss	DWORD PTR tv955[ebp], xmm0
$LN151@AirAirMode:
	movss	xmm0, DWORD PTR tv955[ebp]
	movss	DWORD PTR _missileteoryMaxTof$21[ebp], xmm0

; 505  : 					missileteoryMaxTof += -5.0F * (float) sin(.07F * missileteoryMaxTof); // JB 010215

	movss	xmm0, DWORD PTR __real@3d8f5c29
	mulss	xmm0, DWORD PTR _missileteoryMaxTof$21[ebp]
	push	ecx
	movss	DWORD PTR [esp], xmm0
	call	?sin@@YAMM@Z				; sin
	add	esp, 4
	fstp	DWORD PTR tv2349[ebp]
	movss	xmm0, DWORD PTR tv2349[ebp]
	mulss	xmm0, DWORD PTR __real@c0a00000
	addss	xmm0, DWORD PTR _missileteoryMaxTof$21[ebp]
	movss	DWORD PTR _missileteoryMaxTof$21[ebp], xmm0

; 506  : 					// digi's don't shoot semi's if agregate now, so this is ok
; 507  : 					/*if (((AircraftClass *)theMissile->parent)->isDigital &&
; 508  : 							(theMissile->sensorArray[0]->Type() == SensorClass::Radar ||
; 509  : 							theMissile->sensorArray[0]->Type() == SensorClass::RadarHoming &&
; 510  : 							overtake * missileteoryMaxTof < missileRMax)) 
; 511  : 						missileRMax   = overtake * missileteoryMaxTof;// missileMaxTof;
; 512  : 
; 513  : 					else if (!((AircraftClass *)theMissile->parent)->isDigital) */
; 514  : 					 missileRMax   = overtake * missileteoryMaxTof;

	movss	xmm0, DWORD PTR _overtake$20[ebp]
	mulss	xmm0, DWORD PTR _missileteoryMaxTof$21[ebp]
	mov	eax, DWORD PTR _this$[ebp]
	movss	DWORD PTR [eax+288], xmm0
$LN37@AirAirMode:

; 515  : 				}
; 516  : 				missileActiveRange = theMissile->GetActiveRange (-platform->ZPos(), platform->GetVt(), targetPtr->localData->ataFrom, 0.0F, targetPtr->localData->range);

	mov	ecx, DWORD PTR _this$[ebp]
	mov	edx, DWORD PTR [ecx+132]
	mov	eax, DWORD PTR [edx+12]
	push	ecx
	movss	xmm0, DWORD PTR [eax+44]
	movss	DWORD PTR [esp], xmm0
	push	ecx
	movss	xmm0, DWORD PTR __real@00000000
	movss	DWORD PTR [esp], xmm0
	mov	ecx, DWORD PTR _this$[ebp]
	mov	edx, DWORD PTR [ecx+132]
	mov	eax, DWORD PTR [edx+12]
	push	ecx
	movss	xmm0, DWORD PTR [eax+4]
	movss	DWORD PTR [esp], xmm0
	mov	ecx, DWORD PTR _this$[ebp]
	mov	edx, DWORD PTR [ecx+140]
	mov	eax, DWORD PTR _this$[ebp]
	mov	edx, DWORD PTR [edx]
	mov	ecx, DWORD PTR [eax+140]
	mov	eax, DWORD PTR [edx+220]
	call	eax
	push	ecx
	fstp	DWORD PTR [esp]
	mov	ecx, DWORD PTR _this$[ebp]
	mov	ecx, DWORD PTR [ecx+140]
	call	?ZPos@VuEntity@@QBEMXZ			; VuEntity::ZPos
	fstp	DWORD PTR tv2365[ebp]
	movss	xmm0, DWORD PTR tv2365[ebp]
	xorps	xmm0, DWORD PTR __xmm@80000000800000008000000080000000
	push	ecx
	movss	DWORD PTR [esp], xmm0
	mov	ecx, DWORD PTR _theMissile$[ebp]
	call	?GetActiveRange@MissileClass@@QAEMMMMMM@Z ; MissileClass::GetActiveRange
	mov	edx, DWORD PTR _this$[ebp]
	fstp	DWORD PTR [edx+284]

; 517  : 				missileActiveTime  = theMissile->GetActiveTime  (-platform->ZPos(), platform->GetVt(), targetPtr->localData->ataFrom, 0.0F, targetPtr->localData->range);

	mov	eax, DWORD PTR _this$[ebp]
	mov	ecx, DWORD PTR [eax+132]
	mov	edx, DWORD PTR [ecx+12]
	push	ecx
	movss	xmm0, DWORD PTR [edx+44]
	movss	DWORD PTR [esp], xmm0
	push	ecx
	movss	xmm0, DWORD PTR __real@00000000
	movss	DWORD PTR [esp], xmm0
	mov	eax, DWORD PTR _this$[ebp]
	mov	ecx, DWORD PTR [eax+132]
	mov	edx, DWORD PTR [ecx+12]
	push	ecx
	movss	xmm0, DWORD PTR [edx+4]
	movss	DWORD PTR [esp], xmm0
	mov	eax, DWORD PTR _this$[ebp]
	mov	ecx, DWORD PTR [eax+140]
	mov	edx, DWORD PTR _this$[ebp]
	mov	eax, DWORD PTR [ecx]
	mov	ecx, DWORD PTR [edx+140]
	mov	edx, DWORD PTR [eax+220]
	call	edx
	push	ecx
	fstp	DWORD PTR [esp]
	mov	eax, DWORD PTR _this$[ebp]
	mov	ecx, DWORD PTR [eax+140]
	call	?ZPos@VuEntity@@QBEMXZ			; VuEntity::ZPos
	fstp	DWORD PTR tv2389[ebp]
	movss	xmm0, DWORD PTR tv2389[ebp]
	xorps	xmm0, DWORD PTR __xmm@80000000800000008000000080000000
	push	ecx
	movss	DWORD PTR [esp], xmm0
	mov	ecx, DWORD PTR _theMissile$[ebp]
	call	?GetActiveTime@MissileClass@@QAEMMMMMM@Z ; MissileClass::GetActiveTime
	mov	ecx, DWORD PTR _this$[ebp]
	fstp	DWORD PTR [ecx+280]

; 518  : 				missileTOF         = theMissile->GetTOF(-platform->ZPos(), platform->GetVt(),targetPtr->localData->ataFrom, targetPtr->BaseData()->GetVt(), targetPtr->localData->range);				

	mov	edx, DWORD PTR _this$[ebp]
	mov	ecx, DWORD PTR [edx+132]
	call	?BaseData@SimObjectType@@QAEPAVFalconEntity@@XZ ; SimObjectType::BaseData
	mov	DWORD PTR tv1042[ebp], eax
	mov	eax, DWORD PTR _this$[ebp]
	mov	ecx, DWORD PTR [eax+132]
	mov	edx, DWORD PTR [ecx+12]
	push	ecx
	movss	xmm0, DWORD PTR [edx+44]
	movss	DWORD PTR [esp], xmm0
	mov	eax, DWORD PTR tv1042[ebp]
	mov	edx, DWORD PTR [eax]
	mov	ecx, DWORD PTR tv1042[ebp]
	mov	eax, DWORD PTR [edx+220]
	call	eax
	push	ecx
	fstp	DWORD PTR [esp]
	mov	ecx, DWORD PTR _this$[ebp]
	mov	edx, DWORD PTR [ecx+132]
	mov	eax, DWORD PTR [edx+12]
	push	ecx
	movss	xmm0, DWORD PTR [eax+4]
	movss	DWORD PTR [esp], xmm0
	mov	ecx, DWORD PTR _this$[ebp]
	mov	edx, DWORD PTR _this$[ebp]
	mov	eax, DWORD PTR [edx+140]
	mov	edx, DWORD PTR [eax]
	mov	ecx, DWORD PTR [ecx+140]
	mov	eax, DWORD PTR [edx+220]
	call	eax
	push	ecx
	fstp	DWORD PTR [esp]
	mov	ecx, DWORD PTR _this$[ebp]
	mov	ecx, DWORD PTR [ecx+140]
	call	?ZPos@VuEntity@@QBEMXZ			; VuEntity::ZPos
	fstp	DWORD PTR tv2419[ebp]
	movss	xmm0, DWORD PTR tv2419[ebp]
	xorps	xmm0, DWORD PTR __xmm@80000000800000008000000080000000
	push	ecx
	movss	DWORD PTR [esp], xmm0
	mov	ecx, DWORD PTR _theMissile$[ebp]
	call	?GetTOF@MissileClass@@QAEMMMMMM@Z	; MissileClass::GetTOF
	mov	edx, DWORD PTR _this$[ebp]
	fstp	DWORD PTR [edx+232]

; 519  : 				//LRKLUDGE
; 520  : 				missileRMin   = (platform->GetVt()+targetPtr->BaseData()->GetVt() * ((float)cos(targetPtr->localData->ataFrom)))*2.05f + 1400 +
; 521  : 								 (1000 * targetPtr->localData->ata  * RTD / 10.0f)+
; 522  : 								 (2000 * (float)sin(targetPtr->localData->ataFrom)); //me123 status test. changed from  missileRMax;

	mov	eax, DWORD PTR _this$[ebp]
	mov	ecx, DWORD PTR [eax+132]
	call	?BaseData@SimObjectType@@QAEPAVFalconEntity@@XZ ; SimObjectType::BaseData
	mov	DWORD PTR tv1090[ebp], eax
	mov	ecx, DWORD PTR _this$[ebp]
	mov	edx, DWORD PTR [ecx+132]
	mov	eax, DWORD PTR [edx+12]
	push	ecx
	movss	xmm0, DWORD PTR [eax+4]
	movss	DWORD PTR [esp], xmm0
	call	?sin@@YAMM@Z				; sin
	add	esp, 4
	fstp	DWORD PTR tv2440[ebp]
	movss	xmm0, DWORD PTR tv2440[ebp]
	mulss	xmm0, DWORD PTR __real@44fa0000
	mov	ecx, DWORD PTR _this$[ebp]
	mov	edx, DWORD PTR [ecx+132]
	mov	eax, DWORD PTR [edx+12]
	movss	xmm1, DWORD PTR __real@447a0000
	mulss	xmm1, DWORD PTR [eax]
	mulss	xmm1, DWORD PTR __real@42652ee1
	divss	xmm1, DWORD PTR __real@41200000
	mov	ecx, DWORD PTR _this$[ebp]
	mov	edx, DWORD PTR [ecx+132]
	mov	eax, DWORD PTR [edx+12]
	push	ecx
	movss	xmm2, DWORD PTR [eax+4]
	movss	DWORD PTR [esp], xmm2
	movss	DWORD PTR tv2831[ebp], xmm0
	movss	DWORD PTR tv2833[ebp], xmm1
	call	?cos@@YAMM@Z				; cos
	add	esp, 4
	fstp	DWORD PTR tv2451[ebp]
	movss	xmm0, DWORD PTR tv2451[ebp]
	mov	ecx, DWORD PTR tv1090[ebp]
	mov	edx, DWORD PTR [ecx]
	mov	ecx, DWORD PTR tv1090[ebp]
	mov	eax, DWORD PTR [edx+220]
	movss	DWORD PTR tv2835[ebp], xmm0
	call	eax
	fstp	DWORD PTR tv2457[ebp]
	movss	xmm0, DWORD PTR tv2457[ebp]
	movss	xmm1, DWORD PTR tv2835[ebp]
	mulss	xmm0, xmm1
	mov	ecx, DWORD PTR _this$[ebp]
	mov	edx, DWORD PTR _this$[ebp]
	mov	eax, DWORD PTR [edx+140]
	mov	edx, DWORD PTR [eax]
	mov	ecx, DWORD PTR [ecx+140]
	mov	eax, DWORD PTR [edx+220]
	movss	DWORD PTR tv2837[ebp], xmm0
	call	eax
	fstp	DWORD PTR tv2464[ebp]
	movss	xmm0, DWORD PTR tv2464[ebp]
	movss	xmm1, DWORD PTR tv2837[ebp]
	addss	xmm0, xmm1
	mulss	xmm0, DWORD PTR __real@40033333
	addss	xmm0, DWORD PTR __real@44af0000
	movss	xmm1, DWORD PTR tv2833[ebp]
	addss	xmm0, xmm1
	movss	xmm1, DWORD PTR tv2831[ebp]
	addss	xmm0, xmm1
	mov	ecx, DWORD PTR _this$[ebp]
	movss	DWORD PTR [ecx+292], xmm0

; 523  : 				
; 524  : 				// JB 020123 More realistic RneMax value HACK
; 525  : 				// The real calculation of RneMax should be for an aircraft to make 6.5G turn to zero aspect 
; 526  : 				// (headed straight away) accelerating at 1G to 300 knots over their current speed.
; 527  : 				if (g_nRNESpeed)

	cmp	DWORD PTR ?g_nRNESpeed@@3HA, 0		; g_nRNESpeed
	je	$LN36@AirAirMode

; 528  : 				{
; 529  : 					missileRneMax = missileRMax * 1500 / (1500.0F + platform->GetVt() + targetPtr->BaseData()->GetVt() * (float)cos(targetPtr->localData->az));

	mov	edx, DWORD PTR _this$[ebp]
	mov	ecx, DWORD PTR [edx+132]
	call	?BaseData@SimObjectType@@QAEPAVFalconEntity@@XZ ; SimObjectType::BaseData
	mov	DWORD PTR tv1142[ebp], eax
	mov	eax, DWORD PTR _this$[ebp]
	mov	ecx, DWORD PTR [eax+132]
	mov	edx, DWORD PTR [ecx+12]
	push	ecx
	movss	xmm0, DWORD PTR [edx+16]
	movss	DWORD PTR [esp], xmm0
	call	?cos@@YAMM@Z				; cos
	add	esp, 4
	fstp	DWORD PTR tv2474[ebp]
	movss	xmm0, DWORD PTR tv2474[ebp]
	mov	eax, DWORD PTR tv1142[ebp]
	mov	edx, DWORD PTR [eax]
	mov	ecx, DWORD PTR tv1142[ebp]
	mov	eax, DWORD PTR [edx+220]
	movss	DWORD PTR tv2839[ebp], xmm0
	call	eax
	fstp	DWORD PTR tv2480[ebp]
	movss	xmm0, DWORD PTR tv2480[ebp]
	movss	xmm1, DWORD PTR tv2839[ebp]
	mulss	xmm0, xmm1
	mov	ecx, DWORD PTR _this$[ebp]
	mov	edx, DWORD PTR _this$[ebp]
	mov	eax, DWORD PTR [edx+140]
	mov	edx, DWORD PTR [eax]
	mov	ecx, DWORD PTR [ecx+140]
	mov	eax, DWORD PTR [edx+220]
	movss	DWORD PTR tv2841[ebp], xmm0
	call	eax
	fstp	DWORD PTR tv2487[ebp]
	movss	xmm0, DWORD PTR tv2487[ebp]
	addss	xmm0, DWORD PTR __real@44bb8000
	movss	xmm1, DWORD PTR tv2841[ebp]
	addss	xmm0, xmm1
	mov	ecx, DWORD PTR _this$[ebp]
	movss	xmm1, DWORD PTR [ecx+288]
	mulss	xmm1, DWORD PTR __real@44bb8000
	divss	xmm1, xmm0
	mov	edx, DWORD PTR _this$[ebp]
	movss	DWORD PTR [edx+296], xmm1

; 530  : 					missileRneMax = missileRneMax * (1500.0F + platform->GetVt() + -(targetPtr->BaseData()->GetVt() + g_nRNESpeed * KNOTS_TO_FTPSEC)) / 1500.0F;

	mov	eax, DWORD PTR _this$[ebp]
	mov	ecx, DWORD PTR [eax+132]
	call	?BaseData@SimObjectType@@QAEPAVFalconEntity@@XZ ; SimObjectType::BaseData
	mov	DWORD PTR tv1174[ebp], eax
	cvtsi2ss xmm0, DWORD PTR ?g_nRNESpeed@@3HA	; g_nRNESpeed
	mulss	xmm0, DWORD PTR __real@3fd80b03
	mov	ecx, DWORD PTR tv1174[ebp]
	mov	edx, DWORD PTR [ecx]
	mov	ecx, DWORD PTR tv1174[ebp]
	mov	eax, DWORD PTR [edx+220]
	movss	DWORD PTR tv2843[ebp], xmm0
	call	eax
	fstp	DWORD PTR tv2499[ebp]
	movss	xmm0, DWORD PTR tv2499[ebp]
	movss	xmm1, DWORD PTR tv2843[ebp]
	addss	xmm0, xmm1
	xorps	xmm0, DWORD PTR __xmm@80000000800000008000000080000000
	mov	ecx, DWORD PTR _this$[ebp]
	mov	edx, DWORD PTR _this$[ebp]
	mov	eax, DWORD PTR [edx+140]
	mov	edx, DWORD PTR [eax]
	mov	ecx, DWORD PTR [ecx+140]
	mov	eax, DWORD PTR [edx+220]
	movss	DWORD PTR tv2845[ebp], xmm0
	call	eax
	fstp	DWORD PTR tv2506[ebp]
	movss	xmm0, DWORD PTR tv2506[ebp]
	addss	xmm0, DWORD PTR __real@44bb8000
	movss	xmm1, DWORD PTR tv2845[ebp]
	addss	xmm0, xmm1
	mov	ecx, DWORD PTR _this$[ebp]
	mulss	xmm0, DWORD PTR [ecx+296]
	divss	xmm0, DWORD PTR __real@44bb8000
	mov	edx, DWORD PTR _this$[ebp]
	movss	DWORD PTR [edx+296], xmm0

; 531  : 					missileRneMin = 0.26F * missileRneMax;

	mov	eax, DWORD PTR _this$[ebp]
	movss	xmm0, DWORD PTR __real@3e851eb8
	mulss	xmm0, DWORD PTR [eax+296]
	mov	ecx, DWORD PTR _this$[ebp]
	movss	DWORD PTR [ecx+300], xmm0

; 532  : 				}
; 533  : 				else

	jmp	SHORT $LN35@AirAirMode
$LN36@AirAirMode:

; 534  : 				{
; 535  : 					missileRneMax = 0.75F * missileRMax; 

	mov	edx, DWORD PTR _this$[ebp]
	movss	xmm0, DWORD PTR __real@3f400000
	mulss	xmm0, DWORD PTR [edx+288]
	mov	eax, DWORD PTR _this$[ebp]
	movss	DWORD PTR [eax+296], xmm0

; 536  : 					missileRneMin = 0.2F * missileRMax;

	mov	ecx, DWORD PTR _this$[ebp]
	movss	xmm0, DWORD PTR __real@3e4ccccd
	mulss	xmm0, DWORD PTR [ecx+288]
	mov	edx, DWORD PTR _this$[ebp]
	movss	DWORD PTR [edx+300], xmm0
$LN35@AirAirMode:

; 537  : 				}
; 538  : 
; 539  : 				if(missileRMin > missileRneMin) 

	mov	eax, DWORD PTR _this$[ebp]
	mov	ecx, DWORD PTR _this$[ebp]
	movss	xmm0, DWORD PTR [eax+292]
	comiss	xmm0, DWORD PTR [ecx+300]
	jbe	SHORT $LN34@AirAirMode

; 540  : 					missileRneMin = missileRMin;//me123  addet.

	mov	edx, DWORD PTR _this$[ebp]
	mov	eax, DWORD PTR _this$[ebp]
	mov	ecx, DWORD PTR [eax+292]
	mov	DWORD PTR [edx+300], ecx
$LN34@AirAirMode:

; 541  : 			}

	jmp	$LN17@AirAirMode
$LN38@AirAirMode:

; 542  : 			else if (!theMissile->isCaged)

	mov	edx, DWORD PTR _theMissile$[ebp]
	cmp	DWORD PTR [edx+728], 0
	jne	$LN32@AirAirMode

; 543  : 			{
; 544  : 				if (theMissile->targetPtr)

	mov	eax, DWORD PTR _theMissile$[ebp]
	cmp	DWORD PTR [eax+656], 0
	je	$LN31@AirAirMode

; 545  : 				{
; 546  : 					missileTarget = TRUE;

	mov	ecx, DWORD PTR _this$[ebp]
	mov	BYTE PTR [ecx+192], 1

; 547  : 					missileActiveRange = theMissile->GetActiveRange (-platform->ZPos(), platform->GetVt(),
; 548  : 						theMissile->targetPtr->localData->ataFrom, 0.0F, theMissile->targetPtr->localData->range);

	mov	edx, DWORD PTR _theMissile$[ebp]
	mov	eax, DWORD PTR [edx+656]
	mov	ecx, DWORD PTR [eax+12]
	push	ecx
	movss	xmm0, DWORD PTR [ecx+44]
	movss	DWORD PTR [esp], xmm0
	push	ecx
	movss	xmm0, DWORD PTR __real@00000000
	movss	DWORD PTR [esp], xmm0
	mov	edx, DWORD PTR _theMissile$[ebp]
	mov	eax, DWORD PTR [edx+656]
	mov	ecx, DWORD PTR [eax+12]
	push	ecx
	movss	xmm0, DWORD PTR [ecx+4]
	movss	DWORD PTR [esp], xmm0
	mov	edx, DWORD PTR _this$[ebp]
	mov	eax, DWORD PTR [edx+140]
	mov	ecx, DWORD PTR _this$[ebp]
	mov	edx, DWORD PTR [eax]
	mov	ecx, DWORD PTR [ecx+140]
	mov	eax, DWORD PTR [edx+220]
	call	eax
	push	ecx
	fstp	DWORD PTR [esp]
	mov	ecx, DWORD PTR _this$[ebp]
	mov	ecx, DWORD PTR [ecx+140]
	call	?ZPos@VuEntity@@QBEMXZ			; VuEntity::ZPos
	fstp	DWORD PTR tv2540[ebp]
	movss	xmm0, DWORD PTR tv2540[ebp]
	xorps	xmm0, DWORD PTR __xmm@80000000800000008000000080000000
	push	ecx
	movss	DWORD PTR [esp], xmm0
	mov	ecx, DWORD PTR _theMissile$[ebp]
	call	?GetActiveRange@MissileClass@@QAEMMMMMM@Z ; MissileClass::GetActiveRange
	mov	edx, DWORD PTR _this$[ebp]
	fstp	DWORD PTR [edx+284]

; 549  : 					missileActiveTime  = theMissile->GetActiveTime  (-platform->ZPos(), platform->GetVt(),
; 550  : 						theMissile->targetPtr->localData->ataFrom, 0.0F, theMissile->targetPtr->localData->range);

	mov	eax, DWORD PTR _theMissile$[ebp]
	mov	ecx, DWORD PTR [eax+656]
	mov	edx, DWORD PTR [ecx+12]
	push	ecx
	movss	xmm0, DWORD PTR [edx+44]
	movss	DWORD PTR [esp], xmm0
	push	ecx
	movss	xmm0, DWORD PTR __real@00000000
	movss	DWORD PTR [esp], xmm0
	mov	eax, DWORD PTR _theMissile$[ebp]
	mov	ecx, DWORD PTR [eax+656]
	mov	edx, DWORD PTR [ecx+12]
	push	ecx
	movss	xmm0, DWORD PTR [edx+4]
	movss	DWORD PTR [esp], xmm0
	mov	eax, DWORD PTR _this$[ebp]
	mov	ecx, DWORD PTR [eax+140]
	mov	edx, DWORD PTR _this$[ebp]
	mov	eax, DWORD PTR [ecx]
	mov	ecx, DWORD PTR [edx+140]
	mov	edx, DWORD PTR [eax+220]
	call	edx
	push	ecx
	fstp	DWORD PTR [esp]
	mov	eax, DWORD PTR _this$[ebp]
	mov	ecx, DWORD PTR [eax+140]
	call	?ZPos@VuEntity@@QBEMXZ			; VuEntity::ZPos
	fstp	DWORD PTR tv2564[ebp]
	movss	xmm0, DWORD PTR tv2564[ebp]
	xorps	xmm0, DWORD PTR __xmm@80000000800000008000000080000000
	push	ecx
	movss	DWORD PTR [esp], xmm0
	mov	ecx, DWORD PTR _theMissile$[ebp]
	call	?GetActiveTime@MissileClass@@QAEMMMMMM@Z ; MissileClass::GetActiveTime
	mov	ecx, DWORD PTR _this$[ebp]
	fstp	DWORD PTR [ecx+280]

; 551  : 					missileTOF         = theMissile->GetTOF(-platform->ZPos(), platform->GetVt(),
; 552  : 						theMissile->targetPtr->localData->ataFrom, theMissile->targetPtr->BaseData()->GetVt(), theMissile->targetPtr->localData->range);

	mov	edx, DWORD PTR _theMissile$[ebp]
	mov	ecx, DWORD PTR [edx+656]
	call	?BaseData@SimObjectType@@QAEPAVFalconEntity@@XZ ; SimObjectType::BaseData
	mov	DWORD PTR tv1313[ebp], eax
	mov	eax, DWORD PTR _theMissile$[ebp]
	mov	ecx, DWORD PTR [eax+656]
	mov	edx, DWORD PTR [ecx+12]
	push	ecx
	movss	xmm0, DWORD PTR [edx+44]
	movss	DWORD PTR [esp], xmm0
	mov	eax, DWORD PTR tv1313[ebp]
	mov	edx, DWORD PTR [eax]
	mov	ecx, DWORD PTR tv1313[ebp]
	mov	eax, DWORD PTR [edx+220]
	call	eax
	push	ecx
	fstp	DWORD PTR [esp]
	mov	ecx, DWORD PTR _theMissile$[ebp]
	mov	edx, DWORD PTR [ecx+656]
	mov	eax, DWORD PTR [edx+12]
	push	ecx
	movss	xmm0, DWORD PTR [eax+4]
	movss	DWORD PTR [esp], xmm0
	mov	ecx, DWORD PTR _this$[ebp]
	mov	edx, DWORD PTR _this$[ebp]
	mov	eax, DWORD PTR [edx+140]
	mov	edx, DWORD PTR [eax]
	mov	ecx, DWORD PTR [ecx+140]
	mov	eax, DWORD PTR [edx+220]
	call	eax
	push	ecx
	fstp	DWORD PTR [esp]
	mov	ecx, DWORD PTR _this$[ebp]
	mov	ecx, DWORD PTR [ecx+140]
	call	?ZPos@VuEntity@@QBEMXZ			; VuEntity::ZPos
	fstp	DWORD PTR tv2594[ebp]
	movss	xmm0, DWORD PTR tv2594[ebp]
	xorps	xmm0, DWORD PTR __xmm@80000000800000008000000080000000
	push	ecx
	movss	DWORD PTR [esp], xmm0
	mov	ecx, DWORD PTR _theMissile$[ebp]
	call	?GetTOF@MissileClass@@QAEMMMMMM@Z	; MissileClass::GetTOF
	mov	edx, DWORD PTR _this$[ebp]
	fstp	DWORD PTR [edx+232]

; 553  : 					theMissile->RunSeeker();

	mov	ecx, DWORD PTR _theMissile$[ebp]
	call	?RunSeeker@MissileClass@@QAEXXZ		; MissileClass::RunSeeker
	jmp	$LN28@AirAirMode
$LN31@AirAirMode:

; 554  : 				}
; 555  : 				// Marco Edit - only want IR missiles to 'search'
; 556  : 				else if (Sms->curWeaponType == wtAim9 && theMissile->sensorArray)

	mov	eax, DWORD PTR _this$[ebp]
	mov	ecx, DWORD PTR [eax+408]
	cmp	DWORD PTR [ecx+148], 1
	jne	$LN29@AirAirMode
	mov	edx, DWORD PTR _theMissile$[ebp]
	cmp	DWORD PTR [edx+648], 0
	je	$LN29@AirAirMode

; 557  : 				{
; 558  : 					missileTarget = FALSE;

	mov	eax, DWORD PTR _this$[ebp]
	mov	BYTE PTR [eax+192], 0

; 559  : 					missileTOF      = 0.0F;

	mov	ecx, DWORD PTR _this$[ebp]
	movss	xmm0, DWORD PTR __real@00000000
	movss	DWORD PTR [ecx+232], xmm0

; 560  : 					float Az = theMissile->sensorArray[0]->SeekerAz() + ((0.1F  - 0.31f*(float)rand()/(float)RAND_MAX) * DTR);//me123 dangle 0.0F;

	mov	edx, 4
	imul	edx, 0
	mov	eax, DWORD PTR _theMissile$[ebp]
	mov	ecx, DWORD PTR [eax+648]
	mov	ecx, DWORD PTR [ecx+edx]
	call	?SeekerAz@SensorClass@@QAEMXZ		; SensorClass::SeekerAz
	fstp	DWORD PTR tv2617[ebp]
	movss	xmm0, DWORD PTR tv2617[ebp]
	movss	DWORD PTR tv2847[ebp], xmm0
	call	_rand
	cvtsi2ss xmm0, eax
	mulss	xmm0, DWORD PTR __real@3e9eb852
	divss	xmm0, DWORD PTR __real@46fffe00
	movss	xmm1, DWORD PTR __real@3dcccccd
	subss	xmm1, xmm0
	mulss	xmm1, DWORD PTR __real@3c8efa34
	movss	xmm0, DWORD PTR tv2847[ebp]
	addss	xmm0, xmm1
	movss	DWORD PTR _Az$14[ebp], xmm0

; 561  : 					Az = theMissile->sensorArray[0]->SeekerAz()- ((0.1F - 0.33f*(float)rand()/(float)RAND_MAX) * DTR);//me123 dangle 0.0F;

	mov	edx, 4
	imul	edx, 0
	mov	eax, DWORD PTR _theMissile$[ebp]
	mov	ecx, DWORD PTR [eax+648]
	mov	ecx, DWORD PTR [ecx+edx]
	call	?SeekerAz@SensorClass@@QAEMXZ		; SensorClass::SeekerAz
	fstp	DWORD PTR tv2626[ebp]
	movss	xmm0, DWORD PTR tv2626[ebp]
	movss	DWORD PTR tv2977[ebp], xmm0
	call	_rand
	cvtsi2ss xmm0, eax
	mulss	xmm0, DWORD PTR __real@3ea8f5c3
	divss	xmm0, DWORD PTR __real@46fffe00
	movss	xmm1, DWORD PTR __real@3dcccccd
	subss	xmm1, xmm0
	mulss	xmm1, DWORD PTR __real@3c8efa34
	movss	xmm0, DWORD PTR tv2977[ebp]
	subss	xmm0, xmm1
	movss	DWORD PTR _Az$14[ebp], xmm0

; 562  : 					float El = theMissile->sensorArray[0]->SeekerEl()+ ((0.1F-6.0F * DTR - 0.24F*(float)rand()/(float)RAND_MAX) * DTR);//me123 dangle-6.0F * DTR;

	mov	edx, 4
	imul	edx, 0
	mov	eax, DWORD PTR _theMissile$[ebp]
	mov	ecx, DWORD PTR [eax+648]
	mov	ecx, DWORD PTR [ecx+edx]
	call	?SeekerEl@SensorClass@@QAEMXZ		; SensorClass::SeekerEl
	fstp	DWORD PTR tv2635[ebp]
	movss	xmm0, DWORD PTR tv2635[ebp]
	movss	DWORD PTR tv2979[ebp], xmm0
	call	_rand
	cvtsi2ss xmm0, eax
	mulss	xmm0, DWORD PTR __real@3e75c28f
	divss	xmm0, DWORD PTR __real@46fffe00
	movss	xmm1, DWORD PTR __real@bb9aa810
	subss	xmm1, xmm0
	mulss	xmm1, DWORD PTR __real@3c8efa34
	movss	xmm0, DWORD PTR tv2979[ebp]
	addss	xmm0, xmm1
	movss	DWORD PTR _El$15[ebp], xmm0

; 563  : 					El = theMissile->sensorArray[0]->SeekerEl()- ((0.1F-6.0F * DTR - 0.28F*(float)rand()/(float)RAND_MAX) * DTR);//me123 dangle-6.0F * DTR;

	mov	edx, 4
	imul	edx, 0
	mov	eax, DWORD PTR _theMissile$[ebp]
	mov	ecx, DWORD PTR [eax+648]
	mov	ecx, DWORD PTR [ecx+edx]
	call	?SeekerEl@SensorClass@@QAEMXZ		; SensorClass::SeekerEl
	fstp	DWORD PTR tv2644[ebp]
	movss	xmm0, DWORD PTR tv2644[ebp]
	movss	DWORD PTR tv2981[ebp], xmm0
	call	_rand
	cvtsi2ss xmm0, eax
	mulss	xmm0, DWORD PTR __real@3e8f5c29
	divss	xmm0, DWORD PTR __real@46fffe00
	movss	xmm1, DWORD PTR __real@bb9aa810
	subss	xmm1, xmm0
	mulss	xmm1, DWORD PTR __real@3c8efa34
	movss	xmm0, DWORD PTR tv2981[ebp]
	subss	xmm0, xmm1
	movss	DWORD PTR _El$15[ebp], xmm0

; 564  : 					theMissile->SetSeekerPos (&Az,&El);						

	lea	edx, DWORD PTR _El$15[ebp]
	push	edx
	lea	eax, DWORD PTR _Az$14[ebp]
	push	eax
	mov	ecx, DWORD PTR _theMissile$[ebp]
	call	?SetSeekerPos@MissileClass@@QAEHPAM0@Z	; MissileClass::SetSeekerPos

; 565  : 
; 566  : 				}
; 567  : 				else

	jmp	SHORT $LN28@AirAirMode
$LN29@AirAirMode:

; 568  : 				{
; 569  : 					missileTarget = FALSE;

	mov	ecx, DWORD PTR _this$[ebp]
	mov	BYTE PTR [ecx+192], 0

; 570  : 					missileTOF    = 0.0f;

	mov	edx, DWORD PTR _this$[ebp]
	movss	xmm0, DWORD PTR __real@00000000
	movss	DWORD PTR [edx+232], xmm0

; 571  : 					float a = 0;

	movss	xmm0, DWORD PTR __real@00000000
	movss	DWORD PTR _a$13[ebp], xmm0

; 572  : 					theMissile->SetSeekerPos (&a, &a);

	lea	eax, DWORD PTR _a$13[ebp]
	push	eax
	lea	ecx, DWORD PTR _a$13[ebp]
	push	ecx
	mov	ecx, DWORD PTR _theMissile$[ebp]
	call	?SetSeekerPos@MissileClass@@QAEHPAM0@Z	; MissileClass::SetSeekerPos
$LN28@AirAirMode:

; 573  : 				}

	jmp	$LN17@AirAirMode
$LN32@AirAirMode:

; 574  : 				
; 575  : 
; 576  : 			}
; 577  : 			// Nutating Seekerhead
; 578  : 			else if (g_bRealisticAvionics && theMissile->isCaged && !theMissile->isSpot)

	movzx	edx, BYTE PTR ?g_bRealisticAvionics@@3_NA ; g_bRealisticAvionics
	test	edx, edx
	je	$LN26@AirAirMode
	mov	eax, DWORD PTR _theMissile$[ebp]
	cmp	DWORD PTR [eax+728], 0
	je	$LN26@AirAirMode
	mov	ecx, DWORD PTR _theMissile$[ebp]
	cmp	DWORD PTR [ecx+732], 0
	jne	$LN26@AirAirMode

; 579  : 			{
; 580  : 				if (missileSeekerAz > 0.01)

	mov	edx, DWORD PTR _this$[ebp]
	cvtss2sd xmm0, DWORD PTR [edx+304]
	comisd	xmm0, QWORD PTR __real@3f847ae147ae147b
	jbe	SHORT $LN25@AirAirMode

; 581  : 					bAzReversed = true;

	mov	BYTE PTR ?bAzReversed@?1??AirAirMode@FireControlComputer@@AAEXXZ@4_NA, 1
$LN25@AirAirMode:

; 582  : 				if (missileSeekerAz < -0.01)

	mov	eax, DWORD PTR _this$[ebp]
	cvtss2sd xmm0, DWORD PTR [eax+304]
	movsd	xmm1, QWORD PTR __real@bf847ae147ae147b
	comisd	xmm1, xmm0
	jbe	SHORT $LN24@AirAirMode

; 583  : 					bAzReversed = false;

	mov	BYTE PTR ?bAzReversed@?1??AirAirMode@FireControlComputer@@AAEXXZ@4_NA, 0
$LN24@AirAirMode:

; 584  : 				if (missileSeekerEl > -0.05)

	mov	ecx, DWORD PTR _this$[ebp]
	cvtss2sd xmm0, DWORD PTR [ecx+308]
	comisd	xmm0, QWORD PTR __real@bfa999999999999a
	jbe	SHORT $LN23@AirAirMode

; 585  : 					bElReversed = true;

	mov	BYTE PTR ?bElReversed@?1??AirAirMode@FireControlComputer@@AAEXXZ@4_NA, 1
$LN23@AirAirMode:

; 586  : 				if (missileSeekerEl < -0.07)

	mov	edx, DWORD PTR _this$[ebp]
	cvtss2sd xmm0, DWORD PTR [edx+308]
	movsd	xmm1, QWORD PTR __real@bfb1eb851eb851ec
	comisd	xmm1, xmm0
	jbe	SHORT $LN22@AirAirMode

; 587  : 					bElReversed = false;

	mov	BYTE PTR ?bElReversed@?1??AirAirMode@FireControlComputer@@AAEXXZ@4_NA, 0
$LN22@AirAirMode:

; 588  : 
; 589  : 				if (bAzReversed == false)

	movzx	eax, BYTE PTR ?bAzReversed@?1??AirAirMode@FireControlComputer@@AAEXXZ@4_NA
	test	eax, eax
	jne	SHORT $LN21@AirAirMode

; 590  : 					missileSeekerAz += 0.2f * SimLibMajorFrameTime;

	movss	xmm0, DWORD PTR __real@3e4ccccd
	mulss	xmm0, DWORD PTR ?SimLibMajorFrameTime@@3MA
	mov	ecx, DWORD PTR _this$[ebp]
	addss	xmm0, DWORD PTR [ecx+304]
	mov	edx, DWORD PTR _this$[ebp]
	movss	DWORD PTR [edx+304], xmm0

; 591  : 				else

	jmp	SHORT $LN20@AirAirMode
$LN21@AirAirMode:

; 592  : 					missileSeekerAz -= 0.2f * SimLibMajorFrameTime;

	movss	xmm0, DWORD PTR __real@3e4ccccd
	mulss	xmm0, DWORD PTR ?SimLibMajorFrameTime@@3MA
	mov	eax, DWORD PTR _this$[ebp]
	movss	xmm1, DWORD PTR [eax+304]
	subss	xmm1, xmm0
	mov	ecx, DWORD PTR _this$[ebp]
	movss	DWORD PTR [ecx+304], xmm1
$LN20@AirAirMode:

; 593  : 				if (bElReversed == false)

	movzx	edx, BYTE PTR ?bElReversed@?1??AirAirMode@FireControlComputer@@AAEXXZ@4_NA
	test	edx, edx
	jne	SHORT $LN19@AirAirMode

; 594  : 					missileSeekerEl += 0.2f * SimLibMajorFrameTime;

	movss	xmm0, DWORD PTR __real@3e4ccccd
	mulss	xmm0, DWORD PTR ?SimLibMajorFrameTime@@3MA
	mov	eax, DWORD PTR _this$[ebp]
	addss	xmm0, DWORD PTR [eax+308]
	mov	ecx, DWORD PTR _this$[ebp]
	movss	DWORD PTR [ecx+308], xmm0

; 595  : 				else

	jmp	SHORT $LN18@AirAirMode
$LN19@AirAirMode:

; 596  : 					missileSeekerEl -= 0.2f * SimLibMajorFrameTime;

	movss	xmm0, DWORD PTR __real@3e4ccccd
	mulss	xmm0, DWORD PTR ?SimLibMajorFrameTime@@3MA
	mov	edx, DWORD PTR _this$[ebp]
	movss	xmm1, DWORD PTR [edx+308]
	subss	xmm1, xmm0
	mov	eax, DWORD PTR _this$[ebp]
	movss	DWORD PTR [eax+308], xmm1
$LN18@AirAirMode:

; 597  : 
; 598  : 				missileTarget = FALSE;

	mov	ecx, DWORD PTR _this$[ebp]
	mov	BYTE PTR [ecx+192], 0

; 599  : 				missileTOF = 0.0F;

	mov	edx, DWORD PTR _this$[ebp]
	movss	xmm0, DWORD PTR __real@00000000
	movss	DWORD PTR [edx+232], xmm0

; 600  : 				theMissile->SetSeekerPos (&missileSeekerAz, &missileSeekerEl);

	mov	eax, DWORD PTR _this$[ebp]
	add	eax, 308				; 00000134H
	push	eax
	mov	ecx, DWORD PTR _this$[ebp]
	add	ecx, 304				; 00000130H
	push	ecx
	mov	ecx, DWORD PTR _theMissile$[ebp]
	call	?SetSeekerPos@MissileClass@@QAEHPAM0@Z	; MissileClass::SetSeekerPos

; 601  : 				theMissile->DropTarget();

	mov	ecx, DWORD PTR _theMissile$[ebp]
	call	?DropTarget@MissileClass@@QAEXXZ	; MissileClass::DropTarget

; 602  : 			}
; 603  : 			// End Marco Edit
; 604  : 			else

	jmp	SHORT $LN17@AirAirMode
$LN26@AirAirMode:

; 605  : 			{
; 606  : 				missileTarget = FALSE;

	mov	edx, DWORD PTR _this$[ebp]
	mov	BYTE PTR [edx+192], 0

; 607  : 				missileSeekerAz = 0.0F;

	mov	eax, DWORD PTR _this$[ebp]
	movss	xmm0, DWORD PTR __real@00000000
	movss	DWORD PTR [eax+304], xmm0

; 608  : 				missileSeekerEl = -6.0F * DTR;

	mov	ecx, DWORD PTR _this$[ebp]
	movss	xmm0, DWORD PTR __real@bdd6774e
	movss	DWORD PTR [ecx+308], xmm0

; 609  : 				missileTOF      = 0.0F;

	mov	edx, DWORD PTR _this$[ebp]
	movss	xmm0, DWORD PTR __real@00000000
	movss	DWORD PTR [edx+232], xmm0

; 610  : 				theMissile->SetSeekerPos (&missileSeekerAz, &missileSeekerEl);

	mov	eax, DWORD PTR _this$[ebp]
	add	eax, 308				; 00000134H
	push	eax
	mov	ecx, DWORD PTR _this$[ebp]
	add	ecx, 304				; 00000130H
	push	ecx
	mov	ecx, DWORD PTR _theMissile$[ebp]
	call	?SetSeekerPos@MissileClass@@QAEHPAM0@Z	; MissileClass::SetSeekerPos
$LN17@AirAirMode:

; 611  : 			}
; 612  : 		}
; 613  : 		else	//not prelaunch

	jmp	$LN16@AirAirMode
$LN127@AirAirMode:

; 614  : 		{
; 615  : 			missileTarget   = FALSE;

	mov	edx, DWORD PTR _this$[ebp]
	mov	BYTE PTR [edx+192], 0

; 616  : 			if (theMissile->isSlave)

	mov	eax, DWORD PTR _theMissile$[ebp]
	cmp	DWORD PTR [eax+736], 0
	je	SHORT $LN13@AirAirMode

; 617  : 			{
; 618  : 				if (targetPtr)

	mov	ecx, DWORD PTR _this$[ebp]
	cmp	DWORD PTR [ecx+132], 0
	je	SHORT $LN14@AirAirMode

; 619  : 				{
; 620  : 					missileSeekerAz = targetPtr->localData->az;

	mov	edx, DWORD PTR _this$[ebp]
	mov	eax, DWORD PTR [edx+132]
	mov	ecx, DWORD PTR [eax+12]
	mov	edx, DWORD PTR _this$[ebp]
	mov	eax, DWORD PTR [ecx+16]
	mov	DWORD PTR [edx+304], eax

; 621  : 					missileSeekerEl = targetPtr->localData->el;

	mov	ecx, DWORD PTR _this$[ebp]
	mov	edx, DWORD PTR [ecx+132]
	mov	eax, DWORD PTR [edx+12]
	mov	ecx, DWORD PTR _this$[ebp]
	mov	edx, DWORD PTR [eax+28]
	mov	DWORD PTR [ecx+308], edx

; 622  : 				}
; 623  : 				else

	jmp	SHORT $LN13@AirAirMode
$LN14@AirAirMode:

; 624  : 				{
; 625  : 					missileSeekerAz = 0.0F;

	mov	eax, DWORD PTR _this$[ebp]
	movss	xmm0, DWORD PTR __real@00000000
	movss	DWORD PTR [eax+304], xmm0

; 626  : 					missileSeekerEl = -6.0F * DTR;

	mov	ecx, DWORD PTR _this$[ebp]
	movss	xmm0, DWORD PTR __real@bdd6774e
	movss	DWORD PTR [ecx+308], xmm0
$LN13@AirAirMode:

; 627  : 				}
; 628  : 			}
; 629  : 			//LRKLUDGE
; 630  : 			missileRMax   = 10000.0F;

	mov	edx, DWORD PTR _this$[ebp]
	movss	xmm0, DWORD PTR __real@461c4000
	movss	DWORD PTR [edx+288], xmm0

; 631  : 			missileActiveRange = 0.0F;

	mov	eax, DWORD PTR _this$[ebp]
	movss	xmm0, DWORD PTR __real@00000000
	movss	DWORD PTR [eax+284], xmm0

; 632  : 			missileActiveTime = -1.0F;

	mov	ecx, DWORD PTR _this$[ebp]
	movss	xmm0, DWORD PTR __real@bf800000
	movss	DWORD PTR [ecx+280], xmm0

; 633  : 			missileRMin   = 0.075F * missileRMax;

	mov	edx, DWORD PTR _this$[ebp]
	movss	xmm0, DWORD PTR __real@3d99999a
	mulss	xmm0, DWORD PTR [edx+288]
	mov	eax, DWORD PTR _this$[ebp]
	movss	DWORD PTR [eax+292], xmm0

; 634  : 			missileRneMax = 0.8F * missileRMax;

	mov	ecx, DWORD PTR _this$[ebp]
	movss	xmm0, DWORD PTR __real@3f4ccccd
	mulss	xmm0, DWORD PTR [ecx+288]
	mov	edx, DWORD PTR _this$[ebp]
	movss	DWORD PTR [edx+296], xmm0

; 635  : 			missileRneMin = 0.2F * missileRMax;

	mov	eax, DWORD PTR _this$[ebp]
	movss	xmm0, DWORD PTR __real@3e4ccccd
	mulss	xmm0, DWORD PTR [eax+288]
	mov	ecx, DWORD PTR _this$[ebp]
	movss	DWORD PTR [ecx+300], xmm0

; 636  : 			missileTOF = 0.0F;

	mov	edx, DWORD PTR _this$[ebp]
	movss	xmm0, DWORD PTR __real@00000000
	movss	DWORD PTR [edx+232], xmm0

; 637  : 			missileMaxTof = -1.0f;//me123

	mov	eax, DWORD PTR _this$[ebp]
	movss	xmm0, DWORD PTR __real@bf800000
	movss	DWORD PTR [eax+264], xmm0
$LN16@AirAirMode:

; 638  : 		}
; 639  : 
; 640  : 		if (theMissile && theMissile->sensorArray && theMissile->sensorArray[0])

	cmp	DWORD PTR _theMissile$[ebp], 0
	je	SHORT $LN12@AirAirMode
	mov	ecx, DWORD PTR _theMissile$[ebp]
	cmp	DWORD PTR [ecx+648], 0
	je	SHORT $LN12@AirAirMode
	mov	edx, 4
	imul	edx, 0
	mov	eax, DWORD PTR _theMissile$[ebp]
	mov	ecx, DWORD PTR [eax+648]
	cmp	DWORD PTR [edx+ecx], 0
	je	SHORT $LN12@AirAirMode

; 641  : 		{// make sure the display is showing where we are actualy looking
; 642  : 				missileSeekerAz = theMissile->sensorArray[0]->SeekerAz();

	mov	edx, 4
	imul	edx, 0
	mov	eax, DWORD PTR _theMissile$[ebp]
	mov	ecx, DWORD PTR [eax+648]
	mov	ecx, DWORD PTR [ecx+edx]
	call	?SeekerAz@SensorClass@@QAEMXZ		; SensorClass::SeekerAz
	mov	edx, DWORD PTR _this$[ebp]
	fstp	DWORD PTR [edx+304]

; 643  : 				missileSeekerEl = theMissile->sensorArray[0]->SeekerEl();

	mov	eax, 4
	imul	eax, 0
	mov	ecx, DWORD PTR _theMissile$[ebp]
	mov	edx, DWORD PTR [ecx+648]
	mov	ecx, DWORD PTR [edx+eax]
	call	?SeekerEl@SensorClass@@QAEMXZ		; SensorClass::SeekerEl
	mov	eax, DWORD PTR _this$[ebp]
	fstp	DWORD PTR [eax+308]
$LN12@AirAirMode:

; 644  : 		}
; 645  : 	}
; 646  : 	else

	jmp	$LN11@AirAirMode
$LN128@AirAirMode:

; 647  : 	{
; 648  : 		if (!releaseConsent)

	mov	ecx, DWORD PTR _this$[ebp]
	movsx	edx, BYTE PTR [ecx+181]
	test	edx, edx
	jne	SHORT $LN10@AirAirMode

; 649  : 		{
; 650  : 			// Check for regeneration of weapon
; 651  : 			if (postDrop && Sms->curWeapon == NULL)

	mov	eax, DWORD PTR _this$[ebp]
	movsx	ecx, BYTE PTR [eax+183]
	test	ecx, ecx
	je	SHORT $LN9@AirAirMode
	mov	edx, DWORD PTR _this$[ebp]
	mov	ecx, DWORD PTR [edx+408]
	add	ecx, 164				; 000000a4H
	call	??B?$VuBin@VSimWeaponClass@@@@QBE_NXZ	; VuBin<SimWeaponClass>::operator bool
	movzx	eax, al
	test	eax, eax
	jne	SHORT $LN9@AirAirMode

; 652  : 			{
; 653  : 	            Sms->ResetCurrentWeapon();

	mov	ecx, DWORD PTR _this$[ebp]
	mov	ecx, DWORD PTR [ecx+408]
	call	?ResetCurrentWeapon@SMSClass@@QAEXXZ	; SMSClass::ResetCurrentWeapon

; 654  : 				Sms->WeaponStep();

	push	0
	mov	edx, DWORD PTR _this$[ebp]
	mov	ecx, DWORD PTR [edx+408]
	call	?WeaponStep@SMSClass@@QAEHH@Z		; SMSClass::WeaponStep

; 655  : 				ClearCurrentTarget();

	mov	ecx, DWORD PTR _this$[ebp]
	call	?ClearCurrentTarget@FireControlComputer@@QAEXXZ ; FireControlComputer::ClearCurrentTarget
$LN9@AirAirMode:

; 656  : 			}
; 657  : 			postDrop = FALSE;

	mov	eax, DWORD PTR _this$[ebp]
	mov	BYTE PTR [eax+183], 0
$LN10@AirAirMode:

; 658  : 		}
; 659  : 	
; 660  : 		missileTOF = 0.0F;

	mov	ecx, DWORD PTR _this$[ebp]
	movss	xmm0, DWORD PTR __real@00000000
	movss	DWORD PTR [ecx+232], xmm0

; 661  : 		missileActiveRange = 0.0F;

	mov	edx, DWORD PTR _this$[ebp]
	movss	xmm0, DWORD PTR __real@00000000
	movss	DWORD PTR [edx+284], xmm0

; 662  : 		missileActiveTime = -1.0F;

	mov	eax, DWORD PTR _this$[ebp]
	movss	xmm0, DWORD PTR __real@bf800000
	movss	DWORD PTR [eax+280], xmm0

; 663  : 		missileTarget   = FALSE;

	mov	ecx, DWORD PTR _this$[ebp]
	mov	BYTE PTR [ecx+192], 0

; 664  : 		missileSeekerAz = 0.0F;

	mov	edx, DWORD PTR _this$[ebp]
	movss	xmm0, DWORD PTR __real@00000000
	movss	DWORD PTR [edx+304], xmm0

; 665  : 		missileSeekerEl = -6.0F * DTR;

	mov	eax, DWORD PTR _this$[ebp]
	movss	xmm0, DWORD PTR __real@bdd6774e
	movss	DWORD PTR [eax+308], xmm0

; 666  : 		//LRKLUDGE
; 667  : 		missileRMax   = 10000.0F;

	mov	ecx, DWORD PTR _this$[ebp]
	movss	xmm0, DWORD PTR __real@461c4000
	movss	DWORD PTR [ecx+288], xmm0

; 668  : 		missileRMin   = 0.075F * missileRMax;

	mov	edx, DWORD PTR _this$[ebp]
	movss	xmm0, DWORD PTR __real@3d99999a
	mulss	xmm0, DWORD PTR [edx+288]
	mov	eax, DWORD PTR _this$[ebp]
	movss	DWORD PTR [eax+292], xmm0

; 669  : 		missileRneMax = 0.8F * missileRMax;

	mov	ecx, DWORD PTR _this$[ebp]
	movss	xmm0, DWORD PTR __real@3f4ccccd
	mulss	xmm0, DWORD PTR [ecx+288]
	mov	edx, DWORD PTR _this$[ebp]
	movss	DWORD PTR [edx+296], xmm0

; 670  : 		missileRneMin = 0.2F * missileRMax;

	mov	eax, DWORD PTR _this$[ebp]
	movss	xmm0, DWORD PTR __real@3e4ccccd
	mulss	xmm0, DWORD PTR [eax+288]
	mov	ecx, DWORD PTR _this$[ebp]
	movss	DWORD PTR [ecx+300], xmm0
$LN11@AirAirMode:

; 671  : 	}
; 672  : 
; 673  : 	if (missileTOF > 0.0F) 

	mov	edx, DWORD PTR _this$[ebp]
	movss	xmm0, DWORD PTR [edx+232]
	comiss	xmm0, DWORD PTR __real@00000000
	jbe	$LN8@AirAirMode

; 674  : 	{
; 675  : 		nextMissileImpactTime = missileTOF;

	mov	eax, DWORD PTR _this$[ebp]
	mov	ecx, DWORD PTR _this$[ebp]
	mov	edx, DWORD PTR [ecx+232]
	mov	DWORD PTR [eax+272], edx

; 676  : 		if (theMissile&&targetPtr)

	cmp	DWORD PTR _theMissile$[ebp], 0
	je	$LN7@AirAirMode
	mov	eax, DWORD PTR _this$[ebp]
	cmp	DWORD PTR [eax+132], 0
	je	$LN7@AirAirMode

; 677  : 		lastmissileActiveTime = theMissile->GetActiveTime  (-platform->ZPos(), platform->GetVt(),
; 678  : 						targetPtr->localData->ataFrom, 0.0F, lastMissileShootRng);

	mov	ecx, DWORD PTR _this$[ebp]
	push	ecx
	movss	xmm0, DWORD PTR [ecx+248]
	movss	DWORD PTR [esp], xmm0
	push	ecx
	movss	xmm0, DWORD PTR __real@00000000
	movss	DWORD PTR [esp], xmm0
	mov	edx, DWORD PTR _this$[ebp]
	mov	eax, DWORD PTR [edx+132]
	mov	ecx, DWORD PTR [eax+12]
	push	ecx
	movss	xmm0, DWORD PTR [ecx+4]
	movss	DWORD PTR [esp], xmm0
	mov	edx, DWORD PTR _this$[ebp]
	mov	eax, DWORD PTR [edx+140]
	mov	ecx, DWORD PTR _this$[ebp]
	mov	edx, DWORD PTR [eax]
	mov	ecx, DWORD PTR [ecx+140]
	mov	eax, DWORD PTR [edx+220]
	call	eax
	push	ecx
	fstp	DWORD PTR [esp]
	mov	ecx, DWORD PTR _this$[ebp]
	mov	ecx, DWORD PTR [ecx+140]
	call	?ZPos@VuEntity@@QBEMXZ			; VuEntity::ZPos
	fstp	DWORD PTR tv2784[ebp]
	movss	xmm0, DWORD PTR tv2784[ebp]
	xorps	xmm0, DWORD PTR __xmm@80000000800000008000000080000000
	push	ecx
	movss	DWORD PTR [esp], xmm0
	mov	ecx, DWORD PTR _theMissile$[ebp]
	call	?GetActiveTime@MissileClass@@QAEMMMMMM@Z ; MissileClass::GetActiveTime
	mov	edx, DWORD PTR _this$[ebp]
	fstp	DWORD PTR [edx+276]
	jmp	SHORT $LN6@AirAirMode
$LN7@AirAirMode:

; 679  : 		else lastmissileActiveTime = -1.0f;

	mov	eax, DWORD PTR _this$[ebp]
	movss	xmm0, DWORD PTR __real@bf800000
	movss	DWORD PTR [eax+276], xmm0
$LN6@AirAirMode:

; 680  : 
; 681  : 		if (targetPtr) 

	mov	ecx, DWORD PTR _this$[ebp]
	cmp	DWORD PTR [ecx+132], 0
	je	SHORT $LN5@AirAirMode

; 682  : 			targetspeed = targetPtr->BaseData()->GetVt();

	mov	edx, DWORD PTR _this$[ebp]
	mov	ecx, DWORD PTR [edx+132]
	call	?BaseData@SimObjectType@@QAEPAVFalconEntity@@XZ ; SimObjectType::BaseData
	mov	DWORD PTR tv1673[ebp], eax
	mov	eax, DWORD PTR tv1673[ebp]
	mov	edx, DWORD PTR [eax]
	mov	ecx, DWORD PTR tv1673[ebp]
	mov	eax, DWORD PTR [edx+220]
	call	eax
	mov	ecx, DWORD PTR _this$[ebp]
	fstp	DWORD PTR [ecx+244]

; 683  : 		else 

	jmp	SHORT $LN4@AirAirMode
$LN5@AirAirMode:

; 684  : 			targetspeed = 0.0f;

	mov	edx, DWORD PTR _this$[ebp]
	movss	xmm0, DWORD PTR __real@00000000
	movss	DWORD PTR [edx+244], xmm0
$LN4@AirAirMode:

; 685  : 		Height = -platform->ZPos();

	mov	eax, DWORD PTR _this$[ebp]
	mov	ecx, DWORD PTR [eax+140]
	call	?ZPos@VuEntity@@QBEMXZ			; VuEntity::ZPos
	fstp	DWORD PTR tv2814[ebp]
	movss	xmm0, DWORD PTR tv2814[ebp]
	xorps	xmm0, DWORD PTR __xmm@80000000800000008000000080000000
	mov	ecx, DWORD PTR _this$[ebp]
	movss	DWORD PTR [ecx+252], xmm0

; 686  : 	}
; 687  : 	else

	jmp	SHORT $LN3@AirAirMode
$LN8@AirAirMode:

; 688  : 		nextMissileImpactTime = -1.0F;

	mov	edx, DWORD PTR _this$[ebp]
	movss	xmm0, DWORD PTR __real@bf800000
	movss	DWORD PTR [edx+272], xmm0
$LN3@AirAirMode:

; 689  : 	
; 690  : 	if (!releaseConsent)

	mov	eax, DWORD PTR _this$[ebp]
	movsx	ecx, BYTE PTR [eax+181]
	test	ecx, ecx
	jne	SHORT $LN2@AirAirMode

; 691  : 	{
; 692  : 		postDrop = FALSE;

	mov	edx, DWORD PTR _this$[ebp]
	mov	BYTE PTR [edx+183], 0
$LN2@AirAirMode:

; 693  : 	}
; 694  : 	if (playerFCC && irSigTDBP > 0.79f)/* && theMissile && theMissile->isTD)*/

	mov	eax, DWORD PTR _this$[ebp]
	cmp	DWORD PTR [eax+92], 0
	je	SHORT $LN1@AirAirMode
	movss	xmm0, DWORD PTR _irSigTDBP$[ebp]
	comiss	xmm0, DWORD PTR __real@3f4a3d71
	jbe	SHORT $LN1@AirAirMode

; 695  : 	{
; 696  : 		theMissile->isCaged = false;

	mov	ecx, DWORD PTR _theMissile$[ebp]
	mov	DWORD PTR [ecx+728], 0
$LN1@AirAirMode:
$LN130@AirAirMode:

; 697  : 	}
; 698  : }

	pop	esi
	mov	esp, ebp
	pop	ebp
	ret	0
?AirAirMode@FireControlComputer@@AAEXXZ ENDP		; FireControlComputer::AirAirMode
_TEXT	ENDS
; Function compile flags: /Odtp
; File c:\users\zhitao li\documents\visual studio 2012\projects\freefalcon\vu2\include\vu_templates.h
;	COMDAT ?get@?$VuBin@VFalconEntity@@@@QBEPAVFalconEntity@@XZ
_TEXT	SEGMENT
_this$ = -4						; size = 4
?get@?$VuBin@VFalconEntity@@@@QBEPAVFalconEntity@@XZ PROC ; VuBin<FalconEntity>::get, COMDAT
; _this$ = ecx

; 55   : 	E *get() const{

	push	ebp
	mov	ebp, esp
	push	ecx
	mov	DWORD PTR _this$[ebp], ecx

; 56   : 		return e;

	mov	eax, DWORD PTR _this$[ebp]
	mov	eax, DWORD PTR [eax]

; 57   : 	}

	mov	esp, ebp
	pop	ebp
	ret	0
?get@?$VuBin@VFalconEntity@@@@QBEPAVFalconEntity@@XZ ENDP ; VuBin<FalconEntity>::get
_TEXT	ENDS
; Function compile flags: /Odtp
; File c:\users\zhitao li\documents\visual studio 2012\projects\freefalcon\sim\include\simbase.h
;	COMDAT ?GetSPType@SimBaseClass@@QBEEXZ
_TEXT	SEGMENT
_this$ = -4						; size = 4
?GetSPType@SimBaseClass@@QBEEXZ PROC			; SimBaseClass::GetSPType, COMDAT
; _this$ = ecx

; 163  : 	uchar GetSPType() const					{	return (EntityType())->classInfo_[VU_SPTYPE]; }

	push	ebp
	mov	ebp, esp
	push	ecx
	mov	DWORD PTR _this$[ebp], ecx
	mov	ecx, DWORD PTR _this$[ebp]
	call	?EntityType@VuEntity@@QBEPAUVuEntityType@@XZ ; VuEntity::EntityType
	mov	ecx, 1
	shl	ecx, 2
	mov	al, BYTE PTR [eax+ecx+8]
	mov	esp, ebp
	pop	ebp
	ret	0
?GetSPType@SimBaseClass@@QBEEXZ ENDP			; SimBaseClass::GetSPType
_TEXT	ENDS
; Function compile flags: /Odtp
; File c:\users\zhitao li\documents\visual studio 2012\projects\freefalcon\vu2\include\vu_templates.h
;	COMDAT ??B?$VuBin@VSimWeaponClass@@@@QBE_NXZ
_TEXT	SEGMENT
_this$ = -8						; size = 4
tv66 = -4						; size = 4
??B?$VuBin@VSimWeaponClass@@@@QBE_NXZ PROC		; VuBin<SimWeaponClass>::operator bool, COMDAT
; _this$ = ecx

; 40   : 	operator bool() const{

	push	ebp
	mov	ebp, esp
	sub	esp, 8
	mov	DWORD PTR _this$[ebp], ecx

; 41   : 		return e != NULL;

	mov	eax, DWORD PTR _this$[ebp]
	cmp	DWORD PTR [eax], 0
	je	SHORT $LN3@operator
	mov	DWORD PTR tv66[ebp], 1
	jmp	SHORT $LN4@operator
$LN3@operator:
	mov	DWORD PTR tv66[ebp], 0
$LN4@operator:
	mov	al, BYTE PTR tv66[ebp]

; 42   : 	}

	mov	esp, ebp
	pop	ebp
	ret	0
??B?$VuBin@VSimWeaponClass@@@@QBE_NXZ ENDP		; VuBin<SimWeaponClass>::operator bool
_TEXT	ENDS
; Function compile flags: /Odtp
; File c:\users\zhitao li\documents\visual studio 2012\projects\freefalcon\sim\include\sensclas.h
;	COMDAT ?SeekerEl@SensorClass@@QAEMXZ
_TEXT	SEGMENT
_this$ = -4						; size = 4
?SeekerEl@SensorClass@@QAEMXZ PROC			; SensorClass::SeekerEl, COMDAT
; _this$ = ecx

; 57   : 	float			SeekerEl(void)							{ return seekerElCenter; }

	push	ebp
	mov	ebp, esp
	push	ecx
	mov	DWORD PTR _this$[ebp], ecx
	mov	eax, DWORD PTR _this$[ebp]
	fld	DWORD PTR [eax+60]
	mov	esp, ebp
	pop	ebp
	ret	0
?SeekerEl@SensorClass@@QAEMXZ ENDP			; SensorClass::SeekerEl
_TEXT	ENDS
; Function compile flags: /Odtp
; File c:\users\zhitao li\documents\visual studio 2012\projects\freefalcon\sim\include\sensclas.h
;	COMDAT ?SeekerAz@SensorClass@@QAEMXZ
_TEXT	SEGMENT
_this$ = -4						; size = 4
?SeekerAz@SensorClass@@QAEMXZ PROC			; SensorClass::SeekerAz, COMDAT
; _this$ = ecx

; 56   : 	float			SeekerAz(void)                          { return seekerAzCenter; }

	push	ebp
	mov	ebp, esp
	push	ecx
	mov	DWORD PTR _this$[ebp], ecx
	mov	eax, DWORD PTR _this$[ebp]
	fld	DWORD PTR [eax+56]
	mov	esp, ebp
	pop	ebp
	ret	0
?SeekerAz@SensorClass@@QAEMXZ ENDP			; SensorClass::SeekerAz
_TEXT	ENDS
; Function compile flags: /Odtp
; File c:\users\zhitao li\documents\visual studio 2012\projects\freefalcon\sim\include\sensclas.h
;	COMDAT ?Type@SensorClass@@QAE?AW4SensorType@1@XZ
_TEXT	SEGMENT
_this$ = -4						; size = 4
?Type@SensorClass@@QAE?AW4SensorType@1@XZ PROC		; SensorClass::Type, COMDAT
; _this$ = ecx

; 36   : 	SensorType	Type(void)			{ return sensorType; }

	push	ebp
	mov	ebp, esp
	push	ecx
	mov	DWORD PTR _this$[ebp], ecx
	mov	eax, DWORD PTR _this$[ebp]
	mov	eax, DWORD PTR [eax+68]
	mov	esp, ebp
	pop	ebp
	ret	0
?Type@SensorClass@@QAE?AW4SensorType@1@XZ ENDP		; SensorClass::Type
_TEXT	ENDS
; Function compile flags: /Odtp
; File c:\users\zhitao li\documents\visual studio 2012\projects\freefalcon\falclib\include\mltrig.h
;	COMDAT ?mlSinCos@@YAXPAUmlTrig@@M@Z
_TEXT	SEGMENT
_trig$ = 8						; size = 4
_angle$ = 12						; size = 4
?mlSinCos@@YAXPAUmlTrig@@M@Z PROC			; mlSinCos, COMDAT

; 12   : {

	push	ebp
	mov	ebp, esp

; 13   : #if defined(_MSC_VER)
; 14   : 	__asm 
; 15   : 	{
; 16   : 		__asm	mov     ecx, trig;

	mov	ecx, DWORD PTR _trig$[ebp]

; 17   : 		__asm	fld     dword ptr [angle];

	fld	DWORD PTR _angle$[ebp]

; 18   : 		__asm	fsincos;

	fsincos

; 19   : 		__asm	fstp    dword ptr [ecx]trig.cos;

	fstp	DWORD PTR [ecx+4]

; 20   : 		__asm	fstp    dword ptr [ecx]trig.sin;

	fstp	DWORD PTR [ecx]

; 21   : 	}
; 22   : #else
; 23   : 	trig->sin = (Float32)sin(angle);
; 24   : 	trig->cos = (Float32)cos(angle);
; 25   : #endif
; 26   : }

	pop	ebp
	ret	0
?mlSinCos@@YAXPAUmlTrig@@M@Z ENDP			; mlSinCos
_TEXT	ENDS
; Function compile flags: /Odtp
; File c:\users\zhitao li\documents\visual studio 2012\projects\freefalcon\falclib\include\falcent.h
;	COMDAT ?IsSim@FalconEntity@@QAEHXZ
_TEXT	SEGMENT
_this$ = -8						; size = 4
tv68 = -4						; size = 4
?IsSim@FalconEntity@@QAEHXZ PROC			; FalconEntity::IsSim, COMDAT
; _this$ = ecx

; 103  : 		{return (falconType & FalconSimEntity) ? TRUE : FALSE;};

	push	ebp
	mov	ebp, esp
	sub	esp, 8
	mov	DWORD PTR _this$[ebp], ecx
	mov	eax, DWORD PTR _this$[ebp]
	movsx	ecx, BYTE PTR [eax+137]
	and	ecx, 2
	je	SHORT $LN3@IsSim
	mov	DWORD PTR tv68[ebp], 1
	jmp	SHORT $LN4@IsSim
$LN3@IsSim:
	mov	DWORD PTR tv68[ebp], 0
$LN4@IsSim:
	mov	eax, DWORD PTR tv68[ebp]
	mov	esp, ebp
	pop	ebp
	ret	0
?IsSim@FalconEntity@@QAEHXZ ENDP			; FalconEntity::IsSim
_TEXT	ENDS
; Function compile flags: /Odtp
