; Listing generated by Microsoft (R) Optimizing Compiler Version 17.00.51106.1 

	TITLE	C:\Users\Zhitao Li\Documents\Visual Studio 2012\Projects\Freefalcon\CAMPAIGN\CAMPUI\Brief.cpp
	.686P
	.XMM
	include listing.inc
	.model	flat

INCLUDELIB LIBCMT
INCLUDELIB OLDNAMES

PUBLIC	?basefield@?$_Iosb@H@std@@2W4_Fmtflags@12@B	; std::_Iosb<int>::basefield
PUBLIC	?floatfield@?$_Iosb@H@std@@2W4_Fmtflags@12@B	; std::_Iosb<int>::floatfield
PUBLIC	?goodbit@?$_Iosb@H@std@@2W4_Iostate@12@B	; std::_Iosb<int>::goodbit
PUBLIC	?eofbit@?$_Iosb@H@std@@2W4_Iostate@12@B		; std::_Iosb<int>::eofbit
PUBLIC	?failbit@?$_Iosb@H@std@@2W4_Iostate@12@B	; std::_Iosb<int>::failbit
PUBLIC	?badbit@?$_Iosb@H@std@@2W4_Iostate@12@B		; std::_Iosb<int>::badbit
PUBLIC	?_Hardfail@?$_Iosb@H@std@@2W4_Iostate@12@B	; std::_Iosb<int>::_Hardfail
PUBLIC	?in@?$_Iosb@H@std@@2W4_Openmode@12@B		; std::_Iosb<int>::in
PUBLIC	?out@?$_Iosb@H@std@@2W4_Openmode@12@B		; std::_Iosb<int>::out
PUBLIC	?is_signed@?$numeric_limits@K@std@@2_NB		; std::numeric_limits<unsigned long>::is_signed
PUBLIC	?ate@?$_Iosb@H@std@@2W4_Openmode@12@B		; std::_Iosb<int>::ate
PUBLIC	?digits@?$numeric_limits@K@std@@2HB		; std::numeric_limits<unsigned long>::digits
PUBLIC	?app@?$_Iosb@H@std@@2W4_Openmode@12@B		; std::_Iosb<int>::app
PUBLIC	?digits10@?$numeric_limits@K@std@@2HB		; std::numeric_limits<unsigned long>::digits10
PUBLIC	?trunc@?$_Iosb@H@std@@2W4_Openmode@12@B		; std::_Iosb<int>::trunc
PUBLIC	?_Nocreate@?$_Iosb@H@std@@2W4_Openmode@12@B	; std::_Iosb<int>::_Nocreate
PUBLIC	?_Noreplace@?$_Iosb@H@std@@2W4_Openmode@12@B	; std::_Iosb<int>::_Noreplace
PUBLIC	?binary@?$_Iosb@H@std@@2W4_Openmode@12@B	; std::_Iosb<int>::binary
PUBLIC	?beg@?$_Iosb@H@std@@2W4_Seekdir@12@B		; std::_Iosb<int>::beg
PUBLIC	?cur@?$_Iosb@H@std@@2W4_Seekdir@12@B		; std::_Iosb<int>::cur
PUBLIC	?end@?$_Iosb@H@std@@2W4_Seekdir@12@B		; std::_Iosb<int>::end
PUBLIC	?is_signed@?$numeric_limits@_J@std@@2_NB	; std::numeric_limits<__int64>::is_signed
PUBLIC	?digits@?$numeric_limits@_J@std@@2HB		; std::numeric_limits<__int64>::digits
PUBLIC	?digits10@?$numeric_limits@_J@std@@2HB		; std::numeric_limits<__int64>::digits10
PUBLIC	?_Stream_err@failure@ios_base@std@@0W4io_errc@43@B ; std::ios_base::failure::_Stream_err
PUBLIC	?is_signed@?$numeric_limits@_K@std@@2_NB	; std::numeric_limits<unsigned __int64>::is_signed
PUBLIC	?digits@?$numeric_limits@_K@std@@2HB		; std::numeric_limits<unsigned __int64>::digits
PUBLIC	?digits10@?$numeric_limits@_K@std@@2HB		; std::numeric_limits<unsigned __int64>::digits10
PUBLIC	?digits@?$numeric_limits@M@std@@2HB		; std::numeric_limits<float>::digits
PUBLIC	?digits10@?$numeric_limits@M@std@@2HB		; std::numeric_limits<float>::digits10
PUBLIC	?max_digits10@?$numeric_limits@M@std@@2HB	; std::numeric_limits<float>::max_digits10
PUBLIC	?max_exponent@?$numeric_limits@M@std@@2HB	; std::numeric_limits<float>::max_exponent
PUBLIC	?max_exponent10@?$numeric_limits@M@std@@2HB	; std::numeric_limits<float>::max_exponent10
PUBLIC	?min_exponent@?$numeric_limits@M@std@@2HB	; std::numeric_limits<float>::min_exponent
PUBLIC	?min_exponent10@?$numeric_limits@M@std@@2HB	; std::numeric_limits<float>::min_exponent10
PUBLIC	?value@?$integral_constant@I$0A@@std@@2IB	; std::integral_constant<unsigned int,0>::value
PUBLIC	?digits@?$numeric_limits@N@std@@2HB		; std::numeric_limits<double>::digits
PUBLIC	?digits10@?$numeric_limits@N@std@@2HB		; std::numeric_limits<double>::digits10
PUBLIC	?max_digits10@?$numeric_limits@N@std@@2HB	; std::numeric_limits<double>::max_digits10
PUBLIC	?max_exponent@?$numeric_limits@N@std@@2HB	; std::numeric_limits<double>::max_exponent
PUBLIC	?max_exponent10@?$numeric_limits@N@std@@2HB	; std::numeric_limits<double>::max_exponent10
PUBLIC	?min_exponent@?$numeric_limits@N@std@@2HB	; std::numeric_limits<double>::min_exponent
PUBLIC	?min_exponent10@?$numeric_limits@N@std@@2HB	; std::numeric_limits<double>::min_exponent10
PUBLIC	?digits@?$numeric_limits@O@std@@2HB		; std::numeric_limits<long double>::digits
PUBLIC	?digits10@?$numeric_limits@O@std@@2HB		; std::numeric_limits<long double>::digits10
PUBLIC	?max_digits10@?$numeric_limits@O@std@@2HB	; std::numeric_limits<long double>::max_digits10
PUBLIC	?max_exponent@?$numeric_limits@O@std@@2HB	; std::numeric_limits<long double>::max_exponent
PUBLIC	?max_exponent10@?$numeric_limits@O@std@@2HB	; std::numeric_limits<long double>::max_exponent10
PUBLIC	?min_exponent@?$numeric_limits@O@std@@2HB	; std::numeric_limits<long double>::min_exponent
PUBLIC	?min_exponent10@?$numeric_limits@O@std@@2HB	; std::numeric_limits<long double>::min_exponent10
PUBLIC	?collate@?$_Locbase@H@std@@2HB			; std::_Locbase<int>::collate
PUBLIC	?ctype@?$_Locbase@H@std@@2HB			; std::_Locbase<int>::ctype
PUBLIC	?monetary@?$_Locbase@H@std@@2HB			; std::_Locbase<int>::monetary
PUBLIC	?numeric@?$_Locbase@H@std@@2HB			; std::_Locbase<int>::numeric
PUBLIC	?time@?$_Locbase@H@std@@2HB			; std::_Locbase<int>::time
PUBLIC	?messages@?$_Locbase@H@std@@2HB			; std::_Locbase<int>::messages
PUBLIC	?all@?$_Locbase@H@std@@2HB			; std::_Locbase<int>::all
PUBLIC	?none@?$_Locbase@H@std@@2HB			; std::_Locbase<int>::none
PUBLIC	?value@?$_Sizeof@U_Nil@std@@U12@U12@U12@U12@U12@U12@U12@@std@@2IB ; std::_Sizeof<std::_Nil,std::_Nil,std::_Nil,std::_Nil,std::_Nil,std::_Nil,std::_Nil,std::_Nil>::value
PUBLIC	?has_denorm@_Num_base@std@@2W4float_denorm_style@2@B ; std::_Num_base::has_denorm
PUBLIC	?has_denorm_loss@_Num_base@std@@2_NB		; std::_Num_base::has_denorm_loss
PUBLIC	?has_infinity@_Num_base@std@@2_NB		; std::_Num_base::has_infinity
PUBLIC	?has_quiet_NaN@_Num_base@std@@2_NB		; std::_Num_base::has_quiet_NaN
PUBLIC	?has_signaling_NaN@_Num_base@std@@2_NB		; std::_Num_base::has_signaling_NaN
PUBLIC	?is_bounded@_Num_base@std@@2_NB			; std::_Num_base::is_bounded
PUBLIC	?table_size@?$ctype@D@std@@2IB			; std::ctype<char>::table_size
PUBLIC	?is_exact@_Num_base@std@@2_NB			; std::_Num_base::is_exact
PUBLIC	?is_iec559@_Num_base@std@@2_NB			; std::_Num_base::is_iec559
PUBLIC	?is_integer@_Num_base@std@@2_NB			; std::_Num_base::is_integer
PUBLIC	?is_modulo@_Num_base@std@@2_NB			; std::_Num_base::is_modulo
PUBLIC	?is_signed@_Num_base@std@@2_NB			; std::_Num_base::is_signed
PUBLIC	?is_specialized@_Num_base@std@@2_NB		; std::_Num_base::is_specialized
PUBLIC	?tinyness_before@_Num_base@std@@2_NB		; std::_Num_base::tinyness_before
PUBLIC	?traps@_Num_base@std@@2_NB			; std::_Num_base::traps
PUBLIC	?round_style@_Num_base@std@@2W4float_round_style@2@B ; std::_Num_base::round_style
PUBLIC	?digits@_Num_base@std@@2HB			; std::_Num_base::digits
PUBLIC	?digits10@_Num_base@std@@2HB			; std::_Num_base::digits10
PUBLIC	?max_digits10@_Num_base@std@@2HB		; std::_Num_base::max_digits10
PUBLIC	?max_exponent@_Num_base@std@@2HB		; std::_Num_base::max_exponent
PUBLIC	?max_exponent10@_Num_base@std@@2HB		; std::_Num_base::max_exponent10
PUBLIC	?min_exponent@_Num_base@std@@2HB		; std::_Num_base::min_exponent
PUBLIC	?min_exponent10@_Num_base@std@@2HB		; std::_Num_base::min_exponent10
PUBLIC	?radix@_Num_base@std@@2HB			; std::_Num_base::radix
PUBLIC	?is_bounded@_Num_int_base@std@@2_NB		; std::_Num_int_base::is_bounded
PUBLIC	?is_exact@_Num_int_base@std@@2_NB		; std::_Num_int_base::is_exact
PUBLIC	?is_integer@_Num_int_base@std@@2_NB		; std::_Num_int_base::is_integer
PUBLIC	?is_modulo@_Num_int_base@std@@2_NB		; std::_Num_int_base::is_modulo
PUBLIC	?is_specialized@_Num_int_base@std@@2_NB		; std::_Num_int_base::is_specialized
PUBLIC	?radix@_Num_int_base@std@@2HB			; std::_Num_int_base::radix
PUBLIC	?has_denorm@_Num_float_base@std@@2W4float_denorm_style@2@B ; std::_Num_float_base::has_denorm
PUBLIC	?has_denorm_loss@_Num_float_base@std@@2_NB	; std::_Num_float_base::has_denorm_loss
PUBLIC	?SIMDIRTYDATA_INTERVAL@FalconEntity@@2KB	; FalconEntity::SIMDIRTYDATA_INTERVAL
PUBLIC	?CMPDIRTYDATA_INTERVAL@FalconEntity@@2KB	; FalconEntity::CMPDIRTYDATA_INTERVAL
PUBLIC	?has_infinity@_Num_float_base@std@@2_NB		; std::_Num_float_base::has_infinity
PUBLIC	?has_quiet_NaN@_Num_float_base@std@@2_NB	; std::_Num_float_base::has_quiet_NaN
PUBLIC	?has_signaling_NaN@_Num_float_base@std@@2_NB	; std::_Num_float_base::has_signaling_NaN
PUBLIC	?is_bounded@_Num_float_base@std@@2_NB		; std::_Num_float_base::is_bounded
PUBLIC	?is_exact@_Num_float_base@std@@2_NB		; std::_Num_float_base::is_exact
PUBLIC	?is_iec559@_Num_float_base@std@@2_NB		; std::_Num_float_base::is_iec559
PUBLIC	?is_integer@_Num_float_base@std@@2_NB		; std::_Num_float_base::is_integer
PUBLIC	?is_modulo@_Num_float_base@std@@2_NB		; std::_Num_float_base::is_modulo
PUBLIC	?is_signed@_Num_float_base@std@@2_NB		; std::_Num_float_base::is_signed
PUBLIC	?is_specialized@_Num_float_base@std@@2_NB	; std::_Num_float_base::is_specialized
PUBLIC	?tinyness_before@_Num_float_base@std@@2_NB	; std::_Num_float_base::tinyness_before
PUBLIC	?traps@_Num_float_base@std@@2_NB		; std::_Num_float_base::traps
PUBLIC	?round_style@_Num_float_base@std@@2W4float_round_style@2@B ; std::_Num_float_base::round_style
PUBLIC	?radix@_Num_float_base@std@@2HB			; std::_Num_float_base::radix
PUBLIC	?is_signed@?$numeric_limits@D@std@@2_NB		; std::numeric_limits<char>::is_signed
PUBLIC	?digits@?$numeric_limits@D@std@@2HB		; std::numeric_limits<char>::digits
PUBLIC	?digits10@?$numeric_limits@D@std@@2HB		; std::numeric_limits<char>::digits10
PUBLIC	?is_signed@?$numeric_limits@_W@std@@2_NB	; std::numeric_limits<wchar_t>::is_signed
PUBLIC	?digits@?$numeric_limits@_W@std@@2HB		; std::numeric_limits<wchar_t>::digits
PUBLIC	?digits10@?$numeric_limits@_W@std@@2HB		; std::numeric_limits<wchar_t>::digits10
PUBLIC	?is_modulo@?$numeric_limits@_N@std@@2_NB	; std::numeric_limits<bool>::is_modulo
PUBLIC	?is_signed@?$numeric_limits@_N@std@@2_NB	; std::numeric_limits<bool>::is_signed
PUBLIC	?digits@?$numeric_limits@_N@std@@2HB		; std::numeric_limits<bool>::digits
PUBLIC	?digits10@?$numeric_limits@_N@std@@2HB		; std::numeric_limits<bool>::digits10
PUBLIC	?is_signed@?$numeric_limits@C@std@@2_NB		; std::numeric_limits<signed char>::is_signed
PUBLIC	?digits@?$numeric_limits@C@std@@2HB		; std::numeric_limits<signed char>::digits
PUBLIC	?digits10@?$numeric_limits@C@std@@2HB		; std::numeric_limits<signed char>::digits10
PUBLIC	?is_signed@?$numeric_limits@E@std@@2_NB		; std::numeric_limits<unsigned char>::is_signed
PUBLIC	?value@?$integral_constant@_N$0A@@std@@2_NB	; std::integral_constant<bool,0>::value
PUBLIC	?digits@?$numeric_limits@E@std@@2HB		; std::numeric_limits<unsigned char>::digits
PUBLIC	?digits10@?$numeric_limits@E@std@@2HB		; std::numeric_limits<unsigned char>::digits10
PUBLIC	?value@?$integral_constant@_N$00@std@@2_NB	; std::integral_constant<bool,1>::value
PUBLIC	?is_signed@?$numeric_limits@F@std@@2_NB		; std::numeric_limits<short>::is_signed
PUBLIC	?digits@?$numeric_limits@F@std@@2HB		; std::numeric_limits<short>::digits
PUBLIC	?digits10@?$numeric_limits@F@std@@2HB		; std::numeric_limits<short>::digits10
PUBLIC	?is_signed@?$numeric_limits@G@std@@2_NB		; std::numeric_limits<unsigned short>::is_signed
PUBLIC	?digits@?$numeric_limits@G@std@@2HB		; std::numeric_limits<unsigned short>::digits
PUBLIC	?digits10@?$numeric_limits@G@std@@2HB		; std::numeric_limits<unsigned short>::digits10
PUBLIC	?is_signed@?$numeric_limits@H@std@@2_NB		; std::numeric_limits<int>::is_signed
PUBLIC	?value@?$_Sizeof@HU_Nil@std@@U12@U12@U12@U12@U12@U12@@std@@2IB ; std::_Sizeof<int,std::_Nil,std::_Nil,std::_Nil,std::_Nil,std::_Nil,std::_Nil,std::_Nil>::value
PUBLIC	?digits@?$numeric_limits@H@std@@2HB		; std::numeric_limits<int>::digits
PUBLIC	?digits10@?$numeric_limits@H@std@@2HB		; std::numeric_limits<int>::digits10
PUBLIC	?skipws@?$_Iosb@H@std@@2W4_Fmtflags@12@B	; std::_Iosb<int>::skipws
PUBLIC	?unitbuf@?$_Iosb@H@std@@2W4_Fmtflags@12@B	; std::_Iosb<int>::unitbuf
PUBLIC	?is_signed@?$numeric_limits@I@std@@2_NB		; std::numeric_limits<unsigned int>::is_signed
PUBLIC	?uppercase@?$_Iosb@H@std@@2W4_Fmtflags@12@B	; std::_Iosb<int>::uppercase
PUBLIC	?showbase@?$_Iosb@H@std@@2W4_Fmtflags@12@B	; std::_Iosb<int>::showbase
PUBLIC	?digits@?$numeric_limits@I@std@@2HB		; std::numeric_limits<unsigned int>::digits
PUBLIC	?showpoint@?$_Iosb@H@std@@2W4_Fmtflags@12@B	; std::_Iosb<int>::showpoint
PUBLIC	?digits10@?$numeric_limits@I@std@@2HB		; std::numeric_limits<unsigned int>::digits10
PUBLIC	?showpos@?$_Iosb@H@std@@2W4_Fmtflags@12@B	; std::_Iosb<int>::showpos
PUBLIC	?left@?$_Iosb@H@std@@2W4_Fmtflags@12@B		; std::_Iosb<int>::left
PUBLIC	?right@?$_Iosb@H@std@@2W4_Fmtflags@12@B		; std::_Iosb<int>::right
PUBLIC	?internal@?$_Iosb@H@std@@2W4_Fmtflags@12@B	; std::_Iosb<int>::internal
PUBLIC	?dec@?$_Iosb@H@std@@2W4_Fmtflags@12@B		; std::_Iosb<int>::dec
PUBLIC	?oct@?$_Iosb@H@std@@2W4_Fmtflags@12@B		; std::_Iosb<int>::oct
PUBLIC	?hex@?$_Iosb@H@std@@2W4_Fmtflags@12@B		; std::_Iosb<int>::hex
PUBLIC	?scientific@?$_Iosb@H@std@@2W4_Fmtflags@12@B	; std::_Iosb<int>::scientific
PUBLIC	?fixed@?$_Iosb@H@std@@2W4_Fmtflags@12@B		; std::_Iosb<int>::fixed
PUBLIC	?hexfloat@?$_Iosb@H@std@@2W4_Fmtflags@12@B	; std::_Iosb<int>::hexfloat
PUBLIC	?is_signed@?$numeric_limits@J@std@@2_NB		; std::numeric_limits<long>::is_signed
PUBLIC	?boolalpha@?$_Iosb@H@std@@2W4_Fmtflags@12@B	; std::_Iosb<int>::boolalpha
PUBLIC	?digits@?$numeric_limits@J@std@@2HB		; std::numeric_limits<long>::digits
PUBLIC	?_Stdio@?$_Iosb@H@std@@2W4_Fmtflags@12@B	; std::_Iosb<int>::_Stdio
PUBLIC	?adjustfield@?$_Iosb@H@std@@2W4_Fmtflags@12@B	; std::_Iosb<int>::adjustfield
PUBLIC	?digits10@?$numeric_limits@J@std@@2HB		; std::numeric_limits<long>::digits10
;	COMDAT ?digits10@?$numeric_limits@J@std@@2HB
CONST	SEGMENT
?digits10@?$numeric_limits@J@std@@2HB DD 09H		; std::numeric_limits<long>::digits10
CONST	ENDS
;	COMDAT ?adjustfield@?$_Iosb@H@std@@2W4_Fmtflags@12@B
CONST	SEGMENT
?adjustfield@?$_Iosb@H@std@@2W4_Fmtflags@12@B DD 01c0H	; std::_Iosb<int>::adjustfield
CONST	ENDS
;	COMDAT ?_Stdio@?$_Iosb@H@std@@2W4_Fmtflags@12@B
CONST	SEGMENT
?_Stdio@?$_Iosb@H@std@@2W4_Fmtflags@12@B DD 08000H	; std::_Iosb<int>::_Stdio
CONST	ENDS
;	COMDAT ?digits@?$numeric_limits@J@std@@2HB
CONST	SEGMENT
?digits@?$numeric_limits@J@std@@2HB DD 01fH		; std::numeric_limits<long>::digits
CONST	ENDS
;	COMDAT ?boolalpha@?$_Iosb@H@std@@2W4_Fmtflags@12@B
CONST	SEGMENT
?boolalpha@?$_Iosb@H@std@@2W4_Fmtflags@12@B DD 04000H	; std::_Iosb<int>::boolalpha
CONST	ENDS
;	COMDAT ?is_signed@?$numeric_limits@J@std@@2_NB
CONST	SEGMENT
?is_signed@?$numeric_limits@J@std@@2_NB DB 01H		; std::numeric_limits<long>::is_signed
CONST	ENDS
;	COMDAT ?hexfloat@?$_Iosb@H@std@@2W4_Fmtflags@12@B
CONST	SEGMENT
?hexfloat@?$_Iosb@H@std@@2W4_Fmtflags@12@B DD 03000H	; std::_Iosb<int>::hexfloat
CONST	ENDS
;	COMDAT ?fixed@?$_Iosb@H@std@@2W4_Fmtflags@12@B
CONST	SEGMENT
?fixed@?$_Iosb@H@std@@2W4_Fmtflags@12@B DD 02000H	; std::_Iosb<int>::fixed
CONST	ENDS
;	COMDAT ?scientific@?$_Iosb@H@std@@2W4_Fmtflags@12@B
CONST	SEGMENT
?scientific@?$_Iosb@H@std@@2W4_Fmtflags@12@B DD 01000H	; std::_Iosb<int>::scientific
CONST	ENDS
;	COMDAT ?hex@?$_Iosb@H@std@@2W4_Fmtflags@12@B
CONST	SEGMENT
?hex@?$_Iosb@H@std@@2W4_Fmtflags@12@B DD 0800H		; std::_Iosb<int>::hex
CONST	ENDS
;	COMDAT ?oct@?$_Iosb@H@std@@2W4_Fmtflags@12@B
CONST	SEGMENT
?oct@?$_Iosb@H@std@@2W4_Fmtflags@12@B DD 0400H		; std::_Iosb<int>::oct
CONST	ENDS
;	COMDAT ?dec@?$_Iosb@H@std@@2W4_Fmtflags@12@B
CONST	SEGMENT
?dec@?$_Iosb@H@std@@2W4_Fmtflags@12@B DD 0200H		; std::_Iosb<int>::dec
CONST	ENDS
;	COMDAT ?internal@?$_Iosb@H@std@@2W4_Fmtflags@12@B
CONST	SEGMENT
?internal@?$_Iosb@H@std@@2W4_Fmtflags@12@B DD 0100H	; std::_Iosb<int>::internal
CONST	ENDS
;	COMDAT ?right@?$_Iosb@H@std@@2W4_Fmtflags@12@B
CONST	SEGMENT
?right@?$_Iosb@H@std@@2W4_Fmtflags@12@B DD 080H		; std::_Iosb<int>::right
CONST	ENDS
;	COMDAT ?left@?$_Iosb@H@std@@2W4_Fmtflags@12@B
CONST	SEGMENT
?left@?$_Iosb@H@std@@2W4_Fmtflags@12@B DD 040H		; std::_Iosb<int>::left
CONST	ENDS
;	COMDAT ?showpos@?$_Iosb@H@std@@2W4_Fmtflags@12@B
CONST	SEGMENT
?showpos@?$_Iosb@H@std@@2W4_Fmtflags@12@B DD 020H	; std::_Iosb<int>::showpos
CONST	ENDS
;	COMDAT ?digits10@?$numeric_limits@I@std@@2HB
CONST	SEGMENT
?digits10@?$numeric_limits@I@std@@2HB DD 09H		; std::numeric_limits<unsigned int>::digits10
CONST	ENDS
;	COMDAT ?showpoint@?$_Iosb@H@std@@2W4_Fmtflags@12@B
CONST	SEGMENT
?showpoint@?$_Iosb@H@std@@2W4_Fmtflags@12@B DD 010H	; std::_Iosb<int>::showpoint
CONST	ENDS
;	COMDAT ?digits@?$numeric_limits@I@std@@2HB
CONST	SEGMENT
?digits@?$numeric_limits@I@std@@2HB DD 020H		; std::numeric_limits<unsigned int>::digits
CONST	ENDS
;	COMDAT ?showbase@?$_Iosb@H@std@@2W4_Fmtflags@12@B
CONST	SEGMENT
?showbase@?$_Iosb@H@std@@2W4_Fmtflags@12@B DD 08H	; std::_Iosb<int>::showbase
CONST	ENDS
;	COMDAT ?uppercase@?$_Iosb@H@std@@2W4_Fmtflags@12@B
CONST	SEGMENT
?uppercase@?$_Iosb@H@std@@2W4_Fmtflags@12@B DD 04H	; std::_Iosb<int>::uppercase
CONST	ENDS
;	COMDAT ?is_signed@?$numeric_limits@I@std@@2_NB
CONST	SEGMENT
?is_signed@?$numeric_limits@I@std@@2_NB DB 00H		; std::numeric_limits<unsigned int>::is_signed
CONST	ENDS
;	COMDAT ?unitbuf@?$_Iosb@H@std@@2W4_Fmtflags@12@B
CONST	SEGMENT
?unitbuf@?$_Iosb@H@std@@2W4_Fmtflags@12@B DD 02H	; std::_Iosb<int>::unitbuf
CONST	ENDS
;	COMDAT ?skipws@?$_Iosb@H@std@@2W4_Fmtflags@12@B
CONST	SEGMENT
?skipws@?$_Iosb@H@std@@2W4_Fmtflags@12@B DD 01H		; std::_Iosb<int>::skipws
CONST	ENDS
;	COMDAT ?digits10@?$numeric_limits@H@std@@2HB
CONST	SEGMENT
?digits10@?$numeric_limits@H@std@@2HB DD 09H		; std::numeric_limits<int>::digits10
CONST	ENDS
;	COMDAT ?digits@?$numeric_limits@H@std@@2HB
CONST	SEGMENT
?digits@?$numeric_limits@H@std@@2HB DD 01fH		; std::numeric_limits<int>::digits
CONST	ENDS
;	COMDAT ?value@?$_Sizeof@HU_Nil@std@@U12@U12@U12@U12@U12@U12@@std@@2IB
CONST	SEGMENT
?value@?$_Sizeof@HU_Nil@std@@U12@U12@U12@U12@U12@U12@@std@@2IB DD 01H ; std::_Sizeof<int,std::_Nil,std::_Nil,std::_Nil,std::_Nil,std::_Nil,std::_Nil,std::_Nil>::value
CONST	ENDS
;	COMDAT ?is_signed@?$numeric_limits@H@std@@2_NB
CONST	SEGMENT
?is_signed@?$numeric_limits@H@std@@2_NB DB 01H		; std::numeric_limits<int>::is_signed
CONST	ENDS
;	COMDAT ?digits10@?$numeric_limits@G@std@@2HB
CONST	SEGMENT
?digits10@?$numeric_limits@G@std@@2HB DD 04H		; std::numeric_limits<unsigned short>::digits10
CONST	ENDS
;	COMDAT ?digits@?$numeric_limits@G@std@@2HB
CONST	SEGMENT
?digits@?$numeric_limits@G@std@@2HB DD 010H		; std::numeric_limits<unsigned short>::digits
CONST	ENDS
;	COMDAT ?is_signed@?$numeric_limits@G@std@@2_NB
CONST	SEGMENT
?is_signed@?$numeric_limits@G@std@@2_NB DB 00H		; std::numeric_limits<unsigned short>::is_signed
CONST	ENDS
;	COMDAT ?digits10@?$numeric_limits@F@std@@2HB
CONST	SEGMENT
?digits10@?$numeric_limits@F@std@@2HB DD 04H		; std::numeric_limits<short>::digits10
CONST	ENDS
;	COMDAT ?digits@?$numeric_limits@F@std@@2HB
CONST	SEGMENT
?digits@?$numeric_limits@F@std@@2HB DD 0fH		; std::numeric_limits<short>::digits
CONST	ENDS
;	COMDAT ?is_signed@?$numeric_limits@F@std@@2_NB
CONST	SEGMENT
?is_signed@?$numeric_limits@F@std@@2_NB DB 01H		; std::numeric_limits<short>::is_signed
CONST	ENDS
;	COMDAT ?value@?$integral_constant@_N$00@std@@2_NB
CONST	SEGMENT
?value@?$integral_constant@_N$00@std@@2_NB DB 01H	; std::integral_constant<bool,1>::value
CONST	ENDS
;	COMDAT ?digits10@?$numeric_limits@E@std@@2HB
CONST	SEGMENT
?digits10@?$numeric_limits@E@std@@2HB DD 02H		; std::numeric_limits<unsigned char>::digits10
CONST	ENDS
;	COMDAT ?digits@?$numeric_limits@E@std@@2HB
CONST	SEGMENT
?digits@?$numeric_limits@E@std@@2HB DD 08H		; std::numeric_limits<unsigned char>::digits
CONST	ENDS
;	COMDAT ?value@?$integral_constant@_N$0A@@std@@2_NB
CONST	SEGMENT
?value@?$integral_constant@_N$0A@@std@@2_NB DB 00H	; std::integral_constant<bool,0>::value
CONST	ENDS
;	COMDAT ?is_signed@?$numeric_limits@E@std@@2_NB
CONST	SEGMENT
?is_signed@?$numeric_limits@E@std@@2_NB DB 00H		; std::numeric_limits<unsigned char>::is_signed
CONST	ENDS
;	COMDAT ?digits10@?$numeric_limits@C@std@@2HB
CONST	SEGMENT
?digits10@?$numeric_limits@C@std@@2HB DD 02H		; std::numeric_limits<signed char>::digits10
CONST	ENDS
;	COMDAT ?digits@?$numeric_limits@C@std@@2HB
CONST	SEGMENT
?digits@?$numeric_limits@C@std@@2HB DD 07H		; std::numeric_limits<signed char>::digits
CONST	ENDS
;	COMDAT ?is_signed@?$numeric_limits@C@std@@2_NB
CONST	SEGMENT
?is_signed@?$numeric_limits@C@std@@2_NB DB 01H		; std::numeric_limits<signed char>::is_signed
CONST	ENDS
_DATA	SEGMENT
_cloudPntList DD 0c5bcc000r			; -6040
	DD	0c4070000r			; -540
	DD	0c694ac00r			; -19030
	DD	0c6de1c00r			; -28430
	DD	0c4dfc000r			; -1790
	DD	046dcc800r			; 28260
	DD	047104200r			; 36930
	DD	045732000r			; 3890
	DD	04744ea00r			; 50410
	DD	045336000r			; 2870
	DD	0c4d48000r			; -1700
	DD	04736da00r			; 46810
	DD	0c763ee00r			; -58350
	DD	0c4d48000r			; -1700
	DD	0c64c1000r			; -13060
	DD	046f2bc00r			; 31070
	DD	045480000r			; 3200
	DD	0c7293800r			; -43320
	DD	0c7bdc400r			; -97160
	DD	0c4d48000r			; -1700
	DD	04576e000r			; 3950
	DD	0c792e000r			; -75200
	DD	0c4bb8000r			; -1500
	DD	047957400r			; 76520
	DD	04759ee00r			; 55790
	DD	0c5a1e000r			; -5180
	DD	0c7a24e00r			; -83100
	DD	0c7473800r			; -51000
	DD	0c3a00000r			; -320
	DD	0c7829100r			; -66850
	DD	047733400r			; 62260
	DD	0c3a00000r			; -320
	DD	047708200r			; 61570
	DD	0c7710e00r			; -61710
	DD	0c550c000r			; -3340
	DD	046fb7c00r			; 32190
	DD	0c7719a00r			; -61850
	DD	0c7483200r			; -51250
	DD	047543a00r			; 54330
	DD	0c5bcc000r			; -6040
	DD	0c7495400r			; -51540
	DD	0c694ac00r			; -19030
	DD	0c6a7a800r			; -21460
	DD	0c74b0200r			; -51970
	DD	0468e8000r			; 18240
	DD	047298800r			; 43400
	DD	0c74bf200r			; -52210
	DD	046bc7000r			; 24120
	DD	0c749f400r			; -51700
	DD	0c74bc000r			; -52160
	DD	046948400r			; 19010
	DD	0c605e800r			; -8570
	DD	0c7488200r			; -51330
	DD	0c74ca600r			; -52390
	DD	04731bc00r			; 45500
	DD	0c7509800r			; -53400
	DD	0c6725800r			; -15510
	DD	0c7719a00r			; -61850
	DD	0c7483200r			; -51250
	DD	047543a00r			; 54330
	DD	047553400r			; 54580
	DD	0c74ddc00r			; -52700
	DD	0479a5600r			; 79020
	DD	047a7e400r			; 85960
	DD	0c74c5600r			; -52310
	DD	0477d4800r			; 64840
	DD	0c7c44500r			; -100490
	DD	0c74d1400r			; -52500
	DD	047ac2600r			; 88140
	DD	0c7a1ae00r			; -82780
	DD	0c749ea00r			; -51690
	DD	0c7bce300r			; -96710
	DD	0c6126800r			; -9370
	DD	0c7495400r			; -51540
	DD	043cd0000r			; 410
	DD	0c6a7a800r			; -21460
	DD	0c74a8a00r			; -51850
	DD	0473fae00r			; 49070
	DD	0457c8000r			; 4040
	DD	0c74e4a00r			; -52810
	DD	047871e00r			; 69180
	DD	0c6cbc000r			; -26080
	DD	0c74bc000r			; -52160
	DD	046984400r			; 19490
	DD	0452fa000r			; 2810
	DD	0c7488200r			; -51330
	DD	0c7081800r			; -34840
	DD	0c7719a00r			; -61850
	DD	0c749d600r			; -51670
	DD	047b17600r			; 90860
	DD	047553400r			; 54580
	DD	0c74ddc00r			; -52700
	DD	0479a5600r			; 79020
	DD	047a7e400r			; 85960
	DD	0c74c5600r			; -52310
	DD	0477d4800r			; 64840
	DD	0c7c44500r			; -100490
	DD	0c74d1400r			; -52500
	DD	047ac2600r			; 88140
	DD	047c04e00r			; 98460
	DD	0c74d1400r			; -52500
	DD	0c732a200r			; -45730
	DD	0467b9000r			; 16100
	DD	0c7487800r			; -51320
	DD	0c749a400r			; -51620
	DD	047636c00r			; 58220
	DD	0c74e0400r			; -52740
	DD	0c760b000r			; -57520
	DD	0c6126800r			; -9370
	DD	0c4070000r			; -540
	DD	043cd0000r			; 410
	DD	0c4e60000r			; -1840
	DD	0c6a30c00r			; -20870
	DD	0470a6600r			; 35430
	DD	0c7230c00r			; -41740
	DD	046924000r			; 18720
	DD	04797d600r			; 77740
	DD	0460d9000r			; 9060
	DD	0c616c800r			; -9650
	DD	0c7921300r			; -74790
_lightningPosList DD 041300000r			; 11
	DD	000000000r			; 0
	DD	040e00000r			; 7
	DD	040a00000r			; 5
	DD	041100000r			; 9
	DD	041000000r			; 8
	DD	041000000r			; 8
	DD	041600000r			; 14
	DD	041800000r			; 16
	DD	041a00000r			; 20
	DD	041200000r			; 10
	DD	041c00000r			; 24
	DD	041300000r			; 11
	DD	041d80000r			; 27
	DD	040c00000r			; 6
	DD	041f00000r			; 30
	DD	040e00000r			; 7
	DD	042040000r			; 33
	DD	03f800000r			; 1
	DD	042180000r			; 38
	DD	040a00000r			; 5
	DD	042280000r			; 42
	DD	040a00000r			; 5
	DD	042340000r			; 45
	DD	041400000r			; 12
	DD	042400000r			; 48
	DD	041a00000r			; 20
	DD	042500000r			; 52
	DD	041a00000r			; 20
	DD	042680000r			; 58
	DD	041b80000r			; 23
	DD	042740000r			; 61
	DD	041b00000r			; 22
	DD	0427c0000r			; 63
	DD	041b00000r			; 22
	DD	042840000r			; 66
	DD	041c80000r			; 25
	DD	042880000r			; 68
	DD	041a00000r			; 20
	DD	0428c0000r			; 70
	DD	041c00000r			; 24
	DD	042960000r			; 75
	DD	041c00000r			; 24
	DD	0429a0000r			; 77
	DD	041f80000r			; 31
	DD	042a00000r			; 80
	DD	041f80000r			; 31
	DD	042a60000r			; 83
	DD	042040000r			; 33
	DD	042b00000r			; 88
	DD	041f80000r			; 31
	DD	042b80000r			; 92
	DD	0423c0000r			; 47
	DD	042ce0000r			; 103
	DD	042380000r			; 46
	DD	042d20000r			; 105
	DD	0423c0000r			; 47
	DD	042d60000r			; 107
	DD	042340000r			; 45
	DD	042e00000r			; 112
	DD	042400000r			; 48
	DD	042e40000r			; 114
	DD	042380000r			; 46
	DD	042ea0000r			; 117
	DD	0422c0000r			; 43
	DD	043000000r			; 128
_BDefaultFont DD 011H
_DATA	ENDS
;	COMDAT ?digits10@?$numeric_limits@_N@std@@2HB
CONST	SEGMENT
?digits10@?$numeric_limits@_N@std@@2HB DD 00H		; std::numeric_limits<bool>::digits10
CONST	ENDS
;	COMDAT ?digits@?$numeric_limits@_N@std@@2HB
CONST	SEGMENT
?digits@?$numeric_limits@_N@std@@2HB DD 01H		; std::numeric_limits<bool>::digits
CONST	ENDS
;	COMDAT ?is_signed@?$numeric_limits@_N@std@@2_NB
CONST	SEGMENT
?is_signed@?$numeric_limits@_N@std@@2_NB DB 00H		; std::numeric_limits<bool>::is_signed
CONST	ENDS
;	COMDAT ?is_modulo@?$numeric_limits@_N@std@@2_NB
CONST	SEGMENT
?is_modulo@?$numeric_limits@_N@std@@2_NB DB 00H		; std::numeric_limits<bool>::is_modulo
CONST	ENDS
;	COMDAT ?digits10@?$numeric_limits@_W@std@@2HB
CONST	SEGMENT
?digits10@?$numeric_limits@_W@std@@2HB DD 04H		; std::numeric_limits<wchar_t>::digits10
CONST	ENDS
;	COMDAT ?digits@?$numeric_limits@_W@std@@2HB
CONST	SEGMENT
?digits@?$numeric_limits@_W@std@@2HB DD 010H		; std::numeric_limits<wchar_t>::digits
CONST	ENDS
;	COMDAT ?is_signed@?$numeric_limits@_W@std@@2_NB
CONST	SEGMENT
?is_signed@?$numeric_limits@_W@std@@2_NB DB 00H		; std::numeric_limits<wchar_t>::is_signed
CONST	ENDS
;	COMDAT ?digits10@?$numeric_limits@D@std@@2HB
CONST	SEGMENT
?digits10@?$numeric_limits@D@std@@2HB DD 02H		; std::numeric_limits<char>::digits10
CONST	ENDS
;	COMDAT ?digits@?$numeric_limits@D@std@@2HB
CONST	SEGMENT
?digits@?$numeric_limits@D@std@@2HB DD 07H		; std::numeric_limits<char>::digits
CONST	ENDS
;	COMDAT ?is_signed@?$numeric_limits@D@std@@2_NB
CONST	SEGMENT
?is_signed@?$numeric_limits@D@std@@2_NB DB 01H		; std::numeric_limits<char>::is_signed
CONST	ENDS
;	COMDAT ?radix@_Num_float_base@std@@2HB
CONST	SEGMENT
?radix@_Num_float_base@std@@2HB DD 02H			; std::_Num_float_base::radix
CONST	ENDS
;	COMDAT ?round_style@_Num_float_base@std@@2W4float_round_style@2@B
CONST	SEGMENT
?round_style@_Num_float_base@std@@2W4float_round_style@2@B DD 01H ; std::_Num_float_base::round_style
CONST	ENDS
;	COMDAT ?traps@_Num_float_base@std@@2_NB
CONST	SEGMENT
?traps@_Num_float_base@std@@2_NB DB 00H			; std::_Num_float_base::traps
CONST	ENDS
;	COMDAT ?tinyness_before@_Num_float_base@std@@2_NB
CONST	SEGMENT
?tinyness_before@_Num_float_base@std@@2_NB DB 01H	; std::_Num_float_base::tinyness_before
CONST	ENDS
;	COMDAT ?is_specialized@_Num_float_base@std@@2_NB
CONST	SEGMENT
?is_specialized@_Num_float_base@std@@2_NB DB 01H	; std::_Num_float_base::is_specialized
CONST	ENDS
;	COMDAT ?is_signed@_Num_float_base@std@@2_NB
CONST	SEGMENT
?is_signed@_Num_float_base@std@@2_NB DB 01H		; std::_Num_float_base::is_signed
CONST	ENDS
;	COMDAT ?is_modulo@_Num_float_base@std@@2_NB
CONST	SEGMENT
?is_modulo@_Num_float_base@std@@2_NB DB 00H		; std::_Num_float_base::is_modulo
CONST	ENDS
;	COMDAT ?is_integer@_Num_float_base@std@@2_NB
CONST	SEGMENT
?is_integer@_Num_float_base@std@@2_NB DB 00H		; std::_Num_float_base::is_integer
CONST	ENDS
;	COMDAT ?is_iec559@_Num_float_base@std@@2_NB
CONST	SEGMENT
?is_iec559@_Num_float_base@std@@2_NB DB 01H		; std::_Num_float_base::is_iec559
CONST	ENDS
;	COMDAT ?is_exact@_Num_float_base@std@@2_NB
CONST	SEGMENT
?is_exact@_Num_float_base@std@@2_NB DB 00H		; std::_Num_float_base::is_exact
CONST	ENDS
;	COMDAT ?is_bounded@_Num_float_base@std@@2_NB
CONST	SEGMENT
?is_bounded@_Num_float_base@std@@2_NB DB 01H		; std::_Num_float_base::is_bounded
CONST	ENDS
;	COMDAT ?has_signaling_NaN@_Num_float_base@std@@2_NB
CONST	SEGMENT
?has_signaling_NaN@_Num_float_base@std@@2_NB DB 01H	; std::_Num_float_base::has_signaling_NaN
CONST	ENDS
;	COMDAT ?has_quiet_NaN@_Num_float_base@std@@2_NB
CONST	SEGMENT
?has_quiet_NaN@_Num_float_base@std@@2_NB DB 01H		; std::_Num_float_base::has_quiet_NaN
CONST	ENDS
;	COMDAT ?has_infinity@_Num_float_base@std@@2_NB
CONST	SEGMENT
?has_infinity@_Num_float_base@std@@2_NB DB 01H		; std::_Num_float_base::has_infinity
CONST	ENDS
;	COMDAT ?CMPDIRTYDATA_INTERVAL@FalconEntity@@2KB
CONST	SEGMENT
?CMPDIRTYDATA_INTERVAL@FalconEntity@@2KB DD 0c8H	; FalconEntity::CMPDIRTYDATA_INTERVAL
CONST	ENDS
;	COMDAT ?SIMDIRTYDATA_INTERVAL@FalconEntity@@2KB
CONST	SEGMENT
?SIMDIRTYDATA_INTERVAL@FalconEntity@@2KB DD 0c8H	; FalconEntity::SIMDIRTYDATA_INTERVAL
CONST	ENDS
;	COMDAT ?has_denorm_loss@_Num_float_base@std@@2_NB
CONST	SEGMENT
?has_denorm_loss@_Num_float_base@std@@2_NB DB 01H	; std::_Num_float_base::has_denorm_loss
CONST	ENDS
;	COMDAT ?has_denorm@_Num_float_base@std@@2W4float_denorm_style@2@B
CONST	SEGMENT
?has_denorm@_Num_float_base@std@@2W4float_denorm_style@2@B DD 01H ; std::_Num_float_base::has_denorm
CONST	ENDS
;	COMDAT ?radix@_Num_int_base@std@@2HB
CONST	SEGMENT
?radix@_Num_int_base@std@@2HB DD 02H			; std::_Num_int_base::radix
CONST	ENDS
;	COMDAT ?is_specialized@_Num_int_base@std@@2_NB
CONST	SEGMENT
?is_specialized@_Num_int_base@std@@2_NB DB 01H		; std::_Num_int_base::is_specialized
CONST	ENDS
;	COMDAT ?is_modulo@_Num_int_base@std@@2_NB
CONST	SEGMENT
?is_modulo@_Num_int_base@std@@2_NB DB 01H		; std::_Num_int_base::is_modulo
CONST	ENDS
;	COMDAT ?is_integer@_Num_int_base@std@@2_NB
CONST	SEGMENT
?is_integer@_Num_int_base@std@@2_NB DB 01H		; std::_Num_int_base::is_integer
CONST	ENDS
;	COMDAT ?is_exact@_Num_int_base@std@@2_NB
CONST	SEGMENT
?is_exact@_Num_int_base@std@@2_NB DB 01H		; std::_Num_int_base::is_exact
CONST	ENDS
;	COMDAT ?is_bounded@_Num_int_base@std@@2_NB
CONST	SEGMENT
?is_bounded@_Num_int_base@std@@2_NB DB 01H		; std::_Num_int_base::is_bounded
CONST	ENDS
CONST	SEGMENT
_NEAR_CLIP DD	03f800000r			; 1
_L_2	DD	03f317218r			; 0.693147
CONST	ENDS
;	COMDAT ?radix@_Num_base@std@@2HB
CONST	SEGMENT
?radix@_Num_base@std@@2HB DD 00H			; std::_Num_base::radix
CONST	ENDS
;	COMDAT ?min_exponent10@_Num_base@std@@2HB
CONST	SEGMENT
?min_exponent10@_Num_base@std@@2HB DD 00H		; std::_Num_base::min_exponent10
CONST	ENDS
;	COMDAT ?min_exponent@_Num_base@std@@2HB
CONST	SEGMENT
?min_exponent@_Num_base@std@@2HB DD 00H			; std::_Num_base::min_exponent
CONST	ENDS
;	COMDAT ?max_exponent10@_Num_base@std@@2HB
CONST	SEGMENT
?max_exponent10@_Num_base@std@@2HB DD 00H		; std::_Num_base::max_exponent10
CONST	ENDS
;	COMDAT ?max_exponent@_Num_base@std@@2HB
CONST	SEGMENT
?max_exponent@_Num_base@std@@2HB DD 00H			; std::_Num_base::max_exponent
CONST	ENDS
;	COMDAT ?max_digits10@_Num_base@std@@2HB
CONST	SEGMENT
?max_digits10@_Num_base@std@@2HB DD 00H			; std::_Num_base::max_digits10
CONST	ENDS
;	COMDAT ?digits10@_Num_base@std@@2HB
CONST	SEGMENT
?digits10@_Num_base@std@@2HB DD 00H			; std::_Num_base::digits10
CONST	ENDS
;	COMDAT ?digits@_Num_base@std@@2HB
CONST	SEGMENT
?digits@_Num_base@std@@2HB DD 00H			; std::_Num_base::digits
CONST	ENDS
;	COMDAT ?round_style@_Num_base@std@@2W4float_round_style@2@B
CONST	SEGMENT
?round_style@_Num_base@std@@2W4float_round_style@2@B DD 00H ; std::_Num_base::round_style
CONST	ENDS
;	COMDAT ?traps@_Num_base@std@@2_NB
CONST	SEGMENT
?traps@_Num_base@std@@2_NB DB 00H			; std::_Num_base::traps
CONST	ENDS
;	COMDAT ?tinyness_before@_Num_base@std@@2_NB
CONST	SEGMENT
?tinyness_before@_Num_base@std@@2_NB DB 00H		; std::_Num_base::tinyness_before
CONST	ENDS
;	COMDAT ?is_specialized@_Num_base@std@@2_NB
CONST	SEGMENT
?is_specialized@_Num_base@std@@2_NB DB 00H		; std::_Num_base::is_specialized
CONST	ENDS
;	COMDAT ?is_signed@_Num_base@std@@2_NB
CONST	SEGMENT
?is_signed@_Num_base@std@@2_NB DB 00H			; std::_Num_base::is_signed
CONST	ENDS
;	COMDAT ?is_modulo@_Num_base@std@@2_NB
CONST	SEGMENT
?is_modulo@_Num_base@std@@2_NB DB 00H			; std::_Num_base::is_modulo
CONST	ENDS
;	COMDAT ?is_integer@_Num_base@std@@2_NB
CONST	SEGMENT
?is_integer@_Num_base@std@@2_NB DB 00H			; std::_Num_base::is_integer
CONST	ENDS
;	COMDAT ?is_iec559@_Num_base@std@@2_NB
CONST	SEGMENT
?is_iec559@_Num_base@std@@2_NB DB 00H			; std::_Num_base::is_iec559
CONST	ENDS
;	COMDAT ?is_exact@_Num_base@std@@2_NB
CONST	SEGMENT
?is_exact@_Num_base@std@@2_NB DB 00H			; std::_Num_base::is_exact
CONST	ENDS
;	COMDAT ?table_size@?$ctype@D@std@@2IB
CONST	SEGMENT
?table_size@?$ctype@D@std@@2IB DD 0100H			; std::ctype<char>::table_size
CONST	ENDS
;	COMDAT ?is_bounded@_Num_base@std@@2_NB
CONST	SEGMENT
?is_bounded@_Num_base@std@@2_NB DB 00H			; std::_Num_base::is_bounded
CONST	ENDS
;	COMDAT ?has_signaling_NaN@_Num_base@std@@2_NB
CONST	SEGMENT
?has_signaling_NaN@_Num_base@std@@2_NB DB 00H		; std::_Num_base::has_signaling_NaN
CONST	ENDS
;	COMDAT ?has_quiet_NaN@_Num_base@std@@2_NB
CONST	SEGMENT
?has_quiet_NaN@_Num_base@std@@2_NB DB 00H		; std::_Num_base::has_quiet_NaN
CONST	ENDS
;	COMDAT ?has_infinity@_Num_base@std@@2_NB
CONST	SEGMENT
?has_infinity@_Num_base@std@@2_NB DB 00H		; std::_Num_base::has_infinity
CONST	ENDS
;	COMDAT ?has_denorm_loss@_Num_base@std@@2_NB
CONST	SEGMENT
?has_denorm_loss@_Num_base@std@@2_NB DB 00H		; std::_Num_base::has_denorm_loss
CONST	ENDS
;	COMDAT ?has_denorm@_Num_base@std@@2W4float_denorm_style@2@B
CONST	SEGMENT
?has_denorm@_Num_base@std@@2W4float_denorm_style@2@B DD 00H ; std::_Num_base::has_denorm
CONST	ENDS
;	COMDAT ?value@?$_Sizeof@U_Nil@std@@U12@U12@U12@U12@U12@U12@U12@@std@@2IB
CONST	SEGMENT
?value@?$_Sizeof@U_Nil@std@@U12@U12@U12@U12@U12@U12@U12@@std@@2IB DD 00H ; std::_Sizeof<std::_Nil,std::_Nil,std::_Nil,std::_Nil,std::_Nil,std::_Nil,std::_Nil,std::_Nil>::value
CONST	ENDS
;	COMDAT ?none@?$_Locbase@H@std@@2HB
CONST	SEGMENT
?none@?$_Locbase@H@std@@2HB DD 00H			; std::_Locbase<int>::none
CONST	ENDS
;	COMDAT ?all@?$_Locbase@H@std@@2HB
CONST	SEGMENT
?all@?$_Locbase@H@std@@2HB DD 03fH			; std::_Locbase<int>::all
CONST	ENDS
;	COMDAT ?messages@?$_Locbase@H@std@@2HB
CONST	SEGMENT
?messages@?$_Locbase@H@std@@2HB DD 020H			; std::_Locbase<int>::messages
CONST	ENDS
;	COMDAT ?time@?$_Locbase@H@std@@2HB
CONST	SEGMENT
?time@?$_Locbase@H@std@@2HB DD 010H			; std::_Locbase<int>::time
CONST	ENDS
;	COMDAT ?numeric@?$_Locbase@H@std@@2HB
CONST	SEGMENT
?numeric@?$_Locbase@H@std@@2HB DD 08H			; std::_Locbase<int>::numeric
CONST	ENDS
;	COMDAT ?monetary@?$_Locbase@H@std@@2HB
CONST	SEGMENT
?monetary@?$_Locbase@H@std@@2HB DD 04H			; std::_Locbase<int>::monetary
CONST	ENDS
;	COMDAT ?ctype@?$_Locbase@H@std@@2HB
CONST	SEGMENT
?ctype@?$_Locbase@H@std@@2HB DD 02H			; std::_Locbase<int>::ctype
CONST	ENDS
;	COMDAT ?collate@?$_Locbase@H@std@@2HB
CONST	SEGMENT
?collate@?$_Locbase@H@std@@2HB DD 01H			; std::_Locbase<int>::collate
CONST	ENDS
;	COMDAT ?min_exponent10@?$numeric_limits@O@std@@2HB
CONST	SEGMENT
?min_exponent10@?$numeric_limits@O@std@@2HB DD 0fffffecdH ; std::numeric_limits<long double>::min_exponent10
CONST	ENDS
;	COMDAT ?min_exponent@?$numeric_limits@O@std@@2HB
CONST	SEGMENT
?min_exponent@?$numeric_limits@O@std@@2HB DD 0fffffc03H	; std::numeric_limits<long double>::min_exponent
CONST	ENDS
;	COMDAT ?max_exponent10@?$numeric_limits@O@std@@2HB
CONST	SEGMENT
?max_exponent10@?$numeric_limits@O@std@@2HB DD 0134H	; std::numeric_limits<long double>::max_exponent10
CONST	ENDS
;	COMDAT ?max_exponent@?$numeric_limits@O@std@@2HB
CONST	SEGMENT
?max_exponent@?$numeric_limits@O@std@@2HB DD 0400H	; std::numeric_limits<long double>::max_exponent
CONST	ENDS
;	COMDAT ?max_digits10@?$numeric_limits@O@std@@2HB
CONST	SEGMENT
?max_digits10@?$numeric_limits@O@std@@2HB DD 011H	; std::numeric_limits<long double>::max_digits10
CONST	ENDS
;	COMDAT ?digits10@?$numeric_limits@O@std@@2HB
CONST	SEGMENT
?digits10@?$numeric_limits@O@std@@2HB DD 0fH		; std::numeric_limits<long double>::digits10
CONST	ENDS
;	COMDAT ?digits@?$numeric_limits@O@std@@2HB
CONST	SEGMENT
?digits@?$numeric_limits@O@std@@2HB DD 035H		; std::numeric_limits<long double>::digits
CONST	ENDS
;	COMDAT ?min_exponent10@?$numeric_limits@N@std@@2HB
CONST	SEGMENT
?min_exponent10@?$numeric_limits@N@std@@2HB DD 0fffffecdH ; std::numeric_limits<double>::min_exponent10
CONST	ENDS
;	COMDAT ?min_exponent@?$numeric_limits@N@std@@2HB
CONST	SEGMENT
?min_exponent@?$numeric_limits@N@std@@2HB DD 0fffffc03H	; std::numeric_limits<double>::min_exponent
CONST	ENDS
;	COMDAT ?max_exponent10@?$numeric_limits@N@std@@2HB
CONST	SEGMENT
?max_exponent10@?$numeric_limits@N@std@@2HB DD 0134H	; std::numeric_limits<double>::max_exponent10
CONST	ENDS
;	COMDAT ?max_exponent@?$numeric_limits@N@std@@2HB
CONST	SEGMENT
?max_exponent@?$numeric_limits@N@std@@2HB DD 0400H	; std::numeric_limits<double>::max_exponent
CONST	ENDS
;	COMDAT ?max_digits10@?$numeric_limits@N@std@@2HB
CONST	SEGMENT
?max_digits10@?$numeric_limits@N@std@@2HB DD 011H	; std::numeric_limits<double>::max_digits10
CONST	ENDS
;	COMDAT ?digits10@?$numeric_limits@N@std@@2HB
CONST	SEGMENT
?digits10@?$numeric_limits@N@std@@2HB DD 0fH		; std::numeric_limits<double>::digits10
CONST	ENDS
;	COMDAT ?digits@?$numeric_limits@N@std@@2HB
CONST	SEGMENT
?digits@?$numeric_limits@N@std@@2HB DD 035H		; std::numeric_limits<double>::digits
CONST	ENDS
;	COMDAT ?value@?$integral_constant@I$0A@@std@@2IB
CONST	SEGMENT
?value@?$integral_constant@I$0A@@std@@2IB DD 00H	; std::integral_constant<unsigned int,0>::value
CONST	ENDS
;	COMDAT ?min_exponent10@?$numeric_limits@M@std@@2HB
CONST	SEGMENT
?min_exponent10@?$numeric_limits@M@std@@2HB DD 0ffffffdbH ; std::numeric_limits<float>::min_exponent10
CONST	ENDS
;	COMDAT ?min_exponent@?$numeric_limits@M@std@@2HB
CONST	SEGMENT
?min_exponent@?$numeric_limits@M@std@@2HB DD 0ffffff83H	; std::numeric_limits<float>::min_exponent
CONST	ENDS
;	COMDAT ?max_exponent10@?$numeric_limits@M@std@@2HB
CONST	SEGMENT
?max_exponent10@?$numeric_limits@M@std@@2HB DD 026H	; std::numeric_limits<float>::max_exponent10
CONST	ENDS
;	COMDAT ?max_exponent@?$numeric_limits@M@std@@2HB
CONST	SEGMENT
?max_exponent@?$numeric_limits@M@std@@2HB DD 080H	; std::numeric_limits<float>::max_exponent
CONST	ENDS
;	COMDAT ?max_digits10@?$numeric_limits@M@std@@2HB
CONST	SEGMENT
?max_digits10@?$numeric_limits@M@std@@2HB DD 09H	; std::numeric_limits<float>::max_digits10
CONST	ENDS
;	COMDAT ?digits10@?$numeric_limits@M@std@@2HB
CONST	SEGMENT
?digits10@?$numeric_limits@M@std@@2HB DD 06H		; std::numeric_limits<float>::digits10
CONST	ENDS
;	COMDAT ?digits@?$numeric_limits@M@std@@2HB
CONST	SEGMENT
?digits@?$numeric_limits@M@std@@2HB DD 018H		; std::numeric_limits<float>::digits
CONST	ENDS
;	COMDAT ?digits10@?$numeric_limits@_K@std@@2HB
CONST	SEGMENT
?digits10@?$numeric_limits@_K@std@@2HB DD 013H		; std::numeric_limits<unsigned __int64>::digits10
CONST	ENDS
;	COMDAT ?digits@?$numeric_limits@_K@std@@2HB
CONST	SEGMENT
?digits@?$numeric_limits@_K@std@@2HB DD 040H		; std::numeric_limits<unsigned __int64>::digits
CONST	ENDS
;	COMDAT ?is_signed@?$numeric_limits@_K@std@@2_NB
CONST	SEGMENT
?is_signed@?$numeric_limits@_K@std@@2_NB DB 00H		; std::numeric_limits<unsigned __int64>::is_signed
CONST	ENDS
;	COMDAT ?_Stream_err@failure@ios_base@std@@0W4io_errc@43@B
CONST	SEGMENT
?_Stream_err@failure@ios_base@std@@0W4io_errc@43@B DD 01H ; std::ios_base::failure::_Stream_err
CONST	ENDS
;	COMDAT ?digits10@?$numeric_limits@_J@std@@2HB
CONST	SEGMENT
?digits10@?$numeric_limits@_J@std@@2HB DD 012H		; std::numeric_limits<__int64>::digits10
CONST	ENDS
;	COMDAT ?digits@?$numeric_limits@_J@std@@2HB
CONST	SEGMENT
?digits@?$numeric_limits@_J@std@@2HB DD 03fH		; std::numeric_limits<__int64>::digits
CONST	ENDS
;	COMDAT ?is_signed@?$numeric_limits@_J@std@@2_NB
CONST	SEGMENT
?is_signed@?$numeric_limits@_J@std@@2_NB DB 01H		; std::numeric_limits<__int64>::is_signed
CONST	ENDS
;	COMDAT ?end@?$_Iosb@H@std@@2W4_Seekdir@12@B
CONST	SEGMENT
?end@?$_Iosb@H@std@@2W4_Seekdir@12@B DD 02H		; std::_Iosb<int>::end
CONST	ENDS
;	COMDAT ?cur@?$_Iosb@H@std@@2W4_Seekdir@12@B
CONST	SEGMENT
?cur@?$_Iosb@H@std@@2W4_Seekdir@12@B DD 01H		; std::_Iosb<int>::cur
CONST	ENDS
;	COMDAT ?beg@?$_Iosb@H@std@@2W4_Seekdir@12@B
CONST	SEGMENT
?beg@?$_Iosb@H@std@@2W4_Seekdir@12@B DD 00H		; std::_Iosb<int>::beg
CONST	ENDS
;	COMDAT ?binary@?$_Iosb@H@std@@2W4_Openmode@12@B
CONST	SEGMENT
?binary@?$_Iosb@H@std@@2W4_Openmode@12@B DD 020H	; std::_Iosb<int>::binary
CONST	ENDS
;	COMDAT ?_Noreplace@?$_Iosb@H@std@@2W4_Openmode@12@B
CONST	SEGMENT
?_Noreplace@?$_Iosb@H@std@@2W4_Openmode@12@B DD 080H	; std::_Iosb<int>::_Noreplace
CONST	ENDS
;	COMDAT ?_Nocreate@?$_Iosb@H@std@@2W4_Openmode@12@B
CONST	SEGMENT
?_Nocreate@?$_Iosb@H@std@@2W4_Openmode@12@B DD 040H	; std::_Iosb<int>::_Nocreate
CONST	ENDS
;	COMDAT ?trunc@?$_Iosb@H@std@@2W4_Openmode@12@B
CONST	SEGMENT
?trunc@?$_Iosb@H@std@@2W4_Openmode@12@B DD 010H		; std::_Iosb<int>::trunc
CONST	ENDS
;	COMDAT ?digits10@?$numeric_limits@K@std@@2HB
CONST	SEGMENT
?digits10@?$numeric_limits@K@std@@2HB DD 09H		; std::numeric_limits<unsigned long>::digits10
CONST	ENDS
;	COMDAT ?app@?$_Iosb@H@std@@2W4_Openmode@12@B
CONST	SEGMENT
?app@?$_Iosb@H@std@@2W4_Openmode@12@B DD 08H		; std::_Iosb<int>::app
CONST	ENDS
;	COMDAT ?digits@?$numeric_limits@K@std@@2HB
CONST	SEGMENT
?digits@?$numeric_limits@K@std@@2HB DD 020H		; std::numeric_limits<unsigned long>::digits
CONST	ENDS
;	COMDAT ?ate@?$_Iosb@H@std@@2W4_Openmode@12@B
CONST	SEGMENT
?ate@?$_Iosb@H@std@@2W4_Openmode@12@B DD 04H		; std::_Iosb<int>::ate
CONST	ENDS
;	COMDAT ?is_signed@?$numeric_limits@K@std@@2_NB
CONST	SEGMENT
?is_signed@?$numeric_limits@K@std@@2_NB DB 00H		; std::numeric_limits<unsigned long>::is_signed
CONST	ENDS
;	COMDAT ?out@?$_Iosb@H@std@@2W4_Openmode@12@B
CONST	SEGMENT
?out@?$_Iosb@H@std@@2W4_Openmode@12@B DD 02H		; std::_Iosb<int>::out
CONST	ENDS
;	COMDAT ?in@?$_Iosb@H@std@@2W4_Openmode@12@B
CONST	SEGMENT
?in@?$_Iosb@H@std@@2W4_Openmode@12@B DD 01H		; std::_Iosb<int>::in
CONST	ENDS
;	COMDAT ?_Hardfail@?$_Iosb@H@std@@2W4_Iostate@12@B
CONST	SEGMENT
?_Hardfail@?$_Iosb@H@std@@2W4_Iostate@12@B DD 010H	; std::_Iosb<int>::_Hardfail
CONST	ENDS
;	COMDAT ?badbit@?$_Iosb@H@std@@2W4_Iostate@12@B
CONST	SEGMENT
?badbit@?$_Iosb@H@std@@2W4_Iostate@12@B DD 04H		; std::_Iosb<int>::badbit
CONST	ENDS
;	COMDAT ?failbit@?$_Iosb@H@std@@2W4_Iostate@12@B
CONST	SEGMENT
?failbit@?$_Iosb@H@std@@2W4_Iostate@12@B DD 02H		; std::_Iosb<int>::failbit
CONST	ENDS
;	COMDAT ?eofbit@?$_Iosb@H@std@@2W4_Iostate@12@B
CONST	SEGMENT
?eofbit@?$_Iosb@H@std@@2W4_Iostate@12@B DD 01H		; std::_Iosb<int>::eofbit
CONST	ENDS
;	COMDAT ?goodbit@?$_Iosb@H@std@@2W4_Iostate@12@B
CONST	SEGMENT
?goodbit@?$_Iosb@H@std@@2W4_Iostate@12@B DD 00H		; std::_Iosb<int>::goodbit
CONST	ENDS
;	COMDAT ?floatfield@?$_Iosb@H@std@@2W4_Fmtflags@12@B
CONST	SEGMENT
?floatfield@?$_Iosb@H@std@@2W4_Fmtflags@12@B DD 03000H	; std::_Iosb<int>::floatfield
CONST	ENDS
;	COMDAT ?basefield@?$_Iosb@H@std@@2W4_Fmtflags@12@B
CONST	SEGMENT
?basefield@?$_Iosb@H@std@@2W4_Fmtflags@12@B DD 0e00H	; std::_Iosb<int>::basefield
CONST	ENDS
PUBLIC	?strchr@@YAPADPADH@Z				; strchr
PUBLIC	?strstr@@YAPADPADPBD@Z				; strstr
PUBLIC	__tcschr
PUBLIC	__tcscmp
PUBLIC	?_tcschr@@YAPADPADI@Z				; _tcschr
PUBLIC	??8VU_SESSION_ID@@QBEHABV0@@Z			; VU_SESSION_ID::operator==
PUBLIC	??9VU_ID@@QBE_NABV0@@Z				; VU_ID::operator!=
PUBLIC	?Id@VuEntity@@QBE?AVVU_ID@@XZ			; VuEntity::Id
PUBLIC	?EntityType@VuEntity@@QBEPAUVuEntityType@@XZ	; VuEntity::EntityType
PUBLIC	??2@YAPAXIPAX@Z					; operator new
PUBLIC	??3@YAXPAX0@Z					; operator delete
PUBLIC	?length@?$char_traits@D@std@@SAIPBD@Z		; std::char_traits<char>::length
PUBLIC	?copy@?$char_traits@D@std@@SAPADPADPBDI@Z	; std::char_traits<char>::copy
PUBLIC	?move@?$char_traits@D@std@@SAPADPADPBDI@Z	; std::char_traits<char>::move
PUBLIC	?assign@?$char_traits@D@std@@SAXAADABD@Z	; std::char_traits<char>::assign
PUBLIC	??0?$allocator@D@std@@QAE@XZ			; std::allocator<char>::allocator<char>
PUBLIC	?deallocate@?$allocator@D@std@@QAEXPADI@Z	; std::allocator<char>::deallocate
PUBLIC	?allocate@?$allocator@D@std@@QAEPADI@Z		; std::allocator<char>::allocate
PUBLIC	?max_size@?$allocator@D@std@@QBEIXZ		; std::allocator<char>::max_size
PUBLIC	?max_size@?$allocator_traits@V?$allocator@D@std@@@std@@SAIABV?$allocator@D@2@@Z ; std::allocator_traits<std::allocator<char> >::max_size
PUBLIC	??0?$_Wrap_alloc@V?$allocator@D@std@@@std@@QAE@XZ ; std::_Wrap_alloc<std::allocator<char> >::_Wrap_alloc<std::allocator<char> >
PUBLIC	?allocate@?$_Wrap_alloc@V?$allocator@D@std@@@std@@QAEPADI@Z ; std::_Wrap_alloc<std::allocator<char> >::allocate
PUBLIC	?deallocate@?$_Wrap_alloc@V?$allocator@D@std@@@std@@QAEXPADI@Z ; std::_Wrap_alloc<std::allocator<char> >::deallocate
PUBLIC	?max_size@?$_Wrap_alloc@V?$allocator@D@std@@@std@@QBEIXZ ; std::_Wrap_alloc<std::allocator<char> >::max_size
PUBLIC	??0?$_String_val@U?$_Simple_types@D@std@@@std@@QAE@XZ ; std::_String_val<std::_Simple_types<char> >::_String_val<std::_Simple_types<char> >
PUBLIC	?_Myptr@?$_String_val@U?$_Simple_types@D@std@@@std@@QAEPADXZ ; std::_String_val<std::_Simple_types<char> >::_Myptr
PUBLIC	?_Myptr@?$_String_val@U?$_Simple_types@D@std@@@std@@QBEPBDXZ ; std::_String_val<std::_Simple_types<char> >::_Myptr
PUBLIC	??0?$_String_alloc@$0A@U?$_String_base_types@DV?$allocator@D@std@@@std@@@std@@QAE@ABV?$allocator@D@1@@Z ; std::_String_alloc<0,std::_String_base_types<char,std::allocator<char> > >::_String_alloc<0,std::_String_base_types<char,std::allocator<char> > >
PUBLIC	?_Getal@?$_String_alloc@$0A@U?$_String_base_types@DV?$allocator@D@std@@@std@@@std@@QBE?AU?$_Wrap_alloc@V?$allocator@D@std@@@2@XZ ; std::_String_alloc<0,std::_String_base_types<char,std::allocator<char> > >::_Getal
PUBLIC	??0?$basic_string@DU?$char_traits@D@std@@V?$allocator@D@2@@std@@QAE@PBD@Z ; std::basic_string<char,std::char_traits<char>,std::allocator<char> >::basic_string<char,std::char_traits<char>,std::allocator<char> >
PUBLIC	?assign@?$basic_string@DU?$char_traits@D@std@@V?$allocator@D@2@@std@@QAEAAV12@ABV12@II@Z ; std::basic_string<char,std::char_traits<char>,std::allocator<char> >::assign
PUBLIC	?assign@?$basic_string@DU?$char_traits@D@std@@V?$allocator@D@2@@std@@QAEAAV12@PBDI@Z ; std::basic_string<char,std::char_traits<char>,std::allocator<char> >::assign
PUBLIC	?assign@?$basic_string@DU?$char_traits@D@std@@V?$allocator@D@2@@std@@QAEAAV12@PBD@Z ; std::basic_string<char,std::char_traits<char>,std::allocator<char> >::assign
PUBLIC	?erase@?$basic_string@DU?$char_traits@D@std@@V?$allocator@D@2@@std@@QAEAAV12@I@Z ; std::basic_string<char,std::char_traits<char>,std::allocator<char> >::erase
PUBLIC	?erase@?$basic_string@DU?$char_traits@D@std@@V?$allocator@D@2@@std@@QAEAAV12@II@Z ; std::basic_string<char,std::char_traits<char>,std::allocator<char> >::erase
PUBLIC	?size@?$basic_string@DU?$char_traits@D@std@@V?$allocator@D@2@@std@@QBEIXZ ; std::basic_string<char,std::char_traits<char>,std::allocator<char> >::size
PUBLIC	?max_size@?$basic_string@DU?$char_traits@D@std@@V?$allocator@D@2@@std@@QBEIXZ ; std::basic_string<char,std::char_traits<char>,std::allocator<char> >::max_size
PUBLIC	?_Copy@?$basic_string@DU?$char_traits@D@std@@V?$allocator@D@2@@std@@QAEXII@Z ; std::basic_string<char,std::char_traits<char>,std::allocator<char> >::_Copy
PUBLIC	?_Eos@?$basic_string@DU?$char_traits@D@std@@V?$allocator@D@2@@std@@QAEXI@Z ; std::basic_string<char,std::char_traits<char>,std::allocator<char> >::_Eos
PUBLIC	?_Grow@?$basic_string@DU?$char_traits@D@std@@V?$allocator@D@2@@std@@QAE_NI_N@Z ; std::basic_string<char,std::char_traits<char>,std::allocator<char> >::_Grow
PUBLIC	?_Inside@?$basic_string@DU?$char_traits@D@std@@V?$allocator@D@2@@std@@QAE_NPBD@Z ; std::basic_string<char,std::char_traits<char>,std::allocator<char> >::_Inside
PUBLIC	?_Tidy@?$basic_string@DU?$char_traits@D@std@@V?$allocator@D@2@@std@@QAEX_NI@Z ; std::basic_string<char,std::char_traits<char>,std::allocator<char> >::_Tidy
PUBLIC	?_Xlen@?$basic_string@DU?$char_traits@D@std@@V?$allocator@D@2@@std@@QBEXXZ ; std::basic_string<char,std::char_traits<char>,std::allocator<char> >::_Xlen
PUBLIC	?_Xran@?$basic_string@DU?$char_traits@D@std@@V?$allocator@D@2@@std@@QBEXXZ ; std::basic_string<char,std::char_traits<char>,std::allocator<char> >::_Xran
PUBLIC	??B?$VuBin@VVuSessionEntity@@@@QBE_NXZ		; VuBin<VuSessionEntity>::operator bool
PUBLIC	?get@?$VuBin@VVuSessionEntity@@@@QBEPAVVuSessionEntity@@XZ ; VuBin<VuSessionEntity>::get
PUBLIC	?GetWPTarget@WayPointClass@@QAEPAVCampBaseClass@@XZ ; WayPointClass::GetWPTarget
PUBLIC	?GetWPAction@WayPointClass@@QAEHXZ		; WayPointClass::GetWPAction
PUBLIC	?GetWPRouteAction@WayPointClass@@QAEHXZ		; WayPointClass::GetWPRouteAction
PUBLIC	?GetWPFlags@WayPointClass@@QAEKXZ		; WayPointClass::GetWPFlags
PUBLIC	?GetNextWP@WayPointClass@@QAEPAV1@XZ		; WayPointClass::GetNextWP
PUBLIC	?GetWPSpeed@WayPointClass@@QAEMXZ		; WayPointClass::GetWPSpeed
PUBLIC	?GetWPAltitude@WayPointClass@@QAEHXZ		; WayPointClass::GetWPAltitude
PUBLIC	?GetWPArrivalTime@WayPointClass@@QAEKXZ		; WayPointClass::GetWPArrivalTime
PUBLIC	?GetWPLocation@WayPointClass@@QBEXPAF0@Z	; WayPointClass::GetWPLocation
PUBLIC	?GetOwner@CampBaseClass@@QAEEXZ			; CampBaseClass::GetOwner
PUBLIC	?GetDomain@CampBaseClass@@QBEEXZ		; CampBaseClass::GetDomain
PUBLIC	?GetClass@CampBaseClass@@QBEEXZ			; CampBaseClass::GetClass
PUBLIC	?GetType@CampBaseClass@@QBEEXZ			; CampBaseClass::GetType
PUBLIC	?GetSType@CampBaseClass@@QBEEXZ			; CampBaseClass::GetSType
PUBLIC	?CampEnterCriticalSection@@YAXXZ		; CampEnterCriticalSection
PUBLIC	?CampLeaveCriticalSection@@YAXXZ		; CampLeaveCriticalSection
PUBLIC	?Broken@UnitClass@@QBEHXZ			; UnitClass::Broken
PUBLIC	?GetFirstUnitWP@UnitClass@@QAEPAVWayPointClass@@XZ ; UnitClass::GetFirstUnitWP
PUBLIC	?GetGroundAction@TeamClass@@QAEPAUTeamGndActionType@@XZ ; TeamClass::GetGroundAction
PUBLIC	?GetOffensiveAirAction@TeamClass@@QAEPAUTeamAirActionType@@XZ ; TeamClass::GetOffensiveAirAction
PUBLIC	?GetObjectiveStatus@ObjectiveClass@@QAEEXZ	; ObjectiveClass::GetObjectiveStatus
PUBLIC	?GetUnitPackage@FlightClass@@QAEPAVPackageClass@@XZ ; FlightClass::GetUnitPackage
PUBLIC	?BuildCampBrief@@YAXPAVC_Window@@@Z		; BuildCampBrief
PUBLIC	?BuildCampDebrief@@YAXPAVC_Window@@@Z		; BuildCampDebrief
PUBLIC	?BuildCampBrief@@YAXPAD@Z			; BuildCampBrief
PUBLIC	?BuildCampDebrief@@YAXPAD@Z			; BuildCampDebrief
PUBLIC	?GetBriefingData@@YAHHHPADH@Z			; GetBriefingData
PUBLIC	?AddStringToBuffer@@YAXPAD0@Z			; AddStringToBuffer
PUBLIC	?AddIndexedStringToBuffer@@YAXHPAD@Z		; AddIndexedStringToBuffer
PUBLIC	?AddNumberToBuffer@@YAXHPAD@Z			; AddNumberToBuffer
PUBLIC	?AddNumberToBuffer@@YAXMHPAD@Z			; AddNumberToBuffer
PUBLIC	?AddTimeToBuffer@@YAXKPADH@Z			; AddTimeToBuffer
PUBLIC	?AddLocationToBuffer@@YAXDFFPAD@Z		; AddLocationToBuffer
PUBLIC	?ConstructOrderedSentence@@YAXFPAD0ZZ		; ConstructOrderedSentence
PUBLIC	??0id@locale@std@@QAE@I@Z			; std::locale::id::id
PUBLIC	?generic_category@std@@YAABVerror_category@1@XZ	; std::generic_category
PUBLIC	?system_category@std@@YAABVerror_category@1@XZ	; std::system_category
PUBLIC	??0error_category@std@@QAE@XZ			; std::error_category::error_category
PUBLIC	??1error_category@std@@UAE@XZ			; std::error_category::~error_category
PUBLIC	?default_error_condition@error_category@std@@UBE?AVerror_condition@2@H@Z ; std::error_category::default_error_condition
PUBLIC	?equivalent@error_category@std@@UBE_NHABVerror_condition@2@@Z ; std::error_category::equivalent
PUBLIC	?equivalent@error_category@std@@UBE_NABVerror_code@2@H@Z ; std::error_category::equivalent
PUBLIC	??8error_category@std@@QBE_NABV01@@Z		; std::error_category::operator==
PUBLIC	??_Gerror_category@std@@UAEPAXI@Z		; std::error_category::`scalar deleting destructor'
PUBLIC	?value@error_code@std@@QBEHXZ			; std::error_code::value
PUBLIC	?category@error_code@std@@QBEABVerror_category@2@XZ ; std::error_code::category
PUBLIC	??0error_condition@std@@QAE@HABVerror_category@1@@Z ; std::error_condition::error_condition
PUBLIC	?value@error_condition@std@@QBEHXZ		; std::error_condition::value
PUBLIC	?category@error_condition@std@@QBEABVerror_category@2@XZ ; std::error_condition::category
PUBLIC	??8error_condition@std@@QBE_NABV01@@Z		; std::error_condition::operator==
PUBLIC	??0_Generic_error_category@std@@QAE@XZ		; std::_Generic_error_category::_Generic_error_category
PUBLIC	?name@_Generic_error_category@std@@UBEPBDXZ	; std::_Generic_error_category::name
PUBLIC	?message@_Generic_error_category@std@@UBE?AV?$basic_string@DU?$char_traits@D@std@@V?$allocator@D@2@@2@H@Z ; std::_Generic_error_category::message
PUBLIC	??1_Generic_error_category@std@@UAE@XZ		; std::_Generic_error_category::~_Generic_error_category
PUBLIC	??_G_Generic_error_category@std@@UAEPAXI@Z	; std::_Generic_error_category::`scalar deleting destructor'
PUBLIC	??0_Iostream_error_category@std@@QAE@XZ		; std::_Iostream_error_category::_Iostream_error_category
PUBLIC	?name@_Iostream_error_category@std@@UBEPBDXZ	; std::_Iostream_error_category::name
PUBLIC	?message@_Iostream_error_category@std@@UBE?AV?$basic_string@DU?$char_traits@D@std@@V?$allocator@D@2@@2@H@Z ; std::_Iostream_error_category::message
PUBLIC	??1_Iostream_error_category@std@@UAE@XZ		; std::_Iostream_error_category::~_Iostream_error_category
PUBLIC	??_G_Iostream_error_category@std@@UAEPAXI@Z	; std::_Iostream_error_category::`scalar deleting destructor'
PUBLIC	??0_System_error_category@std@@QAE@XZ		; std::_System_error_category::_System_error_category
PUBLIC	?name@_System_error_category@std@@UBEPBDXZ	; std::_System_error_category::name
PUBLIC	?message@_System_error_category@std@@UBE?AV?$basic_string@DU?$char_traits@D@std@@V?$allocator@D@2@@2@H@Z ; std::_System_error_category::message
PUBLIC	?default_error_condition@_System_error_category@std@@UBE?AVerror_condition@2@H@Z ; std::_System_error_category::default_error_condition
PUBLIC	??1_System_error_category@std@@UAE@XZ		; std::_System_error_category::~_System_error_category
PUBLIC	??_G_System_error_category@std@@UAEPAXI@Z	; std::_System_error_category::`scalar deleting destructor'
PUBLIC	?SetClient@C_Base@@QAEXF@Z			; C_Base::SetClient
PUBLIC	?SetParent@C_Base@@QAEXPAVC_Window@@@Z		; C_Base::SetParent
PUBLIC	?SetNormColor@C_ListBox@@QAEXK@Z		; C_ListBox::SetNormColor
PUBLIC	?SetSelColor@C_ListBox@@QAEXK@Z			; C_ListBox::SetSelColor
PUBLIC	?SetDisColor@C_ListBox@@QAEXK@Z			; C_ListBox::SetDisColor
PUBLIC	?SetBarColor@C_ListBox@@QAEXK@Z			; C_ListBox::SetBarColor
PUBLIC	?SetBgColor@C_ListBox@@QAEXK@Z			; C_ListBox::SetBgColor
PUBLIC	?GetGame@FalconSessionEntity@@QAEPAVFalconGameEntity@@XZ ; FalconSessionEntity::GetGame
PUBLIC	?BuildBriefString@@YAHPAVC_Window@@PAD@Z	; BuildBriefString
PUBLIC	?BuildDebriefString@@YAHPAVC_Window@@PAD@Z	; BuildDebriefString
PUBLIC	?ReadScriptedBriefFile@@YAHPAD0PAVC_Window@@0PAVMissionEvaluationClass@@PAVFlightDataClass@@@Z ; ReadScriptedBriefFile
PUBLIC	?AddHorizontalLineToBrief@@YAXPAVC_Window@@@Z	; AddHorizontalLineToBrief
PUBLIC	?AddStringToBrief@@YAXPADPAVC_Window@@0@Z	; AddStringToBrief
PUBLIC	?AddTabToBrief@@YAXHPADPAVC_Window@@0@Z		; AddTabToBrief
PUBLIC	?AddTabToDebrief@@YAXHPADPAVC_Window@@0@Z	; AddTabToDebrief
PUBLIC	?AddEOLToBrief@@YAXPADPAVC_Window@@0@Z		; AddEOLToBrief
PUBLIC	?GetCurrentBriefXY@@YAXPAH0PADPAVC_Window@@1@Z	; GetCurrentBriefXY
PUBLIC	?AddRightJustifiedStringToBrief@@YAXPADH0PAVC_Window@@0@Z ; AddRightJustifiedStringToBrief
PUBLIC	?AddFontTextToBrief@@YAXPADHPAVC_Window@@0@Z	; AddFontTextToBrief
PUBLIC	?GetEntityName@@YAXPAVCampBaseClass@@PADDD@Z	; GetEntityName
PUBLIC	?GetEntityDestination@@YAXPAVCampBaseClass@@PAD@Z ; GetEntityDestination
PUBLIC	?ReadComments@@YAXPAU_iobuf@@@Z			; ReadComments
PUBLIC	?ReadToken@@YAPADPAU_iobuf@@QADH@Z		; ReadToken
PUBLIC	?ReadMemToken@@YAPADPAPADQADH@Z			; ReadMemToken
PUBLIC	?GetGender@@YAHPAVCampBaseClass@@H@Z		; GetGender
PUBLIC	?ConstructOrderedGenderedSentence@@YAXFPADPAVEventDataClass@@ZZ ; ConstructOrderedGenderedSentence
PUBLIC	??$construct@PADAAPAD@?$_Wrap_alloc@V?$allocator@D@std@@@std@@QAEXPAPADAAPAD@Z ; std::_Wrap_alloc<std::allocator<char> >::construct<char *,char * &>
PUBLIC	??$destroy@PAD@?$_Wrap_alloc@V?$allocator@D@std@@@std@@QAEXPAPAD@Z ; std::_Wrap_alloc<std::allocator<char> >::destroy<char *>
PUBLIC	??$addressof@D@std@@YAPADAAD@Z			; std::addressof<char>
PUBLIC	??$_Allocate@D@std@@YAPADIPAD@Z			; std::_Allocate<char>
PUBLIC	??$forward@AAPAD@std@@YAAAPADAAPAD@Z		; std::forward<char * &>
PUBLIC	??$construct@PADAAPAD@?$allocator_traits@V?$allocator@D@std@@@std@@SAXAAV?$allocator@D@1@PAPADAAPAD@Z ; std::allocator_traits<std::allocator<char> >::construct<char *,char * &>
PUBLIC	??$destroy@PAD@?$allocator_traits@V?$allocator@D@std@@@std@@SAXAAV?$allocator@D@1@PAPAD@Z ; std::allocator_traits<std::allocator<char> >::destroy<char *>
PUBLIC	??$construct@PADAAPAD@?$allocator@D@std@@QAEXPAPADAAPAD@Z ; std::allocator<char>::construct<char *,char * &>
PUBLIC	??$destroy@PAD@?$allocator@D@std@@QAEXPAPAD@Z	; std::allocator<char>::destroy<char *>
PUBLIC	??_C@_00CNPNBAHC@?$AA@				; `string'
PUBLIC	??_7error_category@std@@6B@			; std::error_category::`vftable'
PUBLIC	??_7_Generic_error_category@std@@6B@		; std::_Generic_error_category::`vftable'
PUBLIC	??_C@_07DCLBNMLN@generic?$AA@			; `string'
PUBLIC	??_C@_0O@BFJCFAAK@unknown?5error?$AA@		; `string'
PUBLIC	??_7_Iostream_error_category@std@@6B@		; std::_Iostream_error_category::`vftable'
PUBLIC	??_C@_08LLGCOLLL@iostream?$AA@			; `string'
PUBLIC	??_C@_0BG@PADBLCHM@iostream?5stream?5error?$AA@	; `string'
PUBLIC	??_7_System_error_category@std@@6B@		; std::_System_error_category::`vftable'
PUBLIC	??_C@_06FHFOAHML@system?$AA@			; `string'
PUBLIC	?_Generic_object@?$_Error_objects@H@std@@2V_Generic_error_category@2@A ; std::_Error_objects<int>::_Generic_object
PUBLIC	?_Iostream_object@?$_Error_objects@H@std@@2V_Iostream_error_category@2@A ; std::_Error_objects<int>::_Iostream_object
PUBLIC	?_System_object@?$_Error_objects@H@std@@2V_System_error_category@2@A ; std::_Error_objects<int>::_System_object
PUBLIC	??_C@_02DPKJAMEF@?$CFd?$AA@			; `string'
PUBLIC	?id@?$num_put@DV?$back_insert_iterator@V?$basic_string@DU?$char_traits@D@std@@V?$allocator@D@2@@std@@@std@@@std@@2V0locale@2@A ; std::num_put<char,std::back_insert_iterator<std::basic_string<char,std::char_traits<char>,std::allocator<char> > > >::id
PUBLIC	?id@?$num_put@_WV?$back_insert_iterator@V?$basic_string@_WU?$char_traits@_W@std@@V?$allocator@_W@2@@std@@@std@@@std@@2V0locale@2@A ; std::num_put<wchar_t,std::back_insert_iterator<std::basic_string<wchar_t,std::char_traits<wchar_t>,std::allocator<wchar_t> > > >::id
PUBLIC	??_C@_08KPOPBMGJ@Header?4b?$AA@			; `string'
PUBLIC	??_C@_09IOMGACNF@Situate?4b?$AA@		; `string'
PUBLIC	??_C@_08CALBNDK@divert?4b?$AA@			; `string'
PUBLIC	??_C@_08LHPBPOIK@?$DM?1table?$DO?$AA@		; `string'
PUBLIC	??_C@_0L@GAFPAEGE@PackHead?4b?$AA@		; `string'
PUBLIC	??_C@_09FDKFKIOG@Element?4b?$AA@		; `string'
PUBLIC	??_C@_09KPKCJAOF@Threats?4b?$AA@		; `string'
PUBLIC	??_C@_0L@EEOKCHAH@SteerPtH?4b?$AA@		; `string'
PUBLIC	??_C@_09FNCAMDID@SteerPt?4b?$AA@		; `string'
PUBLIC	??_C@_0L@MGLGPKDC@Loadouth?4b?$AA@		; `string'
PUBLIC	??_C@_09DBEEHBDF@Loadout?4b?$AA@		; `string'
PUBLIC	??_C@_09EEHEOFJM@Weather?4b?$AA@		; `string'
PUBLIC	??_C@_09EPKPDGMH@Support?4b?$AA@		; `string'
PUBLIC	??_C@_05NNMLNNPM@RoE?4b?$AA@			; `string'
PUBLIC	??_C@_0L@IMPHLOC@Emerganc?4b?$AA@		; `string'
PUBLIC	??_C@_05OGPGAODE@End?4b?$AA@			; `string'
PUBLIC	??_C@_09CINKEAKH@header?4db?$AA@		; `string'
PUBLIC	??_C@_0L@FOPFMLMO@pheader?4db?$AA@		; `string'
PUBLIC	??_C@_0L@JMOABIKF@element?4db?$AA@		; `string'
PUBLIC	??_C@_0L@CALOFOKN@FlEvent?4db?$AA@		; `string'
PUBLIC	??_C@_09ELGDCBBJ@flight?4db?$AA@		; `string'
PUBLIC	??_C@_0L@BDADIECF@FOrdnce?4db?$AA@		; `string'
PUBLIC	??_C@_0M@JBIFENN@FOrdWeap?4db?$AA@		; `string'
PUBLIC	??_C@_0L@NACCMEFJ@FOrdEvt?4db?$AA@		; `string'
PUBLIC	??_C@_01EEMJAFIK@?6?$AA@			; `string'
PUBLIC	??_C@_08MHOPPMNB@pilot?4db?$AA@			; `string'
PUBLIC	??_C@_0M@DGFFLKPN@PElement?4db?$AA@		; `string'
PUBLIC	??_C@_0L@BCEJELHM@results?4db?$AA@		; `string'
PUBLIC	??_C@_0L@NHLKLBAI@related?4db?$AA@		; `string'
PUBLIC	??_C@_08IFIJADLA@task?4gbd?$AA@			; `string'
PUBLIC	??_C@_0M@NPHIDLME@mission?4gbd?$AA@		; `string'
PUBLIC	??_C@_04MPGECEBJ@Dist?$AA@			; `string'
PUBLIC	??_C@_03PHINJBAN@Alt?$AA@			; `string'
PUBLIC	??_C@_03FCGDEGFM@Spd?$AA@			; `string'
PUBLIC	??_C@_03OFHJMOKN@Hdg?$AA@			; `string'
PUBLIC	??_C@_04OKOFBOPB@Time?$AA@			; `string'
PUBLIC	??_C@_03JHMDMDFK@Wpt?$AA@			; `string'
PUBLIC	??_C@_0BO@DDPJPIDF@?$CF3s?5?$CF8s?5?$CF3s?5?$CF3s?5?$CF4s?5?$CF4s?5?$CFs?5?$CFs?$AA@ ; `string'
PUBLIC	??_C@_0BO@PBDJADDD@?$CF3d?5?$CF8s?5?$CF3s?5?$CF3s?5?$CF5s?5?$CF4s?5?$CFs?5?$CFs?$AA@ ; `string'
PUBLIC	??_C@_04LHEKBCCP@?$DMtd?$DO?$AA@		; `string'
PUBLIC	??_C@_01GPOEFGEJ@?7?$AA@			; `string'
PUBLIC	??_C@_01CLKCMJKC@?5?$AA@			; `string'
PUBLIC	??_C@_04GHNNFJCK@?$CF?40f?$AA@			; `string'
PUBLIC	??_C@_04GGBPDDBN@?$CF?41f?$AA@			; `string'
PUBLIC	??_C@_04GEFJINEE@?$CF?42f?$AA@			; `string'
PUBLIC	??_C@_03IPLKIPCO@?$CDDD?$AA@			; `string'
PUBLIC	??_C@_05NCAJEJLJ@?$DMunk?$DO?$AA@		; `string'
PUBLIC	??_C@_01KDCPPGHE@r?$AA@				; `string'
PUBLIC	??_C@_03LFFEHOPP@?$CDIF?$AA@			; `string'
PUBLIC	??_C@_05GNCADCNB@?$CDELSE?$AA@			; `string'
PUBLIC	??_C@_06OJIOOPNB@?$CDENDIF?$AA@			; `string'
PUBLIC	??_C@_0CK@EGAAPGFI@?$DMBrief?5reading?5Error?5?9?5unmatched@ ; `string'
PUBLIC	??_C@_0L@MFEHMJLH@?$CDENDSCRIPT?$AA@		; `string'
PUBLIC	??_C@_0DH@OMEKCJOK@?$DMBrief?5Reading?5Error?5?9?5stack?5ove@ ; `string'
PUBLIC	??_C@_0BA@HEBDCAAB@?$CDIF_HAVE_TARGET?$AA@	; `string'
PUBLIC	??_C@_0BI@PHKLIJPH@?$CDIF_HAVE_PACKAGE_TARGET?$AA@ ; `string'
PUBLIC	??_C@_0BJ@KKGPNOPM@?$CDIF_HAVE_TARGET_BUILDING?$AA@ ; `string'
PUBLIC	??_C@_0BF@MGMEMEHP@?$CDIF_HAVE_PATROL_TIME?$AA@	; `string'
PUBLIC	??_C@_0BH@JPBGPHCM@?$CDIF_PACKAGE_MISSION_EQ?$AA@ ; `string'
PUBLIC	??_C@_0P@GMDIIIKA@?$CDIF_MISSION_EQ?$AA@	; `string'
PUBLIC	??_C@_0BD@PJEKJAJL@?$CDIF_OLD_MISSION_EQ?$AA@	; `string'
PUBLIC	??_C@_0P@EKIPLFBG@?$CDIF_TARGET_OBJ?$AA@	; `string'
PUBLIC	??_C@_0BA@EIIJCMHG@?$CDIF_TARGET_UNIT?$AA@	; `string'
PUBLIC	??_C@_0BG@LFFPHFBL@?$CDIF_FLIGHT_CONTEXT_EQ?$AA@ ; `string'
PUBLIC	??_C@_0P@JHDJKIKK@?$CDIF_CONTEXT_EQ?$AA@	; `string'
PUBLIC	??_C@_0BD@NGKNAHIA@?$CDIF_PRIMARY_FLIGHT?$AA@	; `string'
PUBLIC	??_C@_0BC@BICNCHDF@?$CDIF_PLAYER_FLIGHT?$AA@	; `string'
PUBLIC	??_C@_0BB@FMCCFLJB@?$CDIF_PLAYER_PLANE?$AA@	; `string'
PUBLIC	??_C@_0BB@DMLOGKM@?$CDIF_SOLO_PACKAGE?$AA@	; `string'
PUBLIC	??_C@_0BH@CFGHOHFO@?$CDIF_ENEMY_AIR_RESPONSE?$AA@ ; `string'
PUBLIC	??_C@_0BJ@GEJCFLGA@?$CDIF_ENEMY_CA_ACTIVITY_GT?$AA@ ; `string'
PUBLIC	??_C@_0BB@IGNPKMMF@?$CDIF_HAVE_THREATS?$AA@	; `string'
PUBLIC	??_C@_0BE@CCGIDIBK@?$CDIF_ALTERNATE_STRIP?$AA@	; `string'
PUBLIC	??_C@_0P@IIBJFFLN@?$CDIF_HAVE_PILOT?$AA@	; `string'
PUBLIC	??_C@_0BA@IJFOIFPD@?$CDIF_HAVE_WEAPON?$AA@	; `string'
PUBLIC	??_C@_0BB@ECBMLOJO@?$CDIF_FIRST_WEAPON?$AA@	; `string'
PUBLIC	??_C@_0BC@PNEBFBKP@?$CDIF_WEAPONS_FIRED?$AA@	; `string'
PUBLIC	??_C@_0BE@NCBOGAAH@?$CDIF_FIRST_PILOT_SET?$AA@	; `string'
PUBLIC	??_C@_0BB@LEFKKKEP@?$CDIF_WEAPON_FIRED?$AA@	; `string'
PUBLIC	??_C@_0BF@ILDEBBON@?$CDIF_WEAPON_MISSED_EQ?$AA@	; `string'
PUBLIC	??_C@_0BC@KEGODJIP@?$CDIF_WEAPON_HIT_EQ?$AA@	; `string'
PUBLIC	??_C@_0BG@BLDENJFD@?$CDIF_THREAT_IS_MISSILE?$AA@ ; `string'
PUBLIC	??_C@_0BK@IALOGJJJ@?$CDIF_TARGET_VEH_IS_MISSILE?$AA@ ; `string'
PUBLIC	??_C@_09HOJEAAHG@?$CDIF_AWACS?$AA@		; `string'
PUBLIC	??_C@_09JMILBEPH@?$CDIF_JSTAR?$AA@		; `string'
PUBLIC	??_C@_0L@IOLDENMM@?$CDIF_TANKER?$AA@		; `string'
PUBLIC	??_C@_07MEDEGODM@?$CDIF_ECM?$AA@		; `string'
PUBLIC	??_C@_0BH@KFLLPBHK@?$CDIF_PACKAGE_SUCCESS_EQ?$AA@ ; `string'
PUBLIC	??_C@_0BH@CJDAIELH@?$CDIF_NOT_SUPPORT_HEADER?$AA@ ; `string'
PUBLIC	??_C@_0BB@DELDEFBL@?$CDIF_PLAYER_PILOT?$AA@	; `string'
PUBLIC	??_C@_0BD@FDANNMCJ@?$CDIF_RELATED_EVENTS?$AA@	; `string'
PUBLIC	??_C@_0N@GLNDBAKF@?$CDIF_DIVERTED?$AA@		; `string'
PUBLIC	??_C@_0BG@IMPLIODD@?$CDIF_OFFENSIVE_PLANNED?$AA@ ; `string'
PUBLIC	??_C@_0BG@CCLGKGNJ@?$CDIF_DEFENSIVE_PLANNED?$AA@ ; `string'
PUBLIC	??_C@_0BC@OBPCDIPD@?$CDIF_CLEAR_WEATHER?$AA@	; `string'
PUBLIC	??_C@_0BI@NEHCGBKJ@?$CDIF_TACTICAL_ENGAGEMENT?$AA@ ; `string'
PUBLIC	??_C@_04DEHMDPMN@?$CDEOL?$AA@			; `string'
PUBLIC	??_C@_03HBHCBENH@?$DMp?$DO?$AA@			; `string'
PUBLIC	??_C@_06PCLFABJD@?$CDSPACE?$AA@			; `string'
PUBLIC	??_C@_06ODLOODK@?$CGnbsp?$DL?$AA@		; `string'
PUBLIC	??_C@_06LFHPLCJ@?$CDCOLON?$AA@			; `string'
PUBLIC	??_C@_01JLIPDDHJ@?3?$AA@			; `string'
PUBLIC	??_C@_04EIMEAPLD@?$CDTAB?$AA@			; `string'
PUBLIC	??_C@_06ONCAKGHE@?$CDCOLOR?$AA@			; `string'
PUBLIC	??_C@_05HPBCPENM@?$CDFONT?$AA@			; `string'
PUBLIC	??_C@_08PDBNACPI@?$CDENDFONT?$AA@		; `string'
PUBLIC	??_C@_04PIPAPGIN@?$CDINC?$AA@			; `string'
PUBLIC	??_C@_05GDIDNJLL@PILOT?$AA@			; `string'
PUBLIC	??_C@_06GANGLKEK@WEAPON?$AA@			; `string'
PUBLIC	??_C@_04DFNBDBBL@DATA?$AA@			; `string'
PUBLIC	??_C@_0L@HBLJNPMB@FLIGHT_NUM?$AA@		; `string'
PUBLIC	??_C@_0M@LOGHDAHB@FLIGHT_NAME?$AA@		; `string'
PUBLIC	??_C@_0L@EHHCCPNN@PLANE_NAME?$AA@		; `string'
PUBLIC	??_C@_0N@EONIOOBP@MISSION_NAME?$AA@		; `string'
PUBLIC	??_C@_0BB@KLMDELEG@OLD_MISSION_NAME?$AA@	; `string'
PUBLIC	??_C@_0BE@JLKIMEFN@MISSION_DESCRIPTION?$AA@	; `string'
PUBLIC	??_C@_0BI@JCKFPPPN@OLD_MISSION_DESCRIPTION?$AA@	; `string'
PUBLIC	??_C@_0BM@JMBJCAAD@PACKAGE_MISSION_DESCRIPTION?$AA@ ; `string'
PUBLIC	??_C@_0BE@GIIEOPEC@PACKAGE_TARGET_NAME?$AA@	; `string'
PUBLIC	??_C@_0BA@BPIADFBG@OLD_TARGET_NAME?$AA@		; `string'
PUBLIC	??_C@_0M@NBJLGBNL@TARGET_NAME?$AA@		; `string'
PUBLIC	??_C@_0BE@HAAKOLEJ@TARGET_VEHICLE_NAME?$AA@	; `string'
PUBLIC	??_C@_0N@KPBELBIC@TARGET_OWNER?$AA@		; `string'
PUBLIC	??_C@_0BI@MMPDJKCG@PACKAGE_TARGET_BUILDING?$AA@	; `string'
PUBLIC	??_C@_0BA@JIPHAHDE@TARGET_BUILDING?$AA@		; `string'
PUBLIC	??_C@_0BF@CNELNPAK@REQUESTING_UNIT_NAME?$AA@	; `string'
PUBLIC	??_C@_0BF@KNPIPNJG@REQUESTING_UNIT_DEST?$AA@	; `string'
PUBLIC	??_C@_0BI@FJDKIODL@REQUESTING_UNIT_VEHICLE?$AA@	; `string'
PUBLIC	??_C@_0BB@FCHFNNAM@INTERCEPTOR_NAME?$AA@	; `string'
PUBLIC	??_C@_0L@GIEPPCOM@AWACS_NAME?$AA@		; `string'
PUBLIC	??_C@_0L@EAIANOCF@JSTAR_NAME?$AA@		; `string'
PUBLIC	??_C@_0M@GJONMGJD@TANKER_NAME?$AA@		; `string'
PUBLIC	??_C@_08MDMCLKCP@ECM_NAME?$AA@			; `string'
PUBLIC	??_C@_0M@EPDBPGIE@CONTEXT_STR?$AA@		; `string'
PUBLIC	??_C@_0L@OFHHCAD@RESULT_STR?$AA@		; `string'
PUBLIC	??_C@_0L@OGBKPMOJ@TE_SUCCESS?$AA@		; `string'
PUBLIC	??_C@_0N@EPPNAEFI@NUM_AIRCRAFT?$AA@		; `string'
PUBLIC	??_C@_0O@HMJMPBIP@AIRCRAFT_TYPE?$AA@		; `string'
PUBLIC	??_C@_0P@HAOODHME@TIME_ON_TARGET?$AA@		; `string'
PUBLIC	??_C@_0BG@IGCLGGLJ@TIME_ON_STATION_LABEL?$AA@	; `string'
PUBLIC	??_C@_0BG@HNKMNDFO@ACTUAL_TIME_ON_TARGET?$AA@	; `string'
PUBLIC	??_C@_0M@BDMBEEHA@PATROL_TIME?$AA@		; `string'
PUBLIC	??_C@_0BF@DNJJMPHP@ALTERNATE_STRIP_NAME?$AA@	; `string'
PUBLIC	??_C@_0BB@OMGDKJHI@GENERAL_LOCATION?$AA@	; `string'
PUBLIC	??_C@_0BC@DMENCOPB@SPECIFIC_LOCATION?$AA@	; `string'
PUBLIC	??_C@_0BB@OHEAIOPL@NEAREST_LOCATION?$AA@	; `string'
PUBLIC	??_C@_0N@KHJIANEJ@THE_LOCATION?$AA@		; `string'
PUBLIC	??_C@_06JNJLBPLI@TARGET?$AA@			; `string'
PUBLIC	??_C@_05MAOIJGBI@AWACS?$AA@			; `string'
PUBLIC	??_C@_05CCPHICJJ@JSTAR?$AA@			; `string'
PUBLIC	??_C@_06CEAHHNAF@TANKER?$AA@			; `string'
PUBLIC	??_C@_03EFHKIKDN@ECM?$AA@			; `string'
PUBLIC	??_C@_0M@HJCHKFEP@ALT_AIRBASE?$AA@		; `string'
PUBLIC	??_C@_06BHJECOCH@THREAT?$AA@			; `string'
PUBLIC	??_C@_0BA@CBDBMLNG@PACKAGE_SUCCESS?$AA@		; `string'
PUBLIC	??_C@_0P@MLGAPOFH@FLIGHT_SUCCESS?$AA@		; `string'
PUBLIC	??_C@_0N@NKGNADJL@PILOT_RATING?$AA@		; `string'
PUBLIC	??_C@_0L@FNBHJECK@PILOT_NAME?$AA@		; `string'
PUBLIC	??_C@_0N@BLKPJHHD@PILOT_STATUS?$AA@		; `string'
PUBLIC	??_C@_08OJBNPKBJ@AA_KILLS?$AA@			; `string'
PUBLIC	??_C@_08CPHCPDJO@AG_KILLS?$AA@			; `string'
PUBLIC	??_C@_0M@DKBNCJOI@AI_AA_KILLS?$AA@		; `string'
PUBLIC	??_C@_0M@PMHCCAGP@AI_AG_KILLS?$AA@		; `string'
PUBLIC	??_C@_0BA@FCCCFIKL@FRIENDLY_LOSSES?$AA@		; `string'
PUBLIC	??_C@_0BF@OEDNAPDC@LONG_MISSION_SUCCESS?$AA@	; `string'
PUBLIC	??_C@_0N@BMOBJAGI@PLANE_STATUS?$AA@		; `string'
PUBLIC	??_C@_0N@GPGBNCDH@SHOW_THREATS?$AA@		; `string'
PUBLIC	??_C@_08LBGOJGJE@threat?4b?$AA@			; `string'
PUBLIC	??_C@_0BE@KOEEKKNE@THREAT_VEHICLE_NAME?$AA@	; `string'
PUBLIC	??_C@_0M@MKJEOGME@WEAPON_LOAD?$AA@		; `string'
PUBLIC	??_C@_0M@EAIKAKLC@WEAPON_NAME?$AA@		; `string'
PUBLIC	??_C@_0N@GFGDFMMO@WEAPON_FIRED?$AA@		; `string'
PUBLIC	??_C@_0L@ODMPMGIJ@WEAPON_HIT?$AA@		; `string'
PUBLIC	??_C@_0O@KDHLBJNE@WEAPON_MISSED?$AA@		; `string'
PUBLIC	??_C@_0BB@GHONPEOJ@WEAPON_HIT_RATIO?$AA@	; `string'
PUBLIC	??_C@_0L@JDMDCMBE@SHOW_EVENT?$AA@		; `string'
PUBLIC	??_C@_0M@JJCIBNAA@SHOW_RESULT?$AA@		; `string'
PUBLIC	??_C@_0N@DBCANENI@WIND_HEADING?$AA@		; `string'
PUBLIC	??_C@_0L@DFMPPPLF@WIND_SPEED?$AA@		; `string'
PUBLIC	??_C@_0M@MHBLBKPD@TEMPERATURE?$AA@		; `string'
PUBLIC	??_C@_0L@JEABLADM@CLOUD_TYPE?$AA@		; `string'
PUBLIC	??_C@_06BIBOHBLI@Sunny?5?$AA@			; `string'
PUBLIC	??_C@_05LHLBMJMF@Fair?5?$AA@			; `string'
PUBLIC	??_C@_05PIGFMJPO@Poor?5?$AA@			; `string'
PUBLIC	??_C@_0L@DFEKLGMK@Inclement?5?$AA@		; `string'
PUBLIC	??_C@_0O@EGKEPNOD@CLOUD_TYPETXT?$AA@		; `string'
PUBLIC	??_C@_0L@DMNMBFBN@Situation?3?$AA@		; `string'
PUBLIC	??_C@_0O@CONFGFEI@CLOUD_BASETXT?$AA@		; `string'
PUBLIC	??_C@_0M@GMCADLIP@Cloud?5Base?3?$AA@		; `string'
PUBLIC	??_C@_0L@OMEKBDDH@CLOUD_BASE?$AA@		; `string'
PUBLIC	??_C@_09NEIJCFEG@CON_LAYER?$AA@			; `string'
PUBLIC	??_C@_0N@MPKJONPA@WAYPOINT_NUM?$AA@		; `string'
PUBLIC	??_C@_0BA@EMAJDOKP@WAYPOINT_ACTION?$AA@		; `string'
PUBLIC	??_C@_0O@ODIHLF@WAYPOINT_TIME?$AA@		; `string'
PUBLIC	??_C@_0BC@JKELBHA@WAYPOINT_DISTANCE?$AA@	; `string'
PUBLIC	??_C@_0BB@LGCEINB@WAYPOINT_HEADING?$AA@		; `string'
PUBLIC	??_C@_0P@JKFPMDCB@WAYPOINT_SPEED?$AA@		; `string'
PUBLIC	??_C@_0N@BPDNMMEB@WAYPOINT_ALT?$AA@		; `string'
PUBLIC	??_C@_0P@COAGPCLP@WAYPOINT_CLIMB?$AA@		; `string'
PUBLIC	??_C@_0O@GKDHIGHD@WAYPOINT_DESC?$AA@		; `string'
PUBLIC	??_C@_0BA@CDILAEIO@ENEMY_SQUADRONS?$AA@		; `string'
PUBLIC	??_C@_07CFIKMPDI@Squad?4b?$AA@			; `string'
PUBLIC	??_C@_09KAILABEB@NoSquad?4b?$AA@		; `string'
PUBLIC	??_C@_0M@MBMEMPCO@ENTITY_NAME?$AA@		; `string'
PUBLIC	??_C@_0BE@OLKAIAIB@ENTITY_ELEMENT_NAME?$AA@	; `string'
PUBLIC	??_C@_0BD@BEPFECOL@ENTITY_OPERATIONAL?$AA@	; `string'
PUBLIC	??_C@_0O@CKAKCIEF@BEST_FEATURES?$AA@		; `string'
PUBLIC	??_C@_09CMFODKLL@Feature?4b?$AA@		; `string'
PUBLIC	??_C@_0BC@GMAGFIAP@POTENTIAL_TARGETS?$AA@	; `string'
PUBLIC	??_C@_0L@MABPEDIO@Objectiv?4b?$AA@		; `string'
PUBLIC	??_C@_0O@NGEDJDPM@RELATED_EVENT?$AA@		; `string'
PUBLIC	??_C@_0BH@GGCDMBFC@SHOW_PLANNED_OFFENSIVE?$AA@	; `string'
PUBLIC	??_C@_0BH@KHEOAGGA@SHOW_PLANNED_DEFENSIVE?$AA@	; `string'
PUBLIC	??_C@_01MNNFJEPP@?$DM?$AA@			; `string'
PUBLIC	?id@?$numpunct@D@std@@2V0locale@2@A		; std::numpunct<char>::id
PUBLIC	?id@?$numpunct@_W@std@@2V0locale@2@A		; std::numpunct<wchar_t>::id
PUBLIC	??_C@_0BI@CFPLBAOH@invalid?5string?5position?$AA@ ; `string'
PUBLIC	??_C@_0BA@JFNIOLAK@string?5too?5long?$AA@	; `string'
PUBLIC	??_R4error_category@std@@6B@			; std::error_category::`RTTI Complete Object Locator'
PUBLIC	??_R0?AVerror_category@std@@@8			; std::error_category `RTTI Type Descriptor'
PUBLIC	??_R3error_category@std@@8			; std::error_category::`RTTI Class Hierarchy Descriptor'
PUBLIC	??_R2error_category@std@@8			; std::error_category::`RTTI Base Class Array'
PUBLIC	??_R1A@?0A@EA@error_category@std@@8		; std::error_category::`RTTI Base Class Descriptor at (0,-1,0,64)'
PUBLIC	??_R4_Generic_error_category@std@@6B@		; std::_Generic_error_category::`RTTI Complete Object Locator'
PUBLIC	??_R0?AV_Generic_error_category@std@@@8		; std::_Generic_error_category `RTTI Type Descriptor'
PUBLIC	??_R3_Generic_error_category@std@@8		; std::_Generic_error_category::`RTTI Class Hierarchy Descriptor'
PUBLIC	??_R2_Generic_error_category@std@@8		; std::_Generic_error_category::`RTTI Base Class Array'
PUBLIC	??_R1A@?0A@EA@_Generic_error_category@std@@8	; std::_Generic_error_category::`RTTI Base Class Descriptor at (0,-1,0,64)'
PUBLIC	??_R4_Iostream_error_category@std@@6B@		; std::_Iostream_error_category::`RTTI Complete Object Locator'
PUBLIC	??_R0?AV_Iostream_error_category@std@@@8	; std::_Iostream_error_category `RTTI Type Descriptor'
PUBLIC	??_R3_Iostream_error_category@std@@8		; std::_Iostream_error_category::`RTTI Class Hierarchy Descriptor'
PUBLIC	??_R2_Iostream_error_category@std@@8		; std::_Iostream_error_category::`RTTI Base Class Array'
PUBLIC	??_R1A@?0A@EA@_Iostream_error_category@std@@8	; std::_Iostream_error_category::`RTTI Base Class Descriptor at (0,-1,0,64)'
PUBLIC	??_R4_System_error_category@std@@6B@		; std::_System_error_category::`RTTI Complete Object Locator'
PUBLIC	??_R0?AV_System_error_category@std@@@8		; std::_System_error_category `RTTI Type Descriptor'
PUBLIC	??_R3_System_error_category@std@@8		; std::_System_error_category::`RTTI Class Hierarchy Descriptor'
PUBLIC	??_R2_System_error_category@std@@8		; std::_System_error_category::`RTTI Base Class Array'
PUBLIC	??_R1A@?0A@EA@_System_error_category@std@@8	; std::_System_error_category::`RTTI Base Class Descriptor at (0,-1,0,64)'
PUBLIC	__real@00000000
PUBLIC	__real@392c987a
PUBLIC	__real@3c23d70a
PUBLIC	__real@3f000000
PUBLIC	__real@3f0a35e2
PUBLIC	__real@3f17ac60
PUBLIC	__real@3f693e32
PUBLIC	__real@3f800000
PUBLIC	__real@40000000
PUBLIC	__real@40200000
PUBLIC	__real@40a00000
PUBLIC	__real@42652ee1
PUBLIC	__real@43340000
PUBLIC	__real@43b40000
PUBLIC	__real@447a0000
PUBLIC	__real@454cffae
PUBLIC	__real@461c3c00
PUBLIC	__xmm@41f00000000000000000000000000000
PUBLIC	__xmm@80000000800000008000000080000000
EXTRN	__purecall:PROC
EXTRN	??2@YAPAXI@Z:PROC				; operator new
EXTRN	??3@YAXPAX@Z:PROC				; operator delete
EXTRN	_atexit:PROC
EXTRN	___report_rangecheckfailure:PROC
EXTRN	_feof:PROC
EXTRN	_fgetc:PROC
EXTRN	_fgets:PROC
EXTRN	_ungetc:PROC
EXTRN	_sprintf:PROC
EXTRN	_atoi:PROC
EXTRN	_memcpy:PROC
EXTRN	_strcpy:PROC
EXTRN	_strcat:PROC
EXTRN	_strcmp:PROC
EXTRN	_strlen:PROC
EXTRN	_memmove:PROC
EXTRN	_strchr:PROC
EXTRN	_strncmp:PROC
EXTRN	_strncpy:PROC
EXTRN	_strstr:PROC
EXTRN	_tolower:PROC
EXTRN	__mbschr:PROC
EXTRN	__mbscmp:PROC
EXTRN	__ismbclower:PROC
EXTRN	_MonoPrint:PROC
EXTRN	?F4IsBadReadPtr@@YA_NPBXI@Z:PROC		; F4IsBadReadPtr
EXTRN	?_Xbad_alloc@std@@YAXXZ:PROC			; std::_Xbad_alloc
EXTRN	?_Xlength_error@std@@YAXPBD@Z:PROC		; std::_Xlength_error
EXTRN	?_Xout_of_range@std@@YAXPBD@Z:PROC		; std::_Xout_of_range
EXTRN	?Find@VuDatabase@@QBEPAVVuEntity@@VVU_ID@@@Z:PROC ; VuDatabase::Find
EXTRN	?Game@VuSessionEntity@@QAEPAVVuGameEntity@@XZ:PROC ; VuSessionEntity::Game
EXTRN	??0VuListIterator@@QAE@PAVVuLinkedList@@@Z:PROC	; VuListIterator::VuListIterator
EXTRN	??1VuListIterator@@UAE@XZ:PROC			; VuListIterator::~VuListIterator
EXTRN	?GetFirst@VuListIterator@@QAEPAVVuEntity@@XZ:PROC ; VuListIterator::GetFirst
EXTRN	?GetNext@VuListIterator@@QAEPAVVuEntity@@XZ:PROC ; VuListIterator::GetNext
EXTRN	?GetLocation@FalconEntity@@QBEXPAF0@Z:PROC	; FalconEntity::GetLocation
EXTRN	?OpenCampFile@@YAPAU_iobuf@@PAD00@Z:PROC	; OpenCampFile
EXTRN	?GetVehicleClassData@@YAPAUVehicleClassDataType@@H@Z:PROC ; GetVehicleClassData
EXTRN	?GetBestVehicleWeapon@@YAHHPAEW4MoveType@@HPAH@Z:PROC ; GetBestVehicleWeapon
EXTRN	_F4EnterCriticalSection:PROC
EXTRN	_F4LeaveCriticalSection:PROC
EXTRN	?GetGameType@FalconGameEntity@@QAE?AW4FalconGameType@@XZ:PROC ; FalconGameEntity::GetGameType
EXTRN	?CloseCampFile@@YAXPAU_iobuf@@@Z:PROC		; CloseCampFile
EXTRN	??0EventDataClass@@QAE@XZ:PROC			; EventDataClass::EventDataClass
EXTRN	?GetUnitClassData@UnitClass@@QAEPAUUnitClassDataType@@XZ:PROC ; UnitClass::GetUnitClassData
EXTRN	?GetUnitDestination@UnitClass@@QAEXPAF0@Z:PROC	; UnitClass::GetUnitDestination
EXTRN	?GetVehicleID@UnitClass@@QAEFH@Z:PROC		; UnitClass::GetVehicleID
EXTRN	?GetTotalVehicles@UnitClass@@QAEHXZ:PROC	; UnitClass::GetTotalVehicles
EXTRN	?GetFullstrengthVehicles@UnitClass@@QAEHXZ:PROC	; UnitClass::GetFullstrengthVehicles
EXTRN	?GetTTRelations@@YAHEE@Z:PROC			; GetTTRelations
EXTRN	?GetTimeString@@YAPADKQADH@Z:PROC		; GetTimeString
EXTRN	?ReadIndexedString@@YAXHPADH@Z:PROC		; ReadIndexedString
EXTRN	?FindObjective@@YAPAVObjectiveClass@@VVU_ID@@@Z:PROC ; FindObjective
EXTRN	?GetFeatureID@ObjectiveClass@@QAEHH@Z:PROC	; ObjectiveClass::GetFeatureID
EXTRN	?GetFirstObjective@@YAPAVObjectiveClass@@PAVVuListIterator@@@Z:PROC ; GetFirstObjective
EXTRN	?GetNextObjective@@YAPAVObjectiveClass@@PAVVuListIterator@@@Z:PROC ; GetNextObjective
EXTRN	?Distance@@YAMFFFF@Z:PROC			; Distance
EXTRN	?AngleTo@@YAMFFFF@Z:PROC			; AngleTo
EXTRN	?DirectionTo@@YAEFFFF@Z:PROC			; DirectionTo
EXTRN	?FindUnit@@YAPAVUnitClass@@VVU_ID@@@Z:PROC	; FindUnit
EXTRN	?FindEntity@@YAPAVCampBaseClass@@VVU_ID@@@Z:PROC ; FindEntity
EXTRN	?GetCallsign@@YAXHHPAD@Z:PROC			; GetCallsign
EXTRN	?GetFeatureClassData@@YAPAUFeatureClassDataType@@H@Z:PROC ; GetFeatureClassData
EXTRN	?FindPilotDataFromAC@MissionEvaluationClass@@QAEPAVPilotDataClass@@PAVFlightDataClass@@H@Z:PROC ; MissionEvaluationClass::FindPilotDataFromAC
EXTRN	??_Eerror_category@std@@UAEPAXI@Z:PROC		; std::error_category::`vector deleting destructor'
EXTRN	?_Syserror_map@std@@YAPBDH@Z:PROC		; std::_Syserror_map
EXTRN	?_Winerror_map@std@@YAPBDH@Z:PROC		; std::_Winerror_map
EXTRN	??_E_Generic_error_category@std@@UAEPAXI@Z:PROC	; std::_Generic_error_category::`vector deleting destructor'
EXTRN	??_E_Iostream_error_category@std@@UAEPAXI@Z:PROC ; std::_Iostream_error_category::`vector deleting destructor'
EXTRN	??_E_System_error_category@std@@UAEPAXI@Z:PROC	; std::_System_error_category::`vector deleting destructor'
EXTRN	?GetHeight@C_Font@@QAEHJ@Z:PROC			; C_Font::GetHeight
EXTRN	?StrWidth@C_Font@@QAEHJPAD@Z:PROC		; C_Font::StrWidth
EXTRN	?UI_Enter@@YAPAUF4CSECTIONHANDLE@@PAVC_Window@@@Z:PROC ; UI_Enter
EXTRN	?UI_Leave@@YAXPAUF4CSECTIONHANDLE@@@Z:PROC	; UI_Leave
EXTRN	?SetUserNumber@C_Base@@QAEXJJ@Z:PROC		; C_Base::SetUserNumber
EXTRN	??0C_ListBox@@QAE@XZ:PROC			; C_ListBox::C_ListBox
EXTRN	?Setup@C_ListBox@@QAEXJFPAVC_Handler@@@Z:PROC	; C_ListBox::Setup
EXTRN	?AddItem@C_ListBox@@QAEPAV1@JFPAD@Z:PROC	; C_ListBox::AddItem
EXTRN	?SetDropDown@C_ListBox@@QAEXJ@Z:PROC		; C_ListBox::SetDropDown
EXTRN	?AddScrollBar@C_ListBox@@QAEXJJJJJJ@Z:PROC	; C_ListBox::AddScrollBar
EXTRN	??0C_Box@@QAE@XZ:PROC				; C_Box::C_Box
EXTRN	?Setup@C_Box@@QAEXJF@Z:PROC			; C_Box::Setup
EXTRN	?SetColor@C_Box@@QAEXK@Z:PROC			; C_Box::SetColor
EXTRN	?ScanClientAreas@C_Window@@QAEXXZ:PROC		; C_Window::ScanClientAreas
EXTRN	?AddControl@C_Window@@QAEXPAVC_Base@@@Z:PROC	; C_Window::AddControl
EXTRN	?RefreshWindow@C_Window@@QAEXXZ:PROC		; C_Window::RefreshWindow
EXTRN	?DeleteGroupList@@YAXJ@Z:PROC			; DeleteGroupList
EXTRN	?GetCloudCover@WeatherClass@@QAEHFF@Z:PROC	; WeatherClass::GetCloudCover
EXTRN	?AddWordWrapTextToWindow@@YAHPAVC_Window@@PAF1FFKPADJ@Z:PROC ; AddWordWrapTextToWindow
EXTRN	?AddHorizontalLineToWindow@@YAXPAVC_Window@@PAF1FFKJ@Z:PROC ; AddHorizontalLineToWindow
EXTRN	?get_air_speed@@YAMMH@Z:PROC			; get_air_speed
EXTRN	?determine_tactical_rating@@YAHXZ:PROC		; determine_tactical_rating
EXTRN	?ConvertTeamToStringIndex@@YAHHHHH@Z:PROC	; ConvertTeamToStringIndex
EXTRN	@__security_check_cookie@4:PROC
EXTRN	__CxxThrowException@8:PROC
EXTRN	___CxxFrameHandler3:PROC
EXTRN	__chkstk:PROC
EXTRN	_memset:PROC
EXTRN	?vuDatabase@@3PAVVuDatabase@@A:DWORD		; vuDatabase
EXTRN	?vuLocalSessionEntity@@3V?$VuBin@VVuSessionEntity@@@@A:DWORD ; vuLocalSessionEntity
EXTRN	?FalconNullId@@3VVU_ID@@A:QWORD			; FalconNullId
EXTRN	?WeaponDataTable@@3PAUWeaponClassDataType@@A:DWORD ; WeaponDataTable
EXTRN	?Falcon4ClassTable@@3PAUFalcon4EntityClassType@@A:DWORD ; Falcon4ClassTable
EXTRN	??_7type_info@@6B@:QWORD			; type_info::`vftable'
EXTRN	?campCritical@@3PAUF4CSECTIONHANDLE@@A:DWORD	; campCritical
EXTRN	?DefaultDamageMods@@3PAEA:BYTE			; DefaultDamageMods
EXTRN	?TheCampaign@@3VCampaignClass@@A:BYTE		; TheCampaign
EXTRN	?TeamInfo@@3PAPAVTeamClass@@A:BYTE		; TeamInfo
EXTRN	?WPActStr@@3PAY0BE@DA:BYTE			; WPActStr
EXTRN	?AllAirList@@3PAVVuLinkedList@@A:DWORD		; AllAirList
EXTRN	?AllObjList@@3PAVVuLinkedList@@A:DWORD		; AllObjList
EXTRN	?POList@@3PAVFalconPrivateOrderedList@@A:DWORD	; POList
EXTRN	?SOList@@3PAVFalconPrivateList@@A:DWORD		; SOList
EXTRN	?gFontList@@3PAVC_Font@@A:DWORD			; gFontList
EXTRN	?gMainHandler@@3PAVC_Handler@@A:DWORD		; gMainHandler
EXTRN	?realWeather@@3PAVRealWeather@@A:DWORD		; realWeather
EXTRN	?gLangIDNum@@3HA:DWORD				; gLangIDNum
EXTRN	?g_bBriefHTML@@3_NA:BYTE			; g_bBriefHTML
EXTRN	___security_cookie:DWORD
EXTRN	__fltused:DWORD
_BSS	SEGMENT
_piecewise_construct DB 01H DUP (?)
	ALIGN	4

_allocator_arg DB 01H DUP (?)
_BSS	ENDS
;	COMDAT ?_Generic_object@?$_Error_objects@H@std@@2V_Generic_error_category@2@A
_BSS	SEGMENT
?_Generic_object@?$_Error_objects@H@std@@2V_Generic_error_category@2@A DD 01H DUP (?) ; std::_Error_objects<int>::_Generic_object
_BSS	ENDS
;	COMDAT ?_Iostream_object@?$_Error_objects@H@std@@2V_Iostream_error_category@2@A
_BSS	SEGMENT
?_Iostream_object@?$_Error_objects@H@std@@2V_Iostream_error_category@2@A DD 01H DUP (?) ; std::_Error_objects<int>::_Iostream_object
_BSS	ENDS
;	COMDAT ?_System_object@?$_Error_objects@H@std@@2V_System_error_category@2@A
_BSS	SEGMENT
?_System_object@?$_Error_objects@H@std@@2V_System_error_category@2@A DD 01H DUP (?) ; std::_Error_objects<int>::_System_object
_BSS	ENDS
;	COMDAT ?id@?$num_put@DV?$back_insert_iterator@V?$basic_string@DU?$char_traits@D@std@@V?$allocator@D@2@@std@@@std@@@std@@2V0locale@2@A
_BSS	SEGMENT
?id@?$num_put@DV?$back_insert_iterator@V?$basic_string@DU?$char_traits@D@std@@V?$allocator@D@2@@std@@@std@@@std@@2V0locale@2@A DD 01H DUP (?) ; std::num_put<char,std::back_insert_iterator<std::basic_string<char,std::char_traits<char>,std::allocator<char> > > >::id
_BSS	ENDS
;	COMDAT ?id@?$num_put@_WV?$back_insert_iterator@V?$basic_string@_WU?$char_traits@_W@std@@V?$allocator@_W@2@@std@@@std@@@std@@2V0locale@2@A
_BSS	SEGMENT
?id@?$num_put@_WV?$back_insert_iterator@V?$basic_string@_WU?$char_traits@_W@std@@V?$allocator@_W@2@@std@@@std@@@std@@2V0locale@2@A DD 01H DUP (?) ; std::num_put<wchar_t,std::back_insert_iterator<std::basic_string<wchar_t,std::char_traits<wchar_t>,std::allocator<wchar_t> > > >::id
_BSS	ENDS
_BSS	SEGMENT
	ALIGN	4

_CBX	DW	01H DUP (?)
	ALIGN	4

_CBY	DW	01H DUP (?)
	ALIGN	4

_CLineStart DD	01H DUP (?)
_CBColor DD	01H DUP (?)
_CWayPoint DD	01H DUP (?)
_LWayPoint DD	01H DUP (?)
_CEntity DD	01H DUP (?)
_ESquad	DD	01H DUP (?)
_CTextPtr DD	01H DUP (?)
_CCurrentLine DD 01H DUP (?)
_CPilotData DD	01H DUP (?)
_BSS	ENDS
;	COMDAT ?id@?$numpunct@D@std@@2V0locale@2@A
_BSS	SEGMENT
?id@?$numpunct@D@std@@2V0locale@2@A DD 01H DUP (?)	; std::numpunct<char>::id
_BSS	ENDS
;	COMDAT ?id@?$numpunct@_W@std@@2V0locale@2@A
_BSS	SEGMENT
?id@?$numpunct@_W@std@@2V0locale@2@A DD 01H DUP (?)	; std::numpunct<wchar_t>::id
_BSS	ENDS
CRT$XCU	SEGMENT
_piecewise_construct$initializer$ DD FLAT:??__Epiecewise_construct@std@@YAXXZ
CRT$XCU	ENDS
;	COMDAT __xmm@80000000800000008000000080000000
CONST	SEGMENT
__xmm@80000000800000008000000080000000 DB 00H, 00H, 00H, 080H, 00H, 00H, 00H
	DB	080H, 00H, 00H, 00H, 080H, 00H, 00H, 00H, 080H
CONST	ENDS
;	COMDAT __xmm@41f00000000000000000000000000000
CONST	SEGMENT
__xmm@41f00000000000000000000000000000 DB 00H, 00H, 00H, 00H, 00H, 00H, 00H
	DB	00H, 00H, 00H, 00H, 00H, 00H, 00H, 0f0H, 'A'
CONST	ENDS
;	COMDAT __real@461c3c00
CONST	SEGMENT
__real@461c3c00 DD 0461c3c00r			; 9999
CONST	ENDS
;	COMDAT __real@454cffae
CONST	SEGMENT
__real@454cffae DD 0454cffaer			; 3279.98
CONST	ENDS
;	COMDAT __real@447a0000
CONST	SEGMENT
__real@447a0000 DD 0447a0000r			; 1000
CONST	ENDS
;	COMDAT __real@43b40000
CONST	SEGMENT
__real@43b40000 DD 043b40000r			; 360
CONST	ENDS
;	COMDAT __real@43340000
CONST	SEGMENT
__real@43340000 DD 043340000r			; 180
CONST	ENDS
;	COMDAT __real@42652ee1
CONST	SEGMENT
__real@42652ee1 DD 042652ee1r			; 57.2958
CONST	ENDS
;	COMDAT __real@40a00000
CONST	SEGMENT
__real@40a00000 DD 040a00000r			; 5
CONST	ENDS
;	COMDAT __real@40200000
CONST	SEGMENT
__real@40200000 DD 040200000r			; 2.5
CONST	ENDS
;	COMDAT __real@40000000
CONST	SEGMENT
__real@40000000 DD 040000000r			; 2
CONST	ENDS
;	COMDAT __real@3f800000
CONST	SEGMENT
__real@3f800000 DD 03f800000r			; 1
CONST	ENDS
;	COMDAT __real@3f693e32
CONST	SEGMENT
__real@3f693e32 DD 03f693e32r			; 0.911105
CONST	ENDS
;	COMDAT __real@3f17ac60
CONST	SEGMENT
__real@3f17ac60 DD 03f17ac60r			; 0.592474
CONST	ENDS
;	COMDAT __real@3f0a35e2
CONST	SEGMENT
__real@3f0a35e2 DD 03f0a35e2r			; 0.539885
CONST	ENDS
;	COMDAT __real@3f000000
CONST	SEGMENT
__real@3f000000 DD 03f000000r			; 0.5
CONST	ENDS
;	COMDAT __real@3c23d70a
CONST	SEGMENT
__real@3c23d70a DD 03c23d70ar			; 0.01
CONST	ENDS
;	COMDAT __real@392c987a
CONST	SEGMENT
__real@392c987a DD 0392c987ar			; 0.0001646
CONST	ENDS
;	COMDAT __real@00000000
CONST	SEGMENT
__real@00000000 DD 000000000r			; 0
CONST	ENDS
;	COMDAT ??_R1A@?0A@EA@_System_error_category@std@@8
rdata$r	SEGMENT
??_R1A@?0A@EA@_System_error_category@std@@8 DD FLAT:??_R0?AV_System_error_category@std@@@8 ; std::_System_error_category::`RTTI Base Class Descriptor at (0,-1,0,64)'
	DD	02H
	DD	00H
	DD	0ffffffffH
	DD	00H
	DD	040H
	DD	FLAT:??_R3_System_error_category@std@@8
rdata$r	ENDS
;	COMDAT ??_R2_System_error_category@std@@8
rdata$r	SEGMENT
??_R2_System_error_category@std@@8 DD FLAT:??_R1A@?0A@EA@_System_error_category@std@@8 ; std::_System_error_category::`RTTI Base Class Array'
	DD	FLAT:??_R1A@?0A@EA@_Generic_error_category@std@@8
	DD	FLAT:??_R1A@?0A@EA@error_category@std@@8
rdata$r	ENDS
;	COMDAT ??_R3_System_error_category@std@@8
rdata$r	SEGMENT
??_R3_System_error_category@std@@8 DD 00H		; std::_System_error_category::`RTTI Class Hierarchy Descriptor'
	DD	00H
	DD	03H
	DD	FLAT:??_R2_System_error_category@std@@8
rdata$r	ENDS
;	COMDAT ??_R0?AV_System_error_category@std@@@8
_DATA	SEGMENT
??_R0?AV_System_error_category@std@@@8 DD FLAT:??_7type_info@@6B@ ; std::_System_error_category `RTTI Type Descriptor'
	DD	00H
	DB	'.?AV_System_error_category@std@@', 00H
_DATA	ENDS
;	COMDAT ??_R4_System_error_category@std@@6B@
rdata$r	SEGMENT
??_R4_System_error_category@std@@6B@ DD 00H		; std::_System_error_category::`RTTI Complete Object Locator'
	DD	00H
	DD	00H
	DD	FLAT:??_R0?AV_System_error_category@std@@@8
	DD	FLAT:??_R3_System_error_category@std@@8
rdata$r	ENDS
;	COMDAT ??_R1A@?0A@EA@_Iostream_error_category@std@@8
rdata$r	SEGMENT
??_R1A@?0A@EA@_Iostream_error_category@std@@8 DD FLAT:??_R0?AV_Iostream_error_category@std@@@8 ; std::_Iostream_error_category::`RTTI Base Class Descriptor at (0,-1,0,64)'
	DD	02H
	DD	00H
	DD	0ffffffffH
	DD	00H
	DD	040H
	DD	FLAT:??_R3_Iostream_error_category@std@@8
rdata$r	ENDS
;	COMDAT ??_R2_Iostream_error_category@std@@8
rdata$r	SEGMENT
??_R2_Iostream_error_category@std@@8 DD FLAT:??_R1A@?0A@EA@_Iostream_error_category@std@@8 ; std::_Iostream_error_category::`RTTI Base Class Array'
	DD	FLAT:??_R1A@?0A@EA@_Generic_error_category@std@@8
	DD	FLAT:??_R1A@?0A@EA@error_category@std@@8
rdata$r	ENDS
;	COMDAT ??_R3_Iostream_error_category@std@@8
rdata$r	SEGMENT
??_R3_Iostream_error_category@std@@8 DD 00H		; std::_Iostream_error_category::`RTTI Class Hierarchy Descriptor'
	DD	00H
	DD	03H
	DD	FLAT:??_R2_Iostream_error_category@std@@8
rdata$r	ENDS
;	COMDAT ??_R0?AV_Iostream_error_category@std@@@8
_DATA	SEGMENT
??_R0?AV_Iostream_error_category@std@@@8 DD FLAT:??_7type_info@@6B@ ; std::_Iostream_error_category `RTTI Type Descriptor'
	DD	00H
	DB	'.?AV_Iostream_error_category@std@@', 00H
_DATA	ENDS
;	COMDAT ??_R4_Iostream_error_category@std@@6B@
rdata$r	SEGMENT
??_R4_Iostream_error_category@std@@6B@ DD 00H		; std::_Iostream_error_category::`RTTI Complete Object Locator'
	DD	00H
	DD	00H
	DD	FLAT:??_R0?AV_Iostream_error_category@std@@@8
	DD	FLAT:??_R3_Iostream_error_category@std@@8
rdata$r	ENDS
;	COMDAT ??_R1A@?0A@EA@_Generic_error_category@std@@8
rdata$r	SEGMENT
??_R1A@?0A@EA@_Generic_error_category@std@@8 DD FLAT:??_R0?AV_Generic_error_category@std@@@8 ; std::_Generic_error_category::`RTTI Base Class Descriptor at (0,-1,0,64)'
	DD	01H
	DD	00H
	DD	0ffffffffH
	DD	00H
	DD	040H
	DD	FLAT:??_R3_Generic_error_category@std@@8
rdata$r	ENDS
;	COMDAT ??_R2_Generic_error_category@std@@8
rdata$r	SEGMENT
??_R2_Generic_error_category@std@@8 DD FLAT:??_R1A@?0A@EA@_Generic_error_category@std@@8 ; std::_Generic_error_category::`RTTI Base Class Array'
	DD	FLAT:??_R1A@?0A@EA@error_category@std@@8
rdata$r	ENDS
;	COMDAT ??_R3_Generic_error_category@std@@8
rdata$r	SEGMENT
??_R3_Generic_error_category@std@@8 DD 00H		; std::_Generic_error_category::`RTTI Class Hierarchy Descriptor'
	DD	00H
	DD	02H
	DD	FLAT:??_R2_Generic_error_category@std@@8
rdata$r	ENDS
;	COMDAT ??_R0?AV_Generic_error_category@std@@@8
_DATA	SEGMENT
??_R0?AV_Generic_error_category@std@@@8 DD FLAT:??_7type_info@@6B@ ; std::_Generic_error_category `RTTI Type Descriptor'
	DD	00H
	DB	'.?AV_Generic_error_category@std@@', 00H
_DATA	ENDS
;	COMDAT ??_R4_Generic_error_category@std@@6B@
rdata$r	SEGMENT
??_R4_Generic_error_category@std@@6B@ DD 00H		; std::_Generic_error_category::`RTTI Complete Object Locator'
	DD	00H
	DD	00H
	DD	FLAT:??_R0?AV_Generic_error_category@std@@@8
	DD	FLAT:??_R3_Generic_error_category@std@@8
rdata$r	ENDS
;	COMDAT ??_R1A@?0A@EA@error_category@std@@8
rdata$r	SEGMENT
??_R1A@?0A@EA@error_category@std@@8 DD FLAT:??_R0?AVerror_category@std@@@8 ; std::error_category::`RTTI Base Class Descriptor at (0,-1,0,64)'
	DD	00H
	DD	00H
	DD	0ffffffffH
	DD	00H
	DD	040H
	DD	FLAT:??_R3error_category@std@@8
rdata$r	ENDS
;	COMDAT ??_R2error_category@std@@8
rdata$r	SEGMENT
??_R2error_category@std@@8 DD FLAT:??_R1A@?0A@EA@error_category@std@@8 ; std::error_category::`RTTI Base Class Array'
rdata$r	ENDS
;	COMDAT ??_R3error_category@std@@8
rdata$r	SEGMENT
??_R3error_category@std@@8 DD 00H			; std::error_category::`RTTI Class Hierarchy Descriptor'
	DD	00H
	DD	01H
	DD	FLAT:??_R2error_category@std@@8
rdata$r	ENDS
;	COMDAT ??_R0?AVerror_category@std@@@8
_DATA	SEGMENT
??_R0?AVerror_category@std@@@8 DD FLAT:??_7type_info@@6B@ ; std::error_category `RTTI Type Descriptor'
	DD	00H
	DB	'.?AVerror_category@std@@', 00H
_DATA	ENDS
;	COMDAT ??_R4error_category@std@@6B@
rdata$r	SEGMENT
??_R4error_category@std@@6B@ DD 00H			; std::error_category::`RTTI Complete Object Locator'
	DD	00H
	DD	00H
	DD	FLAT:??_R0?AVerror_category@std@@@8
	DD	FLAT:??_R3error_category@std@@8
rdata$r	ENDS
;	COMDAT ??_C@_0BA@JFNIOLAK@string?5too?5long?$AA@
CONST	SEGMENT
??_C@_0BA@JFNIOLAK@string?5too?5long?$AA@ DB 'string too long', 00H ; `string'
CONST	ENDS
;	COMDAT ??_C@_0BI@CFPLBAOH@invalid?5string?5position?$AA@
CONST	SEGMENT
??_C@_0BI@CFPLBAOH@invalid?5string?5position?$AA@ DB 'invalid string posi'
	DB	'tion', 00H					; `string'
CONST	ENDS
;	COMDAT ??_C@_01MNNFJEPP@?$DM?$AA@
CONST	SEGMENT
??_C@_01MNNFJEPP@?$DM?$AA@ DB '<', 00H			; `string'
CONST	ENDS
;	COMDAT ??_C@_0BH@KHEOAGGA@SHOW_PLANNED_DEFENSIVE?$AA@
CONST	SEGMENT
??_C@_0BH@KHEOAGGA@SHOW_PLANNED_DEFENSIVE?$AA@ DB 'SHOW_PLANNED_DEFENSIVE'
	DB	00H						; `string'
CONST	ENDS
;	COMDAT ??_C@_0BH@GGCDMBFC@SHOW_PLANNED_OFFENSIVE?$AA@
CONST	SEGMENT
??_C@_0BH@GGCDMBFC@SHOW_PLANNED_OFFENSIVE?$AA@ DB 'SHOW_PLANNED_OFFENSIVE'
	DB	00H						; `string'
CONST	ENDS
;	COMDAT ??_C@_0O@NGEDJDPM@RELATED_EVENT?$AA@
CONST	SEGMENT
??_C@_0O@NGEDJDPM@RELATED_EVENT?$AA@ DB 'RELATED_EVENT', 00H ; `string'
CONST	ENDS
;	COMDAT ??_C@_0L@MABPEDIO@Objectiv?4b?$AA@
CONST	SEGMENT
??_C@_0L@MABPEDIO@Objectiv?4b?$AA@ DB 'Objectiv.b', 00H	; `string'
CONST	ENDS
;	COMDAT ??_C@_0BC@GMAGFIAP@POTENTIAL_TARGETS?$AA@
CONST	SEGMENT
??_C@_0BC@GMAGFIAP@POTENTIAL_TARGETS?$AA@ DB 'POTENTIAL_TARGETS', 00H ; `string'
CONST	ENDS
;	COMDAT ??_C@_09CMFODKLL@Feature?4b?$AA@
CONST	SEGMENT
??_C@_09CMFODKLL@Feature?4b?$AA@ DB 'Feature.b', 00H	; `string'
CONST	ENDS
;	COMDAT ??_C@_0O@CKAKCIEF@BEST_FEATURES?$AA@
CONST	SEGMENT
??_C@_0O@CKAKCIEF@BEST_FEATURES?$AA@ DB 'BEST_FEATURES', 00H ; `string'
CONST	ENDS
;	COMDAT ??_C@_0BD@BEPFECOL@ENTITY_OPERATIONAL?$AA@
CONST	SEGMENT
??_C@_0BD@BEPFECOL@ENTITY_OPERATIONAL?$AA@ DB 'ENTITY_OPERATIONAL', 00H ; `string'
CONST	ENDS
;	COMDAT ??_C@_0BE@OLKAIAIB@ENTITY_ELEMENT_NAME?$AA@
CONST	SEGMENT
??_C@_0BE@OLKAIAIB@ENTITY_ELEMENT_NAME?$AA@ DB 'ENTITY_ELEMENT_NAME', 00H ; `string'
CONST	ENDS
;	COMDAT ??_C@_0M@MBMEMPCO@ENTITY_NAME?$AA@
CONST	SEGMENT
??_C@_0M@MBMEMPCO@ENTITY_NAME?$AA@ DB 'ENTITY_NAME', 00H ; `string'
CONST	ENDS
;	COMDAT ??_C@_09KAILABEB@NoSquad?4b?$AA@
CONST	SEGMENT
??_C@_09KAILABEB@NoSquad?4b?$AA@ DB 'NoSquad.b', 00H	; `string'
CONST	ENDS
;	COMDAT ??_C@_07CFIKMPDI@Squad?4b?$AA@
CONST	SEGMENT
??_C@_07CFIKMPDI@Squad?4b?$AA@ DB 'Squad.b', 00H	; `string'
CONST	ENDS
;	COMDAT ??_C@_0BA@CDILAEIO@ENEMY_SQUADRONS?$AA@
CONST	SEGMENT
??_C@_0BA@CDILAEIO@ENEMY_SQUADRONS?$AA@ DB 'ENEMY_SQUADRONS', 00H ; `string'
CONST	ENDS
;	COMDAT ??_C@_0O@GKDHIGHD@WAYPOINT_DESC?$AA@
CONST	SEGMENT
??_C@_0O@GKDHIGHD@WAYPOINT_DESC?$AA@ DB 'WAYPOINT_DESC', 00H ; `string'
CONST	ENDS
;	COMDAT ??_C@_0P@COAGPCLP@WAYPOINT_CLIMB?$AA@
CONST	SEGMENT
??_C@_0P@COAGPCLP@WAYPOINT_CLIMB?$AA@ DB 'WAYPOINT_CLIMB', 00H ; `string'
CONST	ENDS
;	COMDAT ??_C@_0N@BPDNMMEB@WAYPOINT_ALT?$AA@
CONST	SEGMENT
??_C@_0N@BPDNMMEB@WAYPOINT_ALT?$AA@ DB 'WAYPOINT_ALT', 00H ; `string'
CONST	ENDS
;	COMDAT ??_C@_0P@JKFPMDCB@WAYPOINT_SPEED?$AA@
CONST	SEGMENT
??_C@_0P@JKFPMDCB@WAYPOINT_SPEED?$AA@ DB 'WAYPOINT_SPEED', 00H ; `string'
CONST	ENDS
;	COMDAT ??_C@_0BB@LGCEINB@WAYPOINT_HEADING?$AA@
CONST	SEGMENT
??_C@_0BB@LGCEINB@WAYPOINT_HEADING?$AA@ DB 'WAYPOINT_HEADING', 00H ; `string'
CONST	ENDS
;	COMDAT ??_C@_0BC@JKELBHA@WAYPOINT_DISTANCE?$AA@
CONST	SEGMENT
??_C@_0BC@JKELBHA@WAYPOINT_DISTANCE?$AA@ DB 'WAYPOINT_DISTANCE', 00H ; `string'
CONST	ENDS
;	COMDAT ??_C@_0O@ODIHLF@WAYPOINT_TIME?$AA@
CONST	SEGMENT
??_C@_0O@ODIHLF@WAYPOINT_TIME?$AA@ DB 'WAYPOINT_TIME', 00H ; `string'
CONST	ENDS
;	COMDAT ??_C@_0BA@EMAJDOKP@WAYPOINT_ACTION?$AA@
CONST	SEGMENT
??_C@_0BA@EMAJDOKP@WAYPOINT_ACTION?$AA@ DB 'WAYPOINT_ACTION', 00H ; `string'
CONST	ENDS
;	COMDAT ??_C@_0N@MPKJONPA@WAYPOINT_NUM?$AA@
CONST	SEGMENT
??_C@_0N@MPKJONPA@WAYPOINT_NUM?$AA@ DB 'WAYPOINT_NUM', 00H ; `string'
CONST	ENDS
;	COMDAT ??_C@_09NEIJCFEG@CON_LAYER?$AA@
CONST	SEGMENT
??_C@_09NEIJCFEG@CON_LAYER?$AA@ DB 'CON_LAYER', 00H	; `string'
CONST	ENDS
;	COMDAT ??_C@_0L@OMEKBDDH@CLOUD_BASE?$AA@
CONST	SEGMENT
??_C@_0L@OMEKBDDH@CLOUD_BASE?$AA@ DB 'CLOUD_BASE', 00H	; `string'
CONST	ENDS
;	COMDAT ??_C@_0M@GMCADLIP@Cloud?5Base?3?$AA@
CONST	SEGMENT
??_C@_0M@GMCADLIP@Cloud?5Base?3?$AA@ DB 'Cloud Base:', 00H ; `string'
CONST	ENDS
;	COMDAT ??_C@_0O@CONFGFEI@CLOUD_BASETXT?$AA@
CONST	SEGMENT
??_C@_0O@CONFGFEI@CLOUD_BASETXT?$AA@ DB 'CLOUD_BASETXT', 00H ; `string'
CONST	ENDS
;	COMDAT ??_C@_0L@DMNMBFBN@Situation?3?$AA@
CONST	SEGMENT
??_C@_0L@DMNMBFBN@Situation?3?$AA@ DB 'Situation:', 00H	; `string'
CONST	ENDS
;	COMDAT ??_C@_0O@EGKEPNOD@CLOUD_TYPETXT?$AA@
CONST	SEGMENT
??_C@_0O@EGKEPNOD@CLOUD_TYPETXT?$AA@ DB 'CLOUD_TYPETXT', 00H ; `string'
CONST	ENDS
;	COMDAT ??_C@_0L@DFEKLGMK@Inclement?5?$AA@
CONST	SEGMENT
??_C@_0L@DFEKLGMK@Inclement?5?$AA@ DB 'Inclement ', 00H	; `string'
CONST	ENDS
;	COMDAT ??_C@_05PIGFMJPO@Poor?5?$AA@
CONST	SEGMENT
??_C@_05PIGFMJPO@Poor?5?$AA@ DB 'Poor ', 00H		; `string'
CONST	ENDS
;	COMDAT ??_C@_05LHLBMJMF@Fair?5?$AA@
CONST	SEGMENT
??_C@_05LHLBMJMF@Fair?5?$AA@ DB 'Fair ', 00H		; `string'
CONST	ENDS
;	COMDAT ??_C@_06BIBOHBLI@Sunny?5?$AA@
CONST	SEGMENT
??_C@_06BIBOHBLI@Sunny?5?$AA@ DB 'Sunny ', 00H		; `string'
CONST	ENDS
;	COMDAT ??_C@_0L@JEABLADM@CLOUD_TYPE?$AA@
CONST	SEGMENT
??_C@_0L@JEABLADM@CLOUD_TYPE?$AA@ DB 'CLOUD_TYPE', 00H	; `string'
CONST	ENDS
;	COMDAT ??_C@_0M@MHBLBKPD@TEMPERATURE?$AA@
CONST	SEGMENT
??_C@_0M@MHBLBKPD@TEMPERATURE?$AA@ DB 'TEMPERATURE', 00H ; `string'
CONST	ENDS
;	COMDAT ??_C@_0L@DFMPPPLF@WIND_SPEED?$AA@
CONST	SEGMENT
??_C@_0L@DFMPPPLF@WIND_SPEED?$AA@ DB 'WIND_SPEED', 00H	; `string'
CONST	ENDS
;	COMDAT ??_C@_0N@DBCANENI@WIND_HEADING?$AA@
CONST	SEGMENT
??_C@_0N@DBCANENI@WIND_HEADING?$AA@ DB 'WIND_HEADING', 00H ; `string'
CONST	ENDS
;	COMDAT ??_C@_0M@JJCIBNAA@SHOW_RESULT?$AA@
CONST	SEGMENT
??_C@_0M@JJCIBNAA@SHOW_RESULT?$AA@ DB 'SHOW_RESULT', 00H ; `string'
CONST	ENDS
;	COMDAT ??_C@_0L@JDMDCMBE@SHOW_EVENT?$AA@
CONST	SEGMENT
??_C@_0L@JDMDCMBE@SHOW_EVENT?$AA@ DB 'SHOW_EVENT', 00H	; `string'
CONST	ENDS
;	COMDAT ??_C@_0BB@GHONPEOJ@WEAPON_HIT_RATIO?$AA@
CONST	SEGMENT
??_C@_0BB@GHONPEOJ@WEAPON_HIT_RATIO?$AA@ DB 'WEAPON_HIT_RATIO', 00H ; `string'
CONST	ENDS
;	COMDAT ??_C@_0O@KDHLBJNE@WEAPON_MISSED?$AA@
CONST	SEGMENT
??_C@_0O@KDHLBJNE@WEAPON_MISSED?$AA@ DB 'WEAPON_MISSED', 00H ; `string'
CONST	ENDS
;	COMDAT ??_C@_0L@ODMPMGIJ@WEAPON_HIT?$AA@
CONST	SEGMENT
??_C@_0L@ODMPMGIJ@WEAPON_HIT?$AA@ DB 'WEAPON_HIT', 00H	; `string'
CONST	ENDS
;	COMDAT ??_C@_0N@GFGDFMMO@WEAPON_FIRED?$AA@
CONST	SEGMENT
??_C@_0N@GFGDFMMO@WEAPON_FIRED?$AA@ DB 'WEAPON_FIRED', 00H ; `string'
CONST	ENDS
;	COMDAT ??_C@_0M@EAIKAKLC@WEAPON_NAME?$AA@
CONST	SEGMENT
??_C@_0M@EAIKAKLC@WEAPON_NAME?$AA@ DB 'WEAPON_NAME', 00H ; `string'
CONST	ENDS
;	COMDAT ??_C@_0M@MKJEOGME@WEAPON_LOAD?$AA@
CONST	SEGMENT
??_C@_0M@MKJEOGME@WEAPON_LOAD?$AA@ DB 'WEAPON_LOAD', 00H ; `string'
CONST	ENDS
;	COMDAT ??_C@_0BE@KOEEKKNE@THREAT_VEHICLE_NAME?$AA@
CONST	SEGMENT
??_C@_0BE@KOEEKKNE@THREAT_VEHICLE_NAME?$AA@ DB 'THREAT_VEHICLE_NAME', 00H ; `string'
CONST	ENDS
;	COMDAT ??_C@_08LBGOJGJE@threat?4b?$AA@
CONST	SEGMENT
??_C@_08LBGOJGJE@threat?4b?$AA@ DB 'threat.b', 00H	; `string'
CONST	ENDS
;	COMDAT ??_C@_0N@GPGBNCDH@SHOW_THREATS?$AA@
CONST	SEGMENT
??_C@_0N@GPGBNCDH@SHOW_THREATS?$AA@ DB 'SHOW_THREATS', 00H ; `string'
CONST	ENDS
;	COMDAT ??_C@_0N@BMOBJAGI@PLANE_STATUS?$AA@
CONST	SEGMENT
??_C@_0N@BMOBJAGI@PLANE_STATUS?$AA@ DB 'PLANE_STATUS', 00H ; `string'
CONST	ENDS
;	COMDAT ??_C@_0BF@OEDNAPDC@LONG_MISSION_SUCCESS?$AA@
CONST	SEGMENT
??_C@_0BF@OEDNAPDC@LONG_MISSION_SUCCESS?$AA@ DB 'LONG_MISSION_SUCCESS', 00H ; `string'
CONST	ENDS
;	COMDAT ??_C@_0BA@FCCCFIKL@FRIENDLY_LOSSES?$AA@
CONST	SEGMENT
??_C@_0BA@FCCCFIKL@FRIENDLY_LOSSES?$AA@ DB 'FRIENDLY_LOSSES', 00H ; `string'
CONST	ENDS
;	COMDAT ??_C@_0M@PMHCCAGP@AI_AG_KILLS?$AA@
CONST	SEGMENT
??_C@_0M@PMHCCAGP@AI_AG_KILLS?$AA@ DB 'AI_AG_KILLS', 00H ; `string'
CONST	ENDS
;	COMDAT ??_C@_0M@DKBNCJOI@AI_AA_KILLS?$AA@
CONST	SEGMENT
??_C@_0M@DKBNCJOI@AI_AA_KILLS?$AA@ DB 'AI_AA_KILLS', 00H ; `string'
CONST	ENDS
;	COMDAT ??_C@_08CPHCPDJO@AG_KILLS?$AA@
CONST	SEGMENT
??_C@_08CPHCPDJO@AG_KILLS?$AA@ DB 'AG_KILLS', 00H	; `string'
CONST	ENDS
;	COMDAT ??_C@_08OJBNPKBJ@AA_KILLS?$AA@
CONST	SEGMENT
??_C@_08OJBNPKBJ@AA_KILLS?$AA@ DB 'AA_KILLS', 00H	; `string'
CONST	ENDS
;	COMDAT ??_C@_0N@BLKPJHHD@PILOT_STATUS?$AA@
CONST	SEGMENT
??_C@_0N@BLKPJHHD@PILOT_STATUS?$AA@ DB 'PILOT_STATUS', 00H ; `string'
CONST	ENDS
;	COMDAT ??_C@_0L@FNBHJECK@PILOT_NAME?$AA@
CONST	SEGMENT
??_C@_0L@FNBHJECK@PILOT_NAME?$AA@ DB 'PILOT_NAME', 00H	; `string'
CONST	ENDS
;	COMDAT ??_C@_0N@NKGNADJL@PILOT_RATING?$AA@
CONST	SEGMENT
??_C@_0N@NKGNADJL@PILOT_RATING?$AA@ DB 'PILOT_RATING', 00H ; `string'
CONST	ENDS
;	COMDAT ??_C@_0P@MLGAPOFH@FLIGHT_SUCCESS?$AA@
CONST	SEGMENT
??_C@_0P@MLGAPOFH@FLIGHT_SUCCESS?$AA@ DB 'FLIGHT_SUCCESS', 00H ; `string'
CONST	ENDS
;	COMDAT ??_C@_0BA@CBDBMLNG@PACKAGE_SUCCESS?$AA@
CONST	SEGMENT
??_C@_0BA@CBDBMLNG@PACKAGE_SUCCESS?$AA@ DB 'PACKAGE_SUCCESS', 00H ; `string'
CONST	ENDS
;	COMDAT ??_C@_06BHJECOCH@THREAT?$AA@
CONST	SEGMENT
??_C@_06BHJECOCH@THREAT?$AA@ DB 'THREAT', 00H		; `string'
CONST	ENDS
;	COMDAT ??_C@_0M@HJCHKFEP@ALT_AIRBASE?$AA@
CONST	SEGMENT
??_C@_0M@HJCHKFEP@ALT_AIRBASE?$AA@ DB 'ALT_AIRBASE', 00H ; `string'
CONST	ENDS
;	COMDAT ??_C@_03EFHKIKDN@ECM?$AA@
CONST	SEGMENT
??_C@_03EFHKIKDN@ECM?$AA@ DB 'ECM', 00H			; `string'
CONST	ENDS
;	COMDAT ??_C@_06CEAHHNAF@TANKER?$AA@
CONST	SEGMENT
??_C@_06CEAHHNAF@TANKER?$AA@ DB 'TANKER', 00H		; `string'
CONST	ENDS
;	COMDAT ??_C@_05CCPHICJJ@JSTAR?$AA@
CONST	SEGMENT
??_C@_05CCPHICJJ@JSTAR?$AA@ DB 'JSTAR', 00H		; `string'
CONST	ENDS
;	COMDAT ??_C@_05MAOIJGBI@AWACS?$AA@
CONST	SEGMENT
??_C@_05MAOIJGBI@AWACS?$AA@ DB 'AWACS', 00H		; `string'
CONST	ENDS
;	COMDAT ??_C@_06JNJLBPLI@TARGET?$AA@
CONST	SEGMENT
??_C@_06JNJLBPLI@TARGET?$AA@ DB 'TARGET', 00H		; `string'
CONST	ENDS
;	COMDAT ??_C@_0N@KHJIANEJ@THE_LOCATION?$AA@
CONST	SEGMENT
??_C@_0N@KHJIANEJ@THE_LOCATION?$AA@ DB 'THE_LOCATION', 00H ; `string'
CONST	ENDS
;	COMDAT ??_C@_0BB@OHEAIOPL@NEAREST_LOCATION?$AA@
CONST	SEGMENT
??_C@_0BB@OHEAIOPL@NEAREST_LOCATION?$AA@ DB 'NEAREST_LOCATION', 00H ; `string'
CONST	ENDS
;	COMDAT ??_C@_0BC@DMENCOPB@SPECIFIC_LOCATION?$AA@
CONST	SEGMENT
??_C@_0BC@DMENCOPB@SPECIFIC_LOCATION?$AA@ DB 'SPECIFIC_LOCATION', 00H ; `string'
CONST	ENDS
;	COMDAT ??_C@_0BB@OMGDKJHI@GENERAL_LOCATION?$AA@
CONST	SEGMENT
??_C@_0BB@OMGDKJHI@GENERAL_LOCATION?$AA@ DB 'GENERAL_LOCATION', 00H ; `string'
CONST	ENDS
;	COMDAT ??_C@_0BF@DNJJMPHP@ALTERNATE_STRIP_NAME?$AA@
CONST	SEGMENT
??_C@_0BF@DNJJMPHP@ALTERNATE_STRIP_NAME?$AA@ DB 'ALTERNATE_STRIP_NAME', 00H ; `string'
CONST	ENDS
;	COMDAT ??_C@_0M@BDMBEEHA@PATROL_TIME?$AA@
CONST	SEGMENT
??_C@_0M@BDMBEEHA@PATROL_TIME?$AA@ DB 'PATROL_TIME', 00H ; `string'
CONST	ENDS
;	COMDAT ??_C@_0BG@HNKMNDFO@ACTUAL_TIME_ON_TARGET?$AA@
CONST	SEGMENT
??_C@_0BG@HNKMNDFO@ACTUAL_TIME_ON_TARGET?$AA@ DB 'ACTUAL_TIME_ON_TARGET', 00H ; `string'
CONST	ENDS
;	COMDAT ??_C@_0BG@IGCLGGLJ@TIME_ON_STATION_LABEL?$AA@
CONST	SEGMENT
??_C@_0BG@IGCLGGLJ@TIME_ON_STATION_LABEL?$AA@ DB 'TIME_ON_STATION_LABEL', 00H ; `string'
CONST	ENDS
;	COMDAT ??_C@_0P@HAOODHME@TIME_ON_TARGET?$AA@
CONST	SEGMENT
??_C@_0P@HAOODHME@TIME_ON_TARGET?$AA@ DB 'TIME_ON_TARGET', 00H ; `string'
CONST	ENDS
;	COMDAT ??_C@_0O@HMJMPBIP@AIRCRAFT_TYPE?$AA@
CONST	SEGMENT
??_C@_0O@HMJMPBIP@AIRCRAFT_TYPE?$AA@ DB 'AIRCRAFT_TYPE', 00H ; `string'
CONST	ENDS
;	COMDAT ??_C@_0N@EPPNAEFI@NUM_AIRCRAFT?$AA@
CONST	SEGMENT
??_C@_0N@EPPNAEFI@NUM_AIRCRAFT?$AA@ DB 'NUM_AIRCRAFT', 00H ; `string'
CONST	ENDS
;	COMDAT ??_C@_0L@OGBKPMOJ@TE_SUCCESS?$AA@
CONST	SEGMENT
??_C@_0L@OGBKPMOJ@TE_SUCCESS?$AA@ DB 'TE_SUCCESS', 00H	; `string'
CONST	ENDS
;	COMDAT ??_C@_0L@OFHHCAD@RESULT_STR?$AA@
CONST	SEGMENT
??_C@_0L@OFHHCAD@RESULT_STR?$AA@ DB 'RESULT_STR', 00H	; `string'
CONST	ENDS
;	COMDAT ??_C@_0M@EPDBPGIE@CONTEXT_STR?$AA@
CONST	SEGMENT
??_C@_0M@EPDBPGIE@CONTEXT_STR?$AA@ DB 'CONTEXT_STR', 00H ; `string'
CONST	ENDS
;	COMDAT ??_C@_08MDMCLKCP@ECM_NAME?$AA@
CONST	SEGMENT
??_C@_08MDMCLKCP@ECM_NAME?$AA@ DB 'ECM_NAME', 00H	; `string'
CONST	ENDS
;	COMDAT ??_C@_0M@GJONMGJD@TANKER_NAME?$AA@
CONST	SEGMENT
??_C@_0M@GJONMGJD@TANKER_NAME?$AA@ DB 'TANKER_NAME', 00H ; `string'
CONST	ENDS
;	COMDAT ??_C@_0L@EAIANOCF@JSTAR_NAME?$AA@
CONST	SEGMENT
??_C@_0L@EAIANOCF@JSTAR_NAME?$AA@ DB 'JSTAR_NAME', 00H	; `string'
CONST	ENDS
;	COMDAT ??_C@_0L@GIEPPCOM@AWACS_NAME?$AA@
CONST	SEGMENT
??_C@_0L@GIEPPCOM@AWACS_NAME?$AA@ DB 'AWACS_NAME', 00H	; `string'
CONST	ENDS
;	COMDAT ??_C@_0BB@FCHFNNAM@INTERCEPTOR_NAME?$AA@
CONST	SEGMENT
??_C@_0BB@FCHFNNAM@INTERCEPTOR_NAME?$AA@ DB 'INTERCEPTOR_NAME', 00H ; `string'
CONST	ENDS
;	COMDAT ??_C@_0BI@FJDKIODL@REQUESTING_UNIT_VEHICLE?$AA@
CONST	SEGMENT
??_C@_0BI@FJDKIODL@REQUESTING_UNIT_VEHICLE?$AA@ DB 'REQUESTING_UNIT_VEHIC'
	DB	'LE', 00H					; `string'
CONST	ENDS
;	COMDAT ??_C@_0BF@KNPIPNJG@REQUESTING_UNIT_DEST?$AA@
CONST	SEGMENT
??_C@_0BF@KNPIPNJG@REQUESTING_UNIT_DEST?$AA@ DB 'REQUESTING_UNIT_DEST', 00H ; `string'
CONST	ENDS
;	COMDAT ??_C@_0BF@CNELNPAK@REQUESTING_UNIT_NAME?$AA@
CONST	SEGMENT
??_C@_0BF@CNELNPAK@REQUESTING_UNIT_NAME?$AA@ DB 'REQUESTING_UNIT_NAME', 00H ; `string'
CONST	ENDS
;	COMDAT ??_C@_0BA@JIPHAHDE@TARGET_BUILDING?$AA@
CONST	SEGMENT
??_C@_0BA@JIPHAHDE@TARGET_BUILDING?$AA@ DB 'TARGET_BUILDING', 00H ; `string'
CONST	ENDS
;	COMDAT ??_C@_0BI@MMPDJKCG@PACKAGE_TARGET_BUILDING?$AA@
CONST	SEGMENT
??_C@_0BI@MMPDJKCG@PACKAGE_TARGET_BUILDING?$AA@ DB 'PACKAGE_TARGET_BUILDI'
	DB	'NG', 00H					; `string'
CONST	ENDS
;	COMDAT ??_C@_0N@KPBELBIC@TARGET_OWNER?$AA@
CONST	SEGMENT
??_C@_0N@KPBELBIC@TARGET_OWNER?$AA@ DB 'TARGET_OWNER', 00H ; `string'
CONST	ENDS
;	COMDAT ??_C@_0BE@HAAKOLEJ@TARGET_VEHICLE_NAME?$AA@
CONST	SEGMENT
??_C@_0BE@HAAKOLEJ@TARGET_VEHICLE_NAME?$AA@ DB 'TARGET_VEHICLE_NAME', 00H ; `string'
CONST	ENDS
;	COMDAT ??_C@_0M@NBJLGBNL@TARGET_NAME?$AA@
CONST	SEGMENT
??_C@_0M@NBJLGBNL@TARGET_NAME?$AA@ DB 'TARGET_NAME', 00H ; `string'
CONST	ENDS
;	COMDAT ??_C@_0BA@BPIADFBG@OLD_TARGET_NAME?$AA@
CONST	SEGMENT
??_C@_0BA@BPIADFBG@OLD_TARGET_NAME?$AA@ DB 'OLD_TARGET_NAME', 00H ; `string'
CONST	ENDS
;	COMDAT ??_C@_0BE@GIIEOPEC@PACKAGE_TARGET_NAME?$AA@
CONST	SEGMENT
??_C@_0BE@GIIEOPEC@PACKAGE_TARGET_NAME?$AA@ DB 'PACKAGE_TARGET_NAME', 00H ; `string'
CONST	ENDS
;	COMDAT ??_C@_0BM@JMBJCAAD@PACKAGE_MISSION_DESCRIPTION?$AA@
CONST	SEGMENT
??_C@_0BM@JMBJCAAD@PACKAGE_MISSION_DESCRIPTION?$AA@ DB 'PACKAGE_MISSION_D'
	DB	'ESCRIPTION', 00H				; `string'
CONST	ENDS
;	COMDAT ??_C@_0BI@JCKFPPPN@OLD_MISSION_DESCRIPTION?$AA@
CONST	SEGMENT
??_C@_0BI@JCKFPPPN@OLD_MISSION_DESCRIPTION?$AA@ DB 'OLD_MISSION_DESCRIPTI'
	DB	'ON', 00H					; `string'
CONST	ENDS
;	COMDAT ??_C@_0BE@JLKIMEFN@MISSION_DESCRIPTION?$AA@
CONST	SEGMENT
??_C@_0BE@JLKIMEFN@MISSION_DESCRIPTION?$AA@ DB 'MISSION_DESCRIPTION', 00H ; `string'
CONST	ENDS
;	COMDAT ??_C@_0BB@KLMDELEG@OLD_MISSION_NAME?$AA@
CONST	SEGMENT
??_C@_0BB@KLMDELEG@OLD_MISSION_NAME?$AA@ DB 'OLD_MISSION_NAME', 00H ; `string'
CONST	ENDS
;	COMDAT ??_C@_0N@EONIOOBP@MISSION_NAME?$AA@
CONST	SEGMENT
??_C@_0N@EONIOOBP@MISSION_NAME?$AA@ DB 'MISSION_NAME', 00H ; `string'
CONST	ENDS
;	COMDAT ??_C@_0L@EHHCCPNN@PLANE_NAME?$AA@
CONST	SEGMENT
??_C@_0L@EHHCCPNN@PLANE_NAME?$AA@ DB 'PLANE_NAME', 00H	; `string'
CONST	ENDS
;	COMDAT ??_C@_0M@LOGHDAHB@FLIGHT_NAME?$AA@
CONST	SEGMENT
??_C@_0M@LOGHDAHB@FLIGHT_NAME?$AA@ DB 'FLIGHT_NAME', 00H ; `string'
CONST	ENDS
;	COMDAT ??_C@_0L@HBLJNPMB@FLIGHT_NUM?$AA@
CONST	SEGMENT
??_C@_0L@HBLJNPMB@FLIGHT_NUM?$AA@ DB 'FLIGHT_NUM', 00H	; `string'
CONST	ENDS
;	COMDAT ??_C@_04DFNBDBBL@DATA?$AA@
CONST	SEGMENT
??_C@_04DFNBDBBL@DATA?$AA@ DB 'DATA', 00H		; `string'
CONST	ENDS
;	COMDAT ??_C@_06GANGLKEK@WEAPON?$AA@
CONST	SEGMENT
??_C@_06GANGLKEK@WEAPON?$AA@ DB 'WEAPON', 00H		; `string'
CONST	ENDS
;	COMDAT ??_C@_05GDIDNJLL@PILOT?$AA@
CONST	SEGMENT
??_C@_05GDIDNJLL@PILOT?$AA@ DB 'PILOT', 00H		; `string'
CONST	ENDS
;	COMDAT ??_C@_04PIPAPGIN@?$CDINC?$AA@
CONST	SEGMENT
??_C@_04PIPAPGIN@?$CDINC?$AA@ DB '#INC', 00H		; `string'
CONST	ENDS
;	COMDAT ??_C@_08PDBNACPI@?$CDENDFONT?$AA@
CONST	SEGMENT
??_C@_08PDBNACPI@?$CDENDFONT?$AA@ DB '#ENDFONT', 00H	; `string'
CONST	ENDS
;	COMDAT ??_C@_05HPBCPENM@?$CDFONT?$AA@
CONST	SEGMENT
??_C@_05HPBCPENM@?$CDFONT?$AA@ DB '#FONT', 00H		; `string'
CONST	ENDS
;	COMDAT ??_C@_06ONCAKGHE@?$CDCOLOR?$AA@
CONST	SEGMENT
??_C@_06ONCAKGHE@?$CDCOLOR?$AA@ DB '#COLOR', 00H	; `string'
CONST	ENDS
;	COMDAT ??_C@_04EIMEAPLD@?$CDTAB?$AA@
CONST	SEGMENT
??_C@_04EIMEAPLD@?$CDTAB?$AA@ DB '#TAB', 00H		; `string'
CONST	ENDS
;	COMDAT ??_C@_01JLIPDDHJ@?3?$AA@
CONST	SEGMENT
??_C@_01JLIPDDHJ@?3?$AA@ DB ':', 00H			; `string'
CONST	ENDS
;	COMDAT ??_C@_06LFHPLCJ@?$CDCOLON?$AA@
CONST	SEGMENT
??_C@_06LFHPLCJ@?$CDCOLON?$AA@ DB '#COLON', 00H		; `string'
CONST	ENDS
;	COMDAT ??_C@_06ODLOODK@?$CGnbsp?$DL?$AA@
CONST	SEGMENT
??_C@_06ODLOODK@?$CGnbsp?$DL?$AA@ DB '&nbsp;', 00H	; `string'
CONST	ENDS
;	COMDAT ??_C@_06PCLFABJD@?$CDSPACE?$AA@
CONST	SEGMENT
??_C@_06PCLFABJD@?$CDSPACE?$AA@ DB '#SPACE', 00H	; `string'
CONST	ENDS
;	COMDAT ??_C@_03HBHCBENH@?$DMp?$DO?$AA@
CONST	SEGMENT
??_C@_03HBHCBENH@?$DMp?$DO?$AA@ DB '<p>', 00H		; `string'
CONST	ENDS
;	COMDAT ??_C@_04DEHMDPMN@?$CDEOL?$AA@
CONST	SEGMENT
??_C@_04DEHMDPMN@?$CDEOL?$AA@ DB '#EOL', 00H		; `string'
CONST	ENDS
;	COMDAT ??_C@_0BI@NEHCGBKJ@?$CDIF_TACTICAL_ENGAGEMENT?$AA@
CONST	SEGMENT
??_C@_0BI@NEHCGBKJ@?$CDIF_TACTICAL_ENGAGEMENT?$AA@ DB '#IF_TACTICAL_ENGAG'
	DB	'EMENT', 00H					; `string'
CONST	ENDS
;	COMDAT ??_C@_0BC@OBPCDIPD@?$CDIF_CLEAR_WEATHER?$AA@
CONST	SEGMENT
??_C@_0BC@OBPCDIPD@?$CDIF_CLEAR_WEATHER?$AA@ DB '#IF_CLEAR_WEATHER', 00H ; `string'
CONST	ENDS
;	COMDAT ??_C@_0BG@CCLGKGNJ@?$CDIF_DEFENSIVE_PLANNED?$AA@
CONST	SEGMENT
??_C@_0BG@CCLGKGNJ@?$CDIF_DEFENSIVE_PLANNED?$AA@ DB '#IF_DEFENSIVE_PLANNE'
	DB	'D', 00H					; `string'
CONST	ENDS
;	COMDAT ??_C@_0BG@IMPLIODD@?$CDIF_OFFENSIVE_PLANNED?$AA@
CONST	SEGMENT
??_C@_0BG@IMPLIODD@?$CDIF_OFFENSIVE_PLANNED?$AA@ DB '#IF_OFFENSIVE_PLANNE'
	DB	'D', 00H					; `string'
CONST	ENDS
;	COMDAT ??_C@_0N@GLNDBAKF@?$CDIF_DIVERTED?$AA@
CONST	SEGMENT
??_C@_0N@GLNDBAKF@?$CDIF_DIVERTED?$AA@ DB '#IF_DIVERTED', 00H ; `string'
CONST	ENDS
;	COMDAT ??_C@_0BD@FDANNMCJ@?$CDIF_RELATED_EVENTS?$AA@
CONST	SEGMENT
??_C@_0BD@FDANNMCJ@?$CDIF_RELATED_EVENTS?$AA@ DB '#IF_RELATED_EVENTS', 00H ; `string'
CONST	ENDS
;	COMDAT ??_C@_0BB@DELDEFBL@?$CDIF_PLAYER_PILOT?$AA@
CONST	SEGMENT
??_C@_0BB@DELDEFBL@?$CDIF_PLAYER_PILOT?$AA@ DB '#IF_PLAYER_PILOT', 00H ; `string'
CONST	ENDS
;	COMDAT ??_C@_0BH@CJDAIELH@?$CDIF_NOT_SUPPORT_HEADER?$AA@
CONST	SEGMENT
??_C@_0BH@CJDAIELH@?$CDIF_NOT_SUPPORT_HEADER?$AA@ DB '#IF_NOT_SUPPORT_HEA'
	DB	'DER', 00H					; `string'
CONST	ENDS
;	COMDAT ??_C@_0BH@KFLLPBHK@?$CDIF_PACKAGE_SUCCESS_EQ?$AA@
CONST	SEGMENT
??_C@_0BH@KFLLPBHK@?$CDIF_PACKAGE_SUCCESS_EQ?$AA@ DB '#IF_PACKAGE_SUCCESS'
	DB	'_EQ', 00H					; `string'
CONST	ENDS
;	COMDAT ??_C@_07MEDEGODM@?$CDIF_ECM?$AA@
CONST	SEGMENT
??_C@_07MEDEGODM@?$CDIF_ECM?$AA@ DB '#IF_ECM', 00H	; `string'
CONST	ENDS
;	COMDAT ??_C@_0L@IOLDENMM@?$CDIF_TANKER?$AA@
CONST	SEGMENT
??_C@_0L@IOLDENMM@?$CDIF_TANKER?$AA@ DB '#IF_TANKER', 00H ; `string'
CONST	ENDS
;	COMDAT ??_C@_09JMILBEPH@?$CDIF_JSTAR?$AA@
CONST	SEGMENT
??_C@_09JMILBEPH@?$CDIF_JSTAR?$AA@ DB '#IF_JSTAR', 00H	; `string'
CONST	ENDS
;	COMDAT ??_C@_09HOJEAAHG@?$CDIF_AWACS?$AA@
CONST	SEGMENT
??_C@_09HOJEAAHG@?$CDIF_AWACS?$AA@ DB '#IF_AWACS', 00H	; `string'
CONST	ENDS
;	COMDAT ??_C@_0BK@IALOGJJJ@?$CDIF_TARGET_VEH_IS_MISSILE?$AA@
CONST	SEGMENT
??_C@_0BK@IALOGJJJ@?$CDIF_TARGET_VEH_IS_MISSILE?$AA@ DB '#IF_TARGET_VEH_I'
	DB	'S_MISSILE', 00H				; `string'
CONST	ENDS
;	COMDAT ??_C@_0BG@BLDENJFD@?$CDIF_THREAT_IS_MISSILE?$AA@
CONST	SEGMENT
??_C@_0BG@BLDENJFD@?$CDIF_THREAT_IS_MISSILE?$AA@ DB '#IF_THREAT_IS_MISSIL'
	DB	'E', 00H					; `string'
CONST	ENDS
;	COMDAT ??_C@_0BC@KEGODJIP@?$CDIF_WEAPON_HIT_EQ?$AA@
CONST	SEGMENT
??_C@_0BC@KEGODJIP@?$CDIF_WEAPON_HIT_EQ?$AA@ DB '#IF_WEAPON_HIT_EQ', 00H ; `string'
CONST	ENDS
;	COMDAT ??_C@_0BF@ILDEBBON@?$CDIF_WEAPON_MISSED_EQ?$AA@
CONST	SEGMENT
??_C@_0BF@ILDEBBON@?$CDIF_WEAPON_MISSED_EQ?$AA@ DB '#IF_WEAPON_MISSED_EQ', 00H ; `string'
CONST	ENDS
;	COMDAT ??_C@_0BB@LEFKKKEP@?$CDIF_WEAPON_FIRED?$AA@
CONST	SEGMENT
??_C@_0BB@LEFKKKEP@?$CDIF_WEAPON_FIRED?$AA@ DB '#IF_WEAPON_FIRED', 00H ; `string'
CONST	ENDS
;	COMDAT ??_C@_0BE@NCBOGAAH@?$CDIF_FIRST_PILOT_SET?$AA@
CONST	SEGMENT
??_C@_0BE@NCBOGAAH@?$CDIF_FIRST_PILOT_SET?$AA@ DB '#IF_FIRST_PILOT_SET', 00H ; `string'
CONST	ENDS
;	COMDAT ??_C@_0BC@PNEBFBKP@?$CDIF_WEAPONS_FIRED?$AA@
CONST	SEGMENT
??_C@_0BC@PNEBFBKP@?$CDIF_WEAPONS_FIRED?$AA@ DB '#IF_WEAPONS_FIRED', 00H ; `string'
CONST	ENDS
;	COMDAT ??_C@_0BB@ECBMLOJO@?$CDIF_FIRST_WEAPON?$AA@
CONST	SEGMENT
??_C@_0BB@ECBMLOJO@?$CDIF_FIRST_WEAPON?$AA@ DB '#IF_FIRST_WEAPON', 00H ; `string'
CONST	ENDS
;	COMDAT ??_C@_0BA@IJFOIFPD@?$CDIF_HAVE_WEAPON?$AA@
CONST	SEGMENT
??_C@_0BA@IJFOIFPD@?$CDIF_HAVE_WEAPON?$AA@ DB '#IF_HAVE_WEAPON', 00H ; `string'
CONST	ENDS
;	COMDAT ??_C@_0P@IIBJFFLN@?$CDIF_HAVE_PILOT?$AA@
CONST	SEGMENT
??_C@_0P@IIBJFFLN@?$CDIF_HAVE_PILOT?$AA@ DB '#IF_HAVE_PILOT', 00H ; `string'
CONST	ENDS
;	COMDAT ??_C@_0BE@CCGIDIBK@?$CDIF_ALTERNATE_STRIP?$AA@
CONST	SEGMENT
??_C@_0BE@CCGIDIBK@?$CDIF_ALTERNATE_STRIP?$AA@ DB '#IF_ALTERNATE_STRIP', 00H ; `string'
CONST	ENDS
;	COMDAT ??_C@_0BB@IGNPKMMF@?$CDIF_HAVE_THREATS?$AA@
CONST	SEGMENT
??_C@_0BB@IGNPKMMF@?$CDIF_HAVE_THREATS?$AA@ DB '#IF_HAVE_THREATS', 00H ; `string'
CONST	ENDS
;	COMDAT ??_C@_0BJ@GEJCFLGA@?$CDIF_ENEMY_CA_ACTIVITY_GT?$AA@
CONST	SEGMENT
??_C@_0BJ@GEJCFLGA@?$CDIF_ENEMY_CA_ACTIVITY_GT?$AA@ DB '#IF_ENEMY_CA_ACTI'
	DB	'VITY_GT', 00H				; `string'
CONST	ENDS
;	COMDAT ??_C@_0BH@CFGHOHFO@?$CDIF_ENEMY_AIR_RESPONSE?$AA@
CONST	SEGMENT
??_C@_0BH@CFGHOHFO@?$CDIF_ENEMY_AIR_RESPONSE?$AA@ DB '#IF_ENEMY_AIR_RESPO'
	DB	'NSE', 00H					; `string'
CONST	ENDS
;	COMDAT ??_C@_0BB@DMLOGKM@?$CDIF_SOLO_PACKAGE?$AA@
CONST	SEGMENT
??_C@_0BB@DMLOGKM@?$CDIF_SOLO_PACKAGE?$AA@ DB '#IF_SOLO_PACKAGE', 00H ; `string'
CONST	ENDS
;	COMDAT ??_C@_0BB@FMCCFLJB@?$CDIF_PLAYER_PLANE?$AA@
CONST	SEGMENT
??_C@_0BB@FMCCFLJB@?$CDIF_PLAYER_PLANE?$AA@ DB '#IF_PLAYER_PLANE', 00H ; `string'
CONST	ENDS
;	COMDAT ??_C@_0BC@BICNCHDF@?$CDIF_PLAYER_FLIGHT?$AA@
CONST	SEGMENT
??_C@_0BC@BICNCHDF@?$CDIF_PLAYER_FLIGHT?$AA@ DB '#IF_PLAYER_FLIGHT', 00H ; `string'
CONST	ENDS
;	COMDAT ??_C@_0BD@NGKNAHIA@?$CDIF_PRIMARY_FLIGHT?$AA@
CONST	SEGMENT
??_C@_0BD@NGKNAHIA@?$CDIF_PRIMARY_FLIGHT?$AA@ DB '#IF_PRIMARY_FLIGHT', 00H ; `string'
CONST	ENDS
;	COMDAT ??_C@_0P@JHDJKIKK@?$CDIF_CONTEXT_EQ?$AA@
CONST	SEGMENT
??_C@_0P@JHDJKIKK@?$CDIF_CONTEXT_EQ?$AA@ DB '#IF_CONTEXT_EQ', 00H ; `string'
CONST	ENDS
;	COMDAT ??_C@_0BG@LFFPHFBL@?$CDIF_FLIGHT_CONTEXT_EQ?$AA@
CONST	SEGMENT
??_C@_0BG@LFFPHFBL@?$CDIF_FLIGHT_CONTEXT_EQ?$AA@ DB '#IF_FLIGHT_CONTEXT_E'
	DB	'Q', 00H					; `string'
CONST	ENDS
;	COMDAT ??_C@_0BA@EIIJCMHG@?$CDIF_TARGET_UNIT?$AA@
CONST	SEGMENT
??_C@_0BA@EIIJCMHG@?$CDIF_TARGET_UNIT?$AA@ DB '#IF_TARGET_UNIT', 00H ; `string'
CONST	ENDS
;	COMDAT ??_C@_0P@EKIPLFBG@?$CDIF_TARGET_OBJ?$AA@
CONST	SEGMENT
??_C@_0P@EKIPLFBG@?$CDIF_TARGET_OBJ?$AA@ DB '#IF_TARGET_OBJ', 00H ; `string'
CONST	ENDS
;	COMDAT ??_C@_0BD@PJEKJAJL@?$CDIF_OLD_MISSION_EQ?$AA@
CONST	SEGMENT
??_C@_0BD@PJEKJAJL@?$CDIF_OLD_MISSION_EQ?$AA@ DB '#IF_OLD_MISSION_EQ', 00H ; `string'
CONST	ENDS
;	COMDAT ??_C@_0P@GMDIIIKA@?$CDIF_MISSION_EQ?$AA@
CONST	SEGMENT
??_C@_0P@GMDIIIKA@?$CDIF_MISSION_EQ?$AA@ DB '#IF_MISSION_EQ', 00H ; `string'
CONST	ENDS
;	COMDAT ??_C@_0BH@JPBGPHCM@?$CDIF_PACKAGE_MISSION_EQ?$AA@
CONST	SEGMENT
??_C@_0BH@JPBGPHCM@?$CDIF_PACKAGE_MISSION_EQ?$AA@ DB '#IF_PACKAGE_MISSION'
	DB	'_EQ', 00H					; `string'
CONST	ENDS
;	COMDAT ??_C@_0BF@MGMEMEHP@?$CDIF_HAVE_PATROL_TIME?$AA@
CONST	SEGMENT
??_C@_0BF@MGMEMEHP@?$CDIF_HAVE_PATROL_TIME?$AA@ DB '#IF_HAVE_PATROL_TIME', 00H ; `string'
CONST	ENDS
;	COMDAT ??_C@_0BJ@KKGPNOPM@?$CDIF_HAVE_TARGET_BUILDING?$AA@
CONST	SEGMENT
??_C@_0BJ@KKGPNOPM@?$CDIF_HAVE_TARGET_BUILDING?$AA@ DB '#IF_HAVE_TARGET_B'
	DB	'UILDING', 00H				; `string'
CONST	ENDS
;	COMDAT ??_C@_0BI@PHKLIJPH@?$CDIF_HAVE_PACKAGE_TARGET?$AA@
CONST	SEGMENT
??_C@_0BI@PHKLIJPH@?$CDIF_HAVE_PACKAGE_TARGET?$AA@ DB '#IF_HAVE_PACKAGE_T'
	DB	'ARGET', 00H					; `string'
CONST	ENDS
;	COMDAT ??_C@_0BA@HEBDCAAB@?$CDIF_HAVE_TARGET?$AA@
CONST	SEGMENT
??_C@_0BA@HEBDCAAB@?$CDIF_HAVE_TARGET?$AA@ DB '#IF_HAVE_TARGET', 00H ; `string'
CONST	ENDS
;	COMDAT ??_C@_0DH@OMEKCJOK@?$DMBrief?5Reading?5Error?5?9?5stack?5ove@
CONST	SEGMENT
??_C@_0DH@OMEKCJOK@?$DMBrief?5Reading?5Error?5?9?5stack?5ove@ DB '<Brief '
	DB	'Reading Error - stack overflow. Max stacks = %d', 00H ; `string'
CONST	ENDS
;	COMDAT ??_C@_0L@MFEHMJLH@?$CDENDSCRIPT?$AA@
CONST	SEGMENT
??_C@_0L@MFEHMJLH@?$CDENDSCRIPT?$AA@ DB '#ENDSCRIPT', 00H ; `string'
CONST	ENDS
;	COMDAT ??_C@_0CK@EGAAPGFI@?$DMBrief?5reading?5Error?5?9?5unmatched@
CONST	SEGMENT
??_C@_0CK@EGAAPGFI@?$DMBrief?5reading?5Error?5?9?5unmatched@ DB '<Brief r'
	DB	'eading Error - unmatched #ENDIF>', 0aH, 00H	; `string'
CONST	ENDS
;	COMDAT ??_C@_06OJIOOPNB@?$CDENDIF?$AA@
CONST	SEGMENT
??_C@_06OJIOOPNB@?$CDENDIF?$AA@ DB '#ENDIF', 00H	; `string'
CONST	ENDS
;	COMDAT ??_C@_05GNCADCNB@?$CDELSE?$AA@
CONST	SEGMENT
??_C@_05GNCADCNB@?$CDELSE?$AA@ DB '#ELSE', 00H		; `string'
CONST	ENDS
;	COMDAT ??_C@_03LFFEHOPP@?$CDIF?$AA@
CONST	SEGMENT
??_C@_03LFFEHOPP@?$CDIF?$AA@ DB '#IF', 00H		; `string'
CONST	ENDS
;	COMDAT ??_C@_01KDCPPGHE@r?$AA@
CONST	SEGMENT
??_C@_01KDCPPGHE@r?$AA@ DB 'r', 00H			; `string'
CONST	ENDS
;	COMDAT ??_C@_05NCAJEJLJ@?$DMunk?$DO?$AA@
CONST	SEGMENT
??_C@_05NCAJEJLJ@?$DMunk?$DO?$AA@ DB '<unk>', 00H	; `string'
CONST	ENDS
;	COMDAT ??_C@_03IPLKIPCO@?$CDDD?$AA@
CONST	SEGMENT
??_C@_03IPLKIPCO@?$CDDD?$AA@ DB '#DD', 00H		; `string'
CONST	ENDS
;	COMDAT ??_C@_04GEFJINEE@?$CF?42f?$AA@
CONST	SEGMENT
??_C@_04GEFJINEE@?$CF?42f?$AA@ DB '%.2f', 00H		; `string'
CONST	ENDS
;	COMDAT ??_C@_04GGBPDDBN@?$CF?41f?$AA@
CONST	SEGMENT
??_C@_04GGBPDDBN@?$CF?41f?$AA@ DB '%.1f', 00H		; `string'
CONST	ENDS
;	COMDAT ??_C@_04GHNNFJCK@?$CF?40f?$AA@
CONST	SEGMENT
??_C@_04GHNNFJCK@?$CF?40f?$AA@ DB '%.0f', 00H		; `string'
CONST	ENDS
;	COMDAT ??_C@_01CLKCMJKC@?5?$AA@
CONST	SEGMENT
??_C@_01CLKCMJKC@?5?$AA@ DB ' ', 00H			; `string'
CONST	ENDS
;	COMDAT ??_C@_01GPOEFGEJ@?7?$AA@
CONST	SEGMENT
??_C@_01GPOEFGEJ@?7?$AA@ DB 09H, 00H			; `string'
CONST	ENDS
;	COMDAT ??_C@_04LHEKBCCP@?$DMtd?$DO?$AA@
CONST	SEGMENT
??_C@_04LHEKBCCP@?$DMtd?$DO?$AA@ DB '<td>', 00H		; `string'
CONST	ENDS
;	COMDAT ??_C@_0BO@PBDJADDD@?$CF3d?5?$CF8s?5?$CF3s?5?$CF3s?5?$CF5s?5?$CF4s?5?$CFs?5?$CFs?$AA@
CONST	SEGMENT
??_C@_0BO@PBDJADDD@?$CF3d?5?$CF8s?5?$CF3s?5?$CF3s?5?$CF5s?5?$CF4s?5?$CFs?5?$CFs?$AA@ DB '%'
	DB	'3d %8s %3s %3s %5s %4s %s %s', 00H		; `string'
CONST	ENDS
;	COMDAT ??_C@_0BO@DDPJPIDF@?$CF3s?5?$CF8s?5?$CF3s?5?$CF3s?5?$CF4s?5?$CF4s?5?$CFs?5?$CFs?$AA@
CONST	SEGMENT
??_C@_0BO@DDPJPIDF@?$CF3s?5?$CF8s?5?$CF3s?5?$CF3s?5?$CF4s?5?$CF4s?5?$CFs?5?$CFs?$AA@ DB '%'
	DB	'3s %8s %3s %3s %4s %4s %s %s', 00H		; `string'
CONST	ENDS
;	COMDAT ??_C@_03JHMDMDFK@Wpt?$AA@
CONST	SEGMENT
??_C@_03JHMDMDFK@Wpt?$AA@ DB 'Wpt', 00H			; `string'
CONST	ENDS
;	COMDAT ??_C@_04OKOFBOPB@Time?$AA@
CONST	SEGMENT
??_C@_04OKOFBOPB@Time?$AA@ DB 'Time', 00H		; `string'
CONST	ENDS
;	COMDAT ??_C@_03OFHJMOKN@Hdg?$AA@
CONST	SEGMENT
??_C@_03OFHJMOKN@Hdg?$AA@ DB 'Hdg', 00H			; `string'
CONST	ENDS
;	COMDAT ??_C@_03FCGDEGFM@Spd?$AA@
CONST	SEGMENT
??_C@_03FCGDEGFM@Spd?$AA@ DB 'Spd', 00H			; `string'
CONST	ENDS
;	COMDAT ??_C@_03PHINJBAN@Alt?$AA@
CONST	SEGMENT
??_C@_03PHINJBAN@Alt?$AA@ DB 'Alt', 00H			; `string'
CONST	ENDS
;	COMDAT ??_C@_04MPGECEBJ@Dist?$AA@
CONST	SEGMENT
??_C@_04MPGECEBJ@Dist?$AA@ DB 'Dist', 00H		; `string'
CONST	ENDS
;	COMDAT ??_C@_0M@NPHIDLME@mission?4gbd?$AA@
CONST	SEGMENT
??_C@_0M@NPHIDLME@mission?4gbd?$AA@ DB 'mission.gbd', 00H ; `string'
CONST	ENDS
;	COMDAT ??_C@_08IFIJADLA@task?4gbd?$AA@
CONST	SEGMENT
??_C@_08IFIJADLA@task?4gbd?$AA@ DB 'task.gbd', 00H	; `string'
CONST	ENDS
;	COMDAT ??_C@_0L@NHLKLBAI@related?4db?$AA@
CONST	SEGMENT
??_C@_0L@NHLKLBAI@related?4db?$AA@ DB 'related.db', 00H	; `string'
CONST	ENDS
;	COMDAT ??_C@_0L@BCEJELHM@results?4db?$AA@
CONST	SEGMENT
??_C@_0L@BCEJELHM@results?4db?$AA@ DB 'results.db', 00H	; `string'
CONST	ENDS
;	COMDAT ??_C@_0M@DGFFLKPN@PElement?4db?$AA@
CONST	SEGMENT
??_C@_0M@DGFFLKPN@PElement?4db?$AA@ DB 'PElement.db', 00H ; `string'
CONST	ENDS
;	COMDAT ??_C@_08MHOPPMNB@pilot?4db?$AA@
CONST	SEGMENT
??_C@_08MHOPPMNB@pilot?4db?$AA@ DB 'pilot.db', 00H	; `string'
CONST	ENDS
;	COMDAT ??_C@_01EEMJAFIK@?6?$AA@
CONST	SEGMENT
??_C@_01EEMJAFIK@?6?$AA@ DB 0aH, 00H			; `string'
CONST	ENDS
;	COMDAT ??_C@_0L@NACCMEFJ@FOrdEvt?4db?$AA@
CONST	SEGMENT
??_C@_0L@NACCMEFJ@FOrdEvt?4db?$AA@ DB 'FOrdEvt.db', 00H	; `string'
CONST	ENDS
;	COMDAT ??_C@_0M@JBIFENN@FOrdWeap?4db?$AA@
CONST	SEGMENT
??_C@_0M@JBIFENN@FOrdWeap?4db?$AA@ DB 'FOrdWeap.db', 00H ; `string'
CONST	ENDS
;	COMDAT ??_C@_0L@BDADIECF@FOrdnce?4db?$AA@
CONST	SEGMENT
??_C@_0L@BDADIECF@FOrdnce?4db?$AA@ DB 'FOrdnce.db', 00H	; `string'
CONST	ENDS
;	COMDAT ??_C@_09ELGDCBBJ@flight?4db?$AA@
CONST	SEGMENT
??_C@_09ELGDCBBJ@flight?4db?$AA@ DB 'flight.db', 00H	; `string'
CONST	ENDS
;	COMDAT ??_C@_0L@CALOFOKN@FlEvent?4db?$AA@
CONST	SEGMENT
??_C@_0L@CALOFOKN@FlEvent?4db?$AA@ DB 'FlEvent.db', 00H	; `string'
CONST	ENDS
;	COMDAT ??_C@_0L@JMOABIKF@element?4db?$AA@
CONST	SEGMENT
??_C@_0L@JMOABIKF@element?4db?$AA@ DB 'element.db', 00H	; `string'
CONST	ENDS
;	COMDAT ??_C@_0L@FOPFMLMO@pheader?4db?$AA@
CONST	SEGMENT
??_C@_0L@FOPFMLMO@pheader?4db?$AA@ DB 'pheader.db', 00H	; `string'
CONST	ENDS
;	COMDAT ??_C@_09CINKEAKH@header?4db?$AA@
CONST	SEGMENT
??_C@_09CINKEAKH@header?4db?$AA@ DB 'header.db', 00H	; `string'
CONST	ENDS
;	COMDAT ??_C@_05OGPGAODE@End?4b?$AA@
CONST	SEGMENT
??_C@_05OGPGAODE@End?4b?$AA@ DB 'End.b', 00H		; `string'
CONST	ENDS
;	COMDAT ??_C@_0L@IMPHLOC@Emerganc?4b?$AA@
CONST	SEGMENT
??_C@_0L@IMPHLOC@Emerganc?4b?$AA@ DB 'Emerganc.b', 00H	; `string'
CONST	ENDS
;	COMDAT ??_C@_05NNMLNNPM@RoE?4b?$AA@
CONST	SEGMENT
??_C@_05NNMLNNPM@RoE?4b?$AA@ DB 'RoE.b', 00H		; `string'
CONST	ENDS
;	COMDAT ??_C@_09EPKPDGMH@Support?4b?$AA@
CONST	SEGMENT
??_C@_09EPKPDGMH@Support?4b?$AA@ DB 'Support.b', 00H	; `string'
CONST	ENDS
;	COMDAT ??_C@_09EEHEOFJM@Weather?4b?$AA@
CONST	SEGMENT
??_C@_09EEHEOFJM@Weather?4b?$AA@ DB 'Weather.b', 00H	; `string'
CONST	ENDS
;	COMDAT ??_C@_09DBEEHBDF@Loadout?4b?$AA@
CONST	SEGMENT
??_C@_09DBEEHBDF@Loadout?4b?$AA@ DB 'Loadout.b', 00H	; `string'
CONST	ENDS
;	COMDAT ??_C@_0L@MGLGPKDC@Loadouth?4b?$AA@
CONST	SEGMENT
??_C@_0L@MGLGPKDC@Loadouth?4b?$AA@ DB 'Loadouth.b', 00H	; `string'
CONST	ENDS
;	COMDAT ??_C@_09FNCAMDID@SteerPt?4b?$AA@
CONST	SEGMENT
??_C@_09FNCAMDID@SteerPt?4b?$AA@ DB 'SteerPt.b', 00H	; `string'
CONST	ENDS
;	COMDAT ??_C@_0L@EEOKCHAH@SteerPtH?4b?$AA@
CONST	SEGMENT
??_C@_0L@EEOKCHAH@SteerPtH?4b?$AA@ DB 'SteerPtH.b', 00H	; `string'
CONST	ENDS
;	COMDAT ??_C@_09KPKCJAOF@Threats?4b?$AA@
CONST	SEGMENT
??_C@_09KPKCJAOF@Threats?4b?$AA@ DB 'Threats.b', 00H	; `string'
CONST	ENDS
;	COMDAT ??_C@_09FDKFKIOG@Element?4b?$AA@
CONST	SEGMENT
??_C@_09FDKFKIOG@Element?4b?$AA@ DB 'Element.b', 00H	; `string'
CONST	ENDS
;	COMDAT ??_C@_0L@GAFPAEGE@PackHead?4b?$AA@
CONST	SEGMENT
??_C@_0L@GAFPAEGE@PackHead?4b?$AA@ DB 'PackHead.b', 00H	; `string'
CONST	ENDS
;	COMDAT ??_C@_08LHPBPOIK@?$DM?1table?$DO?$AA@
CONST	SEGMENT
??_C@_08LHPBPOIK@?$DM?1table?$DO?$AA@ DB '</table>', 00H ; `string'
CONST	ENDS
;	COMDAT ??_C@_08CALBNDK@divert?4b?$AA@
CONST	SEGMENT
??_C@_08CALBNDK@divert?4b?$AA@ DB 'divert.b', 00H	; `string'
CONST	ENDS
;	COMDAT ??_C@_09IOMGACNF@Situate?4b?$AA@
CONST	SEGMENT
??_C@_09IOMGACNF@Situate?4b?$AA@ DB 'Situate.b', 00H	; `string'
CONST	ENDS
;	COMDAT ??_C@_08KPOPBMGJ@Header?4b?$AA@
CONST	SEGMENT
??_C@_08KPOPBMGJ@Header?4b?$AA@ DB 'Header.b', 00H	; `string'
CONST	ENDS
;	COMDAT ??_C@_02DPKJAMEF@?$CFd?$AA@
CONST	SEGMENT
??_C@_02DPKJAMEF@?$CFd?$AA@ DB '%d', 00H		; `string'
CONST	ENDS
;	COMDAT ??_C@_06FHFOAHML@system?$AA@
CONST	SEGMENT
??_C@_06FHFOAHML@system?$AA@ DB 'system', 00H		; `string'
CONST	ENDS
;	COMDAT ??_7_System_error_category@std@@6B@
CONST	SEGMENT
??_7_System_error_category@std@@6B@ DD FLAT:??_R4_System_error_category@std@@6B@ ; std::_System_error_category::`vftable'
	DD	FLAT:??_E_System_error_category@std@@UAEPAXI@Z
	DD	FLAT:?name@_System_error_category@std@@UBEPBDXZ
	DD	FLAT:?message@_System_error_category@std@@UBE?AV?$basic_string@DU?$char_traits@D@std@@V?$allocator@D@2@@2@H@Z
	DD	FLAT:?default_error_condition@_System_error_category@std@@UBE?AVerror_condition@2@H@Z
	DD	FLAT:?equivalent@error_category@std@@UBE_NABVerror_code@2@H@Z
	DD	FLAT:?equivalent@error_category@std@@UBE_NHABVerror_condition@2@@Z
CONST	ENDS
;	COMDAT ??_C@_0BG@PADBLCHM@iostream?5stream?5error?$AA@
CONST	SEGMENT
??_C@_0BG@PADBLCHM@iostream?5stream?5error?$AA@ DB 'iostream stream error'
	DB	00H						; `string'
CONST	ENDS
;	COMDAT ??_C@_08LLGCOLLL@iostream?$AA@
CONST	SEGMENT
??_C@_08LLGCOLLL@iostream?$AA@ DB 'iostream', 00H	; `string'
CONST	ENDS
;	COMDAT ??_7_Iostream_error_category@std@@6B@
CONST	SEGMENT
??_7_Iostream_error_category@std@@6B@ DD FLAT:??_R4_Iostream_error_category@std@@6B@ ; std::_Iostream_error_category::`vftable'
	DD	FLAT:??_E_Iostream_error_category@std@@UAEPAXI@Z
	DD	FLAT:?name@_Iostream_error_category@std@@UBEPBDXZ
	DD	FLAT:?message@_Iostream_error_category@std@@UBE?AV?$basic_string@DU?$char_traits@D@std@@V?$allocator@D@2@@2@H@Z
	DD	FLAT:?default_error_condition@error_category@std@@UBE?AVerror_condition@2@H@Z
	DD	FLAT:?equivalent@error_category@std@@UBE_NABVerror_code@2@H@Z
	DD	FLAT:?equivalent@error_category@std@@UBE_NHABVerror_condition@2@@Z
CONST	ENDS
;	COMDAT ??_C@_0O@BFJCFAAK@unknown?5error?$AA@
CONST	SEGMENT
??_C@_0O@BFJCFAAK@unknown?5error?$AA@ DB 'unknown error', 00H ; `string'
CONST	ENDS
;	COMDAT ??_C@_07DCLBNMLN@generic?$AA@
CONST	SEGMENT
??_C@_07DCLBNMLN@generic?$AA@ DB 'generic', 00H		; `string'
CONST	ENDS
;	COMDAT ??_7_Generic_error_category@std@@6B@
CONST	SEGMENT
??_7_Generic_error_category@std@@6B@ DD FLAT:??_R4_Generic_error_category@std@@6B@ ; std::_Generic_error_category::`vftable'
	DD	FLAT:??_E_Generic_error_category@std@@UAEPAXI@Z
	DD	FLAT:?name@_Generic_error_category@std@@UBEPBDXZ
	DD	FLAT:?message@_Generic_error_category@std@@UBE?AV?$basic_string@DU?$char_traits@D@std@@V?$allocator@D@2@@2@H@Z
	DD	FLAT:?default_error_condition@error_category@std@@UBE?AVerror_condition@2@H@Z
	DD	FLAT:?equivalent@error_category@std@@UBE_NABVerror_code@2@H@Z
	DD	FLAT:?equivalent@error_category@std@@UBE_NHABVerror_condition@2@@Z
CONST	ENDS
;	COMDAT ??_7error_category@std@@6B@
CONST	SEGMENT
??_7error_category@std@@6B@ DD FLAT:??_R4error_category@std@@6B@ ; std::error_category::`vftable'
	DD	FLAT:??_Eerror_category@std@@UAEPAXI@Z
	DD	FLAT:__purecall
	DD	FLAT:__purecall
	DD	FLAT:?default_error_condition@error_category@std@@UBE?AVerror_condition@2@H@Z
	DD	FLAT:?equivalent@error_category@std@@UBE_NABVerror_code@2@H@Z
	DD	FLAT:?equivalent@error_category@std@@UBE_NHABVerror_condition@2@@Z
CONST	ENDS
;	COMDAT ??_C@_00CNPNBAHC@?$AA@
CONST	SEGMENT
??_C@_00CNPNBAHC@?$AA@ DB 00H				; `string'
CONST	ENDS
;	COMDAT xdata$x
xdata$x	SEGMENT
__unwindtable$??$construct@PADAAPAD@?$allocator@D@std@@QAEXPAPADAAPAD@Z DD 0ffffffffH
	DD	FLAT:__unwindfunclet$??$construct@PADAAPAD@?$allocator@D@std@@QAEXPAPADAAPAD@Z$0
__ehfuncinfo$??$construct@PADAAPAD@?$allocator@D@std@@QAEXPAPADAAPAD@Z DD 019930522H
	DD	01H
	DD	FLAT:__unwindtable$??$construct@PADAAPAD@?$allocator@D@std@@QAEXPAPADAAPAD@Z
	DD	2 DUP(00H)
	DD	2 DUP(00H)
	DD	00H
	DD	01H
xdata$x	ENDS
xdata$x	SEGMENT
__unwindtable$?ReadScriptedBriefFile@@YAHPAD0PAVC_Window@@0PAVMissionEvaluationClass@@PAVFlightDataClass@@@Z DD 0ffffffffH
	DD	FLAT:__unwindfunclet$?ReadScriptedBriefFile@@YAHPAD0PAVC_Window@@0PAVMissionEvaluationClass@@PAVFlightDataClass@@@Z$0
__unwindtable$?AddLocationToBuffer@@YAXDFFPAD@Z DD 0ffffffffH
	DD	FLAT:__unwindfunclet$?AddLocationToBuffer@@YAXDFFPAD@Z$0
	DD	0ffffffffH
	DD	FLAT:__unwindfunclet$?AddLocationToBuffer@@YAXDFFPAD@Z$1
	DD	0ffffffffH
	DD	FLAT:__unwindfunclet$?AddLocationToBuffer@@YAXDFFPAD@Z$2
__unwindtable$?BuildDebriefString@@YAHPAVC_Window@@PAD@Z DD 0ffffffffH
	DD	FLAT:__unwindfunclet$?BuildDebriefString@@YAHPAVC_Window@@PAD@Z$0
	DD	0ffffffffH
	DD	FLAT:__unwindfunclet$?BuildDebriefString@@YAHPAVC_Window@@PAD@Z$1
	DD	0ffffffffH
	DD	FLAT:__unwindfunclet$?BuildDebriefString@@YAHPAVC_Window@@PAD@Z$2
	DD	0ffffffffH
	DD	FLAT:__unwindfunclet$?BuildDebriefString@@YAHPAVC_Window@@PAD@Z$3
__ehfuncinfo$?ReadScriptedBriefFile@@YAHPAD0PAVC_Window@@0PAVMissionEvaluationClass@@PAVFlightDataClass@@@Z DD 019930522H
	DD	01H
	DD	FLAT:__unwindtable$?ReadScriptedBriefFile@@YAHPAD0PAVC_Window@@0PAVMissionEvaluationClass@@PAVFlightDataClass@@@Z
	DD	2 DUP(00H)
	DD	2 DUP(00H)
	DD	00H
	DD	01H
__ehfuncinfo$?BuildDebriefString@@YAHPAVC_Window@@PAD@Z DD 019930522H
	DD	04H
	DD	FLAT:__unwindtable$?BuildDebriefString@@YAHPAVC_Window@@PAD@Z
	DD	2 DUP(00H)
	DD	2 DUP(00H)
	DD	00H
	DD	01H
__ehfuncinfo$?AddLocationToBuffer@@YAXDFFPAD@Z DD 019930522H
	DD	03H
	DD	FLAT:__unwindtable$?AddLocationToBuffer@@YAXDFFPAD@Z
	DD	2 DUP(00H)
	DD	2 DUP(00H)
	DD	00H
	DD	01H
xdata$x	ENDS
;	COMDAT xdata$x
xdata$x	SEGMENT
__catchsym$?_Copy@?$basic_string@DU?$char_traits@D@std@@V?$allocator@D@2@@std@@QAEXII@Z$5 DD 040H
	DD	00H
	DD	00H
	DD	FLAT:__catch$?_Copy@?$basic_string@DU?$char_traits@D@std@@V?$allocator@D@2@@std@@QAEXII@Z$0
__catchsym$?_Copy@?$basic_string@DU?$char_traits@D@std@@V?$allocator@D@2@@std@@QAEXII@Z$4 DD 040H
	DD	00H
	DD	00H
	DD	FLAT:__catch$?_Copy@?$basic_string@DU?$char_traits@D@std@@V?$allocator@D@2@@std@@QAEXII@Z$1
__unwindtable$?_Copy@?$basic_string@DU?$char_traits@D@std@@V?$allocator@D@2@@std@@QAEXII@Z DD 0ffffffffH
	DD	00H
	DD	0ffffffffH
	DD	00H
	DD	01H
	DD	00H
	DD	01H
	DD	00H
__ehfuncinfo$?_Copy@?$basic_string@DU?$char_traits@D@std@@V?$allocator@D@2@@std@@QAEXII@Z DD 019930522H
	DD	04H
	DD	FLAT:__unwindtable$?_Copy@?$basic_string@DU?$char_traits@D@std@@V?$allocator@D@2@@std@@QAEXII@Z
	DD	02H
	DD	FLAT:__tryblocktable$?_Copy@?$basic_string@DU?$char_traits@D@std@@V?$allocator@D@2@@std@@QAEXII@Z
	DD	2 DUP(00H)
	DD	00H
	DD	01H
__tryblocktable$?_Copy@?$basic_string@DU?$char_traits@D@std@@V?$allocator@D@2@@std@@QAEXII@Z DD 02H
	DD	02H
	DD	03H
	DD	01H
	DD	FLAT:__catchsym$?_Copy@?$basic_string@DU?$char_traits@D@std@@V?$allocator@D@2@@std@@QAEXII@Z$4
	DD	00H
	DD	00H
	DD	03H
	DD	01H
	DD	FLAT:__catchsym$?_Copy@?$basic_string@DU?$char_traits@D@std@@V?$allocator@D@2@@std@@QAEXII@Z$5
xdata$x	ENDS
CRT$XCU	SEGMENT
_allocator_arg$initializer$ DD FLAT:??__Eallocator_arg@std@@YAXXZ
CRT$XCU	ENDS
;	COMDAT CRT$XCU
CRT$XCU	SEGMENT
?_Generic_object$initializer$@?$_Error_objects@H@std@@2P6AXXZA DD FLAT:??__E?_Generic_object@?$_Error_objects@H@std@@2V_Generic_error_category@2@A@@YAXXZ ; std::_Error_objects<int>::_Generic_object$initializer$
CRT$XCU	ENDS
;	COMDAT CRT$XCU
CRT$XCU	SEGMENT
?_Iostream_object$initializer$@?$_Error_objects@H@std@@2P6AXXZA DD FLAT:??__E?_Iostream_object@?$_Error_objects@H@std@@2V_Iostream_error_category@2@A@@YAXXZ ; std::_Error_objects<int>::_Iostream_object$initializer$
CRT$XCU	ENDS
;	COMDAT CRT$XCU
CRT$XCU	SEGMENT
?_System_object$initializer$@?$_Error_objects@H@std@@2P6AXXZA DD FLAT:??__E?_System_object@?$_Error_objects@H@std@@2V_System_error_category@2@A@@YAXXZ ; std::_Error_objects<int>::_System_object$initializer$
CRT$XCU	ENDS
;	COMDAT CRT$XCU
CRT$XCU	SEGMENT
?id$initializer$@?$num_put@DV?$back_insert_iterator@V?$basic_string@DU?$char_traits@D@std@@V?$allocator@D@2@@std@@@std@@@std@@2P6AXXZA DD FLAT:??__E?id@?$num_put@DV?$back_insert_iterator@V?$basic_string@DU?$char_traits@D@std@@V?$allocator@D@2@@std@@@std@@@std@@2V0locale@2@A@@YAXXZ ; std::num_put<char,std::back_insert_iterator<std::basic_string<char,std::char_traits<char>,std::allocator<char> > > >::id$initializer$
CRT$XCU	ENDS
;	COMDAT CRT$XCU
CRT$XCU	SEGMENT
?id$initializer$@?$num_put@_WV?$back_insert_iterator@V?$basic_string@_WU?$char_traits@_W@std@@V?$allocator@_W@2@@std@@@std@@@std@@2P6AXXZA DD FLAT:??__E?id@?$num_put@_WV?$back_insert_iterator@V?$basic_string@_WU?$char_traits@_W@std@@V?$allocator@_W@2@@std@@@std@@@std@@2V0locale@2@A@@YAXXZ ; std::num_put<wchar_t,std::back_insert_iterator<std::basic_string<wchar_t,std::char_traits<wchar_t>,std::allocator<wchar_t> > > >::id$initializer$
CRT$XCU	ENDS
;	COMDAT CRT$XCU
CRT$XCU	SEGMENT
?id$initializer$@?$numpunct@D@std@@2P6AXXZA DD FLAT:??__E?id@?$numpunct@D@std@@2V0locale@2@A@@YAXXZ ; std::numpunct<char>::id$initializer$
CRT$XCU	ENDS
;	COMDAT CRT$XCU
CRT$XCU	SEGMENT
?id$initializer$@?$numpunct@_W@std@@2P6AXXZA DD FLAT:??__E?id@?$numpunct@_W@std@@2V0locale@2@A@@YAXXZ ; std::numpunct<wchar_t>::id$initializer$
CRT$XCU	ENDS
; Function compile flags: /Odtp
; File c:\program files (x86)\microsoft visual studio 11.0\vc\include\xmemory0
;	COMDAT ??$destroy@PAD@?$allocator@D@std@@QAEXPAPAD@Z
_TEXT	SEGMENT
_this$ = -4						; size = 4
__Ptr$ = 8						; size = 4
??$destroy@PAD@?$allocator@D@std@@QAEXPAPAD@Z PROC	; std::allocator<char>::destroy<char *>, COMDAT
; _this$ = ecx

; 621  : 		void destroy(_Uty *_Ptr)

	push	ebp
	mov	ebp, esp
	push	ecx
	mov	DWORD PTR _this$[ebp], ecx

; 622  : 		{	// destroy object at _Ptr
; 623  : 		_Ptr->~_Uty();
; 624  : 		}

	mov	esp, ebp
	pop	ebp
	ret	4
??$destroy@PAD@?$allocator@D@std@@QAEXPAPAD@Z ENDP	; std::allocator<char>::destroy<char *>
_TEXT	ENDS
; Function compile flags: /Odtp
; File c:\program files (x86)\microsoft visual studio 11.0\vc\include\xmemory0
;	COMDAT ??$construct@PADAAPAD@?$allocator@D@std@@QAEXPAPADAAPAD@Z
_TEXT	SEGMENT
$T2 = -28						; size = 4
_this$ = -24						; size = 4
tv73 = -20						; size = 4
$T3 = -16						; size = 4
__$EHRec$ = -12						; size = 12
__Ptr$ = 8						; size = 4
__V0$ = 12						; size = 4
??$construct@PADAAPAD@?$allocator@D@std@@QAEXPAPADAAPAD@Z PROC ; std::allocator<char>::construct<char *,char * &>, COMDAT
; _this$ = ecx

; 617  : _VARIADIC_EXPAND_0X(_ALLOC_MEMBER_CONSTRUCT, , , , )

	push	ebp
	mov	ebp, esp
	push	-1
	push	__ehhandler$??$construct@PADAAPAD@?$allocator@D@std@@QAEXPAPADAAPAD@Z
	mov	eax, DWORD PTR fs:0
	push	eax
	sub	esp, 16					; 00000010H
	mov	eax, DWORD PTR ___security_cookie
	xor	eax, ebp
	push	eax
	lea	eax, DWORD PTR __$EHRec$[ebp]
	mov	DWORD PTR fs:0, eax
	mov	DWORD PTR _this$[ebp], ecx
	mov	eax, DWORD PTR __Ptr$[ebp]
	push	eax
	push	4
	call	??2@YAPAXIPAX@Z				; operator new
	add	esp, 8
	mov	DWORD PTR $T3[ebp], eax
	mov	DWORD PTR __$EHRec$[ebp+8], 0
	cmp	DWORD PTR $T3[ebp], 0
	je	SHORT $LN3@construct
	mov	ecx, DWORD PTR __V0$[ebp]
	push	ecx
	call	??$forward@AAPAD@std@@YAAAPADAAPAD@Z	; std::forward<char * &>
	add	esp, 4
	mov	edx, DWORD PTR $T3[ebp]
	mov	eax, DWORD PTR [eax]
	mov	DWORD PTR [edx], eax
	mov	ecx, DWORD PTR $T3[ebp]
	mov	DWORD PTR tv73[ebp], ecx
	jmp	SHORT $LN4@construct
$LN3@construct:
	mov	DWORD PTR tv73[ebp], 0
$LN4@construct:
	mov	edx, DWORD PTR tv73[ebp]
	mov	DWORD PTR $T2[ebp], edx
	mov	DWORD PTR __$EHRec$[ebp+8], -1
	mov	ecx, DWORD PTR __$EHRec$[ebp]
	mov	DWORD PTR fs:0, ecx
	pop	ecx
	mov	esp, ebp
	pop	ebp
	ret	8
_TEXT	ENDS
;	COMDAT text$x
text$x	SEGMENT
__unwindfunclet$??$construct@PADAAPAD@?$allocator@D@std@@QAEXPAPADAAPAD@Z$0:
	mov	eax, DWORD PTR __Ptr$[ebp]
	push	eax
	mov	eax, DWORD PTR $T3[ebp]
	push	eax
	call	??3@YAXPAX0@Z				; operator delete
	add	esp, 8
	ret	0
__ehhandler$??$construct@PADAAPAD@?$allocator@D@std@@QAEXPAPADAAPAD@Z:
	mov	edx, DWORD PTR [esp+8]
	lea	eax, DWORD PTR [edx+12]
	mov	ecx, DWORD PTR [edx-20]
	xor	ecx, eax
	call	@__security_check_cookie@4
	mov	eax, OFFSET __ehfuncinfo$??$construct@PADAAPAD@?$allocator@D@std@@QAEXPAPADAAPAD@Z
	jmp	___CxxFrameHandler3
text$x	ENDS
??$construct@PADAAPAD@?$allocator@D@std@@QAEXPAPADAAPAD@Z ENDP ; std::allocator<char>::construct<char *,char * &>
; Function compile flags: /Odtp
; File c:\program files (x86)\microsoft visual studio 11.0\vc\include\xlocnum
;	COMDAT ??__E?id@?$numpunct@_W@std@@2V0locale@2@A@@YAXXZ
text$yc	SEGMENT
??__E?id@?$numpunct@_W@std@@2V0locale@2@A@@YAXXZ PROC	; `dynamic initializer for 'std::numpunct<wchar_t>::id'', COMDAT

; 155  : 		void _Getvals(wchar_t, const lconv *_Ptr, _Locinfo::_Cvtvec)

	push	ebp
	mov	ebp, esp
	push	0
	mov	ecx, OFFSET ?id@?$numpunct@_W@std@@2V0locale@2@A ; std::numpunct<wchar_t>::id
	call	??0id@locale@std@@QAE@I@Z		; std::locale::id::id
	pop	ebp
	ret	0
??__E?id@?$numpunct@_W@std@@2V0locale@2@A@@YAXXZ ENDP	; `dynamic initializer for 'std::numpunct<wchar_t>::id''
text$yc	ENDS
; Function compile flags: /Odtp
; File c:\program files (x86)\microsoft visual studio 11.0\vc\include\xlocnum
;	COMDAT ??__E?id@?$numpunct@D@std@@2V0locale@2@A@@YAXXZ
text$yc	SEGMENT
??__E?id@?$numpunct@D@std@@2V0locale@2@A@@YAXXZ PROC	; `dynamic initializer for 'std::numpunct<char>::id'', COMDAT

; 155  : 		void _Getvals(wchar_t, const lconv *_Ptr, _Locinfo::_Cvtvec)

	push	ebp
	mov	ebp, esp
	push	0
	mov	ecx, OFFSET ?id@?$numpunct@D@std@@2V0locale@2@A ; std::numpunct<char>::id
	call	??0id@locale@std@@QAE@I@Z		; std::locale::id::id
	pop	ebp
	ret	0
??__E?id@?$numpunct@D@std@@2V0locale@2@A@@YAXXZ ENDP	; `dynamic initializer for 'std::numpunct<char>::id''
text$yc	ENDS
; Function compile flags: /Odtp
; File c:\program files (x86)\microsoft visual studio 11.0\vc\include\xlocnum
;	COMDAT ??__E?id@?$num_put@_WV?$back_insert_iterator@V?$basic_string@_WU?$char_traits@_W@std@@V?$allocator@_W@2@@std@@@std@@@std@@2V0locale@2@A@@YAXXZ
text$yc	SEGMENT
??__E?id@?$num_put@_WV?$back_insert_iterator@V?$basic_string@_WU?$char_traits@_W@std@@V?$allocator@_W@2@@std@@@std@@@std@@2V0locale@2@A@@YAXXZ PROC ; `dynamic initializer for 'std::num_put<wchar_t,std::back_insert_iterator<std::basic_string<wchar_t,std::char_traits<wchar_t>,std::allocator<wchar_t> > > >::id'', COMDAT

; 155  : 		void _Getvals(wchar_t, const lconv *_Ptr, _Locinfo::_Cvtvec)

	push	ebp
	mov	ebp, esp
	push	0
	mov	ecx, OFFSET ?id@?$num_put@_WV?$back_insert_iterator@V?$basic_string@_WU?$char_traits@_W@std@@V?$allocator@_W@2@@std@@@std@@@std@@2V0locale@2@A ; std::num_put<wchar_t,std::back_insert_iterator<std::basic_string<wchar_t,std::char_traits<wchar_t>,std::allocator<wchar_t> > > >::id
	call	??0id@locale@std@@QAE@I@Z		; std::locale::id::id
	pop	ebp
	ret	0
??__E?id@?$num_put@_WV?$back_insert_iterator@V?$basic_string@_WU?$char_traits@_W@std@@V?$allocator@_W@2@@std@@@std@@@std@@2V0locale@2@A@@YAXXZ ENDP ; `dynamic initializer for 'std::num_put<wchar_t,std::back_insert_iterator<std::basic_string<wchar_t,std::char_traits<wchar_t>,std::allocator<wchar_t> > > >::id''
text$yc	ENDS
; Function compile flags: /Odtp
; File c:\program files (x86)\microsoft visual studio 11.0\vc\include\xlocnum
;	COMDAT ??__E?id@?$num_put@DV?$back_insert_iterator@V?$basic_string@DU?$char_traits@D@std@@V?$allocator@D@2@@std@@@std@@@std@@2V0locale@2@A@@YAXXZ
text$yc	SEGMENT
??__E?id@?$num_put@DV?$back_insert_iterator@V?$basic_string@DU?$char_traits@D@std@@V?$allocator@D@2@@std@@@std@@@std@@2V0locale@2@A@@YAXXZ PROC ; `dynamic initializer for 'std::num_put<char,std::back_insert_iterator<std::basic_string<char,std::char_traits<char>,std::allocator<char> > > >::id'', COMDAT

; 155  : 		void _Getvals(wchar_t, const lconv *_Ptr, _Locinfo::_Cvtvec)

	push	ebp
	mov	ebp, esp
	push	0
	mov	ecx, OFFSET ?id@?$num_put@DV?$back_insert_iterator@V?$basic_string@DU?$char_traits@D@std@@V?$allocator@D@2@@std@@@std@@@std@@2V0locale@2@A ; std::num_put<char,std::back_insert_iterator<std::basic_string<char,std::char_traits<char>,std::allocator<char> > > >::id
	call	??0id@locale@std@@QAE@I@Z		; std::locale::id::id
	pop	ebp
	ret	0
??__E?id@?$num_put@DV?$back_insert_iterator@V?$basic_string@DU?$char_traits@D@std@@V?$allocator@D@2@@std@@@std@@@std@@2V0locale@2@A@@YAXXZ ENDP ; `dynamic initializer for 'std::num_put<char,std::back_insert_iterator<std::basic_string<char,std::char_traits<char>,std::allocator<char> > > >::id''
text$yc	ENDS
; Function compile flags: /Odtp
; File c:\program files (x86)\microsoft visual studio 11.0\vc\include\xmemory0
;	COMDAT ??$destroy@PAD@?$allocator_traits@V?$allocator@D@std@@@std@@SAXAAV?$allocator@D@1@PAPAD@Z
_TEXT	SEGMENT
__Al$ = 8						; size = 4
__Ptr$ = 12						; size = 4
??$destroy@PAD@?$allocator_traits@V?$allocator@D@std@@@std@@SAXAAV?$allocator@D@1@PAPAD@Z PROC ; std::allocator_traits<std::allocator<char> >::destroy<char *>, COMDAT

; 755  : 		static void destroy(_Alloc& _Al, _Uty *_Ptr)

	push	ebp
	mov	ebp, esp

; 756  : 		{	// destroy object at _Ptr
; 757  : 		_Al.destroy(_Ptr);

	mov	eax, DWORD PTR __Ptr$[ebp]
	push	eax
	mov	ecx, DWORD PTR __Al$[ebp]
	call	??$destroy@PAD@?$allocator@D@std@@QAEXPAPAD@Z ; std::allocator<char>::destroy<char *>

; 758  : 		}

	pop	ebp
	ret	0
??$destroy@PAD@?$allocator_traits@V?$allocator@D@std@@@std@@SAXAAV?$allocator@D@1@PAPAD@Z ENDP ; std::allocator_traits<std::allocator<char> >::destroy<char *>
_TEXT	ENDS
; Function compile flags: /Odtp
; File c:\program files (x86)\microsoft visual studio 11.0\vc\include\xmemory0
;	COMDAT ??$construct@PADAAPAD@?$allocator_traits@V?$allocator@D@std@@@std@@SAXAAV?$allocator@D@1@PAPADAAPAD@Z
_TEXT	SEGMENT
__Al$ = 8						; size = 4
__Ptr$ = 12						; size = 4
__V0$ = 16						; size = 4
??$construct@PADAAPAD@?$allocator_traits@V?$allocator@D@std@@@std@@SAXAAV?$allocator@D@1@PAPADAAPAD@Z PROC ; std::allocator_traits<std::allocator<char> >::construct<char *,char * &>, COMDAT

; 751  : _VARIADIC_EXPAND_0X(_ALLOC_TRAITS_SPECIAL_CONSTRUCT, , , , )

	push	ebp
	mov	ebp, esp
	mov	eax, DWORD PTR __V0$[ebp]
	push	eax
	call	??$forward@AAPAD@std@@YAAAPADAAPAD@Z	; std::forward<char * &>
	add	esp, 4
	push	eax
	mov	ecx, DWORD PTR __Ptr$[ebp]
	push	ecx
	mov	ecx, DWORD PTR __Al$[ebp]
	call	??$construct@PADAAPAD@?$allocator@D@std@@QAEXPAPADAAPAD@Z ; std::allocator<char>::construct<char *,char * &>
	pop	ebp
	ret	0
??$construct@PADAAPAD@?$allocator_traits@V?$allocator@D@std@@@std@@SAXAAV?$allocator@D@1@PAPADAAPAD@Z ENDP ; std::allocator_traits<std::allocator<char> >::construct<char *,char * &>
_TEXT	ENDS
; Function compile flags: /Odtp
; File c:\program files (x86)\microsoft visual studio 11.0\vc\include\type_traits
;	COMDAT ??$forward@AAPAD@std@@YAAAPADAAPAD@Z
_TEXT	SEGMENT
__Arg$ = 8						; size = 4
??$forward@AAPAD@std@@YAAAPADAAPAD@Z PROC		; std::forward<char * &>, COMDAT

; 1775 : 	{	// forward an lvalue

	push	ebp
	mov	ebp, esp

; 1776 : 	return (static_cast<_Ty&&>(_Arg));

	mov	eax, DWORD PTR __Arg$[ebp]

; 1777 : 	}

	pop	ebp
	ret	0
??$forward@AAPAD@std@@YAAAPADAAPAD@Z ENDP		; std::forward<char * &>
_TEXT	ENDS
; Function compile flags: /Odtp
;	COMDAT ??__F?_System_object@?$_Error_objects@H@std@@2V_System_error_category@2@A@@YAXXZ
text$yd	SEGMENT
??__F?_System_object@?$_Error_objects@H@std@@2V_System_error_category@2@A@@YAXXZ PROC ; `dynamic atexit destructor for 'std::_Error_objects<int>::_System_object'', COMDAT
	push	ebp
	mov	ebp, esp
	mov	ecx, OFFSET ?_System_object@?$_Error_objects@H@std@@2V_System_error_category@2@A ; std::_Error_objects<int>::_System_object
	call	??1_System_error_category@std@@UAE@XZ
	pop	ebp
	ret	0
??__F?_System_object@?$_Error_objects@H@std@@2V_System_error_category@2@A@@YAXXZ ENDP ; `dynamic atexit destructor for 'std::_Error_objects<int>::_System_object''
text$yd	ENDS
; Function compile flags: /Odtp
; File c:\program files (x86)\microsoft visual studio 11.0\vc\include\xmemory0
;	COMDAT ??__E?_System_object@?$_Error_objects@H@std@@2V_System_error_category@2@A@@YAXXZ
text$yc	SEGMENT
??__E?_System_object@?$_Error_objects@H@std@@2V_System_error_category@2@A@@YAXXZ PROC ; `dynamic initializer for 'std::_Error_objects<int>::_System_object'', COMDAT

; 627  : 		{	// estimate maximum array size

	push	ebp
	mov	ebp, esp
	mov	ecx, OFFSET ?_System_object@?$_Error_objects@H@std@@2V_System_error_category@2@A ; std::_Error_objects<int>::_System_object
	call	??0_System_error_category@std@@QAE@XZ	; std::_System_error_category::_System_error_category
	push	OFFSET ??__F?_System_object@?$_Error_objects@H@std@@2V_System_error_category@2@A@@YAXXZ ; `dynamic atexit destructor for 'std::_Error_objects<int>::_System_object''
	call	_atexit
	add	esp, 4
	pop	ebp
	ret	0
??__E?_System_object@?$_Error_objects@H@std@@2V_System_error_category@2@A@@YAXXZ ENDP ; `dynamic initializer for 'std::_Error_objects<int>::_System_object''
text$yc	ENDS
; Function compile flags: /Odtp
;	COMDAT ??__F?_Iostream_object@?$_Error_objects@H@std@@2V_Iostream_error_category@2@A@@YAXXZ
text$yd	SEGMENT
??__F?_Iostream_object@?$_Error_objects@H@std@@2V_Iostream_error_category@2@A@@YAXXZ PROC ; `dynamic atexit destructor for 'std::_Error_objects<int>::_Iostream_object'', COMDAT
	push	ebp
	mov	ebp, esp
	mov	ecx, OFFSET ?_Iostream_object@?$_Error_objects@H@std@@2V_Iostream_error_category@2@A ; std::_Error_objects<int>::_Iostream_object
	call	??1_Iostream_error_category@std@@UAE@XZ
	pop	ebp
	ret	0
??__F?_Iostream_object@?$_Error_objects@H@std@@2V_Iostream_error_category@2@A@@YAXXZ ENDP ; `dynamic atexit destructor for 'std::_Error_objects<int>::_Iostream_object''
text$yd	ENDS
; Function compile flags: /Odtp
; File c:\program files (x86)\microsoft visual studio 11.0\vc\include\xmemory0
;	COMDAT ??__E?_Iostream_object@?$_Error_objects@H@std@@2V_Iostream_error_category@2@A@@YAXXZ
text$yc	SEGMENT
??__E?_Iostream_object@?$_Error_objects@H@std@@2V_Iostream_error_category@2@A@@YAXXZ PROC ; `dynamic initializer for 'std::_Error_objects<int>::_Iostream_object'', COMDAT

; 627  : 		{	// estimate maximum array size

	push	ebp
	mov	ebp, esp
	mov	ecx, OFFSET ?_Iostream_object@?$_Error_objects@H@std@@2V_Iostream_error_category@2@A ; std::_Error_objects<int>::_Iostream_object
	call	??0_Iostream_error_category@std@@QAE@XZ	; std::_Iostream_error_category::_Iostream_error_category
	push	OFFSET ??__F?_Iostream_object@?$_Error_objects@H@std@@2V_Iostream_error_category@2@A@@YAXXZ ; `dynamic atexit destructor for 'std::_Error_objects<int>::_Iostream_object''
	call	_atexit
	add	esp, 4
	pop	ebp
	ret	0
??__E?_Iostream_object@?$_Error_objects@H@std@@2V_Iostream_error_category@2@A@@YAXXZ ENDP ; `dynamic initializer for 'std::_Error_objects<int>::_Iostream_object''
text$yc	ENDS
; Function compile flags: /Odtp
;	COMDAT ??__F?_Generic_object@?$_Error_objects@H@std@@2V_Generic_error_category@2@A@@YAXXZ
text$yd	SEGMENT
??__F?_Generic_object@?$_Error_objects@H@std@@2V_Generic_error_category@2@A@@YAXXZ PROC ; `dynamic atexit destructor for 'std::_Error_objects<int>::_Generic_object'', COMDAT
	push	ebp
	mov	ebp, esp
	mov	ecx, OFFSET ?_Generic_object@?$_Error_objects@H@std@@2V_Generic_error_category@2@A ; std::_Error_objects<int>::_Generic_object
	call	??1_Generic_error_category@std@@UAE@XZ
	pop	ebp
	ret	0
??__F?_Generic_object@?$_Error_objects@H@std@@2V_Generic_error_category@2@A@@YAXXZ ENDP ; `dynamic atexit destructor for 'std::_Error_objects<int>::_Generic_object''
text$yd	ENDS
; Function compile flags: /Odtp
; File c:\program files (x86)\microsoft visual studio 11.0\vc\include\xmemory0
;	COMDAT ??__E?_Generic_object@?$_Error_objects@H@std@@2V_Generic_error_category@2@A@@YAXXZ
text$yc	SEGMENT
??__E?_Generic_object@?$_Error_objects@H@std@@2V_Generic_error_category@2@A@@YAXXZ PROC ; `dynamic initializer for 'std::_Error_objects<int>::_Generic_object'', COMDAT

; 627  : 		{	// estimate maximum array size

	push	ebp
	mov	ebp, esp
	mov	ecx, OFFSET ?_Generic_object@?$_Error_objects@H@std@@2V_Generic_error_category@2@A ; std::_Error_objects<int>::_Generic_object
	call	??0_Generic_error_category@std@@QAE@XZ	; std::_Generic_error_category::_Generic_error_category
	push	OFFSET ??__F?_Generic_object@?$_Error_objects@H@std@@2V_Generic_error_category@2@A@@YAXXZ ; `dynamic atexit destructor for 'std::_Error_objects<int>::_Generic_object''
	call	_atexit
	add	esp, 4
	pop	ebp
	ret	0
??__E?_Generic_object@?$_Error_objects@H@std@@2V_Generic_error_category@2@A@@YAXXZ ENDP ; `dynamic initializer for 'std::_Error_objects<int>::_Generic_object''
text$yc	ENDS
; Function compile flags: /Odtp
; File c:\program files (x86)\microsoft visual studio 11.0\vc\include\xmemory0
;	COMDAT ??$_Allocate@D@std@@YAPADIPAD@Z
_TEXT	SEGMENT
__Ptr$ = -4						; size = 4
__Count$ = 8						; size = 4
___formal$ = 12						; size = 4
??$_Allocate@D@std@@YAPADIPAD@Z PROC			; std::_Allocate<char>, COMDAT

; 22   : 	{	// allocate storage for _Count elements of type _Ty

	push	ebp
	mov	ebp, esp
	push	ecx

; 23   : 	void *_Ptr = 0;

	mov	DWORD PTR __Ptr$[ebp], 0

; 24   : 
; 25   : 	if (_Count == 0)

	cmp	DWORD PTR __Count$[ebp], 0
	jne	SHORT $LN4@Allocate

; 26   : 		;
; 27   : 	else if (((size_t)(-1) / sizeof (_Ty) < _Count)

	jmp	SHORT $LN3@Allocate
$LN4@Allocate:

; 28   : 		|| (_Ptr = ::operator new(_Count * sizeof (_Ty))) == 0)

	cmp	DWORD PTR __Count$[ebp], -1
	ja	SHORT $LN1@Allocate
	mov	eax, DWORD PTR __Count$[ebp]
	push	eax
	call	??2@YAPAXI@Z				; operator new
	add	esp, 4
	mov	DWORD PTR __Ptr$[ebp], eax
	cmp	DWORD PTR __Ptr$[ebp], 0
	jne	SHORT $LN3@Allocate
$LN1@Allocate:

; 29   : 		_Xbad_alloc();	// report no memory

	call	?_Xbad_alloc@std@@YAXXZ			; std::_Xbad_alloc
$LN3@Allocate:

; 30   : 
; 31   : 	return ((_Ty *)_Ptr);

	mov	eax, DWORD PTR __Ptr$[ebp]
$LN6@Allocate:

; 32   : 	}

	mov	esp, ebp
	pop	ebp
	ret	0
??$_Allocate@D@std@@YAPADIPAD@Z ENDP			; std::_Allocate<char>
_TEXT	ENDS
; Function compile flags: /Odtp
; File c:\program files (x86)\microsoft visual studio 11.0\vc\include\xstddef
;	COMDAT ??$addressof@D@std@@YAPADAAD@Z
_TEXT	SEGMENT
__Val$ = 8						; size = 4
??$addressof@D@std@@YAPADAAD@Z PROC			; std::addressof<char>, COMDAT

; 85   : 	{	// return address of _Val

	push	ebp
	mov	ebp, esp

; 86   : 	return (reinterpret_cast<_Ty *>(
; 87   : 		(&const_cast<char&>(
; 88   : 		reinterpret_cast<const volatile char&>(_Val)))));

	mov	eax, DWORD PTR __Val$[ebp]

; 89   : 	}

	pop	ebp
	ret	0
??$addressof@D@std@@YAPADAAD@Z ENDP			; std::addressof<char>
_TEXT	ENDS
; Function compile flags: /Odtp
; File c:\program files (x86)\microsoft visual studio 11.0\vc\include\xmemory0
;	COMDAT ??$destroy@PAD@?$_Wrap_alloc@V?$allocator@D@std@@@std@@QAEXPAPAD@Z
_TEXT	SEGMENT
_this$ = -4						; size = 4
__Ptr$ = 8						; size = 4
??$destroy@PAD@?$_Wrap_alloc@V?$allocator@D@std@@@std@@QAEXPAPAD@Z PROC ; std::_Wrap_alloc<std::allocator<char> >::destroy<char *>, COMDAT
; _this$ = ecx

; 907  : 		void destroy(_Ty *_Ptr)

	push	ebp
	mov	ebp, esp
	push	ecx
	mov	DWORD PTR _this$[ebp], ecx

; 908  : 		{	// destroy object at _Ptr
; 909  : 		_Mytraits::destroy(*this, _Ptr);

	mov	eax, DWORD PTR __Ptr$[ebp]
	push	eax
	mov	ecx, DWORD PTR _this$[ebp]
	push	ecx
	call	??$destroy@PAD@?$allocator_traits@V?$allocator@D@std@@@std@@SAXAAV?$allocator@D@1@PAPAD@Z ; std::allocator_traits<std::allocator<char> >::destroy<char *>
	add	esp, 8

; 910  : 		}

	mov	esp, ebp
	pop	ebp
	ret	4
??$destroy@PAD@?$_Wrap_alloc@V?$allocator@D@std@@@std@@QAEXPAPAD@Z ENDP ; std::_Wrap_alloc<std::allocator<char> >::destroy<char *>
_TEXT	ENDS
; Function compile flags: /Odtp
; File c:\program files (x86)\microsoft visual studio 11.0\vc\include\xmemory0
;	COMDAT ??$construct@PADAAPAD@?$_Wrap_alloc@V?$allocator@D@std@@@std@@QAEXPAPADAAPAD@Z
_TEXT	SEGMENT
_this$ = -4						; size = 4
__Ptr$ = 8						; size = 4
__V0$ = 12						; size = 4
??$construct@PADAAPAD@?$_Wrap_alloc@V?$allocator@D@std@@@std@@QAEXPAPADAAPAD@Z PROC ; std::_Wrap_alloc<std::allocator<char> >::construct<char *,char * &>, COMDAT
; _this$ = ecx

; 903  : _VARIADIC_EXPAND_0X(_WRAP_ALLOC_CONSTRUCT, , , , )

	push	ebp
	mov	ebp, esp
	push	ecx
	mov	DWORD PTR _this$[ebp], ecx
	mov	eax, DWORD PTR __V0$[ebp]
	push	eax
	call	??$forward@AAPAD@std@@YAAAPADAAPAD@Z	; std::forward<char * &>
	add	esp, 4
	push	eax
	mov	ecx, DWORD PTR __Ptr$[ebp]
	push	ecx
	mov	edx, DWORD PTR _this$[ebp]
	push	edx
	call	??$construct@PADAAPAD@?$allocator_traits@V?$allocator@D@std@@@std@@SAXAAV?$allocator@D@1@PAPADAAPAD@Z ; std::allocator_traits<std::allocator<char> >::construct<char *,char * &>
	add	esp, 12					; 0000000cH
	mov	esp, ebp
	pop	ebp
	ret	8
??$construct@PADAAPAD@?$_Wrap_alloc@V?$allocator@D@std@@@std@@QAEXPAPADAAPAD@Z ENDP ; std::_Wrap_alloc<std::allocator<char> >::construct<char *,char * &>
_TEXT	ENDS
; Function compile flags: /Odtp
; File c:\users\zhitao li\documents\visual studio 2012\projects\freefalcon\campaign\campui\brief.cpp
_TEXT	SEGMENT
_div$1 = -1368						; size = 4
$T2 = -1364						; size = 4
_sptr$3 = -1360						; size = 4
_sptr$4 = -1356						; size = 4
$T5 = -1352						; size = 4
_div$6 = -1348						; size = 4
tv501 = -1344						; size = 4
_vc$7 = -1340						; size = 4
_mode$ = -1336						; size = 4
_argnum$8 = -1332					; size = 4
tv386 = -1328						; size = 4
_size$ = -1324						; size = 4
_to_upper$ = -1320					; size = 4
_params$ = -1316					; size = 4
_addchar$ = -1312					; size = 2
_stridx$ = -1308					; size = 4
_plural$ = -1304					; size = 4
_gender$ = -1300					; size = 4
_usage$ = -1296						; size = 4
_entity$ = -1292					; size = 4
_index$ = -1288						; size = 4
_format$ = -1284					; size = 1024
_argstring$ = -260					; size = 256
__$ArrayPad$ = -4					; size = 4
_maxsize$ = 8						; size = 2
_string$ = 12						; size = 4
_data$ = 16						; size = 4
?ConstructOrderedGenderedSentence@@YAXFPADPAVEventDataClass@@ZZ PROC ; ConstructOrderedGenderedSentence

; 1325 : 	{

	push	ebp
	mov	ebp, esp
	sub	esp, 1368				; 00000558H
	mov	eax, DWORD PTR ___security_cookie
	xor	eax, ebp
	mov	DWORD PTR __$ArrayPad$[ebp], eax

; 1326 : 	_TCHAR		argstring[MAX_STRLEN_PER_TOKEN],addchar[2];
; 1327 : 	_TCHAR		format[1024];
; 1328 : 	int			size,index=0;

	mov	DWORD PTR _index$[ebp], 0

; 1329 : 	int			plural,to_upper,gender,usage,stridx,mode;
; 1330 : 	CampEntity	entity;
; 1331 : 	va_list		params;
; 1332 : 
; 1333 : 	string[0] = 0;

	mov	eax, 1
	imul	eax, 0
	mov	ecx, DWORD PTR _string$[ebp]
	mov	BYTE PTR [ecx+eax], 0

; 1334 : 	ReadIndexedString(data->formatId, format, 1024);

	push	1024					; 00000400H
	lea	edx, DWORD PTR _format$[ebp]
	push	edx
	mov	eax, DWORD PTR _data$[ebp]
	movsx	ecx, WORD PTR [eax]
	push	ecx
	call	?ReadIndexedString@@YAXHPADH@Z		; ReadIndexedString
	add	esp, 12					; 0000000cH

; 1335 : 	size = _tcslen(format);

	lea	edx, DWORD PTR _format$[ebp]
	push	edx
	call	_strlen
	add	esp, 4
	mov	DWORD PTR _size$[ebp], eax
$LN71@ConstructO:

; 1336 : 
; 1337 : 	while (format[index])

	mov	eax, DWORD PTR _index$[ebp]
	movsx	ecx, BYTE PTR _format$[ebp+eax]
	test	ecx, ecx
	je	$LN73@ConstructO

; 1338 : 		{
; 1339 : 		if (format[index] == '#')

	mov	edx, DWORD PTR _index$[ebp]
	movsx	eax, BYTE PTR _format$[ebp+edx]
	cmp	eax, 35					; 00000023H
	jne	$LN69@ConstructO

; 1340 : 			{
; 1341 : 			// Evaluate the expression
; 1342 : 			index++;

	mov	ecx, DWORD PTR _index$[ebp]
	add	ecx, 1
	mov	DWORD PTR _index$[ebp], ecx

; 1343 : 			plural = 0;

	mov	DWORD PTR _plural$[ebp], 0

; 1344 : 			to_upper = 0;

	mov	DWORD PTR _to_upper$[ebp], 0

; 1345 : 			usage = 0;

	mov	DWORD PTR _usage$[ebp], 0

; 1346 : 			mode = 0;

	mov	DWORD PTR _mode$[ebp], 0

; 1347 : 			gender = -1;

	mov	DWORD PTR _gender$[ebp], -1

; 1348 : 			argstring[0] = 0;

	mov	edx, 1
	imul	edx, 0
	mov	DWORD PTR $T2[ebp], edx
	cmp	DWORD PTR $T2[ebp], 256			; 00000100H
	jae	SHORT $LN74@ConstructO
	jmp	SHORT $LN75@ConstructO
$LN74@ConstructO:
	call	___report_rangecheckfailure
$LN75@ConstructO:
	mov	eax, DWORD PTR $T2[ebp]
	mov	BYTE PTR _argstring$[ebp+eax], 0

; 1349 : 
; 1350 : 			// Check for an artical, country name, description or Location
; 1351 : 			if (format[index] == 'A' || format[index] == 'a')

	mov	ecx, DWORD PTR _index$[ebp]
	movsx	edx, BYTE PTR _format$[ebp+ecx]
	cmp	edx, 65					; 00000041H
	je	SHORT $LN67@ConstructO
	mov	eax, DWORD PTR _index$[ebp]
	movsx	ecx, BYTE PTR _format$[ebp+eax]
	cmp	ecx, 97					; 00000061H
	jne	$LN68@ConstructO
$LN67@ConstructO:

; 1352 : 				{
; 1353 : 				if (format[index] == 'A')

	mov	edx, DWORD PTR _index$[ebp]
	movsx	eax, BYTE PTR _format$[ebp+edx]
	cmp	eax, 65					; 00000041H
	jne	SHORT $LN66@ConstructO

; 1354 : 					to_upper = 1;

	mov	DWORD PTR _to_upper$[ebp], 1
$LN66@ConstructO:

; 1355 : 				index++;

	mov	ecx, DWORD PTR _index$[ebp]
	add	ecx, 1
	mov	DWORD PTR _index$[ebp], ecx

; 1356 : 				// Check for Gender
; 1357 : 				if (format[index] == 'm' || format[index] == 'M')

	mov	edx, DWORD PTR _index$[ebp]
	movsx	eax, BYTE PTR _format$[ebp+edx]
	cmp	eax, 109				; 0000006dH
	je	SHORT $LN64@ConstructO
	mov	ecx, DWORD PTR _index$[ebp]
	movsx	edx, BYTE PTR _format$[ebp+ecx]
	cmp	edx, 77					; 0000004dH
	jne	SHORT $LN65@ConstructO
$LN64@ConstructO:

; 1358 : 					{
; 1359 : 					if (format[index] == 'M')

	mov	eax, DWORD PTR _index$[ebp]
	movsx	ecx, BYTE PTR _format$[ebp+eax]
	cmp	ecx, 77					; 0000004dH
	jne	SHORT $LN63@ConstructO

; 1360 : 						plural = 1;

	mov	DWORD PTR _plural$[ebp], 1
$LN63@ConstructO:

; 1361 : 					index++;

	mov	edx, DWORD PTR _index$[ebp]
	add	edx, 1
	mov	DWORD PTR _index$[ebp], edx

; 1362 : 					gender = F4LANG_MASCULINE;

	mov	DWORD PTR _gender$[ebp], 0
	jmp	$LN62@ConstructO
$LN65@ConstructO:

; 1363 : 					}
; 1364 : 				else if (format[index] == 'f' || format[index] == 'F')

	mov	eax, DWORD PTR _index$[ebp]
	movsx	ecx, BYTE PTR _format$[ebp+eax]
	cmp	ecx, 102				; 00000066H
	je	SHORT $LN60@ConstructO
	mov	edx, DWORD PTR _index$[ebp]
	movsx	eax, BYTE PTR _format$[ebp+edx]
	cmp	eax, 70					; 00000046H
	jne	SHORT $LN61@ConstructO
$LN60@ConstructO:

; 1365 : 					{
; 1366 : 					if (format[index] == 'F')

	mov	ecx, DWORD PTR _index$[ebp]
	movsx	edx, BYTE PTR _format$[ebp+ecx]
	cmp	edx, 70					; 00000046H
	jne	SHORT $LN59@ConstructO

; 1367 : 						plural = 1;

	mov	DWORD PTR _plural$[ebp], 1
$LN59@ConstructO:

; 1368 : 					index++;

	mov	eax, DWORD PTR _index$[ebp]
	add	eax, 1
	mov	DWORD PTR _index$[ebp], eax

; 1369 : 					gender = F4LANG_FEMININE;

	mov	DWORD PTR _gender$[ebp], 1
	jmp	SHORT $LN62@ConstructO
$LN61@ConstructO:

; 1370 : 					}
; 1371 : 				else if (format[index] == 'n' || format[index] == 'N')

	mov	ecx, DWORD PTR _index$[ebp]
	movsx	edx, BYTE PTR _format$[ebp+ecx]
	cmp	edx, 110				; 0000006eH
	je	SHORT $LN56@ConstructO
	mov	eax, DWORD PTR _index$[ebp]
	movsx	ecx, BYTE PTR _format$[ebp+eax]
	cmp	ecx, 78					; 0000004eH
	jne	SHORT $LN62@ConstructO
$LN56@ConstructO:

; 1372 : 					{
; 1373 : 					if (format[index] == 'N')

	mov	edx, DWORD PTR _index$[ebp]
	movsx	eax, BYTE PTR _format$[ebp+edx]
	cmp	eax, 78					; 0000004eH
	jne	SHORT $LN55@ConstructO

; 1374 : 						plural = 1;

	mov	DWORD PTR _plural$[ebp], 1
$LN55@ConstructO:

; 1375 : 					index++;

	mov	ecx, DWORD PTR _index$[ebp]
	add	ecx, 1
	mov	DWORD PTR _index$[ebp], ecx

; 1376 : 					gender = F4LANG_NEUTER;

	mov	DWORD PTR _gender$[ebp], 2
$LN62@ConstructO:

; 1377 : 					}
; 1378 : 				// Check for Usage
; 1379 : 				if (format[index] == 'O')

	mov	edx, DWORD PTR _index$[ebp]
	movsx	eax, BYTE PTR _format$[ebp+edx]
	cmp	eax, 79					; 0000004fH
	jne	SHORT $LN54@ConstructO

; 1380 : 					{
; 1381 : 					index++;

	mov	ecx, DWORD PTR _index$[ebp]
	add	ecx, 1
	mov	DWORD PTR _index$[ebp], ecx

; 1382 : 					usage = 1;

	mov	DWORD PTR _usage$[ebp], 1
	jmp	SHORT $LN53@ConstructO
$LN54@ConstructO:

; 1383 : 					}
; 1384 : 				// Check for Usage
; 1385 : 				else if (format[index] == 'o')

	mov	edx, DWORD PTR _index$[ebp]
	movsx	eax, BYTE PTR _format$[ebp+edx]
	cmp	eax, 111				; 0000006fH
	jne	SHORT $LN53@ConstructO

; 1386 : 					{
; 1387 : 					index++;

	mov	ecx, DWORD PTR _index$[ebp]
	add	ecx, 1
	mov	DWORD PTR _index$[ebp], ecx

; 1388 : 					usage = 2;

	mov	DWORD PTR _usage$[ebp], 2
$LN53@ConstructO:

; 1389 : 					}
; 1390 : 				// Now find which item it refers to
; 1391 : 				if (gender < 0)

	cmp	DWORD PTR _gender$[ebp], 0
	jge	$LN51@ConstructO

; 1392 : 					{
; 1393 : 					// Find the entity
; 1394 : 					ShiAssert(format[index] == '0' || format[index] == '1');
; 1395 : 					entity = (CampEntity) vuDatabase->Find(data->vuIds[format[index] - '0']);

	mov	edx, DWORD PTR _index$[ebp]
	movsx	eax, BYTE PTR _format$[ebp+edx]
	mov	ecx, DWORD PTR _data$[ebp]
	mov	edx, DWORD PTR [ecx+eax*8-372]
	push	edx
	mov	eax, DWORD PTR [ecx+eax*8-376]
	push	eax
	mov	ecx, DWORD PTR ?vuDatabase@@3PAVVuDatabase@@A ; vuDatabase
	call	?Find@VuDatabase@@QBEPAVVuEntity@@VVU_ID@@@Z ; VuDatabase::Find
	mov	DWORD PTR _entity$[ebp], eax

; 1396 : 					// Check for force to division
; 1397 : 					_TCHAR	*sptr = strstr(format,"#DD");

	push	OFFSET ??_C@_03IPLKIPCO@?$CDDD?$AA@
	lea	ecx, DWORD PTR _format$[ebp]
	push	ecx
	call	?strstr@@YAPADPADPBD@Z			; strstr
	add	esp, 8
	mov	DWORD PTR _sptr$3[ebp], eax

; 1398 : 					int		div = 0;

	mov	DWORD PTR _div$1[ebp], 0

; 1399 : 					if (sptr && sptr[3] == format[index])

	cmp	DWORD PTR _sptr$3[ebp], 0
	je	SHORT $LN50@ConstructO
	mov	edx, 1
	imul	edx, 3
	mov	eax, DWORD PTR _sptr$3[ebp]
	movsx	ecx, BYTE PTR [eax+edx]
	mov	edx, DWORD PTR _index$[ebp]
	movsx	eax, BYTE PTR _format$[ebp+edx]
	cmp	ecx, eax
	jne	SHORT $LN50@ConstructO

; 1400 : 						div = 1;

	mov	DWORD PTR _div$1[ebp], 1
$LN50@ConstructO:

; 1401 : 					gender = GetGender(entity, div);

	mov	ecx, DWORD PTR _div$1[ebp]
	push	ecx
	mov	edx, DWORD PTR _entity$[ebp]
	push	edx
	call	?GetGender@@YAHPAVCampBaseClass@@H@Z	; GetGender
	add	esp, 8
	mov	DWORD PTR _gender$[ebp], eax
$LN51@ConstructO:

; 1402 : 					}
; 1403 : 				// Find the artical
; 1404 : 				stridx = 3800 + 6*usage + 3*plural + gender;

	mov	eax, DWORD PTR _usage$[ebp]
	imul	eax, 6
	mov	ecx, DWORD PTR _plural$[ebp]
	imul	ecx, 3
	add	eax, DWORD PTR _gender$[ebp]
	lea	edx, DWORD PTR [ecx+eax+3800]
	mov	DWORD PTR _stridx$[ebp], edx

; 1405 : 				AddIndexedStringToBuffer(stridx, argstring);

	lea	eax, DWORD PTR _argstring$[ebp]
	push	eax
	mov	ecx, DWORD PTR _stridx$[ebp]
	push	ecx
	call	?AddIndexedStringToBuffer@@YAXHPAD@Z	; AddIndexedStringToBuffer
	add	esp, 8

; 1406 : 				if (to_upper && _istlower(argstring[0]))

	cmp	DWORD PTR _to_upper$[ebp], 0
	je	SHORT $LN49@ConstructO
	mov	edx, 1
	imul	edx, 0
	movsx	eax, BYTE PTR _argstring$[ebp+edx]
	push	eax
	call	__ismbclower
	add	esp, 4
	test	eax, eax
	je	SHORT $LN49@ConstructO

; 1407 : 					argstring[0] = _toupper(argstring[0]);

	mov	ecx, 1
	imul	ecx, 0
	movsx	edx, BYTE PTR _argstring$[ebp+ecx]
	sub	edx, 32					; 00000020H
	mov	eax, 1
	imul	eax, 0
	mov	BYTE PTR _argstring$[ebp+eax], dl
$LN49@ConstructO:

; 1408 : 				}

	jmp	$LN48@ConstructO
$LN68@ConstructO:

; 1409 : 			else if (format[index] == 'C' || format[index] == 'c')

	mov	ecx, DWORD PTR _index$[ebp]
	movsx	edx, BYTE PTR _format$[ebp+ecx]
	cmp	edx, 67					; 00000043H
	je	SHORT $LN46@ConstructO
	mov	eax, DWORD PTR _index$[ebp]
	movsx	ecx, BYTE PTR _format$[ebp+eax]
	cmp	ecx, 99					; 00000063H
	jne	$LN47@ConstructO
$LN46@ConstructO:

; 1410 : 				{
; 1411 : 				if (format[index] == 'C')

	mov	edx, DWORD PTR _index$[ebp]
	movsx	eax, BYTE PTR _format$[ebp+edx]
	cmp	eax, 67					; 00000043H
	jne	SHORT $LN45@ConstructO

; 1412 : 					to_upper = 1;

	mov	DWORD PTR _to_upper$[ebp], 1
$LN45@ConstructO:

; 1413 : 				index++;

	mov	ecx, DWORD PTR _index$[ebp]
	add	ecx, 1
	mov	DWORD PTR _index$[ebp], ecx

; 1414 : 				// Check for Gender
; 1415 : 				if (format[index] == 'm' || format[index] == 'M')

	mov	edx, DWORD PTR _index$[ebp]
	movsx	eax, BYTE PTR _format$[ebp+edx]
	cmp	eax, 109				; 0000006dH
	je	SHORT $LN43@ConstructO
	mov	ecx, DWORD PTR _index$[ebp]
	movsx	edx, BYTE PTR _format$[ebp+ecx]
	cmp	edx, 77					; 0000004dH
	jne	SHORT $LN44@ConstructO
$LN43@ConstructO:

; 1416 : 					{
; 1417 : 					if (format[index] == 'M')

	mov	eax, DWORD PTR _index$[ebp]
	movsx	ecx, BYTE PTR _format$[ebp+eax]
	cmp	ecx, 77					; 0000004dH
	jne	SHORT $LN42@ConstructO

; 1418 : 						plural = 1;

	mov	DWORD PTR _plural$[ebp], 1
$LN42@ConstructO:

; 1419 : 					index++;

	mov	edx, DWORD PTR _index$[ebp]
	add	edx, 1
	mov	DWORD PTR _index$[ebp], edx

; 1420 : 					gender = F4LANG_MASCULINE;

	mov	DWORD PTR _gender$[ebp], 0
	jmp	$LN41@ConstructO
$LN44@ConstructO:

; 1421 : 					}
; 1422 : 				else if (format[index] == 'f' || format[index] == 'F')

	mov	eax, DWORD PTR _index$[ebp]
	movsx	ecx, BYTE PTR _format$[ebp+eax]
	cmp	ecx, 102				; 00000066H
	je	SHORT $LN39@ConstructO
	mov	edx, DWORD PTR _index$[ebp]
	movsx	eax, BYTE PTR _format$[ebp+edx]
	cmp	eax, 70					; 00000046H
	jne	SHORT $LN40@ConstructO
$LN39@ConstructO:

; 1423 : 					{
; 1424 : 					if (format[index] == 'F')

	mov	ecx, DWORD PTR _index$[ebp]
	movsx	edx, BYTE PTR _format$[ebp+ecx]
	cmp	edx, 70					; 00000046H
	jne	SHORT $LN38@ConstructO

; 1425 : 						plural = 1;

	mov	DWORD PTR _plural$[ebp], 1
$LN38@ConstructO:

; 1426 : 					index++;

	mov	eax, DWORD PTR _index$[ebp]
	add	eax, 1
	mov	DWORD PTR _index$[ebp], eax

; 1427 : 					gender = F4LANG_FEMININE;

	mov	DWORD PTR _gender$[ebp], 1
	jmp	SHORT $LN41@ConstructO
$LN40@ConstructO:

; 1428 : 					}
; 1429 : 				else if (format[index] == 'n' || format[index] == 'N')

	mov	ecx, DWORD PTR _index$[ebp]
	movsx	edx, BYTE PTR _format$[ebp+ecx]
	cmp	edx, 110				; 0000006eH
	je	SHORT $LN35@ConstructO
	mov	eax, DWORD PTR _index$[ebp]
	movsx	ecx, BYTE PTR _format$[ebp+eax]
	cmp	ecx, 78					; 0000004eH
	jne	SHORT $LN41@ConstructO
$LN35@ConstructO:

; 1430 : 					{
; 1431 : 					if (format[index] == 'N')

	mov	edx, DWORD PTR _index$[ebp]
	movsx	eax, BYTE PTR _format$[ebp+edx]
	cmp	eax, 78					; 0000004eH
	jne	SHORT $LN34@ConstructO

; 1432 : 						plural = 1;

	mov	DWORD PTR _plural$[ebp], 1
$LN34@ConstructO:

; 1433 : 					index++;

	mov	ecx, DWORD PTR _index$[ebp]
	add	ecx, 1
	mov	DWORD PTR _index$[ebp], ecx

; 1434 : 					gender = F4LANG_NEUTER;

	mov	DWORD PTR _gender$[ebp], 2
$LN41@ConstructO:

; 1435 : 					}
; 1436 : 				// Check for Usage
; 1437 : 				if (format[index] == 'O')

	mov	edx, DWORD PTR _index$[ebp]
	movsx	eax, BYTE PTR _format$[ebp+edx]
	cmp	eax, 79					; 0000004fH
	jne	SHORT $LN33@ConstructO

; 1438 : 					{
; 1439 : 					index++;

	mov	ecx, DWORD PTR _index$[ebp]
	add	ecx, 1
	mov	DWORD PTR _index$[ebp], ecx

; 1440 : 					usage = 1;

	mov	DWORD PTR _usage$[ebp], 1
	jmp	SHORT $LN32@ConstructO
$LN33@ConstructO:

; 1441 : 					}
; 1442 : 				else if (format[index] == 'o')

	mov	edx, DWORD PTR _index$[ebp]
	movsx	eax, BYTE PTR _format$[ebp+edx]
	cmp	eax, 111				; 0000006fH
	jne	SHORT $LN32@ConstructO

; 1443 : 					{
; 1444 : 					index++;

	mov	ecx, DWORD PTR _index$[ebp]
	add	ecx, 1
	mov	DWORD PTR _index$[ebp], ecx

; 1445 : 					usage = 2;

	mov	DWORD PTR _usage$[ebp], 2
$LN32@ConstructO:

; 1446 : 					}
; 1447 : 				// Now find which item it refers to
; 1448 : 				if (gender < 0)

	cmp	DWORD PTR _gender$[ebp], 0
	jge	$LN30@ConstructO

; 1449 : 					{
; 1450 : 					// Find the entity
; 1451 : 					ShiAssert(format[index] == '0' || format[index] == '1');
; 1452 : 					entity = (CampEntity) vuDatabase->Find(data->vuIds[format[index] - '0']);

	mov	edx, DWORD PTR _index$[ebp]
	movsx	eax, BYTE PTR _format$[ebp+edx]
	mov	ecx, DWORD PTR _data$[ebp]
	mov	edx, DWORD PTR [ecx+eax*8-372]
	push	edx
	mov	eax, DWORD PTR [ecx+eax*8-376]
	push	eax
	mov	ecx, DWORD PTR ?vuDatabase@@3PAVVuDatabase@@A ; vuDatabase
	call	?Find@VuDatabase@@QBEPAVVuEntity@@VVU_ID@@@Z ; VuDatabase::Find
	mov	DWORD PTR _entity$[ebp], eax

; 1453 : 					// Check for force to division
; 1454 : 					_TCHAR	*sptr = strstr(format,"#DD");

	push	OFFSET ??_C@_03IPLKIPCO@?$CDDD?$AA@
	lea	ecx, DWORD PTR _format$[ebp]
	push	ecx
	call	?strstr@@YAPADPADPBD@Z			; strstr
	add	esp, 8
	mov	DWORD PTR _sptr$4[ebp], eax

; 1455 : 					int		div = 0;

	mov	DWORD PTR _div$6[ebp], 0

; 1456 : 					if (sptr && sptr[3] == format[index])

	cmp	DWORD PTR _sptr$4[ebp], 0
	je	SHORT $LN29@ConstructO
	mov	edx, 1
	imul	edx, 3
	mov	eax, DWORD PTR _sptr$4[ebp]
	movsx	ecx, BYTE PTR [eax+edx]
	mov	edx, DWORD PTR _index$[ebp]
	movsx	eax, BYTE PTR _format$[ebp+edx]
	cmp	ecx, eax
	jne	SHORT $LN29@ConstructO

; 1457 : 						div = 1;

	mov	DWORD PTR _div$6[ebp], 1
$LN29@ConstructO:

; 1458 : 					gender = 0;

	mov	DWORD PTR _gender$[ebp], 0

; 1459 : 					if (entity)

	cmp	DWORD PTR _entity$[ebp], 0
	je	SHORT $LN30@ConstructO

; 1460 : 						gender = GetGender(entity, div);

	mov	ecx, DWORD PTR _div$6[ebp]
	push	ecx
	mov	edx, DWORD PTR _entity$[ebp]
	push	edx
	call	?GetGender@@YAHPAVCampBaseClass@@H@Z	; GetGender
	add	esp, 8
	mov	DWORD PTR _gender$[ebp], eax
$LN30@ConstructO:

; 1461 : 					}
; 1462 : 				ShiAssert(format[index] == '0' || format[index] == '1');
; 1463 : 				// Find the adjective
; 1464 : 				stridx = ConvertTeamToStringIndex(data->owners[format[index] - '0'], gender, usage, plural);

	mov	eax, DWORD PTR _plural$[ebp]
	push	eax
	mov	ecx, DWORD PTR _usage$[ebp]
	push	ecx
	mov	edx, DWORD PTR _gender$[ebp]
	push	edx
	mov	eax, DWORD PTR _index$[ebp]
	movsx	ecx, BYTE PTR _format$[ebp+eax]
	mov	edx, DWORD PTR _data$[ebp]
	movsx	eax, WORD PTR [edx+ecx*2-72]
	push	eax
	call	?ConvertTeamToStringIndex@@YAHHHHH@Z	; ConvertTeamToStringIndex
	add	esp, 16					; 00000010H
	mov	DWORD PTR _stridx$[ebp], eax

; 1465 : //				stridx = 3820 + 20*data->owners[format[index] - '0'] + 6*usage + 3*plural + gender;
; 1466 : 				AddIndexedStringToBuffer(stridx, argstring);

	lea	ecx, DWORD PTR _argstring$[ebp]
	push	ecx
	mov	edx, DWORD PTR _stridx$[ebp]
	push	edx
	call	?AddIndexedStringToBuffer@@YAXHPAD@Z	; AddIndexedStringToBuffer
	add	esp, 8

; 1467 : 				if (to_upper && _istlower(argstring[0]))

	cmp	DWORD PTR _to_upper$[ebp], 0
	je	SHORT $LN27@ConstructO
	mov	eax, 1
	imul	eax, 0
	movsx	ecx, BYTE PTR _argstring$[ebp+eax]
	push	ecx
	call	__ismbclower
	add	esp, 4
	test	eax, eax
	je	SHORT $LN27@ConstructO

; 1468 : 					argstring[0] = _toupper(argstring[0]);

	mov	edx, 1
	imul	edx, 0
	movsx	eax, BYTE PTR _argstring$[ebp+edx]
	sub	eax, 32					; 00000020H
	mov	ecx, 1
	imul	ecx, 0
	mov	BYTE PTR _argstring$[ebp+ecx], al
$LN27@ConstructO:

; 1469 : 				}

	jmp	$LN48@ConstructO
$LN47@ConstructO:

; 1470 : 			else if (format[index] == 'D')

	mov	edx, DWORD PTR _index$[ebp]
	movsx	eax, BYTE PTR _format$[ebp+edx]
	cmp	eax, 68					; 00000044H
	jne	$LN25@ConstructO

; 1471 : 				{
; 1472 : 				index++;

	mov	ecx, DWORD PTR _index$[ebp]
	add	ecx, 1
	mov	DWORD PTR _index$[ebp], ecx

; 1473 : 				// Check for description type
; 1474 : 				ShiAssert (format[index] == 'D' || format[index] == 'F' || format[index] == 'B');
; 1475 : 				mode = format[index];

	mov	edx, DWORD PTR _index$[ebp]
	movsx	eax, BYTE PTR _format$[ebp+edx]
	mov	DWORD PTR _mode$[ebp], eax

; 1476 : 				index++;

	mov	ecx, DWORD PTR _index$[ebp]
	add	ecx, 1
	mov	DWORD PTR _index$[ebp], ecx

; 1477 : 				// Check for Usage
; 1478 : 				if (format[index] == 'O')

	mov	edx, DWORD PTR _index$[ebp]
	movsx	eax, BYTE PTR _format$[ebp+edx]
	cmp	eax, 79					; 0000004fH
	jne	SHORT $LN24@ConstructO

; 1479 : 					{
; 1480 : 					index++;

	mov	ecx, DWORD PTR _index$[ebp]
	add	ecx, 1
	mov	DWORD PTR _index$[ebp], ecx

; 1481 : 					usage = 1;

	mov	DWORD PTR _usage$[ebp], 1
	jmp	SHORT $LN23@ConstructO
$LN24@ConstructO:

; 1482 : 					}
; 1483 : 				else if (format[index] == 'o')

	mov	edx, DWORD PTR _index$[ebp]
	movsx	eax, BYTE PTR _format$[ebp+edx]
	cmp	eax, 111				; 0000006fH
	jne	SHORT $LN23@ConstructO

; 1484 : 					{
; 1485 : 					index++;

	mov	ecx, DWORD PTR _index$[ebp]
	add	ecx, 1
	mov	DWORD PTR _index$[ebp], ecx

; 1486 : 					usage = 2;

	mov	DWORD PTR _usage$[ebp], 2
$LN23@ConstructO:

; 1487 : 					}
; 1488 : 				// Find the entity
; 1489 : 				ShiAssert(format[index] == '0' || format[index] == '1');
; 1490 : 				entity = (CampEntity) vuDatabase->Find(data->vuIds[format[index] - '0']);

	mov	edx, DWORD PTR _index$[ebp]
	movsx	eax, BYTE PTR _format$[ebp+edx]
	mov	ecx, DWORD PTR _data$[ebp]
	mov	edx, DWORD PTR [ecx+eax*8-372]
	push	edx
	mov	eax, DWORD PTR [ecx+eax*8-376]
	push	eax
	mov	ecx, DWORD PTR ?vuDatabase@@3PAVVuDatabase@@A ; vuDatabase
	call	?Find@VuDatabase@@QBEPAVVuEntity@@VVU_ID@@@Z ; VuDatabase::Find
	mov	DWORD PTR _entity$[ebp], eax

; 1491 : 				if (entity)

	cmp	DWORD PTR _entity$[ebp], 0
	je	$LN21@ConstructO

; 1492 : 					{
; 1493 : 					switch (mode)

	mov	ecx, DWORD PTR _mode$[ebp]
	mov	DWORD PTR tv386[ebp], ecx
	cmp	DWORD PTR tv386[ebp], 68		; 00000044H
	je	SHORT $LN18@ConstructO
	cmp	DWORD PTR tv386[ebp], 70		; 00000046H
	je	SHORT $LN17@ConstructO
	cmp	DWORD PTR tv386[ebp], 80		; 00000050H
	je	SHORT $LN16@ConstructO
	jmp	$LN13@ConstructO
$LN18@ConstructO:

; 1494 : 						{
; 1495 : 						case 'D':
; 1496 : 							entity->GetDivisionName(argstring,MAX_STRLEN_PER_TOKEN,usage);

	mov	edx, DWORD PTR _usage$[ebp]
	push	edx
	push	256					; 00000100H
	lea	eax, DWORD PTR _argstring$[ebp]
	push	eax
	mov	ecx, DWORD PTR _entity$[ebp]
	mov	edx, DWORD PTR [ecx]
	mov	ecx, DWORD PTR _entity$[ebp]
	mov	eax, DWORD PTR [edx+388]
	call	eax

; 1497 : 							break;

	jmp	$LN21@ConstructO
$LN17@ConstructO:

; 1498 : 						case 'F':
; 1499 : 							entity->GetFullName(argstring,MAX_STRLEN_PER_TOKEN,usage);

	mov	ecx, DWORD PTR _usage$[ebp]
	push	ecx
	push	256					; 00000100H
	lea	edx, DWORD PTR _argstring$[ebp]
	push	edx
	mov	eax, DWORD PTR _entity$[ebp]
	mov	edx, DWORD PTR [eax]
	mov	ecx, DWORD PTR _entity$[ebp]
	mov	eax, DWORD PTR [edx+384]
	call	eax

; 1500 : 							break;

	jmp	$LN21@ConstructO
$LN16@ConstructO:

; 1501 : 						case 'P':
; 1502 : 							entity->GetName(argstring,MAX_STRLEN_PER_TOKEN,usage);

	mov	ecx, DWORD PTR _usage$[ebp]
	push	ecx
	push	256					; 00000100H
	lea	edx, DWORD PTR _argstring$[ebp]
	push	edx
	mov	eax, DWORD PTR _entity$[ebp]
	mov	edx, DWORD PTR [eax]
	mov	ecx, DWORD PTR _entity$[ebp]
	mov	eax, DWORD PTR [edx+380]
	call	eax

; 1503 : 							if (entity->IsUnit())

	mov	ecx, DWORD PTR _entity$[ebp]
	mov	edx, DWORD PTR [ecx]
	mov	ecx, DWORD PTR _entity$[ebp]
	mov	eax, DWORD PTR [edx+232]
	call	eax
	test	eax, eax
	je	SHORT $LN15@ConstructO

; 1504 : 								{
; 1505 : 								entity = ((Unit)entity)->GetUnitParent();

	mov	ecx, DWORD PTR _entity$[ebp]
	mov	edx, DWORD PTR [ecx]
	mov	ecx, DWORD PTR _entity$[ebp]
	mov	eax, DWORD PTR [edx+944]
	call	eax
	mov	DWORD PTR _entity$[ebp], eax

; 1506 : 								if (entity)

	cmp	DWORD PTR _entity$[ebp], 0
	je	SHORT $LN15@ConstructO

; 1507 : 									entity->GetName(argstring,MAX_STRLEN_PER_TOKEN,usage);

	mov	ecx, DWORD PTR _usage$[ebp]
	push	ecx
	push	256					; 00000100H
	lea	edx, DWORD PTR _argstring$[ebp]
	push	edx
	mov	eax, DWORD PTR _entity$[ebp]
	mov	edx, DWORD PTR [eax]
	mov	ecx, DWORD PTR _entity$[ebp]
	mov	eax, DWORD PTR [edx+380]
	call	eax
$LN15@ConstructO:

; 1508 : 								}
; 1509 : 							break;

	jmp	SHORT $LN21@ConstructO
$LN13@ConstructO:

; 1510 : 						default:
; 1511 : 							entity->GetName(argstring,MAX_STRLEN_PER_TOKEN,usage);

	mov	ecx, DWORD PTR _usage$[ebp]
	push	ecx
	push	256					; 00000100H
	lea	edx, DWORD PTR _argstring$[ebp]
	push	edx
	mov	eax, DWORD PTR _entity$[ebp]
	mov	edx, DWORD PTR [eax]
	mov	ecx, DWORD PTR _entity$[ebp]
	mov	eax, DWORD PTR [edx+380]
	call	eax
$LN21@ConstructO:

; 1512 : 							break;
; 1513 : 						}
; 1514 : 					}
; 1515 : 				// Hack for sentance beginnings
; 1516 : 				if (string[0] == 0 && _istlower(argstring[0]))

	mov	ecx, 1
	imul	ecx, 0
	mov	edx, DWORD PTR _string$[ebp]
	movsx	eax, BYTE PTR [edx+ecx]
	test	eax, eax
	jne	SHORT $LN12@ConstructO
	mov	ecx, 1
	imul	ecx, 0
	movsx	edx, BYTE PTR _argstring$[ebp+ecx]
	push	edx
	call	__ismbclower
	add	esp, 4
	test	eax, eax
	je	SHORT $LN12@ConstructO

; 1517 : 					argstring[0] = _toupper(argstring[0]);

	mov	eax, 1
	imul	eax, 0
	movsx	ecx, BYTE PTR _argstring$[ebp+eax]
	sub	ecx, 32					; 00000020H
	mov	edx, 1
	imul	edx, 0
	mov	BYTE PTR _argstring$[ebp+edx], cl
$LN12@ConstructO:

; 1518 : 				}

	jmp	$LN48@ConstructO
$LN25@ConstructO:

; 1519 : 			else if (format[index] == 'L')

	mov	eax, DWORD PTR _index$[ebp]
	movsx	ecx, BYTE PTR _format$[ebp+eax]
	cmp	ecx, 76					; 0000004cH
	jne	SHORT $LN10@ConstructO

; 1520 : 				{
; 1521 : 				// add a location
; 1522 : 				index++;

	mov	edx, DWORD PTR _index$[ebp]
	add	edx, 1
	mov	DWORD PTR _index$[ebp], edx

; 1523 : 				ShiAssert (format[index] == 'N' || format[index] == 'T' || format[index] == 'S' || format[index] == 'G' || format[index] == 'n' || format[index] == 't' || format[index] == 's' || format[index] == 'g' || format[index] == 'E' || format[index] == 'e');
; 1524 : 				AddLocationToBuffer(format[index],data->xLoc,data->yLoc,argstring);

	lea	eax, DWORD PTR _argstring$[ebp]
	push	eax
	mov	ecx, DWORD PTR _data$[ebp]
	movzx	edx, WORD PTR [ecx+4]
	push	edx
	mov	eax, DWORD PTR _data$[ebp]
	movzx	ecx, WORD PTR [eax+2]
	push	ecx
	mov	edx, DWORD PTR _index$[ebp]
	movzx	eax, BYTE PTR _format$[ebp+edx]
	push	eax
	call	?AddLocationToBuffer@@YAXDFFPAD@Z	; AddLocationToBuffer
	add	esp, 16					; 00000010H
	jmp	$LN48@ConstructO
$LN10@ConstructO:

; 1525 : 				}
; 1526 : 			else if (format[index] == 'I')

	mov	ecx, DWORD PTR _index$[ebp]
	movsx	edx, BYTE PTR _format$[ebp+ecx]
	cmp	edx, 73					; 00000049H
	jne	$LN8@ConstructO

; 1527 : 				{
; 1528 : 				// Indexed replacement
; 1529 : 				index++;

	mov	eax, DWORD PTR _index$[ebp]
	add	eax, 1
	mov	DWORD PTR _index$[ebp], eax

; 1530 : 				if (data->textIds[format[index] - '0'] < 0)

	mov	ecx, DWORD PTR _index$[ebp]
	movsx	edx, BYTE PTR _format$[ebp+ecx]
	mov	eax, DWORD PTR _data$[ebp]
	movsx	ecx, WORD PTR [eax+edx*2-68]
	test	ecx, ecx
	jge	SHORT $LN7@ConstructO

; 1531 : 					{
; 1532 : 					VehicleClassDataType	*vc;
; 1533 : 					vc = GetVehicleClassData(-1 * data->textIds[format[index] - '0']);

	mov	edx, DWORD PTR _index$[ebp]
	movsx	eax, BYTE PTR _format$[ebp+edx]
	mov	ecx, DWORD PTR _data$[ebp]
	movsx	edx, WORD PTR [ecx+eax*2-68]
	imul	edx, -1
	push	edx
	call	?GetVehicleClassData@@YAPAUVehicleClassDataType@@H@Z ; GetVehicleClassData
	add	esp, 4
	mov	DWORD PTR _vc$7[ebp], eax

; 1534 : 					ShiAssert(vc != NULL);
; 1535 : 					_stprintf(argstring,vc?vc->Name : "<unk>");

	cmp	DWORD PTR _vc$7[ebp], 0
	je	SHORT $LN76@ConstructO
	mov	eax, DWORD PTR _vc$7[ebp]
	add	eax, 8
	mov	DWORD PTR tv501[ebp], eax
	jmp	SHORT $LN77@ConstructO
$LN76@ConstructO:
	mov	DWORD PTR tv501[ebp], OFFSET ??_C@_05NCAJEJLJ@?$DMunk?$DO?$AA@
$LN77@ConstructO:
	mov	ecx, DWORD PTR tv501[ebp]
	push	ecx
	lea	edx, DWORD PTR _argstring$[ebp]
	push	edx
	call	_sprintf
	add	esp, 8

; 1536 : 					}
; 1537 : 				else

	jmp	SHORT $LN6@ConstructO
$LN7@ConstructO:

; 1538 : 					{
; 1539 : 					// read and add the numbered argument's string index
; 1540 : 					stridx = data->textIds[format[index] - '0'];

	mov	eax, DWORD PTR _index$[ebp]
	movsx	ecx, BYTE PTR _format$[ebp+eax]
	mov	edx, DWORD PTR _data$[ebp]
	movsx	eax, WORD PTR [edx+ecx*2-68]
	mov	DWORD PTR _stridx$[ebp], eax

; 1541 : 					AddIndexedStringToBuffer(stridx, argstring);

	lea	ecx, DWORD PTR _argstring$[ebp]
	push	ecx
	mov	edx, DWORD PTR _stridx$[ebp]
	push	edx
	call	?AddIndexedStringToBuffer@@YAXHPAD@Z	; AddIndexedStringToBuffer
	add	esp, 8
$LN6@ConstructO:

; 1542 : 					}
; 1543 : 				}
; 1544 : 			else

	jmp	SHORT $LN48@ConstructO
$LN8@ConstructO:

; 1545 : 				{
; 1546 : 				// Otherwise direct string substitution from argument list
; 1547 : 				int argnum = format[index] - '0';	// arg #

	mov	eax, DWORD PTR _index$[ebp]
	movsx	ecx, BYTE PTR _format$[ebp+eax]
	sub	ecx, 48					; 00000030H
	mov	DWORD PTR _argnum$8[ebp], ecx

; 1548 : 				va_start(params, data);			// Initialize variable arguments.

	lea	edx, DWORD PTR _data$[ebp+4]
	mov	DWORD PTR _params$[ebp], edx
$LN4@ConstructO:

; 1549 : 				while (argnum >= 0)

	cmp	DWORD PTR _argnum$8[ebp], 0
	jl	SHORT $LN3@ConstructO

; 1550 : 					{
; 1551 : 					sprintf(argstring,va_arg(params, _TCHAR*));

	mov	eax, DWORD PTR _params$[ebp]
	add	eax, 4
	mov	DWORD PTR _params$[ebp], eax
	mov	ecx, DWORD PTR _params$[ebp]
	mov	edx, DWORD PTR [ecx-4]
	push	edx
	lea	eax, DWORD PTR _argstring$[ebp]
	push	eax
	call	_sprintf
	add	esp, 8

; 1552 : 					argnum--;

	mov	ecx, DWORD PTR _argnum$8[ebp]
	sub	ecx, 1
	mov	DWORD PTR _argnum$8[ebp], ecx

; 1553 : 					}

	jmp	SHORT $LN4@ConstructO
$LN3@ConstructO:

; 1554 : 				va_end(params);						// Reset variable arguments.

	mov	DWORD PTR _params$[ebp], 0
$LN48@ConstructO:

; 1555 : 				}
; 1556 : 			// Check for buffer overflow
; 1557 : 			ShiAssert(static_cast<short>(size + _tcslen(argstring)) < maxsize);
; 1558 : 			size += _tcslen(argstring);

	lea	edx, DWORD PTR _argstring$[ebp]
	push	edx
	call	_strlen
	add	esp, 4
	add	eax, DWORD PTR _size$[ebp]
	mov	DWORD PTR _size$[ebp], eax

; 1559 : 			if (size > maxsize)

	movsx	eax, WORD PTR _maxsize$[ebp]
	cmp	DWORD PTR _size$[ebp], eax
	jle	SHORT $LN2@ConstructO

; 1560 : 				return;

	jmp	$LN73@ConstructO
$LN2@ConstructO:

; 1561 : 			_tcscat(string,argstring);

	lea	ecx, DWORD PTR _argstring$[ebp]
	push	ecx
	mov	edx, DWORD PTR _string$[ebp]
	push	edx
	call	_strcat
	add	esp, 8

; 1562 : 			}
; 1563 : 		else

	jmp	SHORT $LN1@ConstructO
$LN69@ConstructO:

; 1564 : 			{
; 1565 : 			// Add the character
; 1566 : 			addchar[0] = format[index];

	mov	eax, 1
	imul	eax, 0
	mov	ecx, DWORD PTR _index$[ebp]
	mov	dl, BYTE PTR _format$[ebp+ecx]
	mov	BYTE PTR _addchar$[ebp+eax], dl

; 1567 : 			addchar[1] = 0;

	mov	DWORD PTR $T5[ebp], 1
	cmp	DWORD PTR $T5[ebp], 2
	jae	SHORT $LN78@ConstructO
	jmp	SHORT $LN79@ConstructO
$LN78@ConstructO:
	call	___report_rangecheckfailure
$LN79@ConstructO:
	mov	eax, DWORD PTR $T5[ebp]
	mov	BYTE PTR _addchar$[ebp+eax], 0

; 1568 : 			_tcscat(string,addchar);

	lea	ecx, DWORD PTR _addchar$[ebp]
	push	ecx
	mov	edx, DWORD PTR _string$[ebp]
	push	edx
	call	_strcat
	add	esp, 8
$LN1@ConstructO:

; 1569 : 			}
; 1570 : 		index++;

	mov	eax, DWORD PTR _index$[ebp]
	add	eax, 1
	mov	DWORD PTR _index$[ebp], eax

; 1571 : 		}

	jmp	$LN71@ConstructO
$LN73@ConstructO:

; 1572 : 	}

	mov	ecx, DWORD PTR __$ArrayPad$[ebp]
	xor	ecx, ebp
	call	@__security_check_cookie@4
	mov	esp, ebp
	pop	ebp
	ret	0
?ConstructOrderedGenderedSentence@@YAXFPADPAVEventDataClass@@ZZ ENDP ; ConstructOrderedGenderedSentence
_TEXT	ENDS
; Function compile flags: /Odtp
; File c:\users\zhitao li\documents\visual studio 2012\projects\freefalcon\campaign\campui\brief.cpp
_TEXT	SEGMENT
_entity$ = 8						; size = 4
_div$ = 12						; size = 4
?GetGender@@YAHPAVCampBaseClass@@H@Z PROC		; GetGender

; 1268 : 	{

	push	ebp
	mov	ebp, esp

; 1269 : 	// Gender is hardcoded for now- no data exists
; 1270 : 	if (!entity || gLangIDNum < F4LANG_GERMAN)

	cmp	DWORD PTR _entity$[ebp], 0
	je	SHORT $LN38@GetGender
	cmp	DWORD PTR ?gLangIDNum@@3HA, 3		; gLangIDNum
	jge	SHORT $LN39@GetGender
$LN38@GetGender:

; 1271 : 		return F4LANG_MASCULINE;

	xor	eax, eax
	jmp	$LN40@GetGender
$LN39@GetGender:

; 1272 : 	if (div && (!entity->IsUnit() || !((Unit)entity)->GetUnitDivision()))

	cmp	DWORD PTR _div$[ebp], 0
	je	SHORT $LN37@GetGender
	mov	eax, DWORD PTR _entity$[ebp]
	mov	edx, DWORD PTR [eax]
	mov	ecx, DWORD PTR _entity$[ebp]
	mov	eax, DWORD PTR [edx+232]
	call	eax
	test	eax, eax
	je	SHORT $LN36@GetGender
	mov	ecx, DWORD PTR _entity$[ebp]
	mov	edx, DWORD PTR [ecx]
	mov	ecx, DWORD PTR _entity$[ebp]
	mov	eax, DWORD PTR [edx+904]
	call	eax
	test	eax, eax
	jne	SHORT $LN37@GetGender
$LN36@GetGender:

; 1273 : 		div = 0;

	mov	DWORD PTR _div$[ebp], 0
$LN37@GetGender:

; 1274 : 	if (gLangIDNum == F4LANG_GERMAN)

	cmp	DWORD PTR ?gLangIDNum@@3HA, 3		; gLangIDNum
	jne	SHORT $LN35@GetGender

; 1275 : 		{
; 1276 : 		if (div)

	cmp	DWORD PTR _div$[ebp], 0
	je	SHORT $LN34@GetGender

; 1277 : 			return F4LANG_FEMININE;

	mov	eax, 1
	jmp	$LN40@GetGender
	jmp	SHORT $LN33@GetGender
$LN34@GetGender:

; 1278 : 		else if (entity->IsBattalion())

	mov	ecx, DWORD PTR _entity$[ebp]
	mov	edx, DWORD PTR [ecx]
	mov	ecx, DWORD PTR _entity$[ebp]
	mov	eax, DWORD PTR [edx+240]
	call	eax
	test	eax, eax
	je	SHORT $LN32@GetGender

; 1279 : 			return F4LANG_NEUTER;

	mov	eax, 2
	jmp	$LN40@GetGender
	jmp	SHORT $LN33@GetGender
$LN32@GetGender:

; 1280 : 		else if (entity->IsFlight())

	mov	ecx, DWORD PTR _entity$[ebp]
	mov	edx, DWORD PTR [ecx]
	mov	ecx, DWORD PTR _entity$[ebp]
	mov	eax, DWORD PTR [edx+248]
	call	eax
	test	eax, eax
	je	SHORT $LN30@GetGender

; 1281 : 			return F4LANG_MASCULINE;

	xor	eax, eax
	jmp	$LN40@GetGender

; 1282 : 		else

	jmp	SHORT $LN33@GetGender
$LN30@GetGender:

; 1283 : 			return F4LANG_FEMININE;

	mov	eax, 1
	jmp	$LN40@GetGender
$LN33@GetGender:
	jmp	$LN28@GetGender
$LN35@GetGender:

; 1284 : 		}
; 1285 : 	else if (gLangIDNum == F4LANG_FRENCH)

	cmp	DWORD PTR ?gLangIDNum@@3HA, 4		; gLangIDNum
	jne	SHORT $LN27@GetGender

; 1286 : 		{
; 1287 : 		if (div)

	cmp	DWORD PTR _div$[ebp], 0
	je	SHORT $LN26@GetGender

; 1288 : 			return F4LANG_FEMININE;

	mov	eax, 1
	jmp	$LN40@GetGender
	jmp	SHORT $LN25@GetGender
$LN26@GetGender:

; 1289 : 		else if (entity->IsBattalion() || entity->IsSquadron() || entity->IsTaskForce())

	mov	ecx, DWORD PTR _entity$[ebp]
	mov	edx, DWORD PTR [ecx]
	mov	ecx, DWORD PTR _entity$[ebp]
	mov	eax, DWORD PTR [edx+240]
	call	eax
	test	eax, eax
	jne	SHORT $LN23@GetGender
	mov	ecx, DWORD PTR _entity$[ebp]
	mov	edx, DWORD PTR [ecx]
	mov	ecx, DWORD PTR _entity$[ebp]
	mov	eax, DWORD PTR [edx+252]
	call	eax
	test	eax, eax
	jne	SHORT $LN23@GetGender
	mov	ecx, DWORD PTR _entity$[ebp]
	mov	edx, DWORD PTR [ecx]
	mov	ecx, DWORD PTR _entity$[ebp]
	mov	eax, DWORD PTR [edx+264]
	call	eax
	test	eax, eax
	je	SHORT $LN24@GetGender
$LN23@GetGender:

; 1290 : 			return F4LANG_MASCULINE;

	xor	eax, eax
	jmp	$LN40@GetGender

; 1291 : 		else

	jmp	SHORT $LN25@GetGender
$LN24@GetGender:

; 1292 : 			return F4LANG_FEMININE;

	mov	eax, 1
	jmp	$LN40@GetGender
$LN25@GetGender:
	jmp	$LN28@GetGender
$LN27@GetGender:

; 1293 : 		}
; 1294 : 	else if (gLangIDNum == F4LANG_ITALIAN)

	cmp	DWORD PTR ?gLangIDNum@@3HA, 6		; gLangIDNum
	jne	SHORT $LN20@GetGender

; 1295 : 		{
; 1296 : 		if (div)

	cmp	DWORD PTR _div$[ebp], 0
	je	SHORT $LN19@GetGender

; 1297 : 			return F4LANG_FEMININE;

	mov	eax, 1
	jmp	$LN40@GetGender
	jmp	SHORT $LN18@GetGender
$LN19@GetGender:

; 1298 : 		else if (entity->IsBattalion() || entity->IsPackage())

	mov	ecx, DWORD PTR _entity$[ebp]
	mov	edx, DWORD PTR [ecx]
	mov	ecx, DWORD PTR _entity$[ebp]
	mov	eax, DWORD PTR [edx+240]
	call	eax
	test	eax, eax
	jne	SHORT $LN16@GetGender
	mov	ecx, DWORD PTR _entity$[ebp]
	mov	edx, DWORD PTR [ecx]
	mov	ecx, DWORD PTR _entity$[ebp]
	mov	eax, DWORD PTR [edx+256]
	call	eax
	test	eax, eax
	je	SHORT $LN17@GetGender
$LN16@GetGender:

; 1299 : 			return F4LANG_MASCULINE;

	xor	eax, eax
	jmp	$LN40@GetGender

; 1300 : 		else

	jmp	SHORT $LN18@GetGender
$LN17@GetGender:

; 1301 : 			return F4LANG_FEMININE;

	mov	eax, 1
	jmp	$LN40@GetGender
$LN18@GetGender:
	jmp	$LN28@GetGender
$LN20@GetGender:

; 1302 : 		}
; 1303 : 	else if (gLangIDNum == F4LANG_SPANISH)

	cmp	DWORD PTR ?gLangIDNum@@3HA, 5		; gLangIDNum
	jne	SHORT $LN13@GetGender

; 1304 : 		{
; 1305 : 		if (div)

	cmp	DWORD PTR _div$[ebp], 0
	je	SHORT $LN12@GetGender

; 1306 : 			return F4LANG_FEMININE;

	mov	eax, 1
	jmp	$LN40@GetGender
	jmp	SHORT $LN11@GetGender
$LN12@GetGender:

; 1307 : 		else if (entity->IsBattalion() || entity->IsFlight() || entity->IsSquadron())

	mov	ecx, DWORD PTR _entity$[ebp]
	mov	edx, DWORD PTR [ecx]
	mov	ecx, DWORD PTR _entity$[ebp]
	mov	eax, DWORD PTR [edx+240]
	call	eax
	test	eax, eax
	jne	SHORT $LN9@GetGender
	mov	ecx, DWORD PTR _entity$[ebp]
	mov	edx, DWORD PTR [ecx]
	mov	ecx, DWORD PTR _entity$[ebp]
	mov	eax, DWORD PTR [edx+248]
	call	eax
	test	eax, eax
	jne	SHORT $LN9@GetGender
	mov	ecx, DWORD PTR _entity$[ebp]
	mov	edx, DWORD PTR [ecx]
	mov	ecx, DWORD PTR _entity$[ebp]
	mov	eax, DWORD PTR [edx+252]
	call	eax
	test	eax, eax
	je	SHORT $LN10@GetGender
$LN9@GetGender:

; 1308 : 			return F4LANG_MASCULINE;

	xor	eax, eax
	jmp	SHORT $LN40@GetGender

; 1309 : 		else

	jmp	SHORT $LN11@GetGender
$LN10@GetGender:

; 1310 : 			return F4LANG_FEMININE;

	mov	eax, 1
	jmp	SHORT $LN40@GetGender
$LN11@GetGender:
	jmp	SHORT $LN28@GetGender
$LN13@GetGender:

; 1311 : 		}
; 1312 : 	else if (gLangIDNum == F4LANG_PORTUGESE)

	cmp	DWORD PTR ?gLangIDNum@@3HA, 7		; gLangIDNum
	jne	SHORT $LN28@GetGender

; 1313 : 		{
; 1314 : 		if (div)

	cmp	DWORD PTR _div$[ebp], 0
	je	SHORT $LN5@GetGender

; 1315 : 			return F4LANG_FEMININE;

	mov	eax, 1
	jmp	SHORT $LN40@GetGender
	jmp	SHORT $LN28@GetGender
$LN5@GetGender:

; 1316 : 		else if (entity->IsBattalion() || entity->IsPackage() || entity->IsSquadron())

	mov	ecx, DWORD PTR _entity$[ebp]
	mov	edx, DWORD PTR [ecx]
	mov	ecx, DWORD PTR _entity$[ebp]
	mov	eax, DWORD PTR [edx+240]
	call	eax
	test	eax, eax
	jne	SHORT $LN2@GetGender
	mov	ecx, DWORD PTR _entity$[ebp]
	mov	edx, DWORD PTR [ecx]
	mov	ecx, DWORD PTR _entity$[ebp]
	mov	eax, DWORD PTR [edx+256]
	call	eax
	test	eax, eax
	jne	SHORT $LN2@GetGender
	mov	ecx, DWORD PTR _entity$[ebp]
	mov	edx, DWORD PTR [ecx]
	mov	ecx, DWORD PTR _entity$[ebp]
	mov	eax, DWORD PTR [edx+252]
	call	eax
	test	eax, eax
	je	SHORT $LN3@GetGender
$LN2@GetGender:

; 1317 : 			return F4LANG_MASCULINE;

	xor	eax, eax
	jmp	SHORT $LN40@GetGender

; 1318 : 		else

	jmp	SHORT $LN28@GetGender
$LN3@GetGender:

; 1319 : 			return F4LANG_FEMININE;

	mov	eax, 1
	jmp	SHORT $LN40@GetGender
$LN28@GetGender:

; 1320 : 		}	
; 1321 : 	return F4LANG_MASCULINE;

	xor	eax, eax
$LN40@GetGender:

; 1322 : 	}

	pop	ebp
	ret	0
?GetGender@@YAHPAVCampBaseClass@@H@Z ENDP		; GetGender
_TEXT	ENDS
; Function compile flags: /Odtp
; File c:\users\zhitao li\documents\visual studio 2012\projects\freefalcon\campaign\campui\brief.cpp
_TEXT	SEGMENT
_dst$ = -8						; size = 4
_src$ = -4						; size = 4
_ptr$ = 8						; size = 4
_name$ = 12						; size = 4
_len$ = 16						; size = 4
?ReadMemToken@@YAPADPAPADQADH@Z PROC			; ReadMemToken

; 1196 : {

	push	ebp
	mov	ebp, esp
	sub	esp, 8

; 1197 : 	char
; 1198 : 		*src,
; 1199 : 		*dst;
; 1200 : 
; 1201 : 	src = *ptr;

	mov	eax, DWORD PTR _ptr$[ebp]
	mov	ecx, DWORD PTR [eax]
	mov	DWORD PTR _src$[ebp], ecx

; 1202 : 	dst = name;

	mov	edx, DWORD PTR _name$[ebp]
	mov	DWORD PTR _dst$[ebp], edx
$LN7@ReadMemTok:

; 1203 : 
; 1204 : 	while ((*src == '\n') || (*src == '\r'))

	mov	eax, DWORD PTR _src$[ebp]
	movsx	ecx, BYTE PTR [eax]
	cmp	ecx, 10					; 0000000aH
	je	SHORT $LN5@ReadMemTok
	mov	edx, DWORD PTR _src$[ebp]
	movsx	eax, BYTE PTR [edx]
	cmp	eax, 13					; 0000000dH
	jne	SHORT $LN4@ReadMemTok
$LN5@ReadMemTok:

; 1205 : 	{
; 1206 : 		*src ++;

	mov	ecx, DWORD PTR _src$[ebp]
	add	ecx, 1
	mov	DWORD PTR _src$[ebp], ecx

; 1207 : 	}

	jmp	SHORT $LN7@ReadMemTok
$LN4@ReadMemTok:

; 1208 : 
; 1209 : 	while ((len) && (*src))

	cmp	DWORD PTR _len$[ebp], 0
	je	SHORT $LN3@ReadMemTok
	mov	edx, DWORD PTR _src$[ebp]
	movsx	eax, BYTE PTR [edx]
	test	eax, eax
	je	SHORT $LN3@ReadMemTok

; 1210 : 	{
; 1211 : 		if ((*src == '\n') || (*src == '\r'))

	mov	ecx, DWORD PTR _src$[ebp]
	movsx	edx, BYTE PTR [ecx]
	cmp	edx, 10					; 0000000aH
	je	SHORT $LN1@ReadMemTok
	mov	eax, DWORD PTR _src$[ebp]
	movsx	ecx, BYTE PTR [eax]
	cmp	ecx, 13					; 0000000dH
	jne	SHORT $LN2@ReadMemTok
$LN1@ReadMemTok:

; 1212 : 		{
; 1213 : 			break;

	jmp	SHORT $LN3@ReadMemTok
$LN2@ReadMemTok:

; 1214 : 		}
; 1215 : 
; 1216 : 		*dst ++ = *src ++;

	mov	edx, DWORD PTR _dst$[ebp]
	mov	eax, DWORD PTR _src$[ebp]
	mov	cl, BYTE PTR [eax]
	mov	BYTE PTR [edx], cl
	mov	edx, DWORD PTR _dst$[ebp]
	add	edx, 1
	mov	DWORD PTR _dst$[ebp], edx
	mov	eax, DWORD PTR _src$[ebp]
	add	eax, 1
	mov	DWORD PTR _src$[ebp], eax

; 1217 : 
; 1218 : 		len --;

	mov	ecx, DWORD PTR _len$[ebp]
	sub	ecx, 1
	mov	DWORD PTR _len$[ebp], ecx

; 1219 : 	}

	jmp	SHORT $LN4@ReadMemTok
$LN3@ReadMemTok:

; 1220 : 
; 1221 : 	*dst = 0;

	mov	edx, DWORD PTR _dst$[ebp]
	mov	BYTE PTR [edx], 0

; 1222 : 
; 1223 : 	return name;

	mov	eax, DWORD PTR _name$[ebp]

; 1224 : }

	mov	esp, ebp
	pop	ebp
	ret	0
?ReadMemToken@@YAPADPAPADQADH@Z ENDP			; ReadMemToken
_TEXT	ENDS
; Function compile flags: /Odtp
; File c:\users\zhitao li\documents\visual studio 2012\projects\freefalcon\campaign\campui\brief.cpp
_TEXT	SEGMENT
_sptr$ = -264						; size = 4
_buffer$ = -260						; size = 256
__$ArrayPad$ = -4					; size = 4
_fp$ = 8						; size = 4
_name$ = 12						; size = 4
_len$ = 16						; size = 4
?ReadToken@@YAPADPAU_iobuf@@QADH@Z PROC			; ReadToken

; 1181 : 	{

	push	ebp
	mov	ebp, esp
	sub	esp, 264				; 00000108H
	mov	eax, DWORD PTR ___security_cookie
	xor	eax, ebp
	mov	DWORD PTR __$ArrayPad$[ebp], eax

; 1182 : 	char buffer[256];
; 1183 : 	char *sptr;
; 1184 : 
; 1185 : 	fgets(buffer,256,fp);

	mov	eax, DWORD PTR _fp$[ebp]
	push	eax
	push	256					; 00000100H
	lea	ecx, DWORD PTR _buffer$[ebp]
	push	ecx
	call	_fgets
	add	esp, 12					; 0000000cH

; 1186 : 	strncpy(name,buffer,len);

	mov	edx, DWORD PTR _len$[ebp]
	push	edx
	lea	eax, DWORD PTR _buffer$[ebp]
	push	eax
	mov	ecx, DWORD PTR _name$[ebp]
	push	ecx
	call	_strncpy
	add	esp, 12					; 0000000cH

; 1187 : 	if (name[len-1])

	mov	edx, DWORD PTR _name$[ebp]
	add	edx, DWORD PTR _len$[ebp]
	movsx	eax, BYTE PTR [edx-1]
	test	eax, eax
	je	SHORT $LN2@ReadToken

; 1188 : 		name[len-1] = 0;

	mov	ecx, DWORD PTR _name$[ebp]
	add	ecx, DWORD PTR _len$[ebp]
	mov	BYTE PTR [ecx-1], 0
$LN2@ReadToken:

; 1189 : 	sptr = strchr(name,'\n');

	push	10					; 0000000aH
	mov	edx, DWORD PTR _name$[ebp]
	push	edx
	call	?strchr@@YAPADPADH@Z			; strchr
	add	esp, 8
	mov	DWORD PTR _sptr$[ebp], eax

; 1190 : 	if (sptr)

	cmp	DWORD PTR _sptr$[ebp], 0
	je	SHORT $LN1@ReadToken

; 1191 : 		*sptr = '\0';

	mov	eax, DWORD PTR _sptr$[ebp]
	mov	BYTE PTR [eax], 0
$LN1@ReadToken:

; 1192 : 	return name;

	mov	eax, DWORD PTR _name$[ebp]

; 1193 : 	}

	mov	ecx, DWORD PTR __$ArrayPad$[ebp]
	xor	ecx, ebp
	call	@__security_check_cookie@4
	mov	esp, ebp
	pop	ebp
	ret	0
?ReadToken@@YAPADPAU_iobuf@@QADH@Z ENDP			; ReadToken
_TEXT	ENDS
; Function compile flags: /Odtp
; File c:\users\zhitao li\documents\visual studio 2012\projects\freefalcon\campaign\campui\brief.cpp
_TEXT	SEGMENT
_c$ = -4						; size = 4
_fh$ = 8						; size = 4
?ReadComments@@YAXPAU_iobuf@@@Z PROC			; ReadComments

; 1163 : 	{

	push	ebp
	mov	ebp, esp
	push	ecx

; 1164 : 	int					c;
; 1165 : 
; 1166 : 	c = fgetc(fh);

	mov	eax, DWORD PTR _fh$[ebp]
	push	eax
	call	_fgetc
	add	esp, 4
	mov	DWORD PTR _c$[ebp], eax
$LN8@ReadCommen:

; 1167 : 	while (c == '\n')

	cmp	DWORD PTR _c$[ebp], 10			; 0000000aH
	jne	SHORT $LN6@ReadCommen

; 1168 : 		c = fgetc(fh);

	mov	ecx, DWORD PTR _fh$[ebp]
	push	ecx
	call	_fgetc
	add	esp, 4
	mov	DWORD PTR _c$[ebp], eax
	jmp	SHORT $LN8@ReadCommen
$LN6@ReadCommen:

; 1169 : 	while (c == '/' && !feof(fh))

	cmp	DWORD PTR _c$[ebp], 47			; 0000002fH
	jne	SHORT $LN5@ReadCommen
	mov	edx, DWORD PTR _fh$[ebp]
	push	edx
	call	_feof
	add	esp, 4
	test	eax, eax
	jne	SHORT $LN5@ReadCommen

; 1170 : 		{
; 1171 : 		c = fgetc(fh);

	mov	eax, DWORD PTR _fh$[ebp]
	push	eax
	call	_fgetc
	add	esp, 4
	mov	DWORD PTR _c$[ebp], eax
$LN4@ReadCommen:

; 1172 : 		while (c != '\n' && !feof(fh))

	cmp	DWORD PTR _c$[ebp], 10			; 0000000aH
	je	SHORT $LN2@ReadCommen
	mov	ecx, DWORD PTR _fh$[ebp]
	push	ecx
	call	_feof
	add	esp, 4
	test	eax, eax
	jne	SHORT $LN2@ReadCommen

; 1173 : 			c = fgetc(fh);

	mov	edx, DWORD PTR _fh$[ebp]
	push	edx
	call	_fgetc
	add	esp, 4
	mov	DWORD PTR _c$[ebp], eax
	jmp	SHORT $LN4@ReadCommen
$LN2@ReadCommen:

; 1174 : 		while (c == '\n')

	cmp	DWORD PTR _c$[ebp], 10			; 0000000aH
	jne	SHORT $LN1@ReadCommen

; 1175 : 			c = fgetc(fh);

	mov	eax, DWORD PTR _fh$[ebp]
	push	eax
	call	_fgetc
	add	esp, 4
	mov	DWORD PTR _c$[ebp], eax
	jmp	SHORT $LN2@ReadCommen
$LN1@ReadCommen:

; 1176 : 		}

	jmp	SHORT $LN6@ReadCommen
$LN5@ReadCommen:

; 1177 : 	ungetc(c,fh);

	mov	ecx, DWORD PTR _fh$[ebp]
	push	ecx
	mov	edx, DWORD PTR _c$[ebp]
	push	edx
	call	_ungetc
	add	esp, 8

; 1178 : 	}

	mov	esp, ebp
	pop	ebp
	ret	0
?ReadComments@@YAXPAU_iobuf@@@Z ENDP			; ReadComments
_TEXT	ENDS
; Function compile flags: /Odtp
; File c:\users\zhitao li\documents\visual studio 2012\projects\freefalcon\campaign\campui\brief.cpp
_TEXT	SEGMENT
_t$1 = -12						; size = 4
_o$2 = -8						; size = 4
_w$3 = -4						; size = 4
_e$ = 8							; size = 4
_name$ = 12						; size = 4
?GetEntityDestination@@YAXPAVCampBaseClass@@PAD@Z PROC	; GetEntityDestination

; 1129 : 	{

	push	ebp
	mov	ebp, esp
	sub	esp, 12					; 0000000cH

; 1130 : 	if (!e)

	cmp	DWORD PTR _e$[ebp], 0
	jne	SHORT $LN13@GetEntityD

; 1131 : 		ReadIndexedString(38, name, 80);

	push	80					; 00000050H
	mov	eax, DWORD PTR _name$[ebp]
	push	eax
	push	38					; 00000026H
	call	?ReadIndexedString@@YAXHPADH@Z		; ReadIndexedString
	add	esp, 12					; 0000000cH
	jmp	$LN14@GetEntityD
$LN13@GetEntityD:

; 1132 : 	else if (e->IsUnit())

	mov	ecx, DWORD PTR _e$[ebp]
	mov	edx, DWORD PTR [ecx]
	mov	ecx, DWORD PTR _e$[ebp]
	mov	eax, DWORD PTR [edx+232]
	call	eax
	test	eax, eax
	je	$LN11@GetEntityD

; 1133 : 		{
; 1134 : 		if (e->GetDomain() == DOMAIN_LAND)

	mov	ecx, DWORD PTR _e$[ebp]
	call	?GetDomain@CampBaseClass@@QBEEXZ	; CampBaseClass::GetDomain
	movzx	ecx, al
	cmp	ecx, 3
	jne	SHORT $LN10@GetEntityD

; 1135 : 			{
; 1136 : 			Objective o = ((Unit)e)->GetUnitSecondaryObj();

	mov	edx, DWORD PTR _e$[ebp]
	mov	eax, DWORD PTR [edx]
	mov	ecx, DWORD PTR _e$[ebp]
	mov	edx, DWORD PTR [eax+860]
	call	edx
	mov	DWORD PTR _o$2[ebp], eax

; 1137 : 			if (o)

	cmp	DWORD PTR _o$2[ebp], 0
	je	SHORT $LN9@GetEntityD

; 1138 : 				o->GetName(name, 80, FALSE);

	push	0
	push	80					; 00000050H
	mov	eax, DWORD PTR _name$[ebp]
	push	eax
	mov	ecx, DWORD PTR _o$2[ebp]
	mov	edx, DWORD PTR [ecx]
	mov	ecx, DWORD PTR _o$2[ebp]
	mov	eax, DWORD PTR [edx+380]
	call	eax

; 1139 : 			else

	jmp	SHORT $LN8@GetEntityD
$LN9@GetEntityD:

; 1140 : 				ReadIndexedString(253, name, 80);	

	push	80					; 00000050H
	mov	ecx, DWORD PTR _name$[ebp]
	push	ecx
	push	253					; 000000fdH
	call	?ReadIndexedString@@YAXHPADH@Z		; ReadIndexedString
	add	esp, 12					; 0000000cH
$LN8@GetEntityD:
	jmp	SHORT $LN7@GetEntityD
$LN10@GetEntityD:

; 1141 : 			}
; 1142 : 		else if (e->GetDomain() == DOMAIN_AIR)

	mov	ecx, DWORD PTR _e$[ebp]
	call	?GetDomain@CampBaseClass@@QBEEXZ	; CampBaseClass::GetDomain
	movzx	edx, al
	cmp	edx, 2
	jne	SHORT $LN7@GetEntityD

; 1143 : 			{
; 1144 : 			// Find out where this flight is going (find the target)
; 1145 : 			WayPoint	w = ((Unit)e)->GetFirstUnitWP();

	mov	ecx, DWORD PTR _e$[ebp]
	call	?GetFirstUnitWP@UnitClass@@QAEPAVWayPointClass@@XZ ; UnitClass::GetFirstUnitWP
	mov	DWORD PTR _w$3[ebp], eax
$LN5@GetEntityD:

; 1146 : 			CampEntity	t;
; 1147 : 			while (w && !(w->GetWPFlags() & WPF_TARGET))

	cmp	DWORD PTR _w$3[ebp], 0
	je	SHORT $LN4@GetEntityD
	mov	ecx, DWORD PTR _w$3[ebp]
	call	?GetWPFlags@WayPointClass@@QAEKXZ	; WayPointClass::GetWPFlags
	and	eax, 1
	jne	SHORT $LN4@GetEntityD

; 1148 : 				w = w->GetNextWP();

	mov	ecx, DWORD PTR _w$3[ebp]
	call	?GetNextWP@WayPointClass@@QAEPAV1@XZ	; WayPointClass::GetNextWP
	mov	DWORD PTR _w$3[ebp], eax
	jmp	SHORT $LN5@GetEntityD
$LN4@GetEntityD:

; 1149 : 			if (w)

	cmp	DWORD PTR _w$3[ebp], 0
	je	SHORT $LN3@GetEntityD

; 1150 : 				{
; 1151 : 				t = w->GetWPTarget();

	mov	ecx, DWORD PTR _w$3[ebp]
	call	?GetWPTarget@WayPointClass@@QAEPAVCampBaseClass@@XZ ; WayPointClass::GetWPTarget
	mov	DWORD PTR _t$1[ebp], eax

; 1152 : 				GetEntityName(t, name, ' ', ' ');

	push	32					; 00000020H
	push	32					; 00000020H
	mov	eax, DWORD PTR _name$[ebp]
	push	eax
	mov	ecx, DWORD PTR _t$1[ebp]
	push	ecx
	call	?GetEntityName@@YAXPAVCampBaseClass@@PADDD@Z ; GetEntityName
	add	esp, 16					; 00000010H

; 1153 : 				}
; 1154 : 			else

	jmp	SHORT $LN7@GetEntityD
$LN3@GetEntityD:

; 1155 : 				ReadIndexedString(253, name, 80);	

	push	80					; 00000050H
	mov	edx, DWORD PTR _name$[ebp]
	push	edx
	push	253					; 000000fdH
	call	?ReadIndexedString@@YAXHPADH@Z		; ReadIndexedString
	add	esp, 12					; 0000000cH
$LN7@GetEntityD:

; 1156 : 			}
; 1157 : 		}
; 1158 : 	else

	jmp	SHORT $LN14@GetEntityD
$LN11@GetEntityD:

; 1159 : 		GetEntityName(e, name, ' ', ' ');

	push	32					; 00000020H
	push	32					; 00000020H
	mov	eax, DWORD PTR _name$[ebp]
	push	eax
	mov	ecx, DWORD PTR _e$[ebp]
	push	ecx
	call	?GetEntityName@@YAXPAVCampBaseClass@@PADDD@Z ; GetEntityName
	add	esp, 16					; 00000010H
$LN14@GetEntityD:

; 1160 : 	}

	mov	esp, ebp
	pop	ebp
	ret	0
?GetEntityDestination@@YAXPAVCampBaseClass@@PAD@Z ENDP	; GetEntityDestination
_TEXT	ENDS
; Function compile flags: /Odtp
; File c:\users\zhitao li\documents\visual studio 2012\projects\freefalcon\campaign\campui\brief.cpp
_TEXT	SEGMENT
tv95 = -12						; size = 4
_parent_unit$1 = -8					; size = 4
_object$ = -4						; size = 4
_e$ = 8							; size = 4
_name$ = 12						; size = 4
_name_type$ = 16					; size = 1
_objchar$ = 20						; size = 1
?GetEntityName@@YAXPAVCampBaseClass@@PADDD@Z PROC	; GetEntityName

; 1092 : 	{

	push	ebp
	mov	ebp, esp
	sub	esp, 12					; 0000000cH

; 1093 : 	int		object = FALSE;

	mov	DWORD PTR _object$[ebp], 0

; 1094 : 
; 1095 : 	if (objchar == 'O')

	movsx	eax, BYTE PTR _objchar$[ebp]
	cmp	eax, 79					; 0000004fH
	jne	SHORT $LN14@GetEntityN

; 1096 : 		object = TRUE;

	mov	DWORD PTR _object$[ebp], 1
$LN14@GetEntityN:

; 1097 : 	if (!e)

	cmp	DWORD PTR _e$[ebp], 0
	jne	SHORT $LN13@GetEntityN

; 1098 : 		ReadIndexedString(168, name, 80);

	push	80					; 00000050H
	mov	ecx, DWORD PTR _name$[ebp]
	push	ecx
	push	168					; 000000a8H
	call	?ReadIndexedString@@YAXHPADH@Z		; ReadIndexedString
	add	esp, 12					; 0000000cH
	jmp	$LN15@GetEntityN
$LN13@GetEntityN:

; 1099 : 	else if (e->IsObjective())

	mov	edx, DWORD PTR _e$[ebp]
	mov	eax, DWORD PTR [edx]
	mov	ecx, DWORD PTR _e$[ebp]
	mov	edx, DWORD PTR [eax+236]
	call	edx
	test	eax, eax
	je	SHORT $LN11@GetEntityN

; 1100 : 		e->GetName(name,80,object);

	mov	eax, DWORD PTR _object$[ebp]
	push	eax
	push	80					; 00000050H
	mov	ecx, DWORD PTR _name$[ebp]
	push	ecx
	mov	edx, DWORD PTR _e$[ebp]
	mov	eax, DWORD PTR [edx]
	mov	ecx, DWORD PTR _e$[ebp]
	mov	edx, DWORD PTR [eax+380]
	call	edx
	jmp	$LN15@GetEntityN
$LN11@GetEntityN:

; 1101 : 	else if (e->IsUnit())

	mov	eax, DWORD PTR _e$[ebp]
	mov	edx, DWORD PTR [eax]
	mov	ecx, DWORD PTR _e$[ebp]
	mov	eax, DWORD PTR [edx+232]
	call	eax
	test	eax, eax
	je	$LN15@GetEntityN

; 1102 : 		{
; 1103 : 		Unit		parent_unit = NULL;				

	mov	DWORD PTR _parent_unit$1[ebp], 0

; 1104 : 		switch (name_type)

	mov	cl, BYTE PTR _name_type$[ebp]
	mov	BYTE PTR tv95[ebp], cl
	cmp	BYTE PTR tv95[ebp], 68			; 00000044H
	je	SHORT $LN6@GetEntityN
	cmp	BYTE PTR tv95[ebp], 70			; 00000046H
	je	SHORT $LN2@GetEntityN
	cmp	BYTE PTR tv95[ebp], 80			; 00000050H
	je	SHORT $LN5@GetEntityN
	jmp	$LN1@GetEntityN
$LN6@GetEntityN:

; 1105 : 			{
; 1106 : 			case 'D':
; 1107 : 				((Unit)e)->GetDivisionName(name,80,object);

	mov	edx, DWORD PTR _object$[ebp]
	push	edx
	push	80					; 00000050H
	mov	eax, DWORD PTR _name$[ebp]
	push	eax
	mov	ecx, DWORD PTR _e$[ebp]
	mov	edx, DWORD PTR [ecx]
	mov	ecx, DWORD PTR _e$[ebp]
	mov	eax, DWORD PTR [edx+388]
	call	eax

; 1108 : 				break;

	jmp	$LN15@GetEntityN
$LN5@GetEntityN:

; 1109 : 			case 'P':
; 1110 : 				// KCK: This is dangerous to do. Look into fixing this so we don't need to do it.
; 1111 : 				parent_unit = ((Unit)e)->GetUnitParent();

	mov	ecx, DWORD PTR _e$[ebp]
	mov	edx, DWORD PTR [ecx]
	mov	ecx, DWORD PTR _e$[ebp]
	mov	eax, DWORD PTR [edx+944]
	call	eax
	mov	DWORD PTR _parent_unit$1[ebp], eax

; 1112 : 				if (parent_unit)

	cmp	DWORD PTR _parent_unit$1[ebp], 0
	je	SHORT $LN4@GetEntityN

; 1113 : 					((Unit)parent_unit)->GetName(name,80,object);

	mov	ecx, DWORD PTR _object$[ebp]
	push	ecx
	push	80					; 00000050H
	mov	edx, DWORD PTR _name$[ebp]
	push	edx
	mov	eax, DWORD PTR _parent_unit$1[ebp]
	mov	edx, DWORD PTR [eax]
	mov	ecx, DWORD PTR _parent_unit$1[ebp]
	mov	eax, DWORD PTR [edx+380]
	call	eax

; 1114 : 				else

	jmp	SHORT $LN3@GetEntityN
$LN4@GetEntityN:

; 1115 : 					((Unit)e)->GetName(name,80,object);

	mov	ecx, DWORD PTR _object$[ebp]
	push	ecx
	push	80					; 00000050H
	mov	edx, DWORD PTR _name$[ebp]
	push	edx
	mov	eax, DWORD PTR _e$[ebp]
	mov	edx, DWORD PTR [eax]
	mov	ecx, DWORD PTR _e$[ebp]
	mov	eax, DWORD PTR [edx+380]
	call	eax
$LN3@GetEntityN:

; 1116 : 				break;

	jmp	SHORT $LN15@GetEntityN
$LN2@GetEntityN:

; 1117 : 			case 'F':
; 1118 : 				((Unit)e)->GetFullName(name,80,object);

	mov	ecx, DWORD PTR _object$[ebp]
	push	ecx
	push	80					; 00000050H
	mov	edx, DWORD PTR _name$[ebp]
	push	edx
	mov	eax, DWORD PTR _e$[ebp]
	mov	edx, DWORD PTR [eax]
	mov	ecx, DWORD PTR _e$[ebp]
	mov	eax, DWORD PTR [edx+384]
	call	eax

; 1119 : 				break;

	jmp	SHORT $LN15@GetEntityN
$LN1@GetEntityN:

; 1120 : 			case 'U':
; 1121 : 			default:
; 1122 : 				((Unit)e)->GetName(name,80,object);

	mov	ecx, DWORD PTR _object$[ebp]
	push	ecx
	push	80					; 00000050H
	mov	edx, DWORD PTR _name$[ebp]
	push	edx
	mov	eax, DWORD PTR _e$[ebp]
	mov	edx, DWORD PTR [eax]
	mov	ecx, DWORD PTR _e$[ebp]
	mov	eax, DWORD PTR [edx+380]
	call	eax
$LN15@GetEntityN:

; 1123 : 				break;
; 1124 : 			}
; 1125 : 		}
; 1126 : 	}

	mov	esp, ebp
	pop	ebp
	ret	0
?GetEntityName@@YAXPAVCampBaseClass@@PADDD@Z ENDP	; GetEntityName
_TEXT	ENDS
; Function compile flags: /Odtp
; File c:\users\zhitao li\documents\visual studio 2012\projects\freefalcon\campaign\campui\brief.cpp
_TEXT	SEGMENT
_oldfont$1 = -12					; size = 4
_oldheight$2 = -8					; size = 4
_height$3 = -4						; size = 4
_buffer$ = 8						; size = 4
_font$ = 12						; size = 4
_window$ = 16						; size = 4
_output$ = 20						; size = 4
?AddFontTextToBrief@@YAXPADHPAVC_Window@@0@Z PROC	; AddFontTextToBrief

; 906  : 	{

	push	ebp
	mov	ebp, esp
	sub	esp, 12					; 0000000cH

; 907  : 	if (window)

	cmp	DWORD PTR _window$[ebp], 0
	je	$LN7@AddFontTex

; 908  : 		{
; 909  : 		int		height,oldheight,oldfont;
; 910  : 		oldfont = window->Font_;

	mov	eax, DWORD PTR _window$[ebp]
	mov	ecx, DWORD PTR [eax+108]
	mov	DWORD PTR _oldfont$1[ebp], ecx

; 911  : 		oldheight = gFontList->GetHeight(oldfont);

	mov	edx, DWORD PTR _oldfont$1[ebp]
	push	edx
	mov	ecx, DWORD PTR ?gFontList@@3PAVC_Font@@A ; gFontList
	call	?GetHeight@C_Font@@QAEHJ@Z		; C_Font::GetHeight
	mov	DWORD PTR _oldheight$2[ebp], eax

; 912  : 		height = gFontList->GetHeight(font);

	mov	eax, DWORD PTR _font$[ebp]
	push	eax
	mov	ecx, DWORD PTR ?gFontList@@3PAVC_Font@@A ; gFontList
	call	?GetHeight@C_Font@@QAEHJ@Z		; C_Font::GetHeight
	mov	DWORD PTR _height$3[ebp], eax

; 913  : 		// KCK HACK: Some fonts just don't get very good heights
; 914  : 		if (font == 14)

	cmp	DWORD PTR _font$[ebp], 14		; 0000000eH
	jne	SHORT $LN6@AddFontTex

; 915  : 			{
; 916  : 			if (gLangIDNum == F4LANG_GERMAN)

	cmp	DWORD PTR ?gLangIDNum@@3HA, 3		; gLangIDNum
	jne	SHORT $LN5@AddFontTex
	jmp	SHORT $LN6@AddFontTex
$LN5@AddFontTex:

; 917  : 				;
; 918  : 			else if (gLangIDNum >= F4LANG_SPANISH)

	cmp	DWORD PTR ?gLangIDNum@@3HA, 5		; gLangIDNum
	jl	SHORT $LN3@AddFontTex

; 919  : 				height--;

	mov	ecx, DWORD PTR _height$3[ebp]
	sub	ecx, 1
	mov	DWORD PTR _height$3[ebp], ecx

; 920  : 			else

	jmp	SHORT $LN6@AddFontTex
$LN3@AddFontTex:

; 921  : 				height = 19;

	mov	DWORD PTR _height$3[ebp], 19		; 00000013H
$LN6@AddFontTex:

; 922  : 			}
; 923  : 		CBY += oldheight - height;

	mov	edx, DWORD PTR _oldheight$2[ebp]
	sub	edx, DWORD PTR _height$3[ebp]
	movsx	eax, WORD PTR _CBY
	add	eax, edx
	mov	WORD PTR _CBY, ax

; 924  : 		window->Font_ = font;

	mov	ecx, DWORD PTR _window$[ebp]
	mov	edx, DWORD PTR _font$[ebp]
	mov	DWORD PTR [ecx+108], edx

; 925  : 		AddStringToBrief(buffer, window, output);

	mov	eax, DWORD PTR _output$[ebp]
	push	eax
	mov	ecx, DWORD PTR _window$[ebp]
	push	ecx
	mov	edx, DWORD PTR _buffer$[ebp]
	push	edx
	call	?AddStringToBrief@@YAXPADPAVC_Window@@0@Z ; AddStringToBrief
	add	esp, 12					; 0000000cH

; 926  : 		CBY -= oldheight - height;

	mov	eax, DWORD PTR _oldheight$2[ebp]
	sub	eax, DWORD PTR _height$3[ebp]
	movsx	ecx, WORD PTR _CBY
	sub	ecx, eax
	mov	WORD PTR _CBY, cx

; 927  : 		window->Font_ = oldfont;

	mov	edx, DWORD PTR _window$[ebp]
	mov	eax, DWORD PTR _oldfont$1[ebp]
	mov	DWORD PTR [edx+108], eax

; 928  : 		}
; 929  : 	else

	jmp	SHORT $LN8@AddFontTex
$LN7@AddFontTex:

; 930  : 		AddStringToBrief(buffer, window, output);

	mov	ecx, DWORD PTR _output$[ebp]
	push	ecx
	mov	edx, DWORD PTR _window$[ebp]
	push	edx
	mov	eax, DWORD PTR _buffer$[ebp]
	push	eax
	call	?AddStringToBrief@@YAXPADPAVC_Window@@0@Z ; AddStringToBrief
	add	esp, 12					; 0000000cH
$LN8@AddFontTex:

; 931  : 	}

	mov	esp, ebp
	pop	ebp
	ret	0
?AddFontTextToBrief@@YAXPADHPAVC_Window@@0@Z ENDP	; AddFontTextToBrief
_TEXT	ENDS
; Function compile flags: /Odtp
; File c:\users\zhitao li\documents\visual studio 2012\projects\freefalcon\campaign\campui\brief.cpp
_TEXT	SEGMENT
_y$ = -12						; size = 4
_x$ = -8						; size = 4
_width$ = -4						; size = 4
_string$ = 8						; size = 4
_field_width$ = 12					; size = 4
_buffer$ = 16						; size = 4
_window$ = 20						; size = 4
_output$ = 24						; size = 4
?AddRightJustifiedStringToBrief@@YAXPADH0PAVC_Window@@0@Z PROC ; AddRightJustifiedStringToBrief

; 890  : 	{

	push	ebp
	mov	ebp, esp
	sub	esp, 12					; 0000000cH

; 891  : 	int			width,x,y;
; 892  : 	if (window)

	cmp	DWORD PTR _window$[ebp], 0
	je	SHORT $LN3@AddRightJu

; 893  : 		width = gFontList->StrWidth(window->Font_,string);

	mov	eax, DWORD PTR _string$[ebp]
	push	eax
	mov	ecx, DWORD PTR _window$[ebp]
	mov	edx, DWORD PTR [ecx+108]
	push	edx
	mov	ecx, DWORD PTR ?gFontList@@3PAVC_Font@@A ; gFontList
	call	?StrWidth@C_Font@@QAEHJPAD@Z		; C_Font::StrWidth
	mov	DWORD PTR _width$[ebp], eax
	jmp	SHORT $LN2@AddRightJu
$LN3@AddRightJu:

; 894  : #if 0 // to improve the looks
; 895  : 	else if (gFontList)
; 896  : 		width = gFontList->StrWidth(BDefaultFont,string);
; 897  : #endif
; 898  : 	else width = strlen(string);

	mov	eax, DWORD PTR _string$[ebp]
	push	eax
	call	_strlen
	add	esp, 4
	mov	DWORD PTR _width$[ebp], eax
$LN2@AddRightJu:

; 899  : 	GetCurrentBriefXY (&x, &y, buffer, window, output);

	mov	ecx, DWORD PTR _output$[ebp]
	push	ecx
	mov	edx, DWORD PTR _window$[ebp]
	push	edx
	mov	eax, DWORD PTR _buffer$[ebp]
	push	eax
	lea	ecx, DWORD PTR _y$[ebp]
	push	ecx
	lea	edx, DWORD PTR _x$[ebp]
	push	edx
	call	?GetCurrentBriefXY@@YAXPAH0PADPAVC_Window@@1@Z ; GetCurrentBriefXY
	add	esp, 20					; 00000014H

; 900  : 	if (width < field_width)

	mov	eax, DWORD PTR _width$[ebp]
	cmp	eax, DWORD PTR _field_width$[ebp]
	jge	SHORT $LN1@AddRightJu

; 901  : 	    AddTabToBrief(x+field_width-width, "", window, output);

	mov	ecx, DWORD PTR _output$[ebp]
	push	ecx
	mov	edx, DWORD PTR _window$[ebp]
	push	edx
	push	OFFSET ??_C@_00CNPNBAHC@?$AA@
	mov	eax, DWORD PTR _x$[ebp]
	add	eax, DWORD PTR _field_width$[ebp]
	sub	eax, DWORD PTR _width$[ebp]
	push	eax
	call	?AddTabToBrief@@YAXHPADPAVC_Window@@0@Z	; AddTabToBrief
	add	esp, 16					; 00000010H
$LN1@AddRightJu:

; 902  : 	AddStringToBrief(string, window, output);

	mov	ecx, DWORD PTR _output$[ebp]
	push	ecx
	mov	edx, DWORD PTR _window$[ebp]
	push	edx
	mov	eax, DWORD PTR _string$[ebp]
	push	eax
	call	?AddStringToBrief@@YAXPADPAVC_Window@@0@Z ; AddStringToBrief
	add	esp, 12					; 0000000cH

; 903  : 	}

	mov	esp, ebp
	pop	ebp
	ret	0
?AddRightJustifiedStringToBrief@@YAXPADH0PAVC_Window@@0@Z ENDP ; AddRightJustifiedStringToBrief
_TEXT	ENDS
; Function compile flags: /Odtp
; File c:\users\zhitao li\documents\visual studio 2012\projects\freefalcon\campaign\campui\brief.cpp
_TEXT	SEGMENT
_wp$ = 8						; size = 4
_cline$ = 12						; size = 4
?GetWpDescription@@YAXPAVWayPointClass@@PAD@Z PROC	; GetWpDescription

; 750  : {

	push	ebp
	mov	ebp, esp

; 751  :     if (wp->GetWPFlags() & WPF_ALTERNATE)

	mov	ecx, DWORD PTR _wp$[ebp]
	call	?GetWPFlags@WayPointClass@@QAEKXZ	; WayPointClass::GetWPFlags
	and	eax, 1024				; 00000400H
	je	SHORT $LN6@GetWpDescr

; 752  : 	AddIndexedStringToBuffer(237, cline);

	mov	eax, DWORD PTR _cline$[ebp]
	push	eax
	push	237					; 000000edH
	call	?AddIndexedStringToBuffer@@YAXHPAD@Z	; AddIndexedStringToBuffer
	add	esp, 8
	jmp	SHORT $LN7@GetWpDescr
$LN6@GetWpDescr:

; 753  :     else if (wp->GetWPFlags() & WPF_REPEAT)

	mov	ecx, DWORD PTR _wp$[ebp]
	call	?GetWPFlags@WayPointClass@@QAEKXZ	; WayPointClass::GetWPFlags
	and	eax, 64					; 00000040H
	je	SHORT $LN4@GetWpDescr

; 754  : 	AddIndexedStringToBuffer(247, cline);

	mov	ecx, DWORD PTR _cline$[ebp]
	push	ecx
	push	247					; 000000f7H
	call	?AddIndexedStringToBuffer@@YAXHPAD@Z	; AddIndexedStringToBuffer
	add	esp, 8
	jmp	SHORT $LN7@GetWpDescr
$LN4@GetWpDescr:

; 755  :     else if (wp->GetWPAction() == WP_NOTHING)

	mov	ecx, DWORD PTR _wp$[ebp]
	call	?GetWPAction@WayPointClass@@QAEHXZ	; WayPointClass::GetWPAction
	test	eax, eax
	jne	SHORT $LN2@GetWpDescr

; 756  : 	AddIndexedStringToBuffer(1650+wp->GetWPRouteAction(), cline);

	mov	edx, DWORD PTR _cline$[ebp]
	push	edx
	mov	ecx, DWORD PTR _wp$[ebp]
	call	?GetWPRouteAction@WayPointClass@@QAEHXZ	; WayPointClass::GetWPRouteAction
	add	eax, 1650				; 00000672H
	push	eax
	call	?AddIndexedStringToBuffer@@YAXHPAD@Z	; AddIndexedStringToBuffer
	add	esp, 8

; 757  :     else

	jmp	SHORT $LN7@GetWpDescr
$LN2@GetWpDescr:

; 758  : 	AddIndexedStringToBuffer(1650+wp->GetWPAction(), cline);

	mov	eax, DWORD PTR _cline$[ebp]
	push	eax
	mov	ecx, DWORD PTR _wp$[ebp]
	call	?GetWPAction@WayPointClass@@QAEHXZ	; WayPointClass::GetWPAction
	add	eax, 1650				; 00000672H
	push	eax
	call	?AddIndexedStringToBuffer@@YAXHPAD@Z	; AddIndexedStringToBuffer
	add	esp, 8
$LN7@GetWpDescr:

; 759  : }

	pop	ebp
	ret	0
?GetWpDescription@@YAXPAVWayPointClass@@PAD@Z ENDP	; GetWpDescription
_TEXT	ENDS
; Function compile flags: /Odtp
; File c:\users\zhitao li\documents\visual studio 2012\projects\freefalcon\campaign\campui\brief.cpp
_TEXT	SEGMENT
_heading$1 = -24					; size = 4
_ih$2 = -20						; size = 4
_lx$3 = -16						; size = 2
_ly$4 = -12						; size = 2
_cx$5 = -8						; size = 2
_cy$6 = -4						; size = 2
_wp$ = 8						; size = 4
_lwp$ = 12						; size = 4
_cline$ = 16						; size = 4
?GetWpHeading@@YAXPAVWayPointClass@@0PAD@Z PROC		; GetWpHeading

; 762  : {

	push	ebp
	mov	ebp, esp
	sub	esp, 24					; 00000018H

; 763  :     if (wp && lwp && wp->GetWPAction() != WP_REFUEL && !(wp->GetWPFlags() & WPF_ALTERNATE))

	cmp	DWORD PTR _wp$[ebp], 0
	je	$LN3@GetWpHeadi
	cmp	DWORD PTR _lwp$[ebp], 0
	je	$LN3@GetWpHeadi
	mov	ecx, DWORD PTR _wp$[ebp]
	call	?GetWPAction@WayPointClass@@QAEHXZ	; WayPointClass::GetWPAction
	cmp	eax, 4
	je	$LN3@GetWpHeadi
	mov	ecx, DWORD PTR _wp$[ebp]
	call	?GetWPFlags@WayPointClass@@QAEKXZ	; WayPointClass::GetWPFlags
	and	eax, 1024				; 00000400H
	jne	$LN3@GetWpHeadi

; 764  :     {
; 765  : 	GridIndex	cx,cy,lx,ly;
; 766  : 	float		heading;
; 767  : 	int		ih;
; 768  : 	lwp->GetWPLocation(&lx,&ly);

	lea	eax, DWORD PTR _ly$4[ebp]
	push	eax
	lea	ecx, DWORD PTR _lx$3[ebp]
	push	ecx
	mov	ecx, DWORD PTR _lwp$[ebp]
	call	?GetWPLocation@WayPointClass@@QBEXPAF0@Z ; WayPointClass::GetWPLocation

; 769  : 	wp->GetWPLocation(&cx,&cy);

	lea	edx, DWORD PTR _cy$6[ebp]
	push	edx
	lea	eax, DWORD PTR _cx$5[ebp]
	push	eax
	mov	ecx, DWORD PTR _wp$[ebp]
	call	?GetWPLocation@WayPointClass@@QBEXPAF0@Z ; WayPointClass::GetWPLocation

; 770  : 	heading = AngleTo(lx,ly,cx,cy);

	movzx	ecx, WORD PTR _cy$6[ebp]
	push	ecx
	movzx	edx, WORD PTR _cx$5[ebp]
	push	edx
	movzx	eax, WORD PTR _ly$4[ebp]
	push	eax
	movzx	ecx, WORD PTR _lx$3[ebp]
	push	ecx
	call	?AngleTo@@YAMFFFF@Z			; AngleTo
	add	esp, 16					; 00000010H
	fstp	DWORD PTR _heading$1[ebp]

; 771  : 	ih = FloatToInt32((heading * RADIANS_TO_DEG)+0.5F);

	movss	xmm0, DWORD PTR _heading$1[ebp]
	mulss	xmm0, DWORD PTR __real@42652ee1
	addss	xmm0, DWORD PTR __real@3f000000
	push	ecx
	movss	DWORD PTR [esp], xmm0
	call	?FloatToInt32@@YAHM@Z			; FloatToInt32
	add	esp, 4
	mov	DWORD PTR _ih$2[ebp], eax

; 772  : 	if (ih < 0)

	cmp	DWORD PTR _ih$2[ebp], 0
	jge	SHORT $LN2@GetWpHeadi

; 773  : 	    ih += 360;

	mov	edx, DWORD PTR _ih$2[ebp]
	add	edx, 360				; 00000168H
	mov	DWORD PTR _ih$2[ebp], edx
$LN2@GetWpHeadi:

; 774  : 	AddNumberToBuffer(ih, cline);

	mov	eax, DWORD PTR _cline$[ebp]
	push	eax
	mov	ecx, DWORD PTR _ih$2[ebp]
	push	ecx
	call	?AddNumberToBuffer@@YAXHPAD@Z		; AddNumberToBuffer
	add	esp, 8

; 775  :     }
; 776  :     else

	jmp	SHORT $LN1@GetWpHeadi
$LN3@GetWpHeadi:

; 777  : 	AddIndexedStringToBuffer(1650, cline);

	mov	edx, DWORD PTR _cline$[ebp]
	push	edx
	push	1650					; 00000672H
	call	?AddIndexedStringToBuffer@@YAXHPAD@Z	; AddIndexedStringToBuffer
	add	esp, 8
$LN1@GetWpHeadi:

; 778  : }

	mov	esp, ebp
	pop	ebp
	ret	0
?GetWpHeading@@YAXPAVWayPointClass@@0PAD@Z ENDP		; GetWpHeading
_TEXT	ENDS
; Function compile flags: /Odtp
; File c:\users\zhitao li\documents\visual studio 2012\projects\freefalcon\campaign\campui\brief.cpp
_TEXT	SEGMENT
_alt$ = -4						; size = 4
_wp$ = 8						; size = 4
_lwp$ = 12						; size = 4
_cline$ = 16						; size = 4
?GetWpAlt@@YAHPAVWayPointClass@@0PAD@Z PROC		; GetWpAlt

; 737  : {

	push	ebp
	mov	ebp, esp
	push	ecx

; 738  :     
; 739  :     int	alt = wp->GetWPAltitude();

	mov	ecx, DWORD PTR _wp$[ebp]
	call	?GetWPAltitude@WayPointClass@@QAEHXZ	; WayPointClass::GetWPAltitude
	mov	DWORD PTR _alt$[ebp], eax

; 740  :     if (lwp && wp->GetWPFlags() & WPF_HOLDCURRENT)

	cmp	DWORD PTR _lwp$[ebp], 0
	je	SHORT $LN3@GetWpAlt
	mov	ecx, DWORD PTR _wp$[ebp]
	call	?GetWPFlags@WayPointClass@@QAEKXZ	; WayPointClass::GetWPFlags
	and	eax, 2048				; 00000800H
	je	SHORT $LN3@GetWpAlt

; 741  : 	alt = lwp->GetWPAltitude();

	mov	ecx, DWORD PTR _lwp$[ebp]
	call	?GetWPAltitude@WayPointClass@@QAEHXZ	; WayPointClass::GetWPAltitude
	mov	DWORD PTR _alt$[ebp], eax
$LN3@GetWpAlt:

; 742  :     if (alt > 0)

	cmp	DWORD PTR _alt$[ebp], 0
	jle	SHORT $LN2@GetWpAlt

; 743  : 	AddNumberToBuffer ((float)(alt)/1000.0F, 1, cline);

	mov	eax, DWORD PTR _cline$[ebp]
	push	eax
	push	1
	cvtsi2ss xmm0, DWORD PTR _alt$[ebp]
	divss	xmm0, DWORD PTR __real@447a0000
	push	ecx
	movss	DWORD PTR [esp], xmm0
	call	?AddNumberToBuffer@@YAXMHPAD@Z		; AddNumberToBuffer
	add	esp, 12					; 0000000cH

; 744  :     else

	jmp	SHORT $LN1@GetWpAlt
$LN2@GetWpAlt:

; 745  : 	AddIndexedStringToBuffer(1650, cline);

	mov	ecx, DWORD PTR _cline$[ebp]
	push	ecx
	push	1650					; 00000672H
	call	?AddIndexedStringToBuffer@@YAXHPAD@Z	; AddIndexedStringToBuffer
	add	esp, 8
$LN1@GetWpAlt:

; 746  :     return alt;

	mov	eax, DWORD PTR _alt$[ebp]

; 747  : }

	mov	esp, ebp
	pop	ebp
	ret	0
?GetWpAlt@@YAHPAVWayPointClass@@0PAD@Z ENDP		; GetWpAlt
_TEXT	ENDS
; Function compile flags: /Odtp
; File c:\users\zhitao li\documents\visual studio 2012\projects\freefalcon\campaign\campui\brief.cpp
_TEXT	SEGMENT
_ispeed$1 = -16						; size = 4
tv151 = -12						; size = 4
tv143 = -8						; size = 4
_speed$2 = -4						; size = 4
_wp$ = 8						; size = 4
_lwp$ = 12						; size = 4
_cline$ = 16						; size = 4
?GetWptSpeed@@YAXPAVWayPointClass@@0PAD@Z PROC		; GetWptSpeed

; 706  : {

	push	ebp
	mov	ebp, esp
	sub	esp, 16					; 00000010H

; 707  :     if (wp && lwp && wp->GetWPAction() != WP_REFUEL && !(wp->GetWPFlags() & WPF_ALTERNATE))

	cmp	DWORD PTR _wp$[ebp], 0
	je	$LN4@GetWptSpee
	cmp	DWORD PTR _lwp$[ebp], 0
	je	$LN4@GetWptSpee
	mov	ecx, DWORD PTR _wp$[ebp]
	call	?GetWPAction@WayPointClass@@QAEHXZ	; WayPointClass::GetWPAction
	cmp	eax, 4
	je	$LN4@GetWptSpee
	mov	ecx, DWORD PTR _wp$[ebp]
	call	?GetWPFlags@WayPointClass@@QAEKXZ	; WayPointClass::GetWPFlags
	and	eax, 1024				; 00000400H
	jne	$LN4@GetWptSpee

; 708  :     {
; 709  :     /*
; 710  :     GridIndex		cx,cy,lx,ly;
; 711  :     float			speed,dist,time;
; 712  :     int				ispeed;
; 713  :     LWayPoint->GetWPLocation(&lx,&ly);
; 714  :     wp->GetWPLocation(&cx,&cy);
; 715  :     // Time (in hours)
; 716  :     time = (float)(wp->GetWPArrivalTime() - lwp->GetWPDepartureTime())/CampaignHours;
; 717  :     // Distance (in km)
; 718  :     dist = Distance(lx,ly,cx,cy);
; 719  :     // Speed (in knots)
; 720  :     speed = (dist/time)*KPH_TO_FPS*FTPSEC_TO_KNOTS;
; 721  : 	*/
; 722  : 	float	speed;
; 723  : 	int		ispeed;
; 724  : 	
; 725  : 	if (wp->GetWPFlags() & WPF_HOLDCURRENT)

	mov	ecx, DWORD PTR _wp$[ebp]
	call	?GetWPFlags@WayPointClass@@QAEKXZ	; WayPointClass::GetWPFlags
	and	eax, 2048				; 00000800H
	je	SHORT $LN3@GetWptSpee

; 726  : 	    speed = get_air_speed(wp->GetWPSpeed()*KM_TO_NM, lwp->GetWPAltitude());

	mov	ecx, DWORD PTR _lwp$[ebp]
	call	?GetWPAltitude@WayPointClass@@QAEHXZ	; WayPointClass::GetWPAltitude
	push	eax
	mov	ecx, DWORD PTR _wp$[ebp]
	call	?GetWPSpeed@WayPointClass@@QAEMXZ	; WayPointClass::GetWPSpeed
	fstp	DWORD PTR tv143[ebp]
	movss	xmm0, DWORD PTR tv143[ebp]
	mulss	xmm0, DWORD PTR __real@3f0a35e2
	push	ecx
	movss	DWORD PTR [esp], xmm0
	call	?get_air_speed@@YAMMH@Z			; get_air_speed
	add	esp, 8
	fstp	DWORD PTR _speed$2[ebp]

; 727  : 	else

	jmp	SHORT $LN2@GetWptSpee
$LN3@GetWptSpee:

; 728  : 	    speed = get_air_speed(wp->GetWPSpeed()*KM_TO_NM, wp->GetWPAltitude());

	mov	ecx, DWORD PTR _wp$[ebp]
	call	?GetWPAltitude@WayPointClass@@QAEHXZ	; WayPointClass::GetWPAltitude
	push	eax
	mov	ecx, DWORD PTR _wp$[ebp]
	call	?GetWPSpeed@WayPointClass@@QAEMXZ	; WayPointClass::GetWPSpeed
	fstp	DWORD PTR tv151[ebp]
	movss	xmm0, DWORD PTR tv151[ebp]
	mulss	xmm0, DWORD PTR __real@3f0a35e2
	push	ecx
	movss	DWORD PTR [esp], xmm0
	call	?get_air_speed@@YAMMH@Z			; get_air_speed
	add	esp, 8
	fstp	DWORD PTR _speed$2[ebp]
$LN2@GetWptSpee:

; 729  : 	ispeed = FloatToInt32((speed + 2.5F) / 5.0F) * 5;

	movss	xmm0, DWORD PTR _speed$2[ebp]
	addss	xmm0, DWORD PTR __real@40200000
	divss	xmm0, DWORD PTR __real@40a00000
	push	ecx
	movss	DWORD PTR [esp], xmm0
	call	?FloatToInt32@@YAHM@Z			; FloatToInt32
	add	esp, 4
	imul	eax, 5
	mov	DWORD PTR _ispeed$1[ebp], eax

; 730  : 	AddNumberToBuffer(ispeed, cline);

	mov	eax, DWORD PTR _cline$[ebp]
	push	eax
	mov	ecx, DWORD PTR _ispeed$1[ebp]
	push	ecx
	call	?AddNumberToBuffer@@YAXHPAD@Z		; AddNumberToBuffer
	add	esp, 8

; 731  :     }
; 732  :     else

	jmp	SHORT $LN1@GetWptSpee
$LN4@GetWptSpee:

; 733  : 	AddIndexedStringToBuffer(1650, cline);

	mov	edx, DWORD PTR _cline$[ebp]
	push	edx
	push	1650					; 00000672H
	call	?AddIndexedStringToBuffer@@YAXHPAD@Z	; AddIndexedStringToBuffer
	add	esp, 8
$LN1@GetWptSpee:

; 734  : }

	mov	esp, ebp
	pop	ebp
	ret	0
?GetWptSpeed@@YAXPAVWayPointClass@@0PAD@Z ENDP		; GetWptSpeed
_TEXT	ENDS
; Function compile flags: /Odtp
; File c:\users\zhitao li\documents\visual studio 2012\projects\freefalcon\campaign\campui\brief.cpp
_TEXT	SEGMENT
tv139 = -20						; size = 4
_lx$1 = -16						; size = 2
_ly$2 = -12						; size = 2
_cx$3 = -8						; size = 2
_cy$4 = -4						; size = 2
_wp$ = 8						; size = 4
_lwp$ = 12						; size = 4
_cline$ = 16						; size = 4
?GetWptDist@@YAXPAVWayPointClass@@0PAD@Z PROC		; GetWptDist

; 693  : {

	push	ebp
	mov	ebp, esp
	sub	esp, 20					; 00000014H

; 694  :     if (wp && lwp && wp->GetWPAction() != WP_REFUEL && !(wp->GetWPFlags() & WPF_ALTERNATE))

	cmp	DWORD PTR _wp$[ebp], 0
	je	$LN2@GetWptDist
	cmp	DWORD PTR _lwp$[ebp], 0
	je	SHORT $LN2@GetWptDist
	mov	ecx, DWORD PTR _wp$[ebp]
	call	?GetWPAction@WayPointClass@@QAEHXZ	; WayPointClass::GetWPAction
	cmp	eax, 4
	je	SHORT $LN2@GetWptDist
	mov	ecx, DWORD PTR _wp$[ebp]
	call	?GetWPFlags@WayPointClass@@QAEKXZ	; WayPointClass::GetWPFlags
	and	eax, 1024				; 00000400H
	jne	SHORT $LN2@GetWptDist

; 695  :     {
; 696  : 	GridIndex	lx,ly,cx,cy;
; 697  : 	lwp->GetWPLocation(&lx,&ly);

	lea	eax, DWORD PTR _ly$2[ebp]
	push	eax
	lea	ecx, DWORD PTR _lx$1[ebp]
	push	ecx
	mov	ecx, DWORD PTR _lwp$[ebp]
	call	?GetWPLocation@WayPointClass@@QBEXPAF0@Z ; WayPointClass::GetWPLocation

; 698  : 	wp->GetWPLocation(&cx,&cy);

	lea	edx, DWORD PTR _cy$4[ebp]
	push	edx
	lea	eax, DWORD PTR _cx$3[ebp]
	push	eax
	mov	ecx, DWORD PTR _wp$[ebp]
	call	?GetWPLocation@WayPointClass@@QBEXPAF0@Z ; WayPointClass::GetWPLocation

; 699  : 	AddNumberToBuffer (Distance(lx,ly,cx,cy)*KM_TO_NM, 1, cline);

	mov	ecx, DWORD PTR _cline$[ebp]
	push	ecx
	push	1
	movzx	edx, WORD PTR _cy$4[ebp]
	push	edx
	movzx	eax, WORD PTR _cx$3[ebp]
	push	eax
	movzx	ecx, WORD PTR _ly$2[ebp]
	push	ecx
	movzx	edx, WORD PTR _lx$1[ebp]
	push	edx
	call	?Distance@@YAMFFFF@Z			; Distance
	add	esp, 16					; 00000010H
	fstp	DWORD PTR tv139[ebp]
	movss	xmm0, DWORD PTR tv139[ebp]
	mulss	xmm0, DWORD PTR __real@3f0a35e2
	push	ecx
	movss	DWORD PTR [esp], xmm0
	call	?AddNumberToBuffer@@YAXMHPAD@Z		; AddNumberToBuffer
	add	esp, 12					; 0000000cH

; 700  :     }
; 701  :     else

	jmp	SHORT $LN1@GetWptDist
$LN2@GetWptDist:

; 702  : 	AddIndexedStringToBuffer(1650, cline);

	mov	eax, DWORD PTR _cline$[ebp]
	push	eax
	push	1650					; 00000672H
	call	?AddIndexedStringToBuffer@@YAXHPAD@Z	; AddIndexedStringToBuffer
	add	esp, 8
$LN1@GetWptDist:

; 703  : }

	mov	esp, ebp
	pop	ebp
	ret	0
?GetWptDist@@YAXPAVWayPointClass@@0PAD@Z ENDP		; GetWptDist
_TEXT	ENDS
; Function compile flags: /Odtp
; File c:\users\zhitao li\documents\visual studio 2012\projects\freefalcon\campaign\campui\brief.cpp
_TEXT	SEGMENT
_wp$ = 8						; size = 4
_cline$ = 12						; size = 4
?GetWpTimeToBuffer@@YAXPAVWayPointClass@@PAD@Z PROC	; GetWpTimeToBuffer

; 685  : {

	push	ebp
	mov	ebp, esp

; 686  :     if (wp->GetWPFlags() & WPF_ALTERNATE || wp->GetWPAction() == WP_REFUEL)

	mov	ecx, DWORD PTR _wp$[ebp]
	call	?GetWPFlags@WayPointClass@@QAEKXZ	; WayPointClass::GetWPFlags
	and	eax, 1024				; 00000400H
	jne	SHORT $LN2@GetWpTimeT
	mov	ecx, DWORD PTR _wp$[ebp]
	call	?GetWPAction@WayPointClass@@QAEHXZ	; WayPointClass::GetWPAction
	cmp	eax, 4
	jne	SHORT $LN3@GetWpTimeT
$LN2@GetWpTimeT:

; 687  : 	AddIndexedStringToBuffer(1650, cline);

	mov	eax, DWORD PTR _cline$[ebp]
	push	eax
	push	1650					; 00000672H
	call	?AddIndexedStringToBuffer@@YAXHPAD@Z	; AddIndexedStringToBuffer
	add	esp, 8

; 688  :     else

	jmp	SHORT $LN4@GetWpTimeT
$LN3@GetWpTimeT:

; 689  : 	AddTimeToBuffer(wp->GetWPArrivalTime(), cline);

	push	1
	mov	ecx, DWORD PTR _cline$[ebp]
	push	ecx
	mov	ecx, DWORD PTR _wp$[ebp]
	call	?GetWPArrivalTime@WayPointClass@@QAEKXZ	; WayPointClass::GetWPArrivalTime
	push	eax
	call	?AddTimeToBuffer@@YAXKPADH@Z		; AddTimeToBuffer
	add	esp, 12					; 0000000cH
$LN4@GetWpTimeT:

; 690  : }

	pop	ebp
	ret	0
?GetWpTimeToBuffer@@YAXPAVWayPointClass@@PAD@Z ENDP	; GetWpTimeToBuffer
_TEXT	ENDS
; Function compile flags: /Odtp
; File c:\users\zhitao li\documents\visual studio 2012\projects\freefalcon\campaign\campui\brief.cpp
_TEXT	SEGMENT
_wp$ = 8						; size = 4
_cline$ = 12						; size = 4
?GetWpActionToBuffer@@YAXPAVWayPointClass@@PAD@Z PROC	; GetWpActionToBuffer

; 653  : {

	push	ebp
	mov	ebp, esp

; 654  :     if (wp->GetWPAction() == WP_NOTHING)

	mov	ecx, DWORD PTR _wp$[ebp]
	call	?GetWPAction@WayPointClass@@QAEHXZ	; WayPointClass::GetWPAction
	test	eax, eax
	jne	$LN12@GetWpActio

; 655  :     {
; 656  : 	if (wp->GetWPRouteAction() == WP_NOTHING)

	mov	ecx, DWORD PTR _wp$[ebp]
	call	?GetWPRouteAction@WayPointClass@@QAEHXZ	; WayPointClass::GetWPRouteAction
	test	eax, eax
	jne	$LN11@GetWpActio

; 657  : 	{
; 658  : 	    if (wp->GetWPFlags() & WPF_BREAKPOINT)

	mov	ecx, DWORD PTR _wp$[ebp]
	call	?GetWPFlags@WayPointClass@@QAEKXZ	; WayPointClass::GetWPFlags
	and	eax, 4
	je	SHORT $LN10@GetWpActio

; 659  : 		AddStringToBuffer(WPActStr[31], cline);

	mov	eax, DWORD PTR _cline$[ebp]
	push	eax
	mov	ecx, 20					; 00000014H
	imul	ecx, 31					; 0000001fH
	add	ecx, OFFSET ?WPActStr@@3PAY0BE@DA	; WPActStr
	push	ecx
	call	?AddStringToBuffer@@YAXPAD0@Z		; AddStringToBuffer
	add	esp, 8
	jmp	$LN9@GetWpActio
$LN10@GetWpActio:

; 660  : 	    //	AddIndexedStringToBuffer(381, cline);
; 661  : 	    else if (wp->GetWPFlags() & WPF_IP)

	mov	ecx, DWORD PTR _wp$[ebp]
	call	?GetWPFlags@WayPointClass@@QAEKXZ	; WayPointClass::GetWPFlags
	and	eax, 8
	je	SHORT $LN8@GetWpActio

; 662  : 		AddStringToBuffer(WPActStr[32], cline);

	mov	edx, DWORD PTR _cline$[ebp]
	push	edx
	mov	eax, 20					; 00000014H
	shl	eax, 5
	add	eax, OFFSET ?WPActStr@@3PAY0BE@DA	; WPActStr
	push	eax
	call	?AddStringToBuffer@@YAXPAD0@Z		; AddStringToBuffer
	add	esp, 8
	jmp	SHORT $LN9@GetWpActio
$LN8@GetWpActio:

; 663  : 	    //	AddIndexedStringToBuffer(382, cline);
; 664  : 	    else if (wp->GetWPFlags() & WPF_TURNPOINT)

	mov	ecx, DWORD PTR _wp$[ebp]
	call	?GetWPFlags@WayPointClass@@QAEKXZ	; WayPointClass::GetWPFlags
	and	eax, 16					; 00000010H
	je	SHORT $LN6@GetWpActio

; 665  : 		AddStringToBuffer(WPActStr[33], cline);

	mov	ecx, DWORD PTR _cline$[ebp]
	push	ecx
	mov	edx, 20					; 00000014H
	imul	edx, 33					; 00000021H
	add	edx, OFFSET ?WPActStr@@3PAY0BE@DA	; WPActStr
	push	edx
	call	?AddStringToBuffer@@YAXPAD0@Z		; AddStringToBuffer
	add	esp, 8
	jmp	SHORT $LN9@GetWpActio
$LN6@GetWpActio:

; 666  : 	    //	AddIndexedStringToBuffer(383, cline);
; 667  : 	    else if (wp->GetWPFlags() & WPF_CP)

	mov	ecx, DWORD PTR _wp$[ebp]
	call	?GetWPFlags@WayPointClass@@QAEKXZ	; WayPointClass::GetWPFlags
	and	eax, 32					; 00000020H
	je	SHORT $LN4@GetWpActio

; 668  : 		AddStringToBuffer(WPActStr[WP_CASCP], cline);

	mov	eax, DWORD PTR _cline$[ebp]
	push	eax
	mov	ecx, 20					; 00000014H
	imul	ecx, 9
	add	ecx, OFFSET ?WPActStr@@3PAY0BE@DA	; WPActStr
	push	ecx
	call	?AddStringToBuffer@@YAXPAD0@Z		; AddStringToBuffer
	add	esp, 8

; 669  : 	    //	AddIndexedStringToBuffer(359, cline);
; 670  : 	    else

	jmp	SHORT $LN9@GetWpActio
$LN4@GetWpActio:

; 671  : 		AddStringToBuffer(WPActStr[0], cline);

	mov	edx, DWORD PTR _cline$[ebp]
	push	edx
	mov	eax, 20					; 00000014H
	imul	eax, 0
	add	eax, OFFSET ?WPActStr@@3PAY0BE@DA	; WPActStr
	push	eax
	call	?AddStringToBuffer@@YAXPAD0@Z		; AddStringToBuffer
	add	esp, 8
$LN9@GetWpActio:

; 672  : 	    //	AddIndexedStringToBuffer(350, cline);
; 673  : 	}
; 674  : 	else {

	jmp	SHORT $LN2@GetWpActio
$LN11@GetWpActio:

; 675  : 	    AddStringToBuffer(WPActStr[wp->GetWPRouteAction()], cline);

	mov	ecx, DWORD PTR _cline$[ebp]
	push	ecx
	mov	ecx, DWORD PTR _wp$[ebp]
	call	?GetWPRouteAction@WayPointClass@@QAEHXZ	; WayPointClass::GetWPRouteAction
	imul	eax, 20					; 00000014H
	add	eax, OFFSET ?WPActStr@@3PAY0BE@DA	; WPActStr
	push	eax
	call	?AddStringToBuffer@@YAXPAD0@Z		; AddStringToBuffer
	add	esp, 8
$LN2@GetWpActio:

; 676  : 	//  AddIndexedStringToBuffer(350+wp->GetWPRouteAction(), cline);
; 677  : 	}
; 678  :     }
; 679  :     else

	jmp	SHORT $LN13@GetWpActio
$LN12@GetWpActio:

; 680  : 	AddStringToBuffer(WPActStr[wp->GetWPAction()], cline);

	mov	edx, DWORD PTR _cline$[ebp]
	push	edx
	mov	ecx, DWORD PTR _wp$[ebp]
	call	?GetWPAction@WayPointClass@@QAEHXZ	; WayPointClass::GetWPAction
	imul	eax, 20					; 00000014H
	add	eax, OFFSET ?WPActStr@@3PAY0BE@DA	; WPActStr
	push	eax
	call	?AddStringToBuffer@@YAXPAD0@Z		; AddStringToBuffer
	add	esp, 8
$LN13@GetWpActio:

; 681  : 	// AddIndexedStringToBuffer(350+wp->GetWPAction(), cline);
; 682  : }

	pop	ebp
	ret	0
?GetWpActionToBuffer@@YAXPAVWayPointClass@@PAD@Z ENDP	; GetWpActionToBuffer
_TEXT	ENDS
; Function compile flags: /Odtp
; File c:\users\zhitao li\documents\visual studio 2012\projects\freefalcon\campaign\campui\brief.cpp
_TEXT	SEGMENT
_x$ = 8							; size = 4
_y$ = 12						; size = 4
_buffer$ = 16						; size = 4
_window$ = 20						; size = 4
_output$ = 24						; size = 4
?GetCurrentBriefXY@@YAXPAH0PADPAVC_Window@@1@Z PROC	; GetCurrentBriefXY

; 818  : 	{

	push	ebp
	mov	ebp, esp

; 819  : 	// KCK: The only way we can REALLY know current x & y position is to have the UI add it for us
; 820  : 	// (and therefore do all appropriate wrapping, compression of spaces, etc, etc)
; 821  : 	AddStringToBrief(buffer, window, output);

	mov	eax, DWORD PTR _output$[ebp]
	push	eax
	mov	ecx, DWORD PTR _window$[ebp]
	push	ecx
	mov	edx, DWORD PTR _buffer$[ebp]
	push	edx
	call	?AddStringToBrief@@YAXPADPAVC_Window@@0@Z ; AddStringToBrief
	add	esp, 12					; 0000000cH

; 822  : 	*x = CBX;

	movsx	eax, WORD PTR _CBX
	mov	ecx, DWORD PTR _x$[ebp]
	mov	DWORD PTR [ecx], eax

; 823  : 	*y = CBY;

	movsx	edx, WORD PTR _CBY
	mov	eax, DWORD PTR _y$[ebp]
	mov	DWORD PTR [eax], edx

; 824  : }

	pop	ebp
	ret	0
?GetCurrentBriefXY@@YAXPAH0PADPAVC_Window@@1@Z ENDP	; GetCurrentBriefXY
_TEXT	ENDS
; Function compile flags: /Odtp
; File c:\users\zhitao li\documents\visual studio 2012\projects\freefalcon\campaign\campui\brief.cpp
_TEXT	SEGMENT
_eol$1 = -4						; size = 2
_buffer$ = 8						; size = 4
_window$ = 12						; size = 4
_output$ = 16						; size = 4
?AddEOLToBrief@@YAXPADPAVC_Window@@0@Z PROC		; AddEOLToBrief

; 873  : 	{

	push	ebp
	mov	ebp, esp
	push	ecx

; 874  : 	// Dump current line
; 875  : 	AddStringToBrief(buffer, window, output);

	mov	eax, DWORD PTR _output$[ebp]
	push	eax
	mov	ecx, DWORD PTR _window$[ebp]
	push	ecx
	mov	edx, DWORD PTR _buffer$[ebp]
	push	edx
	call	?AddStringToBrief@@YAXPADPAVC_Window@@0@Z ; AddStringToBrief
	add	esp, 12					; 0000000cH

; 876  : 	if (window)

	cmp	DWORD PTR _window$[ebp], 0
	je	SHORT $LN3@AddEOLToBr

; 877  : 		CBY += gFontList->GetHeight(window->Font_);

	mov	eax, DWORD PTR _window$[ebp]
	mov	ecx, DWORD PTR [eax+108]
	push	ecx
	mov	ecx, DWORD PTR ?gFontList@@3PAVC_Font@@A ; gFontList
	call	?GetHeight@C_Font@@QAEHJ@Z		; C_Font::GetHeight
	movsx	edx, WORD PTR _CBY
	add	edx, eax
	mov	WORD PTR _CBY, dx
	jmp	SHORT $LN2@AddEOLToBr
$LN3@AddEOLToBr:

; 878  : 	else if (output)

	cmp	DWORD PTR _output$[ebp], 0
	je	SHORT $LN2@AddEOLToBr

; 879  : 		{
; 880  : 		// Insert linefeed
; 881  : 		_TCHAR		eol[2] = "\n";

	mov	ax, WORD PTR ??_C@_01EEMJAFIK@?6?$AA@
	mov	WORD PTR _eol$1[ebp], ax

; 882  : 		AddStringToBrief(eol, window, output);

	mov	ecx, DWORD PTR _output$[ebp]
	push	ecx
	mov	edx, DWORD PTR _window$[ebp]
	push	edx
	lea	eax, DWORD PTR _eol$1[ebp]
	push	eax
	call	?AddStringToBrief@@YAXPADPAVC_Window@@0@Z ; AddStringToBrief
	add	esp, 12					; 0000000cH

; 883  : 		CCurrentLine = 0;

	mov	DWORD PTR _CCurrentLine, 0
$LN2@AddEOLToBr:

; 884  : 		}
; 885  : 	CBX = 0;

	xor	ecx, ecx
	mov	WORD PTR _CBX, cx

; 886  : 	CLineStart = 0;

	mov	DWORD PTR _CLineStart, 0

; 887  : 	}

	mov	esp, ebp
	pop	ebp
	ret	0
?AddEOLToBrief@@YAXPADPAVC_Window@@0@Z ENDP		; AddEOLToBrief
_TEXT	ENDS
; Function compile flags: /Odtp
; File c:\users\zhitao li\documents\visual studio 2012\projects\freefalcon\campaign\campui\brief.cpp
_TEXT	SEGMENT
_txttab$1 = -4						; size = 2
_tab$ = 8						; size = 4
_buffer$ = 12						; size = 4
_window$ = 16						; size = 4
_output$ = 20						; size = 4
?AddTabToDebrief@@YAXHPADPAVC_Window@@0@Z PROC		; AddTabToDebrief

; 855  : {

	push	ebp
	mov	ebp, esp
	push	ecx

; 856  :     AddStringToBrief(buffer, window, output);

	mov	eax, DWORD PTR _output$[ebp]
	push	eax
	mov	ecx, DWORD PTR _window$[ebp]
	push	ecx
	mov	edx, DWORD PTR _buffer$[ebp]
	push	edx
	call	?AddStringToBrief@@YAXPADPAVC_Window@@0@Z ; AddStringToBrief
	add	esp, 12					; 0000000cH

; 857  :     if (window)

	cmp	DWORD PTR _window$[ebp], 0
	je	SHORT $LN2@AddTabToDe

; 858  :     {
; 859  : 		CBX = tab;

	mov	ax, WORD PTR _tab$[ebp]
	mov	WORD PTR _CBX, ax

; 860  : 		CLineStart = CBX;

	movsx	ecx, WORD PTR _CBX
	mov	DWORD PTR _CLineStart, ecx

; 861  :     }
; 862  :     else

	jmp	SHORT $LN3@AddTabToDe
$LN2@AddTabToDe:

; 863  :     {
; 864  : 		tab /= 10;

	mov	eax, DWORD PTR _tab$[ebp]
	cdq
	mov	ecx, 10					; 0000000aH
	idiv	ecx
	mov	DWORD PTR _tab$[ebp], eax

; 865  : 		_TCHAR		txttab[2] = " ";

	mov	dx, WORD PTR ??_C@_01CLKCMJKC@?5?$AA@
	mov	WORD PTR _txttab$1[ebp], dx

; 866  : 			//do {
; 867  : 				AddStringToBrief(txttab, window, output);

	mov	eax, DWORD PTR _output$[ebp]
	push	eax
	mov	ecx, DWORD PTR _window$[ebp]
	push	ecx
	lea	edx, DWORD PTR _txttab$1[ebp]
	push	edx
	call	?AddStringToBrief@@YAXPADPAVC_Window@@0@Z ; AddStringToBrief
	add	esp, 12					; 0000000cH
$LN3@AddTabToDe:

; 868  : 			//} while (CBX < tab-1);
; 869  :     }
; 870  : }

	mov	esp, ebp
	pop	ebp
	ret	0
?AddTabToDebrief@@YAXHPADPAVC_Window@@0@Z ENDP		; AddTabToDebrief
_TEXT	ENDS
; Function compile flags: /Odtp
; File c:\users\zhitao li\documents\visual studio 2012\projects\freefalcon\campaign\campui\brief.cpp
_TEXT	SEGMENT
_txttab$1 = -16						; size = 2
_htmltab$2 = -12					; size = 5
__$ArrayPad$ = -4					; size = 4
_tab$ = 8						; size = 4
_buffer$ = 12						; size = 4
_window$ = 16						; size = 4
_output$ = 20						; size = 4
?AddTabToBrief@@YAXHPADPAVC_Window@@0@Z PROC		; AddTabToBrief

; 827  : {

	push	ebp
	mov	ebp, esp
	sub	esp, 16					; 00000010H
	mov	eax, DWORD PTR ___security_cookie
	xor	eax, ebp
	mov	DWORD PTR __$ArrayPad$[ebp], eax

; 828  :     // We have to dump our current line in order to goto a new location
; 829  :     AddStringToBrief(buffer, window, output);

	mov	eax, DWORD PTR _output$[ebp]
	push	eax
	mov	ecx, DWORD PTR _window$[ebp]
	push	ecx
	mov	edx, DWORD PTR _buffer$[ebp]
	push	edx
	call	?AddStringToBrief@@YAXPADPAVC_Window@@0@Z ; AddStringToBrief
	add	esp, 12					; 0000000cH

; 830  :     if (window)

	cmp	DWORD PTR _window$[ebp], 0
	je	SHORT $LN4@AddTabToBr

; 831  :     {
; 832  : 		CBX = tab;

	mov	ax, WORD PTR _tab$[ebp]
	mov	WORD PTR _CBX, ax

; 833  : 		CLineStart = CBX;

	movsx	ecx, WORD PTR _CBX
	mov	DWORD PTR _CLineStart, ecx

; 834  :     }
; 835  :     else

	jmp	SHORT $LN5@AddTabToBr
$LN4@AddTabToBr:

; 836  :     {
; 837  : 		tab /= 10;

	mov	eax, DWORD PTR _tab$[ebp]
	cdq
	mov	ecx, 10					; 0000000aH
	idiv	ecx
	mov	DWORD PTR _tab$[ebp], eax

; 838  : 		// Insert spaces until we get to the right location
; 839  : 		// JPO - rework this so we always get at least one separator
; 840  : 		_TCHAR		htmltab[5] = "<td>";

	mov	edx, DWORD PTR ??_C@_04LHEKBCCP@?$DMtd?$DO?$AA@
	mov	DWORD PTR _htmltab$2[ebp], edx
	mov	al, BYTE PTR ??_C@_04LHEKBCCP@?$DMtd?$DO?$AA@+4
	mov	BYTE PTR _htmltab$2[ebp+4], al

; 841  : 		_TCHAR		txttab[2] = "\t";

	mov	cx, WORD PTR ??_C@_01GPOEFGEJ@?7?$AA@
	mov	WORD PTR _txttab$1[ebp], cx

; 842  : 		if (g_bBriefHTML)

	movzx	edx, BYTE PTR ?g_bBriefHTML@@3_NA	; g_bBriefHTML
	test	edx, edx
	je	SHORT $LN2@AddTabToBr

; 843  : 				AddStringToBrief(htmltab, window, output);

	mov	eax, DWORD PTR _output$[ebp]
	push	eax
	mov	ecx, DWORD PTR _window$[ebp]
	push	ecx
	lea	edx, DWORD PTR _htmltab$2[ebp]
	push	edx
	call	?AddStringToBrief@@YAXPADPAVC_Window@@0@Z ; AddStringToBrief
	add	esp, 12					; 0000000cH

; 844  : 		else

	jmp	SHORT $LN5@AddTabToBr
$LN2@AddTabToBr:

; 845  : 		{
; 846  : 			//do {
; 847  : 				//_TCHAR		space[2] = " "; //THW get a real tab for better layout in files and printout
; 848  : 				AddStringToBrief(txttab, window, output);

	mov	eax, DWORD PTR _output$[ebp]
	push	eax
	mov	ecx, DWORD PTR _window$[ebp]
	push	ecx
	lea	edx, DWORD PTR _txttab$1[ebp]
	push	edx
	call	?AddStringToBrief@@YAXPADPAVC_Window@@0@Z ; AddStringToBrief
	add	esp, 12					; 0000000cH
$LN5@AddTabToBr:

; 849  : 			//} while (CBX < tab-1);
; 850  : 		}
; 851  :     }
; 852  : }

	mov	ecx, DWORD PTR __$ArrayPad$[ebp]
	xor	ecx, ebp
	call	@__security_check_cookie@4
	mov	esp, ebp
	pop	ebp
	ret	0
?AddTabToBrief@@YAXHPADPAVC_Window@@0@Z ENDP		; AddTabToBrief
_TEXT	ENDS
; Function compile flags: /Odtp
; File c:\users\zhitao li\documents\visual studio 2012\projects\freefalcon\campaign\campui\brief.cpp
_TEXT	SEGMENT
_buffer$ = 8						; size = 4
_window$ = 12						; size = 4
_output$ = 16						; size = 4
?AddStringToBrief@@YAXPADPAVC_Window@@0@Z PROC		; AddStringToBrief

; 793  : 	{

	push	ebp
	mov	ebp, esp
	push	esi

; 794  : 	if (!buffer[0])

	mov	eax, 1
	imul	eax, 0
	mov	ecx, DWORD PTR _buffer$[ebp]
	movsx	edx, BYTE PTR [ecx+eax]
	test	edx, edx
	jne	SHORT $LN4@AddStringT

; 795  : 		return;

	jmp	$LN5@AddStringT
$LN4@AddStringT:

; 796  : 	if (window)

	cmp	DWORD PTR _window$[ebp], 0
	je	SHORT $LN3@AddStringT

; 797  : 		AddWordWrapTextToWindow(window, &CBX, &CBY, 
; 798  : 			static_cast<short>(CLineStart), 
; 799  : 			static_cast<short>(window->ClientArea_[0].right - window->ClientArea_[0].left - 10),
; 800  : 			CBColor, buffer);

	push	0
	mov	eax, DWORD PTR _buffer$[ebp]
	push	eax
	mov	ecx, DWORD PTR _CBColor
	push	ecx
	mov	edx, 16					; 00000010H
	imul	edx, 0
	mov	eax, 16					; 00000010H
	imul	eax, 0
	mov	ecx, DWORD PTR _window$[ebp]
	mov	esi, DWORD PTR _window$[ebp]
	mov	edx, DWORD PTR [ecx+edx+176]
	sub	edx, DWORD PTR [esi+eax+168]
	sub	edx, 10					; 0000000aH
	push	edx
	movzx	eax, WORD PTR _CLineStart
	push	eax
	push	OFFSET _CBY
	push	OFFSET _CBX
	mov	ecx, DWORD PTR _window$[ebp]
	push	ecx
	call	?AddWordWrapTextToWindow@@YAHPAVC_Window@@PAF1FFKPADJ@Z ; AddWordWrapTextToWindow
	add	esp, 32					; 00000020H

; 801  : 	else

	jmp	SHORT $LN2@AddStringT
$LN3@AddStringT:

; 802  : 		{
; 803  : 	    ShiAssert(output != buffer);
; 804  : 		_tcscat(output,buffer);

	mov	edx, DWORD PTR _buffer$[ebp]
	push	edx
	mov	eax, DWORD PTR _output$[ebp]
	push	eax
	call	_strcat
	add	esp, 8

; 805  : 		if (!CCurrentLine)

	cmp	DWORD PTR _CCurrentLine, 0
	jne	SHORT $LN1@AddStringT

; 806  : 			CCurrentLine = output;

	mov	ecx, DWORD PTR _output$[ebp]
	mov	DWORD PTR _CCurrentLine, ecx
$LN1@AddStringT:

; 807  : #if 0 // this isn't helping the print out.
; 808  : 		if (gFontList)
; 809  : 		    CBX = CLineStart + gFontList->StrWidth(BDefaultFont,CCurrentLine);
; 810  : 		else 
; 811  : #endif
; 812  : 		    CBX = CLineStart + strlen(CCurrentLine);

	mov	edx, DWORD PTR _CCurrentLine
	push	edx
	call	_strlen
	add	esp, 4
	add	eax, DWORD PTR _CLineStart
	mov	WORD PTR _CBX, ax
$LN2@AddStringT:

; 813  : 		}
; 814  : 	buffer[0] = 0;

	mov	eax, 1
	imul	eax, 0
	mov	ecx, DWORD PTR _buffer$[ebp]
	mov	BYTE PTR [ecx+eax], 0
$LN5@AddStringT:

; 815  : 	}

	pop	esi
	pop	ebp
	ret	0
?AddStringToBrief@@YAXPADPAVC_Window@@0@Z ENDP		; AddStringToBrief
_TEXT	ENDS
; Function compile flags: /Odtp
; File c:\users\zhitao li\documents\visual studio 2012\projects\freefalcon\campaign\campui\brief.cpp
_TEXT	SEGMENT
_CBXtemp$1 = -8						; size = 2
_CBYtemp$2 = -4						; size = 2
_window$ = 8						; size = 4
?AddHorizontalLineToBrief@@YAXPAVC_Window@@@Z PROC	; AddHorizontalLineToBrief

; 781  : 	{

	push	ebp
	mov	ebp, esp
	sub	esp, 8
	push	esi

; 782  : 	if (window)

	cmp	DWORD PTR _window$[ebp], 0
	je	SHORT $LN2@AddHorizon

; 783  : 		{
; 784  : 		short		CBYtemp = CBY + gFontList->GetHeight(window->Font_)/2;

	movsx	esi, WORD PTR _CBY
	mov	eax, DWORD PTR _window$[ebp]
	mov	ecx, DWORD PTR [eax+108]
	push	ecx
	mov	ecx, DWORD PTR ?gFontList@@3PAVC_Font@@A ; gFontList
	call	?GetHeight@C_Font@@QAEHJ@Z		; C_Font::GetHeight
	cdq
	sub	eax, edx
	sar	eax, 1
	add	esi, eax
	mov	WORD PTR _CBYtemp$2[ebp], si

; 785  : 		short		CBXtemp = 0;

	xor	edx, edx
	mov	WORD PTR _CBXtemp$1[ebp], dx

; 786  : 		AddHorizontalLineToWindow (window ,&CBXtemp, &CBYtemp, 
; 787  : 			0, static_cast<short>(window->ClientArea_[0].right - window->ClientArea_[0].left - 10),
; 788  : 			CBColor);

	push	0
	mov	eax, DWORD PTR _CBColor
	push	eax
	mov	ecx, 16					; 00000010H
	imul	ecx, 0
	mov	edx, 16					; 00000010H
	imul	edx, 0
	mov	eax, DWORD PTR _window$[ebp]
	mov	esi, DWORD PTR _window$[ebp]
	mov	ecx, DWORD PTR [eax+ecx+176]
	sub	ecx, DWORD PTR [esi+edx+168]
	sub	ecx, 10					; 0000000aH
	push	ecx
	push	0
	lea	edx, DWORD PTR _CBYtemp$2[ebp]
	push	edx
	lea	eax, DWORD PTR _CBXtemp$1[ebp]
	push	eax
	mov	ecx, DWORD PTR _window$[ebp]
	push	ecx
	call	?AddHorizontalLineToWindow@@YAXPAVC_Window@@PAF1FFKJ@Z ; AddHorizontalLineToWindow
	add	esp, 28					; 0000001cH
$LN2@AddHorizon:

; 789  : 		}
; 790  : 	}

	pop	esi
	mov	esp, ebp
	pop	ebp
	ret	0
?AddHorizontalLineToBrief@@YAXPAVC_Window@@@Z ENDP	; AddHorizontalLineToBrief
_TEXT	ENDS
; Function compile flags: /Odtp
; File c:\users\zhitao li\documents\visual studio 2012\projects\freefalcon\campaign\campui\brief.cpp
_TEXT	SEGMENT
$T2 = -8572						; size = 8
$T3 = -8564						; size = 8
$T4 = -8556						; size = 8
$T5 = -8548						; size = 8
tv5118 = -8540						; size = 8
tv4048 = -8532						; size = 8
_myit$6 = -8524						; size = 12
_vc$7 = -8512						; size = 4
_vc$8 = -8508						; size = 4
_pack$9 = -8504						; size = 4
_cc$10 = -8500						; size = 4
_vc$11 = -8496						; size = 4
_o$12 = -8492						; size = 4
_fc$13 = -8488						; size = 4
_o$14 = -8484						; size = 4
_flight$15 = -8480					; size = 4
_oper$16 = -8476					; size = 4
_flight$17 = -8472					; size = 4
_vc$18 = -8468						; size = 4
_flight$19 = -8464					; size = 4
_uc$20 = -8460						; size = 4
_vc$21 = -8456						; size = 4
_fc$22 = -8452						; size = 4
_vc$23 = -8448						; size = 4
_vc$24 = -8444						; size = 4
_fc$25 = -8440						; size = 4
_pack$26 = -8436					; size = 4
_vc$27 = -8432						; size = 4
_flight$28 = -8428					; size = 4
_flight$29 = -8424					; size = 4
_pack$30 = -8420					; size = 4
_flight$31 = -8416					; size = 4
_flight$32 = -8412					; size = 4
_pack$33 = -8408					; size = 4
_flight$34 = -8404					; size = 4
_wid$35 = -8400						; size = 4
_fptr$36 = -8396					; size = 4
tv4044 = -8392						; size = 4
tv921 = -8388						; size = 4
tv159 = -8384						; size = 4
tv1137 = -8380						; size = 4
_o$37 = -8376						; size = 4
_ot$38 = -8372						; size = 4
_skip$39 = -8368					; size = 4
tv1246 = -8364						; size = 4
_fc$40 = -8360						; size = 4
tv1123 = -8356						; size = 4
_alt$41 = -8352						; size = 4
_wid$42 = -8348						; size = 4
tv5114 = -8344						; size = 4
_done$ = -8340						; size = 4
_eaa$43 = -8336						; size = 4
_y$44 = -8332						; size = 2
_x$45 = -8328						; size = 2
tv2310 = -8324						; size = 4
_eol$ = -8320						; size = 2
_o$46 = -8316						; size = 4
_f$47 = -8312						; size = 4
_vc$48 = -8308						; size = 4
_got$49 = -8304						; size = 4
_sptr$50 = -8300					; size = 4
_font$ = -8296						; size = 4
_re$51 = -8292						; size = 4
_reversedWindHeading$52 = -8288				; size = 4
_mission_context$53 = -8284				; size = 4
_j$54 = -8280						; size = 4
tv2072 = -8276						; size = 4
_tar$55 = -8272						; size = 4
_i$56 = -8268						; size = 4
_nw$57 = -8264						; size = 4
_losses$58 = -8260					; size = 4
_slot$59 = -8256					; size = 4
_fp$ = -8252						; size = 4
_i$60 = -8248						; size = 4
_jstar$61 = -8244					; size = 4
_awacs$62 = -8240					; size = 4
_mission_context$63 = -8236				; size = 4
_tanker$64 = -8232					; size = 4
_u$65 = -8228						; size = 4
_ecm$66 = -8224						; size = 4
_fptr$67 = -8220					; size = 4
_u$68 = -8216						; size = 4
_ent$69 = -8212						; size = 4
_seconds_off$70 = -8208					; size = 4
_strCount$71 = -8204					; size = 4
_success$72 = -8200					; size = 4
_target$ = -8196					; size = 4
_strCount$73 = -8192					; size = 4
_re$74 = -8188						; size = 4
_x$75 = -8184						; size = 2
_y$76 = -8180						; size = 2
_ptarget$ = -8176					; size = 4
_tar$77 = -8172						; size = 4
_i$ = -8168						; size = 4
_curr_stack$ = -8164					; size = 4
_sptr$ = -8160						; size = 4
_data$78 = -8156					; size = 44
_data$79 = -8112					; size = 44
_stack_active$ = -8068					; size = 40
_result$80 = -8028					; size = 1024
_context$81 = -7004					; size = 1024
_total$82 = -5980					; size = 512
_total$83 = -5468					; size = 512
_format$84 = -4956					; size = 256
_format$85 = -4700					; size = 256
_str$86 = -4444						; size = 1280
_str$87 = -3164						; size = 1280
_names$88 = -1884					; size = 150
_name$89 = -1732					; size = 128
_name$90 = -1604					; size = 128
_name$91 = -1476					; size = 128
_name$92 = -1348					; size = 128
_szTemp$93 = -1220					; size = 256
_name$94 = -964						; size = 81
_name$95 = -880						; size = 81
_name$96 = -796						; size = 81
_wstring$97 = -712					; size = 80
_tstring$98 = -632					; size = 80
_name$99 = -552						; size = 80
_objective$100 = -472					; size = 40
_objective$101 = -432					; size = 40
_buffer$102 = -392					; size = 40
_time$103 = -352					; size = 40
_time$104 = -312					; size = 40
_string$105 = -272					; size = 32
_string$106 = -240					; size = 32
_string$107 = -208					; size = 32
_string$108 = -176					; size = 32
_token$ = -144						; size = 128
__$ArrayPad$ = -16					; size = 4
__$EHRec$ = -12						; size = 12
_filename$ = 8						; size = 4
_current_line$ = 12					; size = 4
_win$ = 16						; size = 4
_brief$ = 20						; size = 4
_mec$ = 24						; size = 4
_flight_data$ = 28					; size = 4
?ReadScriptedBriefFile@@YAHPAD0PAVC_Window@@0PAVMissionEvaluationClass@@PAVFlightDataClass@@@Z PROC ; ReadScriptedBriefFile

; 1592 : 	{

	push	ebp
	mov	ebp, esp
	push	-1
	push	__ehhandler$?ReadScriptedBriefFile@@YAHPAD0PAVC_Window@@0PAVMissionEvaluationClass@@PAVFlightDataClass@@@Z
	mov	eax, DWORD PTR fs:0
	push	eax
	mov	eax, 8560				; 00002170H
	call	__chkstk
	mov	eax, DWORD PTR ___security_cookie
	xor	eax, ebp
	mov	DWORD PTR __$ArrayPad$[ebp], eax
	push	esi
	push	eax
	lea	eax, DWORD PTR __$EHRec$[ebp]
	mov	DWORD PTR fs:0, eax

; 1593 : 	FILE*		fp;
; 1594 : 	int			i,font=0,done=0,curr_stack=0,stack_active[MAX_STACK] = { 1 };

	mov	DWORD PTR _font$[ebp], 0
	mov	DWORD PTR _done$[ebp], 0
	mov	DWORD PTR _curr_stack$[ebp], 0
	mov	DWORD PTR _stack_active$[ebp], 1
	xor	eax, eax
	mov	DWORD PTR _stack_active$[ebp+4], eax
	mov	DWORD PTR _stack_active$[ebp+8], eax
	mov	DWORD PTR _stack_active$[ebp+12], eax
	mov	DWORD PTR _stack_active$[ebp+16], eax
	mov	DWORD PTR _stack_active$[ebp+20], eax
	mov	DWORD PTR _stack_active$[ebp+24], eax
	mov	DWORD PTR _stack_active$[ebp+28], eax
	mov	DWORD PTR _stack_active$[ebp+32], eax
	mov	DWORD PTR _stack_active$[ebp+36], eax

; 1595 : 	char		token[128],*sptr;
; 1596 : 	_TCHAR		eol[2] = { '\n', 0 };

	mov	BYTE PTR _eol$[ebp], 10			; 0000000aH
	mov	BYTE PTR _eol$[ebp+1], 0

; 1597 : 	CampEntity	target,ptarget;
; 1598 : 
; 1599 : 	if (!mec || !mec->flight_data || !mec->flight_data->camp_id)

	cmp	DWORD PTR _mec$[ebp], 0
	je	SHORT $LN594@ReadScript
	mov	ecx, DWORD PTR _mec$[ebp]
	cmp	DWORD PTR [ecx+204], 0
	je	SHORT $LN594@ReadScript
	mov	edx, DWORD PTR _mec$[ebp]
	mov	eax, DWORD PTR [edx+204]
	movsx	ecx, WORD PTR [eax+36]
	test	ecx, ecx
	jne	SHORT $LN595@ReadScript
$LN594@ReadScript:

; 1600 : 		return 0;

	xor	eax, eax
	jmp	$LN596@ReadScript
$LN595@ReadScript:

; 1601 : 
; 1602 : 	if ((fp = OpenCampFile(filename,"","r")) == NULL)

	push	OFFSET ??_C@_01KDCPPGHE@r?$AA@
	push	OFFSET ??_C@_00CNPNBAHC@?$AA@
	mov	edx, DWORD PTR _filename$[ebp]
	push	edx
	call	?OpenCampFile@@YAPAU_iobuf@@PAD00@Z	; OpenCampFile
	add	esp, 12					; 0000000cH
	mov	DWORD PTR _fp$[ebp], eax
	cmp	DWORD PTR _fp$[ebp], 0
	jne	SHORT $LN593@ReadScript

; 1603 : 		return 0;

	xor	eax, eax
	jmp	$LN596@ReadScript
$LN593@ReadScript:

; 1604 : 	
; 1605 : 	if (F4IsBadReadPtr(flight_data, sizeof(FlightDataClass))) // JB 010305 CTD

	push	168					; 000000a8H
	mov	eax, DWORD PTR _flight_data$[ebp]
	push	eax
	call	?F4IsBadReadPtr@@YA_NPBXI@Z		; F4IsBadReadPtr
	add	esp, 8
	movzx	ecx, al
	test	ecx, ecx
	je	SHORT $LN592@ReadScript

; 1606 : 		return 0;

	xor	eax, eax
	jmp	$LN596@ReadScript
$LN592@ReadScript:

; 1607 : 
; 1608 : 	target = FindEntity(flight_data->target_id);

	mov	edx, DWORD PTR _flight_data$[ebp]
	mov	eax, DWORD PTR [edx+76]
	push	eax
	mov	ecx, DWORD PTR [edx+72]
	push	ecx
	call	?FindEntity@@YAPAVCampBaseClass@@VVU_ID@@@Z ; FindEntity
	add	esp, 8
	mov	DWORD PTR _target$[ebp], eax

; 1609 : 	ptarget = FindEntity(mec->package_target_id);

	mov	edx, DWORD PTR _mec$[ebp]
	mov	eax, DWORD PTR [edx+120]
	push	eax
	mov	ecx, DWORD PTR [edx+116]
	push	ecx
	call	?FindEntity@@YAPAVCampBaseClass@@VVU_ID@@@Z ; FindEntity
	add	esp, 8
	mov	DWORD PTR _ptarget$[ebp], eax
$LN617@ReadScript:

; 1610 : 
; 1611 : 	while (!done)

	cmp	DWORD PTR _done$[ebp], 0
	jne	$LN590@ReadScript

; 1612 : 		{
; 1613 : 		ReadComments(fp);

	mov	edx, DWORD PTR _fp$[ebp]
	push	edx
	call	?ReadComments@@YAXPAU_iobuf@@@Z		; ReadComments
	add	esp, 4

; 1614 : 		ReadToken(fp,token,120);

	push	120					; 00000078H
	lea	eax, DWORD PTR _token$[ebp]
	push	eax
	mov	ecx, DWORD PTR _fp$[ebp]
	push	ecx
	call	?ReadToken@@YAPADPAU_iobuf@@QADH@Z	; ReadToken
	add	esp, 12					; 0000000cH

; 1615 : 		if (!token[0])

	mov	edx, 1
	imul	edx, 0
	movsx	eax, BYTE PTR _token$[ebp+edx]
	test	eax, eax
	jne	SHORT $LN589@ReadScript

; 1616 : 			continue;

	jmp	SHORT $LN617@ReadScript
$LN589@ReadScript:

; 1617 : 
; 1618 : 		// Handle standard tokens
; 1619 : 		if (strncmp(token,"#IF",3)==0)

	push	3
	push	OFFSET ??_C@_03LFFEHOPP@?$CDIF?$AA@
	lea	ecx, DWORD PTR _token$[ebp]
	push	ecx
	call	_strncmp
	add	esp, 12					; 0000000cH
	test	eax, eax
	jne	SHORT $LN588@ReadScript

; 1620 : 			{
; 1621 : 			curr_stack++;

	mov	edx, DWORD PTR _curr_stack$[ebp]
	add	edx, 1
	mov	DWORD PTR _curr_stack$[ebp], edx

; 1622 : 			if (!stack_active[curr_stack-1])

	mov	eax, DWORD PTR _curr_stack$[ebp]
	cmp	DWORD PTR _stack_active$[ebp+eax*4-4], 0
	jne	SHORT $LN587@ReadScript

; 1623 : 				stack_active[curr_stack] = 0;

	mov	ecx, DWORD PTR _curr_stack$[ebp]
	mov	DWORD PTR _stack_active$[ebp+ecx*4], 0

; 1624 : 			else

	jmp	SHORT $LN586@ReadScript
$LN587@ReadScript:

; 1625 : 				stack_active[curr_stack] = 1;

	mov	edx, DWORD PTR _curr_stack$[ebp]
	mov	DWORD PTR _stack_active$[ebp+edx*4], 1
$LN586@ReadScript:
	jmp	$LN577@ReadScript
$LN588@ReadScript:

; 1626 : 			}
; 1627 : 		else if (strcmp(token,"#ELSE")==0)

	push	OFFSET ??_C@_05GNCADCNB@?$CDELSE?$AA@
	lea	eax, DWORD PTR _token$[ebp]
	push	eax
	call	_strcmp
	add	esp, 8
	test	eax, eax
	jne	SHORT $LN584@ReadScript

; 1628 : 			{
; 1629 : 			if (curr_stack>0 && stack_active[curr_stack-1])

	cmp	DWORD PTR _curr_stack$[ebp], 0
