; Listing generated by Microsoft (R) Optimizing Compiler Version 17.00.51106.1 

	TITLE	C:\Users\Zhitao Li\Documents\Visual Studio 2012\Projects\Freefalcon\CAMPAIGN\CAMPUI\MissEval.cpp
	.686P
	.XMM
	include listing.inc
	.model	flat

INCLUDELIB LIBCMT
INCLUDELIB OLDNAMES

PUBLIC	?collate@?$_Locbase@H@std@@2HB			; std::_Locbase<int>::collate
PUBLIC	?ctype@?$_Locbase@H@std@@2HB			; std::_Locbase<int>::ctype
PUBLIC	?monetary@?$_Locbase@H@std@@2HB			; std::_Locbase<int>::monetary
PUBLIC	?numeric@?$_Locbase@H@std@@2HB			; std::_Locbase<int>::numeric
PUBLIC	?time@?$_Locbase@H@std@@2HB			; std::_Locbase<int>::time
PUBLIC	?messages@?$_Locbase@H@std@@2HB			; std::_Locbase<int>::messages
PUBLIC	?all@?$_Locbase@H@std@@2HB			; std::_Locbase<int>::all
PUBLIC	?none@?$_Locbase@H@std@@2HB			; std::_Locbase<int>::none
PUBLIC	?value@?$_Sizeof@U_Nil@std@@U12@U12@U12@U12@U12@U12@U12@@std@@2IB ; std::_Sizeof<std::_Nil,std::_Nil,std::_Nil,std::_Nil,std::_Nil,std::_Nil,std::_Nil,std::_Nil>::value
PUBLIC	?has_denorm@_Num_base@std@@2W4float_denorm_style@2@B ; std::_Num_base::has_denorm
PUBLIC	?has_denorm_loss@_Num_base@std@@2_NB		; std::_Num_base::has_denorm_loss
PUBLIC	?has_infinity@_Num_base@std@@2_NB		; std::_Num_base::has_infinity
PUBLIC	?has_quiet_NaN@_Num_base@std@@2_NB		; std::_Num_base::has_quiet_NaN
PUBLIC	?has_signaling_NaN@_Num_base@std@@2_NB		; std::_Num_base::has_signaling_NaN
PUBLIC	?is_bounded@_Num_base@std@@2_NB			; std::_Num_base::is_bounded
PUBLIC	?table_size@?$ctype@D@std@@2IB			; std::ctype<char>::table_size
PUBLIC	?is_exact@_Num_base@std@@2_NB			; std::_Num_base::is_exact
PUBLIC	?is_iec559@_Num_base@std@@2_NB			; std::_Num_base::is_iec559
PUBLIC	?is_integer@_Num_base@std@@2_NB			; std::_Num_base::is_integer
PUBLIC	?is_modulo@_Num_base@std@@2_NB			; std::_Num_base::is_modulo
PUBLIC	?is_signed@_Num_base@std@@2_NB			; std::_Num_base::is_signed
PUBLIC	?is_specialized@_Num_base@std@@2_NB		; std::_Num_base::is_specialized
PUBLIC	?tinyness_before@_Num_base@std@@2_NB		; std::_Num_base::tinyness_before
PUBLIC	?traps@_Num_base@std@@2_NB			; std::_Num_base::traps
PUBLIC	?round_style@_Num_base@std@@2W4float_round_style@2@B ; std::_Num_base::round_style
PUBLIC	?digits@_Num_base@std@@2HB			; std::_Num_base::digits
PUBLIC	?digits10@_Num_base@std@@2HB			; std::_Num_base::digits10
PUBLIC	?max_digits10@_Num_base@std@@2HB		; std::_Num_base::max_digits10
PUBLIC	?max_exponent@_Num_base@std@@2HB		; std::_Num_base::max_exponent
PUBLIC	?max_exponent10@_Num_base@std@@2HB		; std::_Num_base::max_exponent10
PUBLIC	?min_exponent@_Num_base@std@@2HB		; std::_Num_base::min_exponent
PUBLIC	?min_exponent10@_Num_base@std@@2HB		; std::_Num_base::min_exponent10
PUBLIC	?radix@_Num_base@std@@2HB			; std::_Num_base::radix
PUBLIC	?is_bounded@_Num_int_base@std@@2_NB		; std::_Num_int_base::is_bounded
PUBLIC	?is_exact@_Num_int_base@std@@2_NB		; std::_Num_int_base::is_exact
PUBLIC	?is_integer@_Num_int_base@std@@2_NB		; std::_Num_int_base::is_integer
PUBLIC	?is_modulo@_Num_int_base@std@@2_NB		; std::_Num_int_base::is_modulo
PUBLIC	?is_specialized@_Num_int_base@std@@2_NB		; std::_Num_int_base::is_specialized
PUBLIC	?radix@_Num_int_base@std@@2HB			; std::_Num_int_base::radix
PUBLIC	?has_denorm@_Num_float_base@std@@2W4float_denorm_style@2@B ; std::_Num_float_base::has_denorm
PUBLIC	?has_denorm_loss@_Num_float_base@std@@2_NB	; std::_Num_float_base::has_denorm_loss
PUBLIC	?SIMDIRTYDATA_INTERVAL@FalconEntity@@2KB	; FalconEntity::SIMDIRTYDATA_INTERVAL
PUBLIC	?CMPDIRTYDATA_INTERVAL@FalconEntity@@2KB	; FalconEntity::CMPDIRTYDATA_INTERVAL
PUBLIC	?has_infinity@_Num_float_base@std@@2_NB		; std::_Num_float_base::has_infinity
PUBLIC	?has_quiet_NaN@_Num_float_base@std@@2_NB	; std::_Num_float_base::has_quiet_NaN
PUBLIC	?has_signaling_NaN@_Num_float_base@std@@2_NB	; std::_Num_float_base::has_signaling_NaN
PUBLIC	?is_bounded@_Num_float_base@std@@2_NB		; std::_Num_float_base::is_bounded
PUBLIC	?is_exact@_Num_float_base@std@@2_NB		; std::_Num_float_base::is_exact
PUBLIC	?is_iec559@_Num_float_base@std@@2_NB		; std::_Num_float_base::is_iec559
PUBLIC	?is_integer@_Num_float_base@std@@2_NB		; std::_Num_float_base::is_integer
PUBLIC	?is_modulo@_Num_float_base@std@@2_NB		; std::_Num_float_base::is_modulo
PUBLIC	?is_signed@_Num_float_base@std@@2_NB		; std::_Num_float_base::is_signed
PUBLIC	?is_specialized@_Num_float_base@std@@2_NB	; std::_Num_float_base::is_specialized
PUBLIC	?tinyness_before@_Num_float_base@std@@2_NB	; std::_Num_float_base::tinyness_before
PUBLIC	?traps@_Num_float_base@std@@2_NB		; std::_Num_float_base::traps
PUBLIC	?round_style@_Num_float_base@std@@2W4float_round_style@2@B ; std::_Num_float_base::round_style
PUBLIC	?radix@_Num_float_base@std@@2HB			; std::_Num_float_base::radix
PUBLIC	?is_signed@?$numeric_limits@D@std@@2_NB		; std::numeric_limits<char>::is_signed
PUBLIC	?digits@?$numeric_limits@D@std@@2HB		; std::numeric_limits<char>::digits
PUBLIC	?digits10@?$numeric_limits@D@std@@2HB		; std::numeric_limits<char>::digits10
PUBLIC	?value@?$integral_constant@_N$0A@@std@@2_NB	; std::integral_constant<bool,0>::value
PUBLIC	?is_signed@?$numeric_limits@_W@std@@2_NB	; std::numeric_limits<wchar_t>::is_signed
PUBLIC	?digits@?$numeric_limits@_W@std@@2HB		; std::numeric_limits<wchar_t>::digits
PUBLIC	?digits10@?$numeric_limits@_W@std@@2HB		; std::numeric_limits<wchar_t>::digits10
PUBLIC	?value@?$integral_constant@_N$00@std@@2_NB	; std::integral_constant<bool,1>::value
PUBLIC	?is_modulo@?$numeric_limits@_N@std@@2_NB	; std::numeric_limits<bool>::is_modulo
PUBLIC	?is_signed@?$numeric_limits@_N@std@@2_NB	; std::numeric_limits<bool>::is_signed
PUBLIC	?digits@?$numeric_limits@_N@std@@2HB		; std::numeric_limits<bool>::digits
PUBLIC	?digits10@?$numeric_limits@_N@std@@2HB		; std::numeric_limits<bool>::digits10
PUBLIC	?is_signed@?$numeric_limits@C@std@@2_NB		; std::numeric_limits<signed char>::is_signed
PUBLIC	?digits@?$numeric_limits@C@std@@2HB		; std::numeric_limits<signed char>::digits
PUBLIC	?digits10@?$numeric_limits@C@std@@2HB		; std::numeric_limits<signed char>::digits10
PUBLIC	?is_signed@?$numeric_limits@E@std@@2_NB		; std::numeric_limits<unsigned char>::is_signed
PUBLIC	?digits@?$numeric_limits@E@std@@2HB		; std::numeric_limits<unsigned char>::digits
PUBLIC	?digits10@?$numeric_limits@E@std@@2HB		; std::numeric_limits<unsigned char>::digits10
PUBLIC	?is_signed@?$numeric_limits@F@std@@2_NB		; std::numeric_limits<short>::is_signed
PUBLIC	?digits@?$numeric_limits@F@std@@2HB		; std::numeric_limits<short>::digits
PUBLIC	?digits10@?$numeric_limits@F@std@@2HB		; std::numeric_limits<short>::digits10
PUBLIC	?is_signed@?$numeric_limits@G@std@@2_NB		; std::numeric_limits<unsigned short>::is_signed
PUBLIC	?digits@?$numeric_limits@G@std@@2HB		; std::numeric_limits<unsigned short>::digits
PUBLIC	?digits10@?$numeric_limits@G@std@@2HB		; std::numeric_limits<unsigned short>::digits10
PUBLIC	?is_signed@?$numeric_limits@H@std@@2_NB		; std::numeric_limits<int>::is_signed
PUBLIC	?value@?$_Sizeof@HU_Nil@std@@U12@U12@U12@U12@U12@U12@@std@@2IB ; std::_Sizeof<int,std::_Nil,std::_Nil,std::_Nil,std::_Nil,std::_Nil,std::_Nil,std::_Nil>::value
PUBLIC	?digits@?$numeric_limits@H@std@@2HB		; std::numeric_limits<int>::digits
PUBLIC	?digits10@?$numeric_limits@H@std@@2HB		; std::numeric_limits<int>::digits10
PUBLIC	?skipws@?$_Iosb@H@std@@2W4_Fmtflags@12@B	; std::_Iosb<int>::skipws
PUBLIC	?unitbuf@?$_Iosb@H@std@@2W4_Fmtflags@12@B	; std::_Iosb<int>::unitbuf
PUBLIC	?is_signed@?$numeric_limits@I@std@@2_NB		; std::numeric_limits<unsigned int>::is_signed
PUBLIC	?uppercase@?$_Iosb@H@std@@2W4_Fmtflags@12@B	; std::_Iosb<int>::uppercase
PUBLIC	?digits@?$numeric_limits@I@std@@2HB		; std::numeric_limits<unsigned int>::digits
PUBLIC	?showbase@?$_Iosb@H@std@@2W4_Fmtflags@12@B	; std::_Iosb<int>::showbase
PUBLIC	?showpoint@?$_Iosb@H@std@@2W4_Fmtflags@12@B	; std::_Iosb<int>::showpoint
PUBLIC	?digits10@?$numeric_limits@I@std@@2HB		; std::numeric_limits<unsigned int>::digits10
PUBLIC	?showpos@?$_Iosb@H@std@@2W4_Fmtflags@12@B	; std::_Iosb<int>::showpos
PUBLIC	?left@?$_Iosb@H@std@@2W4_Fmtflags@12@B		; std::_Iosb<int>::left
PUBLIC	?right@?$_Iosb@H@std@@2W4_Fmtflags@12@B		; std::_Iosb<int>::right
PUBLIC	?internal@?$_Iosb@H@std@@2W4_Fmtflags@12@B	; std::_Iosb<int>::internal
PUBLIC	?dec@?$_Iosb@H@std@@2W4_Fmtflags@12@B		; std::_Iosb<int>::dec
PUBLIC	?oct@?$_Iosb@H@std@@2W4_Fmtflags@12@B		; std::_Iosb<int>::oct
PUBLIC	?hex@?$_Iosb@H@std@@2W4_Fmtflags@12@B		; std::_Iosb<int>::hex
PUBLIC	?scientific@?$_Iosb@H@std@@2W4_Fmtflags@12@B	; std::_Iosb<int>::scientific
PUBLIC	?fixed@?$_Iosb@H@std@@2W4_Fmtflags@12@B		; std::_Iosb<int>::fixed
PUBLIC	?hexfloat@?$_Iosb@H@std@@2W4_Fmtflags@12@B	; std::_Iosb<int>::hexfloat
PUBLIC	?is_signed@?$numeric_limits@J@std@@2_NB		; std::numeric_limits<long>::is_signed
PUBLIC	?boolalpha@?$_Iosb@H@std@@2W4_Fmtflags@12@B	; std::_Iosb<int>::boolalpha
PUBLIC	?digits@?$numeric_limits@J@std@@2HB		; std::numeric_limits<long>::digits
PUBLIC	?_Stdio@?$_Iosb@H@std@@2W4_Fmtflags@12@B	; std::_Iosb<int>::_Stdio
PUBLIC	?digits10@?$numeric_limits@J@std@@2HB		; std::numeric_limits<long>::digits10
PUBLIC	?adjustfield@?$_Iosb@H@std@@2W4_Fmtflags@12@B	; std::_Iosb<int>::adjustfield
PUBLIC	?basefield@?$_Iosb@H@std@@2W4_Fmtflags@12@B	; std::_Iosb<int>::basefield
PUBLIC	?floatfield@?$_Iosb@H@std@@2W4_Fmtflags@12@B	; std::_Iosb<int>::floatfield
PUBLIC	?goodbit@?$_Iosb@H@std@@2W4_Iostate@12@B	; std::_Iosb<int>::goodbit
PUBLIC	?eofbit@?$_Iosb@H@std@@2W4_Iostate@12@B		; std::_Iosb<int>::eofbit
PUBLIC	?failbit@?$_Iosb@H@std@@2W4_Iostate@12@B	; std::_Iosb<int>::failbit
PUBLIC	?badbit@?$_Iosb@H@std@@2W4_Iostate@12@B		; std::_Iosb<int>::badbit
PUBLIC	?_Hardfail@?$_Iosb@H@std@@2W4_Iostate@12@B	; std::_Iosb<int>::_Hardfail
PUBLIC	?in@?$_Iosb@H@std@@2W4_Openmode@12@B		; std::_Iosb<int>::in
PUBLIC	?is_signed@?$numeric_limits@K@std@@2_NB		; std::numeric_limits<unsigned long>::is_signed
PUBLIC	?out@?$_Iosb@H@std@@2W4_Openmode@12@B		; std::_Iosb<int>::out
PUBLIC	?digits@?$numeric_limits@K@std@@2HB		; std::numeric_limits<unsigned long>::digits
PUBLIC	?ate@?$_Iosb@H@std@@2W4_Openmode@12@B		; std::_Iosb<int>::ate
PUBLIC	?app@?$_Iosb@H@std@@2W4_Openmode@12@B		; std::_Iosb<int>::app
PUBLIC	?digits10@?$numeric_limits@K@std@@2HB		; std::numeric_limits<unsigned long>::digits10
PUBLIC	?trunc@?$_Iosb@H@std@@2W4_Openmode@12@B		; std::_Iosb<int>::trunc
PUBLIC	?_Nocreate@?$_Iosb@H@std@@2W4_Openmode@12@B	; std::_Iosb<int>::_Nocreate
PUBLIC	?_Noreplace@?$_Iosb@H@std@@2W4_Openmode@12@B	; std::_Iosb<int>::_Noreplace
PUBLIC	?binary@?$_Iosb@H@std@@2W4_Openmode@12@B	; std::_Iosb<int>::binary
PUBLIC	?beg@?$_Iosb@H@std@@2W4_Seekdir@12@B		; std::_Iosb<int>::beg
PUBLIC	?cur@?$_Iosb@H@std@@2W4_Seekdir@12@B		; std::_Iosb<int>::cur
PUBLIC	?end@?$_Iosb@H@std@@2W4_Seekdir@12@B		; std::_Iosb<int>::end
PUBLIC	?is_signed@?$numeric_limits@_J@std@@2_NB	; std::numeric_limits<__int64>::is_signed
PUBLIC	?digits@?$numeric_limits@_J@std@@2HB		; std::numeric_limits<__int64>::digits
PUBLIC	?digits10@?$numeric_limits@_J@std@@2HB		; std::numeric_limits<__int64>::digits10
PUBLIC	?_Stream_err@failure@ios_base@std@@0W4io_errc@43@B ; std::ios_base::failure::_Stream_err
PUBLIC	?is_signed@?$numeric_limits@_K@std@@2_NB	; std::numeric_limits<unsigned __int64>::is_signed
PUBLIC	?digits@?$numeric_limits@_K@std@@2HB		; std::numeric_limits<unsigned __int64>::digits
PUBLIC	?digits10@?$numeric_limits@_K@std@@2HB		; std::numeric_limits<unsigned __int64>::digits10
PUBLIC	?digits@?$numeric_limits@M@std@@2HB		; std::numeric_limits<float>::digits
PUBLIC	?digits10@?$numeric_limits@M@std@@2HB		; std::numeric_limits<float>::digits10
PUBLIC	?max_digits10@?$numeric_limits@M@std@@2HB	; std::numeric_limits<float>::max_digits10
PUBLIC	?max_exponent@?$numeric_limits@M@std@@2HB	; std::numeric_limits<float>::max_exponent
PUBLIC	?max_exponent10@?$numeric_limits@M@std@@2HB	; std::numeric_limits<float>::max_exponent10
PUBLIC	?min_exponent@?$numeric_limits@M@std@@2HB	; std::numeric_limits<float>::min_exponent
PUBLIC	?min_exponent10@?$numeric_limits@M@std@@2HB	; std::numeric_limits<float>::min_exponent10
PUBLIC	?FormatTable@@3PAY04HA				; FormatTable
PUBLIC	?ScoreAdjustment@@3PAFA				; ScoreAdjustment
PUBLIC	?value@?$integral_constant@I$0A@@std@@2IB	; std::integral_constant<unsigned int,0>::value
PUBLIC	?digits@?$numeric_limits@N@std@@2HB		; std::numeric_limits<double>::digits
PUBLIC	?digits10@?$numeric_limits@N@std@@2HB		; std::numeric_limits<double>::digits10
PUBLIC	?max_digits10@?$numeric_limits@N@std@@2HB	; std::numeric_limits<double>::max_digits10
PUBLIC	?max_exponent@?$numeric_limits@N@std@@2HB	; std::numeric_limits<double>::max_exponent
PUBLIC	?max_exponent10@?$numeric_limits@N@std@@2HB	; std::numeric_limits<double>::max_exponent10
PUBLIC	?min_exponent@?$numeric_limits@N@std@@2HB	; std::numeric_limits<double>::min_exponent
PUBLIC	?min_exponent10@?$numeric_limits@N@std@@2HB	; std::numeric_limits<double>::min_exponent10
PUBLIC	?digits@?$numeric_limits@O@std@@2HB		; std::numeric_limits<long double>::digits
PUBLIC	?digits10@?$numeric_limits@O@std@@2HB		; std::numeric_limits<long double>::digits10
PUBLIC	?max_digits10@?$numeric_limits@O@std@@2HB	; std::numeric_limits<long double>::max_digits10
PUBLIC	?max_exponent@?$numeric_limits@O@std@@2HB	; std::numeric_limits<long double>::max_exponent
PUBLIC	?max_exponent10@?$numeric_limits@O@std@@2HB	; std::numeric_limits<long double>::max_exponent10
PUBLIC	?min_exponent@?$numeric_limits@O@std@@2HB	; std::numeric_limits<long double>::min_exponent
PUBLIC	?min_exponent10@?$numeric_limits@O@std@@2HB	; std::numeric_limits<long double>::min_exponent10
;	COMDAT ?min_exponent10@?$numeric_limits@O@std@@2HB
CONST	SEGMENT
?min_exponent10@?$numeric_limits@O@std@@2HB DD 0fffffecdH ; std::numeric_limits<long double>::min_exponent10
CONST	ENDS
;	COMDAT ?min_exponent@?$numeric_limits@O@std@@2HB
CONST	SEGMENT
?min_exponent@?$numeric_limits@O@std@@2HB DD 0fffffc03H	; std::numeric_limits<long double>::min_exponent
CONST	ENDS
;	COMDAT ?max_exponent10@?$numeric_limits@O@std@@2HB
CONST	SEGMENT
?max_exponent10@?$numeric_limits@O@std@@2HB DD 0134H	; std::numeric_limits<long double>::max_exponent10
CONST	ENDS
;	COMDAT ?max_exponent@?$numeric_limits@O@std@@2HB
CONST	SEGMENT
?max_exponent@?$numeric_limits@O@std@@2HB DD 0400H	; std::numeric_limits<long double>::max_exponent
CONST	ENDS
;	COMDAT ?max_digits10@?$numeric_limits@O@std@@2HB
CONST	SEGMENT
?max_digits10@?$numeric_limits@O@std@@2HB DD 011H	; std::numeric_limits<long double>::max_digits10
CONST	ENDS
;	COMDAT ?digits10@?$numeric_limits@O@std@@2HB
CONST	SEGMENT
?digits10@?$numeric_limits@O@std@@2HB DD 0fH		; std::numeric_limits<long double>::digits10
CONST	ENDS
;	COMDAT ?digits@?$numeric_limits@O@std@@2HB
CONST	SEGMENT
?digits@?$numeric_limits@O@std@@2HB DD 035H		; std::numeric_limits<long double>::digits
CONST	ENDS
;	COMDAT ?min_exponent10@?$numeric_limits@N@std@@2HB
CONST	SEGMENT
?min_exponent10@?$numeric_limits@N@std@@2HB DD 0fffffecdH ; std::numeric_limits<double>::min_exponent10
CONST	ENDS
;	COMDAT ?min_exponent@?$numeric_limits@N@std@@2HB
CONST	SEGMENT
?min_exponent@?$numeric_limits@N@std@@2HB DD 0fffffc03H	; std::numeric_limits<double>::min_exponent
CONST	ENDS
;	COMDAT ?max_exponent10@?$numeric_limits@N@std@@2HB
CONST	SEGMENT
?max_exponent10@?$numeric_limits@N@std@@2HB DD 0134H	; std::numeric_limits<double>::max_exponent10
CONST	ENDS
;	COMDAT ?max_exponent@?$numeric_limits@N@std@@2HB
CONST	SEGMENT
?max_exponent@?$numeric_limits@N@std@@2HB DD 0400H	; std::numeric_limits<double>::max_exponent
CONST	ENDS
;	COMDAT ?max_digits10@?$numeric_limits@N@std@@2HB
CONST	SEGMENT
?max_digits10@?$numeric_limits@N@std@@2HB DD 011H	; std::numeric_limits<double>::max_digits10
CONST	ENDS
;	COMDAT ?digits10@?$numeric_limits@N@std@@2HB
CONST	SEGMENT
?digits10@?$numeric_limits@N@std@@2HB DD 0fH		; std::numeric_limits<double>::digits10
CONST	ENDS
;	COMDAT ?digits@?$numeric_limits@N@std@@2HB
CONST	SEGMENT
?digits@?$numeric_limits@N@std@@2HB DD 035H		; std::numeric_limits<double>::digits
CONST	ENDS
;	COMDAT ?value@?$integral_constant@I$0A@@std@@2IB
CONST	SEGMENT
?value@?$integral_constant@I$0A@@std@@2IB DD 00H	; std::integral_constant<unsigned int,0>::value
CONST	ENDS
_DATA	SEGMENT
?FormatTable@@3PAY04HA DD 00H				; FormatTable
	DD	06daH
	DD	06daH
	DD	06a8H
	DD	06a8H
	DD	00H
	DD	06d9H
	DD	06d9H
	DD	06a7H
	DD	06a7H
	DD	00H
	DD	06dbH
	DD	06dbH
	DD	06a9H
	DD	06a9H
	DD	00H
	DD	06d6H
	DD	06d6H
	DD	06a4H
	DD	06a4H
	DD	00H
	DD	06d7H
	DD	06d7H
	DD	06a5H
	DD	06a5H
	DD	00H
	DD	06ddH
	DD	06ddH
	DD	06abH
	DD	06abH
	DD	00H
	DD	06deH
	DD	06deH
	DD	06acH
	DD	06acH
	DD	00H
	DD	06dfH
	DD	06dfH
	DD	06adH
	DD	06adH
	DD	00H
	DD	06d8H
	DD	06d8H
	DD	06a6H
	DD	06a6H
	DD	00H
	DD	06e0H
	DD	06e0H
	DD	06aeH
	DD	06aeH
	DD	00H
	DD	06e1H
	DD	06e1H
	DD	06afH
	DD	06afH
	DD	00H
	DD	06e2H
	DD	06e2H
	DD	06b0H
	DD	06b0H
	DD	00H
	DD	06e5H
	DD	06e5H
	DD	06b3H
	DD	06b3H
	DD	00H
	DD	06e3H
	DD	06e3H
	DD	06b1H
	DD	06b1H
	DD	00H
	DD	06e4H
	DD	06e4H
	DD	06b2H
	DD	06b2H
	DD	00H
	DD	06e6H
	DD	06e6H
	DD	06b4H
	DD	06b4H
	DD	00H
	DD	06eaH
	DD	06eaH
	DD	06b8H
	DD	06b8H
	DD	00H
	DD	06ebH
	DD	06ebH
	DD	06b9H
	DD	06b9H
	DD	00H
	DD	06ecH
	DD	06ecH
	DD	06baH
	DD	06baH
	DD	00H
	DD	06edH
	DD	06edH
	DD	06bbH
	DD	06bbH
	DD	00H
	DD	06bcH
	DD	06bcH
	DD	06bcH
	DD	06bcH
	DD	00H
	DD	06bdH
	DD	06bdH
	DD	06bdH
	DD	06bdH
?ScoreAdjustment@@3PAFA DW 0fff6H			; ScoreAdjustment
	DW	0fffbH
	DW	06H
	DW	0cH
	DW	00H
	DW	00H
_DATA	ENDS
;	COMDAT ?min_exponent10@?$numeric_limits@M@std@@2HB
CONST	SEGMENT
?min_exponent10@?$numeric_limits@M@std@@2HB DD 0ffffffdbH ; std::numeric_limits<float>::min_exponent10
CONST	ENDS
;	COMDAT ?min_exponent@?$numeric_limits@M@std@@2HB
CONST	SEGMENT
?min_exponent@?$numeric_limits@M@std@@2HB DD 0ffffff83H	; std::numeric_limits<float>::min_exponent
CONST	ENDS
;	COMDAT ?max_exponent10@?$numeric_limits@M@std@@2HB
CONST	SEGMENT
?max_exponent10@?$numeric_limits@M@std@@2HB DD 026H	; std::numeric_limits<float>::max_exponent10
CONST	ENDS
;	COMDAT ?max_exponent@?$numeric_limits@M@std@@2HB
CONST	SEGMENT
?max_exponent@?$numeric_limits@M@std@@2HB DD 080H	; std::numeric_limits<float>::max_exponent
CONST	ENDS
;	COMDAT ?max_digits10@?$numeric_limits@M@std@@2HB
CONST	SEGMENT
?max_digits10@?$numeric_limits@M@std@@2HB DD 09H	; std::numeric_limits<float>::max_digits10
CONST	ENDS
;	COMDAT ?digits10@?$numeric_limits@M@std@@2HB
CONST	SEGMENT
?digits10@?$numeric_limits@M@std@@2HB DD 06H		; std::numeric_limits<float>::digits10
CONST	ENDS
;	COMDAT ?digits@?$numeric_limits@M@std@@2HB
CONST	SEGMENT
?digits@?$numeric_limits@M@std@@2HB DD 018H		; std::numeric_limits<float>::digits
CONST	ENDS
;	COMDAT ?digits10@?$numeric_limits@_K@std@@2HB
CONST	SEGMENT
?digits10@?$numeric_limits@_K@std@@2HB DD 013H		; std::numeric_limits<unsigned __int64>::digits10
CONST	ENDS
;	COMDAT ?digits@?$numeric_limits@_K@std@@2HB
CONST	SEGMENT
?digits@?$numeric_limits@_K@std@@2HB DD 040H		; std::numeric_limits<unsigned __int64>::digits
CONST	ENDS
;	COMDAT ?is_signed@?$numeric_limits@_K@std@@2_NB
CONST	SEGMENT
?is_signed@?$numeric_limits@_K@std@@2_NB DB 00H		; std::numeric_limits<unsigned __int64>::is_signed
CONST	ENDS
;	COMDAT ?_Stream_err@failure@ios_base@std@@0W4io_errc@43@B
CONST	SEGMENT
?_Stream_err@failure@ios_base@std@@0W4io_errc@43@B DD 01H ; std::ios_base::failure::_Stream_err
CONST	ENDS
;	COMDAT ?digits10@?$numeric_limits@_J@std@@2HB
CONST	SEGMENT
?digits10@?$numeric_limits@_J@std@@2HB DD 012H		; std::numeric_limits<__int64>::digits10
CONST	ENDS
;	COMDAT ?digits@?$numeric_limits@_J@std@@2HB
CONST	SEGMENT
?digits@?$numeric_limits@_J@std@@2HB DD 03fH		; std::numeric_limits<__int64>::digits
CONST	ENDS
;	COMDAT ?is_signed@?$numeric_limits@_J@std@@2_NB
CONST	SEGMENT
?is_signed@?$numeric_limits@_J@std@@2_NB DB 01H		; std::numeric_limits<__int64>::is_signed
CONST	ENDS
;	COMDAT ?end@?$_Iosb@H@std@@2W4_Seekdir@12@B
CONST	SEGMENT
?end@?$_Iosb@H@std@@2W4_Seekdir@12@B DD 02H		; std::_Iosb<int>::end
CONST	ENDS
;	COMDAT ?cur@?$_Iosb@H@std@@2W4_Seekdir@12@B
CONST	SEGMENT
?cur@?$_Iosb@H@std@@2W4_Seekdir@12@B DD 01H		; std::_Iosb<int>::cur
CONST	ENDS
;	COMDAT ?beg@?$_Iosb@H@std@@2W4_Seekdir@12@B
CONST	SEGMENT
?beg@?$_Iosb@H@std@@2W4_Seekdir@12@B DD 00H		; std::_Iosb<int>::beg
CONST	ENDS
;	COMDAT ?binary@?$_Iosb@H@std@@2W4_Openmode@12@B
CONST	SEGMENT
?binary@?$_Iosb@H@std@@2W4_Openmode@12@B DD 020H	; std::_Iosb<int>::binary
CONST	ENDS
;	COMDAT ?_Noreplace@?$_Iosb@H@std@@2W4_Openmode@12@B
CONST	SEGMENT
?_Noreplace@?$_Iosb@H@std@@2W4_Openmode@12@B DD 080H	; std::_Iosb<int>::_Noreplace
CONST	ENDS
;	COMDAT ?_Nocreate@?$_Iosb@H@std@@2W4_Openmode@12@B
CONST	SEGMENT
?_Nocreate@?$_Iosb@H@std@@2W4_Openmode@12@B DD 040H	; std::_Iosb<int>::_Nocreate
CONST	ENDS
;	COMDAT ?trunc@?$_Iosb@H@std@@2W4_Openmode@12@B
CONST	SEGMENT
?trunc@?$_Iosb@H@std@@2W4_Openmode@12@B DD 010H		; std::_Iosb<int>::trunc
CONST	ENDS
;	COMDAT ?digits10@?$numeric_limits@K@std@@2HB
CONST	SEGMENT
?digits10@?$numeric_limits@K@std@@2HB DD 09H		; std::numeric_limits<unsigned long>::digits10
CONST	ENDS
;	COMDAT ?app@?$_Iosb@H@std@@2W4_Openmode@12@B
CONST	SEGMENT
?app@?$_Iosb@H@std@@2W4_Openmode@12@B DD 08H		; std::_Iosb<int>::app
CONST	ENDS
;	COMDAT ?ate@?$_Iosb@H@std@@2W4_Openmode@12@B
CONST	SEGMENT
?ate@?$_Iosb@H@std@@2W4_Openmode@12@B DD 04H		; std::_Iosb<int>::ate
CONST	ENDS
;	COMDAT ?digits@?$numeric_limits@K@std@@2HB
CONST	SEGMENT
?digits@?$numeric_limits@K@std@@2HB DD 020H		; std::numeric_limits<unsigned long>::digits
CONST	ENDS
;	COMDAT ?out@?$_Iosb@H@std@@2W4_Openmode@12@B
CONST	SEGMENT
?out@?$_Iosb@H@std@@2W4_Openmode@12@B DD 02H		; std::_Iosb<int>::out
CONST	ENDS
;	COMDAT ?is_signed@?$numeric_limits@K@std@@2_NB
CONST	SEGMENT
?is_signed@?$numeric_limits@K@std@@2_NB DB 00H		; std::numeric_limits<unsigned long>::is_signed
CONST	ENDS
;	COMDAT ?in@?$_Iosb@H@std@@2W4_Openmode@12@B
CONST	SEGMENT
?in@?$_Iosb@H@std@@2W4_Openmode@12@B DD 01H		; std::_Iosb<int>::in
CONST	ENDS
;	COMDAT ?_Hardfail@?$_Iosb@H@std@@2W4_Iostate@12@B
CONST	SEGMENT
?_Hardfail@?$_Iosb@H@std@@2W4_Iostate@12@B DD 010H	; std::_Iosb<int>::_Hardfail
CONST	ENDS
;	COMDAT ?badbit@?$_Iosb@H@std@@2W4_Iostate@12@B
CONST	SEGMENT
?badbit@?$_Iosb@H@std@@2W4_Iostate@12@B DD 04H		; std::_Iosb<int>::badbit
CONST	ENDS
;	COMDAT ?failbit@?$_Iosb@H@std@@2W4_Iostate@12@B
CONST	SEGMENT
?failbit@?$_Iosb@H@std@@2W4_Iostate@12@B DD 02H		; std::_Iosb<int>::failbit
CONST	ENDS
;	COMDAT ?eofbit@?$_Iosb@H@std@@2W4_Iostate@12@B
CONST	SEGMENT
?eofbit@?$_Iosb@H@std@@2W4_Iostate@12@B DD 01H		; std::_Iosb<int>::eofbit
CONST	ENDS
;	COMDAT ?goodbit@?$_Iosb@H@std@@2W4_Iostate@12@B
CONST	SEGMENT
?goodbit@?$_Iosb@H@std@@2W4_Iostate@12@B DD 00H		; std::_Iosb<int>::goodbit
CONST	ENDS
;	COMDAT ?floatfield@?$_Iosb@H@std@@2W4_Fmtflags@12@B
CONST	SEGMENT
?floatfield@?$_Iosb@H@std@@2W4_Fmtflags@12@B DD 03000H	; std::_Iosb<int>::floatfield
CONST	ENDS
;	COMDAT ?basefield@?$_Iosb@H@std@@2W4_Fmtflags@12@B
CONST	SEGMENT
?basefield@?$_Iosb@H@std@@2W4_Fmtflags@12@B DD 0e00H	; std::_Iosb<int>::basefield
CONST	ENDS
;	COMDAT ?adjustfield@?$_Iosb@H@std@@2W4_Fmtflags@12@B
CONST	SEGMENT
?adjustfield@?$_Iosb@H@std@@2W4_Fmtflags@12@B DD 01c0H	; std::_Iosb<int>::adjustfield
CONST	ENDS
;	COMDAT ?digits10@?$numeric_limits@J@std@@2HB
CONST	SEGMENT
?digits10@?$numeric_limits@J@std@@2HB DD 09H		; std::numeric_limits<long>::digits10
CONST	ENDS
;	COMDAT ?_Stdio@?$_Iosb@H@std@@2W4_Fmtflags@12@B
CONST	SEGMENT
?_Stdio@?$_Iosb@H@std@@2W4_Fmtflags@12@B DD 08000H	; std::_Iosb<int>::_Stdio
CONST	ENDS
;	COMDAT ?digits@?$numeric_limits@J@std@@2HB
CONST	SEGMENT
?digits@?$numeric_limits@J@std@@2HB DD 01fH		; std::numeric_limits<long>::digits
CONST	ENDS
;	COMDAT ?boolalpha@?$_Iosb@H@std@@2W4_Fmtflags@12@B
CONST	SEGMENT
?boolalpha@?$_Iosb@H@std@@2W4_Fmtflags@12@B DD 04000H	; std::_Iosb<int>::boolalpha
CONST	ENDS
;	COMDAT ?is_signed@?$numeric_limits@J@std@@2_NB
CONST	SEGMENT
?is_signed@?$numeric_limits@J@std@@2_NB DB 01H		; std::numeric_limits<long>::is_signed
CONST	ENDS
;	COMDAT ?hexfloat@?$_Iosb@H@std@@2W4_Fmtflags@12@B
CONST	SEGMENT
?hexfloat@?$_Iosb@H@std@@2W4_Fmtflags@12@B DD 03000H	; std::_Iosb<int>::hexfloat
CONST	ENDS
;	COMDAT ?fixed@?$_Iosb@H@std@@2W4_Fmtflags@12@B
CONST	SEGMENT
?fixed@?$_Iosb@H@std@@2W4_Fmtflags@12@B DD 02000H	; std::_Iosb<int>::fixed
CONST	ENDS
;	COMDAT ?scientific@?$_Iosb@H@std@@2W4_Fmtflags@12@B
CONST	SEGMENT
?scientific@?$_Iosb@H@std@@2W4_Fmtflags@12@B DD 01000H	; std::_Iosb<int>::scientific
CONST	ENDS
;	COMDAT ?hex@?$_Iosb@H@std@@2W4_Fmtflags@12@B
CONST	SEGMENT
?hex@?$_Iosb@H@std@@2W4_Fmtflags@12@B DD 0800H		; std::_Iosb<int>::hex
CONST	ENDS
;	COMDAT ?oct@?$_Iosb@H@std@@2W4_Fmtflags@12@B
CONST	SEGMENT
?oct@?$_Iosb@H@std@@2W4_Fmtflags@12@B DD 0400H		; std::_Iosb<int>::oct
CONST	ENDS
;	COMDAT ?dec@?$_Iosb@H@std@@2W4_Fmtflags@12@B
CONST	SEGMENT
?dec@?$_Iosb@H@std@@2W4_Fmtflags@12@B DD 0200H		; std::_Iosb<int>::dec
CONST	ENDS
;	COMDAT ?internal@?$_Iosb@H@std@@2W4_Fmtflags@12@B
CONST	SEGMENT
?internal@?$_Iosb@H@std@@2W4_Fmtflags@12@B DD 0100H	; std::_Iosb<int>::internal
CONST	ENDS
;	COMDAT ?right@?$_Iosb@H@std@@2W4_Fmtflags@12@B
CONST	SEGMENT
?right@?$_Iosb@H@std@@2W4_Fmtflags@12@B DD 080H		; std::_Iosb<int>::right
CONST	ENDS
;	COMDAT ?left@?$_Iosb@H@std@@2W4_Fmtflags@12@B
CONST	SEGMENT
?left@?$_Iosb@H@std@@2W4_Fmtflags@12@B DD 040H		; std::_Iosb<int>::left
CONST	ENDS
;	COMDAT ?showpos@?$_Iosb@H@std@@2W4_Fmtflags@12@B
CONST	SEGMENT
?showpos@?$_Iosb@H@std@@2W4_Fmtflags@12@B DD 020H	; std::_Iosb<int>::showpos
CONST	ENDS
;	COMDAT ?digits10@?$numeric_limits@I@std@@2HB
CONST	SEGMENT
?digits10@?$numeric_limits@I@std@@2HB DD 09H		; std::numeric_limits<unsigned int>::digits10
CONST	ENDS
;	COMDAT ?showpoint@?$_Iosb@H@std@@2W4_Fmtflags@12@B
CONST	SEGMENT
?showpoint@?$_Iosb@H@std@@2W4_Fmtflags@12@B DD 010H	; std::_Iosb<int>::showpoint
CONST	ENDS
;	COMDAT ?showbase@?$_Iosb@H@std@@2W4_Fmtflags@12@B
CONST	SEGMENT
?showbase@?$_Iosb@H@std@@2W4_Fmtflags@12@B DD 08H	; std::_Iosb<int>::showbase
CONST	ENDS
;	COMDAT ?digits@?$numeric_limits@I@std@@2HB
CONST	SEGMENT
?digits@?$numeric_limits@I@std@@2HB DD 020H		; std::numeric_limits<unsigned int>::digits
CONST	ENDS
;	COMDAT ?uppercase@?$_Iosb@H@std@@2W4_Fmtflags@12@B
CONST	SEGMENT
?uppercase@?$_Iosb@H@std@@2W4_Fmtflags@12@B DD 04H	; std::_Iosb<int>::uppercase
CONST	ENDS
;	COMDAT ?is_signed@?$numeric_limits@I@std@@2_NB
CONST	SEGMENT
?is_signed@?$numeric_limits@I@std@@2_NB DB 00H		; std::numeric_limits<unsigned int>::is_signed
CONST	ENDS
;	COMDAT ?unitbuf@?$_Iosb@H@std@@2W4_Fmtflags@12@B
CONST	SEGMENT
?unitbuf@?$_Iosb@H@std@@2W4_Fmtflags@12@B DD 02H	; std::_Iosb<int>::unitbuf
CONST	ENDS
;	COMDAT ?skipws@?$_Iosb@H@std@@2W4_Fmtflags@12@B
CONST	SEGMENT
?skipws@?$_Iosb@H@std@@2W4_Fmtflags@12@B DD 01H		; std::_Iosb<int>::skipws
CONST	ENDS
;	COMDAT ?digits10@?$numeric_limits@H@std@@2HB
CONST	SEGMENT
?digits10@?$numeric_limits@H@std@@2HB DD 09H		; std::numeric_limits<int>::digits10
CONST	ENDS
;	COMDAT ?digits@?$numeric_limits@H@std@@2HB
CONST	SEGMENT
?digits@?$numeric_limits@H@std@@2HB DD 01fH		; std::numeric_limits<int>::digits
CONST	ENDS
;	COMDAT ?value@?$_Sizeof@HU_Nil@std@@U12@U12@U12@U12@U12@U12@@std@@2IB
CONST	SEGMENT
?value@?$_Sizeof@HU_Nil@std@@U12@U12@U12@U12@U12@U12@@std@@2IB DD 01H ; std::_Sizeof<int,std::_Nil,std::_Nil,std::_Nil,std::_Nil,std::_Nil,std::_Nil,std::_Nil>::value
CONST	ENDS
;	COMDAT ?is_signed@?$numeric_limits@H@std@@2_NB
CONST	SEGMENT
?is_signed@?$numeric_limits@H@std@@2_NB DB 01H		; std::numeric_limits<int>::is_signed
CONST	ENDS
;	COMDAT ?digits10@?$numeric_limits@G@std@@2HB
CONST	SEGMENT
?digits10@?$numeric_limits@G@std@@2HB DD 04H		; std::numeric_limits<unsigned short>::digits10
CONST	ENDS
;	COMDAT ?digits@?$numeric_limits@G@std@@2HB
CONST	SEGMENT
?digits@?$numeric_limits@G@std@@2HB DD 010H		; std::numeric_limits<unsigned short>::digits
CONST	ENDS
;	COMDAT ?is_signed@?$numeric_limits@G@std@@2_NB
CONST	SEGMENT
?is_signed@?$numeric_limits@G@std@@2_NB DB 00H		; std::numeric_limits<unsigned short>::is_signed
CONST	ENDS
;	COMDAT ?digits10@?$numeric_limits@F@std@@2HB
CONST	SEGMENT
?digits10@?$numeric_limits@F@std@@2HB DD 04H		; std::numeric_limits<short>::digits10
CONST	ENDS
;	COMDAT ?digits@?$numeric_limits@F@std@@2HB
CONST	SEGMENT
?digits@?$numeric_limits@F@std@@2HB DD 0fH		; std::numeric_limits<short>::digits
CONST	ENDS
;	COMDAT ?is_signed@?$numeric_limits@F@std@@2_NB
CONST	SEGMENT
?is_signed@?$numeric_limits@F@std@@2_NB DB 01H		; std::numeric_limits<short>::is_signed
CONST	ENDS
;	COMDAT ?digits10@?$numeric_limits@E@std@@2HB
CONST	SEGMENT
?digits10@?$numeric_limits@E@std@@2HB DD 02H		; std::numeric_limits<unsigned char>::digits10
CONST	ENDS
;	COMDAT ?digits@?$numeric_limits@E@std@@2HB
CONST	SEGMENT
?digits@?$numeric_limits@E@std@@2HB DD 08H		; std::numeric_limits<unsigned char>::digits
CONST	ENDS
;	COMDAT ?is_signed@?$numeric_limits@E@std@@2_NB
CONST	SEGMENT
?is_signed@?$numeric_limits@E@std@@2_NB DB 00H		; std::numeric_limits<unsigned char>::is_signed
CONST	ENDS
;	COMDAT ?digits10@?$numeric_limits@C@std@@2HB
CONST	SEGMENT
?digits10@?$numeric_limits@C@std@@2HB DD 02H		; std::numeric_limits<signed char>::digits10
CONST	ENDS
;	COMDAT ?digits@?$numeric_limits@C@std@@2HB
CONST	SEGMENT
?digits@?$numeric_limits@C@std@@2HB DD 07H		; std::numeric_limits<signed char>::digits
CONST	ENDS
;	COMDAT ?is_signed@?$numeric_limits@C@std@@2_NB
CONST	SEGMENT
?is_signed@?$numeric_limits@C@std@@2_NB DB 01H		; std::numeric_limits<signed char>::is_signed
CONST	ENDS
;	COMDAT ?digits10@?$numeric_limits@_N@std@@2HB
CONST	SEGMENT
?digits10@?$numeric_limits@_N@std@@2HB DD 00H		; std::numeric_limits<bool>::digits10
CONST	ENDS
;	COMDAT ?digits@?$numeric_limits@_N@std@@2HB
CONST	SEGMENT
?digits@?$numeric_limits@_N@std@@2HB DD 01H		; std::numeric_limits<bool>::digits
CONST	ENDS
;	COMDAT ?is_signed@?$numeric_limits@_N@std@@2_NB
CONST	SEGMENT
?is_signed@?$numeric_limits@_N@std@@2_NB DB 00H		; std::numeric_limits<bool>::is_signed
CONST	ENDS
;	COMDAT ?is_modulo@?$numeric_limits@_N@std@@2_NB
CONST	SEGMENT
?is_modulo@?$numeric_limits@_N@std@@2_NB DB 00H		; std::numeric_limits<bool>::is_modulo
CONST	ENDS
;	COMDAT ?value@?$integral_constant@_N$00@std@@2_NB
CONST	SEGMENT
?value@?$integral_constant@_N$00@std@@2_NB DB 01H	; std::integral_constant<bool,1>::value
CONST	ENDS
;	COMDAT ?digits10@?$numeric_limits@_W@std@@2HB
CONST	SEGMENT
?digits10@?$numeric_limits@_W@std@@2HB DD 04H		; std::numeric_limits<wchar_t>::digits10
CONST	ENDS
;	COMDAT ?digits@?$numeric_limits@_W@std@@2HB
CONST	SEGMENT
?digits@?$numeric_limits@_W@std@@2HB DD 010H		; std::numeric_limits<wchar_t>::digits
CONST	ENDS
;	COMDAT ?is_signed@?$numeric_limits@_W@std@@2_NB
CONST	SEGMENT
?is_signed@?$numeric_limits@_W@std@@2_NB DB 00H		; std::numeric_limits<wchar_t>::is_signed
CONST	ENDS
;	COMDAT ?value@?$integral_constant@_N$0A@@std@@2_NB
CONST	SEGMENT
?value@?$integral_constant@_N$0A@@std@@2_NB DB 00H	; std::integral_constant<bool,0>::value
CONST	ENDS
;	COMDAT ?digits10@?$numeric_limits@D@std@@2HB
CONST	SEGMENT
?digits10@?$numeric_limits@D@std@@2HB DD 02H		; std::numeric_limits<char>::digits10
CONST	ENDS
;	COMDAT ?digits@?$numeric_limits@D@std@@2HB
CONST	SEGMENT
?digits@?$numeric_limits@D@std@@2HB DD 07H		; std::numeric_limits<char>::digits
CONST	ENDS
;	COMDAT ?is_signed@?$numeric_limits@D@std@@2_NB
CONST	SEGMENT
?is_signed@?$numeric_limits@D@std@@2_NB DB 01H		; std::numeric_limits<char>::is_signed
CONST	ENDS
;	COMDAT ?radix@_Num_float_base@std@@2HB
CONST	SEGMENT
?radix@_Num_float_base@std@@2HB DD 02H			; std::_Num_float_base::radix
CONST	ENDS
;	COMDAT ?round_style@_Num_float_base@std@@2W4float_round_style@2@B
CONST	SEGMENT
?round_style@_Num_float_base@std@@2W4float_round_style@2@B DD 01H ; std::_Num_float_base::round_style
CONST	ENDS
;	COMDAT ?traps@_Num_float_base@std@@2_NB
CONST	SEGMENT
?traps@_Num_float_base@std@@2_NB DB 00H			; std::_Num_float_base::traps
CONST	ENDS
;	COMDAT ?tinyness_before@_Num_float_base@std@@2_NB
CONST	SEGMENT
?tinyness_before@_Num_float_base@std@@2_NB DB 01H	; std::_Num_float_base::tinyness_before
CONST	ENDS
;	COMDAT ?is_specialized@_Num_float_base@std@@2_NB
CONST	SEGMENT
?is_specialized@_Num_float_base@std@@2_NB DB 01H	; std::_Num_float_base::is_specialized
CONST	ENDS
;	COMDAT ?is_signed@_Num_float_base@std@@2_NB
CONST	SEGMENT
?is_signed@_Num_float_base@std@@2_NB DB 01H		; std::_Num_float_base::is_signed
CONST	ENDS
;	COMDAT ?is_modulo@_Num_float_base@std@@2_NB
CONST	SEGMENT
?is_modulo@_Num_float_base@std@@2_NB DB 00H		; std::_Num_float_base::is_modulo
CONST	ENDS
;	COMDAT ?is_integer@_Num_float_base@std@@2_NB
CONST	SEGMENT
?is_integer@_Num_float_base@std@@2_NB DB 00H		; std::_Num_float_base::is_integer
CONST	ENDS
;	COMDAT ?is_iec559@_Num_float_base@std@@2_NB
CONST	SEGMENT
?is_iec559@_Num_float_base@std@@2_NB DB 01H		; std::_Num_float_base::is_iec559
CONST	ENDS
;	COMDAT ?is_exact@_Num_float_base@std@@2_NB
CONST	SEGMENT
?is_exact@_Num_float_base@std@@2_NB DB 00H		; std::_Num_float_base::is_exact
CONST	ENDS
CONST	SEGMENT
_L_2	DD	03f317218r			; 0.693147
CONST	ENDS
;	COMDAT ?is_bounded@_Num_float_base@std@@2_NB
CONST	SEGMENT
?is_bounded@_Num_float_base@std@@2_NB DB 01H		; std::_Num_float_base::is_bounded
CONST	ENDS
;	COMDAT ?has_signaling_NaN@_Num_float_base@std@@2_NB
CONST	SEGMENT
?has_signaling_NaN@_Num_float_base@std@@2_NB DB 01H	; std::_Num_float_base::has_signaling_NaN
CONST	ENDS
;	COMDAT ?has_quiet_NaN@_Num_float_base@std@@2_NB
CONST	SEGMENT
?has_quiet_NaN@_Num_float_base@std@@2_NB DB 01H		; std::_Num_float_base::has_quiet_NaN
CONST	ENDS
;	COMDAT ?has_infinity@_Num_float_base@std@@2_NB
CONST	SEGMENT
?has_infinity@_Num_float_base@std@@2_NB DB 01H		; std::_Num_float_base::has_infinity
CONST	ENDS
;	COMDAT ?CMPDIRTYDATA_INTERVAL@FalconEntity@@2KB
CONST	SEGMENT
?CMPDIRTYDATA_INTERVAL@FalconEntity@@2KB DD 0c8H	; FalconEntity::CMPDIRTYDATA_INTERVAL
CONST	ENDS
;	COMDAT ?SIMDIRTYDATA_INTERVAL@FalconEntity@@2KB
CONST	SEGMENT
?SIMDIRTYDATA_INTERVAL@FalconEntity@@2KB DD 0c8H	; FalconEntity::SIMDIRTYDATA_INTERVAL
CONST	ENDS
;	COMDAT ?has_denorm_loss@_Num_float_base@std@@2_NB
CONST	SEGMENT
?has_denorm_loss@_Num_float_base@std@@2_NB DB 01H	; std::_Num_float_base::has_denorm_loss
CONST	ENDS
;	COMDAT ?has_denorm@_Num_float_base@std@@2W4float_denorm_style@2@B
CONST	SEGMENT
?has_denorm@_Num_float_base@std@@2W4float_denorm_style@2@B DD 01H ; std::_Num_float_base::has_denorm
CONST	ENDS
;	COMDAT ?radix@_Num_int_base@std@@2HB
CONST	SEGMENT
?radix@_Num_int_base@std@@2HB DD 02H			; std::_Num_int_base::radix
CONST	ENDS
;	COMDAT ?is_specialized@_Num_int_base@std@@2_NB
CONST	SEGMENT
?is_specialized@_Num_int_base@std@@2_NB DB 01H		; std::_Num_int_base::is_specialized
CONST	ENDS
;	COMDAT ?is_modulo@_Num_int_base@std@@2_NB
CONST	SEGMENT
?is_modulo@_Num_int_base@std@@2_NB DB 01H		; std::_Num_int_base::is_modulo
CONST	ENDS
;	COMDAT ?is_integer@_Num_int_base@std@@2_NB
CONST	SEGMENT
?is_integer@_Num_int_base@std@@2_NB DB 01H		; std::_Num_int_base::is_integer
CONST	ENDS
;	COMDAT ?is_exact@_Num_int_base@std@@2_NB
CONST	SEGMENT
?is_exact@_Num_int_base@std@@2_NB DB 01H		; std::_Num_int_base::is_exact
CONST	ENDS
;	COMDAT ?is_bounded@_Num_int_base@std@@2_NB
CONST	SEGMENT
?is_bounded@_Num_int_base@std@@2_NB DB 01H		; std::_Num_int_base::is_bounded
CONST	ENDS
;	COMDAT ?radix@_Num_base@std@@2HB
CONST	SEGMENT
?radix@_Num_base@std@@2HB DD 00H			; std::_Num_base::radix
CONST	ENDS
;	COMDAT ?min_exponent10@_Num_base@std@@2HB
CONST	SEGMENT
?min_exponent10@_Num_base@std@@2HB DD 00H		; std::_Num_base::min_exponent10
CONST	ENDS
;	COMDAT ?min_exponent@_Num_base@std@@2HB
CONST	SEGMENT
?min_exponent@_Num_base@std@@2HB DD 00H			; std::_Num_base::min_exponent
CONST	ENDS
;	COMDAT ?max_exponent10@_Num_base@std@@2HB
CONST	SEGMENT
?max_exponent10@_Num_base@std@@2HB DD 00H		; std::_Num_base::max_exponent10
CONST	ENDS
;	COMDAT ?max_exponent@_Num_base@std@@2HB
CONST	SEGMENT
?max_exponent@_Num_base@std@@2HB DD 00H			; std::_Num_base::max_exponent
CONST	ENDS
;	COMDAT ?max_digits10@_Num_base@std@@2HB
CONST	SEGMENT
?max_digits10@_Num_base@std@@2HB DD 00H			; std::_Num_base::max_digits10
CONST	ENDS
;	COMDAT ?digits10@_Num_base@std@@2HB
CONST	SEGMENT
?digits10@_Num_base@std@@2HB DD 00H			; std::_Num_base::digits10
CONST	ENDS
;	COMDAT ?digits@_Num_base@std@@2HB
CONST	SEGMENT
?digits@_Num_base@std@@2HB DD 00H			; std::_Num_base::digits
CONST	ENDS
;	COMDAT ?round_style@_Num_base@std@@2W4float_round_style@2@B
CONST	SEGMENT
?round_style@_Num_base@std@@2W4float_round_style@2@B DD 00H ; std::_Num_base::round_style
CONST	ENDS
;	COMDAT ?traps@_Num_base@std@@2_NB
CONST	SEGMENT
?traps@_Num_base@std@@2_NB DB 00H			; std::_Num_base::traps
CONST	ENDS
;	COMDAT ?tinyness_before@_Num_base@std@@2_NB
CONST	SEGMENT
?tinyness_before@_Num_base@std@@2_NB DB 00H		; std::_Num_base::tinyness_before
CONST	ENDS
;	COMDAT ?is_specialized@_Num_base@std@@2_NB
CONST	SEGMENT
?is_specialized@_Num_base@std@@2_NB DB 00H		; std::_Num_base::is_specialized
CONST	ENDS
;	COMDAT ?is_signed@_Num_base@std@@2_NB
CONST	SEGMENT
?is_signed@_Num_base@std@@2_NB DB 00H			; std::_Num_base::is_signed
CONST	ENDS
;	COMDAT ?is_modulo@_Num_base@std@@2_NB
CONST	SEGMENT
?is_modulo@_Num_base@std@@2_NB DB 00H			; std::_Num_base::is_modulo
CONST	ENDS
;	COMDAT ?is_integer@_Num_base@std@@2_NB
CONST	SEGMENT
?is_integer@_Num_base@std@@2_NB DB 00H			; std::_Num_base::is_integer
CONST	ENDS
;	COMDAT ?is_iec559@_Num_base@std@@2_NB
CONST	SEGMENT
?is_iec559@_Num_base@std@@2_NB DB 00H			; std::_Num_base::is_iec559
CONST	ENDS
;	COMDAT ?is_exact@_Num_base@std@@2_NB
CONST	SEGMENT
?is_exact@_Num_base@std@@2_NB DB 00H			; std::_Num_base::is_exact
CONST	ENDS
;	COMDAT ?table_size@?$ctype@D@std@@2IB
CONST	SEGMENT
?table_size@?$ctype@D@std@@2IB DD 0100H			; std::ctype<char>::table_size
CONST	ENDS
;	COMDAT ?is_bounded@_Num_base@std@@2_NB
CONST	SEGMENT
?is_bounded@_Num_base@std@@2_NB DB 00H			; std::_Num_base::is_bounded
CONST	ENDS
;	COMDAT ?has_signaling_NaN@_Num_base@std@@2_NB
CONST	SEGMENT
?has_signaling_NaN@_Num_base@std@@2_NB DB 00H		; std::_Num_base::has_signaling_NaN
CONST	ENDS
;	COMDAT ?has_quiet_NaN@_Num_base@std@@2_NB
CONST	SEGMENT
?has_quiet_NaN@_Num_base@std@@2_NB DB 00H		; std::_Num_base::has_quiet_NaN
CONST	ENDS
;	COMDAT ?has_infinity@_Num_base@std@@2_NB
CONST	SEGMENT
?has_infinity@_Num_base@std@@2_NB DB 00H		; std::_Num_base::has_infinity
CONST	ENDS
;	COMDAT ?has_denorm_loss@_Num_base@std@@2_NB
CONST	SEGMENT
?has_denorm_loss@_Num_base@std@@2_NB DB 00H		; std::_Num_base::has_denorm_loss
CONST	ENDS
;	COMDAT ?has_denorm@_Num_base@std@@2W4float_denorm_style@2@B
CONST	SEGMENT
?has_denorm@_Num_base@std@@2W4float_denorm_style@2@B DD 00H ; std::_Num_base::has_denorm
CONST	ENDS
;	COMDAT ?value@?$_Sizeof@U_Nil@std@@U12@U12@U12@U12@U12@U12@U12@@std@@2IB
CONST	SEGMENT
?value@?$_Sizeof@U_Nil@std@@U12@U12@U12@U12@U12@U12@U12@@std@@2IB DD 00H ; std::_Sizeof<std::_Nil,std::_Nil,std::_Nil,std::_Nil,std::_Nil,std::_Nil,std::_Nil,std::_Nil>::value
CONST	ENDS
;	COMDAT ?none@?$_Locbase@H@std@@2HB
CONST	SEGMENT
?none@?$_Locbase@H@std@@2HB DD 00H			; std::_Locbase<int>::none
CONST	ENDS
;	COMDAT ?all@?$_Locbase@H@std@@2HB
CONST	SEGMENT
?all@?$_Locbase@H@std@@2HB DD 03fH			; std::_Locbase<int>::all
CONST	ENDS
;	COMDAT ?messages@?$_Locbase@H@std@@2HB
CONST	SEGMENT
?messages@?$_Locbase@H@std@@2HB DD 020H			; std::_Locbase<int>::messages
CONST	ENDS
;	COMDAT ?time@?$_Locbase@H@std@@2HB
CONST	SEGMENT
?time@?$_Locbase@H@std@@2HB DD 010H			; std::_Locbase<int>::time
CONST	ENDS
;	COMDAT ?numeric@?$_Locbase@H@std@@2HB
CONST	SEGMENT
?numeric@?$_Locbase@H@std@@2HB DD 08H			; std::_Locbase<int>::numeric
CONST	ENDS
;	COMDAT ?monetary@?$_Locbase@H@std@@2HB
CONST	SEGMENT
?monetary@?$_Locbase@H@std@@2HB DD 04H			; std::_Locbase<int>::monetary
CONST	ENDS
;	COMDAT ?ctype@?$_Locbase@H@std@@2HB
CONST	SEGMENT
?ctype@?$_Locbase@H@std@@2HB DD 02H			; std::_Locbase<int>::ctype
CONST	ENDS
;	COMDAT ?collate@?$_Locbase@H@std@@2HB
CONST	SEGMENT
?collate@?$_Locbase@H@std@@2HB DD 01H			; std::_Locbase<int>::collate
CONST	ENDS
PUBLIC	??_H@YGXPAXIHP6EPAX0@Z@Z			; `vector constructor iterator'
PUBLIC	__tcsstr
PUBLIC	__tcscmp
PUBLIC	?_tcsstr@@YAPADPADPBD@Z				; _tcsstr
PUBLIC	??0VU_SESSION_ID@@QAE@K@Z			; VU_SESSION_ID::VU_SESSION_ID
PUBLIC	??8VU_SESSION_ID@@QBEHABV0@@Z			; VU_SESSION_ID::operator==
PUBLIC	??BVU_SESSION_ID@@QBEKXZ			; VU_SESSION_ID::operator unsigned long
PUBLIC	??0VU_ID@@QAE@XZ				; VU_ID::VU_ID
PUBLIC	??8VU_ID@@QBE_NABV0@@Z				; VU_ID::operator==
PUBLIC	??9VU_ID@@QBE_NABV0@@Z				; VU_ID::operator!=
PUBLIC	??BVU_ID@@QBEKXZ				; VU_ID::operator unsigned long
PUBLIC	?Id@VuEntity@@QBE?AVVU_ID@@XZ			; VuEntity::Id
PUBLIC	?Type@VuEntity@@QBEGXZ				; VuEntity::Type
PUBLIC	?EntityType@VuEntity@@QBEPAUVuEntityType@@XZ	; VuEntity::EntityType
PUBLIC	??2@YAPAXIPAX@Z					; operator new
PUBLIC	??3@YAXPAX0@Z					; operator delete
PUBLIC	?length@?$char_traits@D@std@@SAIPBD@Z		; std::char_traits<char>::length
PUBLIC	?copy@?$char_traits@D@std@@SAPADPADPBDI@Z	; std::char_traits<char>::copy
PUBLIC	?move@?$char_traits@D@std@@SAPADPADPBDI@Z	; std::char_traits<char>::move
PUBLIC	?assign@?$char_traits@D@std@@SAXAADABD@Z	; std::char_traits<char>::assign
PUBLIC	??0?$allocator@D@std@@QAE@XZ			; std::allocator<char>::allocator<char>
PUBLIC	?deallocate@?$allocator@D@std@@QAEXPADI@Z	; std::allocator<char>::deallocate
PUBLIC	?allocate@?$allocator@D@std@@QAEPADI@Z		; std::allocator<char>::allocate
PUBLIC	?max_size@?$allocator@D@std@@QBEIXZ		; std::allocator<char>::max_size
PUBLIC	?max_size@?$allocator_traits@V?$allocator@D@std@@@std@@SAIABV?$allocator@D@2@@Z ; std::allocator_traits<std::allocator<char> >::max_size
PUBLIC	??0?$_Wrap_alloc@V?$allocator@D@std@@@std@@QAE@XZ ; std::_Wrap_alloc<std::allocator<char> >::_Wrap_alloc<std::allocator<char> >
PUBLIC	?allocate@?$_Wrap_alloc@V?$allocator@D@std@@@std@@QAEPADI@Z ; std::_Wrap_alloc<std::allocator<char> >::allocate
PUBLIC	?deallocate@?$_Wrap_alloc@V?$allocator@D@std@@@std@@QAEXPADI@Z ; std::_Wrap_alloc<std::allocator<char> >::deallocate
PUBLIC	?max_size@?$_Wrap_alloc@V?$allocator@D@std@@@std@@QBEIXZ ; std::_Wrap_alloc<std::allocator<char> >::max_size
PUBLIC	??0?$_String_val@U?$_Simple_types@D@std@@@std@@QAE@XZ ; std::_String_val<std::_Simple_types<char> >::_String_val<std::_Simple_types<char> >
PUBLIC	?_Myptr@?$_String_val@U?$_Simple_types@D@std@@@std@@QAEPADXZ ; std::_String_val<std::_Simple_types<char> >::_Myptr
PUBLIC	?_Myptr@?$_String_val@U?$_Simple_types@D@std@@@std@@QBEPBDXZ ; std::_String_val<std::_Simple_types<char> >::_Myptr
PUBLIC	??0?$_String_alloc@$0A@U?$_String_base_types@DV?$allocator@D@std@@@std@@@std@@QAE@ABV?$allocator@D@1@@Z ; std::_String_alloc<0,std::_String_base_types<char,std::allocator<char> > >::_String_alloc<0,std::_String_base_types<char,std::allocator<char> > >
PUBLIC	?_Getal@?$_String_alloc@$0A@U?$_String_base_types@DV?$allocator@D@std@@@std@@@std@@QBE?AU?$_Wrap_alloc@V?$allocator@D@std@@@2@XZ ; std::_String_alloc<0,std::_String_base_types<char,std::allocator<char> > >::_Getal
PUBLIC	??0?$basic_string@DU?$char_traits@D@std@@V?$allocator@D@2@@std@@QAE@PBD@Z ; std::basic_string<char,std::char_traits<char>,std::allocator<char> >::basic_string<char,std::char_traits<char>,std::allocator<char> >
PUBLIC	?assign@?$basic_string@DU?$char_traits@D@std@@V?$allocator@D@2@@std@@QAEAAV12@ABV12@II@Z ; std::basic_string<char,std::char_traits<char>,std::allocator<char> >::assign
PUBLIC	?assign@?$basic_string@DU?$char_traits@D@std@@V?$allocator@D@2@@std@@QAEAAV12@PBDI@Z ; std::basic_string<char,std::char_traits<char>,std::allocator<char> >::assign
PUBLIC	?assign@?$basic_string@DU?$char_traits@D@std@@V?$allocator@D@2@@std@@QAEAAV12@PBD@Z ; std::basic_string<char,std::char_traits<char>,std::allocator<char> >::assign
PUBLIC	?erase@?$basic_string@DU?$char_traits@D@std@@V?$allocator@D@2@@std@@QAEAAV12@I@Z ; std::basic_string<char,std::char_traits<char>,std::allocator<char> >::erase
PUBLIC	?erase@?$basic_string@DU?$char_traits@D@std@@V?$allocator@D@2@@std@@QAEAAV12@II@Z ; std::basic_string<char,std::char_traits<char>,std::allocator<char> >::erase
PUBLIC	?size@?$basic_string@DU?$char_traits@D@std@@V?$allocator@D@2@@std@@QBEIXZ ; std::basic_string<char,std::char_traits<char>,std::allocator<char> >::size
PUBLIC	?max_size@?$basic_string@DU?$char_traits@D@std@@V?$allocator@D@2@@std@@QBEIXZ ; std::basic_string<char,std::char_traits<char>,std::allocator<char> >::max_size
PUBLIC	?_Copy@?$basic_string@DU?$char_traits@D@std@@V?$allocator@D@2@@std@@QAEXII@Z ; std::basic_string<char,std::char_traits<char>,std::allocator<char> >::_Copy
PUBLIC	?_Eos@?$basic_string@DU?$char_traits@D@std@@V?$allocator@D@2@@std@@QAEXI@Z ; std::basic_string<char,std::char_traits<char>,std::allocator<char> >::_Eos
PUBLIC	?_Grow@?$basic_string@DU?$char_traits@D@std@@V?$allocator@D@2@@std@@QAE_NI_N@Z ; std::basic_string<char,std::char_traits<char>,std::allocator<char> >::_Grow
PUBLIC	?_Inside@?$basic_string@DU?$char_traits@D@std@@V?$allocator@D@2@@std@@QAE_NPBD@Z ; std::basic_string<char,std::char_traits<char>,std::allocator<char> >::_Inside
PUBLIC	?_Tidy@?$basic_string@DU?$char_traits@D@std@@V?$allocator@D@2@@std@@QAEX_NI@Z ; std::basic_string<char,std::char_traits<char>,std::allocator<char> >::_Tidy
PUBLIC	?_Xlen@?$basic_string@DU?$char_traits@D@std@@V?$allocator@D@2@@std@@QBEXXZ ; std::basic_string<char,std::char_traits<char>,std::allocator<char> >::_Xlen
PUBLIC	?_Xran@?$basic_string@DU?$char_traits@D@std@@V?$allocator@D@2@@std@@QBEXXZ ; std::basic_string<char,std::char_traits<char>,std::allocator<char> >::_Xran
PUBLIC	??B?$VuBin@VVuSessionEntity@@@@QBE_NXZ		; VuBin<VuSessionEntity>::operator bool
PUBLIC	?get@?$VuBin@VVuSessionEntity@@@@QBEPAVVuSessionEntity@@XZ ; VuBin<VuSessionEntity>::get
PUBLIC	?IsCampaign@FalconEntity@@QAEHXZ		; FalconEntity::IsCampaign
PUBLIC	?IsSim@FalconEntity@@QAEHXZ			; FalconEntity::IsSim
PUBLIC	?GetWPTargetID@WayPointClass@@QAE?AVVU_ID@@XZ	; WayPointClass::GetWPTargetID
PUBLIC	?GetWPTarget@WayPointClass@@QAEPAVCampBaseClass@@XZ ; WayPointClass::GetWPTarget
PUBLIC	?GetWPTargetBuilding@WayPointClass@@QAEEXZ	; WayPointClass::GetWPTargetBuilding
PUBLIC	?GetWPFlags@WayPointClass@@QAEKXZ		; WayPointClass::GetWPFlags
PUBLIC	?GetNextWP@WayPointClass@@QAEPAV1@XZ		; WayPointClass::GetNextWP
PUBLIC	?GetPrevWP@WayPointClass@@QAEPAV1@XZ		; WayPointClass::GetPrevWP
PUBLIC	?GetWPAltitude@WayPointClass@@QAEHXZ		; WayPointClass::GetWPAltitude
PUBLIC	?GetWPArrivalTime@WayPointClass@@QAEKXZ		; WayPointClass::GetWPArrivalTime
PUBLIC	?GetWPDepartureTime@WayPointClass@@QAEKXZ	; WayPointClass::GetWPDepartureTime
PUBLIC	?GetWPLocation@WayPointClass@@QBEXPAF0@Z	; WayPointClass::GetWPLocation
PUBLIC	?InPackage@CampBaseClass@@QAEHXZ		; CampBaseClass::InPackage
PUBLIC	?GetDomain@CampBaseClass@@QBEEXZ		; CampBaseClass::GetDomain
PUBLIC	?GetType@CampBaseClass@@QBEEXZ			; CampBaseClass::GetType
PUBLIC	?get@?$VuBin@VCampBaseClass@@@@QBEPAVCampBaseClass@@XZ ; VuBin<CampBaseClass>::get
PUBLIC	?CampEnterCriticalSection@@YAXXZ		; CampEnterCriticalSection
PUBLIC	?CampLeaveCriticalSection@@YAXXZ		; CampLeaveCriticalSection
PUBLIC	?Moving@UnitClass@@QBEHXZ			; UnitClass::Moving
PUBLIC	?Broken@UnitClass@@QBEHXZ			; UnitClass::Broken
PUBLIC	?GetTarget@UnitClass@@QAEPAVFalconEntity@@XZ	; UnitClass::GetTarget
PUBLIC	?GetFirstUnitWP@UnitClass@@QAEPAVWayPointClass@@XZ ; UnitClass::GetFirstUnitWP
PUBLIC	?GetObjectiveStatus@ObjectiveClass@@QAEEXZ	; ObjectiveClass::GetObjectiveStatus
PUBLIC	?GetInterceptor@PackageClass@@QAE?AVVU_ID@@XZ	; PackageClass::GetInterceptor
PUBLIC	?GetAwacs@PackageClass@@QAE?AVVU_ID@@XZ		; PackageClass::GetAwacs
PUBLIC	?GetJStar@PackageClass@@QAE?AVVU_ID@@XZ		; PackageClass::GetJStar
PUBLIC	?GetECM@PackageClass@@QAE?AVVU_ID@@XZ		; PackageClass::GetECM
PUBLIC	?GetTanker@PackageClass@@QAE?AVVU_ID@@XZ	; PackageClass::GetTanker
PUBLIC	?GetResponses@PackageClass@@QAEFXZ		; PackageClass::GetResponses
PUBLIC	?GetMissionRequest@PackageClass@@QAEPAVMissionRequestClass@@XZ ; PackageClass::GetMissionRequest
PUBLIC	?GetOriginalMission@FlightClass@@QAEEXZ		; FlightClass::GetOriginalMission
PUBLIC	?GetEvalFlags@FlightClass@@QAEEXZ		; FlightClass::GetEvalFlags
PUBLIC	?GetMissionContext@FlightClass@@QAEEXZ		; FlightClass::GetMissionContext
PUBLIC	?GetRequesterID@FlightClass@@QAE?AVVU_ID@@XZ	; FlightClass::GetRequesterID
PUBLIC	??0EventElement@@QAE@XZ				; EventElement::EventElement
PUBLIC	??1EventElement@@QAE@XZ				; EventElement::~EventElement
PUBLIC	??_GEventElement@@QAEPAXI@Z			; EventElement::`scalar deleting destructor'
PUBLIC	?GetGameType@DogfightClass@@QAE?AW4DogfightType@@XZ ; DogfightClass::GetGameType
PUBLIC	??0WeaponDataClass@@QAE@XZ			; WeaponDataClass::WeaponDataClass
PUBLIC	??1WeaponDataClass@@QAE@XZ			; WeaponDataClass::~WeaponDataClass
PUBLIC	??0PilotDataClass@@QAE@XZ			; PilotDataClass::PilotDataClass
PUBLIC	??1PilotDataClass@@QAE@XZ			; PilotDataClass::~PilotDataClass
PUBLIC	??_GPilotDataClass@@QAEPAXI@Z			; PilotDataClass::`scalar deleting destructor'
PUBLIC	??0FlightDataClass@@QAE@XZ			; FlightDataClass::FlightDataClass
PUBLIC	??1FlightDataClass@@QAE@XZ			; FlightDataClass::~FlightDataClass
PUBLIC	??_GFlightDataClass@@QAEPAXI@Z			; FlightDataClass::`scalar deleting destructor'
PUBLIC	??0MissionEvaluationClass@@QAE@XZ		; MissionEvaluationClass::MissionEvaluationClass
PUBLIC	??1MissionEvaluationClass@@QAE@XZ		; MissionEvaluationClass::~MissionEvaluationClass
PUBLIC	?CleanupFlightData@MissionEvaluationClass@@QAEXXZ ; MissionEvaluationClass::CleanupFlightData
PUBLIC	?CleanupPilotData@MissionEvaluationClass@@QAEXXZ ; MissionEvaluationClass::CleanupPilotData
PUBLIC	?PreDogfightEval@MissionEvaluationClass@@QAEXXZ	; MissionEvaluationClass::PreDogfightEval
PUBLIC	?PreMissionEval@MissionEvaluationClass@@QAEHPAVFlightClass@@E@Z ; MissionEvaluationClass::PreMissionEval
PUBLIC	?PreEvalFlight@MissionEvaluationClass@@QAEXPAVFlightClass@@0@Z ; MissionEvaluationClass::PreEvalFlight
PUBLIC	?RecordTargetStatus@MissionEvaluationClass@@QAEXPAVFlightDataClass@@PAVCampBaseClass@@@Z ; MissionEvaluationClass::RecordTargetStatus
PUBLIC	?PostMissionEval@MissionEvaluationClass@@QAEHXZ	; MissionEvaluationClass::PostMissionEval
PUBLIC	?ServerFileLog@MissionEvaluationClass@@QAEXPAVFalconPlayerStatusMessage@@@Z ; MissionEvaluationClass::ServerFileLog
PUBLIC	?MissionSuccess@MissionEvaluationClass@@QAEHPAVFlightDataClass@@@Z ; MissionEvaluationClass::MissionSuccess
PUBLIC	?SetPackageData@MissionEvaluationClass@@QAEXXZ	; MissionEvaluationClass::SetPackageData
PUBLIC	?ClearPackageData@MissionEvaluationClass@@QAEXXZ ; MissionEvaluationClass::ClearPackageData
PUBLIC	?ClearPotentialTargets@MissionEvaluationClass@@QAEXXZ ; MissionEvaluationClass::ClearPotentialTargets
PUBLIC	?FindPotentialTargets@MissionEvaluationClass@@QAEXXZ ; MissionEvaluationClass::FindPotentialTargets
PUBLIC	?CollectThreats@MissionEvaluationClass@@QAEXPAVFlightClass@@PAVWayPointClass@@@Z ; MissionEvaluationClass::CollectThreats
PUBLIC	?CollectThreats@MissionEvaluationClass@@QAEXFFHHPAH@Z ; MissionEvaluationClass::CollectThreats
PUBLIC	?GetTeamKills@MissionEvaluationClass@@QAEXPAF@Z	; MissionEvaluationClass::GetTeamKills
PUBLIC	?GetTeamDeaths@MissionEvaluationClass@@QAEXPAF@Z ; MissionEvaluationClass::GetTeamDeaths
PUBLIC	?GetTeamScore@MissionEvaluationClass@@QAEXPAF@Z	; MissionEvaluationClass::GetTeamScore
PUBLIC	?GetKills@MissionEvaluationClass@@QAEHPAVFalconSessionEntity@@@Z ; MissionEvaluationClass::GetKills
PUBLIC	?GetMaxKills@MissionEvaluationClass@@QAEHXZ	; MissionEvaluationClass::GetMaxKills
PUBLIC	?GetMaxScore@MissionEvaluationClass@@QAEHXZ	; MissionEvaluationClass::GetMaxScore
PUBLIC	?RegisterShotAtPlayer@MissionEvaluationClass@@QAEXPAVFalconWeaponsFire@@GE@Z ; MissionEvaluationClass::RegisterShotAtPlayer
PUBLIC	?RegisterShot@MissionEvaluationClass@@QAEXPAVFalconWeaponsFire@@@Z ; MissionEvaluationClass::RegisterShot
PUBLIC	?RegisterHit@MissionEvaluationClass@@QAEXPAVFalconDamageMessage@@@Z ; MissionEvaluationClass::RegisterHit
PUBLIC	?RegisterKill@MissionEvaluationClass@@QAEXPAVFalconDeathMessage@@HH@Z ; MissionEvaluationClass::RegisterKill
PUBLIC	?RegisterPlayerJoin@MissionEvaluationClass@@QAEXPAVFalconPlayerStatusMessage@@@Z ; MissionEvaluationClass::RegisterPlayerJoin
PUBLIC	?RegisterEjection@MissionEvaluationClass@@QAEXPAVFalconEjectMessage@@H@Z ; MissionEvaluationClass::RegisterEjection
PUBLIC	?RegisterLanding@MissionEvaluationClass@@QAEXPAVFalconLandingMessage@@H@Z ; MissionEvaluationClass::RegisterLanding
PUBLIC	?RegisterContact@MissionEvaluationClass@@QAEXPAVUnitClass@@@Z ; MissionEvaluationClass::RegisterContact
PUBLIC	?ParseTime@MissionEvaluationClass@@QAEXKPAD@Z	; MissionEvaluationClass::ParseTime
PUBLIC	?ParseTime@MissionEvaluationClass@@QAEXNPAD@Z	; MissionEvaluationClass::ParseTime
PUBLIC	?AddEventToList@MissionEvaluationClass@@QAEXPAVEventElement@@PAVFlightDataClass@@PAVPilotDataClass@@H@Z ; MissionEvaluationClass::AddEventToList
PUBLIC	?RegisterKill@MissionEvaluationClass@@QAEXPAVFalconEntity@@0H@Z ; MissionEvaluationClass::RegisterKill
PUBLIC	?RegisterMove@MissionEvaluationClass@@QAEXPAVFlightClass@@@Z ; MissionEvaluationClass::RegisterMove
PUBLIC	?RegisterAbort@MissionEvaluationClass@@QAEXPAVFlightClass@@@Z ; MissionEvaluationClass::RegisterAbort
PUBLIC	?RegisterRelief@MissionEvaluationClass@@QAEXPAVFlightClass@@@Z ; MissionEvaluationClass::RegisterRelief
PUBLIC	?RegisterDivert@MissionEvaluationClass@@QAEXPAVFlightClass@@PAVMissionRequestClass@@@Z ; MissionEvaluationClass::RegisterDivert
PUBLIC	?RegisterRoundWon@MissionEvaluationClass@@QAEXH@Z ; MissionEvaluationClass::RegisterRoundWon
PUBLIC	?RegisterWin@MissionEvaluationClass@@QAEXH@Z	; MissionEvaluationClass::RegisterWin
PUBLIC	?RegisterEvent@MissionEvaluationClass@@QAEXFFHHPAD@Z ; MissionEvaluationClass::RegisterEvent
PUBLIC	?Register3DAWACSabort@MissionEvaluationClass@@QAEXPAVFlightClass@@@Z ; MissionEvaluationClass::Register3DAWACSabort
PUBLIC	?SetFinalAircraft@MissionEvaluationClass@@QAEXPAVFlightClass@@@Z ; MissionEvaluationClass::SetFinalAircraft
PUBLIC	?GetPilotName@MissionEvaluationClass@@QAEHHPAD@Z ; MissionEvaluationClass::GetPilotName
PUBLIC	?GetFlightName@MissionEvaluationClass@@QAEHPAD@Z ; MissionEvaluationClass::GetFlightName
PUBLIC	?AddNewPlayerPilot@MissionEvaluationClass@@QAEPAVPilotDataClass@@PAVFlightDataClass@@HPAVFlightClass@@PAVFalconSessionEntity@@@Z ; MissionEvaluationClass::AddNewPlayerPilot
PUBLIC	?AddNewPilot@MissionEvaluationClass@@QAEPAVPilotDataClass@@PAVFlightDataClass@@HHPAVFlightClass@@@Z ; MissionEvaluationClass::AddNewPilot
PUBLIC	?FindPilotData@MissionEvaluationClass@@QAEPAVPilotDataClass@@PAVFlightDataClass@@H@Z ; MissionEvaluationClass::FindPilotData
PUBLIC	?FindPilotData@MissionEvaluationClass@@QAEPAVPilotDataClass@@HH@Z ; MissionEvaluationClass::FindPilotData
PUBLIC	?FindPilotDataFromAC@MissionEvaluationClass@@QAEPAVPilotDataClass@@PAVFlightDataClass@@H@Z ; MissionEvaluationClass::FindPilotDataFromAC
PUBLIC	?FindFlightData@MissionEvaluationClass@@QAEPAVFlightDataClass@@PAVFlightClass@@@Z ; MissionEvaluationClass::FindFlightData
PUBLIC	?SetupPilots@MissionEvaluationClass@@QAEXPAVFlightDataClass@@PAVFlightClass@@@Z ; MissionEvaluationClass::SetupPilots
PUBLIC	?SetPlayerPilot@MissionEvaluationClass@@QAEXPAVFlightClass@@E@Z ; MissionEvaluationClass::SetPlayerPilot
PUBLIC	?RebuildEvaluationData@MissionEvaluationClass@@QAEXXZ ; MissionEvaluationClass::RebuildEvaluationData
PUBLIC	?UpdateFlightHours@LogBookData@@QAEXM@Z		; LogBookData::UpdateFlightHours
PUBLIC	?SetAceFactor@LogBookData@@QAEXM@Z		; LogBookData::SetAceFactor
PUBLIC	?get@?$VuBin@VFlightClass@@@@QBEPAVFlightClass@@XZ ; VuBin<FlightClass>::get
PUBLIC	?GetPlayerName@FalconSessionEntity@@QAEPADXZ	; FalconSessionEntity::GetPlayerName
PUBLIC	?GetPlayerCallsign@FalconSessionEntity@@QAEPADXZ ; FalconSessionEntity::GetPlayerCallsign
PUBLIC	?GetPlayerFlightID@FalconSessionEntity@@QBE?AVVU_ID@@XZ ; FalconSessionEntity::GetPlayerFlightID
PUBLIC	?GetPlayerFlight@FalconSessionEntity@@QBEPAVFlightClass@@XZ ; FalconSessionEntity::GetPlayerFlight
PUBLIC	?GetAceFactor@FalconSessionEntity@@QBEMXZ	; FalconSessionEntity::GetAceFactor
PUBLIC	?GetInitAceFactor@FalconSessionEntity@@QBEMXZ	; FalconSessionEntity::GetInitAceFactor
PUBLIC	?GetAircraftNum@FalconSessionEntity@@QBEEXZ	; FalconSessionEntity::GetAircraftNum
PUBLIC	?GetPilotSlot@FalconSessionEntity@@QBEEXZ	; FalconSessionEntity::GetPilotSlot
PUBLIC	?GetKill@FalconSessionEntity@@QBEGG@Z		; FalconSessionEntity::GetKill
PUBLIC	?GetMissions@FalconSessionEntity@@QBEGXZ	; FalconSessionEntity::GetMissions
PUBLIC	?GetRating@FalconSessionEntity@@QBEEXZ		; FalconSessionEntity::GetRating
PUBLIC	?GetGame@FalconSessionEntity@@QAEPAVFalconGameEntity@@XZ ; FalconSessionEntity::GetGame
PUBLIC	?SetKill@FalconSessionEntity@@QAEXGG@Z		; FalconSessionEntity::SetKill
PUBLIC	?SetMissions@FalconSessionEntity@@QAEXG@Z	; FalconSessionEntity::SetMissions
PUBLIC	?SetRating@FalconSessionEntity@@QAEXE@Z		; FalconSessionEntity::SetRating
PUBLIC	?GetSlot@SimBaseClass@@QAEHXZ			; SimBaseClass::GetSlot
PUBLIC	?GetCampaignObject@SimBaseClass@@QAEPAVCampBaseClass@@XZ ; SimBaseClass::GetCampaignObject
PUBLIC	?Online@UIComms@@QAEHXZ				; UIComms::Online
PUBLIC	??0id@locale@std@@QAE@I@Z			; std::locale::id::id
PUBLIC	?generic_category@std@@YAABVerror_category@1@XZ	; std::generic_category
PUBLIC	?system_category@std@@YAABVerror_category@1@XZ	; std::system_category
PUBLIC	??0error_category@std@@QAE@XZ			; std::error_category::error_category
PUBLIC	??1error_category@std@@UAE@XZ			; std::error_category::~error_category
PUBLIC	?default_error_condition@error_category@std@@UBE?AVerror_condition@2@H@Z ; std::error_category::default_error_condition
PUBLIC	?equivalent@error_category@std@@UBE_NHABVerror_condition@2@@Z ; std::error_category::equivalent
PUBLIC	?equivalent@error_category@std@@UBE_NABVerror_code@2@H@Z ; std::error_category::equivalent
PUBLIC	??8error_category@std@@QBE_NABV01@@Z		; std::error_category::operator==
PUBLIC	??_Gerror_category@std@@UAEPAXI@Z		; std::error_category::`scalar deleting destructor'
PUBLIC	?value@error_code@std@@QBEHXZ			; std::error_code::value
PUBLIC	?category@error_code@std@@QBEABVerror_category@2@XZ ; std::error_code::category
PUBLIC	??0error_condition@std@@QAE@HABVerror_category@1@@Z ; std::error_condition::error_condition
PUBLIC	?value@error_condition@std@@QBEHXZ		; std::error_condition::value
PUBLIC	?category@error_condition@std@@QBEABVerror_category@2@XZ ; std::error_condition::category
PUBLIC	??8error_condition@std@@QBE_NABV01@@Z		; std::error_condition::operator==
PUBLIC	??0_Generic_error_category@std@@QAE@XZ		; std::_Generic_error_category::_Generic_error_category
PUBLIC	?name@_Generic_error_category@std@@UBEPBDXZ	; std::_Generic_error_category::name
PUBLIC	?message@_Generic_error_category@std@@UBE?AV?$basic_string@DU?$char_traits@D@std@@V?$allocator@D@2@@2@H@Z ; std::_Generic_error_category::message
PUBLIC	??1_Generic_error_category@std@@UAE@XZ		; std::_Generic_error_category::~_Generic_error_category
PUBLIC	??_G_Generic_error_category@std@@UAEPAXI@Z	; std::_Generic_error_category::`scalar deleting destructor'
PUBLIC	??0_Iostream_error_category@std@@QAE@XZ		; std::_Iostream_error_category::_Iostream_error_category
PUBLIC	?name@_Iostream_error_category@std@@UBEPBDXZ	; std::_Iostream_error_category::name
PUBLIC	?message@_Iostream_error_category@std@@UBE?AV?$basic_string@DU?$char_traits@D@std@@V?$allocator@D@2@@2@H@Z ; std::_Iostream_error_category::message
PUBLIC	??1_Iostream_error_category@std@@UAE@XZ		; std::_Iostream_error_category::~_Iostream_error_category
PUBLIC	??_G_Iostream_error_category@std@@UAEPAXI@Z	; std::_Iostream_error_category::`scalar deleting destructor'
PUBLIC	??0_System_error_category@std@@QAE@XZ		; std::_System_error_category::_System_error_category
PUBLIC	?name@_System_error_category@std@@UBEPBDXZ	; std::_System_error_category::name
PUBLIC	?message@_System_error_category@std@@UBE?AV?$basic_string@DU?$char_traits@D@std@@V?$allocator@D@2@@2@H@Z ; std::_System_error_category::message
PUBLIC	?default_error_condition@_System_error_category@std@@UBE?AVerror_condition@2@H@Z ; std::_System_error_category::default_error_condition
PUBLIC	??1_System_error_category@std@@UAE@XZ		; std::_System_error_category::~_System_error_category
PUBLIC	??_G_System_error_category@std@@UAEPAXI@Z	; std::_System_error_category::`scalar deleting destructor'
PUBLIC	?GetFormatString@@YAXHPAD@Z			; GetFormatString
PUBLIC	?FindAlternateLandingStrip@@YAPAVObjectiveClass@@PAVFlightClass@@@Z ; FindAlternateLandingStrip
PUBLIC	?UpdateEvaluators@@YAXPAVFlightDataClass@@PAVPilotDataClass@@@Z ; UpdateEvaluators
PUBLIC	?CheckForNewPlayer@@YAXPAVFalconSessionEntity@@@Z ; CheckForNewPlayer
PUBLIC	?ScoreCampaign@@YAHW4score_type@@H@Z		; ScoreCampaign
PUBLIC	?ScoreDogfight@@YAHW4score_type@@H@Z		; ScoreDogfight
PUBLIC	?ScoreInstantAction@@YAHW4score_type@@H@Z	; ScoreInstantAction
PUBLIC	?RecordPlayerFlightStart@@YAXXZ			; RecordPlayerFlightStart
PUBLIC	??$construct@PADAAPAD@?$_Wrap_alloc@V?$allocator@D@std@@@std@@QAEXPAPADAAPAD@Z ; std::_Wrap_alloc<std::allocator<char> >::construct<char *,char * &>
PUBLIC	??$destroy@PAD@?$_Wrap_alloc@V?$allocator@D@std@@@std@@QAEXPAPAD@Z ; std::_Wrap_alloc<std::allocator<char> >::destroy<char *>
PUBLIC	??$addressof@D@std@@YAPADAAD@Z			; std::addressof<char>
PUBLIC	??$_Allocate@D@std@@YAPADIPAD@Z			; std::_Allocate<char>
PUBLIC	??$forward@AAPAD@std@@YAAAPADAAPAD@Z		; std::forward<char * &>
PUBLIC	??$construct@PADAAPAD@?$allocator_traits@V?$allocator@D@std@@@std@@SAXAAV?$allocator@D@1@PAPADAAPAD@Z ; std::allocator_traits<std::allocator<char> >::construct<char *,char * &>
PUBLIC	??$destroy@PAD@?$allocator_traits@V?$allocator@D@std@@@std@@SAXAAV?$allocator@D@1@PAPAD@Z ; std::allocator_traits<std::allocator<char> >::destroy<char *>
PUBLIC	??$construct@PADAAPAD@?$allocator@D@std@@QAEXPAPADAAPAD@Z ; std::allocator<char>::construct<char *,char * &>
PUBLIC	??$destroy@PAD@?$allocator@D@std@@QAEXPAPAD@Z	; std::allocator<char>::destroy<char *>
PUBLIC	??_C@_00CNPNBAHC@?$AA@				; `string'
PUBLIC	??_7error_category@std@@6B@			; std::error_category::`vftable'
PUBLIC	??_7_Generic_error_category@std@@6B@		; std::_Generic_error_category::`vftable'
PUBLIC	??_C@_07DCLBNMLN@generic?$AA@			; `string'
PUBLIC	??_C@_0O@BFJCFAAK@unknown?5error?$AA@		; `string'
PUBLIC	??_7_Iostream_error_category@std@@6B@		; std::_Iostream_error_category::`vftable'
PUBLIC	??_C@_08LLGCOLLL@iostream?$AA@			; `string'
PUBLIC	??_C@_0BG@PADBLCHM@iostream?5stream?5error?$AA@	; `string'
PUBLIC	??_7_System_error_category@std@@6B@		; std::_System_error_category::`vftable'
PUBLIC	??_C@_06FHFOAHML@system?$AA@			; `string'
PUBLIC	?_Generic_object@?$_Error_objects@H@std@@2V_Generic_error_category@2@A ; std::_Error_objects<int>::_Generic_object
PUBLIC	?_Iostream_object@?$_Error_objects@H@std@@2V_Iostream_error_category@2@A ; std::_Error_objects<int>::_Iostream_object
PUBLIC	?_System_object@?$_Error_objects@H@std@@2V_System_error_category@2@A ; std::_Error_objects<int>::_System_object
PUBLIC	?id@?$num_put@DV?$back_insert_iterator@V?$basic_string@DU?$char_traits@D@std@@V?$allocator@D@2@@std@@@std@@@std@@2V0locale@2@A ; std::num_put<char,std::back_insert_iterator<std::basic_string<char,std::char_traits<char>,std::allocator<char> > > >::id
PUBLIC	?id@?$num_put@_WV?$back_insert_iterator@V?$basic_string@_WU?$char_traits@_W@std@@V?$allocator@_W@2@@std@@@std@@@std@@2V0locale@2@A ; std::num_put<wchar_t,std::back_insert_iterator<std::basic_string<wchar_t,std::char_traits<wchar_t>,std::allocator<wchar_t> > > >::id
PUBLIC	??_C@_0M@MGCAHMKC@debrief?4txt?$AA@		; `string'
PUBLIC	??_C@_01MCMALHOG@a?$AA@				; `string'
PUBLIC	??_C@_0DN@GBIKDBEL@?6?6?6?9?9?9?9?9?9?9?9?9?9?9?9?9?9?9?9?9?9?9?9?9?9?9?9?9?9?9?9?9@ ; `string'
PUBLIC	??_C@_0BI@HKCLIKLE@?$CFd?1?$CFd?1?$CFd?5?$CF02d?3?$CF02d?3?$CF02d?$AA@ ; `string'
PUBLIC	??_C@_0BM@IKDBNCFO@RECORD?5BEGIN?5TIMESTAMP?5?$CFs?4?6?$AA@ ; `string'
PUBLIC	??_C@_0P@GHEJFKFN@Instant?5Action?$AA@		; `string'
PUBLIC	??_C@_08DLBHGMLL@DogFight?$AA@			; `string'
PUBLIC	??_C@_0BE@NJKPNHIC@Tactical?5Engagement?$AA@	; `string'
PUBLIC	??_C@_08FHHBCJKK@Campaign?$AA@			; `string'
PUBLIC	??_C@_09EEKGDCPH@?$DMunknown?$DO?$AA@		; `string'
PUBLIC	??_C@_09FCDNMMPE@Networked?$AA@			; `string'
PUBLIC	??_C@_05IEALKJIG@Local?$AA@			; `string'
PUBLIC	??_C@_0BF@OIBLHPO@Game?5is?5?$CFs?5type?5?$CFs?$AN?6?$AA@ ; `string'
PUBLIC	??_C@_0BC@CHCLLJFL@Mission?5name?3?5?$CFs?6?$AA@ ; `string'
PUBLIC	??_C@_0BE@BCFAANAH@?6Mission?5Type?3?5?$CFs?5?6?$AA@ ; `string'
PUBLIC	??_C@_0BG@EEBFOKCB@Flight?5Unique?5Id?3?5?$CFd?6?$AA@ ; `string'
PUBLIC	??_C@_0BA@EOLDELII@?$CFd?5Ship?5Flight?6?$AA@	; `string'
PUBLIC	??_C@_0O@MMEDOBLI@Ac?5type?3?5?$CFs?5?6?$AA@	; `string'
PUBLIC	??_C@_0N@IDPGLABD@Contry?3?5?$CFs?5?6?$AA@	; `string'
PUBLIC	??_C@_0BA@NIINDLH@?6FLIGHT?5EVENTS?6?$AA@	; `string'
PUBLIC	??_C@_0L@LGCHIIGB@Event?5?$CFs?5?6?$AA@		; `string'
PUBLIC	??_C@_0BA@MJCDAMBC@?6?9?9?9?9?9?9?9?9?9?9?9?9?9?6?$AA@ ; `string'
PUBLIC	??_C@_0BB@OPDOHJIC@PILOT?5SLOT?5?$CFd?3?6?6?$AA@ ; `string'
PUBLIC	??_C@_0BD@CGHEKCME@Human?5Player?3?5?$CFs?5?6?$AA@ ; `string'
PUBLIC	??_C@_0BA@BMFMJKBJ@AI?5Player?3?5?$CFs?5?6?$AA@	; `string'
PUBLIC	??_C@_0P@FFIOHKIF@Callsign?3?5?$CFs?5?6?$AA@	; `string'
PUBLIC	??_C@_05LILJEDNC@?5?9?5OK?$AA@			; `string'
PUBLIC	??_C@_06NOBDHMG@?5?9?5KIA?$AA@			; `string'
PUBLIC	??_C@_06CIIKGIBK@?5?9?5MIA?$AA@			; `string'
PUBLIC	??_C@_0L@KAFIAHBI@?5?9?5RESCUED?$AA@		; `string'
PUBLIC	??_C@_0BC@NECBLOHJ@Pilot?5status?5?$CFs?5?6?$AA@ ; `string'
PUBLIC	??_C@_0M@JCOFIOFE@?5?9?5REPAIRED?$AA@		; `string'
PUBLIC	??_C@_0L@FHMPLEDI@?5?9?5DAMAGED?$AA@		; `string'
PUBLIC	??_C@_0N@IDDEJMDM@?5?9?5DESTROYED?$AA@		; `string'
PUBLIC	??_C@_0BG@GABCFBAO@?5?9?5DAMAGED?5Left?5side?5?$AA@ ; `string'
PUBLIC	??_C@_0BG@LDLHFPBO@?5?9?5DAMAGED?5Right?5side?$AA@ ; `string'
PUBLIC	??_C@_0BG@BNPCKKMF@?5?9?5DAMAGED?5Both?5sides?$AA@ ; `string'
PUBLIC	??_C@_0BF@GEHCBOF@Aircraft?5status?5?$CFs?5?6?$AA@ ; `string'
PUBLIC	??_C@_0O@MKLLNEPG@AA?5Kills?5?$CFd?5?6?$AA@	; `string'
PUBLIC	??_C@_0O@GKFOALCL@AG?5Kills?5?$CFd?5?6?$AA@	; `string'
PUBLIC	??_C@_0O@BOOAMHGH@AS?5Kills?5?$CFd?5?6?$AA@	; `string'
PUBLIC	??_C@_0O@ONMLABMD@AN?5Kills?5?$CFd?5?6?$AA@	; `string'
PUBLIC	??_C@_0O@EABMAKLM@Shoot?5At?5?$CFd?5?6?$AA@	; `string'
PUBLIC	??_C@_0BI@LGLGDDGC@Other?5Player?5Kills?5?$CFd?5?6?$AA@ ; `string'
PUBLIC	??_C@_0P@KGHBHCCE@?6WEAPON?5DATA?5?6?$AA@	; `string'
PUBLIC	??_C@_0BC@FFNAOCDI@?6LOADOUT?5?$CFd?3?5?$CFs?5?6?$AA@ ; `string'
PUBLIC	??_C@_0BD@CKMJDHIO@Starting?5Load?5?$CFd?5?6?$AA@ ; `string'
PUBLIC	??_C@_0L@MGLLPEAD@Fired?5?$CFd?5?6?$AA@		; `string'
PUBLIC	??_C@_0M@EKLGELON@Missed?5?$CFd?5?6?$AA@	; `string'
PUBLIC	??_C@_08NDFEGOJK@Hit?5?$CFd?5?6?$AA@		; `string'
PUBLIC	??_C@_01EEMJAFIK@?6?$AA@			; `string'
PUBLIC	??_C@_0BL@PHCKMIHC@?$CFs?5?$CFs?5launched?5?$CFs?5at?5?$CFs?5?$CFs?$AA@ ; `string'
PUBLIC	??_C@_0BF@IDBLIENJ@?$CFs?5launched?5at?5?$CFs?5?$CFs?$AA@ ; `string'
PUBLIC	??_C@_04HGGBINEM@?$CFs?$CFd?$AA@		; `string'
PUBLIC	??_C@_0BN@CKAKIEH@Session?5is?5not?5in?5this?5game?6?$AA@ ; `string'
PUBLIC	??_C@_0BF@IFLHMPKP@ScoreDogfight?5?$CFd?5?$CFd?6?$AA@ ; `string'
PUBLIC	??_C@_0CA@DFDAEAKG@Session?5not?5in?5this?5local?5game?6?$AA@ ; `string'
PUBLIC	?id@?$numpunct@D@std@@2V0locale@2@A		; std::numpunct<char>::id
PUBLIC	?id@?$numpunct@_W@std@@2V0locale@2@A		; std::numpunct<wchar_t>::id
PUBLIC	??_C@_0BI@CFPLBAOH@invalid?5string?5position?$AA@ ; `string'
PUBLIC	??_C@_0BA@JFNIOLAK@string?5too?5long?$AA@	; `string'
PUBLIC	??_R4error_category@std@@6B@			; std::error_category::`RTTI Complete Object Locator'
PUBLIC	??_R0?AVerror_category@std@@@8			; std::error_category `RTTI Type Descriptor'
PUBLIC	??_R3error_category@std@@8			; std::error_category::`RTTI Class Hierarchy Descriptor'
PUBLIC	??_R2error_category@std@@8			; std::error_category::`RTTI Base Class Array'
PUBLIC	??_R1A@?0A@EA@error_category@std@@8		; std::error_category::`RTTI Base Class Descriptor at (0,-1,0,64)'
PUBLIC	??_R4_Generic_error_category@std@@6B@		; std::_Generic_error_category::`RTTI Complete Object Locator'
PUBLIC	??_R0?AV_Generic_error_category@std@@@8		; std::_Generic_error_category `RTTI Type Descriptor'
PUBLIC	??_R3_Generic_error_category@std@@8		; std::_Generic_error_category::`RTTI Class Hierarchy Descriptor'
PUBLIC	??_R2_Generic_error_category@std@@8		; std::_Generic_error_category::`RTTI Base Class Array'
PUBLIC	??_R1A@?0A@EA@_Generic_error_category@std@@8	; std::_Generic_error_category::`RTTI Base Class Descriptor at (0,-1,0,64)'
PUBLIC	??_R4_Iostream_error_category@std@@6B@		; std::_Iostream_error_category::`RTTI Complete Object Locator'
PUBLIC	??_R0?AV_Iostream_error_category@std@@@8	; std::_Iostream_error_category `RTTI Type Descriptor'
PUBLIC	??_R3_Iostream_error_category@std@@8		; std::_Iostream_error_category::`RTTI Class Hierarchy Descriptor'
PUBLIC	??_R2_Iostream_error_category@std@@8		; std::_Iostream_error_category::`RTTI Base Class Array'
PUBLIC	??_R1A@?0A@EA@_Iostream_error_category@std@@8	; std::_Iostream_error_category::`RTTI Base Class Descriptor at (0,-1,0,64)'
PUBLIC	??_R4_System_error_category@std@@6B@		; std::_System_error_category::`RTTI Complete Object Locator'
PUBLIC	??_R0?AV_System_error_category@std@@@8		; std::_System_error_category `RTTI Type Descriptor'
PUBLIC	??_R3_System_error_category@std@@8		; std::_System_error_category::`RTTI Class Hierarchy Descriptor'
PUBLIC	??_R2_System_error_category@std@@8		; std::_System_error_category::`RTTI Base Class Array'
PUBLIC	??_R1A@?0A@EA@_System_error_category@std@@8	; std::_System_error_category::`RTTI Base Class Descriptor at (0,-1,0,64)'
PUBLIC	__real@00000000
PUBLIC	__real@0000000000000000
PUBLIC	__real@399edbf9
PUBLIC	__real@3f000000
PUBLIC	__real@41c80000
PUBLIC	__real@42c80000
PUBLIC	__real@44192000
PUBLIC	__real@4479f99a
PUBLIC	__real@447a0000
PUBLIC	__real@46072400
PUBLIC	__real@49742400
PUBLIC	__real@4a5bba00
PUBLIC	__xmm@41f00000000000000000000000000000
EXTRN	??_L@YGXPAXIHP6EX0@Z1@Z:PROC			; `eh vector constructor iterator'
EXTRN	??_M@YGXPAXIHP6EX0@Z@Z:PROC			; `eh vector destructor iterator'
EXTRN	__purecall:PROC
EXTRN	??2@YAPAXI@Z:PROC				; operator new
EXTRN	??3@YAXPAX@Z:PROC				; operator delete
EXTRN	_atexit:PROC
EXTRN	_fclose:PROC
EXTRN	_fopen:PROC
EXTRN	_fputs:PROC
EXTRN	__snprintf:PROC
EXTRN	_sprintf:PROC
EXTRN	_memcpy:PROC
EXTRN	_memset:PROC
EXTRN	_strcpy:PROC
EXTRN	_strlen:PROC
EXTRN	_memmove:PROC
EXTRN	__imp__FileTimeToLocalFileTime@8:PROC
EXTRN	__imp__GetSystemTimeAsFileTime@4:PROC
EXTRN	__imp__FileTimeToDosDateTime@12:PROC
EXTRN	__imp__wsprintfA:PROC
EXTRN	__mbscmp:PROC
EXTRN	__mbsstr:PROC
EXTRN	?IsLocal@VuEntity@@QBEEXZ:PROC			; VuEntity::IsLocal
EXTRN	??_U@YAPAXI@Z:PROC				; operator new[]
EXTRN	?_Xbad_alloc@std@@YAXXZ:PROC			; std::_Xbad_alloc
EXTRN	?_Xlength_error@std@@YAXPBD@Z:PROC		; std::_Xlength_error
EXTRN	?_Xout_of_range@std@@YAXPBD@Z:PROC		; std::_Xout_of_range
EXTRN	?Find@VuDatabase@@QBEPAVVuEntity@@VVU_ID@@@Z:PROC ; VuDatabase::Find
EXTRN	?Game@VuSessionEntity@@QAEPAVVuGameEntity@@XZ:PROC ; VuSessionEntity::Game
EXTRN	??0VuListIterator@@QAE@PAVVuLinkedList@@@Z:PROC	; VuListIterator::VuListIterator
EXTRN	??1VuListIterator@@UAE@XZ:PROC			; VuListIterator::~VuListIterator
EXTRN	?GetFirst@VuListIterator@@QAEPAVVuEntity@@XZ:PROC ; VuListIterator::GetFirst
EXTRN	?GetNext@VuListIterator@@QAEPAVVuEntity@@XZ:PROC ; VuListIterator::GetNext
EXTRN	??0VuGridIterator@@QAE@PAVVuGridTree@@MMM@Z:PROC ; VuGridIterator::VuGridIterator
EXTRN	??1VuGridIterator@@UAE@XZ:PROC			; VuGridIterator::~VuGridIterator
EXTRN	?GetFirst@VuGridIterator@@QAEPAVVuEntity@@XZ:PROC ; VuGridIterator::GetFirst
EXTRN	?GetNext@VuGridIterator@@QAEPAVVuEntity@@XZ:PROC ; VuGridIterator::GetNext
EXTRN	?GetLocation@FalconEntity@@QBEXPAF0@Z:PROC	; FalconEntity::GetLocation
EXTRN	_MonoPrint:PROC
EXTRN	?F4IsBadReadPtr@@YA_NPBXI@Z:PROC		; F4IsBadReadPtr
EXTRN	?GetWeaponHitChance@@YAHHH@Z:PROC		; GetWeaponHitChance
EXTRN	?FalconSendMessage@@YAXPAVVuMessage@@H@Z:PROC	; FalconSendMessage
EXTRN	?GetTeam@@YAEE@Z:PROC				; GetTeam
EXTRN	?GetSpotted@CampBaseClass@@QAEHE@Z:PROC		; CampBaseClass::GetSpotted
EXTRN	?SetInPackage@CampBaseClass@@QAEXH@Z:PROC	; CampBaseClass::SetInPackage
EXTRN	?GetVehicleClassData@@YAPAUVehicleClassDataType@@H@Z:PROC ; GetVehicleClassData
EXTRN	_F4EnterCriticalSection:PROC
EXTRN	_F4LeaveCriticalSection:PROC
EXTRN	?GetGameType@FalconGameEntity@@QAE?AW4FalconGameType@@XZ:PROC ; FalconGameEntity::GetGameType
EXTRN	?GetUnitClassData@UnitClass@@QAEPAUUnitClassDataType@@XZ:PROC ; UnitClass::GetUnitClassData
EXTRN	?GetUnitDestination@UnitClass@@QAEXPAF0@Z:PROC	; UnitClass::GetUnitDestination
EXTRN	?GetVehicleID@UnitClass@@QAEFH@Z:PROC		; UnitClass::GetVehicleID
EXTRN	?GetTotalVehicles@UnitClass@@QAEHXZ:PROC	; UnitClass::GetTotalVehicles
EXTRN	?GetFeatureValue@ObjectiveClass@@QAEHH@Z:PROC	; ObjectiveClass::GetFeatureValue
EXTRN	?GetFeatureID@ObjectiveClass@@QAEHH@Z:PROC	; ObjectiveClass::GetFeatureID
EXTRN	?GetObjectiveClassData@ObjectiveClass@@QAEPAUObjClassDataType@@XZ:PROC ; ObjectiveClass::GetObjectiveClassData
EXTRN	?BestTargetFeature@@YAHPAVObjectiveClass@@QAE@Z:PROC ; BestTargetFeature
EXTRN	?DistSqu@@YAHFFFF@Z:PROC			; DistSqu
EXTRN	?Distance@@YAMFFFF@Z:PROC			; Distance
EXTRN	?FindUnit@@YAPAVUnitClass@@VVU_ID@@@Z:PROC	; FindUnit
EXTRN	?FindEntity@@YAPAVCampBaseClass@@VVU_ID@@@Z:PROC ; FindEntity
EXTRN	?GetEntityByCampID@@YAPAVCampBaseClass@@H@Z:PROC ; GetEntityByCampID
EXTRN	?FindNearestObjective@@YAPAVObjectiveClass@@PAVVuLinkedList@@FFPAM@Z:PROC ; FindNearestObjective
EXTRN	?GetObjectiveByXY@@YAPAVObjectiveClass@@FF@Z:PROC ; GetObjectiveByXY
EXTRN	?GridToSim@@YAMF@Z:PROC				; GridToSim
EXTRN	?FindPlayer@@YAPAVFalconSessionEntity@@PAVFlightClass@@E@Z:PROC ; FindPlayer
EXTRN	?FindPlayer@@YAPAVFalconSessionEntity@@VVU_ID@@EE@Z:PROC ; FindPlayer
EXTRN	?GetPilotName@@YAXHPADH@Z:PROC			; GetPilotName
EXTRN	?GetCallsign@@YAXHHPAD@Z:PROC			; GetCallsign
EXTRN	?FindSupportFlights@PackageClass@@QAEXPAVMissionRequestClass@@H@Z:PROC ; PackageClass::FindSupportFlights
EXTRN	?GetOverrideWP@FlightClass@@QAEPAVWayPointClass@@XZ:PROC ; FlightClass::GetOverrideWP
EXTRN	?SetEvalFlag@FlightClass@@QAEXEH@Z:PROC		; FlightClass::SetEvalFlag
EXTRN	?GetPilotID@FlightClass@@QAEHH@Z:PROC		; FlightClass::GetPilotID
EXTRN	?InsertEventToList@@YAXPAVEventElement@@0@Z:PROC ; InsertEventToList
EXTRN	?DisposeEventList@@YAXPAVEventElement@@@Z:PROC	; DisposeEventList
EXTRN	?GetCCRelations@@YAHEE@Z:PROC			; GetCCRelations
EXTRN	?GetTTRelations@@YAHEE@Z:PROC			; GetTTRelations
EXTRN	?GetRoE@@YAHEEH@Z:PROC				; GetRoE
EXTRN	?ApplyPlayerInput@@YAXEVVU_ID@@H@Z:PROC		; ApplyPlayerInput
EXTRN	?GetTimeString@@YAPADKQADH@Z:PROC		; GetTimeString
EXTRN	?ReadIndexedString@@YAXHPADH@Z:PROC		; ReadIndexedString
EXTRN	?GetFeatureClassData@@YAPAUFeatureClassDataType@@H@Z:PROC ; GetFeatureClassData
EXTRN	?SaveData@LogBookData@@QAEHXZ:PROC		; LogBookData::SaveData
EXTRN	?UpdateDogfight@LogBookData@@QAEXFMFFFFF@Z:PROC	; LogBookData::UpdateDogfight
EXTRN	?UpdateCampaign@LogBookData@@QAEXPAUCAMP_MISS_STRUCT@@@Z:PROC ; LogBookData::UpdateCampaign
EXTRN	?SetAceFactorKill@FalconSessionEntity@@QAEXM@Z:PROC ; FalconSessionEntity::SetAceFactorKill
EXTRN	?SetAceFactorDeath@FalconSessionEntity@@QAEXM@Z:PROC ; FalconSessionEntity::SetAceFactorDeath
EXTRN	?SendEvalData@@YAXPAVFlightDataClass@@PAVPilotDataClass@@@Z:PROC ; SendEvalData
EXTRN	??0UI_SendChatMessage@@QAE@VVU_ID@@PAVVuTargetEntity@@E@Z:PROC ; UI_SendChatMessage::UI_SendChatMessage
EXTRN	?GetOwner@@YAEPAEFF@Z:PROC			; GetOwner
EXTRN	?FindCampaignPlayer@UIComms@@QAEPAVFalconSessionEntity@@VVU_ID@@E@Z:PROC ; UIComms::FindCampaignPlayer
EXTRN	?AddIndexedStringToBuffer@@YAXHPAD@Z:PROC	; AddIndexedStringToBuffer
EXTRN	?ConstructOrderedSentence@@YAXFPAD0ZZ:PROC	; ConstructOrderedSentence
EXTRN	??_Eerror_category@std@@UAEPAXI@Z:PROC		; std::error_category::`vector deleting destructor'
EXTRN	?_Syserror_map@std@@YAPBDH@Z:PROC		; std::_Syserror_map
EXTRN	?_Winerror_map@std@@YAPBDH@Z:PROC		; std::_Winerror_map
EXTRN	??_E_Generic_error_category@std@@UAEPAXI@Z:PROC	; std::_Generic_error_category::`vector deleting destructor'
EXTRN	??_E_Iostream_error_category@std@@UAEPAXI@Z:PROC ; std::_Iostream_error_category::`vector deleting destructor'
EXTRN	??_E_System_error_category@std@@UAEPAXI@Z:PROC	; std::_System_error_category::`vector deleting destructor'
EXTRN	?get_title@tactical_mission@@QAEPADXZ:PROC	; tactical_mission::get_title
EXTRN	?RatePilot@@YAXPAVFlightClass@@HH@Z:PROC	; RatePilot
EXTRN	?AddWeaponToUsageList@@YAHH@Z:PROC		; AddWeaponToUsageList
EXTRN	?AddAircraftToKillsList@@YAHH@Z:PROC		; AddAircraftToKillsList
EXTRN	?AddObjectToKillsList@@YAHH@Z:PROC		; AddObjectToKillsList
EXTRN	?score_player_ejected@@YAHXZ:PROC		; score_player_ejected
EXTRN	?ConvertTeamToStringIndex@@YAHHHHH@Z:PROC	; ConvertTeamToStringIndex
EXTRN	@__security_check_cookie@4:PROC
EXTRN	__CxxThrowException@8:PROC
EXTRN	___CxxFrameHandler3:PROC
EXTRN	_memset:PROC
EXTRN	?vuDatabase@@3PAVVuDatabase@@A:DWORD		; vuDatabase
EXTRN	?vuLocalSessionEntity@@3V?$VuBin@VVuSessionEntity@@@@A:DWORD ; vuLocalSessionEntity
EXTRN	?vuxGameTime@@3KA:DWORD				; vuxGameTime
EXTRN	?FalconNullId@@3VVU_ID@@A:QWORD			; FalconNullId
EXTRN	?MissionData@@3PAUMissionDataType@@A:BYTE	; MissionData
EXTRN	?WeaponDataTable@@3PAUWeaponClassDataType@@A:DWORD ; WeaponDataTable
EXTRN	?RocketDataTable@@3PAURocketClassDataType@@A:DWORD ; RocketDataTable
EXTRN	?Falcon4ClassTable@@3PAUFalcon4EntityClassType@@A:DWORD ; Falcon4ClassTable
EXTRN	??_7type_info@@6B@:QWORD			; type_info::`vftable'
EXTRN	?campCritical@@3PAUF4CSECTIONHANDLE@@A:DWORD	; campCritical
EXTRN	?DefaultDamageMods@@3PAEA:BYTE			; DefaultDamageMods
EXTRN	?TheCampaign@@3VCampaignClass@@A:BYTE		; TheCampaign
EXTRN	?LOW_ALTITUDE_CUTOFF@@3FA:WORD			; LOW_ALTITUDE_CUTOFF
EXTRN	?MAX_AIR_SEARCH@@3FA:WORD			; MAX_AIR_SEARCH
EXTRN	?AllAirList@@3PAVVuLinkedList@@A:DWORD		; AllAirList
EXTRN	?POList@@3PAVFalconPrivateOrderedList@@A:DWORD	; POList
EXTRN	?ObjProxList@@3PAVVuGridTree@@A:DWORD		; ObjProxList
EXTRN	?RealUnitProxList@@3PAVVuGridTree@@A:DWORD	; RealUnitProxList
EXTRN	?SimDogfight@@3VDogfightClass@@A:BYTE		; SimDogfight
EXTRN	?TeamInfo@@3PAPAVTeamClass@@A:BYTE		; TeamInfo
EXTRN	?LogBook@@3VLogBookData@@A:BYTE			; LogBook
EXTRN	?gCommsMgr@@3PAVUIComms@@A:DWORD		; gCommsMgr
EXTRN	?gLangIDNum@@3HA:DWORD				; gLangIDNum
EXTRN	?current_tactical_mission@@3PAVtactical_mission@@A:DWORD ; current_tactical_mission
EXTRN	?g_bLogEvents@@3_NA:BYTE			; g_bLogEvents
EXTRN	?NumWeaponTypes@@3FA:WORD			; NumWeaponTypes
EXTRN	?NumRocketTypes@@3FA:WORD			; NumRocketTypes
EXTRN	?g_bNoAAAEventRecords@@3_NA:BYTE		; g_bNoAAAEventRecords
EXTRN	?gRefreshScoresList@@3JA:DWORD			; gRefreshScoresList
EXTRN	___security_cookie:DWORD
EXTRN	__fltused:DWORD
_BSS	SEGMENT
_piecewise_construct DB 01H DUP (?)
_allocator_arg DB 01H DUP (?)
_BSS	ENDS
;	COMDAT ?_Generic_object@?$_Error_objects@H@std@@2V_Generic_error_category@2@A
_BSS	SEGMENT
?_Generic_object@?$_Error_objects@H@std@@2V_Generic_error_category@2@A DD 01H DUP (?) ; std::_Error_objects<int>::_Generic_object
_BSS	ENDS
;	COMDAT ?_Iostream_object@?$_Error_objects@H@std@@2V_Iostream_error_category@2@A
_BSS	SEGMENT
?_Iostream_object@?$_Error_objects@H@std@@2V_Iostream_error_category@2@A DD 01H DUP (?) ; std::_Error_objects<int>::_Iostream_object
_BSS	ENDS
;	COMDAT ?_System_object@?$_Error_objects@H@std@@2V_System_error_category@2@A
_BSS	SEGMENT
?_System_object@?$_Error_objects@H@std@@2V_System_error_category@2@A DD 01H DUP (?) ; std::_Error_objects<int>::_System_object
_BSS	ENDS
;	COMDAT ?id@?$num_put@DV?$back_insert_iterator@V?$basic_string@DU?$char_traits@D@std@@V?$allocator@D@2@@std@@@std@@@std@@2V0locale@2@A
_BSS	SEGMENT
?id@?$num_put@DV?$back_insert_iterator@V?$basic_string@DU?$char_traits@D@std@@V?$allocator@D@2@@std@@@std@@@std@@2V0locale@2@A DD 01H DUP (?) ; std::num_put<char,std::back_insert_iterator<std::basic_string<char,std::char_traits<char>,std::allocator<char> > > >::id
_BSS	ENDS
;	COMDAT ?id@?$num_put@_WV?$back_insert_iterator@V?$basic_string@_WU?$char_traits@_W@std@@V?$allocator@_W@2@@std@@@std@@@std@@2V0locale@2@A
_BSS	SEGMENT
?id@?$num_put@_WV?$back_insert_iterator@V?$basic_string@_WU?$char_traits@_W@std@@V?$allocator@_W@2@@std@@@std@@@std@@2V0locale@2@A DD 01H DUP (?) ; std::num_put<wchar_t,std::back_insert_iterator<std::basic_string<wchar_t,std::char_traits<wchar_t>,std::allocator<wchar_t> > > >::id
_BSS	ENDS
;	COMDAT ?id@?$numpunct@D@std@@2V0locale@2@A
_BSS	SEGMENT
?id@?$numpunct@D@std@@2V0locale@2@A DD 01H DUP (?)	; std::numpunct<char>::id
_BSS	ENDS
;	COMDAT ?id@?$numpunct@_W@std@@2V0locale@2@A
_BSS	SEGMENT
?id@?$numpunct@_W@std@@2V0locale@2@A DD 01H DUP (?)	; std::numpunct<wchar_t>::id
_BSS	ENDS
CRT$XCU	SEGMENT
_piecewise_construct$initializer$ DD FLAT:??__Epiecewise_construct@std@@YAXXZ
CRT$XCU	ENDS
;	COMDAT __xmm@41f00000000000000000000000000000
CONST	SEGMENT
__xmm@41f00000000000000000000000000000 DB 00H, 00H, 00H, 00H, 00H, 00H, 00H
	DB	00H, 00H, 00H, 00H, 00H, 00H, 00H, 0f0H, 'A'
CONST	ENDS
;	COMDAT __real@4a5bba00
CONST	SEGMENT
__real@4a5bba00 DD 04a5bba00r			; 3.6e+006
CONST	ENDS
;	COMDAT __real@49742400
CONST	SEGMENT
__real@49742400 DD 049742400r			; 1e+006
CONST	ENDS
;	COMDAT __real@46072400
CONST	SEGMENT
__real@46072400 DD 046072400r			; 8649
CONST	ENDS
;	COMDAT __real@447a0000
CONST	SEGMENT
__real@447a0000 DD 0447a0000r			; 1000
CONST	ENDS
;	COMDAT __real@4479f99a
CONST	SEGMENT
__real@4479f99a DD 04479f99ar			; 999.9
CONST	ENDS
;	COMDAT __real@44192000
CONST	SEGMENT
__real@44192000 DD 044192000r			; 612.5
CONST	ENDS
;	COMDAT __real@42c80000
CONST	SEGMENT
__real@42c80000 DD 042c80000r			; 100
CONST	ENDS
;	COMDAT __real@41c80000
CONST	SEGMENT
__real@41c80000 DD 041c80000r			; 25
CONST	ENDS
;	COMDAT __real@3f000000
CONST	SEGMENT
__real@3f000000 DD 03f000000r			; 0.5
CONST	ENDS
;	COMDAT __real@399edbf9
CONST	SEGMENT
__real@399edbf9 DD 0399edbf9r			; 0.000303
CONST	ENDS
;	COMDAT __real@0000000000000000
CONST	SEGMENT
__real@0000000000000000 DQ 00000000000000000r	; 0
CONST	ENDS
;	COMDAT __real@00000000
CONST	SEGMENT
__real@00000000 DD 000000000r			; 0
CONST	ENDS
;	COMDAT ??_R1A@?0A@EA@_System_error_category@std@@8
rdata$r	SEGMENT
??_R1A@?0A@EA@_System_error_category@std@@8 DD FLAT:??_R0?AV_System_error_category@std@@@8 ; std::_System_error_category::`RTTI Base Class Descriptor at (0,-1,0,64)'
	DD	02H
	DD	00H
	DD	0ffffffffH
	DD	00H
	DD	040H
	DD	FLAT:??_R3_System_error_category@std@@8
rdata$r	ENDS
;	COMDAT ??_R2_System_error_category@std@@8
rdata$r	SEGMENT
??_R2_System_error_category@std@@8 DD FLAT:??_R1A@?0A@EA@_System_error_category@std@@8 ; std::_System_error_category::`RTTI Base Class Array'
	DD	FLAT:??_R1A@?0A@EA@_Generic_error_category@std@@8
	DD	FLAT:??_R1A@?0A@EA@error_category@std@@8
rdata$r	ENDS
;	COMDAT ??_R3_System_error_category@std@@8
rdata$r	SEGMENT
??_R3_System_error_category@std@@8 DD 00H		; std::_System_error_category::`RTTI Class Hierarchy Descriptor'
	DD	00H
	DD	03H
	DD	FLAT:??_R2_System_error_category@std@@8
rdata$r	ENDS
;	COMDAT ??_R0?AV_System_error_category@std@@@8
_DATA	SEGMENT
??_R0?AV_System_error_category@std@@@8 DD FLAT:??_7type_info@@6B@ ; std::_System_error_category `RTTI Type Descriptor'
	DD	00H
	DB	'.?AV_System_error_category@std@@', 00H
_DATA	ENDS
;	COMDAT ??_R4_System_error_category@std@@6B@
rdata$r	SEGMENT
??_R4_System_error_category@std@@6B@ DD 00H		; std::_System_error_category::`RTTI Complete Object Locator'
	DD	00H
	DD	00H
	DD	FLAT:??_R0?AV_System_error_category@std@@@8
	DD	FLAT:??_R3_System_error_category@std@@8
rdata$r	ENDS
;	COMDAT ??_R1A@?0A@EA@_Iostream_error_category@std@@8
rdata$r	SEGMENT
??_R1A@?0A@EA@_Iostream_error_category@std@@8 DD FLAT:??_R0?AV_Iostream_error_category@std@@@8 ; std::_Iostream_error_category::`RTTI Base Class Descriptor at (0,-1,0,64)'
	DD	02H
	DD	00H
	DD	0ffffffffH
	DD	00H
	DD	040H
	DD	FLAT:??_R3_Iostream_error_category@std@@8
rdata$r	ENDS
;	COMDAT ??_R2_Iostream_error_category@std@@8
rdata$r	SEGMENT
??_R2_Iostream_error_category@std@@8 DD FLAT:??_R1A@?0A@EA@_Iostream_error_category@std@@8 ; std::_Iostream_error_category::`RTTI Base Class Array'
	DD	FLAT:??_R1A@?0A@EA@_Generic_error_category@std@@8
	DD	FLAT:??_R1A@?0A@EA@error_category@std@@8
rdata$r	ENDS
;	COMDAT ??_R3_Iostream_error_category@std@@8
rdata$r	SEGMENT
??_R3_Iostream_error_category@std@@8 DD 00H		; std::_Iostream_error_category::`RTTI Class Hierarchy Descriptor'
	DD	00H
	DD	03H
	DD	FLAT:??_R2_Iostream_error_category@std@@8
rdata$r	ENDS
;	COMDAT ??_R0?AV_Iostream_error_category@std@@@8
_DATA	SEGMENT
??_R0?AV_Iostream_error_category@std@@@8 DD FLAT:??_7type_info@@6B@ ; std::_Iostream_error_category `RTTI Type Descriptor'
	DD	00H
	DB	'.?AV_Iostream_error_category@std@@', 00H
_DATA	ENDS
;	COMDAT ??_R4_Iostream_error_category@std@@6B@
rdata$r	SEGMENT
??_R4_Iostream_error_category@std@@6B@ DD 00H		; std::_Iostream_error_category::`RTTI Complete Object Locator'
	DD	00H
	DD	00H
	DD	FLAT:??_R0?AV_Iostream_error_category@std@@@8
	DD	FLAT:??_R3_Iostream_error_category@std@@8
rdata$r	ENDS
;	COMDAT ??_R1A@?0A@EA@_Generic_error_category@std@@8
rdata$r	SEGMENT
??_R1A@?0A@EA@_Generic_error_category@std@@8 DD FLAT:??_R0?AV_Generic_error_category@std@@@8 ; std::_Generic_error_category::`RTTI Base Class Descriptor at (0,-1,0,64)'
	DD	01H
	DD	00H
	DD	0ffffffffH
	DD	00H
	DD	040H
	DD	FLAT:??_R3_Generic_error_category@std@@8
rdata$r	ENDS
;	COMDAT ??_R2_Generic_error_category@std@@8
rdata$r	SEGMENT
??_R2_Generic_error_category@std@@8 DD FLAT:??_R1A@?0A@EA@_Generic_error_category@std@@8 ; std::_Generic_error_category::`RTTI Base Class Array'
	DD	FLAT:??_R1A@?0A@EA@error_category@std@@8
rdata$r	ENDS
;	COMDAT ??_R3_Generic_error_category@std@@8
rdata$r	SEGMENT
??_R3_Generic_error_category@std@@8 DD 00H		; std::_Generic_error_category::`RTTI Class Hierarchy Descriptor'
	DD	00H
	DD	02H
	DD	FLAT:??_R2_Generic_error_category@std@@8
rdata$r	ENDS
;	COMDAT ??_R0?AV_Generic_error_category@std@@@8
_DATA	SEGMENT
??_R0?AV_Generic_error_category@std@@@8 DD FLAT:??_7type_info@@6B@ ; std::_Generic_error_category `RTTI Type Descriptor'
	DD	00H
	DB	'.?AV_Generic_error_category@std@@', 00H
_DATA	ENDS
;	COMDAT ??_R4_Generic_error_category@std@@6B@
rdata$r	SEGMENT
??_R4_Generic_error_category@std@@6B@ DD 00H		; std::_Generic_error_category::`RTTI Complete Object Locator'
	DD	00H
	DD	00H
	DD	FLAT:??_R0?AV_Generic_error_category@std@@@8
	DD	FLAT:??_R3_Generic_error_category@std@@8
rdata$r	ENDS
;	COMDAT ??_R1A@?0A@EA@error_category@std@@8
rdata$r	SEGMENT
??_R1A@?0A@EA@error_category@std@@8 DD FLAT:??_R0?AVerror_category@std@@@8 ; std::error_category::`RTTI Base Class Descriptor at (0,-1,0,64)'
	DD	00H
	DD	00H
	DD	0ffffffffH
	DD	00H
	DD	040H
	DD	FLAT:??_R3error_category@std@@8
rdata$r	ENDS
;	COMDAT ??_R2error_category@std@@8
rdata$r	SEGMENT
??_R2error_category@std@@8 DD FLAT:??_R1A@?0A@EA@error_category@std@@8 ; std::error_category::`RTTI Base Class Array'
rdata$r	ENDS
;	COMDAT ??_R3error_category@std@@8
rdata$r	SEGMENT
??_R3error_category@std@@8 DD 00H			; std::error_category::`RTTI Class Hierarchy Descriptor'
	DD	00H
	DD	01H
	DD	FLAT:??_R2error_category@std@@8
rdata$r	ENDS
;	COMDAT ??_R0?AVerror_category@std@@@8
_DATA	SEGMENT
??_R0?AVerror_category@std@@@8 DD FLAT:??_7type_info@@6B@ ; std::error_category `RTTI Type Descriptor'
	DD	00H
	DB	'.?AVerror_category@std@@', 00H
_DATA	ENDS
;	COMDAT ??_R4error_category@std@@6B@
rdata$r	SEGMENT
??_R4error_category@std@@6B@ DD 00H			; std::error_category::`RTTI Complete Object Locator'
	DD	00H
	DD	00H
	DD	FLAT:??_R0?AVerror_category@std@@@8
	DD	FLAT:??_R3error_category@std@@8
rdata$r	ENDS
;	COMDAT ??_C@_0BA@JFNIOLAK@string?5too?5long?$AA@
CONST	SEGMENT
??_C@_0BA@JFNIOLAK@string?5too?5long?$AA@ DB 'string too long', 00H ; `string'
CONST	ENDS
;	COMDAT ??_C@_0BI@CFPLBAOH@invalid?5string?5position?$AA@
CONST	SEGMENT
??_C@_0BI@CFPLBAOH@invalid?5string?5position?$AA@ DB 'invalid string posi'
	DB	'tion', 00H					; `string'
CONST	ENDS
;	COMDAT ??_C@_0CA@DFDAEAKG@Session?5not?5in?5this?5local?5game?6?$AA@
CONST	SEGMENT
??_C@_0CA@DFDAEAKG@Session?5not?5in?5this?5local?5game?6?$AA@ DB 'Session'
	DB	' not in this local game', 0aH, 00H		; `string'
CONST	ENDS
;	COMDAT ??_C@_0BF@IFLHMPKP@ScoreDogfight?5?$CFd?5?$CFd?6?$AA@
CONST	SEGMENT
??_C@_0BF@IFLHMPKP@ScoreDogfight?5?$CFd?5?$CFd?6?$AA@ DB 'ScoreDogfight %'
	DB	'd %d', 0aH, 00H				; `string'
CONST	ENDS
;	COMDAT ??_C@_0BN@CKAKIEH@Session?5is?5not?5in?5this?5game?6?$AA@
CONST	SEGMENT
??_C@_0BN@CKAKIEH@Session?5is?5not?5in?5this?5game?6?$AA@ DB 'Session is '
	DB	'not in this game', 0aH, 00H			; `string'
CONST	ENDS
;	COMDAT ??_C@_04HGGBINEM@?$CFs?$CFd?$AA@
CONST	SEGMENT
??_C@_04HGGBINEM@?$CFs?$CFd?$AA@ DB '%s%d', 00H		; `string'
CONST	ENDS
;	COMDAT ??_C@_0BF@IDBLIENJ@?$CFs?5launched?5at?5?$CFs?5?$CFs?$AA@
CONST	SEGMENT
??_C@_0BF@IDBLIENJ@?$CFs?5launched?5at?5?$CFs?5?$CFs?$AA@ DB '%s launched'
	DB	' at %s %s', 00H				; `string'
CONST	ENDS
;	COMDAT ??_C@_0BL@PHCKMIHC@?$CFs?5?$CFs?5launched?5?$CFs?5at?5?$CFs?5?$CFs?$AA@
CONST	SEGMENT
??_C@_0BL@PHCKMIHC@?$CFs?5?$CFs?5launched?5?$CFs?5at?5?$CFs?5?$CFs?$AA@ DB '%'
	DB	's %s launched %s at %s %s', 00H		; `string'
CONST	ENDS
;	COMDAT ??_C@_01EEMJAFIK@?6?$AA@
CONST	SEGMENT
??_C@_01EEMJAFIK@?6?$AA@ DB 0aH, 00H			; `string'
CONST	ENDS
;	COMDAT ??_C@_08NDFEGOJK@Hit?5?$CFd?5?6?$AA@
CONST	SEGMENT
??_C@_08NDFEGOJK@Hit?5?$CFd?5?6?$AA@ DB 'Hit %d ', 0aH, 00H ; `string'
CONST	ENDS
;	COMDAT ??_C@_0M@EKLGELON@Missed?5?$CFd?5?6?$AA@
CONST	SEGMENT
??_C@_0M@EKLGELON@Missed?5?$CFd?5?6?$AA@ DB 'Missed %d ', 0aH, 00H ; `string'
CONST	ENDS
;	COMDAT ??_C@_0L@MGLLPEAD@Fired?5?$CFd?5?6?$AA@
CONST	SEGMENT
??_C@_0L@MGLLPEAD@Fired?5?$CFd?5?6?$AA@ DB 'Fired %d ', 0aH, 00H ; `string'
CONST	ENDS
;	COMDAT ??_C@_0BD@CKMJDHIO@Starting?5Load?5?$CFd?5?6?$AA@
CONST	SEGMENT
??_C@_0BD@CKMJDHIO@Starting?5Load?5?$CFd?5?6?$AA@ DB 'Starting Load %d ', 0aH
	DB	00H						; `string'
CONST	ENDS
;	COMDAT ??_C@_0BC@FFNAOCDI@?6LOADOUT?5?$CFd?3?5?$CFs?5?6?$AA@
CONST	SEGMENT
??_C@_0BC@FFNAOCDI@?6LOADOUT?5?$CFd?3?5?$CFs?5?6?$AA@ DB 0aH, 'LOADOUT %d'
	DB	': %s ', 0aH, 00H				; `string'
CONST	ENDS
;	COMDAT ??_C@_0P@KGHBHCCE@?6WEAPON?5DATA?5?6?$AA@
CONST	SEGMENT
??_C@_0P@KGHBHCCE@?6WEAPON?5DATA?5?6?$AA@ DB 0aH, 'WEAPON DATA ', 0aH, 00H ; `string'
CONST	ENDS
;	COMDAT ??_C@_0BI@LGLGDDGC@Other?5Player?5Kills?5?$CFd?5?6?$AA@
CONST	SEGMENT
??_C@_0BI@LGLGDDGC@Other?5Player?5Kills?5?$CFd?5?6?$AA@ DB 'Other Player '
	DB	'Kills %d ', 0aH, 00H			; `string'
CONST	ENDS
;	COMDAT ??_C@_0O@EABMAKLM@Shoot?5At?5?$CFd?5?6?$AA@
CONST	SEGMENT
??_C@_0O@EABMAKLM@Shoot?5At?5?$CFd?5?6?$AA@ DB 'Shoot At %d ', 0aH, 00H ; `string'
CONST	ENDS
;	COMDAT ??_C@_0O@ONMLABMD@AN?5Kills?5?$CFd?5?6?$AA@
CONST	SEGMENT
??_C@_0O@ONMLABMD@AN?5Kills?5?$CFd?5?6?$AA@ DB 'AN Kills %d ', 0aH, 00H ; `string'
CONST	ENDS
;	COMDAT ??_C@_0O@BOOAMHGH@AS?5Kills?5?$CFd?5?6?$AA@
CONST	SEGMENT
??_C@_0O@BOOAMHGH@AS?5Kills?5?$CFd?5?6?$AA@ DB 'AS Kills %d ', 0aH, 00H ; `string'
CONST	ENDS
;	COMDAT ??_C@_0O@GKFOALCL@AG?5Kills?5?$CFd?5?6?$AA@
CONST	SEGMENT
??_C@_0O@GKFOALCL@AG?5Kills?5?$CFd?5?6?$AA@ DB 'AG Kills %d ', 0aH, 00H ; `string'
CONST	ENDS
;	COMDAT ??_C@_0O@MKLLNEPG@AA?5Kills?5?$CFd?5?6?$AA@
CONST	SEGMENT
??_C@_0O@MKLLNEPG@AA?5Kills?5?$CFd?5?6?$AA@ DB 'AA Kills %d ', 0aH, 00H ; `string'
CONST	ENDS
;	COMDAT ??_C@_0BF@GEHCBOF@Aircraft?5status?5?$CFs?5?6?$AA@
CONST	SEGMENT
??_C@_0BF@GEHCBOF@Aircraft?5status?5?$CFs?5?6?$AA@ DB 'Aircraft status %s'
	DB	' ', 0aH, 00H				; `string'
CONST	ENDS
;	COMDAT ??_C@_0BG@BNPCKKMF@?5?9?5DAMAGED?5Both?5sides?$AA@
CONST	SEGMENT
??_C@_0BG@BNPCKKMF@?5?9?5DAMAGED?5Both?5sides?$AA@ DB ' - DAMAGED Both si'
	DB	'des', 00H					; `string'
CONST	ENDS
;	COMDAT ??_C@_0BG@LDLHFPBO@?5?9?5DAMAGED?5Right?5side?$AA@
CONST	SEGMENT
??_C@_0BG@LDLHFPBO@?5?9?5DAMAGED?5Right?5side?$AA@ DB ' - DAMAGED Right s'
	DB	'ide', 00H					; `string'
CONST	ENDS
;	COMDAT ??_C@_0BG@GABCFBAO@?5?9?5DAMAGED?5Left?5side?5?$AA@
CONST	SEGMENT
??_C@_0BG@GABCFBAO@?5?9?5DAMAGED?5Left?5side?5?$AA@ DB ' - DAMAGED Left s'
	DB	'ide ', 00H					; `string'
CONST	ENDS
;	COMDAT ??_C@_0N@IDDEJMDM@?5?9?5DESTROYED?$AA@
CONST	SEGMENT
??_C@_0N@IDDEJMDM@?5?9?5DESTROYED?$AA@ DB ' - DESTROYED', 00H ; `string'
CONST	ENDS
;	COMDAT ??_C@_0L@FHMPLEDI@?5?9?5DAMAGED?$AA@
CONST	SEGMENT
??_C@_0L@FHMPLEDI@?5?9?5DAMAGED?$AA@ DB ' - DAMAGED', 00H ; `string'
CONST	ENDS
;	COMDAT ??_C@_0M@JCOFIOFE@?5?9?5REPAIRED?$AA@
CONST	SEGMENT
??_C@_0M@JCOFIOFE@?5?9?5REPAIRED?$AA@ DB ' - REPAIRED', 00H ; `string'
CONST	ENDS
;	COMDAT ??_C@_0BC@NECBLOHJ@Pilot?5status?5?$CFs?5?6?$AA@
CONST	SEGMENT
??_C@_0BC@NECBLOHJ@Pilot?5status?5?$CFs?5?6?$AA@ DB 'Pilot status %s ', 0aH
	DB	00H						; `string'
CONST	ENDS
;	COMDAT ??_C@_0L@KAFIAHBI@?5?9?5RESCUED?$AA@
CONST	SEGMENT
??_C@_0L@KAFIAHBI@?5?9?5RESCUED?$AA@ DB ' - RESCUED', 00H ; `string'
CONST	ENDS
;	COMDAT ??_C@_06CIIKGIBK@?5?9?5MIA?$AA@
CONST	SEGMENT
??_C@_06CIIKGIBK@?5?9?5MIA?$AA@ DB ' - MIA', 00H	; `string'
CONST	ENDS
;	COMDAT ??_C@_06NOBDHMG@?5?9?5KIA?$AA@
CONST	SEGMENT
??_C@_06NOBDHMG@?5?9?5KIA?$AA@ DB ' - KIA', 00H		; `string'
CONST	ENDS
;	COMDAT ??_C@_05LILJEDNC@?5?9?5OK?$AA@
CONST	SEGMENT
??_C@_05LILJEDNC@?5?9?5OK?$AA@ DB ' - OK', 00H		; `string'
CONST	ENDS
;	COMDAT ??_C@_0P@FFIOHKIF@Callsign?3?5?$CFs?5?6?$AA@
CONST	SEGMENT
??_C@_0P@FFIOHKIF@Callsign?3?5?$CFs?5?6?$AA@ DB 'Callsign: %s ', 0aH, 00H ; `string'
CONST	ENDS
;	COMDAT ??_C@_0BA@BMFMJKBJ@AI?5Player?3?5?$CFs?5?6?$AA@
CONST	SEGMENT
??_C@_0BA@BMFMJKBJ@AI?5Player?3?5?$CFs?5?6?$AA@ DB 'AI Player: %s ', 0aH, 00H ; `string'
CONST	ENDS
;	COMDAT ??_C@_0BD@CGHEKCME@Human?5Player?3?5?$CFs?5?6?$AA@
CONST	SEGMENT
??_C@_0BD@CGHEKCME@Human?5Player?3?5?$CFs?5?6?$AA@ DB 'Human Player: %s ', 0aH
	DB	00H						; `string'
CONST	ENDS
;	COMDAT ??_C@_0BB@OPDOHJIC@PILOT?5SLOT?5?$CFd?3?6?6?$AA@
CONST	SEGMENT
??_C@_0BB@OPDOHJIC@PILOT?5SLOT?5?$CFd?3?6?6?$AA@ DB 'PILOT SLOT %d:', 0aH
	DB	0aH, 00H					; `string'
CONST	ENDS
;	COMDAT ??_C@_0BA@MJCDAMBC@?6?9?9?9?9?9?9?9?9?9?9?9?9?9?6?$AA@
CONST	SEGMENT
??_C@_0BA@MJCDAMBC@?6?9?9?9?9?9?9?9?9?9?9?9?9?9?6?$AA@ DB 0aH, '---------'
	DB	'----', 0aH, 00H				; `string'
CONST	ENDS
;	COMDAT ??_C@_0L@LGCHIIGB@Event?5?$CFs?5?6?$AA@
CONST	SEGMENT
??_C@_0L@LGCHIIGB@Event?5?$CFs?5?6?$AA@ DB 'Event %s ', 0aH, 00H ; `string'
CONST	ENDS
;	COMDAT ??_C@_0BA@NIINDLH@?6FLIGHT?5EVENTS?6?$AA@
CONST	SEGMENT
??_C@_0BA@NIINDLH@?6FLIGHT?5EVENTS?6?$AA@ DB 0aH, 'FLIGHT EVENTS', 0aH, 00H ; `string'
CONST	ENDS
;	COMDAT ??_C@_0N@IDPGLABD@Contry?3?5?$CFs?5?6?$AA@
CONST	SEGMENT
??_C@_0N@IDPGLABD@Contry?3?5?$CFs?5?6?$AA@ DB 'Contry: %s ', 0aH, 00H ; `string'
CONST	ENDS
;	COMDAT ??_C@_0O@MMEDOBLI@Ac?5type?3?5?$CFs?5?6?$AA@
CONST	SEGMENT
??_C@_0O@MMEDOBLI@Ac?5type?3?5?$CFs?5?6?$AA@ DB 'Ac type: %s ', 0aH, 00H ; `string'
CONST	ENDS
;	COMDAT ??_C@_0BA@EOLDELII@?$CFd?5Ship?5Flight?6?$AA@
CONST	SEGMENT
??_C@_0BA@EOLDELII@?$CFd?5Ship?5Flight?6?$AA@ DB '%d Ship Flight', 0aH, 00H ; `string'
CONST	ENDS
;	COMDAT ??_C@_0BG@EEBFOKCB@Flight?5Unique?5Id?3?5?$CFd?6?$AA@
CONST	SEGMENT
??_C@_0BG@EEBFOKCB@Flight?5Unique?5Id?3?5?$CFd?6?$AA@ DB 'Flight Unique I'
	DB	'd: %d', 0aH, 00H				; `string'
CONST	ENDS
;	COMDAT ??_C@_0BE@BCFAANAH@?6Mission?5Type?3?5?$CFs?5?6?$AA@
CONST	SEGMENT
??_C@_0BE@BCFAANAH@?6Mission?5Type?3?5?$CFs?5?6?$AA@ DB 0aH, 'Mission Typ'
	DB	'e: %s ', 0aH, 00H				; `string'
CONST	ENDS
;	COMDAT ??_C@_0BC@CHCLLJFL@Mission?5name?3?5?$CFs?6?$AA@
CONST	SEGMENT
??_C@_0BC@CHCLLJFL@Mission?5name?3?5?$CFs?6?$AA@ DB 'Mission name: %s', 0aH
	DB	00H						; `string'
CONST	ENDS
;	COMDAT ??_C@_0BF@OIBLHPO@Game?5is?5?$CFs?5type?5?$CFs?$AN?6?$AA@
CONST	SEGMENT
??_C@_0BF@OIBLHPO@Game?5is?5?$CFs?5type?5?$CFs?$AN?6?$AA@ DB 'Game is %s '
	DB	'type %s', 0dH, 0aH, 00H			; `string'
CONST	ENDS
;	COMDAT ??_C@_05IEALKJIG@Local?$AA@
CONST	SEGMENT
??_C@_05IEALKJIG@Local?$AA@ DB 'Local', 00H		; `string'
CONST	ENDS
;	COMDAT ??_C@_09FCDNMMPE@Networked?$AA@
CONST	SEGMENT
??_C@_09FCDNMMPE@Networked?$AA@ DB 'Networked', 00H	; `string'
CONST	ENDS
;	COMDAT ??_C@_09EEKGDCPH@?$DMunknown?$DO?$AA@
CONST	SEGMENT
??_C@_09EEKGDCPH@?$DMunknown?$DO?$AA@ DB '<unknown>', 00H ; `string'
CONST	ENDS
;	COMDAT ??_C@_08FHHBCJKK@Campaign?$AA@
CONST	SEGMENT
??_C@_08FHHBCJKK@Campaign?$AA@ DB 'Campaign', 00H	; `string'
CONST	ENDS
;	COMDAT ??_C@_0BE@NJKPNHIC@Tactical?5Engagement?$AA@
CONST	SEGMENT
??_C@_0BE@NJKPNHIC@Tactical?5Engagement?$AA@ DB 'Tactical Engagement', 00H ; `string'
CONST	ENDS
;	COMDAT ??_C@_08DLBHGMLL@DogFight?$AA@
CONST	SEGMENT
??_C@_08DLBHGMLL@DogFight?$AA@ DB 'DogFight', 00H	; `string'
CONST	ENDS
;	COMDAT ??_C@_0P@GHEJFKFN@Instant?5Action?$AA@
CONST	SEGMENT
??_C@_0P@GHEJFKFN@Instant?5Action?$AA@ DB 'Instant Action', 00H ; `string'
CONST	ENDS
;	COMDAT ??_C@_0BM@IKDBNCFO@RECORD?5BEGIN?5TIMESTAMP?5?$CFs?4?6?$AA@
CONST	SEGMENT
??_C@_0BM@IKDBNCFO@RECORD?5BEGIN?5TIMESTAMP?5?$CFs?4?6?$AA@ DB 'RECORD BE'
	DB	'GIN TIMESTAMP %s.', 0aH, 00H		; `string'
CONST	ENDS
;	COMDAT ??_C@_0BI@HKCLIKLE@?$CFd?1?$CFd?1?$CFd?5?$CF02d?3?$CF02d?3?$CF02d?$AA@
CONST	SEGMENT
??_C@_0BI@HKCLIKLE@?$CFd?1?$CFd?1?$CFd?5?$CF02d?3?$CF02d?3?$CF02d?$AA@ DB '%'
	DB	'd/%d/%d %02d:%02d:%02d', 00H		; `string'
CONST	ENDS
;	COMDAT ??_C@_0DN@GBIKDBEL@?6?6?6?9?9?9?9?9?9?9?9?9?9?9?9?9?9?9?9?9?9?9?9?9?9?9?9?9?9?9?9?9@
CONST	SEGMENT
??_C@_0DN@GBIKDBEL@?6?6?6?9?9?9?9?9?9?9?9?9?9?9?9?9?9?9?9?9?9?9?9?9?9?9?9?9?9?9?9?9@ DB 0aH
	DB	0aH, 0aH, '---------------------------------------------------'
	DB	'-----', 0aH, 00H				; `string'
CONST	ENDS
;	COMDAT ??_C@_01MCMALHOG@a?$AA@
CONST	SEGMENT
??_C@_01MCMALHOG@a?$AA@ DB 'a', 00H			; `string'
CONST	ENDS
;	COMDAT ??_C@_0M@MGCAHMKC@debrief?4txt?$AA@
CONST	SEGMENT
??_C@_0M@MGCAHMKC@debrief?4txt?$AA@ DB 'debrief.txt', 00H ; `string'
CONST	ENDS
;	COMDAT ??_C@_06FHFOAHML@system?$AA@
CONST	SEGMENT
??_C@_06FHFOAHML@system?$AA@ DB 'system', 00H		; `string'
CONST	ENDS
;	COMDAT ??_7_System_error_category@std@@6B@
CONST	SEGMENT
??_7_System_error_category@std@@6B@ DD FLAT:??_R4_System_error_category@std@@6B@ ; std::_System_error_category::`vftable'
	DD	FLAT:??_E_System_error_category@std@@UAEPAXI@Z
	DD	FLAT:?name@_System_error_category@std@@UBEPBDXZ
	DD	FLAT:?message@_System_error_category@std@@UBE?AV?$basic_string@DU?$char_traits@D@std@@V?$allocator@D@2@@2@H@Z
	DD	FLAT:?default_error_condition@_System_error_category@std@@UBE?AVerror_condition@2@H@Z
	DD	FLAT:?equivalent@error_category@std@@UBE_NABVerror_code@2@H@Z
	DD	FLAT:?equivalent@error_category@std@@UBE_NHABVerror_condition@2@@Z
CONST	ENDS
;	COMDAT ??_C@_0BG@PADBLCHM@iostream?5stream?5error?$AA@
CONST	SEGMENT
??_C@_0BG@PADBLCHM@iostream?5stream?5error?$AA@ DB 'iostream stream error'
	DB	00H						; `string'
CONST	ENDS
;	COMDAT ??_C@_08LLGCOLLL@iostream?$AA@
CONST	SEGMENT
??_C@_08LLGCOLLL@iostream?$AA@ DB 'iostream', 00H	; `string'
CONST	ENDS
;	COMDAT ??_7_Iostream_error_category@std@@6B@
CONST	SEGMENT
??_7_Iostream_error_category@std@@6B@ DD FLAT:??_R4_Iostream_error_category@std@@6B@ ; std::_Iostream_error_category::`vftable'
	DD	FLAT:??_E_Iostream_error_category@std@@UAEPAXI@Z
	DD	FLAT:?name@_Iostream_error_category@std@@UBEPBDXZ
	DD	FLAT:?message@_Iostream_error_category@std@@UBE?AV?$basic_string@DU?$char_traits@D@std@@V?$allocator@D@2@@2@H@Z
	DD	FLAT:?default_error_condition@error_category@std@@UBE?AVerror_condition@2@H@Z
	DD	FLAT:?equivalent@error_category@std@@UBE_NABVerror_code@2@H@Z
	DD	FLAT:?equivalent@error_category@std@@UBE_NHABVerror_condition@2@@Z
CONST	ENDS
;	COMDAT ??_C@_0O@BFJCFAAK@unknown?5error?$AA@
CONST	SEGMENT
??_C@_0O@BFJCFAAK@unknown?5error?$AA@ DB 'unknown error', 00H ; `string'
CONST	ENDS
;	COMDAT ??_C@_07DCLBNMLN@generic?$AA@
CONST	SEGMENT
??_C@_07DCLBNMLN@generic?$AA@ DB 'generic', 00H		; `string'
CONST	ENDS
;	COMDAT ??_7_Generic_error_category@std@@6B@
CONST	SEGMENT
??_7_Generic_error_category@std@@6B@ DD FLAT:??_R4_Generic_error_category@std@@6B@ ; std::_Generic_error_category::`vftable'
	DD	FLAT:??_E_Generic_error_category@std@@UAEPAXI@Z
	DD	FLAT:?name@_Generic_error_category@std@@UBEPBDXZ
	DD	FLAT:?message@_Generic_error_category@std@@UBE?AV?$basic_string@DU?$char_traits@D@std@@V?$allocator@D@2@@2@H@Z
	DD	FLAT:?default_error_condition@error_category@std@@UBE?AVerror_condition@2@H@Z
	DD	FLAT:?equivalent@error_category@std@@UBE_NABVerror_code@2@H@Z
	DD	FLAT:?equivalent@error_category@std@@UBE_NHABVerror_condition@2@@Z
CONST	ENDS
;	COMDAT ??_7error_category@std@@6B@
CONST	SEGMENT
??_7error_category@std@@6B@ DD FLAT:??_R4error_category@std@@6B@ ; std::error_category::`vftable'
	DD	FLAT:??_Eerror_category@std@@UAEPAXI@Z
	DD	FLAT:__purecall
	DD	FLAT:__purecall
	DD	FLAT:?default_error_condition@error_category@std@@UBE?AVerror_condition@2@H@Z
	DD	FLAT:?equivalent@error_category@std@@UBE_NABVerror_code@2@H@Z
	DD	FLAT:?equivalent@error_category@std@@UBE_NHABVerror_condition@2@@Z
CONST	ENDS
;	COMDAT ??_C@_00CNPNBAHC@?$AA@
CONST	SEGMENT
??_C@_00CNPNBAHC@?$AA@ DB 00H				; `string'
CONST	ENDS
;	COMDAT xdata$x
xdata$x	SEGMENT
__unwindtable$??$construct@PADAAPAD@?$allocator@D@std@@QAEXPAPADAAPAD@Z DD 0ffffffffH
	DD	FLAT:__unwindfunclet$??$construct@PADAAPAD@?$allocator@D@std@@QAEXPAPADAAPAD@Z$0
__ehfuncinfo$??$construct@PADAAPAD@?$allocator@D@std@@QAEXPAPADAAPAD@Z DD 019930522H
	DD	01H
	DD	FLAT:__unwindtable$??$construct@PADAAPAD@?$allocator@D@std@@QAEXPAPADAAPAD@Z
	DD	2 DUP(00H)
	DD	2 DUP(00H)
	DD	00H
	DD	01H
xdata$x	ENDS
xdata$x	SEGMENT
__unwindtable$?RebuildEvaluationData@MissionEvaluationClass@@QAEXXZ DD 0ffffffffH
	DD	FLAT:__unwindfunclet$?RebuildEvaluationData@MissionEvaluationClass@@QAEXXZ$0
__unwindtable$?AddNewPilot@MissionEvaluationClass@@QAEPAVPilotDataClass@@PAVFlightDataClass@@HHPAVFlightClass@@@Z DD 0ffffffffH
	DD	FLAT:__unwindfunclet$?AddNewPilot@MissionEvaluationClass@@QAEPAVPilotDataClass@@PAVFlightDataClass@@HHPAVFlightClass@@@Z$0
__unwindtable$?RegisterLanding@MissionEvaluationClass@@QAEXPAVFalconLandingMessage@@H@Z DD 0ffffffffH
	DD	FLAT:__unwindfunclet$?RegisterLanding@MissionEvaluationClass@@QAEXPAVFalconLandingMessage@@H@Z$0
__unwindtable$?RegisterEjection@MissionEvaluationClass@@QAEXPAVFalconEjectMessage@@H@Z DD 0ffffffffH
	DD	FLAT:__unwindfunclet$?RegisterEjection@MissionEvaluationClass@@QAEXPAVFalconEjectMessage@@H@Z$0
__unwindtable$?RegisterHit@MissionEvaluationClass@@QAEXPAVFalconDamageMessage@@@Z DD 0ffffffffH
	DD	FLAT:__unwindfunclet$?RegisterHit@MissionEvaluationClass@@QAEXPAVFalconDamageMessage@@@Z$0
__unwindtable$?RegisterShot@MissionEvaluationClass@@QAEXPAVFalconWeaponsFire@@@Z DD 0ffffffffH
	DD	FLAT:__unwindfunclet$?RegisterShot@MissionEvaluationClass@@QAEXPAVFalconWeaponsFire@@@Z$0
__unwindtable$?RegisterShotAtPlayer@MissionEvaluationClass@@QAEXPAVFalconWeaponsFire@@GE@Z DD 0ffffffffH
	DD	FLAT:__unwindfunclet$?RegisterShotAtPlayer@MissionEvaluationClass@@QAEXPAVFalconWeaponsFire@@GE@Z$0
__unwindtable$?CollectThreats@MissionEvaluationClass@@QAEXFFHHPAH@Z DD 0ffffffffH
	DD	FLAT:__unwindfunclet$?CollectThreats@MissionEvaluationClass@@QAEXFFHHPAH@Z$0
__unwindtable$?FindPotentialTargets@MissionEvaluationClass@@QAEXXZ DD 0ffffffffH
	DD	FLAT:__unwindfunclet$?FindPotentialTargets@MissionEvaluationClass@@QAEXXZ$0
__unwindtable$?PreEvalFlight@MissionEvaluationClass@@QAEXPAVFlightClass@@0@Z DD 0ffffffffH
	DD	FLAT:__unwindfunclet$?PreEvalFlight@MissionEvaluationClass@@QAEXPAVFlightClass@@0@Z$0
__unwindtable$?PreMissionEval@MissionEvaluationClass@@QAEHPAVFlightClass@@E@Z DD 0ffffffffH
	DD	FLAT:__unwindfunclet$?PreMissionEval@MissionEvaluationClass@@QAEHPAVFlightClass@@E@Z$0
__unwindtable$?PreDogfightEval@MissionEvaluationClass@@QAEXXZ DD 0ffffffffH
	DD	FLAT:__unwindfunclet$?PreDogfightEval@MissionEvaluationClass@@QAEXXZ$0
__unwindtable$?RegisterPlayerJoin@MissionEvaluationClass@@QAEXPAVFalconPlayerStatusMessage@@@Z DD 0ffffffffH
	DD	FLAT:__unwindfunclet$?RegisterPlayerJoin@MissionEvaluationClass@@QAEXPAVFalconPlayerStatusMessage@@@Z$0
	DD	0ffffffffH
	DD	FLAT:__unwindfunclet$?RegisterPlayerJoin@MissionEvaluationClass@@QAEXPAVFalconPlayerStatusMessage@@@Z$1
__unwindtable$?RegisterKill@MissionEvaluationClass@@QAEXPAVFalconDeathMessage@@HH@Z DD 0ffffffffH
	DD	FLAT:__unwindfunclet$?RegisterKill@MissionEvaluationClass@@QAEXPAVFalconDeathMessage@@HH@Z$0
	DD	0ffffffffH
	DD	FLAT:__unwindfunclet$?RegisterKill@MissionEvaluationClass@@QAEXPAVFalconDeathMessage@@HH@Z$1
	DD	0ffffffffH
	DD	FLAT:__unwindfunclet$?RegisterKill@MissionEvaluationClass@@QAEXPAVFalconDeathMessage@@HH@Z$2
__ehfuncinfo$?RebuildEvaluationData@MissionEvaluationClass@@QAEXXZ DD 019930522H
	DD	01H
	DD	FLAT:__unwindtable$?RebuildEvaluationData@MissionEvaluationClass@@QAEXXZ
	DD	2 DUP(00H)
	DD	2 DUP(00H)
	DD	00H
	DD	01H
__ehfuncinfo$?AddNewPilot@MissionEvaluationClass@@QAEPAVPilotDataClass@@PAVFlightDataClass@@HHPAVFlightClass@@@Z DD 019930522H
	DD	01H
	DD	FLAT:__unwindtable$?AddNewPilot@MissionEvaluationClass@@QAEPAVPilotDataClass@@PAVFlightDataClass@@HHPAVFlightClass@@@Z
	DD	2 DUP(00H)
	DD	2 DUP(00H)
	DD	00H
	DD	01H
__ehfuncinfo$?RegisterLanding@MissionEvaluationClass@@QAEXPAVFalconLandingMessage@@H@Z DD 019930522H
	DD	01H
	DD	FLAT:__unwindtable$?RegisterLanding@MissionEvaluationClass@@QAEXPAVFalconLandingMessage@@H@Z
	DD	2 DUP(00H)
	DD	2 DUP(00H)
	DD	00H
	DD	01H
__ehfuncinfo$?RegisterEjection@MissionEvaluationClass@@QAEXPAVFalconEjectMessage@@H@Z DD 019930522H
	DD	01H
	DD	FLAT:__unwindtable$?RegisterEjection@MissionEvaluationClass@@QAEXPAVFalconEjectMessage@@H@Z
	DD	2 DUP(00H)
	DD	2 DUP(00H)
	DD	00H
	DD	01H
__ehfuncinfo$?RegisterPlayerJoin@MissionEvaluationClass@@QAEXPAVFalconPlayerStatusMessage@@@Z DD 019930522H
	DD	02H
	DD	FLAT:__unwindtable$?RegisterPlayerJoin@MissionEvaluationClass@@QAEXPAVFalconPlayerStatusMessage@@@Z
	DD	2 DUP(00H)
	DD	2 DUP(00H)
	DD	00H
	DD	01H
__ehfuncinfo$?RegisterKill@MissionEvaluationClass@@QAEXPAVFalconDeathMessage@@HH@Z DD 019930522H
	DD	03H
	DD	FLAT:__unwindtable$?RegisterKill@MissionEvaluationClass@@QAEXPAVFalconDeathMessage@@HH@Z
	DD	2 DUP(00H)
	DD	2 DUP(00H)
	DD	00H
	DD	01H
__ehfuncinfo$?RegisterHit@MissionEvaluationClass@@QAEXPAVFalconDamageMessage@@@Z DD 019930522H
	DD	01H
	DD	FLAT:__unwindtable$?RegisterHit@MissionEvaluationClass@@QAEXPAVFalconDamageMessage@@@Z
	DD	2 DUP(00H)
	DD	2 DUP(00H)
	DD	00H
	DD	01H
__ehfuncinfo$?RegisterShot@MissionEvaluationClass@@QAEXPAVFalconWeaponsFire@@@Z DD 019930522H
	DD	01H
	DD	FLAT:__unwindtable$?RegisterShot@MissionEvaluationClass@@QAEXPAVFalconWeaponsFire@@@Z
	DD	2 DUP(00H)
	DD	2 DUP(00H)
	DD	00H
	DD	01H
__ehfuncinfo$?RegisterShotAtPlayer@MissionEvaluationClass@@QAEXPAVFalconWeaponsFire@@GE@Z DD 019930522H
	DD	01H
	DD	FLAT:__unwindtable$?RegisterShotAtPlayer@MissionEvaluationClass@@QAEXPAVFalconWeaponsFire@@GE@Z
	DD	2 DUP(00H)
	DD	2 DUP(00H)
	DD	00H
	DD	01H
__ehfuncinfo$?CollectThreats@MissionEvaluationClass@@QAEXFFHHPAH@Z DD 019930522H
	DD	01H
	DD	FLAT:__unwindtable$?CollectThreats@MissionEvaluationClass@@QAEXFFHHPAH@Z
	DD	2 DUP(00H)
	DD	2 DUP(00H)
	DD	00H
	DD	01H
__ehfuncinfo$?FindPotentialTargets@MissionEvaluationClass@@QAEXXZ DD 019930522H
	DD	01H
	DD	FLAT:__unwindtable$?FindPotentialTargets@MissionEvaluationClass@@QAEXXZ
	DD	2 DUP(00H)
	DD	2 DUP(00H)
	DD	00H
	DD	01H
__ehfuncinfo$?PreEvalFlight@MissionEvaluationClass@@QAEXPAVFlightClass@@0@Z DD 019930522H
	DD	01H
	DD	FLAT:__unwindtable$?PreEvalFlight@MissionEvaluationClass@@QAEXPAVFlightClass@@0@Z
	DD	2 DUP(00H)
	DD	2 DUP(00H)
	DD	00H
	DD	01H
__ehfuncinfo$?PreMissionEval@MissionEvaluationClass@@QAEHPAVFlightClass@@E@Z DD 019930522H
	DD	01H
	DD	FLAT:__unwindtable$?PreMissionEval@MissionEvaluationClass@@QAEHPAVFlightClass@@E@Z
	DD	2 DUP(00H)
	DD	2 DUP(00H)
	DD	00H
	DD	01H
__ehfuncinfo$?PreDogfightEval@MissionEvaluationClass@@QAEXXZ DD 019930522H
	DD	01H
	DD	FLAT:__unwindtable$?PreDogfightEval@MissionEvaluationClass@@QAEXXZ
	DD	2 DUP(00H)
	DD	2 DUP(00H)
	DD	00H
	DD	01H
xdata$x	ENDS
;	COMDAT xdata$x
xdata$x	SEGMENT
__catchsym$?_Copy@?$basic_string@DU?$char_traits@D@std@@V?$allocator@D@2@@std@@QAEXII@Z$5 DD 040H
	DD	00H
	DD	00H
	DD	FLAT:__catch$?_Copy@?$basic_string@DU?$char_traits@D@std@@V?$allocator@D@2@@std@@QAEXII@Z$0
__catchsym$?_Copy@?$basic_string@DU?$char_traits@D@std@@V?$allocator@D@2@@std@@QAEXII@Z$4 DD 040H
	DD	00H
	DD	00H
	DD	FLAT:__catch$?_Copy@?$basic_string@DU?$char_traits@D@std@@V?$allocator@D@2@@std@@QAEXII@Z$1
__unwindtable$?_Copy@?$basic_string@DU?$char_traits@D@std@@V?$allocator@D@2@@std@@QAEXII@Z DD 0ffffffffH
	DD	00H
	DD	0ffffffffH
	DD	00H
	DD	01H
	DD	00H
	DD	01H
	DD	00H
__ehfuncinfo$?_Copy@?$basic_string@DU?$char_traits@D@std@@V?$allocator@D@2@@std@@QAEXII@Z DD 019930522H
	DD	04H
	DD	FLAT:__unwindtable$?_Copy@?$basic_string@DU?$char_traits@D@std@@V?$allocator@D@2@@std@@QAEXII@Z
	DD	02H
	DD	FLAT:__tryblocktable$?_Copy@?$basic_string@DU?$char_traits@D@std@@V?$allocator@D@2@@std@@QAEXII@Z
	DD	2 DUP(00H)
	DD	00H
	DD	01H
__tryblocktable$?_Copy@?$basic_string@DU?$char_traits@D@std@@V?$allocator@D@2@@std@@QAEXII@Z DD 02H
	DD	02H
	DD	03H
	DD	01H
	DD	FLAT:__catchsym$?_Copy@?$basic_string@DU?$char_traits@D@std@@V?$allocator@D@2@@std@@QAEXII@Z$4
	DD	00H
	DD	00H
	DD	03H
	DD	01H
	DD	FLAT:__catchsym$?_Copy@?$basic_string@DU?$char_traits@D@std@@V?$allocator@D@2@@std@@QAEXII@Z$5
xdata$x	ENDS
CRT$XCU	SEGMENT
_allocator_arg$initializer$ DD FLAT:??__Eallocator_arg@std@@YAXXZ
CRT$XCU	ENDS
;	COMDAT CRT$XCU
CRT$XCU	SEGMENT
?_Generic_object$initializer$@?$_Error_objects@H@std@@2P6AXXZA DD FLAT:??__E?_Generic_object@?$_Error_objects@H@std@@2V_Generic_error_category@2@A@@YAXXZ ; std::_Error_objects<int>::_Generic_object$initializer$
CRT$XCU	ENDS
;	COMDAT CRT$XCU
CRT$XCU	SEGMENT
?_Iostream_object$initializer$@?$_Error_objects@H@std@@2P6AXXZA DD FLAT:??__E?_Iostream_object@?$_Error_objects@H@std@@2V_Iostream_error_category@2@A@@YAXXZ ; std::_Error_objects<int>::_Iostream_object$initializer$
CRT$XCU	ENDS
;	COMDAT CRT$XCU
CRT$XCU	SEGMENT
?_System_object$initializer$@?$_Error_objects@H@std@@2P6AXXZA DD FLAT:??__E?_System_object@?$_Error_objects@H@std@@2V_System_error_category@2@A@@YAXXZ ; std::_Error_objects<int>::_System_object$initializer$
CRT$XCU	ENDS
;	COMDAT CRT$XCU
CRT$XCU	SEGMENT
?id$initializer$@?$num_put@DV?$back_insert_iterator@V?$basic_string@DU?$char_traits@D@std@@V?$allocator@D@2@@std@@@std@@@std@@2P6AXXZA DD FLAT:??__E?id@?$num_put@DV?$back_insert_iterator@V?$basic_string@DU?$char_traits@D@std@@V?$allocator@D@2@@std@@@std@@@std@@2V0locale@2@A@@YAXXZ ; std::num_put<char,std::back_insert_iterator<std::basic_string<char,std::char_traits<char>,std::allocator<char> > > >::id$initializer$
CRT$XCU	ENDS
;	COMDAT CRT$XCU
CRT$XCU	SEGMENT
?id$initializer$@?$num_put@_WV?$back_insert_iterator@V?$basic_string@_WU?$char_traits@_W@std@@V?$allocator@_W@2@@std@@@std@@@std@@2P6AXXZA DD FLAT:??__E?id@?$num_put@_WV?$back_insert_iterator@V?$basic_string@_WU?$char_traits@_W@std@@V?$allocator@_W@2@@std@@@std@@@std@@2V0locale@2@A@@YAXXZ ; std::num_put<wchar_t,std::back_insert_iterator<std::basic_string<wchar_t,std::char_traits<wchar_t>,std::allocator<wchar_t> > > >::id$initializer$
CRT$XCU	ENDS
;	COMDAT CRT$XCU
CRT$XCU	SEGMENT
?id$initializer$@?$numpunct@D@std@@2P6AXXZA DD FLAT:??__E?id@?$numpunct@D@std@@2V0locale@2@A@@YAXXZ ; std::numpunct<char>::id$initializer$
CRT$XCU	ENDS
;	COMDAT CRT$XCU
CRT$XCU	SEGMENT
?id$initializer$@?$numpunct@_W@std@@2P6AXXZA DD FLAT:??__E?id@?$numpunct@_W@std@@2V0locale@2@A@@YAXXZ ; std::numpunct<wchar_t>::id$initializer$
CRT$XCU	ENDS
; Function compile flags: /Odtp
; File c:\program files (x86)\microsoft visual studio 11.0\vc\include\xmemory0
;	COMDAT ??$destroy@PAD@?$allocator@D@std@@QAEXPAPAD@Z
_TEXT	SEGMENT
_this$ = -4						; size = 4
__Ptr$ = 8						; size = 4
??$destroy@PAD@?$allocator@D@std@@QAEXPAPAD@Z PROC	; std::allocator<char>::destroy<char *>, COMDAT
; _this$ = ecx

; 621  : 		void destroy(_Uty *_Ptr)

	push	ebp
	mov	ebp, esp
	push	ecx
	mov	DWORD PTR _this$[ebp], ecx

; 622  : 		{	// destroy object at _Ptr
; 623  : 		_Ptr->~_Uty();
; 624  : 		}

	mov	esp, ebp
	pop	ebp
	ret	4
??$destroy@PAD@?$allocator@D@std@@QAEXPAPAD@Z ENDP	; std::allocator<char>::destroy<char *>
_TEXT	ENDS
; Function compile flags: /Odtp
; File c:\program files (x86)\microsoft visual studio 11.0\vc\include\xmemory0
;	COMDAT ??$construct@PADAAPAD@?$allocator@D@std@@QAEXPAPADAAPAD@Z
_TEXT	SEGMENT
$T2 = -28						; size = 4
_this$ = -24						; size = 4
tv73 = -20						; size = 4
$T3 = -16						; size = 4
__$EHRec$ = -12						; size = 12
__Ptr$ = 8						; size = 4
__V0$ = 12						; size = 4
??$construct@PADAAPAD@?$allocator@D@std@@QAEXPAPADAAPAD@Z PROC ; std::allocator<char>::construct<char *,char * &>, COMDAT
; _this$ = ecx

; 617  : _VARIADIC_EXPAND_0X(_ALLOC_MEMBER_CONSTRUCT, , , , )

	push	ebp
	mov	ebp, esp
	push	-1
	push	__ehhandler$??$construct@PADAAPAD@?$allocator@D@std@@QAEXPAPADAAPAD@Z
	mov	eax, DWORD PTR fs:0
	push	eax
	sub	esp, 16					; 00000010H
	mov	eax, DWORD PTR ___security_cookie
	xor	eax, ebp
	push	eax
	lea	eax, DWORD PTR __$EHRec$[ebp]
	mov	DWORD PTR fs:0, eax
	mov	DWORD PTR _this$[ebp], ecx
	mov	eax, DWORD PTR __Ptr$[ebp]
	push	eax
	push	4
	call	??2@YAPAXIPAX@Z				; operator new
	add	esp, 8
	mov	DWORD PTR $T3[ebp], eax
	mov	DWORD PTR __$EHRec$[ebp+8], 0
	cmp	DWORD PTR $T3[ebp], 0
	je	SHORT $LN3@construct
	mov	ecx, DWORD PTR __V0$[ebp]
	push	ecx
	call	??$forward@AAPAD@std@@YAAAPADAAPAD@Z	; std::forward<char * &>
	add	esp, 4
	mov	edx, DWORD PTR $T3[ebp]
	mov	eax, DWORD PTR [eax]
	mov	DWORD PTR [edx], eax
	mov	ecx, DWORD PTR $T3[ebp]
	mov	DWORD PTR tv73[ebp], ecx
	jmp	SHORT $LN4@construct
$LN3@construct:
	mov	DWORD PTR tv73[ebp], 0
$LN4@construct:
	mov	edx, DWORD PTR tv73[ebp]
	mov	DWORD PTR $T2[ebp], edx
	mov	DWORD PTR __$EHRec$[ebp+8], -1
	mov	ecx, DWORD PTR __$EHRec$[ebp]
	mov	DWORD PTR fs:0, ecx
	pop	ecx
	mov	esp, ebp
	pop	ebp
	ret	8
_TEXT	ENDS
;	COMDAT text$x
text$x	SEGMENT
__unwindfunclet$??$construct@PADAAPAD@?$allocator@D@std@@QAEXPAPADAAPAD@Z$0:
	mov	eax, DWORD PTR __Ptr$[ebp]
	push	eax
	mov	eax, DWORD PTR $T3[ebp]
	push	eax
	call	??3@YAXPAX0@Z				; operator delete
	add	esp, 8
	ret	0
__ehhandler$??$construct@PADAAPAD@?$allocator@D@std@@QAEXPAPADAAPAD@Z:
	mov	edx, DWORD PTR [esp+8]
	lea	eax, DWORD PTR [edx+12]
	mov	ecx, DWORD PTR [edx-20]
	xor	ecx, eax
	call	@__security_check_cookie@4
	mov	eax, OFFSET __ehfuncinfo$??$construct@PADAAPAD@?$allocator@D@std@@QAEXPAPADAAPAD@Z
	jmp	___CxxFrameHandler3
text$x	ENDS
??$construct@PADAAPAD@?$allocator@D@std@@QAEXPAPADAAPAD@Z ENDP ; std::allocator<char>::construct<char *,char * &>
; Function compile flags: /Odtp
; File c:\program files (x86)\microsoft visual studio 11.0\vc\include\xlocnum
;	COMDAT ??__E?id@?$numpunct@_W@std@@2V0locale@2@A@@YAXXZ
text$yc	SEGMENT
??__E?id@?$numpunct@_W@std@@2V0locale@2@A@@YAXXZ PROC	; `dynamic initializer for 'std::numpunct<wchar_t>::id'', COMDAT

; 155  : 		void _Getvals(wchar_t, const lconv *_Ptr, _Locinfo::_Cvtvec)

	push	ebp
	mov	ebp, esp
	push	0
	mov	ecx, OFFSET ?id@?$numpunct@_W@std@@2V0locale@2@A ; std::numpunct<wchar_t>::id
	call	??0id@locale@std@@QAE@I@Z		; std::locale::id::id
	pop	ebp
	ret	0
??__E?id@?$numpunct@_W@std@@2V0locale@2@A@@YAXXZ ENDP	; `dynamic initializer for 'std::numpunct<wchar_t>::id''
text$yc	ENDS
; Function compile flags: /Odtp
; File c:\program files (x86)\microsoft visual studio 11.0\vc\include\xlocnum
;	COMDAT ??__E?id@?$numpunct@D@std@@2V0locale@2@A@@YAXXZ
text$yc	SEGMENT
??__E?id@?$numpunct@D@std@@2V0locale@2@A@@YAXXZ PROC	; `dynamic initializer for 'std::numpunct<char>::id'', COMDAT

; 155  : 		void _Getvals(wchar_t, const lconv *_Ptr, _Locinfo::_Cvtvec)

	push	ebp
	mov	ebp, esp
	push	0
	mov	ecx, OFFSET ?id@?$numpunct@D@std@@2V0locale@2@A ; std::numpunct<char>::id
	call	??0id@locale@std@@QAE@I@Z		; std::locale::id::id
	pop	ebp
	ret	0
??__E?id@?$numpunct@D@std@@2V0locale@2@A@@YAXXZ ENDP	; `dynamic initializer for 'std::numpunct<char>::id''
text$yc	ENDS
; Function compile flags: /Odtp
; File c:\program files (x86)\microsoft visual studio 11.0\vc\include\xlocnum
;	COMDAT ??__E?id@?$num_put@_WV?$back_insert_iterator@V?$basic_string@_WU?$char_traits@_W@std@@V?$allocator@_W@2@@std@@@std@@@std@@2V0locale@2@A@@YAXXZ
text$yc	SEGMENT
??__E?id@?$num_put@_WV?$back_insert_iterator@V?$basic_string@_WU?$char_traits@_W@std@@V?$allocator@_W@2@@std@@@std@@@std@@2V0locale@2@A@@YAXXZ PROC ; `dynamic initializer for 'std::num_put<wchar_t,std::back_insert_iterator<std::basic_string<wchar_t,std::char_traits<wchar_t>,std::allocator<wchar_t> > > >::id'', COMDAT

; 155  : 		void _Getvals(wchar_t, const lconv *_Ptr, _Locinfo::_Cvtvec)

	push	ebp
	mov	ebp, esp
	push	0
	mov	ecx, OFFSET ?id@?$num_put@_WV?$back_insert_iterator@V?$basic_string@_WU?$char_traits@_W@std@@V?$allocator@_W@2@@std@@@std@@@std@@2V0locale@2@A ; std::num_put<wchar_t,std::back_insert_iterator<std::basic_string<wchar_t,std::char_traits<wchar_t>,std::allocator<wchar_t> > > >::id
	call	??0id@locale@std@@QAE@I@Z		; std::locale::id::id
	pop	ebp
	ret	0
??__E?id@?$num_put@_WV?$back_insert_iterator@V?$basic_string@_WU?$char_traits@_W@std@@V?$allocator@_W@2@@std@@@std@@@std@@2V0locale@2@A@@YAXXZ ENDP ; `dynamic initializer for 'std::num_put<wchar_t,std::back_insert_iterator<std::basic_string<wchar_t,std::char_traits<wchar_t>,std::allocator<wchar_t> > > >::id''
text$yc	ENDS
; Function compile flags: /Odtp
; File c:\program files (x86)\microsoft visual studio 11.0\vc\include\xlocnum
;	COMDAT ??__E?id@?$num_put@DV?$back_insert_iterator@V?$basic_string@DU?$char_traits@D@std@@V?$allocator@D@2@@std@@@std@@@std@@2V0locale@2@A@@YAXXZ
text$yc	SEGMENT
??__E?id@?$num_put@DV?$back_insert_iterator@V?$basic_string@DU?$char_traits@D@std@@V?$allocator@D@2@@std@@@std@@@std@@2V0locale@2@A@@YAXXZ PROC ; `dynamic initializer for 'std::num_put<char,std::back_insert_iterator<std::basic_string<char,std::char_traits<char>,std::allocator<char> > > >::id'', COMDAT

; 155  : 		void _Getvals(wchar_t, const lconv *_Ptr, _Locinfo::_Cvtvec)

	push	ebp
	mov	ebp, esp
	push	0
	mov	ecx, OFFSET ?id@?$num_put@DV?$back_insert_iterator@V?$basic_string@DU?$char_traits@D@std@@V?$allocator@D@2@@std@@@std@@@std@@2V0locale@2@A ; std::num_put<char,std::back_insert_iterator<std::basic_string<char,std::char_traits<char>,std::allocator<char> > > >::id
	call	??0id@locale@std@@QAE@I@Z		; std::locale::id::id
	pop	ebp
	ret	0
??__E?id@?$num_put@DV?$back_insert_iterator@V?$basic_string@DU?$char_traits@D@std@@V?$allocator@D@2@@std@@@std@@@std@@2V0locale@2@A@@YAXXZ ENDP ; `dynamic initializer for 'std::num_put<char,std::back_insert_iterator<std::basic_string<char,std::char_traits<char>,std::allocator<char> > > >::id''
text$yc	ENDS
; Function compile flags: /Odtp
; File c:\program files (x86)\microsoft visual studio 11.0\vc\include\xmemory0
;	COMDAT ??$destroy@PAD@?$allocator_traits@V?$allocator@D@std@@@std@@SAXAAV?$allocator@D@1@PAPAD@Z
_TEXT	SEGMENT
__Al$ = 8						; size = 4
__Ptr$ = 12						; size = 4
??$destroy@PAD@?$allocator_traits@V?$allocator@D@std@@@std@@SAXAAV?$allocator@D@1@PAPAD@Z PROC ; std::allocator_traits<std::allocator<char> >::destroy<char *>, COMDAT

; 755  : 		static void destroy(_Alloc& _Al, _Uty *_Ptr)

	push	ebp
	mov	ebp, esp

; 756  : 		{	// destroy object at _Ptr
; 757  : 		_Al.destroy(_Ptr);

	mov	eax, DWORD PTR __Ptr$[ebp]
	push	eax
	mov	ecx, DWORD PTR __Al$[ebp]
	call	??$destroy@PAD@?$allocator@D@std@@QAEXPAPAD@Z ; std::allocator<char>::destroy<char *>

; 758  : 		}

	pop	ebp
	ret	0
??$destroy@PAD@?$allocator_traits@V?$allocator@D@std@@@std@@SAXAAV?$allocator@D@1@PAPAD@Z ENDP ; std::allocator_traits<std::allocator<char> >::destroy<char *>
_TEXT	ENDS
; Function compile flags: /Odtp
; File c:\program files (x86)\microsoft visual studio 11.0\vc\include\xmemory0
;	COMDAT ??$construct@PADAAPAD@?$allocator_traits@V?$allocator@D@std@@@std@@SAXAAV?$allocator@D@1@PAPADAAPAD@Z
_TEXT	SEGMENT
__Al$ = 8						; size = 4
__Ptr$ = 12						; size = 4
__V0$ = 16						; size = 4
??$construct@PADAAPAD@?$allocator_traits@V?$allocator@D@std@@@std@@SAXAAV?$allocator@D@1@PAPADAAPAD@Z PROC ; std::allocator_traits<std::allocator<char> >::construct<char *,char * &>, COMDAT

; 751  : _VARIADIC_EXPAND_0X(_ALLOC_TRAITS_SPECIAL_CONSTRUCT, , , , )

	push	ebp
	mov	ebp, esp
	mov	eax, DWORD PTR __V0$[ebp]
	push	eax
	call	??$forward@AAPAD@std@@YAAAPADAAPAD@Z	; std::forward<char * &>
	add	esp, 4
	push	eax
	mov	ecx, DWORD PTR __Ptr$[ebp]
	push	ecx
	mov	ecx, DWORD PTR __Al$[ebp]
	call	??$construct@PADAAPAD@?$allocator@D@std@@QAEXPAPADAAPAD@Z ; std::allocator<char>::construct<char *,char * &>
	pop	ebp
	ret	0
??$construct@PADAAPAD@?$allocator_traits@V?$allocator@D@std@@@std@@SAXAAV?$allocator@D@1@PAPADAAPAD@Z ENDP ; std::allocator_traits<std::allocator<char> >::construct<char *,char * &>
_TEXT	ENDS
; Function compile flags: /Odtp
; File c:\program files (x86)\microsoft visual studio 11.0\vc\include\type_traits
;	COMDAT ??$forward@AAPAD@std@@YAAAPADAAPAD@Z
_TEXT	SEGMENT
__Arg$ = 8						; size = 4
??$forward@AAPAD@std@@YAAAPADAAPAD@Z PROC		; std::forward<char * &>, COMDAT

; 1775 : 	{	// forward an lvalue

	push	ebp
	mov	ebp, esp

; 1776 : 	return (static_cast<_Ty&&>(_Arg));

	mov	eax, DWORD PTR __Arg$[ebp]

; 1777 : 	}

	pop	ebp
	ret	0
??$forward@AAPAD@std@@YAAAPADAAPAD@Z ENDP		; std::forward<char * &>
_TEXT	ENDS
; Function compile flags: /Odtp
;	COMDAT ??__F?_System_object@?$_Error_objects@H@std@@2V_System_error_category@2@A@@YAXXZ
text$yd	SEGMENT
??__F?_System_object@?$_Error_objects@H@std@@2V_System_error_category@2@A@@YAXXZ PROC ; `dynamic atexit destructor for 'std::_Error_objects<int>::_System_object'', COMDAT
	push	ebp
	mov	ebp, esp
	mov	ecx, OFFSET ?_System_object@?$_Error_objects@H@std@@2V_System_error_category@2@A ; std::_Error_objects<int>::_System_object
	call	??1_System_error_category@std@@UAE@XZ
	pop	ebp
	ret	0
??__F?_System_object@?$_Error_objects@H@std@@2V_System_error_category@2@A@@YAXXZ ENDP ; `dynamic atexit destructor for 'std::_Error_objects<int>::_System_object''
text$yd	ENDS
; Function compile flags: /Odtp
; File c:\program files (x86)\microsoft visual studio 11.0\vc\include\xmemory0
;	COMDAT ??__E?_System_object@?$_Error_objects@H@std@@2V_System_error_category@2@A@@YAXXZ
text$yc	SEGMENT
??__E?_System_object@?$_Error_objects@H@std@@2V_System_error_category@2@A@@YAXXZ PROC ; `dynamic initializer for 'std::_Error_objects<int>::_System_object'', COMDAT

; 627  : 		{	// estimate maximum array size

	push	ebp
	mov	ebp, esp
	mov	ecx, OFFSET ?_System_object@?$_Error_objects@H@std@@2V_System_error_category@2@A ; std::_Error_objects<int>::_System_object
	call	??0_System_error_category@std@@QAE@XZ	; std::_System_error_category::_System_error_category
	push	OFFSET ??__F?_System_object@?$_Error_objects@H@std@@2V_System_error_category@2@A@@YAXXZ ; `dynamic atexit destructor for 'std::_Error_objects<int>::_System_object''
	call	_atexit
	add	esp, 4
	pop	ebp
	ret	0
??__E?_System_object@?$_Error_objects@H@std@@2V_System_error_category@2@A@@YAXXZ ENDP ; `dynamic initializer for 'std::_Error_objects<int>::_System_object''
text$yc	ENDS
; Function compile flags: /Odtp
;	COMDAT ??__F?_Iostream_object@?$_Error_objects@H@std@@2V_Iostream_error_category@2@A@@YAXXZ
text$yd	SEGMENT
??__F?_Iostream_object@?$_Error_objects@H@std@@2V_Iostream_error_category@2@A@@YAXXZ PROC ; `dynamic atexit destructor for 'std::_Error_objects<int>::_Iostream_object'', COMDAT
	push	ebp
	mov	ebp, esp
	mov	ecx, OFFSET ?_Iostream_object@?$_Error_objects@H@std@@2V_Iostream_error_category@2@A ; std::_Error_objects<int>::_Iostream_object
	call	??1_Iostream_error_category@std@@UAE@XZ
	pop	ebp
	ret	0
??__F?_Iostream_object@?$_Error_objects@H@std@@2V_Iostream_error_category@2@A@@YAXXZ ENDP ; `dynamic atexit destructor for 'std::_Error_objects<int>::_Iostream_object''
text$yd	ENDS
; Function compile flags: /Odtp
; File c:\program files (x86)\microsoft visual studio 11.0\vc\include\xmemory0
;	COMDAT ??__E?_Iostream_object@?$_Error_objects@H@std@@2V_Iostream_error_category@2@A@@YAXXZ
text$yc	SEGMENT
??__E?_Iostream_object@?$_Error_objects@H@std@@2V_Iostream_error_category@2@A@@YAXXZ PROC ; `dynamic initializer for 'std::_Error_objects<int>::_Iostream_object'', COMDAT

; 627  : 		{	// estimate maximum array size

	push	ebp
	mov	ebp, esp
	mov	ecx, OFFSET ?_Iostream_object@?$_Error_objects@H@std@@2V_Iostream_error_category@2@A ; std::_Error_objects<int>::_Iostream_object
	call	??0_Iostream_error_category@std@@QAE@XZ	; std::_Iostream_error_category::_Iostream_error_category
	push	OFFSET ??__F?_Iostream_object@?$_Error_objects@H@std@@2V_Iostream_error_category@2@A@@YAXXZ ; `dynamic atexit destructor for 'std::_Error_objects<int>::_Iostream_object''
	call	_atexit
	add	esp, 4
	pop	ebp
	ret	0
??__E?_Iostream_object@?$_Error_objects@H@std@@2V_Iostream_error_category@2@A@@YAXXZ ENDP ; `dynamic initializer for 'std::_Error_objects<int>::_Iostream_object''
text$yc	ENDS
; Function compile flags: /Odtp
;	COMDAT ??__F?_Generic_object@?$_Error_objects@H@std@@2V_Generic_error_category@2@A@@YAXXZ
text$yd	SEGMENT
??__F?_Generic_object@?$_Error_objects@H@std@@2V_Generic_error_category@2@A@@YAXXZ PROC ; `dynamic atexit destructor for 'std::_Error_objects<int>::_Generic_object'', COMDAT
	push	ebp
	mov	ebp, esp
	mov	ecx, OFFSET ?_Generic_object@?$_Error_objects@H@std@@2V_Generic_error_category@2@A ; std::_Error_objects<int>::_Generic_object
	call	??1_Generic_error_category@std@@UAE@XZ
	pop	ebp
	ret	0
??__F?_Generic_object@?$_Error_objects@H@std@@2V_Generic_error_category@2@A@@YAXXZ ENDP ; `dynamic atexit destructor for 'std::_Error_objects<int>::_Generic_object''
text$yd	ENDS
; Function compile flags: /Odtp
; File c:\program files (x86)\microsoft visual studio 11.0\vc\include\xmemory0
;	COMDAT ??__E?_Generic_object@?$_Error_objects@H@std@@2V_Generic_error_category@2@A@@YAXXZ
text$yc	SEGMENT
??__E?_Generic_object@?$_Error_objects@H@std@@2V_Generic_error_category@2@A@@YAXXZ PROC ; `dynamic initializer for 'std::_Error_objects<int>::_Generic_object'', COMDAT

; 627  : 		{	// estimate maximum array size

	push	ebp
	mov	ebp, esp
	mov	ecx, OFFSET ?_Generic_object@?$_Error_objects@H@std@@2V_Generic_error_category@2@A ; std::_Error_objects<int>::_Generic_object
	call	??0_Generic_error_category@std@@QAE@XZ	; std::_Generic_error_category::_Generic_error_category
	push	OFFSET ??__F?_Generic_object@?$_Error_objects@H@std@@2V_Generic_error_category@2@A@@YAXXZ ; `dynamic atexit destructor for 'std::_Error_objects<int>::_Generic_object''
	call	_atexit
	add	esp, 4
	pop	ebp
	ret	0
??__E?_Generic_object@?$_Error_objects@H@std@@2V_Generic_error_category@2@A@@YAXXZ ENDP ; `dynamic initializer for 'std::_Error_objects<int>::_Generic_object''
text$yc	ENDS
; Function compile flags: /Odtp
; File c:\program files (x86)\microsoft visual studio 11.0\vc\include\xmemory0
;	COMDAT ??$_Allocate@D@std@@YAPADIPAD@Z
_TEXT	SEGMENT
__Ptr$ = -4						; size = 4
__Count$ = 8						; size = 4
___formal$ = 12						; size = 4
??$_Allocate@D@std@@YAPADIPAD@Z PROC			; std::_Allocate<char>, COMDAT

; 22   : 	{	// allocate storage for _Count elements of type _Ty

	push	ebp
	mov	ebp, esp
	push	ecx

; 23   : 	void *_Ptr = 0;

	mov	DWORD PTR __Ptr$[ebp], 0

; 24   : 
; 25   : 	if (_Count == 0)

	cmp	DWORD PTR __Count$[ebp], 0
	jne	SHORT $LN4@Allocate

; 26   : 		;
; 27   : 	else if (((size_t)(-1) / sizeof (_Ty) < _Count)

	jmp	SHORT $LN3@Allocate
$LN4@Allocate:

; 28   : 		|| (_Ptr = ::operator new(_Count * sizeof (_Ty))) == 0)

	cmp	DWORD PTR __Count$[ebp], -1
	ja	SHORT $LN1@Allocate
	mov	eax, DWORD PTR __Count$[ebp]
	push	eax
	call	??2@YAPAXI@Z				; operator new
	add	esp, 4
	mov	DWORD PTR __Ptr$[ebp], eax
	cmp	DWORD PTR __Ptr$[ebp], 0
	jne	SHORT $LN3@Allocate
$LN1@Allocate:

; 29   : 		_Xbad_alloc();	// report no memory

	call	?_Xbad_alloc@std@@YAXXZ			; std::_Xbad_alloc
$LN3@Allocate:

; 30   : 
; 31   : 	return ((_Ty *)_Ptr);

	mov	eax, DWORD PTR __Ptr$[ebp]
$LN6@Allocate:

; 32   : 	}

	mov	esp, ebp
	pop	ebp
	ret	0
??$_Allocate@D@std@@YAPADIPAD@Z ENDP			; std::_Allocate<char>
_TEXT	ENDS
; Function compile flags: /Odtp
; File c:\program files (x86)\microsoft visual studio 11.0\vc\include\xstddef
;	COMDAT ??$addressof@D@std@@YAPADAAD@Z
_TEXT	SEGMENT
__Val$ = 8						; size = 4
??$addressof@D@std@@YAPADAAD@Z PROC			; std::addressof<char>, COMDAT

; 85   : 	{	// return address of _Val

	push	ebp
	mov	ebp, esp

; 86   : 	return (reinterpret_cast<_Ty *>(
; 87   : 		(&const_cast<char&>(
; 88   : 		reinterpret_cast<const volatile char&>(_Val)))));

	mov	eax, DWORD PTR __Val$[ebp]

; 89   : 	}

	pop	ebp
	ret	0
??$addressof@D@std@@YAPADAAD@Z ENDP			; std::addressof<char>
_TEXT	ENDS
; Function compile flags: /Odtp
; File c:\program files (x86)\microsoft visual studio 11.0\vc\include\xmemory0
;	COMDAT ??$destroy@PAD@?$_Wrap_alloc@V?$allocator@D@std@@@std@@QAEXPAPAD@Z
_TEXT	SEGMENT
_this$ = -4						; size = 4
__Ptr$ = 8						; size = 4
??$destroy@PAD@?$_Wrap_alloc@V?$allocator@D@std@@@std@@QAEXPAPAD@Z PROC ; std::_Wrap_alloc<std::allocator<char> >::destroy<char *>, COMDAT
; _this$ = ecx

; 907  : 		void destroy(_Ty *_Ptr)

	push	ebp
	mov	ebp, esp
	push	ecx
	mov	DWORD PTR _this$[ebp], ecx

; 908  : 		{	// destroy object at _Ptr
; 909  : 		_Mytraits::destroy(*this, _Ptr);

	mov	eax, DWORD PTR __Ptr$[ebp]
	push	eax
	mov	ecx, DWORD PTR _this$[ebp]
	push	ecx
	call	??$destroy@PAD@?$allocator_traits@V?$allocator@D@std@@@std@@SAXAAV?$allocator@D@1@PAPAD@Z ; std::allocator_traits<std::allocator<char> >::destroy<char *>
	add	esp, 8

; 910  : 		}

	mov	esp, ebp
	pop	ebp
	ret	4
??$destroy@PAD@?$_Wrap_alloc@V?$allocator@D@std@@@std@@QAEXPAPAD@Z ENDP ; std::_Wrap_alloc<std::allocator<char> >::destroy<char *>
_TEXT	ENDS
; Function compile flags: /Odtp
; File c:\program files (x86)\microsoft visual studio 11.0\vc\include\xmemory0
;	COMDAT ??$construct@PADAAPAD@?$_Wrap_alloc@V?$allocator@D@std@@@std@@QAEXPAPADAAPAD@Z
_TEXT	SEGMENT
_this$ = -4						; size = 4
__Ptr$ = 8						; size = 4
__V0$ = 12						; size = 4
??$construct@PADAAPAD@?$_Wrap_alloc@V?$allocator@D@std@@@std@@QAEXPAPADAAPAD@Z PROC ; std::_Wrap_alloc<std::allocator<char> >::construct<char *,char * &>, COMDAT
; _this$ = ecx

; 903  : _VARIADIC_EXPAND_0X(_WRAP_ALLOC_CONSTRUCT, , , , )

	push	ebp
	mov	ebp, esp
	push	ecx
	mov	DWORD PTR _this$[ebp], ecx
	mov	eax, DWORD PTR __V0$[ebp]
	push	eax
	call	??$forward@AAPAD@std@@YAAAPADAAPAD@Z	; std::forward<char * &>
	add	esp, 4
	push	eax
	mov	ecx, DWORD PTR __Ptr$[ebp]
	push	ecx
	mov	edx, DWORD PTR _this$[ebp]
	push	edx
	call	??$construct@PADAAPAD@?$allocator_traits@V?$allocator@D@std@@@std@@SAXAAV?$allocator@D@1@PAPADAAPAD@Z ; std::allocator_traits<std::allocator<char> >::construct<char *,char * &>
	add	esp, 12					; 0000000cH
	mov	esp, ebp
	pop	ebp
	ret	8
??$construct@PADAAPAD@?$_Wrap_alloc@V?$allocator@D@std@@@std@@QAEXPAPADAAPAD@Z ENDP ; std::_Wrap_alloc<std::allocator<char> >::construct<char *,char * &>
_TEXT	ENDS
; Function compile flags: /Odtp
; File c:\users\zhitao li\documents\visual studio 2012\projects\freefalcon\campaign\campui\misseval.cpp
_TEXT	SEGMENT
?RecordPlayerFlightStart@@YAXXZ PROC			; RecordPlayerFlightStart

; 4484 : 	{

	push	ebp
	mov	ebp, esp

; 4485 : 	TheCampaign.MissionEvaluator->player_start_time = vuxGameTime;

	mov	eax, DWORD PTR ?TheCampaign@@3VCampaignClass@@A+324
	mov	ecx, DWORD PTR ?vuxGameTime@@3KA	; vuxGameTime
	mov	DWORD PTR [eax+176], ecx

; 4486 : 	}

	pop	ebp
	ret	0
?RecordPlayerFlightStart@@YAXXZ ENDP			; RecordPlayerFlightStart
_TEXT	ENDS
; Function compile flags: /Odtp
; File c:\users\zhitao li\documents\visual studio 2012\projects\freefalcon\campaign\campui\misseval.cpp
_TEXT	SEGMENT
tv64 = -4						; size = 4
_type$ = 8						; size = 4
_index$ = 12						; size = 4
?ScoreInstantAction@@YAHW4score_type@@H@Z PROC		; ScoreInstantAction

; 4362 : {

	push	ebp
	mov	ebp, esp
	push	ecx

; 4363 : 	switch (type)

	mov	eax, DWORD PTR _type$[ebp]
	mov	DWORD PTR tv64[ebp], eax
	cmp	DWORD PTR tv64[ebp], 15			; 0000000fH
	ja	SHORT $LN7@ScoreInsta
	mov	ecx, DWORD PTR tv64[ebp]
	movzx	edx, BYTE PTR $LN11@ScoreInsta[ecx]
	jmp	DWORD PTR $LN12@ScoreInsta[edx*4]
$LN6@ScoreInsta:

; 4364 : 	{
; 4365 : 		case SCORE_FIRE_WEAPON:
; 4366 : 		{
; 4367 : 			return AddWeaponToUsageList (index);

	mov	eax, DWORD PTR _index$[ebp]
	push	eax
	call	?AddWeaponToUsageList@@YAHH@Z		; AddWeaponToUsageList
	add	esp, 4
	jmp	SHORT $LN9@ScoreInsta
$LN5@ScoreInsta:

; 4368 : 		}
; 4369 : 
; 4370 : 		case SCORE_KILL_ENEMY:
; 4371 : 		{
; 4372 : 			return AddAircraftToKillsList(index);

	mov	ecx, DWORD PTR _index$[ebp]
	push	ecx
	call	?AddAircraftToKillsList@@YAHH@Z		; AddAircraftToKillsList
	add	esp, 4
	jmp	SHORT $LN9@ScoreInsta
$LN4@ScoreInsta:

; 4373 : 		}
; 4374 : 
; 4375 : 		case SCORE_KILL_FRIENDLY:
; 4376 : 		{
; 4377 : 			return AddAircraftToKillsList(index);

	mov	edx, DWORD PTR _index$[ebp]
	push	edx
	call	?AddAircraftToKillsList@@YAHH@Z		; AddAircraftToKillsList
	add	esp, 4
	jmp	SHORT $LN9@ScoreInsta
$LN3@ScoreInsta:

; 4378 : 		}
; 4379 : 
; 4380 : 		case SCORE_KILL_ENEMY_GROUND:
; 4381 : 		{
; 4382 : 			return AddObjectToKillsList(index);

	mov	eax, DWORD PTR _index$[ebp]
	push	eax
	call	?AddObjectToKillsList@@YAHH@Z		; AddObjectToKillsList
	add	esp, 4
	jmp	SHORT $LN9@ScoreInsta
$LN2@ScoreInsta:

; 4383 : 		}
; 4384 : 
; 4385 : 		case SCORE_KILL_FRIENDLY_GROUND:
; 4386 : 		{
; 4387 : 			return AddObjectToKillsList(index);

	mov	ecx, DWORD PTR _index$[ebp]
	push	ecx
	call	?AddObjectToKillsList@@YAHH@Z		; AddObjectToKillsList
	add	esp, 4
	jmp	SHORT $LN9@ScoreInsta
$LN1@ScoreInsta:

; 4388 : 		}
; 4389 : 
; 4390 : 		case SCORE_PILOT_EJECTED:
; 4391 : 		{
; 4392 : 			return score_player_ejected ();;

	call	?score_player_ejected@@YAHXZ		; score_player_ejected
	jmp	SHORT $LN9@ScoreInsta
$LN7@ScoreInsta:

; 4393 : 		}
; 4394 : 	}
; 4395 : 
; 4396 : 	return 1;

	mov	eax, 1
$LN9@ScoreInsta:

; 4397 : }

	mov	esp, ebp
	pop	ebp
	ret	0
	npad	1
$LN12@ScoreInsta:
	DD	$LN6@ScoreInsta
	DD	$LN1@ScoreInsta
	DD	$LN5@ScoreInsta
	DD	$LN4@ScoreInsta
	DD	$LN3@ScoreInsta
	DD	$LN2@ScoreInsta
	DD	$LN7@ScoreInsta
$LN11@ScoreInsta:
	DB	0
	DB	6
	DB	6
	DB	1
	DB	6
	DB	6
	DB	6
	DB	6
	DB	2
	DB	3
	DB	6
	DB	6
	DB	6
	DB	6
	DB	4
	DB	5
?ScoreInstantAction@@YAHW4score_type@@H@Z ENDP		; ScoreInstantAction
_TEXT	ENDS
; Function compile flags: /Odtp
; File c:\users\zhitao li\documents\visual studio 2012\projects\freefalcon\campaign\campui\misseval.cpp
_TEXT	SEGMENT
tv67 = -4						; size = 4
_type$ = 8						; size = 4
_index$ = 12						; size = 4
?ScoreDogfight@@YAHW4score_type@@H@Z PROC		; ScoreDogfight

; 4332 : {

	push	ebp
	mov	ebp, esp
	push	ecx

; 4333 : 	MonoPrint ("ScoreDogfight %d %d\n", type, index);

	mov	eax, DWORD PTR _index$[ebp]
	push	eax
	mov	ecx, DWORD PTR _type$[ebp]
	push	ecx
	push	OFFSET ??_C@_0BF@IFLHMPKP@ScoreDogfight?5?$CFd?5?$CFd?6?$AA@
	call	_MonoPrint
	add	esp, 12					; 0000000cH

; 4334 : 
; 4335 : 	switch (type)

	mov	edx, DWORD PTR _type$[ebp]
	mov	DWORD PTR tv67[ebp], edx
	mov	eax, DWORD PTR tv67[ebp]
	sub	eax, 8
	mov	DWORD PTR tv67[ebp], eax
	cmp	DWORD PTR tv67[ebp], 15			; 0000000fH
	ja	SHORT $LN3@ScoreDogfi
	mov	ecx, DWORD PTR tv67[ebp]
	movzx	edx, BYTE PTR $LN7@ScoreDogfi[ecx]
	jmp	DWORD PTR $LN8@ScoreDogfi[edx*4]
$LN2@ScoreDogfi:

; 4336 : 	{
; 4337 : 		case SCORE_KILL_ENEMY:
; 4338 : 		{
; 4339 : 			gRefreshScoresList=1;

	mov	DWORD PTR ?gRefreshScoresList@@3JA, 1	; gRefreshScoresList

; 4340 : 			return 1;

	mov	eax, 1
	jmp	SHORT $LN5@ScoreDogfi
$LN1@ScoreDogfi:

; 4341 : 		}
; 4342 : 		case SCORE_KILL_FRIENDLY:
; 4343 : 		case SCORE_GROUND_COLLISION:
; 4344 : 		case SCORE_FEATURE_COLLISION:
; 4345 : 		case SCORE_VEHICLE_COLLISION:
; 4346 : 		case SCORE_DEBREE_KILL:
; 4347 : 		case SCORE_BOMB_KILL:
; 4348 : //		case SCORE_PILOT_EJECTED:	// KCK: This will be scored when the ground collision comes through
; 4349 : 		{
; 4350 : 			gRefreshScoresList=1;

	mov	DWORD PTR ?gRefreshScoresList@@3JA, 1	; gRefreshScoresList

; 4351 : 			return -1;

	or	eax, -1
	jmp	SHORT $LN5@ScoreDogfi
$LN3@ScoreDogfi:

; 4352 : 		}
; 4353 : 	}
; 4354 : 	return 0;

	xor	eax, eax
$LN5@ScoreDogfi:

; 4355 : }

	mov	esp, ebp
	pop	ebp
	ret	0
	npad	3
$LN8@ScoreDogfi:
	DD	$LN2@ScoreDogfi
	DD	$LN1@ScoreDogfi
	DD	$LN3@ScoreDogfi
$LN7@ScoreDogfi:
	DB	0
	DB	1
	DB	2
	DB	2
	DB	2
	DB	2
	DB	2
	DB	2
	DB	2
	DB	2
	DB	1
	DB	2
	DB	1
	DB	1
	DB	1
	DB	1
?ScoreDogfight@@YAHW4score_type@@H@Z ENDP		; ScoreDogfight
_TEXT	ENDS
; Function compile flags: /Odtp
; File c:\users\zhitao li\documents\visual studio 2012\projects\freefalcon\campaign\campui\misseval.cpp
_TEXT	SEGMENT
tv64 = -4						; size = 4
_type$ = 8						; size = 4
_index$ = 12						; size = 4
?ScoreCampaign@@YAHW4score_type@@H@Z PROC		; ScoreCampaign

; 4218 : {

	push	ebp
	mov	ebp, esp
	push	ecx

; 4219 : 	switch (type)

	mov	eax, DWORD PTR _type$[ebp]
	mov	DWORD PTR tv64[ebp], eax
	cmp	DWORD PTR tv64[ebp], 25			; 00000019H
	ja	$LN23@ScoreCampa
	mov	ecx, DWORD PTR tv64[ebp]
	jmp	DWORD PTR $LN27@ScoreCampa[ecx*4]
$LN22@ScoreCampa:

; 4220 : 	{
; 4221 : 		case SCORE_FIRE_WEAPON:
; 4222 : 		{
; 4223 : 			return -1;

	or	eax, -1
	jmp	$LN25@ScoreCampa
$LN21@ScoreCampa:

; 4224 : 		}
; 4225 : 
; 4226 : 		case SCORE_GROUND_COLLISION:
; 4227 : 		case SCORE_FEATURE_COLLISION:
; 4228 : 		case SCORE_VEHICLE_COLLISION:
; 4229 : 		case SCORE_DEBREE_KILL:
; 4230 : 		case SCORE_BOMB_KILL:
; 4231 : 		{
; 4232 : 			return -25;

	mov	eax, -25				; ffffffe7H
	jmp	$LN25@ScoreCampa
$LN20@ScoreCampa:

; 4233 : 		}
; 4234 : 
; 4235 : 		case SCORE_GROUND_COLLISION_KILL:
; 4236 : 		case SCORE_VEHICLE_KILL:
; 4237 : 		{
; 4238 : 			return -15;

	mov	eax, -15				; fffffff1H
	jmp	$LN25@ScoreCampa
$LN19@ScoreCampa:

; 4239 : 		}
; 4240 : 
; 4241 : 		case SCORE_PILOT_EJECTED:
; 4242 : 		case SCORE_PILOT_EJECTED_KILL:
; 4243 : 		{
; 4244 : 			return 10;		// We ejected from a damaged airplane

	mov	eax, 10					; 0000000aH
	jmp	$LN25@ScoreCampa
$LN18@ScoreCampa:

; 4245 : 		}
; 4246 : 
; 4247 : 		case SCORE_PILOT_LOST:
; 4248 : 		case SCORE_PILOT_FOUND:
; 4249 : 		{
; 4250 : 			return 0;

	xor	eax, eax
	jmp	SHORT $LN25@ScoreCampa
$LN17@ScoreCampa:

; 4251 : 		}
; 4252 : 
; 4253 : 		case SCORE_PILOT_LANDED:
; 4254 : 		{
; 4255 : 			return 2;

	mov	eax, 2
	jmp	SHORT $LN25@ScoreCampa
$LN16@ScoreCampa:

; 4256 : 		}
; 4257 : 
; 4258 : 		case SCORE_HIT_ENEMY:
; 4259 : 		{
; 4260 : 			return 1;

	mov	eax, 1
	jmp	SHORT $LN25@ScoreCampa
$LN15@ScoreCampa:

; 4261 : 		}
; 4262 : 
; 4263 : 		case SCORE_HIT_FRIENDLY:
; 4264 : 		{
; 4265 : 			return -2;

	mov	eax, -2					; fffffffeH
	jmp	SHORT $LN25@ScoreCampa
$LN14@ScoreCampa:

; 4266 : 		}
; 4267 : 
; 4268 : 		case SCORE_KILL_ENEMY:
; 4269 : 		{
; 4270 : 			return 4;

	mov	eax, 4
	jmp	SHORT $LN25@ScoreCampa
$LN13@ScoreCampa:

; 4271 : 		}
; 4272 : 
; 4273 : 		case SCORE_KILL_FRIENDLY:
; 4274 : 		{
; 4275 : 			return -15;

	mov	eax, -15				; fffffff1H
	jmp	SHORT $LN25@ScoreCampa
$LN12@ScoreCampa:

; 4276 : 		}
; 4277 : 
; 4278 : 		case SCORE_KILL_ENEMY_FEATURE:
; 4279 : 		{
; 4280 : 			if (index > 49) //  || (value > 0 && o->Id() == package_element->target_id))

	cmp	DWORD PTR _index$[ebp], 49		; 00000031H
	jle	SHORT $LN11@ScoreCampa

; 4281 : 				return 4;		// High value or at our target

	mov	eax, 4
	jmp	SHORT $LN25@ScoreCampa
	jmp	SHORT $LN7@ScoreCampa
$LN11@ScoreCampa:

; 4282 : 			else if (index > 0)

	cmp	DWORD PTR _index$[ebp], 0
	jle	SHORT $LN9@ScoreCampa

; 4283 : 				return 2;		// Moderate value

	mov	eax, 2
	jmp	SHORT $LN25@ScoreCampa

; 4284 : 			else

	jmp	SHORT $LN7@ScoreCampa
$LN9@ScoreCampa:

; 4285 : 				return 0;

	xor	eax, eax
	jmp	SHORT $LN25@ScoreCampa
$LN7@ScoreCampa:

; 4286 : 		}
; 4287 : 
; 4288 : 		case SCORE_KILL_FRIENDLY_FEATURE:
; 4289 : 		{
; 4290 : 			return -10;

	mov	eax, -10				; fffffff6H
	jmp	SHORT $LN25@ScoreCampa
$LN6@ScoreCampa:

; 4291 : 		}
; 4292 : 
; 4293 : 		case SCORE_KILL_ENEMY_NAVAL:
; 4294 : 		{
; 4295 : 			return 3 + index;

	mov	eax, DWORD PTR _index$[ebp]
	add	eax, 3
	jmp	SHORT $LN25@ScoreCampa
$LN5@ScoreCampa:

; 4296 : 		}
; 4297 : 
; 4298 : 		case SCORE_KILL_FRIENDLY_NAVAL:
; 4299 : 		{
; 4300 : 			return (-10 - index);

	mov	eax, -10				; fffffff6H
	sub	eax, DWORD PTR _index$[ebp]
	jmp	SHORT $LN25@ScoreCampa
$LN4@ScoreCampa:

; 4301 : 		}
; 4302 : 
; 4303 : 		case SCORE_KILL_ENEMY_GROUND:
; 4304 : 		{
; 4305 : 			return 2;

	mov	eax, 2
	jmp	SHORT $LN25@ScoreCampa
$LN3@ScoreCampa:

; 4306 : 		}
; 4307 : 
; 4308 : 		case SCORE_KILL_FRIENDLY_GROUND:
; 4309 : 		{
; 4310 : 			return -8;

	mov	eax, -8					; fffffff8H
	jmp	SHORT $LN25@ScoreCampa
$LN2@ScoreCampa:

; 4311 : 		}
; 4312 : 
; 4313 : 		case SCORE_DIRECT_KILL_GROUND:
; 4314 : 		{
; 4315 : 			return 2;

	mov	eax, 2
	jmp	SHORT $LN25@ScoreCampa
$LN1@ScoreCampa:

; 4316 : 		}
; 4317 : 
; 4318 : 		case SCORE_HIT_OUR_TARGET:
; 4319 : 		{
; 4320 : 			return 2;

	mov	eax, 2
	jmp	SHORT $LN25@ScoreCampa
$LN23@ScoreCampa:

; 4321 : 		}
; 4322 : 	}
; 4323 : 
; 4324 : 	return 0;

	xor	eax, eax
$LN25@ScoreCampa:

; 4325 : }

	mov	esp, ebp
	pop	ebp
	ret	0
$LN27@ScoreCampa:
	DD	$LN22@ScoreCampa
	DD	$LN18@ScoreCampa
	DD	$LN18@ScoreCampa
	DD	$LN19@ScoreCampa
	DD	$LN19@ScoreCampa
	DD	$LN17@ScoreCampa
	DD	$LN16@ScoreCampa
	DD	$LN15@ScoreCampa
	DD	$LN14@ScoreCampa
	DD	$LN13@ScoreCampa
	DD	$LN12@ScoreCampa
	DD	$LN7@ScoreCampa
	DD	$LN6@ScoreCampa
	DD	$LN5@ScoreCampa
	DD	$LN4@ScoreCampa
	DD	$LN3@ScoreCampa
	DD	$LN2@ScoreCampa
	DD	$LN1@ScoreCampa
	DD	$LN21@ScoreCampa
	DD	$LN20@ScoreCampa
	DD	$LN21@ScoreCampa
	DD	$LN21@ScoreCampa
	DD	$LN21@ScoreCampa
	DD	$LN21@ScoreCampa
	DD	$LN23@ScoreCampa
	DD	$LN20@ScoreCampa
?ScoreCampaign@@YAHW4score_type@@H@Z ENDP		; ScoreCampaign
_TEXT	ENDS
; Function compile flags: /Odtp
; File c:\users\zhitao li\documents\visual studio 2012\projects\freefalcon\campaign\campui\misseval.cpp
_TEXT	SEGMENT
$T1 = -28						; size = 8
tv90 = -20						; size = 4
_pflight$ = -16						; size = 4
_pilot_data$ = -12					; size = 4
_flight_ptr$ = -8					; size = 4
_pslot$ = -2						; size = 1
_acnum$ = -1						; size = 1
_session$ = 8						; size = 4
?CheckForNewPlayer@@YAXPAVFalconSessionEntity@@@Z PROC	; CheckForNewPlayer

; 4111 : 	{

	push	ebp
	mov	ebp, esp
	sub	esp, 28					; 0000001cH

; 4112 : 	Flight				pflight = session->GetPlayerFlight();

	mov	ecx, DWORD PTR _session$[ebp]
	call	?GetPlayerFlight@FalconSessionEntity@@QBEPAVFlightClass@@XZ ; FalconSessionEntity::GetPlayerFlight
	mov	DWORD PTR _pflight$[ebp], eax

; 4113 : 	uchar				pslot = session->GetPilotSlot();

	mov	ecx, DWORD PTR _session$[ebp]
	call	?GetPilotSlot@FalconSessionEntity@@QBEEXZ ; FalconSessionEntity::GetPilotSlot
	mov	BYTE PTR _pslot$[ebp], al

; 4114 : 	uchar				acnum = session->GetAircraftNum();

	mov	ecx, DWORD PTR _session$[ebp]
	call	?GetAircraftNum@FalconSessionEntity@@QBEEXZ ; FalconSessionEntity::GetAircraftNum
	mov	BYTE PTR _acnum$[ebp], al

; 4115 : 	PilotDataClass		*pilot_data;
; 4116 : 	FlightDataClass		*flight_ptr;
; 4117 : 
; 4118 : 	if (!pflight || pslot == 255 || acnum > PILOTS_PER_FLIGHT)

	cmp	DWORD PTR _pflight$[ebp], 0
	je	SHORT $LN8@CheckForNe
	movzx	eax, BYTE PTR _pslot$[ebp]
	cmp	eax, 255				; 000000ffH
	je	SHORT $LN8@CheckForNe
	movzx	ecx, BYTE PTR _acnum$[ebp]
	cmp	ecx, 4
	jle	SHORT $LN9@CheckForNe
$LN8@CheckForNe:

; 4119 : 		return;

	jmp	$LN10@CheckForNe
$LN9@CheckForNe:

; 4120 : 
; 4121 : 	if ((session) && (session->GetGame () != FalconLocalGame))

	cmp	DWORD PTR _session$[ebp], 0
	je	SHORT $LN7@CheckForNe
	mov	ecx, OFFSET ?vuLocalSessionEntity@@3V?$VuBin@VVuSessionEntity@@@@A ; vuLocalSessionEntity
	call	??B?$VuBin@VVuSessionEntity@@@@QBE_NXZ	; VuBin<VuSessionEntity>::operator bool
	movzx	edx, al
	test	edx, edx
	je	SHORT $LN12@CheckForNe
	mov	ecx, OFFSET ?vuLocalSessionEntity@@3V?$VuBin@VVuSessionEntity@@@@A ; vuLocalSessionEntity
	call	?get@?$VuBin@VVuSessionEntity@@@@QBEPAVVuSessionEntity@@XZ ; VuBin<VuSessionEntity>::get
	mov	ecx, eax
	call	?GetGame@FalconSessionEntity@@QAEPAVFalconGameEntity@@XZ ; FalconSessionEntity::GetGame
	mov	DWORD PTR tv90[ebp], eax
	jmp	SHORT $LN13@CheckForNe
$LN12@CheckForNe:
	mov	DWORD PTR tv90[ebp], 0
$LN13@CheckForNe:
	mov	ecx, DWORD PTR _session$[ebp]
	call	?GetGame@FalconSessionEntity@@QAEPAVFalconGameEntity@@XZ ; FalconSessionEntity::GetGame
	cmp	eax, DWORD PTR tv90[ebp]
	je	SHORT $LN7@CheckForNe

; 4122 : 	{
; 4123 : 		MonoPrint ("Session is not in this game\n");

	push	OFFSET ??_C@_0BN@CKAKIEH@Session?5is?5not?5in?5this?5game?6?$AA@
	call	_MonoPrint
	add	esp, 4

; 4124 : 		return;

	jmp	$LN10@CheckForNe
$LN7@CheckForNe:

; 4125 : 	}
; 4126 : 
; 4127 : 	CampEnterCriticalSection();

	call	?CampEnterCriticalSection@@YAXXZ	; CampEnterCriticalSection

; 4128 : 
; 4129 : 	// FRB - CTD's here
; 4130 : 	flight_ptr = TheCampaign.MissionEvaluator->flight_data;

	mov	eax, DWORD PTR ?TheCampaign@@3VCampaignClass@@A+324
	mov	ecx, DWORD PTR [eax+204]
	mov	DWORD PTR _flight_ptr$[ebp], ecx
$LN6@CheckForNe:

; 4131 : 	while (flight_ptr)

	cmp	DWORD PTR _flight_ptr$[ebp], 0
	je	$LN5@CheckForNe

; 4132 : 		{
; 4133 : 		if (flight_ptr->flight_id == pflight->Id())

	lea	edx, DWORD PTR $T1[ebp]
	push	edx
	mov	ecx, DWORD PTR _pflight$[ebp]
	call	?Id@VuEntity@@QBE?AVVU_ID@@XZ		; VuEntity::Id
	push	eax
	mov	ecx, DWORD PTR _flight_ptr$[ebp]
	add	ecx, 40					; 00000028H
	call	??8VU_ID@@QBE_NABV0@@Z			; VU_ID::operator==
	movzx	eax, al
	test	eax, eax
	je	SHORT $LN4@CheckForNe

; 4134 : 			{
; 4135 : 			pilot_data = flight_ptr->pilot_list;

	mov	ecx, DWORD PTR _flight_ptr$[ebp]
	mov	edx, DWORD PTR [ecx+152]
	mov	DWORD PTR _pilot_data$[ebp], edx
$LN3@CheckForNe:

; 4136 : 			while (pilot_data)

	cmp	DWORD PTR _pilot_data$[ebp], 0
	je	SHORT $LN2@CheckForNe

; 4137 : 				{
; 4138 : 				if (pilot_data->pilot_slot == pslot)

	mov	eax, DWORD PTR _pilot_data$[ebp]
	movzx	ecx, BYTE PTR [eax+61]
	movzx	edx, BYTE PTR _pslot$[ebp]
	cmp	ecx, edx
	jne	SHORT $LN1@CheckForNe

; 4139 : 					{
; 4140 : 					pilot_data->aircraft_slot = acnum;

	mov	eax, DWORD PTR _pilot_data$[ebp]
	mov	cl, BYTE PTR _acnum$[ebp]
	mov	BYTE PTR [eax+60], cl

; 4141 : 					CampLeaveCriticalSection();

	call	?CampLeaveCriticalSection@@YAXXZ	; CampLeaveCriticalSection

; 4142 : 					return;

	jmp	SHORT $LN10@CheckForNe
$LN1@CheckForNe:

; 4143 : 					}
; 4144 : 				pilot_data = pilot_data->next_pilot;

	mov	edx, DWORD PTR _pilot_data$[ebp]
	mov	eax, DWORD PTR [edx+444]
	mov	DWORD PTR _pilot_data$[ebp], eax

; 4145 : 				}

	jmp	SHORT $LN3@CheckForNe
$LN2@CheckForNe:

; 4146 : 			TheCampaign.MissionEvaluator->AddNewPlayerPilot (flight_ptr, acnum, pflight, session);

	mov	ecx, DWORD PTR _session$[ebp]
	push	ecx
	mov	edx, DWORD PTR _pflight$[ebp]
	push	edx
	movzx	eax, BYTE PTR _acnum$[ebp]
	push	eax
	mov	ecx, DWORD PTR _flight_ptr$[ebp]
	push	ecx
	mov	ecx, DWORD PTR ?TheCampaign@@3VCampaignClass@@A+324
	call	?AddNewPlayerPilot@MissionEvaluationClass@@QAEPAVPilotDataClass@@PAVFlightDataClass@@HPAVFlightClass@@PAVFalconSessionEntity@@@Z ; MissionEvaluationClass::AddNewPlayerPilot

; 4147 : 			CampLeaveCriticalSection();

	call	?CampLeaveCriticalSection@@YAXXZ	; CampLeaveCriticalSection

; 4148 : 			return;

	jmp	SHORT $LN10@CheckForNe
$LN4@CheckForNe:

; 4149 : 			}		
; 4150 : 		flight_ptr = flight_ptr->next_flight;

	mov	edx, DWORD PTR _flight_ptr$[ebp]
	mov	eax, DWORD PTR [edx+164]
	mov	DWORD PTR _flight_ptr$[ebp], eax

; 4151 : 		}

	jmp	$LN6@CheckForNe
$LN5@CheckForNe:

; 4152 : //	KCK: I don't think this line is correct.
; 4153 : //	TheCampaign.MissionEvaluator->PreEvalFlight(pflight,NULL);
; 4154 : 	CampLeaveCriticalSection();

	call	?CampLeaveCriticalSection@@YAXXZ	; CampLeaveCriticalSection
$LN10@CheckForNe:

; 4155 : 	}

	mov	esp, ebp
	pop	ebp
	ret	0
?CheckForNewPlayer@@YAXPAVFalconSessionEntity@@@Z ENDP	; CheckForNewPlayer
_TEXT	ENDS
; Function compile flags: /Odtp
; File c:\users\zhitao li\documents\visual studio 2012\projects\freefalcon\campaign\campui\misseval.cpp
_TEXT	SEGMENT
tv170 = -28						; size = 4
tv151 = -24						; size = 4
tv137 = -20						; size = 4
tv89 = -16						; size = 4
_flight_ptr$ = -12					; size = 4
_pilot_ptr$ = -8					; size = 4
_session$ = -4						; size = 4
_flight_data$ = 8					; size = 4
_pilot_data$ = 12					; size = 4
?UpdateEvaluators@@YAXPAVFlightDataClass@@PAVPilotDataClass@@@Z PROC ; UpdateEvaluators

; 4433 : 	{

	push	ebp
	mov	ebp, esp
	sub	esp, 28					; 0000001cH

; 4434 : 	// First, check if this is the session who is tracking this record
; 4435 : 	FalconSessionEntity		*session = NULL;

	mov	DWORD PTR _session$[ebp], 0

; 4436 : 	FlightDataClass			*flight_ptr;
; 4437 : 	PilotDataClass			*pilot_ptr;
; 4438 : 
; 4439 : 	CampEnterCriticalSection();

	call	?CampEnterCriticalSection@@YAXXZ	; CampEnterCriticalSection

; 4440 : 
; 4441 : 	// Check if this record is the local player
; 4442 : 	if (pilot_data->pilot_slot != NO_PILOT)

	mov	eax, DWORD PTR _pilot_data$[ebp]
	movzx	ecx, BYTE PTR [eax+61]
	cmp	ecx, 255				; 000000ffH
	je	SHORT $LN12@UpdateEval

; 4443 : 		session = FindPlayer(flight_data->flight_id, pilot_data->aircraft_slot, pilot_data->pilot_slot);

	mov	edx, DWORD PTR _pilot_data$[ebp]
	movzx	eax, BYTE PTR [edx+61]
	push	eax
	mov	ecx, DWORD PTR _pilot_data$[ebp]
	movzx	edx, BYTE PTR [ecx+60]
	push	edx
	mov	eax, DWORD PTR _flight_data$[ebp]
	mov	ecx, DWORD PTR [eax+44]
	push	ecx
	mov	edx, DWORD PTR [eax+40]
	push	edx
	call	?FindPlayer@@YAPAVFalconSessionEntity@@VVU_ID@@EE@Z ; FindPlayer
	add	esp, 16					; 00000010H
	mov	DWORD PTR _session$[ebp], eax
$LN12@UpdateEval:

; 4444 : 
; 4445 : 	if ((session) && (session->GetGame () != FalconLocalGame))

	cmp	DWORD PTR _session$[ebp], 0
	je	SHORT $LN11@UpdateEval
	mov	ecx, OFFSET ?vuLocalSessionEntity@@3V?$VuBin@VVuSessionEntity@@@@A ; vuLocalSessionEntity
	call	??B?$VuBin@VVuSessionEntity@@@@QBE_NXZ	; VuBin<VuSessionEntity>::operator bool
	movzx	eax, al
	test	eax, eax
	je	SHORT $LN15@UpdateEval
	mov	ecx, OFFSET ?vuLocalSessionEntity@@3V?$VuBin@VVuSessionEntity@@@@A ; vuLocalSessionEntity
	call	?get@?$VuBin@VVuSessionEntity@@@@QBEPAVVuSessionEntity@@XZ ; VuBin<VuSessionEntity>::get
	mov	ecx, eax
	call	?GetGame@FalconSessionEntity@@QAEPAVFalconGameEntity@@XZ ; FalconSessionEntity::GetGame
	mov	DWORD PTR tv89[ebp], eax
	jmp	SHORT $LN16@UpdateEval
$LN15@UpdateEval:
	mov	DWORD PTR tv89[ebp], 0
$LN16@UpdateEval:
	mov	ecx, DWORD PTR _session$[ebp]
	call	?GetGame@FalconSessionEntity@@QAEPAVFalconGameEntity@@XZ ; FalconSessionEntity::GetGame
	cmp	eax, DWORD PTR tv89[ebp]
	je	SHORT $LN11@UpdateEval

; 4446 : 	{
; 4447 : 		MonoPrint ("Session not in this local game\n");

	push	OFFSET ??_C@_0CA@DFDAEAKG@Session?5not?5in?5this?5local?5game?6?$AA@
	call	_MonoPrint
	add	esp, 4

; 4448 : 		CampLeaveCriticalSection();

	call	?CampLeaveCriticalSection@@YAXXZ	; CampLeaveCriticalSection

; 4449 : 		return;

	jmp	$LN13@UpdateEval
$LN11@UpdateEval:

; 4450 : 	}
; 4451 : 
; 4452 : 	if (!session && FalconLocalGame && FalconLocalGame->GetGameType() == game_Dogfight)

	cmp	DWORD PTR _session$[ebp], 0
	jne	$LN10@UpdateEval
	mov	ecx, OFFSET ?vuLocalSessionEntity@@3V?$VuBin@VVuSessionEntity@@@@A ; vuLocalSessionEntity
	call	??B?$VuBin@VVuSessionEntity@@@@QBE_NXZ	; VuBin<VuSessionEntity>::operator bool
	movzx	ecx, al
	test	ecx, ecx
	je	SHORT $LN17@UpdateEval
	mov	ecx, OFFSET ?vuLocalSessionEntity@@3V?$VuBin@VVuSessionEntity@@@@A ; vuLocalSessionEntity
	call	?get@?$VuBin@VVuSessionEntity@@@@QBEPAVVuSessionEntity@@XZ ; VuBin<VuSessionEntity>::get
	mov	ecx, eax
	call	?GetGame@FalconSessionEntity@@QAEPAVFalconGameEntity@@XZ ; FalconSessionEntity::GetGame
	mov	DWORD PTR tv137[ebp], eax
	jmp	SHORT $LN18@UpdateEval
$LN17@UpdateEval:
	mov	DWORD PTR tv137[ebp], 0
$LN18@UpdateEval:
	cmp	DWORD PTR tv137[ebp], 0
	je	$LN10@UpdateEval
	mov	ecx, OFFSET ?vuLocalSessionEntity@@3V?$VuBin@VVuSessionEntity@@@@A ; vuLocalSessionEntity
	call	??B?$VuBin@VVuSessionEntity@@@@QBE_NXZ	; VuBin<VuSessionEntity>::operator bool
	movzx	edx, al
	test	edx, edx
	je	SHORT $LN19@UpdateEval
	mov	ecx, OFFSET ?vuLocalSessionEntity@@3V?$VuBin@VVuSessionEntity@@@@A ; vuLocalSessionEntity
	call	?get@?$VuBin@VVuSessionEntity@@@@QBEPAVVuSessionEntity@@XZ ; VuBin<VuSessionEntity>::get
	mov	ecx, eax
	call	?GetGame@FalconSessionEntity@@QAEPAVFalconGameEntity@@XZ ; FalconSessionEntity::GetGame
	mov	DWORD PTR tv151[ebp], eax
	jmp	SHORT $LN20@UpdateEval
$LN19@UpdateEval:
	mov	DWORD PTR tv151[ebp], 0
$LN20@UpdateEval:
	mov	ecx, DWORD PTR tv151[ebp]
	call	?GetGameType@FalconGameEntity@@QAE?AW4FalconGameType@@XZ ; FalconGameEntity::GetGameType
	cmp	eax, 2
	jne	SHORT $LN10@UpdateEval

; 4453 : 		{
; 4454 : 		// For Dogfight games, host controls all data
; 4455 : 		if (FalconLocalGame->IsLocal())

	mov	ecx, OFFSET ?vuLocalSessionEntity@@3V?$VuBin@VVuSessionEntity@@@@A ; vuLocalSessionEntity
	call	??B?$VuBin@VVuSessionEntity@@@@QBE_NXZ	; VuBin<VuSessionEntity>::operator bool
	movzx	eax, al
	test	eax, eax
	je	SHORT $LN21@UpdateEval
	mov	ecx, OFFSET ?vuLocalSessionEntity@@3V?$VuBin@VVuSessionEntity@@@@A ; vuLocalSessionEntity
	call	?get@?$VuBin@VVuSessionEntity@@@@QBEPAVVuSessionEntity@@XZ ; VuBin<VuSessionEntity>::get
	mov	ecx, eax
	call	?GetGame@FalconSessionEntity@@QAEPAVFalconGameEntity@@XZ ; FalconSessionEntity::GetGame
	mov	DWORD PTR tv170[ebp], eax
	jmp	SHORT $LN22@UpdateEval
$LN21@UpdateEval:
	mov	DWORD PTR tv170[ebp], 0
$LN22@UpdateEval:
	mov	ecx, DWORD PTR tv170[ebp]
	call	?IsLocal@VuEntity@@QBEEXZ		; VuEntity::IsLocal
	movzx	ecx, al
	test	ecx, ecx
	je	SHORT $LN9@UpdateEval

; 4456 : 			session = FalconLocalSession;

	mov	ecx, OFFSET ?vuLocalSessionEntity@@3V?$VuBin@VVuSessionEntity@@@@A ; vuLocalSessionEntity
	call	?get@?$VuBin@VVuSessionEntity@@@@QBEPAVVuSessionEntity@@XZ ; VuBin<VuSessionEntity>::get
	mov	DWORD PTR _session$[ebp], eax
$LN9@UpdateEval:

; 4457 : 		}

	jmp	$LN8@UpdateEval
$LN10@UpdateEval:

; 4458 : 	else if (!session)

	cmp	DWORD PTR _session$[ebp], 0
	jne	$LN8@UpdateEval

; 4459 : 		{
; 4460 : 		// For Campaign or TacE, the first player in the package controls the data
; 4461 : 		flight_ptr = TheCampaign.MissionEvaluator->flight_data;

	mov	edx, DWORD PTR ?TheCampaign@@3VCampaignClass@@A+324
	mov	eax, DWORD PTR [edx+204]
	mov	DWORD PTR _flight_ptr$[ebp], eax
$LN6@UpdateEval:

; 4462 : 		while (!session && flight_ptr)

	cmp	DWORD PTR _session$[ebp], 0
	jne	SHORT $LN8@UpdateEval
	cmp	DWORD PTR _flight_ptr$[ebp], 0
	je	SHORT $LN8@UpdateEval

; 4463 : 			{
; 4464 : 			// The tracking session will be the first player in the package
; 4465 : 			pilot_ptr = flight_ptr->pilot_list;

	mov	ecx, DWORD PTR _flight_ptr$[ebp]
	mov	edx, DWORD PTR [ecx+152]
	mov	DWORD PTR _pilot_ptr$[ebp], edx
$LN4@UpdateEval:

; 4466 : 			while (!session && pilot_ptr)

	cmp	DWORD PTR _session$[ebp], 0
	jne	SHORT $LN3@UpdateEval
	cmp	DWORD PTR _pilot_ptr$[ebp], 0
	je	SHORT $LN3@UpdateEval

; 4467 : 				{
; 4468 : 				if (pilot_ptr->pilot_slot != NO_PILOT)

	mov	eax, DWORD PTR _pilot_ptr$[ebp]
	movzx	ecx, BYTE PTR [eax+61]
	cmp	ecx, 255				; 000000ffH
	je	SHORT $LN2@UpdateEval

; 4469 : 					session = FindPlayer(flight_ptr->flight_id, pilot_ptr->aircraft_slot, pilot_ptr->pilot_slot);

	mov	edx, DWORD PTR _pilot_ptr$[ebp]
	movzx	eax, BYTE PTR [edx+61]
	push	eax
	mov	ecx, DWORD PTR _pilot_ptr$[ebp]
	movzx	edx, BYTE PTR [ecx+60]
	push	edx
	mov	eax, DWORD PTR _flight_ptr$[ebp]
	mov	ecx, DWORD PTR [eax+44]
	push	ecx
	mov	edx, DWORD PTR [eax+40]
	push	edx
	call	?FindPlayer@@YAPAVFalconSessionEntity@@VVU_ID@@EE@Z ; FindPlayer
	add	esp, 16					; 00000010H
	mov	DWORD PTR _session$[ebp], eax
$LN2@UpdateEval:

; 4470 : 				pilot_ptr = pilot_ptr->next_pilot;

	mov	eax, DWORD PTR _pilot_ptr$[ebp]
	mov	ecx, DWORD PTR [eax+444]
	mov	DWORD PTR _pilot_ptr$[ebp], ecx

; 4471 : 				}

	jmp	SHORT $LN4@UpdateEval
$LN3@UpdateEval:

; 4472 : 			flight_ptr = flight_ptr->next_flight;

	mov	edx, DWORD PTR _flight_ptr$[ebp]
	mov	eax, DWORD PTR [edx+164]
	mov	DWORD PTR _flight_ptr$[ebp], eax

; 4473 : 			}

	jmp	SHORT $LN6@UpdateEval
$LN8@UpdateEval:

; 4474 : 		}
; 4475 : 
; 4476 : 	if (session == FalconLocalSession)

	mov	ecx, OFFSET ?vuLocalSessionEntity@@3V?$VuBin@VVuSessionEntity@@@@A ; vuLocalSessionEntity
	call	?get@?$VuBin@VVuSessionEntity@@@@QBEPAVVuSessionEntity@@XZ ; VuBin<VuSessionEntity>::get
	cmp	DWORD PTR _session$[ebp], eax
	jne	SHORT $LN1@UpdateEval

; 4477 : 		SendEvalData (flight_data, pilot_data);

	mov	ecx, DWORD PTR _pilot_data$[ebp]
	push	ecx
	mov	edx, DWORD PTR _flight_data$[ebp]
	push	edx
	call	?SendEvalData@@YAXPAVFlightDataClass@@PAVPilotDataClass@@@Z ; SendEvalData
	add	esp, 8
$LN1@UpdateEval:

; 4478 : 
; 4479 : 	CampLeaveCriticalSection();

	call	?CampLeaveCriticalSection@@YAXXZ	; CampLeaveCriticalSection
$LN13@UpdateEval:

; 4480 : 	}

	mov	esp, ebp
	pop	ebp
	ret	0
?UpdateEvaluators@@YAXPAVFlightDataClass@@PAVPilotDataClass@@@Z ENDP ; UpdateEvaluators
_TEXT	ENDS
; Function compile flags: /Odtp
; File c:\users\zhitao li\documents\visual studio 2012\projects\freefalcon\campaign\campui\misseval.cpp
_TEXT	SEGMENT
tv76 = -8						; size = 4
tv79 = -4						; size = 4
_type$ = 8						; size = 4
_index$ = 12						; size = 4
?CalcScore@@YAHW4score_type@@H@Z PROC			; CalcScore

; 4404 : {

	push	ebp
	mov	ebp, esp
	sub	esp, 8

; 4405 : 	switch (FalconLocalGame->GetGameType ())

	mov	ecx, OFFSET ?vuLocalSessionEntity@@3V?$VuBin@VVuSessionEntity@@@@A ; vuLocalSessionEntity
	call	??B?$VuBin@VVuSessionEntity@@@@QBE_NXZ	; VuBin<VuSessionEntity>::operator bool
	movzx	eax, al
	test	eax, eax
	je	SHORT $LN8@CalcScore
	mov	ecx, OFFSET ?vuLocalSessionEntity@@3V?$VuBin@VVuSessionEntity@@@@A ; vuLocalSessionEntity
	call	?get@?$VuBin@VVuSessionEntity@@@@QBEPAVVuSessionEntity@@XZ ; VuBin<VuSessionEntity>::get
	mov	ecx, eax
	call	?GetGame@FalconSessionEntity@@QAEPAVFalconGameEntity@@XZ ; FalconSessionEntity::GetGame
	mov	DWORD PTR tv76[ebp], eax
	jmp	SHORT $LN9@CalcScore
$LN8@CalcScore:
	mov	DWORD PTR tv76[ebp], 0
$LN9@CalcScore:
	mov	ecx, DWORD PTR tv76[ebp]
	call	?GetGameType@FalconGameEntity@@QAE?AW4FalconGameType@@XZ ; FalconGameEntity::GetGameType
	mov	DWORD PTR tv79[ebp], eax
	mov	ecx, DWORD PTR tv79[ebp]
	sub	ecx, 1
	mov	DWORD PTR tv79[ebp], ecx
	cmp	DWORD PTR tv79[ebp], 3
	ja	SHORT $LN4@CalcScore
	mov	edx, DWORD PTR tv79[ebp]
	jmp	DWORD PTR $LN10@CalcScore[edx*4]
$LN3@CalcScore:

; 4406 : 	{
; 4407 : 		case game_InstantAction:
; 4408 : 		{
; 4409 : 			return ScoreInstantAction (type, index);

	mov	eax, DWORD PTR _index$[ebp]
	push	eax
	mov	ecx, DWORD PTR _type$[ebp]
	push	ecx
	call	?ScoreInstantAction@@YAHW4score_type@@H@Z ; ScoreInstantAction
	add	esp, 8
	jmp	SHORT $LN6@CalcScore
$LN2@CalcScore:

; 4410 : 		}
; 4411 : 
; 4412 : 		case game_Dogfight:
; 4413 : 		{
; 4414 : 			return ScoreDogfight (type, index);

	mov	edx, DWORD PTR _index$[ebp]
	push	edx
	mov	eax, DWORD PTR _type$[ebp]
	push	eax
	call	?ScoreDogfight@@YAHW4score_type@@H@Z	; ScoreDogfight
	add	esp, 8
	jmp	SHORT $LN6@CalcScore
$LN1@CalcScore:

; 4415 : 		}
; 4416 : 
; 4417 : 		case game_TacticalEngagement:
; 4418 : 		case game_Campaign:
; 4419 : 		{
; 4420 : 			return ScoreCampaign (type, index);

	mov	ecx, DWORD PTR _index$[ebp]
	push	ecx
	mov	edx, DWORD PTR _type$[ebp]
	push	edx
	call	?ScoreCampaign@@YAHW4score_type@@H@Z	; ScoreCampaign
	add	esp, 8
	jmp	SHORT $LN6@CalcScore
$LN4@CalcScore:

; 4421 : 		}
; 4422 : 	}
; 4423 : 
; 4424 : 	return 0;

	xor	eax, eax
$LN6@CalcScore:

; 4425 : }

	mov	esp, ebp
	pop	ebp
	ret	0
$LN10@CalcScore:
	DD	$LN3@CalcScore
	DD	$LN2@CalcScore
	DD	$LN1@CalcScore
	DD	$LN1@CalcScore
?CalcScore@@YAHW4score_type@@H@Z ENDP			; CalcScore
_TEXT	ENDS
; Function compile flags: /Odtp
; File c:\users\zhitao li\documents\visual studio 2012\projects\freefalcon\campaign\campui\misseval.cpp
_TEXT	SEGMENT
_as$ = -16						; size = 4
_w$ = -12						; size = 4
_x$ = -8						; size = 2
_y$ = -4						; size = 2
_flight$ = 8						; size = 4
?FindAlternateLandingStrip@@YAPAVObjectiveClass@@PAVFlightClass@@@Z PROC ; FindAlternateLandingStrip

; 4090 : {

	push	ebp
	mov	ebp, esp
	sub	esp, 16					; 00000010H

; 4091 : 	WayPoint		w;
; 4092 : 	Objective		as;
; 4093 : 	GridIndex		x,y;
; 4094 : 
; 4095 : 	w = flight->GetFirstUnitWP();

	mov	ecx, DWORD PTR _flight$[ebp]
	call	?GetFirstUnitWP@UnitClass@@QAEPAVWayPointClass@@XZ ; UnitClass::GetFirstUnitWP
	mov	DWORD PTR _w$[ebp], eax
$LN4@FindAltern:

; 4096 : 	// Find the alternate waypoint, if we've got one
; 4097 : 	while (w && !(w->GetWPFlags() & WPF_ALTERNATE)){

	cmp	DWORD PTR _w$[ebp], 0
	je	SHORT $LN3@FindAltern
	mov	ecx, DWORD PTR _w$[ebp]
	call	?GetWPFlags@WayPointClass@@QAEKXZ	; WayPointClass::GetWPFlags
	and	eax, 1024				; 00000400H
	jne	SHORT $LN3@FindAltern

; 4098 : 		w = w->GetNextWP();

	mov	ecx, DWORD PTR _w$[ebp]
	call	?GetNextWP@WayPointClass@@QAEPAV1@XZ	; WayPointClass::GetNextWP
	mov	DWORD PTR _w$[ebp], eax

; 4099 : 	}

	jmp	SHORT $LN4@FindAltern
$LN3@FindAltern:

; 4100 : 	if (w){

	cmp	DWORD PTR _w$[ebp], 0
	je	SHORT $LN2@FindAltern

; 4101 : 		w->GetWPLocation(&x,&y);

	lea	eax, DWORD PTR _y$[ebp]
	push	eax
	lea	ecx, DWORD PTR _x$[ebp]
	push	ecx
	mov	ecx, DWORD PTR _w$[ebp]
	call	?GetWPLocation@WayPointClass@@QBEXPAF0@Z ; WayPointClass::GetWPLocation

; 4102 : 		as = GetObjectiveByXY(x, y);

	movzx	edx, WORD PTR _y$[ebp]
	push	edx
	movzx	eax, WORD PTR _x$[ebp]
	push	eax
	call	?GetObjectiveByXY@@YAPAVObjectiveClass@@FF@Z ; GetObjectiveByXY
	add	esp, 8
	mov	DWORD PTR _as$[ebp], eax

; 4103 : 		if (as){

	cmp	DWORD PTR _as$[ebp], 0
	je	SHORT $LN2@FindAltern

; 4104 : 			return as;

	mov	eax, DWORD PTR _as$[ebp]
	jmp	SHORT $LN5@FindAltern
$LN2@FindAltern:

; 4105 : 		}
; 4106 : 	}
; 4107 : 	return NULL;

	xor	eax, eax
$LN5@FindAltern:

; 4108 : }

	mov	esp, ebp
	pop	ebp
	ret	0
?FindAlternateLandingStrip@@YAPAVObjectiveClass@@PAVFlightClass@@@Z ENDP ; FindAlternateLandingStrip
_TEXT	ENDS
; Function compile flags: /Odtp
; File c:\users\zhitao li\documents\visual studio 2012\projects\freefalcon\campaign\campui\misseval.cpp
_TEXT	SEGMENT
tv80 = -4						; size = 4
_eventType$ = 8						; size = 4
_format$ = 12						; size = 4
?GetFormatString@@YAXHPAD@Z PROC			; GetFormatString

; 134  : 	{

	push	ebp
	mov	ebp, esp
	push	ecx
	push	esi

; 135  : 	ReadIndexedString(FormatTable[eventType][FalconLocalGame->GetGameType()],format,79);

	mov	ecx, OFFSET ?vuLocalSessionEntity@@3V?$VuBin@VVuSessionEntity@@@@A ; vuLocalSessionEntity
	call	??B?$VuBin@VVuSessionEntity@@@@QBE_NXZ	; VuBin<VuSessionEntity>::operator bool
	movzx	eax, al
	test	eax, eax
	je	SHORT $LN3@GetFormatS
	mov	ecx, OFFSET ?vuLocalSessionEntity@@3V?$VuBin@VVuSessionEntity@@@@A ; vuLocalSessionEntity
	call	?get@?$VuBin@VVuSessionEntity@@@@QBEPAVVuSessionEntity@@XZ ; VuBin<VuSessionEntity>::get
	mov	ecx, eax
	call	?GetGame@FalconSessionEntity@@QAEPAVFalconGameEntity@@XZ ; FalconSessionEntity::GetGame
	mov	DWORD PTR tv80[ebp], eax
	jmp	SHORT $LN4@GetFormatS
$LN3@GetFormatS:
	mov	DWORD PTR tv80[ebp], 0
$LN4@GetFormatS:
	push	79					; 0000004fH
	mov	ecx, DWORD PTR _format$[ebp]
	push	ecx
	mov	esi, DWORD PTR _eventType$[ebp]
	imul	esi, 20					; 00000014H
	mov	ecx, DWORD PTR tv80[ebp]
	call	?GetGameType@FalconGameEntity@@QAE?AW4FalconGameType@@XZ ; FalconGameEntity::GetGameType
	mov	edx, DWORD PTR ?FormatTable@@3PAY04HA[esi+eax*4]
	push	edx
	call	?ReadIndexedString@@YAXHPADH@Z		; ReadIndexedString
	add	esp, 12					; 0000000cH

; 136  : 	}

	pop	esi
	mov	esp, ebp
	pop	ebp
	ret	0
?GetFormatString@@YAXHPAD@Z ENDP			; GetFormatString
_TEXT	ENDS
; Function compile flags: /Odtp
;	COMDAT ??_G_System_error_category@std@@UAEPAXI@Z
_TEXT	SEGMENT
_this$ = -4						; size = 4
___flags$ = 8						; size = 4
??_G_System_error_category@std@@UAEPAXI@Z PROC		; std::_System_error_category::`scalar deleting destructor', COMDAT
; _this$ = ecx
	push	ebp
	mov	ebp, esp
	push	ecx
	mov	DWORD PTR _this$[ebp], ecx
	mov	ecx, DWORD PTR _this$[ebp]
	call	??1_System_error_category@std@@UAE@XZ
	mov	eax, DWORD PTR ___flags$[ebp]
	and	eax, 1
	je	SHORT $LN1@scalar
	mov	ecx, DWORD PTR _this$[ebp]
	push	ecx
	call	??3@YAXPAX@Z				; operator delete
	add	esp, 4
$LN1@scalar:
	mov	eax, DWORD PTR _this$[ebp]
	mov	esp, ebp
	pop	ebp
	ret	4
??_G_System_error_category@std@@UAEPAXI@Z ENDP		; std::_System_error_category::`scalar deleting destructor'
_TEXT	ENDS
; Function compile flags: /Odtp
;	COMDAT ??1_System_error_category@std@@UAE@XZ
_TEXT	SEGMENT
_this$ = -4						; size = 4
??1_System_error_category@std@@UAE@XZ PROC		; std::_System_error_category::~_System_error_category, COMDAT
; _this$ = ecx
	push	ebp
	mov	ebp, esp
	push	ecx
	mov	DWORD PTR _this$[ebp], ecx
	mov	ecx, DWORD PTR _this$[ebp]
	call	??1_Generic_error_category@std@@UAE@XZ
	mov	esp, ebp
	pop	ebp
	ret	0
??1_System_error_category@std@@UAE@XZ ENDP		; std::_System_error_category::~_System_error_category
_TEXT	ENDS
; Function compile flags: /Odtp
; File c:\program files (x86)\microsoft visual studio 11.0\vc\include\system_error
;	COMDAT ?default_error_condition@_System_error_category@std@@UBE?AVerror_condition@2@H@Z
_TEXT	SEGMENT
_this$ = -4						; size = 4
___$ReturnUdt$ = 8					; size = 4
__Errval$ = 12						; size = 4
?default_error_condition@_System_error_category@std@@UBE?AVerror_condition@2@H@Z PROC ; std::_System_error_category::default_error_condition, COMDAT
; _this$ = ecx

; 641  : 		{	// make error_condition for error code (generic if possible)

	push	ebp
	mov	ebp, esp
	push	ecx
	mov	DWORD PTR _this$[ebp], ecx

; 642  : 		if (_Syserror_map(_Errval))

	mov	eax, DWORD PTR __Errval$[ebp]
	push	eax
	call	?_Syserror_map@std@@YAPBDH@Z		; std::_Syserror_map
	add	esp, 4
	test	eax, eax
	je	SHORT $LN2@default_er

; 643  : 			return (error_condition(_Errval, generic_category()));

	call	?generic_category@std@@YAABVerror_category@1@XZ ; std::generic_category
	push	eax
	mov	ecx, DWORD PTR __Errval$[ebp]
	push	ecx
	mov	ecx, DWORD PTR ___$ReturnUdt$[ebp]
	call	??0error_condition@std@@QAE@HABVerror_category@1@@Z ; std::error_condition::error_condition
	mov	eax, DWORD PTR ___$ReturnUdt$[ebp]
	jmp	SHORT $LN3@default_er

; 644  : 		else

	jmp	SHORT $LN3@default_er
$LN2@default_er:

; 645  : 			return (error_condition(_Errval, system_category()));

	call	?system_category@std@@YAABVerror_category@1@XZ ; std::system_category
	push	eax
	mov	edx, DWORD PTR __Errval$[ebp]
	push	edx
	mov	ecx, DWORD PTR ___$ReturnUdt$[ebp]
	call	??0error_condition@std@@QAE@HABVerror_category@1@@Z ; std::error_condition::error_condition
	mov	eax, DWORD PTR ___$ReturnUdt$[ebp]
$LN3@default_er:

; 646  : 		}

	mov	esp, ebp
	pop	ebp
	ret	8
?default_error_condition@_System_error_category@std@@UBE?AVerror_condition@2@H@Z ENDP ; std::_System_error_category::default_error_condition
_TEXT	ENDS
; Function compile flags: /Odtp
; File c:\program files (x86)\microsoft visual studio 11.0\vc\include\system_error
;	COMDAT ?message@_System_error_category@std@@UBE?AV?$basic_string@DU?$char_traits@D@std@@V?$allocator@D@2@@2@H@Z
_TEXT	SEGMENT
_this$ = -16						; size = 4
$T1 = -12						; size = 4
tv69 = -8						; size = 4
__Name$ = -4						; size = 4
___$ReturnUdt$ = 8					; size = 4
__Errcode$ = 12						; size = 4
?message@_System_error_category@std@@UBE?AV?$basic_string@DU?$char_traits@D@std@@V?$allocator@D@2@@2@H@Z PROC ; std::_System_error_category::message, COMDAT
; _this$ = ecx

; 634  : 		{	// convert to name of error

	push	ebp
	mov	ebp, esp
	sub	esp, 16					; 00000010H
	mov	DWORD PTR _this$[ebp], ecx
	mov	DWORD PTR $T1[ebp], 0

; 635  : 		const char *_Name = _Winerror_map(_Errcode);

	mov	eax, DWORD PTR __Errcode$[ebp]
	push	eax
	call	?_Winerror_map@std@@YAPBDH@Z		; std::_Winerror_map
	add	esp, 4
	mov	DWORD PTR __Name$[ebp], eax

; 636  : 		return (string(_Name != 0 ? _Name : "unknown error"));

	cmp	DWORD PTR __Name$[ebp], 0
	je	SHORT $LN3@message
	mov	ecx, DWORD PTR __Name$[ebp]
	mov	DWORD PTR tv69[ebp], ecx
	jmp	SHORT $LN4@message
$LN3@message:
	mov	DWORD PTR tv69[ebp], OFFSET ??_C@_0O@BFJCFAAK@unknown?5error?$AA@
$LN4@message:
	mov	edx, DWORD PTR tv69[ebp]
	push	edx
	mov	ecx, DWORD PTR ___$ReturnUdt$[ebp]
	call	??0?$basic_string@DU?$char_traits@D@std@@V?$allocator@D@2@@std@@QAE@PBD@Z ; std::basic_string<char,std::char_traits<char>,std::allocator<char> >::basic_string<char,std::char_traits<char>,std::allocator<char> >
	mov	eax, DWORD PTR $T1[ebp]
	or	eax, 1
	mov	DWORD PTR $T1[ebp], eax
	mov	eax, DWORD PTR ___$ReturnUdt$[ebp]

; 637  : 		}

	mov	esp, ebp
	pop	ebp
	ret	8
?message@_System_error_category@std@@UBE?AV?$basic_string@DU?$char_traits@D@std@@V?$allocator@D@2@@2@H@Z ENDP ; std::_System_error_category::message
_TEXT	ENDS
; Function compile flags: /Odtp
; File c:\program files (x86)\microsoft visual studio 11.0\vc\include\system_error
;	COMDAT ?name@_System_error_category@std@@UBEPBDXZ
_TEXT	SEGMENT
_this$ = -4						; size = 4
?name@_System_error_category@std@@UBEPBDXZ PROC		; std::_System_error_category::name, COMDAT
; _this$ = ecx

; 629  : 		{	// get name of category

	push	ebp
	mov	ebp, esp
	push	ecx
	mov	DWORD PTR _this$[ebp], ecx

; 630  : 		return ("system");

	mov	eax, OFFSET ??_C@_06FHFOAHML@system?$AA@

; 631  : 		}

	mov	esp, ebp
	pop	ebp
	ret	0
?name@_System_error_category@std@@UBEPBDXZ ENDP		; std::_System_error_category::name
_TEXT	ENDS
; Function compile flags: /Odtp
; File c:\program files (x86)\microsoft visual studio 11.0\vc\include\system_error
;	COMDAT ??0_System_error_category@std@@QAE@XZ
_TEXT	SEGMENT
_this$ = -4						; size = 4
??0_System_error_category@std@@QAE@XZ PROC		; std::_System_error_category::_System_error_category, COMDAT
; _this$ = ecx

; 624  : 	_System_error_category()

	push	ebp
	mov	ebp, esp
	push	ecx
	mov	DWORD PTR _this$[ebp], ecx
	mov	ecx, DWORD PTR _this$[ebp]
	call	??0_Generic_error_category@std@@QAE@XZ	; std::_Generic_error_category::_Generic_error_category
	mov	eax, DWORD PTR _this$[ebp]
	mov	DWORD PTR [eax], OFFSET ??_7_System_error_category@std@@6B@

; 625  : 		{	// default constructor
; 626  : 		}

	mov	eax, DWORD PTR _this$[ebp]
	mov	esp, ebp
	pop	ebp
	ret	0
??0_System_error_category@std@@QAE@XZ ENDP		; std::_System_error_category::_System_error_category
_TEXT	ENDS
; Function compile flags: /Odtp
;	COMDAT ??_G_Iostream_error_category@std@@UAEPAXI@Z
_TEXT	SEGMENT
_this$ = -4						; size = 4
___flags$ = 8						; size = 4
??_G_Iostream_error_category@std@@UAEPAXI@Z PROC	; std::_Iostream_error_category::`scalar deleting destructor', COMDAT
; _this$ = ecx
	push	ebp
	mov	ebp, esp
	push	ecx
	mov	DWORD PTR _this$[ebp], ecx
	mov	ecx, DWORD PTR _this$[ebp]
	call	??1_Iostream_error_category@std@@UAE@XZ
	mov	eax, DWORD PTR ___flags$[ebp]
	and	eax, 1
	je	SHORT $LN1@scalar
	mov	ecx, DWORD PTR _this$[ebp]
	push	ecx
	call	??3@YAXPAX@Z				; operator delete
	add	esp, 4
$LN1@scalar:
	mov	eax, DWORD PTR _this$[ebp]
	mov	esp, ebp
	pop	ebp
	ret	4
??_G_Iostream_error_category@std@@UAEPAXI@Z ENDP	; std::_Iostream_error_category::`scalar deleting destructor'
_TEXT	ENDS
; Function compile flags: /Odtp
;	COMDAT ??1_Iostream_error_category@std@@UAE@XZ
_TEXT	SEGMENT
_this$ = -4						; size = 4
??1_Iostream_error_category@std@@UAE@XZ PROC		; std::_Iostream_error_category::~_Iostream_error_category, COMDAT
; _this$ = ecx
	push	ebp
	mov	ebp, esp
	push	ecx
	mov	DWORD PTR _this$[ebp], ecx
	mov	ecx, DWORD PTR _this$[ebp]
	call	??1_Generic_error_category@std@@UAE@XZ
	mov	esp, ebp
	pop	ebp
	ret	0
??1_Iostream_error_category@std@@UAE@XZ ENDP		; std::_Iostream_error_category::~_Iostream_error_category
_TEXT	ENDS
; Function compile flags: /Odtp
; File c:\program files (x86)\microsoft visual studio 11.0\vc\include\system_error
;	COMDAT ?message@_Iostream_error_category@std@@UBE?AV?$basic_string@DU?$char_traits@D@std@@V?$allocator@D@2@@2@H@Z
_TEXT	SEGMENT
_this$ = -8						; size = 4
$T1 = -4						; size = 4
___$ReturnUdt$ = 8					; size = 4
__Errcode$ = 12						; size = 4
?message@_Iostream_error_category@std@@UBE?AV?$basic_string@DU?$char_traits@D@std@@V?$allocator@D@2@@2@H@Z PROC ; std::_Iostream_error_category::message, COMDAT
; _this$ = ecx

; 611  : 		{	// convert to name of error

	push	ebp
	mov	ebp, esp
	sub	esp, 8
	mov	DWORD PTR _this$[ebp], ecx
	mov	DWORD PTR $T1[ebp], 0

; 612  : 		if (_Errcode == (int)io_errc::stream)

	cmp	DWORD PTR __Errcode$[ebp], 1
	jne	SHORT $LN2@message

; 613  : 			return ("iostream stream error");

	push	OFFSET ??_C@_0BG@PADBLCHM@iostream?5stream?5error?$AA@
	mov	ecx, DWORD PTR ___$ReturnUdt$[ebp]
	call	??0?$basic_string@DU?$char_traits@D@std@@V?$allocator@D@2@@std@@QAE@PBD@Z ; std::basic_string<char,std::char_traits<char>,std::allocator<char> >::basic_string<char,std::char_traits<char>,std::allocator<char> >
	mov	eax, DWORD PTR $T1[ebp]
	or	eax, 1
	mov	DWORD PTR $T1[ebp], eax
	mov	eax, DWORD PTR ___$ReturnUdt$[ebp]
	jmp	SHORT $LN3@message

; 614  : 		else

	jmp	SHORT $LN3@message
$LN2@message:

; 615  : 			return (_Generic_error_category::message(_Errcode));

	mov	ecx, DWORD PTR __Errcode$[ebp]
	push	ecx
	mov	edx, DWORD PTR ___$ReturnUdt$[ebp]
	push	edx
	mov	ecx, DWORD PTR _this$[ebp]
	call	?message@_Generic_error_category@std@@UBE?AV?$basic_string@DU?$char_traits@D@std@@V?$allocator@D@2@@2@H@Z ; std::_Generic_error_category::message
	mov	eax, DWORD PTR $T1[ebp]
	or	eax, 1
	mov	DWORD PTR $T1[ebp], eax
	mov	eax, DWORD PTR ___$ReturnUdt$[ebp]
$LN3@message:

; 616  : 		}

	mov	esp, ebp
	pop	ebp
	ret	8
?message@_Iostream_error_category@std@@UBE?AV?$basic_string@DU?$char_traits@D@std@@V?$allocator@D@2@@2@H@Z ENDP ; std::_Iostream_error_category::message
_TEXT	ENDS
; Function compile flags: /Odtp
; File c:\program files (x86)\microsoft visual studio 11.0\vc\include\system_error
;	COMDAT ?name@_Iostream_error_category@std@@UBEPBDXZ
_TEXT	SEGMENT
_this$ = -4						; size = 4
?name@_Iostream_error_category@std@@UBEPBDXZ PROC	; std::_Iostream_error_category::name, COMDAT
; _this$ = ecx

; 606  : 		{	// get name of category

	push	ebp
	mov	ebp, esp
	push	ecx
	mov	DWORD PTR _this$[ebp], ecx

; 607  : 		return ("iostream");

	mov	eax, OFFSET ??_C@_08LLGCOLLL@iostream?$AA@

; 608  : 		}

	mov	esp, ebp
	pop	ebp
	ret	0
?name@_Iostream_error_category@std@@UBEPBDXZ ENDP	; std::_Iostream_error_category::name
_TEXT	ENDS
; Function compile flags: /Odtp
; File c:\program files (x86)\microsoft visual studio 11.0\vc\include\system_error
;	COMDAT ??0_Iostream_error_category@std@@QAE@XZ
_TEXT	SEGMENT
_this$ = -4						; size = 4
??0_Iostream_error_category@std@@QAE@XZ PROC		; std::_Iostream_error_category::_Iostream_error_category, COMDAT
; _this$ = ecx

; 601  : 	_Iostream_error_category()

	push	ebp
	mov	ebp, esp
	push	ecx
	mov	DWORD PTR _this$[ebp], ecx
	mov	ecx, DWORD PTR _this$[ebp]
	call	??0_Generic_error_category@std@@QAE@XZ	; std::_Generic_error_category::_Generic_error_category
	mov	eax, DWORD PTR _this$[ebp]
	mov	DWORD PTR [eax], OFFSET ??_7_Iostream_error_category@std@@6B@

; 602  : 		{	// default constructor
; 603  : 		}

	mov	eax, DWORD PTR _this$[ebp]
	mov	esp, ebp
	pop	ebp
	ret	0
??0_Iostream_error_category@std@@QAE@XZ ENDP		; std::_Iostream_error_category::_Iostream_error_category
_TEXT	ENDS
; Function compile flags: /Odtp
;	COMDAT ??_G_Generic_error_category@std@@UAEPAXI@Z
_TEXT	SEGMENT
_this$ = -4						; size = 4
___flags$ = 8						; size = 4
??_G_Generic_error_category@std@@UAEPAXI@Z PROC		; std::_Generic_error_category::`scalar deleting destructor', COMDAT
; _this$ = ecx
	push	ebp
	mov	ebp, esp
	push	ecx
	mov	DWORD PTR _this$[ebp], ecx
	mov	ecx, DWORD PTR _this$[ebp]
	call	??1_Generic_error_category@std@@UAE@XZ
	mov	eax, DWORD PTR ___flags$[ebp]
	and	eax, 1
	je	SHORT $LN1@scalar
	mov	ecx, DWORD PTR _this$[ebp]
	push	ecx
	call	??3@YAXPAX@Z				; operator delete
	add	esp, 4
$LN1@scalar:
	mov	eax, DWORD PTR _this$[ebp]
	mov	esp, ebp
	pop	ebp
	ret	4
??_G_Generic_error_category@std@@UAEPAXI@Z ENDP		; std::_Generic_error_category::`scalar deleting destructor'
_TEXT	ENDS
; Function compile flags: /Odtp
;	COMDAT ??1_Generic_error_category@std@@UAE@XZ
_TEXT	SEGMENT
_this$ = -4						; size = 4
??1_Generic_error_category@std@@UAE@XZ PROC		; std::_Generic_error_category::~_Generic_error_category, COMDAT
; _this$ = ecx
	push	ebp
	mov	ebp, esp
	push	ecx
	mov	DWORD PTR _this$[ebp], ecx
	mov	ecx, DWORD PTR _this$[ebp]
	call	??1error_category@std@@UAE@XZ		; std::error_category::~error_category
	mov	esp, ebp
	pop	ebp
	ret	0
??1_Generic_error_category@std@@UAE@XZ ENDP		; std::_Generic_error_category::~_Generic_error_category
_TEXT	ENDS
; Function compile flags: /Odtp
; File c:\program files (x86)\microsoft visual studio 11.0\vc\include\system_error
;	COMDAT ?message@_Generic_error_category@std@@UBE?AV?$basic_string@DU?$char_traits@D@std@@V?$allocator@D@2@@2@H@Z
_TEXT	SEGMENT
_this$ = -16						; size = 4
$T1 = -12						; size = 4
tv69 = -8						; size = 4
__Name$ = -4						; size = 4
___$ReturnUdt$ = 8					; size = 4
__Errcode$ = 12						; size = 4
?message@_Generic_error_category@std@@UBE?AV?$basic_string@DU?$char_traits@D@std@@V?$allocator@D@2@@2@H@Z PROC ; std::_Generic_error_category::message, COMDAT
; _this$ = ecx

; 590  : 		{	// convert to name of error

	push	ebp
	mov	ebp, esp
	sub	esp, 16					; 00000010H
	mov	DWORD PTR _this$[ebp], ecx
	mov	DWORD PTR $T1[ebp], 0

; 591  : 		const char *_Name = _Syserror_map(_Errcode);

	mov	eax, DWORD PTR __Errcode$[ebp]
	push	eax
	call	?_Syserror_map@std@@YAPBDH@Z		; std::_Syserror_map
	add	esp, 4
	mov	DWORD PTR __Name$[ebp], eax

; 592  : 		return (string(_Name != 0 ? _Name : "unknown error"));

	cmp	DWORD PTR __Name$[ebp], 0
	je	SHORT $LN3@message
	mov	ecx, DWORD PTR __Name$[ebp]
	mov	DWORD PTR tv69[ebp], ecx
	jmp	SHORT $LN4@message
$LN3@message:
	mov	DWORD PTR tv69[ebp], OFFSET ??_C@_0O@BFJCFAAK@unknown?5error?$AA@
$LN4@message:
	mov	edx, DWORD PTR tv69[ebp]
	push	edx
	mov	ecx, DWORD PTR ___$ReturnUdt$[ebp]
	call	??0?$basic_string@DU?$char_traits@D@std@@V?$allocator@D@2@@std@@QAE@PBD@Z ; std::basic_string<char,std::char_traits<char>,std::allocator<char> >::basic_string<char,std::char_traits<char>,std::allocator<char> >
	mov	eax, DWORD PTR $T1[ebp]
	or	eax, 1
	mov	DWORD PTR $T1[ebp], eax
	mov	eax, DWORD PTR ___$ReturnUdt$[ebp]

; 593  : 		}

	mov	esp, ebp
	pop	ebp
	ret	8
?message@_Generic_error_category@std@@UBE?AV?$basic_string@DU?$char_traits@D@std@@V?$allocator@D@2@@2@H@Z ENDP ; std::_Generic_error_category::message
_TEXT	ENDS
; Function compile flags: /Odtp
; File c:\program files (x86)\microsoft visual studio 11.0\vc\include\system_error
;	COMDAT ?name@_Generic_error_category@std@@UBEPBDXZ
_TEXT	SEGMENT
_this$ = -4						; size = 4
?name@_Generic_error_category@std@@UBEPBDXZ PROC	; std::_Generic_error_category::name, COMDAT
; _this$ = ecx

; 585  : 		{	// get name of category

	push	ebp
	mov	ebp, esp
	push	ecx
	mov	DWORD PTR _this$[ebp], ecx

; 586  : 		return ("generic");

	mov	eax, OFFSET ??_C@_07DCLBNMLN@generic?$AA@

; 587  : 		}

	mov	esp, ebp
	pop	ebp
	ret	0
?name@_Generic_error_category@std@@UBEPBDXZ ENDP	; std::_Generic_error_category::name
_TEXT	ENDS
; Function compile flags: /Odtp
; File c:\program files (x86)\microsoft visual studio 11.0\vc\include\system_error
;	COMDAT ??0_Generic_error_category@std@@QAE@XZ
_TEXT	SEGMENT
_this$ = -4						; size = 4
??0_Generic_error_category@std@@QAE@XZ PROC		; std::_Generic_error_category::_Generic_error_category, COMDAT
; _this$ = ecx

; 580  : 	_Generic_error_category()

	push	ebp
	mov	ebp, esp
	push	ecx
	mov	DWORD PTR _this$[ebp], ecx
	mov	ecx, DWORD PTR _this$[ebp]
	call	??0error_category@std@@QAE@XZ		; std::error_category::error_category
	mov	eax, DWORD PTR _this$[ebp]
	mov	DWORD PTR [eax], OFFSET ??_7_Generic_error_category@std@@6B@

; 581  : 		{	// default constructor
; 582  : 		}

	mov	eax, DWORD PTR _this$[ebp]
	mov	esp, ebp
	pop	ebp
	ret	0
??0_Generic_error_category@std@@QAE@XZ ENDP		; std::_Generic_error_category::_Generic_error_category
_TEXT	ENDS
; Function compile flags: /Odtp
; File c:\program files (x86)\microsoft visual studio 11.0\vc\include\system_error
;	COMDAT ??8error_condition@std@@QBE_NABV01@@Z
_TEXT	SEGMENT
tv78 = -8						; size = 4
_this$ = -4						; size = 4
__Right$ = 8						; size = 4
??8error_condition@std@@QBE_NABV01@@Z PROC		; std::error_condition::operator==, COMDAT
; _this$ = ecx

; 376  : 		{	// test if *this == _Right

	push	ebp
	mov	ebp, esp
	sub	esp, 8
	push	esi
	mov	DWORD PTR _this$[ebp], ecx

; 377  : 		return (category() == _Right.category()
; 378  : 			&& value() == _Right.value());

	mov	ecx, DWORD PTR __Right$[ebp]
	call	?category@error_condition@std@@QBEABVerror_category@2@XZ ; std::error_condition::category
	push	eax
	mov	ecx, DWORD PTR _this$[ebp]
	call	?category@error_condition@std@@QBEABVerror_category@2@XZ ; std::error_condition::category
	mov	ecx, eax
	call	??8error_category@std@@QBE_NABV01@@Z	; std::error_category::operator==
	movzx	eax, al
	test	eax, eax
	je	SHORT $LN3@operator
	mov	ecx, DWORD PTR _this$[ebp]
	call	?value@error_condition@std@@QBEHXZ	; std::error_condition::value
	mov	esi, eax
	mov	ecx, DWORD PTR __Right$[ebp]
	call	?value@error_condition@std@@QBEHXZ	; std::error_condition::value
	cmp	esi, eax
	jne	SHORT $LN3@operator
	mov	DWORD PTR tv78[ebp], 1
	jmp	SHORT $LN4@operator
$LN3@operator:
	mov	DWORD PTR tv78[ebp], 0
$LN4@operator:
	mov	al, BYTE PTR tv78[ebp]

; 379  : 		}

	pop	esi
	mov	esp, ebp
	pop	ebp
	ret	4
??8error_condition@std@@QBE_NABV01@@Z ENDP		; std::error_condition::operator==
_TEXT	ENDS
; Function compile flags: /Odtp
; File c:\program files (x86)\microsoft visual studio 11.0\vc\include\system_error
;	COMDAT ?category@error_condition@std@@QBEABVerror_category@2@XZ
_TEXT	SEGMENT
_this$ = -4						; size = 4
?category@error_condition@std@@QBEABVerror_category@2@XZ PROC ; std::error_condition::category, COMDAT
; _this$ = ecx

; 354  : 		{	// get category

	push	ebp
	mov	ebp, esp
	push	ecx
	mov	DWORD PTR _this$[ebp], ecx

; 355  : 		return (*_Mycat);

	mov	eax, DWORD PTR _this$[ebp]
	mov	eax, DWORD PTR [eax+4]

; 356  : 		}

	mov	esp, ebp
	pop	ebp
	ret	0
?category@error_condition@std@@QBEABVerror_category@2@XZ ENDP ; std::error_condition::category
_TEXT	ENDS
; Function compile flags: /Odtp
; File c:\program files (x86)\microsoft visual studio 11.0\vc\include\system_error
;	COMDAT ?value@error_condition@std@@QBEHXZ
_TEXT	SEGMENT
_this$ = -4						; size = 4
?value@error_condition@std@@QBEHXZ PROC			; std::error_condition::value, COMDAT
; _this$ = ecx

; 349  : 		{	// get error code

	push	ebp
	mov	ebp, esp
	push	ecx
	mov	DWORD PTR _this$[ebp], ecx

; 350  : 		return (_Myval);

	mov	eax, DWORD PTR _this$[ebp]
	mov	eax, DWORD PTR [eax]

; 351  : 		}

	mov	esp, ebp
	pop	ebp
	ret	0
?value@error_condition@std@@QBEHXZ ENDP			; std::error_condition::value
_TEXT	ENDS
; Function compile flags: /Odtp
; File c:\program files (x86)\microsoft visual studio 11.0\vc\include\system_error
;	COMDAT ??0error_condition@std@@QAE@HABVerror_category@1@@Z
_TEXT	SEGMENT
_this$ = -4						; size = 4
__Val$ = 8						; size = 4
__Cat$ = 12						; size = 4
??0error_condition@std@@QAE@HABVerror_category@1@@Z PROC ; std::error_condition::error_condition, COMDAT
; _this$ = ecx

; 316  : 		{	// construct from error code and category

	push	ebp
	mov	ebp, esp
	push	ecx
	mov	DWORD PTR _this$[ebp], ecx
	mov	eax, DWORD PTR _this$[ebp]
	mov	ecx, DWORD PTR __Val$[ebp]
	mov	DWORD PTR [eax], ecx
	mov	edx, DWORD PTR _this$[ebp]
	mov	eax, DWORD PTR __Cat$[ebp]
	mov	DWORD PTR [edx+4], eax

; 317  : 		}

	mov	eax, DWORD PTR _this$[ebp]
	mov	esp, ebp
	pop	ebp
	ret	8
??0error_condition@std@@QAE@HABVerror_category@1@@Z ENDP ; std::error_condition::error_condition
_TEXT	ENDS
; Function compile flags: /Odtp
; File c:\program files (x86)\microsoft visual studio 11.0\vc\include\system_error
;	COMDAT ?category@error_code@std@@QBEABVerror_category@2@XZ
_TEXT	SEGMENT
_this$ = -4						; size = 4
?category@error_code@std@@QBEABVerror_category@2@XZ PROC ; std::error_code::category, COMDAT
; _this$ = ecx

; 256  : 		{	// get category

	push	ebp
	mov	ebp, esp
	push	ecx
	mov	DWORD PTR _this$[ebp], ecx

; 257  : 		return (*_Mycat);

	mov	eax, DWORD PTR _this$[ebp]
	mov	eax, DWORD PTR [eax+4]

; 258  : 		}

	mov	esp, ebp
	pop	ebp
	ret	0
?category@error_code@std@@QBEABVerror_category@2@XZ ENDP ; std::error_code::category
_TEXT	ENDS
; Function compile flags: /Odtp
; File c:\program files (x86)\microsoft visual studio 11.0\vc\include\system_error
;	COMDAT ?value@error_code@std@@QBEHXZ
_TEXT	SEGMENT
_this$ = -4						; size = 4
?value@error_code@std@@QBEHXZ PROC			; std::error_code::value, COMDAT
; _this$ = ecx

; 251  : 		{	// get error code

	push	ebp
	mov	ebp, esp
	push	ecx
	mov	DWORD PTR _this$[ebp], ecx

; 252  : 		return (_Myval);

	mov	eax, DWORD PTR _this$[ebp]
	mov	eax, DWORD PTR [eax]

; 253  : 		}

	mov	esp, ebp
	pop	ebp
	ret	0
?value@error_code@std@@QBEHXZ ENDP			; std::error_code::value
_TEXT	ENDS
; Function compile flags: /Odtp
;	COMDAT ??_Gerror_category@std@@UAEPAXI@Z
_TEXT	SEGMENT
_this$ = -4						; size = 4
___flags$ = 8						; size = 4
??_Gerror_category@std@@UAEPAXI@Z PROC			; std::error_category::`scalar deleting destructor', COMDAT
; _this$ = ecx
	push	ebp
	mov	ebp, esp
	push	ecx
	mov	DWORD PTR _this$[ebp], ecx
	mov	ecx, DWORD PTR _this$[ebp]
	call	??1error_category@std@@UAE@XZ		; std::error_category::~error_category
	mov	eax, DWORD PTR ___flags$[ebp]
	and	eax, 1
	je	SHORT $LN1@scalar
	mov	ecx, DWORD PTR _this$[ebp]
	push	ecx
	call	??3@YAXPAX@Z				; operator delete
	add	esp, 4
$LN1@scalar:
	mov	eax, DWORD PTR _this$[ebp]
	mov	esp, ebp
	pop	ebp
	ret	4
??_Gerror_category@std@@UAEPAXI@Z ENDP			; std::error_category::`scalar deleting destructor'
_TEXT	ENDS
; Function compile flags: /Odtp
; File c:\program files (x86)\microsoft visual studio 11.0\vc\include\system_error
;	COMDAT ??8error_category@std@@QBE_NABV01@@Z
_TEXT	SEGMENT
_this$ = -8						; size = 4
tv65 = -4						; size = 4
__Right$ = 8						; size = 4
??8error_category@std@@QBE_NABV01@@Z PROC		; std::error_category::operator==, COMDAT
; _this$ = ecx

; 184  : 		{	// compare categories for equality

	push	ebp
	mov	ebp, esp
	sub	esp, 8
	mov	DWORD PTR _this$[ebp], ecx

; 185  : 		return (this == &_Right);

	mov	eax, DWORD PTR _this$[ebp]
	cmp	eax, DWORD PTR __Right$[ebp]
	jne	SHORT $LN3@operator
	mov	DWORD PTR tv65[ebp], 1
	jmp	SHORT $LN4@operator
$LN3@operator:
	mov	DWORD PTR tv65[ebp], 0
$LN4@operator:
	mov	al, BYTE PTR tv65[ebp]

; 186  : 		}

	mov	esp, ebp
	pop	ebp
	ret	4
??8error_category@std@@QBE_NABV01@@Z ENDP		; std::error_category::operator==
_TEXT	ENDS
; Function compile flags: /Odtp
; File c:\program files (x86)\microsoft visual studio 11.0\vc\include\system_error
;	COMDAT ?equivalent@error_category@std@@UBE_NABVerror_code@2@H@Z
_TEXT	SEGMENT
_this$ = -8						; size = 4
tv74 = -4						; size = 4
__Code$ = 8						; size = 4
__Errval$ = 12						; size = 4
?equivalent@error_category@std@@UBE_NABVerror_code@2@H@Z PROC ; std::error_category::equivalent, COMDAT
; _this$ = ecx

; 415  : 	{	// test if conditions same for this category

	push	ebp
	mov	ebp, esp
	sub	esp, 8
	mov	DWORD PTR _this$[ebp], ecx

; 416  : 	return (*this == _Code.category() && _Code.value() == _Errval);

	mov	ecx, DWORD PTR __Code$[ebp]
	call	?category@error_code@std@@QBEABVerror_category@2@XZ ; std::error_code::category
	push	eax
	mov	ecx, DWORD PTR _this$[ebp]
	call	??8error_category@std@@QBE_NABV01@@Z	; std::error_category::operator==
	movzx	eax, al
	test	eax, eax
	je	SHORT $LN3@equivalent
	mov	ecx, DWORD PTR __Code$[ebp]
	call	?value@error_code@std@@QBEHXZ		; std::error_code::value
	cmp	eax, DWORD PTR __Errval$[ebp]
	jne	SHORT $LN3@equivalent
	mov	DWORD PTR tv74[ebp], 1
	jmp	SHORT $LN4@equivalent
$LN3@equivalent:
	mov	DWORD PTR tv74[ebp], 0
$LN4@equivalent:
	mov	al, BYTE PTR tv74[ebp]

; 417  : 	}

	mov	esp, ebp
	pop	ebp
	ret	8
?equivalent@error_category@std@@UBE_NABVerror_code@2@H@Z ENDP ; std::error_category::equivalent
_TEXT	ENDS
; Function compile flags: /Odtp
; File c:\program files (x86)\microsoft visual studio 11.0\vc\include\system_error
;	COMDAT ?equivalent@error_category@std@@UBE_NHABVerror_condition@2@@Z
_TEXT	SEGMENT
$T1 = -12						; size = 8
_this$ = -4						; size = 4
__Errval$ = 8						; size = 4
__Cond$ = 12						; size = 4
?equivalent@error_category@std@@UBE_NHABVerror_condition@2@@Z PROC ; std::error_category::equivalent, COMDAT
; _this$ = ecx

; 408  : 	{	// test if error code same condition

	push	ebp
	mov	ebp, esp
	sub	esp, 12					; 0000000cH
	mov	DWORD PTR _this$[ebp], ecx

; 409  : 	return (default_error_condition(_Errval) == _Cond);

	mov	eax, DWORD PTR __Cond$[ebp]
	push	eax
	mov	ecx, DWORD PTR __Errval$[ebp]
	push	ecx
	lea	edx, DWORD PTR $T1[ebp]
	push	edx
	mov	eax, DWORD PTR _this$[ebp]
	mov	edx, DWORD PTR [eax]
	mov	ecx, DWORD PTR _this$[ebp]
	mov	eax, DWORD PTR [edx+12]
	call	eax
	mov	ecx, eax
	call	??8error_condition@std@@QBE_NABV01@@Z	; std::error_condition::operator==

; 410  : 	}

	mov	esp, ebp
	pop	ebp
	ret	8
?equivalent@error_category@std@@UBE_NHABVerror_condition@2@@Z ENDP ; std::error_category::equivalent
_TEXT	ENDS
; Function compile flags: /Odtp
; File c:\program files (x86)\microsoft visual studio 11.0\vc\include\system_error
;	COMDAT ?default_error_condition@error_category@std@@UBE?AVerror_condition@2@H@Z
_TEXT	SEGMENT
_this$ = -4						; size = 4
___$ReturnUdt$ = 8					; size = 4
__Errval$ = 12						; size = 4
?default_error_condition@error_category@std@@UBE?AVerror_condition@2@H@Z PROC ; std::error_category::default_error_condition, COMDAT
; _this$ = ecx

; 401  : 	{	// make error_condition for error code

	push	ebp
	mov	ebp, esp
	push	ecx
	mov	DWORD PTR _this$[ebp], ecx

; 402  : 	return (error_condition(_Errval, *this));

	mov	eax, DWORD PTR _this$[ebp]
	push	eax
	mov	ecx, DWORD PTR __Errval$[ebp]
	push	ecx
	mov	ecx, DWORD PTR ___$ReturnUdt$[ebp]
	call	??0error_condition@std@@QAE@HABVerror_category@1@@Z ; std::error_condition::error_condition
	mov	eax, DWORD PTR ___$ReturnUdt$[ebp]

; 403  : 	}

	mov	esp, ebp
	pop	ebp
	ret	8
?default_error_condition@error_category@std@@UBE?AVerror_condition@2@H@Z ENDP ; std::error_category::default_error_condition
_TEXT	ENDS
; Function compile flags: /Odtp
; File c:\program files (x86)\microsoft visual studio 11.0\vc\include\system_error
;	COMDAT ??1error_category@std@@UAE@XZ
_TEXT	SEGMENT
_this$ = -4						; size = 4
??1error_category@std@@UAE@XZ PROC			; std::error_category::~error_category, COMDAT
; _this$ = ecx

; 167  : 		{	// destroy the object

	push	ebp
	mov	ebp, esp
	push	ecx
	mov	DWORD PTR _this$[ebp], ecx
	mov	eax, DWORD PTR _this$[ebp]
	mov	DWORD PTR [eax], OFFSET ??_7error_category@std@@6B@

; 168  : 		}

	mov	esp, ebp
	pop	ebp
	ret	0
??1error_category@std@@UAE@XZ ENDP			; std::error_category::~error_category
_TEXT	ENDS
; Function compile flags: /Odtp
; File c:\program files (x86)\microsoft visual studio 11.0\vc\include\system_error
;	COMDAT ??0error_category@std@@QAE@XZ
_TEXT	SEGMENT
_this$ = -4						; size = 4
??0error_category@std@@QAE@XZ PROC			; std::error_category::error_category, COMDAT
; _this$ = ecx

; 162  : 	error_category()

	push	ebp
	mov	ebp, esp
	push	ecx
	mov	DWORD PTR _this$[ebp], ecx
	mov	eax, DWORD PTR _this$[ebp]
	mov	DWORD PTR [eax], OFFSET ??_7error_category@std@@6B@

; 163  : 		{	// default constructor
; 164  : 		}

	mov	eax, DWORD PTR _this$[ebp]
	mov	esp, ebp
	pop	ebp
	ret	0
??0error_category@std@@QAE@XZ ENDP			; std::error_category::error_category
_TEXT	ENDS
; Function compile flags: /Odtp
; File c:\program files (x86)\microsoft visual studio 11.0\vc\include\system_error
;	COMDAT ?system_category@std@@YAABVerror_category@1@XZ
_TEXT	SEGMENT
?system_category@std@@YAABVerror_category@1@XZ PROC	; std::system_category, COMDAT

; 679  : 	{	// get system_category

	push	ebp
	mov	ebp, esp

; 680  : 	return (_Error_objects<int>::_System_object);

	mov	eax, OFFSET ?_System_object@?$_Error_objects@H@std@@2V_System_error_category@2@A ; std::_Error_objects<int>::_System_object

; 681  : 	}

	pop	ebp
	ret	0
?system_category@std@@YAABVerror_category@1@XZ ENDP	; std::system_category
_TEXT	ENDS
; Function compile flags: /Odtp
; File c:\program files (x86)\microsoft visual studio 11.0\vc\include\system_error
;	COMDAT ?generic_category@std@@YAABVerror_category@1@XZ
_TEXT	SEGMENT
?generic_category@std@@YAABVerror_category@1@XZ PROC	; std::generic_category, COMDAT

; 669  : 	{	// get generic_category

	push	ebp
	mov	ebp, esp

; 670  : 	return (_Error_objects<int>::_Generic_object);

	mov	eax, OFFSET ?_Generic_object@?$_Error_objects@H@std@@2V_Generic_error_category@2@A ; std::_Error_objects<int>::_Generic_object

; 671  : 	}

	pop	ebp
	ret	0
?generic_category@std@@YAABVerror_category@1@XZ ENDP	; std::generic_category
_TEXT	ENDS
; Function compile flags: /Odtp
; File c:\program files (x86)\microsoft visual studio 11.0\vc\include\xlocale
;	COMDAT ??0id@locale@std@@QAE@I@Z
_TEXT	SEGMENT
_this$ = -4						; size = 4
__Val$ = 8						; size = 4
??0id@locale@std@@QAE@I@Z PROC				; std::locale::id::id, COMDAT
; _this$ = ecx

; 74   : 			{	// construct with specified stamp value

	push	ebp
	mov	ebp, esp
	push	ecx
	mov	DWORD PTR _this$[ebp], ecx
	mov	eax, DWORD PTR _this$[ebp]
	mov	ecx, DWORD PTR __Val$[ebp]
	mov	DWORD PTR [eax], ecx

; 75   : 			}

	mov	eax, DWORD PTR _this$[ebp]
	mov	esp, ebp
	pop	ebp
	ret	4
??0id@locale@std@@QAE@I@Z ENDP				; std::locale::id::id
_TEXT	ENDS
; Function compile flags: /Odtp
; File c:\users\zhitao li\documents\visual studio 2012\projects\freefalcon\ui\include\uicomms.h
;	COMDAT ?Online@UIComms@@QAEHXZ
_TEXT	SEGMENT
_this$ = -4						; size = 4
?Online@UIComms@@QAEHXZ PROC				; UIComms::Online, COMDAT
; _this$ = ecx

; 118  : 		BOOL Online()					{ return(Online_); }

	push	ebp
	mov	ebp, esp
	push	ecx
	mov	DWORD PTR _this$[ebp], ecx
	mov	eax, DWORD PTR _this$[ebp]
	mov	eax, DWORD PTR [eax+64]
	mov	esp, ebp
	pop	ebp
	ret	0
?Online@UIComms@@QAEHXZ ENDP				; UIComms::Online
_TEXT	ENDS
; Function compile flags: /Odtp
; File c:\users\zhitao li\documents\visual studio 2012\projects\freefalcon\sim\include\simbase.h
;	COMDAT ?GetCampaignObject@SimBaseClass@@QAEPAVCampBaseClass@@XZ
_TEXT	SEGMENT
_this$ = -4						; size = 4
?GetCampaignObject@SimBaseClass@@QAEPAVCampBaseClass@@XZ PROC ; SimBaseClass::GetCampaignObject, COMDAT
; _this$ = ecx

; 212  : 	CampBaseClass *GetCampaignObject (void) { return campaignObject.get(); }

	push	ebp
	mov	ebp, esp
	push	ecx
	mov	DWORD PTR _this$[ebp], ecx
	mov	ecx, DWORD PTR _this$[ebp]
	add	ecx, 144				; 00000090H
	call	?get@?$VuBin@VCampBaseClass@@@@QBEPAVCampBaseClass@@XZ ; VuBin<CampBaseClass>::get
	mov	esp, ebp
	pop	ebp
	ret	0
?GetCampaignObject@SimBaseClass@@QAEPAVCampBaseClass@@XZ ENDP ; SimBaseClass::GetCampaignObject
_TEXT	ENDS
; Function compile flags: /Odtp
; File c:\users\zhitao li\documents\visual studio 2012\projects\freefalcon\sim\include\simbase.h
;	COMDAT ?GetSlot@SimBaseClass@@QAEHXZ
_TEXT	SEGMENT
_this$ = -4						; size = 4
?GetSlot@SimBaseClass@@QAEHXZ PROC			; SimBaseClass::GetSlot, COMDAT
; _this$ = ecx

; 155  : 	int GetSlot () { return slotNumber;};

	push	ebp
	mov	ebp, esp
	push	ecx
	mov	DWORD PTR _this$[ebp], ecx
	mov	eax, DWORD PTR _this$[ebp]
	mov	eax, DWORD PTR [eax+236]
	mov	esp, ebp
	pop	ebp
	ret	0
?GetSlot@SimBaseClass@@QAEHXZ ENDP			; SimBaseClass::GetSlot
_TEXT	ENDS
; Function compile flags: /Odtp
; File c:\users\zhitao li\documents\visual studio 2012\projects\freefalcon\falclib\include\falcsess.h
;	COMDAT ?SetRating@FalconSessionEntity@@QAEXE@Z
_TEXT	SEGMENT
_this$ = -4						; size = 4
_newrat$ = 8						; size = 1
?SetRating@FalconSessionEntity@@QAEXE@Z PROC		; FalconSessionEntity::SetRating, COMDAT
; _this$ = ecx

; 185  : 	void SetRating(uchar newrat)		{ rating = newrat; }

	push	ebp
	mov	ebp, esp
	push	ecx
	mov	DWORD PTR _this$[ebp], ecx
	mov	eax, DWORD PTR _this$[ebp]
	mov	cl, BYTE PTR _newrat$[ebp]
	mov	BYTE PTR [eax+521], cl
	mov	esp, ebp
	pop	ebp
	ret	4
?SetRating@FalconSessionEntity@@QAEXE@Z ENDP		; FalconSessionEntity::SetRating
_TEXT	ENDS
; Function compile flags: /Odtp
; File c:\users\zhitao li\documents\visual studio 2012\projects\freefalcon\falclib\include\falcsess.h
;	COMDAT ?SetMissions@FalconSessionEntity@@QAEXG@Z
_TEXT	SEGMENT
_this$ = -4						; size = 4
_count$ = 8						; size = 2
?SetMissions@FalconSessionEntity@@QAEXG@Z PROC		; FalconSessionEntity::SetMissions, COMDAT
; _this$ = ecx

; 184  : 	void SetMissions(ushort count)		{ missions = count; }

	push	ebp
	mov	ebp, esp
	push	ecx
	mov	DWORD PTR _this$[ebp], ecx
	mov	eax, DWORD PTR _this$[ebp]
	mov	cx, WORD PTR _count$[ebp]
	mov	WORD PTR [eax+508], cx
	mov	esp, ebp
	pop	ebp
	ret	4
?SetMissions@FalconSessionEntity@@QAEXG@Z ENDP		; FalconSessionEntity::SetMissions
_TEXT	ENDS
; Function compile flags: /Odtp
; File c:\users\zhitao li\documents\visual studio 2012\projects\freefalcon\falclib\include\falcsess.h
;	COMDAT ?SetKill@FalconSessionEntity@@QAEXGG@Z
_TEXT	SEGMENT
_this$ = -4						; size = 4
_CAT$ = 8						; size = 2
_kill$ = 12						; size = 2
?SetKill@FalconSessionEntity@@QAEXGG@Z PROC		; FalconSessionEntity::SetKill, COMDAT
; _this$ = ecx

; 183  : 	void SetKill(ushort CAT,ushort kill){ if(CAT < _KILL_CATS_) kills[CAT]=kill; }

	push	ebp
	mov	ebp, esp
	push	ecx
	mov	DWORD PTR _this$[ebp], ecx
	movzx	eax, WORD PTR _CAT$[ebp]
	cmp	eax, 4
	jge	SHORT $LN2@SetKill
	movzx	ecx, WORD PTR _CAT$[ebp]
	mov	edx, DWORD PTR _this$[ebp]
	mov	ax, WORD PTR _kill$[ebp]
	mov	WORD PTR [edx+ecx*2+500], ax
$LN2@SetKill:
	mov	esp, ebp
	pop	ebp
	ret	8
?SetKill@FalconSessionEntity@@QAEXGG@Z ENDP		; FalconSessionEntity::SetKill
_TEXT	ENDS
; Function compile flags: /Odtp
; File c:\users\zhitao li\documents\visual studio 2012\projects\freefalcon\falclib\include\falcsess.h
;	COMDAT ?GetGame@FalconSessionEntity@@QAEPAVFalconGameEntity@@XZ
_TEXT	SEGMENT
_this$ = -4						; size = 4
?GetGame@FalconSessionEntity@@QAEPAVFalconGameEntity@@XZ PROC ; FalconSessionEntity::GetGame, COMDAT
; _this$ = ecx

; 154  : 	FalconGameEntity* GetGame (void)              { return (FalconGameEntity*)VuSessionEntity::Game(); }

	push	ebp
	mov	ebp, esp
	push	ecx
	mov	DWORD PTR _this$[ebp], ecx
	mov	ecx, DWORD PTR _this$[ebp]
	call	?Game@VuSessionEntity@@QAEPAVVuGameEntity@@XZ ; VuSessionEntity::Game
	mov	esp, ebp
	pop	ebp
	ret	0
?GetGame@FalconSessionEntity@@QAEPAVFalconGameEntity@@XZ ENDP ; FalconSessionEntity::GetGame
_TEXT	ENDS
; Function compile flags: /Odtp
; File c:\users\zhitao li\documents\visual studio 2012\projects\freefalcon\falclib\include\falcsess.h
;	COMDAT ?GetRating@FalconSessionEntity@@QBEEXZ
_TEXT	SEGMENT
_this$ = -4						; size = 4
?GetRating@FalconSessionEntity@@QBEEXZ PROC		; FalconSessionEntity::GetRating, COMDAT
; _this$ = ecx

; 152  : 	uchar GetRating() const                       { return rating; }

	push	ebp
	mov	ebp, esp
	push	ecx
	mov	DWORD PTR _this$[ebp], ecx
	mov	eax, DWORD PTR _this$[ebp]
	mov	al, BYTE PTR [eax+521]
	mov	esp, ebp
	pop	ebp
	ret	0
?GetRating@FalconSessionEntity@@QBEEXZ ENDP		; FalconSessionEntity::GetRating
_TEXT	ENDS
; Function compile flags: /Odtp
; File c:\users\zhitao li\documents\visual studio 2012\projects\freefalcon\falclib\include\falcsess.h
;	COMDAT ?GetMissions@FalconSessionEntity@@QBEGXZ
_TEXT	SEGMENT
_this$ = -4						; size = 4
?GetMissions@FalconSessionEntity@@QBEGXZ PROC		; FalconSessionEntity::GetMissions, COMDAT
; _this$ = ecx

; 151  : 	ushort GetMissions() const                    { return missions; }

	push	ebp
	mov	ebp, esp
	push	ecx
	mov	DWORD PTR _this$[ebp], ecx
	mov	eax, DWORD PTR _this$[ebp]
	mov	ax, WORD PTR [eax+508]
	mov	esp, ebp
	pop	ebp
	ret	0
?GetMissions@FalconSessionEntity@@QBEGXZ ENDP		; FalconSessionEntity::GetMissions
_TEXT	ENDS
; Function compile flags: /Odtp
; File c:\users\zhitao li\documents\visual studio 2012\projects\freefalcon\falclib\include\falcsess.h
;	COMDAT ?GetKill@FalconSessionEntity@@QBEGG@Z
_TEXT	SEGMENT
_this$ = -4						; size = 4
_CAT$ = 8						; size = 2
?GetKill@FalconSessionEntity@@QBEGG@Z PROC		; FalconSessionEntity::GetKill, COMDAT
; _this$ = ecx

; 150  : 	ushort GetKill(ushort CAT) const              { if(CAT < _KILL_CATS_) return(kills[CAT]); return(0); }

	push	ebp
	mov	ebp, esp
	push	ecx
	mov	DWORD PTR _this$[ebp], ecx
	movzx	eax, WORD PTR _CAT$[ebp]
	cmp	eax, 4
	jge	SHORT $LN1@GetKill
	movzx	ecx, WORD PTR _CAT$[ebp]
	mov	edx, DWORD PTR _this$[ebp]
	mov	ax, WORD PTR [edx+ecx*2+500]
	jmp	SHORT $LN2@GetKill
$LN1@GetKill:
	xor	eax, eax
$LN2@GetKill:
	mov	esp, ebp
	pop	ebp
	ret	4
?GetKill@FalconSessionEntity@@QBEGG@Z ENDP		; FalconSessionEntity::GetKill
_TEXT	ENDS
; Function compile flags: /Odtp
; File c:\users\zhitao li\documents\visual studio 2012\projects\freefalcon\falclib\include\falcsess.h
;	COMDAT ?GetPilotSlot@FalconSessionEntity@@QBEEXZ
_TEXT	SEGMENT
_this$ = -4						; size = 4
?GetPilotSlot@FalconSessionEntity@@QBEEXZ PROC		; FalconSessionEntity::GetPilotSlot, COMDAT
; _this$ = ecx

; 146  : 	uchar GetPilotSlot (void) const               { return pilotSlot; }

	push	ebp
	mov	ebp, esp
	push	ecx
	mov	DWORD PTR _this$[ebp], ecx
	mov	eax, DWORD PTR _this$[ebp]
	mov	al, BYTE PTR [eax+512]
	mov	esp, ebp
	pop	ebp
	ret	0
?GetPilotSlot@FalconSessionEntity@@QBEEXZ ENDP		; FalconSessionEntity::GetPilotSlot
_TEXT	ENDS
; Function compile flags: /Odtp
; File c:\users\zhitao li\documents\visual studio 2012\projects\freefalcon\falclib\include\falcsess.h
;	COMDAT ?GetAircraftNum@FalconSessionEntity@@QBEEXZ
_TEXT	SEGMENT
_this$ = -4						; size = 4
?GetAircraftNum@FalconSessionEntity@@QBEEXZ PROC	; FalconSessionEntity::GetAircraftNum, COMDAT
; _this$ = ecx

; 145  : 	uchar GetAircraftNum (void) const             { return aircraftNum; }

	push	ebp
	mov	ebp, esp
	push	ecx
	mov	DWORD PTR _this$[ebp], ecx
	mov	eax, DWORD PTR _this$[ebp]
	mov	al, BYTE PTR [eax+511]
	mov	esp, ebp
	pop	ebp
	ret	0
?GetAircraftNum@FalconSessionEntity@@QBEEXZ ENDP	; FalconSessionEntity::GetAircraftNum
_TEXT	ENDS
; Function compile flags: /Odtp
; File c:\users\zhitao li\documents\visual studio 2012\projects\freefalcon\falclib\include\falcsess.h
;	COMDAT ?GetInitAceFactor@FalconSessionEntity@@QBEMXZ
_TEXT	SEGMENT
tv68 = -8						; size = 4
_this$ = -4						; size = 4
?GetInitAceFactor@FalconSessionEntity@@QBEMXZ PROC	; FalconSessionEntity::GetInitAceFactor, COMDAT
; _this$ = ecx

; 142  : 	float GetInitAceFactor() const                { return(initAceFactor); }

	push	ebp
	mov	ebp, esp
	sub	esp, 8
	mov	DWORD PTR _this$[ebp], ecx
	mov	eax, DWORD PTR _this$[ebp]
	movss	xmm0, DWORD PTR [eax+492]
	movss	DWORD PTR tv68[ebp], xmm0
	fld	DWORD PTR tv68[ebp]
	mov	esp, ebp
	pop	ebp
	ret	0
?GetInitAceFactor@FalconSessionEntity@@QBEMXZ ENDP	; FalconSessionEntity::GetInitAceFactor
_TEXT	ENDS
; Function compile flags: /Odtp
; File c:\users\zhitao li\documents\visual studio 2012\projects\freefalcon\falclib\include\falcsess.h
;	COMDAT ?GetAceFactor@FalconSessionEntity@@QBEMXZ
_TEXT	SEGMENT
tv68 = -8						; size = 4
_this$ = -4						; size = 4
?GetAceFactor@FalconSessionEntity@@QBEMXZ PROC		; FalconSessionEntity::GetAceFactor, COMDAT
; _this$ = ecx

; 141  : 	float GetAceFactor() const                    { return(AceFactor); }

	push	ebp
	mov	ebp, esp
	sub	esp, 8
	mov	DWORD PTR _this$[ebp], ecx
	mov	eax, DWORD PTR _this$[ebp]
	movss	xmm0, DWORD PTR [eax+488]
	movss	DWORD PTR tv68[ebp], xmm0
	fld	DWORD PTR tv68[ebp]
	mov	esp, ebp
	pop	ebp
	ret	0
?GetAceFactor@FalconSessionEntity@@QBEMXZ ENDP		; FalconSessionEntity::GetAceFactor
_TEXT	ENDS
; Function compile flags: /Odtp
; File c:\users\zhitao li\documents\visual studio 2012\projects\freefalcon\falclib\include\falcsess.h
;	COMDAT ?GetPlayerFlight@FalconSessionEntity@@QBEPAVFlightClass@@XZ
_TEXT	SEGMENT
_this$ = -4						; size = 4
?GetPlayerFlight@FalconSessionEntity@@QBEPAVFlightClass@@XZ PROC ; FalconSessionEntity::GetPlayerFlight, COMDAT
; _this$ = ecx

; 139  : 	FlightClass* GetPlayerFlight(void) const      { return playerFlightPtr.get(); }

	push	ebp
	mov	ebp, esp
	push	ecx
	mov	DWORD PTR _this$[ebp], ecx
	mov	ecx, DWORD PTR _this$[ebp]
	add	ecx, 480				; 000001e0H
	call	?get@?$VuBin@VFlightClass@@@@QBEPAVFlightClass@@XZ ; VuBin<FlightClass>::get
	mov	esp, ebp
	pop	ebp
	ret	0
?GetPlayerFlight@FalconSessionEntity@@QBEPAVFlightClass@@XZ ENDP ; FalconSessionEntity::GetPlayerFlight
_TEXT	ENDS
; Function compile flags: /Odtp
; File c:\users\zhitao li\documents\visual studio 2012\projects\freefalcon\falclib\include\falcsess.h
;	COMDAT ?GetPlayerFlightID@FalconSessionEntity@@QBE?AVVU_ID@@XZ
_TEXT	SEGMENT
_this$ = -4						; size = 4
___$ReturnUdt$ = 8					; size = 4
?GetPlayerFlightID@FalconSessionEntity@@QBE?AVVU_ID@@XZ PROC ; FalconSessionEntity::GetPlayerFlightID, COMDAT
; _this$ = ecx

; 134  : 	VU_ID GetPlayerFlightID(void) const           { return playerFlight; }

	push	ebp
	mov	ebp, esp
	push	ecx
	mov	DWORD PTR _this$[ebp], ecx
	mov	eax, DWORD PTR _this$[ebp]
	mov	ecx, DWORD PTR [eax+460]
	mov	edx, DWORD PTR [eax+464]
	mov	eax, DWORD PTR ___$ReturnUdt$[ebp]
	mov	DWORD PTR [eax], ecx
	mov	DWORD PTR [eax+4], edx
	mov	eax, DWORD PTR ___$ReturnUdt$[ebp]
	mov	esp, ebp
	pop	ebp
	ret	4
?GetPlayerFlightID@FalconSessionEntity@@QBE?AVVU_ID@@XZ ENDP ; FalconSessionEntity::GetPlayerFlightID
_TEXT	ENDS
; Function compile flags: /Odtp
; File c:\users\zhitao li\documents\visual studio 2012\projects\freefalcon\falclib\include\falcsess.h
;	COMDAT ?GetPlayerCallsign@FalconSessionEntity@@QAEPADXZ
_TEXT	SEGMENT
_this$ = -4						; size = 4
?GetPlayerCallsign@FalconSessionEntity@@QAEPADXZ PROC	; FalconSessionEntity::GetPlayerCallsign, COMDAT
; _this$ = ecx

; 132  : 	_TCHAR* GetPlayerCallsign(void)               { return callSign; }

	push	ebp
	mov	ebp, esp
	push	ecx
	mov	DWORD PTR _this$[ebp], ecx
	mov	eax, DWORD PTR _this$[ebp]
	add	eax, 437				; 000001b5H
	mov	esp, ebp
	pop	ebp
	ret	0
?GetPlayerCallsign@FalconSessionEntity@@QAEPADXZ ENDP	; FalconSessionEntity::GetPlayerCallsign
_TEXT	ENDS
; Function compile flags: /Odtp
; File c:\users\zhitao li\documents\visual studio 2012\projects\freefalcon\falclib\include\falcsess.h
;	COMDAT ?GetPlayerName@FalconSessionEntity@@QAEPADXZ
_TEXT	SEGMENT
_this$ = -4						; size = 4
?GetPlayerName@FalconSessionEntity@@QAEPADXZ PROC	; FalconSessionEntity::GetPlayerName, COMDAT
; _this$ = ecx

; 131  : 	_TCHAR* GetPlayerName(void)                   { return name; }

	push	ebp
	mov	ebp, esp
	push	ecx
	mov	DWORD PTR _this$[ebp], ecx
	mov	eax, DWORD PTR _this$[ebp]
	add	eax, 416				; 000001a0H
	mov	esp, ebp
	pop	ebp
	ret	0
?GetPlayerName@FalconSessionEntity@@QAEPADXZ ENDP	; FalconSessionEntity::GetPlayerName
_TEXT	ENDS
; Function compile flags: /Odtp
; File c:\users\zhitao li\documents\visual studio 2012\projects\freefalcon\vu2\include\vu_templates.h
;	COMDAT ?get@?$VuBin@VFlightClass@@@@QBEPAVFlightClass@@XZ
_TEXT	SEGMENT
_this$ = -4						; size = 4
?get@?$VuBin@VFlightClass@@@@QBEPAVFlightClass@@XZ PROC	; VuBin<FlightClass>::get, COMDAT
; _this$ = ecx

; 55   : 	E *get() const{

	push	ebp
	mov	ebp, esp
	push	ecx
	mov	DWORD PTR _this$[ebp], ecx

; 56   : 		return e;

	mov	eax, DWORD PTR _this$[ebp]
	mov	eax, DWORD PTR [eax]

; 57   : 	}

	mov	esp, ebp
	pop	ebp
	ret	0
?get@?$VuBin@VFlightClass@@@@QBEPAVFlightClass@@XZ ENDP	; VuBin<FlightClass>::get
_TEXT	ENDS
; Function compile flags: /Odtp
; File c:\users\zhitao li\documents\visual studio 2012\projects\freefalcon\ui\include\logbook.h
;	COMDAT ?SetAceFactor@LogBookData@@QAEXM@Z
_TEXT	SEGMENT
_this$ = -4						; size = 4
_Factor$ = 8						; size = 4
?SetAceFactor@LogBookData@@QAEXM@Z PROC			; LogBookData::SetAceFactor, COMDAT
; _this$ = ecx

; 188  : 	void	SetAceFactor(float Factor)				{Pilot.AceFactor = Factor;SaveData();}

	push	ebp
	mov	ebp, esp
	push	ecx
	mov	DWORD PTR _this$[ebp], ecx
	mov	eax, DWORD PTR _this$[ebp]
	movss	xmm0, DWORD PTR _Factor$[ebp]
	movss	DWORD PTR [eax+76], xmm0
	mov	ecx, DWORD PTR _this$[ebp]
	call	?SaveData@LogBookData@@QAEHXZ		; LogBookData::SaveData
	mov	esp, ebp
	pop	ebp
	ret	4
?SetAceFactor@LogBookData@@QAEXM@Z ENDP			; LogBookData::SetAceFactor
_TEXT	ENDS
; Function compile flags: /Odtp
; File c:\users\zhitao li\documents\visual studio 2012\projects\freefalcon\ui\include\logbook.h
;	COMDAT ?UpdateFlightHours@LogBookData@@QAEXM@Z
_TEXT	SEGMENT
_this$ = -4						; size = 4
_Hours$ = 8						; size = 4
?UpdateFlightHours@LogBookData@@QAEXM@Z PROC		; LogBookData::UpdateFlightHours, COMDAT
; _this$ = ecx

; 155  : 	void	UpdateFlightHours(float Hours)			{Pilot.FlightHours += Hours;}

	push	ebp
	mov	ebp, esp
	push	ecx
	mov	DWORD PTR _this$[ebp], ecx
	mov	eax, DWORD PTR _this$[ebp]
	movss	xmm0, DWORD PTR [eax+72]
	addss	xmm0, DWORD PTR _Hours$[ebp]
	mov	ecx, DWORD PTR _this$[ebp]
	movss	DWORD PTR [ecx+72], xmm0
	mov	esp, ebp
	pop	ebp
	ret	4
?UpdateFlightHours@LogBookData@@QAEXM@Z ENDP		; LogBookData::UpdateFlightHours
_TEXT	ENDS
; Function compile flags: /Odtp
; File c:\users\zhitao li\documents\visual studio 2012\projects\freefalcon\campaign\campui\misseval.cpp
_TEXT	SEGMENT
_flit$2 = -108						; size = 12
tv234 = -96						; size = 4
$T3 = -92						; size = 4
tv160 = -88						; size = 4
$T4 = -84						; size = 4
_pilot_data$5 = -80					; size = 4
_session$6 = -76					; size = 4
$T7 = -72						; size = 4
_tmp_pilot$8 = -68					; size = 4
$T9 = -64						; size = 4
tv90 = -60						; size = 4
tv76 = -56						; size = 4
_last_ptr$10 = -52					; size = 4
_last_pilot$11 = -48					; size = 4
_tmp_ptr$12 = -44					; size = 4
_kill$13 = -40						; size = 4
_uelement$14 = -36					; size = 4
_i$15 = -32						; size = 4
_flight$16 = -28					; size = 4
_this$ = -24						; size = 4
_pilot_data$17 = -20					; size = 4
_flight_ptr$18 = -16					; size = 4
__$EHRec$ = -12						; size = 12
?RebuildEvaluationData@MissionEvaluationClass@@QAEXXZ PROC ; MissionEvaluationClass::RebuildEvaluationData
; _this$ = ecx

; 3949 : {

	push	ebp
	mov	ebp, esp
	push	-1
	push	__ehhandler$?RebuildEvaluationData@MissionEvaluationClass@@QAEXXZ
	mov	eax, DWORD PTR fs:0
	push	eax
	sub	esp, 96					; 00000060H
	mov	eax, DWORD PTR ___security_cookie
	xor	eax, ebp
	push	eax
	lea	eax, DWORD PTR __$EHRec$[ebp]
	mov	DWORD PTR fs:0, eax
	mov	DWORD PTR _this$[ebp], ecx

; 3950 : 	// KCK: This function will traverse all our data structures, throwing out any which 
; 3951 : 	// we don't need anymore and adding any new ones which have popped up
; 3952 : 
; 3953 : 	// NOTE: Dogfight only
; 3954 : 	if (!FalconLocalGame || FalconLocalGame->GetGameType() != game_Dogfight){

	mov	ecx, OFFSET ?vuLocalSessionEntity@@3V?$VuBin@VVuSessionEntity@@@@A ; vuLocalSessionEntity
	call	??B?$VuBin@VVuSessionEntity@@@@QBE_NXZ	; VuBin<VuSessionEntity>::operator bool
	movzx	eax, al
	test	eax, eax
	je	SHORT $LN38@RebuildEva
	mov	ecx, OFFSET ?vuLocalSessionEntity@@3V?$VuBin@VVuSessionEntity@@@@A ; vuLocalSessionEntity
	call	?get@?$VuBin@VVuSessionEntity@@@@QBEPAVVuSessionEntity@@XZ ; VuBin<VuSessionEntity>::get
	mov	ecx, eax
	call	?GetGame@FalconSessionEntity@@QAEPAVFalconGameEntity@@XZ ; FalconSessionEntity::GetGame
	mov	DWORD PTR tv76[ebp], eax
	jmp	SHORT $LN39@RebuildEva
$LN38@RebuildEva:
	mov	DWORD PTR tv76[ebp], 0
$LN39@RebuildEva:
	cmp	DWORD PTR tv76[ebp], 0
	je	SHORT $LN34@RebuildEva
	mov	ecx, OFFSET ?vuLocalSessionEntity@@3V?$VuBin@VVuSessionEntity@@@@A ; vuLocalSessionEntity
	call	??B?$VuBin@VVuSessionEntity@@@@QBE_NXZ	; VuBin<VuSessionEntity>::operator bool
	movzx	ecx, al
	test	ecx, ecx
	je	SHORT $LN40@RebuildEva
	mov	ecx, OFFSET ?vuLocalSessionEntity@@3V?$VuBin@VVuSessionEntity@@@@A ; vuLocalSessionEntity
	call	?get@?$VuBin@VVuSessionEntity@@@@QBEPAVVuSessionEntity@@XZ ; VuBin<VuSessionEntity>::get
	mov	ecx, eax
	call	?GetGame@FalconSessionEntity@@QAEPAVFalconGameEntity@@XZ ; FalconSessionEntity::GetGame
	mov	DWORD PTR tv90[ebp], eax
	jmp	SHORT $LN41@RebuildEva
$LN40@RebuildEva:
	mov	DWORD PTR tv90[ebp], 0
$LN41@RebuildEva:
	mov	ecx, DWORD PTR tv90[ebp]
	call	?GetGameType@FalconGameEntity@@QAE?AW4FalconGameType@@XZ ; FalconGameEntity::GetGameType
	cmp	eax, 2
	je	SHORT $LN35@RebuildEva
$LN34@RebuildEva:

; 3955 : 		return;

	jmp	$LN36@RebuildEva

; 3956 : 	}
; 3957 : 	else {

	jmp	$LN36@RebuildEva
$LN35@RebuildEva:

; 3958 : 		Unit				uelement;
; 3959 : 		FlightDataClass		*flight_ptr,*last_ptr=NULL,*tmp_ptr;

	mov	DWORD PTR _last_ptr$10[ebp], 0

; 3960 : 		PilotDataClass		*pilot_data,*last_pilot,*tmp_pilot;
; 3961 : 		Flight				flight;
; 3962 : 		int					i,kill;
; 3963 : 		static int			evalCount=0;
; 3964 : 		FalconSessionEntity	*session;
; 3965 : 
; 3966 : 		ShiAssert(flight_data == NULL || FALSE == F4IsBadReadPtr(flight_data, sizeof *flight_data));
; 3967 : 		// sfr @todo remove JB check
; 3968 : 		if (flight_data && F4IsBadReadPtr(flight_data, sizeof(FlightDataClass))) // JB 010305 CTD

	mov	edx, DWORD PTR _this$[ebp]
	cmp	DWORD PTR [edx+204], 0
	je	SHORT $LN32@RebuildEva
	push	168					; 000000a8H
	mov	eax, DWORD PTR _this$[ebp]
	mov	ecx, DWORD PTR [eax+204]
	push	ecx
	call	?F4IsBadReadPtr@@YA_NPBXI@Z		; F4IsBadReadPtr
	add	esp, 8
	movzx	edx, al
	test	edx, edx
	je	SHORT $LN32@RebuildEva

; 3969 : 			return;

	jmp	$LN36@RebuildEva
$LN32@RebuildEva:

; 3970 : 
; 3971 : 		CampEnterCriticalSection();

	call	?CampEnterCriticalSection@@YAXXZ	; CampEnterCriticalSection

; 3972 : 
; 3973 : 		// Traverse all our lists and remove anything we don't have references to anymore
; 3974 : 		flight_ptr = flight_data;

	mov	eax, DWORD PTR _this$[ebp]
	mov	ecx, DWORD PTR [eax+204]
	mov	DWORD PTR _flight_ptr$18[ebp], ecx
$LN31@RebuildEva:

; 3975 : 		while (flight_ptr)

	cmp	DWORD PTR _flight_ptr$18[ebp], 0
	je	$LN30@RebuildEva

; 3976 : 			{
; 3977 : 			flight = (Flight)FindUnit(flight_ptr->flight_id);

	mov	edx, DWORD PTR _flight_ptr$18[ebp]
	mov	eax, DWORD PTR [edx+44]
	push	eax
	mov	ecx, DWORD PTR [edx+40]
	push	ecx
	call	?FindUnit@@YAPAVUnitClass@@VVU_ID@@@Z	; FindUnit
	add	esp, 8
	mov	DWORD PTR _flight$16[ebp], eax

; 3978 : 			if (!flight)

	cmp	DWORD PTR _flight$16[ebp], 0
	jne	$LN29@RebuildEva

; 3979 : 				{
; 3980 : 				if (last_ptr)

	cmp	DWORD PTR _last_ptr$10[ebp], 0
	je	SHORT $LN28@RebuildEva

; 3981 : 					last_ptr->next_flight = flight_ptr->next_flight;

	mov	edx, DWORD PTR _last_ptr$10[ebp]
	mov	eax, DWORD PTR _flight_ptr$18[ebp]
	mov	ecx, DWORD PTR [eax+164]
	mov	DWORD PTR [edx+164], ecx

; 3982 : 				else

	jmp	SHORT $LN27@RebuildEva
$LN28@RebuildEva:

; 3983 : 					flight_data = flight_ptr->next_flight;

	mov	edx, DWORD PTR _this$[ebp]
	mov	eax, DWORD PTR _flight_ptr$18[ebp]
	mov	ecx, DWORD PTR [eax+164]
	mov	DWORD PTR [edx+204], ecx
$LN27@RebuildEva:

; 3984 : 				tmp_ptr = flight_ptr;

	mov	edx, DWORD PTR _flight_ptr$18[ebp]
	mov	DWORD PTR _tmp_ptr$12[ebp], edx

; 3985 : 				if (player_element == tmp_ptr)

	mov	eax, DWORD PTR _this$[ebp]
	mov	ecx, DWORD PTR [eax+12]
	cmp	ecx, DWORD PTR _tmp_ptr$12[ebp]
	jne	SHORT $LN26@RebuildEva

; 3986 : 					player_element = NULL;

	mov	edx, DWORD PTR _this$[ebp]
	mov	DWORD PTR [edx+12], 0
$LN26@RebuildEva:

; 3987 : 				if (package_element == tmp_ptr)

	mov	eax, DWORD PTR _this$[ebp]
	mov	ecx, DWORD PTR [eax+8]
	cmp	ecx, DWORD PTR _tmp_ptr$12[ebp]
	jne	SHORT $LN25@RebuildEva

; 3988 : 					package_element = NULL;

	mov	edx, DWORD PTR _this$[ebp]
	mov	DWORD PTR [edx+8], 0
$LN25@RebuildEva:

; 3989 : 				flight_ptr = flight_ptr->next_flight;

	mov	eax, DWORD PTR _flight_ptr$18[ebp]
	mov	ecx, DWORD PTR [eax+164]
	mov	DWORD PTR _flight_ptr$18[ebp], ecx

; 3990 : 				delete tmp_ptr;

	mov	edx, DWORD PTR _tmp_ptr$12[ebp]
	mov	DWORD PTR $T4[ebp], edx
	mov	eax, DWORD PTR $T4[ebp]
	mov	DWORD PTR $T9[ebp], eax
	cmp	DWORD PTR $T9[ebp], 0
	je	SHORT $LN42@RebuildEva
	push	1
	mov	ecx, DWORD PTR $T9[ebp]
	call	??_GFlightDataClass@@QAEPAXI@Z
	mov	DWORD PTR tv160[ebp], eax
	jmp	SHORT $LN43@RebuildEva
$LN42@RebuildEva:
	mov	DWORD PTR tv160[ebp], 0
$LN43@RebuildEva:

; 3991 : 				}
; 3992 : 			else

	jmp	$LN24@RebuildEva
$LN29@RebuildEva:

; 3993 : 				{
; 3994 : 				// Check for team change
; 3995 : 				flight_ptr->flight_team = flight->GetTeam();

	mov	ecx, DWORD PTR _flight$16[ebp]
	mov	edx, DWORD PTR [ecx]
	mov	ecx, DWORD PTR _flight$16[ebp]
	mov	eax, DWORD PTR [edx+116]
	call	eax
	mov	ecx, DWORD PTR _flight_ptr$18[ebp]
	mov	BYTE PTR [ecx+60], al

; 3996 : 				// Check pilots
; 3997 : 				last_pilot = NULL;

	mov	DWORD PTR _last_pilot$11[ebp], 0

; 3998 : 				pilot_data = flight_ptr->pilot_list;

	mov	edx, DWORD PTR _flight_ptr$18[ebp]
	mov	eax, DWORD PTR [edx+152]
	mov	DWORD PTR _pilot_data$17[ebp], eax
$LN23@RebuildEva:

; 3999 : 				while (pilot_data)

	cmp	DWORD PTR _pilot_data$17[ebp], 0
	je	$LN22@RebuildEva

; 4000 : 					{
; 4001 : 					kill = 0;

	mov	DWORD PTR _kill$13[ebp], 0

; 4002 : 					if (flight->pilots[pilot_data->aircraft_slot] == NO_PILOT && flight->player_slots[pilot_data->aircraft_slot] == NO_PILOT)

	mov	ecx, DWORD PTR _pilot_data$17[ebp]
	movzx	edx, BYTE PTR [ecx+60]
	mov	eax, DWORD PTR _flight$16[ebp]
	movzx	ecx, BYTE PTR [eax+edx+412]
	cmp	ecx, 255				; 000000ffH
	jne	SHORT $LN21@RebuildEva
	mov	edx, DWORD PTR _pilot_data$17[ebp]
	movzx	eax, BYTE PTR [edx+60]
	mov	ecx, DWORD PTR _flight$16[ebp]
	movzx	edx, BYTE PTR [ecx+eax+420]
	cmp	edx, 255				; 000000ffH
	jne	SHORT $LN21@RebuildEva

; 4003 : 						kill++;		// Neither slot

	mov	eax, DWORD PTR _kill$13[ebp]
	add	eax, 1
	mov	DWORD PTR _kill$13[ebp], eax
	jmp	$LN20@RebuildEva
$LN21@RebuildEva:

; 4004 : 					else if (flight->pilots[pilot_data->aircraft_slot] != NO_PILOT && flight->player_slots[pilot_data->aircraft_slot] == NO_PILOT && pilot_data->pilot_slot != pilot_data->aircraft_slot)

	mov	ecx, DWORD PTR _pilot_data$17[ebp]
	movzx	edx, BYTE PTR [ecx+60]
	mov	eax, DWORD PTR _flight$16[ebp]
	movzx	ecx, BYTE PTR [eax+edx+412]
	cmp	ecx, 255				; 000000ffH
	je	SHORT $LN19@RebuildEva
	mov	edx, DWORD PTR _pilot_data$17[ebp]
	movzx	eax, BYTE PTR [edx+60]
	mov	ecx, DWORD PTR _flight$16[ebp]
	movzx	edx, BYTE PTR [ecx+eax+420]
	cmp	edx, 255				; 000000ffH
	jne	SHORT $LN19@RebuildEva
	mov	eax, DWORD PTR _pilot_data$17[ebp]
	movzx	ecx, BYTE PTR [eax+61]
	mov	edx, DWORD PTR _pilot_data$17[ebp]
	movzx	eax, BYTE PTR [edx+60]
	cmp	ecx, eax
	je	SHORT $LN19@RebuildEva

; 4005 : 						kill++;		// Player in AI slot

	mov	ecx, DWORD PTR _kill$13[ebp]
	add	ecx, 1
	mov	DWORD PTR _kill$13[ebp], ecx
	jmp	SHORT $LN20@RebuildEva
$LN19@RebuildEva:

; 4006 : 					else if (flight->player_slots[pilot_data->aircraft_slot] != NO_PILOT && pilot_data->pilot_slot == pilot_data->aircraft_slot)

	mov	edx, DWORD PTR _pilot_data$17[ebp]
	movzx	eax, BYTE PTR [edx+60]
	mov	ecx, DWORD PTR _flight$16[ebp]
	movzx	edx, BYTE PTR [ecx+eax+420]
	cmp	edx, 255				; 000000ffH
	je	SHORT $LN20@RebuildEva
	mov	eax, DWORD PTR _pilot_data$17[ebp]
	movzx	ecx, BYTE PTR [eax+61]
	mov	edx, DWORD PTR _pilot_data$17[ebp]
	movzx	eax, BYTE PTR [edx+60]
	cmp	ecx, eax
	jne	SHORT $LN20@RebuildEva

; 4007 : 						kill++;		// AI in player slot

	mov	ecx, DWORD PTR _kill$13[ebp]
	add	ecx, 1
	mov	DWORD PTR _kill$13[ebp], ecx
$LN20@RebuildEva:

; 4008 : 					if (kill)

	cmp	DWORD PTR _kill$13[ebp], 0
	je	SHORT $LN16@RebuildEva

; 4009 : 						{
; 4010 : 						if (last_pilot)

	cmp	DWORD PTR _last_pilot$11[ebp], 0
	je	SHORT $LN15@RebuildEva

; 4011 : 							last_pilot->next_pilot = pilot_data->next_pilot;

	mov	edx, DWORD PTR _last_pilot$11[ebp]
	mov	eax, DWORD PTR _pilot_data$17[ebp]
	mov	ecx, DWORD PTR [eax+444]
	mov	DWORD PTR [edx+444], ecx

; 4012 : 						else

	jmp	SHORT $LN14@RebuildEva
$LN15@RebuildEva:

; 4013 : 							flight_ptr->pilot_list = pilot_data->next_pilot;

	mov	edx, DWORD PTR _flight_ptr$18[ebp]
	mov	eax, DWORD PTR _pilot_data$17[ebp]
	mov	ecx, DWORD PTR [eax+444]
	mov	DWORD PTR [edx+152], ecx
$LN14@RebuildEva:

; 4014 : 						tmp_pilot = pilot_data;

	mov	edx, DWORD PTR _pilot_data$17[ebp]
	mov	DWORD PTR _tmp_pilot$8[ebp], edx

; 4015 : 						if (player_pilot == tmp_pilot)

	mov	eax, DWORD PTR _this$[ebp]
	mov	ecx, DWORD PTR [eax+16]
	cmp	ecx, DWORD PTR _tmp_pilot$8[ebp]
	jne	SHORT $LN13@RebuildEva

; 4016 : 							{
; 4017 : #ifdef FUNKY_KEVIN_DEBUG_STUFF
; 4018 : 							ShiAssert(!inMission);
; 4019 : #endif
; 4020 : 							player_pilot = NULL;

	mov	edx, DWORD PTR _this$[ebp]
	mov	DWORD PTR [edx+16], 0
$LN13@RebuildEva:

; 4021 : 							}
; 4022 : 						pilot_data = pilot_data->next_pilot;

	mov	eax, DWORD PTR _pilot_data$17[ebp]
	mov	ecx, DWORD PTR [eax+444]
	mov	DWORD PTR _pilot_data$17[ebp], ecx

; 4023 : 						delete tmp_pilot;

	mov	edx, DWORD PTR _tmp_pilot$8[ebp]
	mov	DWORD PTR $T3[ebp], edx
	mov	eax, DWORD PTR $T3[ebp]
	mov	DWORD PTR $T7[ebp], eax
	cmp	DWORD PTR $T7[ebp], 0
	je	SHORT $LN44@RebuildEva
	push	1
	mov	ecx, DWORD PTR $T7[ebp]
	call	??_GPilotDataClass@@QAEPAXI@Z
	mov	DWORD PTR tv234[ebp], eax
	jmp	SHORT $LN45@RebuildEva
$LN44@RebuildEva:
	mov	DWORD PTR tv234[ebp], 0
$LN45@RebuildEva:

; 4024 : 						}
; 4025 : 					else

	jmp	SHORT $LN12@RebuildEva
$LN16@RebuildEva:

; 4026 : 						{
; 4027 : 						last_pilot = pilot_data;

	mov	ecx, DWORD PTR _pilot_data$17[ebp]
	mov	DWORD PTR _last_pilot$11[ebp], ecx

; 4028 : 						pilot_data = pilot_data->next_pilot;

	mov	edx, DWORD PTR _pilot_data$17[ebp]
	mov	eax, DWORD PTR [edx+444]
	mov	DWORD PTR _pilot_data$17[ebp], eax
$LN12@RebuildEva:

; 4029 : 						}
; 4030 : 					}

	jmp	$LN23@RebuildEva
$LN22@RebuildEva:

; 4031 : 				last_ptr = flight_ptr;

	mov	ecx, DWORD PTR _flight_ptr$18[ebp]
	mov	DWORD PTR _last_ptr$10[ebp], ecx

; 4032 : 				flight_ptr = flight_ptr->next_flight;

	mov	edx, DWORD PTR _flight_ptr$18[ebp]
	mov	eax, DWORD PTR [edx+164]
	mov	DWORD PTR _flight_ptr$18[ebp], eax
$LN24@RebuildEva:

; 4033 : 				}
; 4034 : 			}

	jmp	$LN31@RebuildEva
$LN30@RebuildEva:

; 4035 : 
; 4036 : 		// Now add any additional flights which matter
; 4037 : 		{
; 4038 : 			VuListIterator		flit(AllAirList);

	mov	ecx, DWORD PTR ?AllAirList@@3PAVVuLinkedList@@A ; AllAirList
	push	ecx
	lea	ecx, DWORD PTR _flit$2[ebp]
	call	??0VuListIterator@@QAE@PAVVuLinkedList@@@Z ; VuListIterator::VuListIterator
	mov	DWORD PTR __$EHRec$[ebp+8], 0

; 4039 : 			uelement = (Unit) flit.GetFirst();

	lea	ecx, DWORD PTR _flit$2[ebp]
	call	?GetFirst@VuListIterator@@QAEPAVVuEntity@@XZ ; VuListIterator::GetFirst
	mov	DWORD PTR _uelement$14[ebp], eax
$LN11@RebuildEva:

; 4040 : 			while (uelement){

	cmp	DWORD PTR _uelement$14[ebp], 0
	je	$LN10@RebuildEva

; 4041 : 				if (uelement->IsFlight()){

	mov	edx, DWORD PTR _uelement$14[ebp]
	mov	eax, DWORD PTR [edx]
	mov	ecx, DWORD PTR _uelement$14[ebp]
	mov	edx, DWORD PTR [eax+248]
	call	edx
	test	eax, eax
	je	$LN9@RebuildEva

; 4042 : 					flight = (FlightClass*)uelement;

	mov	eax, DWORD PTR _uelement$14[ebp]
	mov	DWORD PTR _flight$16[ebp], eax

; 4043 : 					flight_ptr = FindFlightData(flight);

	mov	ecx, DWORD PTR _flight$16[ebp]
	push	ecx
	mov	ecx, DWORD PTR _this$[ebp]
	call	?FindFlightData@MissionEvaluationClass@@QAEPAVFlightDataClass@@PAVFlightClass@@@Z ; MissionEvaluationClass::FindFlightData
	mov	DWORD PTR _flight_ptr$18[ebp], eax

; 4044 : 					if (flight_ptr){

	cmp	DWORD PTR _flight_ptr$18[ebp], 0
	je	$LN8@RebuildEva

; 4045 : 						// Already exists - just check for new players
; 4046 : 						for (i=0; i<PILOTS_PER_FLIGHT; i++){

	mov	DWORD PTR _i$15[ebp], 0
	jmp	SHORT $LN7@RebuildEva
$LN6@RebuildEva:
	mov	edx, DWORD PTR _i$15[ebp]
	add	edx, 1
	mov	DWORD PTR _i$15[ebp], edx
$LN7@RebuildEva:
	cmp	DWORD PTR _i$15[ebp], 4
	jge	$LN5@RebuildEva

; 4047 : 							if (flight->plane_stats[i] == AIRCRAFT_AVAILABLE && !FindPilotDataFromAC(flight_ptr,i))

	mov	eax, DWORD PTR _flight$16[ebp]
	add	eax, DWORD PTR _i$15[ebp]
	movzx	ecx, BYTE PTR [eax+416]
	cmp	ecx, 4
	jne	$LN4@RebuildEva
	mov	edx, DWORD PTR _i$15[ebp]
	push	edx
	mov	eax, DWORD PTR _flight_ptr$18[ebp]
	push	eax
	mov	ecx, DWORD PTR _this$[ebp]
	call	?FindPilotDataFromAC@MissionEvaluationClass@@QAEPAVPilotDataClass@@PAVFlightDataClass@@H@Z ; MissionEvaluationClass::FindPilotDataFromAC
	test	eax, eax
	jne	$LN4@RebuildEva

; 4048 : 							{
; 4049 : 								// Add this pilot
; 4050 : 								session = FindPlayer((Flight)uelement,i);

	movzx	ecx, BYTE PTR _i$15[ebp]
	push	ecx
	mov	edx, DWORD PTR _uelement$14[ebp]
	push	edx
	call	?FindPlayer@@YAPAVFalconSessionEntity@@PAVFlightClass@@E@Z ; FindPlayer
	add	esp, 8
	mov	DWORD PTR _session$6[ebp], eax

; 4051 : 								if (session)

	cmp	DWORD PTR _session$6[ebp], 0
	je	SHORT $LN3@RebuildEva

; 4052 : 									AddNewPlayerPilot(flight_ptr, i, (Flight)uelement, session);

	mov	eax, DWORD PTR _session$6[ebp]
	push	eax
	mov	ecx, DWORD PTR _uelement$14[ebp]
	push	ecx
	mov	edx, DWORD PTR _i$15[ebp]
	push	edx
	mov	eax, DWORD PTR _flight_ptr$18[ebp]
	push	eax
	mov	ecx, DWORD PTR _this$[ebp]
	call	?AddNewPlayerPilot@MissionEvaluationClass@@QAEPAVPilotDataClass@@PAVFlightDataClass@@HPAVFlightClass@@PAVFalconSessionEntity@@@Z ; MissionEvaluationClass::AddNewPlayerPilot

; 4053 : 								else

	jmp	SHORT $LN4@RebuildEva
$LN3@RebuildEva:

; 4054 : 								{
; 4055 : 									PilotDataClass	*pilot_data = AddNewPilot(flight_ptr, i, i, flight);

	mov	ecx, DWORD PTR _flight$16[ebp]
	push	ecx
	mov	edx, DWORD PTR _i$15[ebp]
	push	edx
	mov	eax, DWORD PTR _i$15[ebp]
	push	eax
	mov	ecx, DWORD PTR _flight_ptr$18[ebp]
	push	ecx
	mov	ecx, DWORD PTR _this$[ebp]
	call	?AddNewPilot@MissionEvaluationClass@@QAEPAVPilotDataClass@@PAVFlightDataClass@@HHPAVFlightClass@@@Z ; MissionEvaluationClass::AddNewPilot
	mov	DWORD PTR _pilot_data$5[ebp], eax

; 4056 : 									// AI Pilots named by callsign
; 4057 : 									_stprintf(pilot_data->pilot_name,"%s%d",flight_ptr->name,i+1);

	mov	edx, DWORD PTR _i$15[ebp]
	add	edx, 1
	push	edx
	mov	eax, DWORD PTR _flight_ptr$18[ebp]
	push	eax
	push	OFFSET ??_C@_04HGGBINEM@?$CFs?$CFd?$AA@
	mov	ecx, DWORD PTR _pilot_data$5[ebp]
	push	ecx
	call	_sprintf
	add	esp, 16					; 00000010H

; 4058 : 									_stprintf(pilot_data->pilot_callsign,"%s%d",flight_ptr->name,i+1);

	mov	edx, DWORD PTR _i$15[ebp]
	add	edx, 1
	push	edx
	mov	eax, DWORD PTR _flight_ptr$18[ebp]
	push	eax
	push	OFFSET ??_C@_04HGGBINEM@?$CFs?$CFd?$AA@
	mov	ecx, DWORD PTR _pilot_data$5[ebp]
	add	ecx, 30					; 0000001eH
	push	ecx
	call	_sprintf
	add	esp, 16					; 00000010H
$LN4@RebuildEva:

; 4059 : 								}
; 4060 : 							}
; 4061 : 						}

	jmp	$LN6@RebuildEva
$LN5@RebuildEva:

; 4062 : 					}
; 4063 : 					else

	jmp	SHORT $LN1@RebuildEva
$LN8@RebuildEva:

; 4064 : 					{
; 4065 : 						// Add the whole thing
; 4066 : 						PreEvalFlight(flight, NULL);

	push	0
	mov	edx, DWORD PTR _flight$16[ebp]
	push	edx
	mov	ecx, DWORD PTR _this$[ebp]
	call	?PreEvalFlight@MissionEvaluationClass@@QAEXPAVFlightClass@@0@Z ; MissionEvaluationClass::PreEvalFlight
$LN1@RebuildEva:

; 4067 : 					}
; 4068 : 					uelement->SetInPackage(1);

	push	1
	mov	ecx, DWORD PTR _uelement$14[ebp]
	call	?SetInPackage@CampBaseClass@@QAEXH@Z	; CampBaseClass::SetInPackage
$LN9@RebuildEva:

; 4069 : 				}
; 4070 : 				uelement = (Unit) flit.GetNext();

	lea	ecx, DWORD PTR _flit$2[ebp]
	call	?GetNext@VuListIterator@@QAEPAVVuEntity@@XZ ; VuListIterator::GetNext
	mov	DWORD PTR _uelement$14[ebp], eax

; 4071 : 			}

	jmp	$LN11@RebuildEva
$LN10@RebuildEva:

; 4072 : 		}

	mov	DWORD PTR __$EHRec$[ebp+8], -1
	lea	ecx, DWORD PTR _flit$2[ebp]
	call	??1VuListIterator@@UAE@XZ		; VuListIterator::~VuListIterator

; 4073 : 
; 4074 : //		evalCount++;
; 4075 : //		if (evalCount > 500 && !(SimDogfight.flags & DF_GAME_OVER))
; 4076 : //			{
; 4077 : //			// Periodically send any evaluation data we may have
; 4078 : //			SendAllEvalData();
; 4079 : //			}
; 4080 : 
; 4081 : 		CampLeaveCriticalSection();

	call	?CampLeaveCriticalSection@@YAXXZ	; CampLeaveCriticalSection
$LN36@RebuildEva:

; 4082 : 		}
; 4083 : 	}

	mov	ecx, DWORD PTR __$EHRec$[ebp]
	mov	DWORD PTR fs:0, ecx
	pop	ecx
	mov	esp, ebp
	pop	ebp
	ret	0
_TEXT	ENDS
text$x	SEGMENT
__unwindfunclet$?RebuildEvaluationData@MissionEvaluationClass@@QAEXXZ$0:
	lea	ecx, DWORD PTR _flit$2[ebp]
	jmp	??1VuListIterator@@UAE@XZ		; VuListIterator::~VuListIterator
__ehhandler$?RebuildEvaluationData@MissionEvaluationClass@@QAEXXZ:
	mov	edx, DWORD PTR [esp+8]
	lea	eax, DWORD PTR [edx+12]
	mov	ecx, DWORD PTR [edx-100]
	xor	ecx, eax
	call	@__security_check_cookie@4
	mov	eax, OFFSET __ehfuncinfo$?RebuildEvaluationData@MissionEvaluationClass@@QAEXXZ
	jmp	___CxxFrameHandler3
text$x	ENDS
?RebuildEvaluationData@MissionEvaluationClass@@QAEXXZ ENDP ; MissionEvaluationClass::RebuildEvaluationData
; Function compile flags: /Odtp
; File c:\users\zhitao li\documents\visual studio 2012\projects\freefalcon\campaign\campui\misseval.cpp
_TEXT	SEGMENT
_element$ = -12						; size = 4
_this$ = -8						; size = 4
_flight_ptr$ = -4					; size = 4
_flight$ = 8						; size = 4
_aircraft_slot$ = 12					; size = 1
?SetPlayerPilot@MissionEvaluationClass@@QAEXPAVFlightClass@@E@Z PROC ; MissionEvaluationClass::SetPlayerPilot
; _this$ = ecx

; 3922 : 	{

	push	ebp
	mov	ebp, esp
	sub	esp, 12					; 0000000cH
	mov	DWORD PTR _this$[ebp], ecx

; 3923 : 	Flight				element;
; 3924 : 	FlightDataClass		*flight_ptr;
; 3925 : 
; 3926 : 	// KCK: Currently, this function isn't being called.
; 3927 : 	CampEnterCriticalSection();

	call	?CampEnterCriticalSection@@YAXXZ	; CampEnterCriticalSection

; 3928 : 	CleanupPilotData();

	mov	ecx, DWORD PTR _this$[ebp]
	call	?CleanupPilotData@MissionEvaluationClass@@QAEXXZ ; MissionEvaluationClass::CleanupPilotData

; 3929 : 
; 3930 : 	flight_ptr = flight_data;

	mov	eax, DWORD PTR _this$[ebp]
	mov	ecx, DWORD PTR [eax+204]
	mov	DWORD PTR _flight_ptr$[ebp], ecx
$LN5@SetPlayerP:

; 3931 : 	while (flight_ptr)

	cmp	DWORD PTR _flight_ptr$[ebp], 0
	je	SHORT $LN4@SetPlayerP

; 3932 : 		{
; 3933 : 		element = (Flight)FindUnit(flight_ptr->flight_id);

	mov	edx, DWORD PTR _flight_ptr$[ebp]
	mov	eax, DWORD PTR [edx+44]
	push	eax
	mov	ecx, DWORD PTR [edx+40]
	push	ecx
	call	?FindUnit@@YAPAVUnitClass@@VVU_ID@@@Z	; FindUnit
	add	esp, 8
	mov	DWORD PTR _element$[ebp], eax

; 3934 : 		if (element && flight_ptr->camp_id)

	cmp	DWORD PTR _element$[ebp], 0
	je	SHORT $LN3@SetPlayerP
	mov	edx, DWORD PTR _flight_ptr$[ebp]
	movsx	eax, WORD PTR [edx+36]
	test	eax, eax
	je	SHORT $LN3@SetPlayerP

; 3935 : 			{
; 3936 : 			if (element == flight)

	mov	ecx, DWORD PTR _element$[ebp]
	cmp	ecx, DWORD PTR _flight$[ebp]
	jne	SHORT $LN2@SetPlayerP

; 3937 : 				player_element = flight_ptr;

	mov	edx, DWORD PTR _this$[ebp]
	mov	eax, DWORD PTR _flight_ptr$[ebp]
	mov	DWORD PTR [edx+12], eax
$LN2@SetPlayerP:

; 3938 : 			flight_ptr->num_pilots = 0;

	mov	ecx, DWORD PTR _flight_ptr$[ebp]
	mov	BYTE PTR [ecx+108], 0

; 3939 : 			SetupPilots(flight_ptr, element);

	mov	edx, DWORD PTR _element$[ebp]
	push	edx
	mov	eax, DWORD PTR _flight_ptr$[ebp]
	push	eax
	mov	ecx, DWORD PTR _this$[ebp]
	call	?SetupPilots@MissionEvaluationClass@@QAEXPAVFlightDataClass@@PAVFlightClass@@@Z ; MissionEvaluationClass::SetupPilots

; 3940 : 			}
; 3941 : 		else

	jmp	SHORT $LN1@SetPlayerP
$LN3@SetPlayerP:

; 3942 : 			flight_ptr->camp_id = 0;		

	xor	ecx, ecx
	mov	edx, DWORD PTR _flight_ptr$[ebp]
	mov	WORD PTR [edx+36], cx
$LN1@SetPlayerP:

; 3943 : 		flight_ptr = flight_ptr->next_flight;

	mov	eax, DWORD PTR _flight_ptr$[ebp]
	mov	ecx, DWORD PTR [eax+164]
	mov	DWORD PTR _flight_ptr$[ebp], ecx

; 3944 : 		}

	jmp	SHORT $LN5@SetPlayerP
$LN4@SetPlayerP:

; 3945 : 	CampLeaveCriticalSection();

	call	?CampLeaveCriticalSection@@YAXXZ	; CampLeaveCriticalSection

; 3946 : 	}

	mov	esp, ebp
	pop	ebp
	ret	8
?SetPlayerPilot@MissionEvaluationClass@@QAEXPAVFlightClass@@E@Z ENDP ; MissionEvaluationClass::SetPlayerPilot
_TEXT	ENDS
; Function compile flags: /Odtp
; File c:\users\zhitao li\documents\visual studio 2012\projects\freefalcon\campaign\campui\misseval.cpp
_TEXT	SEGMENT
$T1 = -44						; size = 8
$T2 = -36						; size = 8
_p$ = -28						; size = 4
_pilot_data$3 = -24					; size = 4
_pilot_data$4 = -20					; size = 4
tv76 = -16						; size = 4
_this$ = -12						; size = 4
_session$ = -8						; size = 4
_i$ = -4						; size = 4
_flight_ptr$ = 8					; size = 4
_flight$ = 12						; size = 4
?SetupPilots@MissionEvaluationClass@@QAEXPAVFlightDataClass@@PAVFlightClass@@@Z PROC ; MissionEvaluationClass::SetupPilots
; _this$ = ecx

; 3868 : 	{

	push	ebp
	mov	ebp, esp
	sub	esp, 44					; 0000002cH
	mov	DWORD PTR _this$[ebp], ecx

; 3869 : 	int					i,p;
; 3870 : 	FalconSessionEntity	*session;
; 3871 : 
; 3872 : 	CampEnterCriticalSection();

	call	?CampEnterCriticalSection@@YAXXZ	; CampEnterCriticalSection

; 3873 : 
; 3874 : 	if (FalconLocalGame->GetGameType() == game_Dogfight)

	mov	ecx, OFFSET ?vuLocalSessionEntity@@3V?$VuBin@VVuSessionEntity@@@@A ; vuLocalSessionEntity
	call	??B?$VuBin@VVuSessionEntity@@@@QBE_NXZ	; VuBin<VuSessionEntity>::operator bool
	movzx	eax, al
	test	eax, eax
	je	SHORT $LN20@SetupPilot
	mov	ecx, OFFSET ?vuLocalSessionEntity@@3V?$VuBin@VVuSessionEntity@@@@A ; vuLocalSessionEntity
	call	?get@?$VuBin@VVuSessionEntity@@@@QBEPAVVuSessionEntity@@XZ ; VuBin<VuSessionEntity>::get
	mov	ecx, eax
	call	?GetGame@FalconSessionEntity@@QAEPAVFalconGameEntity@@XZ ; FalconSessionEntity::GetGame
	mov	DWORD PTR tv76[ebp], eax
	jmp	SHORT $LN21@SetupPilot
$LN20@SetupPilot:
	mov	DWORD PTR tv76[ebp], 0
$LN21@SetupPilot:
	mov	ecx, DWORD PTR tv76[ebp]
	call	?GetGameType@FalconGameEntity@@QAE?AW4FalconGameType@@XZ ; FalconGameEntity::GetGameType
	cmp	eax, 2
	jne	$LN17@SetupPilot

; 3875 : 		{
; 3876 : 		// Add all pilots
; 3877 : 		for (i=0; i<PILOTS_PER_FLIGHT; i++)

	mov	DWORD PTR _i$[ebp], 0
	jmp	SHORT $LN16@SetupPilot
$LN15@SetupPilot:
	mov	ecx, DWORD PTR _i$[ebp]
	add	ecx, 1
	mov	DWORD PTR _i$[ebp], ecx
$LN16@SetupPilot:
	cmp	DWORD PTR _i$[ebp], 4
	jge	$LN14@SetupPilot

; 3878 : 			{
; 3879 : 			if (flight->plane_stats[i] == AIRCRAFT_AVAILABLE)

	mov	edx, DWORD PTR _flight$[ebp]
	add	edx, DWORD PTR _i$[ebp]
	movzx	eax, BYTE PTR [edx+416]
	cmp	eax, 4
	jne	$LN13@SetupPilot

; 3880 : 				{
; 3881 : 				session = gCommsMgr->FindCampaignPlayer(flight->Id(),i);

	movzx	ecx, BYTE PTR _i$[ebp]
	push	ecx
	lea	edx, DWORD PTR $T2[ebp]
	push	edx
	mov	ecx, DWORD PTR _flight$[ebp]
	call	?Id@VuEntity@@QBE?AVVU_ID@@XZ		; VuEntity::Id
	mov	ecx, DWORD PTR [eax+4]
	push	ecx
	mov	edx, DWORD PTR [eax]
	push	edx
	mov	ecx, DWORD PTR ?gCommsMgr@@3PAVUIComms@@A ; gCommsMgr
	call	?FindCampaignPlayer@UIComms@@QAEPAVFalconSessionEntity@@VVU_ID@@E@Z ; UIComms::FindCampaignPlayer
	mov	DWORD PTR _session$[ebp], eax

; 3882 : 				if (session)

	cmp	DWORD PTR _session$[ebp], 0
	je	SHORT $LN12@SetupPilot

; 3883 : 					AddNewPlayerPilot(flight_ptr, i, flight, session);

	mov	eax, DWORD PTR _session$[ebp]
	push	eax
	mov	ecx, DWORD PTR _flight$[ebp]
	push	ecx
	mov	edx, DWORD PTR _i$[ebp]
	push	edx
	mov	eax, DWORD PTR _flight_ptr$[ebp]
	push	eax
	mov	ecx, DWORD PTR _this$[ebp]
	call	?AddNewPlayerPilot@MissionEvaluationClass@@QAEPAVPilotDataClass@@PAVFlightDataClass@@HPAVFlightClass@@PAVFalconSessionEntity@@@Z ; MissionEvaluationClass::AddNewPlayerPilot

; 3884 : 				else

	jmp	SHORT $LN13@SetupPilot
$LN12@SetupPilot:

; 3885 : 					{
; 3886 : 					PilotDataClass	*pilot_data = AddNewPilot (flight_ptr, i, i, flight);

	mov	ecx, DWORD PTR _flight$[ebp]
	push	ecx
	mov	edx, DWORD PTR _i$[ebp]
	push	edx
	mov	eax, DWORD PTR _i$[ebp]
	push	eax
	mov	ecx, DWORD PTR _flight_ptr$[ebp]
	push	ecx
	mov	ecx, DWORD PTR _this$[ebp]
	call	?AddNewPilot@MissionEvaluationClass@@QAEPAVPilotDataClass@@PAVFlightDataClass@@HHPAVFlightClass@@@Z ; MissionEvaluationClass::AddNewPilot
	mov	DWORD PTR _pilot_data$4[ebp], eax

; 3887 : 					// AI Pilots named by callsign
; 3888 : 					_stprintf(pilot_data->pilot_name,"%s%d",flight_ptr->name,i+1);

	mov	edx, DWORD PTR _i$[ebp]
	add	edx, 1
	push	edx
	mov	eax, DWORD PTR _flight_ptr$[ebp]
	push	eax
	push	OFFSET ??_C@_04HGGBINEM@?$CFs?$CFd?$AA@
	mov	ecx, DWORD PTR _pilot_data$4[ebp]
	push	ecx
	call	_sprintf
	add	esp, 16					; 00000010H

; 3889 : 					_stprintf(pilot_data->pilot_callsign,"%s%d",flight_ptr->name,i+1);

	mov	edx, DWORD PTR _i$[ebp]
	add	edx, 1
	push	edx
	mov	eax, DWORD PTR _flight_ptr$[ebp]
	push	eax
	push	OFFSET ??_C@_04HGGBINEM@?$CFs?$CFd?$AA@
	mov	ecx, DWORD PTR _pilot_data$4[ebp]
	add	ecx, 30					; 0000001eH
	push	ecx
	call	_sprintf
	add	esp, 16					; 00000010H
$LN13@SetupPilot:

; 3890 : 					}
; 3891 : 				}
; 3892 : 			}

	jmp	$LN15@SetupPilot
$LN14@SetupPilot:

; 3893 : 		}
; 3894 : 	else

	jmp	$LN10@SetupPilot
$LN17@SetupPilot:

; 3895 : 		{
; 3896 : 		// Add all default pilots
; 3897 : 		for (i=0; i<PILOTS_PER_FLIGHT; i++)

	mov	DWORD PTR _i$[ebp], 0
	jmp	SHORT $LN9@SetupPilot
$LN8@SetupPilot:
	mov	edx, DWORD PTR _i$[ebp]
	add	edx, 1
	mov	DWORD PTR _i$[ebp], edx
$LN9@SetupPilot:
	cmp	DWORD PTR _i$[ebp], 4
	jge	SHORT $LN7@SetupPilot

; 3898 : 			{
; 3899 : 			if (flight->plane_stats[i] == AIRCRAFT_AVAILABLE)

	mov	eax, DWORD PTR _flight$[ebp]
	add	eax, DWORD PTR _i$[ebp]
	movzx	ecx, BYTE PTR [eax+416]
	cmp	ecx, 4
	jne	SHORT $LN6@SetupPilot

; 3900 : 				{
; 3901 : 				PilotDataClass	*pilot_data = AddNewPilot (flight_ptr, i, i, flight);

	mov	edx, DWORD PTR _flight$[ebp]
	push	edx
	mov	eax, DWORD PTR _i$[ebp]
	push	eax
	mov	ecx, DWORD PTR _i$[ebp]
	push	ecx
	mov	edx, DWORD PTR _flight_ptr$[ebp]
	push	edx
	mov	ecx, DWORD PTR _this$[ebp]
	call	?AddNewPilot@MissionEvaluationClass@@QAEPAVPilotDataClass@@PAVFlightDataClass@@HHPAVFlightClass@@@Z ; MissionEvaluationClass::AddNewPilot
	mov	DWORD PTR _pilot_data$3[ebp], eax

; 3902 : 				p = flight->GetPilotID(i);

	mov	eax, DWORD PTR _i$[ebp]
	push	eax
	mov	ecx, DWORD PTR _flight$[ebp]
	call	?GetPilotID@FlightClass@@QAEHH@Z	; FlightClass::GetPilotID
	mov	DWORD PTR _p$[ebp], eax

; 3903 : 				::GetPilotName(p,pilot_data->pilot_name,29);

	push	29					; 0000001dH
	mov	ecx, DWORD PTR _pilot_data$3[ebp]
	push	ecx
	mov	edx, DWORD PTR _p$[ebp]
	push	edx
	call	?GetPilotName@@YAXHPADH@Z		; GetPilotName
	add	esp, 12					; 0000000cH

; 3904 : 				_stprintf(pilot_data->pilot_callsign,"%s%d",flight_ptr->name,i+1);

	mov	eax, DWORD PTR _i$[ebp]
	add	eax, 1
	push	eax
	mov	ecx, DWORD PTR _flight_ptr$[ebp]
	push	ecx
	push	OFFSET ??_C@_04HGGBINEM@?$CFs?$CFd?$AA@
	mov	edx, DWORD PTR _pilot_data$3[ebp]
	add	edx, 30					; 0000001eH
	push	edx
	call	_sprintf
	add	esp, 16					; 00000010H
$LN6@SetupPilot:

; 3905 : 				}
; 3906 : 			}

	jmp	SHORT $LN8@SetupPilot
$LN7@SetupPilot:

; 3907 : 		// Now add any current player pilots
; 3908 : 		for (i=0; i<PILOTS_PER_FLIGHT; i++)

	mov	DWORD PTR _i$[ebp], 0
	jmp	SHORT $LN5@SetupPilot
$LN4@SetupPilot:
	mov	eax, DWORD PTR _i$[ebp]
	add	eax, 1
	mov	DWORD PTR _i$[ebp], eax
$LN5@SetupPilot:
	cmp	DWORD PTR _i$[ebp], 4
	jge	SHORT $LN10@SetupPilot

; 3909 : 			{
; 3910 : 			if (flight->plane_stats[i] == AIRCRAFT_AVAILABLE)

	mov	ecx, DWORD PTR _flight$[ebp]
	add	ecx, DWORD PTR _i$[ebp]
	movzx	edx, BYTE PTR [ecx+416]
	cmp	edx, 4
	jne	SHORT $LN2@SetupPilot

; 3911 : 				{
; 3912 : 				session = gCommsMgr->FindCampaignPlayer(flight->Id(),i);

	movzx	eax, BYTE PTR _i$[ebp]
	push	eax
	lea	ecx, DWORD PTR $T1[ebp]
	push	ecx
	mov	ecx, DWORD PTR _flight$[ebp]
	call	?Id@VuEntity@@QBE?AVVU_ID@@XZ		; VuEntity::Id
	mov	edx, DWORD PTR [eax+4]
	push	edx
	mov	eax, DWORD PTR [eax]
	push	eax
	mov	ecx, DWORD PTR ?gCommsMgr@@3PAVUIComms@@A ; gCommsMgr
	call	?FindCampaignPlayer@UIComms@@QAEPAVFalconSessionEntity@@VVU_ID@@E@Z ; UIComms::FindCampaignPlayer
	mov	DWORD PTR _session$[ebp], eax

; 3913 : 				if (session)

	cmp	DWORD PTR _session$[ebp], 0
	je	SHORT $LN2@SetupPilot

; 3914 : 					AddNewPlayerPilot(flight_ptr, i, flight, session);

	mov	ecx, DWORD PTR _session$[ebp]
	push	ecx
	mov	edx, DWORD PTR _flight$[ebp]
	push	edx
	mov	eax, DWORD PTR _i$[ebp]
	push	eax
	mov	ecx, DWORD PTR _flight_ptr$[ebp]
	push	ecx
	mov	ecx, DWORD PTR _this$[ebp]
	call	?AddNewPlayerPilot@MissionEvaluationClass@@QAEPAVPilotDataClass@@PAVFlightDataClass@@HPAVFlightClass@@PAVFalconSessionEntity@@@Z ; MissionEvaluationClass::AddNewPlayerPilot
$LN2@SetupPilot:

; 3915 : 				}
; 3916 : 			}

	jmp	SHORT $LN4@SetupPilot
$LN10@SetupPilot:

; 3917 : 		}
; 3918 : 	CampLeaveCriticalSection();

	call	?CampLeaveCriticalSection@@YAXXZ	; CampLeaveCriticalSection

; 3919 : 	}

	mov	esp, ebp
	pop	ebp
	ret	8
?SetupPilots@MissionEvaluationClass@@QAEXPAVFlightDataClass@@PAVFlightClass@@@Z ENDP ; MissionEvaluationClass::SetupPilots
_TEXT	ENDS
; Function compile flags: /Odtp
; File c:\users\zhitao li\documents\visual studio 2012\projects\freefalcon\campaign\campui\misseval.cpp
_TEXT	SEGMENT
$T1 = -16						; size = 8
_this$ = -8						; size = 4
_flight_ptr$ = -4					; size = 4
_flight$ = 8						; size = 4
?FindFlightData@MissionEvaluationClass@@QAEPAVFlightDataClass@@PAVFlightClass@@@Z PROC ; MissionEvaluationClass::FindFlightData
; _this$ = ecx

; 3847 : 	{

	push	ebp
	mov	ebp, esp
	sub	esp, 16					; 00000010H
	mov	DWORD PTR _this$[ebp], ecx

; 3848 : 	FlightDataClass	*flight_ptr;
; 3849 : 
; 3850 : 	CampEnterCriticalSection();

	call	?CampEnterCriticalSection@@YAXXZ	; CampEnterCriticalSection

; 3851 : 
; 3852 : 	flight_ptr = TheCampaign.MissionEvaluator->flight_data;

	mov	eax, DWORD PTR ?TheCampaign@@3VCampaignClass@@A+324
	mov	ecx, DWORD PTR [eax+204]
	mov	DWORD PTR _flight_ptr$[ebp], ecx
$LN3@FindFlight:

; 3853 : 	while (flight_ptr)

	cmp	DWORD PTR _flight_ptr$[ebp], 0
	je	SHORT $LN2@FindFlight

; 3854 : 		{
; 3855 : 		if (flight_ptr->flight_id == flight->Id())

	lea	edx, DWORD PTR $T1[ebp]
	push	edx
	mov	ecx, DWORD PTR _flight$[ebp]
	call	?Id@VuEntity@@QBE?AVVU_ID@@XZ		; VuEntity::Id
	push	eax
	mov	ecx, DWORD PTR _flight_ptr$[ebp]
	add	ecx, 40					; 00000028H
	call	??8VU_ID@@QBE_NABV0@@Z			; VU_ID::operator==
	movzx	eax, al
	test	eax, eax
	je	SHORT $LN1@FindFlight

; 3856 : 			{
; 3857 : 			CampLeaveCriticalSection();

	call	?CampLeaveCriticalSection@@YAXXZ	; CampLeaveCriticalSection

; 3858 : 			return flight_ptr;

	mov	eax, DWORD PTR _flight_ptr$[ebp]
	jmp	SHORT $LN4@FindFlight
$LN1@FindFlight:

; 3859 : 			}
; 3860 : 		flight_ptr = flight_ptr->next_flight;

	mov	ecx, DWORD PTR _flight_ptr$[ebp]
	mov	edx, DWORD PTR [ecx+164]
	mov	DWORD PTR _flight_ptr$[ebp], edx

; 3861 : 		}

	jmp	SHORT $LN3@FindFlight
$LN2@FindFlight:

; 3862 : 
; 3863 : 	CampLeaveCriticalSection();

	call	?CampLeaveCriticalSection@@YAXXZ	; CampLeaveCriticalSection

; 3864 : 	return NULL;

	xor	eax, eax
$LN4@FindFlight:

; 3865 : 	}

	mov	esp, ebp
	pop	ebp
	ret	4
?FindFlightData@MissionEvaluationClass@@QAEPAVFlightDataClass@@PAVFlightClass@@@Z ENDP ; MissionEvaluationClass::FindFlightData
_TEXT	ENDS
; Function compile flags: /Odtp
; File c:\users\zhitao li\documents\visual studio 2012\projects\freefalcon\campaign\campui\misseval.cpp
_TEXT	SEGMENT
_this$ = -12						; size = 4
_ret_data$ = -8						; size = 4
_pilot_data$ = -4					; size = 4
_flight_ptr$ = 8					; size = 4
_aircraft_slot$ = 12					; size = 4
?FindPilotDataFromAC@MissionEvaluationClass@@QAEPAVPilotDataClass@@PAVFlightDataClass@@H@Z PROC ; MissionEvaluationClass::FindPilotDataFromAC
; _this$ = ecx

; 3823 : 	{

	push	ebp
	mov	ebp, esp
	sub	esp, 12					; 0000000cH
	mov	DWORD PTR _this$[ebp], ecx

; 3824 : 	// Find the current pilot for this aircraft/flight combo.
; 3825 : 	PilotDataClass *pilot_data = NULL;

	mov	DWORD PTR _pilot_data$[ebp], 0

; 3826 : 	PilotDataClass *ret_data = NULL;

	mov	DWORD PTR _ret_data$[ebp], 0

; 3827 : 
; 3828 : 	if (!flight_ptr) // JB 010628 CTD

	cmp	DWORD PTR _flight_ptr$[ebp], 0
	jne	SHORT $LN4@FindPilotD

; 3829 : 		return NULL;

	xor	eax, eax
	jmp	SHORT $LN5@FindPilotD
$LN4@FindPilotD:

; 3830 : 
; 3831 : 	CampEnterCriticalSection();

	call	?CampEnterCriticalSection@@YAXXZ	; CampEnterCriticalSection

; 3832 : 
; 3833 : 	// Since several players can have the same ac number, we take the last we find.
; 3834 : 	pilot_data = flight_ptr->pilot_list;

	mov	eax, DWORD PTR _flight_ptr$[ebp]
	mov	ecx, DWORD PTR [eax+152]
	mov	DWORD PTR _pilot_data$[ebp], ecx
$LN3@FindPilotD:

; 3835 : 	while (pilot_data)

	cmp	DWORD PTR _pilot_data$[ebp], 0
	je	SHORT $LN2@FindPilotD

; 3836 : 		{
; 3837 : 		if (pilot_data->aircraft_slot == aircraft_slot)

	mov	edx, DWORD PTR _pilot_data$[ebp]
	movzx	eax, BYTE PTR [edx+60]
	cmp	eax, DWORD PTR _aircraft_slot$[ebp]
	jne	SHORT $LN1@FindPilotD

; 3838 : 			ret_data = pilot_data;

	mov	ecx, DWORD PTR _pilot_data$[ebp]
	mov	DWORD PTR _ret_data$[ebp], ecx
$LN1@FindPilotD:

; 3839 : 		pilot_data = pilot_data->next_pilot;

	mov	edx, DWORD PTR _pilot_data$[ebp]
	mov	eax, DWORD PTR [edx+444]
	mov	DWORD PTR _pilot_data$[ebp], eax

; 3840 : 		}

	jmp	SHORT $LN3@FindPilotD
$LN2@FindPilotD:

; 3841 : 
; 3842 : 	CampLeaveCriticalSection();

	call	?CampLeaveCriticalSection@@YAXXZ	; CampLeaveCriticalSection

; 3843 : 	return ret_data;

	mov	eax, DWORD PTR _ret_data$[ebp]
$LN5@FindPilotD:

; 3844 : 	}

	mov	esp, ebp
	pop	ebp
	ret	8
?FindPilotDataFromAC@MissionEvaluationClass@@QAEPAVPilotDataClass@@PAVFlightDataClass@@H@Z ENDP ; MissionEvaluationClass::FindPilotDataFromAC
_TEXT	ENDS
; Function compile flags: /Odtp
; File c:\users\zhitao li\documents\visual studio 2012\projects\freefalcon\campaign\campui\misseval.cpp
_TEXT	SEGMENT
_this$ = -12						; size = 4
_retval$ = -8						; size = 4
_flight_ptr$ = -4					; size = 4
_flight_id$ = 8						; size = 4
_pilot_num$ = 12					; size = 4
?FindPilotData@MissionEvaluationClass@@QAEPAVPilotDataClass@@HH@Z PROC ; MissionEvaluationClass::FindPilotData
; _this$ = ecx

; 3805 : {

	push	ebp
	mov	ebp, esp
	sub	esp, 12					; 0000000cH
	mov	DWORD PTR _this$[ebp], ecx

; 3806 : 	FlightDataClass			*flight_ptr;
; 3807 : 	PilotDataClass			*retval=NULL;

	mov	DWORD PTR _retval$[ebp], 0

; 3808 : 
; 3809 : 	CampEnterCriticalSection();

	call	?CampEnterCriticalSection@@YAXXZ	; CampEnterCriticalSection

; 3810 : 
; 3811 : 	flight_ptr = flight_data;

	mov	eax, DWORD PTR _this$[ebp]
	mov	ecx, DWORD PTR [eax+204]
	mov	DWORD PTR _flight_ptr$[ebp], ecx
$LN3@FindPilotD:

; 3812 : 	while (flight_ptr && !retval){

	cmp	DWORD PTR _flight_ptr$[ebp], 0
	je	SHORT $LN2@FindPilotD
	cmp	DWORD PTR _retval$[ebp], 0
	jne	SHORT $LN2@FindPilotD

; 3813 : 		if (flight_ptr->camp_id == flight_id)

	mov	edx, DWORD PTR _flight_ptr$[ebp]
	movsx	eax, WORD PTR [edx+36]
	cmp	eax, DWORD PTR _flight_id$[ebp]
	jne	SHORT $LN1@FindPilotD

; 3814 : 			retval = FindPilotData(flight_ptr,pilot_num);

	mov	ecx, DWORD PTR _pilot_num$[ebp]
	push	ecx
	mov	edx, DWORD PTR _flight_ptr$[ebp]
	push	edx
	mov	ecx, DWORD PTR _this$[ebp]
	call	?FindPilotData@MissionEvaluationClass@@QAEPAVPilotDataClass@@PAVFlightDataClass@@H@Z ; MissionEvaluationClass::FindPilotData
	mov	DWORD PTR _retval$[ebp], eax
$LN1@FindPilotD:

; 3815 : 		flight_ptr = flight_ptr->next_flight;

	mov	eax, DWORD PTR _flight_ptr$[ebp]
	mov	ecx, DWORD PTR [eax+164]
	mov	DWORD PTR _flight_ptr$[ebp], ecx

; 3816 : 	}

	jmp	SHORT $LN3@FindPilotD
$LN2@FindPilotD:

; 3817 : 
; 3818 : 	CampLeaveCriticalSection();

	call	?CampLeaveCriticalSection@@YAXXZ	; CampLeaveCriticalSection

; 3819 : 	return retval;

	mov	eax, DWORD PTR _retval$[ebp]

; 3820 : }

	mov	esp, ebp
	pop	ebp
	ret	8
?FindPilotData@MissionEvaluationClass@@QAEPAVPilotDataClass@@HH@Z ENDP ; MissionEvaluationClass::FindPilotData
_TEXT	ENDS
; Function compile flags: /Odtp
; File c:\users\zhitao li\documents\visual studio 2012\projects\freefalcon\campaign\campui\misseval.cpp
_TEXT	SEGMENT
_this$ = -8						; size = 4
_pilot_data$ = -4					; size = 4
_flight_ptr$ = 8					; size = 4
_pilot_num$ = 12					; size = 4
?FindPilotData@MissionEvaluationClass@@QAEPAVPilotDataClass@@PAVFlightDataClass@@H@Z PROC ; MissionEvaluationClass::FindPilotData
; _this$ = ecx

; 3791 : 	{

	push	ebp
	mov	ebp, esp
	sub	esp, 8
	mov	DWORD PTR _this$[ebp], ecx

; 3792 : 	PilotDataClass	*pilot_data;
; 3793 : 
; 3794 : 	CampEnterCriticalSection();

	call	?CampEnterCriticalSection@@YAXXZ	; CampEnterCriticalSection

; 3795 : 
; 3796 : 	pilot_data = flight_ptr->pilot_list;

	mov	eax, DWORD PTR _flight_ptr$[ebp]
	mov	ecx, DWORD PTR [eax+152]
	mov	DWORD PTR _pilot_data$[ebp], ecx
$LN2@FindPilotD:

; 3797 : 	while ((pilot_data) && (pilot_data->pilot_slot != pilot_num))

	cmp	DWORD PTR _pilot_data$[ebp], 0
	je	SHORT $LN1@FindPilotD
	mov	edx, DWORD PTR _pilot_data$[ebp]
	movzx	eax, BYTE PTR [edx+61]
	cmp	eax, DWORD PTR _pilot_num$[ebp]
	je	SHORT $LN1@FindPilotD

; 3798 : 		pilot_data = pilot_data->next_pilot;

	mov	ecx, DWORD PTR _pilot_data$[ebp]
	mov	edx, DWORD PTR [ecx+444]
	mov	DWORD PTR _pilot_data$[ebp], edx
	jmp	SHORT $LN2@FindPilotD
$LN1@FindPilotD:

; 3799 : 
; 3800 : 	CampLeaveCriticalSection();

	call	?CampLeaveCriticalSection@@YAXXZ	; CampLeaveCriticalSection

; 3801 : 	return pilot_data;

	mov	eax, DWORD PTR _pilot_data$[ebp]

; 3802 : 	}

	mov	esp, ebp
	pop	ebp
	ret	8
?FindPilotData@MissionEvaluationClass@@QAEPAVPilotDataClass@@PAVFlightDataClass@@H@Z ENDP ; MissionEvaluationClass::FindPilotData
_TEXT	ENDS
; Function compile flags: /Odtp
; File c:\users\zhitao li\documents\visual studio 2012\projects\freefalcon\campaign\campui\misseval.cpp
_TEXT	SEGMENT
_this$ = -76						; size = 4
_loadout$ = -72						; size = 4
$T2 = -68						; size = 4
tv71 = -64						; size = 4
$T3 = -60						; size = 4
_load$ = -56						; size = 4
_new_weap$ = -52					; size = 4
_nw$ = -48						; size = 4
_w$ = -44						; size = 4
_j$4 = -40						; size = 4
_wid$ = -36						; size = 4
_wi$ = -32						; size = 4
_prev_pilot$ = -28					; size = 4
_k$ = -24						; size = 4
_pilot_data$ = -20					; size = 4
_entryfound$5 = -13					; size = 1
__$EHRec$ = -12						; size = 12
_flight_ptr$ = 8					; size = 4
_pilot_num$ = 12					; size = 4
_ac_num$ = 16						; size = 4
_flight$ = 20						; size = 4
?AddNewPilot@MissionEvaluationClass@@QAEPAVPilotDataClass@@PAVFlightDataClass@@HHPAVFlightClass@@@Z PROC ; MissionEvaluationClass::AddNewPilot
; _this$ = ecx

; 3684 : 	{

	push	ebp
	mov	ebp, esp
	push	-1
	push	__ehhandler$?AddNewPilot@MissionEvaluationClass@@QAEPAVPilotDataClass@@PAVFlightDataClass@@HHPAVFlightClass@@@Z
	mov	eax, DWORD PTR fs:0
	push	eax
	sub	esp, 64					; 00000040H
	mov	eax, DWORD PTR ___security_cookie
	xor	eax, ebp
	push	eax
	lea	eax, DWORD PTR __$EHRec$[ebp]
	mov	DWORD PTR fs:0, eax
	mov	DWORD PTR _this$[ebp], ecx

; 3685 : 	PilotDataClass	*pilot_data = new PilotDataClass;

	push	448					; 000001c0H
	call	??2@YAPAXI@Z				; operator new
	add	esp, 4
	mov	DWORD PTR $T3[ebp], eax
	mov	DWORD PTR __$EHRec$[ebp+8], 0
	cmp	DWORD PTR $T3[ebp], 0
	je	SHORT $LN29@AddNewPilo
	mov	ecx, DWORD PTR $T3[ebp]
	call	??0PilotDataClass@@QAE@XZ		; PilotDataClass::PilotDataClass
	mov	DWORD PTR tv71[ebp], eax
	jmp	SHORT $LN30@AddNewPilo
$LN29@AddNewPilo:
	mov	DWORD PTR tv71[ebp], 0
$LN30@AddNewPilo:
	mov	eax, DWORD PTR tv71[ebp]
	mov	DWORD PTR $T2[ebp], eax
	mov	DWORD PTR __$EHRec$[ebp+8], -1
	mov	ecx, DWORD PTR $T2[ebp]
	mov	DWORD PTR _pilot_data$[ebp], ecx

; 3686 : 	PilotDataClass	*prev_pilot=NULL;

	mov	DWORD PTR _prev_pilot$[ebp], 0

; 3687 : 	int				k=0,w=0,wid=0,wi=0,nw=0,new_weap=0,load=0;

	mov	DWORD PTR _k$[ebp], 0
	mov	DWORD PTR _w$[ebp], 0
	mov	DWORD PTR _wid$[ebp], 0
	mov	DWORD PTR _wi$[ebp], 0
	mov	DWORD PTR _nw$[ebp], 0
	mov	DWORD PTR _new_weap$[ebp], 0
	mov	DWORD PTR _load$[ebp], 0

; 3688 : 	LoadoutStruct	*loadout = NULL;

	mov	DWORD PTR _loadout$[ebp], 0

; 3689 : 
; 3690 : 	// Assign a new pilot_slot
; 3691 : 	pilot_data->pilot_slot = pilot_num;

	mov	edx, DWORD PTR _pilot_data$[ebp]
	mov	al, BYTE PTR _pilot_num$[ebp]
	mov	BYTE PTR [edx+61], al

; 3692 : 	flight_ptr->num_pilots++;

	mov	ecx, DWORD PTR _flight_ptr$[ebp]
	mov	dl, BYTE PTR [ecx+108]
	add	dl, 1
	mov	eax, DWORD PTR _flight_ptr$[ebp]
	mov	BYTE PTR [eax+108], dl

; 3693 : 
; 3694 : 	// Insert it into the list properly
; 3695 : 	prev_pilot = flight_ptr->pilot_list;

	mov	ecx, DWORD PTR _flight_ptr$[ebp]
	mov	edx, DWORD PTR [ecx+152]
	mov	DWORD PTR _prev_pilot$[ebp], edx
$LN26@AddNewPilo:

