; Listing generated by Microsoft (R) Optimizing Compiler Version 17.00.51106.1 

	TITLE	C:\Users\Zhitao Li\Documents\Visual Studio 2012\Projects\Freefalcon\vu2\src\vu_opaque_filter.cpp
	.686P
	.XMM
	include listing.inc
	.model	flat

INCLUDELIB LIBCMT
INCLUDELIB OLDNAMES

PUBLIC	??BVU_SESSION_ID@@QBEKXZ			; VU_SESSION_ID::operator unsigned long
PUBLIC	??BVU_ID@@QBEKXZ				; VU_ID::operator unsigned long
PUBLIC	?Id@VuEntity@@QBE?AVVU_ID@@XZ			; VuEntity::Id
PUBLIC	??0VuFilter@@IAE@XZ				; VuFilter::VuFilter
PUBLIC	??0VuFilter@@IAE@PAV0@@Z			; VuFilter::VuFilter
PUBLIC	??_GVuFilter@@UAEPAXI@Z				; VuFilter::`scalar deleting destructor'
PUBLIC	??0VuOpaqueFilter@@QAE@XZ			; VuOpaqueFilter::VuOpaqueFilter
PUBLIC	??1VuOpaqueFilter@@UAE@XZ			; VuOpaqueFilter::~VuOpaqueFilter
PUBLIC	?Test@VuOpaqueFilter@@UAEEPAVVuEntity@@@Z	; VuOpaqueFilter::Test
PUBLIC	?Compare@VuOpaqueFilter@@UAEHPAVVuEntity@@0@Z	; VuOpaqueFilter::Compare
PUBLIC	?Copy@VuOpaqueFilter@@UAEPAVVuFilter@@XZ	; VuOpaqueFilter::Copy
PUBLIC	??0VuOpaqueFilter@@IAE@PAV0@@Z			; VuOpaqueFilter::VuOpaqueFilter
PUBLIC	??_GVuOpaqueFilter@@UAEPAXI@Z			; VuOpaqueFilter::`scalar deleting destructor'
PUBLIC	??_7VuFilter@@6B@				; VuFilter::`vftable'
PUBLIC	??_7VuOpaqueFilter@@6B@				; VuOpaqueFilter::`vftable'
PUBLIC	??_R4VuFilter@@6B@				; VuFilter::`RTTI Complete Object Locator'
PUBLIC	??_R0?AVVuFilter@@@8				; VuFilter `RTTI Type Descriptor'
PUBLIC	??_R3VuFilter@@8				; VuFilter::`RTTI Class Hierarchy Descriptor'
PUBLIC	??_R2VuFilter@@8				; VuFilter::`RTTI Base Class Array'
PUBLIC	??_R1A@?0A@EA@VuFilter@@8			; VuFilter::`RTTI Base Class Descriptor at (0,-1,0,64)'
PUBLIC	??_R4VuOpaqueFilter@@6B@			; VuOpaqueFilter::`RTTI Complete Object Locator'
PUBLIC	??_R0?AVVuOpaqueFilter@@@8			; VuOpaqueFilter `RTTI Type Descriptor'
PUBLIC	??_R3VuOpaqueFilter@@8				; VuOpaqueFilter::`RTTI Class Hierarchy Descriptor'
PUBLIC	??_R2VuOpaqueFilter@@8				; VuOpaqueFilter::`RTTI Base Class Array'
PUBLIC	??_R1A@?0A@EA@VuOpaqueFilter@@8			; VuOpaqueFilter::`RTTI Base Class Descriptor at (0,-1,0,64)'
EXTRN	__purecall:PROC
EXTRN	??2@YAPAXI@Z:PROC				; operator new
EXTRN	??3@YAXPAX@Z:PROC				; operator delete
EXTRN	??1VuFilter@@UAE@XZ:PROC			; VuFilter::~VuFilter
EXTRN	?RemoveTest@VuFilter@@UAEEPAVVuEntity@@@Z:PROC	; VuFilter::RemoveTest
EXTRN	?Notice@VuFilter@@UAEEPAVVuMessage@@@Z:PROC	; VuFilter::Notice
EXTRN	??_EVuFilter@@UAEPAXI@Z:PROC			; VuFilter::`vector deleting destructor'
EXTRN	??_EVuOpaqueFilter@@UAEPAXI@Z:PROC		; VuOpaqueFilter::`vector deleting destructor'
EXTRN	@__security_check_cookie@4:PROC
EXTRN	___CxxFrameHandler3:PROC
EXTRN	??_7type_info@@6B@:QWORD			; type_info::`vftable'
EXTRN	___security_cookie:DWORD
;	COMDAT ??_R1A@?0A@EA@VuOpaqueFilter@@8
rdata$r	SEGMENT
??_R1A@?0A@EA@VuOpaqueFilter@@8 DD FLAT:??_R0?AVVuOpaqueFilter@@@8 ; VuOpaqueFilter::`RTTI Base Class Descriptor at (0,-1,0,64)'
	DD	01H
	DD	00H
	DD	0ffffffffH
	DD	00H
	DD	040H
	DD	FLAT:??_R3VuOpaqueFilter@@8
rdata$r	ENDS
;	COMDAT ??_R2VuOpaqueFilter@@8
rdata$r	SEGMENT
??_R2VuOpaqueFilter@@8 DD FLAT:??_R1A@?0A@EA@VuOpaqueFilter@@8 ; VuOpaqueFilter::`RTTI Base Class Array'
	DD	FLAT:??_R1A@?0A@EA@VuFilter@@8
rdata$r	ENDS
;	COMDAT ??_R3VuOpaqueFilter@@8
rdata$r	SEGMENT
??_R3VuOpaqueFilter@@8 DD 00H				; VuOpaqueFilter::`RTTI Class Hierarchy Descriptor'
	DD	00H
	DD	02H
	DD	FLAT:??_R2VuOpaqueFilter@@8
rdata$r	ENDS
;	COMDAT ??_R0?AVVuOpaqueFilter@@@8
_DATA	SEGMENT
??_R0?AVVuOpaqueFilter@@@8 DD FLAT:??_7type_info@@6B@	; VuOpaqueFilter `RTTI Type Descriptor'
	DD	00H
	DB	'.?AVVuOpaqueFilter@@', 00H
_DATA	ENDS
;	COMDAT ??_R4VuOpaqueFilter@@6B@
rdata$r	SEGMENT
??_R4VuOpaqueFilter@@6B@ DD 00H				; VuOpaqueFilter::`RTTI Complete Object Locator'
	DD	00H
	DD	00H
	DD	FLAT:??_R0?AVVuOpaqueFilter@@@8
	DD	FLAT:??_R3VuOpaqueFilter@@8
rdata$r	ENDS
;	COMDAT ??_R1A@?0A@EA@VuFilter@@8
rdata$r	SEGMENT
??_R1A@?0A@EA@VuFilter@@8 DD FLAT:??_R0?AVVuFilter@@@8	; VuFilter::`RTTI Base Class Descriptor at (0,-1,0,64)'
	DD	00H
	DD	00H
	DD	0ffffffffH
	DD	00H
	DD	040H
	DD	FLAT:??_R3VuFilter@@8
rdata$r	ENDS
;	COMDAT ??_R2VuFilter@@8
rdata$r	SEGMENT
??_R2VuFilter@@8 DD FLAT:??_R1A@?0A@EA@VuFilter@@8	; VuFilter::`RTTI Base Class Array'
rdata$r	ENDS
;	COMDAT ??_R3VuFilter@@8
rdata$r	SEGMENT
??_R3VuFilter@@8 DD 00H					; VuFilter::`RTTI Class Hierarchy Descriptor'
	DD	00H
	DD	01H
	DD	FLAT:??_R2VuFilter@@8
rdata$r	ENDS
;	COMDAT ??_R0?AVVuFilter@@@8
_DATA	SEGMENT
??_R0?AVVuFilter@@@8 DD FLAT:??_7type_info@@6B@		; VuFilter `RTTI Type Descriptor'
	DD	00H
	DB	'.?AVVuFilter@@', 00H
_DATA	ENDS
;	COMDAT ??_R4VuFilter@@6B@
rdata$r	SEGMENT
??_R4VuFilter@@6B@ DD 00H				; VuFilter::`RTTI Complete Object Locator'
	DD	00H
	DD	00H
	DD	FLAT:??_R0?AVVuFilter@@@8
	DD	FLAT:??_R3VuFilter@@8
rdata$r	ENDS
;	COMDAT ??_7VuOpaqueFilter@@6B@
CONST	SEGMENT
??_7VuOpaqueFilter@@6B@ DD FLAT:??_R4VuOpaqueFilter@@6B@ ; VuOpaqueFilter::`vftable'
	DD	FLAT:??_EVuOpaqueFilter@@UAEPAXI@Z
	DD	FLAT:?Compare@VuOpaqueFilter@@UAEHPAVVuEntity@@0@Z
	DD	FLAT:?Test@VuOpaqueFilter@@UAEEPAVVuEntity@@@Z
	DD	FLAT:?RemoveTest@VuFilter@@UAEEPAVVuEntity@@@Z
	DD	FLAT:?Notice@VuFilter@@UAEEPAVVuMessage@@@Z
	DD	FLAT:?Copy@VuOpaqueFilter@@UAEPAVVuFilter@@XZ
CONST	ENDS
;	COMDAT ??_7VuFilter@@6B@
CONST	SEGMENT
??_7VuFilter@@6B@ DD FLAT:??_R4VuFilter@@6B@		; VuFilter::`vftable'
	DD	FLAT:??_EVuFilter@@UAEPAXI@Z
	DD	FLAT:__purecall
	DD	FLAT:__purecall
	DD	FLAT:?RemoveTest@VuFilter@@UAEEPAVVuEntity@@@Z
	DD	FLAT:?Notice@VuFilter@@UAEEPAVVuMessage@@@Z
	DD	FLAT:__purecall
CONST	ENDS
xdata$x	SEGMENT
__unwindtable$?Copy@VuOpaqueFilter@@UAEPAVVuFilter@@XZ DD 0ffffffffH
	DD	FLAT:__unwindfunclet$?Copy@VuOpaqueFilter@@UAEPAVVuFilter@@XZ$0
__ehfuncinfo$?Copy@VuOpaqueFilter@@UAEPAVVuFilter@@XZ DD 019930522H
	DD	01H
	DD	FLAT:__unwindtable$?Copy@VuOpaqueFilter@@UAEPAVVuFilter@@XZ
	DD	2 DUP(00H)
	DD	2 DUP(00H)
	DD	00H
	DD	01H
xdata$x	ENDS
; Function compile flags: /Odtp
;	COMDAT ??_GVuOpaqueFilter@@UAEPAXI@Z
_TEXT	SEGMENT
_this$ = -4						; size = 4
___flags$ = 8						; size = 4
??_GVuOpaqueFilter@@UAEPAXI@Z PROC			; VuOpaqueFilter::`scalar deleting destructor', COMDAT
; _this$ = ecx
	push	ebp
	mov	ebp, esp
	push	ecx
	mov	DWORD PTR _this$[ebp], ecx
	mov	ecx, DWORD PTR _this$[ebp]
	call	??1VuOpaqueFilter@@UAE@XZ		; VuOpaqueFilter::~VuOpaqueFilter
	mov	eax, DWORD PTR ___flags$[ebp]
	and	eax, 1
	je	SHORT $LN1@scalar
	mov	ecx, DWORD PTR _this$[ebp]
	push	ecx
	call	??3@YAXPAX@Z				; operator delete
	add	esp, 4
$LN1@scalar:
	mov	eax, DWORD PTR _this$[ebp]
	mov	esp, ebp
	pop	ebp
	ret	4
??_GVuOpaqueFilter@@UAEPAXI@Z ENDP			; VuOpaqueFilter::`scalar deleting destructor'
_TEXT	ENDS
; Function compile flags: /Odtp
; File c:\users\zhitao li\documents\visual studio 2012\projects\freefalcon\vu2\src\vu_opaque_filter.cpp
_TEXT	SEGMENT
_this$ = -4						; size = 4
_other$ = 8						; size = 4
??0VuOpaqueFilter@@IAE@PAV0@@Z PROC			; VuOpaqueFilter::VuOpaqueFilter
; _this$ = ecx

; 9    : VuOpaqueFilter::VuOpaqueFilter(VuOpaqueFilter* other) : VuFilter(other){

	push	ebp
	mov	ebp, esp
	push	ecx
	mov	DWORD PTR _this$[ebp], ecx
	mov	eax, DWORD PTR _other$[ebp]
	push	eax
	mov	ecx, DWORD PTR _this$[ebp]
	call	??0VuFilter@@IAE@PAV0@@Z		; VuFilter::VuFilter
	mov	ecx, DWORD PTR _this$[ebp]
	mov	DWORD PTR [ecx], OFFSET ??_7VuOpaqueFilter@@6B@

; 10   : }

	mov	eax, DWORD PTR _this$[ebp]
	mov	esp, ebp
	pop	ebp
	ret	4
??0VuOpaqueFilter@@IAE@PAV0@@Z ENDP			; VuOpaqueFilter::VuOpaqueFilter
_TEXT	ENDS
; Function compile flags: /Odtp
; File c:\users\zhitao li\documents\visual studio 2012\projects\freefalcon\vu2\src\vu_opaque_filter.cpp
_TEXT	SEGMENT
$T2 = -28						; size = 4
_this$ = -24						; size = 4
tv75 = -20						; size = 4
$T3 = -16						; size = 4
__$EHRec$ = -12						; size = 12
?Copy@VuOpaqueFilter@@UAEPAVVuFilter@@XZ PROC		; VuOpaqueFilter::Copy
; _this$ = ecx

; 23   : VuFilter *VuOpaqueFilter::Copy(){

	push	ebp
	mov	ebp, esp
	push	-1
	push	__ehhandler$?Copy@VuOpaqueFilter@@UAEPAVVuFilter@@XZ
	mov	eax, DWORD PTR fs:0
	push	eax
	sub	esp, 16					; 00000010H
	mov	eax, DWORD PTR ___security_cookie
	xor	eax, ebp
	push	eax
	lea	eax, DWORD PTR __$EHRec$[ebp]
	mov	DWORD PTR fs:0, eax
	mov	DWORD PTR _this$[ebp], ecx

; 24   : 	return new VuOpaqueFilter(this);

	push	4
	call	??2@YAPAXI@Z				; operator new
	add	esp, 4
	mov	DWORD PTR $T3[ebp], eax
	mov	DWORD PTR __$EHRec$[ebp+8], 0
	cmp	DWORD PTR $T3[ebp], 0
	je	SHORT $LN3@Copy
	mov	eax, DWORD PTR _this$[ebp]
	push	eax
	mov	ecx, DWORD PTR $T3[ebp]
	call	??0VuOpaqueFilter@@IAE@PAV0@@Z		; VuOpaqueFilter::VuOpaqueFilter
	mov	DWORD PTR tv75[ebp], eax
	jmp	SHORT $LN4@Copy
$LN3@Copy:
	mov	DWORD PTR tv75[ebp], 0
$LN4@Copy:
	mov	ecx, DWORD PTR tv75[ebp]
	mov	DWORD PTR $T2[ebp], ecx
	mov	DWORD PTR __$EHRec$[ebp+8], -1
	mov	eax, DWORD PTR $T2[ebp]

; 25   : }

	mov	ecx, DWORD PTR __$EHRec$[ebp]
	mov	DWORD PTR fs:0, ecx
	pop	ecx
	mov	esp, ebp
	pop	ebp
	ret	0
_TEXT	ENDS
text$x	SEGMENT
__unwindfunclet$?Copy@VuOpaqueFilter@@UAEPAVVuFilter@@XZ$0:
	mov	eax, DWORD PTR $T3[ebp]
	push	eax
	call	??3@YAXPAX@Z				; operator delete
	pop	ecx
	ret	0
__ehhandler$?Copy@VuOpaqueFilter@@UAEPAVVuFilter@@XZ:
	mov	edx, DWORD PTR [esp+8]
	lea	eax, DWORD PTR [edx+12]
	mov	ecx, DWORD PTR [edx-20]
	xor	ecx, eax
	call	@__security_check_cookie@4
	mov	eax, OFFSET __ehfuncinfo$?Copy@VuOpaqueFilter@@UAEPAVVuFilter@@XZ
	jmp	___CxxFrameHandler3
text$x	ENDS
?Copy@VuOpaqueFilter@@UAEPAVVuFilter@@XZ ENDP		; VuOpaqueFilter::Copy
; Function compile flags: /Odtp
; File c:\users\zhitao li\documents\visual studio 2012\projects\freefalcon\vu2\src\vu_opaque_filter.cpp
_TEXT	SEGMENT
$T1 = -20						; size = 8
$T2 = -12						; size = 8
_this$ = -4						; size = 4
_ent1$ = 8						; size = 4
_ent2$ = 12						; size = 4
?Compare@VuOpaqueFilter@@UAEHPAVVuEntity@@0@Z PROC	; VuOpaqueFilter::Compare
; _this$ = ecx

; 19   : int VuOpaqueFilter::Compare(VuEntity* ent1, VuEntity* ent2){

	push	ebp
	mov	ebp, esp
	sub	esp, 20					; 00000014H
	push	esi
	mov	DWORD PTR _this$[ebp], ecx

; 20   : 	return (int)ent1->Id() - (int)ent2->Id();

	lea	eax, DWORD PTR $T2[ebp]
	push	eax
	mov	ecx, DWORD PTR _ent1$[ebp]
	call	?Id@VuEntity@@QBE?AVVU_ID@@XZ		; VuEntity::Id
	mov	ecx, eax
	call	??BVU_ID@@QBEKXZ			; VU_ID::operator unsigned long
	mov	esi, eax
	lea	ecx, DWORD PTR $T1[ebp]
	push	ecx
	mov	ecx, DWORD PTR _ent2$[ebp]
	call	?Id@VuEntity@@QBE?AVVU_ID@@XZ		; VuEntity::Id
	mov	ecx, eax
	call	??BVU_ID@@QBEKXZ			; VU_ID::operator unsigned long
	sub	esi, eax
	mov	eax, esi

; 21   : }

	pop	esi
	mov	esp, ebp
	pop	ebp
	ret	8
?Compare@VuOpaqueFilter@@UAEHPAVVuEntity@@0@Z ENDP	; VuOpaqueFilter::Compare
_TEXT	ENDS
; Function compile flags: /Odtp
; File c:\users\zhitao li\documents\visual studio 2012\projects\freefalcon\vu2\src\vu_opaque_filter.cpp
_TEXT	SEGMENT
_this$ = -4						; size = 4
___formal$ = 8						; size = 4
?Test@VuOpaqueFilter@@UAEEPAVVuEntity@@@Z PROC		; VuOpaqueFilter::Test
; _this$ = ecx

; 15   : VU_BOOL VuOpaqueFilter::Test(VuEntity*){

	push	ebp
	mov	ebp, esp
	push	ecx
	mov	DWORD PTR _this$[ebp], ecx

; 16   : 	return FALSE;

	xor	al, al

; 17   : }

	mov	esp, ebp
	pop	ebp
	ret	4
?Test@VuOpaqueFilter@@UAEEPAVVuEntity@@@Z ENDP		; VuOpaqueFilter::Test
_TEXT	ENDS
; Function compile flags: /Odtp
; File c:\users\zhitao li\documents\visual studio 2012\projects\freefalcon\vu2\src\vu_opaque_filter.cpp
_TEXT	SEGMENT
_this$ = -4						; size = 4
??1VuOpaqueFilter@@UAE@XZ PROC				; VuOpaqueFilter::~VuOpaqueFilter
; _this$ = ecx

; 12   : VuOpaqueFilter::~VuOpaqueFilter(){

	push	ebp
	mov	ebp, esp
	push	ecx
	mov	DWORD PTR _this$[ebp], ecx
	mov	eax, DWORD PTR _this$[ebp]
	mov	DWORD PTR [eax], OFFSET ??_7VuOpaqueFilter@@6B@

; 13   : }

	mov	ecx, DWORD PTR _this$[ebp]
	call	??1VuFilter@@UAE@XZ			; VuFilter::~VuFilter
	mov	esp, ebp
	pop	ebp
	ret	0
??1VuOpaqueFilter@@UAE@XZ ENDP				; VuOpaqueFilter::~VuOpaqueFilter
_TEXT	ENDS
; Function compile flags: /Odtp
; File c:\users\zhitao li\documents\visual studio 2012\projects\freefalcon\vu2\src\vu_opaque_filter.cpp
_TEXT	SEGMENT
_this$ = -4						; size = 4
??0VuOpaqueFilter@@QAE@XZ PROC				; VuOpaqueFilter::VuOpaqueFilter
; _this$ = ecx

; 6    : VuOpaqueFilter::VuOpaqueFilter() : VuFilter(){

	push	ebp
	mov	ebp, esp
	push	ecx
	mov	DWORD PTR _this$[ebp], ecx
	mov	ecx, DWORD PTR _this$[ebp]
	call	??0VuFilter@@IAE@XZ			; VuFilter::VuFilter
	mov	eax, DWORD PTR _this$[ebp]
	mov	DWORD PTR [eax], OFFSET ??_7VuOpaqueFilter@@6B@

; 7    : }

	mov	eax, DWORD PTR _this$[ebp]
	mov	esp, ebp
	pop	ebp
	ret	0
??0VuOpaqueFilter@@QAE@XZ ENDP				; VuOpaqueFilter::VuOpaqueFilter
_TEXT	ENDS
; Function compile flags: /Odtp
;	COMDAT ??_GVuFilter@@UAEPAXI@Z
_TEXT	SEGMENT
_this$ = -4						; size = 4
___flags$ = 8						; size = 4
??_GVuFilter@@UAEPAXI@Z PROC				; VuFilter::`scalar deleting destructor', COMDAT
; _this$ = ecx
	push	ebp
	mov	ebp, esp
	push	ecx
	mov	DWORD PTR _this$[ebp], ecx
	mov	ecx, DWORD PTR _this$[ebp]
	call	??1VuFilter@@UAE@XZ			; VuFilter::~VuFilter
	mov	eax, DWORD PTR ___flags$[ebp]
	and	eax, 1
	je	SHORT $LN1@scalar
	mov	ecx, DWORD PTR _this$[ebp]
	push	ecx
	call	??3@YAXPAX@Z				; operator delete
	add	esp, 4
$LN1@scalar:
	mov	eax, DWORD PTR _this$[ebp]
	mov	esp, ebp
	pop	ebp
	ret	4
??_GVuFilter@@UAEPAXI@Z ENDP				; VuFilter::`scalar deleting destructor'
_TEXT	ENDS
; Function compile flags: /Odtp
; File c:\users\zhitao li\documents\visual studio 2012\projects\freefalcon\vu2\include\vu_filter.h
;	COMDAT ??0VuFilter@@IAE@PAV0@@Z
_TEXT	SEGMENT
_this$ = -4						; size = 4
___formal$ = 8						; size = 4
??0VuFilter@@IAE@PAV0@@Z PROC				; VuFilter::VuFilter, COMDAT
; _this$ = ecx

; 42   : 	VuFilter(VuFilter *) {}

	push	ebp
	mov	ebp, esp
	push	ecx
	mov	DWORD PTR _this$[ebp], ecx
	mov	eax, DWORD PTR _this$[ebp]
	mov	DWORD PTR [eax], OFFSET ??_7VuFilter@@6B@
	mov	eax, DWORD PTR _this$[ebp]
	mov	esp, ebp
	pop	ebp
	ret	4
??0VuFilter@@IAE@PAV0@@Z ENDP				; VuFilter::VuFilter
_TEXT	ENDS
; Function compile flags: /Odtp
; File c:\users\zhitao li\documents\visual studio 2012\projects\freefalcon\vu2\include\vu_filter.h
;	COMDAT ??0VuFilter@@IAE@XZ
_TEXT	SEGMENT
_this$ = -4						; size = 4
??0VuFilter@@IAE@XZ PROC				; VuFilter::VuFilter, COMDAT
; _this$ = ecx

; 40   : 	VuFilter() {}

	push	ebp
	mov	ebp, esp
	push	ecx
	mov	DWORD PTR _this$[ebp], ecx
	mov	eax, DWORD PTR _this$[ebp]
	mov	DWORD PTR [eax], OFFSET ??_7VuFilter@@6B@
	mov	eax, DWORD PTR _this$[ebp]
	mov	esp, ebp
	pop	ebp
	ret	0
??0VuFilter@@IAE@XZ ENDP				; VuFilter::VuFilter
_TEXT	ENDS
; Function compile flags: /Odtp
; File c:\users\zhitao li\documents\visual studio 2012\projects\freefalcon\vu2\include\vuentity.h
;	COMDAT ?Id@VuEntity@@QBE?AVVU_ID@@XZ
_TEXT	SEGMENT
_this$ = -4						; size = 4
___$ReturnUdt$ = 8					; size = 4
?Id@VuEntity@@QBE?AVVU_ID@@XZ PROC			; VuEntity::Id, COMDAT
; _this$ = ecx

; 131  : 	VU_ID Id() const	{ return share_.id_; }

	push	ebp
	mov	ebp, esp
	push	ecx
	mov	DWORD PTR _this$[ebp], ecx
	mov	eax, DWORD PTR _this$[ebp]
	mov	ecx, DWORD PTR [eax+12]
	mov	edx, DWORD PTR [eax+16]
	mov	eax, DWORD PTR ___$ReturnUdt$[ebp]
	mov	DWORD PTR [eax], ecx
	mov	DWORD PTR [eax+4], edx
	mov	eax, DWORD PTR ___$ReturnUdt$[ebp]
	mov	esp, ebp
	pop	ebp
	ret	4
?Id@VuEntity@@QBE?AVVU_ID@@XZ ENDP			; VuEntity::Id
_TEXT	ENDS
; Function compile flags: /Odtp
; File c:\users\zhitao li\documents\visual studio 2012\projects\freefalcon\falclib\include\vutypes.h
;	COMDAT ??BVU_ID@@QBEKXZ
_TEXT	SEGMENT
_this$ = -4						; size = 4
??BVU_ID@@QBEKXZ PROC					; VU_ID::operator unsigned long, COMDAT
; _this$ = ecx

; 162  : 	operator VU_KEY() const { 

	push	ebp
	mov	ebp, esp
	push	ecx
	mov	DWORD PTR _this$[ebp], ecx

; 163  : 		return (VU_KEY)(((unsigned short)creator_ << 16) | ((unsigned short)num_)); 

	mov	ecx, DWORD PTR _this$[ebp]
	add	ecx, 4
	call	??BVU_SESSION_ID@@QBEKXZ		; VU_SESSION_ID::operator unsigned long
	movzx	eax, ax
	shl	eax, 16					; 00000010H
	mov	ecx, DWORD PTR _this$[ebp]
	movzx	edx, WORD PTR [ecx]
	or	eax, edx

; 164  : 	}

	mov	esp, ebp
	pop	ebp
	ret	0
??BVU_ID@@QBEKXZ ENDP					; VU_ID::operator unsigned long
_TEXT	ENDS
; Function compile flags: /Odtp
; File c:\users\zhitao li\documents\visual studio 2012\projects\freefalcon\falclib\include\vutypes.h
;	COMDAT ??BVU_SESSION_ID@@QBEKXZ
_TEXT	SEGMENT
_this$ = -4						; size = 4
??BVU_SESSION_ID@@QBEKXZ PROC				; VU_SESSION_ID::operator unsigned long, COMDAT
; _this$ = ecx

; 79   : 	operator unsigned long() const { 

	push	ebp
	mov	ebp, esp
	push	ecx
	mov	DWORD PTR _this$[ebp], ecx

; 80   : 		return (unsigned long) value_; 

	mov	eax, DWORD PTR _this$[ebp]
	mov	eax, DWORD PTR [eax]

; 81   : 	}

	mov	esp, ebp
	pop	ebp
	ret	0
??BVU_SESSION_ID@@QBEKXZ ENDP				; VU_SESSION_ID::operator unsigned long
_TEXT	ENDS
END
