; Listing generated by Microsoft (R) Optimizing Compiler Version 17.00.51106.1 

	TITLE	C:\Users\Zhitao Li\Documents\Visual Studio 2012\Projects\Freefalcon\vu2\src\vuentity.cpp
	.686P
	.XMM
	include listing.inc
	.model	flat

INCLUDELIB LIBCMT
INCLUDELIB OLDNAMES

PUBLIC	?is_signed@?$numeric_limits@G@std@@2_NB		; std::numeric_limits<unsigned short>::is_signed
PUBLIC	?digits@?$numeric_limits@G@std@@2HB		; std::numeric_limits<unsigned short>::digits
PUBLIC	?digits10@?$numeric_limits@G@std@@2HB		; std::numeric_limits<unsigned short>::digits10
PUBLIC	?collate@?$_Locbase@H@std@@2HB			; std::_Locbase<int>::collate
PUBLIC	?ctype@?$_Locbase@H@std@@2HB			; std::_Locbase<int>::ctype
PUBLIC	?monetary@?$_Locbase@H@std@@2HB			; std::_Locbase<int>::monetary
PUBLIC	?numeric@?$_Locbase@H@std@@2HB			; std::_Locbase<int>::numeric
PUBLIC	?time@?$_Locbase@H@std@@2HB			; std::_Locbase<int>::time
PUBLIC	?messages@?$_Locbase@H@std@@2HB			; std::_Locbase<int>::messages
PUBLIC	?all@?$_Locbase@H@std@@2HB			; std::_Locbase<int>::all
PUBLIC	?none@?$_Locbase@H@std@@2HB			; std::_Locbase<int>::none
PUBLIC	?is_signed@?$numeric_limits@H@std@@2_NB		; std::numeric_limits<int>::is_signed
PUBLIC	?value@?$_Sizeof@HU_Nil@std@@U12@U12@U12@U12@U12@U12@@std@@2IB ; std::_Sizeof<int,std::_Nil,std::_Nil,std::_Nil,std::_Nil,std::_Nil,std::_Nil,std::_Nil>::value
PUBLIC	?digits@?$numeric_limits@H@std@@2HB		; std::numeric_limits<int>::digits
PUBLIC	?digits10@?$numeric_limits@H@std@@2HB		; std::numeric_limits<int>::digits10
PUBLIC	?is_signed@?$numeric_limits@I@std@@2_NB		; std::numeric_limits<unsigned int>::is_signed
PUBLIC	?digits@?$numeric_limits@I@std@@2HB		; std::numeric_limits<unsigned int>::digits
PUBLIC	?digits10@?$numeric_limits@I@std@@2HB		; std::numeric_limits<unsigned int>::digits10
PUBLIC	?is_signed@?$numeric_limits@J@std@@2_NB		; std::numeric_limits<long>::is_signed
PUBLIC	?digits@?$numeric_limits@J@std@@2HB		; std::numeric_limits<long>::digits
PUBLIC	?digits10@?$numeric_limits@J@std@@2HB		; std::numeric_limits<long>::digits10
PUBLIC	?table_size@?$ctype@D@std@@2IB			; std::ctype<char>::table_size
PUBLIC	?is_signed@?$numeric_limits@K@std@@2_NB		; std::numeric_limits<unsigned long>::is_signed
PUBLIC	?digits@?$numeric_limits@K@std@@2HB		; std::numeric_limits<unsigned long>::digits
PUBLIC	?digits10@?$numeric_limits@K@std@@2HB		; std::numeric_limits<unsigned long>::digits10
PUBLIC	?is_signed@?$numeric_limits@_J@std@@2_NB	; std::numeric_limits<__int64>::is_signed
PUBLIC	?digits@?$numeric_limits@_J@std@@2HB		; std::numeric_limits<__int64>::digits
PUBLIC	?digits10@?$numeric_limits@_J@std@@2HB		; std::numeric_limits<__int64>::digits10
PUBLIC	?is_signed@?$numeric_limits@_K@std@@2_NB	; std::numeric_limits<unsigned __int64>::is_signed
PUBLIC	?digits@?$numeric_limits@_K@std@@2HB		; std::numeric_limits<unsigned __int64>::digits
PUBLIC	?digits10@?$numeric_limits@_K@std@@2HB		; std::numeric_limits<unsigned __int64>::digits10
PUBLIC	?digits@?$numeric_limits@M@std@@2HB		; std::numeric_limits<float>::digits
PUBLIC	?digits10@?$numeric_limits@M@std@@2HB		; std::numeric_limits<float>::digits10
PUBLIC	?max_digits10@?$numeric_limits@M@std@@2HB	; std::numeric_limits<float>::max_digits10
PUBLIC	?max_exponent@?$numeric_limits@M@std@@2HB	; std::numeric_limits<float>::max_exponent
PUBLIC	?max_exponent10@?$numeric_limits@M@std@@2HB	; std::numeric_limits<float>::max_exponent10
PUBLIC	?min_exponent@?$numeric_limits@M@std@@2HB	; std::numeric_limits<float>::min_exponent
PUBLIC	?min_exponent10@?$numeric_limits@M@std@@2HB	; std::numeric_limits<float>::min_exponent10
PUBLIC	?value@?$integral_constant@I$0A@@std@@2IB	; std::integral_constant<unsigned int,0>::value
PUBLIC	?digits@?$numeric_limits@N@std@@2HB		; std::numeric_limits<double>::digits
PUBLIC	?digits10@?$numeric_limits@N@std@@2HB		; std::numeric_limits<double>::digits10
PUBLIC	?max_digits10@?$numeric_limits@N@std@@2HB	; std::numeric_limits<double>::max_digits10
PUBLIC	?max_exponent@?$numeric_limits@N@std@@2HB	; std::numeric_limits<double>::max_exponent
PUBLIC	?max_exponent10@?$numeric_limits@N@std@@2HB	; std::numeric_limits<double>::max_exponent10
PUBLIC	?min_exponent@?$numeric_limits@N@std@@2HB	; std::numeric_limits<double>::min_exponent
PUBLIC	?min_exponent10@?$numeric_limits@N@std@@2HB	; std::numeric_limits<double>::min_exponent10
PUBLIC	?digits@?$numeric_limits@O@std@@2HB		; std::numeric_limits<long double>::digits
PUBLIC	?digits10@?$numeric_limits@O@std@@2HB		; std::numeric_limits<long double>::digits10
PUBLIC	?max_digits10@?$numeric_limits@O@std@@2HB	; std::numeric_limits<long double>::max_digits10
PUBLIC	?max_exponent@?$numeric_limits@O@std@@2HB	; std::numeric_limits<long double>::max_exponent
PUBLIC	?max_exponent10@?$numeric_limits@O@std@@2HB	; std::numeric_limits<long double>::max_exponent10
PUBLIC	?min_exponent@?$numeric_limits@O@std@@2HB	; std::numeric_limits<long double>::min_exponent
PUBLIC	?min_exponent10@?$numeric_limits@O@std@@2HB	; std::numeric_limits<long double>::min_exponent10
PUBLIC	?value@?$_Sizeof@U_Nil@std@@U12@U12@U12@U12@U12@U12@U12@@std@@2IB ; std::_Sizeof<std::_Nil,std::_Nil,std::_Nil,std::_Nil,std::_Nil,std::_Nil,std::_Nil,std::_Nil>::value
PUBLIC	?skipws@?$_Iosb@H@std@@2W4_Fmtflags@12@B	; std::_Iosb<int>::skipws
PUBLIC	?unitbuf@?$_Iosb@H@std@@2W4_Fmtflags@12@B	; std::_Iosb<int>::unitbuf
PUBLIC	?uppercase@?$_Iosb@H@std@@2W4_Fmtflags@12@B	; std::_Iosb<int>::uppercase
PUBLIC	?showbase@?$_Iosb@H@std@@2W4_Fmtflags@12@B	; std::_Iosb<int>::showbase
PUBLIC	?has_denorm@_Num_base@std@@2W4float_denorm_style@2@B ; std::_Num_base::has_denorm
PUBLIC	?has_denorm_loss@_Num_base@std@@2_NB		; std::_Num_base::has_denorm_loss
PUBLIC	?showpoint@?$_Iosb@H@std@@2W4_Fmtflags@12@B	; std::_Iosb<int>::showpoint
PUBLIC	?has_infinity@_Num_base@std@@2_NB		; std::_Num_base::has_infinity
PUBLIC	?showpos@?$_Iosb@H@std@@2W4_Fmtflags@12@B	; std::_Iosb<int>::showpos
PUBLIC	?has_quiet_NaN@_Num_base@std@@2_NB		; std::_Num_base::has_quiet_NaN
PUBLIC	?left@?$_Iosb@H@std@@2W4_Fmtflags@12@B		; std::_Iosb<int>::left
PUBLIC	?right@?$_Iosb@H@std@@2W4_Fmtflags@12@B		; std::_Iosb<int>::right
PUBLIC	?has_signaling_NaN@_Num_base@std@@2_NB		; std::_Num_base::has_signaling_NaN
PUBLIC	?internal@?$_Iosb@H@std@@2W4_Fmtflags@12@B	; std::_Iosb<int>::internal
PUBLIC	?is_bounded@_Num_base@std@@2_NB			; std::_Num_base::is_bounded
PUBLIC	?dec@?$_Iosb@H@std@@2W4_Fmtflags@12@B		; std::_Iosb<int>::dec
PUBLIC	?is_exact@_Num_base@std@@2_NB			; std::_Num_base::is_exact
PUBLIC	?is_iec559@_Num_base@std@@2_NB			; std::_Num_base::is_iec559
PUBLIC	?oct@?$_Iosb@H@std@@2W4_Fmtflags@12@B		; std::_Iosb<int>::oct
PUBLIC	?is_integer@_Num_base@std@@2_NB			; std::_Num_base::is_integer
PUBLIC	?hex@?$_Iosb@H@std@@2W4_Fmtflags@12@B		; std::_Iosb<int>::hex
PUBLIC	?scientific@?$_Iosb@H@std@@2W4_Fmtflags@12@B	; std::_Iosb<int>::scientific
PUBLIC	?is_modulo@_Num_base@std@@2_NB			; std::_Num_base::is_modulo
PUBLIC	?fixed@?$_Iosb@H@std@@2W4_Fmtflags@12@B		; std::_Iosb<int>::fixed
PUBLIC	?is_signed@_Num_base@std@@2_NB			; std::_Num_base::is_signed
PUBLIC	?hexfloat@?$_Iosb@H@std@@2W4_Fmtflags@12@B	; std::_Iosb<int>::hexfloat
PUBLIC	?is_specialized@_Num_base@std@@2_NB		; std::_Num_base::is_specialized
PUBLIC	?boolalpha@?$_Iosb@H@std@@2W4_Fmtflags@12@B	; std::_Iosb<int>::boolalpha
PUBLIC	?tinyness_before@_Num_base@std@@2_NB		; std::_Num_base::tinyness_before
PUBLIC	?_Stdio@?$_Iosb@H@std@@2W4_Fmtflags@12@B	; std::_Iosb<int>::_Stdio
PUBLIC	?traps@_Num_base@std@@2_NB			; std::_Num_base::traps
PUBLIC	?adjustfield@?$_Iosb@H@std@@2W4_Fmtflags@12@B	; std::_Iosb<int>::adjustfield
PUBLIC	?round_style@_Num_base@std@@2W4float_round_style@2@B ; std::_Num_base::round_style
PUBLIC	?basefield@?$_Iosb@H@std@@2W4_Fmtflags@12@B	; std::_Iosb<int>::basefield
PUBLIC	?digits@_Num_base@std@@2HB			; std::_Num_base::digits
PUBLIC	?floatfield@?$_Iosb@H@std@@2W4_Fmtflags@12@B	; std::_Iosb<int>::floatfield
PUBLIC	?digits10@_Num_base@std@@2HB			; std::_Num_base::digits10
PUBLIC	?max_digits10@_Num_base@std@@2HB		; std::_Num_base::max_digits10
PUBLIC	?goodbit@?$_Iosb@H@std@@2W4_Iostate@12@B	; std::_Iosb<int>::goodbit
PUBLIC	?max_exponent@_Num_base@std@@2HB		; std::_Num_base::max_exponent
PUBLIC	?eofbit@?$_Iosb@H@std@@2W4_Iostate@12@B		; std::_Iosb<int>::eofbit
PUBLIC	?max_exponent10@_Num_base@std@@2HB		; std::_Num_base::max_exponent10
PUBLIC	?failbit@?$_Iosb@H@std@@2W4_Iostate@12@B	; std::_Iosb<int>::failbit
PUBLIC	?min_exponent@_Num_base@std@@2HB		; std::_Num_base::min_exponent
PUBLIC	?badbit@?$_Iosb@H@std@@2W4_Iostate@12@B		; std::_Iosb<int>::badbit
PUBLIC	?min_exponent10@_Num_base@std@@2HB		; std::_Num_base::min_exponent10
PUBLIC	?_Hardfail@?$_Iosb@H@std@@2W4_Iostate@12@B	; std::_Iosb<int>::_Hardfail
PUBLIC	?radix@_Num_base@std@@2HB			; std::_Num_base::radix
PUBLIC	?in@?$_Iosb@H@std@@2W4_Openmode@12@B		; std::_Iosb<int>::in
PUBLIC	?out@?$_Iosb@H@std@@2W4_Openmode@12@B		; std::_Iosb<int>::out
PUBLIC	?ate@?$_Iosb@H@std@@2W4_Openmode@12@B		; std::_Iosb<int>::ate
PUBLIC	?app@?$_Iosb@H@std@@2W4_Openmode@12@B		; std::_Iosb<int>::app
PUBLIC	?trunc@?$_Iosb@H@std@@2W4_Openmode@12@B		; std::_Iosb<int>::trunc
PUBLIC	?_Nocreate@?$_Iosb@H@std@@2W4_Openmode@12@B	; std::_Iosb<int>::_Nocreate
PUBLIC	?_Noreplace@?$_Iosb@H@std@@2W4_Openmode@12@B	; std::_Iosb<int>::_Noreplace
PUBLIC	?binary@?$_Iosb@H@std@@2W4_Openmode@12@B	; std::_Iosb<int>::binary
PUBLIC	?beg@?$_Iosb@H@std@@2W4_Seekdir@12@B		; std::_Iosb<int>::beg
PUBLIC	?is_bounded@_Num_int_base@std@@2_NB		; std::_Num_int_base::is_bounded
PUBLIC	?cur@?$_Iosb@H@std@@2W4_Seekdir@12@B		; std::_Iosb<int>::cur
PUBLIC	?is_exact@_Num_int_base@std@@2_NB		; std::_Num_int_base::is_exact
PUBLIC	?is_integer@_Num_int_base@std@@2_NB		; std::_Num_int_base::is_integer
PUBLIC	?end@?$_Iosb@H@std@@2W4_Seekdir@12@B		; std::_Iosb<int>::end
PUBLIC	?is_modulo@_Num_int_base@std@@2_NB		; std::_Num_int_base::is_modulo
PUBLIC	?is_specialized@_Num_int_base@std@@2_NB		; std::_Num_int_base::is_specialized
PUBLIC	?radix@_Num_int_base@std@@2HB			; std::_Num_int_base::radix
PUBLIC	?has_denorm@_Num_float_base@std@@2W4float_denorm_style@2@B ; std::_Num_float_base::has_denorm
PUBLIC	?has_denorm_loss@_Num_float_base@std@@2_NB	; std::_Num_float_base::has_denorm_loss
PUBLIC	?has_infinity@_Num_float_base@std@@2_NB		; std::_Num_float_base::has_infinity
PUBLIC	?has_quiet_NaN@_Num_float_base@std@@2_NB	; std::_Num_float_base::has_quiet_NaN
PUBLIC	?_Stream_err@failure@ios_base@std@@0W4io_errc@43@B ; std::ios_base::failure::_Stream_err
PUBLIC	?has_signaling_NaN@_Num_float_base@std@@2_NB	; std::_Num_float_base::has_signaling_NaN
PUBLIC	?is_bounded@_Num_float_base@std@@2_NB		; std::_Num_float_base::is_bounded
PUBLIC	?is_exact@_Num_float_base@std@@2_NB		; std::_Num_float_base::is_exact
PUBLIC	?is_iec559@_Num_float_base@std@@2_NB		; std::_Num_float_base::is_iec559
PUBLIC	?is_integer@_Num_float_base@std@@2_NB		; std::_Num_float_base::is_integer
PUBLIC	?is_modulo@_Num_float_base@std@@2_NB		; std::_Num_float_base::is_modulo
PUBLIC	?is_signed@_Num_float_base@std@@2_NB		; std::_Num_float_base::is_signed
PUBLIC	?is_specialized@_Num_float_base@std@@2_NB	; std::_Num_float_base::is_specialized
PUBLIC	?tinyness_before@_Num_float_base@std@@2_NB	; std::_Num_float_base::tinyness_before
PUBLIC	?traps@_Num_float_base@std@@2_NB		; std::_Num_float_base::traps
PUBLIC	?round_style@_Num_float_base@std@@2W4float_round_style@2@B ; std::_Num_float_base::round_style
PUBLIC	?radix@_Num_float_base@std@@2HB			; std::_Num_float_base::radix
PUBLIC	?is_signed@?$numeric_limits@D@std@@2_NB		; std::numeric_limits<char>::is_signed
PUBLIC	?digits@?$numeric_limits@D@std@@2HB		; std::numeric_limits<char>::digits
PUBLIC	?digits10@?$numeric_limits@D@std@@2HB		; std::numeric_limits<char>::digits10
PUBLIC	?value@?$integral_constant@_N$0A@@std@@2_NB	; std::integral_constant<bool,0>::value
PUBLIC	?is_signed@?$numeric_limits@_W@std@@2_NB	; std::numeric_limits<wchar_t>::is_signed
PUBLIC	?digits@?$numeric_limits@_W@std@@2HB		; std::numeric_limits<wchar_t>::digits
PUBLIC	?digits10@?$numeric_limits@_W@std@@2HB		; std::numeric_limits<wchar_t>::digits10
PUBLIC	?value@?$integral_constant@_N$00@std@@2_NB	; std::integral_constant<bool,1>::value
PUBLIC	?is_modulo@?$numeric_limits@_N@std@@2_NB	; std::numeric_limits<bool>::is_modulo
PUBLIC	?is_signed@?$numeric_limits@_N@std@@2_NB	; std::numeric_limits<bool>::is_signed
PUBLIC	?digits@?$numeric_limits@_N@std@@2HB		; std::numeric_limits<bool>::digits
PUBLIC	?digits10@?$numeric_limits@_N@std@@2HB		; std::numeric_limits<bool>::digits10
PUBLIC	?is_signed@?$numeric_limits@C@std@@2_NB		; std::numeric_limits<signed char>::is_signed
PUBLIC	?digits@?$numeric_limits@C@std@@2HB		; std::numeric_limits<signed char>::digits
PUBLIC	?digits10@?$numeric_limits@C@std@@2HB		; std::numeric_limits<signed char>::digits10
PUBLIC	?is_signed@?$numeric_limits@E@std@@2_NB		; std::numeric_limits<unsigned char>::is_signed
PUBLIC	?digits@?$numeric_limits@E@std@@2HB		; std::numeric_limits<unsigned char>::digits
PUBLIC	?digits10@?$numeric_limits@E@std@@2HB		; std::numeric_limits<unsigned char>::digits10
PUBLIC	?is_signed@?$numeric_limits@F@std@@2_NB		; std::numeric_limits<short>::is_signed
PUBLIC	?digits@?$numeric_limits@F@std@@2HB		; std::numeric_limits<short>::digits
PUBLIC	?digits10@?$numeric_limits@F@std@@2HB		; std::numeric_limits<short>::digits10
;	COMDAT ?digits10@?$numeric_limits@F@std@@2HB
CONST	SEGMENT
?digits10@?$numeric_limits@F@std@@2HB DD 04H		; std::numeric_limits<short>::digits10
CONST	ENDS
;	COMDAT ?digits@?$numeric_limits@F@std@@2HB
CONST	SEGMENT
?digits@?$numeric_limits@F@std@@2HB DD 0fH		; std::numeric_limits<short>::digits
CONST	ENDS
;	COMDAT ?is_signed@?$numeric_limits@F@std@@2_NB
CONST	SEGMENT
?is_signed@?$numeric_limits@F@std@@2_NB DB 01H		; std::numeric_limits<short>::is_signed
CONST	ENDS
;	COMDAT ?digits10@?$numeric_limits@E@std@@2HB
CONST	SEGMENT
?digits10@?$numeric_limits@E@std@@2HB DD 02H		; std::numeric_limits<unsigned char>::digits10
CONST	ENDS
;	COMDAT ?digits@?$numeric_limits@E@std@@2HB
CONST	SEGMENT
?digits@?$numeric_limits@E@std@@2HB DD 08H		; std::numeric_limits<unsigned char>::digits
CONST	ENDS
;	COMDAT ?is_signed@?$numeric_limits@E@std@@2_NB
CONST	SEGMENT
?is_signed@?$numeric_limits@E@std@@2_NB DB 00H		; std::numeric_limits<unsigned char>::is_signed
CONST	ENDS
;	COMDAT ?digits10@?$numeric_limits@C@std@@2HB
CONST	SEGMENT
?digits10@?$numeric_limits@C@std@@2HB DD 02H		; std::numeric_limits<signed char>::digits10
CONST	ENDS
;	COMDAT ?digits@?$numeric_limits@C@std@@2HB
CONST	SEGMENT
?digits@?$numeric_limits@C@std@@2HB DD 07H		; std::numeric_limits<signed char>::digits
CONST	ENDS
;	COMDAT ?is_signed@?$numeric_limits@C@std@@2_NB
CONST	SEGMENT
?is_signed@?$numeric_limits@C@std@@2_NB DB 01H		; std::numeric_limits<signed char>::is_signed
CONST	ENDS
;	COMDAT ?digits10@?$numeric_limits@_N@std@@2HB
CONST	SEGMENT
?digits10@?$numeric_limits@_N@std@@2HB DD 00H		; std::numeric_limits<bool>::digits10
CONST	ENDS
;	COMDAT ?digits@?$numeric_limits@_N@std@@2HB
CONST	SEGMENT
?digits@?$numeric_limits@_N@std@@2HB DD 01H		; std::numeric_limits<bool>::digits
CONST	ENDS
;	COMDAT ?is_signed@?$numeric_limits@_N@std@@2_NB
CONST	SEGMENT
?is_signed@?$numeric_limits@_N@std@@2_NB DB 00H		; std::numeric_limits<bool>::is_signed
CONST	ENDS
;	COMDAT ?is_modulo@?$numeric_limits@_N@std@@2_NB
CONST	SEGMENT
?is_modulo@?$numeric_limits@_N@std@@2_NB DB 00H		; std::numeric_limits<bool>::is_modulo
CONST	ENDS
;	COMDAT ?value@?$integral_constant@_N$00@std@@2_NB
CONST	SEGMENT
?value@?$integral_constant@_N$00@std@@2_NB DB 01H	; std::integral_constant<bool,1>::value
CONST	ENDS
;	COMDAT ?digits10@?$numeric_limits@_W@std@@2HB
CONST	SEGMENT
?digits10@?$numeric_limits@_W@std@@2HB DD 04H		; std::numeric_limits<wchar_t>::digits10
CONST	ENDS
;	COMDAT ?digits@?$numeric_limits@_W@std@@2HB
CONST	SEGMENT
?digits@?$numeric_limits@_W@std@@2HB DD 010H		; std::numeric_limits<wchar_t>::digits
CONST	ENDS
;	COMDAT ?is_signed@?$numeric_limits@_W@std@@2_NB
CONST	SEGMENT
?is_signed@?$numeric_limits@_W@std@@2_NB DB 00H		; std::numeric_limits<wchar_t>::is_signed
CONST	ENDS
;	COMDAT ?value@?$integral_constant@_N$0A@@std@@2_NB
CONST	SEGMENT
?value@?$integral_constant@_N$0A@@std@@2_NB DB 00H	; std::integral_constant<bool,0>::value
CONST	ENDS
;	COMDAT ?digits10@?$numeric_limits@D@std@@2HB
CONST	SEGMENT
?digits10@?$numeric_limits@D@std@@2HB DD 02H		; std::numeric_limits<char>::digits10
CONST	ENDS
;	COMDAT ?digits@?$numeric_limits@D@std@@2HB
CONST	SEGMENT
?digits@?$numeric_limits@D@std@@2HB DD 07H		; std::numeric_limits<char>::digits
CONST	ENDS
;	COMDAT ?is_signed@?$numeric_limits@D@std@@2_NB
CONST	SEGMENT
?is_signed@?$numeric_limits@D@std@@2_NB DB 01H		; std::numeric_limits<char>::is_signed
CONST	ENDS
CONST	SEGMENT
_L_2	DD	03f317218r			; 0.693147
CONST	ENDS
;	COMDAT ?radix@_Num_float_base@std@@2HB
CONST	SEGMENT
?radix@_Num_float_base@std@@2HB DD 02H			; std::_Num_float_base::radix
CONST	ENDS
;	COMDAT ?round_style@_Num_float_base@std@@2W4float_round_style@2@B
CONST	SEGMENT
?round_style@_Num_float_base@std@@2W4float_round_style@2@B DD 01H ; std::_Num_float_base::round_style
CONST	ENDS
;	COMDAT ?traps@_Num_float_base@std@@2_NB
CONST	SEGMENT
?traps@_Num_float_base@std@@2_NB DB 00H			; std::_Num_float_base::traps
CONST	ENDS
;	COMDAT ?tinyness_before@_Num_float_base@std@@2_NB
CONST	SEGMENT
?tinyness_before@_Num_float_base@std@@2_NB DB 01H	; std::_Num_float_base::tinyness_before
CONST	ENDS
;	COMDAT ?is_specialized@_Num_float_base@std@@2_NB
CONST	SEGMENT
?is_specialized@_Num_float_base@std@@2_NB DB 01H	; std::_Num_float_base::is_specialized
CONST	ENDS
;	COMDAT ?is_signed@_Num_float_base@std@@2_NB
CONST	SEGMENT
?is_signed@_Num_float_base@std@@2_NB DB 01H		; std::_Num_float_base::is_signed
CONST	ENDS
;	COMDAT ?is_modulo@_Num_float_base@std@@2_NB
CONST	SEGMENT
?is_modulo@_Num_float_base@std@@2_NB DB 00H		; std::_Num_float_base::is_modulo
CONST	ENDS
;	COMDAT ?is_integer@_Num_float_base@std@@2_NB
CONST	SEGMENT
?is_integer@_Num_float_base@std@@2_NB DB 00H		; std::_Num_float_base::is_integer
CONST	ENDS
;	COMDAT ?is_iec559@_Num_float_base@std@@2_NB
CONST	SEGMENT
?is_iec559@_Num_float_base@std@@2_NB DB 01H		; std::_Num_float_base::is_iec559
CONST	ENDS
;	COMDAT ?is_exact@_Num_float_base@std@@2_NB
CONST	SEGMENT
?is_exact@_Num_float_base@std@@2_NB DB 00H		; std::_Num_float_base::is_exact
CONST	ENDS
;	COMDAT ?is_bounded@_Num_float_base@std@@2_NB
CONST	SEGMENT
?is_bounded@_Num_float_base@std@@2_NB DB 01H		; std::_Num_float_base::is_bounded
CONST	ENDS
;	COMDAT ?has_signaling_NaN@_Num_float_base@std@@2_NB
CONST	SEGMENT
?has_signaling_NaN@_Num_float_base@std@@2_NB DB 01H	; std::_Num_float_base::has_signaling_NaN
CONST	ENDS
;	COMDAT ?_Stream_err@failure@ios_base@std@@0W4io_errc@43@B
CONST	SEGMENT
?_Stream_err@failure@ios_base@std@@0W4io_errc@43@B DD 01H ; std::ios_base::failure::_Stream_err
CONST	ENDS
;	COMDAT ?has_quiet_NaN@_Num_float_base@std@@2_NB
CONST	SEGMENT
?has_quiet_NaN@_Num_float_base@std@@2_NB DB 01H		; std::_Num_float_base::has_quiet_NaN
CONST	ENDS
;	COMDAT ?has_infinity@_Num_float_base@std@@2_NB
CONST	SEGMENT
?has_infinity@_Num_float_base@std@@2_NB DB 01H		; std::_Num_float_base::has_infinity
CONST	ENDS
;	COMDAT ?has_denorm_loss@_Num_float_base@std@@2_NB
CONST	SEGMENT
?has_denorm_loss@_Num_float_base@std@@2_NB DB 01H	; std::_Num_float_base::has_denorm_loss
CONST	ENDS
;	COMDAT ?has_denorm@_Num_float_base@std@@2W4float_denorm_style@2@B
CONST	SEGMENT
?has_denorm@_Num_float_base@std@@2W4float_denorm_style@2@B DD 01H ; std::_Num_float_base::has_denorm
CONST	ENDS
;	COMDAT ?radix@_Num_int_base@std@@2HB
CONST	SEGMENT
?radix@_Num_int_base@std@@2HB DD 02H			; std::_Num_int_base::radix
CONST	ENDS
;	COMDAT ?is_specialized@_Num_int_base@std@@2_NB
CONST	SEGMENT
?is_specialized@_Num_int_base@std@@2_NB DB 01H		; std::_Num_int_base::is_specialized
CONST	ENDS
;	COMDAT ?is_modulo@_Num_int_base@std@@2_NB
CONST	SEGMENT
?is_modulo@_Num_int_base@std@@2_NB DB 01H		; std::_Num_int_base::is_modulo
CONST	ENDS
;	COMDAT ?end@?$_Iosb@H@std@@2W4_Seekdir@12@B
CONST	SEGMENT
?end@?$_Iosb@H@std@@2W4_Seekdir@12@B DD 02H		; std::_Iosb<int>::end
CONST	ENDS
;	COMDAT ?is_integer@_Num_int_base@std@@2_NB
CONST	SEGMENT
?is_integer@_Num_int_base@std@@2_NB DB 01H		; std::_Num_int_base::is_integer
CONST	ENDS
;	COMDAT ?is_exact@_Num_int_base@std@@2_NB
CONST	SEGMENT
?is_exact@_Num_int_base@std@@2_NB DB 01H		; std::_Num_int_base::is_exact
CONST	ENDS
;	COMDAT ?cur@?$_Iosb@H@std@@2W4_Seekdir@12@B
CONST	SEGMENT
?cur@?$_Iosb@H@std@@2W4_Seekdir@12@B DD 01H		; std::_Iosb<int>::cur
CONST	ENDS
;	COMDAT ?is_bounded@_Num_int_base@std@@2_NB
CONST	SEGMENT
?is_bounded@_Num_int_base@std@@2_NB DB 01H		; std::_Num_int_base::is_bounded
CONST	ENDS
;	COMDAT ?beg@?$_Iosb@H@std@@2W4_Seekdir@12@B
CONST	SEGMENT
?beg@?$_Iosb@H@std@@2W4_Seekdir@12@B DD 00H		; std::_Iosb<int>::beg
CONST	ENDS
;	COMDAT ?binary@?$_Iosb@H@std@@2W4_Openmode@12@B
CONST	SEGMENT
?binary@?$_Iosb@H@std@@2W4_Openmode@12@B DD 020H	; std::_Iosb<int>::binary
CONST	ENDS
;	COMDAT ?_Noreplace@?$_Iosb@H@std@@2W4_Openmode@12@B
CONST	SEGMENT
?_Noreplace@?$_Iosb@H@std@@2W4_Openmode@12@B DD 080H	; std::_Iosb<int>::_Noreplace
CONST	ENDS
;	COMDAT ?_Nocreate@?$_Iosb@H@std@@2W4_Openmode@12@B
CONST	SEGMENT
?_Nocreate@?$_Iosb@H@std@@2W4_Openmode@12@B DD 040H	; std::_Iosb<int>::_Nocreate
CONST	ENDS
;	COMDAT ?trunc@?$_Iosb@H@std@@2W4_Openmode@12@B
CONST	SEGMENT
?trunc@?$_Iosb@H@std@@2W4_Openmode@12@B DD 010H		; std::_Iosb<int>::trunc
CONST	ENDS
;	COMDAT ?app@?$_Iosb@H@std@@2W4_Openmode@12@B
CONST	SEGMENT
?app@?$_Iosb@H@std@@2W4_Openmode@12@B DD 08H		; std::_Iosb<int>::app
CONST	ENDS
;	COMDAT ?ate@?$_Iosb@H@std@@2W4_Openmode@12@B
CONST	SEGMENT
?ate@?$_Iosb@H@std@@2W4_Openmode@12@B DD 04H		; std::_Iosb<int>::ate
CONST	ENDS
;	COMDAT ?out@?$_Iosb@H@std@@2W4_Openmode@12@B
CONST	SEGMENT
?out@?$_Iosb@H@std@@2W4_Openmode@12@B DD 02H		; std::_Iosb<int>::out
CONST	ENDS
;	COMDAT ?in@?$_Iosb@H@std@@2W4_Openmode@12@B
CONST	SEGMENT
?in@?$_Iosb@H@std@@2W4_Openmode@12@B DD 01H		; std::_Iosb<int>::in
CONST	ENDS
;	COMDAT ?radix@_Num_base@std@@2HB
CONST	SEGMENT
?radix@_Num_base@std@@2HB DD 00H			; std::_Num_base::radix
CONST	ENDS
;	COMDAT ?_Hardfail@?$_Iosb@H@std@@2W4_Iostate@12@B
CONST	SEGMENT
?_Hardfail@?$_Iosb@H@std@@2W4_Iostate@12@B DD 010H	; std::_Iosb<int>::_Hardfail
CONST	ENDS
;	COMDAT ?min_exponent10@_Num_base@std@@2HB
CONST	SEGMENT
?min_exponent10@_Num_base@std@@2HB DD 00H		; std::_Num_base::min_exponent10
CONST	ENDS
;	COMDAT ?badbit@?$_Iosb@H@std@@2W4_Iostate@12@B
CONST	SEGMENT
?badbit@?$_Iosb@H@std@@2W4_Iostate@12@B DD 04H		; std::_Iosb<int>::badbit
CONST	ENDS
;	COMDAT ?min_exponent@_Num_base@std@@2HB
CONST	SEGMENT
?min_exponent@_Num_base@std@@2HB DD 00H			; std::_Num_base::min_exponent
CONST	ENDS
;	COMDAT ?failbit@?$_Iosb@H@std@@2W4_Iostate@12@B
CONST	SEGMENT
?failbit@?$_Iosb@H@std@@2W4_Iostate@12@B DD 02H		; std::_Iosb<int>::failbit
CONST	ENDS
;	COMDAT ?max_exponent10@_Num_base@std@@2HB
CONST	SEGMENT
?max_exponent10@_Num_base@std@@2HB DD 00H		; std::_Num_base::max_exponent10
CONST	ENDS
;	COMDAT ?eofbit@?$_Iosb@H@std@@2W4_Iostate@12@B
CONST	SEGMENT
?eofbit@?$_Iosb@H@std@@2W4_Iostate@12@B DD 01H		; std::_Iosb<int>::eofbit
CONST	ENDS
;	COMDAT ?max_exponent@_Num_base@std@@2HB
CONST	SEGMENT
?max_exponent@_Num_base@std@@2HB DD 00H			; std::_Num_base::max_exponent
CONST	ENDS
;	COMDAT ?goodbit@?$_Iosb@H@std@@2W4_Iostate@12@B
CONST	SEGMENT
?goodbit@?$_Iosb@H@std@@2W4_Iostate@12@B DD 00H		; std::_Iosb<int>::goodbit
CONST	ENDS
;	COMDAT ?max_digits10@_Num_base@std@@2HB
CONST	SEGMENT
?max_digits10@_Num_base@std@@2HB DD 00H			; std::_Num_base::max_digits10
CONST	ENDS
;	COMDAT ?digits10@_Num_base@std@@2HB
CONST	SEGMENT
?digits10@_Num_base@std@@2HB DD 00H			; std::_Num_base::digits10
CONST	ENDS
;	COMDAT ?floatfield@?$_Iosb@H@std@@2W4_Fmtflags@12@B
CONST	SEGMENT
?floatfield@?$_Iosb@H@std@@2W4_Fmtflags@12@B DD 03000H	; std::_Iosb<int>::floatfield
CONST	ENDS
;	COMDAT ?digits@_Num_base@std@@2HB
CONST	SEGMENT
?digits@_Num_base@std@@2HB DD 00H			; std::_Num_base::digits
CONST	ENDS
;	COMDAT ?basefield@?$_Iosb@H@std@@2W4_Fmtflags@12@B
CONST	SEGMENT
?basefield@?$_Iosb@H@std@@2W4_Fmtflags@12@B DD 0e00H	; std::_Iosb<int>::basefield
CONST	ENDS
;	COMDAT ?round_style@_Num_base@std@@2W4float_round_style@2@B
CONST	SEGMENT
?round_style@_Num_base@std@@2W4float_round_style@2@B DD 00H ; std::_Num_base::round_style
CONST	ENDS
;	COMDAT ?adjustfield@?$_Iosb@H@std@@2W4_Fmtflags@12@B
CONST	SEGMENT
?adjustfield@?$_Iosb@H@std@@2W4_Fmtflags@12@B DD 01c0H	; std::_Iosb<int>::adjustfield
CONST	ENDS
;	COMDAT ?traps@_Num_base@std@@2_NB
CONST	SEGMENT
?traps@_Num_base@std@@2_NB DB 00H			; std::_Num_base::traps
CONST	ENDS
;	COMDAT ?_Stdio@?$_Iosb@H@std@@2W4_Fmtflags@12@B
CONST	SEGMENT
?_Stdio@?$_Iosb@H@std@@2W4_Fmtflags@12@B DD 08000H	; std::_Iosb<int>::_Stdio
CONST	ENDS
;	COMDAT ?tinyness_before@_Num_base@std@@2_NB
CONST	SEGMENT
?tinyness_before@_Num_base@std@@2_NB DB 00H		; std::_Num_base::tinyness_before
CONST	ENDS
;	COMDAT ?boolalpha@?$_Iosb@H@std@@2W4_Fmtflags@12@B
CONST	SEGMENT
?boolalpha@?$_Iosb@H@std@@2W4_Fmtflags@12@B DD 04000H	; std::_Iosb<int>::boolalpha
CONST	ENDS
;	COMDAT ?is_specialized@_Num_base@std@@2_NB
CONST	SEGMENT
?is_specialized@_Num_base@std@@2_NB DB 00H		; std::_Num_base::is_specialized
CONST	ENDS
;	COMDAT ?hexfloat@?$_Iosb@H@std@@2W4_Fmtflags@12@B
CONST	SEGMENT
?hexfloat@?$_Iosb@H@std@@2W4_Fmtflags@12@B DD 03000H	; std::_Iosb<int>::hexfloat
CONST	ENDS
;	COMDAT ?is_signed@_Num_base@std@@2_NB
CONST	SEGMENT
?is_signed@_Num_base@std@@2_NB DB 00H			; std::_Num_base::is_signed
CONST	ENDS
;	COMDAT ?fixed@?$_Iosb@H@std@@2W4_Fmtflags@12@B
CONST	SEGMENT
?fixed@?$_Iosb@H@std@@2W4_Fmtflags@12@B DD 02000H	; std::_Iosb<int>::fixed
CONST	ENDS
;	COMDAT ?is_modulo@_Num_base@std@@2_NB
CONST	SEGMENT
?is_modulo@_Num_base@std@@2_NB DB 00H			; std::_Num_base::is_modulo
CONST	ENDS
;	COMDAT ?scientific@?$_Iosb@H@std@@2W4_Fmtflags@12@B
CONST	SEGMENT
?scientific@?$_Iosb@H@std@@2W4_Fmtflags@12@B DD 01000H	; std::_Iosb<int>::scientific
CONST	ENDS
;	COMDAT ?hex@?$_Iosb@H@std@@2W4_Fmtflags@12@B
CONST	SEGMENT
?hex@?$_Iosb@H@std@@2W4_Fmtflags@12@B DD 0800H		; std::_Iosb<int>::hex
CONST	ENDS
;	COMDAT ?is_integer@_Num_base@std@@2_NB
CONST	SEGMENT
?is_integer@_Num_base@std@@2_NB DB 00H			; std::_Num_base::is_integer
CONST	ENDS
;	COMDAT ?oct@?$_Iosb@H@std@@2W4_Fmtflags@12@B
CONST	SEGMENT
?oct@?$_Iosb@H@std@@2W4_Fmtflags@12@B DD 0400H		; std::_Iosb<int>::oct
CONST	ENDS
;	COMDAT ?is_iec559@_Num_base@std@@2_NB
CONST	SEGMENT
?is_iec559@_Num_base@std@@2_NB DB 00H			; std::_Num_base::is_iec559
CONST	ENDS
;	COMDAT ?is_exact@_Num_base@std@@2_NB
CONST	SEGMENT
?is_exact@_Num_base@std@@2_NB DB 00H			; std::_Num_base::is_exact
CONST	ENDS
;	COMDAT ?dec@?$_Iosb@H@std@@2W4_Fmtflags@12@B
CONST	SEGMENT
?dec@?$_Iosb@H@std@@2W4_Fmtflags@12@B DD 0200H		; std::_Iosb<int>::dec
CONST	ENDS
;	COMDAT ?is_bounded@_Num_base@std@@2_NB
CONST	SEGMENT
?is_bounded@_Num_base@std@@2_NB DB 00H			; std::_Num_base::is_bounded
CONST	ENDS
;	COMDAT ?internal@?$_Iosb@H@std@@2W4_Fmtflags@12@B
CONST	SEGMENT
?internal@?$_Iosb@H@std@@2W4_Fmtflags@12@B DD 0100H	; std::_Iosb<int>::internal
CONST	ENDS
;	COMDAT ?has_signaling_NaN@_Num_base@std@@2_NB
CONST	SEGMENT
?has_signaling_NaN@_Num_base@std@@2_NB DB 00H		; std::_Num_base::has_signaling_NaN
CONST	ENDS
;	COMDAT ?right@?$_Iosb@H@std@@2W4_Fmtflags@12@B
CONST	SEGMENT
?right@?$_Iosb@H@std@@2W4_Fmtflags@12@B DD 080H		; std::_Iosb<int>::right
CONST	ENDS
;	COMDAT ?left@?$_Iosb@H@std@@2W4_Fmtflags@12@B
CONST	SEGMENT
?left@?$_Iosb@H@std@@2W4_Fmtflags@12@B DD 040H		; std::_Iosb<int>::left
CONST	ENDS
;	COMDAT ?has_quiet_NaN@_Num_base@std@@2_NB
CONST	SEGMENT
?has_quiet_NaN@_Num_base@std@@2_NB DB 00H		; std::_Num_base::has_quiet_NaN
CONST	ENDS
;	COMDAT ?showpos@?$_Iosb@H@std@@2W4_Fmtflags@12@B
CONST	SEGMENT
?showpos@?$_Iosb@H@std@@2W4_Fmtflags@12@B DD 020H	; std::_Iosb<int>::showpos
CONST	ENDS
;	COMDAT ?has_infinity@_Num_base@std@@2_NB
CONST	SEGMENT
?has_infinity@_Num_base@std@@2_NB DB 00H		; std::_Num_base::has_infinity
CONST	ENDS
;	COMDAT ?showpoint@?$_Iosb@H@std@@2W4_Fmtflags@12@B
CONST	SEGMENT
?showpoint@?$_Iosb@H@std@@2W4_Fmtflags@12@B DD 010H	; std::_Iosb<int>::showpoint
CONST	ENDS
;	COMDAT ?has_denorm_loss@_Num_base@std@@2_NB
CONST	SEGMENT
?has_denorm_loss@_Num_base@std@@2_NB DB 00H		; std::_Num_base::has_denorm_loss
CONST	ENDS
;	COMDAT ?has_denorm@_Num_base@std@@2W4float_denorm_style@2@B
CONST	SEGMENT
?has_denorm@_Num_base@std@@2W4float_denorm_style@2@B DD 00H ; std::_Num_base::has_denorm
CONST	ENDS
;	COMDAT ?showbase@?$_Iosb@H@std@@2W4_Fmtflags@12@B
CONST	SEGMENT
?showbase@?$_Iosb@H@std@@2W4_Fmtflags@12@B DD 08H	; std::_Iosb<int>::showbase
CONST	ENDS
;	COMDAT ?uppercase@?$_Iosb@H@std@@2W4_Fmtflags@12@B
CONST	SEGMENT
?uppercase@?$_Iosb@H@std@@2W4_Fmtflags@12@B DD 04H	; std::_Iosb<int>::uppercase
CONST	ENDS
;	COMDAT ?unitbuf@?$_Iosb@H@std@@2W4_Fmtflags@12@B
CONST	SEGMENT
?unitbuf@?$_Iosb@H@std@@2W4_Fmtflags@12@B DD 02H	; std::_Iosb<int>::unitbuf
CONST	ENDS
;	COMDAT ?skipws@?$_Iosb@H@std@@2W4_Fmtflags@12@B
CONST	SEGMENT
?skipws@?$_Iosb@H@std@@2W4_Fmtflags@12@B DD 01H		; std::_Iosb<int>::skipws
CONST	ENDS
;	COMDAT ?value@?$_Sizeof@U_Nil@std@@U12@U12@U12@U12@U12@U12@U12@@std@@2IB
CONST	SEGMENT
?value@?$_Sizeof@U_Nil@std@@U12@U12@U12@U12@U12@U12@U12@@std@@2IB DD 00H ; std::_Sizeof<std::_Nil,std::_Nil,std::_Nil,std::_Nil,std::_Nil,std::_Nil,std::_Nil,std::_Nil>::value
CONST	ENDS
;	COMDAT ?min_exponent10@?$numeric_limits@O@std@@2HB
CONST	SEGMENT
?min_exponent10@?$numeric_limits@O@std@@2HB DD 0fffffecdH ; std::numeric_limits<long double>::min_exponent10
CONST	ENDS
;	COMDAT ?min_exponent@?$numeric_limits@O@std@@2HB
CONST	SEGMENT
?min_exponent@?$numeric_limits@O@std@@2HB DD 0fffffc03H	; std::numeric_limits<long double>::min_exponent
CONST	ENDS
;	COMDAT ?max_exponent10@?$numeric_limits@O@std@@2HB
CONST	SEGMENT
?max_exponent10@?$numeric_limits@O@std@@2HB DD 0134H	; std::numeric_limits<long double>::max_exponent10
CONST	ENDS
;	COMDAT ?max_exponent@?$numeric_limits@O@std@@2HB
CONST	SEGMENT
?max_exponent@?$numeric_limits@O@std@@2HB DD 0400H	; std::numeric_limits<long double>::max_exponent
CONST	ENDS
;	COMDAT ?max_digits10@?$numeric_limits@O@std@@2HB
CONST	SEGMENT
?max_digits10@?$numeric_limits@O@std@@2HB DD 011H	; std::numeric_limits<long double>::max_digits10
CONST	ENDS
;	COMDAT ?digits10@?$numeric_limits@O@std@@2HB
CONST	SEGMENT
?digits10@?$numeric_limits@O@std@@2HB DD 0fH		; std::numeric_limits<long double>::digits10
CONST	ENDS
;	COMDAT ?digits@?$numeric_limits@O@std@@2HB
CONST	SEGMENT
?digits@?$numeric_limits@O@std@@2HB DD 035H		; std::numeric_limits<long double>::digits
CONST	ENDS
;	COMDAT ?min_exponent10@?$numeric_limits@N@std@@2HB
CONST	SEGMENT
?min_exponent10@?$numeric_limits@N@std@@2HB DD 0fffffecdH ; std::numeric_limits<double>::min_exponent10
CONST	ENDS
;	COMDAT ?min_exponent@?$numeric_limits@N@std@@2HB
CONST	SEGMENT
?min_exponent@?$numeric_limits@N@std@@2HB DD 0fffffc03H	; std::numeric_limits<double>::min_exponent
CONST	ENDS
;	COMDAT ?max_exponent10@?$numeric_limits@N@std@@2HB
CONST	SEGMENT
?max_exponent10@?$numeric_limits@N@std@@2HB DD 0134H	; std::numeric_limits<double>::max_exponent10
CONST	ENDS
;	COMDAT ?max_exponent@?$numeric_limits@N@std@@2HB
CONST	SEGMENT
?max_exponent@?$numeric_limits@N@std@@2HB DD 0400H	; std::numeric_limits<double>::max_exponent
CONST	ENDS
;	COMDAT ?max_digits10@?$numeric_limits@N@std@@2HB
CONST	SEGMENT
?max_digits10@?$numeric_limits@N@std@@2HB DD 011H	; std::numeric_limits<double>::max_digits10
CONST	ENDS
;	COMDAT ?digits10@?$numeric_limits@N@std@@2HB
CONST	SEGMENT
?digits10@?$numeric_limits@N@std@@2HB DD 0fH		; std::numeric_limits<double>::digits10
CONST	ENDS
;	COMDAT ?digits@?$numeric_limits@N@std@@2HB
CONST	SEGMENT
?digits@?$numeric_limits@N@std@@2HB DD 035H		; std::numeric_limits<double>::digits
CONST	ENDS
;	COMDAT ?value@?$integral_constant@I$0A@@std@@2IB
CONST	SEGMENT
?value@?$integral_constant@I$0A@@std@@2IB DD 00H	; std::integral_constant<unsigned int,0>::value
CONST	ENDS
_DATA	SEGMENT
_vuTypeTable DW	00H
	DW	00H
	DD	000000000r			; 0
	DB	00H
	DB	00H
	DB	00H
	DB	00H
	DB	00H
	DB	00H
	DB	00H
	DB	00H
	DD	00H
	DD	00H
	DD	000000000r			; 0
	DD	000000000r			; 0
	DD	000000000r			; 0
	DD	00H
	DD	00H
	DW	00H
	DW	00H
	DW	0270fH
	DB	00H
	DB	00H
	DB	01H
	DB	00H
	DB	00H
	DB	00H
	DB	00H
	ORG $+3
	DW	01H
	DW	00H
	DD	000000000r			; 0
	DB	00H
	DB	01H
	DB	00H
	DB	00H
	DB	00H
	DB	00H
	DB	00H
	DB	00H
	DD	01388H
	DD	03a98H
	DD	000000000r			; 0
	DD	000000000r			; 0
	DD	03f800000r			; 1
	DD	00H
	DD	00H
	DW	00H
	DW	00H
	DW	01H
	DB	00H
	DB	00H
	DB	00H
	DB	00H
	DB	00H
	DB	01H
	DB	01H
	ORG $+3
	DW	02H
	DW	00H
	DD	000000000r			; 0
	DB	00H
	DB	02H
	DB	00H
	DB	00H
	DB	00H
	DB	00H
	DB	00H
	DB	00H
	DD	07530H
	DD	0ea60H
	DD	000000000r			; 0
	DD	000000000r			; 0
	DD	000000000r			; 0
	DD	00H
	DD	00H
	DW	00H
	DW	00H
	DW	02H
	DB	00H
	DB	01H
	DB	00H
	DB	00H
	DB	00H
	DB	01H
	DB	00H
	ORG $+3
	DW	03H
	DW	00H
	DD	000000000r			; 0
	DB	00H
	DB	03H
	DB	00H
	DB	00H
	DB	00H
	DB	00H
	DB	00H
	DB	00H
	DD	0ea60H
	DD	01d4c0H
	DD	000000000r			; 0
	DD	000000000r			; 0
	DD	000000000r			; 0
	DD	00H
	DD	00H
	DW	00H
	DW	00H
	DW	03H
	DB	00H
	DB	00H
	DB	01H
	DB	00H
	DB	00H
	DB	00H
	DB	01H
	ORG $+3
	DW	04H
	DW	00H
	DD	000000000r			; 0
	DB	00H
	DB	04H
	DB	00H
	DB	00H
	DB	00H
	DB	00H
	DB	00H
	DB	00H
	DD	07530H
	DD	0ea60H
	DD	000000000r			; 0
	DD	000000000r			; 0
	DD	000000000r			; 0
	DD	00H
	DD	00H
	DW	00H
	DW	00H
	DW	04H
	DB	00H
	DB	01H
	DB	00H
	DB	00H
	DB	00H
	DB	01H
	DB	00H
	ORG $+3
	DW	05H
	DW	00H
	DD	000000000r			; 0
	DB	00H
	DB	05H
	DB	00H
	DB	00H
	DB	00H
	DB	00H
	DB	00H
	DB	00H
	DD	0ea60H
	DD	01d4c0H
	DD	000000000r			; 0
	DD	000000000r			; 0
	DD	000000000r			; 0
	DD	00H
	DD	00H
	DW	00H
	DW	00H
	DW	05H
	DB	00H
	DB	00H
	DB	01H
	DB	00H
	DB	00H
	DB	00H
	DB	01H
	ORG $+3
_DATA	ENDS
;	COMDAT ?min_exponent10@?$numeric_limits@M@std@@2HB
CONST	SEGMENT
?min_exponent10@?$numeric_limits@M@std@@2HB DD 0ffffffdbH ; std::numeric_limits<float>::min_exponent10
CONST	ENDS
;	COMDAT ?min_exponent@?$numeric_limits@M@std@@2HB
CONST	SEGMENT
?min_exponent@?$numeric_limits@M@std@@2HB DD 0ffffff83H	; std::numeric_limits<float>::min_exponent
CONST	ENDS
;	COMDAT ?max_exponent10@?$numeric_limits@M@std@@2HB
CONST	SEGMENT
?max_exponent10@?$numeric_limits@M@std@@2HB DD 026H	; std::numeric_limits<float>::max_exponent10
CONST	ENDS
;	COMDAT ?max_exponent@?$numeric_limits@M@std@@2HB
CONST	SEGMENT
?max_exponent@?$numeric_limits@M@std@@2HB DD 080H	; std::numeric_limits<float>::max_exponent
CONST	ENDS
;	COMDAT ?max_digits10@?$numeric_limits@M@std@@2HB
CONST	SEGMENT
?max_digits10@?$numeric_limits@M@std@@2HB DD 09H	; std::numeric_limits<float>::max_digits10
CONST	ENDS
;	COMDAT ?digits10@?$numeric_limits@M@std@@2HB
CONST	SEGMENT
?digits10@?$numeric_limits@M@std@@2HB DD 06H		; std::numeric_limits<float>::digits10
CONST	ENDS
;	COMDAT ?digits@?$numeric_limits@M@std@@2HB
CONST	SEGMENT
?digits@?$numeric_limits@M@std@@2HB DD 018H		; std::numeric_limits<float>::digits
CONST	ENDS
;	COMDAT ?digits10@?$numeric_limits@_K@std@@2HB
CONST	SEGMENT
?digits10@?$numeric_limits@_K@std@@2HB DD 013H		; std::numeric_limits<unsigned __int64>::digits10
CONST	ENDS
;	COMDAT ?digits@?$numeric_limits@_K@std@@2HB
CONST	SEGMENT
?digits@?$numeric_limits@_K@std@@2HB DD 040H		; std::numeric_limits<unsigned __int64>::digits
CONST	ENDS
;	COMDAT ?is_signed@?$numeric_limits@_K@std@@2_NB
CONST	SEGMENT
?is_signed@?$numeric_limits@_K@std@@2_NB DB 00H		; std::numeric_limits<unsigned __int64>::is_signed
CONST	ENDS
;	COMDAT ?digits10@?$numeric_limits@_J@std@@2HB
CONST	SEGMENT
?digits10@?$numeric_limits@_J@std@@2HB DD 012H		; std::numeric_limits<__int64>::digits10
CONST	ENDS
;	COMDAT ?digits@?$numeric_limits@_J@std@@2HB
CONST	SEGMENT
?digits@?$numeric_limits@_J@std@@2HB DD 03fH		; std::numeric_limits<__int64>::digits
CONST	ENDS
;	COMDAT ?is_signed@?$numeric_limits@_J@std@@2_NB
CONST	SEGMENT
?is_signed@?$numeric_limits@_J@std@@2_NB DB 01H		; std::numeric_limits<__int64>::is_signed
CONST	ENDS
;	COMDAT ?digits10@?$numeric_limits@K@std@@2HB
CONST	SEGMENT
?digits10@?$numeric_limits@K@std@@2HB DD 09H		; std::numeric_limits<unsigned long>::digits10
CONST	ENDS
;	COMDAT ?digits@?$numeric_limits@K@std@@2HB
CONST	SEGMENT
?digits@?$numeric_limits@K@std@@2HB DD 020H		; std::numeric_limits<unsigned long>::digits
CONST	ENDS
;	COMDAT ?is_signed@?$numeric_limits@K@std@@2_NB
CONST	SEGMENT
?is_signed@?$numeric_limits@K@std@@2_NB DB 00H		; std::numeric_limits<unsigned long>::is_signed
CONST	ENDS
;	COMDAT ?table_size@?$ctype@D@std@@2IB
CONST	SEGMENT
?table_size@?$ctype@D@std@@2IB DD 0100H			; std::ctype<char>::table_size
CONST	ENDS
;	COMDAT ?digits10@?$numeric_limits@J@std@@2HB
CONST	SEGMENT
?digits10@?$numeric_limits@J@std@@2HB DD 09H		; std::numeric_limits<long>::digits10
CONST	ENDS
;	COMDAT ?digits@?$numeric_limits@J@std@@2HB
CONST	SEGMENT
?digits@?$numeric_limits@J@std@@2HB DD 01fH		; std::numeric_limits<long>::digits
CONST	ENDS
;	COMDAT ?is_signed@?$numeric_limits@J@std@@2_NB
CONST	SEGMENT
?is_signed@?$numeric_limits@J@std@@2_NB DB 01H		; std::numeric_limits<long>::is_signed
CONST	ENDS
;	COMDAT ?digits10@?$numeric_limits@I@std@@2HB
CONST	SEGMENT
?digits10@?$numeric_limits@I@std@@2HB DD 09H		; std::numeric_limits<unsigned int>::digits10
CONST	ENDS
;	COMDAT ?digits@?$numeric_limits@I@std@@2HB
CONST	SEGMENT
?digits@?$numeric_limits@I@std@@2HB DD 020H		; std::numeric_limits<unsigned int>::digits
CONST	ENDS
;	COMDAT ?is_signed@?$numeric_limits@I@std@@2_NB
CONST	SEGMENT
?is_signed@?$numeric_limits@I@std@@2_NB DB 00H		; std::numeric_limits<unsigned int>::is_signed
CONST	ENDS
;	COMDAT ?digits10@?$numeric_limits@H@std@@2HB
CONST	SEGMENT
?digits10@?$numeric_limits@H@std@@2HB DD 09H		; std::numeric_limits<int>::digits10
CONST	ENDS
;	COMDAT ?digits@?$numeric_limits@H@std@@2HB
CONST	SEGMENT
?digits@?$numeric_limits@H@std@@2HB DD 01fH		; std::numeric_limits<int>::digits
CONST	ENDS
;	COMDAT ?value@?$_Sizeof@HU_Nil@std@@U12@U12@U12@U12@U12@U12@@std@@2IB
CONST	SEGMENT
?value@?$_Sizeof@HU_Nil@std@@U12@U12@U12@U12@U12@U12@@std@@2IB DD 01H ; std::_Sizeof<int,std::_Nil,std::_Nil,std::_Nil,std::_Nil,std::_Nil,std::_Nil,std::_Nil>::value
CONST	ENDS
;	COMDAT ?is_signed@?$numeric_limits@H@std@@2_NB
CONST	SEGMENT
?is_signed@?$numeric_limits@H@std@@2_NB DB 01H		; std::numeric_limits<int>::is_signed
CONST	ENDS
;	COMDAT ?none@?$_Locbase@H@std@@2HB
CONST	SEGMENT
?none@?$_Locbase@H@std@@2HB DD 00H			; std::_Locbase<int>::none
CONST	ENDS
;	COMDAT ?all@?$_Locbase@H@std@@2HB
CONST	SEGMENT
?all@?$_Locbase@H@std@@2HB DD 03fH			; std::_Locbase<int>::all
CONST	ENDS
;	COMDAT ?messages@?$_Locbase@H@std@@2HB
CONST	SEGMENT
?messages@?$_Locbase@H@std@@2HB DD 020H			; std::_Locbase<int>::messages
CONST	ENDS
;	COMDAT ?time@?$_Locbase@H@std@@2HB
CONST	SEGMENT
?time@?$_Locbase@H@std@@2HB DD 010H			; std::_Locbase<int>::time
CONST	ENDS
;	COMDAT ?numeric@?$_Locbase@H@std@@2HB
CONST	SEGMENT
?numeric@?$_Locbase@H@std@@2HB DD 08H			; std::_Locbase<int>::numeric
CONST	ENDS
;	COMDAT ?monetary@?$_Locbase@H@std@@2HB
CONST	SEGMENT
?monetary@?$_Locbase@H@std@@2HB DD 04H			; std::_Locbase<int>::monetary
CONST	ENDS
;	COMDAT ?ctype@?$_Locbase@H@std@@2HB
CONST	SEGMENT
?ctype@?$_Locbase@H@std@@2HB DD 02H			; std::_Locbase<int>::ctype
CONST	ENDS
;	COMDAT ?collate@?$_Locbase@H@std@@2HB
CONST	SEGMENT
?collate@?$_Locbase@H@std@@2HB DD 01H			; std::_Locbase<int>::collate
CONST	ENDS
;	COMDAT ?digits10@?$numeric_limits@G@std@@2HB
CONST	SEGMENT
?digits10@?$numeric_limits@G@std@@2HB DD 04H		; std::numeric_limits<unsigned short>::digits10
CONST	ENDS
;	COMDAT ?digits@?$numeric_limits@G@std@@2HB
CONST	SEGMENT
?digits@?$numeric_limits@G@std@@2HB DD 010H		; std::numeric_limits<unsigned short>::digits
CONST	ENDS
;	COMDAT ?is_signed@?$numeric_limits@G@std@@2_NB
CONST	SEGMENT
?is_signed@?$numeric_limits@G@std@@2_NB DB 00H		; std::numeric_limits<unsigned short>::is_signed
CONST	ENDS
PUBLIC	_fabsf
PUBLIC	?fabs@@YAMM@Z					; fabs
PUBLIC	??0VU_SESSION_ID@@QAE@K@Z			; VU_SESSION_ID::VU_SESSION_ID
PUBLIC	??8VU_SESSION_ID@@QBEHABV0@@Z			; VU_SESSION_ID::operator==
PUBLIC	??0VU_ID@@QAE@XZ				; VU_ID::VU_ID
PUBLIC	??0VU_ID@@QAE@VVU_SESSION_ID@@K@Z		; VU_ID::VU_ID
PUBLIC	??8VU_ID@@QBE_NABV0@@Z				; VU_ID::operator==
PUBLIC	??9VU_ID@@QBE_NABV0@@Z				; VU_ID::operator!=
PUBLIC	?vuabs@@YAMM@Z					; vuabs
PUBLIC	?VuReferenceEntity@@YAHPAVVuEntity@@@Z		; VuReferenceEntity
PUBLIC	?VuDeReferenceEntity@@YAHPAVVuEntity@@@Z	; VuDeReferenceEntity
PUBLIC	??0VuEntity@@QAE@GK@Z				; VuEntity::VuEntity
PUBLIC	??0VuEntity@@QAE@PAPAEPAJ@Z			; VuEntity::VuEntity
PUBLIC	??0VuEntity@@QAE@PAU_iobuf@@@Z			; VuEntity::VuEntity
PUBLIC	?SetPosition@VuEntity@@QAEXMMM@Z		; VuEntity::SetPosition
PUBLIC	?SetDelta@VuEntity@@QAEXMMM@Z			; VuEntity::SetDelta
PUBLIC	?SetYPR@VuEntity@@QAEXMMM@Z			; VuEntity::SetYPR
PUBLIC	?SetUpdateTime@VuEntity@@QAEXK@Z		; VuEntity::SetUpdateTime
PUBLIC	?SetOwnerId@VuEntity@@QAEXVVU_ID@@@Z		; VuEntity::SetOwnerId
PUBLIC	?SetEntityType@VuEntity@@QAEXG@Z		; VuEntity::SetEntityType
PUBLIC	?Id@VuEntity@@QBE?AVVU_ID@@XZ			; VuEntity::Id
PUBLIC	?Domain@VuEntity@@QBEEXZ			; VuEntity::Domain
PUBLIC	?IsGlobal@VuEntity@@QBEEXZ			; VuEntity::IsGlobal
PUBLIC	?OwnerId@VuEntity@@QBE?AVVU_ID@@XZ		; VuEntity::OwnerId
PUBLIC	?IsLocal@VuEntity@@QBEEXZ			; VuEntity::IsLocal
PUBLIC	?Association@VuEntity@@QBE?AVVU_ID@@XZ		; VuEntity::Association
PUBLIC	?XPos@VuEntity@@QBEMXZ				; VuEntity::XPos
PUBLIC	?YPos@VuEntity@@QBEMXZ				; VuEntity::YPos
PUBLIC	?ZPos@VuEntity@@QBEMXZ				; VuEntity::ZPos
PUBLIC	?XDelta@VuEntity@@QBEMXZ			; VuEntity::XDelta
PUBLIC	?YDelta@VuEntity@@QBEMXZ			; VuEntity::YDelta
PUBLIC	?ZDelta@VuEntity@@QBEMXZ			; VuEntity::ZDelta
PUBLIC	?UpdateRate@VuEntity@@QBEKXZ			; VuEntity::UpdateRate
PUBLIC	?EntityType@VuEntity@@QBEPAUVuEntityType@@XZ	; VuEntity::EntityType
PUBLIC	?DriveEntity@VuEntity@@QAEKK@Z			; VuEntity::DriveEntity
PUBLIC	?SetDriver@VuEntity@@QAEPAVVuDriver@@PAV2@@Z	; VuEntity::SetDriver
PUBLIC	?CollisionCheck@VuEntity@@QAEEPAV1@M@Z		; VuEntity::CollisionCheck
PUBLIC	?CustomCollisionCheck@VuEntity@@UAEEPAV1@M@Z	; VuEntity::CustomCollisionCheck
PUBLIC	?TerrainCollisionCheck@VuEntity@@UAEEXZ		; VuEntity::TerrainCollisionCheck
PUBLIC	?LineCollisionCheck@VuEntity@@QAEEMMMMMMMM@Z	; VuEntity::LineCollisionCheck
PUBLIC	?IsTarget@VuEntity@@UAEEXZ			; VuEntity::IsTarget
PUBLIC	?IsSession@VuEntity@@UAEEXZ			; VuEntity::IsSession
PUBLIC	?IsGroup@VuEntity@@UAEEXZ			; VuEntity::IsGroup
PUBLIC	?IsGame@VuEntity@@UAEEXZ			; VuEntity::IsGame
PUBLIC	?IsCamera@VuEntity@@UBEEXZ			; VuEntity::IsCamera
PUBLIC	?SaveSize@VuEntity@@UAEHXZ			; VuEntity::SaveSize
PUBLIC	?Save@VuEntity@@UAEHPAPAE@Z			; VuEntity::Save
PUBLIC	?Save@VuEntity@@UAEHPAU_iobuf@@@Z		; VuEntity::Save
PUBLIC	?Handle@VuEntity@@UAEHPAVVuErrorMessage@@@Z	; VuEntity::Handle
PUBLIC	?Handle@VuEntity@@UAEHPAVVuPushRequest@@@Z	; VuEntity::Handle
PUBLIC	?Handle@VuEntity@@UAEHPAVVuPullRequest@@@Z	; VuEntity::Handle
PUBLIC	?Handle@VuEntity@@UAEHPAVVuEvent@@@Z		; VuEntity::Handle
PUBLIC	?Handle@VuEntity@@UAEHPAVVuFullUpdateEvent@@@Z	; VuEntity::Handle
PUBLIC	?Handle@VuEntity@@UAEHPAVVuPositionUpdateEvent@@@Z ; VuEntity::Handle
PUBLIC	?Handle@VuEntity@@UAEHPAVVuEntityCollisionEvent@@@Z ; VuEntity::Handle
PUBLIC	?Handle@VuEntity@@UAEHPAVVuTransferEvent@@@Z	; VuEntity::Handle
PUBLIC	?Handle@VuEntity@@UAEHPAVVuSessionEvent@@@Z	; VuEntity::Handle
PUBLIC	??1VuEntity@@MAE@XZ				; VuEntity::~VuEntity
PUBLIC	?SetVuState@VuEntity@@IAEXW4VU_MEM@@@Z		; VuEntity::SetVuState
PUBLIC	?InsertionCallback@VuEntity@@MAEHXZ		; VuEntity::InsertionCallback
PUBLIC	?RemovalCallback@VuEntity@@MAEHXZ		; VuEntity::RemovalCallback
PUBLIC	?LocalSize@VuEntity@@AAEHXZ			; VuEntity::LocalSize
PUBLIC	??0ShareData@VuEntity@@QAE@XZ			; VuEntity::ShareData::ShareData
PUBLIC	?Ref@VuEntity@@AAEHXZ				; VuEntity::Ref
PUBLIC	?UnRef@VuEntity@@AAEHXZ				; VuEntity::UnRef
PUBLIC	??_GVuEntity@@MAEPAXI@Z				; VuEntity::`scalar deleting destructor'
PUBLIC	??2@YAPAXIPAX@Z					; operator new
PUBLIC	??3@YAXPAX0@Z					; operator delete
PUBLIC	?length@?$char_traits@D@std@@SAIPBD@Z		; std::char_traits<char>::length
PUBLIC	?copy@?$char_traits@D@std@@SAPADPADPBDI@Z	; std::char_traits<char>::copy
PUBLIC	?move@?$char_traits@D@std@@SAPADPADPBDI@Z	; std::char_traits<char>::move
PUBLIC	?assign@?$char_traits@D@std@@SAXAADABD@Z	; std::char_traits<char>::assign
PUBLIC	??0logic_error@std@@QAE@PBD@Z			; std::logic_error::logic_error
PUBLIC	??1logic_error@std@@UAE@XZ			; std::logic_error::~logic_error
PUBLIC	??0logic_error@std@@QAE@ABV01@@Z		; std::logic_error::logic_error
PUBLIC	??_Glogic_error@std@@UAEPAXI@Z			; std::logic_error::`scalar deleting destructor'
PUBLIC	??0?$allocator@D@std@@QAE@XZ			; std::allocator<char>::allocator<char>
PUBLIC	?deallocate@?$allocator@D@std@@QAEXPADI@Z	; std::allocator<char>::deallocate
PUBLIC	?allocate@?$allocator@D@std@@QAEPADI@Z		; std::allocator<char>::allocate
PUBLIC	?max_size@?$allocator@D@std@@QBEIXZ		; std::allocator<char>::max_size
PUBLIC	?max_size@?$allocator_traits@V?$allocator@D@std@@@std@@SAIABV?$allocator@D@2@@Z ; std::allocator_traits<std::allocator<char> >::max_size
PUBLIC	??0?$_Wrap_alloc@V?$allocator@D@std@@@std@@QAE@XZ ; std::_Wrap_alloc<std::allocator<char> >::_Wrap_alloc<std::allocator<char> >
PUBLIC	?allocate@?$_Wrap_alloc@V?$allocator@D@std@@@std@@QAEPADI@Z ; std::_Wrap_alloc<std::allocator<char> >::allocate
PUBLIC	?deallocate@?$_Wrap_alloc@V?$allocator@D@std@@@std@@QAEXPADI@Z ; std::_Wrap_alloc<std::allocator<char> >::deallocate
PUBLIC	?max_size@?$_Wrap_alloc@V?$allocator@D@std@@@std@@QBEIXZ ; std::_Wrap_alloc<std::allocator<char> >::max_size
PUBLIC	??0?$_String_val@U?$_Simple_types@D@std@@@std@@QAE@XZ ; std::_String_val<std::_Simple_types<char> >::_String_val<std::_Simple_types<char> >
PUBLIC	?_Myptr@?$_String_val@U?$_Simple_types@D@std@@@std@@QAEPADXZ ; std::_String_val<std::_Simple_types<char> >::_Myptr
PUBLIC	?_Myptr@?$_String_val@U?$_Simple_types@D@std@@@std@@QBEPBDXZ ; std::_String_val<std::_Simple_types<char> >::_Myptr
PUBLIC	??0?$_String_alloc@$0A@U?$_String_base_types@DV?$allocator@D@std@@@std@@@std@@QAE@ABV?$allocator@D@1@@Z ; std::_String_alloc<0,std::_String_base_types<char,std::allocator<char> > >::_String_alloc<0,std::_String_base_types<char,std::allocator<char> > >
PUBLIC	?_Getal@?$_String_alloc@$0A@U?$_String_base_types@DV?$allocator@D@std@@@std@@@std@@QBE?AU?$_Wrap_alloc@V?$allocator@D@std@@@2@XZ ; std::_String_alloc<0,std::_String_base_types<char,std::allocator<char> > >::_Getal
PUBLIC	??0?$basic_string@DU?$char_traits@D@std@@V?$allocator@D@2@@std@@QAE@PBD@Z ; std::basic_string<char,std::char_traits<char>,std::allocator<char> >::basic_string<char,std::char_traits<char>,std::allocator<char> >
PUBLIC	??1?$basic_string@DU?$char_traits@D@std@@V?$allocator@D@2@@std@@QAE@XZ ; std::basic_string<char,std::char_traits<char>,std::allocator<char> >::~basic_string<char,std::char_traits<char>,std::allocator<char> >
PUBLIC	?assign@?$basic_string@DU?$char_traits@D@std@@V?$allocator@D@2@@std@@QAEAAV12@ABV12@II@Z ; std::basic_string<char,std::char_traits<char>,std::allocator<char> >::assign
PUBLIC	?assign@?$basic_string@DU?$char_traits@D@std@@V?$allocator@D@2@@std@@QAEAAV12@PBDI@Z ; std::basic_string<char,std::char_traits<char>,std::allocator<char> >::assign
PUBLIC	?assign@?$basic_string@DU?$char_traits@D@std@@V?$allocator@D@2@@std@@QAEAAV12@PBD@Z ; std::basic_string<char,std::char_traits<char>,std::allocator<char> >::assign
PUBLIC	?erase@?$basic_string@DU?$char_traits@D@std@@V?$allocator@D@2@@std@@QAEAAV12@I@Z ; std::basic_string<char,std::char_traits<char>,std::allocator<char> >::erase
PUBLIC	?erase@?$basic_string@DU?$char_traits@D@std@@V?$allocator@D@2@@std@@QAEAAV12@II@Z ; std::basic_string<char,std::char_traits<char>,std::allocator<char> >::erase
PUBLIC	?c_str@?$basic_string@DU?$char_traits@D@std@@V?$allocator@D@2@@std@@QBEPBDXZ ; std::basic_string<char,std::char_traits<char>,std::allocator<char> >::c_str
PUBLIC	?size@?$basic_string@DU?$char_traits@D@std@@V?$allocator@D@2@@std@@QBEIXZ ; std::basic_string<char,std::char_traits<char>,std::allocator<char> >::size
PUBLIC	?max_size@?$basic_string@DU?$char_traits@D@std@@V?$allocator@D@2@@std@@QBEIXZ ; std::basic_string<char,std::char_traits<char>,std::allocator<char> >::max_size
PUBLIC	?_Copy@?$basic_string@DU?$char_traits@D@std@@V?$allocator@D@2@@std@@QAEXII@Z ; std::basic_string<char,std::char_traits<char>,std::allocator<char> >::_Copy
PUBLIC	?_Eos@?$basic_string@DU?$char_traits@D@std@@V?$allocator@D@2@@std@@QAEXI@Z ; std::basic_string<char,std::char_traits<char>,std::allocator<char> >::_Eos
PUBLIC	?_Grow@?$basic_string@DU?$char_traits@D@std@@V?$allocator@D@2@@std@@QAE_NI_N@Z ; std::basic_string<char,std::char_traits<char>,std::allocator<char> >::_Grow
PUBLIC	?_Inside@?$basic_string@DU?$char_traits@D@std@@V?$allocator@D@2@@std@@QAE_NPBD@Z ; std::basic_string<char,std::char_traits<char>,std::allocator<char> >::_Inside
PUBLIC	?_Tidy@?$basic_string@DU?$char_traits@D@std@@V?$allocator@D@2@@std@@QAEX_NI@Z ; std::basic_string<char,std::char_traits<char>,std::allocator<char> >::_Tidy
PUBLIC	?_Xlen@?$basic_string@DU?$char_traits@D@std@@V?$allocator@D@2@@std@@QBEXXZ ; std::basic_string<char,std::char_traits<char>,std::allocator<char> >::_Xlen
PUBLIC	?_Xran@?$basic_string@DU?$char_traits@D@std@@V?$allocator@D@2@@std@@QBEXXZ ; std::basic_string<char,std::char_traits<char>,std::allocator<char> >::_Xran
PUBLIC	??0out_of_range@std@@QAE@ABV?$basic_string@DU?$char_traits@D@std@@V?$allocator@D@2@@1@@Z ; std::out_of_range::out_of_range
PUBLIC	??1out_of_range@std@@UAE@XZ			; std::out_of_range::~out_of_range
PUBLIC	??0out_of_range@std@@QAE@ABV01@@Z		; std::out_of_range::out_of_range
PUBLIC	??_Gout_of_range@std@@UAEPAXI@Z			; std::out_of_range::`scalar deleting destructor'
PUBLIC	??C?$VuBin@VVuSessionEntity@@@@QBEPAVVuSessionEntity@@XZ ; VuBin<VuSessionEntity>::operator->
PUBLIC	??0VuScopeLock@@QAE@PAX@Z			; VuScopeLock::VuScopeLock
PUBLIC	??1VuScopeLock@@QAE@XZ				; VuScopeLock::~VuScopeLock
PUBLIC	?Sender@VuMessage@@QBE?AVVU_ID@@XZ		; VuMessage::Sender
PUBLIC	?Entity@VuMessage@@QBEPAVVuEntity@@XZ		; VuMessage::Entity
PUBLIC	?RequestReliableTransmit@VuMessage@@QAEXXZ	; VuMessage::RequestReliableTransmit
PUBLIC	?get@?$VuBin@VVuEntity@@@@QBEPAVVuEntity@@XZ	; VuBin<VuEntity>::get
PUBLIC	?DomainMask@VuSessionEntity@@QAEKXZ		; VuSessionEntity::DomainMask
PUBLIC	??0InvalidBufferException@@QAE@ABV?$basic_string@DU?$char_traits@D@std@@V?$allocator@D@2@@std@@@Z ; InvalidBufferException::InvalidBufferException
PUBLIC	??1InvalidBufferException@@UAE@XZ		; InvalidBufferException::~InvalidBufferException
PUBLIC	??0InvalidBufferException@@QAE@ABV0@@Z		; InvalidBufferException::InvalidBufferException
PUBLIC	??_GInvalidBufferException@@UAEPAXI@Z		; InvalidBufferException::`scalar deleting destructor'
PUBLIC	?memcpychk@@YAXPAXPAPAEIPAJ@Z			; memcpychk
PUBLIC	?VuRandomTime@@YAKK@Z				; VuRandomTime
PUBLIC	??0id@locale@std@@QAE@I@Z			; std::locale::id::id
PUBLIC	?generic_category@std@@YAABVerror_category@1@XZ	; std::generic_category
PUBLIC	?system_category@std@@YAABVerror_category@1@XZ	; std::system_category
PUBLIC	??0error_category@std@@QAE@XZ			; std::error_category::error_category
PUBLIC	??1error_category@std@@UAE@XZ			; std::error_category::~error_category
PUBLIC	?default_error_condition@error_category@std@@UBE?AVerror_condition@2@H@Z ; std::error_category::default_error_condition
PUBLIC	?equivalent@error_category@std@@UBE_NHABVerror_condition@2@@Z ; std::error_category::equivalent
PUBLIC	?equivalent@error_category@std@@UBE_NABVerror_code@2@H@Z ; std::error_category::equivalent
PUBLIC	??8error_category@std@@QBE_NABV01@@Z		; std::error_category::operator==
PUBLIC	??_Gerror_category@std@@UAEPAXI@Z		; std::error_category::`scalar deleting destructor'
PUBLIC	?value@error_code@std@@QBEHXZ			; std::error_code::value
PUBLIC	?category@error_code@std@@QBEABVerror_category@2@XZ ; std::error_code::category
PUBLIC	??0error_condition@std@@QAE@HABVerror_category@1@@Z ; std::error_condition::error_condition
PUBLIC	?value@error_condition@std@@QBEHXZ		; std::error_condition::value
PUBLIC	?category@error_condition@std@@QBEABVerror_category@2@XZ ; std::error_condition::category
PUBLIC	??8error_condition@std@@QBE_NABV01@@Z		; std::error_condition::operator==
PUBLIC	??0_Generic_error_category@std@@QAE@XZ		; std::_Generic_error_category::_Generic_error_category
PUBLIC	?name@_Generic_error_category@std@@UBEPBDXZ	; std::_Generic_error_category::name
PUBLIC	?message@_Generic_error_category@std@@UBE?AV?$basic_string@DU?$char_traits@D@std@@V?$allocator@D@2@@2@H@Z ; std::_Generic_error_category::message
PUBLIC	??1_Generic_error_category@std@@UAE@XZ		; std::_Generic_error_category::~_Generic_error_category
PUBLIC	??_G_Generic_error_category@std@@UAEPAXI@Z	; std::_Generic_error_category::`scalar deleting destructor'
PUBLIC	??0_Iostream_error_category@std@@QAE@XZ		; std::_Iostream_error_category::_Iostream_error_category
PUBLIC	?name@_Iostream_error_category@std@@UBEPBDXZ	; std::_Iostream_error_category::name
PUBLIC	?message@_Iostream_error_category@std@@UBE?AV?$basic_string@DU?$char_traits@D@std@@V?$allocator@D@2@@2@H@Z ; std::_Iostream_error_category::message
PUBLIC	??1_Iostream_error_category@std@@UAE@XZ		; std::_Iostream_error_category::~_Iostream_error_category
PUBLIC	??_G_Iostream_error_category@std@@UAEPAXI@Z	; std::_Iostream_error_category::`scalar deleting destructor'
PUBLIC	??0_System_error_category@std@@QAE@XZ		; std::_System_error_category::_System_error_category
PUBLIC	?name@_System_error_category@std@@UBEPBDXZ	; std::_System_error_category::name
PUBLIC	?message@_System_error_category@std@@UBE?AV?$basic_string@DU?$char_traits@D@std@@V?$allocator@D@2@@2@H@Z ; std::_System_error_category::message
PUBLIC	?default_error_condition@_System_error_category@std@@UBE?AVerror_condition@2@H@Z ; std::_System_error_category::default_error_condition
PUBLIC	??1_System_error_category@std@@UAE@XZ		; std::_System_error_category::~_System_error_category
PUBLIC	??_G_System_error_category@std@@UAEPAXI@Z	; std::_System_error_category::`scalar deleting destructor'
PUBLIC	??$construct@PADAAPAD@?$_Wrap_alloc@V?$allocator@D@std@@@std@@QAEXPAPADAAPAD@Z ; std::_Wrap_alloc<std::allocator<char> >::construct<char *,char * &>
PUBLIC	??$destroy@PAD@?$_Wrap_alloc@V?$allocator@D@std@@@std@@QAEXPAPAD@Z ; std::_Wrap_alloc<std::allocator<char> >::destroy<char *>
PUBLIC	??$addressof@D@std@@YAPADAAD@Z			; std::addressof<char>
PUBLIC	??$_Allocate@D@std@@YAPADIPAD@Z			; std::_Allocate<char>
PUBLIC	??$forward@AAPAD@std@@YAAAPADAAPAD@Z		; std::forward<char * &>
PUBLIC	??$construct@PADAAPAD@?$allocator_traits@V?$allocator@D@std@@@std@@SAXAAV?$allocator@D@1@PAPADAAPAD@Z ; std::allocator_traits<std::allocator<char> >::construct<char *,char * &>
PUBLIC	??$destroy@PAD@?$allocator_traits@V?$allocator@D@std@@@std@@SAXAAV?$allocator@D@1@PAPAD@Z ; std::allocator_traits<std::allocator<char> >::destroy<char *>
PUBLIC	??$construct@PADAAPAD@?$allocator@D@std@@QAEXPAPADAAPAD@Z ; std::allocator<char>::construct<char *,char * &>
PUBLIC	??$destroy@PAD@?$allocator@D@std@@QAEXPAPAD@Z	; std::allocator<char>::destroy<char *>
PUBLIC	??_7VuEntity@@6B@				; VuEntity::`vftable'
PUBLIC	??_7logic_error@std@@6B@			; std::logic_error::`vftable'
PUBLIC	??_7out_of_range@std@@6B@			; std::out_of_range::`vftable'
PUBLIC	?vuNullId@@3VVU_ID@@A				; vuNullId
PUBLIC	??_7InvalidBufferException@@6B@			; InvalidBufferException::`vftable'
PUBLIC	??_C@_0CI@MPKJAHJH@Trying?5to?5write?5?$CFlu?5bytes?5to?5?$CFld@ ; `string'
PUBLIC	__TI4?AVInvalidBufferException@@
PUBLIC	__CTA4?AVInvalidBufferException@@
PUBLIC	??_R0?AVInvalidBufferException@@@8		; InvalidBufferException `RTTI Type Descriptor'
PUBLIC	__CT??_R0?AVInvalidBufferException@@@8??0InvalidBufferException@@QAE@ABV0@@Z12
PUBLIC	??_R0?AVout_of_range@std@@@8			; std::out_of_range `RTTI Type Descriptor'
PUBLIC	__CT??_R0?AVout_of_range@std@@@8??0out_of_range@std@@QAE@ABV01@@Z12
PUBLIC	??_R0?AVlogic_error@std@@@8			; std::logic_error `RTTI Type Descriptor'
PUBLIC	__CT??_R0?AVlogic_error@std@@@8??0logic_error@std@@QAE@ABV01@@Z12
PUBLIC	??_R0?AVexception@std@@@8			; std::exception `RTTI Type Descriptor'
PUBLIC	__CT??_R0?AVexception@std@@@8??0exception@std@@QAE@ABV01@@Z12
PUBLIC	??_C@_0N@FICPPONG@entity?5mutex?$AA@		; `string'
PUBLIC	??_7error_category@std@@6B@			; std::error_category::`vftable'
PUBLIC	??_7_Generic_error_category@std@@6B@		; std::_Generic_error_category::`vftable'
PUBLIC	??_C@_07DCLBNMLN@generic?$AA@			; `string'
PUBLIC	??_C@_0O@BFJCFAAK@unknown?5error?$AA@		; `string'
PUBLIC	??_7_Iostream_error_category@std@@6B@		; std::_Iostream_error_category::`vftable'
PUBLIC	??_C@_08LLGCOLLL@iostream?$AA@			; `string'
PUBLIC	??_C@_0BG@PADBLCHM@iostream?5stream?5error?$AA@	; `string'
PUBLIC	??_7_System_error_category@std@@6B@		; std::_System_error_category::`vftable'
PUBLIC	??_C@_06FHFOAHML@system?$AA@			; `string'
PUBLIC	?_Generic_object@?$_Error_objects@H@std@@2V_Generic_error_category@2@A ; std::_Error_objects<int>::_Generic_object
PUBLIC	?_Iostream_object@?$_Error_objects@H@std@@2V_Iostream_error_category@2@A ; std::_Error_objects<int>::_Iostream_object
PUBLIC	?_System_object@?$_Error_objects@H@std@@2V_System_error_category@2@A ; std::_Error_objects<int>::_System_object
PUBLIC	?id@?$num_put@DV?$back_insert_iterator@V?$basic_string@DU?$char_traits@D@std@@V?$allocator@D@2@@std@@@std@@@std@@2V0locale@2@A ; std::num_put<char,std::back_insert_iterator<std::basic_string<char,std::char_traits<char>,std::allocator<char> > > >::id
PUBLIC	?id@?$num_put@_WV?$back_insert_iterator@V?$basic_string@_WU?$char_traits@_W@std@@V?$allocator@_W@2@@std@@@std@@@std@@2V0locale@2@A ; std::num_put<wchar_t,std::back_insert_iterator<std::basic_string<wchar_t,std::char_traits<wchar_t>,std::allocator<wchar_t> > > >::id
PUBLIC	??_C@_0BK@OPMJINFF@bad?5driver?5being?5assigned?$AA@ ; `string'
PUBLIC	?id@?$numpunct@D@std@@2V0locale@2@A		; std::numpunct<char>::id
PUBLIC	?id@?$numpunct@_W@std@@2V0locale@2@A		; std::numpunct<wchar_t>::id
PUBLIC	??_C@_0BI@CFPLBAOH@invalid?5string?5position?$AA@ ; `string'
PUBLIC	??_C@_0BA@JFNIOLAK@string?5too?5long?$AA@	; `string'
PUBLIC	??_R4VuEntity@@6B@				; VuEntity::`RTTI Complete Object Locator'
PUBLIC	??_R0?AVVuEntity@@@8				; VuEntity `RTTI Type Descriptor'
PUBLIC	??_R3VuEntity@@8				; VuEntity::`RTTI Class Hierarchy Descriptor'
PUBLIC	??_R2VuEntity@@8				; VuEntity::`RTTI Base Class Array'
PUBLIC	??_R1A@?0A@EA@VuEntity@@8			; VuEntity::`RTTI Base Class Descriptor at (0,-1,0,64)'
PUBLIC	??_R1A@?0A@EA@exception@std@@8			; std::exception::`RTTI Base Class Descriptor at (0,-1,0,64)'
PUBLIC	??_R3exception@std@@8				; std::exception::`RTTI Class Hierarchy Descriptor'
PUBLIC	??_R2exception@std@@8				; std::exception::`RTTI Base Class Array'
PUBLIC	??_R4logic_error@std@@6B@			; std::logic_error::`RTTI Complete Object Locator'
PUBLIC	??_R3logic_error@std@@8				; std::logic_error::`RTTI Class Hierarchy Descriptor'
PUBLIC	??_R2logic_error@std@@8				; std::logic_error::`RTTI Base Class Array'
PUBLIC	??_R1A@?0A@EA@logic_error@std@@8		; std::logic_error::`RTTI Base Class Descriptor at (0,-1,0,64)'
PUBLIC	??_R4out_of_range@std@@6B@			; std::out_of_range::`RTTI Complete Object Locator'
PUBLIC	??_R3out_of_range@std@@8			; std::out_of_range::`RTTI Class Hierarchy Descriptor'
PUBLIC	??_R2out_of_range@std@@8			; std::out_of_range::`RTTI Base Class Array'
PUBLIC	??_R1A@?0A@EA@out_of_range@std@@8		; std::out_of_range::`RTTI Base Class Descriptor at (0,-1,0,64)'
PUBLIC	??_R4InvalidBufferException@@6B@		; InvalidBufferException::`RTTI Complete Object Locator'
PUBLIC	??_R3InvalidBufferException@@8			; InvalidBufferException::`RTTI Class Hierarchy Descriptor'
PUBLIC	??_R2InvalidBufferException@@8			; InvalidBufferException::`RTTI Base Class Array'
PUBLIC	??_R1A@?0A@EA@InvalidBufferException@@8		; InvalidBufferException::`RTTI Base Class Descriptor at (0,-1,0,64)'
PUBLIC	??_R4error_category@std@@6B@			; std::error_category::`RTTI Complete Object Locator'
PUBLIC	??_R0?AVerror_category@std@@@8			; std::error_category `RTTI Type Descriptor'
PUBLIC	??_R3error_category@std@@8			; std::error_category::`RTTI Class Hierarchy Descriptor'
PUBLIC	??_R2error_category@std@@8			; std::error_category::`RTTI Base Class Array'
PUBLIC	??_R1A@?0A@EA@error_category@std@@8		; std::error_category::`RTTI Base Class Descriptor at (0,-1,0,64)'
PUBLIC	??_R4_Generic_error_category@std@@6B@		; std::_Generic_error_category::`RTTI Complete Object Locator'
PUBLIC	??_R0?AV_Generic_error_category@std@@@8		; std::_Generic_error_category `RTTI Type Descriptor'
PUBLIC	??_R3_Generic_error_category@std@@8		; std::_Generic_error_category::`RTTI Class Hierarchy Descriptor'
PUBLIC	??_R2_Generic_error_category@std@@8		; std::_Generic_error_category::`RTTI Base Class Array'
PUBLIC	??_R1A@?0A@EA@_Generic_error_category@std@@8	; std::_Generic_error_category::`RTTI Base Class Descriptor at (0,-1,0,64)'
PUBLIC	??_R4_Iostream_error_category@std@@6B@		; std::_Iostream_error_category::`RTTI Complete Object Locator'
PUBLIC	??_R0?AV_Iostream_error_category@std@@@8	; std::_Iostream_error_category `RTTI Type Descriptor'
PUBLIC	??_R3_Iostream_error_category@std@@8		; std::_Iostream_error_category::`RTTI Class Hierarchy Descriptor'
PUBLIC	??_R2_Iostream_error_category@std@@8		; std::_Iostream_error_category::`RTTI Base Class Array'
PUBLIC	??_R1A@?0A@EA@_Iostream_error_category@std@@8	; std::_Iostream_error_category::`RTTI Base Class Descriptor at (0,-1,0,64)'
PUBLIC	??_R4_System_error_category@std@@6B@		; std::_System_error_category::`RTTI Complete Object Locator'
PUBLIC	??_R0?AV_System_error_category@std@@@8		; std::_System_error_category `RTTI Type Descriptor'
PUBLIC	??_R3_System_error_category@std@@8		; std::_System_error_category::`RTTI Class Hierarchy Descriptor'
PUBLIC	??_R2_System_error_category@std@@8		; std::_System_error_category::`RTTI Base Class Array'
PUBLIC	??_R1A@?0A@EA@_System_error_category@std@@8	; std::_System_error_category::`RTTI Base Class Descriptor at (0,-1,0,64)'
PUBLIC	__real@00000000
PUBLIC	__real@46fffe00
PUBLIC	__real@c66a6000
PUBLIC	__real@c76a6000
PUBLIC	__real@c7c35000
PUBLIC	__xmm@41f00000000000000000000000000000
EXTRN	__purecall:PROC
EXTRN	??2@YAPAXI@Z:PROC				; operator new
EXTRN	??3@YAXPAX@Z:PROC				; operator delete
EXTRN	_atexit:PROC
EXTRN	_fread:PROC
EXTRN	_fwrite:PROC
EXTRN	_printf:PROC
EXTRN	_sprintf:PROC
EXTRN	_rand:PROC
EXTRN	_memcpy:PROC
EXTRN	_strlen:PROC
EXTRN	_memmove:PROC
EXTRN	__isnan:PROC
EXTRN	_fabs:PROC
EXTRN	??_EVuEntity@@MAEPAXI@Z:PROC			; VuEntity::`vector deleting destructor'
EXTRN	??0exception@std@@QAE@ABQBD@Z:PROC		; std::exception::exception
EXTRN	??0exception@std@@QAE@ABV01@@Z:PROC		; std::exception::exception
EXTRN	??1exception@std@@UAE@XZ:PROC			; std::exception::~exception
EXTRN	?what@exception@std@@UBEPBDXZ:PROC		; std::exception::what
EXTRN	?_Xbad_alloc@std@@YAXXZ:PROC			; std::_Xbad_alloc
EXTRN	?_Xlength_error@std@@YAXPBD@Z:PROC		; std::_Xlength_error
EXTRN	?_Xout_of_range@std@@YAXPBD@Z:PROC		; std::_Xout_of_range
EXTRN	??_Elogic_error@std@@UAEPAXI@Z:PROC		; std::logic_error::`vector deleting destructor'
EXTRN	??_Eout_of_range@std@@UAEPAXI@Z:PROC		; std::out_of_range::`vector deleting destructor'
EXTRN	?Handle@VuDatabase@@QAEHPAVVuMessage@@@Z:PROC	; VuDatabase::Handle
EXTRN	?HandleMove@VuDatabase@@QAEXPAVVuEntity@@MM@Z:PROC ; VuDatabase::HandleMove
EXTRN	?Find@VuDatabase@@QBEPAVVuEntity@@VVU_ID@@@Z:PROC ; VuDatabase::Find
EXTRN	?VuxType@@YAPAUVuEntityType@@G@Z:PROC		; VuxType
EXTRN	?VuxCreateMutex@@YAPAXPBD@Z:PROC		; VuxCreateMutex
EXTRN	?VuxDestroyMutex@@YAXPAX@Z:PROC			; VuxDestroyMutex
EXTRN	?VuxLockMutex@@YAXPAX@Z:PROC			; VuxLockMutex
EXTRN	?VuxUnlockMutex@@YAXPAX@Z:PROC			; VuxUnlockMutex
EXTRN	?Ref@VuMessage@@QAEHXZ:PROC			; VuMessage::Ref
EXTRN	?UnRef@VuMessage@@QAEHXZ:PROC			; VuMessage::UnRef
EXTRN	??0VuErrorMessage@@QAE@HVVU_ID@@0PAVVuTargetEntity@@@Z:PROC ; VuErrorMessage::VuErrorMessage
EXTRN	??0VuTransferEvent@@QAE@PAVVuEntity@@PAVVuTargetEntity@@E@Z:PROC ; VuTransferEvent::VuTransferEvent
EXTRN	?Game@VuSessionEntity@@QAEPAVVuGameEntity@@XZ:PROC ; VuSessionEntity::Game
EXTRN	?PostVuMessage@VuMessageQueue@@SAHPAVVuMessage@@@Z:PROC ; VuMessageQueue::PostVuMessage
EXTRN	??_EInvalidBufferException@@UAEPAXI@Z:PROC	; InvalidBufferException::`vector deleting destructor'
EXTRN	??_Eerror_category@std@@UAEPAXI@Z:PROC		; std::error_category::`vector deleting destructor'
EXTRN	?_Syserror_map@std@@YAPBDH@Z:PROC		; std::_Syserror_map
EXTRN	?_Winerror_map@std@@YAPBDH@Z:PROC		; std::_Winerror_map
EXTRN	??_E_Generic_error_category@std@@UAEPAXI@Z:PROC	; std::_Generic_error_category::`vector deleting destructor'
EXTRN	??_E_Iostream_error_category@std@@UAEPAXI@Z:PROC ; std::_Iostream_error_category::`vector deleting destructor'
EXTRN	??_E_System_error_category@std@@UAEPAXI@Z:PROC	; std::_System_error_category::`vector deleting destructor'
EXTRN	?F4IsBadReadPtr@@YA_NPBXI@Z:PROC		; F4IsBadReadPtr
EXTRN	@__security_check_cookie@4:PROC
EXTRN	__CxxThrowException@8:PROC
EXTRN	___CxxFrameHandler3:PROC
EXTRN	?vuDatabase@@3PAVVuDatabase@@A:DWORD		; vuDatabase
EXTRN	?vuLocalSessionEntity@@3V?$VuBin@VVuSessionEntity@@@@A:DWORD ; vuLocalSessionEntity
EXTRN	?vuGlobalGroup@@3PAVVuGlobalGroup@@A:DWORD	; vuGlobalGroup
EXTRN	?vuLocalSession@@3VVU_ID@@A:QWORD		; vuLocalSession
EXTRN	?vuTransmitTime@@3KA:DWORD			; vuTransmitTime
EXTRN	?vuxGameTime@@3KA:DWORD				; vuxGameTime
EXTRN	??_7type_info@@6B@:QWORD			; type_info::`vftable'
EXTRN	___security_cookie:DWORD
EXTRN	__fltused:DWORD
_BSS	SEGMENT
_piecewise_construct DB 01H DUP (?)
	ALIGN	4

_allocator_arg DB 01H DUP (?)
	ALIGN	4

?vuNullId@@3VVU_ID@@A DQ 01H DUP (?)			; vuNullId
_BSS	ENDS
;	COMDAT ?_Generic_object@?$_Error_objects@H@std@@2V_Generic_error_category@2@A
_BSS	SEGMENT
?_Generic_object@?$_Error_objects@H@std@@2V_Generic_error_category@2@A DD 01H DUP (?) ; std::_Error_objects<int>::_Generic_object
_BSS	ENDS
;	COMDAT ?_Iostream_object@?$_Error_objects@H@std@@2V_Iostream_error_category@2@A
_BSS	SEGMENT
?_Iostream_object@?$_Error_objects@H@std@@2V_Iostream_error_category@2@A DD 01H DUP (?) ; std::_Error_objects<int>::_Iostream_object
_BSS	ENDS
;	COMDAT ?_System_object@?$_Error_objects@H@std@@2V_System_error_category@2@A
_BSS	SEGMENT
?_System_object@?$_Error_objects@H@std@@2V_System_error_category@2@A DD 01H DUP (?) ; std::_Error_objects<int>::_System_object
_BSS	ENDS
;	COMDAT ?id@?$num_put@DV?$back_insert_iterator@V?$basic_string@DU?$char_traits@D@std@@V?$allocator@D@2@@std@@@std@@@std@@2V0locale@2@A
_BSS	SEGMENT
?id@?$num_put@DV?$back_insert_iterator@V?$basic_string@DU?$char_traits@D@std@@V?$allocator@D@2@@std@@@std@@@std@@2V0locale@2@A DD 01H DUP (?) ; std::num_put<char,std::back_insert_iterator<std::basic_string<char,std::char_traits<char>,std::allocator<char> > > >::id
_BSS	ENDS
;	COMDAT ?id@?$num_put@_WV?$back_insert_iterator@V?$basic_string@_WU?$char_traits@_W@std@@V?$allocator@_W@2@@std@@@std@@@std@@2V0locale@2@A
_BSS	SEGMENT
?id@?$num_put@_WV?$back_insert_iterator@V?$basic_string@_WU?$char_traits@_W@std@@V?$allocator@_W@2@@std@@@std@@@std@@2V0locale@2@A DD 01H DUP (?) ; std::num_put<wchar_t,std::back_insert_iterator<std::basic_string<wchar_t,std::char_traits<wchar_t>,std::allocator<wchar_t> > > >::id
_BSS	ENDS
;	COMDAT ?id@?$numpunct@D@std@@2V0locale@2@A
_BSS	SEGMENT
?id@?$numpunct@D@std@@2V0locale@2@A DD 01H DUP (?)	; std::numpunct<char>::id
_BSS	ENDS
;	COMDAT ?id@?$numpunct@_W@std@@2V0locale@2@A
_BSS	SEGMENT
?id@?$numpunct@_W@std@@2V0locale@2@A DD 01H DUP (?)	; std::numpunct<wchar_t>::id
_BSS	ENDS
CRT$XCU	SEGMENT
_piecewise_construct$initializer$ DD FLAT:??__Epiecewise_construct@std@@YAXXZ
CRT$XCU	ENDS
;	COMDAT __xmm@41f00000000000000000000000000000
CONST	SEGMENT
__xmm@41f00000000000000000000000000000 DB 00H, 00H, 00H, 00H, 00H, 00H, 00H
	DB	00H, 00H, 00H, 00H, 00H, 00H, 00H, 0f0H, 'A'
CONST	ENDS
;	COMDAT __real@c7c35000
CONST	SEGMENT
__real@c7c35000 DD 0c7c35000r			; -100000
CONST	ENDS
;	COMDAT __real@c76a6000
CONST	SEGMENT
__real@c76a6000 DD 0c76a6000r			; -60000
CONST	ENDS
;	COMDAT __real@c66a6000
CONST	SEGMENT
__real@c66a6000 DD 0c66a6000r			; -15000
CONST	ENDS
;	COMDAT __real@46fffe00
CONST	SEGMENT
__real@46fffe00 DD 046fffe00r			; 32767
CONST	ENDS
;	COMDAT __real@00000000
CONST	SEGMENT
__real@00000000 DD 000000000r			; 0
CONST	ENDS
;	COMDAT ??_R1A@?0A@EA@_System_error_category@std@@8
rdata$r	SEGMENT
??_R1A@?0A@EA@_System_error_category@std@@8 DD FLAT:??_R0?AV_System_error_category@std@@@8 ; std::_System_error_category::`RTTI Base Class Descriptor at (0,-1,0,64)'
	DD	02H
	DD	00H
	DD	0ffffffffH
	DD	00H
	DD	040H
	DD	FLAT:??_R3_System_error_category@std@@8
rdata$r	ENDS
;	COMDAT ??_R2_System_error_category@std@@8
rdata$r	SEGMENT
??_R2_System_error_category@std@@8 DD FLAT:??_R1A@?0A@EA@_System_error_category@std@@8 ; std::_System_error_category::`RTTI Base Class Array'
	DD	FLAT:??_R1A@?0A@EA@_Generic_error_category@std@@8
	DD	FLAT:??_R1A@?0A@EA@error_category@std@@8
rdata$r	ENDS
;	COMDAT ??_R3_System_error_category@std@@8
rdata$r	SEGMENT
??_R3_System_error_category@std@@8 DD 00H		; std::_System_error_category::`RTTI Class Hierarchy Descriptor'
	DD	00H
	DD	03H
	DD	FLAT:??_R2_System_error_category@std@@8
rdata$r	ENDS
;	COMDAT ??_R0?AV_System_error_category@std@@@8
_DATA	SEGMENT
??_R0?AV_System_error_category@std@@@8 DD FLAT:??_7type_info@@6B@ ; std::_System_error_category `RTTI Type Descriptor'
	DD	00H
	DB	'.?AV_System_error_category@std@@', 00H
_DATA	ENDS
;	COMDAT ??_R4_System_error_category@std@@6B@
rdata$r	SEGMENT
??_R4_System_error_category@std@@6B@ DD 00H		; std::_System_error_category::`RTTI Complete Object Locator'
	DD	00H
	DD	00H
	DD	FLAT:??_R0?AV_System_error_category@std@@@8
	DD	FLAT:??_R3_System_error_category@std@@8
rdata$r	ENDS
;	COMDAT ??_R1A@?0A@EA@_Iostream_error_category@std@@8
rdata$r	SEGMENT
??_R1A@?0A@EA@_Iostream_error_category@std@@8 DD FLAT:??_R0?AV_Iostream_error_category@std@@@8 ; std::_Iostream_error_category::`RTTI Base Class Descriptor at (0,-1,0,64)'
	DD	02H
	DD	00H
	DD	0ffffffffH
	DD	00H
	DD	040H
	DD	FLAT:??_R3_Iostream_error_category@std@@8
rdata$r	ENDS
;	COMDAT ??_R2_Iostream_error_category@std@@8
rdata$r	SEGMENT
??_R2_Iostream_error_category@std@@8 DD FLAT:??_R1A@?0A@EA@_Iostream_error_category@std@@8 ; std::_Iostream_error_category::`RTTI Base Class Array'
	DD	FLAT:??_R1A@?0A@EA@_Generic_error_category@std@@8
	DD	FLAT:??_R1A@?0A@EA@error_category@std@@8
rdata$r	ENDS
;	COMDAT ??_R3_Iostream_error_category@std@@8
rdata$r	SEGMENT
??_R3_Iostream_error_category@std@@8 DD 00H		; std::_Iostream_error_category::`RTTI Class Hierarchy Descriptor'
	DD	00H
	DD	03H
	DD	FLAT:??_R2_Iostream_error_category@std@@8
rdata$r	ENDS
;	COMDAT ??_R0?AV_Iostream_error_category@std@@@8
_DATA	SEGMENT
??_R0?AV_Iostream_error_category@std@@@8 DD FLAT:??_7type_info@@6B@ ; std::_Iostream_error_category `RTTI Type Descriptor'
	DD	00H
	DB	'.?AV_Iostream_error_category@std@@', 00H
_DATA	ENDS
;	COMDAT ??_R4_Iostream_error_category@std@@6B@
rdata$r	SEGMENT
??_R4_Iostream_error_category@std@@6B@ DD 00H		; std::_Iostream_error_category::`RTTI Complete Object Locator'
	DD	00H
	DD	00H
	DD	FLAT:??_R0?AV_Iostream_error_category@std@@@8
	DD	FLAT:??_R3_Iostream_error_category@std@@8
rdata$r	ENDS
;	COMDAT ??_R1A@?0A@EA@_Generic_error_category@std@@8
rdata$r	SEGMENT
??_R1A@?0A@EA@_Generic_error_category@std@@8 DD FLAT:??_R0?AV_Generic_error_category@std@@@8 ; std::_Generic_error_category::`RTTI Base Class Descriptor at (0,-1,0,64)'
	DD	01H
	DD	00H
	DD	0ffffffffH
	DD	00H
	DD	040H
	DD	FLAT:??_R3_Generic_error_category@std@@8
rdata$r	ENDS
;	COMDAT ??_R2_Generic_error_category@std@@8
rdata$r	SEGMENT
??_R2_Generic_error_category@std@@8 DD FLAT:??_R1A@?0A@EA@_Generic_error_category@std@@8 ; std::_Generic_error_category::`RTTI Base Class Array'
	DD	FLAT:??_R1A@?0A@EA@error_category@std@@8
rdata$r	ENDS
;	COMDAT ??_R3_Generic_error_category@std@@8
rdata$r	SEGMENT
??_R3_Generic_error_category@std@@8 DD 00H		; std::_Generic_error_category::`RTTI Class Hierarchy Descriptor'
	DD	00H
	DD	02H
	DD	FLAT:??_R2_Generic_error_category@std@@8
rdata$r	ENDS
;	COMDAT ??_R0?AV_Generic_error_category@std@@@8
_DATA	SEGMENT
??_R0?AV_Generic_error_category@std@@@8 DD FLAT:??_7type_info@@6B@ ; std::_Generic_error_category `RTTI Type Descriptor'
	DD	00H
	DB	'.?AV_Generic_error_category@std@@', 00H
_DATA	ENDS
;	COMDAT ??_R4_Generic_error_category@std@@6B@
rdata$r	SEGMENT
??_R4_Generic_error_category@std@@6B@ DD 00H		; std::_Generic_error_category::`RTTI Complete Object Locator'
	DD	00H
	DD	00H
	DD	FLAT:??_R0?AV_Generic_error_category@std@@@8
	DD	FLAT:??_R3_Generic_error_category@std@@8
rdata$r	ENDS
;	COMDAT ??_R1A@?0A@EA@error_category@std@@8
rdata$r	SEGMENT
??_R1A@?0A@EA@error_category@std@@8 DD FLAT:??_R0?AVerror_category@std@@@8 ; std::error_category::`RTTI Base Class Descriptor at (0,-1,0,64)'
	DD	00H
	DD	00H
	DD	0ffffffffH
	DD	00H
	DD	040H
	DD	FLAT:??_R3error_category@std@@8
rdata$r	ENDS
;	COMDAT ??_R2error_category@std@@8
rdata$r	SEGMENT
??_R2error_category@std@@8 DD FLAT:??_R1A@?0A@EA@error_category@std@@8 ; std::error_category::`RTTI Base Class Array'
rdata$r	ENDS
;	COMDAT ??_R3error_category@std@@8
rdata$r	SEGMENT
??_R3error_category@std@@8 DD 00H			; std::error_category::`RTTI Class Hierarchy Descriptor'
	DD	00H
	DD	01H
	DD	FLAT:??_R2error_category@std@@8
rdata$r	ENDS
;	COMDAT ??_R0?AVerror_category@std@@@8
_DATA	SEGMENT
??_R0?AVerror_category@std@@@8 DD FLAT:??_7type_info@@6B@ ; std::error_category `RTTI Type Descriptor'
	DD	00H
	DB	'.?AVerror_category@std@@', 00H
_DATA	ENDS
;	COMDAT ??_R4error_category@std@@6B@
rdata$r	SEGMENT
??_R4error_category@std@@6B@ DD 00H			; std::error_category::`RTTI Complete Object Locator'
	DD	00H
	DD	00H
	DD	FLAT:??_R0?AVerror_category@std@@@8
	DD	FLAT:??_R3error_category@std@@8
rdata$r	ENDS
;	COMDAT ??_R1A@?0A@EA@InvalidBufferException@@8
rdata$r	SEGMENT
??_R1A@?0A@EA@InvalidBufferException@@8 DD FLAT:??_R0?AVInvalidBufferException@@@8 ; InvalidBufferException::`RTTI Base Class Descriptor at (0,-1,0,64)'
	DD	03H
	DD	00H
	DD	0ffffffffH
	DD	00H
	DD	040H
	DD	FLAT:??_R3InvalidBufferException@@8
rdata$r	ENDS
;	COMDAT ??_R2InvalidBufferException@@8
rdata$r	SEGMENT
??_R2InvalidBufferException@@8 DD FLAT:??_R1A@?0A@EA@InvalidBufferException@@8 ; InvalidBufferException::`RTTI Base Class Array'
	DD	FLAT:??_R1A@?0A@EA@out_of_range@std@@8
	DD	FLAT:??_R1A@?0A@EA@logic_error@std@@8
	DD	FLAT:??_R1A@?0A@EA@exception@std@@8
rdata$r	ENDS
;	COMDAT ??_R3InvalidBufferException@@8
rdata$r	SEGMENT
??_R3InvalidBufferException@@8 DD 00H			; InvalidBufferException::`RTTI Class Hierarchy Descriptor'
	DD	00H
	DD	04H
	DD	FLAT:??_R2InvalidBufferException@@8
rdata$r	ENDS
;	COMDAT ??_R4InvalidBufferException@@6B@
rdata$r	SEGMENT
??_R4InvalidBufferException@@6B@ DD 00H			; InvalidBufferException::`RTTI Complete Object Locator'
	DD	00H
	DD	00H
	DD	FLAT:??_R0?AVInvalidBufferException@@@8
	DD	FLAT:??_R3InvalidBufferException@@8
rdata$r	ENDS
;	COMDAT ??_R1A@?0A@EA@out_of_range@std@@8
rdata$r	SEGMENT
??_R1A@?0A@EA@out_of_range@std@@8 DD FLAT:??_R0?AVout_of_range@std@@@8 ; std::out_of_range::`RTTI Base Class Descriptor at (0,-1,0,64)'
	DD	02H
	DD	00H
	DD	0ffffffffH
	DD	00H
	DD	040H
	DD	FLAT:??_R3out_of_range@std@@8
rdata$r	ENDS
;	COMDAT ??_R2out_of_range@std@@8
rdata$r	SEGMENT
??_R2out_of_range@std@@8 DD FLAT:??_R1A@?0A@EA@out_of_range@std@@8 ; std::out_of_range::`RTTI Base Class Array'
	DD	FLAT:??_R1A@?0A@EA@logic_error@std@@8
	DD	FLAT:??_R1A@?0A@EA@exception@std@@8
rdata$r	ENDS
;	COMDAT ??_R3out_of_range@std@@8
rdata$r	SEGMENT
??_R3out_of_range@std@@8 DD 00H				; std::out_of_range::`RTTI Class Hierarchy Descriptor'
	DD	00H
	DD	03H
	DD	FLAT:??_R2out_of_range@std@@8
rdata$r	ENDS
;	COMDAT ??_R4out_of_range@std@@6B@
rdata$r	SEGMENT
??_R4out_of_range@std@@6B@ DD 00H			; std::out_of_range::`RTTI Complete Object Locator'
	DD	00H
	DD	00H
	DD	FLAT:??_R0?AVout_of_range@std@@@8
	DD	FLAT:??_R3out_of_range@std@@8
rdata$r	ENDS
;	COMDAT ??_R1A@?0A@EA@logic_error@std@@8
rdata$r	SEGMENT
??_R1A@?0A@EA@logic_error@std@@8 DD FLAT:??_R0?AVlogic_error@std@@@8 ; std::logic_error::`RTTI Base Class Descriptor at (0,-1,0,64)'
	DD	01H
	DD	00H
	DD	0ffffffffH
	DD	00H
	DD	040H
	DD	FLAT:??_R3logic_error@std@@8
rdata$r	ENDS
;	COMDAT ??_R2logic_error@std@@8
rdata$r	SEGMENT
??_R2logic_error@std@@8 DD FLAT:??_R1A@?0A@EA@logic_error@std@@8 ; std::logic_error::`RTTI Base Class Array'
	DD	FLAT:??_R1A@?0A@EA@exception@std@@8
rdata$r	ENDS
;	COMDAT ??_R3logic_error@std@@8
rdata$r	SEGMENT
??_R3logic_error@std@@8 DD 00H				; std::logic_error::`RTTI Class Hierarchy Descriptor'
	DD	00H
	DD	02H
	DD	FLAT:??_R2logic_error@std@@8
rdata$r	ENDS
;	COMDAT ??_R4logic_error@std@@6B@
rdata$r	SEGMENT
??_R4logic_error@std@@6B@ DD 00H			; std::logic_error::`RTTI Complete Object Locator'
	DD	00H
	DD	00H
	DD	FLAT:??_R0?AVlogic_error@std@@@8
	DD	FLAT:??_R3logic_error@std@@8
rdata$r	ENDS
;	COMDAT ??_R2exception@std@@8
rdata$r	SEGMENT
??_R2exception@std@@8 DD FLAT:??_R1A@?0A@EA@exception@std@@8 ; std::exception::`RTTI Base Class Array'
rdata$r	ENDS
;	COMDAT ??_R3exception@std@@8
rdata$r	SEGMENT
??_R3exception@std@@8 DD 00H				; std::exception::`RTTI Class Hierarchy Descriptor'
	DD	00H
	DD	01H
	DD	FLAT:??_R2exception@std@@8
rdata$r	ENDS
;	COMDAT ??_R1A@?0A@EA@exception@std@@8
rdata$r	SEGMENT
??_R1A@?0A@EA@exception@std@@8 DD FLAT:??_R0?AVexception@std@@@8 ; std::exception::`RTTI Base Class Descriptor at (0,-1,0,64)'
	DD	00H
	DD	00H
	DD	0ffffffffH
	DD	00H
	DD	040H
	DD	FLAT:??_R3exception@std@@8
rdata$r	ENDS
;	COMDAT ??_R1A@?0A@EA@VuEntity@@8
rdata$r	SEGMENT
??_R1A@?0A@EA@VuEntity@@8 DD FLAT:??_R0?AVVuEntity@@@8	; VuEntity::`RTTI Base Class Descriptor at (0,-1,0,64)'
	DD	00H
	DD	00H
	DD	0ffffffffH
	DD	00H
	DD	040H
	DD	FLAT:??_R3VuEntity@@8
rdata$r	ENDS
;	COMDAT ??_R2VuEntity@@8
rdata$r	SEGMENT
??_R2VuEntity@@8 DD FLAT:??_R1A@?0A@EA@VuEntity@@8	; VuEntity::`RTTI Base Class Array'
rdata$r	ENDS
;	COMDAT ??_R3VuEntity@@8
rdata$r	SEGMENT
??_R3VuEntity@@8 DD 00H					; VuEntity::`RTTI Class Hierarchy Descriptor'
	DD	00H
	DD	01H
	DD	FLAT:??_R2VuEntity@@8
rdata$r	ENDS
;	COMDAT ??_R0?AVVuEntity@@@8
_DATA	SEGMENT
??_R0?AVVuEntity@@@8 DD FLAT:??_7type_info@@6B@		; VuEntity `RTTI Type Descriptor'
	DD	00H
	DB	'.?AVVuEntity@@', 00H
_DATA	ENDS
;	COMDAT ??_R4VuEntity@@6B@
rdata$r	SEGMENT
??_R4VuEntity@@6B@ DD 00H				; VuEntity::`RTTI Complete Object Locator'
	DD	00H
	DD	00H
	DD	FLAT:??_R0?AVVuEntity@@@8
	DD	FLAT:??_R3VuEntity@@8
rdata$r	ENDS
;	COMDAT ??_C@_0BA@JFNIOLAK@string?5too?5long?$AA@
CONST	SEGMENT
??_C@_0BA@JFNIOLAK@string?5too?5long?$AA@ DB 'string too long', 00H ; `string'
CONST	ENDS
;	COMDAT ??_C@_0BI@CFPLBAOH@invalid?5string?5position?$AA@
CONST	SEGMENT
??_C@_0BI@CFPLBAOH@invalid?5string?5position?$AA@ DB 'invalid string posi'
	DB	'tion', 00H					; `string'
CONST	ENDS
;	COMDAT ??_C@_0BK@OPMJINFF@bad?5driver?5being?5assigned?$AA@
CONST	SEGMENT
??_C@_0BK@OPMJINFF@bad?5driver?5being?5assigned?$AA@ DB 'bad driver being'
	DB	' assigned', 00H				; `string'
CONST	ENDS
;	COMDAT ??_C@_06FHFOAHML@system?$AA@
CONST	SEGMENT
??_C@_06FHFOAHML@system?$AA@ DB 'system', 00H		; `string'
CONST	ENDS
;	COMDAT ??_7_System_error_category@std@@6B@
CONST	SEGMENT
??_7_System_error_category@std@@6B@ DD FLAT:??_R4_System_error_category@std@@6B@ ; std::_System_error_category::`vftable'
	DD	FLAT:??_E_System_error_category@std@@UAEPAXI@Z
	DD	FLAT:?name@_System_error_category@std@@UBEPBDXZ
	DD	FLAT:?message@_System_error_category@std@@UBE?AV?$basic_string@DU?$char_traits@D@std@@V?$allocator@D@2@@2@H@Z
	DD	FLAT:?default_error_condition@_System_error_category@std@@UBE?AVerror_condition@2@H@Z
	DD	FLAT:?equivalent@error_category@std@@UBE_NABVerror_code@2@H@Z
	DD	FLAT:?equivalent@error_category@std@@UBE_NHABVerror_condition@2@@Z
CONST	ENDS
;	COMDAT ??_C@_0BG@PADBLCHM@iostream?5stream?5error?$AA@
CONST	SEGMENT
??_C@_0BG@PADBLCHM@iostream?5stream?5error?$AA@ DB 'iostream stream error'
	DB	00H						; `string'
CONST	ENDS
;	COMDAT ??_C@_08LLGCOLLL@iostream?$AA@
CONST	SEGMENT
??_C@_08LLGCOLLL@iostream?$AA@ DB 'iostream', 00H	; `string'
CONST	ENDS
;	COMDAT ??_7_Iostream_error_category@std@@6B@
CONST	SEGMENT
??_7_Iostream_error_category@std@@6B@ DD FLAT:??_R4_Iostream_error_category@std@@6B@ ; std::_Iostream_error_category::`vftable'
	DD	FLAT:??_E_Iostream_error_category@std@@UAEPAXI@Z
	DD	FLAT:?name@_Iostream_error_category@std@@UBEPBDXZ
	DD	FLAT:?message@_Iostream_error_category@std@@UBE?AV?$basic_string@DU?$char_traits@D@std@@V?$allocator@D@2@@2@H@Z
	DD	FLAT:?default_error_condition@error_category@std@@UBE?AVerror_condition@2@H@Z
	DD	FLAT:?equivalent@error_category@std@@UBE_NABVerror_code@2@H@Z
	DD	FLAT:?equivalent@error_category@std@@UBE_NHABVerror_condition@2@@Z
CONST	ENDS
;	COMDAT ??_C@_0O@BFJCFAAK@unknown?5error?$AA@
CONST	SEGMENT
??_C@_0O@BFJCFAAK@unknown?5error?$AA@ DB 'unknown error', 00H ; `string'
CONST	ENDS
;	COMDAT ??_C@_07DCLBNMLN@generic?$AA@
CONST	SEGMENT
??_C@_07DCLBNMLN@generic?$AA@ DB 'generic', 00H		; `string'
CONST	ENDS
;	COMDAT ??_7_Generic_error_category@std@@6B@
CONST	SEGMENT
??_7_Generic_error_category@std@@6B@ DD FLAT:??_R4_Generic_error_category@std@@6B@ ; std::_Generic_error_category::`vftable'
	DD	FLAT:??_E_Generic_error_category@std@@UAEPAXI@Z
	DD	FLAT:?name@_Generic_error_category@std@@UBEPBDXZ
	DD	FLAT:?message@_Generic_error_category@std@@UBE?AV?$basic_string@DU?$char_traits@D@std@@V?$allocator@D@2@@2@H@Z
	DD	FLAT:?default_error_condition@error_category@std@@UBE?AVerror_condition@2@H@Z
	DD	FLAT:?equivalent@error_category@std@@UBE_NABVerror_code@2@H@Z
	DD	FLAT:?equivalent@error_category@std@@UBE_NHABVerror_condition@2@@Z
CONST	ENDS
;	COMDAT ??_7error_category@std@@6B@
CONST	SEGMENT
??_7error_category@std@@6B@ DD FLAT:??_R4error_category@std@@6B@ ; std::error_category::`vftable'
	DD	FLAT:??_Eerror_category@std@@UAEPAXI@Z
	DD	FLAT:__purecall
	DD	FLAT:__purecall
	DD	FLAT:?default_error_condition@error_category@std@@UBE?AVerror_condition@2@H@Z
	DD	FLAT:?equivalent@error_category@std@@UBE_NABVerror_code@2@H@Z
	DD	FLAT:?equivalent@error_category@std@@UBE_NHABVerror_condition@2@@Z
CONST	ENDS
;	COMDAT ??_C@_0N@FICPPONG@entity?5mutex?$AA@
CONST	SEGMENT
??_C@_0N@FICPPONG@entity?5mutex?$AA@ DB 'entity mutex', 00H ; `string'
CONST	ENDS
;	COMDAT __CT??_R0?AVexception@std@@@8??0exception@std@@QAE@ABV01@@Z12
xdata$x	SEGMENT
__CT??_R0?AVexception@std@@@8??0exception@std@@QAE@ABV01@@Z12 DD 00H
	DD	FLAT:??_R0?AVexception@std@@@8
	DD	00H
	DD	0ffffffffH
	ORG $+4
	DD	0cH
	DD	FLAT:??0exception@std@@QAE@ABV01@@Z
xdata$x	ENDS
;	COMDAT ??_R0?AVexception@std@@@8
_DATA	SEGMENT
??_R0?AVexception@std@@@8 DD FLAT:??_7type_info@@6B@	; std::exception `RTTI Type Descriptor'
	DD	00H
	DB	'.?AVexception@std@@', 00H
_DATA	ENDS
;	COMDAT __CT??_R0?AVlogic_error@std@@@8??0logic_error@std@@QAE@ABV01@@Z12
xdata$x	SEGMENT
__CT??_R0?AVlogic_error@std@@@8??0logic_error@std@@QAE@ABV01@@Z12 DD 00H
	DD	FLAT:??_R0?AVlogic_error@std@@@8
	DD	00H
	DD	0ffffffffH
	ORG $+4
	DD	0cH
	DD	FLAT:??0logic_error@std@@QAE@ABV01@@Z
xdata$x	ENDS
;	COMDAT ??_R0?AVlogic_error@std@@@8
_DATA	SEGMENT
??_R0?AVlogic_error@std@@@8 DD FLAT:??_7type_info@@6B@	; std::logic_error `RTTI Type Descriptor'
	DD	00H
	DB	'.?AVlogic_error@std@@', 00H
_DATA	ENDS
;	COMDAT __CT??_R0?AVout_of_range@std@@@8??0out_of_range@std@@QAE@ABV01@@Z12
xdata$x	SEGMENT
__CT??_R0?AVout_of_range@std@@@8??0out_of_range@std@@QAE@ABV01@@Z12 DD 00H
	DD	FLAT:??_R0?AVout_of_range@std@@@8
	DD	00H
	DD	0ffffffffH
	ORG $+4
	DD	0cH
	DD	FLAT:??0out_of_range@std@@QAE@ABV01@@Z
xdata$x	ENDS
;	COMDAT ??_R0?AVout_of_range@std@@@8
_DATA	SEGMENT
??_R0?AVout_of_range@std@@@8 DD FLAT:??_7type_info@@6B@	; std::out_of_range `RTTI Type Descriptor'
	DD	00H
	DB	'.?AVout_of_range@std@@', 00H
_DATA	ENDS
;	COMDAT __CT??_R0?AVInvalidBufferException@@@8??0InvalidBufferException@@QAE@ABV0@@Z12
xdata$x	SEGMENT
__CT??_R0?AVInvalidBufferException@@@8??0InvalidBufferException@@QAE@ABV0@@Z12 DD 00H
	DD	FLAT:??_R0?AVInvalidBufferException@@@8
	DD	00H
	DD	0ffffffffH
	ORG $+4
	DD	0cH
	DD	FLAT:??0InvalidBufferException@@QAE@ABV0@@Z
xdata$x	ENDS
;	COMDAT ??_R0?AVInvalidBufferException@@@8
_DATA	SEGMENT
??_R0?AVInvalidBufferException@@@8 DD FLAT:??_7type_info@@6B@ ; InvalidBufferException `RTTI Type Descriptor'
	DD	00H
	DB	'.?AVInvalidBufferException@@', 00H
_DATA	ENDS
;	COMDAT __CTA4?AVInvalidBufferException@@
xdata$x	SEGMENT
__CTA4?AVInvalidBufferException@@ DD 04H
	DD	FLAT:__CT??_R0?AVInvalidBufferException@@@8??0InvalidBufferException@@QAE@ABV0@@Z12
	DD	FLAT:__CT??_R0?AVout_of_range@std@@@8??0out_of_range@std@@QAE@ABV01@@Z12
	DD	FLAT:__CT??_R0?AVlogic_error@std@@@8??0logic_error@std@@QAE@ABV01@@Z12
	DD	FLAT:__CT??_R0?AVexception@std@@@8??0exception@std@@QAE@ABV01@@Z12
xdata$x	ENDS
;	COMDAT __TI4?AVInvalidBufferException@@
xdata$x	SEGMENT
__TI4?AVInvalidBufferException@@ DD 00H
	DD	FLAT:??1InvalidBufferException@@UAE@XZ
	DD	00H
	DD	FLAT:__CTA4?AVInvalidBufferException@@
xdata$x	ENDS
;	COMDAT ??_C@_0CI@MPKJAHJH@Trying?5to?5write?5?$CFlu?5bytes?5to?5?$CFld@
CONST	SEGMENT
??_C@_0CI@MPKJAHJH@Trying?5to?5write?5?$CFlu?5bytes?5to?5?$CFld@ DB 'Tryi'
	DB	'ng to write %lu bytes to %ld buffer', 00H	; `string'
CONST	ENDS
;	COMDAT ??_7InvalidBufferException@@6B@
CONST	SEGMENT
??_7InvalidBufferException@@6B@ DD FLAT:??_R4InvalidBufferException@@6B@ ; InvalidBufferException::`vftable'
	DD	FLAT:??_EInvalidBufferException@@UAEPAXI@Z
	DD	FLAT:?what@exception@std@@UBEPBDXZ
CONST	ENDS
;	COMDAT ??_7out_of_range@std@@6B@
CONST	SEGMENT
??_7out_of_range@std@@6B@ DD FLAT:??_R4out_of_range@std@@6B@ ; std::out_of_range::`vftable'
	DD	FLAT:??_Eout_of_range@std@@UAEPAXI@Z
	DD	FLAT:?what@exception@std@@UBEPBDXZ
CONST	ENDS
;	COMDAT ??_7logic_error@std@@6B@
CONST	SEGMENT
??_7logic_error@std@@6B@ DD FLAT:??_R4logic_error@std@@6B@ ; std::logic_error::`vftable'
	DD	FLAT:??_Elogic_error@std@@UAEPAXI@Z
	DD	FLAT:?what@exception@std@@UBEPBDXZ
CONST	ENDS
;	COMDAT ??_7VuEntity@@6B@
CONST	SEGMENT
??_7VuEntity@@6B@ DD FLAT:??_R4VuEntity@@6B@		; VuEntity::`vftable'
	DD	FLAT:?CustomCollisionCheck@VuEntity@@UAEEPAV1@M@Z
	DD	FLAT:?TerrainCollisionCheck@VuEntity@@UAEEXZ
	DD	FLAT:?IsTarget@VuEntity@@UAEEXZ
	DD	FLAT:?IsSession@VuEntity@@UAEEXZ
	DD	FLAT:?IsGroup@VuEntity@@UAEEXZ
	DD	FLAT:?IsGame@VuEntity@@UAEEXZ
	DD	FLAT:?IsCamera@VuEntity@@UBEEXZ
	DD	FLAT:?SaveSize@VuEntity@@UAEHXZ
	DD	FLAT:?Save@VuEntity@@UAEHPAU_iobuf@@@Z
	DD	FLAT:?Save@VuEntity@@UAEHPAPAE@Z
	DD	FLAT:?Handle@VuEntity@@UAEHPAVVuSessionEvent@@@Z
	DD	FLAT:?Handle@VuEntity@@UAEHPAVVuTransferEvent@@@Z
	DD	FLAT:?Handle@VuEntity@@UAEHPAVVuEntityCollisionEvent@@@Z
	DD	FLAT:?Handle@VuEntity@@UAEHPAVVuPositionUpdateEvent@@@Z
	DD	FLAT:?Handle@VuEntity@@UAEHPAVVuFullUpdateEvent@@@Z
	DD	FLAT:?Handle@VuEntity@@UAEHPAVVuEvent@@@Z
	DD	FLAT:?Handle@VuEntity@@UAEHPAVVuPullRequest@@@Z
	DD	FLAT:?Handle@VuEntity@@UAEHPAVVuPushRequest@@@Z
	DD	FLAT:?Handle@VuEntity@@UAEHPAVVuErrorMessage@@@Z
	DD	FLAT:??_EVuEntity@@MAEPAXI@Z
	DD	FLAT:?InsertionCallback@VuEntity@@MAEHXZ
	DD	FLAT:?RemovalCallback@VuEntity@@MAEHXZ
CONST	ENDS
;	COMDAT xdata$x
xdata$x	SEGMENT
__unwindtable$??$construct@PADAAPAD@?$allocator@D@std@@QAEXPAPADAAPAD@Z DD 0ffffffffH
	DD	FLAT:__unwindfunclet$??$construct@PADAAPAD@?$allocator@D@std@@QAEXPAPADAAPAD@Z$0
__ehfuncinfo$??$construct@PADAAPAD@?$allocator@D@std@@QAEXPAPADAAPAD@Z DD 019930522H
	DD	01H
	DD	FLAT:__unwindtable$??$construct@PADAAPAD@?$allocator@D@std@@QAEXPAPADAAPAD@Z
	DD	2 DUP(00H)
	DD	2 DUP(00H)
	DD	00H
	DD	01H
xdata$x	ENDS
;	COMDAT xdata$x
xdata$x	SEGMENT
__unwindtable$?memcpychk@@YAXPAXPAPAEIPAJ@Z DD 0ffffffffH
	DD	FLAT:__unwindfunclet$?memcpychk@@YAXPAXPAPAEIPAJ@Z$0
__ehfuncinfo$?memcpychk@@YAXPAXPAPAEIPAJ@Z DD 019930522H
	DD	01H
	DD	FLAT:__unwindtable$?memcpychk@@YAXPAXPAPAEIPAJ@Z
	DD	2 DUP(00H)
	DD	2 DUP(00H)
	DD	00H
	DD	01H
xdata$x	ENDS
;	COMDAT xdata$x
xdata$x	SEGMENT
__catchsym$?_Copy@?$basic_string@DU?$char_traits@D@std@@V?$allocator@D@2@@std@@QAEXII@Z$5 DD 040H
	DD	00H
	DD	00H
	DD	FLAT:__catch$?_Copy@?$basic_string@DU?$char_traits@D@std@@V?$allocator@D@2@@std@@QAEXII@Z$0
__catchsym$?_Copy@?$basic_string@DU?$char_traits@D@std@@V?$allocator@D@2@@std@@QAEXII@Z$4 DD 040H
	DD	00H
	DD	00H
	DD	FLAT:__catch$?_Copy@?$basic_string@DU?$char_traits@D@std@@V?$allocator@D@2@@std@@QAEXII@Z$1
__unwindtable$?_Copy@?$basic_string@DU?$char_traits@D@std@@V?$allocator@D@2@@std@@QAEXII@Z DD 0ffffffffH
	DD	00H
	DD	0ffffffffH
	DD	00H
	DD	01H
	DD	00H
	DD	01H
	DD	00H
__ehfuncinfo$?_Copy@?$basic_string@DU?$char_traits@D@std@@V?$allocator@D@2@@std@@QAEXII@Z DD 019930522H
	DD	04H
	DD	FLAT:__unwindtable$?_Copy@?$basic_string@DU?$char_traits@D@std@@V?$allocator@D@2@@std@@QAEXII@Z
	DD	02H
	DD	FLAT:__tryblocktable$?_Copy@?$basic_string@DU?$char_traits@D@std@@V?$allocator@D@2@@std@@QAEXII@Z
	DD	2 DUP(00H)
	DD	00H
	DD	01H
__tryblocktable$?_Copy@?$basic_string@DU?$char_traits@D@std@@V?$allocator@D@2@@std@@QAEXII@Z DD 02H
	DD	02H
	DD	03H
	DD	01H
	DD	FLAT:__catchsym$?_Copy@?$basic_string@DU?$char_traits@D@std@@V?$allocator@D@2@@std@@QAEXII@Z$4
	DD	00H
	DD	00H
	DD	03H
	DD	01H
	DD	FLAT:__catchsym$?_Copy@?$basic_string@DU?$char_traits@D@std@@V?$allocator@D@2@@std@@QAEXII@Z$5
xdata$x	ENDS
xdata$x	SEGMENT
__unwindtable$?SetOwnerId@VuEntity@@QAEXVVU_ID@@@Z DD 0ffffffffH
	DD	FLAT:__unwindfunclet$?SetOwnerId@VuEntity@@QAEXVVU_ID@@@Z$0
__unwindtable$?Handle@VuEntity@@UAEHPAVVuPushRequest@@@Z DD 0ffffffffH
	DD	FLAT:__unwindfunclet$?Handle@VuEntity@@UAEHPAVVuPushRequest@@@Z$0
	DD	0ffffffffH
	DD	FLAT:__unwindfunclet$?Handle@VuEntity@@UAEHPAVVuPushRequest@@@Z$1
	DD	0ffffffffH
	DD	FLAT:__unwindfunclet$?Handle@VuEntity@@UAEHPAVVuPushRequest@@@Z$2
__unwindtable$?Handle@VuEntity@@UAEHPAVVuPullRequest@@@Z DD 0ffffffffH
	DD	FLAT:__unwindfunclet$?Handle@VuEntity@@UAEHPAVVuPullRequest@@@Z$0
	DD	0ffffffffH
	DD	FLAT:__unwindfunclet$?Handle@VuEntity@@UAEHPAVVuPullRequest@@@Z$1
	DD	0ffffffffH
	DD	FLAT:__unwindfunclet$?Handle@VuEntity@@UAEHPAVVuPullRequest@@@Z$2
	DD	0ffffffffH
	DD	FLAT:__unwindfunclet$?Handle@VuEntity@@UAEHPAVVuPullRequest@@@Z$3
__ehfuncinfo$?Handle@VuEntity@@UAEHPAVVuPullRequest@@@Z DD 019930522H
	DD	04H
	DD	FLAT:__unwindtable$?Handle@VuEntity@@UAEHPAVVuPullRequest@@@Z
	DD	2 DUP(00H)
	DD	2 DUP(00H)
	DD	00H
	DD	01H
__ehfuncinfo$?Handle@VuEntity@@UAEHPAVVuPushRequest@@@Z DD 019930522H
	DD	03H
	DD	FLAT:__unwindtable$?Handle@VuEntity@@UAEHPAVVuPushRequest@@@Z
	DD	2 DUP(00H)
	DD	2 DUP(00H)
	DD	00H
	DD	01H
__ehfuncinfo$?SetOwnerId@VuEntity@@QAEXVVU_ID@@@Z DD 019930522H
	DD	01H
	DD	FLAT:__unwindtable$?SetOwnerId@VuEntity@@QAEXVVU_ID@@@Z
	DD	2 DUP(00H)
	DD	2 DUP(00H)
	DD	00H
	DD	01H
xdata$x	ENDS
CRT$XCU	SEGMENT
_allocator_arg$initializer$ DD FLAT:??__Eallocator_arg@std@@YAXXZ
CRT$XCU	ENDS
CRT$XCU	SEGMENT
_vuNullId$initializer$ DD FLAT:??__EvuNullId@@YAXXZ
CRT$XCU	ENDS
;	COMDAT CRT$XCU
CRT$XCU	SEGMENT
?_Generic_object$initializer$@?$_Error_objects@H@std@@2P6AXXZA DD FLAT:??__E?_Generic_object@?$_Error_objects@H@std@@2V_Generic_error_category@2@A@@YAXXZ ; std::_Error_objects<int>::_Generic_object$initializer$
CRT$XCU	ENDS
;	COMDAT CRT$XCU
CRT$XCU	SEGMENT
?_Iostream_object$initializer$@?$_Error_objects@H@std@@2P6AXXZA DD FLAT:??__E?_Iostream_object@?$_Error_objects@H@std@@2V_Iostream_error_category@2@A@@YAXXZ ; std::_Error_objects<int>::_Iostream_object$initializer$
CRT$XCU	ENDS
;	COMDAT CRT$XCU
CRT$XCU	SEGMENT
?_System_object$initializer$@?$_Error_objects@H@std@@2P6AXXZA DD FLAT:??__E?_System_object@?$_Error_objects@H@std@@2V_System_error_category@2@A@@YAXXZ ; std::_Error_objects<int>::_System_object$initializer$
CRT$XCU	ENDS
;	COMDAT CRT$XCU
CRT$XCU	SEGMENT
?id$initializer$@?$num_put@DV?$back_insert_iterator@V?$basic_string@DU?$char_traits@D@std@@V?$allocator@D@2@@std@@@std@@@std@@2P6AXXZA DD FLAT:??__E?id@?$num_put@DV?$back_insert_iterator@V?$basic_string@DU?$char_traits@D@std@@V?$allocator@D@2@@std@@@std@@@std@@2V0locale@2@A@@YAXXZ ; std::num_put<char,std::back_insert_iterator<std::basic_string<char,std::char_traits<char>,std::allocator<char> > > >::id$initializer$
CRT$XCU	ENDS
;	COMDAT CRT$XCU
CRT$XCU	SEGMENT
?id$initializer$@?$num_put@_WV?$back_insert_iterator@V?$basic_string@_WU?$char_traits@_W@std@@V?$allocator@_W@2@@std@@@std@@@std@@2P6AXXZA DD FLAT:??__E?id@?$num_put@_WV?$back_insert_iterator@V?$basic_string@_WU?$char_traits@_W@std@@V?$allocator@_W@2@@std@@@std@@@std@@2V0locale@2@A@@YAXXZ ; std::num_put<wchar_t,std::back_insert_iterator<std::basic_string<wchar_t,std::char_traits<wchar_t>,std::allocator<wchar_t> > > >::id$initializer$
CRT$XCU	ENDS
;	COMDAT CRT$XCU
CRT$XCU	SEGMENT
?id$initializer$@?$numpunct@D@std@@2P6AXXZA DD FLAT:??__E?id@?$numpunct@D@std@@2V0locale@2@A@@YAXXZ ; std::numpunct<char>::id$initializer$
CRT$XCU	ENDS
;	COMDAT CRT$XCU
CRT$XCU	SEGMENT
?id$initializer$@?$numpunct@_W@std@@2P6AXXZA DD FLAT:??__E?id@?$numpunct@_W@std@@2V0locale@2@A@@YAXXZ ; std::numpunct<wchar_t>::id$initializer$
CRT$XCU	ENDS
; Function compile flags: /Odtp
; File c:\program files (x86)\microsoft visual studio 11.0\vc\include\xmemory0
;	COMDAT ??$destroy@PAD@?$allocator@D@std@@QAEXPAPAD@Z
_TEXT	SEGMENT
_this$ = -4						; size = 4
__Ptr$ = 8						; size = 4
??$destroy@PAD@?$allocator@D@std@@QAEXPAPAD@Z PROC	; std::allocator<char>::destroy<char *>, COMDAT
; _this$ = ecx

; 621  : 		void destroy(_Uty *_Ptr)

	push	ebp
	mov	ebp, esp
	push	ecx
	mov	DWORD PTR _this$[ebp], ecx

; 622  : 		{	// destroy object at _Ptr
; 623  : 		_Ptr->~_Uty();
; 624  : 		}

	mov	esp, ebp
	pop	ebp
	ret	4
??$destroy@PAD@?$allocator@D@std@@QAEXPAPAD@Z ENDP	; std::allocator<char>::destroy<char *>
_TEXT	ENDS
; Function compile flags: /Odtp
; File c:\program files (x86)\microsoft visual studio 11.0\vc\include\xmemory0
;	COMDAT ??$construct@PADAAPAD@?$allocator@D@std@@QAEXPAPADAAPAD@Z
_TEXT	SEGMENT
$T2 = -28						; size = 4
_this$ = -24						; size = 4
tv73 = -20						; size = 4
$T3 = -16						; size = 4
__$EHRec$ = -12						; size = 12
__Ptr$ = 8						; size = 4
__V0$ = 12						; size = 4
??$construct@PADAAPAD@?$allocator@D@std@@QAEXPAPADAAPAD@Z PROC ; std::allocator<char>::construct<char *,char * &>, COMDAT
; _this$ = ecx

; 617  : _VARIADIC_EXPAND_0X(_ALLOC_MEMBER_CONSTRUCT, , , , )

	push	ebp
	mov	ebp, esp
	push	-1
	push	__ehhandler$??$construct@PADAAPAD@?$allocator@D@std@@QAEXPAPADAAPAD@Z
	mov	eax, DWORD PTR fs:0
	push	eax
	sub	esp, 16					; 00000010H
	mov	eax, DWORD PTR ___security_cookie
	xor	eax, ebp
	push	eax
	lea	eax, DWORD PTR __$EHRec$[ebp]
	mov	DWORD PTR fs:0, eax
	mov	DWORD PTR _this$[ebp], ecx
	mov	eax, DWORD PTR __Ptr$[ebp]
	push	eax
	push	4
	call	??2@YAPAXIPAX@Z				; operator new
	add	esp, 8
	mov	DWORD PTR $T3[ebp], eax
	mov	DWORD PTR __$EHRec$[ebp+8], 0
	cmp	DWORD PTR $T3[ebp], 0
	je	SHORT $LN3@construct
	mov	ecx, DWORD PTR __V0$[ebp]
	push	ecx
	call	??$forward@AAPAD@std@@YAAAPADAAPAD@Z	; std::forward<char * &>
	add	esp, 4
	mov	edx, DWORD PTR $T3[ebp]
	mov	eax, DWORD PTR [eax]
	mov	DWORD PTR [edx], eax
	mov	ecx, DWORD PTR $T3[ebp]
	mov	DWORD PTR tv73[ebp], ecx
	jmp	SHORT $LN4@construct
$LN3@construct:
	mov	DWORD PTR tv73[ebp], 0
$LN4@construct:
	mov	edx, DWORD PTR tv73[ebp]
	mov	DWORD PTR $T2[ebp], edx
	mov	DWORD PTR __$EHRec$[ebp+8], -1
	mov	ecx, DWORD PTR __$EHRec$[ebp]
	mov	DWORD PTR fs:0, ecx
	pop	ecx
	mov	esp, ebp
	pop	ebp
	ret	8
_TEXT	ENDS
;	COMDAT text$x
text$x	SEGMENT
__unwindfunclet$??$construct@PADAAPAD@?$allocator@D@std@@QAEXPAPADAAPAD@Z$0:
	mov	eax, DWORD PTR __Ptr$[ebp]
	push	eax
	mov	eax, DWORD PTR $T3[ebp]
	push	eax
	call	??3@YAXPAX0@Z				; operator delete
	add	esp, 8
	ret	0
__ehhandler$??$construct@PADAAPAD@?$allocator@D@std@@QAEXPAPADAAPAD@Z:
	mov	edx, DWORD PTR [esp+8]
	lea	eax, DWORD PTR [edx+12]
	mov	ecx, DWORD PTR [edx-20]
	xor	ecx, eax
	call	@__security_check_cookie@4
	mov	eax, OFFSET __ehfuncinfo$??$construct@PADAAPAD@?$allocator@D@std@@QAEXPAPADAAPAD@Z
	jmp	___CxxFrameHandler3
text$x	ENDS
??$construct@PADAAPAD@?$allocator@D@std@@QAEXPAPADAAPAD@Z ENDP ; std::allocator<char>::construct<char *,char * &>
; Function compile flags: /Odtp
; File c:\program files (x86)\microsoft visual studio 11.0\vc\include\xlocnum
;	COMDAT ??__E?id@?$numpunct@_W@std@@2V0locale@2@A@@YAXXZ
text$yc	SEGMENT
??__E?id@?$numpunct@_W@std@@2V0locale@2@A@@YAXXZ PROC	; `dynamic initializer for 'std::numpunct<wchar_t>::id'', COMDAT

; 155  : 		void _Getvals(wchar_t, const lconv *_Ptr, _Locinfo::_Cvtvec)

	push	ebp
	mov	ebp, esp
	push	0
	mov	ecx, OFFSET ?id@?$numpunct@_W@std@@2V0locale@2@A ; std::numpunct<wchar_t>::id
	call	??0id@locale@std@@QAE@I@Z		; std::locale::id::id
	pop	ebp
	ret	0
??__E?id@?$numpunct@_W@std@@2V0locale@2@A@@YAXXZ ENDP	; `dynamic initializer for 'std::numpunct<wchar_t>::id''
text$yc	ENDS
; Function compile flags: /Odtp
; File c:\program files (x86)\microsoft visual studio 11.0\vc\include\xlocnum
;	COMDAT ??__E?id@?$numpunct@D@std@@2V0locale@2@A@@YAXXZ
text$yc	SEGMENT
??__E?id@?$numpunct@D@std@@2V0locale@2@A@@YAXXZ PROC	; `dynamic initializer for 'std::numpunct<char>::id'', COMDAT

; 155  : 		void _Getvals(wchar_t, const lconv *_Ptr, _Locinfo::_Cvtvec)

	push	ebp
	mov	ebp, esp
	push	0
	mov	ecx, OFFSET ?id@?$numpunct@D@std@@2V0locale@2@A ; std::numpunct<char>::id
	call	??0id@locale@std@@QAE@I@Z		; std::locale::id::id
	pop	ebp
	ret	0
??__E?id@?$numpunct@D@std@@2V0locale@2@A@@YAXXZ ENDP	; `dynamic initializer for 'std::numpunct<char>::id''
text$yc	ENDS
; Function compile flags: /Odtp
; File c:\program files (x86)\microsoft visual studio 11.0\vc\include\xlocnum
;	COMDAT ??__E?id@?$num_put@_WV?$back_insert_iterator@V?$basic_string@_WU?$char_traits@_W@std@@V?$allocator@_W@2@@std@@@std@@@std@@2V0locale@2@A@@YAXXZ
text$yc	SEGMENT
??__E?id@?$num_put@_WV?$back_insert_iterator@V?$basic_string@_WU?$char_traits@_W@std@@V?$allocator@_W@2@@std@@@std@@@std@@2V0locale@2@A@@YAXXZ PROC ; `dynamic initializer for 'std::num_put<wchar_t,std::back_insert_iterator<std::basic_string<wchar_t,std::char_traits<wchar_t>,std::allocator<wchar_t> > > >::id'', COMDAT

; 155  : 		void _Getvals(wchar_t, const lconv *_Ptr, _Locinfo::_Cvtvec)

	push	ebp
	mov	ebp, esp
	push	0
	mov	ecx, OFFSET ?id@?$num_put@_WV?$back_insert_iterator@V?$basic_string@_WU?$char_traits@_W@std@@V?$allocator@_W@2@@std@@@std@@@std@@2V0locale@2@A ; std::num_put<wchar_t,std::back_insert_iterator<std::basic_string<wchar_t,std::char_traits<wchar_t>,std::allocator<wchar_t> > > >::id
	call	??0id@locale@std@@QAE@I@Z		; std::locale::id::id
	pop	ebp
	ret	0
??__E?id@?$num_put@_WV?$back_insert_iterator@V?$basic_string@_WU?$char_traits@_W@std@@V?$allocator@_W@2@@std@@@std@@@std@@2V0locale@2@A@@YAXXZ ENDP ; `dynamic initializer for 'std::num_put<wchar_t,std::back_insert_iterator<std::basic_string<wchar_t,std::char_traits<wchar_t>,std::allocator<wchar_t> > > >::id''
text$yc	ENDS
; Function compile flags: /Odtp
; File c:\program files (x86)\microsoft visual studio 11.0\vc\include\xlocnum
;	COMDAT ??__E?id@?$num_put@DV?$back_insert_iterator@V?$basic_string@DU?$char_traits@D@std@@V?$allocator@D@2@@std@@@std@@@std@@2V0locale@2@A@@YAXXZ
text$yc	SEGMENT
??__E?id@?$num_put@DV?$back_insert_iterator@V?$basic_string@DU?$char_traits@D@std@@V?$allocator@D@2@@std@@@std@@@std@@2V0locale@2@A@@YAXXZ PROC ; `dynamic initializer for 'std::num_put<char,std::back_insert_iterator<std::basic_string<char,std::char_traits<char>,std::allocator<char> > > >::id'', COMDAT

; 155  : 		void _Getvals(wchar_t, const lconv *_Ptr, _Locinfo::_Cvtvec)

	push	ebp
	mov	ebp, esp
	push	0
	mov	ecx, OFFSET ?id@?$num_put@DV?$back_insert_iterator@V?$basic_string@DU?$char_traits@D@std@@V?$allocator@D@2@@std@@@std@@@std@@2V0locale@2@A ; std::num_put<char,std::back_insert_iterator<std::basic_string<char,std::char_traits<char>,std::allocator<char> > > >::id
	call	??0id@locale@std@@QAE@I@Z		; std::locale::id::id
	pop	ebp
	ret	0
??__E?id@?$num_put@DV?$back_insert_iterator@V?$basic_string@DU?$char_traits@D@std@@V?$allocator@D@2@@std@@@std@@@std@@2V0locale@2@A@@YAXXZ ENDP ; `dynamic initializer for 'std::num_put<char,std::back_insert_iterator<std::basic_string<char,std::char_traits<char>,std::allocator<char> > > >::id''
text$yc	ENDS
; Function compile flags: /Odtp
; File c:\program files (x86)\microsoft visual studio 11.0\vc\include\xmemory0
;	COMDAT ??$destroy@PAD@?$allocator_traits@V?$allocator@D@std@@@std@@SAXAAV?$allocator@D@1@PAPAD@Z
_TEXT	SEGMENT
__Al$ = 8						; size = 4
__Ptr$ = 12						; size = 4
??$destroy@PAD@?$allocator_traits@V?$allocator@D@std@@@std@@SAXAAV?$allocator@D@1@PAPAD@Z PROC ; std::allocator_traits<std::allocator<char> >::destroy<char *>, COMDAT

; 755  : 		static void destroy(_Alloc& _Al, _Uty *_Ptr)

	push	ebp
	mov	ebp, esp

; 756  : 		{	// destroy object at _Ptr
; 757  : 		_Al.destroy(_Ptr);

	mov	eax, DWORD PTR __Ptr$[ebp]
	push	eax
	mov	ecx, DWORD PTR __Al$[ebp]
	call	??$destroy@PAD@?$allocator@D@std@@QAEXPAPAD@Z ; std::allocator<char>::destroy<char *>

; 758  : 		}

	pop	ebp
	ret	0
??$destroy@PAD@?$allocator_traits@V?$allocator@D@std@@@std@@SAXAAV?$allocator@D@1@PAPAD@Z ENDP ; std::allocator_traits<std::allocator<char> >::destroy<char *>
_TEXT	ENDS
; Function compile flags: /Odtp
; File c:\program files (x86)\microsoft visual studio 11.0\vc\include\xmemory0
;	COMDAT ??$construct@PADAAPAD@?$allocator_traits@V?$allocator@D@std@@@std@@SAXAAV?$allocator@D@1@PAPADAAPAD@Z
_TEXT	SEGMENT
__Al$ = 8						; size = 4
__Ptr$ = 12						; size = 4
__V0$ = 16						; size = 4
??$construct@PADAAPAD@?$allocator_traits@V?$allocator@D@std@@@std@@SAXAAV?$allocator@D@1@PAPADAAPAD@Z PROC ; std::allocator_traits<std::allocator<char> >::construct<char *,char * &>, COMDAT

; 751  : _VARIADIC_EXPAND_0X(_ALLOC_TRAITS_SPECIAL_CONSTRUCT, , , , )

	push	ebp
	mov	ebp, esp
	mov	eax, DWORD PTR __V0$[ebp]
	push	eax
	call	??$forward@AAPAD@std@@YAAAPADAAPAD@Z	; std::forward<char * &>
	add	esp, 4
	push	eax
	mov	ecx, DWORD PTR __Ptr$[ebp]
	push	ecx
	mov	ecx, DWORD PTR __Al$[ebp]
	call	??$construct@PADAAPAD@?$allocator@D@std@@QAEXPAPADAAPAD@Z ; std::allocator<char>::construct<char *,char * &>
	pop	ebp
	ret	0
??$construct@PADAAPAD@?$allocator_traits@V?$allocator@D@std@@@std@@SAXAAV?$allocator@D@1@PAPADAAPAD@Z ENDP ; std::allocator_traits<std::allocator<char> >::construct<char *,char * &>
_TEXT	ENDS
; Function compile flags: /Odtp
; File c:\program files (x86)\microsoft visual studio 11.0\vc\include\type_traits
;	COMDAT ??$forward@AAPAD@std@@YAAAPADAAPAD@Z
_TEXT	SEGMENT
__Arg$ = 8						; size = 4
??$forward@AAPAD@std@@YAAAPADAAPAD@Z PROC		; std::forward<char * &>, COMDAT

; 1775 : 	{	// forward an lvalue

	push	ebp
	mov	ebp, esp

; 1776 : 	return (static_cast<_Ty&&>(_Arg));

	mov	eax, DWORD PTR __Arg$[ebp]

; 1777 : 	}

	pop	ebp
	ret	0
??$forward@AAPAD@std@@YAAAPADAAPAD@Z ENDP		; std::forward<char * &>
_TEXT	ENDS
; Function compile flags: /Odtp
;	COMDAT ??__F?_System_object@?$_Error_objects@H@std@@2V_System_error_category@2@A@@YAXXZ
text$yd	SEGMENT
??__F?_System_object@?$_Error_objects@H@std@@2V_System_error_category@2@A@@YAXXZ PROC ; `dynamic atexit destructor for 'std::_Error_objects<int>::_System_object'', COMDAT
	push	ebp
	mov	ebp, esp
	mov	ecx, OFFSET ?_System_object@?$_Error_objects@H@std@@2V_System_error_category@2@A ; std::_Error_objects<int>::_System_object
	call	??1_System_error_category@std@@UAE@XZ
	pop	ebp
	ret	0
??__F?_System_object@?$_Error_objects@H@std@@2V_System_error_category@2@A@@YAXXZ ENDP ; `dynamic atexit destructor for 'std::_Error_objects<int>::_System_object''
text$yd	ENDS
; Function compile flags: /Odtp
; File c:\program files (x86)\microsoft visual studio 11.0\vc\include\xmemory0
;	COMDAT ??__E?_System_object@?$_Error_objects@H@std@@2V_System_error_category@2@A@@YAXXZ
text$yc	SEGMENT
??__E?_System_object@?$_Error_objects@H@std@@2V_System_error_category@2@A@@YAXXZ PROC ; `dynamic initializer for 'std::_Error_objects<int>::_System_object'', COMDAT

; 627  : 		{	// estimate maximum array size

	push	ebp
	mov	ebp, esp
	mov	ecx, OFFSET ?_System_object@?$_Error_objects@H@std@@2V_System_error_category@2@A ; std::_Error_objects<int>::_System_object
	call	??0_System_error_category@std@@QAE@XZ	; std::_System_error_category::_System_error_category
	push	OFFSET ??__F?_System_object@?$_Error_objects@H@std@@2V_System_error_category@2@A@@YAXXZ ; `dynamic atexit destructor for 'std::_Error_objects<int>::_System_object''
	call	_atexit
	add	esp, 4
	pop	ebp
	ret	0
??__E?_System_object@?$_Error_objects@H@std@@2V_System_error_category@2@A@@YAXXZ ENDP ; `dynamic initializer for 'std::_Error_objects<int>::_System_object''
text$yc	ENDS
; Function compile flags: /Odtp
;	COMDAT ??__F?_Iostream_object@?$_Error_objects@H@std@@2V_Iostream_error_category@2@A@@YAXXZ
text$yd	SEGMENT
??__F?_Iostream_object@?$_Error_objects@H@std@@2V_Iostream_error_category@2@A@@YAXXZ PROC ; `dynamic atexit destructor for 'std::_Error_objects<int>::_Iostream_object'', COMDAT
	push	ebp
	mov	ebp, esp
	mov	ecx, OFFSET ?_Iostream_object@?$_Error_objects@H@std@@2V_Iostream_error_category@2@A ; std::_Error_objects<int>::_Iostream_object
	call	??1_Iostream_error_category@std@@UAE@XZ
	pop	ebp
	ret	0
??__F?_Iostream_object@?$_Error_objects@H@std@@2V_Iostream_error_category@2@A@@YAXXZ ENDP ; `dynamic atexit destructor for 'std::_Error_objects<int>::_Iostream_object''
text$yd	ENDS
; Function compile flags: /Odtp
; File c:\program files (x86)\microsoft visual studio 11.0\vc\include\xmemory0
;	COMDAT ??__E?_Iostream_object@?$_Error_objects@H@std@@2V_Iostream_error_category@2@A@@YAXXZ
text$yc	SEGMENT
??__E?_Iostream_object@?$_Error_objects@H@std@@2V_Iostream_error_category@2@A@@YAXXZ PROC ; `dynamic initializer for 'std::_Error_objects<int>::_Iostream_object'', COMDAT

; 627  : 		{	// estimate maximum array size

	push	ebp
	mov	ebp, esp
	mov	ecx, OFFSET ?_Iostream_object@?$_Error_objects@H@std@@2V_Iostream_error_category@2@A ; std::_Error_objects<int>::_Iostream_object
	call	??0_Iostream_error_category@std@@QAE@XZ	; std::_Iostream_error_category::_Iostream_error_category
	push	OFFSET ??__F?_Iostream_object@?$_Error_objects@H@std@@2V_Iostream_error_category@2@A@@YAXXZ ; `dynamic atexit destructor for 'std::_Error_objects<int>::_Iostream_object''
	call	_atexit
	add	esp, 4
	pop	ebp
	ret	0
??__E?_Iostream_object@?$_Error_objects@H@std@@2V_Iostream_error_category@2@A@@YAXXZ ENDP ; `dynamic initializer for 'std::_Error_objects<int>::_Iostream_object''
text$yc	ENDS
; Function compile flags: /Odtp
;	COMDAT ??__F?_Generic_object@?$_Error_objects@H@std@@2V_Generic_error_category@2@A@@YAXXZ
text$yd	SEGMENT
??__F?_Generic_object@?$_Error_objects@H@std@@2V_Generic_error_category@2@A@@YAXXZ PROC ; `dynamic atexit destructor for 'std::_Error_objects<int>::_Generic_object'', COMDAT
	push	ebp
	mov	ebp, esp
	mov	ecx, OFFSET ?_Generic_object@?$_Error_objects@H@std@@2V_Generic_error_category@2@A ; std::_Error_objects<int>::_Generic_object
	call	??1_Generic_error_category@std@@UAE@XZ
	pop	ebp
	ret	0
??__F?_Generic_object@?$_Error_objects@H@std@@2V_Generic_error_category@2@A@@YAXXZ ENDP ; `dynamic atexit destructor for 'std::_Error_objects<int>::_Generic_object''
text$yd	ENDS
; Function compile flags: /Odtp
; File c:\program files (x86)\microsoft visual studio 11.0\vc\include\xmemory0
;	COMDAT ??__E?_Generic_object@?$_Error_objects@H@std@@2V_Generic_error_category@2@A@@YAXXZ
text$yc	SEGMENT
??__E?_Generic_object@?$_Error_objects@H@std@@2V_Generic_error_category@2@A@@YAXXZ PROC ; `dynamic initializer for 'std::_Error_objects<int>::_Generic_object'', COMDAT

; 627  : 		{	// estimate maximum array size

	push	ebp
	mov	ebp, esp
	mov	ecx, OFFSET ?_Generic_object@?$_Error_objects@H@std@@2V_Generic_error_category@2@A ; std::_Error_objects<int>::_Generic_object
	call	??0_Generic_error_category@std@@QAE@XZ	; std::_Generic_error_category::_Generic_error_category
	push	OFFSET ??__F?_Generic_object@?$_Error_objects@H@std@@2V_Generic_error_category@2@A@@YAXXZ ; `dynamic atexit destructor for 'std::_Error_objects<int>::_Generic_object''
	call	_atexit
	add	esp, 4
	pop	ebp
	ret	0
??__E?_Generic_object@?$_Error_objects@H@std@@2V_Generic_error_category@2@A@@YAXXZ ENDP ; `dynamic initializer for 'std::_Error_objects<int>::_Generic_object''
text$yc	ENDS
; Function compile flags: /Odtp
; File c:\program files (x86)\microsoft visual studio 11.0\vc\include\xmemory0
;	COMDAT ??$_Allocate@D@std@@YAPADIPAD@Z
_TEXT	SEGMENT
__Ptr$ = -4						; size = 4
__Count$ = 8						; size = 4
___formal$ = 12						; size = 4
??$_Allocate@D@std@@YAPADIPAD@Z PROC			; std::_Allocate<char>, COMDAT

; 22   : 	{	// allocate storage for _Count elements of type _Ty

	push	ebp
	mov	ebp, esp
	push	ecx

; 23   : 	void *_Ptr = 0;

	mov	DWORD PTR __Ptr$[ebp], 0

; 24   : 
; 25   : 	if (_Count == 0)

	cmp	DWORD PTR __Count$[ebp], 0
	jne	SHORT $LN4@Allocate

; 26   : 		;
; 27   : 	else if (((size_t)(-1) / sizeof (_Ty) < _Count)

	jmp	SHORT $LN3@Allocate
$LN4@Allocate:

; 28   : 		|| (_Ptr = ::operator new(_Count * sizeof (_Ty))) == 0)

	cmp	DWORD PTR __Count$[ebp], -1
	ja	SHORT $LN1@Allocate
	mov	eax, DWORD PTR __Count$[ebp]
	push	eax
	call	??2@YAPAXI@Z				; operator new
	add	esp, 4
	mov	DWORD PTR __Ptr$[ebp], eax
	cmp	DWORD PTR __Ptr$[ebp], 0
	jne	SHORT $LN3@Allocate
$LN1@Allocate:

; 29   : 		_Xbad_alloc();	// report no memory

	call	?_Xbad_alloc@std@@YAXXZ			; std::_Xbad_alloc
$LN3@Allocate:

; 30   : 
; 31   : 	return ((_Ty *)_Ptr);

	mov	eax, DWORD PTR __Ptr$[ebp]
$LN6@Allocate:

; 32   : 	}

	mov	esp, ebp
	pop	ebp
	ret	0
??$_Allocate@D@std@@YAPADIPAD@Z ENDP			; std::_Allocate<char>
_TEXT	ENDS
; Function compile flags: /Odtp
; File c:\program files (x86)\microsoft visual studio 11.0\vc\include\xstddef
;	COMDAT ??$addressof@D@std@@YAPADAAD@Z
_TEXT	SEGMENT
__Val$ = 8						; size = 4
??$addressof@D@std@@YAPADAAD@Z PROC			; std::addressof<char>, COMDAT

; 85   : 	{	// return address of _Val

	push	ebp
	mov	ebp, esp

; 86   : 	return (reinterpret_cast<_Ty *>(
; 87   : 		(&const_cast<char&>(
; 88   : 		reinterpret_cast<const volatile char&>(_Val)))));

	mov	eax, DWORD PTR __Val$[ebp]

; 89   : 	}

	pop	ebp
	ret	0
??$addressof@D@std@@YAPADAAD@Z ENDP			; std::addressof<char>
_TEXT	ENDS
; Function compile flags: /Odtp
; File c:\program files (x86)\microsoft visual studio 11.0\vc\include\xmemory0
;	COMDAT ??$destroy@PAD@?$_Wrap_alloc@V?$allocator@D@std@@@std@@QAEXPAPAD@Z
_TEXT	SEGMENT
_this$ = -4						; size = 4
__Ptr$ = 8						; size = 4
??$destroy@PAD@?$_Wrap_alloc@V?$allocator@D@std@@@std@@QAEXPAPAD@Z PROC ; std::_Wrap_alloc<std::allocator<char> >::destroy<char *>, COMDAT
; _this$ = ecx

; 907  : 		void destroy(_Ty *_Ptr)

	push	ebp
	mov	ebp, esp
	push	ecx
	mov	DWORD PTR _this$[ebp], ecx

; 908  : 		{	// destroy object at _Ptr
; 909  : 		_Mytraits::destroy(*this, _Ptr);

	mov	eax, DWORD PTR __Ptr$[ebp]
	push	eax
	mov	ecx, DWORD PTR _this$[ebp]
	push	ecx
	call	??$destroy@PAD@?$allocator_traits@V?$allocator@D@std@@@std@@SAXAAV?$allocator@D@1@PAPAD@Z ; std::allocator_traits<std::allocator<char> >::destroy<char *>
	add	esp, 8

; 910  : 		}

	mov	esp, ebp
	pop	ebp
	ret	4
??$destroy@PAD@?$_Wrap_alloc@V?$allocator@D@std@@@std@@QAEXPAPAD@Z ENDP ; std::_Wrap_alloc<std::allocator<char> >::destroy<char *>
_TEXT	ENDS
; Function compile flags: /Odtp
; File c:\program files (x86)\microsoft visual studio 11.0\vc\include\xmemory0
;	COMDAT ??$construct@PADAAPAD@?$_Wrap_alloc@V?$allocator@D@std@@@std@@QAEXPAPADAAPAD@Z
_TEXT	SEGMENT
_this$ = -4						; size = 4
__Ptr$ = 8						; size = 4
__V0$ = 12						; size = 4
??$construct@PADAAPAD@?$_Wrap_alloc@V?$allocator@D@std@@@std@@QAEXPAPADAAPAD@Z PROC ; std::_Wrap_alloc<std::allocator<char> >::construct<char *,char * &>, COMDAT
; _this$ = ecx

; 903  : _VARIADIC_EXPAND_0X(_WRAP_ALLOC_CONSTRUCT, , , , )

	push	ebp
	mov	ebp, esp
	push	ecx
	mov	DWORD PTR _this$[ebp], ecx
	mov	eax, DWORD PTR __V0$[ebp]
	push	eax
	call	??$forward@AAPAD@std@@YAAAPADAAPAD@Z	; std::forward<char * &>
	add	esp, 4
	push	eax
	mov	ecx, DWORD PTR __Ptr$[ebp]
	push	ecx
	mov	edx, DWORD PTR _this$[ebp]
	push	edx
	call	??$construct@PADAAPAD@?$allocator_traits@V?$allocator@D@std@@@std@@SAXAAV?$allocator@D@1@PAPADAAPAD@Z ; std::allocator_traits<std::allocator<char> >::construct<char *,char * &>
	add	esp, 12					; 0000000cH
	mov	esp, ebp
	pop	ebp
	ret	8
??$construct@PADAAPAD@?$_Wrap_alloc@V?$allocator@D@std@@@std@@QAEXPAPADAAPAD@Z ENDP ; std::_Wrap_alloc<std::allocator<char> >::construct<char *,char * &>
_TEXT	ENDS
; Function compile flags: /Odtp
; File c:\users\zhitao li\documents\visual studio 2012\projects\freefalcon\vu2\src\vuentity.cpp
_TEXT	SEGMENT
_d1$ = 8						; size = 4
_d2$ = 12						; size = 4
_objd$ = 16						; size = 4
_radius$ = 20						; size = 4
?collisionLineEntity1D@@YAEMMMM@Z PROC			; collisionLineEntity1D

; 716  : {

	push	ebp
	mov	ebp, esp

; 717  :   if ( ( (d1 < d2) && (d2 > (objd - radius)) && (d1 < (objd + radius)) ) ||
; 718  :        ( (d1 >= d2) && (d1 >= (objd - radius)) && (d2 <= (objd + radius)) ) )

	movss	xmm0, DWORD PTR _d2$[ebp]
	comiss	xmm0, DWORD PTR _d1$[ebp]
	jbe	SHORT $LN1@collisionL
	movss	xmm0, DWORD PTR _objd$[ebp]
	subss	xmm0, DWORD PTR _radius$[ebp]
	movss	xmm1, DWORD PTR _d2$[ebp]
	comiss	xmm1, xmm0
	jbe	SHORT $LN1@collisionL
	movss	xmm0, DWORD PTR _objd$[ebp]
	addss	xmm0, DWORD PTR _radius$[ebp]
	comiss	xmm0, DWORD PTR _d1$[ebp]
	ja	SHORT $LN2@collisionL
$LN1@collisionL:
	movss	xmm0, DWORD PTR _d1$[ebp]
	comiss	xmm0, DWORD PTR _d2$[ebp]
	jb	SHORT $LN3@collisionL
	movss	xmm0, DWORD PTR _objd$[ebp]
	subss	xmm0, DWORD PTR _radius$[ebp]
	movss	xmm1, DWORD PTR _d1$[ebp]
	comiss	xmm1, xmm0
	jb	SHORT $LN3@collisionL
	movss	xmm0, DWORD PTR _objd$[ebp]
	addss	xmm0, DWORD PTR _radius$[ebp]
	comiss	xmm0, DWORD PTR _d2$[ebp]
	jb	SHORT $LN3@collisionL
$LN2@collisionL:

; 719  :     {
; 720  :       return TRUE;

	mov	al, 1
	jmp	SHORT $LN4@collisionL
$LN3@collisionL:

; 721  :     }
; 722  :   return FALSE;

	xor	al, al
$LN4@collisionL:

; 723  : }

	pop	ebp
	ret	0
?collisionLineEntity1D@@YAEMMMM@Z ENDP			; collisionLineEntity1D
_TEXT	ENDS
; Function compile flags: /Odtp
;	COMDAT ??_G_System_error_category@std@@UAEPAXI@Z
_TEXT	SEGMENT
_this$ = -4						; size = 4
___flags$ = 8						; size = 4
??_G_System_error_category@std@@UAEPAXI@Z PROC		; std::_System_error_category::`scalar deleting destructor', COMDAT
; _this$ = ecx
	push	ebp
	mov	ebp, esp
	push	ecx
	mov	DWORD PTR _this$[ebp], ecx
	mov	ecx, DWORD PTR _this$[ebp]
	call	??1_System_error_category@std@@UAE@XZ
	mov	eax, DWORD PTR ___flags$[ebp]
	and	eax, 1
	je	SHORT $LN1@scalar
	mov	ecx, DWORD PTR _this$[ebp]
	push	ecx
	call	??3@YAXPAX@Z				; operator delete
	add	esp, 4
$LN1@scalar:
	mov	eax, DWORD PTR _this$[ebp]
	mov	esp, ebp
	pop	ebp
	ret	4
??_G_System_error_category@std@@UAEPAXI@Z ENDP		; std::_System_error_category::`scalar deleting destructor'
_TEXT	ENDS
; Function compile flags: /Odtp
;	COMDAT ??1_System_error_category@std@@UAE@XZ
_TEXT	SEGMENT
_this$ = -4						; size = 4
??1_System_error_category@std@@UAE@XZ PROC		; std::_System_error_category::~_System_error_category, COMDAT
; _this$ = ecx
	push	ebp
	mov	ebp, esp
	push	ecx
	mov	DWORD PTR _this$[ebp], ecx
	mov	ecx, DWORD PTR _this$[ebp]
	call	??1_Generic_error_category@std@@UAE@XZ
	mov	esp, ebp
	pop	ebp
	ret	0
??1_System_error_category@std@@UAE@XZ ENDP		; std::_System_error_category::~_System_error_category
_TEXT	ENDS
; Function compile flags: /Odtp
; File c:\program files (x86)\microsoft visual studio 11.0\vc\include\system_error
;	COMDAT ?default_error_condition@_System_error_category@std@@UBE?AVerror_condition@2@H@Z
_TEXT	SEGMENT
_this$ = -4						; size = 4
___$ReturnUdt$ = 8					; size = 4
__Errval$ = 12						; size = 4
?default_error_condition@_System_error_category@std@@UBE?AVerror_condition@2@H@Z PROC ; std::_System_error_category::default_error_condition, COMDAT
; _this$ = ecx

; 641  : 		{	// make error_condition for error code (generic if possible)

	push	ebp
	mov	ebp, esp
	push	ecx
	mov	DWORD PTR _this$[ebp], ecx

; 642  : 		if (_Syserror_map(_Errval))

	mov	eax, DWORD PTR __Errval$[ebp]
	push	eax
	call	?_Syserror_map@std@@YAPBDH@Z		; std::_Syserror_map
	add	esp, 4
	test	eax, eax
	je	SHORT $LN2@default_er

; 643  : 			return (error_condition(_Errval, generic_category()));

	call	?generic_category@std@@YAABVerror_category@1@XZ ; std::generic_category
	push	eax
	mov	ecx, DWORD PTR __Errval$[ebp]
	push	ecx
	mov	ecx, DWORD PTR ___$ReturnUdt$[ebp]
	call	??0error_condition@std@@QAE@HABVerror_category@1@@Z ; std::error_condition::error_condition
	mov	eax, DWORD PTR ___$ReturnUdt$[ebp]
	jmp	SHORT $LN3@default_er

; 644  : 		else

	jmp	SHORT $LN3@default_er
$LN2@default_er:

; 645  : 			return (error_condition(_Errval, system_category()));

	call	?system_category@std@@YAABVerror_category@1@XZ ; std::system_category
	push	eax
	mov	edx, DWORD PTR __Errval$[ebp]
	push	edx
	mov	ecx, DWORD PTR ___$ReturnUdt$[ebp]
	call	??0error_condition@std@@QAE@HABVerror_category@1@@Z ; std::error_condition::error_condition
	mov	eax, DWORD PTR ___$ReturnUdt$[ebp]
$LN3@default_er:

; 646  : 		}

	mov	esp, ebp
	pop	ebp
	ret	8
?default_error_condition@_System_error_category@std@@UBE?AVerror_condition@2@H@Z ENDP ; std::_System_error_category::default_error_condition
_TEXT	ENDS
; Function compile flags: /Odtp
; File c:\program files (x86)\microsoft visual studio 11.0\vc\include\system_error
;	COMDAT ?message@_System_error_category@std@@UBE?AV?$basic_string@DU?$char_traits@D@std@@V?$allocator@D@2@@2@H@Z
_TEXT	SEGMENT
_this$ = -16						; size = 4
$T1 = -12						; size = 4
tv69 = -8						; size = 4
__Name$ = -4						; size = 4
___$ReturnUdt$ = 8					; size = 4
__Errcode$ = 12						; size = 4
?message@_System_error_category@std@@UBE?AV?$basic_string@DU?$char_traits@D@std@@V?$allocator@D@2@@2@H@Z PROC ; std::_System_error_category::message, COMDAT
; _this$ = ecx

; 634  : 		{	// convert to name of error

	push	ebp
	mov	ebp, esp
	sub	esp, 16					; 00000010H
	mov	DWORD PTR _this$[ebp], ecx
	mov	DWORD PTR $T1[ebp], 0

; 635  : 		const char *_Name = _Winerror_map(_Errcode);

	mov	eax, DWORD PTR __Errcode$[ebp]
	push	eax
	call	?_Winerror_map@std@@YAPBDH@Z		; std::_Winerror_map
	add	esp, 4
	mov	DWORD PTR __Name$[ebp], eax

; 636  : 		return (string(_Name != 0 ? _Name : "unknown error"));

	cmp	DWORD PTR __Name$[ebp], 0
	je	SHORT $LN3@message
	mov	ecx, DWORD PTR __Name$[ebp]
	mov	DWORD PTR tv69[ebp], ecx
	jmp	SHORT $LN4@message
$LN3@message:
	mov	DWORD PTR tv69[ebp], OFFSET ??_C@_0O@BFJCFAAK@unknown?5error?$AA@
$LN4@message:
	mov	edx, DWORD PTR tv69[ebp]
	push	edx
	mov	ecx, DWORD PTR ___$ReturnUdt$[ebp]
	call	??0?$basic_string@DU?$char_traits@D@std@@V?$allocator@D@2@@std@@QAE@PBD@Z ; std::basic_string<char,std::char_traits<char>,std::allocator<char> >::basic_string<char,std::char_traits<char>,std::allocator<char> >
	mov	eax, DWORD PTR $T1[ebp]
	or	eax, 1
	mov	DWORD PTR $T1[ebp], eax
	mov	eax, DWORD PTR ___$ReturnUdt$[ebp]

; 637  : 		}

	mov	esp, ebp
	pop	ebp
	ret	8
?message@_System_error_category@std@@UBE?AV?$basic_string@DU?$char_traits@D@std@@V?$allocator@D@2@@2@H@Z ENDP ; std::_System_error_category::message
_TEXT	ENDS
; Function compile flags: /Odtp
; File c:\program files (x86)\microsoft visual studio 11.0\vc\include\system_error
;	COMDAT ?name@_System_error_category@std@@UBEPBDXZ
_TEXT	SEGMENT
_this$ = -4						; size = 4
?name@_System_error_category@std@@UBEPBDXZ PROC		; std::_System_error_category::name, COMDAT
; _this$ = ecx

; 629  : 		{	// get name of category

	push	ebp
	mov	ebp, esp
	push	ecx
	mov	DWORD PTR _this$[ebp], ecx

; 630  : 		return ("system");

	mov	eax, OFFSET ??_C@_06FHFOAHML@system?$AA@

; 631  : 		}

	mov	esp, ebp
	pop	ebp
	ret	0
?name@_System_error_category@std@@UBEPBDXZ ENDP		; std::_System_error_category::name
_TEXT	ENDS
; Function compile flags: /Odtp
; File c:\program files (x86)\microsoft visual studio 11.0\vc\include\system_error
;	COMDAT ??0_System_error_category@std@@QAE@XZ
_TEXT	SEGMENT
_this$ = -4						; size = 4
??0_System_error_category@std@@QAE@XZ PROC		; std::_System_error_category::_System_error_category, COMDAT
; _this$ = ecx

; 624  : 	_System_error_category()

	push	ebp
	mov	ebp, esp
	push	ecx
	mov	DWORD PTR _this$[ebp], ecx
	mov	ecx, DWORD PTR _this$[ebp]
	call	??0_Generic_error_category@std@@QAE@XZ	; std::_Generic_error_category::_Generic_error_category
	mov	eax, DWORD PTR _this$[ebp]
	mov	DWORD PTR [eax], OFFSET ??_7_System_error_category@std@@6B@

; 625  : 		{	// default constructor
; 626  : 		}

	mov	eax, DWORD PTR _this$[ebp]
	mov	esp, ebp
	pop	ebp
	ret	0
??0_System_error_category@std@@QAE@XZ ENDP		; std::_System_error_category::_System_error_category
_TEXT	ENDS
; Function compile flags: /Odtp
;	COMDAT ??_G_Iostream_error_category@std@@UAEPAXI@Z
_TEXT	SEGMENT
_this$ = -4						; size = 4
___flags$ = 8						; size = 4
??_G_Iostream_error_category@std@@UAEPAXI@Z PROC	; std::_Iostream_error_category::`scalar deleting destructor', COMDAT
; _this$ = ecx
	push	ebp
	mov	ebp, esp
	push	ecx
	mov	DWORD PTR _this$[ebp], ecx
	mov	ecx, DWORD PTR _this$[ebp]
	call	??1_Iostream_error_category@std@@UAE@XZ
	mov	eax, DWORD PTR ___flags$[ebp]
	and	eax, 1
	je	SHORT $LN1@scalar
	mov	ecx, DWORD PTR _this$[ebp]
	push	ecx
	call	??3@YAXPAX@Z				; operator delete
	add	esp, 4
$LN1@scalar:
	mov	eax, DWORD PTR _this$[ebp]
	mov	esp, ebp
	pop	ebp
	ret	4
??_G_Iostream_error_category@std@@UAEPAXI@Z ENDP	; std::_Iostream_error_category::`scalar deleting destructor'
_TEXT	ENDS
; Function compile flags: /Odtp
;	COMDAT ??1_Iostream_error_category@std@@UAE@XZ
_TEXT	SEGMENT
_this$ = -4						; size = 4
??1_Iostream_error_category@std@@UAE@XZ PROC		; std::_Iostream_error_category::~_Iostream_error_category, COMDAT
; _this$ = ecx
	push	ebp
	mov	ebp, esp
	push	ecx
	mov	DWORD PTR _this$[ebp], ecx
	mov	ecx, DWORD PTR _this$[ebp]
	call	??1_Generic_error_category@std@@UAE@XZ
	mov	esp, ebp
	pop	ebp
	ret	0
??1_Iostream_error_category@std@@UAE@XZ ENDP		; std::_Iostream_error_category::~_Iostream_error_category
_TEXT	ENDS
; Function compile flags: /Odtp
; File c:\program files (x86)\microsoft visual studio 11.0\vc\include\system_error
;	COMDAT ?message@_Iostream_error_category@std@@UBE?AV?$basic_string@DU?$char_traits@D@std@@V?$allocator@D@2@@2@H@Z
_TEXT	SEGMENT
_this$ = -8						; size = 4
$T1 = -4						; size = 4
___$ReturnUdt$ = 8					; size = 4
__Errcode$ = 12						; size = 4
?message@_Iostream_error_category@std@@UBE?AV?$basic_string@DU?$char_traits@D@std@@V?$allocator@D@2@@2@H@Z PROC ; std::_Iostream_error_category::message, COMDAT
; _this$ = ecx

; 611  : 		{	// convert to name of error

	push	ebp
	mov	ebp, esp
	sub	esp, 8
	mov	DWORD PTR _this$[ebp], ecx
	mov	DWORD PTR $T1[ebp], 0

; 612  : 		if (_Errcode == (int)io_errc::stream)

	cmp	DWORD PTR __Errcode$[ebp], 1
	jne	SHORT $LN2@message

; 613  : 			return ("iostream stream error");

	push	OFFSET ??_C@_0BG@PADBLCHM@iostream?5stream?5error?$AA@
	mov	ecx, DWORD PTR ___$ReturnUdt$[ebp]
	call	??0?$basic_string@DU?$char_traits@D@std@@V?$allocator@D@2@@std@@QAE@PBD@Z ; std::basic_string<char,std::char_traits<char>,std::allocator<char> >::basic_string<char,std::char_traits<char>,std::allocator<char> >
	mov	eax, DWORD PTR $T1[ebp]
	or	eax, 1
	mov	DWORD PTR $T1[ebp], eax
	mov	eax, DWORD PTR ___$ReturnUdt$[ebp]
	jmp	SHORT $LN3@message

; 614  : 		else

	jmp	SHORT $LN3@message
$LN2@message:

; 615  : 			return (_Generic_error_category::message(_Errcode));

	mov	ecx, DWORD PTR __Errcode$[ebp]
	push	ecx
	mov	edx, DWORD PTR ___$ReturnUdt$[ebp]
	push	edx
	mov	ecx, DWORD PTR _this$[ebp]
	call	?message@_Generic_error_category@std@@UBE?AV?$basic_string@DU?$char_traits@D@std@@V?$allocator@D@2@@2@H@Z ; std::_Generic_error_category::message
	mov	eax, DWORD PTR $T1[ebp]
	or	eax, 1
	mov	DWORD PTR $T1[ebp], eax
	mov	eax, DWORD PTR ___$ReturnUdt$[ebp]
$LN3@message:

; 616  : 		}

	mov	esp, ebp
	pop	ebp
	ret	8
?message@_Iostream_error_category@std@@UBE?AV?$basic_string@DU?$char_traits@D@std@@V?$allocator@D@2@@2@H@Z ENDP ; std::_Iostream_error_category::message
_TEXT	ENDS
; Function compile flags: /Odtp
; File c:\program files (x86)\microsoft visual studio 11.0\vc\include\system_error
;	COMDAT ?name@_Iostream_error_category@std@@UBEPBDXZ
_TEXT	SEGMENT
_this$ = -4						; size = 4
?name@_Iostream_error_category@std@@UBEPBDXZ PROC	; std::_Iostream_error_category::name, COMDAT
; _this$ = ecx

; 606  : 		{	// get name of category

	push	ebp
	mov	ebp, esp
	push	ecx
	mov	DWORD PTR _this$[ebp], ecx

; 607  : 		return ("iostream");

	mov	eax, OFFSET ??_C@_08LLGCOLLL@iostream?$AA@

; 608  : 		}

	mov	esp, ebp
	pop	ebp
	ret	0
?name@_Iostream_error_category@std@@UBEPBDXZ ENDP	; std::_Iostream_error_category::name
_TEXT	ENDS
; Function compile flags: /Odtp
; File c:\program files (x86)\microsoft visual studio 11.0\vc\include\system_error
;	COMDAT ??0_Iostream_error_category@std@@QAE@XZ
_TEXT	SEGMENT
_this$ = -4						; size = 4
??0_Iostream_error_category@std@@QAE@XZ PROC		; std::_Iostream_error_category::_Iostream_error_category, COMDAT
; _this$ = ecx

; 601  : 	_Iostream_error_category()

	push	ebp
	mov	ebp, esp
	push	ecx
	mov	DWORD PTR _this$[ebp], ecx
	mov	ecx, DWORD PTR _this$[ebp]
	call	??0_Generic_error_category@std@@QAE@XZ	; std::_Generic_error_category::_Generic_error_category
	mov	eax, DWORD PTR _this$[ebp]
	mov	DWORD PTR [eax], OFFSET ??_7_Iostream_error_category@std@@6B@

; 602  : 		{	// default constructor
; 603  : 		}

	mov	eax, DWORD PTR _this$[ebp]
	mov	esp, ebp
	pop	ebp
	ret	0
??0_Iostream_error_category@std@@QAE@XZ ENDP		; std::_Iostream_error_category::_Iostream_error_category
_TEXT	ENDS
; Function compile flags: /Odtp
;	COMDAT ??_G_Generic_error_category@std@@UAEPAXI@Z
_TEXT	SEGMENT
_this$ = -4						; size = 4
___flags$ = 8						; size = 4
??_G_Generic_error_category@std@@UAEPAXI@Z PROC		; std::_Generic_error_category::`scalar deleting destructor', COMDAT
; _this$ = ecx
	push	ebp
	mov	ebp, esp
	push	ecx
	mov	DWORD PTR _this$[ebp], ecx
	mov	ecx, DWORD PTR _this$[ebp]
	call	??1_Generic_error_category@std@@UAE@XZ
	mov	eax, DWORD PTR ___flags$[ebp]
	and	eax, 1
	je	SHORT $LN1@scalar
	mov	ecx, DWORD PTR _this$[ebp]
	push	ecx
	call	??3@YAXPAX@Z				; operator delete
	add	esp, 4
$LN1@scalar:
	mov	eax, DWORD PTR _this$[ebp]
	mov	esp, ebp
	pop	ebp
	ret	4
??_G_Generic_error_category@std@@UAEPAXI@Z ENDP		; std::_Generic_error_category::`scalar deleting destructor'
_TEXT	ENDS
; Function compile flags: /Odtp
;	COMDAT ??1_Generic_error_category@std@@UAE@XZ
_TEXT	SEGMENT
_this$ = -4						; size = 4
??1_Generic_error_category@std@@UAE@XZ PROC		; std::_Generic_error_category::~_Generic_error_category, COMDAT
; _this$ = ecx
	push	ebp
	mov	ebp, esp
	push	ecx
	mov	DWORD PTR _this$[ebp], ecx
	mov	ecx, DWORD PTR _this$[ebp]
	call	??1error_category@std@@UAE@XZ		; std::error_category::~error_category
	mov	esp, ebp
	pop	ebp
	ret	0
??1_Generic_error_category@std@@UAE@XZ ENDP		; std::_Generic_error_category::~_Generic_error_category
_TEXT	ENDS
; Function compile flags: /Odtp
; File c:\program files (x86)\microsoft visual studio 11.0\vc\include\system_error
;	COMDAT ?message@_Generic_error_category@std@@UBE?AV?$basic_string@DU?$char_traits@D@std@@V?$allocator@D@2@@2@H@Z
_TEXT	SEGMENT
_this$ = -16						; size = 4
$T1 = -12						; size = 4
tv69 = -8						; size = 4
__Name$ = -4						; size = 4
___$ReturnUdt$ = 8					; size = 4
__Errcode$ = 12						; size = 4
?message@_Generic_error_category@std@@UBE?AV?$basic_string@DU?$char_traits@D@std@@V?$allocator@D@2@@2@H@Z PROC ; std::_Generic_error_category::message, COMDAT
; _this$ = ecx

; 590  : 		{	// convert to name of error

	push	ebp
	mov	ebp, esp
	sub	esp, 16					; 00000010H
	mov	DWORD PTR _this$[ebp], ecx
	mov	DWORD PTR $T1[ebp], 0

; 591  : 		const char *_Name = _Syserror_map(_Errcode);

	mov	eax, DWORD PTR __Errcode$[ebp]
	push	eax
	call	?_Syserror_map@std@@YAPBDH@Z		; std::_Syserror_map
	add	esp, 4
	mov	DWORD PTR __Name$[ebp], eax

; 592  : 		return (string(_Name != 0 ? _Name : "unknown error"));

	cmp	DWORD PTR __Name$[ebp], 0
	je	SHORT $LN3@message
	mov	ecx, DWORD PTR __Name$[ebp]
	mov	DWORD PTR tv69[ebp], ecx
	jmp	SHORT $LN4@message
$LN3@message:
	mov	DWORD PTR tv69[ebp], OFFSET ??_C@_0O@BFJCFAAK@unknown?5error?$AA@
$LN4@message:
	mov	edx, DWORD PTR tv69[ebp]
	push	edx
	mov	ecx, DWORD PTR ___$ReturnUdt$[ebp]
	call	??0?$basic_string@DU?$char_traits@D@std@@V?$allocator@D@2@@std@@QAE@PBD@Z ; std::basic_string<char,std::char_traits<char>,std::allocator<char> >::basic_string<char,std::char_traits<char>,std::allocator<char> >
	mov	eax, DWORD PTR $T1[ebp]
	or	eax, 1
	mov	DWORD PTR $T1[ebp], eax
	mov	eax, DWORD PTR ___$ReturnUdt$[ebp]

; 593  : 		}

	mov	esp, ebp
	pop	ebp
	ret	8
?message@_Generic_error_category@std@@UBE?AV?$basic_string@DU?$char_traits@D@std@@V?$allocator@D@2@@2@H@Z ENDP ; std::_Generic_error_category::message
_TEXT	ENDS
; Function compile flags: /Odtp
; File c:\program files (x86)\microsoft visual studio 11.0\vc\include\system_error
;	COMDAT ?name@_Generic_error_category@std@@UBEPBDXZ
_TEXT	SEGMENT
_this$ = -4						; size = 4
?name@_Generic_error_category@std@@UBEPBDXZ PROC	; std::_Generic_error_category::name, COMDAT
; _this$ = ecx

; 585  : 		{	// get name of category

	push	ebp
	mov	ebp, esp
	push	ecx
	mov	DWORD PTR _this$[ebp], ecx

; 586  : 		return ("generic");

	mov	eax, OFFSET ??_C@_07DCLBNMLN@generic?$AA@

; 587  : 		}

	mov	esp, ebp
	pop	ebp
	ret	0
?name@_Generic_error_category@std@@UBEPBDXZ ENDP	; std::_Generic_error_category::name
_TEXT	ENDS
; Function compile flags: /Odtp
; File c:\program files (x86)\microsoft visual studio 11.0\vc\include\system_error
;	COMDAT ??0_Generic_error_category@std@@QAE@XZ
_TEXT	SEGMENT
_this$ = -4						; size = 4
??0_Generic_error_category@std@@QAE@XZ PROC		; std::_Generic_error_category::_Generic_error_category, COMDAT
; _this$ = ecx

; 580  : 	_Generic_error_category()

	push	ebp
	mov	ebp, esp
	push	ecx
	mov	DWORD PTR _this$[ebp], ecx
	mov	ecx, DWORD PTR _this$[ebp]
	call	??0error_category@std@@QAE@XZ		; std::error_category::error_category
	mov	eax, DWORD PTR _this$[ebp]
	mov	DWORD PTR [eax], OFFSET ??_7_Generic_error_category@std@@6B@

; 581  : 		{	// default constructor
; 582  : 		}

	mov	eax, DWORD PTR _this$[ebp]
	mov	esp, ebp
	pop	ebp
	ret	0
??0_Generic_error_category@std@@QAE@XZ ENDP		; std::_Generic_error_category::_Generic_error_category
_TEXT	ENDS
; Function compile flags: /Odtp
; File c:\program files (x86)\microsoft visual studio 11.0\vc\include\system_error
;	COMDAT ??8error_condition@std@@QBE_NABV01@@Z
_TEXT	SEGMENT
tv78 = -8						; size = 4
_this$ = -4						; size = 4
__Right$ = 8						; size = 4
??8error_condition@std@@QBE_NABV01@@Z PROC		; std::error_condition::operator==, COMDAT
; _this$ = ecx

; 376  : 		{	// test if *this == _Right

	push	ebp
	mov	ebp, esp
	sub	esp, 8
	push	esi
	mov	DWORD PTR _this$[ebp], ecx

; 377  : 		return (category() == _Right.category()
; 378  : 			&& value() == _Right.value());

	mov	ecx, DWORD PTR __Right$[ebp]
	call	?category@error_condition@std@@QBEABVerror_category@2@XZ ; std::error_condition::category
	push	eax
	mov	ecx, DWORD PTR _this$[ebp]
	call	?category@error_condition@std@@QBEABVerror_category@2@XZ ; std::error_condition::category
	mov	ecx, eax
	call	??8error_category@std@@QBE_NABV01@@Z	; std::error_category::operator==
	movzx	eax, al
	test	eax, eax
	je	SHORT $LN3@operator
	mov	ecx, DWORD PTR _this$[ebp]
	call	?value@error_condition@std@@QBEHXZ	; std::error_condition::value
	mov	esi, eax
	mov	ecx, DWORD PTR __Right$[ebp]
	call	?value@error_condition@std@@QBEHXZ	; std::error_condition::value
	cmp	esi, eax
	jne	SHORT $LN3@operator
	mov	DWORD PTR tv78[ebp], 1
	jmp	SHORT $LN4@operator
$LN3@operator:
	mov	DWORD PTR tv78[ebp], 0
$LN4@operator:
	mov	al, BYTE PTR tv78[ebp]

; 379  : 		}

	pop	esi
	mov	esp, ebp
	pop	ebp
	ret	4
??8error_condition@std@@QBE_NABV01@@Z ENDP		; std::error_condition::operator==
_TEXT	ENDS
; Function compile flags: /Odtp
; File c:\program files (x86)\microsoft visual studio 11.0\vc\include\system_error
;	COMDAT ?category@error_condition@std@@QBEABVerror_category@2@XZ
_TEXT	SEGMENT
_this$ = -4						; size = 4
?category@error_condition@std@@QBEABVerror_category@2@XZ PROC ; std::error_condition::category, COMDAT
; _this$ = ecx

; 354  : 		{	// get category

	push	ebp
	mov	ebp, esp
	push	ecx
	mov	DWORD PTR _this$[ebp], ecx

; 355  : 		return (*_Mycat);

	mov	eax, DWORD PTR _this$[ebp]
	mov	eax, DWORD PTR [eax+4]

; 356  : 		}

	mov	esp, ebp
	pop	ebp
	ret	0
?category@error_condition@std@@QBEABVerror_category@2@XZ ENDP ; std::error_condition::category
_TEXT	ENDS
; Function compile flags: /Odtp
; File c:\program files (x86)\microsoft visual studio 11.0\vc\include\system_error
;	COMDAT ?value@error_condition@std@@QBEHXZ
_TEXT	SEGMENT
_this$ = -4						; size = 4
?value@error_condition@std@@QBEHXZ PROC			; std::error_condition::value, COMDAT
; _this$ = ecx

; 349  : 		{	// get error code

	push	ebp
	mov	ebp, esp
	push	ecx
	mov	DWORD PTR _this$[ebp], ecx

; 350  : 		return (_Myval);

	mov	eax, DWORD PTR _this$[ebp]
	mov	eax, DWORD PTR [eax]

; 351  : 		}

	mov	esp, ebp
	pop	ebp
	ret	0
?value@error_condition@std@@QBEHXZ ENDP			; std::error_condition::value
_TEXT	ENDS
; Function compile flags: /Odtp
; File c:\program files (x86)\microsoft visual studio 11.0\vc\include\system_error
;	COMDAT ??0error_condition@std@@QAE@HABVerror_category@1@@Z
_TEXT	SEGMENT
_this$ = -4						; size = 4
__Val$ = 8						; size = 4
__Cat$ = 12						; size = 4
??0error_condition@std@@QAE@HABVerror_category@1@@Z PROC ; std::error_condition::error_condition, COMDAT
; _this$ = ecx

; 316  : 		{	// construct from error code and category

	push	ebp
	mov	ebp, esp
	push	ecx
	mov	DWORD PTR _this$[ebp], ecx
	mov	eax, DWORD PTR _this$[ebp]
	mov	ecx, DWORD PTR __Val$[ebp]
	mov	DWORD PTR [eax], ecx
	mov	edx, DWORD PTR _this$[ebp]
	mov	eax, DWORD PTR __Cat$[ebp]
	mov	DWORD PTR [edx+4], eax

; 317  : 		}

	mov	eax, DWORD PTR _this$[ebp]
	mov	esp, ebp
	pop	ebp
	ret	8
??0error_condition@std@@QAE@HABVerror_category@1@@Z ENDP ; std::error_condition::error_condition
_TEXT	ENDS
; Function compile flags: /Odtp
; File c:\program files (x86)\microsoft visual studio 11.0\vc\include\system_error
;	COMDAT ?category@error_code@std@@QBEABVerror_category@2@XZ
_TEXT	SEGMENT
_this$ = -4						; size = 4
?category@error_code@std@@QBEABVerror_category@2@XZ PROC ; std::error_code::category, COMDAT
; _this$ = ecx

; 256  : 		{	// get category

	push	ebp
	mov	ebp, esp
	push	ecx
	mov	DWORD PTR _this$[ebp], ecx

; 257  : 		return (*_Mycat);

	mov	eax, DWORD PTR _this$[ebp]
	mov	eax, DWORD PTR [eax+4]

; 258  : 		}

	mov	esp, ebp
	pop	ebp
	ret	0
?category@error_code@std@@QBEABVerror_category@2@XZ ENDP ; std::error_code::category
_TEXT	ENDS
; Function compile flags: /Odtp
; File c:\program files (x86)\microsoft visual studio 11.0\vc\include\system_error
;	COMDAT ?value@error_code@std@@QBEHXZ
_TEXT	SEGMENT
_this$ = -4						; size = 4
?value@error_code@std@@QBEHXZ PROC			; std::error_code::value, COMDAT
; _this$ = ecx

; 251  : 		{	// get error code

	push	ebp
	mov	ebp, esp
	push	ecx
	mov	DWORD PTR _this$[ebp], ecx

; 252  : 		return (_Myval);

	mov	eax, DWORD PTR _this$[ebp]
	mov	eax, DWORD PTR [eax]

; 253  : 		}

	mov	esp, ebp
	pop	ebp
	ret	0
?value@error_code@std@@QBEHXZ ENDP			; std::error_code::value
_TEXT	ENDS
; Function compile flags: /Odtp
;	COMDAT ??_Gerror_category@std@@UAEPAXI@Z
_TEXT	SEGMENT
_this$ = -4						; size = 4
___flags$ = 8						; size = 4
??_Gerror_category@std@@UAEPAXI@Z PROC			; std::error_category::`scalar deleting destructor', COMDAT
; _this$ = ecx
	push	ebp
	mov	ebp, esp
	push	ecx
	mov	DWORD PTR _this$[ebp], ecx
	mov	ecx, DWORD PTR _this$[ebp]
	call	??1error_category@std@@UAE@XZ		; std::error_category::~error_category
	mov	eax, DWORD PTR ___flags$[ebp]
	and	eax, 1
	je	SHORT $LN1@scalar
	mov	ecx, DWORD PTR _this$[ebp]
	push	ecx
	call	??3@YAXPAX@Z				; operator delete
	add	esp, 4
$LN1@scalar:
	mov	eax, DWORD PTR _this$[ebp]
	mov	esp, ebp
	pop	ebp
	ret	4
??_Gerror_category@std@@UAEPAXI@Z ENDP			; std::error_category::`scalar deleting destructor'
_TEXT	ENDS
; Function compile flags: /Odtp
; File c:\program files (x86)\microsoft visual studio 11.0\vc\include\system_error
;	COMDAT ??8error_category@std@@QBE_NABV01@@Z
_TEXT	SEGMENT
_this$ = -8						; size = 4
tv65 = -4						; size = 4
__Right$ = 8						; size = 4
??8error_category@std@@QBE_NABV01@@Z PROC		; std::error_category::operator==, COMDAT
; _this$ = ecx

; 184  : 		{	// compare categories for equality

	push	ebp
	mov	ebp, esp
	sub	esp, 8
	mov	DWORD PTR _this$[ebp], ecx

; 185  : 		return (this == &_Right);

	mov	eax, DWORD PTR _this$[ebp]
	cmp	eax, DWORD PTR __Right$[ebp]
	jne	SHORT $LN3@operator
	mov	DWORD PTR tv65[ebp], 1
	jmp	SHORT $LN4@operator
$LN3@operator:
	mov	DWORD PTR tv65[ebp], 0
$LN4@operator:
	mov	al, BYTE PTR tv65[ebp]

; 186  : 		}

	mov	esp, ebp
	pop	ebp
	ret	4
??8error_category@std@@QBE_NABV01@@Z ENDP		; std::error_category::operator==
_TEXT	ENDS
; Function compile flags: /Odtp
; File c:\program files (x86)\microsoft visual studio 11.0\vc\include\system_error
;	COMDAT ?equivalent@error_category@std@@UBE_NABVerror_code@2@H@Z
_TEXT	SEGMENT
_this$ = -8						; size = 4
tv74 = -4						; size = 4
__Code$ = 8						; size = 4
__Errval$ = 12						; size = 4
?equivalent@error_category@std@@UBE_NABVerror_code@2@H@Z PROC ; std::error_category::equivalent, COMDAT
; _this$ = ecx

; 415  : 	{	// test if conditions same for this category

	push	ebp
	mov	ebp, esp
	sub	esp, 8
	mov	DWORD PTR _this$[ebp], ecx

; 416  : 	return (*this == _Code.category() && _Code.value() == _Errval);

	mov	ecx, DWORD PTR __Code$[ebp]
	call	?category@error_code@std@@QBEABVerror_category@2@XZ ; std::error_code::category
	push	eax
	mov	ecx, DWORD PTR _this$[ebp]
	call	??8error_category@std@@QBE_NABV01@@Z	; std::error_category::operator==
	movzx	eax, al
	test	eax, eax
	je	SHORT $LN3@equivalent
	mov	ecx, DWORD PTR __Code$[ebp]
	call	?value@error_code@std@@QBEHXZ		; std::error_code::value
	cmp	eax, DWORD PTR __Errval$[ebp]
	jne	SHORT $LN3@equivalent
	mov	DWORD PTR tv74[ebp], 1
	jmp	SHORT $LN4@equivalent
$LN3@equivalent:
	mov	DWORD PTR tv74[ebp], 0
$LN4@equivalent:
	mov	al, BYTE PTR tv74[ebp]

; 417  : 	}

	mov	esp, ebp
	pop	ebp
	ret	8
?equivalent@error_category@std@@UBE_NABVerror_code@2@H@Z ENDP ; std::error_category::equivalent
_TEXT	ENDS
; Function compile flags: /Odtp
; File c:\program files (x86)\microsoft visual studio 11.0\vc\include\system_error
;	COMDAT ?equivalent@error_category@std@@UBE_NHABVerror_condition@2@@Z
_TEXT	SEGMENT
$T1 = -12						; size = 8
_this$ = -4						; size = 4
__Errval$ = 8						; size = 4
__Cond$ = 12						; size = 4
?equivalent@error_category@std@@UBE_NHABVerror_condition@2@@Z PROC ; std::error_category::equivalent, COMDAT
; _this$ = ecx

; 408  : 	{	// test if error code same condition

	push	ebp
	mov	ebp, esp
	sub	esp, 12					; 0000000cH
	mov	DWORD PTR _this$[ebp], ecx

; 409  : 	return (default_error_condition(_Errval) == _Cond);

	mov	eax, DWORD PTR __Cond$[ebp]
	push	eax
	mov	ecx, DWORD PTR __Errval$[ebp]
	push	ecx
	lea	edx, DWORD PTR $T1[ebp]
	push	edx
	mov	eax, DWORD PTR _this$[ebp]
	mov	edx, DWORD PTR [eax]
	mov	ecx, DWORD PTR _this$[ebp]
	mov	eax, DWORD PTR [edx+12]
	call	eax
	mov	ecx, eax
	call	??8error_condition@std@@QBE_NABV01@@Z	; std::error_condition::operator==

; 410  : 	}

	mov	esp, ebp
	pop	ebp
	ret	8
?equivalent@error_category@std@@UBE_NHABVerror_condition@2@@Z ENDP ; std::error_category::equivalent
_TEXT	ENDS
; Function compile flags: /Odtp
; File c:\program files (x86)\microsoft visual studio 11.0\vc\include\system_error
;	COMDAT ?default_error_condition@error_category@std@@UBE?AVerror_condition@2@H@Z
_TEXT	SEGMENT
_this$ = -4						; size = 4
___$ReturnUdt$ = 8					; size = 4
__Errval$ = 12						; size = 4
?default_error_condition@error_category@std@@UBE?AVerror_condition@2@H@Z PROC ; std::error_category::default_error_condition, COMDAT
; _this$ = ecx

; 401  : 	{	// make error_condition for error code

	push	ebp
	mov	ebp, esp
	push	ecx
	mov	DWORD PTR _this$[ebp], ecx

; 402  : 	return (error_condition(_Errval, *this));

	mov	eax, DWORD PTR _this$[ebp]
	push	eax
	mov	ecx, DWORD PTR __Errval$[ebp]
	push	ecx
	mov	ecx, DWORD PTR ___$ReturnUdt$[ebp]
	call	??0error_condition@std@@QAE@HABVerror_category@1@@Z ; std::error_condition::error_condition
	mov	eax, DWORD PTR ___$ReturnUdt$[ebp]

; 403  : 	}

	mov	esp, ebp
	pop	ebp
	ret	8
?default_error_condition@error_category@std@@UBE?AVerror_condition@2@H@Z ENDP ; std::error_category::default_error_condition
_TEXT	ENDS
; Function compile flags: /Odtp
; File c:\program files (x86)\microsoft visual studio 11.0\vc\include\system_error
;	COMDAT ??1error_category@std@@UAE@XZ
_TEXT	SEGMENT
_this$ = -4						; size = 4
??1error_category@std@@UAE@XZ PROC			; std::error_category::~error_category, COMDAT
; _this$ = ecx

; 167  : 		{	// destroy the object

	push	ebp
	mov	ebp, esp
	push	ecx
	mov	DWORD PTR _this$[ebp], ecx
	mov	eax, DWORD PTR _this$[ebp]
	mov	DWORD PTR [eax], OFFSET ??_7error_category@std@@6B@

; 168  : 		}

	mov	esp, ebp
	pop	ebp
	ret	0
??1error_category@std@@UAE@XZ ENDP			; std::error_category::~error_category
_TEXT	ENDS
; Function compile flags: /Odtp
; File c:\program files (x86)\microsoft visual studio 11.0\vc\include\system_error
;	COMDAT ??0error_category@std@@QAE@XZ
_TEXT	SEGMENT
_this$ = -4						; size = 4
??0error_category@std@@QAE@XZ PROC			; std::error_category::error_category, COMDAT
; _this$ = ecx

; 162  : 	error_category()

	push	ebp
	mov	ebp, esp
	push	ecx
	mov	DWORD PTR _this$[ebp], ecx
	mov	eax, DWORD PTR _this$[ebp]
	mov	DWORD PTR [eax], OFFSET ??_7error_category@std@@6B@

; 163  : 		{	// default constructor
; 164  : 		}

	mov	eax, DWORD PTR _this$[ebp]
	mov	esp, ebp
	pop	ebp
	ret	0
??0error_category@std@@QAE@XZ ENDP			; std::error_category::error_category
_TEXT	ENDS
; Function compile flags: /Odtp
; File c:\program files (x86)\microsoft visual studio 11.0\vc\include\system_error
;	COMDAT ?system_category@std@@YAABVerror_category@1@XZ
_TEXT	SEGMENT
?system_category@std@@YAABVerror_category@1@XZ PROC	; std::system_category, COMDAT

; 679  : 	{	// get system_category

	push	ebp
	mov	ebp, esp

; 680  : 	return (_Error_objects<int>::_System_object);

	mov	eax, OFFSET ?_System_object@?$_Error_objects@H@std@@2V_System_error_category@2@A ; std::_Error_objects<int>::_System_object

; 681  : 	}

	pop	ebp
	ret	0
?system_category@std@@YAABVerror_category@1@XZ ENDP	; std::system_category
_TEXT	ENDS
; Function compile flags: /Odtp
; File c:\program files (x86)\microsoft visual studio 11.0\vc\include\system_error
;	COMDAT ?generic_category@std@@YAABVerror_category@1@XZ
_TEXT	SEGMENT
?generic_category@std@@YAABVerror_category@1@XZ PROC	; std::generic_category, COMDAT

; 669  : 	{	// get generic_category

	push	ebp
	mov	ebp, esp

; 670  : 	return (_Error_objects<int>::_Generic_object);

	mov	eax, OFFSET ?_Generic_object@?$_Error_objects@H@std@@2V_Generic_error_category@2@A ; std::_Error_objects<int>::_Generic_object

; 671  : 	}

	pop	ebp
	ret	0
?generic_category@std@@YAABVerror_category@1@XZ ENDP	; std::generic_category
_TEXT	ENDS
; Function compile flags: /Odtp
; File c:\program files (x86)\microsoft visual studio 11.0\vc\include\xlocale
;	COMDAT ??0id@locale@std@@QAE@I@Z
_TEXT	SEGMENT
_this$ = -4						; size = 4
__Val$ = 8						; size = 4
??0id@locale@std@@QAE@I@Z PROC				; std::locale::id::id, COMDAT
; _this$ = ecx

; 74   : 			{	// construct with specified stamp value

	push	ebp
	mov	ebp, esp
	push	ecx
	mov	DWORD PTR _this$[ebp], ecx
	mov	eax, DWORD PTR _this$[ebp]
	mov	ecx, DWORD PTR __Val$[ebp]
	mov	DWORD PTR [eax], ecx

; 75   : 			}

	mov	eax, DWORD PTR _this$[ebp]
	mov	esp, ebp
	pop	ebp
	ret	4
??0id@locale@std@@QAE@I@Z ENDP				; std::locale::id::id
_TEXT	ENDS
; Function compile flags: /Odtp
; File c:\users\zhitao li\documents\visual studio 2012\projects\freefalcon\vu2\src\vuentity.cpp
_TEXT	SEGMENT
tv88 = -32						; size = 8
tv76 = -24						; size = 8
tv86 = -16						; size = 4
tv72 = -12						; size = 4
_rval$ = -8						; size = 4
tv83 = -2						; size = 2
_max$ = 8						; size = 4
?VuRandomTime@@YAKK@Z PROC				; VuRandomTime

; 133  : VU_TIME VuRandomTime(VU_TIME max){

	push	ebp
	mov	ebp, esp
	sub	esp, 32					; 00000020H

; 134  : 	SM_SCALAR rval = (SM_SCALAR)rand();

	call	_rand
	cvtsi2ss xmm0, eax
	movss	DWORD PTR _rval$[ebp], xmm0

; 135  : 	rval = rval / RAND_MAX; // value now 0-1

	movss	xmm0, DWORD PTR _rval$[ebp]
	divss	xmm0, DWORD PTR __real@46fffe00
	movss	DWORD PTR _rval$[ebp], xmm0

; 136  : 	rval = rval * max;    // value now 0-max

	mov	eax, DWORD PTR _max$[ebp]
	mov	DWORD PTR tv72[ebp], eax
	cvtsi2sd xmm0, DWORD PTR tv72[ebp]
	mov	ecx, DWORD PTR tv72[ebp]
	shr	ecx, 31					; 0000001fH
	addsd	xmm0, QWORD PTR __xmm@41f00000000000000000000000000000[ecx*8]
	movsd	QWORD PTR tv76[ebp], xmm0
	cvtsd2ss xmm0, QWORD PTR tv76[ebp]
	mulss	xmm0, DWORD PTR _rval$[ebp]
	movss	DWORD PTR _rval$[ebp], xmm0

; 137  : 	return (VU_TIME)rval;

	fld	DWORD PTR _rval$[ebp]
	fnstcw	WORD PTR tv83[ebp]
	movzx	eax, WORD PTR tv83[ebp]
	or	eax, 3072				; 00000c00H
	mov	DWORD PTR tv86[ebp], eax
	fldcw	WORD PTR tv86[ebp]
	fistp	QWORD PTR tv88[ebp]
	fldcw	WORD PTR tv83[ebp]
	mov	eax, DWORD PTR tv88[ebp]

; 138  : }

	mov	esp, ebp
	pop	ebp
	ret	0
?VuRandomTime@@YAKK@Z ENDP				; VuRandomTime
_TEXT	ENDS
; Function compile flags: /Odtp
; File c:\users\zhitao li\documents\visual studio 2012\projects\freefalcon\vu2\src\vuentity.cpp
;	COMDAT ??__EvuNullId@@YAXXZ
text$yc	SEGMENT
??__EvuNullId@@YAXXZ PROC				; `dynamic initializer for 'vuNullId'', COMDAT

; 19   : VU_ID vuNullId(0,0);

	push	ebp
	mov	ebp, esp
	push	0
	push	ecx
	mov	ecx, esp
	push	0
	call	??0VU_SESSION_ID@@QAE@K@Z		; VU_SESSION_ID::VU_SESSION_ID
	mov	ecx, OFFSET ?vuNullId@@3VVU_ID@@A	; vuNullId
	call	??0VU_ID@@QAE@VVU_SESSION_ID@@K@Z	; VU_ID::VU_ID
	pop	ebp
	ret	0
??__EvuNullId@@YAXXZ ENDP				; `dynamic initializer for 'vuNullId''
text$yc	ENDS
; Function compile flags: /Odtp
; File c:\users\zhitao li\documents\visual studio 2012\projects\freefalcon\falclib\include\invalidbufferexception.h
;	COMDAT ?memcpychk@@YAXPAXPAPAEIPAJ@Z
_TEXT	SEGMENT
$T2 = -152						; size = 12
_s$3 = -140						; size = 24
_err$4 = -116						; size = 100
__$ArrayPad$ = -16					; size = 4
__$EHRec$ = -12						; size = 12
_dst$ = 8						; size = 4
_src$ = 12						; size = 4
_size$ = 16						; size = 4
_rem$ = 20						; size = 4
?memcpychk@@YAXPAXPAPAEIPAJ@Z PROC			; memcpychk, COMDAT

; 25   : inline void memcpychk(void *dst, VU_BYTE **src, size_t size, long *rem){

	push	ebp
	mov	ebp, esp
	push	-1
	push	__ehhandler$?memcpychk@@YAXPAXPAPAEIPAJ@Z
	mov	eax, DWORD PTR fs:0
	push	eax
	sub	esp, 140				; 0000008cH
	mov	eax, DWORD PTR ___security_cookie
	xor	eax, ebp
	mov	DWORD PTR __$ArrayPad$[ebp], eax
	push	eax
	lea	eax, DWORD PTR __$EHRec$[ebp]
	mov	DWORD PTR fs:0, eax

; 26   : 	if ((size_t)*rem < size){

	mov	eax, DWORD PTR _rem$[ebp]
	mov	ecx, DWORD PTR [eax]
	cmp	ecx, DWORD PTR _size$[ebp]
	jae	SHORT $LN1@memcpychk

; 27   : 		char err[100];
; 28   : 		sprintf(err, "Trying to write %lu bytes to %ld buffer", static_cast<unsigned long>(size), *rem);

	mov	edx, DWORD PTR _rem$[ebp]
	mov	eax, DWORD PTR [edx]
	push	eax
	mov	ecx, DWORD PTR _size$[ebp]
	push	ecx
	push	OFFSET ??_C@_0CI@MPKJAHJH@Trying?5to?5write?5?$CFlu?5bytes?5to?5?$CFld@
	lea	edx, DWORD PTR _err$4[ebp]
	push	edx
	call	_sprintf
	add	esp, 16					; 00000010H

; 29   : 		std::string s(err);

	lea	eax, DWORD PTR _err$4[ebp]
	push	eax
	lea	ecx, DWORD PTR _s$3[ebp]
	call	??0?$basic_string@DU?$char_traits@D@std@@V?$allocator@D@2@@std@@QAE@PBD@Z ; std::basic_string<char,std::char_traits<char>,std::allocator<char> >::basic_string<char,std::char_traits<char>,std::allocator<char> >
	mov	DWORD PTR __$EHRec$[ebp+8], 0

; 30   : 		throw InvalidBufferException(s);

	lea	ecx, DWORD PTR _s$3[ebp]
	push	ecx
	lea	ecx, DWORD PTR $T2[ebp]
	call	??0InvalidBufferException@@QAE@ABV?$basic_string@DU?$char_traits@D@std@@V?$allocator@D@2@@std@@@Z ; InvalidBufferException::InvalidBufferException
	push	OFFSET __TI4?AVInvalidBufferException@@
	lea	edx, DWORD PTR $T2[ebp]
	push	edx
	call	__CxxThrowException@8

; 31   : 	}

	mov	DWORD PTR __$EHRec$[ebp+8], -1
	lea	ecx, DWORD PTR _s$3[ebp]
	call	??1?$basic_string@DU?$char_traits@D@std@@V?$allocator@D@2@@std@@QAE@XZ ; std::basic_string<char,std::char_traits<char>,std::allocator<char> >::~basic_string<char,std::char_traits<char>,std::allocator<char> >
$LN1@memcpychk:

; 32   : 	memcpy(dst, *src, size);

	mov	eax, DWORD PTR _size$[ebp]
	push	eax
	mov	ecx, DWORD PTR _src$[ebp]
	mov	edx, DWORD PTR [ecx]
	push	edx
	mov	eax, DWORD PTR _dst$[ebp]
	push	eax
	call	_memcpy
	add	esp, 12					; 0000000cH

; 33   : 	*rem -= size;

	mov	ecx, DWORD PTR _rem$[ebp]
	mov	edx, DWORD PTR [ecx]
	sub	edx, DWORD PTR _size$[ebp]
	mov	eax, DWORD PTR _rem$[ebp]
	mov	DWORD PTR [eax], edx

; 34   : 	*src += size;

	mov	ecx, DWORD PTR _src$[ebp]
	mov	edx, DWORD PTR [ecx]
	add	edx, DWORD PTR _size$[ebp]
	mov	eax, DWORD PTR _src$[ebp]
	mov	DWORD PTR [eax], edx
$LN3@memcpychk:

; 35   : }

	mov	ecx, DWORD PTR __$EHRec$[ebp]
	mov	DWORD PTR fs:0, ecx
	pop	ecx
	mov	ecx, DWORD PTR __$ArrayPad$[ebp]
	xor	ecx, ebp
	call	@__security_check_cookie@4
	mov	esp, ebp
	pop	ebp
	ret	0
_TEXT	ENDS
;	COMDAT text$x
text$x	SEGMENT
__unwindfunclet$?memcpychk@@YAXPAXPAPAEIPAJ@Z$0:
	lea	ecx, DWORD PTR _s$3[ebp]
	jmp	??1?$basic_string@DU?$char_traits@D@std@@V?$allocator@D@2@@std@@QAE@XZ ; std::basic_string<char,std::char_traits<char>,std::allocator<char> >::~basic_string<char,std::char_traits<char>,std::allocator<char> >
__ehhandler$?memcpychk@@YAXPAXPAPAEIPAJ@Z:
	mov	edx, DWORD PTR [esp+8]
	lea	eax, DWORD PTR [edx+12]
	mov	ecx, DWORD PTR [edx-144]
	xor	ecx, eax
	call	@__security_check_cookie@4
	mov	ecx, DWORD PTR [edx-4]
	xor	ecx, eax
	call	@__security_check_cookie@4
	mov	eax, OFFSET __ehfuncinfo$?memcpychk@@YAXPAXPAPAEIPAJ@Z
	jmp	___CxxFrameHandler3
text$x	ENDS
?memcpychk@@YAXPAXPAPAEIPAJ@Z ENDP			; memcpychk
; Function compile flags: /Odtp
;	COMDAT ??_GInvalidBufferException@@UAEPAXI@Z
_TEXT	SEGMENT
_this$ = -4						; size = 4
___flags$ = 8						; size = 4
??_GInvalidBufferException@@UAEPAXI@Z PROC		; InvalidBufferException::`scalar deleting destructor', COMDAT
; _this$ = ecx
	push	ebp
	mov	ebp, esp
	push	ecx
	mov	DWORD PTR _this$[ebp], ecx
	mov	ecx, DWORD PTR _this$[ebp]
	call	??1InvalidBufferException@@UAE@XZ
	mov	eax, DWORD PTR ___flags$[ebp]
	and	eax, 1
	je	SHORT $LN1@scalar
	mov	ecx, DWORD PTR _this$[ebp]
	push	ecx
	call	??3@YAXPAX@Z				; operator delete
	add	esp, 4
$LN1@scalar:
	mov	eax, DWORD PTR _this$[ebp]
	mov	esp, ebp
	pop	ebp
	ret	4
??_GInvalidBufferException@@UAEPAXI@Z ENDP		; InvalidBufferException::`scalar deleting destructor'
_TEXT	ENDS
; Function compile flags: /Odtp
;	COMDAT ??0InvalidBufferException@@QAE@ABV0@@Z
_TEXT	SEGMENT
_this$ = -4						; size = 4
___that$ = 8						; size = 4
??0InvalidBufferException@@QAE@ABV0@@Z PROC		; InvalidBufferException::InvalidBufferException, COMDAT
; _this$ = ecx
	push	ebp
	mov	ebp, esp
	push	ecx
	mov	DWORD PTR _this$[ebp], ecx
	mov	eax, DWORD PTR ___that$[ebp]
	push	eax
	mov	ecx, DWORD PTR _this$[ebp]
	call	??0out_of_range@std@@QAE@ABV01@@Z
	mov	ecx, DWORD PTR _this$[ebp]
	mov	DWORD PTR [ecx], OFFSET ??_7InvalidBufferException@@6B@
	mov	eax, DWORD PTR _this$[ebp]
	mov	esp, ebp
	pop	ebp
	ret	4
??0InvalidBufferException@@QAE@ABV0@@Z ENDP		; InvalidBufferException::InvalidBufferException
_TEXT	ENDS
; Function compile flags: /Odtp
;	COMDAT ??1InvalidBufferException@@UAE@XZ
_TEXT	SEGMENT
_this$ = -4						; size = 4
??1InvalidBufferException@@UAE@XZ PROC			; InvalidBufferException::~InvalidBufferException, COMDAT
; _this$ = ecx
	push	ebp
	mov	ebp, esp
	push	ecx
	mov	DWORD PTR _this$[ebp], ecx
	mov	ecx, DWORD PTR _this$[ebp]
	call	??1out_of_range@std@@UAE@XZ
	mov	esp, ebp
	pop	ebp
	ret	0
??1InvalidBufferException@@UAE@XZ ENDP			; InvalidBufferException::~InvalidBufferException
_TEXT	ENDS
; Function compile flags: /Odtp
; File c:\users\zhitao li\documents\visual studio 2012\projects\freefalcon\falclib\include\invalidbufferexception.h
;	COMDAT ??0InvalidBufferException@@QAE@ABV?$basic_string@DU?$char_traits@D@std@@V?$allocator@D@2@@std@@@Z
_TEXT	SEGMENT
_this$ = -4						; size = 4
_msg$ = 8						; size = 4
??0InvalidBufferException@@QAE@ABV?$basic_string@DU?$char_traits@D@std@@V?$allocator@D@2@@std@@@Z PROC ; InvalidBufferException::InvalidBufferException, COMDAT
; _this$ = ecx

; 19   : 	InvalidBufferException(const std::string &msg) : out_of_range(msg){}

	push	ebp
	mov	ebp, esp
	push	ecx
	mov	DWORD PTR _this$[ebp], ecx
	mov	eax, DWORD PTR _msg$[ebp]
	push	eax
	mov	ecx, DWORD PTR _this$[ebp]
	call	??0out_of_range@std@@QAE@ABV?$basic_string@DU?$char_traits@D@std@@V?$allocator@D@2@@1@@Z ; std::out_of_range::out_of_range
	mov	ecx, DWORD PTR _this$[ebp]
	mov	DWORD PTR [ecx], OFFSET ??_7InvalidBufferException@@6B@
	mov	eax, DWORD PTR _this$[ebp]
	mov	esp, ebp
	pop	ebp
	ret	4
??0InvalidBufferException@@QAE@ABV?$basic_string@DU?$char_traits@D@std@@V?$allocator@D@2@@std@@@Z ENDP ; InvalidBufferException::InvalidBufferException
_TEXT	ENDS
; Function compile flags: /Odtp
; File c:\users\zhitao li\documents\visual studio 2012\projects\freefalcon\vu2\include\vusessn.h
;	COMDAT ?DomainMask@VuSessionEntity@@QAEKXZ
_TEXT	SEGMENT
_this$ = -4						; size = 4
?DomainMask@VuSessionEntity@@QAEKXZ PROC		; VuSessionEntity::DomainMask, COMDAT
; _this$ = ecx

; 175  : 	ulong DomainMask()		{ return domainMask_; }

	push	ebp
	mov	ebp, esp
	push	ecx
	mov	DWORD PTR _this$[ebp], ecx
	mov	eax, DWORD PTR _this$[ebp]
	mov	eax, DWORD PTR [eax+340]
	mov	esp, ebp
	pop	ebp
	ret	0
?DomainMask@VuSessionEntity@@QAEKXZ ENDP		; VuSessionEntity::DomainMask
_TEXT	ENDS
; Function compile flags: /Odtp
; File c:\users\zhitao li\documents\visual studio 2012\projects\freefalcon\vu2\include\vu_templates.h
;	COMDAT ?get@?$VuBin@VVuEntity@@@@QBEPAVVuEntity@@XZ
_TEXT	SEGMENT
_this$ = -4						; size = 4
?get@?$VuBin@VVuEntity@@@@QBEPAVVuEntity@@XZ PROC	; VuBin<VuEntity>::get, COMDAT
; _this$ = ecx

; 55   : 	E *get() const{

	push	ebp
	mov	ebp, esp
	push	ecx
	mov	DWORD PTR _this$[ebp], ecx

; 56   : 		return e;

	mov	eax, DWORD PTR _this$[ebp]
	mov	eax, DWORD PTR [eax]

; 57   : 	}

	mov	esp, ebp
	pop	ebp
	ret	0
?get@?$VuBin@VVuEntity@@@@QBEPAVVuEntity@@XZ ENDP	; VuBin<VuEntity>::get
_TEXT	ENDS
; Function compile flags: /Odtp
; File c:\users\zhitao li\documents\visual studio 2012\projects\freefalcon\vu2\include\vuevent.h
;	COMDAT ?RequestReliableTransmit@VuMessage@@QAEXXZ
_TEXT	SEGMENT
_this$ = -4						; size = 4
?RequestReliableTransmit@VuMessage@@QAEXXZ PROC		; VuMessage::RequestReliableTransmit, COMDAT
; _this$ = ecx

; 180  : 	void RequestReliableTransmit() { flags_ |= VU_RELIABLE_MSG_FLAG; }

	push	ebp
	mov	ebp, esp
	push	ecx
	mov	DWORD PTR _this$[ebp], ecx
	mov	eax, DWORD PTR _this$[ebp]
	movzx	ecx, BYTE PTR [eax+6]
	or	ecx, 8
	mov	edx, DWORD PTR _this$[ebp]
	mov	BYTE PTR [edx+6], cl
	mov	esp, ebp
	pop	ebp
	ret	0
?RequestReliableTransmit@VuMessage@@QAEXXZ ENDP		; VuMessage::RequestReliableTransmit
_TEXT	ENDS
; Function compile flags: /Odtp
; File c:\users\zhitao li\documents\visual studio 2012\projects\freefalcon\vu2\include\vuevent.h
;	COMDAT ?Entity@VuMessage@@QBEPAVVuEntity@@XZ
_TEXT	SEGMENT
_this$ = -4						; size = 4
?Entity@VuMessage@@QBEPAVVuEntity@@XZ PROC		; VuMessage::Entity, COMDAT
; _this$ = ecx

; 159  : 	VuEntity *Entity() const { return ent_.get(); }

	push	ebp
	mov	ebp, esp
	push	ecx
	mov	DWORD PTR _this$[ebp], ecx
	mov	ecx, DWORD PTR _this$[ebp]
	add	ecx, 40					; 00000028H
	call	?get@?$VuBin@VVuEntity@@@@QBEPAVVuEntity@@XZ ; VuBin<VuEntity>::get
	mov	esp, ebp
	pop	ebp
	ret	0
?Entity@VuMessage@@QBEPAVVuEntity@@XZ ENDP		; VuMessage::Entity
_TEXT	ENDS
; Function compile flags: /Odtp
; File c:\users\zhitao li\documents\visual studio 2012\projects\freefalcon\vu2\include\vuevent.h
;	COMDAT ?Sender@VuMessage@@QBE?AVVU_ID@@XZ
_TEXT	SEGMENT
_this$ = -4						; size = 4
___$ReturnUdt$ = 8					; size = 4
?Sender@VuMessage@@QBE?AVVU_ID@@XZ PROC			; VuMessage::Sender, COMDAT
; _this$ = ecx

; 154  : 	VU_ID Sender() const { return sender_; }

	push	ebp
	mov	ebp, esp
	push	ecx
	mov	DWORD PTR _this$[ebp], ecx
	mov	eax, DWORD PTR _this$[ebp]
	mov	ecx, DWORD PTR [eax+8]
	mov	edx, DWORD PTR [eax+12]
	mov	eax, DWORD PTR ___$ReturnUdt$[ebp]
	mov	DWORD PTR [eax], ecx
	mov	DWORD PTR [eax+4], edx
	mov	eax, DWORD PTR ___$ReturnUdt$[ebp]
	mov	esp, ebp
	pop	ebp
	ret	4
?Sender@VuMessage@@QBE?AVVU_ID@@XZ ENDP			; VuMessage::Sender
_TEXT	ENDS
; Function compile flags: /Odtp
; File c:\users\zhitao li\documents\visual studio 2012\projects\freefalcon\vu2\include\vu.h
;	COMDAT ??1VuScopeLock@@QAE@XZ
_TEXT	SEGMENT
_this$ = -4						; size = 4
??1VuScopeLock@@QAE@XZ PROC				; VuScopeLock::~VuScopeLock, COMDAT
; _this$ = ecx

; 92   : 	~VuScopeLock(){ VuxUnlockMutex(m); }

	push	ebp
	mov	ebp, esp
	push	ecx
	mov	DWORD PTR _this$[ebp], ecx
	mov	eax, DWORD PTR _this$[ebp]
	mov	ecx, DWORD PTR [eax]
	push	ecx
	call	?VuxUnlockMutex@@YAXPAX@Z		; VuxUnlockMutex
	add	esp, 4
	mov	esp, ebp
	pop	ebp
	ret	0
??1VuScopeLock@@QAE@XZ ENDP				; VuScopeLock::~VuScopeLock
_TEXT	ENDS
; Function compile flags: /Odtp
; File c:\users\zhitao li\documents\visual studio 2012\projects\freefalcon\vu2\include\vu.h
;	COMDAT ??0VuScopeLock@@QAE@PAX@Z
_TEXT	SEGMENT
_this$ = -4						; size = 4
_m$ = 8							; size = 4
??0VuScopeLock@@QAE@PAX@Z PROC				; VuScopeLock::VuScopeLock, COMDAT
; _this$ = ecx

; 91   : 	explicit VuScopeLock(VuMutex m) : m(m){ VuxLockMutex(m); }

	push	ebp
	mov	ebp, esp
	push	ecx
	mov	DWORD PTR _this$[ebp], ecx
	mov	eax, DWORD PTR _this$[ebp]
	mov	ecx, DWORD PTR _m$[ebp]
	mov	DWORD PTR [eax], ecx
	mov	edx, DWORD PTR _m$[ebp]
	push	edx
	call	?VuxLockMutex@@YAXPAX@Z			; VuxLockMutex
	add	esp, 4
	mov	eax, DWORD PTR _this$[ebp]
	mov	esp, ebp
	pop	ebp
	ret	4
??0VuScopeLock@@QAE@PAX@Z ENDP				; VuScopeLock::VuScopeLock
_TEXT	ENDS
; Function compile flags: /Odtp
; File c:\users\zhitao li\documents\visual studio 2012\projects\freefalcon\vu2\include\vu_templates.h
;	COMDAT ??C?$VuBin@VVuSessionEntity@@@@QBEPAVVuSessionEntity@@XZ
_TEXT	SEGMENT
_this$ = -4						; size = 4
??C?$VuBin@VVuSessionEntity@@@@QBEPAVVuSessionEntity@@XZ PROC ; VuBin<VuSessionEntity>::operator->, COMDAT
; _this$ = ecx

; 50   : 	E *operator->() const {

	push	ebp
	mov	ebp, esp
	push	ecx
	mov	DWORD PTR _this$[ebp], ecx

; 51   : 		return e;

	mov	eax, DWORD PTR _this$[ebp]
	mov	eax, DWORD PTR [eax]

; 52   : 	}

	mov	esp, ebp
	pop	ebp
	ret	0
??C?$VuBin@VVuSessionEntity@@@@QBEPAVVuSessionEntity@@XZ ENDP ; VuBin<VuSessionEntity>::operator->
_TEXT	ENDS
; Function compile flags: /Odtp
;	COMDAT ??_Gout_of_range@std@@UAEPAXI@Z
_TEXT	SEGMENT
_this$ = -4						; size = 4
___flags$ = 8						; size = 4
??_Gout_of_range@std@@UAEPAXI@Z PROC			; std::out_of_range::`scalar deleting destructor', COMDAT
; _this$ = ecx
	push	ebp
	mov	ebp, esp
	push	ecx
	mov	DWORD PTR _this$[ebp], ecx
	mov	ecx, DWORD PTR _this$[ebp]
	call	??1out_of_range@std@@UAE@XZ
	mov	eax, DWORD PTR ___flags$[ebp]
	and	eax, 1
	je	SHORT $LN1@scalar
	mov	ecx, DWORD PTR _this$[ebp]
	push	ecx
	call	??3@YAXPAX@Z				; operator delete
	add	esp, 4
$LN1@scalar:
	mov	eax, DWORD PTR _this$[ebp]
	mov	esp, ebp
	pop	ebp
	ret	4
??_Gout_of_range@std@@UAEPAXI@Z ENDP			; std::out_of_range::`scalar deleting destructor'
_TEXT	ENDS
; Function compile flags: /Odtp
;	COMDAT ??0out_of_range@std@@QAE@ABV01@@Z
_TEXT	SEGMENT
_this$ = -4						; size = 4
___that$ = 8						; size = 4
??0out_of_range@std@@QAE@ABV01@@Z PROC			; std::out_of_range::out_of_range, COMDAT
; _this$ = ecx
	push	ebp
	mov	ebp, esp
	push	ecx
	mov	DWORD PTR _this$[ebp], ecx
	mov	eax, DWORD PTR ___that$[ebp]
	push	eax
	mov	ecx, DWORD PTR _this$[ebp]
	call	??0logic_error@std@@QAE@ABV01@@Z
	mov	ecx, DWORD PTR _this$[ebp]
	mov	DWORD PTR [ecx], OFFSET ??_7out_of_range@std@@6B@
	mov	eax, DWORD PTR _this$[ebp]
	mov	esp, ebp
	pop	ebp
	ret	4
??0out_of_range@std@@QAE@ABV01@@Z ENDP			; std::out_of_range::out_of_range
_TEXT	ENDS
; Function compile flags: /Odtp
;	COMDAT ??1out_of_range@std@@UAE@XZ
_TEXT	SEGMENT
_this$ = -4						; size = 4
??1out_of_range@std@@UAE@XZ PROC			; std::out_of_range::~out_of_range, COMDAT
; _this$ = ecx
	push	ebp
	mov	ebp, esp
	push	ecx
	mov	DWORD PTR _this$[ebp], ecx
	mov	ecx, DWORD PTR _this$[ebp]
	call	??1logic_error@std@@UAE@XZ
	mov	esp, ebp
	pop	ebp
	ret	0
??1out_of_range@std@@UAE@XZ ENDP			; std::out_of_range::~out_of_range
_TEXT	ENDS
; Function compile flags: /Odtp
; File c:\program files (x86)\microsoft visual studio 11.0\vc\include\stdexcept
;	COMDAT ??0out_of_range@std@@QAE@ABV?$basic_string@DU?$char_traits@D@std@@V?$allocator@D@2@@1@@Z
_TEXT	SEGMENT
_this$ = -4						; size = 4
__Message$ = 8						; size = 4
??0out_of_range@std@@QAE@ABV?$basic_string@DU?$char_traits@D@std@@V?$allocator@D@2@@1@@Z PROC ; std::out_of_range::out_of_range, COMDAT
; _this$ = ecx

; 145  : 		{	// construct from message string

	push	ebp
	mov	ebp, esp
	push	ecx
	mov	DWORD PTR _this$[ebp], ecx
	mov	ecx, DWORD PTR __Message$[ebp]
	call	?c_str@?$basic_string@DU?$char_traits@D@std@@V?$allocator@D@2@@std@@QBEPBDXZ ; std::basic_string<char,std::char_traits<char>,std::allocator<char> >::c_str
	push	eax
	mov	ecx, DWORD PTR _this$[ebp]
	call	??0logic_error@std@@QAE@PBD@Z		; std::logic_error::logic_error
	mov	eax, DWORD PTR _this$[ebp]
	mov	DWORD PTR [eax], OFFSET ??_7out_of_range@std@@6B@

; 146  : 		}

	mov	eax, DWORD PTR _this$[ebp]
	mov	esp, ebp
	pop	ebp
	ret	4
??0out_of_range@std@@QAE@ABV?$basic_string@DU?$char_traits@D@std@@V?$allocator@D@2@@1@@Z ENDP ; std::out_of_range::out_of_range
_TEXT	ENDS
; Function compile flags: /Odtp
; File c:\program files (x86)\microsoft visual studio 11.0\vc\include\xstring
;	COMDAT ?_Xran@?$basic_string@DU?$char_traits@D@std@@V?$allocator@D@2@@std@@QBEXXZ
_TEXT	SEGMENT
_this$ = -4						; size = 4
?_Xran@?$basic_string@DU?$char_traits@D@std@@V?$allocator@D@2@@std@@QBEXXZ PROC ; std::basic_string<char,std::char_traits<char>,std::allocator<char> >::_Xran, COMDAT
; _this$ = ecx

; 2275 : 		{	// report an out_of_range error

	push	ebp
	mov	ebp, esp
	push	ecx
	mov	DWORD PTR _this$[ebp], ecx

; 2276 : 		_Xout_of_range("invalid string position");

	push	OFFSET ??_C@_0BI@CFPLBAOH@invalid?5string?5position?$AA@
	call	?_Xout_of_range@std@@YAXPBD@Z		; std::_Xout_of_range
$LN2@Xran:

; 2277 : 		}

	mov	esp, ebp
	pop	ebp
	ret	0
?_Xran@?$basic_string@DU?$char_traits@D@std@@V?$allocator@D@2@@std@@QBEXXZ ENDP ; std::basic_string<char,std::char_traits<char>,std::allocator<char> >::_Xran
_TEXT	ENDS
; Function compile flags: /Odtp
; File c:\program files (x86)\microsoft visual studio 11.0\vc\include\xstring
;	COMDAT ?_Xlen@?$basic_string@DU?$char_traits@D@std@@V?$allocator@D@2@@std@@QBEXXZ
_TEXT	SEGMENT
_this$ = -4						; size = 4
?_Xlen@?$basic_string@DU?$char_traits@D@std@@V?$allocator@D@2@@std@@QBEXXZ PROC ; std::basic_string<char,std::char_traits<char>,std::allocator<char> >::_Xlen, COMDAT
; _this$ = ecx

; 2270 : 		{	// report a length_error

	push	ebp
	mov	ebp, esp
	push	ecx
	mov	DWORD PTR _this$[ebp], ecx

; 2271 : 		_Xlength_error("string too long");

	push	OFFSET ??_C@_0BA@JFNIOLAK@string?5too?5long?$AA@
	call	?_Xlength_error@std@@YAXPBD@Z		; std::_Xlength_error
$LN2@Xlen:

; 2272 : 		}

	mov	esp, ebp
	pop	ebp
	ret	0
?_Xlen@?$basic_string@DU?$char_traits@D@std@@V?$allocator@D@2@@std@@QBEXXZ ENDP ; std::basic_string<char,std::char_traits<char>,std::allocator<char> >::_Xlen
_TEXT	ENDS
; Function compile flags: /Odtp
; File c:\program files (x86)\microsoft visual studio 11.0\vc\include\xstring
;	COMDAT ?_Tidy@?$basic_string@DU?$char_traits@D@std@@V?$allocator@D@2@@std@@QAEX_NI@Z
_TEXT	SEGMENT
__Ptr$1 = -12						; size = 4
_this$ = -8						; size = 4
$T2 = -2						; size = 1
$T3 = -1						; size = 1
__Built$ = 8						; size = 1
__Newsize$ = 12						; size = 4
?_Tidy@?$basic_string@DU?$char_traits@D@std@@V?$allocator@D@2@@std@@QAEX_NI@Z PROC ; std::basic_string<char,std::char_traits<char>,std::allocator<char> >::_Tidy, COMDAT
; _this$ = ecx

; 2253 : 		{	// initialize buffer, deallocating any storage

	push	ebp
	mov	ebp, esp
	sub	esp, 12					; 0000000cH
	mov	DWORD PTR _this$[ebp], ecx

; 2254 : 		if (!_Built)

	movzx	eax, BYTE PTR __Built$[ebp]
	test	eax, eax
	jne	SHORT $LN4@Tidy
	jmp	SHORT $LN3@Tidy
$LN4@Tidy:

; 2255 : 			;
; 2256 : 		else if (this->_BUF_SIZE <= this->_Myres)

	mov	ecx, DWORD PTR _this$[ebp]
	cmp	DWORD PTR [ecx+20], 16			; 00000010H
	jb	SHORT $LN3@Tidy

; 2257 : 			{	// copy any leftovers to small buffer and deallocate
; 2258 : 			pointer _Ptr = this->_Bx._Ptr;

	mov	edx, DWORD PTR _this$[ebp]
	mov	eax, DWORD PTR [edx]
	mov	DWORD PTR __Ptr$1[ebp], eax

; 2259 : 			this->_Getal().destroy(&this->_Bx._Ptr);

	mov	ecx, DWORD PTR _this$[ebp]
	push	ecx
	lea	edx, DWORD PTR $T3[ebp]
	push	edx
	mov	ecx, DWORD PTR _this$[ebp]
	call	?_Getal@?$_String_alloc@$0A@U?$_String_base_types@DV?$allocator@D@std@@@std@@@std@@QBE?AU?$_Wrap_alloc@V?$allocator@D@std@@@2@XZ ; std::_String_alloc<0,std::_String_base_types<char,std::allocator<char> > >::_Getal
	mov	ecx, eax
	call	??$destroy@PAD@?$_Wrap_alloc@V?$allocator@D@std@@@std@@QAEXPAPAD@Z ; std::_Wrap_alloc<std::allocator<char> >::destroy<char *>

; 2260 : 			if (0 < _Newsize)

	cmp	DWORD PTR __Newsize$[ebp], 0
	jbe	SHORT $LN1@Tidy

; 2261 : 				_Traits::copy(this->_Bx._Buf,
; 2262 : 					_STD addressof(*_Ptr), _Newsize);

	mov	eax, DWORD PTR __Newsize$[ebp]
	push	eax
	mov	ecx, DWORD PTR __Ptr$1[ebp]
	push	ecx
	call	??$addressof@D@std@@YAPADAAD@Z		; std::addressof<char>
	add	esp, 4
	push	eax
	mov	edx, DWORD PTR _this$[ebp]
	push	edx
	call	?copy@?$char_traits@D@std@@SAPADPADPBDI@Z ; std::char_traits<char>::copy
	add	esp, 12					; 0000000cH
$LN1@Tidy:

; 2263 : 			this->_Getal().deallocate(_Ptr, this->_Myres + 1);

	mov	eax, DWORD PTR _this$[ebp]
	mov	ecx, DWORD PTR [eax+20]
	add	ecx, 1
	push	ecx
	mov	edx, DWORD PTR __Ptr$1[ebp]
	push	edx
	lea	eax, DWORD PTR $T2[ebp]
	push	eax
	mov	ecx, DWORD PTR _this$[ebp]
	call	?_Getal@?$_String_alloc@$0A@U?$_String_base_types@DV?$allocator@D@std@@@std@@@std@@QBE?AU?$_Wrap_alloc@V?$allocator@D@std@@@2@XZ ; std::_String_alloc<0,std::_String_base_types<char,std::allocator<char> > >::_Getal
	mov	ecx, eax
	call	?deallocate@?$_Wrap_alloc@V?$allocator@D@std@@@std@@QAEXPADI@Z ; std::_Wrap_alloc<std::allocator<char> >::deallocate
$LN3@Tidy:

; 2264 : 			}
; 2265 : 		this->_Myres = this->_BUF_SIZE - 1;

	mov	ecx, DWORD PTR _this$[ebp]
	mov	DWORD PTR [ecx+20], 15			; 0000000fH

; 2266 : 		_Eos(_Newsize);

	mov	edx, DWORD PTR __Newsize$[ebp]
	push	edx
	mov	ecx, DWORD PTR _this$[ebp]
	call	?_Eos@?$basic_string@DU?$char_traits@D@std@@V?$allocator@D@2@@std@@QAEXI@Z ; std::basic_string<char,std::char_traits<char>,std::allocator<char> >::_Eos

; 2267 : 		}

	mov	esp, ebp
	pop	ebp
	ret	8
?_Tidy@?$basic_string@DU?$char_traits@D@std@@V?$allocator@D@2@@std@@QAEX_NI@Z ENDP ; std::basic_string<char,std::char_traits<char>,std::allocator<char> >::_Tidy
_TEXT	ENDS
; Function compile flags: /Odtp
; File c:\program files (x86)\microsoft visual studio 11.0\vc\include\xstring
;	COMDAT ?_Inside@?$basic_string@DU?$char_traits@D@std@@V?$allocator@D@2@@std@@QAE_NPBD@Z
_TEXT	SEGMENT
_this$ = -4						; size = 4
__Ptr$ = 8						; size = 4
?_Inside@?$basic_string@DU?$char_traits@D@std@@V?$allocator@D@2@@std@@QAE_NPBD@Z PROC ; std::basic_string<char,std::char_traits<char>,std::allocator<char> >::_Inside, COMDAT
; _this$ = ecx

; 2237 : 		{	// test if _Ptr points inside string

	push	ebp
	mov	ebp, esp
	push	ecx
	mov	DWORD PTR _this$[ebp], ecx

; 2238 : 		if (_Ptr == 0 || _Ptr < this->_Myptr()
; 2239 : 			|| this->_Myptr() + this->_Mysize <= _Ptr)

	cmp	DWORD PTR __Ptr$[ebp], 0
	je	SHORT $LN2@Inside
	mov	ecx, DWORD PTR _this$[ebp]
	call	?_Myptr@?$_String_val@U?$_Simple_types@D@std@@@std@@QAEPADXZ ; std::_String_val<std::_Simple_types<char> >::_Myptr
	cmp	DWORD PTR __Ptr$[ebp], eax
	jb	SHORT $LN2@Inside
	mov	ecx, DWORD PTR _this$[ebp]
	call	?_Myptr@?$_String_val@U?$_Simple_types@D@std@@@std@@QAEPADXZ ; std::_String_val<std::_Simple_types<char> >::_Myptr
	mov	ecx, DWORD PTR _this$[ebp]
	add	eax, DWORD PTR [ecx+16]
	cmp	eax, DWORD PTR __Ptr$[ebp]
	ja	SHORT $LN3@Inside
$LN2@Inside:

; 2240 : 			return (false);	// don't ask

	xor	al, al
	jmp	SHORT $LN4@Inside

; 2241 : 		else

	jmp	SHORT $LN4@Inside
$LN3@Inside:

; 2242 : 			return (true);

	mov	al, 1
$LN4@Inside:

; 2243 : 		}

	mov	esp, ebp
	pop	ebp
	ret	4
?_Inside@?$basic_string@DU?$char_traits@D@std@@V?$allocator@D@2@@std@@QAE_NPBD@Z ENDP ; std::basic_string<char,std::char_traits<char>,std::allocator<char> >::_Inside
_TEXT	ENDS
; Function compile flags: /Odtp
; File c:\program files (x86)\microsoft visual studio 11.0\vc\include\xstring
;	COMDAT ?_Grow@?$basic_string@DU?$char_traits@D@std@@V?$allocator@D@2@@std@@QAE_NI_N@Z
_TEXT	SEGMENT
tv136 = -12						; size = 4
tv129 = -8						; size = 4
_this$ = -4						; size = 4
__Newsize$ = 8						; size = 4
__Trim$ = 12						; size = 1
?_Grow@?$basic_string@DU?$char_traits@D@std@@V?$allocator@D@2@@std@@QAE_NI_N@Z PROC ; std::basic_string<char,std::char_traits<char>,std::allocator<char> >::_Grow, COMDAT
; _this$ = ecx

; 2223 : 		{	// ensure buffer is big enough, trim to size if _Trim is true

	push	ebp
	mov	ebp, esp
	sub	esp, 12					; 0000000cH
	mov	DWORD PTR _this$[ebp], ecx

; 2224 : 		if (max_size() < _Newsize)

	mov	ecx, DWORD PTR _this$[ebp]
	call	?max_size@?$basic_string@DU?$char_traits@D@std@@V?$allocator@D@2@@std@@QBEIXZ ; std::basic_string<char,std::char_traits<char>,std::allocator<char> >::max_size
	cmp	eax, DWORD PTR __Newsize$[ebp]
	jae	SHORT $LN6@Grow

; 2225 : 			_Xlen();	// result too long

	mov	ecx, DWORD PTR _this$[ebp]
	call	?_Xlen@?$basic_string@DU?$char_traits@D@std@@V?$allocator@D@2@@std@@QBEXXZ ; std::basic_string<char,std::char_traits<char>,std::allocator<char> >::_Xlen
$LN6@Grow:

; 2226 : 		if (this->_Myres < _Newsize)

	mov	eax, DWORD PTR _this$[ebp]
	mov	ecx, DWORD PTR [eax+20]
	cmp	ecx, DWORD PTR __Newsize$[ebp]
	jae	SHORT $LN5@Grow

; 2227 : 			_Copy(_Newsize, this->_Mysize);	// reallocate to grow

	mov	edx, DWORD PTR _this$[ebp]
	mov	eax, DWORD PTR [edx+16]
	push	eax
	mov	ecx, DWORD PTR __Newsize$[ebp]
	push	ecx
	mov	ecx, DWORD PTR _this$[ebp]
	call	?_Copy@?$basic_string@DU?$char_traits@D@std@@V?$allocator@D@2@@std@@QAEXII@Z ; std::basic_string<char,std::char_traits<char>,std::allocator<char> >::_Copy
	jmp	SHORT $LN4@Grow
$LN5@Grow:

; 2228 : 		else if (_Trim && _Newsize < this->_BUF_SIZE)

	movzx	edx, BYTE PTR __Trim$[ebp]
	test	edx, edx
	je	SHORT $LN3@Grow
	cmp	DWORD PTR __Newsize$[ebp], 16		; 00000010H
	jae	SHORT $LN3@Grow

; 2229 : 			_Tidy(true,	// copy and deallocate if trimming to small string
; 2230 : 				_Newsize < this->_Mysize ? _Newsize : this->_Mysize);

	mov	eax, DWORD PTR _this$[ebp]
	mov	ecx, DWORD PTR __Newsize$[ebp]
	cmp	ecx, DWORD PTR [eax+16]
	jae	SHORT $LN9@Grow
	mov	edx, DWORD PTR __Newsize$[ebp]
	mov	DWORD PTR tv129[ebp], edx
	jmp	SHORT $LN10@Grow
$LN9@Grow:
	mov	eax, DWORD PTR _this$[ebp]
	mov	ecx, DWORD PTR [eax+16]
	mov	DWORD PTR tv129[ebp], ecx
$LN10@Grow:
	mov	edx, DWORD PTR tv129[ebp]
	push	edx
	push	1
	mov	ecx, DWORD PTR _this$[ebp]
	call	?_Tidy@?$basic_string@DU?$char_traits@D@std@@V?$allocator@D@2@@std@@QAEX_NI@Z ; std::basic_string<char,std::char_traits<char>,std::allocator<char> >::_Tidy
	jmp	SHORT $LN4@Grow
$LN3@Grow:

; 2231 : 		else if (_Newsize == 0)

	cmp	DWORD PTR __Newsize$[ebp], 0
	jne	SHORT $LN4@Grow

; 2232 : 			_Eos(0);	// new size is zero, just null terminate

	push	0
	mov	ecx, DWORD PTR _this$[ebp]
	call	?_Eos@?$basic_string@DU?$char_traits@D@std@@V?$allocator@D@2@@std@@QAEXI@Z ; std::basic_string<char,std::char_traits<char>,std::allocator<char> >::_Eos
$LN4@Grow:

; 2233 : 		return (0 < _Newsize);	// return true only if more work to do

	cmp	DWORD PTR __Newsize$[ebp], 0
	jbe	SHORT $LN11@Grow
	mov	DWORD PTR tv136[ebp], 1
	jmp	SHORT $LN12@Grow
$LN11@Grow:
	mov	DWORD PTR tv136[ebp], 0
$LN12@Grow:
	mov	al, BYTE PTR tv136[ebp]
$LN8@Grow:

; 2234 : 		}

	mov	esp, ebp
	pop	ebp
	ret	8
?_Grow@?$basic_string@DU?$char_traits@D@std@@V?$allocator@D@2@@std@@QAE_NI_N@Z ENDP ; std::basic_string<char,std::char_traits<char>,std::allocator<char> >::_Grow
_TEXT	ENDS
; Function compile flags: /Odtp
; File c:\program files (x86)\microsoft visual studio 11.0\vc\include\xstring
;	COMDAT ?_Eos@?$basic_string@DU?$char_traits@D@std@@V?$allocator@D@2@@std@@QAEXI@Z
_TEXT	SEGMENT
_this$ = -8						; size = 4
$T1 = -1						; size = 1
__Newsize$ = 8						; size = 4
?_Eos@?$basic_string@DU?$char_traits@D@std@@V?$allocator@D@2@@std@@QAEXI@Z PROC ; std::basic_string<char,std::char_traits<char>,std::allocator<char> >::_Eos, COMDAT
; _this$ = ecx

; 2217 : 		{	// set new length and null terminator

	push	ebp
	mov	ebp, esp
	sub	esp, 8
	mov	DWORD PTR _this$[ebp], ecx

; 2218 : 		_Traits::assign(this->_Myptr()[this->_Mysize = _Newsize], _Elem());

	mov	BYTE PTR $T1[ebp], 0
	mov	eax, DWORD PTR _this$[ebp]
	mov	ecx, DWORD PTR __Newsize$[ebp]
	mov	DWORD PTR [eax+16], ecx
	lea	edx, DWORD PTR $T1[ebp]
	push	edx
	mov	ecx, DWORD PTR _this$[ebp]
	call	?_Myptr@?$_String_val@U?$_Simple_types@D@std@@@std@@QAEPADXZ ; std::_String_val<std::_Simple_types<char> >::_Myptr
	add	eax, DWORD PTR __Newsize$[ebp]
	push	eax
	call	?assign@?$char_traits@D@std@@SAXAADABD@Z ; std::char_traits<char>::assign
	add	esp, 8

; 2219 : 		}

	mov	esp, ebp
	pop	ebp
	ret	4
?_Eos@?$basic_string@DU?$char_traits@D@std@@V?$allocator@D@2@@std@@QAEXI@Z ENDP ; std::basic_string<char,std::char_traits<char>,std::allocator<char> >::_Eos
_TEXT	ENDS
; Function compile flags: /Odtp
; File c:\program files (x86)\microsoft visual studio 11.0\vc\include\xstring
;	COMDAT ?_Copy@?$basic_string@DU?$char_traits@D@std@@V?$allocator@D@2@@std@@QAEXII@Z
_TEXT	SEGMENT
tv205 = -48						; size = 4
tv204 = -44						; size = 4
tv203 = -40						; size = 4
tv202 = -36						; size = 4
__Ptr$ = -32						; size = 4
__Newres$ = -28						; size = 4
_this$ = -24						; size = 4
$T2 = -19						; size = 1
$T3 = -18						; size = 1
$T4 = -17						; size = 1
__$EHRec$ = -16						; size = 16
__Newsize$ = 8						; size = 4
__Oldlen$ = 12						; size = 4
?_Copy@?$basic_string@DU?$char_traits@D@std@@V?$allocator@D@2@@std@@QAEXII@Z PROC ; std::basic_string<char,std::char_traits<char>,std::allocator<char> >::_Copy, COMDAT
; _this$ = ecx

; 2182 : 		{	// copy _Oldlen elements to newly allocated buffer

	push	ebp
	mov	ebp, esp
	push	-1
	push	__ehhandler$?_Copy@?$basic_string@DU?$char_traits@D@std@@V?$allocator@D@2@@std@@QAEXII@Z
	mov	eax, DWORD PTR fs:0
	push	eax
	push	ecx
	sub	esp, 32					; 00000020H
	push	ebx
	push	esi
	push	edi
	mov	eax, DWORD PTR ___security_cookie
	xor	eax, ebp
	push	eax
	lea	eax, DWORD PTR __$EHRec$[ebp+4]
	mov	DWORD PTR fs:0, eax
	mov	DWORD PTR __$EHRec$[ebp], esp
	mov	DWORD PTR _this$[ebp], ecx

; 2183 : 		size_type _Newres = _Newsize | this->_ALLOC_MASK;

	mov	eax, DWORD PTR __Newsize$[ebp]
	or	eax, 15					; 0000000fH
	mov	DWORD PTR __Newres$[ebp], eax

; 2184 : 		if (max_size() < _Newres)

	mov	ecx, DWORD PTR _this$[ebp]
	call	?max_size@?$basic_string@DU?$char_traits@D@std@@V?$allocator@D@2@@std@@QBEIXZ ; std::basic_string<char,std::char_traits<char>,std::allocator<char> >::max_size
	cmp	eax, DWORD PTR __Newres$[ebp]
	jae	SHORT $LN9@Copy

; 2185 : 			_Newres = _Newsize;	// undo roundup if too big

	mov	ecx, DWORD PTR __Newsize$[ebp]
	mov	DWORD PTR __Newres$[ebp], ecx
	jmp	SHORT $LN8@Copy
$LN9@Copy:

; 2186 : 		else if (this->_Myres / 2 <= _Newres / 3)

	mov	eax, DWORD PTR __Newres$[ebp]
	xor	edx, edx
	mov	ecx, 3
	div	ecx
	mov	edx, DWORD PTR _this$[ebp]
	mov	ecx, DWORD PTR [edx+20]
	shr	ecx, 1
	cmp	ecx, eax
	ja	SHORT $LN7@Copy
	jmp	SHORT $LN8@Copy
$LN7@Copy:

; 2187 : 			;
; 2188 : 		else if (this->_Myres <= max_size() - this->_Myres / 2)

	mov	edx, DWORD PTR _this$[ebp]
	mov	esi, DWORD PTR [edx+20]
	shr	esi, 1
	mov	ecx, DWORD PTR _this$[ebp]
	call	?max_size@?$basic_string@DU?$char_traits@D@std@@V?$allocator@D@2@@std@@QBEIXZ ; std::basic_string<char,std::char_traits<char>,std::allocator<char> >::max_size
	sub	eax, esi
	mov	ecx, DWORD PTR _this$[ebp]
	cmp	DWORD PTR [ecx+20], eax
	ja	SHORT $LN5@Copy

; 2189 : 			_Newres = this->_Myres
; 2190 : 				+ this->_Myres / 2;	// grow exponentially if possible

	mov	edx, DWORD PTR _this$[ebp]
	mov	eax, DWORD PTR [edx+20]
	shr	eax, 1
	mov	ecx, DWORD PTR _this$[ebp]
	add	eax, DWORD PTR [ecx+20]
	mov	DWORD PTR __Newres$[ebp], eax

; 2191 : 		else

	jmp	SHORT $LN8@Copy
$LN5@Copy:

; 2192 : 			_Newres = max_size();	// settle for max_size()

	mov	ecx, DWORD PTR _this$[ebp]
	call	?max_size@?$basic_string@DU?$char_traits@D@std@@V?$allocator@D@2@@std@@QBEIXZ ; std::basic_string<char,std::char_traits<char>,std::allocator<char> >::max_size
	mov	DWORD PTR __Newres$[ebp], eax
$LN8@Copy:

; 2193 : 
; 2194 : 		_Elem *_Ptr;
; 2195 : 		_TRY_BEGIN

	mov	DWORD PTR __$EHRec$[ebp+12], 0

; 2196 : 			_Ptr = this->_Getal().allocate(_Newres + 1);

	lea	edx, DWORD PTR $T4[ebp]
	push	edx
	mov	ecx, DWORD PTR _this$[ebp]
	call	?_Getal@?$_String_alloc@$0A@U?$_String_base_types@DV?$allocator@D@std@@@std@@@std@@QBE?AU?$_Wrap_alloc@V?$allocator@D@std@@@2@XZ ; std::_String_alloc<0,std::_String_base_types<char,std::allocator<char> > >::_Getal
	mov	DWORD PTR tv202[ebp], eax
	mov	eax, DWORD PTR __Newres$[ebp]
	add	eax, 1
	push	eax
	mov	ecx, DWORD PTR tv202[ebp]
	call	?allocate@?$_Wrap_alloc@V?$allocator@D@std@@@std@@QAEPADI@Z ; std::_Wrap_alloc<std::allocator<char> >::allocate
	mov	DWORD PTR tv203[ebp], eax
	mov	ecx, DWORD PTR tv203[ebp]
	mov	DWORD PTR __Ptr$[ebp], ecx
	jmp	SHORT $LN12@Copy
__catch$?_Copy@?$basic_string@DU?$char_traits@D@std@@V?$allocator@D@2@@std@@QAEXII@Z$0:

; 2197 : 		_CATCH_ALL

	mov	DWORD PTR __$EHRec$[ebp], esp

; 2198 : 			_Newres = _Newsize;	// allocation failed, undo roundup and retry

	mov	edx, DWORD PTR __Newsize$[ebp]
	mov	DWORD PTR __Newres$[ebp], edx

; 2199 : 			_TRY_BEGIN

	mov	BYTE PTR __$EHRec$[ebp+12], 2

; 2200 : 				_Ptr = this->_Getal().allocate(_Newres + 1);

	lea	eax, DWORD PTR $T3[ebp]
	push	eax
	mov	ecx, DWORD PTR _this$[ebp]
	call	?_Getal@?$_String_alloc@$0A@U?$_String_base_types@DV?$allocator@D@std@@@std@@@std@@QBE?AU?$_Wrap_alloc@V?$allocator@D@std@@@2@XZ ; std::_String_alloc<0,std::_String_base_types<char,std::allocator<char> > >::_Getal
	mov	DWORD PTR tv204[ebp], eax
	mov	ecx, DWORD PTR __Newres$[ebp]
	add	ecx, 1
	push	ecx
	mov	ecx, DWORD PTR tv204[ebp]
	call	?allocate@?$_Wrap_alloc@V?$allocator@D@std@@@std@@QAEPADI@Z ; std::_Wrap_alloc<std::allocator<char> >::allocate
	mov	DWORD PTR tv205[ebp], eax
	mov	edx, DWORD PTR tv205[ebp]
	mov	DWORD PTR __Ptr$[ebp], edx
	jmp	SHORT $LN14@Copy
__catch$?_Copy@?$basic_string@DU?$char_traits@D@std@@V?$allocator@D@2@@std@@QAEXII@Z$1:

; 2201 : 			_CATCH_ALL
; 2202 : 			_Tidy(true);	// failed again, discard storage and reraise

	push	0
	push	1
	mov	ecx, DWORD PTR _this$[ebp]
	call	?_Tidy@?$basic_string@DU?$char_traits@D@std@@V?$allocator@D@2@@std@@QAEX_NI@Z ; std::basic_string<char,std::char_traits<char>,std::allocator<char> >::_Tidy

; 2203 : 			_RERAISE;

	push	0
	push	0
	call	__CxxThrowException@8

; 2204 : 			_CATCH_END

	mov	eax, $LN17@Copy
	ret	0
$LN14@Copy:
	mov	DWORD PTR __$EHRec$[ebp+12], 1
	jmp	SHORT __tryend$?_Copy@?$basic_string@DU?$char_traits@D@std@@V?$allocator@D@2@@std@@QAEXII@Z$2
$LN17@Copy:
	mov	DWORD PTR __$EHRec$[ebp+12], 1
__tryend$?_Copy@?$basic_string@DU?$char_traits@D@std@@V?$allocator@D@2@@std@@QAEXII@Z$2:

; 2205 : 		_CATCH_END

	mov	eax, $LN19@Copy
	ret	0
$LN12@Copy:
	mov	DWORD PTR __$EHRec$[ebp+12], -1
	jmp	SHORT __tryend$?_Copy@?$basic_string@DU?$char_traits@D@std@@V?$allocator@D@2@@std@@QAEXII@Z$3
$LN19@Copy:
	mov	DWORD PTR __$EHRec$[ebp+12], -1
__tryend$?_Copy@?$basic_string@DU?$char_traits@D@std@@V?$allocator@D@2@@std@@QAEXII@Z$3:

; 2206 : 
; 2207 : 		if (0 < _Oldlen)

	cmp	DWORD PTR __Oldlen$[ebp], 0
	jbe	SHORT $LN1@Copy

; 2208 : 			_Traits::copy(_Ptr, this->_Myptr(),
; 2209 : 				_Oldlen);	// copy existing elements

	mov	eax, DWORD PTR __Oldlen$[ebp]
	push	eax
	mov	ecx, DWORD PTR _this$[ebp]
	call	?_Myptr@?$_String_val@U?$_Simple_types@D@std@@@std@@QAEPADXZ ; std::_String_val<std::_Simple_types<char> >::_Myptr
	push	eax
	mov	ecx, DWORD PTR __Ptr$[ebp]
	push	ecx
	call	?copy@?$char_traits@D@std@@SAPADPADPBDI@Z ; std::char_traits<char>::copy
	add	esp, 12					; 0000000cH
$LN1@Copy:

; 2210 : 		_Tidy(true);

	push	0
	push	1
	mov	ecx, DWORD PTR _this$[ebp]
	call	?_Tidy@?$basic_string@DU?$char_traits@D@std@@V?$allocator@D@2@@std@@QAEX_NI@Z ; std::basic_string<char,std::char_traits<char>,std::allocator<char> >::_Tidy

; 2211 : 		this->_Getal().construct(&this->_Bx._Ptr, _Ptr);

	lea	edx, DWORD PTR __Ptr$[ebp]
	push	edx
	mov	eax, DWORD PTR _this$[ebp]
	push	eax
	lea	ecx, DWORD PTR $T2[ebp]
	push	ecx
	mov	ecx, DWORD PTR _this$[ebp]
	call	?_Getal@?$_String_alloc@$0A@U?$_String_base_types@DV?$allocator@D@std@@@std@@@std@@QBE?AU?$_Wrap_alloc@V?$allocator@D@std@@@2@XZ ; std::_String_alloc<0,std::_String_base_types<char,std::allocator<char> > >::_Getal
	mov	ecx, eax
	call	??$construct@PADAAPAD@?$_Wrap_alloc@V?$allocator@D@std@@@std@@QAEXPAPADAAPAD@Z ; std::_Wrap_alloc<std::allocator<char> >::construct<char *,char * &>

; 2212 : 		this->_Myres = _Newres;

	mov	edx, DWORD PTR _this$[ebp]
	mov	eax, DWORD PTR __Newres$[ebp]
	mov	DWORD PTR [edx+20], eax

; 2213 : 		_Eos(_Oldlen);

	mov	ecx, DWORD PTR __Oldlen$[ebp]
	push	ecx
	mov	ecx, DWORD PTR _this$[ebp]
	call	?_Eos@?$basic_string@DU?$char_traits@D@std@@V?$allocator@D@2@@std@@QAEXI@Z ; std::basic_string<char,std::char_traits<char>,std::allocator<char> >::_Eos
$LN11@Copy:

; 2214 : 		}

	mov	ecx, DWORD PTR __$EHRec$[ebp+4]
	mov	DWORD PTR fs:0, ecx
	pop	ecx
	pop	edi
	pop	esi
	pop	ebx
	mov	esp, ebp
	pop	ebp
	ret	8
_TEXT	ENDS
;	COMDAT text$x
text$x	SEGMENT
__ehhandler$?_Copy@?$basic_string@DU?$char_traits@D@std@@V?$allocator@D@2@@std@@QAEXII@Z:
	mov	edx, DWORD PTR [esp+8]
	lea	eax, DWORD PTR [edx+12]
	mov	ecx, DWORD PTR [edx-52]
	xor	ecx, eax
	call	@__security_check_cookie@4
	mov	eax, OFFSET __ehfuncinfo$?_Copy@?$basic_string@DU?$char_traits@D@std@@V?$allocator@D@2@@std@@QAEXII@Z
	jmp	___CxxFrameHandler3
text$x	ENDS
?_Copy@?$basic_string@DU?$char_traits@D@std@@V?$allocator@D@2@@std@@QAEXII@Z ENDP ; std::basic_string<char,std::char_traits<char>,std::allocator<char> >::_Copy
; Function compile flags: /Odtp
; File c:\program files (x86)\microsoft visual studio 11.0\vc\include\xstring
;	COMDAT ?max_size@?$basic_string@DU?$char_traits@D@std@@V?$allocator@D@2@@std@@QBEIXZ
_TEXT	SEGMENT
_this$ = -16						; size = 4
tv75 = -12						; size = 4
__Num$ = -8						; size = 4
$T1 = -1						; size = 1
?max_size@?$basic_string@DU?$char_traits@D@std@@V?$allocator@D@2@@std@@QBEIXZ PROC ; std::basic_string<char,std::char_traits<char>,std::allocator<char> >::max_size, COMDAT
; _this$ = ecx

; 1737 : 		{	// return maximum possible length of sequence

	push	ebp
	mov	ebp, esp
	sub	esp, 16					; 00000010H
	mov	DWORD PTR _this$[ebp], ecx

; 1738 : 		size_type _Num = this->_Getal().max_size();

	lea	eax, DWORD PTR $T1[ebp]
	push	eax
	mov	ecx, DWORD PTR _this$[ebp]
	call	?_Getal@?$_String_alloc@$0A@U?$_String_base_types@DV?$allocator@D@std@@@std@@@std@@QBE?AU?$_Wrap_alloc@V?$allocator@D@std@@@2@XZ ; std::_String_alloc<0,std::_String_base_types<char,std::allocator<char> > >::_Getal
	mov	ecx, eax
	call	?max_size@?$_Wrap_alloc@V?$allocator@D@std@@@std@@QBEIXZ ; std::_Wrap_alloc<std::allocator<char> >::max_size
	mov	DWORD PTR __Num$[ebp], eax

; 1739 : 		return (_Num <= 1 ? 1 : _Num - 1);

	cmp	DWORD PTR __Num$[ebp], 1
	ja	SHORT $LN3@max_size
	mov	DWORD PTR tv75[ebp], 1
	jmp	SHORT $LN4@max_size
$LN3@max_size:
	mov	ecx, DWORD PTR __Num$[ebp]
	sub	ecx, 1
	mov	DWORD PTR tv75[ebp], ecx
$LN4@max_size:
	mov	eax, DWORD PTR tv75[ebp]

; 1740 : 		}

	mov	esp, ebp
	pop	ebp
	ret	0
?max_size@?$basic_string@DU?$char_traits@D@std@@V?$allocator@D@2@@std@@QBEIXZ ENDP ; std::basic_string<char,std::char_traits<char>,std::allocator<char> >::max_size
_TEXT	ENDS
; Function compile flags: /Odtp
; File c:\program files (x86)\microsoft visual studio 11.0\vc\include\xstring
;	COMDAT ?size@?$basic_string@DU?$char_traits@D@std@@V?$allocator@D@2@@std@@QBEIXZ
_TEXT	SEGMENT
_this$ = -4						; size = 4
?size@?$basic_string@DU?$char_traits@D@std@@V?$allocator@D@2@@std@@QBEIXZ PROC ; std::basic_string<char,std::char_traits<char>,std::allocator<char> >::size, COMDAT
; _this$ = ecx

; 1732 : 		{	// return length of sequence

	push	ebp
	mov	ebp, esp
	push	ecx
	mov	DWORD PTR _this$[ebp], ecx

; 1733 : 		return (this->_Mysize);

	mov	eax, DWORD PTR _this$[ebp]
	mov	eax, DWORD PTR [eax+16]

; 1734 : 		}

	mov	esp, ebp
	pop	ebp
	ret	0
?size@?$basic_string@DU?$char_traits@D@std@@V?$allocator@D@2@@std@@QBEIXZ ENDP ; std::basic_string<char,std::char_traits<char>,std::allocator<char> >::size
_TEXT	ENDS
; Function compile flags: /Odtp
; File c:\program files (x86)\microsoft visual studio 11.0\vc\include\xstring
;	COMDAT ?c_str@?$basic_string@DU?$char_traits@D@std@@V?$allocator@D@2@@std@@QBEPBDXZ
_TEXT	SEGMENT
_this$ = -4						; size = 4
?c_str@?$basic_string@DU?$char_traits@D@std@@V?$allocator@D@2@@std@@QBEPBDXZ PROC ; std::basic_string<char,std::char_traits<char>,std::allocator<char> >::c_str, COMDAT
; _this$ = ecx

; 1717 : 		{	// return pointer to null-terminated nonmutable array

	push	ebp
	mov	ebp, esp
	push	ecx
	mov	DWORD PTR _this$[ebp], ecx

; 1718 : 		return (this->_Myptr());

	mov	ecx, DWORD PTR _this$[ebp]
	call	?_Myptr@?$_String_val@U?$_Simple_types@D@std@@@std@@QBEPBDXZ ; std::_String_val<std::_Simple_types<char> >::_Myptr

; 1719 : 		}

	mov	esp, ebp
	pop	ebp
	ret	0
?c_str@?$basic_string@DU?$char_traits@D@std@@V?$allocator@D@2@@std@@QBEPBDXZ ENDP ; std::basic_string<char,std::char_traits<char>,std::allocator<char> >::c_str
_TEXT	ENDS
; Function compile flags: /Odtp
; File c:\program files (x86)\microsoft visual studio 11.0\vc\include\xstring
;	COMDAT ?erase@?$basic_string@DU?$char_traits@D@std@@V?$allocator@D@2@@std@@QAEAAV12@II@Z
_TEXT	SEGMENT
__Newsize$1 = -12					; size = 4
__Ptr$2 = -8						; size = 4
_this$ = -4						; size = 4
__Off$ = 8						; size = 4
__Count$ = 12						; size = 4
?erase@?$basic_string@DU?$char_traits@D@std@@V?$allocator@D@2@@std@@QAEAAV12@II@Z PROC ; std::basic_string<char,std::char_traits<char>,std::allocator<char> >::erase, COMDAT
; _this$ = ecx

; 1317 : 		{	// erase elements [_Off, _Off + _Count)

	push	ebp
	mov	ebp, esp
	sub	esp, 12					; 0000000cH
	mov	DWORD PTR _this$[ebp], ecx

; 1318 : 		if (this->_Mysize < _Off)

	mov	eax, DWORD PTR _this$[ebp]
	mov	ecx, DWORD PTR [eax+16]
	cmp	ecx, DWORD PTR __Off$[ebp]
	jae	SHORT $LN4@erase

; 1319 : 			_Xran();	// _Off off end

	mov	ecx, DWORD PTR _this$[ebp]
	call	?_Xran@?$basic_string@DU?$char_traits@D@std@@V?$allocator@D@2@@std@@QBEXXZ ; std::basic_string<char,std::char_traits<char>,std::allocator<char> >::_Xran
$LN4@erase:

; 1320 : 		if (this->_Mysize - _Off <= _Count)

	mov	edx, DWORD PTR _this$[ebp]
	mov	eax, DWORD PTR [edx+16]
	sub	eax, DWORD PTR __Off$[ebp]
	cmp	eax, DWORD PTR __Count$[ebp]
	ja	SHORT $LN3@erase

; 1321 : 			_Eos(_Off);	// erase elements [_Off, ...)

	mov	ecx, DWORD PTR __Off$[ebp]
	push	ecx
	mov	ecx, DWORD PTR _this$[ebp]
	call	?_Eos@?$basic_string@DU?$char_traits@D@std@@V?$allocator@D@2@@std@@QAEXI@Z ; std::basic_string<char,std::char_traits<char>,std::allocator<char> >::_Eos
	jmp	SHORT $LN2@erase
$LN3@erase:

; 1322 : 		else if (0 < _Count)

	cmp	DWORD PTR __Count$[ebp], 0
	jbe	SHORT $LN2@erase

; 1323 : 			{	// move elements down
; 1324 : 			value_type *_Ptr = this->_Myptr() + _Off;

	mov	ecx, DWORD PTR _this$[ebp]
	call	?_Myptr@?$_String_val@U?$_Simple_types@D@std@@@std@@QAEPADXZ ; std::_String_val<std::_Simple_types<char> >::_Myptr
	add	eax, DWORD PTR __Off$[ebp]
	mov	DWORD PTR __Ptr$2[ebp], eax

; 1325 : 			size_type _Newsize = this->_Mysize - _Count;

	mov	edx, DWORD PTR _this$[ebp]
	mov	eax, DWORD PTR [edx+16]
	sub	eax, DWORD PTR __Count$[ebp]
	mov	DWORD PTR __Newsize$1[ebp], eax

; 1326 : 			_Traits::move(_Ptr, _Ptr + _Count, _Newsize - _Off);

	mov	ecx, DWORD PTR __Newsize$1[ebp]
	sub	ecx, DWORD PTR __Off$[ebp]
	push	ecx
	mov	edx, DWORD PTR __Ptr$2[ebp]
	add	edx, DWORD PTR __Count$[ebp]
	push	edx
	mov	eax, DWORD PTR __Ptr$2[ebp]
	push	eax
	call	?move@?$char_traits@D@std@@SAPADPADPBDI@Z ; std::char_traits<char>::move
	add	esp, 12					; 0000000cH

; 1327 : 			_Eos(_Newsize);

	mov	ecx, DWORD PTR __Newsize$1[ebp]
	push	ecx
	mov	ecx, DWORD PTR _this$[ebp]
	call	?_Eos@?$basic_string@DU?$char_traits@D@std@@V?$allocator@D@2@@std@@QAEXI@Z ; std::basic_string<char,std::char_traits<char>,std::allocator<char> >::_Eos
$LN2@erase:

; 1328 : 			}
; 1329 : 		return (*this);

	mov	eax, DWORD PTR _this$[ebp]
$LN6@erase:

; 1330 : 		}

	mov	esp, ebp
	pop	ebp
	ret	8
?erase@?$basic_string@DU?$char_traits@D@std@@V?$allocator@D@2@@std@@QAEAAV12@II@Z ENDP ; std::basic_string<char,std::char_traits<char>,std::allocator<char> >::erase
_TEXT	ENDS
; Function compile flags: /Odtp
; File c:\program files (x86)\microsoft visual studio 11.0\vc\include\xstring
;	COMDAT ?erase@?$basic_string@DU?$char_traits@D@std@@V?$allocator@D@2@@std@@QAEAAV12@I@Z
_TEXT	SEGMENT
_this$ = -4						; size = 4
__Off$ = 8						; size = 4
?erase@?$basic_string@DU?$char_traits@D@std@@V?$allocator@D@2@@std@@QAEAAV12@I@Z PROC ; std::basic_string<char,std::char_traits<char>,std::allocator<char> >::erase, COMDAT
; _this$ = ecx

; 1309 : 		{	// erase elements [_Off, ...)

	push	ebp
	mov	ebp, esp
	push	ecx
	mov	DWORD PTR _this$[ebp], ecx

; 1310 : 		if (this->_Mysize < _Off)

	mov	eax, DWORD PTR _this$[ebp]
	mov	ecx, DWORD PTR [eax+16]
	cmp	ecx, DWORD PTR __Off$[ebp]
	jae	SHORT $LN1@erase

; 1311 : 			_Xran();	// _Off off end

	mov	ecx, DWORD PTR _this$[ebp]
	call	?_Xran@?$basic_string@DU?$char_traits@D@std@@V?$allocator@D@2@@std@@QBEXXZ ; std::basic_string<char,std::char_traits<char>,std::allocator<char> >::_Xran
$LN1@erase:

; 1312 : 		_Eos(_Off);

	mov	edx, DWORD PTR __Off$[ebp]
	push	edx
	mov	ecx, DWORD PTR _this$[ebp]
	call	?_Eos@?$basic_string@DU?$char_traits@D@std@@V?$allocator@D@2@@std@@QAEXI@Z ; std::basic_string<char,std::char_traits<char>,std::allocator<char> >::_Eos

; 1313 : 		return (*this);

	mov	eax, DWORD PTR _this$[ebp]
$LN3@erase:

; 1314 : 		}

	mov	esp, ebp
	pop	ebp
	ret	4
?erase@?$basic_string@DU?$char_traits@D@std@@V?$allocator@D@2@@std@@QAEAAV12@I@Z ENDP ; std::basic_string<char,std::char_traits<char>,std::allocator<char> >::erase
_TEXT	ENDS
; Function compile flags: /Odtp
; File c:\program files (x86)\microsoft visual studio 11.0\vc\include\xstring
;	COMDAT ?assign@?$basic_string@DU?$char_traits@D@std@@V?$allocator@D@2@@std@@QAEAAV12@PBD@Z
_TEXT	SEGMENT
_this$ = -4						; size = 4
__Ptr$ = 8						; size = 4
?assign@?$basic_string@DU?$char_traits@D@std@@V?$allocator@D@2@@std@@QAEAAV12@PBD@Z PROC ; std::basic_string<char,std::char_traits<char>,std::allocator<char> >::assign, COMDAT
; _this$ = ecx

; 1142 : 		{	// assign [_Ptr, <null>)

	push	ebp
	mov	ebp, esp
	push	ecx
	mov	DWORD PTR _this$[ebp], ecx

; 1143 : 		_DEBUG_POINTER(_Ptr);
; 1144 : 		return (assign(_Ptr, _Traits::length(_Ptr)));

	mov	eax, DWORD PTR __Ptr$[ebp]
	push	eax
	call	?length@?$char_traits@D@std@@SAIPBD@Z	; std::char_traits<char>::length
	add	esp, 4
	push	eax
	mov	ecx, DWORD PTR __Ptr$[ebp]
	push	ecx
	mov	ecx, DWORD PTR _this$[ebp]
	call	?assign@?$basic_string@DU?$char_traits@D@std@@V?$allocator@D@2@@std@@QAEAAV12@PBDI@Z ; std::basic_string<char,std::char_traits<char>,std::allocator<char> >::assign

; 1145 : 		}

	mov	esp, ebp
	pop	ebp
	ret	4
?assign@?$basic_string@DU?$char_traits@D@std@@V?$allocator@D@2@@std@@QAEAAV12@PBD@Z ENDP ; std::basic_string<char,std::char_traits<char>,std::allocator<char> >::assign
_TEXT	ENDS
; Function compile flags: /Odtp
; File c:\program files (x86)\microsoft visual studio 11.0\vc\include\xstring
;	COMDAT ?assign@?$basic_string@DU?$char_traits@D@std@@V?$allocator@D@2@@std@@QAEAAV12@PBDI@Z
_TEXT	SEGMENT
_this$ = -4						; size = 4
__Ptr$ = 8						; size = 4
__Count$ = 12						; size = 4
?assign@?$basic_string@DU?$char_traits@D@std@@V?$allocator@D@2@@std@@QAEAAV12@PBDI@Z PROC ; std::basic_string<char,std::char_traits<char>,std::allocator<char> >::assign, COMDAT
; _this$ = ecx

; 1123 : 		{	// assign [_Ptr, _Ptr + _Count)

	push	ebp
	mov	ebp, esp
	push	ecx
	mov	DWORD PTR _this$[ebp], ecx

; 1124 :  #if _ITERATOR_DEBUG_LEVEL == 2
; 1125 : 		if (_Count != 0)
; 1126 : 			_DEBUG_POINTER(_Ptr);
; 1127 :  #endif /* _ITERATOR_DEBUG_LEVEL == 2 */
; 1128 : 
; 1129 : 		if (_Inside(_Ptr))

	mov	eax, DWORD PTR __Ptr$[ebp]
	push	eax
	mov	ecx, DWORD PTR _this$[ebp]
	call	?_Inside@?$basic_string@DU?$char_traits@D@std@@V?$allocator@D@2@@std@@QAE_NPBD@Z ; std::basic_string<char,std::char_traits<char>,std::allocator<char> >::_Inside
	movzx	ecx, al
	test	ecx, ecx
	je	SHORT $LN2@assign

; 1130 : 			return (assign(*this,
; 1131 : 				_Ptr - this->_Myptr(), _Count));	// substring

	mov	edx, DWORD PTR __Count$[ebp]
	push	edx
	mov	ecx, DWORD PTR _this$[ebp]
	call	?_Myptr@?$_String_val@U?$_Simple_types@D@std@@@std@@QAEPADXZ ; std::_String_val<std::_Simple_types<char> >::_Myptr
	mov	ecx, DWORD PTR __Ptr$[ebp]
	sub	ecx, eax
	push	ecx
	mov	edx, DWORD PTR _this$[ebp]
	push	edx
	mov	ecx, DWORD PTR _this$[ebp]
	call	?assign@?$basic_string@DU?$char_traits@D@std@@V?$allocator@D@2@@std@@QAEAAV12@ABV12@II@Z ; std::basic_string<char,std::char_traits<char>,std::allocator<char> >::assign
	jmp	SHORT $LN3@assign
$LN2@assign:

; 1132 : 
; 1133 : 		if (_Grow(_Count))

	push	0
	mov	eax, DWORD PTR __Count$[ebp]
	push	eax
	mov	ecx, DWORD PTR _this$[ebp]
	call	?_Grow@?$basic_string@DU?$char_traits@D@std@@V?$allocator@D@2@@std@@QAE_NI_N@Z ; std::basic_string<char,std::char_traits<char>,std::allocator<char> >::_Grow
	movzx	ecx, al
	test	ecx, ecx
	je	SHORT $LN1@assign

; 1134 : 			{	// make room and assign new stuff
; 1135 : 			_Traits::copy(this->_Myptr(), _Ptr, _Count);

	mov	edx, DWORD PTR __Count$[ebp]
	push	edx
	mov	eax, DWORD PTR __Ptr$[ebp]
	push	eax
	mov	ecx, DWORD PTR _this$[ebp]
	call	?_Myptr@?$_String_val@U?$_Simple_types@D@std@@@std@@QAEPADXZ ; std::_String_val<std::_Simple_types<char> >::_Myptr
	push	eax
	call	?copy@?$char_traits@D@std@@SAPADPADPBDI@Z ; std::char_traits<char>::copy
	add	esp, 12					; 0000000cH

; 1136 : 			_Eos(_Count);

	mov	ecx, DWORD PTR __Count$[ebp]
	push	ecx
	mov	ecx, DWORD PTR _this$[ebp]
	call	?_Eos@?$basic_string@DU?$char_traits@D@std@@V?$allocator@D@2@@std@@QAEXI@Z ; std::basic_string<char,std::char_traits<char>,std::allocator<char> >::_Eos
$LN1@assign:

; 1137 : 			}
; 1138 : 		return (*this);

	mov	eax, DWORD PTR _this$[ebp]
$LN3@assign:

; 1139 : 		}

	mov	esp, ebp
	pop	ebp
	ret	8
?assign@?$basic_string@DU?$char_traits@D@std@@V?$allocator@D@2@@std@@QAEAAV12@PBDI@Z ENDP ; std::basic_string<char,std::char_traits<char>,std::allocator<char> >::assign
_TEXT	ENDS
; Function compile flags: /Odtp
; File c:\program files (x86)\microsoft visual studio 11.0\vc\include\xstring
;	COMDAT ?assign@?$basic_string@DU?$char_traits@D@std@@V?$allocator@D@2@@std@@QAEAAV12@ABV12@II@Z
_TEXT	SEGMENT
__Num$ = -8						; size = 4
_this$ = -4						; size = 4
__Right$ = 8						; size = 4
__Roff$ = 12						; size = 4
__Count$ = 16						; size = 4
?assign@?$basic_string@DU?$char_traits@D@std@@V?$allocator@D@2@@std@@QAEAAV12@ABV12@II@Z PROC ; std::basic_string<char,std::char_traits<char>,std::allocator<char> >::assign, COMDAT
; _this$ = ecx

; 1104 : 		{	// assign _Right [_Roff, _Roff + _Count)

	push	ebp
	mov	ebp, esp
	sub	esp, 8
	mov	DWORD PTR _this$[ebp], ecx

; 1105 : 		if (_Right.size() < _Roff)

	mov	ecx, DWORD PTR __Right$[ebp]
	call	?size@?$basic_string@DU?$char_traits@D@std@@V?$allocator@D@2@@std@@QBEIXZ ; std::basic_string<char,std::char_traits<char>,std::allocator<char> >::size
	cmp	eax, DWORD PTR __Roff$[ebp]
	jae	SHORT $LN5@assign

; 1106 : 			_Xran();	// _Roff off end

	mov	ecx, DWORD PTR _this$[ebp]
	call	?_Xran@?$basic_string@DU?$char_traits@D@std@@V?$allocator@D@2@@std@@QBEXXZ ; std::basic_string<char,std::char_traits<char>,std::allocator<char> >::_Xran
$LN5@assign:

; 1107 : 		size_type _Num = _Right.size() - _Roff;

	mov	ecx, DWORD PTR __Right$[ebp]
	call	?size@?$basic_string@DU?$char_traits@D@std@@V?$allocator@D@2@@std@@QBEIXZ ; std::basic_string<char,std::char_traits<char>,std::allocator<char> >::size
	sub	eax, DWORD PTR __Roff$[ebp]
	mov	DWORD PTR __Num$[ebp], eax

; 1108 : 		if (_Count < _Num)

	mov	eax, DWORD PTR __Count$[ebp]
	cmp	eax, DWORD PTR __Num$[ebp]
	jae	SHORT $LN4@assign

; 1109 : 			_Num = _Count;	// trim _Num to size

	mov	ecx, DWORD PTR __Count$[ebp]
	mov	DWORD PTR __Num$[ebp], ecx
$LN4@assign:

; 1110 : 
; 1111 : 		if (this == &_Right)

	mov	edx, DWORD PTR _this$[ebp]
	cmp	edx, DWORD PTR __Right$[ebp]
	jne	SHORT $LN3@assign

; 1112 : 			erase((size_type)(_Roff + _Num)), erase(0, _Roff);	// substring

	mov	eax, DWORD PTR __Roff$[ebp]
	add	eax, DWORD PTR __Num$[ebp]
	push	eax
	mov	ecx, DWORD PTR _this$[ebp]
	call	?erase@?$basic_string@DU?$char_traits@D@std@@V?$allocator@D@2@@std@@QAEAAV12@I@Z ; std::basic_string<char,std::char_traits<char>,std::allocator<char> >::erase
	mov	ecx, DWORD PTR __Roff$[ebp]
	push	ecx
	push	0
	mov	ecx, DWORD PTR _this$[ebp]
	call	?erase@?$basic_string@DU?$char_traits@D@std@@V?$allocator@D@2@@std@@QAEAAV12@II@Z ; std::basic_string<char,std::char_traits<char>,std::allocator<char> >::erase
	jmp	SHORT $LN2@assign
$LN3@assign:

; 1113 : 		else if (_Grow(_Num))

	push	0
	mov	edx, DWORD PTR __Num$[ebp]
	push	edx
	mov	ecx, DWORD PTR _this$[ebp]
	call	?_Grow@?$basic_string@DU?$char_traits@D@std@@V?$allocator@D@2@@std@@QAE_NI_N@Z ; std::basic_string<char,std::char_traits<char>,std::allocator<char> >::_Grow
	movzx	eax, al
	test	eax, eax
	je	SHORT $LN2@assign

; 1114 : 			{	// make room and assign new stuff
; 1115 : 			_Traits::copy(this->_Myptr(),
; 1116 : 				_Right._Myptr() + _Roff, _Num);

	mov	ecx, DWORD PTR __Num$[ebp]
	push	ecx
	mov	ecx, DWORD PTR __Right$[ebp]
	call	?_Myptr@?$_String_val@U?$_Simple_types@D@std@@@std@@QBEPBDXZ ; std::_String_val<std::_Simple_types<char> >::_Myptr
	add	eax, DWORD PTR __Roff$[ebp]
	push	eax
	mov	ecx, DWORD PTR _this$[ebp]
	call	?_Myptr@?$_String_val@U?$_Simple_types@D@std@@@std@@QAEPADXZ ; std::_String_val<std::_Simple_types<char> >::_Myptr
	push	eax
	call	?copy@?$char_traits@D@std@@SAPADPADPBDI@Z ; std::char_traits<char>::copy
	add	esp, 12					; 0000000cH

; 1117 : 			_Eos(_Num);

	mov	edx, DWORD PTR __Num$[ebp]
	push	edx
	mov	ecx, DWORD PTR _this$[ebp]
	call	?_Eos@?$basic_string@DU?$char_traits@D@std@@V?$allocator@D@2@@std@@QAEXI@Z ; std::basic_string<char,std::char_traits<char>,std::allocator<char> >::_Eos
$LN2@assign:

; 1118 : 			}
; 1119 : 		return (*this);

	mov	eax, DWORD PTR _this$[ebp]
$LN7@assign:

; 1120 : 		}

	mov	esp, ebp
	pop	ebp
	ret	12					; 0000000cH
?assign@?$basic_string@DU?$char_traits@D@std@@V?$allocator@D@2@@std@@QAEAAV12@ABV12@II@Z ENDP ; std::basic_string<char,std::char_traits<char>,std::allocator<char> >::assign
_TEXT	ENDS
; Function compile flags: /Odtp
; File c:\program files (x86)\microsoft visual studio 11.0\vc\include\xstring
;	COMDAT ??1?$basic_string@DU?$char_traits@D@std@@V?$allocator@D@2@@std@@QAE@XZ
_TEXT	SEGMENT
_this$ = -4						; size = 4
??1?$basic_string@DU?$char_traits@D@std@@V?$allocator@D@2@@std@@QAE@XZ PROC ; std::basic_string<char,std::char_traits<char>,std::allocator<char> >::~basic_string<char,std::char_traits<char>,std::allocator<char> >, COMDAT
; _this$ = ecx

; 963  : 		{	// destroy the string

	push	ebp
	mov	ebp, esp
	push	ecx
	mov	DWORD PTR _this$[ebp], ecx

; 964  : 		_Tidy(true);

	push	0
	push	1
	mov	ecx, DWORD PTR _this$[ebp]
	call	?_Tidy@?$basic_string@DU?$char_traits@D@std@@V?$allocator@D@2@@std@@QAEX_NI@Z ; std::basic_string<char,std::char_traits<char>,std::allocator<char> >::_Tidy

; 965  : 		}

	mov	esp, ebp
	pop	ebp
	ret	0
??1?$basic_string@DU?$char_traits@D@std@@V?$allocator@D@2@@std@@QAE@XZ ENDP ; std::basic_string<char,std::char_traits<char>,std::allocator<char> >::~basic_string<char,std::char_traits<char>,std::allocator<char> >
_TEXT	ENDS
; Function compile flags: /Odtp
; File c:\program files (x86)\microsoft visual studio 11.0\vc\include\xstring
;	COMDAT ??0?$basic_string@DU?$char_traits@D@std@@V?$allocator@D@2@@std@@QAE@PBD@Z
_TEXT	SEGMENT
_this$ = -8						; size = 4
$T1 = -1						; size = 1
__Ptr$ = 8						; size = 4
??0?$basic_string@DU?$char_traits@D@std@@V?$allocator@D@2@@std@@QAE@PBD@Z PROC ; std::basic_string<char,std::char_traits<char>,std::allocator<char> >::basic_string<char,std::char_traits<char>,std::allocator<char> >, COMDAT
; _this$ = ecx

; 791  : 		{	// construct from [_Ptr, <null>)

	push	ebp
	mov	ebp, esp
	sub	esp, 8
	mov	DWORD PTR _this$[ebp], ecx
	lea	ecx, DWORD PTR $T1[ebp]
	call	??0?$allocator@D@std@@QAE@XZ		; std::allocator<char>::allocator<char>
	push	eax
	mov	ecx, DWORD PTR _this$[ebp]
	call	??0?$_String_alloc@$0A@U?$_String_base_types@DV?$allocator@D@std@@@std@@@std@@QAE@ABV?$allocator@D@1@@Z ; std::_String_alloc<0,std::_String_base_types<char,std::allocator<char> > >::_String_alloc<0,std::_String_base_types<char,std::allocator<char> > >

; 792  : 		_Tidy();

	push	0
	push	0
	mov	ecx, DWORD PTR _this$[ebp]
	call	?_Tidy@?$basic_string@DU?$char_traits@D@std@@V?$allocator@D@2@@std@@QAEX_NI@Z ; std::basic_string<char,std::char_traits<char>,std::allocator<char> >::_Tidy

; 793  : 		assign(_Ptr);

	mov	eax, DWORD PTR __Ptr$[ebp]
	push	eax
	mov	ecx, DWORD PTR _this$[ebp]
	call	?assign@?$basic_string@DU?$char_traits@D@std@@V?$allocator@D@2@@std@@QAEAAV12@PBD@Z ; std::basic_string<char,std::char_traits<char>,std::allocator<char> >::assign

; 794  : 		}

	mov	eax, DWORD PTR _this$[ebp]
	mov	esp, ebp
	pop	ebp
	ret	4
??0?$basic_string@DU?$char_traits@D@std@@V?$allocator@D@2@@std@@QAE@PBD@Z ENDP ; std::basic_string<char,std::char_traits<char>,std::allocator<char> >::basic_string<char,std::char_traits<char>,std::allocator<char> >
_TEXT	ENDS
; Function compile flags: /Odtp
; File c:\program files (x86)\microsoft visual studio 11.0\vc\include\xstring
;	COMDAT ?_Getal@?$_String_alloc@$0A@U?$_String_base_types@DV?$allocator@D@std@@@std@@@std@@QBE?AU?$_Wrap_alloc@V?$allocator@D@std@@@2@XZ
_TEXT	SEGMENT
_this$ = -4						; size = 4
___$ReturnUdt$ = 8					; size = 4
?_Getal@?$_String_alloc@$0A@U?$_String_base_types@DV?$allocator@D@std@@@std@@@std@@QBE?AU?$_Wrap_alloc@V?$allocator@D@std@@@2@XZ PROC ; std::_String_alloc<0,std::_String_base_types<char,std::allocator<char> > >::_Getal, COMDAT
; _this$ = ecx

; 688  : 		{	// get reference to allocator

	push	ebp
	mov	ebp, esp
	push	ecx
	mov	DWORD PTR _this$[ebp], ecx

; 689  : 		return (_Alty());

	mov	ecx, DWORD PTR ___$ReturnUdt$[ebp]
	call	??0?$_Wrap_alloc@V?$allocator@D@std@@@std@@QAE@XZ ; std::_Wrap_alloc<std::allocator<char> >::_Wrap_alloc<std::allocator<char> >
	mov	eax, DWORD PTR ___$ReturnUdt$[ebp]

; 690  : 		}

	mov	esp, ebp
	pop	ebp
	ret	4
?_Getal@?$_String_alloc@$0A@U?$_String_base_types@DV?$allocator@D@std@@@std@@@std@@QBE?AU?$_Wrap_alloc@V?$allocator@D@std@@@2@XZ ENDP ; std::_String_alloc<0,std::_String_base_types<char,std::allocator<char> > >::_Getal
_TEXT	ENDS
; Function compile flags: /Odtp
; File c:\program files (x86)\microsoft visual studio 11.0\vc\include\xstring
;	COMDAT ??0?$_String_alloc@$0A@U?$_String_base_types@DV?$allocator@D@std@@@std@@@std@@QAE@ABV?$allocator@D@1@@Z
_TEXT	SEGMENT
_this$ = -4						; size = 4
___formal$ = 8						; size = 4
??0?$_String_alloc@$0A@U?$_String_base_types@DV?$allocator@D@std@@@std@@@std@@QAE@ABV?$allocator@D@1@@Z PROC ; std::_String_alloc<0,std::_String_base_types<char,std::allocator<char> > >::_String_alloc<0,std::_String_base_types<char,std::allocator<char> > >, COMDAT
; _this$ = ecx

; 635  : 	_String_alloc(const _Alloc& = _Alloc())

	push	ebp
	mov	ebp, esp
	push	ecx
	mov	DWORD PTR _this$[ebp], ecx
	mov	ecx, DWORD PTR _this$[ebp]
	call	??0?$_String_val@U?$_Simple_types@D@std@@@std@@QAE@XZ ; std::_String_val<std::_Simple_types<char> >::_String_val<std::_Simple_types<char> >

; 636  : 		{	// construct allocator from _Al
; 637  : 		}

	mov	eax, DWORD PTR _this$[ebp]
	mov	esp, ebp
	pop	ebp
	ret	4
??0?$_String_alloc@$0A@U?$_String_base_types@DV?$allocator@D@std@@@std@@@std@@QAE@ABV?$allocator@D@1@@Z ENDP ; std::_String_alloc<0,std::_String_base_types<char,std::allocator<char> > >::_String_alloc<0,std::_String_base_types<char,std::allocator<char> > >
_TEXT	ENDS
; Function compile flags: /Odtp
; File c:\program files (x86)\microsoft visual studio 11.0\vc\include\xstring
;	COMDAT ?_Myptr@?$_String_val@U?$_Simple_types@D@std@@@std@@QBEPBDXZ
_TEXT	SEGMENT
tv72 = -8						; size = 4
_this$ = -4						; size = 4
?_Myptr@?$_String_val@U?$_Simple_types@D@std@@@std@@QBEPBDXZ PROC ; std::_String_val<std::_Simple_types<char> >::_Myptr, COMDAT
; _this$ = ecx

; 521  : 		{	// determine current pointer to buffer for nonmutable string

	push	ebp
	mov	ebp, esp
	sub	esp, 8
	mov	DWORD PTR _this$[ebp], ecx

; 522  : 		return (this->_BUF_SIZE <= this->_Myres
; 523  : 			? _STD addressof(*this->_Bx._Ptr)
; 524  : 			: this->_Bx._Buf);

	mov	eax, DWORD PTR _this$[ebp]
	cmp	DWORD PTR [eax+20], 16			; 00000010H
	jb	SHORT $LN3@Myptr
	mov	ecx, DWORD PTR _this$[ebp]
	mov	edx, DWORD PTR [ecx]
	push	edx
	call	??$addressof@D@std@@YAPADAAD@Z		; std::addressof<char>
	add	esp, 4
	mov	DWORD PTR tv72[ebp], eax
	jmp	SHORT $LN4@Myptr
$LN3@Myptr:
	mov	eax, DWORD PTR _this$[ebp]
	mov	DWORD PTR tv72[ebp], eax
$LN4@Myptr:
	mov	eax, DWORD PTR tv72[ebp]

; 525  : 		}

	mov	esp, ebp
	pop	ebp
	ret	0
?_Myptr@?$_String_val@U?$_Simple_types@D@std@@@std@@QBEPBDXZ ENDP ; std::_String_val<std::_Simple_types<char> >::_Myptr
_TEXT	ENDS
; Function compile flags: /Odtp
; File c:\program files (x86)\microsoft visual studio 11.0\vc\include\xstring
;	COMDAT ?_Myptr@?$_String_val@U?$_Simple_types@D@std@@@std@@QAEPADXZ
_TEXT	SEGMENT
tv72 = -8						; size = 4
_this$ = -4						; size = 4
?_Myptr@?$_String_val@U?$_Simple_types@D@std@@@std@@QAEPADXZ PROC ; std::_String_val<std::_Simple_types<char> >::_Myptr, COMDAT
; _this$ = ecx

; 514  : 		{	// determine current pointer to buffer for mutable string

	push	ebp
	mov	ebp, esp
	sub	esp, 8
	mov	DWORD PTR _this$[ebp], ecx

; 515  : 		return (this->_BUF_SIZE <= this->_Myres
; 516  : 			? _STD addressof(*this->_Bx._Ptr)
; 517  : 			: this->_Bx._Buf);

	mov	eax, DWORD PTR _this$[ebp]
	cmp	DWORD PTR [eax+20], 16			; 00000010H
	jb	SHORT $LN3@Myptr
	mov	ecx, DWORD PTR _this$[ebp]
	mov	edx, DWORD PTR [ecx]
	push	edx
	call	??$addressof@D@std@@YAPADAAD@Z		; std::addressof<char>
	add	esp, 4
	mov	DWORD PTR tv72[ebp], eax
	jmp	SHORT $LN4@Myptr
$LN3@Myptr:
	mov	eax, DWORD PTR _this$[ebp]
	mov	DWORD PTR tv72[ebp], eax
$LN4@Myptr:
	mov	eax, DWORD PTR tv72[ebp]

; 518  : 		}

	mov	esp, ebp
	pop	ebp
	ret	0
?_Myptr@?$_String_val@U?$_Simple_types@D@std@@@std@@QAEPADXZ ENDP ; std::_String_val<std::_Simple_types<char> >::_Myptr
_TEXT	ENDS
; Function compile flags: /Odtp
; File c:\program files (x86)\microsoft visual studio 11.0\vc\include\xstring
;	COMDAT ??0?$_String_val@U?$_Simple_types@D@std@@@std@@QAE@XZ
_TEXT	SEGMENT
_this$ = -4						; size = 4
??0?$_String_val@U?$_Simple_types@D@std@@@std@@QAE@XZ PROC ; std::_String_val<std::_Simple_types<char> >::_String_val<std::_Simple_types<char> >, COMDAT
; _this$ = ecx

; 496  : 	_String_val()

	push	ebp
	mov	ebp, esp
	push	ecx
	mov	DWORD PTR _this$[ebp], ecx

; 497  : 		{	// initialize values
; 498  : 		_Mysize = 0;

	mov	eax, DWORD PTR _this$[ebp]
	mov	DWORD PTR [eax+16], 0

; 499  : 		_Myres = 0;

	mov	ecx, DWORD PTR _this$[ebp]
	mov	DWORD PTR [ecx+20], 0

; 500  : 		}

	mov	eax, DWORD PTR _this$[ebp]
	mov	esp, ebp
	pop	ebp
	ret	0
??0?$_String_val@U?$_Simple_types@D@std@@@std@@QAE@XZ ENDP ; std::_String_val<std::_Simple_types<char> >::_String_val<std::_Simple_types<char> >
_TEXT	ENDS
; Function compile flags: /Odtp
; File c:\program files (x86)\microsoft visual studio 11.0\vc\include\xmemory0
;	COMDAT ?max_size@?$_Wrap_alloc@V?$allocator@D@std@@@std@@QBEIXZ
_TEXT	SEGMENT
_this$ = -4						; size = 4
?max_size@?$_Wrap_alloc@V?$allocator@D@std@@@std@@QBEIXZ PROC ; std::_Wrap_alloc<std::allocator<char> >::max_size, COMDAT
; _this$ = ecx

; 913  : 		{	// get maximum size

	push	ebp
	mov	ebp, esp
	push	ecx
	mov	DWORD PTR _this$[ebp], ecx

; 914  : 		return (_Mytraits::max_size(*this));

	mov	eax, DWORD PTR _this$[ebp]
	push	eax
	call	?max_size@?$allocator_traits@V?$allocator@D@std@@@std@@SAIABV?$allocator@D@2@@Z ; std::allocator_traits<std::allocator<char> >::max_size
	add	esp, 4

; 915  : 		}

	mov	esp, ebp
	pop	ebp
	ret	0
?max_size@?$_Wrap_alloc@V?$allocator@D@std@@@std@@QBEIXZ ENDP ; std::_Wrap_alloc<std::allocator<char> >::max_size
_TEXT	ENDS
; Function compile flags: /Odtp
; File c:\program files (x86)\microsoft visual studio 11.0\vc\include\xmemory0
;	COMDAT ?deallocate@?$_Wrap_alloc@V?$allocator@D@std@@@std@@QAEXPADI@Z
_TEXT	SEGMENT
_this$ = -4						; size = 4
__Ptr$ = 8						; size = 4
__Count$ = 12						; size = 4
?deallocate@?$_Wrap_alloc@V?$allocator@D@std@@@std@@QAEXPADI@Z PROC ; std::_Wrap_alloc<std::allocator<char> >::deallocate, COMDAT
; _this$ = ecx

; 886  : 		{	// deallocate object at _Ptr, ignore size

	push	ebp
	mov	ebp, esp
	push	ecx
	mov	DWORD PTR _this$[ebp], ecx

; 887  : 		_Mybase::deallocate(_Ptr, _Count);

	mov	eax, DWORD PTR __Count$[ebp]
	push	eax
	mov	ecx, DWORD PTR __Ptr$[ebp]
	push	ecx
	mov	ecx, DWORD PTR _this$[ebp]
	call	?deallocate@?$allocator@D@std@@QAEXPADI@Z ; std::allocator<char>::deallocate

; 888  : 		}

	mov	esp, ebp
	pop	ebp
	ret	8
?deallocate@?$_Wrap_alloc@V?$allocator@D@std@@@std@@QAEXPADI@Z ENDP ; std::_Wrap_alloc<std::allocator<char> >::deallocate
_TEXT	ENDS
; Function compile flags: /Odtp
; File c:\program files (x86)\microsoft visual studio 11.0\vc\include\xmemory0
;	COMDAT ?allocate@?$_Wrap_alloc@V?$allocator@D@std@@@std@@QAEPADI@Z
_TEXT	SEGMENT
_this$ = -4						; size = 4
__Count$ = 8						; size = 4
?allocate@?$_Wrap_alloc@V?$allocator@D@std@@@std@@QAEPADI@Z PROC ; std::_Wrap_alloc<std::allocator<char> >::allocate, COMDAT
; _this$ = ecx

; 875  : 		{	// allocate array of _Count elements

	push	ebp
	mov	ebp, esp
	push	ecx
	mov	DWORD PTR _this$[ebp], ecx

; 876  : 		return (_Mybase::allocate(_Count));

	mov	eax, DWORD PTR __Count$[ebp]
	push	eax
	mov	ecx, DWORD PTR _this$[ebp]
	call	?allocate@?$allocator@D@std@@QAEPADI@Z	; std::allocator<char>::allocate

; 877  : 		}

	mov	esp, ebp
	pop	ebp
	ret	4
?allocate@?$_Wrap_alloc@V?$allocator@D@std@@@std@@QAEPADI@Z ENDP ; std::_Wrap_alloc<std::allocator<char> >::allocate
_TEXT	ENDS
; Function compile flags: /Odtp
; File c:\program files (x86)\microsoft visual studio 11.0\vc\include\xmemory0
;	COMDAT ??0?$_Wrap_alloc@V?$allocator@D@std@@@std@@QAE@XZ
_TEXT	SEGMENT
_this$ = -4						; size = 4
??0?$_Wrap_alloc@V?$allocator@D@std@@@std@@QAE@XZ PROC	; std::_Wrap_alloc<std::allocator<char> >::_Wrap_alloc<std::allocator<char> >, COMDAT
; _this$ = ecx

; 830  : 		{	// construct default allocator (do nothing)

	push	ebp
	mov	ebp, esp
	push	ecx
	mov	DWORD PTR _this$[ebp], ecx
	mov	ecx, DWORD PTR _this$[ebp]
	call	??0?$allocator@D@std@@QAE@XZ		; std::allocator<char>::allocator<char>

; 831  : 		}

	mov	eax, DWORD PTR _this$[ebp]
	mov	esp, ebp
	pop	ebp
	ret	0
??0?$_Wrap_alloc@V?$allocator@D@std@@@std@@QAE@XZ ENDP	; std::_Wrap_alloc<std::allocator<char> >::_Wrap_alloc<std::allocator<char> >
_TEXT	ENDS
; Function compile flags: /Odtp
; File c:\program files (x86)\microsoft visual studio 11.0\vc\include\xmemory0
;	COMDAT ?max_size@?$allocator_traits@V?$allocator@D@std@@@std@@SAIABV?$allocator@D@2@@Z
_TEXT	SEGMENT
__Al$ = 8						; size = 4
?max_size@?$allocator_traits@V?$allocator@D@std@@@std@@SAIABV?$allocator@D@2@@Z PROC ; std::allocator_traits<std::allocator<char> >::max_size, COMDAT

; 761  : 		{	// get maximum size

	push	ebp
	mov	ebp, esp

; 762  : 		return (_Al.max_size());

	mov	ecx, DWORD PTR __Al$[ebp]
	call	?max_size@?$allocator@D@std@@QBEIXZ	; std::allocator<char>::max_size

; 763  : 		}

	pop	ebp
	ret	0
?max_size@?$allocator_traits@V?$allocator@D@std@@@std@@SAIABV?$allocator@D@2@@Z ENDP ; std::allocator_traits<std::allocator<char> >::max_size
_TEXT	ENDS
; Function compile flags: /Odtp
; File c:\program files (x86)\microsoft visual studio 11.0\vc\include\xmemory0
;	COMDAT ?max_size@?$allocator@D@std@@QBEIXZ
_TEXT	SEGMENT
_this$ = -4						; size = 4
?max_size@?$allocator@D@std@@QBEIXZ PROC		; std::allocator<char>::max_size, COMDAT
; _this$ = ecx

; 627  : 		{	// estimate maximum array size

	push	ebp
	mov	ebp, esp
	push	ecx
	mov	DWORD PTR _this$[ebp], ecx

; 628  : 		return ((size_t)(-1) / sizeof (_Ty));

	or	eax, -1

; 629  : 		}

	mov	esp, ebp
	pop	ebp
	ret	0
?max_size@?$allocator@D@std@@QBEIXZ ENDP		; std::allocator<char>::max_size
_TEXT	ENDS
; Function compile flags: /Odtp
; File c:\program files (x86)\microsoft visual studio 11.0\vc\include\xmemory0
;	COMDAT ?allocate@?$allocator@D@std@@QAEPADI@Z
_TEXT	SEGMENT
_this$ = -4						; size = 4
__Count$ = 8						; size = 4
?allocate@?$allocator@D@std@@QAEPADI@Z PROC		; std::allocator<char>::allocate, COMDAT
; _this$ = ecx

; 590  : 		{	// allocate array of _Count elements

	push	ebp
	mov	ebp, esp
	push	ecx
	mov	DWORD PTR _this$[ebp], ecx

; 591  : 		return (_Allocate(_Count, (pointer)0));

	push	0
	mov	eax, DWORD PTR __Count$[ebp]
	push	eax
	call	??$_Allocate@D@std@@YAPADIPAD@Z		; std::_Allocate<char>
	add	esp, 8

; 592  : 		}

	mov	esp, ebp
	pop	ebp
	ret	4
?allocate@?$allocator@D@std@@QAEPADI@Z ENDP		; std::allocator<char>::allocate
_TEXT	ENDS
; Function compile flags: /Odtp
; File c:\program files (x86)\microsoft visual studio 11.0\vc\include\xmemory0
;	COMDAT ?deallocate@?$allocator@D@std@@QAEXPADI@Z
_TEXT	SEGMENT
_this$ = -4						; size = 4
__Ptr$ = 8						; size = 4
___formal$ = 12						; size = 4
?deallocate@?$allocator@D@std@@QAEXPADI@Z PROC		; std::allocator<char>::deallocate, COMDAT
; _this$ = ecx

; 585  : 		{	// deallocate object at _Ptr, ignore size

	push	ebp
	mov	ebp, esp
	push	ecx
	mov	DWORD PTR _this$[ebp], ecx

; 586  : 		::operator delete(_Ptr);

	mov	eax, DWORD PTR __Ptr$[ebp]
	push	eax
	call	??3@YAXPAX@Z				; operator delete
	add	esp, 4

; 587  : 		}

	mov	esp, ebp
	pop	ebp
	ret	8
?deallocate@?$allocator@D@std@@QAEXPADI@Z ENDP		; std::allocator<char>::deallocate
_TEXT	ENDS
; Function compile flags: /Odtp
; File c:\program files (x86)\microsoft visual studio 11.0\vc\include\xmemory0
;	COMDAT ??0?$allocator@D@std@@QAE@XZ
_TEXT	SEGMENT
_this$ = -4						; size = 4
??0?$allocator@D@std@@QAE@XZ PROC			; std::allocator<char>::allocator<char>, COMDAT
; _this$ = ecx

; 565  : 	allocator() _THROW0()

	push	ebp
	mov	ebp, esp
	push	ecx
	mov	DWORD PTR _this$[ebp], ecx

; 566  : 		{	// construct default allocator (do nothing)
; 567  : 		}

	mov	eax, DWORD PTR _this$[ebp]
	mov	esp, ebp
	pop	ebp
	ret	0
??0?$allocator@D@std@@QAE@XZ ENDP			; std::allocator<char>::allocator<char>
_TEXT	ENDS
; Function compile flags: /Odtp
;	COMDAT ??_Glogic_error@std@@UAEPAXI@Z
_TEXT	SEGMENT
_this$ = -4						; size = 4
___flags$ = 8						; size = 4
??_Glogic_error@std@@UAEPAXI@Z PROC			; std::logic_error::`scalar deleting destructor', COMDAT
; _this$ = ecx
	push	ebp
	mov	ebp, esp
	push	ecx
	mov	DWORD PTR _this$[ebp], ecx
	mov	ecx, DWORD PTR _this$[ebp]
	call	??1logic_error@std@@UAE@XZ
	mov	eax, DWORD PTR ___flags$[ebp]
	and	eax, 1
	je	SHORT $LN1@scalar
	mov	ecx, DWORD PTR _this$[ebp]
	push	ecx
	call	??3@YAXPAX@Z				; operator delete
	add	esp, 4
$LN1@scalar:
	mov	eax, DWORD PTR _this$[ebp]
	mov	esp, ebp
	pop	ebp
	ret	4
??_Glogic_error@std@@UAEPAXI@Z ENDP			; std::logic_error::`scalar deleting destructor'
_TEXT	ENDS
; Function compile flags: /Odtp
;	COMDAT ??0logic_error@std@@QAE@ABV01@@Z
_TEXT	SEGMENT
_this$ = -4						; size = 4
___that$ = 8						; size = 4
??0logic_error@std@@QAE@ABV01@@Z PROC			; std::logic_error::logic_error, COMDAT
; _this$ = ecx
	push	ebp
	mov	ebp, esp
	push	ecx
	mov	DWORD PTR _this$[ebp], ecx
	mov	eax, DWORD PTR ___that$[ebp]
	push	eax
	mov	ecx, DWORD PTR _this$[ebp]
	call	??0exception@std@@QAE@ABV01@@Z		; std::exception::exception
	mov	ecx, DWORD PTR _this$[ebp]
	mov	DWORD PTR [ecx], OFFSET ??_7logic_error@std@@6B@
	mov	eax, DWORD PTR _this$[ebp]
	mov	esp, ebp
	pop	ebp
	ret	4
??0logic_error@std@@QAE@ABV01@@Z ENDP			; std::logic_error::logic_error
_TEXT	ENDS
; Function compile flags: /Odtp
;	COMDAT ??1logic_error@std@@UAE@XZ
_TEXT	SEGMENT
_this$ = -4						; size = 4
??1logic_error@std@@UAE@XZ PROC				; std::logic_error::~logic_error, COMDAT
; _this$ = ecx
	push	ebp
	mov	ebp, esp
	push	ecx
	mov	DWORD PTR _this$[ebp], ecx
	mov	ecx, DWORD PTR _this$[ebp]
	call	??1exception@std@@UAE@XZ		; std::exception::~exception
	mov	esp, ebp
	pop	ebp
	ret	0
??1logic_error@std@@UAE@XZ ENDP				; std::logic_error::~logic_error
_TEXT	ENDS
; Function compile flags: /Odtp
; File c:\program files (x86)\microsoft visual studio 11.0\vc\include\stdexcept
;	COMDAT ??0logic_error@std@@QAE@PBD@Z
_TEXT	SEGMENT
_this$ = -4						; size = 4
__Message$ = 8						; size = 4
??0logic_error@std@@QAE@PBD@Z PROC			; std::logic_error::logic_error, COMDAT
; _this$ = ecx

; 38   : 		{	// construct from message string

	push	ebp
	mov	ebp, esp
	push	ecx
	mov	DWORD PTR _this$[ebp], ecx
	lea	eax, DWORD PTR __Message$[ebp]
	push	eax
	mov	ecx, DWORD PTR _this$[ebp]
	call	??0exception@std@@QAE@ABQBD@Z		; std::exception::exception
	mov	ecx, DWORD PTR _this$[ebp]
	mov	DWORD PTR [ecx], OFFSET ??_7logic_error@std@@6B@

; 39   : 		}

	mov	eax, DWORD PTR _this$[ebp]
	mov	esp, ebp
	pop	ebp
	ret	4
??0logic_error@std@@QAE@PBD@Z ENDP			; std::logic_error::logic_error
_TEXT	ENDS
; Function compile flags: /Odtp
; File c:\program files (x86)\microsoft visual studio 11.0\vc\include\xutility
;	COMDAT ??__Eallocator_arg@std@@YAXXZ
text$yc	SEGMENT
$T1 = -1						; size = 1
??__Eallocator_arg@std@@YAXXZ PROC			; std::`dynamic initializer for 'allocator_arg'', COMDAT

; 3644 : const allocator_arg_t allocator_arg = allocator_arg_t();

	push	ebp
	mov	ebp, esp
	push	ecx
	xor	eax, eax
	mov	BYTE PTR $T1[ebp], al
	mov	esp, ebp
	pop	ebp
	ret	0
??__Eallocator_arg@std@@YAXXZ ENDP			; std::`dynamic initializer for 'allocator_arg''
text$yc	ENDS
; Function compile flags: /Odtp
; File c:\program files (x86)\microsoft visual studio 11.0\vc\include\utility
;	COMDAT ??__Epiecewise_construct@std@@YAXXZ
text$yc	SEGMENT
$T1 = -1						; size = 1
??__Epiecewise_construct@std@@YAXXZ PROC		; std::`dynamic initializer for 'piecewise_construct'', COMDAT

; 65   : 	piecewise_construct_t();

	push	ebp
	mov	ebp, esp
	push	ecx
	xor	eax, eax
	mov	BYTE PTR $T1[ebp], al
	mov	esp, ebp
	pop	ebp
	ret	0
??__Epiecewise_construct@std@@YAXXZ ENDP		; std::`dynamic initializer for 'piecewise_construct''
text$yc	ENDS
; Function compile flags: /Odtp
; File c:\program files (x86)\microsoft visual studio 11.0\vc\include\iosfwd
;	COMDAT ?assign@?$char_traits@D@std@@SAXAADABD@Z
_TEXT	SEGMENT
__Left$ = 8						; size = 4
__Right$ = 12						; size = 4
?assign@?$char_traits@D@std@@SAXAADABD@Z PROC		; std::char_traits<char>::assign, COMDAT

; 563  : 		{	// assign an element

	push	ebp
	mov	ebp, esp

; 564  : 		_Left = _Right;

	mov	eax, DWORD PTR __Left$[ebp]
	mov	ecx, DWORD PTR __Right$[ebp]
	mov	dl, BYTE PTR [ecx]
	mov	BYTE PTR [eax], dl

; 565  : 		}

	pop	ebp
	ret	0
?assign@?$char_traits@D@std@@SAXAADABD@Z ENDP		; std::char_traits<char>::assign
_TEXT	ENDS
; Function compile flags: /Odtp
; File c:\program files (x86)\microsoft visual studio 11.0\vc\include\iosfwd
;	COMDAT ?move@?$char_traits@D@std@@SAPADPADPBDI@Z
_TEXT	SEGMENT
tv69 = -4						; size = 4
__First1$ = 8						; size = 4
__First2$ = 12						; size = 4
__Count$ = 16						; size = 4
?move@?$char_traits@D@std@@SAPADPADPBDI@Z PROC		; std::char_traits<char>::move, COMDAT

; 551  : 		{	// copy [_First2, _First2 + _Count) to [_First1, ...)

	push	ebp
	mov	ebp, esp
	push	ecx

; 552  : 		return (_Count == 0 ? _First1
; 553  : 			: (_Elem *)_CSTD memmove(_First1, _First2, _Count));

	cmp	DWORD PTR __Count$[ebp], 0
	jne	SHORT $LN3@move
	mov	eax, DWORD PTR __First1$[ebp]
	mov	DWORD PTR tv69[ebp], eax
	jmp	SHORT $LN4@move
$LN3@move:
	mov	ecx, DWORD PTR __Count$[ebp]
	push	ecx
	mov	edx, DWORD PTR __First2$[ebp]
	push	edx
	mov	eax, DWORD PTR __First1$[ebp]
	push	eax
	call	_memmove
	add	esp, 12					; 0000000cH
	mov	DWORD PTR tv69[ebp], eax
$LN4@move:
	mov	eax, DWORD PTR tv69[ebp]

; 554  : 		}

	mov	esp, ebp
	pop	ebp
	ret	0
?move@?$char_traits@D@std@@SAPADPADPBDI@Z ENDP		; std::char_traits<char>::move
_TEXT	ENDS
; Function compile flags: /Odtp
; File c:\program files (x86)\microsoft visual studio 11.0\vc\include\iosfwd
;	COMDAT ?copy@?$char_traits@D@std@@SAPADPADPBDI@Z
_TEXT	SEGMENT
tv69 = -4						; size = 4
__First1$ = 8						; size = 4
__First2$ = 12						; size = 4
__Count$ = 16						; size = 4
?copy@?$char_traits@D@std@@SAPADPADPBDI@Z PROC		; std::char_traits<char>::copy, COMDAT

; 528  : 		{	// copy [_First2, _First2 + _Count) to [_First1, ...)

	push	ebp
	mov	ebp, esp
	push	ecx

; 529  : 		return (_Count == 0 ? _First1
; 530  : 			: (_Elem *)_CSTD memcpy(_First1, _First2, _Count));

	cmp	DWORD PTR __Count$[ebp], 0
	jne	SHORT $LN3@copy
	mov	eax, DWORD PTR __First1$[ebp]
	mov	DWORD PTR tv69[ebp], eax
	jmp	SHORT $LN4@copy
$LN3@copy:
	mov	ecx, DWORD PTR __Count$[ebp]
	push	ecx
	mov	edx, DWORD PTR __First2$[ebp]
	push	edx
	mov	eax, DWORD PTR __First1$[ebp]
	push	eax
	call	_memcpy
	add	esp, 12					; 0000000cH
	mov	DWORD PTR tv69[ebp], eax
$LN4@copy:
	mov	eax, DWORD PTR tv69[ebp]

; 531  : 		}

	mov	esp, ebp
	pop	ebp
	ret	0
?copy@?$char_traits@D@std@@SAPADPADPBDI@Z ENDP		; std::char_traits<char>::copy
_TEXT	ENDS
; Function compile flags: /Odtp
; File c:\program files (x86)\microsoft visual studio 11.0\vc\include\iosfwd
;	COMDAT ?length@?$char_traits@D@std@@SAIPBD@Z
_TEXT	SEGMENT
tv68 = -4						; size = 4
__First$ = 8						; size = 4
?length@?$char_traits@D@std@@SAIPBD@Z PROC		; std::char_traits<char>::length, COMDAT

; 521  : 		{	// find length of null-terminated string

	push	ebp
	mov	ebp, esp
	push	ecx

; 522  : 		return (*_First == 0 ? 0
; 523  : 			: _CSTD strlen(_First));

	mov	eax, DWORD PTR __First$[ebp]
	movsx	ecx, BYTE PTR [eax]
	test	ecx, ecx
	jne	SHORT $LN3@length
	mov	DWORD PTR tv68[ebp], 0
	jmp	SHORT $LN4@length
$LN3@length:
	mov	edx, DWORD PTR __First$[ebp]
	push	edx
	call	_strlen
	add	esp, 4
	mov	DWORD PTR tv68[ebp], eax
$LN4@length:
	mov	eax, DWORD PTR tv68[ebp]

; 524  : 		}

	mov	esp, ebp
	pop	ebp
	ret	0
?length@?$char_traits@D@std@@SAIPBD@Z ENDP		; std::char_traits<char>::length
_TEXT	ENDS
; Function compile flags: /Odtp
; File c:\program files (x86)\microsoft visual studio 11.0\vc\include\new
;	COMDAT ??3@YAXPAX0@Z
_TEXT	SEGMENT
___formal$ = 8						; size = 4
___formal$ = 12						; size = 4
??3@YAXPAX0@Z PROC					; operator delete, COMDAT

; 64   : 	{	// delete if placement new fails

	push	ebp
	mov	ebp, esp

; 65   : 	}

	pop	ebp
	ret	0
??3@YAXPAX0@Z ENDP					; operator delete
_TEXT	ENDS
; Function compile flags: /Odtp
; File c:\program files (x86)\microsoft visual studio 11.0\vc\include\new
;	COMDAT ??2@YAPAXIPAX@Z
_TEXT	SEGMENT
___formal$ = 8						; size = 4
__Where$ = 12						; size = 4
??2@YAPAXIPAX@Z PROC					; operator new, COMDAT

; 59   : 	{	// construct array with placement at _Where

	push	ebp
	mov	ebp, esp

; 60   : 	return (_Where);

	mov	eax, DWORD PTR __Where$[ebp]

; 61   : 	}

	pop	ebp
	ret	0
??2@YAPAXIPAX@Z ENDP					; operator new
_TEXT	ENDS
; Function compile flags: /Odtp
;	COMDAT ??_GVuEntity@@MAEPAXI@Z
_TEXT	SEGMENT
_this$ = -4						; size = 4
___flags$ = 8						; size = 4
??_GVuEntity@@MAEPAXI@Z PROC				; VuEntity::`scalar deleting destructor', COMDAT
; _this$ = ecx
	push	ebp
	mov	ebp, esp
	push	ecx
	mov	DWORD PTR _this$[ebp], ecx
	mov	ecx, DWORD PTR _this$[ebp]
	call	??1VuEntity@@MAE@XZ			; VuEntity::~VuEntity
	mov	eax, DWORD PTR ___flags$[ebp]
	and	eax, 1
	je	SHORT $LN1@scalar
	mov	ecx, DWORD PTR _this$[ebp]
	push	ecx
	call	??3@YAXPAX@Z				; operator delete
	add	esp, 4
$LN1@scalar:
	mov	eax, DWORD PTR _this$[ebp]
	mov	esp, ebp
	pop	ebp
	ret	4
??_GVuEntity@@MAEPAXI@Z ENDP				; VuEntity::`scalar deleting destructor'
_TEXT	ENDS
; Function compile flags: /Odtp
; File c:\users\zhitao li\documents\visual studio 2012\projects\freefalcon\vu2\src\vuentity.cpp
_TEXT	SEGMENT
$T1 = -16						; size = 4
_lock$ = -12						; size = 4
_this$ = -8						; size = 4
tv71 = -2						; size = 2
?UnRef@VuEntity@@AAEHXZ PROC				; VuEntity::UnRef
; _this$ = ecx

; 771  : int VuEntity::UnRef(){

	push	ebp
	mov	ebp, esp
	sub	esp, 16					; 00000010H
	mov	DWORD PTR _this$[ebp], ecx

; 772  : 	VuScopeLock lock(eMutex_);

	mov	eax, DWORD PTR _this$[ebp]
	mov	ecx, DWORD PTR [eax+88]
	push	ecx
	lea	ecx, DWORD PTR _lock$[ebp]
	call	??0VuScopeLock@@QAE@PAX@Z		; VuScopeLock::VuScopeLock

; 773  : 	return --refcount_;

	mov	edx, DWORD PTR _this$[ebp]
	mov	ax, WORD PTR [edx+84]
	sub	ax, 1
	mov	WORD PTR tv71[ebp], ax
	mov	ecx, DWORD PTR _this$[ebp]
	mov	dx, WORD PTR tv71[ebp]
	mov	WORD PTR [ecx+84], dx
	movzx	eax, WORD PTR tv71[ebp]
	mov	DWORD PTR $T1[ebp], eax
	lea	ecx, DWORD PTR _lock$[ebp]
	call	??1VuScopeLock@@QAE@XZ			; VuScopeLock::~VuScopeLock
	mov	eax, DWORD PTR $T1[ebp]

; 774  : }

	mov	esp, ebp
	pop	ebp
	ret	0
?UnRef@VuEntity@@AAEHXZ ENDP				; VuEntity::UnRef
_TEXT	ENDS
; Function compile flags: /Odtp
; File c:\users\zhitao li\documents\visual studio 2012\projects\freefalcon\vu2\src\vuentity.cpp
_TEXT	SEGMENT
$T1 = -16						; size = 4
_lock$ = -12						; size = 4
_this$ = -8						; size = 4
tv71 = -2						; size = 2
?Ref@VuEntity@@AAEHXZ PROC				; VuEntity::Ref
; _this$ = ecx

; 766  : int VuEntity::Ref(){

	push	ebp
	mov	ebp, esp
	sub	esp, 16					; 00000010H
	mov	DWORD PTR _this$[ebp], ecx

; 767  : 	VuScopeLock lock(eMutex_);

	mov	eax, DWORD PTR _this$[ebp]
	mov	ecx, DWORD PTR [eax+88]
	push	ecx
	lea	ecx, DWORD PTR _lock$[ebp]
	call	??0VuScopeLock@@QAE@PAX@Z		; VuScopeLock::VuScopeLock

; 768  : 	return ++refcount_;

	mov	edx, DWORD PTR _this$[ebp]
	mov	ax, WORD PTR [edx+84]
	add	ax, 1
	mov	WORD PTR tv71[ebp], ax
	mov	ecx, DWORD PTR _this$[ebp]
	mov	dx, WORD PTR tv71[ebp]
	mov	WORD PTR [ecx+84], dx
	movzx	eax, WORD PTR tv71[ebp]
	mov	DWORD PTR $T1[ebp], eax
	lea	ecx, DWORD PTR _lock$[ebp]
	call	??1VuScopeLock@@QAE@XZ			; VuScopeLock::~VuScopeLock
	mov	eax, DWORD PTR $T1[ebp]

; 769  : }

	mov	esp, ebp
	pop	ebp
	ret	0
?Ref@VuEntity@@AAEHXZ ENDP				; VuEntity::Ref
_TEXT	ENDS
; Function compile flags: /Odtp
;	COMDAT ??0ShareData@VuEntity@@QAE@XZ
_TEXT	SEGMENT
_this$ = -4						; size = 4
??0ShareData@VuEntity@@QAE@XZ PROC			; VuEntity::ShareData::ShareData, COMDAT
; _this$ = ecx
	push	ebp
	mov	ebp, esp
	push	ecx
	mov	DWORD PTR _this$[ebp], ecx
	mov	ecx, DWORD PTR _this$[ebp]
	add	ecx, 8
	call	??0VU_ID@@QAE@XZ			; VU_ID::VU_ID
	mov	ecx, DWORD PTR _this$[ebp]
	add	ecx, 16					; 00000010H
	call	??0VU_ID@@QAE@XZ			; VU_ID::VU_ID
	mov	ecx, DWORD PTR _this$[ebp]
	add	ecx, 24					; 00000018H
	call	??0VU_ID@@QAE@XZ			; VU_ID::VU_ID
	mov	eax, DWORD PTR _this$[ebp]
	mov	esp, ebp
	pop	ebp
	ret	0
??0ShareData@VuEntity@@QAE@XZ ENDP			; VuEntity::ShareData::ShareData
_TEXT	ENDS
; Function compile flags: /Odtp
; File c:\users\zhitao li\documents\visual studio 2012\projects\freefalcon\vu2\src\vuentity.cpp
_TEXT	SEGMENT
_this$ = -4						; size = 4
?LocalSize@VuEntity@@AAEHXZ PROC			; VuEntity::LocalSize
; _this$ = ecx

; 442  : int VuEntity::LocalSize(){

	push	ebp
	mov	ebp, esp
	push	ecx
	mov	DWORD PTR _this$[ebp], ecx

; 443  :   return(VUENTITY_LOCALSIZE);

	mov	eax, 78					; 0000004eH

; 444  : }

	mov	esp, ebp
	pop	ebp
	ret	0
?LocalSize@VuEntity@@AAEHXZ ENDP			; VuEntity::LocalSize
_TEXT	ENDS
; Function compile flags: /Odtp
; File c:\users\zhitao li\documents\visual studio 2012\projects\freefalcon\vu2\src\vuentity.cpp
_TEXT	SEGMENT
_this$ = -4						; size = 4
?RemovalCallback@VuEntity@@MAEHXZ PROC			; VuEntity::RemovalCallback
; _this$ = ecx

; 516  : VU_ERRCODE VuEntity::RemovalCallback(){

	push	ebp
	mov	ebp, esp
	push	ecx
	mov	DWORD PTR _this$[ebp], ecx

; 517  : 	return VU_NO_OP;

	xor	eax, eax

; 518  : }

	mov	esp, ebp
	pop	ebp
	ret	0
?RemovalCallback@VuEntity@@MAEHXZ ENDP			; VuEntity::RemovalCallback
_TEXT	ENDS
; Function compile flags: /Odtp
; File c:\users\zhitao li\documents\visual studio 2012\projects\freefalcon\vu2\src\vuentity.cpp
_TEXT	SEGMENT
_this$ = -4						; size = 4
?InsertionCallback@VuEntity@@MAEHXZ PROC		; VuEntity::InsertionCallback
; _this$ = ecx

; 512  : VU_ERRCODE VuEntity::InsertionCallback(){

	push	ebp
	mov	ebp, esp
	push	ecx
	mov	DWORD PTR _this$[ebp], ecx

; 513  : 	return VU_NO_OP;

	xor	eax, eax

; 514  : }

	mov	esp, ebp
	pop	ebp
	ret	0
?InsertionCallback@VuEntity@@MAEHXZ ENDP		; VuEntity::InsertionCallback
_TEXT	ENDS
; Function compile flags: /Odtp
; File c:\users\zhitao li\documents\visual studio 2012\projects\freefalcon\vu2\include\vuentity.h
;	COMDAT ?SetVuState@VuEntity@@IAEXW4VU_MEM@@@Z
_TEXT	SEGMENT
_this$ = -4						; size = 4
_newState$ = 8						; size = 4
?SetVuState@VuEntity@@IAEXW4VU_MEM@@@Z PROC		; VuEntity::SetVuState, COMDAT
; _this$ = ecx

; 229  : 	void SetVuState(VU_MEM newState){ vuState_ = newState; }

	push	ebp
	mov	ebp, esp
	push	ecx
	mov	DWORD PTR _this$[ebp], ecx
	mov	eax, DWORD PTR _this$[ebp]
	mov	ecx, DWORD PTR _newState$[ebp]
	mov	DWORD PTR [eax+92], ecx
	mov	esp, ebp
	pop	ebp
	ret	4
?SetVuState@VuEntity@@IAEXW4VU_MEM@@@Z ENDP		; VuEntity::SetVuState
_TEXT	ENDS
; Function compile flags: /Odtp
; File c:\users\zhitao li\documents\visual studio 2012\projects\freefalcon\vu2\src\vuentity.cpp
_TEXT	SEGMENT
tv73 = -16						; size = 4
$T1 = -12						; size = 4
$T2 = -8						; size = 4
_this$ = -4						; size = 4
??1VuEntity@@MAE@XZ PROC				; VuEntity::~VuEntity
; _this$ = ecx

; 182  : {

	push	ebp
	mov	ebp, esp
	sub	esp, 16					; 00000010H
	mov	DWORD PTR _this$[ebp], ecx
	mov	eax, DWORD PTR _this$[ebp]
	mov	DWORD PTR [eax], OFFSET ??_7VuEntity@@6B@

; 183  : 	vuState_ = VU_MEM_DELETED;

	mov	ecx, DWORD PTR _this$[ebp]
	mov	DWORD PTR [ecx+92], 221			; 000000ddH

; 184  : 	// delete the driver
; 185  : 	delete driver_;

	mov	edx, DWORD PTR _this$[ebp]
	mov	eax, DWORD PTR [edx+116]
	mov	DWORD PTR $T1[ebp], eax
	mov	ecx, DWORD PTR $T1[ebp]
	mov	DWORD PTR $T2[ebp], ecx
	cmp	DWORD PTR $T2[ebp], 0
	je	SHORT $LN3@VuEntity
	push	1
	mov	edx, DWORD PTR $T2[ebp]
	mov	eax, DWORD PTR [edx]
	mov	ecx, DWORD PTR $T2[ebp]
	mov	edx, DWORD PTR [eax]
	call	edx
	mov	DWORD PTR tv73[ebp], eax
	jmp	SHORT $LN4@VuEntity
$LN3@VuEntity:
	mov	DWORD PTR tv73[ebp], 0
$LN4@VuEntity:

; 186  : 	VuxDestroyMutex(eMutex_);

	mov	eax, DWORD PTR _this$[ebp]
	mov	ecx, DWORD PTR [eax+88]
	push	ecx
	call	?VuxDestroyMutex@@YAXPAX@Z		; VuxDestroyMutex
	add	esp, 4

; 187  : }

	mov	esp, ebp
	pop	ebp
	ret	0
??1VuEntity@@MAE@XZ ENDP				; VuEntity::~VuEntity
_TEXT	ENDS
; Function compile flags: /Odtp
; File c:\users\zhitao li\documents\visual studio 2012\projects\freefalcon\vu2\src\vuentity.cpp
_TEXT	SEGMENT
_this$ = -4						; size = 4
___formal$ = 8						; size = 4
?Handle@VuEntity@@UAEHPAVVuSessionEvent@@@Z PROC	; VuEntity::Handle
; _this$ = ecx

; 662  : {

	push	ebp
	mov	ebp, esp
	push	ecx
	mov	DWORD PTR _this$[ebp], ecx

; 663  :   // default does nothing
; 664  :   return VU_NO_OP;

	xor	eax, eax

; 665  : }

	mov	esp, ebp
	pop	ebp
	ret	4
?Handle@VuEntity@@UAEHPAVVuSessionEvent@@@Z ENDP	; VuEntity::Handle
_TEXT	ENDS
; Function compile flags: /Odtp
; File c:\users\zhitao li\documents\visual studio 2012\projects\freefalcon\vu2\src\vuentity.cpp
_TEXT	SEGMENT
_this$ = -4						; size = 4
_event$ = 8						; size = 4
?Handle@VuEntity@@UAEHPAVVuTransferEvent@@@Z PROC	; VuEntity::Handle
; _this$ = ecx

; 655  : {

	push	ebp
	mov	ebp, esp
	push	ecx
	mov	DWORD PTR _this$[ebp], ecx

; 656  :   SetOwnerId(event->newOwnerId_);

	mov	eax, DWORD PTR _event$[ebp]
	mov	ecx, DWORD PTR [eax+52]
	push	ecx
	mov	edx, DWORD PTR [eax+48]
	push	edx
	mov	ecx, DWORD PTR _this$[ebp]
	call	?SetOwnerId@VuEntity@@QAEXVVU_ID@@@Z	; VuEntity::SetOwnerId

; 657  :   return VU_SUCCESS;

	mov	eax, 1

; 658  : }

	mov	esp, ebp
	pop	ebp
	ret	4
?Handle@VuEntity@@UAEHPAVVuTransferEvent@@@Z ENDP	; VuEntity::Handle
_TEXT	ENDS
; Function compile flags: /Odtp
; File c:\users\zhitao li\documents\visual studio 2012\projects\freefalcon\vu2\src\vuentity.cpp
_TEXT	SEGMENT
_this$ = -4						; size = 4
___formal$ = 8						; size = 4
?Handle@VuEntity@@UAEHPAVVuEntityCollisionEvent@@@Z PROC ; VuEntity::Handle
; _this$ = ecx

; 648  : {

	push	ebp
	mov	ebp, esp
	push	ecx
	mov	DWORD PTR _this$[ebp], ecx

; 649  :   // default implementation stub
; 650  :   return VU_NO_OP;

	xor	eax, eax

; 651  : }

	mov	esp, ebp
	pop	ebp
	ret	4
?Handle@VuEntity@@UAEHPAVVuEntityCollisionEvent@@@Z ENDP ; VuEntity::Handle
_TEXT	ENDS
; Function compile flags: /Odtp
; File c:\users\zhitao li\documents\visual studio 2012\projects\freefalcon\vu2\src\vuentity.cpp
_TEXT	SEGMENT
_this$ = -4						; size = 4
_event$ = 8						; size = 4
?Handle@VuEntity@@UAEHPAVVuPositionUpdateEvent@@@Z PROC	; VuEntity::Handle
; _this$ = ecx

; 637  : {

	push	ebp
	mov	ebp, esp
	push	ecx
	mov	DWORD PTR _this$[ebp], ecx

; 638  : 	if ((driver_ == NULL) || (driver_->Handle(event) <= 0)) {

	mov	eax, DWORD PTR _this$[ebp]
	cmp	DWORD PTR [eax+116], 0
	je	SHORT $LN1@Handle
	mov	ecx, DWORD PTR _event$[ebp]
	push	ecx
	mov	edx, DWORD PTR _this$[ebp]
	mov	eax, DWORD PTR [edx+116]
	mov	ecx, DWORD PTR _this$[ebp]
	mov	edx, DWORD PTR [eax]
	mov	ecx, DWORD PTR [ecx+116]
	mov	eax, DWORD PTR [edx+12]
	call	eax
	test	eax, eax
	jg	$LN2@Handle
$LN1@Handle:

; 639  : 		SetPosition(event->x_, event->y_, event->z_);

	mov	ecx, DWORD PTR _event$[ebp]
	push	ecx
	movss	xmm0, DWORD PTR [ecx+71]
	movss	DWORD PTR [esp], xmm0
	mov	edx, DWORD PTR _event$[ebp]
	push	ecx
	movss	xmm0, DWORD PTR [edx+67]
	movss	DWORD PTR [esp], xmm0
	mov	eax, DWORD PTR _event$[ebp]
	push	ecx
	movss	xmm0, DWORD PTR [eax+63]
	movss	DWORD PTR [esp], xmm0
	mov	ecx, DWORD PTR _this$[ebp]
	call	?SetPosition@VuEntity@@QAEXMMM@Z	; VuEntity::SetPosition

; 640  : 		SetDelta(event->dx_, event->dy_, event->dz_);

	mov	ecx, DWORD PTR _event$[ebp]
	push	ecx
	movss	xmm0, DWORD PTR [ecx+83]
	movss	DWORD PTR [esp], xmm0
	mov	edx, DWORD PTR _event$[ebp]
	push	ecx
	movss	xmm0, DWORD PTR [edx+79]
	movss	DWORD PTR [esp], xmm0
	mov	eax, DWORD PTR _event$[ebp]
	push	ecx
	movss	xmm0, DWORD PTR [eax+75]
	movss	DWORD PTR [esp], xmm0
	mov	ecx, DWORD PTR _this$[ebp]
	call	?SetDelta@VuEntity@@QAEXMMM@Z		; VuEntity::SetDelta

; 641  : 		SetYPR(event->yaw_, event->pitch_, event->roll_);

	mov	ecx, DWORD PTR _event$[ebp]
	push	ecx
	movss	xmm0, DWORD PTR [ecx+56]
	movss	DWORD PTR [esp], xmm0
	mov	edx, DWORD PTR _event$[ebp]
	push	ecx
	movss	xmm0, DWORD PTR [edx+52]
	movss	DWORD PTR [esp], xmm0
	mov	eax, DWORD PTR _event$[ebp]
	push	ecx
	movss	xmm0, DWORD PTR [eax+48]
	movss	DWORD PTR [esp], xmm0
	mov	ecx, DWORD PTR _this$[ebp]
	call	?SetYPR@VuEntity@@QAEXMMM@Z		; VuEntity::SetYPR

; 642  : 		SetUpdateTime(vuxGameTime);

	mov	ecx, DWORD PTR ?vuxGameTime@@3KA	; vuxGameTime
	push	ecx
	mov	ecx, DWORD PTR _this$[ebp]
	call	?SetUpdateTime@VuEntity@@QAEXK@Z	; VuEntity::SetUpdateTime
$LN2@Handle:

; 643  : 	}
; 644  : 	return VU_SUCCESS;

	mov	eax, 1

; 645  : }

	mov	esp, ebp
	pop	ebp
	ret	4
?Handle@VuEntity@@UAEHPAVVuPositionUpdateEvent@@@Z ENDP	; VuEntity::Handle
_TEXT	ENDS
; Function compile flags: /Odtp
; File c:\users\zhitao li\documents\visual studio 2012\projects\freefalcon\vu2\src\vuentity.cpp
_TEXT	SEGMENT
_this$ = -4						; size = 4
_event$ = 8						; size = 4
?Handle@VuEntity@@UAEHPAVVuFullUpdateEvent@@@Z PROC	; VuEntity::Handle
; _this$ = ecx

; 621  : VU_ERRCODE VuEntity::Handle(VuFullUpdateEvent* event){

	push	ebp
	mov	ebp, esp
	push	ecx
	push	esi
	push	edi
	mov	DWORD PTR _this$[ebp], ecx

; 622  : 	// default implementation 
; 623  : 	if (driver_) {

	mov	eax, DWORD PTR _this$[ebp]
	cmp	DWORD PTR [eax+116], 0
	je	SHORT $LN4@Handle

; 624  : 		if (driver_->Handle(event) > 0)

	mov	ecx, DWORD PTR _event$[ebp]
	push	ecx
	mov	edx, DWORD PTR _this$[ebp]
	mov	eax, DWORD PTR [edx+116]
	mov	ecx, DWORD PTR _this$[ebp]
	mov	edx, DWORD PTR [eax]
	mov	ecx, DWORD PTR [ecx+116]
	mov	eax, DWORD PTR [edx+16]
	call	eax
	test	eax, eax
	jle	SHORT $LN3@Handle

; 625  : 		return VU_SUCCESS;

	mov	eax, 1
	jmp	$LN5@Handle
$LN3@Handle:

; 626  : 	} 

	jmp	$LN2@Handle
$LN4@Handle:

; 627  : 	else if (event->Entity() && event->Entity() != this) {

	mov	ecx, DWORD PTR _event$[ebp]
	call	?Entity@VuMessage@@QBEPAVVuEntity@@XZ	; VuMessage::Entity
	test	eax, eax
	je	$LN2@Handle
	mov	ecx, DWORD PTR _event$[ebp]
	call	?Entity@VuMessage@@QBEPAVVuEntity@@XZ	; VuMessage::Entity
	cmp	eax, DWORD PTR _this$[ebp]
	je	$LN2@Handle

; 628  : 		share_  = event->Entity()->share_;

	mov	ecx, DWORD PTR _event$[ebp]
	call	?Entity@VuMessage@@QBEPAVVuEntity@@XZ	; VuMessage::Entity
	add	eax, 4
	mov	edi, DWORD PTR _this$[ebp]
	add	edi, 4
	mov	ecx, 8
	mov	esi, eax
	rep movsd

; 629  : 		pos_    = event->Entity()->pos_;

	mov	ecx, DWORD PTR _event$[ebp]
	call	?Entity@VuMessage@@QBEPAVVuEntity@@XZ	; VuMessage::Entity
	add	eax, 36					; 00000024H
	mov	ecx, DWORD PTR _this$[ebp]
	add	ecx, 36					; 00000024H
	mov	edx, DWORD PTR [eax]
	mov	DWORD PTR [ecx], edx
	mov	edx, DWORD PTR [eax+4]
	mov	DWORD PTR [ecx+4], edx
	mov	edx, DWORD PTR [eax+8]
	mov	DWORD PTR [ecx+8], edx
	mov	edx, DWORD PTR [eax+12]
	mov	DWORD PTR [ecx+12], edx
	mov	edx, DWORD PTR [eax+16]
	mov	DWORD PTR [ecx+16], edx
	mov	eax, DWORD PTR [eax+20]
	mov	DWORD PTR [ecx+20], eax

; 630  : 		orient_ = event->Entity()->orient_;

	mov	ecx, DWORD PTR _event$[ebp]
	call	?Entity@VuMessage@@QBEPAVVuEntity@@XZ	; VuMessage::Entity
	add	eax, 60					; 0000003cH
	mov	ecx, DWORD PTR _this$[ebp]
	add	ecx, 60					; 0000003cH
	mov	edx, DWORD PTR [eax]
	mov	DWORD PTR [ecx], edx
	mov	edx, DWORD PTR [eax+4]
	mov	DWORD PTR [ecx+4], edx
	mov	edx, DWORD PTR [eax+8]
	mov	DWORD PTR [ecx+8], edx
	mov	edx, DWORD PTR [eax+12]
	mov	DWORD PTR [ecx+12], edx
	mov	edx, DWORD PTR [eax+16]
	mov	DWORD PTR [ecx+16], edx
	mov	eax, DWORD PTR [eax+20]
	mov	DWORD PTR [ecx+20], eax

; 631  : 		SetUpdateTime(vuxGameTime);

	mov	ecx, DWORD PTR ?vuxGameTime@@3KA	; vuxGameTime
	push	ecx
	mov	ecx, DWORD PTR _this$[ebp]
	call	?SetUpdateTime@VuEntity@@QAEXK@Z	; VuEntity::SetUpdateTime
$LN2@Handle:

; 632  : 	}
; 633  : 	return VU_NO_OP;

	xor	eax, eax
$LN5@Handle:

; 634  : }

	pop	edi
	pop	esi
	mov	esp, ebp
	pop	ebp
	ret	4
?Handle@VuEntity@@UAEHPAVVuFullUpdateEvent@@@Z ENDP	; VuEntity::Handle
_TEXT	ENDS
; Function compile flags: /Odtp
; File c:\users\zhitao li\documents\visual studio 2012\projects\freefalcon\vu2\src\vuentity.cpp
_TEXT	SEGMENT
_this$ = -4						; size = 4
___formal$ = 8						; size = 4
?Handle@VuEntity@@UAEHPAVVuEvent@@@Z PROC		; VuEntity::Handle
; _this$ = ecx

; 616  : {

	push	ebp
	mov	ebp, esp
	push	ecx
	mov	DWORD PTR _this$[ebp], ecx

; 617  : 	// default implementation stub
; 618  : 	return VU_NO_OP;

	xor	eax, eax

; 619  : }

	mov	esp, ebp
	pop	ebp
	ret	4
?Handle@VuEntity@@UAEHPAVVuEvent@@@Z ENDP		; VuEntity::Handle
_TEXT	ENDS
; Function compile flags: /Odtp
; File c:\users\zhitao li\documents\visual studio 2012\projects\freefalcon\vu2\src\vuentity.cpp
_TEXT	SEGMENT
$T2 = -184						; size = 8
$T3 = -176						; size = 8
$T4 = -168						; size = 8
$T5 = -160						; size = 8
$T6 = -152						; size = 8
$T7 = -144						; size = 8
$T8 = -136						; size = 8
$T9 = -128						; size = 8
$T10 = -120						; size = 8
$T11 = -112						; size = 8
$T12 = -104						; size = 8
$T13 = -96						; size = 8
$T14 = -88						; size = 8
$T15 = -80						; size = 4
$T16 = -76						; size = 4
$T17 = -72						; size = 4
$T18 = -68						; size = 4
tv279 = -64						; size = 4
tv215 = -60						; size = 4
$T19 = -56						; size = 4
tv152 = -52						; size = 4
tv254 = -48						; size = 4
$T20 = -44						; size = 4
$T21 = -40						; size = 4
_target$22 = -36					; size = 4
$T23 = -32						; size = 4
_assoc$24 = -28						; size = 4
_resp$ = -24						; size = 4
_sender$ = -20						; size = 4
_this$ = -16						; size = 4
__$EHRec$ = -12						; size = 12
_msg$ = 8						; size = 4
?Handle@VuEntity@@UAEHPAVVuPullRequest@@@Z PROC		; VuEntity::Handle
; _this$ = ecx

; 564  : {

	push	ebp
	mov	ebp, esp
	push	-1
	push	__ehhandler$?Handle@VuEntity@@UAEHPAVVuPullRequest@@@Z
	mov	eax, DWORD PTR fs:0
	push	eax
	sub	esp, 172				; 000000acH
	mov	eax, DWORD PTR ___security_cookie
	xor	eax, ebp
	push	eax
	lea	eax, DWORD PTR __$EHRec$[ebp]
	mov	DWORD PTR fs:0, eax
	mov	DWORD PTR _this$[ebp], ecx

; 565  : 	VuTargetEntity* sender = (VuTargetEntity*)vuDatabase->Find(msg->Sender());

	lea	eax, DWORD PTR $T9[ebp]
	push	eax
	mov	ecx, DWORD PTR _msg$[ebp]
	call	?Sender@VuMessage@@QBE?AVVU_ID@@XZ	; VuMessage::Sender
	mov	ecx, DWORD PTR [eax+4]
	push	ecx
	mov	edx, DWORD PTR [eax]
	push	edx
	mov	ecx, DWORD PTR ?vuDatabase@@3PAVVuDatabase@@A ; vuDatabase
	call	?Find@VuDatabase@@QBEPAVVuEntity@@VVU_ID@@@Z ; VuDatabase::Find
	mov	DWORD PTR _sender$[ebp], eax

; 566  : 	VuMessage*      resp   = 0;

	mov	DWORD PTR _resp$[ebp], 0

; 567  : 
; 568  : 	if (sender) {

	cmp	DWORD PTR _sender$[ebp], 0
	je	$LN9@Handle

; 569  : 		if (sender->IsTarget()) {

	mov	eax, DWORD PTR _sender$[ebp]
	mov	edx, DWORD PTR [eax]
	mov	ecx, DWORD PTR _sender$[ebp]
	mov	eax, DWORD PTR [edx+8]
	call	eax
	movzx	ecx, al
	test	ecx, ecx
	je	$LN9@Handle

; 570  : 
; 571  : 		if (share_.flags_.breakdown_.transfer_ == 0) {

	mov	edx, DWORD PTR _this$[ebp]
	mov	eax, DWORD PTR [edx+8]
	shr	eax, 1
	and	eax, 1
	jne	SHORT $LN7@Handle

; 572  : 			resp = new VuErrorMessage(VU_CANT_TRANSFER_ENTITY_ERROR,
; 573  : 									msg->Sender(), Id(), sender);

	push	56					; 00000038H
	call	??2@YAPAXI@Z				; operator new
	add	esp, 4
	mov	DWORD PTR $T20[ebp], eax
	mov	DWORD PTR __$EHRec$[ebp+8], 0
	cmp	DWORD PTR $T20[ebp], 0
	je	SHORT $LN12@Handle
	mov	ecx, DWORD PTR _sender$[ebp]
	push	ecx
	lea	edx, DWORD PTR $T7[ebp]
	push	edx
	mov	ecx, DWORD PTR _this$[ebp]
	call	?Id@VuEntity@@QBE?AVVU_ID@@XZ		; VuEntity::Id
	mov	ecx, DWORD PTR [eax+4]
	push	ecx
	mov	edx, DWORD PTR [eax]
	push	edx
	lea	eax, DWORD PTR $T11[ebp]
	push	eax
	mov	ecx, DWORD PTR _msg$[ebp]
	call	?Sender@VuMessage@@QBE?AVVU_ID@@XZ	; VuMessage::Sender
	mov	ecx, DWORD PTR [eax+4]
	push	ecx
	mov	edx, DWORD PTR [eax]
	push	edx
	push	4
	mov	ecx, DWORD PTR $T20[ebp]
	call	??0VuErrorMessage@@QAE@HVVU_ID@@0PAVVuTargetEntity@@@Z ; VuErrorMessage::VuErrorMessage
	mov	DWORD PTR tv152[ebp], eax
	jmp	SHORT $LN13@Handle
$LN12@Handle:
	mov	DWORD PTR tv152[ebp], 0
$LN13@Handle:
	mov	eax, DWORD PTR tv152[ebp]
	mov	DWORD PTR $T16[ebp], eax
	mov	DWORD PTR __$EHRec$[ebp+8], -1
	mov	ecx, DWORD PTR $T16[ebp]
	mov	DWORD PTR _resp$[ebp], ecx
	jmp	$LN6@Handle
$LN7@Handle:

; 574  : 		} 
; 575  : 		else if (OwnerId() == vuLocalSession) {

	push	OFFSET ?vuLocalSession@@3VVU_ID@@A	; vuLocalSession
	lea	edx, DWORD PTR $T3[ebp]
	push	edx
	mov	ecx, DWORD PTR _this$[ebp]
	call	?OwnerId@VuEntity@@QBE?AVVU_ID@@XZ	; VuEntity::OwnerId
	mov	ecx, eax
	call	??8VU_ID@@QBE_NABV0@@Z			; VU_ID::operator==
	movzx	eax, al
	test	eax, eax
	je	$LN5@Handle

; 576  : 			VuEntity* assoc = 0;

	mov	DWORD PTR _assoc$24[ebp], 0

; 577  : 			if (Association() != vuNullId &&
; 578  : 				(assoc = vuDatabase->Find(Association())) != 0 &&
; 579  : 				assoc->OwnerId() != msg->Sender()) {

	push	OFFSET ?vuNullId@@3VVU_ID@@A		; vuNullId
	lea	ecx, DWORD PTR $T14[ebp]
	push	ecx
	mov	ecx, DWORD PTR _this$[ebp]
	call	?Association@VuEntity@@QBE?AVVU_ID@@XZ	; VuEntity::Association
	mov	ecx, eax
	call	??9VU_ID@@QBE_NABV0@@Z			; VU_ID::operator!=
	movzx	edx, al
	test	edx, edx
	je	$LN4@Handle
	lea	eax, DWORD PTR $T5[ebp]
	push	eax
	mov	ecx, DWORD PTR _this$[ebp]
	call	?Association@VuEntity@@QBE?AVVU_ID@@XZ	; VuEntity::Association
	mov	ecx, DWORD PTR [eax+4]
	push	ecx
	mov	edx, DWORD PTR [eax]
	push	edx
	mov	ecx, DWORD PTR ?vuDatabase@@3PAVVuDatabase@@A ; vuDatabase
	call	?Find@VuDatabase@@QBEPAVVuEntity@@VVU_ID@@@Z ; VuDatabase::Find
	mov	DWORD PTR _assoc$24[ebp], eax
	cmp	DWORD PTR _assoc$24[ebp], 0
	je	$LN4@Handle
	lea	eax, DWORD PTR $T13[ebp]
	push	eax
	mov	ecx, DWORD PTR _msg$[ebp]
	call	?Sender@VuMessage@@QBE?AVVU_ID@@XZ	; VuMessage::Sender
	push	eax
	lea	ecx, DWORD PTR $T12[ebp]
	push	ecx
	mov	ecx, DWORD PTR _assoc$24[ebp]
	call	?OwnerId@VuEntity@@QBE?AVVU_ID@@XZ	; VuEntity::OwnerId
	mov	ecx, eax
	call	??9VU_ID@@QBE_NABV0@@Z			; VU_ID::operator!=
	movzx	edx, al
	test	edx, edx
	je	SHORT $LN4@Handle

; 580  : 			// entity has association, and target does not manage it
; 581  : 			resp = new VuErrorMessage(VU_TRANSFER_ASSOCIATION_ERROR,
; 582  : 										msg->Sender(), Id(), sender);

	push	56					; 00000038H
	call	??2@YAPAXI@Z				; operator new
	add	esp, 4
	mov	DWORD PTR $T23[ebp], eax
	mov	DWORD PTR __$EHRec$[ebp+8], 1
	cmp	DWORD PTR $T23[ebp], 0
	je	SHORT $LN14@Handle
	mov	eax, DWORD PTR _sender$[ebp]
	push	eax
	lea	ecx, DWORD PTR $T10[ebp]
	push	ecx
	mov	ecx, DWORD PTR _this$[ebp]
	call	?Id@VuEntity@@QBE?AVVU_ID@@XZ		; VuEntity::Id
	mov	edx, DWORD PTR [eax+4]
	push	edx
	mov	eax, DWORD PTR [eax]
	push	eax
	lea	ecx, DWORD PTR $T8[ebp]
	push	ecx
	mov	ecx, DWORD PTR _msg$[ebp]
	call	?Sender@VuMessage@@QBE?AVVU_ID@@XZ	; VuMessage::Sender
	mov	edx, DWORD PTR [eax+4]
	push	edx
	mov	eax, DWORD PTR [eax]
	push	eax
	push	5
	mov	ecx, DWORD PTR $T23[ebp]
	call	??0VuErrorMessage@@QAE@HVVU_ID@@0PAVVuTargetEntity@@@Z ; VuErrorMessage::VuErrorMessage
	mov	DWORD PTR tv215[ebp], eax
	jmp	SHORT $LN15@Handle
$LN14@Handle:
	mov	DWORD PTR tv215[ebp], 0
$LN15@Handle:
	mov	ecx, DWORD PTR tv215[ebp]
	mov	DWORD PTR $T18[ebp], ecx
	mov	DWORD PTR __$EHRec$[ebp+8], -1
	mov	edx, DWORD PTR $T18[ebp]
	mov	DWORD PTR _resp$[ebp], edx

; 583  : 			} 
; 584  : 			else {

	jmp	$LN3@Handle
$LN4@Handle:

; 585  : 			SetOwnerId(msg->Sender());

	lea	eax, DWORD PTR $T6[ebp]
	push	eax
	mov	ecx, DWORD PTR _msg$[ebp]
	call	?Sender@VuMessage@@QBE?AVVU_ID@@XZ	; VuMessage::Sender
	mov	ecx, DWORD PTR [eax+4]
	push	ecx
	mov	edx, DWORD PTR [eax]
	push	edx
	mov	ecx, DWORD PTR _this$[ebp]
	call	?SetOwnerId@VuEntity@@QAEXVVU_ID@@@Z	; VuEntity::SetOwnerId

; 586  : 			// need to make message as SetOwnerId() only generates update if new
; 587  : 			// owner is local
; 588  : 			VuTargetEntity* target = vuGlobalGroup;

	mov	eax, DWORD PTR ?vuGlobalGroup@@3PAVVuGlobalGroup@@A ; vuGlobalGroup
	mov	DWORD PTR _target$22[ebp], eax

; 589  : 
; 590  : 			if (!IsGlobal()){

	mov	ecx, DWORD PTR _this$[ebp]
	call	?IsGlobal@VuEntity@@QBEEXZ		; VuEntity::IsGlobal
	movzx	ecx, al
	test	ecx, ecx
	jne	SHORT $LN2@Handle

; 591  : 				target = vuLocalSessionEntity->Game();

	mov	ecx, OFFSET ?vuLocalSessionEntity@@3V?$VuBin@VVuSessionEntity@@@@A ; vuLocalSessionEntity
	call	??C?$VuBin@VVuSessionEntity@@@@QBEPAVVuSessionEntity@@XZ ; VuBin<VuSessionEntity>::operator->
	mov	ecx, eax
	call	?Game@VuSessionEntity@@QAEPAVVuGameEntity@@XZ ; VuSessionEntity::Game
	mov	DWORD PTR _target$22[ebp], eax
$LN2@Handle:

; 592  : 			}
; 593  : 
; 594  : 			resp = new VuTransferEvent(this, target);

	push	56					; 00000038H
	call	??2@YAPAXI@Z				; operator new
	add	esp, 4
	mov	DWORD PTR $T21[ebp], eax
	mov	DWORD PTR __$EHRec$[ebp+8], 2
	cmp	DWORD PTR $T21[ebp], 0
	je	SHORT $LN16@Handle
	push	0
	mov	edx, DWORD PTR _target$22[ebp]
	push	edx
	mov	eax, DWORD PTR _this$[ebp]
	push	eax
	mov	ecx, DWORD PTR $T21[ebp]
	call	??0VuTransferEvent@@QAE@PAVVuEntity@@PAVVuTargetEntity@@E@Z ; VuTransferEvent::VuTransferEvent
	mov	DWORD PTR tv254[ebp], eax
	jmp	SHORT $LN17@Handle
$LN16@Handle:
	mov	DWORD PTR tv254[ebp], 0
$LN17@Handle:
	mov	ecx, DWORD PTR tv254[ebp]
	mov	DWORD PTR $T17[ebp], ecx
	mov	DWORD PTR __$EHRec$[ebp+8], -1
	mov	edx, DWORD PTR $T17[ebp]
	mov	DWORD PTR _resp$[ebp], edx
$LN3@Handle:

; 595  : 			}
; 596  : 		} 
; 597  : 		else {

	jmp	SHORT $LN6@Handle
$LN5@Handle:

; 598  : 			// we don't manage the entity, so send the error response
; 599  : 			resp = new VuErrorMessage(VU_DONT_MANAGE_ENTITY_ERROR, msg->Sender(), Id(), sender);

	push	56					; 00000038H
	call	??2@YAPAXI@Z				; operator new
	add	esp, 4
	mov	DWORD PTR $T19[ebp], eax
	mov	DWORD PTR __$EHRec$[ebp+8], 3
	cmp	DWORD PTR $T19[ebp], 0
	je	SHORT $LN18@Handle
	mov	eax, DWORD PTR _sender$[ebp]
	push	eax
	lea	ecx, DWORD PTR $T4[ebp]
	push	ecx
	mov	ecx, DWORD PTR _this$[ebp]
	call	?Id@VuEntity@@QBE?AVVU_ID@@XZ		; VuEntity::Id
	mov	edx, DWORD PTR [eax+4]
	push	edx
	mov	eax, DWORD PTR [eax]
	push	eax
	lea	ecx, DWORD PTR $T2[ebp]
	push	ecx
	mov	ecx, DWORD PTR _msg$[ebp]
	call	?Sender@VuMessage@@QBE?AVVU_ID@@XZ	; VuMessage::Sender
	mov	edx, DWORD PTR [eax+4]
	push	edx
	mov	eax, DWORD PTR [eax]
	push	eax
	push	3
	mov	ecx, DWORD PTR $T19[ebp]
	call	??0VuErrorMessage@@QAE@HVVU_ID@@0PAVVuTargetEntity@@@Z ; VuErrorMessage::VuErrorMessage
	mov	DWORD PTR tv279[ebp], eax
	jmp	SHORT $LN19@Handle
$LN18@Handle:
	mov	DWORD PTR tv279[ebp], 0
$LN19@Handle:
	mov	ecx, DWORD PTR tv279[ebp]
	mov	DWORD PTR $T15[ebp], ecx
	mov	DWORD PTR __$EHRec$[ebp+8], -1
	mov	edx, DWORD PTR $T15[ebp]
	mov	DWORD PTR _resp$[ebp], edx
$LN6@Handle:

; 600  : 		}
; 601  : 		resp->RequestReliableTransmit();

	mov	ecx, DWORD PTR _resp$[ebp]
	call	?RequestReliableTransmit@VuMessage@@QAEXXZ ; VuMessage::RequestReliableTransmit

; 602  : 		VuMessageQueue::PostVuMessage(resp);

	mov	eax, DWORD PTR _resp$[ebp]
	push	eax
	call	?PostVuMessage@VuMessageQueue@@SAHPAVVuMessage@@@Z ; VuMessageQueue::PostVuMessage
	add	esp, 4

; 603  : 
; 604  : 		return VU_SUCCESS;

	mov	eax, 1
	jmp	SHORT $LN10@Handle
$LN9@Handle:

; 605  : 		}
; 606  : 	}
; 607  : 	return VU_ERROR;

	or	eax, -1
$LN10@Handle:

; 608  : }

	mov	ecx, DWORD PTR __$EHRec$[ebp]
	mov	DWORD PTR fs:0, ecx
	pop	ecx
	mov	esp, ebp
	pop	ebp
	ret	4
_TEXT	ENDS
text$x	SEGMENT
__unwindfunclet$?Handle@VuEntity@@UAEHPAVVuPullRequest@@@Z$0:
	mov	eax, DWORD PTR $T20[ebp]
	push	eax
	call	??3@YAXPAX@Z				; operator delete
	pop	ecx
	ret	0
__unwindfunclet$?Handle@VuEntity@@UAEHPAVVuPullRequest@@@Z$1:
	mov	eax, DWORD PTR $T23[ebp]
	push	eax
	call	??3@YAXPAX@Z				; operator delete
	pop	ecx
	ret	0
__unwindfunclet$?Handle@VuEntity@@UAEHPAVVuPullRequest@@@Z$2:
	mov	eax, DWORD PTR $T21[ebp]
	push	eax
	call	??3@YAXPAX@Z				; operator delete
	pop	ecx
	ret	0
__unwindfunclet$?Handle@VuEntity@@UAEHPAVVuPullRequest@@@Z$3:
	mov	eax, DWORD PTR $T19[ebp]
	push	eax
	call	??3@YAXPAX@Z				; operator delete
	pop	ecx
	ret	0
__ehhandler$?Handle@VuEntity@@UAEHPAVVuPullRequest@@@Z:
	mov	edx, DWORD PTR [esp+8]
	lea	eax, DWORD PTR [edx+12]
	mov	ecx, DWORD PTR [edx-176]
	xor	ecx, eax
	call	@__security_check_cookie@4
	mov	eax, OFFSET __ehfuncinfo$?Handle@VuEntity@@UAEHPAVVuPullRequest@@@Z
	jmp	___CxxFrameHandler3
text$x	ENDS
?Handle@VuEntity@@UAEHPAVVuPullRequest@@@Z ENDP		; VuEntity::Handle
; Function compile flags: /Odtp
; File c:\users\zhitao li\documents\visual studio 2012\projects\freefalcon\vu2\src\vuentity.cpp
_TEXT	SEGMENT
$T2 = -152						; size = 8
$T3 = -144						; size = 8
$T4 = -136						; size = 8
$T5 = -128						; size = 8
$T6 = -120						; size = 8
$T7 = -112						; size = 8
$T8 = -104						; size = 8
$T9 = -96						; size = 8
$T10 = -88						; size = 8
$T11 = -80						; size = 8
$T12 = -72						; size = 4
$T13 = -68						; size = 4
$T14 = -64						; size = 4
_resp$15 = -60						; size = 4
$T16 = -56						; size = 4
tv241 = -52						; size = 4
tv152 = -48						; size = 4
$T17 = -44						; size = 4
$T18 = -40						; size = 4
_resp$19 = -36						; size = 4
tv212 = -32						; size = 4
_resp$20 = -28						; size = 4
_assoc$21 = -24						; size = 4
_sender$ = -20						; size = 4
_this$ = -16						; size = 4
__$EHRec$ = -12						; size = 12
_msg$ = 8						; size = 4
?Handle@VuEntity@@UAEHPAVVuPushRequest@@@Z PROC		; VuEntity::Handle
; _this$ = ecx

; 523  : VU_ERRCODE VuEntity::Handle(VuPushRequest* msg){

	push	ebp
	mov	ebp, esp
	push	-1
	push	__ehhandler$?Handle@VuEntity@@UAEHPAVVuPushRequest@@@Z
	mov	eax, DWORD PTR fs:0
	push	eax
	sub	esp, 140				; 0000008cH
	push	esi
	mov	eax, DWORD PTR ___security_cookie
	xor	eax, ebp
	push	eax
	lea	eax, DWORD PTR __$EHRec$[ebp]
	mov	DWORD PTR fs:0, eax
	mov	DWORD PTR _this$[ebp], ecx

; 524  : 	VuTargetEntity* sender = (VuTargetEntity*)vuDatabase->Find(msg->Sender());

	lea	eax, DWORD PTR $T7[ebp]
	push	eax
	mov	ecx, DWORD PTR _msg$[ebp]
	call	?Sender@VuMessage@@QBE?AVVU_ID@@XZ	; VuMessage::Sender
	mov	ecx, DWORD PTR [eax+4]
	push	ecx
	mov	edx, DWORD PTR [eax]
	push	edx
	mov	ecx, DWORD PTR ?vuDatabase@@3PAVVuDatabase@@A ; vuDatabase
	call	?Find@VuDatabase@@QBEPAVVuEntity@@VVU_ID@@@Z ; VuDatabase::Find
	mov	DWORD PTR _sender$[ebp], eax

; 525  : 	if (sender) {

	cmp	DWORD PTR _sender$[ebp], 0
	je	$LN8@Handle

; 526  : 		if (sender->IsTarget()) {

	mov	eax, DWORD PTR _sender$[ebp]
	mov	edx, DWORD PTR [eax]
	mov	ecx, DWORD PTR _sender$[ebp]
	mov	eax, DWORD PTR [edx+8]
	call	eax
	movzx	ecx, al
	test	ecx, ecx
	je	$LN8@Handle

; 527  : 			if (share_.flags_.breakdown_.transfer_ == 0) {

	mov	edx, DWORD PTR _this$[ebp]
	mov	eax, DWORD PTR [edx+8]
	shr	eax, 1
	and	eax, 1
	jne	$LN6@Handle

; 528  : 				VuMessage* resp = new VuErrorMessage(
; 529  : 					VU_CANT_TRANSFER_ENTITY_ERROR, msg->Sender(), Id(), sender
; 530  : 				);

	push	56					; 00000038H
	call	??2@YAPAXI@Z				; operator new
	add	esp, 4
	mov	DWORD PTR $T18[ebp], eax
	mov	DWORD PTR __$EHRec$[ebp+8], 0
	cmp	DWORD PTR $T18[ebp], 0
	je	SHORT $LN11@Handle
	mov	ecx, DWORD PTR _sender$[ebp]
	push	ecx
	lea	edx, DWORD PTR $T9[ebp]
	push	edx
	mov	ecx, DWORD PTR _this$[ebp]
	call	?Id@VuEntity@@QBE?AVVU_ID@@XZ		; VuEntity::Id
	mov	ecx, DWORD PTR [eax+4]
	push	ecx
	mov	edx, DWORD PTR [eax]
	push	edx
	lea	eax, DWORD PTR $T5[ebp]
	push	eax
	mov	ecx, DWORD PTR _msg$[ebp]
	call	?Sender@VuMessage@@QBE?AVVU_ID@@XZ	; VuMessage::Sender
	mov	ecx, DWORD PTR [eax+4]
	push	ecx
	mov	edx, DWORD PTR [eax]
	push	edx
	push	4
	mov	ecx, DWORD PTR $T18[ebp]
	call	??0VuErrorMessage@@QAE@HVVU_ID@@0PAVVuTargetEntity@@@Z ; VuErrorMessage::VuErrorMessage
	mov	DWORD PTR tv152[ebp], eax
	jmp	SHORT $LN12@Handle
$LN11@Handle:
	mov	DWORD PTR tv152[ebp], 0
$LN12@Handle:
	mov	eax, DWORD PTR tv152[ebp]
	mov	DWORD PTR $T14[ebp], eax
	mov	DWORD PTR __$EHRec$[ebp+8], -1
	mov	ecx, DWORD PTR $T14[ebp]
	mov	DWORD PTR _resp$20[ebp], ecx

; 531  : 				resp->RequestReliableTransmit();

	mov	ecx, DWORD PTR _resp$20[ebp]
	call	?RequestReliableTransmit@VuMessage@@QAEXXZ ; VuMessage::RequestReliableTransmit

; 532  : 				VuMessageQueue::PostVuMessage(resp);

	mov	edx, DWORD PTR _resp$20[ebp]
	push	edx
	call	?PostVuMessage@VuMessageQueue@@SAHPAVVuMessage@@@Z ; VuMessageQueue::PostVuMessage
	add	esp, 4
	jmp	$LN5@Handle
$LN6@Handle:

; 533  : 			} 
; 534  : 			else if ((1<<Domain()) & vuLocalSessionEntity->DomainMask()){

	mov	ecx, DWORD PTR _this$[ebp]
	call	?Domain@VuEntity@@QBEEXZ		; VuEntity::Domain
	movzx	ecx, al
	mov	esi, 1
	shl	esi, cl
	mov	ecx, OFFSET ?vuLocalSessionEntity@@3V?$VuBin@VVuSessionEntity@@@@A ; vuLocalSessionEntity
	call	??C?$VuBin@VVuSessionEntity@@@@QBEPAVVuSessionEntity@@XZ ; VuBin<VuSessionEntity>::operator->
	mov	ecx, eax
	call	?DomainMask@VuSessionEntity@@QAEKXZ	; VuSessionEntity::DomainMask
	and	esi, eax
	je	$LN4@Handle

; 535  : 				VuEntity* assoc = 0;

	mov	DWORD PTR _assoc$21[ebp], 0

; 536  : 				if (Association() != vuNullId &&
; 537  : 					(assoc = vuDatabase->Find(Association())) != 0 &&
; 538  : 					assoc->OwnerId() != vuLocalSession) {

	push	OFFSET ?vuNullId@@3VVU_ID@@A		; vuNullId
	lea	eax, DWORD PTR $T11[ebp]
	push	eax
	mov	ecx, DWORD PTR _this$[ebp]
	call	?Association@VuEntity@@QBE?AVVU_ID@@XZ	; VuEntity::Association
	mov	ecx, eax
	call	??9VU_ID@@QBE_NABV0@@Z			; VU_ID::operator!=
	movzx	ecx, al
	test	ecx, ecx
	je	$LN3@Handle
	lea	edx, DWORD PTR $T3[ebp]
	push	edx
	mov	ecx, DWORD PTR _this$[ebp]
	call	?Association@VuEntity@@QBE?AVVU_ID@@XZ	; VuEntity::Association
	mov	ecx, DWORD PTR [eax+4]
	push	ecx
	mov	edx, DWORD PTR [eax]
	push	edx
	mov	ecx, DWORD PTR ?vuDatabase@@3PAVVuDatabase@@A ; vuDatabase
	call	?Find@VuDatabase@@QBEPAVVuEntity@@VVU_ID@@@Z ; VuDatabase::Find
	mov	DWORD PTR _assoc$21[ebp], eax
	cmp	DWORD PTR _assoc$21[ebp], 0
	je	$LN3@Handle
	push	OFFSET ?vuLocalSession@@3VVU_ID@@A	; vuLocalSession
	lea	eax, DWORD PTR $T10[ebp]
	push	eax
	mov	ecx, DWORD PTR _assoc$21[ebp]
	call	?OwnerId@VuEntity@@QBE?AVVU_ID@@XZ	; VuEntity::OwnerId
	mov	ecx, eax
	call	??9VU_ID@@QBE_NABV0@@Z			; VU_ID::operator!=
	movzx	ecx, al
	test	ecx, ecx
	je	$LN3@Handle

; 539  : 					// entity has association, and we do not manage it
; 540  : 					VuMessage* resp = new VuErrorMessage(VU_TRANSFER_ASSOCIATION_ERROR, msg->Sender(), Id(), sender);

	push	56					; 00000038H
	call	??2@YAPAXI@Z				; operator new
	add	esp, 4
	mov	DWORD PTR $T16[ebp], eax
	mov	DWORD PTR __$EHRec$[ebp+8], 1
	cmp	DWORD PTR $T16[ebp], 0
	je	SHORT $LN13@Handle
	mov	edx, DWORD PTR _sender$[ebp]
	push	edx
	lea	eax, DWORD PTR $T8[ebp]
	push	eax
	mov	ecx, DWORD PTR _this$[ebp]
	call	?Id@VuEntity@@QBE?AVVU_ID@@XZ		; VuEntity::Id
	mov	ecx, DWORD PTR [eax+4]
	push	ecx
	mov	edx, DWORD PTR [eax]
	push	edx
	lea	eax, DWORD PTR $T6[ebp]
	push	eax
	mov	ecx, DWORD PTR _msg$[ebp]
	call	?Sender@VuMessage@@QBE?AVVU_ID@@XZ	; VuMessage::Sender
	mov	ecx, DWORD PTR [eax+4]
	push	ecx
	mov	edx, DWORD PTR [eax]
	push	edx
	push	5
	mov	ecx, DWORD PTR $T16[ebp]
	call	??0VuErrorMessage@@QAE@HVVU_ID@@0PAVVuTargetEntity@@@Z ; VuErrorMessage::VuErrorMessage
	mov	DWORD PTR tv212[ebp], eax
	jmp	SHORT $LN14@Handle
$LN13@Handle:
	mov	DWORD PTR tv212[ebp], 0
$LN14@Handle:
	mov	eax, DWORD PTR tv212[ebp]
	mov	DWORD PTR $T13[ebp], eax
	mov	DWORD PTR __$EHRec$[ebp+8], -1
	mov	ecx, DWORD PTR $T13[ebp]
	mov	DWORD PTR _resp$19[ebp], ecx

; 541  : 					resp->RequestReliableTransmit();

	mov	ecx, DWORD PTR _resp$19[ebp]
	call	?RequestReliableTransmit@VuMessage@@QAEXXZ ; VuMessage::RequestReliableTransmit

; 542  : 					VuMessageQueue::PostVuMessage(resp);

	mov	edx, DWORD PTR _resp$19[ebp]
	push	edx
	call	?PostVuMessage@VuMessageQueue@@SAHPAVVuMessage@@@Z ; VuMessageQueue::PostVuMessage
	add	esp, 4

; 543  : 				} 
; 544  : 				else { 

	jmp	SHORT $LN2@Handle
$LN3@Handle:

; 545  : 					SetOwnerId(vuLocalSession);

	mov	eax, DWORD PTR ?vuLocalSession@@3VVU_ID@@A+4
	push	eax
	mov	ecx, DWORD PTR ?vuLocalSession@@3VVU_ID@@A
	push	ecx
	mov	ecx, DWORD PTR _this$[ebp]
	call	?SetOwnerId@VuEntity@@QAEXVVU_ID@@@Z	; VuEntity::SetOwnerId
$LN2@Handle:

; 546  : 				}
; 547  : 			} 
; 548  : 			else {

	jmp	$LN5@Handle
$LN4@Handle:

; 549  : 				// we can't manage the entity, so send the error response
; 550  : 				VuMessage* resp = new VuErrorMessage(
; 551  : 					VU_CANT_MANAGE_ENTITY_ERROR, msg->Sender(), Id(), sender
; 552  : 				);

	push	56					; 00000038H
	call	??2@YAPAXI@Z				; operator new
	add	esp, 4
	mov	DWORD PTR $T17[ebp], eax
	mov	DWORD PTR __$EHRec$[ebp+8], 2
	cmp	DWORD PTR $T17[ebp], 0
	je	SHORT $LN15@Handle
	mov	edx, DWORD PTR _sender$[ebp]
	push	edx
	lea	eax, DWORD PTR $T4[ebp]
	push	eax
	mov	ecx, DWORD PTR _this$[ebp]
	call	?Id@VuEntity@@QBE?AVVU_ID@@XZ		; VuEntity::Id
	mov	ecx, DWORD PTR [eax+4]
	push	ecx
	mov	edx, DWORD PTR [eax]
	push	edx
	lea	eax, DWORD PTR $T2[ebp]
	push	eax
	mov	ecx, DWORD PTR _msg$[ebp]
	call	?Sender@VuMessage@@QBE?AVVU_ID@@XZ	; VuMessage::Sender
	mov	ecx, DWORD PTR [eax+4]
	push	ecx
	mov	edx, DWORD PTR [eax]
	push	edx
	push	2
	mov	ecx, DWORD PTR $T17[ebp]
	call	??0VuErrorMessage@@QAE@HVVU_ID@@0PAVVuTargetEntity@@@Z ; VuErrorMessage::VuErrorMessage
	mov	DWORD PTR tv241[ebp], eax
	jmp	SHORT $LN16@Handle
$LN15@Handle:
	mov	DWORD PTR tv241[ebp], 0
$LN16@Handle:
	mov	eax, DWORD PTR tv241[ebp]
	mov	DWORD PTR $T12[ebp], eax
	mov	DWORD PTR __$EHRec$[ebp+8], -1
	mov	ecx, DWORD PTR $T12[ebp]
	mov	DWORD PTR _resp$15[ebp], ecx

; 553  : 				resp->RequestReliableTransmit();

	mov	ecx, DWORD PTR _resp$15[ebp]
	call	?RequestReliableTransmit@VuMessage@@QAEXXZ ; VuMessage::RequestReliableTransmit

; 554  : 				VuMessageQueue::PostVuMessage(resp);

	mov	edx, DWORD PTR _resp$15[ebp]
	push	edx
	call	?PostVuMessage@VuMessageQueue@@SAHPAVVuMessage@@@Z ; VuMessageQueue::PostVuMessage
	add	esp, 4
$LN5@Handle:

; 555  : 			}
; 556  : 			return VU_SUCCESS;

	mov	eax, 1
	jmp	SHORT $LN9@Handle
$LN8@Handle:

; 557  : 		}
; 558  : 	} 
; 559  : 	return VU_ERROR;

	or	eax, -1
$LN9@Handle:

; 560  : }

	mov	ecx, DWORD PTR __$EHRec$[ebp]
	mov	DWORD PTR fs:0, ecx
	pop	ecx
	pop	esi
	mov	esp, ebp
	pop	ebp
	ret	4
_TEXT	ENDS
text$x	SEGMENT
__unwindfunclet$?Handle@VuEntity@@UAEHPAVVuPushRequest@@@Z$0:
	mov	eax, DWORD PTR $T18[ebp]
	push	eax
	call	??3@YAXPAX@Z				; operator delete
	pop	ecx
	ret	0
__unwindfunclet$?Handle@VuEntity@@UAEHPAVVuPushRequest@@@Z$1:
	mov	eax, DWORD PTR $T16[ebp]
	push	eax
	call	??3@YAXPAX@Z				; operator delete
	pop	ecx
	ret	0
__unwindfunclet$?Handle@VuEntity@@UAEHPAVVuPushRequest@@@Z$2:
	mov	eax, DWORD PTR $T17[ebp]
	push	eax
	call	??3@YAXPAX@Z				; operator delete
	pop	ecx
	ret	0
__ehhandler$?Handle@VuEntity@@UAEHPAVVuPushRequest@@@Z:
	mov	edx, DWORD PTR [esp+8]
	lea	eax, DWORD PTR [edx+12]
	mov	ecx, DWORD PTR [edx-148]
	xor	ecx, eax
	call	@__security_check_cookie@4
	mov	eax, OFFSET __ehfuncinfo$?Handle@VuEntity@@UAEHPAVVuPushRequest@@@Z
	jmp	___CxxFrameHandler3
text$x	ENDS
?Handle@VuEntity@@UAEHPAVVuPushRequest@@@Z ENDP		; VuEntity::Handle
; Function compile flags: /Odtp
; File c:\users\zhitao li\documents\visual studio 2012\projects\freefalcon\vu2\src\vuentity.cpp
_TEXT	SEGMENT
_this$ = -4						; size = 4
___formal$ = 8						; size = 4
?Handle@VuEntity@@UAEHPAVVuErrorMessage@@@Z PROC	; VuEntity::Handle
; _this$ = ecx

; 610  : VU_ERRCODE VuEntity::Handle(VuErrorMessage*){

	push	ebp
	mov	ebp, esp
	push	ecx
	mov	DWORD PTR _this$[ebp], ecx

; 611  : 	// default implementation stub
; 612  : 	return VU_NO_OP;

	xor	eax, eax

; 613  : }

	mov	esp, ebp
	pop	ebp
	ret	4
?Handle@VuEntity@@UAEHPAVVuErrorMessage@@@Z ENDP	; VuEntity::Handle
_TEXT	ENDS
; Function compile flags: /Odtp
; File c:\users\zhitao li\documents\visual studio 2012\projects\freefalcon\vu2\src\vuentity.cpp
_TEXT	SEGMENT
_this$ = -8						; size = 4
_retval$ = -4						; size = 4
_file$ = 8						; size = 4
?Save@VuEntity@@UAEHPAU_iobuf@@@Z PROC			; VuEntity::Save
; _this$ = ecx

; 451  : int VuEntity::Save(FILE* file){

	push	ebp
	mov	ebp, esp
	sub	esp, 8
	mov	DWORD PTR _this$[ebp], ecx

; 452  :   int retval = 0;

	mov	DWORD PTR _retval$[ebp], 0

; 453  : 
; 454  :   if (file) {

	cmp	DWORD PTR _file$[ebp], 0
	je	$LN1@Save

; 455  :     retval += fwrite(&share_.entityType_,       sizeof(share_.entityType_),       1, file);

	mov	eax, DWORD PTR _file$[ebp]
	push	eax
	push	1
	push	2
	mov	ecx, DWORD PTR _this$[ebp]
	add	ecx, 4
	push	ecx
	call	_fwrite
	add	esp, 16					; 00000010H
	add	eax, DWORD PTR _retval$[ebp]
	mov	DWORD PTR _retval$[ebp], eax

; 456  :     retval += fwrite(&share_.flags_,            sizeof(share_.flags_),            1, file);

	mov	edx, DWORD PTR _file$[ebp]
	push	edx
	push	1
	push	4
	mov	eax, DWORD PTR _this$[ebp]
	add	eax, 8
	push	eax
	call	_fwrite
	add	esp, 16					; 00000010H
	add	eax, DWORD PTR _retval$[ebp]
	mov	DWORD PTR _retval$[ebp], eax

; 457  :     retval += fwrite(&share_.id_.creator_,      sizeof(share_.id_.creator_),      1, file);

	mov	ecx, DWORD PTR _file$[ebp]
	push	ecx
	push	1
	push	4
	mov	edx, DWORD PTR _this$[ebp]
	add	edx, 16					; 00000010H
	push	edx
	call	_fwrite
	add	esp, 16					; 00000010H
	add	eax, DWORD PTR _retval$[ebp]
	mov	DWORD PTR _retval$[ebp], eax

; 458  :     retval += fwrite(&share_.id_.num_,          sizeof(share_.id_.num_),          1, file);

	mov	eax, DWORD PTR _file$[ebp]
	push	eax
	push	1
	push	4
	mov	ecx, DWORD PTR _this$[ebp]
	add	ecx, 12					; 0000000cH
	push	ecx
	call	_fwrite
	add	esp, 16					; 00000010H
	add	eax, DWORD PTR _retval$[ebp]
	mov	DWORD PTR _retval$[ebp], eax

; 459  :     retval += fwrite(&share_.ownerId_.creator_, sizeof(share_.ownerId_.creator_), 1, file);

	mov	edx, DWORD PTR _file$[ebp]
	push	edx
	push	1
	push	4
	mov	eax, DWORD PTR _this$[ebp]
	add	eax, 24					; 00000018H
	push	eax
	call	_fwrite
	add	esp, 16					; 00000010H
	add	eax, DWORD PTR _retval$[ebp]
	mov	DWORD PTR _retval$[ebp], eax

; 460  :     retval += fwrite(&share_.ownerId_.num_,     sizeof(share_.ownerId_.num_),     1, file);

	mov	ecx, DWORD PTR _file$[ebp]
	push	ecx
	push	1
	push	4
	mov	edx, DWORD PTR _this$[ebp]
	add	edx, 20					; 00000014H
	push	edx
	call	_fwrite
	add	esp, 16					; 00000010H
	add	eax, DWORD PTR _retval$[ebp]
	mov	DWORD PTR _retval$[ebp], eax

; 461  :     retval += fwrite(&share_.assoc_.creator_,   sizeof(share_.assoc_.creator_),   1, file);

	mov	eax, DWORD PTR _file$[ebp]
	push	eax
	push	1
	push	4
	mov	ecx, DWORD PTR _this$[ebp]
	add	ecx, 32					; 00000020H
	push	ecx
	call	_fwrite
	add	esp, 16					; 00000010H
	add	eax, DWORD PTR _retval$[ebp]
	mov	DWORD PTR _retval$[ebp], eax

; 462  :     retval += fwrite(&share_.assoc_.num_,       sizeof(share_.assoc_.num_),       1, file);

	mov	edx, DWORD PTR _file$[ebp]
	push	edx
	push	1
	push	4
	mov	eax, DWORD PTR _this$[ebp]
	add	eax, 28					; 0000001cH
	push	eax
	call	_fwrite
	add	esp, 16					; 00000010H
	add	eax, DWORD PTR _retval$[ebp]
	mov	DWORD PTR _retval$[ebp], eax

; 463  :     retval += fwrite(&pos_,                     sizeof(pos_),                     1, file);

	mov	ecx, DWORD PTR _file$[ebp]
	push	ecx
	push	1
	push	24					; 00000018H
	mov	edx, DWORD PTR _this$[ebp]
	add	edx, 36					; 00000024H
	push	edx
	call	_fwrite
	add	esp, 16					; 00000010H
	add	eax, DWORD PTR _retval$[ebp]
	mov	DWORD PTR _retval$[ebp], eax

; 464  :     retval += fwrite(&orient_,                  sizeof(orient_),                  1, file);

	mov	eax, DWORD PTR _file$[ebp]
	push	eax
	push	1
	push	24					; 00000018H
	mov	ecx, DWORD PTR _this$[ebp]
	add	ecx, 60					; 0000003cH
	push	ecx
	call	_fwrite
	add	esp, 16					; 00000010H
	add	eax, DWORD PTR _retval$[ebp]
	mov	DWORD PTR _retval$[ebp], eax
$LN1@Save:

; 465  :   }
; 466  : 
; 467  :   return retval;

	mov	eax, DWORD PTR _retval$[ebp]

; 468  : }

	mov	esp, ebp
	pop	ebp
	ret	4
?Save@VuEntity@@UAEHPAU_iobuf@@@Z ENDP			; VuEntity::Save
_TEXT	ENDS
; Function compile flags: /Odtp
; File c:\users\zhitao li\documents\visual studio 2012\projects\freefalcon\vu2\src\vuentity.cpp
_TEXT	SEGMENT
_this$ = -4						; size = 4
_stream$ = 8						; size = 4
?Save@VuEntity@@UAEHPAPAE@Z PROC			; VuEntity::Save
; _this$ = ecx

; 470  : int VuEntity::Save(VU_BYTE** stream){

	push	ebp
	mov	ebp, esp
	push	ecx
	mov	DWORD PTR _this$[ebp], ecx

; 471  :   if (stream) {

	cmp	DWORD PTR _stream$[ebp], 0
	je	$LN2@Save

; 472  :     if (*stream) {

	mov	eax, DWORD PTR _stream$[ebp]
	cmp	DWORD PTR [eax], 0
	je	$LN2@Save

; 473  :       memcpy(*stream, &share_.entityType_,  sizeof(share_.entityType_));    *stream += sizeof(share_.entityType_);

	push	2
	mov	ecx, DWORD PTR _this$[ebp]
	add	ecx, 4
	push	ecx
	mov	edx, DWORD PTR _stream$[ebp]
	mov	eax, DWORD PTR [edx]
	push	eax
	call	_memcpy
	add	esp, 12					; 0000000cH
	mov	ecx, DWORD PTR _stream$[ebp]
	mov	edx, DWORD PTR [ecx]
	add	edx, 2
	mov	eax, DWORD PTR _stream$[ebp]
	mov	DWORD PTR [eax], edx

; 474  :       memcpy(*stream, &share_.flags_,       sizeof(share_.flags_));         *stream += sizeof(share_.flags_);

	push	4
	mov	ecx, DWORD PTR _this$[ebp]
	add	ecx, 8
	push	ecx
	mov	edx, DWORD PTR _stream$[ebp]
	mov	eax, DWORD PTR [edx]
	push	eax
	call	_memcpy
	add	esp, 12					; 0000000cH
	mov	ecx, DWORD PTR _stream$[ebp]
	mov	edx, DWORD PTR [ecx]
	add	edx, 4
	mov	eax, DWORD PTR _stream$[ebp]
	mov	DWORD PTR [eax], edx

; 475  :       memcpy(*stream, &share_.id_.creator_, sizeof(share_.id_.creator_));   *stream += sizeof(share_.id_.creator_);

	push	4
	mov	ecx, DWORD PTR _this$[ebp]
	add	ecx, 16					; 00000010H
	push	ecx
	mov	edx, DWORD PTR _stream$[ebp]
	mov	eax, DWORD PTR [edx]
	push	eax
	call	_memcpy
	add	esp, 12					; 0000000cH
	mov	ecx, DWORD PTR _stream$[ebp]
	mov	edx, DWORD PTR [ecx]
	add	edx, 4
	mov	eax, DWORD PTR _stream$[ebp]
	mov	DWORD PTR [eax], edx

; 476  :       memcpy(*stream, &share_.id_.num_, sizeof(share_.id_.num_));           *stream += sizeof(share_.id_.num_);

	push	4
	mov	ecx, DWORD PTR _this$[ebp]
	add	ecx, 12					; 0000000cH
	push	ecx
	mov	edx, DWORD PTR _stream$[ebp]
	mov	eax, DWORD PTR [edx]
	push	eax
	call	_memcpy
	add	esp, 12					; 0000000cH
	mov	ecx, DWORD PTR _stream$[ebp]
	mov	edx, DWORD PTR [ecx]
	add	edx, 4
	mov	eax, DWORD PTR _stream$[ebp]
	mov	DWORD PTR [eax], edx

; 477  :       memcpy(*stream, &share_.ownerId_.creator_, sizeof(share_.ownerId_.creator_)); *stream += sizeof(share_.ownerId_.creator_);

	push	4
	mov	ecx, DWORD PTR _this$[ebp]
	add	ecx, 24					; 00000018H
	push	ecx
	mov	edx, DWORD PTR _stream$[ebp]
	mov	eax, DWORD PTR [edx]
	push	eax
	call	_memcpy
	add	esp, 12					; 0000000cH
	mov	ecx, DWORD PTR _stream$[ebp]
	mov	edx, DWORD PTR [ecx]
	add	edx, 4
	mov	eax, DWORD PTR _stream$[ebp]
	mov	DWORD PTR [eax], edx

; 478  :       memcpy(*stream, &share_.ownerId_.num_, sizeof(share_.ownerId_.num_)); *stream += sizeof(share_.ownerId_.num_);

	push	4
	mov	ecx, DWORD PTR _this$[ebp]
	add	ecx, 20					; 00000014H
	push	ecx
	mov	edx, DWORD PTR _stream$[ebp]
	mov	eax, DWORD PTR [edx]
	push	eax
	call	_memcpy
	add	esp, 12					; 0000000cH
	mov	ecx, DWORD PTR _stream$[ebp]
	mov	edx, DWORD PTR [ecx]
	add	edx, 4
	mov	eax, DWORD PTR _stream$[ebp]
	mov	DWORD PTR [eax], edx

; 479  :       memcpy(*stream, &share_.assoc_.creator_, sizeof(share_.assoc_.creator_)); *stream += sizeof(share_.assoc_.creator_);

	push	4
	mov	ecx, DWORD PTR _this$[ebp]
	add	ecx, 32					; 00000020H
	push	ecx
	mov	edx, DWORD PTR _stream$[ebp]
	mov	eax, DWORD PTR [edx]
	push	eax
	call	_memcpy
	add	esp, 12					; 0000000cH
	mov	ecx, DWORD PTR _stream$[ebp]
	mov	edx, DWORD PTR [ecx]
	add	edx, 4
	mov	eax, DWORD PTR _stream$[ebp]
	mov	DWORD PTR [eax], edx

; 480  :       memcpy(*stream, &share_.assoc_.num_, sizeof(share_.assoc_.num_));     *stream += sizeof(share_.assoc_.num_);

	push	4
	mov	ecx, DWORD PTR _this$[ebp]
	add	ecx, 28					; 0000001cH
	push	ecx
	mov	edx, DWORD PTR _stream$[ebp]
	mov	eax, DWORD PTR [edx]
	push	eax
	call	_memcpy
	add	esp, 12					; 0000000cH
	mov	ecx, DWORD PTR _stream$[ebp]
	mov	edx, DWORD PTR [ecx]
	add	edx, 4
	mov	eax, DWORD PTR _stream$[ebp]
	mov	DWORD PTR [eax], edx

; 481  :       memcpy(*stream, &pos_,               sizeof(pos_));                   *stream += sizeof(pos_);

	push	24					; 00000018H
	mov	ecx, DWORD PTR _this$[ebp]
	add	ecx, 36					; 00000024H
	push	ecx
	mov	edx, DWORD PTR _stream$[ebp]
	mov	eax, DWORD PTR [edx]
	push	eax
	call	_memcpy
	add	esp, 12					; 0000000cH
	mov	ecx, DWORD PTR _stream$[ebp]
	mov	edx, DWORD PTR [ecx]
	add	edx, 24					; 00000018H
	mov	eax, DWORD PTR _stream$[ebp]
	mov	DWORD PTR [eax], edx

; 482  :       memcpy(*stream, &orient_,            sizeof(orient_));                *stream += sizeof(orient_);

	push	24					; 00000018H
	mov	ecx, DWORD PTR _this$[ebp]
	add	ecx, 60					; 0000003cH
	push	ecx
	mov	edx, DWORD PTR _stream$[ebp]
	mov	eax, DWORD PTR [edx]
	push	eax
	call	_memcpy
	add	esp, 12					; 0000000cH
	mov	ecx, DWORD PTR _stream$[ebp]
	mov	edx, DWORD PTR [ecx]
	add	edx, 24					; 00000018H
	mov	eax, DWORD PTR _stream$[ebp]
	mov	DWORD PTR [eax], edx

; 483  :       
; 484  :       return(VUENTITY_LOCALSIZE);

	mov	eax, 78					; 0000004eH
	jmp	SHORT $LN3@Save
$LN2@Save:

; 485  :     }
; 486  :   }
; 487  :   
; 488  :   return 0;

	xor	eax, eax
$LN3@Save:

; 489  : }

	mov	esp, ebp
	pop	ebp
	ret	4
?Save@VuEntity@@UAEHPAPAE@Z ENDP			; VuEntity::Save
_TEXT	ENDS
; Function compile flags: /Odtp
; File c:\users\zhitao li\documents\visual studio 2012\projects\freefalcon\vu2\src\vuentity.cpp
_TEXT	SEGMENT
_this$ = -4						; size = 4
?SaveSize@VuEntity@@UAEHXZ PROC				; VuEntity::SaveSize
; _this$ = ecx

; 446  : int VuEntity::SaveSize(){

	push	ebp
	mov	ebp, esp
	push	ecx
	mov	DWORD PTR _this$[ebp], ecx

; 447  :   return(VUENTITY_LOCALSIZE);

	mov	eax, 78					; 0000004eH

; 448  : }

	mov	esp, ebp
	pop	ebp
	ret	0
?SaveSize@VuEntity@@UAEHXZ ENDP				; VuEntity::SaveSize
_TEXT	ENDS
; Function compile flags: /Odtp
; File c:\users\zhitao li\documents\visual studio 2012\projects\freefalcon\vu2\src\vuentity.cpp
_TEXT	SEGMENT
_this$ = -4						; size = 4
?IsCamera@VuEntity@@UBEEXZ PROC				; VuEntity::IsCamera
; _this$ = ecx

; 762  : VU_BOOL VuEntity::IsCamera() const {

	push	ebp
	mov	ebp, esp
	push	ecx
	mov	DWORD PTR _this$[ebp], ecx

; 763  :   return FALSE;

	xor	al, al

; 764  : }

	mov	esp, ebp
	pop	ebp
	ret	0
?IsCamera@VuEntity@@UBEEXZ ENDP				; VuEntity::IsCamera
_TEXT	ENDS
; Function compile flags: /Odtp
; File c:\users\zhitao li\documents\visual studio 2012\projects\freefalcon\vu2\src\vuentity.cpp
_TEXT	SEGMENT
_this$ = -4						; size = 4
?IsGame@VuEntity@@UAEEXZ PROC				; VuEntity::IsGame
; _this$ = ecx

; 758  : VU_BOOL VuEntity::IsGame(){

	push	ebp
	mov	ebp, esp
	push	ecx
	mov	DWORD PTR _this$[ebp], ecx

; 759  :   return FALSE;

	xor	al, al

; 760  : }

	mov	esp, ebp
	pop	ebp
	ret	0
?IsGame@VuEntity@@UAEEXZ ENDP				; VuEntity::IsGame
_TEXT	ENDS
; Function compile flags: /Odtp
; File c:\users\zhitao li\documents\visual studio 2012\projects\freefalcon\vu2\src\vuentity.cpp
_TEXT	SEGMENT
_this$ = -4						; size = 4
?IsGroup@VuEntity@@UAEEXZ PROC				; VuEntity::IsGroup
; _this$ = ecx

; 754  : VU_BOOL VuEntity::IsGroup(){

	push	ebp
	mov	ebp, esp
	push	ecx
	mov	DWORD PTR _this$[ebp], ecx

; 755  :   return FALSE;

	xor	al, al

; 756  : }

	mov	esp, ebp
	pop	ebp
	ret	0
?IsGroup@VuEntity@@UAEEXZ ENDP				; VuEntity::IsGroup
_TEXT	ENDS
; Function compile flags: /Odtp
; File c:\users\zhitao li\documents\visual studio 2012\projects\freefalcon\vu2\src\vuentity.cpp
_TEXT	SEGMENT
_this$ = -4						; size = 4
?IsSession@VuEntity@@UAEEXZ PROC			; VuEntity::IsSession
; _this$ = ecx

; 750  : VU_BOOL VuEntity::IsSession(){

	push	ebp
	mov	ebp, esp
	push	ecx
	mov	DWORD PTR _this$[ebp], ecx

; 751  :   return FALSE;

	xor	al, al

; 752  : }

	mov	esp, ebp
	pop	ebp
	ret	0
?IsSession@VuEntity@@UAEEXZ ENDP			; VuEntity::IsSession
_TEXT	ENDS
; Function compile flags: /Odtp
; File c:\users\zhitao li\documents\visual studio 2012\projects\freefalcon\vu2\src\vuentity.cpp
_TEXT	SEGMENT
_this$ = -4						; size = 4
?IsTarget@VuEntity@@UAEEXZ PROC				; VuEntity::IsTarget
; _this$ = ecx

; 746  : VU_BOOL VuEntity::IsTarget(){

	push	ebp
	mov	ebp, esp
	push	ecx
	mov	DWORD PTR _this$[ebp], ecx

; 747  :   return FALSE;

	xor	al, al

; 748  : }

	mov	esp, ebp
	pop	ebp
	ret	0
?IsTarget@VuEntity@@UAEEXZ ENDP				; VuEntity::IsTarget
_TEXT	ENDS
; Function compile flags: /Odtp
; File c:\users\zhitao li\documents\visual studio 2012\projects\freefalcon\vu2\src\vuentity.cpp
_TEXT	SEGMENT
tv207 = -36						; size = 4
tv201 = -32						; size = 4
tv186 = -28						; size = 4
tv180 = -24						; size = 4
tv165 = -20						; size = 4
tv159 = -16						; size = 4
_size$ = -12						; size = 4
_mult$ = -8						; size = 4
_this$ = -4						; size = 4
_x1$ = 8						; size = 4
_y1$ = 12						; size = 4
_z1$ = 16						; size = 4
_x2$ = 20						; size = 4
_y2$ = 24						; size = 4
_z2$ = 28						; size = 4
_dt$ = 32						; size = 4
_sizeFactor$ = 36					; size = 4
?LineCollisionCheck@VuEntity@@QAEEMMMMMMMM@Z PROC	; VuEntity::LineCollisionCheck
; _this$ = ecx

; 734  : {

	push	ebp
	mov	ebp, esp
	sub	esp, 36					; 00000024H
	mov	DWORD PTR _this$[ebp], ecx

; 735  :   BIG_SCALAR mult = sizeFactor * dt;

	movss	xmm0, DWORD PTR _sizeFactor$[ebp]
	mulss	xmm0, DWORD PTR _dt$[ebp]
	movss	DWORD PTR _mult$[ebp], xmm0

; 736  :   SM_SCALAR  size = EntityType()->collisionRadius_;

	mov	ecx, DWORD PTR _this$[ebp]
	call	?EntityType@VuEntity@@QBEPAUVuEntityType@@XZ ; VuEntity::EntityType
	movss	xmm0, DWORD PTR [eax+4]
	movss	DWORD PTR _size$[ebp], xmm0

; 737  : 
; 738  :   if (collisionLineEntity1D(z1, z2, ZPos(), (size + vuabs(mult * ZDelta()))) &&
; 739  :       collisionLineEntity1D(y1, y2, YPos(), (size + vuabs(mult * YDelta()))) &&
; 740  :       collisionLineEntity1D(x1, x2, XPos(), (size + vuabs(mult * XDelta()))) ) {

	mov	ecx, DWORD PTR _this$[ebp]
	call	?ZDelta@VuEntity@@QBEMXZ		; VuEntity::ZDelta
	fstp	DWORD PTR tv159[ebp]
	movss	xmm0, DWORD PTR tv159[ebp]
	mulss	xmm0, DWORD PTR _mult$[ebp]
	push	ecx
	movss	DWORD PTR [esp], xmm0
	call	?vuabs@@YAMM@Z				; vuabs
	add	esp, 4
	fstp	DWORD PTR tv165[ebp]
	movss	xmm0, DWORD PTR tv165[ebp]
	addss	xmm0, DWORD PTR _size$[ebp]
	push	ecx
	movss	DWORD PTR [esp], xmm0
	mov	ecx, DWORD PTR _this$[ebp]
	call	?ZPos@VuEntity@@QBEMXZ			; VuEntity::ZPos
	push	ecx
	fstp	DWORD PTR [esp]
	push	ecx
	movss	xmm0, DWORD PTR _z2$[ebp]
	movss	DWORD PTR [esp], xmm0
	push	ecx
	movss	xmm0, DWORD PTR _z1$[ebp]
	movss	DWORD PTR [esp], xmm0
	call	?collisionLineEntity1D@@YAEMMMM@Z	; collisionLineEntity1D
	add	esp, 16					; 00000010H
	movzx	eax, al
	test	eax, eax
	je	$LN1@LineCollis
	mov	ecx, DWORD PTR _this$[ebp]
	call	?YDelta@VuEntity@@QBEMXZ		; VuEntity::YDelta
	fstp	DWORD PTR tv180[ebp]
	movss	xmm0, DWORD PTR tv180[ebp]
	mulss	xmm0, DWORD PTR _mult$[ebp]
	push	ecx
	movss	DWORD PTR [esp], xmm0
	call	?vuabs@@YAMM@Z				; vuabs
	add	esp, 4
	fstp	DWORD PTR tv186[ebp]
	movss	xmm0, DWORD PTR tv186[ebp]
	addss	xmm0, DWORD PTR _size$[ebp]
	push	ecx
	movss	DWORD PTR [esp], xmm0
	mov	ecx, DWORD PTR _this$[ebp]
	call	?YPos@VuEntity@@QBEMXZ			; VuEntity::YPos
	push	ecx
	fstp	DWORD PTR [esp]
	push	ecx
	movss	xmm0, DWORD PTR _y2$[ebp]
	movss	DWORD PTR [esp], xmm0
	push	ecx
	movss	xmm0, DWORD PTR _y1$[ebp]
	movss	DWORD PTR [esp], xmm0
	call	?collisionLineEntity1D@@YAEMMMM@Z	; collisionLineEntity1D
	add	esp, 16					; 00000010H
	movzx	ecx, al
	test	ecx, ecx
	je	SHORT $LN1@LineCollis
	mov	ecx, DWORD PTR _this$[ebp]
	call	?XDelta@VuEntity@@QBEMXZ		; VuEntity::XDelta
	fstp	DWORD PTR tv201[ebp]
	movss	xmm0, DWORD PTR tv201[ebp]
	mulss	xmm0, DWORD PTR _mult$[ebp]
	push	ecx
	movss	DWORD PTR [esp], xmm0
	call	?vuabs@@YAMM@Z				; vuabs
	add	esp, 4
	fstp	DWORD PTR tv207[ebp]
	movss	xmm0, DWORD PTR tv207[ebp]
	addss	xmm0, DWORD PTR _size$[ebp]
	push	ecx
	movss	DWORD PTR [esp], xmm0
	mov	ecx, DWORD PTR _this$[ebp]
	call	?XPos@VuEntity@@QBEMXZ			; VuEntity::XPos
	push	ecx
	fstp	DWORD PTR [esp]
	push	ecx
	movss	xmm0, DWORD PTR _x2$[ebp]
	movss	DWORD PTR [esp], xmm0
	push	ecx
	movss	xmm0, DWORD PTR _x1$[ebp]
	movss	DWORD PTR [esp], xmm0
	call	?collisionLineEntity1D@@YAEMMMM@Z	; collisionLineEntity1D
	add	esp, 16					; 00000010H
	movzx	edx, al
	test	edx, edx
	je	SHORT $LN1@LineCollis

; 741  :     return TRUE;

	mov	al, 1
	jmp	SHORT $LN2@LineCollis
$LN1@LineCollis:

; 742  :   }
; 743  :   return FALSE;

	xor	al, al
$LN2@LineCollis:

; 744  : }

	mov	esp, ebp
	pop	ebp
	ret	32					; 00000020H
?LineCollisionCheck@VuEntity@@QAEEMMMMMMMM@Z ENDP	; VuEntity::LineCollisionCheck
_TEXT	ENDS
; Function compile flags: /Odtp
; File c:\users\zhitao li\documents\visual studio 2012\projects\freefalcon\vu2\src\vuentity.cpp
_TEXT	SEGMENT
_this$ = -4						; size = 4
?TerrainCollisionCheck@VuEntity@@UAEEXZ PROC		; VuEntity::TerrainCollisionCheck
; _this$ = ecx

; 706  : {

	push	ebp
	mov	ebp, esp
	push	ecx
	mov	DWORD PTR _this$[ebp], ecx

; 707  :   // default returns FALSE
; 708  :   return FALSE;

	xor	al, al

; 709  : }

	mov	esp, ebp
	pop	ebp
	ret	0
?TerrainCollisionCheck@VuEntity@@UAEEXZ ENDP		; VuEntity::TerrainCollisionCheck
_TEXT	ENDS
; Function compile flags: /Odtp
; File c:\users\zhitao li\documents\visual studio 2012\projects\freefalcon\vu2\src\vuentity.cpp
_TEXT	SEGMENT
_this$ = -4						; size = 4
_other$ = 8						; size = 4
_dt$ = 12						; size = 4
?CustomCollisionCheck@VuEntity@@UAEEPAV1@M@Z PROC	; VuEntity::CustomCollisionCheck
; _this$ = ecx

; 699  : {

	push	ebp
	mov	ebp, esp
	push	ecx
	mov	DWORD PTR _this$[ebp], ecx

; 700  :   // default just performs standard collision check
; 701  :   return CollisionCheck(other, dt);

	push	ecx
	movss	xmm0, DWORD PTR _dt$[ebp]
	movss	DWORD PTR [esp], xmm0
	mov	eax, DWORD PTR _other$[ebp]
	push	eax
	mov	ecx, DWORD PTR _this$[ebp]
	call	?CollisionCheck@VuEntity@@QAEEPAV1@M@Z	; VuEntity::CollisionCheck

; 702  : }

	mov	esp, ebp
	pop	ebp
	ret	8
?CustomCollisionCheck@VuEntity@@UAEEPAV1@M@Z ENDP	; VuEntity::CustomCollisionCheck
_TEXT	ENDS
; Function compile flags: /Odtp
; File c:\users\zhitao li\documents\visual studio 2012\projects\freefalcon\vu2\src\vuentity.cpp
_TEXT	SEGMENT
$T1 = -132						; size = 8
$T2 = -124						; size = 8
tv229 = -116						; size = 4
tv205 = -112						; size = 4
tv298 = -108						; size = 4
tv219 = -104						; size = 4
tv277 = -100						; size = 4
tv196 = -96						; size = 4
tv271 = -92						; size = 4
tv225 = -88						; size = 4
tv300 = -84						; size = 4
tv288 = -80						; size = 4
tv267 = -76						; size = 4
tv284 = -72						; size = 4
tv263 = -68						; size = 4
tv234 = -64						; size = 4
tv258 = -60						; size = 4
tv290 = -56						; size = 4
tv296 = -52						; size = 4
tv286 = -48						; size = 4
tv254 = -44						; size = 4
tv213 = -40						; size = 4
tv292 = -36						; size = 4
tv209 = -32						; size = 4
tv248 = -28						; size = 4
tv200 = -24						; size = 4
tv242 = -20						; size = 4
tv294 = -16						; size = 4
tv238 = -12						; size = 4
_size$ = -8						; size = 4
_this$ = -4						; size = 4
_other$ = 8						; size = 4
_dt$ = 12						; size = 4
?CollisionCheck@VuEntity@@QAEEPAV1@M@Z PROC		; VuEntity::CollisionCheck
; _this$ = ecx

; 674  : {

	push	ebp
	mov	ebp, esp
	sub	esp, 132				; 00000084H
	push	esi
	mov	DWORD PTR _this$[ebp], ecx

; 675  :   SM_SCALAR size = EntityType()->collisionRadius_ +  other->EntityType()->collisionRadius_;

	mov	ecx, DWORD PTR _this$[ebp]
	call	?EntityType@VuEntity@@QBEPAUVuEntityType@@XZ ; VuEntity::EntityType
	mov	esi, eax
	mov	ecx, DWORD PTR _other$[ebp]
	call	?EntityType@VuEntity@@QBEPAUVuEntityType@@XZ ; VuEntity::EntityType
	movss	xmm0, DWORD PTR [esi+4]
	addss	xmm0, DWORD PTR [eax+4]
	movss	DWORD PTR _size$[ebp], xmm0

; 676  :   // object does not collide with itself
; 677  : 
; 678  :   if (Id() != other->Id()) {

	lea	eax, DWORD PTR $T2[ebp]
	push	eax
	mov	ecx, DWORD PTR _other$[ebp]
	call	?Id@VuEntity@@QBE?AVVU_ID@@XZ		; VuEntity::Id
	push	eax
	lea	ecx, DWORD PTR $T1[ebp]
	push	ecx
	mov	ecx, DWORD PTR _this$[ebp]
	call	?Id@VuEntity@@QBE?AVVU_ID@@XZ		; VuEntity::Id
	mov	ecx, eax
	call	??9VU_ID@@QBE_NABV0@@Z			; VU_ID::operator!=
	movzx	edx, al
	test	edx, edx
	je	$LN4@CollisionC

; 679  : 
; 680  :     // Cull based on simple bounding box rejection test, on a per axis basis
; 681  :     if (vuabs(ZPos() - other->ZPos()) > size + vuabs(dt * (ZDelta() - other->ZDelta())))

	mov	ecx, DWORD PTR _this$[ebp]
	call	?ZPos@VuEntity@@QBEMXZ			; VuEntity::ZPos
	fstp	DWORD PTR tv196[ebp]
	movss	xmm0, DWORD PTR tv196[ebp]
	mov	ecx, DWORD PTR _other$[ebp]
	movss	DWORD PTR tv284[ebp], xmm0
	call	?ZPos@VuEntity@@QBEMXZ			; VuEntity::ZPos
	fstp	DWORD PTR tv200[ebp]
	movss	xmm0, DWORD PTR tv284[ebp]
	subss	xmm0, DWORD PTR tv200[ebp]
	push	ecx
	movss	DWORD PTR [esp], xmm0
	call	?vuabs@@YAMM@Z				; vuabs
	add	esp, 4
	fstp	DWORD PTR tv205[ebp]
	movss	xmm0, DWORD PTR tv205[ebp]
	mov	ecx, DWORD PTR _this$[ebp]
	movss	DWORD PTR tv286[ebp], xmm0
	call	?ZDelta@VuEntity@@QBEMXZ		; VuEntity::ZDelta
	fstp	DWORD PTR tv209[ebp]
	movss	xmm0, DWORD PTR tv209[ebp]
	mov	ecx, DWORD PTR _other$[ebp]
	movss	DWORD PTR tv288[ebp], xmm0
	call	?ZDelta@VuEntity@@QBEMXZ		; VuEntity::ZDelta
	fstp	DWORD PTR tv213[ebp]
	movss	xmm0, DWORD PTR tv288[ebp]
	subss	xmm0, DWORD PTR tv213[ebp]
	mulss	xmm0, DWORD PTR _dt$[ebp]
	push	ecx
	movss	DWORD PTR [esp], xmm0
	call	?vuabs@@YAMM@Z				; vuabs
	add	esp, 4
	fstp	DWORD PTR tv219[ebp]
	movss	xmm0, DWORD PTR tv219[ebp]
	addss	xmm0, DWORD PTR _size$[ebp]
	movss	xmm1, DWORD PTR tv286[ebp]
	comiss	xmm1, xmm0
	jbe	SHORT $LN3@CollisionC

; 682  :       return FALSE;

	xor	al, al
	jmp	$LN5@CollisionC
$LN3@CollisionC:

; 683  :     
; 684  :     if (vuabs(YPos() - other->YPos()) > size + vuabs(dt * (YDelta() - other->YDelta())))

	mov	ecx, DWORD PTR _this$[ebp]
	call	?YPos@VuEntity@@QBEMXZ			; VuEntity::YPos
	fstp	DWORD PTR tv225[ebp]
	movss	xmm0, DWORD PTR tv225[ebp]
	mov	ecx, DWORD PTR _other$[ebp]
	movss	DWORD PTR tv290[ebp], xmm0
	call	?YPos@VuEntity@@QBEMXZ			; VuEntity::YPos
	fstp	DWORD PTR tv229[ebp]
	movss	xmm0, DWORD PTR tv290[ebp]
	subss	xmm0, DWORD PTR tv229[ebp]
	push	ecx
	movss	DWORD PTR [esp], xmm0
	call	?vuabs@@YAMM@Z				; vuabs
	add	esp, 4
	fstp	DWORD PTR tv234[ebp]
	movss	xmm0, DWORD PTR tv234[ebp]
	mov	ecx, DWORD PTR _this$[ebp]
	movss	DWORD PTR tv292[ebp], xmm0
	call	?YDelta@VuEntity@@QBEMXZ		; VuEntity::YDelta
	fstp	DWORD PTR tv238[ebp]
	movss	xmm0, DWORD PTR tv238[ebp]
	mov	ecx, DWORD PTR _other$[ebp]
	movss	DWORD PTR tv294[ebp], xmm0
	call	?YDelta@VuEntity@@QBEMXZ		; VuEntity::YDelta
	fstp	DWORD PTR tv242[ebp]
	movss	xmm0, DWORD PTR tv294[ebp]
	subss	xmm0, DWORD PTR tv242[ebp]
	mulss	xmm0, DWORD PTR _dt$[ebp]
	push	ecx
	movss	DWORD PTR [esp], xmm0
	call	?vuabs@@YAMM@Z				; vuabs
	add	esp, 4
	fstp	DWORD PTR tv248[ebp]
	movss	xmm0, DWORD PTR tv248[ebp]
	addss	xmm0, DWORD PTR _size$[ebp]
	movss	xmm1, DWORD PTR tv292[ebp]
	comiss	xmm1, xmm0
	jbe	SHORT $LN2@CollisionC

; 685  :       return FALSE;

	xor	al, al
	jmp	$LN5@CollisionC
$LN2@CollisionC:

; 686  :     
; 687  :     if (vuabs(XPos() - other->XPos()) > size + vuabs(dt * (XDelta() - other->XDelta())))

	mov	ecx, DWORD PTR _this$[ebp]
	call	?XPos@VuEntity@@QBEMXZ			; VuEntity::XPos
	fstp	DWORD PTR tv254[ebp]
	movss	xmm0, DWORD PTR tv254[ebp]
	mov	ecx, DWORD PTR _other$[ebp]
	movss	DWORD PTR tv296[ebp], xmm0
	call	?XPos@VuEntity@@QBEMXZ			; VuEntity::XPos
	fstp	DWORD PTR tv258[ebp]
	movss	xmm0, DWORD PTR tv296[ebp]
	subss	xmm0, DWORD PTR tv258[ebp]
	push	ecx
	movss	DWORD PTR [esp], xmm0
	call	?vuabs@@YAMM@Z				; vuabs
	add	esp, 4
	fstp	DWORD PTR tv263[ebp]
	movss	xmm0, DWORD PTR tv263[ebp]
	mov	ecx, DWORD PTR _this$[ebp]
	movss	DWORD PTR tv298[ebp], xmm0
	call	?XDelta@VuEntity@@QBEMXZ		; VuEntity::XDelta
	fstp	DWORD PTR tv267[ebp]
	movss	xmm0, DWORD PTR tv267[ebp]
	mov	ecx, DWORD PTR _other$[ebp]
	movss	DWORD PTR tv300[ebp], xmm0
	call	?XDelta@VuEntity@@QBEMXZ		; VuEntity::XDelta
	fstp	DWORD PTR tv271[ebp]
	movss	xmm0, DWORD PTR tv300[ebp]
	subss	xmm0, DWORD PTR tv271[ebp]
	mulss	xmm0, DWORD PTR _dt$[ebp]
	push	ecx
	movss	DWORD PTR [esp], xmm0
	call	?vuabs@@YAMM@Z				; vuabs
	add	esp, 4
	fstp	DWORD PTR tv277[ebp]
	movss	xmm0, DWORD PTR tv277[ebp]
	addss	xmm0, DWORD PTR _size$[ebp]
	movss	xmm1, DWORD PTR tv298[ebp]
	comiss	xmm1, xmm0
	jbe	SHORT $LN1@CollisionC

; 688  :       return FALSE;

	xor	al, al
	jmp	SHORT $LN5@CollisionC
$LN1@CollisionC:

; 689  :     
; 690  :     return TRUE;

	mov	al, 1
	jmp	SHORT $LN5@CollisionC
$LN4@CollisionC:

; 691  :   }
; 692  :   
; 693  :   return(FALSE);

	xor	al, al
$LN5@CollisionC:

; 694  : }

	pop	esi
	mov	esp, ebp
	pop	ebp
	ret	8
?CollisionCheck@VuEntity@@QAEEPAV1@M@Z ENDP		; VuEntity::CollisionCheck
_TEXT	ENDS
; Function compile flags: /Odtp
; File c:\users\zhitao li\documents\visual studio 2012\projects\freefalcon\vu2\src\vuentity.cpp
_TEXT	SEGMENT
_olddriver$ = -8					; size = 4
_this$ = -4						; size = 4
_newdriver$ = 8						; size = 4
?SetDriver@VuEntity@@QAEPAVVuDriver@@PAV2@@Z PROC	; VuEntity::SetDriver
; _this$ = ecx

; 398  : {

	push	ebp
	mov	ebp, esp
	sub	esp, 8
	mov	DWORD PTR _this$[ebp], ecx

; 399  : 	if ((newdriver != NULL) && (F4IsBadReadPtr(newdriver, sizeof(*newdriver)))){

	cmp	DWORD PTR _newdriver$[ebp], 0
	je	SHORT $LN1@SetDriver
	push	12					; 0000000cH
	mov	eax, DWORD PTR _newdriver$[ebp]
	push	eax
	call	?F4IsBadReadPtr@@YA_NPBXI@Z		; F4IsBadReadPtr
	add	esp, 8
	movzx	ecx, al
	test	ecx, ecx
	je	SHORT $LN1@SetDriver

; 400  : 		printf("bad driver being assigned");

	push	OFFSET ??_C@_0BK@OPMJINFF@bad?5driver?5being?5assigned?$AA@
	call	_printf
	add	esp, 4
$LN1@SetDriver:

; 401  : 	}
; 402  : 	VuDriver* olddriver = driver_;

	mov	edx, DWORD PTR _this$[ebp]
	mov	eax, DWORD PTR [edx+116]
	mov	DWORD PTR _olddriver$[ebp], eax

; 403  : 	driver_ = newdriver;

	mov	ecx, DWORD PTR _this$[ebp]
	mov	edx, DWORD PTR _newdriver$[ebp]
	mov	DWORD PTR [ecx+116], edx

; 404  : 	return olddriver;

	mov	eax, DWORD PTR _olddriver$[ebp]

; 405  : }

	mov	esp, ebp
	pop	ebp
	ret	4
?SetDriver@VuEntity@@QAEPAVVuDriver@@PAV2@@Z ENDP	; VuEntity::SetDriver
_TEXT	ENDS
; Function compile flags: /Odtp
; File c:\users\zhitao li\documents\visual studio 2012\projects\freefalcon\vu2\src\vuentity.cpp
_TEXT	SEGMENT
_retval$ = -8						; size = 4
_this$ = -4						; size = 4
_currentTime$ = 8					; size = 4
?DriveEntity@VuEntity@@QAEKK@Z PROC			; VuEntity::DriveEntity
; _this$ = ecx

; 334  : VU_TIME VuEntity::DriveEntity(VU_TIME currentTime){

	push	ebp
	mov	ebp, esp
	sub	esp, 8
	mov	DWORD PTR _this$[ebp], ecx

; 335  : 	VU_TIME retval = currentTime;

	mov	eax, DWORD PTR _currentTime$[ebp]
	mov	DWORD PTR _retval$[ebp], eax

; 336  : 	if (driver_) {

	mov	ecx, DWORD PTR _this$[ebp]
	cmp	DWORD PTR [ecx+116], 0
	je	SHORT $LN1@DriveEntit

; 337  : 		driver_->Exec(currentTime);

	mov	edx, DWORD PTR _currentTime$[ebp]
	push	edx
	mov	eax, DWORD PTR _this$[ebp]
	mov	ecx, DWORD PTR [eax+116]
	mov	edx, DWORD PTR _this$[ebp]
	mov	eax, DWORD PTR [ecx]
	mov	ecx, DWORD PTR [edx+116]
	mov	edx, DWORD PTR [eax+8]
	call	edx

; 338  : 		retval += UpdateRate();

	mov	ecx, DWORD PTR _this$[ebp]
	call	?UpdateRate@VuEntity@@QBEKXZ		; VuEntity::UpdateRate
	add	eax, DWORD PTR _retval$[ebp]
	mov	DWORD PTR _retval$[ebp], eax
$LN1@DriveEntit:

; 339  : 	}
; 340  : 	return retval;

	mov	eax, DWORD PTR _retval$[ebp]

; 341  : }

	mov	esp, ebp
	pop	ebp
	ret	4
?DriveEntity@VuEntity@@QAEKK@Z ENDP			; VuEntity::DriveEntity
_TEXT	ENDS
; Function compile flags: /Odtp
; File c:\users\zhitao li\documents\visual studio 2012\projects\freefalcon\vu2\include\vuentity.h
;	COMDAT ?EntityType@VuEntity@@QBEPAUVuEntityType@@XZ
_TEXT	SEGMENT
_this$ = -4						; size = 4
?EntityType@VuEntity@@QBEPAUVuEntityType@@XZ PROC	; VuEntity::EntityType, COMDAT
; _this$ = ecx

; 176  : 	VuEntityType *EntityType() const { return const_cast<VuEntityType*>(entityTypePtr_); }

	push	ebp
	mov	ebp, esp
	push	ecx
	mov	DWORD PTR _this$[ebp], ecx
	mov	eax, DWORD PTR _this$[ebp]
	mov	eax, DWORD PTR [eax+112]
	mov	esp, ebp
	pop	ebp
	ret	0
?EntityType@VuEntity@@QBEPAUVuEntityType@@XZ ENDP	; VuEntity::EntityType
_TEXT	ENDS
; Function compile flags: /Odtp
; File c:\users\zhitao li\documents\visual studio 2012\projects\freefalcon\vu2\include\vuentity.h
;	COMDAT ?UpdateRate@VuEntity@@QBEKXZ
_TEXT	SEGMENT
_this$ = -4						; size = 4
?UpdateRate@VuEntity@@QBEKXZ PROC			; VuEntity::UpdateRate, COMDAT
; _this$ = ecx

; 171  : 	VU_TIME UpdateRate() const { return entityTypePtr_->updateRate_; }

	push	ebp
	mov	ebp, esp
	push	ecx
	mov	DWORD PTR _this$[ebp], ecx
	mov	eax, DWORD PTR _this$[ebp]
	mov	ecx, DWORD PTR [eax+112]
	mov	eax, DWORD PTR [ecx+16]
	mov	esp, ebp
	pop	ebp
	ret	0
?UpdateRate@VuEntity@@QBEKXZ ENDP			; VuEntity::UpdateRate
_TEXT	ENDS
; Function compile flags: /Odtp
; File c:\users\zhitao li\documents\visual studio 2012\projects\freefalcon\vu2\include\vuentity.h
;	COMDAT ?ZDelta@VuEntity@@QBEMXZ
_TEXT	SEGMENT
_this$ = -4						; size = 4
?ZDelta@VuEntity@@QBEMXZ PROC				; VuEntity::ZDelta, COMDAT
; _this$ = ecx

; 163  : 	SM_SCALAR ZDelta() const { return pos_.dz_; }

	push	ebp
	mov	ebp, esp
	push	ecx
	mov	DWORD PTR _this$[ebp], ecx
	mov	eax, DWORD PTR _this$[ebp]
	fld	DWORD PTR [eax+56]
	mov	esp, ebp
	pop	ebp
	ret	0
?ZDelta@VuEntity@@QBEMXZ ENDP				; VuEntity::ZDelta
_TEXT	ENDS
; Function compile flags: /Odtp
; File c:\users\zhitao li\documents\visual studio 2012\projects\freefalcon\vu2\include\vuentity.h
;	COMDAT ?YDelta@VuEntity@@QBEMXZ
_TEXT	SEGMENT
_this$ = -4						; size = 4
?YDelta@VuEntity@@QBEMXZ PROC				; VuEntity::YDelta, COMDAT
; _this$ = ecx

; 162  : 	SM_SCALAR YDelta() const { return pos_.dy_; }

	push	ebp
	mov	ebp, esp
	push	ecx
	mov	DWORD PTR _this$[ebp], ecx
	mov	eax, DWORD PTR _this$[ebp]
	fld	DWORD PTR [eax+52]
	mov	esp, ebp
	pop	ebp
	ret	0
?YDelta@VuEntity@@QBEMXZ ENDP				; VuEntity::YDelta
_TEXT	ENDS
; Function compile flags: /Odtp
; File c:\users\zhitao li\documents\visual studio 2012\projects\freefalcon\vu2\include\vuentity.h
;	COMDAT ?XDelta@VuEntity@@QBEMXZ
_TEXT	SEGMENT
_this$ = -4						; size = 4
?XDelta@VuEntity@@QBEMXZ PROC				; VuEntity::XDelta, COMDAT
; _this$ = ecx

; 161  : 	SM_SCALAR XDelta() const { return pos_.dx_; }

	push	ebp
	mov	ebp, esp
	push	ecx
	mov	DWORD PTR _this$[ebp], ecx
	mov	eax, DWORD PTR _this$[ebp]
	fld	DWORD PTR [eax+48]
	mov	esp, ebp
	pop	ebp
	ret	0
?XDelta@VuEntity@@QBEMXZ ENDP				; VuEntity::XDelta
_TEXT	ENDS
; Function compile flags: /Odtp
; File c:\users\zhitao li\documents\visual studio 2012\projects\freefalcon\vu2\include\vuentity.h
;	COMDAT ?ZPos@VuEntity@@QBEMXZ
_TEXT	SEGMENT
_this$ = -4						; size = 4
?ZPos@VuEntity@@QBEMXZ PROC				; VuEntity::ZPos, COMDAT
; _this$ = ecx

; 160  : 	BIG_SCALAR ZPos()	const { return pos_.z_; }

	push	ebp
	mov	ebp, esp
	push	ecx
	mov	DWORD PTR _this$[ebp], ecx
	mov	eax, DWORD PTR _this$[ebp]
	fld	DWORD PTR [eax+44]
	mov	esp, ebp
	pop	ebp
	ret	0
?ZPos@VuEntity@@QBEMXZ ENDP				; VuEntity::ZPos
_TEXT	ENDS
; Function compile flags: /Odtp
; File c:\users\zhitao li\documents\visual studio 2012\projects\freefalcon\vu2\include\vuentity.h
;	COMDAT ?YPos@VuEntity@@QBEMXZ
_TEXT	SEGMENT
_this$ = -4						; size = 4
?YPos@VuEntity@@QBEMXZ PROC				; VuEntity::YPos, COMDAT
; _this$ = ecx

; 159  : 	BIG_SCALAR YPos()	const { return pos_.y_; }

	push	ebp
	mov	ebp, esp
	push	ecx
	mov	DWORD PTR _this$[ebp], ecx
	mov	eax, DWORD PTR _this$[ebp]
	fld	DWORD PTR [eax+40]
	mov	esp, ebp
	pop	ebp
	ret	0
?YPos@VuEntity@@QBEMXZ ENDP				; VuEntity::YPos
_TEXT	ENDS
; Function compile flags: /Odtp
; File c:\users\zhitao li\documents\visual studio 2012\projects\freefalcon\vu2\include\vuentity.h
;	COMDAT ?XPos@VuEntity@@QBEMXZ
_TEXT	SEGMENT
_this$ = -4						; size = 4
?XPos@VuEntity@@QBEMXZ PROC				; VuEntity::XPos, COMDAT
; _this$ = ecx

; 158  : 	BIG_SCALAR XPos() const { return pos_.x_; }

	push	ebp
	mov	ebp, esp
	push	ecx
	mov	DWORD PTR _this$[ebp], ecx
	mov	eax, DWORD PTR _this$[ebp]
	fld	DWORD PTR [eax+36]
	mov	esp, ebp
	pop	ebp
	ret	0
?XPos@VuEntity@@QBEMXZ ENDP				; VuEntity::XPos
_TEXT	ENDS
; Function compile flags: /Odtp
; File c:\users\zhitao li\documents\visual studio 2012\projects\freefalcon\vu2\include\vuentity.h
;	COMDAT ?Association@VuEntity@@QBE?AVVU_ID@@XZ
_TEXT	SEGMENT
_this$ = -4						; size = 4
___$ReturnUdt$ = 8					; size = 4
?Association@VuEntity@@QBE?AVVU_ID@@XZ PROC		; VuEntity::Association, COMDAT
; _this$ = ecx

; 156  : 	VU_ID Association()	const { return share_.assoc_; }

	push	ebp
	mov	ebp, esp
	push	ecx
	mov	DWORD PTR _this$[ebp], ecx
	mov	eax, DWORD PTR _this$[ebp]
	mov	ecx, DWORD PTR [eax+28]
	mov	edx, DWORD PTR [eax+32]
	mov	eax, DWORD PTR ___$ReturnUdt$[ebp]
	mov	DWORD PTR [eax], ecx
	mov	DWORD PTR [eax+4], edx
	mov	eax, DWORD PTR ___$ReturnUdt$[ebp]
	mov	esp, ebp
	pop	ebp
	ret	4
?Association@VuEntity@@QBE?AVVU_ID@@XZ ENDP		; VuEntity::Association
_TEXT	ENDS
; Function compile flags: /Odtp
; File c:\users\zhitao li\documents\visual studio 2012\projects\freefalcon\vu2\src\vuentity.cpp
_TEXT	SEGMENT
$T1 = -16						; size = 8
_this$ = -8						; size = 4
tv72 = -4						; size = 4
?IsLocal@VuEntity@@QBEEXZ PROC				; VuEntity::IsLocal
; _this$ = ecx

; 266  : VU_BOOL VuEntity::IsLocal() const { 

	push	ebp
	mov	ebp, esp
	sub	esp, 16					; 00000010H
	mov	DWORD PTR _this$[ebp], ecx

; 267  : 	return (VU_BOOL)((vuLocalSession == OwnerId()) ? TRUE : FALSE);

	lea	eax, DWORD PTR $T1[ebp]
	push	eax
	mov	ecx, DWORD PTR _this$[ebp]
	call	?OwnerId@VuEntity@@QBE?AVVU_ID@@XZ	; VuEntity::OwnerId
	push	eax
	mov	ecx, OFFSET ?vuLocalSession@@3VVU_ID@@A	; vuLocalSession
	call	??8VU_ID@@QBE_NABV0@@Z			; VU_ID::operator==
	movzx	ecx, al
	test	ecx, ecx
	je	SHORT $LN3@IsLocal
	mov	DWORD PTR tv72[ebp], 1
	jmp	SHORT $LN4@IsLocal
$LN3@IsLocal:
	mov	DWORD PTR tv72[ebp], 0
$LN4@IsLocal:
	mov	al, BYTE PTR tv72[ebp]

; 268  : }

	mov	esp, ebp
	pop	ebp
	ret	0
?IsLocal@VuEntity@@QBEEXZ ENDP				; VuEntity::IsLocal
_TEXT	ENDS
; Function compile flags: /Odtp
; File c:\users\zhitao li\documents\visual studio 2012\projects\freefalcon\vu2\include\vuentity.h
;	COMDAT ?OwnerId@VuEntity@@QBE?AVVU_ID@@XZ
_TEXT	SEGMENT
_this$ = -4						; size = 4
___$ReturnUdt$ = 8					; size = 4
?OwnerId@VuEntity@@QBE?AVVU_ID@@XZ PROC			; VuEntity::OwnerId, COMDAT
; _this$ = ecx

; 152  : 	VU_ID OwnerId() const     { return share_.ownerId_; }

	push	ebp
	mov	ebp, esp
	push	ecx
	mov	DWORD PTR _this$[ebp], ecx
	mov	eax, DWORD PTR _this$[ebp]
	mov	ecx, DWORD PTR [eax+20]
	mov	edx, DWORD PTR [eax+24]
	mov	eax, DWORD PTR ___$ReturnUdt$[ebp]
	mov	DWORD PTR [eax], ecx
	mov	DWORD PTR [eax+4], edx
	mov	eax, DWORD PTR ___$ReturnUdt$[ebp]
	mov	esp, ebp
	pop	ebp
	ret	4
?OwnerId@VuEntity@@QBE?AVVU_ID@@XZ ENDP			; VuEntity::OwnerId
_TEXT	ENDS
; Function compile flags: /Odtp
; File c:\users\zhitao li\documents\visual studio 2012\projects\freefalcon\vu2\include\vuentity.h
;	COMDAT ?IsGlobal@VuEntity@@QBEEXZ
_TEXT	SEGMENT
_this$ = -4						; size = 4
?IsGlobal@VuEntity@@QBEEXZ PROC				; VuEntity::IsGlobal, COMDAT
; _this$ = ecx

; 138  : 	VU_BOOL IsGlobal() const        { return (VU_BOOL)share_.flags_.breakdown_.global_; }

	push	ebp
	mov	ebp, esp
	push	ecx
	mov	DWORD PTR _this$[ebp], ecx
	mov	eax, DWORD PTR _this$[ebp]
	mov	eax, DWORD PTR [eax+8]
	shr	eax, 4
	and	eax, 1
	mov	esp, ebp
	pop	ebp
	ret	0
?IsGlobal@VuEntity@@QBEEXZ ENDP				; VuEntity::IsGlobal
_TEXT	ENDS
; Function compile flags: /Odtp
; File c:\users\zhitao li\documents\visual studio 2012\projects\freefalcon\vu2\include\vuentity.h
;	COMDAT ?Domain@VuEntity@@QBEEXZ
_TEXT	SEGMENT
_this$ = -4						; size = 4
?Domain@VuEntity@@QBEEXZ PROC				; VuEntity::Domain, COMDAT
; _this$ = ecx

; 132  : 	VU_BYTE Domain() const { return domain_; }

	push	ebp
	mov	ebp, esp
	push	ecx
	mov	DWORD PTR _this$[ebp], ecx
	mov	eax, DWORD PTR _this$[ebp]
	mov	al, BYTE PTR [eax+96]
	mov	esp, ebp
	pop	ebp
	ret	0
?Domain@VuEntity@@QBEEXZ ENDP				; VuEntity::Domain
_TEXT	ENDS
; Function compile flags: /Odtp
; File c:\users\zhitao li\documents\visual studio 2012\projects\freefalcon\vu2\include\vuentity.h
;	COMDAT ?Id@VuEntity@@QBE?AVVU_ID@@XZ
_TEXT	SEGMENT
_this$ = -4						; size = 4
___$ReturnUdt$ = 8					; size = 4
?Id@VuEntity@@QBE?AVVU_ID@@XZ PROC			; VuEntity::Id, COMDAT
; _this$ = ecx

; 131  : 	VU_ID Id() const	{ return share_.id_; }

	push	ebp
	mov	ebp, esp
	push	ecx
	mov	DWORD PTR _this$[ebp], ecx
	mov	eax, DWORD PTR _this$[ebp]
	mov	ecx, DWORD PTR [eax+12]
	mov	edx, DWORD PTR [eax+16]
	mov	eax, DWORD PTR ___$ReturnUdt$[ebp]
	mov	DWORD PTR [eax], ecx
	mov	DWORD PTR [eax+4], edx
	mov	eax, DWORD PTR ___$ReturnUdt$[ebp]
	mov	esp, ebp
	pop	ebp
	ret	4
?Id@VuEntity@@QBE?AVVU_ID@@XZ ENDP			; VuEntity::Id
_TEXT	ENDS
; Function compile flags: /Odtp
; File c:\users\zhitao li\documents\visual studio 2012\projects\freefalcon\vu2\src\vuentity.cpp
_TEXT	SEGMENT
_this$ = -4						; size = 4
_entityType$ = 8					; size = 2
?SetEntityType@VuEntity@@QAEXG@Z PROC			; VuEntity::SetEntityType
; _this$ = ecx

; 296  : {

	push	ebp
	mov	ebp, esp
	push	ecx
	mov	DWORD PTR _this$[ebp], ecx

; 297  : 	share_.entityType_ = entityType;

	mov	eax, DWORD PTR _this$[ebp]
	mov	cx, WORD PTR _entityType$[ebp]
	mov	WORD PTR [eax+4], cx

; 298  : 
; 299  : 	if (share_.entityType_ < vuTypeTableSize){

	mov	edx, DWORD PTR _this$[ebp]
	movzx	eax, WORD PTR [edx+4]
	cmp	eax, 6
	jge	SHORT $LN7@SetEntityT

; 300  : 		// JPO - make sure its in the range (CTD) VU_LAST_ENTITY_TYPE == 100 
; 301  : 		entityTypePtr_ = &vuTypeTable[share_.entityType_];

	mov	ecx, DWORD PTR _this$[ebp]
	movzx	edx, WORD PTR [ecx+4]
	imul	edx, 60					; 0000003cH
	add	edx, OFFSET _vuTypeTable
	mov	eax, DWORD PTR _this$[ebp]
	mov	DWORD PTR [eax+112], edx
	jmp	SHORT $LN6@SetEntityT
$LN7@SetEntityT:

; 302  : 	}
; 303  : 	else if (share_.entityType_ >= VU_LAST_ENTITY_TYPE){

	mov	ecx, DWORD PTR _this$[ebp]
	movzx	edx, WORD PTR [ecx+4]
	cmp	edx, 100				; 00000064H
	jl	SHORT $LN5@SetEntityT

; 304  : 		entityTypePtr_ = VuxType(share_.entityType_);

	mov	eax, DWORD PTR _this$[ebp]
	movzx	ecx, WORD PTR [eax+4]
	push	ecx
	call	?VuxType@@YAPAUVuEntityType@@G@Z	; VuxType
	add	esp, 4
	mov	edx, DWORD PTR _this$[ebp]
	mov	DWORD PTR [edx+112], eax

; 305  : 	}
; 306  : 	else {

	jmp	SHORT $LN6@SetEntityT
$LN5@SetEntityT:

; 307  : 		assert(!"share_.entityType_ out of range");
; 308  : 		entityTypePtr_ = 0;

	mov	eax, DWORD PTR _this$[ebp]
	mov	DWORD PTR [eax+112], 0
$LN6@SetEntityT:

; 309  : 	}
; 310  : 	  
; 311  : 	if (entityTypePtr_ == 0){

	mov	ecx, DWORD PTR _this$[ebp]
	cmp	DWORD PTR [ecx+112], 0
	jne	SHORT $LN3@SetEntityT

; 312  : 		entityTypePtr_ = &vuTypeTable[VU_UNKNOWN_ENTITY_TYPE];

	mov	edx, 60					; 0000003cH
	imul	edx, 0
	add	edx, OFFSET _vuTypeTable
	mov	eax, DWORD PTR _this$[ebp]
	mov	DWORD PTR [eax+112], edx
$LN3@SetEntityT:

; 313  : 	}
; 314  : 	  
; 315  : 	share_.flags_.breakdown_.private_    = entityTypePtr_->private_;

	mov	ecx, DWORD PTR _this$[ebp]
	mov	edx, DWORD PTR [ecx+112]
	movzx	eax, BYTE PTR [edx+52]
	and	eax, 1
	mov	ecx, DWORD PTR _this$[ebp]
	mov	edx, DWORD PTR [ecx+8]
	and	edx, -2					; fffffffeH
	or	edx, eax
	mov	eax, DWORD PTR _this$[ebp]
	mov	DWORD PTR [eax+8], edx

; 316  : 	share_.flags_.breakdown_.transfer_   = entityTypePtr_->transferable_;

	mov	ecx, DWORD PTR _this$[ebp]
	mov	edx, DWORD PTR [ecx+112]
	movzx	eax, BYTE PTR [edx+51]
	and	eax, 1
	shl	eax, 1
	mov	ecx, DWORD PTR _this$[ebp]
	mov	edx, DWORD PTR [ecx+8]
	and	edx, -3					; fffffffdH
	or	edx, eax
	mov	eax, DWORD PTR _this$[ebp]
	mov	DWORD PTR [eax+8], edx

; 317  : 	share_.flags_.breakdown_.tangible_   = entityTypePtr_->tangible_;

	mov	ecx, DWORD PTR _this$[ebp]
	mov	edx, DWORD PTR [ecx+112]
	movzx	eax, BYTE PTR [edx+53]
	and	eax, 1
	shl	eax, 2
	mov	ecx, DWORD PTR _this$[ebp]
	mov	edx, DWORD PTR [ecx+8]
	and	edx, -5					; fffffffbH
	or	edx, eax
	mov	eax, DWORD PTR _this$[ebp]
	mov	DWORD PTR [eax+8], edx

; 318  : 	share_.flags_.breakdown_.collidable_ = entityTypePtr_->collidable_;

	mov	ecx, DWORD PTR _this$[ebp]
	mov	edx, DWORD PTR [ecx+112]
	movzx	eax, BYTE PTR [edx+54]
	and	eax, 1
	shl	eax, 3
	mov	ecx, DWORD PTR _this$[ebp]
	mov	edx, DWORD PTR [ecx+8]
	and	edx, -9					; fffffff7H
	or	edx, eax
	mov	eax, DWORD PTR _this$[ebp]
	mov	DWORD PTR [eax+8], edx

; 319  : 	share_.flags_.breakdown_.global_     = entityTypePtr_->global_;

	mov	ecx, DWORD PTR _this$[ebp]
	mov	edx, DWORD PTR [ecx+112]
	movzx	eax, BYTE PTR [edx+55]
	and	eax, 1
	shl	eax, 4
	mov	ecx, DWORD PTR _this$[ebp]
	mov	edx, DWORD PTR [ecx+8]
	and	edx, -17				; ffffffefH
	or	edx, eax
	mov	eax, DWORD PTR _this$[ebp]
	mov	DWORD PTR [eax+8], edx

; 320  : 	share_.flags_.breakdown_.persistent_ = entityTypePtr_->persistent_;

	mov	ecx, DWORD PTR _this$[ebp]
	mov	edx, DWORD PTR [ecx+112]
	movzx	eax, BYTE PTR [edx+56]
	and	eax, 1
	shl	eax, 5
	mov	ecx, DWORD PTR _this$[ebp]
	mov	edx, DWORD PTR [ecx+8]
	and	edx, -33				; ffffffdfH
	or	edx, eax
	mov	eax, DWORD PTR _this$[ebp]
	mov	DWORD PTR [eax+8], edx

; 321  : 
; 322  : 	if (share_.flags_.breakdown_.persistent_&&share_.flags_.breakdown_.transfer_){

	mov	ecx, DWORD PTR _this$[ebp]
	mov	edx, DWORD PTR [ecx+8]
	shr	edx, 5
	and	edx, 1
	je	SHORT $LN2@SetEntityT
	mov	eax, DWORD PTR _this$[ebp]
	mov	ecx, DWORD PTR [eax+8]
	shr	ecx, 1
	and	ecx, 1
	je	SHORT $LN2@SetEntityT

; 323  : 		share_.flags_.breakdown_.transfer_ = 0;

	mov	edx, DWORD PTR _this$[ebp]
	mov	eax, DWORD PTR [edx+8]
	and	eax, -3					; fffffffdH
	mov	ecx, DWORD PTR _this$[ebp]
	mov	DWORD PTR [ecx+8], eax
$LN2@SetEntityT:

; 324  : 	}
; 325  : 	  
; 326  : 	share_.flags_.breakdown_.pad_ = 1;

	mov	edx, DWORD PTR _this$[ebp]
	mov	eax, DWORD PTR [edx+8]
	and	eax, -65281				; ffff00ffH
	or	eax, 256				; 00000100H
	mov	ecx, DWORD PTR _this$[ebp]
	mov	DWORD PTR [ecx+8], eax

; 327  : 	domain_ = entityTypePtr_->managementDomain_;

	mov	edx, DWORD PTR _this$[ebp]
	mov	eax, DWORD PTR [edx+112]
	mov	ecx, DWORD PTR _this$[ebp]
	mov	dl, BYTE PTR [eax+50]
	mov	BYTE PTR [ecx+96], dl

; 328  : 	// cap domain at (bits/long - 1)
; 329  : 	if (domain_ > 31){

	mov	eax, DWORD PTR _this$[ebp]
	movzx	ecx, BYTE PTR [eax+96]
	cmp	ecx, 31					; 0000001fH
	jle	SHORT $LN8@SetEntityT

; 330  : 		domain_ = 31;

	mov	edx, DWORD PTR _this$[ebp]
	mov	BYTE PTR [edx+96], 31			; 0000001fH
$LN8@SetEntityT:

; 331  : 	}
; 332  : }

	mov	esp, ebp
	pop	ebp
	ret	4
?SetEntityType@VuEntity@@QAEXG@Z ENDP			; VuEntity::SetEntityType
_TEXT	ENDS
; Function compile flags: /Odtp
; File c:\users\zhitao li\documents\visual studio 2012\projects\freefalcon\vu2\src\vuentity.cpp
_TEXT	SEGMENT
$T2 = -36						; size = 4
tv136 = -32						; size = 4
$T3 = -28						; size = 4
_target$4 = -24						; size = 4
_event$5 = -20						; size = 4
_this$ = -16						; size = 4
__$EHRec$ = -12						; size = 12
_ownerId$ = 8						; size = 8
?SetOwnerId@VuEntity@@QAEXVVU_ID@@@Z PROC		; VuEntity::SetOwnerId
; _this$ = ecx

; 408  : {

	push	ebp
	mov	ebp, esp
	push	-1
	push	__ehhandler$?SetOwnerId@VuEntity@@QAEXVVU_ID@@@Z
	mov	eax, DWORD PTR fs:0
	push	eax
	sub	esp, 24					; 00000018H
	mov	eax, DWORD PTR ___security_cookie
	xor	eax, ebp
	push	eax
	lea	eax, DWORD PTR __$EHRec$[ebp]
	mov	DWORD PTR fs:0, eax
	mov	DWORD PTR _this$[ebp], ecx

; 409  : 	// New owner sends xfer message: check for locality after set
; 410  : 	if (vuLocalSession == ownerId && share_.ownerId_ != ownerId) {

	lea	eax, DWORD PTR _ownerId$[ebp]
	push	eax
	mov	ecx, OFFSET ?vuLocalSession@@3VVU_ID@@A	; vuLocalSession
	call	??8VU_ID@@QBE_NABV0@@Z			; VU_ID::operator==
	movzx	ecx, al
	test	ecx, ecx
	je	$LN2@SetOwnerId
	lea	edx, DWORD PTR _ownerId$[ebp]
	push	edx
	mov	ecx, DWORD PTR _this$[ebp]
	add	ecx, 20					; 00000014H
	call	??9VU_ID@@QBE_NABV0@@Z			; VU_ID::operator!=
	movzx	eax, al
	test	eax, eax
	je	$LN2@SetOwnerId

; 411  : 		share_.ownerId_ = ownerId;

	mov	ecx, DWORD PTR _this$[ebp]
	mov	edx, DWORD PTR _ownerId$[ebp]
	mov	DWORD PTR [ecx+20], edx
	mov	eax, DWORD PTR _ownerId$[ebp+4]
	mov	DWORD PTR [ecx+24], eax

; 412  : 		VuTargetEntity* target = vuGlobalGroup;

	mov	ecx, DWORD PTR ?vuGlobalGroup@@3PAVVuGlobalGroup@@A ; vuGlobalGroup
	mov	DWORD PTR _target$4[ebp], ecx

; 413  : 	    
; 414  : 		if (!IsGlobal()){

	mov	ecx, DWORD PTR _this$[ebp]
	call	?IsGlobal@VuEntity@@QBEEXZ		; VuEntity::IsGlobal
	movzx	edx, al
	test	edx, edx
	jne	SHORT $LN1@SetOwnerId

; 415  : 		target = vuLocalSessionEntity->Game();

	mov	ecx, OFFSET ?vuLocalSessionEntity@@3V?$VuBin@VVuSessionEntity@@@@A ; vuLocalSessionEntity
	call	??C?$VuBin@VVuSessionEntity@@@@QBEPAVVuSessionEntity@@XZ ; VuBin<VuSessionEntity>::operator->
	mov	ecx, eax
	call	?Game@VuSessionEntity@@QAEPAVVuGameEntity@@XZ ; VuSessionEntity::Game
	mov	DWORD PTR _target$4[ebp], eax
$LN1@SetOwnerId:

; 416  : 		}
; 417  : 	    
; 418  : 		VuTransferEvent* event = new VuTransferEvent(this, target);

	push	56					; 00000038H
	call	??2@YAPAXI@Z				; operator new
	add	esp, 4
	mov	DWORD PTR $T3[ebp], eax
	mov	DWORD PTR __$EHRec$[ebp+8], 0
	cmp	DWORD PTR $T3[ebp], 0
	je	SHORT $LN5@SetOwnerId
	push	0
	mov	eax, DWORD PTR _target$4[ebp]
	push	eax
	mov	ecx, DWORD PTR _this$[ebp]
	push	ecx
	mov	ecx, DWORD PTR $T3[ebp]
	call	??0VuTransferEvent@@QAE@PAVVuEntity@@PAVVuTargetEntity@@E@Z ; VuTransferEvent::VuTransferEvent
	mov	DWORD PTR tv136[ebp], eax
	jmp	SHORT $LN6@SetOwnerId
$LN5@SetOwnerId:
	mov	DWORD PTR tv136[ebp], 0
$LN6@SetOwnerId:
	mov	edx, DWORD PTR tv136[ebp]
	mov	DWORD PTR $T2[ebp], edx
	mov	DWORD PTR __$EHRec$[ebp+8], -1
	mov	eax, DWORD PTR $T2[ebp]
	mov	DWORD PTR _event$5[ebp], eax

; 419  : 		event->Ref();

	mov	ecx, DWORD PTR _event$5[ebp]
	call	?Ref@VuMessage@@QAEHXZ			; VuMessage::Ref

; 420  : 		event->RequestReliableTransmit();

	mov	ecx, DWORD PTR _event$5[ebp]
	call	?RequestReliableTransmit@VuMessage@@QAEXXZ ; VuMessage::RequestReliableTransmit

; 421  : 		VuMessageQueue::PostVuMessage(event);

	mov	ecx, DWORD PTR _event$5[ebp]
	push	ecx
	call	?PostVuMessage@VuMessageQueue@@SAHPAVVuMessage@@@Z ; VuMessageQueue::PostVuMessage
	add	esp, 4

; 422  : 		// force immediate local handling of this
; 423  : 		Handle(event);

	mov	edx, DWORD PTR _event$5[ebp]
	push	edx
	mov	eax, DWORD PTR _this$[ebp]
	mov	edx, DWORD PTR [eax]
	mov	ecx, DWORD PTR _this$[ebp]
	mov	eax, DWORD PTR [edx+44]
	call	eax

; 424  : 		vuDatabase->Handle(event);

	mov	ecx, DWORD PTR _event$5[ebp]
	push	ecx
	mov	ecx, DWORD PTR ?vuDatabase@@3PAVVuDatabase@@A ; vuDatabase
	call	?Handle@VuDatabase@@QAEHPAVVuMessage@@@Z ; VuDatabase::Handle

; 425  : 		event->UnRef();

	mov	ecx, DWORD PTR _event$5[ebp]
	call	?UnRef@VuMessage@@QAEHXZ		; VuMessage::UnRef
$LN2@SetOwnerId:

; 426  : 	}
; 427  : 	share_.ownerId_ = ownerId;

	mov	edx, DWORD PTR _this$[ebp]
	mov	eax, DWORD PTR _ownerId$[ebp]
	mov	DWORD PTR [edx+20], eax
	mov	ecx, DWORD PTR _ownerId$[ebp+4]
	mov	DWORD PTR [edx+24], ecx

; 428  : }

	mov	ecx, DWORD PTR __$EHRec$[ebp]
	mov	DWORD PTR fs:0, ecx
	pop	ecx
	mov	esp, ebp
	pop	ebp
	ret	8
_TEXT	ENDS
text$x	SEGMENT
__unwindfunclet$?SetOwnerId@VuEntity@@QAEXVVU_ID@@@Z$0:
	mov	eax, DWORD PTR $T3[ebp]
	push	eax
	call	??3@YAXPAX@Z				; operator delete
	pop	ecx
	ret	0
__ehhandler$?SetOwnerId@VuEntity@@QAEXVVU_ID@@@Z:
	mov	edx, DWORD PTR [esp+8]
	lea	eax, DWORD PTR [edx+12]
	mov	ecx, DWORD PTR [edx-28]
	xor	ecx, eax
	call	@__security_check_cookie@4
	mov	eax, OFFSET __ehfuncinfo$?SetOwnerId@VuEntity@@QAEXVVU_ID@@@Z
	jmp	___CxxFrameHandler3
text$x	ENDS
?SetOwnerId@VuEntity@@QAEXVVU_ID@@@Z ENDP		; VuEntity::SetOwnerId
; Function compile flags: /Odtp
; File c:\users\zhitao li\documents\visual studio 2012\projects\freefalcon\vu2\include\vuentity.h
;	COMDAT ?SetUpdateTime@VuEntity@@QAEXK@Z
_TEXT	SEGMENT
_this$ = -4						; size = 4
_currentTime$ = 8					; size = 4
?SetUpdateTime@VuEntity@@QAEXK@Z PROC			; VuEntity::SetUpdateTime, COMDAT
; _this$ = ecx

; 119  : 	void SetUpdateTime(VU_TIME currentTime){ lastUpdateTime_ = currentTime; }

	push	ebp
	mov	ebp, esp
	push	ecx
	mov	DWORD PTR _this$[ebp], ecx
	mov	eax, DWORD PTR _this$[ebp]
	mov	ecx, DWORD PTR _currentTime$[ebp]
	mov	DWORD PTR [eax+100], ecx
	mov	esp, ebp
	pop	ebp
	ret	4
?SetUpdateTime@VuEntity@@QAEXK@Z ENDP			; VuEntity::SetUpdateTime
_TEXT	ENDS
; Function compile flags: /Odtp
; File c:\users\zhitao li\documents\visual studio 2012\projects\freefalcon\vu2\include\vuentity.h
;	COMDAT ?SetYPR@VuEntity@@QAEXMMM@Z
_TEXT	SEGMENT
_this$ = -4						; size = 4
_yaw$ = 8						; size = 4
_pitch$ = 12						; size = 4
_roll$ = 16						; size = 4
?SetYPR@VuEntity@@QAEXMMM@Z PROC			; VuEntity::SetYPR, COMDAT
; _this$ = ecx

; 113  : 	void SetYPR(SM_SCALAR yaw, SM_SCALAR pitch, SM_SCALAR roll){ 

	push	ebp
	mov	ebp, esp
	push	ecx
	mov	DWORD PTR _this$[ebp], ecx

; 114  : 		orient_.yaw_ = yaw; orient_.pitch_ = pitch; orient_.roll_ = roll; 

	mov	eax, DWORD PTR _this$[ebp]
	movss	xmm0, DWORD PTR _yaw$[ebp]
	movss	DWORD PTR [eax+60], xmm0
	mov	ecx, DWORD PTR _this$[ebp]
	movss	xmm0, DWORD PTR _pitch$[ebp]
	movss	DWORD PTR [ecx+64], xmm0
	mov	edx, DWORD PTR _this$[ebp]
	movss	xmm0, DWORD PTR _roll$[ebp]
	movss	DWORD PTR [edx+68], xmm0

; 115  : 	}

	mov	esp, ebp
	pop	ebp
	ret	12					; 0000000cH
?SetYPR@VuEntity@@QAEXMMM@Z ENDP			; VuEntity::SetYPR
_TEXT	ENDS
; Function compile flags: /Odtp
; File c:\users\zhitao li\documents\visual studio 2012\projects\freefalcon\vu2\src\vuentity.cpp
_TEXT	SEGMENT
_this$ = -4						; size = 4
_dx$ = 8						; size = 4
_dy$ = 12						; size = 4
_dz$ = 16						; size = 4
?SetDelta@VuEntity@@QAEXMMM@Z PROC			; VuEntity::SetDelta
; _this$ = ecx

; 385  : {

	push	ebp
	mov	ebp, esp
	push	ecx
	mov	DWORD PTR _this$[ebp], ecx

; 386  : 	// sfr: testing maximum values here
; 387  : 	// maximum i got was 5000
; 388  : 	//static BIG_SCALAR max = 0;
; 389  : 	//BIG_SCALAR current = sqrt(dx*dx + dy*dy + dz*dz);
; 390  : 	//max = current > max ? current : max;
; 391  : 	pos_.dx_ = dx;

	mov	eax, DWORD PTR _this$[ebp]
	movss	xmm0, DWORD PTR _dx$[ebp]
	movss	DWORD PTR [eax+48], xmm0

; 392  : 	pos_.dy_ = dy;

	mov	ecx, DWORD PTR _this$[ebp]
	movss	xmm0, DWORD PTR _dy$[ebp]
	movss	DWORD PTR [ecx+52], xmm0

; 393  : 	pos_.dz_= dz;

	mov	edx, DWORD PTR _this$[ebp]
	movss	xmm0, DWORD PTR _dz$[ebp]
	movss	DWORD PTR [edx+56], xmm0

; 394  : }

	mov	esp, ebp
	pop	ebp
	ret	12					; 0000000cH
?SetDelta@VuEntity@@QAEXMMM@Z ENDP			; VuEntity::SetDelta
_TEXT	ENDS
; Function compile flags: /Odtp
; File c:\users\zhitao li\documents\visual studio 2012\projects\freefalcon\vu2\src\vuentity.cpp
_TEXT	SEGMENT
_this$ = -4						; size = 4
_x$ = 8							; size = 4
_y$ = 12						; size = 4
_z$ = 16						; size = 4
?SetPosition@VuEntity@@QAEXMMM@Z PROC			; VuEntity::SetPosition
; _this$ = ecx

; 353  : void VuEntity::SetPosition(BIG_SCALAR x, BIG_SCALAR y, BIG_SCALAR z){

	push	ebp
	mov	ebp, esp
	push	ecx
	mov	DWORD PTR _this$[ebp], ecx

; 354  : 	if (z > 0.0F){

	movss	xmm0, DWORD PTR _z$[ebp]
	comiss	xmm0, DWORD PTR __real@00000000
	jbe	SHORT $LN5@SetPositio

; 355  : 		z = 0.0F;

	movss	xmm0, DWORD PTR __real@00000000
	movss	DWORD PTR _z$[ebp], xmm0
	jmp	SHORT $LN1@SetPositio
$LN5@SetPositio:

; 356  : 	}
; 357  : 	else if (z < -100000.0f){

	movss	xmm0, DWORD PTR __real@c7c35000
	comiss	xmm0, DWORD PTR _z$[ebp]
	jbe	SHORT $LN3@SetPositio

; 358  : 		//no planes in the troposphere ;)
; 359  : 		z = -60000.0f;

	movss	xmm0, DWORD PTR __real@c76a6000
	movss	DWORD PTR _z$[ebp], xmm0
	jmp	SHORT $LN1@SetPositio
$LN3@SetPositio:

; 360  : 	}
; 361  : #if WIN32
; 362  : 	else if (_isnan(z)){

	cvtss2sd xmm0, DWORD PTR _z$[ebp]
	sub	esp, 8
	movsd	QWORD PTR [esp], xmm0
	call	__isnan
	add	esp, 8
	test	eax, eax
	je	SHORT $LN1@SetPositio

; 363  : 		//No garbage
; 364  : 		z = -15000.0f;

	movss	xmm0, DWORD PTR __real@c66a6000
	movss	DWORD PTR _z$[ebp], xmm0
$LN1@SetPositio:

; 365  : 	}//Cobra attempt to fix garbage Qnans
; 366  : #endif
; 367  : 
; 368  : #ifdef VU_GRID_TREE_Y_MAJOR
; 369  : 	vuDatabase->HandleMove(this, y, x);

	push	ecx
	movss	xmm0, DWORD PTR _x$[ebp]
	movss	DWORD PTR [esp], xmm0
	push	ecx
	movss	xmm0, DWORD PTR _y$[ebp]
	movss	DWORD PTR [esp], xmm0
	mov	eax, DWORD PTR _this$[ebp]
	push	eax
	mov	ecx, DWORD PTR ?vuDatabase@@3PAVVuDatabase@@A ; vuDatabase
	call	?HandleMove@VuDatabase@@QAEXPAVVuEntity@@MM@Z ; VuDatabase::HandleMove

; 370  : #else
; 371  : 	vuDatabase->HandleMove(this, x, y);
; 372  : #endif
; 373  : 	pos_.x_ = x;

	mov	ecx, DWORD PTR _this$[ebp]
	movss	xmm0, DWORD PTR _x$[ebp]
	movss	DWORD PTR [ecx+36], xmm0

; 374  : 	pos_.y_ = y;

	mov	edx, DWORD PTR _this$[ebp]
	movss	xmm0, DWORD PTR _y$[ebp]
	movss	DWORD PTR [edx+40], xmm0

; 375  : 	pos_.z_ = z;

	mov	eax, DWORD PTR _this$[ebp]
	movss	xmm0, DWORD PTR _z$[ebp]
	movss	DWORD PTR [eax+44], xmm0

; 376  : #if 0
; 377  : 	// sfr: test runway sink 
; 378  : 	std::stringstream ss;
; 379  : 	ss << "z: " << z;
; 380  : 	DEBUG_MESSAGE(10, ss.str().c_str());
; 381  : #endif
; 382  : }

	mov	esp, ebp
	pop	ebp
	ret	12					; 0000000cH
?SetPosition@VuEntity@@QAEXMMM@Z ENDP			; VuEntity::SetPosition
_TEXT	ENDS
; Function compile flags: /Odtp
; File c:\users\zhitao li\documents\visual studio 2012\projects\freefalcon\vu2\src\vuentity.cpp
_TEXT	SEGMENT
_this$ = -4						; size = 4
_file$ = 8						; size = 4
??0VuEntity@@QAE@PAU_iobuf@@@Z PROC			; VuEntity::VuEntity
; _this$ = ecx

; 223  : {

	push	ebp
	mov	ebp, esp
	push	ecx
	mov	DWORD PTR _this$[ebp], ecx
	mov	eax, DWORD PTR _this$[ebp]
	mov	DWORD PTR [eax], OFFSET ??_7VuEntity@@6B@
	mov	ecx, DWORD PTR _this$[ebp]
	add	ecx, 4
	call	??0ShareData@VuEntity@@QAE@XZ
	xor	ecx, ecx
	mov	edx, DWORD PTR _this$[ebp]
	mov	WORD PTR [edx+84], cx
	push	OFFSET ??_C@_0N@FICPPONG@entity?5mutex?$AA@
	call	?VuxCreateMutex@@YAPAXPBD@Z		; VuxCreateMutex
	add	esp, 4
	mov	ecx, DWORD PTR _this$[ebp]
	mov	DWORD PTR [ecx+88], eax
	mov	edx, DWORD PTR _this$[ebp]
	mov	DWORD PTR [edx+116], 0

; 224  : 	fread(&share_.entityType_,       sizeof(share_.entityType_),       1, file);

	mov	eax, DWORD PTR _file$[ebp]
	push	eax
	push	1
	push	2
	mov	ecx, DWORD PTR _this$[ebp]
	add	ecx, 4
	push	ecx
	call	_fread
	add	esp, 16					; 00000010H

; 225  : 	fread(&share_.flags_,            sizeof(share_.flags_),            1, file);

	mov	edx, DWORD PTR _file$[ebp]
	push	edx
	push	1
	push	4
	mov	eax, DWORD PTR _this$[ebp]
	add	eax, 8
	push	eax
	call	_fread
	add	esp, 16					; 00000010H

; 226  : 	fread(&share_.id_.creator_,      sizeof(share_.id_.creator_),      1, file);

	mov	ecx, DWORD PTR _file$[ebp]
	push	ecx
	push	1
	push	4
	mov	edx, DWORD PTR _this$[ebp]
	add	edx, 16					; 00000010H
	push	edx
	call	_fread
	add	esp, 16					; 00000010H

; 227  : 	fread(&share_.id_.num_,          sizeof(share_.id_.num_),          1, file);

	mov	eax, DWORD PTR _file$[ebp]
	push	eax
	push	1
	push	4
	mov	ecx, DWORD PTR _this$[ebp]
	add	ecx, 12					; 0000000cH
	push	ecx
	call	_fread
	add	esp, 16					; 00000010H

; 228  : 	fread(&share_.ownerId_.creator_, sizeof(share_.ownerId_.creator_), 1, file);

	mov	edx, DWORD PTR _file$[ebp]
	push	edx
	push	1
	push	4
	mov	eax, DWORD PTR _this$[ebp]
	add	eax, 24					; 00000018H
	push	eax
	call	_fread
	add	esp, 16					; 00000010H

; 229  : 	fread(&share_.ownerId_.num_,     sizeof(share_.ownerId_.num_),     1, file);

	mov	ecx, DWORD PTR _file$[ebp]
	push	ecx
	push	1
	push	4
	mov	edx, DWORD PTR _this$[ebp]
	add	edx, 20					; 00000014H
	push	edx
	call	_fread
	add	esp, 16					; 00000010H

; 230  : 	fread(&share_.assoc_.creator_,   sizeof(share_.assoc_.creator_),   1, file);

	mov	eax, DWORD PTR _file$[ebp]
	push	eax
	push	1
	push	4
	mov	ecx, DWORD PTR _this$[ebp]
	add	ecx, 32					; 00000020H
	push	ecx
	call	_fread
	add	esp, 16					; 00000010H

; 231  : 	fread(&share_.assoc_.num_,       sizeof(share_.assoc_.num_),       1, file);

	mov	edx, DWORD PTR _file$[ebp]
	push	edx
	push	1
	push	4
	mov	eax, DWORD PTR _this$[ebp]
	add	eax, 28					; 0000001cH
	push	eax
	call	_fread
	add	esp, 16					; 00000010H

; 232  : 	fread(&pos_,                     sizeof(pos_),                     1, file);

	mov	ecx, DWORD PTR _file$[ebp]
	push	ecx
	push	1
	push	24					; 00000018H
	mov	edx, DWORD PTR _this$[ebp]
	add	edx, 36					; 00000024H
	push	edx
	call	_fread
	add	esp, 16					; 00000010H

; 233  : 	fread(&orient_,                  sizeof(orient_),                  1, file);

	mov	eax, DWORD PTR _file$[ebp]
	push	eax
	push	1
	push	24					; 00000018H
	mov	ecx, DWORD PTR _this$[ebp]
	add	ecx, 60					; 0000003cH
	push	ecx
	call	_fread
	add	esp, 16					; 00000010H

; 234  : 
; 235  : 	vuState_ = VU_MEM_CREATED;

	mov	edx, DWORD PTR _this$[ebp]
	mov	DWORD PTR [edx+92], 1

; 236  : 	// note: this is explicitly set to local session because we can only 
; 237  : 	//       load it from a file if we manage it locally
; 238  : 	share_.ownerId_ = vuLocalSession;

	mov	eax, DWORD PTR _this$[ebp]
	mov	ecx, DWORD PTR ?vuLocalSession@@3VVU_ID@@A
	mov	DWORD PTR [eax+20], ecx
	mov	edx, DWORD PTR ?vuLocalSession@@3VVU_ID@@A+4
	mov	DWORD PTR [eax+24], edx

; 239  : 	SetEntityType(share_.entityType_);

	mov	eax, DWORD PTR _this$[ebp]
	movzx	ecx, WORD PTR [eax+4]
	push	ecx
	mov	ecx, DWORD PTR _this$[ebp]
	call	?SetEntityType@VuEntity@@QAEXG@Z	; VuEntity::SetEntityType

; 240  : 	lastUpdateTime_         = vuxGameTime;

	mov	edx, DWORD PTR _this$[ebp]
	mov	eax, DWORD PTR ?vuxGameTime@@3KA	; vuxGameTime
	mov	DWORD PTR [edx+100], eax

; 241  : 	lastCollisionCheckTime_ = vuxGameTime;

	mov	ecx, DWORD PTR _this$[ebp]
	mov	edx, DWORD PTR ?vuxGameTime@@3KA	; vuxGameTime
	mov	DWORD PTR [ecx+104], edx

; 242  : }

	mov	eax, DWORD PTR _this$[ebp]
	mov	esp, ebp
	pop	ebp
	ret	4
??0VuEntity@@QAE@PAU_iobuf@@@Z ENDP			; VuEntity::VuEntity
_TEXT	ENDS
; Function compile flags: /Odtp
; File c:\users\zhitao li\documents\visual studio 2012\projects\freefalcon\vu2\src\vuentity.cpp
_TEXT	SEGMENT
_this$ = -4						; size = 4
_stream$ = 8						; size = 4
_rem$ = 12						; size = 4
??0VuEntity@@QAE@PAPAEPAJ@Z PROC			; VuEntity::VuEntity
; _this$ = ecx

; 248  : {

	push	ebp
	mov	ebp, esp
	push	ecx
	mov	DWORD PTR _this$[ebp], ecx
	mov	eax, DWORD PTR _this$[ebp]
	mov	DWORD PTR [eax], OFFSET ??_7VuEntity@@6B@
	mov	ecx, DWORD PTR _this$[ebp]
	add	ecx, 4
	call	??0ShareData@VuEntity@@QAE@XZ
	xor	ecx, ecx
	mov	edx, DWORD PTR _this$[ebp]
	mov	WORD PTR [edx+84], cx
	push	OFFSET ??_C@_0N@FICPPONG@entity?5mutex?$AA@
	call	?VuxCreateMutex@@YAPAXPBD@Z		; VuxCreateMutex
	add	esp, 4
	mov	ecx, DWORD PTR _this$[ebp]
	mov	DWORD PTR [ecx+88], eax
	mov	edx, DWORD PTR _this$[ebp]
	mov	DWORD PTR [edx+116], 0

; 249  : 	memcpychk(&share_.entityType_, stream, sizeof(share_.entityType_), rem);

	mov	eax, DWORD PTR _rem$[ebp]
	push	eax
	push	2
	mov	ecx, DWORD PTR _stream$[ebp]
	push	ecx
	mov	edx, DWORD PTR _this$[ebp]
	add	edx, 4
	push	edx
	call	?memcpychk@@YAXPAXPAPAEIPAJ@Z		; memcpychk
	add	esp, 16					; 00000010H

; 250  : 	memcpychk(&share_.flags_, stream, sizeof(share_.flags_), rem);

	mov	eax, DWORD PTR _rem$[ebp]
	push	eax
	push	4
	mov	ecx, DWORD PTR _stream$[ebp]
	push	ecx
	mov	edx, DWORD PTR _this$[ebp]
	add	edx, 8
	push	edx
	call	?memcpychk@@YAXPAXPAPAEIPAJ@Z		; memcpychk
	add	esp, 16					; 00000010H

; 251  : 	memcpychk(&share_.id_.creator_, stream, sizeof(share_.id_.creator_), rem);

	mov	eax, DWORD PTR _rem$[ebp]
	push	eax
	push	4
	mov	ecx, DWORD PTR _stream$[ebp]
	push	ecx
	mov	edx, DWORD PTR _this$[ebp]
	add	edx, 16					; 00000010H
	push	edx
	call	?memcpychk@@YAXPAXPAPAEIPAJ@Z		; memcpychk
	add	esp, 16					; 00000010H

; 252  : 	memcpychk(&share_.id_.num_, stream, sizeof(share_.id_.num_), rem);

	mov	eax, DWORD PTR _rem$[ebp]
	push	eax
	push	4
	mov	ecx, DWORD PTR _stream$[ebp]
	push	ecx
	mov	edx, DWORD PTR _this$[ebp]
	add	edx, 12					; 0000000cH
	push	edx
	call	?memcpychk@@YAXPAXPAPAEIPAJ@Z		; memcpychk
	add	esp, 16					; 00000010H

; 253  : 	memcpychk(&share_.ownerId_.creator_, stream, sizeof(share_.ownerId_.creator_), rem);

	mov	eax, DWORD PTR _rem$[ebp]
	push	eax
	push	4
	mov	ecx, DWORD PTR _stream$[ebp]
	push	ecx
	mov	edx, DWORD PTR _this$[ebp]
	add	edx, 24					; 00000018H
	push	edx
	call	?memcpychk@@YAXPAXPAPAEIPAJ@Z		; memcpychk
	add	esp, 16					; 00000010H

; 254  : 	memcpychk(&share_.ownerId_.num_, stream, sizeof(share_.ownerId_.num_), rem);

	mov	eax, DWORD PTR _rem$[ebp]
	push	eax
	push	4
	mov	ecx, DWORD PTR _stream$[ebp]
	push	ecx
	mov	edx, DWORD PTR _this$[ebp]
	add	edx, 20					; 00000014H
	push	edx
	call	?memcpychk@@YAXPAXPAPAEIPAJ@Z		; memcpychk
	add	esp, 16					; 00000010H

; 255  : 	memcpychk(&share_.assoc_.creator_, stream, sizeof(share_.assoc_.creator_), rem);

	mov	eax, DWORD PTR _rem$[ebp]
	push	eax
	push	4
	mov	ecx, DWORD PTR _stream$[ebp]
	push	ecx
	mov	edx, DWORD PTR _this$[ebp]
	add	edx, 32					; 00000020H
	push	edx
	call	?memcpychk@@YAXPAXPAPAEIPAJ@Z		; memcpychk
	add	esp, 16					; 00000010H

; 256  : 	memcpychk(&share_.assoc_.num_, stream, sizeof(share_.assoc_.num_), rem);

	mov	eax, DWORD PTR _rem$[ebp]
	push	eax
	push	4
	mov	ecx, DWORD PTR _stream$[ebp]
	push	ecx
	mov	edx, DWORD PTR _this$[ebp]
	add	edx, 28					; 0000001cH
	push	edx
	call	?memcpychk@@YAXPAXPAPAEIPAJ@Z		; memcpychk
	add	esp, 16					; 00000010H

; 257  : 	memcpychk(&pos_, stream, sizeof(pos_), rem);

	mov	eax, DWORD PTR _rem$[ebp]
	push	eax
	push	24					; 00000018H
	mov	ecx, DWORD PTR _stream$[ebp]
	push	ecx
	mov	edx, DWORD PTR _this$[ebp]
	add	edx, 36					; 00000024H
	push	edx
	call	?memcpychk@@YAXPAXPAPAEIPAJ@Z		; memcpychk
	add	esp, 16					; 00000010H

; 258  : 	memcpychk(&orient_, stream, sizeof(orient_), rem);

	mov	eax, DWORD PTR _rem$[ebp]
	push	eax
	push	24					; 00000018H
	mov	ecx, DWORD PTR _stream$[ebp]
	push	ecx
	mov	edx, DWORD PTR _this$[ebp]
	add	edx, 60					; 0000003cH
	push	edx
	call	?memcpychk@@YAXPAXPAPAEIPAJ@Z		; memcpychk
	add	esp, 16					; 00000010H

; 259  : 
; 260  : 	vuState_ = VU_MEM_CREATED;

	mov	eax, DWORD PTR _this$[ebp]
	mov	DWORD PTR [eax+92], 1

; 261  : 	SetEntityType(share_.entityType_);

	mov	ecx, DWORD PTR _this$[ebp]
	movzx	edx, WORD PTR [ecx+4]
	push	edx
	mov	ecx, DWORD PTR _this$[ebp]
	call	?SetEntityType@VuEntity@@QAEXG@Z	; VuEntity::SetEntityType

; 262  : 	lastUpdateTime_= vuxGameTime;

	mov	eax, DWORD PTR _this$[ebp]
	mov	ecx, DWORD PTR ?vuxGameTime@@3KA	; vuxGameTime
	mov	DWORD PTR [eax+100], ecx

; 263  : 	lastCollisionCheckTime_= vuxGameTime;

	mov	edx, DWORD PTR _this$[ebp]
	mov	eax, DWORD PTR ?vuxGameTime@@3KA	; vuxGameTime
	mov	DWORD PTR [edx+104], eax

; 264  : }

	mov	eax, DWORD PTR _this$[ebp]
	mov	esp, ebp
	pop	ebp
	ret	8
??0VuEntity@@QAE@PAPAEPAJ@Z ENDP			; VuEntity::VuEntity
_TEXT	ENDS
; Function compile flags: /Odtp
; File c:\users\zhitao li\documents\visual studio 2012\projects\freefalcon\vu2\src\vuentity.cpp
_TEXT	SEGMENT
_this$ = -4						; size = 4
_typeindex$ = 8						; size = 2
_eid$ = 12						; size = 4
??0VuEntity@@QAE@GK@Z PROC				; VuEntity::VuEntity
; _this$ = ecx

; 191  : {

	push	ebp
	mov	ebp, esp
	push	ecx
	mov	DWORD PTR _this$[ebp], ecx
	mov	eax, DWORD PTR _this$[ebp]
	mov	DWORD PTR [eax], OFFSET ??_7VuEntity@@6B@
	mov	ecx, DWORD PTR _this$[ebp]
	add	ecx, 4
	call	??0ShareData@VuEntity@@QAE@XZ
	xor	ecx, ecx
	mov	edx, DWORD PTR _this$[ebp]
	mov	WORD PTR [edx+84], cx
	push	OFFSET ??_C@_0N@FICPPONG@entity?5mutex?$AA@
	call	?VuxCreateMutex@@YAPAXPBD@Z		; VuxCreateMutex
	add	esp, 4
	mov	ecx, DWORD PTR _this$[ebp]
	mov	DWORD PTR [ecx+88], eax
	mov	edx, DWORD PTR _this$[ebp]
	mov	DWORD PTR [edx+116], 0

; 192  : 	pos_.x_  = 0.0f;

	mov	eax, DWORD PTR _this$[ebp]
	movss	xmm0, DWORD PTR __real@00000000
	movss	DWORD PTR [eax+36], xmm0

; 193  : 	pos_.y_  = 0.0f;

	mov	ecx, DWORD PTR _this$[ebp]
	movss	xmm0, DWORD PTR __real@00000000
	movss	DWORD PTR [ecx+40], xmm0

; 194  : 	pos_.z_  = 0.0f;

	mov	edx, DWORD PTR _this$[ebp]
	movss	xmm0, DWORD PTR __real@00000000
	movss	DWORD PTR [edx+44], xmm0

; 195  : 	pos_.dx_ = 0.0f;

	mov	eax, DWORD PTR _this$[ebp]
	movss	xmm0, DWORD PTR __real@00000000
	movss	DWORD PTR [eax+48], xmm0

; 196  : 	pos_.dy_ = 0.0f;

	mov	ecx, DWORD PTR _this$[ebp]
	movss	xmm0, DWORD PTR __real@00000000
	movss	DWORD PTR [ecx+52], xmm0

; 197  : 	pos_.dz_ = 0.0f;

	mov	edx, DWORD PTR _this$[ebp]
	movss	xmm0, DWORD PTR __real@00000000
	movss	DWORD PTR [edx+56], xmm0

; 198  : 
; 199  : 	orient_.yaw_    = 0.0f;

	mov	eax, DWORD PTR _this$[ebp]
	movss	xmm0, DWORD PTR __real@00000000
	movss	DWORD PTR [eax+60], xmm0

; 200  : 	orient_.pitch_  = 0.0f;

	mov	ecx, DWORD PTR _this$[ebp]
	movss	xmm0, DWORD PTR __real@00000000
	movss	DWORD PTR [ecx+64], xmm0

; 201  : 	orient_.roll_   = 0.0f;

	mov	edx, DWORD PTR _this$[ebp]
	movss	xmm0, DWORD PTR __real@00000000
	movss	DWORD PTR [edx+68], xmm0

; 202  : 	orient_.dyaw_   = 0.0f;

	mov	eax, DWORD PTR _this$[ebp]
	movss	xmm0, DWORD PTR __real@00000000
	movss	DWORD PTR [eax+72], xmm0

; 203  : 	orient_.dpitch_ = 0.0f;

	mov	ecx, DWORD PTR _this$[ebp]
	movss	xmm0, DWORD PTR __real@00000000
	movss	DWORD PTR [ecx+76], xmm0

; 204  : 	orient_.droll_  = 0.0f;

	mov	edx, DWORD PTR _this$[ebp]
	movss	xmm0, DWORD PTR __real@00000000
	movss	DWORD PTR [edx+80], xmm0

; 205  : 
; 206  : 	vuState_ = VU_MEM_CREATED;

	mov	eax, DWORD PTR _this$[ebp]
	mov	DWORD PTR [eax+92], 1

; 207  : 
; 208  : 	SetEntityType(typeindex);

	movzx	ecx, WORD PTR _typeindex$[ebp]
	push	ecx
	mov	ecx, DWORD PTR _this$[ebp]
	call	?SetEntityType@VuEntity@@QAEXG@Z	; VuEntity::SetEntityType

; 209  : 	share_.assoc_       = vuNullId;

	mov	edx, DWORD PTR _this$[ebp]
	mov	eax, DWORD PTR ?vuNullId@@3VVU_ID@@A
	mov	DWORD PTR [edx+28], eax
	mov	ecx, DWORD PTR ?vuNullId@@3VVU_ID@@A+4
	mov	DWORD PTR [edx+32], ecx

; 210  : 	share_.ownerId_     = vuLocalSession; // need to fill in from id structure

	mov	edx, DWORD PTR _this$[ebp]
	mov	eax, DWORD PTR ?vuLocalSession@@3VVU_ID@@A
	mov	DWORD PTR [edx+20], eax
	mov	ecx, DWORD PTR ?vuLocalSession@@3VVU_ID@@A+4
	mov	DWORD PTR [edx+24], ecx

; 211  : 	share_.id_.creator_ = share_.ownerId_.creator_;

	mov	edx, DWORD PTR _this$[ebp]
	mov	eax, DWORD PTR [edx+24]
	mov	ecx, DWORD PTR _this$[ebp]
	mov	DWORD PTR [ecx+16], eax

; 212  : 	share_.id_.num_	= eid;

	mov	edx, DWORD PTR _this$[ebp]
	mov	eax, DWORD PTR _eid$[ebp]
	mov	DWORD PTR [edx+12], eax

; 213  : 
; 214  : 
; 215  : 	lastUpdateTime_         = vuxGameTime;

	mov	ecx, DWORD PTR _this$[ebp]
	mov	edx, DWORD PTR ?vuxGameTime@@3KA	; vuxGameTime
	mov	DWORD PTR [ecx+100], edx

; 216  : 	lastTransmissionTime_   = vuTransmitTime - VuRandomTime(UpdateRate());

	mov	ecx, DWORD PTR _this$[ebp]
	call	?UpdateRate@VuEntity@@QBEKXZ		; VuEntity::UpdateRate
	push	eax
	call	?VuRandomTime@@YAKK@Z			; VuRandomTime
	add	esp, 4
	mov	ecx, DWORD PTR ?vuTransmitTime@@3KA	; vuTransmitTime
	sub	ecx, eax
	mov	edx, DWORD PTR _this$[ebp]
	mov	DWORD PTR [edx+108], ecx

; 217  : 	lastCollisionCheckTime_ = vuxGameTime;

	mov	eax, DWORD PTR _this$[ebp]
	mov	ecx, DWORD PTR ?vuxGameTime@@3KA	; vuxGameTime
	mov	DWORD PTR [eax+104], ecx

; 218  : }

	mov	eax, DWORD PTR _this$[ebp]
	mov	esp, ebp
	pop	ebp
	ret	8
??0VuEntity@@QAE@GK@Z ENDP				; VuEntity::VuEntity
_TEXT	ENDS
; Function compile flags: /Odtp
; File c:\users\zhitao li\documents\visual studio 2012\projects\freefalcon\vu2\src\vuentity.cpp
_TEXT	SEGMENT
tv76 = -16						; size = 4
$T1 = -12						; size = 4
_ret$ = -8						; size = 4
$T2 = -4						; size = 4
_ent$ = 8						; size = 4
?VuDeReferenceEntity@@YAHPAVVuEntity@@@Z PROC		; VuDeReferenceEntity

; 162  : int VuDeReferenceEntity(VuEntity* ent){

	push	ebp
	mov	ebp, esp
	sub	esp, 16					; 00000010H

; 163  : 	// sfr: temp test
; 164  : 	//if (ent && ent == debugPtr){
; 165  : 	//	printf("bla");
; 166  : 	//}	
; 167  : 	if (ent == NULL){

	cmp	DWORD PTR _ent$[ebp], 0
	jne	SHORT $LN2@VuDeRefere

; 168  : 		return -1;

	or	eax, -1
	jmp	SHORT $LN3@VuDeRefere
$LN2@VuDeRefere:

; 169  : 	}
; 170  : 	int ret = ent->UnRef();

	mov	ecx, DWORD PTR _ent$[ebp]
	call	?UnRef@VuEntity@@AAEHXZ			; VuEntity::UnRef
	mov	DWORD PTR _ret$[ebp], eax

; 171  : 	if (ret == 0) {

	cmp	DWORD PTR _ret$[ebp], 0
	jne	SHORT $LN1@VuDeRefere

; 172  : 		ent->SetVuState(VU_MEM_DELETED);

	push	221					; 000000ddH
	mov	ecx, DWORD PTR _ent$[ebp]
	call	?SetVuState@VuEntity@@IAEXW4VU_MEM@@@Z	; VuEntity::SetVuState

; 173  : 		delete ent;

	mov	eax, DWORD PTR _ent$[ebp]
	mov	DWORD PTR $T1[ebp], eax
	mov	ecx, DWORD PTR $T1[ebp]
	mov	DWORD PTR $T2[ebp], ecx
	cmp	DWORD PTR $T2[ebp], 0
	je	SHORT $LN5@VuDeRefere
	push	1
	mov	edx, DWORD PTR $T2[ebp]
	mov	eax, DWORD PTR [edx]
	mov	ecx, DWORD PTR $T2[ebp]
	mov	edx, DWORD PTR [eax+76]
	call	edx
	mov	DWORD PTR tv76[ebp], eax
	jmp	SHORT $LN1@VuDeRefere
$LN5@VuDeRefere:
	mov	DWORD PTR tv76[ebp], 0
$LN1@VuDeRefere:

; 174  : 	}
; 175  : 	return ret;

	mov	eax, DWORD PTR _ret$[ebp]
$LN3@VuDeRefere:

; 176  : }

	mov	esp, ebp
	pop	ebp
	ret	0
?VuDeReferenceEntity@@YAHPAVVuEntity@@@Z ENDP		; VuDeReferenceEntity
_TEXT	ENDS
; Function compile flags: /Odtp
; File c:\users\zhitao li\documents\visual studio 2012\projects\freefalcon\vu2\src\vuentity.cpp
_TEXT	SEGMENT
_ret$1 = -4						; size = 4
_ent$ = 8						; size = 4
?VuReferenceEntity@@YAHPAVVuEntity@@@Z PROC		; VuReferenceEntity

; 148  : int VuReferenceEntity(VuEntity* ent){

	push	ebp
	mov	ebp, esp
	push	ecx

; 149  : 	// sfr: temp test
; 150  : 	//if (ent && ent == debugPtr){
; 151  : 	//	printf("bla");
; 152  : 	//}
; 153  : 	if (ent){

	cmp	DWORD PTR _ent$[ebp], 0
	je	SHORT $LN2@VuReferenc

; 154  : 		int ret = ent->Ref();

	mov	ecx, DWORD PTR _ent$[ebp]
	call	?Ref@VuEntity@@AAEHXZ			; VuEntity::Ref
	mov	DWORD PTR _ret$1[ebp], eax

; 155  : 		return ret;

	mov	eax, DWORD PTR _ret$1[ebp]
	jmp	SHORT $LN3@VuReferenc

; 156  : 	}
; 157  : 	else {

	jmp	SHORT $LN3@VuReferenc
$LN2@VuReferenc:

; 158  : 		return -1;

	or	eax, -1
$LN3@VuReferenc:

; 159  : 	}
; 160  : }

	mov	esp, ebp
	pop	ebp
	ret	0
?VuReferenceEntity@@YAHPAVVuEntity@@@Z ENDP		; VuReferenceEntity
_TEXT	ENDS
; Function compile flags: /Odtp
; File c:\users\zhitao li\documents\visual studio 2012\projects\freefalcon\vu2\include\vumath.h
;	COMDAT ?vuabs@@YAMM@Z
_TEXT	SEGMENT
_val$ = 8						; size = 4
?vuabs@@YAMM@Z PROC					; vuabs, COMDAT

; 18   : {

	push	ebp
	mov	ebp, esp

; 19   :   return (float)fabs(val);

	push	ecx
	movss	xmm0, DWORD PTR _val$[ebp]
	movss	DWORD PTR [esp], xmm0
	call	?fabs@@YAMM@Z				; fabs
	add	esp, 4

; 20   : }

	pop	ebp
	ret	0
?vuabs@@YAMM@Z ENDP					; vuabs
_TEXT	ENDS
; Function compile flags: /Odtp
; File c:\users\zhitao li\documents\visual studio 2012\projects\freefalcon\falclib\include\vutypes.h
;	COMDAT ??9VU_ID@@QBE_NABV0@@Z
_TEXT	SEGMENT
_this$ = -8						; size = 4
tv74 = -2						; size = 1
tv73 = -1						; size = 1
_rhs$ = 8						; size = 4
??9VU_ID@@QBE_NABV0@@Z PROC				; VU_ID::operator!=, COMDAT
; _this$ = ecx

; 111  : 	bool operator != (const VU_ID &rhs) const { 

	push	ebp
	mov	ebp, esp
	sub	esp, 8
	mov	DWORD PTR _this$[ebp], ecx

; 112  : 		return (
; 113  : 			num_ == rhs.num_ ? 
; 114  : 			(creator_ == rhs.creator_ ? false : true) : 
; 115  : 			true
; 116  : 		); 

	mov	eax, DWORD PTR _this$[ebp]
	mov	ecx, DWORD PTR _rhs$[ebp]
	mov	edx, DWORD PTR [eax]
	cmp	edx, DWORD PTR [ecx]
	jne	SHORT $LN5@operator
	mov	eax, DWORD PTR _rhs$[ebp]
	add	eax, 4
	push	eax
	mov	ecx, DWORD PTR _this$[ebp]
	add	ecx, 4
	call	??8VU_SESSION_ID@@QBEHABV0@@Z		; VU_SESSION_ID::operator==
	test	eax, eax
	je	SHORT $LN3@operator
	mov	BYTE PTR tv73[ebp], 0
	jmp	SHORT $LN4@operator
$LN3@operator:
	mov	BYTE PTR tv73[ebp], 1
$LN4@operator:
	mov	cl, BYTE PTR tv73[ebp]
	mov	BYTE PTR tv74[ebp], cl
	jmp	SHORT $LN6@operator
$LN5@operator:
	mov	BYTE PTR tv74[ebp], 1
$LN6@operator:
	mov	al, BYTE PTR tv74[ebp]

; 117  : 	}

	mov	esp, ebp
	pop	ebp
	ret	4
??9VU_ID@@QBE_NABV0@@Z ENDP				; VU_ID::operator!=
_TEXT	ENDS
; Function compile flags: /Odtp
; File c:\users\zhitao li\documents\visual studio 2012\projects\freefalcon\falclib\include\vutypes.h
;	COMDAT ??8VU_ID@@QBE_NABV0@@Z
_TEXT	SEGMENT
_this$ = -8						; size = 4
tv74 = -2						; size = 1
tv73 = -1						; size = 1
_rhs$ = 8						; size = 4
??8VU_ID@@QBE_NABV0@@Z PROC				; VU_ID::operator==, COMDAT
; _this$ = ecx

; 104  : 	bool operator == (const VU_ID &rhs) const { 

	push	ebp
	mov	ebp, esp
	sub	esp, 8
	mov	DWORD PTR _this$[ebp], ecx

; 105  : 		return (
; 106  : 			num_ == rhs.num_ ? 
; 107  : 			(creator_ == rhs.creator_ ? true : false) : 
; 108  : 			false
; 109  : 		); 

	mov	eax, DWORD PTR _this$[ebp]
	mov	ecx, DWORD PTR _rhs$[ebp]
	mov	edx, DWORD PTR [eax]
	cmp	edx, DWORD PTR [ecx]
	jne	SHORT $LN5@operator
	mov	eax, DWORD PTR _rhs$[ebp]
	add	eax, 4
	push	eax
	mov	ecx, DWORD PTR _this$[ebp]
	add	ecx, 4
	call	??8VU_SESSION_ID@@QBEHABV0@@Z		; VU_SESSION_ID::operator==
	test	eax, eax
	je	SHORT $LN3@operator
	mov	BYTE PTR tv73[ebp], 1
	jmp	SHORT $LN4@operator
$LN3@operator:
	mov	BYTE PTR tv73[ebp], 0
$LN4@operator:
	mov	cl, BYTE PTR tv73[ebp]
	mov	BYTE PTR tv74[ebp], cl
	jmp	SHORT $LN6@operator
$LN5@operator:
	mov	BYTE PTR tv74[ebp], 0
$LN6@operator:
	mov	al, BYTE PTR tv74[ebp]

; 110  : 	}

	mov	esp, ebp
	pop	ebp
	ret	4
??8VU_ID@@QBE_NABV0@@Z ENDP				; VU_ID::operator==
_TEXT	ENDS
; Function compile flags: /Odtp
; File c:\users\zhitao li\documents\visual studio 2012\projects\freefalcon\falclib\include\vutypes.h
;	COMDAT ??0VU_ID@@QAE@VVU_SESSION_ID@@K@Z
_TEXT	SEGMENT
_this$ = -4						; size = 4
_sessionpart$ = 8					; size = 4
_idpart$ = 12						; size = 4
??0VU_ID@@QAE@VVU_SESSION_ID@@K@Z PROC			; VU_ID::VU_ID, COMDAT
; _this$ = ecx

; 101  : 	VU_ID(VU_SESSION_ID sessionpart, VU_ID_NUMBER idpart) : num_(idpart), creator_(sessionpart){}

	push	ebp
	mov	ebp, esp
	push	ecx
	mov	DWORD PTR _this$[ebp], ecx
	mov	eax, DWORD PTR _this$[ebp]
	mov	ecx, DWORD PTR _idpart$[ebp]
	mov	DWORD PTR [eax], ecx
	mov	edx, DWORD PTR _this$[ebp]
	mov	eax, DWORD PTR _sessionpart$[ebp]
	mov	DWORD PTR [edx+4], eax
	mov	eax, DWORD PTR _this$[ebp]
	mov	esp, ebp
	pop	ebp
	ret	8
??0VU_ID@@QAE@VVU_SESSION_ID@@K@Z ENDP			; VU_ID::VU_ID
_TEXT	ENDS
; Function compile flags: /Odtp
; File c:\users\zhitao li\documents\visual studio 2012\projects\freefalcon\falclib\include\vutypes.h
;	COMDAT ??0VU_ID@@QAE@XZ
_TEXT	SEGMENT
_this$ = -4						; size = 4
??0VU_ID@@QAE@XZ PROC					; VU_ID::VU_ID, COMDAT
; _this$ = ecx

; 100  : 	VU_ID() : num_(0), creator_(0){}

	push	ebp
	mov	ebp, esp
	push	ecx
	mov	DWORD PTR _this$[ebp], ecx
	mov	eax, DWORD PTR _this$[ebp]
	mov	DWORD PTR [eax], 0
	push	0
	mov	ecx, DWORD PTR _this$[ebp]
	add	ecx, 4
	call	??0VU_SESSION_ID@@QAE@K@Z		; VU_SESSION_ID::VU_SESSION_ID
	mov	eax, DWORD PTR _this$[ebp]
	mov	esp, ebp
	pop	ebp
	ret	0
??0VU_ID@@QAE@XZ ENDP					; VU_ID::VU_ID
_TEXT	ENDS
; Function compile flags: /Odtp
; File c:\users\zhitao li\documents\visual studio 2012\projects\freefalcon\falclib\include\vutypes.h
;	COMDAT ??8VU_SESSION_ID@@QBEHABV0@@Z
_TEXT	SEGMENT
_this$ = -8						; size = 4
tv67 = -4						; size = 4
_rhs$ = 8						; size = 4
??8VU_SESSION_ID@@QBEHABV0@@Z PROC			; VU_SESSION_ID::operator==, COMDAT
; _this$ = ecx

; 55   : 	int operator == (const VU_SESSION_ID &rhs) const{

	push	ebp
	mov	ebp, esp
	sub	esp, 8
	mov	DWORD PTR _this$[ebp], ecx

; 56   : 		return (value_ == rhs.value_ ? TRUE : FALSE); 

	mov	eax, DWORD PTR _this$[ebp]
	mov	ecx, DWORD PTR _rhs$[ebp]
	mov	edx, DWORD PTR [eax]
	cmp	edx, DWORD PTR [ecx]
	jne	SHORT $LN3@operator
	mov	DWORD PTR tv67[ebp], 1
	jmp	SHORT $LN4@operator
$LN3@operator:
	mov	DWORD PTR tv67[ebp], 0
$LN4@operator:
	mov	eax, DWORD PTR tv67[ebp]

; 57   : 	}

	mov	esp, ebp
	pop	ebp
	ret	4
??8VU_SESSION_ID@@QBEHABV0@@Z ENDP			; VU_SESSION_ID::operator==
_TEXT	ENDS
; Function compile flags: /Odtp
; File c:\users\zhitao li\documents\visual studio 2012\projects\freefalcon\falclib\include\vutypes.h
;	COMDAT ??0VU_SESSION_ID@@QAE@K@Z
_TEXT	SEGMENT
_this$ = -4						; size = 4
_value$ = 8						; size = 4
??0VU_SESSION_ID@@QAE@K@Z PROC				; VU_SESSION_ID::VU_SESSION_ID, COMDAT
; _this$ = ecx

; 53   : 	VU_SESSION_ID(unsigned long value) : value_((unsigned long)value) { }

	push	ebp
	mov	ebp, esp
	push	ecx
	mov	DWORD PTR _this$[ebp], ecx
	mov	eax, DWORD PTR _this$[ebp]
	mov	ecx, DWORD PTR _value$[ebp]
	mov	DWORD PTR [eax], ecx
	mov	eax, DWORD PTR _this$[ebp]
	mov	esp, ebp
	pop	ebp
	ret	4
??0VU_SESSION_ID@@QAE@K@Z ENDP				; VU_SESSION_ID::VU_SESSION_ID
_TEXT	ENDS
; Function compile flags: /Odtp
; File c:\program files (x86)\microsoft visual studio 11.0\vc\include\math.h
;	COMDAT ?fabs@@YAMM@Z
_TEXT	SEGMENT
__X$ = 8						; size = 4
?fabs@@YAMM@Z PROC					; fabs, COMDAT

; 517  :         {return (fabsf(_X)); }

	push	ebp
	mov	ebp, esp
	push	ecx
	movss	xmm0, DWORD PTR __X$[ebp]
	movss	DWORD PTR [esp], xmm0
	call	_fabsf
	add	esp, 4
	pop	ebp
	ret	0
?fabs@@YAMM@Z ENDP					; fabs
_TEXT	ENDS
; Function compile flags: /Odtp
; File c:\program files (x86)\microsoft visual studio 11.0\vc\include\math.h
;	COMDAT _fabsf
_TEXT	SEGMENT
tv74 = -12						; size = 8
tv76 = -4						; size = 4
__X$ = 8						; size = 4
_fabsf	PROC						; COMDAT

; 392  :         {return ((float)fabs((double)_X)); }

	push	ebp
	mov	ebp, esp
	sub	esp, 12					; 0000000cH
	cvtss2sd xmm0, DWORD PTR __X$[ebp]
	sub	esp, 8
	movsd	QWORD PTR [esp], xmm0
	call	_fabs
	add	esp, 8
	fstp	QWORD PTR tv74[ebp]
	movsd	xmm0, QWORD PTR tv74[ebp]
	cvtsd2ss xmm0, xmm0
	movss	DWORD PTR tv76[ebp], xmm0
	fld	DWORD PTR tv76[ebp]
	mov	esp, ebp
	pop	ebp
	ret	0
_fabsf	ENDP
_TEXT	ENDS
END
