; Listing generated by Microsoft (R) Optimizing Compiler Version 17.00.51106.1 

	TITLE	C:\Users\Zhitao Li\Documents\Visual Studio 2012\Projects\Freefalcon\SIM\MISSILE\Missmain.cpp
	.686P
	.XMM
	include listing.inc
	.model	flat

INCLUDELIB LIBCMT
INCLUDELIB OLDNAMES

PUBLIC	?is_signed@?$numeric_limits@C@std@@2_NB		; std::numeric_limits<signed char>::is_signed
PUBLIC	?digits@?$numeric_limits@C@std@@2HB		; std::numeric_limits<signed char>::digits
PUBLIC	?digits10@?$numeric_limits@C@std@@2HB		; std::numeric_limits<signed char>::digits10
PUBLIC	?is_signed@?$numeric_limits@E@std@@2_NB		; std::numeric_limits<unsigned char>::is_signed
PUBLIC	?digits@?$numeric_limits@E@std@@2HB		; std::numeric_limits<unsigned char>::digits
PUBLIC	?digits10@?$numeric_limits@E@std@@2HB		; std::numeric_limits<unsigned char>::digits10
PUBLIC	?collate@?$_Locbase@H@std@@2HB			; std::_Locbase<int>::collate
PUBLIC	?ctype@?$_Locbase@H@std@@2HB			; std::_Locbase<int>::ctype
PUBLIC	?monetary@?$_Locbase@H@std@@2HB			; std::_Locbase<int>::monetary
PUBLIC	?numeric@?$_Locbase@H@std@@2HB			; std::_Locbase<int>::numeric
PUBLIC	?time@?$_Locbase@H@std@@2HB			; std::_Locbase<int>::time
PUBLIC	?messages@?$_Locbase@H@std@@2HB			; std::_Locbase<int>::messages
PUBLIC	?all@?$_Locbase@H@std@@2HB			; std::_Locbase<int>::all
PUBLIC	?is_signed@?$numeric_limits@F@std@@2_NB		; std::numeric_limits<short>::is_signed
PUBLIC	?none@?$_Locbase@H@std@@2HB			; std::_Locbase<int>::none
PUBLIC	?digits@?$numeric_limits@F@std@@2HB		; std::numeric_limits<short>::digits
PUBLIC	?digits10@?$numeric_limits@F@std@@2HB		; std::numeric_limits<short>::digits10
PUBLIC	?is_signed@?$numeric_limits@G@std@@2_NB		; std::numeric_limits<unsigned short>::is_signed
PUBLIC	?digits@?$numeric_limits@G@std@@2HB		; std::numeric_limits<unsigned short>::digits
PUBLIC	?digits10@?$numeric_limits@G@std@@2HB		; std::numeric_limits<unsigned short>::digits10
PUBLIC	?is_signed@?$numeric_limits@H@std@@2_NB		; std::numeric_limits<int>::is_signed
PUBLIC	?value@?$_Sizeof@HU_Nil@std@@U12@U12@U12@U12@U12@U12@@std@@2IB ; std::_Sizeof<int,std::_Nil,std::_Nil,std::_Nil,std::_Nil,std::_Nil,std::_Nil,std::_Nil>::value
PUBLIC	?digits@?$numeric_limits@H@std@@2HB		; std::numeric_limits<int>::digits
PUBLIC	?digits10@?$numeric_limits@H@std@@2HB		; std::numeric_limits<int>::digits10
PUBLIC	?table_size@?$ctype@D@std@@2IB			; std::ctype<char>::table_size
PUBLIC	?is_signed@?$numeric_limits@I@std@@2_NB		; std::numeric_limits<unsigned int>::is_signed
PUBLIC	?digits@?$numeric_limits@I@std@@2HB		; std::numeric_limits<unsigned int>::digits
PUBLIC	?digits10@?$numeric_limits@I@std@@2HB		; std::numeric_limits<unsigned int>::digits10
PUBLIC	?is_signed@?$numeric_limits@J@std@@2_NB		; std::numeric_limits<long>::is_signed
PUBLIC	?digits@?$numeric_limits@J@std@@2HB		; std::numeric_limits<long>::digits
PUBLIC	?digits10@?$numeric_limits@J@std@@2HB		; std::numeric_limits<long>::digits10
PUBLIC	?is_signed@?$numeric_limits@K@std@@2_NB		; std::numeric_limits<unsigned long>::is_signed
PUBLIC	?digits@?$numeric_limits@K@std@@2HB		; std::numeric_limits<unsigned long>::digits
PUBLIC	?digits10@?$numeric_limits@K@std@@2HB		; std::numeric_limits<unsigned long>::digits10
PUBLIC	?is_signed@?$numeric_limits@_J@std@@2_NB	; std::numeric_limits<__int64>::is_signed
PUBLIC	?digits@?$numeric_limits@_J@std@@2HB		; std::numeric_limits<__int64>::digits
PUBLIC	?digits10@?$numeric_limits@_J@std@@2HB		; std::numeric_limits<__int64>::digits10
PUBLIC	?is_signed@?$numeric_limits@_K@std@@2_NB	; std::numeric_limits<unsigned __int64>::is_signed
PUBLIC	?digits@?$numeric_limits@_K@std@@2HB		; std::numeric_limits<unsigned __int64>::digits
PUBLIC	?digits10@?$numeric_limits@_K@std@@2HB		; std::numeric_limits<unsigned __int64>::digits10
PUBLIC	?digits@?$numeric_limits@M@std@@2HB		; std::numeric_limits<float>::digits
PUBLIC	?digits10@?$numeric_limits@M@std@@2HB		; std::numeric_limits<float>::digits10
PUBLIC	?max_digits10@?$numeric_limits@M@std@@2HB	; std::numeric_limits<float>::max_digits10
PUBLIC	?max_exponent@?$numeric_limits@M@std@@2HB	; std::numeric_limits<float>::max_exponent
PUBLIC	?max_exponent10@?$numeric_limits@M@std@@2HB	; std::numeric_limits<float>::max_exponent10
PUBLIC	?min_exponent@?$numeric_limits@M@std@@2HB	; std::numeric_limits<float>::min_exponent
PUBLIC	?min_exponent10@?$numeric_limits@M@std@@2HB	; std::numeric_limits<float>::min_exponent10
PUBLIC	?value@?$integral_constant@I$0A@@std@@2IB	; std::integral_constant<unsigned int,0>::value
PUBLIC	?digits@?$numeric_limits@N@std@@2HB		; std::numeric_limits<double>::digits
PUBLIC	?digits10@?$numeric_limits@N@std@@2HB		; std::numeric_limits<double>::digits10
PUBLIC	?max_digits10@?$numeric_limits@N@std@@2HB	; std::numeric_limits<double>::max_digits10
PUBLIC	?max_exponent@?$numeric_limits@N@std@@2HB	; std::numeric_limits<double>::max_exponent
PUBLIC	?max_exponent10@?$numeric_limits@N@std@@2HB	; std::numeric_limits<double>::max_exponent10
PUBLIC	?min_exponent@?$numeric_limits@N@std@@2HB	; std::numeric_limits<double>::min_exponent
PUBLIC	?min_exponent10@?$numeric_limits@N@std@@2HB	; std::numeric_limits<double>::min_exponent10
PUBLIC	?digits@?$numeric_limits@O@std@@2HB		; std::numeric_limits<long double>::digits
PUBLIC	?digits10@?$numeric_limits@O@std@@2HB		; std::numeric_limits<long double>::digits10
PUBLIC	?max_digits10@?$numeric_limits@O@std@@2HB	; std::numeric_limits<long double>::max_digits10
PUBLIC	?max_exponent@?$numeric_limits@O@std@@2HB	; std::numeric_limits<long double>::max_exponent
PUBLIC	?max_exponent10@?$numeric_limits@O@std@@2HB	; std::numeric_limits<long double>::max_exponent10
PUBLIC	?min_exponent@?$numeric_limits@O@std@@2HB	; std::numeric_limits<long double>::min_exponent
PUBLIC	?min_exponent10@?$numeric_limits@O@std@@2HB	; std::numeric_limits<long double>::min_exponent10
PUBLIC	?value@?$_Sizeof@U_Nil@std@@U12@U12@U12@U12@U12@U12@U12@@std@@2IB ; std::_Sizeof<std::_Nil,std::_Nil,std::_Nil,std::_Nil,std::_Nil,std::_Nil,std::_Nil,std::_Nil>::value
PUBLIC	?skipws@?$_Iosb@H@std@@2W4_Fmtflags@12@B	; std::_Iosb<int>::skipws
PUBLIC	?unitbuf@?$_Iosb@H@std@@2W4_Fmtflags@12@B	; std::_Iosb<int>::unitbuf
PUBLIC	?uppercase@?$_Iosb@H@std@@2W4_Fmtflags@12@B	; std::_Iosb<int>::uppercase
PUBLIC	?showbase@?$_Iosb@H@std@@2W4_Fmtflags@12@B	; std::_Iosb<int>::showbase
PUBLIC	?showpoint@?$_Iosb@H@std@@2W4_Fmtflags@12@B	; std::_Iosb<int>::showpoint
PUBLIC	?showpos@?$_Iosb@H@std@@2W4_Fmtflags@12@B	; std::_Iosb<int>::showpos
PUBLIC	?left@?$_Iosb@H@std@@2W4_Fmtflags@12@B		; std::_Iosb<int>::left
PUBLIC	?right@?$_Iosb@H@std@@2W4_Fmtflags@12@B		; std::_Iosb<int>::right
PUBLIC	?internal@?$_Iosb@H@std@@2W4_Fmtflags@12@B	; std::_Iosb<int>::internal
PUBLIC	?dec@?$_Iosb@H@std@@2W4_Fmtflags@12@B		; std::_Iosb<int>::dec
PUBLIC	?oct@?$_Iosb@H@std@@2W4_Fmtflags@12@B		; std::_Iosb<int>::oct
PUBLIC	?hex@?$_Iosb@H@std@@2W4_Fmtflags@12@B		; std::_Iosb<int>::hex
PUBLIC	?scientific@?$_Iosb@H@std@@2W4_Fmtflags@12@B	; std::_Iosb<int>::scientific
PUBLIC	?fixed@?$_Iosb@H@std@@2W4_Fmtflags@12@B		; std::_Iosb<int>::fixed
PUBLIC	?hexfloat@?$_Iosb@H@std@@2W4_Fmtflags@12@B	; std::_Iosb<int>::hexfloat
PUBLIC	?boolalpha@?$_Iosb@H@std@@2W4_Fmtflags@12@B	; std::_Iosb<int>::boolalpha
PUBLIC	?_Stdio@?$_Iosb@H@std@@2W4_Fmtflags@12@B	; std::_Iosb<int>::_Stdio
PUBLIC	?adjustfield@?$_Iosb@H@std@@2W4_Fmtflags@12@B	; std::_Iosb<int>::adjustfield
PUBLIC	?basefield@?$_Iosb@H@std@@2W4_Fmtflags@12@B	; std::_Iosb<int>::basefield
PUBLIC	?floatfield@?$_Iosb@H@std@@2W4_Fmtflags@12@B	; std::_Iosb<int>::floatfield
PUBLIC	?goodbit@?$_Iosb@H@std@@2W4_Iostate@12@B	; std::_Iosb<int>::goodbit
PUBLIC	?eofbit@?$_Iosb@H@std@@2W4_Iostate@12@B		; std::_Iosb<int>::eofbit
PUBLIC	?failbit@?$_Iosb@H@std@@2W4_Iostate@12@B	; std::_Iosb<int>::failbit
PUBLIC	?has_denorm@_Num_base@std@@2W4float_denorm_style@2@B ; std::_Num_base::has_denorm
PUBLIC	?badbit@?$_Iosb@H@std@@2W4_Iostate@12@B		; std::_Iosb<int>::badbit
PUBLIC	?has_denorm_loss@_Num_base@std@@2_NB		; std::_Num_base::has_denorm_loss
PUBLIC	?_Hardfail@?$_Iosb@H@std@@2W4_Iostate@12@B	; std::_Iosb<int>::_Hardfail
PUBLIC	?has_infinity@_Num_base@std@@2_NB		; std::_Num_base::has_infinity
PUBLIC	?has_quiet_NaN@_Num_base@std@@2_NB		; std::_Num_base::has_quiet_NaN
PUBLIC	?in@?$_Iosb@H@std@@2W4_Openmode@12@B		; std::_Iosb<int>::in
PUBLIC	?out@?$_Iosb@H@std@@2W4_Openmode@12@B		; std::_Iosb<int>::out
PUBLIC	?has_signaling_NaN@_Num_base@std@@2_NB		; std::_Num_base::has_signaling_NaN
PUBLIC	?ate@?$_Iosb@H@std@@2W4_Openmode@12@B		; std::_Iosb<int>::ate
PUBLIC	?is_bounded@_Num_base@std@@2_NB			; std::_Num_base::is_bounded
PUBLIC	?is_exact@_Num_base@std@@2_NB			; std::_Num_base::is_exact
PUBLIC	?app@?$_Iosb@H@std@@2W4_Openmode@12@B		; std::_Iosb<int>::app
PUBLIC	?is_iec559@_Num_base@std@@2_NB			; std::_Num_base::is_iec559
PUBLIC	?trunc@?$_Iosb@H@std@@2W4_Openmode@12@B		; std::_Iosb<int>::trunc
PUBLIC	?_Nocreate@?$_Iosb@H@std@@2W4_Openmode@12@B	; std::_Iosb<int>::_Nocreate
PUBLIC	?is_integer@_Num_base@std@@2_NB			; std::_Num_base::is_integer
PUBLIC	?_Noreplace@?$_Iosb@H@std@@2W4_Openmode@12@B	; std::_Iosb<int>::_Noreplace
PUBLIC	?is_modulo@_Num_base@std@@2_NB			; std::_Num_base::is_modulo
PUBLIC	?is_signed@_Num_base@std@@2_NB			; std::_Num_base::is_signed
PUBLIC	?binary@?$_Iosb@H@std@@2W4_Openmode@12@B	; std::_Iosb<int>::binary
PUBLIC	?misPos@@3UACMIMissilePositionRecord@@A		; misPos
PUBLIC	?is_specialized@_Num_base@std@@2_NB		; std::_Num_base::is_specialized
PUBLIC	?beg@?$_Iosb@H@std@@2W4_Seekdir@12@B		; std::_Iosb<int>::beg
PUBLIC	?tinyness_before@_Num_base@std@@2_NB		; std::_Num_base::tinyness_before
PUBLIC	?cur@?$_Iosb@H@std@@2W4_Seekdir@12@B		; std::_Iosb<int>::cur
PUBLIC	?traps@_Num_base@std@@2_NB			; std::_Num_base::traps
PUBLIC	?end@?$_Iosb@H@std@@2W4_Seekdir@12@B		; std::_Iosb<int>::end
PUBLIC	?round_style@_Num_base@std@@2W4float_round_style@2@B ; std::_Num_base::round_style
PUBLIC	?digits@_Num_base@std@@2HB			; std::_Num_base::digits
PUBLIC	?digits10@_Num_base@std@@2HB			; std::_Num_base::digits10
PUBLIC	?max_digits10@_Num_base@std@@2HB		; std::_Num_base::max_digits10
PUBLIC	?max_exponent@_Num_base@std@@2HB		; std::_Num_base::max_exponent
PUBLIC	?max_exponent10@_Num_base@std@@2HB		; std::_Num_base::max_exponent10
PUBLIC	?min_exponent@_Num_base@std@@2HB		; std::_Num_base::min_exponent
PUBLIC	?min_exponent10@_Num_base@std@@2HB		; std::_Num_base::min_exponent10
PUBLIC	?radix@_Num_base@std@@2HB			; std::_Num_base::radix
PUBLIC	?_Stream_err@failure@ios_base@std@@0W4io_errc@43@B ; std::ios_base::failure::_Stream_err
PUBLIC	?is_bounded@_Num_int_base@std@@2_NB		; std::_Num_int_base::is_bounded
PUBLIC	?is_exact@_Num_int_base@std@@2_NB		; std::_Num_int_base::is_exact
PUBLIC	?is_integer@_Num_int_base@std@@2_NB		; std::_Num_int_base::is_integer
PUBLIC	?is_modulo@_Num_int_base@std@@2_NB		; std::_Num_int_base::is_modulo
PUBLIC	?is_specialized@_Num_int_base@std@@2_NB		; std::_Num_int_base::is_specialized
PUBLIC	?radix@_Num_int_base@std@@2HB			; std::_Num_int_base::radix
PUBLIC	?has_denorm@_Num_float_base@std@@2W4float_denorm_style@2@B ; std::_Num_float_base::has_denorm
PUBLIC	?has_denorm_loss@_Num_float_base@std@@2_NB	; std::_Num_float_base::has_denorm_loss
PUBLIC	?has_infinity@_Num_float_base@std@@2_NB		; std::_Num_float_base::has_infinity
PUBLIC	?has_quiet_NaN@_Num_float_base@std@@2_NB	; std::_Num_float_base::has_quiet_NaN
PUBLIC	?has_signaling_NaN@_Num_float_base@std@@2_NB	; std::_Num_float_base::has_signaling_NaN
PUBLIC	?is_bounded@_Num_float_base@std@@2_NB		; std::_Num_float_base::is_bounded
PUBLIC	?is_exact@_Num_float_base@std@@2_NB		; std::_Num_float_base::is_exact
PUBLIC	?is_iec559@_Num_float_base@std@@2_NB		; std::_Num_float_base::is_iec559
PUBLIC	?is_integer@_Num_float_base@std@@2_NB		; std::_Num_float_base::is_integer
PUBLIC	?is_modulo@_Num_float_base@std@@2_NB		; std::_Num_float_base::is_modulo
PUBLIC	?is_signed@_Num_float_base@std@@2_NB		; std::_Num_float_base::is_signed
PUBLIC	?is_specialized@_Num_float_base@std@@2_NB	; std::_Num_float_base::is_specialized
PUBLIC	?tinyness_before@_Num_float_base@std@@2_NB	; std::_Num_float_base::tinyness_before
PUBLIC	?traps@_Num_float_base@std@@2_NB		; std::_Num_float_base::traps
PUBLIC	?round_style@_Num_float_base@std@@2W4float_round_style@2@B ; std::_Num_float_base::round_style
PUBLIC	?radix@_Num_float_base@std@@2HB			; std::_Num_float_base::radix
PUBLIC	?is_signed@?$numeric_limits@D@std@@2_NB		; std::numeric_limits<char>::is_signed
PUBLIC	?digits@?$numeric_limits@D@std@@2HB		; std::numeric_limits<char>::digits
PUBLIC	?digits10@?$numeric_limits@D@std@@2HB		; std::numeric_limits<char>::digits10
PUBLIC	?value@?$integral_constant@_N$0A@@std@@2_NB	; std::integral_constant<bool,0>::value
PUBLIC	?is_signed@?$numeric_limits@_W@std@@2_NB	; std::numeric_limits<wchar_t>::is_signed
PUBLIC	?digits@?$numeric_limits@_W@std@@2HB		; std::numeric_limits<wchar_t>::digits
PUBLIC	?digits10@?$numeric_limits@_W@std@@2HB		; std::numeric_limits<wchar_t>::digits10
PUBLIC	?value@?$integral_constant@_N$00@std@@2_NB	; std::integral_constant<bool,1>::value
PUBLIC	?SIMDIRTYDATA_INTERVAL@FalconEntity@@2KB	; FalconEntity::SIMDIRTYDATA_INTERVAL
PUBLIC	?CMPDIRTYDATA_INTERVAL@FalconEntity@@2KB	; FalconEntity::CMPDIRTYDATA_INTERVAL
PUBLIC	?is_modulo@?$numeric_limits@_N@std@@2_NB	; std::numeric_limits<bool>::is_modulo
PUBLIC	?is_signed@?$numeric_limits@_N@std@@2_NB	; std::numeric_limits<bool>::is_signed
PUBLIC	?digits@?$numeric_limits@_N@std@@2HB		; std::numeric_limits<bool>::digits
PUBLIC	?digits10@?$numeric_limits@_N@std@@2HB		; std::numeric_limits<bool>::digits10
_BSS	SEGMENT
?misPos@@3UACMIMissilePositionRecord@@A DB 025H DUP (?)	; misPos
_BSS	ENDS
;	COMDAT ?digits10@?$numeric_limits@_N@std@@2HB
CONST	SEGMENT
?digits10@?$numeric_limits@_N@std@@2HB DD 00H		; std::numeric_limits<bool>::digits10
CONST	ENDS
;	COMDAT ?digits@?$numeric_limits@_N@std@@2HB
CONST	SEGMENT
?digits@?$numeric_limits@_N@std@@2HB DD 01H		; std::numeric_limits<bool>::digits
CONST	ENDS
;	COMDAT ?is_signed@?$numeric_limits@_N@std@@2_NB
CONST	SEGMENT
?is_signed@?$numeric_limits@_N@std@@2_NB DB 00H		; std::numeric_limits<bool>::is_signed
CONST	ENDS
;	COMDAT ?is_modulo@?$numeric_limits@_N@std@@2_NB
CONST	SEGMENT
?is_modulo@?$numeric_limits@_N@std@@2_NB DB 00H		; std::numeric_limits<bool>::is_modulo
CONST	ENDS
;	COMDAT ?CMPDIRTYDATA_INTERVAL@FalconEntity@@2KB
CONST	SEGMENT
?CMPDIRTYDATA_INTERVAL@FalconEntity@@2KB DD 0c8H	; FalconEntity::CMPDIRTYDATA_INTERVAL
CONST	ENDS
;	COMDAT ?SIMDIRTYDATA_INTERVAL@FalconEntity@@2KB
CONST	SEGMENT
?SIMDIRTYDATA_INTERVAL@FalconEntity@@2KB DD 0c8H	; FalconEntity::SIMDIRTYDATA_INTERVAL
CONST	ENDS
;	COMDAT ?value@?$integral_constant@_N$00@std@@2_NB
CONST	SEGMENT
?value@?$integral_constant@_N$00@std@@2_NB DB 01H	; std::integral_constant<bool,1>::value
CONST	ENDS
;	COMDAT ?digits10@?$numeric_limits@_W@std@@2HB
CONST	SEGMENT
?digits10@?$numeric_limits@_W@std@@2HB DD 04H		; std::numeric_limits<wchar_t>::digits10
CONST	ENDS
;	COMDAT ?digits@?$numeric_limits@_W@std@@2HB
CONST	SEGMENT
?digits@?$numeric_limits@_W@std@@2HB DD 010H		; std::numeric_limits<wchar_t>::digits
CONST	ENDS
;	COMDAT ?is_signed@?$numeric_limits@_W@std@@2_NB
CONST	SEGMENT
?is_signed@?$numeric_limits@_W@std@@2_NB DB 00H		; std::numeric_limits<wchar_t>::is_signed
CONST	ENDS
;	COMDAT ?value@?$integral_constant@_N$0A@@std@@2_NB
CONST	SEGMENT
?value@?$integral_constant@_N$0A@@std@@2_NB DB 00H	; std::integral_constant<bool,0>::value
CONST	ENDS
;	COMDAT ?digits10@?$numeric_limits@D@std@@2HB
CONST	SEGMENT
?digits10@?$numeric_limits@D@std@@2HB DD 02H		; std::numeric_limits<char>::digits10
CONST	ENDS
;	COMDAT ?digits@?$numeric_limits@D@std@@2HB
CONST	SEGMENT
?digits@?$numeric_limits@D@std@@2HB DD 07H		; std::numeric_limits<char>::digits
CONST	ENDS
;	COMDAT ?is_signed@?$numeric_limits@D@std@@2_NB
CONST	SEGMENT
?is_signed@?$numeric_limits@D@std@@2_NB DB 01H		; std::numeric_limits<char>::is_signed
CONST	ENDS
;	COMDAT ?radix@_Num_float_base@std@@2HB
CONST	SEGMENT
?radix@_Num_float_base@std@@2HB DD 02H			; std::_Num_float_base::radix
CONST	ENDS
;	COMDAT ?round_style@_Num_float_base@std@@2W4float_round_style@2@B
CONST	SEGMENT
?round_style@_Num_float_base@std@@2W4float_round_style@2@B DD 01H ; std::_Num_float_base::round_style
CONST	ENDS
;	COMDAT ?traps@_Num_float_base@std@@2_NB
CONST	SEGMENT
?traps@_Num_float_base@std@@2_NB DB 00H			; std::_Num_float_base::traps
CONST	ENDS
;	COMDAT ?tinyness_before@_Num_float_base@std@@2_NB
CONST	SEGMENT
?tinyness_before@_Num_float_base@std@@2_NB DB 01H	; std::_Num_float_base::tinyness_before
CONST	ENDS
;	COMDAT ?is_specialized@_Num_float_base@std@@2_NB
CONST	SEGMENT
?is_specialized@_Num_float_base@std@@2_NB DB 01H	; std::_Num_float_base::is_specialized
CONST	ENDS
;	COMDAT ?is_signed@_Num_float_base@std@@2_NB
CONST	SEGMENT
?is_signed@_Num_float_base@std@@2_NB DB 01H		; std::_Num_float_base::is_signed
CONST	ENDS
;	COMDAT ?is_modulo@_Num_float_base@std@@2_NB
CONST	SEGMENT
?is_modulo@_Num_float_base@std@@2_NB DB 00H		; std::_Num_float_base::is_modulo
CONST	ENDS
;	COMDAT ?is_integer@_Num_float_base@std@@2_NB
CONST	SEGMENT
?is_integer@_Num_float_base@std@@2_NB DB 00H		; std::_Num_float_base::is_integer
CONST	ENDS
;	COMDAT ?is_iec559@_Num_float_base@std@@2_NB
CONST	SEGMENT
?is_iec559@_Num_float_base@std@@2_NB DB 01H		; std::_Num_float_base::is_iec559
CONST	ENDS
;	COMDAT ?is_exact@_Num_float_base@std@@2_NB
CONST	SEGMENT
?is_exact@_Num_float_base@std@@2_NB DB 00H		; std::_Num_float_base::is_exact
CONST	ENDS
;	COMDAT ?is_bounded@_Num_float_base@std@@2_NB
CONST	SEGMENT
?is_bounded@_Num_float_base@std@@2_NB DB 01H		; std::_Num_float_base::is_bounded
CONST	ENDS
;	COMDAT ?has_signaling_NaN@_Num_float_base@std@@2_NB
CONST	SEGMENT
?has_signaling_NaN@_Num_float_base@std@@2_NB DB 01H	; std::_Num_float_base::has_signaling_NaN
CONST	ENDS
;	COMDAT ?has_quiet_NaN@_Num_float_base@std@@2_NB
CONST	SEGMENT
?has_quiet_NaN@_Num_float_base@std@@2_NB DB 01H		; std::_Num_float_base::has_quiet_NaN
CONST	ENDS
;	COMDAT ?has_infinity@_Num_float_base@std@@2_NB
CONST	SEGMENT
?has_infinity@_Num_float_base@std@@2_NB DB 01H		; std::_Num_float_base::has_infinity
CONST	ENDS
;	COMDAT ?has_denorm_loss@_Num_float_base@std@@2_NB
CONST	SEGMENT
?has_denorm_loss@_Num_float_base@std@@2_NB DB 01H	; std::_Num_float_base::has_denorm_loss
CONST	ENDS
;	COMDAT ?has_denorm@_Num_float_base@std@@2W4float_denorm_style@2@B
CONST	SEGMENT
?has_denorm@_Num_float_base@std@@2W4float_denorm_style@2@B DD 01H ; std::_Num_float_base::has_denorm
CONST	ENDS
;	COMDAT ?radix@_Num_int_base@std@@2HB
CONST	SEGMENT
?radix@_Num_int_base@std@@2HB DD 02H			; std::_Num_int_base::radix
CONST	ENDS
;	COMDAT ?is_specialized@_Num_int_base@std@@2_NB
CONST	SEGMENT
?is_specialized@_Num_int_base@std@@2_NB DB 01H		; std::_Num_int_base::is_specialized
CONST	ENDS
;	COMDAT ?is_modulo@_Num_int_base@std@@2_NB
CONST	SEGMENT
?is_modulo@_Num_int_base@std@@2_NB DB 01H		; std::_Num_int_base::is_modulo
CONST	ENDS
;	COMDAT ?is_integer@_Num_int_base@std@@2_NB
CONST	SEGMENT
?is_integer@_Num_int_base@std@@2_NB DB 01H		; std::_Num_int_base::is_integer
CONST	ENDS
;	COMDAT ?is_exact@_Num_int_base@std@@2_NB
CONST	SEGMENT
?is_exact@_Num_int_base@std@@2_NB DB 01H		; std::_Num_int_base::is_exact
CONST	ENDS
;	COMDAT ?is_bounded@_Num_int_base@std@@2_NB
CONST	SEGMENT
?is_bounded@_Num_int_base@std@@2_NB DB 01H		; std::_Num_int_base::is_bounded
CONST	ENDS
CONST	SEGMENT
_L_2	DD	03f317218r			; 0.693147
_MISSILE_SPEED DD 044bb8000r			; 1500
_MISSILE_ALTITUDE_BONUS DD 041b80000r		; 23
_NEAR_CLIP DD	03f800000r			; 1
CONST	ENDS
;	COMDAT ?_Stream_err@failure@ios_base@std@@0W4io_errc@43@B
CONST	SEGMENT
?_Stream_err@failure@ios_base@std@@0W4io_errc@43@B DD 01H ; std::ios_base::failure::_Stream_err
CONST	ENDS
;	COMDAT ?radix@_Num_base@std@@2HB
CONST	SEGMENT
?radix@_Num_base@std@@2HB DD 00H			; std::_Num_base::radix
CONST	ENDS
;	COMDAT ?min_exponent10@_Num_base@std@@2HB
CONST	SEGMENT
?min_exponent10@_Num_base@std@@2HB DD 00H		; std::_Num_base::min_exponent10
CONST	ENDS
;	COMDAT ?min_exponent@_Num_base@std@@2HB
CONST	SEGMENT
?min_exponent@_Num_base@std@@2HB DD 00H			; std::_Num_base::min_exponent
CONST	ENDS
;	COMDAT ?max_exponent10@_Num_base@std@@2HB
CONST	SEGMENT
?max_exponent10@_Num_base@std@@2HB DD 00H		; std::_Num_base::max_exponent10
CONST	ENDS
;	COMDAT ?max_exponent@_Num_base@std@@2HB
CONST	SEGMENT
?max_exponent@_Num_base@std@@2HB DD 00H			; std::_Num_base::max_exponent
CONST	ENDS
;	COMDAT ?max_digits10@_Num_base@std@@2HB
CONST	SEGMENT
?max_digits10@_Num_base@std@@2HB DD 00H			; std::_Num_base::max_digits10
CONST	ENDS
;	COMDAT ?digits10@_Num_base@std@@2HB
CONST	SEGMENT
?digits10@_Num_base@std@@2HB DD 00H			; std::_Num_base::digits10
CONST	ENDS
;	COMDAT ?digits@_Num_base@std@@2HB
CONST	SEGMENT
?digits@_Num_base@std@@2HB DD 00H			; std::_Num_base::digits
CONST	ENDS
;	COMDAT ?round_style@_Num_base@std@@2W4float_round_style@2@B
CONST	SEGMENT
?round_style@_Num_base@std@@2W4float_round_style@2@B DD 00H ; std::_Num_base::round_style
CONST	ENDS
;	COMDAT ?end@?$_Iosb@H@std@@2W4_Seekdir@12@B
CONST	SEGMENT
?end@?$_Iosb@H@std@@2W4_Seekdir@12@B DD 02H		; std::_Iosb<int>::end
CONST	ENDS
;	COMDAT ?traps@_Num_base@std@@2_NB
CONST	SEGMENT
?traps@_Num_base@std@@2_NB DB 00H			; std::_Num_base::traps
CONST	ENDS
;	COMDAT ?cur@?$_Iosb@H@std@@2W4_Seekdir@12@B
CONST	SEGMENT
?cur@?$_Iosb@H@std@@2W4_Seekdir@12@B DD 01H		; std::_Iosb<int>::cur
CONST	ENDS
;	COMDAT ?tinyness_before@_Num_base@std@@2_NB
CONST	SEGMENT
?tinyness_before@_Num_base@std@@2_NB DB 00H		; std::_Num_base::tinyness_before
CONST	ENDS
;	COMDAT ?beg@?$_Iosb@H@std@@2W4_Seekdir@12@B
CONST	SEGMENT
?beg@?$_Iosb@H@std@@2W4_Seekdir@12@B DD 00H		; std::_Iosb<int>::beg
CONST	ENDS
;	COMDAT ?is_specialized@_Num_base@std@@2_NB
CONST	SEGMENT
?is_specialized@_Num_base@std@@2_NB DB 00H		; std::_Num_base::is_specialized
CONST	ENDS
;	COMDAT ?binary@?$_Iosb@H@std@@2W4_Openmode@12@B
CONST	SEGMENT
?binary@?$_Iosb@H@std@@2W4_Openmode@12@B DD 020H	; std::_Iosb<int>::binary
CONST	ENDS
;	COMDAT ?is_signed@_Num_base@std@@2_NB
CONST	SEGMENT
?is_signed@_Num_base@std@@2_NB DB 00H			; std::_Num_base::is_signed
CONST	ENDS
;	COMDAT ?is_modulo@_Num_base@std@@2_NB
CONST	SEGMENT
?is_modulo@_Num_base@std@@2_NB DB 00H			; std::_Num_base::is_modulo
CONST	ENDS
;	COMDAT ?_Noreplace@?$_Iosb@H@std@@2W4_Openmode@12@B
CONST	SEGMENT
?_Noreplace@?$_Iosb@H@std@@2W4_Openmode@12@B DD 080H	; std::_Iosb<int>::_Noreplace
CONST	ENDS
;	COMDAT ?is_integer@_Num_base@std@@2_NB
CONST	SEGMENT
?is_integer@_Num_base@std@@2_NB DB 00H			; std::_Num_base::is_integer
CONST	ENDS
;	COMDAT ?_Nocreate@?$_Iosb@H@std@@2W4_Openmode@12@B
CONST	SEGMENT
?_Nocreate@?$_Iosb@H@std@@2W4_Openmode@12@B DD 040H	; std::_Iosb<int>::_Nocreate
CONST	ENDS
;	COMDAT ?trunc@?$_Iosb@H@std@@2W4_Openmode@12@B
CONST	SEGMENT
?trunc@?$_Iosb@H@std@@2W4_Openmode@12@B DD 010H		; std::_Iosb<int>::trunc
CONST	ENDS
;	COMDAT ?is_iec559@_Num_base@std@@2_NB
CONST	SEGMENT
?is_iec559@_Num_base@std@@2_NB DB 00H			; std::_Num_base::is_iec559
CONST	ENDS
;	COMDAT ?app@?$_Iosb@H@std@@2W4_Openmode@12@B
CONST	SEGMENT
?app@?$_Iosb@H@std@@2W4_Openmode@12@B DD 08H		; std::_Iosb<int>::app
CONST	ENDS
;	COMDAT ?is_exact@_Num_base@std@@2_NB
CONST	SEGMENT
?is_exact@_Num_base@std@@2_NB DB 00H			; std::_Num_base::is_exact
CONST	ENDS
;	COMDAT ?is_bounded@_Num_base@std@@2_NB
CONST	SEGMENT
?is_bounded@_Num_base@std@@2_NB DB 00H			; std::_Num_base::is_bounded
CONST	ENDS
;	COMDAT ?ate@?$_Iosb@H@std@@2W4_Openmode@12@B
CONST	SEGMENT
?ate@?$_Iosb@H@std@@2W4_Openmode@12@B DD 04H		; std::_Iosb<int>::ate
CONST	ENDS
;	COMDAT ?has_signaling_NaN@_Num_base@std@@2_NB
CONST	SEGMENT
?has_signaling_NaN@_Num_base@std@@2_NB DB 00H		; std::_Num_base::has_signaling_NaN
CONST	ENDS
;	COMDAT ?out@?$_Iosb@H@std@@2W4_Openmode@12@B
CONST	SEGMENT
?out@?$_Iosb@H@std@@2W4_Openmode@12@B DD 02H		; std::_Iosb<int>::out
CONST	ENDS
;	COMDAT ?in@?$_Iosb@H@std@@2W4_Openmode@12@B
CONST	SEGMENT
?in@?$_Iosb@H@std@@2W4_Openmode@12@B DD 01H		; std::_Iosb<int>::in
CONST	ENDS
;	COMDAT ?has_quiet_NaN@_Num_base@std@@2_NB
CONST	SEGMENT
?has_quiet_NaN@_Num_base@std@@2_NB DB 00H		; std::_Num_base::has_quiet_NaN
CONST	ENDS
;	COMDAT ?has_infinity@_Num_base@std@@2_NB
CONST	SEGMENT
?has_infinity@_Num_base@std@@2_NB DB 00H		; std::_Num_base::has_infinity
CONST	ENDS
;	COMDAT ?_Hardfail@?$_Iosb@H@std@@2W4_Iostate@12@B
CONST	SEGMENT
?_Hardfail@?$_Iosb@H@std@@2W4_Iostate@12@B DD 010H	; std::_Iosb<int>::_Hardfail
CONST	ENDS
;	COMDAT ?has_denorm_loss@_Num_base@std@@2_NB
CONST	SEGMENT
?has_denorm_loss@_Num_base@std@@2_NB DB 00H		; std::_Num_base::has_denorm_loss
CONST	ENDS
;	COMDAT ?badbit@?$_Iosb@H@std@@2W4_Iostate@12@B
CONST	SEGMENT
?badbit@?$_Iosb@H@std@@2W4_Iostate@12@B DD 04H		; std::_Iosb<int>::badbit
CONST	ENDS
;	COMDAT ?has_denorm@_Num_base@std@@2W4float_denorm_style@2@B
CONST	SEGMENT
?has_denorm@_Num_base@std@@2W4float_denorm_style@2@B DD 00H ; std::_Num_base::has_denorm
CONST	ENDS
;	COMDAT ?failbit@?$_Iosb@H@std@@2W4_Iostate@12@B
CONST	SEGMENT
?failbit@?$_Iosb@H@std@@2W4_Iostate@12@B DD 02H		; std::_Iosb<int>::failbit
CONST	ENDS
;	COMDAT ?eofbit@?$_Iosb@H@std@@2W4_Iostate@12@B
CONST	SEGMENT
?eofbit@?$_Iosb@H@std@@2W4_Iostate@12@B DD 01H		; std::_Iosb<int>::eofbit
CONST	ENDS
;	COMDAT ?goodbit@?$_Iosb@H@std@@2W4_Iostate@12@B
CONST	SEGMENT
?goodbit@?$_Iosb@H@std@@2W4_Iostate@12@B DD 00H		; std::_Iosb<int>::goodbit
CONST	ENDS
;	COMDAT ?floatfield@?$_Iosb@H@std@@2W4_Fmtflags@12@B
CONST	SEGMENT
?floatfield@?$_Iosb@H@std@@2W4_Fmtflags@12@B DD 03000H	; std::_Iosb<int>::floatfield
CONST	ENDS
;	COMDAT ?basefield@?$_Iosb@H@std@@2W4_Fmtflags@12@B
CONST	SEGMENT
?basefield@?$_Iosb@H@std@@2W4_Fmtflags@12@B DD 0e00H	; std::_Iosb<int>::basefield
CONST	ENDS
;	COMDAT ?adjustfield@?$_Iosb@H@std@@2W4_Fmtflags@12@B
CONST	SEGMENT
?adjustfield@?$_Iosb@H@std@@2W4_Fmtflags@12@B DD 01c0H	; std::_Iosb<int>::adjustfield
CONST	ENDS
;	COMDAT ?_Stdio@?$_Iosb@H@std@@2W4_Fmtflags@12@B
CONST	SEGMENT
?_Stdio@?$_Iosb@H@std@@2W4_Fmtflags@12@B DD 08000H	; std::_Iosb<int>::_Stdio
CONST	ENDS
;	COMDAT ?boolalpha@?$_Iosb@H@std@@2W4_Fmtflags@12@B
CONST	SEGMENT
?boolalpha@?$_Iosb@H@std@@2W4_Fmtflags@12@B DD 04000H	; std::_Iosb<int>::boolalpha
CONST	ENDS
;	COMDAT ?hexfloat@?$_Iosb@H@std@@2W4_Fmtflags@12@B
CONST	SEGMENT
?hexfloat@?$_Iosb@H@std@@2W4_Fmtflags@12@B DD 03000H	; std::_Iosb<int>::hexfloat
CONST	ENDS
;	COMDAT ?fixed@?$_Iosb@H@std@@2W4_Fmtflags@12@B
CONST	SEGMENT
?fixed@?$_Iosb@H@std@@2W4_Fmtflags@12@B DD 02000H	; std::_Iosb<int>::fixed
CONST	ENDS
;	COMDAT ?scientific@?$_Iosb@H@std@@2W4_Fmtflags@12@B
CONST	SEGMENT
?scientific@?$_Iosb@H@std@@2W4_Fmtflags@12@B DD 01000H	; std::_Iosb<int>::scientific
CONST	ENDS
;	COMDAT ?hex@?$_Iosb@H@std@@2W4_Fmtflags@12@B
CONST	SEGMENT
?hex@?$_Iosb@H@std@@2W4_Fmtflags@12@B DD 0800H		; std::_Iosb<int>::hex
CONST	ENDS
;	COMDAT ?oct@?$_Iosb@H@std@@2W4_Fmtflags@12@B
CONST	SEGMENT
?oct@?$_Iosb@H@std@@2W4_Fmtflags@12@B DD 0400H		; std::_Iosb<int>::oct
CONST	ENDS
;	COMDAT ?dec@?$_Iosb@H@std@@2W4_Fmtflags@12@B
CONST	SEGMENT
?dec@?$_Iosb@H@std@@2W4_Fmtflags@12@B DD 0200H		; std::_Iosb<int>::dec
CONST	ENDS
;	COMDAT ?internal@?$_Iosb@H@std@@2W4_Fmtflags@12@B
CONST	SEGMENT
?internal@?$_Iosb@H@std@@2W4_Fmtflags@12@B DD 0100H	; std::_Iosb<int>::internal
CONST	ENDS
;	COMDAT ?right@?$_Iosb@H@std@@2W4_Fmtflags@12@B
CONST	SEGMENT
?right@?$_Iosb@H@std@@2W4_Fmtflags@12@B DD 080H		; std::_Iosb<int>::right
CONST	ENDS
;	COMDAT ?left@?$_Iosb@H@std@@2W4_Fmtflags@12@B
CONST	SEGMENT
?left@?$_Iosb@H@std@@2W4_Fmtflags@12@B DD 040H		; std::_Iosb<int>::left
CONST	ENDS
;	COMDAT ?showpos@?$_Iosb@H@std@@2W4_Fmtflags@12@B
CONST	SEGMENT
?showpos@?$_Iosb@H@std@@2W4_Fmtflags@12@B DD 020H	; std::_Iosb<int>::showpos
CONST	ENDS
;	COMDAT ?showpoint@?$_Iosb@H@std@@2W4_Fmtflags@12@B
CONST	SEGMENT
?showpoint@?$_Iosb@H@std@@2W4_Fmtflags@12@B DD 010H	; std::_Iosb<int>::showpoint
CONST	ENDS
;	COMDAT ?showbase@?$_Iosb@H@std@@2W4_Fmtflags@12@B
CONST	SEGMENT
?showbase@?$_Iosb@H@std@@2W4_Fmtflags@12@B DD 08H	; std::_Iosb<int>::showbase
CONST	ENDS
;	COMDAT ?uppercase@?$_Iosb@H@std@@2W4_Fmtflags@12@B
CONST	SEGMENT
?uppercase@?$_Iosb@H@std@@2W4_Fmtflags@12@B DD 04H	; std::_Iosb<int>::uppercase
CONST	ENDS
;	COMDAT ?unitbuf@?$_Iosb@H@std@@2W4_Fmtflags@12@B
CONST	SEGMENT
?unitbuf@?$_Iosb@H@std@@2W4_Fmtflags@12@B DD 02H	; std::_Iosb<int>::unitbuf
CONST	ENDS
;	COMDAT ?skipws@?$_Iosb@H@std@@2W4_Fmtflags@12@B
CONST	SEGMENT
?skipws@?$_Iosb@H@std@@2W4_Fmtflags@12@B DD 01H		; std::_Iosb<int>::skipws
CONST	ENDS
;	COMDAT ?value@?$_Sizeof@U_Nil@std@@U12@U12@U12@U12@U12@U12@U12@@std@@2IB
CONST	SEGMENT
?value@?$_Sizeof@U_Nil@std@@U12@U12@U12@U12@U12@U12@U12@@std@@2IB DD 00H ; std::_Sizeof<std::_Nil,std::_Nil,std::_Nil,std::_Nil,std::_Nil,std::_Nil,std::_Nil,std::_Nil>::value
CONST	ENDS
;	COMDAT ?min_exponent10@?$numeric_limits@O@std@@2HB
CONST	SEGMENT
?min_exponent10@?$numeric_limits@O@std@@2HB DD 0fffffecdH ; std::numeric_limits<long double>::min_exponent10
CONST	ENDS
;	COMDAT ?min_exponent@?$numeric_limits@O@std@@2HB
CONST	SEGMENT
?min_exponent@?$numeric_limits@O@std@@2HB DD 0fffffc03H	; std::numeric_limits<long double>::min_exponent
CONST	ENDS
;	COMDAT ?max_exponent10@?$numeric_limits@O@std@@2HB
CONST	SEGMENT
?max_exponent10@?$numeric_limits@O@std@@2HB DD 0134H	; std::numeric_limits<long double>::max_exponent10
CONST	ENDS
;	COMDAT ?max_exponent@?$numeric_limits@O@std@@2HB
CONST	SEGMENT
?max_exponent@?$numeric_limits@O@std@@2HB DD 0400H	; std::numeric_limits<long double>::max_exponent
CONST	ENDS
;	COMDAT ?max_digits10@?$numeric_limits@O@std@@2HB
CONST	SEGMENT
?max_digits10@?$numeric_limits@O@std@@2HB DD 011H	; std::numeric_limits<long double>::max_digits10
CONST	ENDS
;	COMDAT ?digits10@?$numeric_limits@O@std@@2HB
CONST	SEGMENT
?digits10@?$numeric_limits@O@std@@2HB DD 0fH		; std::numeric_limits<long double>::digits10
CONST	ENDS
;	COMDAT ?digits@?$numeric_limits@O@std@@2HB
CONST	SEGMENT
?digits@?$numeric_limits@O@std@@2HB DD 035H		; std::numeric_limits<long double>::digits
CONST	ENDS
;	COMDAT ?min_exponent10@?$numeric_limits@N@std@@2HB
CONST	SEGMENT
?min_exponent10@?$numeric_limits@N@std@@2HB DD 0fffffecdH ; std::numeric_limits<double>::min_exponent10
CONST	ENDS
;	COMDAT ?min_exponent@?$numeric_limits@N@std@@2HB
CONST	SEGMENT
?min_exponent@?$numeric_limits@N@std@@2HB DD 0fffffc03H	; std::numeric_limits<double>::min_exponent
CONST	ENDS
_DATA	SEGMENT
_cloudPntList DD 0c5bcc000r			; -6040
	DD	0c4070000r			; -540
	DD	0c694ac00r			; -19030
	DD	0c6de1c00r			; -28430
	DD	0c4dfc000r			; -1790
	DD	046dcc800r			; 28260
	DD	047104200r			; 36930
	DD	045732000r			; 3890
	DD	04744ea00r			; 50410
	DD	045336000r			; 2870
	DD	0c4d48000r			; -1700
	DD	04736da00r			; 46810
	DD	0c763ee00r			; -58350
	DD	0c4d48000r			; -1700
	DD	0c64c1000r			; -13060
	DD	046f2bc00r			; 31070
	DD	045480000r			; 3200
	DD	0c7293800r			; -43320
	DD	0c7bdc400r			; -97160
	DD	0c4d48000r			; -1700
	DD	04576e000r			; 3950
	DD	0c792e000r			; -75200
	DD	0c4bb8000r			; -1500
	DD	047957400r			; 76520
	DD	04759ee00r			; 55790
	DD	0c5a1e000r			; -5180
	DD	0c7a24e00r			; -83100
	DD	0c7473800r			; -51000
	DD	0c3a00000r			; -320
	DD	0c7829100r			; -66850
	DD	047733400r			; 62260
	DD	0c3a00000r			; -320
	DD	047708200r			; 61570
	DD	0c7710e00r			; -61710
	DD	0c550c000r			; -3340
	DD	046fb7c00r			; 32190
	DD	0c7719a00r			; -61850
	DD	0c7483200r			; -51250
	DD	047543a00r			; 54330
	DD	0c5bcc000r			; -6040
	DD	0c7495400r			; -51540
	DD	0c694ac00r			; -19030
	DD	0c6a7a800r			; -21460
	DD	0c74b0200r			; -51970
	DD	0468e8000r			; 18240
	DD	047298800r			; 43400
	DD	0c74bf200r			; -52210
	DD	046bc7000r			; 24120
	DD	0c749f400r			; -51700
	DD	0c74bc000r			; -52160
	DD	046948400r			; 19010
	DD	0c605e800r			; -8570
	DD	0c7488200r			; -51330
	DD	0c74ca600r			; -52390
	DD	04731bc00r			; 45500
	DD	0c7509800r			; -53400
	DD	0c6725800r			; -15510
	DD	0c7719a00r			; -61850
	DD	0c7483200r			; -51250
	DD	047543a00r			; 54330
	DD	047553400r			; 54580
	DD	0c74ddc00r			; -52700
	DD	0479a5600r			; 79020
	DD	047a7e400r			; 85960
	DD	0c74c5600r			; -52310
	DD	0477d4800r			; 64840
	DD	0c7c44500r			; -100490
	DD	0c74d1400r			; -52500
	DD	047ac2600r			; 88140
	DD	0c7a1ae00r			; -82780
	DD	0c749ea00r			; -51690
	DD	0c7bce300r			; -96710
	DD	0c6126800r			; -9370
	DD	0c7495400r			; -51540
	DD	043cd0000r			; 410
	DD	0c6a7a800r			; -21460
	DD	0c74a8a00r			; -51850
	DD	0473fae00r			; 49070
	DD	0457c8000r			; 4040
	DD	0c74e4a00r			; -52810
	DD	047871e00r			; 69180
	DD	0c6cbc000r			; -26080
	DD	0c74bc000r			; -52160
	DD	046984400r			; 19490
	DD	0452fa000r			; 2810
	DD	0c7488200r			; -51330
	DD	0c7081800r			; -34840
	DD	0c7719a00r			; -61850
	DD	0c749d600r			; -51670
	DD	047b17600r			; 90860
	DD	047553400r			; 54580
	DD	0c74ddc00r			; -52700
	DD	0479a5600r			; 79020
	DD	047a7e400r			; 85960
	DD	0c74c5600r			; -52310
	DD	0477d4800r			; 64840
	DD	0c7c44500r			; -100490
	DD	0c74d1400r			; -52500
	DD	047ac2600r			; 88140
	DD	047c04e00r			; 98460
	DD	0c74d1400r			; -52500
	DD	0c732a200r			; -45730
	DD	0467b9000r			; 16100
	DD	0c7487800r			; -51320
	DD	0c749a400r			; -51620
	DD	047636c00r			; 58220
	DD	0c74e0400r			; -52740
	DD	0c760b000r			; -57520
	DD	0c6126800r			; -9370
	DD	0c4070000r			; -540
	DD	043cd0000r			; 410
	DD	0c4e60000r			; -1840
	DD	0c6a30c00r			; -20870
	DD	0470a6600r			; 35430
	DD	0c7230c00r			; -41740
	DD	046924000r			; 18720
	DD	04797d600r			; 77740
	DD	0460d9000r			; 9060
	DD	0c616c800r			; -9650
	DD	0c7921300r			; -74790
_lightningPosList DD 041300000r			; 11
	DD	000000000r			; 0
	DD	040e00000r			; 7
	DD	040a00000r			; 5
	DD	041100000r			; 9
	DD	041000000r			; 8
	DD	041000000r			; 8
	DD	041600000r			; 14
	DD	041800000r			; 16
	DD	041a00000r			; 20
	DD	041200000r			; 10
	DD	041c00000r			; 24
	DD	041300000r			; 11
	DD	041d80000r			; 27
	DD	040c00000r			; 6
	DD	041f00000r			; 30
	DD	040e00000r			; 7
	DD	042040000r			; 33
	DD	03f800000r			; 1
	DD	042180000r			; 38
	DD	040a00000r			; 5
	DD	042280000r			; 42
	DD	040a00000r			; 5
	DD	042340000r			; 45
	DD	041400000r			; 12
	DD	042400000r			; 48
	DD	041a00000r			; 20
	DD	042500000r			; 52
	DD	041a00000r			; 20
	DD	042680000r			; 58
	DD	041b80000r			; 23
	DD	042740000r			; 61
	DD	041b00000r			; 22
	DD	0427c0000r			; 63
	DD	041b00000r			; 22
	DD	042840000r			; 66
	DD	041c80000r			; 25
	DD	042880000r			; 68
	DD	041a00000r			; 20
	DD	0428c0000r			; 70
	DD	041c00000r			; 24
	DD	042960000r			; 75
	DD	041c00000r			; 24
	DD	0429a0000r			; 77
	DD	041f80000r			; 31
	DD	042a00000r			; 80
	DD	041f80000r			; 31
	DD	042a60000r			; 83
	DD	042040000r			; 33
	DD	042b00000r			; 88
	DD	041f80000r			; 31
	DD	042b80000r			; 92
	DD	0423c0000r			; 47
	DD	042ce0000r			; 103
	DD	042380000r			; 46
	DD	042d20000r			; 105
	DD	0423c0000r			; 47
	DD	042d60000r			; 107
	DD	042340000r			; 45
	DD	042e00000r			; 112
	DD	042400000r			; 48
	DD	042e40000r			; 114
	DD	042380000r			; 46
	DD	042ea0000r			; 117
	DD	0422c0000r			; 43
	DD	043000000r			; 128
_DATA	ENDS
;	COMDAT ?max_exponent10@?$numeric_limits@N@std@@2HB
CONST	SEGMENT
?max_exponent10@?$numeric_limits@N@std@@2HB DD 0134H	; std::numeric_limits<double>::max_exponent10
CONST	ENDS
;	COMDAT ?max_exponent@?$numeric_limits@N@std@@2HB
CONST	SEGMENT
?max_exponent@?$numeric_limits@N@std@@2HB DD 0400H	; std::numeric_limits<double>::max_exponent
CONST	ENDS
;	COMDAT ?max_digits10@?$numeric_limits@N@std@@2HB
CONST	SEGMENT
?max_digits10@?$numeric_limits@N@std@@2HB DD 011H	; std::numeric_limits<double>::max_digits10
CONST	ENDS
;	COMDAT ?digits10@?$numeric_limits@N@std@@2HB
CONST	SEGMENT
?digits10@?$numeric_limits@N@std@@2HB DD 0fH		; std::numeric_limits<double>::digits10
CONST	ENDS
;	COMDAT ?digits@?$numeric_limits@N@std@@2HB
CONST	SEGMENT
?digits@?$numeric_limits@N@std@@2HB DD 035H		; std::numeric_limits<double>::digits
CONST	ENDS
;	COMDAT ?value@?$integral_constant@I$0A@@std@@2IB
CONST	SEGMENT
?value@?$integral_constant@I$0A@@std@@2IB DD 00H	; std::integral_constant<unsigned int,0>::value
CONST	ENDS
;	COMDAT ?min_exponent10@?$numeric_limits@M@std@@2HB
CONST	SEGMENT
?min_exponent10@?$numeric_limits@M@std@@2HB DD 0ffffffdbH ; std::numeric_limits<float>::min_exponent10
CONST	ENDS
;	COMDAT ?min_exponent@?$numeric_limits@M@std@@2HB
CONST	SEGMENT
?min_exponent@?$numeric_limits@M@std@@2HB DD 0ffffff83H	; std::numeric_limits<float>::min_exponent
CONST	ENDS
;	COMDAT ?max_exponent10@?$numeric_limits@M@std@@2HB
CONST	SEGMENT
?max_exponent10@?$numeric_limits@M@std@@2HB DD 026H	; std::numeric_limits<float>::max_exponent10
CONST	ENDS
;	COMDAT ?max_exponent@?$numeric_limits@M@std@@2HB
CONST	SEGMENT
?max_exponent@?$numeric_limits@M@std@@2HB DD 080H	; std::numeric_limits<float>::max_exponent
CONST	ENDS
;	COMDAT ?max_digits10@?$numeric_limits@M@std@@2HB
CONST	SEGMENT
?max_digits10@?$numeric_limits@M@std@@2HB DD 09H	; std::numeric_limits<float>::max_digits10
CONST	ENDS
;	COMDAT ?digits10@?$numeric_limits@M@std@@2HB
CONST	SEGMENT
?digits10@?$numeric_limits@M@std@@2HB DD 06H		; std::numeric_limits<float>::digits10
CONST	ENDS
;	COMDAT ?digits@?$numeric_limits@M@std@@2HB
CONST	SEGMENT
?digits@?$numeric_limits@M@std@@2HB DD 018H		; std::numeric_limits<float>::digits
CONST	ENDS
;	COMDAT ?digits10@?$numeric_limits@_K@std@@2HB
CONST	SEGMENT
?digits10@?$numeric_limits@_K@std@@2HB DD 013H		; std::numeric_limits<unsigned __int64>::digits10
CONST	ENDS
;	COMDAT ?digits@?$numeric_limits@_K@std@@2HB
CONST	SEGMENT
?digits@?$numeric_limits@_K@std@@2HB DD 040H		; std::numeric_limits<unsigned __int64>::digits
CONST	ENDS
;	COMDAT ?is_signed@?$numeric_limits@_K@std@@2_NB
CONST	SEGMENT
?is_signed@?$numeric_limits@_K@std@@2_NB DB 00H		; std::numeric_limits<unsigned __int64>::is_signed
CONST	ENDS
;	COMDAT ?digits10@?$numeric_limits@_J@std@@2HB
CONST	SEGMENT
?digits10@?$numeric_limits@_J@std@@2HB DD 012H		; std::numeric_limits<__int64>::digits10
CONST	ENDS
;	COMDAT ?digits@?$numeric_limits@_J@std@@2HB
CONST	SEGMENT
?digits@?$numeric_limits@_J@std@@2HB DD 03fH		; std::numeric_limits<__int64>::digits
CONST	ENDS
;	COMDAT ?is_signed@?$numeric_limits@_J@std@@2_NB
CONST	SEGMENT
?is_signed@?$numeric_limits@_J@std@@2_NB DB 01H		; std::numeric_limits<__int64>::is_signed
CONST	ENDS
;	COMDAT ?digits10@?$numeric_limits@K@std@@2HB
CONST	SEGMENT
?digits10@?$numeric_limits@K@std@@2HB DD 09H		; std::numeric_limits<unsigned long>::digits10
CONST	ENDS
;	COMDAT ?digits@?$numeric_limits@K@std@@2HB
CONST	SEGMENT
?digits@?$numeric_limits@K@std@@2HB DD 020H		; std::numeric_limits<unsigned long>::digits
CONST	ENDS
;	COMDAT ?is_signed@?$numeric_limits@K@std@@2_NB
CONST	SEGMENT
?is_signed@?$numeric_limits@K@std@@2_NB DB 00H		; std::numeric_limits<unsigned long>::is_signed
CONST	ENDS
;	COMDAT ?digits10@?$numeric_limits@J@std@@2HB
CONST	SEGMENT
?digits10@?$numeric_limits@J@std@@2HB DD 09H		; std::numeric_limits<long>::digits10
CONST	ENDS
;	COMDAT ?digits@?$numeric_limits@J@std@@2HB
CONST	SEGMENT
?digits@?$numeric_limits@J@std@@2HB DD 01fH		; std::numeric_limits<long>::digits
CONST	ENDS
;	COMDAT ?is_signed@?$numeric_limits@J@std@@2_NB
CONST	SEGMENT
?is_signed@?$numeric_limits@J@std@@2_NB DB 01H		; std::numeric_limits<long>::is_signed
CONST	ENDS
;	COMDAT ?digits10@?$numeric_limits@I@std@@2HB
CONST	SEGMENT
?digits10@?$numeric_limits@I@std@@2HB DD 09H		; std::numeric_limits<unsigned int>::digits10
CONST	ENDS
;	COMDAT ?digits@?$numeric_limits@I@std@@2HB
CONST	SEGMENT
?digits@?$numeric_limits@I@std@@2HB DD 020H		; std::numeric_limits<unsigned int>::digits
CONST	ENDS
;	COMDAT ?is_signed@?$numeric_limits@I@std@@2_NB
CONST	SEGMENT
?is_signed@?$numeric_limits@I@std@@2_NB DB 00H		; std::numeric_limits<unsigned int>::is_signed
CONST	ENDS
;	COMDAT ?table_size@?$ctype@D@std@@2IB
CONST	SEGMENT
?table_size@?$ctype@D@std@@2IB DD 0100H			; std::ctype<char>::table_size
CONST	ENDS
;	COMDAT ?digits10@?$numeric_limits@H@std@@2HB
CONST	SEGMENT
?digits10@?$numeric_limits@H@std@@2HB DD 09H		; std::numeric_limits<int>::digits10
CONST	ENDS
;	COMDAT ?digits@?$numeric_limits@H@std@@2HB
CONST	SEGMENT
?digits@?$numeric_limits@H@std@@2HB DD 01fH		; std::numeric_limits<int>::digits
CONST	ENDS
;	COMDAT ?value@?$_Sizeof@HU_Nil@std@@U12@U12@U12@U12@U12@U12@@std@@2IB
CONST	SEGMENT
?value@?$_Sizeof@HU_Nil@std@@U12@U12@U12@U12@U12@U12@@std@@2IB DD 01H ; std::_Sizeof<int,std::_Nil,std::_Nil,std::_Nil,std::_Nil,std::_Nil,std::_Nil,std::_Nil>::value
CONST	ENDS
;	COMDAT ?is_signed@?$numeric_limits@H@std@@2_NB
CONST	SEGMENT
?is_signed@?$numeric_limits@H@std@@2_NB DB 01H		; std::numeric_limits<int>::is_signed
CONST	ENDS
;	COMDAT ?digits10@?$numeric_limits@G@std@@2HB
CONST	SEGMENT
?digits10@?$numeric_limits@G@std@@2HB DD 04H		; std::numeric_limits<unsigned short>::digits10
CONST	ENDS
;	COMDAT ?digits@?$numeric_limits@G@std@@2HB
CONST	SEGMENT
?digits@?$numeric_limits@G@std@@2HB DD 010H		; std::numeric_limits<unsigned short>::digits
CONST	ENDS
;	COMDAT ?is_signed@?$numeric_limits@G@std@@2_NB
CONST	SEGMENT
?is_signed@?$numeric_limits@G@std@@2_NB DB 00H		; std::numeric_limits<unsigned short>::is_signed
CONST	ENDS
;	COMDAT ?digits10@?$numeric_limits@F@std@@2HB
CONST	SEGMENT
?digits10@?$numeric_limits@F@std@@2HB DD 04H		; std::numeric_limits<short>::digits10
CONST	ENDS
;	COMDAT ?digits@?$numeric_limits@F@std@@2HB
CONST	SEGMENT
?digits@?$numeric_limits@F@std@@2HB DD 0fH		; std::numeric_limits<short>::digits
CONST	ENDS
;	COMDAT ?none@?$_Locbase@H@std@@2HB
CONST	SEGMENT
?none@?$_Locbase@H@std@@2HB DD 00H			; std::_Locbase<int>::none
CONST	ENDS
;	COMDAT ?is_signed@?$numeric_limits@F@std@@2_NB
CONST	SEGMENT
?is_signed@?$numeric_limits@F@std@@2_NB DB 01H		; std::numeric_limits<short>::is_signed
CONST	ENDS
;	COMDAT ?all@?$_Locbase@H@std@@2HB
CONST	SEGMENT
?all@?$_Locbase@H@std@@2HB DD 03fH			; std::_Locbase<int>::all
CONST	ENDS
;	COMDAT ?messages@?$_Locbase@H@std@@2HB
CONST	SEGMENT
?messages@?$_Locbase@H@std@@2HB DD 020H			; std::_Locbase<int>::messages
CONST	ENDS
;	COMDAT ?time@?$_Locbase@H@std@@2HB
CONST	SEGMENT
?time@?$_Locbase@H@std@@2HB DD 010H			; std::_Locbase<int>::time
CONST	ENDS
;	COMDAT ?numeric@?$_Locbase@H@std@@2HB
CONST	SEGMENT
?numeric@?$_Locbase@H@std@@2HB DD 08H			; std::_Locbase<int>::numeric
CONST	ENDS
;	COMDAT ?monetary@?$_Locbase@H@std@@2HB
CONST	SEGMENT
?monetary@?$_Locbase@H@std@@2HB DD 04H			; std::_Locbase<int>::monetary
CONST	ENDS
;	COMDAT ?ctype@?$_Locbase@H@std@@2HB
CONST	SEGMENT
?ctype@?$_Locbase@H@std@@2HB DD 02H			; std::_Locbase<int>::ctype
CONST	ENDS
;	COMDAT ?collate@?$_Locbase@H@std@@2HB
CONST	SEGMENT
?collate@?$_Locbase@H@std@@2HB DD 01H			; std::_Locbase<int>::collate
CONST	ENDS
;	COMDAT ?digits10@?$numeric_limits@E@std@@2HB
CONST	SEGMENT
?digits10@?$numeric_limits@E@std@@2HB DD 02H		; std::numeric_limits<unsigned char>::digits10
CONST	ENDS
;	COMDAT ?digits@?$numeric_limits@E@std@@2HB
CONST	SEGMENT
?digits@?$numeric_limits@E@std@@2HB DD 08H		; std::numeric_limits<unsigned char>::digits
CONST	ENDS
;	COMDAT ?is_signed@?$numeric_limits@E@std@@2_NB
CONST	SEGMENT
?is_signed@?$numeric_limits@E@std@@2_NB DB 00H		; std::numeric_limits<unsigned char>::is_signed
CONST	ENDS
;	COMDAT ?digits10@?$numeric_limits@C@std@@2HB
CONST	SEGMENT
?digits10@?$numeric_limits@C@std@@2HB DD 02H		; std::numeric_limits<signed char>::digits10
CONST	ENDS
;	COMDAT ?digits@?$numeric_limits@C@std@@2HB
CONST	SEGMENT
?digits@?$numeric_limits@C@std@@2HB DD 07H		; std::numeric_limits<signed char>::digits
CONST	ENDS
;	COMDAT ?is_signed@?$numeric_limits@C@std@@2_NB
CONST	SEGMENT
?is_signed@?$numeric_limits@C@std@@2_NB DB 01H		; std::numeric_limits<signed char>::is_signed
CONST	ENDS
PUBLIC	_fabsf
PUBLIC	_atanf
PUBLIC	_cosf
PUBLIC	_sinf
PUBLIC	_tanf
PUBLIC	?atan@@YAMM@Z					; atan
PUBLIC	?cos@@YAMM@Z					; cos
PUBLIC	?fabs@@YAMM@Z					; fabs
PUBLIC	?sin@@YAMM@Z					; sin
PUBLIC	?tan@@YAMM@Z					; tan
PUBLIC	??2@YAPAXIPAX@Z					; operator new
PUBLIC	??3@YAXPAX0@Z					; operator delete
PUBLIC	?length@?$char_traits@D@std@@SAIPBD@Z		; std::char_traits<char>::length
PUBLIC	?copy@?$char_traits@D@std@@SAPADPADPBDI@Z	; std::char_traits<char>::copy
PUBLIC	?move@?$char_traits@D@std@@SAPADPADPBDI@Z	; std::char_traits<char>::move
PUBLIC	?assign@?$char_traits@D@std@@SAXAADABD@Z	; std::char_traits<char>::assign
PUBLIC	??0?$allocator@D@std@@QAE@XZ			; std::allocator<char>::allocator<char>
PUBLIC	?deallocate@?$allocator@D@std@@QAEXPADI@Z	; std::allocator<char>::deallocate
PUBLIC	?allocate@?$allocator@D@std@@QAEPADI@Z		; std::allocator<char>::allocate
PUBLIC	?max_size@?$allocator@D@std@@QBEIXZ		; std::allocator<char>::max_size
PUBLIC	?max_size@?$allocator_traits@V?$allocator@D@std@@@std@@SAIABV?$allocator@D@2@@Z ; std::allocator_traits<std::allocator<char> >::max_size
PUBLIC	??0?$_Wrap_alloc@V?$allocator@D@std@@@std@@QAE@XZ ; std::_Wrap_alloc<std::allocator<char> >::_Wrap_alloc<std::allocator<char> >
PUBLIC	?allocate@?$_Wrap_alloc@V?$allocator@D@std@@@std@@QAEPADI@Z ; std::_Wrap_alloc<std::allocator<char> >::allocate
PUBLIC	?deallocate@?$_Wrap_alloc@V?$allocator@D@std@@@std@@QAEXPADI@Z ; std::_Wrap_alloc<std::allocator<char> >::deallocate
PUBLIC	?max_size@?$_Wrap_alloc@V?$allocator@D@std@@@std@@QBEIXZ ; std::_Wrap_alloc<std::allocator<char> >::max_size
PUBLIC	??0?$_String_val@U?$_Simple_types@D@std@@@std@@QAE@XZ ; std::_String_val<std::_Simple_types<char> >::_String_val<std::_Simple_types<char> >
PUBLIC	?_Myptr@?$_String_val@U?$_Simple_types@D@std@@@std@@QAEPADXZ ; std::_String_val<std::_Simple_types<char> >::_Myptr
PUBLIC	?_Myptr@?$_String_val@U?$_Simple_types@D@std@@@std@@QBEPBDXZ ; std::_String_val<std::_Simple_types<char> >::_Myptr
PUBLIC	??0?$_String_alloc@$0A@U?$_String_base_types@DV?$allocator@D@std@@@std@@@std@@QAE@ABV?$allocator@D@1@@Z ; std::_String_alloc<0,std::_String_base_types<char,std::allocator<char> > >::_String_alloc<0,std::_String_base_types<char,std::allocator<char> > >
PUBLIC	?_Getal@?$_String_alloc@$0A@U?$_String_base_types@DV?$allocator@D@std@@@std@@@std@@QBE?AU?$_Wrap_alloc@V?$allocator@D@std@@@2@XZ ; std::_String_alloc<0,std::_String_base_types<char,std::allocator<char> > >::_Getal
PUBLIC	??0?$basic_string@DU?$char_traits@D@std@@V?$allocator@D@2@@std@@QAE@PBD@Z ; std::basic_string<char,std::char_traits<char>,std::allocator<char> >::basic_string<char,std::char_traits<char>,std::allocator<char> >
PUBLIC	?assign@?$basic_string@DU?$char_traits@D@std@@V?$allocator@D@2@@std@@QAEAAV12@ABV12@II@Z ; std::basic_string<char,std::char_traits<char>,std::allocator<char> >::assign
PUBLIC	?assign@?$basic_string@DU?$char_traits@D@std@@V?$allocator@D@2@@std@@QAEAAV12@PBDI@Z ; std::basic_string<char,std::char_traits<char>,std::allocator<char> >::assign
PUBLIC	?assign@?$basic_string@DU?$char_traits@D@std@@V?$allocator@D@2@@std@@QAEAAV12@PBD@Z ; std::basic_string<char,std::char_traits<char>,std::allocator<char> >::assign
PUBLIC	?erase@?$basic_string@DU?$char_traits@D@std@@V?$allocator@D@2@@std@@QAEAAV12@I@Z ; std::basic_string<char,std::char_traits<char>,std::allocator<char> >::erase
PUBLIC	?erase@?$basic_string@DU?$char_traits@D@std@@V?$allocator@D@2@@std@@QAEAAV12@II@Z ; std::basic_string<char,std::char_traits<char>,std::allocator<char> >::erase
PUBLIC	?size@?$basic_string@DU?$char_traits@D@std@@V?$allocator@D@2@@std@@QBEIXZ ; std::basic_string<char,std::char_traits<char>,std::allocator<char> >::size
PUBLIC	?max_size@?$basic_string@DU?$char_traits@D@std@@V?$allocator@D@2@@std@@QBEIXZ ; std::basic_string<char,std::char_traits<char>,std::allocator<char> >::max_size
PUBLIC	?_Copy@?$basic_string@DU?$char_traits@D@std@@V?$allocator@D@2@@std@@QAEXII@Z ; std::basic_string<char,std::char_traits<char>,std::allocator<char> >::_Copy
PUBLIC	?_Eos@?$basic_string@DU?$char_traits@D@std@@V?$allocator@D@2@@std@@QAEXI@Z ; std::basic_string<char,std::char_traits<char>,std::allocator<char> >::_Eos
PUBLIC	?_Grow@?$basic_string@DU?$char_traits@D@std@@V?$allocator@D@2@@std@@QAE_NI_N@Z ; std::basic_string<char,std::char_traits<char>,std::allocator<char> >::_Grow
PUBLIC	?_Inside@?$basic_string@DU?$char_traits@D@std@@V?$allocator@D@2@@std@@QAE_NPBD@Z ; std::basic_string<char,std::char_traits<char>,std::allocator<char> >::_Inside
PUBLIC	?_Tidy@?$basic_string@DU?$char_traits@D@std@@V?$allocator@D@2@@std@@QAEX_NI@Z ; std::basic_string<char,std::char_traits<char>,std::allocator<char> >::_Tidy
PUBLIC	?_Xlen@?$basic_string@DU?$char_traits@D@std@@V?$allocator@D@2@@std@@QBEXXZ ; std::basic_string<char,std::char_traits<char>,std::allocator<char> >::_Xlen
PUBLIC	?_Xran@?$basic_string@DU?$char_traits@D@std@@V?$allocator@D@2@@std@@QBEXXZ ; std::basic_string<char,std::char_traits<char>,std::allocator<char> >::_Xran
PUBLIC	??0id@locale@std@@QAE@I@Z			; std::locale::id::id
PUBLIC	?generic_category@std@@YAABVerror_category@1@XZ	; std::generic_category
PUBLIC	?system_category@std@@YAABVerror_category@1@XZ	; std::system_category
PUBLIC	??0error_category@std@@QAE@XZ			; std::error_category::error_category
PUBLIC	??1error_category@std@@UAE@XZ			; std::error_category::~error_category
PUBLIC	?default_error_condition@error_category@std@@UBE?AVerror_condition@2@H@Z ; std::error_category::default_error_condition
PUBLIC	?equivalent@error_category@std@@UBE_NHABVerror_condition@2@@Z ; std::error_category::equivalent
PUBLIC	?equivalent@error_category@std@@UBE_NABVerror_code@2@H@Z ; std::error_category::equivalent
PUBLIC	??8error_category@std@@QBE_NABV01@@Z		; std::error_category::operator==
PUBLIC	??_Gerror_category@std@@UAEPAXI@Z		; std::error_category::`scalar deleting destructor'
PUBLIC	?value@error_code@std@@QBEHXZ			; std::error_code::value
PUBLIC	?category@error_code@std@@QBEABVerror_category@2@XZ ; std::error_code::category
PUBLIC	??0error_condition@std@@QAE@HABVerror_category@1@@Z ; std::error_condition::error_condition
PUBLIC	?value@error_condition@std@@QBEHXZ		; std::error_condition::value
PUBLIC	?category@error_condition@std@@QBEABVerror_category@2@XZ ; std::error_condition::category
PUBLIC	??8error_condition@std@@QBE_NABV01@@Z		; std::error_condition::operator==
PUBLIC	??0_Generic_error_category@std@@QAE@XZ		; std::_Generic_error_category::_Generic_error_category
PUBLIC	?name@_Generic_error_category@std@@UBEPBDXZ	; std::_Generic_error_category::name
PUBLIC	?message@_Generic_error_category@std@@UBE?AV?$basic_string@DU?$char_traits@D@std@@V?$allocator@D@2@@2@H@Z ; std::_Generic_error_category::message
PUBLIC	??1_Generic_error_category@std@@UAE@XZ		; std::_Generic_error_category::~_Generic_error_category
PUBLIC	??_G_Generic_error_category@std@@UAEPAXI@Z	; std::_Generic_error_category::`scalar deleting destructor'
PUBLIC	??0_Iostream_error_category@std@@QAE@XZ		; std::_Iostream_error_category::_Iostream_error_category
PUBLIC	?name@_Iostream_error_category@std@@UBEPBDXZ	; std::_Iostream_error_category::name
PUBLIC	?message@_Iostream_error_category@std@@UBE?AV?$basic_string@DU?$char_traits@D@std@@V?$allocator@D@2@@2@H@Z ; std::_Iostream_error_category::message
PUBLIC	??1_Iostream_error_category@std@@UAE@XZ		; std::_Iostream_error_category::~_Iostream_error_category
PUBLIC	??_G_Iostream_error_category@std@@UAEPAXI@Z	; std::_Iostream_error_category::`scalar deleting destructor'
PUBLIC	??0_System_error_category@std@@QAE@XZ		; std::_System_error_category::_System_error_category
PUBLIC	?name@_System_error_category@std@@UBEPBDXZ	; std::_System_error_category::name
PUBLIC	?message@_System_error_category@std@@UBE?AV?$basic_string@DU?$char_traits@D@std@@V?$allocator@D@2@@2@H@Z ; std::_System_error_category::message
PUBLIC	?default_error_condition@_System_error_category@std@@UBE?AVerror_condition@2@H@Z ; std::_System_error_category::default_error_condition
PUBLIC	??1_System_error_category@std@@UAE@XZ		; std::_System_error_category::~_System_error_category
PUBLIC	??_G_System_error_category@std@@UAEPAXI@Z	; std::_System_error_category::`scalar deleting destructor'
PUBLIC	?GetPosition@DrawableObject@@QAEXPAUTpoint@@@Z	; DrawableObject::GetPosition
PUBLIC	?GetNumSwitches@DrawableBSP@@QAEHXZ		; DrawableBSP::GetNumSwitches
PUBLIC	?SetYPR@VuEntity@@QAEXMMM@Z			; VuEntity::SetYPR
PUBLIC	?SetYPRDelta@VuEntity@@QAEXMMM@Z		; VuEntity::SetYPRDelta
PUBLIC	?Id@VuEntity@@QBE?AVVU_ID@@XZ			; VuEntity::Id
PUBLIC	?Type@VuEntity@@QBEGXZ				; VuEntity::Type
PUBLIC	?XPos@VuEntity@@QBEMXZ				; VuEntity::XPos
PUBLIC	?YPos@VuEntity@@QBEMXZ				; VuEntity::YPos
PUBLIC	?ZPos@VuEntity@@QBEMXZ				; VuEntity::ZPos
PUBLIC	?XDelta@VuEntity@@QBEMXZ			; VuEntity::XDelta
PUBLIC	?YDelta@VuEntity@@QBEMXZ			; VuEntity::YDelta
PUBLIC	?ZDelta@VuEntity@@QBEMXZ			; VuEntity::ZDelta
PUBLIC	?Yaw@VuEntity@@QBEMXZ				; VuEntity::Yaw
PUBLIC	?Pitch@VuEntity@@QBEMXZ				; VuEntity::Pitch
PUBLIC	?EntityType@VuEntity@@QBEPAUVuEntityType@@XZ	; VuEntity::EntityType
PUBLIC	??B?$VuBin@VVuSessionEntity@@@@QBE_NXZ		; VuBin<VuSessionEntity>::operator bool
PUBLIC	?get@?$VuBin@VVuSessionEntity@@@@QBEPAVVuSessionEntity@@XZ ; VuBin<VuSessionEntity>::get
PUBLIC	?RequestReliableTransmit@VuMessage@@QAEXXZ	; VuMessage::RequestReliableTransmit
PUBLIC	?RequestOutOfBandTransmit@VuMessage@@QAEXXZ	; VuMessage::RequestOutOfBandTransmit
PUBLIC	?IsCampBase@FalconEntity@@UAE_NXZ		; FalconEntity::IsCampBase
PUBLIC	?IsCampaign@FalconEntity@@QAEHXZ		; FalconEntity::IsCampaign
PUBLIC	?IsSim@FalconEntity@@QAEHXZ			; FalconEntity::IsSim
PUBLIC	?GetRadarMode@FalconEntity@@UAEHXZ		; FalconEntity::GetRadarMode
PUBLIC	?SetRadarMode@FalconEntity@@UAEXE@Z		; FalconEntity::SetRadarMode
PUBLIC	?ReturnToSearch@FalconEntity@@UAEXXZ		; FalconEntity::ReturnToSearch
PUBLIC	?SetSearchMode@FalconEntity@@UAEXE@Z		; FalconEntity::SetSearchMode
PUBLIC	?CombatClass@FalconEntity@@UAEHXZ		; FalconEntity::CombatClass
PUBLIC	?HasEntity@FalconEntity@@UBEHPAVVuEntity@@@Z	; FalconEntity::HasEntity
PUBLIC	?IsLauncher@FalconEntity@@UAEHXZ		; FalconEntity::IsLauncher
PUBLIC	?IsBomb@FalconEntity@@UAEHXZ			; FalconEntity::IsBomb
PUBLIC	?IsGun@FalconEntity@@UAEHXZ			; FalconEntity::IsGun
PUBLIC	?IsVehicle@FalconEntity@@UAEHXZ			; FalconEntity::IsVehicle
PUBLIC	?IsStatic@FalconEntity@@UAEHXZ			; FalconEntity::IsStatic
PUBLIC	?IsHelicopter@FalconEntity@@UAEHXZ		; FalconEntity::IsHelicopter
PUBLIC	?IsEject@FalconEntity@@UAEHXZ			; FalconEntity::IsEject
PUBLIC	?IsAirplane@FalconEntity@@UAEHXZ		; FalconEntity::IsAirplane
PUBLIC	?IsGroundVehicle@FalconEntity@@UAEHXZ		; FalconEntity::IsGroundVehicle
PUBLIC	?IsShip@FalconEntity@@UAEHXZ			; FalconEntity::IsShip
PUBLIC	?IsDead@FalconEntity@@UAEHXZ			; FalconEntity::IsDead
PUBLIC	?IsEmitting@FalconEntity@@UAEHXZ		; FalconEntity::IsEmitting
PUBLIC	?IsUnit@FalconEntity@@UAEHXZ			; FalconEntity::IsUnit
PUBLIC	?IsObjective@FalconEntity@@UAEHXZ		; FalconEntity::IsObjective
PUBLIC	?IsBattalion@FalconEntity@@UAEHXZ		; FalconEntity::IsBattalion
PUBLIC	?IsBrigade@FalconEntity@@UAEHXZ			; FalconEntity::IsBrigade
PUBLIC	?IsFlight@FalconEntity@@UBEHXZ			; FalconEntity::IsFlight
PUBLIC	?IsSquadron@FalconEntity@@UAEHXZ		; FalconEntity::IsSquadron
PUBLIC	?IsPackage@FalconEntity@@UAEHXZ			; FalconEntity::IsPackage
PUBLIC	?IsTeam@FalconEntity@@UAEHXZ			; FalconEntity::IsTeam
PUBLIC	?IsTaskForce@FalconEntity@@UAEHXZ		; FalconEntity::IsTaskForce
PUBLIC	?GetRCSFactor@FalconEntity@@UAEMXZ		; FalconEntity::GetRCSFactor
PUBLIC	?GetIRFactor@FalconEntity@@UAEMXZ		; FalconEntity::GetIRFactor
PUBLIC	?SetAQUIREtimer@FalconEntity@@UAEXK@Z		; FalconEntity::SetAQUIREtimer
PUBLIC	?SetSEARCHtimer@FalconEntity@@UAEXK@Z		; FalconEntity::SetSEARCHtimer
PUBLIC	?SetStepSearchMode@FalconEntity@@UAEXE@Z	; FalconEntity::SetStepSearchMode
PUBLIC	?GetAQUIREtimer@FalconEntity@@UAEKXZ		; FalconEntity::GetAQUIREtimer
PUBLIC	?GetSEARCHtimer@FalconEntity@@UAEKXZ		; FalconEntity::GetSEARCHtimer
PUBLIC	?checked_atan2@@YANNN@Z				; checked_atan2
PUBLIC	?Type@SensorClass@@QAE?AW4SensorType@1@XZ	; SensorClass::Type
PUBLIC	?SeekerAz@SensorClass@@QAEMXZ			; SensorClass::SeekerAz
PUBLIC	?SeekerEl@SensorClass@@QAEMXZ			; SensorClass::SeekerEl
PUBLIC	??0ObjectGeometry@@QAE@XZ			; ObjectGeometry::ObjectGeometry
PUBLIC	??1ObjectGeometry@@QAE@XZ			; ObjectGeometry::~ObjectGeometry
PUBLIC	?get@?$VuBin@VCampBaseClass@@@@QBEPAVCampBaseClass@@XZ ; VuBin<CampBaseClass>::get
PUBLIC	?JoinFlight@SimBaseClass@@UAEXXZ		; SimBaseClass::JoinFlight
PUBLIC	?IsSimBase@SimBaseClass@@UAE_NXZ		; SimBaseClass::IsSimBase
PUBLIC	?GetSlot@SimBaseClass@@QAEHXZ			; SimBaseClass::GetSlot
PUBLIC	?GetCountry@SimBaseClass@@UAEEXZ		; SimBaseClass::GetCountry
PUBLIC	?OnGround@SimBaseClass@@UAEHXZ			; SimBaseClass::OnGround
PUBLIC	?IsExploding@SimBaseClass@@UAEHXZ		; SimBaseClass::IsExploding
PUBLIC	?IsDead@SimBaseClass@@UBEHXZ			; SimBaseClass::IsDead
PUBLIC	?IsAwake@SimBaseClass@@QBEHXZ			; SimBaseClass::IsAwake
PUBLIC	?IsSetFlag@SimBaseClass@@QBEHH@Z		; SimBaseClass::IsSetFlag
PUBLIC	?GetCampaignObject@SimBaseClass@@QAEPAVCampBaseClass@@XZ ; SimBaseClass::GetCampaignObject
PUBLIC	?PowerOutput@SimBaseClass@@QAEMXZ		; SimBaseClass::PowerOutput
PUBLIC	?MakePlayerVehicle@SimBaseClass@@UAEXXZ		; SimBaseClass::MakePlayerVehicle
PUBLIC	?MakeNonPlayerVehicle@SimBaseClass@@UAEXXZ	; SimBaseClass::MakeNonPlayerVehicle
PUBLIC	?ConfigurePlayerAvionics@SimBaseClass@@UAEXXZ	; SimBaseClass::ConfigurePlayerAvionics
PUBLIC	?Regenerate@SimBaseClass@@UAEXMMMM@Z		; SimBaseClass::Regenerate
PUBLIC	?Mass@SimBaseClass@@UAEMXZ			; SimBaseClass::Mass
PUBLIC	??7?$VuBin@VFalconEntity@@@@QBE_NXZ		; VuBin<FalconEntity>::operator!
PUBLIC	??B?$VuBin@VFalconEntity@@@@QBE_NXZ		; VuBin<FalconEntity>::operator bool
PUBLIC	??C?$VuBin@VFalconEntity@@@@QBEPAVFalconEntity@@XZ ; VuBin<FalconEntity>::operator->
PUBLIC	?get@?$VuBin@VFalconEntity@@@@QBEPAVFalconEntity@@XZ ; VuBin<FalconEntity>::get
PUBLIC	?SetLead@SimMoverClass@@UAEXH@Z			; SimMoverClass::SetLead
PUBLIC	?WeaponKeepAlive@SimMoverClass@@UAEXXZ		; SimMoverClass::WeaponKeepAlive
PUBLIC	?IsMover@SimMoverClass@@UAEHXZ			; SimMoverClass::IsMover
PUBLIC	?SetSeekerPos@MaverickDisplayClass@@QAEXMM@Z	; MaverickDisplayClass::SetSeekerPos
PUBLIC	?BaseData@SimObjectType@@QAEPAVFalconEntity@@XZ	; SimObjectType::BaseData
PUBLIC	?GetGame@FalconSessionEntity@@QAEPAVFalconGameEntity@@XZ ; FalconSessionEntity::GetGame
PUBLIC	?GetComponents@CampBaseClass@@QBEPAVTailInsertList@@XZ ; CampBaseClass::GetComponents
PUBLIC	?IsAggregate@CampBaseClass@@QAEHXZ		; CampBaseClass::IsAggregate
PUBLIC	?MotionOn@SimulationDriver@@QAEHXZ		; SimulationDriver::MotionOn
PUBLIC	?GenerateFastRandom@@YAJXZ			; GenerateFastRandom
PUBLIC	?PRANDInt3@@YAHXZ				; PRANDInt3
PUBLIC	?IsRecording@ACMIRecorder@@QAEHXZ		; ACMIRecorder::IsRecording
PUBLIC	?IsWeapon@SimWeaponClass@@UAEHXZ		; SimWeaponClass::IsWeapon
PUBLIC	?IsUseable@SimWeaponClass@@UAEHXZ		; SimWeaponClass::IsUseable
PUBLIC	?IncrementMissileCount@BattalionClass@@QAEXXZ	; BattalionClass::IncrementMissileCount
PUBLIC	?DecrementMissileCount@BattalionClass@@QAEXXZ	; BattalionClass::DecrementMissileCount
PUBLIC	?IncrementMissileCount@TaskForceClass@@QAEXXZ	; TaskForceClass::IncrementMissileCount
PUBLIC	?DecrementMissileCount@TaskForceClass@@QAEXXZ	; TaskForceClass::DecrementMissileCount
PUBLIC	??0MissileInFlightData@@QAE@XZ			; MissileInFlightData::MissileInFlightData
PUBLIC	??1MissileInFlightData@@QAE@XZ			; MissileInFlightData::~MissileInFlightData
PUBLIC	??_GMissileInFlightData@@QAEPAXI@Z		; MissileInFlightData::`scalar deleting destructor'
PUBLIC	??0MissileClass@@QAE@PAPAEPAJ@Z			; MissileClass::MissileClass
PUBLIC	??0MissileClass@@QAE@PAU_iobuf@@@Z		; MissileClass::MissileClass
PUBLIC	??0MissileClass@@QAE@H@Z			; MissileClass::MissileClass
PUBLIC	??1MissileClass@@UAE@XZ				; MissileClass::~MissileClass
PUBLIC	?InitData@MissileClass@@UAEXXZ			; MissileClass::InitData
PUBLIC	?CleanupData@MissileClass@@UAEXXZ		; MissileClass::CleanupData
PUBLIC	?InitLocalData@MissileClass@@AAEXXZ		; MissileClass::InitLocalData
PUBLIC	?CleanupLocalData@MissileClass@@AAEXXZ		; MissileClass::CleanupLocalData
PUBLIC	?GetSeekerType@MissileClass@@QAEHXZ		; MissileClass::GetSeekerType
PUBLIC	?LaunchDelayTime@MissileClass@@UAEHXZ		; MissileClass::LaunchDelayTime
PUBLIC	?Init@MissileClass@@UAEXXZ			; MissileClass::Init
PUBLIC	?Init@MissileClass@@UAEXPAVSimInitDataClass@@@Z	; MissileClass::Init
PUBLIC	?Exec@MissileClass@@UAEHXZ			; MissileClass::Exec
PUBLIC	?GetTransform@MissileClass@@UAEXQAY02M@Z	; MissileClass::GetTransform
PUBLIC	?Start@MissileClass@@QAEXPAVSimObjectType@@@Z	; MissileClass::Start
PUBLIC	?ClearReferences@MissileClass@@QAEXXZ		; MissileClass::ClearReferences
PUBLIC	?SetSeekerPos@MissileClass@@QAEHPAM0@Z		; MissileClass::SetSeekerPos
PUBLIC	?GetSeekerPos@MissileClass@@QAEXPAM0@Z		; MissileClass::GetSeekerPos
PUBLIC	?UpdatePosition@MissileClass@@QAEXXZ		; MissileClass::UpdatePosition
PUBLIC	?GetRMax@MissileClass@@QAEMMMMMM@Z		; MissileClass::GetRMax
PUBLIC	?GetTOF@MissileClass@@QAEMMMMMM@Z		; MissileClass::GetTOF
PUBLIC	?GetASE@MissileClass@@QAEMMMMMM@Z		; MissileClass::GetASE
PUBLIC	?GetActiveTime@MissileClass@@QAEMMMMMM@Z	; MissileClass::GetActiveTime
PUBLIC	?GetActiveRange@MissileClass@@QAEMMMMMM@Z	; MissileClass::GetActiveRange
PUBLIC	?SetDead@MissileClass@@UAEXH@Z			; MissileClass::SetDead
PUBLIC	?Sleep@MissileClass@@UAEHXZ			; MissileClass::Sleep
PUBLIC	?Wake@MissileClass@@UAEHXZ			; MissileClass::Wake
PUBLIC	?SetVuPosition@MissileClass@@UAEXXZ		; MissileClass::SetVuPosition
PUBLIC	?IsMissile@MissileClass@@UAEHXZ			; MissileClass::IsMissile
PUBLIC	?FindRocketGroundImpact@MissileClass@@QAEHPAM000@Z ; MissileClass::FindRocketGroundImpact
PUBLIC	?FlyMissile@MissileClass@@AAEXXZ		; MissileClass::FlyMissile
PUBLIC	?EndMissile@MissileClass@@AAEXXZ		; MissileClass::EndMissile
PUBLIC	?ApplyProximityDamage@MissileClass@@AAEXXZ	; MissileClass::ApplyProximityDamage
PUBLIC	??_GMissileClass@@UAEPAXI@Z			; MissileClass::`scalar deleting destructor'
PUBLIC	?GetColor@TeamClass@@QAEHXZ			; TeamClass::GetColor
PUBLIC	??$construct@PADAAPAD@?$_Wrap_alloc@V?$allocator@D@std@@@std@@QAEXPAPADAAPAD@Z ; std::_Wrap_alloc<std::allocator<char> >::construct<char *,char * &>
PUBLIC	??$destroy@PAD@?$_Wrap_alloc@V?$allocator@D@std@@@std@@QAEXPAPAD@Z ; std::_Wrap_alloc<std::allocator<char> >::destroy<char *>
PUBLIC	??$addressof@D@std@@YAPADAAD@Z			; std::addressof<char>
PUBLIC	??$_Allocate@D@std@@YAPADIPAD@Z			; std::_Allocate<char>
PUBLIC	??$forward@AAPAD@std@@YAAAPADAAPAD@Z		; std::forward<char * &>
PUBLIC	??$construct@PADAAPAD@?$allocator_traits@V?$allocator@D@std@@@std@@SAXAAV?$allocator@D@1@PAPADAAPAD@Z ; std::allocator_traits<std::allocator<char> >::construct<char *,char * &>
PUBLIC	??$destroy@PAD@?$allocator_traits@V?$allocator@D@std@@@std@@SAXAAV?$allocator@D@1@PAPAD@Z ; std::allocator_traits<std::allocator<char> >::destroy<char *>
PUBLIC	??$construct@PADAAPAD@?$allocator@D@std@@QAEXPAPADAAPAD@Z ; std::allocator<char>::construct<char *,char * &>
PUBLIC	??$destroy@PAD@?$allocator@D@std@@QAEXPAPAD@Z	; std::allocator<char>::destroy<char *>
PUBLIC	??_7error_category@std@@6B@			; std::error_category::`vftable'
PUBLIC	??_7_Generic_error_category@std@@6B@		; std::_Generic_error_category::`vftable'
PUBLIC	??_C@_07DCLBNMLN@generic?$AA@			; `string'
PUBLIC	??_C@_0O@BFJCFAAK@unknown?5error?$AA@		; `string'
PUBLIC	??_7_Iostream_error_category@std@@6B@		; std::_Iostream_error_category::`vftable'
PUBLIC	??_C@_08LLGCOLLL@iostream?$AA@			; `string'
PUBLIC	??_C@_0BG@PADBLCHM@iostream?5stream?5error?$AA@	; `string'
PUBLIC	??_7_System_error_category@std@@6B@		; std::_System_error_category::`vftable'
PUBLIC	??_C@_06FHFOAHML@system?$AA@			; `string'
PUBLIC	?_Generic_object@?$_Error_objects@H@std@@2V_Generic_error_category@2@A ; std::_Error_objects<int>::_Generic_object
PUBLIC	?_Iostream_object@?$_Error_objects@H@std@@2V_Iostream_error_category@2@A ; std::_Error_objects<int>::_Iostream_object
PUBLIC	?_System_object@?$_Error_objects@H@std@@2V_System_error_category@2@A ; std::_Error_objects<int>::_System_object
PUBLIC	?id@?$num_put@DV?$back_insert_iterator@V?$basic_string@DU?$char_traits@D@std@@V?$allocator@D@2@@std@@@std@@@std@@2V0locale@2@A ; std::num_put<char,std::back_insert_iterator<std::basic_string<char,std::char_traits<char>,std::allocator<char> > > >::id
PUBLIC	?id@?$num_put@_WV?$back_insert_iterator@V?$basic_string@_WU?$char_traits@_W@std@@V?$allocator@_W@2@@std@@@std@@@std@@2V0locale@2@A ; std::num_put<wchar_t,std::back_insert_iterator<std::basic_string<wchar_t,std::char_traits<wchar_t>,std::allocator<wchar_t> > > >::id
PUBLIC	?LastRandom@?1??GenerateFastRandom@@YAJXZ@4JA	; `GenerateFastRandom'::`2'::LastRandom
PUBLIC	??_7MissileClass@@6B@				; MissileClass::`vftable'
PUBLIC	??_C@_0FN@MNJCEOEK@?$CK?$CK?9?9?$CK?$CK?5Rng?5?$CFf?5Imp?5X?5?$CFf?5Imp?5Y?5?$CFf?5@ ; `string'
PUBLIC	?id@?$numpunct@D@std@@2V0locale@2@A		; std::numpunct<char>::id
PUBLIC	?id@?$numpunct@_W@std@@2V0locale@2@A		; std::numpunct<wchar_t>::id
PUBLIC	??_C@_0BI@CFPLBAOH@invalid?5string?5position?$AA@ ; `string'
PUBLIC	??_C@_0BA@JFNIOLAK@string?5too?5long?$AA@	; `string'
PUBLIC	??_R4error_category@std@@6B@			; std::error_category::`RTTI Complete Object Locator'
PUBLIC	??_R0?AVerror_category@std@@@8			; std::error_category `RTTI Type Descriptor'
PUBLIC	??_R3error_category@std@@8			; std::error_category::`RTTI Class Hierarchy Descriptor'
PUBLIC	??_R2error_category@std@@8			; std::error_category::`RTTI Base Class Array'
PUBLIC	??_R1A@?0A@EA@error_category@std@@8		; std::error_category::`RTTI Base Class Descriptor at (0,-1,0,64)'
PUBLIC	??_R4_Generic_error_category@std@@6B@		; std::_Generic_error_category::`RTTI Complete Object Locator'
PUBLIC	??_R0?AV_Generic_error_category@std@@@8		; std::_Generic_error_category `RTTI Type Descriptor'
PUBLIC	??_R3_Generic_error_category@std@@8		; std::_Generic_error_category::`RTTI Class Hierarchy Descriptor'
PUBLIC	??_R2_Generic_error_category@std@@8		; std::_Generic_error_category::`RTTI Base Class Array'
PUBLIC	??_R1A@?0A@EA@_Generic_error_category@std@@8	; std::_Generic_error_category::`RTTI Base Class Descriptor at (0,-1,0,64)'
PUBLIC	??_R4_Iostream_error_category@std@@6B@		; std::_Iostream_error_category::`RTTI Complete Object Locator'
PUBLIC	??_R0?AV_Iostream_error_category@std@@@8	; std::_Iostream_error_category `RTTI Type Descriptor'
PUBLIC	??_R3_Iostream_error_category@std@@8		; std::_Iostream_error_category::`RTTI Class Hierarchy Descriptor'
PUBLIC	??_R2_Iostream_error_category@std@@8		; std::_Iostream_error_category::`RTTI Base Class Array'
PUBLIC	??_R1A@?0A@EA@_Iostream_error_category@std@@8	; std::_Iostream_error_category::`RTTI Base Class Descriptor at (0,-1,0,64)'
PUBLIC	??_R4_System_error_category@std@@6B@		; std::_System_error_category::`RTTI Complete Object Locator'
PUBLIC	??_R0?AV_System_error_category@std@@@8		; std::_System_error_category `RTTI Type Descriptor'
PUBLIC	??_R3_System_error_category@std@@8		; std::_System_error_category::`RTTI Class Hierarchy Descriptor'
PUBLIC	??_R2_System_error_category@std@@8		; std::_System_error_category::`RTTI Base Class Array'
PUBLIC	??_R1A@?0A@EA@_System_error_category@std@@8	; std::_System_error_category::`RTTI Base Class Descriptor at (0,-1,0,64)'
PUBLIC	??_R4MissileClass@@6B@				; MissileClass::`RTTI Complete Object Locator'
PUBLIC	??_R0?AVMissileClass@@@8			; MissileClass `RTTI Type Descriptor'
PUBLIC	??_R3MissileClass@@8				; MissileClass::`RTTI Class Hierarchy Descriptor'
PUBLIC	??_R2MissileClass@@8				; MissileClass::`RTTI Base Class Array'
PUBLIC	??_R1A@?0A@EA@MissileClass@@8			; MissileClass::`RTTI Base Class Descriptor at (0,-1,0,64)'
PUBLIC	??_R1A@?0A@EA@SimWeaponClass@@8			; SimWeaponClass::`RTTI Base Class Descriptor at (0,-1,0,64)'
PUBLIC	??_R0?AVSimWeaponClass@@@8			; SimWeaponClass `RTTI Type Descriptor'
PUBLIC	??_R3SimWeaponClass@@8				; SimWeaponClass::`RTTI Class Hierarchy Descriptor'
PUBLIC	??_R2SimWeaponClass@@8				; SimWeaponClass::`RTTI Base Class Array'
PUBLIC	??_R1A@?0A@EA@SimMoverClass@@8			; SimMoverClass::`RTTI Base Class Descriptor at (0,-1,0,64)'
PUBLIC	??_R0?AVSimMoverClass@@@8			; SimMoverClass `RTTI Type Descriptor'
PUBLIC	??_R3SimMoverClass@@8				; SimMoverClass::`RTTI Class Hierarchy Descriptor'
PUBLIC	??_R2SimMoverClass@@8				; SimMoverClass::`RTTI Base Class Array'
PUBLIC	??_R1A@?0A@EA@SimBaseClass@@8			; SimBaseClass::`RTTI Base Class Descriptor at (0,-1,0,64)'
PUBLIC	??_R0?AVSimBaseClass@@@8			; SimBaseClass `RTTI Type Descriptor'
PUBLIC	??_R3SimBaseClass@@8				; SimBaseClass::`RTTI Class Hierarchy Descriptor'
PUBLIC	??_R2SimBaseClass@@8				; SimBaseClass::`RTTI Base Class Array'
PUBLIC	??_R1A@?0A@EA@FalconEntity@@8			; FalconEntity::`RTTI Base Class Descriptor at (0,-1,0,64)'
PUBLIC	??_R0?AVFalconEntity@@@8			; FalconEntity `RTTI Type Descriptor'
PUBLIC	??_R3FalconEntity@@8				; FalconEntity::`RTTI Class Hierarchy Descriptor'
PUBLIC	??_R2FalconEntity@@8				; FalconEntity::`RTTI Base Class Array'
PUBLIC	??_R1A@?0A@EA@VuEntity@@8			; VuEntity::`RTTI Base Class Descriptor at (0,-1,0,64)'
PUBLIC	??_R0?AVVuEntity@@@8				; VuEntity `RTTI Type Descriptor'
PUBLIC	??_R3VuEntity@@8				; VuEntity::`RTTI Class Hierarchy Descriptor'
PUBLIC	??_R2VuEntity@@8				; VuEntity::`RTTI Base Class Array'
PUBLIC	__real@00000000
PUBLIC	__real@0000000000000000
PUBLIC	__real@3a83126f
PUBLIC	__real@3c23d70a
PUBLIC	__real@3dcccccd
PUBLIC	__real@3f17ac60
PUBLIC	__real@3f800000
PUBLIC	__real@3fb1eb851eb851ec
PUBLIC	__real@3fc90fd9
PUBLIC	__real@3ff921fb54442d18
PUBLIC	__real@40000000
PUBLIC	__real@400921fb54442d18
PUBLIC	__real@41200000
PUBLIC	__real@41700000
PUBLIC	__real@42652ee1
PUBLIC	__real@42c80000
PUBLIC	__real@43160000
PUBLIC	__real@43340000
PUBLIC	__real@447a0000
PUBLIC	__real@44bb8000
PUBLIC	__real@451c4000
PUBLIC	__real@454cffae
PUBLIC	__real@462be000
PUBLIC	__real@463de1b0
PUBLIC	__real@7f7fffff
PUBLIC	__real@8000000000000000
PUBLIC	__real@bf800000
PUBLIC	__real@bff921fb54442d18
PUBLIC	__real@c0a00000
PUBLIC	__real@c4610000
PUBLIC	__xmm@41f00000000000000000000000000000
PUBLIC	__xmm@80000000800000008000000080000000
EXTRN	__purecall:PROC
EXTRN	??2@YAPAXI@Z:PROC				; operator new
EXTRN	??3@YAXPAX@Z:PROC				; operator delete
EXTRN	_atexit:PROC
EXTRN	_atan:PROC
EXTRN	_cos:PROC
EXTRN	_fabs:PROC
EXTRN	_sin:PROC
EXTRN	_tan:PROC
EXTRN	_memcpy:PROC
EXTRN	_strlen:PROC
EXTRN	_memmove:PROC
EXTRN	_fflush:PROC
EXTRN	_fprintf:PROC
EXTRN	??_U@YAPAXI@Z:PROC				; operator new[]
EXTRN	?_Xbad_alloc@std@@YAXXZ:PROC			; std::_Xbad_alloc
EXTRN	?_Xlength_error@std@@YAXPBD@Z:PROC		; std::_Xlength_error
EXTRN	?_Xout_of_range@std@@YAXPBD@Z:PROC		; std::_Xout_of_range
EXTRN	??_Eerror_category@std@@UAEPAXI@Z:PROC		; std::error_category::`vector deleting destructor'
EXTRN	?_Syserror_map@std@@YAPBDH@Z:PROC		; std::_Syserror_map
EXTRN	?_Winerror_map@std@@YAPBDH@Z:PROC		; std::_Winerror_map
EXTRN	??_E_Generic_error_category@std@@UAEPAXI@Z:PROC	; std::_Generic_error_category::`vector deleting destructor'
EXTRN	??_E_Iostream_error_category@std@@UAEPAXI@Z:PROC ; std::_Iostream_error_category::`vector deleting destructor'
EXTRN	??_E_System_error_category@std@@UAEPAXI@Z:PROC	; std::_System_error_category::`vector deleting destructor'
EXTRN	?SetSwitchMask@DrawableBSP@@QAEXHK@Z:PROC	; DrawableBSP::SetSwitchMask
EXTRN	?F4IsBadReadPtr@@YA_NPBXI@Z:PROC		; F4IsBadReadPtr
EXTRN	?SetPosition@VuEntity@@QAEXMMM@Z:PROC		; VuEntity::SetPosition
EXTRN	?SetDelta@VuEntity@@QAEXMMM@Z:PROC		; VuEntity::SetDelta
EXTRN	?IsLocal@VuEntity@@QBEEXZ:PROC			; VuEntity::IsLocal
EXTRN	?CustomCollisionCheck@VuEntity@@UAEEPAV1@M@Z:PROC ; VuEntity::CustomCollisionCheck
EXTRN	?TerrainCollisionCheck@VuEntity@@UAEEXZ:PROC	; VuEntity::TerrainCollisionCheck
EXTRN	?IsTarget@VuEntity@@UAEEXZ:PROC			; VuEntity::IsTarget
EXTRN	?IsSession@VuEntity@@UAEEXZ:PROC		; VuEntity::IsSession
EXTRN	?IsGroup@VuEntity@@UAEEXZ:PROC			; VuEntity::IsGroup
EXTRN	?IsGame@VuEntity@@UAEEXZ:PROC			; VuEntity::IsGame
EXTRN	?IsCamera@VuEntity@@UBEEXZ:PROC			; VuEntity::IsCamera
EXTRN	?Handle@VuEntity@@UAEHPAVVuErrorMessage@@@Z:PROC ; VuEntity::Handle
EXTRN	?Handle@VuEntity@@UAEHPAVVuPushRequest@@@Z:PROC	; VuEntity::Handle
EXTRN	?Handle@VuEntity@@UAEHPAVVuPullRequest@@@Z:PROC	; VuEntity::Handle
EXTRN	?Handle@VuEntity@@UAEHPAVVuEvent@@@Z:PROC	; VuEntity::Handle
EXTRN	?Handle@VuEntity@@UAEHPAVVuEntityCollisionEvent@@@Z:PROC ; VuEntity::Handle
EXTRN	?Handle@VuEntity@@UAEHPAVVuSessionEvent@@@Z:PROC ; VuEntity::Handle
EXTRN	?Game@VuSessionEntity@@QAEPAVVuGameEntity@@XZ:PROC ; VuSessionEntity::Game
EXTRN	??0VuListIterator@@QAE@PAVVuLinkedList@@@Z:PROC	; VuListIterator::VuListIterator
EXTRN	??1VuListIterator@@UAE@XZ:PROC			; VuListIterator::~VuListIterator
EXTRN	?GetFirst@VuListIterator@@QAEPAVVuEntity@@XZ:PROC ; VuListIterator::GetFirst
EXTRN	?GetNext@VuListIterator@@QAEPAVVuEntity@@XZ:PROC ; VuListIterator::GetNext
EXTRN	??0VuGridIterator@@QAE@PAVVuGridTree@@MMM@Z:PROC ; VuGridIterator::VuGridIterator
EXTRN	??1VuGridIterator@@UAE@XZ:PROC			; VuGridIterator::~VuGridIterator
EXTRN	?GetFirst@VuGridIterator@@QAEPAVVuEntity@@XZ:PROC ; VuGridIterator::GetFirst
EXTRN	?GetNext@VuGridIterator@@QAEPAVVuEntity@@XZ:PROC ; VuGridIterator::GetNext
EXTRN	?GetDomain@FalconEntity@@UAEEXZ:PROC		; FalconEntity::GetDomain
EXTRN	?GetDamageModifiers@FalconEntity@@UAEPAEXZ:PROC	; FalconEntity::GetDamageModifiers
EXTRN	?FindSensor@@YAPAVSensorClass@@PAVSimMoverClass@@H@Z:PROC ; FindSensor
EXTRN	??0EyeballClass@@QAE@HPAVSimMoverClass@@@Z:PROC	; EyeballClass::EyeballClass
EXTRN	??0IrstClass@@QAE@HPAVSimMoverClass@@@Z:PROC	; IrstClass::IrstClass
EXTRN	?UpdatePos@F4SoundPos@@QAEXPAVSimBaseClass@@@Z:PROC ; F4SoundPos::UpdatePos
EXTRN	?Sfx@F4SoundPos@@QAEXHHMM@Z:PROC		; F4SoundPos::Sfx
EXTRN	?GetTeam@SimBaseClass@@UAEEXZ:PROC		; SimBaseClass::GetTeam
EXTRN	?GetCampID@SimBaseClass@@UAEFXZ:PROC		; SimBaseClass::GetCampID
EXTRN	?GetMovementType@SimBaseClass@@UAE?AW4MoveType@@XZ:PROC ; SimBaseClass::GetMovementType
EXTRN	?SetExploding@SimBaseClass@@QAEXH@Z:PROC	; SimBaseClass::SetExploding
EXTRN	?IsSPJamming@SimBaseClass@@UAEHXZ:PROC		; SimBaseClass::IsSPJamming
EXTRN	?IsAreaJamming@SimBaseClass@@UAEHXZ:PROC	; SimBaseClass::IsAreaJamming
EXTRN	?HasSPJamming@SimBaseClass@@UAEHXZ:PROC		; SimBaseClass::HasSPJamming
EXTRN	?HasAreaJamming@SimBaseClass@@UAEHXZ:PROC	; SimBaseClass::HasAreaJamming
EXTRN	?SetFlag@SimBaseClass@@QAEXH@Z:PROC		; SimBaseClass::SetFlag
EXTRN	?ApplyDamage@SimBaseClass@@UAEXPAVFalconDamageMessage@@@Z:PROC ; SimBaseClass::ApplyDamage
EXTRN	?ApplyDeathMessage@SimBaseClass@@UAEXPAVFalconDeathMessage@@@Z:PROC ; SimBaseClass::ApplyDeathMessage
EXTRN	?GetFocusPoint@SimBaseClass@@UAEXAAM00@Z:PROC	; SimBaseClass::GetFocusPoint
EXTRN	?GetP@SimMoverClass@@UAEMXZ:PROC		; SimMoverClass::GetP
EXTRN	?GetQ@SimMoverClass@@UAEMXZ:PROC		; SimMoverClass::GetQ
EXTRN	?GetR@SimMoverClass@@UAEMXZ:PROC		; SimMoverClass::GetR
EXTRN	?GetAlpha@SimMoverClass@@UAEMXZ:PROC		; SimMoverClass::GetAlpha
EXTRN	?GetBeta@SimMoverClass@@UAEMXZ:PROC		; SimMoverClass::GetBeta
EXTRN	?GetNx@SimMoverClass@@UAEMXZ:PROC		; SimMoverClass::GetNx
EXTRN	?GetNy@SimMoverClass@@UAEMXZ:PROC		; SimMoverClass::GetNy
EXTRN	?GetNz@SimMoverClass@@UAEMXZ:PROC		; SimMoverClass::GetNz
EXTRN	?GetGamma@SimMoverClass@@UAEMXZ:PROC		; SimMoverClass::GetGamma
EXTRN	?GetSigma@SimMoverClass@@UAEMXZ:PROC		; SimMoverClass::GetSigma
EXTRN	?GetMu@SimMoverClass@@UAEMXZ:PROC		; SimMoverClass::GetMu
EXTRN	?GetVt@SimMoverClass@@UBEMXZ:PROC		; SimMoverClass::GetVt
EXTRN	?GetKias@SimMoverClass@@UBEMXZ:PROC		; SimMoverClass::GetKias
EXTRN	?MakeLocal@SimMoverClass@@UAEXXZ:PROC		; SimMoverClass::MakeLocal
EXTRN	?MakeRemote@SimMoverClass@@UAEXXZ:PROC		; SimMoverClass::MakeRemote
EXTRN	?ChangeOwner@SimMoverClass@@UAEXVVU_ID@@@Z:PROC	; SimMoverClass::ChangeOwner
EXTRN	?FeatureCollision@SimMoverClass@@UAEPAVSimBaseClass@@M@Z:PROC ; SimMoverClass::FeatureCollision
EXTRN	?CheckLOS@SimMoverClass@@UAEHPAVSimObjectType@@@Z:PROC ; SimMoverClass::CheckLOS
EXTRN	?CheckCompositeLOS@SimMoverClass@@UAEHPAVSimObjectType@@@Z:PROC ; SimMoverClass::CheckCompositeLOS
EXTRN	?InsertionCallback@SimMoverClass@@UAEHXZ:PROC	; SimMoverClass::InsertionCallback
EXTRN	?RemovalCallback@SimMoverClass@@UAEHXZ:PROC	; SimMoverClass::RemovalCallback
EXTRN	??0MaverickDisplayClass@@QAE@PAVSimMoverClass@@@Z:PROC ; MaverickDisplayClass::MaverickDisplayClass
EXTRN	??0SimObjectType@@QAE@PAVFalconEntity@@@Z:PROC	; SimObjectType::SimObjectType
EXTRN	?Reference@SimObjectType@@QAEXXZ:PROC		; SimObjectType::Reference
EXTRN	?Release@SimObjectType@@QAEXXZ:PROC		; SimObjectType::Release
EXTRN	?FalconSendMessage@@YAXPAVVuMessage@@H@Z:PROC	; FalconSendMessage
EXTRN	?GetGroundLevel@OTWDriverClass@@QAEMMMPAUTpoint@@@Z:PROC ; OTWDriverClass::GetGroundLevel
EXTRN	?GetGroundType@OTWDriverClass@@QAEHMM@Z:PROC	; OTWDriverClass::GetGroundType
EXTRN	?Camp_GetCurrentTime@@YAKXZ:PROC		; Camp_GetCurrentTime
EXTRN	?GetComponentIndex@CampBaseClass@@QAEHPAVVuEntity@@@Z:PROC ; CampBaseClass::GetComponentIndex
EXTRN	??0BeamRiderClass@@QAE@HPAVSimMoverClass@@@Z:PROC ; BeamRiderClass::BeamRiderClass
EXTRN	?SetGuidancePlatform@BeamRiderClass@@QAEXPAVFalconEntity@@@Z:PROC ; BeamRiderClass::SetGuidancePlatform
EXTRN	?SendTrackMsg@BeamRiderClass@@QAEXPAVSimObjectType@@II@Z:PROC ; BeamRiderClass::SendTrackMsg
EXTRN	?Add@ACMI_Hash@@QAEJVVU_ID@@PADJ@Z:PROC		; ACMI_Hash::Add
EXTRN	?MissilePositionRecord@ACMIRecorder@@QAEXPAUACMIMissilePositionRecord@@@Z:PROC ; ACMIRecorder::MissilePositionRecord
EXTRN	?StationarySfxRecord@ACMIRecorder@@QAEXPAUACMIStationarySfxRecord@@@Z:PROC ; ACMIRecorder::StationarySfxRecord
EXTRN	?AddToTimedPersistantList@@YAXHKMM@Z:PROC	; AddToTimedPersistantList
EXTRN	??0SimWeaponClass@@QAE@H@Z:PROC			; SimWeaponClass::SimWeaponClass
EXTRN	??0SimWeaponClass@@QAE@PAPAEPAJ@Z:PROC		; SimWeaponClass::SimWeaponClass
EXTRN	??0SimWeaponClass@@QAE@PAU_iobuf@@@Z:PROC	; SimWeaponClass::SimWeaponClass
EXTRN	??1SimWeaponClass@@UAE@XZ:PROC			; SimWeaponClass::~SimWeaponClass
EXTRN	?InitData@SimWeaponClass@@UAEXXZ:PROC		; SimWeaponClass::InitData
EXTRN	?CleanupData@SimWeaponClass@@UAEXXZ:PROC	; SimWeaponClass::CleanupData
EXTRN	?Sleep@SimWeaponClass@@UAEHXZ:PROC		; SimWeaponClass::Sleep
EXTRN	?Wake@SimWeaponClass@@UAEHXZ:PROC		; SimWeaponClass::Wake
EXTRN	?Init@SimWeaponClass@@UAEXXZ:PROC		; SimWeaponClass::Init
EXTRN	?SetDead@SimWeaponClass@@UAEXH@Z:PROC		; SimWeaponClass::SetDead
EXTRN	?SaveSize@SimWeaponClass@@UAEHXZ:PROC		; SimWeaponClass::SaveSize
EXTRN	?Save@SimWeaponClass@@UAEHPAPAE@Z:PROC		; SimWeaponClass::Save
EXTRN	?Save@SimWeaponClass@@UAEHPAU_iobuf@@@Z:PROC	; SimWeaponClass::Save
EXTRN	?Handle@SimWeaponClass@@UAEHPAVVuFullUpdateEvent@@@Z:PROC ; SimWeaponClass::Handle
EXTRN	?Handle@SimWeaponClass@@UAEHPAVVuPositionUpdateEvent@@@Z:PROC ; SimWeaponClass::Handle
EXTRN	?Handle@SimWeaponClass@@UAEHPAVVuTransferEvent@@@Z:PROC ; SimWeaponClass::Handle
EXTRN	?SendDamageMessage@SimWeaponClass@@QAEXPAVFalconEntity@@MH@Z:PROC ; SimWeaponClass::SendDamageMessage
EXTRN	?GetRadarType@SimWeaponClass@@UAEHXZ:PROC	; SimWeaponClass::GetRadarType
EXTRN	??0HarmSeekerClass@@QAE@HPAVSimMoverClass@@@Z:PROC ; HarmSeekerClass::HarmSeekerClass
EXTRN	?ThreedInterp@SIMLIB_MATH_CLASS@@QAEMMMMPBM000HHHPAH11@Z:PROC ; SIMLIB_MATH_CLASS::ThreedInterp
EXTRN	??0FalconMissileEndMessage@@QAE@VVU_ID@@PAVVuTargetEntity@@E@Z:PROC ; FalconMissileEndMessage::FalconMissileEndMessage
EXTRN	?SetParticleEffectName@FalconMissileEndMessage@@QAEXPAD@Z:PROC ; FalconMissileEndMessage::SetParticleEffectName
EXTRN	?UpdateTargetData@MissileClass@@QAEXXZ:PROC	; MissileClass::UpdateTargetData
EXTRN	?SetTarget@MissileClass@@QAEXPAVSimObjectType@@@Z:PROC ; MissileClass::SetTarget
EXTRN	?DropTarget@MissileClass@@QAEXXZ:PROC		; MissileClass::DropTarget
EXTRN	?ClosestApproach@MissileClass@@AAEXXZ:PROC	; MissileClass::ClosestApproach
EXTRN	?CommandGuide@MissileClass@@AAEXXZ:PROC		; MissileClass::CommandGuide
EXTRN	?Flight@MissileClass@@AAEXXZ:PROC		; MissileClass::Flight
EXTRN	?Init1@MissileClass@@AAEXXZ:PROC		; MissileClass::Init1
EXTRN	?Launch@MissileClass@@AAEXXZ:PROC		; MissileClass::Launch
EXTRN	?LimitSeeker@MissileClass@@AAEXMM@Z:PROC	; MissileClass::LimitSeeker
EXTRN	?ReadInput@MissileClass@@AAEXH@Z:PROC		; MissileClass::ReadInput
EXTRN	?SetStatus@MissileClass@@AAEXXZ:PROC		; MissileClass::SetStatus
EXTRN	?UpdateTrail@MissileClass@@AAEXXZ:PROC		; MissileClass::UpdateTrail
EXTRN	?RemoveTrail@MissileClass@@AAEXXZ:PROC		; MissileClass::RemoveTrail
EXTRN	??_EMissileClass@@UAEPAXI@Z:PROC		; MissileClass::`vector deleting destructor'
EXTRN	??0FalconRadioChatterMessage@@QAE@VVU_ID@@PAVVuTargetEntity@@E@Z:PROC ; FalconRadioChatterMessage::FalconRadioChatterMessage
EXTRN	?GetPilotVoiceID@FlightClass@@QAEEH@Z:PROC	; FlightClass::GetPilotVoiceID
EXTRN	?CalcTransformMatrix@@YAXPAVSimBaseClass@@@Z:PROC ; CalcTransformMatrix
EXTRN	@__security_check_cookie@4:PROC
EXTRN	__CxxThrowException@8:PROC
EXTRN	___CxxFrameHandler3:PROC
EXTRN	??_7type_info@@6B@:QWORD			; type_info::`vftable'
EXTRN	?vuLocalSessionEntity@@3V?$VuBin@VVuSessionEntity@@@@A:DWORD ; vuLocalSessionEntity
EXTRN	?FalconNullId@@3VVU_ID@@A:QWORD			; FalconNullId
EXTRN	?SimLibMinorFrameTime@@3MA:DWORD		; SimLibMinorFrameTime
EXTRN	?SimLibElapsedTime@@3KA:DWORD			; SimLibElapsedTime
EXTRN	?SimLibFrameCount@@3IA:DWORD			; SimLibFrameCount
EXTRN	?SimLibMinorPerMajor@@3HA:DWORD			; SimLibMinorPerMajor
EXTRN	?OTWDriver@@3VOTWDriverClass@@A:BYTE		; OTWDriver
EXTRN	?SimWeaponDataTable@@3PAUSimWeaponDataType@@A:DWORD ; SimWeaponDataTable
EXTRN	?ObjProxList@@3PAVVuGridTree@@A:DWORD		; ObjProxList
EXTRN	?SimDriver@@3VSimulationDriver@@A:BYTE		; SimDriver
EXTRN	?gACMIRec@@3VACMIRecorder@@A:BYTE		; gACMIRec
EXTRN	?ACMIIDTable@@3PAVACMI_Hash@@A:DWORD		; ACMIIDTable
EXTRN	?missileDataset@@3PAVMissileDataSetClass@@A:DWORD ; missileDataset
EXTRN	?numMissileDatasets@@3HA:DWORD			; numMissileDatasets
EXTRN	?Math@@3VSIMLIB_MATH_CLASS@@A:BYTE		; Math
EXTRN	?TeamInfo@@3PAPAVTeamClass@@A:BYTE		; TeamInfo
EXTRN	?g_nMissileFix@@3HA:DWORD			; g_nMissileFix
EXTRN	___security_cookie:DWORD
EXTRN	__fltused:DWORD
_BSS	SEGMENT
	ALIGN	4

_piecewise_construct DB 01H DUP (?)
	ALIGN	4

_allocator_arg DB 01H DUP (?)
_BSS	ENDS
;	COMDAT ?_Generic_object@?$_Error_objects@H@std@@2V_Generic_error_category@2@A
_BSS	SEGMENT
?_Generic_object@?$_Error_objects@H@std@@2V_Generic_error_category@2@A DD 01H DUP (?) ; std::_Error_objects<int>::_Generic_object
_BSS	ENDS
;	COMDAT ?_Iostream_object@?$_Error_objects@H@std@@2V_Iostream_error_category@2@A
_BSS	SEGMENT
?_Iostream_object@?$_Error_objects@H@std@@2V_Iostream_error_category@2@A DD 01H DUP (?) ; std::_Error_objects<int>::_Iostream_object
_BSS	ENDS
;	COMDAT ?_System_object@?$_Error_objects@H@std@@2V_System_error_category@2@A
_BSS	SEGMENT
?_System_object@?$_Error_objects@H@std@@2V_System_error_category@2@A DD 01H DUP (?) ; std::_Error_objects<int>::_System_object
_BSS	ENDS
;	COMDAT ?id@?$num_put@DV?$back_insert_iterator@V?$basic_string@DU?$char_traits@D@std@@V?$allocator@D@2@@std@@@std@@@std@@2V0locale@2@A
_BSS	SEGMENT
?id@?$num_put@DV?$back_insert_iterator@V?$basic_string@DU?$char_traits@D@std@@V?$allocator@D@2@@std@@@std@@@std@@2V0locale@2@A DD 01H DUP (?) ; std::num_put<char,std::back_insert_iterator<std::basic_string<char,std::char_traits<char>,std::allocator<char> > > >::id
_BSS	ENDS
;	COMDAT ?id@?$num_put@_WV?$back_insert_iterator@V?$basic_string@_WU?$char_traits@_W@std@@V?$allocator@_W@2@@std@@@std@@@std@@2V0locale@2@A
_BSS	SEGMENT
?id@?$num_put@_WV?$back_insert_iterator@V?$basic_string@_WU?$char_traits@_W@std@@V?$allocator@_W@2@@std@@@std@@@std@@2V0locale@2@A DD 01H DUP (?) ; std::num_put<wchar_t,std::back_insert_iterator<std::basic_string<wchar_t,std::char_traits<wchar_t>,std::allocator<wchar_t> > > >::id
_BSS	ENDS
;	COMDAT ?LastRandom@?1??GenerateFastRandom@@YAJXZ@4JA
_BSS	SEGMENT
?LastRandom@?1??GenerateFastRandom@@YAJXZ@4JA DD 01H DUP (?) ; `GenerateFastRandom'::`2'::LastRandom
_BSS	ENDS
;	COMDAT ?fp@?1??FindRocketGroundImpact@MissileClass@@QAEHPAM000@Z@4PAU_iobuf@@A
_BSS	SEGMENT
?fp@?1??FindRocketGroundImpact@MissileClass@@QAEHPAM000@Z@4PAU_iobuf@@A DD 01H DUP (?) ; `MissileClass::FindRocketGroundImpact'::`2'::fp
_BSS	ENDS
;	COMDAT ?id@?$numpunct@D@std@@2V0locale@2@A
_BSS	SEGMENT
?id@?$numpunct@D@std@@2V0locale@2@A DD 01H DUP (?)	; std::numpunct<char>::id
_BSS	ENDS
;	COMDAT ?id@?$numpunct@_W@std@@2V0locale@2@A
_BSS	SEGMENT
?id@?$numpunct@_W@std@@2V0locale@2@A DD 01H DUP (?)	; std::numpunct<wchar_t>::id
_BSS	ENDS
CRT$XCU	SEGMENT
_piecewise_construct$initializer$ DD FLAT:??__Epiecewise_construct@std@@YAXXZ
CRT$XCU	ENDS
;	COMDAT __xmm@80000000800000008000000080000000
CONST	SEGMENT
__xmm@80000000800000008000000080000000 DB 00H, 00H, 00H, 080H, 00H, 00H, 00H
	DB	080H, 00H, 00H, 00H, 080H, 00H, 00H, 00H, 080H
CONST	ENDS
;	COMDAT __xmm@41f00000000000000000000000000000
CONST	SEGMENT
__xmm@41f00000000000000000000000000000 DB 00H, 00H, 00H, 00H, 00H, 00H, 00H
	DB	00H, 00H, 00H, 00H, 00H, 00H, 00H, 0f0H, 'A'
CONST	ENDS
;	COMDAT __real@c4610000
CONST	SEGMENT
__real@c4610000 DD 0c4610000r			; -900
CONST	ENDS
;	COMDAT __real@c0a00000
CONST	SEGMENT
__real@c0a00000 DD 0c0a00000r			; -5
CONST	ENDS
;	COMDAT __real@bff921fb54442d18
CONST	SEGMENT
__real@bff921fb54442d18 DQ 0bff921fb54442d18r	; -1.5708
CONST	ENDS
;	COMDAT __real@bf800000
CONST	SEGMENT
__real@bf800000 DD 0bf800000r			; -1
CONST	ENDS
;	COMDAT __real@8000000000000000
CONST	SEGMENT
__real@8000000000000000 DQ 08000000000000000r	; -0
CONST	ENDS
;	COMDAT __real@7f7fffff
CONST	SEGMENT
__real@7f7fffff DD 07f7fffffr			; 3.40282e+038
CONST	ENDS
;	COMDAT __real@463de1b0
CONST	SEGMENT
__real@463de1b0 DD 0463de1b0r			; 12152.4
CONST	ENDS
;	COMDAT __real@462be000
CONST	SEGMENT
__real@462be000 DD 0462be000r			; 11000
CONST	ENDS
;	COMDAT __real@454cffae
CONST	SEGMENT
__real@454cffae DD 0454cffaer			; 3279.98
CONST	ENDS
;	COMDAT __real@451c4000
CONST	SEGMENT
__real@451c4000 DD 0451c4000r			; 2500
CONST	ENDS
;	COMDAT __real@44bb8000
CONST	SEGMENT
__real@44bb8000 DD 044bb8000r			; 1500
CONST	ENDS
;	COMDAT __real@447a0000
CONST	SEGMENT
__real@447a0000 DD 0447a0000r			; 1000
CONST	ENDS
;	COMDAT __real@43340000
CONST	SEGMENT
__real@43340000 DD 043340000r			; 180
CONST	ENDS
;	COMDAT __real@43160000
CONST	SEGMENT
__real@43160000 DD 043160000r			; 150
CONST	ENDS
;	COMDAT __real@42c80000
CONST	SEGMENT
__real@42c80000 DD 042c80000r			; 100
CONST	ENDS
;	COMDAT __real@42652ee1
CONST	SEGMENT
__real@42652ee1 DD 042652ee1r			; 57.2958
CONST	ENDS
;	COMDAT __real@41700000
CONST	SEGMENT
__real@41700000 DD 041700000r			; 15
CONST	ENDS
;	COMDAT __real@41200000
CONST	SEGMENT
__real@41200000 DD 041200000r			; 10
CONST	ENDS
;	COMDAT __real@400921fb54442d18
CONST	SEGMENT
__real@400921fb54442d18 DQ 0400921fb54442d18r	; 3.14159
CONST	ENDS
;	COMDAT __real@40000000
CONST	SEGMENT
__real@40000000 DD 040000000r			; 2
CONST	ENDS
;	COMDAT __real@3ff921fb54442d18
CONST	SEGMENT
__real@3ff921fb54442d18 DQ 03ff921fb54442d18r	; 1.5708
CONST	ENDS
;	COMDAT __real@3fc90fd9
CONST	SEGMENT
__real@3fc90fd9 DD 03fc90fd9r			; 1.5708
CONST	ENDS
;	COMDAT __real@3fb1eb851eb851ec
CONST	SEGMENT
__real@3fb1eb851eb851ec DQ 03fb1eb851eb851ecr	; 0.07
CONST	ENDS
;	COMDAT __real@3f800000
CONST	SEGMENT
__real@3f800000 DD 03f800000r			; 1
CONST	ENDS
;	COMDAT __real@3f17ac60
CONST	SEGMENT
__real@3f17ac60 DD 03f17ac60r			; 0.592474
CONST	ENDS
;	COMDAT __real@3dcccccd
CONST	SEGMENT
__real@3dcccccd DD 03dcccccdr			; 0.1
CONST	ENDS
;	COMDAT __real@3c23d70a
CONST	SEGMENT
__real@3c23d70a DD 03c23d70ar			; 0.01
CONST	ENDS
;	COMDAT __real@3a83126f
CONST	SEGMENT
__real@3a83126f DD 03a83126fr			; 0.001
CONST	ENDS
;	COMDAT __real@0000000000000000
CONST	SEGMENT
__real@0000000000000000 DQ 00000000000000000r	; 0
CONST	ENDS
;	COMDAT __real@00000000
CONST	SEGMENT
__real@00000000 DD 000000000r			; 0
CONST	ENDS
;	COMDAT ??_R2VuEntity@@8
rdata$r	SEGMENT
??_R2VuEntity@@8 DD FLAT:??_R1A@?0A@EA@VuEntity@@8	; VuEntity::`RTTI Base Class Array'
rdata$r	ENDS
;	COMDAT ??_R3VuEntity@@8
rdata$r	SEGMENT
??_R3VuEntity@@8 DD 00H					; VuEntity::`RTTI Class Hierarchy Descriptor'
	DD	00H
	DD	01H
	DD	FLAT:??_R2VuEntity@@8
rdata$r	ENDS
;	COMDAT ??_R0?AVVuEntity@@@8
_DATA	SEGMENT
??_R0?AVVuEntity@@@8 DD FLAT:??_7type_info@@6B@		; VuEntity `RTTI Type Descriptor'
	DD	00H
	DB	'.?AVVuEntity@@', 00H
_DATA	ENDS
;	COMDAT ??_R1A@?0A@EA@VuEntity@@8
rdata$r	SEGMENT
??_R1A@?0A@EA@VuEntity@@8 DD FLAT:??_R0?AVVuEntity@@@8	; VuEntity::`RTTI Base Class Descriptor at (0,-1,0,64)'
	DD	00H
	DD	00H
	DD	0ffffffffH
	DD	00H
	DD	040H
	DD	FLAT:??_R3VuEntity@@8
rdata$r	ENDS
;	COMDAT ??_R2FalconEntity@@8
rdata$r	SEGMENT
??_R2FalconEntity@@8 DD FLAT:??_R1A@?0A@EA@FalconEntity@@8 ; FalconEntity::`RTTI Base Class Array'
	DD	FLAT:??_R1A@?0A@EA@VuEntity@@8
rdata$r	ENDS
;	COMDAT ??_R3FalconEntity@@8
rdata$r	SEGMENT
??_R3FalconEntity@@8 DD 00H				; FalconEntity::`RTTI Class Hierarchy Descriptor'
	DD	00H
	DD	02H
	DD	FLAT:??_R2FalconEntity@@8
rdata$r	ENDS
;	COMDAT ??_R0?AVFalconEntity@@@8
_DATA	SEGMENT
??_R0?AVFalconEntity@@@8 DD FLAT:??_7type_info@@6B@	; FalconEntity `RTTI Type Descriptor'
	DD	00H
	DB	'.?AVFalconEntity@@', 00H
_DATA	ENDS
;	COMDAT ??_R1A@?0A@EA@FalconEntity@@8
rdata$r	SEGMENT
??_R1A@?0A@EA@FalconEntity@@8 DD FLAT:??_R0?AVFalconEntity@@@8 ; FalconEntity::`RTTI Base Class Descriptor at (0,-1,0,64)'
	DD	01H
	DD	00H
	DD	0ffffffffH
	DD	00H
	DD	040H
	DD	FLAT:??_R3FalconEntity@@8
rdata$r	ENDS
;	COMDAT ??_R2SimBaseClass@@8
rdata$r	SEGMENT
??_R2SimBaseClass@@8 DD FLAT:??_R1A@?0A@EA@SimBaseClass@@8 ; SimBaseClass::`RTTI Base Class Array'
	DD	FLAT:??_R1A@?0A@EA@FalconEntity@@8
	DD	FLAT:??_R1A@?0A@EA@VuEntity@@8
rdata$r	ENDS
;	COMDAT ??_R3SimBaseClass@@8
rdata$r	SEGMENT
??_R3SimBaseClass@@8 DD 00H				; SimBaseClass::`RTTI Class Hierarchy Descriptor'
	DD	00H
	DD	03H
	DD	FLAT:??_R2SimBaseClass@@8
rdata$r	ENDS
;	COMDAT ??_R0?AVSimBaseClass@@@8
_DATA	SEGMENT
??_R0?AVSimBaseClass@@@8 DD FLAT:??_7type_info@@6B@	; SimBaseClass `RTTI Type Descriptor'
	DD	00H
	DB	'.?AVSimBaseClass@@', 00H
_DATA	ENDS
;	COMDAT ??_R1A@?0A@EA@SimBaseClass@@8
rdata$r	SEGMENT
??_R1A@?0A@EA@SimBaseClass@@8 DD FLAT:??_R0?AVSimBaseClass@@@8 ; SimBaseClass::`RTTI Base Class Descriptor at (0,-1,0,64)'
	DD	02H
	DD	00H
	DD	0ffffffffH
	DD	00H
	DD	040H
	DD	FLAT:??_R3SimBaseClass@@8
rdata$r	ENDS
;	COMDAT ??_R2SimMoverClass@@8
rdata$r	SEGMENT
??_R2SimMoverClass@@8 DD FLAT:??_R1A@?0A@EA@SimMoverClass@@8 ; SimMoverClass::`RTTI Base Class Array'
	DD	FLAT:??_R1A@?0A@EA@SimBaseClass@@8
	DD	FLAT:??_R1A@?0A@EA@FalconEntity@@8
	DD	FLAT:??_R1A@?0A@EA@VuEntity@@8
rdata$r	ENDS
;	COMDAT ??_R3SimMoverClass@@8
rdata$r	SEGMENT
??_R3SimMoverClass@@8 DD 00H				; SimMoverClass::`RTTI Class Hierarchy Descriptor'
	DD	00H
	DD	04H
	DD	FLAT:??_R2SimMoverClass@@8
rdata$r	ENDS
;	COMDAT ??_R0?AVSimMoverClass@@@8
_DATA	SEGMENT
??_R0?AVSimMoverClass@@@8 DD FLAT:??_7type_info@@6B@	; SimMoverClass `RTTI Type Descriptor'
	DD	00H
	DB	'.?AVSimMoverClass@@', 00H
_DATA	ENDS
;	COMDAT ??_R1A@?0A@EA@SimMoverClass@@8
rdata$r	SEGMENT
??_R1A@?0A@EA@SimMoverClass@@8 DD FLAT:??_R0?AVSimMoverClass@@@8 ; SimMoverClass::`RTTI Base Class Descriptor at (0,-1,0,64)'
	DD	03H
	DD	00H
	DD	0ffffffffH
	DD	00H
	DD	040H
	DD	FLAT:??_R3SimMoverClass@@8
rdata$r	ENDS
;	COMDAT ??_R2SimWeaponClass@@8
rdata$r	SEGMENT
??_R2SimWeaponClass@@8 DD FLAT:??_R1A@?0A@EA@SimWeaponClass@@8 ; SimWeaponClass::`RTTI Base Class Array'
	DD	FLAT:??_R1A@?0A@EA@SimMoverClass@@8
	DD	FLAT:??_R1A@?0A@EA@SimBaseClass@@8
	DD	FLAT:??_R1A@?0A@EA@FalconEntity@@8
	DD	FLAT:??_R1A@?0A@EA@VuEntity@@8
rdata$r	ENDS
;	COMDAT ??_R3SimWeaponClass@@8
rdata$r	SEGMENT
??_R3SimWeaponClass@@8 DD 00H				; SimWeaponClass::`RTTI Class Hierarchy Descriptor'
	DD	00H
	DD	05H
	DD	FLAT:??_R2SimWeaponClass@@8
rdata$r	ENDS
;	COMDAT ??_R0?AVSimWeaponClass@@@8
_DATA	SEGMENT
??_R0?AVSimWeaponClass@@@8 DD FLAT:??_7type_info@@6B@	; SimWeaponClass `RTTI Type Descriptor'
	DD	00H
	DB	'.?AVSimWeaponClass@@', 00H
_DATA	ENDS
;	COMDAT ??_R1A@?0A@EA@SimWeaponClass@@8
rdata$r	SEGMENT
??_R1A@?0A@EA@SimWeaponClass@@8 DD FLAT:??_R0?AVSimWeaponClass@@@8 ; SimWeaponClass::`RTTI Base Class Descriptor at (0,-1,0,64)'
	DD	04H
	DD	00H
	DD	0ffffffffH
	DD	00H
	DD	040H
	DD	FLAT:??_R3SimWeaponClass@@8
rdata$r	ENDS
;	COMDAT ??_R1A@?0A@EA@MissileClass@@8
rdata$r	SEGMENT
??_R1A@?0A@EA@MissileClass@@8 DD FLAT:??_R0?AVMissileClass@@@8 ; MissileClass::`RTTI Base Class Descriptor at (0,-1,0,64)'
	DD	05H
	DD	00H
	DD	0ffffffffH
	DD	00H
	DD	040H
	DD	FLAT:??_R3MissileClass@@8
rdata$r	ENDS
;	COMDAT ??_R2MissileClass@@8
rdata$r	SEGMENT
??_R2MissileClass@@8 DD FLAT:??_R1A@?0A@EA@MissileClass@@8 ; MissileClass::`RTTI Base Class Array'
	DD	FLAT:??_R1A@?0A@EA@SimWeaponClass@@8
	DD	FLAT:??_R1A@?0A@EA@SimMoverClass@@8
	DD	FLAT:??_R1A@?0A@EA@SimBaseClass@@8
	DD	FLAT:??_R1A@?0A@EA@FalconEntity@@8
	DD	FLAT:??_R1A@?0A@EA@VuEntity@@8
rdata$r	ENDS
;	COMDAT ??_R3MissileClass@@8
rdata$r	SEGMENT
??_R3MissileClass@@8 DD 00H				; MissileClass::`RTTI Class Hierarchy Descriptor'
	DD	00H
	DD	06H
	DD	FLAT:??_R2MissileClass@@8
rdata$r	ENDS
;	COMDAT ??_R0?AVMissileClass@@@8
_DATA	SEGMENT
??_R0?AVMissileClass@@@8 DD FLAT:??_7type_info@@6B@	; MissileClass `RTTI Type Descriptor'
	DD	00H
	DB	'.?AVMissileClass@@', 00H
_DATA	ENDS
;	COMDAT ??_R4MissileClass@@6B@
rdata$r	SEGMENT
??_R4MissileClass@@6B@ DD 00H				; MissileClass::`RTTI Complete Object Locator'
	DD	00H
	DD	00H
	DD	FLAT:??_R0?AVMissileClass@@@8
	DD	FLAT:??_R3MissileClass@@8
rdata$r	ENDS
;	COMDAT ??_R1A@?0A@EA@_System_error_category@std@@8
rdata$r	SEGMENT
??_R1A@?0A@EA@_System_error_category@std@@8 DD FLAT:??_R0?AV_System_error_category@std@@@8 ; std::_System_error_category::`RTTI Base Class Descriptor at (0,-1,0,64)'
	DD	02H
	DD	00H
	DD	0ffffffffH
	DD	00H
	DD	040H
	DD	FLAT:??_R3_System_error_category@std@@8
rdata$r	ENDS
;	COMDAT ??_R2_System_error_category@std@@8
rdata$r	SEGMENT
??_R2_System_error_category@std@@8 DD FLAT:??_R1A@?0A@EA@_System_error_category@std@@8 ; std::_System_error_category::`RTTI Base Class Array'
	DD	FLAT:??_R1A@?0A@EA@_Generic_error_category@std@@8
	DD	FLAT:??_R1A@?0A@EA@error_category@std@@8
rdata$r	ENDS
;	COMDAT ??_R3_System_error_category@std@@8
rdata$r	SEGMENT
??_R3_System_error_category@std@@8 DD 00H		; std::_System_error_category::`RTTI Class Hierarchy Descriptor'
	DD	00H
	DD	03H
	DD	FLAT:??_R2_System_error_category@std@@8
rdata$r	ENDS
;	COMDAT ??_R0?AV_System_error_category@std@@@8
_DATA	SEGMENT
??_R0?AV_System_error_category@std@@@8 DD FLAT:??_7type_info@@6B@ ; std::_System_error_category `RTTI Type Descriptor'
	DD	00H
	DB	'.?AV_System_error_category@std@@', 00H
_DATA	ENDS
;	COMDAT ??_R4_System_error_category@std@@6B@
rdata$r	SEGMENT
??_R4_System_error_category@std@@6B@ DD 00H		; std::_System_error_category::`RTTI Complete Object Locator'
	DD	00H
	DD	00H
	DD	FLAT:??_R0?AV_System_error_category@std@@@8
	DD	FLAT:??_R3_System_error_category@std@@8
rdata$r	ENDS
;	COMDAT ??_R1A@?0A@EA@_Iostream_error_category@std@@8
rdata$r	SEGMENT
??_R1A@?0A@EA@_Iostream_error_category@std@@8 DD FLAT:??_R0?AV_Iostream_error_category@std@@@8 ; std::_Iostream_error_category::`RTTI Base Class Descriptor at (0,-1,0,64)'
	DD	02H
	DD	00H
	DD	0ffffffffH
	DD	00H
	DD	040H
	DD	FLAT:??_R3_Iostream_error_category@std@@8
rdata$r	ENDS
;	COMDAT ??_R2_Iostream_error_category@std@@8
rdata$r	SEGMENT
??_R2_Iostream_error_category@std@@8 DD FLAT:??_R1A@?0A@EA@_Iostream_error_category@std@@8 ; std::_Iostream_error_category::`RTTI Base Class Array'
	DD	FLAT:??_R1A@?0A@EA@_Generic_error_category@std@@8
	DD	FLAT:??_R1A@?0A@EA@error_category@std@@8
rdata$r	ENDS
;	COMDAT ??_R3_Iostream_error_category@std@@8
rdata$r	SEGMENT
??_R3_Iostream_error_category@std@@8 DD 00H		; std::_Iostream_error_category::`RTTI Class Hierarchy Descriptor'
	DD	00H
	DD	03H
	DD	FLAT:??_R2_Iostream_error_category@std@@8
rdata$r	ENDS
;	COMDAT ??_R0?AV_Iostream_error_category@std@@@8
_DATA	SEGMENT
??_R0?AV_Iostream_error_category@std@@@8 DD FLAT:??_7type_info@@6B@ ; std::_Iostream_error_category `RTTI Type Descriptor'
	DD	00H
	DB	'.?AV_Iostream_error_category@std@@', 00H
_DATA	ENDS
;	COMDAT ??_R4_Iostream_error_category@std@@6B@
rdata$r	SEGMENT
??_R4_Iostream_error_category@std@@6B@ DD 00H		; std::_Iostream_error_category::`RTTI Complete Object Locator'
	DD	00H
	DD	00H
	DD	FLAT:??_R0?AV_Iostream_error_category@std@@@8
	DD	FLAT:??_R3_Iostream_error_category@std@@8
rdata$r	ENDS
;	COMDAT ??_R1A@?0A@EA@_Generic_error_category@std@@8
rdata$r	SEGMENT
??_R1A@?0A@EA@_Generic_error_category@std@@8 DD FLAT:??_R0?AV_Generic_error_category@std@@@8 ; std::_Generic_error_category::`RTTI Base Class Descriptor at (0,-1,0,64)'
	DD	01H
	DD	00H
	DD	0ffffffffH
	DD	00H
	DD	040H
	DD	FLAT:??_R3_Generic_error_category@std@@8
rdata$r	ENDS
;	COMDAT ??_R2_Generic_error_category@std@@8
rdata$r	SEGMENT
??_R2_Generic_error_category@std@@8 DD FLAT:??_R1A@?0A@EA@_Generic_error_category@std@@8 ; std::_Generic_error_category::`RTTI Base Class Array'
	DD	FLAT:??_R1A@?0A@EA@error_category@std@@8
rdata$r	ENDS
;	COMDAT ??_R3_Generic_error_category@std@@8
rdata$r	SEGMENT
??_R3_Generic_error_category@std@@8 DD 00H		; std::_Generic_error_category::`RTTI Class Hierarchy Descriptor'
	DD	00H
	DD	02H
	DD	FLAT:??_R2_Generic_error_category@std@@8
rdata$r	ENDS
;	COMDAT ??_R0?AV_Generic_error_category@std@@@8
_DATA	SEGMENT
??_R0?AV_Generic_error_category@std@@@8 DD FLAT:??_7type_info@@6B@ ; std::_Generic_error_category `RTTI Type Descriptor'
	DD	00H
	DB	'.?AV_Generic_error_category@std@@', 00H
_DATA	ENDS
;	COMDAT ??_R4_Generic_error_category@std@@6B@
rdata$r	SEGMENT
??_R4_Generic_error_category@std@@6B@ DD 00H		; std::_Generic_error_category::`RTTI Complete Object Locator'
	DD	00H
	DD	00H
	DD	FLAT:??_R0?AV_Generic_error_category@std@@@8
	DD	FLAT:??_R3_Generic_error_category@std@@8
rdata$r	ENDS
;	COMDAT ??_R1A@?0A@EA@error_category@std@@8
rdata$r	SEGMENT
??_R1A@?0A@EA@error_category@std@@8 DD FLAT:??_R0?AVerror_category@std@@@8 ; std::error_category::`RTTI Base Class Descriptor at (0,-1,0,64)'
	DD	00H
	DD	00H
	DD	0ffffffffH
	DD	00H
	DD	040H
	DD	FLAT:??_R3error_category@std@@8
rdata$r	ENDS
;	COMDAT ??_R2error_category@std@@8
rdata$r	SEGMENT
??_R2error_category@std@@8 DD FLAT:??_R1A@?0A@EA@error_category@std@@8 ; std::error_category::`RTTI Base Class Array'
rdata$r	ENDS
;	COMDAT ??_R3error_category@std@@8
rdata$r	SEGMENT
??_R3error_category@std@@8 DD 00H			; std::error_category::`RTTI Class Hierarchy Descriptor'
	DD	00H
	DD	01H
	DD	FLAT:??_R2error_category@std@@8
rdata$r	ENDS
;	COMDAT ??_R0?AVerror_category@std@@@8
_DATA	SEGMENT
??_R0?AVerror_category@std@@@8 DD FLAT:??_7type_info@@6B@ ; std::error_category `RTTI Type Descriptor'
	DD	00H
	DB	'.?AVerror_category@std@@', 00H
_DATA	ENDS
;	COMDAT ??_R4error_category@std@@6B@
rdata$r	SEGMENT
??_R4error_category@std@@6B@ DD 00H			; std::error_category::`RTTI Complete Object Locator'
	DD	00H
	DD	00H
	DD	FLAT:??_R0?AVerror_category@std@@@8
	DD	FLAT:??_R3error_category@std@@8
rdata$r	ENDS
;	COMDAT ??_C@_0BA@JFNIOLAK@string?5too?5long?$AA@
CONST	SEGMENT
??_C@_0BA@JFNIOLAK@string?5too?5long?$AA@ DB 'string too long', 00H ; `string'
CONST	ENDS
;	COMDAT ??_C@_0BI@CFPLBAOH@invalid?5string?5position?$AA@
CONST	SEGMENT
??_C@_0BI@CFPLBAOH@invalid?5string?5position?$AA@ DB 'invalid string posi'
	DB	'tion', 00H					; `string'
CONST	ENDS
;	COMDAT ??_C@_0FN@MNJCEOEK@?$CK?$CK?9?9?$CK?$CK?5Rng?5?$CFf?5Imp?5X?5?$CFf?5Imp?5Y?5?$CFf?5@
CONST	SEGMENT
??_C@_0FN@MNJCEOEK@?$CK?$CK?9?9?$CK?$CK?5Rng?5?$CFf?5Imp?5X?5?$CFf?5Imp?5Y?5?$CFf?5@ DB '*'
	DB	'*--** Rng %f Imp X %f Imp Y %f Imp Z %f pel %f paz %f PipEl %'
	DB	'f PipAz %f dx %f dy %f dz %f ', 0aH, 00H	; `string'
CONST	ENDS
;	COMDAT ??_7MissileClass@@6B@
CONST	SEGMENT
??_7MissileClass@@6B@ DD FLAT:??_R4MissileClass@@6B@	; MissileClass::`vftable'
	DD	FLAT:?CustomCollisionCheck@VuEntity@@UAEEPAV1@M@Z
	DD	FLAT:?TerrainCollisionCheck@VuEntity@@UAEEXZ
	DD	FLAT:?IsTarget@VuEntity@@UAEEXZ
	DD	FLAT:?IsSession@VuEntity@@UAEEXZ
	DD	FLAT:?IsGroup@VuEntity@@UAEEXZ
	DD	FLAT:?IsGame@VuEntity@@UAEEXZ
	DD	FLAT:?IsCamera@VuEntity@@UBEEXZ
	DD	FLAT:?SaveSize@SimWeaponClass@@UAEHXZ
	DD	FLAT:?Save@SimWeaponClass@@UAEHPAU_iobuf@@@Z
	DD	FLAT:?Save@SimWeaponClass@@UAEHPAPAE@Z
	DD	FLAT:?Handle@VuEntity@@UAEHPAVVuSessionEvent@@@Z
	DD	FLAT:?Handle@SimWeaponClass@@UAEHPAVVuTransferEvent@@@Z
	DD	FLAT:?Handle@VuEntity@@UAEHPAVVuEntityCollisionEvent@@@Z
	DD	FLAT:?Handle@SimWeaponClass@@UAEHPAVVuPositionUpdateEvent@@@Z
	DD	FLAT:?Handle@SimWeaponClass@@UAEHPAVVuFullUpdateEvent@@@Z
	DD	FLAT:?Handle@VuEntity@@UAEHPAVVuEvent@@@Z
	DD	FLAT:?Handle@VuEntity@@UAEHPAVVuPullRequest@@@Z
	DD	FLAT:?Handle@VuEntity@@UAEHPAVVuPushRequest@@@Z
	DD	FLAT:?Handle@VuEntity@@UAEHPAVVuErrorMessage@@@Z
	DD	FLAT:??_EMissileClass@@UAEPAXI@Z
	DD	FLAT:?InsertionCallback@SimMoverClass@@UAEHXZ
	DD	FLAT:?RemovalCallback@SimMoverClass@@UAEHXZ
	DD	FLAT:?InitData@MissileClass@@UAEXXZ
	DD	FLAT:?CleanupData@MissileClass@@UAEXXZ
	DD	FLAT:?IsSimBase@SimBaseClass@@UAE_NXZ
	DD	FLAT:?IsCampBase@FalconEntity@@UAE_NXZ
	DD	FLAT:?Wake@MissileClass@@UAEHXZ
	DD	FLAT:?Sleep@MissileClass@@UAEHXZ
	DD	FLAT:?GetCampID@SimBaseClass@@UAEFXZ
	DD	FLAT:?GetTeam@SimBaseClass@@UAEEXZ
	DD	FLAT:?GetCountry@SimBaseClass@@UAEEXZ
	DD	FLAT:?GetDomain@FalconEntity@@UAEEXZ
	DD	FLAT:?GetRadarMode@FalconEntity@@UAEHXZ
	DD	FLAT:?SetRadarMode@FalconEntity@@UAEXE@Z
	DD	FLAT:?ReturnToSearch@FalconEntity@@UAEXXZ
	DD	FLAT:?SetSearchMode@FalconEntity@@UAEXE@Z
	DD	FLAT:?CombatClass@FalconEntity@@UAEHXZ
	DD	FLAT:?OnGround@SimBaseClass@@UAEHXZ
	DD	FLAT:?HasEntity@FalconEntity@@UBEHPAVVuEntity@@@Z
	DD	FLAT:?IsMissile@MissileClass@@UAEHXZ
	DD	FLAT:?IsLauncher@FalconEntity@@UAEHXZ
	DD	FLAT:?IsBomb@FalconEntity@@UAEHXZ
	DD	FLAT:?IsGun@FalconEntity@@UAEHXZ
	DD	FLAT:?IsMover@SimMoverClass@@UAEHXZ
	DD	FLAT:?IsVehicle@FalconEntity@@UAEHXZ
	DD	FLAT:?IsStatic@FalconEntity@@UAEHXZ
	DD	FLAT:?IsHelicopter@FalconEntity@@UAEHXZ
	DD	FLAT:?IsEject@FalconEntity@@UAEHXZ
	DD	FLAT:?IsAirplane@FalconEntity@@UAEHXZ
	DD	FLAT:?IsGroundVehicle@FalconEntity@@UAEHXZ
	DD	FLAT:?IsShip@FalconEntity@@UAEHXZ
	DD	FLAT:?IsWeapon@SimWeaponClass@@UAEHXZ
	DD	FLAT:?IsExploding@SimBaseClass@@UAEHXZ
	DD	FLAT:?IsDead@FalconEntity@@UAEHXZ
	DD	FLAT:?IsEmitting@FalconEntity@@UAEHXZ
	DD	FLAT:?GetVt@SimMoverClass@@UBEMXZ
	DD	FLAT:?GetKias@SimMoverClass@@UBEMXZ
	DD	FLAT:?GetMovementType@SimBaseClass@@UAE?AW4MoveType@@XZ
	DD	FLAT:?IsUnit@FalconEntity@@UAEHXZ
	DD	FLAT:?IsObjective@FalconEntity@@UAEHXZ
	DD	FLAT:?IsBattalion@FalconEntity@@UAEHXZ
	DD	FLAT:?IsBrigade@FalconEntity@@UAEHXZ
	DD	FLAT:?IsFlight@FalconEntity@@UBEHXZ
	DD	FLAT:?IsSquadron@FalconEntity@@UAEHXZ
	DD	FLAT:?IsPackage@FalconEntity@@UAEHXZ
	DD	FLAT:?IsTeam@FalconEntity@@UAEHXZ
	DD	FLAT:?IsTaskForce@FalconEntity@@UAEHXZ
	DD	FLAT:?IsSPJamming@SimBaseClass@@UAEHXZ
	DD	FLAT:?IsAreaJamming@SimBaseClass@@UAEHXZ
	DD	FLAT:?HasSPJamming@SimBaseClass@@UAEHXZ
	DD	FLAT:?HasAreaJamming@SimBaseClass@@UAEHXZ
	DD	FLAT:?GetRCSFactor@FalconEntity@@UAEMXZ
	DD	FLAT:?GetIRFactor@FalconEntity@@UAEMXZ
	DD	FLAT:?GetRadarType@SimWeaponClass@@UAEHXZ
	DD	FLAT:?GetDamageModifiers@FalconEntity@@UAEPAEXZ
	DD	FLAT:?SetAQUIREtimer@FalconEntity@@UAEXK@Z
	DD	FLAT:?SetSEARCHtimer@FalconEntity@@UAEXK@Z
	DD	FLAT:?SetStepSearchMode@FalconEntity@@UAEXE@Z
	DD	FLAT:?GetAQUIREtimer@FalconEntity@@UAEKXZ
	DD	FLAT:?GetSEARCHtimer@FalconEntity@@UAEKXZ
	DD	FLAT:?WeaponKeepAlive@SimMoverClass@@UAEXXZ
	DD	FLAT:?JoinFlight@SimBaseClass@@UAEXXZ
	DD	FLAT:?ChangeOwner@SimMoverClass@@UAEXVVU_ID@@@Z
	DD	FLAT:?MakeLocal@SimMoverClass@@UAEXXZ
	DD	FLAT:?MakeRemote@SimMoverClass@@UAEXXZ
	DD	FLAT:?IsDead@SimBaseClass@@UBEHXZ
	DD	FLAT:?Init@MissileClass@@UAEXPAVSimInitDataClass@@@Z
	DD	FLAT:?Exec@MissileClass@@UAEHXZ
	DD	FLAT:?GetTransform@MissileClass@@UAEXQAY02M@Z
	DD	FLAT:?ApplyDamage@SimBaseClass@@UAEXPAVFalconDamageMessage@@@Z
	DD	FLAT:?ApplyDeathMessage@SimBaseClass@@UAEXPAVFalconDeathMessage@@@Z
	DD	FLAT:?SetDead@MissileClass@@UAEXH@Z
	DD	FLAT:?MakePlayerVehicle@SimBaseClass@@UAEXXZ
	DD	FLAT:?MakeNonPlayerVehicle@SimBaseClass@@UAEXXZ
	DD	FLAT:?ConfigurePlayerAvionics@SimBaseClass@@UAEXXZ
	DD	FLAT:?SetVuPosition@MissileClass@@UAEXXZ
	DD	FLAT:?Regenerate@SimBaseClass@@UAEXMMMM@Z
	DD	FLAT:?Mass@SimBaseClass@@UAEMXZ
	DD	FLAT:?GetFocusPoint@SimBaseClass@@UAEXAAM00@Z
	DD	FLAT:?GetP@SimMoverClass@@UAEMXZ
	DD	FLAT:?GetQ@SimMoverClass@@UAEMXZ
	DD	FLAT:?GetR@SimMoverClass@@UAEMXZ
	DD	FLAT:?GetAlpha@SimMoverClass@@UAEMXZ
	DD	FLAT:?GetBeta@SimMoverClass@@UAEMXZ
	DD	FLAT:?GetNx@SimMoverClass@@UAEMXZ
	DD	FLAT:?GetNy@SimMoverClass@@UAEMXZ
	DD	FLAT:?GetNz@SimMoverClass@@UAEMXZ
	DD	FLAT:?GetGamma@SimMoverClass@@UAEMXZ
	DD	FLAT:?GetSigma@SimMoverClass@@UAEMXZ
	DD	FLAT:?GetMu@SimMoverClass@@UAEMXZ
	DD	FLAT:?SetLead@SimMoverClass@@UAEXH@Z
	DD	FLAT:?FeatureCollision@SimMoverClass@@UAEPAVSimBaseClass@@M@Z
	DD	FLAT:?CheckLOS@SimMoverClass@@UAEHPAVSimObjectType@@@Z
	DD	FLAT:?CheckCompositeLOS@SimMoverClass@@UAEHPAVSimObjectType@@@Z
	DD	FLAT:?Init@MissileClass@@UAEXXZ
	DD	FLAT:?IsUseable@SimWeaponClass@@UAEHXZ
	DD	FLAT:?LaunchDelayTime@MissileClass@@UAEHXZ
CONST	ENDS
;	COMDAT ??_C@_06FHFOAHML@system?$AA@
CONST	SEGMENT
??_C@_06FHFOAHML@system?$AA@ DB 'system', 00H		; `string'
CONST	ENDS
;	COMDAT ??_7_System_error_category@std@@6B@
CONST	SEGMENT
??_7_System_error_category@std@@6B@ DD FLAT:??_R4_System_error_category@std@@6B@ ; std::_System_error_category::`vftable'
	DD	FLAT:??_E_System_error_category@std@@UAEPAXI@Z
	DD	FLAT:?name@_System_error_category@std@@UBEPBDXZ
	DD	FLAT:?message@_System_error_category@std@@UBE?AV?$basic_string@DU?$char_traits@D@std@@V?$allocator@D@2@@2@H@Z
	DD	FLAT:?default_error_condition@_System_error_category@std@@UBE?AVerror_condition@2@H@Z
	DD	FLAT:?equivalent@error_category@std@@UBE_NABVerror_code@2@H@Z
	DD	FLAT:?equivalent@error_category@std@@UBE_NHABVerror_condition@2@@Z
CONST	ENDS
;	COMDAT ??_C@_0BG@PADBLCHM@iostream?5stream?5error?$AA@
CONST	SEGMENT
??_C@_0BG@PADBLCHM@iostream?5stream?5error?$AA@ DB 'iostream stream error'
	DB	00H						; `string'
CONST	ENDS
;	COMDAT ??_C@_08LLGCOLLL@iostream?$AA@
CONST	SEGMENT
??_C@_08LLGCOLLL@iostream?$AA@ DB 'iostream', 00H	; `string'
CONST	ENDS
;	COMDAT ??_7_Iostream_error_category@std@@6B@
CONST	SEGMENT
??_7_Iostream_error_category@std@@6B@ DD FLAT:??_R4_Iostream_error_category@std@@6B@ ; std::_Iostream_error_category::`vftable'
	DD	FLAT:??_E_Iostream_error_category@std@@UAEPAXI@Z
	DD	FLAT:?name@_Iostream_error_category@std@@UBEPBDXZ
	DD	FLAT:?message@_Iostream_error_category@std@@UBE?AV?$basic_string@DU?$char_traits@D@std@@V?$allocator@D@2@@2@H@Z
	DD	FLAT:?default_error_condition@error_category@std@@UBE?AVerror_condition@2@H@Z
	DD	FLAT:?equivalent@error_category@std@@UBE_NABVerror_code@2@H@Z
	DD	FLAT:?equivalent@error_category@std@@UBE_NHABVerror_condition@2@@Z
CONST	ENDS
;	COMDAT ??_C@_0O@BFJCFAAK@unknown?5error?$AA@
CONST	SEGMENT
??_C@_0O@BFJCFAAK@unknown?5error?$AA@ DB 'unknown error', 00H ; `string'
CONST	ENDS
;	COMDAT ??_C@_07DCLBNMLN@generic?$AA@
CONST	SEGMENT
??_C@_07DCLBNMLN@generic?$AA@ DB 'generic', 00H		; `string'
CONST	ENDS
;	COMDAT ??_7_Generic_error_category@std@@6B@
CONST	SEGMENT
??_7_Generic_error_category@std@@6B@ DD FLAT:??_R4_Generic_error_category@std@@6B@ ; std::_Generic_error_category::`vftable'
	DD	FLAT:??_E_Generic_error_category@std@@UAEPAXI@Z
	DD	FLAT:?name@_Generic_error_category@std@@UBEPBDXZ
	DD	FLAT:?message@_Generic_error_category@std@@UBE?AV?$basic_string@DU?$char_traits@D@std@@V?$allocator@D@2@@2@H@Z
	DD	FLAT:?default_error_condition@error_category@std@@UBE?AVerror_condition@2@H@Z
	DD	FLAT:?equivalent@error_category@std@@UBE_NABVerror_code@2@H@Z
	DD	FLAT:?equivalent@error_category@std@@UBE_NHABVerror_condition@2@@Z
CONST	ENDS
;	COMDAT ??_7error_category@std@@6B@
CONST	SEGMENT
??_7error_category@std@@6B@ DD FLAT:??_R4error_category@std@@6B@ ; std::error_category::`vftable'
	DD	FLAT:??_Eerror_category@std@@UAEPAXI@Z
	DD	FLAT:__purecall
	DD	FLAT:__purecall
	DD	FLAT:?default_error_condition@error_category@std@@UBE?AVerror_condition@2@H@Z
	DD	FLAT:?equivalent@error_category@std@@UBE_NABVerror_code@2@H@Z
	DD	FLAT:?equivalent@error_category@std@@UBE_NHABVerror_condition@2@@Z
CONST	ENDS
;	COMDAT xdata$x
xdata$x	SEGMENT
__unwindtable$??$construct@PADAAPAD@?$allocator@D@std@@QAEXPAPADAAPAD@Z DD 0ffffffffH
	DD	FLAT:__unwindfunclet$??$construct@PADAAPAD@?$allocator@D@std@@QAEXPAPADAAPAD@Z$0
__ehfuncinfo$??$construct@PADAAPAD@?$allocator@D@std@@QAEXPAPADAAPAD@Z DD 019930522H
	DD	01H
	DD	FLAT:__unwindtable$??$construct@PADAAPAD@?$allocator@D@std@@QAEXPAPADAAPAD@Z
	DD	2 DUP(00H)
	DD	2 DUP(00H)
	DD	00H
	DD	01H
xdata$x	ENDS
xdata$x	SEGMENT
__unwindtable$?Start@MissileClass@@QAEXPAVSimObjectType@@@Z DD 0ffffffffH
	DD	FLAT:__unwindfunclet$?Start@MissileClass@@QAEXPAVSimObjectType@@@Z$0
__unwindtable$?Exec@MissileClass@@UAEHXZ DD 0ffffffffH
	DD	FLAT:__unwindfunclet$?Exec@MissileClass@@UAEHXZ$0
__unwindtable$??1MissileClass@@UAE@XZ DD 0ffffffffH
	DD	FLAT:__unwindfunclet$??1MissileClass@@UAE@XZ$0
__unwindtable$??0MissileClass@@QAE@H@Z DD 0ffffffffH
	DD	FLAT:__unwindfunclet$??0MissileClass@@QAE@H@Z$0
__unwindtable$??0MissileClass@@QAE@PAU_iobuf@@@Z DD 0ffffffffH
	DD	FLAT:__unwindfunclet$??0MissileClass@@QAE@PAU_iobuf@@@Z$0
__unwindtable$??0MissileClass@@QAE@PAPAEPAJ@Z DD 0ffffffffH
	DD	FLAT:__unwindfunclet$??0MissileClass@@QAE@PAPAEPAJ@Z$0
__unwindtable$?EndMissile@MissileClass@@AAEXXZ DD 0ffffffffH
	DD	FLAT:__unwindfunclet$?EndMissile@MissileClass@@AAEXXZ$0
	DD	0ffffffffH
	DD	FLAT:__unwindfunclet$?EndMissile@MissileClass@@AAEXXZ$1
__unwindtable$?ApplyProximityDamage@MissileClass@@AAEXXZ DD 0ffffffffH
	DD	FLAT:__unwindfunclet$?ApplyProximityDamage@MissileClass@@AAEXXZ$0
	DD	00H
	DD	FLAT:__unwindfunclet$?ApplyProximityDamage@MissileClass@@AAEXXZ$1
	DD	00H
	DD	FLAT:__unwindfunclet$?ApplyProximityDamage@MissileClass@@AAEXXZ$2
__ehfuncinfo$?ApplyProximityDamage@MissileClass@@AAEXXZ DD 019930522H
	DD	03H
	DD	FLAT:__unwindtable$?ApplyProximityDamage@MissileClass@@AAEXXZ
	DD	2 DUP(00H)
	DD	2 DUP(00H)
	DD	00H
	DD	01H
__ehfuncinfo$?EndMissile@MissileClass@@AAEXXZ DD 019930522H
	DD	02H
	DD	FLAT:__unwindtable$?EndMissile@MissileClass@@AAEXXZ
	DD	2 DUP(00H)
	DD	2 DUP(00H)
	DD	00H
	DD	01H
__ehfuncinfo$?Start@MissileClass@@QAEXPAVSimObjectType@@@Z DD 019930522H
	DD	01H
	DD	FLAT:__unwindtable$?Start@MissileClass@@QAEXPAVSimObjectType@@@Z
	DD	2 DUP(00H)
	DD	2 DUP(00H)
	DD	00H
	DD	01H
__ehfuncinfo$?Exec@MissileClass@@UAEHXZ DD 019930522H
	DD	01H
	DD	FLAT:__unwindtable$?Exec@MissileClass@@UAEHXZ
	DD	2 DUP(00H)
	DD	2 DUP(00H)
	DD	00H
	DD	01H
__ehfuncinfo$?Init@MissileClass@@UAEXXZ DD 019930522H
	DD	06H
	DD	FLAT:__unwindtable$?Init@MissileClass@@UAEXXZ
	DD	2 DUP(00H)
	DD	2 DUP(00H)
	DD	00H
	DD	01H
__ehfuncinfo$??1MissileClass@@UAE@XZ DD 019930522H
	DD	01H
	DD	FLAT:__unwindtable$??1MissileClass@@UAE@XZ
	DD	2 DUP(00H)
	DD	2 DUP(00H)
	DD	00H
	DD	01H
__ehfuncinfo$??0MissileClass@@QAE@H@Z DD 019930522H
	DD	01H
	DD	FLAT:__unwindtable$??0MissileClass@@QAE@H@Z
	DD	2 DUP(00H)
	DD	2 DUP(00H)
	DD	00H
	DD	01H
__ehfuncinfo$??0MissileClass@@QAE@PAU_iobuf@@@Z DD 019930522H
	DD	01H
	DD	FLAT:__unwindtable$??0MissileClass@@QAE@PAU_iobuf@@@Z
	DD	2 DUP(00H)
	DD	2 DUP(00H)
	DD	00H
	DD	01H
__ehfuncinfo$??0MissileClass@@QAE@PAPAEPAJ@Z DD 019930522H
	DD	01H
	DD	FLAT:__unwindtable$??0MissileClass@@QAE@PAPAEPAJ@Z
	DD	2 DUP(00H)
	DD	2 DUP(00H)
	DD	00H
	DD	01H
__unwindtable$?Init@MissileClass@@UAEXXZ DD 0ffffffffH
	DD	FLAT:__unwindfunclet$?Init@MissileClass@@UAEXXZ$0
	DD	0ffffffffH
	DD	FLAT:__unwindfunclet$?Init@MissileClass@@UAEXXZ$1
	DD	0ffffffffH
	DD	FLAT:__unwindfunclet$?Init@MissileClass@@UAEXXZ$2
	DD	0ffffffffH
	DD	FLAT:__unwindfunclet$?Init@MissileClass@@UAEXXZ$3
	DD	0ffffffffH
	DD	FLAT:__unwindfunclet$?Init@MissileClass@@UAEXXZ$4
	DD	0ffffffffH
	DD	FLAT:__unwindfunclet$?Init@MissileClass@@UAEXXZ$5
xdata$x	ENDS
;	COMDAT xdata$x
xdata$x	SEGMENT
__catchsym$?_Copy@?$basic_string@DU?$char_traits@D@std@@V?$allocator@D@2@@std@@QAEXII@Z$5 DD 040H
	DD	00H
	DD	00H
	DD	FLAT:__catch$?_Copy@?$basic_string@DU?$char_traits@D@std@@V?$allocator@D@2@@std@@QAEXII@Z$0
__catchsym$?_Copy@?$basic_string@DU?$char_traits@D@std@@V?$allocator@D@2@@std@@QAEXII@Z$4 DD 040H
	DD	00H
	DD	00H
	DD	FLAT:__catch$?_Copy@?$basic_string@DU?$char_traits@D@std@@V?$allocator@D@2@@std@@QAEXII@Z$1
__unwindtable$?_Copy@?$basic_string@DU?$char_traits@D@std@@V?$allocator@D@2@@std@@QAEXII@Z DD 0ffffffffH
	DD	00H
	DD	0ffffffffH
	DD	00H
	DD	01H
	DD	00H
	DD	01H
	DD	00H
__ehfuncinfo$?_Copy@?$basic_string@DU?$char_traits@D@std@@V?$allocator@D@2@@std@@QAEXII@Z DD 019930522H
	DD	04H
	DD	FLAT:__unwindtable$?_Copy@?$basic_string@DU?$char_traits@D@std@@V?$allocator@D@2@@std@@QAEXII@Z
	DD	02H
	DD	FLAT:__tryblocktable$?_Copy@?$basic_string@DU?$char_traits@D@std@@V?$allocator@D@2@@std@@QAEXII@Z
	DD	2 DUP(00H)
	DD	00H
	DD	01H
__tryblocktable$?_Copy@?$basic_string@DU?$char_traits@D@std@@V?$allocator@D@2@@std@@QAEXII@Z DD 02H
	DD	02H
	DD	03H
	DD	01H
	DD	FLAT:__catchsym$?_Copy@?$basic_string@DU?$char_traits@D@std@@V?$allocator@D@2@@std@@QAEXII@Z$4
	DD	00H
	DD	00H
	DD	03H
	DD	01H
	DD	FLAT:__catchsym$?_Copy@?$basic_string@DU?$char_traits@D@std@@V?$allocator@D@2@@std@@QAEXII@Z$5
xdata$x	ENDS
CRT$XCU	SEGMENT
_allocator_arg$initializer$ DD FLAT:??__Eallocator_arg@std@@YAXXZ
CRT$XCU	ENDS
;	COMDAT CRT$XCU
CRT$XCU	SEGMENT
?_Generic_object$initializer$@?$_Error_objects@H@std@@2P6AXXZA DD FLAT:??__E?_Generic_object@?$_Error_objects@H@std@@2V_Generic_error_category@2@A@@YAXXZ ; std::_Error_objects<int>::_Generic_object$initializer$
CRT$XCU	ENDS
;	COMDAT CRT$XCU
CRT$XCU	SEGMENT
?_Iostream_object$initializer$@?$_Error_objects@H@std@@2P6AXXZA DD FLAT:??__E?_Iostream_object@?$_Error_objects@H@std@@2V_Iostream_error_category@2@A@@YAXXZ ; std::_Error_objects<int>::_Iostream_object$initializer$
CRT$XCU	ENDS
;	COMDAT CRT$XCU
CRT$XCU	SEGMENT
?_System_object$initializer$@?$_Error_objects@H@std@@2P6AXXZA DD FLAT:??__E?_System_object@?$_Error_objects@H@std@@2V_System_error_category@2@A@@YAXXZ ; std::_Error_objects<int>::_System_object$initializer$
CRT$XCU	ENDS
;	COMDAT CRT$XCU
CRT$XCU	SEGMENT
?id$initializer$@?$num_put@DV?$back_insert_iterator@V?$basic_string@DU?$char_traits@D@std@@V?$allocator@D@2@@std@@@std@@@std@@2P6AXXZA DD FLAT:??__E?id@?$num_put@DV?$back_insert_iterator@V?$basic_string@DU?$char_traits@D@std@@V?$allocator@D@2@@std@@@std@@@std@@2V0locale@2@A@@YAXXZ ; std::num_put<char,std::back_insert_iterator<std::basic_string<char,std::char_traits<char>,std::allocator<char> > > >::id$initializer$
CRT$XCU	ENDS
;	COMDAT CRT$XCU
CRT$XCU	SEGMENT
?id$initializer$@?$num_put@_WV?$back_insert_iterator@V?$basic_string@_WU?$char_traits@_W@std@@V?$allocator@_W@2@@std@@@std@@@std@@2P6AXXZA DD FLAT:??__E?id@?$num_put@_WV?$back_insert_iterator@V?$basic_string@_WU?$char_traits@_W@std@@V?$allocator@_W@2@@std@@@std@@@std@@2V0locale@2@A@@YAXXZ ; std::num_put<wchar_t,std::back_insert_iterator<std::basic_string<wchar_t,std::char_traits<wchar_t>,std::allocator<wchar_t> > > >::id$initializer$
CRT$XCU	ENDS
;	COMDAT CRT$XCU
CRT$XCU	SEGMENT
?id$initializer$@?$numpunct@D@std@@2P6AXXZA DD FLAT:??__E?id@?$numpunct@D@std@@2V0locale@2@A@@YAXXZ ; std::numpunct<char>::id$initializer$
CRT$XCU	ENDS
;	COMDAT CRT$XCU
CRT$XCU	SEGMENT
?id$initializer$@?$numpunct@_W@std@@2P6AXXZA DD FLAT:??__E?id@?$numpunct@_W@std@@2V0locale@2@A@@YAXXZ ; std::numpunct<wchar_t>::id$initializer$
CRT$XCU	ENDS
; Function compile flags: /Odtp
; File c:\program files (x86)\microsoft visual studio 11.0\vc\include\xmemory0
;	COMDAT ??$destroy@PAD@?$allocator@D@std@@QAEXPAPAD@Z
_TEXT	SEGMENT
_this$ = -4						; size = 4
__Ptr$ = 8						; size = 4
??$destroy@PAD@?$allocator@D@std@@QAEXPAPAD@Z PROC	; std::allocator<char>::destroy<char *>, COMDAT
; _this$ = ecx

; 621  : 		void destroy(_Uty *_Ptr)

	push	ebp
	mov	ebp, esp
	push	ecx
	mov	DWORD PTR _this$[ebp], ecx

; 622  : 		{	// destroy object at _Ptr
; 623  : 		_Ptr->~_Uty();
; 624  : 		}

	mov	esp, ebp
	pop	ebp
	ret	4
??$destroy@PAD@?$allocator@D@std@@QAEXPAPAD@Z ENDP	; std::allocator<char>::destroy<char *>
_TEXT	ENDS
; Function compile flags: /Odtp
; File c:\program files (x86)\microsoft visual studio 11.0\vc\include\xmemory0
;	COMDAT ??$construct@PADAAPAD@?$allocator@D@std@@QAEXPAPADAAPAD@Z
_TEXT	SEGMENT
$T2 = -28						; size = 4
_this$ = -24						; size = 4
tv73 = -20						; size = 4
$T3 = -16						; size = 4
__$EHRec$ = -12						; size = 12
__Ptr$ = 8						; size = 4
__V0$ = 12						; size = 4
??$construct@PADAAPAD@?$allocator@D@std@@QAEXPAPADAAPAD@Z PROC ; std::allocator<char>::construct<char *,char * &>, COMDAT
; _this$ = ecx

; 617  : _VARIADIC_EXPAND_0X(_ALLOC_MEMBER_CONSTRUCT, , , , )

	push	ebp
	mov	ebp, esp
	push	-1
	push	__ehhandler$??$construct@PADAAPAD@?$allocator@D@std@@QAEXPAPADAAPAD@Z
	mov	eax, DWORD PTR fs:0
	push	eax
	sub	esp, 16					; 00000010H
	mov	eax, DWORD PTR ___security_cookie
	xor	eax, ebp
	push	eax
	lea	eax, DWORD PTR __$EHRec$[ebp]
	mov	DWORD PTR fs:0, eax
	mov	DWORD PTR _this$[ebp], ecx
	mov	eax, DWORD PTR __Ptr$[ebp]
	push	eax
	push	4
	call	??2@YAPAXIPAX@Z				; operator new
	add	esp, 8
	mov	DWORD PTR $T3[ebp], eax
	mov	DWORD PTR __$EHRec$[ebp+8], 0
	cmp	DWORD PTR $T3[ebp], 0
	je	SHORT $LN3@construct
	mov	ecx, DWORD PTR __V0$[ebp]
	push	ecx
	call	??$forward@AAPAD@std@@YAAAPADAAPAD@Z	; std::forward<char * &>
	add	esp, 4
	mov	edx, DWORD PTR $T3[ebp]
	mov	eax, DWORD PTR [eax]
	mov	DWORD PTR [edx], eax
	mov	ecx, DWORD PTR $T3[ebp]
	mov	DWORD PTR tv73[ebp], ecx
	jmp	SHORT $LN4@construct
$LN3@construct:
	mov	DWORD PTR tv73[ebp], 0
$LN4@construct:
	mov	edx, DWORD PTR tv73[ebp]
	mov	DWORD PTR $T2[ebp], edx
	mov	DWORD PTR __$EHRec$[ebp+8], -1
	mov	ecx, DWORD PTR __$EHRec$[ebp]
	mov	DWORD PTR fs:0, ecx
	pop	ecx
	mov	esp, ebp
	pop	ebp
	ret	8
_TEXT	ENDS
;	COMDAT text$x
text$x	SEGMENT
__unwindfunclet$??$construct@PADAAPAD@?$allocator@D@std@@QAEXPAPADAAPAD@Z$0:
	mov	eax, DWORD PTR __Ptr$[ebp]
	push	eax
	mov	eax, DWORD PTR $T3[ebp]
	push	eax
	call	??3@YAXPAX0@Z				; operator delete
	add	esp, 8
	ret	0
__ehhandler$??$construct@PADAAPAD@?$allocator@D@std@@QAEXPAPADAAPAD@Z:
	mov	edx, DWORD PTR [esp+8]
	lea	eax, DWORD PTR [edx+12]
	mov	ecx, DWORD PTR [edx-20]
	xor	ecx, eax
	call	@__security_check_cookie@4
	mov	eax, OFFSET __ehfuncinfo$??$construct@PADAAPAD@?$allocator@D@std@@QAEXPAPADAAPAD@Z
	jmp	___CxxFrameHandler3
text$x	ENDS
??$construct@PADAAPAD@?$allocator@D@std@@QAEXPAPADAAPAD@Z ENDP ; std::allocator<char>::construct<char *,char * &>
; Function compile flags: /Odtp
; File c:\program files (x86)\microsoft visual studio 11.0\vc\include\xlocnum
;	COMDAT ??__E?id@?$numpunct@_W@std@@2V0locale@2@A@@YAXXZ
text$yc	SEGMENT
??__E?id@?$numpunct@_W@std@@2V0locale@2@A@@YAXXZ PROC	; `dynamic initializer for 'std::numpunct<wchar_t>::id'', COMDAT

; 155  : 		void _Getvals(wchar_t, const lconv *_Ptr, _Locinfo::_Cvtvec)

	push	ebp
	mov	ebp, esp
	push	0
	mov	ecx, OFFSET ?id@?$numpunct@_W@std@@2V0locale@2@A ; std::numpunct<wchar_t>::id
	call	??0id@locale@std@@QAE@I@Z		; std::locale::id::id
	pop	ebp
	ret	0
??__E?id@?$numpunct@_W@std@@2V0locale@2@A@@YAXXZ ENDP	; `dynamic initializer for 'std::numpunct<wchar_t>::id''
text$yc	ENDS
; Function compile flags: /Odtp
; File c:\program files (x86)\microsoft visual studio 11.0\vc\include\xlocnum
;	COMDAT ??__E?id@?$numpunct@D@std@@2V0locale@2@A@@YAXXZ
text$yc	SEGMENT
??__E?id@?$numpunct@D@std@@2V0locale@2@A@@YAXXZ PROC	; `dynamic initializer for 'std::numpunct<char>::id'', COMDAT

; 155  : 		void _Getvals(wchar_t, const lconv *_Ptr, _Locinfo::_Cvtvec)

	push	ebp
	mov	ebp, esp
	push	0
	mov	ecx, OFFSET ?id@?$numpunct@D@std@@2V0locale@2@A ; std::numpunct<char>::id
	call	??0id@locale@std@@QAE@I@Z		; std::locale::id::id
	pop	ebp
	ret	0
??__E?id@?$numpunct@D@std@@2V0locale@2@A@@YAXXZ ENDP	; `dynamic initializer for 'std::numpunct<char>::id''
text$yc	ENDS
; Function compile flags: /Odtp
; File c:\program files (x86)\microsoft visual studio 11.0\vc\include\xlocnum
;	COMDAT ??__E?id@?$num_put@_WV?$back_insert_iterator@V?$basic_string@_WU?$char_traits@_W@std@@V?$allocator@_W@2@@std@@@std@@@std@@2V0locale@2@A@@YAXXZ
text$yc	SEGMENT
??__E?id@?$num_put@_WV?$back_insert_iterator@V?$basic_string@_WU?$char_traits@_W@std@@V?$allocator@_W@2@@std@@@std@@@std@@2V0locale@2@A@@YAXXZ PROC ; `dynamic initializer for 'std::num_put<wchar_t,std::back_insert_iterator<std::basic_string<wchar_t,std::char_traits<wchar_t>,std::allocator<wchar_t> > > >::id'', COMDAT

; 155  : 		void _Getvals(wchar_t, const lconv *_Ptr, _Locinfo::_Cvtvec)

	push	ebp
	mov	ebp, esp
	push	0
	mov	ecx, OFFSET ?id@?$num_put@_WV?$back_insert_iterator@V?$basic_string@_WU?$char_traits@_W@std@@V?$allocator@_W@2@@std@@@std@@@std@@2V0locale@2@A ; std::num_put<wchar_t,std::back_insert_iterator<std::basic_string<wchar_t,std::char_traits<wchar_t>,std::allocator<wchar_t> > > >::id
	call	??0id@locale@std@@QAE@I@Z		; std::locale::id::id
	pop	ebp
	ret	0
??__E?id@?$num_put@_WV?$back_insert_iterator@V?$basic_string@_WU?$char_traits@_W@std@@V?$allocator@_W@2@@std@@@std@@@std@@2V0locale@2@A@@YAXXZ ENDP ; `dynamic initializer for 'std::num_put<wchar_t,std::back_insert_iterator<std::basic_string<wchar_t,std::char_traits<wchar_t>,std::allocator<wchar_t> > > >::id''
text$yc	ENDS
; Function compile flags: /Odtp
; File c:\program files (x86)\microsoft visual studio 11.0\vc\include\xlocnum
;	COMDAT ??__E?id@?$num_put@DV?$back_insert_iterator@V?$basic_string@DU?$char_traits@D@std@@V?$allocator@D@2@@std@@@std@@@std@@2V0locale@2@A@@YAXXZ
text$yc	SEGMENT
??__E?id@?$num_put@DV?$back_insert_iterator@V?$basic_string@DU?$char_traits@D@std@@V?$allocator@D@2@@std@@@std@@@std@@2V0locale@2@A@@YAXXZ PROC ; `dynamic initializer for 'std::num_put<char,std::back_insert_iterator<std::basic_string<char,std::char_traits<char>,std::allocator<char> > > >::id'', COMDAT

; 155  : 		void _Getvals(wchar_t, const lconv *_Ptr, _Locinfo::_Cvtvec)

	push	ebp
	mov	ebp, esp
	push	0
	mov	ecx, OFFSET ?id@?$num_put@DV?$back_insert_iterator@V?$basic_string@DU?$char_traits@D@std@@V?$allocator@D@2@@std@@@std@@@std@@2V0locale@2@A ; std::num_put<char,std::back_insert_iterator<std::basic_string<char,std::char_traits<char>,std::allocator<char> > > >::id
	call	??0id@locale@std@@QAE@I@Z		; std::locale::id::id
	pop	ebp
	ret	0
??__E?id@?$num_put@DV?$back_insert_iterator@V?$basic_string@DU?$char_traits@D@std@@V?$allocator@D@2@@std@@@std@@@std@@2V0locale@2@A@@YAXXZ ENDP ; `dynamic initializer for 'std::num_put<char,std::back_insert_iterator<std::basic_string<char,std::char_traits<char>,std::allocator<char> > > >::id''
text$yc	ENDS
; Function compile flags: /Odtp
; File c:\program files (x86)\microsoft visual studio 11.0\vc\include\xmemory0
;	COMDAT ??$destroy@PAD@?$allocator_traits@V?$allocator@D@std@@@std@@SAXAAV?$allocator@D@1@PAPAD@Z
_TEXT	SEGMENT
__Al$ = 8						; size = 4
__Ptr$ = 12						; size = 4
??$destroy@PAD@?$allocator_traits@V?$allocator@D@std@@@std@@SAXAAV?$allocator@D@1@PAPAD@Z PROC ; std::allocator_traits<std::allocator<char> >::destroy<char *>, COMDAT

; 755  : 		static void destroy(_Alloc& _Al, _Uty *_Ptr)

	push	ebp
	mov	ebp, esp

; 756  : 		{	// destroy object at _Ptr
; 757  : 		_Al.destroy(_Ptr);

	mov	eax, DWORD PTR __Ptr$[ebp]
	push	eax
	mov	ecx, DWORD PTR __Al$[ebp]
	call	??$destroy@PAD@?$allocator@D@std@@QAEXPAPAD@Z ; std::allocator<char>::destroy<char *>

; 758  : 		}

	pop	ebp
	ret	0
??$destroy@PAD@?$allocator_traits@V?$allocator@D@std@@@std@@SAXAAV?$allocator@D@1@PAPAD@Z ENDP ; std::allocator_traits<std::allocator<char> >::destroy<char *>
_TEXT	ENDS
; Function compile flags: /Odtp
; File c:\program files (x86)\microsoft visual studio 11.0\vc\include\xmemory0
;	COMDAT ??$construct@PADAAPAD@?$allocator_traits@V?$allocator@D@std@@@std@@SAXAAV?$allocator@D@1@PAPADAAPAD@Z
_TEXT	SEGMENT
__Al$ = 8						; size = 4
__Ptr$ = 12						; size = 4
__V0$ = 16						; size = 4
??$construct@PADAAPAD@?$allocator_traits@V?$allocator@D@std@@@std@@SAXAAV?$allocator@D@1@PAPADAAPAD@Z PROC ; std::allocator_traits<std::allocator<char> >::construct<char *,char * &>, COMDAT

; 751  : _VARIADIC_EXPAND_0X(_ALLOC_TRAITS_SPECIAL_CONSTRUCT, , , , )

	push	ebp
	mov	ebp, esp
	mov	eax, DWORD PTR __V0$[ebp]
	push	eax
	call	??$forward@AAPAD@std@@YAAAPADAAPAD@Z	; std::forward<char * &>
	add	esp, 4
	push	eax
	mov	ecx, DWORD PTR __Ptr$[ebp]
	push	ecx
	mov	ecx, DWORD PTR __Al$[ebp]
	call	??$construct@PADAAPAD@?$allocator@D@std@@QAEXPAPADAAPAD@Z ; std::allocator<char>::construct<char *,char * &>
	pop	ebp
	ret	0
??$construct@PADAAPAD@?$allocator_traits@V?$allocator@D@std@@@std@@SAXAAV?$allocator@D@1@PAPADAAPAD@Z ENDP ; std::allocator_traits<std::allocator<char> >::construct<char *,char * &>
_TEXT	ENDS
; Function compile flags: /Odtp
; File c:\program files (x86)\microsoft visual studio 11.0\vc\include\type_traits
;	COMDAT ??$forward@AAPAD@std@@YAAAPADAAPAD@Z
_TEXT	SEGMENT
__Arg$ = 8						; size = 4
??$forward@AAPAD@std@@YAAAPADAAPAD@Z PROC		; std::forward<char * &>, COMDAT

; 1775 : 	{	// forward an lvalue

	push	ebp
	mov	ebp, esp

; 1776 : 	return (static_cast<_Ty&&>(_Arg));

	mov	eax, DWORD PTR __Arg$[ebp]

; 1777 : 	}

	pop	ebp
	ret	0
??$forward@AAPAD@std@@YAAAPADAAPAD@Z ENDP		; std::forward<char * &>
_TEXT	ENDS
; Function compile flags: /Odtp
;	COMDAT ??__F?_System_object@?$_Error_objects@H@std@@2V_System_error_category@2@A@@YAXXZ
text$yd	SEGMENT
??__F?_System_object@?$_Error_objects@H@std@@2V_System_error_category@2@A@@YAXXZ PROC ; `dynamic atexit destructor for 'std::_Error_objects<int>::_System_object'', COMDAT
	push	ebp
	mov	ebp, esp
	mov	ecx, OFFSET ?_System_object@?$_Error_objects@H@std@@2V_System_error_category@2@A ; std::_Error_objects<int>::_System_object
	call	??1_System_error_category@std@@UAE@XZ
	pop	ebp
	ret	0
??__F?_System_object@?$_Error_objects@H@std@@2V_System_error_category@2@A@@YAXXZ ENDP ; `dynamic atexit destructor for 'std::_Error_objects<int>::_System_object''
text$yd	ENDS
; Function compile flags: /Odtp
; File c:\program files (x86)\microsoft visual studio 11.0\vc\include\xmemory0
;	COMDAT ??__E?_System_object@?$_Error_objects@H@std@@2V_System_error_category@2@A@@YAXXZ
text$yc	SEGMENT
??__E?_System_object@?$_Error_objects@H@std@@2V_System_error_category@2@A@@YAXXZ PROC ; `dynamic initializer for 'std::_Error_objects<int>::_System_object'', COMDAT

; 627  : 		{	// estimate maximum array size

	push	ebp
	mov	ebp, esp
	mov	ecx, OFFSET ?_System_object@?$_Error_objects@H@std@@2V_System_error_category@2@A ; std::_Error_objects<int>::_System_object
	call	??0_System_error_category@std@@QAE@XZ	; std::_System_error_category::_System_error_category
	push	OFFSET ??__F?_System_object@?$_Error_objects@H@std@@2V_System_error_category@2@A@@YAXXZ ; `dynamic atexit destructor for 'std::_Error_objects<int>::_System_object''
	call	_atexit
	add	esp, 4
	pop	ebp
	ret	0
??__E?_System_object@?$_Error_objects@H@std@@2V_System_error_category@2@A@@YAXXZ ENDP ; `dynamic initializer for 'std::_Error_objects<int>::_System_object''
text$yc	ENDS
; Function compile flags: /Odtp
;	COMDAT ??__F?_Iostream_object@?$_Error_objects@H@std@@2V_Iostream_error_category@2@A@@YAXXZ
text$yd	SEGMENT
??__F?_Iostream_object@?$_Error_objects@H@std@@2V_Iostream_error_category@2@A@@YAXXZ PROC ; `dynamic atexit destructor for 'std::_Error_objects<int>::_Iostream_object'', COMDAT
	push	ebp
	mov	ebp, esp
	mov	ecx, OFFSET ?_Iostream_object@?$_Error_objects@H@std@@2V_Iostream_error_category@2@A ; std::_Error_objects<int>::_Iostream_object
	call	??1_Iostream_error_category@std@@UAE@XZ
	pop	ebp
	ret	0
??__F?_Iostream_object@?$_Error_objects@H@std@@2V_Iostream_error_category@2@A@@YAXXZ ENDP ; `dynamic atexit destructor for 'std::_Error_objects<int>::_Iostream_object''
text$yd	ENDS
; Function compile flags: /Odtp
; File c:\program files (x86)\microsoft visual studio 11.0\vc\include\xmemory0
;	COMDAT ??__E?_Iostream_object@?$_Error_objects@H@std@@2V_Iostream_error_category@2@A@@YAXXZ
text$yc	SEGMENT
??__E?_Iostream_object@?$_Error_objects@H@std@@2V_Iostream_error_category@2@A@@YAXXZ PROC ; `dynamic initializer for 'std::_Error_objects<int>::_Iostream_object'', COMDAT

; 627  : 		{	// estimate maximum array size

	push	ebp
	mov	ebp, esp
	mov	ecx, OFFSET ?_Iostream_object@?$_Error_objects@H@std@@2V_Iostream_error_category@2@A ; std::_Error_objects<int>::_Iostream_object
	call	??0_Iostream_error_category@std@@QAE@XZ	; std::_Iostream_error_category::_Iostream_error_category
	push	OFFSET ??__F?_Iostream_object@?$_Error_objects@H@std@@2V_Iostream_error_category@2@A@@YAXXZ ; `dynamic atexit destructor for 'std::_Error_objects<int>::_Iostream_object''
	call	_atexit
	add	esp, 4
	pop	ebp
	ret	0
??__E?_Iostream_object@?$_Error_objects@H@std@@2V_Iostream_error_category@2@A@@YAXXZ ENDP ; `dynamic initializer for 'std::_Error_objects<int>::_Iostream_object''
text$yc	ENDS
; Function compile flags: /Odtp
;	COMDAT ??__F?_Generic_object@?$_Error_objects@H@std@@2V_Generic_error_category@2@A@@YAXXZ
text$yd	SEGMENT
??__F?_Generic_object@?$_Error_objects@H@std@@2V_Generic_error_category@2@A@@YAXXZ PROC ; `dynamic atexit destructor for 'std::_Error_objects<int>::_Generic_object'', COMDAT
	push	ebp
	mov	ebp, esp
	mov	ecx, OFFSET ?_Generic_object@?$_Error_objects@H@std@@2V_Generic_error_category@2@A ; std::_Error_objects<int>::_Generic_object
	call	??1_Generic_error_category@std@@UAE@XZ
	pop	ebp
	ret	0
??__F?_Generic_object@?$_Error_objects@H@std@@2V_Generic_error_category@2@A@@YAXXZ ENDP ; `dynamic atexit destructor for 'std::_Error_objects<int>::_Generic_object''
text$yd	ENDS
; Function compile flags: /Odtp
; File c:\program files (x86)\microsoft visual studio 11.0\vc\include\xmemory0
;	COMDAT ??__E?_Generic_object@?$_Error_objects@H@std@@2V_Generic_error_category@2@A@@YAXXZ
text$yc	SEGMENT
??__E?_Generic_object@?$_Error_objects@H@std@@2V_Generic_error_category@2@A@@YAXXZ PROC ; `dynamic initializer for 'std::_Error_objects<int>::_Generic_object'', COMDAT

; 627  : 		{	// estimate maximum array size

	push	ebp
	mov	ebp, esp
	mov	ecx, OFFSET ?_Generic_object@?$_Error_objects@H@std@@2V_Generic_error_category@2@A ; std::_Error_objects<int>::_Generic_object
	call	??0_Generic_error_category@std@@QAE@XZ	; std::_Generic_error_category::_Generic_error_category
	push	OFFSET ??__F?_Generic_object@?$_Error_objects@H@std@@2V_Generic_error_category@2@A@@YAXXZ ; `dynamic atexit destructor for 'std::_Error_objects<int>::_Generic_object''
	call	_atexit
	add	esp, 4
	pop	ebp
	ret	0
??__E?_Generic_object@?$_Error_objects@H@std@@2V_Generic_error_category@2@A@@YAXXZ ENDP ; `dynamic initializer for 'std::_Error_objects<int>::_Generic_object''
text$yc	ENDS
; Function compile flags: /Odtp
; File c:\program files (x86)\microsoft visual studio 11.0\vc\include\xmemory0
;	COMDAT ??$_Allocate@D@std@@YAPADIPAD@Z
_TEXT	SEGMENT
__Ptr$ = -4						; size = 4
__Count$ = 8						; size = 4
___formal$ = 12						; size = 4
??$_Allocate@D@std@@YAPADIPAD@Z PROC			; std::_Allocate<char>, COMDAT

; 22   : 	{	// allocate storage for _Count elements of type _Ty

	push	ebp
	mov	ebp, esp
	push	ecx

; 23   : 	void *_Ptr = 0;

	mov	DWORD PTR __Ptr$[ebp], 0

; 24   : 
; 25   : 	if (_Count == 0)

	cmp	DWORD PTR __Count$[ebp], 0
	jne	SHORT $LN4@Allocate

; 26   : 		;
; 27   : 	else if (((size_t)(-1) / sizeof (_Ty) < _Count)

	jmp	SHORT $LN3@Allocate
$LN4@Allocate:

; 28   : 		|| (_Ptr = ::operator new(_Count * sizeof (_Ty))) == 0)

	cmp	DWORD PTR __Count$[ebp], -1
	ja	SHORT $LN1@Allocate
	mov	eax, DWORD PTR __Count$[ebp]
	push	eax
	call	??2@YAPAXI@Z				; operator new
	add	esp, 4
	mov	DWORD PTR __Ptr$[ebp], eax
	cmp	DWORD PTR __Ptr$[ebp], 0
	jne	SHORT $LN3@Allocate
$LN1@Allocate:

; 29   : 		_Xbad_alloc();	// report no memory

	call	?_Xbad_alloc@std@@YAXXZ			; std::_Xbad_alloc
$LN3@Allocate:

; 30   : 
; 31   : 	return ((_Ty *)_Ptr);

	mov	eax, DWORD PTR __Ptr$[ebp]
$LN6@Allocate:

; 32   : 	}

	mov	esp, ebp
	pop	ebp
	ret	0
??$_Allocate@D@std@@YAPADIPAD@Z ENDP			; std::_Allocate<char>
_TEXT	ENDS
; Function compile flags: /Odtp
; File c:\program files (x86)\microsoft visual studio 11.0\vc\include\xstddef
;	COMDAT ??$addressof@D@std@@YAPADAAD@Z
_TEXT	SEGMENT
__Val$ = 8						; size = 4
??$addressof@D@std@@YAPADAAD@Z PROC			; std::addressof<char>, COMDAT

; 85   : 	{	// return address of _Val

	push	ebp
	mov	ebp, esp

; 86   : 	return (reinterpret_cast<_Ty *>(
; 87   : 		(&const_cast<char&>(
; 88   : 		reinterpret_cast<const volatile char&>(_Val)))));

	mov	eax, DWORD PTR __Val$[ebp]

; 89   : 	}

	pop	ebp
	ret	0
??$addressof@D@std@@YAPADAAD@Z ENDP			; std::addressof<char>
_TEXT	ENDS
; Function compile flags: /Odtp
; File c:\program files (x86)\microsoft visual studio 11.0\vc\include\xmemory0
;	COMDAT ??$destroy@PAD@?$_Wrap_alloc@V?$allocator@D@std@@@std@@QAEXPAPAD@Z
_TEXT	SEGMENT
_this$ = -4						; size = 4
__Ptr$ = 8						; size = 4
??$destroy@PAD@?$_Wrap_alloc@V?$allocator@D@std@@@std@@QAEXPAPAD@Z PROC ; std::_Wrap_alloc<std::allocator<char> >::destroy<char *>, COMDAT
; _this$ = ecx

; 907  : 		void destroy(_Ty *_Ptr)

	push	ebp
	mov	ebp, esp
	push	ecx
	mov	DWORD PTR _this$[ebp], ecx

; 908  : 		{	// destroy object at _Ptr
; 909  : 		_Mytraits::destroy(*this, _Ptr);

	mov	eax, DWORD PTR __Ptr$[ebp]
	push	eax
	mov	ecx, DWORD PTR _this$[ebp]
	push	ecx
	call	??$destroy@PAD@?$allocator_traits@V?$allocator@D@std@@@std@@SAXAAV?$allocator@D@1@PAPAD@Z ; std::allocator_traits<std::allocator<char> >::destroy<char *>
	add	esp, 8

; 910  : 		}

	mov	esp, ebp
	pop	ebp
	ret	4
??$destroy@PAD@?$_Wrap_alloc@V?$allocator@D@std@@@std@@QAEXPAPAD@Z ENDP ; std::_Wrap_alloc<std::allocator<char> >::destroy<char *>
_TEXT	ENDS
; Function compile flags: /Odtp
; File c:\program files (x86)\microsoft visual studio 11.0\vc\include\xmemory0
;	COMDAT ??$construct@PADAAPAD@?$_Wrap_alloc@V?$allocator@D@std@@@std@@QAEXPAPADAAPAD@Z
_TEXT	SEGMENT
_this$ = -4						; size = 4
__Ptr$ = 8						; size = 4
__V0$ = 12						; size = 4
??$construct@PADAAPAD@?$_Wrap_alloc@V?$allocator@D@std@@@std@@QAEXPAPADAAPAD@Z PROC ; std::_Wrap_alloc<std::allocator<char> >::construct<char *,char * &>, COMDAT
; _this$ = ecx

; 903  : _VARIADIC_EXPAND_0X(_WRAP_ALLOC_CONSTRUCT, , , , )

	push	ebp
	mov	ebp, esp
	push	ecx
	mov	DWORD PTR _this$[ebp], ecx
	mov	eax, DWORD PTR __V0$[ebp]
	push	eax
	call	??$forward@AAPAD@std@@YAAAPADAAPAD@Z	; std::forward<char * &>
	add	esp, 4
	push	eax
	mov	ecx, DWORD PTR __Ptr$[ebp]
	push	ecx
	mov	edx, DWORD PTR _this$[ebp]
	push	edx
	call	??$construct@PADAAPAD@?$allocator_traits@V?$allocator@D@std@@@std@@SAXAAV?$allocator@D@1@PAPADAAPAD@Z ; std::allocator_traits<std::allocator<char> >::construct<char *,char * &>
	add	esp, 12					; 0000000cH
	mov	esp, ebp
	pop	ebp
	ret	8
??$construct@PADAAPAD@?$_Wrap_alloc@V?$allocator@D@std@@@std@@QAEXPAPADAAPAD@Z ENDP ; std::_Wrap_alloc<std::allocator<char> >::construct<char *,char * &>
_TEXT	ENDS
; Function compile flags: /Odtp
; File c:\users\zhitao li\documents\visual studio 2012\projects\freefalcon\campaign\include\team.h
;	COMDAT ?GetColor@TeamClass@@QAEHXZ
_TEXT	SEGMENT
_this$ = -4						; size = 4
?GetColor@TeamClass@@QAEHXZ PROC			; TeamClass::GetColor, COMDAT
; _this$ = ecx

; 329  : 	int GetColor (void)							{ return (int) teamColor; }

	push	ebp
	mov	ebp, esp
	push	ecx
	mov	DWORD PTR _this$[ebp], ecx
	mov	eax, DWORD PTR _this$[ebp]
	movzx	eax, BYTE PTR [eax+889]
	mov	esp, ebp
	pop	ebp
	ret	0
?GetColor@TeamClass@@QAEHXZ ENDP			; TeamClass::GetColor
_TEXT	ENDS
; Function compile flags: /Odtp
;	COMDAT ??_GMissileClass@@UAEPAXI@Z
_TEXT	SEGMENT
_this$ = -4						; size = 4
___flags$ = 8						; size = 4
??_GMissileClass@@UAEPAXI@Z PROC			; MissileClass::`scalar deleting destructor', COMDAT
; _this$ = ecx
	push	ebp
	mov	ebp, esp
	push	ecx
	mov	DWORD PTR _this$[ebp], ecx
	mov	ecx, DWORD PTR _this$[ebp]
	call	??1MissileClass@@UAE@XZ			; MissileClass::~MissileClass
	mov	eax, DWORD PTR ___flags$[ebp]
	and	eax, 1
	je	SHORT $LN1@scalar
	mov	ecx, DWORD PTR _this$[ebp]
	push	ecx
	call	??3@YAXPAX@Z				; operator delete
	add	esp, 4
$LN1@scalar:
	mov	eax, DWORD PTR _this$[ebp]
	mov	esp, ebp
	pop	ebp
	ret	4
??_GMissileClass@@UAEPAXI@Z ENDP			; MissileClass::`scalar deleting destructor'
_TEXT	ENDS
; Function compile flags: /Odtp
; File c:\users\zhitao li\documents\visual studio 2012\projects\freefalcon\sim\missile\missmain.cpp
_TEXT	SEGMENT
_gridIt$ = -272						; size = 60
tv579 = -212						; size = 8
_featureWalker$2 = -204					; size = 12
_objectWalker$3 = -192					; size = 12
tv704 = -180						; size = 4
tv611 = -176						; size = 4
tv710 = -172						; size = 4
tv599 = -168						; size = 4
tv637 = -164						; size = 4
tv552 = -160						; size = 4
tv692 = -156						; size = 4
tv607 = -152						; size = 4
tv716 = -148						; size = 4
tv659 = -144						; size = 4
tv688 = -140						; size = 4
tv655 = -136						; size = 4
tv684 = -132						; size = 4
tv619 = -128						; size = 4
tv714 = -124						; size = 4
tv615 = -120						; size = 4
tv680 = -116						; size = 4
tv706 = -112						; size = 4
tv667 = -108						; size = 4
tv603 = -104						; size = 4
tv712 = -100						; size = 4
tv663 = -96						; size = 4
tv708 = -92						; size = 4
_groundType$4 = -88					; size = 4
_tmpZ$ = -84						; size = 4
tv575 = -80						; size = 4
_agl$ = -76						; size = 4
_objective$ = -72					; size = 4
_rangeSquare$ = -68					; size = 4
_tmpY$ = -64						; size = 4
_tmpX$ = -60						; size = 4
_testObject$ = -56					; size = 4
_this$ = -52						; size = 4
_acmiStatSfx$ = -48					; size = 29
__$ArrayPad$ = -16					; size = 4
__$EHRec$ = -12						; size = 12
?ApplyProximityDamage@MissileClass@@AAEXXZ PROC		; MissileClass::ApplyProximityDamage
; _this$ = ecx

; 1138 : {

	push	ebp
	mov	ebp, esp
	push	-1
	push	__ehhandler$?ApplyProximityDamage@MissileClass@@AAEXXZ
	mov	eax, DWORD PTR fs:0
	push	eax
	sub	esp, 260				; 00000104H
	mov	eax, DWORD PTR ___security_cookie
	xor	eax, ebp
	mov	DWORD PTR __$ArrayPad$[ebp], eax
	push	eax
	lea	eax, DWORD PTR __$EHRec$[ebp]
	mov	DWORD PTR fs:0, eax
	mov	DWORD PTR _this$[ebp], ecx

; 1139 : 	float tmpX, tmpY, tmpZ;
; 1140 : 	float rangeSquare;
; 1141 : 	FalconEntity* testObject;
; 1142 : 	CampBaseClass* objective;
; 1143 : 	ACMIStationarySfxRecord acmiStatSfx;
; 1144 : 	//float normBlastDist;
; 1145 : #ifdef VU_GRID_TREE_Y_MAJOR
; 1146 : 	VuGridIterator gridIt(ObjProxList, YPos(), XPos(), NM_TO_FT * 2.0F);

	push	ecx
	movss	xmm0, DWORD PTR __real@463de1b0
	movss	DWORD PTR [esp], xmm0
	mov	ecx, DWORD PTR _this$[ebp]
	call	?XPos@VuEntity@@QBEMXZ			; VuEntity::XPos
	push	ecx
	fstp	DWORD PTR [esp]
	mov	ecx, DWORD PTR _this$[ebp]
	call	?YPos@VuEntity@@QBEMXZ			; VuEntity::YPos
	push	ecx
	fstp	DWORD PTR [esp]
	mov	eax, DWORD PTR ?ObjProxList@@3PAVVuGridTree@@A ; ObjProxList
	push	eax
	lea	ecx, DWORD PTR _gridIt$[ebp]
	call	??0VuGridIterator@@QAE@PAVVuGridTree@@MMM@Z ; VuGridIterator::VuGridIterator
	mov	DWORD PTR __$EHRec$[ebp+8], 0

; 1147 : #else
; 1148 : 	VuGridIterator gridIt(ObjProxList, XPos(), YPos(), NM_TO_FT * 2.0F);
; 1149 : #endif
; 1150 : 
; 1151 : 	// 2002-03-28 MN added BombImpact for "bomb-like" missiles (JSOW...)
; 1152 : 	// RV - Biker - For AGMs we use FeatureImpact also
; 1153 : 	if (done == FalconMissileEndMessage::MissileKill || done == FalconMissileEndMessage::BombImpact || done == FalconMissileEndMessage::FeatureImpact)

	mov	ecx, DWORD PTR _this$[ebp]
	cmp	DWORD PTR [ecx+720], 1
	je	SHORT $LN24@ApplyProxi
	mov	edx, DWORD PTR _this$[ebp]
	cmp	DWORD PTR [edx+720], 11			; 0000000bH
	je	SHORT $LN24@ApplyProxi
	mov	eax, DWORD PTR _this$[ebp]
	cmp	DWORD PTR [eax+720], 10			; 0000000aH
	jne	SHORT $LN23@ApplyProxi
$LN24@ApplyProxi:

; 1154 : 	{
; 1155 : 		//TJ_Changes .... how about we check for another object in the vicinity and apply damage to that ?
; 1156 : 		//Instead of just attacking object you are targeting we will now loop through all aircraft ....
; 1157 : 
; 1158 : //JAM 03Nov03 - This block is causing HARMS and many AA missiles to not cause any damage. Restoring SP3 code for now.
; 1159 : /*		if( domain & wdAir ) {
; 1160 : 			SimBaseClass* testObject;
; 1161 : 
; 1162 : 			if (!SimDriver.objectList) return;
; 1163 : 
; 1164 : 			VuListIterator objectWalker(SimDriver.objectList);
; 1165 : 			testObject = (SimBaseClass*) objectWalker.GetFirst();
; 1166 : 
; 1167 : 			while (testObject) {
; 1168 : 				//TJ_changes
; 1169 : 				//Only check against planes ....
; 1170 : 				//removed this -> dont check against plane that we already were targeting that is handled abouve ... for now .. this could become only check
; 1171 : 				if ( !(testObject->IsAirplane())/* || targetPtr &&  ( targetPtr->BaseData()->Id() == testObject->Id() ) */ /* ) {
; 1172 : 					testObject = (SimBaseClass*) objectWalker.GetNext();
; 1173 : 					continue;
; 1174 : 				}
; 1175 : 				tmpX = testObject->XPos() - XPos();
; 1176 : 				tmpY = testObject->YPos() - YPos();
; 1177 : 				tmpZ = testObject->ZPos() - ZPos();
; 1178 : 
; 1179 : 				rangeSquare = tmpX*tmpX + tmpY*tmpY + tmpZ*tmpZ;
; 1180 : 
; 1181 : 				if (rangeSquare < lethalRadiusSqrd ) {
; 1182 : 					// edg: calculate a normalized blast Dist
; 1183 : 					normBlastDist = ( lethalRadiusSqrd - rangeSquare )/( lethalRadiusSqrd );
; 1184 : 
; 1185 : 					// quadratic dropoff
; 1186 : 					normBlastDist *= normBlastDist;
; 1187 : 					SendDamageMessage( targetPtr->BaseData(), rangeSquare, FalconDamageType::MissileDamage ); // 2002-02-26 MODIFIED BY S.G. Removed '(SimBaseClass*)' from targetPtr->BaseData() since it can be a campaign object anyway (bad practice but no harm was done).
; 1188 : 				}
; 1189 : 				testObject = (SimBaseClass*) objectWalker.GetNext();
; 1190 : 			}
; 1191 : 		}
; 1192 : */		if (targetPtr)

	mov	ecx, DWORD PTR _this$[ebp]
	cmp	DWORD PTR [ecx+656], 0
	je	SHORT $LN23@ApplyProxi

; 1193 : 		{
; 1194 : 			// F4Assert(targetPtr->BaseData()->IsSim());
; 1195 : 			SendDamageMessage(targetPtr->BaseData(),0,FalconDamageType::MissileDamage); // 2002-02-26 MODIFIED BY S.G. Removed '(SimBaseClass*)' from targetPtr->BaseData() since it can be a campaign object anyway (bad practice but no harm was done).

	push	1
	push	ecx
	movss	xmm0, DWORD PTR __real@00000000
	movss	DWORD PTR [esp], xmm0
	mov	edx, DWORD PTR _this$[ebp]
	mov	ecx, DWORD PTR [edx+656]
	call	?BaseData@SimObjectType@@QAEPAVFalconEntity@@XZ ; SimObjectType::BaseData
	push	eax
	mov	ecx, DWORD PTR _this$[ebp]
	call	?SendDamageMessage@SimWeaponClass@@QAEXPAVFalconEntity@@MH@Z ; SimWeaponClass::SendDamageMessage
$LN23@ApplyProxi:

; 1196 : 		}
; 1197 : 	}
; 1198 : 
; 1199 : 	if (done == FalconMissileEndMessage::GroundImpact || ZPos() > groundZ )

	mov	eax, DWORD PTR _this$[ebp]
	cmp	DWORD PTR [eax+720], 7
	je	SHORT $LN21@ApplyProxi
	mov	ecx, DWORD PTR _this$[ebp]
	call	?ZPos@VuEntity@@QBEMXZ			; VuEntity::ZPos
	fstp	DWORD PTR tv552[ebp]
	movss	xmm0, DWORD PTR tv552[ebp]
	mov	ecx, DWORD PTR _this$[ebp]
	comiss	xmm0, DWORD PTR [ecx+796]
	jbe	$LN18@ApplyProxi
$LN21@ApplyProxi:

; 1200 : 	{
; 1201 : 		int groundType;
; 1202 : 		
; 1203 : 		// check for water b4 placing crater
; 1204 : 		groundType = OTWDriver.GetGroundType (XPos(), YPos() );

	mov	ecx, DWORD PTR _this$[ebp]
	call	?YPos@VuEntity@@QBEMXZ			; VuEntity::YPos
	push	ecx
	fstp	DWORD PTR [esp]
	mov	ecx, DWORD PTR _this$[ebp]
	call	?XPos@VuEntity@@QBEMXZ			; VuEntity::XPos
	push	ecx
	fstp	DWORD PTR [esp]
	mov	ecx, OFFSET ?OTWDriver@@3VOTWDriverClass@@A ; OTWDriver
	call	?GetGroundType@OTWDriverClass@@QAEHMM@Z	; OTWDriverClass::GetGroundType
	mov	DWORD PTR _groundType$4[ebp], eax

; 1205 : 		if ( !(groundType == COVERAGE_WATER || groundType == COVERAGE_RIVER) )

	cmp	DWORD PTR _groundType$4[ebp], 1
	je	$LN19@ApplyProxi
	cmp	DWORD PTR _groundType$4[ebp], 2
	je	$LN19@ApplyProxi

; 1206 : 		{
; 1207 : 			AddToTimedPersistantList (VIS_CRATER2 + PRANDInt3(), Camp_GetCurrentTime() + CRATER_REMOVAL_TIME, XPos(), YPos());

	mov	ecx, DWORD PTR _this$[ebp]
	call	?YPos@VuEntity@@QBEMXZ			; VuEntity::YPos
	push	ecx
	fstp	DWORD PTR [esp]
	mov	ecx, DWORD PTR _this$[ebp]
	call	?XPos@VuEntity@@QBEMXZ			; VuEntity::XPos
	push	ecx
	fstp	DWORD PTR [esp]
	call	?Camp_GetCurrentTime@@YAKXZ		; Camp_GetCurrentTime
	add	eax, 3600000				; 0036ee80H
	push	eax
	call	?PRANDInt3@@YAHXZ			; PRANDInt3
	add	eax, 127				; 0000007fH
	push	eax
	call	?AddToTimedPersistantList@@YAXHKMM@Z	; AddToTimedPersistantList
	add	esp, 16					; 00000010H

; 1208 : 			// add crater to ACMI as special effect
; 1209 : 			if ( gACMIRec.IsRecording() )

	mov	ecx, OFFSET ?gACMIRec@@3VACMIRecorder@@A ; gACMIRec
	call	?IsRecording@ACMIRecorder@@QAEHXZ	; ACMIRecorder::IsRecording
	test	eax, eax
	je	$LN19@ApplyProxi

; 1210 : 			{
; 1211 : 
; 1212 : 				acmiStatSfx.hdr.time = SimLibElapsedTime * MSEC_TO_SEC + OTWDriver.todOffset;

	mov	edx, DWORD PTR ?SimLibElapsedTime@@3KA	; SimLibElapsedTime
	mov	DWORD PTR tv575[ebp], edx
	cvtsi2sd xmm0, DWORD PTR tv575[ebp]
	mov	eax, DWORD PTR tv575[ebp]
	shr	eax, 31					; 0000001fH
	addsd	xmm0, QWORD PTR __xmm@41f00000000000000000000000000000[eax*8]
	movsd	QWORD PTR tv579[ebp], xmm0
	cvtsd2ss xmm0, QWORD PTR tv579[ebp]
	mulss	xmm0, DWORD PTR __real@3a83126f
	addss	xmm0, DWORD PTR ?OTWDriver@@3VOTWDriverClass@@A+32052
	movss	DWORD PTR _acmiStatSfx$[ebp+1], xmm0

; 1213 : 				acmiStatSfx.data.type = SFX_CRATER2 + PRANDInt3();

	call	?PRANDInt3@@YAHXZ			; PRANDInt3
	add	eax, 107				; 0000006bH
	mov	DWORD PTR _acmiStatSfx$[ebp+5], eax

; 1214 : 				acmiStatSfx.data.x = XPos();

	mov	ecx, DWORD PTR _this$[ebp]
	call	?XPos@VuEntity@@QBEMXZ			; VuEntity::XPos
	fstp	DWORD PTR _acmiStatSfx$[ebp+9]

; 1215 : 				acmiStatSfx.data.y = YPos();

	mov	ecx, DWORD PTR _this$[ebp]
	call	?YPos@VuEntity@@QBEMXZ			; VuEntity::YPos
	fstp	DWORD PTR _acmiStatSfx$[ebp+13]

; 1216 : 				acmiStatSfx.data.z = ZPos();

	mov	ecx, DWORD PTR _this$[ebp]
	call	?ZPos@VuEntity@@QBEMXZ			; VuEntity::ZPos
	fstp	DWORD PTR _acmiStatSfx$[ebp+17]

; 1217 : 				acmiStatSfx.data.timeToLive = 180.0f;

	movss	xmm0, DWORD PTR __real@43340000
	movss	DWORD PTR _acmiStatSfx$[ebp+21], xmm0

; 1218 : 				acmiStatSfx.data.scale = 1.0f;

	movss	xmm0, DWORD PTR __real@3f800000
	movss	DWORD PTR _acmiStatSfx$[ebp+25], xmm0

; 1219 : 				gACMIRec.StationarySfxRecord( &acmiStatSfx );

	lea	ecx, DWORD PTR _acmiStatSfx$[ebp]
	push	ecx
	mov	ecx, OFFSET ?gACMIRec@@3VACMIRecorder@@A ; gACMIRec
	call	?StationarySfxRecord@ACMIRecorder@@QAEXPAUACMIStationarySfxRecord@@@Z ; ACMIRecorder::StationarySfxRecord
$LN19@ApplyProxi:

; 1220 : 			}
; 1221 : 		}
; 1222 : 		
; 1223 : 		
; 1224 : 		// now we need to check objects
; 1225 : 		// only do this on ground impact
; 1226 : 		if (SimDriver.combinedList)

	cmp	DWORD PTR ?SimDriver@@3VSimulationDriver@@A+16, 0
	je	$LN18@ApplyProxi

; 1227 : 		{
; 1228 : 			VuListIterator objectWalker(SimDriver.combinedList);	

	mov	edx, DWORD PTR ?SimDriver@@3VSimulationDriver@@A+16
	push	edx
	lea	ecx, DWORD PTR _objectWalker$3[ebp]
	call	??0VuListIterator@@QAE@PAVVuLinkedList@@@Z ; VuListIterator::VuListIterator
	mov	BYTE PTR __$EHRec$[ebp+8], 1

; 1229 : 			// Check vs vehicles
; 1230 : 			testObject = (FalconEntity*) objectWalker.GetFirst();

	lea	ecx, DWORD PTR _objectWalker$3[ebp]
	call	?GetFirst@VuListIterator@@QAEPAVVuEntity@@XZ ; VuListIterator::GetFirst
	mov	DWORD PTR _testObject$[ebp], eax
$LN17@ApplyProxi:

; 1231 : 			while (testObject)

	cmp	DWORD PTR _testObject$[ebp], 0
	je	$LN16@ApplyProxi

; 1232 : 			{
; 1233 : 				if (testObject != this)

	mov	eax, DWORD PTR _testObject$[ebp]
	cmp	eax, DWORD PTR _this$[ebp]
	je	$LN12@ApplyProxi

; 1234 : 				{
; 1235 : 					tmpX = testObject->XPos() - XPos();

	mov	ecx, DWORD PTR _testObject$[ebp]
	call	?XPos@VuEntity@@QBEMXZ			; VuEntity::XPos
	fstp	DWORD PTR tv599[ebp]
	movss	xmm0, DWORD PTR tv599[ebp]
	mov	ecx, DWORD PTR _this$[ebp]
	movss	DWORD PTR tv704[ebp], xmm0
	call	?XPos@VuEntity@@QBEMXZ			; VuEntity::XPos
	fstp	DWORD PTR tv603[ebp]
	movss	xmm0, DWORD PTR tv704[ebp]
	subss	xmm0, DWORD PTR tv603[ebp]
	movss	DWORD PTR _tmpX$[ebp], xmm0

; 1236 : 					tmpY = testObject->YPos() - YPos();

	mov	ecx, DWORD PTR _testObject$[ebp]
	call	?YPos@VuEntity@@QBEMXZ			; VuEntity::YPos
	fstp	DWORD PTR tv607[ebp]
	movss	xmm0, DWORD PTR tv607[ebp]
	mov	ecx, DWORD PTR _this$[ebp]
	movss	DWORD PTR tv706[ebp], xmm0
	call	?YPos@VuEntity@@QBEMXZ			; VuEntity::YPos
	fstp	DWORD PTR tv611[ebp]
	movss	xmm0, DWORD PTR tv706[ebp]
	subss	xmm0, DWORD PTR tv611[ebp]
	movss	DWORD PTR _tmpY$[ebp], xmm0

; 1237 : 					tmpZ = testObject->ZPos() - ZPos();

	mov	ecx, DWORD PTR _testObject$[ebp]
	call	?ZPos@VuEntity@@QBEMXZ			; VuEntity::ZPos
	fstp	DWORD PTR tv615[ebp]
	movss	xmm0, DWORD PTR tv615[ebp]
	mov	ecx, DWORD PTR _this$[ebp]
	movss	DWORD PTR tv708[ebp], xmm0
	call	?ZPos@VuEntity@@QBEMXZ			; VuEntity::ZPos
	fstp	DWORD PTR tv619[ebp]
	movss	xmm0, DWORD PTR tv708[ebp]
	subss	xmm0, DWORD PTR tv619[ebp]
	movss	DWORD PTR _tmpZ$[ebp], xmm0

; 1238 : 					
; 1239 : 					// for ground units, don't use Z diff
; 1240 : 					if ( testObject->OnGround() )

	mov	ecx, DWORD PTR _testObject$[ebp]
	mov	edx, DWORD PTR [ecx]
	mov	ecx, DWORD PTR _testObject$[ebp]
	mov	eax, DWORD PTR [edx+148]
	call	eax
	test	eax, eax
	je	SHORT $LN14@ApplyProxi

; 1241 : 						rangeSquare = tmpX*tmpX + tmpY*tmpY;

	movss	xmm0, DWORD PTR _tmpX$[ebp]
	mulss	xmm0, DWORD PTR _tmpX$[ebp]
	movss	xmm1, DWORD PTR _tmpY$[ebp]
	mulss	xmm1, DWORD PTR _tmpY$[ebp]
	addss	xmm0, xmm1
	movss	DWORD PTR _rangeSquare$[ebp], xmm0

; 1242 : 					else

	jmp	SHORT $LN13@ApplyProxi
$LN14@ApplyProxi:

; 1243 : 						rangeSquare = tmpX*tmpX + tmpY*tmpY + tmpZ*tmpZ;

	movss	xmm0, DWORD PTR _tmpX$[ebp]
	mulss	xmm0, DWORD PTR _tmpX$[ebp]
	movss	xmm1, DWORD PTR _tmpY$[ebp]
	mulss	xmm1, DWORD PTR _tmpY$[ebp]
	addss	xmm0, xmm1
	movss	xmm1, DWORD PTR _tmpZ$[ebp]
	mulss	xmm1, DWORD PTR _tmpZ$[ebp]
	addss	xmm0, xmm1
	movss	DWORD PTR _rangeSquare$[ebp], xmm0
$LN13@ApplyProxi:

; 1244 : 					
; 1245 : 					if (rangeSquare < lethalRadiusSqrd)

	mov	ecx, DWORD PTR _this$[ebp]
	movss	xmm0, DWORD PTR [ecx+684]
	comiss	xmm0, DWORD PTR _rangeSquare$[ebp]
	jbe	SHORT $LN12@ApplyProxi

; 1246 : 					{
; 1247 : 						SendDamageMessage(testObject,rangeSquare,FalconDamageType::ProximityDamage);

	push	9
	push	ecx
	movss	xmm0, DWORD PTR _rangeSquare$[ebp]
	movss	DWORD PTR [esp], xmm0
	mov	edx, DWORD PTR _testObject$[ebp]
	push	edx
	mov	ecx, DWORD PTR _this$[ebp]
	call	?SendDamageMessage@SimWeaponClass@@QAEXPAVFalconEntity@@MH@Z ; SimWeaponClass::SendDamageMessage
$LN12@ApplyProxi:

; 1248 : 					}
; 1249 : 				}
; 1250 : 				testObject = (FalconEntity*) objectWalker.GetNext();

	lea	ecx, DWORD PTR _objectWalker$3[ebp]
	call	?GetNext@VuListIterator@@QAEPAVVuEntity@@XZ ; VuListIterator::GetNext
	mov	DWORD PTR _testObject$[ebp], eax

; 1251 : 			}

	jmp	$LN17@ApplyProxi
$LN16@ApplyProxi:

; 1252 : 		}

	mov	BYTE PTR __$EHRec$[ebp+8], 0
	lea	ecx, DWORD PTR _objectWalker$3[ebp]
	call	??1VuListIterator@@UAE@XZ		; VuListIterator::~VuListIterator
$LN18@ApplyProxi:

; 1253 : 	}
; 1254 : 	
; 1255 : 	// relative height above ground (Z = 0)
; 1256 : 	float agl = ZPos() - groundZ;

	mov	ecx, DWORD PTR _this$[ebp]
	call	?ZPos@VuEntity@@QBEMXZ			; VuEntity::ZPos
	fstp	DWORD PTR tv637[ebp]
	movss	xmm0, DWORD PTR tv637[ebp]
	mov	eax, DWORD PTR _this$[ebp]
	subss	xmm0, DWORD PTR [eax+796]
	movss	DWORD PTR _agl$[ebp], xmm0

; 1257 : 	
; 1258 : 	// no point in checking proximity if too high above ground
; 1259 : 	// This needs to be >= the check for building impact ala FeatureCollision()
; 1260 : 	if ( agl > -900.0f )

	movss	xmm0, DWORD PTR _agl$[ebp]
	comiss	xmm0, DWORD PTR __real@c4610000
	jbe	$LN9@ApplyProxi

; 1261 : 	{
; 1262 : 		// get the 1st objective that contains the bomb
; 1263 : 		objective = (CampBaseClass*) gridIt.GetFirst();

	lea	ecx, DWORD PTR _gridIt$[ebp]
	call	?GetFirst@VuGridIterator@@QAEPAVVuEntity@@XZ ; VuGridIterator::GetFirst
	mov	DWORD PTR _objective$[ebp], eax
$LN10@ApplyProxi:

; 1264 : 		
; 1265 : 		// main loop through objectives
; 1266 : 		while ( objective )

	cmp	DWORD PTR _objective$[ebp], 0
	je	$LN9@ApplyProxi

; 1267 : 		{
; 1268 : 			if (objective->GetComponents())

	mov	ecx, DWORD PTR _objective$[ebp]
	call	?GetComponents@CampBaseClass@@QBEPAVTailInsertList@@XZ ; CampBaseClass::GetComponents
	test	eax, eax
	je	$LN8@ApplyProxi

; 1269 : 			{
; 1270 : 				// loop thru each element in the objective
; 1271 : 				VuListIterator	featureWalker(objective->GetComponents());

	mov	ecx, DWORD PTR _objective$[ebp]
	call	?GetComponents@CampBaseClass@@QBEPAVTailInsertList@@XZ ; CampBaseClass::GetComponents
	push	eax
	lea	ecx, DWORD PTR _featureWalker$2[ebp]
	call	??0VuListIterator@@QAE@PAVVuLinkedList@@@Z ; VuListIterator::VuListIterator
	mov	BYTE PTR __$EHRec$[ebp+8], 2

; 1272 : 				testObject = (FalconEntity*) featureWalker.GetFirst();

	lea	ecx, DWORD PTR _featureWalker$2[ebp]
	call	?GetFirst@VuListIterator@@QAEPAVVuEntity@@XZ ; VuListIterator::GetFirst
	mov	DWORD PTR _testObject$[ebp], eax
$LN7@ApplyProxi:

; 1273 : 				while (testObject)

	cmp	DWORD PTR _testObject$[ebp], 0
	je	$LN6@ApplyProxi

; 1274 : 				{
; 1275 : 					// don't test the original target ('cause we already dealt with him)
; 1276 : 					// 2002-03-28 MN apply proximity damage if it IS the target, 
; 1277 : 					// but we have got no missile kill or BombImpact - 
; 1278 : 					// or the target can not be damaged by proximity damage
; 1279 : 					if (
; 1280 : 						!targetPtr || testObject != targetPtr->BaseData() ||
; 1281 : 						(g_nMissileFix & 0x08) && testObject == targetPtr->BaseData() && 
; 1282 : 						done != FalconMissileEndMessage::MissileKill && 
; 1283 : 						done != FalconMissileEndMessage::BombImpact
; 1284 : 					){

	mov	ecx, DWORD PTR _this$[ebp]
	cmp	DWORD PTR [ecx+656], 0
	je	SHORT $LN4@ApplyProxi
	mov	edx, DWORD PTR _this$[ebp]
	mov	ecx, DWORD PTR [edx+656]
	call	?BaseData@SimObjectType@@QAEPAVFalconEntity@@XZ ; SimObjectType::BaseData
	cmp	DWORD PTR _testObject$[ebp], eax
	jne	SHORT $LN4@ApplyProxi
	mov	eax, DWORD PTR ?g_nMissileFix@@3HA	; g_nMissileFix
	and	eax, 8
	je	$LN3@ApplyProxi
	mov	ecx, DWORD PTR _this$[ebp]
	mov	ecx, DWORD PTR [ecx+656]
	call	?BaseData@SimObjectType@@QAEPAVFalconEntity@@XZ ; SimObjectType::BaseData
	cmp	DWORD PTR _testObject$[ebp], eax
	jne	$LN3@ApplyProxi
	mov	edx, DWORD PTR _this$[ebp]
	cmp	DWORD PTR [edx+720], 1
	je	$LN3@ApplyProxi
	mov	eax, DWORD PTR _this$[ebp]
	cmp	DWORD PTR [eax+720], 11			; 0000000bH
	je	$LN3@ApplyProxi
$LN4@ApplyProxi:

; 1285 : 						tmpX = testObject->XPos() - XPos();

	mov	ecx, DWORD PTR _testObject$[ebp]
	call	?XPos@VuEntity@@QBEMXZ			; VuEntity::XPos
	fstp	DWORD PTR tv655[ebp]
	movss	xmm0, DWORD PTR tv655[ebp]
	mov	ecx, DWORD PTR _this$[ebp]
	movss	DWORD PTR tv710[ebp], xmm0
	call	?XPos@VuEntity@@QBEMXZ			; VuEntity::XPos
	fstp	DWORD PTR tv659[ebp]
	movss	xmm0, DWORD PTR tv710[ebp]
	subss	xmm0, DWORD PTR tv659[ebp]
	movss	DWORD PTR _tmpX$[ebp], xmm0

; 1286 : 						tmpY = testObject->YPos() - YPos();

	mov	ecx, DWORD PTR _testObject$[ebp]
	call	?YPos@VuEntity@@QBEMXZ			; VuEntity::YPos
	fstp	DWORD PTR tv663[ebp]
	movss	xmm0, DWORD PTR tv663[ebp]
	mov	ecx, DWORD PTR _this$[ebp]
	movss	DWORD PTR tv712[ebp], xmm0
	call	?YPos@VuEntity@@QBEMXZ			; VuEntity::YPos
	fstp	DWORD PTR tv667[ebp]
	movss	xmm0, DWORD PTR tv712[ebp]
	subss	xmm0, DWORD PTR tv667[ebp]
	movss	DWORD PTR _tmpY$[ebp], xmm0

; 1287 : 						
; 1288 : 						rangeSquare = tmpX*tmpX + tmpY*tmpY + agl*agl;

	movss	xmm0, DWORD PTR _tmpX$[ebp]
	mulss	xmm0, DWORD PTR _tmpX$[ebp]
	movss	xmm1, DWORD PTR _tmpY$[ebp]
	mulss	xmm1, DWORD PTR _tmpY$[ebp]
	addss	xmm0, xmm1
	movss	xmm1, DWORD PTR _agl$[ebp]
	mulss	xmm1, DWORD PTR _agl$[ebp]
	addss	xmm0, xmm1
	movss	DWORD PTR _rangeSquare$[ebp], xmm0

; 1289 : 						
; 1290 : 						if (rangeSquare < lethalRadiusSqrd)

	mov	ecx, DWORD PTR _this$[ebp]
	movss	xmm0, DWORD PTR [ecx+684]
	comiss	xmm0, DWORD PTR _rangeSquare$[ebp]
	jbe	SHORT $LN3@ApplyProxi

; 1291 : 							SendDamageMessage(testObject,rangeSquare,FalconDamageType::ProximityDamage);

	push	9
	push	ecx
	movss	xmm0, DWORD PTR _rangeSquare$[ebp]
	movss	DWORD PTR [esp], xmm0
	mov	edx, DWORD PTR _testObject$[ebp]
	push	edx
	mov	ecx, DWORD PTR _this$[ebp]
	call	?SendDamageMessage@SimWeaponClass@@QAEXPAVFalconEntity@@MH@Z ; SimWeaponClass::SendDamageMessage
$LN3@ApplyProxi:

; 1292 : 					}
; 1293 : 					testObject = (FalconEntity*) featureWalker.GetNext();

	lea	ecx, DWORD PTR _featureWalker$2[ebp]
	call	?GetNext@VuListIterator@@QAEPAVVuEntity@@XZ ; VuListIterator::GetNext
	mov	DWORD PTR _testObject$[ebp], eax

; 1294 : 				}

	jmp	$LN7@ApplyProxi
$LN6@ApplyProxi:

; 1295 : 			}

	mov	BYTE PTR __$EHRec$[ebp+8], 0
	lea	ecx, DWORD PTR _featureWalker$2[ebp]
	call	??1VuListIterator@@UAE@XZ		; VuListIterator::~VuListIterator

; 1296 : 			else

	jmp	$LN1@ApplyProxi
$LN8@ApplyProxi:

; 1297 : 			{
; 1298 : 				// Apply damage to an aggregated objective
; 1299 : 				tmpX = objective->XPos() - XPos();

	mov	ecx, DWORD PTR _objective$[ebp]
	call	?XPos@VuEntity@@QBEMXZ			; VuEntity::XPos
	fstp	DWORD PTR tv680[ebp]
	movss	xmm0, DWORD PTR tv680[ebp]
	mov	ecx, DWORD PTR _this$[ebp]
	movss	DWORD PTR tv714[ebp], xmm0
	call	?XPos@VuEntity@@QBEMXZ			; VuEntity::XPos
	fstp	DWORD PTR tv684[ebp]
	movss	xmm0, DWORD PTR tv714[ebp]
	subss	xmm0, DWORD PTR tv684[ebp]
	movss	DWORD PTR _tmpX$[ebp], xmm0

; 1300 : 				tmpY = objective->YPos() - YPos();

	mov	ecx, DWORD PTR _objective$[ebp]
	call	?YPos@VuEntity@@QBEMXZ			; VuEntity::YPos
	fstp	DWORD PTR tv688[ebp]
	movss	xmm0, DWORD PTR tv688[ebp]
	mov	ecx, DWORD PTR _this$[ebp]
	movss	DWORD PTR tv716[ebp], xmm0
	call	?YPos@VuEntity@@QBEMXZ			; VuEntity::YPos
	fstp	DWORD PTR tv692[ebp]
	movss	xmm0, DWORD PTR tv716[ebp]
	subss	xmm0, DWORD PTR tv692[ebp]
	movss	DWORD PTR _tmpY$[ebp], xmm0

; 1301 : 				
; 1302 : 				rangeSquare = tmpX*tmpX + tmpY*tmpY + agl*agl;

	movss	xmm0, DWORD PTR _tmpX$[ebp]
	mulss	xmm0, DWORD PTR _tmpX$[ebp]
	movss	xmm1, DWORD PTR _tmpY$[ebp]
	mulss	xmm1, DWORD PTR _tmpY$[ebp]
	addss	xmm0, xmm1
	movss	xmm1, DWORD PTR _agl$[ebp]
	mulss	xmm1, DWORD PTR _agl$[ebp]
	addss	xmm0, xmm1
	movss	DWORD PTR _rangeSquare$[ebp], xmm0

; 1303 : 				
; 1304 : 				if (rangeSquare < lethalRadiusSqrd)

	mov	eax, DWORD PTR _this$[ebp]
	movss	xmm0, DWORD PTR [eax+684]
	comiss	xmm0, DWORD PTR _rangeSquare$[ebp]
	jbe	SHORT $LN1@ApplyProxi

; 1305 : 					SendDamageMessage(objective,rangeSquare,FalconDamageType::ProximityDamage);

	push	9
	push	ecx
	movss	xmm0, DWORD PTR _rangeSquare$[ebp]
	movss	DWORD PTR [esp], xmm0
	mov	ecx, DWORD PTR _objective$[ebp]
	push	ecx
	mov	ecx, DWORD PTR _this$[ebp]
	call	?SendDamageMessage@SimWeaponClass@@QAEXPAVFalconEntity@@MH@Z ; SimWeaponClass::SendDamageMessage
$LN1@ApplyProxi:

; 1306 : 			}
; 1307 : 			
; 1308 : 			// get the next objective that contains the bomb
; 1309 : 			objective = (CampBaseClass*) gridIt.GetNext();

	lea	ecx, DWORD PTR _gridIt$[ebp]
	call	?GetNext@VuGridIterator@@QAEPAVVuEntity@@XZ ; VuGridIterator::GetNext
	mov	DWORD PTR _objective$[ebp], eax

; 1310 : 
; 1311 : 		} // end objective loop

	jmp	$LN10@ApplyProxi
$LN9@ApplyProxi:

; 1312 : 	}
; 1313 : }

	mov	DWORD PTR __$EHRec$[ebp+8], -1
	lea	ecx, DWORD PTR _gridIt$[ebp]
	call	??1VuGridIterator@@UAE@XZ		; VuGridIterator::~VuGridIterator
	mov	ecx, DWORD PTR __$EHRec$[ebp]
	mov	DWORD PTR fs:0, ecx
	pop	ecx
	mov	ecx, DWORD PTR __$ArrayPad$[ebp]
	xor	ecx, ebp
	call	@__security_check_cookie@4
	mov	esp, ebp
	pop	ebp
	ret	0
_TEXT	ENDS
text$x	SEGMENT
__unwindfunclet$?ApplyProximityDamage@MissileClass@@AAEXXZ$0:
	lea	ecx, DWORD PTR _gridIt$[ebp]
	jmp	??1VuGridIterator@@UAE@XZ		; VuGridIterator::~VuGridIterator
__unwindfunclet$?ApplyProximityDamage@MissileClass@@AAEXXZ$1:
	lea	ecx, DWORD PTR _objectWalker$3[ebp]
	jmp	??1VuListIterator@@UAE@XZ		; VuListIterator::~VuListIterator
__unwindfunclet$?ApplyProximityDamage@MissileClass@@AAEXXZ$2:
	lea	ecx, DWORD PTR _featureWalker$2[ebp]
	jmp	??1VuListIterator@@UAE@XZ		; VuListIterator::~VuListIterator
__ehhandler$?ApplyProximityDamage@MissileClass@@AAEXXZ:
	mov	edx, DWORD PTR [esp+8]
	lea	eax, DWORD PTR [edx+12]
	mov	ecx, DWORD PTR [edx-264]
	xor	ecx, eax
	call	@__security_check_cookie@4
	mov	ecx, DWORD PTR [edx-4]
	xor	ecx, eax
	call	@__security_check_cookie@4
	mov	eax, OFFSET __ehfuncinfo$?ApplyProximityDamage@MissileClass@@AAEXXZ
	jmp	___CxxFrameHandler3
text$x	ENDS
?ApplyProximityDamage@MissileClass@@AAEXXZ ENDP		; MissileClass::ApplyProximityDamage
; Function compile flags: /Odtp
; File c:\users\zhitao li\documents\visual studio 2012\projects\freefalcon\sim\missile\missmain.cpp
_TEXT	SEGMENT
$T2 = -112						; size = 8
$T3 = -104						; size = 8
$T4 = -96						; size = 8
$T5 = -88						; size = 8
tv795 = -80						; size = 4
$T6 = -76						; size = 4
$T7 = -72						; size = 4
tv437 = -68						; size = 4
tv423 = -64						; size = 4
tv324 = -60						; size = 4
tv310 = -56						; size = 4
tv273 = -52						; size = 4
$T8 = -48						; size = 4
tv262 = -44						; size = 4
tv233 = -40						; size = 4
tv195 = -36						; size = 4
$T9 = -32						; size = 4
tv572 = -28						; size = 4
_campBaseObj$10 = -24					; size = 4
_endMessage$ = -20					; size = 4
_this$ = -16						; size = 4
__$EHRec$ = -12						; size = 12
?EndMissile@MissileClass@@AAEXXZ PROC			; MissileClass::EndMissile
; _this$ = ecx

; 985  : {

	push	ebp
	mov	ebp, esp
	push	-1
	push	__ehhandler$?EndMissile@MissileClass@@AAEXXZ
	mov	eax, DWORD PTR fs:0
	push	eax
	sub	esp, 100				; 00000064H
	mov	eax, DWORD PTR ___security_cookie
	xor	eax, ebp
	push	eax
	lea	eax, DWORD PTR __$EHRec$[ebp]
	mov	DWORD PTR fs:0, eax
	mov	DWORD PTR _this$[ebp], ecx

; 986  : 	FalconMissileEndMessage* endMessage;
; 987  : 	
; 988  : 
; 989  : 	if (done != FalconMissileEndMessage::MissileKill &&
; 990  : 		done != FalconMissileEndMessage::GroundImpact &&
; 991  : 		done != FalconMissileEndMessage::FeatureImpact &&
; 992  : 		done != FalconMissileEndMessage::BombImpact && // "bomb warhead" missiles hit SIM target
; 993  : 		done != FalconMissileEndMessage::ArmingDelay)	// when the warhead is not yet armed, do nothing here

	mov	eax, DWORD PTR _this$[ebp]
	cmp	DWORD PTR [eax+720], 1
	je	$LN22@EndMissile
	mov	ecx, DWORD PTR _this$[ebp]
	cmp	DWORD PTR [ecx+720], 7
	je	$LN22@EndMissile
	mov	edx, DWORD PTR _this$[ebp]
	cmp	DWORD PTR [edx+720], 10			; 0000000aH
	je	$LN22@EndMissile
	mov	eax, DWORD PTR _this$[ebp]
	cmp	DWORD PTR [eax+720], 11			; 0000000bH
	je	$LN22@EndMissile
	mov	ecx, DWORD PTR _this$[ebp]
	cmp	DWORD PTR [ecx+720], 3
	je	$LN22@EndMissile

; 994  : 	{
; 995  : 	  if (flags & SensorLostLock)

	mov	edx, DWORD PTR _this$[ebp]
	mov	eax, DWORD PTR [edx+864]
	and	eax, 4
	je	SHORT $LN26@EndMissile

; 996  : 	      done = FalconMissileEndMessage::ExceedFOV;

	mov	ecx, DWORD PTR _this$[ebp]
	mov	DWORD PTR [ecx+720], 5
$LN26@EndMissile:

; 997  : 
; 998  : 	   // 2002-02-26 ADDED BY S.G. This is the best place to handle aggregated campaign object as target that got missed...
; 999  : 	   if (targetPtr) {

	mov	edx, DWORD PTR _this$[ebp]
	cmp	DWORD PTR [edx+656], 0
	je	$LN22@EndMissile

; 1000 : 		   // First get the campaign object if it's still a sim entity
; 1001 : 		   CampBaseClass *campBaseObj;
; 1002 : 		   if (targetPtr->BaseData()->IsSim()) // If we're a SIM object, get our campaign object

	mov	eax, DWORD PTR _this$[ebp]
	mov	ecx, DWORD PTR [eax+656]
	call	?BaseData@SimObjectType@@QAEPAVFalconEntity@@XZ ; SimObjectType::BaseData
	mov	ecx, eax
	call	?IsSim@FalconEntity@@QAEHXZ		; FalconEntity::IsSim
	test	eax, eax
	je	SHORT $LN24@EndMissile

; 1003 : 			   campBaseObj = ((SimBaseClass*)targetPtr->BaseData())->GetCampaignObject();

	mov	ecx, DWORD PTR _this$[ebp]
	mov	ecx, DWORD PTR [ecx+656]
	call	?BaseData@SimObjectType@@QAEPAVFalconEntity@@XZ ; SimObjectType::BaseData
	mov	ecx, eax
	call	?GetCampaignObject@SimBaseClass@@QAEPAVCampBaseClass@@XZ ; SimBaseClass::GetCampaignObject
	mov	DWORD PTR _campBaseObj$10[ebp], eax

; 1004 : 		   else

	jmp	SHORT $LN23@EndMissile
$LN24@EndMissile:

; 1005 : 			   campBaseObj = (CampBaseClass *)targetPtr->BaseData();

	mov	edx, DWORD PTR _this$[ebp]
	mov	ecx, DWORD PTR [edx+656]
	call	?BaseData@SimObjectType@@QAEPAVFalconEntity@@XZ ; SimObjectType::BaseData
	mov	DWORD PTR _campBaseObj$10[ebp], eax
$LN23@EndMissile:

; 1006 : 		   // Now find out if our campaign object is aggregated
; 1007 : 		   if (campBaseObj && campBaseObj->IsAggregate()) {

	cmp	DWORD PTR _campBaseObj$10[ebp], 0
	je	$LN22@EndMissile
	mov	ecx, DWORD PTR _campBaseObj$10[ebp]
	call	?IsAggregate@CampBaseClass@@QAEHXZ	; CampBaseClass::IsAggregate
	test	eax, eax
	je	$LN22@EndMissile

; 1008 : 			   // Yes, replace the current target by its aggregated campaign object
; 1009 : 			   if (campBaseObj != targetPtr->BaseData()) {

	mov	eax, DWORD PTR _this$[ebp]
	mov	ecx, DWORD PTR [eax+656]
	call	?BaseData@SimObjectType@@QAEPAVFalconEntity@@XZ ; SimObjectType::BaseData
	cmp	DWORD PTR _campBaseObj$10[ebp], eax
	je	SHORT $LN21@EndMissile

; 1010 : 				   if (targetPtr)

	mov	ecx, DWORD PTR _this$[ebp]
	cmp	DWORD PTR [ecx+656], 0
	je	SHORT $LN20@EndMissile

; 1011 : 					   targetPtr->Release(  );

	mov	edx, DWORD PTR _this$[ebp]
	mov	ecx, DWORD PTR [edx+656]
	call	?Release@SimObjectType@@QAEXXZ		; SimObjectType::Release
$LN20@EndMissile:

; 1012 : 
; 1013 : #ifdef DEBUG
; 1014 : 			/*	   targetPtr = new SimObjectType( OBJ_TAG, NULL, campBaseObj );*/
; 1015 : #else
; 1016 : 				   targetPtr = new SimObjectType( campBaseObj );

	push	24					; 00000018H
	call	??2@YAPAXI@Z				; operator new
	add	esp, 4
	mov	DWORD PTR $T9[ebp], eax
	mov	DWORD PTR __$EHRec$[ebp+8], 0
	cmp	DWORD PTR $T9[ebp], 0
	je	SHORT $LN30@EndMissile
	mov	eax, DWORD PTR _campBaseObj$10[ebp]
	push	eax
	mov	ecx, DWORD PTR $T9[ebp]
	call	??0SimObjectType@@QAE@PAVFalconEntity@@@Z ; SimObjectType::SimObjectType
	mov	DWORD PTR tv195[ebp], eax
	jmp	SHORT $LN31@EndMissile
$LN30@EndMissile:
	mov	DWORD PTR tv195[ebp], 0
$LN31@EndMissile:
	mov	ecx, DWORD PTR tv195[ebp]
	mov	DWORD PTR $T7[ebp], ecx
	mov	DWORD PTR __$EHRec$[ebp+8], -1
	mov	edx, DWORD PTR _this$[ebp]
	mov	eax, DWORD PTR $T7[ebp]
	mov	DWORD PTR [edx+656], eax

; 1017 : #endif
; 1018 : 				   targetPtr->Reference(  );

	mov	ecx, DWORD PTR _this$[ebp]
	mov	ecx, DWORD PTR [ecx+656]
	call	?Reference@SimObjectType@@QAEXXZ	; SimObjectType::Reference
$LN21@EndMissile:

; 1019 : 			   }
; 1020 : 
; 1021 : 			   // Now say we've killed the target and let the 2D code handle the damage
; 1022 : 			   done = FalconMissileEndMessage::MissileKill;

	mov	edx, DWORD PTR _this$[ebp]
	mov	DWORD PTR [edx+720], 1
$LN22@EndMissile:

; 1023 : 		   }
; 1024 : 	   }
; 1025 : 	}
; 1026 : 
; 1027 : 
; 1028 : 	// MonoPrint ("Missile %d done: Time %8ld code %d\n", Id().num_, SimLibElapsedTime, done);
; 1029 : 	SetExploding (TRUE);

	push	1
	mov	ecx, DWORD PTR _this$[ebp]
	call	?SetExploding@SimBaseClass@@QAEXH@Z	; SimBaseClass::SetExploding

; 1030 : 
; 1031 : 	ShiAssert(parent);
; 1032 : 	
; 1033 : 	if (!parent)

	mov	ecx, DWORD PTR _this$[ebp]
	add	ecx, 688				; 000002b0H
	call	??7?$VuBin@VFalconEntity@@@@QBE_NXZ	; VuBin<FalconEntity>::operator!
	movzx	eax, al
	test	eax, eax
	je	SHORT $LN19@EndMissile

; 1034 : 		return;

	jmp	$LN28@EndMissile
$LN19@EndMissile:

; 1035 : 
; 1036 : 	// SCR 11/29/98  
; 1037 : 	// We skip doing damage if a surface launched missile blew up on launch
; 1038 : 	// (cause it hit a building or something silly like that)
; 1039 : 
; 1040 : 	// 2002-03-28 MN if end message is ArmingDelay, don't apply damage at all
; 1041 : 	if (!(done == FalconMissileEndMessage::ArmingDelay) && inputData && (runTime > inputData->guidanceDelay || !parent->OnGround()))

	mov	ecx, DWORD PTR _this$[ebp]
	cmp	DWORD PTR [ecx+720], 3
	je	SHORT $LN18@EndMissile
	mov	edx, DWORD PTR _this$[ebp]
	cmp	DWORD PTR [edx+848], 0
	je	SHORT $LN18@EndMissile
	mov	eax, DWORD PTR _this$[ebp]
	mov	ecx, DWORD PTR [eax+848]
	mov	edx, DWORD PTR _this$[ebp]
	movss	xmm0, DWORD PTR [edx+868]
	comiss	xmm0, DWORD PTR [ecx+64]
	ja	SHORT $LN17@EndMissile
	mov	ecx, DWORD PTR _this$[ebp]
	add	ecx, 688				; 000002b0H
	call	??C?$VuBin@VFalconEntity@@@@QBEPAVFalconEntity@@XZ ; VuBin<FalconEntity>::operator->
	mov	DWORD PTR tv233[ebp], eax
	mov	eax, DWORD PTR tv233[ebp]
	mov	edx, DWORD PTR [eax]
	mov	ecx, DWORD PTR tv233[ebp]
	mov	eax, DWORD PTR [edx+148]
	call	eax
	test	eax, eax
	jne	SHORT $LN18@EndMissile
$LN17@EndMissile:

; 1042 : 		ApplyProximityDamage();

	mov	ecx, DWORD PTR _this$[ebp]
	call	?ApplyProximityDamage@MissileClass@@AAEXXZ ; MissileClass::ApplyProximityDamage
$LN18@EndMissile:

; 1043 : 
; 1044 : 	endMessage = new FalconMissileEndMessage (Id(), FalconLocalGame);

	push	285					; 0000011dH
	call	??2@YAPAXI@Z				; operator new
	add	esp, 4
	mov	DWORD PTR $T8[ebp], eax
	mov	DWORD PTR __$EHRec$[ebp+8], 1
	cmp	DWORD PTR $T8[ebp], 0
	je	SHORT $LN34@EndMissile
	mov	ecx, OFFSET ?vuLocalSessionEntity@@3V?$VuBin@VVuSessionEntity@@@@A ; vuLocalSessionEntity
	call	??B?$VuBin@VVuSessionEntity@@@@QBE_NXZ	; VuBin<VuSessionEntity>::operator bool
	movzx	ecx, al
	test	ecx, ecx
	je	SHORT $LN32@EndMissile
	mov	ecx, OFFSET ?vuLocalSessionEntity@@3V?$VuBin@VVuSessionEntity@@@@A ; vuLocalSessionEntity
	call	?get@?$VuBin@VVuSessionEntity@@@@QBEPAVVuSessionEntity@@XZ ; VuBin<VuSessionEntity>::get
	mov	ecx, eax
	call	?GetGame@FalconSessionEntity@@QAEPAVFalconGameEntity@@XZ ; FalconSessionEntity::GetGame
	mov	DWORD PTR tv262[ebp], eax
	jmp	SHORT $LN33@EndMissile
$LN32@EndMissile:
	mov	DWORD PTR tv262[ebp], 0
$LN33@EndMissile:
	push	1
	mov	edx, DWORD PTR tv262[ebp]
	push	edx
	lea	eax, DWORD PTR $T5[ebp]
	push	eax
	mov	ecx, DWORD PTR _this$[ebp]
	call	?Id@VuEntity@@QBE?AVVU_ID@@XZ		; VuEntity::Id
	mov	ecx, DWORD PTR [eax+4]
	push	ecx
	mov	edx, DWORD PTR [eax]
	push	edx
	mov	ecx, DWORD PTR $T8[ebp]
	call	??0FalconMissileEndMessage@@QAE@VVU_ID@@PAVVuTargetEntity@@E@Z ; FalconMissileEndMessage::FalconMissileEndMessage
	mov	DWORD PTR tv273[ebp], eax
	jmp	SHORT $LN35@EndMissile
$LN34@EndMissile:
	mov	DWORD PTR tv273[ebp], 0
$LN35@EndMissile:
	mov	eax, DWORD PTR tv273[ebp]
	mov	DWORD PTR $T6[ebp], eax
	mov	DWORD PTR __$EHRec$[ebp+8], -1
	mov	ecx, DWORD PTR $T6[ebp]
	mov	DWORD PTR _endMessage$[ebp], ecx

; 1045 : 	endMessage->RequestReliableTransmit ();

	mov	ecx, DWORD PTR _endMessage$[ebp]
	call	?RequestReliableTransmit@VuMessage@@QAEXXZ ; VuMessage::RequestReliableTransmit

; 1046 : 	endMessage->RequestOutOfBandTransmit ();

	mov	ecx, DWORD PTR _endMessage$[ebp]
	call	?RequestOutOfBandTransmit@VuMessage@@QAEXXZ ; VuMessage::RequestOutOfBandTransmit

; 1047 : 	endMessage->dataBlock.fEntityID  = parent->Id();

	lea	edx, DWORD PTR $T4[ebp]
	push	edx
	mov	ecx, DWORD PTR _this$[ebp]
	add	ecx, 688				; 000002b0H
	call	??C?$VuBin@VFalconEntity@@@@QBEPAVFalconEntity@@XZ ; VuBin<FalconEntity>::operator->
	mov	ecx, eax
	call	?Id@VuEntity@@QBE?AVVU_ID@@XZ		; VuEntity::Id
	mov	ecx, DWORD PTR [eax]
	mov	edx, DWORD PTR [eax+4]
	mov	eax, DWORD PTR _endMessage$[ebp]
	mov	DWORD PTR [eax+63], ecx
	mov	DWORD PTR [eax+67], edx

; 1048 : 	endMessage->dataBlock.fCampID    = parent->GetCampID();

	mov	ecx, DWORD PTR _this$[ebp]
	add	ecx, 688				; 000002b0H
	call	??C?$VuBin@VFalconEntity@@@@QBEPAVFalconEntity@@XZ ; VuBin<FalconEntity>::operator->
	mov	DWORD PTR tv310[ebp], eax
	mov	ecx, DWORD PTR tv310[ebp]
	mov	edx, DWORD PTR [ecx]
	mov	ecx, DWORD PTR tv310[ebp]
	mov	eax, DWORD PTR [edx+112]
	call	eax
	mov	ecx, DWORD PTR _endMessage$[ebp]
	mov	WORD PTR [ecx+71], ax

; 1049 :    endMessage->dataBlock.fSide      = parent->GetCountry();

	mov	ecx, DWORD PTR _this$[ebp]
	add	ecx, 688				; 000002b0H
	call	??C?$VuBin@VFalconEntity@@@@QBEPAVFalconEntity@@XZ ; VuBin<FalconEntity>::operator->
	mov	DWORD PTR tv324[ebp], eax
	mov	edx, DWORD PTR tv324[ebp]
	mov	eax, DWORD PTR [edx]
	mov	ecx, DWORD PTR tv324[ebp]
	mov	edx, DWORD PTR [eax+120]
	call	edx
	mov	ecx, DWORD PTR _endMessage$[ebp]
	mov	BYTE PTR [ecx+77], al

; 1050 : 	endMessage->dataBlock.fIndex     = parent->Type();

	mov	ecx, DWORD PTR _this$[ebp]
	add	ecx, 688				; 000002b0H
	call	??C?$VuBin@VFalconEntity@@@@QBEPAVFalconEntity@@XZ ; VuBin<FalconEntity>::operator->
	mov	ecx, eax
	call	?Type@VuEntity@@QBEGXZ			; VuEntity::Type
	mov	edx, DWORD PTR _endMessage$[ebp]
	mov	WORD PTR [edx+75], ax

; 1051 : 	
; 1052 : 	if ( parent->IsSim() )

	mov	ecx, DWORD PTR _this$[ebp]
	add	ecx, 688				; 000002b0H
	call	??C?$VuBin@VFalconEntity@@@@QBEPAVFalconEntity@@XZ ; VuBin<FalconEntity>::operator->
	mov	ecx, eax
	call	?IsSim@FalconEntity@@QAEHXZ		; FalconEntity::IsSim
	test	eax, eax
	je	SHORT $LN16@EndMissile

; 1053 : 		endMessage->dataBlock.fPilotID   = shooterPilotSlot;

	mov	eax, DWORD PTR _endMessage$[ebp]
	mov	ecx, DWORD PTR _this$[ebp]
	mov	dl, BYTE PTR [ecx+680]
	mov	BYTE PTR [eax+73], dl

; 1054 : 	else

	jmp	SHORT $LN15@EndMissile
$LN16@EndMissile:

; 1055 : 		endMessage->dataBlock.fPilotID   = 0;	// Flight leads get all kills for now...

	mov	eax, DWORD PTR _endMessage$[ebp]
	mov	BYTE PTR [eax+73], 0
$LN15@EndMissile:

; 1056 : 	
; 1057 : 	if (targetPtr)

	mov	ecx, DWORD PTR _this$[ebp]
	cmp	DWORD PTR [ecx+656], 0
	je	$LN14@EndMissile

; 1058 : 	{
; 1059 : 		if ( targetPtr->BaseData()->IsSim() )

	mov	edx, DWORD PTR _this$[ebp]
	mov	ecx, DWORD PTR [edx+656]
	call	?BaseData@SimObjectType@@QAEPAVFalconEntity@@XZ ; SimObjectType::BaseData
	mov	ecx, eax
	call	?IsSim@FalconEntity@@QAEHXZ		; FalconEntity::IsSim
	test	eax, eax
	je	SHORT $LN13@EndMissile

; 1060 : 		{
; 1061 : 			endMessage->dataBlock.dCampSlot  = (char)((SimBaseClass*)targetPtr->BaseData())->GetSlot();

	mov	eax, DWORD PTR _this$[ebp]
	mov	ecx, DWORD PTR [eax+656]
	call	?BaseData@SimObjectType@@QAEPAVFalconEntity@@XZ ; SimObjectType::BaseData
	mov	ecx, eax
	call	?GetSlot@SimBaseClass@@QAEHXZ		; SimBaseClass::GetSlot
	mov	ecx, DWORD PTR _endMessage$[ebp]
	mov	BYTE PTR [ecx+59], al

; 1062 : 		}
; 1063 : 		else

	jmp	SHORT $LN12@EndMissile
$LN13@EndMissile:

; 1064 : 		{
; 1065 : 			endMessage->dataBlock.dCampSlot  = 0;

	mov	edx, DWORD PTR _endMessage$[ebp]
	mov	BYTE PTR [edx+59], 0
$LN12@EndMissile:

; 1066 : 		}
; 1067 : 		
; 1068 : 		endMessage->dataBlock.dEntityID  = targetPtr->BaseData()->Id();

	lea	eax, DWORD PTR $T3[ebp]
	push	eax
	mov	ecx, DWORD PTR _this$[ebp]
	mov	ecx, DWORD PTR [ecx+656]
	call	?BaseData@SimObjectType@@QAEPAVFalconEntity@@XZ ; SimObjectType::BaseData
	mov	ecx, eax
	call	?Id@VuEntity@@QBE?AVVU_ID@@XZ		; VuEntity::Id
	mov	edx, DWORD PTR [eax]
	mov	eax, DWORD PTR [eax+4]
	mov	ecx, DWORD PTR _endMessage$[ebp]
	mov	DWORD PTR [ecx+48], edx
	mov	DWORD PTR [ecx+52], eax

; 1069 : 		endMessage->dataBlock.dCampID    = targetPtr->BaseData()->GetCampID();

	mov	edx, DWORD PTR _this$[ebp]
	mov	ecx, DWORD PTR [edx+656]
	call	?BaseData@SimObjectType@@QAEPAVFalconEntity@@XZ ; SimObjectType::BaseData
	mov	DWORD PTR tv423[ebp], eax
	mov	eax, DWORD PTR tv423[ebp]
	mov	edx, DWORD PTR [eax]
	mov	ecx, DWORD PTR tv423[ebp]
	mov	eax, DWORD PTR [edx+112]
	call	eax
	mov	ecx, DWORD PTR _endMessage$[ebp]
	mov	WORD PTR [ecx+56], ax

; 1070 : 		endMessage->dataBlock.dSide      = targetPtr->BaseData()->GetCountry();

	mov	edx, DWORD PTR _this$[ebp]
	mov	ecx, DWORD PTR [edx+656]
	call	?BaseData@SimObjectType@@QAEPAVFalconEntity@@XZ ; SimObjectType::BaseData
	mov	DWORD PTR tv437[ebp], eax
	mov	eax, DWORD PTR tv437[ebp]
	mov	edx, DWORD PTR [eax]
	mov	ecx, DWORD PTR tv437[ebp]
	mov	eax, DWORD PTR [edx+120]
	call	eax
	mov	ecx, DWORD PTR _endMessage$[ebp]
	mov	BYTE PTR [ecx+62], al

; 1071 : 		endMessage->dataBlock.dIndex     = targetPtr->BaseData()->Type();

	mov	edx, DWORD PTR _this$[ebp]
	mov	ecx, DWORD PTR [edx+656]
	call	?BaseData@SimObjectType@@QAEPAVFalconEntity@@XZ ; SimObjectType::BaseData
	mov	ecx, eax
	call	?Type@VuEntity@@QBEGXZ			; VuEntity::Type
	mov	ecx, DWORD PTR _endMessage$[ebp]
	mov	WORD PTR [ecx+60], ax

; 1072 : 		endMessage->dataBlock.dPilotID   = 0;

	mov	edx, DWORD PTR _endMessage$[ebp]
	mov	BYTE PTR [edx+58], 0

; 1073 : 	}
; 1074 : 	else

	jmp	SHORT $LN11@EndMissile
$LN14@EndMissile:

; 1075 : 	{
; 1076 : 		endMessage->dataBlock.dEntityID  = FalconNullId;

	mov	eax, DWORD PTR _endMessage$[ebp]
	mov	ecx, DWORD PTR ?FalconNullId@@3VVU_ID@@A
	mov	DWORD PTR [eax+48], ecx
	mov	edx, DWORD PTR ?FalconNullId@@3VVU_ID@@A+4
	mov	DWORD PTR [eax+52], edx

; 1077 : 		endMessage->dataBlock.dCampID    = 0;

	xor	eax, eax
	mov	ecx, DWORD PTR _endMessage$[ebp]
	mov	WORD PTR [ecx+56], ax

; 1078 : 		endMessage->dataBlock.dSide      = 0;

	mov	edx, DWORD PTR _endMessage$[ebp]
	mov	BYTE PTR [edx+62], 0

; 1079 : 		endMessage->dataBlock.dIndex     = 0;

	xor	eax, eax
	mov	ecx, DWORD PTR _endMessage$[ebp]
	mov	WORD PTR [ecx+60], ax

; 1080 : 		endMessage->dataBlock.dPilotID   = 0;

	mov	edx, DWORD PTR _endMessage$[ebp]
	mov	BYTE PTR [edx+58], 0
$LN11@EndMissile:

; 1081 : 	}
; 1082 : 	
; 1083 : 	endMessage->dataBlock.fWeaponUID = Id();

	lea	eax, DWORD PTR $T2[ebp]
	push	eax
	mov	ecx, DWORD PTR _this$[ebp]
	call	?Id@VuEntity@@QBE?AVVU_ID@@XZ		; VuEntity::Id
	mov	ecx, DWORD PTR [eax]
	mov	edx, DWORD PTR [eax+4]
	mov	eax, DWORD PTR _endMessage$[ebp]
	mov	DWORD PTR [eax+82], ecx
	mov	DWORD PTR [eax+86], edx

; 1084 : 	endMessage->dataBlock.wIndex = Type();

	mov	ecx, DWORD PTR _this$[ebp]
	call	?Type@VuEntity@@QBEGXZ			; VuEntity::Type
	mov	ecx, DWORD PTR _endMessage$[ebp]
	mov	WORD PTR [ecx+115], ax

; 1085 : 	
; 1086 :    	endMessage->dataBlock.endCode    = done;

	mov	edx, DWORD PTR _endMessage$[ebp]
	mov	eax, DWORD PTR _this$[ebp]
	mov	ecx, DWORD PTR [eax+720]
	mov	DWORD PTR [edx+78], ecx

; 1087 : 	endMessage->dataBlock.x    = XPos();

	mov	ecx, DWORD PTR _this$[ebp]
	call	?XPos@VuEntity@@QBEMXZ			; VuEntity::XPos
	mov	edx, DWORD PTR _endMessage$[ebp]
	fstp	DWORD PTR [edx+90]

; 1088 : 	endMessage->dataBlock.y    = YPos();

	mov	ecx, DWORD PTR _this$[ebp]
	call	?YPos@VuEntity@@QBEMXZ			; VuEntity::YPos
	mov	eax, DWORD PTR _endMessage$[ebp]
	fstp	DWORD PTR [eax+94]

; 1089 : 	endMessage->dataBlock.z    = ZPos();

	mov	ecx, DWORD PTR _this$[ebp]
	call	?ZPos@VuEntity@@QBEMXZ			; VuEntity::ZPos
	mov	ecx, DWORD PTR _endMessage$[ebp]
	fstp	DWORD PTR [ecx+98]

; 1090 : 	endMessage->dataBlock.xDelta    = XDelta();

	mov	ecx, DWORD PTR _this$[ebp]
	call	?XDelta@VuEntity@@QBEMXZ		; VuEntity::XDelta
	mov	edx, DWORD PTR _endMessage$[ebp]
	fstp	DWORD PTR [edx+102]

; 1091 : 	endMessage->dataBlock.yDelta    = YDelta();

	mov	ecx, DWORD PTR _this$[ebp]
	call	?YDelta@VuEntity@@QBEMXZ		; VuEntity::YDelta
	mov	eax, DWORD PTR _endMessage$[ebp]
	fstp	DWORD PTR [eax+106]

; 1092 : 	endMessage->dataBlock.zDelta    = ZDelta();

	mov	ecx, DWORD PTR _this$[ebp]
	call	?ZDelta@VuEntity@@QBEMXZ		; VuEntity::ZDelta
	mov	ecx, DWORD PTR _endMessage$[ebp]
	fstp	DWORD PTR [ecx+110]

; 1093 : 	endMessage->dataBlock.groundType    = -1;

	mov	edx, DWORD PTR _endMessage$[ebp]
	mov	BYTE PTR [edx+114], -1

; 1094 : 	
; 1095 : 	if (done == FalconMissileEndMessage::GroundImpact || ZPos() > groundZ )

	mov	eax, DWORD PTR _this$[ebp]
	cmp	DWORD PTR [eax+720], 7
	je	SHORT $LN9@EndMissile
	mov	ecx, DWORD PTR _this$[ebp]
	call	?ZPos@VuEntity@@QBEMXZ			; VuEntity::ZPos
	fstp	DWORD PTR tv795[ebp]
	movss	xmm0, DWORD PTR tv795[ebp]
	mov	ecx, DWORD PTR _this$[ebp]
	comiss	xmm0, DWORD PTR [ecx+796]
	jbe	SHORT $LN10@EndMissile
$LN9@EndMissile:

; 1096 : 	{
; 1097 : 		endMessage->dataBlock.z			 = groundZ;

	mov	edx, DWORD PTR _endMessage$[ebp]
	mov	eax, DWORD PTR _this$[ebp]
	mov	ecx, DWORD PTR [eax+796]
	mov	DWORD PTR [edx+98], ecx

; 1098 : 		endMessage->dataBlock.groundType = (char)OTWDriver.GetGroundType (XPos(), YPos() );

	mov	ecx, DWORD PTR _this$[ebp]
	call	?YPos@VuEntity@@QBEMXZ			; VuEntity::YPos
	push	ecx
	fstp	DWORD PTR [esp]
	mov	ecx, DWORD PTR _this$[ebp]
	call	?XPos@VuEntity@@QBEMXZ			; VuEntity::XPos
	push	ecx
	fstp	DWORD PTR [esp]
	mov	ecx, OFFSET ?OTWDriver@@3VOTWDriverClass@@A ; OTWDriver
	call	?GetGroundType@OTWDriverClass@@QAEHMM@Z	; OTWDriverClass::GetGroundType
	mov	edx, DWORD PTR _endMessage$[ebp]
	mov	BYTE PTR [edx+114], al
$LN10@EndMissile:

; 1099 : 	}
; 1100 : 
; 1101 : 	switch(done)// particle effects

	mov	eax, DWORD PTR _this$[ebp]
	mov	ecx, DWORD PTR [eax+720]
	mov	DWORD PTR tv572[ebp], ecx
	mov	edx, DWORD PTR tv572[ebp]
	sub	edx, 1
	mov	DWORD PTR tv572[ebp], edx
	cmp	DWORD PTR tv572[ebp], 10		; 0000000aH
	ja	$LN7@EndMissile
	mov	eax, DWORD PTR tv572[ebp]
	jmp	DWORD PTR $LN39@EndMissile[eax*4]
$LN6@EndMissile:

; 1102 : 	{
; 1103 : 	case FalconMissileEndMessage::GroundImpact:
; 1104 : 		endMessage->SetParticleEffectName(auxData->psGroundImpact);

	mov	ecx, DWORD PTR _this$[ebp]
	mov	edx, DWORD PTR [ecx+860]
	mov	eax, DWORD PTR [edx+120]
	push	eax
	mov	ecx, DWORD PTR _endMessage$[ebp]
	call	?SetParticleEffectName@FalconMissileEndMessage@@QAEXPAD@Z ; FalconMissileEndMessage::SetParticleEffectName

; 1105 : 		break;

	jmp	SHORT $LN7@EndMissile
$LN5@EndMissile:

; 1106 : 	case FalconMissileEndMessage::MissileKill:
; 1107 : 		endMessage->SetParticleEffectName(auxData->psMissileKill);

	mov	ecx, DWORD PTR _this$[ebp]
	mov	edx, DWORD PTR [ecx+860]
	mov	eax, DWORD PTR [edx+124]
	push	eax
	mov	ecx, DWORD PTR _endMessage$[ebp]
	call	?SetParticleEffectName@FalconMissileEndMessage@@QAEXPAD@Z ; FalconMissileEndMessage::SetParticleEffectName

; 1108 : 		break;

	jmp	SHORT $LN7@EndMissile
$LN4@EndMissile:

; 1109 : 	case FalconMissileEndMessage::FeatureImpact:
; 1110 : 		endMessage->SetParticleEffectName(auxData->psFeatureImpact);

	mov	ecx, DWORD PTR _this$[ebp]
	mov	edx, DWORD PTR [ecx+860]
	mov	eax, DWORD PTR [edx+128]
	push	eax
	mov	ecx, DWORD PTR _endMessage$[ebp]
	call	?SetParticleEffectName@FalconMissileEndMessage@@QAEXPAD@Z ; FalconMissileEndMessage::SetParticleEffectName

; 1111 : 		break;

	jmp	SHORT $LN7@EndMissile
$LN3@EndMissile:

; 1112 : 	case FalconMissileEndMessage::BombImpact:
; 1113 : 		endMessage->SetParticleEffectName(auxData->psBombImpact);

	mov	ecx, DWORD PTR _this$[ebp]
	mov	edx, DWORD PTR [ecx+860]
	mov	eax, DWORD PTR [edx+132]
	push	eax
	mov	ecx, DWORD PTR _endMessage$[ebp]
	call	?SetParticleEffectName@FalconMissileEndMessage@@QAEXPAD@Z ; FalconMissileEndMessage::SetParticleEffectName

; 1114 : 		break;

	jmp	SHORT $LN7@EndMissile
$LN2@EndMissile:

; 1115 : 	case FalconMissileEndMessage::ArmingDelay:
; 1116 : 		endMessage->SetParticleEffectName(auxData->psArmingDelay);

	mov	ecx, DWORD PTR _this$[ebp]
	mov	edx, DWORD PTR [ecx+860]
	mov	eax, DWORD PTR [edx+136]
	push	eax
	mov	ecx, DWORD PTR _endMessage$[ebp]
	call	?SetParticleEffectName@FalconMissileEndMessage@@QAEXPAD@Z ; FalconMissileEndMessage::SetParticleEffectName

; 1117 : 		break;

	jmp	SHORT $LN7@EndMissile
$LN1@EndMissile:

; 1118 : 	case FalconMissileEndMessage::ExceedFOV:
; 1119 : 		endMessage->SetParticleEffectName(auxData->psExceedFOV);

	mov	ecx, DWORD PTR _this$[ebp]
	mov	edx, DWORD PTR [ecx+860]
	mov	eax, DWORD PTR [edx+140]
	push	eax
	mov	ecx, DWORD PTR _endMessage$[ebp]
	call	?SetParticleEffectName@FalconMissileEndMessage@@QAEXPAD@Z ; FalconMissileEndMessage::SetParticleEffectName
$LN7@EndMissile:

; 1120 : 		break;
; 1121 : 	}
; 1122 : 
; 1123 : 	// Can't send the end message until all the damage messages are gone.
; 1124 : 	FalconSendMessage (endMessage,FALSE);

	push	0
	mov	ecx, DWORD PTR _endMessage$[ebp]
	push	ecx
	call	?FalconSendMessage@@YAXPAVVuMessage@@H@Z ; FalconSendMessage
	add	esp, 8
$LN28@EndMissile:

; 1125 : }

	mov	ecx, DWORD PTR __$EHRec$[ebp]
	mov	DWORD PTR fs:0, ecx
	pop	ecx
	mov	esp, ebp
	pop	ebp
	ret	0
	npad	2
$LN39@EndMissile:
	DD	$LN5@EndMissile
	DD	$LN7@EndMissile
	DD	$LN2@EndMissile
	DD	$LN7@EndMissile
	DD	$LN1@EndMissile
	DD	$LN7@EndMissile
	DD	$LN6@EndMissile
	DD	$LN7@EndMissile
	DD	$LN7@EndMissile
	DD	$LN4@EndMissile
	DD	$LN3@EndMissile
_TEXT	ENDS
text$x	SEGMENT
__unwindfunclet$?EndMissile@MissileClass@@AAEXXZ$0:
	mov	eax, DWORD PTR $T9[ebp]
	push	eax
	call	??3@YAXPAX@Z				; operator delete
	pop	ecx
	ret	0
__unwindfunclet$?EndMissile@MissileClass@@AAEXXZ$1:
	mov	eax, DWORD PTR $T8[ebp]
	push	eax
	call	??3@YAXPAX@Z				; operator delete
	pop	ecx
	ret	0
__ehhandler$?EndMissile@MissileClass@@AAEXXZ:
	mov	edx, DWORD PTR [esp+8]
	lea	eax, DWORD PTR [edx+12]
	mov	ecx, DWORD PTR [edx-104]
	xor	ecx, eax
	call	@__security_check_cookie@4
	mov	eax, OFFSET __ehfuncinfo$?EndMissile@MissileClass@@AAEXXZ
	jmp	___CxxFrameHandler3
text$x	ENDS
?EndMissile@MissileClass@@AAEXXZ ENDP			; MissileClass::EndMissile
; Function compile flags: /Odtp
; File c:\users\zhitao li\documents\visual studio 2012\projects\freefalcon\sim\missile\missmain.cpp
_TEXT	SEGMENT
_this$ = -4						; size = 4
?FlyMissile@MissileClass@@AAEXXZ PROC			; MissileClass::FlyMissile
; _this$ = ecx

; 689  : {

	push	ebp
	mov	ebp, esp
	push	ecx
	mov	DWORD PTR _this$[ebp], ecx

; 690  :    if (launchState == Launching)

	mov	eax, DWORD PTR _this$[ebp]
	cmp	DWORD PTR [eax+724], 1
	jne	SHORT $LN2@FlyMissile

; 691  :    {
; 692  :       Launch();

	mov	ecx, DWORD PTR _this$[ebp]
	call	?Launch@MissileClass@@AAEXXZ		; MissileClass::Launch

; 693  : 	  Flight(); // MLR 1/5/2005 - 

	mov	ecx, DWORD PTR _this$[ebp]
	call	?Flight@MissileClass@@AAEXXZ		; MissileClass::Flight

; 694  :    }
; 695  :    else

	jmp	SHORT $LN1@FlyMissile
$LN2@FlyMissile:

; 696  :    {
; 697  :       Flight();

	mov	ecx, DWORD PTR _this$[ebp]
	call	?Flight@MissileClass@@AAEXXZ		; MissileClass::Flight
$LN1@FlyMissile:

; 698  :    }
; 699  : 
; 700  : 	runTime += SimLibMinorFrameTime;

	mov	ecx, DWORD PTR _this$[ebp]
	movss	xmm0, DWORD PTR [ecx+868]
	addss	xmm0, DWORD PTR ?SimLibMinorFrameTime@@3MA
	mov	edx, DWORD PTR _this$[ebp]
	movss	DWORD PTR [edx+868], xmm0

; 701  : }

	mov	esp, ebp
	pop	ebp
	ret	0
?FlyMissile@MissileClass@@AAEXXZ ENDP			; MissileClass::FlyMissile
_TEXT	ENDS
; Function compile flags: /Odtp
; File c:\users\zhitao li\documents\visual studio 2012\projects\freefalcon\sim\missile\missmain.cpp
_TEXT	SEGMENT
tv454 = -120						; size = 8
_lastz$ = -112						; size = 4
_lasty$ = -108						; size = 4
_lastx$ = -104						; size = 4
_PipEl$1 = -100						; size = 4
_PipAz$2 = -96						; size = 4
tv467 = -92						; size = 4
tv462 = -88						; size = 4
tv488 = -84						; size = 4
tv448 = -80						; size = 4
tv442 = -76						; size = 4
tv434 = -72						; size = 4
tv416 = -68						; size = 4
tv408 = -64						; size = 4
tv402 = -60						; size = 4
tv392 = -56						; size = 4
tv379 = -52						; size = 4
tv486 = -48						; size = 4
tv373 = -44						; size = 4
tv367 = -40						; size = 4
tv484 = -36						; size = 4
tv357 = -32						; size = 4
_pel$3 = -28						; size = 4
_paz$4 = -24						; size = 4
_dz$5 = -20						; size = 4
_rng$ = -16						; size = 4
_dx$ = -12						; size = 4
_dy$ = -8						; size = 4
_this$ = -4						; size = 4
_impactX$ = 8						; size = 4
_impactY$ = 12						; size = 4
_impactZ$ = 16						; size = 4
_impactTime$ = 20					; size = 4
?FindRocketGroundImpact@MissileClass@@QAEHPAM000@Z PROC	; MissileClass::FindRocketGroundImpact
; _this$ = ecx

; 1327 : {

	push	ebp
	mov	ebp, esp
	sub	esp, 120				; 00000078H
	mov	DWORD PTR _this$[ebp], ecx

; 1328 : 	//float saveMinorFrameTime; // FRB
; 1329 : 	float lastx = x, lasty = y, lastz = z;

	mov	eax, DWORD PTR _this$[ebp]
	movss	xmm0, DWORD PTR [eax+756]
	movss	DWORD PTR _lastx$[ebp], xmm0
	mov	ecx, DWORD PTR _this$[ebp]
	movss	xmm0, DWORD PTR [ecx+760]
	movss	DWORD PTR _lasty$[ebp], xmm0
	mov	edx, DWORD PTR _this$[ebp]
	movss	xmm0, DWORD PTR [edx+764]
	movss	DWORD PTR _lastz$[ebp], xmm0

; 1330 : 
; 1331 : 	// Cobra test
; 1332 : 	static FILE *fp = NULL;
; 1333 : 	//if (fp == NULL)
; 1334 : 	//	fp = fopen("G:\\RocketImpact.txt", "w");
; 1335 : 
; 1336 : /*
; 1337 : 	// edg: yuck.  Unfortuantely we have to do this
; 1338 : 	ifd = new MissileInFlightData;
; 1339 : 
; 1340 : 	// init stuff and save vars we need to set back at end....
; 1341 : 	runTime = 0.0f;
; 1342 : 	saveMinorFrameTime = SimLibMinorFrameTime;
; 1343 : 
; 1344 : 	initXLoc = 0.0f;
; 1345 : 	initYLoc = 0.0f;
; 1346 : 	initZLoc = 0.0f;
; 1347 : 	initAz = 0.0f;
; 1348 : 	initEl = 0.0f;
; 1349 : 
; 1350 : 	SimLibMinorFrameTime = 0.05f;
; 1351 : 
; 1352 : 	// Start stuff....
; 1353 :    Init1();
; 1354 : 	launchState = Launching;
; 1355 : 
; 1356 : 	// Exec Stuff
; 1357 : 	// runtime updated in fly missile
; 1358 : 	// keep flying up until a max time or until the ground is hit
; 1359 : 	while ( runTime < TIME_TO_RUN_IMPACT )
; 1360 : 	{
; 1361 : 		 // not sure if this is needed
; 1362 :          //CalcTransformMatrix(this);
; 1363 : 
; 1364 : 		//MI fix for rocket recticle bouncing... these 3 lines where commented....	
; 1365 : 		lastx = x;
; 1366 : 		lasty = y;
; 1367 : 		lastz = z;
; 1368 : 
; 1369 : 		 // flies the thing
; 1370 :          CommandGuide();		// TODO: Avoid this -- all it does for rockets is set the G commands to 1.0
; 1371 : 
; 1372 : 		 flags |= FindingImpact; // MLR 1/9/2004 - added to prevent the rocket's launch smoke puff trail when selected
; 1373 :          FlyMissile(); 
; 1374 : 		 flags &= ~FindingImpact;
; 1375 : 
; 1376 :          ClosestApproach();		// TODO: Avoid this -- it's only really meaningful for proximity fuzed weapons
; 1377 :          SetPosition (x, y, z);
; 1378 : 
; 1379 : 		 if ( launchState == InFlight )
; 1380 : 		 {
; 1381 :             SetDelta(xdot, ydot, zdot);
; 1382 :             SetYPR(psi, theta, phi);
; 1383 :             SetYPRDelta (r, q, p);
; 1384 : 			// sfr: no more
; 1385 :             //SetVt(vt);
; 1386 : 
; 1387 : 			groundZ = OTWDriver.GetGroundLevel( x, y );
; 1388 : 			if ( z > groundZ )
; 1389 : 		 		break;
; 1390 : 		 }
; 1391 : 	}
; 1392 : 
; 1393 : 	*impactTime = runTime;
; 1394 : 
; 1395 : 	float degpsi = psi * RTD;
; 1396 : 	float degphi = phi * RTD;
; 1397 : 	float degtheta = theta * RTD;
; 1398 : 
; 1399 : 
; 1400 : 	// restore stuff
; 1401 : 	runTime = 0.0f;
; 1402 : 	GuidenceTime = 0.0f;
; 1403 : 	SimLibMinorFrameTime = saveMinorFrameTime;
; 1404 :     launchState = PreLaunch;
; 1405 : 	delete ifd;
; 1406 : 	ifd = NULL;
; 1407 :    
; 1408 : 	// check for no resolution
; 1409 : 	if ( *impactTime >= TIME_TO_RUN_IMPACT )
; 1410 : 		return FALSE;
; 1411 : 
; 1412 : 	// at this point we've hit the ground
; 1413 :   // Interpolate for the time
; 1414 :   float delta = (groundZ - lastz) / (z - lastz);
; 1415 :   *impactX = lastx + delta * (x - lastx);
; 1416 :   *impactY = lasty + delta * (y - lasty);
; 1417 :   *impactZ = OTWDriver.GetGroundLevel(*impactX, *impactY);
; 1418 : 
; 1419 : */
; 1420 : 
; 1421 : 	float rng = fabs((static_cast<SimVehicleClass*>(parent.get())->ZPos() - OTWDriver.GetGroundLevel(x, y)) 
; 1422 : 											/ (tan(static_cast<SimVehicleClass*>(parent.get())->Pitch() - 0.01f)));

	mov	ecx, DWORD PTR _this$[ebp]
	add	ecx, 688				; 000002b0H
	call	?get@?$VuBin@VFalconEntity@@@@QBEPAVFalconEntity@@XZ ; VuBin<FalconEntity>::get
	mov	ecx, eax
	call	?ZPos@VuEntity@@QBEMXZ			; VuEntity::ZPos
	fstp	DWORD PTR tv357[ebp]
	movss	xmm0, DWORD PTR tv357[ebp]
	push	0
	mov	eax, DWORD PTR _this$[ebp]
	push	ecx
	movss	xmm1, DWORD PTR [eax+760]
	movss	DWORD PTR [esp], xmm1
	mov	ecx, DWORD PTR _this$[ebp]
	push	ecx
	movss	xmm1, DWORD PTR [ecx+756]
	movss	DWORD PTR [esp], xmm1
	mov	ecx, OFFSET ?OTWDriver@@3VOTWDriverClass@@A ; OTWDriver
	movss	DWORD PTR tv484[ebp], xmm0
	call	?GetGroundLevel@OTWDriverClass@@QAEMMMPAUTpoint@@@Z ; OTWDriverClass::GetGroundLevel
	fstp	DWORD PTR tv367[ebp]
	movss	xmm0, DWORD PTR tv484[ebp]
	subss	xmm0, DWORD PTR tv367[ebp]
	mov	ecx, DWORD PTR _this$[ebp]
	add	ecx, 688				; 000002b0H
	movss	DWORD PTR tv486[ebp], xmm0
	call	?get@?$VuBin@VFalconEntity@@@@QBEPAVFalconEntity@@XZ ; VuBin<FalconEntity>::get
	mov	ecx, eax
	call	?Pitch@VuEntity@@QBEMXZ			; VuEntity::Pitch
	fstp	DWORD PTR tv373[ebp]
	movss	xmm0, DWORD PTR tv373[ebp]
	subss	xmm0, DWORD PTR __real@3c23d70a
	push	ecx
	movss	DWORD PTR [esp], xmm0
	call	?tan@@YAMM@Z				; tan
	add	esp, 4
	fstp	DWORD PTR tv379[ebp]
	movss	xmm0, DWORD PTR tv486[ebp]
	divss	xmm0, DWORD PTR tv379[ebp]
	push	ecx
	movss	DWORD PTR [esp], xmm0
	call	?fabs@@YAMM@Z				; fabs
	add	esp, 4
	fstp	DWORD PTR _rng$[ebp]

; 1423 : 	float dx = sin(static_cast<SimVehicleClass*>(parent.get())->Yaw()) * rng;

	mov	ecx, DWORD PTR _this$[ebp]
	add	ecx, 688				; 000002b0H
	call	?get@?$VuBin@VFalconEntity@@@@QBEPAVFalconEntity@@XZ ; VuBin<FalconEntity>::get
	mov	ecx, eax
	call	?Yaw@VuEntity@@QBEMXZ			; VuEntity::Yaw
	push	ecx
	fstp	DWORD PTR [esp]
	call	?sin@@YAMM@Z				; sin
	add	esp, 4
	fstp	DWORD PTR tv392[ebp]
	movss	xmm0, DWORD PTR tv392[ebp]
	mulss	xmm0, DWORD PTR _rng$[ebp]
	movss	DWORD PTR _dx$[ebp], xmm0

; 1424 : 	float dy = cos(static_cast<SimVehicleClass*>(parent.get())->Yaw()) * rng;

	mov	ecx, DWORD PTR _this$[ebp]
	add	ecx, 688				; 000002b0H
	call	?get@?$VuBin@VFalconEntity@@@@QBEPAVFalconEntity@@XZ ; VuBin<FalconEntity>::get
	mov	ecx, eax
	call	?Yaw@VuEntity@@QBEMXZ			; VuEntity::Yaw
	push	ecx
	fstp	DWORD PTR [esp]
	call	?cos@@YAMM@Z				; cos
	add	esp, 4
	fstp	DWORD PTR tv402[ebp]
	movss	xmm0, DWORD PTR tv402[ebp]
	mulss	xmm0, DWORD PTR _rng$[ebp]
	movss	DWORD PTR _dy$[ebp], xmm0

; 1425 : 	*impactX = dx + static_cast<SimVehicleClass*>(parent.get())->XPos();

	mov	ecx, DWORD PTR _this$[ebp]
	add	ecx, 688				; 000002b0H
	call	?get@?$VuBin@VFalconEntity@@@@QBEPAVFalconEntity@@XZ ; VuBin<FalconEntity>::get
	mov	ecx, eax
	call	?XPos@VuEntity@@QBEMXZ			; VuEntity::XPos
	fstp	DWORD PTR tv408[ebp]
	movss	xmm0, DWORD PTR tv408[ebp]
	addss	xmm0, DWORD PTR _dx$[ebp]
	mov	edx, DWORD PTR _impactX$[ebp]
	movss	DWORD PTR [edx], xmm0

; 1426 : 	*impactY = dy + static_cast<SimVehicleClass*>(parent.get())->YPos();

	mov	ecx, DWORD PTR _this$[ebp]
	add	ecx, 688				; 000002b0H
	call	?get@?$VuBin@VFalconEntity@@@@QBEPAVFalconEntity@@XZ ; VuBin<FalconEntity>::get
	mov	ecx, eax
	call	?YPos@VuEntity@@QBEMXZ			; VuEntity::YPos
	fstp	DWORD PTR tv416[ebp]
	movss	xmm0, DWORD PTR tv416[ebp]
	addss	xmm0, DWORD PTR _dy$[ebp]
	mov	eax, DWORD PTR _impactY$[ebp]
	movss	DWORD PTR [eax], xmm0

; 1427 : 	*impactZ = OTWDriver.GetGroundLevel(*impactX, *impactY);

	push	0
	mov	ecx, DWORD PTR _impactY$[ebp]
	push	ecx
	movss	xmm0, DWORD PTR [ecx]
	movss	DWORD PTR [esp], xmm0
	mov	edx, DWORD PTR _impactX$[ebp]
	push	ecx
	movss	xmm0, DWORD PTR [edx]
	movss	DWORD PTR [esp], xmm0
	mov	ecx, OFFSET ?OTWDriver@@3VOTWDriverClass@@A ; OTWDriver
	call	?GetGroundLevel@OTWDriverClass@@QAEMMMPAUTpoint@@@Z ; OTWDriverClass::GetGroundLevel
	mov	eax, DWORD PTR _impactZ$[ebp]
	fstp	DWORD PTR [eax]

; 1428 : 	if ((fp) && (rng < 11000.f))

	cmp	DWORD PTR ?fp@?1??FindRocketGroundImpact@MissileClass@@QAEHPAM000@Z@4PAU_iobuf@@A, 0
	je	$LN1@FindRocket
	movss	xmm0, DWORD PTR __real@462be000
	comiss	xmm0, DWORD PTR _rng$[ebp]
	jbe	$LN1@FindRocket

; 1429 : 	{
; 1430 : 		float dz = *impactZ - static_cast<SimVehicleClass*>(parent.get())->ZPos();

	mov	ecx, DWORD PTR _this$[ebp]
	add	ecx, 688				; 000002b0H
	call	?get@?$VuBin@VFalconEntity@@@@QBEPAVFalconEntity@@XZ ; VuBin<FalconEntity>::get
	mov	ecx, eax
	call	?ZPos@VuEntity@@QBEMXZ			; VuEntity::ZPos
	fstp	DWORD PTR tv434[ebp]
	mov	ecx, DWORD PTR _impactZ$[ebp]
	movss	xmm0, DWORD PTR [ecx]
	subss	xmm0, DWORD PTR tv434[ebp]
	movss	DWORD PTR _dz$5[ebp], xmm0

; 1431 : 		float pel = static_cast<SimVehicleClass*>(parent.get())->Pitch() * RTD;

	mov	ecx, DWORD PTR _this$[ebp]
	add	ecx, 688				; 000002b0H
	call	?get@?$VuBin@VFalconEntity@@@@QBEPAVFalconEntity@@XZ ; VuBin<FalconEntity>::get
	mov	ecx, eax
	call	?Pitch@VuEntity@@QBEMXZ			; VuEntity::Pitch
	fstp	DWORD PTR tv442[ebp]
	movss	xmm0, DWORD PTR tv442[ebp]
	mulss	xmm0, DWORD PTR __real@42652ee1
	movss	DWORD PTR _pel$3[ebp], xmm0

; 1432 : 		float paz = static_cast<SimVehicleClass*>(parent.get())->Yaw() * RTD;

	mov	ecx, DWORD PTR _this$[ebp]
	add	ecx, 688				; 000002b0H
	call	?get@?$VuBin@VFalconEntity@@@@QBEPAVFalconEntity@@XZ ; VuBin<FalconEntity>::get
	mov	ecx, eax
	call	?Yaw@VuEntity@@QBEMXZ			; VuEntity::Yaw
	fstp	DWORD PTR tv448[ebp]
	movss	xmm0, DWORD PTR tv448[ebp]
	mulss	xmm0, DWORD PTR __real@42652ee1
	movss	DWORD PTR _paz$4[ebp], xmm0

; 1433 : 		float PipAz = ((float)atan2(dx,dy) * RTD) - paz;

	cvtss2sd xmm0, DWORD PTR _dy$[ebp]
	sub	esp, 8
	movsd	QWORD PTR [esp], xmm0
	cvtss2sd xmm0, DWORD PTR _dx$[ebp]
	sub	esp, 8
	movsd	QWORD PTR [esp], xmm0
	call	?checked_atan2@@YANNN@Z			; checked_atan2
	add	esp, 16					; 00000010H
	fstp	QWORD PTR tv454[ebp]
	movsd	xmm0, QWORD PTR tv454[ebp]
	cvtsd2ss xmm0, xmm0
	mulss	xmm0, DWORD PTR __real@42652ee1
	subss	xmm0, DWORD PTR _paz$4[ebp]
	movss	DWORD PTR _PipAz$2[ebp], xmm0

; 1434 : 		float PipEl = ((float)atan(-dz/(float)sqrt(dx*dx+dy*dy+.1F)) * RTD) - pel;

	movss	xmm0, DWORD PTR _dz$5[ebp]
	xorps	xmm0, DWORD PTR __xmm@80000000800000008000000080000000
	movss	xmm1, DWORD PTR _dx$[ebp]
	mulss	xmm1, DWORD PTR _dx$[ebp]
	movss	xmm2, DWORD PTR _dy$[ebp]
	mulss	xmm2, DWORD PTR _dy$[ebp]
	addss	xmm1, xmm2
	addss	xmm1, DWORD PTR __real@3dcccccd
	push	ecx
	movss	DWORD PTR [esp], xmm1
	movss	DWORD PTR tv488[ebp], xmm0
	call	?SqrtSSE@@YAMM@Z			; SqrtSSE
	add	esp, 4
	fstp	DWORD PTR tv462[ebp]
	movss	xmm0, DWORD PTR tv488[ebp]
	divss	xmm0, DWORD PTR tv462[ebp]
	push	ecx
	movss	DWORD PTR [esp], xmm0
	call	?atan@@YAMM@Z				; atan
	add	esp, 4
	fstp	DWORD PTR tv467[ebp]
	movss	xmm0, DWORD PTR tv467[ebp]
	mulss	xmm0, DWORD PTR __real@42652ee1
	subss	xmm0, DWORD PTR _pel$3[ebp]
	movss	DWORD PTR _PipEl$1[ebp], xmm0

; 1435 : 
; 1436 : 		//fprintf(fp,"**--** Rng %f Imp X %f Imp Y %f Imp Z %f Pitch %f Yaw %f pel %f paz %f PipEl %f PipAz %f dx %f dy %f dz %f \n",
; 1437 : 		fprintf(fp,"**--** Rng %f Imp X %f Imp Y %f Imp Z %f pel %f paz %f PipEl %f PipAz %f dx %f dy %f dz %f \n",
; 1438 : 					rng, dx, dy, dz, pel, paz, PipEl, PipAz, dx, dy, dz);

	cvtss2sd xmm0, DWORD PTR _dz$5[ebp]
	sub	esp, 8
	movsd	QWORD PTR [esp], xmm0
	cvtss2sd xmm0, DWORD PTR _dy$[ebp]
	sub	esp, 8
	movsd	QWORD PTR [esp], xmm0
	cvtss2sd xmm0, DWORD PTR _dx$[ebp]
	sub	esp, 8
	movsd	QWORD PTR [esp], xmm0
	cvtss2sd xmm0, DWORD PTR _PipAz$2[ebp]
	sub	esp, 8
	movsd	QWORD PTR [esp], xmm0
	cvtss2sd xmm0, DWORD PTR _PipEl$1[ebp]
	sub	esp, 8
	movsd	QWORD PTR [esp], xmm0
	cvtss2sd xmm0, DWORD PTR _paz$4[ebp]
	sub	esp, 8
	movsd	QWORD PTR [esp], xmm0
	cvtss2sd xmm0, DWORD PTR _pel$3[ebp]
	sub	esp, 8
	movsd	QWORD PTR [esp], xmm0
	cvtss2sd xmm0, DWORD PTR _dz$5[ebp]
	sub	esp, 8
	movsd	QWORD PTR [esp], xmm0
	cvtss2sd xmm0, DWORD PTR _dy$[ebp]
	sub	esp, 8
	movsd	QWORD PTR [esp], xmm0
	cvtss2sd xmm0, DWORD PTR _dx$[ebp]
	sub	esp, 8
	movsd	QWORD PTR [esp], xmm0
	cvtss2sd xmm0, DWORD PTR _rng$[ebp]
	sub	esp, 8
	movsd	QWORD PTR [esp], xmm0
	push	OFFSET ??_C@_0FN@MNJCEOEK@?$CK?$CK?9?9?$CK?$CK?5Rng?5?$CFf?5Imp?5X?5?$CFf?5Imp?5Y?5?$CFf?5@
	mov	edx, DWORD PTR ?fp@?1??FindRocketGroundImpact@MissileClass@@QAEHPAM000@Z@4PAU_iobuf@@A
	push	edx
	call	_fprintf
	add	esp, 96					; 00000060H

; 1439 : 				//rng, *impactX, *impactY, *impactZ, degtheta, degpsi, pel, paz, PipEl, PipAz, dx, dy, dz);
; 1440 : 		fflush(fp);

	mov	eax, DWORD PTR ?fp@?1??FindRocketGroundImpact@MissileClass@@QAEHPAM000@Z@4PAU_iobuf@@A
	push	eax
	call	_fflush
	add	esp, 4
$LN1@FindRocket:

; 1441 : 	}
; 1442 : 	return TRUE;

	mov	eax, 1

; 1443 : }

	mov	esp, ebp
	pop	ebp
	ret	16					; 00000010H
?FindRocketGroundImpact@MissileClass@@QAEHPAM000@Z ENDP	; MissileClass::FindRocketGroundImpact
_TEXT	ENDS
; Function compile flags: /Odtp
; File c:\users\zhitao li\documents\visual studio 2012\projects\freefalcon\sim\include\missile.h
;	COMDAT ?IsMissile@MissileClass@@UAEHXZ
_TEXT	SEGMENT
_this$ = -4						; size = 4
?IsMissile@MissileClass@@UAEHXZ PROC			; MissileClass::IsMissile, COMDAT
; _this$ = ecx

; 343  : 	virtual int IsMissile (void) { return TRUE; };

	push	ebp
	mov	ebp, esp
	push	ecx
	mov	DWORD PTR _this$[ebp], ecx
	mov	eax, 1
	mov	esp, ebp
	pop	ebp
	ret	0
?IsMissile@MissileClass@@UAEHXZ ENDP			; MissileClass::IsMissile
_TEXT	ENDS
; Function compile flags: /Odtp
; File c:\users\zhitao li\documents\visual studio 2012\projects\freefalcon\sim\missile\missmain.cpp
_TEXT	SEGMENT
_this$ = -4						; size = 4
?SetVuPosition@MissileClass@@UAEXXZ PROC		; MissileClass::SetVuPosition
; _this$ = ecx

; 973  : {

	push	ebp
	mov	ebp, esp
	push	ecx
	mov	DWORD PTR _this$[ebp], ecx

; 974  :    SetPosition (x, y, z);

	mov	eax, DWORD PTR _this$[ebp]
	push	ecx
	movss	xmm0, DWORD PTR [eax+764]
	movss	DWORD PTR [esp], xmm0
	mov	ecx, DWORD PTR _this$[ebp]
	push	ecx
	movss	xmm0, DWORD PTR [ecx+760]
	movss	DWORD PTR [esp], xmm0
	mov	edx, DWORD PTR _this$[ebp]
	push	ecx
	movss	xmm0, DWORD PTR [edx+756]
	movss	DWORD PTR [esp], xmm0
	mov	ecx, DWORD PTR _this$[ebp]
	call	?SetPosition@VuEntity@@QAEXMMM@Z	; VuEntity::SetPosition

; 975  :    SetDelta(xdot, ydot, zdot);

	mov	eax, DWORD PTR _this$[ebp]
	push	ecx
	movss	xmm0, DWORD PTR [eax+780]
	movss	DWORD PTR [esp], xmm0
	mov	ecx, DWORD PTR _this$[ebp]
	push	ecx
	movss	xmm0, DWORD PTR [ecx+776]
	movss	DWORD PTR [esp], xmm0
	mov	edx, DWORD PTR _this$[ebp]
	push	ecx
	movss	xmm0, DWORD PTR [edx+772]
	movss	DWORD PTR [esp], xmm0
	mov	ecx, DWORD PTR _this$[ebp]
	call	?SetDelta@VuEntity@@QAEXMMM@Z		; VuEntity::SetDelta

; 976  :    SetYPR(psi, theta, phi);

	mov	eax, DWORD PTR _this$[ebp]
	push	ecx
	movss	xmm0, DWORD PTR [eax+788]
	movss	DWORD PTR [esp], xmm0
	mov	ecx, DWORD PTR _this$[ebp]
	push	ecx
	movss	xmm0, DWORD PTR [ecx+784]
	movss	DWORD PTR [esp], xmm0
	mov	edx, DWORD PTR _this$[ebp]
	push	ecx
	movss	xmm0, DWORD PTR [edx+792]
	movss	DWORD PTR [esp], xmm0
	mov	ecx, DWORD PTR _this$[ebp]
	call	?SetYPR@VuEntity@@QAEXMMM@Z		; VuEntity::SetYPR

; 977  :    SetYPRDelta (r, q, p);

	mov	eax, DWORD PTR _this$[ebp]
	push	ecx
	movss	xmm0, DWORD PTR [eax+964]
	movss	DWORD PTR [esp], xmm0
	mov	ecx, DWORD PTR _this$[ebp]
	push	ecx
	movss	xmm0, DWORD PTR [ecx+968]
	movss	DWORD PTR [esp], xmm0
	mov	edx, DWORD PTR _this$[ebp]
	push	ecx
	movss	xmm0, DWORD PTR [edx+972]
	movss	DWORD PTR [esp], xmm0
	mov	ecx, DWORD PTR _this$[ebp]
	call	?SetYPRDelta@VuEntity@@QAEXMMM@Z	; VuEntity::SetYPRDelta

; 978  :    // sfr: no more 
; 979  :    //SetVt(vt);
; 980  : }

	mov	esp, ebp
	pop	ebp
	ret	0
?SetVuPosition@MissileClass@@UAEXXZ ENDP		; MissileClass::SetVuPosition
_TEXT	ENDS
; Function compile flags: /Odtp
; File c:\users\zhitao li\documents\visual studio 2012\projects\freefalcon\sim\missile\missmain.cpp
_TEXT	SEGMENT
_retval$ = -28						; size = 4
_pg$1 = -24						; size = 4
tv209 = -20						; size = 4
tv184 = -16						; size = 4
tv94 = -12						; size = 4
_campobj$2 = -8						; size = 4
_this$ = -4						; size = 4
?Wake@MissileClass@@UAEHXZ PROC				; MissileClass::Wake
; _this$ = ecx

; 939  : {

	push	ebp
	mov	ebp, esp
	sub	esp, 28					; 0000001cH
	mov	DWORD PTR _this$[ebp], ecx

; 940  : 	if (IsAwake()){

	mov	ecx, DWORD PTR _this$[ebp]
	call	?IsAwake@SimBaseClass@@QBEHXZ		; SimBaseClass::IsAwake
	test	eax, eax
	je	SHORT $LN10@Wake

; 941  : 		return 0;

	xor	eax, eax
	jmp	$LN11@Wake
$LN10@Wake:

; 942  : 	}
; 943  :     
; 944  : 	int retval = SimWeaponClass::Wake();

	mov	ecx, DWORD PTR _this$[ebp]
	call	?Wake@SimWeaponClass@@UAEHXZ		; SimWeaponClass::Wake
	mov	DWORD PTR _retval$[ebp], eax

; 945  : 
; 946  :     // Tell our campaign parent he's got missiles in the air
; 947  :     // (So that SAM battalions keep their radars on)
; 948  : 	if (parent){

	mov	ecx, DWORD PTR _this$[ebp]
	add	ecx, 688				; 000002b0H
	call	??B?$VuBin@VFalconEntity@@@@QBE_NXZ	; VuBin<FalconEntity>::operator bool
	movzx	eax, al
	test	eax, eax
	je	$LN9@Wake

; 949  : 		//Campaign launched vehicles don't necessarily have a parent
; 950  : 		if (parent->IsGroundVehicle()) { 

	mov	ecx, DWORD PTR _this$[ebp]
	add	ecx, 688				; 000002b0H
	call	??C?$VuBin@VFalconEntity@@@@QBEPAVFalconEntity@@XZ ; VuBin<FalconEntity>::operator->
	mov	DWORD PTR tv94[ebp], eax
	mov	ecx, DWORD PTR tv94[ebp]
	mov	edx, DWORD PTR [ecx]
	mov	ecx, DWORD PTR tv94[ebp]
	mov	eax, DWORD PTR [edx+196]
	call	eax
	test	eax, eax
	je	SHORT $LN8@Wake

; 951  : 			// JPO more checks please
; 952  : 			GroundClass *pg = static_cast<GroundClass*>(parent.get());

	mov	ecx, DWORD PTR _this$[ebp]
	add	ecx, 688				; 000002b0H
	call	?get@?$VuBin@VFalconEntity@@@@QBEPAVFalconEntity@@XZ ; VuBin<FalconEntity>::get
	mov	DWORD PTR _pg$1[ebp], eax

; 953  : 			CampBaseClass *campobj = pg->GetCampaignObject();

	mov	ecx, DWORD PTR _pg$1[ebp]
	call	?GetCampaignObject@SimBaseClass@@QAEPAVCampBaseClass@@XZ ; SimBaseClass::GetCampaignObject
	mov	DWORD PTR _campobj$2[ebp], eax

; 954  : 			if (campobj -> IsBattalion()){

	mov	ecx, DWORD PTR _campobj$2[ebp]
	mov	edx, DWORD PTR [ecx]
	mov	ecx, DWORD PTR _campobj$2[ebp]
	mov	eax, DWORD PTR [edx+240]
	call	eax
	test	eax, eax
	je	SHORT $LN7@Wake

; 955  : 				((BattalionClass*)campobj)->IncrementMissileCount();

	mov	ecx, DWORD PTR _campobj$2[ebp]
	call	?IncrementMissileCount@BattalionClass@@QAEXXZ ; BattalionClass::IncrementMissileCount
	jmp	SHORT $LN6@Wake
$LN7@Wake:

; 956  : 			}
; 957  : 			else if (campobj -> IsTaskForce()){

	mov	ecx, DWORD PTR _campobj$2[ebp]
	mov	edx, DWORD PTR [ecx]
	mov	ecx, DWORD PTR _campobj$2[ebp]
	mov	eax, DWORD PTR [edx+264]
	call	eax
	test	eax, eax
	je	SHORT $LN6@Wake

; 958  : 				// add in naval stuff
; 959  : 				((TaskForceClass*)campobj)->IncrementMissileCount();

	mov	ecx, DWORD PTR _campobj$2[ebp]
	call	?IncrementMissileCount@TaskForceClass@@QAEXXZ ; TaskForceClass::IncrementMissileCount
$LN6@Wake:

; 960  : 			}
; 961  : 		} 

	jmp	SHORT $LN9@Wake
$LN8@Wake:

; 962  : 		else if (parent->IsBattalion()) {

	mov	ecx, DWORD PTR _this$[ebp]
	add	ecx, 688				; 000002b0H
	call	??C?$VuBin@VFalconEntity@@@@QBEPAVFalconEntity@@XZ ; VuBin<FalconEntity>::operator->
	mov	DWORD PTR tv184[ebp], eax
	mov	ecx, DWORD PTR tv184[ebp]
	mov	edx, DWORD PTR [ecx]
	mov	ecx, DWORD PTR tv184[ebp]
	mov	eax, DWORD PTR [edx+240]
	call	eax
	test	eax, eax
	je	SHORT $LN3@Wake

; 963  : 			((BattalionClass*)parent.get())->IncrementMissileCount();

	mov	ecx, DWORD PTR _this$[ebp]
	add	ecx, 688				; 000002b0H
	call	?get@?$VuBin@VFalconEntity@@@@QBEPAVFalconEntity@@XZ ; VuBin<FalconEntity>::get
	mov	ecx, eax
	call	?IncrementMissileCount@BattalionClass@@QAEXXZ ; BattalionClass::IncrementMissileCount
	jmp	SHORT $LN9@Wake
$LN3@Wake:

; 964  : 		}
; 965  : 		else if (parent->IsTaskForce()) { // and again

	mov	ecx, DWORD PTR _this$[ebp]
	add	ecx, 688				; 000002b0H
	call	??C?$VuBin@VFalconEntity@@@@QBEPAVFalconEntity@@XZ ; VuBin<FalconEntity>::operator->
	mov	DWORD PTR tv209[ebp], eax
	mov	ecx, DWORD PTR tv209[ebp]
	mov	edx, DWORD PTR [ecx]
	mov	ecx, DWORD PTR tv209[ebp]
	mov	eax, DWORD PTR [edx+264]
	call	eax
	test	eax, eax
	je	SHORT $LN9@Wake

; 966  : 			((TaskForceClass*)parent.get())->IncrementMissileCount();

	mov	ecx, DWORD PTR _this$[ebp]
	add	ecx, 688				; 000002b0H
	call	?get@?$VuBin@VFalconEntity@@@@QBEPAVFalconEntity@@XZ ; VuBin<FalconEntity>::get
	mov	ecx, eax
	call	?IncrementMissileCount@TaskForceClass@@QAEXXZ ; TaskForceClass::IncrementMissileCount
$LN9@Wake:

; 967  : 		}
; 968  :     }
; 969  :     return retval;

	mov	eax, DWORD PTR _retval$[ebp]
$LN11@Wake:

; 970  : }

	mov	esp, ebp
	pop	ebp
	ret	0
?Wake@MissileClass@@UAEHXZ ENDP				; MissileClass::Wake
_TEXT	ENDS
; Function compile flags: /Odtp
; File c:\users\zhitao li\documents\visual studio 2012\projects\freefalcon\sim\missile\missmain.cpp
_TEXT	SEGMENT
_retval$ = -24						; size = 4
tv206 = -20						; size = 4
tv181 = -16						; size = 4
tv91 = -12						; size = 4
_campobj$1 = -8						; size = 4
_this$ = -4						; size = 4
?Sleep@MissileClass@@UAEHXZ PROC			; MissileClass::Sleep
; _this$ = ecx

; 891  : {

	push	ebp
	mov	ebp, esp
	sub	esp, 24					; 00000018H
	mov	DWORD PTR _this$[ebp], ecx

; 892  : 	int retval = 0;

	mov	DWORD PTR _retval$[ebp], 0

; 893  : 
; 894  : 	if (!IsAwake()){ return retval; }

	mov	ecx, DWORD PTR _this$[ebp]
	call	?IsAwake@SimBaseClass@@QBEHXZ		; SimBaseClass::IsAwake
	test	eax, eax
	jne	SHORT $LN11@Sleep
	mov	eax, DWORD PTR _retval$[ebp]
	jmp	$LN12@Sleep
$LN11@Sleep:

; 895  : 
; 896  : /*	if (trail)
; 897  : 		RemoveTrail();*/
; 898  : 
; 899  : 	if (TrailId){

	mov	eax, DWORD PTR _this$[ebp]
	cmp	DWORD PTR [eax+696], 0
	je	SHORT $LN10@Sleep

; 900  : 		RemoveTrail();

	mov	ecx, DWORD PTR _this$[ebp]
	call	?RemoveTrail@MissileClass@@AAEXXZ	; MissileClass::RemoveTrail
$LN10@Sleep:

; 901  : 	}
; 902  : 
; 903  : 	// Drop the sensors platform if beamrider
; 904  : 	ClearReferences();

	mov	ecx, DWORD PTR _this$[ebp]
	call	?ClearReferences@MissileClass@@QAEXXZ	; MissileClass::ClearReferences

; 905  : 
; 906  : 	// make sure parent is no longer referenced
; 907  : 	// Tell the parent this missile doesn't need guidance anymore
; 908  : 	if (parent.get() != NULL){

	mov	ecx, DWORD PTR _this$[ebp]
	add	ecx, 688				; 000002b0H
	call	?get@?$VuBin@VFalconEntity@@@@QBEPAVFalconEntity@@XZ ; VuBin<FalconEntity>::get
	test	eax, eax
	je	$LN9@Sleep

; 909  : 		if (parent->IsGroundVehicle()){

	mov	ecx, DWORD PTR _this$[ebp]
	add	ecx, 688				; 000002b0H
	call	??C?$VuBin@VFalconEntity@@@@QBEPAVFalconEntity@@XZ ; VuBin<FalconEntity>::operator->
	mov	DWORD PTR tv91[ebp], eax
	mov	ecx, DWORD PTR tv91[ebp]
	mov	edx, DWORD PTR [ecx]
	mov	ecx, DWORD PTR tv91[ebp]
	mov	eax, DWORD PTR [edx+196]
	call	eax
	test	eax, eax
	je	SHORT $LN8@Sleep

; 910  : 			CampBaseClass *campobj = ((GroundClass*)parent.get())->GetCampaignObject();

	mov	ecx, DWORD PTR _this$[ebp]
	add	ecx, 688				; 000002b0H
	call	?get@?$VuBin@VFalconEntity@@@@QBEPAVFalconEntity@@XZ ; VuBin<FalconEntity>::get
	mov	ecx, eax
	call	?GetCampaignObject@SimBaseClass@@QAEPAVCampBaseClass@@XZ ; SimBaseClass::GetCampaignObject
	mov	DWORD PTR _campobj$1[ebp], eax

; 911  : 			if (campobj->IsBattalion()){

	mov	ecx, DWORD PTR _campobj$1[ebp]
	mov	edx, DWORD PTR [ecx]
	mov	ecx, DWORD PTR _campobj$1[ebp]
	mov	eax, DWORD PTR [edx+240]
	call	eax
	test	eax, eax
	je	SHORT $LN7@Sleep

; 912  : 				((BattalionClass*)campobj)->DecrementMissileCount();

	mov	ecx, DWORD PTR _campobj$1[ebp]
	call	?DecrementMissileCount@BattalionClass@@QAEXXZ ; BattalionClass::DecrementMissileCount
	jmp	SHORT $LN6@Sleep
$LN7@Sleep:

; 913  : 			}
; 914  : 			else if (campobj->IsTaskForce()){

	mov	ecx, DWORD PTR _campobj$1[ebp]
	mov	edx, DWORD PTR [ecx]
	mov	ecx, DWORD PTR _campobj$1[ebp]
	mov	eax, DWORD PTR [edx+264]
	call	eax
	test	eax, eax
	je	SHORT $LN6@Sleep

; 915  : 				// add in naval stuff
; 916  : 				((TaskForceClass*)campobj)->DecrementMissileCount();

	mov	ecx, DWORD PTR _campobj$1[ebp]
	call	?DecrementMissileCount@TaskForceClass@@QAEXXZ ; TaskForceClass::DecrementMissileCount
$LN6@Sleep:

; 917  : 			}
; 918  : 		} 

	jmp	SHORT $LN9@Sleep
$LN8@Sleep:

; 919  : 		else if (parent->IsBattalion()) {

	mov	ecx, DWORD PTR _this$[ebp]
	add	ecx, 688				; 000002b0H
	call	??C?$VuBin@VFalconEntity@@@@QBEPAVFalconEntity@@XZ ; VuBin<FalconEntity>::operator->
	mov	DWORD PTR tv181[ebp], eax
	mov	ecx, DWORD PTR tv181[ebp]
	mov	edx, DWORD PTR [ecx]
	mov	ecx, DWORD PTR tv181[ebp]
	mov	eax, DWORD PTR [edx+240]
	call	eax
	test	eax, eax
	je	SHORT $LN3@Sleep

; 920  : 			((BattalionClass*)parent.get())->DecrementMissileCount();

	mov	ecx, DWORD PTR _this$[ebp]
	add	ecx, 688				; 000002b0H
	call	?get@?$VuBin@VFalconEntity@@@@QBEPAVFalconEntity@@XZ ; VuBin<FalconEntity>::get
	mov	ecx, eax
	call	?DecrementMissileCount@BattalionClass@@QAEXXZ ; BattalionClass::DecrementMissileCount
	jmp	SHORT $LN9@Sleep
$LN3@Sleep:

; 921  : 		}
; 922  : 		else if (parent->IsTaskForce()) {

	mov	ecx, DWORD PTR _this$[ebp]
	add	ecx, 688				; 000002b0H
	call	??C?$VuBin@VFalconEntity@@@@QBEPAVFalconEntity@@XZ ; VuBin<FalconEntity>::operator->
	mov	DWORD PTR tv206[ebp], eax
	mov	ecx, DWORD PTR tv206[ebp]
	mov	edx, DWORD PTR [ecx]
	mov	ecx, DWORD PTR tv206[ebp]
	mov	eax, DWORD PTR [edx+264]
	call	eax
	test	eax, eax
	je	SHORT $LN9@Sleep

; 923  : 			((TaskForceClass*)parent.get())->DecrementMissileCount();

	mov	ecx, DWORD PTR _this$[ebp]
	add	ecx, 688				; 000002b0H
	call	?get@?$VuBin@VFalconEntity@@@@QBEPAVFalconEntity@@XZ ; VuBin<FalconEntity>::get
	mov	ecx, eax
	call	?DecrementMissileCount@TaskForceClass@@QAEXXZ ; TaskForceClass::DecrementMissileCount
$LN9@Sleep:

; 924  : 		}
; 925  : 	}
; 926  : 
; 927  : 	SimWeaponClass::Sleep();

	mov	ecx, DWORD PTR _this$[ebp]
	call	?Sleep@SimWeaponClass@@UAEHXZ		; SimWeaponClass::Sleep

; 928  : 	return retval;

	mov	eax, DWORD PTR _retval$[ebp]
$LN12@Sleep:

; 929  : }

	mov	esp, ebp
	pop	ebp
	ret	0
?Sleep@MissileClass@@UAEHXZ ENDP			; MissileClass::Sleep
_TEXT	ENDS
; Function compile flags: /Odtp
; File c:\users\zhitao li\documents\visual studio 2012\projects\freefalcon\sim\missile\missmain.cpp
_TEXT	SEGMENT
tv85 = -16						; size = 4
$T1 = -12						; size = 4
$T2 = -8						; size = 4
_this$ = -4						; size = 4
_flag$ = 8						; size = 4
?SetDead@MissileClass@@UAEXH@Z PROC			; MissileClass::SetDead
; _this$ = ecx

; 873  : void MissileClass::SetDead (int flag){

	push	ebp
	mov	ebp, esp
	sub	esp, 16					; 00000010H
	mov	DWORD PTR _this$[ebp], ecx

; 874  : 	if (IsAwake()){

	mov	ecx, DWORD PTR _this$[ebp]
	call	?IsAwake@SimBaseClass@@QBEHXZ		; SimBaseClass::IsAwake
	test	eax, eax
	je	SHORT $LN2@SetDead

; 875  : 		Sleep();

	mov	eax, DWORD PTR _this$[ebp]
	mov	edx, DWORD PTR [eax]
	mov	ecx, DWORD PTR _this$[ebp]
	mov	eax, DWORD PTR [edx+108]
	call	eax
$LN2@SetDead:

; 876  : 	}
; 877  : 
; 878  : 	// delete in flight data if any
; 879  : 	if (ifd){

	mov	ecx, DWORD PTR _this$[ebp]
	cmp	DWORD PTR [ecx+988], 0
	je	SHORT $LN1@SetDead

; 880  : 		delete ifd;

	mov	edx, DWORD PTR _this$[ebp]
	mov	eax, DWORD PTR [edx+988]
	mov	DWORD PTR $T1[ebp], eax
	mov	ecx, DWORD PTR $T1[ebp]
	mov	DWORD PTR $T2[ebp], ecx
	cmp	DWORD PTR $T2[ebp], 0
	je	SHORT $LN5@SetDead
	push	1
	mov	ecx, DWORD PTR $T2[ebp]
	call	??_GMissileInFlightData@@QAEPAXI@Z
	mov	DWORD PTR tv85[ebp], eax
	jmp	SHORT $LN6@SetDead
$LN5@SetDead:
	mov	DWORD PTR tv85[ebp], 0
$LN6@SetDead:

; 881  : 		ifd = NULL;

	mov	edx, DWORD PTR _this$[ebp]
	mov	DWORD PTR [edx+988], 0
$LN1@SetDead:

; 882  : 	}
; 883  : 
; 884  : 	// clear out target if any
; 885  : 	DropTarget();

	mov	ecx, DWORD PTR _this$[ebp]
	call	?DropTarget@MissileClass@@QAEXXZ	; MissileClass::DropTarget

; 886  : 
; 887  : 	SimWeaponClass::SetDead(flag);

	mov	eax, DWORD PTR _flag$[ebp]
	push	eax
	mov	ecx, DWORD PTR _this$[ebp]
	call	?SetDead@SimWeaponClass@@UAEXH@Z	; SimWeaponClass::SetDead

; 888  : }

	mov	esp, ebp
	pop	ebp
	ret	4
?SetDead@MissileClass@@UAEXH@Z ENDP			; MissileClass::SetDead
_TEXT	ENDS
; Function compile flags: /Odtp
; File c:\users\zhitao li\documents\visual studio 2012\projects\freefalcon\sim\missile\missmain.cpp
_TEXT	SEGMENT
_rangeToGo$ = -24					; size = 4
_overtake$ = -20					; size = 4
tv135 = -16						; size = 4
_this$ = -12						; size = 4
tv140 = -8						; size = 4
tv88 = -4						; size = 4
_alt$ = 8						; size = 4
_vt$ = 12						; size = 4
_ataFrom$ = 16						; size = 4
_targetVt$ = 20						; size = 4
_range$ = 24						; size = 4
?GetActiveRange@MissileClass@@QAEMMMMMM@Z PROC		; MissileClass::GetActiveRange
; _this$ = ecx

; 763  : {

	push	ebp
	mov	ebp, esp
	sub	esp, 24					; 00000018H
	mov	DWORD PTR _this$[ebp], ecx

; 764  : 	// Well, I don't much like this, but it'll be consistent with the other bogus data...
; 765  : 	float overtake = MISSILE_SPEED  + (alt/1000.0f * MISSILE_ALTITUDE_BONUS)+ targetVt* (float)cos(ataFrom);//me123 + vt taken out and "alt" addet due to aim120 tof problems

	movss	xmm0, DWORD PTR _alt$[ebp]
	divss	xmm0, DWORD PTR __real@447a0000
	mulss	xmm0, DWORD PTR _MISSILE_ALTITUDE_BONUS
	addss	xmm0, DWORD PTR _MISSILE_SPEED
	push	ecx
	movss	xmm1, DWORD PTR _ataFrom$[ebp]
	movss	DWORD PTR [esp], xmm1
	movss	DWORD PTR tv140[ebp], xmm0
	call	?cos@@YAMM@Z				; cos
	add	esp, 4
	fstp	DWORD PTR tv88[ebp]
	movss	xmm0, DWORD PTR tv88[ebp]
	mulss	xmm0, DWORD PTR _targetVt$[ebp]
	movss	xmm1, DWORD PTR tv140[ebp]
	addss	xmm1, xmm0
	movss	DWORD PTR _overtake$[ebp], xmm1

; 766  : 	float rangeToGo = overtake * GetActiveTime(alt, vt, ataFrom, targetVt, range);

	push	ecx
	movss	xmm0, DWORD PTR _range$[ebp]
	movss	DWORD PTR [esp], xmm0
	push	ecx
	movss	xmm0, DWORD PTR _targetVt$[ebp]
	movss	DWORD PTR [esp], xmm0
	push	ecx
	movss	xmm0, DWORD PTR _ataFrom$[ebp]
	movss	DWORD PTR [esp], xmm0
	push	ecx
	movss	xmm0, DWORD PTR _vt$[ebp]
	movss	DWORD PTR [esp], xmm0
	push	ecx
	movss	xmm0, DWORD PTR _alt$[ebp]
	movss	DWORD PTR [esp], xmm0
	mov	ecx, DWORD PTR _this$[ebp]
	call	?GetActiveTime@MissileClass@@QAEMMMMMM@Z ; MissileClass::GetActiveTime
	fstp	DWORD PTR tv135[ebp]
	movss	xmm0, DWORD PTR tv135[ebp]
	mulss	xmm0, DWORD PTR _overtake$[ebp]
	movss	DWORD PTR _rangeToGo$[ebp], xmm0

; 767  : 	return rangeToGo; //me123 the missile goes active when there's a serden sec TOF left, not after a serden TOF // range - rangeToGo;

	fld	DWORD PTR _rangeToGo$[ebp]

; 768  : }

	mov	esp, ebp
	pop	ebp
	ret	20					; 00000014H
?GetActiveRange@MissileClass@@QAEMMMMMM@Z ENDP		; MissileClass::GetActiveRange
_TEXT	ENDS
; Function compile flags: /Odtp
; File c:\users\zhitao li\documents\visual studio 2012\projects\freefalcon\sim\missile\missmain.cpp
_TEXT	SEGMENT
_this$ = -4						; size = 4
___formal$ = 8						; size = 4
___formal$ = 12						; size = 4
___formal$ = 16						; size = 4
___formal$ = 20						; size = 4
___formal$ = 24						; size = 4
?GetActiveTime@MissileClass@@QAEMMMMMM@Z PROC		; MissileClass::GetActiveTime
; _this$ = ecx

; 772  : {

	push	ebp
	mov	ebp, esp
	push	ecx
	mov	DWORD PTR _this$[ebp], ecx

; 773  : 	// This could be a variable, but for now its a constant per missile type
; 774  : 	return inputData->mslActiveTtg;

	mov	eax, DWORD PTR _this$[ebp]
	mov	ecx, DWORD PTR [eax+848]
	fld	DWORD PTR [ecx+84]

; 775  : }

	mov	esp, ebp
	pop	ebp
	ret	20					; 00000014H
?GetActiveTime@MissileClass@@QAEMMMMMM@Z ENDP		; MissileClass::GetActiveTime
_TEXT	ENDS
; Function compile flags: /Odtp
; File c:\users\zhitao li\documents\visual studio 2012\projects\freefalcon\sim\missile\missmain.cpp
_TEXT	SEGMENT
_rmax$ = -24						; size = 4
_weaponData$ = -20					; size = 4
_classPtr$ = -16					; size = 4
tv83 = -12						; size = 4
_ase$ = -8						; size = 4
_this$ = -4						; size = 4
_alt$ = 8						; size = 4
_vt$ = 12						; size = 4
_ataFrom$ = 16						; size = 4
_targetVt$ = 20						; size = 4
_range$ = 24						; size = 4
?GetASE@MissileClass@@QAEMMMMMM@Z PROC			; MissileClass::GetASE
; _this$ = ecx

; 778  : {

	push	ebp
	mov	ebp, esp
	sub	esp, 24					; 00000018H
	mov	DWORD PTR _this$[ebp], ecx

; 779  : Falcon4EntityClassType* classPtr = (Falcon4EntityClassType*)EntityType();

	mov	ecx, DWORD PTR _this$[ebp]
	call	?EntityType@VuEntity@@QBEPAUVuEntityType@@XZ ; VuEntity::EntityType
	mov	DWORD PTR _classPtr$[ebp], eax

; 780  : WeaponClassDataType* weaponData = (WeaponClassDataType*)classPtr->dataPtr;

	mov	eax, DWORD PTR _classPtr$[ebp]
	mov	ecx, DWORD PTR [eax+77]
	mov	DWORD PTR _weaponData$[ebp], ecx

; 781  : 
; 782  : float ase;
; 783  : float rmax = weaponData->Range * KM_TO_FT;

	mov	edx, DWORD PTR _weaponData$[ebp]
	movsx	eax, WORD PTR [edx+8]
	cvtsi2ss xmm0, eax
	mulss	xmm0, DWORD PTR __real@454cffae
	movss	DWORD PTR _rmax$[ebp], xmm0

; 784  : 
; 785  : 	alt = vt = ataFrom = targetVt = range;

	movss	xmm0, DWORD PTR _range$[ebp]
	movss	DWORD PTR _targetVt$[ebp], xmm0
	movss	xmm0, DWORD PTR _targetVt$[ebp]
	movss	DWORD PTR _ataFrom$[ebp], xmm0
	movss	xmm0, DWORD PTR _ataFrom$[ebp]
	movss	DWORD PTR _vt$[ebp], xmm0
	movss	xmm0, DWORD PTR _vt$[ebp]
	movss	DWORD PTR _alt$[ebp], xmm0

; 786  : 	ase = inputData->gimlim * RTD * (1.0F - range/rmax);

	mov	ecx, DWORD PTR _this$[ebp]
	mov	edx, DWORD PTR [ecx+848]
	movss	xmm0, DWORD PTR [edx+52]
	mulss	xmm0, DWORD PTR __real@42652ee1
	movss	xmm1, DWORD PTR _range$[ebp]
	divss	xmm1, DWORD PTR _rmax$[ebp]
	movss	xmm2, DWORD PTR __real@3f800000
	subss	xmm2, xmm1
	mulss	xmm0, xmm2
	movss	DWORD PTR _ase$[ebp], xmm0

; 787  : 
; 788  : 	return (max (ase, 0.0F));

	movss	xmm0, DWORD PTR _ase$[ebp]
	comiss	xmm0, DWORD PTR __real@00000000
	jbe	SHORT $LN3@GetASE
	movss	xmm0, DWORD PTR _ase$[ebp]
	movss	DWORD PTR tv83[ebp], xmm0
	jmp	SHORT $LN4@GetASE
$LN3@GetASE:
	movss	xmm0, DWORD PTR __real@00000000
	movss	DWORD PTR tv83[ebp], xmm0
$LN4@GetASE:
	fld	DWORD PTR tv83[ebp]

; 789  : }

	mov	esp, ebp
	pop	ebp
	ret	20					; 00000014H
?GetASE@MissileClass@@QAEMMMMMM@Z ENDP			; MissileClass::GetASE
_TEXT	ENDS
; Function compile flags: /Odtp
; File c:\users\zhitao li\documents\visual studio 2012\projects\freefalcon\sim\missile\missmain.cpp
_TEXT	SEGMENT
tv138 = -32						; size = 8
_this$ = -24						; size = 4
tv147 = -20						; size = 4
tv128 = -16						; size = 4
tv86 = -12						; size = 4
_overtake$ = -8						; size = 4
_tof$ = -4						; size = 4
_alt$ = 8						; size = 4
_vt$ = 12						; size = 4
_ataFrom$ = 16						; size = 4
_targetVt$ = 20						; size = 4
_range$ = 24						; size = 4
?GetTOF@MissileClass@@QAEMMMMMM@Z PROC			; MissileClass::GetTOF
; _this$ = ecx

; 752  : {

	push	ebp
	mov	ebp, esp
	sub	esp, 32					; 00000020H
	mov	DWORD PTR _this$[ebp], ecx

; 753  : 	// TODO:  Get this from a table like the max range stuff above...
; 754  : 	float overtake = MISSILE_SPEED  + (alt/1000.0f * MISSILE_ALTITUDE_BONUS)+ targetVt* (float)cos(ataFrom);//me123 + vt taken out and "alt" addet due to aim120 tof problems

	movss	xmm0, DWORD PTR _alt$[ebp]
	divss	xmm0, DWORD PTR __real@447a0000
	mulss	xmm0, DWORD PTR _MISSILE_ALTITUDE_BONUS
	addss	xmm0, DWORD PTR _MISSILE_SPEED
	push	ecx
	movss	xmm1, DWORD PTR _ataFrom$[ebp]
	movss	DWORD PTR [esp], xmm1
	movss	DWORD PTR tv147[ebp], xmm0
	call	?cos@@YAMM@Z				; cos
	add	esp, 4
	fstp	DWORD PTR tv128[ebp]
	movss	xmm0, DWORD PTR tv128[ebp]
	mulss	xmm0, DWORD PTR _targetVt$[ebp]
	movss	xmm1, DWORD PTR tv147[ebp]
	addss	xmm1, xmm0
	movss	DWORD PTR _overtake$[ebp], xmm1

; 755  : 		  overtake += (vt * FTPSEC_TO_KNOTS - 150.0f)/2 ;//me123 platform speed bonus // JB 010215 changed from 250 to 150

	movss	xmm0, DWORD PTR _vt$[ebp]
	mulss	xmm0, DWORD PTR __real@3f17ac60
	subss	xmm0, DWORD PTR __real@43160000
	divss	xmm0, DWORD PTR __real@40000000
	addss	xmm0, DWORD PTR _overtake$[ebp]
	movss	DWORD PTR _overtake$[ebp], xmm0

; 756  : 	float tof = range/overtake;

	movss	xmm0, DWORD PTR _range$[ebp]
	divss	xmm0, DWORD PTR _overtake$[ebp]
	movss	DWORD PTR _tof$[ebp], xmm0

; 757  : 	tof += -5.0f * (float) sin(.07 * tof); // JB 010215

	cvtss2sd xmm0, DWORD PTR _tof$[ebp]
	mulsd	xmm0, QWORD PTR __real@3fb1eb851eb851ec
	sub	esp, 8
	movsd	QWORD PTR [esp], xmm0
	call	_sin
	add	esp, 8
	fstp	QWORD PTR tv138[ebp]
	movsd	xmm0, QWORD PTR tv138[ebp]
	cvtsd2ss xmm0, xmm0
	mulss	xmm0, DWORD PTR __real@c0a00000
	addss	xmm0, DWORD PTR _tof$[ebp]
	movss	DWORD PTR _tof$[ebp], xmm0

; 758  : 
; 759  : 	return max (0.0F, tof );	// Counting on silent failure of divid by 0.0 here...

	movss	xmm0, DWORD PTR __real@00000000
	comiss	xmm0, DWORD PTR _tof$[ebp]
	jbe	SHORT $LN3@GetTOF
	movss	xmm0, DWORD PTR __real@00000000
	movss	DWORD PTR tv86[ebp], xmm0
	jmp	SHORT $LN4@GetTOF
$LN3@GetTOF:
	movss	xmm0, DWORD PTR _tof$[ebp]
	movss	DWORD PTR tv86[ebp], xmm0
$LN4@GetTOF:
	fld	DWORD PTR tv86[ebp]

; 760  : }

	mov	esp, ebp
	pop	ebp
	ret	20					; 00000014H
?GetTOF@MissileClass@@QAEMMMMMM@Z ENDP			; MissileClass::GetTOF
_TEXT	ENDS
; Function compile flags: /Odtp
; File c:\users\zhitao li\documents\visual studio 2012\projects\freefalcon\sim\missile\missmain.cpp
_TEXT	SEGMENT
tv214 = -24						; size = 4
tv208 = -20						; size = 4
_weaponData$1 = -16					; size = 4
_classPtr$ = -12					; size = 4
_rmax$ = -8						; size = 4
_this$ = -4						; size = 4
_alt$ = 8						; size = 4
_vt$ = 12						; size = 4
_az$ = 16						; size = 4
_targetVt$ = 20						; size = 4
_ataFrom$ = 24						; size = 4
?GetRMax@MissileClass@@QAEMMMMMM@Z PROC			; MissileClass::GetRMax
; _this$ = ecx

; 704  : {

	push	ebp
	mov	ebp, esp
	sub	esp, 24					; 00000018H
	mov	DWORD PTR _this$[ebp], ecx

; 705  : #if 1
; 706  :     // JPO CTD checks
; 707  : 
; 708  :     ShiAssert(FALSE == F4IsBadReadPtr (rangeData, sizeof (rangeData)));
; 709  : 
; 710  : 	if (!rangeData || F4IsBadReadPtr (rangeData, sizeof (rangeData))) //Wombat778 3-23-04  Added CTD check

	mov	eax, DWORD PTR _this$[ebp]
	cmp	DWORD PTR [eax+852], 0
	je	SHORT $LN4@GetRMax
	push	4
	mov	ecx, DWORD PTR _this$[ebp]
	mov	edx, DWORD PTR [ecx+852]
	push	edx
	call	?F4IsBadReadPtr@@YA_NPBXI@Z		; F4IsBadReadPtr
	add	esp, 8
	movzx	eax, al
	test	eax, eax
	je	SHORT $LN5@GetRMax
$LN4@GetRMax:

; 711  : 							// MLR 5/2/2004 - this bug was caused by heli brains firing the new rocket code.
; 712  : 		return 0.0F;

	fldz
	jmp	$LN6@GetRMax
$LN5@GetRMax:

; 713  : 	
; 714  : 
; 715  : // 2000-11-17 MODIFIED BY S.G. az CAN'T BE USED HERE BECAUSE IT CAN BE NEGATIVE AND THE DATA FILE DO NOT ACCOUNT FOR THAT. PLUS HEAD AND TAIL HAVE THE SAME VALUE (BAD!)
; 716  : 	float rmax = 10.0f;

	movss	xmm0, DWORD PTR __real@41200000
	movss	DWORD PTR _rmax$[ebp], xmm0

; 717  : 	if (rangeData)

	mov	ecx, DWORD PTR _this$[ebp]
	cmp	DWORD PTR [ecx+852], 0
	je	$LN3@GetRMax

; 718  : 	{
; 719  : 		// FRB - CTD's
; 720  : 		rmax = Math.ThreedInterp (alt, vt, ataFrom,
; 721  : 						  rangeData->altBreakpoints, rangeData->velBreakpoints,
; 722  : 						  rangeData->aspectBreakpoints, rangeData->data,
; 723  : 						  rangeData->numAltBreakpoints, rangeData->numVelBreakpoints,
; 724  : 						  rangeData->numAspectBreakpoints, &lastRmaxAlt, &lastRmaxVt, &lastRmaxAta);

	mov	edx, DWORD PTR _this$[ebp]
	add	edx, 800				; 00000320H
	push	edx
	mov	eax, DWORD PTR _this$[ebp]
	add	eax, 808				; 00000328H
	push	eax
	mov	ecx, DWORD PTR _this$[ebp]
	add	ecx, 804				; 00000324H
	push	ecx
	mov	edx, DWORD PTR _this$[ebp]
	mov	eax, DWORD PTR [edx+852]
	mov	ecx, DWORD PTR [eax+8]
	push	ecx
	mov	edx, DWORD PTR _this$[ebp]
	mov	eax, DWORD PTR [edx+852]
	mov	ecx, DWORD PTR [eax+4]
	push	ecx
	mov	edx, DWORD PTR _this$[ebp]
	mov	eax, DWORD PTR [edx+852]
	mov	ecx, DWORD PTR [eax]
	push	ecx
	mov	edx, DWORD PTR _this$[ebp]
	mov	eax, DWORD PTR [edx+852]
	mov	ecx, DWORD PTR [eax+24]
	push	ecx
	mov	edx, DWORD PTR _this$[ebp]
	mov	eax, DWORD PTR [edx+852]
	mov	ecx, DWORD PTR [eax+20]
	push	ecx
	mov	edx, DWORD PTR _this$[ebp]
	mov	eax, DWORD PTR [edx+852]
	mov	ecx, DWORD PTR [eax+16]
	push	ecx
	mov	edx, DWORD PTR _this$[ebp]
	mov	eax, DWORD PTR [edx+852]
	mov	ecx, DWORD PTR [eax+12]
	push	ecx
	push	ecx
	movss	xmm0, DWORD PTR _ataFrom$[ebp]
	movss	DWORD PTR [esp], xmm0
	push	ecx
	movss	xmm0, DWORD PTR _vt$[ebp]
	movss	DWORD PTR [esp], xmm0
	push	ecx
	movss	xmm0, DWORD PTR _alt$[ebp]
	movss	DWORD PTR [esp], xmm0
	mov	ecx, OFFSET ?Math@@3VSIMLIB_MATH_CLASS@@A ; Math
	call	?ThreedInterp@SIMLIB_MATH_CLASS@@QAEMMMMPBM000HHHPAH11@Z ; SIMLIB_MATH_CLASS::ThreedInterp
	fstp	DWORD PTR _rmax$[ebp]
$LN3@GetRMax:

; 725  : 	}
; 726  : //#else
; 727  : 	Falcon4EntityClassType* classPtr = (Falcon4EntityClassType*)EntityType();

	mov	ecx, DWORD PTR _this$[ebp]
	call	?EntityType@VuEntity@@QBEPAUVuEntityType@@XZ ; VuEntity::EntityType
	mov	DWORD PTR _classPtr$[ebp], eax

; 728  : 	if (classPtr)

	cmp	DWORD PTR _classPtr$[ebp], 0
	je	SHORT $LN1@GetRMax

; 729  : 	{
; 730  : 		WeaponClassDataType* weaponData = (WeaponClassDataType*)classPtr->dataPtr;

	mov	edx, DWORD PTR _classPtr$[ebp]
	mov	eax, DWORD PTR [edx+77]
	mov	DWORD PTR _weaponData$1[ebp], eax

; 731  : 		if (weaponData)

	cmp	DWORD PTR _weaponData$1[ebp], 0
	je	SHORT $LN1@GetRMax

; 732  : 			rmax = weaponData->Range * KM_TO_FT;

	mov	ecx, DWORD PTR _weaponData$1[ebp]
	movsx	edx, WORD PTR [ecx+8]
	cvtsi2ss xmm0, edx
	mulss	xmm0, DWORD PTR __real@454cffae
	movss	DWORD PTR _rmax$[ebp], xmm0
$LN1@GetRMax:

; 733  : 	}
; 734  : #endif
; 735  : 
; 736  : 	// Scale for closure
; 737  : 	rmax *= (1500.0F + vt + targetVt*(float)cos(ataFrom)) / 1500.0F;

	movss	xmm0, DWORD PTR __real@44bb8000
	addss	xmm0, DWORD PTR _vt$[ebp]
	push	ecx
	movss	xmm1, DWORD PTR _ataFrom$[ebp]
	movss	DWORD PTR [esp], xmm1
	movss	DWORD PTR tv214[ebp], xmm0
	call	?cos@@YAMM@Z				; cos
	add	esp, 4
	fstp	DWORD PTR tv208[ebp]
	movss	xmm0, DWORD PTR tv208[ebp]
	mulss	xmm0, DWORD PTR _targetVt$[ebp]
	movss	xmm1, DWORD PTR tv214[ebp]
	addss	xmm1, xmm0
	divss	xmm1, DWORD PTR __real@44bb8000
	mulss	xmm1, DWORD PTR _rmax$[ebp]
	movss	DWORD PTR _rmax$[ebp], xmm1

; 738  : 
; 739  : 	// Scale for ataFrom
; 740  : //	rmax *= (cos(ataFrom) + 1.5F) / 2.5F;
; 741  : 
; 742  : 	return (rmax);

	fld	DWORD PTR _rmax$[ebp]
$LN6@GetRMax:

; 743  : }

	mov	esp, ebp
	pop	ebp
	ret	20					; 00000014H
?GetRMax@MissileClass@@QAEMMMMMM@Z ENDP			; MissileClass::GetRMax
_TEXT	ENDS
; Function compile flags: /Odtp
; File c:\users\zhitao li\documents\visual studio 2012\projects\freefalcon\sim\missile\missmain.cpp
_TEXT	SEGMENT
_this$ = -20						; size = 4
_newPos$ = -16						; size = 12
__$ArrayPad$ = -4					; size = 4
?UpdatePosition@MissileClass@@QAEXXZ PROC		; MissileClass::UpdatePosition
; _this$ = ecx

; 850  : {

	push	ebp
	mov	ebp, esp
	sub	esp, 20					; 00000014H
	mov	eax, DWORD PTR ___security_cookie
	xor	eax, ebp
	mov	DWORD PTR __$ArrayPad$[ebp], eax
	mov	DWORD PTR _this$[ebp], ecx

; 851  : Tpoint newPos;
; 852  : 
; 853  : 	if (!ifd)

	mov	eax, DWORD PTR _this$[ebp]
	cmp	DWORD PTR [eax+988], 0
	jne	SHORT $LN1@UpdatePosi

; 854  : 		return; // JB 010803

	jmp	$LN2@UpdatePosi
$LN1@UpdatePosi:

; 855  : 
; 856  :    drawPointer->GetPosition(&newPos);

	lea	ecx, DWORD PTR _newPos$[ebp]
	push	ecx
	mov	edx, DWORD PTR _this$[ebp]
	mov	ecx, DWORD PTR [edx+332]
	call	?GetPosition@DrawableObject@@QAEXPAUTpoint@@@Z ; DrawableObject::GetPosition

; 857  :    ifd->oldx[0] = newPos.x;

	mov	eax, DWORD PTR _this$[ebp]
	mov	ecx, DWORD PTR [eax+988]
	mov	edx, 4
	imul	edx, 0
	movss	xmm0, DWORD PTR _newPos$[ebp]
	movss	DWORD PTR [ecx+edx+352], xmm0

; 858  :    ifd->oldx[1] = newPos.x;

	mov	eax, DWORD PTR _this$[ebp]
	mov	ecx, DWORD PTR [eax+988]
	mov	edx, 4
	shl	edx, 0
	movss	xmm0, DWORD PTR _newPos$[ebp]
	movss	DWORD PTR [ecx+edx+352], xmm0

; 859  :    ifd->oldx[2] = 0.0;

	mov	eax, DWORD PTR _this$[ebp]
	mov	ecx, DWORD PTR [eax+988]
	mov	edx, 4
	shl	edx, 1
	movss	xmm0, DWORD PTR __real@00000000
	movss	DWORD PTR [ecx+edx+352], xmm0

; 860  :    ifd->oldx[3] = 0.0;

	mov	eax, DWORD PTR _this$[ebp]
	mov	ecx, DWORD PTR [eax+988]
	mov	edx, 4
	imul	edx, 3
	movss	xmm0, DWORD PTR __real@00000000
	movss	DWORD PTR [ecx+edx+352], xmm0

; 861  : 
; 862  :    ifd->oldy[0] = newPos.y;

	mov	eax, DWORD PTR _this$[ebp]
	mov	ecx, DWORD PTR [eax+988]
	mov	edx, 4
	imul	edx, 0
	movss	xmm0, DWORD PTR _newPos$[ebp+4]
	movss	DWORD PTR [ecx+edx+376], xmm0

; 863  :    ifd->oldy[1] = newPos.y;

	mov	eax, DWORD PTR _this$[ebp]
	mov	ecx, DWORD PTR [eax+988]
	mov	edx, 4
	shl	edx, 0
	movss	xmm0, DWORD PTR _newPos$[ebp+4]
	movss	DWORD PTR [ecx+edx+376], xmm0

; 864  :    ifd->oldy[2] = 0.0;

	mov	eax, DWORD PTR _this$[ebp]
	mov	ecx, DWORD PTR [eax+988]
	mov	edx, 4
	shl	edx, 1
	movss	xmm0, DWORD PTR __real@00000000
	movss	DWORD PTR [ecx+edx+376], xmm0

; 865  :    ifd->oldy[3] = 0.0;

	mov	eax, DWORD PTR _this$[ebp]
	mov	ecx, DWORD PTR [eax+988]
	mov	edx, 4
	imul	edx, 3
	movss	xmm0, DWORD PTR __real@00000000
	movss	DWORD PTR [ecx+edx+376], xmm0

; 866  : 
; 867  :    ifd->oldz[0] = newPos.z;

	mov	eax, DWORD PTR _this$[ebp]
	mov	ecx, DWORD PTR [eax+988]
	mov	edx, 4
	imul	edx, 0
	movss	xmm0, DWORD PTR _newPos$[ebp+8]
	movss	DWORD PTR [ecx+edx+400], xmm0

; 868  :    ifd->oldz[1] = newPos.z;

	mov	eax, DWORD PTR _this$[ebp]
	mov	ecx, DWORD PTR [eax+988]
	mov	edx, 4
	shl	edx, 0
	movss	xmm0, DWORD PTR _newPos$[ebp+8]
	movss	DWORD PTR [ecx+edx+400], xmm0

; 869  :    ifd->oldz[2] = 0.0;

	mov	eax, DWORD PTR _this$[ebp]
	mov	ecx, DWORD PTR [eax+988]
	mov	edx, 4
	shl	edx, 1
	movss	xmm0, DWORD PTR __real@00000000
	movss	DWORD PTR [ecx+edx+400], xmm0

; 870  :    ifd->oldz[3] = 0.0;

	mov	eax, DWORD PTR _this$[ebp]
	mov	ecx, DWORD PTR [eax+988]
	mov	edx, 4
	imul	edx, 3
	movss	xmm0, DWORD PTR __real@00000000
	movss	DWORD PTR [ecx+edx+400], xmm0
$LN2@UpdatePosi:

; 871  : }

	mov	ecx, DWORD PTR __$ArrayPad$[ebp]
	xor	ecx, ebp
	call	@__security_check_cookie@4
	mov	esp, ebp
	pop	ebp
	ret	0
?UpdatePosition@MissileClass@@QAEXXZ ENDP		; MissileClass::UpdatePosition
_TEXT	ENDS
; Function compile flags: /Odtp
; File c:\users\zhitao li\documents\visual studio 2012\projects\freefalcon\sim\missile\missmain.cpp
_TEXT	SEGMENT
_this$ = -4						; size = 4
_az$ = 8						; size = 4
_el$ = 12						; size = 4
?GetSeekerPos@MissileClass@@QAEXPAM0@Z PROC		; MissileClass::GetSeekerPos
; _this$ = ecx

; 836  : {

	push	ebp
	mov	ebp, esp
	push	ecx
	mov	DWORD PTR _this$[ebp], ecx

; 837  :    if (sensorArray)

	mov	eax, DWORD PTR _this$[ebp]
	cmp	DWORD PTR [eax+648], 0
	je	SHORT $LN2@GetSeekerP

; 838  :    {
; 839  : 		*az = sensorArray[0]->SeekerAz();

	mov	ecx, 4
	imul	ecx, 0
	mov	edx, DWORD PTR _this$[ebp]
	mov	eax, DWORD PTR [edx+648]
	mov	ecx, DWORD PTR [eax+ecx]
	call	?SeekerAz@SensorClass@@QAEMXZ		; SensorClass::SeekerAz
	mov	ecx, DWORD PTR _az$[ebp]
	fstp	DWORD PTR [ecx]

; 840  : 		*el = sensorArray[0]->SeekerEl();

	mov	edx, 4
	imul	edx, 0
	mov	eax, DWORD PTR _this$[ebp]
	mov	ecx, DWORD PTR [eax+648]
	mov	ecx, DWORD PTR [ecx+edx]
	call	?SeekerEl@SensorClass@@QAEMXZ		; SensorClass::SeekerEl
	mov	edx, DWORD PTR _el$[ebp]
	fstp	DWORD PTR [edx]

; 841  :    }
; 842  :    else

	jmp	SHORT $LN1@GetSeekerP
$LN2@GetSeekerP:

; 843  :    {
; 844  :       *az = 0.0F;

	mov	eax, DWORD PTR _az$[ebp]
	movss	xmm0, DWORD PTR __real@00000000
	movss	DWORD PTR [eax], xmm0

; 845  :       *el = 0.0F;

	mov	ecx, DWORD PTR _el$[ebp]
	movss	xmm0, DWORD PTR __real@00000000
	movss	DWORD PTR [ecx], xmm0
$LN1@GetSeekerP:

; 846  :    }
; 847  : }

	mov	esp, ebp
	pop	ebp
	ret	8
?GetSeekerPos@MissileClass@@QAEXPAM0@Z ENDP		; MissileClass::GetSeekerPos
_TEXT	ENDS
; Function compile flags: /Odtp
; File c:\users\zhitao li\documents\visual studio 2012\projects\freefalcon\sim\missile\missmain.cpp
_TEXT	SEGMENT
tv268 = -16						; size = 4
tv258 = -12						; size = 4
_isLimited$ = -8					; size = 4
_this$ = -4						; size = 4
_az$ = 8						; size = 4
_el$ = 12						; size = 4
?SetSeekerPos@MissileClass@@QAEHPAM0@Z PROC		; MissileClass::SetSeekerPos
; _this$ = ecx

; 797  : {

	push	ebp
	mov	ebp, esp
	sub	esp, 16					; 00000010H
	push	esi
	mov	DWORD PTR _this$[ebp], ecx

; 798  : 	int isLimited = FALSE;

	mov	DWORD PTR _isLimited$[ebp], 0

; 799  : 	
; 800  : 	
; 801  : 	ShiAssert( parent->IsSim() );	// SCR 9/22/98:  I think this is only called on behalf of the player.
; 802  : 	ShiAssert( parent );			// A missile should always have a parent
; 803  : //	if (parent && parent->IsSim() )
; 804  : //	{
; 805  : 		memcpy (dmx, ((SimBaseClass*)parent.get())->dmx, sizeof (TransformMatrix));

	push	36					; 00000024H
	mov	ecx, DWORD PTR _this$[ebp]
	add	ecx, 688				; 000002b0H
	call	?get@?$VuBin@VFalconEntity@@@@QBEPAVFalconEntity@@XZ ; VuBin<FalconEntity>::get
	add	eax, 296				; 00000128H
	push	eax
	mov	eax, DWORD PTR _this$[ebp]
	add	eax, 296				; 00000128H
	push	eax
	call	_memcpy
	add	esp, 12					; 0000000cH

; 806  : //	}
; 807  : 	
; 808  : 	ShiAssert( sensorArray );	// SCR 10/9/98:  Who's calling this on a missile with no seeker???
; 809  : 	if(sensorArray == NULL) {	// VWF I'm hoping that this will help.

	mov	ecx, DWORD PTR _this$[ebp]
	cmp	DWORD PTR [ecx+648], 0
	jne	SHORT $LN5@SetSeekerP

; 810  : 		return FALSE;

	xor	eax, eax
	jmp	$LN1@SetSeekerP
$LN5@SetSeekerP:

; 811  : 	}
; 812  : 	
; 813  : 	sensorArray[0]->SetSeekerPos (*az, *el);

	mov	edx, DWORD PTR _el$[ebp]
	push	ecx
	movss	xmm0, DWORD PTR [edx]
	movss	DWORD PTR [esp], xmm0
	mov	eax, DWORD PTR _az$[ebp]
	push	ecx
	movss	xmm0, DWORD PTR [eax]
	movss	DWORD PTR [esp], xmm0
	mov	ecx, 4
	imul	ecx, 0
	mov	edx, DWORD PTR _this$[ebp]
	mov	eax, DWORD PTR [edx+648]
	mov	ecx, DWORD PTR [ecx+eax]
	mov	edx, 4
	imul	edx, 0
	mov	eax, DWORD PTR _this$[ebp]
	mov	eax, DWORD PTR [eax+648]
	mov	esi, DWORD PTR [ecx]
	mov	ecx, DWORD PTR [edx+eax]
	mov	edx, DWORD PTR [esi+56]
	call	edx

; 814  : 	LimitSeeker(*az,*el);

	mov	eax, DWORD PTR _el$[ebp]
	push	ecx
	movss	xmm0, DWORD PTR [eax]
	movss	DWORD PTR [esp], xmm0
	mov	ecx, DWORD PTR _az$[ebp]
	push	ecx
	movss	xmm0, DWORD PTR [ecx]
	movss	DWORD PTR [esp], xmm0
	mov	ecx, DWORD PTR _this$[ebp]
	call	?LimitSeeker@MissileClass@@AAEXMM@Z	; MissileClass::LimitSeeker

; 815  : 	*az = sensorArray[0]->SeekerAz();

	mov	edx, 4
	imul	edx, 0
	mov	eax, DWORD PTR _this$[ebp]
	mov	ecx, DWORD PTR [eax+648]
	mov	ecx, DWORD PTR [ecx+edx]
	call	?SeekerAz@SensorClass@@QAEMXZ		; SensorClass::SeekerAz
	mov	edx, DWORD PTR _az$[ebp]
	fstp	DWORD PTR [edx]

; 816  : 	*el = sensorArray[0]->SeekerEl();

	mov	eax, 4
	imul	eax, 0
	mov	ecx, DWORD PTR _this$[ebp]
	mov	edx, DWORD PTR [ecx+648]
	mov	ecx, DWORD PTR [edx+eax]
	call	?SeekerEl@SensorClass@@QAEMXZ		; SensorClass::SeekerEl
	mov	eax, DWORD PTR _el$[ebp]
	fstp	DWORD PTR [eax]

; 817  : 	if (fabs(*az) == inputData->gimlim ||
; 818  : 		fabs(*el) == inputData->gimlim)

	mov	ecx, DWORD PTR _az$[ebp]
	push	ecx
	movss	xmm0, DWORD PTR [ecx]
	movss	DWORD PTR [esp], xmm0
	call	?fabs@@YAMM@Z				; fabs
	add	esp, 4
	fstp	DWORD PTR tv258[ebp]
	movss	xmm0, DWORD PTR tv258[ebp]
	mov	edx, DWORD PTR _this$[ebp]
	mov	eax, DWORD PTR [edx+848]
	ucomiss	xmm0, DWORD PTR [eax+52]
	lahf
	test	ah, 68					; 00000044H
	jnp	SHORT $LN3@SetSeekerP
	mov	ecx, DWORD PTR _el$[ebp]
	push	ecx
	movss	xmm0, DWORD PTR [ecx]
	movss	DWORD PTR [esp], xmm0
	call	?fabs@@YAMM@Z				; fabs
	add	esp, 4
	fstp	DWORD PTR tv268[ebp]
	movss	xmm0, DWORD PTR tv268[ebp]
	mov	edx, DWORD PTR _this$[ebp]
	mov	eax, DWORD PTR [edx+848]
	ucomiss	xmm0, DWORD PTR [eax+52]
	lahf
	test	ah, 68					; 00000044H
	jp	$LN4@SetSeekerP
$LN3@SetSeekerP:

; 819  : 	{
; 820  : 		sensorArray[0]->SetSeekerPos (*az, *el);

	mov	ecx, DWORD PTR _el$[ebp]
	push	ecx
	movss	xmm0, DWORD PTR [ecx]
	movss	DWORD PTR [esp], xmm0
	mov	edx, DWORD PTR _az$[ebp]
	push	ecx
	movss	xmm0, DWORD PTR [edx]
	movss	DWORD PTR [esp], xmm0
	mov	eax, 4
	imul	eax, 0
	mov	ecx, DWORD PTR _this$[ebp]
	mov	edx, DWORD PTR [ecx+648]
	mov	eax, DWORD PTR [eax+edx]
	mov	ecx, 4
	imul	ecx, 0
	mov	edx, DWORD PTR _this$[ebp]
	mov	edx, DWORD PTR [edx+648]
	mov	eax, DWORD PTR [eax]
	mov	ecx, DWORD PTR [ecx+edx]
	mov	edx, DWORD PTR [eax+56]
	call	edx

; 821  : 		isLimited = TRUE;

	mov	DWORD PTR _isLimited$[ebp], 1

; 822  : 		if (inputData->displayType != DisplayHTS && display)

	mov	eax, DWORD PTR _this$[ebp]
	mov	ecx, DWORD PTR [eax+848]
	cmp	DWORD PTR [ecx+96], 4
	je	SHORT $LN2@SetSeekerP
	mov	edx, DWORD PTR _this$[ebp]
	cmp	DWORD PTR [edx+712], 0
	je	SHORT $LN2@SetSeekerP

; 823  : 		{
; 824  : 			((MaverickDisplayClass*)display)->SetSeekerPos(*az/inputData->gimlim,
; 825  : 				*el/inputData->gimlim);

	mov	eax, DWORD PTR _this$[ebp]
	mov	ecx, DWORD PTR [eax+848]
	mov	edx, DWORD PTR _el$[ebp]
	movss	xmm0, DWORD PTR [edx]
	divss	xmm0, DWORD PTR [ecx+52]
	push	ecx
	movss	DWORD PTR [esp], xmm0
	mov	eax, DWORD PTR _this$[ebp]
	mov	ecx, DWORD PTR [eax+848]
	mov	edx, DWORD PTR _az$[ebp]
	movss	xmm0, DWORD PTR [edx]
	divss	xmm0, DWORD PTR [ecx+52]
	push	ecx
	movss	DWORD PTR [esp], xmm0
	mov	eax, DWORD PTR _this$[ebp]
	mov	ecx, DWORD PTR [eax+712]
	call	?SetSeekerPos@MaverickDisplayClass@@QAEXMM@Z ; MaverickDisplayClass::SetSeekerPos
$LN2@SetSeekerP:

; 826  : 		}
; 827  : 		return isLimited;

	mov	eax, DWORD PTR _isLimited$[ebp]
	jmp	SHORT $LN1@SetSeekerP

; 828  : 	}
; 829  : 	else

	jmp	SHORT $LN1@SetSeekerP
$LN4@SetSeekerP:

; 830  : 	{
; 831  : 		return FALSE;

	xor	eax, eax
$LN1@SetSeekerP:

; 832  : 	}
; 833  : }

	pop	esi
	mov	esp, ebp
	pop	ebp
	ret	8
?SetSeekerPos@MissileClass@@QAEHPAM0@Z ENDP		; MissileClass::SetSeekerPos
_TEXT	ENDS
; Function compile flags: /Odtp
; File c:\users\zhitao li\documents\visual studio 2012\projects\freefalcon\sim\missile\missmain.cpp
_TEXT	SEGMENT
_this$ = -4						; size = 4
?ClearReferences@MissileClass@@QAEXXZ PROC		; MissileClass::ClearReferences
; _this$ = ecx

; 932  : {

	push	ebp
	mov	ebp, esp
	push	ecx
	mov	DWORD PTR _this$[ebp], ecx

; 933  : 	if (sensorArray && sensorArray[0] && sensorArray[0]->Type() == SensorClass::RadarHoming){

	mov	eax, DWORD PTR _this$[ebp]
	cmp	DWORD PTR [eax+648], 0
	je	SHORT $LN2@ClearRefer
	mov	ecx, 4
	imul	ecx, 0
	mov	edx, DWORD PTR _this$[ebp]
	mov	eax, DWORD PTR [edx+648]
	cmp	DWORD PTR [ecx+eax], 0
	je	SHORT $LN2@ClearRefer
	mov	ecx, 4
	imul	ecx, 0
	mov	edx, DWORD PTR _this$[ebp]
	mov	eax, DWORD PTR [edx+648]
	mov	ecx, DWORD PTR [eax+ecx]
	call	?Type@SensorClass@@QAE?AW4SensorType@1@XZ ; SensorClass::Type
	cmp	eax, 6
	jne	SHORT $LN2@ClearRefer

; 934  :       ((BeamRiderClass*)sensorArray[0])->SetGuidancePlatform(NULL);

	push	0
	mov	ecx, 4
	imul	ecx, 0
	mov	edx, DWORD PTR _this$[ebp]
	mov	eax, DWORD PTR [edx+648]
	mov	ecx, DWORD PTR [eax+ecx]
	call	?SetGuidancePlatform@BeamRiderClass@@QAEXPAVFalconEntity@@@Z ; BeamRiderClass::SetGuidancePlatform
$LN2@ClearRefer:

; 935  : 	}
; 936  : }

	mov	esp, ebp
	pop	ebp
	ret	0
?ClearReferences@MissileClass@@QAEXXZ ENDP		; MissileClass::ClearReferences
_TEXT	ENDS
; Function compile flags: /Odtp
; File c:\users\zhitao li\documents\visual studio 2012\projects\freefalcon\sim\missile\missmain.cpp
_TEXT	SEGMENT
tv179 = -44						; size = 4
$T2 = -40						; size = 4
$T3 = -36						; size = 4
tv72 = -32						; size = 4
$T4 = -28						; size = 4
$T5 = -24						; size = 4
_this$ = -20						; size = 4
_hasref$ = -13						; size = 1
__$EHRec$ = -12						; size = 12
_tgt$ = 8						; size = 4
?Start@MissileClass@@QAEXPAVSimObjectType@@@Z PROC	; MissileClass::Start
; _this$ = ecx

; 383  : {

	push	ebp
	mov	ebp, esp
	push	-1
	push	__ehhandler$?Start@MissileClass@@QAEXPAVSimObjectType@@@Z
	mov	eax, DWORD PTR fs:0
	push	eax
	sub	esp, 32					; 00000020H
	mov	eax, DWORD PTR ___security_cookie
	xor	eax, ebp
	push	eax
	lea	eax, DWORD PTR __$EHRec$[ebp]
	mov	DWORD PTR fs:0, eax
	mov	DWORD PTR _this$[ebp], ecx

; 384  :    // Make sure we have initialized the missile rotation properly
; 385  :    F4Assert (initAz < 10.0F);
; 386  :    F4Assert (initAz > -10.0F);
; 387  :    F4Assert (initEl < 10.0F);
; 388  :    F4Assert (initEl > -10.0F);
; 389  : 
; 390  :    // alloc the in flight data
; 391  :    ifd = new MissileInFlightData;

	push	896					; 00000380H
	call	??2@YAPAXI@Z				; operator new
	add	esp, 4
	mov	DWORD PTR $T4[ebp], eax
	mov	DWORD PTR __$EHRec$[ebp+8], 0
	cmp	DWORD PTR $T4[ebp], 0
	je	SHORT $LN10@Start
	mov	ecx, DWORD PTR $T4[ebp]
	call	??0MissileInFlightData@@QAE@XZ		; MissileInFlightData::MissileInFlightData
	mov	DWORD PTR tv72[ebp], eax
	jmp	SHORT $LN11@Start
$LN10@Start:
	mov	DWORD PTR tv72[ebp], 0
$LN11@Start:
	mov	eax, DWORD PTR tv72[ebp]
	mov	DWORD PTR $T3[ebp], eax
	mov	DWORD PTR __$EHRec$[ebp+8], -1
	mov	ecx, DWORD PTR _this$[ebp]
	mov	edx, DWORD PTR $T3[ebp]
	mov	DWORD PTR [ecx+988], edx

; 392  : 
; 393  :    Init1();

	mov	ecx, DWORD PTR _this$[ebp]
	call	?Init1@MissileClass@@AAEXXZ		; MissileClass::Init1

; 394  :    CommandGuide();

	mov	ecx, DWORD PTR _this$[ebp]
	call	?CommandGuide@MissileClass@@AAEXXZ	; MissileClass::CommandGuide

; 395  : 
; 396  :    // At this point, we need to make a copy of our target data - Since we need to start
; 397  :    // Using relative geometry between us and the target - so force a target drop and
; 398  :    // retarget now that we're 'Launching'
; 399  : 
; 400  :    // edg NOTE: fucking with the order we set launch state and targeting
; 401  :    // could have deleterious effects on reference counting!  We want to
; 402  :    // DropTarget BEFORE we change state to Launching.  The launch state
; 403  :    // effects how SimObjs are constructed and referenced for targeting!
; 404  :    // In a Prelaunch state the missile's target has no reference.  When
; 405  :    // on rail or in flight the target is COPIED in SetTarget and ref'd.
; 406  : 
; 407  :    // If the missile is boresight, it gets to ignore the passed in target and keep its own
; 408  :    // Marco Edit - actually - if it's boresighted or uncaged
; 409  : 	 bool hasref = false; // JB 020109 CTD fix. Engage in safe referencing.  Shooting a breathing but unlocked Mav caused a CTD because DropTarget would delete the object that was later used.

	mov	BYTE PTR _hasref$[ebp], 0

; 410  :    if (!isSlave || !isCaged || tgt == NULL)// && sensorArray[0]->Type() == SensorClass::IRST) //me123 make sure only ir's are unchaged for now

	mov	eax, DWORD PTR _this$[ebp]
	cmp	DWORD PTR [eax+736], 0
	je	SHORT $LN6@Start
	mov	ecx, DWORD PTR _this$[ebp]
	cmp	DWORD PTR [ecx+728], 0
	je	SHORT $LN6@Start
	cmp	DWORD PTR _tgt$[ebp], 0
	jne	SHORT $LN7@Start
$LN6@Start:

; 411  :    {
; 412  : 		tgt = targetPtr;

	mov	edx, DWORD PTR _this$[ebp]
	mov	eax, DWORD PTR [edx+656]
	mov	DWORD PTR _tgt$[ebp], eax

; 413  : 		if (tgt)

	cmp	DWORD PTR _tgt$[ebp], 0
	je	SHORT $LN7@Start

; 414  : 		{
; 415  : 			tgt->Reference(  );

	mov	ecx, DWORD PTR _tgt$[ebp]
	call	?Reference@SimObjectType@@QAEXXZ	; SimObjectType::Reference

; 416  : 			hasref = true;

	mov	BYTE PTR _hasref$[ebp], 1
$LN7@Start:

; 417  : 		}
; 418  :    }
; 419  : 
; 420  :    DropTarget();

	mov	ecx, DWORD PTR _this$[ebp]
	call	?DropTarget@MissileClass@@QAEXXZ	; MissileClass::DropTarget

; 421  :    launchState = Launching;

	mov	ecx, DWORD PTR _this$[ebp]
	mov	DWORD PTR [ecx+724], 1

; 422  :    SetTarget(tgt);

	mov	edx, DWORD PTR _tgt$[ebp]
	push	edx
	mov	ecx, DWORD PTR _this$[ebp]
	call	?SetTarget@MissileClass@@QAEXPAVSimObjectType@@@Z ; MissileClass::SetTarget

; 423  : 
; 424  : 	 if (hasref)

	movzx	eax, BYTE PTR _hasref$[ebp]
	test	eax, eax
	je	SHORT $LN4@Start

; 425  : 		tgt->Release(  );

	mov	ecx, DWORD PTR _tgt$[ebp]
	call	?Release@SimObjectType@@QAEXXZ		; SimObjectType::Release
$LN4@Start:

; 426  : 
; 427  : // 2001-03-02 ADDED BY S.G. SO A LAUNCH IS DETECTED AT LAUNCH FOR SARH MISSILE!
; 428  :    if (targetPtr) {

	mov	ecx, DWORD PTR _this$[ebp]
	cmp	DWORD PTR [ecx+656], 0
	je	SHORT $LN3@Start

; 429  : 	   if (GetSeekerType() == SensorClass::RadarHoming && sensorArray)

	mov	ecx, DWORD PTR _this$[ebp]
	call	?GetSeekerType@MissileClass@@QAEHXZ	; MissileClass::GetSeekerType
	cmp	eax, 6
	jne	SHORT $LN3@Start
	mov	edx, DWORD PTR _this$[ebp]
	cmp	DWORD PTR [edx+648], 0
	je	SHORT $LN3@Start

; 430  : 		   ((BeamRiderClass *)sensorArray[0])->SendTrackMsg( targetPtr, Track_Launch );

	push	0
	push	5
	mov	eax, DWORD PTR _this$[ebp]
	mov	ecx, DWORD PTR [eax+656]
	push	ecx
	mov	edx, 4
	imul	edx, 0
	mov	eax, DWORD PTR _this$[ebp]
	mov	ecx, DWORD PTR [eax+648]
	mov	ecx, DWORD PTR [ecx+edx]
	call	?SendTrackMsg@BeamRiderClass@@QAEXPAVSimObjectType@@II@Z ; BeamRiderClass::SendTrackMsg
$LN3@Start:

; 431  :    }
; 432  : // END OF ADDED SECTION
; 433  : 
; 434  :    /*
; 435  :    if ( targetPtr )
; 436  :    {
; 437  : 	   targetX = targetPtr->BaseData()->XPos();
; 438  : 	   targetY = targetPtr->BaseData()->YPos();
; 439  : 	   targetZ = targetPtr->BaseData()->ZPos();
; 440  :    }
; 441  :    */
; 442  : 
; 443  :    /*
; 444  : #ifndef MISSILE_TEST_PROG
; 445  :    if (tgt)
; 446  :       MonoPrint ("Missile %d Launch at %8ld %4d -> %4d\n", Id().num_,SimLibElapsedTime, parent->Id().num_, targetPtr->BaseData()->Id().num_);
; 447  :    else
; 448  :       MonoPrint ("Missile %d Launch at %8ld %4d -> No Target\n", Id().num_,SimLibElapsedTime, parent->Id().num_);
; 449  : #endif
; 450  :       */
; 451  : 
; 452  :    if (inputData->displayType != DisplayHTS && display)

	mov	edx, DWORD PTR _this$[ebp]
	mov	eax, DWORD PTR [edx+848]
	cmp	DWORD PTR [eax+96], 4
	je	SHORT $LN8@Start
	mov	ecx, DWORD PTR _this$[ebp]
	cmp	DWORD PTR [ecx+712], 0
	je	SHORT $LN8@Start

; 453  :    {
; 454  :       display->DisplayExit();

	mov	edx, DWORD PTR _this$[ebp]
	mov	eax, DWORD PTR [edx+712]
	mov	ecx, DWORD PTR _this$[ebp]
	mov	edx, DWORD PTR [eax]
	mov	ecx, DWORD PTR [ecx+712]
	mov	eax, DWORD PTR [edx+12]
	call	eax

; 455  :       delete display;

	mov	ecx, DWORD PTR _this$[ebp]
	mov	edx, DWORD PTR [ecx+712]
	mov	DWORD PTR $T2[ebp], edx
	mov	eax, DWORD PTR $T2[ebp]
	mov	DWORD PTR $T5[ebp], eax
	cmp	DWORD PTR $T5[ebp], 0
	je	SHORT $LN12@Start
	push	1
	mov	ecx, DWORD PTR $T5[ebp]
	mov	edx, DWORD PTR [ecx]
	mov	ecx, DWORD PTR $T5[ebp]
	mov	eax, DWORD PTR [edx]
	call	eax
	mov	DWORD PTR tv179[ebp], eax
	jmp	SHORT $LN13@Start
$LN12@Start:
	mov	DWORD PTR tv179[ebp], 0
$LN13@Start:

; 456  :       display = NULL;

	mov	ecx, DWORD PTR _this$[ebp]
	mov	DWORD PTR [ecx+712], 0
$LN8@Start:

; 457  :    }
; 458  : /*
; 459  :    if (targetPtr)
; 460  : 	   MonoPrint ("Missile launched at %d\n", targetPtr->BaseData()->Id().num_);
; 461  :    else
; 462  : 	   MonoPrint ("Missile launched at nothing\n");
; 463  : */
; 464  : }

	mov	ecx, DWORD PTR __$EHRec$[ebp]
	mov	DWORD PTR fs:0, ecx
	pop	ecx
	mov	esp, ebp
	pop	ebp
	ret	4
_TEXT	ENDS
text$x	SEGMENT
__unwindfunclet$?Start@MissileClass@@QAEXPAVSimObjectType@@@Z$0:
	mov	eax, DWORD PTR $T4[ebp]
	push	eax
	call	??3@YAXPAX@Z				; operator delete
	pop	ecx
	ret	0
__ehhandler$?Start@MissileClass@@QAEXPAVSimObjectType@@@Z:
	mov	edx, DWORD PTR [esp+8]
	lea	eax, DWORD PTR [edx+12]
	mov	ecx, DWORD PTR [edx-36]
	xor	ecx, eax
	call	@__security_check_cookie@4
	mov	eax, OFFSET __ehfuncinfo$?Start@MissileClass@@QAEXPAVSimObjectType@@@Z
	jmp	___CxxFrameHandler3
text$x	ENDS
?Start@MissileClass@@QAEXPAVSimObjectType@@@Z ENDP	; MissileClass::Start
; Function compile flags: /Odtp
; File c:\users\zhitao li\documents\visual studio 2012\projects\freefalcon\sim\missile\missmain.cpp
_TEXT	SEGMENT
_this$ = -4						; size = 4
_vmat$ = 8						; size = 4
?GetTransform@MissileClass@@UAEXQAY02M@Z PROC		; MissileClass::GetTransform
; _this$ = ecx

; 792  : {

	push	ebp
	mov	ebp, esp
	push	ecx
	mov	DWORD PTR _this$[ebp], ecx

; 793  :    memcpy (vmat, dmx, sizeof (TransformMatrix));

	push	36					; 00000024H
	mov	eax, DWORD PTR _this$[ebp]
	add	eax, 296				; 00000128H
	push	eax
	mov	ecx, DWORD PTR _vmat$[ebp]
	push	ecx
	call	_memcpy
	add	esp, 12					; 0000000cH

; 794  : }

	mov	esp, ebp
	pop	ebp
	ret	4
?GetTransform@MissileClass@@UAEXQAY02M@Z ENDP		; MissileClass::GetTransform
_TEXT	ENDS
; Function compile flags: /Odtp
; File c:\users\zhitao li\documents\visual studio 2012\projects\freefalcon\sim\missile\missmain.cpp
_TEXT	SEGMENT
$T2 = -124						; size = 8
$T3 = -116						; size = 8
$T4 = -108						; size = 8
$T5 = -100						; size = 8
tv885 = -92						; size = 8
tv831 = -84						; size = 8
tv998 = -76						; size = 4
$T6 = -72						; size = 4
tv871 = -68						; size = 4
tv588 = -64						; size = 4
$T7 = -60						; size = 4
_MissileActiveTime$8 = -56				; size = 4
tv534 = -52						; size = 4
tv514 = -48						; size = 4
tv881 = -44						; size = 4
tv827 = -40						; size = 4
_LastMissileImpactTime$9 = -36				; size = 4
_theFCC$10 = -32					; size = 4
_i$ = -28						; size = 4
_pa$11 = -24						; size = 4
_radioMessage$12 = -20					; size = 4
_this$ = -16						; size = 4
__$EHRec$ = -12						; size = 12
?Exec@MissileClass@@UAEHXZ PROC				; MissileClass::Exec
; _this$ = ecx

; 468  : {

	push	ebp
	mov	ebp, esp
	push	-1
	push	__ehhandler$?Exec@MissileClass@@UAEHXZ
	mov	eax, DWORD PTR fs:0
	push	eax
	sub	esp, 112				; 00000070H
	mov	eax, DWORD PTR ___security_cookie
	xor	eax, ebp
	push	eax
	lea	eax, DWORD PTR __$EHRec$[ebp]
	mov	DWORD PTR fs:0, eax
	mov	DWORD PTR _this$[ebp], ecx

; 469  : 	int i;
; 470  : 	if (IsDead()){

	mov	eax, DWORD PTR _this$[ebp]
	mov	edx, DWORD PTR [eax]
	mov	ecx, DWORD PTR _this$[ebp]
	mov	eax, DWORD PTR [edx+340]
	call	eax
	test	eax, eax
	je	SHORT $LN32@Exec

; 471  : 		return TRUE;

	mov	eax, 1
	jmp	$LN33@Exec
$LN32@Exec:

; 472  : 	}
; 473  : 
; 474  : #ifdef MLR_NEWSNDCODE
; 475  : 	SoundPos.UpdatePos(this);

	mov	ecx, DWORD PTR _this$[ebp]
	push	ecx
	mov	ecx, DWORD PTR _this$[ebp]
	add	ecx, 444				; 000001bcH
