; Listing generated by Microsoft (R) Optimizing Compiler Version 17.00.51106.1 

	TITLE	C:\Users\Zhitao Li\Documents\Visual Studio 2012\Projects\Freefalcon\SIM\SIMDRIVE\Simdrive.cpp
	.686P
	.XMM
	include listing.inc
	.model	flat

INCLUDELIB LIBCMT
INCLUDELIB OLDNAMES

PUBLIC	?round_style@_Num_base@std@@2W4float_round_style@2@B ; std::_Num_base::round_style
PUBLIC	?CMPDIRTYDATA_INTERVAL@FalconEntity@@2KB	; FalconEntity::CMPDIRTYDATA_INTERVAL
PUBLIC	?digits@_Num_base@std@@2HB			; std::_Num_base::digits
PUBLIC	?digits10@_Num_base@std@@2HB			; std::_Num_base::digits10
PUBLIC	?max_digits10@_Num_base@std@@2HB		; std::_Num_base::max_digits10
PUBLIC	?max_exponent@_Num_base@std@@2HB		; std::_Num_base::max_exponent
PUBLIC	?max_exponent10@_Num_base@std@@2HB		; std::_Num_base::max_exponent10
PUBLIC	?min_exponent@_Num_base@std@@2HB		; std::_Num_base::min_exponent
PUBLIC	?min_exponent10@_Num_base@std@@2HB		; std::_Num_base::min_exponent10
PUBLIC	?radix@_Num_base@std@@2HB			; std::_Num_base::radix
PUBLIC	?is_bounded@_Num_int_base@std@@2_NB		; std::_Num_int_base::is_bounded
PUBLIC	?is_exact@_Num_int_base@std@@2_NB		; std::_Num_int_base::is_exact
PUBLIC	?is_integer@_Num_int_base@std@@2_NB		; std::_Num_int_base::is_integer
PUBLIC	?is_modulo@_Num_int_base@std@@2_NB		; std::_Num_int_base::is_modulo
PUBLIC	?is_specialized@_Num_int_base@std@@2_NB		; std::_Num_int_base::is_specialized
PUBLIC	?radix@_Num_int_base@std@@2HB			; std::_Num_int_base::radix
PUBLIC	?has_denorm@_Num_float_base@std@@2W4float_denorm_style@2@B ; std::_Num_float_base::has_denorm
PUBLIC	?has_denorm_loss@_Num_float_base@std@@2_NB	; std::_Num_float_base::has_denorm_loss
PUBLIC	?has_infinity@_Num_float_base@std@@2_NB		; std::_Num_float_base::has_infinity
PUBLIC	?has_quiet_NaN@_Num_float_base@std@@2_NB	; std::_Num_float_base::has_quiet_NaN
PUBLIC	?has_signaling_NaN@_Num_float_base@std@@2_NB	; std::_Num_float_base::has_signaling_NaN
PUBLIC	?is_bounded@_Num_float_base@std@@2_NB		; std::_Num_float_base::is_bounded
PUBLIC	?is_exact@_Num_float_base@std@@2_NB		; std::_Num_float_base::is_exact
PUBLIC	?is_iec559@_Num_float_base@std@@2_NB		; std::_Num_float_base::is_iec559
PUBLIC	?is_integer@_Num_float_base@std@@2_NB		; std::_Num_float_base::is_integer
PUBLIC	?is_modulo@_Num_float_base@std@@2_NB		; std::_Num_float_base::is_modulo
PUBLIC	?is_signed@_Num_float_base@std@@2_NB		; std::_Num_float_base::is_signed
PUBLIC	?is_specialized@_Num_float_base@std@@2_NB	; std::_Num_float_base::is_specialized
PUBLIC	?tinyness_before@_Num_float_base@std@@2_NB	; std::_Num_float_base::tinyness_before
PUBLIC	?traps@_Num_float_base@std@@2_NB		; std::_Num_float_base::traps
PUBLIC	?round_style@_Num_float_base@std@@2W4float_round_style@2@B ; std::_Num_float_base::round_style
PUBLIC	?radix@_Num_float_base@std@@2HB			; std::_Num_float_base::radix
PUBLIC	?is_signed@?$numeric_limits@D@std@@2_NB		; std::numeric_limits<char>::is_signed
PUBLIC	?collate@?$_Locbase@H@std@@2HB			; std::_Locbase<int>::collate
PUBLIC	?ctype@?$_Locbase@H@std@@2HB			; std::_Locbase<int>::ctype
PUBLIC	?digits@?$numeric_limits@D@std@@2HB		; std::numeric_limits<char>::digits
PUBLIC	?monetary@?$_Locbase@H@std@@2HB			; std::_Locbase<int>::monetary
PUBLIC	?digits10@?$numeric_limits@D@std@@2HB		; std::numeric_limits<char>::digits10
PUBLIC	?numeric@?$_Locbase@H@std@@2HB			; std::_Locbase<int>::numeric
PUBLIC	?time@?$_Locbase@H@std@@2HB			; std::_Locbase<int>::time
PUBLIC	?messages@?$_Locbase@H@std@@2HB			; std::_Locbase<int>::messages
PUBLIC	?all@?$_Locbase@H@std@@2HB			; std::_Locbase<int>::all
PUBLIC	?none@?$_Locbase@H@std@@2HB			; std::_Locbase<int>::none
PUBLIC	?is_signed@?$numeric_limits@_W@std@@2_NB	; std::numeric_limits<wchar_t>::is_signed
PUBLIC	?digits@?$numeric_limits@_W@std@@2HB		; std::numeric_limits<wchar_t>::digits
PUBLIC	?digits10@?$numeric_limits@_W@std@@2HB		; std::numeric_limits<wchar_t>::digits10
PUBLIC	?is_modulo@?$numeric_limits@_N@std@@2_NB	; std::numeric_limits<bool>::is_modulo
PUBLIC	?is_signed@?$numeric_limits@_N@std@@2_NB	; std::numeric_limits<bool>::is_signed
PUBLIC	?digits@?$numeric_limits@_N@std@@2HB		; std::numeric_limits<bool>::digits
PUBLIC	?digits10@?$numeric_limits@_N@std@@2HB		; std::numeric_limits<bool>::digits10
PUBLIC	?is_signed@?$numeric_limits@C@std@@2_NB		; std::numeric_limits<signed char>::is_signed
PUBLIC	?digits@?$numeric_limits@C@std@@2HB		; std::numeric_limits<signed char>::digits
PUBLIC	?digits10@?$numeric_limits@C@std@@2HB		; std::numeric_limits<signed char>::digits10
PUBLIC	?table_size@?$ctype@D@std@@2IB			; std::ctype<char>::table_size
PUBLIC	?is_signed@?$numeric_limits@E@std@@2_NB		; std::numeric_limits<unsigned char>::is_signed
PUBLIC	?digits@?$numeric_limits@E@std@@2HB		; std::numeric_limits<unsigned char>::digits
PUBLIC	?digits10@?$numeric_limits@E@std@@2HB		; std::numeric_limits<unsigned char>::digits10
PUBLIC	?value@?$integral_constant@_N$0A@@std@@2_NB	; std::integral_constant<bool,0>::value
PUBLIC	?value@?$integral_constant@_N$00@std@@2_NB	; std::integral_constant<bool,1>::value
PUBLIC	?value@?$_Sizeof@HU_Nil@std@@U12@U12@U12@U12@U12@U12@@std@@2IB ; std::_Sizeof<int,std::_Nil,std::_Nil,std::_Nil,std::_Nil,std::_Nil,std::_Nil,std::_Nil>::value
PUBLIC	?is_signed@?$numeric_limits@F@std@@2_NB		; std::numeric_limits<short>::is_signed
PUBLIC	?digits@?$numeric_limits@F@std@@2HB		; std::numeric_limits<short>::digits
PUBLIC	?digits10@?$numeric_limits@F@std@@2HB		; std::numeric_limits<short>::digits10
PUBLIC	?is_signed@?$numeric_limits@G@std@@2_NB		; std::numeric_limits<unsigned short>::is_signed
PUBLIC	?digits@?$numeric_limits@G@std@@2HB		; std::numeric_limits<unsigned short>::digits
PUBLIC	?digits10@?$numeric_limits@G@std@@2HB		; std::numeric_limits<unsigned short>::digits10
PUBLIC	?is_signed@?$numeric_limits@H@std@@2_NB		; std::numeric_limits<int>::is_signed
PUBLIC	?digits@?$numeric_limits@H@std@@2HB		; std::numeric_limits<int>::digits
PUBLIC	?digits10@?$numeric_limits@H@std@@2HB		; std::numeric_limits<int>::digits10
PUBLIC	?EndFlightFlag@@3HA				; EndFlightFlag
PUBLIC	?gOutOfSimFlag@@3HA				; gOutOfSimFlag
PUBLIC	?is_signed@?$numeric_limits@I@std@@2_NB		; std::numeric_limits<unsigned int>::is_signed
PUBLIC	?digits@?$numeric_limits@I@std@@2HB		; std::numeric_limits<unsigned int>::digits
PUBLIC	?digits10@?$numeric_limits@I@std@@2HB		; std::numeric_limits<unsigned int>::digits10
PUBLIC	?SimLibLastMajorFrameTime@@3MA			; SimLibLastMajorFrameTime
PUBLIC	?is_signed@?$numeric_limits@J@std@@2_NB		; std::numeric_limits<long>::is_signed
PUBLIC	?digits@?$numeric_limits@J@std@@2HB		; std::numeric_limits<long>::digits
PUBLIC	?digits10@?$numeric_limits@J@std@@2HB		; std::numeric_limits<long>::digits10
PUBLIC	?is_signed@?$numeric_limits@K@std@@2_NB		; std::numeric_limits<unsigned long>::is_signed
PUBLIC	?digits@?$numeric_limits@K@std@@2HB		; std::numeric_limits<unsigned long>::digits
PUBLIC	?digits10@?$numeric_limits@K@std@@2HB		; std::numeric_limits<unsigned long>::digits10
PUBLIC	?is_signed@?$numeric_limits@_J@std@@2_NB	; std::numeric_limits<__int64>::is_signed
PUBLIC	?digits@?$numeric_limits@_J@std@@2HB		; std::numeric_limits<__int64>::digits
PUBLIC	?digits10@?$numeric_limits@_J@std@@2HB		; std::numeric_limits<__int64>::digits10
PUBLIC	?is_signed@?$numeric_limits@_K@std@@2_NB	; std::numeric_limits<unsigned __int64>::is_signed
PUBLIC	?value@?$integral_constant@I$0A@@std@@2IB	; std::integral_constant<unsigned int,0>::value
PUBLIC	?digits@?$numeric_limits@_K@std@@2HB		; std::numeric_limits<unsigned __int64>::digits
PUBLIC	?digits10@?$numeric_limits@_K@std@@2HB		; std::numeric_limits<unsigned __int64>::digits10
PUBLIC	?digits@?$numeric_limits@M@std@@2HB		; std::numeric_limits<float>::digits
PUBLIC	?digits10@?$numeric_limits@M@std@@2HB		; std::numeric_limits<float>::digits10
PUBLIC	?max_digits10@?$numeric_limits@M@std@@2HB	; std::numeric_limits<float>::max_digits10
PUBLIC	?max_exponent@?$numeric_limits@M@std@@2HB	; std::numeric_limits<float>::max_exponent
PUBLIC	?max_exponent10@?$numeric_limits@M@std@@2HB	; std::numeric_limits<float>::max_exponent10
PUBLIC	?min_exponent@?$numeric_limits@M@std@@2HB	; std::numeric_limits<float>::min_exponent
PUBLIC	?min_exponent10@?$numeric_limits@M@std@@2HB	; std::numeric_limits<float>::min_exponent10
PUBLIC	?digits@?$numeric_limits@N@std@@2HB		; std::numeric_limits<double>::digits
PUBLIC	?digits10@?$numeric_limits@N@std@@2HB		; std::numeric_limits<double>::digits10
PUBLIC	?max_digits10@?$numeric_limits@N@std@@2HB	; std::numeric_limits<double>::max_digits10
PUBLIC	?max_exponent@?$numeric_limits@N@std@@2HB	; std::numeric_limits<double>::max_exponent
PUBLIC	?max_exponent10@?$numeric_limits@N@std@@2HB	; std::numeric_limits<double>::max_exponent10
PUBLIC	?min_exponent@?$numeric_limits@N@std@@2HB	; std::numeric_limits<double>::min_exponent
PUBLIC	?min_exponent10@?$numeric_limits@N@std@@2HB	; std::numeric_limits<double>::min_exponent10
PUBLIC	?skipws@?$_Iosb@H@std@@2W4_Fmtflags@12@B	; std::_Iosb<int>::skipws
PUBLIC	?digits@?$numeric_limits@O@std@@2HB		; std::numeric_limits<long double>::digits
PUBLIC	?unitbuf@?$_Iosb@H@std@@2W4_Fmtflags@12@B	; std::_Iosb<int>::unitbuf
PUBLIC	?digits10@?$numeric_limits@O@std@@2HB		; std::numeric_limits<long double>::digits10
PUBLIC	?uppercase@?$_Iosb@H@std@@2W4_Fmtflags@12@B	; std::_Iosb<int>::uppercase
PUBLIC	?max_digits10@?$numeric_limits@O@std@@2HB	; std::numeric_limits<long double>::max_digits10
PUBLIC	?showbase@?$_Iosb@H@std@@2W4_Fmtflags@12@B	; std::_Iosb<int>::showbase
PUBLIC	?showpoint@?$_Iosb@H@std@@2W4_Fmtflags@12@B	; std::_Iosb<int>::showpoint
PUBLIC	?max_exponent@?$numeric_limits@O@std@@2HB	; std::numeric_limits<long double>::max_exponent
PUBLIC	?showpos@?$_Iosb@H@std@@2W4_Fmtflags@12@B	; std::_Iosb<int>::showpos
PUBLIC	?max_exponent10@?$numeric_limits@O@std@@2HB	; std::numeric_limits<long double>::max_exponent10
PUBLIC	?left@?$_Iosb@H@std@@2W4_Fmtflags@12@B		; std::_Iosb<int>::left
PUBLIC	?min_exponent@?$numeric_limits@O@std@@2HB	; std::numeric_limits<long double>::min_exponent
PUBLIC	?right@?$_Iosb@H@std@@2W4_Fmtflags@12@B		; std::_Iosb<int>::right
PUBLIC	?min_exponent10@?$numeric_limits@O@std@@2HB	; std::numeric_limits<long double>::min_exponent10
PUBLIC	?internal@?$_Iosb@H@std@@2W4_Fmtflags@12@B	; std::_Iosb<int>::internal
PUBLIC	?dec@?$_Iosb@H@std@@2W4_Fmtflags@12@B		; std::_Iosb<int>::dec
PUBLIC	?oct@?$_Iosb@H@std@@2W4_Fmtflags@12@B		; std::_Iosb<int>::oct
PUBLIC	?hex@?$_Iosb@H@std@@2W4_Fmtflags@12@B		; std::_Iosb<int>::hex
PUBLIC	?scientific@?$_Iosb@H@std@@2W4_Fmtflags@12@B	; std::_Iosb<int>::scientific
PUBLIC	?fixed@?$_Iosb@H@std@@2W4_Fmtflags@12@B		; std::_Iosb<int>::fixed
PUBLIC	?hexfloat@?$_Iosb@H@std@@2W4_Fmtflags@12@B	; std::_Iosb<int>::hexfloat
PUBLIC	?boolalpha@?$_Iosb@H@std@@2W4_Fmtflags@12@B	; std::_Iosb<int>::boolalpha
PUBLIC	?_Stdio@?$_Iosb@H@std@@2W4_Fmtflags@12@B	; std::_Iosb<int>::_Stdio
PUBLIC	?adjustfield@?$_Iosb@H@std@@2W4_Fmtflags@12@B	; std::_Iosb<int>::adjustfield
PUBLIC	?basefield@?$_Iosb@H@std@@2W4_Fmtflags@12@B	; std::_Iosb<int>::basefield
PUBLIC	?floatfield@?$_Iosb@H@std@@2W4_Fmtflags@12@B	; std::_Iosb<int>::floatfield
PUBLIC	?goodbit@?$_Iosb@H@std@@2W4_Iostate@12@B	; std::_Iosb<int>::goodbit
PUBLIC	?eofbit@?$_Iosb@H@std@@2W4_Iostate@12@B		; std::_Iosb<int>::eofbit
PUBLIC	?failbit@?$_Iosb@H@std@@2W4_Iostate@12@B	; std::_Iosb<int>::failbit
PUBLIC	?badbit@?$_Iosb@H@std@@2W4_Iostate@12@B		; std::_Iosb<int>::badbit
PUBLIC	?_Hardfail@?$_Iosb@H@std@@2W4_Iostate@12@B	; std::_Iosb<int>::_Hardfail
PUBLIC	?in@?$_Iosb@H@std@@2W4_Openmode@12@B		; std::_Iosb<int>::in
PUBLIC	?out@?$_Iosb@H@std@@2W4_Openmode@12@B		; std::_Iosb<int>::out
PUBLIC	?ate@?$_Iosb@H@std@@2W4_Openmode@12@B		; std::_Iosb<int>::ate
PUBLIC	?app@?$_Iosb@H@std@@2W4_Openmode@12@B		; std::_Iosb<int>::app
PUBLIC	?trunc@?$_Iosb@H@std@@2W4_Openmode@12@B		; std::_Iosb<int>::trunc
PUBLIC	?_Nocreate@?$_Iosb@H@std@@2W4_Openmode@12@B	; std::_Iosb<int>::_Nocreate
PUBLIC	?_Noreplace@?$_Iosb@H@std@@2W4_Openmode@12@B	; std::_Iosb<int>::_Noreplace
PUBLIC	?binary@?$_Iosb@H@std@@2W4_Openmode@12@B	; std::_Iosb<int>::binary
PUBLIC	?beg@?$_Iosb@H@std@@2W4_Seekdir@12@B		; std::_Iosb<int>::beg
PUBLIC	?cur@?$_Iosb@H@std@@2W4_Seekdir@12@B		; std::_Iosb<int>::cur
PUBLIC	?end@?$_Iosb@H@std@@2W4_Seekdir@12@B		; std::_Iosb<int>::end
PUBLIC	?_Stream_err@failure@ios_base@std@@0W4io_errc@43@B ; std::ios_base::failure::_Stream_err
PUBLIC	?value@?$_Sizeof@U_Nil@std@@U12@U12@U12@U12@U12@U12@U12@@std@@2IB ; std::_Sizeof<std::_Nil,std::_Nil,std::_Nil,std::_Nil,std::_Nil,std::_Nil,std::_Nil,std::_Nil>::value
PUBLIC	?has_denorm@_Num_base@std@@2W4float_denorm_style@2@B ; std::_Num_base::has_denorm
PUBLIC	?has_denorm_loss@_Num_base@std@@2_NB		; std::_Num_base::has_denorm_loss
PUBLIC	?has_infinity@_Num_base@std@@2_NB		; std::_Num_base::has_infinity
PUBLIC	?has_quiet_NaN@_Num_base@std@@2_NB		; std::_Num_base::has_quiet_NaN
PUBLIC	?has_signaling_NaN@_Num_base@std@@2_NB		; std::_Num_base::has_signaling_NaN
PUBLIC	?is_bounded@_Num_base@std@@2_NB			; std::_Num_base::is_bounded
PUBLIC	?is_exact@_Num_base@std@@2_NB			; std::_Num_base::is_exact
PUBLIC	?is_iec559@_Num_base@std@@2_NB			; std::_Num_base::is_iec559
PUBLIC	?is_integer@_Num_base@std@@2_NB			; std::_Num_base::is_integer
PUBLIC	?is_modulo@_Num_base@std@@2_NB			; std::_Num_base::is_modulo
PUBLIC	?is_signed@_Num_base@std@@2_NB			; std::_Num_base::is_signed
PUBLIC	?is_specialized@_Num_base@std@@2_NB		; std::_Num_base::is_specialized
PUBLIC	?tinyness_before@_Num_base@std@@2_NB		; std::_Num_base::tinyness_before
PUBLIC	?traps@_Num_base@std@@2_NB			; std::_Num_base::traps
PUBLIC	?SIMDIRTYDATA_INTERVAL@FalconEntity@@2KB	; FalconEntity::SIMDIRTYDATA_INTERVAL
_BSS	SEGMENT
_debugging DD	01H DUP (?)
?EndFlightFlag@@3HA DD 01H DUP (?)			; EndFlightFlag
_requestList DD	01H DUP (?)
?SimLibLastMajorFrameTime@@3MA DD 01H DUP (?)		; SimLibLastMajorFrameTime
_BSS	ENDS
;	COMDAT ?SIMDIRTYDATA_INTERVAL@FalconEntity@@2KB
CONST	SEGMENT
?SIMDIRTYDATA_INTERVAL@FalconEntity@@2KB DD 0c8H	; FalconEntity::SIMDIRTYDATA_INTERVAL
CONST	ENDS
;	COMDAT ?traps@_Num_base@std@@2_NB
CONST	SEGMENT
?traps@_Num_base@std@@2_NB DB 00H			; std::_Num_base::traps
CONST	ENDS
;	COMDAT ?tinyness_before@_Num_base@std@@2_NB
CONST	SEGMENT
?tinyness_before@_Num_base@std@@2_NB DB 00H		; std::_Num_base::tinyness_before
CONST	ENDS
;	COMDAT ?is_specialized@_Num_base@std@@2_NB
CONST	SEGMENT
?is_specialized@_Num_base@std@@2_NB DB 00H		; std::_Num_base::is_specialized
CONST	ENDS
;	COMDAT ?is_signed@_Num_base@std@@2_NB
CONST	SEGMENT
?is_signed@_Num_base@std@@2_NB DB 00H			; std::_Num_base::is_signed
CONST	ENDS
;	COMDAT ?is_modulo@_Num_base@std@@2_NB
CONST	SEGMENT
?is_modulo@_Num_base@std@@2_NB DB 00H			; std::_Num_base::is_modulo
CONST	ENDS
;	COMDAT ?is_integer@_Num_base@std@@2_NB
CONST	SEGMENT
?is_integer@_Num_base@std@@2_NB DB 00H			; std::_Num_base::is_integer
CONST	ENDS
;	COMDAT ?is_iec559@_Num_base@std@@2_NB
CONST	SEGMENT
?is_iec559@_Num_base@std@@2_NB DB 00H			; std::_Num_base::is_iec559
CONST	ENDS
;	COMDAT ?is_exact@_Num_base@std@@2_NB
CONST	SEGMENT
?is_exact@_Num_base@std@@2_NB DB 00H			; std::_Num_base::is_exact
CONST	ENDS
;	COMDAT ?is_bounded@_Num_base@std@@2_NB
CONST	SEGMENT
?is_bounded@_Num_base@std@@2_NB DB 00H			; std::_Num_base::is_bounded
CONST	ENDS
;	COMDAT ?has_signaling_NaN@_Num_base@std@@2_NB
CONST	SEGMENT
?has_signaling_NaN@_Num_base@std@@2_NB DB 00H		; std::_Num_base::has_signaling_NaN
CONST	ENDS
;	COMDAT ?has_quiet_NaN@_Num_base@std@@2_NB
CONST	SEGMENT
?has_quiet_NaN@_Num_base@std@@2_NB DB 00H		; std::_Num_base::has_quiet_NaN
CONST	ENDS
;	COMDAT ?has_infinity@_Num_base@std@@2_NB
CONST	SEGMENT
?has_infinity@_Num_base@std@@2_NB DB 00H		; std::_Num_base::has_infinity
CONST	ENDS
;	COMDAT ?has_denorm_loss@_Num_base@std@@2_NB
CONST	SEGMENT
?has_denorm_loss@_Num_base@std@@2_NB DB 00H		; std::_Num_base::has_denorm_loss
CONST	ENDS
;	COMDAT ?has_denorm@_Num_base@std@@2W4float_denorm_style@2@B
CONST	SEGMENT
?has_denorm@_Num_base@std@@2W4float_denorm_style@2@B DD 00H ; std::_Num_base::has_denorm
CONST	ENDS
;	COMDAT ?value@?$_Sizeof@U_Nil@std@@U12@U12@U12@U12@U12@U12@U12@@std@@2IB
CONST	SEGMENT
?value@?$_Sizeof@U_Nil@std@@U12@U12@U12@U12@U12@U12@U12@@std@@2IB DD 00H ; std::_Sizeof<std::_Nil,std::_Nil,std::_Nil,std::_Nil,std::_Nil,std::_Nil,std::_Nil,std::_Nil>::value
CONST	ENDS
;	COMDAT ?_Stream_err@failure@ios_base@std@@0W4io_errc@43@B
CONST	SEGMENT
?_Stream_err@failure@ios_base@std@@0W4io_errc@43@B DD 01H ; std::ios_base::failure::_Stream_err
CONST	ENDS
;	COMDAT ?end@?$_Iosb@H@std@@2W4_Seekdir@12@B
CONST	SEGMENT
?end@?$_Iosb@H@std@@2W4_Seekdir@12@B DD 02H		; std::_Iosb<int>::end
CONST	ENDS
;	COMDAT ?cur@?$_Iosb@H@std@@2W4_Seekdir@12@B
CONST	SEGMENT
?cur@?$_Iosb@H@std@@2W4_Seekdir@12@B DD 01H		; std::_Iosb<int>::cur
CONST	ENDS
;	COMDAT ?beg@?$_Iosb@H@std@@2W4_Seekdir@12@B
CONST	SEGMENT
?beg@?$_Iosb@H@std@@2W4_Seekdir@12@B DD 00H		; std::_Iosb<int>::beg
CONST	ENDS
;	COMDAT ?binary@?$_Iosb@H@std@@2W4_Openmode@12@B
CONST	SEGMENT
?binary@?$_Iosb@H@std@@2W4_Openmode@12@B DD 020H	; std::_Iosb<int>::binary
CONST	ENDS
;	COMDAT ?_Noreplace@?$_Iosb@H@std@@2W4_Openmode@12@B
CONST	SEGMENT
?_Noreplace@?$_Iosb@H@std@@2W4_Openmode@12@B DD 080H	; std::_Iosb<int>::_Noreplace
CONST	ENDS
;	COMDAT ?_Nocreate@?$_Iosb@H@std@@2W4_Openmode@12@B
CONST	SEGMENT
?_Nocreate@?$_Iosb@H@std@@2W4_Openmode@12@B DD 040H	; std::_Iosb<int>::_Nocreate
CONST	ENDS
;	COMDAT ?trunc@?$_Iosb@H@std@@2W4_Openmode@12@B
CONST	SEGMENT
?trunc@?$_Iosb@H@std@@2W4_Openmode@12@B DD 010H		; std::_Iosb<int>::trunc
CONST	ENDS
;	COMDAT ?app@?$_Iosb@H@std@@2W4_Openmode@12@B
CONST	SEGMENT
?app@?$_Iosb@H@std@@2W4_Openmode@12@B DD 08H		; std::_Iosb<int>::app
CONST	ENDS
;	COMDAT ?ate@?$_Iosb@H@std@@2W4_Openmode@12@B
CONST	SEGMENT
?ate@?$_Iosb@H@std@@2W4_Openmode@12@B DD 04H		; std::_Iosb<int>::ate
CONST	ENDS
;	COMDAT ?out@?$_Iosb@H@std@@2W4_Openmode@12@B
CONST	SEGMENT
?out@?$_Iosb@H@std@@2W4_Openmode@12@B DD 02H		; std::_Iosb<int>::out
CONST	ENDS
;	COMDAT ?in@?$_Iosb@H@std@@2W4_Openmode@12@B
CONST	SEGMENT
?in@?$_Iosb@H@std@@2W4_Openmode@12@B DD 01H		; std::_Iosb<int>::in
CONST	ENDS
;	COMDAT ?_Hardfail@?$_Iosb@H@std@@2W4_Iostate@12@B
CONST	SEGMENT
?_Hardfail@?$_Iosb@H@std@@2W4_Iostate@12@B DD 010H	; std::_Iosb<int>::_Hardfail
CONST	ENDS
;	COMDAT ?badbit@?$_Iosb@H@std@@2W4_Iostate@12@B
CONST	SEGMENT
?badbit@?$_Iosb@H@std@@2W4_Iostate@12@B DD 04H		; std::_Iosb<int>::badbit
CONST	ENDS
;	COMDAT ?failbit@?$_Iosb@H@std@@2W4_Iostate@12@B
CONST	SEGMENT
?failbit@?$_Iosb@H@std@@2W4_Iostate@12@B DD 02H		; std::_Iosb<int>::failbit
CONST	ENDS
;	COMDAT ?eofbit@?$_Iosb@H@std@@2W4_Iostate@12@B
CONST	SEGMENT
?eofbit@?$_Iosb@H@std@@2W4_Iostate@12@B DD 01H		; std::_Iosb<int>::eofbit
CONST	ENDS
;	COMDAT ?goodbit@?$_Iosb@H@std@@2W4_Iostate@12@B
CONST	SEGMENT
?goodbit@?$_Iosb@H@std@@2W4_Iostate@12@B DD 00H		; std::_Iosb<int>::goodbit
CONST	ENDS
;	COMDAT ?floatfield@?$_Iosb@H@std@@2W4_Fmtflags@12@B
CONST	SEGMENT
?floatfield@?$_Iosb@H@std@@2W4_Fmtflags@12@B DD 03000H	; std::_Iosb<int>::floatfield
CONST	ENDS
;	COMDAT ?basefield@?$_Iosb@H@std@@2W4_Fmtflags@12@B
CONST	SEGMENT
?basefield@?$_Iosb@H@std@@2W4_Fmtflags@12@B DD 0e00H	; std::_Iosb<int>::basefield
CONST	ENDS
;	COMDAT ?adjustfield@?$_Iosb@H@std@@2W4_Fmtflags@12@B
CONST	SEGMENT
?adjustfield@?$_Iosb@H@std@@2W4_Fmtflags@12@B DD 01c0H	; std::_Iosb<int>::adjustfield
CONST	ENDS
;	COMDAT ?_Stdio@?$_Iosb@H@std@@2W4_Fmtflags@12@B
CONST	SEGMENT
?_Stdio@?$_Iosb@H@std@@2W4_Fmtflags@12@B DD 08000H	; std::_Iosb<int>::_Stdio
CONST	ENDS
;	COMDAT ?boolalpha@?$_Iosb@H@std@@2W4_Fmtflags@12@B
CONST	SEGMENT
?boolalpha@?$_Iosb@H@std@@2W4_Fmtflags@12@B DD 04000H	; std::_Iosb<int>::boolalpha
CONST	ENDS
;	COMDAT ?hexfloat@?$_Iosb@H@std@@2W4_Fmtflags@12@B
CONST	SEGMENT
?hexfloat@?$_Iosb@H@std@@2W4_Fmtflags@12@B DD 03000H	; std::_Iosb<int>::hexfloat
CONST	ENDS
;	COMDAT ?fixed@?$_Iosb@H@std@@2W4_Fmtflags@12@B
CONST	SEGMENT
?fixed@?$_Iosb@H@std@@2W4_Fmtflags@12@B DD 02000H	; std::_Iosb<int>::fixed
CONST	ENDS
;	COMDAT ?scientific@?$_Iosb@H@std@@2W4_Fmtflags@12@B
CONST	SEGMENT
?scientific@?$_Iosb@H@std@@2W4_Fmtflags@12@B DD 01000H	; std::_Iosb<int>::scientific
CONST	ENDS
;	COMDAT ?hex@?$_Iosb@H@std@@2W4_Fmtflags@12@B
CONST	SEGMENT
?hex@?$_Iosb@H@std@@2W4_Fmtflags@12@B DD 0800H		; std::_Iosb<int>::hex
CONST	ENDS
;	COMDAT ?oct@?$_Iosb@H@std@@2W4_Fmtflags@12@B
CONST	SEGMENT
?oct@?$_Iosb@H@std@@2W4_Fmtflags@12@B DD 0400H		; std::_Iosb<int>::oct
CONST	ENDS
;	COMDAT ?dec@?$_Iosb@H@std@@2W4_Fmtflags@12@B
CONST	SEGMENT
?dec@?$_Iosb@H@std@@2W4_Fmtflags@12@B DD 0200H		; std::_Iosb<int>::dec
CONST	ENDS
;	COMDAT ?internal@?$_Iosb@H@std@@2W4_Fmtflags@12@B
CONST	SEGMENT
?internal@?$_Iosb@H@std@@2W4_Fmtflags@12@B DD 0100H	; std::_Iosb<int>::internal
CONST	ENDS
;	COMDAT ?min_exponent10@?$numeric_limits@O@std@@2HB
CONST	SEGMENT
?min_exponent10@?$numeric_limits@O@std@@2HB DD 0fffffecdH ; std::numeric_limits<long double>::min_exponent10
CONST	ENDS
;	COMDAT ?right@?$_Iosb@H@std@@2W4_Fmtflags@12@B
CONST	SEGMENT
?right@?$_Iosb@H@std@@2W4_Fmtflags@12@B DD 080H		; std::_Iosb<int>::right
CONST	ENDS
;	COMDAT ?min_exponent@?$numeric_limits@O@std@@2HB
CONST	SEGMENT
?min_exponent@?$numeric_limits@O@std@@2HB DD 0fffffc03H	; std::numeric_limits<long double>::min_exponent
CONST	ENDS
;	COMDAT ?left@?$_Iosb@H@std@@2W4_Fmtflags@12@B
CONST	SEGMENT
?left@?$_Iosb@H@std@@2W4_Fmtflags@12@B DD 040H		; std::_Iosb<int>::left
CONST	ENDS
;	COMDAT ?max_exponent10@?$numeric_limits@O@std@@2HB
CONST	SEGMENT
?max_exponent10@?$numeric_limits@O@std@@2HB DD 0134H	; std::numeric_limits<long double>::max_exponent10
CONST	ENDS
;	COMDAT ?showpos@?$_Iosb@H@std@@2W4_Fmtflags@12@B
CONST	SEGMENT
?showpos@?$_Iosb@H@std@@2W4_Fmtflags@12@B DD 020H	; std::_Iosb<int>::showpos
CONST	ENDS
;	COMDAT ?max_exponent@?$numeric_limits@O@std@@2HB
CONST	SEGMENT
?max_exponent@?$numeric_limits@O@std@@2HB DD 0400H	; std::numeric_limits<long double>::max_exponent
CONST	ENDS
;	COMDAT ?showpoint@?$_Iosb@H@std@@2W4_Fmtflags@12@B
CONST	SEGMENT
?showpoint@?$_Iosb@H@std@@2W4_Fmtflags@12@B DD 010H	; std::_Iosb<int>::showpoint
CONST	ENDS
;	COMDAT ?showbase@?$_Iosb@H@std@@2W4_Fmtflags@12@B
CONST	SEGMENT
?showbase@?$_Iosb@H@std@@2W4_Fmtflags@12@B DD 08H	; std::_Iosb<int>::showbase
CONST	ENDS
;	COMDAT ?max_digits10@?$numeric_limits@O@std@@2HB
CONST	SEGMENT
?max_digits10@?$numeric_limits@O@std@@2HB DD 011H	; std::numeric_limits<long double>::max_digits10
CONST	ENDS
;	COMDAT ?uppercase@?$_Iosb@H@std@@2W4_Fmtflags@12@B
CONST	SEGMENT
?uppercase@?$_Iosb@H@std@@2W4_Fmtflags@12@B DD 04H	; std::_Iosb<int>::uppercase
CONST	ENDS
;	COMDAT ?digits10@?$numeric_limits@O@std@@2HB
CONST	SEGMENT
?digits10@?$numeric_limits@O@std@@2HB DD 0fH		; std::numeric_limits<long double>::digits10
CONST	ENDS
;	COMDAT ?unitbuf@?$_Iosb@H@std@@2W4_Fmtflags@12@B
CONST	SEGMENT
?unitbuf@?$_Iosb@H@std@@2W4_Fmtflags@12@B DD 02H	; std::_Iosb<int>::unitbuf
CONST	ENDS
;	COMDAT ?digits@?$numeric_limits@O@std@@2HB
CONST	SEGMENT
?digits@?$numeric_limits@O@std@@2HB DD 035H		; std::numeric_limits<long double>::digits
CONST	ENDS
;	COMDAT ?skipws@?$_Iosb@H@std@@2W4_Fmtflags@12@B
CONST	SEGMENT
?skipws@?$_Iosb@H@std@@2W4_Fmtflags@12@B DD 01H		; std::_Iosb<int>::skipws
CONST	ENDS
;	COMDAT ?min_exponent10@?$numeric_limits@N@std@@2HB
CONST	SEGMENT
?min_exponent10@?$numeric_limits@N@std@@2HB DD 0fffffecdH ; std::numeric_limits<double>::min_exponent10
CONST	ENDS
;	COMDAT ?min_exponent@?$numeric_limits@N@std@@2HB
CONST	SEGMENT
?min_exponent@?$numeric_limits@N@std@@2HB DD 0fffffc03H	; std::numeric_limits<double>::min_exponent
CONST	ENDS
;	COMDAT ?max_exponent10@?$numeric_limits@N@std@@2HB
CONST	SEGMENT
?max_exponent10@?$numeric_limits@N@std@@2HB DD 0134H	; std::numeric_limits<double>::max_exponent10
CONST	ENDS
;	COMDAT ?max_exponent@?$numeric_limits@N@std@@2HB
CONST	SEGMENT
?max_exponent@?$numeric_limits@N@std@@2HB DD 0400H	; std::numeric_limits<double>::max_exponent
CONST	ENDS
;	COMDAT ?max_digits10@?$numeric_limits@N@std@@2HB
CONST	SEGMENT
?max_digits10@?$numeric_limits@N@std@@2HB DD 011H	; std::numeric_limits<double>::max_digits10
CONST	ENDS
;	COMDAT ?digits10@?$numeric_limits@N@std@@2HB
CONST	SEGMENT
?digits10@?$numeric_limits@N@std@@2HB DD 0fH		; std::numeric_limits<double>::digits10
CONST	ENDS
;	COMDAT ?digits@?$numeric_limits@N@std@@2HB
CONST	SEGMENT
?digits@?$numeric_limits@N@std@@2HB DD 035H		; std::numeric_limits<double>::digits
CONST	ENDS
;	COMDAT ?min_exponent10@?$numeric_limits@M@std@@2HB
CONST	SEGMENT
?min_exponent10@?$numeric_limits@M@std@@2HB DD 0ffffffdbH ; std::numeric_limits<float>::min_exponent10
CONST	ENDS
;	COMDAT ?min_exponent@?$numeric_limits@M@std@@2HB
CONST	SEGMENT
?min_exponent@?$numeric_limits@M@std@@2HB DD 0ffffff83H	; std::numeric_limits<float>::min_exponent
CONST	ENDS
;	COMDAT ?max_exponent10@?$numeric_limits@M@std@@2HB
CONST	SEGMENT
?max_exponent10@?$numeric_limits@M@std@@2HB DD 026H	; std::numeric_limits<float>::max_exponent10
CONST	ENDS
;	COMDAT ?max_exponent@?$numeric_limits@M@std@@2HB
CONST	SEGMENT
?max_exponent@?$numeric_limits@M@std@@2HB DD 080H	; std::numeric_limits<float>::max_exponent
CONST	ENDS
;	COMDAT ?max_digits10@?$numeric_limits@M@std@@2HB
CONST	SEGMENT
?max_digits10@?$numeric_limits@M@std@@2HB DD 09H	; std::numeric_limits<float>::max_digits10
CONST	ENDS
;	COMDAT ?digits10@?$numeric_limits@M@std@@2HB
CONST	SEGMENT
?digits10@?$numeric_limits@M@std@@2HB DD 06H		; std::numeric_limits<float>::digits10
CONST	ENDS
;	COMDAT ?digits@?$numeric_limits@M@std@@2HB
CONST	SEGMENT
?digits@?$numeric_limits@M@std@@2HB DD 018H		; std::numeric_limits<float>::digits
CONST	ENDS
;	COMDAT ?digits10@?$numeric_limits@_K@std@@2HB
CONST	SEGMENT
?digits10@?$numeric_limits@_K@std@@2HB DD 013H		; std::numeric_limits<unsigned __int64>::digits10
CONST	ENDS
;	COMDAT ?digits@?$numeric_limits@_K@std@@2HB
CONST	SEGMENT
?digits@?$numeric_limits@_K@std@@2HB DD 040H		; std::numeric_limits<unsigned __int64>::digits
CONST	ENDS
;	COMDAT ?value@?$integral_constant@I$0A@@std@@2IB
CONST	SEGMENT
?value@?$integral_constant@I$0A@@std@@2IB DD 00H	; std::integral_constant<unsigned int,0>::value
CONST	ENDS
;	COMDAT ?is_signed@?$numeric_limits@_K@std@@2_NB
CONST	SEGMENT
?is_signed@?$numeric_limits@_K@std@@2_NB DB 00H		; std::numeric_limits<unsigned __int64>::is_signed
CONST	ENDS
;	COMDAT ?digits10@?$numeric_limits@_J@std@@2HB
CONST	SEGMENT
?digits10@?$numeric_limits@_J@std@@2HB DD 012H		; std::numeric_limits<__int64>::digits10
CONST	ENDS
;	COMDAT ?digits@?$numeric_limits@_J@std@@2HB
CONST	SEGMENT
?digits@?$numeric_limits@_J@std@@2HB DD 03fH		; std::numeric_limits<__int64>::digits
CONST	ENDS
;	COMDAT ?is_signed@?$numeric_limits@_J@std@@2_NB
CONST	SEGMENT
?is_signed@?$numeric_limits@_J@std@@2_NB DB 01H		; std::numeric_limits<__int64>::is_signed
CONST	ENDS
;	COMDAT ?digits10@?$numeric_limits@K@std@@2HB
CONST	SEGMENT
?digits10@?$numeric_limits@K@std@@2HB DD 09H		; std::numeric_limits<unsigned long>::digits10
CONST	ENDS
;	COMDAT ?digits@?$numeric_limits@K@std@@2HB
CONST	SEGMENT
?digits@?$numeric_limits@K@std@@2HB DD 020H		; std::numeric_limits<unsigned long>::digits
CONST	ENDS
;	COMDAT ?is_signed@?$numeric_limits@K@std@@2_NB
CONST	SEGMENT
?is_signed@?$numeric_limits@K@std@@2_NB DB 00H		; std::numeric_limits<unsigned long>::is_signed
CONST	ENDS
;	COMDAT ?digits10@?$numeric_limits@J@std@@2HB
CONST	SEGMENT
?digits10@?$numeric_limits@J@std@@2HB DD 09H		; std::numeric_limits<long>::digits10
CONST	ENDS
;	COMDAT ?digits@?$numeric_limits@J@std@@2HB
CONST	SEGMENT
?digits@?$numeric_limits@J@std@@2HB DD 01fH		; std::numeric_limits<long>::digits
CONST	ENDS
;	COMDAT ?is_signed@?$numeric_limits@J@std@@2_NB
CONST	SEGMENT
?is_signed@?$numeric_limits@J@std@@2_NB DB 01H		; std::numeric_limits<long>::is_signed
CONST	ENDS
;	COMDAT ?digits10@?$numeric_limits@I@std@@2HB
CONST	SEGMENT
?digits10@?$numeric_limits@I@std@@2HB DD 09H		; std::numeric_limits<unsigned int>::digits10
CONST	ENDS
;	COMDAT ?digits@?$numeric_limits@I@std@@2HB
CONST	SEGMENT
?digits@?$numeric_limits@I@std@@2HB DD 020H		; std::numeric_limits<unsigned int>::digits
CONST	ENDS
;	COMDAT ?is_signed@?$numeric_limits@I@std@@2_NB
CONST	SEGMENT
?is_signed@?$numeric_limits@I@std@@2_NB DB 00H		; std::numeric_limits<unsigned int>::is_signed
CONST	ENDS
;	COMDAT ?digits10@?$numeric_limits@H@std@@2HB
CONST	SEGMENT
?digits10@?$numeric_limits@H@std@@2HB DD 09H		; std::numeric_limits<int>::digits10
CONST	ENDS
;	COMDAT ?digits@?$numeric_limits@H@std@@2HB
CONST	SEGMENT
?digits@?$numeric_limits@H@std@@2HB DD 01fH		; std::numeric_limits<int>::digits
CONST	ENDS
;	COMDAT ?is_signed@?$numeric_limits@H@std@@2_NB
CONST	SEGMENT
?is_signed@?$numeric_limits@H@std@@2_NB DB 01H		; std::numeric_limits<int>::is_signed
CONST	ENDS
;	COMDAT ?digits10@?$numeric_limits@G@std@@2HB
CONST	SEGMENT
?digits10@?$numeric_limits@G@std@@2HB DD 04H		; std::numeric_limits<unsigned short>::digits10
CONST	ENDS
;	COMDAT ?digits@?$numeric_limits@G@std@@2HB
CONST	SEGMENT
?digits@?$numeric_limits@G@std@@2HB DD 010H		; std::numeric_limits<unsigned short>::digits
CONST	ENDS
;	COMDAT ?is_signed@?$numeric_limits@G@std@@2_NB
CONST	SEGMENT
?is_signed@?$numeric_limits@G@std@@2_NB DB 00H		; std::numeric_limits<unsigned short>::is_signed
CONST	ENDS
;	COMDAT ?digits10@?$numeric_limits@F@std@@2HB
CONST	SEGMENT
?digits10@?$numeric_limits@F@std@@2HB DD 04H		; std::numeric_limits<short>::digits10
CONST	ENDS
;	COMDAT ?digits@?$numeric_limits@F@std@@2HB
CONST	SEGMENT
?digits@?$numeric_limits@F@std@@2HB DD 0fH		; std::numeric_limits<short>::digits
CONST	ENDS
;	COMDAT ?is_signed@?$numeric_limits@F@std@@2_NB
CONST	SEGMENT
?is_signed@?$numeric_limits@F@std@@2_NB DB 01H		; std::numeric_limits<short>::is_signed
CONST	ENDS
;	COMDAT ?value@?$_Sizeof@HU_Nil@std@@U12@U12@U12@U12@U12@U12@@std@@2IB
CONST	SEGMENT
?value@?$_Sizeof@HU_Nil@std@@U12@U12@U12@U12@U12@U12@@std@@2IB DD 01H ; std::_Sizeof<int,std::_Nil,std::_Nil,std::_Nil,std::_Nil,std::_Nil,std::_Nil,std::_Nil>::value
CONST	ENDS
;	COMDAT ?value@?$integral_constant@_N$00@std@@2_NB
CONST	SEGMENT
?value@?$integral_constant@_N$00@std@@2_NB DB 01H	; std::integral_constant<bool,1>::value
CONST	ENDS
;	COMDAT ?value@?$integral_constant@_N$0A@@std@@2_NB
CONST	SEGMENT
?value@?$integral_constant@_N$0A@@std@@2_NB DB 00H	; std::integral_constant<bool,0>::value
CONST	ENDS
;	COMDAT ?digits10@?$numeric_limits@E@std@@2HB
CONST	SEGMENT
?digits10@?$numeric_limits@E@std@@2HB DD 02H		; std::numeric_limits<unsigned char>::digits10
CONST	ENDS
;	COMDAT ?digits@?$numeric_limits@E@std@@2HB
CONST	SEGMENT
?digits@?$numeric_limits@E@std@@2HB DD 08H		; std::numeric_limits<unsigned char>::digits
CONST	ENDS
;	COMDAT ?is_signed@?$numeric_limits@E@std@@2_NB
CONST	SEGMENT
?is_signed@?$numeric_limits@E@std@@2_NB DB 00H		; std::numeric_limits<unsigned char>::is_signed
CONST	ENDS
;	COMDAT ?table_size@?$ctype@D@std@@2IB
CONST	SEGMENT
?table_size@?$ctype@D@std@@2IB DD 0100H			; std::ctype<char>::table_size
CONST	ENDS
;	COMDAT ?digits10@?$numeric_limits@C@std@@2HB
CONST	SEGMENT
?digits10@?$numeric_limits@C@std@@2HB DD 02H		; std::numeric_limits<signed char>::digits10
CONST	ENDS
;	COMDAT ?digits@?$numeric_limits@C@std@@2HB
CONST	SEGMENT
?digits@?$numeric_limits@C@std@@2HB DD 07H		; std::numeric_limits<signed char>::digits
CONST	ENDS
;	COMDAT ?is_signed@?$numeric_limits@C@std@@2_NB
CONST	SEGMENT
?is_signed@?$numeric_limits@C@std@@2_NB DB 01H		; std::numeric_limits<signed char>::is_signed
CONST	ENDS
_DATA	SEGMENT
_cloudPntList DD 0c5bcc000r			; -6040
	DD	0c4070000r			; -540
	DD	0c694ac00r			; -19030
	DD	0c6de1c00r			; -28430
	DD	0c4dfc000r			; -1790
	DD	046dcc800r			; 28260
	DD	047104200r			; 36930
	DD	045732000r			; 3890
	DD	04744ea00r			; 50410
	DD	045336000r			; 2870
	DD	0c4d48000r			; -1700
	DD	04736da00r			; 46810
	DD	0c763ee00r			; -58350
	DD	0c4d48000r			; -1700
	DD	0c64c1000r			; -13060
	DD	046f2bc00r			; 31070
	DD	045480000r			; 3200
	DD	0c7293800r			; -43320
	DD	0c7bdc400r			; -97160
	DD	0c4d48000r			; -1700
	DD	04576e000r			; 3950
	DD	0c792e000r			; -75200
	DD	0c4bb8000r			; -1500
	DD	047957400r			; 76520
	DD	04759ee00r			; 55790
	DD	0c5a1e000r			; -5180
	DD	0c7a24e00r			; -83100
	DD	0c7473800r			; -51000
	DD	0c3a00000r			; -320
	DD	0c7829100r			; -66850
	DD	047733400r			; 62260
	DD	0c3a00000r			; -320
	DD	047708200r			; 61570
	DD	0c7710e00r			; -61710
	DD	0c550c000r			; -3340
	DD	046fb7c00r			; 32190
	DD	0c7719a00r			; -61850
	DD	0c7483200r			; -51250
	DD	047543a00r			; 54330
	DD	0c5bcc000r			; -6040
	DD	0c7495400r			; -51540
	DD	0c694ac00r			; -19030
	DD	0c6a7a800r			; -21460
	DD	0c74b0200r			; -51970
	DD	0468e8000r			; 18240
	DD	047298800r			; 43400
	DD	0c74bf200r			; -52210
	DD	046bc7000r			; 24120
	DD	0c749f400r			; -51700
	DD	0c74bc000r			; -52160
	DD	046948400r			; 19010
	DD	0c605e800r			; -8570
	DD	0c7488200r			; -51330
	DD	0c74ca600r			; -52390
	DD	04731bc00r			; 45500
	DD	0c7509800r			; -53400
	DD	0c6725800r			; -15510
	DD	0c7719a00r			; -61850
	DD	0c7483200r			; -51250
	DD	047543a00r			; 54330
	DD	047553400r			; 54580
	DD	0c74ddc00r			; -52700
	DD	0479a5600r			; 79020
	DD	047a7e400r			; 85960
	DD	0c74c5600r			; -52310
	DD	0477d4800r			; 64840
	DD	0c7c44500r			; -100490
	DD	0c74d1400r			; -52500
	DD	047ac2600r			; 88140
	DD	0c7a1ae00r			; -82780
	DD	0c749ea00r			; -51690
	DD	0c7bce300r			; -96710
	DD	0c6126800r			; -9370
	DD	0c7495400r			; -51540
	DD	043cd0000r			; 410
	DD	0c6a7a800r			; -21460
	DD	0c74a8a00r			; -51850
	DD	0473fae00r			; 49070
	DD	0457c8000r			; 4040
	DD	0c74e4a00r			; -52810
	DD	047871e00r			; 69180
	DD	0c6cbc000r			; -26080
	DD	0c74bc000r			; -52160
	DD	046984400r			; 19490
	DD	0452fa000r			; 2810
	DD	0c7488200r			; -51330
	DD	0c7081800r			; -34840
	DD	0c7719a00r			; -61850
	DD	0c749d600r			; -51670
	DD	047b17600r			; 90860
	DD	047553400r			; 54580
	DD	0c74ddc00r			; -52700
	DD	0479a5600r			; 79020
	DD	047a7e400r			; 85960
	DD	0c74c5600r			; -52310
	DD	0477d4800r			; 64840
	DD	0c7c44500r			; -100490
	DD	0c74d1400r			; -52500
	DD	047ac2600r			; 88140
	DD	047c04e00r			; 98460
	DD	0c74d1400r			; -52500
	DD	0c732a200r			; -45730
	DD	0467b9000r			; 16100
	DD	0c7487800r			; -51320
	DD	0c749a400r			; -51620
	DD	047636c00r			; 58220
	DD	0c74e0400r			; -52740
	DD	0c760b000r			; -57520
	DD	0c6126800r			; -9370
	DD	0c4070000r			; -540
	DD	043cd0000r			; 410
	DD	0c4e60000r			; -1840
	DD	0c6a30c00r			; -20870
	DD	0470a6600r			; 35430
	DD	0c7230c00r			; -41740
	DD	046924000r			; 18720
	DD	04797d600r			; 77740
	DD	0460d9000r			; 9060
	DD	0c616c800r			; -9650
	DD	0c7921300r			; -74790
_lightningPosList DD 041300000r			; 11
	DD	000000000r			; 0
	DD	040e00000r			; 7
	DD	040a00000r			; 5
	DD	041100000r			; 9
	DD	041000000r			; 8
	DD	041000000r			; 8
	DD	041600000r			; 14
	DD	041800000r			; 16
	DD	041a00000r			; 20
	DD	041200000r			; 10
	DD	041c00000r			; 24
	DD	041300000r			; 11
	DD	041d80000r			; 27
	DD	040c00000r			; 6
	DD	041f00000r			; 30
	DD	040e00000r			; 7
	DD	042040000r			; 33
	DD	03f800000r			; 1
	DD	042180000r			; 38
	DD	040a00000r			; 5
	DD	042280000r			; 42
	DD	040a00000r			; 5
	DD	042340000r			; 45
	DD	041400000r			; 12
	DD	042400000r			; 48
	DD	041a00000r			; 20
	DD	042500000r			; 52
	DD	041a00000r			; 20
	DD	042680000r			; 58
	DD	041b80000r			; 23
	DD	042740000r			; 61
	DD	041b00000r			; 22
	DD	0427c0000r			; 63
	DD	041b00000r			; 22
	DD	042840000r			; 66
	DD	041c80000r			; 25
	DD	042880000r			; 68
	DD	041a00000r			; 20
	DD	0428c0000r			; 70
	DD	041c00000r			; 24
	DD	042960000r			; 75
	DD	041c00000r			; 24
	DD	0429a0000r			; 77
	DD	041f80000r			; 31
	DD	042a00000r			; 80
	DD	041f80000r			; 31
	DD	042a60000r			; 83
	DD	042040000r			; 33
	DD	042b00000r			; 88
	DD	041f80000r			; 31
	DD	042b80000r			; 92
	DD	0423c0000r			; 47
	DD	042ce0000r			; 103
	DD	042380000r			; 46
	DD	042d20000r			; 105
	DD	0423c0000r			; 47
	DD	042d60000r			; 107
	DD	042340000r			; 45
	DD	042e00000r			; 112
	DD	042400000r			; 48
	DD	042e40000r			; 114
	DD	042380000r			; 46
	DD	042ea0000r			; 117
	DD	0422c0000r			; 43
	DD	043000000r			; 128
?gOutOfSimFlag@@3HA DD 01H				; gOutOfSimFlag
_matrix33_ident DD 03f800000r			; 1
	DD	000000000r			; 0
	DD	000000000r			; 0
	DD	000000000r			; 0
	DD	03f800000r			; 1
	DD	000000000r			; 0
	DD	000000000r			; 0
	DD	000000000r			; 0
	DD	03f800000r			; 1
_matrix44_ident DD 03f800000r			; 1
	DD	000000000r			; 0
	DD	000000000r			; 0
	DD	000000000r			; 0
	DD	000000000r			; 0
	DD	03f800000r			; 1
	DD	000000000r			; 0
	DD	000000000r			; 0
	DD	000000000r			; 0
	DD	000000000r			; 0
	DD	03f800000r			; 1
	DD	000000000r			; 0
	DD	000000000r			; 0
	DD	000000000r			; 0
	DD	000000000r			; 0
	DD	03f800000r			; 1
_DATA	ENDS
;	COMDAT ?digits10@?$numeric_limits@_N@std@@2HB
CONST	SEGMENT
?digits10@?$numeric_limits@_N@std@@2HB DD 00H		; std::numeric_limits<bool>::digits10
CONST	ENDS
;	COMDAT ?digits@?$numeric_limits@_N@std@@2HB
CONST	SEGMENT
?digits@?$numeric_limits@_N@std@@2HB DD 01H		; std::numeric_limits<bool>::digits
CONST	ENDS
;	COMDAT ?is_signed@?$numeric_limits@_N@std@@2_NB
CONST	SEGMENT
?is_signed@?$numeric_limits@_N@std@@2_NB DB 00H		; std::numeric_limits<bool>::is_signed
CONST	ENDS
;	COMDAT ?is_modulo@?$numeric_limits@_N@std@@2_NB
CONST	SEGMENT
?is_modulo@?$numeric_limits@_N@std@@2_NB DB 00H		; std::numeric_limits<bool>::is_modulo
CONST	ENDS
;	COMDAT ?digits10@?$numeric_limits@_W@std@@2HB
CONST	SEGMENT
?digits10@?$numeric_limits@_W@std@@2HB DD 04H		; std::numeric_limits<wchar_t>::digits10
CONST	ENDS
;	COMDAT ?digits@?$numeric_limits@_W@std@@2HB
CONST	SEGMENT
?digits@?$numeric_limits@_W@std@@2HB DD 010H		; std::numeric_limits<wchar_t>::digits
CONST	ENDS
;	COMDAT ?is_signed@?$numeric_limits@_W@std@@2_NB
CONST	SEGMENT
?is_signed@?$numeric_limits@_W@std@@2_NB DB 00H		; std::numeric_limits<wchar_t>::is_signed
CONST	ENDS
;	COMDAT ?none@?$_Locbase@H@std@@2HB
CONST	SEGMENT
?none@?$_Locbase@H@std@@2HB DD 00H			; std::_Locbase<int>::none
CONST	ENDS
;	COMDAT ?all@?$_Locbase@H@std@@2HB
CONST	SEGMENT
?all@?$_Locbase@H@std@@2HB DD 03fH			; std::_Locbase<int>::all
CONST	ENDS
;	COMDAT ?messages@?$_Locbase@H@std@@2HB
CONST	SEGMENT
?messages@?$_Locbase@H@std@@2HB DD 020H			; std::_Locbase<int>::messages
CONST	ENDS
;	COMDAT ?time@?$_Locbase@H@std@@2HB
CONST	SEGMENT
?time@?$_Locbase@H@std@@2HB DD 010H			; std::_Locbase<int>::time
CONST	ENDS
;	COMDAT ?numeric@?$_Locbase@H@std@@2HB
CONST	SEGMENT
?numeric@?$_Locbase@H@std@@2HB DD 08H			; std::_Locbase<int>::numeric
CONST	ENDS
;	COMDAT ?digits10@?$numeric_limits@D@std@@2HB
CONST	SEGMENT
?digits10@?$numeric_limits@D@std@@2HB DD 02H		; std::numeric_limits<char>::digits10
CONST	ENDS
;	COMDAT ?monetary@?$_Locbase@H@std@@2HB
CONST	SEGMENT
?monetary@?$_Locbase@H@std@@2HB DD 04H			; std::_Locbase<int>::monetary
CONST	ENDS
;	COMDAT ?digits@?$numeric_limits@D@std@@2HB
CONST	SEGMENT
?digits@?$numeric_limits@D@std@@2HB DD 07H		; std::numeric_limits<char>::digits
CONST	ENDS
;	COMDAT ?ctype@?$_Locbase@H@std@@2HB
CONST	SEGMENT
?ctype@?$_Locbase@H@std@@2HB DD 02H			; std::_Locbase<int>::ctype
CONST	ENDS
;	COMDAT ?collate@?$_Locbase@H@std@@2HB
CONST	SEGMENT
?collate@?$_Locbase@H@std@@2HB DD 01H			; std::_Locbase<int>::collate
CONST	ENDS
;	COMDAT ?is_signed@?$numeric_limits@D@std@@2_NB
CONST	SEGMENT
?is_signed@?$numeric_limits@D@std@@2_NB DB 01H		; std::numeric_limits<char>::is_signed
CONST	ENDS
;	COMDAT ?radix@_Num_float_base@std@@2HB
CONST	SEGMENT
?radix@_Num_float_base@std@@2HB DD 02H			; std::_Num_float_base::radix
CONST	ENDS
;	COMDAT ?round_style@_Num_float_base@std@@2W4float_round_style@2@B
CONST	SEGMENT
?round_style@_Num_float_base@std@@2W4float_round_style@2@B DD 01H ; std::_Num_float_base::round_style
CONST	ENDS
;	COMDAT ?traps@_Num_float_base@std@@2_NB
CONST	SEGMENT
?traps@_Num_float_base@std@@2_NB DB 00H			; std::_Num_float_base::traps
CONST	ENDS
;	COMDAT ?tinyness_before@_Num_float_base@std@@2_NB
CONST	SEGMENT
?tinyness_before@_Num_float_base@std@@2_NB DB 01H	; std::_Num_float_base::tinyness_before
CONST	ENDS
;	COMDAT ?is_specialized@_Num_float_base@std@@2_NB
CONST	SEGMENT
?is_specialized@_Num_float_base@std@@2_NB DB 01H	; std::_Num_float_base::is_specialized
CONST	ENDS
;	COMDAT ?is_signed@_Num_float_base@std@@2_NB
CONST	SEGMENT
?is_signed@_Num_float_base@std@@2_NB DB 01H		; std::_Num_float_base::is_signed
CONST	ENDS
;	COMDAT ?is_modulo@_Num_float_base@std@@2_NB
CONST	SEGMENT
?is_modulo@_Num_float_base@std@@2_NB DB 00H		; std::_Num_float_base::is_modulo
CONST	ENDS
;	COMDAT ?is_integer@_Num_float_base@std@@2_NB
CONST	SEGMENT
?is_integer@_Num_float_base@std@@2_NB DB 00H		; std::_Num_float_base::is_integer
CONST	ENDS
;	COMDAT ?is_iec559@_Num_float_base@std@@2_NB
CONST	SEGMENT
?is_iec559@_Num_float_base@std@@2_NB DB 01H		; std::_Num_float_base::is_iec559
CONST	ENDS
;	COMDAT ?is_exact@_Num_float_base@std@@2_NB
CONST	SEGMENT
?is_exact@_Num_float_base@std@@2_NB DB 00H		; std::_Num_float_base::is_exact
CONST	ENDS
;	COMDAT ?is_bounded@_Num_float_base@std@@2_NB
CONST	SEGMENT
?is_bounded@_Num_float_base@std@@2_NB DB 01H		; std::_Num_float_base::is_bounded
CONST	ENDS
;	COMDAT ?has_signaling_NaN@_Num_float_base@std@@2_NB
CONST	SEGMENT
?has_signaling_NaN@_Num_float_base@std@@2_NB DB 01H	; std::_Num_float_base::has_signaling_NaN
CONST	ENDS
;	COMDAT ?has_quiet_NaN@_Num_float_base@std@@2_NB
CONST	SEGMENT
?has_quiet_NaN@_Num_float_base@std@@2_NB DB 01H		; std::_Num_float_base::has_quiet_NaN
CONST	ENDS
;	COMDAT ?has_infinity@_Num_float_base@std@@2_NB
CONST	SEGMENT
?has_infinity@_Num_float_base@std@@2_NB DB 01H		; std::_Num_float_base::has_infinity
CONST	ENDS
;	COMDAT ?has_denorm_loss@_Num_float_base@std@@2_NB
CONST	SEGMENT
?has_denorm_loss@_Num_float_base@std@@2_NB DB 01H	; std::_Num_float_base::has_denorm_loss
CONST	ENDS
;	COMDAT ?has_denorm@_Num_float_base@std@@2W4float_denorm_style@2@B
CONST	SEGMENT
?has_denorm@_Num_float_base@std@@2W4float_denorm_style@2@B DD 01H ; std::_Num_float_base::has_denorm
CONST	ENDS
;	COMDAT ?radix@_Num_int_base@std@@2HB
CONST	SEGMENT
?radix@_Num_int_base@std@@2HB DD 02H			; std::_Num_int_base::radix
CONST	ENDS
;	COMDAT ?is_specialized@_Num_int_base@std@@2_NB
CONST	SEGMENT
?is_specialized@_Num_int_base@std@@2_NB DB 01H		; std::_Num_int_base::is_specialized
CONST	ENDS
;	COMDAT ?is_modulo@_Num_int_base@std@@2_NB
CONST	SEGMENT
?is_modulo@_Num_int_base@std@@2_NB DB 01H		; std::_Num_int_base::is_modulo
CONST	ENDS
;	COMDAT ?is_integer@_Num_int_base@std@@2_NB
CONST	SEGMENT
?is_integer@_Num_int_base@std@@2_NB DB 01H		; std::_Num_int_base::is_integer
CONST	ENDS
;	COMDAT ?is_exact@_Num_int_base@std@@2_NB
CONST	SEGMENT
?is_exact@_Num_int_base@std@@2_NB DB 01H		; std::_Num_int_base::is_exact
CONST	ENDS
;	COMDAT ?is_bounded@_Num_int_base@std@@2_NB
CONST	SEGMENT
?is_bounded@_Num_int_base@std@@2_NB DB 01H		; std::_Num_int_base::is_bounded
CONST	ENDS
CONST	SEGMENT
_NEAR_CLIP DD	03f800000r			; 1
_L_2	DD	03f317218r			; 0.693147
CONST	ENDS
;	COMDAT ?radix@_Num_base@std@@2HB
CONST	SEGMENT
?radix@_Num_base@std@@2HB DD 00H			; std::_Num_base::radix
CONST	ENDS
;	COMDAT ?min_exponent10@_Num_base@std@@2HB
CONST	SEGMENT
?min_exponent10@_Num_base@std@@2HB DD 00H		; std::_Num_base::min_exponent10
CONST	ENDS
;	COMDAT ?min_exponent@_Num_base@std@@2HB
CONST	SEGMENT
?min_exponent@_Num_base@std@@2HB DD 00H			; std::_Num_base::min_exponent
CONST	ENDS
;	COMDAT ?max_exponent10@_Num_base@std@@2HB
CONST	SEGMENT
?max_exponent10@_Num_base@std@@2HB DD 00H		; std::_Num_base::max_exponent10
CONST	ENDS
;	COMDAT ?max_exponent@_Num_base@std@@2HB
CONST	SEGMENT
?max_exponent@_Num_base@std@@2HB DD 00H			; std::_Num_base::max_exponent
CONST	ENDS
;	COMDAT ?max_digits10@_Num_base@std@@2HB
CONST	SEGMENT
?max_digits10@_Num_base@std@@2HB DD 00H			; std::_Num_base::max_digits10
CONST	ENDS
;	COMDAT ?digits10@_Num_base@std@@2HB
CONST	SEGMENT
?digits10@_Num_base@std@@2HB DD 00H			; std::_Num_base::digits10
CONST	ENDS
;	COMDAT ?digits@_Num_base@std@@2HB
CONST	SEGMENT
?digits@_Num_base@std@@2HB DD 00H			; std::_Num_base::digits
CONST	ENDS
;	COMDAT ?CMPDIRTYDATA_INTERVAL@FalconEntity@@2KB
CONST	SEGMENT
?CMPDIRTYDATA_INTERVAL@FalconEntity@@2KB DD 0c8H	; FalconEntity::CMPDIRTYDATA_INTERVAL
CONST	ENDS
;	COMDAT ?round_style@_Num_base@std@@2W4float_round_style@2@B
CONST	SEGMENT
?round_style@_Num_base@std@@2W4float_round_style@2@B DD 00H ; std::_Num_base::round_style
CONST	ENDS
PUBLIC	_fabsf
PUBLIC	?abs@@YAMM@Z					; abs
PUBLIC	??2@YAPAXIPAX@Z					; operator new
PUBLIC	??3@YAXPAX0@Z					; operator delete
PUBLIC	?length@?$char_traits@D@std@@SAIPBD@Z		; std::char_traits<char>::length
PUBLIC	?copy@?$char_traits@D@std@@SAPADPADPBDI@Z	; std::char_traits<char>::copy
PUBLIC	?move@?$char_traits@D@std@@SAPADPADPBDI@Z	; std::char_traits<char>::move
PUBLIC	?assign@?$char_traits@D@std@@SAXAADABD@Z	; std::char_traits<char>::assign
PUBLIC	??0?$allocator@D@std@@QAE@XZ			; std::allocator<char>::allocator<char>
PUBLIC	?deallocate@?$allocator@D@std@@QAEXPADI@Z	; std::allocator<char>::deallocate
PUBLIC	?allocate@?$allocator@D@std@@QAEPADI@Z		; std::allocator<char>::allocate
PUBLIC	?max_size@?$allocator@D@std@@QBEIXZ		; std::allocator<char>::max_size
PUBLIC	?max_size@?$allocator_traits@V?$allocator@D@std@@@std@@SAIABV?$allocator@D@2@@Z ; std::allocator_traits<std::allocator<char> >::max_size
PUBLIC	??0?$_Wrap_alloc@V?$allocator@D@std@@@std@@QAE@XZ ; std::_Wrap_alloc<std::allocator<char> >::_Wrap_alloc<std::allocator<char> >
PUBLIC	?allocate@?$_Wrap_alloc@V?$allocator@D@std@@@std@@QAEPADI@Z ; std::_Wrap_alloc<std::allocator<char> >::allocate
PUBLIC	?deallocate@?$_Wrap_alloc@V?$allocator@D@std@@@std@@QAEXPADI@Z ; std::_Wrap_alloc<std::allocator<char> >::deallocate
PUBLIC	?max_size@?$_Wrap_alloc@V?$allocator@D@std@@@std@@QBEIXZ ; std::_Wrap_alloc<std::allocator<char> >::max_size
PUBLIC	??0?$_String_val@U?$_Simple_types@D@std@@@std@@QAE@XZ ; std::_String_val<std::_Simple_types<char> >::_String_val<std::_Simple_types<char> >
PUBLIC	?_Myptr@?$_String_val@U?$_Simple_types@D@std@@@std@@QAEPADXZ ; std::_String_val<std::_Simple_types<char> >::_Myptr
PUBLIC	?_Myptr@?$_String_val@U?$_Simple_types@D@std@@@std@@QBEPBDXZ ; std::_String_val<std::_Simple_types<char> >::_Myptr
PUBLIC	??0?$_String_alloc@$0A@U?$_String_base_types@DV?$allocator@D@std@@@std@@@std@@QAE@ABV?$allocator@D@1@@Z ; std::_String_alloc<0,std::_String_base_types<char,std::allocator<char> > >::_String_alloc<0,std::_String_base_types<char,std::allocator<char> > >
PUBLIC	?_Getal@?$_String_alloc@$0A@U?$_String_base_types@DV?$allocator@D@std@@@std@@@std@@QBE?AU?$_Wrap_alloc@V?$allocator@D@std@@@2@XZ ; std::_String_alloc<0,std::_String_base_types<char,std::allocator<char> > >::_Getal
PUBLIC	??0?$basic_string@DU?$char_traits@D@std@@V?$allocator@D@2@@std@@QAE@PBD@Z ; std::basic_string<char,std::char_traits<char>,std::allocator<char> >::basic_string<char,std::char_traits<char>,std::allocator<char> >
PUBLIC	?assign@?$basic_string@DU?$char_traits@D@std@@V?$allocator@D@2@@std@@QAEAAV12@ABV12@II@Z ; std::basic_string<char,std::char_traits<char>,std::allocator<char> >::assign
PUBLIC	?assign@?$basic_string@DU?$char_traits@D@std@@V?$allocator@D@2@@std@@QAEAAV12@PBDI@Z ; std::basic_string<char,std::char_traits<char>,std::allocator<char> >::assign
PUBLIC	?assign@?$basic_string@DU?$char_traits@D@std@@V?$allocator@D@2@@std@@QAEAAV12@PBD@Z ; std::basic_string<char,std::char_traits<char>,std::allocator<char> >::assign
PUBLIC	?erase@?$basic_string@DU?$char_traits@D@std@@V?$allocator@D@2@@std@@QAEAAV12@I@Z ; std::basic_string<char,std::char_traits<char>,std::allocator<char> >::erase
PUBLIC	?erase@?$basic_string@DU?$char_traits@D@std@@V?$allocator@D@2@@std@@QAEAAV12@II@Z ; std::basic_string<char,std::char_traits<char>,std::allocator<char> >::erase
PUBLIC	?size@?$basic_string@DU?$char_traits@D@std@@V?$allocator@D@2@@std@@QBEIXZ ; std::basic_string<char,std::char_traits<char>,std::allocator<char> >::size
PUBLIC	?max_size@?$basic_string@DU?$char_traits@D@std@@V?$allocator@D@2@@std@@QBEIXZ ; std::basic_string<char,std::char_traits<char>,std::allocator<char> >::max_size
PUBLIC	?_Copy@?$basic_string@DU?$char_traits@D@std@@V?$allocator@D@2@@std@@QAEXII@Z ; std::basic_string<char,std::char_traits<char>,std::allocator<char> >::_Copy
PUBLIC	?_Eos@?$basic_string@DU?$char_traits@D@std@@V?$allocator@D@2@@std@@QAEXI@Z ; std::basic_string<char,std::char_traits<char>,std::allocator<char> >::_Eos
PUBLIC	?_Grow@?$basic_string@DU?$char_traits@D@std@@V?$allocator@D@2@@std@@QAE_NI_N@Z ; std::basic_string<char,std::char_traits<char>,std::allocator<char> >::_Grow
PUBLIC	?_Inside@?$basic_string@DU?$char_traits@D@std@@V?$allocator@D@2@@std@@QAE_NPBD@Z ; std::basic_string<char,std::char_traits<char>,std::allocator<char> >::_Inside
PUBLIC	?_Tidy@?$basic_string@DU?$char_traits@D@std@@V?$allocator@D@2@@std@@QAEX_NI@Z ; std::basic_string<char,std::char_traits<char>,std::allocator<char> >::_Tidy
PUBLIC	?_Xlen@?$basic_string@DU?$char_traits@D@std@@V?$allocator@D@2@@std@@QBEXXZ ; std::basic_string<char,std::char_traits<char>,std::allocator<char> >::_Xlen
PUBLIC	?_Xran@?$basic_string@DU?$char_traits@D@std@@V?$allocator@D@2@@std@@QBEXXZ ; std::basic_string<char,std::char_traits<char>,std::allocator<char> >::_Xran
PUBLIC	??0VU_SESSION_ID@@QAE@K@Z			; VU_SESSION_ID::VU_SESSION_ID
PUBLIC	??8VU_SESSION_ID@@QBEHABV0@@Z			; VU_SESSION_ID::operator==
PUBLIC	??0VU_ID@@QAE@XZ				; VU_ID::VU_ID
PUBLIC	??8VU_ID@@QBE_NABV0@@Z				; VU_ID::operator==
PUBLIC	??9VU_ID@@QBE_NABV0@@Z				; VU_ID::operator!=
PUBLIC	?Id@VuEntity@@QBE?AVVU_ID@@XZ			; VuEntity::Id
PUBLIC	?Type@VuEntity@@QBEGXZ				; VuEntity::Type
PUBLIC	?XPos@VuEntity@@QBEMXZ				; VuEntity::XPos
PUBLIC	?YPos@VuEntity@@QBEMXZ				; VuEntity::YPos
PUBLIC	?ZPos@VuEntity@@QBEMXZ				; VuEntity::ZPos
PUBLIC	?Yaw@VuEntity@@QBEMXZ				; VuEntity::Yaw
PUBLIC	?Pitch@VuEntity@@QBEMXZ				; VuEntity::Pitch
PUBLIC	?Roll@VuEntity@@QBEMXZ				; VuEntity::Roll
PUBLIC	?EntityType@VuEntity@@QBEPAUVuEntityType@@XZ	; VuEntity::EntityType
PUBLIC	?EntityDriver@VuEntity@@QAEPAVVuDriver@@XZ	; VuEntity::EntityDriver
PUBLIC	??B?$VuBin@VVuSessionEntity@@@@QBE_NXZ		; VuBin<VuSessionEntity>::operator bool
PUBLIC	?get@?$VuBin@VVuSessionEntity@@@@QBEPAVVuSessionEntity@@XZ ; VuBin<VuSessionEntity>::get
PUBLIC	?get@?$VuBin@VFalconEntity@@@@QBEPAVFalconEntity@@XZ ; VuBin<FalconEntity>::get
PUBLIC	?GetFlyState@FalconSessionEntity@@QBEEXZ	; FalconSessionEntity::GetFlyState
PUBLIC	?GetGame@FalconSessionEntity@@QAEPAVFalconGameEntity@@XZ ; FalconSessionEntity::GetGame
PUBLIC	?IsSetFalcFlag@FalconEntity@@QAEHH@Z		; FalconEntity::IsSetFalcFlag
PUBLIC	?UnSetFELocalFlag@FalconEntity@@QAEXH@Z		; FalconEntity::UnSetFELocalFlag
PUBLIC	?IsSetFELocalFlag@FalconEntity@@QAEHH@Z		; FalconEntity::IsSetFELocalFlag
PUBLIC	?get@?$VuBin@VCampBaseClass@@@@QBEPAVCampBaseClass@@XZ ; VuBin<CampBaseClass>::get
PUBLIC	?GetCallsignIdx@SimBaseClass@@QAEHXZ		; SimBaseClass::GetCallsignIdx
PUBLIC	?GetSlot@SimBaseClass@@QAEHXZ			; SimBaseClass::GetSlot
PUBLIC	?GetSType@SimBaseClass@@QBEEXZ			; SimBaseClass::GetSType
PUBLIC	?IsDying@SimBaseClass@@QBEHXZ			; SimBaseClass::IsDying
PUBLIC	?IsAwake@SimBaseClass@@QBEHXZ			; SimBaseClass::IsAwake
PUBLIC	?IsSetFlag@SimBaseClass@@QBEHH@Z		; SimBaseClass::IsSetFlag
PUBLIC	?IsSetRemoveFlag@SimBaseClass@@QBEHXZ		; SimBaseClass::IsSetRemoveFlag
PUBLIC	?Status@SimBaseClass@@QBEHXZ			; SimBaseClass::Status
PUBLIC	?GetCampaignObject@SimBaseClass@@QAEPAVCampBaseClass@@XZ ; SimBaseClass::GetCampaignObject
PUBLIC	?GetDOFValue@SimMoverClass@@QAEMH@Z		; SimMoverClass::GetDOFValue
PUBLIC	?GetSwitch@SimMoverClass@@QAEHH@Z		; SimMoverClass::GetSwitch
PUBLIC	?GetNumSwitches@SimMoverClass@@QAEHXZ		; SimMoverClass::GetNumSwitches
PUBLIC	?GetNumDOFs@SimMoverClass@@QAEHXZ		; SimMoverClass::GetNumDOFs
PUBLIC	?checked_atan2@@YANNN@Z				; checked_atan2
PUBLIC	??0id@locale@std@@QAE@I@Z			; std::locale::id::id
PUBLIC	?generic_category@std@@YAABVerror_category@1@XZ	; std::generic_category
PUBLIC	?system_category@std@@YAABVerror_category@1@XZ	; std::system_category
PUBLIC	??0error_category@std@@QAE@XZ			; std::error_category::error_category
PUBLIC	??1error_category@std@@UAE@XZ			; std::error_category::~error_category
PUBLIC	?default_error_condition@error_category@std@@UBE?AVerror_condition@2@H@Z ; std::error_category::default_error_condition
PUBLIC	?equivalent@error_category@std@@UBE_NHABVerror_condition@2@@Z ; std::error_category::equivalent
PUBLIC	?equivalent@error_category@std@@UBE_NABVerror_code@2@H@Z ; std::error_category::equivalent
PUBLIC	??8error_category@std@@QBE_NABV01@@Z		; std::error_category::operator==
PUBLIC	??_Gerror_category@std@@UAEPAXI@Z		; std::error_category::`scalar deleting destructor'
PUBLIC	?value@error_code@std@@QBEHXZ			; std::error_code::value
PUBLIC	?category@error_code@std@@QBEABVerror_category@2@XZ ; std::error_code::category
PUBLIC	??0error_condition@std@@QAE@HABVerror_category@1@@Z ; std::error_condition::error_condition
PUBLIC	?value@error_condition@std@@QBEHXZ		; std::error_condition::value
PUBLIC	?category@error_condition@std@@QBEABVerror_category@2@XZ ; std::error_condition::category
PUBLIC	??8error_condition@std@@QBE_NABV01@@Z		; std::error_condition::operator==
PUBLIC	??0_Generic_error_category@std@@QAE@XZ		; std::_Generic_error_category::_Generic_error_category
PUBLIC	?name@_Generic_error_category@std@@UBEPBDXZ	; std::_Generic_error_category::name
PUBLIC	?message@_Generic_error_category@std@@UBE?AV?$basic_string@DU?$char_traits@D@std@@V?$allocator@D@2@@2@H@Z ; std::_Generic_error_category::message
PUBLIC	??1_Generic_error_category@std@@UAE@XZ		; std::_Generic_error_category::~_Generic_error_category
PUBLIC	??_G_Generic_error_category@std@@UAEPAXI@Z	; std::_Generic_error_category::`scalar deleting destructor'
PUBLIC	??0_Iostream_error_category@std@@QAE@XZ		; std::_Iostream_error_category::_Iostream_error_category
PUBLIC	?name@_Iostream_error_category@std@@UBEPBDXZ	; std::_Iostream_error_category::name
PUBLIC	?message@_Iostream_error_category@std@@UBE?AV?$basic_string@DU?$char_traits@D@std@@V?$allocator@D@2@@2@H@Z ; std::_Iostream_error_category::message
PUBLIC	??1_Iostream_error_category@std@@UAE@XZ		; std::_Iostream_error_category::~_Iostream_error_category
PUBLIC	??_G_Iostream_error_category@std@@UAEPAXI@Z	; std::_Iostream_error_category::`scalar deleting destructor'
PUBLIC	??0_System_error_category@std@@QAE@XZ		; std::_System_error_category::_System_error_category
PUBLIC	?name@_System_error_category@std@@UBEPBDXZ	; std::_System_error_category::name
PUBLIC	?message@_System_error_category@std@@UBE?AV?$basic_string@DU?$char_traits@D@std@@V?$allocator@D@2@@2@H@Z ; std::_System_error_category::message
PUBLIC	?default_error_condition@_System_error_category@std@@UBE?AVerror_condition@2@H@Z ; std::_System_error_category::default_error_condition
PUBLIC	??1_System_error_category@std@@UAE@XZ		; std::_System_error_category::~_System_error_category
PUBLIC	??_G_System_error_category@std@@UAEPAXI@Z	; std::_System_error_category::`scalar deleting destructor'
PUBLIC	?GetColor@TeamClass@@QAEHXZ			; TeamClass::GetColor
PUBLIC	?ObjectDeaggLevel@PlayerOptionsClass@@QAEHXZ	; PlayerOptionsClass::ObjectDeaggLevel
PUBLIC	?BuildingDeaggLevel@PlayerOptionsClass@@QAEHXZ	; PlayerOptionsClass::BuildingDeaggLevel
PUBLIC	?DisplayInCockpit@OTWDriverClass@@QAEHXZ	; OTWDriverClass::DisplayInCockpit
PUBLIC	?SetActive@OTWDriverClass@@QAEXH@Z		; OTWDriverClass::SetActive
PUBLIC	?GetSType@CampBaseClass@@QBEEXZ			; CampBaseClass::GetSType
PUBLIC	??1UnitFilter@@UAE@XZ				; UnitFilter::~UnitFilter
PUBLIC	?Compare@UnitFilter@@UAEHPAVVuEntity@@0@Z	; UnitFilter::Compare
PUBLIC	?Copy@UnitFilter@@UAEPAVVuFilter@@XZ		; UnitFilter::Copy
PUBLIC	??_GUnitFilter@@UAEPAXI@Z			; UnitFilter::`scalar deleting destructor'
PUBLIC	??1ObjFilter@@UAE@XZ				; ObjFilter::~ObjFilter
PUBLIC	?Compare@ObjFilter@@UAEHPAVVuEntity@@0@Z	; ObjFilter::Compare
PUBLIC	?Copy@ObjFilter@@UAEPAVVuFilter@@XZ		; ObjFilter::Copy
PUBLIC	??_GObjFilter@@UAEPAXI@Z			; ObjFilter::`scalar deleting destructor'
PUBLIC	??0SimulationDriver@@QAE@XZ			; SimulationDriver::SimulationDriver
PUBLIC	??1SimulationDriver@@QAE@XZ			; SimulationDriver::~SimulationDriver
PUBLIC	?Startup@SimulationDriver@@QAEXXZ		; SimulationDriver::Startup
PUBLIC	?Cleanup@SimulationDriver@@QAEXXZ		; SimulationDriver::Cleanup
PUBLIC	?Cycle@SimulationDriver@@QAEXXZ			; SimulationDriver::Cycle
PUBLIC	?Enter@SimulationDriver@@QAEXXZ			; SimulationDriver::Enter
PUBLIC	?Exit@SimulationDriver@@QAEXXZ			; SimulationDriver::Exit
PUBLIC	?RunningDogfight@SimulationDriver@@QBE_NXZ	; SimulationDriver::RunningDogfight
PUBLIC	?RunningTactical@SimulationDriver@@QBE_NXZ	; SimulationDriver::RunningTactical
PUBLIC	?Pause@SimulationDriver@@QAEXXZ			; SimulationDriver::Pause
PUBLIC	?NoPause@SimulationDriver@@QAEXXZ		; SimulationDriver::NoPause
PUBLIC	?TogglePause@SimulationDriver@@QAEXXZ		; SimulationDriver::TogglePause
PUBLIC	?SetFrameDescription@SimulationDriver@@QAEXHH@Z	; SimulationDriver::SetFrameDescription
PUBLIC	?SetPlayerEntity@SimulationDriver@@QAEXPAVSimMoverClass@@@Z ; SimulationDriver::SetPlayerEntity
PUBLIC	?GetPlayerAircraft@SimulationDriver@@QBEPAVAircraftClass@@XZ ; SimulationDriver::GetPlayerAircraft
PUBLIC	?UpdateIAStats@SimulationDriver@@QAEXPAVSimBaseClass@@@Z ; SimulationDriver::UpdateIAStats
PUBLIC	?FindNearestThreat@SimulationDriver@@QAEPAVSimBaseClass@@PAM00@Z ; SimulationDriver::FindNearestThreat
PUBLIC	?FindNearestThreat@SimulationDriver@@QAEPAVSimBaseClass@@PAF0PAM@Z ; SimulationDriver::FindNearestThreat
PUBLIC	?FindNearestThreat@SimulationDriver@@QAEPAVSimBaseClass@@PAVAircraftClass@@PAF1PAM@Z ; SimulationDriver::FindNearestThreat
PUBLIC	?FindNearestEnemyPlane@SimulationDriver@@QAEPAVSimBaseClass@@PAVAircraftClass@@PAF1PAM@Z ; SimulationDriver::FindNearestEnemyPlane
PUBLIC	?FindNearestCampThreat@SimulationDriver@@QAEPAVCampBaseClass@@PAVAircraftClass@@PAF1PAM@Z ; SimulationDriver::FindNearestCampThreat
PUBLIC	?FindNearestCampEnemy@SimulationDriver@@QAEPAVCampBaseClass@@PAVAircraftClass@@PAF1PAM@Z ; SimulationDriver::FindNearestCampEnemy
PUBLIC	?FindNearestTraffic@SimulationDriver@@QAEPAVSimBaseClass@@PAVAircraftClass@@PAVObjectiveClass@@PAM@Z ; SimulationDriver::FindNearestTraffic
PUBLIC	?FindTrafficConflict@SimulationDriver@@QAEXPAVSimBaseClass@@PAVAircraftClass@@PAVObjectiveClass@@@Z ; SimulationDriver::FindTrafficConflict
PUBLIC	?UpdateRemoteData@SimulationDriver@@QAEXXZ	; SimulationDriver::UpdateRemoteData
PUBLIC	?SetAVTR@SimulationDriver@@QAEXH@Z		; SimulationDriver::SetAVTR
PUBLIC	?AddToFeatureList@SimulationDriver@@QAEXPAVVuEntity@@@Z ; SimulationDriver::AddToFeatureList
PUBLIC	?AddToObjectList@SimulationDriver@@QAEXPAVVuEntity@@@Z ; SimulationDriver::AddToObjectList
PUBLIC	?AddToCampUnitList@SimulationDriver@@QAEXPAVVuEntity@@@Z ; SimulationDriver::AddToCampUnitList
PUBLIC	?AddToCampFeatList@SimulationDriver@@QAEXPAVVuEntity@@@Z ; SimulationDriver::AddToCampFeatList
PUBLIC	?AddToCombUnitList@SimulationDriver@@QAEXPAVVuEntity@@@Z ; SimulationDriver::AddToCombUnitList
PUBLIC	?AddToCombFeatList@SimulationDriver@@QAEXPAVVuEntity@@@Z ; SimulationDriver::AddToCombFeatList
PUBLIC	?RemoveFromFeatureList@SimulationDriver@@QAEXPAVVuEntity@@@Z ; SimulationDriver::RemoveFromFeatureList
PUBLIC	?RemoveFromObjectList@SimulationDriver@@QAEXPAVVuEntity@@@Z ; SimulationDriver::RemoveFromObjectList
PUBLIC	?RemoveFromCampUnitList@SimulationDriver@@QAEXPAVVuEntity@@@Z ; SimulationDriver::RemoveFromCampUnitList
PUBLIC	?RemoveFromCampFeatList@SimulationDriver@@QAEXPAVVuEntity@@@Z ; SimulationDriver::RemoveFromCampFeatList
PUBLIC	?InitACMIRecord@SimulationDriver@@QAEXXZ	; SimulationDriver::InitACMIRecord
PUBLIC	?POVKludgeFunction@SimulationDriver@@QAEXK@Z	; SimulationDriver::POVKludgeFunction
PUBLIC	?InitializeSimMemoryPools@SimulationDriver@@QAEXXZ ; SimulationDriver::InitializeSimMemoryPools
PUBLIC	?ReleaseSimMemoryPools@SimulationDriver@@QAEXXZ	; SimulationDriver::ReleaseSimMemoryPools
PUBLIC	?ShrinkSimMemoryPools@SimulationDriver@@QAEXXZ	; SimulationDriver::ShrinkSimMemoryPools
PUBLIC	?WakeCampaignBase@SimulationDriver@@QAEXHPAVCampBaseClass@@PAVTailInsertList@@@Z ; SimulationDriver::WakeCampaignBase
PUBLIC	?WakeObject@SimulationDriver@@QAEXPAVSimBaseClass@@@Z ; SimulationDriver::WakeObject
PUBLIC	?SleepCampaignFlight@SimulationDriver@@QAEXPAVTailInsertList@@@Z ; SimulationDriver::SleepCampaignFlight
PUBLIC	?SleepObject@SimulationDriver@@QAEXPAVSimBaseClass@@@Z ; SimulationDriver::SleepObject
PUBLIC	?UpdateEntityLists@SimulationDriver@@AAEXXZ	; SimulationDriver::UpdateEntityLists
PUBLIC	?CurrentTarget@SensorClass@@QAEPAVSimObjectType@@XZ ; SensorClass::CurrentTarget
PUBLIC	?IsSetBombFlag@BombClass@@QAEHH@Z		; BombClass::IsSetBombFlag
PUBLIC	?IsRecording@ACMIRecorder@@QAEHXZ		; ACMIRecorder::IsRecording
PUBLIC	?BaseData@SimObjectType@@QAEPAVFalconEntity@@XZ	; SimObjectType::BaseData
PUBLIC	?Label@DrawableBSP@@QAEPADXZ			; DrawableBSP::Label
PUBLIC	??$construct@PADAAPAD@?$_Wrap_alloc@V?$allocator@D@std@@@std@@QAEXPAPADAAPAD@Z ; std::_Wrap_alloc<std::allocator<char> >::construct<char *,char * &>
PUBLIC	??$destroy@PAD@?$_Wrap_alloc@V?$allocator@D@std@@@std@@QAEXPAPAD@Z ; std::_Wrap_alloc<std::allocator<char> >::destroy<char *>
PUBLIC	??$addressof@D@std@@YAPADAAD@Z			; std::addressof<char>
PUBLIC	??$_Allocate@D@std@@YAPADIPAD@Z			; std::_Allocate<char>
PUBLIC	??$forward@AAPAD@std@@YAAAPADAAPAD@Z		; std::forward<char * &>
PUBLIC	??$construct@PADAAPAD@?$allocator_traits@V?$allocator@D@std@@@std@@SAXAAV?$allocator@D@1@PAPADAAPAD@Z ; std::allocator_traits<std::allocator<char> >::construct<char *,char * &>
PUBLIC	??$destroy@PAD@?$allocator_traits@V?$allocator@D@std@@@std@@SAXAAV?$allocator@D@1@PAPAD@Z ; std::allocator_traits<std::allocator<char> >::destroy<char *>
PUBLIC	??$construct@PADAAPAD@?$allocator@D@std@@QAEXPAPADAAPAD@Z ; std::allocator<char>::construct<char *,char * &>
PUBLIC	??$destroy@PAD@?$allocator@D@std@@QAEXPAPAD@Z	; std::allocator<char>::destroy<char *>
PUBLIC	??_7error_category@std@@6B@			; std::error_category::`vftable'
PUBLIC	??_7_Generic_error_category@std@@6B@		; std::_Generic_error_category::`vftable'
PUBLIC	??_C@_07DCLBNMLN@generic?$AA@			; `string'
PUBLIC	??_C@_0O@BFJCFAAK@unknown?5error?$AA@		; `string'
PUBLIC	??_7_Iostream_error_category@std@@6B@		; std::_Iostream_error_category::`vftable'
PUBLIC	??_C@_08LLGCOLLL@iostream?$AA@			; `string'
PUBLIC	??_C@_0BG@PADBLCHM@iostream?5stream?5error?$AA@	; `string'
PUBLIC	??_7_System_error_category@std@@6B@		; std::_System_error_category::`vftable'
PUBLIC	??_C@_06FHFOAHML@system?$AA@			; `string'
PUBLIC	?_Generic_object@?$_Error_objects@H@std@@2V_Generic_error_category@2@A ; std::_Error_objects<int>::_Generic_object
PUBLIC	?_Iostream_object@?$_Error_objects@H@std@@2V_Iostream_error_category@2@A ; std::_Error_objects<int>::_Iostream_object
PUBLIC	?_System_object@?$_Error_objects@H@std@@2V_System_error_category@2@A ; std::_Error_objects<int>::_System_object
PUBLIC	?id@?$num_put@DV?$back_insert_iterator@V?$basic_string@DU?$char_traits@D@std@@V?$allocator@D@2@@std@@@std@@@std@@2V0locale@2@A ; std::num_put<char,std::back_insert_iterator<std::basic_string<char,std::char_traits<char>,std::allocator<char> > > >::id
PUBLIC	?id@?$num_put@_WV?$back_insert_iterator@V?$basic_string@_WU?$char_traits@_W@std@@V?$allocator@_W@2@@std@@@std@@@std@@2V0locale@2@A ; std::num_put<wchar_t,std::back_insert_iterator<std::basic_string<wchar_t,std::char_traits<wchar_t>,std::allocator<wchar_t> > > >::id
PUBLIC	??_7UnitFilter@@6B@				; UnitFilter::`vftable'
PUBLIC	??_7ObjFilter@@6B@				; ObjFilter::`vftable'
PUBLIC	?SimDriver@@3VSimulationDriver@@A		; SimDriver
PUBLIC	??_C@_02GMLFBBN@wb?$AA@				; `string'
PUBLIC	??_C@_03MHODNABG@acm?$AA@			; `string'
PUBLIC	??_C@_07KFGPMNDK@lastflt?$AA@			; `string'
PUBLIC	??_C@_08KHFFPPFI@joy1?4dat?$AA@			; `string'
PUBLIC	??_C@_0BH@MCIBMPHE@No?5Joystick?5Connected?6?$AA@ ; `string'
PUBLIC	??_C@_0BG@JDDPNFOC@10?5Instrument?5Landing?$AA@	; `string'
PUBLIC	??_C@_0CD@CFEJHFML@Initializing?5Sim?5Memory?5Pools?4?4?4@ ; `string'
PUBLIC	??_C@_0CA@GIKOJPJG@Releasing?5Sim?5Memory?5Pools?4?4?4?4?6?$AA@ ; `string'
PUBLIC	?id@?$numpunct@D@std@@2V0locale@2@A		; std::numpunct<char>::id
PUBLIC	?id@?$numpunct@_W@std@@2V0locale@2@A		; std::numpunct<wchar_t>::id
PUBLIC	??_C@_0BI@CFPLBAOH@invalid?5string?5position?$AA@ ; `string'
PUBLIC	??_C@_0BA@JFNIOLAK@string?5too?5long?$AA@	; `string'
PUBLIC	??_R0?AVVuFilter@@@8				; VuFilter `RTTI Type Descriptor'
PUBLIC	??_R3VuFilter@@8				; VuFilter::`RTTI Class Hierarchy Descriptor'
PUBLIC	??_R2VuFilter@@8				; VuFilter::`RTTI Base Class Array'
PUBLIC	??_R1A@?0A@EA@VuFilter@@8			; VuFilter::`RTTI Base Class Descriptor at (0,-1,0,64)'
PUBLIC	??_R4error_category@std@@6B@			; std::error_category::`RTTI Complete Object Locator'
PUBLIC	??_R0?AVerror_category@std@@@8			; std::error_category `RTTI Type Descriptor'
PUBLIC	??_R3error_category@std@@8			; std::error_category::`RTTI Class Hierarchy Descriptor'
PUBLIC	??_R2error_category@std@@8			; std::error_category::`RTTI Base Class Array'
PUBLIC	??_R1A@?0A@EA@error_category@std@@8		; std::error_category::`RTTI Base Class Descriptor at (0,-1,0,64)'
PUBLIC	??_R4_Generic_error_category@std@@6B@		; std::_Generic_error_category::`RTTI Complete Object Locator'
PUBLIC	??_R0?AV_Generic_error_category@std@@@8		; std::_Generic_error_category `RTTI Type Descriptor'
PUBLIC	??_R3_Generic_error_category@std@@8		; std::_Generic_error_category::`RTTI Class Hierarchy Descriptor'
PUBLIC	??_R2_Generic_error_category@std@@8		; std::_Generic_error_category::`RTTI Base Class Array'
PUBLIC	??_R1A@?0A@EA@_Generic_error_category@std@@8	; std::_Generic_error_category::`RTTI Base Class Descriptor at (0,-1,0,64)'
PUBLIC	??_R4_Iostream_error_category@std@@6B@		; std::_Iostream_error_category::`RTTI Complete Object Locator'
PUBLIC	??_R0?AV_Iostream_error_category@std@@@8	; std::_Iostream_error_category `RTTI Type Descriptor'
PUBLIC	??_R3_Iostream_error_category@std@@8		; std::_Iostream_error_category::`RTTI Class Hierarchy Descriptor'
PUBLIC	??_R2_Iostream_error_category@std@@8		; std::_Iostream_error_category::`RTTI Base Class Array'
PUBLIC	??_R1A@?0A@EA@_Iostream_error_category@std@@8	; std::_Iostream_error_category::`RTTI Base Class Descriptor at (0,-1,0,64)'
PUBLIC	??_R4_System_error_category@std@@6B@		; std::_System_error_category::`RTTI Complete Object Locator'
PUBLIC	??_R0?AV_System_error_category@std@@@8		; std::_System_error_category `RTTI Type Descriptor'
PUBLIC	??_R3_System_error_category@std@@8		; std::_System_error_category::`RTTI Class Hierarchy Descriptor'
PUBLIC	??_R2_System_error_category@std@@8		; std::_System_error_category::`RTTI Base Class Array'
PUBLIC	??_R1A@?0A@EA@_System_error_category@std@@8	; std::_System_error_category::`RTTI Base Class Descriptor at (0,-1,0,64)'
PUBLIC	??_R4UnitFilter@@6B@				; UnitFilter::`RTTI Complete Object Locator'
PUBLIC	??_R0?AVUnitFilter@@@8				; UnitFilter `RTTI Type Descriptor'
PUBLIC	??_R3UnitFilter@@8				; UnitFilter::`RTTI Class Hierarchy Descriptor'
PUBLIC	??_R2UnitFilter@@8				; UnitFilter::`RTTI Base Class Array'
PUBLIC	??_R1A@?0A@EA@UnitFilter@@8			; UnitFilter::`RTTI Base Class Descriptor at (0,-1,0,64)'
PUBLIC	??_R4ObjFilter@@6B@				; ObjFilter::`RTTI Complete Object Locator'
PUBLIC	??_R0?AVObjFilter@@@8				; ObjFilter `RTTI Type Descriptor'
PUBLIC	??_R3ObjFilter@@8				; ObjFilter::`RTTI Class Hierarchy Descriptor'
PUBLIC	??_R2ObjFilter@@8				; ObjFilter::`RTTI Base Class Array'
PUBLIC	??_R1A@?0A@EA@ObjFilter@@8			; ObjFilter::`RTTI Base Class Descriptor at (0,-1,0,64)'
PUBLIC	__real@00000000
PUBLIC	__real@0000000000000000
PUBLIC	__real@3a83126f
PUBLIC	__real@3c23d70a
PUBLIC	__real@3d4ccccd
PUBLIC	__real@3f000000
PUBLIC	__real@3f800000
PUBLIC	__real@3ff921fb54442d18
PUBLIC	__real@40000000
PUBLIC	__real@400921fb54442d18
PUBLIC	__real@40a00000
PUBLIC	__real@41200000
PUBLIC	__real@42652ee1
PUBLIC	__real@42c80000
PUBLIC	__real@43b40000
PUBLIC	__real@447a0000
PUBLIC	__real@8000000000000000
PUBLIC	__real@bff921fb54442d18
PUBLIC	__real@c8435000
PUBLIC	__xmm@41f00000000000000000000000000000
PUBLIC	__xmm@80000000800000008000000080000000
EXTRN	__purecall:PROC
EXTRN	??2@YAPAXI@Z:PROC				; operator new
EXTRN	??3@YAXPAX@Z:PROC				; operator delete
EXTRN	_atexit:PROC
EXTRN	_atan:PROC
EXTRN	_fabs:PROC
EXTRN	_memmove:PROC
EXTRN	_memcpy:PROC
EXTRN	_strlen:PROC
EXTRN	_strcmpi:PROC
EXTRN	_fclose:PROC
EXTRN	?_Xbad_alloc@std@@YAXXZ:PROC			; std::_Xbad_alloc
EXTRN	?_Xlength_error@std@@YAXPBD@Z:PROC		; std::_Xlength_error
EXTRN	?_Xout_of_range@std@@YAXPBD@Z:PROC		; std::_Xout_of_range
EXTRN	?VuReferenceEntity@@YAHPAVVuEntity@@@Z:PROC	; VuReferenceEntity
EXTRN	?VuDeReferenceEntity@@YAHPAVVuEntity@@@Z:PROC	; VuDeReferenceEntity
EXTRN	?SetPosition@VuEntity@@QAEXMMM@Z:PROC		; VuEntity::SetPosition
EXTRN	?IsLocal@VuEntity@@QBEEXZ:PROC			; VuEntity::IsLocal
EXTRN	__imp__SetEvent@4:PROC
EXTRN	?Register@VuCollection@@QAEXXZ:PROC		; VuCollection::Register
EXTRN	?Unregister@VuCollection@@QAEXXZ:PROC		; VuCollection::Unregister
EXTRN	?Remove@VuCollection@@QAEHPAVVuEntity@@@Z:PROC	; VuCollection::Remove
EXTRN	??0VuLinkedList@@QAE@PAVVuFilter@@@Z:PROC	; VuLinkedList::VuLinkedList
EXTRN	?Remove@VuDatabase@@QAEHPAVVuEntity@@@Z:PROC	; VuDatabase::Remove
EXTRN	??1VuFilter@@UAE@XZ:PROC			; VuFilter::~VuFilter
EXTRN	?Notice@VuFilter@@UAEEPAVVuMessage@@@Z:PROC	; VuFilter::Notice
EXTRN	??0VuListIterator@@QAE@PAVVuLinkedList@@@Z:PROC	; VuListIterator::VuListIterator
EXTRN	??1VuListIterator@@UAE@XZ:PROC			; VuListIterator::~VuListIterator
EXTRN	?GetFirst@VuListIterator@@QAEPAVVuEntity@@XZ:PROC ; VuListIterator::GetFirst
EXTRN	?GetNext@VuListIterator@@QAEPAVVuEntity@@XZ:PROC ; VuListIterator::GetNext
EXTRN	??0VuGridIterator@@QAE@PAVVuGridTree@@MMM@Z:PROC ; VuGridIterator::VuGridIterator
EXTRN	??1VuGridIterator@@UAE@XZ:PROC			; VuGridIterator::~VuGridIterator
EXTRN	?GetFirst@VuGridIterator@@QAEPAVVuEntity@@XZ:PROC ; VuGridIterator::GetFirst
EXTRN	?GetNext@VuGridIterator@@QAEPAVVuEntity@@XZ:PROC ; VuGridIterator::GetNext
EXTRN	?Game@VuSessionEntity@@QAEPAVVuGameEntity@@XZ:PROC ; VuSessionEntity::Game
EXTRN	?GetGameType@FalconGameEntity@@QAE?AW4FalconGameType@@XZ:PROC ; FalconGameEntity::GetGameType
EXTRN	?SetFlyState@FalconSessionEntity@@QAEXE@Z:PROC	; FalconSessionEntity::SetFlyState
EXTRN	_F4SoundStop:PROC
EXTRN	_F4HearVoices:PROC
EXTRN	_F4SilenceVoices:PROC
EXTRN	_F4SoundFXSetDist:PROC
EXTRN	_F4SoundFXPositionDriver:PROC
EXTRN	_F4SoundFXEnd:PROC
EXTRN	?SetCampaignObject@SimBaseClass@@QAEXPAVCampBaseClass@@@Z:PROC ; SimBaseClass::SetCampaignObject
EXTRN	_MonoPrint:PROC
EXTRN	?F4IsBadReadPtr@@YA_NPBXI@Z:PROC		; F4IsBadReadPtr
EXTRN	??_Eerror_category@std@@UAEPAXI@Z:PROC		; std::error_category::`vector deleting destructor'
EXTRN	?_Syserror_map@std@@YAPBDH@Z:PROC		; std::_Syserror_map
EXTRN	?_Winerror_map@std@@YAPBDH@Z:PROC		; std::_Winerror_map
EXTRN	??_E_Generic_error_category@std@@UAEPAXI@Z:PROC	; std::_Generic_error_category::`vector deleting destructor'
EXTRN	??_E_Iostream_error_category@std@@UAEPAXI@Z:PROC ; std::_Iostream_error_category::`vector deleting destructor'
EXTRN	??_E_System_error_category@std@@UAEPAXI@Z:PROC	; std::_System_error_category::`vector deleting destructor'
EXTRN	?Init@SIMLIB_IO_CLASS@@QAEHPAD@Z:PROC		; SIMLIB_IO_CLASS::Init
EXTRN	?Update@PilotInputs@@QAEXXZ:PROC		; PilotInputs::Update
EXTRN	?FalconSendMessage@@YAXPAVVuMessage@@H@Z:PROC	; FalconSendMessage
EXTRN	?SimCompare@@YAHPAVVuEntity@@0@Z:PROC		; SimCompare
EXTRN	??0FalconPrivateList@@QAE@PAVVuFilter@@@Z:PROC	; FalconPrivateList::FalconPrivateList
EXTRN	??0FalconPrivateOrderedList@@QAE@PAVVuFilter@@@Z:PROC ; FalconPrivateOrderedList::FalconPrivateOrderedList
EXTRN	?ForcedInsert@FalconPrivateOrderedList@@QAEHPAVVuEntity@@@Z:PROC ; FalconPrivateOrderedList::ForcedInsert
EXTRN	?OpenCampFile@@YAPAU_iobuf@@PAD00@Z:PROC	; OpenCampFile
EXTRN	?GetTTRelations@@YAHEE@Z:PROC			; GetTTRelations
EXTRN	?UpdateViewpoints@OTWDriverClass@@QAEXXZ:PROC	; OTWDriverClass::UpdateViewpoints
EXTRN	?Exit@OTWDriverClass@@QAEHXZ:PROC		; OTWDriverClass::Exit
EXTRN	?GetOTWDisplayMode@OTWDriverClass@@QAE?AW4OTWDisplayMode@1@XZ:PROC ; OTWDriverClass::GetOTWDisplayMode
EXTRN	?GetGroundLevel@OTWDriverClass@@QAEMMMPAUTpoint@@@Z:PROC ; OTWDriverClass::GetGroundLevel
EXTRN	?ViewTiltHold@OTWDriverClass@@QAEXXZ:PROC	; OTWDriverClass::ViewTiltHold
EXTRN	?ViewSpinHold@OTWDriverClass@@QAEXXZ:PROC	; OTWDriverClass::ViewSpinHold
EXTRN	?DoSfxActiveList@OTWDriverClass@@QAEXXZ:PROC	; OTWDriverClass::DoSfxActiveList
EXTRN	?GetComponentLead@CampBaseClass@@QAEPAVSimBaseClass@@XZ:PROC ; CampBaseClass::GetComponentLead
EXTRN	?GetSpotted@CampBaseClass@@QAEHE@Z:PROC		; CampBaseClass::GetSpotted
EXTRN	??0UnitFilter@@QAE@EEGE@Z:PROC			; UnitFilter::UnitFilter
EXTRN	?Test@UnitFilter@@UAEEPAVVuEntity@@@Z:PROC	; UnitFilter::Test
EXTRN	?RemoveTest@UnitFilter@@UAEEPAVVuEntity@@@Z:PROC ; UnitFilter::RemoveTest
EXTRN	??_EUnitFilter@@UAEPAXI@Z:PROC			; UnitFilter::`vector deleting destructor'
EXTRN	??0ObjFilter@@QAE@G@Z:PROC			; ObjFilter::ObjFilter
EXTRN	?Test@ObjFilter@@UAEEPAVVuEntity@@@Z:PROC	; ObjFilter::Test
EXTRN	?RemoveTest@ObjFilter@@UAEEPAVVuEntity@@@Z:PROC	; ObjFilter::RemoveTest
EXTRN	??_EObjFilter@@UAEPAXI@Z:PROC			; ObjFilter::`vector deleting destructor'
EXTRN	?UpdateATC@SimulationDriver@@AAEXXZ:PROC	; SimulationDriver::UpdateATC
EXTRN	??0AllSimFilter@@QAE@XZ:PROC			; AllSimFilter::AllSimFilter
EXTRN	??1AllSimFilter@@UAE@XZ:PROC			; AllSimFilter::~AllSimFilter
EXTRN	??0CombinedSimFilter@@QAE@XZ:PROC		; CombinedSimFilter::CombinedSimFilter
EXTRN	??1CombinedSimFilter@@UAE@XZ:PROC		; CombinedSimFilter::~CombinedSimFilter
EXTRN	??0SimFeatureFilter@@QAE@XZ:PROC		; SimFeatureFilter::SimFeatureFilter
EXTRN	??1SimFeatureFilter@@UAE@XZ:PROC		; SimFeatureFilter::~SimFeatureFilter
EXTRN	??0SimObjectFilter@@QAE@XZ:PROC			; SimObjectFilter::SimObjectFilter
EXTRN	??1SimObjectFilter@@UAE@XZ:PROC			; SimObjectFilter::~SimObjectFilter
EXTRN	??0SimAirfieldFilter@@QAE@XZ:PROC		; SimAirfieldFilter::SimAirfieldFilter
EXTRN	??1SimAirfieldFilter@@UAE@XZ:PROC		; SimAirfieldFilter::~SimAirfieldFilter
EXTRN	??0SimDynamicTacanFilter@@QAE@XZ:PROC		; SimDynamicTacanFilter::SimDynamicTacanFilter
EXTRN	??1SimDynamicTacanFilter@@UAE@XZ:PROC		; SimDynamicTacanFilter::~SimDynamicTacanFilter
EXTRN	?FindSensor@@YAPAVSensorClass@@PAVSimMoverClass@@H@Z:PROC ; FindSensor
EXTRN	?UpdateDogfight@DogfightClass@@QAEXXZ:PROC	; DogfightClass::UpdateDogfight
EXTRN	?GetTotalVehicles@UnitClass@@QAEHXZ:PROC	; UnitClass::GetTotalVehicles
EXTRN	?ClearData@OwnshipResultsClass@@QAEXXZ:PROC	; OwnshipResultsClass::ClearData
EXTRN	?ReadSimMoverDefinitionData@SimMoverDefinition@@SAXXZ:PROC ; SimMoverDefinition::ReadSimMoverDefinitionData
EXTRN	?FreeSimMoverDefinitionData@SimMoverDefinition@@SAXXZ:PROC ; SimMoverDefinition::FreeSimMoverDefinitionData
EXTRN	?Add@ACMI_Hash@@QAEJVVU_ID@@PADJ@Z:PROC		; ACMI_Hash::Add
EXTRN	?StopRecording@ACMIRecorder@@QAEXXZ:PROC	; ACMIRecorder::StopRecording
EXTRN	?ToggleRecording@ACMIRecorder@@QAEXXZ:PROC	; ACMIRecorder::ToggleRecording
EXTRN	?GenPositionRecord@ACMIRecorder@@QAEXPAUACMIGenPositionRecord@@@Z:PROC ; ACMIRecorder::GenPositionRecord
EXTRN	?AircraftPositionRecord@ACMIRecorder@@QAEXPAUACMIAircraftPositionRecord@@@Z:PROC ; ACMIRecorder::AircraftPositionRecord
EXTRN	?MissilePositionRecord@ACMIRecorder@@QAEXPAUACMIMissilePositionRecord@@@Z:PROC ; ACMIRecorder::MissilePositionRecord
EXTRN	?ChaffPositionRecord@ACMIRecorder@@QAEXPAUACMIChaffPositionRecord@@@Z:PROC ; ACMIRecorder::ChaffPositionRecord
EXTRN	?FlarePositionRecord@ACMIRecorder@@QAEXPAUACMIFlarePositionRecord@@@Z:PROC ; ACMIRecorder::FlarePositionRecord
EXTRN	?FeaturePositionRecord@ACMIRecorder@@QAEXPAUACMIFeaturePositionRecord@@@Z:PROC ; ACMIRecorder::FeaturePositionRecord
EXTRN	?SwitchRecord@ACMIRecorder@@QAEXPAUACMISwitchRecord@@@Z:PROC ; ACMIRecorder::SwitchRecord
EXTRN	?DOFRecord@ACMIRecorder@@QAEXPAUACMIDOFRecord@@@Z:PROC ; ACMIRecorder::DOFRecord
EXTRN	?TodOffsetRecord@ACMIRecorder@@QAEXPAUACMITodOffsetRecord@@@Z:PROC ; ACMIRecorder::TodOffsetRecord
EXTRN	?FeatureStatusRecord@ACMIRecorder@@QAEXPAUACMIFeatureStatusRecord@@@Z:PROC ; ACMIRecorder::FeatureStatusRecord
EXTRN	?OTWViewLeft@@YAXKHPAX@Z:PROC			; OTWViewLeft
EXTRN	?OTWViewRight@@YAXKHPAX@Z:PROC			; OTWViewRight
EXTRN	?OTWViewUp@@YAXKHPAX@Z:PROC			; OTWViewUp
EXTRN	?OTWViewDown@@YAXKHPAX@Z:PROC			; OTWViewDown
EXTRN	?GetVUIDFromChannel@TacanList@@QAEHHW4StationSet@1@W4Domain@1@PAVVU_ID@@PAH3PAM@Z:PROC ; TacanList::GetVUIDFromChannel
EXTRN	?POVDispatch@CockpitManager@@QAEHHHH@Z:PROC	; CockpitManager::POVDispatch
EXTRN	?SetInstrumentMode@NavigationSystem@@QAEXW4Instrument_Mode@1@@Z:PROC ; NavigationSystem::SetInstrumentMode
EXTRN	?ExecIls@NavigationSystem@@QAEXXZ:PROC		; NavigationSystem::ExecIls
EXTRN	?GridToSim@@YAMF@Z:PROC				; GridToSim
EXTRN	?SimToGrid@@YAFM@Z:PROC				; SimToGrid
EXTRN	?SetTimeCompression@@YAXH@Z:PROC		; SetTimeCompression
EXTRN	?ReadAllAirframeData@@YAXXZ:PROC		; ReadAllAirframeData
EXTRN	?FreeAllAirframeData@@YAXXZ:PROC		; FreeAllAirframeData
EXTRN	?RefreshVoiceFreqs@@YAXXZ:PROC			; RefreshVoiceFreqs
EXTRN	?WindHeadingAt@WeatherClass@@QAEMPBUTpoint@@@Z:PROC ; WeatherClass::WindHeadingAt
EXTRN	?CheckPlayerStatus@GameManagerClass@@QAEHPAVFalconEntity@@@Z:PROC ; GameManagerClass::CheckPlayerStatus
EXTRN	?ReadAllRadarData@@YAXXZ:PROC			; ReadAllRadarData
EXTRN	?get_type@tactical_mission@@QAE?AW4tactical_type@@XZ:PROC ; tactical_mission::get_type
EXTRN	?get_title@tactical_mission@@QAEPADXZ:PROC	; tactical_mission::get_title
EXTRN	??0FalconATCMessage@@QAE@VVU_ID@@PAVVuTargetEntity@@E@Z:PROC ; FalconATCMessage::FalconATCMessage
EXTRN	?GraphicsDataPoolInitializeStorage@@YAXXZ:PROC	; GraphicsDataPoolInitializeStorage
EXTRN	?GraphicsDataPoolReleaseStorage@@YAXXZ:PROC	; GraphicsDataPoolReleaseStorage
EXTRN	?FileVerify@@YAHXZ:PROC				; FileVerify
EXTRN	?CalcTransformMatrix@@YAXPAVSimBaseClass@@@Z:PROC ; CalcTransformMatrix
EXTRN	?ReadAllMissileData@@YAXXZ:PROC			; ReadAllMissileData
EXTRN	?ReadAllBombData@@YAXXZ:PROC			; ReadAllBombData
EXTRN	?ReadDigitalBrainData@@YAXXZ:PROC		; ReadDigitalBrainData
EXTRN	?FreeAllMissileData@@YAXXZ:PROC			; FreeAllMissileData
EXTRN	?FreeAllBombData@@YAXXZ:PROC			; FreeAllBombData
EXTRN	?FreeDigitalBrainData@@YAXXZ:PROC		; FreeDigitalBrainData
EXTRN	?JoystickStopAllEffects@@YAXXZ:PROC		; JoystickStopAllEffects
EXTRN	@__security_check_cookie@4:PROC
EXTRN	__CxxThrowException@8:PROC
EXTRN	___CxxFrameHandler3:PROC
EXTRN	?vuDatabase@@3PAVVuDatabase@@A:DWORD		; vuDatabase
EXTRN	?vuLocalSessionEntity@@3V?$VuBin@VVuSessionEntity@@@@A:DWORD ; vuLocalSessionEntity
EXTRN	?vuxGameTime@@3KA:DWORD				; vuxGameTime
EXTRN	?FalconNullId@@3VVU_ID@@A:QWORD			; FalconNullId
EXTRN	?SimLibMinorFrameTime@@3MA:DWORD		; SimLibMinorFrameTime
EXTRN	?SimLibMinorFrameRate@@3MA:DWORD		; SimLibMinorFrameRate
EXTRN	?SimLibMajorFrameTime@@3MA:DWORD		; SimLibMajorFrameTime
EXTRN	?SimLibMajorFrameRate@@3MA:DWORD		; SimLibMajorFrameRate
EXTRN	?SimLibElapsedTime@@3KA:DWORD			; SimLibElapsedTime
EXTRN	?SimLibFrameCount@@3IA:DWORD			; SimLibFrameCount
EXTRN	?SimLibMinorPerMajor@@3HA:DWORD			; SimLibMinorPerMajor
EXTRN	?SimLibElapsedSeconds@@3MA:DWORD		; SimLibElapsedSeconds
EXTRN	?SimLibFrameElapsed@@3MA:DWORD			; SimLibFrameElapsed
EXTRN	?SimLibLastFrameTime@@3MA:DWORD			; SimLibLastFrameTime
EXTRN	??_7type_info@@6B@:QWORD			; type_info::`vftable'
EXTRN	?gxPos@@3HA:DWORD				; gxPos
EXTRN	?gyPos@@3HA:DWORD				; gyPos
EXTRN	?gSelectedCursor@@3HA:DWORD			; gSelectedCursor
EXTRN	?IO@@3VSIMLIB_IO_CLASS@@A:BYTE			; IO
EXTRN	?UserStickInputs@@3VPilotInputs@@A:BYTE		; UserStickInputs
EXTRN	?F4EventFile@@3PAU_iobuf@@A:DWORD		; F4EventFile
EXTRN	?TeamInfo@@3PAPAVTeamClass@@A:BYTE		; TeamInfo
EXTRN	?PlayerOptions@@3VPlayerOptionsClass@@A:BYTE	; PlayerOptions
EXTRN	?OTWDriver@@3VOTWDriverClass@@A:BYTE		; OTWDriver
EXTRN	?wait_for_sim_cleanup@SimulationLoopControl@@2PAXA:DWORD ; SimulationLoopControl::wait_for_sim_cleanup
EXTRN	?wait_for_graphics_cleanup@SimulationLoopControl@@2PAXA:DWORD ; SimulationLoopControl::wait_for_graphics_cleanup
EXTRN	?RealUnitProxList@@3PAVVuGridTree@@A:DWORD	; RealUnitProxList
EXTRN	?SimDogfight@@3VDogfightClass@@A:BYTE		; SimDogfight
EXTRN	?OwnResults@@3VOwnshipResultsClass@@A:BYTE	; OwnResults
EXTRN	?gACMIRec@@3VACMIRecorder@@A:BYTE		; gACMIRec
EXTRN	?ACMIIDTable@@3PAVACMI_Hash@@A:DWORD		; ACMIIDTable
EXTRN	?gTacanList@@3PAVTacanList@@A:DWORD		; gTacanList
EXTRN	?gNavigationSys@@3PAVNavigationSystem@@A:DWORD	; gNavigationSys
EXTRN	?realWeather@@3PAVRealWeather@@A:DWORD		; realWeather
EXTRN	?gameCompressionRatio@@3HA:DWORD		; gameCompressionRatio
EXTRN	?targetCompressionRatio@@3HA:DWORD		; targetCompressionRatio
EXTRN	?GameManager@@3VGameManagerClass@@A:BYTE	; GameManager
EXTRN	?current_tactical_mission@@3PAVtactical_mission@@A:DWORD ; current_tactical_mission
EXTRN	?gNumWeaponsInAir@@3HA:DWORD			; gNumWeaponsInAir
EXTRN	?playerLastMasterMode@@3W4FCCMasterMode@FireControlComputer@@A:DWORD ; playerLastMasterMode
EXTRN	?playerLastSubMode@@3W4FCCSubMode@FireControlComputer@@A:DWORD ; playerLastSubMode
EXTRN	___security_cookie:DWORD
EXTRN	__fltused:DWORD
_BSS	SEGMENT
_piecewise_construct DB 01H DUP (?)
	ALIGN	4

_allocator_arg DB 01H DUP (?)
_BSS	ENDS
;	COMDAT ?_Generic_object@?$_Error_objects@H@std@@2V_Generic_error_category@2@A
_BSS	SEGMENT
?_Generic_object@?$_Error_objects@H@std@@2V_Generic_error_category@2@A DD 01H DUP (?) ; std::_Error_objects<int>::_Generic_object
_BSS	ENDS
;	COMDAT ?_Iostream_object@?$_Error_objects@H@std@@2V_Iostream_error_category@2@A
_BSS	SEGMENT
?_Iostream_object@?$_Error_objects@H@std@@2V_Iostream_error_category@2@A DD 01H DUP (?) ; std::_Error_objects<int>::_Iostream_object
_BSS	ENDS
;	COMDAT ?_System_object@?$_Error_objects@H@std@@2V_System_error_category@2@A
_BSS	SEGMENT
?_System_object@?$_Error_objects@H@std@@2V_System_error_category@2@A DD 01H DUP (?) ; std::_Error_objects<int>::_System_object
_BSS	ENDS
;	COMDAT ?id@?$num_put@DV?$back_insert_iterator@V?$basic_string@DU?$char_traits@D@std@@V?$allocator@D@2@@std@@@std@@@std@@2V0locale@2@A
_BSS	SEGMENT
?id@?$num_put@DV?$back_insert_iterator@V?$basic_string@DU?$char_traits@D@std@@V?$allocator@D@2@@std@@@std@@@std@@2V0locale@2@A DD 01H DUP (?) ; std::num_put<char,std::back_insert_iterator<std::basic_string<char,std::char_traits<char>,std::allocator<char> > > >::id
_BSS	ENDS
;	COMDAT ?id@?$num_put@_WV?$back_insert_iterator@V?$basic_string@_WU?$char_traits@_W@std@@V?$allocator@_W@2@@std@@@std@@@std@@2V0locale@2@A
_BSS	SEGMENT
?id@?$num_put@_WV?$back_insert_iterator@V?$basic_string@_WU?$char_traits@_W@std@@V?$allocator@_W@2@@std@@@std@@@std@@2V0locale@2@A DD 01H DUP (?) ; std::num_put<wchar_t,std::back_insert_iterator<std::basic_string<wchar_t,std::char_traits<wchar_t>,std::allocator<wchar_t> > > >::id
_BSS	ENDS
_BSS	SEGMENT
	ALIGN	4

?SimDriver@@3VSimulationDriver@@A DB 016cH DUP (?)	; SimDriver
_BSS	ENDS
;	COMDAT ?runFrame@?1??Cycle@SimulationDriver@@QAEXXZ@4HA
_BSS	SEGMENT
?runFrame@?1??Cycle@SimulationDriver@@QAEXXZ@4HA DD 01H DUP (?) ; `SimulationDriver::Cycle'::`2'::runFrame
_BSS	ENDS
;	COMDAT ?runGraphics@?1??Cycle@SimulationDriver@@QAEXXZ@4HA
_BSS	SEGMENT
?runGraphics@?1??Cycle@SimulationDriver@@QAEXXZ@4HA DD 01H DUP (?) ; `SimulationDriver::Cycle'::`2'::runGraphics
_BSS	ENDS
;	COMDAT ?id@?$numpunct@D@std@@2V0locale@2@A
_BSS	SEGMENT
?id@?$numpunct@D@std@@2V0locale@2@A DD 01H DUP (?)	; std::numpunct<char>::id
_BSS	ENDS
;	COMDAT ?id@?$numpunct@_W@std@@2V0locale@2@A
_BSS	SEGMENT
?id@?$numpunct@_W@std@@2V0locale@2@A DD 01H DUP (?)	; std::numpunct<wchar_t>::id
_BSS	ENDS
CRT$XCU	SEGMENT
_piecewise_construct$initializer$ DD FLAT:??__Epiecewise_construct@std@@YAXXZ
CRT$XCU	ENDS
;	COMDAT __xmm@80000000800000008000000080000000
CONST	SEGMENT
__xmm@80000000800000008000000080000000 DB 00H, 00H, 00H, 080H, 00H, 00H, 00H
	DB	080H, 00H, 00H, 00H, 080H, 00H, 00H, 00H, 080H
CONST	ENDS
;	COMDAT __xmm@41f00000000000000000000000000000
CONST	SEGMENT
__xmm@41f00000000000000000000000000000 DB 00H, 00H, 00H, 00H, 00H, 00H, 00H
	DB	00H, 00H, 00H, 00H, 00H, 00H, 00H, 0f0H, 'A'
CONST	ENDS
;	COMDAT __real@c8435000
CONST	SEGMENT
__real@c8435000 DD 0c8435000r			; -200000
CONST	ENDS
;	COMDAT __real@bff921fb54442d18
CONST	SEGMENT
__real@bff921fb54442d18 DQ 0bff921fb54442d18r	; -1.5708
CONST	ENDS
;	COMDAT __real@8000000000000000
CONST	SEGMENT
__real@8000000000000000 DQ 08000000000000000r	; -0
CONST	ENDS
;	COMDAT __real@447a0000
CONST	SEGMENT
__real@447a0000 DD 0447a0000r			; 1000
CONST	ENDS
;	COMDAT __real@43b40000
CONST	SEGMENT
__real@43b40000 DD 043b40000r			; 360
CONST	ENDS
;	COMDAT __real@42c80000
CONST	SEGMENT
__real@42c80000 DD 042c80000r			; 100
CONST	ENDS
;	COMDAT __real@42652ee1
CONST	SEGMENT
__real@42652ee1 DD 042652ee1r			; 57.2958
CONST	ENDS
;	COMDAT __real@41200000
CONST	SEGMENT
__real@41200000 DD 041200000r			; 10
CONST	ENDS
;	COMDAT __real@40a00000
CONST	SEGMENT
__real@40a00000 DD 040a00000r			; 5
CONST	ENDS
;	COMDAT __real@400921fb54442d18
CONST	SEGMENT
__real@400921fb54442d18 DQ 0400921fb54442d18r	; 3.14159
CONST	ENDS
;	COMDAT __real@40000000
CONST	SEGMENT
__real@40000000 DD 040000000r			; 2
CONST	ENDS
;	COMDAT __real@3ff921fb54442d18
CONST	SEGMENT
__real@3ff921fb54442d18 DQ 03ff921fb54442d18r	; 1.5708
CONST	ENDS
;	COMDAT __real@3f800000
CONST	SEGMENT
__real@3f800000 DD 03f800000r			; 1
CONST	ENDS
;	COMDAT __real@3f000000
CONST	SEGMENT
__real@3f000000 DD 03f000000r			; 0.5
CONST	ENDS
;	COMDAT __real@3d4ccccd
CONST	SEGMENT
__real@3d4ccccd DD 03d4ccccdr			; 0.05
CONST	ENDS
;	COMDAT __real@3c23d70a
CONST	SEGMENT
__real@3c23d70a DD 03c23d70ar			; 0.01
CONST	ENDS
;	COMDAT __real@3a83126f
CONST	SEGMENT
__real@3a83126f DD 03a83126fr			; 0.001
CONST	ENDS
;	COMDAT __real@0000000000000000
CONST	SEGMENT
__real@0000000000000000 DQ 00000000000000000r	; 0
CONST	ENDS
;	COMDAT __real@00000000
CONST	SEGMENT
__real@00000000 DD 000000000r			; 0
CONST	ENDS
;	COMDAT ??_R1A@?0A@EA@ObjFilter@@8
rdata$r	SEGMENT
??_R1A@?0A@EA@ObjFilter@@8 DD FLAT:??_R0?AVObjFilter@@@8 ; ObjFilter::`RTTI Base Class Descriptor at (0,-1,0,64)'
	DD	01H
	DD	00H
	DD	0ffffffffH
	DD	00H
	DD	040H
	DD	FLAT:??_R3ObjFilter@@8
rdata$r	ENDS
;	COMDAT ??_R2ObjFilter@@8
rdata$r	SEGMENT
??_R2ObjFilter@@8 DD FLAT:??_R1A@?0A@EA@ObjFilter@@8	; ObjFilter::`RTTI Base Class Array'
	DD	FLAT:??_R1A@?0A@EA@VuFilter@@8
rdata$r	ENDS
;	COMDAT ??_R3ObjFilter@@8
rdata$r	SEGMENT
??_R3ObjFilter@@8 DD 00H				; ObjFilter::`RTTI Class Hierarchy Descriptor'
	DD	00H
	DD	02H
	DD	FLAT:??_R2ObjFilter@@8
rdata$r	ENDS
;	COMDAT ??_R0?AVObjFilter@@@8
_DATA	SEGMENT
??_R0?AVObjFilter@@@8 DD FLAT:??_7type_info@@6B@	; ObjFilter `RTTI Type Descriptor'
	DD	00H
	DB	'.?AVObjFilter@@', 00H
_DATA	ENDS
;	COMDAT ??_R4ObjFilter@@6B@
rdata$r	SEGMENT
??_R4ObjFilter@@6B@ DD 00H				; ObjFilter::`RTTI Complete Object Locator'
	DD	00H
	DD	00H
	DD	FLAT:??_R0?AVObjFilter@@@8
	DD	FLAT:??_R3ObjFilter@@8
rdata$r	ENDS
;	COMDAT ??_R1A@?0A@EA@UnitFilter@@8
rdata$r	SEGMENT
??_R1A@?0A@EA@UnitFilter@@8 DD FLAT:??_R0?AVUnitFilter@@@8 ; UnitFilter::`RTTI Base Class Descriptor at (0,-1,0,64)'
	DD	01H
	DD	00H
	DD	0ffffffffH
	DD	00H
	DD	040H
	DD	FLAT:??_R3UnitFilter@@8
rdata$r	ENDS
;	COMDAT ??_R2UnitFilter@@8
rdata$r	SEGMENT
??_R2UnitFilter@@8 DD FLAT:??_R1A@?0A@EA@UnitFilter@@8	; UnitFilter::`RTTI Base Class Array'
	DD	FLAT:??_R1A@?0A@EA@VuFilter@@8
rdata$r	ENDS
;	COMDAT ??_R3UnitFilter@@8
rdata$r	SEGMENT
??_R3UnitFilter@@8 DD 00H				; UnitFilter::`RTTI Class Hierarchy Descriptor'
	DD	00H
	DD	02H
	DD	FLAT:??_R2UnitFilter@@8
rdata$r	ENDS
;	COMDAT ??_R0?AVUnitFilter@@@8
_DATA	SEGMENT
??_R0?AVUnitFilter@@@8 DD FLAT:??_7type_info@@6B@	; UnitFilter `RTTI Type Descriptor'
	DD	00H
	DB	'.?AVUnitFilter@@', 00H
_DATA	ENDS
;	COMDAT ??_R4UnitFilter@@6B@
rdata$r	SEGMENT
??_R4UnitFilter@@6B@ DD 00H				; UnitFilter::`RTTI Complete Object Locator'
	DD	00H
	DD	00H
	DD	FLAT:??_R0?AVUnitFilter@@@8
	DD	FLAT:??_R3UnitFilter@@8
rdata$r	ENDS
;	COMDAT ??_R1A@?0A@EA@_System_error_category@std@@8
rdata$r	SEGMENT
??_R1A@?0A@EA@_System_error_category@std@@8 DD FLAT:??_R0?AV_System_error_category@std@@@8 ; std::_System_error_category::`RTTI Base Class Descriptor at (0,-1,0,64)'
	DD	02H
	DD	00H
	DD	0ffffffffH
	DD	00H
	DD	040H
	DD	FLAT:??_R3_System_error_category@std@@8
rdata$r	ENDS
;	COMDAT ??_R2_System_error_category@std@@8
rdata$r	SEGMENT
??_R2_System_error_category@std@@8 DD FLAT:??_R1A@?0A@EA@_System_error_category@std@@8 ; std::_System_error_category::`RTTI Base Class Array'
	DD	FLAT:??_R1A@?0A@EA@_Generic_error_category@std@@8
	DD	FLAT:??_R1A@?0A@EA@error_category@std@@8
rdata$r	ENDS
;	COMDAT ??_R3_System_error_category@std@@8
rdata$r	SEGMENT
??_R3_System_error_category@std@@8 DD 00H		; std::_System_error_category::`RTTI Class Hierarchy Descriptor'
	DD	00H
	DD	03H
	DD	FLAT:??_R2_System_error_category@std@@8
rdata$r	ENDS
;	COMDAT ??_R0?AV_System_error_category@std@@@8
_DATA	SEGMENT
??_R0?AV_System_error_category@std@@@8 DD FLAT:??_7type_info@@6B@ ; std::_System_error_category `RTTI Type Descriptor'
	DD	00H
	DB	'.?AV_System_error_category@std@@', 00H
_DATA	ENDS
;	COMDAT ??_R4_System_error_category@std@@6B@
rdata$r	SEGMENT
??_R4_System_error_category@std@@6B@ DD 00H		; std::_System_error_category::`RTTI Complete Object Locator'
	DD	00H
	DD	00H
	DD	FLAT:??_R0?AV_System_error_category@std@@@8
	DD	FLAT:??_R3_System_error_category@std@@8
rdata$r	ENDS
;	COMDAT ??_R1A@?0A@EA@_Iostream_error_category@std@@8
rdata$r	SEGMENT
??_R1A@?0A@EA@_Iostream_error_category@std@@8 DD FLAT:??_R0?AV_Iostream_error_category@std@@@8 ; std::_Iostream_error_category::`RTTI Base Class Descriptor at (0,-1,0,64)'
	DD	02H
	DD	00H
	DD	0ffffffffH
	DD	00H
	DD	040H
	DD	FLAT:??_R3_Iostream_error_category@std@@8
rdata$r	ENDS
;	COMDAT ??_R2_Iostream_error_category@std@@8
rdata$r	SEGMENT
??_R2_Iostream_error_category@std@@8 DD FLAT:??_R1A@?0A@EA@_Iostream_error_category@std@@8 ; std::_Iostream_error_category::`RTTI Base Class Array'
	DD	FLAT:??_R1A@?0A@EA@_Generic_error_category@std@@8
	DD	FLAT:??_R1A@?0A@EA@error_category@std@@8
rdata$r	ENDS
;	COMDAT ??_R3_Iostream_error_category@std@@8
rdata$r	SEGMENT
??_R3_Iostream_error_category@std@@8 DD 00H		; std::_Iostream_error_category::`RTTI Class Hierarchy Descriptor'
	DD	00H
	DD	03H
	DD	FLAT:??_R2_Iostream_error_category@std@@8
rdata$r	ENDS
;	COMDAT ??_R0?AV_Iostream_error_category@std@@@8
_DATA	SEGMENT
??_R0?AV_Iostream_error_category@std@@@8 DD FLAT:??_7type_info@@6B@ ; std::_Iostream_error_category `RTTI Type Descriptor'
	DD	00H
	DB	'.?AV_Iostream_error_category@std@@', 00H
_DATA	ENDS
;	COMDAT ??_R4_Iostream_error_category@std@@6B@
rdata$r	SEGMENT
??_R4_Iostream_error_category@std@@6B@ DD 00H		; std::_Iostream_error_category::`RTTI Complete Object Locator'
	DD	00H
	DD	00H
	DD	FLAT:??_R0?AV_Iostream_error_category@std@@@8
	DD	FLAT:??_R3_Iostream_error_category@std@@8
rdata$r	ENDS
;	COMDAT ??_R1A@?0A@EA@_Generic_error_category@std@@8
rdata$r	SEGMENT
??_R1A@?0A@EA@_Generic_error_category@std@@8 DD FLAT:??_R0?AV_Generic_error_category@std@@@8 ; std::_Generic_error_category::`RTTI Base Class Descriptor at (0,-1,0,64)'
	DD	01H
	DD	00H
	DD	0ffffffffH
	DD	00H
	DD	040H
	DD	FLAT:??_R3_Generic_error_category@std@@8
rdata$r	ENDS
;	COMDAT ??_R2_Generic_error_category@std@@8
rdata$r	SEGMENT
??_R2_Generic_error_category@std@@8 DD FLAT:??_R1A@?0A@EA@_Generic_error_category@std@@8 ; std::_Generic_error_category::`RTTI Base Class Array'
	DD	FLAT:??_R1A@?0A@EA@error_category@std@@8
rdata$r	ENDS
;	COMDAT ??_R3_Generic_error_category@std@@8
rdata$r	SEGMENT
??_R3_Generic_error_category@std@@8 DD 00H		; std::_Generic_error_category::`RTTI Class Hierarchy Descriptor'
	DD	00H
	DD	02H
	DD	FLAT:??_R2_Generic_error_category@std@@8
rdata$r	ENDS
;	COMDAT ??_R0?AV_Generic_error_category@std@@@8
_DATA	SEGMENT
??_R0?AV_Generic_error_category@std@@@8 DD FLAT:??_7type_info@@6B@ ; std::_Generic_error_category `RTTI Type Descriptor'
	DD	00H
	DB	'.?AV_Generic_error_category@std@@', 00H
_DATA	ENDS
;	COMDAT ??_R4_Generic_error_category@std@@6B@
rdata$r	SEGMENT
??_R4_Generic_error_category@std@@6B@ DD 00H		; std::_Generic_error_category::`RTTI Complete Object Locator'
	DD	00H
	DD	00H
	DD	FLAT:??_R0?AV_Generic_error_category@std@@@8
	DD	FLAT:??_R3_Generic_error_category@std@@8
rdata$r	ENDS
;	COMDAT ??_R1A@?0A@EA@error_category@std@@8
rdata$r	SEGMENT
??_R1A@?0A@EA@error_category@std@@8 DD FLAT:??_R0?AVerror_category@std@@@8 ; std::error_category::`RTTI Base Class Descriptor at (0,-1,0,64)'
	DD	00H
	DD	00H
	DD	0ffffffffH
	DD	00H
	DD	040H
	DD	FLAT:??_R3error_category@std@@8
rdata$r	ENDS
;	COMDAT ??_R2error_category@std@@8
rdata$r	SEGMENT
??_R2error_category@std@@8 DD FLAT:??_R1A@?0A@EA@error_category@std@@8 ; std::error_category::`RTTI Base Class Array'
rdata$r	ENDS
;	COMDAT ??_R3error_category@std@@8
rdata$r	SEGMENT
??_R3error_category@std@@8 DD 00H			; std::error_category::`RTTI Class Hierarchy Descriptor'
	DD	00H
	DD	01H
	DD	FLAT:??_R2error_category@std@@8
rdata$r	ENDS
;	COMDAT ??_R0?AVerror_category@std@@@8
_DATA	SEGMENT
??_R0?AVerror_category@std@@@8 DD FLAT:??_7type_info@@6B@ ; std::error_category `RTTI Type Descriptor'
	DD	00H
	DB	'.?AVerror_category@std@@', 00H
_DATA	ENDS
;	COMDAT ??_R4error_category@std@@6B@
rdata$r	SEGMENT
??_R4error_category@std@@6B@ DD 00H			; std::error_category::`RTTI Complete Object Locator'
	DD	00H
	DD	00H
	DD	FLAT:??_R0?AVerror_category@std@@@8
	DD	FLAT:??_R3error_category@std@@8
rdata$r	ENDS
;	COMDAT ??_R1A@?0A@EA@VuFilter@@8
rdata$r	SEGMENT
??_R1A@?0A@EA@VuFilter@@8 DD FLAT:??_R0?AVVuFilter@@@8	; VuFilter::`RTTI Base Class Descriptor at (0,-1,0,64)'
	DD	00H
	DD	00H
	DD	0ffffffffH
	DD	00H
	DD	040H
	DD	FLAT:??_R3VuFilter@@8
rdata$r	ENDS
;	COMDAT ??_R2VuFilter@@8
rdata$r	SEGMENT
??_R2VuFilter@@8 DD FLAT:??_R1A@?0A@EA@VuFilter@@8	; VuFilter::`RTTI Base Class Array'
rdata$r	ENDS
;	COMDAT ??_R3VuFilter@@8
rdata$r	SEGMENT
??_R3VuFilter@@8 DD 00H					; VuFilter::`RTTI Class Hierarchy Descriptor'
	DD	00H
	DD	01H
	DD	FLAT:??_R2VuFilter@@8
rdata$r	ENDS
;	COMDAT ??_R0?AVVuFilter@@@8
_DATA	SEGMENT
??_R0?AVVuFilter@@@8 DD FLAT:??_7type_info@@6B@		; VuFilter `RTTI Type Descriptor'
	DD	00H
	DB	'.?AVVuFilter@@', 00H
_DATA	ENDS
;	COMDAT ??_C@_0BA@JFNIOLAK@string?5too?5long?$AA@
CONST	SEGMENT
??_C@_0BA@JFNIOLAK@string?5too?5long?$AA@ DB 'string too long', 00H ; `string'
CONST	ENDS
;	COMDAT ??_C@_0BI@CFPLBAOH@invalid?5string?5position?$AA@
CONST	SEGMENT
??_C@_0BI@CFPLBAOH@invalid?5string?5position?$AA@ DB 'invalid string posi'
	DB	'tion', 00H					; `string'
CONST	ENDS
;	COMDAT ??_C@_0CA@GIKOJPJG@Releasing?5Sim?5Memory?5Pools?4?4?4?4?6?$AA@
CONST	SEGMENT
??_C@_0CA@GIKOJPJG@Releasing?5Sim?5Memory?5Pools?4?4?4?4?6?$AA@ DB 'Relea'
	DB	'sing Sim Memory Pools....', 0aH, 00H	; `string'
CONST	ENDS
;	COMDAT ??_C@_0CD@CFEJHFML@Initializing?5Sim?5Memory?5Pools?4?4?4@
CONST	SEGMENT
??_C@_0CD@CFEJHFML@Initializing?5Sim?5Memory?5Pools?4?4?4@ DB 'Initializi'
	DB	'ng Sim Memory Pools....', 0aH, 00H		; `string'
CONST	ENDS
;	COMDAT ??_C@_0BG@JDDPNFOC@10?5Instrument?5Landing?$AA@
CONST	SEGMENT
??_C@_0BG@JDDPNFOC@10?5Instrument?5Landing?$AA@ DB '10 Instrument Landing'
	DB	00H						; `string'
CONST	ENDS
;	COMDAT ??_C@_0BH@MCIBMPHE@No?5Joystick?5Connected?6?$AA@
CONST	SEGMENT
??_C@_0BH@MCIBMPHE@No?5Joystick?5Connected?6?$AA@ DB 'No Joystick Connect'
	DB	'ed', 0aH, 00H				; `string'
CONST	ENDS
;	COMDAT ??_C@_08KHFFPPFI@joy1?4dat?$AA@
CONST	SEGMENT
??_C@_08KHFFPPFI@joy1?4dat?$AA@ DB 'joy1.dat', 00H	; `string'
CONST	ENDS
;	COMDAT ??_C@_07KFGPMNDK@lastflt?$AA@
CONST	SEGMENT
??_C@_07KFGPMNDK@lastflt?$AA@ DB 'lastflt', 00H		; `string'
CONST	ENDS
;	COMDAT ??_C@_03MHODNABG@acm?$AA@
CONST	SEGMENT
??_C@_03MHODNABG@acm?$AA@ DB 'acm', 00H			; `string'
CONST	ENDS
;	COMDAT ??_C@_02GMLFBBN@wb?$AA@
CONST	SEGMENT
??_C@_02GMLFBBN@wb?$AA@ DB 'wb', 00H			; `string'
CONST	ENDS
;	COMDAT ??_7ObjFilter@@6B@
CONST	SEGMENT
??_7ObjFilter@@6B@ DD FLAT:??_R4ObjFilter@@6B@		; ObjFilter::`vftable'
	DD	FLAT:??_EObjFilter@@UAEPAXI@Z
	DD	FLAT:?Compare@ObjFilter@@UAEHPAVVuEntity@@0@Z
	DD	FLAT:?Test@ObjFilter@@UAEEPAVVuEntity@@@Z
	DD	FLAT:?RemoveTest@ObjFilter@@UAEEPAVVuEntity@@@Z
	DD	FLAT:?Notice@VuFilter@@UAEEPAVVuMessage@@@Z
	DD	FLAT:?Copy@ObjFilter@@UAEPAVVuFilter@@XZ
CONST	ENDS
;	COMDAT ??_7UnitFilter@@6B@
CONST	SEGMENT
??_7UnitFilter@@6B@ DD FLAT:??_R4UnitFilter@@6B@	; UnitFilter::`vftable'
	DD	FLAT:??_EUnitFilter@@UAEPAXI@Z
	DD	FLAT:?Compare@UnitFilter@@UAEHPAVVuEntity@@0@Z
	DD	FLAT:?Test@UnitFilter@@UAEEPAVVuEntity@@@Z
	DD	FLAT:?RemoveTest@UnitFilter@@UAEEPAVVuEntity@@@Z
	DD	FLAT:?Notice@VuFilter@@UAEEPAVVuMessage@@@Z
	DD	FLAT:?Copy@UnitFilter@@UAEPAVVuFilter@@XZ
CONST	ENDS
;	COMDAT ??_C@_06FHFOAHML@system?$AA@
CONST	SEGMENT
??_C@_06FHFOAHML@system?$AA@ DB 'system', 00H		; `string'
CONST	ENDS
;	COMDAT ??_7_System_error_category@std@@6B@
CONST	SEGMENT
??_7_System_error_category@std@@6B@ DD FLAT:??_R4_System_error_category@std@@6B@ ; std::_System_error_category::`vftable'
	DD	FLAT:??_E_System_error_category@std@@UAEPAXI@Z
	DD	FLAT:?name@_System_error_category@std@@UBEPBDXZ
	DD	FLAT:?message@_System_error_category@std@@UBE?AV?$basic_string@DU?$char_traits@D@std@@V?$allocator@D@2@@2@H@Z
	DD	FLAT:?default_error_condition@_System_error_category@std@@UBE?AVerror_condition@2@H@Z
	DD	FLAT:?equivalent@error_category@std@@UBE_NABVerror_code@2@H@Z
	DD	FLAT:?equivalent@error_category@std@@UBE_NHABVerror_condition@2@@Z
CONST	ENDS
;	COMDAT ??_C@_0BG@PADBLCHM@iostream?5stream?5error?$AA@
CONST	SEGMENT
??_C@_0BG@PADBLCHM@iostream?5stream?5error?$AA@ DB 'iostream stream error'
	DB	00H						; `string'
CONST	ENDS
;	COMDAT ??_C@_08LLGCOLLL@iostream?$AA@
CONST	SEGMENT
??_C@_08LLGCOLLL@iostream?$AA@ DB 'iostream', 00H	; `string'
CONST	ENDS
;	COMDAT ??_7_Iostream_error_category@std@@6B@
CONST	SEGMENT
??_7_Iostream_error_category@std@@6B@ DD FLAT:??_R4_Iostream_error_category@std@@6B@ ; std::_Iostream_error_category::`vftable'
	DD	FLAT:??_E_Iostream_error_category@std@@UAEPAXI@Z
	DD	FLAT:?name@_Iostream_error_category@std@@UBEPBDXZ
	DD	FLAT:?message@_Iostream_error_category@std@@UBE?AV?$basic_string@DU?$char_traits@D@std@@V?$allocator@D@2@@2@H@Z
	DD	FLAT:?default_error_condition@error_category@std@@UBE?AVerror_condition@2@H@Z
	DD	FLAT:?equivalent@error_category@std@@UBE_NABVerror_code@2@H@Z
	DD	FLAT:?equivalent@error_category@std@@UBE_NHABVerror_condition@2@@Z
CONST	ENDS
;	COMDAT ??_C@_0O@BFJCFAAK@unknown?5error?$AA@
CONST	SEGMENT
??_C@_0O@BFJCFAAK@unknown?5error?$AA@ DB 'unknown error', 00H ; `string'
CONST	ENDS
;	COMDAT ??_C@_07DCLBNMLN@generic?$AA@
CONST	SEGMENT
??_C@_07DCLBNMLN@generic?$AA@ DB 'generic', 00H		; `string'
CONST	ENDS
;	COMDAT ??_7_Generic_error_category@std@@6B@
CONST	SEGMENT
??_7_Generic_error_category@std@@6B@ DD FLAT:??_R4_Generic_error_category@std@@6B@ ; std::_Generic_error_category::`vftable'
	DD	FLAT:??_E_Generic_error_category@std@@UAEPAXI@Z
	DD	FLAT:?name@_Generic_error_category@std@@UBEPBDXZ
	DD	FLAT:?message@_Generic_error_category@std@@UBE?AV?$basic_string@DU?$char_traits@D@std@@V?$allocator@D@2@@2@H@Z
	DD	FLAT:?default_error_condition@error_category@std@@UBE?AVerror_condition@2@H@Z
	DD	FLAT:?equivalent@error_category@std@@UBE_NABVerror_code@2@H@Z
	DD	FLAT:?equivalent@error_category@std@@UBE_NHABVerror_condition@2@@Z
CONST	ENDS
;	COMDAT ??_7error_category@std@@6B@
CONST	SEGMENT
??_7error_category@std@@6B@ DD FLAT:??_R4error_category@std@@6B@ ; std::error_category::`vftable'
	DD	FLAT:??_Eerror_category@std@@UAEPAXI@Z
	DD	FLAT:__purecall
	DD	FLAT:__purecall
	DD	FLAT:?default_error_condition@error_category@std@@UBE?AVerror_condition@2@H@Z
	DD	FLAT:?equivalent@error_category@std@@UBE_NABVerror_code@2@H@Z
	DD	FLAT:?equivalent@error_category@std@@UBE_NHABVerror_condition@2@@Z
CONST	ENDS
;	COMDAT xdata$x
xdata$x	SEGMENT
__unwindtable$??$construct@PADAAPAD@?$allocator@D@std@@QAEXPAPADAAPAD@Z DD 0ffffffffH
	DD	FLAT:__unwindfunclet$??$construct@PADAAPAD@?$allocator@D@std@@QAEXPAPADAAPAD@Z$0
__ehfuncinfo$??$construct@PADAAPAD@?$allocator@D@std@@QAEXPAPADAAPAD@Z DD 019930522H
	DD	01H
	DD	FLAT:__unwindtable$??$construct@PADAAPAD@?$allocator@D@std@@QAEXPAPADAAPAD@Z
	DD	2 DUP(00H)
	DD	2 DUP(00H)
	DD	00H
	DD	01H
xdata$x	ENDS
xdata$x	SEGMENT
__unwindtable$?SleepCampaignFlight@SimulationDriver@@QAEXPAVTailInsertList@@@Z DD 0ffffffffH
	DD	FLAT:__unwindfunclet$?SleepCampaignFlight@SimulationDriver@@QAEXPAVTailInsertList@@@Z$0
__unwindtable$?WakeCampaignBase@SimulationDriver@@QAEXHPAVCampBaseClass@@PAVTailInsertList@@@Z DD 0ffffffffH
	DD	FLAT:__unwindfunclet$?WakeCampaignBase@SimulationDriver@@QAEXHPAVCampBaseClass@@PAVTailInsertList@@@Z$0
__unwindtable$?UpdateRemoteData@SimulationDriver@@QAEXXZ DD 0ffffffffH
	DD	FLAT:__unwindfunclet$?UpdateRemoteData@SimulationDriver@@QAEXXZ$0
__unwindtable$?FindNearestTraffic@SimulationDriver@@QAEPAVSimBaseClass@@PAVAircraftClass@@PAVObjectiveClass@@PAM@Z DD 0ffffffffH
	DD	FLAT:__unwindfunclet$?FindNearestTraffic@SimulationDriver@@QAEPAVSimBaseClass@@PAVAircraftClass@@PAVObjectiveClass@@PAM@Z$0
__unwindtable$?FindNearestCampEnemy@SimulationDriver@@QAEPAVCampBaseClass@@PAVAircraftClass@@PAF1PAM@Z DD 0ffffffffH
	DD	FLAT:__unwindfunclet$?FindNearestCampEnemy@SimulationDriver@@QAEPAVCampBaseClass@@PAVAircraftClass@@PAF1PAM@Z$0
__unwindtable$?FindNearestCampThreat@SimulationDriver@@QAEPAVCampBaseClass@@PAVAircraftClass@@PAF1PAM@Z DD 0ffffffffH
	DD	FLAT:__unwindfunclet$?FindNearestCampThreat@SimulationDriver@@QAEPAVCampBaseClass@@PAVAircraftClass@@PAF1PAM@Z$0
__unwindtable$?FindNearestEnemyPlane@SimulationDriver@@QAEPAVSimBaseClass@@PAVAircraftClass@@PAF1PAM@Z DD 0ffffffffH
	DD	FLAT:__unwindfunclet$?FindNearestEnemyPlane@SimulationDriver@@QAEPAVSimBaseClass@@PAVAircraftClass@@PAF1PAM@Z$0
__unwindtable$?FindNearestThreat@SimulationDriver@@QAEPAVSimBaseClass@@PAVAircraftClass@@PAF1PAM@Z DD 0ffffffffH
	DD	FLAT:__unwindfunclet$?FindNearestThreat@SimulationDriver@@QAEPAVSimBaseClass@@PAVAircraftClass@@PAF1PAM@Z$0
__unwindtable$?FindNearestThreat@SimulationDriver@@QAEPAVSimBaseClass@@PAF0PAM@Z DD 0ffffffffH
	DD	FLAT:__unwindfunclet$?FindNearestThreat@SimulationDriver@@QAEPAVSimBaseClass@@PAF0PAM@Z$0
__unwindtable$?FindNearestThreat@SimulationDriver@@QAEPAVSimBaseClass@@PAM00@Z DD 0ffffffffH
	DD	FLAT:__unwindfunclet$?FindNearestThreat@SimulationDriver@@QAEPAVSimBaseClass@@PAM00@Z$0
__unwindtable$?SetPlayerEntity@SimulationDriver@@QAEXPAVSimMoverClass@@@Z DD 0ffffffffH
	DD	FLAT:__unwindfunclet$?SetPlayerEntity@SimulationDriver@@QAEXPAVSimMoverClass@@@Z$0
__unwindtable$?Cycle@SimulationDriver@@QAEXXZ DD 0ffffffffH
	DD	FLAT:__unwindfunclet$?Cycle@SimulationDriver@@QAEXXZ$0
__unwindtable$?InitACMIRecord@SimulationDriver@@QAEXXZ DD 0ffffffffH
	DD	FLAT:__unwindfunclet$?InitACMIRecord@SimulationDriver@@QAEXXZ$0
	DD	00H
	DD	FLAT:__unwindfunclet$?InitACMIRecord@SimulationDriver@@QAEXXZ$1
__ehfuncinfo$?SleepCampaignFlight@SimulationDriver@@QAEXPAVTailInsertList@@@Z DD 019930522H
	DD	01H
	DD	FLAT:__unwindtable$?SleepCampaignFlight@SimulationDriver@@QAEXPAVTailInsertList@@@Z
	DD	2 DUP(00H)
	DD	2 DUP(00H)
	DD	00H
	DD	01H
__ehfuncinfo$?WakeCampaignBase@SimulationDriver@@QAEXHPAVCampBaseClass@@PAVTailInsertList@@@Z DD 019930522H
	DD	01H
	DD	FLAT:__unwindtable$?WakeCampaignBase@SimulationDriver@@QAEXHPAVCampBaseClass@@PAVTailInsertList@@@Z
	DD	2 DUP(00H)
	DD	2 DUP(00H)
	DD	00H
	DD	01H
__ehfuncinfo$?InitACMIRecord@SimulationDriver@@QAEXXZ DD 019930522H
	DD	02H
	DD	FLAT:__unwindtable$?InitACMIRecord@SimulationDriver@@QAEXXZ
	DD	2 DUP(00H)
	DD	2 DUP(00H)
	DD	00H
	DD	01H
__ehfuncinfo$?UpdateRemoteData@SimulationDriver@@QAEXXZ DD 019930522H
	DD	01H
	DD	FLAT:__unwindtable$?UpdateRemoteData@SimulationDriver@@QAEXXZ
	DD	2 DUP(00H)
	DD	2 DUP(00H)
	DD	00H
	DD	01H
__ehfuncinfo$?FindNearestTraffic@SimulationDriver@@QAEPAVSimBaseClass@@PAVAircraftClass@@PAVObjectiveClass@@PAM@Z DD 019930522H
	DD	01H
	DD	FLAT:__unwindtable$?FindNearestTraffic@SimulationDriver@@QAEPAVSimBaseClass@@PAVAircraftClass@@PAVObjectiveClass@@PAM@Z
	DD	2 DUP(00H)
	DD	2 DUP(00H)
	DD	00H
	DD	01H
__ehfuncinfo$?FindNearestCampEnemy@SimulationDriver@@QAEPAVCampBaseClass@@PAVAircraftClass@@PAF1PAM@Z DD 019930522H
	DD	01H
	DD	FLAT:__unwindtable$?FindNearestCampEnemy@SimulationDriver@@QAEPAVCampBaseClass@@PAVAircraftClass@@PAF1PAM@Z
	DD	2 DUP(00H)
	DD	2 DUP(00H)
	DD	00H
	DD	01H
__ehfuncinfo$?FindNearestCampThreat@SimulationDriver@@QAEPAVCampBaseClass@@PAVAircraftClass@@PAF1PAM@Z DD 019930522H
	DD	01H
	DD	FLAT:__unwindtable$?FindNearestCampThreat@SimulationDriver@@QAEPAVCampBaseClass@@PAVAircraftClass@@PAF1PAM@Z
	DD	2 DUP(00H)
	DD	2 DUP(00H)
	DD	00H
	DD	01H
__ehfuncinfo$?FindNearestEnemyPlane@SimulationDriver@@QAEPAVSimBaseClass@@PAVAircraftClass@@PAF1PAM@Z DD 019930522H
	DD	01H
	DD	FLAT:__unwindtable$?FindNearestEnemyPlane@SimulationDriver@@QAEPAVSimBaseClass@@PAVAircraftClass@@PAF1PAM@Z
	DD	2 DUP(00H)
	DD	2 DUP(00H)
	DD	00H
	DD	01H
__ehfuncinfo$?FindNearestThreat@SimulationDriver@@QAEPAVSimBaseClass@@PAVAircraftClass@@PAF1PAM@Z DD 019930522H
	DD	01H
	DD	FLAT:__unwindtable$?FindNearestThreat@SimulationDriver@@QAEPAVSimBaseClass@@PAVAircraftClass@@PAF1PAM@Z
	DD	2 DUP(00H)
	DD	2 DUP(00H)
	DD	00H
	DD	01H
__ehfuncinfo$?FindNearestThreat@SimulationDriver@@QAEPAVSimBaseClass@@PAF0PAM@Z DD 019930522H
	DD	01H
	DD	FLAT:__unwindtable$?FindNearestThreat@SimulationDriver@@QAEPAVSimBaseClass@@PAF0PAM@Z
	DD	2 DUP(00H)
	DD	2 DUP(00H)
	DD	00H
	DD	01H
__ehfuncinfo$?FindNearestThreat@SimulationDriver@@QAEPAVSimBaseClass@@PAM00@Z DD 019930522H
	DD	01H
	DD	FLAT:__unwindtable$?FindNearestThreat@SimulationDriver@@QAEPAVSimBaseClass@@PAM00@Z
	DD	2 DUP(00H)
	DD	2 DUP(00H)
	DD	00H
	DD	01H
__ehfuncinfo$?SetPlayerEntity@SimulationDriver@@QAEXPAVSimMoverClass@@@Z DD 019930522H
	DD	01H
	DD	FLAT:__unwindtable$?SetPlayerEntity@SimulationDriver@@QAEXPAVSimMoverClass@@@Z
	DD	2 DUP(00H)
	DD	2 DUP(00H)
	DD	00H
	DD	01H
__ehfuncinfo$?Cycle@SimulationDriver@@QAEXXZ DD 019930522H
	DD	01H
	DD	FLAT:__unwindtable$?Cycle@SimulationDriver@@QAEXXZ
	DD	2 DUP(00H)
	DD	2 DUP(00H)
	DD	00H
	DD	01H
__ehfuncinfo$?Startup@SimulationDriver@@QAEXXZ DD 019930522H
	DD	012H
	DD	FLAT:__unwindtable$?Startup@SimulationDriver@@QAEXXZ
	DD	2 DUP(00H)
	DD	2 DUP(00H)
	DD	00H
	DD	01H
__unwindtable$?Startup@SimulationDriver@@QAEXXZ DD 0ffffffffH
	DD	FLAT:__unwindfunclet$?Startup@SimulationDriver@@QAEXXZ$0
	DD	00H
	DD	FLAT:__unwindfunclet$?Startup@SimulationDriver@@QAEXXZ$1
	DD	01H
	DD	FLAT:__unwindfunclet$?Startup@SimulationDriver@@QAEXXZ$2
	DD	02H
	DD	FLAT:__unwindfunclet$?Startup@SimulationDriver@@QAEXXZ$3
	DD	02H
	DD	FLAT:__unwindfunclet$?Startup@SimulationDriver@@QAEXXZ$4
	DD	04H
	DD	FLAT:__unwindfunclet$?Startup@SimulationDriver@@QAEXXZ$5
	DD	04H
	DD	FLAT:__unwindfunclet$?Startup@SimulationDriver@@QAEXXZ$6
	DD	06H
	DD	FLAT:__unwindfunclet$?Startup@SimulationDriver@@QAEXXZ$7
	DD	06H
	DD	FLAT:__unwindfunclet$?Startup@SimulationDriver@@QAEXXZ$8
	DD	08H
	DD	FLAT:__unwindfunclet$?Startup@SimulationDriver@@QAEXXZ$9
	DD	08H
	DD	FLAT:__unwindfunclet$?Startup@SimulationDriver@@QAEXXZ$10
	DD	08H
	DD	FLAT:__unwindfunclet$?Startup@SimulationDriver@@QAEXXZ$11
	DD	0bH
	DD	FLAT:__unwindfunclet$?Startup@SimulationDriver@@QAEXXZ$12
	DD	0bH
	DD	FLAT:__unwindfunclet$?Startup@SimulationDriver@@QAEXXZ$13
	DD	0bH
	DD	FLAT:__unwindfunclet$?Startup@SimulationDriver@@QAEXXZ$14
	DD	0eH
	DD	FLAT:__unwindfunclet$?Startup@SimulationDriver@@QAEXXZ$15
	DD	0eH
	DD	FLAT:__unwindfunclet$?Startup@SimulationDriver@@QAEXXZ$16
	DD	0eH
	DD	FLAT:__unwindfunclet$?Startup@SimulationDriver@@QAEXXZ$17
xdata$x	ENDS
;	COMDAT xdata$x
xdata$x	SEGMENT
__unwindtable$?Copy@ObjFilter@@UAEPAVVuFilter@@XZ DD 0ffffffffH
	DD	FLAT:__unwindfunclet$?Copy@ObjFilter@@UAEPAVVuFilter@@XZ$0
__ehfuncinfo$?Copy@ObjFilter@@UAEPAVVuFilter@@XZ DD 019930522H
	DD	01H
	DD	FLAT:__unwindtable$?Copy@ObjFilter@@UAEPAVVuFilter@@XZ
	DD	2 DUP(00H)
	DD	2 DUP(00H)
	DD	00H
	DD	01H
xdata$x	ENDS
;	COMDAT xdata$x
xdata$x	SEGMENT
__unwindtable$?Copy@UnitFilter@@UAEPAVVuFilter@@XZ DD 0ffffffffH
	DD	FLAT:__unwindfunclet$?Copy@UnitFilter@@UAEPAVVuFilter@@XZ$0
__ehfuncinfo$?Copy@UnitFilter@@UAEPAVVuFilter@@XZ DD 019930522H
	DD	01H
	DD	FLAT:__unwindtable$?Copy@UnitFilter@@UAEPAVVuFilter@@XZ
	DD	2 DUP(00H)
	DD	2 DUP(00H)
	DD	00H
	DD	01H
xdata$x	ENDS
;	COMDAT xdata$x
xdata$x	SEGMENT
__catchsym$?_Copy@?$basic_string@DU?$char_traits@D@std@@V?$allocator@D@2@@std@@QAEXII@Z$5 DD 040H
	DD	00H
	DD	00H
	DD	FLAT:__catch$?_Copy@?$basic_string@DU?$char_traits@D@std@@V?$allocator@D@2@@std@@QAEXII@Z$0
__catchsym$?_Copy@?$basic_string@DU?$char_traits@D@std@@V?$allocator@D@2@@std@@QAEXII@Z$4 DD 040H
	DD	00H
	DD	00H
	DD	FLAT:__catch$?_Copy@?$basic_string@DU?$char_traits@D@std@@V?$allocator@D@2@@std@@QAEXII@Z$1
__unwindtable$?_Copy@?$basic_string@DU?$char_traits@D@std@@V?$allocator@D@2@@std@@QAEXII@Z DD 0ffffffffH
	DD	00H
	DD	0ffffffffH
	DD	00H
	DD	01H
	DD	00H
	DD	01H
	DD	00H
__ehfuncinfo$?_Copy@?$basic_string@DU?$char_traits@D@std@@V?$allocator@D@2@@std@@QAEXII@Z DD 019930522H
	DD	04H
	DD	FLAT:__unwindtable$?_Copy@?$basic_string@DU?$char_traits@D@std@@V?$allocator@D@2@@std@@QAEXII@Z
	DD	02H
	DD	FLAT:__tryblocktable$?_Copy@?$basic_string@DU?$char_traits@D@std@@V?$allocator@D@2@@std@@QAEXII@Z
	DD	2 DUP(00H)
	DD	00H
	DD	01H
__tryblocktable$?_Copy@?$basic_string@DU?$char_traits@D@std@@V?$allocator@D@2@@std@@QAEXII@Z DD 02H
	DD	02H
	DD	03H
	DD	01H
	DD	FLAT:__catchsym$?_Copy@?$basic_string@DU?$char_traits@D@std@@V?$allocator@D@2@@std@@QAEXII@Z$4
	DD	00H
	DD	00H
	DD	03H
	DD	01H
	DD	FLAT:__catchsym$?_Copy@?$basic_string@DU?$char_traits@D@std@@V?$allocator@D@2@@std@@QAEXII@Z$5
xdata$x	ENDS
CRT$XCU	SEGMENT
_allocator_arg$initializer$ DD FLAT:??__Eallocator_arg@std@@YAXXZ
CRT$XCU	ENDS
CRT$XCU	SEGMENT
_SimDriver$initializer$ DD FLAT:??__ESimDriver@@YAXXZ
CRT$XCU	ENDS
;	COMDAT CRT$XCU
CRT$XCU	SEGMENT
?_Generic_object$initializer$@?$_Error_objects@H@std@@2P6AXXZA DD FLAT:??__E?_Generic_object@?$_Error_objects@H@std@@2V_Generic_error_category@2@A@@YAXXZ ; std::_Error_objects<int>::_Generic_object$initializer$
CRT$XCU	ENDS
;	COMDAT CRT$XCU
CRT$XCU	SEGMENT
?_Iostream_object$initializer$@?$_Error_objects@H@std@@2P6AXXZA DD FLAT:??__E?_Iostream_object@?$_Error_objects@H@std@@2V_Iostream_error_category@2@A@@YAXXZ ; std::_Error_objects<int>::_Iostream_object$initializer$
CRT$XCU	ENDS
;	COMDAT CRT$XCU
CRT$XCU	SEGMENT
?_System_object$initializer$@?$_Error_objects@H@std@@2P6AXXZA DD FLAT:??__E?_System_object@?$_Error_objects@H@std@@2V_System_error_category@2@A@@YAXXZ ; std::_Error_objects<int>::_System_object$initializer$
CRT$XCU	ENDS
;	COMDAT CRT$XCU
CRT$XCU	SEGMENT
?id$initializer$@?$num_put@DV?$back_insert_iterator@V?$basic_string@DU?$char_traits@D@std@@V?$allocator@D@2@@std@@@std@@@std@@2P6AXXZA DD FLAT:??__E?id@?$num_put@DV?$back_insert_iterator@V?$basic_string@DU?$char_traits@D@std@@V?$allocator@D@2@@std@@@std@@@std@@2V0locale@2@A@@YAXXZ ; std::num_put<char,std::back_insert_iterator<std::basic_string<char,std::char_traits<char>,std::allocator<char> > > >::id$initializer$
CRT$XCU	ENDS
;	COMDAT CRT$XCU
CRT$XCU	SEGMENT
?id$initializer$@?$num_put@_WV?$back_insert_iterator@V?$basic_string@_WU?$char_traits@_W@std@@V?$allocator@_W@2@@std@@@std@@@std@@2P6AXXZA DD FLAT:??__E?id@?$num_put@_WV?$back_insert_iterator@V?$basic_string@_WU?$char_traits@_W@std@@V?$allocator@_W@2@@std@@@std@@@std@@2V0locale@2@A@@YAXXZ ; std::num_put<wchar_t,std::back_insert_iterator<std::basic_string<wchar_t,std::char_traits<wchar_t>,std::allocator<wchar_t> > > >::id$initializer$
CRT$XCU	ENDS
;	COMDAT CRT$XCU
CRT$XCU	SEGMENT
?id$initializer$@?$numpunct@D@std@@2P6AXXZA DD FLAT:??__E?id@?$numpunct@D@std@@2V0locale@2@A@@YAXXZ ; std::numpunct<char>::id$initializer$
CRT$XCU	ENDS
;	COMDAT CRT$XCU
CRT$XCU	SEGMENT
?id$initializer$@?$numpunct@_W@std@@2P6AXXZA DD FLAT:??__E?id@?$numpunct@_W@std@@2V0locale@2@A@@YAXXZ ; std::numpunct<wchar_t>::id$initializer$
CRT$XCU	ENDS
; Function compile flags: /Odtp
; File c:\program files (x86)\microsoft visual studio 11.0\vc\include\xmemory0
;	COMDAT ??$destroy@PAD@?$allocator@D@std@@QAEXPAPAD@Z
_TEXT	SEGMENT
_this$ = -4						; size = 4
__Ptr$ = 8						; size = 4
??$destroy@PAD@?$allocator@D@std@@QAEXPAPAD@Z PROC	; std::allocator<char>::destroy<char *>, COMDAT
; _this$ = ecx

; 621  : 		void destroy(_Uty *_Ptr)

	push	ebp
	mov	ebp, esp
	push	ecx
	mov	DWORD PTR _this$[ebp], ecx

; 622  : 		{	// destroy object at _Ptr
; 623  : 		_Ptr->~_Uty();
; 624  : 		}

	mov	esp, ebp
	pop	ebp
	ret	4
??$destroy@PAD@?$allocator@D@std@@QAEXPAPAD@Z ENDP	; std::allocator<char>::destroy<char *>
_TEXT	ENDS
; Function compile flags: /Odtp
; File c:\program files (x86)\microsoft visual studio 11.0\vc\include\xmemory0
;	COMDAT ??$construct@PADAAPAD@?$allocator@D@std@@QAEXPAPADAAPAD@Z
_TEXT	SEGMENT
$T2 = -28						; size = 4
_this$ = -24						; size = 4
tv73 = -20						; size = 4
$T3 = -16						; size = 4
__$EHRec$ = -12						; size = 12
__Ptr$ = 8						; size = 4
__V0$ = 12						; size = 4
??$construct@PADAAPAD@?$allocator@D@std@@QAEXPAPADAAPAD@Z PROC ; std::allocator<char>::construct<char *,char * &>, COMDAT
; _this$ = ecx

; 617  : _VARIADIC_EXPAND_0X(_ALLOC_MEMBER_CONSTRUCT, , , , )

	push	ebp
	mov	ebp, esp
	push	-1
	push	__ehhandler$??$construct@PADAAPAD@?$allocator@D@std@@QAEXPAPADAAPAD@Z
	mov	eax, DWORD PTR fs:0
	push	eax
	sub	esp, 16					; 00000010H
	mov	eax, DWORD PTR ___security_cookie
	xor	eax, ebp
	push	eax
	lea	eax, DWORD PTR __$EHRec$[ebp]
	mov	DWORD PTR fs:0, eax
	mov	DWORD PTR _this$[ebp], ecx
	mov	eax, DWORD PTR __Ptr$[ebp]
	push	eax
	push	4
	call	??2@YAPAXIPAX@Z				; operator new
	add	esp, 8
	mov	DWORD PTR $T3[ebp], eax
	mov	DWORD PTR __$EHRec$[ebp+8], 0
	cmp	DWORD PTR $T3[ebp], 0
	je	SHORT $LN3@construct
	mov	ecx, DWORD PTR __V0$[ebp]
	push	ecx
	call	??$forward@AAPAD@std@@YAAAPADAAPAD@Z	; std::forward<char * &>
	add	esp, 4
	mov	edx, DWORD PTR $T3[ebp]
	mov	eax, DWORD PTR [eax]
	mov	DWORD PTR [edx], eax
	mov	ecx, DWORD PTR $T3[ebp]
	mov	DWORD PTR tv73[ebp], ecx
	jmp	SHORT $LN4@construct
$LN3@construct:
	mov	DWORD PTR tv73[ebp], 0
$LN4@construct:
	mov	edx, DWORD PTR tv73[ebp]
	mov	DWORD PTR $T2[ebp], edx
	mov	DWORD PTR __$EHRec$[ebp+8], -1
	mov	ecx, DWORD PTR __$EHRec$[ebp]
	mov	DWORD PTR fs:0, ecx
	pop	ecx
	mov	esp, ebp
	pop	ebp
	ret	8
_TEXT	ENDS
;	COMDAT text$x
text$x	SEGMENT
__unwindfunclet$??$construct@PADAAPAD@?$allocator@D@std@@QAEXPAPADAAPAD@Z$0:
	mov	eax, DWORD PTR __Ptr$[ebp]
	push	eax
	mov	eax, DWORD PTR $T3[ebp]
	push	eax
	call	??3@YAXPAX0@Z				; operator delete
	add	esp, 8
	ret	0
__ehhandler$??$construct@PADAAPAD@?$allocator@D@std@@QAEXPAPADAAPAD@Z:
	mov	edx, DWORD PTR [esp+8]
	lea	eax, DWORD PTR [edx+12]
	mov	ecx, DWORD PTR [edx-20]
	xor	ecx, eax
	call	@__security_check_cookie@4
	mov	eax, OFFSET __ehfuncinfo$??$construct@PADAAPAD@?$allocator@D@std@@QAEXPAPADAAPAD@Z
	jmp	___CxxFrameHandler3
text$x	ENDS
??$construct@PADAAPAD@?$allocator@D@std@@QAEXPAPADAAPAD@Z ENDP ; std::allocator<char>::construct<char *,char * &>
; Function compile flags: /Odtp
; File c:\program files (x86)\microsoft visual studio 11.0\vc\include\xlocnum
;	COMDAT ??__E?id@?$numpunct@_W@std@@2V0locale@2@A@@YAXXZ
text$yc	SEGMENT
??__E?id@?$numpunct@_W@std@@2V0locale@2@A@@YAXXZ PROC	; `dynamic initializer for 'std::numpunct<wchar_t>::id'', COMDAT

; 155  : 		void _Getvals(wchar_t, const lconv *_Ptr, _Locinfo::_Cvtvec)

	push	ebp
	mov	ebp, esp
	push	0
	mov	ecx, OFFSET ?id@?$numpunct@_W@std@@2V0locale@2@A ; std::numpunct<wchar_t>::id
	call	??0id@locale@std@@QAE@I@Z		; std::locale::id::id
	pop	ebp
	ret	0
??__E?id@?$numpunct@_W@std@@2V0locale@2@A@@YAXXZ ENDP	; `dynamic initializer for 'std::numpunct<wchar_t>::id''
text$yc	ENDS
; Function compile flags: /Odtp
; File c:\program files (x86)\microsoft visual studio 11.0\vc\include\xlocnum
;	COMDAT ??__E?id@?$numpunct@D@std@@2V0locale@2@A@@YAXXZ
text$yc	SEGMENT
??__E?id@?$numpunct@D@std@@2V0locale@2@A@@YAXXZ PROC	; `dynamic initializer for 'std::numpunct<char>::id'', COMDAT

; 155  : 		void _Getvals(wchar_t, const lconv *_Ptr, _Locinfo::_Cvtvec)

	push	ebp
	mov	ebp, esp
	push	0
	mov	ecx, OFFSET ?id@?$numpunct@D@std@@2V0locale@2@A ; std::numpunct<char>::id
	call	??0id@locale@std@@QAE@I@Z		; std::locale::id::id
	pop	ebp
	ret	0
??__E?id@?$numpunct@D@std@@2V0locale@2@A@@YAXXZ ENDP	; `dynamic initializer for 'std::numpunct<char>::id''
text$yc	ENDS
; Function compile flags: /Odtp
; File c:\program files (x86)\microsoft visual studio 11.0\vc\include\xlocnum
;	COMDAT ??__E?id@?$num_put@_WV?$back_insert_iterator@V?$basic_string@_WU?$char_traits@_W@std@@V?$allocator@_W@2@@std@@@std@@@std@@2V0locale@2@A@@YAXXZ
text$yc	SEGMENT
??__E?id@?$num_put@_WV?$back_insert_iterator@V?$basic_string@_WU?$char_traits@_W@std@@V?$allocator@_W@2@@std@@@std@@@std@@2V0locale@2@A@@YAXXZ PROC ; `dynamic initializer for 'std::num_put<wchar_t,std::back_insert_iterator<std::basic_string<wchar_t,std::char_traits<wchar_t>,std::allocator<wchar_t> > > >::id'', COMDAT

; 155  : 		void _Getvals(wchar_t, const lconv *_Ptr, _Locinfo::_Cvtvec)

	push	ebp
	mov	ebp, esp
	push	0
	mov	ecx, OFFSET ?id@?$num_put@_WV?$back_insert_iterator@V?$basic_string@_WU?$char_traits@_W@std@@V?$allocator@_W@2@@std@@@std@@@std@@2V0locale@2@A ; std::num_put<wchar_t,std::back_insert_iterator<std::basic_string<wchar_t,std::char_traits<wchar_t>,std::allocator<wchar_t> > > >::id
	call	??0id@locale@std@@QAE@I@Z		; std::locale::id::id
	pop	ebp
	ret	0
??__E?id@?$num_put@_WV?$back_insert_iterator@V?$basic_string@_WU?$char_traits@_W@std@@V?$allocator@_W@2@@std@@@std@@@std@@2V0locale@2@A@@YAXXZ ENDP ; `dynamic initializer for 'std::num_put<wchar_t,std::back_insert_iterator<std::basic_string<wchar_t,std::char_traits<wchar_t>,std::allocator<wchar_t> > > >::id''
text$yc	ENDS
; Function compile flags: /Odtp
; File c:\program files (x86)\microsoft visual studio 11.0\vc\include\xlocnum
;	COMDAT ??__E?id@?$num_put@DV?$back_insert_iterator@V?$basic_string@DU?$char_traits@D@std@@V?$allocator@D@2@@std@@@std@@@std@@2V0locale@2@A@@YAXXZ
text$yc	SEGMENT
??__E?id@?$num_put@DV?$back_insert_iterator@V?$basic_string@DU?$char_traits@D@std@@V?$allocator@D@2@@std@@@std@@@std@@2V0locale@2@A@@YAXXZ PROC ; `dynamic initializer for 'std::num_put<char,std::back_insert_iterator<std::basic_string<char,std::char_traits<char>,std::allocator<char> > > >::id'', COMDAT

; 155  : 		void _Getvals(wchar_t, const lconv *_Ptr, _Locinfo::_Cvtvec)

	push	ebp
	mov	ebp, esp
	push	0
	mov	ecx, OFFSET ?id@?$num_put@DV?$back_insert_iterator@V?$basic_string@DU?$char_traits@D@std@@V?$allocator@D@2@@std@@@std@@@std@@2V0locale@2@A ; std::num_put<char,std::back_insert_iterator<std::basic_string<char,std::char_traits<char>,std::allocator<char> > > >::id
	call	??0id@locale@std@@QAE@I@Z		; std::locale::id::id
	pop	ebp
	ret	0
??__E?id@?$num_put@DV?$back_insert_iterator@V?$basic_string@DU?$char_traits@D@std@@V?$allocator@D@2@@std@@@std@@@std@@2V0locale@2@A@@YAXXZ ENDP ; `dynamic initializer for 'std::num_put<char,std::back_insert_iterator<std::basic_string<char,std::char_traits<char>,std::allocator<char> > > >::id''
text$yc	ENDS
; Function compile flags: /Odtp
; File c:\program files (x86)\microsoft visual studio 11.0\vc\include\xmemory0
;	COMDAT ??$destroy@PAD@?$allocator_traits@V?$allocator@D@std@@@std@@SAXAAV?$allocator@D@1@PAPAD@Z
_TEXT	SEGMENT
__Al$ = 8						; size = 4
__Ptr$ = 12						; size = 4
??$destroy@PAD@?$allocator_traits@V?$allocator@D@std@@@std@@SAXAAV?$allocator@D@1@PAPAD@Z PROC ; std::allocator_traits<std::allocator<char> >::destroy<char *>, COMDAT

; 755  : 		static void destroy(_Alloc& _Al, _Uty *_Ptr)

	push	ebp
	mov	ebp, esp

; 756  : 		{	// destroy object at _Ptr
; 757  : 		_Al.destroy(_Ptr);

	mov	eax, DWORD PTR __Ptr$[ebp]
	push	eax
	mov	ecx, DWORD PTR __Al$[ebp]
	call	??$destroy@PAD@?$allocator@D@std@@QAEXPAPAD@Z ; std::allocator<char>::destroy<char *>

; 758  : 		}

	pop	ebp
	ret	0
??$destroy@PAD@?$allocator_traits@V?$allocator@D@std@@@std@@SAXAAV?$allocator@D@1@PAPAD@Z ENDP ; std::allocator_traits<std::allocator<char> >::destroy<char *>
_TEXT	ENDS
; Function compile flags: /Odtp
; File c:\program files (x86)\microsoft visual studio 11.0\vc\include\xmemory0
;	COMDAT ??$construct@PADAAPAD@?$allocator_traits@V?$allocator@D@std@@@std@@SAXAAV?$allocator@D@1@PAPADAAPAD@Z
_TEXT	SEGMENT
__Al$ = 8						; size = 4
__Ptr$ = 12						; size = 4
__V0$ = 16						; size = 4
??$construct@PADAAPAD@?$allocator_traits@V?$allocator@D@std@@@std@@SAXAAV?$allocator@D@1@PAPADAAPAD@Z PROC ; std::allocator_traits<std::allocator<char> >::construct<char *,char * &>, COMDAT

; 751  : _VARIADIC_EXPAND_0X(_ALLOC_TRAITS_SPECIAL_CONSTRUCT, , , , )

	push	ebp
	mov	ebp, esp
	mov	eax, DWORD PTR __V0$[ebp]
	push	eax
	call	??$forward@AAPAD@std@@YAAAPADAAPAD@Z	; std::forward<char * &>
	add	esp, 4
	push	eax
	mov	ecx, DWORD PTR __Ptr$[ebp]
	push	ecx
	mov	ecx, DWORD PTR __Al$[ebp]
	call	??$construct@PADAAPAD@?$allocator@D@std@@QAEXPAPADAAPAD@Z ; std::allocator<char>::construct<char *,char * &>
	pop	ebp
	ret	0
??$construct@PADAAPAD@?$allocator_traits@V?$allocator@D@std@@@std@@SAXAAV?$allocator@D@1@PAPADAAPAD@Z ENDP ; std::allocator_traits<std::allocator<char> >::construct<char *,char * &>
_TEXT	ENDS
; Function compile flags: /Odtp
; File c:\program files (x86)\microsoft visual studio 11.0\vc\include\type_traits
;	COMDAT ??$forward@AAPAD@std@@YAAAPADAAPAD@Z
_TEXT	SEGMENT
__Arg$ = 8						; size = 4
??$forward@AAPAD@std@@YAAAPADAAPAD@Z PROC		; std::forward<char * &>, COMDAT

; 1775 : 	{	// forward an lvalue

	push	ebp
	mov	ebp, esp

; 1776 : 	return (static_cast<_Ty&&>(_Arg));

	mov	eax, DWORD PTR __Arg$[ebp]

; 1777 : 	}

	pop	ebp
	ret	0
??$forward@AAPAD@std@@YAAAPADAAPAD@Z ENDP		; std::forward<char * &>
_TEXT	ENDS
; Function compile flags: /Odtp
;	COMDAT ??__F?_System_object@?$_Error_objects@H@std@@2V_System_error_category@2@A@@YAXXZ
text$yd	SEGMENT
??__F?_System_object@?$_Error_objects@H@std@@2V_System_error_category@2@A@@YAXXZ PROC ; `dynamic atexit destructor for 'std::_Error_objects<int>::_System_object'', COMDAT
	push	ebp
	mov	ebp, esp
	mov	ecx, OFFSET ?_System_object@?$_Error_objects@H@std@@2V_System_error_category@2@A ; std::_Error_objects<int>::_System_object
	call	??1_System_error_category@std@@UAE@XZ
	pop	ebp
	ret	0
??__F?_System_object@?$_Error_objects@H@std@@2V_System_error_category@2@A@@YAXXZ ENDP ; `dynamic atexit destructor for 'std::_Error_objects<int>::_System_object''
text$yd	ENDS
; Function compile flags: /Odtp
; File c:\program files (x86)\microsoft visual studio 11.0\vc\include\xmemory0
;	COMDAT ??__E?_System_object@?$_Error_objects@H@std@@2V_System_error_category@2@A@@YAXXZ
text$yc	SEGMENT
??__E?_System_object@?$_Error_objects@H@std@@2V_System_error_category@2@A@@YAXXZ PROC ; `dynamic initializer for 'std::_Error_objects<int>::_System_object'', COMDAT

; 627  : 		{	// estimate maximum array size

	push	ebp
	mov	ebp, esp
	mov	ecx, OFFSET ?_System_object@?$_Error_objects@H@std@@2V_System_error_category@2@A ; std::_Error_objects<int>::_System_object
	call	??0_System_error_category@std@@QAE@XZ	; std::_System_error_category::_System_error_category
	push	OFFSET ??__F?_System_object@?$_Error_objects@H@std@@2V_System_error_category@2@A@@YAXXZ ; `dynamic atexit destructor for 'std::_Error_objects<int>::_System_object''
	call	_atexit
	add	esp, 4
	pop	ebp
	ret	0
??__E?_System_object@?$_Error_objects@H@std@@2V_System_error_category@2@A@@YAXXZ ENDP ; `dynamic initializer for 'std::_Error_objects<int>::_System_object''
text$yc	ENDS
; Function compile flags: /Odtp
;	COMDAT ??__F?_Iostream_object@?$_Error_objects@H@std@@2V_Iostream_error_category@2@A@@YAXXZ
text$yd	SEGMENT
??__F?_Iostream_object@?$_Error_objects@H@std@@2V_Iostream_error_category@2@A@@YAXXZ PROC ; `dynamic atexit destructor for 'std::_Error_objects<int>::_Iostream_object'', COMDAT
	push	ebp
	mov	ebp, esp
	mov	ecx, OFFSET ?_Iostream_object@?$_Error_objects@H@std@@2V_Iostream_error_category@2@A ; std::_Error_objects<int>::_Iostream_object
	call	??1_Iostream_error_category@std@@UAE@XZ
	pop	ebp
	ret	0
??__F?_Iostream_object@?$_Error_objects@H@std@@2V_Iostream_error_category@2@A@@YAXXZ ENDP ; `dynamic atexit destructor for 'std::_Error_objects<int>::_Iostream_object''
text$yd	ENDS
; Function compile flags: /Odtp
; File c:\program files (x86)\microsoft visual studio 11.0\vc\include\xmemory0
;	COMDAT ??__E?_Iostream_object@?$_Error_objects@H@std@@2V_Iostream_error_category@2@A@@YAXXZ
text$yc	SEGMENT
??__E?_Iostream_object@?$_Error_objects@H@std@@2V_Iostream_error_category@2@A@@YAXXZ PROC ; `dynamic initializer for 'std::_Error_objects<int>::_Iostream_object'', COMDAT

; 627  : 		{	// estimate maximum array size

	push	ebp
	mov	ebp, esp
	mov	ecx, OFFSET ?_Iostream_object@?$_Error_objects@H@std@@2V_Iostream_error_category@2@A ; std::_Error_objects<int>::_Iostream_object
	call	??0_Iostream_error_category@std@@QAE@XZ	; std::_Iostream_error_category::_Iostream_error_category
	push	OFFSET ??__F?_Iostream_object@?$_Error_objects@H@std@@2V_Iostream_error_category@2@A@@YAXXZ ; `dynamic atexit destructor for 'std::_Error_objects<int>::_Iostream_object''
	call	_atexit
	add	esp, 4
	pop	ebp
	ret	0
??__E?_Iostream_object@?$_Error_objects@H@std@@2V_Iostream_error_category@2@A@@YAXXZ ENDP ; `dynamic initializer for 'std::_Error_objects<int>::_Iostream_object''
text$yc	ENDS
; Function compile flags: /Odtp
;	COMDAT ??__F?_Generic_object@?$_Error_objects@H@std@@2V_Generic_error_category@2@A@@YAXXZ
text$yd	SEGMENT
??__F?_Generic_object@?$_Error_objects@H@std@@2V_Generic_error_category@2@A@@YAXXZ PROC ; `dynamic atexit destructor for 'std::_Error_objects<int>::_Generic_object'', COMDAT
	push	ebp
	mov	ebp, esp
	mov	ecx, OFFSET ?_Generic_object@?$_Error_objects@H@std@@2V_Generic_error_category@2@A ; std::_Error_objects<int>::_Generic_object
	call	??1_Generic_error_category@std@@UAE@XZ
	pop	ebp
	ret	0
??__F?_Generic_object@?$_Error_objects@H@std@@2V_Generic_error_category@2@A@@YAXXZ ENDP ; `dynamic atexit destructor for 'std::_Error_objects<int>::_Generic_object''
text$yd	ENDS
; Function compile flags: /Odtp
; File c:\program files (x86)\microsoft visual studio 11.0\vc\include\xmemory0
;	COMDAT ??__E?_Generic_object@?$_Error_objects@H@std@@2V_Generic_error_category@2@A@@YAXXZ
text$yc	SEGMENT
??__E?_Generic_object@?$_Error_objects@H@std@@2V_Generic_error_category@2@A@@YAXXZ PROC ; `dynamic initializer for 'std::_Error_objects<int>::_Generic_object'', COMDAT

; 627  : 		{	// estimate maximum array size

	push	ebp
	mov	ebp, esp
	mov	ecx, OFFSET ?_Generic_object@?$_Error_objects@H@std@@2V_Generic_error_category@2@A ; std::_Error_objects<int>::_Generic_object
	call	??0_Generic_error_category@std@@QAE@XZ	; std::_Generic_error_category::_Generic_error_category
	push	OFFSET ??__F?_Generic_object@?$_Error_objects@H@std@@2V_Generic_error_category@2@A@@YAXXZ ; `dynamic atexit destructor for 'std::_Error_objects<int>::_Generic_object''
	call	_atexit
	add	esp, 4
	pop	ebp
	ret	0
??__E?_Generic_object@?$_Error_objects@H@std@@2V_Generic_error_category@2@A@@YAXXZ ENDP ; `dynamic initializer for 'std::_Error_objects<int>::_Generic_object''
text$yc	ENDS
; Function compile flags: /Odtp
; File c:\program files (x86)\microsoft visual studio 11.0\vc\include\xmemory0
;	COMDAT ??$_Allocate@D@std@@YAPADIPAD@Z
_TEXT	SEGMENT
__Ptr$ = -4						; size = 4
__Count$ = 8						; size = 4
___formal$ = 12						; size = 4
??$_Allocate@D@std@@YAPADIPAD@Z PROC			; std::_Allocate<char>, COMDAT

; 22   : 	{	// allocate storage for _Count elements of type _Ty

	push	ebp
	mov	ebp, esp
	push	ecx

; 23   : 	void *_Ptr = 0;

	mov	DWORD PTR __Ptr$[ebp], 0

; 24   : 
; 25   : 	if (_Count == 0)

	cmp	DWORD PTR __Count$[ebp], 0
	jne	SHORT $LN4@Allocate

; 26   : 		;
; 27   : 	else if (((size_t)(-1) / sizeof (_Ty) < _Count)

	jmp	SHORT $LN3@Allocate
$LN4@Allocate:

; 28   : 		|| (_Ptr = ::operator new(_Count * sizeof (_Ty))) == 0)

	cmp	DWORD PTR __Count$[ebp], -1
	ja	SHORT $LN1@Allocate
	mov	eax, DWORD PTR __Count$[ebp]
	push	eax
	call	??2@YAPAXI@Z				; operator new
	add	esp, 4
	mov	DWORD PTR __Ptr$[ebp], eax
	cmp	DWORD PTR __Ptr$[ebp], 0
	jne	SHORT $LN3@Allocate
$LN1@Allocate:

; 29   : 		_Xbad_alloc();	// report no memory

	call	?_Xbad_alloc@std@@YAXXZ			; std::_Xbad_alloc
$LN3@Allocate:

; 30   : 
; 31   : 	return ((_Ty *)_Ptr);

	mov	eax, DWORD PTR __Ptr$[ebp]
$LN6@Allocate:

; 32   : 	}

	mov	esp, ebp
	pop	ebp
	ret	0
??$_Allocate@D@std@@YAPADIPAD@Z ENDP			; std::_Allocate<char>
_TEXT	ENDS
; Function compile flags: /Odtp
; File c:\program files (x86)\microsoft visual studio 11.0\vc\include\xstddef
;	COMDAT ??$addressof@D@std@@YAPADAAD@Z
_TEXT	SEGMENT
__Val$ = 8						; size = 4
??$addressof@D@std@@YAPADAAD@Z PROC			; std::addressof<char>, COMDAT

; 85   : 	{	// return address of _Val

	push	ebp
	mov	ebp, esp

; 86   : 	return (reinterpret_cast<_Ty *>(
; 87   : 		(&const_cast<char&>(
; 88   : 		reinterpret_cast<const volatile char&>(_Val)))));

	mov	eax, DWORD PTR __Val$[ebp]

; 89   : 	}

	pop	ebp
	ret	0
??$addressof@D@std@@YAPADAAD@Z ENDP			; std::addressof<char>
_TEXT	ENDS
; Function compile flags: /Odtp
; File c:\program files (x86)\microsoft visual studio 11.0\vc\include\xmemory0
;	COMDAT ??$destroy@PAD@?$_Wrap_alloc@V?$allocator@D@std@@@std@@QAEXPAPAD@Z
_TEXT	SEGMENT
_this$ = -4						; size = 4
__Ptr$ = 8						; size = 4
??$destroy@PAD@?$_Wrap_alloc@V?$allocator@D@std@@@std@@QAEXPAPAD@Z PROC ; std::_Wrap_alloc<std::allocator<char> >::destroy<char *>, COMDAT
; _this$ = ecx

; 907  : 		void destroy(_Ty *_Ptr)

	push	ebp
	mov	ebp, esp
	push	ecx
	mov	DWORD PTR _this$[ebp], ecx

; 908  : 		{	// destroy object at _Ptr
; 909  : 		_Mytraits::destroy(*this, _Ptr);

	mov	eax, DWORD PTR __Ptr$[ebp]
	push	eax
	mov	ecx, DWORD PTR _this$[ebp]
	push	ecx
	call	??$destroy@PAD@?$allocator_traits@V?$allocator@D@std@@@std@@SAXAAV?$allocator@D@1@PAPAD@Z ; std::allocator_traits<std::allocator<char> >::destroy<char *>
	add	esp, 8

; 910  : 		}

	mov	esp, ebp
	pop	ebp
	ret	4
??$destroy@PAD@?$_Wrap_alloc@V?$allocator@D@std@@@std@@QAEXPAPAD@Z ENDP ; std::_Wrap_alloc<std::allocator<char> >::destroy<char *>
_TEXT	ENDS
; Function compile flags: /Odtp
; File c:\program files (x86)\microsoft visual studio 11.0\vc\include\xmemory0
;	COMDAT ??$construct@PADAAPAD@?$_Wrap_alloc@V?$allocator@D@std@@@std@@QAEXPAPADAAPAD@Z
_TEXT	SEGMENT
_this$ = -4						; size = 4
__Ptr$ = 8						; size = 4
__V0$ = 12						; size = 4
??$construct@PADAAPAD@?$_Wrap_alloc@V?$allocator@D@std@@@std@@QAEXPAPADAAPAD@Z PROC ; std::_Wrap_alloc<std::allocator<char> >::construct<char *,char * &>, COMDAT
; _this$ = ecx

; 903  : _VARIADIC_EXPAND_0X(_WRAP_ALLOC_CONSTRUCT, , , , )

	push	ebp
	mov	ebp, esp
	push	ecx
	mov	DWORD PTR _this$[ebp], ecx
	mov	eax, DWORD PTR __V0$[ebp]
	push	eax
	call	??$forward@AAPAD@std@@YAAAPADAAPAD@Z	; std::forward<char * &>
	add	esp, 4
	push	eax
	mov	ecx, DWORD PTR __Ptr$[ebp]
	push	ecx
	mov	edx, DWORD PTR _this$[ebp]
	push	edx
	call	??$construct@PADAAPAD@?$allocator_traits@V?$allocator@D@std@@@std@@SAXAAV?$allocator@D@1@PAPADAAPAD@Z ; std::allocator_traits<std::allocator<char> >::construct<char *,char * &>
	add	esp, 12					; 0000000cH
	mov	esp, ebp
	pop	ebp
	ret	8
??$construct@PADAAPAD@?$_Wrap_alloc@V?$allocator@D@std@@@std@@QAEXPAPADAAPAD@Z ENDP ; std::_Wrap_alloc<std::allocator<char> >::construct<char *,char * &>
_TEXT	ENDS
; Function compile flags: /Odtp
;	COMDAT ??__FSimDriver@@YAXXZ
text$yd	SEGMENT
??__FSimDriver@@YAXXZ PROC				; `dynamic atexit destructor for 'SimDriver'', COMDAT
	push	ebp
	mov	ebp, esp
	mov	ecx, OFFSET ?SimDriver@@3VSimulationDriver@@A ; SimDriver
	call	??1SimulationDriver@@QAE@XZ		; SimulationDriver::~SimulationDriver
	pop	ebp
	ret	0
??__FSimDriver@@YAXXZ ENDP				; `dynamic atexit destructor for 'SimDriver''
text$yd	ENDS
; Function compile flags: /Odtp
; File c:\users\zhitao li\documents\visual studio 2012\projects\freefalcon\sim\simdrive\simdrive.cpp
;	COMDAT ??__ESimDriver@@YAXXZ
text$yc	SEGMENT
??__ESimDriver@@YAXXZ PROC				; `dynamic initializer for 'SimDriver'', COMDAT

; 127  : SimulationDriver SimDriver;

	push	ebp
	mov	ebp, esp
	mov	ecx, OFFSET ?SimDriver@@3VSimulationDriver@@A ; SimDriver
	call	??0SimulationDriver@@QAE@XZ		; SimulationDriver::SimulationDriver
	push	OFFSET ??__FSimDriver@@YAXXZ		; `dynamic atexit destructor for 'SimDriver''
	call	_atexit
	add	esp, 4
	pop	ebp
	ret	0
??__ESimDriver@@YAXXZ ENDP				; `dynamic initializer for 'SimDriver''
text$yc	ENDS
; Function compile flags: /Odtp
; File c:\users\zhitao li\documents\visual studio 2012\projects\freefalcon\graphics\include\drawbsp.h
;	COMDAT ?Label@DrawableBSP@@QAEPADXZ
_TEXT	SEGMENT
_this$ = -4						; size = 4
?Label@DrawableBSP@@QAEPADXZ PROC			; DrawableBSP::Label, COMDAT
; _this$ = ecx

; 62   : 	char *Label()											{ return label; }

	push	ebp
	mov	ebp, esp
	push	ecx
	mov	DWORD PTR _this$[ebp], ecx
	mov	eax, DWORD PTR _this$[ebp]
	add	eax, 128				; 00000080H
	mov	esp, ebp
	pop	ebp
	ret	0
?Label@DrawableBSP@@QAEPADXZ ENDP			; DrawableBSP::Label
_TEXT	ENDS
; Function compile flags: /Odtp
; File c:\users\zhitao li\documents\visual studio 2012\projects\freefalcon\sim\include\object.h
;	COMDAT ?BaseData@SimObjectType@@QAEPAVFalconEntity@@XZ
_TEXT	SEGMENT
_this$ = -4						; size = 4
?BaseData@SimObjectType@@QAEPAVFalconEntity@@XZ PROC	; SimObjectType::BaseData, COMDAT
; _this$ = ecx

; 92   : 	FalconEntity* BaseData(void) { return baseData.get(); };

	push	ebp
	mov	ebp, esp
	push	ecx
	mov	DWORD PTR _this$[ebp], ecx
	mov	ecx, DWORD PTR _this$[ebp]
	call	?get@?$VuBin@VFalconEntity@@@@QBEPAVFalconEntity@@XZ ; VuBin<FalconEntity>::get
	mov	esp, ebp
	pop	ebp
	ret	0
?BaseData@SimObjectType@@QAEPAVFalconEntity@@XZ ENDP	; SimObjectType::BaseData
_TEXT	ENDS
; Function compile flags: /Odtp
; File c:\users\zhitao li\documents\visual studio 2012\projects\freefalcon\acmi\src\include\acmirec.h
;	COMDAT ?IsRecording@ACMIRecorder@@QAEHXZ
_TEXT	SEGMENT
_this$ = -4						; size = 4
?IsRecording@ACMIRecorder@@QAEHXZ PROC			; ACMIRecorder::IsRecording, COMDAT
; _this$ = ecx

; 319  : 	{

	push	ebp
	mov	ebp, esp
	push	ecx
	mov	DWORD PTR _this$[ebp], ecx

; 320  : 		return _recording;

	mov	eax, DWORD PTR _this$[ebp]
	mov	eax, DWORD PTR [eax+8]

; 321  : 	};

	mov	esp, ebp
	pop	ebp
	ret	0
?IsRecording@ACMIRecorder@@QAEHXZ ENDP			; ACMIRecorder::IsRecording
_TEXT	ENDS
; Function compile flags: /Odtp
; File c:\users\zhitao li\documents\visual studio 2012\projects\freefalcon\sim\include\bomb.h
;	COMDAT ?IsSetBombFlag@BombClass@@QAEHH@Z
_TEXT	SEGMENT
_this$ = -8						; size = 4
tv67 = -4						; size = 4
_newFlag$ = 8						; size = 4
?IsSetBombFlag@BombClass@@QAEHH@Z PROC			; BombClass::IsSetBombFlag, COMDAT
; _this$ = ecx

; 102  : 	int IsSetBombFlag (int newFlag) {return flags & newFlag ? TRUE : FALSE;};

	push	ebp
	mov	ebp, esp
	sub	esp, 8
	mov	DWORD PTR _this$[ebp], ecx
	mov	eax, DWORD PTR _this$[ebp]
	mov	ecx, DWORD PTR [eax+732]
	and	ecx, DWORD PTR _newFlag$[ebp]
	je	SHORT $LN3@IsSetBombF
	mov	DWORD PTR tv67[ebp], 1
	jmp	SHORT $LN4@IsSetBombF
$LN3@IsSetBombF:
	mov	DWORD PTR tv67[ebp], 0
$LN4@IsSetBombF:
	mov	eax, DWORD PTR tv67[ebp]
	mov	esp, ebp
	pop	ebp
	ret	4
?IsSetBombFlag@BombClass@@QAEHH@Z ENDP			; BombClass::IsSetBombFlag
_TEXT	ENDS
; Function compile flags: /Odtp
; File c:\users\zhitao li\documents\visual studio 2012\projects\freefalcon\sim\include\sensclas.h
;	COMDAT ?CurrentTarget@SensorClass@@QAEPAVSimObjectType@@XZ
_TEXT	SEGMENT
_this$ = -4						; size = 4
?CurrentTarget@SensorClass@@QAEPAVSimObjectType@@XZ PROC ; SensorClass::CurrentTarget, COMDAT
; _this$ = ecx

; 46   : 	SimObjectType* CurrentTarget(void)	{ return lockedTarget; };

	push	ebp
	mov	ebp, esp
	push	ecx
	mov	DWORD PTR _this$[ebp], ecx
	mov	eax, DWORD PTR _this$[ebp]
	mov	eax, DWORD PTR [eax+48]
	mov	esp, ebp
	pop	ebp
	ret	0
?CurrentTarget@SensorClass@@QAEPAVSimObjectType@@XZ ENDP ; SensorClass::CurrentTarget
_TEXT	ENDS
; Function compile flags: /Odtp
; File c:\users\zhitao li\documents\visual studio 2012\projects\freefalcon\sim\simdrive\simdrive.cpp
_TEXT	SEGMENT
_this$ = -4						; size = 4
?UpdateEntityLists@SimulationDriver@@AAEXXZ PROC	; SimulationDriver::UpdateEntityLists
; _this$ = ecx

; 1035 : void SimulationDriver::UpdateEntityLists(){

	push	ebp
	mov	ebp, esp
	push	ecx
	mov	DWORD PTR _this$[ebp], ecx

; 1036 : }

	mov	esp, ebp
	pop	ebp
	ret	0
?UpdateEntityLists@SimulationDriver@@AAEXXZ ENDP	; SimulationDriver::UpdateEntityLists
_TEXT	ENDS
; Function compile flags: /Odtp
; File c:\users\zhitao li\documents\visual studio 2012\projects\freefalcon\sim\simdrive\simdrive.cpp
_TEXT	SEGMENT
_this$ = -4						; size = 4
_theObject$ = 8						; size = 4
?SleepObject@SimulationDriver@@QAEXPAVSimBaseClass@@@Z PROC ; SimulationDriver::SleepObject
; _this$ = ecx

; 990  : {

	push	ebp
	mov	ebp, esp
	push	ecx
	mov	DWORD PTR _this$[ebp], ecx

; 991  : 	if (!theObject || !theObject->IsAwake())

	cmp	DWORD PTR _theObject$[ebp], 0
	je	SHORT $LN1@SleepObjec
	mov	ecx, DWORD PTR _theObject$[ebp]
	call	?IsAwake@SimBaseClass@@QBEHXZ		; SimBaseClass::IsAwake
	test	eax, eax
	jne	SHORT $LN2@SleepObjec
$LN1@SleepObjec:

; 992  : 		return;

	jmp	SHORT $LN3@SleepObjec
$LN2@SleepObjec:

; 993  : 
; 994  : 	theObject->Sleep();

	mov	eax, DWORD PTR _theObject$[ebp]
	mov	edx, DWORD PTR [eax]
	mov	ecx, DWORD PTR _theObject$[ebp]
	mov	eax, DWORD PTR [edx+108]
	call	eax
$LN3@SleepObjec:

; 995  : }

	mov	esp, ebp
	pop	ebp
	ret	4
?SleepObject@SimulationDriver@@QAEXPAVSimBaseClass@@@Z ENDP ; SimulationDriver::SleepObject
_TEXT	ENDS
; Function compile flags: /Odtp
; File c:\users\zhitao li\documents\visual studio 2012\projects\freefalcon\sim\simdrive\simdrive.cpp
_TEXT	SEGMENT
_flit$ = -32						; size = 12
_this$ = -20						; size = 4
_theObject$ = -16					; size = 4
__$EHRec$ = -12						; size = 12
_flightList$ = 8					; size = 4
?SleepCampaignFlight@SimulationDriver@@QAEXPAVTailInsertList@@@Z PROC ; SimulationDriver::SleepCampaignFlight
; _this$ = ecx

; 950  : {

	push	ebp
	mov	ebp, esp
	push	-1
	push	__ehhandler$?SleepCampaignFlight@SimulationDriver@@QAEXPAVTailInsertList@@@Z
	mov	eax, DWORD PTR fs:0
	push	eax
	sub	esp, 20					; 00000014H
	mov	eax, DWORD PTR ___security_cookie
	xor	eax, ebp
	push	eax
	lea	eax, DWORD PTR __$EHRec$[ebp]
	mov	DWORD PTR fs:0, eax
	mov	DWORD PTR _this$[ebp], ecx

; 951  : 	SimBaseClass*	theObject;
; 952  : 	VuListIterator	flit(flightList);

	mov	eax, DWORD PTR _flightList$[ebp]
	push	eax
	lea	ecx, DWORD PTR _flit$[ebp]
	call	??0VuListIterator@@QAE@PAVVuLinkedList@@@Z ; VuListIterator::VuListIterator
	mov	DWORD PTR __$EHRec$[ebp+8], 0

; 953  : 
; 954  : 	// Put all objects in this flight to sleep
; 955  : 	theObject = (SimBaseClass*)flit.GetFirst();

	lea	ecx, DWORD PTR _flit$[ebp]
	call	?GetFirst@VuListIterator@@QAEPAVVuEntity@@XZ ; VuListIterator::GetFirst
	mov	DWORD PTR _theObject$[ebp], eax
$LN2@SleepCampa:

; 956  : 	ShiAssert(theObject == NULL || FALSE == F4IsBadReadPtr(theObject, sizeof *theObject));
; 957  : 	//while (theObject) // JB 010306 CTD
; 958  : 	while (theObject && !F4IsBadReadPtr(theObject, sizeof(SimBaseClass))) // JB 010306 CTD

	cmp	DWORD PTR _theObject$[ebp], 0
	je	SHORT $LN1@SleepCampa
	push	592					; 00000250H
	mov	ecx, DWORD PTR _theObject$[ebp]
	push	ecx
	call	?F4IsBadReadPtr@@YA_NPBXI@Z		; F4IsBadReadPtr
	add	esp, 8
	movzx	edx, al
	test	edx, edx
	jne	SHORT $LN1@SleepCampa

; 959  : 	{
; 960  : 		theObject->Sleep();

	mov	eax, DWORD PTR _theObject$[ebp]
	mov	edx, DWORD PTR [eax]
	mov	ecx, DWORD PTR _theObject$[ebp]
	mov	eax, DWORD PTR [edx+108]
	call	eax

; 961  : 		theObject = (SimBaseClass*)flit.GetNext();

	lea	ecx, DWORD PTR _flit$[ebp]
	call	?GetNext@VuListIterator@@QAEPAVVuEntity@@XZ ; VuListIterator::GetNext
	mov	DWORD PTR _theObject$[ebp], eax

; 962  : 	}

	jmp	SHORT $LN2@SleepCampa
$LN1@SleepCampa:

; 963  : }

	mov	DWORD PTR __$EHRec$[ebp+8], -1
	lea	ecx, DWORD PTR _flit$[ebp]
	call	??1VuListIterator@@UAE@XZ		; VuListIterator::~VuListIterator
	mov	ecx, DWORD PTR __$EHRec$[ebp]
	mov	DWORD PTR fs:0, ecx
	pop	ecx
	mov	esp, ebp
	pop	ebp
	ret	4
_TEXT	ENDS
text$x	SEGMENT
__unwindfunclet$?SleepCampaignFlight@SimulationDriver@@QAEXPAVTailInsertList@@@Z$0:
	lea	ecx, DWORD PTR _flit$[ebp]
	jmp	??1VuListIterator@@UAE@XZ		; VuListIterator::~VuListIterator
__ehhandler$?SleepCampaignFlight@SimulationDriver@@QAEXPAVTailInsertList@@@Z:
	mov	edx, DWORD PTR [esp+8]
	lea	eax, DWORD PTR [edx+12]
	mov	ecx, DWORD PTR [edx-24]
	xor	ecx, eax
	call	@__security_check_cookie@4
	mov	eax, OFFSET __ehfuncinfo$?SleepCampaignFlight@SimulationDriver@@QAEXPAVTailInsertList@@@Z
	jmp	___CxxFrameHandler3
text$x	ENDS
?SleepCampaignFlight@SimulationDriver@@QAEXPAVTailInsertList@@@Z ENDP ; SimulationDriver::SleepCampaignFlight
; Function compile flags: /Odtp
; File c:\users\zhitao li\documents\visual studio 2012\projects\freefalcon\sim\simdrive\simdrive.cpp
_TEXT	SEGMENT
_this$ = -4						; size = 4
_theObject$ = 8						; size = 4
?WakeObject@SimulationDriver@@QAEXPAVSimBaseClass@@@Z PROC ; SimulationDriver::WakeObject
; _this$ = ecx

; 972  : {

	push	ebp
	mov	ebp, esp
	push	ecx
	mov	DWORD PTR _this$[ebp], ecx

; 973  : 	if (!theObject || theObject->IsAwake()){

	cmp	DWORD PTR _theObject$[ebp], 0
	je	SHORT $LN3@WakeObject
	mov	ecx, DWORD PTR _theObject$[ebp]
	call	?IsAwake@SimBaseClass@@QBEHXZ		; SimBaseClass::IsAwake
	test	eax, eax
	je	SHORT $LN4@WakeObject
$LN3@WakeObject:

; 974  : 		return;

	jmp	SHORT $LN5@WakeObject
$LN4@WakeObject:

; 975  : 	}
; 976  : 
; 977  : 	// If it's a player only object, wait until a player actually attaches before allowing the wake.
; 978  : 	if (theObject->IsSetFalcFlag(FEC_PLAYERONLY)){

	push	2
	mov	ecx, DWORD PTR _theObject$[ebp]
	call	?IsSetFalcFlag@FalconEntity@@QAEHH@Z	; FalconEntity::IsSetFalcFlag
	test	eax, eax
	je	SHORT $LN2@WakeObject

; 979  : 		GameManager.CheckPlayerStatus(theObject);

	mov	eax, DWORD PTR _theObject$[ebp]
	push	eax
	mov	ecx, OFFSET ?GameManager@@3VGameManagerClass@@A ; GameManager
	call	?CheckPlayerStatus@GameManagerClass@@QAEHPAVFalconEntity@@@Z ; GameManagerClass::CheckPlayerStatus

; 980  : 		if (!theObject->IsSetFalcFlag(FEC_HASPLAYERS)){

	push	4
	mov	ecx, DWORD PTR _theObject$[ebp]
	call	?IsSetFalcFlag@FalconEntity@@QAEHH@Z	; FalconEntity::IsSetFalcFlag
	test	eax, eax
	jne	SHORT $LN2@WakeObject

; 981  : 			return;

	jmp	SHORT $LN5@WakeObject
$LN2@WakeObject:

; 982  : 		}
; 983  : 	}
; 984  : 
; 985  : 	theObject->Wake();

	mov	ecx, DWORD PTR _theObject$[ebp]
	mov	edx, DWORD PTR [ecx]
	mov	ecx, DWORD PTR _theObject$[ebp]
	mov	eax, DWORD PTR [edx+104]
	call	eax
$LN5@WakeObject:

; 986  : }

	mov	esp, ebp
	pop	ebp
	ret	4
?WakeObject@SimulationDriver@@QAEXPAVSimBaseClass@@@Z ENDP ; SimulationDriver::WakeObject
_TEXT	ENDS
; Function compile flags: /Odtp
; File c:\users\zhitao li\documents\visual studio 2012\projects\freefalcon\sim\simdrive\simdrive.cpp
_TEXT	SEGMENT
_cit$ = -48						; size = 12
_this$ = -36						; size = 4
_last_to_add$ = -32					; size = 4
_vehicles$ = -28					; size = 4
_num$2 = -24						; size = 4
_woken$ = -20						; size = 4
_theObject$ = -16					; size = 4
__$EHRec$ = -12						; size = 12
_isUnit$ = 8						; size = 4
_baseEntity$ = 12					; size = 4
_comps$ = 16						; size = 4
?WakeCampaignBase@SimulationDriver@@QAEXHPAVCampBaseClass@@PAVTailInsertList@@@Z PROC ; SimulationDriver::WakeCampaignBase
; _this$ = ecx

; 885  : {

	push	ebp
	mov	ebp, esp
	push	-1
	push	__ehhandler$?WakeCampaignBase@SimulationDriver@@QAEXHPAVCampBaseClass@@PAVTailInsertList@@@Z
	mov	eax, DWORD PTR fs:0
	push	eax
	sub	esp, 36					; 00000024H
	push	esi
	mov	eax, DWORD PTR ___security_cookie
	xor	eax, ebp
	push	eax
	lea	eax, DWORD PTR __$EHRec$[ebp]
	mov	DWORD PTR fs:0, eax
	mov	DWORD PTR _this$[ebp], ecx

; 886  : 	//// pm
; 887  : 	//#ifdef _DEBUG
; 888  : 	//	int flightList =0;
; 889  : 	//#endif
; 890  : 	SimBaseClass* theObject = NULL;

	mov	DWORD PTR _theObject$[ebp], 0

; 891  : 	int	vehicles=0,last_to_add=0,woken=0;

	mov	DWORD PTR _vehicles$[ebp], 0
	mov	DWORD PTR _last_to_add$[ebp], 0
	mov	DWORD PTR _woken$[ebp], 0

; 892  : 
; 893  : 
; 894  : 	//ShiAssert ( flightList );
; 895  : 	ShiAssert ( baseEntity );
; 896  : 
; 897  : 	if (isUnit){

	cmp	DWORD PTR _isUnit$[ebp], 0
	je	SHORT $LN11@WakeCampai

; 898  : 		vehicles = ((Unit)baseEntity)->GetTotalVehicles();

	mov	ecx, DWORD PTR _baseEntity$[ebp]
	call	?GetTotalVehicles@UnitClass@@QAEHXZ	; UnitClass::GetTotalVehicles
	mov	DWORD PTR _vehicles$[ebp], eax

; 899  : 		if (vehicles > 4){

	cmp	DWORD PTR _vehicles$[ebp], 4
	jle	SHORT $LN10@WakeCampai

; 900  : 			// edg: a better detail setting algorithm.  Minimum vehicles is 3.
; 901  : 			// use a quadratic function on slider percentage.
; 902  : 			// so, if the battalion is 48 units the slider settings will give:
; 903  : 			//	0 = 3
; 904  : 			//	1 = 4
; 905  : 			//	2 = 10
; 906  : 			//  3 = 20
; 907  : 			//  4 = 33
; 908  : 			//  5 = 48
; 909  : 			int num = PlayerOptions.ObjectDeaggLevel();

	mov	ecx, OFFSET ?PlayerOptions@@3VPlayerOptionsClass@@A ; PlayerOptions
	call	?ObjectDeaggLevel@PlayerOptionsClass@@QAEHXZ ; PlayerOptionsClass::ObjectDeaggLevel
	mov	DWORD PTR _num$2[ebp], eax

; 910  : 			num *= num;

	mov	eax, DWORD PTR _num$2[ebp]
	imul	eax, DWORD PTR _num$2[ebp]
	mov	DWORD PTR _num$2[ebp], eax

; 911  : 			last_to_add = 2 + vehicles * num / 10000;

	mov	eax, DWORD PTR _vehicles$[ebp]
	imul	eax, DWORD PTR _num$2[ebp]
	cdq
	mov	ecx, 10000				; 00002710H
	idiv	ecx
	add	eax, 2
	mov	DWORD PTR _last_to_add$[ebp], eax

; 912  : 		}
; 913  : 		else {

	jmp	SHORT $LN11@WakeCampai
$LN10@WakeCampai:

; 914  : 			last_to_add = vehicles;

	mov	edx, DWORD PTR _vehicles$[ebp]
	mov	DWORD PTR _last_to_add$[ebp], edx
$LN11@WakeCampai:

; 915  : 		}
; 916  : 	}
; 917  : 
; 918  : 	// Add our list of objects.
; 919  : 	VuListIterator cit(comps);

	mov	eax, DWORD PTR _comps$[ebp]
	push	eax
	lea	ecx, DWORD PTR _cit$[ebp]
	call	??0VuListIterator@@QAE@PAVVuLinkedList@@@Z ; VuListIterator::VuListIterator
	mov	DWORD PTR __$EHRec$[ebp+8], 0

; 920  : 	for (

	lea	ecx, DWORD PTR _cit$[ebp]
	call	?GetFirst@VuListIterator@@QAEPAVVuEntity@@XZ ; VuListIterator::GetFirst
	mov	DWORD PTR _theObject$[ebp], eax

; 921  : 		theObject = static_cast<SimBaseClass*>(cit.GetFirst());
; 922  : 		theObject != NULL;

	jmp	SHORT $LN8@WakeCampai
$LN7@WakeCampai:

; 923  : 		theObject = static_cast<SimBaseClass*>(cit.GetNext())
; 924  : 	){

	lea	ecx, DWORD PTR _cit$[ebp]
	call	?GetNext@VuListIterator@@QAEPAVVuEntity@@XZ ; VuListIterator::GetNext
	mov	DWORD PTR _theObject$[ebp], eax
$LN8@WakeCampai:
	cmp	DWORD PTR _theObject$[ebp], 0
	je	SHORT $LN6@WakeCampai

; 925  : 		// KCK: Decide not to wake some ground vehicles/features -
; 926  : 		if (isUnit){

	cmp	DWORD PTR _isUnit$[ebp], 0
	je	SHORT $LN5@WakeCampai

; 927  : 			// Wake vehicles by percentage
; 928  : 			if (
; 929  : 				(woken <= last_to_add) || 
; 930  : 				(theObject->GetSlot() == ((Unit)baseEntity)->class_data->RadarVehicle)
; 931  : 			){

	mov	ecx, DWORD PTR _woken$[ebp]
	cmp	ecx, DWORD PTR _last_to_add$[ebp]
	jle	SHORT $LN3@WakeCampai
	mov	ecx, DWORD PTR _theObject$[ebp]
	call	?GetSlot@SimBaseClass@@QAEHXZ		; SimBaseClass::GetSlot
	mov	edx, DWORD PTR _baseEntity$[ebp]
	mov	ecx, DWORD PTR [edx+236]
	movzx	edx, BYTE PTR [ecx+328]
	cmp	eax, edx
	jne	SHORT $LN4@WakeCampai
$LN3@WakeCampai:

; 932  : 				WakeObject(theObject);

	mov	eax, DWORD PTR _theObject$[ebp]
	push	eax
	mov	ecx, DWORD PTR _this$[ebp]
	call	?WakeObject@SimulationDriver@@QAEXPAVSimBaseClass@@@Z ; SimulationDriver::WakeObject

; 933  : 				woken++;

	mov	ecx, DWORD PTR _woken$[ebp]
	add	ecx, 1
	mov	DWORD PTR _woken$[ebp], ecx
$LN4@WakeCampai:

; 934  : 			}
; 935  : 		}
; 936  : 		else {

	jmp	SHORT $LN2@WakeCampai
$LN5@WakeCampai:

; 937  : 			// Wake features by detail level
; 938  : 			if (theObject->displayPriority <= PlayerOptions.BuildingDeaggLevel()){

	mov	edx, DWORD PTR _theObject$[ebp]
	movsx	esi, BYTE PTR [edx+336]
	mov	ecx, OFFSET ?PlayerOptions@@3VPlayerOptionsClass@@A ; PlayerOptions
	call	?BuildingDeaggLevel@PlayerOptionsClass@@QAEHXZ ; PlayerOptionsClass::BuildingDeaggLevel
	cmp	esi, eax
	jg	SHORT $LN2@WakeCampai

; 939  : 				WakeObject(theObject);

	mov	eax, DWORD PTR _theObject$[ebp]
	push	eax
	mov	ecx, DWORD PTR _this$[ebp]
	call	?WakeObject@SimulationDriver@@QAEXPAVSimBaseClass@@@Z ; SimulationDriver::WakeObject

; 940  : 				woken++;

	mov	ecx, DWORD PTR _woken$[ebp]
	add	ecx, 1
	mov	DWORD PTR _woken$[ebp], ecx
$LN2@WakeCampai:

; 941  : 			}
; 942  : 		}
; 943  : 		theObject->SetCampaignObject(baseEntity);

	mov	edx, DWORD PTR _baseEntity$[ebp]
	push	edx
	mov	ecx, DWORD PTR _theObject$[ebp]
	call	?SetCampaignObject@SimBaseClass@@QAEXPAVCampBaseClass@@@Z ; SimBaseClass::SetCampaignObject

; 944  : 	}

	jmp	$LN7@WakeCampai
$LN6@WakeCampai:

; 945  : }

	mov	DWORD PTR __$EHRec$[ebp+8], -1
	lea	ecx, DWORD PTR _cit$[ebp]
	call	??1VuListIterator@@UAE@XZ		; VuListIterator::~VuListIterator
	mov	ecx, DWORD PTR __$EHRec$[ebp]
	mov	DWORD PTR fs:0, ecx
	pop	ecx
	pop	esi
	mov	esp, ebp
	pop	ebp
	ret	12					; 0000000cH
_TEXT	ENDS
text$x	SEGMENT
__unwindfunclet$?WakeCampaignBase@SimulationDriver@@QAEXHPAVCampBaseClass@@PAVTailInsertList@@@Z$0:
	lea	ecx, DWORD PTR _cit$[ebp]
	jmp	??1VuListIterator@@UAE@XZ		; VuListIterator::~VuListIterator
__ehhandler$?WakeCampaignBase@SimulationDriver@@QAEXHPAVCampBaseClass@@PAVTailInsertList@@@Z:
	mov	edx, DWORD PTR [esp+8]
	lea	eax, DWORD PTR [edx+12]
	mov	ecx, DWORD PTR [edx-44]
	xor	ecx, eax
	call	@__security_check_cookie@4
	mov	eax, OFFSET __ehfuncinfo$?WakeCampaignBase@SimulationDriver@@QAEXHPAVCampBaseClass@@PAVTailInsertList@@@Z
	jmp	___CxxFrameHandler3
text$x	ENDS
?WakeCampaignBase@SimulationDriver@@QAEXHPAVCampBaseClass@@PAVTailInsertList@@@Z ENDP ; SimulationDriver::WakeCampaignBase
; Function compile flags: /Odtp
; File c:\users\zhitao li\documents\visual studio 2012\projects\freefalcon\sim\simdrive\simdrive.cpp
_TEXT	SEGMENT
_this$ = -4						; size = 4
?ShrinkSimMemoryPools@SimulationDriver@@QAEXXZ PROC	; SimulationDriver::ShrinkSimMemoryPools
; _this$ = ecx

; 2423 : {

	push	ebp
	mov	ebp, esp
	push	ecx
	mov	DWORD PTR _this$[ebp], ecx

; 2424 : #if 0
; 2425 : 	// Free Memory Pools
; 2426 : #ifdef USE_SH_POOLS
; 2427 : 	i += MemPoolShrink( MemDefaultPool );
; 2428 : 	// i += MemPoolShrink( glMemPool );
; 2429 : 	i += MemPoolShrink( AirframeClass::pool );
; 2430 : 	i += MemPoolShrink( AircraftClass::pool );
; 2431 : 	i += MemPoolShrink( MissileClass::pool );
; 2432 : 	i += MemPoolShrink( BombClass::pool );
; 2433 : 	i += MemPoolShrink( SimObjectType::pool );
; 2434 : 	i += MemPoolShrink( SimObjectLocalData::pool );
; 2435 : 	i += MemPoolShrink( SfxClass::pool );
; 2436 : 	i += MemPoolShrink( GunClass::pool );
; 2437 : 	i += MemPoolShrink( GroundClass::pool );
; 2438 : 	i += MemPoolShrink( GNDAIClass::pool );
; 2439 : 	i += MemPoolShrink( SimFeatureClass::pool );
; 2440 : 
; 2441 : 	i += MemPoolShrink( Drawable2D::pool );
; 2442 : 	i += MemPoolShrink( DrawableTracer::pool );
; 2443 : 	i += MemPoolShrink( DrawableGroundVehicle::pool );
; 2444 : 	i += MemPoolShrink( DrawableBuilding::pool );
; 2445 : 	i += MemPoolShrink( DrawableBSP::pool );
; 2446 : 	i += MemPoolShrink( DrawableShadowed::pool );
; 2447 : 	i += MemPoolShrink( DrawableBridge::pool );
; 2448 : 	i += MemPoolShrink( DrawableOvercast::pool );
; 2449 : 
; 2450 : 	i += MemPoolShrink( DrawablePlatform::pool );
; 2451 : 	i += MemPoolShrink( DrawableRoadbed::pool );
; 2452 : 	i += MemPoolShrink( DrawableTrail::pool );
; 2453 : 	i += MemPoolShrink( TrailElement::pool );
; 2454 : 	i += MemPoolShrink( DrawablePuff::pool );
; 2455 : 	i += MemPoolShrink( DrawablePoint::pool );
; 2456 : 	i += MemPoolShrink( DrawableGuys::pool );
; 2457 : 
; 2458 : 	i += MemPoolShrink( displayList::pool );
; 2459 : 	i += MemPoolShrink( drawPtrList::pool );
; 2460 : 	i += MemPoolShrink( sfxRequest::pool );
; 2461 : 
; 2462 : 	i += MemPoolShrink( WayPointClass::pool );
; 2463 : 	i += MemPoolShrink( SMSBaseClass::pool );
; 2464 : 	i += MemPoolShrink( SMSClass::pool );
; 2465 : 	i += MemPoolShrink( BasicWeaponStation::pool );
; 2466 : 	i += MemPoolShrink( AdvancedWeaponStation::pool );
; 2467 : 
; 2468 : 	MonoPrint( "Sim Memory Pools shrunk by %d bytes\n", i );
; 2469 : #endif
; 2470 : #endif
; 2471 : }

	mov	esp, ebp
	pop	ebp
	ret	0
?ShrinkSimMemoryPools@SimulationDriver@@QAEXXZ ENDP	; SimulationDriver::ShrinkSimMemoryPools
_TEXT	ENDS
; Function compile flags: /Odtp
; File c:\users\zhitao li\documents\visual studio 2012\projects\freefalcon\sim\simdrive\simdrive.cpp
_TEXT	SEGMENT
_this$ = -4						; size = 4
?ReleaseSimMemoryPools@SimulationDriver@@QAEXXZ PROC	; SimulationDriver::ReleaseSimMemoryPools
; _this$ = ecx

; 2319 : {

	push	ebp
	mov	ebp, esp
	push	ecx
	mov	DWORD PTR _this$[ebp], ecx

; 2320 : 	MonoPrint( "Releasing Sim Memory Pools....\n" );

	push	OFFSET ??_C@_0CA@GIKOJPJG@Releasing?5Sim?5Memory?5Pools?4?4?4?4?6?$AA@
	call	_MonoPrint
	add	esp, 4

; 2321 : 
; 2322 : #ifdef CHECK_LEAKAGE
; 2323 : 	dbgMemSetCheckpoint( 4 );
; 2324 : 	if ( lastErrorFn )
; 2325 : 	{
; 2326 : 		dbgMemReportLeakage( MemDefaultPool, 3, 4  );
; 2327 : 		MemSetErrorHandler(lastErrorFn);
; 2328 : 		dbgMemSetDefaultErrorOutput( DBGMEM_OUTPUT_FILE, "simleak.txt" );
; 2329 : 		dbgMemReportLeakage( MemDefaultPool, 3, 4  );
; 2330 : 		MemSetErrorHandler(errPrint);
; 2331 : 	}
; 2332 : 	else
; 2333 : 	{
; 2334 : 		dbgMemSetDefaultErrorOutput( DBGMEM_OUTPUT_FILE, "simleak.txt" );
; 2335 : 		dbgMemReportLeakage( MemDefaultPool, 3, 4  );
; 2336 : 	}
; 2337 : #endif
; 2338 : 
; 2339 : 	// Free Memory Pools
; 2340 : #ifdef USE_SH_POOLS
; 2341 : 	AirframeClass::ReleaseStorage();
; 2342 : 	AircraftClass::ReleaseStorage();
; 2343 : 	DigitalBrain::ReleaseStorage();
; 2344 : 	MissileClass::ReleaseStorage();
; 2345 : 	MissileInFlightData::ReleaseStorage();
; 2346 : 	BombClass::ReleaseStorage();
; 2347 : 	ChaffClass::ReleaseStorage();
; 2348 : 	FlareClass::ReleaseStorage();
; 2349 : 	DebrisClass::ReleaseStorage();
; 2350 : 	SimObjectType::ReleaseStorage();
; 2351 : 	SimObjectLocalData::ReleaseStorage();
; 2352 : 	SfxClass::ReleaseStorage();
; 2353 : 	GunClass::ReleaseStorage();
; 2354 : 	GroundClass::ReleaseStorage();
; 2355 : 	GNDAIClass::ReleaseStorage();
; 2356 : 	SimFeatureClass::ReleaseStorage();
; 2357 : 
; 2358 : 	Drawable2D::ReleaseStorage();
; 2359 : 	DrawableTracer::ReleaseStorage();
; 2360 : 	DrawableGroundVehicle::ReleaseStorage();
; 2361 : 	DrawableBuilding::ReleaseStorage();
; 2362 : 	DrawableBSP::ReleaseStorage();
; 2363 : 	DrawableShadowed::ReleaseStorage();
; 2364 : 	DrawableBridge::ReleaseStorage();
; 2365 : 	DrawableOvercast::ReleaseStorage();
; 2366 : 
; 2367 : 	// Don't need this: Scott has done some evil #define overloading DrawableOvercast
; 2368 : 	//DrawableOvercast2::ReleaseStorage();
; 2369 : 
; 2370 : 	DrawablePlatform::ReleaseStorage();
; 2371 : 	DrawableRoadbed::ReleaseStorage();
; 2372 : 	DrawableTrail::ReleaseStorage();
; 2373 : 	TrailElement::ReleaseStorage();
; 2374 : 	DrawablePuff::ReleaseStorage();
; 2375 : 	DrawablePoint::ReleaseStorage();
; 2376 : 	DrawableGuys::ReleaseStorage();
; 2377 : 
; 2378 : 	displayList::ReleaseStorage();
; 2379 : 	drawPtrList::ReleaseStorage();
; 2380 : 	sfxRequest::ReleaseStorage();
; 2381 : 
; 2382 : 	WayPointClass::ReleaseStorage();
; 2383 : 	SMSBaseClass::ReleaseStorage();
; 2384 : 	SMSClass::ReleaseStorage();
; 2385 : 	BasicWeaponStation::ReleaseStorage();
; 2386 : 	AdvancedWeaponStation::ReleaseStorage();
; 2387 : 
; 2388 : 	HelicopterClass::ReleaseStorage();
; 2389 : 	HeliBrain::ReleaseStorage();
; 2390 : 
; 2391 : 	SimVuDriver::ReleaseStorage();
; 2392 : 	SimVuSlave::ReleaseStorage();
; 2393 : 
; 2394 : 	ObjectGeometry::ReleaseStorage();
; 2395 : 
; 2396 : 	ListElementClass::ReleaseStorage();
; 2397 : 	ListClass::ReleaseStorage();
; 2398 : 
; 2399 : 	UnitDeaggregationData::ReleaseStorage();
; 2400 : 	MissionRequestClass::ReleaseStorage();
; 2401 : 	DivisionClass::ReleaseStorage();
; 2402 : 
; 2403 : 	EventElement::ReleaseStorage();
; 2404 : 	ATCBrain::ReleaseStorage();
; 2405 : 
; 2406 : 	MemPoolFree( gFaultMemPool );
; 2407 : 	MemPoolFree( gTextMemPool );
; 2408 : 	MemPoolFree( gObjMemPool );
; 2409 : 	MemPoolFree( gReadInMemPool );
; 2410 : 	MemPoolFree( gCockMemPool );
; 2411 : 	MemPoolFree( gTacanMemPool );
; 2412 : #endif
; 2413 : 
; 2414 : 	// OW
; 2415 : 	GraphicsDataPoolReleaseStorage();

	call	?GraphicsDataPoolReleaseStorage@@YAXXZ	; GraphicsDataPoolReleaseStorage

; 2416 : }

	mov	esp, ebp
	pop	ebp
	ret	0
?ReleaseSimMemoryPools@SimulationDriver@@QAEXXZ ENDP	; SimulationDriver::ReleaseSimMemoryPools
_TEXT	ENDS
; Function compile flags: /Odtp
; File c:\users\zhitao li\documents\visual studio 2012\projects\freefalcon\sim\simdrive\simdrive.cpp
_TEXT	SEGMENT
_this$ = -4						; size = 4
?InitializeSimMemoryPools@SimulationDriver@@QAEXXZ PROC	; SimulationDriver::InitializeSimMemoryPools
; _this$ = ecx

; 2234 : {

	push	ebp
	mov	ebp, esp
	push	ecx
	mov	DWORD PTR _this$[ebp], ecx

; 2235 : 	MonoPrint( "Initializing Sim Memory Pools....\n" );

	push	OFFSET ??_C@_0CD@CFEJHFML@Initializing?5Sim?5Memory?5Pools?4?4?4@
	call	_MonoPrint
	add	esp, 4

; 2236 : 
; 2237 : #ifdef CHECK_LEAKAGE
; 2238 : 	dbgMemSetCheckpoint( 3 );
; 2239 : 	// dbgMemSetSafetyLevel( MEM_SAFETY_DEBUG );
; 2240 : #endif
; 2241 : 
; 2242 : 	// Allocate Memory Pools
; 2243 : #ifdef USE_SH_POOLS
; 2244 : 	AirframeClass::InitializeStorage();
; 2245 : 	AircraftClass::InitializeStorage();
; 2246 : 	MissileClass::InitializeStorage();
; 2247 : 	MissileInFlightData::InitializeStorage();
; 2248 : 	BombClass::InitializeStorage();
; 2249 : 	ChaffClass::InitializeStorage();
; 2250 : 	FlareClass::InitializeStorage();
; 2251 : 	DebrisClass::InitializeStorage();
; 2252 : 	SimObjectType::InitializeStorage();
; 2253 : 	SimObjectLocalData::InitializeStorage();
; 2254 : 	SfxClass::InitializeStorage();
; 2255 : 	GunClass::InitializeStorage();
; 2256 : 	GroundClass::InitializeStorage();
; 2257 : 	GNDAIClass::InitializeStorage();
; 2258 : 	SimFeatureClass::InitializeStorage();
; 2259 : 
; 2260 : 	Drawable2D::InitializeStorage();
; 2261 : 	DrawableTracer::InitializeStorage();
; 2262 : 	DrawableGroundVehicle::InitializeStorage();
; 2263 : 	DrawableBuilding::InitializeStorage();
; 2264 : 	DrawableBSP::InitializeStorage();
; 2265 : 	DrawableShadowed::InitializeStorage();
; 2266 : 	DrawableBridge::InitializeStorage();
; 2267 : 	DrawableOvercast::InitializeStorage();
; 2268 : 
; 2269 : 	// Don't need this: Scott has done some evil #define overloading DrawableOvercast
; 2270 : 	//DrawableOvercast2::InitializeStorage();
; 2271 : 
; 2272 : 	DrawablePlatform::InitializeStorage();
; 2273 : 	DrawableRoadbed::InitializeStorage();
; 2274 : 	DrawableTrail::InitializeStorage();
; 2275 : 	TrailElement::InitializeStorage();
; 2276 : 	DrawablePuff::InitializeStorage();
; 2277 : 	DrawablePoint::InitializeStorage();
; 2278 : 	DrawableGuys::InitializeStorage();
; 2279 : 
; 2280 : 	displayList::InitializeStorage();
; 2281 : 	drawPtrList::InitializeStorage();
; 2282 : 	sfxRequest::InitializeStorage();
; 2283 : 
; 2284 : 	WayPointClass::InitializeStorage();
; 2285 : 	SMSBaseClass::InitializeStorage();
; 2286 : 	SMSClass::InitializeStorage();
; 2287 : 	BasicWeaponStation::InitializeStorage();
; 2288 : 	AdvancedWeaponStation::InitializeStorage();
; 2289 : 	DigitalBrain::InitializeStorage();
; 2290 : 	HelicopterClass::InitializeStorage();
; 2291 : 	HeliBrain::InitializeStorage();
; 2292 : 	SimVuDriver::InitializeStorage();
; 2293 : 	SimVuSlave::InitializeStorage();
; 2294 : 
; 2295 : 	ObjectGeometry::InitializeStorage();
; 2296 : 
; 2297 : 	ListElementClass::InitializeStorage();
; 2298 : 	ListClass::InitializeStorage();
; 2299 : 
; 2300 : 	UnitDeaggregationData::InitializeStorage();
; 2301 : 	MissionRequestClass::InitializeStorage();
; 2302 : 	DivisionClass::InitializeStorage();
; 2303 : 	EventElement::InitializeStorage();
; 2304 : 	ATCBrain::InitializeStorage();
; 2305 : 
; 2306 : 	gFaultMemPool = MemPoolInit( 0 );
; 2307 : 	gTextMemPool = MemPoolInit( 0 );
; 2308 : 	gObjMemPool = MemPoolInit( 0 );
; 2309 : 	gReadInMemPool = MemPoolInit( 0 );
; 2310 : 	gCockMemPool = MemPoolInit( 0 );
; 2311 : 	gTacanMemPool = MemPoolInit( 0 );
; 2312 : #endif
; 2313 : 
; 2314 : 	// OW
; 2315 : 	GraphicsDataPoolInitializeStorage();

	call	?GraphicsDataPoolInitializeStorage@@YAXXZ ; GraphicsDataPoolInitializeStorage

; 2316 : }

	mov	esp, ebp
	pop	ebp
	ret	0
?InitializeSimMemoryPools@SimulationDriver@@QAEXXZ ENDP	; SimulationDriver::InitializeSimMemoryPools
_TEXT	ENDS
; Function compile flags: /Odtp
; File c:\users\zhitao li\documents\visual studio 2012\projects\freefalcon\sim\simdrive\simdrive.cpp
_TEXT	SEGMENT
_this$ = -4						; size = 4
_povHatAngle$ = 8					; size = 4
?POVKludgeFunction@SimulationDriver@@QAEXK@Z PROC	; SimulationDriver::POVKludgeFunction
; _this$ = ecx

; 2036 : void SimulationDriver::POVKludgeFunction(DWORD povHatAngle) { // VWF POV Kludge 11/24/97, Yeah its a mess, remove after demo

	push	ebp
	mov	ebp, esp
	push	ecx
	mov	DWORD PTR _this$[ebp], ecx

; 2037 : 
; 2038 : 	//static DWORD previousAngle = -1;
; 2039 : 
; 2040 : 	//if((povHatAngle == -1 && previousAngle != -1) ||
; 2041 : 	//	(povHatAngle != -1 && previousAngle == -1)) {
; 2042 : 
; 2043 : 	if(	OTWDriver.GetOTWDisplayMode() == OTWDriverClass::Mode3DCockpit	 || 
; 2044 : 			OTWDriver.GetOTWDisplayMode() == OTWDriverClass::ModePadlockF3	 || // 2002-02-17 MODIFIED BY S.G. Needed now for the 'break lock by POV' to work
; 2045 : 			OTWDriver.GetOTWDisplayMode() == OTWDriverClass::ModePadlockEFOV || // 2002-02-17 MODIFIED BY S.G. Needed now for the 'break lock by POV' to work
; 2046 : 			OTWDriver.GetOTWDisplayMode() == OTWDriverClass::ModeOrbit		 ||
; 2047 : 			OTWDriver.GetOTWDisplayMode() == OTWDriverClass::ModeChase		 ||
; 2048 : 			OTWDriver.GetOTWDisplayMode() == OTWDriverClass::ModeSatellite) {

	mov	ecx, OFFSET ?OTWDriver@@3VOTWDriverClass@@A ; OTWDriver
	call	?GetOTWDisplayMode@OTWDriverClass@@QAE?AW4OTWDisplayMode@1@XZ ; OTWDriverClass::GetOTWDisplayMode
	cmp	eax, 3
	je	SHORT $LN39@POVKludgeF
	mov	ecx, OFFSET ?OTWDriver@@3VOTWDriverClass@@A ; OTWDriver
	call	?GetOTWDisplayMode@OTWDriverClass@@QAE?AW4OTWDisplayMode@1@XZ ; OTWDriverClass::GetOTWDisplayMode
	cmp	eax, 4
	je	SHORT $LN39@POVKludgeF
	mov	ecx, OFFSET ?OTWDriver@@3VOTWDriverClass@@A ; OTWDriver
	call	?GetOTWDisplayMode@OTWDriverClass@@QAE?AW4OTWDisplayMode@1@XZ ; OTWDriverClass::GetOTWDisplayMode
	cmp	eax, 5
	je	SHORT $LN39@POVKludgeF
	mov	ecx, OFFSET ?OTWDriver@@3VOTWDriverClass@@A ; OTWDriver
	call	?GetOTWDisplayMode@OTWDriverClass@@QAE?AW4OTWDisplayMode@1@XZ ; OTWDriverClass::GetOTWDisplayMode
	cmp	eax, 6
	je	SHORT $LN39@POVKludgeF
	mov	ecx, OFFSET ?OTWDriver@@3VOTWDriverClass@@A ; OTWDriver
	call	?GetOTWDisplayMode@OTWDriverClass@@QAE?AW4OTWDisplayMode@1@XZ ; OTWDriverClass::GetOTWDisplayMode
	cmp	eax, 7
	je	SHORT $LN39@POVKludgeF
	mov	ecx, OFFSET ?OTWDriver@@3VOTWDriverClass@@A ; OTWDriver
	call	?GetOTWDisplayMode@OTWDriverClass@@QAE?AW4OTWDisplayMode@1@XZ ; OTWDriverClass::GetOTWDisplayMode
	cmp	eax, 14					; 0000000eH
	jne	$LN40@POVKludgeF
$LN39@POVKludgeF:

; 2049 : 		/*
; 2050 : 			 if(povHatAngle == -1) {
; 2051 : 			 OTWDriver.ViewTiltHold();
; 2052 : 			 OTWDriver.ViewSpinHold();
; 2053 : 			 }
; 2054 : 			 else if((povHatAngle > POV_NW && povHatAngle < 36000) || povHatAngle < POV_NE) {
; 2055 : 			 OTWViewUp(0, KEY_DOWN, NULL);
; 2056 : 			 }
; 2057 : 			 else if(povHatAngle > POV_NE && povHatAngle < POV_SE) {
; 2058 : 			 OTWViewRight(0, KEY_DOWN, NULL);
; 2059 : 			 }
; 2060 : 			 else if(povHatAngle > POV_SE && povHatAngle < POV_SW) {
; 2061 : 			 OTWViewDown(0, KEY_DOWN, NULL);
; 2062 : 			 }
; 2063 : 			 else if(povHatAngle > POV_SW && povHatAngle < POV_NW) {
; 2064 : 			 OTWViewLeft(0, KEY_DOWN, NULL);
; 2065 : 			 }*/
; 2066 : 
; 2067 : 		if(povHatAngle == -1) {

	cmp	DWORD PTR _povHatAngle$[ebp], -1
	jne	SHORT $LN38@POVKludgeF

; 2068 : 			OTWDriver.ViewTiltHold();

	mov	ecx, OFFSET ?OTWDriver@@3VOTWDriverClass@@A ; OTWDriver
	call	?ViewTiltHold@OTWDriverClass@@QAEXXZ	; OTWDriverClass::ViewTiltHold

; 2069 : 			OTWDriver.ViewSpinHold();

	mov	ecx, OFFSET ?OTWDriver@@3VOTWDriverClass@@A ; OTWDriver
	call	?ViewSpinHold@OTWDriverClass@@QAEXXZ	; OTWDriverClass::ViewSpinHold
	jmp	$LN37@POVKludgeF
$LN38@POVKludgeF:

; 2070 : 		}
; 2071 : 		else if(((povHatAngle >= (POV_NW + POV_HALF_RANGE)) && (povHatAngle < 36000)) || (povHatAngle < POV_N + POV_HALF_RANGE)) {

	cmp	DWORD PTR _povHatAngle$[ebp], 33750	; 000083d6H
	jb	SHORT $LN34@POVKludgeF
	cmp	DWORD PTR _povHatAngle$[ebp], 36000	; 00008ca0H
	jb	SHORT $LN35@POVKludgeF
$LN34@POVKludgeF:
	cmp	DWORD PTR _povHatAngle$[ebp], 2250	; 000008caH
	jae	SHORT $LN36@POVKludgeF
$LN35@POVKludgeF:

; 2072 : 			OTWViewUp(0, KEY_DOWN, NULL);

	push	0
	push	8
	push	0
	call	?OTWViewUp@@YAXKHPAX@Z			; OTWViewUp
	add	esp, 12					; 0000000cH
	jmp	$LN37@POVKludgeF
$LN36@POVKludgeF:

; 2073 : 		}
; 2074 : 		else if((povHatAngle >= (POV_NE - POV_HALF_RANGE)) && (povHatAngle < POV_NE + POV_HALF_RANGE)) {

	cmp	DWORD PTR _povHatAngle$[ebp], 2250	; 000008caH
	jb	SHORT $LN32@POVKludgeF
	cmp	DWORD PTR _povHatAngle$[ebp], 6750	; 00001a5eH
	jae	SHORT $LN32@POVKludgeF

; 2075 : 			OTWViewRight(0, KEY_DOWN, NULL);

	push	0
	push	8
	push	0
	call	?OTWViewRight@@YAXKHPAX@Z		; OTWViewRight
	add	esp, 12					; 0000000cH

; 2076 : 			OTWViewUp(0, KEY_DOWN, NULL);

	push	0
	push	8
	push	0
	call	?OTWViewUp@@YAXKHPAX@Z			; OTWViewUp
	add	esp, 12					; 0000000cH
	jmp	$LN37@POVKludgeF
$LN32@POVKludgeF:

; 2077 : 		}
; 2078 : 		else if((povHatAngle >= (POV_E - POV_HALF_RANGE)) && (povHatAngle < POV_E + POV_HALF_RANGE)) {

	cmp	DWORD PTR _povHatAngle$[ebp], 6750	; 00001a5eH
	jb	SHORT $LN30@POVKludgeF
	cmp	DWORD PTR _povHatAngle$[ebp], 11250	; 00002bf2H
	jae	SHORT $LN30@POVKludgeF

; 2079 : 			OTWViewRight(0, KEY_DOWN, NULL);

	push	0
	push	8
	push	0
	call	?OTWViewRight@@YAXKHPAX@Z		; OTWViewRight
	add	esp, 12					; 0000000cH
	jmp	$LN37@POVKludgeF
$LN30@POVKludgeF:

; 2080 : 		}
; 2081 : 		else if((povHatAngle >= (POV_SE - POV_HALF_RANGE)) && (povHatAngle < POV_SE + POV_HALF_RANGE)) {

	cmp	DWORD PTR _povHatAngle$[ebp], 11250	; 00002bf2H
	jb	SHORT $LN28@POVKludgeF
	cmp	DWORD PTR _povHatAngle$[ebp], 15750	; 00003d86H
	jae	SHORT $LN28@POVKludgeF

; 2082 : 			OTWViewRight(0, KEY_DOWN, NULL);

	push	0
	push	8
	push	0
	call	?OTWViewRight@@YAXKHPAX@Z		; OTWViewRight
	add	esp, 12					; 0000000cH

; 2083 : 			OTWViewDown(0, KEY_DOWN, NULL);

	push	0
	push	8
	push	0
	call	?OTWViewDown@@YAXKHPAX@Z		; OTWViewDown
	add	esp, 12					; 0000000cH
	jmp	$LN37@POVKludgeF
$LN28@POVKludgeF:

; 2084 : 		}
; 2085 : 		else if((povHatAngle >= (POV_S - POV_HALF_RANGE)) && (povHatAngle < POV_S + POV_HALF_RANGE)) {

	cmp	DWORD PTR _povHatAngle$[ebp], 15750	; 00003d86H
	jb	SHORT $LN26@POVKludgeF
	cmp	DWORD PTR _povHatAngle$[ebp], 20250	; 00004f1aH
	jae	SHORT $LN26@POVKludgeF

; 2086 : 			OTWViewDown(0, KEY_DOWN, NULL);

	push	0
	push	8
	push	0
	call	?OTWViewDown@@YAXKHPAX@Z		; OTWViewDown
	add	esp, 12					; 0000000cH
	jmp	$LN37@POVKludgeF
$LN26@POVKludgeF:

; 2087 : 		}
; 2088 : 		else if((povHatAngle >= (POV_SW - POV_HALF_RANGE)) && (povHatAngle < POV_SW + POV_HALF_RANGE)) {

	cmp	DWORD PTR _povHatAngle$[ebp], 20250	; 00004f1aH
	jb	SHORT $LN24@POVKludgeF
	cmp	DWORD PTR _povHatAngle$[ebp], 24750	; 000060aeH
	jae	SHORT $LN24@POVKludgeF

; 2089 : 			OTWViewDown(0, KEY_DOWN, NULL);

	push	0
	push	8
	push	0
	call	?OTWViewDown@@YAXKHPAX@Z		; OTWViewDown
	add	esp, 12					; 0000000cH

; 2090 : 			OTWViewLeft(0, KEY_DOWN, NULL);

	push	0
	push	8
	push	0
	call	?OTWViewLeft@@YAXKHPAX@Z		; OTWViewLeft
	add	esp, 12					; 0000000cH
	jmp	SHORT $LN37@POVKludgeF
$LN24@POVKludgeF:

; 2091 : 		}
; 2092 : 		else if((povHatAngle >= (POV_W - POV_HALF_RANGE)) && (povHatAngle < POV_W + POV_HALF_RANGE)) {

	cmp	DWORD PTR _povHatAngle$[ebp], 24750	; 000060aeH
	jb	SHORT $LN22@POVKludgeF
	cmp	DWORD PTR _povHatAngle$[ebp], 29250	; 00007242H
	jae	SHORT $LN22@POVKludgeF

; 2093 : 			OTWViewLeft(0, KEY_DOWN, NULL);

	push	0
	push	8
	push	0
	call	?OTWViewLeft@@YAXKHPAX@Z		; OTWViewLeft
	add	esp, 12					; 0000000cH
	jmp	SHORT $LN37@POVKludgeF
$LN22@POVKludgeF:

; 2094 : 		}
; 2095 : 		else if((povHatAngle >= (POV_NW - POV_HALF_RANGE)) && (povHatAngle < POV_NW + POV_HALF_RANGE)) {

	cmp	DWORD PTR _povHatAngle$[ebp], 29250	; 00007242H
	jb	SHORT $LN37@POVKludgeF
	cmp	DWORD PTR _povHatAngle$[ebp], 33750	; 000083d6H
	jae	SHORT $LN37@POVKludgeF

; 2096 : 			OTWViewLeft(0, KEY_DOWN, NULL);

	push	0
	push	8
	push	0
	call	?OTWViewLeft@@YAXKHPAX@Z		; OTWViewLeft
	add	esp, 12					; 0000000cH

; 2097 : 			OTWViewUp(0, KEY_DOWN, NULL);

	push	0
	push	8
	push	0
	call	?OTWViewUp@@YAXKHPAX@Z			; OTWViewUp
	add	esp, 12					; 0000000cH
$LN37@POVKludgeF:

; 2098 : 		}
; 2099 : 	}

	jmp	$LN41@POVKludgeF
$LN40@POVKludgeF:

; 2100 : 	else if(OTWDriver.GetOTWDisplayMode() == OTWDriverClass::Mode2DCockpit && povHatAngle != -1) {

	mov	ecx, OFFSET ?OTWDriver@@3VOTWDriverClass@@A ; OTWDriver
	call	?GetOTWDisplayMode@OTWDriverClass@@QAE?AW4OTWDisplayMode@1@XZ ; OTWDriverClass::GetOTWDisplayMode
	cmp	eax, 2
	jne	$LN41@POVKludgeF
	cmp	DWORD PTR _povHatAngle$[ebp], -1
	je	$LN41@POVKludgeF

; 2101 : 
; 2102 : 		if(((povHatAngle >= (POV_NW + POV_HALF_RANGE)) && (povHatAngle < 36000)) || (povHatAngle < POV_N + POV_HALF_RANGE)) {

	cmp	DWORD PTR _povHatAngle$[ebp], 33750	; 000083d6H
	jb	SHORT $LN15@POVKludgeF
	cmp	DWORD PTR _povHatAngle$[ebp], 36000	; 00008ca0H
	jb	SHORT $LN16@POVKludgeF
$LN15@POVKludgeF:
	cmp	DWORD PTR _povHatAngle$[ebp], 2250	; 000008caH
	jae	SHORT $LN17@POVKludgeF
$LN16@POVKludgeF:

; 2103 : 			gSelectedCursor = OTWDriver.pCockpitManager->POVDispatch(POV_N, gxPos, gyPos);

	mov	eax, DWORD PTR ?gyPos@@3HA		; gyPos
	push	eax
	mov	ecx, DWORD PTR ?gxPos@@3HA		; gxPos
	push	ecx
	push	0
	mov	ecx, DWORD PTR ?OTWDriver@@3VOTWDriverClass@@A+33684
	call	?POVDispatch@CockpitManager@@QAEHHHH@Z	; CockpitManager::POVDispatch
	mov	DWORD PTR ?gSelectedCursor@@3HA, eax	; gSelectedCursor
	jmp	$LN41@POVKludgeF
$LN17@POVKludgeF:

; 2104 : 		}
; 2105 : 		else if((povHatAngle >= (POV_NE - POV_HALF_RANGE)) && (povHatAngle < POV_NE + POV_HALF_RANGE)) {

	cmp	DWORD PTR _povHatAngle$[ebp], 2250	; 000008caH
	jb	SHORT $LN13@POVKludgeF
	cmp	DWORD PTR _povHatAngle$[ebp], 6750	; 00001a5eH
	jae	SHORT $LN13@POVKludgeF

; 2106 : 			gSelectedCursor = OTWDriver.pCockpitManager->POVDispatch(POV_NE, gxPos, gyPos);

	mov	edx, DWORD PTR ?gyPos@@3HA		; gyPos
	push	edx
	mov	eax, DWORD PTR ?gxPos@@3HA		; gxPos
	push	eax
	push	4500					; 00001194H
	mov	ecx, DWORD PTR ?OTWDriver@@3VOTWDriverClass@@A+33684
	call	?POVDispatch@CockpitManager@@QAEHHHH@Z	; CockpitManager::POVDispatch
	mov	DWORD PTR ?gSelectedCursor@@3HA, eax	; gSelectedCursor
	jmp	$LN41@POVKludgeF
$LN13@POVKludgeF:

; 2107 : 		}
; 2108 : 		else if((povHatAngle >= (POV_E - POV_HALF_RANGE)) && (povHatAngle < POV_E + POV_HALF_RANGE)) {

	cmp	DWORD PTR _povHatAngle$[ebp], 6750	; 00001a5eH
	jb	SHORT $LN11@POVKludgeF
	cmp	DWORD PTR _povHatAngle$[ebp], 11250	; 00002bf2H
	jae	SHORT $LN11@POVKludgeF

; 2109 : 			gSelectedCursor = OTWDriver.pCockpitManager->POVDispatch(POV_E, gxPos, gyPos);

	mov	ecx, DWORD PTR ?gyPos@@3HA		; gyPos
	push	ecx
	mov	edx, DWORD PTR ?gxPos@@3HA		; gxPos
	push	edx
	push	9000					; 00002328H
	mov	ecx, DWORD PTR ?OTWDriver@@3VOTWDriverClass@@A+33684
	call	?POVDispatch@CockpitManager@@QAEHHHH@Z	; CockpitManager::POVDispatch
	mov	DWORD PTR ?gSelectedCursor@@3HA, eax	; gSelectedCursor
	jmp	$LN41@POVKludgeF
$LN11@POVKludgeF:

; 2110 : 		}
; 2111 : 		else if((povHatAngle >= (POV_SE - POV_HALF_RANGE)) && (povHatAngle < POV_SE + POV_HALF_RANGE)) {

	cmp	DWORD PTR _povHatAngle$[ebp], 11250	; 00002bf2H
	jb	SHORT $LN9@POVKludgeF
	cmp	DWORD PTR _povHatAngle$[ebp], 15750	; 00003d86H
	jae	SHORT $LN9@POVKludgeF

; 2112 : 			gSelectedCursor = OTWDriver.pCockpitManager->POVDispatch(POV_SE, gxPos, gyPos);

	mov	eax, DWORD PTR ?gyPos@@3HA		; gyPos
	push	eax
	mov	ecx, DWORD PTR ?gxPos@@3HA		; gxPos
	push	ecx
	push	13500					; 000034bcH
	mov	ecx, DWORD PTR ?OTWDriver@@3VOTWDriverClass@@A+33684
	call	?POVDispatch@CockpitManager@@QAEHHHH@Z	; CockpitManager::POVDispatch
	mov	DWORD PTR ?gSelectedCursor@@3HA, eax	; gSelectedCursor
	jmp	$LN41@POVKludgeF
$LN9@POVKludgeF:

; 2113 : 		}
; 2114 : 		else if((povHatAngle >= (POV_S - POV_HALF_RANGE)) && (povHatAngle < POV_S + POV_HALF_RANGE)) {

	cmp	DWORD PTR _povHatAngle$[ebp], 15750	; 00003d86H
	jb	SHORT $LN7@POVKludgeF
	cmp	DWORD PTR _povHatAngle$[ebp], 20250	; 00004f1aH
	jae	SHORT $LN7@POVKludgeF

; 2115 : 			gSelectedCursor = OTWDriver.pCockpitManager->POVDispatch(POV_S, gxPos, gyPos);

	mov	edx, DWORD PTR ?gyPos@@3HA		; gyPos
	push	edx
	mov	eax, DWORD PTR ?gxPos@@3HA		; gxPos
	push	eax
	push	18000					; 00004650H
	mov	ecx, DWORD PTR ?OTWDriver@@3VOTWDriverClass@@A+33684
	call	?POVDispatch@CockpitManager@@QAEHHHH@Z	; CockpitManager::POVDispatch
	mov	DWORD PTR ?gSelectedCursor@@3HA, eax	; gSelectedCursor
	jmp	$LN41@POVKludgeF
$LN7@POVKludgeF:

; 2116 : 		}
; 2117 : 		else if((povHatAngle >= (POV_SW - POV_HALF_RANGE)) && (povHatAngle < POV_SW + POV_HALF_RANGE)) {

	cmp	DWORD PTR _povHatAngle$[ebp], 20250	; 00004f1aH
	jb	SHORT $LN5@POVKludgeF
	cmp	DWORD PTR _povHatAngle$[ebp], 24750	; 000060aeH
	jae	SHORT $LN5@POVKludgeF

; 2118 : 			gSelectedCursor = OTWDriver.pCockpitManager->POVDispatch(POV_SW, gxPos, gyPos);

	mov	ecx, DWORD PTR ?gyPos@@3HA		; gyPos
	push	ecx
	mov	edx, DWORD PTR ?gxPos@@3HA		; gxPos
	push	edx
	push	22500					; 000057e4H
	mov	ecx, DWORD PTR ?OTWDriver@@3VOTWDriverClass@@A+33684
	call	?POVDispatch@CockpitManager@@QAEHHHH@Z	; CockpitManager::POVDispatch
	mov	DWORD PTR ?gSelectedCursor@@3HA, eax	; gSelectedCursor
	jmp	SHORT $LN41@POVKludgeF
$LN5@POVKludgeF:

; 2119 : 		}
; 2120 : 		else if((povHatAngle >= (POV_W - POV_HALF_RANGE)) && (povHatAngle < POV_W + POV_HALF_RANGE)) {

	cmp	DWORD PTR _povHatAngle$[ebp], 24750	; 000060aeH
	jb	SHORT $LN3@POVKludgeF
	cmp	DWORD PTR _povHatAngle$[ebp], 29250	; 00007242H
	jae	SHORT $LN3@POVKludgeF

; 2121 : 			gSelectedCursor = OTWDriver.pCockpitManager->POVDispatch(POV_W, gxPos, gyPos);

	mov	eax, DWORD PTR ?gyPos@@3HA		; gyPos
	push	eax
	mov	ecx, DWORD PTR ?gxPos@@3HA		; gxPos
	push	ecx
	push	27000					; 00006978H
	mov	ecx, DWORD PTR ?OTWDriver@@3VOTWDriverClass@@A+33684
	call	?POVDispatch@CockpitManager@@QAEHHHH@Z	; CockpitManager::POVDispatch
	mov	DWORD PTR ?gSelectedCursor@@3HA, eax	; gSelectedCursor
	jmp	SHORT $LN41@POVKludgeF
$LN3@POVKludgeF:

; 2122 : 		}
; 2123 : 		else if((povHatAngle >= (POV_NW - POV_HALF_RANGE)) && (povHatAngle < POV_NW + POV_HALF_RANGE)) {

	cmp	DWORD PTR _povHatAngle$[ebp], 29250	; 00007242H
	jb	SHORT $LN41@POVKludgeF
	cmp	DWORD PTR _povHatAngle$[ebp], 33750	; 000083d6H
	jae	SHORT $LN41@POVKludgeF

; 2124 : 			gSelectedCursor = OTWDriver.pCockpitManager->POVDispatch(POV_NW, gxPos, gyPos);

	mov	edx, DWORD PTR ?gyPos@@3HA		; gyPos
	push	edx
	mov	eax, DWORD PTR ?gxPos@@3HA		; gxPos
	push	eax
	push	31500					; 00007b0cH
	mov	ecx, DWORD PTR ?OTWDriver@@3VOTWDriverClass@@A+33684
	call	?POVDispatch@CockpitManager@@QAEHHHH@Z	; CockpitManager::POVDispatch
	mov	DWORD PTR ?gSelectedCursor@@3HA, eax	; gSelectedCursor
$LN41@POVKludgeF:

; 2125 : 		}
; 2126 : 
; 2127 : 		/*	
; 2128 : 				if(((povHatAngle >= (POV_NW + POV_HALF_RANGE)) && (povHatAngle < 65535)) || (povHatAngle < POV_N + POV_HALF_RANGE)) {
; 2129 : 				gSelectedCursor = OTWDriver.pCockpitManager->Dispatch(CP_MOUSE_BUTTON0, DisplayOptions.DispWidth / 2, 0);
; 2130 : 				}
; 2131 : 				else if((povHatAngle >= (POV_NE - POV_HALF_RANGE)) && (povHatAngle < POV_NE + POV_HALF_RANGE)) {
; 2132 : 				gSelectedCursor = OTWDriver.pCockpitManager->Dispatch(CP_MOUSE_BUTTON0, DisplayOptions.DispWidth, 0);
; 2133 : 				}
; 2134 : 				else if((povHatAngle >= (POV_E - POV_HALF_RANGE)) && (povHatAngle < POV_E + POV_HALF_RANGE)) {
; 2135 : 				gSelectedCursor = OTWDriver.pCockpitManager->Dispatch(CP_MOUSE_BUTTON0, DisplayOptions.DispWidth, DisplayOptions.DispHeight / 2);
; 2136 : 				}
; 2137 : 				else if((povHatAngle >= (POV_SE - POV_HALF_RANGE)) && (povHatAngle < POV_SE + POV_HALF_RANGE)) {
; 2138 : 				gSelectedCursor = OTWDriver.pCockpitManager->Dispatch(CP_MOUSE_BUTTON0, DisplayOptions.DispWidth, DisplayOptions.DispHeight);
; 2139 : 				}
; 2140 : 				else if((povHatAngle >= (POV_S - POV_HALF_RANGE)) && (povHatAngle < POV_S + POV_HALF_RANGE)) {
; 2141 : 				gSelectedCursor = OTWDriver.pCockpitManager->Dispatch(CP_MOUSE_BUTTON0, DisplayOptions.DispWidth / 2 + 2, DisplayOptions.DispHeight);
; 2142 : 				}
; 2143 : 				else if((povHatAngle >= (POV_SW - POV_HALF_RANGE)) && (povHatAngle < POV_SW + POV_HALF_RANGE)) {
; 2144 : 				gSelectedCursor = OTWDriver.pCockpitManager->Dispatch(CP_MOUSE_BUTTON0, 0, DisplayOptions.DispHeight);
; 2145 : 				}
; 2146 : 				else if((povHatAngle >= (POV_W - POV_HALF_RANGE)) && (povHatAngle < POV_W + POV_HALF_RANGE)) {
; 2147 : 				gSelectedCursor = OTWDriver.pCockpitManager->Dispatch(CP_MOUSE_BUTTON0, 0, DisplayOptions.DispHeight / 2);
; 2148 : 				}
; 2149 : 				else if((povHatAngle >= (POV_NW - POV_HALF_RANGE)) && (povHatAngle < POV_NW + POV_HALF_RANGE)) {
; 2150 : 				gSelectedCursor = OTWDriver.pCockpitManager->Dispatch(CP_MOUSE_BUTTON0, 0, 0);
; 2151 : 				}
; 2152 : 		 */
; 2153 : 	}
; 2154 : 	//}
; 2155 : 
; 2156 : 	//previousAngle = povHatAngle;
; 2157 : }

	mov	esp, ebp
	pop	ebp
	ret	4
?POVKludgeFunction@SimulationDriver@@QAEXK@Z ENDP	; SimulationDriver::POVKludgeFunction
_TEXT	ENDS
; Function compile flags: /Odtp
; File c:\users\zhitao li\documents\visual studio 2012\projects\freefalcon\sim\simdrive\simdrive.cpp
_TEXT	SEGMENT
$T2 = -592						; size = 8
$T3 = -584						; size = 8
$T4 = -576						; size = 8
$T5 = -568						; size = 8
$T6 = -560						; size = 8
$T7 = -552						; size = 8
$T8 = -544						; size = 8
$T9 = -536						; size = 8
$T10 = -528						; size = 8
$T11 = -520						; size = 8
$T12 = -512						; size = 8
$T13 = -504						; size = 8
$T14 = -496						; size = 8
$T15 = -488						; size = 8
$T16 = -480						; size = 8
$T17 = -472						; size = 8
tv1444 = -464						; size = 8
tv1481 = -456						; size = 8
tv1108 = -448						; size = 8
tv1204 = -440						; size = 8
tv1394 = -432						; size = 8
tv1230 = -424						; size = 8
tv1341 = -416						; size = 8
tv1530 = -408						; size = 8
tv1299 = -400						; size = 8
tv1261 = -392						; size = 8
tv1420 = -384						; size = 8
_featureWalker$ = -376					; size = 12
_todRec$ = -364						; size = 5
_objectWalker$ = -356					; size = 12
tv1337 = -344						; size = 4
tv1104 = -340						; size = 4
tv1295 = -336						; size = 4
tv1526 = -332						; size = 4
tv1257 = -328						; size = 4
tv1200 = -324						; size = 4
tv1226 = -320						; size = 4
tv1477 = -316						; size = 4
tv1440 = -312						; size = 4
tv1416 = -308						; size = 4
tv1390 = -304						; size = 4
_radar$18 = -300					; size = 4
_radar$19 = -296					; size = 4
_leadObject$ = -292					; size = 4
_this$ = -288						; size = 4
_numSwitches$ = -284					; size = 4
_theObject$ = -280					; size = 4
_i$ = -276						; size = 4
_theMover$ = -272					; size = 4
_misPos$ = -268						; size = 37
_featPos$ = -228					; size = 49
_featStat$ = -176					; size = 17
_airPos$ = -156						; size = 41
_genPos$ = -112						; size = 37
_DOFRec$ = -72						; size = 25
_switchRec$ = -44					; size = 25
__$ArrayPad$ = -16					; size = 4
__$EHRec$ = -12						; size = 12
?InitACMIRecord@SimulationDriver@@QAEXXZ PROC		; SimulationDriver::InitACMIRecord
; _this$ = ecx

; 1738 : {

	push	ebp
	mov	ebp, esp
	push	-1
	push	__ehhandler$?InitACMIRecord@SimulationDriver@@QAEXXZ
	mov	eax, DWORD PTR fs:0
	push	eax
	sub	esp, 580				; 00000244H
	mov	eax, DWORD PTR ___security_cookie
	xor	eax, ebp
	mov	DWORD PTR __$ArrayPad$[ebp], eax
	push	esi
	push	eax
	lea	eax, DWORD PTR __$EHRec$[ebp]
	mov	DWORD PTR fs:0, eax
	mov	DWORD PTR _this$[ebp], ecx

; 1739 : 	int i;
; 1740 : 	int numSwitches;
; 1741 : 	SimFeatureClass* theObject;
; 1742 : 	SimBaseClass *leadObject;
; 1743 : 	SimMoverClass *theMover;
; 1744 : 	VuListIterator objectWalker (objectList);

	mov	eax, DWORD PTR _this$[ebp]
	mov	ecx, DWORD PTR [eax]
	push	ecx
	lea	ecx, DWORD PTR _objectWalker$[ebp]
	call	??0VuListIterator@@QAE@PAVVuLinkedList@@@Z ; VuListIterator::VuListIterator
	mov	DWORD PTR __$EHRec$[ebp+8], 0

; 1745 : 	VuListIterator featureWalker (featureList);

	mov	edx, DWORD PTR _this$[ebp]
	mov	eax, DWORD PTR [edx+4]
	push	eax
	lea	ecx, DWORD PTR _featureWalker$[ebp]
	call	??0VuListIterator@@QAE@PAVVuLinkedList@@@Z ; VuListIterator::VuListIterator
	mov	BYTE PTR __$EHRec$[ebp+8], 1

; 1746 : 	ACMIGenPositionRecord genPos;
; 1747 : 	ACMIMissilePositionRecord misPos;
; 1748 : 	ACMIAircraftPositionRecord airPos;
; 1749 : 	ACMISwitchRecord switchRec;
; 1750 : 	ACMIDOFRecord DOFRec;
; 1751 : 	ACMITodOffsetRecord todRec;
; 1752 : 	ACMIFeaturePositionRecord featPos;
; 1753 : 	ACMIFeatureStatusRecord featStat;
; 1754 : 
; 1755 : 	// record the tod offset
; 1756 : 	todRec.hdr.time = OTWDriver.todOffset;

	movss	xmm0, DWORD PTR ?OTWDriver@@3VOTWDriverClass@@A+32052
	movss	DWORD PTR _todRec$[ebp+1], xmm0

; 1757 : 	gACMIRec.TodOffsetRecord( &todRec );

	lea	ecx, DWORD PTR _todRec$[ebp]
	push	ecx
	mov	ecx, OFFSET ?gACMIRec@@3VACMIRecorder@@A ; gACMIRec
	call	?TodOffsetRecord@ACMIRecorder@@QAEXPAUACMITodOffsetRecord@@@Z ; ACMIRecorder::TodOffsetRecord

; 1758 : 
; 1759 : 	// make sure the player's f16 is first in list
; 1760 : 	if ( playerEntity )

	mov	edx, DWORD PTR _this$[ebp]
	cmp	DWORD PTR [edx+56], 0
	je	$LN26@InitACMIRe

; 1761 : 	{
; 1762 : 		theMover = playerEntity;

	mov	eax, DWORD PTR _this$[ebp]
	mov	ecx, DWORD PTR [eax+56]
	mov	DWORD PTR _theMover$[ebp], ecx

; 1763 : 		airPos.hdr.time = SimLibElapsedTime * MSEC_TO_SEC + OTWDriver.todOffset;

	mov	edx, DWORD PTR ?SimLibElapsedTime@@3KA	; SimLibElapsedTime
	mov	DWORD PTR tv1104[ebp], edx
	cvtsi2sd xmm0, DWORD PTR tv1104[ebp]
	mov	eax, DWORD PTR tv1104[ebp]
	shr	eax, 31					; 0000001fH
	addsd	xmm0, QWORD PTR __xmm@41f00000000000000000000000000000[eax*8]
	movsd	QWORD PTR tv1108[ebp], xmm0
	cvtsd2ss xmm0, QWORD PTR tv1108[ebp]
	mulss	xmm0, DWORD PTR __real@3a83126f
	addss	xmm0, DWORD PTR ?OTWDriver@@3VOTWDriverClass@@A+32052
	movss	DWORD PTR _airPos$[ebp+1], xmm0

; 1764 : 		airPos.data.type = theMover->Type();

	mov	ecx, DWORD PTR _theMover$[ebp]
	call	?Type@VuEntity@@QBEGXZ			; VuEntity::Type
	movzx	ecx, ax
	mov	DWORD PTR _airPos$[ebp+5], ecx

; 1765 : 
; 1766 : 		// sfr: remove JB check
; 1767 : 		if (!F4IsBadReadPtr((DrawableBSP*)(theMover->drawPointer), sizeof(DrawableBSP)) && theMover->GetTeam() >= 0 && !F4IsBadReadPtr(TeamInfo[theMover->GetTeam()], sizeof(TeamClass))) // JB 010326 CTD

	push	172					; 000000acH
	mov	edx, DWORD PTR _theMover$[ebp]
	mov	eax, DWORD PTR [edx+332]
	push	eax
	call	?F4IsBadReadPtr@@YA_NPBXI@Z		; F4IsBadReadPtr
	add	esp, 8
	movzx	ecx, al
	test	ecx, ecx
	jne	$LN34@InitACMIRe
	mov	edx, DWORD PTR _theMover$[ebp]
	mov	eax, DWORD PTR [edx]
	mov	ecx, DWORD PTR _theMover$[ebp]
	mov	edx, DWORD PTR [eax+116]
	call	edx
	movzx	eax, al
	test	eax, eax
	jl	$LN34@InitACMIRe
	push	904					; 00000388H
	mov	ecx, DWORD PTR _theMover$[ebp]
	mov	edx, DWORD PTR [ecx]
	mov	ecx, DWORD PTR _theMover$[ebp]
	mov	eax, DWORD PTR [edx+116]
	call	eax
	movzx	ecx, al
	mov	edx, DWORD PTR ?TeamInfo@@3PAPAVTeamClass@@A[ecx*4]
	push	edx
	call	?F4IsBadReadPtr@@YA_NPBXI@Z		; F4IsBadReadPtr
	add	esp, 8
	movzx	eax, al
	test	eax, eax
	jne	SHORT $LN34@InitACMIRe

; 1768 : 			airPos.data.uniqueID = ACMIIDTable->Add(theMover->Id(),(char*) ((DrawableBSP*)(theMover->drawPointer))->Label(),TeamInfo[theMover->GetTeam()]->GetColor());//.num_;

	mov	ecx, DWORD PTR _theMover$[ebp]
	mov	edx, DWORD PTR [ecx]
	mov	ecx, DWORD PTR _theMover$[ebp]
	mov	eax, DWORD PTR [edx+116]
	call	eax
	movzx	ecx, al
	mov	ecx, DWORD PTR ?TeamInfo@@3PAPAVTeamClass@@A[ecx*4]
	call	?GetColor@TeamClass@@QAEHXZ		; TeamClass::GetColor
	push	eax
	mov	edx, DWORD PTR _theMover$[ebp]
	mov	ecx, DWORD PTR [edx+332]
	call	?Label@DrawableBSP@@QAEPADXZ		; DrawableBSP::Label
	push	eax
	lea	eax, DWORD PTR $T5[ebp]
	push	eax
	mov	ecx, DWORD PTR _theMover$[ebp]
	call	?Id@VuEntity@@QBE?AVVU_ID@@XZ		; VuEntity::Id
	mov	ecx, DWORD PTR [eax+4]
	push	ecx
	mov	edx, DWORD PTR [eax]
	push	edx
	mov	ecx, DWORD PTR ?ACMIIDTable@@3PAVACMI_Hash@@A ; ACMIIDTable
	call	?Add@ACMI_Hash@@QAEJVVU_ID@@PADJ@Z	; ACMI_Hash::Add
	mov	DWORD PTR _airPos$[ebp+9], eax
$LN34@InitACMIRe:

; 1769 : 
; 1770 : 		airPos.data.x = theMover->XPos();

	mov	ecx, DWORD PTR _theMover$[ebp]
	call	?XPos@VuEntity@@QBEMXZ			; VuEntity::XPos
	fstp	DWORD PTR _airPos$[ebp+13]

; 1771 : 		airPos.data.y = theMover->YPos();

	mov	ecx, DWORD PTR _theMover$[ebp]
	call	?YPos@VuEntity@@QBEMXZ			; VuEntity::YPos
	fstp	DWORD PTR _airPos$[ebp+17]

; 1772 : 		airPos.data.z = theMover->ZPos();

	mov	ecx, DWORD PTR _theMover$[ebp]
	call	?ZPos@VuEntity@@QBEMXZ			; VuEntity::ZPos
	fstp	DWORD PTR _airPos$[ebp+21]

; 1773 : 		airPos.data.roll = theMover->Roll();

	mov	ecx, DWORD PTR _theMover$[ebp]
	call	?Roll@VuEntity@@QBEMXZ			; VuEntity::Roll
	fstp	DWORD PTR _airPos$[ebp+33]

; 1774 : 		airPos.data.pitch = theMover->Pitch();

	mov	ecx, DWORD PTR _theMover$[ebp]
	call	?Pitch@VuEntity@@QBEMXZ			; VuEntity::Pitch
	fstp	DWORD PTR _airPos$[ebp+29]

; 1775 : 		airPos.data.yaw = theMover->Yaw();

	mov	ecx, DWORD PTR _theMover$[ebp]
	call	?Yaw@VuEntity@@QBEMXZ			; VuEntity::Yaw
	fstp	DWORD PTR _airPos$[ebp+25]

; 1776 : 		RadarClass *radar = (RadarClass*)FindSensor( theMover, SensorClass::Radar );

	push	1
	mov	eax, DWORD PTR _theMover$[ebp]
	push	eax
	call	?FindSensor@@YAPAVSensorClass@@PAVSimMoverClass@@H@Z ; FindSensor
	add	esp, 8
	mov	DWORD PTR _radar$19[ebp], eax

; 1777 : #if NO_REMOTE_BUGGED_TARGET
; 1778 : 		if (  radar && radar->CurrentTarget() ){

	cmp	DWORD PTR _radar$19[ebp], 0
	je	SHORT $LN33@InitACMIRe
	mov	ecx, DWORD PTR _radar$19[ebp]
	call	?CurrentTarget@SensorClass@@QAEPAVSimObjectType@@XZ ; SensorClass::CurrentTarget
	test	eax, eax
	je	SHORT $LN33@InitACMIRe

; 1779 : 			airPos.RadarTarget = ACMIIDTable->Add(radar->CurrentTarget()->BaseData()->Id(),NULL,0);//.num_;

	push	0
	push	0
	lea	ecx, DWORD PTR $T9[ebp]
	push	ecx
	mov	ecx, DWORD PTR _radar$19[ebp]
	call	?CurrentTarget@SensorClass@@QAEPAVSimObjectType@@XZ ; SensorClass::CurrentTarget
	mov	ecx, eax
	call	?BaseData@SimObjectType@@QAEPAVFalconEntity@@XZ ; SimObjectType::BaseData
	mov	ecx, eax
	call	?Id@VuEntity@@QBE?AVVU_ID@@XZ		; VuEntity::Id
	mov	edx, DWORD PTR [eax+4]
	push	edx
	mov	eax, DWORD PTR [eax]
	push	eax
	mov	ecx, DWORD PTR ?ACMIIDTable@@3PAVACMI_Hash@@A ; ACMIIDTable
	call	?Add@ACMI_Hash@@QAEJVVU_ID@@PADJ@Z	; ACMI_Hash::Add
	mov	DWORD PTR _airPos$[ebp+37], eax

; 1780 : 		}
; 1781 : #else
; 1782 : 		if (  radar && radar->RemoteBuggedTarget){
; 1783 : 			//me123 add record for online targets
; 1784 : 			airPos.RadarTarget = ACMIIDTable->Add(radar->RemoteBuggedTarget->Id(),NULL,0);//.num_;
; 1785 : 		}
; 1786 : 		else if (  radar && radar->CurrentTarget() ){
; 1787 : 			airPos.RadarTarget = ACMIIDTable->Add(radar->CurrentTarget()->BaseData()->Id(),NULL,0);//.num_;
; 1788 : 		}
; 1789 : #endif
; 1790 : 		else {

	jmp	SHORT $LN32@InitACMIRe
$LN33@InitACMIRe:

; 1791 : 			airPos.RadarTarget = -1;

	mov	DWORD PTR _airPos$[ebp+37], -1
$LN32@InitACMIRe:

; 1792 : 		}
; 1793 : 		gACMIRec.AircraftPositionRecord( &airPos );

	lea	ecx, DWORD PTR _airPos$[ebp]
	push	ecx
	mov	ecx, OFFSET ?gACMIRec@@3VACMIRecorder@@A ; gACMIRec
	call	?AircraftPositionRecord@ACMIRecorder@@QAEXPAUACMIAircraftPositionRecord@@@Z ; ACMIRecorder::AircraftPositionRecord

; 1794 : 
; 1795 : 		// now we need to save the switches
; 1796 : 		numSwitches = theMover->GetNumSwitches();

	mov	ecx, DWORD PTR _theMover$[ebp]
	call	?GetNumSwitches@SimMoverClass@@QAEHXZ	; SimMoverClass::GetNumSwitches
	mov	DWORD PTR _numSwitches$[ebp], eax

; 1797 : 		for ( i = 0; i < numSwitches; i++ )

	mov	DWORD PTR _i$[ebp], 0
	jmp	SHORT $LN31@InitACMIRe
$LN30@InitACMIRe:
	mov	edx, DWORD PTR _i$[ebp]
	add	edx, 1
	mov	DWORD PTR _i$[ebp], edx
$LN31@InitACMIRe:
	mov	eax, DWORD PTR _i$[ebp]
	cmp	eax, DWORD PTR _numSwitches$[ebp]
	jge	$LN29@InitACMIRe

; 1798 : 		{
; 1799 : 			switchRec.hdr.time = SimLibElapsedTime * MSEC_TO_SEC + OTWDriver.todOffset;

	mov	ecx, DWORD PTR ?SimLibElapsedTime@@3KA	; SimLibElapsedTime
	mov	DWORD PTR tv1200[ebp], ecx
	cvtsi2sd xmm0, DWORD PTR tv1200[ebp]
	mov	edx, DWORD PTR tv1200[ebp]
	shr	edx, 31					; 0000001fH
	addsd	xmm0, QWORD PTR __xmm@41f00000000000000000000000000000[edx*8]
	movsd	QWORD PTR tv1204[ebp], xmm0
	cvtsd2ss xmm0, QWORD PTR tv1204[ebp]
	mulss	xmm0, DWORD PTR __real@3a83126f
	addss	xmm0, DWORD PTR ?OTWDriver@@3VOTWDriverClass@@A+32052
	movss	DWORD PTR _switchRec$[ebp+1], xmm0

; 1800 : 			switchRec.data.type = theMover->Type();

	mov	ecx, DWORD PTR _theMover$[ebp]
	call	?Type@VuEntity@@QBEGXZ			; VuEntity::Type
	movzx	eax, ax
	mov	DWORD PTR _switchRec$[ebp+5], eax

; 1801 : 			switchRec.data.uniqueID = ACMIIDTable->Add(theMover->Id(),NULL,0);//.num_;

	push	0
	push	0
	lea	ecx, DWORD PTR $T16[ebp]
	push	ecx
	mov	ecx, DWORD PTR _theMover$[ebp]
	call	?Id@VuEntity@@QBE?AVVU_ID@@XZ		; VuEntity::Id
	mov	edx, DWORD PTR [eax+4]
	push	edx
	mov	eax, DWORD PTR [eax]
	push	eax
	mov	ecx, DWORD PTR ?ACMIIDTable@@3PAVACMI_Hash@@A ; ACMIIDTable
	call	?Add@ACMI_Hash@@QAEJVVU_ID@@PADJ@Z	; ACMI_Hash::Add
	mov	DWORD PTR _switchRec$[ebp+9], eax

; 1802 : 			switchRec.data.switchNum = i;

	mov	ecx, DWORD PTR _i$[ebp]
	mov	DWORD PTR _switchRec$[ebp+13], ecx

; 1803 : 			switchRec.data.switchVal = 
; 1804 : 				switchRec.data.prevSwitchVal = theMover->GetSwitch( i );

	mov	edx, DWORD PTR _i$[ebp]
	push	edx
	mov	ecx, DWORD PTR _theMover$[ebp]
	call	?GetSwitch@SimMoverClass@@QAEHH@Z	; SimMoverClass::GetSwitch
	mov	DWORD PTR _switchRec$[ebp+21], eax
	mov	eax, DWORD PTR _switchRec$[ebp+21]
	mov	DWORD PTR _switchRec$[ebp+17], eax

; 1805 : 			gACMIRec.SwitchRecord( &switchRec );

	lea	ecx, DWORD PTR _switchRec$[ebp]
	push	ecx
	mov	ecx, OFFSET ?gACMIRec@@3VACMIRecorder@@A ; gACMIRec
	call	?SwitchRecord@ACMIRecorder@@QAEXPAUACMISwitchRecord@@@Z ; ACMIRecorder::SwitchRecord

; 1806 : 		}

	jmp	$LN30@InitACMIRe
$LN29@InitACMIRe:

; 1807 : 
; 1808 : 		// now we need to save the dofs
; 1809 : 		numSwitches = theMover->GetNumDOFs();

	mov	ecx, DWORD PTR _theMover$[ebp]
	call	?GetNumDOFs@SimMoverClass@@QAEHXZ	; SimMoverClass::GetNumDOFs
	mov	DWORD PTR _numSwitches$[ebp], eax

; 1810 : 		for ( i = 0; i < numSwitches; i++ )

	mov	DWORD PTR _i$[ebp], 0
	jmp	SHORT $LN28@InitACMIRe
$LN27@InitACMIRe:
	mov	edx, DWORD PTR _i$[ebp]
	add	edx, 1
	mov	DWORD PTR _i$[ebp], edx
$LN28@InitACMIRe:
	mov	eax, DWORD PTR _i$[ebp]
	cmp	eax, DWORD PTR _numSwitches$[ebp]
	jge	$LN26@InitACMIRe

; 1811 : 		{
; 1812 : 			DOFRec.hdr.time = SimLibElapsedTime * MSEC_TO_SEC + OTWDriver.todOffset;

	mov	ecx, DWORD PTR ?SimLibElapsedTime@@3KA	; SimLibElapsedTime
	mov	DWORD PTR tv1226[ebp], ecx
	cvtsi2sd xmm0, DWORD PTR tv1226[ebp]
	mov	edx, DWORD PTR tv1226[ebp]
	shr	edx, 31					; 0000001fH
	addsd	xmm0, QWORD PTR __xmm@41f00000000000000000000000000000[edx*8]
	movsd	QWORD PTR tv1230[ebp], xmm0
	cvtsd2ss xmm0, QWORD PTR tv1230[ebp]
	mulss	xmm0, DWORD PTR __real@3a83126f
	addss	xmm0, DWORD PTR ?OTWDriver@@3VOTWDriverClass@@A+32052
	movss	DWORD PTR _DOFRec$[ebp+1], xmm0

; 1813 : 			DOFRec.data.type = theMover->Type();

	mov	ecx, DWORD PTR _theMover$[ebp]
	call	?Type@VuEntity@@QBEGXZ			; VuEntity::Type
	movzx	eax, ax
	mov	DWORD PTR _DOFRec$[ebp+5], eax

; 1814 : 			DOFRec.data.uniqueID = ACMIIDTable->Add(theMover->Id(),NULL,0);//.num_;

	push	0
	push	0
	lea	ecx, DWORD PTR $T14[ebp]
	push	ecx
	mov	ecx, DWORD PTR _theMover$[ebp]
	call	?Id@VuEntity@@QBE?AVVU_ID@@XZ		; VuEntity::Id
	mov	edx, DWORD PTR [eax+4]
	push	edx
	mov	eax, DWORD PTR [eax]
	push	eax
	mov	ecx, DWORD PTR ?ACMIIDTable@@3PAVACMI_Hash@@A ; ACMIIDTable
	call	?Add@ACMI_Hash@@QAEJVVU_ID@@PADJ@Z	; ACMI_Hash::Add
	mov	DWORD PTR _DOFRec$[ebp+9], eax

; 1815 : 			DOFRec.data.DOFNum = i;

	mov	ecx, DWORD PTR _i$[ebp]
	mov	DWORD PTR _DOFRec$[ebp+13], ecx

; 1816 : 			DOFRec.data.DOFVal =
; 1817 : 				DOFRec.data.prevDOFVal = theMover->GetDOFValue( i );

	mov	edx, DWORD PTR _i$[ebp]
	push	edx
	mov	ecx, DWORD PTR _theMover$[ebp]
	call	?GetDOFValue@SimMoverClass@@QAEMH@Z	; SimMoverClass::GetDOFValue
	fstp	DWORD PTR _DOFRec$[ebp+21]
	movss	xmm0, DWORD PTR _DOFRec$[ebp+21]
	movss	DWORD PTR _DOFRec$[ebp+17], xmm0

; 1818 : 			gACMIRec.DOFRecord( &DOFRec );

	lea	eax, DWORD PTR _DOFRec$[ebp]
	push	eax
	mov	ecx, OFFSET ?gACMIRec@@3VACMIRecorder@@A ; gACMIRec
	call	?DOFRecord@ACMIRecorder@@QAEXPAUACMIDOFRecord@@@Z ; ACMIRecorder::DOFRecord

; 1819 : 		}

	jmp	$LN27@InitACMIRe
$LN26@InitACMIRe:

; 1820 : 	}
; 1821 : 
; 1822 : 	// Do Each Entity (movers)
; 1823 : 	theMover = (SimMoverClass*)objectWalker.GetFirst();

	lea	ecx, DWORD PTR _objectWalker$[ebp]
	call	?GetFirst@VuListIterator@@QAEPAVVuEntity@@XZ ; VuListIterator::GetFirst
	mov	DWORD PTR _theMover$[ebp], eax
$LN40@InitACMIRe:

; 1824 : 	while (theMover)

	cmp	DWORD PTR _theMover$[ebp], 0
	je	$LN24@InitACMIRe

; 1825 : 	{
; 1826 : 		// we've already done the player's f16
; 1827 : 		if ( theMover == playerEntity )

	mov	ecx, DWORD PTR _this$[ebp]
	mov	edx, DWORD PTR _theMover$[ebp]
	cmp	edx, DWORD PTR [ecx+56]
	jne	SHORT $LN23@InitACMIRe

; 1828 : 		{
; 1829 : 			theMover = (SimMoverClass*)objectWalker.GetNext();

	lea	ecx, DWORD PTR _objectWalker$[ebp]
	call	?GetNext@VuListIterator@@QAEPAVVuEntity@@XZ ; VuListIterator::GetNext
	mov	DWORD PTR _theMover$[ebp], eax

; 1830 : 			continue;

	jmp	SHORT $LN40@InitACMIRe
$LN23@InitACMIRe:

; 1831 : 		}
; 1832 : 
; 1833 : 		//
; 1834 : 		// type of ACMI rec we write depends on type of object....
; 1835 : 		//
; 1836 : 
; 1837 : 
; 1838 : 		// missile
; 1839 : 		if ( theMover->IsMissile() )

	mov	eax, DWORD PTR _theMover$[ebp]
	mov	edx, DWORD PTR [eax]
	mov	ecx, DWORD PTR _theMover$[ebp]
	mov	eax, DWORD PTR [edx+156]
	call	eax
	test	eax, eax
	je	$LN22@InitACMIRe

; 1840 : 		{
; 1841 : 			misPos.hdr.time = SimLibElapsedTime * MSEC_TO_SEC + OTWDriver.todOffset;

	mov	ecx, DWORD PTR ?SimLibElapsedTime@@3KA	; SimLibElapsedTime
	mov	DWORD PTR tv1257[ebp], ecx
	cvtsi2sd xmm0, DWORD PTR tv1257[ebp]
	mov	edx, DWORD PTR tv1257[ebp]
	shr	edx, 31					; 0000001fH
	addsd	xmm0, QWORD PTR __xmm@41f00000000000000000000000000000[edx*8]
	movsd	QWORD PTR tv1261[ebp], xmm0
	cvtsd2ss xmm0, QWORD PTR tv1261[ebp]
	mulss	xmm0, DWORD PTR __real@3a83126f
	addss	xmm0, DWORD PTR ?OTWDriver@@3VOTWDriverClass@@A+32052
	movss	DWORD PTR _misPos$[ebp+1], xmm0

; 1842 : 			misPos.data.type = theMover->Type();

	mov	ecx, DWORD PTR _theMover$[ebp]
	call	?Type@VuEntity@@QBEGXZ			; VuEntity::Type
	movzx	eax, ax
	mov	DWORD PTR _misPos$[ebp+5], eax

; 1843 : 			misPos.data.uniqueID = ACMIIDTable->Add(theMover->Id(),NULL,TeamInfo[theMover->GetTeam()]->GetColor());//.num_;

	mov	ecx, DWORD PTR _theMover$[ebp]
	mov	edx, DWORD PTR [ecx]
	mov	ecx, DWORD PTR _theMover$[ebp]
	mov	eax, DWORD PTR [edx+116]
	call	eax
	movzx	ecx, al
	mov	ecx, DWORD PTR ?TeamInfo@@3PAPAVTeamClass@@A[ecx*4]
	call	?GetColor@TeamClass@@QAEHXZ		; TeamClass::GetColor
	push	eax
	push	0
	lea	edx, DWORD PTR $T12[ebp]
	push	edx
	mov	ecx, DWORD PTR _theMover$[ebp]
	call	?Id@VuEntity@@QBE?AVVU_ID@@XZ		; VuEntity::Id
	mov	ecx, DWORD PTR [eax+4]
	push	ecx
	mov	edx, DWORD PTR [eax]
	push	edx
	mov	ecx, DWORD PTR ?ACMIIDTable@@3PAVACMI_Hash@@A ; ACMIIDTable
	call	?Add@ACMI_Hash@@QAEJVVU_ID@@PADJ@Z	; ACMI_Hash::Add
	mov	DWORD PTR _misPos$[ebp+9], eax

; 1844 : 			misPos.data.x = theMover->XPos();

	mov	ecx, DWORD PTR _theMover$[ebp]
	call	?XPos@VuEntity@@QBEMXZ			; VuEntity::XPos
	fstp	DWORD PTR _misPos$[ebp+13]

; 1845 : 			misPos.data.y = theMover->YPos();

	mov	ecx, DWORD PTR _theMover$[ebp]
	call	?YPos@VuEntity@@QBEMXZ			; VuEntity::YPos
	fstp	DWORD PTR _misPos$[ebp+17]

; 1846 : 			misPos.data.z = theMover->ZPos();

	mov	ecx, DWORD PTR _theMover$[ebp]
	call	?ZPos@VuEntity@@QBEMXZ			; VuEntity::ZPos
	fstp	DWORD PTR _misPos$[ebp+21]

; 1847 : 			misPos.data.roll = theMover->Roll();

	mov	ecx, DWORD PTR _theMover$[ebp]
	call	?Roll@VuEntity@@QBEMXZ			; VuEntity::Roll
	fstp	DWORD PTR _misPos$[ebp+33]

; 1848 : 			misPos.data.pitch = theMover->Pitch();

	mov	ecx, DWORD PTR _theMover$[ebp]
	call	?Pitch@VuEntity@@QBEMXZ			; VuEntity::Pitch
	fstp	DWORD PTR _misPos$[ebp+29]

; 1849 : 			misPos.data.yaw = theMover->Yaw();

	mov	ecx, DWORD PTR _theMover$[ebp]
	call	?Yaw@VuEntity@@QBEMXZ			; VuEntity::Yaw
	fstp	DWORD PTR _misPos$[ebp+25]

; 1850 : 			// remove			strcpy(misPos.data.label,"");
; 1851 : 			// remove			misPos.data.teamColor = TeamInfo[theMover->GetTeam()]->GetColor();
; 1852 : 			gACMIRec.MissilePositionRecord( &misPos );

	lea	eax, DWORD PTR _misPos$[ebp]
	push	eax
	mov	ecx, OFFSET ?gACMIRec@@3VACMIRecorder@@A ; gACMIRec
	call	?MissilePositionRecord@ACMIRecorder@@QAEXPAUACMIMissilePositionRecord@@@Z ; ACMIRecorder::MissilePositionRecord
	jmp	$LN5@InitACMIRe
$LN22@InitACMIRe:

; 1853 : 		}
; 1854 : 		// bombs
; 1855 : 		else if ( theMover->IsBomb() )

	mov	ecx, DWORD PTR _theMover$[ebp]
	mov	edx, DWORD PTR [ecx]
	mov	ecx, DWORD PTR _theMover$[ebp]
	mov	eax, DWORD PTR [edx+164]
	call	eax
	test	eax, eax
	je	$LN20@InitACMIRe

; 1856 : 		{
; 1857 : 			genPos.hdr.time = SimLibElapsedTime * MSEC_TO_SEC + OTWDriver.todOffset;

	mov	ecx, DWORD PTR ?SimLibElapsedTime@@3KA	; SimLibElapsedTime
	mov	DWORD PTR tv1295[ebp], ecx
	cvtsi2sd xmm0, DWORD PTR tv1295[ebp]
	mov	edx, DWORD PTR tv1295[ebp]
	shr	edx, 31					; 0000001fH
	addsd	xmm0, QWORD PTR __xmm@41f00000000000000000000000000000[edx*8]
	movsd	QWORD PTR tv1299[ebp], xmm0
	cvtsd2ss xmm0, QWORD PTR tv1299[ebp]
	mulss	xmm0, DWORD PTR __real@3a83126f
	addss	xmm0, DWORD PTR ?OTWDriver@@3VOTWDriverClass@@A+32052
	movss	DWORD PTR _genPos$[ebp+1], xmm0

; 1858 : 			genPos.data.type = theMover->Type();

	mov	ecx, DWORD PTR _theMover$[ebp]
	call	?Type@VuEntity@@QBEGXZ			; VuEntity::Type
	movzx	eax, ax
	mov	DWORD PTR _genPos$[ebp+5], eax

; 1859 : 			genPos.data.uniqueID = ACMIIDTable->Add(theMover->Id(),NULL,TeamInfo[theMover->GetTeam()]->GetColor());//.num_;

	mov	ecx, DWORD PTR _theMover$[ebp]
	mov	edx, DWORD PTR [ecx]
	mov	ecx, DWORD PTR _theMover$[ebp]
	mov	eax, DWORD PTR [edx+116]
	call	eax
	movzx	ecx, al
	mov	ecx, DWORD PTR ?TeamInfo@@3PAPAVTeamClass@@A[ecx*4]
	call	?GetColor@TeamClass@@QAEHXZ		; TeamClass::GetColor
	push	eax
	push	0
	lea	edx, DWORD PTR $T10[ebp]
	push	edx
	mov	ecx, DWORD PTR _theMover$[ebp]
	call	?Id@VuEntity@@QBE?AVVU_ID@@XZ		; VuEntity::Id
	mov	ecx, DWORD PTR [eax+4]
	push	ecx
	mov	edx, DWORD PTR [eax]
	push	edx
	mov	ecx, DWORD PTR ?ACMIIDTable@@3PAVACMI_Hash@@A ; ACMIIDTable
	call	?Add@ACMI_Hash@@QAEJVVU_ID@@PADJ@Z	; ACMI_Hash::Add
	mov	DWORD PTR _genPos$[ebp+9], eax

; 1860 : 			genPos.data.x = theMover->XPos();

	mov	ecx, DWORD PTR _theMover$[ebp]
	call	?XPos@VuEntity@@QBEMXZ			; VuEntity::XPos
	fstp	DWORD PTR _genPos$[ebp+13]

; 1861 : 			genPos.data.y = theMover->YPos();

	mov	ecx, DWORD PTR _theMover$[ebp]
	call	?YPos@VuEntity@@QBEMXZ			; VuEntity::YPos
	fstp	DWORD PTR _genPos$[ebp+17]

; 1862 : 			genPos.data.z = theMover->ZPos();

	mov	ecx, DWORD PTR _theMover$[ebp]
	call	?ZPos@VuEntity@@QBEMXZ			; VuEntity::ZPos
	fstp	DWORD PTR _genPos$[ebp+21]

; 1863 : 			genPos.data.roll = theMover->Roll();

	mov	ecx, DWORD PTR _theMover$[ebp]
	call	?Roll@VuEntity@@QBEMXZ			; VuEntity::Roll
	fstp	DWORD PTR _genPos$[ebp+33]

; 1864 : 			genPos.data.pitch = theMover->Pitch();

	mov	ecx, DWORD PTR _theMover$[ebp]
	call	?Pitch@VuEntity@@QBEMXZ			; VuEntity::Pitch
	fstp	DWORD PTR _genPos$[ebp+29]

; 1865 : 			genPos.data.yaw = theMover->Yaw();

	mov	ecx, DWORD PTR _theMover$[ebp]
	call	?Yaw@VuEntity@@QBEMXZ			; VuEntity::Yaw
	fstp	DWORD PTR _genPos$[ebp+25]

; 1866 : 			// remove			strcpy(genPos.data.label,"");// = NULL;
; 1867 : 			//VWF
; 1868 : 			// remove			genPos.data.teamColor = TeamInfo[theMover->GetTeam()]->GetColor();
; 1869 : 
; 1870 : 			if (((BombClass *)theMover)->IsSetBombFlag(BombClass::IsFlare))

	push	16					; 00000010H
	mov	ecx, DWORD PTR _theMover$[ebp]
	call	?IsSetBombFlag@BombClass@@QAEHH@Z	; BombClass::IsSetBombFlag
	test	eax, eax
	je	SHORT $LN19@InitACMIRe

; 1871 : 				gACMIRec.FlarePositionRecord( (ACMIFlarePositionRecord *)&genPos );

	lea	eax, DWORD PTR _genPos$[ebp]
	push	eax
	mov	ecx, OFFSET ?gACMIRec@@3VACMIRecorder@@A ; gACMIRec
	call	?FlarePositionRecord@ACMIRecorder@@QAEXPAUACMIFlarePositionRecord@@@Z ; ACMIRecorder::FlarePositionRecord
	jmp	SHORT $LN16@InitACMIRe
$LN19@InitACMIRe:

; 1872 : 			else if (((BombClass *)theMover)->IsSetBombFlag(BombClass::IsChaff))

	push	4
	mov	ecx, DWORD PTR _theMover$[ebp]
	call	?IsSetBombFlag@BombClass@@QAEHH@Z	; BombClass::IsSetBombFlag
	test	eax, eax
	je	SHORT $LN17@InitACMIRe

; 1873 : 				gACMIRec.ChaffPositionRecord( (ACMIChaffPositionRecord *)&genPos );

	lea	ecx, DWORD PTR _genPos$[ebp]
	push	ecx
	mov	ecx, OFFSET ?gACMIRec@@3VACMIRecorder@@A ; gACMIRec
	call	?ChaffPositionRecord@ACMIRecorder@@QAEXPAUACMIChaffPositionRecord@@@Z ; ACMIRecorder::ChaffPositionRecord

; 1874 : 			else

	jmp	SHORT $LN16@InitACMIRe
$LN17@InitACMIRe:

; 1875 : 				gACMIRec.GenPositionRecord( &genPos );

	lea	edx, DWORD PTR _genPos$[ebp]
	push	edx
	mov	ecx, OFFSET ?gACMIRec@@3VACMIRecorder@@A ; gACMIRec
	call	?GenPositionRecord@ACMIRecorder@@QAEXPAUACMIGenPositionRecord@@@Z ; ACMIRecorder::GenPositionRecord
$LN16@InitACMIRe:
	jmp	$LN5@InitACMIRe
$LN20@InitACMIRe:

; 1876 : 		}
; 1877 : 		// aircraft
; 1878 : 		// TODO: anything special for ownship?
; 1879 : 		// TODO: save DOF's and states?
; 1880 : 		else if ( theMover->IsAirplane() )

	mov	eax, DWORD PTR _theMover$[ebp]
	mov	edx, DWORD PTR [eax]
	mov	ecx, DWORD PTR _theMover$[ebp]
	mov	eax, DWORD PTR [edx+192]
	call	eax
	test	eax, eax
	je	$LN14@InitACMIRe

; 1881 : 		{
; 1882 : 			airPos.hdr.time = SimLibElapsedTime * MSEC_TO_SEC + OTWDriver.todOffset;

	mov	ecx, DWORD PTR ?SimLibElapsedTime@@3KA	; SimLibElapsedTime
	mov	DWORD PTR tv1337[ebp], ecx
	cvtsi2sd xmm0, DWORD PTR tv1337[ebp]
	mov	edx, DWORD PTR tv1337[ebp]
	shr	edx, 31					; 0000001fH
	addsd	xmm0, QWORD PTR __xmm@41f00000000000000000000000000000[edx*8]
	movsd	QWORD PTR tv1341[ebp], xmm0
	cvtsd2ss xmm0, QWORD PTR tv1341[ebp]
	mulss	xmm0, DWORD PTR __real@3a83126f
	addss	xmm0, DWORD PTR ?OTWDriver@@3VOTWDriverClass@@A+32052
	movss	DWORD PTR _airPos$[ebp+1], xmm0

; 1883 : 			airPos.data.type = theMover->Type();

	mov	ecx, DWORD PTR _theMover$[ebp]
	call	?Type@VuEntity@@QBEGXZ			; VuEntity::Type
	movzx	eax, ax
	mov	DWORD PTR _airPos$[ebp+5], eax

; 1884 : 			airPos.data.uniqueID = ACMIIDTable->Add(theMover->Id(), (char *)((DrawableBSP*)(theMover->drawPointer))->Label(),TeamInfo[theMover->GetTeam()]->GetColor());//.num_;

	mov	ecx, DWORD PTR _theMover$[ebp]
	mov	edx, DWORD PTR [ecx]
	mov	ecx, DWORD PTR _theMover$[ebp]
	mov	eax, DWORD PTR [edx+116]
	call	eax
	movzx	ecx, al
	mov	ecx, DWORD PTR ?TeamInfo@@3PAPAVTeamClass@@A[ecx*4]
	call	?GetColor@TeamClass@@QAEHXZ		; TeamClass::GetColor
	push	eax
	mov	edx, DWORD PTR _theMover$[ebp]
	mov	ecx, DWORD PTR [edx+332]
	call	?Label@DrawableBSP@@QAEPADXZ		; DrawableBSP::Label
	push	eax
	lea	eax, DWORD PTR $T8[ebp]
	push	eax
	mov	ecx, DWORD PTR _theMover$[ebp]
	call	?Id@VuEntity@@QBE?AVVU_ID@@XZ		; VuEntity::Id
	mov	ecx, DWORD PTR [eax+4]
	push	ecx
	mov	edx, DWORD PTR [eax]
	push	edx
	mov	ecx, DWORD PTR ?ACMIIDTable@@3PAVACMI_Hash@@A ; ACMIIDTable
	call	?Add@ACMI_Hash@@QAEJVVU_ID@@PADJ@Z	; ACMI_Hash::Add
	mov	DWORD PTR _airPos$[ebp+9], eax

; 1885 : 			// remove			_mbsnbcpy((unsigned char*)airPos.data.label, (unsigned char *)((DrawableBSP*)(theMover->drawPointer))->Label(), ACMI_LABEL_LEN - 1);
; 1886 : 			// remove			airPos.data.teamColor = TeamInfo[theMover->GetTeam()]->GetColor();
; 1887 : 			airPos.data.x = theMover->XPos();

	mov	ecx, DWORD PTR _theMover$[ebp]
	call	?XPos@VuEntity@@QBEMXZ			; VuEntity::XPos
	fstp	DWORD PTR _airPos$[ebp+13]

; 1888 : 			airPos.data.y = theMover->YPos();

	mov	ecx, DWORD PTR _theMover$[ebp]
	call	?YPos@VuEntity@@QBEMXZ			; VuEntity::YPos
	fstp	DWORD PTR _airPos$[ebp+17]

; 1889 : 			airPos.data.z = theMover->ZPos();

	mov	ecx, DWORD PTR _theMover$[ebp]
	call	?ZPos@VuEntity@@QBEMXZ			; VuEntity::ZPos
	fstp	DWORD PTR _airPos$[ebp+21]

; 1890 : 			airPos.data.roll = theMover->Roll();

	mov	ecx, DWORD PTR _theMover$[ebp]
	call	?Roll@VuEntity@@QBEMXZ			; VuEntity::Roll
	fstp	DWORD PTR _airPos$[ebp+33]

; 1891 : 			airPos.data.pitch = theMover->Pitch();

	mov	ecx, DWORD PTR _theMover$[ebp]
	call	?Pitch@VuEntity@@QBEMXZ			; VuEntity::Pitch
	fstp	DWORD PTR _airPos$[ebp+29]

; 1892 : 			airPos.data.yaw = theMover->Yaw();

	mov	ecx, DWORD PTR _theMover$[ebp]
	call	?Yaw@VuEntity@@QBEMXZ			; VuEntity::Yaw
	fstp	DWORD PTR _airPos$[ebp+25]

; 1893 : 			RadarClass *radar = (RadarClass*)FindSensor( theMover, SensorClass::Radar );

	push	1
	mov	eax, DWORD PTR _theMover$[ebp]
	push	eax
	call	?FindSensor@@YAPAVSensorClass@@PAVSimMoverClass@@H@Z ; FindSensor
	add	esp, 8
	mov	DWORD PTR _radar$18[ebp], eax

; 1894 : #if NO_REMOTE_BUGGED_TARGET
; 1895 : 			if ( radar && radar->CurrentTarget()){

	cmp	DWORD PTR _radar$18[ebp], 0
	je	SHORT $LN13@InitACMIRe
	mov	ecx, DWORD PTR _radar$18[ebp]
	call	?CurrentTarget@SensorClass@@QAEPAVSimObjectType@@XZ ; SensorClass::CurrentTarget
	test	eax, eax
	je	SHORT $LN13@InitACMIRe

; 1896 : 				airPos.RadarTarget = ACMIIDTable->Add(radar->CurrentTarget()->BaseData()->Id(),NULL,0);//.num_;

	push	0
	push	0
	lea	ecx, DWORD PTR $T6[ebp]
	push	ecx
	mov	ecx, DWORD PTR _radar$18[ebp]
	call	?CurrentTarget@SensorClass@@QAEPAVSimObjectType@@XZ ; SensorClass::CurrentTarget
	mov	ecx, eax
	call	?BaseData@SimObjectType@@QAEPAVFalconEntity@@XZ ; SimObjectType::BaseData
	mov	ecx, eax
	call	?Id@VuEntity@@QBE?AVVU_ID@@XZ		; VuEntity::Id
	mov	edx, DWORD PTR [eax+4]
	push	edx
	mov	eax, DWORD PTR [eax]
	push	eax
	mov	ecx, DWORD PTR ?ACMIIDTable@@3PAVACMI_Hash@@A ; ACMIIDTable
	call	?Add@ACMI_Hash@@QAEJVVU_ID@@PADJ@Z	; ACMI_Hash::Add
	mov	DWORD PTR _airPos$[ebp+37], eax

; 1897 : 			}
; 1898 : #else
; 1899 : 			if (  radar && radar->RemoteBuggedTarget){
; 1900 : 				//me123 add record for online targets
; 1901 : 				airPos.RadarTarget = ACMIIDTable->Add(radar->RemoteBuggedTarget->Id(),NULL,0);//.num_;
; 1902 : 			}
; 1903 : 			else if ( radar && radar->CurrentTarget()){
; 1904 : 				airPos.RadarTarget = ACMIIDTable->Add(radar->CurrentTarget()->BaseData()->Id(),NULL,0);//.num_;
; 1905 : 			}
; 1906 : #endif
; 1907 : 			else {

	jmp	SHORT $LN12@InitACMIRe
$LN13@InitACMIRe:

; 1908 : 				airPos.RadarTarget = -1;

	mov	DWORD PTR _airPos$[ebp+37], -1
$LN12@InitACMIRe:

; 1909 : 			}
; 1910 : 			gACMIRec.AircraftPositionRecord( &airPos );

	lea	ecx, DWORD PTR _airPos$[ebp]
	push	ecx
	mov	ecx, OFFSET ?gACMIRec@@3VACMIRecorder@@A ; gACMIRec
	call	?AircraftPositionRecord@ACMIRecorder@@QAEXPAUACMIAircraftPositionRecord@@@Z ; ACMIRecorder::AircraftPositionRecord

; 1911 : 
; 1912 : 			// now we need to save the switches
; 1913 : 			numSwitches = theMover->GetNumSwitches();

	mov	ecx, DWORD PTR _theMover$[ebp]
	call	?GetNumSwitches@SimMoverClass@@QAEHXZ	; SimMoverClass::GetNumSwitches
	mov	DWORD PTR _numSwitches$[ebp], eax

; 1914 : 			for ( i = 0; i < numSwitches; i++ )

	mov	DWORD PTR _i$[ebp], 0
	jmp	SHORT $LN11@InitACMIRe
$LN10@InitACMIRe:
	mov	edx, DWORD PTR _i$[ebp]
	add	edx, 1
	mov	DWORD PTR _i$[ebp], edx
$LN11@InitACMIRe:
	mov	eax, DWORD PTR _i$[ebp]
	cmp	eax, DWORD PTR _numSwitches$[ebp]
	jge	$LN9@InitACMIRe

; 1915 : 			{
; 1916 : 				switchRec.hdr.time = SimLibElapsedTime * MSEC_TO_SEC + OTWDriver.todOffset;

	mov	ecx, DWORD PTR ?SimLibElapsedTime@@3KA	; SimLibElapsedTime
	mov	DWORD PTR tv1390[ebp], ecx
	cvtsi2sd xmm0, DWORD PTR tv1390[ebp]
	mov	edx, DWORD PTR tv1390[ebp]
	shr	edx, 31					; 0000001fH
	addsd	xmm0, QWORD PTR __xmm@41f00000000000000000000000000000[edx*8]
	movsd	QWORD PTR tv1394[ebp], xmm0
	cvtsd2ss xmm0, QWORD PTR tv1394[ebp]
	mulss	xmm0, DWORD PTR __real@3a83126f
	addss	xmm0, DWORD PTR ?OTWDriver@@3VOTWDriverClass@@A+32052
	movss	DWORD PTR _switchRec$[ebp+1], xmm0

; 1917 : 				switchRec.data.type = theMover->Type();

	mov	ecx, DWORD PTR _theMover$[ebp]
	call	?Type@VuEntity@@QBEGXZ			; VuEntity::Type
	movzx	eax, ax
	mov	DWORD PTR _switchRec$[ebp+5], eax

; 1918 : 				switchRec.data.uniqueID = ACMIIDTable->Add(theMover->Id(),NULL,0);//.num_;

	push	0
	push	0
	lea	ecx, DWORD PTR $T4[ebp]
	push	ecx
	mov	ecx, DWORD PTR _theMover$[ebp]
	call	?Id@VuEntity@@QBE?AVVU_ID@@XZ		; VuEntity::Id
	mov	edx, DWORD PTR [eax+4]
	push	edx
	mov	eax, DWORD PTR [eax]
	push	eax
	mov	ecx, DWORD PTR ?ACMIIDTable@@3PAVACMI_Hash@@A ; ACMIIDTable
	call	?Add@ACMI_Hash@@QAEJVVU_ID@@PADJ@Z	; ACMI_Hash::Add
	mov	DWORD PTR _switchRec$[ebp+9], eax

; 1919 : 				switchRec.data.switchNum = i;

	mov	ecx, DWORD PTR _i$[ebp]
	mov	DWORD PTR _switchRec$[ebp+13], ecx

; 1920 : 				switchRec.data.switchVal = 
; 1921 : 					switchRec.data.prevSwitchVal = theMover->GetSwitch( i );

	mov	edx, DWORD PTR _i$[ebp]
	push	edx
	mov	ecx, DWORD PTR _theMover$[ebp]
	call	?GetSwitch@SimMoverClass@@QAEHH@Z	; SimMoverClass::GetSwitch
	mov	DWORD PTR _switchRec$[ebp+21], eax
	mov	eax, DWORD PTR _switchRec$[ebp+21]
	mov	DWORD PTR _switchRec$[ebp+17], eax

; 1922 : 				gACMIRec.SwitchRecord( &switchRec );

	lea	ecx, DWORD PTR _switchRec$[ebp]
	push	ecx
	mov	ecx, OFFSET ?gACMIRec@@3VACMIRecorder@@A ; gACMIRec
	call	?SwitchRecord@ACMIRecorder@@QAEXPAUACMISwitchRecord@@@Z ; ACMIRecorder::SwitchRecord

; 1923 : 			}

	jmp	$LN10@InitACMIRe
$LN9@InitACMIRe:

; 1924 : 
; 1925 : 			// now we need to save the dofs
; 1926 : 			numSwitches = theMover->GetNumDOFs();

	mov	ecx, DWORD PTR _theMover$[ebp]
	call	?GetNumDOFs@SimMoverClass@@QAEHXZ	; SimMoverClass::GetNumDOFs
	mov	DWORD PTR _numSwitches$[ebp], eax

; 1927 : 			for ( i = 0; i < numSwitches; i++ )

	mov	DWORD PTR _i$[ebp], 0
	jmp	SHORT $LN8@InitACMIRe
$LN7@InitACMIRe:
	mov	edx, DWORD PTR _i$[ebp]
	add	edx, 1
	mov	DWORD PTR _i$[ebp], edx
$LN8@InitACMIRe:
	mov	eax, DWORD PTR _i$[ebp]
	cmp	eax, DWORD PTR _numSwitches$[ebp]
	jge	$LN6@InitACMIRe

; 1928 : 			{
; 1929 : 				DOFRec.hdr.time = SimLibElapsedTime * MSEC_TO_SEC + OTWDriver.todOffset;

	mov	ecx, DWORD PTR ?SimLibElapsedTime@@3KA	; SimLibElapsedTime
	mov	DWORD PTR tv1416[ebp], ecx
	cvtsi2sd xmm0, DWORD PTR tv1416[ebp]
	mov	edx, DWORD PTR tv1416[ebp]
	shr	edx, 31					; 0000001fH
	addsd	xmm0, QWORD PTR __xmm@41f00000000000000000000000000000[edx*8]
	movsd	QWORD PTR tv1420[ebp], xmm0
	cvtsd2ss xmm0, QWORD PTR tv1420[ebp]
	mulss	xmm0, DWORD PTR __real@3a83126f
	addss	xmm0, DWORD PTR ?OTWDriver@@3VOTWDriverClass@@A+32052
	movss	DWORD PTR _DOFRec$[ebp+1], xmm0

; 1930 : 				DOFRec.data.type = theMover->Type();

	mov	ecx, DWORD PTR _theMover$[ebp]
	call	?Type@VuEntity@@QBEGXZ			; VuEntity::Type
	movzx	eax, ax
	mov	DWORD PTR _DOFRec$[ebp+5], eax

; 1931 : 				DOFRec.data.uniqueID = ACMIIDTable->Add(theMover->Id(),NULL,0);//.num_;

	push	0
	push	0
	lea	ecx, DWORD PTR $T2[ebp]
	push	ecx
	mov	ecx, DWORD PTR _theMover$[ebp]
	call	?Id@VuEntity@@QBE?AVVU_ID@@XZ		; VuEntity::Id
	mov	edx, DWORD PTR [eax+4]
	push	edx
	mov	eax, DWORD PTR [eax]
	push	eax
	mov	ecx, DWORD PTR ?ACMIIDTable@@3PAVACMI_Hash@@A ; ACMIIDTable
	call	?Add@ACMI_Hash@@QAEJVVU_ID@@PADJ@Z	; ACMI_Hash::Add
	mov	DWORD PTR _DOFRec$[ebp+9], eax

; 1932 : 				DOFRec.data.DOFNum = i;

	mov	ecx, DWORD PTR _i$[ebp]
	mov	DWORD PTR _DOFRec$[ebp+13], ecx

; 1933 : 				DOFRec.data.DOFVal =
; 1934 : 					DOFRec.data.prevDOFVal = theMover->GetDOFValue( i );

	mov	edx, DWORD PTR _i$[ebp]
	push	edx
	mov	ecx, DWORD PTR _theMover$[ebp]
	call	?GetDOFValue@SimMoverClass@@QAEMH@Z	; SimMoverClass::GetDOFValue
	fstp	DWORD PTR _DOFRec$[ebp+21]
	movss	xmm0, DWORD PTR _DOFRec$[ebp+21]
	movss	DWORD PTR _DOFRec$[ebp+17], xmm0

; 1935 : 				gACMIRec.DOFRecord( &DOFRec );

	lea	eax, DWORD PTR _DOFRec$[ebp]
	push	eax
	mov	ecx, OFFSET ?gACMIRec@@3VACMIRecorder@@A ; gACMIRec
	call	?DOFRecord@ACMIRecorder@@QAEXPAUACMIDOFRecord@@@Z ; ACMIRecorder::DOFRecord

; 1936 : 			}

	jmp	$LN7@InitACMIRe
$LN6@InitACMIRe:

; 1937 : 		}
; 1938 : 
; 1939 : 		// everything else (helos, ground vehicles...)
; 1940 : 		else

	jmp	$LN5@InitACMIRe
$LN14@InitACMIRe:

; 1941 : 		{
; 1942 : 			genPos.hdr.time = SimLibElapsedTime * MSEC_TO_SEC + OTWDriver.todOffset;

	mov	ecx, DWORD PTR ?SimLibElapsedTime@@3KA	; SimLibElapsedTime
	mov	DWORD PTR tv1440[ebp], ecx
	cvtsi2sd xmm0, DWORD PTR tv1440[ebp]
	mov	edx, DWORD PTR tv1440[ebp]
	shr	edx, 31					; 0000001fH
	addsd	xmm0, QWORD PTR __xmm@41f00000000000000000000000000000[edx*8]
	movsd	QWORD PTR tv1444[ebp], xmm0
	cvtsd2ss xmm0, QWORD PTR tv1444[ebp]
	mulss	xmm0, DWORD PTR __real@3a83126f
	addss	xmm0, DWORD PTR ?OTWDriver@@3VOTWDriverClass@@A+32052
	movss	DWORD PTR _genPos$[ebp+1], xmm0

; 1943 : 			genPos.data.type = theMover->Type();

	mov	ecx, DWORD PTR _theMover$[ebp]
	call	?Type@VuEntity@@QBEGXZ			; VuEntity::Type
	movzx	eax, ax
	mov	DWORD PTR _genPos$[ebp+5], eax

; 1944 : 			genPos.data.uniqueID = ACMIIDTable->Add(theMover->Id(),NULL,TeamInfo[theMover->GetTeam()]->GetColor());//.num_;

	mov	ecx, DWORD PTR _theMover$[ebp]
	mov	edx, DWORD PTR [ecx]
	mov	ecx, DWORD PTR _theMover$[ebp]
	mov	eax, DWORD PTR [edx+116]
	call	eax
	movzx	ecx, al
	mov	ecx, DWORD PTR ?TeamInfo@@3PAPAVTeamClass@@A[ecx*4]
	call	?GetColor@TeamClass@@QAEHXZ		; TeamClass::GetColor
	push	eax
	push	0
	lea	edx, DWORD PTR $T15[ebp]
	push	edx
	mov	ecx, DWORD PTR _theMover$[ebp]
	call	?Id@VuEntity@@QBE?AVVU_ID@@XZ		; VuEntity::Id
	mov	ecx, DWORD PTR [eax+4]
	push	ecx
	mov	edx, DWORD PTR [eax]
	push	edx
	mov	ecx, DWORD PTR ?ACMIIDTable@@3PAVACMI_Hash@@A ; ACMIIDTable
	call	?Add@ACMI_Hash@@QAEJVVU_ID@@PADJ@Z	; ACMI_Hash::Add
	mov	DWORD PTR _genPos$[ebp+9], eax

; 1945 : 			genPos.data.x = theMover->XPos();

	mov	ecx, DWORD PTR _theMover$[ebp]
	call	?XPos@VuEntity@@QBEMXZ			; VuEntity::XPos
	fstp	DWORD PTR _genPos$[ebp+13]

; 1946 : 			genPos.data.y = theMover->YPos();

	mov	ecx, DWORD PTR _theMover$[ebp]
	call	?YPos@VuEntity@@QBEMXZ			; VuEntity::YPos
	fstp	DWORD PTR _genPos$[ebp+17]

; 1947 : 			genPos.data.z = theMover->ZPos();

	mov	ecx, DWORD PTR _theMover$[ebp]
	call	?ZPos@VuEntity@@QBEMXZ			; VuEntity::ZPos
	fstp	DWORD PTR _genPos$[ebp+21]

; 1948 : 			genPos.data.roll = theMover->Roll();

	mov	ecx, DWORD PTR _theMover$[ebp]
	call	?Roll@VuEntity@@QBEMXZ			; VuEntity::Roll
	fstp	DWORD PTR _genPos$[ebp+33]

; 1949 : 			genPos.data.pitch = theMover->Pitch();

	mov	ecx, DWORD PTR _theMover$[ebp]
	call	?Pitch@VuEntity@@QBEMXZ			; VuEntity::Pitch
	fstp	DWORD PTR _genPos$[ebp+29]

; 1950 : 			genPos.data.yaw = theMover->Yaw();

	mov	ecx, DWORD PTR _theMover$[ebp]
	call	?Yaw@VuEntity@@QBEMXZ			; VuEntity::Yaw
	fstp	DWORD PTR _genPos$[ebp+25]

; 1951 : 			// remove			genPos.data.teamColor = TeamInfo[theMover->GetTeam()]->GetColor();
; 1952 : 			gACMIRec.GenPositionRecord( &genPos );

	lea	eax, DWORD PTR _genPos$[ebp]
	push	eax
	mov	ecx, OFFSET ?gACMIRec@@3VACMIRecorder@@A ; gACMIRec
	call	?GenPositionRecord@ACMIRecorder@@QAEXPAUACMIGenPositionRecord@@@Z ; ACMIRecorder::GenPositionRecord
$LN5@InitACMIRe:

; 1953 : 		}
; 1954 : 
; 1955 : 		// next one in the loop
; 1956 : 		theMover = (SimMoverClass*)objectWalker.GetNext();

	lea	ecx, DWORD PTR _objectWalker$[ebp]
	call	?GetNext@VuListIterator@@QAEPAVVuEntity@@XZ ; VuListIterator::GetNext
	mov	DWORD PTR _theMover$[ebp], eax

; 1957 : 	}

	jmp	$LN40@InitACMIRe
$LN24@InitACMIRe:

; 1958 : 
; 1959 : 	// Do Each feature 
; 1960 : 	theObject = (SimFeatureClass*)featureWalker.GetFirst();

	lea	ecx, DWORD PTR _featureWalker$[ebp]
	call	?GetFirst@VuListIterator@@QAEPAVVuEntity@@XZ ; VuListIterator::GetFirst
	mov	DWORD PTR _theObject$[ebp], eax
$LN4@InitACMIRe:

; 1961 : 	while (theObject)

	cmp	DWORD PTR _theObject$[ebp], 0
	je	$LN3@InitACMIRe

; 1962 : 	{
; 1963 : 		featPos.hdr.time = SimLibElapsedTime * MSEC_TO_SEC + OTWDriver.todOffset;

	mov	ecx, DWORD PTR ?SimLibElapsedTime@@3KA	; SimLibElapsedTime
	mov	DWORD PTR tv1477[ebp], ecx
	cvtsi2sd xmm0, DWORD PTR tv1477[ebp]
	mov	edx, DWORD PTR tv1477[ebp]
	shr	edx, 31					; 0000001fH
	addsd	xmm0, QWORD PTR __xmm@41f00000000000000000000000000000[edx*8]
	movsd	QWORD PTR tv1481[ebp], xmm0
	cvtsd2ss xmm0, QWORD PTR tv1481[ebp]
	mulss	xmm0, DWORD PTR __real@3a83126f
	addss	xmm0, DWORD PTR ?OTWDriver@@3VOTWDriverClass@@A+32052
	movss	DWORD PTR _featPos$[ebp+1], xmm0

; 1964 : 		featPos.data.type = theObject->Type();

	mov	ecx, DWORD PTR _theObject$[ebp]
	call	?Type@VuEntity@@QBEGXZ			; VuEntity::Type
	movzx	eax, ax
	mov	DWORD PTR _featPos$[ebp+5], eax

; 1965 : 		featPos.data.uniqueID = ACMIIDTable->Add(theObject->Id(),NULL,0);//.num_;

	push	0
	push	0
	lea	ecx, DWORD PTR $T17[ebp]
	push	ecx
	mov	ecx, DWORD PTR _theObject$[ebp]
	call	?Id@VuEntity@@QBE?AVVU_ID@@XZ		; VuEntity::Id
	mov	edx, DWORD PTR [eax+4]
	push	edx
	mov	eax, DWORD PTR [eax]
	push	eax
	mov	ecx, DWORD PTR ?ACMIIDTable@@3PAVACMI_Hash@@A ; ACMIIDTable
	call	?Add@ACMI_Hash@@QAEJVVU_ID@@PADJ@Z	; ACMI_Hash::Add
	mov	DWORD PTR _featPos$[ebp+9], eax

; 1966 : 		featPos.data.x = theObject->XPos();

	mov	ecx, DWORD PTR _theObject$[ebp]
	call	?XPos@VuEntity@@QBEMXZ			; VuEntity::XPos
	fstp	DWORD PTR _featPos$[ebp+25]

; 1967 : 		featPos.data.y = theObject->YPos();

	mov	ecx, DWORD PTR _theObject$[ebp]
	call	?YPos@VuEntity@@QBEMXZ			; VuEntity::YPos
	fstp	DWORD PTR _featPos$[ebp+29]

; 1968 : 		featPos.data.z = theObject->ZPos();

	mov	ecx, DWORD PTR _theObject$[ebp]
	call	?ZPos@VuEntity@@QBEMXZ			; VuEntity::ZPos
	fstp	DWORD PTR _featPos$[ebp+33]

; 1969 : 		featPos.data.roll = theObject->Roll();

	mov	ecx, DWORD PTR _theObject$[ebp]
	call	?Roll@VuEntity@@QBEMXZ			; VuEntity::Roll
	fstp	DWORD PTR _featPos$[ebp+45]

; 1970 : 		featPos.data.pitch = theObject->Pitch();

	mov	ecx, DWORD PTR _theObject$[ebp]
	call	?Pitch@VuEntity@@QBEMXZ			; VuEntity::Pitch
	fstp	DWORD PTR _featPos$[ebp+41]

; 1971 : 		featPos.data.yaw = theObject->Yaw();

	mov	ecx, DWORD PTR _theObject$[ebp]
	call	?Yaw@VuEntity@@QBEMXZ			; VuEntity::Yaw
	fstp	DWORD PTR _featPos$[ebp+37]

; 1972 : 		featPos.data.slot = theObject->GetSlot();

	mov	ecx, DWORD PTR _theObject$[ebp]
	call	?GetSlot@SimBaseClass@@QAEHXZ		; SimBaseClass::GetSlot
	mov	DWORD PTR _featPos$[ebp+17], eax

; 1973 : 		featPos.data.specialFlags = theObject->featureFlags;

	mov	ecx, DWORD PTR _theObject$[ebp]
	mov	edx, DWORD PTR [ecx+600]
	mov	DWORD PTR _featPos$[ebp+21], edx

; 1974 : 		leadObject = theObject->GetCampaignObject()->GetComponentLead();

	mov	ecx, DWORD PTR _theObject$[ebp]
	call	?GetCampaignObject@SimBaseClass@@QAEPAVCampBaseClass@@XZ ; SimBaseClass::GetCampaignObject
	mov	ecx, eax
	call	?GetComponentLead@CampBaseClass@@QAEPAVSimBaseClass@@XZ ; CampBaseClass::GetComponentLead
	mov	DWORD PTR _leadObject$[ebp], eax

; 1975 : 		if ( leadObject && leadObject->Id().num_ != theObject->Id().num_ )

	cmp	DWORD PTR _leadObject$[ebp], 0
	je	SHORT $LN2@InitACMIRe
	lea	eax, DWORD PTR $T13[ebp]
	push	eax
	mov	ecx, DWORD PTR _leadObject$[ebp]
	call	?Id@VuEntity@@QBE?AVVU_ID@@XZ		; VuEntity::Id
	mov	esi, eax
	lea	ecx, DWORD PTR $T7[ebp]
	push	ecx
	mov	ecx, DWORD PTR _theObject$[ebp]
	call	?Id@VuEntity@@QBE?AVVU_ID@@XZ		; VuEntity::Id
	mov	edx, DWORD PTR [esi]
	cmp	edx, DWORD PTR [eax]
	je	SHORT $LN2@InitACMIRe

; 1976 : 			featPos.data.leadUniqueID = ACMIIDTable->Add(leadObject->Id(),NULL,0);//.num_;

	push	0
	push	0
	lea	eax, DWORD PTR $T11[ebp]
	push	eax
	mov	ecx, DWORD PTR _leadObject$[ebp]
	call	?Id@VuEntity@@QBE?AVVU_ID@@XZ		; VuEntity::Id
	mov	ecx, DWORD PTR [eax+4]
	push	ecx
	mov	edx, DWORD PTR [eax]
	push	edx
	mov	ecx, DWORD PTR ?ACMIIDTable@@3PAVACMI_Hash@@A ; ACMIIDTable
	call	?Add@ACMI_Hash@@QAEJVVU_ID@@PADJ@Z	; ACMI_Hash::Add
	mov	DWORD PTR _featPos$[ebp+13], eax

; 1977 : 		else

	jmp	SHORT $LN1@InitACMIRe
$LN2@InitACMIRe:

; 1978 : 			featPos.data.leadUniqueID = -1;

	mov	DWORD PTR _featPos$[ebp+13], -1
$LN1@InitACMIRe:

; 1979 : 		gACMIRec.FeaturePositionRecord( &featPos );

	lea	eax, DWORD PTR _featPos$[ebp]
	push	eax
	mov	ecx, OFFSET ?gACMIRec@@3VACMIRecorder@@A ; gACMIRec
	call	?FeaturePositionRecord@ACMIRecorder@@QAEXPAUACMIFeaturePositionRecord@@@Z ; ACMIRecorder::FeaturePositionRecord

; 1980 : 
; 1981 : 		// TODO: we'll probably need to write out what state it's in
; 1982 : 		// once ACMI supports state change events
; 1983 : 		featStat.hdr.time = SimLibElapsedTime * MSEC_TO_SEC + OTWDriver.todOffset;

	mov	ecx, DWORD PTR ?SimLibElapsedTime@@3KA	; SimLibElapsedTime
	mov	DWORD PTR tv1526[ebp], ecx
	cvtsi2sd xmm0, DWORD PTR tv1526[ebp]
	mov	edx, DWORD PTR tv1526[ebp]
	shr	edx, 31					; 0000001fH
	addsd	xmm0, QWORD PTR __xmm@41f00000000000000000000000000000[edx*8]
	movsd	QWORD PTR tv1530[ebp], xmm0
	cvtsd2ss xmm0, QWORD PTR tv1530[ebp]
	mulss	xmm0, DWORD PTR __real@3a83126f
	addss	xmm0, DWORD PTR ?OTWDriver@@3VOTWDriverClass@@A+32052
	movss	DWORD PTR _featStat$[ebp+1], xmm0

; 1984 : 		featStat.data.uniqueID = ACMIIDTable->Add(theObject->Id(),NULL,0);//.num_;

	push	0
	push	0
	lea	eax, DWORD PTR $T3[ebp]
	push	eax
	mov	ecx, DWORD PTR _theObject$[ebp]
	call	?Id@VuEntity@@QBE?AVVU_ID@@XZ		; VuEntity::Id
	mov	ecx, DWORD PTR [eax+4]
	push	ecx
	mov	edx, DWORD PTR [eax]
	push	edx
	mov	ecx, DWORD PTR ?ACMIIDTable@@3PAVACMI_Hash@@A ; ACMIIDTable
	call	?Add@ACMI_Hash@@QAEJVVU_ID@@PADJ@Z	; ACMI_Hash::Add
	mov	DWORD PTR _featStat$[ebp+5], eax

; 1985 : 		featStat.data.newStatus = (theObject->Status() & VIS_TYPE_MASK);

	mov	ecx, DWORD PTR _theObject$[ebp]
	call	?Status@SimBaseClass@@QBEHXZ		; SimBaseClass::Status
	and	eax, 7
	mov	DWORD PTR _featStat$[ebp+9], eax

; 1986 : 		featStat.data.prevStatus = (theObject->Status() & VIS_TYPE_MASK);

	mov	ecx, DWORD PTR _theObject$[ebp]
	call	?Status@SimBaseClass@@QBEHXZ		; SimBaseClass::Status
	and	eax, 7
	mov	DWORD PTR _featStat$[ebp+13], eax

; 1987 : 		gACMIRec.FeatureStatusRecord( &featStat );

	lea	eax, DWORD PTR _featStat$[ebp]
	push	eax
	mov	ecx, OFFSET ?gACMIRec@@3VACMIRecorder@@A ; gACMIRec
	call	?FeatureStatusRecord@ACMIRecorder@@QAEXPAUACMIFeatureStatusRecord@@@Z ; ACMIRecorder::FeatureStatusRecord

; 1988 : 
; 1989 : 		// next one in the loop
; 1990 : 		theObject = (SimFeatureClass*)featureWalker.GetNext();

	lea	ecx, DWORD PTR _featureWalker$[ebp]
	call	?GetNext@VuListIterator@@QAEPAVVuEntity@@XZ ; VuListIterator::GetNext
	mov	DWORD PTR _theObject$[ebp], eax

; 1991 : 	}

	jmp	$LN4@InitACMIRe
$LN3@InitACMIRe:

; 1992 : 
; 1993 : }

	mov	BYTE PTR __$EHRec$[ebp+8], 0
	lea	ecx, DWORD PTR _featureWalker$[ebp]
	call	??1VuListIterator@@UAE@XZ		; VuListIterator::~VuListIterator
	mov	DWORD PTR __$EHRec$[ebp+8], -1
	lea	ecx, DWORD PTR _objectWalker$[ebp]
	call	??1VuListIterator@@UAE@XZ		; VuListIterator::~VuListIterator
	mov	ecx, DWORD PTR __$EHRec$[ebp]
	mov	DWORD PTR fs:0, ecx
	pop	ecx
	pop	esi
	mov	ecx, DWORD PTR __$ArrayPad$[ebp]
	xor	ecx, ebp
	call	@__security_check_cookie@4
	mov	esp, ebp
	pop	ebp
	ret	0
_TEXT	ENDS
text$x	SEGMENT
__unwindfunclet$?InitACMIRecord@SimulationDriver@@QAEXXZ$0:
	lea	ecx, DWORD PTR _objectWalker$[ebp]
	jmp	??1VuListIterator@@UAE@XZ		; VuListIterator::~VuListIterator
__unwindfunclet$?InitACMIRecord@SimulationDriver@@QAEXXZ$1:
	lea	ecx, DWORD PTR _featureWalker$[ebp]
	jmp	??1VuListIterator@@UAE@XZ		; VuListIterator::~VuListIterator
__ehhandler$?InitACMIRecord@SimulationDriver@@QAEXXZ:
	mov	edx, DWORD PTR [esp+8]
	lea	eax, DWORD PTR [edx+12]
	mov	ecx, DWORD PTR [edx-588]
	xor	ecx, eax
	call	@__security_check_cookie@4
	mov	ecx, DWORD PTR [edx-4]
	xor	ecx, eax
	call	@__security_check_cookie@4
	mov	eax, OFFSET __ehfuncinfo$?InitACMIRecord@SimulationDriver@@QAEXXZ
	jmp	___CxxFrameHandler3
text$x	ENDS
?InitACMIRecord@SimulationDriver@@QAEXXZ ENDP		; SimulationDriver::InitACMIRecord
; Function compile flags: /Odtp
; File c:\users\zhitao li\documents\visual studio 2012\projects\freefalcon\sim\simdrive\simdrive.cpp
_TEXT	SEGMENT
_this$ = -4						; size = 4
_theObject$ = 8						; size = 4
?RemoveFromCampFeatList@SimulationDriver@@QAEXPAVVuEntity@@@Z PROC ; SimulationDriver::RemoveFromCampFeatList
; _this$ = ecx

; 2228 : {

	push	ebp
	mov	ebp, esp
	push	ecx
	mov	DWORD PTR _this$[ebp], ecx

; 2229 : 	campObjList->Remove(theObject);

	mov	eax, DWORD PTR _theObject$[ebp]
	push	eax
	mov	ecx, DWORD PTR _this$[ebp]
	mov	ecx, DWORD PTR [ecx+12]
	call	?Remove@VuCollection@@QAEHPAVVuEntity@@@Z ; VuCollection::Remove

; 2230 : 	combinedFeatureList->Remove(theObject);

	mov	edx, DWORD PTR _theObject$[ebp]
	push	edx
	mov	eax, DWORD PTR _this$[ebp]
	mov	ecx, DWORD PTR [eax+20]
	call	?Remove@VuCollection@@QAEHPAVVuEntity@@@Z ; VuCollection::Remove

; 2231 : }

	mov	esp, ebp
	pop	ebp
	ret	4
?RemoveFromCampFeatList@SimulationDriver@@QAEXPAVVuEntity@@@Z ENDP ; SimulationDriver::RemoveFromCampFeatList
_TEXT	ENDS
; Function compile flags: /Odtp
; File c:\users\zhitao li\documents\visual studio 2012\projects\freefalcon\sim\simdrive\simdrive.cpp
_TEXT	SEGMENT
_this$ = -4						; size = 4
_theObject$ = 8						; size = 4
?RemoveFromCampUnitList@SimulationDriver@@QAEXPAVVuEntity@@@Z PROC ; SimulationDriver::RemoveFromCampUnitList
; _this$ = ecx

; 2221 : {

	push	ebp
	mov	ebp, esp
	push	ecx
	mov	DWORD PTR _this$[ebp], ecx

; 2222 : 	campUnitList->Remove(theObject);

	mov	eax, DWORD PTR _theObject$[ebp]
	push	eax
	mov	ecx, DWORD PTR _this$[ebp]
	mov	ecx, DWORD PTR [ecx+8]
	call	?Remove@VuCollection@@QAEHPAVVuEntity@@@Z ; VuCollection::Remove

; 2223 : 	combinedList->Remove(theObject);

	mov	edx, DWORD PTR _theObject$[ebp]
	push	edx
	mov	eax, DWORD PTR _this$[ebp]
	mov	ecx, DWORD PTR [eax+16]
	call	?Remove@VuCollection@@QAEHPAVVuEntity@@@Z ; VuCollection::Remove

; 2224 : 	// MonoPrint ("Removeing %d\n", theObject->Id().num_);
; 2225 : }

	mov	esp, ebp
	pop	ebp
	ret	4
?RemoveFromCampUnitList@SimulationDriver@@QAEXPAVVuEntity@@@Z ENDP ; SimulationDriver::RemoveFromCampUnitList
_TEXT	ENDS
; Function compile flags: /Odtp
; File c:\users\zhitao li\documents\visual studio 2012\projects\freefalcon\sim\simdrive\simdrive.cpp
_TEXT	SEGMENT
_this$ = -4						; size = 4
_theObject$ = 8						; size = 4
?RemoveFromObjectList@SimulationDriver@@QAEXPAVVuEntity@@@Z PROC ; SimulationDriver::RemoveFromObjectList
; _this$ = ecx

; 2215 : {

	push	ebp
	mov	ebp, esp
	push	ecx
	mov	DWORD PTR _this$[ebp], ecx

; 2216 : 	objectList->Remove(theObject);

	mov	eax, DWORD PTR _theObject$[ebp]
	push	eax
	mov	ecx, DWORD PTR _this$[ebp]
	mov	ecx, DWORD PTR [ecx]
	call	?Remove@VuCollection@@QAEHPAVVuEntity@@@Z ; VuCollection::Remove

; 2217 : 	combinedList->Remove(theObject);

	mov	edx, DWORD PTR _theObject$[ebp]
	push	edx
	mov	eax, DWORD PTR _this$[ebp]
	mov	ecx, DWORD PTR [eax+16]
	call	?Remove@VuCollection@@QAEHPAVVuEntity@@@Z ; VuCollection::Remove

; 2218 : }

	mov	esp, ebp
	pop	ebp
	ret	4
?RemoveFromObjectList@SimulationDriver@@QAEXPAVVuEntity@@@Z ENDP ; SimulationDriver::RemoveFromObjectList
_TEXT	ENDS
; Function compile flags: /Odtp
; File c:\users\zhitao li\documents\visual studio 2012\projects\freefalcon\sim\simdrive\simdrive.cpp
_TEXT	SEGMENT
_this$ = -4						; size = 4
_theObject$ = 8						; size = 4
?RemoveFromFeatureList@SimulationDriver@@QAEXPAVVuEntity@@@Z PROC ; SimulationDriver::RemoveFromFeatureList
; _this$ = ecx

; 2209 : {

	push	ebp
	mov	ebp, esp
	push	ecx
	mov	DWORD PTR _this$[ebp], ecx

; 2210 : 	featureList->Remove(theObject);

	mov	eax, DWORD PTR _theObject$[ebp]
	push	eax
	mov	ecx, DWORD PTR _this$[ebp]
	mov	ecx, DWORD PTR [ecx+4]
	call	?Remove@VuCollection@@QAEHPAVVuEntity@@@Z ; VuCollection::Remove

; 2211 : 	combinedFeatureList->Remove(theObject);

	mov	edx, DWORD PTR _theObject$[ebp]
	push	edx
	mov	eax, DWORD PTR _this$[ebp]
	mov	ecx, DWORD PTR [eax+20]
	call	?Remove@VuCollection@@QAEHPAVVuEntity@@@Z ; VuCollection::Remove

; 2212 : }

	mov	esp, ebp
	pop	ebp
	ret	4
?RemoveFromFeatureList@SimulationDriver@@QAEXPAVVuEntity@@@Z ENDP ; SimulationDriver::RemoveFromFeatureList
_TEXT	ENDS
; Function compile flags: /Odtp
; File c:\users\zhitao li\documents\visual studio 2012\projects\freefalcon\sim\simdrive\simdrive.cpp
_TEXT	SEGMENT
_this$ = -4						; size = 4
_theObject$ = 8						; size = 4
?AddToCombFeatList@SimulationDriver@@QAEXPAVVuEntity@@@Z PROC ; SimulationDriver::AddToCombFeatList
; _this$ = ecx

; 2203 : {

	push	ebp
	mov	ebp, esp
	push	ecx
	mov	DWORD PTR _this$[ebp], ecx

; 2204 : 	combinedFeatureList->ForcedInsert(theObject);

	mov	eax, DWORD PTR _theObject$[ebp]
	push	eax
	mov	ecx, DWORD PTR _this$[ebp]
	mov	ecx, DWORD PTR [ecx+20]
	call	?ForcedInsert@FalconPrivateOrderedList@@QAEHPAVVuEntity@@@Z ; FalconPrivateOrderedList::ForcedInsert

; 2205 : }

	mov	esp, ebp
	pop	ebp
	ret	4
?AddToCombFeatList@SimulationDriver@@QAEXPAVVuEntity@@@Z ENDP ; SimulationDriver::AddToCombFeatList
_TEXT	ENDS
; Function compile flags: /Odtp
; File c:\users\zhitao li\documents\visual studio 2012\projects\freefalcon\sim\simdrive\simdrive.cpp
_TEXT	SEGMENT
_this$ = -4						; size = 4
_theObject$ = 8						; size = 4
?AddToCombUnitList@SimulationDriver@@QAEXPAVVuEntity@@@Z PROC ; SimulationDriver::AddToCombUnitList
; _this$ = ecx

; 2198 : {

	push	ebp
	mov	ebp, esp
	push	ecx
	mov	DWORD PTR _this$[ebp], ecx

; 2199 : 	combinedList->ForcedInsert(theObject);

	mov	eax, DWORD PTR _theObject$[ebp]
	push	eax
	mov	ecx, DWORD PTR _this$[ebp]
	mov	ecx, DWORD PTR [ecx+16]
	call	?ForcedInsert@FalconPrivateOrderedList@@QAEHPAVVuEntity@@@Z ; FalconPrivateOrderedList::ForcedInsert

; 2200 : }

	mov	esp, ebp
	pop	ebp
	ret	4
?AddToCombUnitList@SimulationDriver@@QAEXPAVVuEntity@@@Z ENDP ; SimulationDriver::AddToCombUnitList
_TEXT	ENDS
; Function compile flags: /Odtp
; File c:\users\zhitao li\documents\visual studio 2012\projects\freefalcon\sim\simdrive\simdrive.cpp
_TEXT	SEGMENT
_this$ = -4						; size = 4
_theObject$ = 8						; size = 4
?AddToCampFeatList@SimulationDriver@@QAEXPAVVuEntity@@@Z PROC ; SimulationDriver::AddToCampFeatList
; _this$ = ecx

; 2192 : {

	push	ebp
	mov	ebp, esp
	push	ecx
	mov	DWORD PTR _this$[ebp], ecx

; 2193 : 	campObjList->ForcedInsert(theObject);

	mov	eax, DWORD PTR _theObject$[ebp]
	push	eax
	mov	ecx, DWORD PTR _this$[ebp]
	mov	ecx, DWORD PTR [ecx+12]
	call	?ForcedInsert@FalconPrivateOrderedList@@QAEHPAVVuEntity@@@Z ; FalconPrivateOrderedList::ForcedInsert

; 2194 : 	combinedFeatureList->ForcedInsert(theObject);

	mov	edx, DWORD PTR _theObject$[ebp]
	push	edx
	mov	eax, DWORD PTR _this$[ebp]
	mov	ecx, DWORD PTR [eax+20]
	call	?ForcedInsert@FalconPrivateOrderedList@@QAEHPAVVuEntity@@@Z ; FalconPrivateOrderedList::ForcedInsert

; 2195 : }

	mov	esp, ebp
	pop	ebp
	ret	4
?AddToCampFeatList@SimulationDriver@@QAEXPAVVuEntity@@@Z ENDP ; SimulationDriver::AddToCampFeatList
_TEXT	ENDS
; Function compile flags: /Odtp
; File c:\users\zhitao li\documents\visual studio 2012\projects\freefalcon\sim\simdrive\simdrive.cpp
_TEXT	SEGMENT
_this$ = -4						; size = 4
_theObject$ = 8						; size = 4
?AddToCampUnitList@SimulationDriver@@QAEXPAVVuEntity@@@Z PROC ; SimulationDriver::AddToCampUnitList
; _this$ = ecx

; 2185 : {

	push	ebp
	mov	ebp, esp
	push	ecx
	mov	DWORD PTR _this$[ebp], ecx

; 2186 : 	campUnitList->ForcedInsert(theObject);

	mov	eax, DWORD PTR _theObject$[ebp]
	push	eax
	mov	ecx, DWORD PTR _this$[ebp]
	mov	ecx, DWORD PTR [ecx+8]
	call	?ForcedInsert@FalconPrivateOrderedList@@QAEHPAVVuEntity@@@Z ; FalconPrivateOrderedList::ForcedInsert

; 2187 : 	combinedList->ForcedInsert(theObject);

	mov	edx, DWORD PTR _theObject$[ebp]
	push	edx
	mov	eax, DWORD PTR _this$[ebp]
	mov	ecx, DWORD PTR [eax+16]
	call	?ForcedInsert@FalconPrivateOrderedList@@QAEHPAVVuEntity@@@Z ; FalconPrivateOrderedList::ForcedInsert

; 2188 : 	// MonoPrint ("Adding %d\n", theObject->Id().num_);
; 2189 : }

	mov	esp, ebp
	pop	ebp
	ret	4
?AddToCampUnitList@SimulationDriver@@QAEXPAVVuEntity@@@Z ENDP ; SimulationDriver::AddToCampUnitList
_TEXT	ENDS
; Function compile flags: /Odtp
; File c:\users\zhitao li\documents\visual studio 2012\projects\freefalcon\sim\simdrive\simdrive.cpp
_TEXT	SEGMENT
_this$ = -4						; size = 4
_theObject$ = 8						; size = 4
?AddToObjectList@SimulationDriver@@QAEXPAVVuEntity@@@Z PROC ; SimulationDriver::AddToObjectList
; _this$ = ecx

; 2173 : {

	push	ebp
	mov	ebp, esp
	push	ecx
	mov	DWORD PTR _this$[ebp], ecx

; 2174 : 	objectList->ForcedInsert(theObject);

	mov	eax, DWORD PTR _theObject$[ebp]
	push	eax
	mov	ecx, DWORD PTR _this$[ebp]
	mov	ecx, DWORD PTR [ecx]
	call	?ForcedInsert@FalconPrivateOrderedList@@QAEHPAVVuEntity@@@Z ; FalconPrivateOrderedList::ForcedInsert

; 2175 : 	combinedList->ForcedInsert(theObject);

	mov	edx, DWORD PTR _theObject$[ebp]
	push	edx
	mov	eax, DWORD PTR _this$[ebp]
	mov	ecx, DWORD PTR [eax+16]
	call	?ForcedInsert@FalconPrivateOrderedList@@QAEHPAVVuEntity@@@Z ; FalconPrivateOrderedList::ForcedInsert

; 2176 : }

	mov	esp, ebp
	pop	ebp
	ret	4
?AddToObjectList@SimulationDriver@@QAEXPAVVuEntity@@@Z ENDP ; SimulationDriver::AddToObjectList
_TEXT	ENDS
; Function compile flags: /Odtp
; File c:\users\zhitao li\documents\visual studio 2012\projects\freefalcon\sim\simdrive\simdrive.cpp
_TEXT	SEGMENT
_this$ = -4						; size = 4
_theObject$ = 8						; size = 4
?AddToFeatureList@SimulationDriver@@QAEXPAVVuEntity@@@Z PROC ; SimulationDriver::AddToFeatureList
; _this$ = ecx

; 2179 : {

	push	ebp
	mov	ebp, esp
	push	ecx
	mov	DWORD PTR _this$[ebp], ecx

; 2180 : 	featureList->ForcedInsert(theObject);

	mov	eax, DWORD PTR _theObject$[ebp]
	push	eax
	mov	ecx, DWORD PTR _this$[ebp]
	mov	ecx, DWORD PTR [ecx+4]
	call	?ForcedInsert@FalconPrivateOrderedList@@QAEHPAVVuEntity@@@Z ; FalconPrivateOrderedList::ForcedInsert

; 2181 : 	combinedFeatureList->ForcedInsert(theObject);

	mov	edx, DWORD PTR _theObject$[ebp]
	push	edx
	mov	eax, DWORD PTR _this$[ebp]
	mov	ecx, DWORD PTR [eax+20]
	call	?ForcedInsert@FalconPrivateOrderedList@@QAEHPAVVuEntity@@@Z ; FalconPrivateOrderedList::ForcedInsert

; 2182 : }

	mov	esp, ebp
	pop	ebp
	ret	4
?AddToFeatureList@SimulationDriver@@QAEXPAVVuEntity@@@Z ENDP ; SimulationDriver::AddToFeatureList
_TEXT	ENDS
; Function compile flags: /Odtp
; File c:\users\zhitao li\documents\visual studio 2012\projects\freefalcon\sim\include\simdrive.h
;	COMDAT ?SetAVTR@SimulationDriver@@QAEXH@Z
_TEXT	SEGMENT
_this$ = -4						; size = 4
_newFlag$ = 8						; size = 4
?SetAVTR@SimulationDriver@@QAEXH@Z PROC			; SimulationDriver::SetAVTR, COMDAT
; _this$ = ecx

; 101  : 	void SetAVTR (int newFlag) {avtrOn = newFlag; };

	push	ebp
	mov	ebp, esp
	push	ecx
	mov	DWORD PTR _this$[ebp], ecx
	mov	eax, DWORD PTR _this$[ebp]
	mov	ecx, DWORD PTR _newFlag$[ebp]
	mov	DWORD PTR [eax+356], ecx
	mov	esp, ebp
	pop	ebp
	ret	4
?SetAVTR@SimulationDriver@@QAEXH@Z ENDP			; SimulationDriver::SetAVTR
_TEXT	ENDS
; Function compile flags: /Odtp
; File c:\users\zhitao li\documents\visual studio 2012\projects\freefalcon\sim\simdrive\simdrive.cpp
_TEXT	SEGMENT
_updateWalker$ = -60					; size = 12
$T2 = -48						; size = 8
$T3 = -40						; size = 4
_tmpRequest$4 = -36					; size = 4
tv250 = -32						; size = 4
tv236 = -28						; size = 4
_this$ = -24						; size = 4
tv138 = -20						; size = 4
_theObject$ = -16					; size = 4
__$EHRec$ = -12						; size = 12
?UpdateRemoteData@SimulationDriver@@QAEXXZ PROC		; SimulationDriver::UpdateRemoteData
; _this$ = ecx

; 998  : {

	push	ebp
	mov	ebp, esp
	push	-1
	push	__ehhandler$?UpdateRemoteData@SimulationDriver@@QAEXXZ
	mov	eax, DWORD PTR fs:0
	push	eax
	sub	esp, 48					; 00000030H
	mov	eax, DWORD PTR ___security_cookie
	xor	eax, ebp
	push	eax
	lea	eax, DWORD PTR __$EHRec$[ebp]
	mov	DWORD PTR fs:0, eax
	mov	DWORD PTR _this$[ebp], ecx

; 999  : 	SimBaseClass* theObject;
; 1000 : 	VuListIterator updateWalker (objectList);

	mov	eax, DWORD PTR _this$[ebp]
	mov	ecx, DWORD PTR [eax]
	push	ecx
	lea	ecx, DWORD PTR _updateWalker$[ebp]
	call	??0VuListIterator@@QAE@PAVVuLinkedList@@@Z ; VuListIterator::VuListIterator
	mov	DWORD PTR __$EHRec$[ebp+8], 0

; 1001 : 
; 1002 : 	theObject = (SimBaseClass*)updateWalker.GetFirst();

	lea	ecx, DWORD PTR _updateWalker$[ebp]
	call	?GetFirst@VuListIterator@@QAEPAVVuEntity@@XZ ; VuListIterator::GetFirst
	mov	DWORD PTR _theObject$[ebp], eax
$LN7@UpdateRemo:

; 1003 : 	while (theObject){

	cmp	DWORD PTR _theObject$[ebp], 0
	je	$LN6@UpdateRemo

; 1004 : 		if (!theObject->IsLocal()){

	mov	ecx, DWORD PTR _theObject$[ebp]
	call	?IsLocal@VuEntity@@QBEEXZ		; VuEntity::IsLocal
	movzx	edx, al
	test	edx, edx
	jne	$LN1@UpdateRemo

; 1005 : 			CalcTransformMatrix(theObject);

	mov	eax, DWORD PTR _theObject$[ebp]
	push	eax
	call	?CalcTransformMatrix@@YAXPAVSimBaseClass@@@Z ; CalcTransformMatrix
	add	esp, 4

; 1006 : 			theObject->Exec();

	mov	ecx, DWORD PTR _theObject$[ebp]
	mov	edx, DWORD PTR [ecx]
	mov	ecx, DWORD PTR _theObject$[ebp]
	mov	eax, DWORD PTR [edx+348]
	call	eax

; 1007 : 			if (theObject->EntityDriver()){

	mov	ecx, DWORD PTR _theObject$[ebp]
	call	?EntityDriver@VuEntity@@QAEPAVVuDriver@@XZ ; VuEntity::EntityDriver
	test	eax, eax
	je	$LN2@UpdateRemo

; 1008 : 				theObject->EntityDriver()->Exec(SimLibElapsedTime);

	mov	ecx, DWORD PTR _theObject$[ebp]
	call	?EntityDriver@VuEntity@@QAEPAVVuDriver@@XZ ; VuEntity::EntityDriver
	mov	DWORD PTR tv138[ebp], eax
	mov	ecx, DWORD PTR ?SimLibElapsedTime@@3KA	; SimLibElapsedTime
	push	ecx
	mov	edx, DWORD PTR tv138[ebp]
	mov	eax, DWORD PTR [edx]
	mov	ecx, DWORD PTR tv138[ebp]
	mov	edx, DWORD PTR [eax+8]
	call	edx

; 1009 : 				//LRKLUDGE
; 1010 : 				if (theObject->ZPos() > 100.0F){

	mov	ecx, DWORD PTR _theObject$[ebp]
	call	?ZPos@VuEntity@@QBEMXZ			; VuEntity::ZPos
	fstp	DWORD PTR tv236[ebp]
	movss	xmm0, DWORD PTR tv236[ebp]
	comiss	xmm0, DWORD PTR __real@42c80000
	jbe	SHORT $LN3@UpdateRemo

; 1011 : 					//MonoPrint ("Clamping underground position for remote entity\n");
; 1012 : 					theObject->SetPosition (theObject->XPos(), theObject->YPos(), 100.0F);

	push	ecx
	movss	xmm0, DWORD PTR __real@42c80000
	movss	DWORD PTR [esp], xmm0
	mov	ecx, DWORD PTR _theObject$[ebp]
	call	?YPos@VuEntity@@QBEMXZ			; VuEntity::YPos
	push	ecx
	fstp	DWORD PTR [esp]
	mov	ecx, DWORD PTR _theObject$[ebp]
	call	?XPos@VuEntity@@QBEMXZ			; VuEntity::XPos
	push	ecx
	fstp	DWORD PTR [esp]
	mov	ecx, DWORD PTR _theObject$[ebp]
	call	?SetPosition@VuEntity@@QAEXMMM@Z	; VuEntity::SetPosition
$LN3@UpdateRemo:

; 1013 : 				}
; 1014 : 
; 1015 : 				//LRKLUDGE
; 1016 : 				if (theObject->ZPos() < -200000.0F){

	mov	ecx, DWORD PTR _theObject$[ebp]
	call	?ZPos@VuEntity@@QBEMXZ			; VuEntity::ZPos
	fstp	DWORD PTR tv250[ebp]
	movss	xmm0, DWORD PTR __real@c8435000
	comiss	xmm0, DWORD PTR tv250[ebp]
	jbe	SHORT $LN2@UpdateRemo

; 1017 : 					//MonoPrint ("Clamping underground position for remote entity\n");
; 1018 : 					theObject->SetPosition (theObject->XPos(), theObject->YPos(), -200000.0F);

	push	ecx
	movss	xmm0, DWORD PTR __real@c8435000
	movss	DWORD PTR [esp], xmm0
	mov	ecx, DWORD PTR _theObject$[ebp]
	call	?YPos@VuEntity@@QBEMXZ			; VuEntity::YPos
	push	ecx
	fstp	DWORD PTR [esp]
	mov	ecx, DWORD PTR _theObject$[ebp]
	call	?XPos@VuEntity@@QBEMXZ			; VuEntity::XPos
	push	ecx
	fstp	DWORD PTR [esp]
	mov	ecx, DWORD PTR _theObject$[ebp]
	call	?SetPosition@VuEntity@@QAEXMMM@Z	; VuEntity::SetPosition
$LN2@UpdateRemo:

; 1019 : 				}
; 1020 : 			}
; 1021 : 
; 1022 : 			if (requestList && requestList->requestId == theObject->Id()){

	cmp	DWORD PTR _requestList, 0
	je	SHORT $LN1@UpdateRemo
	lea	eax, DWORD PTR $T2[ebp]
	push	eax
	mov	ecx, DWORD PTR _theObject$[ebp]
	call	?Id@VuEntity@@QBE?AVVU_ID@@XZ		; VuEntity::Id
	push	eax
	mov	ecx, DWORD PTR _requestList
	call	??8VU_ID@@QBE_NABV0@@Z			; VU_ID::operator==
	movzx	ecx, al
	test	ecx, ecx
	je	SHORT $LN1@UpdateRemo

; 1023 : 				NewRequestList* tmpRequest;
; 1024 : 				//MonoPrint ("Clearing requested object %d\n", theObject->Id().num_);
; 1025 : 				tmpRequest = requestList;

	mov	edx, DWORD PTR _requestList
	mov	DWORD PTR _tmpRequest$4[ebp], edx

; 1026 : 				requestList = requestList->next;

	mov	eax, DWORD PTR _requestList
	mov	ecx, DWORD PTR [eax+8]
	mov	DWORD PTR _requestList, ecx

; 1027 : 				delete tmpRequest;

	mov	edx, DWORD PTR _tmpRequest$4[ebp]
	mov	DWORD PTR $T3[ebp], edx
	mov	eax, DWORD PTR $T3[ebp]
	push	eax
	call	??3@YAXPAX@Z				; operator delete
	add	esp, 4
$LN1@UpdateRemo:

; 1028 : 			}
; 1029 : 		}
; 1030 : 		theObject = (SimBaseClass*)updateWalker.GetNext();

	lea	ecx, DWORD PTR _updateWalker$[ebp]
	call	?GetNext@VuListIterator@@QAEPAVVuEntity@@XZ ; VuListIterator::GetNext
	mov	DWORD PTR _theObject$[ebp], eax

; 1031 : 	}

	jmp	$LN7@UpdateRemo
$LN6@UpdateRemo:

; 1032 : }

	mov	DWORD PTR __$EHRec$[ebp+8], -1
	lea	ecx, DWORD PTR _updateWalker$[ebp]
	call	??1VuListIterator@@UAE@XZ		; VuListIterator::~VuListIterator
	mov	ecx, DWORD PTR __$EHRec$[ebp]
	mov	DWORD PTR fs:0, ecx
	pop	ecx
	mov	esp, ebp
	pop	ebp
	ret	0
_TEXT	ENDS
text$x	SEGMENT
__unwindfunclet$?UpdateRemoteData@SimulationDriver@@QAEXXZ$0:
	lea	ecx, DWORD PTR _updateWalker$[ebp]
	jmp	??1VuListIterator@@UAE@XZ		; VuListIterator::~VuListIterator
__ehhandler$?UpdateRemoteData@SimulationDriver@@QAEXXZ:
	mov	edx, DWORD PTR [esp+8]
	lea	eax, DWORD PTR [edx+12]
	mov	ecx, DWORD PTR [edx-52]
	xor	ecx, eax
	call	@__security_check_cookie@4
	mov	eax, OFFSET __ehfuncinfo$?UpdateRemoteData@SimulationDriver@@QAEXXZ
	jmp	___CxxFrameHandler3
text$x	ENDS
?UpdateRemoteData@SimulationDriver@@QAEXXZ ENDP		; SimulationDriver::UpdateRemoteData
; Function compile flags: /Odtp
; File c:\users\zhitao li\documents\visual studio 2012\projects\freefalcon\sim\simdrive\simdrive.cpp
_TEXT	SEGMENT
_this$ = -120						; size = 4
tv416 = -116						; size = 4
tv407 = -112						; size = 4
tv388 = -108						; size = 4
tv378 = -104						; size = 4
tv348 = -100						; size = 4
tv423 = -96						; size = 4
tv344 = -92						; size = 4
tv340 = -88						; size = 4
tv421 = -84						; size = 4
tv336 = -80						; size = 4
tv326 = -76						; size = 4
tv316 = -72						; size = 4
_pureFwdOffset$ = -68					; size = 4
_leadFwdOffset$ = -64					; size = 4
_pureRearOffset$ = -60					; size = 4
_leadRearOffset$ = -56					; size = 4
_angle$ = -52						; size = 4
_ydiff$ = -48						; size = 4
_xdiff$ = -44						; size = 4
_speedThreshold$ = -40					; size = 4
_myKIAS$ = -36						; size = 4
_trafficKIAS$ = -32					; size = 4
_trafficHdg$ = -28					; size = 4
_hdgToMyPlane$ = -24					; size = 4
_myHdg$ = -20						; size = 4
_hdgToTraffic$ = -16					; size = 4
_parallelTrafficHdg$ = -12				; size = 4
_normalizedTrafficHdg$ = -8				; size = 4
_relativeBearing$ = -4					; size = 4
_traffic$ = 8						; size = 4
_myAircraft$ = 12					; size = 4
_self$ = 16						; size = 4
?FindTrafficConflict@SimulationDriver@@QAEXPAVSimBaseClass@@PAVAircraftClass@@PAVObjectiveClass@@@Z PROC ; SimulationDriver::FindTrafficConflict
; _this$ = ecx

; 1538 : {

	push	ebp
	mov	ebp, esp
	sub	esp, 120				; 00000078H
	mov	DWORD PTR _this$[ebp], ecx

; 1539 : 
; 1540 : 	float myHdg=0.0F, trafficHdg=0.0F;

	movss	xmm0, DWORD PTR __real@00000000
	movss	DWORD PTR _myHdg$[ebp], xmm0
	movss	xmm0, DWORD PTR __real@00000000
	movss	DWORD PTR _trafficHdg$[ebp], xmm0

; 1541 : 	float xdiff=0.0F, ydiff=0.0F, angle=0.0F;

	movss	xmm0, DWORD PTR __real@00000000
	movss	DWORD PTR _xdiff$[ebp], xmm0
	movss	xmm0, DWORD PTR __real@00000000
	movss	DWORD PTR _ydiff$[ebp], xmm0
	movss	xmm0, DWORD PTR __real@00000000
	movss	DWORD PTR _angle$[ebp], xmm0

; 1542 : 	int hdgToTraffic=0;						// heading to traffic

	mov	DWORD PTR _hdgToTraffic$[ebp], 0

; 1543 : 	int hdgToMyPlane=0;						// heading to my plane

	mov	DWORD PTR _hdgToMyPlane$[ebp], 0

; 1544 : 	int relativeBearing=0;					// relative heading from nose of my plane to traffic

	mov	DWORD PTR _relativeBearing$[ebp], 0

; 1545 : 	int parallelTrafficHdg=0;				// normalized parallel hdg referenced to hdgToMyPlane

	mov	DWORD PTR _parallelTrafficHdg$[ebp], 0

; 1546 : 	int normalizedTrafficHdg=0;				// normalized hdg of traffic referenced to hdgToMyPlane

	mov	DWORD PTR _normalizedTrafficHdg$[ebp], 0

; 1547 : 	float myKIAS=0, trafficKIAS=0;			// airspeed of me and traffic

	movss	xmm0, DWORD PTR __real@00000000
	movss	DWORD PTR _myKIAS$[ebp], xmm0
	movss	xmm0, DWORD PTR __real@00000000
	movss	DWORD PTR _trafficKIAS$[ebp], xmm0

; 1548 : 
; 1549 : 	// Fine Tune conflict resolution with these numbers
; 1550 : 	int pureFwdOffset = 10;							// add or subtract this heading from hdgToMyPlane

	mov	DWORD PTR _pureFwdOffset$[ebp], 10	; 0000000aH

; 1551 : 	int pureRearOffset = 5;

	mov	DWORD PTR _pureRearOffset$[ebp], 5

; 1552 : 	int leadFwdOffset = 10;						// fwd of 3/9 line, add or sub hdg from traffic's hdg

	mov	DWORD PTR _leadFwdOffset$[ebp], 10	; 0000000aH

; 1553 : 	int leadRearOffset = 5;						// behind 3/9 line, add or sub hdg from traffic's hdg

	mov	DWORD PTR _leadRearOffset$[ebp], 5

; 1554 : 	float speedThreshold = 5.0F;				// overtaking speed threshold in GetKias

	movss	xmm0, DWORD PTR __real@40a00000
	movss	DWORD PTR _speedThreshold$[ebp], xmm0

; 1555 : 
; 1556 : 
; 1557 : 	myHdg = myAircraft->Yaw()*RTD;		// Find my heading

	mov	ecx, DWORD PTR _myAircraft$[ebp]
	call	?Yaw@VuEntity@@QBEMXZ			; VuEntity::Yaw
	fstp	DWORD PTR tv316[ebp]
	movss	xmm0, DWORD PTR tv316[ebp]
	mulss	xmm0, DWORD PTR __real@42652ee1
	movss	DWORD PTR _myHdg$[ebp], xmm0

; 1558 : 	if(myHdg < 0.0F)

	movss	xmm0, DWORD PTR __real@00000000
	comiss	xmm0, DWORD PTR _myHdg$[ebp]
	jbe	SHORT $LN42@FindTraffi

; 1559 : 		myHdg += 360.0F;

	movss	xmm0, DWORD PTR _myHdg$[ebp]
	addss	xmm0, DWORD PTR __real@43b40000
	movss	DWORD PTR _myHdg$[ebp], xmm0
$LN42@FindTraffi:

; 1560 : 
; 1561 : 	myKIAS = myAircraft->GetKias();		// My airspeed

	mov	eax, DWORD PTR _myAircraft$[ebp]
	mov	edx, DWORD PTR [eax]
	mov	ecx, DWORD PTR _myAircraft$[ebp]
	mov	eax, DWORD PTR [edx+224]
	call	eax
	fstp	DWORD PTR _myKIAS$[ebp]

; 1562 : 
; 1563 : 	trafficHdg = traffic->Yaw()*RTD;	// Find traffic's heading

	mov	ecx, DWORD PTR _traffic$[ebp]
	call	?Yaw@VuEntity@@QBEMXZ			; VuEntity::Yaw
	fstp	DWORD PTR tv326[ebp]
	movss	xmm0, DWORD PTR tv326[ebp]
	mulss	xmm0, DWORD PTR __real@42652ee1
	movss	DWORD PTR _trafficHdg$[ebp], xmm0

; 1564 : 	if(trafficHdg < 0.0F)

	movss	xmm0, DWORD PTR __real@00000000
	comiss	xmm0, DWORD PTR _trafficHdg$[ebp]
	jbe	SHORT $LN41@FindTraffi

; 1565 : 		trafficHdg += 360.0F;

	movss	xmm0, DWORD PTR _trafficHdg$[ebp]
	addss	xmm0, DWORD PTR __real@43b40000
	movss	DWORD PTR _trafficHdg$[ebp], xmm0
$LN41@FindTraffi:

; 1566 : 
; 1567 : 	trafficKIAS = traffic->GetKias();		// Traffic's airspeed

	mov	ecx, DWORD PTR _traffic$[ebp]
	mov	edx, DWORD PTR [ecx]
	mov	ecx, DWORD PTR _traffic$[ebp]
	mov	eax, DWORD PTR [edx+224]
	call	eax
	fstp	DWORD PTR _trafficKIAS$[ebp]

; 1568 : 
; 1569 : 
; 1570 : 	xdiff = traffic->XPos() - myAircraft->XPos();		// get traffic's X Pos

	mov	ecx, DWORD PTR _traffic$[ebp]
	call	?XPos@VuEntity@@QBEMXZ			; VuEntity::XPos
	fstp	DWORD PTR tv336[ebp]
	movss	xmm0, DWORD PTR tv336[ebp]
	mov	ecx, DWORD PTR _myAircraft$[ebp]
	movss	DWORD PTR tv421[ebp], xmm0
	call	?XPos@VuEntity@@QBEMXZ			; VuEntity::XPos
	fstp	DWORD PTR tv340[ebp]
	movss	xmm0, DWORD PTR tv421[ebp]
	subss	xmm0, DWORD PTR tv340[ebp]
	movss	DWORD PTR _xdiff$[ebp], xmm0

; 1571 : 	ydiff = traffic->YPos() - myAircraft->YPos();		// get traffic's Y Pos

	mov	ecx, DWORD PTR _traffic$[ebp]
	call	?YPos@VuEntity@@QBEMXZ			; VuEntity::YPos
	fstp	DWORD PTR tv344[ebp]
	movss	xmm0, DWORD PTR tv344[ebp]
	mov	ecx, DWORD PTR _myAircraft$[ebp]
	movss	DWORD PTR tv423[ebp], xmm0
	call	?YPos@VuEntity@@QBEMXZ			; VuEntity::YPos
	fstp	DWORD PTR tv348[ebp]
	movss	xmm0, DWORD PTR tv423[ebp]
	subss	xmm0, DWORD PTR tv348[ebp]
	movss	DWORD PTR _ydiff$[ebp], xmm0

; 1572 : 
; 1573 : 	angle = (float)atan2(ydiff, xdiff);				// get radian angle from traffic to my plane

	cvtss2sd xmm0, DWORD PTR _xdiff$[ebp]
	sub	esp, 8
	movsd	QWORD PTR [esp], xmm0
	cvtss2sd xmm0, DWORD PTR _ydiff$[ebp]
	sub	esp, 8
	movsd	QWORD PTR [esp], xmm0
	call	?checked_atan2@@YANNN@Z			; checked_atan2
	add	esp, 16					; 00000010H
	fstp	DWORD PTR _angle$[ebp]

; 1574 : 	//angle = angle - myAircraft->Yaw();			
; 1575 : 	hdgToTraffic =  FloatToInt32 (RTD * angle);	// convert to degrees

	movss	xmm0, DWORD PTR __real@42652ee1
	mulss	xmm0, DWORD PTR _angle$[ebp]
	push	ecx
	movss	DWORD PTR [esp], xmm0
	call	?FloatToInt32@@YAHM@Z			; FloatToInt32
	add	esp, 4
	mov	DWORD PTR _hdgToTraffic$[ebp], eax

; 1576 : 	if(hdgToTraffic < 0)

	cmp	DWORD PTR _hdgToTraffic$[ebp], 0
	jge	SHORT $LN40@FindTraffi

; 1577 : 		hdgToTraffic = 360 + hdgToTraffic;

	mov	ecx, DWORD PTR _hdgToTraffic$[ebp]
	add	ecx, 360				; 00000168H
	mov	DWORD PTR _hdgToTraffic$[ebp], ecx
$LN40@FindTraffi:

; 1578 : 
; 1579 : 	// Find heading to Traffic
; 1580 : 	hdgToMyPlane = hdgToTraffic - 180;	

	mov	edx, DWORD PTR _hdgToTraffic$[ebp]
	sub	edx, 180				; 000000b4H
	mov	DWORD PTR _hdgToMyPlane$[ebp], edx

; 1581 : 	if (hdgToMyPlane < 0)

	jns	SHORT $LN39@FindTraffi

; 1582 : 		hdgToMyPlane = 360 + hdgToMyPlane;

	mov	eax, DWORD PTR _hdgToMyPlane$[ebp]
	add	eax, 360				; 00000168H
	mov	DWORD PTR _hdgToMyPlane$[ebp], eax
$LN39@FindTraffi:

; 1583 : 
; 1584 : 	// Setup Relative bearing
; 1585 : 	if (hdgToTraffic > myHdg)

	cvtsi2ss xmm0, DWORD PTR _hdgToTraffic$[ebp]
	comiss	xmm0, DWORD PTR _myHdg$[ebp]
	jbe	SHORT $LN38@FindTraffi

; 1586 : 	{
; 1587 : 		relativeBearing = static_cast<int>(hdgToTraffic - myHdg);

	cvtsi2ss xmm0, DWORD PTR _hdgToTraffic$[ebp]
	subss	xmm0, DWORD PTR _myHdg$[ebp]
	cvttss2si ecx, xmm0
	mov	DWORD PTR _relativeBearing$[ebp], ecx

; 1588 : 		if (relativeBearing < 0)

	cmp	DWORD PTR _relativeBearing$[ebp], 0
	jge	SHORT $LN37@FindTraffi

; 1589 : 			relativeBearing = 360 + relativeBearing;

	mov	edx, DWORD PTR _relativeBearing$[ebp]
	add	edx, 360				; 00000168H
	mov	DWORD PTR _relativeBearing$[ebp], edx
$LN37@FindTraffi:

; 1590 : 	}
; 1591 : 	else

	jmp	SHORT $LN35@FindTraffi
$LN38@FindTraffi:

; 1592 : 	{
; 1593 : 		static_cast<int>(relativeBearing = hdgToTraffic - (int)myHdg);

	cvttss2si eax, DWORD PTR _myHdg$[ebp]
	mov	ecx, DWORD PTR _hdgToTraffic$[ebp]
	sub	ecx, eax
	mov	DWORD PTR _relativeBearing$[ebp], ecx

; 1594 : 		if (relativeBearing < 0)

	jns	SHORT $LN35@FindTraffi

; 1595 : 			relativeBearing = 360 + relativeBearing;

	mov	edx, DWORD PTR _relativeBearing$[ebp]
	add	edx, 360				; 00000168H
	mov	DWORD PTR _relativeBearing$[ebp], edx
$LN35@FindTraffi:

; 1596 : 	}
; 1597 : 
; 1598 : 	// Normalize all values so they are based off of hdgToMyPlane = 0 (makes it all relative)
; 1599 : 	parallelTrafficHdg = static_cast<int>(myHdg - hdgToMyPlane);

	cvtsi2ss xmm0, DWORD PTR _hdgToMyPlane$[ebp]
	movss	xmm1, DWORD PTR _myHdg$[ebp]
	subss	xmm1, xmm0
	cvttss2si eax, xmm1
	mov	DWORD PTR _parallelTrafficHdg$[ebp], eax

; 1600 : 	if (parallelTrafficHdg < 0)

	cmp	DWORD PTR _parallelTrafficHdg$[ebp], 0
	jge	SHORT $LN34@FindTraffi

; 1601 : 		parallelTrafficHdg = 360 + parallelTrafficHdg;

	mov	ecx, DWORD PTR _parallelTrafficHdg$[ebp]
	add	ecx, 360				; 00000168H
	mov	DWORD PTR _parallelTrafficHdg$[ebp], ecx
$LN34@FindTraffi:

; 1602 : 	normalizedTrafficHdg = static_cast<int>(trafficHdg - hdgToMyPlane);

	cvtsi2ss xmm0, DWORD PTR _hdgToMyPlane$[ebp]
	movss	xmm1, DWORD PTR _trafficHdg$[ebp]
	subss	xmm1, xmm0
	cvttss2si edx, xmm1
	mov	DWORD PTR _normalizedTrafficHdg$[ebp], edx

; 1603 : 	if (normalizedTrafficHdg < 0)

	cmp	DWORD PTR _normalizedTrafficHdg$[ebp], 0
	jge	SHORT $LN33@FindTraffi

; 1604 : 		normalizedTrafficHdg = 360 + normalizedTrafficHdg;

	mov	eax, DWORD PTR _normalizedTrafficHdg$[ebp]
	add	eax, 360				; 00000168H
	mov	DWORD PTR _normalizedTrafficHdg$[ebp], eax
$LN33@FindTraffi:

; 1605 : 
; 1606 : 	// Check for conflicts start here.  There are 6 sectors described below.  	
; 1607 : 
; 1608 : 	// Sector's are setup relative to my planes heading
; 1609 : 	// Sector I = 005 to 090
; 1610 : 	// Sector II = 091 to 175
; 1611 : 	// Sector III = 185 to 269
; 1612 : 	// Sector IV = 270 to 355
; 1613 : 	// Front Sector = 356 to 004
; 1614 : 	// Rear Sector = 176 to 184
; 1615 : 
; 1616 : 
; 1617 : 	// In Sector I
; 1618 : 	if (relativeBearing >= 5 && relativeBearing <= 90)   

	cmp	DWORD PTR _relativeBearing$[ebp], 5
	jl	SHORT $LN32@FindTraffi
	cmp	DWORD PTR _relativeBearing$[ebp], 90	; 0000005aH
	jg	SHORT $LN32@FindTraffi

; 1619 : 	{
; 1620 : 		if ((normalizedTrafficHdg <= (parallelTrafficHdg - leadFwdOffset))  && 
; 1621 : 				(normalizedTrafficHdg >= pureFwdOffset))

	mov	ecx, DWORD PTR _parallelTrafficHdg$[ebp]
	sub	ecx, DWORD PTR _leadFwdOffset$[ebp]
	cmp	DWORD PTR _normalizedTrafficHdg$[ebp], ecx
	jg	SHORT $LN31@FindTraffi
	mov	edx, DWORD PTR _normalizedTrafficHdg$[ebp]
	cmp	edx, DWORD PTR _pureFwdOffset$[ebp]
	jl	SHORT $LN31@FindTraffi

; 1622 : 		{
; 1623 : 			self->brain->trafficCheck = conflictTraffic;	//possible conflict

	mov	eax, DWORD PTR _self$[ebp]
	mov	ecx, DWORD PTR [eax+240]
	mov	DWORD PTR [ecx+52], 3

; 1624 : 		}
; 1625 : 		else

	jmp	SHORT $LN30@FindTraffi
$LN31@FindTraffi:

; 1626 : 			self->brain->trafficCheck = noTraffic;			//no conflict

	mov	edx, DWORD PTR _self$[ebp]
	mov	eax, DWORD PTR [edx+240]
	mov	DWORD PTR [eax+52], 0
$LN30@FindTraffi:

; 1627 : 		return;

	jmp	$LN43@FindTraffi
$LN32@FindTraffi:

; 1628 : 	}
; 1629 : 
; 1630 : 
; 1631 : 	// In Sector II
; 1632 : 	if (relativeBearing >= 91 && relativeBearing <= 180)   

	cmp	DWORD PTR _relativeBearing$[ebp], 91	; 0000005bH
	jl	SHORT $LN29@FindTraffi
	cmp	DWORD PTR _relativeBearing$[ebp], 180	; 000000b4H
	jg	SHORT $LN29@FindTraffi

; 1633 : 	{
; 1634 : 		if ((normalizedTrafficHdg <= (parallelTrafficHdg - leadRearOffset))  && 
; 1635 : 				(normalizedTrafficHdg >= pureRearOffset))

	mov	ecx, DWORD PTR _parallelTrafficHdg$[ebp]
	sub	ecx, DWORD PTR _leadRearOffset$[ebp]
	cmp	DWORD PTR _normalizedTrafficHdg$[ebp], ecx
	jg	SHORT $LN28@FindTraffi
	mov	edx, DWORD PTR _normalizedTrafficHdg$[ebp]
	cmp	edx, DWORD PTR _pureRearOffset$[ebp]
	jl	SHORT $LN28@FindTraffi

; 1636 : 		{
; 1637 : 			if (abs(trafficKIAS - myKIAS) > speedThreshold)

	movss	xmm0, DWORD PTR _trafficKIAS$[ebp]
	subss	xmm0, DWORD PTR _myKIAS$[ebp]
	push	ecx
	movss	DWORD PTR [esp], xmm0
	call	?abs@@YAMM@Z				; abs
	add	esp, 4
	fstp	DWORD PTR tv378[ebp]
	movss	xmm0, DWORD PTR tv378[ebp]
	comiss	xmm0, DWORD PTR _speedThreshold$[ebp]
	jbe	SHORT $LN27@FindTraffi

; 1638 : 				self->brain->trafficCheck = conflictTraffic;	//possible conflict

	mov	eax, DWORD PTR _self$[ebp]
	mov	ecx, DWORD PTR [eax+240]
	mov	DWORD PTR [ecx+52], 3
$LN27@FindTraffi:

; 1639 : 		}
; 1640 : 		else

	jmp	SHORT $LN26@FindTraffi
$LN28@FindTraffi:

; 1641 : 			self->brain->trafficCheck = noTraffic;			//no conflict

	mov	edx, DWORD PTR _self$[ebp]
	mov	eax, DWORD PTR [edx+240]
	mov	DWORD PTR [eax+52], 0
$LN26@FindTraffi:

; 1642 : 		return;

	jmp	$LN43@FindTraffi
$LN29@FindTraffi:

; 1643 : 	}
; 1644 : 
; 1645 : 
; 1646 : 	// In Sector III
; 1647 : 	if (relativeBearing >= 181 && relativeBearing <= 269)   

	cmp	DWORD PTR _relativeBearing$[ebp], 181	; 000000b5H
	jl	SHORT $LN25@FindTraffi
	cmp	DWORD PTR _relativeBearing$[ebp], 269	; 0000010dH
	jg	SHORT $LN25@FindTraffi

; 1648 : 	{
; 1649 : 		if ((normalizedTrafficHdg >= (parallelTrafficHdg + leadRearOffset))  && 
; 1650 : 				(normalizedTrafficHdg <= 360 - pureRearOffset))

	mov	ecx, DWORD PTR _parallelTrafficHdg$[ebp]
	add	ecx, DWORD PTR _leadRearOffset$[ebp]
	cmp	DWORD PTR _normalizedTrafficHdg$[ebp], ecx
	jl	SHORT $LN24@FindTraffi
	mov	edx, 360				; 00000168H
	sub	edx, DWORD PTR _pureRearOffset$[ebp]
	cmp	DWORD PTR _normalizedTrafficHdg$[ebp], edx
	jg	SHORT $LN24@FindTraffi

; 1651 : 		{
; 1652 : 			if (abs(trafficKIAS - myKIAS) >= speedThreshold)

	movss	xmm0, DWORD PTR _trafficKIAS$[ebp]
	subss	xmm0, DWORD PTR _myKIAS$[ebp]
	push	ecx
	movss	DWORD PTR [esp], xmm0
	call	?abs@@YAMM@Z				; abs
	add	esp, 4
	fstp	DWORD PTR tv388[ebp]
	movss	xmm0, DWORD PTR tv388[ebp]
	comiss	xmm0, DWORD PTR _speedThreshold$[ebp]
	jb	SHORT $LN23@FindTraffi

; 1653 : 				self->brain->trafficCheck = conflictTraffic;	//possible conflict

	mov	eax, DWORD PTR _self$[ebp]
	mov	ecx, DWORD PTR [eax+240]
	mov	DWORD PTR [ecx+52], 3
$LN23@FindTraffi:

; 1654 : 		}
; 1655 : 		else

	jmp	SHORT $LN22@FindTraffi
$LN24@FindTraffi:

; 1656 : 			self->brain->trafficCheck = noTraffic;			//no conflict

	mov	edx, DWORD PTR _self$[ebp]
	mov	eax, DWORD PTR [edx+240]
	mov	DWORD PTR [eax+52], 0
$LN22@FindTraffi:

; 1657 : 		return;

	jmp	$LN43@FindTraffi
$LN25@FindTraffi:

; 1658 : 	}
; 1659 : 
; 1660 : 
; 1661 : 	// In Sector IV
; 1662 : 	if (relativeBearing >= 270 && relativeBearing <= 355)   

	cmp	DWORD PTR _relativeBearing$[ebp], 270	; 0000010eH
	jl	SHORT $LN21@FindTraffi
	cmp	DWORD PTR _relativeBearing$[ebp], 355	; 00000163H
	jg	SHORT $LN21@FindTraffi

; 1663 : 	{
; 1664 : 		if ((normalizedTrafficHdg >= (parallelTrafficHdg + leadFwdOffset))  && 
; 1665 : 				(normalizedTrafficHdg <= 360 - pureFwdOffset))

	mov	ecx, DWORD PTR _parallelTrafficHdg$[ebp]
	add	ecx, DWORD PTR _leadFwdOffset$[ebp]
	cmp	DWORD PTR _normalizedTrafficHdg$[ebp], ecx
	jl	SHORT $LN20@FindTraffi
	mov	edx, 360				; 00000168H
	sub	edx, DWORD PTR _pureFwdOffset$[ebp]
	cmp	DWORD PTR _normalizedTrafficHdg$[ebp], edx
	jg	SHORT $LN20@FindTraffi

; 1666 : 		{
; 1667 : 			self->brain->trafficCheck = conflictTraffic;	//possible conflict

	mov	eax, DWORD PTR _self$[ebp]
	mov	ecx, DWORD PTR [eax+240]
	mov	DWORD PTR [ecx+52], 3

; 1668 : 		}
; 1669 : 		else

	jmp	SHORT $LN19@FindTraffi
$LN20@FindTraffi:

; 1670 : 			self->brain->trafficCheck = noTraffic;			//no conflict

	mov	edx, DWORD PTR _self$[ebp]
	mov	eax, DWORD PTR [edx+240]
	mov	DWORD PTR [eax+52], 0
$LN19@FindTraffi:

; 1671 : 		return;

	jmp	$LN43@FindTraffi
$LN21@FindTraffi:

; 1672 : 	}
; 1673 : 
; 1674 : 
; 1675 : 	// In Forward Sector
; 1676 : 	if (relativeBearing >= 355 && relativeBearing <= 359 
; 1677 : 			|| relativeBearing >= 0 && relativeBearing <= 4)   

	cmp	DWORD PTR _relativeBearing$[ebp], 355	; 00000163H
	jl	SHORT $LN16@FindTraffi
	cmp	DWORD PTR _relativeBearing$[ebp], 359	; 00000167H
	jle	SHORT $LN17@FindTraffi
$LN16@FindTraffi:
	cmp	DWORD PTR _relativeBearing$[ebp], 0
	jl	$LN18@FindTraffi
	cmp	DWORD PTR _relativeBearing$[ebp], 4
	jg	SHORT $LN18@FindTraffi
$LN17@FindTraffi:

; 1678 : 	{
; 1679 : 		if (relativeBearing >= 355 && relativeBearing <= 360)

	cmp	DWORD PTR _relativeBearing$[ebp], 355	; 00000163H
	jl	SHORT $LN15@FindTraffi
	cmp	DWORD PTR _relativeBearing$[ebp], 360	; 00000168H
	jg	SHORT $LN15@FindTraffi

; 1680 : 		{
; 1681 : 			if ((normalizedTrafficHdg >= parallelTrafficHdg)  && 
; 1682 : 					(normalizedTrafficHdg <= 360))

	mov	ecx, DWORD PTR _normalizedTrafficHdg$[ebp]
	cmp	ecx, DWORD PTR _parallelTrafficHdg$[ebp]
	jl	SHORT $LN14@FindTraffi
	cmp	DWORD PTR _normalizedTrafficHdg$[ebp], 360 ; 00000168H
	jg	SHORT $LN14@FindTraffi

; 1683 : 			{
; 1684 : 				self->brain->trafficCheck = conflictTraffic;	//possible conflict

	mov	edx, DWORD PTR _self$[ebp]
	mov	eax, DWORD PTR [edx+240]
	mov	DWORD PTR [eax+52], 3

; 1685 : 			}
; 1686 : 			else

	jmp	SHORT $LN13@FindTraffi
$LN14@FindTraffi:

; 1687 : 				self->brain->trafficCheck = noTraffic;			//no conflict

	mov	ecx, DWORD PTR _self$[ebp]
	mov	edx, DWORD PTR [ecx+240]
	mov	DWORD PTR [edx+52], 0
$LN13@FindTraffi:

; 1688 : 		}
; 1689 : 		else

	jmp	SHORT $LN10@FindTraffi
$LN15@FindTraffi:

; 1690 : 		{
; 1691 : 			if ((normalizedTrafficHdg <= parallelTrafficHdg)  && 
; 1692 : 					(normalizedTrafficHdg >= 0))

	mov	eax, DWORD PTR _normalizedTrafficHdg$[ebp]
	cmp	eax, DWORD PTR _parallelTrafficHdg$[ebp]
	jg	SHORT $LN11@FindTraffi
	cmp	DWORD PTR _normalizedTrafficHdg$[ebp], 0
	jl	SHORT $LN11@FindTraffi

; 1693 : 			{
; 1694 : 				self->brain->trafficCheck = conflictTraffic;	//possible conflict

	mov	ecx, DWORD PTR _self$[ebp]
	mov	edx, DWORD PTR [ecx+240]
	mov	DWORD PTR [edx+52], 3

; 1695 : 			}
; 1696 : 			else

	jmp	SHORT $LN10@FindTraffi
$LN11@FindTraffi:

; 1697 : 				self->brain->trafficCheck = noTraffic;			//no conflict

	mov	eax, DWORD PTR _self$[ebp]
	mov	ecx, DWORD PTR [eax+240]
	mov	DWORD PTR [ecx+52], 0
$LN10@FindTraffi:

; 1698 : 		}
; 1699 : 		return;

	jmp	$LN43@FindTraffi
$LN18@FindTraffi:

; 1700 : 	}
; 1701 : 
; 1702 : 
; 1703 : 	// In Rear Sector
; 1704 : 	if (relativeBearing >= 176 && relativeBearing <= 184)

	cmp	DWORD PTR _relativeBearing$[ebp], 176	; 000000b0H
	jl	$LN9@FindTraffi
	cmp	DWORD PTR _relativeBearing$[ebp], 184	; 000000b8H
	jg	$LN9@FindTraffi

; 1705 : 	{
; 1706 : 		if (relativeBearing >= 176 && relativeBearing <= 180)

	cmp	DWORD PTR _relativeBearing$[ebp], 176	; 000000b0H
	jl	SHORT $LN8@FindTraffi
	cmp	DWORD PTR _relativeBearing$[ebp], 180	; 000000b4H
	jg	SHORT $LN8@FindTraffi

; 1707 : 		{
; 1708 : 			if (normalizedTrafficHdg <= parallelTrafficHdg)

	mov	edx, DWORD PTR _normalizedTrafficHdg$[ebp]
	cmp	edx, DWORD PTR _parallelTrafficHdg$[ebp]
	jg	SHORT $LN5@FindTraffi

; 1709 : 				if (abs(trafficKIAS - myKIAS) >= speedThreshold)

	movss	xmm0, DWORD PTR _trafficKIAS$[ebp]
	subss	xmm0, DWORD PTR _myKIAS$[ebp]
	push	ecx
	movss	DWORD PTR [esp], xmm0
	call	?abs@@YAMM@Z				; abs
	add	esp, 4
	fstp	DWORD PTR tv407[ebp]
	movss	xmm0, DWORD PTR tv407[ebp]
	comiss	xmm0, DWORD PTR _speedThreshold$[ebp]
	jb	SHORT $LN6@FindTraffi

; 1710 : 					self->brain->trafficCheck = conflictTraffic;	//possible conflict

	mov	eax, DWORD PTR _self$[ebp]
	mov	ecx, DWORD PTR [eax+240]
	mov	DWORD PTR [ecx+52], 3

; 1711 : 				else

	jmp	SHORT $LN5@FindTraffi
$LN6@FindTraffi:

; 1712 : 					self->brain->trafficCheck = noTraffic;			//no conflict

	mov	edx, DWORD PTR _self$[ebp]
	mov	eax, DWORD PTR [edx+240]
	mov	DWORD PTR [eax+52], 0
$LN5@FindTraffi:

; 1713 : 
; 1714 : 		}
; 1715 : 		else 

	jmp	SHORT $LN1@FindTraffi
$LN8@FindTraffi:

; 1716 : 		{
; 1717 : 			if ((normalizedTrafficHdg >= parallelTrafficHdg)  && 
; 1718 : 					(normalizedTrafficHdg <= 360))

	mov	ecx, DWORD PTR _normalizedTrafficHdg$[ebp]
	cmp	ecx, DWORD PTR _parallelTrafficHdg$[ebp]
	jl	SHORT $LN1@FindTraffi
	cmp	DWORD PTR _normalizedTrafficHdg$[ebp], 360 ; 00000168H
	jg	SHORT $LN1@FindTraffi

; 1719 : 				if (abs(trafficKIAS - myKIAS) >= speedThreshold)

	movss	xmm0, DWORD PTR _trafficKIAS$[ebp]
	subss	xmm0, DWORD PTR _myKIAS$[ebp]
	push	ecx
	movss	DWORD PTR [esp], xmm0
	call	?abs@@YAMM@Z				; abs
	add	esp, 4
	fstp	DWORD PTR tv416[ebp]
	movss	xmm0, DWORD PTR tv416[ebp]
	comiss	xmm0, DWORD PTR _speedThreshold$[ebp]
	jb	SHORT $LN2@FindTraffi

; 1720 : 					self->brain->trafficCheck = conflictTraffic;	//possible conflict

	mov	edx, DWORD PTR _self$[ebp]
	mov	eax, DWORD PTR [edx+240]
	mov	DWORD PTR [eax+52], 3

; 1721 : 				else

	jmp	SHORT $LN1@FindTraffi
$LN2@FindTraffi:

; 1722 : 					self->brain->trafficCheck = noTraffic;			//no conflict

	mov	ecx, DWORD PTR _self$[ebp]
	mov	edx, DWORD PTR [ecx+240]
	mov	DWORD PTR [edx+52], 0
$LN1@FindTraffi:
$LN9@FindTraffi:
$LN43@FindTraffi:

; 1723 : 		}
; 1724 : 		return;
; 1725 : 	}
; 1726 : }

	mov	esp, ebp
	pop	ebp
	ret	12					; 0000000cH
?FindTrafficConflict@SimulationDriver@@QAEXPAVSimBaseClass@@PAVAircraftClass@@PAVObjectiveClass@@@Z ENDP ; SimulationDriver::FindTrafficConflict
_TEXT	ENDS
; Function compile flags: /Odtp
; File c:\users\zhitao li\documents\visual studio 2012\projects\freefalcon\sim\simdrive\simdrive.cpp
_TEXT	SEGMENT
_updateWalker$ = -176					; size = 12
_trafficCheckRange$ = -164				; size = 4
$T2 = -160						; size = 4
tv426 = -156						; size = 4
tv520 = -152						; size = 4
tv438 = -148						; size = 4
_priTrafficDist$ = -144					; size = 4
tv455 = -140						; size = 4
tv549 = -136						; size = 4
$T3 = -132						; size = 4
tv493 = -128						; size = 4
tv537 = -124						; size = 4
tv487 = -120						; size = 4
tv465 = -116						; size = 4
tv481 = -112						; size = 4
_trafficCheckAlt$ = -108				; size = 4
tv545 = -104						; size = 4
tv442 = -100						; size = 4
tv547 = -96						; size = 4
tv541 = -92						; size = 4
tv477 = -88						; size = 4
tv434 = -84						; size = 4
tv473 = -80						; size = 4
tv430 = -76						; size = 4
tv543 = -72						; size = 4
tv400 = -68						; size = 4
tv469 = -64						; size = 4
tv539 = -60						; size = 4
_tmpTrafficAlt$ = -56					; size = 4
_trafficAlt$ = -52					; size = 4
_myAlt$ = -48						; size = 4
_myX$ = -44						; size = 4
_this$ = -40						; size = 4
_tmpRange$ = -36					; size = 4
_myY$ = -32						; size = 4
_trafficRange$ = -28					; size = 4
_retval$ = -24						; size = 4
_myTeam$ = -17						; size = 1
_theObject$ = -16					; size = 4
__$EHRec$ = -12						; size = 12
_aircraft$ = 8						; size = 4
_self$ = 12						; size = 4
_altitude$ = 16						; size = 4
?FindNearestTraffic@SimulationDriver@@QAEPAVSimBaseClass@@PAVAircraftClass@@PAVObjectiveClass@@PAM@Z PROC ; SimulationDriver::FindNearestTraffic
; _this$ = ecx

; 1418 : {

	push	ebp
	mov	ebp, esp
	push	-1
	push	__ehhandler$?FindNearestTraffic@SimulationDriver@@QAEPAVSimBaseClass@@PAVAircraftClass@@PAVObjectiveClass@@PAM@Z
	mov	eax, DWORD PTR fs:0
	push	eax
	sub	esp, 164				; 000000a4H
	push	esi
	mov	eax, DWORD PTR ___security_cookie
	xor	eax, ebp
	push	eax
	lea	eax, DWORD PTR __$EHRec$[ebp]
	mov	DWORD PTR fs:0, eax
	mov	DWORD PTR _this$[ebp], ecx

; 1419 : 	SimBaseClass* retval = NULL;

	mov	DWORD PTR _retval$[ebp], 0

; 1420 : 	SimBaseClass* theObject=NULL;

	mov	DWORD PTR _theObject$[ebp], 0

; 1421 : 	VuListIterator updateWalker (objectList);

	mov	eax, DWORD PTR _this$[ebp]
	mov	ecx, DWORD PTR [eax]
	push	ecx
	lea	ecx, DWORD PTR _updateWalker$[ebp]
	call	??0VuListIterator@@QAE@PAVVuLinkedList@@@Z ; VuListIterator::VuListIterator
	mov	DWORD PTR __$EHRec$[ebp+8], 0

; 1422 : 	float myX=0.0F, myY=0.0F, myAlt=0.0F;

	movss	xmm0, DWORD PTR __real@00000000
	movss	DWORD PTR _myX$[ebp], xmm0
	movss	xmm0, DWORD PTR __real@00000000
	movss	DWORD PTR _myY$[ebp], xmm0
	movss	xmm0, DWORD PTR __real@00000000
	movss	DWORD PTR _myAlt$[ebp], xmm0

; 1423 : 	float tmpRange=0.0F,trafficRange=0.0F, tmpTrafficAlt=0.0F, trafficAlt=0.0F;

	movss	xmm0, DWORD PTR __real@00000000
	movss	DWORD PTR _tmpRange$[ebp], xmm0
	movss	xmm0, DWORD PTR __real@00000000
	movss	DWORD PTR _trafficRange$[ebp], xmm0
	movss	xmm0, DWORD PTR __real@00000000
	movss	DWORD PTR _tmpTrafficAlt$[ebp], xmm0
	movss	xmm0, DWORD PTR __real@00000000
	movss	DWORD PTR _trafficAlt$[ebp], xmm0

; 1424 : 	Team myTeam=0;

	mov	BYTE PTR _myTeam$[ebp], 0

; 1425 : 	int trafficCheckRange = 10;		// Range to check for traffic

	mov	DWORD PTR _trafficCheckRange$[ebp], 10	; 0000000aH

; 1426 : 	int trafficCheckAlt = 2000;		// Relative altitude to check for traffic

	mov	DWORD PTR _trafficCheckAlt$[ebp], 2000	; 000007d0H

; 1427 : 	int priTrafficDist = 5;			// Priority traffic distance (not fully implimented)

	mov	DWORD PTR _priTrafficDist$[ebp], 5

; 1428 : 
; 1429 : 
; 1430 : 	if (!playerEntity)

	mov	edx, DWORD PTR _this$[ebp]
	cmp	DWORD PTR [edx+56], 0
	jne	SHORT $LN17@FindNeares

; 1431 : 		return NULL;

	mov	DWORD PTR $T3[ebp], 0
	mov	DWORD PTR __$EHRec$[ebp+8], -1
	lea	ecx, DWORD PTR _updateWalker$[ebp]
	call	??1VuListIterator@@UAE@XZ		; VuListIterator::~VuListIterator
	mov	eax, DWORD PTR $T3[ebp]
	jmp	$LN18@FindNeares
$LN17@FindNeares:

; 1432 : 
; 1433 : 	myX = aircraft->XPos();			// My X position

	mov	ecx, DWORD PTR _aircraft$[ebp]
	call	?XPos@VuEntity@@QBEMXZ			; VuEntity::XPos
	fstp	DWORD PTR _myX$[ebp]

; 1434 : 	myY = aircraft->YPos();			// My Y position

	mov	ecx, DWORD PTR _aircraft$[ebp]
	call	?YPos@VuEntity@@QBEMXZ			; VuEntity::YPos
	fstp	DWORD PTR _myY$[ebp]

; 1435 : 	myAlt = -aircraft->ZPos();		// My Altitude

	mov	ecx, DWORD PTR _aircraft$[ebp]
	call	?ZPos@VuEntity@@QBEMXZ			; VuEntity::ZPos
	fstp	DWORD PTR tv400[ebp]
	movss	xmm0, DWORD PTR tv400[ebp]
	xorps	xmm0, DWORD PTR __xmm@80000000800000008000000080000000
	movss	DWORD PTR _myAlt$[ebp], xmm0

; 1436 : 	myTeam = aircraft->GetTeam();	// Team info

	mov	eax, DWORD PTR _aircraft$[ebp]
	mov	edx, DWORD PTR [eax]
	mov	ecx, DWORD PTR _aircraft$[ebp]
	mov	eax, DWORD PTR [edx+116]
	call	eax
	mov	BYTE PTR _myTeam$[ebp], al

; 1437 : 
; 1438 : 
; 1439 : 	theObject = (SimBaseClass*)updateWalker.GetFirst();

	lea	ecx, DWORD PTR _updateWalker$[ebp]
	call	?GetFirst@VuListIterator@@QAEPAVVuEntity@@XZ ; VuListIterator::GetFirst
	mov	DWORD PTR _theObject$[ebp], eax
$LN16@FindNeares:

; 1440 : 
; 1441 : 	while (theObject)

	cmp	DWORD PTR _theObject$[ebp], 0
	je	$LN15@FindNeares

; 1442 : 	{	   
; 1443 : 		// check Flight callsign so doesn't call out your flight
; 1444 : 		// check it is an airplane and not dead
; 1445 : 		// check that it is not on the ground
; 1446 : 		// checks that it is not hostile
; 1447 : 		if (aircraft->GetCallsignIdx() != theObject->GetCallsignIdx() && theObject->IsAirplane() && !theObject->IsDead() && !theObject->OnGround() && 
; 1448 : 				GetTTRelations((Team)theObject->GetTeam(), myTeam) <= Neutral)  

	mov	ecx, DWORD PTR _aircraft$[ebp]
	call	?GetCallsignIdx@SimBaseClass@@QAEHXZ	; SimBaseClass::GetCallsignIdx
	mov	esi, eax
	mov	ecx, DWORD PTR _theObject$[ebp]
	call	?GetCallsignIdx@SimBaseClass@@QAEHXZ	; SimBaseClass::GetCallsignIdx
	cmp	esi, eax
	je	$LN4@FindNeares
	mov	ecx, DWORD PTR _theObject$[ebp]
	mov	edx, DWORD PTR [ecx]
	mov	ecx, DWORD PTR _theObject$[ebp]
	mov	eax, DWORD PTR [edx+192]
	call	eax
	test	eax, eax
	je	$LN4@FindNeares
	mov	ecx, DWORD PTR _theObject$[ebp]
	mov	edx, DWORD PTR [ecx]
	mov	ecx, DWORD PTR _theObject$[ebp]
	mov	eax, DWORD PTR [edx+340]
	call	eax
	test	eax, eax
	jne	$LN4@FindNeares
	mov	ecx, DWORD PTR _theObject$[ebp]
	mov	edx, DWORD PTR [ecx]
	mov	ecx, DWORD PTR _theObject$[ebp]
	mov	eax, DWORD PTR [edx+148]
	call	eax
	test	eax, eax
	jne	$LN4@FindNeares
	movzx	ecx, BYTE PTR _myTeam$[ebp]
	push	ecx
	mov	edx, DWORD PTR _theObject$[ebp]
	mov	eax, DWORD PTR [edx]
	mov	ecx, DWORD PTR _theObject$[ebp]
	mov	edx, DWORD PTR [eax+116]
	call	edx
	movzx	eax, al
	push	eax
	call	?GetTTRelations@@YAHEE@Z		; GetTTRelations
	add	esp, 8
	cmp	eax, 3
	jg	$LN4@FindNeares

; 1449 : 		{
; 1450 : 			if (retval == NULL)

	cmp	DWORD PTR _retval$[ebp], 0
	jne	$LN13@FindNeares

; 1451 : 			{	
; 1452 : 				// Range to traffic
; 1453 : 				trafficRange = (theObject->XPos() - myX)*(theObject->XPos()-myX) + 
; 1454 : 					(theObject->YPos() - myY)*(theObject->YPos()-myY);

	mov	ecx, DWORD PTR _theObject$[ebp]
	call	?XPos@VuEntity@@QBEMXZ			; VuEntity::XPos
	fstp	DWORD PTR tv426[ebp]
	movss	xmm0, DWORD PTR tv426[ebp]
	subss	xmm0, DWORD PTR _myX$[ebp]
	mov	ecx, DWORD PTR _theObject$[ebp]
	movss	DWORD PTR tv537[ebp], xmm0
	call	?XPos@VuEntity@@QBEMXZ			; VuEntity::XPos
	fstp	DWORD PTR tv430[ebp]
	movss	xmm0, DWORD PTR tv430[ebp]
	subss	xmm0, DWORD PTR _myX$[ebp]
	movss	xmm1, DWORD PTR tv537[ebp]
	mulss	xmm1, xmm0
	mov	ecx, DWORD PTR _theObject$[ebp]
	movss	DWORD PTR tv539[ebp], xmm1
	call	?YPos@VuEntity@@QBEMXZ			; VuEntity::YPos
	fstp	DWORD PTR tv434[ebp]
	movss	xmm0, DWORD PTR tv434[ebp]
	subss	xmm0, DWORD PTR _myY$[ebp]
	mov	ecx, DWORD PTR _theObject$[ebp]
	movss	DWORD PTR tv541[ebp], xmm0
	call	?YPos@VuEntity@@QBEMXZ			; VuEntity::YPos
	fstp	DWORD PTR tv438[ebp]
	movss	xmm0, DWORD PTR tv438[ebp]
	subss	xmm0, DWORD PTR _myY$[ebp]
	movss	xmm1, DWORD PTR tv541[ebp]
	mulss	xmm1, xmm0
	movss	xmm0, DWORD PTR tv539[ebp]
	addss	xmm0, xmm1
	movss	DWORD PTR _trafficRange$[ebp], xmm0

; 1455 : 
; 1456 : 				// Altitude of traffic
; 1457 : 				trafficAlt = -theObject->ZPos();

	mov	ecx, DWORD PTR _theObject$[ebp]
	call	?ZPos@VuEntity@@QBEMXZ			; VuEntity::ZPos
	fstp	DWORD PTR tv442[ebp]
	movss	xmm0, DWORD PTR tv442[ebp]
	xorps	xmm0, DWORD PTR __xmm@80000000800000008000000080000000
	movss	DWORD PTR _trafficAlt$[ebp], xmm0

; 1458 : 
; 1459 : 				// Check to see if traffic inside trafficCheckRange
; 1460 : 				if (SimToGrid(sqrt(trafficRange)) <= trafficCheckRange)	//SimToGrid and sqrt convert to NM

	push	ecx
	movss	xmm0, DWORD PTR _trafficRange$[ebp]
	movss	DWORD PTR [esp], xmm0
	call	?SqrtSSE@@YAMM@Z			; SqrtSSE
	fstp	DWORD PTR [esp]
	call	?SimToGrid@@YAFM@Z			; SimToGrid
	add	esp, 4
	movsx	ecx, ax
	cmp	ecx, DWORD PTR _trafficCheckRange$[ebp]
	jg	SHORT $LN10@FindNeares

; 1461 : 				{
; 1462 : 					// Check to see if altitude of traffic falls within trafficCheckAlt limits
; 1463 : 					if (abs(trafficAlt - myAlt) <= trafficCheckAlt)

	movss	xmm0, DWORD PTR _trafficAlt$[ebp]
	subss	xmm0, DWORD PTR _myAlt$[ebp]
	push	ecx
	movss	DWORD PTR [esp], xmm0
	call	?abs@@YAMM@Z				; abs
	add	esp, 4
	fstp	DWORD PTR tv455[ebp]
	cvtsi2ss xmm0, DWORD PTR _trafficCheckAlt$[ebp]
	comiss	xmm0, DWORD PTR tv455[ebp]
	jb	SHORT $LN10@FindNeares

; 1464 : 					{				
; 1465 : 						FindTrafficConflict(theObject, aircraft, self);	// Check for conflict

	mov	edx, DWORD PTR _self$[ebp]
	push	edx
	mov	eax, DWORD PTR _aircraft$[ebp]
	push	eax
	mov	ecx, DWORD PTR _theObject$[ebp]
	push	ecx
	mov	ecx, DWORD PTR _this$[ebp]
	call	?FindTrafficConflict@SimulationDriver@@QAEXPAVSimBaseClass@@PAVAircraftClass@@PAVObjectiveClass@@@Z ; SimulationDriver::FindTrafficConflict

; 1466 : 						if (self->brain->trafficCheck == conflictTraffic)	// Traffic is a conflict

	mov	edx, DWORD PTR _self$[ebp]
	mov	eax, DWORD PTR [edx+240]
	cmp	DWORD PTR [eax+52], 3
	jne	SHORT $LN10@FindNeares

; 1467 : 						{
; 1468 : 							retval = theObject;							// Set retval to current traffic

	mov	ecx, DWORD PTR _theObject$[ebp]
	mov	DWORD PTR _retval$[ebp], ecx

; 1469 : 							self->brain->trafficCheck = newTraffic;		// This is new traffic	

	mov	edx, DWORD PTR _self$[ebp]
	mov	eax, DWORD PTR [edx+240]
	mov	DWORD PTR [eax+52], 2
$LN10@FindNeares:

; 1470 : 						}
; 1471 : 					}
; 1472 : 				}
; 1473 : 			}
; 1474 : 			// Arrive here if retval is already set to traffic that is found.  Here we look to see
; 1475 : 			// if this traffic is closer than the traffic already set
; 1476 : 			else

	jmp	$LN4@FindNeares
$LN13@FindNeares:

; 1477 : 			{
; 1478 : 				// temp Range to traffic
; 1479 : 				tmpRange = (theObject->XPos() - myX)*(theObject->XPos()-myX) +
; 1480 : 					(theObject->YPos() - myY)*(theObject->YPos()-myY);

	mov	ecx, DWORD PTR _theObject$[ebp]
	call	?XPos@VuEntity@@QBEMXZ			; VuEntity::XPos
	fstp	DWORD PTR tv465[ebp]
	movss	xmm0, DWORD PTR tv465[ebp]
	subss	xmm0, DWORD PTR _myX$[ebp]
	mov	ecx, DWORD PTR _theObject$[ebp]
	movss	DWORD PTR tv543[ebp], xmm0
	call	?XPos@VuEntity@@QBEMXZ			; VuEntity::XPos
	fstp	DWORD PTR tv469[ebp]
	movss	xmm0, DWORD PTR tv469[ebp]
	subss	xmm0, DWORD PTR _myX$[ebp]
	movss	xmm1, DWORD PTR tv543[ebp]
	mulss	xmm1, xmm0
	mov	ecx, DWORD PTR _theObject$[ebp]
	movss	DWORD PTR tv545[ebp], xmm1
	call	?YPos@VuEntity@@QBEMXZ			; VuEntity::YPos
	fstp	DWORD PTR tv473[ebp]
	movss	xmm0, DWORD PTR tv473[ebp]
	subss	xmm0, DWORD PTR _myY$[ebp]
	mov	ecx, DWORD PTR _theObject$[ebp]
	movss	DWORD PTR tv547[ebp], xmm0
	call	?YPos@VuEntity@@QBEMXZ			; VuEntity::YPos
	fstp	DWORD PTR tv477[ebp]
	movss	xmm0, DWORD PTR tv477[ebp]
	subss	xmm0, DWORD PTR _myY$[ebp]
	movss	xmm1, DWORD PTR tv547[ebp]
	mulss	xmm1, xmm0
	movss	xmm0, DWORD PTR tv545[ebp]
	addss	xmm0, xmm1
	movss	DWORD PTR _tmpRange$[ebp], xmm0

; 1481 : 
; 1482 : 				// temp Altitude of traffic
; 1483 : 				tmpTrafficAlt = -theObject->ZPos();

	mov	ecx, DWORD PTR _theObject$[ebp]
	call	?ZPos@VuEntity@@QBEMXZ			; VuEntity::ZPos
	fstp	DWORD PTR tv481[ebp]
	movss	xmm0, DWORD PTR tv481[ebp]
	xorps	xmm0, DWORD PTR __xmm@80000000800000008000000080000000
	movss	DWORD PTR _tmpTrafficAlt$[ebp], xmm0

; 1484 : 
; 1485 : 				// if traffic is inside the priority traffic range set by priTrafficDist, find the 
; 1486 : 				// aircraft closest to my altitude even if it's farther away
; 1487 : 				if (abs(tmpTrafficAlt - myAlt) < abs(trafficAlt - myAlt) && SimToGrid(sqrt(tmpRange))
; 1488 : 						<= priTrafficDist)

	movss	xmm0, DWORD PTR _tmpTrafficAlt$[ebp]
	subss	xmm0, DWORD PTR _myAlt$[ebp]
	push	ecx
	movss	DWORD PTR [esp], xmm0
	call	?abs@@YAMM@Z				; abs
	add	esp, 4
	fstp	DWORD PTR tv487[ebp]
	movss	xmm0, DWORD PTR tv487[ebp]
	movss	xmm1, DWORD PTR _trafficAlt$[ebp]
	subss	xmm1, DWORD PTR _myAlt$[ebp]
	push	ecx
	movss	DWORD PTR [esp], xmm1
	movss	DWORD PTR tv549[ebp], xmm0
	call	?abs@@YAMM@Z				; abs
	add	esp, 4
	fstp	DWORD PTR tv493[ebp]
	movss	xmm0, DWORD PTR tv493[ebp]
	movss	xmm1, DWORD PTR tv549[ebp]
	comiss	xmm0, xmm1
	jbe	SHORT $LN8@FindNeares
	push	ecx
	movss	xmm0, DWORD PTR _tmpRange$[ebp]
	movss	DWORD PTR [esp], xmm0
	call	?SqrtSSE@@YAMM@Z			; SqrtSSE
	fstp	DWORD PTR [esp]
	call	?SimToGrid@@YAFM@Z			; SimToGrid
	add	esp, 4
	movsx	ecx, ax
	cmp	ecx, DWORD PTR _priTrafficDist$[ebp]
	jg	SHORT $LN8@FindNeares

; 1489 : 				{
; 1490 : 					FindTrafficConflict(theObject, aircraft, self);			// Check for conflict

	mov	edx, DWORD PTR _self$[ebp]
	push	edx
	mov	eax, DWORD PTR _aircraft$[ebp]
	push	eax
	mov	ecx, DWORD PTR _theObject$[ebp]
	push	ecx
	mov	ecx, DWORD PTR _this$[ebp]
	call	?FindTrafficConflict@SimulationDriver@@QAEXPAVSimBaseClass@@PAVAircraftClass@@PAVObjectiveClass@@@Z ; SimulationDriver::FindTrafficConflict

; 1491 : 					// a conflict was found and set in FindTrafficConflict function
; 1492 : 					if (self->brain->trafficCheck == conflictTraffic)

	mov	edx, DWORD PTR _self$[ebp]
	mov	eax, DWORD PTR [edx+240]
	cmp	DWORD PTR [eax+52], 3
	jne	SHORT $LN7@FindNeares

; 1493 : 					{
; 1494 : 						// this return value to this traffic because it is more of a threat
; 1495 : 						trafficRange = tmpRange;						// setup traffic range

	movss	xmm0, DWORD PTR _tmpRange$[ebp]
	movss	DWORD PTR _trafficRange$[ebp], xmm0

; 1496 : 						retval = theObject;

	mov	ecx, DWORD PTR _theObject$[ebp]
	mov	DWORD PTR _retval$[ebp], ecx

; 1497 : 						self->brain->trafficCheck = priorityTraffic;

	mov	edx, DWORD PTR _self$[ebp]
	mov	eax, DWORD PTR [edx+240]
	mov	DWORD PTR [eax+52], 4
$LN7@FindNeares:

; 1498 : 					}
; 1499 : 				}
; 1500 : 				else

	jmp	SHORT $LN4@FindNeares
$LN8@FindNeares:

; 1501 : 				{
; 1502 : 					if (tmpRange < trafficRange)

	movss	xmm0, DWORD PTR _trafficRange$[ebp]
	comiss	xmm0, DWORD PTR _tmpRange$[ebp]
	jbe	SHORT $LN4@FindNeares

; 1503 : 					{
; 1504 : 						FindTrafficConflict(theObject, aircraft, self);

	mov	ecx, DWORD PTR _self$[ebp]
	push	ecx
	mov	edx, DWORD PTR _aircraft$[ebp]
	push	edx
	mov	eax, DWORD PTR _theObject$[ebp]
	push	eax
	mov	ecx, DWORD PTR _this$[ebp]
	call	?FindTrafficConflict@SimulationDriver@@QAEXPAVSimBaseClass@@PAVAircraftClass@@PAVObjectiveClass@@@Z ; SimulationDriver::FindTrafficConflict

; 1505 : 						if (self->brain->trafficCheck == conflictTraffic)

	mov	ecx, DWORD PTR _self$[ebp]
	mov	edx, DWORD PTR [ecx+240]
	cmp	DWORD PTR [edx+52], 3
	jne	SHORT $LN4@FindNeares

; 1506 : 						{
; 1507 : 							trafficRange = tmpRange;

	movss	xmm0, DWORD PTR _tmpRange$[ebp]
	movss	DWORD PTR _trafficRange$[ebp], xmm0

; 1508 : 							retval = theObject;

	mov	eax, DWORD PTR _theObject$[ebp]
	mov	DWORD PTR _retval$[ebp], eax

; 1509 : 							self->brain->trafficCheck = newTraffic;

	mov	ecx, DWORD PTR _self$[ebp]
	mov	edx, DWORD PTR [ecx+240]
	mov	DWORD PTR [edx+52], 2
$LN4@FindNeares:

; 1510 : 						}
; 1511 : 					}
; 1512 : 				}
; 1513 : 			}
; 1514 : 		}
; 1515 : 		theObject = (SimBaseClass*)updateWalker.GetNext();

	lea	ecx, DWORD PTR _updateWalker$[ebp]
	call	?GetNext@VuListIterator@@QAEPAVVuEntity@@XZ ; VuListIterator::GetNext
	mov	DWORD PTR _theObject$[ebp], eax

; 1516 : 	}

	jmp	$LN16@FindNeares
$LN15@FindNeares:

; 1517 : 
; 1518 : 	if (retval)

	cmp	DWORD PTR _retval$[ebp], 0
	je	SHORT $LN3@FindNeares

; 1519 : 	{
; 1520 : 		*altitude = -retval->ZPos();

	mov	ecx, DWORD PTR _retval$[ebp]
	call	?ZPos@VuEntity@@QBEMXZ			; VuEntity::ZPos
	fstp	DWORD PTR tv520[ebp]
	movss	xmm0, DWORD PTR tv520[ebp]
	xorps	xmm0, DWORD PTR __xmm@80000000800000008000000080000000
	mov	eax, DWORD PTR _altitude$[ebp]
	movss	DWORD PTR [eax], xmm0

; 1521 : 		if (retval == self->brain->pLastTraffic)

	mov	ecx, DWORD PTR _self$[ebp]
	mov	edx, DWORD PTR [ecx+240]
	mov	eax, DWORD PTR _retval$[ebp]
	cmp	eax, DWORD PTR [edx+36]
	jne	SHORT $LN2@FindNeares

; 1522 : 		{
; 1523 : 			self->brain->trafficCheck = oldTraffic;

	mov	ecx, DWORD PTR _self$[ebp]
	mov	edx, DWORD PTR [ecx+240]
	mov	DWORD PTR [edx+52], 1
$LN2@FindNeares:

; 1524 : 		}
; 1525 : 		self->brain->pLastTraffic = retval;			//Store last traffic called out

	mov	eax, DWORD PTR _self$[ebp]
	mov	ecx, DWORD PTR [eax+240]
	mov	edx, DWORD PTR _retval$[ebp]
	mov	DWORD PTR [ecx+36], edx

; 1526 : 		self->brain->trafficAltitude = *altitude;		// Store traffic altitude

	mov	eax, DWORD PTR _self$[ebp]
	mov	ecx, DWORD PTR [eax+240]
	mov	edx, DWORD PTR _altitude$[ebp]
	mov	eax, DWORD PTR [edx]
	mov	DWORD PTR [ecx+48], eax

; 1527 : 		self->brain->trafficRange = trafficRange;		// Store traffic range

	mov	ecx, DWORD PTR _self$[ebp]
	mov	edx, DWORD PTR [ecx+240]
	movss	xmm0, DWORD PTR _trafficRange$[ebp]
	movss	DWORD PTR [edx+40], xmm0

; 1528 : 	}
; 1529 : 	else

	jmp	SHORT $LN1@FindNeares
$LN3@FindNeares:

; 1530 : 		self->brain->pLastTraffic = NULL;

	mov	eax, DWORD PTR _self$[ebp]
	mov	ecx, DWORD PTR [eax+240]
	mov	DWORD PTR [ecx+36], 0
$LN1@FindNeares:

; 1531 : 
; 1532 : 	return (retval);

	mov	edx, DWORD PTR _retval$[ebp]
	mov	DWORD PTR $T2[ebp], edx
	mov	DWORD PTR __$EHRec$[ebp+8], -1
	lea	ecx, DWORD PTR _updateWalker$[ebp]
	call	??1VuListIterator@@UAE@XZ		; VuListIterator::~VuListIterator
	mov	eax, DWORD PTR $T2[ebp]
$LN18@FindNeares:

; 1533 : }

	mov	ecx, DWORD PTR __$EHRec$[ebp]
	mov	DWORD PTR fs:0, ecx
	pop	ecx
	pop	esi
	mov	esp, ebp
	pop	ebp
	ret	12					; 0000000cH
_TEXT	ENDS
text$x	SEGMENT
__unwindfunclet$?FindNearestTraffic@SimulationDriver@@QAEPAVSimBaseClass@@PAVAircraftClass@@PAVObjectiveClass@@PAM@Z$0:
	lea	ecx, DWORD PTR _updateWalker$[ebp]
	jmp	??1VuListIterator@@UAE@XZ		; VuListIterator::~VuListIterator
__ehhandler$?FindNearestTraffic@SimulationDriver@@QAEPAVSimBaseClass@@PAVAircraftClass@@PAVObjectiveClass@@PAM@Z:
	mov	edx, DWORD PTR [esp+8]
	lea	eax, DWORD PTR [edx+12]
	mov	ecx, DWORD PTR [edx-172]
	xor	ecx, eax
	call	@__security_check_cookie@4
	mov	eax, OFFSET __ehfuncinfo$?FindNearestTraffic@SimulationDriver@@QAEPAVSimBaseClass@@PAVAircraftClass@@PAVObjectiveClass@@PAM@Z
	jmp	___CxxFrameHandler3
text$x	ENDS
?FindNearestTraffic@SimulationDriver@@QAEPAVSimBaseClass@@PAVAircraftClass@@PAVObjectiveClass@@PAM@Z ENDP ; SimulationDriver::FindNearestTraffic
; Function compile flags: /Odtp
; File c:\users\zhitao li\documents\visual studio 2012\projects\freefalcon\sim\simdrive\simdrive.cpp
_TEXT	SEGMENT
_myit$ = -180						; size = 60
_myZ$ = -120						; size = 4
$T2 = -116						; size = 4
tv408 = -112						; size = 4
tv449 = -108						; size = 4
tv459 = -104						; size = 4
tv463 = -100						; size = 4
tv404 = -96						; size = 4
tv465 = -92						; size = 4
tv457 = -88						; size = 4
tv429 = -84						; size = 4
tv412 = -80						; size = 4
tv425 = -76						; size = 4
_this$ = -72						; size = 4
tv461 = -68						; size = 4
tv400 = -64						; size = 4
tv421 = -60						; size = 4
tv417 = -56						; size = 4
tv455 = -52						; size = 4
tv92 = -48						; size = 4
tv78 = -44						; size = 4
_range$ = -40						; size = 4
_tmpRange$ = -36					; size = 4
_myX$ = -32						; size = 4
_myY$ = -28						; size = 4
_retval$ = -24						; size = 4
_myTeam$ = -17						; size = 1
_theUnit$ = -16						; size = 4
__$EHRec$ = -12						; size = 12
_aircraft$ = 8						; size = 4
_x$ = 12						; size = 4
_y$ = 16						; size = 4
_altitude$ = 20						; size = 4
?FindNearestCampEnemy@SimulationDriver@@QAEPAVCampBaseClass@@PAVAircraftClass@@PAF1PAM@Z PROC ; SimulationDriver::FindNearestCampEnemy
; _this$ = ecx

; 1344 : {

	push	ebp
	mov	ebp, esp
	push	-1
	push	__ehhandler$?FindNearestCampEnemy@SimulationDriver@@QAEPAVCampBaseClass@@PAVAircraftClass@@PAF1PAM@Z
	mov	eax, DWORD PTR fs:0
	push	eax
	sub	esp, 168				; 000000a8H
	mov	eax, DWORD PTR ___security_cookie
	xor	eax, ebp
	push	eax
	lea	eax, DWORD PTR __$EHRec$[ebp]
	mov	DWORD PTR fs:0, eax
	mov	DWORD PTR _this$[ebp], ecx

; 1345 : 	CampBaseClass* retval = NULL;

	mov	DWORD PTR _retval$[ebp], 0

; 1346 : 	CampBaseClass* theUnit = NULL;

	mov	DWORD PTR _theUnit$[ebp], 0

; 1347 : 
; 1348 : 	float myX=0.0F, myY=0.0F, myZ=0.0F;

	movss	xmm0, DWORD PTR __real@00000000
	movss	DWORD PTR _myX$[ebp], xmm0
	movss	xmm0, DWORD PTR __real@00000000
	movss	DWORD PTR _myY$[ebp], xmm0
	movss	xmm0, DWORD PTR __real@00000000
	movss	DWORD PTR _myZ$[ebp], xmm0

; 1349 : 	float tmpRange=0.0F,range=0.0F;

	movss	xmm0, DWORD PTR __real@00000000
	movss	DWORD PTR _tmpRange$[ebp], xmm0
	movss	xmm0, DWORD PTR __real@00000000
	movss	DWORD PTR _range$[ebp], xmm0

; 1350 : 	Team myTeam=0;

	mov	BYTE PTR _myTeam$[ebp], 0

; 1351 : 
; 1352 : 	if (!playerEntity)

	mov	eax, DWORD PTR _this$[ebp]
	cmp	DWORD PTR [eax+56], 0
	jne	SHORT $LN9@FindNeares

; 1353 : 		return NULL;

	xor	eax, eax
	jmp	$LN10@FindNeares
$LN9@FindNeares:

; 1354 : 
; 1355 : 	// Don't look for campaign threats in dogfight. Everything is deaggregated anyway, and
; 1356 : 	// this often finds people who havn't entered the sim yet.
; 1357 : 	if (FalconLocalGame && FalconLocalGame->GetGameType() == game_Dogfight){

	mov	ecx, OFFSET ?vuLocalSessionEntity@@3V?$VuBin@VVuSessionEntity@@@@A ; vuLocalSessionEntity
	call	??B?$VuBin@VVuSessionEntity@@@@QBE_NXZ	; VuBin<VuSessionEntity>::operator bool
	movzx	ecx, al
	test	ecx, ecx
	je	SHORT $LN12@FindNeares
	mov	ecx, OFFSET ?vuLocalSessionEntity@@3V?$VuBin@VVuSessionEntity@@@@A ; vuLocalSessionEntity
	call	?get@?$VuBin@VVuSessionEntity@@@@QBEPAVVuSessionEntity@@XZ ; VuBin<VuSessionEntity>::get
	mov	ecx, eax
	call	?GetGame@FalconSessionEntity@@QAEPAVFalconGameEntity@@XZ ; FalconSessionEntity::GetGame
	mov	DWORD PTR tv78[ebp], eax
	jmp	SHORT $LN13@FindNeares
$LN12@FindNeares:
	mov	DWORD PTR tv78[ebp], 0
$LN13@FindNeares:
	cmp	DWORD PTR tv78[ebp], 0
	je	SHORT $LN8@FindNeares
	mov	ecx, OFFSET ?vuLocalSessionEntity@@3V?$VuBin@VVuSessionEntity@@@@A ; vuLocalSessionEntity
	call	??B?$VuBin@VVuSessionEntity@@@@QBE_NXZ	; VuBin<VuSessionEntity>::operator bool
	movzx	edx, al
	test	edx, edx
	je	SHORT $LN14@FindNeares
	mov	ecx, OFFSET ?vuLocalSessionEntity@@3V?$VuBin@VVuSessionEntity@@@@A ; vuLocalSessionEntity
	call	?get@?$VuBin@VVuSessionEntity@@@@QBEPAVVuSessionEntity@@XZ ; VuBin<VuSessionEntity>::get
	mov	ecx, eax
	call	?GetGame@FalconSessionEntity@@QAEPAVFalconGameEntity@@XZ ; FalconSessionEntity::GetGame
	mov	DWORD PTR tv92[ebp], eax
	jmp	SHORT $LN15@FindNeares
$LN14@FindNeares:
	mov	DWORD PTR tv92[ebp], 0
$LN15@FindNeares:
	mov	ecx, DWORD PTR tv92[ebp]
	call	?GetGameType@FalconGameEntity@@QAE?AW4FalconGameType@@XZ ; FalconGameEntity::GetGameType
	cmp	eax, 2
	jne	SHORT $LN8@FindNeares

; 1358 : 		return NULL;

	xor	eax, eax
	jmp	$LN10@FindNeares
$LN8@FindNeares:

; 1359 : 	}
; 1360 : 
; 1361 : 	myX = aircraft->XPos();

	mov	ecx, DWORD PTR _aircraft$[ebp]
	call	?XPos@VuEntity@@QBEMXZ			; VuEntity::XPos
	fstp	DWORD PTR _myX$[ebp]

; 1362 : 	myY = aircraft->YPos();

	mov	ecx, DWORD PTR _aircraft$[ebp]
	call	?YPos@VuEntity@@QBEMXZ			; VuEntity::YPos
	fstp	DWORD PTR _myY$[ebp]

; 1363 : 	myZ = aircraft->ZPos();

	mov	ecx, DWORD PTR _aircraft$[ebp]
	call	?ZPos@VuEntity@@QBEMXZ			; VuEntity::ZPos
	fstp	DWORD PTR _myZ$[ebp]

; 1364 : 	myTeam = aircraft->GetTeam();

	mov	eax, DWORD PTR _aircraft$[ebp]
	mov	edx, DWORD PTR [eax]
	mov	ecx, DWORD PTR _aircraft$[ebp]
	mov	eax, DWORD PTR [edx+116]
	call	eax
	mov	BYTE PTR _myTeam$[ebp], al

; 1365 : 
; 1366 : #ifndef VU_GRID_TREE_Y_MAJOR
; 1367 : 	VuGridIterator	myit(RealUnitProxList,(BIG_SCALAR)myX,(BIG_SCALAR)myY,(BIG_SCALAR)GridToSim(100));
; 1368 : #else
; 1369 : 	VuGridIterator	myit(RealUnitProxList,(BIG_SCALAR)myY,(BIG_SCALAR)myX,(BIG_SCALAR)GridToSim(100));

	push	100					; 00000064H
	call	?GridToSim@@YAMF@Z			; GridToSim
	fstp	DWORD PTR [esp]
	push	ecx
	movss	xmm0, DWORD PTR _myX$[ebp]
	movss	DWORD PTR [esp], xmm0
	push	ecx
	movss	xmm0, DWORD PTR _myY$[ebp]
	movss	DWORD PTR [esp], xmm0
	mov	ecx, DWORD PTR ?RealUnitProxList@@3PAVVuGridTree@@A ; RealUnitProxList
	push	ecx
	lea	ecx, DWORD PTR _myit$[ebp]
	call	??0VuGridIterator@@QAE@PAVVuGridTree@@MMM@Z ; VuGridIterator::VuGridIterator
	mov	DWORD PTR __$EHRec$[ebp+8], 0

; 1370 : #endif
; 1371 : 
; 1372 : 	theUnit = (CampBaseClass*)myit.GetFirst();

	lea	ecx, DWORD PTR _myit$[ebp]
	call	?GetFirst@VuGridIterator@@QAEPAVVuEntity@@XZ ; VuGridIterator::GetFirst
	mov	DWORD PTR _theUnit$[ebp], eax
$LN7@FindNeares:

; 1373 : 	while (theUnit)

	cmp	DWORD PTR _theUnit$[ebp], 0
	je	$LN6@FindNeares

; 1374 : 	{
; 1375 : 		if (theUnit->IsFlight() && !theUnit->IsDead() && GetTTRelations((Team)theUnit->GetTeam(), myTeam) >= Hostile && theUnit->GetSpotted(myTeam))

	mov	edx, DWORD PTR _theUnit$[ebp]
	mov	eax, DWORD PTR [edx]
	mov	ecx, DWORD PTR _theUnit$[ebp]
	mov	edx, DWORD PTR [eax+248]
	call	edx
	test	eax, eax
	je	$LN2@FindNeares
	mov	eax, DWORD PTR _theUnit$[ebp]
	mov	edx, DWORD PTR [eax]
	mov	ecx, DWORD PTR _theUnit$[ebp]
	mov	eax, DWORD PTR [edx+212]
	call	eax
	test	eax, eax
	jne	$LN2@FindNeares
	movzx	ecx, BYTE PTR _myTeam$[ebp]
	push	ecx
	mov	edx, DWORD PTR _theUnit$[ebp]
	mov	eax, DWORD PTR [edx]
	mov	ecx, DWORD PTR _theUnit$[ebp]
	mov	edx, DWORD PTR [eax+116]
	call	edx
	movzx	eax, al
	push	eax
	call	?GetTTRelations@@YAHEE@Z		; GetTTRelations
	add	esp, 8
	cmp	eax, 4
	jl	$LN2@FindNeares
	movzx	ecx, BYTE PTR _myTeam$[ebp]
	push	ecx
	mov	ecx, DWORD PTR _theUnit$[ebp]
	call	?GetSpotted@CampBaseClass@@QAEHE@Z	; CampBaseClass::GetSpotted
	test	eax, eax
	je	$LN2@FindNeares

; 1376 : 		{
; 1377 : 			if (retval == NULL)

	cmp	DWORD PTR _retval$[ebp], 0
	jne	$LN4@FindNeares

; 1378 : 			{
; 1379 : 				*x = SimToGrid(theUnit->YPos());

	mov	ecx, DWORD PTR _theUnit$[ebp]
	call	?YPos@VuEntity@@QBEMXZ			; VuEntity::YPos
	push	ecx
	fstp	DWORD PTR [esp]
	call	?SimToGrid@@YAFM@Z			; SimToGrid
	add	esp, 4
	mov	edx, DWORD PTR _x$[ebp]
	mov	WORD PTR [edx], ax

; 1380 : 				*y = SimToGrid(theUnit->XPos());

	mov	ecx, DWORD PTR _theUnit$[ebp]
	call	?XPos@VuEntity@@QBEMXZ			; VuEntity::XPos
	push	ecx
	fstp	DWORD PTR [esp]
	call	?SimToGrid@@YAFM@Z			; SimToGrid
	add	esp, 4
	mov	ecx, DWORD PTR _y$[ebp]
	mov	WORD PTR [ecx], ax

; 1381 : 				range = (theUnit->XPos() - myX)*(theUnit->XPos()-myX) +
; 1382 : 					(theUnit->YPos() - myY)*(theUnit->YPos()-myY);

	mov	ecx, DWORD PTR _theUnit$[ebp]
	call	?XPos@VuEntity@@QBEMXZ			; VuEntity::XPos
	fstp	DWORD PTR tv400[ebp]
	movss	xmm0, DWORD PTR tv400[ebp]
	subss	xmm0, DWORD PTR _myX$[ebp]
	mov	ecx, DWORD PTR _theUnit$[ebp]
	movss	DWORD PTR tv455[ebp], xmm0
	call	?XPos@VuEntity@@QBEMXZ			; VuEntity::XPos
	fstp	DWORD PTR tv404[ebp]
	movss	xmm0, DWORD PTR tv404[ebp]
	subss	xmm0, DWORD PTR _myX$[ebp]
	movss	xmm1, DWORD PTR tv455[ebp]
	mulss	xmm1, xmm0
	mov	ecx, DWORD PTR _theUnit$[ebp]
	movss	DWORD PTR tv457[ebp], xmm1
	call	?YPos@VuEntity@@QBEMXZ			; VuEntity::YPos
	fstp	DWORD PTR tv408[ebp]
	movss	xmm0, DWORD PTR tv408[ebp]
	subss	xmm0, DWORD PTR _myY$[ebp]
	mov	ecx, DWORD PTR _theUnit$[ebp]
	movss	DWORD PTR tv459[ebp], xmm0
	call	?YPos@VuEntity@@QBEMXZ			; VuEntity::YPos
	fstp	DWORD PTR tv412[ebp]
	movss	xmm0, DWORD PTR tv412[ebp]
	subss	xmm0, DWORD PTR _myY$[ebp]
	movss	xmm1, DWORD PTR tv459[ebp]
	mulss	xmm1, xmm0
	movss	xmm0, DWORD PTR tv457[ebp]
	addss	xmm0, xmm1
	movss	DWORD PTR _range$[ebp], xmm0

; 1383 : 				retval = theUnit;

	mov	edx, DWORD PTR _theUnit$[ebp]
	mov	DWORD PTR _retval$[ebp], edx

; 1384 : 			}
; 1385 : 			else

	jmp	$LN2@FindNeares
$LN4@FindNeares:

; 1386 : 			{
; 1387 : 				tmpRange = (theUnit->XPos() - myX)*(theUnit->XPos()-myX) +
; 1388 : 					(theUnit->YPos() - myY)*(theUnit->YPos()-myY);

	mov	ecx, DWORD PTR _theUnit$[ebp]
	call	?XPos@VuEntity@@QBEMXZ			; VuEntity::XPos
	fstp	DWORD PTR tv417[ebp]
	movss	xmm0, DWORD PTR tv417[ebp]
	subss	xmm0, DWORD PTR _myX$[ebp]
	mov	ecx, DWORD PTR _theUnit$[ebp]
	movss	DWORD PTR tv461[ebp], xmm0
	call	?XPos@VuEntity@@QBEMXZ			; VuEntity::XPos
	fstp	DWORD PTR tv421[ebp]
	movss	xmm0, DWORD PTR tv421[ebp]
	subss	xmm0, DWORD PTR _myX$[ebp]
	movss	xmm1, DWORD PTR tv461[ebp]
	mulss	xmm1, xmm0
	mov	ecx, DWORD PTR _theUnit$[ebp]
	movss	DWORD PTR tv463[ebp], xmm1
	call	?YPos@VuEntity@@QBEMXZ			; VuEntity::YPos
	fstp	DWORD PTR tv425[ebp]
	movss	xmm0, DWORD PTR tv425[ebp]
	subss	xmm0, DWORD PTR _myY$[ebp]
	mov	ecx, DWORD PTR _theUnit$[ebp]
	movss	DWORD PTR tv465[ebp], xmm0
	call	?YPos@VuEntity@@QBEMXZ			; VuEntity::YPos
	fstp	DWORD PTR tv429[ebp]
	movss	xmm0, DWORD PTR tv429[ebp]
	subss	xmm0, DWORD PTR _myY$[ebp]
	movss	xmm1, DWORD PTR tv465[ebp]
	mulss	xmm1, xmm0
	movss	xmm0, DWORD PTR tv463[ebp]
	addss	xmm0, xmm1
	movss	DWORD PTR _tmpRange$[ebp], xmm0

; 1389 : 
; 1390 : 				if (tmpRange < range)

	movss	xmm0, DWORD PTR _range$[ebp]
	comiss	xmm0, DWORD PTR _tmpRange$[ebp]
	jbe	SHORT $LN2@FindNeares

; 1391 : 				{
; 1392 : 					*x = SimToGrid(theUnit->YPos());

	mov	ecx, DWORD PTR _theUnit$[ebp]
	call	?YPos@VuEntity@@QBEMXZ			; VuEntity::YPos
	push	ecx
	fstp	DWORD PTR [esp]
	call	?SimToGrid@@YAFM@Z			; SimToGrid
	add	esp, 4
	mov	ecx, DWORD PTR _x$[ebp]
	mov	WORD PTR [ecx], ax

; 1393 : 					*y = SimToGrid(theUnit->XPos());

	mov	ecx, DWORD PTR _theUnit$[ebp]
	call	?XPos@VuEntity@@QBEMXZ			; VuEntity::XPos
	push	ecx
	fstp	DWORD PTR [esp]
	call	?SimToGrid@@YAFM@Z			; SimToGrid
	add	esp, 4
	mov	edx, DWORD PTR _y$[ebp]
	mov	WORD PTR [edx], ax

; 1394 : 					range = tmpRange;

	movss	xmm0, DWORD PTR _tmpRange$[ebp]
	movss	DWORD PTR _range$[ebp], xmm0

; 1395 : 					retval = theUnit;

	mov	eax, DWORD PTR _theUnit$[ebp]
	mov	DWORD PTR _retval$[ebp], eax
$LN2@FindNeares:

; 1396 : 				}
; 1397 : 			}
; 1398 : 		}
; 1399 : 		theUnit = (CampBaseClass*)myit.GetNext();

	lea	ecx, DWORD PTR _myit$[ebp]
	call	?GetNext@VuGridIterator@@QAEPAVVuEntity@@XZ ; VuGridIterator::GetNext
	mov	DWORD PTR _theUnit$[ebp], eax

; 1400 : 	}

	jmp	$LN7@FindNeares
$LN6@FindNeares:

; 1401 : 
; 1402 : 	if (retval)

	cmp	DWORD PTR _retval$[ebp], 0
	je	SHORT $LN1@FindNeares

; 1403 : 	{
; 1404 : 		*altitude = -retval->ZPos();

	mov	ecx, DWORD PTR _retval$[ebp]
	call	?ZPos@VuEntity@@QBEMXZ			; VuEntity::ZPos
	fstp	DWORD PTR tv449[ebp]
	movss	xmm0, DWORD PTR tv449[ebp]
	xorps	xmm0, DWORD PTR __xmm@80000000800000008000000080000000
	mov	ecx, DWORD PTR _altitude$[ebp]
	movss	DWORD PTR [ecx], xmm0
$LN1@FindNeares:

; 1405 : 	}
; 1406 : 
; 1407 : 	return (retval);

	mov	edx, DWORD PTR _retval$[ebp]
	mov	DWORD PTR $T2[ebp], edx
	mov	DWORD PTR __$EHRec$[ebp+8], -1
	lea	ecx, DWORD PTR _myit$[ebp]
	call	??1VuGridIterator@@UAE@XZ		; VuGridIterator::~VuGridIterator
	mov	eax, DWORD PTR $T2[ebp]
$LN10@FindNeares:

; 1408 : }

	mov	ecx, DWORD PTR __$EHRec$[ebp]
	mov	DWORD PTR fs:0, ecx
	pop	ecx
	mov	esp, ebp
	pop	ebp
	ret	16					; 00000010H
_TEXT	ENDS
text$x	SEGMENT
__unwindfunclet$?FindNearestCampEnemy@SimulationDriver@@QAEPAVCampBaseClass@@PAVAircraftClass@@PAF1PAM@Z$0:
	lea	ecx, DWORD PTR _myit$[ebp]
	jmp	??1VuGridIterator@@UAE@XZ		; VuGridIterator::~VuGridIterator
__ehhandler$?FindNearestCampEnemy@SimulationDriver@@QAEPAVCampBaseClass@@PAVAircraftClass@@PAF1PAM@Z:
	mov	edx, DWORD PTR [esp+8]
	lea	eax, DWORD PTR [edx+12]
	mov	ecx, DWORD PTR [edx-172]
	xor	ecx, eax
	call	@__security_check_cookie@4
	mov	eax, OFFSET __ehfuncinfo$?FindNearestCampEnemy@SimulationDriver@@QAEPAVCampBaseClass@@PAVAircraftClass@@PAF1PAM@Z
	jmp	___CxxFrameHandler3
text$x	ENDS
?FindNearestCampEnemy@SimulationDriver@@QAEPAVCampBaseClass@@PAVAircraftClass@@PAF1PAM@Z ENDP ; SimulationDriver::FindNearestCampEnemy
; Function compile flags: /Odtp
; File c:\users\zhitao li\documents\visual studio 2012\projects\freefalcon\sim\simdrive\simdrive.cpp
_TEXT	SEGMENT
_myit$ = -180						; size = 60
_myZ$ = -120						; size = 4
$T2 = -116						; size = 4
tv418 = -112						; size = 4
tv459 = -108						; size = 4
tv469 = -104						; size = 4
tv473 = -100						; size = 4
tv414 = -96						; size = 4
tv475 = -92						; size = 4
tv467 = -88						; size = 4
tv439 = -84						; size = 4
tv422 = -80						; size = 4
tv435 = -76						; size = 4
_this$ = -72						; size = 4
tv471 = -68						; size = 4
tv410 = -64						; size = 4
tv431 = -60						; size = 4
tv427 = -56						; size = 4
tv465 = -52						; size = 4
tv92 = -48						; size = 4
tv78 = -44						; size = 4
_range$ = -40						; size = 4
_tmpRange$ = -36					; size = 4
_myX$ = -32						; size = 4
_myY$ = -28						; size = 4
_retval$ = -24						; size = 4
_myTeam$ = -17						; size = 1
_theUnit$ = -16						; size = 4
__$EHRec$ = -12						; size = 12
_aircraft$ = 8						; size = 4
_x$ = 12						; size = 4
_y$ = 16						; size = 4
_altitude$ = 20						; size = 4
?FindNearestCampThreat@SimulationDriver@@QAEPAVCampBaseClass@@PAVAircraftClass@@PAF1PAM@Z PROC ; SimulationDriver::FindNearestCampThreat
; _this$ = ecx

; 1273 : {

	push	ebp
	mov	ebp, esp
	push	-1
	push	__ehhandler$?FindNearestCampThreat@SimulationDriver@@QAEPAVCampBaseClass@@PAVAircraftClass@@PAF1PAM@Z
	mov	eax, DWORD PTR fs:0
	push	eax
	sub	esp, 168				; 000000a8H
	mov	eax, DWORD PTR ___security_cookie
	xor	eax, ebp
	push	eax
	lea	eax, DWORD PTR __$EHRec$[ebp]
	mov	DWORD PTR fs:0, eax
	mov	DWORD PTR _this$[ebp], ecx

; 1274 : 	CampBaseClass* retval = NULL;

	mov	DWORD PTR _retval$[ebp], 0

; 1275 : 	CampBaseClass* theUnit=NULL;

	mov	DWORD PTR _theUnit$[ebp], 0

; 1276 : 
; 1277 : 	float myX=0.0F, myY=0.0F, myZ=0.0F;

	movss	xmm0, DWORD PTR __real@00000000
	movss	DWORD PTR _myX$[ebp], xmm0
	movss	xmm0, DWORD PTR __real@00000000
	movss	DWORD PTR _myY$[ebp], xmm0
	movss	xmm0, DWORD PTR __real@00000000
	movss	DWORD PTR _myZ$[ebp], xmm0

; 1278 : 	float tmpRange=0.0F,range=0.0F;

	movss	xmm0, DWORD PTR __real@00000000
	movss	DWORD PTR _tmpRange$[ebp], xmm0
	movss	xmm0, DWORD PTR __real@00000000
	movss	DWORD PTR _range$[ebp], xmm0

; 1279 : 	Team myTeam=0;

	mov	BYTE PTR _myTeam$[ebp], 0

; 1280 : 
; 1281 : 	if (!playerEntity)

	mov	eax, DWORD PTR _this$[ebp]
	cmp	DWORD PTR [eax+56], 0
	jne	SHORT $LN11@FindNeares

; 1282 : 		return NULL;

	xor	eax, eax
	jmp	$LN12@FindNeares
$LN11@FindNeares:

; 1283 : 
; 1284 : 	// Don't look for campaign threats in dogfight. Everything is deaggregated anyway, and
; 1285 : 	// this often finds people who havn't entered the sim yet.
; 1286 : 	if (FalconLocalGame && FalconLocalGame->GetGameType() == game_Dogfight){

	mov	ecx, OFFSET ?vuLocalSessionEntity@@3V?$VuBin@VVuSessionEntity@@@@A ; vuLocalSessionEntity
	call	??B?$VuBin@VVuSessionEntity@@@@QBE_NXZ	; VuBin<VuSessionEntity>::operator bool
	movzx	ecx, al
	test	ecx, ecx
	je	SHORT $LN14@FindNeares
	mov	ecx, OFFSET ?vuLocalSessionEntity@@3V?$VuBin@VVuSessionEntity@@@@A ; vuLocalSessionEntity
	call	?get@?$VuBin@VVuSessionEntity@@@@QBEPAVVuSessionEntity@@XZ ; VuBin<VuSessionEntity>::get
	mov	ecx, eax
	call	?GetGame@FalconSessionEntity@@QAEPAVFalconGameEntity@@XZ ; FalconSessionEntity::GetGame
	mov	DWORD PTR tv78[ebp], eax
	jmp	SHORT $LN15@FindNeares
$LN14@FindNeares:
	mov	DWORD PTR tv78[ebp], 0
$LN15@FindNeares:
	cmp	DWORD PTR tv78[ebp], 0
	je	SHORT $LN10@FindNeares
	mov	ecx, OFFSET ?vuLocalSessionEntity@@3V?$VuBin@VVuSessionEntity@@@@A ; vuLocalSessionEntity
	call	??B?$VuBin@VVuSessionEntity@@@@QBE_NXZ	; VuBin<VuSessionEntity>::operator bool
	movzx	edx, al
	test	edx, edx
	je	SHORT $LN16@FindNeares
	mov	ecx, OFFSET ?vuLocalSessionEntity@@3V?$VuBin@VVuSessionEntity@@@@A ; vuLocalSessionEntity
	call	?get@?$VuBin@VVuSessionEntity@@@@QBEPAVVuSessionEntity@@XZ ; VuBin<VuSessionEntity>::get
	mov	ecx, eax
	call	?GetGame@FalconSessionEntity@@QAEPAVFalconGameEntity@@XZ ; FalconSessionEntity::GetGame
	mov	DWORD PTR tv92[ebp], eax
	jmp	SHORT $LN17@FindNeares
$LN16@FindNeares:
	mov	DWORD PTR tv92[ebp], 0
$LN17@FindNeares:
	mov	ecx, DWORD PTR tv92[ebp]
	call	?GetGameType@FalconGameEntity@@QAE?AW4FalconGameType@@XZ ; FalconGameEntity::GetGameType
	cmp	eax, 2
	jne	SHORT $LN10@FindNeares

; 1287 : 		return NULL;

	xor	eax, eax
	jmp	$LN12@FindNeares
$LN10@FindNeares:

; 1288 : 	}
; 1289 : 
; 1290 : 	myX = aircraft->XPos();

	mov	ecx, DWORD PTR _aircraft$[ebp]
	call	?XPos@VuEntity@@QBEMXZ			; VuEntity::XPos
	fstp	DWORD PTR _myX$[ebp]

; 1291 : 	myY = aircraft->YPos();

	mov	ecx, DWORD PTR _aircraft$[ebp]
	call	?YPos@VuEntity@@QBEMXZ			; VuEntity::YPos
	fstp	DWORD PTR _myY$[ebp]

; 1292 : 	myZ = aircraft->ZPos();

	mov	ecx, DWORD PTR _aircraft$[ebp]
	call	?ZPos@VuEntity@@QBEMXZ			; VuEntity::ZPos
	fstp	DWORD PTR _myZ$[ebp]

; 1293 : 	myTeam = (Team)aircraft->GetTeam();

	mov	eax, DWORD PTR _aircraft$[ebp]
	mov	edx, DWORD PTR [eax]
	mov	ecx, DWORD PTR _aircraft$[ebp]
	mov	eax, DWORD PTR [edx+116]
	call	eax
	mov	BYTE PTR _myTeam$[ebp], al

; 1294 : 
; 1295 : #ifndef VU_GRID_TREE_Y_MAJOR
; 1296 : 	VuGridIterator	myit(RealUnitProxList,(BIG_SCALAR)myX,(BIG_SCALAR)myY,(BIG_SCALAR)GridToSim(100));
; 1297 : #else
; 1298 : 	VuGridIterator	myit(RealUnitProxList,(BIG_SCALAR)myY,(BIG_SCALAR)myX,(BIG_SCALAR)GridToSim(100));

	push	100					; 00000064H
	call	?GridToSim@@YAMF@Z			; GridToSim
	fstp	DWORD PTR [esp]
	push	ecx
	movss	xmm0, DWORD PTR _myX$[ebp]
	movss	DWORD PTR [esp], xmm0
	push	ecx
	movss	xmm0, DWORD PTR _myY$[ebp]
	movss	DWORD PTR [esp], xmm0
	mov	ecx, DWORD PTR ?RealUnitProxList@@3PAVVuGridTree@@A ; RealUnitProxList
	push	ecx
	lea	ecx, DWORD PTR _myit$[ebp]
	call	??0VuGridIterator@@QAE@PAVVuGridTree@@MMM@Z ; VuGridIterator::VuGridIterator
	mov	DWORD PTR __$EHRec$[ebp+8], 0

; 1299 : #endif
; 1300 : 
; 1301 : 	theUnit = (CampBaseClass*)myit.GetFirst();

	lea	ecx, DWORD PTR _myit$[ebp]
	call	?GetFirst@VuGridIterator@@QAEPAVVuEntity@@XZ ; VuGridIterator::GetFirst
	mov	DWORD PTR _theUnit$[ebp], eax
$LN9@FindNeares:

; 1302 : 	while (theUnit)

	cmp	DWORD PTR _theUnit$[ebp], 0
	je	$LN8@FindNeares

; 1303 : 	{
; 1304 : 		if (theUnit->IsFlight() && !theUnit->IsDead() && GetTTRelations((Team)theUnit->GetTeam(), myTeam) >= Hostile && theUnit->GetSpotted(myTeam))

	mov	edx, DWORD PTR _theUnit$[ebp]
	mov	eax, DWORD PTR [edx]
	mov	ecx, DWORD PTR _theUnit$[ebp]
	mov	edx, DWORD PTR [eax+248]
	call	edx
	test	eax, eax
	je	$LN2@FindNeares
	mov	eax, DWORD PTR _theUnit$[ebp]
	mov	edx, DWORD PTR [eax]
	mov	ecx, DWORD PTR _theUnit$[ebp]
	mov	eax, DWORD PTR [edx+212]
	call	eax
	test	eax, eax
	jne	$LN2@FindNeares
	movzx	ecx, BYTE PTR _myTeam$[ebp]
	push	ecx
	mov	edx, DWORD PTR _theUnit$[ebp]
	mov	eax, DWORD PTR [edx]
	mov	ecx, DWORD PTR _theUnit$[ebp]
	mov	edx, DWORD PTR [eax+116]
	call	edx
	movzx	eax, al
	push	eax
	call	?GetTTRelations@@YAHEE@Z		; GetTTRelations
	add	esp, 8
	cmp	eax, 4
	jl	$LN2@FindNeares
	movzx	ecx, BYTE PTR _myTeam$[ebp]
	push	ecx
	mov	ecx, DWORD PTR _theUnit$[ebp]
	call	?GetSpotted@CampBaseClass@@QAEHE@Z	; CampBaseClass::GetSpotted
	test	eax, eax
	je	$LN2@FindNeares

; 1305 : 		{
; 1306 : 			if(	theUnit->GetSType() == STYPE_UNIT_FIGHTER ||
; 1307 : 					theUnit->GetSType() == STYPE_UNIT_FIGHTER_BOMBER )

	mov	ecx, DWORD PTR _theUnit$[ebp]
	call	?GetSType@CampBaseClass@@QBEEXZ		; CampBaseClass::GetSType
	movzx	edx, al
	cmp	edx, 8
	je	SHORT $LN5@FindNeares
	mov	ecx, DWORD PTR _theUnit$[ebp]
	call	?GetSType@CampBaseClass@@QBEEXZ		; CampBaseClass::GetSType
	movzx	eax, al
	cmp	eax, 9
	jne	$LN2@FindNeares
$LN5@FindNeares:

; 1308 : 			{
; 1309 : 				if (retval == NULL)

	cmp	DWORD PTR _retval$[ebp], 0
	jne	$LN4@FindNeares

; 1310 : 				{
; 1311 : 					*x = SimToGrid(theUnit->YPos());

	mov	ecx, DWORD PTR _theUnit$[ebp]
	call	?YPos@VuEntity@@QBEMXZ			; VuEntity::YPos
	push	ecx
	fstp	DWORD PTR [esp]
	call	?SimToGrid@@YAFM@Z			; SimToGrid
	add	esp, 4
	mov	ecx, DWORD PTR _x$[ebp]
	mov	WORD PTR [ecx], ax

; 1312 : 					*y = SimToGrid(theUnit->XPos());

	mov	ecx, DWORD PTR _theUnit$[ebp]
	call	?XPos@VuEntity@@QBEMXZ			; VuEntity::XPos
	push	ecx
	fstp	DWORD PTR [esp]
	call	?SimToGrid@@YAFM@Z			; SimToGrid
	add	esp, 4
	mov	edx, DWORD PTR _y$[ebp]
	mov	WORD PTR [edx], ax

; 1313 : 					range = (theUnit->XPos() - myX)*(theUnit->XPos()-myX) +
; 1314 : 						(theUnit->YPos() - myY)*(theUnit->YPos()-myY);

	mov	ecx, DWORD PTR _theUnit$[ebp]
	call	?XPos@VuEntity@@QBEMXZ			; VuEntity::XPos
	fstp	DWORD PTR tv410[ebp]
	movss	xmm0, DWORD PTR tv410[ebp]
	subss	xmm0, DWORD PTR _myX$[ebp]
	mov	ecx, DWORD PTR _theUnit$[ebp]
	movss	DWORD PTR tv465[ebp], xmm0
	call	?XPos@VuEntity@@QBEMXZ			; VuEntity::XPos
	fstp	DWORD PTR tv414[ebp]
	movss	xmm0, DWORD PTR tv414[ebp]
	subss	xmm0, DWORD PTR _myX$[ebp]
	movss	xmm1, DWORD PTR tv465[ebp]
	mulss	xmm1, xmm0
	mov	ecx, DWORD PTR _theUnit$[ebp]
	movss	DWORD PTR tv467[ebp], xmm1
	call	?YPos@VuEntity@@QBEMXZ			; VuEntity::YPos
	fstp	DWORD PTR tv418[ebp]
	movss	xmm0, DWORD PTR tv418[ebp]
	subss	xmm0, DWORD PTR _myY$[ebp]
	mov	ecx, DWORD PTR _theUnit$[ebp]
	movss	DWORD PTR tv469[ebp], xmm0
	call	?YPos@VuEntity@@QBEMXZ			; VuEntity::YPos
	fstp	DWORD PTR tv422[ebp]
	movss	xmm0, DWORD PTR tv422[ebp]
	subss	xmm0, DWORD PTR _myY$[ebp]
	movss	xmm1, DWORD PTR tv469[ebp]
	mulss	xmm1, xmm0
	movss	xmm0, DWORD PTR tv467[ebp]
	addss	xmm0, xmm1
	movss	DWORD PTR _range$[ebp], xmm0

; 1315 : 					retval = theUnit;

	mov	eax, DWORD PTR _theUnit$[ebp]
	mov	DWORD PTR _retval$[ebp], eax

; 1316 : 				}
; 1317 : 				else

	jmp	$LN2@FindNeares
$LN4@FindNeares:

; 1318 : 				{
; 1319 : 					tmpRange = (theUnit->XPos() - myX)*(theUnit->XPos()-myX) +
; 1320 : 						(theUnit->YPos() - myY)*(theUnit->YPos()-myY);

	mov	ecx, DWORD PTR _theUnit$[ebp]
	call	?XPos@VuEntity@@QBEMXZ			; VuEntity::XPos
	fstp	DWORD PTR tv427[ebp]
	movss	xmm0, DWORD PTR tv427[ebp]
	subss	xmm0, DWORD PTR _myX$[ebp]
	mov	ecx, DWORD PTR _theUnit$[ebp]
	movss	DWORD PTR tv471[ebp], xmm0
	call	?XPos@VuEntity@@QBEMXZ			; VuEntity::XPos
	fstp	DWORD PTR tv431[ebp]
	movss	xmm0, DWORD PTR tv431[ebp]
	subss	xmm0, DWORD PTR _myX$[ebp]
	movss	xmm1, DWORD PTR tv471[ebp]
	mulss	xmm1, xmm0
	mov	ecx, DWORD PTR _theUnit$[ebp]
	movss	DWORD PTR tv473[ebp], xmm1
	call	?YPos@VuEntity@@QBEMXZ			; VuEntity::YPos
	fstp	DWORD PTR tv435[ebp]
	movss	xmm0, DWORD PTR tv435[ebp]
	subss	xmm0, DWORD PTR _myY$[ebp]
	mov	ecx, DWORD PTR _theUnit$[ebp]
	movss	DWORD PTR tv475[ebp], xmm0
	call	?YPos@VuEntity@@QBEMXZ			; VuEntity::YPos
	fstp	DWORD PTR tv439[ebp]
	movss	xmm0, DWORD PTR tv439[ebp]
	subss	xmm0, DWORD PTR _myY$[ebp]
	movss	xmm1, DWORD PTR tv475[ebp]
	mulss	xmm1, xmm0
	movss	xmm0, DWORD PTR tv473[ebp]
	addss	xmm0, xmm1
	movss	DWORD PTR _tmpRange$[ebp], xmm0

; 1321 : 
; 1322 : 					if (tmpRange < range)

	movss	xmm0, DWORD PTR _range$[ebp]
	comiss	xmm0, DWORD PTR _tmpRange$[ebp]
	jbe	SHORT $LN2@FindNeares

; 1323 : 					{
; 1324 : 						*x = SimToGrid(theUnit->YPos());

	mov	ecx, DWORD PTR _theUnit$[ebp]
	call	?YPos@VuEntity@@QBEMXZ			; VuEntity::YPos
	push	ecx
	fstp	DWORD PTR [esp]
	call	?SimToGrid@@YAFM@Z			; SimToGrid
	add	esp, 4
	mov	ecx, DWORD PTR _x$[ebp]
	mov	WORD PTR [ecx], ax

; 1325 : 						*y = SimToGrid(theUnit->XPos());

	mov	ecx, DWORD PTR _theUnit$[ebp]
	call	?XPos@VuEntity@@QBEMXZ			; VuEntity::XPos
	push	ecx
	fstp	DWORD PTR [esp]
	call	?SimToGrid@@YAFM@Z			; SimToGrid
	add	esp, 4
	mov	edx, DWORD PTR _y$[ebp]
	mov	WORD PTR [edx], ax

; 1326 : 						range = tmpRange;

	movss	xmm0, DWORD PTR _tmpRange$[ebp]
	movss	DWORD PTR _range$[ebp], xmm0

; 1327 : 						retval = theUnit;

	mov	eax, DWORD PTR _theUnit$[ebp]
	mov	DWORD PTR _retval$[ebp], eax
$LN2@FindNeares:

; 1328 : 					}
; 1329 : 				}
; 1330 : 			}
; 1331 : 		}
; 1332 : 		theUnit = (CampBaseClass*)myit.GetNext();

	lea	ecx, DWORD PTR _myit$[ebp]
	call	?GetNext@VuGridIterator@@QAEPAVVuEntity@@XZ ; VuGridIterator::GetNext
	mov	DWORD PTR _theUnit$[ebp], eax

; 1333 : 	}

	jmp	$LN9@FindNeares
$LN8@FindNeares:

; 1334 : 
; 1335 : 	if (retval)

	cmp	DWORD PTR _retval$[ebp], 0
	je	SHORT $LN1@FindNeares

; 1336 : 	{
; 1337 : 		*altitude = -retval->ZPos();

	mov	ecx, DWORD PTR _retval$[ebp]
	call	?ZPos@VuEntity@@QBEMXZ			; VuEntity::ZPos
	fstp	DWORD PTR tv459[ebp]
	movss	xmm0, DWORD PTR tv459[ebp]
	xorps	xmm0, DWORD PTR __xmm@80000000800000008000000080000000
	mov	ecx, DWORD PTR _altitude$[ebp]
	movss	DWORD PTR [ecx], xmm0
$LN1@FindNeares:

; 1338 : 	}
; 1339 : 
; 1340 : 	return (retval);

	mov	edx, DWORD PTR _retval$[ebp]
	mov	DWORD PTR $T2[ebp], edx
	mov	DWORD PTR __$EHRec$[ebp+8], -1
	lea	ecx, DWORD PTR _myit$[ebp]
	call	??1VuGridIterator@@UAE@XZ		; VuGridIterator::~VuGridIterator
	mov	eax, DWORD PTR $T2[ebp]
$LN12@FindNeares:

; 1341 : }

	mov	ecx, DWORD PTR __$EHRec$[ebp]
	mov	DWORD PTR fs:0, ecx
	pop	ecx
	mov	esp, ebp
	pop	ebp
	ret	16					; 00000010H
_TEXT	ENDS
text$x	SEGMENT
__unwindfunclet$?FindNearestCampThreat@SimulationDriver@@QAEPAVCampBaseClass@@PAVAircraftClass@@PAF1PAM@Z$0:
	lea	ecx, DWORD PTR _myit$[ebp]
	jmp	??1VuGridIterator@@UAE@XZ		; VuGridIterator::~VuGridIterator
__ehhandler$?FindNearestCampThreat@SimulationDriver@@QAEPAVCampBaseClass@@PAVAircraftClass@@PAF1PAM@Z:
	mov	edx, DWORD PTR [esp+8]
	lea	eax, DWORD PTR [edx+12]
	mov	ecx, DWORD PTR [edx-172]
	xor	ecx, eax
	call	@__security_check_cookie@4
	mov	eax, OFFSET __ehfuncinfo$?FindNearestCampThreat@SimulationDriver@@QAEPAVCampBaseClass@@PAVAircraftClass@@PAF1PAM@Z
	jmp	___CxxFrameHandler3
text$x	ENDS
?FindNearestCampThreat@SimulationDriver@@QAEPAVCampBaseClass@@PAVAircraftClass@@PAF1PAM@Z ENDP ; SimulationDriver::FindNearestCampThreat
; Function compile flags: /Odtp
; File c:\users\zhitao li\documents\visual studio 2012\projects\freefalcon\sim\simdrive\simdrive.cpp
_TEXT	SEGMENT
_updateWalker$ = -128					; size = 12
$T2 = -116						; size = 4
tv417 = -112						; size = 4
tv431 = -108						; size = 4
tv433 = -104						; size = 4
tv397 = -100						; size = 4
tv393 = -96						; size = 4
tv429 = -92						; size = 4
tv389 = -88						; size = 4
tv385 = -84						; size = 4
tv425 = -80						; size = 4
tv427 = -76						; size = 4
tv380 = -72						; size = 4
tv376 = -68						; size = 4
tv423 = -64						; size = 4
tv372 = -60						; size = 4
tv368 = -56						; size = 4
_myZ$ = -52						; size = 4
$T3 = -48						; size = 4
_this$ = -44						; size = 4
_range$ = -40						; size = 4
_tmpRange$ = -36					; size = 4
_myY$ = -32						; size = 4
_myX$ = -28						; size = 4
_retval$ = -24						; size = 4
_theObject$ = -20					; size = 4
_myTeam$ = -13						; size = 1
__$EHRec$ = -12						; size = 12
_aircraft$ = 8						; size = 4
_x$ = 12						; size = 4
_y$ = 16						; size = 4
_altitude$ = 20						; size = 4
?FindNearestEnemyPlane@SimulationDriver@@QAEPAVSimBaseClass@@PAVAircraftClass@@PAF1PAM@Z PROC ; SimulationDriver::FindNearestEnemyPlane
; _this$ = ecx

; 1217 : {

	push	ebp
	mov	ebp, esp
	push	-1
	push	__ehhandler$?FindNearestEnemyPlane@SimulationDriver@@QAEPAVSimBaseClass@@PAVAircraftClass@@PAF1PAM@Z
	mov	eax, DWORD PTR fs:0
	push	eax
	sub	esp, 116				; 00000074H
	mov	eax, DWORD PTR ___security_cookie
	xor	eax, ebp
	push	eax
	lea	eax, DWORD PTR __$EHRec$[ebp]
	mov	DWORD PTR fs:0, eax
	mov	DWORD PTR _this$[ebp], ecx

; 1218 : 	SimBaseClass* retval = NULL;

	mov	DWORD PTR _retval$[ebp], 0

; 1219 : 	SimBaseClass* theObject=NULL;

	mov	DWORD PTR _theObject$[ebp], 0

; 1220 : 	VuListIterator updateWalker (objectList);

	mov	eax, DWORD PTR _this$[ebp]
	mov	ecx, DWORD PTR [eax]
	push	ecx
	lea	ecx, DWORD PTR _updateWalker$[ebp]
	call	??0VuListIterator@@QAE@PAVVuLinkedList@@@Z ; VuListIterator::VuListIterator
	mov	DWORD PTR __$EHRec$[ebp+8], 0

; 1221 : 	float myX=0.0F, myY=0.0F, myZ=0.0F;

	movss	xmm0, DWORD PTR __real@00000000
	movss	DWORD PTR _myX$[ebp], xmm0
	movss	xmm0, DWORD PTR __real@00000000
	movss	DWORD PTR _myY$[ebp], xmm0
	movss	xmm0, DWORD PTR __real@00000000
	movss	DWORD PTR _myZ$[ebp], xmm0

; 1222 : 	float tmpRange=0.0F,range=0.0F;

	movss	xmm0, DWORD PTR __real@00000000
	movss	DWORD PTR _tmpRange$[ebp], xmm0
	movss	xmm0, DWORD PTR __real@00000000
	movss	DWORD PTR _range$[ebp], xmm0

; 1223 : 	Team myTeam=0;

	mov	BYTE PTR _myTeam$[ebp], 0

; 1224 : 
; 1225 : 	if (!playerEntity)

	mov	edx, DWORD PTR _this$[ebp]
	cmp	DWORD PTR [edx+56], 0
	jne	SHORT $LN8@FindNeares

; 1226 : 		return NULL;

	mov	DWORD PTR $T3[ebp], 0
	mov	DWORD PTR __$EHRec$[ebp+8], -1
	lea	ecx, DWORD PTR _updateWalker$[ebp]
	call	??1VuListIterator@@UAE@XZ		; VuListIterator::~VuListIterator
	mov	eax, DWORD PTR $T3[ebp]
	jmp	$LN9@FindNeares
$LN8@FindNeares:

; 1227 : 
; 1228 : 	myX = aircraft->XPos();

	mov	ecx, DWORD PTR _aircraft$[ebp]
	call	?XPos@VuEntity@@QBEMXZ			; VuEntity::XPos
	fstp	DWORD PTR _myX$[ebp]

; 1229 : 	myY = aircraft->YPos();

	mov	ecx, DWORD PTR _aircraft$[ebp]
	call	?YPos@VuEntity@@QBEMXZ			; VuEntity::YPos
	fstp	DWORD PTR _myY$[ebp]

; 1230 : 	myZ = aircraft->ZPos();

	mov	ecx, DWORD PTR _aircraft$[ebp]
	call	?ZPos@VuEntity@@QBEMXZ			; VuEntity::ZPos
	fstp	DWORD PTR _myZ$[ebp]

; 1231 : 	myTeam = aircraft->GetTeam();

	mov	eax, DWORD PTR _aircraft$[ebp]
	mov	edx, DWORD PTR [eax]
	mov	ecx, DWORD PTR _aircraft$[ebp]
	mov	eax, DWORD PTR [edx+116]
	call	eax
	mov	BYTE PTR _myTeam$[ebp], al

; 1232 : 
; 1233 : 	theObject = (SimBaseClass*)updateWalker.GetFirst();

	lea	ecx, DWORD PTR _updateWalker$[ebp]
	call	?GetFirst@VuListIterator@@QAEPAVVuEntity@@XZ ; VuListIterator::GetFirst
	mov	DWORD PTR _theObject$[ebp], eax
$LN7@FindNeares:

; 1234 : 	while (theObject)

	cmp	DWORD PTR _theObject$[ebp], 0
	je	$LN6@FindNeares

; 1235 : 	{
; 1236 : 		if (	theObject->IsAirplane() && !theObject->IsDead() && !theObject->OnGround() && 
; 1237 : 				GetTTRelations((Team)theObject->GetTeam(), myTeam) >= Hostile && theObject->GetCampaignObject()->GetSpotted(myTeam))

	mov	ecx, DWORD PTR _theObject$[ebp]
	mov	edx, DWORD PTR [ecx]
	mov	ecx, DWORD PTR _theObject$[ebp]
	mov	eax, DWORD PTR [edx+192]
	call	eax
	test	eax, eax
	je	$LN2@FindNeares
	mov	ecx, DWORD PTR _theObject$[ebp]
	mov	edx, DWORD PTR [ecx]
	mov	ecx, DWORD PTR _theObject$[ebp]
	mov	eax, DWORD PTR [edx+340]
	call	eax
	test	eax, eax
	jne	$LN2@FindNeares
	mov	ecx, DWORD PTR _theObject$[ebp]
	mov	edx, DWORD PTR [ecx]
	mov	ecx, DWORD PTR _theObject$[ebp]
	mov	eax, DWORD PTR [edx+148]
	call	eax
	test	eax, eax
	jne	$LN2@FindNeares
	movzx	ecx, BYTE PTR _myTeam$[ebp]
	push	ecx
	mov	edx, DWORD PTR _theObject$[ebp]
	mov	eax, DWORD PTR [edx]
	mov	ecx, DWORD PTR _theObject$[ebp]
	mov	edx, DWORD PTR [eax+116]
	call	edx
	movzx	eax, al
	push	eax
	call	?GetTTRelations@@YAHEE@Z		; GetTTRelations
	add	esp, 8
	cmp	eax, 4
	jl	$LN2@FindNeares
	movzx	ecx, BYTE PTR _myTeam$[ebp]
	push	ecx
	mov	ecx, DWORD PTR _theObject$[ebp]
	call	?GetCampaignObject@SimBaseClass@@QAEPAVCampBaseClass@@XZ ; SimBaseClass::GetCampaignObject
	mov	ecx, eax
	call	?GetSpotted@CampBaseClass@@QAEHE@Z	; CampBaseClass::GetSpotted
	test	eax, eax
	je	$LN2@FindNeares

; 1238 : 		{
; 1239 : 			if (retval == NULL)

	cmp	DWORD PTR _retval$[ebp], 0
	jne	$LN4@FindNeares

; 1240 : 			{
; 1241 : 				*x = SimToGrid(theObject->YPos());

	mov	ecx, DWORD PTR _theObject$[ebp]
	call	?YPos@VuEntity@@QBEMXZ			; VuEntity::YPos
	push	ecx
	fstp	DWORD PTR [esp]
	call	?SimToGrid@@YAFM@Z			; SimToGrid
	add	esp, 4
	mov	edx, DWORD PTR _x$[ebp]
	mov	WORD PTR [edx], ax

; 1242 : 				*y = SimToGrid(theObject->XPos());

	mov	ecx, DWORD PTR _theObject$[ebp]
	call	?XPos@VuEntity@@QBEMXZ			; VuEntity::XPos
	push	ecx
	fstp	DWORD PTR [esp]
	call	?SimToGrid@@YAFM@Z			; SimToGrid
	add	esp, 4
	mov	ecx, DWORD PTR _y$[ebp]
	mov	WORD PTR [ecx], ax

; 1243 : 				range = (theObject->XPos() - myX)*(theObject->XPos()-myX) +
; 1244 : 					(theObject->YPos() - myY)*(theObject->YPos()-myY);

	mov	ecx, DWORD PTR _theObject$[ebp]
	call	?XPos@VuEntity@@QBEMXZ			; VuEntity::XPos
	fstp	DWORD PTR tv368[ebp]
	movss	xmm0, DWORD PTR tv368[ebp]
	subss	xmm0, DWORD PTR _myX$[ebp]
	mov	ecx, DWORD PTR _theObject$[ebp]
	movss	DWORD PTR tv423[ebp], xmm0
	call	?XPos@VuEntity@@QBEMXZ			; VuEntity::XPos
	fstp	DWORD PTR tv372[ebp]
	movss	xmm0, DWORD PTR tv372[ebp]
	subss	xmm0, DWORD PTR _myX$[ebp]
	movss	xmm1, DWORD PTR tv423[ebp]
	mulss	xmm1, xmm0
	mov	ecx, DWORD PTR _theObject$[ebp]
	movss	DWORD PTR tv425[ebp], xmm1
	call	?YPos@VuEntity@@QBEMXZ			; VuEntity::YPos
	fstp	DWORD PTR tv376[ebp]
	movss	xmm0, DWORD PTR tv376[ebp]
	subss	xmm0, DWORD PTR _myY$[ebp]
	mov	ecx, DWORD PTR _theObject$[ebp]
	movss	DWORD PTR tv427[ebp], xmm0
	call	?YPos@VuEntity@@QBEMXZ			; VuEntity::YPos
	fstp	DWORD PTR tv380[ebp]
	movss	xmm0, DWORD PTR tv380[ebp]
	subss	xmm0, DWORD PTR _myY$[ebp]
	movss	xmm1, DWORD PTR tv427[ebp]
	mulss	xmm1, xmm0
	movss	xmm0, DWORD PTR tv425[ebp]
	addss	xmm0, xmm1
	movss	DWORD PTR _range$[ebp], xmm0

; 1245 : 				retval = theObject;

	mov	edx, DWORD PTR _theObject$[ebp]
	mov	DWORD PTR _retval$[ebp], edx

; 1246 : 			}
; 1247 : 			else

	jmp	$LN2@FindNeares
$LN4@FindNeares:

; 1248 : 			{
; 1249 : 				tmpRange = (theObject->XPos() - myX)*(theObject->XPos()-myX) +
; 1250 : 					(theObject->YPos() - myY)*(theObject->YPos()-myY);

	mov	ecx, DWORD PTR _theObject$[ebp]
	call	?XPos@VuEntity@@QBEMXZ			; VuEntity::XPos
	fstp	DWORD PTR tv385[ebp]
	movss	xmm0, DWORD PTR tv385[ebp]
	subss	xmm0, DWORD PTR _myX$[ebp]
	mov	ecx, DWORD PTR _theObject$[ebp]
	movss	DWORD PTR tv429[ebp], xmm0
	call	?XPos@VuEntity@@QBEMXZ			; VuEntity::XPos
	fstp	DWORD PTR tv389[ebp]
	movss	xmm0, DWORD PTR tv389[ebp]
	subss	xmm0, DWORD PTR _myX$[ebp]
	movss	xmm1, DWORD PTR tv429[ebp]
	mulss	xmm1, xmm0
	mov	ecx, DWORD PTR _theObject$[ebp]
	movss	DWORD PTR tv431[ebp], xmm1
	call	?YPos@VuEntity@@QBEMXZ			; VuEntity::YPos
	fstp	DWORD PTR tv393[ebp]
	movss	xmm0, DWORD PTR tv393[ebp]
	subss	xmm0, DWORD PTR _myY$[ebp]
	mov	ecx, DWORD PTR _theObject$[ebp]
	movss	DWORD PTR tv433[ebp], xmm0
	call	?YPos@VuEntity@@QBEMXZ			; VuEntity::YPos
	fstp	DWORD PTR tv397[ebp]
	movss	xmm0, DWORD PTR tv397[ebp]
	subss	xmm0, DWORD PTR _myY$[ebp]
	movss	xmm1, DWORD PTR tv433[ebp]
	mulss	xmm1, xmm0
	movss	xmm0, DWORD PTR tv431[ebp]
	addss	xmm0, xmm1
	movss	DWORD PTR _tmpRange$[ebp], xmm0

; 1251 : 
; 1252 : 				if (tmpRange < range)

	movss	xmm0, DWORD PTR _range$[ebp]
	comiss	xmm0, DWORD PTR _tmpRange$[ebp]
	jbe	SHORT $LN2@FindNeares

; 1253 : 				{
; 1254 : 					*x = SimToGrid(theObject->YPos());

	mov	ecx, DWORD PTR _theObject$[ebp]
	call	?YPos@VuEntity@@QBEMXZ			; VuEntity::YPos
	push	ecx
	fstp	DWORD PTR [esp]
	call	?SimToGrid@@YAFM@Z			; SimToGrid
	add	esp, 4
	mov	ecx, DWORD PTR _x$[ebp]
	mov	WORD PTR [ecx], ax

; 1255 : 					*y = SimToGrid(theObject->XPos());

	mov	ecx, DWORD PTR _theObject$[ebp]
	call	?XPos@VuEntity@@QBEMXZ			; VuEntity::XPos
	push	ecx
	fstp	DWORD PTR [esp]
	call	?SimToGrid@@YAFM@Z			; SimToGrid
	add	esp, 4
	mov	edx, DWORD PTR _y$[ebp]
	mov	WORD PTR [edx], ax

; 1256 : 					range = tmpRange;

	movss	xmm0, DWORD PTR _tmpRange$[ebp]
	movss	DWORD PTR _range$[ebp], xmm0

; 1257 : 					retval = theObject;

	mov	eax, DWORD PTR _theObject$[ebp]
	mov	DWORD PTR _retval$[ebp], eax
$LN2@FindNeares:

; 1258 : 				}
; 1259 : 			}
; 1260 : 		}
; 1261 : 		theObject = (SimBaseClass*)updateWalker.GetNext();

	lea	ecx, DWORD PTR _updateWalker$[ebp]
	call	?GetNext@VuListIterator@@QAEPAVVuEntity@@XZ ; VuListIterator::GetNext
	mov	DWORD PTR _theObject$[ebp], eax

; 1262 : 	}

	jmp	$LN7@FindNeares
$LN6@FindNeares:

; 1263 : 
; 1264 : 	if (retval)

	cmp	DWORD PTR _retval$[ebp], 0
	je	SHORT $LN1@FindNeares

; 1265 : 	{
; 1266 : 		*altitude = -retval->ZPos();

	mov	ecx, DWORD PTR _retval$[ebp]
	call	?ZPos@VuEntity@@QBEMXZ			; VuEntity::ZPos
	fstp	DWORD PTR tv417[ebp]
	movss	xmm0, DWORD PTR tv417[ebp]
	xorps	xmm0, DWORD PTR __xmm@80000000800000008000000080000000
	mov	ecx, DWORD PTR _altitude$[ebp]
	movss	DWORD PTR [ecx], xmm0
$LN1@FindNeares:

; 1267 : 	}
; 1268 : 
; 1269 : 	return (retval);

	mov	edx, DWORD PTR _retval$[ebp]
	mov	DWORD PTR $T2[ebp], edx
	mov	DWORD PTR __$EHRec$[ebp+8], -1
	lea	ecx, DWORD PTR _updateWalker$[ebp]
	call	??1VuListIterator@@UAE@XZ		; VuListIterator::~VuListIterator
	mov	eax, DWORD PTR $T2[ebp]
$LN9@FindNeares:

; 1270 : }

	mov	ecx, DWORD PTR __$EHRec$[ebp]
	mov	DWORD PTR fs:0, ecx
	pop	ecx
	mov	esp, ebp
	pop	ebp
	ret	16					; 00000010H
_TEXT	ENDS
text$x	SEGMENT
__unwindfunclet$?FindNearestEnemyPlane@SimulationDriver@@QAEPAVSimBaseClass@@PAVAircraftClass@@PAF1PAM@Z$0:
	lea	ecx, DWORD PTR _updateWalker$[ebp]
	jmp	??1VuListIterator@@UAE@XZ		; VuListIterator::~VuListIterator
__ehhandler$?FindNearestEnemyPlane@SimulationDriver@@QAEPAVSimBaseClass@@PAVAircraftClass@@PAF1PAM@Z:
	mov	edx, DWORD PTR [esp+8]
	lea	eax, DWORD PTR [edx+12]
	mov	ecx, DWORD PTR [edx-120]
	xor	ecx, eax
	call	@__security_check_cookie@4
	mov	eax, OFFSET __ehfuncinfo$?FindNearestEnemyPlane@SimulationDriver@@QAEPAVSimBaseClass@@PAVAircraftClass@@PAF1PAM@Z
	jmp	___CxxFrameHandler3
text$x	ENDS
?FindNearestEnemyPlane@SimulationDriver@@QAEPAVSimBaseClass@@PAVAircraftClass@@PAF1PAM@Z ENDP ; SimulationDriver::FindNearestEnemyPlane
; Function compile flags: /Odtp
; File c:\users\zhitao li\documents\visual studio 2012\projects\freefalcon\sim\simdrive\simdrive.cpp
_TEXT	SEGMENT
_updateWalker$ = -128					; size = 12
$T2 = -116						; size = 4
tv444 = -112						; size = 4
tv458 = -108						; size = 4
tv460 = -104						; size = 4
tv424 = -100						; size = 4
tv420 = -96						; size = 4
tv456 = -92						; size = 4
tv416 = -88						; size = 4
tv412 = -84						; size = 4
tv452 = -80						; size = 4
tv454 = -76						; size = 4
tv407 = -72						; size = 4
tv403 = -68						; size = 4
tv450 = -64						; size = 4
tv399 = -60						; size = 4
tv395 = -56						; size = 4
_myZ$ = -52						; size = 4
$T3 = -48						; size = 4
_this$ = -44						; size = 4
_range$ = -40						; size = 4
_tmpRange$ = -36					; size = 4
_myY$ = -32						; size = 4
_myX$ = -28						; size = 4
_retval$ = -24						; size = 4
_theObject$ = -20					; size = 4
_myTeam$ = -13						; size = 1
__$EHRec$ = -12						; size = 12
_aircraft$ = 8						; size = 4
_x$ = 12						; size = 4
_y$ = 16						; size = 4
_altitude$ = 20						; size = 4
?FindNearestThreat@SimulationDriver@@QAEPAVSimBaseClass@@PAVAircraftClass@@PAF1PAM@Z PROC ; SimulationDriver::FindNearestThreat
; _this$ = ecx

; 1157 : {

	push	ebp
	mov	ebp, esp
	push	-1
	push	__ehhandler$?FindNearestThreat@SimulationDriver@@QAEPAVSimBaseClass@@PAVAircraftClass@@PAF1PAM@Z
	mov	eax, DWORD PTR fs:0
	push	eax
	sub	esp, 116				; 00000074H
	mov	eax, DWORD PTR ___security_cookie
	xor	eax, ebp
	push	eax
	lea	eax, DWORD PTR __$EHRec$[ebp]
	mov	DWORD PTR fs:0, eax
	mov	DWORD PTR _this$[ebp], ecx

; 1158 : 	SimBaseClass* retval = NULL;

	mov	DWORD PTR _retval$[ebp], 0

; 1159 : 	SimBaseClass* theObject = NULL;

	mov	DWORD PTR _theObject$[ebp], 0

; 1160 : 	VuListIterator updateWalker (objectList);

	mov	eax, DWORD PTR _this$[ebp]
	mov	ecx, DWORD PTR [eax]
	push	ecx
	lea	ecx, DWORD PTR _updateWalker$[ebp]
	call	??0VuListIterator@@QAE@PAVVuLinkedList@@@Z ; VuListIterator::VuListIterator
	mov	DWORD PTR __$EHRec$[ebp+8], 0

; 1161 : 	float myX=0.0F, myY=0.0F, myZ=0.0F;

	movss	xmm0, DWORD PTR __real@00000000
	movss	DWORD PTR _myX$[ebp], xmm0
	movss	xmm0, DWORD PTR __real@00000000
	movss	DWORD PTR _myY$[ebp], xmm0
	movss	xmm0, DWORD PTR __real@00000000
	movss	DWORD PTR _myZ$[ebp], xmm0

; 1162 : 	float tmpRange=0.0F,range=0.0F;

	movss	xmm0, DWORD PTR __real@00000000
	movss	DWORD PTR _tmpRange$[ebp], xmm0
	movss	xmm0, DWORD PTR __real@00000000
	movss	DWORD PTR _range$[ebp], xmm0

; 1163 : 	Team myTeam=0;

	mov	BYTE PTR _myTeam$[ebp], 0

; 1164 : 
; 1165 : 	if (!playerEntity)

	mov	edx, DWORD PTR _this$[ebp]
	cmp	DWORD PTR [edx+56], 0
	jne	SHORT $LN10@FindNeares

; 1166 : 		return NULL;

	mov	DWORD PTR $T3[ebp], 0
	mov	DWORD PTR __$EHRec$[ebp+8], -1
	lea	ecx, DWORD PTR _updateWalker$[ebp]
	call	??1VuListIterator@@UAE@XZ		; VuListIterator::~VuListIterator
	mov	eax, DWORD PTR $T3[ebp]
	jmp	$LN11@FindNeares
$LN10@FindNeares:

; 1167 : 
; 1168 : 	myX = aircraft->XPos();

	mov	ecx, DWORD PTR _aircraft$[ebp]
	call	?XPos@VuEntity@@QBEMXZ			; VuEntity::XPos
	fstp	DWORD PTR _myX$[ebp]

; 1169 : 	myY = aircraft->YPos();

	mov	ecx, DWORD PTR _aircraft$[ebp]
	call	?YPos@VuEntity@@QBEMXZ			; VuEntity::YPos
	fstp	DWORD PTR _myY$[ebp]

; 1170 : 	myZ = aircraft->ZPos();

	mov	ecx, DWORD PTR _aircraft$[ebp]
	call	?ZPos@VuEntity@@QBEMXZ			; VuEntity::ZPos
	fstp	DWORD PTR _myZ$[ebp]

; 1171 : 	myTeam = aircraft->GetTeam();

	mov	eax, DWORD PTR _aircraft$[ebp]
	mov	edx, DWORD PTR [eax]
	mov	ecx, DWORD PTR _aircraft$[ebp]
	mov	eax, DWORD PTR [edx+116]
	call	eax
	mov	BYTE PTR _myTeam$[ebp], al

; 1172 : 
; 1173 : 	theObject = (SimBaseClass*)updateWalker.GetFirst();

	lea	ecx, DWORD PTR _updateWalker$[ebp]
	call	?GetFirst@VuListIterator@@QAEPAVVuEntity@@XZ ; VuListIterator::GetFirst
	mov	DWORD PTR _theObject$[ebp], eax
$LN9@FindNeares:

; 1174 : 	while (theObject)

	cmp	DWORD PTR _theObject$[ebp], 0
	je	$LN8@FindNeares

; 1175 : 	{
; 1176 : 		if (	theObject->IsAirplane() && !theObject->IsDead() && !theObject->OnGround() && !theObject->IsEject() && !theObject->IsDying() &&
; 1177 : 				GetTTRelations((Team)theObject->GetTeam(), myTeam) >= Hostile && theObject->GetCampaignObject()->GetSpotted(myTeam))

	mov	ecx, DWORD PTR _theObject$[ebp]
	mov	edx, DWORD PTR [ecx]
	mov	ecx, DWORD PTR _theObject$[ebp]
	mov	eax, DWORD PTR [edx+192]
	call	eax
	test	eax, eax
	je	$LN2@FindNeares
	mov	ecx, DWORD PTR _theObject$[ebp]
	mov	edx, DWORD PTR [ecx]
	mov	ecx, DWORD PTR _theObject$[ebp]
	mov	eax, DWORD PTR [edx+340]
	call	eax
	test	eax, eax
	jne	$LN2@FindNeares
	mov	ecx, DWORD PTR _theObject$[ebp]
	mov	edx, DWORD PTR [ecx]
	mov	ecx, DWORD PTR _theObject$[ebp]
	mov	eax, DWORD PTR [edx+148]
	call	eax
	test	eax, eax
	jne	$LN2@FindNeares
	mov	ecx, DWORD PTR _theObject$[ebp]
	mov	edx, DWORD PTR [ecx]
	mov	ecx, DWORD PTR _theObject$[ebp]
	mov	eax, DWORD PTR [edx+188]
	call	eax
	test	eax, eax
	jne	$LN2@FindNeares
	mov	ecx, DWORD PTR _theObject$[ebp]
	call	?IsDying@SimBaseClass@@QBEHXZ		; SimBaseClass::IsDying
	test	eax, eax
	jne	$LN2@FindNeares
	movzx	ecx, BYTE PTR _myTeam$[ebp]
	push	ecx
	mov	edx, DWORD PTR _theObject$[ebp]
	mov	eax, DWORD PTR [edx]
	mov	ecx, DWORD PTR _theObject$[ebp]
	mov	edx, DWORD PTR [eax+116]
	call	edx
	movzx	eax, al
	push	eax
	call	?GetTTRelations@@YAHEE@Z		; GetTTRelations
	add	esp, 8
	cmp	eax, 4
	jl	$LN2@FindNeares
	movzx	ecx, BYTE PTR _myTeam$[ebp]
	push	ecx
	mov	ecx, DWORD PTR _theObject$[ebp]
	call	?GetCampaignObject@SimBaseClass@@QAEPAVCampBaseClass@@XZ ; SimBaseClass::GetCampaignObject
	mov	ecx, eax
	call	?GetSpotted@CampBaseClass@@QAEHE@Z	; CampBaseClass::GetSpotted
	test	eax, eax
	je	$LN2@FindNeares

; 1178 : 		{
; 1179 : 			if(	theObject->GetSType() == STYPE_AIR_FIGHTER ||
; 1180 : 					theObject->GetSType() == STYPE_AIR_FIGHTER_BOMBER )

	mov	ecx, DWORD PTR _theObject$[ebp]
	call	?GetSType@SimBaseClass@@QBEEXZ		; SimBaseClass::GetSType
	movzx	edx, al
	cmp	edx, 6
	je	SHORT $LN5@FindNeares
	mov	ecx, DWORD PTR _theObject$[ebp]
	call	?GetSType@SimBaseClass@@QBEEXZ		; SimBaseClass::GetSType
	movzx	eax, al
	cmp	eax, 7
	jne	$LN2@FindNeares
$LN5@FindNeares:

; 1181 : 			{
; 1182 : 				if (retval == NULL)

	cmp	DWORD PTR _retval$[ebp], 0
	jne	$LN4@FindNeares

; 1183 : 				{
; 1184 : 					*x = SimToGrid(theObject->YPos());

	mov	ecx, DWORD PTR _theObject$[ebp]
	call	?YPos@VuEntity@@QBEMXZ			; VuEntity::YPos
	push	ecx
	fstp	DWORD PTR [esp]
	call	?SimToGrid@@YAFM@Z			; SimToGrid
	add	esp, 4
	mov	ecx, DWORD PTR _x$[ebp]
	mov	WORD PTR [ecx], ax

; 1185 : 					*y = SimToGrid(theObject->XPos());

	mov	ecx, DWORD PTR _theObject$[ebp]
	call	?XPos@VuEntity@@QBEMXZ			; VuEntity::XPos
	push	ecx
	fstp	DWORD PTR [esp]
	call	?SimToGrid@@YAFM@Z			; SimToGrid
	add	esp, 4
	mov	edx, DWORD PTR _y$[ebp]
	mov	WORD PTR [edx], ax

; 1186 : 					range = (theObject->XPos() - myX)*(theObject->XPos()-myX) +
; 1187 : 						(theObject->YPos() - myY)*(theObject->YPos()-myY);

	mov	ecx, DWORD PTR _theObject$[ebp]
	call	?XPos@VuEntity@@QBEMXZ			; VuEntity::XPos
	fstp	DWORD PTR tv395[ebp]
	movss	xmm0, DWORD PTR tv395[ebp]
	subss	xmm0, DWORD PTR _myX$[ebp]
	mov	ecx, DWORD PTR _theObject$[ebp]
	movss	DWORD PTR tv450[ebp], xmm0
	call	?XPos@VuEntity@@QBEMXZ			; VuEntity::XPos
	fstp	DWORD PTR tv399[ebp]
	movss	xmm0, DWORD PTR tv399[ebp]
	subss	xmm0, DWORD PTR _myX$[ebp]
	movss	xmm1, DWORD PTR tv450[ebp]
	mulss	xmm1, xmm0
	mov	ecx, DWORD PTR _theObject$[ebp]
	movss	DWORD PTR tv452[ebp], xmm1
	call	?YPos@VuEntity@@QBEMXZ			; VuEntity::YPos
	fstp	DWORD PTR tv403[ebp]
	movss	xmm0, DWORD PTR tv403[ebp]
	subss	xmm0, DWORD PTR _myY$[ebp]
	mov	ecx, DWORD PTR _theObject$[ebp]
	movss	DWORD PTR tv454[ebp], xmm0
	call	?YPos@VuEntity@@QBEMXZ			; VuEntity::YPos
	fstp	DWORD PTR tv407[ebp]
	movss	xmm0, DWORD PTR tv407[ebp]
	subss	xmm0, DWORD PTR _myY$[ebp]
	movss	xmm1, DWORD PTR tv454[ebp]
	mulss	xmm1, xmm0
	movss	xmm0, DWORD PTR tv452[ebp]
	addss	xmm0, xmm1
	movss	DWORD PTR _range$[ebp], xmm0

; 1188 : 					retval = theObject;

	mov	eax, DWORD PTR _theObject$[ebp]
	mov	DWORD PTR _retval$[ebp], eax

; 1189 : 				}
; 1190 : 				else

	jmp	$LN2@FindNeares
$LN4@FindNeares:

; 1191 : 				{
; 1192 : 					tmpRange = (theObject->XPos() - myX)*(theObject->XPos()-myX) +
; 1193 : 						(theObject->YPos() - myY)*(theObject->YPos()-myY);

	mov	ecx, DWORD PTR _theObject$[ebp]
	call	?XPos@VuEntity@@QBEMXZ			; VuEntity::XPos
	fstp	DWORD PTR tv412[ebp]
	movss	xmm0, DWORD PTR tv412[ebp]
	subss	xmm0, DWORD PTR _myX$[ebp]
	mov	ecx, DWORD PTR _theObject$[ebp]
	movss	DWORD PTR tv456[ebp], xmm0
	call	?XPos@VuEntity@@QBEMXZ			; VuEntity::XPos
	fstp	DWORD PTR tv416[ebp]
	movss	xmm0, DWORD PTR tv416[ebp]
	subss	xmm0, DWORD PTR _myX$[ebp]
	movss	xmm1, DWORD PTR tv456[ebp]
	mulss	xmm1, xmm0
	mov	ecx, DWORD PTR _theObject$[ebp]
	movss	DWORD PTR tv458[ebp], xmm1
	call	?YPos@VuEntity@@QBEMXZ			; VuEntity::YPos
	fstp	DWORD PTR tv420[ebp]
	movss	xmm0, DWORD PTR tv420[ebp]
	subss	xmm0, DWORD PTR _myY$[ebp]
	mov	ecx, DWORD PTR _theObject$[ebp]
	movss	DWORD PTR tv460[ebp], xmm0
	call	?YPos@VuEntity@@QBEMXZ			; VuEntity::YPos
	fstp	DWORD PTR tv424[ebp]
	movss	xmm0, DWORD PTR tv424[ebp]
	subss	xmm0, DWORD PTR _myY$[ebp]
	movss	xmm1, DWORD PTR tv460[ebp]
	mulss	xmm1, xmm0
	movss	xmm0, DWORD PTR tv458[ebp]
	addss	xmm0, xmm1
	movss	DWORD PTR _tmpRange$[ebp], xmm0

; 1194 : 
; 1195 : 					if (tmpRange < range)

	movss	xmm0, DWORD PTR _range$[ebp]
	comiss	xmm0, DWORD PTR _tmpRange$[ebp]
	jbe	SHORT $LN2@FindNeares

; 1196 : 					{
; 1197 : 						*x = SimToGrid(theObject->YPos());

	mov	ecx, DWORD PTR _theObject$[ebp]
	call	?YPos@VuEntity@@QBEMXZ			; VuEntity::YPos
	push	ecx
	fstp	DWORD PTR [esp]
	call	?SimToGrid@@YAFM@Z			; SimToGrid
	add	esp, 4
	mov	ecx, DWORD PTR _x$[ebp]
	mov	WORD PTR [ecx], ax

; 1198 : 						*y = SimToGrid(theObject->XPos());

	mov	ecx, DWORD PTR _theObject$[ebp]
	call	?XPos@VuEntity@@QBEMXZ			; VuEntity::XPos
	push	ecx
	fstp	DWORD PTR [esp]
	call	?SimToGrid@@YAFM@Z			; SimToGrid
	add	esp, 4
	mov	edx, DWORD PTR _y$[ebp]
	mov	WORD PTR [edx], ax

; 1199 : 						range = tmpRange;

	movss	xmm0, DWORD PTR _tmpRange$[ebp]
	movss	DWORD PTR _range$[ebp], xmm0

; 1200 : 						retval = theObject;

	mov	eax, DWORD PTR _theObject$[ebp]
	mov	DWORD PTR _retval$[ebp], eax
$LN2@FindNeares:

; 1201 : 					}
; 1202 : 				}
; 1203 : 			}
; 1204 : 		}
; 1205 : 		theObject = (SimBaseClass*)updateWalker.GetNext();

	lea	ecx, DWORD PTR _updateWalker$[ebp]
	call	?GetNext@VuListIterator@@QAEPAVVuEntity@@XZ ; VuListIterator::GetNext
	mov	DWORD PTR _theObject$[ebp], eax

; 1206 : 	}

	jmp	$LN9@FindNeares
$LN8@FindNeares:

; 1207 : 
; 1208 : 	if (retval)

	cmp	DWORD PTR _retval$[ebp], 0
	je	SHORT $LN1@FindNeares

; 1209 : 	{
; 1210 : 		*altitude = -retval->ZPos();

	mov	ecx, DWORD PTR _retval$[ebp]
	call	?ZPos@VuEntity@@QBEMXZ			; VuEntity::ZPos
	fstp	DWORD PTR tv444[ebp]
	movss	xmm0, DWORD PTR tv444[ebp]
	xorps	xmm0, DWORD PTR __xmm@80000000800000008000000080000000
	mov	ecx, DWORD PTR _altitude$[ebp]
	movss	DWORD PTR [ecx], xmm0
$LN1@FindNeares:

; 1211 : 	}
; 1212 : 
; 1213 : 	return (retval);

	mov	edx, DWORD PTR _retval$[ebp]
	mov	DWORD PTR $T2[ebp], edx
	mov	DWORD PTR __$EHRec$[ebp+8], -1
	lea	ecx, DWORD PTR _updateWalker$[ebp]
	call	??1VuListIterator@@UAE@XZ		; VuListIterator::~VuListIterator
	mov	eax, DWORD PTR $T2[ebp]
$LN11@FindNeares:

; 1214 : }

	mov	ecx, DWORD PTR __$EHRec$[ebp]
	mov	DWORD PTR fs:0, ecx
	pop	ecx
	mov	esp, ebp
	pop	ebp
	ret	16					; 00000010H
_TEXT	ENDS
text$x	SEGMENT
__unwindfunclet$?FindNearestThreat@SimulationDriver@@QAEPAVSimBaseClass@@PAVAircraftClass@@PAF1PAM@Z$0:
	lea	ecx, DWORD PTR _updateWalker$[ebp]
	jmp	??1VuListIterator@@UAE@XZ		; VuListIterator::~VuListIterator
__ehhandler$?FindNearestThreat@SimulationDriver@@QAEPAVSimBaseClass@@PAVAircraftClass@@PAF1PAM@Z:
	mov	edx, DWORD PTR [esp+8]
	lea	eax, DWORD PTR [edx+12]
	mov	ecx, DWORD PTR [edx-120]
	xor	ecx, eax
	call	@__security_check_cookie@4
	mov	eax, OFFSET __ehfuncinfo$?FindNearestThreat@SimulationDriver@@QAEPAVSimBaseClass@@PAVAircraftClass@@PAF1PAM@Z
	jmp	___CxxFrameHandler3
text$x	ENDS
?FindNearestThreat@SimulationDriver@@QAEPAVSimBaseClass@@PAVAircraftClass@@PAF1PAM@Z ENDP ; SimulationDriver::FindNearestThreat
; Function compile flags: /Odtp
; File c:\users\zhitao li\documents\visual studio 2012\projects\freefalcon\sim\simdrive\simdrive.cpp
_TEXT	SEGMENT
_updateWalker$ = -128					; size = 12
$T2 = -116						; size = 4
tv471 = -112						; size = 4
tv485 = -108						; size = 4
tv487 = -104						; size = 4
tv451 = -100						; size = 4
tv447 = -96						; size = 4
tv483 = -92						; size = 4
tv443 = -88						; size = 4
tv439 = -84						; size = 4
tv479 = -80						; size = 4
tv481 = -76						; size = 4
tv434 = -72						; size = 4
tv430 = -68						; size = 4
tv477 = -64						; size = 4
tv426 = -60						; size = 4
tv422 = -56						; size = 4
_myZ$ = -52						; size = 4
$T3 = -48						; size = 4
_range$ = -44						; size = 4
_tmpRange$ = -40					; size = 4
_myY$ = -36						; size = 4
_myX$ = -32						; size = 4
_retval$ = -28						; size = 4
_this$ = -24						; size = 4
_theObject$ = -20					; size = 4
_myTeam$ = -13						; size = 1
__$EHRec$ = -12						; size = 12
_x$ = 8							; size = 4
_y$ = 12						; size = 4
_altitude$ = 16						; size = 4
?FindNearestThreat@SimulationDriver@@QAEPAVSimBaseClass@@PAF0PAM@Z PROC ; SimulationDriver::FindNearestThreat
; _this$ = ecx

; 1097 : {

	push	ebp
	mov	ebp, esp
	push	-1
	push	__ehhandler$?FindNearestThreat@SimulationDriver@@QAEPAVSimBaseClass@@PAF0PAM@Z
	mov	eax, DWORD PTR fs:0
	push	eax
	sub	esp, 116				; 00000074H
	mov	eax, DWORD PTR ___security_cookie
	xor	eax, ebp
	push	eax
	lea	eax, DWORD PTR __$EHRec$[ebp]
	mov	DWORD PTR fs:0, eax
	mov	DWORD PTR _this$[ebp], ecx

; 1098 : 	SimBaseClass* retval = NULL;

	mov	DWORD PTR _retval$[ebp], 0

; 1099 : 	SimBaseClass* theObject = NULL;

	mov	DWORD PTR _theObject$[ebp], 0

; 1100 : 	VuListIterator updateWalker (objectList);

	mov	eax, DWORD PTR _this$[ebp]
	mov	ecx, DWORD PTR [eax]
	push	ecx
	lea	ecx, DWORD PTR _updateWalker$[ebp]
	call	??0VuListIterator@@QAE@PAVVuLinkedList@@@Z ; VuListIterator::VuListIterator
	mov	DWORD PTR __$EHRec$[ebp+8], 0

; 1101 : 	float myX=0.0F, myY=0.0F, myZ=0.0F;

	movss	xmm0, DWORD PTR __real@00000000
	movss	DWORD PTR _myX$[ebp], xmm0
	movss	xmm0, DWORD PTR __real@00000000
	movss	DWORD PTR _myY$[ebp], xmm0
	movss	xmm0, DWORD PTR __real@00000000
	movss	DWORD PTR _myZ$[ebp], xmm0

; 1102 : 	float tmpRange=0.0F,range=0.0F;

	movss	xmm0, DWORD PTR __real@00000000
	movss	DWORD PTR _tmpRange$[ebp], xmm0
	movss	xmm0, DWORD PTR __real@00000000
	movss	DWORD PTR _range$[ebp], xmm0

; 1103 : 	Team myTeam=0;

	mov	BYTE PTR _myTeam$[ebp], 0

; 1104 : 
; 1105 : 	if (!playerEntity)

	mov	edx, DWORD PTR _this$[ebp]
	cmp	DWORD PTR [edx+56], 0
	jne	SHORT $LN10@FindNeares

; 1106 : 		return NULL;

	mov	DWORD PTR $T3[ebp], 0
	mov	DWORD PTR __$EHRec$[ebp+8], -1
	lea	ecx, DWORD PTR _updateWalker$[ebp]
	call	??1VuListIterator@@UAE@XZ		; VuListIterator::~VuListIterator
	mov	eax, DWORD PTR $T3[ebp]
	jmp	$LN11@FindNeares
$LN10@FindNeares:

; 1107 : 
; 1108 : 	myX = ((SimBaseClass*)playerEntity)->XPos();

	mov	eax, DWORD PTR _this$[ebp]
	mov	ecx, DWORD PTR [eax+56]
	call	?XPos@VuEntity@@QBEMXZ			; VuEntity::XPos
	fstp	DWORD PTR _myX$[ebp]

; 1109 : 	myY = ((SimBaseClass*)playerEntity)->YPos();

	mov	ecx, DWORD PTR _this$[ebp]
	mov	ecx, DWORD PTR [ecx+56]
	call	?YPos@VuEntity@@QBEMXZ			; VuEntity::YPos
	fstp	DWORD PTR _myY$[ebp]

; 1110 : 	myZ = ((SimBaseClass*)playerEntity)->ZPos();

	mov	edx, DWORD PTR _this$[ebp]
	mov	ecx, DWORD PTR [edx+56]
	call	?ZPos@VuEntity@@QBEMXZ			; VuEntity::ZPos
	fstp	DWORD PTR _myZ$[ebp]

; 1111 : 	myTeam = ((SimBaseClass*)playerEntity)->GetTeam();

	mov	eax, DWORD PTR _this$[ebp]
	mov	ecx, DWORD PTR [eax+56]
	mov	edx, DWORD PTR _this$[ebp]
	mov	eax, DWORD PTR [ecx]
	mov	ecx, DWORD PTR [edx+56]
	mov	edx, DWORD PTR [eax+116]
	call	edx
	mov	BYTE PTR _myTeam$[ebp], al

; 1112 : 
; 1113 : 	theObject = (SimBaseClass*)updateWalker.GetFirst();

	lea	ecx, DWORD PTR _updateWalker$[ebp]
	call	?GetFirst@VuListIterator@@QAEPAVVuEntity@@XZ ; VuListIterator::GetFirst
	mov	DWORD PTR _theObject$[ebp], eax
$LN9@FindNeares:

; 1114 : 	while (theObject)

	cmp	DWORD PTR _theObject$[ebp], 0
	je	$LN8@FindNeares

; 1115 : 	{
; 1116 : 		if (	theObject->IsAirplane() && !theObject->IsDead() && !theObject->OnGround() && !theObject->IsEject() && !theObject->IsDying() && 
; 1117 : 				GetTTRelations((Team)theObject->GetTeam(), myTeam) >= Hostile && theObject->GetCampaignObject()->GetSpotted(myTeam))

	mov	eax, DWORD PTR _theObject$[ebp]
	mov	edx, DWORD PTR [eax]
	mov	ecx, DWORD PTR _theObject$[ebp]
	mov	eax, DWORD PTR [edx+192]
	call	eax
	test	eax, eax
	je	$LN2@FindNeares
	mov	ecx, DWORD PTR _theObject$[ebp]
	mov	edx, DWORD PTR [ecx]
	mov	ecx, DWORD PTR _theObject$[ebp]
	mov	eax, DWORD PTR [edx+340]
	call	eax
	test	eax, eax
	jne	$LN2@FindNeares
	mov	ecx, DWORD PTR _theObject$[ebp]
	mov	edx, DWORD PTR [ecx]
	mov	ecx, DWORD PTR _theObject$[ebp]
	mov	eax, DWORD PTR [edx+148]
	call	eax
	test	eax, eax
	jne	$LN2@FindNeares
	mov	ecx, DWORD PTR _theObject$[ebp]
	mov	edx, DWORD PTR [ecx]
	mov	ecx, DWORD PTR _theObject$[ebp]
	mov	eax, DWORD PTR [edx+188]
	call	eax
	test	eax, eax
	jne	$LN2@FindNeares
	mov	ecx, DWORD PTR _theObject$[ebp]
	call	?IsDying@SimBaseClass@@QBEHXZ		; SimBaseClass::IsDying
	test	eax, eax
	jne	$LN2@FindNeares
	movzx	ecx, BYTE PTR _myTeam$[ebp]
	push	ecx
	mov	edx, DWORD PTR _theObject$[ebp]
	mov	eax, DWORD PTR [edx]
	mov	ecx, DWORD PTR _theObject$[ebp]
	mov	edx, DWORD PTR [eax+116]
	call	edx
	movzx	eax, al
	push	eax
	call	?GetTTRelations@@YAHEE@Z		; GetTTRelations
	add	esp, 8
	cmp	eax, 4
	jl	$LN2@FindNeares
	movzx	ecx, BYTE PTR _myTeam$[ebp]
	push	ecx
	mov	ecx, DWORD PTR _theObject$[ebp]
	call	?GetCampaignObject@SimBaseClass@@QAEPAVCampBaseClass@@XZ ; SimBaseClass::GetCampaignObject
	mov	ecx, eax
	call	?GetSpotted@CampBaseClass@@QAEHE@Z	; CampBaseClass::GetSpotted
	test	eax, eax
	je	$LN2@FindNeares

; 1118 : 		{
; 1119 : 			if(	theObject->GetSType() == STYPE_AIR_FIGHTER ||
; 1120 : 					theObject->GetSType() == STYPE_AIR_FIGHTER_BOMBER )

	mov	ecx, DWORD PTR _theObject$[ebp]
	call	?GetSType@SimBaseClass@@QBEEXZ		; SimBaseClass::GetSType
	movzx	edx, al
	cmp	edx, 6
	je	SHORT $LN5@FindNeares
	mov	ecx, DWORD PTR _theObject$[ebp]
	call	?GetSType@SimBaseClass@@QBEEXZ		; SimBaseClass::GetSType
	movzx	eax, al
	cmp	eax, 7
	jne	$LN2@FindNeares
$LN5@FindNeares:

; 1121 : 			{
; 1122 : 				if (retval == NULL)

	cmp	DWORD PTR _retval$[ebp], 0
	jne	$LN4@FindNeares

; 1123 : 				{
; 1124 : 					*x = SimToGrid(theObject->YPos());

	mov	ecx, DWORD PTR _theObject$[ebp]
	call	?YPos@VuEntity@@QBEMXZ			; VuEntity::YPos
	push	ecx
	fstp	DWORD PTR [esp]
	call	?SimToGrid@@YAFM@Z			; SimToGrid
	add	esp, 4
	mov	ecx, DWORD PTR _x$[ebp]
	mov	WORD PTR [ecx], ax

; 1125 : 					*y = SimToGrid(theObject->XPos());

	mov	ecx, DWORD PTR _theObject$[ebp]
	call	?XPos@VuEntity@@QBEMXZ			; VuEntity::XPos
	push	ecx
	fstp	DWORD PTR [esp]
	call	?SimToGrid@@YAFM@Z			; SimToGrid
	add	esp, 4
	mov	edx, DWORD PTR _y$[ebp]
	mov	WORD PTR [edx], ax

; 1126 : 					range = (theObject->XPos() - myX)*(theObject->XPos()-myX) +
; 1127 : 						(theObject->YPos() - myY)*(theObject->YPos()-myY);

	mov	ecx, DWORD PTR _theObject$[ebp]
	call	?XPos@VuEntity@@QBEMXZ			; VuEntity::XPos
	fstp	DWORD PTR tv422[ebp]
	movss	xmm0, DWORD PTR tv422[ebp]
	subss	xmm0, DWORD PTR _myX$[ebp]
	mov	ecx, DWORD PTR _theObject$[ebp]
	movss	DWORD PTR tv477[ebp], xmm0
	call	?XPos@VuEntity@@QBEMXZ			; VuEntity::XPos
	fstp	DWORD PTR tv426[ebp]
	movss	xmm0, DWORD PTR tv426[ebp]
	subss	xmm0, DWORD PTR _myX$[ebp]
	movss	xmm1, DWORD PTR tv477[ebp]
	mulss	xmm1, xmm0
	mov	ecx, DWORD PTR _theObject$[ebp]
	movss	DWORD PTR tv479[ebp], xmm1
	call	?YPos@VuEntity@@QBEMXZ			; VuEntity::YPos
	fstp	DWORD PTR tv430[ebp]
	movss	xmm0, DWORD PTR tv430[ebp]
	subss	xmm0, DWORD PTR _myY$[ebp]
	mov	ecx, DWORD PTR _theObject$[ebp]
	movss	DWORD PTR tv481[ebp], xmm0
	call	?YPos@VuEntity@@QBEMXZ			; VuEntity::YPos
	fstp	DWORD PTR tv434[ebp]
	movss	xmm0, DWORD PTR tv434[ebp]
	subss	xmm0, DWORD PTR _myY$[ebp]
	movss	xmm1, DWORD PTR tv481[ebp]
	mulss	xmm1, xmm0
	movss	xmm0, DWORD PTR tv479[ebp]
	addss	xmm0, xmm1
	movss	DWORD PTR _range$[ebp], xmm0

; 1128 : 					retval = theObject;

	mov	eax, DWORD PTR _theObject$[ebp]
	mov	DWORD PTR _retval$[ebp], eax

; 1129 : 				}
; 1130 : 				else

	jmp	$LN2@FindNeares
$LN4@FindNeares:

; 1131 : 				{
; 1132 : 					tmpRange = (theObject->XPos() - myX)*(theObject->XPos()-myX) +
; 1133 : 						(theObject->YPos() - myY)*(theObject->YPos()-myY);

	mov	ecx, DWORD PTR _theObject$[ebp]
	call	?XPos@VuEntity@@QBEMXZ			; VuEntity::XPos
	fstp	DWORD PTR tv439[ebp]
	movss	xmm0, DWORD PTR tv439[ebp]
	subss	xmm0, DWORD PTR _myX$[ebp]
	mov	ecx, DWORD PTR _theObject$[ebp]
	movss	DWORD PTR tv483[ebp], xmm0
	call	?XPos@VuEntity@@QBEMXZ			; VuEntity::XPos
	fstp	DWORD PTR tv443[ebp]
	movss	xmm0, DWORD PTR tv443[ebp]
	subss	xmm0, DWORD PTR _myX$[ebp]
	movss	xmm1, DWORD PTR tv483[ebp]
	mulss	xmm1, xmm0
	mov	ecx, DWORD PTR _theObject$[ebp]
	movss	DWORD PTR tv485[ebp], xmm1
	call	?YPos@VuEntity@@QBEMXZ			; VuEntity::YPos
	fstp	DWORD PTR tv447[ebp]
	movss	xmm0, DWORD PTR tv447[ebp]
	subss	xmm0, DWORD PTR _myY$[ebp]
	mov	ecx, DWORD PTR _theObject$[ebp]
	movss	DWORD PTR tv487[ebp], xmm0
	call	?YPos@VuEntity@@QBEMXZ			; VuEntity::YPos
	fstp	DWORD PTR tv451[ebp]
	movss	xmm0, DWORD PTR tv451[ebp]
	subss	xmm0, DWORD PTR _myY$[ebp]
	movss	xmm1, DWORD PTR tv487[ebp]
	mulss	xmm1, xmm0
	movss	xmm0, DWORD PTR tv485[ebp]
	addss	xmm0, xmm1
	movss	DWORD PTR _tmpRange$[ebp], xmm0

; 1134 : 
; 1135 : 					if (tmpRange < range)

	movss	xmm0, DWORD PTR _range$[ebp]
	comiss	xmm0, DWORD PTR _tmpRange$[ebp]
	jbe	SHORT $LN2@FindNeares

; 1136 : 					{
; 1137 : 						*x = SimToGrid(theObject->YPos());

	mov	ecx, DWORD PTR _theObject$[ebp]
	call	?YPos@VuEntity@@QBEMXZ			; VuEntity::YPos
	push	ecx
	fstp	DWORD PTR [esp]
	call	?SimToGrid@@YAFM@Z			; SimToGrid
	add	esp, 4
	mov	ecx, DWORD PTR _x$[ebp]
	mov	WORD PTR [ecx], ax

; 1138 : 						*y = SimToGrid(theObject->XPos());

	mov	ecx, DWORD PTR _theObject$[ebp]
	call	?XPos@VuEntity@@QBEMXZ			; VuEntity::XPos
	push	ecx
	fstp	DWORD PTR [esp]
	call	?SimToGrid@@YAFM@Z			; SimToGrid
	add	esp, 4
	mov	edx, DWORD PTR _y$[ebp]
	mov	WORD PTR [edx], ax

; 1139 : 						range = tmpRange;

	movss	xmm0, DWORD PTR _tmpRange$[ebp]
	movss	DWORD PTR _range$[ebp], xmm0

; 1140 : 						retval = theObject;

	mov	eax, DWORD PTR _theObject$[ebp]
	mov	DWORD PTR _retval$[ebp], eax
$LN2@FindNeares:

; 1141 : 					}
; 1142 : 				}
; 1143 : 			}
; 1144 : 		}
; 1145 : 		theObject = (SimBaseClass*)updateWalker.GetNext();

	lea	ecx, DWORD PTR _updateWalker$[ebp]
	call	?GetNext@VuListIterator@@QAEPAVVuEntity@@XZ ; VuListIterator::GetNext
	mov	DWORD PTR _theObject$[ebp], eax

; 1146 : 	}

	jmp	$LN9@FindNeares
$LN8@FindNeares:

; 1147 : 
; 1148 : 	if (retval)

	cmp	DWORD PTR _retval$[ebp], 0
	je	SHORT $LN1@FindNeares

; 1149 : 	{
; 1150 : 		*altitude = -retval->ZPos();

	mov	ecx, DWORD PTR _retval$[ebp]
	call	?ZPos@VuEntity@@QBEMXZ			; VuEntity::ZPos
	fstp	DWORD PTR tv471[ebp]
	movss	xmm0, DWORD PTR tv471[ebp]
	xorps	xmm0, DWORD PTR __xmm@80000000800000008000000080000000
	mov	ecx, DWORD PTR _altitude$[ebp]
	movss	DWORD PTR [ecx], xmm0
$LN1@FindNeares:

; 1151 : 	}
; 1152 : 
; 1153 : 	return (retval);

	mov	edx, DWORD PTR _retval$[ebp]
	mov	DWORD PTR $T2[ebp], edx
	mov	DWORD PTR __$EHRec$[ebp+8], -1
	lea	ecx, DWORD PTR _updateWalker$[ebp]
	call	??1VuListIterator@@UAE@XZ		; VuListIterator::~VuListIterator
	mov	eax, DWORD PTR $T2[ebp]
$LN11@FindNeares:

; 1154 : }

	mov	ecx, DWORD PTR __$EHRec$[ebp]
	mov	DWORD PTR fs:0, ecx
	pop	ecx
	mov	esp, ebp
	pop	ebp
	ret	12					; 0000000cH
_TEXT	ENDS
text$x	SEGMENT
__unwindfunclet$?FindNearestThreat@SimulationDriver@@QAEPAVSimBaseClass@@PAF0PAM@Z$0:
	lea	ecx, DWORD PTR _updateWalker$[ebp]
	jmp	??1VuListIterator@@UAE@XZ		; VuListIterator::~VuListIterator
__ehhandler$?FindNearestThreat@SimulationDriver@@QAEPAVSimBaseClass@@PAF0PAM@Z:
	mov	edx, DWORD PTR [esp+8]
	lea	eax, DWORD PTR [edx+12]
	mov	ecx, DWORD PTR [edx-120]
	xor	ecx, eax
	call	@__security_check_cookie@4
	mov	eax, OFFSET __ehfuncinfo$?FindNearestThreat@SimulationDriver@@QAEPAVSimBaseClass@@PAF0PAM@Z
	jmp	___CxxFrameHandler3
text$x	ENDS
?FindNearestThreat@SimulationDriver@@QAEPAVSimBaseClass@@PAF0PAM@Z ENDP ; SimulationDriver::FindNearestThreat
; Function compile flags: /Odtp
; File c:\users\zhitao li\documents\visual studio 2012\projects\freefalcon\sim\simdrive\simdrive.cpp
_TEXT	SEGMENT
_updateWalker$ = -140					; size = 12
tv449 = -128						; size = 8
_myZ$ = -120						; size = 4
$T2 = -116						; size = 4
tv460 = -112						; size = 4
tv443 = -108						; size = 4
tv439 = -104						; size = 4
tv474 = -100						; size = 4
tv476 = -96						; size = 4
tv429 = -92						; size = 4
tv425 = -88						; size = 4
tv472 = -84						; size = 4
tv421 = -80						; size = 4
tv417 = -76						; size = 4
tv468 = -72						; size = 4
tv470 = -68						; size = 4
tv411 = -64						; size = 4
tv407 = -60						; size = 4
tv466 = -56						; size = 4
tv403 = -52						; size = 4
tv399 = -48						; size = 4
$T3 = -44						; size = 4
_tmpRange$ = -40					; size = 4
_myY$ = -36						; size = 4
_myX$ = -32						; size = 4
_this$ = -28						; size = 4
_retval$ = -24						; size = 4
_theObject$ = -20					; size = 4
_myTeam$ = -13						; size = 1
__$EHRec$ = -12						; size = 12
_bearing$ = 8						; size = 4
_range$ = 12						; size = 4
_altitude$ = 16						; size = 4
?FindNearestThreat@SimulationDriver@@QAEPAVSimBaseClass@@PAM00@Z PROC ; SimulationDriver::FindNearestThreat
; _this$ = ecx

; 1039 : {

	push	ebp
	mov	ebp, esp
	push	-1
	push	__ehhandler$?FindNearestThreat@SimulationDriver@@QAEPAVSimBaseClass@@PAM00@Z
	mov	eax, DWORD PTR fs:0
	push	eax
	sub	esp, 128				; 00000080H
	mov	eax, DWORD PTR ___security_cookie
	xor	eax, ebp
	push	eax
	lea	eax, DWORD PTR __$EHRec$[ebp]
	mov	DWORD PTR fs:0, eax
	mov	DWORD PTR _this$[ebp], ecx

; 1040 : 	SimBaseClass* retval = NULL;

	mov	DWORD PTR _retval$[ebp], 0

; 1041 : 	SimBaseClass* theObject;
; 1042 : 	VuListIterator updateWalker (objectList);

	mov	eax, DWORD PTR _this$[ebp]
	mov	ecx, DWORD PTR [eax]
	push	ecx
	lea	ecx, DWORD PTR _updateWalker$[ebp]
	call	??0VuListIterator@@QAE@PAVVuLinkedList@@@Z ; VuListIterator::VuListIterator
	mov	DWORD PTR __$EHRec$[ebp+8], 0

; 1043 : 	float myX, myY, myZ;
; 1044 : 	float tmpRange;
; 1045 : 	Team myTeam;
; 1046 : 
; 1047 : 	if (!playerEntity)

	mov	edx, DWORD PTR _this$[ebp]
	cmp	DWORD PTR [edx+56], 0
	jne	SHORT $LN10@FindNeares

; 1048 : 		return NULL;

	mov	DWORD PTR $T3[ebp], 0
	mov	DWORD PTR __$EHRec$[ebp+8], -1
	lea	ecx, DWORD PTR _updateWalker$[ebp]
	call	??1VuListIterator@@UAE@XZ		; VuListIterator::~VuListIterator
	mov	eax, DWORD PTR $T3[ebp]
	jmp	$LN11@FindNeares
$LN10@FindNeares:

; 1049 : 
; 1050 : 	myX = ((SimBaseClass*)playerEntity)->XPos();

	mov	eax, DWORD PTR _this$[ebp]
	mov	ecx, DWORD PTR [eax+56]
	call	?XPos@VuEntity@@QBEMXZ			; VuEntity::XPos
	fstp	DWORD PTR _myX$[ebp]

; 1051 : 	myY = ((SimBaseClass*)playerEntity)->YPos();

	mov	ecx, DWORD PTR _this$[ebp]
	mov	ecx, DWORD PTR [ecx+56]
	call	?YPos@VuEntity@@QBEMXZ			; VuEntity::YPos
	fstp	DWORD PTR _myY$[ebp]

; 1052 : 	myZ = ((SimBaseClass*)playerEntity)->ZPos();

	mov	edx, DWORD PTR _this$[ebp]
	mov	ecx, DWORD PTR [edx+56]
	call	?ZPos@VuEntity@@QBEMXZ			; VuEntity::ZPos
	fstp	DWORD PTR _myZ$[ebp]

; 1053 : 	myTeam = ((SimBaseClass*)playerEntity)->GetTeam();

	mov	eax, DWORD PTR _this$[ebp]
	mov	ecx, DWORD PTR [eax+56]
	mov	edx, DWORD PTR _this$[ebp]
	mov	eax, DWORD PTR [ecx]
	mov	ecx, DWORD PTR [edx+56]
	mov	edx, DWORD PTR [eax+116]
	call	edx
	mov	BYTE PTR _myTeam$[ebp], al

; 1054 : 
; 1055 : 	theObject = (SimBaseClass*)updateWalker.GetFirst();

	lea	ecx, DWORD PTR _updateWalker$[ebp]
	call	?GetFirst@VuListIterator@@QAEPAVVuEntity@@XZ ; VuListIterator::GetFirst
	mov	DWORD PTR _theObject$[ebp], eax
$LN9@FindNeares:

; 1056 : 	while (theObject)

	cmp	DWORD PTR _theObject$[ebp], 0
	je	$LN8@FindNeares

; 1057 : 	{
; 1058 : 		if (	theObject->IsAirplane() && !theObject->IsDead() && !theObject->OnGround() && !theObject->IsEject() && !theObject->IsDying() && 
; 1059 : 				GetTTRelations((Team)theObject->GetTeam(), myTeam) >= Hostile && theObject->GetCampaignObject()->GetSpotted(myTeam))

	mov	eax, DWORD PTR _theObject$[ebp]
	mov	edx, DWORD PTR [eax]
	mov	ecx, DWORD PTR _theObject$[ebp]
	mov	eax, DWORD PTR [edx+192]
	call	eax
	test	eax, eax
	je	$LN2@FindNeares
	mov	ecx, DWORD PTR _theObject$[ebp]
	mov	edx, DWORD PTR [ecx]
	mov	ecx, DWORD PTR _theObject$[ebp]
	mov	eax, DWORD PTR [edx+340]
	call	eax
	test	eax, eax
	jne	$LN2@FindNeares
	mov	ecx, DWORD PTR _theObject$[ebp]
	mov	edx, DWORD PTR [ecx]
	mov	ecx, DWORD PTR _theObject$[ebp]
	mov	eax, DWORD PTR [edx+148]
	call	eax
	test	eax, eax
	jne	$LN2@FindNeares
	mov	ecx, DWORD PTR _theObject$[ebp]
	mov	edx, DWORD PTR [ecx]
	mov	ecx, DWORD PTR _theObject$[ebp]
	mov	eax, DWORD PTR [edx+188]
	call	eax
	test	eax, eax
	jne	$LN2@FindNeares
	mov	ecx, DWORD PTR _theObject$[ebp]
	call	?IsDying@SimBaseClass@@QBEHXZ		; SimBaseClass::IsDying
	test	eax, eax
	jne	$LN2@FindNeares
	movzx	ecx, BYTE PTR _myTeam$[ebp]
	push	ecx
	mov	edx, DWORD PTR _theObject$[ebp]
	mov	eax, DWORD PTR [edx]
	mov	ecx, DWORD PTR _theObject$[ebp]
	mov	edx, DWORD PTR [eax+116]
	call	edx
	movzx	eax, al
	push	eax
	call	?GetTTRelations@@YAHEE@Z		; GetTTRelations
	add	esp, 8
	cmp	eax, 4
	jl	$LN2@FindNeares
	movzx	ecx, BYTE PTR _myTeam$[ebp]
	push	ecx
	mov	ecx, DWORD PTR _theObject$[ebp]
	call	?GetCampaignObject@SimBaseClass@@QAEPAVCampBaseClass@@XZ ; SimBaseClass::GetCampaignObject
	mov	ecx, eax
	call	?GetSpotted@CampBaseClass@@QAEHE@Z	; CampBaseClass::GetSpotted
	test	eax, eax
	je	$LN2@FindNeares

; 1060 : 		{
; 1061 : 			if(	theObject->GetSType() == STYPE_AIR_FIGHTER ||
; 1062 : 					theObject->GetSType() == STYPE_AIR_FIGHTER_BOMBER )

	mov	ecx, DWORD PTR _theObject$[ebp]
	call	?GetSType@SimBaseClass@@QBEEXZ		; SimBaseClass::GetSType
	movzx	edx, al
	cmp	edx, 6
	je	SHORT $LN5@FindNeares
	mov	ecx, DWORD PTR _theObject$[ebp]
	call	?GetSType@SimBaseClass@@QBEEXZ		; SimBaseClass::GetSType
	movzx	eax, al
	cmp	eax, 7
	jne	$LN2@FindNeares
$LN5@FindNeares:

; 1063 : 			{
; 1064 : 				if (retval == NULL)

	cmp	DWORD PTR _retval$[ebp], 0
	jne	$LN4@FindNeares

; 1065 : 				{
; 1066 : 					*range = (theObject->XPos() - myX)*(theObject->XPos()-myX) +
; 1067 : 						(theObject->YPos() - myY)*(theObject->YPos()-myY);

	mov	ecx, DWORD PTR _theObject$[ebp]
	call	?XPos@VuEntity@@QBEMXZ			; VuEntity::XPos
	fstp	DWORD PTR tv399[ebp]
	movss	xmm0, DWORD PTR tv399[ebp]
	subss	xmm0, DWORD PTR _myX$[ebp]
	mov	ecx, DWORD PTR _theObject$[ebp]
	movss	DWORD PTR tv466[ebp], xmm0
	call	?XPos@VuEntity@@QBEMXZ			; VuEntity::XPos
	fstp	DWORD PTR tv403[ebp]
	movss	xmm0, DWORD PTR tv403[ebp]
	subss	xmm0, DWORD PTR _myX$[ebp]
	movss	xmm1, DWORD PTR tv466[ebp]
	mulss	xmm1, xmm0
	mov	ecx, DWORD PTR _theObject$[ebp]
	movss	DWORD PTR tv468[ebp], xmm1
	call	?YPos@VuEntity@@QBEMXZ			; VuEntity::YPos
	fstp	DWORD PTR tv407[ebp]
	movss	xmm0, DWORD PTR tv407[ebp]
	subss	xmm0, DWORD PTR _myY$[ebp]
	mov	ecx, DWORD PTR _theObject$[ebp]
	movss	DWORD PTR tv470[ebp], xmm0
	call	?YPos@VuEntity@@QBEMXZ			; VuEntity::YPos
	fstp	DWORD PTR tv411[ebp]
	movss	xmm0, DWORD PTR tv411[ebp]
	subss	xmm0, DWORD PTR _myY$[ebp]
	movss	xmm1, DWORD PTR tv470[ebp]
	mulss	xmm1, xmm0
	movss	xmm0, DWORD PTR tv468[ebp]
	addss	xmm0, xmm1
	mov	ecx, DWORD PTR _range$[ebp]
	movss	DWORD PTR [ecx], xmm0

; 1068 : 					retval = theObject;

	mov	edx, DWORD PTR _theObject$[ebp]
	mov	DWORD PTR _retval$[ebp], edx

; 1069 : 				}
; 1070 : 				else

	jmp	$LN2@FindNeares
$LN4@FindNeares:

; 1071 : 				{
; 1072 : 					tmpRange = (theObject->XPos() - myX)*(theObject->XPos()-myX) +
; 1073 : 						(theObject->YPos() - myY)*(theObject->YPos()-myY);

	mov	ecx, DWORD PTR _theObject$[ebp]
	call	?XPos@VuEntity@@QBEMXZ			; VuEntity::XPos
	fstp	DWORD PTR tv417[ebp]
	movss	xmm0, DWORD PTR tv417[ebp]
	subss	xmm0, DWORD PTR _myX$[ebp]
	mov	ecx, DWORD PTR _theObject$[ebp]
	movss	DWORD PTR tv472[ebp], xmm0
	call	?XPos@VuEntity@@QBEMXZ			; VuEntity::XPos
	fstp	DWORD PTR tv421[ebp]
	movss	xmm0, DWORD PTR tv421[ebp]
	subss	xmm0, DWORD PTR _myX$[ebp]
	movss	xmm1, DWORD PTR tv472[ebp]
	mulss	xmm1, xmm0
	mov	ecx, DWORD PTR _theObject$[ebp]
	movss	DWORD PTR tv474[ebp], xmm1
	call	?YPos@VuEntity@@QBEMXZ			; VuEntity::YPos
	fstp	DWORD PTR tv425[ebp]
	movss	xmm0, DWORD PTR tv425[ebp]
	subss	xmm0, DWORD PTR _myY$[ebp]
	mov	ecx, DWORD PTR _theObject$[ebp]
	movss	DWORD PTR tv476[ebp], xmm0
	call	?YPos@VuEntity@@QBEMXZ			; VuEntity::YPos
	fstp	DWORD PTR tv429[ebp]
	movss	xmm0, DWORD PTR tv429[ebp]
	subss	xmm0, DWORD PTR _myY$[ebp]
	movss	xmm1, DWORD PTR tv476[ebp]
	mulss	xmm1, xmm0
	movss	xmm0, DWORD PTR tv474[ebp]
	addss	xmm0, xmm1
	movss	DWORD PTR _tmpRange$[ebp], xmm0

; 1074 : 
; 1075 : 					if (tmpRange < *range)

	mov	eax, DWORD PTR _range$[ebp]
	movss	xmm0, DWORD PTR [eax]
	comiss	xmm0, DWORD PTR _tmpRange$[ebp]
	jbe	SHORT $LN2@FindNeares

; 1076 : 					{
; 1077 : 						*range = tmpRange;

	mov	ecx, DWORD PTR _range$[ebp]
	movss	xmm0, DWORD PTR _tmpRange$[ebp]
	movss	DWORD PTR [ecx], xmm0

; 1078 : 						retval = theObject;

	mov	edx, DWORD PTR _theObject$[ebp]
	mov	DWORD PTR _retval$[ebp], edx
$LN2@FindNeares:

; 1079 : 					}
; 1080 : 				}
; 1081 : 			}
; 1082 : 		}
; 1083 : 		theObject = (SimBaseClass*)updateWalker.GetNext();

	lea	ecx, DWORD PTR _updateWalker$[ebp]
	call	?GetNext@VuListIterator@@QAEPAVVuEntity@@XZ ; VuListIterator::GetNext
	mov	DWORD PTR _theObject$[ebp], eax

; 1084 : 	}

	jmp	$LN9@FindNeares
$LN8@FindNeares:

; 1085 : 
; 1086 : 	if (retval)

	cmp	DWORD PTR _retval$[ebp], 0
	je	$LN1@FindNeares

; 1087 : 	{
; 1088 : 		*bearing = (float)atan2(retval->YPos() - myY, retval->XPos() - myX) * RTD;

	mov	ecx, DWORD PTR _retval$[ebp]
	call	?XPos@VuEntity@@QBEMXZ			; VuEntity::XPos
	fstp	DWORD PTR tv439[ebp]
	movss	xmm0, DWORD PTR tv439[ebp]
	subss	xmm0, DWORD PTR _myX$[ebp]
	cvtss2sd xmm0, xmm0
	sub	esp, 8
	movsd	QWORD PTR [esp], xmm0
	mov	ecx, DWORD PTR _retval$[ebp]
	call	?YPos@VuEntity@@QBEMXZ			; VuEntity::YPos
	fstp	DWORD PTR tv443[ebp]
	movss	xmm0, DWORD PTR tv443[ebp]
	subss	xmm0, DWORD PTR _myY$[ebp]
	cvtss2sd xmm0, xmm0
	sub	esp, 8
	movsd	QWORD PTR [esp], xmm0
	call	?checked_atan2@@YANNN@Z			; checked_atan2
	add	esp, 16					; 00000010H
	fstp	QWORD PTR tv449[ebp]
	movsd	xmm0, QWORD PTR tv449[ebp]
	cvtsd2ss xmm0, xmm0
	mulss	xmm0, DWORD PTR __real@42652ee1
	mov	eax, DWORD PTR _bearing$[ebp]
	movss	DWORD PTR [eax], xmm0

; 1089 : 		*range = (float)sqrt(*range);

	mov	ecx, DWORD PTR _range$[ebp]
	push	ecx
	movss	xmm0, DWORD PTR [ecx]
	movss	DWORD PTR [esp], xmm0
	call	?SqrtSSE@@YAMM@Z			; SqrtSSE
	add	esp, 4
	mov	edx, DWORD PTR _range$[ebp]
	fstp	DWORD PTR [edx]

; 1090 : 		*altitude = -retval->ZPos();

	mov	ecx, DWORD PTR _retval$[ebp]
	call	?ZPos@VuEntity@@QBEMXZ			; VuEntity::ZPos
	fstp	DWORD PTR tv460[ebp]
	movss	xmm0, DWORD PTR tv460[ebp]
	xorps	xmm0, DWORD PTR __xmm@80000000800000008000000080000000
	mov	eax, DWORD PTR _altitude$[ebp]
	movss	DWORD PTR [eax], xmm0
$LN1@FindNeares:

; 1091 : 	}
; 1092 : 
; 1093 : 	return (retval);

	mov	ecx, DWORD PTR _retval$[ebp]
	mov	DWORD PTR $T2[ebp], ecx
	mov	DWORD PTR __$EHRec$[ebp+8], -1
	lea	ecx, DWORD PTR _updateWalker$[ebp]
	call	??1VuListIterator@@UAE@XZ		; VuListIterator::~VuListIterator
	mov	eax, DWORD PTR $T2[ebp]
$LN11@FindNeares:

; 1094 : }

	mov	ecx, DWORD PTR __$EHRec$[ebp]
	mov	DWORD PTR fs:0, ecx
	pop	ecx
	mov	esp, ebp
	pop	ebp
	ret	12					; 0000000cH
_TEXT	ENDS
text$x	SEGMENT
__unwindfunclet$?FindNearestThreat@SimulationDriver@@QAEPAVSimBaseClass@@PAM00@Z$0:
	lea	ecx, DWORD PTR _updateWalker$[ebp]
	jmp	??1VuListIterator@@UAE@XZ		; VuListIterator::~VuListIterator
__ehhandler$?FindNearestThreat@SimulationDriver@@QAEPAVSimBaseClass@@PAM00@Z:
	mov	edx, DWORD PTR [esp+8]
	lea	eax, DWORD PTR [edx+12]
	mov	ecx, DWORD PTR [edx-132]
	xor	ecx, eax
	call	@__security_check_cookie@4
	mov	eax, OFFSET __ehfuncinfo$?FindNearestThreat@SimulationDriver@@QAEPAVSimBaseClass@@PAM00@Z
	jmp	___CxxFrameHandler3
text$x	ENDS
?FindNearestThreat@SimulationDriver@@QAEPAVSimBaseClass@@PAM00@Z ENDP ; SimulationDriver::FindNearestThreat
; Function compile flags: /Odtp
; File c:\users\zhitao li\documents\visual studio 2012\projects\freefalcon\sim\simdrive\simdrive.cpp
_TEXT	SEGMENT
_this$ = -4						; size = 4
_oldEntity$ = 8						; size = 4
?UpdateIAStats@SimulationDriver@@QAEXPAVSimBaseClass@@@Z PROC ; SimulationDriver::UpdateIAStats
; _this$ = ecx

; 848  : {

	push	ebp
	mov	ebp, esp
	push	ecx
	mov	DWORD PTR _this$[ebp], ecx

; 849  : 	if ((oldEntity->IsSetFlag(MOTION_MSL_AI)) ||
; 850  : 			(oldEntity->IsSetFlag(MOTION_BMB_AI)))

	push	524288					; 00080000H
	mov	ecx, DWORD PTR _oldEntity$[ebp]
	call	?IsSetFlag@SimBaseClass@@QBEHH@Z	; SimBaseClass::IsSetFlag
	test	eax, eax
	jne	SHORT $LN3@UpdateIASt
	push	1048576					; 00100000H
	mov	ecx, DWORD PTR _oldEntity$[ebp]
	call	?IsSetFlag@SimBaseClass@@QBEHH@Z	; SimBaseClass::IsSetFlag
	test	eax, eax
	je	SHORT $LN4@UpdateIASt
$LN3@UpdateIASt:

; 851  : 	{
; 852  : 		//InstantAction.ExpendWeapons(oldEntity);
; 853  : 		return;

	jmp	SHORT $LN5@UpdateIASt

; 854  : 	}
; 855  : 	else if (!(oldEntity->IsSetFlag(MOTION_AIR_AI)) &&

	jmp	SHORT $LN5@UpdateIASt
$LN4@UpdateIASt:

; 856  : 			!(oldEntity->IsSetFlag(MOTION_GND_AI)) &&
; 857  : 			!(oldEntity->IsSetFlag(MOTION_HELO_AI)))

	push	131072					; 00020000H
	mov	ecx, DWORD PTR _oldEntity$[ebp]
	call	?IsSetFlag@SimBaseClass@@QBEHH@Z	; SimBaseClass::IsSetFlag
	test	eax, eax
	jne	SHORT $LN5@UpdateIASt
	push	262144					; 00040000H
	mov	ecx, DWORD PTR _oldEntity$[ebp]
	call	?IsSetFlag@SimBaseClass@@QBEHH@Z	; SimBaseClass::IsSetFlag
	test	eax, eax
	jne	SHORT $LN5@UpdateIASt
	push	2097152					; 00200000H
	mov	ecx, DWORD PTR _oldEntity$[ebp]
	call	?IsSetFlag@SimBaseClass@@QBEHH@Z	; SimBaseClass::IsSetFlag
$LN5@UpdateIASt:

; 858  : 	{
; 859  : 		return;
; 860  : 	}
; 861  : 
; 862  : 	//InstantAction.CountCoup(oldEntity);
; 863  : }

	mov	esp, ebp
	pop	ebp
	ret	4
?UpdateIAStats@SimulationDriver@@QAEXPAVSimBaseClass@@@Z ENDP ; SimulationDriver::UpdateIAStats
_TEXT	ENDS
; Function compile flags: /Odtp
; File c:\users\zhitao li\documents\visual studio 2012\projects\freefalcon\sim\simdrive\simdrive.cpp
_TEXT	SEGMENT
tv84 = -8						; size = 4
_this$ = -4						; size = 4
?GetPlayerAircraft@SimulationDriver@@QBEPAVAircraftClass@@XZ PROC ; SimulationDriver::GetPlayerAircraft
; _this$ = ecx

; 840  : AircraftClass *SimulationDriver::GetPlayerAircraft() const { 

	push	ebp
	mov	ebp, esp
	sub	esp, 8
	mov	DWORD PTR _this$[ebp], ecx

; 841  : 	return (playerEntity && playerEntity->IsAirplane()) ?
; 842  : 		((AircraftClass*)(playerEntity)) : NULL
; 843  : 	; 

	mov	eax, DWORD PTR _this$[ebp]
	cmp	DWORD PTR [eax+56], 0
	je	SHORT $LN3@GetPlayerA
	mov	ecx, DWORD PTR _this$[ebp]
	mov	edx, DWORD PTR [ecx+56]
	mov	eax, DWORD PTR _this$[ebp]
	mov	edx, DWORD PTR [edx]
	mov	ecx, DWORD PTR [eax+56]
	mov	eax, DWORD PTR [edx+192]
	call	eax
	test	eax, eax
	je	SHORT $LN3@GetPlayerA
	mov	ecx, DWORD PTR _this$[ebp]
	mov	edx, DWORD PTR [ecx+56]
	mov	DWORD PTR tv84[ebp], edx
	jmp	SHORT $LN4@GetPlayerA
$LN3@GetPlayerA:
	mov	DWORD PTR tv84[ebp], 0
$LN4@GetPlayerA:
	mov	eax, DWORD PTR tv84[ebp]

; 844  : }

	mov	esp, ebp
	pop	ebp
	ret	0
?GetPlayerAircraft@SimulationDriver@@QBEPAVAircraftClass@@XZ ENDP ; SimulationDriver::GetPlayerAircraft
_TEXT	ENDS
; Function compile flags: /Odtp
; File c:\users\zhitao li\documents\visual studio 2012\projects\freefalcon\sim\simdrive\simdrive.cpp
_TEXT	SEGMENT
$T2 = -64						; size = 8
_ATCId$3 = -56						; size = 8
_range$4 = -48						; size = 4
_type$5 = -44						; size = 4
_ilsf$6 = -40						; size = 4
$T7 = -36						; size = 4
tv193 = -32						; size = 4
$T8 = -28						; size = 4
tv189 = -24						; size = 4
_atcMsg$9 = -20						; size = 4
_this$ = -16						; size = 4
__$EHRec$ = -12						; size = 12
_newObject$ = 8						; size = 4
?SetPlayerEntity@SimulationDriver@@QAEXPAVSimMoverClass@@@Z PROC ; SimulationDriver::SetPlayerEntity
; _this$ = ecx

; 788  : {

	push	ebp
	mov	ebp, esp
	push	-1
	push	__ehhandler$?SetPlayerEntity@SimulationDriver@@QAEXPAVSimMoverClass@@@Z
	mov	eax, DWORD PTR fs:0
	push	eax
	sub	esp, 52					; 00000034H
	mov	eax, DWORD PTR ___security_cookie
	xor	eax, ebp
	push	eax
	lea	eax, DWORD PTR __$EHRec$[ebp]
	mov	DWORD PTR fs:0, eax
	mov	DWORD PTR _this$[ebp], ecx

; 789  : 	if (playerEntity == newObject){

	mov	eax, DWORD PTR _this$[ebp]
	mov	ecx, DWORD PTR [eax+56]
	cmp	ecx, DWORD PTR _newObject$[ebp]
	jne	SHORT $LN9@SetPlayerE

; 790  : 		return;

	jmp	$LN10@SetPlayerE
$LN9@SetPlayerE:

; 791  : 	}
; 792  : 	
; 793  : 	// 2002-02-11 MODIFIED BY S.G. A player can also be a EjectedPilotClass
; 794  : 	if (newObject == NULL || newObject->IsAirplane() || newObject->IsEject()){

	cmp	DWORD PTR _newObject$[ebp], 0
	je	SHORT $LN7@SetPlayerE
	mov	edx, DWORD PTR _newObject$[ebp]
	mov	eax, DWORD PTR [edx]
	mov	ecx, DWORD PTR _newObject$[ebp]
	mov	edx, DWORD PTR [eax+192]
	call	edx
	test	eax, eax
	jne	SHORT $LN7@SetPlayerE
	mov	eax, DWORD PTR _newObject$[ebp]
	mov	edx, DWORD PTR [eax]
	mov	ecx, DWORD PTR _newObject$[ebp]
	mov	eax, DWORD PTR [edx+188]
	call	eax
	test	eax, eax
	je	SHORT $LN8@SetPlayerE
$LN7@SetPlayerE:

; 795  : 		// sfr: reference / derefence stuff
; 796  : 		if (playerEntity != NULL){

	mov	ecx, DWORD PTR _this$[ebp]
	cmp	DWORD PTR [ecx+56], 0
	je	SHORT $LN6@SetPlayerE

; 797  : 			VuDeReferenceEntity(playerEntity);

	mov	edx, DWORD PTR _this$[ebp]
	mov	eax, DWORD PTR [edx+56]
	push	eax
	call	?VuDeReferenceEntity@@YAHPAVVuEntity@@@Z ; VuDeReferenceEntity
	add	esp, 4
$LN6@SetPlayerE:

; 798  : 		}
; 799  : 		if (newObject != NULL){

	cmp	DWORD PTR _newObject$[ebp], 0
	je	SHORT $LN5@SetPlayerE

; 800  : 			VuReferenceEntity(newObject);

	mov	ecx, DWORD PTR _newObject$[ebp]
	push	ecx
	call	?VuReferenceEntity@@YAHPAVVuEntity@@@Z	; VuReferenceEntity
	add	esp, 4
$LN5@SetPlayerE:

; 801  : 		}
; 802  : 
; 803  : 		playerEntity = newObject;

	mov	edx, DWORD PTR _this$[ebp]
	mov	eax, DWORD PTR _newObject$[ebp]
	mov	DWORD PTR [edx+56], eax

; 804  : 		//MI reset our avionics
; 805  : 		playerLastMasterMode = FireControlComputer::Nav;

	mov	DWORD PTR ?playerLastMasterMode@@3W4FCCMasterMode@FireControlComputer@@A, 4 ; playerLastMasterMode

; 806  : 		playerLastSubMode = FireControlComputer::ETE;

	mov	DWORD PTR ?playerLastSubMode@@3W4FCCSubMode@FireControlComputer@@A, 19 ; playerLastSubMode, 00000013H
$LN8@SetPlayerE:

; 807  : 	}
; 808  : 
; 809  : 
; 810  : 	///VWF HACK: The following is a hack to make the Tac Eng Instrument
; 811  : 	// Landing Mission agree with the Manual
; 812  : 	if(
; 813  : 		RunningTactical() && 
; 814  : 		current_tactical_mission &&
; 815  : 		current_tactical_mission->get_type() == tt_training &&
; 816  : 		!strcmpi(current_tactical_mission->get_title(), "10 Instrument Landing") &&
; 817  : 		gNavigationSys
; 818  : 	){

	mov	ecx, DWORD PTR _this$[ebp]
	call	?RunningTactical@SimulationDriver@@QBE_NXZ ; SimulationDriver::RunningTactical
	movzx	ecx, al
	test	ecx, ecx
	je	$LN4@SetPlayerE
	cmp	DWORD PTR ?current_tactical_mission@@3PAVtactical_mission@@A, 0 ; current_tactical_mission
	je	$LN4@SetPlayerE
	mov	ecx, DWORD PTR ?current_tactical_mission@@3PAVtactical_mission@@A ; current_tactical_mission
	call	?get_type@tactical_mission@@QAE?AW4tactical_type@@XZ ; tactical_mission::get_type
	cmp	eax, 3
	jne	$LN4@SetPlayerE
	push	OFFSET ??_C@_0BG@JDDPNFOC@10?5Instrument?5Landing?$AA@
	mov	ecx, DWORD PTR ?current_tactical_mission@@3PAVtactical_mission@@A ; current_tactical_mission
	call	?get_title@tactical_mission@@QAEPADXZ	; tactical_mission::get_title
	push	eax
	call	_strcmpi
	add	esp, 8
	test	eax, eax
	jne	$LN4@SetPlayerE
	cmp	DWORD PTR ?gNavigationSys@@3PAVNavigationSystem@@A, 0 ; gNavigationSys
	je	$LN4@SetPlayerE

; 819  : 		VU_ID ATCId;

	lea	ecx, DWORD PTR _ATCId$3[ebp]
	call	??0VU_ID@@QAE@XZ			; VU_ID::VU_ID

; 820  : 		gNavigationSys->SetInstrumentMode(NavigationSystem::ILS_TACAN);

	push	2
	mov	ecx, DWORD PTR ?gNavigationSys@@3PAVNavigationSystem@@A ; gNavigationSys
	call	?SetInstrumentMode@NavigationSystem@@QAEXW4Instrument_Mode@1@@Z ; NavigationSystem::SetInstrumentMode

; 821  : 		if(gTacanList) {

	cmp	DWORD PTR ?gTacanList@@3PAVTacanList@@A, 0 ; gTacanList
	je	SHORT $LN3@SetPlayerE

; 822  : 			int range, type;
; 823  : 			float ilsf;
; 824  : 			gTacanList->GetVUIDFromChannel(101, TacanList::X, TacanList::AG, &ATCId, &range, &type, &ilsf);

	lea	edx, DWORD PTR _ilsf$6[ebp]
	push	edx
	lea	eax, DWORD PTR _type$5[ebp]
	push	eax
	lea	ecx, DWORD PTR _range$4[ebp]
	push	ecx
	lea	edx, DWORD PTR _ATCId$3[ebp]
	push	edx
	push	1
	push	0
	push	101					; 00000065H
	mov	ecx, DWORD PTR ?gTacanList@@3PAVTacanList@@A ; gTacanList
	call	?GetVUIDFromChannel@TacanList@@QAEHHW4StationSet@1@W4Domain@1@PAVVU_ID@@PAH3PAM@Z ; TacanList::GetVUIDFromChannel
$LN3@SetPlayerE:

; 825  : 		}
; 826  : 		if(ATCId != FalconNullId && playerEntity) {

	push	OFFSET ?FalconNullId@@3VVU_ID@@A	; FalconNullId
	lea	ecx, DWORD PTR _ATCId$3[ebp]
	call	??9VU_ID@@QBE_NABV0@@Z			; VU_ID::operator!=
	movzx	eax, al
	test	eax, eax
	je	$LN4@SetPlayerE
	mov	ecx, DWORD PTR _this$[ebp]
	cmp	DWORD PTR [ecx+56], 0
	je	$LN4@SetPlayerE

; 827  : 			FalconATCMessage* atcMsg	= new FalconATCMessage (ATCId, FalconLocalGame);

	push	62					; 0000003eH
	call	??2@YAPAXI@Z				; operator new
	add	esp, 4
	mov	DWORD PTR $T8[ebp], eax
	mov	DWORD PTR __$EHRec$[ebp+8], 0
	cmp	DWORD PTR $T8[ebp], 0
	je	SHORT $LN14@SetPlayerE
	mov	ecx, OFFSET ?vuLocalSessionEntity@@3V?$VuBin@VVuSessionEntity@@@@A ; vuLocalSessionEntity
	call	??B?$VuBin@VVuSessionEntity@@@@QBE_NXZ	; VuBin<VuSessionEntity>::operator bool
	movzx	edx, al
	test	edx, edx
	je	SHORT $LN12@SetPlayerE
	mov	ecx, OFFSET ?vuLocalSessionEntity@@3V?$VuBin@VVuSessionEntity@@@@A ; vuLocalSessionEntity
	call	?get@?$VuBin@VVuSessionEntity@@@@QBEPAVVuSessionEntity@@XZ ; VuBin<VuSessionEntity>::get
	mov	ecx, eax
	call	?GetGame@FalconSessionEntity@@QAEPAVFalconGameEntity@@XZ ; FalconSessionEntity::GetGame
	mov	DWORD PTR tv189[ebp], eax
	jmp	SHORT $LN13@SetPlayerE
$LN12@SetPlayerE:
	mov	DWORD PTR tv189[ebp], 0
$LN13@SetPlayerE:
	push	1
	mov	eax, DWORD PTR tv189[ebp]
	push	eax
	mov	ecx, DWORD PTR _ATCId$3[ebp+4]
	push	ecx
	mov	edx, DWORD PTR _ATCId$3[ebp]
	push	edx
	mov	ecx, DWORD PTR $T8[ebp]
	call	??0FalconATCMessage@@QAE@VVU_ID@@PAVVuTargetEntity@@E@Z ; FalconATCMessage::FalconATCMessage
	mov	DWORD PTR tv193[ebp], eax
	jmp	SHORT $LN15@SetPlayerE
$LN14@SetPlayerE:
	mov	DWORD PTR tv193[ebp], 0
$LN15@SetPlayerE:
	mov	eax, DWORD PTR tv193[ebp]
	mov	DWORD PTR $T7[ebp], eax
	mov	DWORD PTR __$EHRec$[ebp+8], -1
	mov	ecx, DWORD PTR $T7[ebp]
	mov	DWORD PTR _atcMsg$9[ebp], ecx

; 828  : 			atcMsg->dataBlock.type	= 0;

	mov	edx, DWORD PTR _atcMsg$9[ebp]
	mov	DWORD PTR [edx+56], 0

; 829  : 			atcMsg->dataBlock.from	= playerEntity->Id();

	lea	eax, DWORD PTR $T2[ebp]
	push	eax
	mov	ecx, DWORD PTR _this$[ebp]
	mov	ecx, DWORD PTR [ecx+56]
	call	?Id@VuEntity@@QBE?AVVU_ID@@XZ		; VuEntity::Id
	mov	edx, DWORD PTR [eax]
	mov	eax, DWORD PTR [eax+4]
	mov	ecx, DWORD PTR _atcMsg$9[ebp]
	mov	DWORD PTR [ecx+48], edx
	mov	DWORD PTR [ecx+52], eax

; 830  : 			FalconSendMessage(atcMsg, FALSE);

	push	0
	mov	edx, DWORD PTR _atcMsg$9[ebp]
	push	edx
	call	?FalconSendMessage@@YAXPAVVuMessage@@H@Z ; FalconSendMessage
	add	esp, 8
$LN4@SetPlayerE:

; 831  : 		}
; 832  : 	}
; 833  : 
; 834  : 	// If there is no player vehicle, turn off force feedback
; 835  : 	if (!playerEntity){

	mov	eax, DWORD PTR _this$[ebp]
	cmp	DWORD PTR [eax+56], 0
	jne	SHORT $LN10@SetPlayerE

; 836  : 		JoystickStopAllEffects();

	call	?JoystickStopAllEffects@@YAXXZ		; JoystickStopAllEffects
$LN10@SetPlayerE:

; 837  : 	}
; 838  : }

	mov	ecx, DWORD PTR __$EHRec$[ebp]
	mov	DWORD PTR fs:0, ecx
	pop	ecx
	mov	esp, ebp
	pop	ebp
	ret	4
_TEXT	ENDS
text$x	SEGMENT
__unwindfunclet$?SetPlayerEntity@SimulationDriver@@QAEXPAVSimMoverClass@@@Z$0:
	mov	eax, DWORD PTR $T8[ebp]
	push	eax
	call	??3@YAXPAX@Z				; operator delete
	pop	ecx
	ret	0
__ehhandler$?SetPlayerEntity@SimulationDriver@@QAEXPAVSimMoverClass@@@Z:
	mov	edx, DWORD PTR [esp+8]
	lea	eax, DWORD PTR [edx+12]
	mov	ecx, DWORD PTR [edx-56]
	xor	ecx, eax
	call	@__security_check_cookie@4
	mov	eax, OFFSET __ehfuncinfo$?SetPlayerEntity@SimulationDriver@@QAEXPAVSimMoverClass@@@Z
	jmp	___CxxFrameHandler3
text$x	ENDS
?SetPlayerEntity@SimulationDriver@@QAEXPAVSimMoverClass@@@Z ENDP ; SimulationDriver::SetPlayerEntity
; Function compile flags: /Odtp
; File c:\users\zhitao li\documents\visual studio 2012\projects\freefalcon\sim\simdrive\simdrive.cpp
_TEXT	SEGMENT
_this$ = -4						; size = 4
_mSecPerFrame$ = 8					; size = 4
_numMinorFrames$ = 12					; size = 4
?SetFrameDescription@SimulationDriver@@QAEXHH@Z PROC	; SimulationDriver::SetFrameDescription
; _this$ = ecx

; 866  : {

	push	ebp
	mov	ebp, esp
	push	ecx
	mov	DWORD PTR _this$[ebp], ecx

; 867  : 	SimLibMinorPerMajor  = numMinorFrames;

	mov	eax, DWORD PTR _numMinorFrames$[ebp]
	mov	DWORD PTR ?SimLibMinorPerMajor@@3HA, eax ; SimLibMinorPerMajor

; 868  : 	SimLibMajorFrameTime = (float)mSecPerFrame * 0.001F * numMinorFrames;

	cvtsi2ss xmm0, DWORD PTR _mSecPerFrame$[ebp]
	mulss	xmm0, DWORD PTR __real@3a83126f
	cvtsi2ss xmm1, DWORD PTR _numMinorFrames$[ebp]
	mulss	xmm0, xmm1
	movss	DWORD PTR ?SimLibMajorFrameTime@@3MA, xmm0

; 869  : 	SimLibMajorFrameRate = 1.0F / SimLibMajorFrameTime;

	movss	xmm0, DWORD PTR __real@3f800000
	divss	xmm0, DWORD PTR ?SimLibMajorFrameTime@@3MA
	movss	DWORD PTR ?SimLibMajorFrameRate@@3MA, xmm0

; 870  : 	SimLibMinorFrameTime = SimLibMajorFrameTime / (float)SimLibMinorPerMajor;

	cvtsi2ss xmm0, DWORD PTR ?SimLibMinorPerMajor@@3HA ; SimLibMinorPerMajor
	movss	xmm1, DWORD PTR ?SimLibMajorFrameTime@@3MA
	divss	xmm1, xmm0
	movss	DWORD PTR ?SimLibMinorFrameTime@@3MA, xmm1

; 871  : 	SimLibMinorFrameRate = 1.0F / SimLibMinorFrameTime;

	movss	xmm0, DWORD PTR __real@3f800000
	divss	xmm0, DWORD PTR ?SimLibMinorFrameTime@@3MA
	movss	DWORD PTR ?SimLibMinorFrameRate@@3MA, xmm0

; 872  : }

	mov	esp, ebp
	pop	ebp
	ret	8
?SetFrameDescription@SimulationDriver@@QAEXHH@Z ENDP	; SimulationDriver::SetFrameDescription
_TEXT	ENDS
; Function compile flags: /Odtp
; File c:\users\zhitao li\documents\visual studio 2012\projects\freefalcon\sim\simdrive\simdrive.cpp
_TEXT	SEGMENT
tv77 = -16						; size = 8
_this$ = -8						; size = 4
tv73 = -4						; size = 4
?TogglePause@SimulationDriver@@QAEXXZ PROC		; SimulationDriver::TogglePause
; _this$ = ecx

; 767  : {

	push	ebp
	mov	ebp, esp
	sub	esp, 16					; 00000010H
	mov	DWORD PTR _this$[ebp], ecx

; 768  : 	if (targetCompressionRatio)

	cmp	DWORD PTR ?targetCompressionRatio@@3HA, 0 ; targetCompressionRatio
	je	SHORT $LN2@TogglePaus

; 769  : 	{
; 770  : 		SetTimeCompression(0);

	push	0
	call	?SetTimeCompression@@YAXH@Z		; SetTimeCompression
	add	esp, 4

; 771  : 		F4SilenceVoices();

	call	_F4SilenceVoices

; 772  : 	}
; 773  : 	else

	jmp	SHORT $LN1@TogglePaus
$LN2@TogglePaus:

; 774  : 	{
; 775  : 		SetTimeCompression(1);

	push	1
	call	?SetTimeCompression@@YAXH@Z		; SetTimeCompression
	add	esp, 4

; 776  : 		F4HearVoices();

	call	_F4HearVoices
$LN1@TogglePaus:

; 777  : 	}
; 778  : 
; 779  : 	motionOn = 1;

	mov	eax, DWORD PTR _this$[ebp]
	mov	DWORD PTR [eax+352], 1

; 780  : 
; 781  : 	SimLibElapsedTime = vuxGameTime;

	mov	ecx, DWORD PTR ?vuxGameTime@@3KA	; vuxGameTime
	mov	DWORD PTR ?SimLibElapsedTime@@3KA, ecx	; SimLibElapsedTime

; 782  : 	UPDATE_SIM_ELAPSED_SECONDS;											// COBRA - RED - Scale Elapsed Seconds

	mov	edx, DWORD PTR ?SimLibElapsedTime@@3KA	; SimLibElapsedTime
	mov	DWORD PTR tv73[ebp], edx
	cvtsi2sd xmm0, DWORD PTR tv73[ebp]
	mov	eax, DWORD PTR tv73[ebp]
	shr	eax, 31					; 0000001fH
	addsd	xmm0, QWORD PTR __xmm@41f00000000000000000000000000000[eax*8]
	movsd	QWORD PTR tv77[ebp], xmm0
	cvtsd2ss xmm0, QWORD PTR tv77[ebp]
	divss	xmm0, DWORD PTR __real@447a0000
	movss	DWORD PTR ?SimLibElapsedSeconds@@3MA, xmm0
	movss	xmm0, DWORD PTR ?SimLibElapsedSeconds@@3MA
	subss	xmm0, DWORD PTR ?SimLibLastFrameTime@@3MA
	movss	DWORD PTR ?SimLibFrameElapsed@@3MA, xmm0
	movss	xmm0, DWORD PTR ?SimLibElapsedSeconds@@3MA
	movss	DWORD PTR ?SimLibLastFrameTime@@3MA, xmm0

; 783  : 
; 784  : }

	mov	esp, ebp
	pop	ebp
	ret	0
?TogglePause@SimulationDriver@@QAEXXZ ENDP		; SimulationDriver::TogglePause
_TEXT	ENDS
; Function compile flags: /Odtp
; File c:\users\zhitao li\documents\visual studio 2012\projects\freefalcon\sim\simdrive\simdrive.cpp
_TEXT	SEGMENT
tv73 = -16						; size = 8
_this$ = -8						; size = 4
tv69 = -4						; size = 4
?NoPause@SimulationDriver@@QAEXXZ PROC			; SimulationDriver::NoPause
; _this$ = ecx

; 757  : {

	push	ebp
	mov	ebp, esp
	sub	esp, 16					; 00000010H
	mov	DWORD PTR _this$[ebp], ecx

; 758  : 	SetTimeCompression(1);

	push	1
	call	?SetTimeCompression@@YAXH@Z		; SetTimeCompression
	add	esp, 4

; 759  : 	F4HearVoices();

	call	_F4HearVoices

; 760  : 	SimLibElapsedTime = vuxGameTime;

	mov	eax, DWORD PTR ?vuxGameTime@@3KA	; vuxGameTime
	mov	DWORD PTR ?SimLibElapsedTime@@3KA, eax	; SimLibElapsedTime

; 761  : 	UPDATE_SIM_ELAPSED_SECONDS;											// COBRA - RED - Scale Elapsed Seconds

	mov	ecx, DWORD PTR ?SimLibElapsedTime@@3KA	; SimLibElapsedTime
	mov	DWORD PTR tv69[ebp], ecx
	cvtsi2sd xmm0, DWORD PTR tv69[ebp]
	mov	edx, DWORD PTR tv69[ebp]
	shr	edx, 31					; 0000001fH
	addsd	xmm0, QWORD PTR __xmm@41f00000000000000000000000000000[edx*8]
	movsd	QWORD PTR tv73[ebp], xmm0
	cvtsd2ss xmm0, QWORD PTR tv73[ebp]
	divss	xmm0, DWORD PTR __real@447a0000
	movss	DWORD PTR ?SimLibElapsedSeconds@@3MA, xmm0
	movss	xmm0, DWORD PTR ?SimLibElapsedSeconds@@3MA
	subss	xmm0, DWORD PTR ?SimLibLastFrameTime@@3MA
	movss	DWORD PTR ?SimLibFrameElapsed@@3MA, xmm0
	movss	xmm0, DWORD PTR ?SimLibElapsedSeconds@@3MA
	movss	DWORD PTR ?SimLibLastFrameTime@@3MA, xmm0

; 762  : 
; 763  : }

	mov	esp, ebp
	pop	ebp
	ret	0
?NoPause@SimulationDriver@@QAEXXZ ENDP			; SimulationDriver::NoPause
_TEXT	ENDS
; Function compile flags: /Odtp
; File c:\users\zhitao li\documents\visual studio 2012\projects\freefalcon\sim\simdrive\simdrive.cpp
_TEXT	SEGMENT
tv75 = -16						; size = 8
_this$ = -8						; size = 4
tv71 = -4						; size = 4
?Pause@SimulationDriver@@QAEXXZ PROC			; SimulationDriver::Pause
; _this$ = ecx

; 744  : {

	push	ebp
	mov	ebp, esp
	sub	esp, 16					; 00000010H
	mov	DWORD PTR _this$[ebp], ecx

; 745  : 	SetTimeCompression(0);

	push	0
	call	?SetTimeCompression@@YAXH@Z		; SetTimeCompression
	add	esp, 4

; 746  : 	F4SilenceVoices();

	call	_F4SilenceVoices

; 747  : 
; 748  : 	// And no, I dont know if I need this..
; 749  : 	motionOn = 1;	

	mov	eax, DWORD PTR _this$[ebp]
	mov	DWORD PTR [eax+352], 1

; 750  : 	SimLibElapsedTime = vuxGameTime;

	mov	ecx, DWORD PTR ?vuxGameTime@@3KA	; vuxGameTime
	mov	DWORD PTR ?SimLibElapsedTime@@3KA, ecx	; SimLibElapsedTime

; 751  : 	UPDATE_SIM_ELAPSED_SECONDS;											// COBRA - RED - Scale Elapsed Seconds

	mov	edx, DWORD PTR ?SimLibElapsedTime@@3KA	; SimLibElapsedTime
	mov	DWORD PTR tv71[ebp], edx
	cvtsi2sd xmm0, DWORD PTR tv71[ebp]
	mov	eax, DWORD PTR tv71[ebp]
	shr	eax, 31					; 0000001fH
	addsd	xmm0, QWORD PTR __xmm@41f00000000000000000000000000000[eax*8]
	movsd	QWORD PTR tv75[ebp], xmm0
	cvtsd2ss xmm0, QWORD PTR tv75[ebp]
	divss	xmm0, DWORD PTR __real@447a0000
	movss	DWORD PTR ?SimLibElapsedSeconds@@3MA, xmm0
	movss	xmm0, DWORD PTR ?SimLibElapsedSeconds@@3MA
	subss	xmm0, DWORD PTR ?SimLibLastFrameTime@@3MA
	movss	DWORD PTR ?SimLibFrameElapsed@@3MA, xmm0
	movss	xmm0, DWORD PTR ?SimLibElapsedSeconds@@3MA
	movss	DWORD PTR ?SimLibLastFrameTime@@3MA, xmm0

; 752  : 
; 753  : }

	mov	esp, ebp
	pop	ebp
	ret	0
?Pause@SimulationDriver@@QAEXXZ ENDP			; SimulationDriver::Pause
_TEXT	ENDS
; Function compile flags: /Odtp
; File c:\users\zhitao li\documents\visual studio 2012\projects\freefalcon\sim\include\simdrive.h
;	COMDAT ?RunningTactical@SimulationDriver@@QBE_NXZ
_TEXT	SEGMENT
_this$ = -12						; size = 4
tv80 = -8						; size = 4
tv76 = -4						; size = 4
?RunningTactical@SimulationDriver@@QBE_NXZ PROC		; SimulationDriver::RunningTactical, COMDAT
; _this$ = ecx

; 57   : 	bool RunningTactical() const             { return FalconLocalGame->GetGameType() == game_TacticalEngagement; }

	push	ebp
	mov	ebp, esp
	sub	esp, 12					; 0000000cH
	mov	DWORD PTR _this$[ebp], ecx
	mov	ecx, OFFSET ?vuLocalSessionEntity@@3V?$VuBin@VVuSessionEntity@@@@A ; vuLocalSessionEntity
	call	??B?$VuBin@VVuSessionEntity@@@@QBE_NXZ	; VuBin<VuSessionEntity>::operator bool
	movzx	eax, al
	test	eax, eax
	je	SHORT $LN3@RunningTac
	mov	ecx, OFFSET ?vuLocalSessionEntity@@3V?$VuBin@VVuSessionEntity@@@@A ; vuLocalSessionEntity
	call	?get@?$VuBin@VVuSessionEntity@@@@QBEPAVVuSessionEntity@@XZ ; VuBin<VuSessionEntity>::get
	mov	ecx, eax
	call	?GetGame@FalconSessionEntity@@QAEPAVFalconGameEntity@@XZ ; FalconSessionEntity::GetGame
	mov	DWORD PTR tv76[ebp], eax
	jmp	SHORT $LN4@RunningTac
$LN3@RunningTac:
	mov	DWORD PTR tv76[ebp], 0
$LN4@RunningTac:
	mov	ecx, DWORD PTR tv76[ebp]
	call	?GetGameType@FalconGameEntity@@QAE?AW4FalconGameType@@XZ ; FalconGameEntity::GetGameType
	cmp	eax, 3
	jne	SHORT $LN5@RunningTac
	mov	DWORD PTR tv80[ebp], 1
	jmp	SHORT $LN6@RunningTac
$LN5@RunningTac:
	mov	DWORD PTR tv80[ebp], 0
$LN6@RunningTac:
	mov	al, BYTE PTR tv80[ebp]
	mov	esp, ebp
	pop	ebp
	ret	0
?RunningTactical@SimulationDriver@@QBE_NXZ ENDP		; SimulationDriver::RunningTactical
_TEXT	ENDS
; Function compile flags: /Odtp
; File c:\users\zhitao li\documents\visual studio 2012\projects\freefalcon\sim\include\simdrive.h
;	COMDAT ?RunningDogfight@SimulationDriver@@QBE_NXZ
_TEXT	SEGMENT
_this$ = -12						; size = 4
tv80 = -8						; size = 4
tv76 = -4						; size = 4
?RunningDogfight@SimulationDriver@@QBE_NXZ PROC		; SimulationDriver::RunningDogfight, COMDAT
; _this$ = ecx

; 55   : 	bool RunningDogfight() const             { return FalconLocalGame->GetGameType() == game_Dogfight; }

	push	ebp
	mov	ebp, esp
	sub	esp, 12					; 0000000cH
	mov	DWORD PTR _this$[ebp], ecx
	mov	ecx, OFFSET ?vuLocalSessionEntity@@3V?$VuBin@VVuSessionEntity@@@@A ; vuLocalSessionEntity
	call	??B?$VuBin@VVuSessionEntity@@@@QBE_NXZ	; VuBin<VuSessionEntity>::operator bool
	movzx	eax, al
	test	eax, eax
	je	SHORT $LN3@RunningDog
	mov	ecx, OFFSET ?vuLocalSessionEntity@@3V?$VuBin@VVuSessionEntity@@@@A ; vuLocalSessionEntity
	call	?get@?$VuBin@VVuSessionEntity@@@@QBEPAVVuSessionEntity@@XZ ; VuBin<VuSessionEntity>::get
	mov	ecx, eax
	call	?GetGame@FalconSessionEntity@@QAEPAVFalconGameEntity@@XZ ; FalconSessionEntity::GetGame
	mov	DWORD PTR tv76[ebp], eax
	jmp	SHORT $LN4@RunningDog
$LN3@RunningDog:
	mov	DWORD PTR tv76[ebp], 0
$LN4@RunningDog:
	mov	ecx, DWORD PTR tv76[ebp]
	call	?GetGameType@FalconGameEntity@@QAE?AW4FalconGameType@@XZ ; FalconGameEntity::GetGameType
	cmp	eax, 2
	jne	SHORT $LN5@RunningDog
	mov	DWORD PTR tv80[ebp], 1
	jmp	SHORT $LN6@RunningDog
$LN5@RunningDog:
	mov	DWORD PTR tv80[ebp], 0
$LN6@RunningDog:
	mov	al, BYTE PTR tv80[ebp]
	mov	esp, ebp
	pop	ebp
	ret	0
?RunningDogfight@SimulationDriver@@QBE_NXZ ENDP		; SimulationDriver::RunningDogfight
_TEXT	ENDS
; Function compile flags: /Odtp
; File c:\users\zhitao li\documents\visual studio 2012\projects\freefalcon\sim\simdrive\simdrive.cpp
_TEXT	SEGMENT
_this$ = -4						; size = 4
?Exit@SimulationDriver@@QAEXXZ PROC			; SimulationDriver::Exit
; _this$ = ecx

; 430  : {

	push	ebp
	mov	ebp, esp
	push	ecx
	mov	DWORD PTR _this$[ebp], ecx

; 431  : 	// sfr: this cannot happen in MP
; 432  : #define NO_KILL_ON_EXIT 1
; 433  : #if !NO_KILL_ON_EXIT
; 434  : 	SimBaseClass *theObject, *nextObject;
; 435  : 	VuListIterator objectWalker (objectList);
; 436  : 	// Kill All remaining awake sim Entities
; 437  : 	for (
; 438  : 		theObject = static_cast<SimBaseClass*>(objectWalker.GetFirst());
; 439  : 		theObject != NULL;
; 440  : 		theObject = nextObject
; 441  : 	){
; 442  : 		nextObject = static_cast<SimBaseClass*>(objectWalker.GetNext());
; 443  : 		theObject->SetDead(TRUE);
; 444  : 	}
; 445  : #endif
; 446  : 
; 447  : 	if (F4EventFile){

	cmp	DWORD PTR ?F4EventFile@@3PAU_iobuf@@A, 0 ; F4EventFile
	je	SHORT $LN2@Exit

; 448  : 		fclose(F4EventFile);

	mov	eax, DWORD PTR ?F4EventFile@@3PAU_iobuf@@A ; F4EventFile
	push	eax
	call	_fclose
	add	esp, 4
$LN2@Exit:

; 449  : 	}
; 450  : 	F4EventFile = NULL;

	mov	DWORD PTR ?F4EventFile@@3PAU_iobuf@@A, 0 ; F4EventFile

; 451  : 
; 452  : 	if (gACMIRec.IsRecording()){

	mov	ecx, OFFSET ?gACMIRec@@3VACMIRecorder@@A ; gACMIRec
	call	?IsRecording@ACMIRecorder@@QAEHXZ	; ACMIRecorder::IsRecording
	test	eax, eax
	je	SHORT $LN1@Exit

; 453  : 		gACMIRec.StopRecording();

	mov	ecx, OFFSET ?gACMIRec@@3VACMIRecorder@@A ; gACMIRec
	call	?StopRecording@ACMIRecorder@@QAEXXZ	; ACMIRecorder::StopRecording

; 454  : 		SimDriver.SetAVTR(FALSE);

	push	0
	mov	ecx, OFFSET ?SimDriver@@3VSimulationDriver@@A ; SimDriver
	call	?SetAVTR@SimulationDriver@@QAEXH@Z	; SimulationDriver::SetAVTR
$LN1@Exit:

; 455  : 	}
; 456  : 
; 457  : 	F4SoundFXEnd();

	call	_F4SoundFXEnd

; 458  : 	F4SoundStop();

	call	_F4SoundStop

; 459  : }

	mov	esp, ebp
	pop	ebp
	ret	0
?Exit@SimulationDriver@@QAEXXZ ENDP			; SimulationDriver::Exit
_TEXT	ENDS
; Function compile flags: /Odtp
; File c:\users\zhitao li\documents\visual studio 2012\projects\freefalcon\sim\simdrive\simdrive.cpp
_TEXT	SEGMENT
_this$ = -4						; size = 4
?Enter@SimulationDriver@@QAEXXZ PROC			; SimulationDriver::Enter
; _this$ = ecx

; 409  : {

	push	ebp
	mov	ebp, esp
	push	ecx
	mov	DWORD PTR _this$[ebp], ecx

; 410  : 	nextATCTime = 0;

	mov	eax, DWORD PTR _this$[ebp]
	mov	DWORD PTR [eax+360], 0

; 411  : 	OwnResults.ClearData();

	mov	ecx, OFFSET ?OwnResults@@3VOwnshipResultsClass@@A ; OwnResults
	call	?ClearData@OwnshipResultsClass@@QAEXXZ	; OwnshipResultsClass::ClearData

; 412  : 	gNumWeaponsInAir = 0;

	mov	DWORD PTR ?gNumWeaponsInAir@@3HA, 0	; gNumWeaponsInAir

; 413  : 
; 414  : 	if (SimDriver.doEvent){

	cmp	DWORD PTR ?SimDriver@@3VSimulationDriver@@A+44, 0
	je	SHORT $LN3@Enter

; 415  : 		F4EventFile = OpenCampFile("lastflt", "acm", "wb");

	push	OFFSET ??_C@_02GMLFBBN@wb?$AA@
	push	OFFSET ??_C@_03MHODNABG@acm?$AA@
	push	OFFSET ??_C@_07KFGPMNDK@lastflt?$AA@
	call	?OpenCampFile@@YAPAU_iobuf@@PAD00@Z	; OpenCampFile
	add	esp, 12					; 0000000cH
	mov	DWORD PTR ?F4EventFile@@3PAU_iobuf@@A, eax ; F4EventFile

; 416  : 	}
; 417  : 	else {

	jmp	SHORT $LN2@Enter
$LN3@Enter:

; 418  : 		F4EventFile = NULL;

	mov	DWORD PTR ?F4EventFile@@3PAU_iobuf@@A, 0 ; F4EventFile
$LN2@Enter:

; 419  : 	}
; 420  : 
; 421  : 	if (IO.Init((char *)"joy1.dat") != SIMLIB_OK){

	push	OFFSET ??_C@_08KHFFPPFI@joy1?4dat?$AA@
	mov	ecx, OFFSET ?IO@@3VSIMLIB_IO_CLASS@@A	; IO
	call	?Init@SIMLIB_IO_CLASS@@QAEHPAD@Z	; SIMLIB_IO_CLASS::Init
	test	eax, eax
	je	SHORT $LN1@Enter

; 422  : 		MonoPrint ("No Joystick Connected\n");

	push	OFFSET ??_C@_0BH@MCIBMPHE@No?5Joystick?5Connected?6?$AA@
	call	_MonoPrint
	add	esp, 4
$LN1@Enter:

; 423  : 	}
; 424  : 
; 425  : 	OTWDriver.SetActive(TRUE);

	push	1
	mov	ecx, OFFSET ?OTWDriver@@3VOTWDriverClass@@A ; OTWDriver
	call	?SetActive@OTWDriverClass@@QAEXH@Z	; OTWDriverClass::SetActive

; 426  : }

	mov	esp, ebp
	pop	ebp
	ret	0
?Enter@SimulationDriver@@QAEXXZ ENDP			; SimulationDriver::Enter
_TEXT	ENDS
; Function compile flags: /Odtp
; File c:\users\zhitao li\documents\visual studio 2012\projects\freefalcon\sim\simdrive\simdrive.cpp
_TEXT	SEGMENT
tv600 = -124						; size = 8
_objectWalker$2 = -116					; size = 12
tv578 = -104						; size = 4
tv564 = -100						; size = 4
_x$3 = -96						; size = 4
_game$4 = -92						; size = 4
tv596 = -88						; size = 4
tv156 = -84						; size = 4
tv95 = -80						; size = 4
_gndz$ = -76						; size = 4
_vol$5 = -72						; size = 4
_next$6 = -68						; size = 4
_z$7 = -64						; size = 4
_y$8 = -60						; size = 4
tv261 = -56						; size = 4
_v$9 = -52						; size = 4
_pit$10 = -48						; size = 4
_processObjsAddedInCycle$11 = -44			; size = 4
_elapsedTime$ = -40					; size = 4
_theObject$12 = -36					; size = 4
_this$ = -32						; size = 4
_wind$13 = -28						; size = 12
__$ArrayPad$ = -16					; size = 4
__$EHRec$ = -12						; size = 12
?Cycle@SimulationDriver@@QAEXXZ PROC			; SimulationDriver::Cycle
; _this$ = ecx

; 461  : void SimulationDriver::Cycle(){

	push	ebp
	mov	ebp, esp
	push	-1
	push	__ehhandler$?Cycle@SimulationDriver@@QAEXXZ
	mov	eax, DWORD PTR fs:0
	push	eax
	sub	esp, 112				; 00000070H
	mov	eax, DWORD PTR ___security_cookie
	xor	eax, ebp
	mov	DWORD PTR __$ArrayPad$[ebp], eax
	push	eax
	lea	eax, DWORD PTR __$EHRec$[ebp]
	mov	DWORD PTR fs:0, eax
	mov	DWORD PTR _this$[ebp], ecx

; 462  : 	//START_PROFILE("SIMCYCLE_BEGIN");
; 463  : 	//VuListIterator	objectWalker (objectList);
; 464  : 	static int runFrame, runGraphics = false;
; 465  : 	long	elapsedTime;
; 466  : 	float	gndz;
; 467  : 
; 468  : 	// Catch up for time elapsed
; 469  : 	//ShiAssert(lastRealTime <= vuxGameTime);
; 470  : 	if(lastRealTime > vuxGameTime){

	mov	eax, DWORD PTR _this$[ebp]
	mov	ecx, DWORD PTR [eax+52]
	cmp	ecx, DWORD PTR ?vuxGameTime@@3KA	; vuxGameTime
	jbe	SHORT $LN38@Cycle

; 471  : 		lastRealTime = vuxGameTime;

	mov	edx, DWORD PTR _this$[ebp]
	mov	eax, DWORD PTR ?vuxGameTime@@3KA	; vuxGameTime
	mov	DWORD PTR [edx+52], eax
$LN38@Cycle:

; 472  : 	}
; 473  : 
; 474  : 	elapsedTime = vuxGameTime - lastRealTime;

	mov	ecx, DWORD PTR _this$[ebp]
	mov	edx, DWORD PTR ?vuxGameTime@@3KA	; vuxGameTime
	sub	edx, DWORD PTR [ecx+52]
	mov	DWORD PTR _elapsedTime$[ebp], edx

; 475  : 	curFlyState = FalconLocalSession->GetFlyState();

	mov	ecx, OFFSET ?vuLocalSessionEntity@@3V?$VuBin@VVuSessionEntity@@@@A ; vuLocalSessionEntity
	call	?get@?$VuBin@VVuSessionEntity@@@@QBEPAVVuSessionEntity@@XZ ; VuBin<VuSessionEntity>::get
	mov	ecx, eax
	call	?GetFlyState@FalconSessionEntity@@QBEEXZ ; FalconSessionEntity::GetFlyState
	movzx	eax, al
	mov	ecx, DWORD PTR _this$[ebp]
	mov	DWORD PTR [ecx+72], eax

; 476  : 	RefreshVoiceFreqs();//me123

	call	?RefreshVoiceFreqs@@YAXXZ		; RefreshVoiceFreqs

; 477  : 
; 478  : 	if ((elapsedTime >= 10) && (gameCompressionRatio)){

	cmp	DWORD PTR _elapsedTime$[ebp], 10	; 0000000aH
	jl	$LN37@Cycle
	cmp	DWORD PTR ?gameCompressionRatio@@3HA, 0	; gameCompressionRatio
	je	$LN37@Cycle

; 479  : 		// Check if the graphics are runnning and read inputs, if so.
; 480  : 		if (curFlyState == FLYSTATE_FLYING || curFlyState == FLYSTATE_DEAD){

	mov	edx, DWORD PTR _this$[ebp]
	cmp	DWORD PTR [edx+72], 3
	je	SHORT $LN35@Cycle
	mov	eax, DWORD PTR _this$[ebp]
	cmp	DWORD PTR [eax+72], 4
	jne	SHORT $LN36@Cycle
$LN35@Cycle:

; 481  : 			UserStickInputs.Update();

	mov	ecx, OFFSET ?UserStickInputs@@3VPilotInputs@@A ; UserStickInputs
	call	?Update@PilotInputs@@QAEXXZ		; PilotInputs::Update

; 482  : 			runGraphics = true;

	mov	DWORD PTR ?runGraphics@?1??Cycle@SimulationDriver@@QAEXXZ@4HA, 1

; 483  : 		}
; 484  : 		else {

	jmp	SHORT $LN34@Cycle
$LN36@Cycle:

; 485  : 			runGraphics = false;

	mov	DWORD PTR ?runGraphics@?1??Cycle@SimulationDriver@@QAEXXZ@4HA, 0
$LN34@Cycle:

; 486  : 		}
; 487  : 
; 488  : 		SimLibLastMajorFrameTime = SimLibMajorFrameTime;

	movss	xmm0, DWORD PTR ?SimLibMajorFrameTime@@3MA
	movss	DWORD PTR ?SimLibLastMajorFrameTime@@3MA, xmm0

; 489  : 		SimLibMajorFrameTime = max (0.01F, ((float)(elapsedTime)) / SEC_TO_MSEC);

	cvtsi2ss xmm0, DWORD PTR _elapsedTime$[ebp]
	divss	xmm0, DWORD PTR __real@447a0000
	movss	xmm1, DWORD PTR __real@3c23d70a
	comiss	xmm1, xmm0
	jbe	SHORT $LN41@Cycle
	movss	xmm0, DWORD PTR __real@3c23d70a
	movss	DWORD PTR tv95[ebp], xmm0
	jmp	SHORT $LN42@Cycle
$LN41@Cycle:
	cvtsi2ss xmm0, DWORD PTR _elapsedTime$[ebp]
	divss	xmm0, DWORD PTR __real@447a0000
	movss	DWORD PTR tv95[ebp], xmm0
$LN42@Cycle:
	movss	xmm0, DWORD PTR tv95[ebp]
	movss	DWORD PTR ?SimLibMajorFrameTime@@3MA, xmm0

; 490  : 
; 491  : 		for ( SimLibMinorPerMajor = 1; SimLibMinorPerMajor < 100; SimLibMinorPerMajor++ ){

	mov	DWORD PTR ?SimLibMinorPerMajor@@3HA, 1	; SimLibMinorPerMajor
	jmp	SHORT $LN33@Cycle
$LN32@Cycle:
	mov	ecx, DWORD PTR ?SimLibMinorPerMajor@@3HA ; SimLibMinorPerMajor
	add	ecx, 1
	mov	DWORD PTR ?SimLibMinorPerMajor@@3HA, ecx ; SimLibMinorPerMajor
$LN33@Cycle:
	cmp	DWORD PTR ?SimLibMinorPerMajor@@3HA, 100 ; SimLibMinorPerMajor, 00000064H
	jge	SHORT $LN31@Cycle

; 492  : 			SimLibMinorFrameTime = SimLibMajorFrameTime/(float)SimLibMinorPerMajor;

	cvtsi2ss xmm0, DWORD PTR ?SimLibMinorPerMajor@@3HA ; SimLibMinorPerMajor
	movss	xmm1, DWORD PTR ?SimLibMajorFrameTime@@3MA
	divss	xmm1, xmm0
	movss	DWORD PTR ?SimLibMinorFrameTime@@3MA, xmm1

; 493  : 			if ( SimLibMinorFrameTime <= 0.05f ){

	movss	xmm0, DWORD PTR __real@3d4ccccd
	comiss	xmm0, DWORD PTR ?SimLibMinorFrameTime@@3MA
	jb	SHORT $LN30@Cycle

; 494  : 				break;

	jmp	SHORT $LN31@Cycle
$LN30@Cycle:

; 495  : 			}
; 496  : 		}

	jmp	SHORT $LN32@Cycle
$LN31@Cycle:

; 497  : 
; 498  : 		runFrame = true;

	mov	DWORD PTR ?runFrame@?1??Cycle@SimulationDriver@@QAEXXZ@4HA, 1

; 499  : 
; 500  : 		SimLibMajorFrameRate = 1.0F / SimLibMajorFrameTime;

	movss	xmm0, DWORD PTR __real@3f800000
	divss	xmm0, DWORD PTR ?SimLibMajorFrameTime@@3MA
	movss	DWORD PTR ?SimLibMajorFrameRate@@3MA, xmm0

; 501  : 		SimLibMinorFrameRate = 1.0F / SimLibMinorFrameTime;

	movss	xmm0, DWORD PTR __real@3f800000
	divss	xmm0, DWORD PTR ?SimLibMinorFrameTime@@3MA
	movss	DWORD PTR ?SimLibMinorFrameRate@@3MA, xmm0

; 502  : 
; 503  : 		lastRealTime = vuxGameTime;

	mov	edx, DWORD PTR _this$[ebp]
	mov	eax, DWORD PTR ?vuxGameTime@@3KA	; vuxGameTime
	mov	DWORD PTR [edx+52], eax

; 504  : 	}
; 505  : 	else{

	jmp	SHORT $LN29@Cycle
$LN37@Cycle:

; 506  : 		runFrame = false;

	mov	DWORD PTR ?runFrame@?1??Cycle@SimulationDriver@@QAEXXZ@4HA, 0
$LN29@Cycle:

; 507  : 	}
; 508  : 
; 509  : 	lastFlyState = curFlyState;

	mov	ecx, DWORD PTR _this$[ebp]
	mov	edx, DWORD PTR _this$[ebp]
	mov	eax, DWORD PTR [edx+72]
	mov	DWORD PTR [ecx+68], eax

; 510  : 	last_elapsedTime = elapsedTime;

	mov	ecx, DWORD PTR _this$[ebp]
	mov	edx, DWORD PTR _elapsedTime$[ebp]
	mov	DWORD PTR [ecx+64], edx

; 511  : 
; 512  : 	// doFile is a flag that tells us a state change for ACMI recording
; 513  : 	// was made.  If TRUE, we need to toggle ACMI recording here.
; 514  : 	// we need to do this here because when recording starts it must
; 515  : 	// walk thru all objects (via a callback to SimDriver::InitACMIRecord)
; 516  : 	// and this must be thread safe
; 517  : 	//
; 518  : 	// SCR:  6/18/98  Can this go to a better place once the sim/graphics threads
; 519  : 	//                are merged?
; 520  : 	if ( doFile ){

	mov	eax, DWORD PTR _this$[ebp]
	cmp	DWORD PTR [eax+40], 0
	je	SHORT $LN28@Cycle

; 521  : 		gACMIRec.ToggleRecording ();

	mov	ecx, OFFSET ?gACMIRec@@3VACMIRecorder@@A ; gACMIRec
	call	?ToggleRecording@ACMIRecorder@@QAEXXZ	; ACMIRecorder::ToggleRecording

; 522  : 		doFile = FALSE;

	mov	ecx, DWORD PTR _this$[ebp]
	mov	DWORD PTR [ecx+40], 0
$LN28@Cycle:

; 523  : 	}
; 524  : 
; 525  : #if !NEW_SERVER_VIEWPOINT
; 526  : 	//me123 the following function is needed for host to send updates while in the ui
; 527  : 	//with the new mp code.
; 528  : 	if (vuLocalSessionEntity && vuLocalGame && vuLocalGame->IsLocal()){
; 529  : 		// we are hosting a game
; 530  : 		VuGameEntity *game = vuLocalSessionEntity->Game();
; 531  : 		VuSessionsIterator Sessioniter(game);
; 532  : 		VuSessionEntity*   sess;
; 533  : 		sess = Sessioniter.GetFirst();
; 534  : 		int flying = FALSE;
; 535  : 		//FLYSTATE_IN_UI
; 536  : 		while (sess && !flying ){
; 537  : 			// sfr: why get from DB???
; 538  : 			// this is fucking hack. They get from DB because UI can be closing while this is runnig
; 539  : 			// definitely NOT SAFE
; 540  : 			//if (((FalconSessionEntity*)vuDatabase->Find(sess->Id()))->GetFlyState () != FLYSTATE_IN_UI)
; 541  : 			if (((FalconSessionEntity*)sess)->GetFlyState () != FLYSTATE_IN_UI){
; 542  : 				flying = TRUE;
; 543  : 			}
; 544  : 			else {
; 545  : 				sess = Sessioniter.GetNext ();
; 546  : 			}
; 547  : 		}
; 548  : 
; 549  : 		if (
; 550  : 			flying && !OTWDriver.IsActive() && FalconLocalSession->GetFlyState() == FLYSTATE_IN_UI && 
; 551  : 			!curFlyState && !doGraphicsExit && !doExit && !TheCampaign.IsSuspended()
; 552  : 		){
; 553  : 			Enter();
; 554  : 		}
; 555  : 		else if (
; 556  : 			flying && OTWDriver.IsActive() && FalconLocalSession->GetFlyState() == FLYSTATE_IN_UI && 
; 557  : 			!curFlyState && !doGraphicsExit && !doExit && !TheCampaign.IsSuspended()
; 558  : 		){	
; 559  : 			if ((sess->CameraCount() > 0) && OTWDriver.GetViewpoint()){
; 560  : 				VuEntity *e = sess->GetCameraEntity(0);
; 561  : 				OTWDriver.SetOwnshipPosition(e->XPos(), e->YPos(), e->ZPos());
; 562  : 				OTWDriver.ServerSetviewPoint();
; 563  : 			}
; 564  : 		}
; 565  : 	}
; 566  : #endif
; 567  : 	//STOP_PROFILE("SIMCYCLE_BEGIN");
; 568  : 
; 569  : 	//START_PROFILE("SIMCYCLE_RUNFRAME");
; 570  : 	if (runFrame){

	cmp	DWORD PTR ?runFrame@?1??Cycle@SimulationDriver@@QAEXXZ@4HA, 0
	je	$LN27@Cycle

; 571  : #if NEW_SERVER_VIEWPOINT
; 572  : 		// update all players viewpoints
; 573  : 		FalconGameEntity *game = FalconLocalGame;

	mov	ecx, OFFSET ?vuLocalSessionEntity@@3V?$VuBin@VVuSessionEntity@@@@A ; vuLocalSessionEntity
	call	??B?$VuBin@VVuSessionEntity@@@@QBE_NXZ	; VuBin<VuSessionEntity>::operator bool
	movzx	edx, al
	test	edx, edx
	je	SHORT $LN43@Cycle
	mov	ecx, OFFSET ?vuLocalSessionEntity@@3V?$VuBin@VVuSessionEntity@@@@A ; vuLocalSessionEntity
	call	?get@?$VuBin@VVuSessionEntity@@@@QBEPAVVuSessionEntity@@XZ ; VuBin<VuSessionEntity>::get
	mov	ecx, eax
	call	?GetGame@FalconSessionEntity@@QAEPAVFalconGameEntity@@XZ ; FalconSessionEntity::GetGame
	mov	DWORD PTR tv156[ebp], eax
	jmp	SHORT $LN44@Cycle
$LN43@Cycle:
	mov	DWORD PTR tv156[ebp], 0
$LN44@Cycle:
	mov	eax, DWORD PTR tv156[ebp]
	mov	DWORD PTR _game$4[ebp], eax

; 574  : 		if (game && game->IsLocal()){

	cmp	DWORD PTR _game$4[ebp], 0
	je	SHORT $LN26@Cycle
	mov	ecx, DWORD PTR _game$4[ebp]
	call	?IsLocal@VuEntity@@QBEEXZ		; VuEntity::IsLocal
	movzx	ecx, al
	test	ecx, ecx
	je	SHORT $LN26@Cycle

; 575  : 			OTWDriver.UpdateViewpoints();

	mov	ecx, OFFSET ?OTWDriver@@3VOTWDriverClass@@A ; OTWDriver
	call	?UpdateViewpoints@OTWDriverClass@@QAEXXZ ; OTWDriverClass::UpdateViewpoints
$LN26@Cycle:

; 576  : 		}
; 577  : #endif
; 578  : 
; 579  : 		// Update special effects
; 580  : 		// sfr: shouldnt this be inside OTWDriver.Cycle??
; 581  : 		OTWDriver.DoSfxActiveList();

	mov	ecx, OFFSET ?OTWDriver@@3VOTWDriverClass@@A ; OTWDriver
	call	?DoSfxActiveList@OTWDriverClass@@QAEXXZ	; OTWDriverClass::DoSfxActiveList

; 582  : 
; 583  : 		// Do each entity's thinking
; 584  : 		inCycle = 1; // MLR 1/2/2005 - 

	mov	edx, DWORD PTR _this$[ebp]
	mov	BYTE PTR [edx+60], 1

; 585  : 		cycleAgain = 1; // MLR 1/2/2005 - 

	mov	eax, DWORD PTR _this$[ebp]
	mov	BYTE PTR [eax+61], 1

; 586  : 		int processObjsAddedInCycle = 0;

	mov	DWORD PTR _processObjsAddedInCycle$11[ebp], 0

; 587  : 		//do 
; 588  : 		{
; 589  : #define NO_CAMP_CRITICAL 1
; 590  : #if NO_CAMP_CRITICAL
; 591  : #else
; 592  : 			F4ScopeLock cl(campCritical);
; 593  : #endif
; 594  : 			cycleAgain = 0; // MLR 1/2/2005 - 

	mov	ecx, DWORD PTR _this$[ebp]
	mov	BYTE PTR [ecx+61], 0

; 595  : 			//VuListIterator objectWalker(combinedList);
; 596  : 			// sfr: back to object list only...
; 597  : 			VuListIterator	objectWalker(objectList);

	mov	edx, DWORD PTR _this$[ebp]
	mov	eax, DWORD PTR [edx]
	push	eax
	lea	ecx, DWORD PTR _objectWalker$2[ebp]
	call	??0VuListIterator@@QAE@PAVVuLinkedList@@@Z ; VuListIterator::VuListIterator
	mov	DWORD PTR __$EHRec$[ebp+8], 0

; 598  : 			for (

	lea	ecx, DWORD PTR _objectWalker$2[ebp]
	call	?GetFirst@VuListIterator@@QAEPAVVuEntity@@XZ ; VuListIterator::GetFirst
	mov	DWORD PTR _theObject$12[ebp], eax
	mov	DWORD PTR _next$6[ebp], 0

; 599  : 				SimBaseClass *theObject = (SimBaseClass*)objectWalker.GetFirst(), *next = NULL;
; 600  : 				theObject != NULL;

	jmp	SHORT $LN25@Cycle
$LN24@Cycle:

; 601  : 				theObject = next
; 602  : 			){

	mov	ecx, DWORD PTR _next$6[ebp]
	mov	DWORD PTR _theObject$12[ebp], ecx
$LN25@Cycle:
	cmp	DWORD PTR _theObject$12[ebp], 0
	je	$LN23@Cycle

; 603  : 				next = static_cast<SimBaseClass*>(objectWalker.GetNext());

	lea	ecx, DWORD PTR _objectWalker$2[ebp]
	call	?GetNext@VuListIterator@@QAEPAVVuEntity@@XZ ; VuListIterator::GetNext
	mov	DWORD PTR _next$6[ebp], eax

; 604  : 				
; 605  : 				// sfr: remove object during list scan
; 606  : 				if (theObject->IsSetRemoveFlag()){

	mov	ecx, DWORD PTR _theObject$12[ebp]
	call	?IsSetRemoveFlag@SimBaseClass@@QBEHXZ	; SimBaseClass::IsSetRemoveFlag
	test	eax, eax
	je	SHORT $LN22@Cycle

; 607  : 					vuDatabase->Remove(theObject);

	mov	edx, DWORD PTR _theObject$12[ebp]
	push	edx
	mov	ecx, DWORD PTR ?vuDatabase@@3PAVVuDatabase@@A ; vuDatabase
	call	?Remove@VuDatabase@@QAEHPAVVuEntity@@@Z	; VuDatabase::Remove
	jmp	SHORT $LN20@Cycle
$LN22@Cycle:

; 608  : 				}
; 609  : 				else if (!theObject->IsAwake()){

	mov	ecx, DWORD PTR _theObject$12[ebp]
	call	?IsAwake@SimBaseClass@@QBEHXZ		; SimBaseClass::IsAwake
	test	eax, eax
	jne	SHORT $LN20@Cycle

; 610  : 					SimDriver.RemoveFromObjectList(theObject);

	mov	eax, DWORD PTR _theObject$12[ebp]
	push	eax
	mov	ecx, OFFSET ?SimDriver@@3VSimulationDriver@@A ; SimDriver
	call	?RemoveFromObjectList@SimulationDriver@@QAEXPAVVuEntity@@@Z ; SimulationDriver::RemoveFromObjectList

; 611  : 					continue;

	jmp	SHORT $LN24@Cycle
$LN20@Cycle:

; 612  : 				}
; 613  : 
; 614  : 				// MLR 1/2/2005 - Since objects are added to the DB during the cycle, 
; 615  : 				// some object miss thier initial Exec() call
; 616  : 				// this causes things like bombs & missiles launching from behind the a/c.
; 617  : 				// SimBaseObject (and derived) entities that are created during 
; 618  : 				// Cycle will be marked for "post processing" so 
; 619  : 				// that they are Exec()ed for the current frame.
; 620  : 				// There is code in ::SimBaseClass that sets the flag FELF_ADDED_DURING_SIMDRIVER_CYCLE.
; 621  : 				// We need to make sure we clear it here.
; 622  : 				if	(
; 623  : 					!processObjsAddedInCycle ||
; 624  : 					( processObjsAddedInCycle && theObject->IsSetFELocalFlag(FELF_ADDED_DURING_SIMDRIVER_CYCLE) )
; 625  : 				){

	cmp	DWORD PTR _processObjsAddedInCycle$11[ebp], 0
	je	SHORT $LN18@Cycle
	cmp	DWORD PTR _processObjsAddedInCycle$11[ebp], 0
	je	$LN12@Cycle
	push	8
	mov	ecx, DWORD PTR _theObject$12[ebp]
	call	?IsSetFELocalFlag@FalconEntity@@QAEHH@Z	; FalconEntity::IsSetFELocalFlag
	test	eax, eax
	je	$LN12@Cycle
$LN18@Cycle:

; 626  : 					theObject->UnSetFELocalFlag(FELF_ADDED_DURING_SIMDRIVER_CYCLE);

	push	8
	mov	ecx, DWORD PTR _theObject$12[ebp]
	call	?UnSetFELocalFlag@FalconEntity@@QAEXH@Z	; FalconEntity::UnSetFELocalFlag

; 627  : 					if (theObject->EntityDriver()){

	mov	ecx, DWORD PTR _theObject$12[ebp]
	call	?EntityDriver@VuEntity@@QAEPAVVuDriver@@XZ ; VuEntity::EntityDriver
	test	eax, eax
	je	SHORT $LN16@Cycle

; 628  : 						if (!(
; 629  : 							(theObject->IsSetFalcFlag(FEC_PLAYER_ENTERING)) &&
; 630  : 							(theObject->IsLocal()) &&
; 631  : 							(RunningDogfight())
; 632  : 						)){

	push	16					; 00000010H
	mov	ecx, DWORD PTR _theObject$12[ebp]
	call	?IsSetFalcFlag@FalconEntity@@QAEHH@Z	; FalconEntity::IsSetFalcFlag
	test	eax, eax
	je	SHORT $LN15@Cycle
	mov	ecx, DWORD PTR _theObject$12[ebp]
	call	?IsLocal@VuEntity@@QBEEXZ		; VuEntity::IsLocal
	movzx	ecx, al
	test	ecx, ecx
	je	SHORT $LN15@Cycle
	mov	ecx, DWORD PTR _this$[ebp]
	call	?RunningDogfight@SimulationDriver@@QBE_NXZ ; SimulationDriver::RunningDogfight
	movzx	edx, al
	test	edx, edx
	jne	SHORT $LN16@Cycle
$LN15@Cycle:

; 633  : 							theObject->EntityDriver()->Exec(vuxGameTime);

	mov	ecx, DWORD PTR _theObject$12[ebp]
	call	?EntityDriver@VuEntity@@QAEPAVVuDriver@@XZ ; VuEntity::EntityDriver
	mov	DWORD PTR tv261[ebp], eax
	mov	eax, DWORD PTR ?vuxGameTime@@3KA	; vuxGameTime
	push	eax
	mov	ecx, DWORD PTR tv261[ebp]
	mov	edx, DWORD PTR [ecx]
	mov	ecx, DWORD PTR tv261[ebp]
	mov	eax, DWORD PTR [edx+8]
	call	eax
$LN16@Cycle:

; 634  : 						}
; 635  : 					}
; 636  : 
; 637  : 					if (!theObject->IsLocal()){

	mov	ecx, DWORD PTR _theObject$12[ebp]
	call	?IsLocal@VuEntity@@QBEEXZ		; VuEntity::IsLocal
	movzx	ecx, al
	test	ecx, ecx
	jne	$LN12@Cycle

; 638  : 						CalcTransformMatrix(theObject);

	mov	edx, DWORD PTR _theObject$12[ebp]
	push	edx
	call	?CalcTransformMatrix@@YAXPAVSimBaseClass@@@Z ; CalcTransformMatrix
	add	esp, 4

; 639  : 						//LRKLUDGE
; 640  : 						gndz = OTWDriver.GetGroundLevel(theObject->XPos(), theObject->YPos());

	push	0
	mov	ecx, DWORD PTR _theObject$12[ebp]
	call	?YPos@VuEntity@@QBEMXZ			; VuEntity::YPos
	push	ecx
	fstp	DWORD PTR [esp]
	mov	ecx, DWORD PTR _theObject$12[ebp]
	call	?XPos@VuEntity@@QBEMXZ			; VuEntity::XPos
	push	ecx
	fstp	DWORD PTR [esp]
	mov	ecx, OFFSET ?OTWDriver@@3VOTWDriverClass@@A ; OTWDriver
	call	?GetGroundLevel@OTWDriverClass@@QAEMMMPAUTpoint@@@Z ; OTWDriverClass::GetGroundLevel
	fstp	DWORD PTR _gndz$[ebp]

; 641  : 						if (theObject->ZPos() > gndz){

	mov	ecx, DWORD PTR _theObject$12[ebp]
	call	?ZPos@VuEntity@@QBEMXZ			; VuEntity::ZPos
	fstp	DWORD PTR tv564[ebp]
	movss	xmm0, DWORD PTR tv564[ebp]
	comiss	xmm0, DWORD PTR _gndz$[ebp]
	jbe	SHORT $LN13@Cycle

; 642  : 							theObject->SetPosition(theObject->XPos(), theObject->YPos(), gndz);

	push	ecx
	movss	xmm0, DWORD PTR _gndz$[ebp]
	movss	DWORD PTR [esp], xmm0
	mov	ecx, DWORD PTR _theObject$12[ebp]
	call	?YPos@VuEntity@@QBEMXZ			; VuEntity::YPos
	push	ecx
	fstp	DWORD PTR [esp]
	mov	ecx, DWORD PTR _theObject$12[ebp]
	call	?XPos@VuEntity@@QBEMXZ			; VuEntity::XPos
	push	ecx
	fstp	DWORD PTR [esp]
	mov	ecx, DWORD PTR _theObject$12[ebp]
	call	?SetPosition@VuEntity@@QAEXMMM@Z	; VuEntity::SetPosition
$LN13@Cycle:

; 643  : 						}
; 644  : 						//LRKLUDGE
; 645  : 						if (theObject->ZPos() < -200000.0F){

	mov	ecx, DWORD PTR _theObject$12[ebp]
	call	?ZPos@VuEntity@@QBEMXZ			; VuEntity::ZPos
	fstp	DWORD PTR tv578[ebp]
	movss	xmm0, DWORD PTR __real@c8435000
	comiss	xmm0, DWORD PTR tv578[ebp]
	jbe	SHORT $LN12@Cycle

; 646  : 							theObject->SetPosition(theObject->XPos(), theObject->YPos(), -200000.0F);

	push	ecx
	movss	xmm0, DWORD PTR __real@c8435000
	movss	DWORD PTR [esp], xmm0
	mov	ecx, DWORD PTR _theObject$12[ebp]
	call	?YPos@VuEntity@@QBEMXZ			; VuEntity::YPos
	push	ecx
	fstp	DWORD PTR [esp]
	mov	ecx, DWORD PTR _theObject$12[ebp]
	call	?XPos@VuEntity@@QBEMXZ			; VuEntity::XPos
	push	ecx
	fstp	DWORD PTR [esp]
	mov	ecx, DWORD PTR _theObject$12[ebp]
	call	?SetPosition@VuEntity@@QAEXMMM@Z	; VuEntity::SetPosition
$LN12@Cycle:

; 647  : 						}
; 648  : 					}
; 649  : 				}
; 650  : 			}

	jmp	$LN24@Cycle
$LN23@Cycle:

; 651  : 			processObjsAddedInCycle = 1;

	mov	DWORD PTR _processObjsAddedInCycle$11[ebp], 1

; 652  : 		}

	mov	DWORD PTR __$EHRec$[ebp+8], -1
	lea	ecx, DWORD PTR _objectWalker$2[ebp]
	call	??1VuListIterator@@UAE@XZ		; VuListIterator::~VuListIterator

; 653  : 		//while (cycleAgain);
; 654  : 
; 655  : 		inCycle = 0; // MLR 1/2/2005 - 

	mov	eax, DWORD PTR _this$[ebp]
	mov	BYTE PTR [eax+60], 0

; 656  : 		SimLibFrameCount ++;

	mov	ecx, DWORD PTR ?SimLibFrameCount@@3IA	; SimLibFrameCount
	add	ecx, 1
	mov	DWORD PTR ?SimLibFrameCount@@3IA, ecx	; SimLibFrameCount

; 657  : 		SimLibElapsedTime += FloatToInt32(SimLibMajorFrameTime*SEC_TO_MSEC + 0.5F);

	movss	xmm0, DWORD PTR ?SimLibMajorFrameTime@@3MA
	mulss	xmm0, DWORD PTR __real@447a0000
	addss	xmm0, DWORD PTR __real@3f000000
	push	ecx
	movss	DWORD PTR [esp], xmm0
	call	?FloatToInt32@@YAHM@Z			; FloatToInt32
	add	esp, 4
	add	eax, DWORD PTR ?SimLibElapsedTime@@3KA	; SimLibElapsedTime
	mov	DWORD PTR ?SimLibElapsedTime@@3KA, eax	; SimLibElapsedTime

; 658  : 		UPDATE_SIM_ELAPSED_SECONDS; // COBRA - RED - Scale Elapsed Seconds

	mov	edx, DWORD PTR ?SimLibElapsedTime@@3KA	; SimLibElapsedTime
	mov	DWORD PTR tv596[ebp], edx
	cvtsi2sd xmm0, DWORD PTR tv596[ebp]
	mov	eax, DWORD PTR tv596[ebp]
	shr	eax, 31					; 0000001fH
	addsd	xmm0, QWORD PTR __xmm@41f00000000000000000000000000000[eax*8]
	movsd	QWORD PTR tv600[ebp], xmm0
	cvtsd2ss xmm0, QWORD PTR tv600[ebp]
	divss	xmm0, DWORD PTR __real@447a0000
	movss	DWORD PTR ?SimLibElapsedSeconds@@3MA, xmm0
	movss	xmm0, DWORD PTR ?SimLibElapsedSeconds@@3MA
	subss	xmm0, DWORD PTR ?SimLibLastFrameTime@@3MA
	movss	DWORD PTR ?SimLibFrameElapsed@@3MA, xmm0
	movss	xmm0, DWORD PTR ?SimLibElapsedSeconds@@3MA
	movss	DWORD PTR ?SimLibLastFrameTime@@3MA, xmm0
$LN27@Cycle:

; 659  : 	}
; 660  : 	//STOP_PROFILE("SIMCYCLE_RUNFRAME");
; 661  : 
; 662  : 	if (RunningDogfight()){

	mov	ecx, DWORD PTR _this$[ebp]
	call	?RunningDogfight@SimulationDriver@@QBE_NXZ ; SimulationDriver::RunningDogfight
	movzx	ecx, al
	test	ecx, ecx
	je	SHORT $LN11@Cycle

; 663  : 		SimDogfight.UpdateDogfight();

	mov	ecx, OFFSET ?SimDogfight@@3VDogfightClass@@A ; SimDogfight
	call	?UpdateDogfight@DogfightClass@@QAEXXZ	; DogfightClass::UpdateDogfight
$LN11@Cycle:

; 664  : 	}
; 665  : 
; 666  : 	// Things to run once per loop when sim is running
; 667  : 	if (runGraphics){

	cmp	DWORD PTR ?runGraphics@?1??Cycle@SimulationDriver@@QAEXXZ@4HA, 0
	je	$LN9@Cycle

; 668  : 		// if we're not in a cockpit view, play wind noise
; 669  : 		if (!OTWDriver.DisplayInCockpit()){

	mov	ecx, OFFSET ?OTWDriver@@3VOTWDriverClass@@A ; OTWDriver
	call	?DisplayInCockpit@OTWDriverClass@@QAEHXZ ; OTWDriverClass::DisplayInCockpit
	test	eax, eax
	jne	$LN9@Cycle

; 670  : 			//edg note: since this was moved down here from above, the current
; 671  : 			// frame count is now beyond what the positional sound driver expects
; 672  : 			// for the current frame.  I'm just going to brackett this call with
; 673  : 			// a dec/inc of framecount so that nothing else that may be effected
; 674  : 			// by framecount will be effected.
; 675  : 			//SimLibFrameCount--; // MLR 5/16/2004 - 
; 676  : 			float x,y,z;
; 677  : 			Tpoint wind;
; 678  : 			wind.x = 0;

	movss	xmm0, DWORD PTR __real@00000000
	movss	DWORD PTR _wind$13[ebp], xmm0

; 679  : 			wind.y = 0;

	movss	xmm0, DWORD PTR __real@00000000
	movss	DWORD PTR _wind$13[ebp+4], xmm0

; 680  : 			wind.z = 0;

	movss	xmm0, DWORD PTR __real@00000000
	movss	DWORD PTR _wind$13[ebp+8], xmm0

; 681  : 
; 682  : 			if ((WeatherClass*)realWeather){

	cmp	DWORD PTR ?realWeather@@3PAVRealWeather@@A, 0 ; realWeather
	je	SHORT $LN8@Cycle

; 683  : 				((WeatherClass*)realWeather)->WindHeadingAt(&wind);

	lea	edx, DWORD PTR _wind$13[ebp]
	push	edx
	mov	ecx, DWORD PTR ?realWeather@@3PAVRealWeather@@A ; realWeather
	call	?WindHeadingAt@WeatherClass@@QAEMPBUTpoint@@@Z ; WeatherClass::WindHeadingAt
	fstp	ST(0)
$LN8@Cycle:

; 684  : 			}
; 685  : 			x=OTWDriver.cameraVel.x - wind.x;

	movss	xmm0, DWORD PTR ?OTWDriver@@3VOTWDriverClass@@A+33488
	subss	xmm0, DWORD PTR _wind$13[ebp]
	movss	DWORD PTR _x$3[ebp], xmm0

; 686  : 			y=OTWDriver.cameraVel.y - wind.y;

	movss	xmm0, DWORD PTR ?OTWDriver@@3VOTWDriverClass@@A+33492
	subss	xmm0, DWORD PTR _wind$13[ebp+4]
	movss	DWORD PTR _y$8[ebp], xmm0

; 687  : 			z=OTWDriver.cameraVel.z - wind.z;

	movss	xmm0, DWORD PTR ?OTWDriver@@3VOTWDriverClass@@A+33496
	subss	xmm0, DWORD PTR _wind$13[ebp+8]
	movss	DWORD PTR _z$7[ebp], xmm0

; 688  : 
; 689  : 			float v = sqrt(x*x + y*y + z*z);

	movss	xmm0, DWORD PTR _x$3[ebp]
	mulss	xmm0, DWORD PTR _x$3[ebp]
	movss	xmm1, DWORD PTR _y$8[ebp]
	mulss	xmm1, DWORD PTR _y$8[ebp]
	addss	xmm0, xmm1
	movss	xmm1, DWORD PTR _z$7[ebp]
	mulss	xmm1, DWORD PTR _z$7[ebp]
	addss	xmm0, xmm1
	push	ecx
	movss	DWORD PTR [esp], xmm0
	call	?SqrtSSE@@YAMM@Z			; SqrtSSE
	add	esp, 4
	fstp	DWORD PTR _v$9[ebp]

; 690  : 			float vol = ( v - 10) * 1000;

	movss	xmm0, DWORD PTR _v$9[ebp]
	subss	xmm0, DWORD PTR __real@41200000
	mulss	xmm0, DWORD PTR __real@447a0000
	movss	DWORD PTR _vol$5[ebp], xmm0

; 691  : 			if (vol > 0){

	movss	xmm0, DWORD PTR _vol$5[ebp]
	comiss	xmm0, DWORD PTR __real@00000000
	jbe	SHORT $LN7@Cycle

; 692  : 				vol = 0;

	movss	xmm0, DWORD PTR __real@00000000
	movss	DWORD PTR _vol$5[ebp], xmm0
$LN7@Cycle:

; 693  : 			}
; 694  : 
; 695  : 			float pit = (v + 100) / 100;

	movss	xmm0, DWORD PTR _v$9[ebp]
	addss	xmm0, DWORD PTR __real@42c80000
	divss	xmm0, DWORD PTR __real@42c80000
	movss	DWORD PTR _pit$10[ebp], xmm0

; 696  : 			if (pit > 2){ 

	movss	xmm0, DWORD PTR _pit$10[ebp]
	comiss	xmm0, DWORD PTR __real@40000000
	jbe	SHORT $LN6@Cycle

; 697  : 				pit = 2.0f;

	movss	xmm0, DWORD PTR __real@40000000
	movss	DWORD PTR _pit$10[ebp], xmm0
$LN6@Cycle:

; 698  : 			}
; 699  : 
; 700  : 			F4SoundFXSetDist( SFX_WIND, 0, pit, v);

	push	ecx
	movss	xmm0, DWORD PTR _v$9[ebp]
	movss	DWORD PTR [esp], xmm0
	push	ecx
	movss	xmm0, DWORD PTR _pit$10[ebp]
	movss	DWORD PTR [esp], xmm0
	push	0
	push	137					; 00000089H
	call	_F4SoundFXSetDist
	add	esp, 16					; 00000010H
$LN9@Cycle:

; 701  : 			//SimLibFrameCount++; // MLR 5/16/2004 - 
; 702  : 		}
; 703  : 
; 704  : 	}
; 705  : 
; 706  : 	START_PROFILE("SIMCYCLE_SOUND");
; 707  : 	if (gameCompressionRatio){

	cmp	DWORD PTR ?gameCompressionRatio@@3HA, 0	; gameCompressionRatio
	je	SHORT $LN5@Cycle

; 708  : 		// run positional Sound FX
; 709  : 		F4SoundFXPositionDriver( SimLibFrameCount - 2, SimLibFrameCount - 1 );

	mov	eax, DWORD PTR ?SimLibFrameCount@@3IA	; SimLibFrameCount
	sub	eax, 1
	push	eax
	mov	ecx, DWORD PTR ?SimLibFrameCount@@3IA	; SimLibFrameCount
	sub	ecx, 2
	push	ecx
	call	_F4SoundFXPositionDriver
	add	esp, 8

; 710  : 	}
; 711  : 	else {

	jmp	SHORT $LN4@Cycle
$LN5@Cycle:

; 712  : 		F4SoundFXPositionDriver( SimLibFrameCount + 1, SimLibFrameCount + 1  );

	mov	edx, DWORD PTR ?SimLibFrameCount@@3IA	; SimLibFrameCount
	add	edx, 1
	push	edx
	mov	eax, DWORD PTR ?SimLibFrameCount@@3IA	; SimLibFrameCount
	add	eax, 1
	push	eax
	call	_F4SoundFXPositionDriver
	add	esp, 8
$LN4@Cycle:

; 713  : 	}
; 714  : 	STOP_PROFILE("SIMCYCLE_SOUND");
; 715  : 
; 716  : 	//START_PROFILE("SIMCYCLE_ATC");
; 717  : 	// need to run while in UI for other players
; 718  : 	// Update ATC for each airbase
; 719  : 	UpdateATC();

	mov	ecx, DWORD PTR _this$[ebp]
	call	?UpdateATC@SimulationDriver@@AAEXXZ	; SimulationDriver::UpdateATC

; 720  : 	if (gNavigationSys){

	cmp	DWORD PTR ?gNavigationSys@@3PAVNavigationSystem@@A, 0 ; gNavigationSys
	je	SHORT $LN3@Cycle

; 721  : 		gNavigationSys->ExecIls(); // Needed for the Hud and Adi

	mov	ecx, DWORD PTR ?gNavigationSys@@3PAVNavigationSystem@@A ; gNavigationSys
	call	?ExecIls@NavigationSystem@@QAEXXZ	; NavigationSystem::ExecIls
$LN3@Cycle:

; 722  : 	}
; 723  : 	//STOP_PROFILE("SIMCYCLE_ATC");
; 724  : 
; 725  : 	// check if the simloop thread has told us the sim is to be shut down
; 726  : 	if (doExit){

	mov	ecx, DWORD PTR _this$[ebp]
	cmp	DWORD PTR [ecx+76], 0
	je	SHORT $LN2@Cycle

; 727  : 		Exit();

	mov	ecx, DWORD PTR _this$[ebp]
	call	?Exit@SimulationDriver@@QAEXXZ		; SimulationDriver::Exit

; 728  : 		doExit = FALSE;

	mov	edx, DWORD PTR _this$[ebp]
	mov	DWORD PTR [edx+76], 0

; 729  : 		SetEvent(SimulationLoopControl::wait_for_sim_cleanup);

	mov	eax, DWORD PTR ?wait_for_sim_cleanup@SimulationLoopControl@@2PAXA ; SimulationLoopControl::wait_for_sim_cleanup
	push	eax
	call	DWORD PTR __imp__SetEvent@4
$LN2@Cycle:

; 730  : 	}
; 731  : 
; 732  : 	// check if the simloop thread has told us the graphics are to be shut down
; 733  : 	if ( doGraphicsExit ){

	mov	ecx, DWORD PTR _this$[ebp]
	cmp	DWORD PTR [ecx+80], 0
	je	SHORT $LN1@Cycle

; 734  : 		OTWDriver.Exit();

	mov	ecx, OFFSET ?OTWDriver@@3VOTWDriverClass@@A ; OTWDriver
	call	?Exit@OTWDriverClass@@QAEHXZ		; OTWDriverClass::Exit

; 735  : 		doGraphicsExit = FALSE;

	mov	edx, DWORD PTR _this$[ebp]
	mov	DWORD PTR [edx+80], 0

; 736  : 		FalconLocalSession->SetFlyState(FLYSTATE_IN_UI);

	push	0
	mov	ecx, OFFSET ?vuLocalSessionEntity@@3V?$VuBin@VVuSessionEntity@@@@A ; vuLocalSessionEntity
	call	?get@?$VuBin@VVuSessionEntity@@@@QBEPAVVuSessionEntity@@XZ ; VuBin<VuSessionEntity>::get
	mov	ecx, eax
	call	?SetFlyState@FalconSessionEntity@@QAEXE@Z ; FalconSessionEntity::SetFlyState

; 737  : 		// we done our part
; 738  : 		SetEvent (SimulationLoopControl::wait_for_graphics_cleanup);

	mov	eax, DWORD PTR ?wait_for_graphics_cleanup@SimulationLoopControl@@2PAXA ; SimulationLoopControl::wait_for_graphics_cleanup
	push	eax
	call	DWORD PTR __imp__SetEvent@4
$LN1@Cycle:

; 739  : 	}
; 740  : }

	mov	ecx, DWORD PTR __$EHRec$[ebp]
	mov	DWORD PTR fs:0, ecx
	pop	ecx
	mov	ecx, DWORD PTR __$ArrayPad$[ebp]
	xor	ecx, ebp
	call	@__security_check_cookie@4
	mov	esp, ebp
	pop	ebp
	ret	0
_TEXT	ENDS
text$x	SEGMENT
__unwindfunclet$?Cycle@SimulationDriver@@QAEXXZ$0:
	lea	ecx, DWORD PTR _objectWalker$2[ebp]
	jmp	??1VuListIterator@@UAE@XZ		; VuListIterator::~VuListIterator
__ehhandler$?Cycle@SimulationDriver@@QAEXXZ:
	mov	edx, DWORD PTR [esp+8]
	lea	eax, DWORD PTR [edx+12]
	mov	ecx, DWORD PTR [edx-116]
	xor	ecx, eax
	call	@__security_check_cookie@4
	mov	ecx, DWORD PTR [edx-4]
	xor	ecx, eax
	call	@__security_check_cookie@4
	mov	eax, OFFSET __ehfuncinfo$?Cycle@SimulationDriver@@QAEXXZ
	jmp	___CxxFrameHandler3
text$x	ENDS
?Cycle@SimulationDriver@@QAEXXZ ENDP			; SimulationDriver::Cycle
; Function compile flags: /Odtp
; File c:\users\zhitao li\documents\visual studio 2012\projects\freefalcon\sim\simdrive\simdrive.cpp
_TEXT	SEGMENT
tv275 = -124						; size = 4
$T1 = -120						; size = 4
tv257 = -116						; size = 4
$T2 = -112						; size = 4
tv239 = -108						; size = 4
$T3 = -104						; size = 4
tv221 = -100						; size = 4
$T4 = -96						; size = 4
tv203 = -92						; size = 4
$T5 = -88						; size = 4
tv185 = -84						; size = 4
$T6 = -80						; size = 4
tv167 = -76						; size = 4
$T7 = -72						; size = 4
tv149 = -68						; size = 4
$T8 = -64						; size = 4
tv131 = -60						; size = 4
$T9 = -56						; size = 4
tv81 = -52						; size = 4
$T10 = -48						; size = 4
$T11 = -44						; size = 4
$T12 = -40						; size = 4
$T13 = -36						; size = 4
$T14 = -32						; size = 4
$T15 = -28						; size = 4
$T16 = -24						; size = 4
$T17 = -20						; size = 4
$T18 = -16						; size = 4
$T19 = -12						; size = 4
$T20 = -8						; size = 4
_this$ = -4						; size = 4
?Cleanup@SimulationDriver@@QAEXXZ PROC			; SimulationDriver::Cleanup
; _this$ = ecx

; 355  : {

	push	ebp
	mov	ebp, esp
	sub	esp, 124				; 0000007cH
	mov	DWORD PTR _this$[ebp], ecx

; 356  : 	FreeAllAirframeData();

	call	?FreeAllAirframeData@@YAXXZ		; FreeAllAirframeData

; 357  : 	FreeAllMissileData();

	call	?FreeAllMissileData@@YAXXZ		; FreeAllMissileData

; 358  : 	FreeAllBombData(); // 2003-11-10 MLR for exported bomb data

	call	?FreeAllBombData@@YAXXZ			; FreeAllBombData

; 359  : 	FreeDigitalBrainData();

	call	?FreeDigitalBrainData@@YAXXZ		; FreeDigitalBrainData

; 360  : 	SimMoverDefinition::FreeSimMoverDefinitionData();

	call	?FreeSimMoverDefinitionData@SimMoverDefinition@@SAXXZ ; SimMoverDefinition::FreeSimMoverDefinitionData

; 361  : 
; 362  : 	objectList->Unregister();

	mov	eax, DWORD PTR _this$[ebp]
	mov	ecx, DWORD PTR [eax]
	call	?Unregister@VuCollection@@QAEXXZ	; VuCollection::Unregister

; 363  : 	delete objectList;

	mov	ecx, DWORD PTR _this$[ebp]
	mov	edx, DWORD PTR [ecx]
	mov	DWORD PTR $T10[ebp], edx
	mov	eax, DWORD PTR $T10[ebp]
	mov	DWORD PTR $T20[ebp], eax
	cmp	DWORD PTR $T20[ebp], 0
	je	SHORT $LN3@Cleanup
	push	1
	mov	ecx, DWORD PTR $T20[ebp]
	mov	edx, DWORD PTR [ecx]
	mov	ecx, DWORD PTR $T20[ebp]
	mov	eax, DWORD PTR [edx+12]
	call	eax
	mov	DWORD PTR tv81[ebp], eax
	jmp	SHORT $LN4@Cleanup
$LN3@Cleanup:
	mov	DWORD PTR tv81[ebp], 0
$LN4@Cleanup:

; 364  : 	featureList->Unregister();

	mov	ecx, DWORD PTR _this$[ebp]
	mov	ecx, DWORD PTR [ecx+4]
	call	?Unregister@VuCollection@@QAEXXZ	; VuCollection::Unregister

; 365  : 	delete featureList;

	mov	edx, DWORD PTR _this$[ebp]
	mov	eax, DWORD PTR [edx+4]
	mov	DWORD PTR $T9[ebp], eax
	mov	ecx, DWORD PTR $T9[ebp]
	mov	DWORD PTR $T19[ebp], ecx
	cmp	DWORD PTR $T19[ebp], 0
	je	SHORT $LN5@Cleanup
	push	1
	mov	edx, DWORD PTR $T19[ebp]
	mov	eax, DWORD PTR [edx]
	mov	ecx, DWORD PTR $T19[ebp]
	mov	edx, DWORD PTR [eax+12]
	call	edx
	mov	DWORD PTR tv131[ebp], eax
	jmp	SHORT $LN6@Cleanup
$LN5@Cleanup:
	mov	DWORD PTR tv131[ebp], 0
$LN6@Cleanup:

; 366  : 	campUnitList->Unregister();

	mov	eax, DWORD PTR _this$[ebp]
	mov	ecx, DWORD PTR [eax+8]
	call	?Unregister@VuCollection@@QAEXXZ	; VuCollection::Unregister

; 367  : 	delete campUnitList;

	mov	ecx, DWORD PTR _this$[ebp]
	mov	edx, DWORD PTR [ecx+8]
	mov	DWORD PTR $T8[ebp], edx
	mov	eax, DWORD PTR $T8[ebp]
	mov	DWORD PTR $T18[ebp], eax
	cmp	DWORD PTR $T18[ebp], 0
	je	SHORT $LN7@Cleanup
	push	1
	mov	ecx, DWORD PTR $T18[ebp]
	mov	edx, DWORD PTR [ecx]
	mov	ecx, DWORD PTR $T18[ebp]
	mov	eax, DWORD PTR [edx+12]
	call	eax
	mov	DWORD PTR tv149[ebp], eax
	jmp	SHORT $LN8@Cleanup
$LN7@Cleanup:
	mov	DWORD PTR tv149[ebp], 0
$LN8@Cleanup:

; 368  : 	campObjList->Unregister();

	mov	ecx, DWORD PTR _this$[ebp]
	mov	ecx, DWORD PTR [ecx+12]
	call	?Unregister@VuCollection@@QAEXXZ	; VuCollection::Unregister

; 369  : 	delete campObjList;

	mov	edx, DWORD PTR _this$[ebp]
	mov	eax, DWORD PTR [edx+12]
	mov	DWORD PTR $T7[ebp], eax
	mov	ecx, DWORD PTR $T7[ebp]
	mov	DWORD PTR $T17[ebp], ecx
	cmp	DWORD PTR $T17[ebp], 0
	je	SHORT $LN9@Cleanup
	push	1
	mov	edx, DWORD PTR $T17[ebp]
	mov	eax, DWORD PTR [edx]
	mov	ecx, DWORD PTR $T17[ebp]
	mov	edx, DWORD PTR [eax+12]
	call	edx
	mov	DWORD PTR tv167[ebp], eax
	jmp	SHORT $LN10@Cleanup
$LN9@Cleanup:
	mov	DWORD PTR tv167[ebp], 0
$LN10@Cleanup:

; 370  : 
; 371  : 	atcList->Unregister();

	mov	eax, DWORD PTR _this$[ebp]
	mov	ecx, DWORD PTR [eax+32]
	call	?Unregister@VuCollection@@QAEXXZ	; VuCollection::Unregister

; 372  : 	delete atcList;

	mov	ecx, DWORD PTR _this$[ebp]
	mov	edx, DWORD PTR [ecx+32]
	mov	DWORD PTR $T6[ebp], edx
	mov	eax, DWORD PTR $T6[ebp]
	mov	DWORD PTR $T16[ebp], eax
	cmp	DWORD PTR $T16[ebp], 0
	je	SHORT $LN11@Cleanup
	push	1
	mov	ecx, DWORD PTR $T16[ebp]
	mov	edx, DWORD PTR [ecx]
	mov	ecx, DWORD PTR $T16[ebp]
	mov	eax, DWORD PTR [edx+12]
	call	eax
	mov	DWORD PTR tv185[ebp], eax
	jmp	SHORT $LN12@Cleanup
$LN11@Cleanup:
	mov	DWORD PTR tv185[ebp], 0
$LN12@Cleanup:

; 373  : 	facList->Unregister();

	mov	ecx, DWORD PTR _this$[ebp]
	mov	ecx, DWORD PTR [ecx+28]
	call	?Unregister@VuCollection@@QAEXXZ	; VuCollection::Unregister

; 374  : 	delete facList;

	mov	edx, DWORD PTR _this$[ebp]
	mov	eax, DWORD PTR [edx+28]
	mov	DWORD PTR $T5[ebp], eax
	mov	ecx, DWORD PTR $T5[ebp]
	mov	DWORD PTR $T15[ebp], ecx
	cmp	DWORD PTR $T15[ebp], 0
	je	SHORT $LN13@Cleanup
	push	1
	mov	edx, DWORD PTR $T15[ebp]
	mov	eax, DWORD PTR [edx]
	mov	ecx, DWORD PTR $T15[ebp]
	mov	edx, DWORD PTR [eax+12]
	call	edx
	mov	DWORD PTR tv203[ebp], eax
	jmp	SHORT $LN14@Cleanup
$LN13@Cleanup:
	mov	DWORD PTR tv203[ebp], 0
$LN14@Cleanup:

; 375  : 	tankerList->Unregister();

	mov	eax, DWORD PTR _this$[ebp]
	mov	ecx, DWORD PTR [eax+36]
	call	?Unregister@VuCollection@@QAEXXZ	; VuCollection::Unregister

; 376  : 	delete tankerList;

	mov	ecx, DWORD PTR _this$[ebp]
	mov	edx, DWORD PTR [ecx+36]
	mov	DWORD PTR $T4[ebp], edx
	mov	eax, DWORD PTR $T4[ebp]
	mov	DWORD PTR $T14[ebp], eax
	cmp	DWORD PTR $T14[ebp], 0
	je	SHORT $LN15@Cleanup
	push	1
	mov	ecx, DWORD PTR $T14[ebp]
	mov	edx, DWORD PTR [ecx]
	mov	ecx, DWORD PTR $T14[ebp]
	mov	eax, DWORD PTR [edx+12]
	call	eax
	mov	DWORD PTR tv221[ebp], eax
	jmp	SHORT $LN16@Cleanup
$LN15@Cleanup:
	mov	DWORD PTR tv221[ebp], 0
$LN16@Cleanup:

; 377  : 
; 378  : 	combinedList->Unregister();

	mov	ecx, DWORD PTR _this$[ebp]
	mov	ecx, DWORD PTR [ecx+16]
	call	?Unregister@VuCollection@@QAEXXZ	; VuCollection::Unregister

; 379  : 	delete combinedList;

	mov	edx, DWORD PTR _this$[ebp]
	mov	eax, DWORD PTR [edx+16]
	mov	DWORD PTR $T3[ebp], eax
	mov	ecx, DWORD PTR $T3[ebp]
	mov	DWORD PTR $T13[ebp], ecx
	cmp	DWORD PTR $T13[ebp], 0
	je	SHORT $LN17@Cleanup
	push	1
	mov	edx, DWORD PTR $T13[ebp]
	mov	eax, DWORD PTR [edx]
	mov	ecx, DWORD PTR $T13[ebp]
	mov	edx, DWORD PTR [eax+12]
	call	edx
	mov	DWORD PTR tv239[ebp], eax
	jmp	SHORT $LN18@Cleanup
$LN17@Cleanup:
	mov	DWORD PTR tv239[ebp], 0
$LN18@Cleanup:

; 380  : 
; 381  : 	combinedFeatureList->Unregister();

	mov	eax, DWORD PTR _this$[ebp]
	mov	ecx, DWORD PTR [eax+20]
	call	?Unregister@VuCollection@@QAEXXZ	; VuCollection::Unregister

; 382  : 	delete combinedFeatureList;

	mov	ecx, DWORD PTR _this$[ebp]
	mov	edx, DWORD PTR [ecx+20]
	mov	DWORD PTR $T2[ebp], edx
	mov	eax, DWORD PTR $T2[ebp]
	mov	DWORD PTR $T12[ebp], eax
	cmp	DWORD PTR $T12[ebp], 0
	je	SHORT $LN19@Cleanup
	push	1
	mov	ecx, DWORD PTR $T12[ebp]
	mov	edx, DWORD PTR [ecx]
	mov	ecx, DWORD PTR $T12[ebp]
	mov	eax, DWORD PTR [edx+12]
	call	eax
	mov	DWORD PTR tv257[ebp], eax
	jmp	SHORT $LN20@Cleanup
$LN19@Cleanup:
	mov	DWORD PTR tv257[ebp], 0
$LN20@Cleanup:

; 383  : 
; 384  : 	ObjsWithNoCampaignParentList->Unregister();

	mov	ecx, DWORD PTR _this$[ebp]
	mov	ecx, DWORD PTR [ecx+24]
	call	?Unregister@VuCollection@@QAEXXZ	; VuCollection::Unregister

; 385  : 	delete ObjsWithNoCampaignParentList;

	mov	edx, DWORD PTR _this$[ebp]
	mov	eax, DWORD PTR [edx+24]
	mov	DWORD PTR $T1[ebp], eax
	mov	ecx, DWORD PTR $T1[ebp]
	mov	DWORD PTR $T11[ebp], ecx
	cmp	DWORD PTR $T11[ebp], 0
	je	SHORT $LN21@Cleanup
	push	1
	mov	edx, DWORD PTR $T11[ebp]
	mov	eax, DWORD PTR [edx]
	mov	ecx, DWORD PTR $T11[ebp]
	mov	edx, DWORD PTR [eax+12]
	call	edx
	mov	DWORD PTR tv275[ebp], eax
	jmp	SHORT $LN22@Cleanup
$LN21@Cleanup:
	mov	DWORD PTR tv275[ebp], 0
$LN22@Cleanup:

; 386  : 
; 387  : 	ObjsWithNoCampaignParentList = NULL;

	mov	eax, DWORD PTR _this$[ebp]
	mov	DWORD PTR [eax+24], 0

; 388  : 	combinedFeatureList = NULL;

	mov	ecx, DWORD PTR _this$[ebp]
	mov	DWORD PTR [ecx+20], 0

; 389  : 	combinedList = NULL;

	mov	edx, DWORD PTR _this$[ebp]
	mov	DWORD PTR [edx+16], 0

; 390  : 	tankerList = NULL;

	mov	eax, DWORD PTR _this$[ebp]
	mov	DWORD PTR [eax+36], 0

; 391  : 	objectList = NULL;

	mov	ecx, DWORD PTR _this$[ebp]
	mov	DWORD PTR [ecx], 0

; 392  : 	featureList = NULL;

	mov	edx, DWORD PTR _this$[ebp]
	mov	DWORD PTR [edx+4], 0

; 393  : 	campUnitList = NULL;

	mov	eax, DWORD PTR _this$[ebp]
	mov	DWORD PTR [eax+8], 0

; 394  : 	campObjList = NULL;

	mov	ecx, DWORD PTR _this$[ebp]
	mov	DWORD PTR [ecx+12], 0

; 395  : #ifndef NO_TIMER_THREAD
; 396  : #if CAP_DISPATCH
; 397  : 	vuThread->Update(-1);
; 398  : #else
; 399  : 	vuThread->Update();
; 400  : #endif
; 401  : 	delete vuThread;
; 402  : 	vuThread = NULL;
; 403  : #endif
; 404  : }

	mov	esp, ebp
	pop	ebp
	ret	0
?Cleanup@SimulationDriver@@QAEXXZ ENDP			; SimulationDriver::Cleanup
_TEXT	ENDS
; Function compile flags: /Odtp
; File c:\users\zhitao li\documents\visual studio 2012\projects\freefalcon\sim\simdrive\simdrive.cpp
_TEXT	SEGMENT
_unitFilter$ = -180					; size = 12
_objectiveFilter$ = -168				; size = 8
$T2 = -160						; size = 4
$T3 = -156						; size = 4
$T4 = -152						; size = 4
$T5 = -148						; size = 4
$T6 = -144						; size = 4
$T7 = -140						; size = 4
$T8 = -136						; size = 4
$T9 = -132						; size = 4
$T10 = -128						; size = 4
$T11 = -124						; size = 4
$T12 = -120						; size = 4
$T13 = -116						; size = 4
$T14 = -112						; size = 4
$T15 = -108						; size = 4
$T16 = -104						; size = 4
tv300 = -100						; size = 4
$T17 = -96						; size = 4
tv281 = -92						; size = 4
$T18 = -88						; size = 4
tv259 = -84						; size = 4
$T19 = -80						; size = 4
tv240 = -76						; size = 4
_dynamicTacanFilter$ = -72				; size = 4
tv218 = -68						; size = 4
_objectFilter$ = -64					; size = 4
tv199 = -60						; size = 4
_featureFilter$ = -56					; size = 4
tv176 = -52						; size = 4
_airbaseFilter$ = -48					; size = 4
tv150 = -44						; size = 4
tv319 = -40						; size = 4
tv128 = -36						; size = 4
$T20 = -32						; size = 4
$T21 = -28						; size = 4
_allSimFilter$ = -24					; size = 4
_combinedFilter$ = -20					; size = 4
_this$ = -16						; size = 4
__$EHRec$ = -12						; size = 12
?Startup@SimulationDriver@@QAEXXZ PROC			; SimulationDriver::Startup
; _this$ = ecx

; 270  : {

	push	ebp
	mov	ebp, esp
	push	-1
	push	__ehhandler$?Startup@SimulationDriver@@QAEXXZ
	mov	eax, DWORD PTR fs:0
	push	eax
	sub	esp, 168				; 000000a8H
	mov	eax, DWORD PTR ___security_cookie
	xor	eax, ebp
	push	eax
	lea	eax, DWORD PTR __$EHRec$[ebp]
	mov	DWORD PTR fs:0, eax
	mov	DWORD PTR _this$[ebp], ecx

; 271  : 	SetFrameDescription (50, 1);

	push	1
	push	50					; 00000032H
	mov	ecx, DWORD PTR _this$[ebp]
	call	?SetFrameDescription@SimulationDriver@@QAEXHH@Z ; SimulationDriver::SetFrameDescription

; 272  : 	motionOn = TRUE;

	mov	eax, DWORD PTR _this$[ebp]
	mov	DWORD PTR [eax+352], 1

; 273  : 
; 274  : 	// Prep database filtering
; 275  : 	objectList = NULL;

	mov	ecx, DWORD PTR _this$[ebp]
	mov	DWORD PTR [ecx], 0

; 276  : 	campUnitList = NULL;

	mov	edx, DWORD PTR _this$[ebp]
	mov	DWORD PTR [edx+8], 0

; 277  : 	campObjList = NULL;

	mov	eax, DWORD PTR _this$[ebp]
	mov	DWORD PTR [eax+12], 0

; 278  : 	combinedList = NULL;

	mov	ecx, DWORD PTR _this$[ebp]
	mov	DWORD PTR [ecx+16], 0

; 279  : 	combinedFeatureList = NULL;

	mov	edx, DWORD PTR _this$[ebp]
	mov	DWORD PTR [edx+20], 0

; 280  : 	ObjsWithNoCampaignParentList = NULL;

	mov	eax, DWORD PTR _this$[ebp]
	mov	DWORD PTR [eax+24], 0

; 281  : 
; 282  : 	//Prep Object Data
; 283  : 	// Check file integrity
; 284  : 	FileVerify();

	call	?FileVerify@@YAHXZ			; FileVerify

; 285  : 
; 286  : 	SimMoverDefinition::ReadSimMoverDefinitionData();

	call	?ReadSimMoverDefinitionData@SimMoverDefinition@@SAXXZ ; SimMoverDefinition::ReadSimMoverDefinitionData

; 287  : 	ReadDigitalBrainData();

	call	?ReadDigitalBrainData@@YAXXZ		; ReadDigitalBrainData

; 288  : 	ReadAllMissileData();

	call	?ReadAllMissileData@@YAXXZ		; ReadAllMissileData

; 289  : 	ReadAllBombData(); // 2003-11-10 MLR for exported bomb data

	call	?ReadAllBombData@@YAXXZ			; ReadAllBombData

; 290  : 	ReadAllAirframeData();

	call	?ReadAllAirframeData@@YAXXZ		; ReadAllAirframeData

; 291  : 	ReadAllRadarData(); // JPO addition to read .dat files

	call	?ReadAllRadarData@@YAXXZ		; ReadAllRadarData

; 292  : 
; 293  : 	AllSimFilter				allSimFilter;

	lea	ecx, DWORD PTR _allSimFilter$[ebp]
	call	??0AllSimFilter@@QAE@XZ			; AllSimFilter::AllSimFilter
	mov	DWORD PTR __$EHRec$[ebp+8], 0

; 294  : 	SimDynamicTacanFilter	dynamicTacanFilter;

	lea	ecx, DWORD PTR _dynamicTacanFilter$[ebp]
	call	??0SimDynamicTacanFilter@@QAE@XZ	; SimDynamicTacanFilter::SimDynamicTacanFilter
	mov	BYTE PTR __$EHRec$[ebp+8], 1

; 295  : 
; 296  : 	SimObjectFilter objectFilter;

	lea	ecx, DWORD PTR _objectFilter$[ebp]
	call	??0SimObjectFilter@@QAE@XZ		; SimObjectFilter::SimObjectFilter
	mov	BYTE PTR __$EHRec$[ebp+8], 2

; 297  : 	objectList = new FalconPrivateOrderedList(&objectFilter);

	push	24					; 00000018H
	call	??2@YAPAXI@Z				; operator new
	add	esp, 4
	mov	DWORD PTR $T15[ebp], eax
	mov	BYTE PTR __$EHRec$[ebp+8], 3
	cmp	DWORD PTR $T15[ebp], 0
	je	SHORT $LN3@Startup
	lea	ecx, DWORD PTR _objectFilter$[ebp]
	push	ecx
	mov	ecx, DWORD PTR $T15[ebp]
	call	??0FalconPrivateOrderedList@@QAE@PAVVuFilter@@@Z ; FalconPrivateOrderedList::FalconPrivateOrderedList
	mov	DWORD PTR tv128[ebp], eax
	jmp	SHORT $LN4@Startup
$LN3@Startup:
	mov	DWORD PTR tv128[ebp], 0
$LN4@Startup:
	mov	edx, DWORD PTR tv128[ebp]
	mov	DWORD PTR $T11[ebp], edx
	mov	BYTE PTR __$EHRec$[ebp+8], 2
	mov	eax, DWORD PTR _this$[ebp]
	mov	ecx, DWORD PTR $T11[ebp]
	mov	DWORD PTR [eax], ecx

; 298  : 	objectList->Register();

	mov	edx, DWORD PTR _this$[ebp]
	mov	ecx, DWORD PTR [edx]
	call	?Register@VuCollection@@QAEXXZ		; VuCollection::Register

; 299  : 
; 300  : 	SimFeatureFilter featureFilter;

	lea	ecx, DWORD PTR _featureFilter$[ebp]
	call	??0SimFeatureFilter@@QAE@XZ		; SimFeatureFilter::SimFeatureFilter
	mov	BYTE PTR __$EHRec$[ebp+8], 4

; 301  : 	featureList = new FalconPrivateOrderedList(&featureFilter);

	push	24					; 00000018H
	call	??2@YAPAXI@Z				; operator new
	add	esp, 4
	mov	DWORD PTR $T19[ebp], eax
	mov	BYTE PTR __$EHRec$[ebp+8], 5
	cmp	DWORD PTR $T19[ebp], 0
	je	SHORT $LN5@Startup
	lea	eax, DWORD PTR _featureFilter$[ebp]
	push	eax
	mov	ecx, DWORD PTR $T19[ebp]
	call	??0FalconPrivateOrderedList@@QAE@PAVVuFilter@@@Z ; FalconPrivateOrderedList::FalconPrivateOrderedList
	mov	DWORD PTR tv150[ebp], eax
	jmp	SHORT $LN6@Startup
$LN5@Startup:
	mov	DWORD PTR tv150[ebp], 0
$LN6@Startup:
	mov	ecx, DWORD PTR tv150[ebp]
	mov	DWORD PTR $T9[ebp], ecx
	mov	BYTE PTR __$EHRec$[ebp+8], 4
	mov	edx, DWORD PTR _this$[ebp]
	mov	eax, DWORD PTR $T9[ebp]
	mov	DWORD PTR [edx+4], eax

; 302  : 	featureList->Register();

	mov	ecx, DWORD PTR _this$[ebp]
	mov	ecx, DWORD PTR [ecx+4]
	call	?Register@VuCollection@@QAEXXZ		; VuCollection::Register

; 303  : 
; 304  : 
; 305  : 	UnitFilter	unitFilter(0,1,0,0);

	push	0
	push	0
	push	1
	push	0
	lea	ecx, DWORD PTR _unitFilter$[ebp]
	call	??0UnitFilter@@QAE@EEGE@Z		; UnitFilter::UnitFilter
	mov	BYTE PTR __$EHRec$[ebp+8], 6

; 306  : 	campUnitList = new FalconPrivateOrderedList(&unitFilter);

	push	24					; 00000018H
	call	??2@YAPAXI@Z				; operator new
	add	esp, 4
	mov	DWORD PTR $T18[ebp], eax
	mov	BYTE PTR __$EHRec$[ebp+8], 7
	cmp	DWORD PTR $T18[ebp], 0
	je	SHORT $LN7@Startup
	lea	edx, DWORD PTR _unitFilter$[ebp]
	push	edx
	mov	ecx, DWORD PTR $T18[ebp]
	call	??0FalconPrivateOrderedList@@QAE@PAVVuFilter@@@Z ; FalconPrivateOrderedList::FalconPrivateOrderedList
	mov	DWORD PTR tv176[ebp], eax
	jmp	SHORT $LN8@Startup
$LN7@Startup:
	mov	DWORD PTR tv176[ebp], 0
$LN8@Startup:
	mov	eax, DWORD PTR tv176[ebp]
	mov	DWORD PTR $T2[ebp], eax
	mov	BYTE PTR __$EHRec$[ebp+8], 6
	mov	ecx, DWORD PTR _this$[ebp]
	mov	edx, DWORD PTR $T2[ebp]
	mov	DWORD PTR [ecx+8], edx

; 307  : 	campUnitList->Register();

	mov	eax, DWORD PTR _this$[ebp]
	mov	ecx, DWORD PTR [eax+8]
	call	?Register@VuCollection@@QAEXXZ		; VuCollection::Register

; 308  : 
; 309  : 	ObjFilter	objectiveFilter(0);

	push	0
	lea	ecx, DWORD PTR _objectiveFilter$[ebp]
	call	??0ObjFilter@@QAE@G@Z			; ObjFilter::ObjFilter
	mov	BYTE PTR __$EHRec$[ebp+8], 8

; 310  : 	campObjList = new FalconPrivateOrderedList(&objectiveFilter);

	push	24					; 00000018H
	call	??2@YAPAXI@Z				; operator new
	add	esp, 4
	mov	DWORD PTR $T17[ebp], eax
	mov	BYTE PTR __$EHRec$[ebp+8], 9
	cmp	DWORD PTR $T17[ebp], 0
	je	SHORT $LN9@Startup
	lea	ecx, DWORD PTR _objectiveFilter$[ebp]
	push	ecx
	mov	ecx, DWORD PTR $T17[ebp]
	call	??0FalconPrivateOrderedList@@QAE@PAVVuFilter@@@Z ; FalconPrivateOrderedList::FalconPrivateOrderedList
	mov	DWORD PTR tv199[ebp], eax
	jmp	SHORT $LN10@Startup
$LN9@Startup:
	mov	DWORD PTR tv199[ebp], 0
$LN10@Startup:
	mov	edx, DWORD PTR tv199[ebp]
	mov	DWORD PTR $T7[ebp], edx
	mov	BYTE PTR __$EHRec$[ebp+8], 8
	mov	eax, DWORD PTR _this$[ebp]
	mov	ecx, DWORD PTR $T7[ebp]
	mov	DWORD PTR [eax+12], ecx

; 311  : 	campObjList->Register();

	mov	edx, DWORD PTR _this$[ebp]
	mov	ecx, DWORD PTR [edx+12]
	call	?Register@VuCollection@@QAEXXZ		; VuCollection::Register

; 312  : 
; 313  : 
; 314  : 	facList = new FalconPrivateList(&allSimFilter);

	push	24					; 00000018H
	call	??2@YAPAXI@Z				; operator new
	add	esp, 4
	mov	DWORD PTR $T16[ebp], eax
	mov	BYTE PTR __$EHRec$[ebp+8], 10		; 0000000aH
	cmp	DWORD PTR $T16[ebp], 0
	je	SHORT $LN11@Startup
	lea	eax, DWORD PTR _allSimFilter$[ebp]
	push	eax
	mov	ecx, DWORD PTR $T16[ebp]
	call	??0FalconPrivateList@@QAE@PAVVuFilter@@@Z ; FalconPrivateList::FalconPrivateList
	mov	DWORD PTR tv218[ebp], eax
	jmp	SHORT $LN12@Startup
$LN11@Startup:
	mov	DWORD PTR tv218[ebp], 0
$LN12@Startup:
	mov	ecx, DWORD PTR tv218[ebp]
	mov	DWORD PTR $T3[ebp], ecx
	mov	BYTE PTR __$EHRec$[ebp+8], 8
	mov	edx, DWORD PTR _this$[ebp]
	mov	eax, DWORD PTR $T3[ebp]
	mov	DWORD PTR [edx+28], eax

; 315  : 	facList->Register();

	mov	ecx, DWORD PTR _this$[ebp]
	mov	ecx, DWORD PTR [ecx+28]
	call	?Register@VuCollection@@QAEXXZ		; VuCollection::Register

; 316  : 
; 317  : 	SimAirfieldFilter	airbaseFilter;

	lea	ecx, DWORD PTR _airbaseFilter$[ebp]
	call	??0SimAirfieldFilter@@QAE@XZ		; SimAirfieldFilter::SimAirfieldFilter
	mov	BYTE PTR __$EHRec$[ebp+8], 11		; 0000000bH

; 318  : 	atcList = new VuFilteredList(&airbaseFilter);

	push	24					; 00000018H
	call	??2@YAPAXI@Z				; operator new
	add	esp, 4
	mov	DWORD PTR $T14[ebp], eax
	mov	BYTE PTR __$EHRec$[ebp+8], 12		; 0000000cH
	cmp	DWORD PTR $T14[ebp], 0
	je	SHORT $LN13@Startup
	lea	edx, DWORD PTR _airbaseFilter$[ebp]
	push	edx
	mov	ecx, DWORD PTR $T14[ebp]
	call	??0VuLinkedList@@QAE@PAVVuFilter@@@Z	; VuLinkedList::VuLinkedList
	mov	DWORD PTR tv240[ebp], eax
	jmp	SHORT $LN14@Startup
$LN13@Startup:
	mov	DWORD PTR tv240[ebp], 0
$LN14@Startup:
	mov	eax, DWORD PTR tv240[ebp]
	mov	DWORD PTR $T5[ebp], eax
	mov	BYTE PTR __$EHRec$[ebp+8], 11		; 0000000bH
	mov	ecx, DWORD PTR _this$[ebp]
	mov	edx, DWORD PTR $T5[ebp]
	mov	DWORD PTR [ecx+32], edx

; 319  : 	atcList->Register();

	mov	eax, DWORD PTR _this$[ebp]
	mov	ecx, DWORD PTR [eax+32]
	call	?Register@VuCollection@@QAEXXZ		; VuCollection::Register

; 320  : 
; 321  : 	tankerList = new VuFilteredList(&dynamicTacanFilter);

	push	24					; 00000018H
	call	??2@YAPAXI@Z				; operator new
	add	esp, 4
	mov	DWORD PTR $T12[ebp], eax
	mov	BYTE PTR __$EHRec$[ebp+8], 13		; 0000000dH
	cmp	DWORD PTR $T12[ebp], 0
	je	SHORT $LN15@Startup
	lea	ecx, DWORD PTR _dynamicTacanFilter$[ebp]
	push	ecx
	mov	ecx, DWORD PTR $T12[ebp]
	call	??0VuLinkedList@@QAE@PAVVuFilter@@@Z	; VuLinkedList::VuLinkedList
	mov	DWORD PTR tv259[ebp], eax
	jmp	SHORT $LN16@Startup
$LN15@Startup:
	mov	DWORD PTR tv259[ebp], 0
$LN16@Startup:
	mov	edx, DWORD PTR tv259[ebp]
	mov	DWORD PTR $T10[ebp], edx
	mov	BYTE PTR __$EHRec$[ebp+8], 11		; 0000000bH
	mov	eax, DWORD PTR _this$[ebp]
	mov	ecx, DWORD PTR $T10[ebp]
	mov	DWORD PTR [eax+36], ecx

; 322  : 	tankerList->Register();

	mov	edx, DWORD PTR _this$[ebp]
	mov	ecx, DWORD PTR [edx+36]
	call	?Register@VuCollection@@QAEXXZ		; VuCollection::Register

; 323  : 
; 324  : 
; 325  : 	CombinedSimFilter combinedFilter;

	lea	ecx, DWORD PTR _combinedFilter$[ebp]
	call	??0CombinedSimFilter@@QAE@XZ		; CombinedSimFilter::CombinedSimFilter
	mov	BYTE PTR __$EHRec$[ebp+8], 14		; 0000000eH

; 326  : 	combinedList =		 new FalconPrivateOrderedList(&combinedFilter);

	push	24					; 00000018H
	call	??2@YAPAXI@Z				; operator new
	add	esp, 4
	mov	DWORD PTR $T13[ebp], eax
	mov	BYTE PTR __$EHRec$[ebp+8], 15		; 0000000fH
	cmp	DWORD PTR $T13[ebp], 0
	je	SHORT $LN17@Startup
	lea	eax, DWORD PTR _combinedFilter$[ebp]
	push	eax
	mov	ecx, DWORD PTR $T13[ebp]
	call	??0FalconPrivateOrderedList@@QAE@PAVVuFilter@@@Z ; FalconPrivateOrderedList::FalconPrivateOrderedList
	mov	DWORD PTR tv281[ebp], eax
	jmp	SHORT $LN18@Startup
$LN17@Startup:
	mov	DWORD PTR tv281[ebp], 0
$LN18@Startup:
	mov	ecx, DWORD PTR tv281[ebp]
	mov	DWORD PTR $T8[ebp], ecx
	mov	BYTE PTR __$EHRec$[ebp+8], 14		; 0000000eH
	mov	edx, DWORD PTR _this$[ebp]
	mov	eax, DWORD PTR $T8[ebp]
	mov	DWORD PTR [edx+16], eax

; 327  : 	combinedList->Register();

	mov	ecx, DWORD PTR _this$[ebp]
	mov	ecx, DWORD PTR [ecx+16]
	call	?Register@VuCollection@@QAEXXZ		; VuCollection::Register

; 328  : 
; 329  : 	combinedFeatureList = new FalconPrivateOrderedList(&combinedFilter);

	push	24					; 00000018H
	call	??2@YAPAXI@Z				; operator new
	add	esp, 4
	mov	DWORD PTR $T21[ebp], eax
	mov	BYTE PTR __$EHRec$[ebp+8], 16		; 00000010H
	cmp	DWORD PTR $T21[ebp], 0
	je	SHORT $LN19@Startup
	lea	edx, DWORD PTR _combinedFilter$[ebp]
	push	edx
	mov	ecx, DWORD PTR $T21[ebp]
	call	??0FalconPrivateOrderedList@@QAE@PAVVuFilter@@@Z ; FalconPrivateOrderedList::FalconPrivateOrderedList
	mov	DWORD PTR tv300[ebp], eax
	jmp	SHORT $LN20@Startup
$LN19@Startup:
	mov	DWORD PTR tv300[ebp], 0
$LN20@Startup:
	mov	eax, DWORD PTR tv300[ebp]
	mov	DWORD PTR $T6[ebp], eax
	mov	BYTE PTR __$EHRec$[ebp+8], 14		; 0000000eH
	mov	ecx, DWORD PTR _this$[ebp]
	mov	edx, DWORD PTR $T6[ebp]
	mov	DWORD PTR [ecx+20], edx

; 330  : 	combinedFeatureList->Register();

	mov	eax, DWORD PTR _this$[ebp]
	mov	ecx, DWORD PTR [eax+20]
	call	?Register@VuCollection@@QAEXXZ		; VuCollection::Register

; 331  : 
; 332  : 	ObjsWithNoCampaignParentList = new FalconPrivateList(&allSimFilter);

	push	24					; 00000018H
	call	??2@YAPAXI@Z				; operator new
	add	esp, 4
	mov	DWORD PTR $T20[ebp], eax
	mov	BYTE PTR __$EHRec$[ebp+8], 17		; 00000011H
	cmp	DWORD PTR $T20[ebp], 0
	je	SHORT $LN21@Startup
	lea	ecx, DWORD PTR _allSimFilter$[ebp]
	push	ecx
	mov	ecx, DWORD PTR $T20[ebp]
	call	??0FalconPrivateList@@QAE@PAVVuFilter@@@Z ; FalconPrivateList::FalconPrivateList
	mov	DWORD PTR tv319[ebp], eax
	jmp	SHORT $LN22@Startup
$LN21@Startup:
	mov	DWORD PTR tv319[ebp], 0
$LN22@Startup:
	mov	edx, DWORD PTR tv319[ebp]
	mov	DWORD PTR $T4[ebp], edx
	mov	BYTE PTR __$EHRec$[ebp+8], 14		; 0000000eH
	mov	eax, DWORD PTR _this$[ebp]
	mov	ecx, DWORD PTR $T4[ebp]
	mov	DWORD PTR [eax+24], ecx

; 333  : 	ObjsWithNoCampaignParentList->Register();

	mov	edx, DWORD PTR _this$[ebp]
	mov	ecx, DWORD PTR [edx+24]
	call	?Register@VuCollection@@QAEXXZ		; VuCollection::Register

; 334  : 
; 335  : 	EndFlightFlag = FALSE;

	mov	DWORD PTR ?EndFlightFlag@@3HA, 0	; EndFlightFlag

; 336  : 
; 337  : #ifndef NO_TIMER_THREAD
; 338  : #if MF_DONT_PROCESS_DELETE || VU_USE_ENUM_FOR_TYPES
; 339  : 	FalconMessageFilter messageFilter(FalconEvent::SimThread, 0);
; 340  : #else
; 341  : 	FalconMessageFilter messageFilter(FalconEvent::SimThread, VU_DELETE_EVENT_BITS);
; 342  : #endif
; 343  : 	vuThread = new VuThread (&messageFilter, F4_EVENT_QUEUE_SIZE);
; 344  : #endif
; 345  : 
; 346  : 	last_elapsedTime = 0;

	mov	eax, DWORD PTR _this$[ebp]
	mov	DWORD PTR [eax+64], 0

; 347  : 	lastRealTime = vuxGameTime;

	mov	ecx, DWORD PTR _this$[ebp]
	mov	edx, DWORD PTR ?vuxGameTime@@3KA	; vuxGameTime
	mov	DWORD PTR [ecx+52], edx

; 348  : 	lastFlyState = -1;

	mov	eax, DWORD PTR _this$[ebp]
	mov	DWORD PTR [eax+68], -1

; 349  : 	curFlyState = 0;

	mov	ecx, DWORD PTR _this$[ebp]
	mov	DWORD PTR [ecx+72], 0

; 350  : }

	mov	BYTE PTR __$EHRec$[ebp+8], 11		; 0000000bH
	lea	ecx, DWORD PTR _combinedFilter$[ebp]
	call	??1CombinedSimFilter@@UAE@XZ		; CombinedSimFilter::~CombinedSimFilter
	mov	BYTE PTR __$EHRec$[ebp+8], 8
	lea	ecx, DWORD PTR _airbaseFilter$[ebp]
	call	??1SimAirfieldFilter@@UAE@XZ		; SimAirfieldFilter::~SimAirfieldFilter
	mov	BYTE PTR __$EHRec$[ebp+8], 6
	lea	ecx, DWORD PTR _objectiveFilter$[ebp]
	call	??1ObjFilter@@UAE@XZ			; ObjFilter::~ObjFilter
	mov	BYTE PTR __$EHRec$[ebp+8], 4
	lea	ecx, DWORD PTR _unitFilter$[ebp]
	call	??1UnitFilter@@UAE@XZ			; UnitFilter::~UnitFilter
	mov	BYTE PTR __$EHRec$[ebp+8], 2
	lea	ecx, DWORD PTR _featureFilter$[ebp]
	call	??1SimFeatureFilter@@UAE@XZ		; SimFeatureFilter::~SimFeatureFilter
	mov	BYTE PTR __$EHRec$[ebp+8], 1
	lea	ecx, DWORD PTR _objectFilter$[ebp]
	call	??1SimObjectFilter@@UAE@XZ		; SimObjectFilter::~SimObjectFilter
	mov	BYTE PTR __$EHRec$[ebp+8], 0
	lea	ecx, DWORD PTR _dynamicTacanFilter$[ebp]
	call	??1SimDynamicTacanFilter@@UAE@XZ	; SimDynamicTacanFilter::~SimDynamicTacanFilter
	mov	DWORD PTR __$EHRec$[ebp+8], -1
	lea	ecx, DWORD PTR _allSimFilter$[ebp]
	call	??1AllSimFilter@@UAE@XZ			; AllSimFilter::~AllSimFilter
	mov	ecx, DWORD PTR __$EHRec$[ebp]
	mov	DWORD PTR fs:0, ecx
	pop	ecx
	mov	esp, ebp
	pop	ebp
	ret	0
_TEXT	ENDS
text$x	SEGMENT
__unwindfunclet$?Startup@SimulationDriver@@QAEXXZ$0:
	lea	ecx, DWORD PTR _allSimFilter$[ebp]
	jmp	??1AllSimFilter@@UAE@XZ			; AllSimFilter::~AllSimFilter
__unwindfunclet$?Startup@SimulationDriver@@QAEXXZ$1:
	lea	ecx, DWORD PTR _dynamicTacanFilter$[ebp]
	jmp	??1SimDynamicTacanFilter@@UAE@XZ	; SimDynamicTacanFilter::~SimDynamicTacanFilter
__unwindfunclet$?Startup@SimulationDriver@@QAEXXZ$2:
	lea	ecx, DWORD PTR _objectFilter$[ebp]
	jmp	??1SimObjectFilter@@UAE@XZ		; SimObjectFilter::~SimObjectFilter
__unwindfunclet$?Startup@SimulationDriver@@QAEXXZ$3:
	mov	eax, DWORD PTR $T15[ebp]
	push	eax
	call	??3@YAXPAX@Z				; operator delete
	pop	ecx
	ret	0
__unwindfunclet$?Startup@SimulationDriver@@QAEXXZ$4:
	lea	ecx, DWORD PTR _featureFilter$[ebp]
	jmp	??1SimFeatureFilter@@UAE@XZ		; SimFeatureFilter::~SimFeatureFilter
__unwindfunclet$?Startup@SimulationDriver@@QAEXXZ$5:
	mov	eax, DWORD PTR $T19[ebp]
	push	eax
	call	??3@YAXPAX@Z				; operator delete
	pop	ecx
	ret	0
__unwindfunclet$?Startup@SimulationDriver@@QAEXXZ$6:
	lea	ecx, DWORD PTR _unitFilter$[ebp]
	jmp	??1UnitFilter@@UAE@XZ			; UnitFilter::~UnitFilter
__unwindfunclet$?Startup@SimulationDriver@@QAEXXZ$7:
	mov	eax, DWORD PTR $T18[ebp]
	push	eax
	call	??3@YAXPAX@Z				; operator delete
	pop	ecx
	ret	0
__unwindfunclet$?Startup@SimulationDriver@@QAEXXZ$8:
	lea	ecx, DWORD PTR _objectiveFilter$[ebp]
	jmp	??1ObjFilter@@UAE@XZ			; ObjFilter::~ObjFilter
__unwindfunclet$?Startup@SimulationDriver@@QAEXXZ$9:
	mov	eax, DWORD PTR $T17[ebp]
	push	eax
	call	??3@YAXPAX@Z				; operator delete
	pop	ecx
	ret	0
__unwindfunclet$?Startup@SimulationDriver@@QAEXXZ$10:
	mov	eax, DWORD PTR $T16[ebp]
	push	eax
	call	??3@YAXPAX@Z				; operator delete
	pop	ecx
	ret	0
__unwindfunclet$?Startup@SimulationDriver@@QAEXXZ$11:
	lea	ecx, DWORD PTR _airbaseFilter$[ebp]
	jmp	??1SimAirfieldFilter@@UAE@XZ		; SimAirfieldFilter::~SimAirfieldFilter
__unwindfunclet$?Startup@SimulationDriver@@QAEXXZ$12:
	mov	eax, DWORD PTR $T14[ebp]
	push	eax
	call	??3@YAXPAX@Z				; operator delete
	pop	ecx
	ret	0
__unwindfunclet$?Startup@SimulationDriver@@QAEXXZ$13:
	mov	eax, DWORD PTR $T12[ebp]
	push	eax
	call	??3@YAXPAX@Z				; operator delete
	pop	ecx
	ret	0
__unwindfunclet$?Startup@SimulationDriver@@QAEXXZ$14:
	lea	ecx, DWORD PTR _combinedFilter$[ebp]
	jmp	??1CombinedSimFilter@@UAE@XZ		; CombinedSimFilter::~CombinedSimFilter
__unwindfunclet$?Startup@SimulationDriver@@QAEXXZ$15:
	mov	eax, DWORD PTR $T13[ebp]
	push	eax
	call	??3@YAXPAX@Z				; operator delete
	pop	ecx
	ret	0
__unwindfunclet$?Startup@SimulationDriver@@QAEXXZ$16:
	mov	eax, DWORD PTR $T21[ebp]
	push	eax
	call	??3@YAXPAX@Z				; operator delete
	pop	ecx
	ret	0
__unwindfunclet$?Startup@SimulationDriver@@QAEXXZ$17:
	mov	eax, DWORD PTR $T20[ebp]
	push	eax
	call	??3@YAXPAX@Z				; operator delete
	pop	ecx
	ret	0
__ehhandler$?Startup@SimulationDriver@@QAEXXZ:
	mov	edx, DWORD PTR [esp+8]
	lea	eax, DWORD PTR [edx+12]
	mov	ecx, DWORD PTR [edx-172]
	xor	ecx, eax
	call	@__security_check_cookie@4
	mov	eax, OFFSET __ehfuncinfo$?Startup@SimulationDriver@@QAEXXZ
	jmp	___CxxFrameHandler3
text$x	ENDS
?Startup@SimulationDriver@@QAEXXZ ENDP			; SimulationDriver::Startup
; Function compile flags: /Odtp
; File c:\users\zhitao li\documents\visual studio 2012\projects\freefalcon\sim\simdrive\simdrive.cpp
_TEXT	SEGMENT
_this$ = -4						; size = 4
??1SimulationDriver@@QAE@XZ PROC			; SimulationDriver::~SimulationDriver
; _this$ = ecx

; 264  : {

	push	ebp
	mov	ebp, esp
	push	ecx
	mov	DWORD PTR _this$[ebp], ecx

; 265  : }

	mov	esp, ebp
	pop	ebp
	ret	0
??1SimulationDriver@@QAE@XZ ENDP			; SimulationDriver::~SimulationDriver
_TEXT	ENDS
; Function compile flags: /Odtp
; File c:\users\zhitao li\documents\visual studio 2012\projects\freefalcon\sim\simdrive\simdrive.cpp
_TEXT	SEGMENT
tv141 = -44						; size = 8
tv135 = -36						; size = 8
tv92 = -28						; size = 8
tv133 = -20						; size = 4
tv137 = -16						; size = 4
tv88 = -12						; size = 4
_this$ = -8						; size = 4
tv130 = -2						; size = 2
??0SimulationDriver@@QAE@XZ PROC			; SimulationDriver::SimulationDriver
; _this$ = ecx

; 236  : {

	push	ebp
	mov	ebp, esp
	sub	esp, 44					; 0000002cH
	mov	DWORD PTR _this$[ebp], ecx

; 237  : 	SimLibFrameElapsed = static_cast<float>(vuxGameTime);

	mov	eax, DWORD PTR ?vuxGameTime@@3KA	; vuxGameTime
	mov	DWORD PTR tv88[ebp], eax
	cvtsi2sd xmm0, DWORD PTR tv88[ebp]
	mov	ecx, DWORD PTR tv88[ebp]
	shr	ecx, 31					; 0000001fH
	addsd	xmm0, QWORD PTR __xmm@41f00000000000000000000000000000[ecx*8]
	movsd	QWORD PTR tv92[ebp], xmm0
	cvtsd2ss xmm0, QWORD PTR tv92[ebp]
	movss	DWORD PTR ?SimLibFrameElapsed@@3MA, xmm0

; 238  : 	SimLibElapsedTime = static_cast<SIM_ULONG>(SimLibFrameElapsed);

	fld	DWORD PTR ?SimLibFrameElapsed@@3MA	; SimLibFrameElapsed
	fnstcw	WORD PTR tv130[ebp]
	movzx	eax, WORD PTR tv130[ebp]
	or	eax, 3072				; 00000c00H
	mov	DWORD PTR tv133[ebp], eax
	fldcw	WORD PTR tv133[ebp]
	fistp	QWORD PTR tv135[ebp]
	fldcw	WORD PTR tv130[ebp]
	mov	edx, DWORD PTR tv135[ebp]
	mov	DWORD PTR ?SimLibElapsedTime@@3KA, edx	; SimLibElapsedTime

; 239  : 	UPDATE_SIM_ELAPSED_SECONDS; // COBRA - RED - Scale Elapsed Seconds

	mov	eax, DWORD PTR ?SimLibElapsedTime@@3KA	; SimLibElapsedTime
	mov	DWORD PTR tv137[ebp], eax
	cvtsi2sd xmm0, DWORD PTR tv137[ebp]
	mov	ecx, DWORD PTR tv137[ebp]
	shr	ecx, 31					; 0000001fH
	addsd	xmm0, QWORD PTR __xmm@41f00000000000000000000000000000[ecx*8]
	movsd	QWORD PTR tv141[ebp], xmm0
	cvtsd2ss xmm0, QWORD PTR tv141[ebp]
	divss	xmm0, DWORD PTR __real@447a0000
	movss	DWORD PTR ?SimLibElapsedSeconds@@3MA, xmm0
	movss	xmm0, DWORD PTR ?SimLibElapsedSeconds@@3MA
	subss	xmm0, DWORD PTR ?SimLibLastFrameTime@@3MA
	movss	DWORD PTR ?SimLibFrameElapsed@@3MA, xmm0
	movss	xmm0, DWORD PTR ?SimLibElapsedSeconds@@3MA
	movss	DWORD PTR ?SimLibLastFrameTime@@3MA, xmm0

; 240  : 
; 241  : 	SimLibFrameCount = 0;

	mov	DWORD PTR ?SimLibFrameCount@@3IA, 0	; SimLibFrameCount

; 242  : 	objectList = NULL;

	mov	edx, DWORD PTR _this$[ebp]
	mov	DWORD PTR [edx], 0

; 243  : 	combinedList = NULL;

	mov	eax, DWORD PTR _this$[ebp]
	mov	DWORD PTR [eax+16], 0

; 244  : 	combinedFeatureList = NULL;

	mov	ecx, DWORD PTR _this$[ebp]
	mov	DWORD PTR [ecx+20], 0

; 245  : 	ObjsWithNoCampaignParentList = NULL;

	mov	edx, DWORD PTR _this$[ebp]
	mov	DWORD PTR [edx+24], 0

; 246  : 	featureList = NULL;

	mov	eax, DWORD PTR _this$[ebp]
	mov	DWORD PTR [eax+4], 0

; 247  : 	campUnitList = NULL;

	mov	ecx, DWORD PTR _this$[ebp]
	mov	DWORD PTR [ecx+8], 0

; 248  : 	campObjList = NULL;

	mov	edx, DWORD PTR _this$[ebp]
	mov	DWORD PTR [edx+12], 0

; 249  : 	motionOn = TRUE;

	mov	eax, DWORD PTR _this$[ebp]
	mov	DWORD PTR [eax+352], 1

; 250  : 	playerEntity = NULL;

	mov	ecx, DWORD PTR _this$[ebp]
	mov	DWORD PTR [ecx+56], 0

; 251  : 	doEvent = FALSE;

	mov	edx, DWORD PTR _this$[ebp]
	mov	DWORD PTR [edx+44], 0

; 252  : 	doFile = FALSE;

	mov	eax, DWORD PTR _this$[ebp]
	mov	DWORD PTR [eax+40], 0

; 253  : 	doExit = FALSE;

	mov	ecx, DWORD PTR _this$[ebp]
	mov	DWORD PTR [ecx+76], 0

; 254  : 	doGraphicsExit = FALSE;

	mov	edx, DWORD PTR _this$[ebp]
	mov	DWORD PTR [edx+80], 0

; 255  : 	facList = NULL;

	mov	eax, DWORD PTR _this$[ebp]
	mov	DWORD PTR [eax+28], 0

; 256  : 	tankerList = NULL;

	mov	ecx, DWORD PTR _this$[ebp]
	mov	DWORD PTR [ecx+36], 0

; 257  : 	atcList = NULL;

	mov	edx, DWORD PTR _this$[ebp]
	mov	DWORD PTR [edx+32], 0

; 258  : 	avtrOn = FALSE;

	mov	eax, DWORD PTR _this$[ebp]
	mov	DWORD PTR [eax+356], 0

; 259  : 	lastRealTime = 0;

	mov	ecx, DWORD PTR _this$[ebp]
	mov	DWORD PTR [ecx+52], 0

; 260  : 	inCycle = 0; // MLR 1/2/2005 - 

	mov	edx, DWORD PTR _this$[ebp]
	mov	BYTE PTR [edx+60], 0

; 261  : }

	mov	eax, DWORD PTR _this$[ebp]
	mov	esp, ebp
	pop	ebp
	ret	0
??0SimulationDriver@@QAE@XZ ENDP			; SimulationDriver::SimulationDriver
_TEXT	ENDS
; Function compile flags: /Odtp
;	COMDAT ??_GObjFilter@@UAEPAXI@Z
_TEXT	SEGMENT
_this$ = -4						; size = 4
___flags$ = 8						; size = 4
??_GObjFilter@@UAEPAXI@Z PROC				; ObjFilter::`scalar deleting destructor', COMDAT
; _this$ = ecx
	push	ebp
	mov	ebp, esp
	push	ecx
	mov	DWORD PTR _this$[ebp], ecx
	mov	ecx, DWORD PTR _this$[ebp]
	call	??1ObjFilter@@UAE@XZ			; ObjFilter::~ObjFilter
	mov	eax, DWORD PTR ___flags$[ebp]
	and	eax, 1
	je	SHORT $LN1@scalar
	mov	ecx, DWORD PTR _this$[ebp]
	push	ecx
	call	??3@YAXPAX@Z				; operator delete
	add	esp, 4
$LN1@scalar:
	mov	eax, DWORD PTR _this$[ebp]
	mov	esp, ebp
	pop	ebp
	ret	4
??_GObjFilter@@UAEPAXI@Z ENDP				; ObjFilter::`scalar deleting destructor'
_TEXT	ENDS
; Function compile flags: /Odtp
; File c:\users\zhitao li\documents\visual studio 2012\projects\freefalcon\campaign\include\camplist.h
;	COMDAT ?Copy@ObjFilter@@UAEPAVVuFilter@@XZ
_TEXT	SEGMENT
$T2 = -28						; size = 4
_this$ = -24						; size = 4
tv76 = -20						; size = 4
$T3 = -16						; size = 4
__$EHRec$ = -12						; size = 12
?Copy@ObjFilter@@UAEPAVVuFilter@@XZ PROC		; ObjFilter::Copy, COMDAT
; _this$ = ecx

; 144  : 	virtual VuFilter *Copy()			{ return new ObjFilter(host); }

	push	ebp
	mov	ebp, esp
	push	-1
	push	__ehhandler$?Copy@ObjFilter@@UAEPAVVuFilter@@XZ
	mov	eax, DWORD PTR fs:0
	push	eax
	sub	esp, 16					; 00000010H
	mov	eax, DWORD PTR ___security_cookie
	xor	eax, ebp
	push	eax
	lea	eax, DWORD PTR __$EHRec$[ebp]
	mov	DWORD PTR fs:0, eax
	mov	DWORD PTR _this$[ebp], ecx
	push	8
	call	??2@YAPAXI@Z				; operator new
	add	esp, 4
	mov	DWORD PTR $T3[ebp], eax
	mov	DWORD PTR __$EHRec$[ebp+8], 0
	cmp	DWORD PTR $T3[ebp], 0
	je	SHORT $LN3@Copy
	mov	eax, DWORD PTR _this$[ebp]
	movzx	ecx, WORD PTR [eax+4]
	push	ecx
	mov	ecx, DWORD PTR $T3[ebp]
	call	??0ObjFilter@@QAE@G@Z			; ObjFilter::ObjFilter
	mov	DWORD PTR tv76[ebp], eax
	jmp	SHORT $LN4@Copy
$LN3@Copy:
	mov	DWORD PTR tv76[ebp], 0
$LN4@Copy:
	mov	edx, DWORD PTR tv76[ebp]
	mov	DWORD PTR $T2[ebp], edx
	mov	DWORD PTR __$EHRec$[ebp+8], -1
	mov	eax, DWORD PTR $T2[ebp]
	mov	ecx, DWORD PTR __$EHRec$[ebp]
	mov	DWORD PTR fs:0, ecx
	pop	ecx
	mov	esp, ebp
	pop	ebp
	ret	0
_TEXT	ENDS
;	COMDAT text$x
text$x	SEGMENT
__unwindfunclet$?Copy@ObjFilter@@UAEPAVVuFilter@@XZ$0:
	mov	eax, DWORD PTR $T3[ebp]
	push	eax
	call	??3@YAXPAX@Z				; operator delete
	pop	ecx
	ret	0
__ehhandler$?Copy@ObjFilter@@UAEPAVVuFilter@@XZ:
	mov	edx, DWORD PTR [esp+8]
	lea	eax, DWORD PTR [edx+12]
	mov	ecx, DWORD PTR [edx-20]
	xor	ecx, eax
	call	@__security_check_cookie@4
	mov	eax, OFFSET __ehfuncinfo$?Copy@ObjFilter@@UAEPAVVuFilter@@XZ
	jmp	___CxxFrameHandler3
text$x	ENDS
?Copy@ObjFilter@@UAEPAVVuFilter@@XZ ENDP		; ObjFilter::Copy
; Function compile flags: /Odtp
; File c:\users\zhitao li\documents\visual studio 2012\projects\freefalcon\campaign\include\camplist.h
;	COMDAT ?Compare@ObjFilter@@UAEHPAVVuEntity@@0@Z
_TEXT	SEGMENT
_this$ = -4						; size = 4
_ent1$ = 8						; size = 4
_ent2$ = 12						; size = 4
?Compare@ObjFilter@@UAEHPAVVuEntity@@0@Z PROC		; ObjFilter::Compare, COMDAT
; _this$ = ecx

; 143  : 	virtual int Compare(VuEntity *ent1, VuEntity *ent2)	{ return (SimCompare (ent1, ent2)); }

	push	ebp
	mov	ebp, esp
	push	ecx
	mov	DWORD PTR _this$[ebp], ecx
	mov	eax, DWORD PTR _ent2$[ebp]
	push	eax
	mov	ecx, DWORD PTR _ent1$[ebp]
	push	ecx
	call	?SimCompare@@YAHPAVVuEntity@@0@Z	; SimCompare
	add	esp, 8
	mov	esp, ebp
	pop	ebp
	ret	8
?Compare@ObjFilter@@UAEHPAVVuEntity@@0@Z ENDP		; ObjFilter::Compare
_TEXT	ENDS
; Function compile flags: /Odtp
; File c:\users\zhitao li\documents\visual studio 2012\projects\freefalcon\campaign\include\camplist.h
;	COMDAT ??1ObjFilter@@UAE@XZ
_TEXT	SEGMENT
_this$ = -4						; size = 4
??1ObjFilter@@UAE@XZ PROC				; ObjFilter::~ObjFilter, COMDAT
; _this$ = ecx

; 139  : 	virtual ~ObjFilter(void)			{}

	push	ebp
	mov	ebp, esp
	push	ecx
	mov	DWORD PTR _this$[ebp], ecx
	mov	eax, DWORD PTR _this$[ebp]
	mov	DWORD PTR [eax], OFFSET ??_7ObjFilter@@6B@
	mov	ecx, DWORD PTR _this$[ebp]
	call	??1VuFilter@@UAE@XZ			; VuFilter::~VuFilter
	mov	esp, ebp
	pop	ebp
	ret	0
??1ObjFilter@@UAE@XZ ENDP				; ObjFilter::~ObjFilter
_TEXT	ENDS
; Function compile flags: /Odtp
;	COMDAT ??_GUnitFilter@@UAEPAXI@Z
_TEXT	SEGMENT
_this$ = -4						; size = 4
___flags$ = 8						; size = 4
??_GUnitFilter@@UAEPAXI@Z PROC				; UnitFilter::`scalar deleting destructor', COMDAT
; _this$ = ecx
	push	ebp
	mov	ebp, esp
	push	ecx
	mov	DWORD PTR _this$[ebp], ecx
	mov	ecx, DWORD PTR _this$[ebp]
	call	??1UnitFilter@@UAE@XZ			; UnitFilter::~UnitFilter
	mov	eax, DWORD PTR ___flags$[ebp]
	and	eax, 1
	je	SHORT $LN1@scalar
	mov	ecx, DWORD PTR _this$[ebp]
	push	ecx
	call	??3@YAXPAX@Z				; operator delete
	add	esp, 4
$LN1@scalar:
	mov	eax, DWORD PTR _this$[ebp]
	mov	esp, ebp
	pop	ebp
	ret	4
??_GUnitFilter@@UAEPAXI@Z ENDP				; UnitFilter::`scalar deleting destructor'
_TEXT	ENDS
; Function compile flags: /Odtp
; File c:\users\zhitao li\documents\visual studio 2012\projects\freefalcon\campaign\include\camplist.h
;	COMDAT ?Copy@UnitFilter@@UAEPAVVuFilter@@XZ
_TEXT	SEGMENT
$T2 = -28						; size = 4
tv82 = -24						; size = 4
$T3 = -20						; size = 4
_this$ = -16						; size = 4
__$EHRec$ = -12						; size = 12
?Copy@UnitFilter@@UAEPAVVuFilter@@XZ PROC		; UnitFilter::Copy, COMDAT
; _this$ = ecx

; 33   : 	virtual VuFilter *Copy()			{ return new UnitFilter(parent,real,host,inactive); }

	push	ebp
	mov	ebp, esp
	push	-1
	push	__ehhandler$?Copy@UnitFilter@@UAEPAVVuFilter@@XZ
	mov	eax, DWORD PTR fs:0
	push	eax
	sub	esp, 16					; 00000010H
	mov	eax, DWORD PTR ___security_cookie
	xor	eax, ebp
	push	eax
	lea	eax, DWORD PTR __$EHRec$[ebp]
	mov	DWORD PTR fs:0, eax
	mov	DWORD PTR _this$[ebp], ecx
	push	12					; 0000000cH
	call	??2@YAPAXI@Z				; operator new
	add	esp, 4
	mov	DWORD PTR $T3[ebp], eax
	mov	DWORD PTR __$EHRec$[ebp+8], 0
	cmp	DWORD PTR $T3[ebp], 0
	je	SHORT $LN3@Copy
	mov	eax, DWORD PTR _this$[ebp]
	movzx	ecx, BYTE PTR [eax+8]
	push	ecx
	mov	edx, DWORD PTR _this$[ebp]
	movzx	eax, WORD PTR [edx+6]
	push	eax
	mov	ecx, DWORD PTR _this$[ebp]
	movzx	edx, BYTE PTR [ecx+5]
	push	edx
	mov	eax, DWORD PTR _this$[ebp]
	movzx	ecx, BYTE PTR [eax+4]
	push	ecx
	mov	ecx, DWORD PTR $T3[ebp]
	call	??0UnitFilter@@QAE@EEGE@Z		; UnitFilter::UnitFilter
	mov	DWORD PTR tv82[ebp], eax
	jmp	SHORT $LN4@Copy
$LN3@Copy:
	mov	DWORD PTR tv82[ebp], 0
$LN4@Copy:
	mov	edx, DWORD PTR tv82[ebp]
	mov	DWORD PTR $T2[ebp], edx
	mov	DWORD PTR __$EHRec$[ebp+8], -1
	mov	eax, DWORD PTR $T2[ebp]
	mov	ecx, DWORD PTR __$EHRec$[ebp]
	mov	DWORD PTR fs:0, ecx
	pop	ecx
	mov	esp, ebp
	pop	ebp
	ret	0
_TEXT	ENDS
;	COMDAT text$x
text$x	SEGMENT
__unwindfunclet$?Copy@UnitFilter@@UAEPAVVuFilter@@XZ$0:
	mov	eax, DWORD PTR $T3[ebp]
	push	eax
	call	??3@YAXPAX@Z				; operator delete
	pop	ecx
	ret	0
__ehhandler$?Copy@UnitFilter@@UAEPAVVuFilter@@XZ:
	mov	edx, DWORD PTR [esp+8]
	lea	eax, DWORD PTR [edx+12]
	mov	ecx, DWORD PTR [edx-20]
	xor	ecx, eax
	call	@__security_check_cookie@4
	mov	eax, OFFSET __ehfuncinfo$?Copy@UnitFilter@@UAEPAVVuFilter@@XZ
	jmp	___CxxFrameHandler3
text$x	ENDS
?Copy@UnitFilter@@UAEPAVVuFilter@@XZ ENDP		; UnitFilter::Copy
; Function compile flags: /Odtp
; File c:\users\zhitao li\documents\visual studio 2012\projects\freefalcon\campaign\include\camplist.h
;	COMDAT ?Compare@UnitFilter@@UAEHPAVVuEntity@@0@Z
_TEXT	SEGMENT
_this$ = -4						; size = 4
_ent1$ = 8						; size = 4
_ent2$ = 12						; size = 4
?Compare@UnitFilter@@UAEHPAVVuEntity@@0@Z PROC		; UnitFilter::Compare, COMDAT
; _this$ = ecx

; 32   : 	virtual int Compare(VuEntity *ent1, VuEntity *ent2)	{ return (SimCompare (ent1, ent2)); }

	push	ebp
	mov	ebp, esp
	push	ecx
	mov	DWORD PTR _this$[ebp], ecx
	mov	eax, DWORD PTR _ent2$[ebp]
	push	eax
	mov	ecx, DWORD PTR _ent1$[ebp]
	push	ecx
	call	?SimCompare@@YAHPAVVuEntity@@0@Z	; SimCompare
	add	esp, 8
	mov	esp, ebp
	pop	ebp
	ret	8
?Compare@UnitFilter@@UAEHPAVVuEntity@@0@Z ENDP		; UnitFilter::Compare
_TEXT	ENDS
; Function compile flags: /Odtp
; File c:\users\zhitao li\documents\visual studio 2012\projects\freefalcon\campaign\include\camplist.h
;	COMDAT ??1UnitFilter@@UAE@XZ
_TEXT	SEGMENT
_this$ = -4						; size = 4
??1UnitFilter@@UAE@XZ PROC				; UnitFilter::~UnitFilter, COMDAT
; _this$ = ecx

; 28   : 	virtual ~UnitFilter(void)			{}

	push	ebp
	mov	ebp, esp
	push	ecx
	mov	DWORD PTR _this$[ebp], ecx
	mov	eax, DWORD PTR _this$[ebp]
	mov	DWORD PTR [eax], OFFSET ??_7UnitFilter@@6B@
	mov	ecx, DWORD PTR _this$[ebp]
	call	??1VuFilter@@UAE@XZ			; VuFilter::~VuFilter
	mov	esp, ebp
	pop	ebp
	ret	0
??1UnitFilter@@UAE@XZ ENDP				; UnitFilter::~UnitFilter
_TEXT	ENDS
; Function compile flags: /Odtp
; File c:\users\zhitao li\documents\visual studio 2012\projects\freefalcon\campaign\include\campbase.h
;	COMDAT ?GetSType@CampBaseClass@@QBEEXZ
_TEXT	SEGMENT
_this$ = -4						; size = 4
?GetSType@CampBaseClass@@QBEEXZ PROC			; CampBaseClass::GetSType, COMDAT
; _this$ = ecx

; 290  : 	uchar GetSType (void)	const						{	return (EntityType())->classInfo_[VU_STYPE]; }

	push	ebp
	mov	ebp, esp
	push	ecx
	mov	DWORD PTR _this$[ebp], ecx
	mov	ecx, DWORD PTR _this$[ebp]
	call	?EntityType@VuEntity@@QBEPAUVuEntityType@@XZ ; VuEntity::EntityType
	mov	ecx, 1
	imul	ecx, 3
	mov	al, BYTE PTR [eax+ecx+8]
	mov	esp, ebp
	pop	ebp
	ret	0
?GetSType@CampBaseClass@@QBEEXZ ENDP			; CampBaseClass::GetSType
_TEXT	ENDS
; Function compile flags: /Odtp
; File c:\users\zhitao li\documents\visual studio 2012\projects\freefalcon\sim\include\otwdrive.h
;	COMDAT ?SetActive@OTWDriverClass@@QAEXH@Z
_TEXT	SEGMENT
_this$ = -4						; size = 4
_active$ = 8						; size = 4
?SetActive@OTWDriverClass@@QAEXH@Z PROC			; OTWDriverClass::SetActive, COMDAT
; _this$ = ecx

; 350  :       void SetActive (int active) { isActive = active; };

	push	ebp
	mov	ebp, esp
	push	ecx
	mov	DWORD PTR _this$[ebp], ecx
	mov	eax, DWORD PTR _this$[ebp]
	mov	ecx, DWORD PTR _active$[ebp]
	mov	DWORD PTR [eax+32152], ecx
	mov	esp, ebp
	pop	ebp
	ret	4
?SetActive@OTWDriverClass@@QAEXH@Z ENDP			; OTWDriverClass::SetActive
_TEXT	ENDS
; Function compile flags: /Odtp
; File c:\users\zhitao li\documents\visual studio 2012\projects\freefalcon\sim\include\otwdrive.h
;	COMDAT ?DisplayInCockpit@OTWDriverClass@@QAEHXZ
_TEXT	SEGMENT
_this$ = -4						; size = 4
?DisplayInCockpit@OTWDriverClass@@QAEHXZ PROC		; OTWDriverClass::DisplayInCockpit, COMDAT
; _this$ = ecx

; 244  : 		inline BOOL DisplayInCockpit( void ){

	push	ebp
	mov	ebp, esp
	push	ecx
	mov	DWORD PTR _this$[ebp], ecx

; 245  : 			if (mOTWDisplayMode >= ModeHud && mOTWDisplayMode <= ModePadlockEFOV )

	mov	eax, DWORD PTR _this$[ebp]
	cmp	DWORD PTR [eax+32328], 1
	jl	SHORT $LN1@DisplayInC
	mov	ecx, DWORD PTR _this$[ebp]
	cmp	DWORD PTR [ecx+32328], 5
	jg	SHORT $LN1@DisplayInC

; 246  : 		  		return TRUE;

	mov	eax, 1
	jmp	SHORT $LN2@DisplayInC
$LN1@DisplayInC:

; 247  : 			return FALSE;

	xor	eax, eax
$LN2@DisplayInC:

; 248  : 		}

	mov	esp, ebp
	pop	ebp
	ret	0
?DisplayInCockpit@OTWDriverClass@@QAEHXZ ENDP		; OTWDriverClass::DisplayInCockpit
_TEXT	ENDS
; Function compile flags: /Odtp
; File c:\users\zhitao li\documents\visual studio 2012\projects\freefalcon\falclib\include\playerop.h
;	COMDAT ?BuildingDeaggLevel@PlayerOptionsClass@@QAEHXZ
_TEXT	SEGMENT
_this$ = -4						; size = 4
?BuildingDeaggLevel@PlayerOptionsClass@@QAEHXZ PROC	; PlayerOptionsClass::BuildingDeaggLevel, COMDAT
; _this$ = ecx

; 136  : 	int BuildingDeaggLevel (void)							{ return BldDeaggLevel; }

	push	ebp
	mov	ebp, esp
	push	ecx
	mov	DWORD PTR _this$[ebp], ecx
	mov	eax, DWORD PTR _this$[ebp]
	mov	eax, DWORD PTR [eax+28]
	mov	esp, ebp
	pop	ebp
	ret	0
?BuildingDeaggLevel@PlayerOptionsClass@@QAEHXZ ENDP	; PlayerOptionsClass::BuildingDeaggLevel
_TEXT	ENDS
; Function compile flags: /Odtp
; File c:\users\zhitao li\documents\visual studio 2012\projects\freefalcon\falclib\include\playerop.h
;	COMDAT ?ObjectDeaggLevel@PlayerOptionsClass@@QAEHXZ
_TEXT	SEGMENT
_this$ = -4						; size = 4
?ObjectDeaggLevel@PlayerOptionsClass@@QAEHXZ PROC	; PlayerOptionsClass::ObjectDeaggLevel, COMDAT
; _this$ = ecx

; 135  : 	int ObjectDeaggLevel (void)								{ return ObjDeaggLevel; }

	push	ebp
	mov	ebp, esp
	push	ecx
	mov	DWORD PTR _this$[ebp], ecx
	mov	eax, DWORD PTR _this$[ebp]
	mov	eax, DWORD PTR [eax+24]
	mov	esp, ebp
	pop	ebp
	ret	0
?ObjectDeaggLevel@PlayerOptionsClass@@QAEHXZ ENDP	; PlayerOptionsClass::ObjectDeaggLevel
_TEXT	ENDS
; Function compile flags: /Odtp
; File c:\users\zhitao li\documents\visual studio 2012\projects\freefalcon\campaign\include\team.h
;	COMDAT ?GetColor@TeamClass@@QAEHXZ
_TEXT	SEGMENT
_this$ = -4						; size = 4
?GetColor@TeamClass@@QAEHXZ PROC			; TeamClass::GetColor, COMDAT
; _this$ = ecx

; 329  : 	int GetColor (void)							{ return (int) teamColor; }

	push	ebp
	mov	ebp, esp
	push	ecx
	mov	DWORD PTR _this$[ebp], ecx
	mov	eax, DWORD PTR _this$[ebp]
	movzx	eax, BYTE PTR [eax+889]
	mov	esp, ebp
	pop	ebp
	ret	0
?GetColor@TeamClass@@QAEHXZ ENDP			; TeamClass::GetColor
_TEXT	ENDS
; Function compile flags: /Odtp
;	COMDAT ??_G_System_error_category@std@@UAEPAXI@Z
_TEXT	SEGMENT
_this$ = -4						; size = 4
___flags$ = 8						; size = 4
??_G_System_error_category@std@@UAEPAXI@Z PROC		; std::_System_error_category::`scalar deleting destructor', COMDAT
; _this$ = ecx
	push	ebp
	mov	ebp, esp
	push	ecx
	mov	DWORD PTR _this$[ebp], ecx
	mov	ecx, DWORD PTR _this$[ebp]
	call	??1_System_error_category@std@@UAE@XZ
	mov	eax, DWORD PTR ___flags$[ebp]
	and	eax, 1
	je	SHORT $LN1@scalar
	mov	ecx, DWORD PTR _this$[ebp]
	push	ecx
	call	??3@YAXPAX@Z				; operator delete
	add	esp, 4
$LN1@scalar:
	mov	eax, DWORD PTR _this$[ebp]
	mov	esp, ebp
	pop	ebp
	ret	4
??_G_System_error_category@std@@UAEPAXI@Z ENDP		; std::_System_error_category::`scalar deleting destructor'
_TEXT	ENDS
; Function compile flags: /Odtp
;	COMDAT ??1_System_error_category@std@@UAE@XZ
_TEXT	SEGMENT
_this$ = -4						; size = 4
??1_System_error_category@std@@UAE@XZ PROC		; std::_System_error_category::~_System_error_category, COMDAT
; _this$ = ecx
	push	ebp
	mov	ebp, esp
	push	ecx
	mov	DWORD PTR _this$[ebp], ecx
	mov	ecx, DWORD PTR _this$[ebp]
	call	??1_Generic_error_category@std@@UAE@XZ
	mov	esp, ebp
	pop	ebp
	ret	0
??1_System_error_category@std@@UAE@XZ ENDP		; std::_System_error_category::~_System_error_category
_TEXT	ENDS
; Function compile flags: /Odtp
; File c:\program files (x86)\microsoft visual studio 11.0\vc\include\system_error
;	COMDAT ?default_error_condition@_System_error_category@std@@UBE?AVerror_condition@2@H@Z
_TEXT	SEGMENT
_this$ = -4						; size = 4
___$ReturnUdt$ = 8					; size = 4
__Errval$ = 12						; size = 4
?default_error_condition@_System_error_category@std@@UBE?AVerror_condition@2@H@Z PROC ; std::_System_error_category::default_error_condition, COMDAT
; _this$ = ecx

; 641  : 		{	// make error_condition for error code (generic if possible)

	push	ebp
	mov	ebp, esp
	push	ecx
	mov	DWORD PTR _this$[ebp], ecx

; 642  : 		if (_Syserror_map(_Errval))

	mov	eax, DWORD PTR __Errval$[ebp]
	push	eax
	call	?_Syserror_map@std@@YAPBDH@Z		; std::_Syserror_map
	add	esp, 4
	test	eax, eax
	je	SHORT $LN2@default_er

; 643  : 			return (error_condition(_Errval, generic_category()));

	call	?generic_category@std@@YAABVerror_category@1@XZ ; std::generic_category
	push	eax
	mov	ecx, DWORD PTR __Errval$[ebp]
	push	ecx
	mov	ecx, DWORD PTR ___$ReturnUdt$[ebp]
	call	??0error_condition@std@@QAE@HABVerror_category@1@@Z ; std::error_condition::error_condition
	mov	eax, DWORD PTR ___$ReturnUdt$[ebp]
	jmp	SHORT $LN3@default_er

; 644  : 		else

	jmp	SHORT $LN3@default_er
$LN2@default_er:

; 645  : 			return (error_condition(_Errval, system_category()));

	call	?system_category@std@@YAABVerror_category@1@XZ ; std::system_category
	push	eax
	mov	edx, DWORD PTR __Errval$[ebp]
	push	edx
	mov	ecx, DWORD PTR ___$ReturnUdt$[ebp]
	call	??0error_condition@std@@QAE@HABVerror_category@1@@Z ; std::error_condition::error_condition
	mov	eax, DWORD PTR ___$ReturnUdt$[ebp]
$LN3@default_er:

; 646  : 		}

	mov	esp, ebp
	pop	ebp
	ret	8
?default_error_condition@_System_error_category@std@@UBE?AVerror_condition@2@H@Z ENDP ; std::_System_error_category::default_error_condition
_TEXT	ENDS
; Function compile flags: /Odtp
; File c:\program files (x86)\microsoft visual studio 11.0\vc\include\system_error
;	COMDAT ?message@_System_error_category@std@@UBE?AV?$basic_string@DU?$char_traits@D@std@@V?$allocator@D@2@@2@H@Z
_TEXT	SEGMENT
_this$ = -16						; size = 4
$T1 = -12						; size = 4
tv69 = -8						; size = 4
__Name$ = -4						; size = 4
___$ReturnUdt$ = 8					; size = 4
__Errcode$ = 12						; size = 4
?message@_System_error_category@std@@UBE?AV?$basic_string@DU?$char_traits@D@std@@V?$allocator@D@2@@2@H@Z PROC ; std::_System_error_category::message, COMDAT
; _this$ = ecx

; 634  : 		{	// convert to name of error

	push	ebp
	mov	ebp, esp
	sub	esp, 16					; 00000010H
	mov	DWORD PTR _this$[ebp], ecx
	mov	DWORD PTR $T1[ebp], 0

; 635  : 		const char *_Name = _Winerror_map(_Errcode);

	mov	eax, DWORD PTR __Errcode$[ebp]
	push	eax
	call	?_Winerror_map@std@@YAPBDH@Z		; std::_Winerror_map
	add	esp, 4
	mov	DWORD PTR __Name$[ebp], eax

; 636  : 		return (string(_Name != 0 ? _Name : "unknown error"));

	cmp	DWORD PTR __Name$[ebp], 0
	je	SHORT $LN3@message
	mov	ecx, DWORD PTR __Name$[ebp]
	mov	DWORD PTR tv69[ebp], ecx
	jmp	SHORT $LN4@message
$LN3@message:
	mov	DWORD PTR tv69[ebp], OFFSET ??_C@_0O@BFJCFAAK@unknown?5error?$AA@
$LN4@message:
	mov	edx, DWORD PTR tv69[ebp]
	push	edx
	mov	ecx, DWORD PTR ___$ReturnUdt$[ebp]
	call	??0?$basic_string@DU?$char_traits@D@std@@V?$allocator@D@2@@std@@QAE@PBD@Z ; std::basic_string<char,std::char_traits<char>,std::allocator<char> >::basic_string<char,std::char_traits<char>,std::allocator<char> >
	mov	eax, DWORD PTR $T1[ebp]
	or	eax, 1
	mov	DWORD PTR $T1[ebp], eax
	mov	eax, DWORD PTR ___$ReturnUdt$[ebp]

; 637  : 		}

	mov	esp, ebp
	pop	ebp
	ret	8
?message@_System_error_category@std@@UBE?AV?$basic_string@DU?$char_traits@D@std@@V?$allocator@D@2@@2@H@Z ENDP ; std::_System_error_category::message
_TEXT	ENDS
; Function compile flags: /Odtp
; File c:\program files (x86)\microsoft visual studio 11.0\vc\include\system_error
;	COMDAT ?name@_System_error_category@std@@UBEPBDXZ
_TEXT	SEGMENT
_this$ = -4						; size = 4
?name@_System_error_category@std@@UBEPBDXZ PROC		; std::_System_error_category::name, COMDAT
; _this$ = ecx

; 629  : 		{	// get name of category

	push	ebp
	mov	ebp, esp
	push	ecx
	mov	DWORD PTR _this$[ebp], ecx

; 630  : 		return ("system");

	mov	eax, OFFSET ??_C@_06FHFOAHML@system?$AA@

; 631  : 		}

	mov	esp, ebp
	pop	ebp
	ret	0
?name@_System_error_category@std@@UBEPBDXZ ENDP		; std::_System_error_category::name
_TEXT	ENDS
; Function compile flags: /Odtp
; File c:\program files (x86)\microsoft visual studio 11.0\vc\include\system_error
;	COMDAT ??0_System_error_category@std@@QAE@XZ
_TEXT	SEGMENT
_this$ = -4						; size = 4
??0_System_error_category@std@@QAE@XZ PROC		; std::_System_error_category::_System_error_category, COMDAT
; _this$ = ecx

; 624  : 	_System_error_category()

	push	ebp
	mov	ebp, esp
	push	ecx
	mov	DWORD PTR _this$[ebp], ecx
	mov	ecx, DWORD PTR _this$[ebp]
	call	??0_Generic_error_category@std@@QAE@XZ	; std::_Generic_error_category::_Generic_error_category
	mov	eax, DWORD PTR _this$[ebp]
	mov	DWORD PTR [eax], OFFSET ??_7_System_error_category@std@@6B@

; 625  : 		{	// default constructor
; 626  : 		}

	mov	eax, DWORD PTR _this$[ebp]
	mov	esp, ebp
	pop	ebp
	ret	0
??0_System_error_category@std@@QAE@XZ ENDP		; std::_System_error_category::_System_error_category
_TEXT	ENDS
; Function compile flags: /Odtp
;	COMDAT ??_G_Iostream_error_category@std@@UAEPAXI@Z
_TEXT	SEGMENT
_this$ = -4						; size = 4
___flags$ = 8						; size = 4
??_G_Iostream_error_category@std@@UAEPAXI@Z PROC	; std::_Iostream_error_category::`scalar deleting destructor', COMDAT
; _this$ = ecx
	push	ebp
	mov	ebp, esp
	push	ecx
	mov	DWORD PTR _this$[ebp], ecx
	mov	ecx, DWORD PTR _this$[ebp]
	call	??1_Iostream_error_category@std@@UAE@XZ
	mov	eax, DWORD PTR ___flags$[ebp]
	and	eax, 1
	je	SHORT $LN1@scalar
	mov	ecx, DWORD PTR _this$[ebp]
	push	ecx
	call	??3@YAXPAX@Z				; operator delete
	add	esp, 4
$LN1@scalar:
	mov	eax, DWORD PTR _this$[ebp]
	mov	esp, ebp
	pop	ebp
	ret	4
??_G_Iostream_error_category@std@@UAEPAXI@Z ENDP	; std::_Iostream_error_category::`scalar deleting destructor'
_TEXT	ENDS
; Function compile flags: /Odtp
;	COMDAT ??1_Iostream_error_category@std@@UAE@XZ
_TEXT	SEGMENT
_this$ = -4						; size = 4
??1_Iostream_error_category@std@@UAE@XZ PROC		; std::_Iostream_error_category::~_Iostream_error_category, COMDAT
; _this$ = ecx
	push	ebp
	mov	ebp, esp
	push	ecx
	mov	DWORD PTR _this$[ebp], ecx
	mov	ecx, DWORD PTR _this$[ebp]
	call	??1_Generic_error_category@std@@UAE@XZ
	mov	esp, ebp
	pop	ebp
	ret	0
??1_Iostream_error_category@std@@UAE@XZ ENDP		; std::_Iostream_error_category::~_Iostream_error_category
_TEXT	ENDS
; Function compile flags: /Odtp
; File c:\program files (x86)\microsoft visual studio 11.0\vc\include\system_error
;	COMDAT ?message@_Iostream_error_category@std@@UBE?AV?$basic_string@DU?$char_traits@D@std@@V?$allocator@D@2@@2@H@Z
_TEXT	SEGMENT
_this$ = -8						; size = 4
$T1 = -4						; size = 4
___$ReturnUdt$ = 8					; size = 4
__Errcode$ = 12						; size = 4
?message@_Iostream_error_category@std@@UBE?AV?$basic_string@DU?$char_traits@D@std@@V?$allocator@D@2@@2@H@Z PROC ; std::_Iostream_error_category::message, COMDAT
; _this$ = ecx

; 611  : 		{	// convert to name of error

	push	ebp
	mov	ebp, esp
	sub	esp, 8
	mov	DWORD PTR _this$[ebp], ecx
	mov	DWORD PTR $T1[ebp], 0

; 612  : 		if (_Errcode == (int)io_errc::stream)

	cmp	DWORD PTR __Errcode$[ebp], 1
	jne	SHORT $LN2@message

; 613  : 			return ("iostream stream error");

	push	OFFSET ??_C@_0BG@PADBLCHM@iostream?5stream?5error?$AA@
	mov	ecx, DWORD PTR ___$ReturnUdt$[ebp]
	call	??0?$basic_string@DU?$char_traits@D@std@@V?$allocator@D@2@@std@@QAE@PBD@Z ; std::basic_string<char,std::char_traits<char>,std::allocator<char> >::basic_string<char,std::char_traits<char>,std::allocator<char> >
	mov	eax, DWORD PTR $T1[ebp]
	or	eax, 1
	mov	DWORD PTR $T1[ebp], eax
	mov	eax, DWORD PTR ___$ReturnUdt$[ebp]
	jmp	SHORT $LN3@message

; 614  : 		else

	jmp	SHORT $LN3@message
$LN2@message:

; 615  : 			return (_Generic_error_category::message(_Errcode));

	mov	ecx, DWORD PTR __Errcode$[ebp]
	push	ecx
	mov	edx, DWORD PTR ___$ReturnUdt$[ebp]
	push	edx
	mov	ecx, DWORD PTR _this$[ebp]
	call	?message@_Generic_error_category@std@@UBE?AV?$basic_string@DU?$char_traits@D@std@@V?$allocator@D@2@@2@H@Z ; std::_Generic_error_category::message
	mov	eax, DWORD PTR $T1[ebp]
	or	eax, 1
	mov	DWORD PTR $T1[ebp], eax
	mov	eax, DWORD PTR ___$ReturnUdt$[ebp]
$LN3@message:

; 616  : 		}

	mov	esp, ebp
	pop	ebp
	ret	8
?message@_Iostream_error_category@std@@UBE?AV?$basic_string@DU?$char_traits@D@std@@V?$allocator@D@2@@2@H@Z ENDP ; std::_Iostream_error_category::message
_TEXT	ENDS
; Function compile flags: /Odtp
; File c:\program files (x86)\microsoft visual studio 11.0\vc\include\system_error
;	COMDAT ?name@_Iostream_error_category@std@@UBEPBDXZ
_TEXT	SEGMENT
_this$ = -4						; size = 4
?name@_Iostream_error_category@std@@UBEPBDXZ PROC	; std::_Iostream_error_category::name, COMDAT
; _this$ = ecx

; 606  : 		{	// get name of category

	push	ebp
	mov	ebp, esp
	push	ecx
	mov	DWORD PTR _this$[ebp], ecx

; 607  : 		return ("iostream");

	mov	eax, OFFSET ??_C@_08LLGCOLLL@iostream?$AA@

; 608  : 		}

	mov	esp, ebp
	pop	ebp
	ret	0
?name@_Iostream_error_category@std@@UBEPBDXZ ENDP	; std::_Iostream_error_category::name
_TEXT	ENDS
; Function compile flags: /Odtp
; File c:\program files (x86)\microsoft visual studio 11.0\vc\include\system_error
;	COMDAT ??0_Iostream_error_category@std@@QAE@XZ
_TEXT	SEGMENT
_this$ = -4						; size = 4
??0_Iostream_error_category@std@@QAE@XZ PROC		; std::_Iostream_error_category::_Iostream_error_category, COMDAT
; _this$ = ecx

; 601  : 	_Iostream_error_category()

	push	ebp
	mov	ebp, esp
	push	ecx
	mov	DWORD PTR _this$[ebp], ecx
	mov	ecx, DWORD PTR _this$[ebp]
	call	??0_Generic_error_category@std@@QAE@XZ	; std::_Generic_error_category::_Generic_error_category
	mov	eax, DWORD PTR _this$[ebp]
	mov	DWORD PTR [eax], OFFSET ??_7_Iostream_error_category@std@@6B@

; 602  : 		{	// default constructor
; 603  : 		}

	mov	eax, DWORD PTR _this$[ebp]
	mov	esp, ebp
	pop	ebp
	ret	0
??0_Iostream_error_category@std@@QAE@XZ ENDP		; std::_Iostream_error_category::_Iostream_error_category
_TEXT	ENDS
; Function compile flags: /Odtp
;	COMDAT ??_G_Generic_error_category@std@@UAEPAXI@Z
_TEXT	SEGMENT
_this$ = -4						; size = 4
___flags$ = 8						; size = 4
??_G_Generic_error_category@std@@UAEPAXI@Z PROC		; std::_Generic_error_category::`scalar deleting destructor', COMDAT
; _this$ = ecx
	push	ebp
	mov	ebp, esp
	push	ecx
	mov	DWORD PTR _this$[ebp], ecx
	mov	ecx, DWORD PTR _this$[ebp]
	call	??1_Generic_error_category@std@@UAE@XZ
	mov	eax, DWORD PTR ___flags$[ebp]
	and	eax, 1
	je	SHORT $LN1@scalar
	mov	ecx, DWORD PTR _this$[ebp]
	push	ecx
	call	??3@YAXPAX@Z				; operator delete
	add	esp, 4
$LN1@scalar:
	mov	eax, DWORD PTR _this$[ebp]
	mov	esp, ebp
	pop	ebp
	ret	4
??_G_Generic_error_category@std@@UAEPAXI@Z ENDP		; std::_Generic_error_category::`scalar deleting destructor'
_TEXT	ENDS
; Function compile flags: /Odtp
;	COMDAT ??1_Generic_error_category@std@@UAE@XZ
_TEXT	SEGMENT
_this$ = -4						; size = 4
??1_Generic_error_category@std@@UAE@XZ PROC		; std::_Generic_error_category::~_Generic_error_category, COMDAT
; _this$ = ecx
	push	ebp
	mov	ebp, esp
	push	ecx
	mov	DWORD PTR _this$[ebp], ecx
	mov	ecx, DWORD PTR _this$[ebp]
	call	??1error_category@std@@UAE@XZ		; std::error_category::~error_category
	mov	esp, ebp
	pop	ebp
	ret	0
??1_Generic_error_category@std@@UAE@XZ ENDP		; std::_Generic_error_category::~_Generic_error_category
_TEXT	ENDS
; Function compile flags: /Odtp
; File c:\program files (x86)\microsoft visual studio 11.0\vc\include\system_error
;	COMDAT ?message@_Generic_error_category@std@@UBE?AV?$basic_string@DU?$char_traits@D@std@@V?$allocator@D@2@@2@H@Z
_TEXT	SEGMENT
_this$ = -16						; size = 4
$T1 = -12						; size = 4
tv69 = -8						; size = 4
__Name$ = -4						; size = 4
___$ReturnUdt$ = 8					; size = 4
__Errcode$ = 12						; size = 4
?message@_Generic_error_category@std@@UBE?AV?$basic_string@DU?$char_traits@D@std@@V?$allocator@D@2@@2@H@Z PROC ; std::_Generic_error_category::message, COMDAT
; _this$ = ecx

; 590  : 		{	// convert to name of error

	push	ebp
	mov	ebp, esp
	sub	esp, 16					; 00000010H
	mov	DWORD PTR _this$[ebp], ecx
	mov	DWORD PTR $T1[ebp], 0

; 591  : 		const char *_Name = _Syserror_map(_Errcode);

	mov	eax, DWORD PTR __Errcode$[ebp]
	push	eax
	call	?_Syserror_map@std@@YAPBDH@Z		; std::_Syserror_map
	add	esp, 4
	mov	DWORD PTR __Name$[ebp], eax

; 592  : 		return (string(_Name != 0 ? _Name : "unknown error"));

	cmp	DWORD PTR __Name$[ebp], 0
	je	SHORT $LN3@message
	mov	ecx, DWORD PTR __Name$[ebp]
	mov	DWORD PTR tv69[ebp], ecx
	jmp	SHORT $LN4@message
$LN3@message:
	mov	DWORD PTR tv69[ebp], OFFSET ??_C@_0O@BFJCFAAK@unknown?5error?$AA@
$LN4@message:
	mov	edx, DWORD PTR tv69[ebp]
	push	edx
	mov	ecx, DWORD PTR ___$ReturnUdt$[ebp]
	call	??0?$basic_string@DU?$char_traits@D@std@@V?$allocator@D@2@@std@@QAE@PBD@Z ; std::basic_string<char,std::char_traits<char>,std::allocator<char> >::basic_string<char,std::char_traits<char>,std::allocator<char> >
	mov	eax, DWORD PTR $T1[ebp]
	or	eax, 1
	mov	DWORD PTR $T1[ebp], eax
	mov	eax, DWORD PTR ___$ReturnUdt$[ebp]

; 593  : 		}

	mov	esp, ebp
	pop	ebp
	ret	8
?message@_Generic_error_category@std@@UBE?AV?$basic_string@DU?$char_traits@D@std@@V?$allocator@D@2@@2@H@Z ENDP ; std::_Generic_error_category::message
_TEXT	ENDS
; Function compile flags: /Odtp
; File c:\program files (x86)\microsoft visual studio 11.0\vc\include\system_error
;	COMDAT ?name@_Generic_error_category@std@@UBEPBDXZ
_TEXT	SEGMENT
_this$ = -4						; size = 4
?name@_Generic_error_category@std@@UBEPBDXZ PROC	; std::_Generic_error_category::name, COMDAT
; _this$ = ecx

; 585  : 		{	// get name of category

	push	ebp
	mov	ebp, esp
	push	ecx
	mov	DWORD PTR _this$[ebp], ecx

; 586  : 		return ("generic");

	mov	eax, OFFSET ??_C@_07DCLBNMLN@generic?$AA@

; 587  : 		}

	mov	esp, ebp
	pop	ebp
	ret	0
?name@_Generic_error_category@std@@UBEPBDXZ ENDP	; std::_Generic_error_category::name
_TEXT	ENDS
; Function compile flags: /Odtp
; File c:\program files (x86)\microsoft visual studio 11.0\vc\include\system_error
;	COMDAT ??0_Generic_error_category@std@@QAE@XZ
_TEXT	SEGMENT
_this$ = -4						; size = 4
??0_Generic_error_category@std@@QAE@XZ PROC		; std::_Generic_error_category::_Generic_error_category, COMDAT
; _this$ = ecx

; 580  : 	_Generic_error_category()

	push	ebp
	mov	ebp, esp
	push	ecx
	mov	DWORD PTR _this$[ebp], ecx
	mov	ecx, DWORD PTR _this$[ebp]
	call	??0error_category@std@@QAE@XZ		; std::error_category::error_category
	mov	eax, DWORD PTR _this$[ebp]
	mov	DWORD PTR [eax], OFFSET ??_7_Generic_error_category@std@@6B@

; 581  : 		{	// default constructor
; 582  : 		}

	mov	eax, DWORD PTR _this$[ebp]
	mov	esp, ebp
	pop	ebp
	ret	0
??0_Generic_error_category@std@@QAE@XZ ENDP		; std::_Generic_error_category::_Generic_error_category
_TEXT	ENDS
; Function compile flags: /Odtp
; File c:\program files (x86)\microsoft visual studio 11.0\vc\include\system_error
;	COMDAT ??8error_condition@std@@QBE_NABV01@@Z
_TEXT	SEGMENT
tv78 = -8						; size = 4
_this$ = -4						; size = 4
__Right$ = 8						; size = 4
??8error_condition@std@@QBE_NABV01@@Z PROC		; std::error_condition::operator==, COMDAT
; _this$ = ecx

; 376  : 		{	// test if *this == _Right

	push	ebp
	mov	ebp, esp
	sub	esp, 8
	push	esi
	mov	DWORD PTR _this$[ebp], ecx

; 377  : 		return (category() == _Right.category()
; 378  : 			&& value() == _Right.value());

	mov	ecx, DWORD PTR __Right$[ebp]
	call	?category@error_condition@std@@QBEABVerror_category@2@XZ ; std::error_condition::category
	push	eax
	mov	ecx, DWORD PTR _this$[ebp]
	call	?category@error_condition@std@@QBEABVerror_category@2@XZ ; std::error_condition::category
	mov	ecx, eax
	call	??8error_category@std@@QBE_NABV01@@Z	; std::error_category::operator==
	movzx	eax, al
	test	eax, eax
	je	SHORT $LN3@operator
	mov	ecx, DWORD PTR _this$[ebp]
	call	?value@error_condition@std@@QBEHXZ	; std::error_condition::value
	mov	esi, eax
	mov	ecx, DWORD PTR __Right$[ebp]
	call	?value@error_condition@std@@QBEHXZ	; std::error_condition::value
	cmp	esi, eax
	jne	SHORT $LN3@operator
	mov	DWORD PTR tv78[ebp], 1
	jmp	SHORT $LN4@operator
$LN3@operator:
	mov	DWORD PTR tv78[ebp], 0
$LN4@operator:
	mov	al, BYTE PTR tv78[ebp]

; 379  : 		}

	pop	esi
	mov	esp, ebp
	pop	ebp
	ret	4
??8error_condition@std@@QBE_NABV01@@Z ENDP		; std::error_condition::operator==
_TEXT	ENDS
; Function compile flags: /Odtp
; File c:\program files (x86)\microsoft visual studio 11.0\vc\include\system_error
;	COMDAT ?category@error_condition@std@@QBEABVerror_category@2@XZ
_TEXT	SEGMENT
_this$ = -4						; size = 4
?category@error_condition@std@@QBEABVerror_category@2@XZ PROC ; std::error_condition::category, COMDAT
; _this$ = ecx

; 354  : 		{	// get category

	push	ebp
	mov	ebp, esp
	push	ecx
	mov	DWORD PTR _this$[ebp], ecx

; 355  : 		return (*_Mycat);

	mov	eax, DWORD PTR _this$[ebp]
	mov	eax, DWORD PTR [eax+4]

; 356  : 		}

	mov	esp, ebp
	pop	ebp
	ret	0
?category@error_condition@std@@QBEABVerror_category@2@XZ ENDP ; std::error_condition::category
_TEXT	ENDS
; Function compile flags: /Odtp
; File c:\program files (x86)\microsoft visual studio 11.0\vc\include\system_error
;	COMDAT ?value@error_condition@std@@QBEHXZ
_TEXT	SEGMENT
_this$ = -4						; size = 4
?value@error_condition@std@@QBEHXZ PROC			; std::error_condition::value, COMDAT
; _this$ = ecx

; 349  : 		{	// get error code

	push	ebp
	mov	ebp, esp
	push	ecx
	mov	DWORD PTR _this$[ebp], ecx

; 350  : 		return (_Myval);

	mov	eax, DWORD PTR _this$[ebp]
	mov	eax, DWORD PTR [eax]

; 351  : 		}

	mov	esp, ebp
	pop	ebp
	ret	0
?value@error_condition@std@@QBEHXZ ENDP			; std::error_condition::value
_TEXT	ENDS
; Function compile flags: /Odtp
; File c:\program files (x86)\microsoft visual studio 11.0\vc\include\system_error
;	COMDAT ??0error_condition@std@@QAE@HABVerror_category@1@@Z
_TEXT	SEGMENT
_this$ = -4						; size = 4
__Val$ = 8						; size = 4
__Cat$ = 12						; size = 4
??0error_condition@std@@QAE@HABVerror_category@1@@Z PROC ; std::error_condition::error_condition, COMDAT
; _this$ = ecx

; 316  : 		{	// construct from error code and category

	push	ebp
	mov	ebp, esp
	push	ecx
	mov	DWORD PTR _this$[ebp], ecx
	mov	eax, DWORD PTR _this$[ebp]
	mov	ecx, DWORD PTR __Val$[ebp]
	mov	DWORD PTR [eax], ecx
	mov	edx, DWORD PTR _this$[ebp]
	mov	eax, DWORD PTR __Cat$[ebp]
	mov	DWORD PTR [edx+4], eax

; 317  : 		}

	mov	eax, DWORD PTR _this$[ebp]
	mov	esp, ebp
	pop	ebp
	ret	8
??0error_condition@std@@QAE@HABVerror_category@1@@Z ENDP ; std::error_condition::error_condition
_TEXT	ENDS
; Function compile flags: /Odtp
; File c:\program files (x86)\microsoft visual studio 11.0\vc\include\system_error
;	COMDAT ?category@error_code@std@@QBEABVerror_category@2@XZ
_TEXT	SEGMENT
_this$ = -4						; size = 4
?category@error_code@std@@QBEABVerror_category@2@XZ PROC ; std::error_code::category, COMDAT
; _this$ = ecx

; 256  : 		{	// get category

	push	ebp
	mov	ebp, esp
	push	ecx
	mov	DWORD PTR _this$[ebp], ecx

; 257  : 		return (*_Mycat);

	mov	eax, DWORD PTR _this$[ebp]
	mov	eax, DWORD PTR [eax+4]

; 258  : 		}

	mov	esp, ebp
	pop	ebp
	ret	0
?category@error_code@std@@QBEABVerror_category@2@XZ ENDP ; std::error_code::category
_TEXT	ENDS
; Function compile flags: /Odtp
; File c:\program files (x86)\microsoft visual studio 11.0\vc\include\system_error
;	COMDAT ?value@error_code@std@@QBEHXZ
_TEXT	SEGMENT
_this$ = -4						; size = 4
?value@error_code@std@@QBEHXZ PROC			; std::error_code::value, COMDAT
; _this$ = ecx

; 251  : 		{	// get error code

	push	ebp
	mov	ebp, esp
	push	ecx
	mov	DWORD PTR _this$[ebp], ecx

; 252  : 		return (_Myval);

	mov	eax, DWORD PTR _this$[ebp]
	mov	eax, DWORD PTR [eax]

; 253  : 		}

	mov	esp, ebp
	pop	ebp
	ret	0
?value@error_code@std@@QBEHXZ ENDP			; std::error_code::value
_TEXT	ENDS
; Function compile flags: /Odtp
;	COMDAT ??_Gerror_category@std@@UAEPAXI@Z
_TEXT	SEGMENT
_this$ = -4						; size = 4
___flags$ = 8						; size = 4
??_Gerror_category@std@@UAEPAXI@Z PROC			; std::error_category::`scalar deleting destructor', COMDAT
; _this$ = ecx
	push	ebp
	mov	ebp, esp
	push	ecx
	mov	DWORD PTR _this$[ebp], ecx
	mov	ecx, DWORD PTR _this$[ebp]
	call	??1error_category@std@@UAE@XZ		; std::error_category::~error_category
	mov	eax, DWORD PTR ___flags$[ebp]
	and	eax, 1
	je	SHORT $LN1@scalar
	mov	ecx, DWORD PTR _this$[ebp]
	push	ecx
	call	??3@YAXPAX@Z				; operator delete
	add	esp, 4
$LN1@scalar:
	mov	eax, DWORD PTR _this$[ebp]
	mov	esp, ebp
	pop	ebp
	ret	4
??_Gerror_category@std@@UAEPAXI@Z ENDP			; std::error_category::`scalar deleting destructor'
_TEXT	ENDS
; Function compile flags: /Odtp
; File c:\program files (x86)\microsoft visual studio 11.0\vc\include\system_error
;	COMDAT ??8error_category@std@@QBE_NABV01@@Z
_TEXT	SEGMENT
_this$ = -8						; size = 4
tv65 = -4						; size = 4
__Right$ = 8						; size = 4
??8error_category@std@@QBE_NABV01@@Z PROC		; std::error_category::operator==, COMDAT
; _this$ = ecx

; 184  : 		{	// compare categories for equality

	push	ebp
	mov	ebp, esp
	sub	esp, 8
	mov	DWORD PTR _this$[ebp], ecx

; 185  : 		return (this == &_Right);

	mov	eax, DWORD PTR _this$[ebp]
	cmp	eax, DWORD PTR __Right$[ebp]
	jne	SHORT $LN3@operator
	mov	DWORD PTR tv65[ebp], 1
	jmp	SHORT $LN4@operator
$LN3@operator:
	mov	DWORD PTR tv65[ebp], 0
$LN4@operator:
	mov	al, BYTE PTR tv65[ebp]

; 186  : 		}

	mov	esp, ebp
	pop	ebp
	ret	4
??8error_category@std@@QBE_NABV01@@Z ENDP		; std::error_category::operator==
_TEXT	ENDS
; Function compile flags: /Odtp
; File c:\program files (x86)\microsoft visual studio 11.0\vc\include\system_error
;	COMDAT ?equivalent@error_category@std@@UBE_NABVerror_code@2@H@Z
_TEXT	SEGMENT
_this$ = -8						; size = 4
tv74 = -4						; size = 4
__Code$ = 8						; size = 4
__Errval$ = 12						; size = 4
?equivalent@error_category@std@@UBE_NABVerror_code@2@H@Z PROC ; std::error_category::equivalent, COMDAT
; _this$ = ecx

; 415  : 	{	// test if conditions same for this category

	push	ebp
	mov	ebp, esp
	sub	esp, 8
	mov	DWORD PTR _this$[ebp], ecx

; 416  : 	return (*this == _Code.category() && _Code.value() == _Errval);

	mov	ecx, DWORD PTR __Code$[ebp]
	call	?category@error_code@std@@QBEABVerror_category@2@XZ ; std::error_code::category
	push	eax
	mov	ecx, DWORD PTR _this$[ebp]
	call	??8error_category@std@@QBE_NABV01@@Z	; std::error_category::operator==
	movzx	eax, al
	test	eax, eax
	je	SHORT $LN3@equivalent
	mov	ecx, DWORD PTR __Code$[ebp]
	call	?value@error_code@std@@QBEHXZ		; std::error_code::value
	cmp	eax, DWORD PTR __Errval$[ebp]
	jne	SHORT $LN3@equivalent
	mov	DWORD PTR tv74[ebp], 1
	jmp	SHORT $LN4@equivalent
$LN3@equivalent:
	mov	DWORD PTR tv74[ebp], 0
$LN4@equivalent:
	mov	al, BYTE PTR tv74[ebp]

; 417  : 	}

	mov	esp, ebp
	pop	ebp
	ret	8
?equivalent@error_category@std@@UBE_NABVerror_code@2@H@Z ENDP ; std::error_category::equivalent
_TEXT	ENDS
; Function compile flags: /Odtp
; File c:\program files (x86)\microsoft visual studio 11.0\vc\include\system_error
;	COMDAT ?equivalent@error_category@std@@UBE_NHABVerror_condition@2@@Z
_TEXT	SEGMENT
$T1 = -12						; size = 8
_this$ = -4						; size = 4
__Errval$ = 8						; size = 4
__Cond$ = 12						; size = 4
?equivalent@error_category@std@@UBE_NHABVerror_condition@2@@Z PROC ; std::error_category::equivalent, COMDAT
; _this$ = ecx

; 408  : 	{	// test if error code same condition

	push	ebp
	mov	ebp, esp
	sub	esp, 12					; 0000000cH
	mov	DWORD PTR _this$[ebp], ecx

; 409  : 	return (default_error_condition(_Errval) == _Cond);

	mov	eax, DWORD PTR __Cond$[ebp]
	push	eax
	mov	ecx, DWORD PTR __Errval$[ebp]
	push	ecx
	lea	edx, DWORD PTR $T1[ebp]
	push	edx
	mov	eax, DWORD PTR _this$[ebp]
	mov	edx, DWORD PTR [eax]
	mov	ecx, DWORD PTR _this$[ebp]
	mov	eax, DWORD PTR [edx+12]
	call	eax
	mov	ecx, eax
	call	??8error_condition@std@@QBE_NABV01@@Z	; std::error_condition::operator==

; 410  : 	}

	mov	esp, ebp
	pop	ebp
	ret	8
?equivalent@error_category@std@@UBE_NHABVerror_condition@2@@Z ENDP ; std::error_category::equivalent
_TEXT	ENDS
; Function compile flags: /Odtp
; File c:\program files (x86)\microsoft visual studio 11.0\vc\include\system_error
;	COMDAT ?default_error_condition@error_category@std@@UBE?AVerror_condition@2@H@Z
_TEXT	SEGMENT
_this$ = -4						; size = 4
___$ReturnUdt$ = 8					; size = 4
__Errval$ = 12						; size = 4
?default_error_condition@error_category@std@@UBE?AVerror_condition@2@H@Z PROC ; std::error_category::default_error_condition, COMDAT
; _this$ = ecx

; 401  : 	{	// make error_condition for error code

	push	ebp
	mov	ebp, esp
	push	ecx
	mov	DWORD PTR _this$[ebp], ecx

; 402  : 	return (error_condition(_Errval, *this));

	mov	eax, DWORD PTR _this$[ebp]
	push	eax
	mov	ecx, DWORD PTR __Errval$[ebp]
	push	ecx
	mov	ecx, DWORD PTR ___$ReturnUdt$[ebp]
	call	??0error_condition@std@@QAE@HABVerror_category@1@@Z ; std::error_condition::error_condition
	mov	eax, DWORD PTR ___$ReturnUdt$[ebp]

; 403  : 	}

	mov	esp, ebp
	pop	ebp
	ret	8
?default_error_condition@error_category@std@@UBE?AVerror_condition@2@H@Z ENDP ; std::error_category::default_error_condition
_TEXT	ENDS
; Function compile flags: /Odtp
; File c:\program files (x86)\microsoft visual studio 11.0\vc\include\system_error
;	COMDAT ??1error_category@std@@UAE@XZ
_TEXT	SEGMENT
_this$ = -4						; size = 4
??1error_category@std@@UAE@XZ PROC			; std::error_category::~error_category, COMDAT
; _this$ = ecx

; 167  : 		{	// destroy the object

	push	ebp
	mov	ebp, esp
	push	ecx
	mov	DWORD PTR _this$[ebp], ecx
	mov	eax, DWORD PTR _this$[ebp]
	mov	DWORD PTR [eax], OFFSET ??_7error_category@std@@6B@

; 168  : 		}

	mov	esp, ebp
	pop	ebp
	ret	0
??1error_category@std@@UAE@XZ ENDP			; std::error_category::~error_category
_TEXT	ENDS
; Function compile flags: /Odtp
; File c:\program files (x86)\microsoft visual studio 11.0\vc\include\system_error
;	COMDAT ??0error_category@std@@QAE@XZ
_TEXT	SEGMENT
_this$ = -4						; size = 4
??0error_category@std@@QAE@XZ PROC			; std::error_category::error_category, COMDAT
; _this$ = ecx

; 162  : 	error_category()

	push	ebp
	mov	ebp, esp
	push	ecx
	mov	DWORD PTR _this$[ebp], ecx
	mov	eax, DWORD PTR _this$[ebp]
	mov	DWORD PTR [eax], OFFSET ??_7error_category@std@@6B@

; 163  : 		{	// default constructor
; 164  : 		}

	mov	eax, DWORD PTR _this$[ebp]
	mov	esp, ebp
	pop	ebp
	ret	0
??0error_category@std@@QAE@XZ ENDP			; std::error_category::error_category
_TEXT	ENDS
; Function compile flags: /Odtp
; File c:\program files (x86)\microsoft visual studio 11.0\vc\include\system_error
;	COMDAT ?system_category@std@@YAABVerror_category@1@XZ
_TEXT	SEGMENT
?system_category@std@@YAABVerror_category@1@XZ PROC	; std::system_category, COMDAT

; 679  : 	{	// get system_category

	push	ebp
	mov	ebp, esp

; 680  : 	return (_Error_objects<int>::_System_object);

	mov	eax, OFFSET ?_System_object@?$_Error_objects@H@std@@2V_System_error_category@2@A ; std::_Error_objects<int>::_System_object

; 681  : 	}

	pop	ebp
	ret	0
?system_category@std@@YAABVerror_category@1@XZ ENDP	; std::system_category
_TEXT	ENDS
; Function compile flags: /Odtp
; File c:\program files (x86)\microsoft visual studio 11.0\vc\include\system_error
;	COMDAT ?generic_category@std@@YAABVerror_category@1@XZ
_TEXT	SEGMENT
?generic_category@std@@YAABVerror_category@1@XZ PROC	; std::generic_category, COMDAT

; 669  : 	{	// get generic_category

	push	ebp
	mov	ebp, esp

; 670  : 	return (_Error_objects<int>::_Generic_object);

	mov	eax, OFFSET ?_Generic_object@?$_Error_objects@H@std@@2V_Generic_error_category@2@A ; std::_Error_objects<int>::_Generic_object

; 671  : 	}

	pop	ebp
	ret	0
?generic_category@std@@YAABVerror_category@1@XZ ENDP	; std::generic_category
_TEXT	ENDS
; Function compile flags: /Odtp
; File c:\program files (x86)\microsoft visual studio 11.0\vc\include\xlocale
;	COMDAT ??0id@locale@std@@QAE@I@Z
_TEXT	SEGMENT
_this$ = -4						; size = 4
__Val$ = 8						; size = 4
??0id@locale@std@@QAE@I@Z PROC				; std::locale::id::id, COMDAT
; _this$ = ecx

; 74   : 			{	// construct with specified stamp value

	push	ebp
	mov	ebp, esp
	push	ecx
	mov	DWORD PTR _this$[ebp], ecx
	mov	eax, DWORD PTR _this$[ebp]
	mov	ecx, DWORD PTR __Val$[ebp]
	mov	DWORD PTR [eax], ecx

; 75   : 			}

	mov	eax, DWORD PTR _this$[ebp]
	mov	esp, ebp
	pop	ebp
	ret	4
??0id@locale@std@@QAE@I@Z ENDP				; std::locale::id::id
_TEXT	ENDS
; Function compile flags: /Odtp
; File c:\users\zhitao li\documents\visual studio 2012\projects\freefalcon\falclib\include\mltrig.h
;	COMDAT ?checked_atan2@@YANNN@Z
_TEXT	SEGMENT
_z$ = -8						; size = 8
_y$ = 8							; size = 8
_x$ = 16						; size = 8
?checked_atan2@@YANNN@Z PROC				; checked_atan2, COMDAT

; 46   : {

	push	ebp
	mov	ebp, esp
	sub	esp, 8

; 47   : 	double z;
; 48   : 	
; 49   : 	if (x == -0.0)

	movsd	xmm0, QWORD PTR _x$[ebp]
	ucomisd	xmm0, QWORD PTR __real@8000000000000000
	lahf
	test	ah, 68					; 00000044H
	jp	SHORT $LN8@checked_at

; 50   : 		x = 0.0;

	movsd	xmm0, QWORD PTR __real@0000000000000000
	movsd	QWORD PTR _x$[ebp], xmm0
$LN8@checked_at:

; 51   : 	
; 52   : 	if (x != 0)

	movsd	xmm0, QWORD PTR _x$[ebp]
	ucomisd	xmm0, QWORD PTR __real@0000000000000000
	lahf
	test	ah, 68					; 00000044H
	jnp	SHORT $LN7@checked_at

; 53   : 		z = atan(y / x);

	movsd	xmm0, QWORD PTR _y$[ebp]
	divsd	xmm0, QWORD PTR _x$[ebp]
	sub	esp, 8
	movsd	QWORD PTR [esp], xmm0
	call	_atan
	add	esp, 8
	fstp	QWORD PTR _z$[ebp]
	jmp	SHORT $LN4@checked_at
$LN7@checked_at:

; 54   : 	else if (y > 0)

	movsd	xmm0, QWORD PTR _y$[ebp]
	comisd	xmm0, QWORD PTR __real@0000000000000000
	jbe	SHORT $LN5@checked_at

; 55   : 		z = HALF_DPI;

	movsd	xmm0, QWORD PTR __real@3ff921fb54442d18
	movsd	QWORD PTR _z$[ebp], xmm0

; 56   : 	else

	jmp	SHORT $LN4@checked_at
$LN5@checked_at:

; 57   : 		z = -HALF_DPI;

	movsd	xmm0, QWORD PTR __real@bff921fb54442d18
	movsd	QWORD PTR _z$[ebp], xmm0
$LN4@checked_at:

; 58   : 
; 59   : 	if (x < 0)

	movsd	xmm0, QWORD PTR __real@0000000000000000
	comisd	xmm0, QWORD PTR _x$[ebp]
	jbe	SHORT $LN1@checked_at

; 60   : 	{
; 61   : 		if (y < 0)

	movsd	xmm0, QWORD PTR __real@0000000000000000
	comisd	xmm0, QWORD PTR _y$[ebp]
	jbe	SHORT $LN2@checked_at

; 62   : 			z -= DPI;

	movsd	xmm0, QWORD PTR _z$[ebp]
	subsd	xmm0, QWORD PTR __real@400921fb54442d18
	movsd	QWORD PTR _z$[ebp], xmm0

; 63   : 		else

	jmp	SHORT $LN1@checked_at
$LN2@checked_at:

; 64   : 			z += DPI;

	movsd	xmm0, QWORD PTR _z$[ebp]
	addsd	xmm0, QWORD PTR __real@400921fb54442d18
	movsd	QWORD PTR _z$[ebp], xmm0
$LN1@checked_at:

; 65   : 	}
; 66   : 
; 67   : 	return z;

	fld	QWORD PTR _z$[ebp]

; 68   : }

	mov	esp, ebp
	pop	ebp
	ret	0
?checked_atan2@@YANNN@Z ENDP				; checked_atan2
_TEXT	ENDS
; Function compile flags: /Odtp
; File c:\users\zhitao li\documents\visual studio 2012\projects\freefalcon\sim\include\simmover.h
;	COMDAT ?GetNumDOFs@SimMoverClass@@QAEHXZ
_TEXT	SEGMENT
_this$ = -4						; size = 4
?GetNumDOFs@SimMoverClass@@QAEHXZ PROC			; SimMoverClass::GetNumDOFs, COMDAT
; _this$ = ecx

; 139  : 	int GetNumDOFs (void ) { return numDofs;};

	push	ebp
	mov	ebp, esp
	push	ecx
	mov	DWORD PTR _this$[ebp], ecx
	mov	eax, DWORD PTR _this$[ebp]
	mov	eax, DWORD PTR [eax+600]
	mov	esp, ebp
	pop	ebp
	ret	0
?GetNumDOFs@SimMoverClass@@QAEHXZ ENDP			; SimMoverClass::GetNumDOFs
_TEXT	ENDS
; Function compile flags: /Odtp
; File c:\users\zhitao li\documents\visual studio 2012\projects\freefalcon\sim\include\simmover.h
;	COMDAT ?GetNumSwitches@SimMoverClass@@QAEHXZ
_TEXT	SEGMENT
_this$ = -4						; size = 4
?GetNumSwitches@SimMoverClass@@QAEHXZ PROC		; SimMoverClass::GetNumSwitches, COMDAT
; _this$ = ecx

; 138  : 	int GetNumSwitches (void ) { return numSwitches;};

	push	ebp
	mov	ebp, esp
	push	ecx
	mov	DWORD PTR _this$[ebp], ecx
	mov	eax, DWORD PTR _this$[ebp]
	mov	eax, DWORD PTR [eax+604]
	mov	esp, ebp
	pop	ebp
	ret	0
?GetNumSwitches@SimMoverClass@@QAEHXZ ENDP		; SimMoverClass::GetNumSwitches
_TEXT	ENDS
; Function compile flags: /Odtp
; File c:\users\zhitao li\documents\visual studio 2012\projects\freefalcon\sim\include\simmover.h
;	COMDAT ?GetSwitch@SimMoverClass@@QAEHH@Z
_TEXT	SEGMENT
tv69 = -8						; size = 4
_this$ = -4						; size = 4
_num$ = 8						; size = 4
?GetSwitch@SimMoverClass@@QAEHH@Z PROC			; SimMoverClass::GetSwitch, COMDAT
; _this$ = ecx

; 135  : 	int GetSwitch (int num) { return num < numSwitches ? switchData[num] : 0; }

	push	ebp
	mov	ebp, esp
	sub	esp, 8
	mov	DWORD PTR _this$[ebp], ecx
	mov	eax, DWORD PTR _this$[ebp]
	mov	ecx, DWORD PTR _num$[ebp]
	cmp	ecx, DWORD PTR [eax+604]
	jge	SHORT $LN3@GetSwitch
	mov	edx, DWORD PTR _this$[ebp]
	mov	eax, DWORD PTR [edx+592]
	mov	ecx, DWORD PTR _num$[ebp]
	mov	edx, DWORD PTR [eax+ecx*4]
	mov	DWORD PTR tv69[ebp], edx
	jmp	SHORT $LN4@GetSwitch
$LN3@GetSwitch:
	mov	DWORD PTR tv69[ebp], 0
$LN4@GetSwitch:
	mov	eax, DWORD PTR tv69[ebp]
	mov	esp, ebp
	pop	ebp
	ret	4
?GetSwitch@SimMoverClass@@QAEHH@Z ENDP			; SimMoverClass::GetSwitch
_TEXT	ENDS
; Function compile flags: /Odtp
; File c:\users\zhitao li\documents\visual studio 2012\projects\freefalcon\sim\include\simmover.h
;	COMDAT ?GetDOFValue@SimMoverClass@@QAEMH@Z
_TEXT	SEGMENT
tv69 = -8						; size = 4
_this$ = -4						; size = 4
_dof$ = 8						; size = 4
?GetDOFValue@SimMoverClass@@QAEMH@Z PROC		; SimMoverClass::GetDOFValue, COMDAT
; _this$ = ecx

; 132  : 	float GetDOFValue (int dof) { ShiAssert(dof < numDofs); return dof < numDofs ? DOFData[dof] : 0;}

	push	ebp
	mov	ebp, esp
	sub	esp, 8
	mov	DWORD PTR _this$[ebp], ecx
	mov	eax, DWORD PTR _this$[ebp]
	mov	ecx, DWORD PTR _dof$[ebp]
	cmp	ecx, DWORD PTR [eax+600]
	jge	SHORT $LN3@GetDOFValu
	mov	edx, DWORD PTR _this$[ebp]
	mov	eax, DWORD PTR [edx+612]
	mov	ecx, DWORD PTR _dof$[ebp]
	movss	xmm0, DWORD PTR [eax+ecx*4]
	movss	DWORD PTR tv69[ebp], xmm0
	jmp	SHORT $LN4@GetDOFValu
$LN3@GetDOFValu:
	movss	xmm0, DWORD PTR __real@00000000
	movss	DWORD PTR tv69[ebp], xmm0
$LN4@GetDOFValu:
	fld	DWORD PTR tv69[ebp]
	mov	esp, ebp
	pop	ebp
	ret	4
?GetDOFValue@SimMoverClass@@QAEMH@Z ENDP		; SimMoverClass::GetDOFValue
_TEXT	ENDS
; Function compile flags: /Odtp
; File c:\users\zhitao li\documents\visual studio 2012\projects\freefalcon\sim\include\simbase.h
;	COMDAT ?GetCampaignObject@SimBaseClass@@QAEPAVCampBaseClass@@XZ
_TEXT	SEGMENT
_this$ = -4						; size = 4
?GetCampaignObject@SimBaseClass@@QAEPAVCampBaseClass@@XZ PROC ; SimBaseClass::GetCampaignObject, COMDAT
; _this$ = ecx

; 212  : 	CampBaseClass *GetCampaignObject (void) { return campaignObject.get(); }

	push	ebp
	mov	ebp, esp
	push	ecx
	mov	DWORD PTR _this$[ebp], ecx
	mov	ecx, DWORD PTR _this$[ebp]
	add	ecx, 144				; 00000090H
	call	?get@?$VuBin@VCampBaseClass@@@@QBEPAVCampBaseClass@@XZ ; VuBin<CampBaseClass>::get
	mov	esp, ebp
	pop	ebp
	ret	0
?GetCampaignObject@SimBaseClass@@QAEPAVCampBaseClass@@XZ ENDP ; SimBaseClass::GetCampaignObject
_TEXT	ENDS
; Function compile flags: /Odtp
; File c:\users\zhitao li\documents\visual studio 2012\projects\freefalcon\sim\include\simbase.h
;	COMDAT ?Status@SimBaseClass@@QBEHXZ
_TEXT	SEGMENT
_this$ = -4						; size = 4
?Status@SimBaseClass@@QBEHXZ PROC			; SimBaseClass::Status, COMDAT
; _this$ = ecx

; 192  : 	int Status() const { return specialData.status; }

	push	ebp
	mov	ebp, esp
	push	ecx
	mov	DWORD PTR _this$[ebp], ecx
	mov	eax, DWORD PTR _this$[ebp]
	mov	eax, DWORD PTR [eax+176]
	mov	esp, ebp
	pop	ebp
	ret	0
?Status@SimBaseClass@@QBEHXZ ENDP			; SimBaseClass::Status
_TEXT	ENDS
; Function compile flags: /Odtp
; File c:\users\zhitao li\documents\visual studio 2012\projects\freefalcon\sim\include\simbase.h
;	COMDAT ?IsSetRemoveFlag@SimBaseClass@@QBEHXZ
_TEXT	SEGMENT
_this$ = -4						; size = 4
?IsSetRemoveFlag@SimBaseClass@@QBEHXZ PROC		; SimBaseClass::IsSetRemoveFlag, COMDAT
; _this$ = ecx

; 185  : 	int IsSetRemoveFlag() const { return localFlags & REMOVE_NEXT_FRAME; }

	push	ebp
	mov	ebp, esp
	push	ecx
	mov	DWORD PTR _this$[ebp], ecx
	mov	eax, DWORD PTR _this$[ebp]
	movzx	eax, BYTE PTR [eax+284]
	and	eax, 2
	mov	esp, ebp
	pop	ebp
	ret	0
?IsSetRemoveFlag@SimBaseClass@@QBEHXZ ENDP		; SimBaseClass::IsSetRemoveFlag
_TEXT	ENDS
; Function compile flags: /Odtp
; File c:\users\zhitao li\documents\visual studio 2012\projects\freefalcon\sim\include\simbase.h
;	COMDAT ?IsSetFlag@SimBaseClass@@QBEHH@Z
_TEXT	SEGMENT
_this$ = -8						; size = 4
tv68 = -4						; size = 4
_flag$ = 8						; size = 4
?IsSetFlag@SimBaseClass@@QBEHH@Z PROC			; SimBaseClass::IsSetFlag, COMDAT
; _this$ = ecx

; 178  : 	int  IsSetFlag(int flag) const { return ((specialData.flags & flag) ? TRUE : FALSE); }

	push	ebp
	mov	ebp, esp
	sub	esp, 8
	mov	DWORD PTR _this$[ebp], ecx
	mov	eax, DWORD PTR _this$[ebp]
	mov	ecx, DWORD PTR [eax+172]
	and	ecx, DWORD PTR _flag$[ebp]
	je	SHORT $LN3@IsSetFlag
	mov	DWORD PTR tv68[ebp], 1
	jmp	SHORT $LN4@IsSetFlag
$LN3@IsSetFlag:
	mov	DWORD PTR tv68[ebp], 0
$LN4@IsSetFlag:
	mov	eax, DWORD PTR tv68[ebp]
	mov	esp, ebp
	pop	ebp
	ret	4
?IsSetFlag@SimBaseClass@@QBEHH@Z ENDP			; SimBaseClass::IsSetFlag
_TEXT	ENDS
; Function compile flags: /Odtp
; File c:\users\zhitao li\documents\visual studio 2012\projects\freefalcon\sim\include\simbase.h
;	COMDAT ?IsAwake@SimBaseClass@@QBEHXZ
_TEXT	SEGMENT
_this$ = -4						; size = 4
?IsAwake@SimBaseClass@@QBEHXZ PROC			; SimBaseClass::IsAwake, COMDAT
; _this$ = ecx

; 177  : 	int IsAwake() const { return localFlags & OBJ_AWAKE; }

	push	ebp
	mov	ebp, esp
	push	ecx
	mov	DWORD PTR _this$[ebp], ecx
	mov	eax, DWORD PTR _this$[ebp]
	movzx	eax, BYTE PTR [eax+284]
	and	eax, 1
	mov	esp, ebp
	pop	ebp
	ret	0
?IsAwake@SimBaseClass@@QBEHXZ ENDP			; SimBaseClass::IsAwake
_TEXT	ENDS
; Function compile flags: /Odtp
; File c:\users\zhitao li\documents\visual studio 2012\projects\freefalcon\sim\include\simbase.h
;	COMDAT ?IsDying@SimBaseClass@@QBEHXZ
_TEXT	SEGMENT
_this$ = -8						; size = 4
tv68 = -4						; size = 4
?IsDying@SimBaseClass@@QBEHXZ PROC			; SimBaseClass::IsDying, COMDAT
; _this$ = ecx

; 175  : 	int IsDying() const { return (specialData.flags & OBJ_DYING ? TRUE : FALSE); }

	push	ebp
	mov	ebp, esp
	sub	esp, 8
	mov	DWORD PTR _this$[ebp], ecx
	mov	eax, DWORD PTR _this$[ebp]
	mov	ecx, DWORD PTR [eax+172]
	and	ecx, 1024				; 00000400H
	je	SHORT $LN3@IsDying
	mov	DWORD PTR tv68[ebp], 1
	jmp	SHORT $LN4@IsDying
$LN3@IsDying:
	mov	DWORD PTR tv68[ebp], 0
$LN4@IsDying:
	mov	eax, DWORD PTR tv68[ebp]
	mov	esp, ebp
	pop	ebp
	ret	0
?IsDying@SimBaseClass@@QBEHXZ ENDP			; SimBaseClass::IsDying
_TEXT	ENDS
; Function compile flags: /Odtp
; File c:\users\zhitao li\documents\visual studio 2012\projects\freefalcon\sim\include\simbase.h
;	COMDAT ?GetSType@SimBaseClass@@QBEEXZ
_TEXT	SEGMENT
_this$ = -4						; size = 4
?GetSType@SimBaseClass@@QBEEXZ PROC			; SimBaseClass::GetSType, COMDAT
; _this$ = ecx

; 162  : 	uchar GetSType() const					{	return (EntityType())->classInfo_[VU_STYPE]; }

	push	ebp
	mov	ebp, esp
	push	ecx
	mov	DWORD PTR _this$[ebp], ecx
	mov	ecx, DWORD PTR _this$[ebp]
	call	?EntityType@VuEntity@@QBEPAUVuEntityType@@XZ ; VuEntity::EntityType
	mov	ecx, 1
	imul	ecx, 3
	mov	al, BYTE PTR [eax+ecx+8]
	mov	esp, ebp
	pop	ebp
	ret	0
?GetSType@SimBaseClass@@QBEEXZ ENDP			; SimBaseClass::GetSType
_TEXT	ENDS
; Function compile flags: /Odtp
; File c:\users\zhitao li\documents\visual studio 2012\projects\freefalcon\sim\include\simbase.h
;	COMDAT ?GetSlot@SimBaseClass@@QAEHXZ
_TEXT	SEGMENT
_this$ = -4						; size = 4
?GetSlot@SimBaseClass@@QAEHXZ PROC			; SimBaseClass::GetSlot, COMDAT
; _this$ = ecx

; 155  : 	int GetSlot () { return slotNumber;};

	push	ebp
	mov	ebp, esp
	push	ecx
	mov	DWORD PTR _this$[ebp], ecx
	mov	eax, DWORD PTR _this$[ebp]
	mov	eax, DWORD PTR [eax+236]
	mov	esp, ebp
	pop	ebp
	ret	0
?GetSlot@SimBaseClass@@QAEHXZ ENDP			; SimBaseClass::GetSlot
_TEXT	ENDS
; Function compile flags: /Odtp
; File c:\users\zhitao li\documents\visual studio 2012\projects\freefalcon\sim\include\simbase.h
;	COMDAT ?GetCallsignIdx@SimBaseClass@@QAEHXZ
_TEXT	SEGMENT
_this$ = -4						; size = 4
?GetCallsignIdx@SimBaseClass@@QAEHXZ PROC		; SimBaseClass::GetCallsignIdx, COMDAT
; _this$ = ecx

; 154  : 	int GetCallsignIdx () { return callsignIdx; };

	push	ebp
	mov	ebp, esp
	push	ecx
	mov	DWORD PTR _this$[ebp], ecx
	mov	eax, DWORD PTR _this$[ebp]
	mov	eax, DWORD PTR [eax+232]
	mov	esp, ebp
	pop	ebp
	ret	0
?GetCallsignIdx@SimBaseClass@@QAEHXZ ENDP		; SimBaseClass::GetCallsignIdx
_TEXT	ENDS
; Function compile flags: /Odtp
; File c:\users\zhitao li\documents\visual studio 2012\projects\freefalcon\vu2\include\vu_templates.h
;	COMDAT ?get@?$VuBin@VCampBaseClass@@@@QBEPAVCampBaseClass@@XZ
_TEXT	SEGMENT
_this$ = -4						; size = 4
?get@?$VuBin@VCampBaseClass@@@@QBEPAVCampBaseClass@@XZ PROC ; VuBin<CampBaseClass>::get, COMDAT
; _this$ = ecx

; 55   : 	E *get() const{

	push	ebp
	mov	ebp, esp
	push	ecx
	mov	DWORD PTR _this$[ebp], ecx

; 56   : 		return e;

	mov	eax, DWORD PTR _this$[ebp]
	mov	eax, DWORD PTR [eax]

; 57   : 	}

	mov	esp, ebp
	pop	ebp
	ret	0
?get@?$VuBin@VCampBaseClass@@@@QBEPAVCampBaseClass@@XZ ENDP ; VuBin<CampBaseClass>::get
_TEXT	ENDS
; Function compile flags: /Odtp
; File c:\users\zhitao li\documents\visual studio 2012\projects\freefalcon\falclib\include\falcent.h
;	COMDAT ?IsSetFELocalFlag@FalconEntity@@QAEHH@Z
_TEXT	SEGMENT
_this$ = -4						; size = 4
_flag$ = 8						; size = 4
?IsSetFELocalFlag@FalconEntity@@QAEHH@Z PROC		; FalconEntity::IsSetFELocalFlag, COMDAT
; _this$ = ecx

; 205  : 	int IsSetFELocalFlag  (int flag)	{ return feLocalFlags & flag; };

	push	ebp
	mov	ebp, esp
	push	ecx
	mov	DWORD PTR _this$[ebp], ecx
	mov	eax, DWORD PTR _this$[ebp]
	mov	eax, DWORD PTR [eax+140]
	and	eax, DWORD PTR _flag$[ebp]
	mov	esp, ebp
	pop	ebp
	ret	4
?IsSetFELocalFlag@FalconEntity@@QAEHH@Z ENDP		; FalconEntity::IsSetFELocalFlag
_TEXT	ENDS
; Function compile flags: /Odtp
; File c:\users\zhitao li\documents\visual studio 2012\projects\freefalcon\falclib\include\falcent.h
;	COMDAT ?UnSetFELocalFlag@FalconEntity@@QAEXH@Z
_TEXT	SEGMENT
_this$ = -4						; size = 4
_flag$ = 8						; size = 4
?UnSetFELocalFlag@FalconEntity@@QAEXH@Z PROC		; FalconEntity::UnSetFELocalFlag, COMDAT
; _this$ = ecx

; 204  : 	void UnSetFELocalFlag (int flag)	{ feLocalFlags &= ~flag; };

	push	ebp
	mov	ebp, esp
	push	ecx
	mov	DWORD PTR _this$[ebp], ecx
	mov	eax, DWORD PTR _flag$[ebp]
	not	eax
	mov	ecx, DWORD PTR _this$[ebp]
	and	eax, DWORD PTR [ecx+140]
	mov	edx, DWORD PTR _this$[ebp]
	mov	DWORD PTR [edx+140], eax
	mov	esp, ebp
	pop	ebp
	ret	4
?UnSetFELocalFlag@FalconEntity@@QAEXH@Z ENDP		; FalconEntity::UnSetFELocalFlag
_TEXT	ENDS
; Function compile flags: /Odtp
; File c:\users\zhitao li\documents\visual studio 2012\projects\freefalcon\falclib\include\falcent.h
;	COMDAT ?IsSetFalcFlag@FalconEntity@@QAEHH@Z
_TEXT	SEGMENT
_this$ = -4						; size = 4
_flag$ = 8						; size = 4
?IsSetFalcFlag@FalconEntity@@QAEHH@Z PROC		; FalconEntity::IsSetFalcFlag, COMDAT
; _this$ = ecx

; 112  : 	int IsSetFalcFlag (int flag)				{ return falconFlags & flag; };

	push	ebp
	mov	ebp, esp
	push	ecx
	mov	DWORD PTR _this$[ebp], ecx
	mov	eax, DWORD PTR _this$[ebp]
	movzx	eax, BYTE PTR [eax+136]
	and	eax, DWORD PTR _flag$[ebp]
	mov	esp, ebp
	pop	ebp
	ret	4
?IsSetFalcFlag@FalconEntity@@QAEHH@Z ENDP		; FalconEntity::IsSetFalcFlag
_TEXT	ENDS
; Function compile flags: /Odtp
; File c:\users\zhitao li\documents\visual studio 2012\projects\freefalcon\falclib\include\falcsess.h
;	COMDAT ?GetGame@FalconSessionEntity@@QAEPAVFalconGameEntity@@XZ
_TEXT	SEGMENT
_this$ = -4						; size = 4
?GetGame@FalconSessionEntity@@QAEPAVFalconGameEntity@@XZ PROC ; FalconSessionEntity::GetGame, COMDAT
; _this$ = ecx

; 154  : 	FalconGameEntity* GetGame (void)              { return (FalconGameEntity*)VuSessionEntity::Game(); }

	push	ebp
	mov	ebp, esp
	push	ecx
	mov	DWORD PTR _this$[ebp], ecx
	mov	ecx, DWORD PTR _this$[ebp]
	call	?Game@VuSessionEntity@@QAEPAVVuGameEntity@@XZ ; VuSessionEntity::Game
	mov	esp, ebp
	pop	ebp
	ret	0
?GetGame@FalconSessionEntity@@QAEPAVFalconGameEntity@@XZ ENDP ; FalconSessionEntity::GetGame
_TEXT	ENDS
; Function compile flags: /Odtp
; File c:\users\zhitao li\documents\visual studio 2012\projects\freefalcon\falclib\include\falcsess.h
;	COMDAT ?GetFlyState@FalconSessionEntity@@QBEEXZ
_TEXT	SEGMENT
_this$ = -4						; size = 4
?GetFlyState@FalconSessionEntity@@QBEEXZ PROC		; FalconSessionEntity::GetFlyState, COMDAT
; _this$ = ecx

; 147  : 	uchar GetFlyState (void) const                { return flyState; }

	push	ebp
	mov	ebp, esp
	push	ecx
	mov	DWORD PTR _this$[ebp], ecx
	mov	eax, DWORD PTR _this$[ebp]
	mov	al, BYTE PTR [eax+513]
	mov	esp, ebp
	pop	ebp
	ret	0
?GetFlyState@FalconSessionEntity@@QBEEXZ ENDP		; FalconSessionEntity::GetFlyState
_TEXT	ENDS
; Function compile flags: /Odtp
; File c:\users\zhitao li\documents\visual studio 2012\projects\freefalcon\vu2\include\vu_templates.h
;	COMDAT ?get@?$VuBin@VFalconEntity@@@@QBEPAVFalconEntity@@XZ
_TEXT	SEGMENT
_this$ = -4						; size = 4
?get@?$VuBin@VFalconEntity@@@@QBEPAVFalconEntity@@XZ PROC ; VuBin<FalconEntity>::get, COMDAT
; _this$ = ecx

; 55   : 	E *get() const{

	push	ebp
	mov	ebp, esp
	push	ecx
	mov	DWORD PTR _this$[ebp], ecx

; 56   : 		return e;

	mov	eax, DWORD PTR _this$[ebp]
	mov	eax, DWORD PTR [eax]

; 57   : 	}

	mov	esp, ebp
	pop	ebp
	ret	0
?get@?$VuBin@VFalconEntity@@@@QBEPAVFalconEntity@@XZ ENDP ; VuBin<FalconEntity>::get
_TEXT	ENDS
; Function compile flags: /Odtp
; File c:\users\zhitao li\documents\visual studio 2012\projects\freefalcon\vu2\include\vu_templates.h
;	COMDAT ?get@?$VuBin@VVuSessionEntity@@@@QBEPAVVuSessionEntity@@XZ
_TEXT	SEGMENT
_this$ = -4						; size = 4
?get@?$VuBin@VVuSessionEntity@@@@QBEPAVVuSessionEntity@@XZ PROC ; VuBin<VuSessionEntity>::get, COMDAT
; _this$ = ecx

; 55   : 	E *get() const{

	push	ebp
	mov	ebp, esp
	push	ecx
	mov	DWORD PTR _this$[ebp], ecx

; 56   : 		return e;

	mov	eax, DWORD PTR _this$[ebp]
	mov	eax, DWORD PTR [eax]

; 57   : 	}

	mov	esp, ebp
	pop	ebp
	ret	0
?get@?$VuBin@VVuSessionEntity@@@@QBEPAVVuSessionEntity@@XZ ENDP ; VuBin<VuSessionEntity>::get
_TEXT	ENDS
; Function compile flags: /Odtp
; File c:\users\zhitao li\documents\visual studio 2012\projects\freefalcon\vu2\include\vu_templates.h
;	COMDAT ??B?$VuBin@VVuSessionEntity@@@@QBE_NXZ
_TEXT	SEGMENT
_this$ = -8						; size = 4
tv66 = -4						; size = 4
??B?$VuBin@VVuSessionEntity@@@@QBE_NXZ PROC		; VuBin<VuSessionEntity>::operator bool, COMDAT
; _this$ = ecx

; 40   : 	operator bool() const{

	push	ebp
	mov	ebp, esp
	sub	esp, 8
	mov	DWORD PTR _this$[ebp], ecx

; 41   : 		return e != NULL;

	mov	eax, DWORD PTR _this$[ebp]
	cmp	DWORD PTR [eax], 0
	je	SHORT $LN3@operator
	mov	DWORD PTR tv66[ebp], 1
	jmp	SHORT $LN4@operator
$LN3@operator:
	mov	DWORD PTR tv66[ebp], 0
$LN4@operator:
	mov	al, BYTE PTR tv66[ebp]

; 42   : 	}

	mov	esp, ebp
	pop	ebp
	ret	0
??B?$VuBin@VVuSessionEntity@@@@QBE_NXZ ENDP		; VuBin<VuSessionEntity>::operator bool
_TEXT	ENDS
; Function compile flags: /Odtp
; File c:\users\zhitao li\documents\visual studio 2012\projects\freefalcon\mathlib\math.h
_TEXT	SEGMENT
_x$ = 8							; size = 4
?FloatToInt32@@YAHM@Z PROC				; FloatToInt32

; 179  : {

	push	ebp
	mov	ebp, esp

; 180  : #if WIN32
; 181  :   __asm {
; 182  :     fld dword ptr [x];

	fld	DWORD PTR _x$[ebp]

; 183  :     fistp dword ptr [x];

	fistp	DWORD PTR _x$[ebp]

; 184  :     mov eax,dword ptr [x];

	mov	eax, DWORD PTR _x$[ebp]

; 185  :   }
; 186  : #else 
; 187  : 	return static_cast<int>(x);	
; 188  : #endif
; 189  : }

	pop	ebp
	ret	0
?FloatToInt32@@YAHM@Z ENDP				; FloatToInt32
_TEXT	ENDS
; Function compile flags: /Odtp
; File c:\users\zhitao li\documents\visual studio 2012\projects\freefalcon\mathlib\math.h
_TEXT	SEGMENT
_x$ = 8							; size = 4
?SqrtSSE@@YAMM@Z PROC					; SqrtSSE

; 91   : static inline float SqrtSSE(float x){ 

	push	ebp
	mov	ebp, esp

; 92   :     __asm 
; 93   :     { 
; 94   :         sqrtss xmm0,x 

	sqrtss	xmm0, DWORD PTR _x$[ebp]

; 95   :         movss x,xmm0 

	movss	XMMWORD PTR _x$[ebp], xmm0

; 96   :     } 
; 97   : 
; 98   :     return x; 

	fld	DWORD PTR _x$[ebp]

; 99   : } 

	pop	ebp
	ret	0
?SqrtSSE@@YAMM@Z ENDP					; SqrtSSE
_TEXT	ENDS
; Function compile flags: /Odtp
; File c:\users\zhitao li\documents\visual studio 2012\projects\freefalcon\vu2\include\vuentity.h
;	COMDAT ?EntityDriver@VuEntity@@QAEPAVVuDriver@@XZ
_TEXT	SEGMENT
_this$ = -4						; size = 4
?EntityDriver@VuEntity@@QAEPAVVuDriver@@XZ PROC		; VuEntity::EntityDriver, COMDAT
; _this$ = ecx

; 180  : 	VuDriver *EntityDriver()	{ return driver_; }

	push	ebp
	mov	ebp, esp
	push	ecx
	mov	DWORD PTR _this$[ebp], ecx
	mov	eax, DWORD PTR _this$[ebp]
	mov	eax, DWORD PTR [eax+116]
	mov	esp, ebp
	pop	ebp
	ret	0
?EntityDriver@VuEntity@@QAEPAVVuDriver@@XZ ENDP		; VuEntity::EntityDriver
_TEXT	ENDS
; Function compile flags: /Odtp
; File c:\users\zhitao li\documents\visual studio 2012\projects\freefalcon\vu2\include\vuentity.h
;	COMDAT ?EntityType@VuEntity@@QBEPAUVuEntityType@@XZ
_TEXT	SEGMENT
_this$ = -4						; size = 4
?EntityType@VuEntity@@QBEPAUVuEntityType@@XZ PROC	; VuEntity::EntityType, COMDAT
; _this$ = ecx

; 176  : 	VuEntityType *EntityType() const { return const_cast<VuEntityType*>(entityTypePtr_); }

	push	ebp
	mov	ebp, esp
	push	ecx
	mov	DWORD PTR _this$[ebp], ecx
	mov	eax, DWORD PTR _this$[ebp]
	mov	eax, DWORD PTR [eax+112]
	mov	esp, ebp
	pop	ebp
	ret	0
?EntityType@VuEntity@@QBEPAUVuEntityType@@XZ ENDP	; VuEntity::EntityType
_TEXT	ENDS
; Function compile flags: /Odtp
; File c:\users\zhitao li\documents\visual studio 2012\projects\freefalcon\vu2\include\vuentity.h
;	COMDAT ?Roll@VuEntity@@QBEMXZ
_TEXT	SEGMENT
_this$ = -4						; size = 4
?Roll@VuEntity@@QBEMXZ PROC				; VuEntity::Roll, COMDAT
; _this$ = ecx

; 166  : 	SM_SCALAR Roll() const { return orient_.roll_; }

	push	ebp
	mov	ebp, esp
	push	ecx
	mov	DWORD PTR _this$[ebp], ecx
	mov	eax, DWORD PTR _this$[ebp]
	fld	DWORD PTR [eax+68]
	mov	esp, ebp
	pop	ebp
	ret	0
?Roll@VuEntity@@QBEMXZ ENDP				; VuEntity::Roll
_TEXT	ENDS
; Function compile flags: /Odtp
; File c:\users\zhitao li\documents\visual studio 2012\projects\freefalcon\vu2\include\vuentity.h
;	COMDAT ?Pitch@VuEntity@@QBEMXZ
_TEXT	SEGMENT
_this$ = -4						; size = 4
?Pitch@VuEntity@@QBEMXZ PROC				; VuEntity::Pitch, COMDAT
; _this$ = ecx

; 165  : 	SM_SCALAR Pitch() const { return orient_.pitch_; }

	push	ebp
	mov	ebp, esp
	push	ecx
	mov	DWORD PTR _this$[ebp], ecx
	mov	eax, DWORD PTR _this$[ebp]
	fld	DWORD PTR [eax+64]
	mov	esp, ebp
	pop	ebp
	ret	0
?Pitch@VuEntity@@QBEMXZ ENDP				; VuEntity::Pitch
_TEXT	ENDS
; Function compile flags: /Odtp
; File c:\users\zhitao li\documents\visual studio 2012\projects\freefalcon\vu2\include\vuentity.h
;	COMDAT ?Yaw@VuEntity@@QBEMXZ
_TEXT	SEGMENT
_this$ = -4						; size = 4
?Yaw@VuEntity@@QBEMXZ PROC				; VuEntity::Yaw, COMDAT
; _this$ = ecx

; 164  : 	SM_SCALAR Yaw() const { return orient_.yaw_; }

	push	ebp
	mov	ebp, esp
	push	ecx
	mov	DWORD PTR _this$[ebp], ecx
	mov	eax, DWORD PTR _this$[ebp]
	fld	DWORD PTR [eax+60]
	mov	esp, ebp
	pop	ebp
	ret	0
?Yaw@VuEntity@@QBEMXZ ENDP				; VuEntity::Yaw
_TEXT	ENDS
; Function compile flags: /Odtp
; File c:\users\zhitao li\documents\visual studio 2012\projects\freefalcon\vu2\include\vuentity.h
;	COMDAT ?ZPos@VuEntity@@QBEMXZ
_TEXT	SEGMENT
_this$ = -4						; size = 4
?ZPos@VuEntity@@QBEMXZ PROC				; VuEntity::ZPos, COMDAT
; _this$ = ecx

; 160  : 	BIG_SCALAR ZPos()	const { return pos_.z_; }

	push	ebp
	mov	ebp, esp
	push	ecx
	mov	DWORD PTR _this$[ebp], ecx
	mov	eax, DWORD PTR _this$[ebp]
	fld	DWORD PTR [eax+44]
	mov	esp, ebp
	pop	ebp
	ret	0
?ZPos@VuEntity@@QBEMXZ ENDP				; VuEntity::ZPos
_TEXT	ENDS
; Function compile flags: /Odtp
; File c:\users\zhitao li\documents\visual studio 2012\projects\freefalcon\vu2\include\vuentity.h
;	COMDAT ?YPos@VuEntity@@QBEMXZ
_TEXT	SEGMENT
_this$ = -4						; size = 4
?YPos@VuEntity@@QBEMXZ PROC				; VuEntity::YPos, COMDAT
; _this$ = ecx

; 159  : 	BIG_SCALAR YPos()	const { return pos_.y_; }

	push	ebp
	mov	ebp, esp
	push	ecx
	mov	DWORD PTR _this$[ebp], ecx
	mov	eax, DWORD PTR _this$[ebp]
	fld	DWORD PTR [eax+40]
	mov	esp, ebp
	pop	ebp
	ret	0
?YPos@VuEntity@@QBEMXZ ENDP				; VuEntity::YPos
_TEXT	ENDS
; Function compile flags: /Odtp
; File c:\users\zhitao li\documents\visual studio 2012\projects\freefalcon\vu2\include\vuentity.h
;	COMDAT ?XPos@VuEntity@@QBEMXZ
_TEXT	SEGMENT
_this$ = -4						; size = 4
?XPos@VuEntity@@QBEMXZ PROC				; VuEntity::XPos, COMDAT
; _this$ = ecx

; 158  : 	BIG_SCALAR XPos() const { return pos_.x_; }

	push	ebp
	mov	ebp, esp
	push	ecx
	mov	DWORD PTR _this$[ebp], ecx
	mov	eax, DWORD PTR _this$[ebp]
	fld	DWORD PTR [eax+36]
	mov	esp, ebp
	pop	ebp
	ret	0
?XPos@VuEntity@@QBEMXZ ENDP				; VuEntity::XPos
_TEXT	ENDS
; Function compile flags: /Odtp
; File c:\users\zhitao li\documents\visual studio 2012\projects\freefalcon\vu2\include\vuentity.h
;	COMDAT ?Type@VuEntity@@QBEGXZ
_TEXT	SEGMENT
_this$ = -4						; size = 4
?Type@VuEntity@@QBEGXZ PROC				; VuEntity::Type, COMDAT
; _this$ = ecx

; 154  : 	ushort Type() const       { return share_.entityType_; }

	push	ebp
	mov	ebp, esp
	push	ecx
	mov	DWORD PTR _this$[ebp], ecx
	mov	eax, DWORD PTR _this$[ebp]
	mov	ax, WORD PTR [eax+4]
	mov	esp, ebp
	pop	ebp
	ret	0
?Type@VuEntity@@QBEGXZ ENDP				; VuEntity::Type
_TEXT	ENDS
; Function compile flags: /Odtp
; File c:\users\zhitao li\documents\visual studio 2012\projects\freefalcon\vu2\include\vuentity.h
;	COMDAT ?Id@VuEntity@@QBE?AVVU_ID@@XZ
_TEXT	SEGMENT
_this$ = -4						; size = 4
___$ReturnUdt$ = 8					; size = 4
?Id@VuEntity@@QBE?AVVU_ID@@XZ PROC			; VuEntity::Id, COMDAT
; _this$ = ecx

; 131  : 	VU_ID Id() const	{ return share_.id_; }

	push	ebp
	mov	ebp, esp
	push	ecx
	mov	DWORD PTR _this$[ebp], ecx
	mov	eax, DWORD PTR _this$[ebp]
	mov	ecx, DWORD PTR [eax+12]
	mov	edx, DWORD PTR [eax+16]
	mov	eax, DWORD PTR ___$ReturnUdt$[ebp]
	mov	DWORD PTR [eax], ecx
	mov	DWORD PTR [eax+4], edx
	mov	eax, DWORD PTR ___$ReturnUdt$[ebp]
	mov	esp, ebp
	pop	ebp
	ret	4
?Id@VuEntity@@QBE?AVVU_ID@@XZ ENDP			; VuEntity::Id
_TEXT	ENDS
; Function compile flags: /Odtp
; File c:\users\zhitao li\documents\visual studio 2012\projects\freefalcon\falclib\include\vutypes.h
;	COMDAT ??9VU_ID@@QBE_NABV0@@Z
_TEXT	SEGMENT
_this$ = -8						; size = 4
tv74 = -2						; size = 1
tv73 = -1						; size = 1
_rhs$ = 8						; size = 4
??9VU_ID@@QBE_NABV0@@Z PROC				; VU_ID::operator!=, COMDAT
; _this$ = ecx

; 111  : 	bool operator != (const VU_ID &rhs) const { 

	push	ebp
	mov	ebp, esp
	sub	esp, 8
	mov	DWORD PTR _this$[ebp], ecx

; 112  : 		return (
; 113  : 			num_ == rhs.num_ ? 
; 114  : 			(creator_ == rhs.creator_ ? false : true) : 
; 115  : 			true
; 116  : 		); 

	mov	eax, DWORD PTR _this$[ebp]
	mov	ecx, DWORD PTR _rhs$[ebp]
	mov	edx, DWORD PTR [eax]
	cmp	edx, DWORD PTR [ecx]
	jne	SHORT $LN5@operator
	mov	eax, DWORD PTR _rhs$[ebp]
	add	eax, 4
	push	eax
	mov	ecx, DWORD PTR _this$[ebp]
	add	ecx, 4
	call	??8VU_SESSION_ID@@QBEHABV0@@Z		; VU_SESSION_ID::operator==
	test	eax, eax
	je	SHORT $LN3@operator
	mov	BYTE PTR tv73[ebp], 0
	jmp	SHORT $LN4@operator
$LN3@operator:
	mov	BYTE PTR tv73[ebp], 1
$LN4@operator:
	mov	cl, BYTE PTR tv73[ebp]
	mov	BYTE PTR tv74[ebp], cl
	jmp	SHORT $LN6@operator
$LN5@operator:
	mov	BYTE PTR tv74[ebp], 1
$LN6@operator:
	mov	al, BYTE PTR tv74[ebp]

; 117  : 	}

	mov	esp, ebp
	pop	ebp
	ret	4
??9VU_ID@@QBE_NABV0@@Z ENDP				; VU_ID::operator!=
_TEXT	ENDS
; Function compile flags: /Odtp
; File c:\users\zhitao li\documents\visual studio 2012\projects\freefalcon\falclib\include\vutypes.h
;	COMDAT ??8VU_ID@@QBE_NABV0@@Z
_TEXT	SEGMENT
_this$ = -8						; size = 4
tv74 = -2						; size = 1
tv73 = -1						; size = 1
_rhs$ = 8						; size = 4
??8VU_ID@@QBE_NABV0@@Z PROC				; VU_ID::operator==, COMDAT
; _this$ = ecx

; 104  : 	bool operator == (const VU_ID &rhs) const { 

	push	ebp
	mov	ebp, esp
	sub	esp, 8
	mov	DWORD PTR _this$[ebp], ecx

; 105  : 		return (
; 106  : 			num_ == rhs.num_ ? 
; 107  : 			(creator_ == rhs.creator_ ? true : false) : 
; 108  : 			false
; 109  : 		); 

	mov	eax, DWORD PTR _this$[ebp]
	mov	ecx, DWORD PTR _rhs$[ebp]
	mov	edx, DWORD PTR [eax]
	cmp	edx, DWORD PTR [ecx]
	jne	SHORT $LN5@operator
	mov	eax, DWORD PTR _rhs$[ebp]
	add	eax, 4
	push	eax
	mov	ecx, DWORD PTR _this$[ebp]
	add	ecx, 4
	call	??8VU_SESSION_ID@@QBEHABV0@@Z		; VU_SESSION_ID::operator==
	test	eax, eax
	je	SHORT $LN3@operator
	mov	BYTE PTR tv73[ebp], 1
	jmp	SHORT $LN4@operator
$LN3@operator:
	mov	BYTE PTR tv73[ebp], 0
$LN4@operator:
	mov	cl, BYTE PTR tv73[ebp]
	mov	BYTE PTR tv74[ebp], cl
	jmp	SHORT $LN6@operator
$LN5@operator:
	mov	BYTE PTR tv74[ebp], 0
$LN6@operator:
	mov	al, BYTE PTR tv74[ebp]

; 110  : 	}

	mov	esp, ebp
	pop	ebp
	ret	4
??8VU_ID@@QBE_NABV0@@Z ENDP				; VU_ID::operator==
_TEXT	ENDS
; Function compile flags: /Odtp
; File c:\users\zhitao li\documents\visual studio 2012\projects\freefalcon\falclib\include\vutypes.h
;	COMDAT ??0VU_ID@@QAE@XZ
_TEXT	SEGMENT
_this$ = -4						; size = 4
??0VU_ID@@QAE@XZ PROC					; VU_ID::VU_ID, COMDAT
; _this$ = ecx

; 100  : 	VU_ID() : num_(0), creator_(0){}

	push	ebp
	mov	ebp, esp
	push	ecx
	mov	DWORD PTR _this$[ebp], ecx
	mov	eax, DWORD PTR _this$[ebp]
	mov	DWORD PTR [eax], 0
	push	0
	mov	ecx, DWORD PTR _this$[ebp]
	add	ecx, 4
	call	??0VU_SESSION_ID@@QAE@K@Z		; VU_SESSION_ID::VU_SESSION_ID
	mov	eax, DWORD PTR _this$[ebp]
	mov	esp, ebp
	pop	ebp
	ret	0
??0VU_ID@@QAE@XZ ENDP					; VU_ID::VU_ID
_TEXT	ENDS
; Function compile flags: /Odtp
; File c:\users\zhitao li\documents\visual studio 2012\projects\freefalcon\falclib\include\vutypes.h
;	COMDAT ??8VU_SESSION_ID@@QBEHABV0@@Z
_TEXT	SEGMENT
_this$ = -8						; size = 4
tv67 = -4						; size = 4
_rhs$ = 8						; size = 4
??8VU_SESSION_ID@@QBEHABV0@@Z PROC			; VU_SESSION_ID::operator==, COMDAT
; _this$ = ecx

; 55   : 	int operator == (const VU_SESSION_ID &rhs) const{

	push	ebp
	mov	ebp, esp
	sub	esp, 8
	mov	DWORD PTR _this$[ebp], ecx

; 56   : 		return (value_ == rhs.value_ ? TRUE : FALSE); 

	mov	eax, DWORD PTR _this$[ebp]
	mov	ecx, DWORD PTR _rhs$[ebp]
	mov	edx, DWORD PTR [eax]
	cmp	edx, DWORD PTR [ecx]
	jne	SHORT $LN3@operator
	mov	DWORD PTR tv67[ebp], 1
	jmp	SHORT $LN4@operator
$LN3@operator:
	mov	DWORD PTR tv67[ebp], 0
$LN4@operator:
	mov	eax, DWORD PTR tv67[ebp]

; 57   : 	}

	mov	esp, ebp
	pop	ebp
	ret	4
??8VU_SESSION_ID@@QBEHABV0@@Z ENDP			; VU_SESSION_ID::operator==
_TEXT	ENDS
; Function compile flags: /Odtp
; File c:\users\zhitao li\documents\visual studio 2012\projects\freefalcon\falclib\include\vutypes.h
;	COMDAT ??0VU_SESSION_ID@@QAE@K@Z
_TEXT	SEGMENT
_this$ = -4						; size = 4
_value$ = 8						; size = 4
??0VU_SESSION_ID@@QAE@K@Z PROC				; VU_SESSION_ID::VU_SESSION_ID, COMDAT
; _this$ = ecx

; 53   : 	VU_SESSION_ID(unsigned long value) : value_((unsigned long)value) { }

	push	ebp
	mov	ebp, esp
	push	ecx
	mov	DWORD PTR _this$[ebp], ecx
	mov	eax, DWORD PTR _this$[ebp]
	mov	ecx, DWORD PTR _value$[ebp]
	mov	DWORD PTR [eax], ecx
	mov	eax, DWORD PTR _this$[ebp]
	mov	esp, ebp
	pop	ebp
	ret	4
??0VU_SESSION_ID@@QAE@K@Z ENDP				; VU_SESSION_ID::VU_SESSION_ID
_TEXT	ENDS
; Function compile flags: /Odtp
; File c:\program files (x86)\microsoft visual studio 11.0\vc\include\xstring
;	COMDAT ?_Xran@?$basic_string@DU?$char_traits@D@std@@V?$allocator@D@2@@std@@QBEXXZ
_TEXT	SEGMENT
_this$ = -4						; size = 4
?_Xran@?$basic_string@DU?$char_traits@D@std@@V?$allocator@D@2@@std@@QBEXXZ PROC ; std::basic_string<char,std::char_traits<char>,std::allocator<char> >::_Xran, COMDAT
; _this$ = ecx

; 2275 : 		{	// report an out_of_range error

	push	ebp
	mov	ebp, esp
	push	ecx
	mov	DWORD PTR _this$[ebp], ecx

; 2276 : 		_Xout_of_range("invalid string position");

	push	OFFSET ??_C@_0BI@CFPLBAOH@invalid?5string?5position?$AA@
	call	?_Xout_of_range@std@@YAXPBD@Z		; std::_Xout_of_range
$LN2@Xran:

; 2277 : 		}

	mov	esp, ebp
	pop	ebp
	ret	0
?_Xran@?$basic_string@DU?$char_traits@D@std@@V?$allocator@D@2@@std@@QBEXXZ ENDP ; std::basic_string<char,std::char_traits<char>,std::allocator<char> >::_Xran
_TEXT	ENDS
; Function compile flags: /Odtp
; File c:\program files (x86)\microsoft visual studio 11.0\vc\include\xstring
;	COMDAT ?_Xlen@?$basic_string@DU?$char_traits@D@std@@V?$allocator@D@2@@std@@QBEXXZ
_TEXT	SEGMENT
_this$ = -4						; size = 4
?_Xlen@?$basic_string@DU?$char_traits@D@std@@V?$allocator@D@2@@std@@QBEXXZ PROC ; std::basic_string<char,std::char_traits<char>,std::allocator<char> >::_Xlen, COMDAT
; _this$ = ecx

; 2270 : 		{	// report a length_error

	push	ebp
	mov	ebp, esp
	push	ecx
	mov	DWORD PTR _this$[ebp], ecx

; 2271 : 		_Xlength_error("string too long");

	push	OFFSET ??_C@_0BA@JFNIOLAK@string?5too?5long?$AA@
	call	?_Xlength_error@std@@YAXPBD@Z		; std::_Xlength_error
$LN2@Xlen:

; 2272 : 		}

	mov	esp, ebp
	pop	ebp
	ret	0
?_Xlen@?$basic_string@DU?$char_traits@D@std@@V?$allocator@D@2@@std@@QBEXXZ ENDP ; std::basic_string<char,std::char_traits<char>,std::allocator<char> >::_Xlen
_TEXT	ENDS
; Function compile flags: /Odtp
; File c:\program files (x86)\microsoft visual studio 11.0\vc\include\xstring
;	COMDAT ?_Tidy@?$basic_string@DU?$char_traits@D@std@@V?$allocator@D@2@@std@@QAEX_NI@Z
_TEXT	SEGMENT
__Ptr$1 = -12						; size = 4
_this$ = -8						; size = 4
$T2 = -2						; size = 1
$T3 = -1						; size = 1
__Built$ = 8						; size = 1
__Newsize$ = 12						; size = 4
?_Tidy@?$basic_string@DU?$char_traits@D@std@@V?$allocator@D@2@@std@@QAEX_NI@Z PROC ; std::basic_string<char,std::char_traits<char>,std::allocator<char> >::_Tidy, COMDAT
; _this$ = ecx

; 2253 : 		{	// initialize buffer, deallocating any storage

	push	ebp
	mov	ebp, esp
	sub	esp, 12					; 0000000cH
	mov	DWORD PTR _this$[ebp], ecx

; 2254 : 		if (!_Built)

	movzx	eax, BYTE PTR __Built$[ebp]
	test	eax, eax
	jne	SHORT $LN4@Tidy
	jmp	SHORT $LN3@Tidy
$LN4@Tidy:

; 2255 : 			;
; 2256 : 		else if (this->_BUF_SIZE <= this->_Myres)

	mov	ecx, DWORD PTR _this$[ebp]
	cmp	DWORD PTR [ecx+20], 16			; 00000010H
	jb	SHORT $LN3@Tidy

; 2257 : 			{	// copy any leftovers to small buffer and deallocate
; 2258 : 			pointer _Ptr = this->_Bx._Ptr;

	mov	edx, DWORD PTR _this$[ebp]
	mov	eax, DWORD PTR [edx]
	mov	DWORD PTR __Ptr$1[ebp], eax

; 2259 : 			this->_Getal().destroy(&this->_Bx._Ptr);

	mov	ecx, DWORD PTR _this$[ebp]
	push	ecx
	lea	edx, DWORD PTR $T3[ebp]
	push	edx
	mov	ecx, DWORD PTR _this$[ebp]
	call	?_Getal@?$_String_alloc@$0A@U?$_String_base_types@DV?$allocator@D@std@@@std@@@std@@QBE?AU?$_Wrap_alloc@V?$allocator@D@std@@@2@XZ ; std::_String_alloc<0,std::_String_base_types<char,std::allocator<char> > >::_Getal
	mov	ecx, eax
	call	??$destroy@PAD@?$_Wrap_alloc@V?$allocator@D@std@@@std@@QAEXPAPAD@Z ; std::_Wrap_alloc<std::allocator<char> >::destroy<char *>

; 2260 : 			if (0 < _Newsize)

	cmp	DWORD PTR __Newsize$[ebp], 0
	jbe	SHORT $LN1@Tidy

; 2261 : 				_Traits::copy(this->_Bx._Buf,
; 2262 : 					_STD addressof(*_Ptr), _Newsize);

	mov	eax, DWORD PTR __Newsize$[ebp]
	push	eax
	mov	ecx, DWORD PTR __Ptr$1[ebp]
	push	ecx
	call	??$addressof@D@std@@YAPADAAD@Z		; std::addressof<char>
	add	esp, 4
	push	eax
	mov	edx, DWORD PTR _this$[ebp]
	push	edx
	call	?copy@?$char_traits@D@std@@SAPADPADPBDI@Z ; std::char_traits<char>::copy
	add	esp, 12					; 0000000cH
$LN1@Tidy:

; 2263 : 			this->_Getal().deallocate(_Ptr, this->_Myres + 1);

	mov	eax, DWORD PTR _this$[ebp]
	mov	ecx, DWORD PTR [eax+20]
	add	ecx, 1
	push	ecx
	mov	edx, DWORD PTR __Ptr$1[ebp]
	push	edx
	lea	eax, DWORD PTR $T2[ebp]
	push	eax
	mov	ecx, DWORD PTR _this$[ebp]
	call	?_Getal@?$_String_alloc@$0A@U?$_String_base_types@DV?$allocator@D@std@@@std@@@std@@QBE?AU?$_Wrap_alloc@V?$allocator@D@std@@@2@XZ ; std::_String_alloc<0,std::_String_base_types<char,std::allocator<char> > >::_Getal
	mov	ecx, eax
	call	?deallocate@?$_Wrap_alloc@V?$allocator@D@std@@@std@@QAEXPADI@Z ; std::_Wrap_alloc<std::allocator<char> >::deallocate
$LN3@Tidy:

; 2264 : 			}
; 2265 : 		this->_Myres = this->_BUF_SIZE - 1;

	mov	ecx, DWORD PTR _this$[ebp]
	mov	DWORD PTR [ecx+20], 15			; 0000000fH

; 2266 : 		_Eos(_Newsize);

	mov	edx, DWORD PTR __Newsize$[ebp]
	push	edx
	mov	ecx, DWORD PTR _this$[ebp]
	call	?_Eos@?$basic_string@DU?$char_traits@D@std@@V?$allocator@D@2@@std@@QAEXI@Z ; std::basic_string<char,std::char_traits<char>,std::allocator<char> >::_Eos

; 2267 : 		}

	mov	esp, ebp
	pop	ebp
	ret	8
?_Tidy@?$basic_string@DU?$char_traits@D@std@@V?$allocator@D@2@@std@@QAEX_NI@Z ENDP ; std::basic_string<char,std::char_traits<char>,std::allocator<char> >::_Tidy
_TEXT	ENDS
; Function compile flags: /Odtp
; File c:\program files (x86)\microsoft visual studio 11.0\vc\include\xstring
;	COMDAT ?_Inside@?$basic_string@DU?$char_traits@D@std@@V?$allocator@D@2@@std@@QAE_NPBD@Z
_TEXT	SEGMENT
_this$ = -4						; size = 4
__Ptr$ = 8						; size = 4
?_Inside@?$basic_string@DU?$char_traits@D@std@@V?$allocator@D@2@@std@@QAE_NPBD@Z PROC ; std::basic_string<char,std::char_traits<char>,std::allocator<char> >::_Inside, COMDAT
; _this$ = ecx

; 2237 : 		{	// test if _Ptr points inside string

	push	ebp
	mov	ebp, esp
	push	ecx
	mov	DWORD PTR _this$[ebp], ecx

; 2238 : 		if (_Ptr == 0 || _Ptr < this->_Myptr()
; 2239 : 			|| this->_Myptr() + this->_Mysize <= _Ptr)

	cmp	DWORD PTR __Ptr$[ebp], 0
	je	SHORT $LN2@Inside
	mov	ecx, DWORD PTR _this$[ebp]
	call	?_Myptr@?$_String_val@U?$_Simple_types@D@std@@@std@@QAEPADXZ ; std::_String_val<std::_Simple_types<char> >::_Myptr
	cmp	DWORD PTR __Ptr$[ebp], eax
	jb	SHORT $LN2@Inside
	mov	ecx, DWORD PTR _this$[ebp]
	call	?_Myptr@?$_String_val@U?$_Simple_types@D@std@@@std@@QAEPADXZ ; std::_String_val<std::_Simple_types<char> >::_Myptr
	mov	ecx, DWORD PTR _this$[ebp]
	add	eax, DWORD PTR [ecx+16]
	cmp	eax, DWORD PTR __Ptr$[ebp]
	ja	SHORT $LN3@Inside
$LN2@Inside:

; 2240 : 			return (false);	// don't ask

	xor	al, al
	jmp	SHORT $LN4@Inside

; 2241 : 		else

	jmp	SHORT $LN4@Inside
$LN3@Inside:

; 2242 : 			return (true);

	mov	al, 1
$LN4@Inside:

; 2243 : 		}

	mov	esp, ebp
	pop	ebp
	ret	4
?_Inside@?$basic_string@DU?$char_traits@D@std@@V?$allocator@D@2@@std@@QAE_NPBD@Z ENDP ; std::basic_string<char,std::char_traits<char>,std::allocator<char> >::_Inside
_TEXT	ENDS
; Function compile flags: /Odtp
; File c:\program files (x86)\microsoft visual studio 11.0\vc\include\xstring
;	COMDAT ?_Grow@?$basic_string@DU?$char_traits@D@std@@V?$allocator@D@2@@std@@QAE_NI_N@Z
_TEXT	SEGMENT
tv136 = -12						; size = 4
tv129 = -8						; size = 4
_this$ = -4						; size = 4
__Newsize$ = 8						; size = 4
__Trim$ = 12						; size = 1
?_Grow@?$basic_string@DU?$char_traits@D@std@@V?$allocator@D@2@@std@@QAE_NI_N@Z PROC ; std::basic_string<char,std::char_traits<char>,std::allocator<char> >::_Grow, COMDAT
; _this$ = ecx

; 2223 : 		{	// ensure buffer is big enough, trim to size if _Trim is true

	push	ebp
	mov	ebp, esp
	sub	esp, 12					; 0000000cH
	mov	DWORD PTR _this$[ebp], ecx

; 2224 : 		if (max_size() < _Newsize)

	mov	ecx, DWORD PTR _this$[ebp]
	call	?max_size@?$basic_string@DU?$char_traits@D@std@@V?$allocator@D@2@@std@@QBEIXZ ; std::basic_string<char,std::char_traits<char>,std::allocator<char> >::max_size
	cmp	eax, DWORD PTR __Newsize$[ebp]
	jae	SHORT $LN6@Grow

; 2225 : 			_Xlen();	// result too long

	mov	ecx, DWORD PTR _this$[ebp]
	call	?_Xlen@?$basic_string@DU?$char_traits@D@std@@V?$allocator@D@2@@std@@QBEXXZ ; std::basic_string<char,std::char_traits<char>,std::allocator<char> >::_Xlen
$LN6@Grow:

; 2226 : 		if (this->_Myres < _Newsize)

	mov	eax, DWORD PTR _this$[ebp]
	mov	ecx, DWORD PTR [eax+20]
	cmp	ecx, DWORD PTR __Newsize$[ebp]
	jae	SHORT $LN5@Grow

; 2227 : 			_Copy(_Newsize, this->_Mysize);	// reallocate to grow

	mov	edx, DWORD PTR _this$[ebp]
	mov	eax, DWORD PTR [edx+16]
	push	eax
	mov	ecx, DWORD PTR __Newsize$[ebp]
	push	ecx
	mov	ecx, DWORD PTR _this$[ebp]
	call	?_Copy@?$basic_string@DU?$char_traits@D@std@@V?$allocator@D@2@@std@@QAEXII@Z ; std::basic_string<char,std::char_traits<char>,std::allocator<char> >::_Copy
	jmp	SHORT $LN4@Grow
$LN5@Grow:

; 2228 : 		else if (_Trim && _Newsize < this->_BUF_SIZE)

	movzx	edx, BYTE PTR __Trim$[ebp]
	test	edx, edx
	je	SHORT $LN3@Grow
	cmp	DWORD PTR __Newsize$[ebp], 16		; 00000010H
	jae	SHORT $LN3@Grow

; 2229 : 			_Tidy(true,	// copy and deallocate if trimming to small string
; 2230 : 				_Newsize < this->_Mysize ? _Newsize : this->_Mysize);

	mov	eax, DWORD PTR _this$[ebp]
	mov	ecx, DWORD PTR __Newsize$[ebp]
	cmp	ecx, DWORD PTR [eax+16]
	jae	SHORT $LN9@Grow
	mov	edx, DWORD PTR __Newsize$[ebp]
	mov	DWORD PTR tv129[ebp], edx
	jmp	SHORT $LN10@Grow
$LN9@Grow:
	mov	eax, DWORD PTR _this$[ebp]
	mov	ecx, DWORD PTR [eax+16]
	mov	DWORD PTR tv129[ebp], ecx
$LN10@Grow:
	mov	edx, DWORD PTR tv129[ebp]
	push	edx
	push	1
	mov	ecx, DWORD PTR _this$[ebp]
	call	?_Tidy@?$basic_string@DU?$char_traits@D@std@@V?$allocator@D@2@@std@@QAEX_NI@Z ; std::basic_string<char,std::char_traits<char>,std::allocator<char> >::_Tidy
	jmp	SHORT $LN4@Grow
$LN3@Grow:

; 2231 : 		else if (_Newsize == 0)

	cmp	DWORD PTR __Newsize$[ebp], 0
	jne	SHORT $LN4@Grow

; 2232 : 			_Eos(0);	// new size is zero, just null terminate

	push	0
	mov	ecx, DWORD PTR _this$[ebp]
	call	?_Eos@?$basic_string@DU?$char_traits@D@std@@V?$allocator@D@2@@std@@QAEXI@Z ; std::basic_string<char,std::char_traits<char>,std::allocator<char> >::_Eos
$LN4@Grow:

; 2233 : 		return (0 < _Newsize);	// return true only if more work to do

	cmp	DWORD PTR __Newsize$[ebp], 0
	jbe	SHORT $LN11@Grow
	mov	DWORD PTR tv136[ebp], 1
	jmp	SHORT $LN12@Grow
$LN11@Grow:
	mov	DWORD PTR tv136[ebp], 0
$LN12@Grow:
	mov	al, BYTE PTR tv136[ebp]
$LN8@Grow:

; 2234 : 		}

	mov	esp, ebp
	pop	ebp
	ret	8
?_Grow@?$basic_string@DU?$char_traits@D@std@@V?$allocator@D@2@@std@@QAE_NI_N@Z ENDP ; std::basic_string<char,std::char_traits<char>,std::allocator<char> >::_Grow
_TEXT	ENDS
; Function compile flags: /Odtp
; File c:\program files (x86)\microsoft visual studio 11.0\vc\include\xstring
;	COMDAT ?_Eos@?$basic_string@DU?$char_traits@D@std@@V?$allocator@D@2@@std@@QAEXI@Z
_TEXT	SEGMENT
_this$ = -8						; size = 4
$T1 = -1						; size = 1
__Newsize$ = 8						; size = 4
?_Eos@?$basic_string@DU?$char_traits@D@std@@V?$allocator@D@2@@std@@QAEXI@Z PROC ; std::basic_string<char,std::char_traits<char>,std::allocator<char> >::_Eos, COMDAT
; _this$ = ecx

; 2217 : 		{	// set new length and null terminator

	push	ebp
	mov	ebp, esp
	sub	esp, 8
	mov	DWORD PTR _this$[ebp], ecx

; 2218 : 		_Traits::assign(this->_Myptr()[this->_Mysize = _Newsize], _Elem());

	mov	BYTE PTR $T1[ebp], 0
	mov	eax, DWORD PTR _this$[ebp]
	mov	ecx, DWORD PTR __Newsize$[ebp]
	mov	DWORD PTR [eax+16], ecx
	lea	edx, DWORD PTR $T1[ebp]
	push	edx
	mov	ecx, DWORD PTR _this$[ebp]
	call	?_Myptr@?$_String_val@U?$_Simple_types@D@std@@@std@@QAEPADXZ ; std::_String_val<std::_Simple_types<char> >::_Myptr
	add	eax, DWORD PTR __Newsize$[ebp]
	push	eax
	call	?assign@?$char_traits@D@std@@SAXAADABD@Z ; std::char_traits<char>::assign
	add	esp, 8

; 2219 : 		}

	mov	esp, ebp
	pop	ebp
	ret	4
?_Eos@?$basic_string@DU?$char_traits@D@std@@V?$allocator@D@2@@std@@QAEXI@Z ENDP ; std::basic_string<char,std::char_traits<char>,std::allocator<char> >::_Eos
_TEXT	ENDS
; Function compile flags: /Odtp
; File c:\program files (x86)\microsoft visual studio 11.0\vc\include\xstring
;	COMDAT ?_Copy@?$basic_string@DU?$char_traits@D@std@@V?$allocator@D@2@@std@@QAEXII@Z
_TEXT	SEGMENT
tv205 = -48						; size = 4
tv204 = -44						; size = 4
tv203 = -40						; size = 4
tv202 = -36						; size = 4
__Ptr$ = -32						; size = 4
__Newres$ = -28						; size = 4
_this$ = -24						; size = 4
$T2 = -19						; size = 1
$T3 = -18						; size = 1
$T4 = -17						; size = 1
__$EHRec$ = -16						; size = 16
__Newsize$ = 8						; size = 4
__Oldlen$ = 12						; size = 4
?_Copy@?$basic_string@DU?$char_traits@D@std@@V?$allocator@D@2@@std@@QAEXII@Z PROC ; std::basic_string<char,std::char_traits<char>,std::allocator<char> >::_Copy, COMDAT
; _this$ = ecx

; 2182 : 		{	// copy _Oldlen elements to newly allocated buffer

	push	ebp
	mov	ebp, esp
	push	-1
	push	__ehhandler$?_Copy@?$basic_string@DU?$char_traits@D@std@@V?$allocator@D@2@@std@@QAEXII@Z
	mov	eax, DWORD PTR fs:0
	push	eax
	push	ecx
	sub	esp, 32					; 00000020H
	push	ebx
	push	esi
	push	edi
	mov	eax, DWORD PTR ___security_cookie
	xor	eax, ebp
	push	eax
	lea	eax, DWORD PTR __$EHRec$[ebp+4]
	mov	DWORD PTR fs:0, eax
	mov	DWORD PTR __$EHRec$[ebp], esp
	mov	DWORD PTR _this$[ebp], ecx

; 2183 : 		size_type _Newres = _Newsize | this->_ALLOC_MASK;

	mov	eax, DWORD PTR __Newsize$[ebp]
	or	eax, 15					; 0000000fH
	mov	DWORD PTR __Newres$[ebp], eax

; 2184 : 		if (max_size() < _Newres)

	mov	ecx, DWORD PTR _this$[ebp]
	call	?max_size@?$basic_string@DU?$char_traits@D@std@@V?$allocator@D@2@@std@@QBEIXZ ; std::basic_string<char,std::char_traits<char>,std::allocator<char> >::max_size
	cmp	eax, DWORD PTR __Newres$[ebp]
	jae	SHORT $LN9@Copy

; 2185 : 			_Newres = _Newsize;	// undo roundup if too big

	mov	ecx, DWORD PTR __Newsize$[ebp]
	mov	DWORD PTR __Newres$[ebp], ecx
	jmp	SHORT $LN8@Copy
$LN9@Copy:

; 2186 : 		else if (this->_Myres / 2 <= _Newres / 3)

	mov	eax, DWORD PTR __Newres$[ebp]
	xor	edx, edx
	mov	ecx, 3
	div	ecx
	mov	edx, DWORD PTR _this$[ebp]
	mov	ecx, DWORD PTR [edx+20]
	shr	ecx, 1
	cmp	ecx, eax
	ja	SHORT $LN7@Copy
	jmp	SHORT $LN8@Copy
$LN7@Copy:

; 2187 : 			;
; 2188 : 		else if (this->_Myres <= max_size() - this->_Myres / 2)

	mov	edx, DWORD PTR _this$[ebp]
	mov	esi, DWORD PTR [edx+20]
	shr	esi, 1
	mov	ecx, DWORD PTR _this$[ebp]
	call	?max_size@?$basic_string@DU?$char_traits@D@std@@V?$allocator@D@2@@std@@QBEIXZ ; std::basic_string<char,std::char_traits<char>,std::allocator<char> >::max_size
	sub	eax, esi
	mov	ecx, DWORD PTR _this$[ebp]
	cmp	DWORD PTR [ecx+20], eax
	ja	SHORT $LN5@Copy

; 2189 : 			_Newres = this->_Myres
; 2190 : 				+ this->_Myres / 2;	// grow exponentially if possible

	mov	edx, DWORD PTR _this$[ebp]
	mov	eax, DWORD PTR [edx+20]
	shr	eax, 1
	mov	ecx, DWORD PTR _this$[ebp]
	add	eax, DWORD PTR [ecx+20]
	mov	DWORD PTR __Newres$[ebp], eax

; 2191 : 		else

	jmp	SHORT $LN8@Copy
$LN5@Copy:

; 2192 : 			_Newres = max_size();	// settle for max_size()

	mov	ecx, DWORD PTR _this$[ebp]
	call	?max_size@?$basic_string@DU?$char_traits@D@std@@V?$allocator@D@2@@std@@QBEIXZ ; std::basic_string<char,std::char_traits<char>,std::allocator<char> >::max_size
	mov	DWORD PTR __Newres$[ebp], eax
$LN8@Copy:

; 2193 : 
; 2194 : 		_Elem *_Ptr;
; 2195 : 		_TRY_BEGIN

	mov	DWORD PTR __$EHRec$[ebp+12], 0

; 2196 : 			_Ptr = this->_Getal().allocate(_Newres + 1);

	lea	edx, DWORD PTR $T4[ebp]
	push	edx
	mov	ecx, DWORD PTR _this$[ebp]
	call	?_Getal@?$_String_alloc@$0A@U?$_String_base_types@DV?$allocator@D@std@@@std@@@std@@QBE?AU?$_Wrap_alloc@V?$allocator@D@std@@@2@XZ ; std::_String_alloc<0,std::_String_base_types<char,std::allocator<char> > >::_Getal
	mov	DWORD PTR tv202[ebp], eax
	mov	eax, DWORD PTR __Newres$[ebp]
	add	eax, 1
	push	eax
	mov	ecx, DWORD PTR tv202[ebp]
	call	?allocate@?$_Wrap_alloc@V?$allocator@D@std@@@std@@QAEPADI@Z ; std::_Wrap_alloc<std::allocator<char> >::allocate
	mov	DWORD PTR tv203[ebp], eax
	mov	ecx, DWORD PTR tv203[ebp]
	mov	DWORD PTR __Ptr$[ebp], ecx
	jmp	SHORT $LN12@Copy
__catch$?_Copy@?$basic_string@DU?$char_traits@D@std@@V?$allocator@D@2@@std@@QAEXII@Z$0:

; 2197 : 		_CATCH_ALL

	mov	DWORD PTR __$EHRec$[ebp], esp

; 2198 : 			_Newres = _Newsize;	// allocation failed, undo roundup and retry

	mov	edx, DWORD PTR __Newsize$[ebp]
	mov	DWORD PTR __Newres$[ebp], edx

; 2199 : 			_TRY_BEGIN

	mov	BYTE PTR __$EHRec$[ebp+12], 2

; 2200 : 				_Ptr = this->_Getal().allocate(_Newres + 1);

	lea	eax, DWORD PTR $T3[ebp]
	push	eax
	mov	ecx, DWORD PTR _this$[ebp]
	call	?_Getal@?$_String_alloc@$0A@U?$_String_base_types@DV?$allocator@D@std@@@std@@@std@@QBE?AU?$_Wrap_alloc@V?$allocator@D@std@@@2@XZ ; std::_String_alloc<0,std::_String_base_types<char,std::allocator<char> > >::_Getal
	mov	DWORD PTR tv204[ebp], eax
	mov	ecx, DWORD PTR __Newres$[ebp]
	add	ecx, 1
	push	ecx
	mov	ecx, DWORD PTR tv204[ebp]
	call	?allocate@?$_Wrap_alloc@V?$allocator@D@std@@@std@@QAEPADI@Z ; std::_Wrap_alloc<std::allocator<char> >::allocate
	mov	DWORD PTR tv205[ebp], eax
	mov	edx, DWORD PTR tv205[ebp]
	mov	DWORD PTR __Ptr$[ebp], edx
	jmp	SHORT $LN14@Copy
__catch$?_Copy@?$basic_string@DU?$char_traits@D@std@@V?$allocator@D@2@@std@@QAEXII@Z$1:

; 2201 : 			_CATCH_ALL
; 2202 : 			_Tidy(true);	// failed again, discard storage and reraise

	push	0
	push	1
	mov	ecx, DWORD PTR _this$[ebp]
	call	?_Tidy@?$basic_string@DU?$char_traits@D@std@@V?$allocator@D@2@@std@@QAEX_NI@Z ; std::basic_string<char,std::char_traits<char>,std::allocator<char> >::_Tidy

; 2203 : 			_RERAISE;

	push	0
	push	0
	call	__CxxThrowException@8

; 2204 : 			_CATCH_END

	mov	eax, $LN17@Copy
	ret	0
$LN14@Copy:
	mov	DWORD PTR __$EHRec$[ebp+12], 1
	jmp	SHORT __tryend$?_Copy@?$basic_string@DU?$char_traits@D@std@@V?$allocator@D@2@@std@@QAEXII@Z$2
$LN17@Copy:
	mov	DWORD PTR __$EHRec$[ebp+12], 1
__tryend$?_Copy@?$basic_string@DU?$char_traits@D@std@@V?$allocator@D@2@@std@@QAEXII@Z$2:

; 2205 : 		_CATCH_END

	mov	eax, $LN19@Copy
	ret	0
$LN12@Copy:
	mov	DWORD PTR __$EHRec$[ebp+12], -1
	jmp	SHORT __tryend$?_Copy@?$basic_string@DU?$char_traits@D@std@@V?$allocator@D@2@@std@@QAEXII@Z$3
$LN19@Copy:
	mov	DWORD PTR __$EHRec$[ebp+12], -1
__tryend$?_Copy@?$basic_string@DU?$char_traits@D@std@@V?$allocator@D@2@@std@@QAEXII@Z$3:

; 2206 : 
; 2207 : 		if (0 < _Oldlen)

	cmp	DWORD PTR __Oldlen$[ebp], 0
	jbe	SHORT $LN1@Copy

; 2208 : 			_Traits::copy(_Ptr, this->_Myptr(),
; 2209 : 				_Oldlen);	// copy existing elements

	mov	eax, DWORD PTR __Oldlen$[ebp]
	push	eax
	mov	ecx, DWORD PTR _this$[ebp]
	call	?_Myptr@?$_String_val@U?$_Simple_types@D@std@@@std@@QAEPADXZ ; std::_String_val<std::_Simple_types<char> >::_Myptr
	push	eax
	mov	ecx, DWORD PTR __Ptr$[ebp]
	push	ecx
	call	?copy@?$char_traits@D@std@@SAPADPADPBDI@Z ; std::char_traits<char>::copy
	add	esp, 12					; 0000000cH
$LN1@Copy:

; 2210 : 		_Tidy(true);

	push	0
	push	1
	mov	ecx, DWORD PTR _this$[ebp]
	call	?_Tidy@?$basic_string@DU?$char_traits@D@std@@V?$allocator@D@2@@std@@QAEX_NI@Z ; std::basic_string<char,std::char_traits<char>,std::allocator<char> >::_Tidy

; 2211 : 		this->_Getal().construct(&this->_Bx._Ptr, _Ptr);

	lea	edx, DWORD PTR __Ptr$[ebp]
	push	edx
	mov	eax, DWORD PTR _this$[ebp]
	push	eax
	lea	ecx, DWORD PTR $T2[ebp]
	push	ecx
	mov	ecx, DWORD PTR _this$[ebp]
	call	?_Getal@?$_String_alloc@$0A@U?$_String_base_types@DV?$allocator@D@std@@@std@@@std@@QBE?AU?$_Wrap_alloc@V?$allocator@D@std@@@2@XZ ; std::_String_alloc<0,std::_String_base_types<char,std::allocator<char> > >::_Getal
	mov	ecx, eax
	call	??$construct@PADAAPAD@?$_Wrap_alloc@V?$allocator@D@std@@@std@@QAEXPAPADAAPAD@Z ; std::_Wrap_alloc<std::allocator<char> >::construct<char *,char * &>

; 2212 : 		this->_Myres = _Newres;

	mov	edx, DWORD PTR _this$[ebp]
	mov	eax, DWORD PTR __Newres$[ebp]
	mov	DWORD PTR [edx+20], eax

; 2213 : 		_Eos(_Oldlen);

	mov	ecx, DWORD PTR __Oldlen$[ebp]
	push	ecx
	mov	ecx, DWORD PTR _this$[ebp]
	call	?_Eos@?$basic_string@DU?$char_traits@D@std@@V?$allocator@D@2@@std@@QAEXI@Z ; std::basic_string<char,std::char_traits<char>,std::allocator<char> >::_Eos
$LN11@Copy:

; 2214 : 		}

	mov	ecx, DWORD PTR __$EHRec$[ebp+4]
	mov	DWORD PTR fs:0, ecx
	pop	ecx
	pop	edi
	pop	esi
	pop	ebx
	mov	esp, ebp
	pop	ebp
	ret	8
_TEXT	ENDS
;	COMDAT text$x
text$x	SEGMENT
__ehhandler$?_Copy@?$basic_string@DU?$char_traits@D@std@@V?$allocator@D@2@@std@@QAEXII@Z:
	mov	edx, DWORD PTR [esp+8]
	lea	eax, DWORD PTR [edx+12]
	mov	ecx, DWORD PTR [edx-52]
	xor	ecx, eax
	call	@__security_check_cookie@4
	mov	eax, OFFSET __ehfuncinfo$?_Copy@?$basic_string@DU?$char_traits@D@std@@V?$allocator@D@2@@std@@QAEXII@Z
	jmp	___CxxFrameHandler3
text$x	ENDS
?_Copy@?$basic_string@DU?$char_traits@D@std@@V?$allocator@D@2@@std@@QAEXII@Z ENDP ; std::basic_string<char,std::char_traits<char>,std::allocator<char> >::_Copy
; Function compile flags: /Odtp
; File c:\program files (x86)\microsoft visual studio 11.0\vc\include\xstring
;	COMDAT ?max_size@?$basic_string@DU?$char_traits@D@std@@V?$allocator@D@2@@std@@QBEIXZ
_TEXT	SEGMENT
_this$ = -16						; size = 4
tv75 = -12						; size = 4
__Num$ = -8						; size = 4
$T1 = -1						; size = 1
?max_size@?$basic_string@DU?$char_traits@D@std@@V?$allocator@D@2@@std@@QBEIXZ PROC ; std::basic_string<char,std::char_traits<char>,std::allocator<char> >::max_size, COMDAT
; _this$ = ecx

; 1737 : 		{	// return maximum possible length of sequence

	push	ebp
	mov	ebp, esp
	sub	esp, 16					; 00000010H
	mov	DWORD PTR _this$[ebp], ecx

; 1738 : 		size_type _Num = this->_Getal().max_size();

	lea	eax, DWORD PTR $T1[ebp]
	push	eax
	mov	ecx, DWORD PTR _this$[ebp]
	call	?_Getal@?$_String_alloc@$0A@U?$_String_base_types@DV?$allocator@D@std@@@std@@@std@@QBE?AU?$_Wrap_alloc@V?$allocator@D@std@@@2@XZ ; std::_String_alloc<0,std::_String_base_types<char,std::allocator<char> > >::_Getal
	mov	ecx, eax
	call	?max_size@?$_Wrap_alloc@V?$allocator@D@std@@@std@@QBEIXZ ; std::_Wrap_alloc<std::allocator<char> >::max_size
	mov	DWORD PTR __Num$[ebp], eax

; 1739 : 		return (_Num <= 1 ? 1 : _Num - 1);

	cmp	DWORD PTR __Num$[ebp], 1
	ja	SHORT $LN3@max_size
	mov	DWORD PTR tv75[ebp], 1
	jmp	SHORT $LN4@max_size
$LN3@max_size:
	mov	ecx, DWORD PTR __Num$[ebp]
	sub	ecx, 1
	mov	DWORD PTR tv75[ebp], ecx
$LN4@max_size:
	mov	eax, DWORD PTR tv75[ebp]

; 1740 : 		}

	mov	esp, ebp
	pop	ebp
	ret	0
?max_size@?$basic_string@DU?$char_traits@D@std@@V?$allocator@D@2@@std@@QBEIXZ ENDP ; std::basic_string<char,std::char_traits<char>,std::allocator<char> >::max_size
_TEXT	ENDS
; Function compile flags: /Odtp
; File c:\program files (x86)\microsoft visual studio 11.0\vc\include\xstring
;	COMDAT ?size@?$basic_string@DU?$char_traits@D@std@@V?$allocator@D@2@@std@@QBEIXZ
_TEXT	SEGMENT
_this$ = -4						; size = 4
?size@?$basic_string@DU?$char_traits@D@std@@V?$allocator@D@2@@std@@QBEIXZ PROC ; std::basic_string<char,std::char_traits<char>,std::allocator<char> >::size, COMDAT
; _this$ = ecx

; 1732 : 		{	// return length of sequence

	push	ebp
	mov	ebp, esp
	push	ecx
	mov	DWORD PTR _this$[ebp], ecx

; 1733 : 		return (this->_Mysize);

	mov	eax, DWORD PTR _this$[ebp]
	mov	eax, DWORD PTR [eax+16]

; 1734 : 		}

	mov	esp, ebp
	pop	ebp
	ret	0
?size@?$basic_string@DU?$char_traits@D@std@@V?$allocator@D@2@@std@@QBEIXZ ENDP ; std::basic_string<char,std::char_traits<char>,std::allocator<char> >::size
_TEXT	ENDS
; Function compile flags: /Odtp
; File c:\program files (x86)\microsoft visual studio 11.0\vc\include\xstring
;	COMDAT ?erase@?$basic_string@DU?$char_traits@D@std@@V?$allocator@D@2@@std@@QAEAAV12@II@Z
_TEXT	SEGMENT
__Newsize$1 = -12					; size = 4
__Ptr$2 = -8						; size = 4
_this$ = -4						; size = 4
__Off$ = 8						; size = 4
__Count$ = 12						; size = 4
?erase@?$basic_string@DU?$char_traits@D@std@@V?$allocator@D@2@@std@@QAEAAV12@II@Z PROC ; std::basic_string<char,std::char_traits<char>,std::allocator<char> >::erase, COMDAT
; _this$ = ecx

; 1317 : 		{	// erase elements [_Off, _Off + _Count)

	push	ebp
	mov	ebp, esp
	sub	esp, 12					; 0000000cH
	mov	DWORD PTR _this$[ebp], ecx

; 1318 : 		if (this->_Mysize < _Off)

	mov	eax, DWORD PTR _this$[ebp]
	mov	ecx, DWORD PTR [eax+16]
	cmp	ecx, DWORD PTR __Off$[ebp]
	jae	SHORT $LN4@erase

; 1319 : 			_Xran();	// _Off off end

	mov	ecx, DWORD PTR _this$[ebp]
	call	?_Xran@?$basic_string@DU?$char_traits@D@std@@V?$allocator@D@2@@std@@QBEXXZ ; std::basic_string<char,std::char_traits<char>,std::allocator<char> >::_Xran
$LN4@erase:

; 1320 : 		if (this->_Mysize - _Off <= _Count)

	mov	edx, DWORD PTR _this$[ebp]
	mov	eax, DWORD PTR [edx+16]
	sub	eax, DWORD PTR __Off$[ebp]
	cmp	eax, DWORD PTR __Count$[ebp]
	ja	SHORT $LN3@erase

; 1321 : 			_Eos(_Off);	// erase elements [_Off, ...)

	mov	ecx, DWORD PTR __Off$[ebp]
	push	ecx
	mov	ecx, DWORD PTR _this$[ebp]
	call	?_Eos@?$basic_string@DU?$char_traits@D@std@@V?$allocator@D@2@@std@@QAEXI@Z ; std::basic_string<char,std::char_traits<char>,std::allocator<char> >::_Eos
	jmp	SHORT $LN2@erase
$LN3@erase:

; 1322 : 		else if (0 < _Count)

	cmp	DWORD PTR __Count$[ebp], 0
	jbe	SHORT $LN2@erase

; 1323 : 			{	// move elements down
; 1324 : 			value_type *_Ptr = this->_Myptr() + _Off;

	mov	ecx, DWORD PTR _this$[ebp]
	call	?_Myptr@?$_String_val@U?$_Simple_types@D@std@@@std@@QAEPADXZ ; std::_String_val<std::_Simple_types<char> >::_Myptr
	add	eax, DWORD PTR __Off$[ebp]
	mov	DWORD PTR __Ptr$2[ebp], eax

; 1325 : 			size_type _Newsize = this->_Mysize - _Count;

	mov	edx, DWORD PTR _this$[ebp]
	mov	eax, DWORD PTR [edx+16]
	sub	eax, DWORD PTR __Count$[ebp]
	mov	DWORD PTR __Newsize$1[ebp], eax

; 1326 : 			_Traits::move(_Ptr, _Ptr + _Count, _Newsize - _Off);

	mov	ecx, DWORD PTR __Newsize$1[ebp]
	sub	ecx, DWORD PTR __Off$[ebp]
	push	ecx
	mov	edx, DWORD PTR __Ptr$2[ebp]
	add	edx, DWORD PTR __Count$[ebp]
	push	edx
	mov	eax, DWORD PTR __Ptr$2[ebp]
	push	eax
	call	?move@?$char_traits@D@std@@SAPADPADPBDI@Z ; std::char_traits<char>::move
	add	esp, 12					; 0000000cH

; 1327 : 			_Eos(_Newsize);

	mov	ecx, DWORD PTR __Newsize$1[ebp]
	push	ecx
	mov	ecx, DWORD PTR _this$[ebp]
	call	?_Eos@?$basic_string@DU?$char_traits@D@std@@V?$allocator@D@2@@std@@QAEXI@Z ; std::basic_string<char,std::char_traits<char>,std::allocator<char> >::_Eos
$LN2@erase:

; 1328 : 			}
; 1329 : 		return (*this);

	mov	eax, DWORD PTR _this$[ebp]
$LN6@erase:

; 1330 : 		}

	mov	esp, ebp
	pop	ebp
	ret	8
?erase@?$basic_string@DU?$char_traits@D@std@@V?$allocator@D@2@@std@@QAEAAV12@II@Z ENDP ; std::basic_string<char,std::char_traits<char>,std::allocator<char> >::erase
_TEXT	ENDS
; Function compile flags: /Odtp
; File c:\program files (x86)\microsoft visual studio 11.0\vc\include\xstring
;	COMDAT ?erase@?$basic_string@DU?$char_traits@D@std@@V?$allocator@D@2@@std@@QAEAAV12@I@Z
_TEXT	SEGMENT
_this$ = -4						; size = 4
__Off$ = 8						; size = 4
?erase@?$basic_string@DU?$char_traits@D@std@@V?$allocator@D@2@@std@@QAEAAV12@I@Z PROC ; std::basic_string<char,std::char_traits<char>,std::allocator<char> >::erase, COMDAT
; _this$ = ecx

; 1309 : 		{	// erase elements [_Off, ...)

	push	ebp
	mov	ebp, esp
	push	ecx
	mov	DWORD PTR _this$[ebp], ecx

; 1310 : 		if (this->_Mysize < _Off)

	mov	eax, DWORD PTR _this$[ebp]
	mov	ecx, DWORD PTR [eax+16]
	cmp	ecx, DWORD PTR __Off$[ebp]
	jae	SHORT $LN1@erase

; 1311 : 			_Xran();	// _Off off end

	mov	ecx, DWORD PTR _this$[ebp]
	call	?_Xran@?$basic_string@DU?$char_traits@D@std@@V?$allocator@D@2@@std@@QBEXXZ ; std::basic_string<char,std::char_traits<char>,std::allocator<char> >::_Xran
$LN1@erase:

; 1312 : 		_Eos(_Off);

	mov	edx, DWORD PTR __Off$[ebp]
	push	edx
	mov	ecx, DWORD PTR _this$[ebp]
	call	?_Eos@?$basic_string@DU?$char_traits@D@std@@V?$allocator@D@2@@std@@QAEXI@Z ; std::basic_string<char,std::char_traits<char>,std::allocator<char> >::_Eos

; 1313 : 		return (*this);

	mov	eax, DWORD PTR _this$[ebp]
$LN3@erase:

; 1314 : 		}

	mov	esp, ebp
	pop	ebp
	ret	4
?erase@?$basic_string@DU?$char_traits@D@std@@V?$allocator@D@2@@std@@QAEAAV12@I@Z ENDP ; std::basic_string<char,std::char_traits<char>,std::allocator<char> >::erase
_TEXT	ENDS
; Function compile flags: /Odtp
; File c:\program files (x86)\microsoft visual studio 11.0\vc\include\xstring
;	COMDAT ?assign@?$basic_string@DU?$char_traits@D@std@@V?$allocator@D@2@@std@@QAEAAV12@PBD@Z
_TEXT	SEGMENT
_this$ = -4						; size = 4
__Ptr$ = 8						; size = 4
?assign@?$basic_string@DU?$char_traits@D@std@@V?$allocator@D@2@@std@@QAEAAV12@PBD@Z PROC ; std::basic_string<char,std::char_traits<char>,std::allocator<char> >::assign, COMDAT
; _this$ = ecx

; 1142 : 		{	// assign [_Ptr, <null>)

	push	ebp
	mov	ebp, esp
	push	ecx
	mov	DWORD PTR _this$[ebp], ecx

; 1143 : 		_DEBUG_POINTER(_Ptr);
; 1144 : 		return (assign(_Ptr, _Traits::length(_Ptr)));

	mov	eax, DWORD PTR __Ptr$[ebp]
	push	eax
	call	?length@?$char_traits@D@std@@SAIPBD@Z	; std::char_traits<char>::length
	add	esp, 4
	push	eax
	mov	ecx, DWORD PTR __Ptr$[ebp]
	push	ecx
	mov	ecx, DWORD PTR _this$[ebp]
	call	?assign@?$basic_string@DU?$char_traits@D@std@@V?$allocator@D@2@@std@@QAEAAV12@PBDI@Z ; std::basic_string<char,std::char_traits<char>,std::allocator<char> >::assign

; 1145 : 		}

	mov	esp, ebp
	pop	ebp
	ret	4
?assign@?$basic_string@DU?$char_traits@D@std@@V?$allocator@D@2@@std@@QAEAAV12@PBD@Z ENDP ; std::basic_string<char,std::char_traits<char>,std::allocator<char> >::assign
_TEXT	ENDS
; Function compile flags: /Odtp
; File c:\program files (x86)\microsoft visual studio 11.0\vc\include\xstring
;	COMDAT ?assign@?$basic_string@DU?$char_traits@D@std@@V?$allocator@D@2@@std@@QAEAAV12@PBDI@Z
_TEXT	SEGMENT
_this$ = -4						; size = 4
__Ptr$ = 8						; size = 4
__Count$ = 12						; size = 4
?assign@?$basic_string@DU?$char_traits@D@std@@V?$allocator@D@2@@std@@QAEAAV12@PBDI@Z PROC ; std::basic_string<char,std::char_traits<char>,std::allocator<char> >::assign, COMDAT
; _this$ = ecx

; 1123 : 		{	// assign [_Ptr, _Ptr + _Count)

	push	ebp
	mov	ebp, esp
	push	ecx
	mov	DWORD PTR _this$[ebp], ecx

; 1124 :  #if _ITERATOR_DEBUG_LEVEL == 2
; 1125 : 		if (_Count != 0)
; 1126 : 			_DEBUG_POINTER(_Ptr);
; 1127 :  #endif /* _ITERATOR_DEBUG_LEVEL == 2 */
; 1128 : 
; 1129 : 		if (_Inside(_Ptr))

	mov	eax, DWORD PTR __Ptr$[ebp]
	push	eax
	mov	ecx, DWORD PTR _this$[ebp]
	call	?_Inside@?$basic_string@DU?$char_traits@D@std@@V?$allocator@D@2@@std@@QAE_NPBD@Z ; std::basic_string<char,std::char_traits<char>,std::allocator<char> >::_Inside
	movzx	ecx, al
	test	ecx, ecx
	je	SHORT $LN2@assign

; 1130 : 			return (assign(*this,
; 1131 : 				_Ptr - this->_Myptr(), _Count));	// substring

	mov	edx, DWORD PTR __Count$[ebp]
	push	edx
	mov	ecx, DWORD PTR _this$[ebp]
	call	?_Myptr@?$_String_val@U?$_Simple_types@D@std@@@std@@QAEPADXZ ; std::_String_val<std::_Simple_types<char> >::_Myptr
	mov	ecx, DWORD PTR __Ptr$[ebp]
	sub	ecx, eax
	push	ecx
	mov	edx, DWORD PTR _this$[ebp]
	push	edx
	mov	ecx, DWORD PTR _this$[ebp]
	call	?assign@?$basic_string@DU?$char_traits@D@std@@V?$allocator@D@2@@std@@QAEAAV12@ABV12@II@Z ; std::basic_string<char,std::char_traits<char>,std::allocator<char> >::assign
	jmp	SHORT $LN3@assign
$LN2@assign:

; 1132 : 
; 1133 : 		if (_Grow(_Count))

	push	0
	mov	eax, DWORD PTR __Count$[ebp]
	push	eax
	mov	ecx, DWORD PTR _this$[ebp]
	call	?_Grow@?$basic_string@DU?$char_traits@D@std@@V?$allocator@D@2@@std@@QAE_NI_N@Z ; std::basic_string<char,std::char_traits<char>,std::allocator<char> >::_Grow
	movzx	ecx, al
	test	ecx, ecx
	je	SHORT $LN1@assign

; 1134 : 			{	// make room and assign new stuff
; 1135 : 			_Traits::copy(this->_Myptr(), _Ptr, _Count);

	mov	edx, DWORD PTR __Count$[ebp]
	push	edx
	mov	eax, DWORD PTR __Ptr$[ebp]
	push	eax
	mov	ecx, DWORD PTR _this$[ebp]
	call	?_Myptr@?$_String_val@U?$_Simple_types@D@std@@@std@@QAEPADXZ ; std::_String_val<std::_Simple_types<char> >::_Myptr
	push	eax
	call	?copy@?$char_traits@D@std@@SAPADPADPBDI@Z ; std::char_traits<char>::copy
	add	esp, 12					; 0000000cH

; 1136 : 			_Eos(_Count);

	mov	ecx, DWORD PTR __Count$[ebp]
	push	ecx
	mov	ecx, DWORD PTR _this$[ebp]
	call	?_Eos@?$basic_string@DU?$char_traits@D@std@@V?$allocator@D@2@@std@@QAEXI@Z ; std::basic_string<char,std::char_traits<char>,std::allocator<char> >::_Eos
$LN1@assign:

; 1137 : 			}
; 1138 : 		return (*this);

	mov	eax, DWORD PTR _this$[ebp]
$LN3@assign:

; 1139 : 		}

	mov	esp, ebp
	pop	ebp
	ret	8
?assign@?$basic_string@DU?$char_traits@D@std@@V?$allocator@D@2@@std@@QAEAAV12@PBDI@Z ENDP ; std::basic_string<char,std::char_traits<char>,std::allocator<char> >::assign
_TEXT	ENDS
; Function compile flags: /Odtp
; File c:\program files (x86)\microsoft visual studio 11.0\vc\include\xstring
;	COMDAT ?assign@?$basic_string@DU?$char_traits@D@std@@V?$allocator@D@2@@std@@QAEAAV12@ABV12@II@Z
_TEXT	SEGMENT
__Num$ = -8						; size = 4
_this$ = -4						; size = 4
__Right$ = 8						; size = 4
__Roff$ = 12						; size = 4
__Count$ = 16						; size = 4
?assign@?$basic_string@DU?$char_traits@D@std@@V?$allocator@D@2@@std@@QAEAAV12@ABV12@II@Z PROC ; std::basic_string<char,std::char_traits<char>,std::allocator<char> >::assign, COMDAT
; _this$ = ecx

; 1104 : 		{	// assign _Right [_Roff, _Roff + _Count)

	push	ebp
	mov	ebp, esp
	sub	esp, 8
	mov	DWORD PTR _this$[ebp], ecx

; 1105 : 		if (_Right.size() < _Roff)

	mov	ecx, DWORD PTR __Right$[ebp]
	call	?size@?$basic_string@DU?$char_traits@D@std@@V?$allocator@D@2@@std@@QBEIXZ ; std::basic_string<char,std::char_traits<char>,std::allocator<char> >::size
	cmp	eax, DWORD PTR __Roff$[ebp]
	jae	SHORT $LN5@assign

; 1106 : 			_Xran();	// _Roff off end

	mov	ecx, DWORD PTR _this$[ebp]
	call	?_Xran@?$basic_string@DU?$char_traits@D@std@@V?$allocator@D@2@@std@@QBEXXZ ; std::basic_string<char,std::char_traits<char>,std::allocator<char> >::_Xran
$LN5@assign:

; 1107 : 		size_type _Num = _Right.size() - _Roff;

	mov	ecx, DWORD PTR __Right$[ebp]
	call	?size@?$basic_string@DU?$char_traits@D@std@@V?$allocator@D@2@@std@@QBEIXZ ; std::basic_string<char,std::char_traits<char>,std::allocator<char> >::size
	sub	eax, DWORD PTR __Roff$[ebp]
	mov	DWORD PTR __Num$[ebp], eax

; 1108 : 		if (_Count < _Num)

	mov	eax, DWORD PTR __Count$[ebp]
	cmp	eax, DWORD PTR __Num$[ebp]
	jae	SHORT $LN4@assign

; 1109 : 			_Num = _Count;	// trim _Num to size

	mov	ecx, DWORD PTR __Count$[ebp]
	mov	DWORD PTR __Num$[ebp], ecx
$LN4@assign:

; 1110 : 
; 1111 : 		if (this == &_Right)

	mov	edx, DWORD PTR _this$[ebp]
	cmp	edx, DWORD PTR __Right$[ebp]
	jne	SHORT $LN3@assign

; 1112 : 			erase((size_type)(_Roff + _Num)), erase(0, _Roff);	// substring

	mov	eax, DWORD PTR __Roff$[ebp]
	add	eax, DWORD PTR __Num$[ebp]
	push	eax
	mov	ecx, DWORD PTR _this$[ebp]
	call	?erase@?$basic_string@DU?$char_traits@D@std@@V?$allocator@D@2@@std@@QAEAAV12@I@Z ; std::basic_string<char,std::char_traits<char>,std::allocator<char> >::erase
	mov	ecx, DWORD PTR __Roff$[ebp]
	push	ecx
	push	0
	mov	ecx, DWORD PTR _this$[ebp]
	call	?erase@?$basic_string@DU?$char_traits@D@std@@V?$allocator@D@2@@std@@QAEAAV12@II@Z ; std::basic_string<char,std::char_traits<char>,std::allocator<char> >::erase
	jmp	SHORT $LN2@assign
$LN3@assign:

; 1113 : 		else if (_Grow(_Num))

	push	0
	mov	edx, DWORD PTR __Num$[ebp]
	push	edx
	mov	ecx, DWORD PTR _this$[ebp]
	call	?_Grow@?$basic_string@DU?$char_traits@D@std@@V?$allocator@D@2@@std@@QAE_NI_N@Z ; std::basic_string<char,std::char_traits<char>,std::allocator<char> >::_Grow
	movzx	eax, al
	test	eax, eax
	je	SHORT $LN2@assign

; 1114 : 			{	// make room and assign new stuff
; 1115 : 			_Traits::copy(this->_Myptr(),
; 1116 : 				_Right._Myptr() + _Roff, _Num);

	mov	ecx, DWORD PTR __Num$[ebp]
	push	ecx
	mov	ecx, DWORD PTR __Right$[ebp]
	call	?_Myptr@?$_String_val@U?$_Simple_types@D@std@@@std@@QBEPBDXZ ; std::_String_val<std::_Simple_types<char> >::_Myptr
	add	eax, DWORD PTR __Roff$[ebp]
	push	eax
	mov	ecx, DWORD PTR _this$[ebp]
	call	?_Myptr@?$_String_val@U?$_Simple_types@D@std@@@std@@QAEPADXZ ; std::_String_val<std::_Simple_types<char> >::_Myptr
	push	eax
	call	?copy@?$char_traits@D@std@@SAPADPADPBDI@Z ; std::char_traits<char>::copy
	add	esp, 12					; 0000000cH

; 1117 : 			_Eos(_Num);

	mov	edx, DWORD PTR __Num$[ebp]
	push	edx
	mov	ecx, DWORD PTR _this$[ebp]
	call	?_Eos@?$basic_string@DU?$char_traits@D@std@@V?$allocator@D@2@@std@@QAEXI@Z ; std::basic_string<char,std::char_traits<char>,std::allocator<char> >::_Eos
$LN2@assign:

; 1118 : 			}
; 1119 : 		return (*this);

	mov	eax, DWORD PTR _this$[ebp]
$LN7@assign:

; 1120 : 		}

	mov	esp, ebp
	pop	ebp
	ret	12					; 0000000cH
?assign@?$basic_string@DU?$char_traits@D@std@@V?$allocator@D@2@@std@@QAEAAV12@ABV12@II@Z ENDP ; std::basic_string<char,std::char_traits<char>,std::allocator<char> >::assign
_TEXT	ENDS
; Function compile flags: /Odtp
; File c:\program files (x86)\microsoft visual studio 11.0\vc\include\xstring
;	COMDAT ??0?$basic_string@DU?$char_traits@D@std@@V?$allocator@D@2@@std@@QAE@PBD@Z
_TEXT	SEGMENT
_this$ = -8						; size = 4
$T1 = -1						; size = 1
__Ptr$ = 8						; size = 4
??0?$basic_string@DU?$char_traits@D@std@@V?$allocator@D@2@@std@@QAE@PBD@Z PROC ; std::basic_string<char,std::char_traits<char>,std::allocator<char> >::basic_string<char,std::char_traits<char>,std::allocator<char> >, COMDAT
; _this$ = ecx

; 791  : 		{	// construct from [_Ptr, <null>)

	push	ebp
	mov	ebp, esp
	sub	esp, 8
	mov	DWORD PTR _this$[ebp], ecx
	lea	ecx, DWORD PTR $T1[ebp]
	call	??0?$allocator@D@std@@QAE@XZ		; std::allocator<char>::allocator<char>
	push	eax
	mov	ecx, DWORD PTR _this$[ebp]
	call	??0?$_String_alloc@$0A@U?$_String_base_types@DV?$allocator@D@std@@@std@@@std@@QAE@ABV?$allocator@D@1@@Z ; std::_String_alloc<0,std::_String_base_types<char,std::allocator<char> > >::_String_alloc<0,std::_String_base_types<char,std::allocator<char> > >

; 792  : 		_Tidy();

	push	0
	push	0
	mov	ecx, DWORD PTR _this$[ebp]
	call	?_Tidy@?$basic_string@DU?$char_traits@D@std@@V?$allocator@D@2@@std@@QAEX_NI@Z ; std::basic_string<char,std::char_traits<char>,std::allocator<char> >::_Tidy

; 793  : 		assign(_Ptr);

	mov	eax, DWORD PTR __Ptr$[ebp]
	push	eax
	mov	ecx, DWORD PTR _this$[ebp]
	call	?assign@?$basic_string@DU?$char_traits@D@std@@V?$allocator@D@2@@std@@QAEAAV12@PBD@Z ; std::basic_string<char,std::char_traits<char>,std::allocator<char> >::assign

; 794  : 		}

	mov	eax, DWORD PTR _this$[ebp]
	mov	esp, ebp
	pop	ebp
	ret	4
??0?$basic_string@DU?$char_traits@D@std@@V?$allocator@D@2@@std@@QAE@PBD@Z ENDP ; std::basic_string<char,std::char_traits<char>,std::allocator<char> >::basic_string<char,std::char_traits<char>,std::allocator<char> >
_TEXT	ENDS
; Function compile flags: /Odtp
; File c:\program files (x86)\microsoft visual studio 11.0\vc\include\xstring
;	COMDAT ?_Getal@?$_String_alloc@$0A@U?$_String_base_types@DV?$allocator@D@std@@@std@@@std@@QBE?AU?$_Wrap_alloc@V?$allocator@D@std@@@2@XZ
_TEXT	SEGMENT
_this$ = -4						; size = 4
___$ReturnUdt$ = 8					; size = 4
?_Getal@?$_String_alloc@$0A@U?$_String_base_types@DV?$allocator@D@std@@@std@@@std@@QBE?AU?$_Wrap_alloc@V?$allocator@D@std@@@2@XZ PROC ; std::_String_alloc<0,std::_String_base_types<char,std::allocator<char> > >::_Getal, COMDAT
; _this$ = ecx

; 688  : 		{	// get reference to allocator

	push	ebp
	mov	ebp, esp
	push	ecx
	mov	DWORD PTR _this$[ebp], ecx

; 689  : 		return (_Alty());

	mov	ecx, DWORD PTR ___$ReturnUdt$[ebp]
	call	??0?$_Wrap_alloc@V?$allocator@D@std@@@std@@QAE@XZ ; std::_Wrap_alloc<std::allocator<char> >::_Wrap_alloc<std::allocator<char> >
	mov	eax, DWORD PTR ___$ReturnUdt$[ebp]

; 690  : 		}

	mov	esp, ebp
	pop	ebp
	ret	4
?_Getal@?$_String_alloc@$0A@U?$_String_base_types@DV?$allocator@D@std@@@std@@@std@@QBE?AU?$_Wrap_alloc@V?$allocator@D@std@@@2@XZ ENDP ; std::_String_alloc<0,std::_String_base_types<char,std::allocator<char> > >::_Getal
_TEXT	ENDS
; Function compile flags: /Odtp
; File c:\program files (x86)\microsoft visual studio 11.0\vc\include\xstring
;	COMDAT ??0?$_String_alloc@$0A@U?$_String_base_types@DV?$allocator@D@std@@@std@@@std@@QAE@ABV?$allocator@D@1@@Z
_TEXT	SEGMENT
_this$ = -4						; size = 4
___formal$ = 8						; size = 4
??0?$_String_alloc@$0A@U?$_String_base_types@DV?$allocator@D@std@@@std@@@std@@QAE@ABV?$allocator@D@1@@Z PROC ; std::_String_alloc<0,std::_String_base_types<char,std::allocator<char> > >::_String_alloc<0,std::_String_base_types<char,std::allocator<char> > >, COMDAT
; _this$ = ecx

; 635  : 	_String_alloc(const _Alloc& = _Alloc())

	push	ebp
	mov	ebp, esp
	push	ecx
	mov	DWORD PTR _this$[ebp], ecx
	mov	ecx, DWORD PTR _this$[ebp]
	call	??0?$_String_val@U?$_Simple_types@D@std@@@std@@QAE@XZ ; std::_String_val<std::_Simple_types<char> >::_String_val<std::_Simple_types<char> >

; 636  : 		{	// construct allocator from _Al
; 637  : 		}

	mov	eax, DWORD PTR _this$[ebp]
	mov	esp, ebp
	pop	ebp
	ret	4
??0?$_String_alloc@$0A@U?$_String_base_types@DV?$allocator@D@std@@@std@@@std@@QAE@ABV?$allocator@D@1@@Z ENDP ; std::_String_alloc<0,std::_String_base_types<char,std::allocator<char> > >::_String_alloc<0,std::_String_base_types<char,std::allocator<char> > >
_TEXT	ENDS
; Function compile flags: /Odtp
; File c:\program files (x86)\microsoft visual studio 11.0\vc\include\xstring
;	COMDAT ?_Myptr@?$_String_val@U?$_Simple_types@D@std@@@std@@QBEPBDXZ
_TEXT	SEGMENT
tv72 = -8						; size = 4
_this$ = -4						; size = 4
?_Myptr@?$_String_val@U?$_Simple_types@D@std@@@std@@QBEPBDXZ PROC ; std::_String_val<std::_Simple_types<char> >::_Myptr, COMDAT
; _this$ = ecx

; 521  : 		{	// determine current pointer to buffer for nonmutable string

	push	ebp
	mov	ebp, esp
	sub	esp, 8
	mov	DWORD PTR _this$[ebp], ecx

; 522  : 		return (this->_BUF_SIZE <= this->_Myres
; 523  : 			? _STD addressof(*this->_Bx._Ptr)
; 524  : 			: this->_Bx._Buf);

	mov	eax, DWORD PTR _this$[ebp]
	cmp	DWORD PTR [eax+20], 16			; 00000010H
	jb	SHORT $LN3@Myptr
	mov	ecx, DWORD PTR _this$[ebp]
	mov	edx, DWORD PTR [ecx]
	push	edx
	call	??$addressof@D@std@@YAPADAAD@Z		; std::addressof<char>
	add	esp, 4
	mov	DWORD PTR tv72[ebp], eax
	jmp	SHORT $LN4@Myptr
$LN3@Myptr:
	mov	eax, DWORD PTR _this$[ebp]
	mov	DWORD PTR tv72[ebp], eax
$LN4@Myptr:
	mov	eax, DWORD PTR tv72[ebp]

; 525  : 		}

	mov	esp, ebp
	pop	ebp
	ret	0
?_Myptr@?$_String_val@U?$_Simple_types@D@std@@@std@@QBEPBDXZ ENDP ; std::_String_val<std::_Simple_types<char> >::_Myptr
_TEXT	ENDS
; Function compile flags: /Odtp
; File c:\program files (x86)\microsoft visual studio 11.0\vc\include\xstring
;	COMDAT ?_Myptr@?$_String_val@U?$_Simple_types@D@std@@@std@@QAEPADXZ
_TEXT	SEGMENT
tv72 = -8						; size = 4
_this$ = -4						; size = 4
?_Myptr@?$_String_val@U?$_Simple_types@D@std@@@std@@QAEPADXZ PROC ; std::_String_val<std::_Simple_types<char> >::_Myptr, COMDAT
; _this$ = ecx

; 514  : 		{	// determine current pointer to buffer for mutable string

	push	ebp
	mov	ebp, esp
	sub	esp, 8
	mov	DWORD PTR _this$[ebp], ecx

; 515  : 		return (this->_BUF_SIZE <= this->_Myres
; 516  : 			? _STD addressof(*this->_Bx._Ptr)
; 517  : 			: this->_Bx._Buf);

	mov	eax, DWORD PTR _this$[ebp]
	cmp	DWORD PTR [eax+20], 16			; 00000010H
	jb	SHORT $LN3@Myptr
	mov	ecx, DWORD PTR _this$[ebp]
	mov	edx, DWORD PTR [ecx]
	push	edx
	call	??$addressof@D@std@@YAPADAAD@Z		; std::addressof<char>
	add	esp, 4
	mov	DWORD PTR tv72[ebp], eax
	jmp	SHORT $LN4@Myptr
$LN3@Myptr:
	mov	eax, DWORD PTR _this$[ebp]
	mov	DWORD PTR tv72[ebp], eax
$LN4@Myptr:
	mov	eax, DWORD PTR tv72[ebp]

; 518  : 		}

	mov	esp, ebp
	pop	ebp
	ret	0
?_Myptr@?$_String_val@U?$_Simple_types@D@std@@@std@@QAEPADXZ ENDP ; std::_String_val<std::_Simple_types<char> >::_Myptr
_TEXT	ENDS
; Function compile flags: /Odtp
; File c:\program files (x86)\microsoft visual studio 11.0\vc\include\xstring
;	COMDAT ??0?$_String_val@U?$_Simple_types@D@std@@@std@@QAE@XZ
_TEXT	SEGMENT
_this$ = -4						; size = 4
??0?$_String_val@U?$_Simple_types@D@std@@@std@@QAE@XZ PROC ; std::_String_val<std::_Simple_types<char> >::_String_val<std::_Simple_types<char> >, COMDAT
; _this$ = ecx

; 496  : 	_String_val()

	push	ebp
	mov	ebp, esp
	push	ecx
	mov	DWORD PTR _this$[ebp], ecx

; 497  : 		{	// initialize values
; 498  : 		_Mysize = 0;

	mov	eax, DWORD PTR _this$[ebp]
	mov	DWORD PTR [eax+16], 0

; 499  : 		_Myres = 0;

	mov	ecx, DWORD PTR _this$[ebp]
	mov	DWORD PTR [ecx+20], 0

; 500  : 		}

	mov	eax, DWORD PTR _this$[ebp]
	mov	esp, ebp
	pop	ebp
	ret	0
??0?$_String_val@U?$_Simple_types@D@std@@@std@@QAE@XZ ENDP ; std::_String_val<std::_Simple_types<char> >::_String_val<std::_Simple_types<char> >
_TEXT	ENDS
; Function compile flags: /Odtp
; File c:\program files (x86)\microsoft visual studio 11.0\vc\include\xmemory0
;	COMDAT ?max_size@?$_Wrap_alloc@V?$allocator@D@std@@@std@@QBEIXZ
_TEXT	SEGMENT
_this$ = -4						; size = 4
?max_size@?$_Wrap_alloc@V?$allocator@D@std@@@std@@QBEIXZ PROC ; std::_Wrap_alloc<std::allocator<char> >::max_size, COMDAT
; _this$ = ecx

; 913  : 		{	// get maximum size

	push	ebp
	mov	ebp, esp
	push	ecx
	mov	DWORD PTR _this$[ebp], ecx

; 914  : 		return (_Mytraits::max_size(*this));

	mov	eax, DWORD PTR _this$[ebp]
	push	eax
	call	?max_size@?$allocator_traits@V?$allocator@D@std@@@std@@SAIABV?$allocator@D@2@@Z ; std::allocator_traits<std::allocator<char> >::max_size
	add	esp, 4

; 915  : 		}

	mov	esp, ebp
	pop	ebp
	ret	0
?max_size@?$_Wrap_alloc@V?$allocator@D@std@@@std@@QBEIXZ ENDP ; std::_Wrap_alloc<std::allocator<char> >::max_size
_TEXT	ENDS
; Function compile flags: /Odtp
; File c:\program files (x86)\microsoft visual studio 11.0\vc\include\xmemory0
;	COMDAT ?deallocate@?$_Wrap_alloc@V?$allocator@D@std@@@std@@QAEXPADI@Z
_TEXT	SEGMENT
_this$ = -4						; size = 4
__Ptr$ = 8						; size = 4
__Count$ = 12						; size = 4
?deallocate@?$_Wrap_alloc@V?$allocator@D@std@@@std@@QAEXPADI@Z PROC ; std::_Wrap_alloc<std::allocator<char> >::deallocate, COMDAT
; _this$ = ecx

; 886  : 		{	// deallocate object at _Ptr, ignore size

	push	ebp
	mov	ebp, esp
	push	ecx
	mov	DWORD PTR _this$[ebp], ecx

; 887  : 		_Mybase::deallocate(_Ptr, _Count);

	mov	eax, DWORD PTR __Count$[ebp]
	push	eax
	mov	ecx, DWORD PTR __Ptr$[ebp]
	push	ecx
	mov	ecx, DWORD PTR _this$[ebp]
	call	?deallocate@?$allocator@D@std@@QAEXPADI@Z ; std::allocator<char>::deallocate

; 888  : 		}

	mov	esp, ebp
	pop	ebp
	ret	8
?deallocate@?$_Wrap_alloc@V?$allocator@D@std@@@std@@QAEXPADI@Z ENDP ; std::_Wrap_alloc<std::allocator<char> >::deallocate
_TEXT	ENDS
; Function compile flags: /Odtp
; File c:\program files (x86)\microsoft visual studio 11.0\vc\include\xmemory0
;	COMDAT ?allocate@?$_Wrap_alloc@V?$allocator@D@std@@@std@@QAEPADI@Z
_TEXT	SEGMENT
_this$ = -4						; size = 4
__Count$ = 8						; size = 4
?allocate@?$_Wrap_alloc@V?$allocator@D@std@@@std@@QAEPADI@Z PROC ; std::_Wrap_alloc<std::allocator<char> >::allocate, COMDAT
; _this$ = ecx

; 875  : 		{	// allocate array of _Count elements

	push	ebp
	mov	ebp, esp
	push	ecx
	mov	DWORD PTR _this$[ebp], ecx

; 876  : 		return (_Mybase::allocate(_Count));

	mov	eax, DWORD PTR __Count$[ebp]
	push	eax
	mov	ecx, DWORD PTR _this$[ebp]
	call	?allocate@?$allocator@D@std@@QAEPADI@Z	; std::allocator<char>::allocate

; 877  : 		}

	mov	esp, ebp
	pop	ebp
	ret	4
?allocate@?$_Wrap_alloc@V?$allocator@D@std@@@std@@QAEPADI@Z ENDP ; std::_Wrap_alloc<std::allocator<char> >::allocate
_TEXT	ENDS
; Function compile flags: /Odtp
; File c:\program files (x86)\microsoft visual studio 11.0\vc\include\xmemory0
;	COMDAT ??0?$_Wrap_alloc@V?$allocator@D@std@@@std@@QAE@XZ
_TEXT	SEGMENT
_this$ = -4						; size = 4
??0?$_Wrap_alloc@V?$allocator@D@std@@@std@@QAE@XZ PROC	; std::_Wrap_alloc<std::allocator<char> >::_Wrap_alloc<std::allocator<char> >, COMDAT
; _this$ = ecx

; 830  : 		{	// construct default allocator (do nothing)

	push	ebp
	mov	ebp, esp
	push	ecx
	mov	DWORD PTR _this$[ebp], ecx
	mov	ecx, DWORD PTR _this$[ebp]
	call	??0?$allocator@D@std@@QAE@XZ		; std::allocator<char>::allocator<char>

; 831  : 		}

	mov	eax, DWORD PTR _this$[ebp]
	mov	esp, ebp
	pop	ebp
	ret	0
??0?$_Wrap_alloc@V?$allocator@D@std@@@std@@QAE@XZ ENDP	; std::_Wrap_alloc<std::allocator<char> >::_Wrap_alloc<std::allocator<char> >
_TEXT	ENDS
; Function compile flags: /Odtp
; File c:\program files (x86)\microsoft visual studio 11.0\vc\include\xmemory0
;	COMDAT ?max_size@?$allocator_traits@V?$allocator@D@std@@@std@@SAIABV?$allocator@D@2@@Z
_TEXT	SEGMENT
__Al$ = 8						; size = 4
?max_size@?$allocator_traits@V?$allocator@D@std@@@std@@SAIABV?$allocator@D@2@@Z PROC ; std::allocator_traits<std::allocator<char> >::max_size, COMDAT

; 761  : 		{	// get maximum size

	push	ebp
	mov	ebp, esp

; 762  : 		return (_Al.max_size());

	mov	ecx, DWORD PTR __Al$[ebp]
	call	?max_size@?$allocator@D@std@@QBEIXZ	; std::allocator<char>::max_size

; 763  : 		}

	pop	ebp
	ret	0
?max_size@?$allocator_traits@V?$allocator@D@std@@@std@@SAIABV?$allocator@D@2@@Z ENDP ; std::allocator_traits<std::allocator<char> >::max_size
_TEXT	ENDS
; Function compile flags: /Odtp
; File c:\program files (x86)\microsoft visual studio 11.0\vc\include\xmemory0
;	COMDAT ?max_size@?$allocator@D@std@@QBEIXZ
_TEXT	SEGMENT
_this$ = -4						; size = 4
?max_size@?$allocator@D@std@@QBEIXZ PROC		; std::allocator<char>::max_size, COMDAT
; _this$ = ecx

; 627  : 		{	// estimate maximum array size

	push	ebp
	mov	ebp, esp
	push	ecx
	mov	DWORD PTR _this$[ebp], ecx

; 628  : 		return ((size_t)(-1) / sizeof (_Ty));

	or	eax, -1

; 629  : 		}

	mov	esp, ebp
	pop	ebp
	ret	0
?max_size@?$allocator@D@std@@QBEIXZ ENDP		; std::allocator<char>::max_size
_TEXT	ENDS
; Function compile flags: /Odtp
; File c:\program files (x86)\microsoft visual studio 11.0\vc\include\xmemory0
;	COMDAT ?allocate@?$allocator@D@std@@QAEPADI@Z
_TEXT	SEGMENT
_this$ = -4						; size = 4
__Count$ = 8						; size = 4
?allocate@?$allocator@D@std@@QAEPADI@Z PROC		; std::allocator<char>::allocate, COMDAT
; _this$ = ecx

; 590  : 		{	// allocate array of _Count elements

	push	ebp
	mov	ebp, esp
	push	ecx
	mov	DWORD PTR _this$[ebp], ecx

; 591  : 		return (_Allocate(_Count, (pointer)0));

	push	0
	mov	eax, DWORD PTR __Count$[ebp]
	push	eax
	call	??$_Allocate@D@std@@YAPADIPAD@Z		; std::_Allocate<char>
	add	esp, 8

; 592  : 		}

	mov	esp, ebp
	pop	ebp
	ret	4
?allocate@?$allocator@D@std@@QAEPADI@Z ENDP		; std::allocator<char>::allocate
_TEXT	ENDS
; Function compile flags: /Odtp
; File c:\program files (x86)\microsoft visual studio 11.0\vc\include\xmemory0
;	COMDAT ?deallocate@?$allocator@D@std@@QAEXPADI@Z
_TEXT	SEGMENT
_this$ = -4						; size = 4
__Ptr$ = 8						; size = 4
___formal$ = 12						; size = 4
?deallocate@?$allocator@D@std@@QAEXPADI@Z PROC		; std::allocator<char>::deallocate, COMDAT
; _this$ = ecx

; 585  : 		{	// deallocate object at _Ptr, ignore size

	push	ebp
	mov	ebp, esp
	push	ecx
	mov	DWORD PTR _this$[ebp], ecx

; 586  : 		::operator delete(_Ptr);

	mov	eax, DWORD PTR __Ptr$[ebp]
	push	eax
	call	??3@YAXPAX@Z				; operator delete
	add	esp, 4

; 587  : 		}

	mov	esp, ebp
	pop	ebp
	ret	8
?deallocate@?$allocator@D@std@@QAEXPADI@Z ENDP		; std::allocator<char>::deallocate
_TEXT	ENDS
; Function compile flags: /Odtp
; File c:\program files (x86)\microsoft visual studio 11.0\vc\include\xmemory0
;	COMDAT ??0?$allocator@D@std@@QAE@XZ
_TEXT	SEGMENT
_this$ = -4						; size = 4
??0?$allocator@D@std@@QAE@XZ PROC			; std::allocator<char>::allocator<char>, COMDAT
; _this$ = ecx

; 565  : 	allocator() _THROW0()

	push	ebp
	mov	ebp, esp
	push	ecx
	mov	DWORD PTR _this$[ebp], ecx

; 566  : 		{	// construct default allocator (do nothing)
; 567  : 		}

	mov	eax, DWORD PTR _this$[ebp]
	mov	esp, ebp
	pop	ebp
	ret	0
??0?$allocator@D@std@@QAE@XZ ENDP			; std::allocator<char>::allocator<char>
_TEXT	ENDS
; Function compile flags: /Odtp
; File c:\program files (x86)\microsoft visual studio 11.0\vc\include\xutility
;	COMDAT ??__Eallocator_arg@std@@YAXXZ
text$yc	SEGMENT
$T1 = -1						; size = 1
??__Eallocator_arg@std@@YAXXZ PROC			; std::`dynamic initializer for 'allocator_arg'', COMDAT

; 3644 : const allocator_arg_t allocator_arg = allocator_arg_t();

	push	ebp
	mov	ebp, esp
	push	ecx
	xor	eax, eax
	mov	BYTE PTR $T1[ebp], al
	mov	esp, ebp
	pop	ebp
	ret	0
??__Eallocator_arg@std@@YAXXZ ENDP			; std::`dynamic initializer for 'allocator_arg''
text$yc	ENDS
; Function compile flags: /Odtp
; File c:\program files (x86)\microsoft visual studio 11.0\vc\include\utility
;	COMDAT ??__Epiecewise_construct@std@@YAXXZ
text$yc	SEGMENT
$T1 = -1						; size = 1
??__Epiecewise_construct@std@@YAXXZ PROC		; std::`dynamic initializer for 'piecewise_construct'', COMDAT

; 65   : 	piecewise_construct_t();

	push	ebp
	mov	ebp, esp
	push	ecx
	xor	eax, eax
	mov	BYTE PTR $T1[ebp], al
	mov	esp, ebp
	pop	ebp
	ret	0
??__Epiecewise_construct@std@@YAXXZ ENDP		; std::`dynamic initializer for 'piecewise_construct''
text$yc	ENDS
; Function compile flags: /Odtp
; File c:\program files (x86)\microsoft visual studio 11.0\vc\include\iosfwd
;	COMDAT ?assign@?$char_traits@D@std@@SAXAADABD@Z
_TEXT	SEGMENT
__Left$ = 8						; size = 4
__Right$ = 12						; size = 4
?assign@?$char_traits@D@std@@SAXAADABD@Z PROC		; std::char_traits<char>::assign, COMDAT

; 563  : 		{	// assign an element

	push	ebp
	mov	ebp, esp

; 564  : 		_Left = _Right;

	mov	eax, DWORD PTR __Left$[ebp]
	mov	ecx, DWORD PTR __Right$[ebp]
	mov	dl, BYTE PTR [ecx]
	mov	BYTE PTR [eax], dl

; 565  : 		}

	pop	ebp
	ret	0
?assign@?$char_traits@D@std@@SAXAADABD@Z ENDP		; std::char_traits<char>::assign
_TEXT	ENDS
; Function compile flags: /Odtp
; File c:\program files (x86)\microsoft visual studio 11.0\vc\include\iosfwd
;	COMDAT ?move@?$char_traits@D@std@@SAPADPADPBDI@Z
_TEXT	SEGMENT
tv69 = -4						; size = 4
__First1$ = 8						; size = 4
__First2$ = 12						; size = 4
__Count$ = 16						; size = 4
?move@?$char_traits@D@std@@SAPADPADPBDI@Z PROC		; std::char_traits<char>::move, COMDAT

; 551  : 		{	// copy [_First2, _First2 + _Count) to [_First1, ...)

	push	ebp
	mov	ebp, esp
	push	ecx

; 552  : 		return (_Count == 0 ? _First1
; 553  : 			: (_Elem *)_CSTD memmove(_First1, _First2, _Count));

	cmp	DWORD PTR __Count$[ebp], 0
	jne	SHORT $LN3@move
	mov	eax, DWORD PTR __First1$[ebp]
	mov	DWORD PTR tv69[ebp], eax
	jmp	SHORT $LN4@move
$LN3@move:
	mov	ecx, DWORD PTR __Count$[ebp]
	push	ecx
	mov	edx, DWORD PTR __First2$[ebp]
	push	edx
	mov	eax, DWORD PTR __First1$[ebp]
	push	eax
	call	_memmove
	add	esp, 12					; 0000000cH
	mov	DWORD PTR tv69[ebp], eax
$LN4@move:
	mov	eax, DWORD PTR tv69[ebp]

; 554  : 		}

	mov	esp, ebp
	pop	ebp
	ret	0
?move@?$char_traits@D@std@@SAPADPADPBDI@Z ENDP		; std::char_traits<char>::move
_TEXT	ENDS
; Function compile flags: /Odtp
; File c:\program files (x86)\microsoft visual studio 11.0\vc\include\iosfwd
;	COMDAT ?copy@?$char_traits@D@std@@SAPADPADPBDI@Z
_TEXT	SEGMENT
tv69 = -4						; size = 4
__First1$ = 8						; size = 4
__First2$ = 12						; size = 4
__Count$ = 16						; size = 4
?copy@?$char_traits@D@std@@SAPADPADPBDI@Z PROC		; std::char_traits<char>::copy, COMDAT

; 528  : 		{	// copy [_First2, _First2 + _Count) to [_First1, ...)

	push	ebp
	mov	ebp, esp
	push	ecx

; 529  : 		return (_Count == 0 ? _First1
; 530  : 			: (_Elem *)_CSTD memcpy(_First1, _First2, _Count));

	cmp	DWORD PTR __Count$[ebp], 0
	jne	SHORT $LN3@copy
	mov	eax, DWORD PTR __First1$[ebp]
	mov	DWORD PTR tv69[ebp], eax
	jmp	SHORT $LN4@copy
$LN3@copy:
	mov	ecx, DWORD PTR __Count$[ebp]
	push	ecx
	mov	edx, DWORD PTR __First2$[ebp]
	push	edx
	mov	eax, DWORD PTR __First1$[ebp]
	push	eax
	call	_memcpy
	add	esp, 12					; 0000000cH
	mov	DWORD PTR tv69[ebp], eax
$LN4@copy:
	mov	eax, DWORD PTR tv69[ebp]

; 531  : 		}

	mov	esp, ebp
	pop	ebp
	ret	0
?copy@?$char_traits@D@std@@SAPADPADPBDI@Z ENDP		; std::char_traits<char>::copy
_TEXT	ENDS
; Function compile flags: /Odtp
; File c:\program files (x86)\microsoft visual studio 11.0\vc\include\iosfwd
;	COMDAT ?length@?$char_traits@D@std@@SAIPBD@Z
_TEXT	SEGMENT
tv68 = -4						; size = 4
__First$ = 8						; size = 4
?length@?$char_traits@D@std@@SAIPBD@Z PROC		; std::char_traits<char>::length, COMDAT

; 521  : 		{	// find length of null-terminated string

	push	ebp
	mov	ebp, esp
	push	ecx

; 522  : 		return (*_First == 0 ? 0
; 523  : 			: _CSTD strlen(_First));

	mov	eax, DWORD PTR __First$[ebp]
	movsx	ecx, BYTE PTR [eax]
	test	ecx, ecx
	jne	SHORT $LN3@length
	mov	DWORD PTR tv68[ebp], 0
	jmp	SHORT $LN4@length
$LN3@length:
	mov	edx, DWORD PTR __First$[ebp]
	push	edx
	call	_strlen
	add	esp, 4
	mov	DWORD PTR tv68[ebp], eax
$LN4@length:
	mov	eax, DWORD PTR tv68[ebp]

; 524  : 		}

	mov	esp, ebp
	pop	ebp
	ret	0
?length@?$char_traits@D@std@@SAIPBD@Z ENDP		; std::char_traits<char>::length
_TEXT	ENDS
; Function compile flags: /Odtp
; File c:\program files (x86)\microsoft visual studio 11.0\vc\include\new
;	COMDAT ??3@YAXPAX0@Z
_TEXT	SEGMENT
___formal$ = 8						; size = 4
___formal$ = 12						; size = 4
??3@YAXPAX0@Z PROC					; operator delete, COMDAT

; 64   : 	{	// delete if placement new fails

	push	ebp
	mov	ebp, esp

; 65   : 	}

	pop	ebp
	ret	0
??3@YAXPAX0@Z ENDP					; operator delete
_TEXT	ENDS
; Function compile flags: /Odtp
; File c:\program files (x86)\microsoft visual studio 11.0\vc\include\new
;	COMDAT ??2@YAPAXIPAX@Z
_TEXT	SEGMENT
___formal$ = 8						; size = 4
__Where$ = 12						; size = 4
??2@YAPAXIPAX@Z PROC					; operator new, COMDAT

; 59   : 	{	// construct array with placement at _Where

	push	ebp
	mov	ebp, esp

; 60   : 	return (_Where);

	mov	eax, DWORD PTR __Where$[ebp]

; 61   : 	}

	pop	ebp
	ret	0
??2@YAPAXIPAX@Z ENDP					; operator new
_TEXT	ENDS
; Function compile flags: /Odtp
; File c:\program files (x86)\microsoft visual studio 11.0\vc\include\math.h
;	COMDAT ?abs@@YAMM@Z
_TEXT	SEGMENT
__X$ = 8						; size = 4
?abs@@YAMM@Z PROC					; abs, COMDAT

; 499  :         {return (fabsf(_X)); }

	push	ebp
	mov	ebp, esp
	push	ecx
	movss	xmm0, DWORD PTR __X$[ebp]
	movss	DWORD PTR [esp], xmm0
	call	_fabsf
	add	esp, 4
	pop	ebp
	ret	0
?abs@@YAMM@Z ENDP					; abs
_TEXT	ENDS
; Function compile flags: /Odtp
; File c:\program files (x86)\microsoft visual studio 11.0\vc\include\math.h
;	COMDAT _fabsf
_TEXT	SEGMENT
tv74 = -12						; size = 8
tv76 = -4						; size = 4
__X$ = 8						; size = 4
_fabsf	PROC						; COMDAT

; 392  :         {return ((float)fabs((double)_X)); }

	push	ebp
	mov	ebp, esp
	sub	esp, 12					; 0000000cH
	cvtss2sd xmm0, DWORD PTR __X$[ebp]
	sub	esp, 8
	movsd	QWORD PTR [esp], xmm0
	call	_fabs
	add	esp, 8
	fstp	QWORD PTR tv74[ebp]
	movsd	xmm0, QWORD PTR tv74[ebp]
	cvtsd2ss xmm0, xmm0
	movss	DWORD PTR tv76[ebp], xmm0
	fld	DWORD PTR tv76[ebp]
	mov	esp, ebp
	pop	ebp
	ret	0
_fabsf	ENDP
_TEXT	ENDS
END
