; Listing generated by Microsoft (R) Optimizing Compiler Version 17.00.51106.1 

	TITLE	C:\Users\Zhitao Li\Documents\Visual Studio 2012\Projects\Freefalcon\SIM\SIMDRIVE\Simdrive.cpp
	.686P
	.XMM
	include listing.inc
	.model	flat

INCLUDELIB LIBCMT
INCLUDELIB OLDNAMES

PUBLIC	?round_style@_Num_base@std@@2W4float_round_style@2@B ; std::_Num_base::round_style
PUBLIC	?CMPDIRTYDATA_INTERVAL@FalconEntity@@2KB	; FalconEntity::CMPDIRTYDATA_INTERVAL
PUBLIC	?digits@_Num_base@std@@2HB			; std::_Num_base::digits
PUBLIC	?digits10@_Num_base@std@@2HB			; std::_Num_base::digits10
PUBLIC	?max_digits10@_Num_base@std@@2HB		; std::_Num_base::max_digits10
PUBLIC	?max_exponent@_Num_base@std@@2HB		; std::_Num_base::max_exponent
PUBLIC	?max_exponent10@_Num_base@std@@2HB		; std::_Num_base::max_exponent10
PUBLIC	?min_exponent@_Num_base@std@@2HB		; std::_Num_base::min_exponent
PUBLIC	?min_exponent10@_Num_base@std@@2HB		; std::_Num_base::min_exponent10
PUBLIC	?radix@_Num_base@std@@2HB			; std::_Num_base::radix
PUBLIC	?is_bounded@_Num_int_base@std@@2_NB		; std::_Num_int_base::is_bounded
PUBLIC	?is_exact@_Num_int_base@std@@2_NB		; std::_Num_int_base::is_exact
PUBLIC	?is_integer@_Num_int_base@std@@2_NB		; std::_Num_int_base::is_integer
PUBLIC	?is_modulo@_Num_int_base@std@@2_NB		; std::_Num_int_base::is_modulo
PUBLIC	?is_specialized@_Num_int_base@std@@2_NB		; std::_Num_int_base::is_specialized
PUBLIC	?radix@_Num_int_base@std@@2HB			; std::_Num_int_base::radix
PUBLIC	?has_denorm@_Num_float_base@std@@2W4float_denorm_style@2@B ; std::_Num_float_base::has_denorm
PUBLIC	?has_denorm_loss@_Num_float_base@std@@2_NB	; std::_Num_float_base::has_denorm_loss
PUBLIC	?has_infinity@_Num_float_base@std@@2_NB		; std::_Num_float_base::has_infinity
PUBLIC	?has_quiet_NaN@_Num_float_base@std@@2_NB	; std::_Num_float_base::has_quiet_NaN
PUBLIC	?has_signaling_NaN@_Num_float_base@std@@2_NB	; std::_Num_float_base::has_signaling_NaN
PUBLIC	?is_bounded@_Num_float_base@std@@2_NB		; std::_Num_float_base::is_bounded
PUBLIC	?is_exact@_Num_float_base@std@@2_NB		; std::_Num_float_base::is_exact
PUBLIC	?is_iec559@_Num_float_base@std@@2_NB		; std::_Num_float_base::is_iec559
PUBLIC	?is_integer@_Num_float_base@std@@2_NB		; std::_Num_float_base::is_integer
PUBLIC	?is_modulo@_Num_float_base@std@@2_NB		; std::_Num_float_base::is_modulo
PUBLIC	?is_signed@_Num_float_base@std@@2_NB		; std::_Num_float_base::is_signed
PUBLIC	?is_specialized@_Num_float_base@std@@2_NB	; std::_Num_float_base::is_specialized
PUBLIC	?tinyness_before@_Num_float_base@std@@2_NB	; std::_Num_float_base::tinyness_before
PUBLIC	?traps@_Num_float_base@std@@2_NB		; std::_Num_float_base::traps
PUBLIC	?round_style@_Num_float_base@std@@2W4float_round_style@2@B ; std::_Num_float_base::round_style
PUBLIC	?radix@_Num_float_base@std@@2HB			; std::_Num_float_base::radix
PUBLIC	?is_signed@?$numeric_limits@D@std@@2_NB		; std::numeric_limits<char>::is_signed
PUBLIC	?collate@?$_Locbase@H@std@@2HB			; std::_Locbase<int>::collate
PUBLIC	?ctype@?$_Locbase@H@std@@2HB			; std::_Locbase<int>::ctype
PUBLIC	?digits@?$numeric_limits@D@std@@2HB		; std::numeric_limits<char>::digits
PUBLIC	?monetary@?$_Locbase@H@std@@2HB			; std::_Locbase<int>::monetary
PUBLIC	?digits10@?$numeric_limits@D@std@@2HB		; std::numeric_limits<char>::digits10
PUBLIC	?numeric@?$_Locbase@H@std@@2HB			; std::_Locbase<int>::numeric
PUBLIC	?time@?$_Locbase@H@std@@2HB			; std::_Locbase<int>::time
PUBLIC	?messages@?$_Locbase@H@std@@2HB			; std::_Locbase<int>::messages
PUBLIC	?all@?$_Locbase@H@std@@2HB			; std::_Locbase<int>::all
PUBLIC	?none@?$_Locbase@H@std@@2HB			; std::_Locbase<int>::none
PUBLIC	?is_signed@?$numeric_limits@_W@std@@2_NB	; std::numeric_limits<wchar_t>::is_signed
PUBLIC	?digits@?$numeric_limits@_W@std@@2HB		; std::numeric_limits<wchar_t>::digits
PUBLIC	?digits10@?$numeric_limits@_W@std@@2HB		; std::numeric_limits<wchar_t>::digits10
PUBLIC	?is_modulo@?$numeric_limits@_N@std@@2_NB	; std::numeric_limits<bool>::is_modulo
PUBLIC	?is_signed@?$numeric_limits@_N@std@@2_NB	; std::numeric_limits<bool>::is_signed
PUBLIC	?digits@?$numeric_limits@_N@std@@2HB		; std::numeric_limits<bool>::digits
PUBLIC	?digits10@?$numeric_limits@_N@std@@2HB		; std::numeric_limits<bool>::digits10
PUBLIC	?is_signed@?$numeric_limits@C@std@@2_NB		; std::numeric_limits<signed char>::is_signed
PUBLIC	?digits@?$numeric_limits@C@std@@2HB		; std::numeric_limits<signed char>::digits
PUBLIC	?digits10@?$numeric_limits@C@std@@2HB		; std::numeric_limits<signed char>::digits10
PUBLIC	?table_size@?$ctype@D@std@@2IB			; std::ctype<char>::table_size
PUBLIC	?is_signed@?$numeric_limits@E@std@@2_NB		; std::numeric_limits<unsigned char>::is_signed
PUBLIC	?digits@?$numeric_limits@E@std@@2HB		; std::numeric_limits<unsigned char>::digits
PUBLIC	?digits10@?$numeric_limits@E@std@@2HB		; std::numeric_limits<unsigned char>::digits10
PUBLIC	?value@?$integral_constant@_N$0A@@std@@2_NB	; std::integral_constant<bool,0>::value
PUBLIC	?value@?$integral_constant@_N$00@std@@2_NB	; std::integral_constant<bool,1>::value
PUBLIC	?value@?$_Sizeof@HU_Nil@std@@U12@U12@U12@U12@U12@U12@@std@@2IB ; std::_Sizeof<int,std::_Nil,std::_Nil,std::_Nil,std::_Nil,std::_Nil,std::_Nil,std::_Nil>::value
PUBLIC	?is_signed@?$numeric_limits@F@std@@2_NB		; std::numeric_limits<short>::is_signed
PUBLIC	?digits@?$numeric_limits@F@std@@2HB		; std::numeric_limits<short>::digits
PUBLIC	?digits10@?$numeric_limits@F@std@@2HB		; std::numeric_limits<short>::digits10
PUBLIC	?is_signed@?$numeric_limits@G@std@@2_NB		; std::numeric_limits<unsigned short>::is_signed
PUBLIC	?digits@?$numeric_limits@G@std@@2HB		; std::numeric_limits<unsigned short>::digits
PUBLIC	?digits10@?$numeric_limits@G@std@@2HB		; std::numeric_limits<unsigned short>::digits10
PUBLIC	?is_signed@?$numeric_limits@H@std@@2_NB		; std::numeric_limits<int>::is_signed
PUBLIC	?digits@?$numeric_limits@H@std@@2HB		; std::numeric_limits<int>::digits
PUBLIC	?digits10@?$numeric_limits@H@std@@2HB		; std::numeric_limits<int>::digits10
PUBLIC	?EndFlightFlag@@3HA				; EndFlightFlag
PUBLIC	?gOutOfSimFlag@@3HA				; gOutOfSimFlag
PUBLIC	?is_signed@?$numeric_limits@I@std@@2_NB		; std::numeric_limits<unsigned int>::is_signed
PUBLIC	?digits@?$numeric_limits@I@std@@2HB		; std::numeric_limits<unsigned int>::digits
PUBLIC	?digits10@?$numeric_limits@I@std@@2HB		; std::numeric_limits<unsigned int>::digits10
PUBLIC	?SimLibLastMajorFrameTime@@3MA			; SimLibLastMajorFrameTime
PUBLIC	?is_signed@?$numeric_limits@J@std@@2_NB		; std::numeric_limits<long>::is_signed
PUBLIC	?digits@?$numeric_limits@J@std@@2HB		; std::numeric_limits<long>::digits
PUBLIC	?digits10@?$numeric_limits@J@std@@2HB		; std::numeric_limits<long>::digits10
PUBLIC	?is_signed@?$numeric_limits@K@std@@2_NB		; std::numeric_limits<unsigned long>::is_signed
PUBLIC	?digits@?$numeric_limits@K@std@@2HB		; std::numeric_limits<unsigned long>::digits
PUBLIC	?digits10@?$numeric_limits@K@std@@2HB		; std::numeric_limits<unsigned long>::digits10
PUBLIC	?is_signed@?$numeric_limits@_J@std@@2_NB	; std::numeric_limits<__int64>::is_signed
PUBLIC	?digits@?$numeric_limits@_J@std@@2HB		; std::numeric_limits<__int64>::digits
PUBLIC	?digits10@?$numeric_limits@_J@std@@2HB		; std::numeric_limits<__int64>::digits10
PUBLIC	?is_signed@?$numeric_limits@_K@std@@2_NB	; std::numeric_limits<unsigned __int64>::is_signed
PUBLIC	?value@?$integral_constant@I$0A@@std@@2IB	; std::integral_constant<unsigned int,0>::value
PUBLIC	?digits@?$numeric_limits@_K@std@@2HB		; std::numeric_limits<unsigned __int64>::digits
PUBLIC	?digits10@?$numeric_limits@_K@std@@2HB		; std::numeric_limits<unsigned __int64>::digits10
PUBLIC	?digits@?$numeric_limits@M@std@@2HB		; std::numeric_limits<float>::digits
PUBLIC	?digits10@?$numeric_limits@M@std@@2HB		; std::numeric_limits<float>::digits10
PUBLIC	?max_digits10@?$numeric_limits@M@std@@2HB	; std::numeric_limits<float>::max_digits10
PUBLIC	?max_exponent@?$numeric_limits@M@std@@2HB	; std::numeric_limits<float>::max_exponent
PUBLIC	?max_exponent10@?$numeric_limits@M@std@@2HB	; std::numeric_limits<float>::max_exponent10
PUBLIC	?min_exponent@?$numeric_limits@M@std@@2HB	; std::numeric_limits<float>::min_exponent
PUBLIC	?min_exponent10@?$numeric_limits@M@std@@2HB	; std::numeric_limits<float>::min_exponent10
PUBLIC	?digits@?$numeric_limits@N@std@@2HB		; std::numeric_limits<double>::digits
PUBLIC	?digits10@?$numeric_limits@N@std@@2HB		; std::numeric_limits<double>::digits10
PUBLIC	?max_digits10@?$numeric_limits@N@std@@2HB	; std::numeric_limits<double>::max_digits10
PUBLIC	?max_exponent@?$numeric_limits@N@std@@2HB	; std::numeric_limits<double>::max_exponent
PUBLIC	?max_exponent10@?$numeric_limits@N@std@@2HB	; std::numeric_limits<double>::max_exponent10
PUBLIC	?min_exponent@?$numeric_limits@N@std@@2HB	; std::numeric_limits<double>::min_exponent
PUBLIC	?min_exponent10@?$numeric_limits@N@std@@2HB	; std::numeric_limits<double>::min_exponent10
PUBLIC	?skipws@?$_Iosb@H@std@@2W4_Fmtflags@12@B	; std::_Iosb<int>::skipws
PUBLIC	?digits@?$numeric_limits@O@std@@2HB		; std::numeric_limits<long double>::digits
PUBLIC	?unitbuf@?$_Iosb@H@std@@2W4_Fmtflags@12@B	; std::_Iosb<int>::unitbuf
PUBLIC	?digits10@?$numeric_limits@O@std@@2HB		; std::numeric_limits<long double>::digits10
PUBLIC	?uppercase@?$_Iosb@H@std@@2W4_Fmtflags@12@B	; std::_Iosb<int>::uppercase
PUBLIC	?max_digits10@?$numeric_limits@O@std@@2HB	; std::numeric_limits<long double>::max_digits10
PUBLIC	?showbase@?$_Iosb@H@std@@2W4_Fmtflags@12@B	; std::_Iosb<int>::showbase
PUBLIC	?showpoint@?$_Iosb@H@std@@2W4_Fmtflags@12@B	; std::_Iosb<int>::showpoint
PUBLIC	?max_exponent@?$numeric_limits@O@std@@2HB	; std::numeric_limits<long double>::max_exponent
PUBLIC	?showpos@?$_Iosb@H@std@@2W4_Fmtflags@12@B	; std::_Iosb<int>::showpos
PUBLIC	?max_exponent10@?$numeric_limits@O@std@@2HB	; std::numeric_limits<long double>::max_exponent10
PUBLIC	?left@?$_Iosb@H@std@@2W4_Fmtflags@12@B		; std::_Iosb<int>::left
PUBLIC	?min_exponent@?$numeric_limits@O@std@@2HB	; std::numeric_limits<long double>::min_exponent
PUBLIC	?right@?$_Iosb@H@std@@2W4_Fmtflags@12@B		; std::_Iosb<int>::right
PUBLIC	?min_exponent10@?$numeric_limits@O@std@@2HB	; std::numeric_limits<long double>::min_exponent10
PUBLIC	?internal@?$_Iosb@H@std@@2W4_Fmtflags@12@B	; std::_Iosb<int>::internal
PUBLIC	?dec@?$_Iosb@H@std@@2W4_Fmtflags@12@B		; std::_Iosb<int>::dec
PUBLIC	?oct@?$_Iosb@H@std@@2W4_Fmtflags@12@B		; std::_Iosb<int>::oct
PUBLIC	?hex@?$_Iosb@H@std@@2W4_Fmtflags@12@B		; std::_Iosb<int>::hex
PUBLIC	?scientific@?$_Iosb@H@std@@2W4_Fmtflags@12@B	; std::_Iosb<int>::scientific
PUBLIC	?fixed@?$_Iosb@H@std@@2W4_Fmtflags@12@B		; std::_Iosb<int>::fixed
PUBLIC	?hexfloat@?$_Iosb@H@std@@2W4_Fmtflags@12@B	; std::_Iosb<int>::hexfloat
PUBLIC	?boolalpha@?$_Iosb@H@std@@2W4_Fmtflags@12@B	; std::_Iosb<int>::boolalpha
PUBLIC	?_Stdio@?$_Iosb@H@std@@2W4_Fmtflags@12@B	; std::_Iosb<int>::_Stdio
PUBLIC	?adjustfield@?$_Iosb@H@std@@2W4_Fmtflags@12@B	; std::_Iosb<int>::adjustfield
PUBLIC	?basefield@?$_Iosb@H@std@@2W4_Fmtflags@12@B	; std::_Iosb<int>::basefield
PUBLIC	?floatfield@?$_Iosb@H@std@@2W4_Fmtflags@12@B	; std::_Iosb<int>::floatfield
PUBLIC	?goodbit@?$_Iosb@H@std@@2W4_Iostate@12@B	; std::_Iosb<int>::goodbit
PUBLIC	?eofbit@?$_Iosb@H@std@@2W4_Iostate@12@B		; std::_Iosb<int>::eofbit
PUBLIC	?failbit@?$_Iosb@H@std@@2W4_Iostate@12@B	; std::_Iosb<int>::failbit
PUBLIC	?badbit@?$_Iosb@H@std@@2W4_Iostate@12@B		; std::_Iosb<int>::badbit
PUBLIC	?_Hardfail@?$_Iosb@H@std@@2W4_Iostate@12@B	; std::_Iosb<int>::_Hardfail
PUBLIC	?in@?$_Iosb@H@std@@2W4_Openmode@12@B		; std::_Iosb<int>::in
PUBLIC	?out@?$_Iosb@H@std@@2W4_Openmode@12@B		; std::_Iosb<int>::out
PUBLIC	?ate@?$_Iosb@H@std@@2W4_Openmode@12@B		; std::_Iosb<int>::ate
PUBLIC	?app@?$_Iosb@H@std@@2W4_Openmode@12@B		; std::_Iosb<int>::app
PUBLIC	?trunc@?$_Iosb@H@std@@2W4_Openmode@12@B		; std::_Iosb<int>::trunc
PUBLIC	?_Nocreate@?$_Iosb@H@std@@2W4_Openmode@12@B	; std::_Iosb<int>::_Nocreate
PUBLIC	?_Noreplace@?$_Iosb@H@std@@2W4_Openmode@12@B	; std::_Iosb<int>::_Noreplace
PUBLIC	?binary@?$_Iosb@H@std@@2W4_Openmode@12@B	; std::_Iosb<int>::binary
PUBLIC	?beg@?$_Iosb@H@std@@2W4_Seekdir@12@B		; std::_Iosb<int>::beg
PUBLIC	?cur@?$_Iosb@H@std@@2W4_Seekdir@12@B		; std::_Iosb<int>::cur
PUBLIC	?end@?$_Iosb@H@std@@2W4_Seekdir@12@B		; std::_Iosb<int>::end
PUBLIC	?_Stream_err@failure@ios_base@std@@0W4io_errc@43@B ; std::ios_base::failure::_Stream_err
PUBLIC	?value@?$_Sizeof@U_Nil@std@@U12@U12@U12@U12@U12@U12@U12@@std@@2IB ; std::_Sizeof<std::_Nil,std::_Nil,std::_Nil,std::_Nil,std::_Nil,std::_Nil,std::_Nil,std::_Nil>::value
PUBLIC	?has_denorm@_Num_base@std@@2W4float_denorm_style@2@B ; std::_Num_base::has_denorm
PUBLIC	?has_denorm_loss@_Num_base@std@@2_NB		; std::_Num_base::has_denorm_loss
PUBLIC	?has_infinity@_Num_base@std@@2_NB		; std::_Num_base::has_infinity
PUBLIC	?has_quiet_NaN@_Num_base@std@@2_NB		; std::_Num_base::has_quiet_NaN
PUBLIC	?has_signaling_NaN@_Num_base@std@@2_NB		; std::_Num_base::has_signaling_NaN
PUBLIC	?is_bounded@_Num_base@std@@2_NB			; std::_Num_base::is_bounded
PUBLIC	?is_exact@_Num_base@std@@2_NB			; std::_Num_base::is_exact
PUBLIC	?is_iec559@_Num_base@std@@2_NB			; std::_Num_base::is_iec559
PUBLIC	?is_integer@_Num_base@std@@2_NB			; std::_Num_base::is_integer
PUBLIC	?is_modulo@_Num_base@std@@2_NB			; std::_Num_base::is_modulo
PUBLIC	?is_signed@_Num_base@std@@2_NB			; std::_Num_base::is_signed
PUBLIC	?is_specialized@_Num_base@std@@2_NB		; std::_Num_base::is_specialized
PUBLIC	?tinyness_before@_Num_base@std@@2_NB		; std::_Num_base::tinyness_before
PUBLIC	?traps@_Num_base@std@@2_NB			; std::_Num_base::traps
PUBLIC	?SIMDIRTYDATA_INTERVAL@FalconEntity@@2KB	; FalconEntity::SIMDIRTYDATA_INTERVAL
_BSS	SEGMENT
_debugging DD	01H DUP (?)
?EndFlightFlag@@3HA DD 01H DUP (?)			; EndFlightFlag
_requestList DD	01H DUP (?)
?SimLibLastMajorFrameTime@@3MA DD 01H DUP (?)		; SimLibLastMajorFrameTime
_BSS	ENDS
;	COMDAT ?SIMDIRTYDATA_INTERVAL@FalconEntity@@2KB
CONST	SEGMENT
?SIMDIRTYDATA_INTERVAL@FalconEntity@@2KB DD 0c8H	; FalconEntity::SIMDIRTYDATA_INTERVAL
CONST	ENDS
;	COMDAT ?traps@_Num_base@std@@2_NB
CONST	SEGMENT
?traps@_Num_base@std@@2_NB DB 00H			; std::_Num_base::traps
CONST	ENDS
;	COMDAT ?tinyness_before@_Num_base@std@@2_NB
CONST	SEGMENT
?tinyness_before@_Num_base@std@@2_NB DB 00H		; std::_Num_base::tinyness_before
CONST	ENDS
;	COMDAT ?is_specialized@_Num_base@std@@2_NB
CONST	SEGMENT
?is_specialized@_Num_base@std@@2_NB DB 00H		; std::_Num_base::is_specialized
CONST	ENDS
;	COMDAT ?is_signed@_Num_base@std@@2_NB
CONST	SEGMENT
?is_signed@_Num_base@std@@2_NB DB 00H			; std::_Num_base::is_signed
CONST	ENDS
;	COMDAT ?is_modulo@_Num_base@std@@2_NB
CONST	SEGMENT
?is_modulo@_Num_base@std@@2_NB DB 00H			; std::_Num_base::is_modulo
CONST	ENDS
;	COMDAT ?is_integer@_Num_base@std@@2_NB
CONST	SEGMENT
?is_integer@_Num_base@std@@2_NB DB 00H			; std::_Num_base::is_integer
CONST	ENDS
;	COMDAT ?is_iec559@_Num_base@std@@2_NB
CONST	SEGMENT
?is_iec559@_Num_base@std@@2_NB DB 00H			; std::_Num_base::is_iec559
CONST	ENDS
;	COMDAT ?is_exact@_Num_base@std@@2_NB
CONST	SEGMENT
?is_exact@_Num_base@std@@2_NB DB 00H			; std::_Num_base::is_exact
CONST	ENDS
;	COMDAT ?is_bounded@_Num_base@std@@2_NB
CONST	SEGMENT
?is_bounded@_Num_base@std@@2_NB DB 00H			; std::_Num_base::is_bounded
CONST	ENDS
;	COMDAT ?has_signaling_NaN@_Num_base@std@@2_NB
CONST	SEGMENT
?has_signaling_NaN@_Num_base@std@@2_NB DB 00H		; std::_Num_base::has_signaling_NaN
CONST	ENDS
;	COMDAT ?has_quiet_NaN@_Num_base@std@@2_NB
CONST	SEGMENT
?has_quiet_NaN@_Num_base@std@@2_NB DB 00H		; std::_Num_base::has_quiet_NaN
CONST	ENDS
;	COMDAT ?has_infinity@_Num_base@std@@2_NB
CONST	SEGMENT
?has_infinity@_Num_base@std@@2_NB DB 00H		; std::_Num_base::has_infinity
CONST	ENDS
;	COMDAT ?has_denorm_loss@_Num_base@std@@2_NB
CONST	SEGMENT
?has_denorm_loss@_Num_base@std@@2_NB DB 00H		; std::_Num_base::has_denorm_loss
CONST	ENDS
;	COMDAT ?has_denorm@_Num_base@std@@2W4float_denorm_style@2@B
CONST	SEGMENT
?has_denorm@_Num_base@std@@2W4float_denorm_style@2@B DD 00H ; std::_Num_base::has_denorm
CONST	ENDS
;	COMDAT ?value@?$_Sizeof@U_Nil@std@@U12@U12@U12@U12@U12@U12@U12@@std@@2IB
CONST	SEGMENT
?value@?$_Sizeof@U_Nil@std@@U12@U12@U12@U12@U12@U12@U12@@std@@2IB DD 00H ; std::_Sizeof<std::_Nil,std::_Nil,std::_Nil,std::_Nil,std::_Nil,std::_Nil,std::_Nil,std::_Nil>::value
CONST	ENDS
;	COMDAT ?_Stream_err@failure@ios_base@std@@0W4io_errc@43@B
CONST	SEGMENT
?_Stream_err@failure@ios_base@std@@0W4io_errc@43@B DD 01H ; std::ios_base::failure::_Stream_err
CONST	ENDS
;	COMDAT ?end@?$_Iosb@H@std@@2W4_Seekdir@12@B
CONST	SEGMENT
?end@?$_Iosb@H@std@@2W4_Seekdir@12@B DD 02H		; std::_Iosb<int>::end
CONST	ENDS
;	COMDAT ?cur@?$_Iosb@H@std@@2W4_Seekdir@12@B
CONST	SEGMENT
?cur@?$_Iosb@H@std@@2W4_Seekdir@12@B DD 01H		; std::_Iosb<int>::cur
CONST	ENDS
;	COMDAT ?beg@?$_Iosb@H@std@@2W4_Seekdir@12@B
CONST	SEGMENT
?beg@?$_Iosb@H@std@@2W4_Seekdir@12@B DD 00H		; std::_Iosb<int>::beg
CONST	ENDS
;	COMDAT ?binary@?$_Iosb@H@std@@2W4_Openmode@12@B
CONST	SEGMENT
?binary@?$_Iosb@H@std@@2W4_Openmode@12@B DD 020H	; std::_Iosb<int>::binary
CONST	ENDS
;	COMDAT ?_Noreplace@?$_Iosb@H@std@@2W4_Openmode@12@B
CONST	SEGMENT
?_Noreplace@?$_Iosb@H@std@@2W4_Openmode@12@B DD 080H	; std::_Iosb<int>::_Noreplace
CONST	ENDS
;	COMDAT ?_Nocreate@?$_Iosb@H@std@@2W4_Openmode@12@B
CONST	SEGMENT
?_Nocreate@?$_Iosb@H@std@@2W4_Openmode@12@B DD 040H	; std::_Iosb<int>::_Nocreate
CONST	ENDS
;	COMDAT ?trunc@?$_Iosb@H@std@@2W4_Openmode@12@B
CONST	SEGMENT
?trunc@?$_Iosb@H@std@@2W4_Openmode@12@B DD 010H		; std::_Iosb<int>::trunc
CONST	ENDS
;	COMDAT ?app@?$_Iosb@H@std@@2W4_Openmode@12@B
CONST	SEGMENT
?app@?$_Iosb@H@std@@2W4_Openmode@12@B DD 08H		; std::_Iosb<int>::app
CONST	ENDS
;	COMDAT ?ate@?$_Iosb@H@std@@2W4_Openmode@12@B
CONST	SEGMENT
?ate@?$_Iosb@H@std@@2W4_Openmode@12@B DD 04H		; std::_Iosb<int>::ate
CONST	ENDS
;	COMDAT ?out@?$_Iosb@H@std@@2W4_Openmode@12@B
CONST	SEGMENT
?out@?$_Iosb@H@std@@2W4_Openmode@12@B DD 02H		; std::_Iosb<int>::out
CONST	ENDS
;	COMDAT ?in@?$_Iosb@H@std@@2W4_Openmode@12@B
CONST	SEGMENT
?in@?$_Iosb@H@std@@2W4_Openmode@12@B DD 01H		; std::_Iosb<int>::in
CONST	ENDS
;	COMDAT ?_Hardfail@?$_Iosb@H@std@@2W4_Iostate@12@B
CONST	SEGMENT
?_Hardfail@?$_Iosb@H@std@@2W4_Iostate@12@B DD 010H	; std::_Iosb<int>::_Hardfail
CONST	ENDS
;	COMDAT ?badbit@?$_Iosb@H@std@@2W4_Iostate@12@B
CONST	SEGMENT
?badbit@?$_Iosb@H@std@@2W4_Iostate@12@B DD 04H		; std::_Iosb<int>::badbit
CONST	ENDS
;	COMDAT ?failbit@?$_Iosb@H@std@@2W4_Iostate@12@B
CONST	SEGMENT
?failbit@?$_Iosb@H@std@@2W4_Iostate@12@B DD 02H		; std::_Iosb<int>::failbit
CONST	ENDS
;	COMDAT ?eofbit@?$_Iosb@H@std@@2W4_Iostate@12@B
CONST	SEGMENT
?eofbit@?$_Iosb@H@std@@2W4_Iostate@12@B DD 01H		; std::_Iosb<int>::eofbit
CONST	ENDS
;	COMDAT ?goodbit@?$_Iosb@H@std@@2W4_Iostate@12@B
CONST	SEGMENT
?goodbit@?$_Iosb@H@std@@2W4_Iostate@12@B DD 00H		; std::_Iosb<int>::goodbit
CONST	ENDS
;	COMDAT ?floatfield@?$_Iosb@H@std@@2W4_Fmtflags@12@B
CONST	SEGMENT
?floatfield@?$_Iosb@H@std@@2W4_Fmtflags@12@B DD 03000H	; std::_Iosb<int>::floatfield
CONST	ENDS
;	COMDAT ?basefield@?$_Iosb@H@std@@2W4_Fmtflags@12@B
CONST	SEGMENT
?basefield@?$_Iosb@H@std@@2W4_Fmtflags@12@B DD 0e00H	; std::_Iosb<int>::basefield
CONST	ENDS
;	COMDAT ?adjustfield@?$_Iosb@H@std@@2W4_Fmtflags@12@B
CONST	SEGMENT
?adjustfield@?$_Iosb@H@std@@2W4_Fmtflags@12@B DD 01c0H	; std::_Iosb<int>::adjustfield
CONST	ENDS
;	COMDAT ?_Stdio@?$_Iosb@H@std@@2W4_Fmtflags@12@B
CONST	SEGMENT
?_Stdio@?$_Iosb@H@std@@2W4_Fmtflags@12@B DD 08000H	; std::_Iosb<int>::_Stdio
CONST	ENDS
;	COMDAT ?boolalpha@?$_Iosb@H@std@@2W4_Fmtflags@12@B
CONST	SEGMENT
?boolalpha@?$_Iosb@H@std@@2W4_Fmtflags@12@B DD 04000H	; std::_Iosb<int>::boolalpha
CONST	ENDS
;	COMDAT ?hexfloat@?$_Iosb@H@std@@2W4_Fmtflags@12@B
CONST	SEGMENT
?hexfloat@?$_Iosb@H@std@@2W4_Fmtflags@12@B DD 03000H	; std::_Iosb<int>::hexfloat
CONST	ENDS
;	COMDAT ?fixed@?$_Iosb@H@std@@2W4_Fmtflags@12@B
CONST	SEGMENT
?fixed@?$_Iosb@H@std@@2W4_Fmtflags@12@B DD 02000H	; std::_Iosb<int>::fixed
CONST	ENDS
;	COMDAT ?scientific@?$_Iosb@H@std@@2W4_Fmtflags@12@B
CONST	SEGMENT
?scientific@?$_Iosb@H@std@@2W4_Fmtflags@12@B DD 01000H	; std::_Iosb<int>::scientific
CONST	ENDS
;	COMDAT ?hex@?$_Iosb@H@std@@2W4_Fmtflags@12@B
CONST	SEGMENT
?hex@?$_Iosb@H@std@@2W4_Fmtflags@12@B DD 0800H		; std::_Iosb<int>::hex
CONST	ENDS
;	COMDAT ?oct@?$_Iosb@H@std@@2W4_Fmtflags@12@B
CONST	SEGMENT
?oct@?$_Iosb@H@std@@2W4_Fmtflags@12@B DD 0400H		; std::_Iosb<int>::oct
CONST	ENDS
;	COMDAT ?dec@?$_Iosb@H@std@@2W4_Fmtflags@12@B
CONST	SEGMENT
?dec@?$_Iosb@H@std@@2W4_Fmtflags@12@B DD 0200H		; std::_Iosb<int>::dec
CONST	ENDS
;	COMDAT ?internal@?$_Iosb@H@std@@2W4_Fmtflags@12@B
CONST	SEGMENT
?internal@?$_Iosb@H@std@@2W4_Fmtflags@12@B DD 0100H	; std::_Iosb<int>::internal
CONST	ENDS
;	COMDAT ?min_exponent10@?$numeric_limits@O@std@@2HB
CONST	SEGMENT
?min_exponent10@?$numeric_limits@O@std@@2HB DD 0fffffecdH ; std::numeric_limits<long double>::min_exponent10
CONST	ENDS
;	COMDAT ?right@?$_Iosb@H@std@@2W4_Fmtflags@12@B
CONST	SEGMENT
?right@?$_Iosb@H@std@@2W4_Fmtflags@12@B DD 080H		; std::_Iosb<int>::right
CONST	ENDS
;	COMDAT ?min_exponent@?$numeric_limits@O@std@@2HB
CONST	SEGMENT
?min_exponent@?$numeric_limits@O@std@@2HB DD 0fffffc03H	; std::numeric_limits<long double>::min_exponent
CONST	ENDS
;	COMDAT ?left@?$_Iosb@H@std@@2W4_Fmtflags@12@B
CONST	SEGMENT
?left@?$_Iosb@H@std@@2W4_Fmtflags@12@B DD 040H		; std::_Iosb<int>::left
CONST	ENDS
;	COMDAT ?max_exponent10@?$numeric_limits@O@std@@2HB
CONST	SEGMENT
?max_exponent10@?$numeric_limits@O@std@@2HB DD 0134H	; std::numeric_limits<long double>::max_exponent10
CONST	ENDS
;	COMDAT ?showpos@?$_Iosb@H@std@@2W4_Fmtflags@12@B
CONST	SEGMENT
?showpos@?$_Iosb@H@std@@2W4_Fmtflags@12@B DD 020H	; std::_Iosb<int>::showpos
CONST	ENDS
;	COMDAT ?max_exponent@?$numeric_limits@O@std@@2HB
CONST	SEGMENT
?max_exponent@?$numeric_limits@O@std@@2HB DD 0400H	; std::numeric_limits<long double>::max_exponent
CONST	ENDS
;	COMDAT ?showpoint@?$_Iosb@H@std@@2W4_Fmtflags@12@B
CONST	SEGMENT
?showpoint@?$_Iosb@H@std@@2W4_Fmtflags@12@B DD 010H	; std::_Iosb<int>::showpoint
CONST	ENDS
;	COMDAT ?showbase@?$_Iosb@H@std@@2W4_Fmtflags@12@B
CONST	SEGMENT
?showbase@?$_Iosb@H@std@@2W4_Fmtflags@12@B DD 08H	; std::_Iosb<int>::showbase
CONST	ENDS
;	COMDAT ?max_digits10@?$numeric_limits@O@std@@2HB
CONST	SEGMENT
?max_digits10@?$numeric_limits@O@std@@2HB DD 011H	; std::numeric_limits<long double>::max_digits10
CONST	ENDS
;	COMDAT ?uppercase@?$_Iosb@H@std@@2W4_Fmtflags@12@B
CONST	SEGMENT
?uppercase@?$_Iosb@H@std@@2W4_Fmtflags@12@B DD 04H	; std::_Iosb<int>::uppercase
CONST	ENDS
;	COMDAT ?digits10@?$numeric_limits@O@std@@2HB
CONST	SEGMENT
?digits10@?$numeric_limits@O@std@@2HB DD 0fH		; std::numeric_limits<long double>::digits10
CONST	ENDS
;	COMDAT ?unitbuf@?$_Iosb@H@std@@2W4_Fmtflags@12@B
CONST	SEGMENT
?unitbuf@?$_Iosb@H@std@@2W4_Fmtflags@12@B DD 02H	; std::_Iosb<int>::unitbuf
CONST	ENDS
;	COMDAT ?digits@?$numeric_limits@O@std@@2HB
CONST	SEGMENT
?digits@?$numeric_limits@O@std@@2HB DD 035H		; std::numeric_limits<long double>::digits
CONST	ENDS
;	COMDAT ?skipws@?$_Iosb@H@std@@2W4_Fmtflags@12@B
CONST	SEGMENT
?skipws@?$_Iosb@H@std@@2W4_Fmtflags@12@B DD 01H		; std::_Iosb<int>::skipws
CONST	ENDS
;	COMDAT ?min_exponent10@?$numeric_limits@N@std@@2HB
CONST	SEGMENT
?min_exponent10@?$numeric_limits@N@std@@2HB DD 0fffffecdH ; std::numeric_limits<double>::min_exponent10
CONST	ENDS
;	COMDAT ?min_exponent@?$numeric_limits@N@std@@2HB
CONST	SEGMENT
?min_exponent@?$numeric_limits@N@std@@2HB DD 0fffffc03H	; std::numeric_limits<double>::min_exponent
CONST	ENDS
;	COMDAT ?max_exponent10@?$numeric_limits@N@std@@2HB
CONST	SEGMENT
?max_exponent10@?$numeric_limits@N@std@@2HB DD 0134H	; std::numeric_limits<double>::max_exponent10
CONST	ENDS
;	COMDAT ?max_exponent@?$numeric_limits@N@std@@2HB
CONST	SEGMENT
?max_exponent@?$numeric_limits@N@std@@2HB DD 0400H	; std::numeric_limits<double>::max_exponent
CONST	ENDS
;	COMDAT ?max_digits10@?$numeric_limits@N@std@@2HB
CONST	SEGMENT
?max_digits10@?$numeric_limits@N@std@@2HB DD 011H	; std::numeric_limits<double>::max_digits10
CONST	ENDS
;	COMDAT ?digits10@?$numeric_limits@N@std@@2HB
CONST	SEGMENT
?digits10@?$numeric_limits@N@std@@2HB DD 0fH		; std::numeric_limits<double>::digits10
CONST	ENDS
;	COMDAT ?digits@?$numeric_limits@N@std@@2HB
CONST	SEGMENT
?digits@?$numeric_limits@N@std@@2HB DD 035H		; std::numeric_limits<double>::digits
CONST	ENDS
;	COMDAT ?min_exponent10@?$numeric_limits@M@std@@2HB
CONST	SEGMENT
?min_exponent10@?$numeric_limits@M@std@@2HB DD 0ffffffdbH ; std::numeric_limits<float>::min_exponent10
CONST	ENDS
;	COMDAT ?min_exponent@?$numeric_limits@M@std@@2HB
CONST	SEGMENT
?min_exponent@?$numeric_limits@M@std@@2HB DD 0ffffff83H	; std::numeric_limits<float>::min_exponent
CONST	ENDS
;	COMDAT ?max_exponent10@?$numeric_limits@M@std@@2HB
CONST	SEGMENT
?max_exponent10@?$numeric_limits@M@std@@2HB DD 026H	; std::numeric_limits<float>::max_exponent10
CONST	ENDS
;	COMDAT ?max_exponent@?$numeric_limits@M@std@@2HB
CONST	SEGMENT
?max_exponent@?$numeric_limits@M@std@@2HB DD 080H	; std::numeric_limits<float>::max_exponent
CONST	ENDS
;	COMDAT ?max_digits10@?$numeric_limits@M@std@@2HB
CONST	SEGMENT
?max_digits10@?$numeric_limits@M@std@@2HB DD 09H	; std::numeric_limits<float>::max_digits10
CONST	ENDS
;	COMDAT ?digits10@?$numeric_limits@M@std@@2HB
CONST	SEGMENT
?digits10@?$numeric_limits@M@std@@2HB DD 06H		; std::numeric_limits<float>::digits10
CONST	ENDS
;	COMDAT ?digits@?$numeric_limits@M@std@@2HB
CONST	SEGMENT
?digits@?$numeric_limits@M@std@@2HB DD 018H		; std::numeric_limits<float>::digits
CONST	ENDS
;	COMDAT ?digits10@?$numeric_limits@_K@std@@2HB
CONST	SEGMENT
?digits10@?$numeric_limits@_K@std@@2HB DD 013H		; std::numeric_limits<unsigned __int64>::digits10
CONST	ENDS
;	COMDAT ?digits@?$numeric_limits@_K@std@@2HB
CONST	SEGMENT
?digits@?$numeric_limits@_K@std@@2HB DD 040H		; std::numeric_limits<unsigned __int64>::digits
CONST	ENDS
;	COMDAT ?value@?$integral_constant@I$0A@@std@@2IB
CONST	SEGMENT
?value@?$integral_constant@I$0A@@std@@2IB DD 00H	; std::integral_constant<unsigned int,0>::value
CONST	ENDS
;	COMDAT ?is_signed@?$numeric_limits@_K@std@@2_NB
CONST	SEGMENT
?is_signed@?$numeric_limits@_K@std@@2_NB DB 00H		; std::numeric_limits<unsigned __int64>::is_signed
CONST	ENDS
;	COMDAT ?digits10@?$numeric_limits@_J@std@@2HB
CONST	SEGMENT
?digits10@?$numeric_limits@_J@std@@2HB DD 012H		; std::numeric_limits<__int64>::digits10
CONST	ENDS
;	COMDAT ?digits@?$numeric_limits@_J@std@@2HB
CONST	SEGMENT
?digits@?$numeric_limits@_J@std@@2HB DD 03fH		; std::numeric_limits<__int64>::digits
CONST	ENDS
;	COMDAT ?is_signed@?$numeric_limits@_J@std@@2_NB
CONST	SEGMENT
?is_signed@?$numeric_limits@_J@std@@2_NB DB 01H		; std::numeric_limits<__int64>::is_signed
CONST	ENDS
;	COMDAT ?digits10@?$numeric_limits@K@std@@2HB
CONST	SEGMENT
?digits10@?$numeric_limits@K@std@@2HB DD 09H		; std::numeric_limits<unsigned long>::digits10
CONST	ENDS
;	COMDAT ?digits@?$numeric_limits@K@std@@2HB
CONST	SEGMENT
?digits@?$numeric_limits@K@std@@2HB DD 020H		; std::numeric_limits<unsigned long>::digits
CONST	ENDS
;	COMDAT ?is_signed@?$numeric_limits@K@std@@2_NB
CONST	SEGMENT
?is_signed@?$numeric_limits@K@std@@2_NB DB 00H		; std::numeric_limits<unsigned long>::is_signed
CONST	ENDS
;	COMDAT ?digits10@?$numeric_limits@J@std@@2HB
CONST	SEGMENT
?digits10@?$numeric_limits@J@std@@2HB DD 09H		; std::numeric_limits<long>::digits10
CONST	ENDS
;	COMDAT ?digits@?$numeric_limits@J@std@@2HB
CONST	SEGMENT
?digits@?$numeric_limits@J@std@@2HB DD 01fH		; std::numeric_limits<long>::digits
CONST	ENDS
;	COMDAT ?is_signed@?$numeric_limits@J@std@@2_NB
CONST	SEGMENT
?is_signed@?$numeric_limits@J@std@@2_NB DB 01H		; std::numeric_limits<long>::is_signed
CONST	ENDS
;	COMDAT ?digits10@?$numeric_limits@I@std@@2HB
CONST	SEGMENT
?digits10@?$numeric_limits@I@std@@2HB DD 09H		; std::numeric_limits<unsigned int>::digits10
CONST	ENDS
;	COMDAT ?digits@?$numeric_limits@I@std@@2HB
CONST	SEGMENT
?digits@?$numeric_limits@I@std@@2HB DD 020H		; std::numeric_limits<unsigned int>::digits
CONST	ENDS
;	COMDAT ?is_signed@?$numeric_limits@I@std@@2_NB
CONST	SEGMENT
?is_signed@?$numeric_limits@I@std@@2_NB DB 00H		; std::numeric_limits<unsigned int>::is_signed
CONST	ENDS
;	COMDAT ?digits10@?$numeric_limits@H@std@@2HB
CONST	SEGMENT
?digits10@?$numeric_limits@H@std@@2HB DD 09H		; std::numeric_limits<int>::digits10
CONST	ENDS
;	COMDAT ?digits@?$numeric_limits@H@std@@2HB
CONST	SEGMENT
?digits@?$numeric_limits@H@std@@2HB DD 01fH		; std::numeric_limits<int>::digits
CONST	ENDS
;	COMDAT ?is_signed@?$numeric_limits@H@std@@2_NB
CONST	SEGMENT
?is_signed@?$numeric_limits@H@std@@2_NB DB 01H		; std::numeric_limits<int>::is_signed
CONST	ENDS
;	COMDAT ?digits10@?$numeric_limits@G@std@@2HB
CONST	SEGMENT
?digits10@?$numeric_limits@G@std@@2HB DD 04H		; std::numeric_limits<unsigned short>::digits10
CONST	ENDS
;	COMDAT ?digits@?$numeric_limits@G@std@@2HB
CONST	SEGMENT
?digits@?$numeric_limits@G@std@@2HB DD 010H		; std::numeric_limits<unsigned short>::digits
CONST	ENDS
;	COMDAT ?is_signed@?$numeric_limits@G@std@@2_NB
CONST	SEGMENT
?is_signed@?$numeric_limits@G@std@@2_NB DB 00H		; std::numeric_limits<unsigned short>::is_signed
CONST	ENDS
;	COMDAT ?digits10@?$numeric_limits@F@std@@2HB
CONST	SEGMENT
?digits10@?$numeric_limits@F@std@@2HB DD 04H		; std::numeric_limits<short>::digits10
CONST	ENDS
;	COMDAT ?digits@?$numeric_limits@F@std@@2HB
CONST	SEGMENT
?digits@?$numeric_limits@F@std@@2HB DD 0fH		; std::numeric_limits<short>::digits
CONST	ENDS
;	COMDAT ?is_signed@?$numeric_limits@F@std@@2_NB
CONST	SEGMENT
?is_signed@?$numeric_limits@F@std@@2_NB DB 01H		; std::numeric_limits<short>::is_signed
CONST	ENDS
;	COMDAT ?value@?$_Sizeof@HU_Nil@std@@U12@U12@U12@U12@U12@U12@@std@@2IB
CONST	SEGMENT
?value@?$_Sizeof@HU_Nil@std@@U12@U12@U12@U12@U12@U12@@std@@2IB DD 01H ; std::_Sizeof<int,std::_Nil,std::_Nil,std::_Nil,std::_Nil,std::_Nil,std::_Nil,std::_Nil>::value
CONST	ENDS
;	COMDAT ?value@?$integral_constant@_N$00@std@@2_NB
CONST	SEGMENT
?value@?$integral_constant@_N$00@std@@2_NB DB 01H	; std::integral_constant<bool,1>::value
CONST	ENDS
;	COMDAT ?value@?$integral_constant@_N$0A@@std@@2_NB
CONST	SEGMENT
?value@?$integral_constant@_N$0A@@std@@2_NB DB 00H	; std::integral_constant<bool,0>::value
CONST	ENDS
;	COMDAT ?digits10@?$numeric_limits@E@std@@2HB
CONST	SEGMENT
?digits10@?$numeric_limits@E@std@@2HB DD 02H		; std::numeric_limits<unsigned char>::digits10
CONST	ENDS
;	COMDAT ?digits@?$numeric_limits@E@std@@2HB
CONST	SEGMENT
?digits@?$numeric_limits@E@std@@2HB DD 08H		; std::numeric_limits<unsigned char>::digits
CONST	ENDS
;	COMDAT ?is_signed@?$numeric_limits@E@std@@2_NB
CONST	SEGMENT
?is_signed@?$numeric_limits@E@std@@2_NB DB 00H		; std::numeric_limits<unsigned char>::is_signed
CONST	ENDS
;	COMDAT ?table_size@?$ctype@D@std@@2IB
CONST	SEGMENT
?table_size@?$ctype@D@std@@2IB DD 0100H			; std::ctype<char>::table_size
CONST	ENDS
;	COMDAT ?digits10@?$numeric_limits@C@std@@2HB
CONST	SEGMENT
?digits10@?$numeric_limits@C@std@@2HB DD 02H		; std::numeric_limits<signed char>::digits10
CONST	ENDS
;	COMDAT ?digits@?$numeric_limits@C@std@@2HB
CONST	SEGMENT
?digits@?$numeric_limits@C@std@@2HB DD 07H		; std::numeric_limits<signed char>::digits
CONST	ENDS
;	COMDAT ?is_signed@?$numeric_limits@C@std@@2_NB
CONST	SEGMENT
?is_signed@?$numeric_limits@C@std@@2_NB DB 01H		; std::numeric_limits<signed char>::is_signed
CONST	ENDS
_DATA	SEGMENT
_cloudPntList DD 0c5bcc000r			; -6040
	DD	0c4070000r			; -540
	DD	0c694ac00r			; -19030
	DD	0c6de1c00r			; -28430
	DD	0c4dfc000r			; -1790
	DD	046dcc800r			; 28260
	DD	047104200r			; 36930
	DD	045732000r			; 3890
	DD	04744ea00r			; 50410
	DD	045336000r			; 2870
	DD	0c4d48000r			; -1700
	DD	04736da00r			; 46810
	DD	0c763ee00r			; -58350
	DD	0c4d48000r			; -1700
	DD	0c64c1000r			; -13060
	DD	046f2bc00r			; 31070
	DD	045480000r			; 3200
	DD	0c7293800r			; -43320
	DD	0c7bdc400r			; -97160
	DD	0c4d48000r			; -1700
	DD	04576e000r			; 3950
	DD	0c792e000r			; -75200
	DD	0c4bb8000r			; -1500
	DD	047957400r			; 76520
	DD	04759ee00r			; 55790
	DD	0c5a1e000r			; -5180
	DD	0c7a24e00r			; -83100
	DD	0c7473800r			; -51000
	DD	0c3a00000r			; -320
	DD	0c7829100r			; -66850
	DD	047733400r			; 62260
	DD	0c3a00000r			; -320
	DD	047708200r			; 61570
	DD	0c7710e00r			; -61710
	DD	0c550c000r			; -3340
	DD	046fb7c00r			; 32190
	DD	0c7719a00r			; -61850
	DD	0c7483200r			; -51250
	DD	047543a00r			; 54330
	DD	0c5bcc000r			; -6040
	DD	0c7495400r			; -51540
	DD	0c694ac00r			; -19030
	DD	0c6a7a800r			; -21460
	DD	0c74b0200r			; -51970
	DD	0468e8000r			; 18240
	DD	047298800r			; 43400
	DD	0c74bf200r			; -52210
	DD	046bc7000r			; 24120
	DD	0c749f400r			; -51700
	DD	0c74bc000r			; -52160
	DD	046948400r			; 19010
	DD	0c605e800r			; -8570
	DD	0c7488200r			; -51330
	DD	0c74ca600r			; -52390
	DD	04731bc00r			; 45500
	DD	0c7509800r			; -53400
	DD	0c6725800r			; -15510
	DD	0c7719a00r			; -61850
	DD	0c7483200r			; -51250
	DD	047543a00r			; 54330
	DD	047553400r			; 54580
	DD	0c74ddc00r			; -52700
	DD	0479a5600r			; 79020
	DD	047a7e400r			; 85960
	DD	0c74c5600r			; -52310
	DD	0477d4800r			; 64840
	DD	0c7c44500r			; -100490
	DD	0c74d1400r			; -52500
	DD	047ac2600r			; 88140
	DD	0c7a1ae00r			; -82780
	DD	0c749ea00r			; -51690
	DD	0c7bce300r			; -96710
	DD	0c6126800r			; -9370
	DD	0c7495400r			; -51540
	DD	043cd0000r			; 410
	DD	0c6a7a800r			; -21460
	DD	0c74a8a00r			; -51850
	DD	0473fae00r			; 49070
	DD	0457c8000r			; 4040
	DD	0c74e4a00r			; -52810
	DD	047871e00r			; 69180
	DD	0c6cbc000r			; -26080
	DD	0c74bc000r			; -52160
	DD	046984400r			; 19490
	DD	0452fa000r			; 2810
	DD	0c7488200r			; -51330
	DD	0c7081800r			; -34840
	DD	0c7719a00r			; -61850
	DD	0c749d600r			; -51670
	DD	047b17600r			; 90860
	DD	047553400r			; 54580
	DD	0c74ddc00r			; -52700
	DD	0479a5600r			; 79020
	DD	047a7e400r			; 85960
	DD	0c74c5600r			; -52310
	DD	0477d4800r			; 64840
	DD	0c7c44500r			; -100490
	DD	0c74d1400r			; -52500
	DD	047ac2600r			; 88140
	DD	047c04e00r			; 98460
	DD	0c74d1400r			; -52500
	DD	0c732a200r			; -45730
	DD	0467b9000r			; 16100
	DD	0c7487800r			; -51320
	DD	0c749a400r			; -51620
	DD	047636c00r			; 58220
	DD	0c74e0400r			; -52740
	DD	0c760b000r			; -57520
	DD	0c6126800r			; -9370
	DD	0c4070000r			; -540
	DD	043cd0000r			; 410
	DD	0c4e60000r			; -1840
	DD	0c6a30c00r			; -20870
	DD	0470a6600r			; 35430
	DD	0c7230c00r			; -41740
	DD	046924000r			; 18720
	DD	04797d600r			; 77740
	DD	0460d9000r			; 9060
	DD	0c616c800r			; -9650
	DD	0c7921300r			; -74790
_lightningPosList DD 041300000r			; 11
	DD	000000000r			; 0
	DD	040e00000r			; 7
	DD	040a00000r			; 5
	DD	041100000r			; 9
	DD	041000000r			; 8
	DD	041000000r			; 8
	DD	041600000r			; 14
	DD	041800000r			; 16
	DD	041a00000r			; 20
	DD	041200000r			; 10
	DD	041c00000r			; 24
	DD	041300000r			; 11
	DD	041d80000r			; 27
	DD	040c00000r			; 6
	DD	041f00000r			; 30
	DD	040e00000r			; 7
	DD	042040000r			; 33
	DD	03f800000r			; 1
	DD	042180000r			; 38
	DD	040a00000r			; 5
	DD	042280000r			; 42
	DD	040a00000r			; 5
	DD	042340000r			; 45
	DD	041400000r			; 12
	DD	042400000r			; 48
	DD	041a00000r			; 20
	DD	042500000r			; 52
	DD	041a00000r			; 20
	DD	042680000r			; 58
	DD	041b80000r			; 23
	DD	042740000r			; 61
	DD	041b00000r			; 22
	DD	0427c0000r			; 63
	DD	041b00000r			; 22
	DD	042840000r			; 66
	DD	041c80000r			; 25
	DD	042880000r			; 68
	DD	041a00000r			; 20
	DD	0428c0000r			; 70
	DD	041c00000r			; 24
	DD	042960000r			; 75
	DD	041c00000r			; 24
	DD	0429a0000r			; 77
	DD	041f80000r			; 31
	DD	042a00000r			; 80
	DD	041f80000r			; 31
	DD	042a60000r			; 83
	DD	042040000r			; 33
	DD	042b00000r			; 88
	DD	041f80000r			; 31
	DD	042b80000r			; 92
	DD	0423c0000r			; 47
	DD	042ce0000r			; 103
	DD	042380000r			; 46
	DD	042d20000r			; 105
	DD	0423c0000r			; 47
	DD	042d60000r			; 107
	DD	042340000r			; 45
	DD	042e00000r			; 112
	DD	042400000r			; 48
	DD	042e40000r			; 114
	DD	042380000r			; 46
	DD	042ea0000r			; 117
	DD	0422c0000r			; 43
	DD	043000000r			; 128
?gOutOfSimFlag@@3HA DD 01H				; gOutOfSimFlag
_matrix33_ident DD 03f800000r			; 1
	DD	000000000r			; 0
	DD	000000000r			; 0
	DD	000000000r			; 0
	DD	03f800000r			; 1
	DD	000000000r			; 0
	DD	000000000r			; 0
	DD	000000000r			; 0
	DD	03f800000r			; 1
_matrix44_ident DD 03f800000r			; 1
	DD	000000000r			; 0
	DD	000000000r			; 0
	DD	000000000r			; 0
	DD	000000000r			; 0
	DD	03f800000r			; 1
	DD	000000000r			; 0
	DD	000000000r			; 0
	DD	000000000r			; 0
	DD	000000000r			; 0
	DD	03f800000r			; 1
	DD	000000000r			; 0
	DD	000000000r			; 0
	DD	000000000r			; 0
	DD	000000000r			; 0
	DD	03f800000r			; 1
_DATA	ENDS
;	COMDAT ?digits10@?$numeric_limits@_N@std@@2HB
CONST	SEGMENT
?digits10@?$numeric_limits@_N@std@@2HB DD 00H		; std::numeric_limits<bool>::digits10
CONST	ENDS
;	COMDAT ?digits@?$numeric_limits@_N@std@@2HB
CONST	SEGMENT
?digits@?$numeric_limits@_N@std@@2HB DD 01H		; std::numeric_limits<bool>::digits
CONST	ENDS
;	COMDAT ?is_signed@?$numeric_limits@_N@std@@2_NB
CONST	SEGMENT
?is_signed@?$numeric_limits@_N@std@@2_NB DB 00H		; std::numeric_limits<bool>::is_signed
CONST	ENDS
;	COMDAT ?is_modulo@?$numeric_limits@_N@std@@2_NB
CONST	SEGMENT
?is_modulo@?$numeric_limits@_N@std@@2_NB DB 00H		; std::numeric_limits<bool>::is_modulo
CONST	ENDS
;	COMDAT ?digits10@?$numeric_limits@_W@std@@2HB
CONST	SEGMENT
?digits10@?$numeric_limits@_W@std@@2HB DD 04H		; std::numeric_limits<wchar_t>::digits10
CONST	ENDS
;	COMDAT ?digits@?$numeric_limits@_W@std@@2HB
CONST	SEGMENT
?digits@?$numeric_limits@_W@std@@2HB DD 010H		; std::numeric_limits<wchar_t>::digits
CONST	ENDS
;	COMDAT ?is_signed@?$numeric_limits@_W@std@@2_NB
CONST	SEGMENT
?is_signed@?$numeric_limits@_W@std@@2_NB DB 00H		; std::numeric_limits<wchar_t>::is_signed
CONST	ENDS
;	COMDAT ?none@?$_Locbase@H@std@@2HB
CONST	SEGMENT
?none@?$_Locbase@H@std@@2HB DD 00H			; std::_Locbase<int>::none
CONST	ENDS
;	COMDAT ?all@?$_Locbase@H@std@@2HB
CONST	SEGMENT
?all@?$_Locbase@H@std@@2HB DD 03fH			; std::_Locbase<int>::all
CONST	ENDS
;	COMDAT ?messages@?$_Locbase@H@std@@2HB
CONST	SEGMENT
?messages@?$_Locbase@H@std@@2HB DD 020H			; std::_Locbase<int>::messages
CONST	ENDS
;	COMDAT ?time@?$_Locbase@H@std@@2HB
CONST	SEGMENT
?time@?$_Locbase@H@std@@2HB DD 010H			; std::_Locbase<int>::time
CONST	ENDS
;	COMDAT ?numeric@?$_Locbase@H@std@@2HB
CONST	SEGMENT
?numeric@?$_Locbase@H@std@@2HB DD 08H			; std::_Locbase<int>::numeric
CONST	ENDS
;	COMDAT ?digits10@?$numeric_limits@D@std@@2HB
CONST	SEGMENT
?digits10@?$numeric_limits@D@std@@2HB DD 02H		; std::numeric_limits<char>::digits10
CONST	ENDS
;	COMDAT ?monetary@?$_Locbase@H@std@@2HB
CONST	SEGMENT
?monetary@?$_Locbase@H@std@@2HB DD 04H			; std::_Locbase<int>::monetary
CONST	ENDS
;	COMDAT ?digits@?$numeric_limits@D@std@@2HB
CONST	SEGMENT
?digits@?$numeric_limits@D@std@@2HB DD 07H		; std::numeric_limits<char>::digits
CONST	ENDS
;	COMDAT ?ctype@?$_Locbase@H@std@@2HB
CONST	SEGMENT
?ctype@?$_Locbase@H@std@@2HB DD 02H			; std::_Locbase<int>::ctype
CONST	ENDS
;	COMDAT ?collate@?$_Locbase@H@std@@2HB
CONST	SEGMENT
?collate@?$_Locbase@H@std@@2HB DD 01H			; std::_Locbase<int>::collate
CONST	ENDS
;	COMDAT ?is_signed@?$numeric_limits@D@std@@2_NB
CONST	SEGMENT
?is_signed@?$numeric_limits@D@std@@2_NB DB 01H		; std::numeric_limits<char>::is_signed
CONST	ENDS
;	COMDAT ?radix@_Num_float_base@std@@2HB
CONST	SEGMENT
?radix@_Num_float_base@std@@2HB DD 02H			; std::_Num_float_base::radix
CONST	ENDS
;	COMDAT ?round_style@_Num_float_base@std@@2W4float_round_style@2@B
CONST	SEGMENT
?round_style@_Num_float_base@std@@2W4float_round_style@2@B DD 01H ; std::_Num_float_base::round_style
CONST	ENDS
;	COMDAT ?traps@_Num_float_base@std@@2_NB
CONST	SEGMENT
?traps@_Num_float_base@std@@2_NB DB 00H			; std::_Num_float_base::traps
CONST	ENDS
;	COMDAT ?tinyness_before@_Num_float_base@std@@2_NB
CONST	SEGMENT
?tinyness_before@_Num_float_base@std@@2_NB DB 01H	; std::_Num_float_base::tinyness_before
CONST	ENDS
;	COMDAT ?is_specialized@_Num_float_base@std@@2_NB
CONST	SEGMENT
?is_specialized@_Num_float_base@std@@2_NB DB 01H	; std::_Num_float_base::is_specialized
CONST	ENDS
;	COMDAT ?is_signed@_Num_float_base@std@@2_NB
CONST	SEGMENT
?is_signed@_Num_float_base@std@@2_NB DB 01H		; std::_Num_float_base::is_signed
CONST	ENDS
;	COMDAT ?is_modulo@_Num_float_base@std@@2_NB
CONST	SEGMENT
?is_modulo@_Num_float_base@std@@2_NB DB 00H		; std::_Num_float_base::is_modulo
CONST	ENDS
;	COMDAT ?is_integer@_Num_float_base@std@@2_NB
CONST	SEGMENT
?is_integer@_Num_float_base@std@@2_NB DB 00H		; std::_Num_float_base::is_integer
CONST	ENDS
;	COMDAT ?is_iec559@_Num_float_base@std@@2_NB
CONST	SEGMENT
?is_iec559@_Num_float_base@std@@2_NB DB 01H		; std::_Num_float_base::is_iec559
CONST	ENDS
;	COMDAT ?is_exact@_Num_float_base@std@@2_NB
CONST	SEGMENT
?is_exact@_Num_float_base@std@@2_NB DB 00H		; std::_Num_float_base::is_exact
CONST	ENDS
;	COMDAT ?is_bounded@_Num_float_base@std@@2_NB
CONST	SEGMENT
?is_bounded@_Num_float_base@std@@2_NB DB 01H		; std::_Num_float_base::is_bounded
CONST	ENDS
;	COMDAT ?has_signaling_NaN@_Num_float_base@std@@2_NB
CONST	SEGMENT
?has_signaling_NaN@_Num_float_base@std@@2_NB DB 01H	; std::_Num_float_base::has_signaling_NaN
CONST	ENDS
;	COMDAT ?has_quiet_NaN@_Num_float_base@std@@2_NB
CONST	SEGMENT
?has_quiet_NaN@_Num_float_base@std@@2_NB DB 01H		; std::_Num_float_base::has_quiet_NaN
CONST	ENDS
;	COMDAT ?has_infinity@_Num_float_base@std@@2_NB
CONST	SEGMENT
?has_infinity@_Num_float_base@std@@2_NB DB 01H		; std::_Num_float_base::has_infinity
CONST	ENDS
;	COMDAT ?has_denorm_loss@_Num_float_base@std@@2_NB
CONST	SEGMENT
?has_denorm_loss@_Num_float_base@std@@2_NB DB 01H	; std::_Num_float_base::has_denorm_loss
CONST	ENDS
;	COMDAT ?has_denorm@_Num_float_base@std@@2W4float_denorm_style@2@B
CONST	SEGMENT
?has_denorm@_Num_float_base@std@@2W4float_denorm_style@2@B DD 01H ; std::_Num_float_base::has_denorm
CONST	ENDS
;	COMDAT ?radix@_Num_int_base@std@@2HB
CONST	SEGMENT
?radix@_Num_int_base@std@@2HB DD 02H			; std::_Num_int_base::radix
CONST	ENDS
;	COMDAT ?is_specialized@_Num_int_base@std@@2_NB
CONST	SEGMENT
?is_specialized@_Num_int_base@std@@2_NB DB 01H		; std::_Num_int_base::is_specialized
CONST	ENDS
;	COMDAT ?is_modulo@_Num_int_base@std@@2_NB
CONST	SEGMENT
?is_modulo@_Num_int_base@std@@2_NB DB 01H		; std::_Num_int_base::is_modulo
CONST	ENDS
;	COMDAT ?is_integer@_Num_int_base@std@@2_NB
CONST	SEGMENT
?is_integer@_Num_int_base@std@@2_NB DB 01H		; std::_Num_int_base::is_integer
CONST	ENDS
;	COMDAT ?is_exact@_Num_int_base@std@@2_NB
CONST	SEGMENT
?is_exact@_Num_int_base@std@@2_NB DB 01H		; std::_Num_int_base::is_exact
CONST	ENDS
;	COMDAT ?is_bounded@_Num_int_base@std@@2_NB
CONST	SEGMENT
?is_bounded@_Num_int_base@std@@2_NB DB 01H		; std::_Num_int_base::is_bounded
CONST	ENDS
CONST	SEGMENT
_NEAR_CLIP DD	03f800000r			; 1
_L_2	DD	03f317218r			; 0.693147
CONST	ENDS
;	COMDAT ?radix@_Num_base@std@@2HB
CONST	SEGMENT
?radix@_Num_base@std@@2HB DD 00H			; std::_Num_base::radix
CONST	ENDS
;	COMDAT ?min_exponent10@_Num_base@std@@2HB
CONST	SEGMENT
?min_exponent10@_Num_base@std@@2HB DD 00H		; std::_Num_base::min_exponent10
CONST	ENDS
;	COMDAT ?min_exponent@_Num_base@std@@2HB
CONST	SEGMENT
?min_exponent@_Num_base@std@@2HB DD 00H			; std::_Num_base::min_exponent
CONST	ENDS
;	COMDAT ?max_exponent10@_Num_base@std@@2HB
CONST	SEGMENT
?max_exponent10@_Num_base@std@@2HB DD 00H		; std::_Num_base::max_exponent10
CONST	ENDS
;	COMDAT ?max_exponent@_Num_base@std@@2HB
CONST	SEGMENT
?max_exponent@_Num_base@std@@2HB DD 00H			; std::_Num_base::max_exponent
CONST	ENDS
;	COMDAT ?max_digits10@_Num_base@std@@2HB
CONST	SEGMENT
?max_digits10@_Num_base@std@@2HB DD 00H			; std::_Num_base::max_digits10
CONST	ENDS
;	COMDAT ?digits10@_Num_base@std@@2HB
CONST	SEGMENT
?digits10@_Num_base@std@@2HB DD 00H			; std::_Num_base::digits10
CONST	ENDS
;	COMDAT ?digits@_Num_base@std@@2HB
CONST	SEGMENT
?digits@_Num_base@std@@2HB DD 00H			; std::_Num_base::digits
CONST	ENDS
;	COMDAT ?CMPDIRTYDATA_INTERVAL@FalconEntity@@2KB
CONST	SEGMENT
?CMPDIRTYDATA_INTERVAL@FalconEntity@@2KB DD 0c8H	; FalconEntity::CMPDIRTYDATA_INTERVAL
CONST	ENDS
;	COMDAT ?round_style@_Num_base@std@@2W4float_round_style@2@B
CONST	SEGMENT
?round_style@_Num_base@std@@2W4float_round_style@2@B DD 00H ; std::_Num_base::round_style
CONST	ENDS
PUBLIC	_fabsf
PUBLIC	?abs@@YAMM@Z					; abs
PUBLIC	??2@YAPAXIPAX@Z					; operator new
PUBLIC	??3@YAXPAX0@Z					; operator delete
PUBLIC	?length@?$char_traits@D@std@@SAIPBD@Z		; std::char_traits<char>::length
PUBLIC	?copy@?$char_traits@D@std@@SAPADPADPBDI@Z	; std::char_traits<char>::copy
PUBLIC	?move@?$char_traits@D@std@@SAPADPADPBDI@Z	; std::char_traits<char>::move
PUBLIC	?assign@?$char_traits@D@std@@SAXAADABD@Z	; std::char_traits<char>::assign
PUBLIC	??0?$allocator@D@std@@QAE@XZ			; std::allocator<char>::allocator<char>
PUBLIC	?deallocate@?$allocator@D@std@@QAEXPADI@Z	; std::allocator<char>::deallocate
PUBLIC	?allocate@?$allocator@D@std@@QAEPADI@Z		; std::allocator<char>::allocate
PUBLIC	?max_size@?$allocator@D@std@@QBEIXZ		; std::allocator<char>::max_size
PUBLIC	?max_size@?$allocator_traits@V?$allocator@D@std@@@std@@SAIABV?$allocator@D@2@@Z ; std::allocator_traits<std::allocator<char> >::max_size
PUBLIC	??0?$_Wrap_alloc@V?$allocator@D@std@@@std@@QAE@XZ ; std::_Wrap_alloc<std::allocator<char> >::_Wrap_alloc<std::allocator<char> >
PUBLIC	?allocate@?$_Wrap_alloc@V?$allocator@D@std@@@std@@QAEPADI@Z ; std::_Wrap_alloc<std::allocator<char> >::allocate
PUBLIC	?deallocate@?$_Wrap_alloc@V?$allocator@D@std@@@std@@QAEXPADI@Z ; std::_Wrap_alloc<std::allocator<char> >::deallocate
PUBLIC	?max_size@?$_Wrap_alloc@V?$allocator@D@std@@@std@@QBEIXZ ; std::_Wrap_alloc<std::allocator<char> >::max_size
PUBLIC	??0?$_String_val@U?$_Simple_types@D@std@@@std@@QAE@XZ ; std::_String_val<std::_Simple_types<char> >::_String_val<std::_Simple_types<char> >
PUBLIC	?_Myptr@?$_String_val@U?$_Simple_types@D@std@@@std@@QAEPADXZ ; std::_String_val<std::_Simple_types<char> >::_Myptr
PUBLIC	?_Myptr@?$_String_val@U?$_Simple_types@D@std@@@std@@QBEPBDXZ ; std::_String_val<std::_Simple_types<char> >::_Myptr
PUBLIC	??0?$_String_alloc@$0A@U?$_String_base_types@DV?$allocator@D@std@@@std@@@std@@QAE@ABV?$allocator@D@1@@Z ; std::_String_alloc<0,std::_String_base_types<char,std::allocator<char> > >::_String_alloc<0,std::_String_base_types<char,std::allocator<char> > >
PUBLIC	?_Getal@?$_String_alloc@$0A@U?$_String_base_types@DV?$allocator@D@std@@@std@@@std@@QBE?AU?$_Wrap_alloc@V?$allocator@D@std@@@2@XZ ; std::_String_alloc<0,std::_String_base_types<char,std::allocator<char> > >::_Getal
PUBLIC	??0?$basic_string@DU?$char_traits@D@std@@V?$allocator@D@2@@std@@QAE@PBD@Z ; std::basic_string<char,std::char_traits<char>,std::allocator<char> >::basic_string<char,std::char_traits<char>,std::allocator<char> >
PUBLIC	?assign@?$basic_string@DU?$char_traits@D@std@@V?$allocator@D@2@@std@@QAEAAV12@ABV12@II@Z ; std::basic_string<char,std::char_traits<char>,std::allocator<char> >::assign
PUBLIC	?assign@?$basic_string@DU?$char_traits@D@std@@V?$allocator@D@2@@std@@QAEAAV12@PBDI@Z ; std::basic_string<char,std::char_traits<char>,std::allocator<char> >::assign
PUBLIC	?assign@?$basic_string@DU?$char_traits@D@std@@V?$allocator@D@2@@std@@QAEAAV12@PBD@Z ; std::basic_string<char,std::char_traits<char>,std::allocator<char> >::assign
PUBLIC	?erase@?$basic_string@DU?$char_traits@D@std@@V?$allocator@D@2@@std@@QAEAAV12@I@Z ; std::basic_string<char,std::char_traits<char>,std::allocator<char> >::erase
PUBLIC	?erase@?$basic_string@DU?$char_traits@D@std@@V?$allocator@D@2@@std@@QAEAAV12@II@Z ; std::basic_string<char,std::char_traits<char>,std::allocator<char> >::erase
PUBLIC	?size@?$basic_string@DU?$char_traits@D@std@@V?$allocator@D@2@@std@@QBEIXZ ; std::basic_string<char,std::char_traits<char>,std::allocator<char> >::size
PUBLIC	?max_size@?$basic_string@DU?$char_traits@D@std@@V?$allocator@D@2@@std@@QBEIXZ ; std::basic_string<char,std::char_traits<char>,std::allocator<char> >::max_size
PUBLIC	?_Copy@?$basic_string@DU?$char_traits@D@std@@V?$allocator@D@2@@std@@QAEXII@Z ; std::basic_string<char,std::char_traits<char>,std::allocator<char> >::_Copy
PUBLIC	?_Eos@?$basic_string@DU?$char_traits@D@std@@V?$allocator@D@2@@std@@QAEXI@Z ; std::basic_string<char,std::char_traits<char>,std::allocator<char> >::_Eos
PUBLIC	?_Grow@?$basic_string@DU?$char_traits@D@std@@V?$allocator@D@2@@std@@QAE_NI_N@Z ; std::basic_string<char,std::char_traits<char>,std::allocator<char> >::_Grow
PUBLIC	?_Inside@?$basic_string@DU?$char_traits@D@std@@V?$allocator@D@2@@std@@QAE_NPBD@Z ; std::basic_string<char,std::char_traits<char>,std::allocator<char> >::_Inside
PUBLIC	?_Tidy@?$basic_string@DU?$char_traits@D@std@@V?$allocator@D@2@@std@@QAEX_NI@Z ; std::basic_string<char,std::char_traits<char>,std::allocator<char> >::_Tidy
PUBLIC	?_Xlen@?$basic_string@DU?$char_traits@D@std@@V?$allocator@D@2@@std@@QBEXXZ ; std::basic_string<char,std::char_traits<char>,std::allocator<char> >::_Xlen
PUBLIC	?_Xran@?$basic_string@DU?$char_traits@D@std@@V?$allocator@D@2@@std@@QBEXXZ ; std::basic_string<char,std::char_traits<char>,std::allocator<char> >::_Xran
PUBLIC	??0VU_SESSION_ID@@QAE@K@Z			; VU_SESSION_ID::VU_SESSION_ID
PUBLIC	??8VU_SESSION_ID@@QBEHABV0@@Z			; VU_SESSION_ID::operator==
PUBLIC	??0VU_ID@@QAE@XZ				; VU_ID::VU_ID
PUBLIC	??8VU_ID@@QBE_NABV0@@Z				; VU_ID::operator==
PUBLIC	??9VU_ID@@QBE_NABV0@@Z				; VU_ID::operator!=
PUBLIC	?Id@VuEntity@@QBE?AVVU_ID@@XZ			; VuEntity::Id
PUBLIC	?Type@VuEntity@@QBEGXZ				; VuEntity::Type
PUBLIC	?XPos@VuEntity@@QBEMXZ				; VuEntity::XPos
PUBLIC	?YPos@VuEntity@@QBEMXZ				; VuEntity::YPos
PUBLIC	?ZPos@VuEntity@@QBEMXZ				; VuEntity::ZPos
PUBLIC	?Yaw@VuEntity@@QBEMXZ				; VuEntity::Yaw
PUBLIC	?Pitch@VuEntity@@QBEMXZ				; VuEntity::Pitch
PUBLIC	?Roll@VuEntity@@QBEMXZ				; VuEntity::Roll
PUBLIC	?EntityType@VuEntity@@QBEPAUVuEntityType@@XZ	; VuEntity::EntityType
PUBLIC	?EntityDriver@VuEntity@@QAEPAVVuDriver@@XZ	; VuEntity::EntityDriver
PUBLIC	??B?$VuBin@VVuSessionEntity@@@@QBE_NXZ		; VuBin<VuSessionEntity>::operator bool
PUBLIC	?get@?$VuBin@VVuSessionEntity@@@@QBEPAVVuSessionEntity@@XZ ; VuBin<VuSessionEntity>::get
PUBLIC	?get@?$VuBin@VFalconEntity@@@@QBEPAVFalconEntity@@XZ ; VuBin<FalconEntity>::get
PUBLIC	?GetFlyState@FalconSessionEntity@@QBEEXZ	; FalconSessionEntity::GetFlyState
PUBLIC	?GetGame@FalconSessionEntity@@QAEPAVFalconGameEntity@@XZ ; FalconSessionEntity::GetGame
PUBLIC	?IsSetFalcFlag@FalconEntity@@QAEHH@Z		; FalconEntity::IsSetFalcFlag
PUBLIC	?UnSetFELocalFlag@FalconEntity@@QAEXH@Z		; FalconEntity::UnSetFELocalFlag
PUBLIC	?IsSetFELocalFlag@FalconEntity@@QAEHH@Z		; FalconEntity::IsSetFELocalFlag
PUBLIC	?get@?$VuBin@VCampBaseClass@@@@QBEPAVCampBaseClass@@XZ ; VuBin<CampBaseClass>::get
PUBLIC	?GetCallsignIdx@SimBaseClass@@QAEHXZ		; SimBaseClass::GetCallsignIdx
PUBLIC	?GetSlot@SimBaseClass@@QAEHXZ			; SimBaseClass::GetSlot
PUBLIC	?GetSType@SimBaseClass@@QBEEXZ			; SimBaseClass::GetSType
PUBLIC	?IsDying@SimBaseClass@@QBEHXZ			; SimBaseClass::IsDying
PUBLIC	?IsAwake@SimBaseClass@@QBEHXZ			; SimBaseClass::IsAwake
PUBLIC	?IsSetFlag@SimBaseClass@@QBEHH@Z		; SimBaseClass::IsSetFlag
PUBLIC	?IsSetRemoveFlag@SimBaseClass@@QBEHXZ		; SimBaseClass::IsSetRemoveFlag
PUBLIC	?Status@SimBaseClass@@QBEHXZ			; SimBaseClass::Status
PUBLIC	?GetCampaignObject@SimBaseClass@@QAEPAVCampBaseClass@@XZ ; SimBaseClass::GetCampaignObject
PUBLIC	?GetDOFValue@SimMoverClass@@QAEMH@Z		; SimMoverClass::GetDOFValue
PUBLIC	?GetSwitch@SimMoverClass@@QAEHH@Z		; SimMoverClass::GetSwitch
PUBLIC	?GetNumSwitches@SimMoverClass@@QAEHXZ		; SimMoverClass::GetNumSwitches
PUBLIC	?GetNumDOFs@SimMoverClass@@QAEHXZ		; SimMoverClass::GetNumDOFs
PUBLIC	?checked_atan2@@YANNN@Z				; checked_atan2
PUBLIC	??0id@locale@std@@QAE@I@Z			; std::locale::id::id
PUBLIC	?generic_category@std@@YAABVerror_category@1@XZ	; std::generic_category
PUBLIC	?system_category@std@@YAABVerror_category@1@XZ	; std::system_category
PUBLIC	??0error_category@std@@QAE@XZ			; std::error_category::error_category
PUBLIC	??1error_category@std@@UAE@XZ			; std::error_category::~error_category
PUBLIC	?default_error_condition@error_category@std@@UBE?AVerror_condition@2@H@Z ; std::error_category::default_error_condition
PUBLIC	?equivalent@error_category@std@@UBE_NHABVerror_condition@2@@Z ; std::error_category::equivalent
PUBLIC	?equivalent@error_category@std@@UBE_NABVerror_code@2@H@Z ; std::error_category::equivalent
PUBLIC	??8error_category@std@@QBE_NABV01@@Z		; std::error_category::operator==
PUBLIC	??_Gerror_category@std@@UAEPAXI@Z		; std::error_category::`scalar deleting destructor'
PUBLIC	?value@error_code@std@@QBEHXZ			; std::error_code::value
PUBLIC	?category@error_code@std@@QBEABVerror_category@2@XZ ; std::error_code::category
PUBLIC	??0error_condition@std@@QAE@HABVerror_category@1@@Z ; std::error_condition::error_condition
PUBLIC	?value@error_condition@std@@QBEHXZ		; std::error_condition::value
PUBLIC	?category@error_condition@std@@QBEABVerror_category@2@XZ ; std::error_condition::category
PUBLIC	??8error_condition@std@@QBE_NABV01@@Z		; std::error_condition::operator==
PUBLIC	??0_Generic_error_category@std@@QAE@XZ		; std::_Generic_error_category::_Generic_error_category
PUBLIC	?name@_Generic_error_category@std@@UBEPBDXZ	; std::_Generic_error_category::name
PUBLIC	?message@_Generic_error_category@std@@UBE?AV?$basic_string@DU?$char_traits@D@std@@V?$allocator@D@2@@2@H@Z ; std::_Generic_error_category::message
PUBLIC	??1_Generic_error_category@std@@UAE@XZ		; std::_Generic_error_category::~_Generic_error_category
PUBLIC	??_G_Generic_error_category@std@@UAEPAXI@Z	; std::_Generic_error_category::`scalar deleting destructor'
PUBLIC	??0_Iostream_error_category@std@@QAE@XZ		; std::_Iostream_error_category::_Iostream_error_category
PUBLIC	?name@_Iostream_error_category@std@@UBEPBDXZ	; std::_Iostream_error_category::name
PUBLIC	?message@_Iostream_error_category@std@@UBE?AV?$basic_string@DU?$char_traits@D@std@@V?$allocator@D@2@@2@H@Z ; std::_Iostream_error_category::message
PUBLIC	??1_Iostream_error_category@std@@UAE@XZ		; std::_Iostream_error_category::~_Iostream_error_category
PUBLIC	??_G_Iostream_error_category@std@@UAEPAXI@Z	; std::_Iostream_error_category::`scalar deleting destructor'
PUBLIC	??0_System_error_category@std@@QAE@XZ		; std::_System_error_category::_System_error_category
PUBLIC	?name@_System_error_category@std@@UBEPBDXZ	; std::_System_error_category::name
PUBLIC	?message@_System_error_category@std@@UBE?AV?$basic_string@DU?$char_traits@D@std@@V?$allocator@D@2@@2@H@Z ; std::_System_error_category::message
PUBLIC	?default_error_condition@_System_error_category@std@@UBE?AVerror_condition@2@H@Z ; std::_System_error_category::default_error_condition
PUBLIC	??1_System_error_category@std@@UAE@XZ		; std::_System_error_category::~_System_error_category
PUBLIC	??_G_System_error_category@std@@UAEPAXI@Z	; std::_System_error_category::`scalar deleting destructor'
PUBLIC	?GetColor@TeamClass@@QAEHXZ			; TeamClass::GetColor
PUBLIC	?ObjectDeaggLevel@PlayerOptionsClass@@QAEHXZ	; PlayerOptionsClass::ObjectDeaggLevel
PUBLIC	?BuildingDeaggLevel@PlayerOptionsClass@@QAEHXZ	; PlayerOptionsClass::BuildingDeaggLevel
PUBLIC	?DisplayInCockpit@OTWDriverClass@@QAEHXZ	; OTWDriverClass::DisplayInCockpit
PUBLIC	?SetActive@OTWDriverClass@@QAEXH@Z		; OTWDriverClass::SetActive
PUBLIC	?GetSType@CampBaseClass@@QBEEXZ			; CampBaseClass::GetSType
PUBLIC	??1UnitFilter@@UAE@XZ				; UnitFilter::~UnitFilter
PUBLIC	?Compare@UnitFilter@@UAEHPAVVuEntity@@0@Z	; UnitFilter::Compare
PUBLIC	?Copy@UnitFilter@@UAEPAVVuFilter@@XZ		; UnitFilter::Copy
PUBLIC	??_GUnitFilter@@UAEPAXI@Z			; UnitFilter::`scalar deleting destructor'
PUBLIC	??1ObjFilter@@UAE@XZ				; ObjFilter::~ObjFilter
PUBLIC	?Compare@ObjFilter@@UAEHPAVVuEntity@@0@Z	; ObjFilter::Compare
PUBLIC	?Copy@ObjFilter@@UAEPAVVuFilter@@XZ		; ObjFilter::Copy
PUBLIC	??_GObjFilter@@UAEPAXI@Z			; ObjFilter::`scalar deleting destructor'
PUBLIC	??0SimulationDriver@@QAE@XZ			; SimulationDriver::SimulationDriver
PUBLIC	??1SimulationDriver@@QAE@XZ			; SimulationDriver::~SimulationDriver
PUBLIC	?Startup@SimulationDriver@@QAEXXZ		; SimulationDriver::Startup
PUBLIC	?Cleanup@SimulationDriver@@QAEXXZ		; SimulationDriver::Cleanup
PUBLIC	?Cycle@SimulationDriver@@QAEXXZ			; SimulationDriver::Cycle
PUBLIC	?Enter@SimulationDriver@@QAEXXZ			; SimulationDriver::Enter
PUBLIC	?Exit@SimulationDriver@@QAEXXZ			; SimulationDriver::Exit
PUBLIC	?RunningDogfight@SimulationDriver@@QBE_NXZ	; SimulationDriver::RunningDogfight
PUBLIC	?RunningTactical@SimulationDriver@@QBE_NXZ	; SimulationDriver::RunningTactical
PUBLIC	?Pause@SimulationDriver@@QAEXXZ			; SimulationDriver::Pause
PUBLIC	?NoPause@SimulationDriver@@QAEXXZ		; SimulationDriver::NoPause
PUBLIC	?TogglePause@SimulationDriver@@QAEXXZ		; SimulationDriver::TogglePause
PUBLIC	?SetFrameDescription@SimulationDriver@@QAEXHH@Z	; SimulationDriver::SetFrameDescription
PUBLIC	?SetPlayerEntity@SimulationDriver@@QAEXPAVSimMoverClass@@@Z ; SimulationDriver::SetPlayerEntity
PUBLIC	?GetPlayerAircraft@SimulationDriver@@QBEPAVAircraftClass@@XZ ; SimulationDriver::GetPlayerAircraft
PUBLIC	?UpdateIAStats@SimulationDriver@@QAEXPAVSimBaseClass@@@Z ; SimulationDriver::UpdateIAStats
PUBLIC	?FindNearestThreat@SimulationDriver@@QAEPAVSimBaseClass@@PAM00@Z ; SimulationDriver::FindNearestThreat
PUBLIC	?FindNearestThreat@SimulationDriver@@QAEPAVSimBaseClass@@PAF0PAM@Z ; SimulationDriver::FindNearestThreat
PUBLIC	?FindNearestThreat@SimulationDriver@@QAEPAVSimBaseClass@@PAVAircraftClass@@PAF1PAM@Z ; SimulationDriver::FindNearestThreat
PUBLIC	?FindNearestEnemyPlane@SimulationDriver@@QAEPAVSimBaseClass@@PAVAircraftClass@@PAF1PAM@Z ; SimulationDriver::FindNearestEnemyPlane
PUBLIC	?FindNearestCampThreat@SimulationDriver@@QAEPAVCampBaseClass@@PAVAircraftClass@@PAF1PAM@Z ; SimulationDriver::FindNearestCampThreat
PUBLIC	?FindNearestCampEnemy@SimulationDriver@@QAEPAVCampBaseClass@@PAVAircraftClass@@PAF1PAM@Z ; SimulationDriver::FindNearestCampEnemy
PUBLIC	?FindNearestTraffic@SimulationDriver@@QAEPAVSimBaseClass@@PAVAircraftClass@@PAVObjectiveClass@@PAM@Z ; SimulationDriver::FindNearestTraffic
PUBLIC	?FindTrafficConflict@SimulationDriver@@QAEXPAVSimBaseClass@@PAVAircraftClass@@PAVObjectiveClass@@@Z ; SimulationDriver::FindTrafficConflict
PUBLIC	?UpdateRemoteData@SimulationDriver@@QAEXXZ	; SimulationDriver::UpdateRemoteData
PUBLIC	?SetAVTR@SimulationDriver@@QAEXH@Z		; SimulationDriver::SetAVTR
PUBLIC	?AddToFeatureList@SimulationDriver@@QAEXPAVVuEntity@@@Z ; SimulationDriver::AddToFeatureList
PUBLIC	?AddToObjectList@SimulationDriver@@QAEXPAVVuEntity@@@Z ; SimulationDriver::AddToObjectList
PUBLIC	?AddToCampUnitList@SimulationDriver@@QAEXPAVVuEntity@@@Z ; SimulationDriver::AddToCampUnitList
PUBLIC	?AddToCampFeatList@SimulationDriver@@QAEXPAVVuEntity@@@Z ; SimulationDriver::AddToCampFeatList
PUBLIC	?AddToCombUnitList@SimulationDriver@@QAEXPAVVuEntity@@@Z ; SimulationDriver::AddToCombUnitList
PUBLIC	?AddToCombFeatList@SimulationDriver@@QAEXPAVVuEntity@@@Z ; SimulationDriver::AddToCombFeatList
PUBLIC	?RemoveFromFeatureList@SimulationDriver@@QAEXPAVVuEntity@@@Z ; SimulationDriver::RemoveFromFeatureList
PUBLIC	?RemoveFromObjectList@SimulationDriver@@QAEXPAVVuEntity@@@Z ; SimulationDriver::RemoveFromObjectList
PUBLIC	?RemoveFromCampUnitList@SimulationDriver@@QAEXPAVVuEntity@@@Z ; SimulationDriver::RemoveFromCampUnitList
PUBLIC	?RemoveFromCampFeatList@SimulationDriver@@QAEXPAVVuEntity@@@Z ; SimulationDriver::RemoveFromCampFeatList
PUBLIC	?InitACMIRecord@SimulationDriver@@QAEXXZ	; SimulationDriver::InitACMIRecord
PUBLIC	?POVKludgeFunction@SimulationDriver@@QAEXK@Z	; SimulationDriver::POVKludgeFunction
PUBLIC	?InitializeSimMemoryPools@SimulationDriver@@QAEXXZ ; SimulationDriver::InitializeSimMemoryPools
PUBLIC	?ReleaseSimMemoryPools@SimulationDriver@@QAEXXZ	; SimulationDriver::ReleaseSimMemoryPools
PUBLIC	?ShrinkSimMemoryPools@SimulationDriver@@QAEXXZ	; SimulationDriver::ShrinkSimMemoryPools
PUBLIC	?WakeCampaignBase@SimulationDriver@@QAEXHPAVCampBaseClass@@PAVTailInsertList@@@Z ; SimulationDriver::WakeCampaignBase
PUBLIC	?WakeObject@SimulationDriver@@QAEXPAVSimBaseClass@@@Z ; SimulationDriver::WakeObject
PUBLIC	?SleepCampaignFlight@SimulationDriver@@QAEXPAVTailInsertList@@@Z ; SimulationDriver::SleepCampaignFlight
PUBLIC	?SleepObject@SimulationDriver@@QAEXPAVSimBaseClass@@@Z ; SimulationDriver::SleepObject
PUBLIC	?UpdateEntityLists@SimulationDriver@@AAEXXZ	; SimulationDriver::UpdateEntityLists
PUBLIC	?CurrentTarget@SensorClass@@QAEPAVSimObjectType@@XZ ; SensorClass::CurrentTarget
PUBLIC	?IsSetBombFlag@BombClass@@QAEHH@Z		; BombClass::IsSetBombFlag
PUBLIC	?IsRecording@ACMIRecorder@@QAEHXZ		; ACMIRecorder::IsRecording
PUBLIC	?BaseData@SimObjectType@@QAEPAVFalconEntity@@XZ	; SimObjectType::BaseData
PUBLIC	?Label@DrawableBSP@@QAEPADXZ			; DrawableBSP::Label
PUBLIC	??$construct@PADAAPAD@?$_Wrap_alloc@V?$allocator@D@std@@@std@@QAEXPAPADAAPAD@Z ; std::_Wrap_alloc<std::allocator<char> >::construct<char *,char * &>
PUBLIC	??$destroy@PAD@?$_Wrap_alloc@V?$allocator@D@std@@@std@@QAEXPAPAD@Z ; std::_Wrap_alloc<std::allocator<char> >::destroy<char *>
PUBLIC	??$addressof@D@std@@YAPADAAD@Z			; std::addressof<char>
PUBLIC	??$_Allocate@D@std@@YAPADIPAD@Z			; std::_Allocate<char>
PUBLIC	??$forward@AAPAD@std@@YAAAPADAAPAD@Z		; std::forward<char * &>
PUBLIC	??$construct@PADAAPAD@?$allocator_traits@V?$allocator@D@std@@@std@@SAXAAV?$allocator@D@1@PAPADAAPAD@Z ; std::allocator_traits<std::allocator<char> >::construct<char *,char * &>
PUBLIC	??$destroy@PAD@?$allocator_traits@V?$allocator@D@std@@@std@@SAXAAV?$allocator@D@1@PAPAD@Z ; std::allocator_traits<std::allocator<char> >::destroy<char *>
PUBLIC	??$construct@PADAAPAD@?$allocator@D@std@@QAEXPAPADAAPAD@Z ; std::allocator<char>::construct<char *,char * &>
PUBLIC	??$destroy@PAD@?$allocator@D@std@@QAEXPAPAD@Z	; std::allocator<char>::destroy<char *>
PUBLIC	??_7error_category@std@@6B@			; std::error_category::`vftable'
PUBLIC	??_7_Generic_error_category@std@@6B@		; std::_Generic_error_category::`vftable'
PUBLIC	??_C@_07DCLBNMLN@generic?$AA@			; `string'
PUBLIC	??_C@_0O@BFJCFAAK@unknown?5error?$AA@		; `string'
PUBLIC	??_7_Iostream_error_category@std@@6B@		; std::_Iostream_error_category::`vftable'
PUBLIC	??_C@_08LLGCOLLL@iostream?$AA@			; `string'
PUBLIC	??_C@_0BG@PADBLCHM@iostream?5stream?5error?$AA@	; `string'
PUBLIC	??_7_System_error_category@std@@6B@		; std::_System_error_category::`vftable'
PUBLIC	??_C@_06FHFOAHML@system?$AA@			; `string'
PUBLIC	?_Generic_object@?$_Error_objects@H@std@@2V_Generic_error_category@2@A ; std::_Error_objects<int>::_Generic_object
PUBLIC	?_Iostream_object@?$_Error_objects@H@std@@2V_Iostream_error_category@2@A ; std::_Error_objects<int>::_Iostream_object
PUBLIC	?_System_object@?$_Error_objects@H@std@@2V_System_error_category@2@A ; std::_Error_objects<int>::_System_object
PUBLIC	?id@?$num_put@DV?$back_insert_iterator@V?$basic_string@DU?$char_traits@D@std@@V?$allocator@D@2@@std@@@std@@@std@@2V0locale@2@A ; std::num_put<char,std::back_insert_iterator<std::basic_string<char,std::char_traits<char>,std::allocator<char> > > >::id
PUBLIC	?id@?$num_put@_WV?$back_insert_iterator@V?$basic_string@_WU?$char_traits@_W@std@@V?$allocator@_W@2@@std@@@std@@@std@@2V0locale@2@A ; std::num_put<wchar_t,std::back_insert_iterator<std::basic_string<wchar_t,std::char_traits<wchar_t>,std::allocator<wchar_t> > > >::id
PUBLIC	??_7UnitFilter@@6B@				; UnitFilter::`vftable'
PUBLIC	??_7ObjFilter@@6B@				; ObjFilter::`vftable'
PUBLIC	?SimDriver@@3VSimulationDriver@@A		; SimDriver
PUBLIC	??_C@_02GMLFBBN@wb?$AA@				; `string'
PUBLIC	??_C@_03MHODNABG@acm?$AA@			; `string'
PUBLIC	??_C@_07KFGPMNDK@lastflt?$AA@			; `string'
PUBLIC	??_C@_08KHFFPPFI@joy1?4dat?$AA@			; `string'
PUBLIC	??_C@_0BH@MCIBMPHE@No?5Joystick?5Connected?6?$AA@ ; `string'
PUBLIC	??_C@_0BG@JDDPNFOC@10?5Instrument?5Landing?$AA@	; `string'
PUBLIC	??_C@_0CD@CFEJHFML@Initializing?5Sim?5Memory?5Pools?4?4?4@ ; `string'
PUBLIC	??_C@_0CA@GIKOJPJG@Releasing?5Sim?5Memory?5Pools?4?4?4?4?6?$AA@ ; `string'
PUBLIC	?id@?$numpunct@D@std@@2V0locale@2@A		; std::numpunct<char>::id
PUBLIC	?id@?$numpunct@_W@std@@2V0locale@2@A		; std::numpunct<wchar_t>::id
PUBLIC	??_C@_0BI@CFPLBAOH@invalid?5string?5position?$AA@ ; `string'
PUBLIC	??_C@_0BA@JFNIOLAK@string?5too?5long?$AA@	; `string'
PUBLIC	??_R0?AVVuFilter@@@8				; VuFilter `RTTI Type Descriptor'
PUBLIC	??_R3VuFilter@@8				; VuFilter::`RTTI Class Hierarchy Descriptor'
PUBLIC	??_R2VuFilter@@8				; VuFilter::`RTTI Base Class Array'
PUBLIC	??_R1A@?0A@EA@VuFilter@@8			; VuFilter::`RTTI Base Class Descriptor at (0,-1,0,64)'
PUBLIC	??_R4error_category@std@@6B@			; std::error_category::`RTTI Complete Object Locator'
PUBLIC	??_R0?AVerror_category@std@@@8			; std::error_category `RTTI Type Descriptor'
PUBLIC	??_R3error_category@std@@8			; std::error_category::`RTTI Class Hierarchy Descriptor'
PUBLIC	??_R2error_category@std@@8			; std::error_category::`RTTI Base Class Array'
PUBLIC	??_R1A@?0A@EA@error_category@std@@8		; std::error_category::`RTTI Base Class Descriptor at (0,-1,0,64)'
PUBLIC	??_R4_Generic_error_category@std@@6B@		; std::_Generic_error_category::`RTTI Complete Object Locator'
PUBLIC	??_R0?AV_Generic_error_category@std@@@8		; std::_Generic_error_category `RTTI Type Descriptor'
PUBLIC	??_R3_Generic_error_category@std@@8		; std::_Generic_error_category::`RTTI Class Hierarchy Descriptor'
PUBLIC	??_R2_Generic_error_category@std@@8		; std::_Generic_error_category::`RTTI Base Class Array'
PUBLIC	??_R1A@?0A@EA@_Generic_error_category@std@@8	; std::_Generic_error_category::`RTTI Base Class Descriptor at (0,-1,0,64)'
PUBLIC	??_R4_Iostream_error_category@std@@6B@		; std::_Iostream_error_category::`RTTI Complete Object Locator'
PUBLIC	??_R0?AV_Iostream_error_category@std@@@8	; std::_Iostream_error_category `RTTI Type Descriptor'
PUBLIC	??_R3_Iostream_error_category@std@@8		; std::_Iostream_error_category::`RTTI Class Hierarchy Descriptor'
PUBLIC	??_R2_Iostream_error_category@std@@8		; std::_Iostream_error_category::`RTTI Base Class Array'
PUBLIC	??_R1A@?0A@EA@_Iostream_error_category@std@@8	; std::_Iostream_error_category::`RTTI Base Class Descriptor at (0,-1,0,64)'
PUBLIC	??_R4_System_error_category@std@@6B@		; std::_System_error_category::`RTTI Complete Object Locator'
PUBLIC	??_R0?AV_System_error_category@std@@@8		; std::_System_error_category `RTTI Type Descriptor'
PUBLIC	??_R3_System_error_category@std@@8		; std::_System_error_category::`RTTI Class Hierarchy Descriptor'
PUBLIC	??_R2_System_error_category@std@@8		; std::_System_error_category::`RTTI Base Class Array'
PUBLIC	??_R1A@?0A@EA@_System_error_category@std@@8	; std::_System_error_category::`RTTI Base Class Descriptor at (0,-1,0,64)'
PUBLIC	??_R4UnitFilter@@6B@				; UnitFilter::`RTTI Complete Object Locator'
PUBLIC	??_R0?AVUnitFilter@@@8				; UnitFilter `RTTI Type Descriptor'
PUBLIC	??_R3UnitFilter@@8				; UnitFilter::`RTTI Class Hierarchy Descriptor'
PUBLIC	??_R2UnitFilter@@8				; UnitFilter::`RTTI Base Class Array'
PUBLIC	??_R1A@?0A@EA@UnitFilter@@8			; UnitFilter::`RTTI Base Class Descriptor at (0,-1,0,64)'
PUBLIC	??_R4ObjFilter@@6B@				; ObjFilter::`RTTI Complete Object Locator'
PUBLIC	??_R0?AVObjFilter@@@8				; ObjFilter `RTTI Type Descriptor'
PUBLIC	??_R3ObjFilter@@8				; ObjFilter::`RTTI Class Hierarchy Descriptor'
PUBLIC	??_R2ObjFilter@@8				; ObjFilter::`RTTI Base Class Array'
PUBLIC	??_R1A@?0A@EA@ObjFilter@@8			; ObjFilter::`RTTI Base Class Descriptor at (0,-1,0,64)'
PUBLIC	__real@00000000
PUBLIC	__real@0000000000000000
PUBLIC	__real@3a83126f
PUBLIC	__real@3c23d70a
PUBLIC	__real@3d4ccccd
PUBLIC	__real@3f000000
PUBLIC	__real@3f800000
PUBLIC	__real@3ff921fb54442d18
PUBLIC	__real@40000000
PUBLIC	__real@400921fb54442d18
PUBLIC	__real@40a00000
PUBLIC	__real@41200000
PUBLIC	__real@42652ee1
PUBLIC	__real@42c80000
PUBLIC	__real@43b40000
PUBLIC	__real@447a0000
PUBLIC	__real@8000000000000000
PUBLIC	__real@bff921fb54442d18
PUBLIC	__real@c8435000
PUBLIC	__xmm@41f00000000000000000000000000000
PUBLIC	__xmm@80000000800000008000000080000000
EXTRN	__purecall:PROC
EXTRN	??2@YAPAXI@Z:PROC				; operator new
EXTRN	??3@YAXPAX@Z:PROC				; operator delete
EXTRN	_atexit:PROC
EXTRN	_atan:PROC
EXTRN	_fabs:PROC
EXTRN	_memmove:PROC
EXTRN	_memcpy:PROC
EXTRN	_strlen:PROC
EXTRN	_strcmpi:PROC
EXTRN	_fclose:PROC
EXTRN	?_Xbad_alloc@std@@YAXXZ:PROC			; std::_Xbad_alloc
EXTRN	?_Xlength_error@std@@YAXPBD@Z:PROC		; std::_Xlength_error
EXTRN	?_Xout_of_range@std@@YAXPBD@Z:PROC		; std::_Xout_of_range
EXTRN	?VuReferenceEntity@@YAHPAVVuEntity@@@Z:PROC	; VuReferenceEntity
EXTRN	?VuDeReferenceEntity@@YAHPAVVuEntity@@@Z:PROC	; VuDeReferenceEntity
EXTRN	?SetPosition@VuEntity@@QAEXMMM@Z:PROC		; VuEntity::SetPosition
EXTRN	?IsLocal@VuEntity@@QBEEXZ:PROC			; VuEntity::IsLocal
EXTRN	__imp__SetEvent@4:PROC
EXTRN	?Register@VuCollection@@QAEXXZ:PROC		; VuCollection::Register
EXTRN	?Unregister@VuCollection@@QAEXXZ:PROC		; VuCollection::Unregister
EXTRN	?Remove@VuCollection@@QAEHPAVVuEntity@@@Z:PROC	; VuCollection::Remove
EXTRN	??0VuLinkedList@@QAE@PAVVuFilter@@@Z:PROC	; VuLinkedList::VuLinkedList
EXTRN	?Remove@VuDatabase@@QAEHPAVVuEntity@@@Z:PROC	; VuDatabase::Remove
EXTRN	??1VuFilter@@UAE@XZ:PROC			; VuFilter::~VuFilter
EXTRN	?Notice@VuFilter@@UAEEPAVVuMessage@@@Z:PROC	; VuFilter::Notice
EXTRN	??0VuListIterator@@QAE@PAVVuLinkedList@@@Z:PROC	; VuListIterator::VuListIterator
EXTRN	??1VuListIterator@@UAE@XZ:PROC			; VuListIterator::~VuListIterator
EXTRN	?GetFirst@VuListIterator@@QAEPAVVuEntity@@XZ:PROC ; VuListIterator::GetFirst
EXTRN	?GetNext@VuListIterator@@QAEPAVVuEntity@@XZ:PROC ; VuListIterator::GetNext
EXTRN	??0VuGridIterator@@QAE@PAVVuGridTree@@MMM@Z:PROC ; VuGridIterator::VuGridIterator
EXTRN	??1VuGridIterator@@UAE@XZ:PROC			; VuGridIterator::~VuGridIterator
EXTRN	?GetFirst@VuGridIterator@@QAEPAVVuEntity@@XZ:PROC ; VuGridIterator::GetFirst
EXTRN	?GetNext@VuGridIterator@@QAEPAVVuEntity@@XZ:PROC ; VuGridIterator::GetNext
EXTRN	?Game@VuSessionEntity@@QAEPAVVuGameEntity@@XZ:PROC ; VuSessionEntity::Game
EXTRN	?GetGameType@FalconGameEntity@@QAE?AW4FalconGameType@@XZ:PROC ; FalconGameEntity::GetGameType
EXTRN	?SetFlyState@FalconSessionEntity@@QAEXE@Z:PROC	; FalconSessionEntity::SetFlyState
EXTRN	_F4SoundStop:PROC
EXTRN	_F4HearVoices:PROC
EXTRN	_F4SilenceVoices:PROC
EXTRN	_F4SoundFXSetDist:PROC
EXTRN	_F4SoundFXPositionDriver:PROC
EXTRN	_F4SoundFXEnd:PROC
EXTRN	?SetCampaignObject@SimBaseClass@@QAEXPAVCampBaseClass@@@Z:PROC ; SimBaseClass::SetCampaignObject
EXTRN	_MonoPrint:PROC
EXTRN	?F4IsBadReadPtr@@YA_NPBXI@Z:PROC		; F4IsBadReadPtr
EXTRN	??_Eerror_category@std@@UAEPAXI@Z:PROC		; std::error_category::`vector deleting destructor'
EXTRN	?_Syserror_map@std@@YAPBDH@Z:PROC		; std::_Syserror_map
EXTRN	?_Winerror_map@std@@YAPBDH@Z:PROC		; std::_Winerror_map
EXTRN	??_E_Generic_error_category@std@@UAEPAXI@Z:PROC	; std::_Generic_error_category::`vector deleting destructor'
EXTRN	??_E_Iostream_error_category@std@@UAEPAXI@Z:PROC ; std::_Iostream_error_category::`vector deleting destructor'
EXTRN	??_E_System_error_category@std@@UAEPAXI@Z:PROC	; std::_System_error_category::`vector deleting destructor'
EXTRN	?Init@SIMLIB_IO_CLASS@@QAEHPAD@Z:PROC		; SIMLIB_IO_CLASS::Init
EXTRN	?Update@PilotInputs@@QAEXXZ:PROC		; PilotInputs::Update
EXTRN	?FalconSendMessage@@YAXPAVVuMessage@@H@Z:PROC	; FalconSendMessage
EXTRN	?SimCompare@@YAHPAVVuEntity@@0@Z:PROC		; SimCompare
EXTRN	??0FalconPrivateList@@QAE@PAVVuFilter@@@Z:PROC	; FalconPrivateList::FalconPrivateList
EXTRN	??0FalconPrivateOrderedList@@QAE@PAVVuFilter@@@Z:PROC ; FalconPrivateOrderedList::FalconPrivateOrderedList
EXTRN	?ForcedInsert@FalconPrivateOrderedList@@QAEHPAVVuEntity@@@Z:PROC ; FalconPrivateOrderedList::ForcedInsert
EXTRN	?OpenCampFile@@YAPAU_iobuf@@PAD00@Z:PROC	; OpenCampFile
EXTRN	?GetTTRelations@@YAHEE@Z:PROC			; GetTTRelations
EXTRN	?UpdateViewpoints@OTWDriverClass@@QAEXXZ:PROC	; OTWDriverClass::UpdateViewpoints
EXTRN	?Exit@OTWDriverClass@@QAEHXZ:PROC		; OTWDriverClass::Exit
EXTRN	?GetOTWDisplayMode@OTWDriverClass@@QAE?AW4OTWDisplayMode@1@XZ:PROC ; OTWDriverClass::GetOTWDisplayMode
EXTRN	?GetGroundLevel@OTWDriverClass@@QAEMMMPAUTpoint@@@Z:PROC ; OTWDriverClass::GetGroundLevel
EXTRN	?ViewTiltHold@OTWDriverClass@@QAEXXZ:PROC	; OTWDriverClass::ViewTiltHold
EXTRN	?ViewSpinHold@OTWDriverClass@@QAEXXZ:PROC	; OTWDriverClass::ViewSpinHold
EXTRN	?DoSfxActiveList@OTWDriverClass@@QAEXXZ:PROC	; OTWDriverClass::DoSfxActiveList
EXTRN	?GetComponentLead@CampBaseClass@@QAEPAVSimBaseClass@@XZ:PROC ; CampBaseClass::GetComponentLead
EXTRN	?GetSpotted@CampBaseClass@@QAEHE@Z:PROC		; CampBaseClass::GetSpotted
EXTRN	??0UnitFilter@@QAE@EEGE@Z:PROC			; UnitFilter::UnitFilter
EXTRN	?Test@UnitFilter@@UAEEPAVVuEntity@@@Z:PROC	; UnitFilter::Test
EXTRN	?RemoveTest@UnitFilter@@UAEEPAVVuEntity@@@Z:PROC ; UnitFilter::RemoveTest
EXTRN	??_EUnitFilter@@UAEPAXI@Z:PROC			; UnitFilter::`vector deleting destructor'
EXTRN	??0ObjFilter@@QAE@G@Z:PROC			; ObjFilter::ObjFilter
EXTRN	?Test@ObjFilter@@UAEEPAVVuEntity@@@Z:PROC	; ObjFilter::Test
EXTRN	?RemoveTest@ObjFilter@@UAEEPAVVuEntity@@@Z:PROC	; ObjFilter::RemoveTest
EXTRN	??_EObjFilter@@UAEPAXI@Z:PROC			; ObjFilter::`vector deleting destructor'
EXTRN	?UpdateATC@SimulationDriver@@AAEXXZ:PROC	; SimulationDriver::UpdateATC
EXTRN	??0AllSimFilter@@QAE@XZ:PROC			; AllSimFilter::AllSimFilter
EXTRN	??1AllSimFilter@@UAE@XZ:PROC			; AllSimFilter::~AllSimFilter
EXTRN	??0CombinedSimFilter@@QAE@XZ:PROC		; CombinedSimFilter::CombinedSimFilter
EXTRN	??1CombinedSimFilter@@UAE@XZ:PROC		; CombinedSimFilter::~CombinedSimFilter
EXTRN	??0SimFeatureFilter@@QAE@XZ:PROC		; SimFeatureFilter::SimFeatureFilter
EXTRN	??1SimFeatureFilter@@UAE@XZ:PROC		; SimFeatureFilter::~SimFeatureFilter
EXTRN	??0SimObjectFilter@@QAE@XZ:PROC			; SimObjectFilter::SimObjectFilter
EXTRN	??1SimObjectFilter@@UAE@XZ:PROC			; SimObjectFilter::~SimObjectFilter
EXTRN	??0SimAirfieldFilter@@QAE@XZ:PROC		; SimAirfieldFilter::SimAirfieldFilter
EXTRN	??1SimAirfieldFilter@@UAE@XZ:PROC		; SimAirfieldFilter::~SimAirfieldFilter
EXTRN	??0SimDynamicTacanFilter@@QAE@XZ:PROC		; SimDynamicTacanFilter::SimDynamicTacanFilter
EXTRN	??1SimDynamicTacanFilter@@UAE@XZ:PROC		; SimDynamicTacanFilter::~SimDynamicTacanFilter
EXTRN	?FindSensor@@YAPAVSensorClass@@PAVSimMoverClass@@H@Z:PROC ; FindSensor
EXTRN	?UpdateDogfight@DogfightClass@@QAEXXZ:PROC	; DogfightClass::UpdateDogfight
EXTRN	?GetTotalVehicles@UnitClass@@QAEHXZ:PROC	; UnitClass::GetTotalVehicles
EXTRN	?ClearData@OwnshipResultsClass@@QAEXXZ:PROC	; OwnshipResultsClass::ClearData
EXTRN	?ReadSimMoverDefinitionData@SimMoverDefinition@@SAXXZ:PROC ; SimMoverDefinition::ReadSimMoverDefinitionData
EXTRN	?FreeSimMoverDefinitionData@SimMoverDefinition@@SAXXZ:PROC ; SimMoverDefinition::FreeSimMoverDefinitionData
EXTRN	?Add@ACMI_Hash@@QAEJVVU_ID@@PADJ@Z:PROC		; ACMI_Hash::Add
EXTRN	?StopRecording@ACMIRecorder@@QAEXXZ:PROC	; ACMIRecorder::StopRecording
EXTRN	?ToggleRecording@ACMIRecorder@@QAEXXZ:PROC	; ACMIRecorder::ToggleRecording
EXTRN	?GenPositionRecord@ACMIRecorder@@QAEXPAUACMIGenPositionRecord@@@Z:PROC ; ACMIRecorder::GenPositionRecord
EXTRN	?AircraftPositionRecord@ACMIRecorder@@QAEXPAUACMIAircraftPositionRecord@@@Z:PROC ; ACMIRecorder::AircraftPositionRecord
EXTRN	?MissilePositionRecord@ACMIRecorder@@QAEXPAUACMIMissilePositionRecord@@@Z:PROC ; ACMIRecorder::MissilePositionRecord
EXTRN	?ChaffPositionRecord@ACMIRecorder@@QAEXPAUACMIChaffPositionRecord@@@Z:PROC ; ACMIRecorder::ChaffPositionRecord
EXTRN	?FlarePositionRecord@ACMIRecorder@@QAEXPAUACMIFlarePositionRecord@@@Z:PROC ; ACMIRecorder::FlarePositionRecord
EXTRN	?FeaturePositionRecord@ACMIRecorder@@QAEXPAUACMIFeaturePositionRecord@@@Z:PROC ; ACMIRecorder::FeaturePositionRecord
EXTRN	?SwitchRecord@ACMIRecorder@@QAEXPAUACMISwitchRecord@@@Z:PROC ; ACMIRecorder::SwitchRecord
EXTRN	?DOFRecord@ACMIRecorder@@QAEXPAUACMIDOFRecord@@@Z:PROC ; ACMIRecorder::DOFRecord
EXTRN	?TodOffsetRecord@ACMIRecorder@@QAEXPAUACMITodOffsetRecord@@@Z:PROC ; ACMIRecorder::TodOffsetRecord
EXTRN	?FeatureStatusRecord@ACMIRecorder@@QAEXPAUACMIFeatureStatusRecord@@@Z:PROC ; ACMIRecorder::FeatureStatusRecord
EXTRN	?OTWViewLeft@@YAXKHPAX@Z:PROC			; OTWViewLeft
EXTRN	?OTWViewRight@@YAXKHPAX@Z:PROC			; OTWViewRight
EXTRN	?OTWViewUp@@YAXKHPAX@Z:PROC			; OTWViewUp
EXTRN	?OTWViewDown@@YAXKHPAX@Z:PROC			; OTWViewDown
EXTRN	?GetVUIDFromChannel@TacanList@@QAEHHW4StationSet@1@W4Domain@1@PAVVU_ID@@PAH3PAM@Z:PROC ; TacanList::GetVUIDFromChannel
EXTRN	?POVDispatch@CockpitManager@@QAEHHHH@Z:PROC	; CockpitManager::POVDispatch
EXTRN	?SetInstrumentMode@NavigationSystem@@QAEXW4Instrument_Mode@1@@Z:PROC ; NavigationSystem::SetInstrumentMode
EXTRN	?ExecIls@NavigationSystem@@QAEXXZ:PROC		; NavigationSystem::ExecIls
EXTRN	?GridToSim@@YAMF@Z:PROC				; GridToSim
EXTRN	?SimToGrid@@YAFM@Z:PROC				; SimToGrid
EXTRN	?SetTimeCompression@@YAXH@Z:PROC		; SetTimeCompression
EXTRN	?ReadAllAirframeData@@YAXXZ:PROC		; ReadAllAirframeData
EXTRN	?FreeAllAirframeData@@YAXXZ:PROC		; FreeAllAirframeData
EXTRN	?RefreshVoiceFreqs@@YAXXZ:PROC			; RefreshVoiceFreqs
EXTRN	?WindHeadingAt@WeatherClass@@QAEMPBUTpoint@@@Z:PROC ; WeatherClass::WindHeadingAt
EXTRN	?CheckPlayerStatus@GameManagerClass@@QAEHPAVFalconEntity@@@Z:PROC ; GameManagerClass::CheckPlayerStatus
EXTRN	?ReadAllRadarData@@YAXXZ:PROC			; ReadAllRadarData
EXTRN	?get_type@tactical_mission@@QAE?AW4tactical_type@@XZ:PROC ; tactical_mission::get_type
EXTRN	?get_title@tactical_mission@@QAEPADXZ:PROC	; tactical_mission::get_title
EXTRN	??0FalconATCMessage@@QAE@VVU_ID@@PAVVuTargetEntity@@E@Z:PROC ; FalconATCMessage::FalconATCMessage
EXTRN	?GraphicsDataPoolInitializeStorage@@YAXXZ:PROC	; GraphicsDataPoolInitializeStorage
EXTRN	?GraphicsDataPoolReleaseStorage@@YAXXZ:PROC	; GraphicsDataPoolReleaseStorage
EXTRN	?FileVerify@@YAHXZ:PROC				; FileVerify
EXTRN	?CalcTransformMatrix@@YAXPAVSimBaseClass@@@Z:PROC ; CalcTransformMatrix
EXTRN	?ReadAllMissileData@@YAXXZ:PROC			; ReadAllMissileData
EXTRN	?ReadAllBombData@@YAXXZ:PROC			; ReadAllBombData
EXTRN	?ReadDigitalBrainData@@YAXXZ:PROC		; ReadDigitalBrainData
EXTRN	?FreeAllMissileData@@YAXXZ:PROC			; FreeAllMissileData
EXTRN	?FreeAllBombData@@YAXXZ:PROC			; FreeAllBombData
EXTRN	?FreeDigitalBrainData@@YAXXZ:PROC		; FreeDigitalBrainData
EXTRN	?JoystickStopAllEffects@@YAXXZ:PROC		; JoystickStopAllEffects
EXTRN	@__security_check_cookie@4:PROC
EXTRN	__CxxThrowException@8:PROC
EXTRN	___CxxFrameHandler3:PROC
EXTRN	?vuDatabase@@3PAVVuDatabase@@A:DWORD		; vuDatabase
EXTRN	?vuLocalSessionEntity@@3V?$VuBin@VVuSessionEntity@@@@A:DWORD ; vuLocalSessionEntity
EXTRN	?vuxGameTime@@3KA:DWORD				; vuxGameTime
EXTRN	?FalconNullId@@3VVU_ID@@A:QWORD			; FalconNullId
EXTRN	?SimLibMinorFrameTime@@3MA:DWORD		; SimLibMinorFrameTime
EXTRN	?SimLibMinorFrameRate@@3MA:DWORD		; SimLibMinorFrameRate
EXTRN	?SimLibMajorFrameTime@@3MA:DWORD		; SimLibMajorFrameTime
EXTRN	?SimLibMajorFrameRate@@3MA:DWORD		; SimLibMajorFrameRate
EXTRN	?SimLibElapsedTime@@3KA:DWORD			; SimLibElapsedTime
EXTRN	?SimLibFrameCount@@3IA:DWORD			; SimLibFrameCount
EXTRN	?SimLibMinorPerMajor@@3HA:DWORD			; SimLibMinorPerMajor
EXTRN	?SimLibElapsedSeconds@@3MA:DWORD		; SimLibElapsedSeconds
EXTRN	?SimLibFrameElapsed@@3MA:DWORD			; SimLibFrameElapsed
EXTRN	?SimLibLastFrameTime@@3MA:DWORD			; SimLibLastFrameTime
EXTRN	??_7type_info@@6B@:QWORD			; type_info::`vftable'
EXTRN	?gxPos@@3HA:DWORD				; gxPos
EXTRN	?gyPos@@3HA:DWORD				; gyPos
EXTRN	?gSelectedCursor@@3HA:DWORD			; gSelectedCursor
EXTRN	?IO@@3VSIMLIB_IO_CLASS@@A:BYTE			; IO
EXTRN	?UserStickInputs@@3VPilotInputs@@A:BYTE		; UserStickInputs
EXTRN	?F4EventFile@@3PAU_iobuf@@A:DWORD		; F4EventFile
EXTRN	?TeamInfo@@3PAPAVTeamClass@@A:BYTE		; TeamInfo
EXTRN	?PlayerOptions@@3VPlayerOptionsClass@@A:BYTE	; PlayerOptions
EXTRN	?OTWDriver@@3VOTWDriverClass@@A:BYTE		; OTWDriver
EXTRN	?wait_for_sim_cleanup@SimulationLoopControl@@2PAXA:DWORD ; SimulationLoopControl::wait_for_sim_cleanup
EXTRN	?wait_for_graphics_cleanup@SimulationLoopControl@@2PAXA:DWORD ; SimulationLoopControl::wait_for_graphics_cleanup
EXTRN	?RealUnitProxList@@3PAVVuGridTree@@A:DWORD	; RealUnitProxList
EXTRN	?SimDogfight@@3VDogfightClass@@A:BYTE		; SimDogfight
EXTRN	?OwnResults@@3VOwnshipResultsClass@@A:BYTE	; OwnResults
EXTRN	?gACMIRec@@3VACMIRecorder@@A:BYTE		; gACMIRec
EXTRN	?ACMIIDTable@@3PAVACMI_Hash@@A:DWORD		; ACMIIDTable
EXTRN	?gTacanList@@3PAVTacanList@@A:DWORD		; gTacanList
EXTRN	?gNavigationSys@@3PAVNavigationSystem@@A:DWORD	; gNavigationSys
EXTRN	?realWeather@@3PAVRealWeather@@A:DWORD		; realWeather
EXTRN	?gameCompressionRatio@@3HA:DWORD		; gameCompressionRatio
EXTRN	?targetCompressionRatio@@3HA:DWORD		; targetCompressionRatio
EXTRN	?GameManager@@3VGameManagerClass@@A:BYTE	; GameManager
EXTRN	?current_tactical_mission@@3PAVtactical_mission@@A:DWORD ; current_tactical_mission
EXTRN	?gNumWeaponsInAir@@3HA:DWORD			; gNumWeaponsInAir
EXTRN	?playerLastMasterMode@@3W4FCCMasterMode@FireControlComputer@@A:DWORD ; playerLastMasterMode
EXTRN	?playerLastSubMode@@3W4FCCSubMode@FireControlComputer@@A:DWORD ; playerLastSubMode
EXTRN	___security_cookie:DWORD
EXTRN	__fltused:DWORD
_BSS	SEGMENT
_piecewise_construct DB 01H DUP (?)
	ALIGN	4

_allocator_arg DB 01H DUP (?)
_BSS	ENDS
;	COMDAT ?_Generic_object@?$_Error_objects@H@std@@2V_Generic_error_category@2@A
_BSS	SEGMENT
?_Generic_object@?$_Error_objects@H@std@@2V_Generic_error_category@2@A DD 01H DUP (?) ; std::_Error_objects<int>::_Generic_object
_BSS	ENDS
;	COMDAT ?_Iostream_object@?$_Error_objects@H@std@@2V_Iostream_error_category@2@A
_BSS	SEGMENT
?_Iostream_object@?$_Error_objects@H@std@@2V_Iostream_error_category@2@A DD 01H DUP (?) ; std::_Error_objects<int>::_Iostream_object
_BSS	ENDS
;	COMDAT ?_System_object@?$_Error_objects@H@std@@2V_System_error_category@2@A
_BSS	SEGMENT
?_System_object@?$_Error_objects@H@std@@2V_System_error_category@2@A DD 01H DUP (?) ; std::_Error_objects<int>::_System_object
_BSS	ENDS
;	COMDAT ?id@?$num_put@DV?$back_insert_iterator@V?$basic_string@DU?$char_traits@D@std@@V?$allocator@D@2@@std@@@std@@@std@@2V0locale@2@A
_BSS	SEGMENT
?id@?$num_put@DV?$back_insert_iterator@V?$basic_string@DU?$char_traits@D@std@@V?$allocator@D@2@@std@@@std@@@std@@2V0locale@2@A DD 01H DUP (?) ; std::num_put<char,std::back_insert_iterator<std::basic_string<char,std::char_traits<char>,std::allocator<char> > > >::id
_BSS	ENDS
;	COMDAT ?id@?$num_put@_WV?$back_insert_iterator@V?$basic_string@_WU?$char_traits@_W@std@@V?$allocator@_W@2@@std@@@std@@@std@@2V0locale@2@A
_BSS	SEGMENT
?id@?$num_put@_WV?$back_insert_iterator@V?$basic_string@_WU?$char_traits@_W@std@@V?$allocator@_W@2@@std@@@std@@@std@@2V0locale@2@A DD 01H DUP (?) ; std::num_put<wchar_t,std::back_insert_iterator<std::basic_string<wchar_t,std::char_traits<wchar_t>,std::allocator<wchar_t> > > >::id
_BSS	ENDS
_BSS	SEGMENT
	ALIGN	4

?SimDriver@@3VSimulationDriver@@A DB 016cH DUP (?)	; SimDriver
_BSS	ENDS
;	COMDAT ?runFrame@?1??Cycle@SimulationDriver@@QAEXXZ@4HA
_BSS	SEGMENT
?runFrame@?1??Cycle@SimulationDriver@@QAEXXZ@4HA DD 01H DUP (?) ; `SimulationDriver::Cycle'::`2'::runFrame
_BSS	ENDS
;	COMDAT ?runGraphics@?1??Cycle@SimulationDriver@@QAEXXZ@4HA
_BSS	SEGMENT
?runGraphics@?1??Cycle@SimulationDriver@@QAEXXZ@4HA DD 01H DUP (?) ; `SimulationDriver::Cycle'::`2'::runGraphics
_BSS	ENDS
;	COMDAT ?id@?$numpunct@D@std@@2V0locale@2@A
_BSS	SEGMENT
?id@?$numpunct@D@std@@2V0locale@2@A DD 01H DUP (?)	; std::numpunct<char>::id
_BSS	ENDS
;	COMDAT ?id@?$numpunct@_W@std@@2V0locale@2@A
_BSS	SEGMENT
?id@?$numpunct@_W@std@@2V0locale@2@A DD 01H DUP (?)	; std::numpunct<wchar_t>::id
_BSS	ENDS
CRT$XCU	SEGMENT
_piecewise_construct$initializer$ DD FLAT:??__Epiecewise_construct@std@@YAXXZ
CRT$XCU	ENDS
;	COMDAT __xmm@80000000800000008000000080000000
CONST	SEGMENT
__xmm@80000000800000008000000080000000 DB 00H, 00H, 00H, 080H, 00H, 00H, 00H
	DB	080H, 00H, 00H, 00H, 080H, 00H, 00H, 00H, 080H
CONST	ENDS
;	COMDAT __xmm@41f00000000000000000000000000000
CONST	SEGMENT
__xmm@41f00000000000000000000000000000 DB 00H, 00H, 00H, 00H, 00H, 00H, 00H
	DB	00H, 00H, 00H, 00H, 00H, 00H, 00H, 0f0H, 'A'
CONST	ENDS
;	COMDAT __real@c8435000
CONST	SEGMENT
__real@c8435000 DD 0c8435000r			; -200000
CONST	ENDS
;	COMDAT __real@bff921fb54442d18
CONST	SEGMENT
__real@bff921fb54442d18 DQ 0bff921fb54442d18r	; -1.5708
CONST	ENDS
;	COMDAT __real@8000000000000000
CONST	SEGMENT
__real@8000000000000000 DQ 08000000000000000r	; -0
CONST	ENDS
;	COMDAT __real@447a0000
CONST	SEGMENT
__real@447a0000 DD 0447a0000r			; 1000
CONST	ENDS
;	COMDAT __real@43b40000
CONST	SEGMENT
__real@43b40000 DD 043b40000r			; 360
CONST	ENDS
;	COMDAT __real@42c80000
CONST	SEGMENT
__real@42c80000 DD 042c80000r			; 100
CONST	ENDS
;	COMDAT __real@42652ee1
CONST	SEGMENT
__real@42652ee1 DD 042652ee1r			; 57.2958
CONST	ENDS
;	COMDAT __real@41200000
CONST	SEGMENT
__real@41200000 DD 041200000r			; 10
CONST	ENDS
;	COMDAT __real@40a00000
CONST	SEGMENT
__real@40a00000 DD 040a00000r			; 5
CONST	ENDS
;	COMDAT __real@400921fb54442d18
CONST	SEGMENT
__real@400921fb54442d18 DQ 0400921fb54442d18r	; 3.14159
CONST	ENDS
;	COMDAT __real@40000000
CONST	SEGMENT
__real@40000000 DD 040000000r			; 2
CONST	ENDS
;	COMDAT __real@3ff921fb54442d18
CONST	SEGMENT
__real@3ff921fb54442d18 DQ 03ff921fb54442d18r	; 1.5708
CONST	ENDS
;	COMDAT __real@3f800000
CONST	SEGMENT
__real@3f800000 DD 03f800000r			; 1
CONST	ENDS
;	COMDAT __real@3f000000
CONST	SEGMENT
__real@3f000000 DD 03f000000r			; 0.5
CONST	ENDS
;	COMDAT __real@3d4ccccd
CONST	SEGMENT
__real@3d4ccccd DD 03d4ccccdr			; 0.05
CONST	ENDS
;	COMDAT __real@3c23d70a
CONST	SEGMENT
__real@3c23d70a DD 03c23d70ar			; 0.01
CONST	ENDS
;	COMDAT __real@3a83126f
CONST	SEGMENT
__real@3a83126f DD 03a83126fr			; 0.001
CONST	ENDS
;	COMDAT __real@0000000000000000
CONST	SEGMENT
__real@0000000000000000 DQ 00000000000000000r	; 0
CONST	ENDS
;	COMDAT __real@00000000
CONST	SEGMENT
__real@00000000 DD 000000000r			; 0
CONST	ENDS
;	COMDAT ??_R1A@?0A@EA@ObjFilter@@8
rdata$r	SEGMENT
??_R1A@?0A@EA@ObjFilter@@8 DD FLAT:??_R0?AVObjFilter@@@8 ; ObjFilter::`RTTI Base Class Descriptor at (0,-1,0,64)'
	DD	01H
	DD	00H
	DD	0ffffffffH
	DD	00H
	DD	040H
	DD	FLAT:??_R3ObjFilter@@8
rdata$r	ENDS
;	COMDAT ??_R2ObjFilter@@8
rdata$r	SEGMENT
??_R2ObjFilter@@8 DD FLAT:??_R1A@?0A@EA@ObjFilter@@8	; ObjFilter::`RTTI Base Class Array'
	DD	FLAT:??_R1A@?0A@EA@VuFilter@@8
rdata$r	ENDS
;	COMDAT ??_R3ObjFilter@@8
rdata$r	SEGMENT
??_R3ObjFilter@@8 DD 00H				; ObjFilter::`RTTI Class Hierarchy Descriptor'
	DD	00H
	DD	02H
	DD	FLAT:??_R2ObjFilter@@8
rdata$r	ENDS
;	COMDAT ??_R0?AVObjFilter@@@8
_DATA	SEGMENT
??_R0?AVObjFilter@@@8 DD FLAT:??_7type_info@@6B@	; ObjFilter `RTTI Type Descriptor'
	DD	00H
	DB	'.?AVObjFilter@@', 00H
_DATA	ENDS
;	COMDAT ??_R4ObjFilter@@6B@
rdata$r	SEGMENT
??_R4ObjFilter@@6B@ DD 00H				; ObjFilter::`RTTI Complete Object Locator'
	DD	00H
	DD	00H
	DD	FLAT:??_R0?AVObjFilter@@@8
	DD	FLAT:??_R3ObjFilter@@8
rdata$r	ENDS
;	COMDAT ??_R1A@?0A@EA@UnitFilter@@8
rdata$r	SEGMENT
??_R1A@?0A@EA@UnitFilter@@8 DD FLAT:??_R0?AVUnitFilter@@@8 ; UnitFilter::`RTTI Base Class Descriptor at (0,-1,0,64)'
	DD	01H
	DD	00H
	DD	0ffffffffH
	DD	00H
	DD	040H
	DD	FLAT:??_R3UnitFilter@@8
rdata$r	ENDS
;	COMDAT ??_R2UnitFilter@@8
rdata$r	SEGMENT
??_R2UnitFilter@@8 DD FLAT:??_R1A@?0A@EA@UnitFilter@@8	; UnitFilter::`RTTI Base Class Array'
	DD	FLAT:??_R1A@?0A@EA@VuFilter@@8
rdata$r	ENDS
;	COMDAT ??_R3UnitFilter@@8
rdata$r	SEGMENT
??_R3UnitFilter@@8 DD 00H				; UnitFilter::`RTTI Class Hierarchy Descriptor'
	DD	00H
	DD	02H
	DD	FLAT:??_R2UnitFilter@@8
rdata$r	ENDS
;	COMDAT ??_R0?AVUnitFilter@@@8
_DATA	SEGMENT
??_R0?AVUnitFilter@@@8 DD FLAT:??_7type_info@@6B@	; UnitFilter `RTTI Type Descriptor'
	DD	00H
	DB	'.?AVUnitFilter@@', 00H
_DATA	ENDS
;	COMDAT ??_R4UnitFilter@@6B@
rdata$r	SEGMENT
??_R4UnitFilter@@6B@ DD 00H				; UnitFilter::`RTTI Complete Object Locator'
	DD	00H
	DD	00H
	DD	FLAT:??_R0?AVUnitFilter@@@8
	DD	FLAT:??_R3UnitFilter@@8
rdata$r	ENDS
;	COMDAT ??_R1A@?0A@EA@_System_error_category@std@@8
rdata$r	SEGMENT
??_R1A@?0A@EA@_System_error_category@std@@8 DD FLAT:??_R0?AV_System_error_category@std@@@8 ; std::_System_error_category::`RTTI Base Class Descriptor at (0,-1,0,64)'
	DD	02H
	DD	00H
	DD	0ffffffffH
	DD	00H
	DD	040H
	DD	FLAT:??_R3_System_error_category@std@@8
rdata$r	ENDS
;	COMDAT ??_R2_System_error_category@std@@8
rdata$r	SEGMENT
??_R2_System_error_category@std@@8 DD FLAT:??_R1A@?0A@EA@_System_error_category@std@@8 ; std::_System_error_category::`RTTI Base Class Array'
	DD	FLAT:??_R1A@?0A@EA@_Generic_error_category@std@@8
	DD	FLAT:??_R1A@?0A@EA@error_category@std@@8
rdata$r	ENDS
;	COMDAT ??_R3_System_error_category@std@@8
rdata$r	SEGMENT
??_R3_System_error_category@std@@8 DD 00H		; std::_System_error_category::`RTTI Class Hierarchy Descriptor'
	DD	00H
	DD	03H
	DD	FLAT:??_R2_System_error_category@std@@8
rdata$r	ENDS
;	COMDAT ??_R0?AV_System_error_category@std@@@8
_DATA	SEGMENT
??_R0?AV_System_error_category@std@@@8 DD FLAT:??_7type_info@@6B@ ; std::_System_error_category `RTTI Type Descriptor'
	DD	00H
	DB	'.?AV_System_error_category@std@@', 00H
_DATA	ENDS
;	COMDAT ??_R4_System_error_category@std@@6B@
rdata$r	SEGMENT
??_R4_System_error_category@std@@6B@ DD 00H		; std::_System_error_category::`RTTI Complete Object Locator'
	DD	00H
	DD	00H
	DD	FLAT:??_R0?AV_System_error_category@std@@@8
	DD	FLAT:??_R3_System_error_category@std@@8
rdata$r	ENDS
;	COMDAT ??_R1A@?0A@EA@_Iostream_error_category@std@@8
rdata$r	SEGMENT
??_R1A@?0A@EA@_Iostream_error_category@std@@8 DD FLAT:??_R0?AV_Iostream_error_category@std@@@8 ; std::_Iostream_error_category::`RTTI Base Class Descriptor at (0,-1,0,64)'
	DD	02H
	DD	00H
	DD	0ffffffffH
	DD	00H
	DD	040H
	DD	FLAT:??_R3_Iostream_error_category@std@@8
rdata$r	ENDS
;	COMDAT ??_R2_Iostream_error_category@std@@8
rdata$r	SEGMENT
??_R2_Iostream_error_category@std@@8 DD FLAT:??_R1A@?0A@EA@_Iostream_error_category@std@@8 ; std::_Iostream_error_category::`RTTI Base Class Array'
	DD	FLAT:??_R1A@?0A@EA@_Generic_error_category@std@@8
	DD	FLAT:??_R1A@?0A@EA@error_category@std@@8
rdata$r	ENDS
;	COMDAT ??_R3_Iostream_error_category@std@@8
rdata$r	SEGMENT
??_R3_Iostream_error_category@std@@8 DD 00H		; std::_Iostream_error_category::`RTTI Class Hierarchy Descriptor'
	DD	00H
	DD	03H
	DD	FLAT:??_R2_Iostream_error_category@std@@8
rdata$r	ENDS
;	COMDAT ??_R0?AV_Iostream_error_category@std@@@8
_DATA	SEGMENT
??_R0?AV_Iostream_error_category@std@@@8 DD FLAT:??_7type_info@@6B@ ; std::_Iostream_error_category `RTTI Type Descriptor'
	DD	00H
	DB	'.?AV_Iostream_error_category@std@@', 00H
_DATA	ENDS
;	COMDAT ??_R4_Iostream_error_category@std@@6B@
rdata$r	SEGMENT
??_R4_Iostream_error_category@std@@6B@ DD 00H		; std::_Iostream_error_category::`RTTI Complete Object Locator'
	DD	00H
	DD	00H
	DD	FLAT:??_R0?AV_Iostream_error_category@std@@@8
	DD	FLAT:??_R3_Iostream_error_category@std@@8
rdata$r	ENDS
;	COMDAT ??_R1A@?0A@EA@_Generic_error_category@std@@8
rdata$r	SEGMENT
??_R1A@?0A@EA@_Generic_error_category@std@@8 DD FLAT:??_R0?AV_Generic_error_category@std@@@8 ; std::_Generic_error_category::`RTTI Base Class Descriptor at (0,-1,0,64)'
	DD	01H
	DD	00H
	DD	0ffffffffH
	DD	00H
	DD	040H
	DD	FLAT:??_R3_Generic_error_category@std@@8
rdata$r	ENDS
;	COMDAT ??_R2_Generic_error_category@std@@8
rdata$r	SEGMENT
??_R2_Generic_error_category@std@@8 DD FLAT:??_R1A@?0A@EA@_Generic_error_category@std@@8 ; std::_Generic_error_category::`RTTI Base Class Array'
	DD	FLAT:??_R1A@?0A@EA@error_category@std@@8
rdata$r	ENDS
;	COMDAT ??_R3_Generic_error_category@std@@8
rdata$r	SEGMENT
??_R3_Generic_error_category@std@@8 DD 00H		; std::_Generic_error_category::`RTTI Class Hierarchy Descriptor'
	DD	00H
	DD	02H
	DD	FLAT:??_R2_Generic_error_category@std@@8
rdata$r	ENDS
;	COMDAT ??_R0?AV_Generic_error_category@std@@@8
_DATA	SEGMENT
??_R0?AV_Generic_error_category@std@@@8 DD FLAT:??_7type_info@@6B@ ; std::_Generic_error_category `RTTI Type Descriptor'
	DD	00H
	DB	'.?AV_Generic_error_category@std@@', 00H
_DATA	ENDS
;	COMDAT ??_R4_Generic_error_category@std@@6B@
rdata$r	SEGMENT
??_R4_Generic_error_category@std@@6B@ DD 00H		; std::_Generic_error_category::`RTTI Complete Object Locator'
	DD	00H
	DD	00H
	DD	FLAT:??_R0?AV_Generic_error_category@std@@@8
	DD	FLAT:??_R3_Generic_error_category@std@@8
rdata$r	ENDS
;	COMDAT ??_R1A@?0A@EA@error_category@std@@8
rdata$r	SEGMENT
??_R1A@?0A@EA@error_category@std@@8 DD FLAT:??_R0?AVerror_category@std@@@8 ; std::error_category::`RTTI Base Class Descriptor at (0,-1,0,64)'
	DD	00H
	DD	00H
	DD	0ffffffffH
	DD	00H
	DD	040H
	DD	FLAT:??_R3error_category@std@@8
rdata$r	ENDS
;	COMDAT ??_R2error_category@std@@8
rdata$r	SEGMENT
??_R2error_category@std@@8 DD FLAT:??_R1A@?0A@EA@error_category@std@@8 ; std::error_category::`RTTI Base Class Array'
rdata$r	ENDS
;	COMDAT ??_R3error_category@std@@8
rdata$r	SEGMENT
??_R3error_category@std@@8 DD 00H			; std::error_category::`RTTI Class Hierarchy Descriptor'
	DD	00H
	DD	01H
	DD	FLAT:??_R2error_category@std@@8
rdata$r	ENDS
;	COMDAT ??_R0?AVerror_category@std@@@8
_DATA	SEGMENT
??_R0?AVerror_category@std@@@8 DD FLAT:??_7type_info@@6B@ ; std::error_category `RTTI Type Descriptor'
	DD	00H
	DB	'.?AVerror_category@std@@', 00H
_DATA	ENDS
;	COMDAT ??_R4error_category@std@@6B@
rdata$r	SEGMENT
??_R4error_category@std@@6B@ DD 00H			; std::error_category::`RTTI Complete Object Locator'
	DD	00H
	DD	00H
	DD	FLAT:??_R0?AVerror_category@std@@@8
	DD	FLAT:??_R3error_category@std@@8
rdata$r	ENDS
;	COMDAT ??_R1A@?0A@EA@VuFilter@@8
rdata$r	SEGMENT
??_R1A@?0A@EA@VuFilter@@8 DD FLAT:??_R0?AVVuFilter@@@8	; VuFilter::`RTTI Base Class Descriptor at (0,-1,0,64)'
	DD	00H
	DD	00H
	DD	0ffffffffH
	DD	00H
	DD	040H
	DD	FLAT:??_R3VuFilter@@8
rdata$r	ENDS
;	COMDAT ??_R2VuFilter@@8
rdata$r	SEGMENT
??_R2VuFilter@@8 DD FLAT:??_R1A@?0A@EA@VuFilter@@8	; VuFilter::`RTTI Base Class Array'
rdata$r	ENDS
;	COMDAT ??_R3VuFilter@@8
rdata$r	SEGMENT
??_R3VuFilter@@8 DD 00H					; VuFilter::`RTTI Class Hierarchy Descriptor'
	DD	00H
	DD	01H
	DD	FLAT:??_R2VuFilter@@8
rdata$r	ENDS
;	COMDAT ??_R0?AVVuFilter@@@8
_DATA	SEGMENT
??_R0?AVVuFilter@@@8 DD FLAT:??_7type_info@@6B@		; VuFilter `RTTI Type Descriptor'
	DD	00H
	DB	'.?AVVuFilter@@', 00H
_DATA	ENDS
;	COMDAT ??_C@_0BA@JFNIOLAK@string?5too?5long?$AA@
CONST	SEGMENT
??_C@_0BA@JFNIOLAK@string?5too?5long?$AA@ DB 'string too long', 00H ; `string'
CONST	ENDS
;	COMDAT ??_C@_0BI@CFPLBAOH@invalid?5string?5position?$AA@
CONST	SEGMENT
??_C@_0BI@CFPLBAOH@invalid?5string?5position?$AA@ DB 'invalid string posi'
	DB	'tion', 00H					; `string'
CONST	ENDS
;	COMDAT ??_C@_0CA@GIKOJPJG@Releasing?5Sim?5Memory?5Pools?4?4?4?4?6?$AA@
CONST	SEGMENT
??_C@_0CA@GIKOJPJG@Releasing?5Sim?5Memory?5Pools?4?4?4?4?6?$AA@ DB 'Relea'
	DB	'sing Sim Memory Pools....', 0aH, 00H	; `string'
CONST	ENDS
;	COMDAT ??_C@_0CD@CFEJHFML@Initializing?5Sim?5Memory?5Pools?4?4?4@
CONST	SEGMENT
??_C@_0CD@CFEJHFML@Initializing?5Sim?5Memory?5Pools?4?4?4@ DB 'Initializi'
	DB	'ng Sim Memory Pools....', 0aH, 00H		; `string'
CONST	ENDS
;	COMDAT ??_C@_0BG@JDDPNFOC@10?5Instrument?5Landing?$AA@
CONST	SEGMENT
??_C@_0BG@JDDPNFOC@10?5Instrument?5Landing?$AA@ DB '10 Instrument Landing'
	DB	00H						; `string'
CONST	ENDS
;	COMDAT ??_C@_0BH@MCIBMPHE@No?5Joystick?5Connected?6?$AA@
CONST	SEGMENT
??_C@_0BH@MCIBMPHE@No?5Joystick?5Connected?6?$AA@ DB 'No Joystick Connect'
	DB	'ed', 0aH, 00H				; `string'
CONST	ENDS
;	COMDAT ??_C@_08KHFFPPFI@joy1?4dat?$AA@
CONST	SEGMENT
??_C@_08KHFFPPFI@joy1?4dat?$AA@ DB 'joy1.dat', 00H	; `string'
CONST	ENDS
;	COMDAT ??_C@_07KFGPMNDK@lastflt?$AA@
CONST	SEGMENT
??_C@_07KFGPMNDK@lastflt?$AA@ DB 'lastflt', 00H		; `string'
CONST	ENDS
;	COMDAT ??_C@_03MHODNABG@acm?$AA@
CONST	SEGMENT
??_C@_03MHODNABG@acm?$AA@ DB 'acm', 00H			; `string'
CONST	ENDS
;	COMDAT ??_C@_02GMLFBBN@wb?$AA@
CONST	SEGMENT
??_C@_02GMLFBBN@wb?$AA@ DB 'wb', 00H			; `string'
CONST	ENDS
;	COMDAT ??_7ObjFilter@@6B@
CONST	SEGMENT
??_7ObjFilter@@6B@ DD FLAT:??_R4ObjFilter@@6B@		; ObjFilter::`vftable'
	DD	FLAT:??_EObjFilter@@UAEPAXI@Z
	DD	FLAT:?Compare@ObjFilter@@UAEHPAVVuEntity@@0@Z
	DD	FLAT:?Test@ObjFilter@@UAEEPAVVuEntity@@@Z
	DD	FLAT:?RemoveTest@ObjFilter@@UAEEPAVVuEntity@@@Z
	DD	FLAT:?Notice@VuFilter@@UAEEPAVVuMessage@@@Z
	DD	FLAT:?Copy@ObjFilter@@UAEPAVVuFilter@@XZ
CONST	ENDS
;	COMDAT ??_7UnitFilter@@6B@
CONST	SEGMENT
??_7UnitFilter@@6B@ DD FLAT:??_R4UnitFilter@@6B@	; UnitFilter::`vftable'
	DD	FLAT:??_EUnitFilter@@UAEPAXI@Z
	DD	FLAT:?Compare@UnitFilter@@UAEHPAVVuEntity@@0@Z
	DD	FLAT:?Test@UnitFilter@@UAEEPAVVuEntity@@@Z
	DD	FLAT:?RemoveTest@UnitFilter@@UAEEPAVVuEntity@@@Z
	DD	FLAT:?Notice@VuFilter@@UAEEPAVVuMessage@@@Z
	DD	FLAT:?Copy@UnitFilter@@UAEPAVVuFilter@@XZ
CONST	ENDS
;	COMDAT ??_C@_06FHFOAHML@system?$AA@
CONST	SEGMENT
??_C@_06FHFOAHML@system?$AA@ DB 'system', 00H		; `string'
CONST	ENDS
;	COMDAT ??_7_System_error_category@std@@6B@
CONST	SEGMENT
??_7_System_error_category@std@@6B@ DD FLAT:??_R4_System_error_category@std@@6B@ ; std::_System_error_category::`vftable'
	DD	FLAT:??_E_System_error_category@std@@UAEPAXI@Z
	DD	FLAT:?name@_System_error_category@std@@UBEPBDXZ
	DD	FLAT:?message@_System_error_category@std@@UBE?AV?$basic_string@DU?$char_traits@D@std@@V?$allocator@D@2@@2@H@Z
	DD	FLAT:?default_error_condition@_System_error_category@std@@UBE?AVerror_condition@2@H@Z
	DD	FLAT:?equivalent@error_category@std@@UBE_NABVerror_code@2@H@Z
	DD	FLAT:?equivalent@error_category@std@@UBE_NHABVerror_condition@2@@Z
CONST	ENDS
;	COMDAT ??_C@_0BG@PADBLCHM@iostream?5stream?5error?$AA@
CONST	SEGMENT
??_C@_0BG@PADBLCHM@iostream?5stream?5error?$AA@ DB 'iostream stream error'
	DB	00H						; `string'
CONST	ENDS
;	COMDAT ??_C@_08LLGCOLLL@iostream?$AA@
CONST	SEGMENT
??_C@_08LLGCOLLL@iostream?$AA@ DB 'iostream', 00H	; `string'
CONST	ENDS
;	COMDAT ??_7_Iostream_error_category@std@@6B@
CONST	SEGMENT
??_7_Iostream_error_category@std@@6B@ DD FLAT:??_R4_Iostream_error_category@std@@6B@ ; std::_Iostream_error_category::`vftable'
	DD	FLAT:??_E_Iostream_error_category@std@@UAEPAXI@Z
	DD	FLAT:?name@_Iostream_error_category@std@@UBEPBDXZ
	DD	FLAT:?message@_Iostream_error_category@std@@UBE?AV?$basic_string@DU?$char_traits@D@std@@V?$allocator@D@2@@2@H@Z
	DD	FLAT:?default_error_condition@error_category@std@@UBE?AVerror_condition@2@H@Z
	DD	FLAT:?equivalent@error_category@std@@UBE_NABVerror_code@2@H@Z
	DD	FLAT:?equivalent@error_category@std@@UBE_NHABVerror_condition@2@@Z
CONST	ENDS
;	COMDAT ??_C@_0O@BFJCFAAK@unknown?5error?$AA@
CONST	SEGMENT
??_C@_0O@BFJCFAAK@unknown?5error?$AA@ DB 'unknown error', 00H ; `string'
CONST	ENDS
;	COMDAT ??_C@_07DCLBNMLN@generic?$AA@
CONST	SEGMENT
??_C@_07DCLBNMLN@generic?$AA@ DB 'generic', 00H		; `string'
CONST	ENDS
;	COMDAT ??_7_Generic_error_category@std@@6B@
CONST	SEGMENT
??_7_Generic_error_category@std@@6B@ DD FLAT:??_R4_Generic_error_category@std@@6B@ ; std::_Generic_error_category::`vftable'
	DD	FLAT:??_E_Generic_error_category@std@@UAEPAXI@Z
	DD	FLAT:?name@_Generic_error_category@std@@UBEPBDXZ
	DD	FLAT:?message@_Generic_error_category@std@@UBE?AV?$basic_string@DU?$char_traits@D@std@@V?$allocator@D@2@@2@H@Z
	DD	FLAT:?default_error_condition@error_category@std@@UBE?AVerror_condition@2@H@Z
	DD	FLAT:?equivalent@error_category@std@@UBE_NABVerror_code@2@H@Z
	DD	FLAT:?equivalent@error_category@std@@UBE_NHABVerror_condition@2@@Z
CONST	ENDS
;	COMDAT ??_7error_category@std@@6B@
CONST	SEGMENT
??_7error_category@std@@6B@ DD FLAT:??_R4error_category@std@@6B@ ; std::error_category::`vftable'
	DD	FLAT:??_Eerror_category@std@@UAEPAXI@Z
	DD	FLAT:__purecall
	DD	FLAT:__purecall
	DD	FLAT:?default_error_condition@error_category@std@@UBE?AVerror_condition@2@H@Z
	DD	FLAT:?equivalent@error_category@std@@UBE_NABVerror_code@2@H@Z
	DD	FLAT:?equivalent@error_category@std@@UBE_NHABVerror_condition@2@@Z
CONST	ENDS
;	COMDAT xdata$x
xdata$x	SEGMENT
__unwindtable$??$construct@PADAAPAD@?$allocator@D@std@@QAEXPAPADAAPAD@Z DD 0ffffffffH
	DD	FLAT:__unwindfunclet$??$construct@PADAAPAD@?$allocator@D@std@@QAEXPAPADAAPAD@Z$0
__ehfuncinfo$??$construct@PADAAPAD@?$allocator@D@std@@QAEXPAPADAAPAD@Z DD 019930522H
	DD	01H
	DD	FLAT:__unwindtable$??$construct@PADAAPAD@?$allocator@D@std@@QAEXPAPADAAPAD@Z
	DD	2 DUP(00H)
	DD	2 DUP(00H)
	DD	00H
	DD	01H
xdata$x	ENDS
xdata$x	SEGMENT
__unwindtable$?SleepCampaignFlight@SimulationDriver@@QAEXPAVTailInsertList@@@Z DD 0ffffffffH
	DD	FLAT:__unwindfunclet$?SleepCampaignFlight@SimulationDriver@@QAEXPAVTailInsertList@@@Z$0
__unwindtable$?WakeCampaignBase@SimulationDriver@@QAEXHPAVCampBaseClass@@PAVTailInsertList@@@Z DD 0ffffffffH
	DD	FLAT:__unwindfunclet$?WakeCampaignBase@SimulationDriver@@QAEXHPAVCampBaseClass@@PAVTailInsertList@@@Z$0
__unwindtable$?UpdateRemoteData@SimulationDriver@@QAEXXZ DD 0ffffffffH
	DD	FLAT:__unwindfunclet$?UpdateRemoteData@SimulationDriver@@QAEXXZ$0
__unwindtable$?FindNearestTraffic@SimulationDriver@@QAEPAVSimBaseClass@@PAVAircraftClass@@PAVObjectiveClass@@PAM@Z DD 0ffffffffH
	DD	FLAT:__unwindfunclet$?FindNearestTraffic@SimulationDriver@@QAEPAVSimBaseClass@@PAVAircraftClass@@PAVObjectiveClass@@PAM@Z$0
__unwindtable$?FindNearestCampEnemy@SimulationDriver@@QAEPAVCampBaseClass@@PAVAircraftClass@@PAF1PAM@Z DD 0ffffffffH
	DD	FLAT:__unwindfunclet$?FindNearestCampEnemy@SimulationDriver@@QAEPAVCampBaseClass@@PAVAircraftClass@@PAF1PAM@Z$0
__unwindtable$?FindNearestCampThreat@SimulationDriver@@QAEPAVCampBaseClass@@PAVAircraftClass@@PAF1PAM@Z DD 0ffffffffH
	DD	FLAT:__unwindfunclet$?FindNearestCampThreat@SimulationDriver@@QAEPAVCampBaseClass@@PAVAircraftClass@@PAF1PAM@Z$0
__unwindtable$?FindNearestEnemyPlane@SimulationDriver@@QAEPAVSimBaseClass@@PAVAircraftClass@@PAF1PAM@Z DD 0ffffffffH
	DD	FLAT:__unwindfunclet$?FindNearestEnemyPlane@SimulationDriver@@QAEPAVSimBaseClass@@PAVAircraftClass@@PAF1PAM@Z$0
__unwindtable$?FindNearestThreat@SimulationDriver@@QAEPAVSimBaseClass@@PAVAircraftClass@@PAF1PAM@Z DD 0ffffffffH
	DD	FLAT:__unwindfunclet$?FindNearestThreat@SimulationDriver@@QAEPAVSimBaseClass@@PAVAircraftClass@@PAF1PAM@Z$0
__unwindtable$?FindNearestThreat@SimulationDriver@@QAEPAVSimBaseClass@@PAF0PAM@Z DD 0ffffffffH
	DD	FLAT:__unwindfunclet$?FindNearestThreat@SimulationDriver@@QAEPAVSimBaseClass@@PAF0PAM@Z$0
__unwindtable$?FindNearestThreat@SimulationDriver@@QAEPAVSimBaseClass@@PAM00@Z DD 0ffffffffH
	DD	FLAT:__unwindfunclet$?FindNearestThreat@SimulationDriver@@QAEPAVSimBaseClass@@PAM00@Z$0
__unwindtable$?SetPlayerEntity@SimulationDriver@@QAEXPAVSimMoverClass@@@Z DD 0ffffffffH
	DD	FLAT:__unwindfunclet$?SetPlayerEntity@SimulationDriver@@QAEXPAVSimMoverClass@@@Z$0
__unwindtable$?Cycle@SimulationDriver@@QAEXXZ DD 0ffffffffH
	DD	FLAT:__unwindfunclet$?Cycle@SimulationDriver@@QAEXXZ$0
__unwindtable$?InitACMIRecord@SimulationDriver@@QAEXXZ DD 0ffffffffH
	DD	FLAT:__unwindfunclet$?InitACMIRecord@SimulationDriver@@QAEXXZ$0
	DD	00H
	DD	FLAT:__unwindfunclet$?InitACMIRecord@SimulationDriver@@QAEXXZ$1
__ehfuncinfo$?SleepCampaignFlight@SimulationDriver@@QAEXPAVTailInsertList@@@Z DD 019930522H
	DD	01H
	DD	FLAT:__unwindtable$?SleepCampaignFlight@SimulationDriver@@QAEXPAVTailInsertList@@@Z
	DD	2 DUP(00H)
	DD	2 DUP(00H)
	DD	00H
	DD	01H
__ehfuncinfo$?WakeCampaignBase@SimulationDriver@@QAEXHPAVCampBaseClass@@PAVTailInsertList@@@Z DD 019930522H
	DD	01H
	DD	FLAT:__unwindtable$?WakeCampaignBase@SimulationDriver@@QAEXHPAVCampBaseClass@@PAVTailInsertList@@@Z
	DD	2 DUP(00H)
	DD	2 DUP(00H)
	DD	00H
	DD	01H
__ehfuncinfo$?InitACMIRecord@SimulationDriver@@QAEXXZ DD 019930522H
	DD	02H
	DD	FLAT:__unwindtable$?InitACMIRecord@SimulationDriver@@QAEXXZ
	DD	2 DUP(00H)
	DD	2 DUP(00H)
	DD	00H
	DD	01H
__ehfuncinfo$?UpdateRemoteData@SimulationDriver@@QAEXXZ DD 019930522H
	DD	01H
	DD	FLAT:__unwindtable$?UpdateRemoteData@SimulationDriver@@QAEXXZ
	DD	2 DUP(00H)
	DD	2 DUP(00H)
	DD	00H
	DD	01H
__ehfuncinfo$?FindNearestTraffic@SimulationDriver@@QAEPAVSimBaseClass@@PAVAircraftClass@@PAVObjectiveClass@@PAM@Z DD 019930522H
	DD	01H
	DD	FLAT:__unwindtable$?FindNearestTraffic@SimulationDriver@@QAEPAVSimBaseClass@@PAVAircraftClass@@PAVObjectiveClass@@PAM@Z
	DD	2 DUP(00H)
	DD	2 DUP(00H)
	DD	00H
	DD	01H
__ehfuncinfo$?FindNearestCampEnemy@SimulationDriver@@QAEPAVCampBaseClass@@PAVAircraftClass@@PAF1PAM@Z DD 019930522H
	DD	01H
	DD	FLAT:__unwindtable$?FindNearestCampEnemy@SimulationDriver@@QAEPAVCampBaseClass@@PAVAircraftClass@@PAF1PAM@Z
	DD	2 DUP(00H)
	DD	2 DUP(00H)
	DD	00H
	DD	01H
__ehfuncinfo$?FindNearestCampThreat@SimulationDriver@@QAEPAVCampBaseClass@@PAVAircraftClass@@PAF1PAM@Z DD 019930522H
	DD	01H
	DD	FLAT:__unwindtable$?FindNearestCampThreat@SimulationDriver@@QAEPAVCampBaseClass@@PAVAircraftClass@@PAF1PAM@Z
	DD	2 DUP(00H)
	DD	2 DUP(00H)
	DD	00H
	DD	01H
__ehfuncinfo$?FindNearestEnemyPlane@SimulationDriver@@QAEPAVSimBaseClass@@PAVAircraftClass@@PAF1PAM@Z DD 019930522H
	DD	01H
	DD	FLAT:__unwindtable$?FindNearestEnemyPlane@SimulationDriver@@QAEPAVSimBaseClass@@PAVAircraftClass@@PAF1PAM@Z
	DD	2 DUP(00H)
	DD	2 DUP(00H)
	DD	00H
	DD	01H
__ehfuncinfo$?FindNearestThreat@SimulationDriver@@QAEPAVSimBaseClass@@PAVAircraftClass@@PAF1PAM@Z DD 019930522H
	DD	01H
	DD	FLAT:__unwindtable$?FindNearestThreat@SimulationDriver@@QAEPAVSimBaseClass@@PAVAircraftClass@@PAF1PAM@Z
	DD	2 DUP(00H)
	DD	2 DUP(00H)
	DD	00H
	DD	01H
__ehfuncinfo$?FindNearestThreat@SimulationDriver@@QAEPAVSimBaseClass@@PAF0PAM@Z DD 019930522H
	DD	01H
	DD	FLAT:__unwindtable$?FindNearestThreat@SimulationDriver@@QAEPAVSimBaseClass@@PAF0PAM@Z
	DD	2 DUP(00H)
	DD	2 DUP(00H)
	DD	00H
	DD	01H
__ehfuncinfo$?FindNearestThreat@SimulationDriver@@QAEPAVSimBaseClass@@PAM00@Z DD 019930522H
	DD	01H
	DD	FLAT:__unwindtable$?FindNearestThreat@SimulationDriver@@QAEPAVSimBaseClass@@PAM00@Z
	DD	2 DUP(00H)
	DD	2 DUP(00H)
	DD	00H
	DD	01H
__ehfuncinfo$?SetPlayerEntity@SimulationDriver@@QAEXPAVSimMoverClass@@@Z DD 019930522H
	DD	01H
	DD	FLAT:__unwindtable$?SetPlayerEntity@SimulationDriver@@QAEXPAVSimMoverClass@@@Z
	DD	2 DUP(00H)
	DD	2 DUP(00H)
	DD	00H
	DD	01H
__ehfuncinfo$?Cycle@SimulationDriver@@QAEXXZ DD 019930522H
	DD	01H
	DD	FLAT:__unwindtable$?Cycle@SimulationDriver@@QAEXXZ
	DD	2 DUP(00H)
	DD	2 DUP(00H)
	DD	00H
	DD	01H
__ehfuncinfo$?Startup@SimulationDriver@@QAEXXZ DD 019930522H
	DD	012H
	DD	FLAT:__unwindtable$?Startup@SimulationDriver@@QAEXXZ
	DD	2 DUP(00H)
	DD	2 DUP(00H)
	DD	00H
	DD	01H
__unwindtable$?Startup@SimulationDriver@@QAEXXZ DD 0ffffffffH
	DD	FLAT:__unwindfunclet$?Startup@SimulationDriver@@QAEXXZ$0
	DD	00H
	DD	FLAT:__unwindfunclet$?Startup@SimulationDriver@@QAEXXZ$1
	DD	01H
	DD	FLAT:__unwindfunclet$?Startup@SimulationDriver@@QAEXXZ$2
	DD	02H
	DD	FLAT:__unwindfunclet$?Startup@SimulationDriver@@QAEXXZ$3
	DD	02H
	DD	FLAT:__unwindfunclet$?Startup@SimulationDriver@@QAEXXZ$4
	DD	04H
	DD	FLAT:__unwindfunclet$?Startup@SimulationDriver@@QAEXXZ$5
	DD	04H
	DD	FLAT:__unwindfunclet$?Startup@SimulationDriver@@QAEXXZ$6
	DD	06H
	DD	FLAT:__unwindfunclet$?Startup@SimulationDriver@@QAEXXZ$7
	DD	06H
	DD	FLAT:__unwindfunclet$?Startup@SimulationDriver@@QAEXXZ$8
	DD	08H
	DD	FLAT:__unwindfunclet$?Startup@SimulationDriver@@QAEXXZ$9
	DD	08H
	DD	FLAT:__unwindfunclet$?Startup@SimulationDriver@@QAEXXZ$10
	DD	08H
	DD	FLAT:__unwindfunclet$?Startup@SimulationDriver@@QAEXXZ$11
	DD	0bH
	DD	FLAT:__unwindfunclet$?Startup@SimulationDriver@@QAEXXZ$12
	DD	0bH
	DD	FLAT:__unwindfunclet$?Startup@SimulationDriver@@QAEXXZ$13
	DD	0bH
	DD	FLAT:__unwindfunclet$?Startup@SimulationDriver@@QAEXXZ$14
	DD	0eH
	DD	FLAT:__unwindfunclet$?Startup@SimulationDriver@@QAEXXZ$15
	DD	0eH
	DD	FLAT:__unwindfunclet$?Startup@SimulationDriver@@QAEXXZ$16
	DD	0eH
	DD	FLAT:__unwindfunclet$?Startup@SimulationDriver@@QAEXXZ$17
xdata$x	ENDS
;	COMDAT xdata$x
xdata$x	SEGMENT
__unwindtable$?Copy@ObjFilter@@UAEPAVVuFilter@@XZ DD 0ffffffffH
	DD	FLAT:__unwindfunclet$?Copy@ObjFilter@@UAEPAVVuFilter@@XZ$0
__ehfuncinfo$?Copy@ObjFilter@@UAEPAVVuFilter@@XZ DD 019930522H
	DD	01H
	DD	FLAT:__unwindtable$?Copy@ObjFilter@@UAEPAVVuFilter@@XZ
	DD	2 DUP(00H)
	DD	2 DUP(00H)
	DD	00H
	DD	01H
xdata$x	ENDS
;	COMDAT xdata$x
xdata$x	SEGMENT
__unwindtable$?Copy@UnitFilter@@UAEPAVVuFilter@@XZ DD 0ffffffffH
	DD	FLAT:__unwindfunclet$?Copy@UnitFilter@@UAEPAVVuFilter@@XZ$0
__ehfuncinfo$?Copy@UnitFilter@@UAEPAVVuFilter@@XZ DD 019930522H
	DD	01H
	DD	FLAT:__unwindtable$?Copy@UnitFilter@@UAEPAVVuFilter@@XZ
	DD	2 DUP(00H)
	DD	2 DUP(00H)
	DD	00H
	DD	01H
xdata$x	ENDS
;	COMDAT xdata$x
xdata$x	SEGMENT
__catchsym$?_Copy@?$basic_string@DU?$char_traits@D@std@@V?$allocator@D@2@@std@@QAEXII@Z$5 DD 040H
	DD	00H
	DD	00H
	DD	FLAT:__catch$?_Copy@?$basic_string@DU?$char_traits@D@std@@V?$allocator@D@2@@std@@QAEXII@Z$0
__catchsym$?_Copy@?$basic_string@DU?$char_traits@D@std@@V?$allocator@D@2@@std@@QAEXII@Z$4 DD 040H
	DD	00H
	DD	00H
	DD	FLAT:__catch$?_Copy@?$basic_string@DU?$char_traits@D@std@@V?$allocator@D@2@@std@@QAEXII@Z$1
__unwindtable$?_Copy@?$basic_string@DU?$char_traits@D@std@@V?$allocator@D@2@@std@@QAEXII@Z DD 0ffffffffH
	DD	00H
	DD	0ffffffffH
	DD	00H
	DD	01H
	DD	00H
	DD	01H
	DD	00H
__ehfuncinfo$?_Copy@?$basic_string@DU?$char_traits@D@std@@V?$allocator@D@2@@std@@QAEXII@Z DD 019930522H
	DD	04H
	DD	FLAT:__unwindtable$?_Copy@?$basic_string@DU?$char_traits@D@std@@V?$allocator@D@2@@std@@QAEXII@Z
	DD	02H
	DD	FLAT:__tryblocktable$?_Copy@?$basic_string@DU?$char_traits@D@std@@V?$allocator@D@2@@std@@QAEXII@Z
	DD	2 DUP(00H)
	DD	00H
	DD	01H
__tryblocktable$?_Copy@?$basic_string@DU?$char_traits@D@std@@V?$allocator@D@2@@std@@QAEXII@Z DD 02H
	DD	02H
	DD	03H
	DD	01H
	DD	FLAT:__catchsym$?_Copy@?$basic_string@DU?$char_traits@D@std@@V?$allocator@D@2@@std@@QAEXII@Z$4
	DD	00H
	DD	00H
	DD	03H
	DD	01H
	DD	FLAT:__catchsym$?_Copy@?$basic_string@DU?$char_traits@D@std@@V?$allocator@D@2@@std@@QAEXII@Z$5
xdata$x	ENDS
CRT$XCU	SEGMENT
_allocator_arg$initializer$ DD FLAT:??__Eallocator_arg@std@@YAXXZ
CRT$XCU	ENDS
CRT$XCU	SEGMENT
_SimDriver$initializer$ DD FLAT:??__ESimDriver@@YAXXZ
CRT$XCU	ENDS
;	COMDAT CRT$XCU
CRT$XCU	SEGMENT
?_Generic_object$initializer$@?$_Error_objects@H@std@@2P6AXXZA DD FLAT:??__E?_Generic_object@?$_Error_objects@H@std@@2V_Generic_error_category@2@A@@YAXXZ ; std::_Error_objects<int>::_Generic_object$initializer$
CRT$XCU	ENDS
;	COMDAT CRT$XCU
CRT$XCU	SEGMENT
?_Iostream_object$initializer$@?$_Error_objects@H@std@@2P6AXXZA DD FLAT:??__E?_Iostream_object@?$_Error_objects@H@std@@2V_Iostream_error_category@2@A@@YAXXZ ; std::_Error_objects<int>::_Iostream_object$initializer$
CRT$XCU	ENDS
;	COMDAT CRT$XCU
CRT$XCU	SEGMENT
?_System_object$initializer$@?$_Error_objects@H@std@@2P6AXXZA DD FLAT:??__E?_System_object@?$_Error_objects@H@std@@2V_System_error_category@2@A@@YAXXZ ; std::_Error_objects<int>::_System_object$initializer$
CRT$XCU	ENDS
;	COMDAT CRT$XCU
CRT$XCU	SEGMENT
?id$initializer$@?$num_put@DV?$back_insert_iterator@V?$basic_string@DU?$char_traits@D@std@@V?$allocator@D@2@@std@@@std@@@std@@2P6AXXZA DD FLAT:??__E?id@?$num_put@DV?$back_insert_iterator@V?$basic_string@DU?$char_traits@D@std@@V?$allocator@D@2@@std@@@std@@@std@@2V0locale@2@A@@YAXXZ ; std::num_put<char,std::back_insert_iterator<std::basic_string<char,std::char_traits<char>,std::allocator<char> > > >::id$initializer$
CRT$XCU	ENDS
;	COMDAT CRT$XCU
CRT$XCU	SEGMENT
?id$initializer$@?$num_put@_WV?$back_insert_iterator@V?$basic_string@_WU?$char_traits@_W@std@@V?$allocator@_W@2@@std@@@std@@@std@@2P6AXXZA DD FLAT:??__E?id@?$num_put@_WV?$back_insert_iterator@V?$basic_string@_WU?$char_traits@_W@std@@V?$allocator@_W@2@@std@@@std@@@std@@2V0locale@2@A@@YAXXZ ; std::num_put<wchar_t,std::back_insert_iterator<std::basic_string<wchar_t,std::char_traits<wchar_t>,std::allocator<wchar_t> > > >::id$initializer$
CRT$XCU	ENDS
;	COMDAT CRT$XCU
CRT$XCU	SEGMENT
?id$initializer$@?$numpunct@D@std@@2P6AXXZA DD FLAT:??__E?id@?$numpunct@D@std@@2V0locale@2@A@@YAXXZ ; std::numpunct<char>::id$initializer$
CRT$XCU	ENDS
;	COMDAT CRT$XCU
CRT$XCU	SEGMENT
?id$initializer$@?$numpunct@_W@std@@2P6AXXZA DD FLAT:??__E?id@?$numpunct@_W@std@@2V0locale@2@A@@YAXXZ ; std::numpunct<wchar_t>::id$initializer$
CRT$XCU	ENDS
; Function compile flags: /Odtp
; File c:\program files (x86)\microsoft visual studio 11.0\vc\include\xmemory0
;	COMDAT ??$destroy@PAD@?$allocator@D@std@@QAEXPAPAD@Z
_TEXT	SEGMENT
_this$ = -4						; size = 4
__Ptr$ = 8						; size = 4
??$destroy@PAD@?$allocator@D@std@@QAEXPAPAD@Z PROC	; std::allocator<char>::destroy<char *>, COMDAT
; _this$ = ecx

; 621  : 		void destroy(_Uty *_Ptr)

	push	ebp
	mov	ebp, esp
	push	ecx
	mov	DWORD PTR _this$[ebp], ecx

; 622  : 		{	// destroy object at _Ptr
; 623  : 		_Ptr->~_Uty();
; 624  : 		}

	mov	esp, ebp
	pop	ebp
	ret	4
??$destroy@PAD@?$allocator@D@std@@QAEXPAPAD@Z ENDP	; std::allocator<char>::destroy<char *>
_TEXT	ENDS
; Function compile flags: /Odtp
; File c:\program files (x86)\microsoft visual studio 11.0\vc\include\xmemory0
;	COMDAT ??$construct@PADAAPAD@?$allocator@D@std@@QAEXPAPADAAPAD@Z
_TEXT	SEGMENT
$T2 = -28						; size = 4
_this$ = -24						; size = 4
tv73 = -20						; size = 4
$T3 = -16						; size = 4
__$EHRec$ = -12						; size = 12
__Ptr$ = 8						; size = 4
__V0$ = 12						; size = 4
??$construct@PADAAPAD@?$allocator@D@std@@QAEXPAPADAAPAD@Z PROC ; std::allocator<char>::construct<char *,char * &>, COMDAT
; _this$ = ecx

; 617  : _VARIADIC_EXPAND_0X(_ALLOC_MEMBER_CONSTRUCT, , , , )

	push	ebp
	mov	ebp, esp
	push	-1
	push	__ehhandler$??$construct@PADAAPAD@?$allocator@D@std@@QAEXPAPADAAPAD@Z
	mov	eax, DWORD PTR fs:0
	push	eax
	sub	esp, 16					; 00000010H
	mov	eax, DWORD PTR ___security_cookie
	xor	eax, ebp
	push	eax
	lea	eax, DWORD PTR __$EHRec$[ebp]
	mov	DWORD PTR fs:0, eax
	mov	DWORD PTR _this$[ebp], ecx
	mov	eax, DWORD PTR __Ptr$[ebp]
	push	eax
	push	4
	call	??2@YAPAXIPAX@Z				; operator new
	add	esp, 8
	mov	DWORD PTR $T3[ebp], eax
	mov	DWORD PTR __$EHRec$[ebp+8], 0
	cmp	DWORD PTR $T3[ebp], 0
	je	SHORT $LN3@construct
	mov	ecx, DWORD PTR __V0$[ebp]
	push	ecx
	call	??$forward@AAPAD@std@@YAAAPADAAPAD@Z	; std::forward<char * &>
	add	esp, 4
	mov	edx, DWORD PTR $T3[ebp]
	mov	eax, DWORD PTR [eax]
	mov	DWORD PTR [edx], eax
	mov	ecx, DWORD PTR $T3[ebp]
	mov	DWORD PTR tv73[ebp], ecx
	jmp	SHORT $LN4@construct
$LN3@construct:
	mov	DWORD PTR tv73[ebp], 0
$LN4@construct:
	mov	edx, DWORD PTR tv73[ebp]
	mov	DWORD PTR $T2[ebp], edx
	mov	DWORD PTR __$EHRec$[ebp+8], -1
	mov	ecx, DWORD PTR __$EHRec$[ebp]
	mov	DWORD PTR fs:0, ecx
	pop	ecx
	mov	esp, ebp
	pop	ebp
	ret	8
_TEXT	ENDS
;	COMDAT text$x
text$x	SEGMENT
__unwindfunclet$??$construct@PADAAPAD@?$allocator@D@std@@QAEXPAPADAAPAD@Z$0:
	mov	eax, DWORD PTR __Ptr$[ebp]
	push	eax
	mov	eax, DWORD PTR $T3[ebp]
	push	eax
	call	??3@YAXPAX0@Z				; operator delete
	add	esp, 8
	ret	0
__ehhandler$??$construct@PADAAPAD@?$allocator@D@std@@QAEXPAPADAAPAD@Z:
	mov	edx, DWORD PTR [esp+8]
	lea	eax, DWORD PTR [edx+12]
	mov	ecx, DWORD PTR [edx-20]
	xor	ecx, eax
	call	@__security_check_cookie@4
	mov	eax, OFFSET __ehfuncinfo$??$construct@PADAAPAD@?$allocator@D@std@@QAEXPAPADAAPAD@Z
	jmp	___CxxFrameHandler3
text$x	ENDS
??$construct@PADAAPAD@?$allocator@D@std@@QAEXPAPADAAPAD@Z ENDP ; std::allocator<char>::construct<char *,char * &>
; Function compile flags: /Odtp
; File c:\program files (x86)\microsoft visual studio 11.0\vc\include\xlocnum
;	COMDAT ??__E?id@?$numpunct@_W@std@@2V0locale@2@A@@YAXXZ
text$yc	SEGMENT
??__E?id@?$numpunct@_W@std@@2V0locale@2@A@@YAXXZ PROC	; `dynamic initializer for 'std::numpunct<wchar_t>::id'', COMDAT

; 155  : 		void _Getvals(wchar_t, const lconv *_Ptr, _Locinfo::_Cvtvec)

	push	ebp
	mov	ebp, esp
	push	0
	mov	ecx, OFFSET ?id@?$numpunct@_W@std@@2V0locale@2@A ; std::numpunct<wchar_t>::id
	call	??0id@locale@std@@QAE@I@Z		; std::locale::id::id
	pop	ebp
	ret	0
??__E?id@?$numpunct@_W@std@@2V0locale@2@A@@YAXXZ ENDP	; `dynamic initializer for 'std::numpunct<wchar_t>::id''
text$yc	ENDS
; Function compile flags: /Odtp
; File c:\program files (x86)\microsoft visual studio 11.0\vc\include\xlocnum
;	COMDAT ??__E?id@?$numpunct@D@std@@2V0locale@2@A@@YAXXZ
text$yc	SEGMENT
??__E?id@?$numpunct@D@std@@2V0locale@2@A@@YAXXZ PROC	; `dynamic initializer for 'std::numpunct<char>::id'', COMDAT

; 155  : 		void _Getvals(wchar_t, const lconv *_Ptr, _Locinfo::_Cvtvec)

	push	ebp
	mov	ebp, esp
	push	0
	mov	ecx, OFFSET ?id@?$numpunct@D@std@@2V0locale@2@A ; std::numpunct<char>::id
	call	??0id@locale@std@@QAE@I@Z		; std::locale::id::id
	pop	ebp
	ret	0
??__E?id@?$numpunct@D@std@@2V0locale@2@A@@YAXXZ ENDP	; `dynamic initializer for 'std::numpunct<char>::id''
text$yc	ENDS
; Function compile flags: /Odtp
; File c:\program files (x86)\microsoft visual studio 11.0\vc\include\xlocnum
;	COMDAT ??__E?id@?$num_put@_WV?$back_insert_iterator@V?$basic_string@_WU?$char_traits@_W@std@@V?$allocator@_W@2@@std@@@std@@@std@@2V0locale@2@A@@YAXXZ
text$yc	SEGMENT
??__E?id@?$num_put@_WV?$back_insert_iterator@V?$basic_string@_WU?$char_traits@_W@std@@V?$allocator@_W@2@@std@@@std@@@std@@2V0locale@2@A@@YAXXZ PROC ; `dynamic initializer for 'std::num_put<wchar_t,std::back_insert_iterator<std::basic_string<wchar_t,std::char_traits<wchar_t>,std::allocator<wchar_t> > > >::id'', COMDAT

; 155  : 		void _Getvals(wchar_t, const lconv *_Ptr, _Locinfo::_Cvtvec)

	push	ebp
	mov	ebp, esp
	push	0
	mov	ecx, OFFSET ?id@?$num_put@_WV?$back_insert_iterator@V?$basic_string@_WU?$char_traits@_W@std@@V?$allocator@_W@2@@std@@@std@@@std@@2V0locale@2@A ; std::num_put<wchar_t,std::back_insert_iterator<std::basic_string<wchar_t,std::char_traits<wchar_t>,std::allocator<wchar_t> > > >::id
	call	??0id@locale@std@@QAE@I@Z		; std::locale::id::id
	pop	ebp
	ret	0
??__E?id@?$num_put@_WV?$back_insert_iterator@V?$basic_string@_WU?$char_traits@_W@std@@V?$allocator@_W@2@@std@@@std@@@std@@2V0locale@2@A@@YAXXZ ENDP ; `dynamic initializer for 'std::num_put<wchar_t,std::back_insert_iterator<std::basic_string<wchar_t,std::char_traits<wchar_t>,std::allocator<wchar_t> > > >::id''
text$yc	ENDS
; Function compile flags: /Odtp
; File c:\program files (x86)\microsoft visual studio 11.0\vc\include\xlocnum
;	COMDAT ??__E?id@?$num_put@DV?$back_insert_iterator@V?$basic_string@DU?$char_traits@D@std@@V?$allocator@D@2@@std@@@std@@@std@@2V0locale@2@A@@YAXXZ
text$yc	SEGMENT
??__E?id@?$num_put@DV?$back_insert_iterator@V?$basic_string@DU?$char_traits@D@std@@V?$allocator@D@2@@std@@@std@@@std@@2V0locale@2@A@@YAXXZ PROC ; `dynamic initializer for 'std::num_put<char,std::back_insert_iterator<std::basic_string<char,std::char_traits<char>,std::allocator<char> > > >::id'', COMDAT

; 155  : 		void _Getvals(wchar_t, const lconv *_Ptr, _Locinfo::_Cvtvec)

	push	ebp
	mov	ebp, esp
	push	0
	mov	ecx, OFFSET ?id@?$num_put@DV?$back_insert_iterator@V?$basic_string@DU?$char_traits@D@std@@V?$allocator@D@2@@std@@@std@@@std@@2V0locale@2@A ; std::num_put<char,std::back_insert_iterator<std::basic_string<char,std::char_traits<char>,std::allocator<char> > > >::id
	call	??0id@locale@std@@QAE@I@Z		; std::locale::id::id
	pop	ebp
	ret	0
??__E?id@?$num_put@DV?$back_insert_iterator@V?$basic_string@DU?$char_traits@D@std@@V?$allocator@D@2@@std@@@std@@@std@@2V0locale@2@A@@YAXXZ ENDP ; `dynamic initializer for 'std::num_put<char,std::back_insert_iterator<std::basic_string<char,std::char_traits<char>,std::allocator<char> > > >::id''
text$yc	ENDS
; Function compile flags: /Odtp
; File c:\program files (x86)\microsoft visual studio 11.0\vc\include\xmemory0
;	COMDAT ??$destroy@PAD@?$allocator_traits@V?$allocator@D@std@@@std@@SAXAAV?$allocator@D@1@PAPAD@Z
_TEXT	SEGMENT
__Al$ = 8						; size = 4
__Ptr$ = 12						; size = 4
??$destroy@PAD@?$allocator_traits@V?$allocator@D@std@@@std@@SAXAAV?$allocator@D@1@PAPAD@Z PROC ; std::allocator_traits<std::allocator<char> >::destroy<char *>, COMDAT

; 755  : 		static void destroy(_Alloc& _Al, _Uty *_Ptr)

	push	ebp
	mov	ebp, esp

; 756  : 		{	// destroy object at _Ptr
; 757  : 		_Al.destroy(_Ptr);

	mov	eax, DWORD PTR __Ptr$[ebp]
	push	eax
	mov	ecx, DWORD PTR __Al$[ebp]
	call	??$destroy@PAD@?$allocator@D@std@@QAEXPAPAD@Z ; std::allocator<char>::destroy<char *>

; 758  : 		}

	pop	ebp
	ret	0
??$destroy@PAD@?$allocator_traits@V?$allocator@D@std@@@std@@SAXAAV?$allocator@D@1@PAPAD@Z ENDP ; std::allocator_traits<std::allocator<char> >::destroy<char *>
_TEXT	ENDS
; Function compile flags: /Odtp
; File c:\program files (x86)\microsoft visual studio 11.0\vc\include\xmemory0
;	COMDAT ??$construct@PADAAPAD@?$allocator_traits@V?$allocator@D@std@@@std@@SAXAAV?$allocator@D@1@PAPADAAPAD@Z
_TEXT	SEGMENT
__Al$ = 8						; size = 4
__Ptr$ = 12						; size = 4
__V0$ = 16						; size = 4
??$construct@PADAAPAD@?$allocator_traits@V?$allocator@D@std@@@std@@SAXAAV?$allocator@D@1@PAPADAAPAD@Z PROC ; std::allocator_traits<std::allocator<char> >::construct<char *,char * &>, COMDAT

; 751  : _VARIADIC_EXPAND_0X(_ALLOC_TRAITS_SPECIAL_CONSTRUCT, , , , )

	push	ebp
	mov	ebp, esp
	mov	eax, DWORD PTR __V0$[ebp]
	push	eax
	call	??$forward@AAPAD@std@@YAAAPADAAPAD@Z	; std::forward<char * &>
	add	esp, 4
	push	eax
	mov	ecx, DWORD PTR __Ptr$[ebp]
	push	ecx
	mov	ecx, DWORD PTR __Al$[ebp]
	call	??$construct@PADAAPAD@?$allocator@D@std@@QAEXPAPADAAPAD@Z ; std::allocator<char>::construct<char *,char * &>
	pop	ebp
	ret	0
??$construct@PADAAPAD@?$allocator_traits@V?$allocator@D@std@@@std@@SAXAAV?$allocator@D@1@PAPADAAPAD@Z ENDP ; std::allocator_traits<std::allocator<char> >::construct<char *,char * &>
_TEXT	ENDS
; Function compile flags: /Odtp
; File c:\program files (x86)\microsoft visual studio 11.0\vc\include\type_traits
;	COMDAT ??$forward@AAPAD@std@@YAAAPADAAPAD@Z
_TEXT	SEGMENT
__Arg$ = 8						; size = 4
??$forward@AAPAD@std@@YAAAPADAAPAD@Z PROC		; std::forward<char * &>, COMDAT

; 1775 : 	{	// forward an lvalue

	push	ebp
	mov	ebp, esp

; 1776 : 	return (static_cast<_Ty&&>(_Arg));

	mov	eax, DWORD PTR __Arg$[ebp]

; 1777 : 	}

	pop	ebp
	ret	0
??$forward@AAPAD@std@@YAAAPADAAPAD@Z ENDP		; std::forward<char * &>
_TEXT	ENDS
; Function compile flags: /Odtp
;	COMDAT ??__F?_System_object@?$_Error_objects@H@std@@2V_System_error_category@2@A@@YAXXZ
text$yd	SEGMENT
??__F?_System_object@?$_Error_objects@H@std@@2V_System_error_category@2@A@@YAXXZ PROC ; `dynamic atexit destructor for 'std::_Error_objects<int>::_System_object'', COMDAT
	push	ebp
	mov	ebp, esp
	mov	ecx, OFFSET ?_System_object@?$_Error_objects@H@std@@2V_System_error_category@2@A ; std::_Error_objects<int>::_System_object
	call	??1_System_error_category@std@@UAE@XZ
	pop	ebp
	ret	0
??__F?_System_object@?$_Error_objects@H@std@@2V_System_error_category@2@A@@YAXXZ ENDP ; `dynamic atexit destructor for 'std::_Error_objects<int>::_System_object''
text$yd	ENDS
; Function compile flags: /Odtp
; File c:\program files (x86)\microsoft visual studio 11.0\vc\include\xmemory0
;	COMDAT ??__E?_System_object@?$_Error_objects@H@std@@2V_System_error_category@2@A@@YAXXZ
text$yc	SEGMENT
??__E?_System_object@?$_Error_objects@H@std@@2V_System_error_category@2@A@@YAXXZ PROC ; `dynamic initializer for 'std::_Error_objects<int>::_System_object'', COMDAT

; 627  : 		{	// estimate maximum array size

	push	ebp
	mov	ebp, esp
	mov	ecx, OFFSET ?_System_object@?$_Error_objects@H@std@@2V_System_error_category@2@A ; std::_Error_objects<int>::_System_object
	call	??0_System_error_category@std@@QAE@XZ	; std::_System_error_category::_System_error_category
	push	OFFSET ??__F?_System_object@?$_Error_objects@H@std@@2V_System_error_category@2@A@@YAXXZ ; `dynamic atexit destructor for 'std::_Error_objects<int>::_System_object''
	call	_atexit
	add	esp, 4
	pop	ebp
	ret	0
??__E?_System_object@?$_Error_objects@H@std@@2V_System_error_category@2@A@@YAXXZ ENDP ; `dynamic initializer for 'std::_Error_objects<int>::_System_object''
text$yc	ENDS
; Function compile flags: /Odtp
;	COMDAT ??__F?_Iostream_object@?$_Error_objects@H@std@@2V_Iostream_error_category@2@A@@YAXXZ
text$yd	SEGMENT
??__F?_Iostream_object@?$_Error_objects@H@std@@2V_Iostream_error_category@2@A@@YAXXZ PROC ; `dynamic atexit destructor for 'std::_Error_objects<int>::_Iostream_object'', COMDAT
	push	ebp
	mov	ebp, esp
	mov	ecx, OFFSET ?_Iostream_object@?$_Error_objects@H@std@@2V_Iostream_error_category@2@A ; std::_Error_objects<int>::_Iostream_object
	call	??1_Iostream_error_category@std@@UAE@XZ
	pop	ebp
	ret	0
??__F?_Iostream_object@?$_Error_objects@H@std@@2V_Iostream_error_category@2@A@@YAXXZ ENDP ; `dynamic atexit destructor for 'std::_Error_objects<int>::_Iostream_object''
text$yd	ENDS
; Function compile flags: /Odtp
; File c:\program files (x86)\microsoft visual studio 11.0\vc\include\xmemory0
;	COMDAT ??__E?_Iostream_object@?$_Error_objects@H@std@@2V_Iostream_error_category@2@A@@YAXXZ
text$yc	SEGMENT
??__E?_Iostream_object@?$_Error_objects@H@std@@2V_Iostream_error_category@2@A@@YAXXZ PROC ; `dynamic initializer for 'std::_Error_objects<int>::_Iostream_object'', COMDAT

; 627  : 		{	// estimate maximum array size

	push	ebp
	mov	ebp, esp
	mov	ecx, OFFSET ?_Iostream_object@?$_Error_objects@H@std@@2V_Iostream_error_category@2@A ; std::_Error_objects<int>::_Iostream_object
	call	??0_Iostream_error_category@std@@QAE@XZ	; std::_Iostream_error_category::_Iostream_error_category
	push	OFFSET ??__F?_Iostream_object@?$_Error_objects@H@std@@2V_Iostream_error_category@2@A@@YAXXZ ; `dynamic atexit destructor for 'std::_Error_objects<int>::_Iostream_object''
	call	_atexit
	add	esp, 4
	pop	ebp
	ret	0
??__E?_Iostream_object@?$_Error_objects@H@std@@2V_Iostream_error_category@2@A@@YAXXZ ENDP ; `dynamic initializer for 'std::_Error_objects<int>::_Iostream_object''
text$yc	ENDS
; Function compile flags: /Odtp
;	COMDAT ??__F?_Generic_object@?$_Error_objects@H@std@@2V_Generic_error_category@2@A@@YAXXZ
text$yd	SEGMENT
??__F?_Generic_object@?$_Error_objects@H@std@@2V_Generic_error_category@2@A@@YAXXZ PROC ; `dynamic atexit destructor for 'std::_Error_objects<int>::_Generic_object'', COMDAT
	push	ebp
	mov	ebp, esp
	mov	ecx, OFFSET ?_Generic_object@?$_Error_objects@H@std@@2V_Generic_error_category@2@A ; std::_Error_objects<int>::_Generic_object
	call	??1_Generic_error_category@std@@UAE@XZ
	pop	ebp
	ret	0
??__F?_Generic_object@?$_Error_objects@H@std@@2V_Generic_error_category@2@A@@YAXXZ ENDP ; `dynamic atexit destructor for 'std::_Error_objects<int>::_Generic_object''
text$yd	ENDS
; Function compile flags: /Odtp
; File c:\program files (x86)\microsoft visual studio 11.0\vc\include\xmemory0
;	COMDAT ??__E?_Generic_object@?$_Error_objects@H@std@@2V_Generic_error_category@2@A@@YAXXZ
text$yc	SEGMENT
??__E?_Generic_object@?$_Error_objects@H@std@@2V_Generic_error_category@2@A@@YAXXZ PROC ; `dynamic initializer for 'std::_Error_objects<int>::_Generic_object'', COMDAT

; 627  : 		{	// estimate maximum array size

	push	ebp
	mov	ebp, esp
	mov	ecx, OFFSET ?_Generic_object@?$_Error_objects@H@std@@2V_Generic_error_category@2@A ; std::_Error_objects<int>::_Generic_object
	call	??0_Generic_error_category@std@@QAE@XZ	; std::_Generic_error_category::_Generic_error_category
	push	OFFSET ??__F?_Generic_object@?$_Error_objects@H@std@@2V_Generic_error_category@2@A@@YAXXZ ; `dynamic atexit destructor for 'std::_Error_objects<int>::_Generic_object''
	call	_atexit
	add	esp, 4
	pop	ebp
	ret	0
??__E?_Generic_object@?$_Error_objects@H@std@@2V_Generic_error_category@2@A@@YAXXZ ENDP ; `dynamic initializer for 'std::_Error_objects<int>::_Generic_object''
text$yc	ENDS
; Function compile flags: /Odtp
; File c:\program files (x86)\microsoft visual studio 11.0\vc\include\xmemory0
;	COMDAT ??$_Allocate@D@std@@YAPADIPAD@Z
_TEXT	SEGMENT
__Ptr$ = -4						; size = 4
__Count$ = 8						; size = 4
___formal$ = 12						; size = 4
??$_Allocate@D@std@@YAPADIPAD@Z PROC			; std::_Allocate<char>, COMDAT

; 22   : 	{	// allocate storage for _Count elements of type _Ty

	push	ebp
	mov	ebp, esp
	push	ecx

; 23   : 	void *_Ptr = 0;

	mov	DWORD PTR __Ptr$[ebp], 0

; 24   : 
; 25   : 	if (_Count == 0)

	cmp	DWORD PTR __Count$[ebp], 0
	jne	SHORT $LN4@Allocate

; 26   : 		;
; 27   : 	else if (((size_t)(-1) / sizeof (_Ty) < _Count)

	jmp	SHORT $LN3@Allocate
$LN4@Allocate:

; 28   : 		|| (_Ptr = ::operator new(_Count * sizeof (_Ty))) == 0)

	cmp	DWORD PTR __Count$[ebp], -1
	ja	SHORT $LN1@Allocate
	mov	eax, DWORD PTR __Count$[ebp]
	push	eax
	call	??2@YAPAXI@Z				; operator new
	add	esp, 4
	mov	DWORD PTR __Ptr$[ebp], eax
	cmp	DWORD PTR __Ptr$[ebp], 0
	jne	SHORT $LN3@Allocate
$LN1@Allocate:

; 29   : 		_Xbad_alloc();	// report no memory

	call	?_Xbad_alloc@std@@YAXXZ			; std::_Xbad_alloc
$LN3@Allocate:

; 30   : 
; 31   : 	return ((_Ty *)_Ptr);

	mov	eax, DWORD PTR __Ptr$[ebp]
$LN6@Allocate:

; 32   : 	}

	mov	esp, ebp
	pop	ebp
	ret	0
??$_Allocate@D@std@@YAPADIPAD@Z ENDP			; std::_Allocate<char>
_TEXT	ENDS
; Function compile flags: /Odtp
; File c:\program files (x86)\microsoft visual studio 11.0\vc\include\xstddef
;	COMDAT ??$addressof@D@std@@YAPADAAD@Z
_TEXT	SEGMENT
__Val$ = 8						; size = 4
??$addressof@D@std@@YAPADAAD@Z PROC			; std::addressof<char>, COMDAT

; 85   : 	{	// return address of _Val

	push	ebp
	mov	ebp, esp

; 86   : 	return (reinterpret_cast<_Ty *>(
; 87   : 		(&const_cast<char&>(
; 88   : 		reinterpret_cast<const volatile char&>(_Val)))));

	mov	eax, DWORD PTR __Val$[ebp]

; 89   : 	}

	pop	ebp
	ret	0
??$addressof@D@std@@YAPADAAD@Z ENDP			; std::addressof<char>
_TEXT	ENDS
; Function compile flags: /Odtp
; File c:\program files (x86)\microsoft visual studio 11.0\vc\include\xmemory0
;	COMDAT ??$destroy@PAD@?$_Wrap_alloc@V?$allocator@D@std@@@std@@QAEXPAPAD@Z
_TEXT	SEGMENT
_this$ = -4						; size = 4
__Ptr$ = 8						; size = 4
??$destroy@PAD@?$_Wrap_alloc@V?$allocator@D@std@@@std@@QAEXPAPAD@Z PROC ; std::_Wrap_alloc<std::allocator<char> >::destroy<char *>, COMDAT
; _this$ = ecx

; 907  : 		void destroy(_Ty *_Ptr)

	push	ebp
	mov	ebp, esp
	push	ecx
	mov	DWORD PTR _this$[ebp], ecx

; 908  : 		{	// destroy object at _Ptr
; 909  : 		_Mytraits::destroy(*this, _Ptr);

	mov	eax, DWORD PTR __Ptr$[ebp]
	push	eax
	mov	ecx, DWORD PTR _this$[ebp]
	push	ecx
	call	??$destroy@PAD@?$allocator_traits@V?$allocator@D@std@@@std@@SAXAAV?$allocator@D@1@PAPAD@Z ; std::allocator_traits<std::allocator<char> >::destroy<char *>
	add	esp, 8

; 910  : 		}

	mov	esp, ebp
	pop	ebp
	ret	4
??$destroy@PAD@?$_Wrap_alloc@V?$allocator@D@std@@@std@@QAEXPAPAD@Z ENDP ; std::_Wrap_alloc<std::allocator<char> >::destroy<char *>
_TEXT	ENDS
; Function compile flags: /Odtp
; File c:\program files (x86)\microsoft visual studio 11.0\vc\include\xmemory0
;	COMDAT ??$construct@PADAAPAD@?$_Wrap_alloc@V?$allocator@D@std@@@std@@QAEXPAPADAAPAD@Z
_TEXT	SEGMENT
_this$ = -4						; size = 4
__Ptr$ = 8						; size = 4
__V0$ = 12						; size = 4
??$construct@PADAAPAD@?$_Wrap_alloc@V?$allocator@D@std@@@std@@QAEXPAPADAAPAD@Z PROC ; std::_Wrap_alloc<std::allocator<char> >::construct<char *,char * &>, COMDAT
; _this$ = ecx

; 903  : _VARIADIC_EXPAND_0X(_WRAP_ALLOC_CONSTRUCT, , , , )

	push	ebp
	mov	ebp, esp
	push	ecx
	mov	DWORD PTR _this$[ebp], ecx
	mov	eax, DWORD PTR __V0$[ebp]
	push	eax
	call	??$forward@AAPAD@std@@YAAAPADAAPAD@Z	; std::forward<char * &>
	add	esp, 4
	push	eax
	mov	ecx, DWORD PTR __Ptr$[ebp]
	push	ecx
	mov	edx, DWORD PTR _this$[ebp]
	push	edx
	call	??$construct@PADAAPAD@?$allocator_traits@V?$allocator@D@std@@@std@@SAXAAV?$allocator@D@1@PAPADAAPAD@Z ; std::allocator_traits<std::allocator<char> >::construct<char *,char * &>
	add	esp, 12					; 0000000cH
	mov	esp, ebp
	pop	ebp
	ret	8
??$construct@PADAAPAD@?$_Wrap_alloc@V?$allocator@D@std@@@std@@QAEXPAPADAAPAD@Z ENDP ; std::_Wrap_alloc<std::allocator<char> >::construct<char *,char * &>
_TEXT	ENDS
; Function compile flags: /Odtp
;	COMDAT ??__FSimDriver@@YAXXZ
text$yd	SEGMENT
??__FSimDriver@@YAXXZ PROC				; `dynamic atexit destructor for 'SimDriver'', COMDAT
	push	ebp
	mov	ebp, esp
	mov	ecx, OFFSET ?SimDriver@@3VSimulationDriver@@A ; SimDriver
	call	??1SimulationDriver@@QAE@XZ		; SimulationDriver::~SimulationDriver
	pop	ebp
	ret	0
??__FSimDriver@@YAXXZ ENDP				; `dynamic atexit destructor for 'SimDriver''
text$yd	ENDS
; Function compile flags: /Odtp
; File c:\users\zhitao li\documents\visual studio 2012\projects\freefalcon\sim\simdrive\simdrive.cpp
;	COMDAT ??__ESimDriver@@YAXXZ
text$yc	SEGMENT
??__ESimDriver@@YAXXZ PROC				; `dynamic initializer for 'SimDriver'', COMDAT

; 127  : SimulationDriver SimDriver;

	push	ebp
	mov	ebp, esp
	mov	ecx, OFFSET ?SimDriver@@3VSimulationDriver@@A ; SimDriver
	call	??0SimulationDriver@@QAE@XZ		; SimulationDriver::SimulationDriver
	push	OFFSET ??__FSimDriver@@YAXXZ		; `dynamic atexit destructor for 'SimDriver''
	call	_atexit
	add	esp, 4
	pop	ebp
	ret	0
??__ESimDriver@@YAXXZ ENDP				; `dynamic initializer for 'SimDriver''
text$yc	ENDS
; Function compile flags: /Odtp
; File c:\users\zhitao li\documents\visual studio 2012\projects\freefalcon\graphics\include\drawbsp.h
;	COMDAT ?Label@DrawableBSP@@QAEPADXZ
_TEXT	SEGMENT
_this$ = -4						; size = 4
?Label@DrawableBSP@@QAEPADXZ PROC			; DrawableBSP::Label, COMDAT
; _this$ = ecx

; 62   : 	char *Label()											{ return label; }

	push	ebp
	mov	ebp, esp
	push	ecx
	mov	DWORD PTR _this$[ebp], ecx
	mov	eax, DWORD PTR _this$[ebp]
	add	eax, 128				; 00000080H
	mov	esp, ebp
	pop	ebp
	ret	0
?Label@DrawableBSP@@QAEPADXZ ENDP			; DrawableBSP::Label
_TEXT	ENDS
; Function compile flags: /Odtp
; File c:\users\zhitao li\documents\visual studio 2012\projects\freefalcon\sim\include\object.h
;	COMDAT ?BaseData@SimObjectType@@QAEPAVFalconEntity@@XZ
_TEXT	SEGMENT
_this$ = -4						; size = 4
?BaseData@SimObjectType@@QAEPAVFalconEntity@@XZ PROC	; SimObjectType::BaseData, COMDAT
; _this$ = ecx

; 92   : 	FalconEntity* BaseData(void) { return baseData.get(); };

	push	ebp
	mov	ebp, esp
	push	ecx
	mov	DWORD PTR _this$[ebp], ecx
	mov	ecx, DWORD PTR _this$[ebp]
	call	?get@?$VuBin@VFalconEntity@@@@QBEPAVFalconEntity@@XZ ; VuBin<FalconEntity>::get
	mov	esp, ebp
	pop	ebp
	ret	0
?BaseData@SimObjectType@@QAEPAVFalconEntity@@XZ ENDP	; SimObjectType::BaseData
_TEXT	ENDS
; Function compile flags: /Odtp
; File c:\users\zhitao li\documents\visual studio 2012\projects\freefalcon\acmi\src\include\acmirec.h
;	COMDAT ?IsRecording@ACMIRecorder@@QAEHXZ
_TEXT	SEGMENT
_this$ = -4						; size = 4
?IsRecording@ACMIRecorder@@QAEHXZ PROC			; ACMIRecorder::IsRecording, COMDAT
; _this$ = ecx

; 319  : 	{

	push	ebp
	mov	ebp, esp
	push	ecx
	mov	DWORD PTR _this$[ebp], ecx

; 320  : 		return _recording;

	mov	eax, DWORD PTR _this$[ebp]
	mov	eax, DWORD PTR [eax+8]

; 321  : 	};

	mov	esp, ebp
	pop	ebp
	ret	0
?IsRecording@ACMIRecorder@@QAEHXZ ENDP			; ACMIRecorder::IsRecording
_TEXT	ENDS
; Function compile flags: /Odtp
; File c:\users\zhitao li\documents\visual studio 2012\projects\freefalcon\sim\include\bomb.h
;	COMDAT ?IsSetBombFlag@BombClass@@QAEHH@Z
_TEXT	SEGMENT
_this$ = -8						; size = 4
tv67 = -4						; size = 4
_newFlag$ = 8						; size = 4
?IsSetBombFlag@BombClass@@QAEHH@Z PROC			; BombClass::IsSetBombFlag, COMDAT
; _this$ = ecx

; 102  : 	int IsSetBombFlag (int newFlag) {return flags & newFlag ? TRUE : FALSE;};

	push	ebp
	mov	ebp, esp
	sub	esp, 8
	mov	DWORD PTR _this$[ebp], ecx
	mov	eax, DWORD PTR _this$[ebp]
	mov	ecx, DWORD PTR [eax+732]
	and	ecx, DWORD PTR _newFlag$[ebp]
	je	SHORT $LN3@IsSetBombF
	mov	DWORD PTR tv67[ebp], 1
	jmp	SHORT $LN4@IsSetBombF
$LN3@IsSetBombF:
	mov	DWORD PTR tv67[ebp], 0
$LN4@IsSetBombF:
	mov	eax, DWORD PTR tv67[ebp]
	mov	esp, ebp
	pop	ebp
	ret	4
?IsSetBombFlag@BombClass@@QAEHH@Z ENDP			; BombClass::IsSetBombFlag
_TEXT	ENDS
; Function compile flags: /Odtp
; File c:\users\zhitao li\documents\visual studio 2012\projects\freefalcon\sim\include\sensclas.h
;	COMDAT ?CurrentTarget@SensorClass@@QAEPAVSimObjectType@@XZ
_TEXT	SEGMENT
_this$ = -4						; size = 4
?CurrentTarget@SensorClass@@QAEPAVSimObjectType@@XZ PROC ; SensorClass::CurrentTarget, COMDAT
; _this$ = ecx

; 46   : 	SimObjectType* CurrentTarget(void)	{ return lockedTarget; };

	push	ebp
	mov	ebp, esp
	push	ecx
	mov	DWORD PTR _this$[ebp], ecx
	mov	eax, DWORD PTR _this$[ebp]
	mov	eax, DWORD PTR [eax+48]
	mov	esp, ebp
	pop	ebp
	ret	0
?CurrentTarget@SensorClass@@QAEPAVSimObjectType@@XZ ENDP ; SensorClass::CurrentTarget
_TEXT	ENDS
; Function compile flags: /Odtp
; File c:\users\zhitao li\documents\visual studio 2012\projects\freefalcon\sim\simdrive\simdrive.cpp
_TEXT	SEGMENT
_this$ = -4						; size = 4
?UpdateEntityLists@SimulationDriver@@AAEXXZ PROC	; SimulationDriver::UpdateEntityLists
; _this$ = ecx

; 1035 : void SimulationDriver::UpdateEntityLists(){

	push	ebp
	mov	ebp, esp
	push	ecx
	mov	DWORD PTR _this$[ebp], ecx

; 1036 : }

	mov	esp, ebp
	pop	ebp
	ret	0
?UpdateEntityLists@SimulationDriver@@AAEXXZ ENDP	; SimulationDriver::UpdateEntityLists
_TEXT	ENDS
; Function compile flags: /Odtp
; File c:\users\zhitao li\documents\visual studio 2012\projects\freefalcon\sim\simdrive\simdrive.cpp
_TEXT	SEGMENT
_this$ = -4						; size = 4
_theObject$ = 8						; size = 4
?SleepObject@SimulationDriver@@QAEXPAVSimBaseClass@@@Z PROC ; SimulationDriver::SleepObject
; _this$ = ecx

; 990  : {

	push	ebp
	mov	ebp, esp
	push	ecx
	mov	DWORD PTR _this$[ebp], ecx

; 991  : 	if (!theObject || !theObject->IsAwake())

	cmp	DWORD PTR _theObject$[ebp], 0
	je	SHORT $LN1@SleepObjec
	mov	ecx, DWORD PTR _theObject$[ebp]
	call	?IsAwake@SimBaseClass@@QBEHXZ		; SimBaseClass::IsAwake
	test	eax, eax
	jne	SHORT $LN2@SleepObjec
$LN1@SleepObjec:

; 992  : 		return;

	jmp	SHORT $LN3@SleepObjec
$LN2@SleepObjec:

; 993  : 
; 994  : 	theObject->Sleep();

	mov	eax, DWORD PTR _theObject$[ebp]
	mov	edx, DWORD PTR [eax]
	mov	ecx, DWORD PTR _theObject$[ebp]
	mov	eax, DWORD PTR [edx+108]
	call	eax
$LN3@SleepObjec:

; 995  : }

	mov	esp, ebp
	pop	ebp
	ret	4
?SleepObject@SimulationDriver@@QAEXPAVSimBaseClass@@@Z ENDP ; SimulationDriver::SleepObject
_TEXT	ENDS
; Function compile flags: /Odtp
; File c:\users\zhitao li\documents\visual studio 2012\projects\freefalcon\sim\simdrive\simdrive.cpp
_TEXT	SEGMENT
_flit$ = -32						; size = 12
_this$ = -20						; size = 4
_theObject$ = -16					; size = 4
__$EHRec$ = -12						; size = 12
_flightList$ = 8					; size = 4
?SleepCampaignFlight@SimulationDriver@@QAEXPAVTailInsertList@@@Z PROC ; SimulationDriver::SleepCampaignFlight
; _this$ = ecx

; 950  : {

	push	ebp
	mov	ebp, esp
	push	-1
	push	__ehhandler$?SleepCampaignFlight@SimulationDriver@@QAEXPAVTailInsertList@@@Z
	mov	eax, DWORD PTR fs:0
	push	eax
	sub	esp, 20					; 00000014H
	mov	eax, DWORD PTR ___security_cookie
	xor	eax, ebp
	push	eax
	lea	eax, DWORD PTR __$EHRec$[ebp]
	mov	DWORD PTR fs:0, eax
	mov	DWORD PTR _this$[ebp], ecx

; 951  : 	SimBaseClass*	theObject;
; 952  : 	VuListIterator	flit(flightList);

	mov	eax, DWORD PTR _flightList$[ebp]
	push	eax
	lea	ecx, DWORD PTR _flit$[ebp]
	call	??0VuListIterator@@QAE@PAVVuLinkedList@@@Z ; VuListIterator::VuListIterator
	mov	DWORD PTR __$EHRec$[ebp+8], 0

; 953  : 
; 954  : 	// Put all objects in this flight to sleep
; 955  : 	theObject = (SimBaseClass*)flit.GetFirst();

	lea	ecx, DWORD PTR _flit$[ebp]
	call	?GetFirst@VuListIterator@@QAEPAVVuEntity@@XZ ; VuListIterator::GetFirst
	mov	DWORD PTR _theObject$[ebp], eax
$LN2@SleepCampa:

; 956  : 	ShiAssert(theObject == NULL || FALSE == F4IsBadReadPtr(theObject, sizeof *theObject));
; 957  : 	//while (theObject) // JB 010306 CTD
; 958  : 	while (theObject && !F4IsBadReadPtr(theObject, sizeof(SimBaseClass))) // JB 010306 CTD

	cmp	DWORD PTR _theObject$[ebp], 0
	je	SHORT $LN1@SleepCampa
	push	592					; 00000250H
	mov	ecx, DWORD PTR _theObject$[ebp]
	push	ecx
	call	?F4IsBadReadPtr@@YA_NPBXI@Z		; F4IsBadReadPtr
	add	esp, 8
	movzx	edx, al
	test	edx, edx
	jne	SHORT $LN1@SleepCampa

; 959  : 	{
; 960  : 		theObject->Sleep();

	mov	eax, DWORD PTR _theObject$[ebp]
	mov	edx, DWORD PTR [eax]
	mov	ecx, DWORD PTR _theObject$[ebp]
	mov	eax, DWORD PTR [edx+108]
	call	eax

; 961  : 		theObject = (SimBaseClass*)flit.GetNext();

	lea	ecx, DWORD PTR _flit$[ebp]
	call	?GetNext@VuListIterator@@QAEPAVVuEntity@@XZ ; VuListIterator::GetNext
	mov	DWORD PTR _theObject$[ebp], eax

; 962  : 	}

	jmp	SHORT $LN2@SleepCampa
$LN1@SleepCampa:

; 963  : }

	mov	DWORD PTR __$EHRec$[ebp+8], -1
	lea	ecx, DWORD PTR _flit$[ebp]
	call	??1VuListIterator@@UAE@XZ		; VuListIterator::~VuListIterator
	mov	ecx, DWORD PTR __$EHRec$[ebp]
	mov	DWORD PTR fs:0, ecx
	pop	ecx
	mov	esp, ebp
	pop	ebp
	ret	4
_TEXT	ENDS
text$x	SEGMENT
__unwindfunclet$?SleepCampaignFlight@SimulationDriver@@QAEXPAVTailInsertList@@@Z$0:
	lea	ecx, DWORD PTR _flit$[ebp]
	jmp	??1VuListIterator@@UAE@XZ		; VuListIterator::~VuListIterator
__ehhandler$?SleepCampaignFlight@SimulationDriver@@QAEXPAVTailInsertList@@@Z:
	mov	edx, DWORD PTR [esp+8]
	lea	eax, DWORD PTR [edx+12]
	mov	ecx, DWORD PTR [edx-24]
	xor	ecx, eax
	call	@__security_check_cookie@4
	mov	eax, OFFSET __ehfuncinfo$?SleepCampaignFlight@SimulationDriver@@QAEXPAVTailInsertList@@@Z
	jmp	___CxxFrameHandler3
text$x	ENDS
?SleepCampaignFlight@SimulationDriver@@QAEXPAVTailInsertList@@@Z ENDP ; SimulationDriver::SleepCampaignFlight
; Function compile flags: /Odtp
; File c:\users\zhitao li\documents\visual studio 2012\projects\freefalcon\sim\simdrive\simdrive.cpp
_TEXT	SEGMENT
_this$ = -4						; size = 4
_theObject$ = 8						; size = 4
?WakeObject@SimulationDriver@@QAEXPAVSimBaseClass@@@Z PROC ; SimulationDriver::WakeObject
; _this$ = ecx

; 972  : {

	push	ebp
	mov	ebp, esp
	push	ecx
	mov	DWORD PTR _this$[ebp], ecx

; 973  : 	if (!theObject || theObject->IsAwake()){

	cmp	DWORD PTR _theObject$[ebp], 0
	je	SHORT $LN3@WakeObject
	mov	ecx, DWORD PTR _theObject$[ebp]
	call	?IsAwake@SimBaseClass@@QBEHXZ		; SimBaseClass::IsAwake
	test	eax, eax
	je	SHORT $LN4@WakeObject
$LN3@WakeObject:

; 974  : 		return;

	jmp	SHORT $LN5@WakeObject
$LN4@WakeObject:

; 975  : 	}
; 976  : 
; 977  : 	// If it's a player only object, wait until a player actually attaches before allowing the wake.
; 978  : 	if (theObject->IsSetFalcFlag(FEC_PLAYERONLY)){

	push	2
	mov	ecx, DWORD PTR _theObject$[ebp]
	call	?IsSetFalcFlag@FalconEntity@@QAEHH@Z	; FalconEntity::IsSetFalcFlag
	test	eax, eax
	je	SHORT $LN2@WakeObject

; 979  : 		GameManager.CheckPlayerStatus(theObject);

	mov	eax, DWORD PTR _theObject$[ebp]
	push	eax
	mov	ecx, OFFSET ?GameManager@@3VGameManagerClass@@A ; GameManager
	call	?CheckPlayerStatus@GameManagerClass@@QAEHPAVFalconEntity@@@Z ; GameManagerClass::CheckPlayerStatus

; 980  : 		if (!theObject->IsSetFalcFlag(FEC_HASPLAYERS)){

	push	4
	mov	ecx, DWORD PTR _theObject$[ebp]
	call	?IsSetFalcFlag@FalconEntity@@QAEHH@Z	; FalconEntity::IsSetFalcFlag
	test	eax, eax
	jne	SHORT $LN2@WakeObject

; 981  : 			return;

	jmp	SHORT $LN5@WakeObject
$LN2@WakeObject:

; 982  : 		}
; 983  : 	}
; 984  : 
; 985  : 	theObject->Wake();

	mov	ecx, DWORD PTR _theObject$[ebp]
	mov	edx, DWORD PTR [ecx]
	mov	ecx, DWORD PTR _theObject$[ebp]
	mov	eax, DWORD PTR [edx+104]
	call	eax
$LN5@WakeObject:

; 986  : }

	mov	esp, ebp
	pop	ebp
	ret	4
?WakeObject@SimulationDriver@@QAEXPAVSimBaseClass@@@Z ENDP ; SimulationDriver::WakeObject
_TEXT	ENDS
; Function compile flags: /Odtp
; File c:\users\zhitao li\documents\visual studio 2012\projects\freefalcon\sim\simdrive\simdrive.cpp
_TEXT	SEGMENT
_cit$ = -48						; size = 12
_this$ = -36						; size = 4
_last_to_add$ = -32					; size = 4
_vehicles$ = -28					; size = 4
_num$2 = -24						; size = 4
_woken$ = -20						; size = 4
_theObject$ = -16					; size = 4
__$EHRec$ = -12						; size = 12
_isUnit$ = 8						; size = 4
_baseEntity$ = 12					; size = 4
_comps$ = 16						; size = 4
?WakeCampaignBase@SimulationDriver@@QAEXHPAVCampBaseClass@@PAVTailInsertList@@@Z PROC ; SimulationDriver::WakeCampaignBase
; _this$ = ecx

; 885  : {

	push	ebp
	mov	ebp, esp
	push	-1
	push	__ehhandler$?WakeCampaignBase@SimulationDriver@@QAEXHPAVCampBaseClass@@PAVTailInsertList@@@Z
	mov	eax, DWORD PTR fs:0
	push	eax
	sub	esp, 36					; 00000024H
	push	esi
	mov	eax, DWORD PTR ___security_cookie
	xor	eax, ebp
	push	eax
	lea	eax, DWORD PTR __$EHRec$[ebp]
	mov	DWORD PTR fs:0, eax
	mov	DWORD PTR _this$[ebp], ecx

; 886  : 	//// pm
; 887  : 	//#ifdef _DEBUG
; 888  : 	//	int flightList =0;
; 889  : 	//#endif
; 890  : 	SimBaseClass* theObject = NULL;

	mov	DWORD PTR _theObject$[ebp], 0

; 891  : 	int	vehicles=0,last_to_add=0,woken=0;

	mov	DWORD PTR _vehicles$[ebp], 0
	mov	DWORD PTR _last_to_add$[ebp], 0
	mov	DWORD PTR _woken$[ebp], 0

; 892  : 
; 893  : 
; 894  : 	//ShiAssert ( flightList );
; 895  : 	ShiAssert ( baseEntity );
; 896  : 
; 897  : 	if (isUnit){

	cmp	DWORD PTR _isUnit$[ebp], 0
	je	SHORT $LN11@WakeCampai

; 898  : 		vehicles = ((Unit)baseEntity)->GetTotalVehicles();

	mov	ecx, DWORD PTR _baseEntity$[ebp]
	call	?GetTotalVehicles@UnitClass@@QAEHXZ	; UnitClass::GetTotalVehicles
	mov	DWORD PTR _vehicles$[ebp], eax

; 899  : 		if (vehicles > 4){

	cmp	DWORD PTR _vehicles$[ebp], 4
	jle	SHORT $LN10@WakeCampai

; 900  : 			// edg: a better detail setting algorithm.  Minimum vehicles is 3.
; 901  : 			// use a quadratic function on slider percentage.
; 902  : 			// so, if the battalion is 48 units the slider settings will give:
; 903  : 			//	0 = 3
; 904  : 			//	1 = 4
; 905  : 			//	2 = 10
; 906  : 			//  3 = 20
; 907  : 			//  4 = 33
; 908  : 			//  5 = 48
; 909  : 			int num = PlayerOptions.ObjectDeaggLevel();

	mov	ecx, OFFSET ?PlayerOptions@@3VPlayerOptionsClass@@A ; PlayerOptions
	call	?ObjectDeaggLevel@PlayerOptionsClass@@QAEHXZ ; PlayerOptionsClass::ObjectDeaggLevel
	mov	DWORD PTR _num$2[ebp], eax

; 910  : 			num *= num;

	mov	eax, DWORD PTR _num$2[ebp]
	imul	eax, DWORD PTR _num$2[ebp]
	mov	DWORD PTR _num$2[ebp], eax

; 911  : 			last_to_add = 2 + vehicles * num / 10000;

	mov	eax, DWORD PTR _vehicles$[ebp]
	imul	eax, DWORD PTR _num$2[ebp]
	cdq
	mov	ecx, 10000				; 00002710H
	idiv	ecx
	add	eax, 2
	mov	DWORD PTR _last_to_add$[ebp], eax

; 912  : 		}
; 913  : 		else {

	jmp	SHORT $LN11@WakeCampai
$LN10@WakeCampai:

; 914  : 			last_to_add = vehicles;

	mov	edx, DWORD PTR _vehicles$[ebp]
	mov	DWORD PTR _last_to_add$[ebp], edx
$LN11@WakeCampai:

; 915  : 		}
; 916  : 	}
; 917  : 
; 918  : 	// Add our list of objects.
; 919  : 	VuListIterator cit(comps);

	mov	eax, DWORD PTR _comps$[ebp]
	push	eax
	lea	ecx, DWORD PTR _cit$[ebp]
	call	??0VuListIterator@@QAE@PAVVuLinkedList@@@Z ; VuListIterator::VuListIterator
	mov	DWORD PTR __$EHRec$[ebp+8], 0

; 920  : 	for (

	lea	ecx, DWORD PTR _cit$[ebp]
	call	?GetFirst@VuListIterator@@QAEPAVVuEntity@@XZ ; VuListIterator::GetFirst
	mov	DWORD PTR _theObject$[ebp], eax

; 921  : 		theObject = static_cast<SimBaseClass*>(cit.GetFirst());
; 922  : 		theObject != NULL;

	jmp	SHORT $LN8@WakeCampai
$LN7@WakeCampai:

; 923  : 		theObject = static_cast<SimBaseClass*>(cit.GetNext())
; 924  : 	){

	lea	ecx, DWORD PTR _cit$[ebp]
	call	?GetNext@VuListIterator@@QAEPAVVuEntity@@XZ ; VuListIterator::GetNext
	mov	DWORD PTR _theObject$[ebp], eax
$LN8@WakeCampai:
	cmp	DWORD PTR _theObject$[ebp], 0
	je	SHORT $LN6@WakeCampai

; 925  : 		// KCK: Decide not to wake some ground vehicles/features -
; 926  : 		if (isUnit){

	cmp	DWORD PTR _isUnit$[ebp], 0
	je	SHORT $LN5@WakeCampai

; 927  : 			// Wake vehicles by percentage
; 928  : 			if (
; 929  : 				(woken <= last_to_add) || 
; 930  : 				(theObject->GetSlot() == ((Unit)baseEntity)->class_data->RadarVehicle)
; 931  : 			){

	mov	ecx, DWORD PTR _woken$[ebp]
	cmp	ecx, DWORD PTR _last_to_add$[ebp]
	jle	SHORT $LN3@WakeCampai
	mov	ecx, DWORD PTR _theObject$[ebp]
	call	?GetSlot@SimBaseClass@@QAEHXZ		; SimBaseClass::GetSlot
	mov	edx, DWORD PTR _baseEntity$[ebp]
	mov	ecx, DWORD PTR [edx+236]
	movzx	edx, BYTE PTR [ecx+328]
	cmp	eax, edx
	jne	SHORT $LN4@WakeCampai
$LN3@WakeCampai:

; 932  : 				WakeObject(theObject);

	mov	eax, DWORD PTR _theObject$[ebp]
	push	eax
	mov	ecx, DWORD PTR _this$[ebp]
	call	?WakeObject@SimulationDriver@@QAEXPAVSimBaseClass@@@Z ; SimulationDriver::WakeObject

; 933  : 				woken++;

	mov	ecx, DWORD PTR _woken$[ebp]
	add	ecx, 1
	mov	DWORD PTR _woken$[ebp], ecx
$LN4@WakeCampai:

; 934  : 			}
; 935  : 		}
; 936  : 		else {

	jmp	SHORT $LN2@WakeCampai
$LN5@WakeCampai:

; 937  : 			// Wake features by detail level
; 938  : 			if (theObject->displayPriority <= PlayerOptions.BuildingDeaggLevel()){

	mov	edx, DWORD PTR _theObject$[ebp]
	movsx	esi, BYTE PTR [edx+336]
	mov	ecx, OFFSET ?PlayerOptions@@3VPlayerOptionsClass@@A ; PlayerOptions
	call	?BuildingDeaggLevel@PlayerOptionsClass@@QAEHXZ ; PlayerOptionsClass::BuildingDeaggLevel
	cmp	esi, eax
	jg	SHORT $LN2@WakeCampai

; 939  : 				WakeObject(theObject);

	mov	eax, DWORD PTR _theObject$[ebp]
	push	eax
	mov	ecx, DWORD PTR _this$[ebp]
	call	?WakeObject@SimulationDriver@@QAEXPAVSimBaseClass@@@Z ; SimulationDriver::WakeObject

; 940  : 				woken++;

	mov	ecx, DWORD PTR _woken$[ebp]
	add	ecx, 1
	mov	DWORD PTR _woken$[ebp], ecx
$LN2@WakeCampai:

; 941  : 			}
; 942  : 		}
; 943  : 		theObject->SetCampaignObject(baseEntity);

	mov	edx, DWORD PTR _baseEntity$[ebp]
	push	edx
	mov	ecx, DWORD PTR _theObject$[ebp]
	call	?SetCampaignObject@SimBaseClass@@QAEXPAVCampBaseClass@@@Z ; SimBaseClass::SetCampaignObject

; 944  : 	}

	jmp	$LN7@WakeCampai
$LN6@WakeCampai:

; 945  : }

	mov	DWORD PTR __$EHRec$[ebp+8], -1
	lea	ecx, DWORD PTR _cit$[ebp]
	call	??1VuListIterator@@UAE@XZ		; VuListIterator::~VuListIterator
	mov	ecx, DWORD PTR __$EHRec$[ebp]
	mov	DWORD PTR fs:0, ecx
	pop	ecx
	pop	esi
	mov	esp, ebp
	pop	ebp
	ret	12					; 0000000cH
_TEXT	ENDS
text$x	SEGMENT
__unwindfunclet$?WakeCampaignBase@SimulationDriver@@QAEXHPAVCampBaseClass@@PAVTailInsertList@@@Z$0:
	lea	ecx, DWORD PTR _cit$[ebp]
	jmp	??1VuListIterator@@UAE@XZ		; VuListIterator::~VuListIterator
__ehhandler$?WakeCampaignBase@SimulationDriver@@QAEXHPAVCampBaseClass@@PAVTailInsertList@@@Z:
	mov	edx, DWORD PTR [esp+8]
	lea	eax, DWORD PTR [edx+12]
	mov	ecx, DWORD PTR [edx-44]
	xor	ecx, eax
	call	@__security_check_cookie@4
	mov	eax, OFFSET __ehfuncinfo$?WakeCampaignBase@SimulationDriver@@QAEXHPAVCampBaseClass@@PAVTailInsertList@@@Z
	jmp	___CxxFrameHandler3
text$x	ENDS
?WakeCampaignBase@SimulationDriver@@QAEXHPAVCampBaseClass@@PAVTailInsertList@@@Z ENDP ; SimulationDriver::WakeCampaignBase
; Function compile flags: /Odtp
; File c:\users\zhitao li\documents\visual studio 2012\projects\freefalcon\sim\simdrive\simdrive.cpp
_TEXT	SEGMENT
_this$ = -4						; size = 4
?ShrinkSimMemoryPools@SimulationDriver@@QAEXXZ PROC	; SimulationDriver::ShrinkSimMemoryPools
; _this$ = ecx

; 2423 : {

	push	ebp
	mov	ebp, esp
	push	ecx
	mov	DWORD PTR _this$[ebp], ecx

; 2424 : #if 0
; 2425 : 	// Free Memory Pools
; 2426 : #ifdef USE_SH_POOLS
; 2427 : 	i += MemPoolShrink( MemDefaultPool );
; 2428 : 	// i += MemPoolShrink( glMemPool );
; 2429 : 	i += MemPoolShrink( AirframeClass::pool );
; 2430 : 	i += MemPoolShrink( AircraftClass::pool );
; 2431 : 	i += MemPoolShrink( MissileClass::pool );
; 2432 : 	i += MemPoolShrink( BombClass::pool );
; 2433 : 	i += MemPoolShrink( SimObjectType::pool );
; 2434 : 	i += MemPoolShrink( SimObjectLocalData::pool );
; 2435 : 	i += MemPoolShrink( SfxClass::pool );
; 2436 : 	i += MemPoolShrink( GunClass::pool );
; 2437 : 	i += MemPoolShrink( GroundClass::pool );
; 2438 : 	i += MemPoolShrink( GNDAIClass::pool );
; 2439 : 	i += MemPoolShrink( SimFeatureClass::pool );
; 2440 : 
; 2441 : 	i += MemPoolShrink( Drawable2D::pool );
; 2442 : 	i += MemPoolShrink( DrawableTracer::pool );
; 2443 : 	i += MemPoolShrink( DrawableGroundVehicle::pool );
; 2444 : 	i += MemPoolShrink( DrawableBuilding::pool );
; 2445 : 	i += MemPoolShrink( DrawableBSP::pool );
; 2446 : 	i += MemPoolShrink( DrawableShadowed::pool );
; 2447 : 	i += MemPoolShrink( DrawableBridge::pool );
; 2448 : 	i += MemPoolShrink( DrawableOvercast::pool );
; 2449 : 
; 2450 : 	i += MemPoolShrink( DrawablePlatform::pool );
; 2451 : 	i += MemPoolShrink( DrawableRoadbed::pool );
; 2452 : 	i += MemPoolShrink( DrawableTrail::pool );
; 2453 : 	i += MemPoolShrink( TrailElement::pool );
; 2454 : 	i += MemPoolShrink( DrawablePuff::pool );
; 2455 : 	i += MemPoolShrink( DrawablePoint::pool );
; 2456 : 	i += MemPoolShrink( DrawableGuys::pool );
; 2457 : 
; 2458 : 	i += MemPoolShrink( displayList::pool );
; 2459 : 	i += MemPoolShrink( drawPtrList::pool );
; 2460 : 	i += MemPoolShrink( sfxRequest::pool );
; 2461 : 
; 2462 : 	i += MemPoolShrink( WayPointClass::pool );
; 2463 : 	i += MemPoolShrink( SMSBaseClass::pool );
; 2464 : 	i += MemPoolShrink( SMSClass::pool );
; 2465 : 	i += MemPoolShrink( BasicWeaponStation::pool );
; 2466 : 	i += MemPoolShrink( AdvancedWeaponStation::pool );
; 2467 : 
; 2468 : 	MonoPrint( "Sim Memory Pools shrunk by %d bytes\n", i );
; 2469 : #endif
; 2470 : #endif
; 2471 : }

	mov	esp, ebp
	pop	ebp
	ret	0
?ShrinkSimMemoryPools@SimulationDriver@@QAEXXZ ENDP	; SimulationDriver::ShrinkSimMemoryPools
_TEXT	ENDS
; Function compile flags: /Odtp
; File c:\users\zhitao li\documents\visual studio 2012\projects\freefalcon\sim\simdrive\simdrive.cpp
_TEXT	SEGMENT
_this$ = -4						; size = 4
?ReleaseSimMemoryPools@SimulationDriver@@QAEXXZ PROC	; SimulationDriver::ReleaseSimMemoryPools
; _this$ = ecx

; 2319 : {

	push	ebp
	mov	ebp, esp
	push	ecx
	mov	DWORD PTR _this$[ebp], ecx

; 2320 : 	MonoPrint( "Releasing Sim Memory Pools....\n" );

	push	OFFSET ??_C@_0CA@GIKOJPJG@Releasing?5Sim?5Memory?5Pools?4?4?4?4?6?$AA@
	call	_MonoPrint
	add	esp, 4

; 2321 : 
; 2322 : #ifdef CHECK_LEAKAGE
; 2323 : 	dbgMemSetCheckpoint( 4 );
; 2324 : 	if ( lastErrorFn )
; 2325 : 	{
; 2326 : 		dbgMemReportLeakage( MemDefaultPool, 3, 4  );
; 2327 : 		MemSetErrorHandler(lastErrorFn);
; 2328 : 		dbgMemSetDefaultErrorOutput( DBGMEM_OUTPUT_FILE, "simleak.txt" );
; 2329 : 		dbgMemReportLeakage( MemDefaultPool, 3, 4  );
; 2330 : 		MemSetErrorHandler(errPrint);
; 2331 : 	}
; 2332 : 	else
; 2333 : 	{
; 2334 : 		dbgMemSetDefaultErrorOutput( DBGMEM_OUTPUT_FILE, "simleak.txt" );
; 2335 : 		dbgMemReportLeakage( MemDefaultPool, 3, 4  );
; 2336 : 	}
; 2337 : #endif
; 2338 : 
; 2339 : 	// Free Memory Pools
; 2340 : #ifdef USE_SH_POOLS
; 2341 : 	AirframeClass::ReleaseStorage();
; 2342 : 	AircraftClass::ReleaseStorage();
; 2343 : 	DigitalBrain::ReleaseStorage();
; 2344 : 	MissileClass::ReleaseStorage();
; 2345 : 	MissileInFlightData::ReleaseStorage();
; 2346 : 	BombClass::ReleaseStorage();
; 2347 : 	ChaffClass::ReleaseStorage();
; 2348 : 	FlareClass::ReleaseStorage();
; 2349 : 	DebrisClass::ReleaseStorage();
; 2350 : 	SimObjectType::ReleaseStorage();
; 2351 : 	SimObjectLocalData::ReleaseStorage();
; 2352 : 	SfxClass::ReleaseStorage();
; 2353 : 	GunClass::ReleaseStorage();
; 2354 : 	GroundClass::ReleaseStorage();
; 2355 : 	GNDAIClass::ReleaseStorage();
; 2356 : 	SimFeatureClass::ReleaseStorage();
; 2357 : 
; 2358 : 	Drawable2D::ReleaseStorage();
; 2359 : 	DrawableTracer::ReleaseStorage();
; 2360 : 	DrawableGroundVehicle::ReleaseStorage();
; 2361 : 	DrawableBuilding::ReleaseStorage();
; 2362 : 	DrawableBSP::ReleaseStorage();
; 2363 : 	DrawableShadowed::ReleaseStorage();
; 2364 : 	DrawableBridge::ReleaseStorage();
; 2365 : 	DrawableOvercast::ReleaseStorage();
; 2366 : 
; 2367 : 	// Don't need this: Scott has done some evil #define overloading DrawableOvercast
; 2368 : 	//DrawableOvercast2::ReleaseStorage();
; 2369 : 
; 2370 : 	DrawablePlatform::ReleaseStorage();
; 2371 : 	DrawableRoadbed::ReleaseStorage();
; 2372 : 	DrawableTrail::ReleaseStorage();
; 2373 : 	TrailElement::ReleaseStorage();
; 2374 : 	DrawablePuff::ReleaseStorage();
; 2375 : 	DrawablePoint::ReleaseStorage();
; 2376 : 	DrawableGuys::ReleaseStorage();
; 2377 : 
; 2378 : 	displayList::ReleaseStorage();
; 2379 : 	drawPtrList::ReleaseStorage();
; 2380 : 	sfxRequest::ReleaseStorage();
; 2381 : 
; 2382 : 	WayPointClass::ReleaseStorage();
; 2383 : 	SMSBaseClass::ReleaseStorage();
; 2384 : 	SMSClass::ReleaseStorage();
; 2385 : 	BasicWeaponStation::ReleaseStorage();
; 2386 : 	AdvancedWeaponStation::ReleaseStorage();
; 2387 : 
; 2388 : 	HelicopterClass::ReleaseStorage();
; 2389 : 	HeliBrain::ReleaseStorage();
; 2390 : 
; 2391 : 	SimVuDriver::ReleaseStorage();
; 2392 : 	SimVuSlave::ReleaseStorage();
; 2393 : 
; 2394 : 	ObjectGeometry::ReleaseStorage();
; 2395 : 
; 2396 : 	ListElementClass::ReleaseStorage();
; 2397 : 	ListClass::ReleaseStorage();
; 2398 : 
; 2399 : 	UnitDeaggregationData::ReleaseStorage();
; 2400 : 	MissionRequestClass::ReleaseStorage();
; 2401 : 	DivisionClass::ReleaseStorage();
; 2402 : 
; 2403 : 	EventElement::ReleaseStorage();
; 2404 : 	ATCBrain::ReleaseStorage();
; 2405 : 
; 2406 : 	MemPoolFree( gFaultMemPool );
; 2407 : 	MemPoolFree( gTextMemPool );
; 2408 : 	MemPoolFree( gObjMemPool );
; 2409 : 	MemPoolFree( gReadInMemPool );
; 2410 : 	MemPoolFree( gCockMemPool );
; 2411 : 	MemPoolFree( gTacanMemPool );
; 2412 : #endif
; 2413 : 
; 2414 : 	// OW
; 2415 : 	GraphicsDataPoolReleaseStorage();

	call	?GraphicsDataPoolReleaseStorage@@YAXXZ	; GraphicsDataPoolReleaseStorage

; 2416 : }

	mov	esp, ebp
	pop	ebp
	ret	0
?ReleaseSimMemoryPools@SimulationDriver@@QAEXXZ ENDP	; SimulationDriver::ReleaseSimMemoryPools
_TEXT	ENDS
; Function compile flags: /Odtp
; File c:\users\zhitao li\documents\visual studio 2012\projects\freefalcon\sim\simdrive\simdrive.cpp
_TEXT	SEGMENT
_this$ = -4						; size = 4
?InitializeSimMemoryPools@SimulationDriver@@QAEXXZ PROC	; SimulationDriver::InitializeSimMemoryPools
; _this$ = ecx

; 2234 : {

	push	ebp
	mov	ebp, esp
	push	ecx
	mov	DWORD PTR _this$[ebp], ecx

; 2235 : 	MonoPrint( "Initializing Sim Memory Pools....\n" );

	push	OFFSET ??_C@_0CD@CFEJHFML@Initializing?5Sim?5Memory?5Pools?4?4?4@
	call	_MonoPrint
	add	esp, 4

; 2236 : 
; 2237 : #ifdef CHECK_LEAKAGE
; 2238 : 	dbgMemSetCheckpoint( 3 );
; 2239 : 	// dbgMemSetSafetyLevel( MEM_SAFETY_DEBUG );
; 2240 : #endif
; 2241 : 
; 2242 : 	// Allocate Memory Pools
; 2243 : #ifdef USE_SH_POOLS
; 2244 : 	AirframeClass::InitializeStorage();
; 2245 : 	AircraftClass::InitializeStorage();
; 2246 : 	MissileClass::InitializeStorage();
; 2247 : 	MissileInFlightData::InitializeStorage();
; 2248 : 	BombClass::InitializeStorage();
; 2249 : 	ChaffClass::InitializeStorage();
; 2250 : 	FlareClass::InitializeStorage();
; 2251 : 	DebrisClass::InitializeStorage();
; 2252 : 	SimObjectType::InitializeStorage();
; 2253 : 	SimObjectLocalData::InitializeStorage();
; 2254 : 	SfxClass::InitializeStorage();
; 2255 : 	GunClass::InitializeStorage();
; 2256 : 	GroundClass::InitializeStorage();
; 2257 : 	GNDAIClass::InitializeStorage();
; 2258 : 	SimFeatureClass::InitializeStorage();
; 2259 : 
; 2260 : 	Drawable2D::InitializeStorage();
; 2261 : 	DrawableTracer::InitializeStorage();
; 2262 : 	DrawableGroundVehicle::InitializeStorage();
; 2263 : 	DrawableBuilding::InitializeStorage();
; 2264 : 	DrawableBSP::InitializeStorage();
; 2265 : 	DrawableShadowed::InitializeStorage();
; 2266 : 	DrawableBridge::InitializeStorage();
; 2267 : 	DrawableOvercast::InitializeStorage();
; 2268 : 
; 2269 : 	// Don't need this: Scott has done some evil #define overloading DrawableOvercast
; 2270 : 	//DrawableOvercast2::InitializeStorage();
; 2271 : 
; 2272 : 	DrawablePlatform::InitializeStorage();
; 2273 : 	DrawableRoadbed::InitializeStorage();
; 2274 : 	DrawableTrail::InitializeStorage();
; 2275 : 	TrailElement::InitializeStorage();
; 2276 : 	DrawablePuff::InitializeStorage();
; 2277 : 	DrawablePoint::InitializeStorage();
; 2278 : 	DrawableGuys::InitializeStorage();
; 2279 : 
; 2280 : 	displayList::InitializeStorage();
; 2281 : 	drawPtrList::InitializeStorage();
; 2282 : 	sfxRequest::InitializeStorage();
; 2283 : 
; 2284 : 	WayPointClass::InitializeStorage();
; 2285 : 	SMSBaseClass::InitializeStorage();
; 2286 : 	SMSClass::InitializeStorage();
; 2287 : 	BasicWeaponStation::InitializeStorage();
; 2288 : 	AdvancedWeaponStation::InitializeStorage();
; 2289 : 	DigitalBrain::InitializeStorage();
; 2290 : 	HelicopterClass::InitializeStorage();
; 2291 : 	HeliBrain::InitializeStorage();
; 2292 : 	SimVuDriver::InitializeStorage();
; 2293 : 	SimVuSlave::InitializeStorage();
; 2294 : 
; 2295 : 	ObjectGeometry::InitializeStorage();
; 2296 : 
; 2297 : 	ListElementClass::InitializeStorage();
; 2298 : 	ListClass::InitializeStorage();
; 2299 : 
; 2300 : 	UnitDeaggregationData::InitializeStorage();
; 2301 : 	MissionRequestClass::InitializeStorage();
; 2302 : 	DivisionClass::InitializeStorage();
; 2303 : 	EventElement::InitializeStorage();
; 2304 : 	ATCBrain::InitializeStorage();
; 2305 : 
; 2306 : 	gFaultMemPool = MemPoolInit( 0 );
; 2307 : 	gTextMemPool = MemPoolInit( 0 );
; 2308 : 	gObjMemPool = MemPoolInit( 0 );
; 2309 : 	gReadInMemPool = MemPoolInit( 0 );
; 2310 : 	gCockMemPool = MemPoolInit( 0 );
; 2311 : 	gTacanMemPool = MemPoolInit( 0 );
; 2312 : #endif
; 2313 : 
; 2314 : 	// OW
; 2315 : 	GraphicsDataPoolInitializeStorage();

	call	?GraphicsDataPoolInitializeStorage@@YAXXZ ; GraphicsDataPoolInitializeStorage

; 2316 : }

	mov	esp, ebp
	pop	ebp
	ret	0
?InitializeSimMemoryPools@SimulationDriver@@QAEXXZ ENDP	; SimulationDriver::InitializeSimMemoryPools
_TEXT	ENDS
; Function compile flags: /Odtp
; File c:\users\zhitao li\documents\visual studio 2012\projects\freefalcon\sim\simdrive\simdrive.cpp
_TEXT	SEGMENT
_this$ = -4						; size = 4
_povHatAngle$ = 8					; size = 4
?POVKludgeFunction@SimulationDriver@@QAEXK@Z PROC	; SimulationDriver::POVKludgeFunction
; _this$ = ecx

; 2036 : void SimulationDriver::POVKludgeFunction(DWORD povHatAngle) { // VWF POV Kludge 11/24/97, Yeah its a mess, remove after demo

	push	ebp
	mov	ebp, esp
	push	ecx
	mov	DWORD PTR _this$[ebp], ecx

; 2037 : 
; 2038 : 	//static DWORD previousAngle = -1;
; 2039 : 
; 2040 : 	//if((povHatAngle == -1 && previousAngle != -1) ||
; 2041 : 	//	(povHatAngle != -1 && previousAngle == -1)) {
; 2042 : 
; 2043 : 	if(	OTWDriver.GetOTWDisplayMode() == OTWDriverClass::Mode3DCockpit	 || 
; 2044 : 			OTWDriver.GetOTWDisplayMode() == OTWDriverClass::ModePadlockF3	 || // 2002-02-17 MODIFIED BY S.G. Needed now for the 'break lock by POV' to work
; 2045 : 			OTWDriver.GetOTWDisplayMode() == OTWDriverClass::ModePadlockEFOV || // 2002-02-17 MODIFIED BY S.G. Needed now for the 'break lock by POV' to work
; 2046 : 			OTWDriver.GetOTWDisplayMode() == OTWDriverClass::ModeOrbit		 ||
; 2047 : 			OTWDriver.GetOTWDisplayMode() == OTWDriverClass::ModeChase		 ||
; 2048 : 			OTWDriver.GetOTWDisplayMode() == OTWDriverClass::ModeSatellite) {

	mov	ecx, OFFSET ?OTWDriver@@3VOTWDriverClass@@A ; OTWDriver
	call	?GetOTWDisplayMode@OTWDriverClass@@QAE?AW4OTWDisplayMode@1@XZ ; OTWDriverClass::GetOTWDisplayMode
	cmp	eax, 3
	je	SHORT $LN39@POVKludgeF
	mov	ecx, OFFSET ?OTWDriver@@3VOTWDriverClass@@A ; OTWDriver
	call	?GetOTWDisplayMode@OTWDriverClass@@QAE?AW4OTWDisplayMode@1@XZ ; OTWDriverClass::GetOTWDisplayMode
	cmp	eax, 4
	je	SHORT $LN39@POVKludgeF
	mov	ecx, OFFSET ?OTWDriver@@3VOTWDriverClass@@A ; OTWDriver
	call	?GetOTWDisplayMode@OTWDriverClass@@QAE?AW4OTWDisplayMode@1@XZ ; OTWDriverClass::GetOTWDisplayMode
	cmp	eax, 5
	je	SHORT $LN39@POVKludgeF
	mov	ecx, OFFSET ?OTWDriver@@3VOTWDriverClass@@A ; OTWDriver
	call	?GetOTWDisplayMode@OTWDriverClass@@QAE?AW4OTWDisplayMode@1@XZ ; OTWDriverClass::GetOTWDisplayMode
	cmp	eax, 6
	je	SHORT $LN39@POVKludgeF
	mov	ecx, OFFSET ?OTWDriver@@3VOTWDriverClass@@A ; OTWDriver
	call	?GetOTWDisplayMode@OTWDriverClass@@QAE?AW4OTWDisplayMode@1@XZ ; OTWDriverClass::GetOTWDisplayMode
	cmp	eax, 7
	je	SHORT $LN39@POVKludgeF
	mov	ecx, OFFSET ?OTWDriver@@3VOTWDriverClass@@A ; OTWDriver
	call	?GetOTWDisplayMode@OTWDriverClass@@QAE?AW4OTWDisplayMode@1@XZ ; OTWDriverClass::GetOTWDisplayMode
	cmp	eax, 14					; 0000000eH
	jne	$LN40@POVKludgeF
$LN39@POVKludgeF:

; 2049 : 		/*
; 2050 : 			 if(povHatAngle == -1) {
; 2051 : 			 OTWDriver.ViewTiltHold();
; 2052 : 			 OTWDriver.ViewSpinHold();
; 2053 : 			 }
; 2054 : 			 else if((povHatAngle > POV_NW && povHatAngle < 36000) || povHatAngle < POV_NE) {
; 2055 : 			 OTWViewUp(0, KEY_DOWN, NULL);
; 2056 : 			 }
; 2057 : 			 else if(povHatAngle > POV_NE && povHatAngle < POV_SE) {
; 2058 : 			 OTWViewRight(0, KEY_DOWN, NULL);
; 2059 : 			 }
; 2060 : 			 else if(povHatAngle > POV_SE && povHatAngle < POV_SW) {
; 2061 : 			 OTWViewDown(0, KEY_DOWN, NULL);
; 2062 : 			 }
; 2063 : 			 else if(povHatAngle > POV_SW && povHatAngle < POV_NW) {
; 2064 : 			 OTWViewLeft(0, KEY_DOWN, NULL);
; 2065 : 			 }*/
; 2066 : 
; 2067 : 		if(povHatAngle == -1) {

	cmp	DWORD PTR _povHatAngle$[ebp], -1
	jne	SHORT $LN38@POVKludgeF

; 2068 : 			OTWDriver.ViewTiltHold();

	mov	ecx, OFFSET ?OTWDriver@@3VOTWDriverClass@@A ; OTWDriver
	call	?ViewTiltHold@OTWDriverClass@@QAEXXZ	; OTWDriverClass::ViewTiltHold

; 2069 : 			OTWDriver.ViewSpinHold();

	mov	ecx, OFFSET ?OTWDriver@@3VOTWDriverClass@@A ; OTWDriver
	call	?ViewSpinHold@OTWDriverClass@@QAEXXZ	; OTWDriverClass::ViewSpinHold
	jmp	$LN37@POVKludgeF
$LN38@POVKludgeF:

; 2070 : 		}
; 2071 : 		else if(((povHatAngle >= (POV_NW + POV_HALF_RANGE)) && (povHatAngle < 36000)) || (povHatAngle < POV_N + POV_HALF_RANGE)) {

	cmp	DWORD PTR _povHatAngle$[ebp], 33750	; 000083d6H
	jb	SHORT $LN34@POVKludgeF
	cmp	DWORD PTR _povHatAngle$[ebp], 36000	; 00008ca0H
	jb	SHORT $LN35@POVKludgeF
$LN34@POVKludgeF:
	cmp	DWORD PTR _povHatAngle$[ebp], 2250	; 000008caH
	jae	SHORT $LN36@POVKludgeF
$LN35@POVKludgeF:

; 2072 : 			OTWViewUp(0, KEY_DOWN, NULL);

	push	0
	push	8
	push	0
	call	?OTWViewUp@@YAXKHPAX@Z			; OTWViewUp
	add	esp, 12					; 0000000cH
	jmp	$LN37@POVKludgeF
$LN36@POVKludgeF:

; 2073 : 		}
; 2074 : 		else if((povHatAngle >= (POV_NE - POV_HALF_RANGE)) && (povHatAngle < POV_NE + POV_HALF_RANGE)) {

	cmp	DWORD PTR _povHatAngle$[ebp], 2250	; 000008caH
	jb	SHORT $LN32@POVKludgeF
	cmp	DWORD PTR _povHatAngle$[ebp], 6750	; 00001a5eH
	jae	SHORT $LN32@POVKludgeF

; 2075 : 			OTWViewRight(0, KEY_DOWN, NULL);

	push	0
	push	8
	push	0
	call	?OTWViewRight@@YAXKHPAX@Z		; OTWViewRight
	add	esp, 12					; 0000000cH

; 2076 : 			OTWViewUp(0, KEY_DOWN, NULL);

	push	0
	push	8
	push	0
	call	?OTWViewUp@@YAXKHPAX@Z			; OTWViewUp
	add	esp, 12					; 0000000cH
	jmp	$LN37@POVKludgeF
$LN32@POVKludgeF:

; 2077 : 		}
; 2078 : 		else if((povHatAngle >= (POV_E - POV_HALF_RANGE)) && (povHatAngle < POV_E + POV_HALF_RANGE)) {

	cmp	DWORD PTR _povHatAngle$[ebp], 6750	; 00001a5eH
	jb	SHORT $LN30@POVKludgeF
	cmp	DWORD PTR _povHatAngle$[ebp], 11250	; 00002bf2H
	jae	SHORT $LN30@POVKludgeF

; 2079 : 			OTWViewRight(0, KEY_DOWN, NULL);

	push	0
	push	8
	push	0
	call	?OTWViewRight@@YAXKHPAX@Z		; OTWViewRight
	add	esp, 12					; 0000000cH
	jmp	$LN37@POVKludgeF
$LN30@POVKludgeF:

; 2080 : 		}
; 2081 : 		else if((povHatAngle >= (POV_SE - POV_HALF_RANGE)) && (povHatAngle < POV_SE + POV_HALF_RANGE)) {

	cmp	DWORD PTR _povHatAngle$[ebp], 11250	; 00002bf2H
	jb	SHORT $LN28@POVKludgeF
	cmp	DWORD PTR _povHatAngle$[ebp], 15750	; 00003d86H
	jae	SHORT $LN28@POVKludgeF

; 2082 : 			OTWViewRight(0, KEY_DOWN, NULL);

	push	0
	push	8
	push	0
	call	?OTWViewRight@@YAXKHPAX@Z		; OTWViewRight
	add	esp, 12					; 0000000cH

; 2083 : 			OTWViewDown(0, KEY_DOWN, NULL);

	push	0
	push	8
	push	0
	call	?OTWViewDown@@YAXKHPAX@Z		; OTWViewDown
	add	esp, 12					; 0000000cH
	jmp	$LN37@POVKludgeF
$LN28@POVKludgeF:

; 2084 : 		}
; 2085 : 		else if((povHatAngle >= (POV_S - POV_HALF_RANGE)) && (povHatAngle < POV_S + POV_HALF_RANGE)) {

	cmp	DWORD PTR _povHatAngle$[ebp], 15750	; 00003d86H
	jb	SHORT $LN26@POVKludgeF
	cmp	DWORD PTR _povHatAngle$[ebp], 20250	; 00004f1aH
	jae	SHORT $LN26@POVKludgeF

; 2086 : 			OTWViewDown(0, KEY_DOWN, NULL);

	push	0
	push	8
	push	0
	call	?OTWViewDown@@YAXKHPAX@Z		; OTWViewDown
	add	esp, 12					; 0000000cH
	jmp	$LN37@POVKludgeF
$LN26@POVKludgeF:

; 2087 : 		}
; 2088 : 		else if((povHatAngle >= (POV_SW - POV_HALF_RANGE)) && (povHatAngle < POV_SW + POV_HALF_RANGE)) {

	cmp	DWORD PTR _povHatAngle$[ebp], 20250	; 00004f1aH
	jb	SHORT $LN24@POVKludgeF
	cmp	DWORD PTR _povHatAngle$[ebp], 24750	; 000060aeH
	jae	SHORT $LN24@POVKludgeF

; 2089 : 			OTWViewDown(0, KEY_DOWN, NULL);

	push	0
	push	8
	push	0
	call	?OTWViewDown@@YAXKHPAX@Z		; OTWViewDown
	add	esp, 12					; 0000000cH

; 2090 : 			OTWViewLeft(0, KEY_DOWN, NULL);

	push	0
	push	8
	push	0
	call	?OTWViewLeft@@YAXKHPAX@Z		; OTWViewLeft
	add	esp, 12					; 0000000cH
	jmp	SHORT $LN37@POVKludgeF
$LN24@POVKludgeF:

; 2091 : 		}
; 2092 : 		else if((povHatAngle >= (POV_W - POV_HALF_RANGE)) && (povHatAngle < POV_W + POV_HALF_RANGE)) {

	cmp	DWORD PTR _povHatAngle$[ebp], 24750	; 000060aeH
	jb	SHORT $LN22@POVKludgeF
	cmp	DWORD PTR _povHatAngle$[ebp], 29250	; 00007242H
	jae	SHORT $LN22@POVKludgeF

; 2093 : 			OTWViewLeft(0, KEY_DOWN, NULL);

	push	0
	push	8
	push	0
	call	?OTWViewLeft@@YAXKHPAX@Z		; OTWViewLeft
	add	esp, 12					; 0000000cH
	jmp	SHORT $LN37@POVKludgeF
$LN22@POVKludgeF:

; 2094 : 		}
; 2095 : 		else if((povHatAngle >= (POV_NW - POV_HALF_RANGE)) && (povHatAngle < POV_NW + POV_HALF_RANGE)) {

	cmp	DWORD PTR _povHatAngle$[ebp], 29250	; 00007242H
	jb	SHORT $LN37@POVKludgeF
	cmp	DWORD PTR _povHatAngle$[ebp], 33750	; 000083d6H
	jae	SHORT $LN37@POVKludgeF

; 2096 : 			OTWViewLeft(0, KEY_DOWN, NULL);

	push	0
	push	8
	push	0
	call	?OTWViewLeft@@YAXKHPAX@Z		; OTWViewLeft
	add	esp, 12					; 0000000cH

; 2097 : 			OTWViewUp(0, KEY_DOWN, NULL);

	push	0
	push	8
	push	0
	call	?OTWViewUp@@YAXKHPAX@Z			; OTWViewUp
	add	esp, 12					; 0000000cH
$LN37@POVKludgeF:

; 2098 : 		}
; 2099 : 	}

	jmp	$LN41@POVKludgeF
$LN40@POVKludgeF:

; 2100 : 	else if(OTWDriver.GetOTWDisplayMode() == OTWDriverClass::Mode2DCockpit && povHatAngle != -1) {

	mov	ecx, OFFSET ?OTWDriver@@3VOTWDriverClass@@A ; OTWDriver
	call	?GetOTWDisplayMode@OTWDriverClass@@QAE?AW4OTWDisplayMode@1@XZ ; OTWDriverClass::GetOTWDisplayMode
	cmp	eax, 2
	jne	$LN41@POVKludgeF
	cmp	DWORD PTR _povHatAngle$[ebp], -1
	je	$LN41@POVKludgeF

; 2101 : 
; 2102 : 		if(((povHatAngle >= (POV_NW + POV_HALF_RANGE)) && (povHatAngle < 36000)) || (povHatAngle < POV_N + POV_HALF_RANGE)) {

	cmp	DWORD PTR _povHatAngle$[ebp], 33750	; 000083d6H
	jb	SHORT $LN15@POVKludgeF
	cmp	DWORD PTR _povHatAngle$[ebp], 36000	; 00008ca0H
	jb	SHORT $LN16@POVKludgeF
$LN15@POVKludgeF:
	cmp	DWORD PTR _povHatAngle$[ebp], 2250	; 000008caH
	jae	SHORT $LN17@POVKludgeF
$LN16@POVKludgeF:

; 2103 : 			gSelectedCursor = OTWDriver.pCockpitManager->POVDispatch(POV_N, gxPos, gyPos);

	mov	eax, DWORD PTR ?gyPos@@3HA		; gyPos
	push	eax
	mov	ecx, DWORD PTR ?gxPos@@3HA		; gxPos
	push	ecx
	push	0
	mov	ecx, DWORD PTR ?OTWDriver@@3VOTWDriverClass@@A+33684
	call	?POVDispatch@CockpitManager@@QAEHHHH@Z	; CockpitManager::POVDispatch
	mov	DWORD PTR ?gSelectedCursor@@3HA, eax	; gSelectedCursor
	jmp	$LN41@POVKludgeF
$LN17@POVKludgeF:

; 2104 : 		}
; 2105 : 		else if((povHatAngle >= (POV_NE - POV_HALF_RANGE)) && (povHatAngle < POV_NE + POV_HALF_RANGE)) {

	cmp	DWORD PTR _povHatAngle$[ebp], 2250	; 000008caH
	jb	SHORT $LN13@POVKludgeF
	cmp	DWORD PTR _povHatAngle$[ebp], 6750	; 00001a5eH
	jae	SHORT $LN13@POVKludgeF

; 2106 : 			gSelectedCursor = OTWDriver.pCockpitManager->POVDispatch(POV_NE, gxPos, gyPos);

	mov	edx, DWORD PTR ?gyPos@@3HA		; gyPos
	push	edx
	mov	eax, DWORD PTR ?gxPos@@3HA		; gxPos
	push	eax
	push	4500					; 00001194H
	mov	ecx, DWORD PTR ?OTWDriver@@3VOTWDriverClass@@A+33684
	call	?POVDispatch@CockpitManager@@QAEHHHH@Z	; CockpitManager::POVDispatch
	mov	DWORD PTR ?gSelectedCursor@@3HA, eax	; gSelectedCursor
	jmp	$LN41@POVKludgeF
$LN13@POVKludgeF:

; 2107 : 		}
; 2108 : 		else if((povHatAngle >= (POV_E - POV_HALF_RANGE)) && (povHatAngle < POV_E + POV_HALF_RANGE)) {

	cmp	DWORD PTR _povHatAngle$[ebp], 6750	; 00001a5eH
	jb	SHORT $LN11@POVKludgeF
	cmp	DWORD PTR _povHatAngle$[ebp], 11250	; 00002bf2H
	jae	SHORT $LN11@POVKludgeF

; 2109 : 			gSelectedCursor = OTWDriver.pCockpitManager->POVDispatch(POV_E, gxPos, gyPos);

	mov	ecx, DWORD PTR ?gyPos@@3HA		; gyPos
	push	ecx
	mov	edx, DWORD PTR ?gxPos@@3HA		; gxPos
	push	edx
	push	9000					; 00002328H
	mov	ecx, DWORD PTR ?OTWDriver@@3VOTWDriverClass@@A+33684
	call	?POVDispatch@CockpitManager@@QAEHHHH@Z	; CockpitManager::POVDispatch
	mov	DWORD PTR ?gSelectedCursor@@3HA, eax	; gSelectedCursor
	jmp	$LN41@POVKludgeF
$LN11@POVKludgeF:

; 2110 : 		}
; 2111 : 		else if((povHatAngle >= (POV_SE - POV_HALF_RANGE)) && (povHatAngle < POV_SE + POV_HALF_RANGE)) {

	cmp	DWORD PTR _povHatAngle$[ebp], 11250	; 00002bf2H
	jb	SHORT $LN9@POVKludgeF
	cmp	DWORD PTR _povHatAngle$[ebp], 15750	; 00003d86H
	jae	SHORT $LN9@POVKludgeF

; 2112 : 			gSelectedCursor = OTWDriver.pCockpitManager->POVDispatch(POV_SE, gxPos, gyPos);

	mov	eax, DWORD PTR ?gyPos@@3HA		; gyPos
	push	eax
	mov	ecx, DWORD PTR ?gxPos@@3HA		; gxPos
	push	ecx
	push	13500					; 000034bcH
	mov	ecx, DWORD PTR ?OTWDriver@@3VOTWDriverClass@@A+33684
	call	?POVDispatch@CockpitManager@@QAEHHHH@Z	; CockpitManager::POVDispatch
	mov	DWORD PTR ?gSelectedCursor@@3HA, eax	; gSelectedCursor
	jmp	$LN41@POVKludgeF
$LN9@POVKludgeF:

; 2113 : 		}
; 2114 : 		else if((povHatAngle >= (POV_S - POV_HALF_RANGE)) && (povHatAngle < POV_S + POV_HALF_RANGE)) {

	cmp	DWORD PTR _povHatAngle$[ebp], 15750	; 00003d86H
	jb	SHORT $LN7@POVKludgeF
	cmp	DWORD PTR _povHatAngle$[ebp], 20250	; 00004f1aH
	jae	SHORT $LN7@POVKludgeF

; 2115 : 			gSelectedCursor = OTWDriver.pCockpitManager->POVDispatch(POV_S, gxPos, gyPos);

	mov	edx, DWORD PTR ?gyPos@@3HA		; gyPos
	push	edx
	mov	eax, DWORD PTR ?gxPos@@3HA		; gxPos
	push	eax
	push	18000					; 00004650H
	mov	ecx, DWORD PTR ?OTWDriver@@3VOTWDriverClass@@A+33684
	call	?POVDispatch@CockpitManager@@QAEHHHH@Z	; CockpitManager::POVDispatch
	mov	DWORD PTR ?gSelectedCursor@@3HA, eax	; gSelectedCursor
	jmp	$LN41@POVKludgeF
$LN7@POVKludgeF:

; 2116 : 		}
; 2117 : 		else if((povHatAngle >= (POV_SW - POV_HALF_RANGE)) && (povHatAngle < POV_SW + POV_HALF_RANGE)) {

	cmp	DWORD PTR _povHatAngle$[ebp], 20250	; 00004f1aH
	jb	SHORT $LN5@POVKludgeF
	cmp	DWORD PTR _povHatAngle$[ebp], 24750	; 000060aeH
	jae	SHORT $LN5@POVKludgeF

; 2118 : 			gSelectedCursor = OTWDriver.pCockpitManager->POVDispatch(POV_SW, gxPos, gyPos);

	mov	ecx, DWORD PTR ?gyPos@@3HA		; gyPos
	push	ecx
	mov	edx, DWORD PTR ?gxPos@@3HA		; gxPos
	push	edx
	push	22500					; 000057e4H
	mov	ecx, DWORD PTR ?OTWDriver@@3VOTWDriverClass@@A+33684
	call	?POVDispatch@CockpitManager@@QAEHHHH@Z	; CockpitManager::POVDispatch
	mov	DWORD PTR ?gSelectedCursor@@3HA, eax	; gSelectedCursor
	jmp	SHORT $LN41@POVKludgeF
$LN5@POVKludgeF:

; 2119 : 		}
; 2120 : 		else if((povHatAngle >= (POV_W - POV_HALF_RANGE)) && (povHatAngle < POV_W + POV_HALF_RANGE)) {

	cmp	DWORD PTR _povHatAngle$[ebp], 24750	; 000060aeH
	jb	SHORT $LN3@POVKludgeF
	cmp	DWORD PTR _povHatAngle$[ebp], 29250	; 00007242H
	jae	SHORT $LN3@POVKludgeF

; 2121 : 			gSelectedCursor = OTWDriver.pCockpitManager->POVDispatch(POV_W, gxPos, gyPos);

	mov	eax, DWORD PTR ?gyPos@@3HA		; gyPos
	push	eax
	mov	ecx, DWORD PTR ?gxPos@@3HA		; gxPos
	push	ecx
	push	27000					; 00006978H
	mov	ecx, DWORD PTR ?OTWDriver@@3VOTWDriverClass@@A+33684
	call	?POVDispatch@CockpitManager@@QAEHHHH@Z	; CockpitManager::POVDispatch
	mov	DWORD PTR ?gSelectedCursor@@3HA, eax	; gSelectedCursor
	jmp	SHORT $LN41@POVKludgeF
$LN3@POVKludgeF:

; 2122 : 		}
; 2123 : 		else if((povHatAngle >= (POV_NW - POV_HALF_RANGE)) && (povHatAngle < POV_NW + POV_HALF_RANGE)) {

	cmp	DWORD PTR _povHatAngle$[ebp], 29250	; 00007242H
	jb	SHORT $LN41@POVKludgeF
	cmp	DWORD PTR _povHatAngle$[ebp], 33750	; 000083d6H
	jae	SHORT $LN41@POVKludgeF

; 2124 : 			gSelectedCursor = OTWDriver.pCockpitManager->POVDispatch(POV_NW, gxPos, gyPos);

	mov	edx, DWORD PTR ?gyPos@@3HA		; gyPos
	push	edx
	mov	eax, DWORD PTR ?gxPos@@3HA		; gxPos
	push	eax
	push	31500					; 00007b0cH
	mov	ecx, DWORD PTR ?OTWDriver@@3VOTWDriverClass@@A+33684
	call	?POVDispatch@CockpitManager@@QAEHHHH@Z	; CockpitManager::POVDispatch
	mov	DWORD PTR ?gSelectedCursor@@3HA, eax	; gSelectedCursor
$LN41@POVKludgeF:

; 2125 : 		}
; 2126 : 
; 2127 : 		/*	
; 2128 : 				if(((povHatAngle >= (POV_NW + POV_HALF_RANGE)) && (povHatAngle < 65535)) || (povHatAngle < POV_N + POV_HALF_RANGE)) {
; 2129 : 				gSelectedCursor = OTWDriver.pCockpitManager->Dispatch(CP_MOUSE_BUTTON0, DisplayOptions.DispWidth / 2, 0);
; 2130 : 				}
; 2131 : 				else if((povHatAngle >= (POV_NE - POV_HALF_RANGE)) && (povHatAngle < POV_NE + POV_HALF_RANGE)) {
; 2132 : 				gSelectedCursor = OTWDriver.pCockpitManager->Dispatch(CP_MOUSE_BUTTON0, DisplayOptions.DispWidth, 0);
; 2133 : 				}
; 2134 : 				else if((povHatAngle >= (POV_E - POV_HALF_RANGE)) && (povHatAngle < POV_E + POV_HALF_RANGE)) {
; 2135 : 				gSelectedCursor = OTWDriver.pCockpitManager->Dispatch(CP_MOUSE_BUTTON0, DisplayOptions.DispWidth, DisplayOptions.DispHeight / 2);
; 2136 : 				}
; 2137 : 				else if((povHatAngle >= (POV_SE - POV_HALF_RANGE)) && (povHatAngle < POV_SE + POV_HALF_RANGE)) {
; 2138 : 				gSelectedCursor = OTWDriver.pCockpitManager->Dispatch(CP_MOUSE_BUTTON0, DisplayOptions.DispWidth, DisplayOptions.DispHeight);
; 2139 : 				}
; 2140 : 				else if((povHatAngle >= (POV_S - POV_HALF_RANGE)) && (povHatAngle < POV_S + POV_HALF_RANGE)) {
; 2141 : 				gSelectedCursor = OTWDriver.pCockpitManager->Dispatch(CP_MOUSE_BUTTON0, DisplayOptions.DispWidth / 2 + 2, DisplayOptions.DispHeight);
; 2142 : 				}
; 2143 : 				else if((povHatAngle >= (POV_SW - POV_HALF_RANGE)) && (povHatAngle < POV_SW + POV_HALF_RANGE)) {
; 2144 : 				gSelectedCursor = OTWDriver.pCockpitManager->Dispatch(CP_MOUSE_BUTTON0, 0, DisplayOptions.DispHeight);
; 2145 : 				}
; 2146 : 				else if((povHatAngle >= (POV_W - POV_HALF_RANGE)) && (povHatAngle < POV_W + POV_HALF_RANGE)) {
; 2147 : 				gSelectedCursor = OTWDriver.pCockpitManager->Dispatch(CP_MOUSE_BUTTON0, 0, DisplayOptions.DispHeight / 2);
; 2148 : 				}
; 2149 : 				else if((povHatAngle >= (POV_NW - POV_HALF_RANGE)) && (povHatAngle < POV_NW + POV_HALF_RANGE)) {
; 2150 : 				gSelectedCursor = OTWDriver.pCockpitManager->Dispatch(CP_MOUSE_BUTTON0, 0, 0);
; 2151 : 				}
; 2152 : 		 */
; 2153 : 	}
; 2154 : 	//}
; 2155 : 
; 2156 : 	//previousAngle = povHatAngle;
; 2157 : }

	mov	esp, ebp
	pop	ebp
	ret	4
?POVKludgeFunction@SimulationDriver@@QAEXK@Z ENDP	; SimulationDriver::POVKludgeFunction
_TEXT	ENDS
; Function compile flags: /Odtp
; File c:\users\zhitao li\documents\visual studio 2012\projects\freefalcon\sim\simdrive\simdrive.cpp
_TEXT	SEGMENT
$T2 = -592						; size = 8
$T3 = -584						; size = 8
$T4 = -576						; size = 8
$T5 = -568						; size = 8
$T6 = -560						; size = 8
$T7 = -552						; size = 8
$T8 = -544						; size = 8
$T9 = -536						; size = 8
$T10 = -528						; size = 8
$T11 = -520						; size = 8
$T12 = -512						; size = 8
$T13 = -504						; size = 8
$T14 = -496						; size = 8
$T15 = -488						; size = 8
$T16 = -480						; size = 8
$T17 = -472						; size = 8
tv1444 = -464						; size = 8
tv1481 = -456						; size = 8
tv1108 = -448						; size = 8
tv1204 = -440						; size = 8
tv1394 = -432						; size = 8
tv1230 = -424						; size = 8
tv1341 = -416						; size = 8
tv1530 = -408						; size = 8
tv1299 = -400						; size = 8
tv1261 = -392						; size = 8
tv1420 = -384						; size = 8
_featureWalker$ = -376					; size = 12
_todRec$ = -364						; size = 5
_objectWalker$ = -356					; size = 12
tv1337 = -344						; size = 4
tv1104 = -340						; size = 4
tv1295 = -336						; size = 4
tv1526 = -332						; size = 4
tv1257 = -328						; size = 4
tv1200 = -324						; size = 4
tv1226 = -320						; size = 4
tv1477 = -316						; size = 4
tv1440 = -312						; size = 4
tv1416 = -308						; size = 4
tv1390 = -304						; size = 4
_radar$18 = -300					; size = 4
_radar$19 = -296					; size = 4
_leadObject$ = -292					; size = 4
_this$ = -288						; size = 4
_numSwitches$ = -284					; size = 4
_theObject$ = -280					; size = 4
_i$ = -276						; size = 4
_theMover$ = -272					; size = 4
_misPos$ = -268						; size = 37
_featPos$ = -228					; size = 49
_featStat$ = -176					; size = 17
_airPos$ = -156						; size = 41
_genPos$ = -112						; size = 37
_DOFRec$ = -72						; size = 25
_switchRec$ = -44					; size = 25
__$ArrayPad$ = -16					; size = 4
__$EHRec$ = -12						; size = 12
?InitACMIRecord@SimulationDriver@@QAEXXZ PROC		; SimulationDriver::InitACMIRecord
; _this$ = ecx

; 1738 : {

	push	ebp
	mov	ebp, esp
	push	-1
	push	__ehhandler$?InitACMIRecord@SimulationDriver@@QAEXXZ
	mov	eax, DWORD PTR fs:0
	push	eax
	sub	esp, 580				; 00000244H
	mov	eax, DWORD PTR ___security_cookie
	xor	eax, ebp
	mov	DWORD PTR __$ArrayPad$[ebp], eax
	push	esi
	push	eax
	lea	eax, DWORD PTR __$EHRec$[ebp]
	mov	DWORD PTR fs:0, eax
	mov	DWORD PTR _this$[ebp], ecx

; 1739 : 	int i;
; 1740 : 	int numSwitches;
; 1741 : 	SimFeatureClass* theObject;
; 1742 : 	SimBaseClass *leadObject;
; 1743 : 	SimMoverClass *theMover;
; 1744 : 	VuListIterator objectWalker (objectList);

	mov	eax, DWORD PTR _this$[ebp]
	mov	ecx, DWORD PTR [eax]
	push	ecx
	lea	ecx, DWORD PTR _objectWalker$[ebp]
	call	??0VuListIterator@@QAE@PAVVuLinkedList@@@Z ; VuListIterator::VuListIterator
	mov	DWORD PTR __$EHRec$[ebp+8], 0

; 1745 : 	VuListIterator featureWalker (featureList);

	mov	edx, DWORD PTR _this$[ebp]
	mov	eax, DWORD PTR [edx+4]
	push	eax
	lea	ecx, DWORD PTR _featureWalker$[ebp]
	call	??0VuListIterator@@QAE@PAVVuLinkedList@@@Z ; VuListIterator::VuListIterator
	mov	BYTE PTR __$EHRec$[ebp+8], 1

; 1746 : 	ACMIGenPositionRecord genPos;
; 1747 : 	ACMIMissilePositionRecord misPos;
; 1748 : 	ACMIAircraftPositionRecord airPos;
; 1749 : 	ACMISwitchRecord switchRec;
; 1750 : 	ACMIDOFRecord DOFRec;
; 1751 : 	ACMITodOffsetRecord todRec;
; 1752 : 	ACMIFeaturePositionRecord featPos;
; 1753 : 	ACMIFeatureStatusRecord featStat;
; 1754 : 
; 1755 : 	// record the tod offset
; 1756 : 	todRec.hdr.time = OTWDriver.todOffset;

	movss	xmm0, DWORD PTR ?OTWDriver@@3VOTWDriverClass@@A+32052
	movss	DWORD PTR _todRec$[ebp+1], xmm0

; 1757 : 	gACMIRec.TodOffsetRecord( &todRec );

	lea	ecx, DWORD PTR _todRec$[ebp]
	push	ecx
	mov	ecx, OFFSET ?gACMIRec@@3VACMIRecorder@@A ; gACMIRec
	call	?TodOffsetRecord@ACMIRecorder@@QAEXPAUACMITodOffsetRecord@@@Z ; ACMIRecorder::TodOffsetRecord

; 1758 : 
; 1759 : 	// make sure the player's f16 is first in list
; 1760 : 	if ( playerEntity )

	mov	edx, DWORD PTR _this$[ebp]
	cmp	DWORD PTR [edx+56], 0
	je	$LN26@InitACMIRe

; 1761 : 	{
; 1762 : 		theMover = playerEntity;

	mov	eax, DWORD PTR _this$[ebp]
	mov	ecx, DWORD PTR [eax+56]
	mov	DWORD PTR _theMover$[ebp], ecx

; 1763 : 		airPos.hdr.time = SimLibElapsedTime * MSEC_TO_SEC + OTWDriver.todOffset;

	mov	edx, DWORD PTR ?SimLibElapsedTime@@3KA	; SimLibElapsedTime
	mov	DWORD PTR tv1104[ebp], edx
	cvtsi2sd xmm0, DWORD PTR tv1104[ebp]
	mov	eax, DWORD PTR tv1104[ebp]
	shr	eax, 31					; 0000001fH
	addsd	xmm0, QWORD PTR __xmm@41f00000000000000000000000000000[eax*8]
	movsd	QWORD PTR tv1108[ebp], xmm0
	cvtsd2ss xmm0, QWORD PTR tv1108[ebp]
	mulss	xmm0, DWORD PTR __real@3a83126f
	addss	xmm0, DWORD PTR ?OTWDriver@@3VOTWDriverClass@@A+32052
	movss	DWORD PTR _airPos$[ebp+1], xmm0

; 1764 : 		airPos.data.type = theMover->Type();

	mov	ecx, DWORD PTR _theMover$[ebp]
	call	?Type@VuEntity@@QBEGXZ			; VuEntity::Type
	movzx	ecx, ax
	mov	DWORD PTR _airPos$[ebp+5], ecx

; 1765 : 
; 1766 : 		// sfr: remove JB check
; 1767 : 		if (!F4IsBadReadPtr((DrawableBSP*)(theMover->drawPointer), sizeof(DrawableBSP)) && theMover->GetTeam() >= 0 && !F4IsBadReadPtr(TeamInfo[theMover->GetTeam()], sizeof(TeamClass))) // JB 010326 CTD

	push	172					; 000000acH
	mov	edx, DWORD PTR _theMover$[ebp]
	mov	eax, DWORD PTR [edx+332]
	push	eax
	call	?F4IsBadReadPtr@@YA_NPBXI@Z		; F4IsBadReadPtr
	add	esp, 8
	movzx	ecx, al
	test	ecx, ecx
	jne	$LN34@InitACMIRe
	mov	edx, DWORD PTR _theMover$[ebp]
	mov	eax, DWORD PTR [edx]
	mov	ecx, DWORD PTR _theMover$[ebp]
	mov	edx, DWORD PTR [eax+116]
	call	edx
	movzx	eax, al
	test	eax, eax
	jl	$LN34@InitACMIRe
	push	904					; 00000388H
	mov	ecx, DWORD PTR _theMover$[ebp]
	mov	edx, DWORD PTR [ecx]
	mov	ecx, DWORD PTR _theMover$[ebp]
	mov	eax, DWORD PTR [edx+116]
	call	eax
	movzx	ecx, al
	mov	edx, DWORD PTR ?TeamInfo@@3PAPAVTeamClass@@A[ecx*4]
	push	edx
	call	?F4IsBadReadPtr@@YA_NPBXI@Z		; F4IsBadReadPtr
	add	esp, 8
	movzx	eax, al
	test	eax, eax
	jne	SHORT $LN34@InitACMIRe

; 1768 : 			airPos.data.uniqueID = ACMIIDTable->Add(theMover->Id(),(char*) ((DrawableBSP*)(theMover->drawPointer))->Label(),TeamInfo[theMover->GetTeam()]->GetColor());//.num_;

	mov	ecx, DWORD PTR _theMover$[ebp]
	mov	edx, DWORD PTR [ecx]
	mov	ecx, DWORD PTR _theMover$[ebp]
	mov	eax, DWORD PTR [edx+116]
	call	eax
	movzx	ecx, al
	mov	ecx, DWORD PTR ?TeamInfo@@3PAPAVTeamClass@@A[ecx*4]
	call	?GetColor@TeamClass@@QAEHXZ		; TeamClass::GetColor
	push	eax
	mov	edx, DWORD PTR _theMover$[ebp]
	mov	ecx, DWORD PTR [edx+332]
	call	?Label@DrawableBSP@@QAEPADXZ		; DrawableBSP::Label
	push	eax
	lea	eax, DWORD PTR $T5[ebp]
	push	eax
	mov	ecx, DWORD PTR _theMover$[ebp]
	call	?Id@VuEntity@@QBE?AVVU_ID@@XZ		; VuEntity::Id
	mov	ecx, DWORD PTR [eax+4]
	push	ecx
	mov	edx, DWORD PTR [eax]
	push	edx
	mov	ecx, DWORD PTR ?ACMIIDTable@@3PAVACMI_Hash@@A ; ACMIIDTable
	call	?Add@ACMI_Hash@@QAEJVVU_ID@@PADJ@Z	; ACMI_Hash::Add
	mov	DWORD PTR _airPos$[ebp+9], eax
$LN34@InitACMIRe:

; 1769 : 
; 1770 : 		airPos.data.x = theMover->XPos();

	mov	ecx, DWORD PTR _theMover$[ebp]
	call	?XPos@VuEntity@@QBEMXZ			; VuEntity::XPos
	fstp	DWORD PTR _airPos$[ebp+13]

; 1771 : 		airPos.data.y = theMover->YPos();

	mov	ecx, DWORD PTR _theMover$[ebp]
	call	?YPos@VuEntity@@QBEMXZ			; VuEntity::YPos
	fstp	DWORD PTR _airPos$[ebp+17]

; 1772 : 		airPos.data.z = theMover->ZPos();

	mov	ecx, DWORD PTR _theMover$[ebp]
	call	?ZPos@VuEntity@@QBEMXZ			; VuEntity::ZPos
	fstp	DWORD PTR _airPos$[ebp+21]

; 1773 : 		airPos.data.roll = theMover->Roll();

	mov	ecx, DWORD PTR _theMover$[ebp]
	call	?Roll@VuEntity@@QBEMXZ			; VuEntity::Roll
	fstp	DWORD PTR _airPos$[ebp+33]

; 1774 : 		airPos.data.pitch = theMover->Pitch();

	mov	ecx, DWORD PTR _theMover$[ebp]
	call	?Pitch@VuEntity@@QBEMXZ			; VuEntity::Pitch
	fstp	DWORD PTR _airPos$[ebp+29]

; 1775 : 		airPos.data.yaw = theMover->Yaw();

	mov	ecx, DWORD PTR _theMover$[ebp]
	call	?Yaw@VuEntity@@QBEMXZ			; VuEntity::Yaw
	fstp	DWORD PTR _airPos$[ebp+25]

; 1776 : 		RadarClass *radar = (RadarClass*)FindSensor( theMover, SensorClass::Radar );

	push	1
	mov	eax, DWORD PTR _theMover$[ebp]
	push	eax
	call	?FindSensor@@YAPAVSensorClass@@PAVSimMoverClass@@H@Z ; FindSensor
	add	esp, 8
	mov	DWORD PTR _radar$19[ebp], eax

; 1777 : #if NO_REMOTE_BUGGED_TARGET
; 1778 : 		if (  radar && radar->CurrentTarget() ){

	cmp	DWORD PTR _radar$19[ebp], 0
	je	SHORT $LN33@InitACMIRe
	mov	ecx, DWORD PTR _radar$19[ebp]
	call	?CurrentTarget@SensorClass@@QAEPAVSimObjectType@@XZ ; SensorClass::CurrentTarget
	test	eax, eax
	je	SHORT $LN33@InitACMIRe

; 1779 : 			airPos.RadarTarget = ACMIIDTable->Add(radar->CurrentTarget()->BaseData()->Id(),NULL,0);//.num_;

	push	0
	push	0
	lea	ecx, DWORD PTR $T9[ebp]
	push	ecx
	mov	ecx, DWORD PTR _radar$19[ebp]
	call	?CurrentTarget@SensorClass@@QAEPAVSimObjectType@@XZ ; SensorClass::CurrentTarget
	mov	ecx, eax
	call	?BaseData@SimObjectType@@QAEPAVFalconEntity@@XZ ; SimObjectType::BaseData
	mov	ecx, eax
	call	?Id@VuEntity@@QBE?AVVU_ID@@XZ		; VuEntity::Id
	mov	edx, DWORD PTR [eax+4]
	push	edx
	mov	eax, DWORD PTR [eax]
	push	eax
	mov	ecx, DWORD PTR ?ACMIIDTable@@3PAVACMI_Hash@@A ; ACMIIDTable
	call	?Add@ACMI_Hash@@QAEJVVU_ID@@PADJ@Z	; ACMI_Hash::Add
	mov	DWORD PTR _airPos$[ebp+37], eax

; 1780 : 		}
; 1781 : #else
; 1782 : 		if (  radar && radar->RemoteBuggedTarget){
; 1783 : 			//me123 add record for online targets
; 1784 : 			airPos.RadarTarget = ACMIIDTable->Add(radar->RemoteBuggedTarget->Id(),NULL,0);//.num_;
; 1785 : 		}
; 1786 : 		else if (  radar && radar->CurrentTarget() ){
; 1787 : 			airPos.RadarTarget = ACMIIDTable->Add(radar->CurrentTarget()->BaseData()->Id(),NULL,0);//.num_;
; 1788 : 		}
; 1789 : #endif
; 1790 : 		else {

	jmp	SHORT $LN32@InitACMIRe
$LN33@InitACMIRe:

; 1791 : 			airPos.RadarTarget = -1;

	mov	DWORD PTR _airPos$[ebp+37], -1
$LN32@InitACMIRe:

; 1792 : 		}
; 1793 : 		gACMIRec.AircraftPositionRecord( &airPos );

	lea	ecx, DWORD PTR _airPos$[ebp]
	push	ecx
	mov	ecx, OFFSET ?gACMIRec@@3VACMIRecorder@@A ; gACMIRec
	call	?AircraftPositionRecord@ACMIRecorder@@QAEXPAUACMIAircraftPositionRecord@@@Z ; ACMIRecorder::AircraftPositionRecord

; 1794 : 
; 1795 : 		// now we need to save the switches
; 1796 : 		numSwitches = theMover->GetNumSwitches();

	mov	ecx, DWORD PTR _theMover$[ebp]
	call	?GetNumSwitches@SimMoverClass@@QAEHXZ	; SimMoverClass::GetNumSwitches
	mov	DWORD PTR _numSwitches$[ebp], eax

; 1797 : 		for ( i = 0; i < numSwitches; i++ )

	mov	DWORD PTR _i$[ebp], 0
	jmp	SHORT $LN31@InitACMIRe
$LN30@InitACMIRe:
	mov	edx, DWORD PTR _i$[ebp]
	add	edx, 1
	mov	DWORD PTR _i$[ebp], edx
$LN31@InitACMIRe:
	mov	eax, DWORD PTR _i$[ebp]
	cmp	eax, DWORD PTR _numSwitches$[ebp]
	jge	$LN29@InitACMIRe

; 1798 : 		{
; 1799 : 			switchRec.hdr.time = SimLibElapsedTime * MSEC_TO_SEC + OTWDriver.todOffset;

	mov	ecx, DWORD PTR ?SimLibElapsedTime@@3KA	; SimLibElapsedTime
	mov	DWORD PTR tv1200[ebp], ecx
	cvtsi2sd xmm0, DWORD PTR tv1200[ebp]
	mov	edx, DWORD PTR tv1200[ebp]
	shr	edx, 31					; 0000001fH
	addsd	xmm0, QWORD PTR __xmm@41f00000000000000000000000000000[edx*8]
	movsd	QWORD PTR tv1204[ebp], xmm0
	cvtsd2ss xmm0, QWORD PTR tv1204[ebp]
	mulss	xmm0, DWORD PTR __real@3a83126f
	addss	xmm0, DWORD PTR ?OTWDriver@@3VOTWDriverClass@@A+32052
	movss	DWORD PTR _switchRec$[ebp+1], xmm0

; 1800 : 			switchRec.data.type = theMover->Type();

	mov	ecx, DWORD PTR _theMover$[ebp]
	call	?Type@VuEntity@@QBEGXZ			; VuEntity::Type
	movzx	eax, ax
	mov	DWORD PTR _switchRec$[ebp+5], eax

; 1801 : 			switchRec.data.uniqueID = ACMIIDTable->Add(theMover->Id(),NULL,0);//.num_;

	push	0
	push	0
	lea	ecx, DWORD PTR $T16[ebp]
	push	ecx
	mov	ecx, DWORD PTR _theMover$[ebp]
	call	?Id@VuEntity@@QBE?AVVU_ID@@XZ		; VuEntity::Id
	mov	edx, DWORD PTR [eax+4]
	push	edx
	mov	eax, DWORD PTR [eax]
	push	eax
	mov	ecx, DWORD PTR ?ACMIIDTable@@3PAVACMI_Hash@@A ; ACMIIDTable
	call	?Add@ACMI_Hash@@QAEJVVU_ID@@PADJ@Z	; ACMI_Hash::Add
	mov	DWORD PTR _switchRec$[ebp+9], eax

; 1802 : 			switchRec.data.switchNum = i;

	mov	ecx, DWORD PTR _i$[ebp]
	mov	DWORD PTR _switchRec$[ebp+13], ecx

; 1803 : 			switchRec.data.switchVal = 
; 1804 : 				switchRec.data.prevSwitchVal = theMover->GetSwitch( i );

	mov	edx, DWORD PTR _i$[ebp]
	push	edx
	mov	ecx, DWORD PTR _theMover$[ebp]
	call	?GetSwitch@SimMoverClass@@QAEHH@Z	; SimMoverClass::GetSwitch
	mov	DWORD PTR _switchRec$[ebp+21], eax
	mov	eax, DWORD PTR _switchRec$[ebp+21]
	mov	DWORD PTR _switchRec$[ebp+17], eax

; 1805 : 			gACMIRec.SwitchRecord( &switchRec );

	lea	ecx, DWORD PTR _switchRec$[ebp]
	push	ecx
	mov	ecx, OFFSET ?gACMIRec@@3VACMIRecorder@@A ; gACMIRec
	call	?SwitchRecord@ACMIRecorder@@QAEXPAUACMISwitchRecord@@@Z ; ACMIRecorder::SwitchRecord

; 1806 : 		}

	jmp	$LN30@InitACMIRe
$LN29@InitACMIRe:

; 1807 : 
; 1808 : 		// now we need to save the dofs
; 1809 : 		numSwitches = theMover->GetNumDOFs();

	mov	ecx, DWORD PTR _theMover$[ebp]
	call	?GetNumDOFs@SimMoverClass@@QAEHXZ	; SimMoverClass::GetNumDOFs
	mov	DWORD PTR _numSwitches$[ebp], eax

; 1810 : 		for ( i = 0; i < numSwitches; i++ )

	mov	DWORD PTR _i$[ebp], 0
	jmp	SHORT $LN28@InitACMIRe
$LN27@InitACMIRe:
	mov	edx, DWORD PTR _i$[ebp]
	add	edx, 1
	mov	DWORD PTR _i$[ebp], edx
$LN28@InitACMIRe:
	mov	eax, DWORD PTR _i$[ebp]
	cmp	eax, DWORD PTR _numSwitches$[ebp]
	jge	$LN26@InitACMIRe

; 1811 : 		{
; 1812 : 			DOFRec.hdr.time = SimLibElapsedTime * MSEC_TO_SEC + OTWDriver.todOffset;

	mov	ecx, DWORD PTR ?SimLibElapsedTime@@3KA	; SimLibElapsedTime
	mov	DWORD PTR tv1226[ebp], ecx
	cvtsi2sd xmm0, DWORD PTR tv1226[ebp]
	mov	edx, DWORD PTR tv1226[ebp]
	shr	edx, 31					; 0000001fH
	addsd	xmm0, QWORD PTR __xmm@41f00000000000000000000000000000[edx*8]
	movsd	QWORD PTR tv1230[ebp], xmm0
	cvtsd2ss xmm0, QWORD PTR tv1230[ebp]
	mulss	xmm0, DWORD PTR __real@3a83126f
	addss	xmm0, DWORD PTR ?OTWDriver@@3VOTWDriverClass@@A+32052
	movss	DWORD PTR _DOFRec$[ebp+1], xmm0

; 1813 : 			DOFRec.data.type = theMover->Type();

	mov	ecx, DWORD PTR _theMover$[ebp]
	call	?Type@VuEntity@@QBEGXZ			; VuEntity::Type
	movzx	eax, ax
	mov	DWORD PTR _DOFRec$[ebp+5], eax

; 1814 : 			DOFRec.data.uniqueID = ACMIIDTable->Add(theMover->Id(),NULL,0);//.num_;

	push	0
	push	0
	lea	ecx, DWORD PTR $T14[ebp]
	push	ecx
	mov	ecx, DWORD PTR _theMover$[ebp]
	call	?Id@VuEntity@@QBE?AVVU_ID@@XZ		; VuEntity::Id
	mov	edx, DWORD PTR [eax+4]
	push	edx
	mov	eax, DWORD PTR [eax]
	push	eax
	mov	ecx, DWORD PTR ?ACMIIDTable@@3PAVACMI_Hash@@A ; ACMIIDTable
	call	?Add@ACMI_Hash@@QAEJVVU_ID@@PADJ@Z	; ACMI_Hash::Add
	mov	DWORD PTR _DOFRec$[ebp+9], eax

; 1815 : 			DOFRec.data.DOFNum = i;

	mov	ecx, DWORD PTR _i$[ebp]
	mov	DWORD PTR _DOFRec$[ebp+13], ecx

; 1816 : 			DOFRec.data.DOFVal =
; 1817 : 				DOFRec.data.prevDOFVal = theMover->GetDOFValue( i );

	mov	edx, DWORD PTR _i$[ebp]
	push	edx
	mov	ecx, DWORD PTR _theMover$[ebp]
	call	?GetDOFValue@SimMoverClass@@QAEMH@Z	; SimMoverClass::GetDOFValue
	fstp	DWORD PTR _DOFRec$[ebp+21]
	movss	xmm0, DWORD PTR _DOFRec$[ebp+21]
	movss	DWORD PTR _DOFRec$[ebp+17], xmm0

; 1818 : 			gACMIRec.DOFRecord( &DOFRec );

	lea	eax, DWORD PTR _DOFRec$[ebp]
	push	eax
	mov	ecx, OFFSET ?gACMIRec@@3VACMIRecorder@@A ; gACMIRec
	call	?DOFRecord@ACMIRecorder@@QAEXPAUACMIDOFRecord@@@Z ; ACMIRecorder::DOFRecord

; 1819 : 		}

	jmp	$LN27@InitACMIRe
$LN26@InitACMIRe:

; 1820 : 	}
; 1821 : 
; 1822 : 	// Do Each Entity (movers)
; 1823 : 	theMover = (SimMoverClass*)objectWalker.GetFirst();

	lea	ecx, DWORD PTR _objectWalker$[ebp]
	call	?GetFirst@VuListIterator@@QAEPAVVuEntity@@XZ ; VuListIterator::GetFirst
	mov	DWORD PTR _theMover$[ebp], eax
$LN40@InitACMIRe:

; 1824 : 	while (theMover)

	cmp	DWORD PTR _theMover$[ebp], 0
	je	$LN24@InitACMIRe

; 1825 : 	{
; 1826 : 		// we've already done the player's f16
; 1827 : 		if ( theMover == playerEntity )

	mov	ecx, DWORD PTR _this$[ebp]
	mov	edx, DWORD PTR _theMover$[ebp]
	cmp	edx, DWORD PTR [ecx+56]
	jne	SHORT $LN23@InitACMIRe

; 1828 : 		{
; 1829 : 			theMover = (SimMoverClass*)objectWalker.GetNext();

	lea	ecx, DWORD PTR _objectWalker$[ebp]
	call	?GetNext@VuListIterator@@QAEPAVVuEntity@@XZ ; VuListIterator::GetNext
	mov	DWORD PTR _theMover$[ebp], eax

; 1830 : 			continue;

	jmp	SHORT $LN40@InitACMIRe
$LN23@InitACMIRe:

; 1831 : 		}
; 1832 : 
; 1833 : 		//
; 1834 : 		// type of ACMI rec we write depends on type of object....
; 1835 : 		//
; 1836 : 
; 1837 : 
; 1838 : 		// missile
; 1839 : 		if ( theMover->IsMissile() )

	mov	eax, DWORD PTR _theMover$[ebp]
	mov	edx, DWORD PTR [eax]
	mov	ecx, DWORD PTR _theMover$[ebp]
	mov	eax, DWORD PTR [edx+156]
	call	eax
	test	eax, eax
	je	$LN22@InitACMIRe

; 1840 : 		{
; 1841 : 			misPos.hdr.time = SimLibElapsedTime * MSEC_TO_SEC + OTWDriver.todOffset;

	mov	ecx, DWORD PTR ?SimLibElapsedTime@@3KA	; SimLibElapsedTime
	mov	DWORD PTR tv1257[ebp], ecx
	cvtsi2sd xmm0, DWORD PTR tv1257[ebp]
	mov	edx, DWORD PTR tv1257[ebp]
	shr	edx, 31					; 0000001fH
	addsd	xmm0, QWORD PTR __xmm@41f00000000000000000000000000000[edx*8]
	movsd	QWORD PTR tv1261[ebp], xmm0
	cvtsd2ss xmm0, QWORD PTR tv1261[ebp]
	mulss	xmm0, DWORD PTR __real@3a83126f
	addss	xmm0, DWORD PTR ?OTWDriver@@3VOTWDriverClass@@A+32052
	movss	DWORD PTR _misPos$[ebp+1], xmm0

; 1842 : 			misPos.data.type = theMover->Type();

	mov	ecx, DWORD PTR _theMover$[ebp]
	call	?Type@VuEntity@@QBEGXZ			; VuEntity::Type
	movzx	eax, ax
	mov	DWORD PTR _misPos$[ebp+5], eax

; 1843 : 			misPos.data.uniqueID = ACMIIDTable->Add(theMover->Id(),NULL,TeamInfo[theMover->GetTeam()]->GetColor());//.num_;

	mov	ecx, DWORD PTR _theMover$[ebp]
	mov	edx, DWORD PTR [ecx]
	mov	ecx, DWORD PTR _theMover$[ebp]
	mov	eax, DWORD PTR [edx+116]
	call	eax
	movzx	ecx, al
	mov	ecx, DWORD PTR ?TeamInfo@@3PAPAVTeamClass@@A[ecx*4]
	call	?GetColor@TeamClass@@QAEHXZ		; TeamClass::GetColor
	push	eax
	push	0
	lea	edx, DWORD PTR $T12[ebp]
	push	edx
	mov	ecx, DWORD PTR _theMover$[ebp]
	call	?Id@VuEntity@@QBE?AVVU_ID@@XZ		; VuEntity::Id
	mov	ecx, DWORD PTR [eax+4]
	push	ecx
	mov	edx, DWORD PTR [eax]
	push	edx
	mov	ecx, DWORD PTR ?ACMIIDTable@@3PAVACMI_Hash@@A ; ACMIIDTable
	call	?Add@ACMI_Hash@@QAEJVVU_ID@@PADJ@Z	; ACMI_Hash::Add
	mov	DWORD PTR _misPos$[ebp+9], eax

; 1844 : 			misPos.data.x = theMover->XPos();

	mov	ecx, DWORD PTR _theMover$[ebp]
	call	?XPos@VuEntity@@QBEMXZ			; VuEntity::XPos
	fstp	DWORD PTR _misPos$[ebp+13]

; 1845 : 			misPos.data.y = theMover->YPos();

	mov	ecx, DWORD PTR _theMover$[ebp]
	call	?YPos@VuEntity@@QBEMXZ			; VuEntity::YPos
	fstp	DWORD PTR _misPos$[ebp+17]

; 1846 : 			misPos.data.z = theMover->ZPos();

	mov	ecx, DWORD PTR _theMover$[ebp]
	call	?ZPos@VuEntity@@QBEMXZ			; VuEntity::ZPos
	fstp	DWORD PTR _misPos$[ebp+21]

; 1847 : 			misPos.data.roll = theMover->Roll();

	mov	ecx, DWORD PTR _theMover$[ebp]
	call	?Roll@VuEntity@@QBEMXZ			; VuEntity::Roll
	fstp	DWORD PTR _misPos$[ebp+33]

; 1848 : 			misPos.data.pitch = theMover->Pitch();

	mov	ecx, DWORD PTR _theMover$[ebp]
	call	?Pitch@VuEntity@@QBEMXZ			; VuEntity::Pitch
	fstp	DWORD PTR _misPos$[ebp+29]

; 1849 : 			misPos.data.yaw = theMover->Yaw();

	mov	ecx, DWORD PTR _theMover$[ebp]
	call	?Yaw@VuEntity@@QBEMXZ			; VuEntity::Yaw
	fstp	DWORD PTR _misPos$[ebp+25]

; 1850 : 			// remove			strcpy(misPos.data.label,"");
; 1851 : 			// remove			misPos.data.teamColor = TeamInfo[theMover->GetTeam()]->GetColor();
; 1852 : 			gACMIRec.MissilePositionRecord( &misPos );

	lea	eax, DWORD PTR _misPos$[ebp]
	push	eax
	mov	ecx, OFFSET ?gACMIRec@@3VACMIRecorder@@A ; gACMIRec
	call	?MissilePositionRecord@ACMIRecorder@@QAEXPAUACMIMissilePositionRecord@@@Z ; ACMIRecorder::MissilePositionRecord
	jmp	$LN5@InitACMIRe
$LN22@InitACMIRe:

; 1853 : 		}
; 1854 : 		// bombs
; 1855 : 		else if ( theMover->IsBomb() )

	mov	ecx, DWORD PTR _theMover$[ebp]
	mov	edx, DWORD PTR [ecx]
	mov	ecx, DWORD PTR _theMover$[ebp]
	mov	eax, DWORD PTR [edx+164]
	call	eax
	test	eax, eax
	je	$LN20@InitACMIRe

; 1856 : 		{
; 1857 : 			genPos.hdr.time = SimLibElapsedTime * MSEC_TO_SEC + OTWDriver.todOffset;

	mov	ecx, DWORD PTR ?SimLibElapsedTime@@3KA	; SimLibElapsedTime
	mov	DWORD PTR tv1295[ebp], ecx
	cvtsi2sd xmm0, DWORD PTR tv1295[ebp]
	mov	edx, DWORD PTR tv1295[ebp]
	shr	edx, 31					; 0000001fH
	addsd	xmm0, QWORD PTR __xmm@41f00000000000000000000000000000[edx*8]
	movsd	QWORD PTR tv1299[ebp], xmm0
	cvtsd2ss xmm0, QWORD PTR tv1299[ebp]
	mulss	xmm0, DWORD PTR __real@3a83126f
	addss	xmm0, DWORD PTR ?OTWDriver@@3VOTWDriverClass@@A+32052
	movss	DWORD PTR _genPos$[ebp+1], xmm0

; 1858 : 			genPos.data.type = theMover->Type();

	mov	ecx, DWORD PTR _theMover$[ebp]
	call	?Type@VuEntity@@QBEGXZ			; VuEntity::Type
	movzx	eax, ax
	mov	DWORD PTR _genPos$[ebp+5], eax

; 1859 : 			genPos.data.uniqueID = ACMIIDTable->Add(theMover->Id(),NULL,TeamInfo[theMover->GetTeam()]->GetColor());//.num_;

	mov	ecx, DWORD PTR _theMover$[ebp]
	mov	edx, DWORD PTR [ecx]
	mov	ecx, DWORD PTR _theMover$[ebp]
	mov	eax, DWORD PTR [edx+116]
	call	eax
	movzx	ecx, al
	mov	ecx, DWORD PTR ?TeamInfo@@3PAPAVTeamClass@@A[ecx*4]
	call	?GetColor@TeamClass@@QAEHXZ		; TeamClass::GetColor
	push	eax
	push	0
	lea	edx, DWORD PTR $T10[ebp]
	push	edx
	mov	ecx, DWORD PTR _theMover$[ebp]
	call	?Id@VuEntity@@QBE?AVVU_ID@@XZ		; VuEntity::Id
	mov	ecx, DWORD PTR [eax+4]
	push	ecx
	mov	edx, DWORD PTR [eax]
	push	edx
	mov	ecx, DWORD PTR ?ACMIIDTable@@3PAVACMI_Hash@@A ; ACMIIDTable
	call	?Add@ACMI_Hash@@QAEJVVU_ID@@PADJ@Z	; ACMI_Hash::Add
	mov	DWORD PTR _genPos$[ebp+9], eax

; 1860 : 			genPos.data.x = theMover->XPos();

	mov	ecx, DWORD PTR _theMover$[ebp]
	call	?XPos@VuEntity@@QBEMXZ			; VuEntity::XPos
	fstp	DWORD PTR _genPos$[ebp+13]

; 1861 : 			genPos.data.y = theMover->YPos();

	mov	ecx, DWORD PTR _theMover$[ebp]
	call	?YPos@VuEntity@@QBEMXZ			; VuEntity::YPos
	fstp	DWORD PTR _genPos$[ebp+17]

; 1862 : 			genPos.data.z = theMover->ZPos();

	mov	ecx, DWORD PTR _theMover$[ebp]
	call	?ZPos@VuEntity@@QBEMXZ			; VuEntity::ZPos
	fstp	DWORD PTR _genPos$[ebp+21]

; 1863 : 			genPos.data.roll = theMover->Roll();

	mov	ecx, DWORD PTR _theMover$[ebp]
	call	?Roll@VuEntity@@QBEMXZ			; VuEntity::Roll
	fstp	DWORD PTR _genPos$[ebp+33]

; 1864 : 			genPos.data.pitch = theMover->Pitch();

	mov	ecx, DWORD PTR _theMover$[ebp]
	call	?Pitch@VuEntity@@QBEMXZ			; VuEntity::Pitch
	fstp	DWORD PTR _genPos$[ebp+29]

; 1865 : 			genPos.data.yaw = theMover->Yaw();

	mov	ecx, DWORD PTR _theMover$[ebp]
	call	?Yaw@VuEntity@@QBEMXZ			; VuEntity::Yaw
	fstp	DWORD PTR _genPos$[ebp+25]

; 1866 : 			// remove			strcpy(genPos.data.label,"");// = NULL;
; 1867 : 			//VWF
; 1868 : 			// remove			genPos.data.teamColor = TeamInfo[theMover->GetTeam()]->GetColor();
; 1869 : 
; 1870 : 			if (((BombClass *)theMover)->IsSetBombFlag(BombClass::IsFlare))

	push	16					; 00000010H
	mov	ecx, DWORD PTR _theMover$[ebp]
	call	?IsSetBombFlag@BombClass@@QAEHH@Z	; BombClass::IsSetBombFlag
	test	eax, eax
	je	SHORT $LN19@InitACMIRe

; 1871 : 				gACMIRec.FlarePositionRecord( (ACMIFlarePositionRecord *)&genPos );

	lea	eax, DWORD PTR _genPos$[ebp]
	push	eax
	mov	ecx, OFFSET ?gACMIRec@@3VACMIRecorder@@A ; gACMIRec
	call	?FlarePositionRecord@ACMIRecorder@@QAEXPAUACMIFlarePositionRecord@@@Z ; ACMIRecorder::FlarePositionRecord
	jmp	SHORT $LN16@InitACMIRe
$LN19@InitACMIRe:

; 1872 : 			else if (((BombClass *)theMover)->IsSetBombFlag(BombClass::IsChaff))

	push	4
	mov	ecx, DWORD PTR _theMover$[ebp]
	call	?IsSetBombFlag@BombClass@@QAEHH@Z	; BombClass::IsSetBombFlag
	test	eax, eax
	je	SHORT $LN17@InitACMIRe

; 1873 : 				gACMIRec.ChaffPositionRecord( (ACMIChaffPositionRecord *)&genPos );

	lea	ecx, DWORD PTR _genPos$[ebp]
	push	ecx
	mov	ecx, OFFSET ?gACMIRec@@3VACMIRecorder@@A ; gACMIRec
	call	?ChaffPositionRecord@ACMIRecorder@@QAEXPAUACMIChaffPositionRecord@@@Z ; ACMIRecorder::ChaffPositionRecord

; 1874 : 			else

	jmp	SHORT $LN16@InitACMIRe
$LN17@InitACMIRe:

; 1875 : 				gACMIRec.GenPositionRecord( &genPos );

	lea	edx, DWORD PTR _genPos$[ebp]
	push	edx
	mov	ecx, OFFSET ?gACMIRec@@3VACMIRecorder@@A ; gACMIRec
	call	?GenPositionRecord@ACMIRecorder@@QAEXPAUACMIGenPositionRecord@@@Z ; ACMIRecorder::GenPositionRecord
$LN16@InitACMIRe:
	jmp	$LN5@InitACMIRe
$LN20@InitACMIRe:

; 1876 : 		}
; 1877 : 		// aircraft
; 1878 : 		// TODO: anything special for ownship?
; 1879 : 		// TODO: save DOF's and states?
; 1880 : 		else if ( theMover->IsAirplane() )

	mov	eax, DWORD PTR _theMover$[ebp]
	mov	edx, DWORD PTR [eax]
	mov	ecx, DWORD PTR _theMover$[ebp]
	mov	eax, DWORD PTR [edx+192]
	call	eax
	test	eax, eax
	je	$LN14@InitACMIRe

; 1881 : 		{
; 1882 : 			airPos.hdr.time = SimLibElapsedTime * MSEC_TO_SEC + OTWDriver.todOffset;

	mov	ecx, DWORD PTR ?SimLibElapsedTime@@3KA	; SimLibElapsedTime
	mov	DWORD PTR tv1337[ebp], ecx
	cvtsi2sd xmm0, DWORD PTR tv1337[ebp]
	mov	edx, DWORD PTR tv1337[ebp]
	shr	edx, 31					; 0000001fH
	addsd	xmm0, QWORD PTR __xmm@41f00000000000000000000000000000[edx*8]
	movsd	QWORD PTR tv1341[ebp], xmm0
	cvtsd2ss xmm0, QWORD PTR tv1341[ebp]
	mulss	xmm0, DWORD PTR __real@3a83126f
	addss	xmm0, DWORD PTR ?OTWDriver@@3VOTWDriverClass@@A+32052
	movss	DWORD PTR _airPos$[ebp+1], xmm0

; 1883 : 			airPos.data.type = theMover->Type();

	mov	ecx, DWORD PTR _theMover$[ebp]
	call	?Type@VuEntity@@QBEGXZ			; VuEntity::Type
	movzx	eax, ax
	mov	DWORD PTR _airPos$[ebp+5], eax

; 1884 : 			airPos.data.uniqueID = ACMIIDTable->Add(theMover->Id(), (char *)((DrawableBSP*)(theMover->drawPointer))->Label(),TeamInfo[theMover->GetTeam()]->GetColor());//.num_;

	mov	ecx, DWORD PTR _theMover$[ebp]
	mov	edx, DWORD PTR [ecx]
	mov	ecx, DWORD PTR _theMover$[ebp]
	mov	eax, DWORD PTR [edx+116]
	call	eax
	movzx	ecx, al
	mov	ecx, DWORD PTR ?TeamInfo@@3PAPAVTeamClass@@A[ecx*4]
	call	?GetColor@TeamClass@@QAEHXZ		; TeamClass::GetColor
	push	eax
	mov	edx, DWORD PTR _theMover$[ebp]
	mov	ecx, DWORD PTR [edx+332]
	call	?Label@DrawableBSP@@QAEPADXZ		; DrawableBSP::Label
	push	eax
	lea	eax, DWORD PTR $T8[ebp]
	push	eax
	mov	ecx, DWORD PTR _theMover$[ebp]
	call	?Id@VuEntity@@QBE?AVVU_ID@@XZ		; VuEntity::Id
	mov	ecx, DWORD PTR [eax+4]
	push	ecx
	mov	edx, DWORD PTR [eax]
	push	edx
	mov	ecx, DWORD PTR ?ACMIIDTable@@3PAVACMI_Hash@@A ; ACMIIDTable
	call	?Add@ACMI_Hash@@QAEJVVU_ID@@PADJ@Z	; ACMI_Hash::Add
	mov	DWORD PTR _airPos$[ebp+9], eax

; 1885 : 			// remove			_mbsnbcpy((unsigned char*)airPos.data.label, (unsigned char *)((DrawableBSP*)(theMover->drawPointer))->Label(), ACMI_LABEL_LEN - 1);
; 1886 : 			// remove			airPos.data.teamColor = TeamInfo[theMover->GetTeam()]->GetColor();
; 1887 : 			airPos.data.x = theMover->XPos();

	mov	ecx, DWORD PTR _theMover$[ebp]
	call	?XPos@VuEntity@@QBEMXZ			; VuEntity::XPos
	fstp	DWORD PTR _airPos$[ebp+13]

; 1888 : 			airPos.data.y = theMover->YPos();

	mov	ecx, DWORD PTR _theMover$[ebp]
	call	?YPos@VuEntity@@QBEMXZ			; VuEntity::YPos
	fstp	DWORD PTR _airPos$[ebp+17]

; 1889 : 			airPos.data.z = theMover->ZPos();

	mov	ecx, DWORD PTR _theMover$[ebp]
	call	?ZPos@VuEntity@@QBEMXZ			; VuEntity::ZPos
	fstp	DWORD PTR _airPos$[ebp+21]

; 1890 : 			airPos.data.roll = theMover->Roll();

	mov	ecx, DWORD PTR _theMover$[ebp]
	call	?Roll@VuEntity@@QBEMXZ			; VuEntity::Roll
	fstp	DWORD PTR _airPos$[ebp+33]

; 1891 : 			airPos.data.pitch = theMover->Pitch();

	mov	ecx, DWORD PTR _theMover$[ebp]
	call	?Pitch@VuEntity@@QBEMXZ			; VuEntity::Pitch
	fstp	DWORD PTR _airPos$[ebp+29]

; 1892 : 			airPos.data.yaw = theMover->Yaw();

	mov	ecx, DWORD PTR _theMover$[ebp]
	call	?Yaw@VuEntity@@QBEMXZ			; VuEntity::Yaw
	fstp	DWORD PTR _airPos$[ebp+25]

; 1893 : 			RadarClass *radar = (RadarClass*)FindSensor( theMover, SensorClass::Radar );

	push	1
	mov	eax, DWORD PTR _theMover$[ebp]
	push	eax
	call	?FindSensor@@YAPAVSensorClass@@PAVSimMoverClass@@H@Z ; FindSensor
	add	esp, 8
	mov	DWORD PTR _radar$18[ebp], eax

; 1894 : #if NO_REMOTE_BUGGED_TARGET
; 1895 : 			if ( radar && radar->CurrentTarget()){

	cmp	DWORD PTR _radar$18[ebp], 0
	je	SHORT $LN13@InitACMIRe
	mov	ecx, DWORD PTR _radar$18[ebp]
	call	?CurrentTarget@SensorClass@@QAEPAVSimObjectType@@XZ ; SensorClass::CurrentTarget
	test	eax, eax
	je	SHORT $LN13@InitACMIRe

; 1896 : 				airPos.RadarTarget = ACMIIDTable->Add(radar->CurrentTarget()->BaseData()->Id(),NULL,0);//.num_;

	push	0
	push	0
	lea	ecx, DWORD PTR $T6[ebp]
	push	ecx
	mov	ecx, DWORD PTR _radar$18[ebp]
	call	?CurrentTarget@SensorClass@@QAEPAVSimObjectType@@XZ ; SensorClass::CurrentTarget
	mov	ecx, eax
	call	?BaseData@SimObjectType@@QAEPAVFalconEntity@@XZ ; SimObjectType::BaseData
	mov	ecx, eax
	call	?Id@VuEntity@@QBE?AVVU_ID@@XZ		; VuEntity::Id
	mov	edx, DWORD PTR [eax+4]
	push	edx
	mov	eax, DWORD PTR [eax]
	push	eax
	mov	ecx, DWORD PTR ?ACMIIDTable@@3PAVACMI_Hash@@A ; ACMIIDTable
	call	?Add@ACMI_Hash@@QAEJVVU_ID@@PADJ@Z	; ACMI_Hash::Add
	mov	DWORD PTR _airPos$[ebp+37], eax

; 1897 : 			}
; 1898 : #else
; 1899 : 			if (  radar && radar->RemoteBuggedTarget){
; 1900 : 				//me123 add record for online targets
; 1901 : 				airPos.RadarTarget = ACMIIDTable->Add(radar->RemoteBuggedTarget->Id(),NULL,0);//.num_;
; 1902 : 			}
; 1903 : 			else if ( radar && radar->CurrentTarget()){
; 1904 : 				airPos.RadarTarget = ACMIIDTable->Add(radar->CurrentTarget()->BaseData()->Id(),NULL,0);//.num_;
; 1905 : 			}
; 1906 : #endif
; 1907 : 			else {

	jmp	SHORT $LN12@InitACMIRe
$LN13@InitACMIRe:

; 1908 : 				airPos.RadarTarget = -1;

	mov	DWORD PTR _airPos$[ebp+37], -1
$LN12@InitACMIRe:

; 1909 : 			}
; 1910 : 			gACMIRec.AircraftPositionRecord( &airPos );

	lea	ecx, DWORD PTR _airPos$[ebp]
	push	ecx
	mov	ecx, OFFSET ?gACMIRec@@3VACMIRecorder@@A ; gACMIRec
	call	?AircraftPositionRecord@ACMIRecorder@@QAEXPAUACMIAircraftPositionRecord@@@Z ; ACMIRecorder::AircraftPositionRecord

; 1911 : 
; 1912 : 			// now we need to save the switches
; 1913 : 			numSwitches = theMover->GetNumSwitches();

	mov	ecx, DWORD PTR _theMover$[ebp]
	call	?GetNumSwitches@SimMoverClass@@QAEHXZ	; SimMoverClass::GetNumSwitches
	mov	DWORD PTR _numSwitches$[ebp], eax

; 1914 : 			for ( i = 0; i < numSwitches; i++ )

	mov	DWORD PTR _i$[ebp], 0
	jmp	SHORT $LN11@InitACMIRe
$LN10@InitACMIRe:
	mov	edx, DWORD PTR _i$[ebp]
	add	edx, 1
	mov	DWORD PTR _i$[ebp], edx
$LN11@InitACMIRe:
	mov	eax, DWORD PTR _i$[ebp]
	cmp	eax, DWORD PTR _numSwitches$[ebp]
	jge	$LN9@InitACMIRe

; 1915 : 			{
; 1916 : 				switchRec.hdr.time = SimLibElapsedTime * MSEC_TO_SEC + OTWDriver.todOffset;

	mov	ecx, DWORD PTR ?SimLibElapsedTime@@3KA	; SimLibElapsedTime
	mov	DWORD PTR tv1390[ebp], ecx
	cvtsi2sd xmm0, DWORD PTR tv1390[ebp]
	mov	edx, DWORD PTR tv1390[ebp]
	shr	edx, 31					; 0000001fH
	addsd	xmm0, QWORD PTR __xmm@41f00000000000000000000000000000[edx*8]
	movsd	QWORD PTR tv1394[ebp], xmm0
	cvtsd2ss xmm0, QWORD PTR tv1394[ebp]
	mulss	xmm0, DWORD PTR __real@3a83126f
	addss	xmm0, DWORD PTR ?OTWDriver@@3VOTWDriverClass@@A+32052
	movss	DWORD PTR _switchRec$[ebp+1], xmm0

; 1917 : 				switchRec.data.type = theMover->Type();

	mov	ecx, DWORD PTR _theMover$[ebp]
	call	?Type@VuEntity@@QBEGXZ			; VuEntity::Type
	movzx	eax, ax
	mov	DWORD PTR _switchRec$[ebp+5], eax

; 1918 : 				switchRec.data.uniqueID = ACMIIDTable->Add(theMover->Id(),NULL,0);//.num_;

	push	0
	push	0
	lea	ecx, DWORD PTR $T4[ebp]
	push	ecx
	mov	ecx, DWORD PTR _theMover$[ebp]
	call	?Id@VuEntity@@QBE?AVVU_ID@@XZ		; VuEntity::Id
	mov	edx, DWORD PTR [eax+4]
	push	edx
	mov	eax, DWORD PTR [eax]
	push	eax
	mov	ecx, DWORD PTR ?ACMIIDTable@@3PAVACMI_Hash@@A ; ACMIIDTable
	call	?Add@ACMI_Hash@@QAEJVVU_ID@@PADJ@Z	; ACMI_Hash::Add
	mov	DWORD PTR _switchRec$[ebp+9], eax

; 1919 : 				switchRec.data.switchNum = i;

	mov	ecx, DWORD PTR _i$[ebp]
	mov	DWORD PTR _switchRec$[ebp+13], ecx

; 1920 : 				switchRec.data.switchVal = 
; 1921 : 					switchRec.data.prevSwitchVal = theMover->GetSwitch( i );

	mov	edx, DWORD PTR _i$[ebp]
	push	edx
	mov	ecx, DWORD PTR _theMover$[ebp]
	call	?GetSwitch@SimMoverClass@@QAEHH@Z	; SimMoverClass::GetSwitch
	mov	DWORD PTR _switchRec$[ebp+21], eax
	mov	eax, DWORD PTR _switchRec$[ebp+21]
	mov	DWORD PTR _switchRec$[ebp+17], eax

; 1922 : 				gACMIRec.SwitchRecord( &switchRec );

	lea	ecx, DWORD PTR _switchRec$[ebp]
	push	ecx
	mov	ecx, OFFSET ?gACMIRec@@3VACMIRecorder@@A ; gACMIRec
	call	?SwitchRecord@ACMIRecorder@@QAEXPAUACMISwitchRecord@@@Z ; ACMIRecorder::SwitchRecord

; 1923 : 			}

	jmp	$LN10@InitACMIRe
$LN9@InitACMIRe:

; 1924 : 
; 1925 : 			// now we need to save the dofs
; 1926 : 			numSwitches = theMover->GetNumDOFs();

	mov	ecx, DWORD PTR _theMover$[ebp]
	call	?GetNumDOFs@SimMoverClass@@QAEHXZ	; SimMoverClass::GetNumDOFs
	mov	DWORD PTR _numSwitches$[ebp], eax

; 1927 : 			for ( i = 0; i < numSwitches; i++ )

	mov	DWORD PTR _i$[ebp], 0
	jmp	SHORT $LN8@InitACMIRe
$LN7@InitACMIRe:
	mov	edx, DWORD PTR _i$[ebp]
	add	edx, 1
	mov	DWORD PTR _i$[ebp], edx
$LN8@InitACMIRe:
	mov	eax, DWORD PTR _i$[ebp]
	cmp	eax, DWORD PTR _numSwitches$[ebp]
	jge	$LN6@InitACMIRe

; 1928 : 			{
; 1929 : 				DOFRec.hdr.time = SimLibElapsedTime * MSEC_TO_SEC + OTWDriver.todOffset;

	mov	ecx, DWORD PTR ?SimLibElapsedTime@@3KA	; SimLibElapsedTime
	mov	DWORD PTR tv1416[ebp], ecx
	cvtsi2sd xmm0, DWORD PTR tv1416[ebp]
	mov	edx, DWORD PTR tv1416[ebp]
	shr	edx, 31					; 0000001fH
	addsd	xmm0, QWORD PTR __xmm@41f00000000000000000000000000000[edx*8]
	movsd	QWORD PTR tv1420[ebp], xmm0
	cvtsd2ss xmm0, QWORD PTR tv1420[ebp]
	mulss	xmm0, DWORD PTR __real@3a83126f
	addss	xmm0, DWORD PTR ?OTWDriver@@3VOTWDriverClass@@A+32052
	movss	DWORD PTR _DOFRec$[ebp+1], xmm0

; 1930 : 				DOFRec.data.type = theMover->Type();

	mov	ecx, DWORD PTR _theMover$[ebp]
	call	?Type@VuEntity@@QBEGXZ			; VuEntity::Type
	movzx	eax, ax
	mov	DWORD PTR _DOFRec$[ebp+5], eax

; 1931 : 				DOFRec.data.uniqueID = ACMIIDTable->Add(theMover->Id(),NULL,0);//.num_;

	push	0
	push	0
	lea	ecx, DWORD PTR $T2[ebp]
	push	ecx
	mov	ecx, DWORD PTR _theMover$[ebp]
	call	?Id@VuEntity@@QBE?AVVU_ID@@XZ		; VuEntity::Id
	mov	edx, DWORD PTR [eax+4]
	push	edx
	mov	eax, DWORD PTR [eax]
	push	eax
	mov	ecx, DWORD PTR ?ACMIIDTable@@3PAVACMI_Hash@@A ; ACMIIDTable
	call	?Add@ACMI_Hash@@QAEJVVU_ID@@PADJ@Z	; ACMI_Hash::Add
	mov	DWORD PTR _DOFRec$[ebp+9], eax

; 1932 : 				DOFRec.data.DOFNum = i;

	mov	ecx, DWORD PTR _i$[ebp]
	mov	DWORD PTR _DOFRec$[ebp+13], ecx

; 1933 : 				DOFRec.data.DOFVal =
; 1934 : 					DOFRec.data.prevDOFVal = theMover->GetDOFValue( i );

	mov	edx, DWORD PTR _i$[ebp]
	push	edx
	mov	ecx, DWORD PTR _theMover$[ebp]
	call	?GetDOFValue@SimMoverClass@@QAEMH@Z	; SimMoverClass::GetDOFValue
	fstp	DWORD PTR _DOFRec$[ebp+21]
	movss	xmm0, DWORD PTR _DOFRec$[ebp+21]
	movss	DWORD PTR _DOFRec$[ebp+17], xmm0

; 1935 : 				gACMIRec.DOFRecord( &DOFRec );

	lea	eax, DWORD PTR _DOFRec$[ebp]
	push	eax
	mov	ecx, OFFSET ?gACMIRec@@3VACMIRecorder@@A ; gACMIRec
	call	?DOFRecord@ACMIRecorder@@QAEXPAUACMIDOFRecord@@@Z ; ACMIRecorder::DOFRecord

; 1936 : 			}

	jmp	$LN7@InitACMIRe
$LN6@InitACMIRe:

; 1937 : 		}
; 1938 : 
; 1939 : 		// everything else (helos, ground vehicles...)
; 1940 : 		else

	jmp	$LN5@InitACMIRe
$LN14@InitACMIRe:

; 1941 : 		{
; 1942 : 			genPos.hdr.time = SimLibElapsedTime * MSEC_TO_SEC + OTWDriver.todOffset;

	mov	ecx, DWORD PTR ?SimLibElapsedTime@@3KA	; SimLibElapsedTime
	mov	DWORD PTR tv1440[ebp], ecx
	cvtsi2sd xmm0, DWORD PTR tv1440[ebp]
	mov	edx, DWORD PTR tv1440[ebp]
	shr	edx, 31					; 0000001fH
	addsd	xmm0, QWORD PTR __xmm@41f00000000000000000000000000000[edx*8]
	movsd	QWORD PTR tv1444[ebp], xmm0
	cvtsd2ss xmm0, QWORD PTR tv1444[ebp]
	mulss	xmm0, DWORD PTR __real@3a83126f
	addss	xmm0, DWORD PTR ?OTWDriver@@3VOTWDriverClass@@A+32052
	movss	DWORD PTR _genPos$[ebp+1], xmm0

; 1943 : 			genPos.data.type = theMover->Type();

	mov	ecx, DWORD PTR _theMover$[ebp]
	call	?Type@VuEntity@@QBEGXZ			; VuEntity::Type
	movzx	eax, ax
	mov	DWORD PTR _genPos$[ebp+5], eax

; 1944 : 			genPos.data.uniqueID = ACMIIDTable->Add(theMover->Id(),NULL,TeamInfo[theMover->GetTeam()]->GetColor());//.num_;

	mov	ecx, DWORD PTR _theMover$[ebp]
	mov	edx, DWORD PTR [ecx]
	mov	ecx, DWORD PTR _theMover$[ebp]
	mov	eax, DWORD PTR [edx+116]
	call	eax
	movzx	ecx, al
	mov	ecx, DWORD PTR ?TeamInfo@@3PAPAVTeamClass@@A[ecx*4]
	call	?GetColor@TeamClass@@QAEHXZ		; TeamClass::GetColor
	push	eax
	push	0
	lea	edx, DWORD PTR $T15[ebp]
	push	edx
	mov	ecx, DWORD PTR _theMover$[ebp]
	call	?Id@VuEntity@@QBE?AVVU_ID@@XZ		; VuEntity::Id
	mov	ecx, DWORD PTR [eax+4]
	push	ecx
	mov	edx, DWORD PTR [eax]
	push	edx
	mov	ecx, DWORD PTR ?ACMIIDTable@@3PAVACMI_Hash@@A ; ACMIIDTable
	call	?Add@ACMI_Hash@@QAEJVVU_ID@@PADJ@Z	; ACMI_Hash::Add
	mov	DWORD PTR _genPos$[ebp+9], eax

; 1945 : 			genPos.data.x = theMover->XPos();

	mov	ecx, DWORD PTR _theMover$[ebp]
	call	?XPos@VuEntity@@QBEMXZ			; VuEntity::XPos
	fstp	DWORD PTR _genPos$[ebp+13]

; 1946 : 			genPos.data.y = theMover->YPos();

	mov	ecx, DWORD PTR _theMover$[ebp]
	call	?YPos@VuEntity@@QBEMXZ			; VuEntity::YPos
	fstp	DWORD PTR _genPos$[ebp+17]

; 1947 : 			genPos.data.z = theMover->ZPos();

	mov	ecx, DWORD PTR _theMover$[ebp]
	call	?ZPos@VuEntity@@QBEMXZ			; VuEntity::ZPos
	fstp	DWORD PTR _genPos$[ebp+21]

; 1948 : 			genPos.data.roll = theMover->Roll();

	mov	ecx, DWORD PTR _theMover$[ebp]
	call	?Roll@VuEntity@@QBEMXZ			; VuEntity::Roll
	fstp	DWORD PTR _genPos$[ebp+33]

; 1949 : 			genPos.data.pitch = theMover->Pitch();

	mov	ecx, DWORD PTR _theMover$[ebp]
	call	?Pitch@VuEntity@@QBEMXZ			; VuEntity::Pitch
	fstp	DWORD PTR _genPos$[ebp+29]

; 1950 : 			genPos.data.yaw = theMover->Yaw();

	mov	ecx, DWORD PTR _theMover$[ebp]
	call	?Yaw@VuEntity@@QBEMXZ			; VuEntity::Yaw
	fstp	DWORD PTR _genPos$[ebp+25]

; 1951 : 			// remove			genPos.data.teamColor = TeamInfo[theMover->GetTeam()]->GetColor();
; 1952 : 			gACMIRec.GenPositionRecord( &genPos );

	lea	eax, DWORD PTR _genPos$[ebp]
	push	eax
	mov	ecx, OFFSET ?gACMIRec@@3VACMIRecorder@@A ; gACMIRec
	call	?GenPositionRecord@ACMIRecorder@@QAEXPAUACMIGenPositionRecord@@@Z ; ACMIRecorder::GenPositionRecord
$LN5@InitACMIRe:

; 1953 : 		}
; 1954 : 
; 1955 : 		// next one in the loop
; 1956 : 		theMover = (SimMoverClass*)objectWalker.GetNext();

	lea	ecx, DWORD PTR _objectWalker$[ebp]
	call	?GetNext@VuListIterator@@QAEPAVVuEntity@@XZ ; VuListIterator::GetNext
	mov	DWORD PTR _theMover$[ebp], eax

; 1957 : 	}

	jmp	$LN40@InitACMIRe
$LN24@InitACMIRe:

; 1958 : 
; 1959 : 	// Do Each feature 
; 1960 : 	theObject = (SimFeatureClass*)featureWalker.GetFirst();

	lea	ecx, DWORD PTR _featureWalker$[ebp]
	call	?GetFirst@VuListIterator@@QAEPAVVuEntity@@XZ ; VuListIterator::GetFirst
	mov	DWORD PTR _theObject$[ebp], eax
$LN4@InitACMIRe:

; 1961 : 	while (theObject)

	cmp	DWORD PTR _theObject$[ebp], 0
	je	$LN3@InitACMIRe

; 1962 : 	{
; 1963 : 		featPos.hdr.time = SimLibElapsedTime * MSEC_TO_SEC + OTWDriver.todOffset;

	mov	ecx, DWORD PTR ?SimLibElapsedTime@@3KA	; SimLibElapsedTime
	mov	DWORD PTR tv1477[ebp], ecx
	cvtsi2sd xmm0, DWORD PTR tv1477[ebp]
	mov	edx, DWORD PTR tv1477[ebp]
	shr	edx, 31					; 0000001fH
	addsd	xmm0, QWORD PTR __xmm@41f00000000000000000000000000000[edx*8]
	movsd	QWORD PTR tv1481[ebp], xmm0
	cvtsd2ss xmm0, QWORD PTR tv1481[ebp]
	mulss	xmm0, DWORD PTR __real@3a83126f
	addss	xmm0, DWORD PTR ?OTWDriver@@3VOTWDriverClass@@A+32052
	movss	DWORD PTR _featPos$[ebp+1], xmm0

; 1964 : 		featPos.data.type = theObject->Type();

	mov	ecx, DWORD PTR _theObject$[ebp]
	call	?Type@VuEntity@@QBEGXZ			; VuEntity::Type
	movzx	eax, ax
	mov	DWORD PTR _featPos$[ebp+5], eax

; 1965 : 		featPos.data.uniqueID = ACMIIDTable->Add(theObject->Id(),NULL,0);//.num_;

	push	0
	push	0
	lea	ecx, DWORD PTR $T17[ebp]
	push	ecx
	mov	ecx, DWORD PTR _theObject$[ebp]
	call	?Id@VuEntity@@QBE?AVVU_ID@@XZ		; VuEntity::Id
	mov	edx, DWORD PTR [eax+4]
	push	edx
	mov	eax, DWORD PTR [eax]
	push	eax
	mov	ecx, DWORD PTR ?ACMIIDTable@@3PAVACMI_Hash@@A ; ACMIIDTable
	call	?Add@ACMI_Hash@@QAEJVVU_ID@@PADJ@Z	; ACMI_Hash::Add
	mov	DWORD PTR _featPos$[ebp+9], eax

; 1966 : 		featPos.data.x = theObject->XPos();

	mov	ecx, DWORD PTR _theObject$[ebp]
	call	?XPos@VuEntity@@QBEMXZ			; VuEntity::XPos
	fstp	DWORD PTR _featPos$[ebp+25]

; 1967 : 		featPos.data.y = theObject->YPos();

	mov	ecx, DWORD PTR _theObject$[ebp]
	call	?YPos@VuEntity@@QBEMXZ			; VuEntity::YPos
	fstp	DWORD PTR _featPos$[ebp+29]

; 1968 : 		featPos.data.z = theObject->ZPos();

	mov	ecx, DWORD PTR _theObject$[ebp]
	call	?ZPos@VuEntity@@QBEMXZ			; VuEntity::ZPos
	fstp	DWORD PTR _featPos$[ebp+33]

; 1969 : 		featPos.data.roll = theObject->Roll();

	mov	ecx, DWORD PTR _theObject$[ebp]
	call	?Roll@VuEntity@@QBEMXZ			; VuEntity::Roll
	fstp	DWORD PTR _featPos$[ebp+45]

; 1970 : 		featPos.data.pitch = theObject->Pitch();

	mov	ecx, DWORD PTR _theObject$[ebp]
	call	?Pitch@VuEntity@@QBEMXZ			; VuEntity::Pitch
	fstp	DWORD PTR _featPos$[ebp+41]

; 1971 : 		featPos.data.yaw = theObject->Yaw();

	mov	ecx, DWORD PTR _theObject$[ebp]
	call	?Yaw@VuEntity@@QBEMXZ			; VuEntity::Yaw
	fstp	DWORD PTR _featPos$[ebp+37]

; 1972 : 		featPos.data.slot = theObject->GetSlot();

	mov	ecx, DWORD PTR _theObject$[ebp]
	call	?GetSlot@SimBaseClass@@QAEHXZ		; SimBaseClass::GetSlot
	mov	DWORD PTR _featPos$[ebp+17], eax

; 1973 : 		featPos.data.specialFlags = theObject->featureFlags;

	mov	ecx, DWORD PTR _theObject$[ebp]
	mov	edx, DWORD PTR [ecx+600]
	mov	DWORD PTR _featPos$[ebp+21], edx

; 1974 : 		leadObject = theObject->GetCampaignObject()->GetComponentLead();

	mov	ecx, DWORD PTR _theObject$[ebp]
	call	?GetCampaignObject@SimBaseClass@@QAEPAVCampBaseClass@@XZ ; SimBaseClass::GetCampaignObject
	mov	ecx, eax
	call	?GetComponentLead@CampBaseClass@@QAEPAVSimBaseClass@@XZ ; CampBaseClass::GetComponentLead
	mov	DWORD PTR _leadObject$[ebp], eax

; 1975 : 		if ( leadObject && leadObject->Id().num_ != theObject->Id().num_ )

	cmp	DWORD PTR _leadObject$[ebp], 0
	je	SHORT $LN2@InitACMIRe
	lea	eax, DWORD PTR $T13[ebp]
	push	eax
	mov	ecx, DWORD PTR _leadObject$[ebp]
	call	?Id@VuEntity@@QBE?AVVU_ID@@XZ		; VuEntity::Id
	mov	esi, eax
	lea	ecx, DWORD PTR $T7[ebp]
	push	ecx
	mov	ecx, DWORD PTR _theObject$[ebp]
	call	?Id@VuEntity@@QBE?AVVU_ID@@XZ		; VuEntity::Id
	mov	edx, DWORD PTR [esi]
	cmp	edx, DWORD PTR [eax]
	je	SHORT $LN2@InitACMIRe

; 1976 : 			featPos.data.leadUniqueID = ACMIIDTable->Add(leadObject->Id(),NULL,0);//.num_;

	push	0
	push	0
	lea	eax, DWORD PTR $T11[ebp]
	push	eax
	mov	ecx, DWORD PTR _leadObject$[ebp]
	call	?Id@VuEntity@@QBE?AVVU_ID@@XZ		; VuEntity::Id
	mov	ecx, DWORD PTR [eax+4]
	push	ecx
	mov	edx, DWORD PTR [eax]
	push	edx
	mov	ecx, DWORD PTR ?ACMIIDTable@@3PAVACMI_Hash@@A ; ACMIIDTable
	call	?Add@ACMI_Hash@@QAEJVVU_ID@@PADJ@Z	; ACMI_Hash::Add
	mov	DWORD PTR _featPos$[ebp+13], eax

; 1977 : 		else

	jmp	SHORT $LN1@InitACMIRe
$LN2@InitACMIRe:

; 1978 : 			featPos.data.leadUniqueID = -1;

	mov	DWORD PTR _featPos$[ebp+13], -1
$LN1@InitACMIRe:

; 1979 : 		gACMIRec.FeaturePositionRecord( &featPos );

	lea	eax, DWORD PTR _featPos$[ebp]
	push	eax
	mov	ecx, OFFSET ?gACMIRec@@3VACMIRecorder@@A ; gACMIRec
	call	?FeaturePositionRecord@ACMIRecorder@@QAEXPAUACMIFeaturePositionRecord@@@Z ; ACMIRecorder::FeaturePositionRecord

; 1980 : 
; 1981 : 		// TODO: we'll probably need to write out what state it's in
; 1982 : 		// once ACMI supports state change events
; 1983 : 		featStat.hdr.time = SimLibElapsedTime * MSEC_TO_SEC + OTWDriver.todOffset;

	mov	ecx, DWORD PTR ?SimLibElapsedTime@@3KA	; SimLibElapsedTime
	mov	DWORD PTR tv1526[ebp], ecx
	cvtsi2sd xmm0, DWORD PTR tv1526[ebp]
	mov	edx, DWORD PTR tv1526[ebp]
	shr	edx, 31					; 0000001fH
	addsd	xmm0, QWORD PTR __xmm@41f00000000000000000000000000000[edx*8]
	movsd	QWORD PTR tv1530[ebp], xmm0
	cvtsd2ss xmm0, QWORD PTR tv1530[ebp]
	mulss	xmm0, DWORD PTR __real@3a83126f
	addss	xmm0, DWORD PTR ?OTWDriver@@3VOTWDriverClass@@A+32052
	movss	DWORD PTR _featStat$[ebp+1], xmm0

; 1984 : 		featStat.data.uniqueID = ACMIIDTable->Add(theObject->Id(),NULL,0);//.num_;

	push	0
	push	0
	lea	eax, DWORD PTR $T3[ebp]
	push	eax
	mov	ecx, DWORD PTR _theObject$[ebp]
	call	?Id@VuEntity@@QBE?AVVU_ID@@XZ		; VuEntity::Id
	mov	ecx, DWORD PTR [eax+4]
	push	ecx
	mov	edx, DWORD PTR [eax]
	push	edx
	mov	ecx, DWORD PTR ?ACMIIDTable@@3PAVACMI_Hash@@A ; ACMIIDTable
	call	?Add@ACMI_Hash@@QAEJVVU_ID@@PADJ@Z	; ACMI_Hash::Add
	mov	DWORD PTR _featStat$[ebp+5], eax

; 1985 : 		featStat.data.newStatus = (theObject->Status() & VIS_TYPE_MASK);

	mov	ecx, DWORD PTR _theObject$[ebp]
	call	?Status@SimBaseClass@@QBEHXZ		; SimBaseClass::Status
	and	eax, 7
	mov	DWORD PTR _featStat$[ebp+9], eax

; 1986 : 		featStat.data.prevStatus = (theObject->Status() & VIS_TYPE_MASK);

	mov	ecx, DWORD PTR _theObject$[ebp]
	call	?Status@SimBaseClass@@QBEHXZ		; SimBaseClass::Status
	and	eax, 7
	mov	DWORD PTR _featStat$[ebp+13], eax

; 1987 : 		gACMIRec.FeatureStatusRecord( &featStat );

	lea	eax, DWORD PTR _featStat$[ebp]
	push	eax
	mov	ecx, OFFSET ?gACMIRec@@3VACMIRecorder@@A ; gACMIRec
	call	?FeatureStatusRecord@ACMIRecorder@@QAEXPAUACMIFeatureStatusRecord@@@Z ; ACMIRecorder::FeatureStatusRecord

; 1988 : 
; 1989 : 		// next one in the loop
; 1990 : 		theObject = (SimFeatureClass*)featureWalker.GetNext();

	lea	ecx, DWORD PTR _featureWalker$[ebp]
	call	?GetNext@VuListIterator@@QAEPAVVuEntity@@XZ ; VuListIterator::GetNext
	mov	DWORD PTR _theObject$[ebp], eax

; 1991 : 	}

	jmp	$LN4@InitACMIRe
$LN3@InitACMIRe:

; 1992 : 
; 1993 : }

	mov	BYTE PTR __$EHRec$[ebp+8], 0
	lea	ecx, DWORD PTR _featureWalker$[ebp]
	call	??1VuListIterator@@UAE@XZ		; VuListIterator::~VuListIterator
	mov	DWORD PTR __$EHRec$[ebp+8], -1
	lea	ecx, DWORD PTR _objectWalker$[ebp]
	call	??1VuListIterator@@UAE@XZ		; VuListIterator::~VuListIterator
	mov	ecx, DWORD PTR __$EHRec$[ebp]
	mov	DWORD PTR fs:0, ecx
	pop	ecx
	pop	esi
	mov	ecx, DWORD PTR __$ArrayPad$[ebp]
	xor	ecx, ebp
	call	@__security_check_cookie@4
	mov	esp, ebp
	pop	ebp
	ret	0
_TEXT	ENDS
text$x	SEGMENT
__unwindfunclet$?InitACMIRecord@SimulationDriver@@QAEXXZ$0:
	lea	ecx, DWORD PTR _objectWalker$[ebp]
	jmp	??1VuListIterator@@UAE@XZ		; VuListIterator::~VuListIterator
__unwindfunclet$?InitACMIRecord@SimulationDriver@@QAEXXZ$1:
	lea	ecx, DWORD PTR _featureWalker$[ebp]
	jmp	??1VuListIterator@@UAE@XZ		; VuListIterator::~VuListIterator
__ehhandler$?InitACMIRecord@SimulationDriver@@QAEXXZ:
	mov	edx, DWORD PTR [esp+8]
	lea	eax, DWORD PTR [edx+12]
	mov	ecx, DWORD PTR [edx-588]
	xor	ecx, eax
	call	@__security_check_cookie@4
	mov	ecx, DWORD PTR [edx-4]
	xor	ecx, eax
	call	@__security_check_cookie@4
	mov	eax, OFFSET __ehfuncinfo$?InitACMIRecord@SimulationDriver@@QAEXXZ
	jmp	___CxxFrameHandler3
text$x	ENDS
?InitACMIRecord@SimulationDriver@@QAEXXZ ENDP		; SimulationDriver::InitACMIRecord
; Function compile flags: /Odtp
; File c:\users\zhitao li\documents\visual studio 2012\projects\freefalcon\sim\simdrive\simdrive.cpp
_TEXT	SEGMENT
_this$ = -4						; size = 4
_theObject$ = 8						; size = 4
?RemoveFromCampFeatList@SimulationDriver@@QAEXPAVVuEntity@@@Z PROC ; SimulationDriver::RemoveFromCampFeatList
; _this$ = ecx

; 2228 : {

	push	ebp
	mov	ebp, esp
	push	ecx
	mov	DWORD PTR _this$[ebp], ecx

; 2229 : 	campObjList->Remove(theObject);

	mov	eax, DWORD PTR _theObject$[ebp]
	push	eax
	mov	ecx, DWORD PTR _this$[ebp]
	mov	ecx, DWORD PTR [ecx+12]
	call	?Remove@VuCollection@@QAEHPAVVuEntity@@@Z ; VuCollection::Remove

; 2230 : 	combinedFeatureList->Remove(theObject);

	mov	edx, DWORD PTR _theObject$[ebp]
	push	edx
	mov	eax, DWORD PTR _this$[ebp]
	mov	ecx, DWORD PTR [eax+20]
	call	?Remove@VuCollection@@QAEHPAVVuEntity@@@Z ; VuCollection::Remove

; 2231 : }

	mov	esp, ebp
	pop	ebp
	ret	4
?RemoveFromCampFeatList@SimulationDriver@@QAEXPAVVuEntity@@@Z ENDP ; SimulationDriver::RemoveFromCampFeatList
_TEXT	ENDS
; Function compile flags: /Odtp
; File c:\users\zhitao li\documents\visual studio 2012\projects\freefalcon\sim\simdrive\simdrive.cpp
_TEXT	SEGMENT
_this$ = -4						; size = 4
_theObject$ = 8						; size = 4
?RemoveFromCampUnitList@SimulationDriver@@QAEXPAVVuEntity@@@Z PROC ; SimulationDriver::RemoveFromCampUnitList
; _this$ = ecx

; 2221 : {

	push	ebp
	mov	ebp, esp
	push	ecx
	mov	DWORD PTR _this$[ebp], ecx

; 2222 : 	campUnitList->Remove(theObject);

	mov	eax, DWORD PTR _theObject$[ebp]
	push	eax
	mov	ecx, DWORD PTR _this$[ebp]
	mov	ecx, DWORD PTR [ecx+8]
	call	?Remove@VuCollection@@QAEHPAVVuEntity@@@Z ; VuCollection::Remove

; 2223 : 	combinedList->Remove(theObject);

	mov	edx, DWORD PTR _theObject$[ebp]
	push	edx
	mov	eax, DWORD PTR _this$[ebp]
	mov	ecx, DWORD PTR [eax+16]
	call	?Remove@VuCollection@@QAEHPAVVuEntity@@@Z ; VuCollection::Remove

; 2224 : 	// MonoPrint ("Removeing %d\n", theObject->Id().num_);
; 2225 : }

	mov	esp, ebp
	pop	ebp
	ret	4
?RemoveFromCampUnitList@SimulationDriver@@QAEXPAVVuEntity@@@Z ENDP ; SimulationDriver::RemoveFromCampUnitList
_TEXT	ENDS
; Function compile flags: /Odtp
; File c:\users\zhitao li\documents\visual studio 2012\projects\freefalcon\sim\simdrive\simdrive.cpp
_TEXT	SEGMENT
_this$ = -4						; size = 4
_theObject$ = 8						; size = 4
?RemoveFromObjectList@SimulationDriver@@QAEXPAVVuEntity@@@Z PROC ; SimulationDriver::RemoveFromObjectList
; _this$ = ecx

; 2215 : {

	push	ebp
	mov	ebp, esp
	push	ecx
	mov	DWORD PTR _this$[ebp], ecx

; 2216 : 	objectList->Remove(theObject);

	mov	eax, DWORD PTR _theObject$[ebp]
	push	eax
	mov	ecx, DWORD PTR _this$[ebp]
	mov	ecx, DWORD PTR [ecx]
	call	?Remove@VuCollection@@QAEHPAVVuEntity@@@Z ; VuCollection::Remove

; 2217 : 	combinedList->Remove(theObject);

	mov	edx, DWORD PTR _theObject$[ebp]
	push	edx
	mov	eax, DWORD PTR _this$[ebp]
	mov	ecx, DWORD PTR [eax+16]
	call	?Remove@VuCollection@@QAEHPAVVuEntity@@@Z ; VuCollection::Remove

; 2218 : }

	mov	esp, ebp
	pop	ebp
	ret	4
?RemoveFromObjectList@SimulationDriver@@QAEXPAVVuEntity@@@Z ENDP ; SimulationDriver::RemoveFromObjectList
_TEXT	ENDS
; Function compile flags: /Odtp
; File c:\users\zhitao li\documents\visual studio 2012\projects\freefalcon\sim\simdrive\simdrive.cpp
_TEXT	SEGMENT
_this$ = -4						; size = 4
_theObject$ = 8						; size = 4
?RemoveFromFeatureList@SimulationDriver@@QAEXPAVVuEntity@@@Z PROC ; SimulationDriver::RemoveFromFeatureList
; _this$ = ecx

; 2209 : {

	push	ebp
	mov	ebp, esp
	push	ecx
	mov	DWORD PTR _this$[ebp], ecx

; 2210 : 	featureList->Remove(theObject);

	mov	eax, DWORD PTR _theObject$[ebp]
	push	eax
	mov	ecx, DWORD PTR _this$[ebp]
	mov	ecx, DWORD PTR [ecx+4]
	call	?Remove@VuCollection@@QAEHPAVVuEntity@@@Z ; VuCollection::Remove

; 2211 : 	combinedFeatureList->Remove(theObject);

	mov	edx, DWORD PTR _theObject$[ebp]
	push	edx
	mov	eax, DWORD PTR _this$[ebp]
	mov	ecx, DWORD PTR [eax+20]
	call	?Remove@VuCollection@@QAEHPAVVuEntity@@@Z ; VuCollection::Remove

; 2212 : }

	mov	esp, ebp
	pop	ebp
	ret	4
?RemoveFromFeatureList@SimulationDriver@@QAEXPAVVuEntity@@@Z ENDP ; SimulationDriver::RemoveFromFeatureList
_TEXT	ENDS
; Function compile flags: /Odtp
; File c:\users\zhitao li\documents\visual studio 2012\projects\freefalcon\sim\simdrive\simdrive.cpp
_TEXT	SEGMENT
_this$ = -4						; size = 4
_theObject$ = 8						; size = 4
?AddToCombFeatList@SimulationDriver@@QAEXPAVVuEntity@@@Z PROC ; SimulationDriver::AddToCombFeatList
; _this$ = ecx

; 2203 : {

	push	ebp
	mov	ebp, esp
	push	ecx
	mov	DWORD PTR _this$[ebp], ecx

; 2204 : 	combinedFeatureList->ForcedInsert(theObject);

	mov	eax, DWORD PTR _theObject$[ebp]
	push	eax
	mov	ecx, DWORD PTR _this$[ebp]
	mov	ecx, DWORD PTR [ecx+20]
	call	?ForcedInsert@FalconPrivateOrderedList@@QAEHPAVVuEntity@@@Z ; FalconPrivateOrderedList::ForcedInsert

; 2205 : }

	mov	esp, ebp
	pop	ebp
	ret	4
?AddToCombFeatList@SimulationDriver@@QAEXPAVVuEntity@@@Z ENDP ; SimulationDriver::AddToCombFeatList
_TEXT	ENDS
; Function compile flags: /Odtp
; File c:\users\zhitao li\documents\visual studio 2012\projects\freefalcon\sim\simdrive\simdrive.cpp
_TEXT	SEGMENT
_this$ = -4						; size = 4
_theObject$ = 8						; size = 4
?AddToCombUnitList@SimulationDriver@@QAEXPAVVuEntity@@@Z PROC ; SimulationDriver::AddToCombUnitList
; _this$ = ecx

; 2198 : {

	push	ebp
	mov	ebp, esp
	push	ecx
	mov	DWORD PTR _this$[ebp], ecx

; 2199 : 	combinedList->ForcedInsert(theObject);

	mov	eax, DWORD PTR _theObject$[ebp]
	push	eax
	mov	ecx, DWORD PTR _this$[ebp]
	mov	ecx, DWORD PTR [ecx+16]
	call	?ForcedInsert@FalconPrivateOrderedList@@QAEHPAVVuEntity@@@Z ; FalconPrivateOrderedList::ForcedInsert

; 2200 : }

	mov	esp, ebp
	pop	ebp
	ret	4
?AddToCombUnitList@SimulationDriver@@QAEXPAVVuEntity@@@Z ENDP ; SimulationDriver::AddToCombUnitList
_TEXT	ENDS
; Function compile flags: /Odtp
; File c:\users\zhitao li\documents\visual studio 2012\projects\freefalcon\sim\simdrive\simdrive.cpp
_TEXT	SEGMENT
_this$ = -4						; size = 4
_theObject$ = 8						; size = 4
?AddToCampFeatList@SimulationDriver@@QAEXPAVVuEntity@@@Z PROC ; SimulationDriver::AddToCampFeatList
; _this$ = ecx

; 2192 : {

	push	ebp
	mov	ebp, esp
	push	ecx
	mov	DWORD PTR _this$[ebp], ecx

; 2193 : 	campObjList->ForcedInsert(theObject);

	mov	eax, DWORD PTR _theObject$[ebp]
	push	eax
	mov	ecx, DWORD PTR _this$[ebp]
	mov	ecx, DWORD PTR [ecx+12]
	call	?ForcedInsert@FalconPrivateOrderedList@@QAEHPAVVuEntity@@@Z ; FalconPrivateOrderedList::ForcedInsert

; 2194 : 	combinedFeatureList->ForcedInsert(theObject);

	mov	edx, DWORD PTR _theObject$[ebp]
	push	edx
	mov	eax, DWORD PTR _this$[ebp]
	mov	ecx, DWORD PTR [eax+20]
	call	?ForcedInsert@FalconPrivateOrderedList@@QAEHPAVVuEntity@@@Z ; FalconPrivateOrderedList::ForcedInsert

; 2195 : }

	mov	esp, ebp
	pop	ebp
	ret	4
?AddToCampFeatList@SimulationDriver@@QAEXPAVVuEntity@@@Z ENDP ; SimulationDriver::AddToCampFeatList
_TEXT	ENDS
; Function compile flags: /Odtp
; File c:\users\zhitao li\documents\visual studio 2012\projects\freefalcon\sim\simdrive\simdrive.cpp
_TEXT	SEGMENT
_this$ = -4						; size = 4
_theObject$ = 8						; size = 4
?AddToCampUnitList@SimulationDriver@@QAEXPAVVuEntity@@@Z PROC ; SimulationDriver::AddToCampUnitList
; _this$ = ecx

; 2185 : {

	push	ebp
	mov	ebp, esp
	push	ecx
	mov	DWORD PTR _this$[ebp], ecx

; 2186 : 	campUnitList->ForcedInsert(theObject);

	mov	eax, DWORD PTR _theObject$[ebp]
	push	eax
	mov	ecx, DWORD PTR _this$[ebp]
	mov	ecx, DWORD PTR [ecx+8]
	call	?ForcedInsert@FalconPrivateOrderedList@@QAEHPAVVuEntity@@@Z ; FalconPrivateOrderedList::ForcedInsert

; 2187 : 	combinedList->ForcedInsert(theObject);

	mov	edx, DWORD PTR _theObject$[ebp]
	push	edx
	mov	eax, DWORD PTR _this$[ebp]
	mov	ecx, DWORD PTR [eax+16]
	call	?ForcedInsert@FalconPrivateOrderedList@@QAEHPAVVuEntity@@@Z ; FalconPrivateOrderedList::ForcedInsert

; 2188 : 	// MonoPrint ("Adding %d\n", theObject->Id().num_);
; 2189 : }

	mov	esp, ebp
	pop	ebp
	ret	4
?AddToCampUnitList@SimulationDriver@@QAEXPAVVuEntity@@@Z ENDP ; SimulationDriver::AddToCampUnitList
_TEXT	ENDS
; Function compile flags: /Odtp
; File c:\users\zhitao li\documents\visual studio 2012\projects\freefalcon\sim\simdrive\simdrive.cpp
_TEXT	SEGMENT
_this$ = -4						; size = 4
_theObject$ = 8						; size = 4
?AddToObjectList@SimulationDriver@@QAEXPAVVuEntity@@@Z PROC ; SimulationDriver::AddToObjectList
; _this$ = ecx

; 2173 : {

	push	ebp
	mov	ebp, esp
	push	ecx
	mov	DWORD PTR _this$[ebp], ecx

; 2174 : 	objectList->ForcedInsert(theObject);

	mov	eax, DWORD PTR _theObject$[ebp]
	push	eax
	mov	ecx, DWORD PTR _this$[ebp]
	mov	ecx, DWORD PTR [ecx]
	call	?ForcedInsert@FalconPrivateOrderedList@@QAEHPAVVuEntity@@@Z ; FalconPrivateOrderedList::ForcedInsert

; 2175 : 	combinedList->ForcedInsert(theObject);

	mov	edx, DWORD PTR _theObject$[ebp]
	push	edx
	mov	eax, DWORD PTR _this$[ebp]
	mov	ecx, DWORD PTR [eax+16]
	call	?ForcedInsert@FalconPrivateOrderedList@@QAEHPAVVuEntity@@@Z ; FalconPrivateOrderedList::ForcedInsert

; 2176 : }

	mov	esp, ebp
	pop	ebp
	ret	4
?AddToObjectList@SimulationDriver@@QAEXPAVVuEntity@@@Z ENDP ; SimulationDriver::AddToObjectList
_TEXT	ENDS
; Function compile flags: /Odtp
; File c:\users\zhitao li\documents\visual studio 2012\projects\freefalcon\sim\simdrive\simdrive.cpp
_TEXT	SEGMENT
_this$ = -4						; size = 4
_theObject$ = 8						; size = 4
?AddToFeatureList@SimulationDriver@@QAEXPAVVuEntity@@@Z PROC ; SimulationDriver::AddToFeatureList
; _this$ = ecx

; 2179 : {

	push	ebp
	mov	ebp, esp
	push	ecx
	mov	DWORD PTR _this$[ebp], ecx

; 2180 : 	featureList->ForcedInsert(theObject);

	mov	eax, DWORD PTR _theObject$[ebp]
	push	eax
	mov	ecx, DWORD PTR _this$[ebp]
	mov	ecx, DWORD PTR [ecx+4]
	call	?ForcedInsert@FalconPrivateOrderedList@@QAEHPAVVuEntity@@@Z ; FalconPrivateOrderedList::ForcedInsert

; 2181 : 	combinedFeatureList->ForcedInsert(theObject);

	mov	edx, DWORD PTR _theObject$[ebp]
	push	edx
	mov	eax, DWORD PTR _this$[ebp]
	mov	ecx, DWORD PTR [eax+20]
	call	?ForcedInsert@FalconPrivateOrderedList@@QAEHPAVVuEntity@@@Z ; FalconPrivateOrderedList::ForcedInsert

; 2182 : }

	mov	esp, ebp
	pop	ebp
	ret	4
?AddToFeatureList@SimulationDriver@@QAEXPAVVuEntity@@@Z ENDP ; SimulationDriver::AddToFeatureList
_TEXT	ENDS
; Function compile flags: /Odtp
; File c:\users\zhitao li\documents\visual studio 2012\projects\freefalcon\sim\include\simdrive.h
;	COMDAT ?SetAVTR@SimulationDriver@@QAEXH@Z
_TEXT	SEGMENT
_this$ = -4						; size = 4
_newFlag$ = 8						; size = 4
?SetAVTR@SimulationDriver@@QAEXH@Z PROC			; SimulationDriver::SetAVTR, COMDAT
; _this$ = ecx

; 101  : 	void SetAVTR (int newFlag) {avtrOn = newFlag; };

	push	ebp
	mov	ebp, esp
	push	ecx
	mov	DWORD PTR _this$[ebp], ecx
	mov	eax, DWORD PTR _this$[ebp]
	mov	ecx, DWORD PTR _newFlag$[ebp]
	mov	DWORD PTR [eax+356], ecx
	mov	esp, ebp
	pop	ebp
	ret	4
?SetAVTR@SimulationDriver@@QAEXH@Z ENDP			; SimulationDriver::SetAVTR
_TEXT	ENDS
; Function compile flags: /Odtp
; File c:\users\zhitao li\documents\visual studio 2012\projects\freefalcon\sim\simdrive\simdrive.cpp
_TEXT	SEGMENT
_updateWalker$ = -60					; size = 12
$T2 = -48						; size = 8
$T3 = -40						; size = 4
_tmpRequest$4 = -36					; size = 4
tv250 = -32						; size = 4
tv236 = -28						; size = 4
_this$ = -24						; size = 4
tv138 = -20						; size = 4
_theObject$ = -16					; size = 4
__$EHRec$ = -12						; size = 12
?UpdateRemoteData@SimulationDriver@@QAEXXZ PROC		; SimulationDriver::UpdateRemoteData
; _this$ = ecx

; 998  : {

	push	ebp
	mov	ebp, esp
	push	-1
	push	__ehhandler$?UpdateRemoteData@SimulationDriver@@QAEXXZ
	mov	eax, DWORD PTR fs:0
	push	eax
	sub	esp, 48					; 00000030H
	mov	eax, DWORD PTR ___security_cookie
	xor	eax, ebp
	push	eax
	lea	eax, DWORD PTR __$EHRec$[ebp]
	mov	DWORD PTR fs:0, eax
	mov	DWORD PTR _this$[ebp], ecx

; 999  : 	SimBaseClass* theObject;
; 1000 : 	VuListIterator updateWalker (objectList);

	mov	eax, DWORD PTR _this$[ebp]
	mov	ecx, DWORD PTR [eax]
	push	ecx
	lea	ecx, DWORD PTR _updateWalker$[ebp]
	call	??0VuListIterator@@QAE@PAVVuLinkedList@@@Z ; VuListIterator::VuListIterator
	mov	DWORD PTR __$EHRec$[ebp+8], 0

; 1001 : 
; 1002 : 	theObject = (SimBaseClass*)updateWalker.GetFirst();

	lea	ecx, DWORD PTR _updateWalker$[ebp]
	call	?GetFirst@VuListIterator@@QAEPAVVuEntity@@XZ ; VuListIterator::GetFirst
	mov	DWORD PTR _theObject$[ebp], eax
$LN7@UpdateRemo:

; 1003 : 	while (theObject){

	cmp	DWORD PTR _theObject$[ebp], 0
	je	$LN6@UpdateRemo

; 1004 : 		if (!theObject->IsLocal()){

	mov	ecx, DWORD PTR _theObject$[ebp]
	call	?IsLocal@VuEntity@@QBEEXZ		; VuEntity::IsLocal
	movzx	edx, al
	test	edx, edx
	jne	$LN1@UpdateRemo

; 1005 : 			CalcTransformMatrix(theObject);

	mov	eax, DWORD PTR _theObject$[ebp]
	push	eax
	call	?CalcTransformMatrix@@YAXPAVSimBaseClass@@@Z ; CalcTransformMatrix
	add	esp, 4

; 1006 : 			theObject->Exec();

	mov	ecx, DWORD PTR _theObject$[ebp]
	mov	edx, DWORD PTR [ecx]
	mov	ecx, DWORD PTR _theObject$[ebp]
	mov	eax, DWORD PTR [edx+348]
	call	eax

; 1007 : 			if (theObject->EntityDriver()){

	mov	ecx, DWORD PTR _theObject$[ebp]
	call	?EntityDriver@VuEntity@@QAEPAVVuDriver@@XZ ; VuEntity::EntityDriver
	test	eax, eax
	je	$LN2@UpdateRemo

; 1008 : 				theObject->EntityDriver()->Exec(SimLibElapsedTime);

	mov	ecx, DWORD PTR _theObject$[ebp]
	call	?EntityDriver@VuEntity@@QAEPAVVuDriver@@XZ ; VuEntity::EntityDriver
	mov	DWORD PTR tv138[ebp], eax
	mov	ecx, DWORD PTR ?SimLibElapsedTime@@3KA	; SimLibElapsedTime
	push	ecx
	mov	edx, DWORD PTR tv138[ebp]
	mov	eax, DWORD PTR [edx]
	mov	ecx, DWORD PTR tv138[ebp]
	mov	edx, DWORD PTR [eax+8]
	call	edx

; 1009 : 				//LRKLUDGE
; 1010 : 				if (theObject->ZPos() > 100.0F){

	mov	ecx, DWORD PTR _theObject$[ebp]
	call	?ZPos@VuEntity@@QBEMXZ			; VuEntity::ZPos
	fstp	DWORD PTR tv236[ebp]
	movss	xmm0, DWORD PTR tv236[ebp]
	comiss	xmm0, DWORD PTR __real@42c80000
	jbe	SHORT $LN3@UpdateRemo

; 1011 : 					//MonoPrint ("Clamping underground position for remote entity\n");
; 1012 : 					theObject->SetPosition (theObject->XPos(), theObject->YPos(), 100.0F);

	push	ecx
	movss	xmm0, DWORD PTR __real@42c80000
	movss	DWORD PTR [esp], xmm0
	mov	ecx, DWORD PTR _theObject$[ebp]
	call	?YPos@VuEntity@@QBEMXZ			; VuEntity::YPos
	push	ecx
	fstp	DWORD PTR [esp]
	mov	ecx, DWORD PTR _theObject$[ebp]
	call	?XPos@VuEntity@@QBEMXZ			; VuEntity::XPos
	push	ecx
	fstp	DWORD PTR [esp]
	mov	ecx, DWORD PTR _theObject$[ebp]
	call	?SetPosition@VuEntity@@QAEXMMM@Z	; VuEntity::SetPosition
$LN3@UpdateRemo:

; 1013 : 				}
; 1014 : 
; 1015 : 				//LRKLUDGE
; 1016 : 				if (theObject->ZPos() < -200000.0F){

	mov	ecx, DWORD PTR _theObject$[ebp]
	call	?ZPos@VuEntity@@QBEMXZ			; VuEntity::ZPos
	fstp	DWORD PTR tv250[ebp]
	movss	xmm0, DWORD PTR __real@c8435000
	comiss	xmm0, DWORD PTR tv250[ebp]
	jbe	SHORT $LN2@UpdateRemo

; 1017 : 					//MonoPrint ("Clamping underground position for remote entity\n");
; 1018 : 					theObject->SetPosition (theObject->XPos(), theObject->YPos(), -200000.0F);

	push	ecx
	movss	xmm0, DWORD PTR __real@c8435000
	movss	DWORD PTR [esp], xmm0
	mov	ecx, DWORD PTR _theObject$[ebp]
	call	?YPos@VuEntity@@QBEMXZ			; VuEntity::YPos
	push	ecx
	fstp	DWORD PTR [esp]
	mov	ecx, DWORD PTR _theObject$[ebp]
	call	?XPos@VuEntity@@QBEMXZ			; VuEntity::XPos
	push	ecx
	fstp	DWORD PTR [esp]
	mov	ecx, DWORD PTR _theObject$[ebp]
	call	?SetPosition@VuEntity@@QAEXMMM@Z	; VuEntity::SetPosition
$LN2@UpdateRemo:

; 1019 : 				}
; 1020 : 			}
; 1021 : 
; 1022 : 			if (requestList && requestList->requestId == theObject->Id()){

	cmp	DWORD PTR _requestList, 0
	je	SHORT $LN1@UpdateRemo
	lea	eax, DWORD PTR $T2[ebp]
	push	eax
	mov	ecx, DWORD PTR _theObject$[ebp]
	call	?Id@VuEntity@@QBE?AVVU_ID@@XZ		; VuEntity::Id
	push	eax
	mov	ecx, DWORD PTR _requestList
	call	??8VU_ID@@QBE_NABV0@@Z			; VU_ID::operator==
	movzx	ecx, al
	test	ecx, ecx
	je	SHORT $LN1@UpdateRemo

; 1023 : 				NewRequestList* tmpRequest;
; 1024 : 				//MonoPrint ("Clearing requested object %d\n", theObject->Id().num_);
; 1025 : 				tmpRequest = requestList;

	mov	edx, DWORD PTR _requestList
	mov	DWORD PTR _tmpRequest$4[ebp], edx

; 1026 : 				requestList = requestList->next;

	mov	eax, DWORD PTR _requestList
	mov	ecx, DWORD PTR [eax+8]
	mov	DWORD PTR _requestList, ecx

; 1027 : 				delete tmpRequest;

	mov	edx, DWORD PTR _tmpRequest$4[ebp]
	mov	DWORD PTR $T3[ebp], edx
	mov	eax, DWORD PTR $T3[ebp]
	push	eax
	call	??3@YAXPAX@Z				; operator delete
	add	esp, 4
$LN1@UpdateRemo:

; 1028 : 			}
; 1029 : 		}
; 1030 : 		theObject = (SimBaseClass*)updateWalker.GetNext();

	lea	ecx, DWORD PTR _updateWalker$[ebp]
	call	?GetNext@VuListIterator@@QAEPAVVuEntity@@XZ ; VuListIterator::GetNext
	mov	DWORD PTR _theObject$[ebp], eax

; 1031 : 	}

	jmp	$LN7@UpdateRemo
$LN6@UpdateRemo:

; 1032 : }

	mov	DWORD PTR __$EHRec$[ebp+8], -1
	lea	ecx, DWORD PTR _updateWalker$[ebp]
	call	??1VuListIterator@@UAE@XZ		; VuListIterator::~VuListIterator
	mov	ecx, DWORD PTR __$EHRec$[ebp]
	mov	DWORD PTR fs:0, ecx
	pop	ecx
	mov	esp, ebp
	pop	ebp
	ret	0
_TEXT	ENDS
text$x	SEGMENT
__unwindfunclet$?UpdateRemoteData@SimulationDriver@@QAEXXZ$0:
	lea	ecx, DWORD PTR _updateWalker$[ebp]
	jmp	??1VuListIterator@@UAE@XZ		; VuListIterator::~VuListIterator
__ehhandler$?UpdateRemoteData@SimulationDriver@@QAEXXZ:
	mov	edx, DWORD PTR [esp+8]
	lea	eax, DWORD PTR [edx+12]
	mov	ecx, DWORD PTR [edx-52]
	xor	ecx, eax
	call	@__security_check_cookie@4
	mov	eax, OFFSET __ehfuncinfo$?UpdateRemoteData@SimulationDriver@@QAEXXZ
	jmp	___CxxFrameHandler3
text$x	ENDS
?UpdateRemoteData@SimulationDriver@@QAEXXZ ENDP		; SimulationDriver::UpdateRemoteData
; Function compile flags: /Odtp
; File c:\users\zhitao li\documents\visual studio 2012\projects\freefalcon\sim\simdrive\simdrive.cpp
_TEXT	SEGMENT
_this$ = -120						; size = 4
tv416 = -116						; size = 4
tv407 = -112						; size = 4
tv388 = -108						; size = 4
tv378 = -104						; size = 4
tv348 = -100						; size = 4
tv423 = -96						; size = 4
tv344 = -92						; size = 4
tv340 = -88						; size = 4
tv421 = -84						; size = 4
tv336 = -80						; size = 4
tv326 = -76						; size = 4
tv316 = -72						; size = 4
_pureFwdOffset$ = -68					; size = 4
_leadFwdOffset$ = -64					; size = 4
_pureRearOffset$ = -60					; size = 4
_leadRearOffset$ = -56					; size = 4
_angle$ = -52						; size = 4
_ydiff$ = -48						; size = 4
_xdiff$ = -44						; size = 4
_speedThreshold$ = -40					; size = 4
_myKIAS$ = -36						; size = 4
_trafficKIAS$ = -32					; size = 4
_trafficHdg$ = -28					; size = 4
_hdgToMyPlane$ = -24					; size = 4
_myHdg$ = -20						; size = 4
_hdgToTraffic$ = -16					; size = 4
_parallelTrafficHdg$ = -12				; size = 4
_normalizedTrafficHdg$ = -8				; size = 4
_relativeBearing$ = -4					; size = 4
_traffic$ = 8						; size = 4
_myAircraft$ = 12					; size = 4
_self$ = 16						; size = 4
?FindTrafficConflict@SimulationDriver@@QAEXPAVSimBaseClass@@PAVAircraftClass@@PAVObjectiveClass@@@Z PROC ; SimulationDriver::FindTrafficConflict
; _this$ = ecx

; 1538 : {

	push	ebp
	mov	ebp, esp
	sub	esp, 120				; 00000078H
	mov	DWORD PTR _this$[ebp], ecx

; 1539 : 
; 1540 : 	float myHdg=0.0F, trafficHdg=0.0F;

	movss	xmm0, DWORD PTR __real@00000000
	movss	DWORD PTR _myHdg$[ebp], xmm0
	movss	xmm0, DWORD PTR __real@00000000
	movss	DWORD PTR _trafficHdg$[ebp], xmm0

; 1541 : 	float xdiff=0.0F, ydiff=0.0F, angle=0.0F;

	movss	xmm0, DWORD PTR __real@00000000
	movss	DWORD PTR _xdiff$[ebp], xmm0
	movss	xmm0, DWORD PTR __real@00000000
	movss	DWORD PTR _ydiff$[ebp], xmm0
	movss	xmm0, DWORD PTR __real@00000000
	movss	DWORD PTR _angle$[ebp], xmm0

; 1542 : 	int hdgToTraffic=0;						// heading to traffic

	mov	DWORD PTR _hdgToTraffic$[ebp], 0

; 1543 : 	int hdgToMyPlane=0;						// heading to my plane

	mov	DWORD PTR _hdgToMyPlane$[ebp], 0

; 1544 : 	int relativeBearing=0;					// relative heading from nose of my plane to traffic

	mov	DWORD PTR _relativeBearing$[ebp], 0

; 1545 : 	int parallelTrafficHdg=0;				// normalized parallel hdg referenced to hdgToMyPlane

	mov	DWORD PTR _parallelTrafficHdg$[ebp], 0

; 1546 : 	int normalizedTrafficHdg=0;				// normalized hdg of traffic referenced to hdgToMyPlane

	mov	DWORD PTR _normalizedTrafficHdg$[ebp], 0

; 1547 : 	float myKIAS=0, trafficKIAS=0;			// airspeed of me and traffic

	movss	xmm0, DWORD PTR __real@00000000
	movss	DWORD PTR _myKIAS$[ebp], xmm0
	movss	xmm0, DWORD PTR __real@00000000
	movss	DWORD PTR _trafficKIAS$[ebp], xmm0

; 1548 : 
; 1549 : 	// Fine Tune conflict resolution with these numbers
; 1550 : 	int pureFwdOffset = 10;							// add or subtract this heading from hdgToMyPlane

	mov	DWORD PTR _pureFwdOffset$[ebp], 10	; 0000000aH

; 1551 : 	int pureRearOffset = 5;

	mov	DWORD PTR _pureRearOffset$[ebp], 5

; 1552 : 	int leadFwdOffset = 10;						// fwd of 3/9 line, add or sub hdg from traffic's hdg

	mov	DWORD PTR _leadFwdOffset$[ebp], 10	; 0000000aH

; 1553 : 	int leadRearOffset = 5;						// behind 3/9 line, add or sub hdg from traffic's hdg

	mov	DWORD PTR _leadRearOffset$[ebp], 5

; 1554 : 	float speedThreshold = 5.0F;				// overtaking speed threshold in GetKias

	movss	xmm0, DWORD PTR __real@40a00000
	movss	DWORD PTR _speedThreshold$[ebp], xmm0

; 1555 : 
; 1556 : 
; 1557 : 	myHdg = myAircraft->Yaw()*RTD;		// Find my heading

	mov	ecx, DWORD PTR _myAircraft$[ebp]
	call	?Yaw@VuEntity@@QBEMXZ			; VuEntity::Yaw
	fstp	DWORD PTR tv316[ebp]
	movss	xmm0, DWORD PTR tv316[ebp]
	mulss	xmm0, DWORD PTR __real@42652ee1
	movss	DWORD PTR _myHdg$[ebp], xmm0

; 1558 : 	if(myHdg < 0.0F)

	movss	xmm0, DWORD PTR __real@00000000
	comiss	xmm0, DWORD PTR _myHdg$[ebp]
	jbe	SHORT $LN42@FindTraffi

; 1559 : 		myHdg += 360.0F;

	movss	xmm0, DWORD PTR _myHdg$[ebp]
	addss	xmm0, DWORD PTR __real@43b40000
	movss	DWORD PTR _myHdg$[ebp], xmm0
$LN42@FindTraffi:

; 1560 : 
; 1561 : 	myKIAS = myAircraft->GetKias();		// My airspeed

	mov	eax, DWORD PTR _myAircraft$[ebp]
	mov	edx, DWORD PTR [eax]
	mov	ecx, DWORD PTR _myAircraft$[ebp]
	mov	eax, DWORD PTR [edx+224]
	call	eax
	fstp	DWORD PTR _myKIAS$[ebp]

; 1562 : 
; 1563 : 	trafficHdg = traffic->Yaw()*RTD;	// Find traffic's heading

	mov	ecx, DWORD PTR _traffic$[ebp]
	call	?Yaw@VuEntity@@QBEMXZ			; VuEntity::Yaw
	fstp	DWORD PTR tv326[ebp]
	movss	xmm0, DWORD PTR tv326[ebp]
	mulss	xmm0, DWORD PTR __real@42652ee1
	movss	DWORD PTR _trafficHdg$[ebp], xmm0

; 1564 : 	if(trafficHdg < 0.0F)

	movss	xmm0, DWORD PTR __real@00000000
	comiss	xmm0, DWORD PTR _trafficHdg$[ebp]
	jbe	SHORT $LN41@FindTraffi

; 1565 : 		trafficHdg += 360.0F;

	movss	xmm0, DWORD PTR _trafficHdg$[ebp]
	addss	xmm0, DWORD PTR __real@43b40000
	movss	DWORD PTR _trafficHdg$[ebp], xmm0
$LN41@FindTraffi:

; 1566 : 
; 1567 : 	trafficKIAS = traffic->GetKias();		// Traffic's airspeed

	mov	ecx, DWORD PTR _traffic$[ebp]
	mov	edx, DWORD PTR [ecx]
	mov	ecx, DWORD PTR _traffic$[ebp]
	mov	eax, DWORD PTR [edx+224]
	call	eax
	fstp	DWORD PTR _trafficKIAS$[ebp]

; 1568 : 
; 1569 : 
; 1570 : 	xdiff = traffic->XPos() - myAircraft->XPos();		// get traffic's X Pos

	mov	ecx, DWORD PTR _traffic$[ebp]
	call	?XPos@VuEntity@@QBEMXZ			; VuEntity::XPos
	fstp	DWORD PTR tv336[ebp]
	movss	xmm0, DWORD PTR tv336[ebp]
	mov	ecx, DWORD PTR _myAircraft$[ebp]
	movss	DWORD PTR tv421[ebp], xmm0
	call	?XPos@VuEntity@@QBEMXZ			; VuEntity::XPos
	fstp	DWORD PTR tv340[ebp]
	movss	xmm0, DWORD PTR tv421[ebp]
	subss	xmm0, DWORD PTR tv340[ebp]
	movss	DWORD PTR _xdiff$[ebp], xmm0

; 1571 : 	ydiff = traffic->YPos() - myAircraft->YPos();		// get traffic's Y Pos

	mov	ecx, DWORD PTR _traffic$[ebp]
	call	?YPos@VuEntity@@QBEMXZ			; VuEntity::YPos
	fstp	DWORD PTR tv344[ebp]
	movss	xmm0, DWORD PTR tv344[ebp]
	mov	ecx, DWORD PTR _myAircraft$[ebp]
	movss	DWORD PTR tv423[ebp], xmm0
	call	?YPos@VuEntity@@QBEMXZ			; VuEntity::YPos
	fstp	DWORD PTR tv348[ebp]
	movss	xmm0, DWORD PTR tv423[ebp]
	subss	xmm0, DWORD PTR tv348[ebp]
	movss	DWORD PTR _ydiff$[ebp], xmm0

; 1572 : 
; 1573 : 	angle = (float)atan2(ydiff, xdiff);				// get radian angle from traffic to my plane

	cvtss2sd xmm0, DWORD PTR _xdiff$[ebp]
	sub	esp, 8
	movsd	QWORD PTR [esp], xmm0
	cvtss2sd xmm0, DWORD PTR _ydiff$[ebp]
	sub	esp, 8
	movsd	QWORD PTR [esp], xmm0
	call	?checked_atan2@@YANNN@Z			; checked_atan2
	add	esp, 16					; 00000010H
	fstp	DWORD PTR _angle$[ebp]

; 1574 : 	//angle = angle - myAircraft->Yaw();			
; 1575 : 	hdgToTraffic =  FloatToInt32 (RTD * angle);	// convert to degrees

	movss	xmm0, DWORD PTR __real@42652ee1
	mulss	xmm0, DWORD PTR _angle$[ebp]
	push	ecx
	movss	DWORD PTR [esp], xmm0
	call	?FloatToInt32@@YAHM@Z			; FloatToInt32
	add	esp, 4
	mov	DWORD PTR _hdgToTraffic$[ebp], eax

; 1576 : 	if(hdgToTraffic < 0)

	cmp	DWORD PTR _hdgToTraffic$[ebp], 0
	jge	SHORT $LN40@FindTraffi

; 1577 : 		hdgToTraffic = 360 + hdgToTraffic;

	mov	ecx, DWORD PTR _hdgToTraffic$[ebp]
	add	ecx, 360				; 00000168H
	mov	DWORD PTR _hdgToTraffic$[ebp], ecx
$LN40@FindTraffi:

; 1578 : 
; 1579 : 	// Find heading to Traffic
; 1580 : 	hdgToMyPlane = hdgToTraffic - 180;	

	mov	edx, DWORD PTR _hdgToTraffic$[ebp]
	sub	edx, 180				; 000000b4H
	mov	DWORD PTR _hdgToMyPlane$[ebp], edx

; 1581 : 	if (hdgToMyPlane < 0)

	jns	SHORT $LN39@FindTraffi

; 1582 : 		hdgToMyPlane = 360 + hdgToMyPlane;

	mov	eax, DWORD PTR _hdgToMyPlane$[ebp]
	add	eax, 360				; 00000168H
	mov	DWORD PTR _hdgToMyPlane$[ebp], eax
$LN39@FindTraffi:

; 1583 : 
; 1584 : 	// Setup Relative bearing
; 1585 : 	if (hdgToTraffic > myHdg)

	cvtsi2ss xmm0, DWORD PTR _hdgToTraffic$[ebp]
	comiss	xmm0, DWORD PTR _myHdg$[ebp]
	jbe	SHORT $LN38@FindTraffi

; 1586 : 	{
; 1587 : 		relativeBearing = static_cast<int>(hdgToTraffic - myHdg);

	cvtsi2ss xmm0, DWORD PTR _hdgToTraffic$[ebp]
	subss	xmm0, DWORD PTR _myHdg$[ebp]
	cvttss2si ecx, xmm0
	mov	DWORD PTR _relativeBearing$[ebp], ecx

; 1588 : 		if (relativeBearing < 0)

	cmp	DWORD PTR _relativeBearing$[ebp], 0
	jge	SHORT $LN37@FindTraffi

; 1589 : 			relativeBearing = 360 + relativeBearing;

	mov	edx, DWORD PTR _relativeBearing$[ebp]
	add	edx, 360				; 00000168H
	mov	DWORD PTR _relativeBearing$[ebp], edx
$LN37@FindTraffi:

; 1590 : 	}
; 1591 : 	else

	jmp	SHORT $LN35@FindTraffi
$LN38@FindTraffi:

; 1592 : 	{
; 1593 : 		static_cast<int>(relativeBearing = hdgToTraffic - (int)myHdg);

	cvttss2si eax, DWORD PTR _myHdg$[ebp]
	mov	ecx, DWORD PTR _hdgToTraffic$[ebp]
	sub	ecx, eax
	mov	DWORD PTR _relativeBearing$[ebp], ecx

; 1594 : 		if (relativeBearing < 0)

	jns	SHORT $LN35@FindTraffi

; 1595 : 			relativeBearing = 360 + relativeBearing;

	mov	edx, DWORD PTR _relativeBearing$[ebp]
	add	edx, 360				; 00000168H
	mov	DWORD PTR _relativeBearing$[ebp], edx
$LN35@FindTraffi:

; 1596 : 	}
; 1597 : 
; 1598 : 	// Normalize all values so they are based off of hdgToMyPlane = 0 (makes it all relative)
; 1599 : 	parallelTrafficHdg = static_cast<int>(myHdg - hdgToMyPlane);

	cvtsi2ss xmm0, DWORD PTR _hdgToMyPlane$[ebp]
	movss	xmm1, DWORD PTR _myHdg$[ebp]
	subss	xmm1, xmm0
	cvttss2si eax, xmm1
	mov	DWORD PTR _parallelTrafficHdg$[ebp], eax

; 1600 : 	if (parallelTrafficHdg < 0)

	cmp	DWORD PTR _parallelTrafficHdg$[ebp], 0
	jge	SHORT $LN34@FindTraffi

; 1601 : 		parallelTrafficHdg = 360 + parallelTrafficHdg;

	mov	ecx, DWORD PTR _parallelTrafficHdg$[ebp]
	add	ecx, 360				; 00000168H
	mov	DWORD PTR _parallelTrafficHdg$[ebp], ecx
$LN34@FindTraffi:

; 1602 : 	normalizedTrafficHdg = static_cast<int>(trafficHdg - hdgToMyPlane);

	cvtsi2ss xmm0, DWORD PTR _hdgToMyPlane$[ebp]
	movss	xmm1, DWORD PTR _trafficHdg$[ebp]
	subss	xmm1, xmm0
	cvttss2si edx, xmm1
	mov	DWORD PTR _normalizedTrafficHdg$[ebp], edx

; 1603 : 	if (normalizedTrafficHdg < 0)

