; Listing generated by Microsoft (R) Optimizing Compiler Version 17.00.51106.1 

	TITLE	C:\Users\Zhitao Li\Documents\Visual Studio 2012\Projects\Freefalcon\SIM\SIMINPUT\commands.cpp
	.686P
	.XMM
	include listing.inc
	.model	flat

INCLUDELIB LIBCMT
INCLUDELIB OLDNAMES

PUBLIC	?traps@_Num_base@std@@2_NB			; std::_Num_base::traps
PUBLIC	?round_style@_Num_base@std@@2W4float_round_style@2@B ; std::_Num_base::round_style
PUBLIC	?digits@_Num_base@std@@2HB			; std::_Num_base::digits
PUBLIC	?digits10@_Num_base@std@@2HB			; std::_Num_base::digits10
PUBLIC	?max_digits10@_Num_base@std@@2HB		; std::_Num_base::max_digits10
PUBLIC	?max_exponent@_Num_base@std@@2HB		; std::_Num_base::max_exponent
PUBLIC	?max_exponent10@_Num_base@std@@2HB		; std::_Num_base::max_exponent10
PUBLIC	?min_exponent@_Num_base@std@@2HB		; std::_Num_base::min_exponent
PUBLIC	?min_exponent10@_Num_base@std@@2HB		; std::_Num_base::min_exponent10
PUBLIC	?radix@_Num_base@std@@2HB			; std::_Num_base::radix
PUBLIC	?is_bounded@_Num_int_base@std@@2_NB		; std::_Num_int_base::is_bounded
PUBLIC	?is_exact@_Num_int_base@std@@2_NB		; std::_Num_int_base::is_exact
PUBLIC	?is_integer@_Num_int_base@std@@2_NB		; std::_Num_int_base::is_integer
PUBLIC	?is_modulo@_Num_int_base@std@@2_NB		; std::_Num_int_base::is_modulo
PUBLIC	?is_specialized@_Num_int_base@std@@2_NB		; std::_Num_int_base::is_specialized
PUBLIC	?radix@_Num_int_base@std@@2HB			; std::_Num_int_base::radix
PUBLIC	?has_denorm@_Num_float_base@std@@2W4float_denorm_style@2@B ; std::_Num_float_base::has_denorm
PUBLIC	?has_denorm_loss@_Num_float_base@std@@2_NB	; std::_Num_float_base::has_denorm_loss
PUBLIC	?SIMDIRTYDATA_INTERVAL@FalconEntity@@2KB	; FalconEntity::SIMDIRTYDATA_INTERVAL
PUBLIC	?CMPDIRTYDATA_INTERVAL@FalconEntity@@2KB	; FalconEntity::CMPDIRTYDATA_INTERVAL
PUBLIC	?has_infinity@_Num_float_base@std@@2_NB		; std::_Num_float_base::has_infinity
PUBLIC	?has_quiet_NaN@_Num_float_base@std@@2_NB	; std::_Num_float_base::has_quiet_NaN
PUBLIC	?has_signaling_NaN@_Num_float_base@std@@2_NB	; std::_Num_float_base::has_signaling_NaN
PUBLIC	?is_bounded@_Num_float_base@std@@2_NB		; std::_Num_float_base::is_bounded
PUBLIC	?ShowFrameRate@@3HA				; ShowFrameRate
PUBLIC	?testFlag@@3HA					; testFlag
PUBLIC	?narrowFOV@@3HA					; narrowFOV
PUBLIC	?is_exact@_Num_float_base@std@@2_NB		; std::_Num_float_base::is_exact
PUBLIC	?keyboardPickleOverride@@3HA			; keyboardPickleOverride
PUBLIC	?keyboardTriggerOverride@@3HA			; keyboardTriggerOverride
PUBLIC	?is_iec559@_Num_float_base@std@@2_NB		; std::_Num_float_base::is_iec559
PUBLIC	?throttleOffsetRate@@3MA			; throttleOffsetRate
PUBLIC	?throttleOffset@@3MA				; throttleOffset
PUBLIC	?rudderOffset@@3MA				; rudderOffset
PUBLIC	?is_integer@_Num_float_base@std@@2_NB		; std::_Num_float_base::is_integer
PUBLIC	?rudderOffsetRate@@3MA				; rudderOffsetRate
PUBLIC	?pitchStickOffset@@3MA				; pitchStickOffset
PUBLIC	?rollStickOffset@@3MA				; rollStickOffset
PUBLIC	?is_modulo@_Num_float_base@std@@2_NB		; std::_Num_float_base::is_modulo
PUBLIC	?pitchStickOffsetRate@@3MA			; pitchStickOffsetRate
PUBLIC	?rollStickOffsetRate@@3MA			; rollStickOffsetRate
PUBLIC	?pitchRudderTrimRate@@3MA			; pitchRudderTrimRate
PUBLIC	?is_signed@_Num_float_base@std@@2_NB		; std::_Num_float_base::is_signed
PUBLIC	?pitchAileronTrimRate@@3MA			; pitchAileronTrimRate
PUBLIC	?pitchElevatorTrimRate@@3MA			; pitchElevatorTrimRate
PUBLIC	?pitchManualTrim@@3MA				; pitchManualTrim
PUBLIC	?is_specialized@_Num_float_base@std@@2_NB	; std::_Num_float_base::is_specialized
PUBLIC	?yawManualTrim@@3MA				; yawManualTrim
PUBLIC	?rollManualTrim@@3MA				; rollManualTrim
PUBLIC	?UseKeyboardThrottle@@3HA			; UseKeyboardThrottle
PUBLIC	?tinyness_before@_Num_float_base@std@@2_NB	; std::_Num_float_base::tinyness_before
PUBLIC	?gDoOwnshipSmoke@@3HA				; gDoOwnshipSmoke
PUBLIC	?traps@_Num_float_base@std@@2_NB		; std::_Num_float_base::traps
PUBLIC	?round_style@_Num_float_base@std@@2W4float_round_style@2@B ; std::_Num_float_base::round_style
PUBLIC	?radix@_Num_float_base@std@@2HB			; std::_Num_float_base::radix
PUBLIC	?skipws@?$_Iosb@H@std@@2W4_Fmtflags@12@B	; std::_Iosb<int>::skipws
PUBLIC	?is_signed@?$numeric_limits@D@std@@2_NB		; std::numeric_limits<char>::is_signed
PUBLIC	?unitbuf@?$_Iosb@H@std@@2W4_Fmtflags@12@B	; std::_Iosb<int>::unitbuf
PUBLIC	?digits@?$numeric_limits@D@std@@2HB		; std::numeric_limits<char>::digits
PUBLIC	?uppercase@?$_Iosb@H@std@@2W4_Fmtflags@12@B	; std::_Iosb<int>::uppercase
PUBLIC	?digits10@?$numeric_limits@D@std@@2HB		; std::numeric_limits<char>::digits10
PUBLIC	?showbase@?$_Iosb@H@std@@2W4_Fmtflags@12@B	; std::_Iosb<int>::showbase
PUBLIC	?showpoint@?$_Iosb@H@std@@2W4_Fmtflags@12@B	; std::_Iosb<int>::showpoint
PUBLIC	?showpos@?$_Iosb@H@std@@2W4_Fmtflags@12@B	; std::_Iosb<int>::showpos
PUBLIC	?left@?$_Iosb@H@std@@2W4_Fmtflags@12@B		; std::_Iosb<int>::left
PUBLIC	?right@?$_Iosb@H@std@@2W4_Fmtflags@12@B		; std::_Iosb<int>::right
PUBLIC	?VtuneNoop@@YAHXZ				; VtuneNoop
PUBLIC	?internal@?$_Iosb@H@std@@2W4_Fmtflags@12@B	; std::_Iosb<int>::internal
PUBLIC	?doVtune@@3HA					; doVtune
PUBLIC	?dec@?$_Iosb@H@std@@2W4_Fmtflags@12@B		; std::_Iosb<int>::dec
PUBLIC	?pauseFn@@3P6AHXZA				; pauseFn
PUBLIC	?resumeFn@@3P6AHXZA				; resumeFn
PUBLIC	?oct@?$_Iosb@H@std@@2W4_Fmtflags@12@B		; std::_Iosb<int>::oct
PUBLIC	?hlib@@3PAUHINSTANCE__@@A			; hlib
PUBLIC	?lTestFlag1@@3HA				; lTestFlag1
PUBLIC	?lTestFlag2@@3HA				; lTestFlag2
PUBLIC	?hex@?$_Iosb@H@std@@2W4_Fmtflags@12@B		; std::_Iosb<int>::hex
PUBLIC	?scientific@?$_Iosb@H@std@@2W4_Fmtflags@12@B	; std::_Iosb<int>::scientific
PUBLIC	?is_signed@?$numeric_limits@_W@std@@2_NB	; std::numeric_limits<wchar_t>::is_signed
PUBLIC	?fixed@?$_Iosb@H@std@@2W4_Fmtflags@12@B		; std::_Iosb<int>::fixed
PUBLIC	?digits@?$numeric_limits@_W@std@@2HB		; std::numeric_limits<wchar_t>::digits
PUBLIC	?hexfloat@?$_Iosb@H@std@@2W4_Fmtflags@12@B	; std::_Iosb<int>::hexfloat
PUBLIC	?boolalpha@?$_Iosb@H@std@@2W4_Fmtflags@12@B	; std::_Iosb<int>::boolalpha
PUBLIC	?digits10@?$numeric_limits@_W@std@@2HB		; std::numeric_limits<wchar_t>::digits10
PUBLIC	?_Stdio@?$_Iosb@H@std@@2W4_Fmtflags@12@B	; std::_Iosb<int>::_Stdio
PUBLIC	?adjustfield@?$_Iosb@H@std@@2W4_Fmtflags@12@B	; std::_Iosb<int>::adjustfield
PUBLIC	?basefield@?$_Iosb@H@std@@2W4_Fmtflags@12@B	; std::_Iosb<int>::basefield
PUBLIC	?floatfield@?$_Iosb@H@std@@2W4_Fmtflags@12@B	; std::_Iosb<int>::floatfield
PUBLIC	?goodbit@?$_Iosb@H@std@@2W4_Iostate@12@B	; std::_Iosb<int>::goodbit
PUBLIC	?eofbit@?$_Iosb@H@std@@2W4_Iostate@12@B		; std::_Iosb<int>::eofbit
PUBLIC	?failbit@?$_Iosb@H@std@@2W4_Iostate@12@B	; std::_Iosb<int>::failbit
PUBLIC	?badbit@?$_Iosb@H@std@@2W4_Iostate@12@B		; std::_Iosb<int>::badbit
PUBLIC	?_Hardfail@?$_Iosb@H@std@@2W4_Iostate@12@B	; std::_Iosb<int>::_Hardfail
PUBLIC	?is_modulo@?$numeric_limits@_N@std@@2_NB	; std::numeric_limits<bool>::is_modulo
PUBLIC	?in@?$_Iosb@H@std@@2W4_Openmode@12@B		; std::_Iosb<int>::in
PUBLIC	?is_signed@?$numeric_limits@_N@std@@2_NB	; std::numeric_limits<bool>::is_signed
PUBLIC	?out@?$_Iosb@H@std@@2W4_Openmode@12@B		; std::_Iosb<int>::out
PUBLIC	?digits@?$numeric_limits@_N@std@@2HB		; std::numeric_limits<bool>::digits
PUBLIC	?ate@?$_Iosb@H@std@@2W4_Openmode@12@B		; std::_Iosb<int>::ate
PUBLIC	?digits10@?$numeric_limits@_N@std@@2HB		; std::numeric_limits<bool>::digits10
PUBLIC	?app@?$_Iosb@H@std@@2W4_Openmode@12@B		; std::_Iosb<int>::app
PUBLIC	?trunc@?$_Iosb@H@std@@2W4_Openmode@12@B		; std::_Iosb<int>::trunc
PUBLIC	?_Nocreate@?$_Iosb@H@std@@2W4_Openmode@12@B	; std::_Iosb<int>::_Nocreate
PUBLIC	?_Noreplace@?$_Iosb@H@std@@2W4_Openmode@12@B	; std::_Iosb<int>::_Noreplace
PUBLIC	?binary@?$_Iosb@H@std@@2W4_Openmode@12@B	; std::_Iosb<int>::binary
PUBLIC	?beg@?$_Iosb@H@std@@2W4_Seekdir@12@B		; std::_Iosb<int>::beg
PUBLIC	?cur@?$_Iosb@H@std@@2W4_Seekdir@12@B		; std::_Iosb<int>::cur
PUBLIC	?end@?$_Iosb@H@std@@2W4_Seekdir@12@B		; std::_Iosb<int>::end
PUBLIC	?is_signed@?$numeric_limits@C@std@@2_NB		; std::numeric_limits<signed char>::is_signed
PUBLIC	?digits@?$numeric_limits@C@std@@2HB		; std::numeric_limits<signed char>::digits
PUBLIC	?digits10@?$numeric_limits@C@std@@2HB		; std::numeric_limits<signed char>::digits10
PUBLIC	?_Stream_err@failure@ios_base@std@@0W4io_errc@43@B ; std::ios_base::failure::_Stream_err
PUBLIC	?is_signed@?$numeric_limits@E@std@@2_NB		; std::numeric_limits<unsigned char>::is_signed
PUBLIC	?value@?$integral_constant@_N$0A@@std@@2_NB	; std::integral_constant<bool,0>::value
PUBLIC	?digits@?$numeric_limits@E@std@@2HB		; std::numeric_limits<unsigned char>::digits
PUBLIC	?digits10@?$numeric_limits@E@std@@2HB		; std::numeric_limits<unsigned char>::digits10
PUBLIC	?value@?$integral_constant@_N$00@std@@2_NB	; std::integral_constant<bool,1>::value
PUBLIC	?is_signed@?$numeric_limits@F@std@@2_NB		; std::numeric_limits<short>::is_signed
PUBLIC	?digits@?$numeric_limits@F@std@@2HB		; std::numeric_limits<short>::digits
PUBLIC	?digits10@?$numeric_limits@F@std@@2HB		; std::numeric_limits<short>::digits10
PUBLIC	?is_signed@?$numeric_limits@G@std@@2_NB		; std::numeric_limits<unsigned short>::is_signed
PUBLIC	?digits@?$numeric_limits@G@std@@2HB		; std::numeric_limits<unsigned short>::digits
PUBLIC	?digits10@?$numeric_limits@G@std@@2HB		; std::numeric_limits<unsigned short>::digits10
PUBLIC	?is_signed@?$numeric_limits@H@std@@2_NB		; std::numeric_limits<int>::is_signed
PUBLIC	?value@?$_Sizeof@HU_Nil@std@@U12@U12@U12@U12@U12@U12@@std@@2IB ; std::_Sizeof<int,std::_Nil,std::_Nil,std::_Nil,std::_Nil,std::_Nil,std::_Nil,std::_Nil>::value
PUBLIC	?digits@?$numeric_limits@H@std@@2HB		; std::numeric_limits<int>::digits
PUBLIC	?digits10@?$numeric_limits@H@std@@2HB		; std::numeric_limits<int>::digits10
PUBLIC	?is_signed@?$numeric_limits@I@std@@2_NB		; std::numeric_limits<unsigned int>::is_signed
PUBLIC	?digits@?$numeric_limits@I@std@@2HB		; std::numeric_limits<unsigned int>::digits
PUBLIC	?digits10@?$numeric_limits@I@std@@2HB		; std::numeric_limits<unsigned int>::digits10
PUBLIC	?is_signed@?$numeric_limits@J@std@@2_NB		; std::numeric_limits<long>::is_signed
PUBLIC	?digits@?$numeric_limits@J@std@@2HB		; std::numeric_limits<long>::digits
PUBLIC	?digits10@?$numeric_limits@J@std@@2HB		; std::numeric_limits<long>::digits10
PUBLIC	?is_signed@?$numeric_limits@K@std@@2_NB		; std::numeric_limits<unsigned long>::is_signed
PUBLIC	?digits@?$numeric_limits@K@std@@2HB		; std::numeric_limits<unsigned long>::digits
PUBLIC	?digits10@?$numeric_limits@K@std@@2HB		; std::numeric_limits<unsigned long>::digits10
PUBLIC	?is_signed@?$numeric_limits@_J@std@@2_NB	; std::numeric_limits<__int64>::is_signed
PUBLIC	?digits@?$numeric_limits@_J@std@@2HB		; std::numeric_limits<__int64>::digits
PUBLIC	?digits10@?$numeric_limits@_J@std@@2HB		; std::numeric_limits<__int64>::digits10
PUBLIC	?collate@?$_Locbase@H@std@@2HB			; std::_Locbase<int>::collate
PUBLIC	?ctype@?$_Locbase@H@std@@2HB			; std::_Locbase<int>::ctype
PUBLIC	?monetary@?$_Locbase@H@std@@2HB			; std::_Locbase<int>::monetary
PUBLIC	?numeric@?$_Locbase@H@std@@2HB			; std::_Locbase<int>::numeric
PUBLIC	?time@?$_Locbase@H@std@@2HB			; std::_Locbase<int>::time
PUBLIC	?messages@?$_Locbase@H@std@@2HB			; std::_Locbase<int>::messages
PUBLIC	?all@?$_Locbase@H@std@@2HB			; std::_Locbase<int>::all
PUBLIC	?none@?$_Locbase@H@std@@2HB			; std::_Locbase<int>::none
PUBLIC	?is_signed@?$numeric_limits@_K@std@@2_NB	; std::numeric_limits<unsigned __int64>::is_signed
PUBLIC	?digits@?$numeric_limits@_K@std@@2HB		; std::numeric_limits<unsigned __int64>::digits
PUBLIC	?digits10@?$numeric_limits@_K@std@@2HB		; std::numeric_limits<unsigned __int64>::digits10
PUBLIC	?digits@?$numeric_limits@M@std@@2HB		; std::numeric_limits<float>::digits
PUBLIC	?digits10@?$numeric_limits@M@std@@2HB		; std::numeric_limits<float>::digits10
PUBLIC	?max_digits10@?$numeric_limits@M@std@@2HB	; std::numeric_limits<float>::max_digits10
PUBLIC	?max_exponent@?$numeric_limits@M@std@@2HB	; std::numeric_limits<float>::max_exponent
PUBLIC	?max_exponent10@?$numeric_limits@M@std@@2HB	; std::numeric_limits<float>::max_exponent10
PUBLIC	?min_exponent@?$numeric_limits@M@std@@2HB	; std::numeric_limits<float>::min_exponent
PUBLIC	?min_exponent10@?$numeric_limits@M@std@@2HB	; std::numeric_limits<float>::min_exponent10
PUBLIC	?value@?$integral_constant@I$0A@@std@@2IB	; std::integral_constant<unsigned int,0>::value
PUBLIC	?digits@?$numeric_limits@N@std@@2HB		; std::numeric_limits<double>::digits
PUBLIC	?digits10@?$numeric_limits@N@std@@2HB		; std::numeric_limits<double>::digits10
PUBLIC	?max_digits10@?$numeric_limits@N@std@@2HB	; std::numeric_limits<double>::max_digits10
PUBLIC	?max_exponent@?$numeric_limits@N@std@@2HB	; std::numeric_limits<double>::max_exponent
PUBLIC	?table_size@?$ctype@D@std@@2IB			; std::ctype<char>::table_size
PUBLIC	?max_exponent10@?$numeric_limits@N@std@@2HB	; std::numeric_limits<double>::max_exponent10
PUBLIC	?min_exponent@?$numeric_limits@N@std@@2HB	; std::numeric_limits<double>::min_exponent
PUBLIC	?min_exponent10@?$numeric_limits@N@std@@2HB	; std::numeric_limits<double>::min_exponent10
PUBLIC	?digits@?$numeric_limits@O@std@@2HB		; std::numeric_limits<long double>::digits
PUBLIC	?digits10@?$numeric_limits@O@std@@2HB		; std::numeric_limits<long double>::digits10
PUBLIC	?max_digits10@?$numeric_limits@O@std@@2HB	; std::numeric_limits<long double>::max_digits10
PUBLIC	?max_exponent@?$numeric_limits@O@std@@2HB	; std::numeric_limits<long double>::max_exponent
PUBLIC	?max_exponent10@?$numeric_limits@O@std@@2HB	; std::numeric_limits<long double>::max_exponent10
PUBLIC	?min_exponent@?$numeric_limits@O@std@@2HB	; std::numeric_limits<long double>::min_exponent
PUBLIC	?min_exponent10@?$numeric_limits@O@std@@2HB	; std::numeric_limits<long double>::min_exponent10
PUBLIC	?value@?$_Sizeof@U_Nil@std@@U12@U12@U12@U12@U12@U12@U12@@std@@2IB ; std::_Sizeof<std::_Nil,std::_Nil,std::_Nil,std::_Nil,std::_Nil,std::_Nil,std::_Nil,std::_Nil>::value
PUBLIC	?has_denorm@_Num_base@std@@2W4float_denorm_style@2@B ; std::_Num_base::has_denorm
PUBLIC	?has_denorm_loss@_Num_base@std@@2_NB		; std::_Num_base::has_denorm_loss
PUBLIC	?has_infinity@_Num_base@std@@2_NB		; std::_Num_base::has_infinity
PUBLIC	?has_quiet_NaN@_Num_base@std@@2_NB		; std::_Num_base::has_quiet_NaN
PUBLIC	?has_signaling_NaN@_Num_base@std@@2_NB		; std::_Num_base::has_signaling_NaN
PUBLIC	?is_bounded@_Num_base@std@@2_NB			; std::_Num_base::is_bounded
PUBLIC	?is_exact@_Num_base@std@@2_NB			; std::_Num_base::is_exact
PUBLIC	?is_iec559@_Num_base@std@@2_NB			; std::_Num_base::is_iec559
PUBLIC	?is_integer@_Num_base@std@@2_NB			; std::_Num_base::is_integer
PUBLIC	?is_modulo@_Num_base@std@@2_NB			; std::_Num_base::is_modulo
PUBLIC	?is_signed@_Num_base@std@@2_NB			; std::_Num_base::is_signed
PUBLIC	?is_specialized@_Num_base@std@@2_NB		; std::_Num_base::is_specialized
PUBLIC	?tinyness_before@_Num_base@std@@2_NB		; std::_Num_base::tinyness_before
_BSS	SEGMENT
?ShowFrameRate@@3HA DD 01H DUP (?)			; ShowFrameRate
?testFlag@@3HA DD 01H DUP (?)				; testFlag
?narrowFOV@@3HA DD 01H DUP (?)				; narrowFOV
?keyboardPickleOverride@@3HA DD 01H DUP (?)		; keyboardPickleOverride
?keyboardTriggerOverride@@3HA DD 01H DUP (?)		; keyboardTriggerOverride
?throttleOffsetRate@@3MA DD 01H DUP (?)			; throttleOffsetRate
?throttleOffset@@3MA DD 01H DUP (?)			; throttleOffset
?rudderOffset@@3MA DD 01H DUP (?)			; rudderOffset
?rudderOffsetRate@@3MA DD 01H DUP (?)			; rudderOffsetRate
?pitchStickOffset@@3MA DD 01H DUP (?)			; pitchStickOffset
?rollStickOffset@@3MA DD 01H DUP (?)			; rollStickOffset
?pitchStickOffsetRate@@3MA DD 01H DUP (?)		; pitchStickOffsetRate
?rollStickOffsetRate@@3MA DD 01H DUP (?)		; rollStickOffsetRate
?pitchRudderTrimRate@@3MA DD 01H DUP (?)		; pitchRudderTrimRate
?pitchAileronTrimRate@@3MA DD 01H DUP (?)		; pitchAileronTrimRate
?pitchElevatorTrimRate@@3MA DD 01H DUP (?)		; pitchElevatorTrimRate
?pitchManualTrim@@3MA DD 01H DUP (?)			; pitchManualTrim
?yawManualTrim@@3MA DD 01H DUP (?)			; yawManualTrim
?rollManualTrim@@3MA DD 01H DUP (?)			; rollManualTrim
?UseKeyboardThrottle@@3HA DD 01H DUP (?)		; UseKeyboardThrottle
?gDoOwnshipSmoke@@3HA DD 01H DUP (?)			; gDoOwnshipSmoke
?doVtune@@3HA DD 01H DUP (?)				; doVtune
?hlib@@3PAUHINSTANCE__@@A DD 01H DUP (?)		; hlib
?lTestFlag1@@3HA DD 01H DUP (?)				; lTestFlag1
?lTestFlag2@@3HA DD 01H DUP (?)				; lTestFlag2
_BSS	ENDS
;	COMDAT ?tinyness_before@_Num_base@std@@2_NB
CONST	SEGMENT
?tinyness_before@_Num_base@std@@2_NB DB 00H		; std::_Num_base::tinyness_before
CONST	ENDS
;	COMDAT ?is_specialized@_Num_base@std@@2_NB
CONST	SEGMENT
?is_specialized@_Num_base@std@@2_NB DB 00H		; std::_Num_base::is_specialized
CONST	ENDS
;	COMDAT ?is_signed@_Num_base@std@@2_NB
CONST	SEGMENT
?is_signed@_Num_base@std@@2_NB DB 00H			; std::_Num_base::is_signed
CONST	ENDS
;	COMDAT ?is_modulo@_Num_base@std@@2_NB
CONST	SEGMENT
?is_modulo@_Num_base@std@@2_NB DB 00H			; std::_Num_base::is_modulo
CONST	ENDS
;	COMDAT ?is_integer@_Num_base@std@@2_NB
CONST	SEGMENT
?is_integer@_Num_base@std@@2_NB DB 00H			; std::_Num_base::is_integer
CONST	ENDS
;	COMDAT ?is_iec559@_Num_base@std@@2_NB
CONST	SEGMENT
?is_iec559@_Num_base@std@@2_NB DB 00H			; std::_Num_base::is_iec559
CONST	ENDS
;	COMDAT ?is_exact@_Num_base@std@@2_NB
CONST	SEGMENT
?is_exact@_Num_base@std@@2_NB DB 00H			; std::_Num_base::is_exact
CONST	ENDS
;	COMDAT ?is_bounded@_Num_base@std@@2_NB
CONST	SEGMENT
?is_bounded@_Num_base@std@@2_NB DB 00H			; std::_Num_base::is_bounded
CONST	ENDS
;	COMDAT ?has_signaling_NaN@_Num_base@std@@2_NB
CONST	SEGMENT
?has_signaling_NaN@_Num_base@std@@2_NB DB 00H		; std::_Num_base::has_signaling_NaN
CONST	ENDS
;	COMDAT ?has_quiet_NaN@_Num_base@std@@2_NB
CONST	SEGMENT
?has_quiet_NaN@_Num_base@std@@2_NB DB 00H		; std::_Num_base::has_quiet_NaN
CONST	ENDS
;	COMDAT ?has_infinity@_Num_base@std@@2_NB
CONST	SEGMENT
?has_infinity@_Num_base@std@@2_NB DB 00H		; std::_Num_base::has_infinity
CONST	ENDS
;	COMDAT ?has_denorm_loss@_Num_base@std@@2_NB
CONST	SEGMENT
?has_denorm_loss@_Num_base@std@@2_NB DB 00H		; std::_Num_base::has_denorm_loss
CONST	ENDS
;	COMDAT ?has_denorm@_Num_base@std@@2W4float_denorm_style@2@B
CONST	SEGMENT
?has_denorm@_Num_base@std@@2W4float_denorm_style@2@B DD 00H ; std::_Num_base::has_denorm
CONST	ENDS
;	COMDAT ?value@?$_Sizeof@U_Nil@std@@U12@U12@U12@U12@U12@U12@U12@@std@@2IB
CONST	SEGMENT
?value@?$_Sizeof@U_Nil@std@@U12@U12@U12@U12@U12@U12@U12@@std@@2IB DD 00H ; std::_Sizeof<std::_Nil,std::_Nil,std::_Nil,std::_Nil,std::_Nil,std::_Nil,std::_Nil,std::_Nil>::value
CONST	ENDS
;	COMDAT ?min_exponent10@?$numeric_limits@O@std@@2HB
CONST	SEGMENT
?min_exponent10@?$numeric_limits@O@std@@2HB DD 0fffffecdH ; std::numeric_limits<long double>::min_exponent10
CONST	ENDS
;	COMDAT ?min_exponent@?$numeric_limits@O@std@@2HB
CONST	SEGMENT
?min_exponent@?$numeric_limits@O@std@@2HB DD 0fffffc03H	; std::numeric_limits<long double>::min_exponent
CONST	ENDS
;	COMDAT ?max_exponent10@?$numeric_limits@O@std@@2HB
CONST	SEGMENT
?max_exponent10@?$numeric_limits@O@std@@2HB DD 0134H	; std::numeric_limits<long double>::max_exponent10
CONST	ENDS
;	COMDAT ?max_exponent@?$numeric_limits@O@std@@2HB
CONST	SEGMENT
?max_exponent@?$numeric_limits@O@std@@2HB DD 0400H	; std::numeric_limits<long double>::max_exponent
CONST	ENDS
;	COMDAT ?max_digits10@?$numeric_limits@O@std@@2HB
CONST	SEGMENT
?max_digits10@?$numeric_limits@O@std@@2HB DD 011H	; std::numeric_limits<long double>::max_digits10
CONST	ENDS
;	COMDAT ?digits10@?$numeric_limits@O@std@@2HB
CONST	SEGMENT
?digits10@?$numeric_limits@O@std@@2HB DD 0fH		; std::numeric_limits<long double>::digits10
CONST	ENDS
;	COMDAT ?digits@?$numeric_limits@O@std@@2HB
CONST	SEGMENT
?digits@?$numeric_limits@O@std@@2HB DD 035H		; std::numeric_limits<long double>::digits
CONST	ENDS
;	COMDAT ?min_exponent10@?$numeric_limits@N@std@@2HB
CONST	SEGMENT
?min_exponent10@?$numeric_limits@N@std@@2HB DD 0fffffecdH ; std::numeric_limits<double>::min_exponent10
CONST	ENDS
;	COMDAT ?min_exponent@?$numeric_limits@N@std@@2HB
CONST	SEGMENT
?min_exponent@?$numeric_limits@N@std@@2HB DD 0fffffc03H	; std::numeric_limits<double>::min_exponent
CONST	ENDS
;	COMDAT ?max_exponent10@?$numeric_limits@N@std@@2HB
CONST	SEGMENT
?max_exponent10@?$numeric_limits@N@std@@2HB DD 0134H	; std::numeric_limits<double>::max_exponent10
CONST	ENDS
;	COMDAT ?table_size@?$ctype@D@std@@2IB
CONST	SEGMENT
?table_size@?$ctype@D@std@@2IB DD 0100H			; std::ctype<char>::table_size
CONST	ENDS
;	COMDAT ?max_exponent@?$numeric_limits@N@std@@2HB
CONST	SEGMENT
?max_exponent@?$numeric_limits@N@std@@2HB DD 0400H	; std::numeric_limits<double>::max_exponent
CONST	ENDS
;	COMDAT ?max_digits10@?$numeric_limits@N@std@@2HB
CONST	SEGMENT
?max_digits10@?$numeric_limits@N@std@@2HB DD 011H	; std::numeric_limits<double>::max_digits10
CONST	ENDS
;	COMDAT ?digits10@?$numeric_limits@N@std@@2HB
CONST	SEGMENT
?digits10@?$numeric_limits@N@std@@2HB DD 0fH		; std::numeric_limits<double>::digits10
CONST	ENDS
;	COMDAT ?digits@?$numeric_limits@N@std@@2HB
CONST	SEGMENT
?digits@?$numeric_limits@N@std@@2HB DD 035H		; std::numeric_limits<double>::digits
CONST	ENDS
;	COMDAT ?value@?$integral_constant@I$0A@@std@@2IB
CONST	SEGMENT
?value@?$integral_constant@I$0A@@std@@2IB DD 00H	; std::integral_constant<unsigned int,0>::value
CONST	ENDS
;	COMDAT ?min_exponent10@?$numeric_limits@M@std@@2HB
CONST	SEGMENT
?min_exponent10@?$numeric_limits@M@std@@2HB DD 0ffffffdbH ; std::numeric_limits<float>::min_exponent10
CONST	ENDS
;	COMDAT ?min_exponent@?$numeric_limits@M@std@@2HB
CONST	SEGMENT
?min_exponent@?$numeric_limits@M@std@@2HB DD 0ffffff83H	; std::numeric_limits<float>::min_exponent
CONST	ENDS
;	COMDAT ?max_exponent10@?$numeric_limits@M@std@@2HB
CONST	SEGMENT
?max_exponent10@?$numeric_limits@M@std@@2HB DD 026H	; std::numeric_limits<float>::max_exponent10
CONST	ENDS
;	COMDAT ?max_exponent@?$numeric_limits@M@std@@2HB
CONST	SEGMENT
?max_exponent@?$numeric_limits@M@std@@2HB DD 080H	; std::numeric_limits<float>::max_exponent
CONST	ENDS
;	COMDAT ?max_digits10@?$numeric_limits@M@std@@2HB
CONST	SEGMENT
?max_digits10@?$numeric_limits@M@std@@2HB DD 09H	; std::numeric_limits<float>::max_digits10
CONST	ENDS
;	COMDAT ?digits10@?$numeric_limits@M@std@@2HB
CONST	SEGMENT
?digits10@?$numeric_limits@M@std@@2HB DD 06H		; std::numeric_limits<float>::digits10
CONST	ENDS
;	COMDAT ?digits@?$numeric_limits@M@std@@2HB
CONST	SEGMENT
?digits@?$numeric_limits@M@std@@2HB DD 018H		; std::numeric_limits<float>::digits
CONST	ENDS
;	COMDAT ?digits10@?$numeric_limits@_K@std@@2HB
CONST	SEGMENT
?digits10@?$numeric_limits@_K@std@@2HB DD 013H		; std::numeric_limits<unsigned __int64>::digits10
CONST	ENDS
;	COMDAT ?digits@?$numeric_limits@_K@std@@2HB
CONST	SEGMENT
?digits@?$numeric_limits@_K@std@@2HB DD 040H		; std::numeric_limits<unsigned __int64>::digits
CONST	ENDS
;	COMDAT ?is_signed@?$numeric_limits@_K@std@@2_NB
CONST	SEGMENT
?is_signed@?$numeric_limits@_K@std@@2_NB DB 00H		; std::numeric_limits<unsigned __int64>::is_signed
CONST	ENDS
;	COMDAT ?none@?$_Locbase@H@std@@2HB
CONST	SEGMENT
?none@?$_Locbase@H@std@@2HB DD 00H			; std::_Locbase<int>::none
CONST	ENDS
;	COMDAT ?all@?$_Locbase@H@std@@2HB
CONST	SEGMENT
?all@?$_Locbase@H@std@@2HB DD 03fH			; std::_Locbase<int>::all
CONST	ENDS
;	COMDAT ?messages@?$_Locbase@H@std@@2HB
CONST	SEGMENT
?messages@?$_Locbase@H@std@@2HB DD 020H			; std::_Locbase<int>::messages
CONST	ENDS
;	COMDAT ?time@?$_Locbase@H@std@@2HB
CONST	SEGMENT
?time@?$_Locbase@H@std@@2HB DD 010H			; std::_Locbase<int>::time
CONST	ENDS
;	COMDAT ?numeric@?$_Locbase@H@std@@2HB
CONST	SEGMENT
?numeric@?$_Locbase@H@std@@2HB DD 08H			; std::_Locbase<int>::numeric
CONST	ENDS
;	COMDAT ?monetary@?$_Locbase@H@std@@2HB
CONST	SEGMENT
?monetary@?$_Locbase@H@std@@2HB DD 04H			; std::_Locbase<int>::monetary
CONST	ENDS
;	COMDAT ?ctype@?$_Locbase@H@std@@2HB
CONST	SEGMENT
?ctype@?$_Locbase@H@std@@2HB DD 02H			; std::_Locbase<int>::ctype
CONST	ENDS
;	COMDAT ?collate@?$_Locbase@H@std@@2HB
CONST	SEGMENT
?collate@?$_Locbase@H@std@@2HB DD 01H			; std::_Locbase<int>::collate
CONST	ENDS
;	COMDAT ?digits10@?$numeric_limits@_J@std@@2HB
CONST	SEGMENT
?digits10@?$numeric_limits@_J@std@@2HB DD 012H		; std::numeric_limits<__int64>::digits10
CONST	ENDS
;	COMDAT ?digits@?$numeric_limits@_J@std@@2HB
CONST	SEGMENT
?digits@?$numeric_limits@_J@std@@2HB DD 03fH		; std::numeric_limits<__int64>::digits
CONST	ENDS
;	COMDAT ?is_signed@?$numeric_limits@_J@std@@2_NB
CONST	SEGMENT
?is_signed@?$numeric_limits@_J@std@@2_NB DB 01H		; std::numeric_limits<__int64>::is_signed
CONST	ENDS
;	COMDAT ?digits10@?$numeric_limits@K@std@@2HB
CONST	SEGMENT
?digits10@?$numeric_limits@K@std@@2HB DD 09H		; std::numeric_limits<unsigned long>::digits10
CONST	ENDS
;	COMDAT ?digits@?$numeric_limits@K@std@@2HB
CONST	SEGMENT
?digits@?$numeric_limits@K@std@@2HB DD 020H		; std::numeric_limits<unsigned long>::digits
CONST	ENDS
;	COMDAT ?is_signed@?$numeric_limits@K@std@@2_NB
CONST	SEGMENT
?is_signed@?$numeric_limits@K@std@@2_NB DB 00H		; std::numeric_limits<unsigned long>::is_signed
CONST	ENDS
;	COMDAT ?digits10@?$numeric_limits@J@std@@2HB
CONST	SEGMENT
?digits10@?$numeric_limits@J@std@@2HB DD 09H		; std::numeric_limits<long>::digits10
CONST	ENDS
;	COMDAT ?digits@?$numeric_limits@J@std@@2HB
CONST	SEGMENT
?digits@?$numeric_limits@J@std@@2HB DD 01fH		; std::numeric_limits<long>::digits
CONST	ENDS
;	COMDAT ?is_signed@?$numeric_limits@J@std@@2_NB
CONST	SEGMENT
?is_signed@?$numeric_limits@J@std@@2_NB DB 01H		; std::numeric_limits<long>::is_signed
CONST	ENDS
;	COMDAT ?digits10@?$numeric_limits@I@std@@2HB
CONST	SEGMENT
?digits10@?$numeric_limits@I@std@@2HB DD 09H		; std::numeric_limits<unsigned int>::digits10
CONST	ENDS
;	COMDAT ?digits@?$numeric_limits@I@std@@2HB
CONST	SEGMENT
?digits@?$numeric_limits@I@std@@2HB DD 020H		; std::numeric_limits<unsigned int>::digits
CONST	ENDS
;	COMDAT ?is_signed@?$numeric_limits@I@std@@2_NB
CONST	SEGMENT
?is_signed@?$numeric_limits@I@std@@2_NB DB 00H		; std::numeric_limits<unsigned int>::is_signed
CONST	ENDS
;	COMDAT ?digits10@?$numeric_limits@H@std@@2HB
CONST	SEGMENT
?digits10@?$numeric_limits@H@std@@2HB DD 09H		; std::numeric_limits<int>::digits10
CONST	ENDS
;	COMDAT ?digits@?$numeric_limits@H@std@@2HB
CONST	SEGMENT
?digits@?$numeric_limits@H@std@@2HB DD 01fH		; std::numeric_limits<int>::digits
CONST	ENDS
;	COMDAT ?value@?$_Sizeof@HU_Nil@std@@U12@U12@U12@U12@U12@U12@@std@@2IB
CONST	SEGMENT
?value@?$_Sizeof@HU_Nil@std@@U12@U12@U12@U12@U12@U12@@std@@2IB DD 01H ; std::_Sizeof<int,std::_Nil,std::_Nil,std::_Nil,std::_Nil,std::_Nil,std::_Nil,std::_Nil>::value
CONST	ENDS
;	COMDAT ?is_signed@?$numeric_limits@H@std@@2_NB
CONST	SEGMENT
?is_signed@?$numeric_limits@H@std@@2_NB DB 01H		; std::numeric_limits<int>::is_signed
CONST	ENDS
;	COMDAT ?digits10@?$numeric_limits@G@std@@2HB
CONST	SEGMENT
?digits10@?$numeric_limits@G@std@@2HB DD 04H		; std::numeric_limits<unsigned short>::digits10
CONST	ENDS
;	COMDAT ?digits@?$numeric_limits@G@std@@2HB
CONST	SEGMENT
?digits@?$numeric_limits@G@std@@2HB DD 010H		; std::numeric_limits<unsigned short>::digits
CONST	ENDS
;	COMDAT ?is_signed@?$numeric_limits@G@std@@2_NB
CONST	SEGMENT
?is_signed@?$numeric_limits@G@std@@2_NB DB 00H		; std::numeric_limits<unsigned short>::is_signed
CONST	ENDS
;	COMDAT ?digits10@?$numeric_limits@F@std@@2HB
CONST	SEGMENT
?digits10@?$numeric_limits@F@std@@2HB DD 04H		; std::numeric_limits<short>::digits10
CONST	ENDS
;	COMDAT ?digits@?$numeric_limits@F@std@@2HB
CONST	SEGMENT
?digits@?$numeric_limits@F@std@@2HB DD 0fH		; std::numeric_limits<short>::digits
CONST	ENDS
;	COMDAT ?is_signed@?$numeric_limits@F@std@@2_NB
CONST	SEGMENT
?is_signed@?$numeric_limits@F@std@@2_NB DB 01H		; std::numeric_limits<short>::is_signed
CONST	ENDS
;	COMDAT ?value@?$integral_constant@_N$00@std@@2_NB
CONST	SEGMENT
?value@?$integral_constant@_N$00@std@@2_NB DB 01H	; std::integral_constant<bool,1>::value
CONST	ENDS
;	COMDAT ?digits10@?$numeric_limits@E@std@@2HB
CONST	SEGMENT
?digits10@?$numeric_limits@E@std@@2HB DD 02H		; std::numeric_limits<unsigned char>::digits10
CONST	ENDS
;	COMDAT ?digits@?$numeric_limits@E@std@@2HB
CONST	SEGMENT
?digits@?$numeric_limits@E@std@@2HB DD 08H		; std::numeric_limits<unsigned char>::digits
CONST	ENDS
;	COMDAT ?value@?$integral_constant@_N$0A@@std@@2_NB
CONST	SEGMENT
?value@?$integral_constant@_N$0A@@std@@2_NB DB 00H	; std::integral_constant<bool,0>::value
CONST	ENDS
;	COMDAT ?is_signed@?$numeric_limits@E@std@@2_NB
CONST	SEGMENT
?is_signed@?$numeric_limits@E@std@@2_NB DB 00H		; std::numeric_limits<unsigned char>::is_signed
CONST	ENDS
;	COMDAT ?_Stream_err@failure@ios_base@std@@0W4io_errc@43@B
CONST	SEGMENT
?_Stream_err@failure@ios_base@std@@0W4io_errc@43@B DD 01H ; std::ios_base::failure::_Stream_err
CONST	ENDS
;	COMDAT ?digits10@?$numeric_limits@C@std@@2HB
CONST	SEGMENT
?digits10@?$numeric_limits@C@std@@2HB DD 02H		; std::numeric_limits<signed char>::digits10
CONST	ENDS
;	COMDAT ?digits@?$numeric_limits@C@std@@2HB
CONST	SEGMENT
?digits@?$numeric_limits@C@std@@2HB DD 07H		; std::numeric_limits<signed char>::digits
CONST	ENDS
;	COMDAT ?is_signed@?$numeric_limits@C@std@@2_NB
CONST	SEGMENT
?is_signed@?$numeric_limits@C@std@@2_NB DB 01H		; std::numeric_limits<signed char>::is_signed
CONST	ENDS
;	COMDAT ?end@?$_Iosb@H@std@@2W4_Seekdir@12@B
CONST	SEGMENT
?end@?$_Iosb@H@std@@2W4_Seekdir@12@B DD 02H		; std::_Iosb<int>::end
CONST	ENDS
CONST	SEGMENT
_L_2	DD	03f317218r			; 0.693147
_NEAR_CLIP DD	03f800000r			; 1
CONST	ENDS
;	COMDAT ?cur@?$_Iosb@H@std@@2W4_Seekdir@12@B
CONST	SEGMENT
?cur@?$_Iosb@H@std@@2W4_Seekdir@12@B DD 01H		; std::_Iosb<int>::cur
CONST	ENDS
;	COMDAT ?beg@?$_Iosb@H@std@@2W4_Seekdir@12@B
CONST	SEGMENT
?beg@?$_Iosb@H@std@@2W4_Seekdir@12@B DD 00H		; std::_Iosb<int>::beg
CONST	ENDS
;	COMDAT ?binary@?$_Iosb@H@std@@2W4_Openmode@12@B
CONST	SEGMENT
?binary@?$_Iosb@H@std@@2W4_Openmode@12@B DD 020H	; std::_Iosb<int>::binary
CONST	ENDS
;	COMDAT ?_Noreplace@?$_Iosb@H@std@@2W4_Openmode@12@B
CONST	SEGMENT
?_Noreplace@?$_Iosb@H@std@@2W4_Openmode@12@B DD 080H	; std::_Iosb<int>::_Noreplace
CONST	ENDS
;	COMDAT ?_Nocreate@?$_Iosb@H@std@@2W4_Openmode@12@B
CONST	SEGMENT
?_Nocreate@?$_Iosb@H@std@@2W4_Openmode@12@B DD 040H	; std::_Iosb<int>::_Nocreate
CONST	ENDS
;	COMDAT ?trunc@?$_Iosb@H@std@@2W4_Openmode@12@B
CONST	SEGMENT
?trunc@?$_Iosb@H@std@@2W4_Openmode@12@B DD 010H		; std::_Iosb<int>::trunc
CONST	ENDS
;	COMDAT ?app@?$_Iosb@H@std@@2W4_Openmode@12@B
CONST	SEGMENT
?app@?$_Iosb@H@std@@2W4_Openmode@12@B DD 08H		; std::_Iosb<int>::app
CONST	ENDS
;	COMDAT ?digits10@?$numeric_limits@_N@std@@2HB
CONST	SEGMENT
?digits10@?$numeric_limits@_N@std@@2HB DD 00H		; std::numeric_limits<bool>::digits10
CONST	ENDS
;	COMDAT ?ate@?$_Iosb@H@std@@2W4_Openmode@12@B
CONST	SEGMENT
?ate@?$_Iosb@H@std@@2W4_Openmode@12@B DD 04H		; std::_Iosb<int>::ate
CONST	ENDS
;	COMDAT ?digits@?$numeric_limits@_N@std@@2HB
CONST	SEGMENT
?digits@?$numeric_limits@_N@std@@2HB DD 01H		; std::numeric_limits<bool>::digits
CONST	ENDS
;	COMDAT ?out@?$_Iosb@H@std@@2W4_Openmode@12@B
CONST	SEGMENT
?out@?$_Iosb@H@std@@2W4_Openmode@12@B DD 02H		; std::_Iosb<int>::out
CONST	ENDS
;	COMDAT ?is_signed@?$numeric_limits@_N@std@@2_NB
CONST	SEGMENT
?is_signed@?$numeric_limits@_N@std@@2_NB DB 00H		; std::numeric_limits<bool>::is_signed
CONST	ENDS
;	COMDAT ?in@?$_Iosb@H@std@@2W4_Openmode@12@B
CONST	SEGMENT
?in@?$_Iosb@H@std@@2W4_Openmode@12@B DD 01H		; std::_Iosb<int>::in
CONST	ENDS
;	COMDAT ?is_modulo@?$numeric_limits@_N@std@@2_NB
CONST	SEGMENT
?is_modulo@?$numeric_limits@_N@std@@2_NB DB 00H		; std::numeric_limits<bool>::is_modulo
CONST	ENDS
;	COMDAT ?_Hardfail@?$_Iosb@H@std@@2W4_Iostate@12@B
CONST	SEGMENT
?_Hardfail@?$_Iosb@H@std@@2W4_Iostate@12@B DD 010H	; std::_Iosb<int>::_Hardfail
CONST	ENDS
;	COMDAT ?badbit@?$_Iosb@H@std@@2W4_Iostate@12@B
CONST	SEGMENT
?badbit@?$_Iosb@H@std@@2W4_Iostate@12@B DD 04H		; std::_Iosb<int>::badbit
CONST	ENDS
;	COMDAT ?failbit@?$_Iosb@H@std@@2W4_Iostate@12@B
CONST	SEGMENT
?failbit@?$_Iosb@H@std@@2W4_Iostate@12@B DD 02H		; std::_Iosb<int>::failbit
CONST	ENDS
;	COMDAT ?eofbit@?$_Iosb@H@std@@2W4_Iostate@12@B
CONST	SEGMENT
?eofbit@?$_Iosb@H@std@@2W4_Iostate@12@B DD 01H		; std::_Iosb<int>::eofbit
CONST	ENDS
;	COMDAT ?goodbit@?$_Iosb@H@std@@2W4_Iostate@12@B
CONST	SEGMENT
?goodbit@?$_Iosb@H@std@@2W4_Iostate@12@B DD 00H		; std::_Iosb<int>::goodbit
CONST	ENDS
;	COMDAT ?floatfield@?$_Iosb@H@std@@2W4_Fmtflags@12@B
CONST	SEGMENT
?floatfield@?$_Iosb@H@std@@2W4_Fmtflags@12@B DD 03000H	; std::_Iosb<int>::floatfield
CONST	ENDS
;	COMDAT ?basefield@?$_Iosb@H@std@@2W4_Fmtflags@12@B
CONST	SEGMENT
?basefield@?$_Iosb@H@std@@2W4_Fmtflags@12@B DD 0e00H	; std::_Iosb<int>::basefield
CONST	ENDS
;	COMDAT ?adjustfield@?$_Iosb@H@std@@2W4_Fmtflags@12@B
CONST	SEGMENT
?adjustfield@?$_Iosb@H@std@@2W4_Fmtflags@12@B DD 01c0H	; std::_Iosb<int>::adjustfield
CONST	ENDS
;	COMDAT ?_Stdio@?$_Iosb@H@std@@2W4_Fmtflags@12@B
CONST	SEGMENT
?_Stdio@?$_Iosb@H@std@@2W4_Fmtflags@12@B DD 08000H	; std::_Iosb<int>::_Stdio
CONST	ENDS
;	COMDAT ?digits10@?$numeric_limits@_W@std@@2HB
CONST	SEGMENT
?digits10@?$numeric_limits@_W@std@@2HB DD 04H		; std::numeric_limits<wchar_t>::digits10
CONST	ENDS
;	COMDAT ?boolalpha@?$_Iosb@H@std@@2W4_Fmtflags@12@B
CONST	SEGMENT
?boolalpha@?$_Iosb@H@std@@2W4_Fmtflags@12@B DD 04000H	; std::_Iosb<int>::boolalpha
CONST	ENDS
;	COMDAT ?hexfloat@?$_Iosb@H@std@@2W4_Fmtflags@12@B
CONST	SEGMENT
?hexfloat@?$_Iosb@H@std@@2W4_Fmtflags@12@B DD 03000H	; std::_Iosb<int>::hexfloat
CONST	ENDS
;	COMDAT ?digits@?$numeric_limits@_W@std@@2HB
CONST	SEGMENT
?digits@?$numeric_limits@_W@std@@2HB DD 010H		; std::numeric_limits<wchar_t>::digits
CONST	ENDS
;	COMDAT ?fixed@?$_Iosb@H@std@@2W4_Fmtflags@12@B
CONST	SEGMENT
?fixed@?$_Iosb@H@std@@2W4_Fmtflags@12@B DD 02000H	; std::_Iosb<int>::fixed
CONST	ENDS
;	COMDAT ?is_signed@?$numeric_limits@_W@std@@2_NB
CONST	SEGMENT
?is_signed@?$numeric_limits@_W@std@@2_NB DB 00H		; std::numeric_limits<wchar_t>::is_signed
CONST	ENDS
;	COMDAT ?scientific@?$_Iosb@H@std@@2W4_Fmtflags@12@B
CONST	SEGMENT
?scientific@?$_Iosb@H@std@@2W4_Fmtflags@12@B DD 01000H	; std::_Iosb<int>::scientific
CONST	ENDS
;	COMDAT ?hex@?$_Iosb@H@std@@2W4_Fmtflags@12@B
CONST	SEGMENT
?hex@?$_Iosb@H@std@@2W4_Fmtflags@12@B DD 0800H		; std::_Iosb<int>::hex
CONST	ENDS
;	COMDAT ?oct@?$_Iosb@H@std@@2W4_Fmtflags@12@B
CONST	SEGMENT
?oct@?$_Iosb@H@std@@2W4_Fmtflags@12@B DD 0400H		; std::_Iosb<int>::oct
CONST	ENDS
;	COMDAT ?dec@?$_Iosb@H@std@@2W4_Fmtflags@12@B
CONST	SEGMENT
?dec@?$_Iosb@H@std@@2W4_Fmtflags@12@B DD 0200H		; std::_Iosb<int>::dec
CONST	ENDS
;	COMDAT ?internal@?$_Iosb@H@std@@2W4_Fmtflags@12@B
CONST	SEGMENT
?internal@?$_Iosb@H@std@@2W4_Fmtflags@12@B DD 0100H	; std::_Iosb<int>::internal
CONST	ENDS
;	COMDAT ?right@?$_Iosb@H@std@@2W4_Fmtflags@12@B
CONST	SEGMENT
?right@?$_Iosb@H@std@@2W4_Fmtflags@12@B DD 080H		; std::_Iosb<int>::right
CONST	ENDS
;	COMDAT ?left@?$_Iosb@H@std@@2W4_Fmtflags@12@B
CONST	SEGMENT
?left@?$_Iosb@H@std@@2W4_Fmtflags@12@B DD 040H		; std::_Iosb<int>::left
CONST	ENDS
;	COMDAT ?showpos@?$_Iosb@H@std@@2W4_Fmtflags@12@B
CONST	SEGMENT
?showpos@?$_Iosb@H@std@@2W4_Fmtflags@12@B DD 020H	; std::_Iosb<int>::showpos
CONST	ENDS
;	COMDAT ?showpoint@?$_Iosb@H@std@@2W4_Fmtflags@12@B
CONST	SEGMENT
?showpoint@?$_Iosb@H@std@@2W4_Fmtflags@12@B DD 010H	; std::_Iosb<int>::showpoint
CONST	ENDS
;	COMDAT ?showbase@?$_Iosb@H@std@@2W4_Fmtflags@12@B
CONST	SEGMENT
?showbase@?$_Iosb@H@std@@2W4_Fmtflags@12@B DD 08H	; std::_Iosb<int>::showbase
CONST	ENDS
;	COMDAT ?digits10@?$numeric_limits@D@std@@2HB
CONST	SEGMENT
?digits10@?$numeric_limits@D@std@@2HB DD 02H		; std::numeric_limits<char>::digits10
CONST	ENDS
;	COMDAT ?uppercase@?$_Iosb@H@std@@2W4_Fmtflags@12@B
CONST	SEGMENT
?uppercase@?$_Iosb@H@std@@2W4_Fmtflags@12@B DD 04H	; std::_Iosb<int>::uppercase
CONST	ENDS
;	COMDAT ?digits@?$numeric_limits@D@std@@2HB
CONST	SEGMENT
?digits@?$numeric_limits@D@std@@2HB DD 07H		; std::numeric_limits<char>::digits
CONST	ENDS
;	COMDAT ?unitbuf@?$_Iosb@H@std@@2W4_Fmtflags@12@B
CONST	SEGMENT
?unitbuf@?$_Iosb@H@std@@2W4_Fmtflags@12@B DD 02H	; std::_Iosb<int>::unitbuf
CONST	ENDS
;	COMDAT ?is_signed@?$numeric_limits@D@std@@2_NB
CONST	SEGMENT
?is_signed@?$numeric_limits@D@std@@2_NB DB 01H		; std::numeric_limits<char>::is_signed
CONST	ENDS
;	COMDAT ?skipws@?$_Iosb@H@std@@2W4_Fmtflags@12@B
CONST	SEGMENT
?skipws@?$_Iosb@H@std@@2W4_Fmtflags@12@B DD 01H		; std::_Iosb<int>::skipws
CONST	ENDS
_DATA	SEGMENT
_theFault DD	01H
?pauseFn@@3P6AHXZA DD FLAT:?VtuneNoop@@YAHXZ		; pauseFn
?resumeFn@@3P6AHXZA DD FLAT:?VtuneNoop@@YAHXZ		; resumeFn
_matrix33_ident DD 03f800000r			; 1
	DD	000000000r			; 0
	DD	000000000r			; 0
	DD	000000000r			; 0
	DD	03f800000r			; 1
	DD	000000000r			; 0
	DD	000000000r			; 0
	DD	000000000r			; 0
	DD	03f800000r			; 1
_matrix44_ident DD 03f800000r			; 1
	DD	000000000r			; 0
	DD	000000000r			; 0
	DD	000000000r			; 0
	DD	000000000r			; 0
	DD	03f800000r			; 1
	DD	000000000r			; 0
	DD	000000000r			; 0
	DD	000000000r			; 0
	DD	000000000r			; 0
	DD	03f800000r			; 1
	DD	000000000r			; 0
	DD	000000000r			; 0
	DD	000000000r			; 0
	DD	000000000r			; 0
	DD	03f800000r			; 1
_cloudPntList DD 0c5bcc000r			; -6040
	DD	0c4070000r			; -540
	DD	0c694ac00r			; -19030
	DD	0c6de1c00r			; -28430
	DD	0c4dfc000r			; -1790
	DD	046dcc800r			; 28260
	DD	047104200r			; 36930
	DD	045732000r			; 3890
	DD	04744ea00r			; 50410
	DD	045336000r			; 2870
	DD	0c4d48000r			; -1700
	DD	04736da00r			; 46810
	DD	0c763ee00r			; -58350
	DD	0c4d48000r			; -1700
	DD	0c64c1000r			; -13060
	DD	046f2bc00r			; 31070
	DD	045480000r			; 3200
	DD	0c7293800r			; -43320
	DD	0c7bdc400r			; -97160
	DD	0c4d48000r			; -1700
	DD	04576e000r			; 3950
	DD	0c792e000r			; -75200
	DD	0c4bb8000r			; -1500
	DD	047957400r			; 76520
	DD	04759ee00r			; 55790
	DD	0c5a1e000r			; -5180
	DD	0c7a24e00r			; -83100
	DD	0c7473800r			; -51000
	DD	0c3a00000r			; -320
	DD	0c7829100r			; -66850
	DD	047733400r			; 62260
	DD	0c3a00000r			; -320
	DD	047708200r			; 61570
	DD	0c7710e00r			; -61710
	DD	0c550c000r			; -3340
	DD	046fb7c00r			; 32190
	DD	0c7719a00r			; -61850
	DD	0c7483200r			; -51250
	DD	047543a00r			; 54330
	DD	0c5bcc000r			; -6040
	DD	0c7495400r			; -51540
	DD	0c694ac00r			; -19030
	DD	0c6a7a800r			; -21460
	DD	0c74b0200r			; -51970
	DD	0468e8000r			; 18240
	DD	047298800r			; 43400
	DD	0c74bf200r			; -52210
	DD	046bc7000r			; 24120
	DD	0c749f400r			; -51700
	DD	0c74bc000r			; -52160
	DD	046948400r			; 19010
	DD	0c605e800r			; -8570
	DD	0c7488200r			; -51330
	DD	0c74ca600r			; -52390
	DD	04731bc00r			; 45500
	DD	0c7509800r			; -53400
	DD	0c6725800r			; -15510
	DD	0c7719a00r			; -61850
	DD	0c7483200r			; -51250
	DD	047543a00r			; 54330
	DD	047553400r			; 54580
	DD	0c74ddc00r			; -52700
	DD	0479a5600r			; 79020
	DD	047a7e400r			; 85960
	DD	0c74c5600r			; -52310
	DD	0477d4800r			; 64840
	DD	0c7c44500r			; -100490
	DD	0c74d1400r			; -52500
	DD	047ac2600r			; 88140
	DD	0c7a1ae00r			; -82780
	DD	0c749ea00r			; -51690
	DD	0c7bce300r			; -96710
	DD	0c6126800r			; -9370
	DD	0c7495400r			; -51540
	DD	043cd0000r			; 410
	DD	0c6a7a800r			; -21460
	DD	0c74a8a00r			; -51850
	DD	0473fae00r			; 49070
	DD	0457c8000r			; 4040
	DD	0c74e4a00r			; -52810
	DD	047871e00r			; 69180
	DD	0c6cbc000r			; -26080
	DD	0c74bc000r			; -52160
	DD	046984400r			; 19490
	DD	0452fa000r			; 2810
	DD	0c7488200r			; -51330
	DD	0c7081800r			; -34840
	DD	0c7719a00r			; -61850
	DD	0c749d600r			; -51670
	DD	047b17600r			; 90860
	DD	047553400r			; 54580
	DD	0c74ddc00r			; -52700
	DD	0479a5600r			; 79020
	DD	047a7e400r			; 85960
	DD	0c74c5600r			; -52310
	DD	0477d4800r			; 64840
	DD	0c7c44500r			; -100490
	DD	0c74d1400r			; -52500
	DD	047ac2600r			; 88140
	DD	047c04e00r			; 98460
	DD	0c74d1400r			; -52500
	DD	0c732a200r			; -45730
	DD	0467b9000r			; 16100
	DD	0c7487800r			; -51320
	DD	0c749a400r			; -51620
	DD	047636c00r			; 58220
	DD	0c74e0400r			; -52740
	DD	0c760b000r			; -57520
	DD	0c6126800r			; -9370
	DD	0c4070000r			; -540
	DD	043cd0000r			; 410
	DD	0c4e60000r			; -1840
	DD	0c6a30c00r			; -20870
	DD	0470a6600r			; 35430
	DD	0c7230c00r			; -41740
	DD	046924000r			; 18720
	DD	04797d600r			; 77740
	DD	0460d9000r			; 9060
	DD	0c616c800r			; -9650
	DD	0c7921300r			; -74790
_lightningPosList DD 041300000r			; 11
	DD	000000000r			; 0
	DD	040e00000r			; 7
	DD	040a00000r			; 5
	DD	041100000r			; 9
	DD	041000000r			; 8
	DD	041000000r			; 8
	DD	041600000r			; 14
	DD	041800000r			; 16
	DD	041a00000r			; 20
	DD	041200000r			; 10
	DD	041c00000r			; 24
	DD	041300000r			; 11
	DD	041d80000r			; 27
	DD	040c00000r			; 6
	DD	041f00000r			; 30
	DD	040e00000r			; 7
	DD	042040000r			; 33
	DD	03f800000r			; 1
	DD	042180000r			; 38
	DD	040a00000r			; 5
	DD	042280000r			; 42
	DD	040a00000r			; 5
	DD	042340000r			; 45
	DD	041400000r			; 12
	DD	042400000r			; 48
	DD	041a00000r			; 20
	DD	042500000r			; 52
	DD	041a00000r			; 20
	DD	042680000r			; 58
	DD	041b80000r			; 23
	DD	042740000r			; 61
	DD	041b00000r			; 22
	DD	0427c0000r			; 63
	DD	041b00000r			; 22
	DD	042840000r			; 66
	DD	041c80000r			; 25
	DD	042880000r			; 68
	DD	041a00000r			; 20
	DD	0428c0000r			; 70
	DD	041c00000r			; 24
	DD	042960000r			; 75
	DD	041c00000r			; 24
	DD	0429a0000r			; 77
	DD	041f80000r			; 31
	DD	042a00000r			; 80
	DD	041f80000r			; 31
	DD	042a60000r			; 83
	DD	042040000r			; 33
	DD	042b00000r			; 88
	DD	041f80000r			; 31
	DD	042b80000r			; 92
	DD	0423c0000r			; 47
	DD	042ce0000r			; 103
	DD	042380000r			; 46
	DD	042d20000r			; 105
	DD	0423c0000r			; 47
	DD	042d60000r			; 107
	DD	042340000r			; 45
	DD	042e00000r			; 112
	DD	042400000r			; 48
	DD	042e40000r			; 114
	DD	042380000r			; 46
	DD	042ea0000r			; 117
	DD	0422c0000r			; 43
	DD	043000000r			; 128
_DATA	ENDS
;	COMDAT ?radix@_Num_float_base@std@@2HB
CONST	SEGMENT
?radix@_Num_float_base@std@@2HB DD 02H			; std::_Num_float_base::radix
CONST	ENDS
;	COMDAT ?round_style@_Num_float_base@std@@2W4float_round_style@2@B
CONST	SEGMENT
?round_style@_Num_float_base@std@@2W4float_round_style@2@B DD 01H ; std::_Num_float_base::round_style
CONST	ENDS
;	COMDAT ?traps@_Num_float_base@std@@2_NB
CONST	SEGMENT
?traps@_Num_float_base@std@@2_NB DB 00H			; std::_Num_float_base::traps
CONST	ENDS
;	COMDAT ?tinyness_before@_Num_float_base@std@@2_NB
CONST	SEGMENT
?tinyness_before@_Num_float_base@std@@2_NB DB 01H	; std::_Num_float_base::tinyness_before
CONST	ENDS
;	COMDAT ?is_specialized@_Num_float_base@std@@2_NB
CONST	SEGMENT
?is_specialized@_Num_float_base@std@@2_NB DB 01H	; std::_Num_float_base::is_specialized
CONST	ENDS
;	COMDAT ?is_signed@_Num_float_base@std@@2_NB
CONST	SEGMENT
?is_signed@_Num_float_base@std@@2_NB DB 01H		; std::_Num_float_base::is_signed
CONST	ENDS
;	COMDAT ?is_modulo@_Num_float_base@std@@2_NB
CONST	SEGMENT
?is_modulo@_Num_float_base@std@@2_NB DB 00H		; std::_Num_float_base::is_modulo
CONST	ENDS
;	COMDAT ?is_integer@_Num_float_base@std@@2_NB
CONST	SEGMENT
?is_integer@_Num_float_base@std@@2_NB DB 00H		; std::_Num_float_base::is_integer
CONST	ENDS
;	COMDAT ?is_iec559@_Num_float_base@std@@2_NB
CONST	SEGMENT
?is_iec559@_Num_float_base@std@@2_NB DB 01H		; std::_Num_float_base::is_iec559
CONST	ENDS
;	COMDAT ?is_exact@_Num_float_base@std@@2_NB
CONST	SEGMENT
?is_exact@_Num_float_base@std@@2_NB DB 00H		; std::_Num_float_base::is_exact
CONST	ENDS
;	COMDAT ?is_bounded@_Num_float_base@std@@2_NB
CONST	SEGMENT
?is_bounded@_Num_float_base@std@@2_NB DB 01H		; std::_Num_float_base::is_bounded
CONST	ENDS
;	COMDAT ?has_signaling_NaN@_Num_float_base@std@@2_NB
CONST	SEGMENT
?has_signaling_NaN@_Num_float_base@std@@2_NB DB 01H	; std::_Num_float_base::has_signaling_NaN
CONST	ENDS
;	COMDAT ?has_quiet_NaN@_Num_float_base@std@@2_NB
CONST	SEGMENT
?has_quiet_NaN@_Num_float_base@std@@2_NB DB 01H		; std::_Num_float_base::has_quiet_NaN
CONST	ENDS
;	COMDAT ?has_infinity@_Num_float_base@std@@2_NB
CONST	SEGMENT
?has_infinity@_Num_float_base@std@@2_NB DB 01H		; std::_Num_float_base::has_infinity
CONST	ENDS
;	COMDAT ?CMPDIRTYDATA_INTERVAL@FalconEntity@@2KB
CONST	SEGMENT
?CMPDIRTYDATA_INTERVAL@FalconEntity@@2KB DD 0c8H	; FalconEntity::CMPDIRTYDATA_INTERVAL
CONST	ENDS
;	COMDAT ?SIMDIRTYDATA_INTERVAL@FalconEntity@@2KB
CONST	SEGMENT
?SIMDIRTYDATA_INTERVAL@FalconEntity@@2KB DD 0c8H	; FalconEntity::SIMDIRTYDATA_INTERVAL
CONST	ENDS
;	COMDAT ?has_denorm_loss@_Num_float_base@std@@2_NB
CONST	SEGMENT
?has_denorm_loss@_Num_float_base@std@@2_NB DB 01H	; std::_Num_float_base::has_denorm_loss
CONST	ENDS
;	COMDAT ?has_denorm@_Num_float_base@std@@2W4float_denorm_style@2@B
CONST	SEGMENT
?has_denorm@_Num_float_base@std@@2W4float_denorm_style@2@B DD 01H ; std::_Num_float_base::has_denorm
CONST	ENDS
;	COMDAT ?radix@_Num_int_base@std@@2HB
CONST	SEGMENT
?radix@_Num_int_base@std@@2HB DD 02H			; std::_Num_int_base::radix
CONST	ENDS
;	COMDAT ?is_specialized@_Num_int_base@std@@2_NB
CONST	SEGMENT
?is_specialized@_Num_int_base@std@@2_NB DB 01H		; std::_Num_int_base::is_specialized
CONST	ENDS
;	COMDAT ?is_modulo@_Num_int_base@std@@2_NB
CONST	SEGMENT
?is_modulo@_Num_int_base@std@@2_NB DB 01H		; std::_Num_int_base::is_modulo
CONST	ENDS
;	COMDAT ?is_integer@_Num_int_base@std@@2_NB
CONST	SEGMENT
?is_integer@_Num_int_base@std@@2_NB DB 01H		; std::_Num_int_base::is_integer
CONST	ENDS
;	COMDAT ?is_exact@_Num_int_base@std@@2_NB
CONST	SEGMENT
?is_exact@_Num_int_base@std@@2_NB DB 01H		; std::_Num_int_base::is_exact
CONST	ENDS
;	COMDAT ?is_bounded@_Num_int_base@std@@2_NB
CONST	SEGMENT
?is_bounded@_Num_int_base@std@@2_NB DB 01H		; std::_Num_int_base::is_bounded
CONST	ENDS
;	COMDAT ?radix@_Num_base@std@@2HB
CONST	SEGMENT
?radix@_Num_base@std@@2HB DD 00H			; std::_Num_base::radix
CONST	ENDS
;	COMDAT ?min_exponent10@_Num_base@std@@2HB
CONST	SEGMENT
?min_exponent10@_Num_base@std@@2HB DD 00H		; std::_Num_base::min_exponent10
CONST	ENDS
;	COMDAT ?min_exponent@_Num_base@std@@2HB
CONST	SEGMENT
?min_exponent@_Num_base@std@@2HB DD 00H			; std::_Num_base::min_exponent
CONST	ENDS
;	COMDAT ?max_exponent10@_Num_base@std@@2HB
CONST	SEGMENT
?max_exponent10@_Num_base@std@@2HB DD 00H		; std::_Num_base::max_exponent10
CONST	ENDS
;	COMDAT ?max_exponent@_Num_base@std@@2HB
CONST	SEGMENT
?max_exponent@_Num_base@std@@2HB DD 00H			; std::_Num_base::max_exponent
CONST	ENDS
;	COMDAT ?max_digits10@_Num_base@std@@2HB
CONST	SEGMENT
?max_digits10@_Num_base@std@@2HB DD 00H			; std::_Num_base::max_digits10
CONST	ENDS
;	COMDAT ?digits10@_Num_base@std@@2HB
CONST	SEGMENT
?digits10@_Num_base@std@@2HB DD 00H			; std::_Num_base::digits10
CONST	ENDS
;	COMDAT ?digits@_Num_base@std@@2HB
CONST	SEGMENT
?digits@_Num_base@std@@2HB DD 00H			; std::_Num_base::digits
CONST	ENDS
;	COMDAT ?round_style@_Num_base@std@@2W4float_round_style@2@B
CONST	SEGMENT
?round_style@_Num_base@std@@2W4float_round_style@2@B DD 00H ; std::_Num_base::round_style
CONST	ENDS
;	COMDAT ?traps@_Num_base@std@@2_NB
CONST	SEGMENT
?traps@_Num_base@std@@2_NB DB 00H			; std::_Num_base::traps
CONST	ENDS
PUBLIC	_fabsf
PUBLIC	?fabs@@YAMM@Z					; fabs
PUBLIC	?Id@VuEntity@@QBE?AVVU_ID@@XZ			; VuEntity::Id
PUBLIC	?EntityType@VuEntity@@QBEPAUVuEntityType@@XZ	; VuEntity::EntityType
PUBLIC	??2@YAPAXIPAX@Z					; operator new
PUBLIC	??3@YAXPAX0@Z					; operator delete
PUBLIC	?length@?$char_traits@D@std@@SAIPBD@Z		; std::char_traits<char>::length
PUBLIC	?copy@?$char_traits@D@std@@SAPADPADPBDI@Z	; std::char_traits<char>::copy
PUBLIC	?move@?$char_traits@D@std@@SAPADPADPBDI@Z	; std::char_traits<char>::move
PUBLIC	?assign@?$char_traits@D@std@@SAXAADABD@Z	; std::char_traits<char>::assign
PUBLIC	??0?$allocator@D@std@@QAE@XZ			; std::allocator<char>::allocator<char>
PUBLIC	?deallocate@?$allocator@D@std@@QAEXPADI@Z	; std::allocator<char>::deallocate
PUBLIC	?allocate@?$allocator@D@std@@QAEPADI@Z		; std::allocator<char>::allocate
PUBLIC	?max_size@?$allocator@D@std@@QBEIXZ		; std::allocator<char>::max_size
PUBLIC	?max_size@?$allocator_traits@V?$allocator@D@std@@@std@@SAIABV?$allocator@D@2@@Z ; std::allocator_traits<std::allocator<char> >::max_size
PUBLIC	??0?$_Wrap_alloc@V?$allocator@D@std@@@std@@QAE@XZ ; std::_Wrap_alloc<std::allocator<char> >::_Wrap_alloc<std::allocator<char> >
PUBLIC	?allocate@?$_Wrap_alloc@V?$allocator@D@std@@@std@@QAEPADI@Z ; std::_Wrap_alloc<std::allocator<char> >::allocate
PUBLIC	?deallocate@?$_Wrap_alloc@V?$allocator@D@std@@@std@@QAEXPADI@Z ; std::_Wrap_alloc<std::allocator<char> >::deallocate
PUBLIC	?max_size@?$_Wrap_alloc@V?$allocator@D@std@@@std@@QBEIXZ ; std::_Wrap_alloc<std::allocator<char> >::max_size
PUBLIC	??0?$_String_val@U?$_Simple_types@D@std@@@std@@QAE@XZ ; std::_String_val<std::_Simple_types<char> >::_String_val<std::_Simple_types<char> >
PUBLIC	?_Myptr@?$_String_val@U?$_Simple_types@D@std@@@std@@QAEPADXZ ; std::_String_val<std::_Simple_types<char> >::_Myptr
PUBLIC	?_Myptr@?$_String_val@U?$_Simple_types@D@std@@@std@@QBEPBDXZ ; std::_String_val<std::_Simple_types<char> >::_Myptr
PUBLIC	??0?$_String_alloc@$0A@U?$_String_base_types@DV?$allocator@D@std@@@std@@@std@@QAE@ABV?$allocator@D@1@@Z ; std::_String_alloc<0,std::_String_base_types<char,std::allocator<char> > >::_String_alloc<0,std::_String_base_types<char,std::allocator<char> > >
PUBLIC	?_Getal@?$_String_alloc@$0A@U?$_String_base_types@DV?$allocator@D@std@@@std@@@std@@QBE?AU?$_Wrap_alloc@V?$allocator@D@std@@@2@XZ ; std::_String_alloc<0,std::_String_base_types<char,std::allocator<char> > >::_Getal
PUBLIC	??0?$basic_string@DU?$char_traits@D@std@@V?$allocator@D@2@@std@@QAE@PBD@Z ; std::basic_string<char,std::char_traits<char>,std::allocator<char> >::basic_string<char,std::char_traits<char>,std::allocator<char> >
PUBLIC	?assign@?$basic_string@DU?$char_traits@D@std@@V?$allocator@D@2@@std@@QAEAAV12@ABV12@II@Z ; std::basic_string<char,std::char_traits<char>,std::allocator<char> >::assign
PUBLIC	?assign@?$basic_string@DU?$char_traits@D@std@@V?$allocator@D@2@@std@@QAEAAV12@PBDI@Z ; std::basic_string<char,std::char_traits<char>,std::allocator<char> >::assign
PUBLIC	?assign@?$basic_string@DU?$char_traits@D@std@@V?$allocator@D@2@@std@@QAEAAV12@PBD@Z ; std::basic_string<char,std::char_traits<char>,std::allocator<char> >::assign
PUBLIC	?erase@?$basic_string@DU?$char_traits@D@std@@V?$allocator@D@2@@std@@QAEAAV12@I@Z ; std::basic_string<char,std::char_traits<char>,std::allocator<char> >::erase
PUBLIC	?erase@?$basic_string@DU?$char_traits@D@std@@V?$allocator@D@2@@std@@QAEAAV12@II@Z ; std::basic_string<char,std::char_traits<char>,std::allocator<char> >::erase
PUBLIC	?size@?$basic_string@DU?$char_traits@D@std@@V?$allocator@D@2@@std@@QBEIXZ ; std::basic_string<char,std::char_traits<char>,std::allocator<char> >::size
PUBLIC	?max_size@?$basic_string@DU?$char_traits@D@std@@V?$allocator@D@2@@std@@QBEIXZ ; std::basic_string<char,std::char_traits<char>,std::allocator<char> >::max_size
PUBLIC	?_Copy@?$basic_string@DU?$char_traits@D@std@@V?$allocator@D@2@@std@@QAEXII@Z ; std::basic_string<char,std::char_traits<char>,std::allocator<char> >::_Copy
PUBLIC	?_Eos@?$basic_string@DU?$char_traits@D@std@@V?$allocator@D@2@@std@@QAEXI@Z ; std::basic_string<char,std::char_traits<char>,std::allocator<char> >::_Eos
PUBLIC	?_Grow@?$basic_string@DU?$char_traits@D@std@@V?$allocator@D@2@@std@@QAE_NI_N@Z ; std::basic_string<char,std::char_traits<char>,std::allocator<char> >::_Grow
PUBLIC	?_Inside@?$basic_string@DU?$char_traits@D@std@@V?$allocator@D@2@@std@@QAE_NPBD@Z ; std::basic_string<char,std::char_traits<char>,std::allocator<char> >::_Inside
PUBLIC	?_Tidy@?$basic_string@DU?$char_traits@D@std@@V?$allocator@D@2@@std@@QAEX_NI@Z ; std::basic_string<char,std::char_traits<char>,std::allocator<char> >::_Tidy
PUBLIC	?_Xlen@?$basic_string@DU?$char_traits@D@std@@V?$allocator@D@2@@std@@QBEXXZ ; std::basic_string<char,std::char_traits<char>,std::allocator<char> >::_Xlen
PUBLIC	?_Xran@?$basic_string@DU?$char_traits@D@std@@V?$allocator@D@2@@std@@QBEXXZ ; std::basic_string<char,std::char_traits<char>,std::allocator<char> >::_Xran
PUBLIC	??B?$VuBin@VVuSessionEntity@@@@QBE_NXZ		; VuBin<VuSessionEntity>::operator bool
PUBLIC	?get@?$VuBin@VVuSessionEntity@@@@QBEPAVVuSessionEntity@@XZ ; VuBin<VuSessionEntity>::get
PUBLIC	?SetFalcFlag@FalconEntity@@QAEXH@Z		; FalconEntity::SetFalcFlag
PUBLIC	?UnSetFalcFlag@FalconEntity@@QAEXH@Z		; FalconEntity::UnSetFalcFlag
PUBLIC	?SimSetBubbleSize@@YAXKHPAX@Z			; SimSetBubbleSize
PUBLIC	?SimHookToggle@@YAXKHPAX@Z			; SimHookToggle
PUBLIC	?SimHookUp@@YAXKHPAX@Z				; SimHookUp
PUBLIC	?SimHookDown@@YAXKHPAX@Z			; SimHookDown
PUBLIC	?SimThrottleIdleDetent@@YAXKHPAX@Z		; SimThrottleIdleDetent
PUBLIC	?SimJfsStart@@YAXKHPAX@Z			; SimJfsStart
PUBLIC	?SimEpuToggle@@YAXKHPAX@Z			; SimEpuToggle
PUBLIC	?SimEpuOff@@YAXKHPAX@Z				; SimEpuOff
PUBLIC	?SimEpuAuto@@YAXKHPAX@Z				; SimEpuAuto
PUBLIC	?SimEpuOn@@YAXKHPAX@Z				; SimEpuOn
PUBLIC	?AFRudderTrimLeft@@YAXKHPAX@Z			; AFRudderTrimLeft
PUBLIC	?AFRudderTrimRight@@YAXKHPAX@Z			; AFRudderTrimRight
PUBLIC	?AFAileronTrimLeft@@YAXKHPAX@Z			; AFAileronTrimLeft
PUBLIC	?AFAileronTrimRight@@YAXKHPAX@Z			; AFAileronTrimRight
PUBLIC	?AFElevatorTrimUp@@YAXKHPAX@Z			; AFElevatorTrimUp
PUBLIC	?AFElevatorTrimDown@@YAXKHPAX@Z			; AFElevatorTrimDown
PUBLIC	?AFResetTrim@@YAXKHPAX@Z			; AFResetTrim
PUBLIC	?AFAlternateGear@@YAXKHPAX@Z			; AFAlternateGear
PUBLIC	?AFAlternateGearReset@@YAXKHPAX@Z		; AFAlternateGearReset
PUBLIC	?SimFLIRToggle@@YAXKHPAX@Z			; SimFLIRToggle
PUBLIC	?SimToggleRealisticAvionics@@YAXKHPAX@Z		; SimToggleRealisticAvionics
PUBLIC	?SimIncFuelSwitch@@YAXKHPAX@Z			; SimIncFuelSwitch
PUBLIC	?SimDecFuelSwitch@@YAXKHPAX@Z			; SimDecFuelSwitch
PUBLIC	?SimFuelSwitchTest@@YAXKHPAX@Z			; SimFuelSwitchTest
PUBLIC	?SimFuelSwitchNorm@@YAXKHPAX@Z			; SimFuelSwitchNorm
PUBLIC	?SimFuelSwitchResv@@YAXKHPAX@Z			; SimFuelSwitchResv
PUBLIC	?SimFuelSwitchWingInt@@YAXKHPAX@Z		; SimFuelSwitchWingInt
PUBLIC	?SimFuelSwitchWingExt@@YAXKHPAX@Z		; SimFuelSwitchWingExt
PUBLIC	?SimFuelSwitchCenterExt@@YAXKHPAX@Z		; SimFuelSwitchCenterExt
PUBLIC	?SimIncFuelPump@@YAXKHPAX@Z			; SimIncFuelPump
PUBLIC	?SimDecFuelPump@@YAXKHPAX@Z			; SimDecFuelPump
PUBLIC	?SimFuelPumpOff@@YAXKHPAX@Z			; SimFuelPumpOff
PUBLIC	?SimFuelPumpNorm@@YAXKHPAX@Z			; SimFuelPumpNorm
PUBLIC	?SimFuelPumpAft@@YAXKHPAX@Z			; SimFuelPumpAft
PUBLIC	?SimFuelPumpFwd@@YAXKHPAX@Z			; SimFuelPumpFwd
PUBLIC	?SimToggleMasterFuel@@YAXKHPAX@Z		; SimToggleMasterFuel
PUBLIC	?SimMasterFuelOn@@YAXKHPAX@Z			; SimMasterFuelOn
PUBLIC	?SimMasterFuelOff@@YAXKHPAX@Z			; SimMasterFuelOff
PUBLIC	?SimIncAirSource@@YAXKHPAX@Z			; SimIncAirSource
PUBLIC	?SimDecAirSource@@YAXKHPAX@Z			; SimDecAirSource
PUBLIC	?SimAirSourceOff@@YAXKHPAX@Z			; SimAirSourceOff
PUBLIC	?SimAirSourceNorm@@YAXKHPAX@Z			; SimAirSourceNorm
PUBLIC	?SimAirSourceDump@@YAXKHPAX@Z			; SimAirSourceDump
PUBLIC	?SimAirSourceRam@@YAXKHPAX@Z			; SimAirSourceRam
PUBLIC	?SimDecLeftAuxComDigit@@YAXKHPAX@Z		; SimDecLeftAuxComDigit
PUBLIC	?SimDecCenterAuxComDigit@@YAXKHPAX@Z		; SimDecCenterAuxComDigit
PUBLIC	?SimDecRightAuxComDigit@@YAXKHPAX@Z		; SimDecRightAuxComDigit
PUBLIC	?SimInteriorLight@@YAXKHPAX@Z			; SimInteriorLight
PUBLIC	?SimInstrumentLight@@YAXKHPAX@Z			; SimInstrumentLight
PUBLIC	?SimSpotLight@@YAXKHPAX@Z			; SimSpotLight
PUBLIC	?SimToggleTFR@@YAXKHPAX@Z			; SimToggleTFR
PUBLIC	?SimMainPowerDec@@YAXKHPAX@Z			; SimMainPowerDec
PUBLIC	?SimMainPowerInc@@YAXKHPAX@Z			; SimMainPowerInc
PUBLIC	?SimMainPowerOff@@YAXKHPAX@Z			; SimMainPowerOff
PUBLIC	?SimMainPowerBatt@@YAXKHPAX@Z			; SimMainPowerBatt
PUBLIC	?SimMainPowerMain@@YAXKHPAX@Z			; SimMainPowerMain
PUBLIC	?AFFullFlap@@YAXKHPAX@Z				; AFFullFlap
PUBLIC	?AFNoFlap@@YAXKHPAX@Z				; AFNoFlap
PUBLIC	?AFIncFlap@@YAXKHPAX@Z				; AFIncFlap
PUBLIC	?AFDecFlap@@YAXKHPAX@Z				; AFDecFlap
PUBLIC	?AFFullLEF@@YAXKHPAX@Z				; AFFullLEF
PUBLIC	?AFNoLEF@@YAXKHPAX@Z				; AFNoLEF
PUBLIC	?AFIncLEF@@YAXKHPAX@Z				; AFIncLEF
PUBLIC	?AFDecLEF@@YAXKHPAX@Z				; AFDecLEF
PUBLIC	?AFDragChute@@YAXKHPAX@Z			; AFDragChute
PUBLIC	?AFCanopyToggle@@YAXKHPAX@Z			; AFCanopyToggle
PUBLIC	?SimReverseThrusterOn@@YAXKHPAX@Z		; SimReverseThrusterOn
PUBLIC	?SimReverseThrusterOff@@YAXKHPAX@Z		; SimReverseThrusterOff
PUBLIC	?SimReverseThrusterToggle@@YAXKHPAX@Z		; SimReverseThrusterToggle
PUBLIC	?SimExtFuelTrans@@YAXKHPAX@Z			; SimExtFuelTrans
PUBLIC	?SimFuelTransNorm@@YAXKHPAX@Z			; SimFuelTransNorm
PUBLIC	?SimFuelTransWing@@YAXKHPAX@Z			; SimFuelTransWing
PUBLIC	?SimICPIFF@@YAXKHPAX@Z				; SimICPIFF
PUBLIC	?SimICPLIST@@YAXKHPAX@Z				; SimICPLIST
PUBLIC	?SimICPTHREE@@YAXKHPAX@Z			; SimICPTHREE
PUBLIC	?SimICPSIX@@YAXKHPAX@Z				; SimICPSIX
PUBLIC	?SimICPEIGHT@@YAXKHPAX@Z			; SimICPEIGHT
PUBLIC	?SimICPNINE@@YAXKHPAX@Z				; SimICPNINE
PUBLIC	?SimICPZERO@@YAXKHPAX@Z				; SimICPZERO
PUBLIC	?SimICPNav1@@YAXKHPAX@Z				; SimICPNav1
PUBLIC	?SimICPAA1@@YAXKHPAX@Z				; SimICPAA1
PUBLIC	?SimICPAG1@@YAXKHPAX@Z				; SimICPAG1
PUBLIC	?SimICPResetDED@@YAXKHPAX@Z			; SimICPResetDED
PUBLIC	?SimICPDEDUP@@YAXKHPAX@Z			; SimICPDEDUP
PUBLIC	?SimICPDEDDOWN@@YAXKHPAX@Z			; SimICPDEDDOWN
PUBLIC	?SimICPCLEAR@@YAXKHPAX@Z			; SimICPCLEAR
PUBLIC	?SimICPDEDSEQ@@YAXKHPAX@Z			; SimICPDEDSEQ
PUBLIC	?SimRALTSTDBY@@YAXKHPAX@Z			; SimRALTSTDBY
PUBLIC	?SimRALTON@@YAXKHPAX@Z				; SimRALTON
PUBLIC	?SimRALTOFF@@YAXKHPAX@Z				; SimRALTOFF
PUBLIC	?SimLandingLightToggle@@YAXKHPAX@Z		; SimLandingLightToggle
PUBLIC	?SimLandingLightOn@@YAXKHPAX@Z			; SimLandingLightOn
PUBLIC	?SimLandingLightOff@@YAXKHPAX@Z			; SimLandingLightOff
PUBLIC	?SimParkingBrakeToggle@@YAXKHPAX@Z		; SimParkingBrakeToggle
PUBLIC	?SimParkingBrakeOn@@YAXKHPAX@Z			; SimParkingBrakeOn
PUBLIC	?SimParkingBrakeOff@@YAXKHPAX@Z			; SimParkingBrakeOff
PUBLIC	?SimLaserArmToggle@@YAXKHPAX@Z			; SimLaserArmToggle
PUBLIC	?SimLaserArmOn@@YAXKHPAX@Z			; SimLaserArmOn
PUBLIC	?SimLaserArmOff@@YAXKHPAX@Z			; SimLaserArmOff
PUBLIC	?SimFuelDoorToggle@@YAXKHPAX@Z			; SimFuelDoorToggle
PUBLIC	?SimFuelDoorOpen@@YAXKHPAX@Z			; SimFuelDoorOpen
PUBLIC	?SimFuelDoorClose@@YAXKHPAX@Z			; SimFuelDoorClose
PUBLIC	?SimRightAPSwitch@@YAXKHPAX@Z			; SimRightAPSwitch
PUBLIC	?SimLeftAPSwitch@@YAXKHPAX@Z			; SimLeftAPSwitch
PUBLIC	?SimRightAPUp@@YAXKHPAX@Z			; SimRightAPUp
PUBLIC	?SimRightAPMid@@YAXKHPAX@Z			; SimRightAPMid
PUBLIC	?SimRightAPDown@@YAXKHPAX@Z			; SimRightAPDown
PUBLIC	?SimLeftAPUp@@YAXKHPAX@Z			; SimLeftAPUp
PUBLIC	?SimLeftAPMid@@YAXKHPAX@Z			; SimLeftAPMid
PUBLIC	?SimLeftAPDown@@YAXKHPAX@Z			; SimLeftAPDown
PUBLIC	?SimAPOverride@@YAXKHPAX@Z			; SimAPOverride
PUBLIC	?SimWarnReset@@YAXKHPAX@Z			; SimWarnReset
PUBLIC	?SimReticleSwitch@@YAXKHPAX@Z			; SimReticleSwitch
PUBLIC	?SimReticlePri@@YAXKHPAX@Z			; SimReticlePri
PUBLIC	?SimReticleStby@@YAXKHPAX@Z			; SimReticleStby
PUBLIC	?SimReticleOff@@YAXKHPAX@Z			; SimReticleOff
PUBLIC	?SimTMSUp@@YAXKHPAX@Z				; SimTMSUp
PUBLIC	?SimTMSLeft@@YAXKHPAX@Z				; SimTMSLeft
PUBLIC	?SimTMSDown@@YAXKHPAX@Z				; SimTMSDown
PUBLIC	?SimTMSRight@@YAXKHPAX@Z			; SimTMSRight
PUBLIC	?SimSeatArm@@YAXKHPAX@Z				; SimSeatArm
PUBLIC	?SimSeatOn@@YAXKHPAX@Z				; SimSeatOn
PUBLIC	?SimSeatOff@@YAXKHPAX@Z				; SimSeatOff
PUBLIC	?SimEWSRWRPower@@YAXKHPAX@Z			; SimEWSRWRPower
PUBLIC	?SimEWSRWROn@@YAXKHPAX@Z			; SimEWSRWROn
PUBLIC	?SimEWSRWROff@@YAXKHPAX@Z			; SimEWSRWROff
PUBLIC	?SimEWSJammerPower@@YAXKHPAX@Z			; SimEWSJammerPower
PUBLIC	?SimEWSJammerOn@@YAXKHPAX@Z			; SimEWSJammerOn
PUBLIC	?SimEWSJammerOff@@YAXKHPAX@Z			; SimEWSJammerOff
PUBLIC	?SimEWSChaffPower@@YAXKHPAX@Z			; SimEWSChaffPower
PUBLIC	?SimEWSChaffOn@@YAXKHPAX@Z			; SimEWSChaffOn
PUBLIC	?SimEWSChaffOff@@YAXKHPAX@Z			; SimEWSChaffOff
PUBLIC	?SimEWSFlarePower@@YAXKHPAX@Z			; SimEWSFlarePower
PUBLIC	?SimEWSFlareOn@@YAXKHPAX@Z			; SimEWSFlareOn
PUBLIC	?SimEWSFlareOff@@YAXKHPAX@Z			; SimEWSFlareOff
PUBLIC	?SimEWSPGMDec@@YAXKHPAX@Z			; SimEWSPGMDec
PUBLIC	?SimEWSPGMInc@@YAXKHPAX@Z			; SimEWSPGMInc
PUBLIC	?SimEWSModeOff@@YAXKHPAX@Z			; SimEWSModeOff
PUBLIC	?SimEWSModeStby@@YAXKHPAX@Z			; SimEWSModeStby
PUBLIC	?SimEWSModeMan@@YAXKHPAX@Z			; SimEWSModeMan
PUBLIC	?SimEWSModeSemi@@YAXKHPAX@Z			; SimEWSModeSemi
PUBLIC	?SimEWSModeAuto@@YAXKHPAX@Z			; SimEWSModeAuto
PUBLIC	?SimEWSProgDec@@YAXKHPAX@Z			; SimEWSProgDec
PUBLIC	?SimEWSProgInc@@YAXKHPAX@Z			; SimEWSProgInc
PUBLIC	?SimEWSProgOne@@YAXKHPAX@Z			; SimEWSProgOne
PUBLIC	?SimEWSProgTwo@@YAXKHPAX@Z			; SimEWSProgTwo
PUBLIC	?SimEWSProgThree@@YAXKHPAX@Z			; SimEWSProgThree
PUBLIC	?SimEWSProgFour@@YAXKHPAX@Z			; SimEWSProgFour
PUBLIC	?SimInhibitVMS@@YAXKHPAX@Z			; SimInhibitVMS
PUBLIC	?SimVMSOn@@YAXKHPAX@Z				; SimVMSOn
PUBLIC	?SimVMSOff@@YAXKHPAX@Z				; SimVMSOff
PUBLIC	?SimRFSwitch@@YAXKHPAX@Z			; SimRFSwitch
PUBLIC	?SimRFNorm@@YAXKHPAX@Z				; SimRFNorm
PUBLIC	?SimRFQuiet@@YAXKHPAX@Z				; SimRFQuiet
PUBLIC	?SimRFSilent@@YAXKHPAX@Z			; SimRFSilent
PUBLIC	?SimDropProgrammed@@YAXKHPAX@Z			; SimDropProgrammed
PUBLIC	?SimPinkySwitch@@YAXKHPAX@Z			; SimPinkySwitch
PUBLIC	?SimGndJettEnable@@YAXKHPAX@Z			; SimGndJettEnable
PUBLIC	?SimGndJettOn@@YAXKHPAX@Z			; SimGndJettOn
PUBLIC	?SimGndJettOff@@YAXKHPAX@Z			; SimGndJettOff
PUBLIC	?SimExtlPower@@YAXKHPAX@Z			; SimExtlPower
PUBLIC	?SimExtlMasterNorm@@YAXKHPAX@Z			; SimExtlMasterNorm
PUBLIC	?SimExtlMasterOff@@YAXKHPAX@Z			; SimExtlMasterOff
PUBLIC	?SimExtlAntiColl@@YAXKHPAX@Z			; SimExtlAntiColl
PUBLIC	?SimAntiCollOn@@YAXKHPAX@Z			; SimAntiCollOn
PUBLIC	?SimAntiCollOff@@YAXKHPAX@Z			; SimAntiCollOff
PUBLIC	?SimExtlSteady@@YAXKHPAX@Z			; SimExtlSteady
PUBLIC	?SimLightsSteady@@YAXKHPAX@Z			; SimLightsSteady
PUBLIC	?SimLightsFlash@@YAXKHPAX@Z			; SimLightsFlash
PUBLIC	?SimExtlWing@@YAXKHPAX@Z			; SimExtlWing
PUBLIC	?SimWingLightBrt@@YAXKHPAX@Z			; SimWingLightBrt
PUBLIC	?SimWingLightOff@@YAXKHPAX@Z			; SimWingLightOff
PUBLIC	?SimDMSUp@@YAXKHPAX@Z				; SimDMSUp
PUBLIC	?SimDMSLeft@@YAXKHPAX@Z				; SimDMSLeft
PUBLIC	?SimDMSDown@@YAXKHPAX@Z				; SimDMSDown
PUBLIC	?SimDMSRight@@YAXKHPAX@Z			; SimDMSRight
PUBLIC	?SimAVTRSwitch@@YAXKHPAX@Z			; SimAVTRSwitch
PUBLIC	?SimAVTRSwitchOff@@YAXKHPAX@Z			; SimAVTRSwitchOff
PUBLIC	?SimAVTRSwitchAuto@@YAXKHPAX@Z			; SimAVTRSwitchAuto
PUBLIC	?SimAVTRSwitchOn@@YAXKHPAX@Z			; SimAVTRSwitchOn
PUBLIC	?SimAutoAVTR@@YAXKHPAX@Z			; SimAutoAVTR
PUBLIC	?SimIFFPower@@YAXKHPAX@Z			; SimIFFPower
PUBLIC	?SimIFFIn@@YAXKHPAX@Z				; SimIFFIn
PUBLIC	?SimINSInc@@YAXKHPAX@Z				; SimINSInc
PUBLIC	?SimINSDec@@YAXKHPAX@Z				; SimINSDec
PUBLIC	?SimINSOff@@YAXKHPAX@Z				; SimINSOff
PUBLIC	?SimINSNorm@@YAXKHPAX@Z				; SimINSNorm
PUBLIC	?SimINSNav@@YAXKHPAX@Z				; SimINSNav
PUBLIC	?SimINSInFlt@@YAXKHPAX@Z			; SimINSInFlt
PUBLIC	?SimLEFLockSwitch@@YAXKHPAX@Z			; SimLEFLockSwitch
PUBLIC	?SimLEFLock@@YAXKHPAX@Z				; SimLEFLock
PUBLIC	?SimLEFAuto@@YAXKHPAX@Z				; SimLEFAuto
PUBLIC	?SimDigitalBUP@@YAXKHPAX@Z			; SimDigitalBUP
PUBLIC	?SimAltFlaps@@YAXKHPAX@Z			; SimAltFlaps
PUBLIC	?SimAltFlapsNorm@@YAXKHPAX@Z			; SimAltFlapsNorm
PUBLIC	?SimAltFlapsExtend@@YAXKHPAX@Z			; SimAltFlapsExtend
PUBLIC	?SimManualFlyup@@YAXKHPAX@Z			; SimManualFlyup
PUBLIC	?SimFLCSReset@@YAXKHPAX@Z			; SimFLCSReset
PUBLIC	?SimFLTBIT@@YAXKHPAX@Z				; SimFLTBIT
PUBLIC	?SimOBOGSBit@@YAXKHPAX@Z			; SimOBOGSBit
PUBLIC	?SimMalIndLights@@YAXKHPAX@Z			; SimMalIndLights
PUBLIC	?SimProbeHeat@@YAXKHPAX@Z			; SimProbeHeat
PUBLIC	?SimEPUGEN@@YAXKHPAX@Z				; SimEPUGEN
PUBLIC	?SimTestSwitch@@YAXKHPAX@Z			; SimTestSwitch
PUBLIC	?SimOverHeat@@YAXKHPAX@Z			; SimOverHeat
PUBLIC	?SimTrimAPDisc@@YAXKHPAX@Z			; SimTrimAPDisc
PUBLIC	?SimTrimAPDISC@@YAXKHPAX@Z			; SimTrimAPDISC
PUBLIC	?SimTrimAPNORM@@YAXKHPAX@Z			; SimTrimAPNORM
PUBLIC	?SimMaxPower@@YAXKHPAX@Z			; SimMaxPower
PUBLIC	?SimABReset@@YAXKHPAX@Z				; SimABReset
PUBLIC	?SimTrimNoseUp@@YAXKHPAX@Z			; SimTrimNoseUp
PUBLIC	?SimTrimNoseDown@@YAXKHPAX@Z			; SimTrimNoseDown
PUBLIC	?SimTrimYawLeft@@YAXKHPAX@Z			; SimTrimYawLeft
PUBLIC	?SimTrimYawRight@@YAXKHPAX@Z			; SimTrimYawRight
PUBLIC	?SimTrimRollLeft@@YAXKHPAX@Z			; SimTrimRollLeft
PUBLIC	?SimTrimRollRight@@YAXKHPAX@Z			; SimTrimRollRight
PUBLIC	?SimStepMissileVolumeDown@@YAXKHPAX@Z		; SimStepMissileVolumeDown
PUBLIC	?SimStepMissileVolumeUp@@YAXKHPAX@Z		; SimStepMissileVolumeUp
PUBLIC	?SimStepThreatVolumeDown@@YAXKHPAX@Z		; SimStepThreatVolumeDown
PUBLIC	?SimStepThreatVolumeUp@@YAXKHPAX@Z		; SimStepThreatVolumeUp
PUBLIC	?SimTriggerFirstDetent@@YAXKHPAX@Z		; SimTriggerFirstDetent
PUBLIC	?SimTriggerSecondDetent@@YAXKHPAX@Z		; SimTriggerSecondDetent
PUBLIC	?SimRetUp@@YAXKHPAX@Z				; SimRetUp
PUBLIC	?SimRetDn@@YAXKHPAX@Z				; SimRetDn
PUBLIC	?SimCursorEnable@@YAXKHPAX@Z			; SimCursorEnable
PUBLIC	?SimStepComm1VolumeUp@@YAXKHPAX@Z		; SimStepComm1VolumeUp
PUBLIC	?SimStepComm1VolumeDown@@YAXKHPAX@Z		; SimStepComm1VolumeDown
PUBLIC	?SimStepComm2VolumeUp@@YAXKHPAX@Z		; SimStepComm2VolumeUp
PUBLIC	?SimStepComm2VolumeDown@@YAXKHPAX@Z		; SimStepComm2VolumeDown
PUBLIC	?Sim3DCkptHelpOnOff@@YAXKHPAX@Z			; Sim3DCkptHelpOnOff
PUBLIC	?SimSymWheelUp@@YAXKHPAX@Z			; SimSymWheelUp
PUBLIC	?SimSymWheelDn@@YAXKHPAX@Z			; SimSymWheelDn
PUBLIC	?SimToggleCockpit@@YAXKHPAX@Z			; SimToggleCockpit
PUBLIC	?SimToggleGhostMFDs@@YAXKHPAX@Z			; SimToggleGhostMFDs
PUBLIC	?SimRangeKnobDown@@YAXKHPAX@Z			; SimRangeKnobDown
PUBLIC	?SimRangeKnobUp@@YAXKHPAX@Z			; SimRangeKnobUp
PUBLIC	?SimSMSPower@@YAXKHPAX@Z			; SimSMSPower
PUBLIC	?SimSMSOn@@YAXKHPAX@Z				; SimSMSOn
PUBLIC	?SimSMSOff@@YAXKHPAX@Z				; SimSMSOff
PUBLIC	?SimFCCPower@@YAXKHPAX@Z			; SimFCCPower
PUBLIC	?SimFCCOn@@YAXKHPAX@Z				; SimFCCOn
PUBLIC	?SimFCCOff@@YAXKHPAX@Z				; SimFCCOff
PUBLIC	?SimMFDPower@@YAXKHPAX@Z			; SimMFDPower
PUBLIC	?SimMFDOn@@YAXKHPAX@Z				; SimMFDOn
PUBLIC	?SimMFDOff@@YAXKHPAX@Z				; SimMFDOff
PUBLIC	?SimUFCPower@@YAXKHPAX@Z			; SimUFCPower
PUBLIC	?SimUFCOn@@YAXKHPAX@Z				; SimUFCOn
PUBLIC	?SimUFCOff@@YAXKHPAX@Z				; SimUFCOff
PUBLIC	?SimGPSPower@@YAXKHPAX@Z			; SimGPSPower
PUBLIC	?SimGPSOn@@YAXKHPAX@Z				; SimGPSOn
PUBLIC	?SimGPSOff@@YAXKHPAX@Z				; SimGPSOff
PUBLIC	?SimDLPower@@YAXKHPAX@Z				; SimDLPower
PUBLIC	?SimDLOn@@YAXKHPAX@Z				; SimDLOn
PUBLIC	?SimDLOff@@YAXKHPAX@Z				; SimDLOff
PUBLIC	?SimMAPPower@@YAXKHPAX@Z			; SimMAPPower
PUBLIC	?SimMAPOn@@YAXKHPAX@Z				; SimMAPOn
PUBLIC	?SimMAPOff@@YAXKHPAX@Z				; SimMAPOff
PUBLIC	?SimTISLPower@@YAXKHPAX@Z			; SimTISLPower
PUBLIC	?SimRightHptPower@@YAXKHPAX@Z			; SimRightHptPower
PUBLIC	?SimRightHptOn@@YAXKHPAX@Z			; SimRightHptOn
PUBLIC	?SimRightHptOff@@YAXKHPAX@Z			; SimRightHptOff
PUBLIC	?SimLeftHptPower@@YAXKHPAX@Z			; SimLeftHptPower
PUBLIC	?SimLeftHptOn@@YAXKHPAX@Z			; SimLeftHptOn
PUBLIC	?SimLeftHptOff@@YAXKHPAX@Z			; SimLeftHptOff
PUBLIC	?SimFCRPower@@YAXKHPAX@Z			; SimFCRPower
PUBLIC	?SimFCROn@@YAXKHPAX@Z				; SimFCROn
PUBLIC	?SimFCROff@@YAXKHPAX@Z				; SimFCROff
PUBLIC	?SimHUDPower@@YAXKHPAX@Z			; SimHUDPower
PUBLIC	?SimHUDOn@@YAXKHPAX@Z				; SimHUDOn
PUBLIC	?SimHUDOff@@YAXKHPAX@Z				; SimHUDOff
PUBLIC	?SimRwrPower@@YAXKHPAX@Z			; SimRwrPower
PUBLIC	?BreakToggle@@YAXKHPAX@Z			; BreakToggle
PUBLIC	?KneeboardTogglePage@@YAXKHPAX@Z		; KneeboardTogglePage
PUBLIC	?ToggleNVGMode@@YAXKHPAX@Z			; ToggleNVGMode
PUBLIC	?ToggleSmoke@@YAXKHPAX@Z			; ToggleSmoke
PUBLIC	?TimeAccelerate@@YAXKHPAX@Z			; TimeAccelerate
PUBLIC	?TimeAccelerateMaxToggle@@YAXKHPAX@Z		; TimeAccelerateMaxToggle
PUBLIC	?TimeAccelerateInc@@YAXKHPAX@Z			; TimeAccelerateInc
PUBLIC	?TimeAccelerateDec@@YAXKHPAX@Z			; TimeAccelerateDec
PUBLIC	?SimFuelDump@@YAXKHPAX@Z			; SimFuelDump
PUBLIC	?SimCycleDebugLabels@@YAXKHPAX@Z		; SimCycleDebugLabels
PUBLIC	?AFABFull@@YAXKHPAX@Z				; AFABFull
PUBLIC	?BombRippleIncrement@@YAXKHPAX@Z		; BombRippleIncrement
PUBLIC	?BombIntervalIncrement@@YAXKHPAX@Z		; BombIntervalIncrement
PUBLIC	?BombRippleDecrement@@YAXKHPAX@Z		; BombRippleDecrement
PUBLIC	?BombIntervalDecrement@@YAXKHPAX@Z		; BombIntervalDecrement
PUBLIC	?BombPairRelease@@YAXKHPAX@Z			; BombPairRelease
PUBLIC	?BombSGLRelease@@YAXKHPAX@Z			; BombSGLRelease
PUBLIC	?BombBurstIncrement@@YAXKHPAX@Z			; BombBurstIncrement
PUBLIC	?BombBurstDecrement@@YAXKHPAX@Z			; BombBurstDecrement
PUBLIC	?OTWToggleScoreDisplay@@YAXKHPAX@Z		; OTWToggleScoreDisplay
PUBLIC	?OTWToggleSidebar@@YAXKHPAX@Z			; OTWToggleSidebar
PUBLIC	?OTWTrackExternal@@YAXKHPAX@Z			; OTWTrackExternal
PUBLIC	?OTWTrackTargetToWeapon@@YAXKHPAX@Z		; OTWTrackTargetToWeapon
PUBLIC	?SimRadarAAModeStep@@YAXKHPAX@Z			; SimRadarAAModeStep
PUBLIC	?SimRadarAGModeStep@@YAXKHPAX@Z			; SimRadarAGModeStep
PUBLIC	?SimRadarGainUp@@YAXKHPAX@Z			; SimRadarGainUp
PUBLIC	?SimRadarGainDown@@YAXKHPAX@Z			; SimRadarGainDown
PUBLIC	?SimRadarStandby@@YAXKHPAX@Z			; SimRadarStandby
PUBLIC	?SimRadarRangeStepUp@@YAXKHPAX@Z		; SimRadarRangeStepUp
PUBLIC	?SimRadarRangeStepDown@@YAXKHPAX@Z		; SimRadarRangeStepDown
PUBLIC	?SimRadarNextTarget@@YAXKHPAX@Z			; SimRadarNextTarget
PUBLIC	?SimRadarPrevTarget@@YAXKHPAX@Z			; SimRadarPrevTarget
PUBLIC	?SimRadarBarScanChange@@YAXKHPAX@Z		; SimRadarBarScanChange
PUBLIC	?SimRadarAzimuthScanChange@@YAXKHPAX@Z		; SimRadarAzimuthScanChange
PUBLIC	?SimRadarFOVStep@@YAXKHPAX@Z			; SimRadarFOVStep
PUBLIC	?SimMaverickFOVStep@@YAXKHPAX@Z			; SimMaverickFOVStep
PUBLIC	?SimSOIFOVStep@@YAXKHPAX@Z			; SimSOIFOVStep
PUBLIC	?SimRadarFreeze@@YAXKHPAX@Z			; SimRadarFreeze
PUBLIC	?SimRadarSnowplow@@YAXKHPAX@Z			; SimRadarSnowplow
PUBLIC	?SimRadarCursorZero@@YAXKHPAX@Z			; SimRadarCursorZero
PUBLIC	?SimACMBoresight@@YAXKHPAX@Z			; SimACMBoresight
PUBLIC	?SimDesignate@@YAXKHPAX@Z			; SimDesignate
PUBLIC	?SimACMVertical@@YAXKHPAX@Z			; SimACMVertical
PUBLIC	?SimDropTrack@@YAXKHPAX@Z			; SimDropTrack
PUBLIC	?SimACMSlew@@YAXKHPAX@Z				; SimACMSlew
PUBLIC	?SimACM30x20@@YAXKHPAX@Z			; SimACM30x20
PUBLIC	?SimRadarElevationDown@@YAXKHPAX@Z		; SimRadarElevationDown
PUBLIC	?SimRadarElevationUp@@YAXKHPAX@Z		; SimRadarElevationUp
PUBLIC	?SimRadarElevationCenter@@YAXKHPAX@Z		; SimRadarElevationCenter
PUBLIC	?SimRWRSetPriority@@YAXKHPAX@Z			; SimRWRSetPriority
PUBLIC	?SimRWRSetTargetSep@@YAXKHPAX@Z			; SimRWRSetTargetSep
PUBLIC	?SimRWRSetUnknowns@@YAXKHPAX@Z			; SimRWRSetUnknowns
PUBLIC	?SimRWRSetNaval@@YAXKHPAX@Z			; SimRWRSetNaval
PUBLIC	?SimRWRSetGroundPriority@@YAXKHPAX@Z		; SimRWRSetGroundPriority
PUBLIC	?SimRWRSetSearch@@YAXKHPAX@Z			; SimRWRSetSearch
PUBLIC	?SimRWRHandoff@@YAXKHPAX@Z			; SimRWRHandoff
PUBLIC	?SimNextWaypoint@@YAXKHPAX@Z			; SimNextWaypoint
PUBLIC	?SimPrevWaypoint@@YAXKHPAX@Z			; SimPrevWaypoint
PUBLIC	?SimTogglePaused@@YAXKHPAX@Z			; SimTogglePaused
PUBLIC	?SimPickle@@YAXKHPAX@Z				; SimPickle
PUBLIC	?SimTrigger@@YAXKHPAX@Z				; SimTrigger
PUBLIC	?SimMissileStep@@YAXKHPAX@Z			; SimMissileStep
PUBLIC	?SimCursorUp@@YAXKHPAX@Z			; SimCursorUp
PUBLIC	?SimCursorDown@@YAXKHPAX@Z			; SimCursorDown
PUBLIC	?SimCursorLeft@@YAXKHPAX@Z			; SimCursorLeft
PUBLIC	?SimCursorRight@@YAXKHPAX@Z			; SimCursorRight
PUBLIC	?SimToggleAutopilot@@YAXKHPAX@Z			; SimToggleAutopilot
PUBLIC	?SimStepSMSLeft@@YAXKHPAX@Z			; SimStepSMSLeft
PUBLIC	?SimStepSMSRight@@YAXKHPAX@Z			; SimStepSMSRight
PUBLIC	?SimSelectSRMOverride@@YAXKHPAX@Z		; SimSelectSRMOverride
PUBLIC	?SimSelectMRMOverride@@YAXKHPAX@Z		; SimSelectMRMOverride
PUBLIC	?SimDeselectOverride@@YAXKHPAX@Z		; SimDeselectOverride
PUBLIC	?SimToggleMissileCage@@YAXKHPAX@Z		; SimToggleMissileCage
PUBLIC	?SimToggleMissileSpotScan@@YAXKHPAX@Z		; SimToggleMissileSpotScan
PUBLIC	?SimToggleMissileBoreSlave@@YAXKHPAX@Z		; SimToggleMissileBoreSlave
PUBLIC	?SimToggleMissileTDBPUncage@@YAXKHPAX@Z		; SimToggleMissileTDBPUncage
PUBLIC	?SimDropChaff@@YAXKHPAX@Z			; SimDropChaff
PUBLIC	?SimDropFlare@@YAXKHPAX@Z			; SimDropFlare
PUBLIC	?SimToggleDropPattern@@YAXKHPAX@Z		; SimToggleDropPattern
PUBLIC	?SimHSDRangeStepUp@@YAXKHPAX@Z			; SimHSDRangeStepUp
PUBLIC	?SimHSDRangeStepDown@@YAXKHPAX@Z		; SimHSDRangeStepDown
PUBLIC	?SimToggleInvincible@@YAXKHPAX@Z		; SimToggleInvincible
PUBLIC	?SimFCCSubModeStep@@YAXKHPAX@Z			; SimFCCSubModeStep
PUBLIC	?SimEndFlight@@YAXKHPAX@Z			; SimEndFlight
PUBLIC	?SimNextAAWeapon@@YAXKHPAX@Z			; SimNextAAWeapon
PUBLIC	?SimNextAGWeapon@@YAXKHPAX@Z			; SimNextAGWeapon
PUBLIC	?SimNextNavMode@@YAXKHPAX@Z			; SimNextNavMode
PUBLIC	?SimEject@@YAXKHPAX@Z				; SimEject
PUBLIC	?AFBrakesOut@@YAXKHPAX@Z			; AFBrakesOut
PUBLIC	?AFBrakesIn@@YAXKHPAX@Z				; AFBrakesIn
PUBLIC	?AFBrakesToggle@@YAXKHPAX@Z			; AFBrakesToggle
PUBLIC	?AFGearToggle@@YAXKHPAX@Z			; AFGearToggle
PUBLIC	?AFGearUp@@YAXKHPAX@Z				; AFGearUp
PUBLIC	?AFGearDown@@YAXKHPAX@Z				; AFGearDown
PUBLIC	?AFCoarseThrottleUp@@YAXKHPAX@Z			; AFCoarseThrottleUp
PUBLIC	?AFCoarseThrottleDown@@YAXKHPAX@Z		; AFCoarseThrottleDown
PUBLIC	?AFElevatorUp@@YAXKHPAX@Z			; AFElevatorUp
PUBLIC	?AFElevatorDown@@YAXKHPAX@Z			; AFElevatorDown
PUBLIC	?AFAileronLeft@@YAXKHPAX@Z			; AFAileronLeft
PUBLIC	?AFAileronRight@@YAXKHPAX@Z			; AFAileronRight
PUBLIC	?AFThrottleUp@@YAXKHPAX@Z			; AFThrottleUp
PUBLIC	?AFThrottleDown@@YAXKHPAX@Z			; AFThrottleDown
PUBLIC	?AFRudderLeft@@YAXKHPAX@Z			; AFRudderLeft
PUBLIC	?AFRudderRight@@YAXKHPAX@Z			; AFRudderRight
PUBLIC	?AFABOn@@YAXKHPAX@Z				; AFABOn
PUBLIC	?AFIdle@@YAXKHPAX@Z				; AFIdle
PUBLIC	?OTWTimeOfDayStep@@YAXKHPAX@Z			; OTWTimeOfDayStep
PUBLIC	?OTWStepNextAC@@YAXKHPAX@Z			; OTWStepNextAC
PUBLIC	?OTWStepPrevAC@@YAXKHPAX@Z			; OTWStepPrevAC
PUBLIC	?OTWStepNextPadlock@@YAXKHPAX@Z			; OTWStepNextPadlock
PUBLIC	?OTWStepNextPadlockAA@@YAXKHPAX@Z		; OTWStepNextPadlockAA
PUBLIC	?OTWStepNextPadlockAG@@YAXKHPAX@Z		; OTWStepNextPadlockAG
PUBLIC	?OTWStepPrevPadlock@@YAXKHPAX@Z			; OTWStepPrevPadlock
PUBLIC	?OTWStepPrevPadlockAA@@YAXKHPAX@Z		; OTWStepPrevPadlockAA
PUBLIC	?OTWStepPrevPadlockAG@@YAXKHPAX@Z		; OTWStepPrevPadlockAG
PUBLIC	?OTWToggleNames@@YAXKHPAX@Z			; OTWToggleNames
PUBLIC	?OTWToggleCampNames@@YAXKHPAX@Z			; OTWToggleCampNames
PUBLIC	?OTWSelectF3PadlockMode@@YAXKHPAX@Z		; OTWSelectF3PadlockMode
PUBLIC	?OTWSelectF3PadlockModeAA@@YAXKHPAX@Z		; OTWSelectF3PadlockModeAA
PUBLIC	?OTWSelectF3PadlockModeAG@@YAXKHPAX@Z		; OTWSelectF3PadlockModeAG
PUBLIC	?OTWSelectEFOVPadlockMode@@YAXKHPAX@Z		; OTWSelectEFOVPadlockMode
PUBLIC	?OTWSelectEFOVPadlockModeAA@@YAXKHPAX@Z		; OTWSelectEFOVPadlockModeAA
PUBLIC	?OTWSelectEFOVPadlockModeAG@@YAXKHPAX@Z		; OTWSelectEFOVPadlockModeAG
PUBLIC	?OTWStepMFD1@@YAXKHPAX@Z			; OTWStepMFD1
PUBLIC	?OTWStepMFD2@@YAXKHPAX@Z			; OTWStepMFD2
PUBLIC	?OTWStepMFD3@@YAXKHPAX@Z			; OTWStepMFD3
PUBLIC	?OTWStepMFD4@@YAXKHPAX@Z			; OTWStepMFD4
PUBLIC	?OTWToggleScales@@YAXKHPAX@Z			; OTWToggleScales
PUBLIC	?OTWTogglePitchLadder@@YAXKHPAX@Z		; OTWTogglePitchLadder
PUBLIC	?SimPitchLadderOff@@YAXKHPAX@Z			; SimPitchLadderOff
PUBLIC	?SimPitchLadderFPM@@YAXKHPAX@Z			; SimPitchLadderFPM
PUBLIC	?SimPitchLadderATTFPM@@YAXKHPAX@Z		; SimPitchLadderATTFPM
PUBLIC	?OTWStepHeadingScale@@YAXKHPAX@Z		; OTWStepHeadingScale
PUBLIC	?OTWSelectHUDMode@@YAXKHPAX@Z			; OTWSelectHUDMode
PUBLIC	?OTWToggleGLOC@@YAXKHPAX@Z			; OTWToggleGLOC
PUBLIC	?OTWSelectChaseMode@@YAXKHPAX@Z			; OTWSelectChaseMode
PUBLIC	?OTWSelectOrbitMode@@YAXKHPAX@Z			; OTWSelectOrbitMode
PUBLIC	?OTWSelectAirFriendlyMode@@YAXKHPAX@Z		; OTWSelectAirFriendlyMode
PUBLIC	?OTWSelectIncomingMode@@YAXKHPAX@Z		; OTWSelectIncomingMode
PUBLIC	?OTWSelectGroundFriendlyMode@@YAXKHPAX@Z	; OTWSelectGroundFriendlyMode
PUBLIC	?OTWSelectAirEnemyMode@@YAXKHPAX@Z		; OTWSelectAirEnemyMode
PUBLIC	?OTWSelectGroundEnemyMode@@YAXKHPAX@Z		; OTWSelectGroundEnemyMode
PUBLIC	?OTWSelectTargetMode@@YAXKHPAX@Z		; OTWSelectTargetMode
PUBLIC	?OTWSelectWeaponMode@@YAXKHPAX@Z		; OTWSelectWeaponMode
PUBLIC	?OTWSelectFlybyMode@@YAXKHPAX@Z			; OTWSelectFlybyMode
PUBLIC	?OTWSelectSatelliteMode@@YAXKHPAX@Z		; OTWSelectSatelliteMode
PUBLIC	?OTWShowTestVersion@@YAXKHPAX@Z			; OTWShowTestVersion
PUBLIC	?OTWShowVersion@@YAXKHPAX@Z			; OTWShowVersion
PUBLIC	?OTWSelect2DCockpitMode@@YAXKHPAX@Z		; OTWSelect2DCockpitMode
PUBLIC	?OTWSelect3DCockpitMode@@YAXKHPAX@Z		; OTWSelect3DCockpitMode
PUBLIC	?OTWToggleBilinearFilter@@YAXKHPAX@Z		; OTWToggleBilinearFilter
PUBLIC	?OTWToggleShading@@YAXKHPAX@Z			; OTWToggleShading
PUBLIC	?OTWToggleHaze@@YAXKHPAX@Z			; OTWToggleHaze
PUBLIC	?OTWToggleLocationDisplay@@YAXKHPAX@Z		; OTWToggleLocationDisplay
PUBLIC	?OTWToggleAeroDisplay@@YAXKHPAX@Z		; OTWToggleAeroDisplay
PUBLIC	?OTWToggleFlapDisplay@@YAXKHPAX@Z		; OTWToggleFlapDisplay
PUBLIC	?OTWToggleEngineDisplay@@YAXKHPAX@Z		; OTWToggleEngineDisplay
PUBLIC	?OTWToggleActionCamera@@YAXKHPAX@Z		; OTWToggleActionCamera
PUBLIC	?OTWScaleDown@@YAXKHPAX@Z			; OTWScaleDown
PUBLIC	?OTWScaleUp@@YAXKHPAX@Z				; OTWScaleUp
PUBLIC	?OTWSetObjDetail@@YAXKHPAX@Z			; OTWSetObjDetail
PUBLIC	?OTWObjDetailDown@@YAXKHPAX@Z			; OTWObjDetailDown
PUBLIC	?OTWObjDetailUp@@YAXKHPAX@Z			; OTWObjDetailUp
PUBLIC	?OTWToggleClouds@@YAXKHPAX@Z			; OTWToggleClouds
PUBLIC	?OTWStepHudColor@@YAXKHPAX@Z			; OTWStepHudColor
PUBLIC	?OTWToggleEyeFly@@YAXKHPAX@Z			; OTWToggleEyeFly
PUBLIC	?OTWEnterPosition@@YAXKHPAX@Z			; OTWEnterPosition
PUBLIC	?OTWToggleFrameRate@@YAXKHPAX@Z			; OTWToggleFrameRate
PUBLIC	?OTWToggleAutoScale@@YAXKHPAX@Z			; OTWToggleAutoScale
PUBLIC	?OTWSetScale@@YAXKHPAX@Z			; OTWSetScale
PUBLIC	?OTWViewLeft@@YAXKHPAX@Z			; OTWViewLeft
PUBLIC	?OTWViewRight@@YAXKHPAX@Z			; OTWViewRight
PUBLIC	?OTWViewUp@@YAXKHPAX@Z				; OTWViewUp
PUBLIC	?OTWViewDown@@YAXKHPAX@Z			; OTWViewDown
PUBLIC	?OTWViewDownLeft@@YAXKHPAX@Z			; OTWViewDownLeft
PUBLIC	?OTWViewDownRight@@YAXKHPAX@Z			; OTWViewDownRight
PUBLIC	?OTWViewUpLeft@@YAXKHPAX@Z			; OTWViewUpLeft
PUBLIC	?OTWViewUpRight@@YAXKHPAX@Z			; OTWViewUpRight
PUBLIC	?OTWViewReset@@YAXKHPAX@Z			; OTWViewReset
PUBLIC	?OTWViewZoomIn@@YAXKHPAX@Z			; OTWViewZoomIn
PUBLIC	?OTWViewZoomOut@@YAXKHPAX@Z			; OTWViewZoomOut
PUBLIC	?OTWSwapMFDS@@YAXKHPAX@Z			; OTWSwapMFDS
PUBLIC	?OTWGlanceForward@@YAXKHPAX@Z			; OTWGlanceForward
PUBLIC	?OTWCheckSix@@YAXKHPAX@Z			; OTWCheckSix
PUBLIC	?OTWStateStep@@YAXKHPAX@Z			; OTWStateStep
PUBLIC	?CommandsSetKeyCombo@@YAXKHPAX@Z		; CommandsSetKeyCombo
PUBLIC	?KevinsFistOfGod@@YAXKHPAX@Z			; KevinsFistOfGod
PUBLIC	?SuperCruise@@YAXKHPAX@Z			; SuperCruise
PUBLIC	?SimDriftCO@@YAXKHPAX@Z				; SimDriftCO
PUBLIC	?SimDriftCOOn@@YAXKHPAX@Z			; SimDriftCOOn
PUBLIC	?SimDriftCOOff@@YAXKHPAX@Z			; SimDriftCOOff
PUBLIC	?SimCATSwitch@@YAXKHPAX@Z			; SimCATSwitch
PUBLIC	?SimCATI@@YAXKHPAX@Z				; SimCATI
PUBLIC	?SimCATIII@@YAXKHPAX@Z				; SimCATIII
PUBLIC	?SimRegen@@YAXKHPAX@Z				; SimRegen
PUBLIC	?OTW1200View@@YAXKHPAX@Z			; OTW1200View
PUBLIC	?OTW1200DView@@YAXKHPAX@Z			; OTW1200DView
PUBLIC	?OTW1200HUDView@@YAXKHPAX@Z			; OTW1200HUDView
PUBLIC	?OTW1200LView@@YAXKHPAX@Z			; OTW1200LView
PUBLIC	?OTW1200RView@@YAXKHPAX@Z			; OTW1200RView
PUBLIC	?OTW1000View@@YAXKHPAX@Z			; OTW1000View
PUBLIC	?OTW200View@@YAXKHPAX@Z				; OTW200View
PUBLIC	?OTW300View@@YAXKHPAX@Z				; OTW300View
PUBLIC	?OTW400View@@YAXKHPAX@Z				; OTW400View
PUBLIC	?OTW800View@@YAXKHPAX@Z				; OTW800View
PUBLIC	?OTW900View@@YAXKHPAX@Z				; OTW900View
PUBLIC	?SimToggleChatMode@@YAXKHPAX@Z			; SimToggleChatMode
PUBLIC	?SimMotionFreeze@@YAXKHPAX@Z			; SimMotionFreeze
PUBLIC	?ScreenShot@@YAXKHPAX@Z				; ScreenShot
PUBLIC	?PrettyScreenShot@@YAXKHPAX@Z			; PrettyScreenShot
PUBLIC	?FOVToggle@@YAXKHPAX@Z				; FOVToggle
PUBLIC	?FOVDecrease@@YAXKHPAX@Z			; FOVDecrease
PUBLIC	?FOVIncrease@@YAXKHPAX@Z			; FOVIncrease
PUBLIC	?FOVDefault@@YAXKHPAX@Z				; FOVDefault
PUBLIC	?ACMIToggleRecording@@YAXKHPAX@Z		; ACMIToggleRecording
PUBLIC	?SimSelectiveJettison@@YAXKHPAX@Z		; SimSelectiveJettison
PUBLIC	?SimEmergencyJettison@@YAXKHPAX@Z		; SimEmergencyJettison
PUBLIC	?SimWheelBrakes@@YAXKHPAX@Z			; SimWheelBrakes
PUBLIC	?SimECMOn@@YAXKHPAX@Z				; SimECMOn
PUBLIC	?SimECMStandby@@YAXKHPAX@Z			; SimECMStandby
PUBLIC	?SimECMConsent@@YAXKHPAX@Z			; SimECMConsent
PUBLIC	?SimRandomError@@YAXKHPAX@Z			; SimRandomError
PUBLIC	?SoundOff@@YAXKHPAX@Z				; SoundOff
PUBLIC	?SimStepMasterArm@@YAXKHPAX@Z			; SimStepMasterArm
PUBLIC	?SimArmMasterArm@@YAXKHPAX@Z			; SimArmMasterArm
PUBLIC	?SimSafeMasterArm@@YAXKHPAX@Z			; SimSafeMasterArm
PUBLIC	?SimSimMasterArm@@YAXKHPAX@Z			; SimSimMasterArm
PUBLIC	?SimHsiCourseInc@@YAXKHPAX@Z			; SimHsiCourseInc
PUBLIC	?SimHsiCourseDec@@YAXKHPAX@Z			; SimHsiCourseDec
PUBLIC	?SimHsiHeadingInc@@YAXKHPAX@Z			; SimHsiHeadingInc
PUBLIC	?SimHsiHeadingDec@@YAXKHPAX@Z			; SimHsiHeadingDec
PUBLIC	?SimHsiCrsIncBy1@@YAXKHPAX@Z			; SimHsiCrsIncBy1
PUBLIC	?SimHsiCrsDecBy1@@YAXKHPAX@Z			; SimHsiCrsDecBy1
PUBLIC	?SimHsiHdgIncBy1@@YAXKHPAX@Z			; SimHsiHdgIncBy1
PUBLIC	?SimHsiHdgDecBy1@@YAXKHPAX@Z			; SimHsiHdgDecBy1
PUBLIC	?SimAVTRToggle@@YAXKHPAX@Z			; SimAVTRToggle
PUBLIC	?SimMPOToggle@@YAXKHPAX@Z			; SimMPOToggle
PUBLIC	?SimMPO@@YAXKHPAX@Z				; SimMPO
PUBLIC	?SimSilenceHorn@@YAXKHPAX@Z			; SimSilenceHorn
PUBLIC	?SimStepHSIMode@@YAXKHPAX@Z			; SimStepHSIMode
PUBLIC	?SimHSIIlsTcn@@YAXKHPAX@Z			; SimHSIIlsTcn
PUBLIC	?SimHSITcn@@YAXKHPAX@Z				; SimHSITcn
PUBLIC	?SimHSINav@@YAXKHPAX@Z				; SimHSINav
PUBLIC	?SimHSIIlsNav@@YAXKHPAX@Z			; SimHSIIlsNav
PUBLIC	?DecreaseAlow@@YAXKHPAX@Z			; DecreaseAlow
PUBLIC	?IncreaseAlow@@YAXKHPAX@Z			; IncreaseAlow
PUBLIC	?SimCBEOSB_1L@@YAXKHPAX@Z			; SimCBEOSB_1L
PUBLIC	?SimCBEOSB_2L@@YAXKHPAX@Z			; SimCBEOSB_2L
PUBLIC	?SimCBEOSB_3L@@YAXKHPAX@Z			; SimCBEOSB_3L
PUBLIC	?SimCBEOSB_4L@@YAXKHPAX@Z			; SimCBEOSB_4L
PUBLIC	?SimCBEOSB_5L@@YAXKHPAX@Z			; SimCBEOSB_5L
PUBLIC	?SimCBEOSB_6L@@YAXKHPAX@Z			; SimCBEOSB_6L
PUBLIC	?SimCBEOSB_7L@@YAXKHPAX@Z			; SimCBEOSB_7L
PUBLIC	?SimCBEOSB_8L@@YAXKHPAX@Z			; SimCBEOSB_8L
PUBLIC	?SimCBEOSB_9L@@YAXKHPAX@Z			; SimCBEOSB_9L
PUBLIC	?SimCBEOSB_10L@@YAXKHPAX@Z			; SimCBEOSB_10L
PUBLIC	?SimCBEOSB_11L@@YAXKHPAX@Z			; SimCBEOSB_11L
PUBLIC	?SimCBEOSB_12L@@YAXKHPAX@Z			; SimCBEOSB_12L
PUBLIC	?SimCBEOSB_13L@@YAXKHPAX@Z			; SimCBEOSB_13L
PUBLIC	?SimCBEOSB_14L@@YAXKHPAX@Z			; SimCBEOSB_14L
PUBLIC	?SimCBEOSB_15L@@YAXKHPAX@Z			; SimCBEOSB_15L
PUBLIC	?SimCBEOSB_16L@@YAXKHPAX@Z			; SimCBEOSB_16L
PUBLIC	?SimCBEOSB_17L@@YAXKHPAX@Z			; SimCBEOSB_17L
PUBLIC	?SimCBEOSB_18L@@YAXKHPAX@Z			; SimCBEOSB_18L
PUBLIC	?SimCBEOSB_19L@@YAXKHPAX@Z			; SimCBEOSB_19L
PUBLIC	?SimCBEOSB_20L@@YAXKHPAX@Z			; SimCBEOSB_20L
PUBLIC	?SimCBEOSB_1R@@YAXKHPAX@Z			; SimCBEOSB_1R
PUBLIC	?SimCBEOSB_2R@@YAXKHPAX@Z			; SimCBEOSB_2R
PUBLIC	?SimCBEOSB_3R@@YAXKHPAX@Z			; SimCBEOSB_3R
PUBLIC	?SimCBEOSB_4R@@YAXKHPAX@Z			; SimCBEOSB_4R
PUBLIC	?SimCBEOSB_5R@@YAXKHPAX@Z			; SimCBEOSB_5R
PUBLIC	?SimCBEOSB_6R@@YAXKHPAX@Z			; SimCBEOSB_6R
PUBLIC	?SimCBEOSB_7R@@YAXKHPAX@Z			; SimCBEOSB_7R
PUBLIC	?SimCBEOSB_8R@@YAXKHPAX@Z			; SimCBEOSB_8R
PUBLIC	?SimCBEOSB_9R@@YAXKHPAX@Z			; SimCBEOSB_9R
PUBLIC	?SimCBEOSB_10R@@YAXKHPAX@Z			; SimCBEOSB_10R
PUBLIC	?SimCBEOSB_11R@@YAXKHPAX@Z			; SimCBEOSB_11R
PUBLIC	?SimCBEOSB_12R@@YAXKHPAX@Z			; SimCBEOSB_12R
PUBLIC	?SimCBEOSB_13R@@YAXKHPAX@Z			; SimCBEOSB_13R
PUBLIC	?SimCBEOSB_14R@@YAXKHPAX@Z			; SimCBEOSB_14R
PUBLIC	?SimCBEOSB_15R@@YAXKHPAX@Z			; SimCBEOSB_15R
PUBLIC	?SimCBEOSB_16R@@YAXKHPAX@Z			; SimCBEOSB_16R
PUBLIC	?SimCBEOSB_17R@@YAXKHPAX@Z			; SimCBEOSB_17R
PUBLIC	?SimCBEOSB_18R@@YAXKHPAX@Z			; SimCBEOSB_18R
PUBLIC	?SimCBEOSB_19R@@YAXKHPAX@Z			; SimCBEOSB_19R
PUBLIC	?SimCBEOSB_20R@@YAXKHPAX@Z			; SimCBEOSB_20R
PUBLIC	?SimCBEOSB_1T@@YAXKHPAX@Z			; SimCBEOSB_1T
PUBLIC	?SimCBEOSB_2T@@YAXKHPAX@Z			; SimCBEOSB_2T
PUBLIC	?SimCBEOSB_3T@@YAXKHPAX@Z			; SimCBEOSB_3T
PUBLIC	?SimCBEOSB_4T@@YAXKHPAX@Z			; SimCBEOSB_4T
PUBLIC	?SimCBEOSB_5T@@YAXKHPAX@Z			; SimCBEOSB_5T
PUBLIC	?SimCBEOSB_6T@@YAXKHPAX@Z			; SimCBEOSB_6T
PUBLIC	?SimCBEOSB_7T@@YAXKHPAX@Z			; SimCBEOSB_7T
PUBLIC	?SimCBEOSB_8T@@YAXKHPAX@Z			; SimCBEOSB_8T
PUBLIC	?SimCBEOSB_9T@@YAXKHPAX@Z			; SimCBEOSB_9T
PUBLIC	?SimCBEOSB_10T@@YAXKHPAX@Z			; SimCBEOSB_10T
PUBLIC	?SimCBEOSB_11T@@YAXKHPAX@Z			; SimCBEOSB_11T
PUBLIC	?SimCBEOSB_12T@@YAXKHPAX@Z			; SimCBEOSB_12T
PUBLIC	?SimCBEOSB_13T@@YAXKHPAX@Z			; SimCBEOSB_13T
PUBLIC	?SimCBEOSB_14T@@YAXKHPAX@Z			; SimCBEOSB_14T
PUBLIC	?SimCBEOSB_15T@@YAXKHPAX@Z			; SimCBEOSB_15T
PUBLIC	?SimCBEOSB_16T@@YAXKHPAX@Z			; SimCBEOSB_16T
PUBLIC	?SimCBEOSB_17T@@YAXKHPAX@Z			; SimCBEOSB_17T
PUBLIC	?SimCBEOSB_18T@@YAXKHPAX@Z			; SimCBEOSB_18T
PUBLIC	?SimCBEOSB_19T@@YAXKHPAX@Z			; SimCBEOSB_19T
PUBLIC	?SimCBEOSB_20T@@YAXKHPAX@Z			; SimCBEOSB_20T
PUBLIC	?SimCBEOSB_1F@@YAXKHPAX@Z			; SimCBEOSB_1F
PUBLIC	?SimCBEOSB_2F@@YAXKHPAX@Z			; SimCBEOSB_2F
PUBLIC	?SimCBEOSB_3F@@YAXKHPAX@Z			; SimCBEOSB_3F
PUBLIC	?SimCBEOSB_4F@@YAXKHPAX@Z			; SimCBEOSB_4F
PUBLIC	?SimCBEOSB_5F@@YAXKHPAX@Z			; SimCBEOSB_5F
PUBLIC	?SimCBEOSB_6F@@YAXKHPAX@Z			; SimCBEOSB_6F
PUBLIC	?SimCBEOSB_7F@@YAXKHPAX@Z			; SimCBEOSB_7F
PUBLIC	?SimCBEOSB_8F@@YAXKHPAX@Z			; SimCBEOSB_8F
PUBLIC	?SimCBEOSB_9F@@YAXKHPAX@Z			; SimCBEOSB_9F
PUBLIC	?SimCBEOSB_10F@@YAXKHPAX@Z			; SimCBEOSB_10F
PUBLIC	?SimCBEOSB_11F@@YAXKHPAX@Z			; SimCBEOSB_11F
PUBLIC	?SimCBEOSB_12F@@YAXKHPAX@Z			; SimCBEOSB_12F
PUBLIC	?SimCBEOSB_13F@@YAXKHPAX@Z			; SimCBEOSB_13F
PUBLIC	?SimCBEOSB_14F@@YAXKHPAX@Z			; SimCBEOSB_14F
PUBLIC	?SimCBEOSB_15F@@YAXKHPAX@Z			; SimCBEOSB_15F
PUBLIC	?SimCBEOSB_16F@@YAXKHPAX@Z			; SimCBEOSB_16F
PUBLIC	?SimCBEOSB_17F@@YAXKHPAX@Z			; SimCBEOSB_17F
PUBLIC	?SimCBEOSB_18F@@YAXKHPAX@Z			; SimCBEOSB_18F
PUBLIC	?SimCBEOSB_19F@@YAXKHPAX@Z			; SimCBEOSB_19F
PUBLIC	?SimCBEOSB_20F@@YAXKHPAX@Z			; SimCBEOSB_20F
PUBLIC	?SimCBEOSB_GAINUP_T@@YAXKHPAX@Z			; SimCBEOSB_GAINUP_T
PUBLIC	?SimCBEOSB_GAINUP_F@@YAXKHPAX@Z			; SimCBEOSB_GAINUP_F
PUBLIC	?SimCBEOSB_GAINDOWN_T@@YAXKHPAX@Z		; SimCBEOSB_GAINDOWN_T
PUBLIC	?SimCBEOSB_GAINDOWN_F@@YAXKHPAX@Z		; SimCBEOSB_GAINDOWN_F
PUBLIC	?SimCBEOSB_GAINUP_R@@YAXKHPAX@Z			; SimCBEOSB_GAINUP_R
PUBLIC	?SimCBEOSB_GAINUP_L@@YAXKHPAX@Z			; SimCBEOSB_GAINUP_L
PUBLIC	?SimCBEOSB_GAINDOWN_R@@YAXKHPAX@Z		; SimCBEOSB_GAINDOWN_R
PUBLIC	?SimCBEOSB_GAINDOWN_L@@YAXKHPAX@Z		; SimCBEOSB_GAINDOWN_L
PUBLIC	?SimICPTILS@@YAXKHPAX@Z				; SimICPTILS
PUBLIC	?SimICPALOW@@YAXKHPAX@Z				; SimICPALOW
PUBLIC	?SimICPFAck@@YAXKHPAX@Z				; SimICPFAck
PUBLIC	?SimICPPrevious@@YAXKHPAX@Z			; SimICPPrevious
PUBLIC	?SimICPNext@@YAXKHPAX@Z				; SimICPNext
PUBLIC	?SimICPLink@@YAXKHPAX@Z				; SimICPLink
PUBLIC	?SimICPCrus@@YAXKHPAX@Z				; SimICPCrus
PUBLIC	?SimICPStpt@@YAXKHPAX@Z				; SimICPStpt
PUBLIC	?SimICPMark@@YAXKHPAX@Z				; SimICPMark
PUBLIC	?SimICPEnter@@YAXKHPAX@Z			; SimICPEnter
PUBLIC	?SimICPCom1@@YAXKHPAX@Z				; SimICPCom1
PUBLIC	?SimICPCom2@@YAXKHPAX@Z				; SimICPCom2
PUBLIC	?SimICPNav@@YAXKHPAX@Z				; SimICPNav
PUBLIC	?SimICPAA@@YAXKHPAX@Z				; SimICPAA
PUBLIC	?SimICPAG@@YAXKHPAX@Z				; SimICPAG
PUBLIC	?SimHUDScales@@YAXKHPAX@Z			; SimHUDScales
PUBLIC	?SimScalesVVVAH@@YAXKHPAX@Z			; SimScalesVVVAH
PUBLIC	?SimScalesVAH@@YAXKHPAX@Z			; SimScalesVAH
PUBLIC	?SimScalesOff@@YAXKHPAX@Z			; SimScalesOff
PUBLIC	?SimHUDFPM@@YAXKHPAX@Z				; SimHUDFPM
PUBLIC	?SimHUDDED@@YAXKHPAX@Z				; SimHUDDED
PUBLIC	?SimHUDDEDOff@@YAXKHPAX@Z			; SimHUDDEDOff
PUBLIC	?SimHUDDEDPFL@@YAXKHPAX@Z			; SimHUDDEDPFL
PUBLIC	?SimHUDDEDDED@@YAXKHPAX@Z			; SimHUDDEDDED
PUBLIC	?SimHUDVelocity@@YAXKHPAX@Z			; SimHUDVelocity
PUBLIC	?SimHUDVelocityCAS@@YAXKHPAX@Z			; SimHUDVelocityCAS
PUBLIC	?SimHUDVelocityTAS@@YAXKHPAX@Z			; SimHUDVelocityTAS
PUBLIC	?SimHUDVelocityGND@@YAXKHPAX@Z			; SimHUDVelocityGND
PUBLIC	?SimHUDRadar@@YAXKHPAX@Z			; SimHUDRadar
PUBLIC	?SimHUDAltRadar@@YAXKHPAX@Z			; SimHUDAltRadar
PUBLIC	?SimHUDAltBaro@@YAXKHPAX@Z			; SimHUDAltBaro
PUBLIC	?SimHUDAltAuto@@YAXKHPAX@Z			; SimHUDAltAuto
PUBLIC	?SimHUDBrightness@@YAXKHPAX@Z			; SimHUDBrightness
PUBLIC	?SimHUDBrtDay@@YAXKHPAX@Z			; SimHUDBrtDay
PUBLIC	?SimHUDBrtAuto@@YAXKHPAX@Z			; SimHUDBrtAuto
PUBLIC	?SimHUDBrtNight@@YAXKHPAX@Z			; SimHUDBrtNight
PUBLIC	?SimHUDBrightnessUp@@YAXKHPAX@Z			; SimHUDBrightnessUp
PUBLIC	?SimHUDBrightnessDown@@YAXKHPAX@Z		; SimHUDBrightnessDown
PUBLIC	?ExtinguishMasterCaution@@YAXKHPAX@Z		; ExtinguishMasterCaution
PUBLIC	?SimCycleLeftAuxComDigit@@YAXKHPAX@Z		; SimCycleLeftAuxComDigit
PUBLIC	?SimCycleCenterAuxComDigit@@YAXKHPAX@Z		; SimCycleCenterAuxComDigit
PUBLIC	?SimCycleRightAuxComDigit@@YAXKHPAX@Z		; SimCycleRightAuxComDigit
PUBLIC	?SimCycleBandAuxComDigit@@YAXKHPAX@Z		; SimCycleBandAuxComDigit
PUBLIC	?SimToggleAuxComMaster@@YAXKHPAX@Z		; SimToggleAuxComMaster
PUBLIC	?SimAuxComBackup@@YAXKHPAX@Z			; SimAuxComBackup
PUBLIC	?SimAuxComUFC@@YAXKHPAX@Z			; SimAuxComUFC
PUBLIC	?SimToggleAuxComAATR@@YAXKHPAX@Z		; SimToggleAuxComAATR
PUBLIC	?SimTACANTR@@YAXKHPAX@Z				; SimTACANTR
PUBLIC	?SimTACANAATR@@YAXKHPAX@Z			; SimTACANAATR
PUBLIC	?SimToggleUHFMaster@@YAXKHPAX@Z			; SimToggleUHFMaster
PUBLIC	?SimTransmitCom1@@YAXKHPAX@Z			; SimTransmitCom1
PUBLIC	?SimTransmitCom2@@YAXKHPAX@Z			; SimTransmitCom2
PUBLIC	?SimToggleExtLights@@YAXKHPAX@Z			; SimToggleExtLights
PUBLIC	?SaveCockpitDefaults@@YAXKHPAX@Z		; SaveCockpitDefaults
PUBLIC	?LoadCockpitDefaults@@YAXKHPAX@Z		; LoadCockpitDefaults
PUBLIC	?SimSpeedyGonzalesUp@@YAXKHPAX@Z		; SimSpeedyGonzalesUp
PUBLIC	?SimSpeedyGonzalesDown@@YAXKHPAX@Z		; SimSpeedyGonzalesDown
PUBLIC	?ToggleVtune@@YAXKHPAX@Z			; ToggleVtune
PUBLIC	?Profiler_CursorDown@@YAXKHPAX@Z		; Profiler_CursorDown
PUBLIC	?Profiler_CursorUp@@YAXKHPAX@Z			; Profiler_CursorUp
PUBLIC	?Profiler_Parent@@YAXKHPAX@Z			; Profiler_Parent
PUBLIC	?Profiler_Select@@YAXKHPAX@Z			; Profiler_Select
PUBLIC	?Profiler_Hier@@YAXKHPAX@Z			; Profiler_Hier
PUBLIC	?Profiler_Self@@YAXKHPAX@Z			; Profiler_Self
PUBLIC	?ToggleProfilerDisplay@@YAXKHPAX@Z		; ToggleProfilerDisplay
PUBLIC	?ToggleProfiler@@YAXKHPAX@Z			; ToggleProfiler
PUBLIC	?Profiler_HistoryBack@@YAXKHPAX@Z		; Profiler_HistoryBack
PUBLIC	?Profiler_HistoryFwd@@YAXKHPAX@Z		; Profiler_HistoryFwd
PUBLIC	?Profiler_HistoryBackFast@@YAXKHPAX@Z		; Profiler_HistoryBackFast
PUBLIC	?Profiler_HistoryFwdFast@@YAXKHPAX@Z		; Profiler_HistoryFwdFast
PUBLIC	?ToggleSubTitles@@YAXKHPAX@Z			; ToggleSubTitles
PUBLIC	?ToggleInfoBar@@YAXKHPAX@Z			; ToggleInfoBar
PUBLIC	?ToggleDisplacementCam@@YAXKHPAX@Z		; ToggleDisplacementCam
PUBLIC	?WinAmpNextTrack@@YAXKHPAX@Z			; WinAmpNextTrack
PUBLIC	?WinAmpPreviousTrack@@YAXKHPAX@Z		; WinAmpPreviousTrack
PUBLIC	?WinAmpStopPlayback@@YAXKHPAX@Z			; WinAmpStopPlayback
PUBLIC	?WinAmpStartPlayback@@YAXKHPAX@Z		; WinAmpStartPlayback
PUBLIC	?WinAmpTogglePlayback@@YAXKHPAX@Z		; WinAmpTogglePlayback
PUBLIC	?WinAmpVolumeUp@@YAXKHPAX@Z			; WinAmpVolumeUp
PUBLIC	?WinAmpVolumeDown@@YAXKHPAX@Z			; WinAmpVolumeDown
PUBLIC	?CycleEngine@@YAXKHPAX@Z			; CycleEngine
PUBLIC	?selectLeftEngine@@YAXKHPAX@Z			; selectLeftEngine
PUBLIC	?selectRightEngine@@YAXKHPAX@Z			; selectRightEngine
PUBLIC	?selectBothEngines@@YAXKHPAX@Z			; selectBothEngines
PUBLIC	?ToggleTIR@@YAXKHPAX@Z				; ToggleTIR
PUBLIC	?ToggleClickablePitMode@@YAXKHPAX@Z		; ToggleClickablePitMode
PUBLIC	?SimToggleRearView@@YAXKHPAX@Z			; SimToggleRearView
PUBLIC	?SimToggleAltView@@YAXKHPAX@Z			; SimToggleAltView
PUBLIC	?OTWStepHudContrastDn@@YAXKHPAX@Z		; OTWStepHudContrastDn
PUBLIC	?OTWStepHudContrastUp@@YAXKHPAX@Z		; OTWStepHudContrastUp
PUBLIC	?GetPadlockMode@RulesClass@@QAEHXZ		; RulesClass::GetPadlockMode
PUBLIC	?BlackoutOn@RulesClass@@QAEHXZ			; RulesClass::BlackoutOn
PUBLIC	?WeatherOn@RulesClass@@QAEHXZ			; RulesClass::WeatherOn
PUBLIC	?ExternalViewOn@RulesClass@@QAEHXZ		; RulesClass::ExternalViewOn
PUBLIC	?InvulnerableOn@RulesClass@@QAEHXZ		; RulesClass::InvulnerableOn
PUBLIC	?GetGame@FalconSessionEntity@@QAEPAVFalconGameEntity@@XZ ; FalconSessionEntity::GetGame
PUBLIC	?SetBubbleRatio@FalconSessionEntity@@QAEXM@Z	; FalconSessionEntity::SetBubbleRatio
PUBLIC	?IsSetFlag@SimBaseClass@@QBEHH@Z		; SimBaseClass::IsSetFlag
PUBLIC	?SetSwitch@SimMoverClass@@QAEXHH@Z		; SimMoverClass::SetSwitch
PUBLIC	?GetSOI@SimVehicleClass@@QAE?AW4SOI@1@XZ	; SimVehicleClass::GetSOI
PUBLIC	??B?$VuBin@VSimWeaponClass@@@@QBE_NXZ		; VuBin<SimWeaponClass>::operator bool
PUBLIC	?get@?$VuBin@VSimWeaponClass@@@@QBEPAVSimWeaponClass@@XZ ; VuBin<SimWeaponClass>::get
PUBLIC	?SetInteriorLight@AircraftClass@@QAEXW4LightSwitch@1@@Z ; AircraftClass::SetInteriorLight
PUBLIC	?SetInstrumentLight@AircraftClass@@QAEXW4LightSwitch@1@@Z ; AircraftClass::SetInstrumentLight
PUBLIC	?SetSpotLight@AircraftClass@@QAEXW4LightSwitch@1@@Z ; AircraftClass::SetSpotLight
PUBLIC	?GetInteriorLight@AircraftClass@@QBE?AW4LightSwitch@1@XZ ; AircraftClass::GetInteriorLight
PUBLIC	?GetInstrumentLight@AircraftClass@@QBE?AW4LightSwitch@1@XZ ; AircraftClass::GetInstrumentLight
PUBLIC	?GetSpotLight@AircraftClass@@QBE?AW4LightSwitch@1@XZ ; AircraftClass::GetSpotLight
PUBLIC	?IsAcStatusBitsSet@AircraftClass@@QBE_NH@Z	; AircraftClass::IsAcStatusBitsSet
PUBLIC	?ExtlOn@AircraftClass@@QAEXW4ExtlLightFlags@1@@Z ; AircraftClass::ExtlOn
PUBLIC	?ExtlOff@AircraftClass@@QAEXW4ExtlLightFlags@1@@Z ; AircraftClass::ExtlOff
PUBLIC	?ExtlState@AircraftClass@@QBEHW4ExtlLightFlags@1@@Z ; AircraftClass::ExtlState
PUBLIC	?INSOn@AircraftClass@@QAEXW4INSAlignFlags@1@@Z	; AircraftClass::INSOn
PUBLIC	?INSOff@AircraftClass@@QAEXW4INSAlignFlags@1@@Z	; AircraftClass::INSOff
PUBLIC	?INSState@AircraftClass@@QAEHW4INSAlignFlags@1@@Z ; AircraftClass::INSState
PUBLIC	?AVTROn@AircraftClass@@QAEXW4AVTRStateFlags@1@@Z ; AircraftClass::AVTROn
PUBLIC	?AVTROff@AircraftClass@@QAEXW4AVTRStateFlags@1@@Z ; AircraftClass::AVTROff
PUBLIC	?AVTRState@AircraftClass@@QAEHW4AVTRStateFlags@1@@Z ; AircraftClass::AVTRState
PUBLIC	?LEFState@AircraftClass@@QAEHW4LEFStateFlags@1@@Z ; AircraftClass::LEFState
PUBLIC	?AutopilotType@AircraftClass@@QAE?AW4AutoPilotType@1@XZ ; AircraftClass::AutopilotType
PUBLIC	?IsF16@AircraftClass@@QAEHXZ			; AircraftClass::IsF16
PUBLIC	?IsComplex@AircraftClass@@QAEHXZ		; AircraftClass::IsComplex
PUBLIC	?RaltOn@AircraftClass@@QAEXXZ			; AircraftClass::RaltOn
PUBLIC	?RaltStdby@AircraftClass@@QAEXXZ		; AircraftClass::RaltStdby
PUBLIC	?RaltOff@AircraftClass@@QAEXXZ			; AircraftClass::RaltOff
PUBLIC	?IsOn@AircraftClass@@QAEHW4APFlags@1@@Z		; AircraftClass::IsOn
PUBLIC	?SetAPFlag@AircraftClass@@QAEXW4APFlags@1@@Z	; AircraftClass::SetAPFlag
PUBLIC	?ClearAPFlag@AircraftClass@@QAEXW4APFlags@1@@Z	; AircraftClass::ClearAPFlag
PUBLIC	?PowerOn@AircraftClass@@QAEXW4AvionicsPowerFlags@1@@Z ; AircraftClass::PowerOn
PUBLIC	?PowerOff@AircraftClass@@QAEXW4AvionicsPowerFlags@1@@Z ; AircraftClass::PowerOff
PUBLIC	?PowerToggle@AircraftClass@@QAEXW4AvionicsPowerFlags@1@@Z ; AircraftClass::PowerToggle
PUBLIC	?MainPowerOn@AircraftClass@@QAEHXZ		; AircraftClass::MainPowerOn
PUBLIC	?SetMainPower@AircraftClass@@QAEXW4MainPowerType@1@@Z ; AircraftClass::SetMainPower
PUBLIC	?EWSPGM@AircraftClass@@QAE?AW4EWSPGMSwitch@1@XZ	; AircraftClass::EWSPGM
PUBLIC	?SetPGM@AircraftClass@@QAEXW4EWSPGMSwitch@1@@Z	; AircraftClass::SetPGM
PUBLIC	?SetEWSProg@AircraftClass@@QAEXH@Z		; AircraftClass::SetEWSProg
PUBLIC	?GetSPType@CampBaseClass@@QBEEXZ		; CampBaseClass::GetSPType
PUBLIC	?RunningDogfight@SimulationDriver@@QBE_NXZ	; SimulationDriver::RunningDogfight
PUBLIC	?RunningTactical@SimulationDriver@@QBE_NXZ	; SimulationDriver::RunningTactical
PUBLIC	?MotionOn@SimulationDriver@@QAEHXZ		; SimulationDriver::MotionOn
PUBLIC	?SetMotion@SimulationDriver@@QAEXH@Z		; SimulationDriver::SetMotion
PUBLIC	?AVTROn@SimulationDriver@@QAEHXZ		; SimulationDriver::AVTROn
PUBLIC	?SetAVTR@SimulationDriver@@QAEXH@Z		; SimulationDriver::SetAVTR
PUBLIC	??0id@locale@std@@QAE@I@Z			; std::locale::id::id
PUBLIC	?generic_category@std@@YAABVerror_category@1@XZ	; std::generic_category
PUBLIC	?system_category@std@@YAABVerror_category@1@XZ	; std::system_category
PUBLIC	??0error_category@std@@QAE@XZ			; std::error_category::error_category
PUBLIC	??1error_category@std@@UAE@XZ			; std::error_category::~error_category
PUBLIC	?default_error_condition@error_category@std@@UBE?AVerror_condition@2@H@Z ; std::error_category::default_error_condition
PUBLIC	?equivalent@error_category@std@@UBE_NHABVerror_condition@2@@Z ; std::error_category::equivalent
PUBLIC	?equivalent@error_category@std@@UBE_NABVerror_code@2@H@Z ; std::error_category::equivalent
PUBLIC	??8error_category@std@@QBE_NABV01@@Z		; std::error_category::operator==
PUBLIC	??_Gerror_category@std@@UAEPAXI@Z		; std::error_category::`scalar deleting destructor'
PUBLIC	?value@error_code@std@@QBEHXZ			; std::error_code::value
PUBLIC	?category@error_code@std@@QBEABVerror_category@2@XZ ; std::error_code::category
PUBLIC	??0error_condition@std@@QAE@HABVerror_category@1@@Z ; std::error_condition::error_condition
PUBLIC	?value@error_condition@std@@QBEHXZ		; std::error_condition::value
PUBLIC	?category@error_condition@std@@QBEABVerror_category@2@XZ ; std::error_condition::category
PUBLIC	??8error_condition@std@@QBE_NABV01@@Z		; std::error_condition::operator==
PUBLIC	??0_Generic_error_category@std@@QAE@XZ		; std::_Generic_error_category::_Generic_error_category
PUBLIC	?name@_Generic_error_category@std@@UBEPBDXZ	; std::_Generic_error_category::name
PUBLIC	?message@_Generic_error_category@std@@UBE?AV?$basic_string@DU?$char_traits@D@std@@V?$allocator@D@2@@2@H@Z ; std::_Generic_error_category::message
PUBLIC	??1_Generic_error_category@std@@UAE@XZ		; std::_Generic_error_category::~_Generic_error_category
PUBLIC	??_G_Generic_error_category@std@@UAEPAXI@Z	; std::_Generic_error_category::`scalar deleting destructor'
PUBLIC	??0_Iostream_error_category@std@@QAE@XZ		; std::_Iostream_error_category::_Iostream_error_category
PUBLIC	?name@_Iostream_error_category@std@@UBEPBDXZ	; std::_Iostream_error_category::name
PUBLIC	?message@_Iostream_error_category@std@@UBE?AV?$basic_string@DU?$char_traits@D@std@@V?$allocator@D@2@@2@H@Z ; std::_Iostream_error_category::message
PUBLIC	??1_Iostream_error_category@std@@UAE@XZ		; std::_Iostream_error_category::~_Iostream_error_category
PUBLIC	??_G_Iostream_error_category@std@@UAEPAXI@Z	; std::_Iostream_error_category::`scalar deleting destructor'
PUBLIC	??0_System_error_category@std@@QAE@XZ		; std::_System_error_category::_System_error_category
PUBLIC	?name@_System_error_category@std@@UBEPBDXZ	; std::_System_error_category::name
PUBLIC	?message@_System_error_category@std@@UBE?AV?$basic_string@DU?$char_traits@D@std@@V?$allocator@D@2@@2@H@Z ; std::_System_error_category::message
PUBLIC	?default_error_condition@_System_error_category@std@@UBE?AVerror_condition@2@H@Z ; std::_System_error_category::default_error_condition
PUBLIC	??1_System_error_category@std@@UAE@XZ		; std::_System_error_category::~_System_error_category
PUBLIC	??_G_System_error_category@std@@UAEPAXI@Z	; std::_System_error_category::`scalar deleting destructor'
PUBLIC	?GetAvionicsType@PlayerOptionsClass@@QAEHXZ	; PlayerOptionsClass::GetAvionicsType
PUBLIC	?GetAutopilotMode@PlayerOptionsClass@@QAEHXZ	; PlayerOptionsClass::GetAutopilotMode
PUBLIC	?InvulnerableOn@PlayerOptionsClass@@QAEHXZ	; PlayerOptionsClass::InvulnerableOn
PUBLIC	?Get3dTrackIR@PlayerOptionsClass@@QBE_NXZ	; PlayerOptionsClass::Get3dTrackIR
PUBLIC	?SetSimFlag@PlayerOptionsClass@@QAEXH@Z		; PlayerOptionsClass::SetSimFlag
PUBLIC	?ClearSimFlag@PlayerOptionsClass@@QAEXH@Z	; PlayerOptionsClass::ClearSimFlag
PUBLIC	?SetScale@OTWDriverClass@@QAEXM@Z		; OTWDriverClass::SetScale
PUBLIC	?SetFrontTextFlags@OTWDriverClass@@QAEXJ@Z	; OTWDriverClass::SetFrontTextFlags
PUBLIC	?GetFrontTextFlags@OTWDriverClass@@QAEJXZ	; OTWDriverClass::GetFrontTextFlags
PUBLIC	?SetCameraPanTilt@OTWDriverClass@@QAEXMM@Z	; OTWDriverClass::SetCameraPanTilt
PUBLIC	?GetVirtualCockpit@OTWDriverClass@@QAEPAVDrawableBSP@@XZ ; OTWDriverClass::GetVirtualCockpit
PUBLIC	?SetHeadTracking@OTWDriverClass@@QAEXH@Z	; OTWDriverClass::SetHeadTracking
PUBLIC	?IsHeadTracking@OTWDriverClass@@QAEHXZ		; OTWDriverClass::IsHeadTracking
PUBLIC	?IsSOI@DrawableClass@@QAEHXZ			; DrawableClass::IsSOI
PUBLIC	?CurMode@MFDClass@@QAE?AW4MfdMode@1@XZ		; MFDClass::CurMode
PUBLIC	?GetCurMode@MFDClass@@QAE?AW4MfdMode@1@XZ	; MFDClass::GetCurMode
PUBLIC	?CurrentTarget@SensorClass@@QAEPAVSimObjectType@@XZ ; SensorClass::CurrentTarget
PUBLIC	?GetLastNavMasterMode@FireControlComputer@@QAE?AW4FCCMasterMode@1@XZ ; FireControlComputer::GetLastNavMasterMode
PUBLIC	?GetMasterMode@FireControlComputer@@QAE?AW4FCCMasterMode@1@XZ ; FireControlComputer::GetMasterMode
PUBLIC	?IsNavMasterMode@FireControlComputer@@QAEHXZ	; FireControlComputer::IsNavMasterMode
PUBLIC	?GetSubMode@FireControlComputer@@QAE?AW4FCCSubMode@1@XZ ; FireControlComputer::GetSubMode
PUBLIC	?SetLastDesignate@FireControlComputer@@QAEXXZ	; FireControlComputer::SetLastDesignate
PUBLIC	?MasterArm@SMSBaseClass@@QAE?AW4MasterArmState@1@XZ ; SMSBaseClass::MasterArm
PUBLIC	?SetMasterArm@SMSBaseClass@@QAEXW4MasterArmState@1@@Z ; SMSBaseClass::SetMasterArm
PUBLIC	?GetCoolState@SMSClass@@QAE?AW4Aim9Mode@1@XZ	; SMSClass::GetCoolState
PUBLIC	?SetCoolState@SMSClass@@QAEXW4Aim9Mode@1@@Z	; SMSClass::SetCoolState
PUBLIC	?SetAGBPair@SMSClass@@QAEX_N@Z			; SMSClass::SetAGBPair
PUBLIC	?DisplayMode@SmsDrawable@@QAE?AW4SmsDisplayMode@1@XZ ; SmsDrawable::DisplayMode
PUBLIC	?GetDataLinkCapLevel@AirframeClass@@QAEHXZ	; AirframeClass::GetDataLinkCapLevel
PUBLIC	?GetNumberEngines@AirframeClass@@QAEHXZ		; AirframeClass::GetNumberEngines
PUBLIC	?GetTypeAC@AirframeClass@@QAEHXZ		; AirframeClass::GetTypeAC
PUBLIC	?HasDragChute@AirframeClass@@QAE_NXZ		; AirframeClass::HasDragChute
PUBLIC	?GetEpuSwitch@AirframeClass@@QAE?AW4EpuState@1@XZ ; AirframeClass::GetEpuSwitch
PUBLIC	?SetEpuSwitch@AirframeClass@@QAEXW4EpuState@1@@Z ; AirframeClass::SetEpuSwitch
PUBLIC	?HydraulicA@AirframeClass@@QAEHXZ		; AirframeClass::HydraulicA
PUBLIC	?HydraulicB@AirframeClass@@QAEHXZ		; AirframeClass::HydraulicB
PUBLIC	?IsEngineFlag@AirframeClass@@QAEHW4EngineFlags@1@@Z ; AirframeClass::IsEngineFlag
PUBLIC	?SetEngineFlag@AirframeClass@@QAEXW4EngineFlags@1@@Z ; AirframeClass::SetEngineFlag
PUBLIC	?ClearEngineFlag@AirframeClass@@QAEXW4EngineFlags@1@@Z ; AirframeClass::ClearEngineFlag
PUBLIC	?ToggleEngineFlag@AirframeClass@@QAEXW4EngineFlags@1@@Z ; AirframeClass::ToggleEngineFlag
PUBLIC	?SetFuelSwitch@AirframeClass@@QAEXW4FuelSwitch@1@@Z ; AirframeClass::SetFuelSwitch
PUBLIC	?GetFuelSwitch@AirframeClass@@QAE?AW4FuelSwitch@1@XZ ; AirframeClass::GetFuelSwitch
PUBLIC	?SetFuelPump@AirframeClass@@QAEXW4FuelPump@1@@Z	; AirframeClass::SetFuelPump
PUBLIC	?GetFuelPump@AirframeClass@@QAE?AW4FuelPump@1@XZ ; AirframeClass::GetFuelPump
PUBLIC	?SetAirSource@AirframeClass@@QAEXW4AirSource@1@@Z ; AirframeClass::SetAirSource
PUBLIC	?GetAirSource@AirframeClass@@QAE?AW4AirSource@1@XZ ; AirframeClass::GetAirSource
PUBLIC	?GeneratorOff@AirframeClass@@QAEXW4Generator@1@@Z ; AirframeClass::GeneratorOff
PUBLIC	?GeneratorBreak@AirframeClass@@QAEXW4Generator@1@@Z ; AirframeClass::GeneratorBreak
PUBLIC	?Throtl@AirframeClass@@QAEMXZ			; AirframeClass::Throtl
PUBLIC	?Fuel@AirframeClass@@QAEMXZ			; AirframeClass::Fuel
PUBLIC	?ExternalFuel@AirframeClass@@QAEMXZ		; AirframeClass::ExternalFuel
PUBLIC	?SetFlag@AirframeClass@@QAEXH@Z			; AirframeClass::SetFlag
PUBLIC	?ClearFlag@AirframeClass@@QAEXH@Z		; AirframeClass::ClearFlag
PUBLIC	?IsSet@AirframeClass@@QBEHH@Z			; AirframeClass::IsSet
PUBLIC	?IsEmitting@RadarClass@@QAEHXZ			; RadarClass::IsEmitting
PUBLIC	?IsSet@RadarDopplerClass@@QAEHH@Z		; RadarDopplerClass::IsSet
PUBLIC	?ClearFlagBit@RadarDopplerClass@@QAEXH@Z	; RadarDopplerClass::ClearFlagBit
PUBLIC	?ToggleFlag@RadarDopplerClass@@QAEXH@Z		; RadarDopplerClass::ToggleFlag
PUBLIC	?twsTrackDirectory@RadarDopplerClass@@QAEPAVTWSTrackList@1@XZ ; RadarDopplerClass::twsTrackDirectory
PUBLIC	?GetCurrentState@CPButtonObject@@QBEHXZ		; CPButtonObject::GetCurrentState
PUBLIC	?ClearFault@FackClass@@QAEXW4type_FSubSystem@FaultClass@@W4type_FFunction@3@@Z ; FackClass::ClearFault
PUBLIC	?ClearAvioncFault@FackClass@@QAEXXZ		; FackClass::ClearAvioncFault
PUBLIC	?MasterCaution@FackClass@@QAEHXZ		; FackClass::MasterCaution
PUBLIC	?ClearMasterCaution@FackClass@@QAEXXZ		; FackClass::ClearMasterCaution
PUBLIC	?SetManWarnReset@FackClass@@QAEXXZ		; FackClass::SetManWarnReset
PUBLIC	?ClearWarnReset@FackClass@@QAEXXZ		; FackClass::ClearWarnReset
PUBLIC	?SetICPFlag@ICPClass@@QAEXH@Z			; ICPClass::SetICPFlag
PUBLIC	?ClearICPFlag@ICPClass@@QAEXH@Z			; ICPClass::ClearICPFlag
PUBLIC	?IsICPSet@ICPClass@@QAEHH@Z			; ICPClass::IsICPSet
PUBLIC	?GetICPPrimaryMode@ICPClass@@QAEJXZ		; ICPClass::GetICPPrimaryMode
PUBLIC	?GetICPSecondaryMode@ICPClass@@QAEJXZ		; ICPClass::GetICPSecondaryMode
PUBLIC	?GetActivePanel@CockpitManager@@QAEPAVCPPanel@@XZ ; CockpitManager::GetActivePanel
PUBLIC	?AltPanel@CockpitManager@@QAEHXZ		; CockpitManager::AltPanel
PUBLIC	?ResetMaxG@HudClass@@QAEXXZ			; HudClass::ResetMaxG
PUBLIC	?SetPage@KneeBoard@@QAEXW4Page@1@@Z		; KneeBoard::SetPage
PUBLIC	?GetPage@KneeBoard@@QAE?AW4Page@1@XZ		; KneeBoard::GetPage
PUBLIC	?Online@UIComms@@QAEHXZ				; UIComms::Online
PUBLIC	?ToggleFOV@MaverickDisplayClass@@QAEXXZ		; MaverickDisplayClass::ToggleFOV
PUBLIC	?TogglePolarity@LaserPodClass@@QAEXXZ		; LaserPodClass::TogglePolarity
PUBLIC	?IsPriority@PlayerRwrClass@@QAEHXZ		; PlayerRwrClass::IsPriority
PUBLIC	?TargetSep@PlayerRwrClass@@QAEHXZ		; PlayerRwrClass::TargetSep
PUBLIC	?ShowUnknowns@PlayerRwrClass@@QAEHXZ		; PlayerRwrClass::ShowUnknowns
PUBLIC	?ShowNaval@PlayerRwrClass@@QAEHXZ		; PlayerRwrClass::ShowNaval
PUBLIC	?ShowSearch@PlayerRwrClass@@QAEHXZ		; PlayerRwrClass::ShowSearch
PUBLIC	?ShowLowAltPriority@PlayerRwrClass@@QAEHXZ	; PlayerRwrClass::ShowLowAltPriority
PUBLIC	?getCurrentEngine@PilotInputs@@QAE?AW4Engine_t@1@XZ ; PilotInputs::getCurrentEngine
PUBLIC	?selectLeftEngine@PilotInputs@@QAEXXZ		; PilotInputs::selectLeftEngine
PUBLIC	?selectRightEngine@PilotInputs@@QAEXXZ		; PilotInputs::selectRightEngine
PUBLIC	?selectBothEngines@PilotInputs@@QAEXXZ		; PilotInputs::selectBothEngines
PUBLIC	?GetTFRMode@LantirnClass@@QAE?AW4TfrMode@1@XZ	; LantirnClass::GetTFRMode
PUBLIC	?SetTFRMode@LantirnClass@@QAEXW4TfrMode@1@@Z	; LantirnClass::SetTFRMode
PUBLIC	?AnalogIsUsed@SIMLIB_IO_CLASS@@QAE_NW4GameAxis_t@@@Z ; SIMLIB_IO_CLASS::AnalogIsUsed
PUBLIC	?SimCursorFunc@?A0x786e660c@@YAXHHH@Z		; `anonymous namespace'::SimCursorFunc
PUBLIC	??$construct@PADAAPAD@?$_Wrap_alloc@V?$allocator@D@std@@@std@@QAEXPAPADAAPAD@Z ; std::_Wrap_alloc<std::allocator<char> >::construct<char *,char * &>
PUBLIC	??$destroy@PAD@?$_Wrap_alloc@V?$allocator@D@std@@@std@@QAEXPAPAD@Z ; std::_Wrap_alloc<std::allocator<char> >::destroy<char *>
PUBLIC	??$addressof@D@std@@YAPADAAD@Z			; std::addressof<char>
PUBLIC	??$_Allocate@D@std@@YAPADIPAD@Z			; std::_Allocate<char>
PUBLIC	??$forward@AAPAD@std@@YAAAPADAAPAD@Z		; std::forward<char * &>
PUBLIC	??$construct@PADAAPAD@?$allocator_traits@V?$allocator@D@std@@@std@@SAXAAV?$allocator@D@1@PAPADAAPAD@Z ; std::allocator_traits<std::allocator<char> >::construct<char *,char * &>
PUBLIC	??$destroy@PAD@?$allocator_traits@V?$allocator@D@std@@@std@@SAXAAV?$allocator@D@1@PAPAD@Z ; std::allocator_traits<std::allocator<char> >::destroy<char *>
PUBLIC	??$construct@PADAAPAD@?$allocator@D@std@@QAEXPAPADAAPAD@Z ; std::allocator<char>::construct<char *,char * &>
PUBLIC	??$destroy@PAD@?$allocator@D@std@@QAEXPAPAD@Z	; std::allocator<char>::destroy<char *>
PUBLIC	??_7error_category@std@@6B@			; std::error_category::`vftable'
PUBLIC	??_7_Generic_error_category@std@@6B@		; std::_Generic_error_category::`vftable'
PUBLIC	??_C@_07DCLBNMLN@generic?$AA@			; `string'
PUBLIC	??_C@_0O@BFJCFAAK@unknown?5error?$AA@		; `string'
PUBLIC	??_7_Iostream_error_category@std@@6B@		; std::_Iostream_error_category::`vftable'
PUBLIC	??_C@_08LLGCOLLL@iostream?$AA@			; `string'
PUBLIC	??_C@_0BG@PADBLCHM@iostream?5stream?5error?$AA@	; `string'
PUBLIC	??_7_System_error_category@std@@6B@		; std::_System_error_category::`vftable'
PUBLIC	??_C@_06FHFOAHML@system?$AA@			; `string'
PUBLIC	?_Generic_object@?$_Error_objects@H@std@@2V_Generic_error_category@2@A ; std::_Error_objects<int>::_Generic_object
PUBLIC	?_Iostream_object@?$_Error_objects@H@std@@2V_Iostream_error_category@2@A ; std::_Error_objects<int>::_Iostream_object
PUBLIC	?_System_object@?$_Error_objects@H@std@@2V_System_error_category@2@A ; std::_Error_objects<int>::_System_object
PUBLIC	?id@?$num_put@DV?$back_insert_iterator@V?$basic_string@DU?$char_traits@D@std@@V?$allocator@D@2@@std@@@std@@@std@@2V0locale@2@A ; std::num_put<char,std::back_insert_iterator<std::basic_string<char,std::char_traits<char>,std::allocator<char> > > >::id
PUBLIC	?id@?$num_put@_WV?$back_insert_iterator@V?$basic_string@_WU?$char_traits@_W@std@@V?$allocator@_W@2@@std@@@std@@@std@@2V0locale@2@A ; std::num_put<wchar_t,std::back_insert_iterator<std::basic_string<wchar_t,std::char_traits<wchar_t>,std::allocator<wchar_t> > > >::id
PUBLIC	??_C@_0N@GJLGHHE@vtuneapi?4dll?$AA@		; `string'
PUBLIC	??_C@_0BA@NIOBKLHM@VtPauseSampling?$AA@		; `string'
PUBLIC	??_C@_0BB@CNJIDIOC@VtResumeSampling?$AA@	; `string'
PUBLIC	?id@?$numpunct@D@std@@2V0locale@2@A		; std::numpunct<char>::id
PUBLIC	?id@?$numpunct@_W@std@@2V0locale@2@A		; std::numpunct<wchar_t>::id
PUBLIC	??_C@_0BI@CFPLBAOH@invalid?5string?5position?$AA@ ; `string'
PUBLIC	??_C@_0BA@JFNIOLAK@string?5too?5long?$AA@	; `string'
PUBLIC	??_R4error_category@std@@6B@			; std::error_category::`RTTI Complete Object Locator'
PUBLIC	??_R0?AVerror_category@std@@@8			; std::error_category `RTTI Type Descriptor'
PUBLIC	??_R3error_category@std@@8			; std::error_category::`RTTI Class Hierarchy Descriptor'
PUBLIC	??_R2error_category@std@@8			; std::error_category::`RTTI Base Class Array'
PUBLIC	??_R1A@?0A@EA@error_category@std@@8		; std::error_category::`RTTI Base Class Descriptor at (0,-1,0,64)'
PUBLIC	??_R4_Generic_error_category@std@@6B@		; std::_Generic_error_category::`RTTI Complete Object Locator'
PUBLIC	??_R0?AV_Generic_error_category@std@@@8		; std::_Generic_error_category `RTTI Type Descriptor'
PUBLIC	??_R3_Generic_error_category@std@@8		; std::_Generic_error_category::`RTTI Class Hierarchy Descriptor'
PUBLIC	??_R2_Generic_error_category@std@@8		; std::_Generic_error_category::`RTTI Base Class Array'
PUBLIC	??_R1A@?0A@EA@_Generic_error_category@std@@8	; std::_Generic_error_category::`RTTI Base Class Descriptor at (0,-1,0,64)'
PUBLIC	??_R4_Iostream_error_category@std@@6B@		; std::_Iostream_error_category::`RTTI Complete Object Locator'
PUBLIC	??_R0?AV_Iostream_error_category@std@@@8	; std::_Iostream_error_category `RTTI Type Descriptor'
PUBLIC	??_R3_Iostream_error_category@std@@8		; std::_Iostream_error_category::`RTTI Class Hierarchy Descriptor'
PUBLIC	??_R2_Iostream_error_category@std@@8		; std::_Iostream_error_category::`RTTI Base Class Array'
PUBLIC	??_R1A@?0A@EA@_Iostream_error_category@std@@8	; std::_Iostream_error_category::`RTTI Base Class Descriptor at (0,-1,0,64)'
PUBLIC	??_R4_System_error_category@std@@6B@		; std::_System_error_category::`RTTI Complete Object Locator'
PUBLIC	??_R0?AV_System_error_category@std@@@8		; std::_System_error_category `RTTI Type Descriptor'
PUBLIC	??_R3_System_error_category@std@@8		; std::_System_error_category::`RTTI Class Hierarchy Descriptor'
PUBLIC	??_R2_System_error_category@std@@8		; std::_System_error_category::`RTTI Base Class Array'
PUBLIC	??_R1A@?0A@EA@_System_error_category@std@@8	; std::_System_error_category::`RTTI Base Class Descriptor at (0,-1,0,64)'
PUBLIC	__real@00000000
PUBLIC	__real@3c23d70a
PUBLIC	__real@3c8efa34
PUBLIC	__real@3dcccccd
PUBLIC	__real@3e4ccccd
PUBLIC	__real@3e800000
PUBLIC	__real@3f000000
PUBLIC	__real@3f20d845
PUBLIC	__real@3f800000
PUBLIC	__real@3f8147ae
PUBLIC	__real@3fc00000
PUBLIC	__real@3fd80b03
PUBLIC	__real@3ff0000000000000
PUBLIC	__real@3ff4000000000000
PUBLIC	__real@40000000
PUBLIC	__real@4040000000000000
PUBLIC	__real@40a00000
PUBLIC	__real@40e00000
PUBLIC	__real@41200000
PUBLIC	__real@41700000
PUBLIC	__real@42000000
PUBLIC	__real@42100000
PUBLIC	__real@42c80000
PUBLIC	__real@447a0000
PUBLIC	__real@44fa0000
PUBLIC	__real@47c34f80
PUBLIC	__real@be800000
PUBLIC	__real@bf000000
PUBLIC	__real@bf800000
PUBLIC	__real@c0000000
PUBLIC	__real@c0e00000
PUBLIC	__real@c4fa0000
PUBLIC	__xmm@41f00000000000000000000000000000
PUBLIC	__xmm@80000000800000008000000080000000
EXTRN	__purecall:PROC
EXTRN	??2@YAPAXI@Z:PROC				; operator new
EXTRN	??3@YAXPAX@Z:PROC				; operator delete
EXTRN	_atexit:PROC
EXTRN	_fabs:PROC
EXTRN	_rand:PROC
EXTRN	_memcpy:PROC
EXTRN	_strlen:PROC
EXTRN	_memmove:PROC
EXTRN	__imp__GetProcAddress@8:PROC
EXTRN	__imp__LoadLibraryA@4:PROC
EXTRN	?F4IsBadReadPtr@@YA_NPBXI@Z:PROC		; F4IsBadReadPtr
EXTRN	?F4IsBadCodePtr@@YA_NPAX@Z:PROC			; F4IsBadCodePtr
EXTRN	?F4IsBadWritePtr@@YA_NPAXI@Z:PROC		; F4IsBadWritePtr
EXTRN	?_Xbad_alloc@std@@YAXXZ:PROC			; std::_Xbad_alloc
EXTRN	?_Xlength_error@std@@YAXPBD@Z:PROC		; std::_Xlength_error
EXTRN	?_Xout_of_range@std@@YAXPBD@Z:PROC		; std::_Xout_of_range
EXTRN	?Game@VuSessionEntity@@QAEPAVVuGameEntity@@XZ:PROC ; VuSessionEntity::Game
EXTRN	?MakeFlagsDirty@FalconEntity@@QAEXXZ:PROC	; FalconEntity::MakeFlagsDirty
EXTRN	?GetGameType@FalconGameEntity@@QAE?AW4FalconGameType@@XZ:PROC ; FalconGameEntity::GetGameType
EXTRN	_F4HearVoices:PROC
EXTRN	?SetFlag@SimBaseClass@@QAEXH@Z:PROC		; SimBaseClass::SetFlag
EXTRN	?UnSetFlag@SimBaseClass@@QAEXH@Z:PROC		; SimBaseClass::UnSetFlag
EXTRN	?StepSOI@SimVehicleClass@@QAEXH@Z:PROC		; SimVehicleClass::StepSOI
EXTRN	?SetAcStatusBits@AircraftClass@@QAEXH@Z:PROC	; AircraftClass::SetAcStatusBits
EXTRN	?ClearAcStatusBits@AircraftClass@@QAEXH@Z:PROC	; AircraftClass::ClearAcStatusBits
EXTRN	?SwitchINSToAlign@AircraftClass@@QAEXXZ:PROC	; AircraftClass::SwitchINSToAlign
EXTRN	?SwitchINSToNav@AircraftClass@@QAEXXZ:PROC	; AircraftClass::SwitchINSToNav
EXTRN	?SwitchINSToOff@AircraftClass@@QAEXXZ:PROC	; AircraftClass::SwitchINSToOff
EXTRN	?SwitchINSToInFLT@AircraftClass@@QAEXXZ:PROC	; AircraftClass::SwitchINSToInFLT
EXTRN	?AddAVTRSeconds@AircraftClass@@QAEXXZ:PROC	; AircraftClass::AddAVTRSeconds
EXTRN	?SetAutopilot@AircraftClass@@QAEXW4AutoPilotType@1@@Z:PROC ; AircraftClass::SetAutopilot
EXTRN	?DropEWS@AircraftClass@@QAEXXZ:PROC		; AircraftClass::DropEWS
EXTRN	?SetAPParameters@AircraftClass@@QAEXXZ:PROC	; AircraftClass::SetAPParameters
EXTRN	?SetNewRoll@AircraftClass@@QAEXXZ:PROC		; AircraftClass::SetNewRoll
EXTRN	?SetNewPitch@AircraftClass@@QAEXXZ:PROC		; AircraftClass::SetNewPitch
EXTRN	?SetNewAlt@AircraftClass@@QAEXXZ:PROC		; AircraftClass::SetNewAlt
EXTRN	?StepSeatArm@AircraftClass@@QAEXXZ:PROC		; AircraftClass::StepSeatArm
EXTRN	?HasPower@AircraftClass@@QAEHW4AvionicsPowerFlags@1@@Z:PROC ; AircraftClass::HasPower
EXTRN	?IncMainPower@AircraftClass@@QAEXXZ:PROC	; AircraftClass::IncMainPower
EXTRN	?DecMainPower@AircraftClass@@QAEXXZ:PROC	; AircraftClass::DecMainPower
EXTRN	?IncEWSPGM@AircraftClass@@QAEXXZ:PROC		; AircraftClass::IncEWSPGM
EXTRN	?DecEWSPGM@AircraftClass@@QAEXXZ:PROC		; AircraftClass::DecEWSPGM
EXTRN	?DecEWSProg@AircraftClass@@QAEXXZ:PROC		; AircraftClass::DecEWSProg
EXTRN	?IncEWSProg@AircraftClass@@QAEXXZ:PROC		; AircraftClass::IncEWSProg
EXTRN	?ToggleBetty@AircraftClass@@QAEXXZ:PROC		; AircraftClass::ToggleBetty
EXTRN	?ToggleAutopilot@AircraftClass@@QAEXXZ:PROC	; AircraftClass::ToggleAutopilot
EXTRN	?FalconSendMessage@@YAXPAVVuMessage@@H@Z:PROC	; FalconSendMessage
EXTRN	?TogglePause@SimulationDriver@@QAEXXZ:PROC	; SimulationDriver::TogglePause
EXTRN	?GetPlayerAircraft@SimulationDriver@@QBEPAVAircraftClass@@XZ:PROC ; SimulationDriver::GetPlayerAircraft
EXTRN	??_Eerror_category@std@@UAEPAXI@Z:PROC		; std::error_category::`vector deleting destructor'
EXTRN	?_Syserror_map@std@@YAPBDH@Z:PROC		; std::_Syserror_map
EXTRN	?_Winerror_map@std@@YAPBDH@Z:PROC		; std::_Winerror_map
EXTRN	??_E_Generic_error_category@std@@UAEPAXI@Z:PROC	; std::_Generic_error_category::`vector deleting destructor'
EXTRN	??_E_Iostream_error_category@std@@UAEPAXI@Z:PROC ; std::_Iostream_error_category::`vector deleting destructor'
EXTRN	??_E_System_error_category@std@@UAEPAXI@Z:PROC	; std::_System_error_category::`vector deleting destructor'
EXTRN	?SetOTWDisplayMode@OTWDriverClass@@QAEXW4OTWDisplayMode@1@@Z:PROC ; OTWDriverClass::SetOTWDisplayMode
EXTRN	?GetOTWDisplayMode@OTWDriverClass@@QAE?AW4OTWDisplayMode@1@XZ:PROC ; OTWDriverClass::GetOTWDisplayMode
EXTRN	?SetDetail@OTWDriverClass@@QAEXH@Z:PROC		; OTWDriverClass::SetDetail
EXTRN	?SetFOV@OTWDriverClass@@QAEXM@Z:PROC		; OTWDriverClass::SetFOV
EXTRN	?GetFOV@OTWDriverClass@@QAEMXZ:PROC		; OTWDriverClass::GetFOV
EXTRN	?ViewTiltUp@OTWDriverClass@@QAEXXZ:PROC		; OTWDriverClass::ViewTiltUp
EXTRN	?ViewTiltDown@OTWDriverClass@@QAEXXZ:PROC	; OTWDriverClass::ViewTiltDown
EXTRN	?ViewTiltHold@OTWDriverClass@@QAEXXZ:PROC	; OTWDriverClass::ViewTiltHold
EXTRN	?ViewSpinLeft@OTWDriverClass@@QAEXXZ:PROC	; OTWDriverClass::ViewSpinLeft
EXTRN	?ViewSpinRight@OTWDriverClass@@QAEXXZ:PROC	; OTWDriverClass::ViewSpinRight
EXTRN	?ViewSpinHold@OTWDriverClass@@QAEXXZ:PROC	; OTWDriverClass::ViewSpinHold
EXTRN	?ViewReset@OTWDriverClass@@QAEXXZ:PROC		; OTWDriverClass::ViewReset
EXTRN	?ViewZoomIn@OTWDriverClass@@QAEXXZ:PROC		; OTWDriverClass::ViewZoomIn
EXTRN	?ViewZoomOut@OTWDriverClass@@QAEXXZ:PROC	; OTWDriverClass::ViewZoomOut
EXTRN	?NVGToggle@OTWDriverClass@@QAEXXZ:PROC		; OTWDriverClass::NVGToggle
EXTRN	?IDTagToggle@OTWDriverClass@@QAEXXZ:PROC	; OTWDriverClass::IDTagToggle
EXTRN	?CampTagToggle@OTWDriverClass@@QAEXXZ:PROC	; OTWDriverClass::CampTagToggle
EXTRN	?ViewStepNext@OTWDriverClass@@QAEXXZ:PROC	; OTWDriverClass::ViewStepNext
EXTRN	?ViewStepPrev@OTWDriverClass@@QAEXXZ:PROC	; OTWDriverClass::ViewStepPrev
EXTRN	?TargetStepNext@OTWDriverClass@@QAEXXZ:PROC	; OTWDriverClass::TargetStepNext
EXTRN	?TargetStepPrev@OTWDriverClass@@QAEXXZ:PROC	; OTWDriverClass::TargetStepPrev
EXTRN	?ToggleGLOC@OTWDriverClass@@QAEXXZ:PROC		; OTWDriverClass::ToggleGLOC
EXTRN	?StepHeadingScale@OTWDriverClass@@QAEXXZ:PROC	; OTWDriverClass::StepHeadingScale
EXTRN	?EndFlight@OTWDriverClass@@QAEXXZ:PROC		; OTWDriverClass::EndFlight
EXTRN	?ToggleBilinearFilter@OTWDriverClass@@QAEXXZ:PROC ; OTWDriverClass::ToggleBilinearFilter
EXTRN	?ToggleEyeFly@OTWDriverClass@@QAEXXZ:PROC	; OTWDriverClass::ToggleEyeFly
EXTRN	?ToggleShading@OTWDriverClass@@QAEXXZ:PROC	; OTWDriverClass::ToggleShading
EXTRN	?ToggleHaze@OTWDriverClass@@QAEXXZ:PROC		; OTWDriverClass::ToggleHaze
EXTRN	?ToggleLocationDisplay@OTWDriverClass@@QAEXXZ:PROC ; OTWDriverClass::ToggleLocationDisplay
EXTRN	?ToggleAeroDisplay@OTWDriverClass@@QAEXXZ:PROC	; OTWDriverClass::ToggleAeroDisplay
EXTRN	?ToggleFlapDisplay@OTWDriverClass@@QAEXXZ:PROC	; OTWDriverClass::ToggleFlapDisplay
EXTRN	?ToggleEngineDisplay@OTWDriverClass@@QAEXXZ:PROC ; OTWDriverClass::ToggleEngineDisplay
EXTRN	?StartLocationEntry@OTWDriverClass@@QAEXXZ:PROC	; OTWDriverClass::StartLocationEntry
EXTRN	?ScaleDown@OTWDriverClass@@QAEXXZ:PROC		; OTWDriverClass::ScaleDown
EXTRN	?ScaleUp@OTWDriverClass@@QAEXXZ:PROC		; OTWDriverClass::ScaleUp
EXTRN	?DetailDown@OTWDriverClass@@QAEXXZ:PROC		; OTWDriverClass::DetailDown
EXTRN	?DetailUp@OTWDriverClass@@QAEXXZ:PROC		; OTWDriverClass::DetailUp
EXTRN	?ToggleWeather@OTWDriverClass@@QAEXXZ:PROC	; OTWDriverClass::ToggleWeather
EXTRN	?RescaleAllObjects@OTWDriverClass@@QAEXXZ:PROC	; OTWDriverClass::RescaleAllObjects
EXTRN	?GlanceForward@OTWDriverClass@@QAEXXZ:PROC	; OTWDriverClass::GlanceForward
EXTRN	?GlanceAft@OTWDriverClass@@QAEXXZ:PROC		; OTWDriverClass::GlanceAft
EXTRN	?EyeFlyStateStep@OTWDriverClass@@QAEXXZ:PROC	; OTWDriverClass::EyeFlyStateStep
EXTRN	?ToggleActionCamera@OTWDriverClass@@QAEXXZ:PROC	; OTWDriverClass::ToggleActionCamera
EXTRN	?toggleDisplaceCamera@OTWDriverClass@@QAEXXZ:PROC ; OTWDriverClass::toggleDisplaceCamera
EXTRN	?ToggleInfoBar@OTWDriverClass@@QAEXXZ:PROC	; OTWDriverClass::ToggleInfoBar
EXTRN	?ToggleSubTitles@OTWDriverClass@@QAEXXZ:PROC	; OTWDriverClass::ToggleSubTitles
EXTRN	?Padlock_SetPriority@OTWDriverClass@@QAEXW4PadlockPriority@1@@Z:PROC ; OTWDriverClass::Padlock_SetPriority
EXTRN	?ToggleSidebar@OTWDriverClass@@QAEXXZ:PROC	; OTWDriverClass::ToggleSidebar
EXTRN	?SetNewMasterMode@MFDClass@@QAEXH@Z:PROC	; MFDClass::SetNewMasterMode
EXTRN	?ButtonPushed@MFDClass@@QAEXHH@Z:PROC		; MFDClass::ButtonPushed
EXTRN	?SetNewMode@MFDClass@@QAEXW4MfdMode@1@@Z:PROC	; MFDClass::SetNewMode
EXTRN	?IncreaseBrightness@MFDClass@@QAEXXZ:PROC	; MFDClass::IncreaseBrightness
EXTRN	?DecreaseBrightness@MFDClass@@QAEXXZ:PROC	; MFDClass::DecreaseBrightness
EXTRN	?MFDSwapDisplays@@YAXXZ:PROC			; MFDSwapDisplays
EXTRN	?FindSensor@@YAPAVSensorClass@@PAVSimMoverClass@@H@Z:PROC ; FindSensor
EXTRN	?ClearOverrideMode@FireControlComputer@@QAEXXZ:PROC ; FireControlComputer::ClearOverrideMode
EXTRN	?NextSubMode@FireControlComputer@@QAEXXZ:PROC	; FireControlComputer::NextSubMode
EXTRN	?SetMasterMode@FireControlComputer@@QAEXW4FCCMasterMode@1@@Z:PROC ; FireControlComputer::SetMasterMode
EXTRN	?WeaponStep@FireControlComputer@@QAEXXZ:PROC	; FireControlComputer::WeaponStep
EXTRN	?GetMainMasterMode@FireControlComputer@@QAE?AW4MASTERMODES@@XZ:PROC ; FireControlComputer::GetMainMasterMode
EXTRN	?ToggleLaserArm@FireControlComputer@@QAEXXZ:PROC ; FireControlComputer::ToggleLaserArm
EXTRN	?ToggleHSDZoom@FireControlComputer@@QAEXXZ:PROC	; FireControlComputer::ToggleHSDZoom
EXTRN	?EnterAAMasterMode@FireControlComputer@@QAEXXZ:PROC ; FireControlComputer::EnterAAMasterMode
EXTRN	?EnterAGMasterMode@FireControlComputer@@QAEXXZ:PROC ; FireControlComputer::EnterAGMasterMode
EXTRN	?EnterMissileOverrideMode@FireControlComputer@@QAEXXZ:PROC ; FireControlComputer::EnterMissileOverrideMode
EXTRN	?EnterDogfightMode@FireControlComputer@@QAEXXZ:PROC ; FireControlComputer::EnterDogfightMode
EXTRN	?StepMasterArm@SMSBaseClass@@QAEXXZ:PROC	; SMSBaseClass::StepMasterArm
EXTRN	?StepCatIII@SMSBaseClass@@QAEXXZ:PROC		; SMSBaseClass::StepCatIII
EXTRN	?StepMavSubMode@SMSBaseClass@@QAEX_N@Z:PROC	; SMSBaseClass::StepMavSubMode
EXTRN	?EmergencyJettison@SMSClass@@QAEXXZ:PROC	; SMSClass::EmergencyJettison
EXTRN	?IncrementRippleCount@SMSClass@@QAEXXZ:PROC	; SMSClass::IncrementRippleCount
EXTRN	?DecrementRippleCount@SMSClass@@QAEXXZ:PROC	; SMSClass::DecrementRippleCount
EXTRN	?IncrementRippleInterval@SMSClass@@QAEXXZ:PROC	; SMSClass::IncrementRippleInterval
EXTRN	?DecrementRippleInterval@SMSClass@@QAEXXZ:PROC	; SMSClass::DecrementRippleInterval
EXTRN	?IncrementBurstHeight@SMSClass@@QAEXXZ:PROC	; SMSClass::IncrementBurstHeight
EXTRN	?DecrementBurstHeight@SMSClass@@QAEXXZ:PROC	; SMSClass::DecrementBurstHeight
EXTRN	?StepAAWeapon@SMSClass@@QAEXXZ:PROC		; SMSClass::StepAAWeapon
EXTRN	?StepAGWeapon@SMSClass@@QAEXXZ:PROC		; SMSClass::StepAGWeapon
EXTRN	?SetDisplayMode@SmsDrawable@@QAEXW4SmsDisplayMode@1@@Z:PROC ; SmsDrawable::SetDisplayMode
EXTRN	?StepDisplayMode@SmsDrawable@@QAEXXZ:PROC	; SmsDrawable::StepDisplayMode
EXTRN	?TEFClose@AirframeClass@@QAEXXZ:PROC		; AirframeClass::TEFClose
EXTRN	?TEFMax@AirframeClass@@QAEXXZ:PROC		; AirframeClass::TEFMax
EXTRN	?TEFInc@AirframeClass@@QAEXXZ:PROC		; AirframeClass::TEFInc
EXTRN	?TEFDec@AirframeClass@@QAEXXZ:PROC		; AirframeClass::TEFDec
EXTRN	?LEFClose@AirframeClass@@QAEXXZ:PROC		; AirframeClass::LEFClose
EXTRN	?LEFMax@AirframeClass@@QAEXXZ:PROC		; AirframeClass::LEFMax
EXTRN	?LEFInc@AirframeClass@@QAEXXZ:PROC		; AirframeClass::LEFInc
EXTRN	?LEFDec@AirframeClass@@QAEXXZ:PROC		; AirframeClass::LEFDec
EXTRN	?CanopyToggle@AirframeClass@@QAEXXZ:PROC	; AirframeClass::CanopyToggle
EXTRN	?StepEpuSwitch@AirframeClass@@QAEXXZ:PROC	; AirframeClass::StepEpuSwitch
EXTRN	?HydrBreak@AirframeClass@@QAEXH@Z:PROC		; AirframeClass::HydrBreak
EXTRN	?JfsEngineStart@AirframeClass@@QAEXXZ:PROC	; AirframeClass::JfsEngineStart
EXTRN	?TogglePB@AirframeClass@@QAEXXZ:PROC		; AirframeClass::TogglePB
EXTRN	?ToggleHook@AirframeClass@@QAEXXZ:PROC		; AirframeClass::ToggleHook
EXTRN	?HookUp@AirframeClass@@QAEXXZ:PROC		; AirframeClass::HookUp
EXTRN	?HookDown@AirframeClass@@QAEXXZ:PROC		; AirframeClass::HookDown
EXTRN	?IncFuelSwitch@AirframeClass@@QAEXXZ:PROC	; AirframeClass::IncFuelSwitch
EXTRN	?DecFuelSwitch@AirframeClass@@QAEXXZ:PROC	; AirframeClass::DecFuelSwitch
EXTRN	?IncFuelPump@AirframeClass@@QAEXXZ:PROC		; AirframeClass::IncFuelPump
EXTRN	?DecFuelPump@AirframeClass@@QAEXXZ:PROC		; AirframeClass::DecFuelPump
EXTRN	?IncAirSource@AirframeClass@@QAEXXZ:PROC	; AirframeClass::IncAirSource
EXTRN	?DecAirSource@AirframeClass@@QAEXXZ:PROC	; AirframeClass::DecAirSource
EXTRN	?AddFuel@AirframeClass@@QAEHM@Z:PROC		; AirframeClass::AddFuel
EXTRN	?SetVoiceVolume@@YAXH@Z:PROC			; SetVoiceVolume
EXTRN	??0FalconDLinkMessage@@QAE@VVU_ID@@PAVVuTargetEntity@@E@Z:PROC ; FalconDLinkMessage::FalconDLinkMessage
EXTRN	?ToggleUHFSrc@NavigationSystem@@QAEXXZ:PROC	; NavigationSystem::ToggleUHFSrc
EXTRN	?SetUHFSrc@NavigationSystem@@QAEXW4UHF_Mode_Type@1@@Z:PROC ; NavigationSystem::SetUHFSrc
EXTRN	?SetDomain@NavigationSystem@@QAEXW4Tacan_Channel_Src@1@W4Domain@TacanList@@@Z:PROC ; NavigationSystem::SetDomain
EXTRN	?GetDomain@NavigationSystem@@QAE?AW4Domain@TacanList@@W4Tacan_Channel_Src@1@@Z:PROC ; NavigationSystem::GetDomain
EXTRN	?ToggleDomain@NavigationSystem@@QAE?AW4Domain@TacanList@@W4Tacan_Channel_Src@1@@Z:PROC ; NavigationSystem::ToggleDomain
EXTRN	?ToggleControlSrc@NavigationSystem@@QAEXXZ:PROC	; NavigationSystem::ToggleControlSrc
EXTRN	?GetControlSrc@NavigationSystem@@QAE?AW4Tacan_Channel_Src@1@XZ:PROC ; NavigationSystem::GetControlSrc
EXTRN	?SetControlSrc@NavigationSystem@@QAEXW4Tacan_Channel_Src@1@@Z:PROC ; NavigationSystem::SetControlSrc
EXTRN	?SetInstrumentMode@NavigationSystem@@QAEXW4Instrument_Mode@1@@Z:PROC ; NavigationSystem::SetInstrumentMode
EXTRN	?GetInstrumentMode@NavigationSystem@@QAE?AW4Instrument_Mode@1@XZ:PROC ; NavigationSystem::GetInstrumentMode
EXTRN	?StepInstrumentMode@NavigationSystem@@QAEXXZ:PROC ; NavigationSystem::StepInstrumentMode
EXTRN	?GetTacanChannel@NavigationSystem@@QAEHW4Tacan_Channel_Src@1@H@Z:PROC ; NavigationSystem::GetTacanChannel
EXTRN	?GetTacanBand@NavigationSystem@@QAE?AW4StationSet@TacanList@@W4Tacan_Channel_Src@1@@Z:PROC ; NavigationSystem::GetTacanBand
EXTRN	?StepTacanChannelDigit@NavigationSystem@@QAEXW4Tacan_Channel_Src@1@HH@Z:PROC ; NavigationSystem::StepTacanChannelDigit
EXTRN	?StepTacanBand@NavigationSystem@@QAEXW4Tacan_Channel_Src@1@@Z:PROC ; NavigationSystem::StepTacanBand
EXTRN	?Transmit@@YAXH@Z:PROC				; Transmit
EXTRN	?DirectVoiceSetVolume@@YAXH@Z:PROC		; DirectVoiceSetVolume
EXTRN	?ToggleFullScreen@FalconDisplayConfiguration@@QAEXXZ:PROC ; FalconDisplayConfiguration::ToggleFullScreen
EXTRN	?ClearFault@FaultClass@@QAEXW4type_FSubSystem@1@W4type_FFunction@1@@Z:PROC ; FaultClass::ClearFault
EXTRN	?ClearFault@FackClass@@QAEXW4type_CSubSystem@@@Z:PROC ; FackClass::ClearFault
EXTRN	?GetFault@FackClass@@QAEHW4type_FSubSystem@FaultClass@@@Z:PROC ; FackClass::GetFault
EXTRN	?RandomFailure@FackClass@@QAEXXZ:PROC		; FackClass::RandomFailure
EXTRN	?SetCaution@FackClass@@QAEXW4type_CSubSystem@@@Z:PROC ; FackClass::SetCaution
EXTRN	?HandleInput@ICPClass@@QAEXHPAVCPButtonObject@@@Z:PROC ; ICPClass::HandleInput
EXTRN	?SetMFDButtonState@CPMisc@@QAEXHHH@Z:PROC	; CPMisc::SetMFDButtonState
EXTRN	?SetMasterCautionEvent@CPMisc@@QAEXXZ:PROC	; CPMisc::SetMasterCautionEvent
EXTRN	?GetButtonPointer@CockpitManager@@QAEPAVCPButtonObject@@H@Z:PROC ; CockpitManager::GetButtonPointer
EXTRN	?SetActivePanel@CockpitManager@@QAE_NH@Z:PROC	; CockpitManager::SetActivePanel
EXTRN	?UpdatePalette@CockpitManager@@QAEXXZ:PROC	; CockpitManager::UpdatePalette
EXTRN	?LoadCockpitDefaults@CockpitManager@@QAEXXZ:PROC ; CockpitManager::LoadCockpitDefaults
EXTRN	?SaveCockpitDefaults@CockpitManager@@QAEXXZ:PROC ; CockpitManager::SaveCockpitDefaults
EXTRN	?SetMasterVolume@CSoundMgr@@QAEJJ@Z:PROC	; CSoundMgr::SetMasterVolume
EXTRN	?GetMasterVolume@CSoundMgr@@QAEJXZ:PROC		; CSoundMgr::GetMasterVolume
EXTRN	?HudColorStep@HudClass@@QAEXXZ:PROC		; HudClass::HudColorStep
EXTRN	?SetLightLevel@HudClass@@QAEXXZ:PROC		; HudClass::SetLightLevel
EXTRN	?SetContrastLevel@HudClass@@QAEXXZ:PROC		; HudClass::SetContrastLevel
EXTRN	?GetScalesSwitch@HudClass@@QAEHXZ:PROC		; HudClass::GetScalesSwitch
EXTRN	?SetScalesSwitch@HudClass@@QAEXW4ScalesSwitch@1@@Z:PROC ; HudClass::SetScalesSwitch
EXTRN	?CycleScalesSwitch@HudClass@@QAEXXZ:PROC	; HudClass::CycleScalesSwitch
EXTRN	?GetFPMSwitch@HudClass@@QAEHXZ:PROC		; HudClass::GetFPMSwitch
EXTRN	?SetFPMSwitch@HudClass@@QAEXW4FPMSwitch@1@@Z:PROC ; HudClass::SetFPMSwitch
EXTRN	?CycleFPMSwitch@HudClass@@QAEXXZ:PROC		; HudClass::CycleFPMSwitch
EXTRN	?GetDriftCOSwitch@HudClass@@QAEHXZ:PROC		; HudClass::GetDriftCOSwitch
EXTRN	?SetDriftCOSwitch@HudClass@@QAEXW4DriftCOSwitch@1@@Z:PROC ; HudClass::SetDriftCOSwitch
EXTRN	?CycleDriftCOSwitch@HudClass@@QAEXXZ:PROC	; HudClass::CycleDriftCOSwitch
EXTRN	?GetDEDSwitch@HudClass@@QAEHXZ:PROC		; HudClass::GetDEDSwitch
EXTRN	?SetDEDSwitch@HudClass@@QAEXW4DEDSwitch@1@@Z:PROC ; HudClass::SetDEDSwitch
EXTRN	?CycleDEDSwitch@HudClass@@QAEXXZ:PROC		; HudClass::CycleDEDSwitch
EXTRN	?GetVelocitySwitch@HudClass@@QAEHXZ:PROC	; HudClass::GetVelocitySwitch
EXTRN	?SetVelocitySwitch@HudClass@@QAEXW4VelocitySwitch@1@@Z:PROC ; HudClass::SetVelocitySwitch
EXTRN	?CycleVelocitySwitch@HudClass@@QAEXXZ:PROC	; HudClass::CycleVelocitySwitch
EXTRN	?GetRadarSwitch@HudClass@@QAEHXZ:PROC		; HudClass::GetRadarSwitch
EXTRN	?SetRadarSwitch@HudClass@@QAEXW4RadarSwitch@1@@Z:PROC ; HudClass::SetRadarSwitch
EXTRN	?CycleRadarSwitch@HudClass@@QAEXXZ:PROC		; HudClass::CycleRadarSwitch
EXTRN	?GetBrightnessSwitch@HudClass@@QAEHXZ:PROC	; HudClass::GetBrightnessSwitch
EXTRN	?SetBrightnessSwitch@HudClass@@QAEXW4BrightnessSwitch@1@@Z:PROC ; HudClass::SetBrightnessSwitch
EXTRN	?CycleBrightnessSwitch@HudClass@@QAEXXZ:PROC	; HudClass::CycleBrightnessSwitch
EXTRN	?CycleBrightnessSwitchUp@HudClass@@QAEXXZ:PROC	; HudClass::CycleBrightnessSwitchUp
EXTRN	?CycleBrightnessSwitchDown@HudClass@@QAEXXZ:PROC ; HudClass::CycleBrightnessSwitchDown
EXTRN	?MoveRetCenter@HudClass@@QAEXXZ:PROC		; HudClass::MoveRetCenter
EXTRN	?IncState@CPHsi@@QAEXW4HSIButtonStates@1@M@Z:PROC ; CPHsi::IncState
EXTRN	?DecState@CPHsi@@QAEXW4HSIButtonStates@1@M@Z:PROC ; CPHsi::DecState
EXTRN	?GetValue@CPHsi@@QAEMW4HSIValues@1@@Z:PROC	; CPHsi::GetValue
EXTRN	?ToggleFOV@LaserPodClass@@QAEXXZ:PROC		; LaserPodClass::ToggleFOV
EXTRN	?BoresightTarget@HarmTargetingPod@@QAEXXZ:PROC	; HarmTargetingPod::BoresightTarget
EXTRN	?NextTarget@HarmTargetingPod@@QAEXXZ:PROC	; HarmTargetingPod::NextTarget
EXTRN	?PrevTarget@HarmTargetingPod@@QAEXXZ:PROC	; HarmTargetingPod::PrevTarget
EXTRN	??0FalconTrackMessage@@QAE@HVVU_ID@@PAVVuTargetEntity@@E@Z:PROC ; FalconTrackMessage::FalconTrackMessage
EXTRN	?Reset@PilotInputs@@QAEXXZ:PROC			; PilotInputs::Reset
EXTRN	?cycleCurrentEngine@PilotInputs@@QAEXXZ:PROC	; PilotInputs::cycleCurrentEngine
EXTRN	?ToggleFLIR@LantirnClass@@QAEXXZ:PROC		; LantirnClass::ToggleFLIR
EXTRN	?SetTimeCompression@@YAXH@Z:PROC		; SetTimeCompression
EXTRN	?SetDOFangle@DrawableBSP@@QAEXHM@Z:PROC		; DrawableBSP::SetDOFangle
EXTRN	?SetSwitchMask@DrawableBSP@@QAEXHK@Z:PROC	; DrawableBSP::SetSwitchMask
EXTRN	?RequestPlayerDivert@@YAXXZ:PROC		; RequestPlayerDivert
EXTRN	?FindLaserPod@@YAPAVSensorClass@@PAVSimMoverClass@@@Z:PROC ; FindLaserPod
EXTRN	?Previous@WinAmpFrontEnd@@QAEXXZ:PROC		; WinAmpFrontEnd::Previous
EXTRN	?Start@WinAmpFrontEnd@@QAEXXZ:PROC		; WinAmpFrontEnd::Start
EXTRN	?Stop@WinAmpFrontEnd@@QAEXXZ:PROC		; WinAmpFrontEnd::Stop
EXTRN	?Next@WinAmpFrontEnd@@QAEXXZ:PROC		; WinAmpFrontEnd::Next
EXTRN	?VolUp@WinAmpFrontEnd@@QAEXXZ:PROC		; WinAmpFrontEnd::VolUp
EXTRN	?VolDown@WinAmpFrontEnd@@QAEXXZ:PROC		; WinAmpFrontEnd::VolDown
EXTRN	?TogglePlayback@WinAmpFrontEnd@@QAEXXZ:PROC	; WinAmpFrontEnd::TogglePlayback
EXTRN	@__security_check_cookie@4:PROC
EXTRN	__CxxThrowException@8:PROC
EXTRN	___CxxFrameHandler3:PROC
EXTRN	?vuLocalSessionEntity@@3V?$VuBin@VVuSessionEntity@@@@A:DWORD ; vuLocalSessionEntity
EXTRN	?SimLibElapsedTime@@3KA:DWORD			; SimLibElapsedTime
EXTRN	??_7type_info@@6B@:QWORD			; type_info::`vftable'
EXTRN	?SimDriver@@3VSimulationDriver@@A:BYTE		; SimDriver
EXTRN	?PlayerOptions@@3VPlayerOptionsClass@@A:BYTE	; PlayerOptions
EXTRN	?CommandsKeyCombo@@3HA:DWORD			; CommandsKeyCombo
EXTRN	?CommandsKeyComboMod@@3HA:DWORD			; CommandsKeyComboMod
EXTRN	?OTWDriver@@3VOTWDriverClass@@A:BYTE		; OTWDriver
EXTRN	?g_bRealisticAvionics@@3_NA:BYTE		; g_bRealisticAvionics
EXTRN	?MfdDisplay@@3PAPAVMFDClass@@A:BYTE		; MfdDisplay
EXTRN	?gNavigationSys@@3PAVNavigationSystem@@A:DWORD	; gNavigationSys
EXTRN	?FalconDisplay@@3VFalconDisplayConfiguration@@A:BYTE ; FalconDisplay
EXTRN	?cockpitFlightData@@3VFlightData@@A:BYTE	; cockpitFlightData
EXTRN	?gSoundDriver@@3PAVCSoundMgr@@A:DWORD		; gSoundDriver
EXTRN	?TheHud@@3PAVHudClass@@A:DWORD			; TheHud
EXTRN	?gCommsMgr@@3PAVUIComms@@A:DWORD		; gCommsMgr
EXTRN	?PitLightLevel@ColorBankClass@@2HA:DWORD	; ColorBankClass::PitLightLevel
EXTRN	?UserStickInputs@@3VPilotInputs@@A:BYTE		; UserStickInputs
EXTRN	?theLantirn@@3PAVLantirnClass@@A:DWORD		; theLantirn
EXTRN	?gameCompressionRatio@@3HA:DWORD		; gameCompressionRatio
EXTRN	?IO@@3VSIMLIB_IO_CLASS@@A:BYTE			; IO
EXTRN	?drawLabels@DrawableBSP@@2HA:DWORD		; DrawableBSP::drawLabels
EXTRN	?ShowVersion@@3HA:DWORD				; ShowVersion
EXTRN	?gSpeedyGonzales@@3MA:DWORD			; gSpeedyGonzales
EXTRN	?g_bEnableTrackIR@@3_NA:BYTE			; g_bEnableTrackIR
EXTRN	?g_bTrackIRon@@3_NA:BYTE			; g_bTrackIRon
EXTRN	?supercruise@@3HA:DWORD				; supercruise
EXTRN	?curColorIdx@@3HA:DWORD				; curColorIdx
EXTRN	?g_bMLU@@3_NA:BYTE				; g_bMLU
EXTRN	?g_bIFF@@3_NA:BYTE				; g_bIFF
EXTRN	?g_bINS@@3_NA:BYTE				; g_bINS
EXTRN	?g_fFOVIncrement@@3MA:DWORD			; g_fFOVIncrement
EXTRN	?g_fMaximumFOV@@3MA:DWORD			; g_fMaximumFOV
EXTRN	?g_fDefaultFOV@@3MA:DWORD			; g_fDefaultFOV
EXTRN	?g_fMinimumFOV@@3MA:DWORD			; g_fMinimumFOV
EXTRN	?g_fNarrowFOV@@3MA:DWORD			; g_fNarrowFOV
EXTRN	?g_fWideviewFOV@@3MA:DWORD			; g_fWideviewFOV
EXTRN	?g_b3DClickableCockpitDebug@@3_NA:BYTE		; g_b3DClickableCockpitDebug
EXTRN	?g_nMaxSimTimeAcceleration@@3HA:DWORD		; g_nMaxSimTimeAcceleration
EXTRN	?g_nShowDebugLabels@@3HA:DWORD			; g_nShowDebugLabels
EXTRN	?g_nMaxDebugLabel@@3HA:DWORD			; g_nMaxDebugLabel
EXTRN	?g_f3DHeadTilt@@3MA:DWORD			; g_f3DHeadTilt
EXTRN	?g_f3DPitFOV@@3MA:DWORD				; g_f3DPitFOV
EXTRN	?g_fAFRudderRight@@3MA:DWORD			; g_fAFRudderRight
EXTRN	?g_fAFRudderLeft@@3MA:DWORD			; g_fAFRudderLeft
EXTRN	?g_fAFThrottleDown@@3MA:DWORD			; g_fAFThrottleDown
EXTRN	?g_fAFThrottleUp@@3MA:DWORD			; g_fAFThrottleUp
EXTRN	?g_fAFAileronLeft@@3MA:DWORD			; g_fAFAileronLeft
EXTRN	?g_fAFAileronRight@@3MA:DWORD			; g_fAFAileronRight
EXTRN	?g_fAFElevatorDown@@3MA:DWORD			; g_fAFElevatorDown
EXTRN	?g_fAFElevatorUp@@3MA:DWORD			; g_fAFElevatorUp
EXTRN	?g_bUseAnalogIdleCutoff@@3_NA:BYTE		; g_bUseAnalogIdleCutoff
EXTRN	?g_bAGRadarFixes@@3_NA:BYTE			; g_bAGRadarFixes
EXTRN	?g_bExtViewOnGround@@3_NA:BYTE			; g_bExtViewOnGround
EXTRN	?gRefreshScoresList@@3JA:DWORD			; gRefreshScoresList
EXTRN	?g_bPilotEntertainment@@3_NA:BYTE		; g_bPilotEntertainment
EXTRN	?winamp@@3PAVWinAmpFrontEnd@@A:DWORD		; winamp
EXTRN	?clickableMouseMode@@3_NA:BYTE			; clickableMouseMode
EXTRN	___security_cookie:DWORD
EXTRN	__fltused:DWORD
_BSS	SEGMENT
_piecewise_construct DB 01H DUP (?)
	ALIGN	4

_allocator_arg DB 01H DUP (?)
_BSS	ENDS
;	COMDAT ?_Generic_object@?$_Error_objects@H@std@@2V_Generic_error_category@2@A
_BSS	SEGMENT
?_Generic_object@?$_Error_objects@H@std@@2V_Generic_error_category@2@A DD 01H DUP (?) ; std::_Error_objects<int>::_Generic_object
_BSS	ENDS
;	COMDAT ?_Iostream_object@?$_Error_objects@H@std@@2V_Iostream_error_category@2@A
_BSS	SEGMENT
?_Iostream_object@?$_Error_objects@H@std@@2V_Iostream_error_category@2@A DD 01H DUP (?) ; std::_Error_objects<int>::_Iostream_object
_BSS	ENDS
;	COMDAT ?_System_object@?$_Error_objects@H@std@@2V_System_error_category@2@A
_BSS	SEGMENT
?_System_object@?$_Error_objects@H@std@@2V_System_error_category@2@A DD 01H DUP (?) ; std::_Error_objects<int>::_System_object
_BSS	ENDS
;	COMDAT ?id@?$num_put@DV?$back_insert_iterator@V?$basic_string@DU?$char_traits@D@std@@V?$allocator@D@2@@std@@@std@@@std@@2V0locale@2@A
_BSS	SEGMENT
?id@?$num_put@DV?$back_insert_iterator@V?$basic_string@DU?$char_traits@D@std@@V?$allocator@D@2@@std@@@std@@@std@@2V0locale@2@A DD 01H DUP (?) ; std::num_put<char,std::back_insert_iterator<std::basic_string<char,std::char_traits<char>,std::allocator<char> > > >::id
_BSS	ENDS
;	COMDAT ?id@?$num_put@_WV?$back_insert_iterator@V?$basic_string@_WU?$char_traits@_W@std@@V?$allocator@_W@2@@std@@@std@@@std@@2V0locale@2@A
_BSS	SEGMENT
?id@?$num_put@_WV?$back_insert_iterator@V?$basic_string@_WU?$char_traits@_W@std@@V?$allocator@_W@2@@std@@@std@@@std@@2V0locale@2@A DD 01H DUP (?) ; std::num_put<wchar_t,std::back_insert_iterator<std::basic_string<wchar_t,std::char_traits<wchar_t>,std::allocator<wchar_t> > > >::id
_BSS	ENDS
;	COMDAT ?mslsteptimer@?1??SimMissileStep@@YAXKHPAX@Z@4KA
_BSS	SEGMENT
?mslsteptimer@?1??SimMissileStep@@YAXKHPAX@Z@4KA DD 01H DUP (?) ; `SimMissileStep'::`2'::mslsteptimer
_BSS	ENDS
;	COMDAT ?realEWSProgNum@?1??SimDropChaff@@YAXKHPAX@Z@4IA
_BSS	SEGMENT
?realEWSProgNum@?1??SimDropChaff@@YAXKHPAX@Z@4IA DD 01H DUP (?) ; `SimDropChaff'::`2'::realEWSProgNum
_BSS	ENDS
;	COMDAT ?thrrevtimer@?1??SimWheelBrakes@@YAXKHPAX@Z@4KA
_BSS	SEGMENT
?thrrevtimer@?1??SimWheelBrakes@@YAXKHPAX@Z@4KA DD 01H DUP (?) ; `SimWheelBrakes'::`2'::thrrevtimer
_BSS	ENDS
;	COMDAT ?tmstimer@?1??SimTMSRight@@YAXKHPAX@Z@4KA
_BSS	SEGMENT
?tmstimer@?1??SimTMSRight@@YAXKHPAX@Z@4KA DD 01H DUP (?) ; `SimTMSRight'::`2'::tmstimer
_BSS	ENDS
;	COMDAT ?id@?$numpunct@D@std@@2V0locale@2@A
_BSS	SEGMENT
?id@?$numpunct@D@std@@2V0locale@2@A DD 01H DUP (?)	; std::numpunct<char>::id
_BSS	ENDS
;	COMDAT ?id@?$numpunct@_W@std@@2V0locale@2@A
_BSS	SEGMENT
?id@?$numpunct@_W@std@@2V0locale@2@A DD 01H DUP (?)	; std::numpunct<wchar_t>::id
_BSS	ENDS
CRT$XCU	SEGMENT
_piecewise_construct$initializer$ DD FLAT:??__Epiecewise_construct@std@@YAXXZ
CRT$XCU	ENDS
;	COMDAT __xmm@80000000800000008000000080000000
CONST	SEGMENT
__xmm@80000000800000008000000080000000 DB 00H, 00H, 00H, 080H, 00H, 00H, 00H
	DB	080H, 00H, 00H, 00H, 080H, 00H, 00H, 00H, 080H
CONST	ENDS
;	COMDAT __xmm@41f00000000000000000000000000000
CONST	SEGMENT
__xmm@41f00000000000000000000000000000 DB 00H, 00H, 00H, 00H, 00H, 00H, 00H
	DB	00H, 00H, 00H, 00H, 00H, 00H, 00H, 0f0H, 'A'
CONST	ENDS
;	COMDAT __real@c4fa0000
CONST	SEGMENT
__real@c4fa0000 DD 0c4fa0000r			; -2000
CONST	ENDS
;	COMDAT __real@c0e00000
CONST	SEGMENT
__real@c0e00000 DD 0c0e00000r			; -7
CONST	ENDS
;	COMDAT __real@c0000000
CONST	SEGMENT
__real@c0000000 DD 0c0000000r			; -2
CONST	ENDS
;	COMDAT __real@bf800000
CONST	SEGMENT
__real@bf800000 DD 0bf800000r			; -1
CONST	ENDS
;	COMDAT __real@bf000000
CONST	SEGMENT
__real@bf000000 DD 0bf000000r			; -0.5
CONST	ENDS
;	COMDAT __real@be800000
CONST	SEGMENT
__real@be800000 DD 0be800000r			; -0.25
CONST	ENDS
;	COMDAT __real@47c34f80
CONST	SEGMENT
__real@47c34f80 DD 047c34f80r			; 99999
CONST	ENDS
;	COMDAT __real@44fa0000
CONST	SEGMENT
__real@44fa0000 DD 044fa0000r			; 2000
CONST	ENDS
;	COMDAT __real@447a0000
CONST	SEGMENT
__real@447a0000 DD 0447a0000r			; 1000
CONST	ENDS
;	COMDAT __real@42c80000
CONST	SEGMENT
__real@42c80000 DD 042c80000r			; 100
CONST	ENDS
;	COMDAT __real@42100000
CONST	SEGMENT
__real@42100000 DD 042100000r			; 36
CONST	ENDS
;	COMDAT __real@42000000
CONST	SEGMENT
__real@42000000 DD 042000000r			; 32
CONST	ENDS
;	COMDAT __real@41700000
CONST	SEGMENT
__real@41700000 DD 041700000r			; 15
CONST	ENDS
;	COMDAT __real@41200000
CONST	SEGMENT
__real@41200000 DD 041200000r			; 10
CONST	ENDS
;	COMDAT __real@40e00000
CONST	SEGMENT
__real@40e00000 DD 040e00000r			; 7
CONST	ENDS
;	COMDAT __real@40a00000
CONST	SEGMENT
__real@40a00000 DD 040a00000r			; 5
CONST	ENDS
;	COMDAT __real@4040000000000000
CONST	SEGMENT
__real@4040000000000000 DQ 04040000000000000r	; 32
CONST	ENDS
;	COMDAT __real@40000000
CONST	SEGMENT
__real@40000000 DD 040000000r			; 2
CONST	ENDS
;	COMDAT __real@3ff4000000000000
CONST	SEGMENT
__real@3ff4000000000000 DQ 03ff4000000000000r	; 1.25
CONST	ENDS
;	COMDAT __real@3ff0000000000000
CONST	SEGMENT
__real@3ff0000000000000 DQ 03ff0000000000000r	; 1
CONST	ENDS
;	COMDAT __real@3fd80b03
CONST	SEGMENT
__real@3fd80b03 DD 03fd80b03r			; 1.68784
CONST	ENDS
;	COMDAT __real@3fc00000
CONST	SEGMENT
__real@3fc00000 DD 03fc00000r			; 1.5
CONST	ENDS
;	COMDAT __real@3f8147ae
CONST	SEGMENT
__real@3f8147ae DD 03f8147aer			; 1.01
CONST	ENDS
;	COMDAT __real@3f800000
CONST	SEGMENT
__real@3f800000 DD 03f800000r			; 1
CONST	ENDS
;	COMDAT __real@3f20d845
CONST	SEGMENT
__real@3f20d845 DD 03f20d845r			; 0.6283
CONST	ENDS
;	COMDAT __real@3f000000
CONST	SEGMENT
__real@3f000000 DD 03f000000r			; 0.5
CONST	ENDS
;	COMDAT __real@3e800000
CONST	SEGMENT
__real@3e800000 DD 03e800000r			; 0.25
CONST	ENDS
;	COMDAT __real@3e4ccccd
CONST	SEGMENT
__real@3e4ccccd DD 03e4ccccdr			; 0.2
CONST	ENDS
;	COMDAT __real@3dcccccd
CONST	SEGMENT
__real@3dcccccd DD 03dcccccdr			; 0.1
CONST	ENDS
;	COMDAT __real@3c8efa34
CONST	SEGMENT
__real@3c8efa34 DD 03c8efa34r			; 0.0174533
CONST	ENDS
;	COMDAT __real@3c23d70a
CONST	SEGMENT
__real@3c23d70a DD 03c23d70ar			; 0.01
CONST	ENDS
;	COMDAT __real@00000000
CONST	SEGMENT
__real@00000000 DD 000000000r			; 0
CONST	ENDS
;	COMDAT ??_R1A@?0A@EA@_System_error_category@std@@8
rdata$r	SEGMENT
??_R1A@?0A@EA@_System_error_category@std@@8 DD FLAT:??_R0?AV_System_error_category@std@@@8 ; std::_System_error_category::`RTTI Base Class Descriptor at (0,-1,0,64)'
	DD	02H
	DD	00H
	DD	0ffffffffH
	DD	00H
	DD	040H
	DD	FLAT:??_R3_System_error_category@std@@8
rdata$r	ENDS
;	COMDAT ??_R2_System_error_category@std@@8
rdata$r	SEGMENT
??_R2_System_error_category@std@@8 DD FLAT:??_R1A@?0A@EA@_System_error_category@std@@8 ; std::_System_error_category::`RTTI Base Class Array'
	DD	FLAT:??_R1A@?0A@EA@_Generic_error_category@std@@8
	DD	FLAT:??_R1A@?0A@EA@error_category@std@@8
rdata$r	ENDS
;	COMDAT ??_R3_System_error_category@std@@8
rdata$r	SEGMENT
??_R3_System_error_category@std@@8 DD 00H		; std::_System_error_category::`RTTI Class Hierarchy Descriptor'
	DD	00H
	DD	03H
	DD	FLAT:??_R2_System_error_category@std@@8
rdata$r	ENDS
;	COMDAT ??_R0?AV_System_error_category@std@@@8
_DATA	SEGMENT
??_R0?AV_System_error_category@std@@@8 DD FLAT:??_7type_info@@6B@ ; std::_System_error_category `RTTI Type Descriptor'
	DD	00H
	DB	'.?AV_System_error_category@std@@', 00H
_DATA	ENDS
;	COMDAT ??_R4_System_error_category@std@@6B@
rdata$r	SEGMENT
??_R4_System_error_category@std@@6B@ DD 00H		; std::_System_error_category::`RTTI Complete Object Locator'
	DD	00H
	DD	00H
	DD	FLAT:??_R0?AV_System_error_category@std@@@8
	DD	FLAT:??_R3_System_error_category@std@@8
rdata$r	ENDS
;	COMDAT ??_R1A@?0A@EA@_Iostream_error_category@std@@8
rdata$r	SEGMENT
??_R1A@?0A@EA@_Iostream_error_category@std@@8 DD FLAT:??_R0?AV_Iostream_error_category@std@@@8 ; std::_Iostream_error_category::`RTTI Base Class Descriptor at (0,-1,0,64)'
	DD	02H
	DD	00H
	DD	0ffffffffH
	DD	00H
	DD	040H
	DD	FLAT:??_R3_Iostream_error_category@std@@8
rdata$r	ENDS
;	COMDAT ??_R2_Iostream_error_category@std@@8
rdata$r	SEGMENT
??_R2_Iostream_error_category@std@@8 DD FLAT:??_R1A@?0A@EA@_Iostream_error_category@std@@8 ; std::_Iostream_error_category::`RTTI Base Class Array'
	DD	FLAT:??_R1A@?0A@EA@_Generic_error_category@std@@8
	DD	FLAT:??_R1A@?0A@EA@error_category@std@@8
rdata$r	ENDS
;	COMDAT ??_R3_Iostream_error_category@std@@8
rdata$r	SEGMENT
??_R3_Iostream_error_category@std@@8 DD 00H		; std::_Iostream_error_category::`RTTI Class Hierarchy Descriptor'
	DD	00H
	DD	03H
	DD	FLAT:??_R2_Iostream_error_category@std@@8
rdata$r	ENDS
;	COMDAT ??_R0?AV_Iostream_error_category@std@@@8
_DATA	SEGMENT
??_R0?AV_Iostream_error_category@std@@@8 DD FLAT:??_7type_info@@6B@ ; std::_Iostream_error_category `RTTI Type Descriptor'
	DD	00H
	DB	'.?AV_Iostream_error_category@std@@', 00H
_DATA	ENDS
;	COMDAT ??_R4_Iostream_error_category@std@@6B@
rdata$r	SEGMENT
??_R4_Iostream_error_category@std@@6B@ DD 00H		; std::_Iostream_error_category::`RTTI Complete Object Locator'
	DD	00H
	DD	00H
	DD	FLAT:??_R0?AV_Iostream_error_category@std@@@8
	DD	FLAT:??_R3_Iostream_error_category@std@@8
rdata$r	ENDS
;	COMDAT ??_R1A@?0A@EA@_Generic_error_category@std@@8
rdata$r	SEGMENT
??_R1A@?0A@EA@_Generic_error_category@std@@8 DD FLAT:??_R0?AV_Generic_error_category@std@@@8 ; std::_Generic_error_category::`RTTI Base Class Descriptor at (0,-1,0,64)'
	DD	01H
	DD	00H
	DD	0ffffffffH
	DD	00H
	DD	040H
	DD	FLAT:??_R3_Generic_error_category@std@@8
rdata$r	ENDS
;	COMDAT ??_R2_Generic_error_category@std@@8
rdata$r	SEGMENT
??_R2_Generic_error_category@std@@8 DD FLAT:??_R1A@?0A@EA@_Generic_error_category@std@@8 ; std::_Generic_error_category::`RTTI Base Class Array'
	DD	FLAT:??_R1A@?0A@EA@error_category@std@@8
rdata$r	ENDS
;	COMDAT ??_R3_Generic_error_category@std@@8
rdata$r	SEGMENT
??_R3_Generic_error_category@std@@8 DD 00H		; std::_Generic_error_category::`RTTI Class Hierarchy Descriptor'
	DD	00H
	DD	02H
	DD	FLAT:??_R2_Generic_error_category@std@@8
rdata$r	ENDS
;	COMDAT ??_R0?AV_Generic_error_category@std@@@8
_DATA	SEGMENT
??_R0?AV_Generic_error_category@std@@@8 DD FLAT:??_7type_info@@6B@ ; std::_Generic_error_category `RTTI Type Descriptor'
	DD	00H
	DB	'.?AV_Generic_error_category@std@@', 00H
_DATA	ENDS
;	COMDAT ??_R4_Generic_error_category@std@@6B@
rdata$r	SEGMENT
??_R4_Generic_error_category@std@@6B@ DD 00H		; std::_Generic_error_category::`RTTI Complete Object Locator'
	DD	00H
	DD	00H
	DD	FLAT:??_R0?AV_Generic_error_category@std@@@8
	DD	FLAT:??_R3_Generic_error_category@std@@8
rdata$r	ENDS
;	COMDAT ??_R1A@?0A@EA@error_category@std@@8
rdata$r	SEGMENT
??_R1A@?0A@EA@error_category@std@@8 DD FLAT:??_R0?AVerror_category@std@@@8 ; std::error_category::`RTTI Base Class Descriptor at (0,-1,0,64)'
	DD	00H
	DD	00H
	DD	0ffffffffH
	DD	00H
	DD	040H
	DD	FLAT:??_R3error_category@std@@8
rdata$r	ENDS
;	COMDAT ??_R2error_category@std@@8
rdata$r	SEGMENT
??_R2error_category@std@@8 DD FLAT:??_R1A@?0A@EA@error_category@std@@8 ; std::error_category::`RTTI Base Class Array'
rdata$r	ENDS
;	COMDAT ??_R3error_category@std@@8
rdata$r	SEGMENT
??_R3error_category@std@@8 DD 00H			; std::error_category::`RTTI Class Hierarchy Descriptor'
	DD	00H
	DD	01H
	DD	FLAT:??_R2error_category@std@@8
rdata$r	ENDS
;	COMDAT ??_R0?AVerror_category@std@@@8
_DATA	SEGMENT
??_R0?AVerror_category@std@@@8 DD FLAT:??_7type_info@@6B@ ; std::error_category `RTTI Type Descriptor'
	DD	00H
	DB	'.?AVerror_category@std@@', 00H
_DATA	ENDS
;	COMDAT ??_R4error_category@std@@6B@
rdata$r	SEGMENT
??_R4error_category@std@@6B@ DD 00H			; std::error_category::`RTTI Complete Object Locator'
	DD	00H
	DD	00H
	DD	FLAT:??_R0?AVerror_category@std@@@8
	DD	FLAT:??_R3error_category@std@@8
rdata$r	ENDS
;	COMDAT ??_C@_0BA@JFNIOLAK@string?5too?5long?$AA@
CONST	SEGMENT
??_C@_0BA@JFNIOLAK@string?5too?5long?$AA@ DB 'string too long', 00H ; `string'
CONST	ENDS
;	COMDAT ??_C@_0BI@CFPLBAOH@invalid?5string?5position?$AA@
CONST	SEGMENT
??_C@_0BI@CFPLBAOH@invalid?5string?5position?$AA@ DB 'invalid string posi'
	DB	'tion', 00H					; `string'
CONST	ENDS
;	COMDAT ??_C@_0BB@CNJIDIOC@VtResumeSampling?$AA@
CONST	SEGMENT
??_C@_0BB@CNJIDIOC@VtResumeSampling?$AA@ DB 'VtResumeSampling', 00H ; `string'
CONST	ENDS
;	COMDAT ??_C@_0BA@NIOBKLHM@VtPauseSampling?$AA@
CONST	SEGMENT
??_C@_0BA@NIOBKLHM@VtPauseSampling?$AA@ DB 'VtPauseSampling', 00H ; `string'
CONST	ENDS
;	COMDAT ??_C@_0N@GJLGHHE@vtuneapi?4dll?$AA@
CONST	SEGMENT
??_C@_0N@GJLGHHE@vtuneapi?4dll?$AA@ DB 'vtuneapi.dll', 00H ; `string'
CONST	ENDS
;	COMDAT ??_C@_06FHFOAHML@system?$AA@
CONST	SEGMENT
??_C@_06FHFOAHML@system?$AA@ DB 'system', 00H		; `string'
CONST	ENDS
;	COMDAT ??_7_System_error_category@std@@6B@
CONST	SEGMENT
??_7_System_error_category@std@@6B@ DD FLAT:??_R4_System_error_category@std@@6B@ ; std::_System_error_category::`vftable'
	DD	FLAT:??_E_System_error_category@std@@UAEPAXI@Z
	DD	FLAT:?name@_System_error_category@std@@UBEPBDXZ
	DD	FLAT:?message@_System_error_category@std@@UBE?AV?$basic_string@DU?$char_traits@D@std@@V?$allocator@D@2@@2@H@Z
	DD	FLAT:?default_error_condition@_System_error_category@std@@UBE?AVerror_condition@2@H@Z
	DD	FLAT:?equivalent@error_category@std@@UBE_NABVerror_code@2@H@Z
	DD	FLAT:?equivalent@error_category@std@@UBE_NHABVerror_condition@2@@Z
CONST	ENDS
;	COMDAT ??_C@_0BG@PADBLCHM@iostream?5stream?5error?$AA@
CONST	SEGMENT
??_C@_0BG@PADBLCHM@iostream?5stream?5error?$AA@ DB 'iostream stream error'
	DB	00H						; `string'
CONST	ENDS
;	COMDAT ??_C@_08LLGCOLLL@iostream?$AA@
CONST	SEGMENT
??_C@_08LLGCOLLL@iostream?$AA@ DB 'iostream', 00H	; `string'
CONST	ENDS
;	COMDAT ??_7_Iostream_error_category@std@@6B@
CONST	SEGMENT
??_7_Iostream_error_category@std@@6B@ DD FLAT:??_R4_Iostream_error_category@std@@6B@ ; std::_Iostream_error_category::`vftable'
	DD	FLAT:??_E_Iostream_error_category@std@@UAEPAXI@Z
	DD	FLAT:?name@_Iostream_error_category@std@@UBEPBDXZ
	DD	FLAT:?message@_Iostream_error_category@std@@UBE?AV?$basic_string@DU?$char_traits@D@std@@V?$allocator@D@2@@2@H@Z
	DD	FLAT:?default_error_condition@error_category@std@@UBE?AVerror_condition@2@H@Z
	DD	FLAT:?equivalent@error_category@std@@UBE_NABVerror_code@2@H@Z
	DD	FLAT:?equivalent@error_category@std@@UBE_NHABVerror_condition@2@@Z
CONST	ENDS
;	COMDAT ??_C@_0O@BFJCFAAK@unknown?5error?$AA@
CONST	SEGMENT
??_C@_0O@BFJCFAAK@unknown?5error?$AA@ DB 'unknown error', 00H ; `string'
CONST	ENDS
;	COMDAT ??_C@_07DCLBNMLN@generic?$AA@
CONST	SEGMENT
??_C@_07DCLBNMLN@generic?$AA@ DB 'generic', 00H		; `string'
CONST	ENDS
;	COMDAT ??_7_Generic_error_category@std@@6B@
CONST	SEGMENT
??_7_Generic_error_category@std@@6B@ DD FLAT:??_R4_Generic_error_category@std@@6B@ ; std::_Generic_error_category::`vftable'
	DD	FLAT:??_E_Generic_error_category@std@@UAEPAXI@Z
	DD	FLAT:?name@_Generic_error_category@std@@UBEPBDXZ
	DD	FLAT:?message@_Generic_error_category@std@@UBE?AV?$basic_string@DU?$char_traits@D@std@@V?$allocator@D@2@@2@H@Z
	DD	FLAT:?default_error_condition@error_category@std@@UBE?AVerror_condition@2@H@Z
	DD	FLAT:?equivalent@error_category@std@@UBE_NABVerror_code@2@H@Z
	DD	FLAT:?equivalent@error_category@std@@UBE_NHABVerror_condition@2@@Z
CONST	ENDS
;	COMDAT ??_7error_category@std@@6B@
CONST	SEGMENT
??_7error_category@std@@6B@ DD FLAT:??_R4error_category@std@@6B@ ; std::error_category::`vftable'
	DD	FLAT:??_Eerror_category@std@@UAEPAXI@Z
	DD	FLAT:__purecall
	DD	FLAT:__purecall
	DD	FLAT:?default_error_condition@error_category@std@@UBE?AVerror_condition@2@H@Z
	DD	FLAT:?equivalent@error_category@std@@UBE_NABVerror_code@2@H@Z
	DD	FLAT:?equivalent@error_category@std@@UBE_NHABVerror_condition@2@@Z
CONST	ENDS
;	COMDAT xdata$x
xdata$x	SEGMENT
__unwindtable$??$construct@PADAAPAD@?$allocator@D@std@@QAEXPAPADAAPAD@Z DD 0ffffffffH
	DD	FLAT:__unwindfunclet$??$construct@PADAAPAD@?$allocator@D@std@@QAEXPAPADAAPAD@Z$0
__ehfuncinfo$??$construct@PADAAPAD@?$allocator@D@std@@QAEXPAPADAAPAD@Z DD 019930522H
	DD	01H
	DD	FLAT:__unwindtable$??$construct@PADAAPAD@?$allocator@D@std@@QAEXPAPADAAPAD@Z
	DD	2 DUP(00H)
	DD	2 DUP(00H)
	DD	00H
	DD	01H
xdata$x	ENDS
xdata$x	SEGMENT
__unwindtable$?SimICPLink@@YAXKHPAX@Z DD 0ffffffffH
	DD	FLAT:__unwindfunclet$?SimICPLink@@YAXKHPAX@Z$0
__unwindtable$?ToggleSmoke@@YAXKHPAX@Z DD 0ffffffffH
	DD	FLAT:__unwindfunclet$?ToggleSmoke@@YAXKHPAX@Z$0
__ehfuncinfo$?SimICPLink@@YAXKHPAX@Z DD 019930522H
	DD	01H
	DD	FLAT:__unwindtable$?SimICPLink@@YAXKHPAX@Z
	DD	2 DUP(00H)
	DD	2 DUP(00H)
	DD	00H
	DD	01H
__ehfuncinfo$?ToggleSmoke@@YAXKHPAX@Z DD 019930522H
	DD	01H
	DD	FLAT:__unwindtable$?ToggleSmoke@@YAXKHPAX@Z
	DD	2 DUP(00H)
	DD	2 DUP(00H)
	DD	00H
	DD	01H
xdata$x	ENDS
;	COMDAT xdata$x
xdata$x	SEGMENT
__catchsym$?_Copy@?$basic_string@DU?$char_traits@D@std@@V?$allocator@D@2@@std@@QAEXII@Z$5 DD 040H
	DD	00H
	DD	00H
	DD	FLAT:__catch$?_Copy@?$basic_string@DU?$char_traits@D@std@@V?$allocator@D@2@@std@@QAEXII@Z$0
__catchsym$?_Copy@?$basic_string@DU?$char_traits@D@std@@V?$allocator@D@2@@std@@QAEXII@Z$4 DD 040H
	DD	00H
	DD	00H
	DD	FLAT:__catch$?_Copy@?$basic_string@DU?$char_traits@D@std@@V?$allocator@D@2@@std@@QAEXII@Z$1
__unwindtable$?_Copy@?$basic_string@DU?$char_traits@D@std@@V?$allocator@D@2@@std@@QAEXII@Z DD 0ffffffffH
	DD	00H
	DD	0ffffffffH
	DD	00H
	DD	01H
	DD	00H
	DD	01H
	DD	00H
__ehfuncinfo$?_Copy@?$basic_string@DU?$char_traits@D@std@@V?$allocator@D@2@@std@@QAEXII@Z DD 019930522H
	DD	04H
	DD	FLAT:__unwindtable$?_Copy@?$basic_string@DU?$char_traits@D@std@@V?$allocator@D@2@@std@@QAEXII@Z
	DD	02H
	DD	FLAT:__tryblocktable$?_Copy@?$basic_string@DU?$char_traits@D@std@@V?$allocator@D@2@@std@@QAEXII@Z
	DD	2 DUP(00H)
	DD	00H
	DD	01H
__tryblocktable$?_Copy@?$basic_string@DU?$char_traits@D@std@@V?$allocator@D@2@@std@@QAEXII@Z DD 02H
	DD	02H
	DD	03H
	DD	01H
	DD	FLAT:__catchsym$?_Copy@?$basic_string@DU?$char_traits@D@std@@V?$allocator@D@2@@std@@QAEXII@Z$4
	DD	00H
	DD	00H
	DD	03H
	DD	01H
	DD	FLAT:__catchsym$?_Copy@?$basic_string@DU?$char_traits@D@std@@V?$allocator@D@2@@std@@QAEXII@Z$5
xdata$x	ENDS
CRT$XCU	SEGMENT
_allocator_arg$initializer$ DD FLAT:??__Eallocator_arg@std@@YAXXZ
CRT$XCU	ENDS
;	COMDAT CRT$XCU
CRT$XCU	SEGMENT
?_Generic_object$initializer$@?$_Error_objects@H@std@@2P6AXXZA DD FLAT:??__E?_Generic_object@?$_Error_objects@H@std@@2V_Generic_error_category@2@A@@YAXXZ ; std::_Error_objects<int>::_Generic_object$initializer$
CRT$XCU	ENDS
;	COMDAT CRT$XCU
CRT$XCU	SEGMENT
?_Iostream_object$initializer$@?$_Error_objects@H@std@@2P6AXXZA DD FLAT:??__E?_Iostream_object@?$_Error_objects@H@std@@2V_Iostream_error_category@2@A@@YAXXZ ; std::_Error_objects<int>::_Iostream_object$initializer$
CRT$XCU	ENDS
;	COMDAT CRT$XCU
CRT$XCU	SEGMENT
?_System_object$initializer$@?$_Error_objects@H@std@@2P6AXXZA DD FLAT:??__E?_System_object@?$_Error_objects@H@std@@2V_System_error_category@2@A@@YAXXZ ; std::_Error_objects<int>::_System_object$initializer$
CRT$XCU	ENDS
;	COMDAT CRT$XCU
CRT$XCU	SEGMENT
?id$initializer$@?$num_put@DV?$back_insert_iterator@V?$basic_string@DU?$char_traits@D@std@@V?$allocator@D@2@@std@@@std@@@std@@2P6AXXZA DD FLAT:??__E?id@?$num_put@DV?$back_insert_iterator@V?$basic_string@DU?$char_traits@D@std@@V?$allocator@D@2@@std@@@std@@@std@@2V0locale@2@A@@YAXXZ ; std::num_put<char,std::back_insert_iterator<std::basic_string<char,std::char_traits<char>,std::allocator<char> > > >::id$initializer$
CRT$XCU	ENDS
;	COMDAT CRT$XCU
CRT$XCU	SEGMENT
?id$initializer$@?$num_put@_WV?$back_insert_iterator@V?$basic_string@_WU?$char_traits@_W@std@@V?$allocator@_W@2@@std@@@std@@@std@@2P6AXXZA DD FLAT:??__E?id@?$num_put@_WV?$back_insert_iterator@V?$basic_string@_WU?$char_traits@_W@std@@V?$allocator@_W@2@@std@@@std@@@std@@2V0locale@2@A@@YAXXZ ; std::num_put<wchar_t,std::back_insert_iterator<std::basic_string<wchar_t,std::char_traits<wchar_t>,std::allocator<wchar_t> > > >::id$initializer$
CRT$XCU	ENDS
;	COMDAT CRT$XCU
CRT$XCU	SEGMENT
?id$initializer$@?$numpunct@D@std@@2P6AXXZA DD FLAT:??__E?id@?$numpunct@D@std@@2V0locale@2@A@@YAXXZ ; std::numpunct<char>::id$initializer$
CRT$XCU	ENDS
;	COMDAT CRT$XCU
CRT$XCU	SEGMENT
?id$initializer$@?$numpunct@_W@std@@2P6AXXZA DD FLAT:??__E?id@?$numpunct@_W@std@@2V0locale@2@A@@YAXXZ ; std::numpunct<wchar_t>::id$initializer$
CRT$XCU	ENDS
; Function compile flags: /Odtp
; File c:\program files (x86)\microsoft visual studio 11.0\vc\include\xmemory0
;	COMDAT ??$destroy@PAD@?$allocator@D@std@@QAEXPAPAD@Z
_TEXT	SEGMENT
_this$ = -4						; size = 4
__Ptr$ = 8						; size = 4
??$destroy@PAD@?$allocator@D@std@@QAEXPAPAD@Z PROC	; std::allocator<char>::destroy<char *>, COMDAT
; _this$ = ecx

; 621  : 		void destroy(_Uty *_Ptr)

	push	ebp
	mov	ebp, esp
	push	ecx
	mov	DWORD PTR _this$[ebp], ecx

; 622  : 		{	// destroy object at _Ptr
; 623  : 		_Ptr->~_Uty();
; 624  : 		}

	mov	esp, ebp
	pop	ebp
	ret	4
??$destroy@PAD@?$allocator@D@std@@QAEXPAPAD@Z ENDP	; std::allocator<char>::destroy<char *>
_TEXT	ENDS
; Function compile flags: /Odtp
; File c:\program files (x86)\microsoft visual studio 11.0\vc\include\xmemory0
;	COMDAT ??$construct@PADAAPAD@?$allocator@D@std@@QAEXPAPADAAPAD@Z
_TEXT	SEGMENT
$T2 = -28						; size = 4
_this$ = -24						; size = 4
tv73 = -20						; size = 4
$T3 = -16						; size = 4
__$EHRec$ = -12						; size = 12
__Ptr$ = 8						; size = 4
__V0$ = 12						; size = 4
??$construct@PADAAPAD@?$allocator@D@std@@QAEXPAPADAAPAD@Z PROC ; std::allocator<char>::construct<char *,char * &>, COMDAT
; _this$ = ecx

; 617  : _VARIADIC_EXPAND_0X(_ALLOC_MEMBER_CONSTRUCT, , , , )

	push	ebp
	mov	ebp, esp
	push	-1
	push	__ehhandler$??$construct@PADAAPAD@?$allocator@D@std@@QAEXPAPADAAPAD@Z
	mov	eax, DWORD PTR fs:0
	push	eax
	sub	esp, 16					; 00000010H
	mov	eax, DWORD PTR ___security_cookie
	xor	eax, ebp
	push	eax
	lea	eax, DWORD PTR __$EHRec$[ebp]
	mov	DWORD PTR fs:0, eax
	mov	DWORD PTR _this$[ebp], ecx
	mov	eax, DWORD PTR __Ptr$[ebp]
	push	eax
	push	4
	call	??2@YAPAXIPAX@Z				; operator new
	add	esp, 8
	mov	DWORD PTR $T3[ebp], eax
	mov	DWORD PTR __$EHRec$[ebp+8], 0
	cmp	DWORD PTR $T3[ebp], 0
	je	SHORT $LN3@construct
	mov	ecx, DWORD PTR __V0$[ebp]
	push	ecx
	call	??$forward@AAPAD@std@@YAAAPADAAPAD@Z	; std::forward<char * &>
	add	esp, 4
	mov	edx, DWORD PTR $T3[ebp]
	mov	eax, DWORD PTR [eax]
	mov	DWORD PTR [edx], eax
	mov	ecx, DWORD PTR $T3[ebp]
	mov	DWORD PTR tv73[ebp], ecx
	jmp	SHORT $LN4@construct
$LN3@construct:
	mov	DWORD PTR tv73[ebp], 0
$LN4@construct:
	mov	edx, DWORD PTR tv73[ebp]
	mov	DWORD PTR $T2[ebp], edx
	mov	DWORD PTR __$EHRec$[ebp+8], -1
	mov	ecx, DWORD PTR __$EHRec$[ebp]
	mov	DWORD PTR fs:0, ecx
	pop	ecx
	mov	esp, ebp
	pop	ebp
	ret	8
_TEXT	ENDS
;	COMDAT text$x
text$x	SEGMENT
__unwindfunclet$??$construct@PADAAPAD@?$allocator@D@std@@QAEXPAPADAAPAD@Z$0:
	mov	eax, DWORD PTR __Ptr$[ebp]
	push	eax
	mov	eax, DWORD PTR $T3[ebp]
	push	eax
	call	??3@YAXPAX0@Z				; operator delete
	add	esp, 8
	ret	0
__ehhandler$??$construct@PADAAPAD@?$allocator@D@std@@QAEXPAPADAAPAD@Z:
	mov	edx, DWORD PTR [esp+8]
	lea	eax, DWORD PTR [edx+12]
	mov	ecx, DWORD PTR [edx-20]
	xor	ecx, eax
	call	@__security_check_cookie@4
	mov	eax, OFFSET __ehfuncinfo$??$construct@PADAAPAD@?$allocator@D@std@@QAEXPAPADAAPAD@Z
	jmp	___CxxFrameHandler3
text$x	ENDS
??$construct@PADAAPAD@?$allocator@D@std@@QAEXPAPADAAPAD@Z ENDP ; std::allocator<char>::construct<char *,char * &>
; Function compile flags: /Odtp
; File c:\program files (x86)\microsoft visual studio 11.0\vc\include\xlocnum
;	COMDAT ??__E?id@?$numpunct@_W@std@@2V0locale@2@A@@YAXXZ
text$yc	SEGMENT
??__E?id@?$numpunct@_W@std@@2V0locale@2@A@@YAXXZ PROC	; `dynamic initializer for 'std::numpunct<wchar_t>::id'', COMDAT

; 155  : 		void _Getvals(wchar_t, const lconv *_Ptr, _Locinfo::_Cvtvec)

	push	ebp
	mov	ebp, esp
	push	0
	mov	ecx, OFFSET ?id@?$numpunct@_W@std@@2V0locale@2@A ; std::numpunct<wchar_t>::id
	call	??0id@locale@std@@QAE@I@Z		; std::locale::id::id
	pop	ebp
	ret	0
??__E?id@?$numpunct@_W@std@@2V0locale@2@A@@YAXXZ ENDP	; `dynamic initializer for 'std::numpunct<wchar_t>::id''
text$yc	ENDS
; Function compile flags: /Odtp
; File c:\program files (x86)\microsoft visual studio 11.0\vc\include\xlocnum
;	COMDAT ??__E?id@?$numpunct@D@std@@2V0locale@2@A@@YAXXZ
text$yc	SEGMENT
??__E?id@?$numpunct@D@std@@2V0locale@2@A@@YAXXZ PROC	; `dynamic initializer for 'std::numpunct<char>::id'', COMDAT

; 155  : 		void _Getvals(wchar_t, const lconv *_Ptr, _Locinfo::_Cvtvec)

	push	ebp
	mov	ebp, esp
	push	0
	mov	ecx, OFFSET ?id@?$numpunct@D@std@@2V0locale@2@A ; std::numpunct<char>::id
	call	??0id@locale@std@@QAE@I@Z		; std::locale::id::id
	pop	ebp
	ret	0
??__E?id@?$numpunct@D@std@@2V0locale@2@A@@YAXXZ ENDP	; `dynamic initializer for 'std::numpunct<char>::id''
text$yc	ENDS
; Function compile flags: /Odtp
; File c:\program files (x86)\microsoft visual studio 11.0\vc\include\xlocnum
;	COMDAT ??__E?id@?$num_put@_WV?$back_insert_iterator@V?$basic_string@_WU?$char_traits@_W@std@@V?$allocator@_W@2@@std@@@std@@@std@@2V0locale@2@A@@YAXXZ
text$yc	SEGMENT
??__E?id@?$num_put@_WV?$back_insert_iterator@V?$basic_string@_WU?$char_traits@_W@std@@V?$allocator@_W@2@@std@@@std@@@std@@2V0locale@2@A@@YAXXZ PROC ; `dynamic initializer for 'std::num_put<wchar_t,std::back_insert_iterator<std::basic_string<wchar_t,std::char_traits<wchar_t>,std::allocator<wchar_t> > > >::id'', COMDAT

; 155  : 		void _Getvals(wchar_t, const lconv *_Ptr, _Locinfo::_Cvtvec)

	push	ebp
	mov	ebp, esp
	push	0
	mov	ecx, OFFSET ?id@?$num_put@_WV?$back_insert_iterator@V?$basic_string@_WU?$char_traits@_W@std@@V?$allocator@_W@2@@std@@@std@@@std@@2V0locale@2@A ; std::num_put<wchar_t,std::back_insert_iterator<std::basic_string<wchar_t,std::char_traits<wchar_t>,std::allocator<wchar_t> > > >::id
	call	??0id@locale@std@@QAE@I@Z		; std::locale::id::id
	pop	ebp
	ret	0
??__E?id@?$num_put@_WV?$back_insert_iterator@V?$basic_string@_WU?$char_traits@_W@std@@V?$allocator@_W@2@@std@@@std@@@std@@2V0locale@2@A@@YAXXZ ENDP ; `dynamic initializer for 'std::num_put<wchar_t,std::back_insert_iterator<std::basic_string<wchar_t,std::char_traits<wchar_t>,std::allocator<wchar_t> > > >::id''
text$yc	ENDS
; Function compile flags: /Odtp
; File c:\program files (x86)\microsoft visual studio 11.0\vc\include\xlocnum
;	COMDAT ??__E?id@?$num_put@DV?$back_insert_iterator@V?$basic_string@DU?$char_traits@D@std@@V?$allocator@D@2@@std@@@std@@@std@@2V0locale@2@A@@YAXXZ
text$yc	SEGMENT
??__E?id@?$num_put@DV?$back_insert_iterator@V?$basic_string@DU?$char_traits@D@std@@V?$allocator@D@2@@std@@@std@@@std@@2V0locale@2@A@@YAXXZ PROC ; `dynamic initializer for 'std::num_put<char,std::back_insert_iterator<std::basic_string<char,std::char_traits<char>,std::allocator<char> > > >::id'', COMDAT

; 155  : 		void _Getvals(wchar_t, const lconv *_Ptr, _Locinfo::_Cvtvec)

	push	ebp
	mov	ebp, esp
	push	0
	mov	ecx, OFFSET ?id@?$num_put@DV?$back_insert_iterator@V?$basic_string@DU?$char_traits@D@std@@V?$allocator@D@2@@std@@@std@@@std@@2V0locale@2@A ; std::num_put<char,std::back_insert_iterator<std::basic_string<char,std::char_traits<char>,std::allocator<char> > > >::id
	call	??0id@locale@std@@QAE@I@Z		; std::locale::id::id
	pop	ebp
	ret	0
??__E?id@?$num_put@DV?$back_insert_iterator@V?$basic_string@DU?$char_traits@D@std@@V?$allocator@D@2@@std@@@std@@@std@@2V0locale@2@A@@YAXXZ ENDP ; `dynamic initializer for 'std::num_put<char,std::back_insert_iterator<std::basic_string<char,std::char_traits<char>,std::allocator<char> > > >::id''
text$yc	ENDS
; Function compile flags: /Odtp
; File c:\program files (x86)\microsoft visual studio 11.0\vc\include\xmemory0
;	COMDAT ??$destroy@PAD@?$allocator_traits@V?$allocator@D@std@@@std@@SAXAAV?$allocator@D@1@PAPAD@Z
_TEXT	SEGMENT
__Al$ = 8						; size = 4
__Ptr$ = 12						; size = 4
??$destroy@PAD@?$allocator_traits@V?$allocator@D@std@@@std@@SAXAAV?$allocator@D@1@PAPAD@Z PROC ; std::allocator_traits<std::allocator<char> >::destroy<char *>, COMDAT

; 755  : 		static void destroy(_Alloc& _Al, _Uty *_Ptr)

	push	ebp
	mov	ebp, esp

; 756  : 		{	// destroy object at _Ptr
; 757  : 		_Al.destroy(_Ptr);

	mov	eax, DWORD PTR __Ptr$[ebp]
	push	eax
	mov	ecx, DWORD PTR __Al$[ebp]
	call	??$destroy@PAD@?$allocator@D@std@@QAEXPAPAD@Z ; std::allocator<char>::destroy<char *>

; 758  : 		}

	pop	ebp
	ret	0
??$destroy@PAD@?$allocator_traits@V?$allocator@D@std@@@std@@SAXAAV?$allocator@D@1@PAPAD@Z ENDP ; std::allocator_traits<std::allocator<char> >::destroy<char *>
_TEXT	ENDS
; Function compile flags: /Odtp
; File c:\program files (x86)\microsoft visual studio 11.0\vc\include\xmemory0
;	COMDAT ??$construct@PADAAPAD@?$allocator_traits@V?$allocator@D@std@@@std@@SAXAAV?$allocator@D@1@PAPADAAPAD@Z
_TEXT	SEGMENT
__Al$ = 8						; size = 4
__Ptr$ = 12						; size = 4
__V0$ = 16						; size = 4
??$construct@PADAAPAD@?$allocator_traits@V?$allocator@D@std@@@std@@SAXAAV?$allocator@D@1@PAPADAAPAD@Z PROC ; std::allocator_traits<std::allocator<char> >::construct<char *,char * &>, COMDAT

; 751  : _VARIADIC_EXPAND_0X(_ALLOC_TRAITS_SPECIAL_CONSTRUCT, , , , )

	push	ebp
	mov	ebp, esp
	mov	eax, DWORD PTR __V0$[ebp]
	push	eax
	call	??$forward@AAPAD@std@@YAAAPADAAPAD@Z	; std::forward<char * &>
	add	esp, 4
	push	eax
	mov	ecx, DWORD PTR __Ptr$[ebp]
	push	ecx
	mov	ecx, DWORD PTR __Al$[ebp]
	call	??$construct@PADAAPAD@?$allocator@D@std@@QAEXPAPADAAPAD@Z ; std::allocator<char>::construct<char *,char * &>
	pop	ebp
	ret	0
??$construct@PADAAPAD@?$allocator_traits@V?$allocator@D@std@@@std@@SAXAAV?$allocator@D@1@PAPADAAPAD@Z ENDP ; std::allocator_traits<std::allocator<char> >::construct<char *,char * &>
_TEXT	ENDS
; Function compile flags: /Odtp
; File c:\program files (x86)\microsoft visual studio 11.0\vc\include\type_traits
;	COMDAT ??$forward@AAPAD@std@@YAAAPADAAPAD@Z
_TEXT	SEGMENT
__Arg$ = 8						; size = 4
??$forward@AAPAD@std@@YAAAPADAAPAD@Z PROC		; std::forward<char * &>, COMDAT

; 1775 : 	{	// forward an lvalue

	push	ebp
	mov	ebp, esp

; 1776 : 	return (static_cast<_Ty&&>(_Arg));

	mov	eax, DWORD PTR __Arg$[ebp]

; 1777 : 	}

	pop	ebp
	ret	0
??$forward@AAPAD@std@@YAAAPADAAPAD@Z ENDP		; std::forward<char * &>
_TEXT	ENDS
; Function compile flags: /Odtp
;	COMDAT ??__F?_System_object@?$_Error_objects@H@std@@2V_System_error_category@2@A@@YAXXZ
text$yd	SEGMENT
??__F?_System_object@?$_Error_objects@H@std@@2V_System_error_category@2@A@@YAXXZ PROC ; `dynamic atexit destructor for 'std::_Error_objects<int>::_System_object'', COMDAT
	push	ebp
	mov	ebp, esp
	mov	ecx, OFFSET ?_System_object@?$_Error_objects@H@std@@2V_System_error_category@2@A ; std::_Error_objects<int>::_System_object
	call	??1_System_error_category@std@@UAE@XZ
	pop	ebp
	ret	0
??__F?_System_object@?$_Error_objects@H@std@@2V_System_error_category@2@A@@YAXXZ ENDP ; `dynamic atexit destructor for 'std::_Error_objects<int>::_System_object''
text$yd	ENDS
; Function compile flags: /Odtp
; File c:\program files (x86)\microsoft visual studio 11.0\vc\include\xmemory0
;	COMDAT ??__E?_System_object@?$_Error_objects@H@std@@2V_System_error_category@2@A@@YAXXZ
text$yc	SEGMENT
??__E?_System_object@?$_Error_objects@H@std@@2V_System_error_category@2@A@@YAXXZ PROC ; `dynamic initializer for 'std::_Error_objects<int>::_System_object'', COMDAT

; 627  : 		{	// estimate maximum array size

	push	ebp
	mov	ebp, esp
	mov	ecx, OFFSET ?_System_object@?$_Error_objects@H@std@@2V_System_error_category@2@A ; std::_Error_objects<int>::_System_object
	call	??0_System_error_category@std@@QAE@XZ	; std::_System_error_category::_System_error_category
	push	OFFSET ??__F?_System_object@?$_Error_objects@H@std@@2V_System_error_category@2@A@@YAXXZ ; `dynamic atexit destructor for 'std::_Error_objects<int>::_System_object''
	call	_atexit
	add	esp, 4
	pop	ebp
	ret	0
??__E?_System_object@?$_Error_objects@H@std@@2V_System_error_category@2@A@@YAXXZ ENDP ; `dynamic initializer for 'std::_Error_objects<int>::_System_object''
text$yc	ENDS
; Function compile flags: /Odtp
;	COMDAT ??__F?_Iostream_object@?$_Error_objects@H@std@@2V_Iostream_error_category@2@A@@YAXXZ
text$yd	SEGMENT
??__F?_Iostream_object@?$_Error_objects@H@std@@2V_Iostream_error_category@2@A@@YAXXZ PROC ; `dynamic atexit destructor for 'std::_Error_objects<int>::_Iostream_object'', COMDAT
	push	ebp
	mov	ebp, esp
	mov	ecx, OFFSET ?_Iostream_object@?$_Error_objects@H@std@@2V_Iostream_error_category@2@A ; std::_Error_objects<int>::_Iostream_object
	call	??1_Iostream_error_category@std@@UAE@XZ
	pop	ebp
	ret	0
??__F?_Iostream_object@?$_Error_objects@H@std@@2V_Iostream_error_category@2@A@@YAXXZ ENDP ; `dynamic atexit destructor for 'std::_Error_objects<int>::_Iostream_object''
text$yd	ENDS
; Function compile flags: /Odtp
; File c:\program files (x86)\microsoft visual studio 11.0\vc\include\xmemory0
;	COMDAT ??__E?_Iostream_object@?$_Error_objects@H@std@@2V_Iostream_error_category@2@A@@YAXXZ
text$yc	SEGMENT
??__E?_Iostream_object@?$_Error_objects@H@std@@2V_Iostream_error_category@2@A@@YAXXZ PROC ; `dynamic initializer for 'std::_Error_objects<int>::_Iostream_object'', COMDAT

; 627  : 		{	// estimate maximum array size

	push	ebp
	mov	ebp, esp
	mov	ecx, OFFSET ?_Iostream_object@?$_Error_objects@H@std@@2V_Iostream_error_category@2@A ; std::_Error_objects<int>::_Iostream_object
	call	??0_Iostream_error_category@std@@QAE@XZ	; std::_Iostream_error_category::_Iostream_error_category
	push	OFFSET ??__F?_Iostream_object@?$_Error_objects@H@std@@2V_Iostream_error_category@2@A@@YAXXZ ; `dynamic atexit destructor for 'std::_Error_objects<int>::_Iostream_object''
	call	_atexit
	add	esp, 4
	pop	ebp
	ret	0
??__E?_Iostream_object@?$_Error_objects@H@std@@2V_Iostream_error_category@2@A@@YAXXZ ENDP ; `dynamic initializer for 'std::_Error_objects<int>::_Iostream_object''
text$yc	ENDS
; Function compile flags: /Odtp
;	COMDAT ??__F?_Generic_object@?$_Error_objects@H@std@@2V_Generic_error_category@2@A@@YAXXZ
text$yd	SEGMENT
??__F?_Generic_object@?$_Error_objects@H@std@@2V_Generic_error_category@2@A@@YAXXZ PROC ; `dynamic atexit destructor for 'std::_Error_objects<int>::_Generic_object'', COMDAT
	push	ebp
	mov	ebp, esp
	mov	ecx, OFFSET ?_Generic_object@?$_Error_objects@H@std@@2V_Generic_error_category@2@A ; std::_Error_objects<int>::_Generic_object
	call	??1_Generic_error_category@std@@UAE@XZ
	pop	ebp
	ret	0
??__F?_Generic_object@?$_Error_objects@H@std@@2V_Generic_error_category@2@A@@YAXXZ ENDP ; `dynamic atexit destructor for 'std::_Error_objects<int>::_Generic_object''
text$yd	ENDS
; Function compile flags: /Odtp
; File c:\program files (x86)\microsoft visual studio 11.0\vc\include\xmemory0
;	COMDAT ??__E?_Generic_object@?$_Error_objects@H@std@@2V_Generic_error_category@2@A@@YAXXZ
text$yc	SEGMENT
??__E?_Generic_object@?$_Error_objects@H@std@@2V_Generic_error_category@2@A@@YAXXZ PROC ; `dynamic initializer for 'std::_Error_objects<int>::_Generic_object'', COMDAT

; 627  : 		{	// estimate maximum array size

	push	ebp
	mov	ebp, esp
	mov	ecx, OFFSET ?_Generic_object@?$_Error_objects@H@std@@2V_Generic_error_category@2@A ; std::_Error_objects<int>::_Generic_object
	call	??0_Generic_error_category@std@@QAE@XZ	; std::_Generic_error_category::_Generic_error_category
	push	OFFSET ??__F?_Generic_object@?$_Error_objects@H@std@@2V_Generic_error_category@2@A@@YAXXZ ; `dynamic atexit destructor for 'std::_Error_objects<int>::_Generic_object''
	call	_atexit
	add	esp, 4
	pop	ebp
	ret	0
??__E?_Generic_object@?$_Error_objects@H@std@@2V_Generic_error_category@2@A@@YAXXZ ENDP ; `dynamic initializer for 'std::_Error_objects<int>::_Generic_object''
text$yc	ENDS
; Function compile flags: /Odtp
; File c:\program files (x86)\microsoft visual studio 11.0\vc\include\xmemory0
;	COMDAT ??$_Allocate@D@std@@YAPADIPAD@Z
_TEXT	SEGMENT
__Ptr$ = -4						; size = 4
__Count$ = 8						; size = 4
___formal$ = 12						; size = 4
??$_Allocate@D@std@@YAPADIPAD@Z PROC			; std::_Allocate<char>, COMDAT

; 22   : 	{	// allocate storage for _Count elements of type _Ty

	push	ebp
	mov	ebp, esp
	push	ecx

; 23   : 	void *_Ptr = 0;

	mov	DWORD PTR __Ptr$[ebp], 0

; 24   : 
; 25   : 	if (_Count == 0)

	cmp	DWORD PTR __Count$[ebp], 0
	jne	SHORT $LN4@Allocate

; 26   : 		;
; 27   : 	else if (((size_t)(-1) / sizeof (_Ty) < _Count)

	jmp	SHORT $LN3@Allocate
$LN4@Allocate:

; 28   : 		|| (_Ptr = ::operator new(_Count * sizeof (_Ty))) == 0)

	cmp	DWORD PTR __Count$[ebp], -1
	ja	SHORT $LN1@Allocate
	mov	eax, DWORD PTR __Count$[ebp]
	push	eax
	call	??2@YAPAXI@Z				; operator new
	add	esp, 4
	mov	DWORD PTR __Ptr$[ebp], eax
	cmp	DWORD PTR __Ptr$[ebp], 0
	jne	SHORT $LN3@Allocate
$LN1@Allocate:

; 29   : 		_Xbad_alloc();	// report no memory

	call	?_Xbad_alloc@std@@YAXXZ			; std::_Xbad_alloc
$LN3@Allocate:

; 30   : 
; 31   : 	return ((_Ty *)_Ptr);

	mov	eax, DWORD PTR __Ptr$[ebp]
$LN6@Allocate:

; 32   : 	}

	mov	esp, ebp
	pop	ebp
	ret	0
??$_Allocate@D@std@@YAPADIPAD@Z ENDP			; std::_Allocate<char>
_TEXT	ENDS
; Function compile flags: /Odtp
; File c:\program files (x86)\microsoft visual studio 11.0\vc\include\xstddef
;	COMDAT ??$addressof@D@std@@YAPADAAD@Z
_TEXT	SEGMENT
__Val$ = 8						; size = 4
??$addressof@D@std@@YAPADAAD@Z PROC			; std::addressof<char>, COMDAT

; 85   : 	{	// return address of _Val

	push	ebp
	mov	ebp, esp

; 86   : 	return (reinterpret_cast<_Ty *>(
; 87   : 		(&const_cast<char&>(
; 88   : 		reinterpret_cast<const volatile char&>(_Val)))));

	mov	eax, DWORD PTR __Val$[ebp]

; 89   : 	}

	pop	ebp
	ret	0
??$addressof@D@std@@YAPADAAD@Z ENDP			; std::addressof<char>
_TEXT	ENDS
; Function compile flags: /Odtp
; File c:\program files (x86)\microsoft visual studio 11.0\vc\include\xmemory0
;	COMDAT ??$destroy@PAD@?$_Wrap_alloc@V?$allocator@D@std@@@std@@QAEXPAPAD@Z
_TEXT	SEGMENT
_this$ = -4						; size = 4
__Ptr$ = 8						; size = 4
??$destroy@PAD@?$_Wrap_alloc@V?$allocator@D@std@@@std@@QAEXPAPAD@Z PROC ; std::_Wrap_alloc<std::allocator<char> >::destroy<char *>, COMDAT
; _this$ = ecx

; 907  : 		void destroy(_Ty *_Ptr)

	push	ebp
	mov	ebp, esp
	push	ecx
	mov	DWORD PTR _this$[ebp], ecx

; 908  : 		{	// destroy object at _Ptr
; 909  : 		_Mytraits::destroy(*this, _Ptr);

	mov	eax, DWORD PTR __Ptr$[ebp]
	push	eax
	mov	ecx, DWORD PTR _this$[ebp]
	push	ecx
	call	??$destroy@PAD@?$allocator_traits@V?$allocator@D@std@@@std@@SAXAAV?$allocator@D@1@PAPAD@Z ; std::allocator_traits<std::allocator<char> >::destroy<char *>
	add	esp, 8

; 910  : 		}

	mov	esp, ebp
	pop	ebp
	ret	4
??$destroy@PAD@?$_Wrap_alloc@V?$allocator@D@std@@@std@@QAEXPAPAD@Z ENDP ; std::_Wrap_alloc<std::allocator<char> >::destroy<char *>
_TEXT	ENDS
; Function compile flags: /Odtp
; File c:\program files (x86)\microsoft visual studio 11.0\vc\include\xmemory0
;	COMDAT ??$construct@PADAAPAD@?$_Wrap_alloc@V?$allocator@D@std@@@std@@QAEXPAPADAAPAD@Z
_TEXT	SEGMENT
_this$ = -4						; size = 4
__Ptr$ = 8						; size = 4
__V0$ = 12						; size = 4
??$construct@PADAAPAD@?$_Wrap_alloc@V?$allocator@D@std@@@std@@QAEXPAPADAAPAD@Z PROC ; std::_Wrap_alloc<std::allocator<char> >::construct<char *,char * &>, COMDAT
; _this$ = ecx

; 903  : _VARIADIC_EXPAND_0X(_WRAP_ALLOC_CONSTRUCT, , , , )

	push	ebp
	mov	ebp, esp
	push	ecx
	mov	DWORD PTR _this$[ebp], ecx
	mov	eax, DWORD PTR __V0$[ebp]
	push	eax
	call	??$forward@AAPAD@std@@YAAAPADAAPAD@Z	; std::forward<char * &>
	add	esp, 4
	push	eax
	mov	ecx, DWORD PTR __Ptr$[ebp]
	push	ecx
	mov	edx, DWORD PTR _this$[ebp]
	push	edx
	call	??$construct@PADAAPAD@?$allocator_traits@V?$allocator@D@std@@@std@@SAXAAV?$allocator@D@1@PAPADAAPAD@Z ; std::allocator_traits<std::allocator<char> >::construct<char *,char * &>
	add	esp, 12					; 0000000cH
	mov	esp, ebp
	pop	ebp
	ret	8
??$construct@PADAAPAD@?$_Wrap_alloc@V?$allocator@D@std@@@std@@QAEXPAPADAAPAD@Z ENDP ; std::_Wrap_alloc<std::allocator<char> >::construct<char *,char * &>
_TEXT	ENDS
; Function compile flags: /Odtp
; File c:\users\zhitao li\documents\visual studio 2012\projects\freefalcon\sim\siminput\commands.cpp
_TEXT	SEGMENT
_theHTS$1 = -24						; size = 4
_pFCC$2 = -20						; size = 4
_laserPod$3 = -16					; size = 4
_theRadar$4 = -12					; size = 4
_mavDisplay$5 = -8					; size = 4
_pac$ = -4						; size = 4
_state$ = 8						; size = 4
_xOff$ = 12						; size = 4
_yOff$ = 16						; size = 4
?SimCursorFunc@?A0x786e660c@@YAXHHH@Z PROC		; `anonymous namespace'::SimCursorFunc

; 1323 : void SimCursorFunc(int state, int xOff, int yOff){

	push	ebp
	mov	ebp, esp
	sub	esp, 24					; 00000018H

; 1324 : 	// MD -- 20040110: disable keys if we are using analog axis for this control
; 1325 : 	// Also removed the ACM transition to SLEW mode from here and put it back into
; 1326 : 	// the ACMMode() function where it probably belonged anyway.  This needed to
; 1327 : 	// happen to make the "drop track" on reversion to SLEW mode work right for the
; 1328 : 	// analog support anyway.
; 1329 : 	if ((IO.AnalogIsUsed(AXIS_CURSOR_X) == true) && (IO.AnalogIsUsed(AXIS_CURSOR_Y) == true)){

	push	11					; 0000000bH
	mov	ecx, OFFSET ?IO@@3VSIMLIB_IO_CLASS@@A	; IO
	call	?AnalogIsUsed@SIMLIB_IO_CLASS@@QAE_NW4GameAxis_t@@@Z ; SIMLIB_IO_CLASS::AnalogIsUsed
	movzx	eax, al
	cmp	eax, 1
	jne	SHORT $LN13@SimCursorF
	push	12					; 0000000cH
	mov	ecx, OFFSET ?IO@@3VSIMLIB_IO_CLASS@@A	; IO
	call	?AnalogIsUsed@SIMLIB_IO_CLASS@@QAE_NW4GameAxis_t@@@Z ; SIMLIB_IO_CLASS::AnalogIsUsed
	movzx	ecx, al
	cmp	ecx, 1
	jne	SHORT $LN13@SimCursorF

; 1330 : 		return;

	jmp	$LN14@SimCursorF
$LN13@SimCursorF:

; 1331 : 	}
; 1332 : 	AircraftClass *pac = SimDriver.GetPlayerAircraft();

	mov	ecx, OFFSET ?SimDriver@@3VSimulationDriver@@A ; SimDriver
	call	?GetPlayerAircraft@SimulationDriver@@QBEPAVAircraftClass@@XZ ; SimulationDriver::GetPlayerAircraft
	mov	DWORD PTR _pac$[ebp], eax

; 1333 : 	if (pac && pac->IsSetFlag(MOTION_OWNSHIP)){

	cmp	DWORD PTR _pac$[ebp], 0
	je	$LN14@SimCursorF
	push	65536					; 00010000H
	mov	ecx, DWORD PTR _pac$[ebp]
	call	?IsSetFlag@SimBaseClass@@QBEHH@Z	; SimBaseClass::IsSetFlag
	test	eax, eax
	je	$LN14@SimCursorF

; 1334 : 		RadarDopplerClass* theRadar = (RadarDopplerClass*)FindSensor(pac, SensorClass::Radar);

	push	1
	mov	edx, DWORD PTR _pac$[ebp]
	push	edx
	call	?FindSensor@@YAPAVSensorClass@@PAVSimMoverClass@@H@Z ; FindSensor
	add	esp, 8
	mov	DWORD PTR _theRadar$4[ebp], eax

; 1335 : 		FireControlComputer* pFCC = pac->GetFCC();

	mov	eax, DWORD PTR _pac$[ebp]
	mov	edx, DWORD PTR [eax]
	mov	ecx, DWORD PTR _pac$[ebp]
	mov	eax, DWORD PTR [edx+460]
	call	eax
	mov	DWORD PTR _pFCC$2[ebp], eax

; 1336 : 		if (state & KEY_DOWN){

	mov	ecx, DWORD PTR _state$[ebp]
	and	ecx, 8
	je	$LN11@SimCursorF

; 1337 : 			LaserPodClass* laserPod = (LaserPodClass* )FindLaserPod (pac);

	mov	edx, DWORD PTR _pac$[ebp]
	push	edx
	call	?FindLaserPod@@YAPAVSensorClass@@PAVSimMoverClass@@@Z ; FindLaserPod
	add	esp, 4
	mov	DWORD PTR _laserPod$3[ebp], eax

; 1338 : 			MaverickDisplayClass* mavDisplay = NULL;

	mov	DWORD PTR _mavDisplay$5[ebp], 0

; 1339 : 			HarmTargetingPod *theHTS = (HarmTargetingPod*)FindSensor(pac, SensorClass::HTS);

	push	4
	mov	eax, DWORD PTR _pac$[ebp]
	push	eax
	call	?FindSensor@@YAPAVSensorClass@@PAVSimMoverClass@@H@Z ; FindSensor
	add	esp, 8
	mov	DWORD PTR _theHTS$1[ebp], eax

; 1340 : 			if (pac->Sms->curWeaponType == wtAgm65 && pac->Sms->GetCurrentWeapon()){

	mov	ecx, DWORD PTR _pac$[ebp]
	mov	edx, DWORD PTR [ecx+940]
	cmp	DWORD PTR [edx+148], 4
	jne	SHORT $LN10@SimCursorF
	mov	eax, DWORD PTR _pac$[ebp]
	mov	ecx, DWORD PTR [eax+940]
	mov	edx, DWORD PTR _pac$[ebp]
	mov	eax, DWORD PTR [ecx]
	mov	ecx, DWORD PTR [edx+940]
	mov	edx, DWORD PTR [eax+12]
	call	edx
	test	eax, eax
	je	SHORT $LN10@SimCursorF

; 1341 : 				mavDisplay = (MaverickDisplayClass*)((MissileClass*)pac->Sms->curWeapon.get())->display;

	mov	eax, DWORD PTR _pac$[ebp]
	mov	ecx, DWORD PTR [eax+940]
	add	ecx, 164				; 000000a4H
	call	?get@?$VuBin@VSimWeaponClass@@@@QBEPAVSimWeaponClass@@XZ ; VuBin<SimWeaponClass>::get
	mov	ecx, DWORD PTR [eax+712]
	mov	DWORD PTR _mavDisplay$5[ebp], ecx
$LN10@SimCursorF:

; 1342 : 			}
; 1343 : 			if(
; 1344 : 				(theRadar && theRadar->IsSOI()) || 
; 1345 : 				(mavDisplay && mavDisplay->IsSOI()) || 
; 1346 : 				(laserPod && laserPod->IsSOI()) ||
; 1347 : 				(theHTS && pac->GetSOI() == SimVehicleClass::SOI_WEAPON) ||
; 1348 : 				(TheHud && TheHud->IsSOI())
; 1349 : 			){

	cmp	DWORD PTR _theRadar$4[ebp], 0
	je	SHORT $LN7@SimCursorF
	mov	ecx, DWORD PTR _theRadar$4[ebp]
	call	?IsSOI@DrawableClass@@QAEHXZ		; DrawableClass::IsSOI
	test	eax, eax
	jne	SHORT $LN8@SimCursorF
$LN7@SimCursorF:
	cmp	DWORD PTR _mavDisplay$5[ebp], 0
	je	SHORT $LN6@SimCursorF
	mov	ecx, DWORD PTR _mavDisplay$5[ebp]
	call	?IsSOI@DrawableClass@@QAEHXZ		; DrawableClass::IsSOI
	test	eax, eax
	jne	SHORT $LN8@SimCursorF
$LN6@SimCursorF:
	cmp	DWORD PTR _laserPod$3[ebp], 0
	je	SHORT $LN5@SimCursorF
	mov	ecx, DWORD PTR _laserPod$3[ebp]
	call	?IsSOI@DrawableClass@@QAEHXZ		; DrawableClass::IsSOI
	test	eax, eax
	jne	SHORT $LN8@SimCursorF
$LN5@SimCursorF:
	cmp	DWORD PTR _theHTS$1[ebp], 0
	je	SHORT $LN4@SimCursorF
	mov	ecx, DWORD PTR _pac$[ebp]
	call	?GetSOI@SimVehicleClass@@QAE?AW4SOI@1@XZ ; SimVehicleClass::GetSOI
	cmp	eax, 2
	je	SHORT $LN8@SimCursorF
$LN4@SimCursorF:
	cmp	DWORD PTR ?TheHud@@3PAVHudClass@@A, 0	; TheHud
	je	SHORT $LN9@SimCursorF
	mov	ecx, DWORD PTR ?TheHud@@3PAVHudClass@@A	; TheHud
	call	?IsSOI@DrawableClass@@QAEHXZ		; DrawableClass::IsSOI
	test	eax, eax
	je	SHORT $LN9@SimCursorF
$LN8@SimCursorF:

; 1350 : 				pac->FCC->cursorXCmd = xOff;

	mov	edx, DWORD PTR _pac$[ebp]
	mov	eax, DWORD PTR [edx+936]
	mov	ecx, DWORD PTR _xOff$[ebp]
	mov	DWORD PTR [eax+196], ecx

; 1351 : 				pac->FCC->cursorYCmd = yOff;

	mov	edx, DWORD PTR _pac$[ebp]
	mov	eax, DWORD PTR [edx+936]
	mov	ecx, DWORD PTR _yOff$[ebp]
	mov	DWORD PTR [eax+200], ecx
	jmp	SHORT $LN3@SimCursorF
$LN9@SimCursorF:

; 1352 : 			}
; 1353 : 			else if	(pFCC && pFCC->IsSOI){

	cmp	DWORD PTR _pFCC$2[ebp], 0
	je	SHORT $LN3@SimCursorF
	mov	edx, DWORD PTR _pFCC$2[ebp]
	movzx	eax, BYTE PTR [edx+464]
	test	eax, eax
	je	SHORT $LN3@SimCursorF

; 1354 : 				pac->FCC->HSDCursorXCmd = xOff;

	mov	ecx, DWORD PTR _pac$[ebp]
	mov	edx, DWORD PTR [ecx+936]
	mov	eax, DWORD PTR _xOff$[ebp]
	mov	DWORD PTR [edx+204], eax

; 1355 : 				pac->FCC->HSDCursorYCmd = yOff;

	mov	ecx, DWORD PTR _pac$[ebp]
	mov	edx, DWORD PTR [ecx+936]
	mov	eax, DWORD PTR _yOff$[ebp]
	mov	DWORD PTR [edx+208], eax
$LN3@SimCursorF:

; 1356 : 			}
; 1357 : 		}
; 1358 : 		else {

	jmp	SHORT $LN14@SimCursorF
$LN11@SimCursorF:

; 1359 : 			pac->FCC->cursorXCmd = pac->FCC->cursorYCmd = 
; 1360 : 				pac->FCC->HSDCursorXCmd = pac->FCC->HSDCursorYCmd = 0;

	mov	ecx, DWORD PTR _pac$[ebp]
	mov	edx, DWORD PTR [ecx+936]
	mov	DWORD PTR [edx+208], 0
	mov	eax, DWORD PTR _pac$[ebp]
	mov	ecx, DWORD PTR [eax+936]
	mov	DWORD PTR [ecx+204], 0
	mov	edx, DWORD PTR _pac$[ebp]
	mov	eax, DWORD PTR [edx+936]
	mov	DWORD PTR [eax+200], 0
	mov	ecx, DWORD PTR _pac$[ebp]
	mov	edx, DWORD PTR [ecx+936]
	mov	DWORD PTR [edx+196], 0
$LN14@SimCursorF:

; 1361 : 		}
; 1362 : 	}
; 1363 : }

	mov	esp, ebp
	pop	ebp
	ret	0
?SimCursorFunc@?A0x786e660c@@YAXHHH@Z ENDP		; `anonymous namespace'::SimCursorFunc
_TEXT	ENDS
; Function compile flags: /Odtp
; File c:\users\zhitao li\documents\visual studio 2012\projects\freefalcon\sim\siminput\commands.cpp
_TEXT	SEGMENT
?VtuneNoop@@YAHXZ PROC					; VtuneNoop

; 146  : BOOL VtuneNoop(void) {

	push	ebp
	mov	ebp, esp

; 147  : 	return FALSE;

	xor	eax, eax

; 148  : }

	pop	ebp
	ret	0
?VtuneNoop@@YAHXZ ENDP					; VtuneNoop
_TEXT	ENDS
; Function compile flags: /Odtp
; File c:\users\zhitao li\documents\visual studio 2012\projects\freefalcon\sim\include\simio.h
;	COMDAT ?AnalogIsUsed@SIMLIB_IO_CLASS@@QAE_NW4GameAxis_t@@@Z
_TEXT	SEGMENT
_this$ = -4						; size = 4
_id$ = 8						; size = 4
?AnalogIsUsed@SIMLIB_IO_CLASS@@QAE_NW4GameAxis_t@@@Z PROC ; SIMLIB_IO_CLASS::AnalogIsUsed, COMDAT
; _this$ = ecx

; 237  : 	bool	AnalogIsUsed(GameAxis_t id) { return ( analog[id].isUsed); };

	push	ebp
	mov	ebp, esp
	push	ecx
	mov	DWORD PTR _this$[ebp], ecx
	mov	eax, DWORD PTR _id$[ebp]
	imul	eax, 28					; 0000001cH
	mov	ecx, DWORD PTR _this$[ebp]
	mov	al, BYTE PTR [ecx+eax+12]
	mov	esp, ebp
	pop	ebp
	ret	4
?AnalogIsUsed@SIMLIB_IO_CLASS@@QAE_NW4GameAxis_t@@@Z ENDP ; SIMLIB_IO_CLASS::AnalogIsUsed
_TEXT	ENDS
; Function compile flags: /Odtp
; File c:\users\zhitao li\documents\visual studio 2012\projects\freefalcon\sim\include\lantirn.h
;	COMDAT ?SetTFRMode@LantirnClass@@QAEXW4TfrMode@1@@Z
_TEXT	SEGMENT
_this$ = -4						; size = 4
_mode$ = 8						; size = 4
?SetTFRMode@LantirnClass@@QAEXW4TfrMode@1@@Z PROC	; LantirnClass::SetTFRMode, COMDAT
; _this$ = ecx

; 43   :     void    SetTFRMode (TfrMode mode) { m_tfrmode = mode; };

	push	ebp
	mov	ebp, esp
	push	ecx
	mov	DWORD PTR _this$[ebp], ecx
	mov	eax, DWORD PTR _this$[ebp]
	mov	ecx, DWORD PTR _mode$[ebp]
	mov	DWORD PTR [eax+168], ecx
	mov	esp, ebp
	pop	ebp
	ret	4
?SetTFRMode@LantirnClass@@QAEXW4TfrMode@1@@Z ENDP	; LantirnClass::SetTFRMode
_TEXT	ENDS
; Function compile flags: /Odtp
; File c:\users\zhitao li\documents\visual studio 2012\projects\freefalcon\sim\include\lantirn.h
;	COMDAT ?GetTFRMode@LantirnClass@@QAE?AW4TfrMode@1@XZ
_TEXT	SEGMENT
_this$ = -4						; size = 4
?GetTFRMode@LantirnClass@@QAE?AW4TfrMode@1@XZ PROC	; LantirnClass::GetTFRMode, COMDAT
; _this$ = ecx

; 42   :     TfrMode GetTFRMode(void) { return m_tfrmode; };

	push	ebp
	mov	ebp, esp
	push	ecx
	mov	DWORD PTR _this$[ebp], ecx
	mov	eax, DWORD PTR _this$[ebp]
	mov	eax, DWORD PTR [eax+168]
	mov	esp, ebp
	pop	ebp
	ret	0
?GetTFRMode@LantirnClass@@QAE?AW4TfrMode@1@XZ ENDP	; LantirnClass::GetTFRMode
_TEXT	ENDS
; Function compile flags: /Odtp
; File c:\users\zhitao li\documents\visual studio 2012\projects\freefalcon\sim\include\pilotinputs.h
;	COMDAT ?selectBothEngines@PilotInputs@@QAEXXZ
_TEXT	SEGMENT
_this$ = -4						; size = 4
?selectBothEngines@PilotInputs@@QAEXXZ PROC		; PilotInputs::selectBothEngines, COMDAT
; _this$ = ecx

; 53   : 	  void selectBothEngines() { currentlyActiveEngine = Both_Engines; };

	push	ebp
	mov	ebp, esp
	push	ecx
	mov	DWORD PTR _this$[ebp], ecx
	mov	eax, DWORD PTR _this$[ebp]
	mov	DWORD PTR [eax+100], 2
	mov	esp, ebp
	pop	ebp
	ret	0
?selectBothEngines@PilotInputs@@QAEXXZ ENDP		; PilotInputs::selectBothEngines
_TEXT	ENDS
; Function compile flags: /Odtp
; File c:\users\zhitao li\documents\visual studio 2012\projects\freefalcon\sim\include\pilotinputs.h
;	COMDAT ?selectRightEngine@PilotInputs@@QAEXXZ
_TEXT	SEGMENT
_this$ = -4						; size = 4
?selectRightEngine@PilotInputs@@QAEXXZ PROC		; PilotInputs::selectRightEngine, COMDAT
; _this$ = ecx

; 52   : 	  void selectRightEngine() { currentlyActiveEngine = Right_Engine; };

	push	ebp
	mov	ebp, esp
	push	ecx
	mov	DWORD PTR _this$[ebp], ecx
	mov	eax, DWORD PTR _this$[ebp]
	mov	DWORD PTR [eax+100], 1
	mov	esp, ebp
	pop	ebp
	ret	0
?selectRightEngine@PilotInputs@@QAEXXZ ENDP		; PilotInputs::selectRightEngine
_TEXT	ENDS
; Function compile flags: /Odtp
; File c:\users\zhitao li\documents\visual studio 2012\projects\freefalcon\sim\include\pilotinputs.h
;	COMDAT ?selectLeftEngine@PilotInputs@@QAEXXZ
_TEXT	SEGMENT
_this$ = -4						; size = 4
?selectLeftEngine@PilotInputs@@QAEXXZ PROC		; PilotInputs::selectLeftEngine, COMDAT
; _this$ = ecx

; 51   : 	  void selectLeftEngine() { currentlyActiveEngine = Left_Engine; }

	push	ebp
	mov	ebp, esp
	push	ecx
	mov	DWORD PTR _this$[ebp], ecx
	mov	eax, DWORD PTR _this$[ebp]
	mov	DWORD PTR [eax+100], 0
	mov	esp, ebp
	pop	ebp
	ret	0
?selectLeftEngine@PilotInputs@@QAEXXZ ENDP		; PilotInputs::selectLeftEngine
_TEXT	ENDS
; Function compile flags: /Odtp
; File c:\users\zhitao li\documents\visual studio 2012\projects\freefalcon\sim\include\pilotinputs.h
;	COMDAT ?getCurrentEngine@PilotInputs@@QAE?AW4Engine_t@1@XZ
_TEXT	SEGMENT
_this$ = -4						; size = 4
?getCurrentEngine@PilotInputs@@QAE?AW4Engine_t@1@XZ PROC ; PilotInputs::getCurrentEngine, COMDAT
; _this$ = ecx

; 49   : 	  Engine_t getCurrentEngine() { return currentlyActiveEngine; }

	push	ebp
	mov	ebp, esp
	push	ecx
	mov	DWORD PTR _this$[ebp], ecx
	mov	eax, DWORD PTR _this$[ebp]
	mov	eax, DWORD PTR [eax+100]
	mov	esp, ebp
	pop	ebp
	ret	0
?getCurrentEngine@PilotInputs@@QAE?AW4Engine_t@1@XZ ENDP ; PilotInputs::getCurrentEngine
_TEXT	ENDS
; Function compile flags: /Odtp
; File c:\users\zhitao li\documents\visual studio 2012\projects\freefalcon\sim\include\playerrwr.h
;	COMDAT ?ShowLowAltPriority@PlayerRwrClass@@QAEHXZ
_TEXT	SEGMENT
_this$ = -4						; size = 4
?ShowLowAltPriority@PlayerRwrClass@@QAEHXZ PROC		; PlayerRwrClass::ShowLowAltPriority, COMDAT
; _this$ = ecx

; 44   : 	int ShowLowAltPriority (void)		{return lowAltPriority;};

	push	ebp
	mov	ebp, esp
	push	ecx
	mov	DWORD PTR _this$[ebp], ecx
	mov	eax, DWORD PTR _this$[ebp]
	mov	eax, DWORD PTR [eax+592]
	mov	esp, ebp
	pop	ebp
	ret	0
?ShowLowAltPriority@PlayerRwrClass@@QAEHXZ ENDP		; PlayerRwrClass::ShowLowAltPriority
_TEXT	ENDS
; Function compile flags: /Odtp
; File c:\users\zhitao li\documents\visual studio 2012\projects\freefalcon\sim\include\playerrwr.h
;	COMDAT ?ShowSearch@PlayerRwrClass@@QAEHXZ
_TEXT	SEGMENT
_this$ = -4						; size = 4
?ShowSearch@PlayerRwrClass@@QAEHXZ PROC			; PlayerRwrClass::ShowSearch, COMDAT
; _this$ = ecx

; 43   : 	int ShowSearch (void)		{return showSearch;};

	push	ebp
	mov	ebp, esp
	push	ecx
	mov	DWORD PTR _this$[ebp], ecx
	mov	eax, DWORD PTR _this$[ebp]
	mov	eax, DWORD PTR [eax+636]
	mov	esp, ebp
	pop	ebp
	ret	0
?ShowSearch@PlayerRwrClass@@QAEHXZ ENDP			; PlayerRwrClass::ShowSearch
_TEXT	ENDS
; Function compile flags: /Odtp
; File c:\users\zhitao li\documents\visual studio 2012\projects\freefalcon\sim\include\playerrwr.h
;	COMDAT ?ShowNaval@PlayerRwrClass@@QAEHXZ
_TEXT	SEGMENT
_this$ = -4						; size = 4
?ShowNaval@PlayerRwrClass@@QAEHXZ PROC			; PlayerRwrClass::ShowNaval, COMDAT
; _this$ = ecx

; 42   : 	int ShowNaval (void)		{return showNaval;};

	push	ebp
	mov	ebp, esp
	push	ecx
	mov	DWORD PTR _this$[ebp], ecx
	mov	eax, DWORD PTR _this$[ebp]
	mov	eax, DWORD PTR [eax+632]
	mov	esp, ebp
	pop	ebp
	ret	0
?ShowNaval@PlayerRwrClass@@QAEHXZ ENDP			; PlayerRwrClass::ShowNaval
_TEXT	ENDS
; Function compile flags: /Odtp
; File c:\users\zhitao li\documents\visual studio 2012\projects\freefalcon\sim\include\playerrwr.h
;	COMDAT ?ShowUnknowns@PlayerRwrClass@@QAEHXZ
_TEXT	SEGMENT
_this$ = -4						; size = 4
?ShowUnknowns@PlayerRwrClass@@QAEHXZ PROC		; PlayerRwrClass::ShowUnknowns, COMDAT
; _this$ = ecx

; 41   : 	int ShowUnknowns (void)		{return showUnknowns;};

	push	ebp
	mov	ebp, esp
	push	ecx
	mov	DWORD PTR _this$[ebp], ecx
	mov	eax, DWORD PTR _this$[ebp]
	mov	eax, DWORD PTR [eax+628]
	mov	esp, ebp
	pop	ebp
	ret	0
?ShowUnknowns@PlayerRwrClass@@QAEHXZ ENDP		; PlayerRwrClass::ShowUnknowns
_TEXT	ENDS
; Function compile flags: /Odtp
; File c:\users\zhitao li\documents\visual studio 2012\projects\freefalcon\sim\include\playerrwr.h
;	COMDAT ?TargetSep@PlayerRwrClass@@QAEHXZ
_TEXT	SEGMENT
_this$ = -4						; size = 4
?TargetSep@PlayerRwrClass@@QAEHXZ PROC			; PlayerRwrClass::TargetSep, COMDAT
; _this$ = ecx

; 40   : 	int TargetSep (void)		{return targetSep;};

	push	ebp
	mov	ebp, esp
	push	ecx
	mov	DWORD PTR _this$[ebp], ecx
	mov	eax, DWORD PTR _this$[ebp]
	mov	eax, DWORD PTR [eax+624]
	mov	esp, ebp
	pop	ebp
	ret	0
?TargetSep@PlayerRwrClass@@QAEHXZ ENDP			; PlayerRwrClass::TargetSep
_TEXT	ENDS
; Function compile flags: /Odtp
; File c:\users\zhitao li\documents\visual studio 2012\projects\freefalcon\sim\include\playerrwr.h
;	COMDAT ?IsPriority@PlayerRwrClass@@QAEHXZ
_TEXT	SEGMENT
_this$ = -4						; size = 4
?IsPriority@PlayerRwrClass@@QAEHXZ PROC			; PlayerRwrClass::IsPriority, COMDAT
; _this$ = ecx

; 39   : 	int IsPriority (void)		{return priorityMode;};

	push	ebp
	mov	ebp, esp
	push	ecx
	mov	DWORD PTR _this$[ebp], ecx
	mov	eax, DWORD PTR _this$[ebp]
	mov	eax, DWORD PTR [eax+620]
	mov	esp, ebp
	pop	ebp
	ret	0
?IsPriority@PlayerRwrClass@@QAEHXZ ENDP			; PlayerRwrClass::IsPriority
_TEXT	ENDS
; Function compile flags: /Odtp
; File c:\users\zhitao li\documents\visual studio 2012\projects\freefalcon\sim\include\laserpod.h
;	COMDAT ?TogglePolarity@LaserPodClass@@QAEXXZ
_TEXT	SEGMENT
tv68 = -8						; size = 4
_this$ = -4						; size = 4
?TogglePolarity@LaserPodClass@@QAEXXZ PROC		; LaserPodClass::TogglePolarity, COMDAT
; _this$ = ecx

; 36   : 	void TogglePolarity(void)	{BHOT = !BHOT;};

	push	ebp
	mov	ebp, esp
	sub	esp, 8
	mov	DWORD PTR _this$[ebp], ecx
	mov	eax, DWORD PTR _this$[ebp]
	movzx	ecx, BYTE PTR [eax+80]
	test	ecx, ecx
	jne	SHORT $LN3@TogglePola
	mov	DWORD PTR tv68[ebp], 1
	jmp	SHORT $LN4@TogglePola
$LN3@TogglePola:
	mov	DWORD PTR tv68[ebp], 0
$LN4@TogglePola:
	mov	edx, DWORD PTR _this$[ebp]
	mov	al, BYTE PTR tv68[ebp]
	mov	BYTE PTR [edx+80], al
	mov	esp, ebp
	pop	ebp
	ret	0
?TogglePolarity@LaserPodClass@@QAEXXZ ENDP		; LaserPodClass::TogglePolarity
_TEXT	ENDS
; Function compile flags: /Odtp
; File c:\users\zhitao li\documents\visual studio 2012\projects\freefalcon\sim\include\mavdisp.h
;	COMDAT ?ToggleFOV@MaverickDisplayClass@@QAEXXZ
_TEXT	SEGMENT
_this$ = -4						; size = 4
?ToggleFOV@MaverickDisplayClass@@QAEXXZ PROC		; MaverickDisplayClass::ToggleFOV, COMDAT
; _this$ = ecx

; 33   :       void ToggleFOV (void) {toggleFOV = TRUE;};

	push	ebp
	mov	ebp, esp
	push	ecx
	mov	DWORD PTR _this$[ebp], ecx
	mov	eax, DWORD PTR _this$[ebp]
	mov	DWORD PTR [eax+48], 1
	mov	esp, ebp
	pop	ebp
	ret	0
?ToggleFOV@MaverickDisplayClass@@QAEXXZ ENDP		; MaverickDisplayClass::ToggleFOV
_TEXT	ENDS
; Function compile flags: /Odtp
; File c:\users\zhitao li\documents\visual studio 2012\projects\freefalcon\ui\include\uicomms.h
;	COMDAT ?Online@UIComms@@QAEHXZ
_TEXT	SEGMENT
_this$ = -4						; size = 4
?Online@UIComms@@QAEHXZ PROC				; UIComms::Online, COMDAT
; _this$ = ecx

; 118  : 		BOOL Online()					{ return(Online_); }

	push	ebp
	mov	ebp, esp
	push	ecx
	mov	DWORD PTR _this$[ebp], ecx
	mov	eax, DWORD PTR _this$[ebp]
	mov	eax, DWORD PTR [eax+64]
	mov	esp, ebp
	pop	ebp
	ret	0
?Online@UIComms@@QAEHXZ ENDP				; UIComms::Online
_TEXT	ENDS
; Function compile flags: /Odtp
; File c:\users\zhitao li\documents\visual studio 2012\projects\freefalcon\sim\include\kneeboard.h
;	COMDAT ?GetPage@KneeBoard@@QAE?AW4Page@1@XZ
_TEXT	SEGMENT
_this$ = -4						; size = 4
?GetPage@KneeBoard@@QAE?AW4Page@1@XZ PROC		; KneeBoard::GetPage, COMDAT
; _this$ = ecx

; 31   : 	Page GetPage( void )	{ return page; };

	push	ebp
	mov	ebp, esp
	push	ecx
	mov	DWORD PTR _this$[ebp], ecx
	mov	eax, DWORD PTR _this$[ebp]
	mov	eax, DWORD PTR [eax+8]
	mov	esp, ebp
	pop	ebp
	ret	0
?GetPage@KneeBoard@@QAE?AW4Page@1@XZ ENDP		; KneeBoard::GetPage
_TEXT	ENDS
; Function compile flags: /Odtp
; File c:\users\zhitao li\documents\visual studio 2012\projects\freefalcon\sim\include\kneeboard.h
;	COMDAT ?SetPage@KneeBoard@@QAEXW4Page@1@@Z
_TEXT	SEGMENT
_this$ = -4						; size = 4
_p$ = 8							; size = 4
?SetPage@KneeBoard@@QAEXW4Page@1@@Z PROC		; KneeBoard::SetPage, COMDAT
; _this$ = ecx

; 30   : 	void SetPage( Page p )	{ page = p; };

	push	ebp
	mov	ebp, esp
	push	ecx
	mov	DWORD PTR _this$[ebp], ecx
	mov	eax, DWORD PTR _this$[ebp]
	mov	ecx, DWORD PTR _p$[ebp]
	mov	DWORD PTR [eax+8], ecx
	mov	esp, ebp
	pop	ebp
	ret	4
?SetPage@KneeBoard@@QAEXW4Page@1@@Z ENDP		; KneeBoard::SetPage
_TEXT	ENDS
; Function compile flags: /Odtp
; File c:\users\zhitao li\documents\visual studio 2012\projects\freefalcon\sim\include\hud.h
;	COMDAT ?ResetMaxG@HudClass@@QAEXXZ
_TEXT	SEGMENT
_this$ = -4						; size = 4
?ResetMaxG@HudClass@@QAEXXZ PROC			; HudClass::ResetMaxG, COMDAT
; _this$ = ecx

; 351  : 	void ResetMaxG(void)	{maxGs = 1;};

	push	ebp
	mov	ebp, esp
	push	ecx
	mov	DWORD PTR _this$[ebp], ecx
	mov	eax, DWORD PTR _this$[ebp]
	movss	xmm0, DWORD PTR __real@3f800000
	movss	DWORD PTR [eax+4832], xmm0
	mov	esp, ebp
	pop	ebp
	ret	0
?ResetMaxG@HudClass@@QAEXXZ ENDP			; HudClass::ResetMaxG
_TEXT	ENDS
; Function compile flags: /Odtp
; File c:\users\zhitao li\documents\visual studio 2012\projects\freefalcon\sim\include\cpmanager.h
;	COMDAT ?AltPanel@CockpitManager@@QAEHXZ
_TEXT	SEGMENT
_this$ = -4						; size = 4
?AltPanel@CockpitManager@@QAEHXZ PROC			; CockpitManager::AltPanel, COMDAT
; _this$ = ecx

; 598  : 	int      AltPanel(void) { return mAltPanel;};		//Wombat778 4-13-04

	push	ebp
	mov	ebp, esp
	push	ecx
	mov	DWORD PTR _this$[ebp], ecx
	mov	eax, DWORD PTR _this$[ebp]
	mov	eax, DWORD PTR [eax+96]
	mov	esp, ebp
	pop	ebp
	ret	0
?AltPanel@CockpitManager@@QAEHXZ ENDP			; CockpitManager::AltPanel
_TEXT	ENDS
; Function compile flags: /Odtp
; File c:\users\zhitao li\documents\visual studio 2012\projects\freefalcon\sim\include\cpmanager.h
;	COMDAT ?GetActivePanel@CockpitManager@@QAEPAVCPPanel@@XZ
_TEXT	SEGMENT
_this$ = -4						; size = 4
?GetActivePanel@CockpitManager@@QAEPAVCPPanel@@XZ PROC	; CockpitManager::GetActivePanel, COMDAT
; _this$ = ecx

; 576  : 	CPPanel*	GetActivePanel()	{return mpActivePanel;}

	push	ebp
	mov	ebp, esp
	push	ecx
	mov	DWORD PTR _this$[ebp], ecx
	mov	eax, DWORD PTR _this$[ebp]
	mov	eax, DWORD PTR [eax+172]
	mov	esp, ebp
	pop	ebp
	ret	0
?GetActivePanel@CockpitManager@@QAEPAVCPPanel@@XZ ENDP	; CockpitManager::GetActivePanel
_TEXT	ENDS
; Function compile flags: /Odtp
; File c:\users\zhitao li\documents\visual studio 2012\projects\freefalcon\sim\include\icp.h
;	COMDAT ?GetICPSecondaryMode@ICPClass@@QAEJXZ
_TEXT	SEGMENT
_this$ = -4						; size = 4
?GetICPSecondaryMode@ICPClass@@QAEJXZ PROC		; ICPClass::GetICPSecondaryMode, COMDAT
; _this$ = ecx

; 568  : 	long GetICPSecondaryMode(void) {return mICPSecondaryMode;};

	push	ebp
	mov	ebp, esp
	push	ecx
	mov	DWORD PTR _this$[ebp], ecx
	mov	eax, DWORD PTR _this$[ebp]
	mov	eax, DWORD PTR [eax+12]
	mov	esp, ebp
	pop	ebp
	ret	0
?GetICPSecondaryMode@ICPClass@@QAEJXZ ENDP		; ICPClass::GetICPSecondaryMode
_TEXT	ENDS
; Function compile flags: /Odtp
; File c:\users\zhitao li\documents\visual studio 2012\projects\freefalcon\sim\include\icp.h
;	COMDAT ?GetICPPrimaryMode@ICPClass@@QAEJXZ
_TEXT	SEGMENT
_this$ = -4						; size = 4
?GetICPPrimaryMode@ICPClass@@QAEJXZ PROC		; ICPClass::GetICPPrimaryMode, COMDAT
; _this$ = ecx

; 567  : 	long GetICPPrimaryMode(void) {return mICPPrimaryMode;};

	push	ebp
	mov	ebp, esp
	push	ecx
	mov	DWORD PTR _this$[ebp], ecx
	mov	eax, DWORD PTR _this$[ebp]
	mov	eax, DWORD PTR [eax+8]
	mov	esp, ebp
	pop	ebp
	ret	0
?GetICPPrimaryMode@ICPClass@@QAEJXZ ENDP		; ICPClass::GetICPPrimaryMode
_TEXT	ENDS
; Function compile flags: /Odtp
; File c:\users\zhitao li\documents\visual studio 2012\projects\freefalcon\sim\include\icp.h
;	COMDAT ?IsICPSet@ICPClass@@QAEHH@Z
_TEXT	SEGMENT
_this$ = -8						; size = 4
tv67 = -4						; size = 4
_testFlag$ = 8						; size = 4
?IsICPSet@ICPClass@@QAEHH@Z PROC			; ICPClass::IsICPSet, COMDAT
; _this$ = ecx

; 499  : 	int IsICPSet (int testFlag) {return ICPModeFlags & testFlag ? 1 : 0;};

	push	ebp
	mov	ebp, esp
	sub	esp, 8
	mov	DWORD PTR _this$[ebp], ecx
	mov	eax, DWORD PTR _this$[ebp]
	mov	ecx, DWORD PTR [eax+1376]
	and	ecx, DWORD PTR _testFlag$[ebp]
	je	SHORT $LN3@IsICPSet
	mov	DWORD PTR tv67[ebp], 1
	jmp	SHORT $LN4@IsICPSet
$LN3@IsICPSet:
	mov	DWORD PTR tv67[ebp], 0
$LN4@IsICPSet:
	mov	eax, DWORD PTR tv67[ebp]
	mov	esp, ebp
	pop	ebp
	ret	4
?IsICPSet@ICPClass@@QAEHH@Z ENDP			; ICPClass::IsICPSet
_TEXT	ENDS
; Function compile flags: /Odtp
; File c:\users\zhitao li\documents\visual studio 2012\projects\freefalcon\sim\include\icp.h
;	COMDAT ?ClearICPFlag@ICPClass@@QAEXH@Z
_TEXT	SEGMENT
_this$ = -4						; size = 4
_newFlag$ = 8						; size = 4
?ClearICPFlag@ICPClass@@QAEXH@Z PROC			; ICPClass::ClearICPFlag, COMDAT
; _this$ = ecx

; 498  : 	void ClearICPFlag (int newFlag) {ICPModeFlags &= ~newFlag;};

	push	ebp
	mov	ebp, esp
	push	ecx
	mov	DWORD PTR _this$[ebp], ecx
	mov	eax, DWORD PTR _newFlag$[ebp]
	not	eax
	mov	ecx, DWORD PTR _this$[ebp]
	and	eax, DWORD PTR [ecx+1376]
	mov	edx, DWORD PTR _this$[ebp]
	mov	DWORD PTR [edx+1376], eax
	mov	esp, ebp
	pop	ebp
	ret	4
?ClearICPFlag@ICPClass@@QAEXH@Z ENDP			; ICPClass::ClearICPFlag
_TEXT	ENDS
; Function compile flags: /Odtp
; File c:\users\zhitao li\documents\visual studio 2012\projects\freefalcon\sim\include\icp.h
;	COMDAT ?SetICPFlag@ICPClass@@QAEXH@Z
_TEXT	SEGMENT
_this$ = -4						; size = 4
_newFlag$ = 8						; size = 4
?SetICPFlag@ICPClass@@QAEXH@Z PROC			; ICPClass::SetICPFlag, COMDAT
; _this$ = ecx

; 497  : 	void SetICPFlag (int newFlag) {ICPModeFlags |= newFlag;};

	push	ebp
	mov	ebp, esp
	push	ecx
	mov	DWORD PTR _this$[ebp], ecx
	mov	eax, DWORD PTR _this$[ebp]
	mov	ecx, DWORD PTR [eax+1376]
	or	ecx, DWORD PTR _newFlag$[ebp]
	mov	edx, DWORD PTR _this$[ebp]
	mov	DWORD PTR [edx+1376], ecx
	mov	esp, ebp
	pop	ebp
	ret	4
?SetICPFlag@ICPClass@@QAEXH@Z ENDP			; ICPClass::SetICPFlag
_TEXT	ENDS
; Function compile flags: /Odtp
; File c:\users\zhitao li\documents\visual studio 2012\projects\freefalcon\sim\include\fack.h
;	COMDAT ?ClearWarnReset@FackClass@@QAEXXZ
_TEXT	SEGMENT
_this$ = -4						; size = 4
?ClearWarnReset@FackClass@@QAEXXZ PROC			; FackClass::ClearWarnReset, COMDAT
; _this$ = ecx

; 45   :     void	ClearWarnReset(void) {NeedsWarnReset = FALSE;};

	push	ebp
	mov	ebp, esp
	push	ecx
	mov	DWORD PTR _this$[ebp], ecx
	mov	eax, DWORD PTR _this$[ebp]
	mov	DWORD PTR [eax+4], 0
	mov	esp, ebp
	pop	ebp
	ret	0
?ClearWarnReset@FackClass@@QAEXXZ ENDP			; FackClass::ClearWarnReset
_TEXT	ENDS
; Function compile flags: /Odtp
; File c:\users\zhitao li\documents\visual studio 2012\projects\freefalcon\sim\include\fack.h
;	COMDAT ?SetManWarnReset@FackClass@@QAEXXZ
_TEXT	SEGMENT
_this$ = -4						; size = 4
?SetManWarnReset@FackClass@@QAEXXZ PROC			; FackClass::SetManWarnReset, COMDAT
; _this$ = ecx

; 43   : 	void	SetManWarnReset(void)	{DidManWarnReset = TRUE;};	//MI

	push	ebp
	mov	ebp, esp
	push	ecx
	mov	DWORD PTR _this$[ebp], ecx
	mov	eax, DWORD PTR _this$[ebp]
	mov	DWORD PTR [eax+8], 1
	mov	esp, ebp
	pop	ebp
	ret	0
?SetManWarnReset@FackClass@@QAEXXZ ENDP			; FackClass::SetManWarnReset
_TEXT	ENDS
; Function compile flags: /Odtp
; File c:\users\zhitao li\documents\visual studio 2012\projects\freefalcon\sim\include\fack.h
;	COMDAT ?ClearMasterCaution@FackClass@@QAEXXZ
_TEXT	SEGMENT
_this$ = -4						; size = 4
?ClearMasterCaution@FackClass@@QAEXXZ PROC		; FackClass::ClearMasterCaution, COMDAT
; _this$ = ecx

; 37   :     void        ClearMasterCaution(void) {mMasterCaution = FALSE;};

	push	ebp
	mov	ebp, esp
	push	ecx
	mov	DWORD PTR _this$[ebp], ecx
	mov	eax, DWORD PTR _this$[ebp]
	mov	DWORD PTR [eax], 0
	mov	esp, ebp
	pop	ebp
	ret	0
?ClearMasterCaution@FackClass@@QAEXXZ ENDP		; FackClass::ClearMasterCaution
_TEXT	ENDS
; Function compile flags: /Odtp
; File c:\users\zhitao li\documents\visual studio 2012\projects\freefalcon\sim\include\fack.h
;	COMDAT ?MasterCaution@FackClass@@QAEHXZ
_TEXT	SEGMENT
_this$ = -4						; size = 4
?MasterCaution@FackClass@@QAEHXZ PROC			; FackClass::MasterCaution, COMDAT
; _this$ = ecx

; 35   :     int		MasterCaution(void) {return mMasterCaution;};

	push	ebp
	mov	ebp, esp
	push	ecx
	mov	DWORD PTR _this$[ebp], ecx
	mov	eax, DWORD PTR _this$[ebp]
	mov	eax, DWORD PTR [eax]
	mov	esp, ebp
	pop	ebp
	ret	0
?MasterCaution@FackClass@@QAEHXZ ENDP			; FackClass::MasterCaution
_TEXT	ENDS
; Function compile flags: /Odtp
; File c:\users\zhitao li\documents\visual studio 2012\projects\freefalcon\sim\include\fack.h
;	COMDAT ?ClearAvioncFault@FackClass@@QAEXXZ
_TEXT	SEGMENT
_this$ = -4						; size = 4
?ClearAvioncFault@FackClass@@QAEXXZ PROC		; FackClass::ClearAvioncFault, COMDAT
; _this$ = ecx

; 30   :     void	ClearAvioncFault (void) {NeedAckAvioncFault = FALSE;};

	push	ebp
	mov	ebp, esp
	push	ecx
	mov	DWORD PTR _this$[ebp], ecx
	mov	eax, DWORD PTR _this$[ebp]
	mov	DWORD PTR [eax+560], 0
	mov	esp, ebp
	pop	ebp
	ret	0
?ClearAvioncFault@FackClass@@QAEXXZ ENDP		; FackClass::ClearAvioncFault
_TEXT	ENDS
; Function compile flags: /Odtp
; File c:\users\zhitao li\documents\visual studio 2012\projects\freefalcon\sim\include\fack.h
;	COMDAT ?ClearFault@FackClass@@QAEXW4type_FSubSystem@FaultClass@@W4type_FFunction@3@@Z
_TEXT	SEGMENT
_this$ = -4						; size = 4
_ss$ = 8						; size = 4
_type$ = 12						; size = 4
?ClearFault@FackClass@@QAEXW4type_FSubSystem@FaultClass@@W4type_FFunction@3@@Z PROC ; FackClass::ClearFault, COMDAT
; _this$ = ecx

; 28   :     void	ClearFault(FaultClass::type_FSubSystem ss, FaultClass::type_FFunction type) { mFaults.ClearFault(ss, type); };

	push	ebp
	mov	ebp, esp
	push	ecx
	mov	DWORD PTR _this$[ebp], ecx
	mov	eax, DWORD PTR _type$[ebp]
	push	eax
	mov	ecx, DWORD PTR _ss$[ebp]
	push	ecx
	mov	ecx, DWORD PTR _this$[ebp]
	add	ecx, 12					; 0000000cH
	call	?ClearFault@FaultClass@@QAEXW4type_FSubSystem@1@W4type_FFunction@1@@Z ; FaultClass::ClearFault
	mov	esp, ebp
	pop	ebp
	ret	8
?ClearFault@FackClass@@QAEXW4type_FSubSystem@FaultClass@@W4type_FFunction@3@@Z ENDP ; FackClass::ClearFault
_TEXT	ENDS
; Function compile flags: /Odtp
; File c:\users\zhitao li\documents\visual studio 2012\projects\freefalcon\sim\include\button.h
;	COMDAT ?GetCurrentState@CPButtonObject@@QBEHXZ
_TEXT	SEGMENT
_this$ = -4						; size = 4
?GetCurrentState@CPButtonObject@@QBEHXZ PROC		; CPButtonObject::GetCurrentState, COMDAT
; _this$ = ecx

; 153  : 	int				GetCurrentState() const { return mCurrentState; }

	push	ebp
	mov	ebp, esp
	push	ecx
	mov	DWORD PTR _this$[ebp], ecx
	mov	eax, DWORD PTR _this$[ebp]
	mov	eax, DWORD PTR [eax+28]
	mov	esp, ebp
	pop	ebp
	ret	0
?GetCurrentState@CPButtonObject@@QBEHXZ ENDP		; CPButtonObject::GetCurrentState
_TEXT	ENDS
; Function compile flags: /Odtp
; File c:\users\zhitao li\documents\visual studio 2012\projects\freefalcon\sim\include\radardoppler.h
;	COMDAT ?twsTrackDirectory@RadarDopplerClass@@QAEPAVTWSTrackList@1@XZ
_TEXT	SEGMENT
_this$ = -4						; size = 4
?twsTrackDirectory@RadarDopplerClass@@QAEPAVTWSTrackList@1@XZ PROC ; RadarDopplerClass::twsTrackDirectory, COMDAT
; _this$ = ecx

; 423  : 	TWSTrackList* twsTrackDirectory() { return TWSTrackDirectory; }

	push	ebp
	mov	ebp, esp
	push	ecx
	mov	DWORD PTR _this$[ebp], ecx
	mov	eax, DWORD PTR _this$[ebp]
	mov	eax, DWORD PTR [eax+532]
	mov	esp, ebp
	pop	ebp
	ret	0
?twsTrackDirectory@RadarDopplerClass@@QAEPAVTWSTrackList@1@XZ ENDP ; RadarDopplerClass::twsTrackDirectory
_TEXT	ENDS
; Function compile flags: /Odtp
; File c:\users\zhitao li\documents\visual studio 2012\projects\freefalcon\sim\include\radardoppler.h
;	COMDAT ?ToggleFlag@RadarDopplerClass@@QAEXH@Z
_TEXT	SEGMENT
_this$ = -4						; size = 4
_flag$ = 8						; size = 4
?ToggleFlag@RadarDopplerClass@@QAEXH@Z PROC		; RadarDopplerClass::ToggleFlag, COMDAT
; _this$ = ecx

; 239  : 	void ToggleFlag (int flag) {flags ^= flag; };

	push	ebp
	mov	ebp, esp
	push	ecx
	mov	DWORD PTR _this$[ebp], ecx
	mov	eax, DWORD PTR _this$[ebp]
	mov	ecx, DWORD PTR [eax+492]
	xor	ecx, DWORD PTR _flag$[ebp]
	mov	edx, DWORD PTR _this$[ebp]
	mov	DWORD PTR [edx+492], ecx
	mov	esp, ebp
	pop	ebp
	ret	4
?ToggleFlag@RadarDopplerClass@@QAEXH@Z ENDP		; RadarDopplerClass::ToggleFlag
_TEXT	ENDS
; Function compile flags: /Odtp
; File c:\users\zhitao li\documents\visual studio 2012\projects\freefalcon\sim\include\radardoppler.h
;	COMDAT ?ClearFlagBit@RadarDopplerClass@@QAEXH@Z
_TEXT	SEGMENT
_this$ = -4						; size = 4
_newFlag$ = 8						; size = 4
?ClearFlagBit@RadarDopplerClass@@QAEXH@Z PROC		; RadarDopplerClass::ClearFlagBit, COMDAT
; _this$ = ecx

; 238  : 	void ClearFlagBit (int newFlag) {flags &= ~newFlag;};

	push	ebp
	mov	ebp, esp
	push	ecx
	mov	DWORD PTR _this$[ebp], ecx
	mov	eax, DWORD PTR _newFlag$[ebp]
	not	eax
	mov	ecx, DWORD PTR _this$[ebp]
	and	eax, DWORD PTR [ecx+492]
	mov	edx, DWORD PTR _this$[ebp]
	mov	DWORD PTR [edx+492], eax
	mov	esp, ebp
	pop	ebp
	ret	4
?ClearFlagBit@RadarDopplerClass@@QAEXH@Z ENDP		; RadarDopplerClass::ClearFlagBit
_TEXT	ENDS
; Function compile flags: /Odtp
; File c:\users\zhitao li\documents\visual studio 2012\projects\freefalcon\sim\include\radardoppler.h
;	COMDAT ?IsSet@RadarDopplerClass@@QAEHH@Z
_TEXT	SEGMENT
_this$ = -8						; size = 4
tv67 = -4						; size = 4
_newFlag$ = 8						; size = 4
?IsSet@RadarDopplerClass@@QAEHH@Z PROC			; RadarDopplerClass::IsSet, COMDAT
; _this$ = ecx

; 236  :    int  IsSet (int newFlag) {return (newFlag & flags) ? TRUE : FALSE;}; //MI moved to public

	push	ebp
	mov	ebp, esp
	sub	esp, 8
	mov	DWORD PTR _this$[ebp], ecx
	mov	eax, DWORD PTR _this$[ebp]
	mov	ecx, DWORD PTR _newFlag$[ebp]
	and	ecx, DWORD PTR [eax+492]
	je	SHORT $LN3@IsSet
	mov	DWORD PTR tv67[ebp], 1
	jmp	SHORT $LN4@IsSet
$LN3@IsSet:
	mov	DWORD PTR tv67[ebp], 0
$LN4@IsSet:
	mov	eax, DWORD PTR tv67[ebp]
	mov	esp, ebp
	pop	ebp
	ret	4
?IsSet@RadarDopplerClass@@QAEHH@Z ENDP			; RadarDopplerClass::IsSet
_TEXT	ENDS
; Function compile flags: /Odtp
; File c:\users\zhitao li\documents\visual studio 2012\projects\freefalcon\sim\include\radar.h
;	COMDAT ?IsEmitting@RadarClass@@QAEHXZ
_TEXT	SEGMENT
_this$ = -4						; size = 4
?IsEmitting@RadarClass@@QAEHXZ PROC			; RadarClass::IsEmitting, COMDAT
; _this$ = ecx

; 93   : 	int IsEmitting (void)						{ return isEmitting; };

	push	ebp
	mov	ebp, esp
	push	ecx
	mov	DWORD PTR _this$[ebp], ecx
	mov	eax, DWORD PTR _this$[ebp]
	mov	eax, DWORD PTR [eax+76]
	mov	esp, ebp
	pop	ebp
	ret	0
?IsEmitting@RadarClass@@QAEHXZ ENDP			; RadarClass::IsEmitting
_TEXT	ENDS
; Function compile flags: /Odtp
; File c:\users\zhitao li\documents\visual studio 2012\projects\freefalcon\sim\include\airframe.h
;	COMDAT ?IsSet@AirframeClass@@QBEHH@Z
_TEXT	SEGMENT
_this$ = -8						; size = 4
tv67 = -4						; size = 4
_testFlag$ = 8						; size = 4
?IsSet@AirframeClass@@QBEHH@Z PROC			; AirframeClass::IsSet, COMDAT
; _this$ = ecx

; 1216 : 	int IsSet (int testFlag) const {return flags & testFlag ? 1 : 0;}

	push	ebp
	mov	ebp, esp
	sub	esp, 8
	mov	DWORD PTR _this$[ebp], ecx
	mov	eax, DWORD PTR _this$[ebp]
	mov	ecx, DWORD PTR [eax+88]
	and	ecx, DWORD PTR _testFlag$[ebp]
	je	SHORT $LN3@IsSet
	mov	DWORD PTR tv67[ebp], 1
	jmp	SHORT $LN4@IsSet
$LN3@IsSet:
	mov	DWORD PTR tv67[ebp], 0
$LN4@IsSet:
	mov	eax, DWORD PTR tv67[ebp]
	mov	esp, ebp
	pop	ebp
	ret	4
?IsSet@AirframeClass@@QBEHH@Z ENDP			; AirframeClass::IsSet
_TEXT	ENDS
; Function compile flags: /Odtp
; File c:\users\zhitao li\documents\visual studio 2012\projects\freefalcon\sim\include\airframe.h
;	COMDAT ?ClearFlag@AirframeClass@@QAEXH@Z
_TEXT	SEGMENT
_this$ = -4						; size = 4
_newFlag$ = 8						; size = 4
?ClearFlag@AirframeClass@@QAEXH@Z PROC			; AirframeClass::ClearFlag, COMDAT
; _this$ = ecx

; 1215 : 	void ClearFlag (int newFlag) {flags &= ~newFlag;};

	push	ebp
	mov	ebp, esp
	push	ecx
	mov	DWORD PTR _this$[ebp], ecx
	mov	eax, DWORD PTR _newFlag$[ebp]
	not	eax
	mov	ecx, DWORD PTR _this$[ebp]
	and	eax, DWORD PTR [ecx+88]
	mov	edx, DWORD PTR _this$[ebp]
	mov	DWORD PTR [edx+88], eax
	mov	esp, ebp
	pop	ebp
	ret	4
?ClearFlag@AirframeClass@@QAEXH@Z ENDP			; AirframeClass::ClearFlag
_TEXT	ENDS
; Function compile flags: /Odtp
; File c:\users\zhitao li\documents\visual studio 2012\projects\freefalcon\sim\include\airframe.h
;	COMDAT ?SetFlag@AirframeClass@@QAEXH@Z
_TEXT	SEGMENT
_this$ = -4						; size = 4
_newFlag$ = 8						; size = 4
?SetFlag@AirframeClass@@QAEXH@Z PROC			; AirframeClass::SetFlag, COMDAT
; _this$ = ecx

; 1214 : 	void SetFlag (int newFlag) {flags |= newFlag;};

	push	ebp
	mov	ebp, esp
	push	ecx
	mov	DWORD PTR _this$[ebp], ecx
	mov	eax, DWORD PTR _this$[ebp]
	mov	ecx, DWORD PTR [eax+88]
	or	ecx, DWORD PTR _newFlag$[ebp]
	mov	edx, DWORD PTR _this$[ebp]
	mov	DWORD PTR [edx+88], ecx
	mov	esp, ebp
	pop	ebp
	ret	4
?SetFlag@AirframeClass@@QAEXH@Z ENDP			; AirframeClass::SetFlag
_TEXT	ENDS
; Function compile flags: /Odtp
; File c:\users\zhitao li\documents\visual studio 2012\projects\freefalcon\sim\include\airframe.h
;	COMDAT ?ExternalFuel@AirframeClass@@QAEMXZ
_TEXT	SEGMENT
_this$ = -4						; size = 4
?ExternalFuel@AirframeClass@@QAEMXZ PROC		; AirframeClass::ExternalFuel, COMDAT
; _this$ = ecx

; 1184 : 	float ExternalFuel (void) {return externalFuel;};

	push	ebp
	mov	ebp, esp
	push	ecx
	mov	DWORD PTR _this$[ebp], ecx
	mov	eax, DWORD PTR _this$[ebp]
	fld	DWORD PTR [eax+32]
	mov	esp, ebp
	pop	ebp
	ret	0
?ExternalFuel@AirframeClass@@QAEMXZ ENDP		; AirframeClass::ExternalFuel
_TEXT	ENDS
; Function compile flags: /Odtp
; File c:\users\zhitao li\documents\visual studio 2012\projects\freefalcon\sim\include\airframe.h
;	COMDAT ?Fuel@AirframeClass@@QAEMXZ
_TEXT	SEGMENT
_this$ = -4						; size = 4
?Fuel@AirframeClass@@QAEMXZ PROC			; AirframeClass::Fuel, COMDAT
; _this$ = ecx

; 1183 : 	float Fuel (void) {return fuel;};

	push	ebp
	mov	ebp, esp
	push	ecx
	mov	DWORD PTR _this$[ebp], ecx
	mov	eax, DWORD PTR _this$[ebp]
	fld	DWORD PTR [eax+20]
	mov	esp, ebp
	pop	ebp
	ret	0
?Fuel@AirframeClass@@QAEMXZ ENDP			; AirframeClass::Fuel
_TEXT	ENDS
; Function compile flags: /Odtp
; File c:\users\zhitao li\documents\visual studio 2012\projects\freefalcon\sim\include\airframe.h
;	COMDAT ?Throtl@AirframeClass@@QAEMXZ
_TEXT	SEGMENT
_this$ = -4						; size = 4
?Throtl@AirframeClass@@QAEMXZ PROC			; AirframeClass::Throtl, COMDAT
; _this$ = ecx

; 1168 : 	float Throtl (void) {return throtl;};

	push	ebp
	mov	ebp, esp
	push	ecx
	mov	DWORD PTR _this$[ebp], ecx
	mov	eax, DWORD PTR _this$[ebp]
	fld	DWORD PTR [eax+1512]
	mov	esp, ebp
	pop	ebp
	ret	0
?Throtl@AirframeClass@@QAEMXZ ENDP			; AirframeClass::Throtl
_TEXT	ENDS
; Function compile flags: /Odtp
; File c:\users\zhitao li\documents\visual studio 2012\projects\freefalcon\sim\include\airframe.h
;	COMDAT ?GeneratorBreak@AirframeClass@@QAEXW4Generator@1@@Z
_TEXT	SEGMENT
_this$ = -4						; size = 4
_gen$ = 8						; size = 4
?GeneratorBreak@AirframeClass@@QAEXW4Generator@1@@Z PROC ; AirframeClass::GeneratorBreak, COMDAT
; _this$ = ecx

; 1134 : 	void GeneratorBreak(Generator gen) { generators |= (gen<<1); GeneratorOff(gen);  };

	push	ebp
	mov	ebp, esp
	push	ecx
	mov	DWORD PTR _this$[ebp], ecx
	mov	eax, DWORD PTR _gen$[ebp]
	shl	eax, 1
	mov	ecx, DWORD PTR _this$[ebp]
	or	eax, DWORD PTR [ecx+1804]
	mov	edx, DWORD PTR _this$[ebp]
	mov	DWORD PTR [edx+1804], eax
	mov	eax, DWORD PTR _gen$[ebp]
	push	eax
	mov	ecx, DWORD PTR _this$[ebp]
	call	?GeneratorOff@AirframeClass@@QAEXW4Generator@1@@Z ; AirframeClass::GeneratorOff
	mov	esp, ebp
	pop	ebp
	ret	4
?GeneratorBreak@AirframeClass@@QAEXW4Generator@1@@Z ENDP ; AirframeClass::GeneratorBreak
_TEXT	ENDS
; Function compile flags: /Odtp
; File c:\users\zhitao li\documents\visual studio 2012\projects\freefalcon\sim\include\airframe.h
;	COMDAT ?GeneratorOff@AirframeClass@@QAEXW4Generator@1@@Z
_TEXT	SEGMENT
_this$ = -4						; size = 4
_gen$ = 8						; size = 4
?GeneratorOff@AirframeClass@@QAEXW4Generator@1@@Z PROC	; AirframeClass::GeneratorOff, COMDAT
; _this$ = ecx

; 1133 : 	void GeneratorOff (Generator gen) { generators &= ~gen; };

	push	ebp
	mov	ebp, esp
	push	ecx
	mov	DWORD PTR _this$[ebp], ecx
	mov	eax, DWORD PTR _gen$[ebp]
	not	eax
	mov	ecx, DWORD PTR _this$[ebp]
	and	eax, DWORD PTR [ecx+1804]
	mov	edx, DWORD PTR _this$[ebp]
	mov	DWORD PTR [edx+1804], eax
	mov	esp, ebp
	pop	ebp
	ret	4
?GeneratorOff@AirframeClass@@QAEXW4Generator@1@@Z ENDP	; AirframeClass::GeneratorOff
_TEXT	ENDS
; Function compile flags: /Odtp
; File c:\users\zhitao li\documents\visual studio 2012\projects\freefalcon\sim\include\airframe.h
;	COMDAT ?GetAirSource@AirframeClass@@QAE?AW4AirSource@1@XZ
_TEXT	SEGMENT
_this$ = -4						; size = 4
?GetAirSource@AirframeClass@@QAE?AW4AirSource@1@XZ PROC	; AirframeClass::GetAirSource, COMDAT
; _this$ = ecx

; 1112 : 	AirSource GetAirSource() { return airSource; };

	push	ebp
	mov	ebp, esp
	push	ecx
	mov	DWORD PTR _this$[ebp], ecx
	mov	eax, DWORD PTR _this$[ebp]
	mov	eax, DWORD PTR [eax+1800]
	mov	esp, ebp
	pop	ebp
	ret	0
?GetAirSource@AirframeClass@@QAE?AW4AirSource@1@XZ ENDP	; AirframeClass::GetAirSource
_TEXT	ENDS
; Function compile flags: /Odtp
; File c:\users\zhitao li\documents\visual studio 2012\projects\freefalcon\sim\include\airframe.h
;	COMDAT ?SetAirSource@AirframeClass@@QAEXW4AirSource@1@@Z
_TEXT	SEGMENT
_this$ = -4						; size = 4
_as$ = 8						; size = 4
?SetAirSource@AirframeClass@@QAEXW4AirSource@1@@Z PROC	; AirframeClass::SetAirSource, COMDAT
; _this$ = ecx

; 1111 : 	void SetAirSource(AirSource as) { airSource = as; };

	push	ebp
	mov	ebp, esp
	push	ecx
	mov	DWORD PTR _this$[ebp], ecx
	mov	eax, DWORD PTR _this$[ebp]
	mov	ecx, DWORD PTR _as$[ebp]
	mov	DWORD PTR [eax+1800], ecx
	mov	esp, ebp
	pop	ebp
	ret	4
?SetAirSource@AirframeClass@@QAEXW4AirSource@1@@Z ENDP	; AirframeClass::SetAirSource
_TEXT	ENDS
; Function compile flags: /Odtp
; File c:\users\zhitao li\documents\visual studio 2012\projects\freefalcon\sim\include\airframe.h
;	COMDAT ?GetFuelPump@AirframeClass@@QAE?AW4FuelPump@1@XZ
_TEXT	SEGMENT
_this$ = -4						; size = 4
?GetFuelPump@AirframeClass@@QAE?AW4FuelPump@1@XZ PROC	; AirframeClass::GetFuelPump, COMDAT
; _this$ = ecx

; 1091 : 	FuelPump GetFuelPump() { return fuelPump; };

	push	ebp
	mov	ebp, esp
	push	ecx
	mov	DWORD PTR _this$[ebp], ecx
	mov	eax, DWORD PTR _this$[ebp]
	mov	eax, DWORD PTR [eax+1684]
	mov	esp, ebp
	pop	ebp
	ret	0
?GetFuelPump@AirframeClass@@QAE?AW4FuelPump@1@XZ ENDP	; AirframeClass::GetFuelPump
_TEXT	ENDS
; Function compile flags: /Odtp
; File c:\users\zhitao li\documents\visual studio 2012\projects\freefalcon\sim\include\airframe.h
;	COMDAT ?SetFuelPump@AirframeClass@@QAEXW4FuelPump@1@@Z
_TEXT	SEGMENT
_this$ = -4						; size = 4
_fp$ = 8						; size = 4
?SetFuelPump@AirframeClass@@QAEXW4FuelPump@1@@Z PROC	; AirframeClass::SetFuelPump, COMDAT
; _this$ = ecx

; 1090 : 	void SetFuelPump(FuelPump fp) { fuelPump = fp; };

	push	ebp
	mov	ebp, esp
	push	ecx
	mov	DWORD PTR _this$[ebp], ecx
	mov	eax, DWORD PTR _this$[ebp]
	mov	ecx, DWORD PTR _fp$[ebp]
	mov	DWORD PTR [eax+1684], ecx
	mov	esp, ebp
	pop	ebp
	ret	4
?SetFuelPump@AirframeClass@@QAEXW4FuelPump@1@@Z ENDP	; AirframeClass::SetFuelPump
_TEXT	ENDS
; Function compile flags: /Odtp
; File c:\users\zhitao li\documents\visual studio 2012\projects\freefalcon\sim\include\airframe.h
;	COMDAT ?GetFuelSwitch@AirframeClass@@QAE?AW4FuelSwitch@1@XZ
_TEXT	SEGMENT
_this$ = -4						; size = 4
?GetFuelSwitch@AirframeClass@@QAE?AW4FuelSwitch@1@XZ PROC ; AirframeClass::GetFuelSwitch, COMDAT
; _this$ = ecx

; 1082 : 	FuelSwitch GetFuelSwitch() { return fuelSwitch; };

	push	ebp
	mov	ebp, esp
	push	ecx
	mov	DWORD PTR _this$[ebp], ecx
	mov	eax, DWORD PTR _this$[ebp]
	mov	eax, DWORD PTR [eax+1680]
	mov	esp, ebp
	pop	ebp
	ret	0
?GetFuelSwitch@AirframeClass@@QAE?AW4FuelSwitch@1@XZ ENDP ; AirframeClass::GetFuelSwitch
_TEXT	ENDS
; Function compile flags: /Odtp
; File c:\users\zhitao li\documents\visual studio 2012\projects\freefalcon\sim\include\airframe.h
;	COMDAT ?SetFuelSwitch@AirframeClass@@QAEXW4FuelSwitch@1@@Z
_TEXT	SEGMENT
_this$ = -4						; size = 4
_fs$ = 8						; size = 4
?SetFuelSwitch@AirframeClass@@QAEXW4FuelSwitch@1@@Z PROC ; AirframeClass::SetFuelSwitch, COMDAT
; _this$ = ecx

; 1081 : 	void SetFuelSwitch(FuelSwitch fs) { fuelSwitch = fs; };

	push	ebp
	mov	ebp, esp
	push	ecx
	mov	DWORD PTR _this$[ebp], ecx
	mov	eax, DWORD PTR _this$[ebp]
	mov	ecx, DWORD PTR _fs$[ebp]
	mov	DWORD PTR [eax+1680], ecx
	mov	esp, ebp
	pop	ebp
	ret	4
?SetFuelSwitch@AirframeClass@@QAEXW4FuelSwitch@1@@Z ENDP ; AirframeClass::SetFuelSwitch
_TEXT	ENDS
; Function compile flags: /Odtp
; File c:\users\zhitao li\documents\visual studio 2012\projects\freefalcon\sim\include\airframe.h
;	COMDAT ?ToggleEngineFlag@AirframeClass@@QAEXW4EngineFlags@1@@Z
_TEXT	SEGMENT
_this$ = -4						; size = 4
_ef$ = 8						; size = 4
?ToggleEngineFlag@AirframeClass@@QAEXW4EngineFlags@1@@Z PROC ; AirframeClass::ToggleEngineFlag, COMDAT
; _this$ = ecx

; 1073 : 	void ToggleEngineFlag(EngineFlags ef) { engineFlags ^= ef; };

	push	ebp
	mov	ebp, esp
	push	ecx
	mov	DWORD PTR _this$[ebp], ecx
	mov	eax, DWORD PTR _this$[ebp]
	mov	ecx, DWORD PTR [eax+1676]
	xor	ecx, DWORD PTR _ef$[ebp]
	mov	edx, DWORD PTR _this$[ebp]
	mov	DWORD PTR [edx+1676], ecx
	mov	esp, ebp
	pop	ebp
	ret	4
?ToggleEngineFlag@AirframeClass@@QAEXW4EngineFlags@1@@Z ENDP ; AirframeClass::ToggleEngineFlag
_TEXT	ENDS
; Function compile flags: /Odtp
; File c:\users\zhitao li\documents\visual studio 2012\projects\freefalcon\sim\include\airframe.h
;	COMDAT ?ClearEngineFlag@AirframeClass@@QAEXW4EngineFlags@1@@Z
_TEXT	SEGMENT
_this$ = -4						; size = 4
_ef$ = 8						; size = 4
?ClearEngineFlag@AirframeClass@@QAEXW4EngineFlags@1@@Z PROC ; AirframeClass::ClearEngineFlag, COMDAT
; _this$ = ecx

; 1072 : 	void ClearEngineFlag(EngineFlags ef) { engineFlags &= ~ ef; };

	push	ebp
	mov	ebp, esp
	push	ecx
	mov	DWORD PTR _this$[ebp], ecx
	mov	eax, DWORD PTR _ef$[ebp]
	not	eax
	mov	ecx, DWORD PTR _this$[ebp]
	and	eax, DWORD PTR [ecx+1676]
	mov	edx, DWORD PTR _this$[ebp]
	mov	DWORD PTR [edx+1676], eax
	mov	esp, ebp
	pop	ebp
	ret	4
?ClearEngineFlag@AirframeClass@@QAEXW4EngineFlags@1@@Z ENDP ; AirframeClass::ClearEngineFlag
_TEXT	ENDS
; Function compile flags: /Odtp
; File c:\users\zhitao li\documents\visual studio 2012\projects\freefalcon\sim\include\airframe.h
;	COMDAT ?SetEngineFlag@AirframeClass@@QAEXW4EngineFlags@1@@Z
_TEXT	SEGMENT
_this$ = -4						; size = 4
_ef$ = 8						; size = 4
?SetEngineFlag@AirframeClass@@QAEXW4EngineFlags@1@@Z PROC ; AirframeClass::SetEngineFlag, COMDAT
; _this$ = ecx

; 1071 : 	void SetEngineFlag(EngineFlags ef) { engineFlags |= ef; };

	push	ebp
	mov	ebp, esp
	push	ecx
	mov	DWORD PTR _this$[ebp], ecx
	mov	eax, DWORD PTR _this$[ebp]
	mov	ecx, DWORD PTR [eax+1676]
	or	ecx, DWORD PTR _ef$[ebp]
	mov	edx, DWORD PTR _this$[ebp]
	mov	DWORD PTR [edx+1676], ecx
	mov	esp, ebp
	pop	ebp
	ret	4
?SetEngineFlag@AirframeClass@@QAEXW4EngineFlags@1@@Z ENDP ; AirframeClass::SetEngineFlag
_TEXT	ENDS
; Function compile flags: /Odtp
; File c:\users\zhitao li\documents\visual studio 2012\projects\freefalcon\sim\include\airframe.h
;	COMDAT ?IsEngineFlag@AirframeClass@@QAEHW4EngineFlags@1@@Z
_TEXT	SEGMENT
_this$ = -8						; size = 4
tv67 = -4						; size = 4
_ef$ = 8						; size = 4
?IsEngineFlag@AirframeClass@@QAEHW4EngineFlags@1@@Z PROC ; AirframeClass::IsEngineFlag, COMDAT
; _this$ = ecx

; 1070 : 	int IsEngineFlag(EngineFlags ef) { return (engineFlags & ef) ? 1 : 0; };

	push	ebp
	mov	ebp, esp
	sub	esp, 8
	mov	DWORD PTR _this$[ebp], ecx
	mov	eax, DWORD PTR _this$[ebp]
	mov	ecx, DWORD PTR [eax+1676]
	and	ecx, DWORD PTR _ef$[ebp]
	je	SHORT $LN3@IsEngineFl
	mov	DWORD PTR tv67[ebp], 1
	jmp	SHORT $LN4@IsEngineFl
$LN3@IsEngineFl:
	mov	DWORD PTR tv67[ebp], 0
$LN4@IsEngineFl:
	mov	eax, DWORD PTR tv67[ebp]
	mov	esp, ebp
	pop	ebp
	ret	4
?IsEngineFlag@AirframeClass@@QAEHW4EngineFlags@1@@Z ENDP ; AirframeClass::IsEngineFlag
_TEXT	ENDS
; Function compile flags: /Odtp
; File c:\users\zhitao li\documents\visual studio 2012\projects\freefalcon\sim\include\airframe.h
;	COMDAT ?HydraulicB@AirframeClass@@QAEHXZ
_TEXT	SEGMENT
_this$ = -4						; size = 4
?HydraulicB@AirframeClass@@QAEHXZ PROC			; AirframeClass::HydraulicB, COMDAT
; _this$ = ecx

; 1040 : 	int HydraulicB() { return (hydrAB & HYDR_B_SYSTEM); };

	push	ebp
	mov	ebp, esp
	push	ecx
	mov	DWORD PTR _this$[ebp], ecx
	mov	eax, DWORD PTR _this$[ebp]
	movzx	eax, BYTE PTR [eax+1601]
	and	eax, 2
	mov	esp, ebp
	pop	ebp
	ret	0
?HydraulicB@AirframeClass@@QAEHXZ ENDP			; AirframeClass::HydraulicB
_TEXT	ENDS
; Function compile flags: /Odtp
; File c:\users\zhitao li\documents\visual studio 2012\projects\freefalcon\sim\include\airframe.h
;	COMDAT ?HydraulicA@AirframeClass@@QAEHXZ
_TEXT	SEGMENT
_this$ = -4						; size = 4
?HydraulicA@AirframeClass@@QAEHXZ PROC			; AirframeClass::HydraulicA, COMDAT
; _this$ = ecx

; 1039 : 	int HydraulicA() { return (hydrAB & HYDR_A_SYSTEM); };

	push	ebp
	mov	ebp, esp
	push	ecx
	mov	DWORD PTR _this$[ebp], ecx
	mov	eax, DWORD PTR _this$[ebp]
	movzx	eax, BYTE PTR [eax+1601]
	and	eax, 1
	mov	esp, ebp
	pop	ebp
	ret	0
?HydraulicA@AirframeClass@@QAEHXZ ENDP			; AirframeClass::HydraulicA
_TEXT	ENDS
; Function compile flags: /Odtp
; File c:\users\zhitao li\documents\visual studio 2012\projects\freefalcon\sim\include\airframe.h
;	COMDAT ?SetEpuSwitch@AirframeClass@@QAEXW4EpuState@1@@Z
_TEXT	SEGMENT
_this$ = -4						; size = 4
_mode$ = 8						; size = 4
?SetEpuSwitch@AirframeClass@@QAEXW4EpuState@1@@Z PROC	; AirframeClass::SetEpuSwitch, COMDAT
; _this$ = ecx

; 1022 : 	void SetEpuSwitch (EpuState mode) { epuState = mode; };

	push	ebp
	mov	ebp, esp
	push	ecx
	mov	DWORD PTR _this$[ebp], ecx
	mov	eax, DWORD PTR _this$[ebp]
	mov	ecx, DWORD PTR _mode$[ebp]
	mov	DWORD PTR [eax+1596], ecx
	mov	esp, ebp
	pop	ebp
	ret	4
?SetEpuSwitch@AirframeClass@@QAEXW4EpuState@1@@Z ENDP	; AirframeClass::SetEpuSwitch
_TEXT	ENDS
; Function compile flags: /Odtp
; File c:\users\zhitao li\documents\visual studio 2012\projects\freefalcon\sim\include\airframe.h
;	COMDAT ?GetEpuSwitch@AirframeClass@@QAE?AW4EpuState@1@XZ
_TEXT	SEGMENT
_this$ = -4						; size = 4
?GetEpuSwitch@AirframeClass@@QAE?AW4EpuState@1@XZ PROC	; AirframeClass::GetEpuSwitch, COMDAT
; _this$ = ecx

; 1021 : 	EpuState GetEpuSwitch () { return epuState; };

	push	ebp
	mov	ebp, esp
	push	ecx
	mov	DWORD PTR _this$[ebp], ecx
	mov	eax, DWORD PTR _this$[ebp]
	mov	eax, DWORD PTR [eax+1596]
	mov	esp, ebp
	pop	ebp
	ret	0
?GetEpuSwitch@AirframeClass@@QAE?AW4EpuState@1@XZ ENDP	; AirframeClass::GetEpuSwitch
_TEXT	ENDS
; Function compile flags: /Odtp
; File c:\users\zhitao li\documents\visual studio 2012\projects\freefalcon\sim\include\airframe.h
;	COMDAT ?HasDragChute@AirframeClass@@QAE_NXZ
_TEXT	SEGMENT
_this$ = -8						; size = 4
tv67 = -4						; size = 4
?HasDragChute@AirframeClass@@QAE_NXZ PROC		; AirframeClass::HasDragChute, COMDAT
; _this$ = ecx

; 1007 : 	bool HasDragChute() { return auxaeroData->dragChuteCd > 0; };

	push	ebp
	mov	ebp, esp
	sub	esp, 8
	mov	DWORD PTR _this$[ebp], ecx
	mov	eax, DWORD PTR _this$[ebp]
	mov	ecx, DWORD PTR [eax+4]
	movss	xmm0, DWORD PTR [ecx+228]
	comiss	xmm0, DWORD PTR __real@00000000
	jbe	SHORT $LN3@HasDragChu
	mov	DWORD PTR tv67[ebp], 1
	jmp	SHORT $LN4@HasDragChu
$LN3@HasDragChu:
	mov	DWORD PTR tv67[ebp], 0
$LN4@HasDragChu:
	mov	al, BYTE PTR tv67[ebp]
	mov	esp, ebp
	pop	ebp
	ret	0
?HasDragChute@AirframeClass@@QAE_NXZ ENDP		; AirframeClass::HasDragChute
_TEXT	ENDS
; Function compile flags: /Odtp
; File c:\users\zhitao li\documents\visual studio 2012\projects\freefalcon\sim\include\airframe.h
;	COMDAT ?GetTypeAC@AirframeClass@@QAEHXZ
_TEXT	SEGMENT
_this$ = -4						; size = 4
?GetTypeAC@AirframeClass@@QAEHXZ PROC			; AirframeClass::GetTypeAC, COMDAT
; _this$ = ecx

; 809  : 	int GetTypeAC() {return auxaeroData->typeAC;};//TJL 02/28/04

	push	ebp
	mov	ebp, esp
	push	ecx
	mov	DWORD PTR _this$[ebp], ecx
	mov	eax, DWORD PTR _this$[ebp]
	mov	ecx, DWORD PTR [eax+4]
	mov	eax, DWORD PTR [ecx+3880]
	mov	esp, ebp
	pop	ebp
	ret	0
?GetTypeAC@AirframeClass@@QAEHXZ ENDP			; AirframeClass::GetTypeAC
_TEXT	ENDS
; Function compile flags: /Odtp
; File c:\users\zhitao li\documents\visual studio 2012\projects\freefalcon\sim\include\airframe.h
;	COMDAT ?GetNumberEngines@AirframeClass@@QAEHXZ
_TEXT	SEGMENT
_this$ = -4						; size = 4
?GetNumberEngines@AirframeClass@@QAEHXZ PROC		; AirframeClass::GetNumberEngines, COMDAT
; _this$ = ecx

; 802  : 	int GetNumberEngines() {return auxaeroData->nEngines;};

	push	ebp
	mov	ebp, esp
	push	ecx
	mov	DWORD PTR _this$[ebp], ecx
	mov	eax, DWORD PTR _this$[ebp]
	mov	ecx, DWORD PTR [eax+4]
	mov	eax, DWORD PTR [ecx+344]
	mov	esp, ebp
	pop	ebp
	ret	0
?GetNumberEngines@AirframeClass@@QAEHXZ ENDP		; AirframeClass::GetNumberEngines
_TEXT	ENDS
; Function compile flags: /Odtp
; File c:\users\zhitao li\documents\visual studio 2012\projects\freefalcon\sim\include\airframe.h
;	COMDAT ?GetDataLinkCapLevel@AirframeClass@@QAEHXZ
_TEXT	SEGMENT
_this$ = -4						; size = 4
?GetDataLinkCapLevel@AirframeClass@@QAEHXZ PROC		; AirframeClass::GetDataLinkCapLevel, COMDAT
; _this$ = ecx

; 748  : 	int GetDataLinkCapLevel() { return auxaeroData->dataLinkCapLevel; }

	push	ebp
	mov	ebp, esp
	push	ecx
	mov	DWORD PTR _this$[ebp], ecx
	mov	eax, DWORD PTR _this$[ebp]
	mov	ecx, DWORD PTR [eax+4]
	mov	eax, DWORD PTR [ecx+2628]
	mov	esp, ebp
	pop	ebp
	ret	0
?GetDataLinkCapLevel@AirframeClass@@QAEHXZ ENDP		; AirframeClass::GetDataLinkCapLevel
_TEXT	ENDS
; Function compile flags: /Odtp
; File c:\users\zhitao li\documents\visual studio 2012\projects\freefalcon\sim\include\smsdraw.h
;	COMDAT ?DisplayMode@SmsDrawable@@QAE?AW4SmsDisplayMode@1@XZ
_TEXT	SEGMENT
_this$ = -4						; size = 4
?DisplayMode@SmsDrawable@@QAE?AW4SmsDisplayMode@1@XZ PROC ; SmsDrawable::DisplayMode, COMDAT
; _this$ = ecx

; 26   : 	SmsDisplayMode DisplayMode(void) {return displayMode;}

	push	ebp
	mov	ebp, esp
	push	ecx
	mov	DWORD PTR _this$[ebp], ecx
	mov	eax, DWORD PTR _this$[ebp]
	mov	eax, DWORD PTR [eax+304]
	mov	esp, ebp
	pop	ebp
	ret	0
?DisplayMode@SmsDrawable@@QAE?AW4SmsDisplayMode@1@XZ ENDP ; SmsDrawable::DisplayMode
_TEXT	ENDS
; Function compile flags: /Odtp
; File c:\users\zhitao li\documents\visual studio 2012\projects\freefalcon\sim\include\sms.h
;	COMDAT ?SetAGBPair@SMSClass@@QAEX_N@Z
_TEXT	SEGMENT
_this$ = -4						; size = 4
_x$ = 8							; size = 1
?SetAGBPair@SMSClass@@QAEX_N@Z PROC			; SMSClass::SetAGBPair, COMDAT
; _this$ = ecx

; 325  : 	void SetAGBPair(bool x)           { agbProfile[curProfile].releasePair    = x; }

	push	ebp
	mov	ebp, esp
	push	ecx
	mov	DWORD PTR _this$[ebp], ecx
	mov	eax, DWORD PTR _this$[ebp]
	mov	ecx, DWORD PTR [eax+196]
	imul	ecx, 40					; 00000028H
	mov	edx, DWORD PTR _this$[ebp]
	mov	al, BYTE PTR _x$[ebp]
	mov	BYTE PTR [edx+ecx+232], al
	mov	esp, ebp
	pop	ebp
	ret	4
?SetAGBPair@SMSClass@@QAEX_N@Z ENDP			; SMSClass::SetAGBPair
_TEXT	ENDS
; Function compile flags: /Odtp
; File c:\users\zhitao li\documents\visual studio 2012\projects\freefalcon\sim\include\sms.h
;	COMDAT ?SetCoolState@SMSClass@@QAEXW4Aim9Mode@1@@Z
_TEXT	SEGMENT
_this$ = -4						; size = 4
_state$ = 8						; size = 4
?SetCoolState@SMSClass@@QAEXW4Aim9Mode@1@@Z PROC	; SMSClass::SetCoolState, COMDAT
; _this$ = ecx

; 271  : 	void SetCoolState (Aim9Mode state) { aim9mode = state; };

	push	ebp
	mov	ebp, esp
	push	ecx
	mov	DWORD PTR _this$[ebp], ecx
	mov	eax, DWORD PTR _this$[ebp]
	mov	ecx, DWORD PTR _state$[ebp]
	mov	DWORD PTR [eax+180], ecx
	mov	esp, ebp
	pop	ebp
	ret	4
?SetCoolState@SMSClass@@QAEXW4Aim9Mode@1@@Z ENDP	; SMSClass::SetCoolState
_TEXT	ENDS
; Function compile flags: /Odtp
; File c:\users\zhitao li\documents\visual studio 2012\projects\freefalcon\sim\include\sms.h
;	COMDAT ?GetCoolState@SMSClass@@QAE?AW4Aim9Mode@1@XZ
_TEXT	SEGMENT
_this$ = -4						; size = 4
?GetCoolState@SMSClass@@QAE?AW4Aim9Mode@1@XZ PROC	; SMSClass::GetCoolState, COMDAT
; _this$ = ecx

; 270  : 	Aim9Mode GetCoolState() { return aim9mode; };

	push	ebp
	mov	ebp, esp
	push	ecx
	mov	DWORD PTR _this$[ebp], ecx
	mov	eax, DWORD PTR _this$[ebp]
	mov	eax, DWORD PTR [eax+180]
	mov	esp, ebp
	pop	ebp
	ret	0
?GetCoolState@SMSClass@@QAE?AW4Aim9Mode@1@XZ ENDP	; SMSClass::GetCoolState
_TEXT	ENDS
; Function compile flags: /Odtp
; File c:\users\zhitao li\documents\visual studio 2012\projects\freefalcon\sim\include\sms.h
;	COMDAT ?SetMasterArm@SMSBaseClass@@QAEXW4MasterArmState@1@@Z
_TEXT	SEGMENT
_this$ = -4						; size = 4
_newState$ = 8						; size = 4
?SetMasterArm@SMSBaseClass@@QAEXW4MasterArmState@1@@Z PROC ; SMSBaseClass::SetMasterArm, COMDAT
; _this$ = ecx

; 93   : 	void SetMasterArm (MasterArmState newState) {masterArm = newState;};

	push	ebp
	mov	ebp, esp
	push	ecx
	mov	DWORD PTR _this$[ebp], ecx
	mov	eax, DWORD PTR _this$[ebp]
	mov	ecx, DWORD PTR _newState$[ebp]
	mov	DWORD PTR [eax+8], ecx
	mov	esp, ebp
	pop	ebp
	ret	4
?SetMasterArm@SMSBaseClass@@QAEXW4MasterArmState@1@@Z ENDP ; SMSBaseClass::SetMasterArm
_TEXT	ENDS
; Function compile flags: /Odtp
; File c:\users\zhitao li\documents\visual studio 2012\projects\freefalcon\sim\include\sms.h
;	COMDAT ?MasterArm@SMSBaseClass@@QAE?AW4MasterArmState@1@XZ
_TEXT	SEGMENT
_this$ = -4						; size = 4
?MasterArm@SMSBaseClass@@QAE?AW4MasterArmState@1@XZ PROC ; SMSBaseClass::MasterArm, COMDAT
; _this$ = ecx

; 92   : 	MasterArmState MasterArm(void) {return masterArm;};

	push	ebp
	mov	ebp, esp
	push	ecx
	mov	DWORD PTR _this$[ebp], ecx
	mov	eax, DWORD PTR _this$[ebp]
	mov	eax, DWORD PTR [eax+8]
	mov	esp, ebp
	pop	ebp
	ret	0
?MasterArm@SMSBaseClass@@QAE?AW4MasterArmState@1@XZ ENDP ; SMSBaseClass::MasterArm
_TEXT	ENDS
; Function compile flags: /Odtp
; File c:\users\zhitao li\documents\visual studio 2012\projects\freefalcon\sim\include\fcc.h
;	COMDAT ?SetLastDesignate@FireControlComputer@@QAEXXZ
_TEXT	SEGMENT
_this$ = -4						; size = 4
?SetLastDesignate@FireControlComputer@@QAEXXZ PROC	; FireControlComputer::SetLastDesignate, COMDAT
; _this$ = ecx

; 326  : 	void SetLastDesignate(void)	{lastDesignate = TRUE;};

	push	ebp
	mov	ebp, esp
	push	ecx
	mov	DWORD PTR _this$[ebp], ecx
	mov	eax, DWORD PTR _this$[ebp]
	mov	DWORD PTR [eax+96], 1
	mov	esp, ebp
	pop	ebp
	ret	0
?SetLastDesignate@FireControlComputer@@QAEXXZ ENDP	; FireControlComputer::SetLastDesignate
_TEXT	ENDS
; Function compile flags: /Odtp
; File c:\users\zhitao li\documents\visual studio 2012\projects\freefalcon\sim\include\fcc.h
;	COMDAT ?GetSubMode@FireControlComputer@@QAE?AW4FCCSubMode@1@XZ
_TEXT	SEGMENT
_this$ = -4						; size = 4
?GetSubMode@FireControlComputer@@QAE?AW4FCCSubMode@1@XZ PROC ; FireControlComputer::GetSubMode, COMDAT
; _this$ = ecx

; 281  : 	FCCSubMode GetSubMode (void) {return (subMode);};

	push	ebp
	mov	ebp, esp
	push	ecx
	mov	DWORD PTR _this$[ebp], ecx
	mov	eax, DWORD PTR _this$[ebp]
	mov	eax, DWORD PTR [eax+148]
	mov	esp, ebp
	pop	ebp
	ret	0
?GetSubMode@FireControlComputer@@QAE?AW4FCCSubMode@1@XZ ENDP ; FireControlComputer::GetSubMode
_TEXT	ENDS
; Function compile flags: /Odtp
; File c:\users\zhitao li\documents\visual studio 2012\projects\freefalcon\sim\include\fcc.h
;	COMDAT ?IsNavMasterMode@FireControlComputer@@QAEHXZ
_TEXT	SEGMENT
_this$ = -8						; size = 4
tv67 = -4						; size = 4
?IsNavMasterMode@FireControlComputer@@QAEHXZ PROC	; FireControlComputer::IsNavMasterMode, COMDAT
; _this$ = ecx

; 280  : 	int IsNavMasterMode() { return GetMainMasterMode() == MM_NAV; };

	push	ebp
	mov	ebp, esp
	sub	esp, 8
	mov	DWORD PTR _this$[ebp], ecx
	mov	ecx, DWORD PTR _this$[ebp]
	call	?GetMainMasterMode@FireControlComputer@@QAE?AW4MASTERMODES@@XZ ; FireControlComputer::GetMainMasterMode
	cmp	eax, 2
	jne	SHORT $LN3@IsNavMaste
	mov	DWORD PTR tv67[ebp], 1
	jmp	SHORT $LN4@IsNavMaste
$LN3@IsNavMaste:
	mov	DWORD PTR tv67[ebp], 0
$LN4@IsNavMaste:
	mov	eax, DWORD PTR tv67[ebp]
	mov	esp, ebp
	pop	ebp
	ret	0
?IsNavMasterMode@FireControlComputer@@QAEHXZ ENDP	; FireControlComputer::IsNavMasterMode
_TEXT	ENDS
; Function compile flags: /Odtp
; File c:\users\zhitao li\documents\visual studio 2012\projects\freefalcon\sim\include\fcc.h
;	COMDAT ?GetMasterMode@FireControlComputer@@QAE?AW4FCCMasterMode@1@XZ
_TEXT	SEGMENT
_this$ = -4						; size = 4
?GetMasterMode@FireControlComputer@@QAE?AW4FCCMasterMode@1@XZ PROC ; FireControlComputer::GetMasterMode, COMDAT
; _this$ = ecx

; 276  : 	FCCMasterMode GetMasterMode (void) {return (masterMode);};

	push	ebp
	mov	ebp, esp
	push	ecx
	mov	DWORD PTR _this$[ebp], ecx
	mov	eax, DWORD PTR _this$[ebp]
	mov	eax, DWORD PTR [eax+144]
	mov	esp, ebp
	pop	ebp
	ret	0
?GetMasterMode@FireControlComputer@@QAE?AW4FCCMasterMode@1@XZ ENDP ; FireControlComputer::GetMasterMode
_TEXT	ENDS
; Function compile flags: /Odtp
; File c:\users\zhitao li\documents\visual studio 2012\projects\freefalcon\sim\include\fcc.h
;	COMDAT ?GetLastNavMasterMode@FireControlComputer@@QAE?AW4FCCMasterMode@1@XZ
_TEXT	SEGMENT
_this$ = -4						; size = 4
?GetLastNavMasterMode@FireControlComputer@@QAE?AW4FCCMasterMode@1@XZ PROC ; FireControlComputer::GetLastNavMasterMode, COMDAT
; _this$ = ecx

; 114  : 	FCCMasterMode GetLastNavMasterMode() { return lastNavMasterMode; };

	push	ebp
	mov	ebp, esp
	push	ecx
	mov	DWORD PTR _this$[ebp], ecx
	mov	eax, DWORD PTR _this$[ebp]
	mov	eax, DWORD PTR [eax+76]
	mov	esp, ebp
	pop	ebp
	ret	0
?GetLastNavMasterMode@FireControlComputer@@QAE?AW4FCCMasterMode@1@XZ ENDP ; FireControlComputer::GetLastNavMasterMode
_TEXT	ENDS
; Function compile flags: /Odtp
; File c:\users\zhitao li\documents\visual studio 2012\projects\freefalcon\sim\include\sensclas.h
;	COMDAT ?CurrentTarget@SensorClass@@QAEPAVSimObjectType@@XZ
_TEXT	SEGMENT
_this$ = -4						; size = 4
?CurrentTarget@SensorClass@@QAEPAVSimObjectType@@XZ PROC ; SensorClass::CurrentTarget, COMDAT
; _this$ = ecx

; 46   : 	SimObjectType* CurrentTarget(void)	{ return lockedTarget; };

	push	ebp
	mov	ebp, esp
	push	ecx
	mov	DWORD PTR _this$[ebp], ecx
	mov	eax, DWORD PTR _this$[ebp]
	mov	eax, DWORD PTR [eax+48]
	mov	esp, ebp
	pop	ebp
	ret	0
?CurrentTarget@SensorClass@@QAEPAVSimObjectType@@XZ ENDP ; SensorClass::CurrentTarget
_TEXT	ENDS
; Function compile flags: /Odtp
; File c:\users\zhitao li\documents\visual studio 2012\projects\freefalcon\sim\include\mfd.h
;	COMDAT ?GetCurMode@MFDClass@@QAE?AW4MfdMode@1@XZ
_TEXT	SEGMENT
_this$ = -4						; size = 4
?GetCurMode@MFDClass@@QAE?AW4MfdMode@1@XZ PROC		; MFDClass::GetCurMode, COMDAT
; _this$ = ecx

; 114  : 	MfdMode GetCurMode(void)	{return mode;};

	push	ebp
	mov	ebp, esp
	push	ecx
	mov	DWORD PTR _this$[ebp], ecx
	mov	eax, DWORD PTR _this$[ebp]
	mov	eax, DWORD PTR [eax+8]
	mov	esp, ebp
	pop	ebp
	ret	0
?GetCurMode@MFDClass@@QAE?AW4MfdMode@1@XZ ENDP		; MFDClass::GetCurMode
_TEXT	ENDS
; Function compile flags: /Odtp
; File c:\users\zhitao li\documents\visual studio 2012\projects\freefalcon\sim\include\mfd.h
;	COMDAT ?CurMode@MFDClass@@QAE?AW4MfdMode@1@XZ
_TEXT	SEGMENT
tv68 = -8						; size = 4
_this$ = -4						; size = 4
?CurMode@MFDClass@@QAE?AW4MfdMode@1@XZ PROC		; MFDClass::CurMode, COMDAT
; _this$ = ecx

; 71   : 	MfdMode CurMode() { return mode == MfdMenu ? restoreMode : mode; };

	push	ebp
	mov	ebp, esp
	sub	esp, 8
	mov	DWORD PTR _this$[ebp], ecx
	mov	eax, DWORD PTR _this$[ebp]
	cmp	DWORD PTR [eax+8], 1
	jne	SHORT $LN3@CurMode
	mov	ecx, DWORD PTR _this$[ebp]
	mov	edx, DWORD PTR [ecx+16]
	mov	DWORD PTR tv68[ebp], edx
	jmp	SHORT $LN4@CurMode
$LN3@CurMode:
	mov	eax, DWORD PTR _this$[ebp]
	mov	ecx, DWORD PTR [eax+8]
	mov	DWORD PTR tv68[ebp], ecx
$LN4@CurMode:
	mov	eax, DWORD PTR tv68[ebp]
	mov	esp, ebp
	pop	ebp
	ret	0
?CurMode@MFDClass@@QAE?AW4MfdMode@1@XZ ENDP		; MFDClass::CurMode
_TEXT	ENDS
; Function compile flags: /Odtp
; File c:\users\zhitao li\documents\visual studio 2012\projects\freefalcon\sim\include\drawable.h
;	COMDAT ?IsSOI@DrawableClass@@QAEHXZ
_TEXT	SEGMENT
_this$ = -8						; size = 4
tv67 = -4						; size = 4
?IsSOI@DrawableClass@@QAEHXZ PROC			; DrawableClass::IsSOI, COMDAT
; _this$ = ecx

; 141  :       int IsSOI (void) {return (drawFlags & SOI ? TRUE : FALSE);};

	push	ebp
	mov	ebp, esp
	sub	esp, 8
	mov	DWORD PTR _this$[ebp], ecx
	mov	eax, DWORD PTR _this$[ebp]
	mov	ecx, DWORD PTR [eax+8]
	and	ecx, 1
	je	SHORT $LN3@IsSOI
	mov	DWORD PTR tv67[ebp], 1
	jmp	SHORT $LN4@IsSOI
$LN3@IsSOI:
	mov	DWORD PTR tv67[ebp], 0
$LN4@IsSOI:
	mov	eax, DWORD PTR tv67[ebp]
	mov	esp, ebp
	pop	ebp
	ret	0
?IsSOI@DrawableClass@@QAEHXZ ENDP			; DrawableClass::IsSOI
_TEXT	ENDS
; Function compile flags: /Odtp
; File c:\users\zhitao li\documents\visual studio 2012\projects\freefalcon\sim\include\otwdrive.h
;	COMDAT ?IsHeadTracking@OTWDriverClass@@QAEHXZ
_TEXT	SEGMENT
_this$ = -4						; size = 4
?IsHeadTracking@OTWDriverClass@@QAEHXZ PROC		; OTWDriverClass::IsHeadTracking, COMDAT
; _this$ = ecx

; 885  :     int IsHeadTracking (void) {return mUseHeadTracking;}

	push	ebp
	mov	ebp, esp
	push	ecx
	mov	DWORD PTR _this$[ebp], ecx
	mov	eax, DWORD PTR _this$[ebp]
	mov	eax, DWORD PTR [eax+34016]
	mov	esp, ebp
	pop	ebp
	ret	0
?IsHeadTracking@OTWDriverClass@@QAEHXZ ENDP		; OTWDriverClass::IsHeadTracking
_TEXT	ENDS
; Function compile flags: /Odtp
; File c:\users\zhitao li\documents\visual studio 2012\projects\freefalcon\sim\include\otwdrive.h
;	COMDAT ?SetHeadTracking@OTWDriverClass@@QAEXH@Z
_TEXT	SEGMENT
_this$ = -4						; size = 4
_flag$ = 8						; size = 4
?SetHeadTracking@OTWDriverClass@@QAEXH@Z PROC		; OTWDriverClass::SetHeadTracking, COMDAT
; _this$ = ecx

; 884  :     void SetHeadTracking (int flag) {mUseHeadTracking = flag;}

	push	ebp
	mov	ebp, esp
	push	ecx
	mov	DWORD PTR _this$[ebp], ecx
	mov	eax, DWORD PTR _this$[ebp]
	mov	ecx, DWORD PTR _flag$[ebp]
	mov	DWORD PTR [eax+34016], ecx
	mov	esp, ebp
	pop	ebp
	ret	4
?SetHeadTracking@OTWDriverClass@@QAEXH@Z ENDP		; OTWDriverClass::SetHeadTracking
_TEXT	ENDS
; Function compile flags: /Odtp
; File c:\users\zhitao li\documents\visual studio 2012\projects\freefalcon\sim\include\otwdrive.h
;	COMDAT ?GetVirtualCockpit@OTWDriverClass@@QAEPAVDrawableBSP@@XZ
_TEXT	SEGMENT
_this$ = -4						; size = 4
?GetVirtualCockpit@OTWDriverClass@@QAEPAVDrawableBSP@@XZ PROC ; OTWDriverClass::GetVirtualCockpit, COMDAT
; _this$ = ecx

; 882  : 	DrawableBSP *GetVirtualCockpit(){ return vrCockpit; }

	push	ebp
	mov	ebp, esp
	push	ecx
	mov	DWORD PTR _this$[ebp], ecx
	mov	eax, DWORD PTR _this$[ebp]
	mov	eax, DWORD PTR [eax+33996]
	mov	esp, ebp
	pop	ebp
	ret	0
?GetVirtualCockpit@OTWDriverClass@@QAEPAVDrawableBSP@@XZ ENDP ; OTWDriverClass::GetVirtualCockpit
_TEXT	ENDS
; Function compile flags: /Odtp
; File c:\users\zhitao li\documents\visual studio 2012\projects\freefalcon\sim\include\otwdrive.h
;	COMDAT ?SetCameraPanTilt@OTWDriverClass@@QAEXMM@Z
_TEXT	SEGMENT
_this$ = -4						; size = 4
_pan$ = 8						; size = 4
_tilt$ = 12						; size = 4
?SetCameraPanTilt@OTWDriverClass@@QAEXMM@Z PROC		; OTWDriverClass::SetCameraPanTilt, COMDAT
; _this$ = ecx

; 427  : 	  void SetCameraPanTilt(float pan, float tilt) {eyePan = pan, eyeTilt = tilt;};	

	push	ebp
	mov	ebp, esp
	push	ecx
	mov	DWORD PTR _this$[ebp], ecx
	mov	eax, DWORD PTR _this$[ebp]
	movss	xmm0, DWORD PTR _pan$[ebp]
	movss	DWORD PTR [eax+32272], xmm0
	mov	ecx, DWORD PTR _this$[ebp]
	movss	xmm0, DWORD PTR _tilt$[ebp]
	movss	DWORD PTR [ecx+32276], xmm0
	mov	esp, ebp
	pop	ebp
	ret	8
?SetCameraPanTilt@OTWDriverClass@@QAEXMM@Z ENDP		; OTWDriverClass::SetCameraPanTilt
_TEXT	ENDS
; Function compile flags: /Odtp
; File c:\users\zhitao li\documents\visual studio 2012\projects\freefalcon\sim\include\otwdrive.h
;	COMDAT ?GetFrontTextFlags@OTWDriverClass@@QAEJXZ
_TEXT	SEGMENT
_this$ = -4						; size = 4
?GetFrontTextFlags@OTWDriverClass@@QAEJXZ PROC		; OTWDriverClass::GetFrontTextFlags, COMDAT
; _this$ = ecx

; 371  : 	  long GetFrontTextFlags() { return(showFrontText); }

	push	ebp
	mov	ebp, esp
	push	ecx
	mov	DWORD PTR _this$[ebp], ecx
	mov	eax, DWORD PTR _this$[ebp]
	mov	eax, DWORD PTR [eax+32352]
	mov	esp, ebp
	pop	ebp
	ret	0
?GetFrontTextFlags@OTWDriverClass@@QAEJXZ ENDP		; OTWDriverClass::GetFrontTextFlags
_TEXT	ENDS
; Function compile flags: /Odtp
; File c:\users\zhitao li\documents\visual studio 2012\projects\freefalcon\sim\include\otwdrive.h
;	COMDAT ?SetFrontTextFlags@OTWDriverClass@@QAEXJ@Z
_TEXT	SEGMENT
_this$ = -4						; size = 4
_flags$ = 8						; size = 4
?SetFrontTextFlags@OTWDriverClass@@QAEXJ@Z PROC		; OTWDriverClass::SetFrontTextFlags, COMDAT
; _this$ = ecx

; 370  :       void SetFrontTextFlags(long flags) { showFrontText=flags; }

	push	ebp
	mov	ebp, esp
	push	ecx
	mov	DWORD PTR _this$[ebp], ecx
	mov	eax, DWORD PTR _this$[ebp]
	mov	ecx, DWORD PTR _flags$[ebp]
	mov	DWORD PTR [eax+32352], ecx
	mov	esp, ebp
	pop	ebp
	ret	4
?SetFrontTextFlags@OTWDriverClass@@QAEXJ@Z ENDP		; OTWDriverClass::SetFrontTextFlags
_TEXT	ENDS
; Function compile flags: /Odtp
; File c:\users\zhitao li\documents\visual studio 2012\projects\freefalcon\sim\include\otwdrive.h
;	COMDAT ?SetScale@OTWDriverClass@@QAEXM@Z
_TEXT	SEGMENT
_this$ = -4						; size = 4
_newScale$ = 8						; size = 4
?SetScale@OTWDriverClass@@QAEXM@Z PROC			; OTWDriverClass::SetScale, COMDAT
; _this$ = ecx

; 340  :       void SetScale (float newScale) {objectScale = newScale;};

	push	ebp
	mov	ebp, esp
	push	ecx
	mov	DWORD PTR _this$[ebp], ecx
	mov	eax, DWORD PTR _this$[ebp]
	movss	xmm0, DWORD PTR _newScale$[ebp]
	movss	DWORD PTR [eax+32124], xmm0
	mov	esp, ebp
	pop	ebp
	ret	4
?SetScale@OTWDriverClass@@QAEXM@Z ENDP			; OTWDriverClass::SetScale
_TEXT	ENDS
; Function compile flags: /Odtp
; File c:\users\zhitao li\documents\visual studio 2012\projects\freefalcon\falclib\include\playerop.h
;	COMDAT ?ClearSimFlag@PlayerOptionsClass@@QAEXH@Z
_TEXT	SEGMENT
_this$ = -4						; size = 4
_flag$ = 8						; size = 4
?ClearSimFlag@PlayerOptionsClass@@QAEXH@Z PROC		; PlayerOptionsClass::ClearSimFlag, COMDAT
; _this$ = ecx

; 188  : 	void ClearSimFlag (int flag)							{SimFlags &= ~flag;};

	push	ebp
	mov	ebp, esp
	push	ecx
	mov	DWORD PTR _this$[ebp], ecx
	mov	eax, DWORD PTR _flag$[ebp]
	not	eax
	mov	ecx, DWORD PTR _this$[ebp]
	and	eax, DWORD PTR [ecx+52]
	mov	edx, DWORD PTR _this$[ebp]
	mov	DWORD PTR [edx+52], eax
	mov	esp, ebp
	pop	ebp
	ret	4
?ClearSimFlag@PlayerOptionsClass@@QAEXH@Z ENDP		; PlayerOptionsClass::ClearSimFlag
_TEXT	ENDS
; Function compile flags: /Odtp
; File c:\users\zhitao li\documents\visual studio 2012\projects\freefalcon\falclib\include\playerop.h
;	COMDAT ?SetSimFlag@PlayerOptionsClass@@QAEXH@Z
_TEXT	SEGMENT
_this$ = -4						; size = 4
_flag$ = 8						; size = 4
?SetSimFlag@PlayerOptionsClass@@QAEXH@Z PROC		; PlayerOptionsClass::SetSimFlag, COMDAT
; _this$ = ecx

; 187  : 	void SetSimFlag (int flag)								{SimFlags |= flag;};

	push	ebp
	mov	ebp, esp
	push	ecx
	mov	DWORD PTR _this$[ebp], ecx
	mov	eax, DWORD PTR _this$[ebp]
	mov	ecx, DWORD PTR [eax+52]
	or	ecx, DWORD PTR _flag$[ebp]
	mov	edx, DWORD PTR _this$[ebp]
	mov	DWORD PTR [edx+52], ecx
	mov	esp, ebp
	pop	ebp
	ret	4
?SetSimFlag@PlayerOptionsClass@@QAEXH@Z ENDP		; PlayerOptionsClass::SetSimFlag
_TEXT	ENDS
; Function compile flags: /Odtp
; File c:\users\zhitao li\documents\visual studio 2012\projects\freefalcon\falclib\include\playerop.h
;	COMDAT ?Get3dTrackIR@PlayerOptionsClass@@QBE_NXZ
_TEXT	SEGMENT
_this$ = -4						; size = 4
?Get3dTrackIR@PlayerOptionsClass@@QBE_NXZ PROC		; PlayerOptionsClass::Get3dTrackIR, COMDAT
; _this$ = ecx

; 180  : 	bool Get3dTrackIR(void) const                           { return TrackIR_3d; }			// Retro 27Dec2003

	push	ebp
	mov	ebp, esp
	push	ecx
	mov	DWORD PTR _this$[ebp], ecx
	mov	eax, DWORD PTR _this$[ebp]
	mov	al, BYTE PTR [eax+206]
	mov	esp, ebp
	pop	ebp
	ret	0
?Get3dTrackIR@PlayerOptionsClass@@QBE_NXZ ENDP		; PlayerOptionsClass::Get3dTrackIR
_TEXT	ENDS
; Function compile flags: /Odtp
; File c:\users\zhitao li\documents\visual studio 2012\projects\freefalcon\falclib\include\playerop.h
;	COMDAT ?InvulnerableOn@PlayerOptionsClass@@QAEHXZ
_TEXT	SEGMENT
_this$ = -8						; size = 4
tv68 = -4						; size = 4
?InvulnerableOn@PlayerOptionsClass@@QAEHXZ PROC		; PlayerOptionsClass::InvulnerableOn, COMDAT
; _this$ = ecx

; 158  : 	int	InvulnerableOn(void)								{ return (SimFlags & SIM_INVULNERABLE) && TRUE; }

	push	ebp
	mov	ebp, esp
	sub	esp, 8
	mov	DWORD PTR _this$[ebp], ecx
	mov	eax, DWORD PTR _this$[ebp]
	mov	ecx, DWORD PTR [eax+52]
	and	ecx, 512				; 00000200H
	je	SHORT $LN3@Invulnerab
	mov	edx, 1
	test	edx, edx
	je	SHORT $LN3@Invulnerab
	mov	DWORD PTR tv68[ebp], 1
	jmp	SHORT $LN4@Invulnerab
$LN3@Invulnerab:
	mov	DWORD PTR tv68[ebp], 0
$LN4@Invulnerab:
	mov	eax, DWORD PTR tv68[ebp]
	mov	esp, ebp
	pop	ebp
	ret	0
?InvulnerableOn@PlayerOptionsClass@@QAEHXZ ENDP		; PlayerOptionsClass::InvulnerableOn
_TEXT	ENDS
; Function compile flags: /Odtp
; File c:\users\zhitao li\documents\visual studio 2012\projects\freefalcon\falclib\include\playerop.h
;	COMDAT ?GetAutopilotMode@PlayerOptionsClass@@QAEHXZ
_TEXT	SEGMENT
_this$ = -4						; size = 4
?GetAutopilotMode@PlayerOptionsClass@@QAEHXZ PROC	; PlayerOptionsClass::GetAutopilotMode, COMDAT
; _this$ = ecx

; 143  : 	int GetAutopilotMode (void)								{ return SimAutopilotType; }

	push	ebp
	mov	ebp, esp
	push	ecx
	mov	DWORD PTR _this$[ebp], ecx
	mov	eax, DWORD PTR _this$[ebp]
	mov	eax, DWORD PTR [eax+68]
	mov	esp, ebp
	pop	ebp
	ret	0
?GetAutopilotMode@PlayerOptionsClass@@QAEHXZ ENDP	; PlayerOptionsClass::GetAutopilotMode
_TEXT	ENDS
; Function compile flags: /Odtp
; File c:\users\zhitao li\documents\visual studio 2012\projects\freefalcon\falclib\include\playerop.h
;	COMDAT ?GetAvionicsType@PlayerOptionsClass@@QAEHXZ
_TEXT	SEGMENT
_this$ = -4						; size = 4
?GetAvionicsType@PlayerOptionsClass@@QAEHXZ PROC	; PlayerOptionsClass::GetAvionicsType, COMDAT
; _this$ = ecx

; 142  : 	int GetAvionicsType (void)								{ return SimAvionicsType; }

	push	ebp
	mov	ebp, esp
	push	ecx
	mov	DWORD PTR _this$[ebp], ecx
	mov	eax, DWORD PTR _this$[ebp]
	mov	eax, DWORD PTR [eax+64]
	mov	esp, ebp
	pop	ebp
	ret	0
?GetAvionicsType@PlayerOptionsClass@@QAEHXZ ENDP	; PlayerOptionsClass::GetAvionicsType
_TEXT	ENDS
; Function compile flags: /Odtp
;	COMDAT ??_G_System_error_category@std@@UAEPAXI@Z
_TEXT	SEGMENT
_this$ = -4						; size = 4
___flags$ = 8						; size = 4
??_G_System_error_category@std@@UAEPAXI@Z PROC		; std::_System_error_category::`scalar deleting destructor', COMDAT
; _this$ = ecx
	push	ebp
	mov	ebp, esp
	push	ecx
	mov	DWORD PTR _this$[ebp], ecx
	mov	ecx, DWORD PTR _this$[ebp]
	call	??1_System_error_category@std@@UAE@XZ
	mov	eax, DWORD PTR ___flags$[ebp]
	and	eax, 1
	je	SHORT $LN1@scalar
	mov	ecx, DWORD PTR _this$[ebp]
	push	ecx
	call	??3@YAXPAX@Z				; operator delete
	add	esp, 4
$LN1@scalar:
	mov	eax, DWORD PTR _this$[ebp]
	mov	esp, ebp
	pop	ebp
	ret	4
??_G_System_error_category@std@@UAEPAXI@Z ENDP		; std::_System_error_category::`scalar deleting destructor'
_TEXT	ENDS
; Function compile flags: /Odtp
;	COMDAT ??1_System_error_category@std@@UAE@XZ
_TEXT	SEGMENT
_this$ = -4						; size = 4
??1_System_error_category@std@@UAE@XZ PROC		; std::_System_error_category::~_System_error_category, COMDAT
; _this$ = ecx
	push	ebp
	mov	ebp, esp
	push	ecx
	mov	DWORD PTR _this$[ebp], ecx
	mov	ecx, DWORD PTR _this$[ebp]
	call	??1_Generic_error_category@std@@UAE@XZ
	mov	esp, ebp
	pop	ebp
	ret	0
??1_System_error_category@std@@UAE@XZ ENDP		; std::_System_error_category::~_System_error_category
_TEXT	ENDS
; Function compile flags: /Odtp
; File c:\program files (x86)\microsoft visual studio 11.0\vc\include\system_error
;	COMDAT ?default_error_condition@_System_error_category@std@@UBE?AVerror_condition@2@H@Z
_TEXT	SEGMENT
_this$ = -4						; size = 4
___$ReturnUdt$ = 8					; size = 4
__Errval$ = 12						; size = 4
?default_error_condition@_System_error_category@std@@UBE?AVerror_condition@2@H@Z PROC ; std::_System_error_category::default_error_condition, COMDAT
; _this$ = ecx

; 641  : 		{	// make error_condition for error code (generic if possible)

	push	ebp
	mov	ebp, esp
	push	ecx
	mov	DWORD PTR _this$[ebp], ecx

; 642  : 		if (_Syserror_map(_Errval))

	mov	eax, DWORD PTR __Errval$[ebp]
	push	eax
	call	?_Syserror_map@std@@YAPBDH@Z		; std::_Syserror_map
	add	esp, 4
	test	eax, eax
	je	SHORT $LN2@default_er

; 643  : 			return (error_condition(_Errval, generic_category()));

	call	?generic_category@std@@YAABVerror_category@1@XZ ; std::generic_category
	push	eax
	mov	ecx, DWORD PTR __Errval$[ebp]
	push	ecx
	mov	ecx, DWORD PTR ___$ReturnUdt$[ebp]
	call	??0error_condition@std@@QAE@HABVerror_category@1@@Z ; std::error_condition::error_condition
	mov	eax, DWORD PTR ___$ReturnUdt$[ebp]
	jmp	SHORT $LN3@default_er

; 644  : 		else

	jmp	SHORT $LN3@default_er
$LN2@default_er:

; 645  : 			return (error_condition(_Errval, system_category()));

	call	?system_category@std@@YAABVerror_category@1@XZ ; std::system_category
	push	eax
	mov	edx, DWORD PTR __Errval$[ebp]
	push	edx
	mov	ecx, DWORD PTR ___$ReturnUdt$[ebp]
	call	??0error_condition@std@@QAE@HABVerror_category@1@@Z ; std::error_condition::error_condition
	mov	eax, DWORD PTR ___$ReturnUdt$[ebp]
$LN3@default_er:

; 646  : 		}

	mov	esp, ebp
	pop	ebp
	ret	8
?default_error_condition@_System_error_category@std@@UBE?AVerror_condition@2@H@Z ENDP ; std::_System_error_category::default_error_condition
_TEXT	ENDS
; Function compile flags: /Odtp
; File c:\program files (x86)\microsoft visual studio 11.0\vc\include\system_error
;	COMDAT ?message@_System_error_category@std@@UBE?AV?$basic_string@DU?$char_traits@D@std@@V?$allocator@D@2@@2@H@Z
_TEXT	SEGMENT
_this$ = -16						; size = 4
$T1 = -12						; size = 4
tv69 = -8						; size = 4
__Name$ = -4						; size = 4
___$ReturnUdt$ = 8					; size = 4
__Errcode$ = 12						; size = 4
?message@_System_error_category@std@@UBE?AV?$basic_string@DU?$char_traits@D@std@@V?$allocator@D@2@@2@H@Z PROC ; std::_System_error_category::message, COMDAT
; _this$ = ecx

; 634  : 		{	// convert to name of error

	push	ebp
	mov	ebp, esp
	sub	esp, 16					; 00000010H
	mov	DWORD PTR _this$[ebp], ecx
	mov	DWORD PTR $T1[ebp], 0

; 635  : 		const char *_Name = _Winerror_map(_Errcode);

	mov	eax, DWORD PTR __Errcode$[ebp]
	push	eax
	call	?_Winerror_map@std@@YAPBDH@Z		; std::_Winerror_map
	add	esp, 4
	mov	DWORD PTR __Name$[ebp], eax

; 636  : 		return (string(_Name != 0 ? _Name : "unknown error"));

	cmp	DWORD PTR __Name$[ebp], 0
	je	SHORT $LN3@message
	mov	ecx, DWORD PTR __Name$[ebp]
	mov	DWORD PTR tv69[ebp], ecx
	jmp	SHORT $LN4@message
$LN3@message:
	mov	DWORD PTR tv69[ebp], OFFSET ??_C@_0O@BFJCFAAK@unknown?5error?$AA@
$LN4@message:
	mov	edx, DWORD PTR tv69[ebp]
	push	edx
	mov	ecx, DWORD PTR ___$ReturnUdt$[ebp]
	call	??0?$basic_string@DU?$char_traits@D@std@@V?$allocator@D@2@@std@@QAE@PBD@Z ; std::basic_string<char,std::char_traits<char>,std::allocator<char> >::basic_string<char,std::char_traits<char>,std::allocator<char> >
	mov	eax, DWORD PTR $T1[ebp]
	or	eax, 1
	mov	DWORD PTR $T1[ebp], eax
	mov	eax, DWORD PTR ___$ReturnUdt$[ebp]

; 637  : 		}

	mov	esp, ebp
	pop	ebp
	ret	8
