; Listing generated by Microsoft (R) Optimizing Compiler Version 17.00.51106.1 

	TITLE	C:\Users\Zhitao Li\Documents\Visual Studio 2012\Projects\Freefalcon\SIM\SIMINPUT\FindFunc.cpp
	.686P
	.XMM
	include listing.inc
	.model	flat

INCLUDELIB LIBCMT
INCLUDELIB OLDNAMES

PUBLIC	??_C@_0P@HIGLHBAM@SimHUDBrtNight?$AA@		; `string'
PUBLIC	?traps@_Num_base@std@@2_NB			; std::_Num_base::traps
PUBLIC	??_C@_0BD@NNLNJBCE@SimHUDBrightnessUp?$AA@	; `string'
PUBLIC	??_C@_0BF@IJNKFOMO@SimHUDBrightnessDown?$AA@	; `string'
PUBLIC	??_C@_0BF@IJICHKNN@SimCycleRadioChannel?$AA@	; `string'
PUBLIC	?round_style@_Num_base@std@@2W4float_round_style@2@B ; std::_Num_base::round_style
PUBLIC	??_C@_0BD@OPHKPBHK@SimDecRadioChannel?$AA@	; `string'
PUBLIC	??_C@_0BF@PCHBOHHP@SimToggleRadioVolume?$AA@	; `string'
PUBLIC	??_C@_0BD@IMFIKPNB@RadioTankerCommand?$AA@	; `string'
PUBLIC	?digits@_Num_base@std@@2HB			; std::_Num_base::digits
PUBLIC	??_C@_0BC@JMDJAAEL@RadioTowerCommand?$AA@	; `string'
PUBLIC	??_C@_0BC@DACCDBFA@RadioAWACSCommand?$AA@	; `string'
PUBLIC	??_C@_0BB@KHGIGMJN@RadioWingCommand?$AA@	; `string'
PUBLIC	?digits10@_Num_base@std@@2HB			; std::_Num_base::digits10
PUBLIC	??_C@_0BE@GMNOOIDN@RadioElementCommand?$AA@	; `string'
PUBLIC	??_C@_0BD@LEMOLOBM@RadioFlightCommand?$AA@	; `string'
PUBLIC	??_C@_0BA@EONAOFHM@WingmanClearSix?$AA@		; `string'
PUBLIC	?max_digits10@_Num_base@std@@2HB		; std::_Num_base::max_digits10
PUBLIC	??_C@_0BA@MMMPIONI@ElementClearSix?$AA@		; `string'
PUBLIC	??_C@_0P@CGCLGPAE@FlightClearSix?$AA@		; `string'
PUBLIC	??_C@_0BA@OKKCLPHO@WingmanCheckSix?$AA@		; `string'
PUBLIC	?max_exponent@_Num_base@std@@2HB		; std::_Num_base::max_exponent
PUBLIC	??_C@_0BA@GILNNENK@ElementCheckSix?$AA@		; `string'
PUBLIC	??_C@_0P@ICFJDFAG@FlightCheckSix?$AA@		; `string'
PUBLIC	??_C@_0BB@DGJMBBP@WingmanBreakLeft?$AA@		; `string'
PUBLIC	?max_exponent10@_Num_base@std@@2HB		; std::_Num_base::max_exponent10
PUBLIC	??_C@_0BB@NCFALJIF@ElementBreakLeft?$AA@	; `string'
PUBLIC	??_C@_0BA@FNNPMDJL@FlightBreakLeft?$AA@		; `string'
PUBLIC	??_C@_0BC@JHPEGLFN@WingmanBreakRight?$AA@	; `string'
PUBLIC	?min_exponent@_Num_base@std@@2HB		; std::_Num_base::min_exponent
PUBLIC	??_C@_0BC@IHPPCIHP@ElementBreakRight?$AA@	; `string'
PUBLIC	??_C@_0BB@HNHPJKGG@FlightBreakRight?$AA@	; `string'
PUBLIC	??_C@_0N@HLLKPKPE@WingmanPince?$AA@		; `string'
PUBLIC	?min_exponent10@_Num_base@std@@2HB		; std::_Num_base::min_exponent10
PUBLIC	??_C@_0N@KCBHPKMM@ElementPince?$AA@		; `string'
PUBLIC	??_C@_0M@BOCNNEPO@FlightPince?$AA@		; `string'
PUBLIC	??_C@_0BA@GLANMADK@WingmanPosthole?$AA@		; `string'
PUBLIC	?radix@_Num_base@std@@2HB			; std::_Num_base::radix
PUBLIC	??_C@_0BA@OJBCKLJO@ElementPosthole?$AA@		; `string'
PUBLIC	??_C@_0P@DPGEKEC@FlightPosthole?$AA@		; `string'
PUBLIC	??_C@_0BA@FOCPNFDC@WingmanChainsaw?$AA@		; `string'
PUBLIC	??_C@_0BA@NMDALOJG@ElementChainsaw?$AA@		; `string'
PUBLIC	??_C@_0P@DGNEFPEK@FlightChainsaw?$AA@		; `string'
PUBLIC	??_C@_0M@ELBEHJHG@WingmanFlex?$AA@		; `string'
PUBLIC	??_C@_0M@DAEOJNJP@ElementFlex?$AA@		; `string'
PUBLIC	??_C@_0L@GMODLFCO@FlightFlex?$AA@		; `string'
PUBLIC	??_C@_0BF@DDLFGONI@WingmanGoShooterMode?$AA@	; `string'
PUBLIC	??_C@_0BF@EEPKDJAI@ElementGoShooterMode?$AA@	; `string'
PUBLIC	??_C@_0BE@GMEGOOBH@FlightGoShooterMode?$AA@	; `string'
PUBLIC	??_C@_0BD@JDGMPBAL@WingmanGoCoverMode?$AA@	; `string'
PUBLIC	??_C@_0BD@EGBMLLKM@ElementGoCoverMode?$AA@	; `string'
PUBLIC	??_C@_0BC@CCINJDNO@FlightGoCoverMode?$AA@	; `string'
PUBLIC	??_C@_0BE@JCCMPBMA@WingmanSearchGround?$AA@	; `string'
PUBLIC	??_C@_0BE@NKELLHMB@ElementSearchGround?$AA@	; `string'
PUBLIC	??_C@_0BD@GECEDGPJ@FlightSearchGround?$AA@	; `string'
PUBLIC	??_C@_0BB@HLJMFPKD@WingmanSearchAir?$AA@	; `string'
PUBLIC	??_C@_0BB@KKKFCHDJ@ElementSearchAir?$AA@	; `string'
PUBLIC	??_C@_0BA@CFCKFNCH@FlightSearchAir?$AA@		; `string'
PUBLIC	??_C@_0BE@OMLDDFJF@WingmanResumeNormal?$AA@	; `string'
PUBLIC	??_C@_0BE@KENEHDJE@ElementResumeNormal?$AA@	; `string'
PUBLIC	??_C@_0BD@BKLLPCKM@FlightResumeNormal?$AA@	; `string'
PUBLIC	??_C@_0O@BHMEPLJI@WingmanRejoin?$AA@		; `string'
PUBLIC	??_C@_0O@DPBPOOAG@ElementRejoin?$AA@		; `string'
PUBLIC	??_C@_0N@PHHEIFKI@FlightRejoin?$AA@		; `string'
PUBLIC	??_C@_0BH@POLEHCCL@WingmanDesignateTarget?$AA@	; `string'
PUBLIC	??_C@_0BH@IKIDAECM@ElementDesignateTarget?$AA@	; `string'
PUBLIC	??_C@_0BG@FPGOGFHJ@FlightDesignateTarget?$AA@	; `string'
PUBLIC	??_C@_0BG@BPGHGLJC@WingmanDesignateGroup?$AA@	; `string'
PUBLIC	?is_bounded@_Num_int_base@std@@2_NB		; std::_Num_int_base::is_bounded
PUBLIC	??_C@_0BG@JJMDPGBB@ElementDesignateGroup?$AA@	; `string'
PUBLIC	??_C@_0BF@BEODEHDD@FlightDesignateGroup?$AA@	; `string'
PUBLIC	??_C@_0BD@DAENFIOI@WingmanWeaponsHold?$AA@	; `string'
PUBLIC	?is_exact@_Num_int_base@std@@2_NB		; std::_Num_int_base::is_exact
PUBLIC	??_C@_0BD@OFDNBCEP@ElementWeaponsHold?$AA@	; `string'
PUBLIC	??_C@_0BC@IBKMDKDN@FlightWeaponsHold?$AA@	; `string'
PUBLIC	??_C@_0BD@DLMEGDAF@WingmanWeaponsFree?$AA@	; `string'
PUBLIC	?is_integer@_Num_int_base@std@@2_NB		; std::_Num_int_base::is_integer
PUBLIC	??_C@_0BD@OOLECJKC@ElementWeaponsFree?$AA@	; `string'
PUBLIC	??_C@_0BC@IKCFABNA@FlightWeaponsFree?$AA@	; `string'
PUBLIC	??_C@_0N@MLPLGPPF@WingmanWedge?$AA@		; `string'
PUBLIC	?is_modulo@_Num_int_base@std@@2_NB		; std::_Num_int_base::is_modulo
PUBLIC	??_C@_0N@BCFGGPMN@ElementWedge?$AA@		; `string'
PUBLIC	??_C@_0M@KOGMEBPP@FlightWedge?$AA@		; `string'
PUBLIC	??_C@_0N@HDCNDALI@WingmanTrail?$AA@		; `string'
PUBLIC	?is_specialized@_Num_int_base@std@@2_NB		; std::_Num_int_base::is_specialized
PUBLIC	??_C@_0N@KKIADAIA@ElementTrail?$AA@		; `string'
PUBLIC	??_C@_0M@BGLKBOLC@FlightTrail?$AA@		; `string'
PUBLIC	??_C@_0P@FODBABKG@WingmanResCell?$AA@		; `string'
PUBLIC	?radix@_Num_int_base@std@@2HB			; std::_Num_int_base::radix
PUBLIC	??_C@_0P@EJKOGEPA@ElementResCell?$AA@		; `string'
PUBLIC	??_C@_0O@HIAIIBHE@FlightResCell?$AA@		; `string'
PUBLIC	??_C@_0L@DMDLINDJ@WingmanBox?$AA@		; `string'
PUBLIC	??_C@_0L@NHPEMKPD@ElementBox?$AA@		; `string'
PUBLIC	??_C@_09MJLGHPEI@FlightBox?$AA@			; `string'
PUBLIC	??_C@_0N@MPCBOMMJ@WingmanArrow?$AA@		; `string'
PUBLIC	??_C@_0N@BGIMOMPB@ElementArrow?$AA@		; `string'
PUBLIC	??_C@_0M@KKLGMCMD@FlightArrow?$AA@		; `string'
PUBLIC	??_C@_0P@PGFDMHEO@WingmanKickout?$AA@		; `string'
PUBLIC	??_C@_0P@OBMMKCBI@ElementKickout?$AA@		; `string'
PUBLIC	?has_denorm@_Num_float_base@std@@2W4float_denorm_style@2@B ; std::_Num_float_base::has_denorm
PUBLIC	??_C@_0O@NAGKEHJM@FlightKickout?$AA@		; `string'
PUBLIC	??_C@_0P@FLANMKAE@WingmanCloseup?$AA@		; `string'
PUBLIC	??_C@_0P@EMJCKPFC@ElementCloseup?$AA@		; `string'
PUBLIC	?has_denorm_loss@_Num_float_base@std@@2_NB	; std::_Num_float_base::has_denorm_loss
PUBLIC	?SIMDIRTYDATA_INTERVAL@FalconEntity@@2KB	; FalconEntity::SIMDIRTYDATA_INTERVAL
PUBLIC	??_C@_0O@HNDEEKNG@FlightCloseup?$AA@		; `string'
PUBLIC	??_C@_0BC@GGCLEKHH@WingmanToggleSide?$AA@	; `string'
PUBLIC	?CMPDIRTYDATA_INTERVAL@FalconEntity@@2KB	; FalconEntity::CMPDIRTYDATA_INTERVAL
PUBLIC	??_C@_0BC@HGCAAJFF@ElementToggleSide?$AA@	; `string'
PUBLIC	?has_infinity@_Num_float_base@std@@2_NB		; std::_Num_float_base::has_infinity
PUBLIC	??_C@_0BB@IMKALLEM@FlightToggleSide?$AA@	; `string'
PUBLIC	??_C@_0BG@DBJKOHKB@WingmanIncreaseRelAlt?$AA@	; `string'
PUBLIC	??_C@_0BG@LHDOHKCC@ElementIncreaseRelAlt?$AA@	; `string'
PUBLIC	?has_quiet_NaN@_Num_float_base@std@@2_NB	; std::_Num_float_base::has_quiet_NaN
PUBLIC	??_C@_0BF@DKBOMLAA@FlightIncreaseRelAlt?$AA@	; `string'
PUBLIC	??_C@_0BG@ICKMKOEA@WingmanDecreaseRelAlt?$AA@	; `string'
PUBLIC	??_C@_0BG@EAIDDMD@ElementDecreaseRelAlt?$AA@	; `string'
PUBLIC	?has_signaling_NaN@_Num_float_base@std@@2_NB	; std::_Num_float_base::has_signaling_NaN
PUBLIC	??_C@_0BF@IJCIICOB@FlightDecreaseRelAlt?$AA@	; `string'
PUBLIC	??_C@_0P@CNHFHIDK@WingmanGiveBra?$AA@		; `string'
PUBLIC	??_C@_0P@DKOKBNGM@ElementGiveBra?$AA@		; `string'
PUBLIC	?is_bounded@_Num_float_base@std@@2_NB		; std::_Num_float_base::is_bounded
PUBLIC	??_C@_0O@LEMPIOI@FlightGiveBra?$AA@		; `string'
PUBLIC	??_C@_0BC@ELPANFAE@WingmanGiveStatus?$AA@	; `string'
PUBLIC	??_C@_0BC@FLPLJGCG@ElementGiveStatus?$AA@	; `string'
PUBLIC	?is_exact@_Num_float_base@std@@2_NB		; std::_Num_float_base::is_exact
PUBLIC	??_C@_0BB@KBHLCEDP@FlightGiveStatus?$AA@	; `string'
PUBLIC	??_C@_0BI@OEFPBHMG@WingmanGiveDamageReport?$AA@	; `string'
PUBLIC	??_C@_0BI@HKEPLFBD@ElementGiveDamageReport?$AA@	; `string'
PUBLIC	?is_iec559@_Num_float_base@std@@2_NB		; std::_Num_float_base::is_iec559
PUBLIC	??_C@_0BH@GBJLPNAJ@FlightGiveDamageReport?$AA@	; `string'
PUBLIC	??_C@_0BF@OLEBBMFO@WingmanGiveFuelState?$AA@	; `string'
PUBLIC	??_C@_0BF@JMAOELIO@ElementGiveFuelState?$AA@	; `string'
PUBLIC	?is_integer@_Num_float_base@std@@2_NB		; std::_Num_float_base::is_integer
PUBLIC	??_C@_0BE@LELCJMJB@FlightGiveFuelState?$AA@	; `string'
PUBLIC	??_C@_0BI@JNPMAPAP@WingmanGiveWeaponsCheck?$AA@	; `string'
PUBLIC	??_C@_0BI@DOMKNNK@ElementGiveWeaponsCheck?$AA@	; `string'
PUBLIC	?is_modulo@_Num_float_base@std@@2_NB		; std::_Num_float_base::is_modulo
PUBLIC	??_C@_0BH@BIDIOFMA@FlightGiveWeaponsCheck?$AA@	; `string'
PUBLIC	??_C@_0L@GBLFAOKO@WingmanRTB?$AA@		; `string'
PUBLIC	??_C@_0L@IKHKEJGE@ElementRTB?$AA@		; `string'
PUBLIC	?is_signed@_Num_float_base@std@@2_NB		; std::_Num_float_base::is_signed
PUBLIC	??_C@_09JEDIPMNP@FlightRTB?$AA@			; `string'
PUBLIC	??_C@_0BE@KKNOEJCJ@SimSpeedyGonzalesUp?$AA@	; `string'
PUBLIC	??_C@_0BG@LEHMANAG@SimSpeedyGonzalesDown?$AA@	; `string'
PUBLIC	?is_specialized@_Num_float_base@std@@2_NB	; std::_Num_float_base::is_specialized
PUBLIC	??_C@_0BE@FEHNMMGK@ATCRequestClearance?$AA@	; `string'
PUBLIC	??_C@_0BN@JIGKNCAE@ATCRequestEmergencyClearance?$AA@ ; `string'
PUBLIC	??_C@_0BC@EEDODPGI@ATCRequestTakeoff?$AA@	; `string'
PUBLIC	?tinyness_before@_Num_float_base@std@@2_NB	; std::_Num_float_base::tinyness_before
PUBLIC	??_C@_0P@ECFMEIGO@ATCRequestTaxi?$AA@		; `string'
PUBLIC	??_C@_0L@HFHLBCPC@ATCTaxiing?$AA@		; `string'
PUBLIC	??_C@_0N@DNKBILPJ@ATCReadyToGo?$AA@		; `string'
PUBLIC	?traps@_Num_float_base@std@@2_NB		; std::_Num_float_base::traps
PUBLIC	??_C@_09GMPDOCHF@ATCRotate?$AA@			; `string'
PUBLIC	??_C@_09BMBIFIDK@ATCGearUp?$AA@			; `string'
PUBLIC	??_C@_0M@LPCDNKKA@ATCGearDown?$AA@		; `string'
PUBLIC	?round_style@_Num_float_base@std@@2W4float_round_style@2@B ; std::_Num_float_base::round_style
PUBLIC	??_C@_08GKIAFNEA@ATCBrake?$AA@			; `string'
PUBLIC	??_C@_0BB@CKFLGPDA@ATCAbortApproach?$AA@	; `string'
PUBLIC	??_C@_0L@MNBABKHP@FACCheckIn?$AA@		; `string'
PUBLIC	?radix@_Num_float_base@std@@2HB			; std::_Num_float_base::radix
PUBLIC	??_C@_08HIAHFLJC@FACWilco?$AA@			; `string'
PUBLIC	??_C@_09MOADFGMN@FACUnable?$AA@			; `string'
PUBLIC	??_C@_08GIHFMKP@FACReady?$AA@			; `string'
PUBLIC	??_C@_05PPDLMBGB@FACIn?$AA@			; `string'
PUBLIC	??_C@_06EEABMFLA@FACOut?$AA@			; `string'
PUBLIC	??_C@_0P@GJBNAHNC@FACRequestMark?$AA@		; `string'
PUBLIC	??_C@_0BB@JALFIILP@FACRequestTarget?$AA@	; `string'
PUBLIC	??_C@_0O@FDCLGFCO@FACRequestBDA?$AA@		; `string'
PUBLIC	??_C@_0BD@NCFKFEKI@FACRequestLocation?$AA@	; `string'
PUBLIC	??_C@_0BA@JOBLOMNB@FACRequestTACAN?$AA@		; `string'
PUBLIC	??_C@_0BC@CPLMIKHH@TankerRequestFuel?$AA@	; `string'
PUBLIC	??_C@_0BC@MPCHIJEK@TankerReadyForGas?$AA@	; `string'
PUBLIC	??_C@_0BE@LKELKNLI@TankerDoneRefueling?$AA@	; `string'
PUBLIC	??_C@_0BA@DKJLGOJF@TankerBreakaway?$AA@		; `string'
PUBLIC	??_C@_0BE@LACPOEGP@AWACSRequestPicture?$AA@	; `string'
PUBLIC	??_C@_0BD@DGHEFONL@AWACSRequestTanker?$AA@	; `string'
PUBLIC	??_C@_0L@PIBNFDLE@AWACSWilco?$AA@		; `string'
PUBLIC	??_C@_0M@BMIOMJDI@AWACSUnable?$AA@		; `string'
PUBLIC	??_C@_0BB@KOAFFLIE@AWACSRequestHelp?$AA@	; `string'
PUBLIC	??_C@_0BD@DAFCGFEJ@AWACSRequestRelief?$AA@	; `string'
PUBLIC	??_C@_0P@HIEKACCF@TimeAccelerate?$AA@		; `string'
PUBLIC	?is_signed@?$numeric_limits@D@std@@2_NB		; std::numeric_limits<char>::is_signed
PUBLIC	??_C@_0BI@CIDMEPLC@TimeAccelerateMaxToggle?$AA@	; `string'
PUBLIC	??_C@_0BC@HADMIHIG@TimeAccelerateInc?$AA@	; `string'
PUBLIC	??_C@_0BC@IOADLALK@TimeAccelerateDec?$AA@	; `string'
PUBLIC	?digits@?$numeric_limits@D@std@@2HB		; std::numeric_limits<char>::digits
PUBLIC	??_C@_0M@LBGNFAKJ@SimFuelDump?$AA@		; `string'
PUBLIC	??_C@_0BE@IMFMEMKK@SimCycleDebugLabels?$AA@	; `string'
PUBLIC	??_C@_08JMNGAJHN@AFABFull?$AA@			; `string'
PUBLIC	?digits10@?$numeric_limits@D@std@@2HB		; std::numeric_limits<char>::digits10
PUBLIC	??_C@_0BE@FMKHHFCL@BombRippleIncrement?$AA@	; `string'
PUBLIC	??_C@_0BG@HPFHKBC@BombIntervalIncrement?$AA@	; `string'
PUBLIC	??_C@_0BE@CLAMGAEG@BombRippleDecrement?$AA@	; `string'
PUBLIC	??_C@_0BG@HAFOGPHP@BombIntervalDecrement?$AA@	; `string'
PUBLIC	??_C@_0BA@IKOMNPFP@BombPairRelease?$AA@		; `string'
PUBLIC	??_C@_0P@JFPMGLBL@BombSGLRelease?$AA@		; `string'
PUBLIC	??_C@_0BD@PGJHCAAN@BombBurstIncrement?$AA@	; `string'
PUBLIC	??_C@_0BD@IBDMDFGA@BombBurstDecrement?$AA@	; `string'
PUBLIC	??_C@_0M@PFPHKEJJ@BreakToggle?$AA@		; `string'
PUBLIC	??_C@_0L@GLCMMLGE@SimICPCom2?$AA@		; `string'
PUBLIC	??_C@_0BF@HCPMJMHL@SimToggleDropPattern?$AA@	; `string'
PUBLIC	??_C@_0BE@DEEBAOPI@KneeboardTogglePage?$AA@	; `string'
PUBLIC	??_C@_0O@DLFHFKMJ@ToggleNVGMode?$AA@		; `string'
PUBLIC	??_C@_0M@PJHNIKBM@ToggleSmoke?$AA@		; `string'
PUBLIC	??_C@_0O@CJHJOGBB@WingmanSpread?$AA@		; `string'
PUBLIC	??_C@_0O@BKCPDIP@ElementSpread?$AA@		; `string'
PUBLIC	??_C@_0N@MJMJJICB@FlightSpread?$AA@		; `string'
PUBLIC	??_C@_0N@KDLOOGLB@WingmanStack?$AA@		; `string'
PUBLIC	??_C@_0N@HKBDOGIJ@ElementStack?$AA@		; `string'
PUBLIC	??_C@_0M@MGCJMILL@FlightStack?$AA@		; `string'
PUBLIC	??_C@_0O@DMOIMDEE@WingmanLadder?$AA@		; `string'
PUBLIC	??_C@_0O@BEDDNGNK@ElementLadder?$AA@		; `string'
PUBLIC	??_C@_0N@NMFILNHE@FlightLadder?$AA@		; `string'
PUBLIC	??_C@_0N@PFEBPAAL@WingmanFluid?$AA@		; `string'
PUBLIC	??_C@_0N@CMOMPADD@ElementFluid?$AA@		; `string'
PUBLIC	??_C@_0M@JANGNOAB@FlightFluid?$AA@		; `string'
PUBLIC	??_C@_0P@IGOHOFED@SimOpenChatBox?$AA@		; `string'
PUBLIC	??_C@_0BI@FLBCJEFG@ExtinguishMasterCaution?$AA@	; `string'
PUBLIC	??_C@_08HHEFHAG@SoundOff?$AA@			; `string'
PUBLIC	??_C@_0BD@PCFEOOP@SimToggleExtLights?$AA@	; `string'
PUBLIC	?is_signed@?$numeric_limits@_W@std@@2_NB	; std::numeric_limits<wchar_t>::is_signed
PUBLIC	??_C@_0N@IIOAFCEL@IncreaseAlow?$AA@		; `string'
PUBLIC	??_C@_0N@LOFOJGDL@DecreaseAlow?$AA@		; `string'
PUBLIC	??_C@_0BE@KJOIDIDL@SaveCockpitDefaults?$AA@	; `string'
PUBLIC	??_C@_0BE@OJOHGIJG@LoadCockpitDefaults?$AA@	; `string'
PUBLIC	?digits@?$numeric_limits@_W@std@@2HB		; std::numeric_limits<wchar_t>::digits
PUBLIC	??_C@_0BB@HPGCGMDA@SimStepMasterArm?$AA@	; `string'
PUBLIC	??_C@_0BA@KLJFCJMO@SimArmMasterArm?$AA@		; `string'
PUBLIC	??_C@_0BB@HOHFMDIA@SimSafeMasterArm?$AA@	; `string'
PUBLIC	??_C@_0BA@CEEHDKN@SimSimMasterArm?$AA@		; `string'
PUBLIC	?digits10@?$numeric_limits@_W@std@@2HB		; std::numeric_limits<wchar_t>::digits10
PUBLIC	??_C@_0BB@ICMAHOB@SimSetBubbleSize?$AA@		; `string'
PUBLIC	??_C@_0O@PCBFDJIL@SimHookToggle?$AA@		; `string'
PUBLIC	??_C@_09MJDDKLPF@SimHookUp?$AA@			; `string'
PUBLIC	??_C@_0M@NHPFGHKM@SimHookDown?$AA@		; `string'
PUBLIC	??_C@_0BG@OABLOGHL@SimThrottleIdleDetent?$AA@	; `string'
PUBLIC	??_C@_0M@FJADNAPO@SimJfsStart?$AA@		; `string'
PUBLIC	??_C@_0N@PMGMEGML@SimEpuToggle?$AA@		; `string'
PUBLIC	??_C@_09GFNBCDCP@SimEpuOff?$AA@			; `string'
PUBLIC	??_C@_0L@KLOPKKBM@SimEpuAuto?$AA@		; `string'
PUBLIC	??_C@_08NPCKHDN@SimEpuOn?$AA@			; `string'
PUBLIC	??_C@_0BB@BCJABFDM@AFRudderTrimLeft?$AA@	; `string'
PUBLIC	??_C@_0BC@DFICODPL@AFRudderTrimRight?$AA@	; `string'
PUBLIC	??_C@_0BC@POJAFAL@AFAileronTrimLeft?$AA@	; `string'
PUBLIC	??_C@_0BD@INCCDPOE@AFAileronTrimRight?$AA@	; `string'
PUBLIC	??_C@_0BB@JMOBNDOD@AFElevatorTrimUp?$AA@	; `string'
PUBLIC	??_C@_0BD@JFLDHOKH@AFElevatorTrimDown?$AA@	; `string'
PUBLIC	??_C@_0M@EKBGNNIC@AFResetTrim?$AA@		; `string'
PUBLIC	??_C@_0BA@LNBGHFPB@AFAlternateGear?$AA@		; `string'
PUBLIC	??_C@_0BF@MCEMNPO@AFAlternateGearReset?$AA@	; `string'
PUBLIC	??_C@_0O@GPGABJCB@SimFLIRToggle?$AA@		; `string'
PUBLIC	??_C@_0N@FLHLLNKH@SimToggleTFR?$AA@		; `string'
PUBLIC	??_C@_0BA@DDKHNBHF@SimMainPowerInc?$AA@		; `string'
PUBLIC	??_C@_0BA@MNJIOGEJ@SimMainPowerDec?$AA@		; `string'
PUBLIC	??_C@_0BA@GFKICLFE@SimMainPowerOff?$AA@		; `string'
PUBLIC	??_C@_0BB@FNNFAKCC@SimMainPowerBatt?$AA@	; `string'
PUBLIC	??_C@_0BB@HLFGFHAL@SimMainPowerMain?$AA@	; `string'
PUBLIC	??_C@_0L@KKGLMOKB@AFFullFlap?$AA@		; `string'
PUBLIC	??_C@_08BCBCLJGH@AFNoFlap?$AA@			; `string'
PUBLIC	??_C@_09GDNHCPKD@AFIncFlap?$AA@			; `string'
PUBLIC	??_C@_09PKNFGOII@AFDecFlap?$AA@			; `string'
PUBLIC	??_C@_09LDGDKADM@AFFullLEF?$AA@			; `string'
PUBLIC	??_C@_07HHLBGJAL@AFNoLEF?$AA@			; `string'
PUBLIC	?is_modulo@?$numeric_limits@_N@std@@2_NB	; std::numeric_limits<bool>::is_modulo
PUBLIC	??_C@_08DKCCEEP@AFIncLEF?$AA@			; `string'
PUBLIC	??_C@_08ILCLFEM@AFDecLEF?$AA@			; `string'
PUBLIC	??_C@_0M@DNFIMEOK@AFDragChute?$AA@		; `string'
PUBLIC	?is_signed@?$numeric_limits@_N@std@@2_NB	; std::numeric_limits<bool>::is_signed
PUBLIC	??_C@_0P@MKIJCPAP@AFCanopyToggle?$AA@		; `string'
PUBLIC	??_C@_0BD@BEEPBPMK@Sim3DCkptHelpOnOff?$AA@	; `string'
PUBLIC	??_C@_09KBBMKBLC@SimICPIFF?$AA@			; `string'
PUBLIC	?digits@?$numeric_limits@_N@std@@2HB		; std::numeric_limits<bool>::digits
PUBLIC	??_C@_0L@HBHHKIOM@SimICPLIST?$AA@		; `string'
PUBLIC	??_C@_0M@FDHOGFNP@SimICPTHREE?$AA@		; `string'
PUBLIC	??_C@_09EBKFGOKL@SimICPSIX?$AA@			; `string'
PUBLIC	?digits10@?$numeric_limits@_N@std@@2HB		; std::numeric_limits<bool>::digits10
PUBLIC	??_C@_0M@JKFCIKLP@SimICPEIGHT?$AA@		; `string'
PUBLIC	??_C@_0L@EMJAOILP@SimICPNINE?$AA@		; `string'
PUBLIC	??_C@_0L@HMPFNENL@SimICPZERO?$AA@		; `string'
PUBLIC	??_C@_0P@DMJOBDOC@SimICPResetDED?$AA@		; `string'
PUBLIC	??_C@_0M@PGNJOONC@SimICPDEDUP?$AA@		; `string'
PUBLIC	??_C@_0O@KGEPDNHO@SimICPDEDDOWN?$AA@		; `string'
PUBLIC	??_C@_0N@PEANDIEE@SimICPDEDSEQ?$AA@		; `string'
PUBLIC	??_C@_0M@HHGJLCFA@SimICPCLEAR?$AA@		; `string'
PUBLIC	??_C@_0N@PMEIFHNI@SimRALTSTDBY?$AA@		; `string'
PUBLIC	??_C@_09EJGGIMML@SimRALTON?$AA@			; `string'
PUBLIC	??_C@_0L@KEMPMEIP@SimRALTOFF?$AA@		; `string'
PUBLIC	??_C@_0BG@CPNGGOJE@SimLandingLightToggle?$AA@	; `string'
PUBLIC	??_C@_0BC@OBHGPGAM@SimLandingLightOn?$AA@	; `string'
PUBLIC	??_C@_0BD@DEODKHEE@SimLandingLightOff?$AA@	; `string'
PUBLIC	??_C@_0BG@DAJKDOEJ@SimParkingBrakeToggle?$AA@	; `string'
PUBLIC	??_C@_0BC@LFMHDDMG@SimParkingBrakeOn?$AA@	; `string'
PUBLIC	??_C@_0BD@EPAGDNCP@SimParkingBrakeOff?$AA@	; `string'
PUBLIC	??_C@_0BC@FFBGAKMO@SimLaserArmToggle?$AA@	; `string'
PUBLIC	??_C@_0O@IMPCGIOJ@SimLaserArmOn?$AA@		; `string'
PUBLIC	??_C@_0P@OEOODFCN@SimLaserArmOff?$AA@		; `string'
PUBLIC	??_C@_0BC@KNBDLDKE@SimFuelDoorToggle?$AA@	; `string'
PUBLIC	??_C@_0BA@DDIFDOI@SimFuelDoorOpen?$AA@		; `string'
PUBLIC	??_C@_0BB@BPMJKHEE@SimFuelDoorClose?$AA@	; `string'
PUBLIC	??_C@_0BB@HMPEIJJH@SimRightAPSwitch?$AA@	; `string'
PUBLIC	??_C@_0BA@CCKELDOD@SimLeftAPSwitch?$AA@		; `string'
PUBLIC	??_C@_0M@PDOBBFCD@SimLeftAPUp?$AA@		; `string'
PUBLIC	??_C@_0N@CFFPNJEL@SimLeftAPMid?$AA@		; `string'
PUBLIC	??_C@_0O@CMEOKBGM@SimLeftAPDown?$AA@		; `string'
PUBLIC	??_C@_0N@DOEDABOP@SimRightAPUp?$AA@		; `string'
PUBLIC	??_C@_0O@LHEAPFME@SimRightAPMid?$AA@		; `string'
PUBLIC	?is_signed@?$numeric_limits@C@std@@2_NB		; std::numeric_limits<signed char>::is_signed
PUBLIC	??_C@_0P@FBNLCAPB@SimRightAPDown?$AA@		; `string'
PUBLIC	??_C@_0O@ICHPPJDI@SimAPOverride?$AA@		; `string'
PUBLIC	??_C@_0N@CDANCNGN@SimWarnReset?$AA@		; `string'
PUBLIC	?digits@?$numeric_limits@C@std@@2HB		; std::numeric_limits<signed char>::digits
PUBLIC	??_C@_0BB@CHKHHCNM@SimReticleSwitch?$AA@	; `string'
PUBLIC	??_C@_0O@IDLPFFKA@SimReticlePri?$AA@		; `string'
PUBLIC	??_C@_0P@EGDGBEOP@SimReticleStby?$AA@		; `string'
PUBLIC	?digits10@?$numeric_limits@C@std@@2HB		; std::numeric_limits<signed char>::digits10
PUBLIC	??_C@_0O@BHHCAFAK@SimReticleOff?$AA@		; `string'
PUBLIC	??_C@_08NMGAODKP@SimTMSUp?$AA@			; `string'
PUBLIC	??_C@_0L@BNKCJGLK@SimTMSLeft?$AA@		; `string'
PUBLIC	??_C@_0L@OPKGAOID@SimTMSDown?$AA@		; `string'
PUBLIC	??_C@_0M@DBFGPHGN@SimTMSRight?$AA@		; `string'
PUBLIC	??_C@_0L@JMKJCHGE@SimSeatArm?$AA@		; `string'
PUBLIC	??_C@_09HPMLKAHG@SimSeatOn?$AA@			; `string'
PUBLIC	??_C@_0L@IEKNICDA@SimSeatOff?$AA@		; `string'
PUBLIC	??_C@_0P@HCOGIEFG@SimEWSRWRPower?$AA@		; `string'
PUBLIC	??_C@_0M@DDFNCIHG@SimEWSRWROn?$AA@		; `string'
PUBLIC	??_C@_0N@IEOBBELI@SimEWSRWROff?$AA@		; `string'
PUBLIC	??_C@_0BC@FIDINAMH@SimEWSJammerPower?$AA@	; `string'
PUBLIC	??_C@_0P@GOFAIJPF@SimEWSJammerOn?$AA@		; `string'
PUBLIC	??_C@_0BA@PAANMLID@SimEWSJammerOff?$AA@		; `string'
PUBLIC	??_C@_0BB@FOACBCP@SimEWSChaffPower?$AA@		; `string'
PUBLIC	??_C@_0O@KJNJDNJE@SimEWSChaffOn?$AA@		; `string'
PUBLIC	??_C@_0P@MKHPBDPJ@SimEWSChaffOff?$AA@		; `string'
PUBLIC	??_C@_0BB@LEEFAIFL@SimEWSFlarePower?$AA@	; `string'
PUBLIC	??_C@_0O@JCKDIJEP@SimEWSFlareOn?$AA@		; `string'
PUBLIC	??_C@_0P@NLEFGCBB@SimEWSFlareOff?$AA@		; `string'
PUBLIC	??_C@_0N@KEBHPNHI@SimEWSPGMInc?$AA@		; `string'
PUBLIC	??_C@_0N@FKCIMKEE@SimEWSPGMDec?$AA@		; `string'
PUBLIC	??_C@_0O@EMOGONJI@SimEWSModeOff?$AA@		; `string'
PUBLIC	??_C@_0P@FIGMHCGP@SimEWSModeStby?$AA@		; `string'
PUBLIC	??_C@_0O@CLHJLJJO@SimEWSModeMan?$AA@		; `string'
PUBLIC	??_C@_0P@PBFHBHPJ@SimEWSModeSemi?$AA@		; `string'
PUBLIC	??_C@_0P@POMDLLPN@SimEWSModeAuto?$AA@		; `string'
PUBLIC	??_C@_0O@OLFJGNOO@SimEWSProgInc?$AA@		; `string'
PUBLIC	??_C@_0O@BFGGFKNC@SimEWSProgDec?$AA@		; `string'
PUBLIC	??_C@_0O@JIGIJFLE@SimEWSProgOne?$AA@		; `string'
PUBLIC	?is_signed@?$numeric_limits@E@std@@2_NB		; std::numeric_limits<unsigned char>::is_signed
PUBLIC	??_C@_0O@PGGIDFFP@SimEWSProgTwo?$AA@		; `string'
PUBLIC	?value@?$integral_constant@_N$0A@@std@@2_NB	; std::integral_constant<bool,0>::value
PUBLIC	??_C@_0BA@HNMFGKOI@SimEWSProgThree?$AA@		; `string'
PUBLIC	??_C@_0P@HIBHKCBA@SimEWSProgFour?$AA@		; `string'
PUBLIC	?digits@?$numeric_limits@E@std@@2HB		; std::numeric_limits<unsigned char>::digits
PUBLIC	??_C@_0O@DILDFLIA@SimInhibitVMS?$AA@		; `string'
PUBLIC	??_C@_08FEFIFLNN@SimVMSOn?$AA@			; `string'
PUBLIC	??_C@_09MFICGLKL@SimVMSOff?$AA@			; `string'
PUBLIC	?digits10@?$numeric_limits@E@std@@2HB		; std::numeric_limits<unsigned char>::digits10
PUBLIC	??_C@_0M@OAMJEMPJ@SimRFSwitch?$AA@		; `string'
PUBLIC	??_C@_09JLJDJBBB@SimRFNorm?$AA@			; `string'
PUBLIC	??_C@_0L@HAKDLBNK@SimRFQuiet?$AA@		; `string'
PUBLIC	??_C@_0M@BHPPFOJG@SimRFSilent?$AA@		; `string'
PUBLIC	??_C@_0BC@OJBHDCN@SimDropProgrammed?$AA@	; `string'
PUBLIC	??_C@_0P@PKKJJDNI@SimPinkySwitch?$AA@		; `string'
PUBLIC	??_C@_0BB@EACJLKJK@SimGndJettEnable?$AA@	; `string'
PUBLIC	??_C@_0N@GODMOAE@SimGndJettOn?$AA@		; `string'
PUBLIC	??_C@_0O@DKNPLKEO@SimGndJettOff?$AA@		; `string'
PUBLIC	??_C@_0N@IPIFBJEH@SimExtlPower?$AA@		; `string'
PUBLIC	?value@?$integral_constant@_N$00@std@@2_NB	; std::integral_constant<bool,1>::value
PUBLIC	??_C@_0BC@ONECLOEG@SimExtlMasterNorm?$AA@	; `string'
PUBLIC	??_C@_0BB@FAPNPANK@SimExtlMasterOff?$AA@	; `string'
PUBLIC	??_C@_0BA@DFLNKJLL@SimExtlAntiColl?$AA@		; `string'
PUBLIC	??_C@_0O@NBHNICMD@SimAntiCollOn?$AA@		; `string'
PUBLIC	??_C@_0P@DPAIHDBB@SimAntiCollOff?$AA@		; `string'
PUBLIC	??_C@_0O@MDNKPHCH@SimExtlSteady?$AA@		; `string'
PUBLIC	??_C@_0BA@LKNIKNHL@SimLightsSteady?$AA@		; `string'
PUBLIC	??_C@_0P@BOLMFHEC@SimLightsFlash?$AA@		; `string'
PUBLIC	??_C@_0M@OIAGNBHN@SimExtlWing?$AA@		; `string'
PUBLIC	??_C@_0BA@HBPIMCOP@SimWingLightBrt?$AA@		; `string'
PUBLIC	??_C@_0BA@OAEJGBEN@SimWingLightOff?$AA@		; `string'
PUBLIC	??_C@_08NPLGOBDE@SimDMSUp?$AA@			; `string'
PUBLIC	??_C@_0L@GBBJKHJB@SimDMSLeft?$AA@		; `string'
PUBLIC	??_C@_0L@JDBNDPKI@SimDMSDown?$AA@		; `string'
PUBLIC	??_C@_0M@JNJGLFBM@SimDMSRight?$AA@		; `string'
PUBLIC	??_C@_0O@ECBEHJLN@SimAVTRSwitch?$AA@		; `string'
PUBLIC	??_C@_0BB@JFCLEIBL@SimAVTRSwitchOff?$AA@	; `string'
PUBLIC	??_C@_0BC@IKKLKEMC@SimAVTRSwitchAuto?$AA@	; `string'
PUBLIC	??_C@_0BA@PIAKNHKN@SimAVTRSwitchOn?$AA@		; `string'
PUBLIC	??_C@_0M@GEFOMPCL@SimAutoAVTR?$AA@		; `string'
PUBLIC	?is_signed@?$numeric_limits@F@std@@2_NB		; std::numeric_limits<short>::is_signed
PUBLIC	??_C@_0M@MIEGMKJF@SimIFFPower?$AA@		; `string'
PUBLIC	??_C@_08LCECABJN@SimIFFIn?$AA@			; `string'
PUBLIC	??_C@_09IEIPAPAD@SimINSInc?$AA@			; `string'
PUBLIC	??_C@_09HKLADIDP@SimINSDec?$AA@			; `string'
PUBLIC	?digits@?$numeric_limits@F@std@@2HB		; std::numeric_limits<short>::digits
PUBLIC	??_C@_09NCIAPFCC@SimINSOff?$AA@			; `string'
PUBLIC	??_C@_0L@FOKGLJGN@SimINSNorm?$AA@		; `string'
PUBLIC	??_C@_09CFLBJGJD@SimINSNav?$AA@			; `string'
PUBLIC	??_C@_0M@CGOABLGH@SimINSInFlt?$AA@		; `string'
PUBLIC	?digits10@?$numeric_limits@F@std@@2HB		; std::numeric_limits<short>::digits10
PUBLIC	??_C@_0BB@OGCGOGKG@SimLEFLockSwitch?$AA@	; `string'
PUBLIC	??_C@_0L@HGCEENHK@SimLEFLock?$AA@		; `string'
PUBLIC	??_C@_0L@MMBFEOMB@SimLEFAuto?$AA@		; `string'
PUBLIC	??_C@_0O@JAOMFEDG@SimDigitalBUP?$AA@		; `string'
PUBLIC	??_C@_0M@MAHPGBKH@SimAltFlaps?$AA@		; `string'
PUBLIC	??_C@_0BA@KJMKIPIL@SimAltFlapsNorm?$AA@		; `string'
PUBLIC	??_C@_0BC@LAIIIFOE@SimAltFlapsExtend?$AA@	; `string'
PUBLIC	??_C@_0P@CILGDMHH@SimManualFlyup?$AA@		; `string'
PUBLIC	??_C@_0N@BIAMDFDO@SimFLCSReset?$AA@		; `string'
PUBLIC	??_C@_09PHCLHFKB@SimFLTBIT?$AA@			; `string'
PUBLIC	??_C@_0M@EIDJMJOD@SimOBOGSBit?$AA@		; `string'
PUBLIC	??_C@_0BA@GCLDLHAF@SimMalIndLights?$AA@		; `string'
PUBLIC	??_C@_0N@CGNHHKBB@SimProbeHeat?$AA@		; `string'
PUBLIC	??_C@_09BFOHHOB@SimEPUGEN?$AA@			; `string'
PUBLIC	??_C@_0O@MHPIKMLE@SimTestSwitch?$AA@		; `string'
PUBLIC	??_C@_0M@FCACAEAE@SimOverHeat?$AA@		; `string'
PUBLIC	??_C@_0O@NGIIHCOP@SimTrimAPDisc?$AA@		; `string'
PUBLIC	??_C@_0O@NLHDLPJD@SimTrimAPDISC?$AA@		; `string'
PUBLIC	??_C@_0O@CLOJLPFH@SimTrimAPNORM?$AA@		; `string'
PUBLIC	??_C@_0M@JOEFCONJ@SimMaxPower?$AA@		; `string'
PUBLIC	??_C@_0L@KPAIPBNG@SimABReset?$AA@		; `string'
PUBLIC	??_C@_0O@NBBEBHJA@SimTrimNoseUp?$AA@		; `string'
PUBLIC	??_C@_0BA@NKIBPMO@SimTrimNoseDown?$AA@		; `string'
PUBLIC	??_C@_0P@CCAMFAMO@SimTrimYawLeft?$AA@		; `string'
PUBLIC	??_C@_0BA@GGABOMIO@SimTrimYawRight?$AA@		; `string'
PUBLIC	??_C@_0BA@DMBILHN@SimTrimRollLeft?$AA@		; `string'
PUBLIC	??_C@_0BB@DEEIMDGD@SimTrimRollRight?$AA@	; `string'
PUBLIC	??_C@_0BH@DJCPAJGM@SimStepMissileVolumeUp?$AA@	; `string'
PUBLIC	??_C@_0BJ@EPKOGECH@SimStepMissileVolumeDown?$AA@ ; `string'
PUBLIC	??_C@_0BG@KCBKDLBN@SimStepThreatVolumeUp?$AA@	; `string'
PUBLIC	?is_signed@?$numeric_limits@G@std@@2_NB		; std::numeric_limits<unsigned short>::is_signed
PUBLIC	??_C@_0BI@LBFNOGCF@SimStepThreatVolumeDown?$AA@	; `string'
PUBLIC	??_C@_0BG@ONFNCEOH@SimTriggerFirstDetent?$AA@	; `string'
PUBLIC	??_C@_0BH@HBPAOCBC@SimTriggerSecondDetent?$AA@	; `string'
PUBLIC	??_C@_08MGGNPDPA@SimRetUp?$AA@			; `string'
PUBLIC	?digits@?$numeric_limits@G@std@@2HB		; std::numeric_limits<unsigned short>::digits
PUBLIC	??_C@_08PMIAFGI@SimRetDn?$AA@			; `string'
PUBLIC	??_C@_0BA@NPHIJLFF@SimCursorEnable?$AA@		; `string'
PUBLIC	??_C@_0BF@FEBAPBAN@SimStepComm1VolumeUp?$AA@	; `string'
PUBLIC	??_C@_0BH@IACOCJNA@SimStepComm1VolumeDown?$AA@	; `string'
PUBLIC	?digits10@?$numeric_limits@G@std@@2HB		; std::numeric_limits<unsigned short>::digits10
PUBLIC	??_C@_0BF@LPCHEKAO@SimStepComm2VolumeUp?$AA@	; `string'
PUBLIC	??_C@_0BH@PHLAPLCA@SimStepComm2VolumeDown?$AA@	; `string'
PUBLIC	??_C@_0O@NGHAOFDF@SimSymWheelUp?$AA@		; `string'
PUBLIC	??_C@_0O@BPNFBDKN@SimSymWheelDn?$AA@		; `string'
PUBLIC	??_C@_0P@PDLOJJCG@SimRandomError?$AA@		; `string'
PUBLIC	??_C@_0BB@EHLNFOFG@SimToggleCockpit?$AA@	; `string'
PUBLIC	??_C@_0BD@IIFFDPBI@SimToggleGhostMFDs?$AA@	; `string'
PUBLIC	??_C@_0P@EJFGEGBA@SimRangeKnobUp?$AA@		; `string'
PUBLIC	??_C@_0BB@CKEHHOKF@SimRangeKnobDown?$AA@	; `string'
PUBLIC	??_C@_0BE@DABLGBBK@AWACSRequestCarrier?$AA@	; `string'
PUBLIC	??_C@_0BC@LPBJEALC@WingmanDropStores?$AA@	; `string'
PUBLIC	??_C@_0BC@KPBCADJA@ElementDropStores?$AA@	; `string'
PUBLIC	??_C@_0BB@FFJCLBIJ@FlightDropStores?$AA@	; `string'
PUBLIC	??_C@_0L@EOPLPKNJ@WingmanVic?$AA@		; `string'
PUBLIC	??_C@_0L@KFDELNBD@ElementVic?$AA@		; `string'
PUBLIC	??_C@_09LLHGAIKI@FlightVic?$AA@			; `string'
PUBLIC	??_C@_0P@IOLDJFKE@WingmanFinger4?$AA@		; `string'
PUBLIC	??_C@_0P@JJCMPAPC@ElementFinger4?$AA@		; `string'
PUBLIC	??_C@_0O@KIIKBFHG@FlightFinger4?$AA@		; `string'
PUBLIC	??_C@_0P@CBHHLHAD@WingmanEchelon?$AA@		; `string'
PUBLIC	??_C@_0P@DGOINCFF@ElementEchelon?$AA@		; `string'
PUBLIC	??_C@_0O@HEODHNB@FlightEchelon?$AA@		; `string'
PUBLIC	??_C@_0N@OPPDLDKP@WingmanForm1?$AA@		; `string'
PUBLIC	??_C@_0N@DGFOLDJH@ElementForm1?$AA@		; `string'
PUBLIC	??_C@_0M@IKGEJNKF@FlightForm1?$AA@		; `string'
PUBLIC	??_C@_0N@MENOOAGM@WingmanForm2?$AA@		; `string'
PUBLIC	??_C@_0N@BNHDOAFE@ElementForm2?$AA@		; `string'
PUBLIC	??_C@_0M@KBEJMOGG@FlightForm2?$AA@		; `string'
PUBLIC	??_C@_0N@NNMFNBCN@WingmanForm3?$AA@		; `string'
PUBLIC	??_C@_0N@EGINBBF@ElementForm3?$AA@		; `string'
PUBLIC	?is_signed@?$numeric_limits@H@std@@2_NB		; std::numeric_limits<int>::is_signed
PUBLIC	??_C@_0M@LIFCPPCH@FlightForm3?$AA@		; `string'
PUBLIC	?value@?$_Sizeof@HU_Nil@std@@U12@U12@U12@U12@U12@U12@@std@@2IB ; std::_Sizeof<int,std::_Nil,std::_Nil,std::_Nil,std::_Nil,std::_Nil,std::_Nil,std::_Nil>::value
PUBLIC	??_C@_0N@JCIEEHOK@WingmanForm4?$AA@		; `string'
PUBLIC	??_C@_0N@ELCJEHNC@ElementForm4?$AA@		; `string'
PUBLIC	??_C@_0M@PHBDGJOA@FlightForm4?$AA@		; `string'
PUBLIC	?digits@?$numeric_limits@H@std@@2HB		; std::numeric_limits<int>::digits
PUBLIC	??_C@_0M@JJCEKNEF@SimSMSPower?$AA@		; `string'
PUBLIC	??_C@_08EJFMKGO@SimSMSOn?$AA@			; `string'
PUBLIC	??_C@_09JHLKEEAM@SimSMSOff?$AA@			; `string'
PUBLIC	??_C@_0M@NCHCEIH@SimFCCPower?$AA@		; `string'
PUBLIC	?digits10@?$numeric_limits@H@std@@2HB		; std::numeric_limits<int>::digits10
PUBLIC	??_C@_08LIKHLALI@SimFCCOn?$AA@			; `string'
PUBLIC	??_C@_09PILGABJH@SimFCCOff?$AA@			; `string'
PUBLIC	??_C@_0M@CDFIKLA@SimMFDPower?$AA@		; `string'
PUBLIC	??_C@_08IHFHPHLC@SimMFDOn?$AA@			; `string'
PUBLIC	??_C@_09BIFMBIMO@SimMFDOff?$AA@			; `string'
PUBLIC	??_C@_0M@NAIKFEFH@SimUFCPower?$AA@		; `string'
PUBLIC	??_C@_08PFAFEPPN@SimUFCOn?$AA@			; `string'
PUBLIC	??_C@_09POENBGHH@SimUFCOff?$AA@			; `string'
PUBLIC	??_C@_0M@IPLGJKMC@SimGPSPower?$AA@		; `string'
PUBLIC	??_C@_08EKCNJNA@SimGPSOn?$AA@			; `string'
PUBLIC	??_C@_09LLGDONJE@SimGPSOff?$AA@			; `string'
PUBLIC	??_C@_0L@GJJHANJE@SimDLPower?$AA@		; `string'
PUBLIC	??_C@_07BHDJFENJ@SimDLOn?$AA@			; `string'
PUBLIC	??_C@_08MCKMMOLN@SimDLOff?$AA@			; `string'
PUBLIC	??_C@_0M@JLGBDLHE@SimMAPPower?$AA@		; `string'
PUBLIC	??_C@_08OKAMOLGK@SimMAPOn?$AA@			; `string'
PUBLIC	??_C@_09JADJBJDE@SimMAPOff?$AA@			; `string'
PUBLIC	??_C@_0BA@EOJHIJFF@SimLeftHptPower?$AA@		; `string'
PUBLIC	??_C@_0N@IIJNMCHE@SimLeftHptOn?$AA@		; `string'
PUBLIC	??_C@_0O@GKFELFHO@SimLeftHptOff?$AA@		; `string'
PUBLIC	??_C@_0BB@BAMHLDCB@SimRightHptPower?$AA@	; `string'
PUBLIC	??_C@_0O@BKICOOPL@SimRightHptOn?$AA@		; `string'
PUBLIC	??_C@_0P@BHMBDEOD@SimRightHptOff?$AA@		; `string'
PUBLIC	??_C@_0N@ECKNHFND@SimTISLPower?$AA@		; `string'
PUBLIC	??_C@_0M@MMIOLDPN@SimFCRPower?$AA@		; `string'
PUBLIC	??_C@_08FAACIAEC@SimFCROn?$AA@			; `string'
PUBLIC	??_C@_09KFDGLPKF@SimFCROff?$AA@			; `string'
PUBLIC	??_C@_0M@LKJGPJDH@SimHUDPower?$AA@		; `string'
PUBLIC	??_C@_08PANKILFD@SimHUDOn?$AA@			; `string'
PUBLIC	??_C@_09MPCGEHFM@SimHUDOff?$AA@			; `string'
PUBLIC	?is_signed@?$numeric_limits@I@std@@2_NB		; std::numeric_limits<unsigned int>::is_signed
PUBLIC	??_C@_0BL@BALJPKKO@SimToggleRealisticAvionics?$AA@ ; `string'
PUBLIC	??_C@_0BB@BNFMOJED@SimIncFuelSwitch?$AA@	; `string'
PUBLIC	??_C@_0BB@ENGPCGLL@SimDecFuelSwitch?$AA@	; `string'
PUBLIC	??_C@_0BC@NDDILFBJ@SimFuelSwitchTest?$AA@	; `string'
PUBLIC	?digits@?$numeric_limits@I@std@@2HB		; std::numeric_limits<unsigned int>::digits
PUBLIC	??_C@_0BC@MBHBJHB@SimFuelSwitchNorm?$AA@	; `string'
PUBLIC	??_C@_0BC@GOEOCCDL@SimFuelSwitchResv?$AA@	; `string'
PUBLIC	??_C@_0BF@JMGGKGKA@SimFuelSwitchWingInt?$AA@	; `string'
PUBLIC	??_C@_0BF@MOBLMGNK@SimFuelSwitchWingExt?$AA@	; `string'
PUBLIC	?digits10@?$numeric_limits@I@std@@2HB		; std::numeric_limits<unsigned int>::digits10
PUBLIC	??_C@_0BH@IDKNNHJH@SimFuelSwitchCenterExt?$AA@	; `string'
PUBLIC	??_C@_0P@KNGGMAMM@SimIncFuelPump?$AA@		; `string'
PUBLIC	??_C@_0P@BAOIEGGG@SimDecFuelPump?$AA@		; `string'
PUBLIC	??_C@_0P@BLGKCKOG@SimFuelPumpOff?$AA@		; `string'
PUBLIC	??_C@_0BA@MCGGFFBL@SimFuelPumpNorm?$AA@		; `string'
PUBLIC	??_C@_0P@IDEBCNAG@SimFuelPumpAft?$AA@		; `string'
PUBLIC	??_C@_0P@EJLAMOKJ@SimFuelPumpFwd?$AA@		; `string'
PUBLIC	??_C@_0BE@OAJOEAPE@SimToggleMasterFuel?$AA@	; `string'
PUBLIC	??_C@_0BA@IKFBHAF@SimMasterFuelOn?$AA@		; `string'
PUBLIC	??_C@_0BB@ENNGMMAB@SimMasterFuelOff?$AA@	; `string'
PUBLIC	??_C@_0BA@BNOAENAF@SimExtFuelTrans?$AA@		; `string'
PUBLIC	??_C@_0BB@KGHMPMPE@SimFuelTransNorm?$AA@	; `string'
PUBLIC	??_C@_0BB@BDEOEEF@SimFuelTransWing?$AA@		; `string'
PUBLIC	??_C@_0BA@OJLONPLE@SimIncAirSource?$AA@		; `string'
PUBLIC	??_C@_0BA@NPAABLME@SimDecAirSource?$AA@		; `string'
PUBLIC	??_C@_0BA@KDJGALJO@SimAirSourceOff?$AA@		; `string'
PUBLIC	??_C@_0BB@JMAAFADE@SimAirSourceNorm?$AA@	; `string'
PUBLIC	??_C@_0BB@BACHHDP@SimAirSourceDump?$AA@		; `string'
PUBLIC	??_C@_0BA@OHFOELJC@SimAirSourceRam?$AA@		; `string'
PUBLIC	??_C@_0BG@FDANGIJL@SimDecLeftAuxComDigit?$AA@	; `string'
PUBLIC	??_C@_0BI@KEIHPEMH@SimDecCenterAuxComDigit?$AA@	; `string'
PUBLIC	??_C@_0BH@PCCOLNEP@SimDecRightAuxComDigit?$AA@	; `string'
PUBLIC	??_C@_0BB@FPDMGEOD@SimInteriorLight?$AA@	; `string'
PUBLIC	??_C@_0BD@PJACLMDP@SimInstrumentLight?$AA@	; `string'
PUBLIC	??_C@_0N@JOMCOBCO@SimSpotLight?$AA@		; `string'
PUBLIC	??_C@_0M@PDJIMEJL@SimRwrPower?$AA@		; `string'
PUBLIC	??_C@_0BE@GPGBDLOE@Profiler_CursorDown?$AA@	; `string'
PUBLIC	??_C@_0BC@OJLNAEIM@Profiler_CursorUp?$AA@	; `string'
PUBLIC	??_C@_0BA@ONLNGFMK@Profiler_Parent?$AA@		; `string'
PUBLIC	??_C@_0BA@JAMMIHPB@Profiler_Select?$AA@		; `string'
PUBLIC	?is_signed@?$numeric_limits@J@std@@2_NB		; std::numeric_limits<long>::is_signed
PUBLIC	??_C@_0O@MFHJBKCD@Profiler_Hier?$AA@		; `string'
PUBLIC	??_C@_0O@LJOAOPNC@Profiler_Self?$AA@		; `string'
PUBLIC	??_C@_0BG@MBIOIECJ@ToggleProfilerDisplay?$AA@	; `string'
PUBLIC	??_C@_0P@DNHJJMDE@ToggleProfiler?$AA@		; `string'
PUBLIC	?digits@?$numeric_limits@J@std@@2HB		; std::numeric_limits<long>::digits
PUBLIC	??_C@_0BA@DKMFPGEA@ToggleSubTitles?$AA@		; `string'
PUBLIC	??_C@_0O@IMPPCDIM@ToggleInfoBar?$AA@		; `string'
PUBLIC	??_C@_0BG@BKINLCJO@ToggleDisplacementCam?$AA@	; `string'
PUBLIC	??_C@_0BA@NHDAFIHN@WinAmpNextTrack?$AA@		; `string'
PUBLIC	?digits10@?$numeric_limits@J@std@@2HB		; std::numeric_limits<long>::digits10
PUBLIC	??_C@_0BE@PEBMLEGF@WinAmpPreviousTrack?$AA@	; `string'
PUBLIC	??_C@_0BD@DGKAGMML@WinAmpStopPlayback?$AA@	; `string'
PUBLIC	??_C@_0BE@PAPICFEI@WinAmpStartPlayback?$AA@	; `string'
PUBLIC	??_C@_0BF@GPFOEHLG@WinAmpTogglePlayback?$AA@	; `string'
PUBLIC	??_C@_0P@BKINAFOH@WinAmpVolumeUp?$AA@		; `string'
PUBLIC	??_C@_0BB@JOGPEKCO@WinAmpVolumeDown?$AA@	; `string'
PUBLIC	??_C@_0M@ENAGANBC@CycleEngine?$AA@		; `string'
PUBLIC	??_C@_0BB@CGCLLHMM@selectLeftEngine?$AA@	; `string'
PUBLIC	??_C@_0BC@ENBLEKME@selectRightEngine?$AA@	; `string'
PUBLIC	??_C@_0BC@PENHOEDD@selectBothEngines?$AA@	; `string'
PUBLIC	??_C@_09CGCCACHH@ToggleTIR?$AA@			; `string'
PUBLIC	??_C@_0BH@MPNGDHKA@ToggleClickablePitMode?$AA@	; `string'
PUBLIC	??_C@_0BC@CIGJLNMN@SimToggleRearView?$AA@	; `string'
PUBLIC	??_C@_0BB@HMDELPBA@SimToggleAltView?$AA@	; `string'
PUBLIC	??_C@_0M@PNCPJLEM@ToggleVtune?$AA@		; `string'
PUBLIC	??_C@_0BI@OECLBILG@SimCycleLeftAuxComDigit?$AA@	; `string'
PUBLIC	??_C@_0BK@NEKIGIDC@SimCycleCenterAuxComDigit?$AA@ ; `string'
PUBLIC	??_C@_0BJ@LHEGMHEK@SimCycleRightAuxComDigit?$AA@ ; `string'
PUBLIC	??_C@_0BI@MJILDDJC@SimCycleBandAuxComDigit?$AA@	; `string'
PUBLIC	??_C@_0BG@LJELEGEJ@SimToggleAuxComMaster?$AA@	; `string'
PUBLIC	??_C@_0BA@IHJIDJHP@SimAuxComBackup?$AA@		; `string'
PUBLIC	??_C@_0N@GAPKHMPG@SimAuxComUFC?$AA@		; `string'
PUBLIC	??_C@_0BE@DGGJPPCE@SimToggleAuxComAATR?$AA@	; `string'
PUBLIC	??_C@_0L@LCEGKAAB@SimTACANTR?$AA@		; `string'
PUBLIC	??_C@_0N@MGFJHJNG@SimTACANAATR?$AA@		; `string'
PUBLIC	??_C@_0BD@CGPDGP@SimToggleUHFMaster?$AA@	; `string'
PUBLIC	??_C@_0BA@FEJBMMOD@SimTransmitCom1?$AA@		; `string'
PUBLIC	??_C@_0BA@HPLMJPCA@SimTransmitCom2?$AA@		; `string'
PUBLIC	??_C@_0L@PLDDDKIN@SimDriftCO?$AA@		; `string'
PUBLIC	??_C@_0N@MIJJEIFD@SimDriftCOOn?$AA@		; `string'
PUBLIC	?is_signed@?$numeric_limits@K@std@@2_NB		; std::numeric_limits<unsigned long>::is_signed
PUBLIC	??_C@_0O@MPBOAEJP@SimDriftCOOff?$AA@		; `string'
PUBLIC	??_C@_0N@JEKIEBMN@SimCATSwitch?$AA@		; `string'
PUBLIC	??_C@_07JNMFKOOA@SimCATI?$AA@			; `string'
PUBLIC	??_C@_09DBOAKCMF@SimCATIII?$AA@			; `string'
PUBLIC	?digits@?$numeric_limits@K@std@@2HB		; std::numeric_limits<unsigned long>::digits
PUBLIC	??_C@_08HEOLNBMO@SimRegen?$AA@			; `string'
PUBLIC	??_C@_0BF@MLBDFGCM@SimReverseThrusterOn?$AA@	; `string'
PUBLIC	??_C@_0BG@PKHOCCM@SimReverseThrusterOff?$AA@	; `string'
PUBLIC	??_C@_0BJ@JFKNMKPO@SimReverseThrusterToggle?$AA@ ; `string'
PUBLIC	?digits10@?$numeric_limits@K@std@@2HB		; std::numeric_limits<unsigned long>::digits10
PUBLIC	?is_signed@?$numeric_limits@_J@std@@2_NB	; std::numeric_limits<__int64>::is_signed
PUBLIC	?digits@?$numeric_limits@_J@std@@2HB		; std::numeric_limits<__int64>::digits
PUBLIC	?digits10@?$numeric_limits@_J@std@@2HB		; std::numeric_limits<__int64>::digits10
PUBLIC	?is_signed@?$numeric_limits@_K@std@@2_NB	; std::numeric_limits<unsigned __int64>::is_signed
PUBLIC	?digits@?$numeric_limits@_K@std@@2HB		; std::numeric_limits<unsigned __int64>::digits
PUBLIC	?digits10@?$numeric_limits@_K@std@@2HB		; std::numeric_limits<unsigned __int64>::digits10
PUBLIC	?digits@?$numeric_limits@M@std@@2HB		; std::numeric_limits<float>::digits
PUBLIC	?digits10@?$numeric_limits@M@std@@2HB		; std::numeric_limits<float>::digits10
PUBLIC	?max_digits10@?$numeric_limits@M@std@@2HB	; std::numeric_limits<float>::max_digits10
PUBLIC	?max_exponent@?$numeric_limits@M@std@@2HB	; std::numeric_limits<float>::max_exponent
PUBLIC	?max_exponent10@?$numeric_limits@M@std@@2HB	; std::numeric_limits<float>::max_exponent10
PUBLIC	?min_exponent@?$numeric_limits@M@std@@2HB	; std::numeric_limits<float>::min_exponent
PUBLIC	?min_exponent10@?$numeric_limits@M@std@@2HB	; std::numeric_limits<float>::min_exponent10
PUBLIC	??_C@_0BB@GAPFIFKH@OTWTrackExternal?$AA@	; `string'
PUBLIC	??_C@_0BH@GJGIMKFK@OTWTrackTargetToWeapon?$AA@	; `string'
PUBLIC	??_C@_0BG@CLAFABPH@OTWToggleScoreDisplay?$AA@	; `string'
PUBLIC	?value@?$integral_constant@I$0A@@std@@2IB	; std::integral_constant<unsigned int,0>::value
PUBLIC	??_C@_0BB@IJAJJHOF@OTWToggleSidebar?$AA@	; `string'
PUBLIC	??_C@_0BD@BIENEDA@SimRadarAAModeStep?$AA@	; `string'
PUBLIC	?digits@?$numeric_limits@N@std@@2HB		; std::numeric_limits<double>::digits
PUBLIC	??_C@_0BD@MJKKEHH@SimRadarAGModeStep?$AA@	; `string'
PUBLIC	??_C@_0P@KIHAAFNI@SimRadarGainUp?$AA@		; `string'
PUBLIC	??_C@_0BB@MGLBNCOP@SimRadarGainDown?$AA@	; `string'
PUBLIC	?digits10@?$numeric_limits@N@std@@2HB		; std::numeric_limits<double>::digits10
PUBLIC	??_C@_0BA@CMAOFD@SimRadarStandby?$AA@		; `string'
PUBLIC	??_C@_0BE@PCDOFPHC@SimRadarRangeStepUp?$AA@	; `string'
PUBLIC	??_C@_0BG@BJOHGECI@SimRadarRangeStepDown?$AA@	; `string'
PUBLIC	?max_digits10@?$numeric_limits@N@std@@2HB	; std::numeric_limits<double>::max_digits10
PUBLIC	??_C@_0BD@HICOPHDJ@SimRadarNextTarget?$AA@	; `string'
PUBLIC	??_C@_0BD@FOHGCADO@SimRadarPrevTarget?$AA@	; `string'
PUBLIC	??_C@_0BG@DPBEEKN@SimRadarBarScanChange?$AA@	; `string'
PUBLIC	??_C@_0BK@KKOPPDBE@SimRadarAzimuthScanChange?$AA@ ; `string'
PUBLIC	?max_exponent@?$numeric_limits@N@std@@2HB	; std::numeric_limits<double>::max_exponent
PUBLIC	??_C@_0BA@FKEJHBMF@SimRadarFOVStep?$AA@		; `string'
PUBLIC	??_C@_0BD@BFNDIIN@SimMaverickFOVStep?$AA@	; `string'
PUBLIC	??_C@_0O@MLMCFAIH@SimSOIFOVStep?$AA@		; `string'
PUBLIC	??_C@_0P@JNBAPDJA@SimRadarFreeze?$AA@		; `string'
PUBLIC	?max_exponent10@?$numeric_limits@N@std@@2HB	; std::numeric_limits<double>::max_exponent10
PUBLIC	??_C@_0BB@GGJFFPCP@SimRadarSnowplow?$AA@	; `string'
PUBLIC	??_C@_0BD@MPDOOLON@SimRadarCursorZero?$AA@	; `string'
PUBLIC	??_C@_0BA@FLBIPDMA@SimACMBoresight?$AA@		; `string'
PUBLIC	??_C@_0N@CMDPKKNG@SimDesignate?$AA@		; `string'
PUBLIC	?min_exponent@?$numeric_limits@N@std@@2HB	; std::numeric_limits<double>::min_exponent
PUBLIC	??_C@_0P@BMFPGAOA@SimACMVertical?$AA@		; `string'
PUBLIC	??_C@_0N@JNNIOPOM@SimDropTrack?$AA@		; `string'
PUBLIC	??_C@_0L@PGMJBDAA@SimACMSlew?$AA@		; `string'
PUBLIC	??_C@_0M@POIFBCBJ@SimACM30x20?$AA@		; `string'
PUBLIC	?min_exponent10@?$numeric_limits@N@std@@2HB	; std::numeric_limits<double>::min_exponent10
PUBLIC	??_C@_0BG@NGDHHKLA@SimRadarElevationDown?$AA@	; `string'
PUBLIC	??_C@_0BE@MJBPJLGD@SimRadarElevationUp?$AA@	; `string'
PUBLIC	??_C@_0BC@EPENJGDC@SimRWRSetPriority?$AA@	; `string'
PUBLIC	??_C@_0BD@MHEFHELH@SimRWRSetTargetSep?$AA@	; `string'
PUBLIC	??_C@_0BC@LBOFIICG@SimRWRSetUnknowns?$AA@	; `string'
PUBLIC	??_C@_0P@HEECIKBC@SimRWRSetNaval?$AA@		; `string'
PUBLIC	??_C@_0BI@MADFNLPH@SimRWRSetGroundPriority?$AA@	; `string'
PUBLIC	??_C@_0BA@FIEBJJKL@SimRWRSetSearch?$AA@		; `string'
PUBLIC	??_C@_0O@PIEGPIEC@SimRWRHandoff?$AA@		; `string'
PUBLIC	??_C@_0BA@JNJBGDPL@SimNextWaypoint?$AA@		; `string'
PUBLIC	??_C@_0BA@MKGHJEBD@SimPrevWaypoint?$AA@		; `string'
PUBLIC	??_C@_0BA@OBILHJGM@SimTogglePaused?$AA@		; `string'
PUBLIC	??_C@_09JCKEEPEL@SimPickle?$AA@			; `string'
PUBLIC	??_C@_0L@KOGMKIIL@SimTrigger?$AA@		; `string'
PUBLIC	??_C@_0P@KMNPJGDH@SimMissileStep?$AA@		; `string'
PUBLIC	??_C@_0M@KKLNJFGM@SimCursorUp?$AA@		; `string'
PUBLIC	??_C@_0O@LGBHCINK@SimCursorDown?$AA@		; `string'
PUBLIC	??_C@_0O@EEBDLAOD@SimCursorLeft?$AA@		; `string'
PUBLIC	??_C@_0P@CDLIKPBL@SimCursorRight?$AA@		; `string'
PUBLIC	??_C@_0BD@ECGNIKPA@SimToggleAutopilot?$AA@	; `string'
PUBLIC	??_C@_0P@PMHCDOKK@SimStepSMSLeft?$AA@		; `string'
PUBLIC	??_C@_0BA@CMAADHKB@SimStepSMSRight?$AA@		; `string'
PUBLIC	??_C@_0BF@LFMKPEH@SimSelectSRMOverride?$AA@	; `string'
PUBLIC	??_C@_0BF@OOHFJBKF@SimSelectMRMOverride?$AA@	; `string'
PUBLIC	??_C@_0BE@CNCPKAPN@SimDeselectOverride?$AA@	; `string'
PUBLIC	??_C@_0BF@DADIALPP@SimToggleMissileCage?$AA@	; `string'
PUBLIC	??_C@_0BJ@OAOJIDBC@SimToggleMissileSpotScan?$AA@ ; `string'
PUBLIC	??_C@_0BK@OGLELGMG@SimToggleMissileBoreSlave?$AA@ ; `string'
PUBLIC	??_C@_0BL@OCBLFLKM@SimToggleMissileTDBPUncage?$AA@ ; `string'
PUBLIC	??_C@_0N@BKDOOOEK@SimDropChaff?$AA@		; `string'
PUBLIC	?digits@?$numeric_limits@O@std@@2HB		; std::numeric_limits<long double>::digits
PUBLIC	??_C@_0N@IPHBIBFG@SimDropFlare?$AA@		; `string'
PUBLIC	??_C@_0BC@DECOPFMP@SimHSDRangeStepUp?$AA@	; `string'
PUBLIC	??_C@_0BE@HOIPDIDL@SimHSDRangeStepDown?$AA@	; `string'
PUBLIC	?digits10@?$numeric_limits@O@std@@2HB		; std::numeric_limits<long double>::digits10
PUBLIC	??_C@_0BE@JGKENLLP@SimToggleInvincible?$AA@	; `string'
PUBLIC	??_C@_0BC@PLBDKNNA@SimFCCSubModeStep?$AA@	; `string'
PUBLIC	??_C@_0N@LFEKCEHJ@SimEndFlight?$AA@		; `string'
PUBLIC	?max_digits10@?$numeric_limits@O@std@@2HB	; std::numeric_limits<long double>::max_digits10
PUBLIC	??_C@_0BA@FEGKNNCH@SimNextAAWeapon?$AA@		; `string'
PUBLIC	??_C@_0BA@JCAFNEKA@SimNextAGWeapon?$AA@		; `string'
PUBLIC	??_C@_0P@DEEDEPNK@SimNextNavMode?$AA@		; `string'
PUBLIC	??_C@_08PGMBDKNO@SimEject?$AA@			; `string'
PUBLIC	?max_exponent@?$numeric_limits@O@std@@2HB	; std::numeric_limits<long double>::max_exponent
PUBLIC	??_C@_0M@PMKOMPID@AFBrakesOut?$AA@		; `string'
PUBLIC	??_C@_0L@ONJEPNFG@AFBrakesIn?$AA@		; `string'
PUBLIC	??_C@_0P@IBBNIGMM@AFBrakesToggle?$AA@		; `string'
PUBLIC	??_C@_0N@NIICJKHL@AFGearToggle?$AA@		; `string'
PUBLIC	?max_exponent10@?$numeric_limits@O@std@@2HB	; std::numeric_limits<long double>::max_exponent10
PUBLIC	??_C@_08MGFEEBCG@AFGearUp?$AA@			; `string'
PUBLIC	??_C@_0L@DNDPPFHB@AFGearDown?$AA@		; `string'
PUBLIC	??_C@_0N@HNKPPLEM@AFElevatorUp?$AA@		; `string'
PUBLIC	??_C@_0P@IJJJJHDF@AFElevatorDown?$AA@		; `string'
PUBLIC	?min_exponent@?$numeric_limits@O@std@@2HB	; std::numeric_limits<long double>::min_exponent
PUBLIC	??_C@_0O@IFGNNACM@AFAileronLeft?$AA@		; `string'
PUBLIC	??_C@_0P@CIKCAOFK@AFAileronRight?$AA@		; `string'
PUBLIC	??_C@_0N@POBODBK@AFThrottleUp?$AA@		; `string'
PUBLIC	??_C@_0P@HGBEIHPP@AFThrottleDown?$AA@		; `string'
PUBLIC	?min_exponent10@?$numeric_limits@O@std@@2HB	; std::numeric_limits<long double>::min_exponent10
PUBLIC	??_C@_0O@PENCKKIE@AFRudderRight?$AA@		; `string'
PUBLIC	??_C@_0N@CDMEMBAC@AFRudderLeft?$AA@		; `string'
PUBLIC	??_C@_0BD@LFLPKACA@AFCoarseThrottleUp?$AA@	; `string'
PUBLIC	??_C@_0BF@LMGIPDPC@AFCoarseThrottleDown?$AA@	; `string'
PUBLIC	??_C@_06INNINKKG@AFABOn?$AA@			; `string'
PUBLIC	??_C@_06OBAOEAPH@AFIdle?$AA@			; `string'
PUBLIC	??_C@_0BB@JCKFHFKF@OTWTimeOfDayStep?$AA@	; `string'
PUBLIC	??_C@_00CNPNBAHC@?$AA@				; `string'
PUBLIC	??_C@_0O@NHBNBHNO@OTWStepNextAC?$AA@		; `string'
PUBLIC	??_C@_0O@MMFGFJNG@OTWStepPrevAC?$AA@		; `string'
PUBLIC	??_C@_0BD@KJMFCDKF@OTWStepNextPadlock?$AA@	; `string'
PUBLIC	??_C@_0BD@DHIHOONB@OTWStepPrevPadlock?$AA@	; `string'
PUBLIC	??_C@_0BF@OJCNAJKI@OTWStepNextPadlockAA?$AA@	; `string'
PUBLIC	??_C@_0BF@EHKLJFBF@OTWStepPrevPadlockAA?$AA@	; `string'
PUBLIC	??_C@_0BF@LPHHKOCO@OTWStepNextPadlockAG?$AA@	; `string'
PUBLIC	??_C@_0BF@BBPBDCJD@OTWStepPrevPadlockAG?$AA@	; `string'
PUBLIC	??_C@_0P@EHOBCOMJ@OTWToggleNames?$AA@		; `string'
PUBLIC	??_C@_0BD@MJKHKCIP@OTWToggleCampNames?$AA@	; `string'
PUBLIC	??_C@_0BH@FBEIIDHA@OTWSelectF3PadlockMode?$AA@	; `string'
PUBLIC	??_C@_0BJ@MDLEGDJH@OTWSelectF3PadlockModeAA?$AA@ ; `string'
PUBLIC	??_C@_0BJ@JFOOMEBB@OTWSelectF3PadlockModeAG?$AA@ ; `string'
PUBLIC	??_C@_0BJ@ICDCGCGE@OTWSelectEFOVPadlockMode?$AA@ ; `string'
PUBLIC	??_C@_0BL@DKBHLFFG@OTWSelectEFOVPadlockModeAA?$AA@ ; `string'
PUBLIC	??_C@_0BL@GMENBCNA@OTWSelectEFOVPadlockModeAG?$AA@ ; `string'
PUBLIC	??_C@_0BB@FMHIIINM@OTWRadioMenuStep?$AA@	; `string'
PUBLIC	??_C@_0BF@GLKOPOGC@OTWRadioMenuStepBack?$AA@	; `string'
PUBLIC	??_C@_0M@ELMJBHGL@OTWStepMFD1?$AA@		; `string'
PUBLIC	??_C@_0M@GAOEEEKI@OTWStepMFD2?$AA@		; `string'
PUBLIC	??_C@_0M@HJPPHFOJ@OTWStepMFD3?$AA@		; `string'
PUBLIC	??_C@_0M@DGLOODCO@OTWStepMFD4?$AA@		; `string'
PUBLIC	??_C@_0BA@NHPJAED@OTWToggleScales?$AA@		; `string'
PUBLIC	??_C@_0BG@MIPIDHN@OTWToggleActionCamera?$AA@	; `string'
PUBLIC	??_C@_0BF@EOHKCCOH@OTWTogglePitchLadder?$AA@	; `string'
PUBLIC	??_C@_0BC@CEPHDMIJ@SimPitchLadderOff?$AA@	; `string'
PUBLIC	??_C@_0BC@PGJBHEI@SimPitchLadderFPM?$AA@	; `string'
PUBLIC	??_C@_0BF@OLLGBAGP@SimPitchLadderATTFPM?$AA@	; `string'
PUBLIC	??_C@_0BE@BJKPFBBC@OTWStepHeadingScale?$AA@	; `string'
PUBLIC	??_C@_0BB@PMPIFGHL@OTWSelectHUDMode?$AA@	; `string'
PUBLIC	??_C@_0O@DNLCJCFA@OTWToggleGLOC?$AA@		; `string'
PUBLIC	??_C@_0BD@HFDELECC@OTWSelectChaseMode?$AA@	; `string'
PUBLIC	??_C@_0BD@NDENIJBO@OTWSelectOrbitMode?$AA@	; `string'
PUBLIC	??_C@_0BJ@EIKEGJGA@OTWSelectAirFriendlyMode?$AA@ ; `string'
PUBLIC	??_C@_0BM@FNBGBGIE@OTWSelectGroundFriendlyMode?$AA@ ; `string'
PUBLIC	??_C@_0BG@HGGFDMLP@OTWSelectAirEnemyMode?$AA@	; `string'
PUBLIC	??_C@_0BJ@NFOBBGD@OTWSelectGroundEnemyMode?$AA@	; `string'
PUBLIC	??_C@_0BE@JFEMJGGC@OTWSelectTargetMode?$AA@	; `string'
PUBLIC	??_C@_0BE@OAELGICM@OTWSelectWeaponMode?$AA@	; `string'
PUBLIC	??_C@_0BH@DMKKEKAN@OTWSelectSatelliteMode?$AA@	; `string'
PUBLIC	??_C@_0BD@NEBCFBGO@OTWSelectFlybyMode?$AA@	; `string'
PUBLIC	??_C@_0BG@JOPNOLD@OTWSelectIncomingMode?$AA@	; `string'
PUBLIC	??_C@_0BD@ENMAKJBL@OTWShowTestVersion?$AA@	; `string'
PUBLIC	??_C@_0P@KFFJOCFM@OTWShowVersion?$AA@		; `string'
PUBLIC	??_C@_0BH@DJCKGLMP@OTWSelect2DCockpitMode?$AA@	; `string'
PUBLIC	??_C@_0BH@KECFIKLJ@OTWSelect3DCockpitMode?$AA@	; `string'
PUBLIC	??_C@_0BI@PFEJJFMN@OTWToggleBilinearFilter?$AA@	; `string'
PUBLIC	??_C@_0BB@KJDLACHK@OTWToggleShading?$AA@	; `string'
PUBLIC	??_C@_0O@MMENGDN@OTWToggleHaze?$AA@		; `string'
PUBLIC	??_C@_0BJ@ILHHCFDJ@OTWToggleLocationDisplay?$AA@ ; `string'
PUBLIC	??_C@_0BF@PBJMDIOI@OTWToggleAeroDisplay?$AA@	; `string'
PUBLIC	??_C@_0BF@EBKJFIKJ@OTWToggleFlapDisplay?$AA@	; `string'
PUBLIC	??_C@_0BH@IAOEHJPM@OTWToggleEngineDisplay?$AA@	; `string'
PUBLIC	??_C@_0N@FPNLONGA@OTWScaleDown?$AA@		; `string'
PUBLIC	??_C@_0L@MACJNPMF@OTWScaleUp?$AA@		; `string'
PUBLIC	??_C@_0BA@KENCACC@OTWSetObjDetail?$AA@		; `string'
PUBLIC	??_C@_0BB@PKHMOPEB@OTWObjDetailDown?$AA@	; `string'
PUBLIC	??_C@_0P@BAOLLOKP@OTWObjDetailUp?$AA@		; `string'
PUBLIC	??_C@_0BA@IBEHCBL@OTWToggleClouds?$AA@		; `string'
PUBLIC	??_C@_0BF@OGPHJBEH@OTWStepHudContrastDn?$AA@	; `string'
PUBLIC	??_C@_0BF@CPFCGHNP@OTWStepHudContrastUp?$AA@	; `string'
PUBLIC	??_C@_0BA@GEANCCNF@OTWToggleEyeFly?$AA@		; `string'
PUBLIC	??_C@_0BB@BKDDPOHJ@OTWEnterPosition?$AA@	; `string'
PUBLIC	??_C@_0BD@CLCFALLF@OTWToggleFrameRate?$AA@	; `string'
PUBLIC	??_C@_0BD@FCALNECN@OTWToggleAutoScale?$AA@	; `string'
PUBLIC	??_C@_0M@BANEEPNG@OTWSetScale?$AA@		; `string'
PUBLIC	??_C@_0M@MCMFEGMI@OTWViewLeft?$AA@		; `string'
PUBLIC	??_C@_0N@IPICIAKN@OTWViewRight?$AA@		; `string'
PUBLIC	??_C@_09IOBFFGKL@OTWViewUp?$AA@			; `string'
PUBLIC	??_C@_0M@DAMBNOPB@OTWViewDown?$AA@		; `string'
PUBLIC	??_C@_0N@JNNBDODH@OTWViewReset?$AA@		; `string'
PUBLIC	??_C@_0P@CIHOHPLH@OTWViewUpRight?$AA@		; `string'
PUBLIC	??_C@_0O@FJBMDNCM@OTWViewUpLeft?$AA@		; `string'
PUBLIC	??_C@_0BB@ICPGCIND@OTWViewDownRight?$AA@	; `string'
PUBLIC	??_C@_0BA@NLAHAGEC@OTWViewDownLeft?$AA@		; `string'
PUBLIC	??_C@_0O@JNDNHLLG@OTWViewZoomIn?$AA@		; `string'
PUBLIC	??_C@_0P@FMNEIEHN@OTWViewZoomOut?$AA@		; `string'
PUBLIC	??_C@_0M@GGMCDNLO@OTWSwapMFDS?$AA@		; `string'
PUBLIC	??_C@_0BB@MDACAKHF@OTWGlanceForward?$AA@	; `string'
PUBLIC	??_C@_0M@HBDHFNLN@OTWCheckSix?$AA@		; `string'
PUBLIC	??_C@_0N@FNHAMDLM@OTWStateStep?$AA@		; `string'
PUBLIC	??_C@_0BE@EHFEMJDM@CommandsSetKeyCombo?$AA@	; `string'
PUBLIC	??_C@_0BA@NOAJGLBJ@KevinsFistOfGod?$AA@		; `string'
PUBLIC	??_C@_0M@EEFKMFLA@SuperCruise?$AA@		; `string'
PUBLIC	??_C@_0M@NINGGEPA@OTW1200View?$AA@		; `string'
PUBLIC	??_C@_0N@OFAAIPCI@OTW1200DView?$AA@		; `string'
PUBLIC	??_C@_0P@IFAKMICB@OTW1200HUDView?$AA@		; `string'
PUBLIC	??_C@_0N@JFDANEF@OTW1200LView?$AA@		; `string'
PUBLIC	??_C@_0M@JKPDGDIN@OTW1000View?$AA@		; `string'
PUBLIC	??_C@_0L@MDOKDLFA@OTW200View?$AA@		; `string'
PUBLIC	??_C@_0L@JOIACHAG@OTW900View?$AA@		; `string'
PUBLIC	??_C@_0L@PEADLMO@OTW300View?$AA@		; `string'
PUBLIC	??_C@_0L@FCCKCHJI@OTW800View?$AA@		; `string'
PUBLIC	??_C@_0L@FIFDCNH@OTW400View?$AA@		; `string'
PUBLIC	??_C@_0N@DAIPGOKO@OTW1200RView?$AA@		; `string'
PUBLIC	??_C@_0BB@JNLNNKHD@RadioMessageSend?$AA@	; `string'
PUBLIC	??_C@_0BC@JFODPOJI@SimToggleChatMode?$AA@	; `string'
PUBLIC	??_C@_0BA@FJMPELI@SimMotionFreeze?$AA@		; `string'
PUBLIC	??_C@_0L@GLCDFILJ@ScreenShot?$AA@		; `string'
PUBLIC	??_C@_0BB@JKEOBIFK@PrettyScreenShot?$AA@	; `string'
PUBLIC	??_C@_09OHCPGPJD@FOVToggle?$AA@			; `string'
PUBLIC	??_C@_0M@NBHKBHHA@FOVDecrease?$AA@		; `string'
PUBLIC	??_C@_0M@HNFPOMHB@FOVIncrease?$AA@		; `string'
PUBLIC	??_C@_0L@JMKFDKJJ@FOVDefault?$AA@		; `string'
PUBLIC	??_C@_0O@CLFILIKF@SimAVTRToggle?$AA@		; `string'
PUBLIC	??_C@_0BF@PHOLOOPB@SimSelectiveJettison?$AA@	; `string'
PUBLIC	??_C@_0BF@NFKKMPFN@SimEmergencyJettison?$AA@	; `string'
PUBLIC	??_C@_0P@EPBDAHFE@SimWheelBrakes?$AA@		; `string'
PUBLIC	??_C@_08NOOMLFCF@SimECMOn?$AA@			; `string'
PUBLIC	??_C@_0O@JADEJABL@SimECMStandby?$AA@		; `string'
PUBLIC	??_C@_0O@OEHIGIKO@SimECMConsent?$AA@		; `string'
PUBLIC	??_C@_0BI@DBGIKNPC@SimRadarElevationCenter?$AA@	; `string'
PUBLIC	??_C@_0BA@DNIMDODG@SimHsiCourseInc?$AA@		; `string'
PUBLIC	??_C@_0BA@MDLDAJAK@SimHsiCourseDec?$AA@		; `string'
PUBLIC	??_C@_0BB@BMAJLLGN@SimHsiHeadingInc?$AA@	; `string'
PUBLIC	??_C@_0BB@OCDGIMFB@SimHsiHeadingDec?$AA@	; `string'
PUBLIC	??_C@_0BA@HKOFIKPI@SimHsiCrsIncBy1?$AA@		; `string'
PUBLIC	??_C@_0BA@HBPFBLPL@SimHsiCrsDecBy1?$AA@		; `string'
PUBLIC	??_C@_0BA@KFCOHFCF@SimHsiHdgIncBy1?$AA@		; `string'
PUBLIC	??_C@_0BA@KODOOECG@SimHsiHdgDecBy1?$AA@		; `string'
PUBLIC	??_C@_0N@HJEHMLCJ@SimMPOToggle?$AA@		; `string'
PUBLIC	??_C@_06EMNEMDFP@SimMPO?$AA@			; `string'
PUBLIC	??_C@_0P@OBAEMMJM@SimSilenceHorn?$AA@		; `string'
PUBLIC	?value@?$_Sizeof@U_Nil@std@@U12@U12@U12@U12@U12@U12@U12@@std@@2IB ; std::_Sizeof<std::_Nil,std::_Nil,std::_Nil,std::_Nil,std::_Nil,std::_Nil,std::_Nil,std::_Nil>::value
PUBLIC	??_C@_0P@EKIPOLBD@SimStepHSIMode?$AA@		; `string'
PUBLIC	??_C@_0N@HPEHECHE@SimHSIIlsTcn?$AA@		; `string'
PUBLIC	??_C@_09KIOFPIIN@SimHSITcn?$AA@			; `string'
PUBLIC	??_C@_09BGNOADEB@SimHSINav?$AA@			; `string'
PUBLIC	??_C@_0N@MBHMLJLI@SimHSIIlsNav?$AA@		; `string'
PUBLIC	??_C@_0N@HOIFNAHF@SimCBEOSB_1L?$AA@		; `string'
PUBLIC	??_C@_0N@HMMDGOCM@SimCBEOSB_2L?$AA@		; `string'
PUBLIC	??_C@_0N@HNABAEBL@SimCBEOSB_3L?$AA@		; `string'
PUBLIC	??_C@_0N@HIEOBCJO@SimCBEOSB_4L?$AA@		; `string'
PUBLIC	??_C@_0N@HJIMHIKJ@SimCBEOSB_5L?$AA@		; `string'
PUBLIC	??_C@_0N@HLMKMGPA@SimCBEOSB_6L?$AA@		; `string'
PUBLIC	??_C@_0N@HKAIKMMH@SimCBEOSB_7L?$AA@		; `string'
PUBLIC	??_C@_0N@HBFEOLPK@SimCBEOSB_8L?$AA@		; `string'
PUBLIC	??_C@_0N@HAJGIBMN@SimCBEOSB_9L?$AA@		; `string'
PUBLIC	??_C@_0O@CBDGJBFO@SimCBEOSB_10L?$AA@		; `string'
PUBLIC	??_C@_0O@CAPEPLGJ@SimCBEOSB_11L?$AA@		; `string'
PUBLIC	??_C@_0O@CCLCEFDA@SimCBEOSB_12L?$AA@		; `string'
PUBLIC	??_C@_0O@CDHACPAH@SimCBEOSB_13L?$AA@		; `string'
PUBLIC	??_C@_0O@CGDPDJIC@SimCBEOSB_14L?$AA@		; `string'
PUBLIC	??_C@_0O@CHPNFDLF@SimCBEOSB_15L?$AA@		; `string'
PUBLIC	??_C@_0O@CFLLONOM@SimCBEOSB_16L?$AA@		; `string'
PUBLIC	??_C@_0O@CEHJIHNL@SimCBEOSB_17L?$AA@		; `string'
PUBLIC	??_C@_0O@CPCFMAOG@SimCBEOSB_18L?$AA@		; `string'
PUBLIC	??_C@_0O@COOHKKNB@SimCBEOSB_19L?$AA@		; `string'
PUBLIC	??_C@_0O@DDIDDOLA@SimCBEOSB_20L?$AA@		; `string'
PUBLIC	??_C@_0N@KKMEOPKK@SimCBEOSB_1R?$AA@		; `string'
PUBLIC	??_C@_0N@KIICFBPD@SimCBEOSB_2R?$AA@		; `string'
PUBLIC	??_C@_0N@KJEADLME@SimCBEOSB_3R?$AA@		; `string'
PUBLIC	??_C@_0N@KMAPCNEB@SimCBEOSB_4R?$AA@		; `string'
PUBLIC	??_C@_0N@KNMNEHHG@SimCBEOSB_5R?$AA@		; `string'
PUBLIC	??_C@_0N@KPILPJCP@SimCBEOSB_6R?$AA@		; `string'
PUBLIC	??_C@_0N@KOEJJDBI@SimCBEOSB_7R?$AA@		; `string'
PUBLIC	??_C@_0N@KFBFNECF@SimCBEOSB_8R?$AA@		; `string'
PUBLIC	??_C@_0N@KENHLOBC@SimCBEOSB_9R?$AA@		; `string'
PUBLIC	??_C@_0O@PFHHKOIB@SimCBEOSB_10R?$AA@		; `string'
PUBLIC	??_C@_0O@PELFMELG@SimCBEOSB_11R?$AA@		; `string'
PUBLIC	??_C@_0O@PGPDHKOP@SimCBEOSB_12R?$AA@		; `string'
PUBLIC	??_C@_0O@PHDBBANI@SimCBEOSB_13R?$AA@		; `string'
PUBLIC	??_C@_0O@PCHOAGFN@SimCBEOSB_14R?$AA@		; `string'
PUBLIC	??_C@_0O@PDLMGMGK@SimCBEOSB_15R?$AA@		; `string'
PUBLIC	??_C@_0O@PBPKNCDD@SimCBEOSB_16R?$AA@		; `string'
PUBLIC	??_C@_0O@PADILIAE@SimCBEOSB_17R?$AA@		; `string'
PUBLIC	??_C@_0O@PLGEPPDJ@SimCBEOSB_18R?$AA@		; `string'
PUBLIC	??_C@_0O@PKKGJFAO@SimCBEOSB_19R?$AA@		; `string'
PUBLIC	??_C@_0O@OHMCABGP@SimCBEOSB_20R?$AA@		; `string'
PUBLIC	??_C@_0BD@KKFNDCNN@SimCBEOSB_GAINUP_L?$AA@	; `string'
PUBLIC	??_C@_0BD@HOBMANAC@SimCBEOSB_GAINUP_R?$AA@	; `string'
PUBLIC	??_C@_0BF@GODNINHF@SimCBEOSB_GAINDOWN_L?$AA@	; `string'
PUBLIC	??_C@_0BF@LKHMLCKK@SimCBEOSB_GAINDOWN_R?$AA@	; `string'
PUBLIC	??_C@_0N@PMJOEICM@SimCBEOSB_1T?$AA@		; `string'
PUBLIC	??_C@_0N@PONIPGHF@SimCBEOSB_2T?$AA@		; `string'
PUBLIC	??_C@_0N@PPBKJMEC@SimCBEOSB_3T?$AA@		; `string'
PUBLIC	??_C@_0N@PKFFIKMH@SimCBEOSB_4T?$AA@		; `string'
PUBLIC	??_C@_0N@PLJHOAPA@SimCBEOSB_5T?$AA@		; `string'
PUBLIC	??_C@_0N@PJNBFOKJ@SimCBEOSB_6T?$AA@		; `string'
PUBLIC	??_C@_0N@PIBDDEJO@SimCBEOSB_7T?$AA@		; `string'
PUBLIC	??_C@_0N@PDEPHDKD@SimCBEOSB_8T?$AA@		; `string'
PUBLIC	??_C@_0N@PCINBJJE@SimCBEOSB_9T?$AA@		; `string'
PUBLIC	??_C@_0O@KDCNAJAH@SimCBEOSB_10T?$AA@		; `string'
PUBLIC	??_C@_0O@KCOPGDDA@SimCBEOSB_11T?$AA@		; `string'
PUBLIC	??_C@_0O@KAKJNNGJ@SimCBEOSB_12T?$AA@		; `string'
PUBLIC	??_C@_0O@KBGLLHFO@SimCBEOSB_13T?$AA@		; `string'
PUBLIC	??_C@_0O@KECEKBNL@SimCBEOSB_14T?$AA@		; `string'
PUBLIC	??_C@_0O@KFOGMLOM@SimCBEOSB_15T?$AA@		; `string'
PUBLIC	??_C@_0O@KHKAHFLF@SimCBEOSB_16T?$AA@		; `string'
PUBLIC	??_C@_0O@KGGCBPIC@SimCBEOSB_17T?$AA@		; `string'
PUBLIC	??_C@_0O@KNDOFILP@SimCBEOSB_18T?$AA@		; `string'
PUBLIC	??_C@_0O@KMPMDCII@SimCBEOSB_19T?$AA@		; `string'
PUBLIC	??_C@_0O@LBJIKGOJ@SimCBEOSB_20T?$AA@		; `string'
PUBLIC	??_C@_0N@IEGKDIPP@SimCBEOSB_1F?$AA@		; `string'
PUBLIC	??_C@_0N@IGCMIGKG@SimCBEOSB_2F?$AA@		; `string'
PUBLIC	??_C@_0N@IHOOOMJB@SimCBEOSB_3F?$AA@		; `string'
PUBLIC	??_C@_0N@ICKBPKBE@SimCBEOSB_4F?$AA@		; `string'
PUBLIC	??_C@_0N@IDGDJACD@SimCBEOSB_5F?$AA@		; `string'
PUBLIC	??_C@_0N@IBCFCOHK@SimCBEOSB_6F?$AA@		; `string'
PUBLIC	??_C@_0N@IAOHEEEN@SimCBEOSB_7F?$AA@		; `string'
PUBLIC	??_C@_0N@ILLLADHA@SimCBEOSB_8F?$AA@		; `string'
PUBLIC	??_C@_0N@IKHJGJEH@SimCBEOSB_9F?$AA@		; `string'
PUBLIC	??_C@_0O@NLNJHJNE@SimCBEOSB_10F?$AA@		; `string'
PUBLIC	??_C@_0O@NKBLBDOD@SimCBEOSB_11F?$AA@		; `string'
PUBLIC	??_C@_0O@NIFNKNLK@SimCBEOSB_12F?$AA@		; `string'
PUBLIC	??_C@_0O@NJJPMHIN@SimCBEOSB_13F?$AA@		; `string'
PUBLIC	??_C@_0O@NMNANBAI@SimCBEOSB_14F?$AA@		; `string'
PUBLIC	??_C@_0O@NNBCLLDP@SimCBEOSB_15F?$AA@		; `string'
PUBLIC	??_C@_0O@NPFEAFGG@SimCBEOSB_16F?$AA@		; `string'
PUBLIC	??_C@_0O@NOJGGPFB@SimCBEOSB_17F?$AA@		; `string'
PUBLIC	??_C@_0O@NFMKCIGM@SimCBEOSB_18F?$AA@		; `string'
PUBLIC	??_C@_0O@NEAIECFL@SimCBEOSB_19F?$AA@		; `string'
PUBLIC	??_C@_0O@MJGMNGDK@SimCBEOSB_20F?$AA@		; `string'
PUBLIC	??_C@_0BD@CIEGKKIE@SimCBEOSB_GAINUP_T?$AA@	; `string'
PUBLIC	?has_denorm@_Num_base@std@@2W4float_denorm_style@2@B ; std::_Num_base::has_denorm
PUBLIC	??_C@_0BD@FALCNKFH@SimCBEOSB_GAINUP_F?$AA@	; `string'
PUBLIC	??_C@_0BF@OMCGBFCM@SimCBEOSB_GAINDOWN_T?$AA@	; `string'
PUBLIC	??_C@_0BF@JENCGFPP@SimCBEOSB_GAINDOWN_F?$AA@	; `string'
PUBLIC	?has_denorm_loss@_Num_base@std@@2_NB		; std::_Num_base::has_denorm_loss
PUBLIC	??_C@_0L@HJNMAGCF@SimICPTILS?$AA@		; `string'
PUBLIC	??_C@_0L@IACIJFLI@SimICPALOW?$AA@		; `string'
PUBLIC	??_C@_0L@ICMGFHAO@SimICPFAck?$AA@		; `string'
PUBLIC	?has_infinity@_Num_base@std@@2_NB		; std::_Num_base::has_infinity
PUBLIC	??_C@_0P@LOHFOEDP@SimICPPrevious?$AA@		; `string'
PUBLIC	??_C@_0L@EAMPGGKJ@SimICPNext?$AA@		; `string'
PUBLIC	??_C@_0L@KFCIFLCN@SimICPLink?$AA@		; `string'
PUBLIC	?has_quiet_NaN@_Num_base@std@@2_NB		; std::_Num_base::has_quiet_NaN
PUBLIC	??_C@_0L@DCAIMIKK@SimICPCrus?$AA@		; `string'
PUBLIC	??_C@_0L@DOAJFENI@SimICPStpt?$AA@		; `string'
PUBLIC	??_C@_0L@EIMAAAGG@SimICPMark?$AA@		; `string'
PUBLIC	?has_signaling_NaN@_Num_base@std@@2_NB		; std::_Num_base::has_signaling_NaN
PUBLIC	??_C@_0M@PIGGHIHD@SimICPEnter?$AA@		; `string'
PUBLIC	??_C@_0L@EAABJIKH@SimICPCom1?$AA@		; `string'
PUBLIC	??_C@_09NOIPPPJN@SimICPNav?$AA@			; `string'
PUBLIC	?is_bounded@_Num_base@std@@2_NB			; std::_Num_base::is_bounded
PUBLIC	??_C@_08BDNPOPHL@SimICPAA?$AA@			; `string'
PUBLIC	??_C@_08EFIFEIPN@SimICPAG?$AA@			; `string'
PUBLIC	??_C@_0N@HBPOFLHI@SimHUDScales?$AA@		; `string'
PUBLIC	?is_exact@_Num_base@std@@2_NB			; std::_Num_base::is_exact
PUBLIC	??_C@_0P@FFKMBKEN@SimScalesVVVAH?$AA@		; `string'
PUBLIC	??_C@_0N@EMDPBPII@SimScalesVAH?$AA@		; `string'
PUBLIC	??_C@_0N@FHCLFONE@SimScalesOff?$AA@		; `string'
PUBLIC	?is_iec559@_Num_base@std@@2_NB			; std::_Num_base::is_iec559
PUBLIC	??_C@_09OELIGMJN@SimHUDFPM?$AA@			; `string'
PUBLIC	??_C@_09IFJOHOME@SimHUDDED?$AA@			; `string'
PUBLIC	??_C@_0N@IMCHOHPK@SimHUDDEDOff?$AA@		; `string'
PUBLIC	?is_integer@_Num_base@std@@2_NB			; std::_Num_base::is_integer
PUBLIC	??_C@_0N@NDHLCKPL@SimHUDDEDPFL?$AA@		; `string'
PUBLIC	??_C@_0N@MGJPNOGC@SimHUDDEDDED?$AA@		; `string'
PUBLIC	??_C@_0P@GNAFBFLC@SimHUDVelocity?$AA@		; `string'
PUBLIC	?is_modulo@_Num_base@std@@2_NB			; std::_Num_base::is_modulo
PUBLIC	??_C@_0BC@OIGKCGDL@SimHUDVelocityCAS?$AA@	; `string'
PUBLIC	??_C@_0BC@CFKEEJBN@SimHUDVelocityTAS?$AA@	; `string'
PUBLIC	??_C@_0BC@GJNHHCMH@SimHUDVelocityGND?$AA@	; `string'
PUBLIC	?is_signed@_Num_base@std@@2_NB			; std::_Num_base::is_signed
PUBLIC	??_C@_0M@NMLLGPA@SimHUDRadar?$AA@		; `string'
PUBLIC	??_C@_0P@CHINNEBG@SimHUDAltRadar?$AA@		; `string'
PUBLIC	??_C@_0O@NHFGMJKP@SimHUDAltBaro?$AA@		; `string'
PUBLIC	?is_specialized@_Num_base@std@@2_NB		; std::_Num_base::is_specialized
PUBLIC	??_C@_0O@ELAAAPAF@SimHUDAltAuto?$AA@		; `string'
PUBLIC	??_C@_0BA@PCOKIKCB@OTWStepHudColor?$AA@		; `string'
PUBLIC	??_C@_0BB@CGHEOIHB@SimHUDBrightness?$AA@	; `string'
PUBLIC	?tinyness_before@_Num_base@std@@2_NB		; std::_Num_base::tinyness_before
PUBLIC	??_C@_0N@EILNMCEJ@SimHUDBrtDay?$AA@		; `string'
PUBLIC	??_C@_0O@PCGOOPHF@SimHUDBrtAuto?$AA@		; `string'
EXTRN	?SimAuxComBackup@@YAXKHPAX@Z:PROC		; SimAuxComBackup
EXTRN	?SimPitchLadderFPM@@YAXKHPAX@Z:PROC		; SimPitchLadderFPM
EXTRN	?SimInhibitVMS@@YAXKHPAX@Z:PROC			; SimInhibitVMS
EXTRN	?SimAuxComUFC@@YAXKHPAX@Z:PROC			; SimAuxComUFC
EXTRN	?SimVMSOn@@YAXKHPAX@Z:PROC			; SimVMSOn
EXTRN	?SimPitchLadderATTFPM@@YAXKHPAX@Z:PROC		; SimPitchLadderATTFPM
EXTRN	?SimVMSOff@@YAXKHPAX@Z:PROC			; SimVMSOff
EXTRN	?OTWStepHeadingScale@@YAXKHPAX@Z:PROC		; OTWStepHeadingScale
EXTRN	?SimToggleAuxComAATR@@YAXKHPAX@Z:PROC		; SimToggleAuxComAATR
EXTRN	?SimRFSwitch@@YAXKHPAX@Z:PROC			; SimRFSwitch
EXTRN	?OTWSelectHUDMode@@YAXKHPAX@Z:PROC		; OTWSelectHUDMode
EXTRN	?SimTACANTR@@YAXKHPAX@Z:PROC			; SimTACANTR
EXTRN	?SimRFNorm@@YAXKHPAX@Z:PROC			; SimRFNorm
EXTRN	?OTWToggleGLOC@@YAXKHPAX@Z:PROC			; OTWToggleGLOC
EXTRN	?SimTACANAATR@@YAXKHPAX@Z:PROC			; SimTACANAATR
EXTRN	?SimRFQuiet@@YAXKHPAX@Z:PROC			; SimRFQuiet
EXTRN	?OTWSelectChaseMode@@YAXKHPAX@Z:PROC		; OTWSelectChaseMode
EXTRN	?SimToggleUHFMaster@@YAXKHPAX@Z:PROC		; SimToggleUHFMaster
EXTRN	?SimTransmitCom1@@YAXKHPAX@Z:PROC		; SimTransmitCom1
EXTRN	?SimRFSilent@@YAXKHPAX@Z:PROC			; SimRFSilent
EXTRN	?OTWSelectOrbitMode@@YAXKHPAX@Z:PROC		; OTWSelectOrbitMode
EXTRN	?SimTransmitCom2@@YAXKHPAX@Z:PROC		; SimTransmitCom2
EXTRN	?SimDropProgrammed@@YAXKHPAX@Z:PROC		; SimDropProgrammed
EXTRN	?OTWSelectAirFriendlyMode@@YAXKHPAX@Z:PROC	; OTWSelectAirFriendlyMode
EXTRN	?SimToggleExtLights@@YAXKHPAX@Z:PROC		; SimToggleExtLights
EXTRN	?SimPinkySwitch@@YAXKHPAX@Z:PROC		; SimPinkySwitch
EXTRN	?OTWSelectIncomingMode@@YAXKHPAX@Z:PROC		; OTWSelectIncomingMode
EXTRN	?SimGndJettEnable@@YAXKHPAX@Z:PROC		; SimGndJettEnable
EXTRN	?SimOpenChatBox@@YAXKHPAX@Z:PROC		; SimOpenChatBox
EXTRN	?OTWSelectGroundFriendlyMode@@YAXKHPAX@Z:PROC	; OTWSelectGroundFriendlyMode
EXTRN	?SimGndJettOn@@YAXKHPAX@Z:PROC			; SimGndJettOn
EXTRN	?SaveCockpitDefaults@@YAXKHPAX@Z:PROC		; SaveCockpitDefaults
EXTRN	?OTWSelectAirEnemyMode@@YAXKHPAX@Z:PROC		; OTWSelectAirEnemyMode
EXTRN	?OTWSelectGroundEnemyMode@@YAXKHPAX@Z:PROC	; OTWSelectGroundEnemyMode
EXTRN	?LoadCockpitDefaults@@YAXKHPAX@Z:PROC		; LoadCockpitDefaults
EXTRN	?SimGndJettOff@@YAXKHPAX@Z:PROC			; SimGndJettOff
EXTRN	?OTWSelectTargetMode@@YAXKHPAX@Z:PROC		; OTWSelectTargetMode
EXTRN	?SimExtlPower@@YAXKHPAX@Z:PROC			; SimExtlPower
EXTRN	?OTWSelectWeaponMode@@YAXKHPAX@Z:PROC		; OTWSelectWeaponMode
EXTRN	?SimExtlMasterNorm@@YAXKHPAX@Z:PROC		; SimExtlMasterNorm
EXTRN	?OTWSelectFlybyMode@@YAXKHPAX@Z:PROC		; OTWSelectFlybyMode
EXTRN	?SimExtlMasterOff@@YAXKHPAX@Z:PROC		; SimExtlMasterOff
EXTRN	?OTWSelectSatelliteMode@@YAXKHPAX@Z:PROC	; OTWSelectSatelliteMode
EXTRN	?SimExtlAntiColl@@YAXKHPAX@Z:PROC		; SimExtlAntiColl
EXTRN	?OTWShowTestVersion@@YAXKHPAX@Z:PROC		; OTWShowTestVersion
EXTRN	?SimAntiCollOn@@YAXKHPAX@Z:PROC			; SimAntiCollOn
EXTRN	?OTWShowVersion@@YAXKHPAX@Z:PROC		; OTWShowVersion
EXTRN	?SimAntiCollOff@@YAXKHPAX@Z:PROC		; SimAntiCollOff
EXTRN	?SimExtlSteady@@YAXKHPAX@Z:PROC			; SimExtlSteady
EXTRN	?OTWSelect2DCockpitMode@@YAXKHPAX@Z:PROC	; OTWSelect2DCockpitMode
EXTRN	?OTWSelect3DCockpitMode@@YAXKHPAX@Z:PROC	; OTWSelect3DCockpitMode
EXTRN	?SimLightsSteady@@YAXKHPAX@Z:PROC		; SimLightsSteady
EXTRN	?OTWToggleBilinearFilter@@YAXKHPAX@Z:PROC	; OTWToggleBilinearFilter
EXTRN	?SimLightsFlash@@YAXKHPAX@Z:PROC		; SimLightsFlash
EXTRN	?OTWToggleShading@@YAXKHPAX@Z:PROC		; OTWToggleShading
EXTRN	?SimExtlWing@@YAXKHPAX@Z:PROC			; SimExtlWing
EXTRN	?SimWingLightBrt@@YAXKHPAX@Z:PROC		; SimWingLightBrt
EXTRN	?OTWToggleHaze@@YAXKHPAX@Z:PROC			; OTWToggleHaze
EXTRN	?SimWingLightOff@@YAXKHPAX@Z:PROC		; SimWingLightOff
EXTRN	?OTWToggleLocationDisplay@@YAXKHPAX@Z:PROC	; OTWToggleLocationDisplay
EXTRN	?RadioTankerCommand@@YAXKHPAX@Z:PROC		; RadioTankerCommand
EXTRN	?SimDMSUp@@YAXKHPAX@Z:PROC			; SimDMSUp
EXTRN	?OTWToggleAeroDisplay@@YAXKHPAX@Z:PROC		; OTWToggleAeroDisplay
EXTRN	?RadioTowerCommand@@YAXKHPAX@Z:PROC		; RadioTowerCommand
EXTRN	?OTWToggleFlapDisplay@@YAXKHPAX@Z:PROC		; OTWToggleFlapDisplay
EXTRN	?SimDMSLeft@@YAXKHPAX@Z:PROC			; SimDMSLeft
EXTRN	?RadioAWACSCommand@@YAXKHPAX@Z:PROC		; RadioAWACSCommand
EXTRN	?OTWToggleEngineDisplay@@YAXKHPAX@Z:PROC	; OTWToggleEngineDisplay
EXTRN	?SimDMSDown@@YAXKHPAX@Z:PROC			; SimDMSDown
EXTRN	?RadioWingCommand@@YAXKHPAX@Z:PROC		; RadioWingCommand
EXTRN	?SimDMSRight@@YAXKHPAX@Z:PROC			; SimDMSRight
EXTRN	?OTWToggleActionCamera@@YAXKHPAX@Z:PROC		; OTWToggleActionCamera
EXTRN	?RadioElementCommand@@YAXKHPAX@Z:PROC		; RadioElementCommand
EXTRN	?SimAVTRSwitch@@YAXKHPAX@Z:PROC			; SimAVTRSwitch
EXTRN	?OTWScaleDown@@YAXKHPAX@Z:PROC			; OTWScaleDown
EXTRN	?RadioFlightCommand@@YAXKHPAX@Z:PROC		; RadioFlightCommand
EXTRN	?SimAVTRSwitchOff@@YAXKHPAX@Z:PROC		; SimAVTRSwitchOff
EXTRN	?OTWScaleUp@@YAXKHPAX@Z:PROC			; OTWScaleUp
EXTRN	?SimAVTRSwitchAuto@@YAXKHPAX@Z:PROC		; SimAVTRSwitchAuto
EXTRN	?OTWSetObjDetail@@YAXKHPAX@Z:PROC		; OTWSetObjDetail
EXTRN	?SimAVTRSwitchOn@@YAXKHPAX@Z:PROC		; SimAVTRSwitchOn
EXTRN	?OTWObjDetailDown@@YAXKHPAX@Z:PROC		; OTWObjDetailDown
EXTRN	?WingmanClearSix@@YAXKHPAX@Z:PROC		; WingmanClearSix
EXTRN	?OTWObjDetailUp@@YAXKHPAX@Z:PROC		; OTWObjDetailUp
EXTRN	?SimAutoAVTR@@YAXKHPAX@Z:PROC			; SimAutoAVTR
EXTRN	?ElementClearSix@@YAXKHPAX@Z:PROC		; ElementClearSix
EXTRN	?SimIFFPower@@YAXKHPAX@Z:PROC			; SimIFFPower
EXTRN	?FlightClearSix@@YAXKHPAX@Z:PROC		; FlightClearSix
EXTRN	?SimIFFIn@@YAXKHPAX@Z:PROC			; SimIFFIn
EXTRN	?WingmanCheckSix@@YAXKHPAX@Z:PROC		; WingmanCheckSix
EXTRN	?SimINSInc@@YAXKHPAX@Z:PROC			; SimINSInc
EXTRN	?OTWToggleClouds@@YAXKHPAX@Z:PROC		; OTWToggleClouds
EXTRN	?ElementCheckSix@@YAXKHPAX@Z:PROC		; ElementCheckSix
EXTRN	?OTWStepHudColor@@YAXKHPAX@Z:PROC		; OTWStepHudColor
EXTRN	?SimINSDec@@YAXKHPAX@Z:PROC			; SimINSDec
EXTRN	?FlightCheckSix@@YAXKHPAX@Z:PROC		; FlightCheckSix
EXTRN	?OTWToggleEyeFly@@YAXKHPAX@Z:PROC		; OTWToggleEyeFly
EXTRN	?SimINSOff@@YAXKHPAX@Z:PROC			; SimINSOff
EXTRN	?WingmanBreakLeft@@YAXKHPAX@Z:PROC		; WingmanBreakLeft
EXTRN	?OTWEnterPosition@@YAXKHPAX@Z:PROC		; OTWEnterPosition
EXTRN	?SimINSNorm@@YAXKHPAX@Z:PROC			; SimINSNorm
EXTRN	?ElementBreakLeft@@YAXKHPAX@Z:PROC		; ElementBreakLeft
EXTRN	?SimINSNav@@YAXKHPAX@Z:PROC			; SimINSNav
EXTRN	?OTWToggleFrameRate@@YAXKHPAX@Z:PROC		; OTWToggleFrameRate
EXTRN	?FlightBreakLeft@@YAXKHPAX@Z:PROC		; FlightBreakLeft
EXTRN	?SimINSInFlt@@YAXKHPAX@Z:PROC			; SimINSInFlt
EXTRN	?OTWToggleAutoScale@@YAXKHPAX@Z:PROC		; OTWToggleAutoScale
EXTRN	?WingmanBreakRight@@YAXKHPAX@Z:PROC		; WingmanBreakRight
EXTRN	?OTWSetScale@@YAXKHPAX@Z:PROC			; OTWSetScale
EXTRN	?SimLEFLockSwitch@@YAXKHPAX@Z:PROC		; SimLEFLockSwitch
EXTRN	?ElementBreakRight@@YAXKHPAX@Z:PROC		; ElementBreakRight
EXTRN	?OTWViewLeft@@YAXKHPAX@Z:PROC			; OTWViewLeft
EXTRN	?SimLEFLock@@YAXKHPAX@Z:PROC			; SimLEFLock
EXTRN	?FlightBreakRight@@YAXKHPAX@Z:PROC		; FlightBreakRight
EXTRN	?SimLEFAuto@@YAXKHPAX@Z:PROC			; SimLEFAuto
EXTRN	?OTWViewRight@@YAXKHPAX@Z:PROC			; OTWViewRight
EXTRN	?WingmanPince@@YAXKHPAX@Z:PROC			; WingmanPince
EXTRN	?SimDigitalBUP@@YAXKHPAX@Z:PROC			; SimDigitalBUP
EXTRN	?OTWViewUp@@YAXKHPAX@Z:PROC			; OTWViewUp
EXTRN	?ElementPince@@YAXKHPAX@Z:PROC			; ElementPince
EXTRN	?OTWViewDown@@YAXKHPAX@Z:PROC			; OTWViewDown
EXTRN	?SimAltFlaps@@YAXKHPAX@Z:PROC			; SimAltFlaps
EXTRN	?FlightPince@@YAXKHPAX@Z:PROC			; FlightPince
EXTRN	?OTWViewDownLeft@@YAXKHPAX@Z:PROC		; OTWViewDownLeft
EXTRN	?SimAltFlapsNorm@@YAXKHPAX@Z:PROC		; SimAltFlapsNorm
EXTRN	?WingmanPosthole@@YAXKHPAX@Z:PROC		; WingmanPosthole
EXTRN	?SimAltFlapsExtend@@YAXKHPAX@Z:PROC		; SimAltFlapsExtend
EXTRN	?OTWViewDownRight@@YAXKHPAX@Z:PROC		; OTWViewDownRight
EXTRN	?ElementPosthole@@YAXKHPAX@Z:PROC		; ElementPosthole
EXTRN	?SimManualFlyup@@YAXKHPAX@Z:PROC		; SimManualFlyup
EXTRN	?OTWViewUpLeft@@YAXKHPAX@Z:PROC			; OTWViewUpLeft
EXTRN	?FlightPosthole@@YAXKHPAX@Z:PROC		; FlightPosthole
EXTRN	?OTWViewUpRight@@YAXKHPAX@Z:PROC		; OTWViewUpRight
EXTRN	?SimFLCSReset@@YAXKHPAX@Z:PROC			; SimFLCSReset
EXTRN	?WingmanChainsaw@@YAXKHPAX@Z:PROC		; WingmanChainsaw
EXTRN	?OTWViewReset@@YAXKHPAX@Z:PROC			; OTWViewReset
EXTRN	?SimFLTBIT@@YAXKHPAX@Z:PROC			; SimFLTBIT
EXTRN	?ElementChainsaw@@YAXKHPAX@Z:PROC		; ElementChainsaw
EXTRN	?SimOBOGSBit@@YAXKHPAX@Z:PROC			; SimOBOGSBit
EXTRN	?OTWViewZoomIn@@YAXKHPAX@Z:PROC			; OTWViewZoomIn
EXTRN	?FlightChainsaw@@YAXKHPAX@Z:PROC		; FlightChainsaw
EXTRN	?SimMalIndLights@@YAXKHPAX@Z:PROC		; SimMalIndLights
EXTRN	?OTWViewZoomOut@@YAXKHPAX@Z:PROC		; OTWViewZoomOut
EXTRN	?WingmanFlex@@YAXKHPAX@Z:PROC			; WingmanFlex
EXTRN	?SimProbeHeat@@YAXKHPAX@Z:PROC			; SimProbeHeat
EXTRN	?OTWSwapMFDS@@YAXKHPAX@Z:PROC			; OTWSwapMFDS
EXTRN	?ElementFlex@@YAXKHPAX@Z:PROC			; ElementFlex
EXTRN	?OTWGlanceForward@@YAXKHPAX@Z:PROC		; OTWGlanceForward
EXTRN	?SimEPUGEN@@YAXKHPAX@Z:PROC			; SimEPUGEN
EXTRN	?FlightFlex@@YAXKHPAX@Z:PROC			; FlightFlex
EXTRN	?SimTestSwitch@@YAXKHPAX@Z:PROC			; SimTestSwitch
EXTRN	?OTWCheckSix@@YAXKHPAX@Z:PROC			; OTWCheckSix
EXTRN	?WingmanGoShooterMode@@YAXKHPAX@Z:PROC		; WingmanGoShooterMode
EXTRN	?OTWStateStep@@YAXKHPAX@Z:PROC			; OTWStateStep
EXTRN	?SimOverHeat@@YAXKHPAX@Z:PROC			; SimOverHeat
EXTRN	?ElementGoShooterMode@@YAXKHPAX@Z:PROC		; ElementGoShooterMode
EXTRN	?CommandsSetKeyCombo@@YAXKHPAX@Z:PROC		; CommandsSetKeyCombo
EXTRN	?SimTrimAPDisc@@YAXKHPAX@Z:PROC			; SimTrimAPDisc
EXTRN	?FlightGoShooterMode@@YAXKHPAX@Z:PROC		; FlightGoShooterMode
EXTRN	?KevinsFistOfGod@@YAXKHPAX@Z:PROC		; KevinsFistOfGod
EXTRN	?SimTrimAPDISC@@YAXKHPAX@Z:PROC			; SimTrimAPDISC
EXTRN	?WingmanGoCoverMode@@YAXKHPAX@Z:PROC		; WingmanGoCoverMode
EXTRN	?SimTrimAPNORM@@YAXKHPAX@Z:PROC			; SimTrimAPNORM
EXTRN	?SuperCruise@@YAXKHPAX@Z:PROC			; SuperCruise
EXTRN	?ElementGoCoverMode@@YAXKHPAX@Z:PROC		; ElementGoCoverMode
EXTRN	?SimDriftCO@@YAXKHPAX@Z:PROC			; SimDriftCO
EXTRN	?SimMaxPower@@YAXKHPAX@Z:PROC			; SimMaxPower
EXTRN	?FlightGoCoverMode@@YAXKHPAX@Z:PROC		; FlightGoCoverMode
EXTRN	?SimDriftCOOn@@YAXKHPAX@Z:PROC			; SimDriftCOOn
EXTRN	?SimABReset@@YAXKHPAX@Z:PROC			; SimABReset
EXTRN	?WingmanSearchGround@@YAXKHPAX@Z:PROC		; WingmanSearchGround
EXTRN	?SimTrimNoseUp@@YAXKHPAX@Z:PROC			; SimTrimNoseUp
EXTRN	?SimDriftCOOff@@YAXKHPAX@Z:PROC			; SimDriftCOOff
EXTRN	?ElementSearchGround@@YAXKHPAX@Z:PROC		; ElementSearchGround
EXTRN	?SimTrimNoseDown@@YAXKHPAX@Z:PROC		; SimTrimNoseDown
EXTRN	?SimCATSwitch@@YAXKHPAX@Z:PROC			; SimCATSwitch
EXTRN	?FlightSearchGround@@YAXKHPAX@Z:PROC		; FlightSearchGround
EXTRN	?SimTrimYawLeft@@YAXKHPAX@Z:PROC		; SimTrimYawLeft
EXTRN	?SimCATI@@YAXKHPAX@Z:PROC			; SimCATI
EXTRN	?WingmanSearchAir@@YAXKHPAX@Z:PROC		; WingmanSearchAir
EXTRN	?SimCATIII@@YAXKHPAX@Z:PROC			; SimCATIII
EXTRN	?SimTrimYawRight@@YAXKHPAX@Z:PROC		; SimTrimYawRight
EXTRN	?ElementSearchAir@@YAXKHPAX@Z:PROC		; ElementSearchAir
EXTRN	?SimRegen@@YAXKHPAX@Z:PROC			; SimRegen
EXTRN	?SimTrimRollLeft@@YAXKHPAX@Z:PROC		; SimTrimRollLeft
EXTRN	?FlightSearchAir@@YAXKHPAX@Z:PROC		; FlightSearchAir
EXTRN	?SimTrimRollRight@@YAXKHPAX@Z:PROC		; SimTrimRollRight
EXTRN	?OTW1200View@@YAXKHPAX@Z:PROC			; OTW1200View
EXTRN	?WingmanResumeNormal@@YAXKHPAX@Z:PROC		; WingmanResumeNormal
EXTRN	?SimStepMissileVolumeDown@@YAXKHPAX@Z:PROC	; SimStepMissileVolumeDown
EXTRN	?OTW1200DView@@YAXKHPAX@Z:PROC			; OTW1200DView
EXTRN	?ElementResumeNormal@@YAXKHPAX@Z:PROC		; ElementResumeNormal
EXTRN	?OTW1200HUDView@@YAXKHPAX@Z:PROC		; OTW1200HUDView
EXTRN	?SimStepMissileVolumeUp@@YAXKHPAX@Z:PROC	; SimStepMissileVolumeUp
EXTRN	?FlightResumeNormal@@YAXKHPAX@Z:PROC		; FlightResumeNormal
EXTRN	?OTW1200LView@@YAXKHPAX@Z:PROC			; OTW1200LView
EXTRN	?SimStepThreatVolumeDown@@YAXKHPAX@Z:PROC	; SimStepThreatVolumeDown
EXTRN	?WingmanRejoin@@YAXKHPAX@Z:PROC			; WingmanRejoin
EXTRN	?SimStepThreatVolumeUp@@YAXKHPAX@Z:PROC		; SimStepThreatVolumeUp
EXTRN	?OTW1200RView@@YAXKHPAX@Z:PROC			; OTW1200RView
EXTRN	?ElementRejoin@@YAXKHPAX@Z:PROC			; ElementRejoin
EXTRN	?SimTriggerFirstDetent@@YAXKHPAX@Z:PROC		; SimTriggerFirstDetent
EXTRN	?OTW1000View@@YAXKHPAX@Z:PROC			; OTW1000View
EXTRN	?FlightRejoin@@YAXKHPAX@Z:PROC			; FlightRejoin
EXTRN	?OTW200View@@YAXKHPAX@Z:PROC			; OTW200View
EXTRN	?SimTriggerSecondDetent@@YAXKHPAX@Z:PROC	; SimTriggerSecondDetent
EXTRN	?WingmanDesignateTarget@@YAXKHPAX@Z:PROC	; WingmanDesignateTarget
EXTRN	?OTW300View@@YAXKHPAX@Z:PROC			; OTW300View
EXTRN	?SimRetUp@@YAXKHPAX@Z:PROC			; SimRetUp
EXTRN	?ElementDesignateTarget@@YAXKHPAX@Z:PROC	; ElementDesignateTarget
EXTRN	?OTW400View@@YAXKHPAX@Z:PROC			; OTW400View
EXTRN	?SimRetDn@@YAXKHPAX@Z:PROC			; SimRetDn
EXTRN	?FlightDesignateTarget@@YAXKHPAX@Z:PROC		; FlightDesignateTarget
EXTRN	?SimCursorEnable@@YAXKHPAX@Z:PROC		; SimCursorEnable
EXTRN	?OTW800View@@YAXKHPAX@Z:PROC			; OTW800View
EXTRN	?WingmanDesignateGroup@@YAXKHPAX@Z:PROC		; WingmanDesignateGroup
EXTRN	?OTW900View@@YAXKHPAX@Z:PROC			; OTW900View
EXTRN	?SimStepComm1VolumeUp@@YAXKHPAX@Z:PROC		; SimStepComm1VolumeUp
EXTRN	?ElementDesignateGroup@@YAXKHPAX@Z:PROC		; ElementDesignateGroup
EXTRN	?RadioMessageSend@@YAXKHPAX@Z:PROC		; RadioMessageSend
EXTRN	?SimStepComm1VolumeDown@@YAXKHPAX@Z:PROC	; SimStepComm1VolumeDown
EXTRN	?FlightDesignateGroup@@YAXKHPAX@Z:PROC		; FlightDesignateGroup
EXTRN	?SimStepComm2VolumeUp@@YAXKHPAX@Z:PROC		; SimStepComm2VolumeUp
EXTRN	?SimToggleChatMode@@YAXKHPAX@Z:PROC		; SimToggleChatMode
EXTRN	?WingmanWeaponsHold@@YAXKHPAX@Z:PROC		; WingmanWeaponsHold
EXTRN	?SimStepComm2VolumeDown@@YAXKHPAX@Z:PROC	; SimStepComm2VolumeDown
EXTRN	?SimMotionFreeze@@YAXKHPAX@Z:PROC		; SimMotionFreeze
EXTRN	?ElementWeaponsHold@@YAXKHPAX@Z:PROC		; ElementWeaponsHold
EXTRN	?ScreenShot@@YAXKHPAX@Z:PROC			; ScreenShot
EXTRN	?Sim3DCkptHelpOnOff@@YAXKHPAX@Z:PROC		; Sim3DCkptHelpOnOff
EXTRN	?FlightWeaponsHold@@YAXKHPAX@Z:PROC		; FlightWeaponsHold
EXTRN	?SimSymWheelUp@@YAXKHPAX@Z:PROC			; SimSymWheelUp
EXTRN	?PrettyScreenShot@@YAXKHPAX@Z:PROC		; PrettyScreenShot
EXTRN	?WingmanWeaponsFree@@YAXKHPAX@Z:PROC		; WingmanWeaponsFree
EXTRN	?FOVToggle@@YAXKHPAX@Z:PROC			; FOVToggle
EXTRN	?SimSymWheelDn@@YAXKHPAX@Z:PROC			; SimSymWheelDn
EXTRN	?ElementWeaponsFree@@YAXKHPAX@Z:PROC		; ElementWeaponsFree
EXTRN	?FOVDecrease@@YAXKHPAX@Z:PROC			; FOVDecrease
EXTRN	?SimToggleCockpit@@YAXKHPAX@Z:PROC		; SimToggleCockpit
EXTRN	?FlightWeaponsFree@@YAXKHPAX@Z:PROC		; FlightWeaponsFree
EXTRN	?FOVIncrease@@YAXKHPAX@Z:PROC			; FOVIncrease
EXTRN	?SimToggleGhostMFDs@@YAXKHPAX@Z:PROC		; SimToggleGhostMFDs
EXTRN	?WingmanSpread@@YAXKHPAX@Z:PROC			; WingmanSpread
EXTRN	?FOVDefault@@YAXKHPAX@Z:PROC			; FOVDefault
EXTRN	?SimRangeKnobDown@@YAXKHPAX@Z:PROC		; SimRangeKnobDown
EXTRN	?ElementSpread@@YAXKHPAX@Z:PROC			; ElementSpread
EXTRN	?SimRangeKnobUp@@YAXKHPAX@Z:PROC		; SimRangeKnobUp
EXTRN	?FlightSpread@@YAXKHPAX@Z:PROC			; FlightSpread
EXTRN	?SimSMSPower@@YAXKHPAX@Z:PROC			; SimSMSPower
EXTRN	?WingmanStack@@YAXKHPAX@Z:PROC			; WingmanStack
EXTRN	?SimSelectiveJettison@@YAXKHPAX@Z:PROC		; SimSelectiveJettison
EXTRN	?SimSMSOn@@YAXKHPAX@Z:PROC			; SimSMSOn
EXTRN	?ElementStack@@YAXKHPAX@Z:PROC			; ElementStack
EXTRN	?SimSMSOff@@YAXKHPAX@Z:PROC			; SimSMSOff
EXTRN	?SimEmergencyJettison@@YAXKHPAX@Z:PROC		; SimEmergencyJettison
EXTRN	?FlightStack@@YAXKHPAX@Z:PROC			; FlightStack
EXTRN	?SimFCCPower@@YAXKHPAX@Z:PROC			; SimFCCPower
EXTRN	?SimWheelBrakes@@YAXKHPAX@Z:PROC		; SimWheelBrakes
EXTRN	?WingmanLadder@@YAXKHPAX@Z:PROC			; WingmanLadder
EXTRN	?SimFCCOn@@YAXKHPAX@Z:PROC			; SimFCCOn
EXTRN	?SimECMOn@@YAXKHPAX@Z:PROC			; SimECMOn
EXTRN	?ElementLadder@@YAXKHPAX@Z:PROC			; ElementLadder
EXTRN	?SimFCCOff@@YAXKHPAX@Z:PROC			; SimFCCOff
EXTRN	?SimECMStandby@@YAXKHPAX@Z:PROC			; SimECMStandby
EXTRN	?FlightLadder@@YAXKHPAX@Z:PROC			; FlightLadder
EXTRN	?SimMFDPower@@YAXKHPAX@Z:PROC			; SimMFDPower
EXTRN	?SimECMConsent@@YAXKHPAX@Z:PROC			; SimECMConsent
EXTRN	?WingmanFluid@@YAXKHPAX@Z:PROC			; WingmanFluid
EXTRN	?SimRandomError@@YAXKHPAX@Z:PROC		; SimRandomError
EXTRN	?SimMFDOn@@YAXKHPAX@Z:PROC			; SimMFDOn
EXTRN	?ElementFluid@@YAXKHPAX@Z:PROC			; ElementFluid
EXTRN	?SoundOff@@YAXKHPAX@Z:PROC			; SoundOff
EXTRN	?SimMFDOff@@YAXKHPAX@Z:PROC			; SimMFDOff
EXTRN	?FlightFluid@@YAXKHPAX@Z:PROC			; FlightFluid
EXTRN	?SimUFCPower@@YAXKHPAX@Z:PROC			; SimUFCPower
EXTRN	?SimStepMasterArm@@YAXKHPAX@Z:PROC		; SimStepMasterArm
EXTRN	?WingmanWedge@@YAXKHPAX@Z:PROC			; WingmanWedge
EXTRN	?SimUFCOn@@YAXKHPAX@Z:PROC			; SimUFCOn
EXTRN	?SimArmMasterArm@@YAXKHPAX@Z:PROC		; SimArmMasterArm
EXTRN	?ElementWedge@@YAXKHPAX@Z:PROC			; ElementWedge
EXTRN	?SimSafeMasterArm@@YAXKHPAX@Z:PROC		; SimSafeMasterArm
EXTRN	?SimUFCOff@@YAXKHPAX@Z:PROC			; SimUFCOff
EXTRN	?FlightWedge@@YAXKHPAX@Z:PROC			; FlightWedge
EXTRN	?SimSimMasterArm@@YAXKHPAX@Z:PROC		; SimSimMasterArm
EXTRN	?SimGPSPower@@YAXKHPAX@Z:PROC			; SimGPSPower
EXTRN	?WingmanTrail@@YAXKHPAX@Z:PROC			; WingmanTrail
EXTRN	?SimHsiCourseInc@@YAXKHPAX@Z:PROC		; SimHsiCourseInc
EXTRN	?SimGPSOn@@YAXKHPAX@Z:PROC			; SimGPSOn
EXTRN	?ElementTrail@@YAXKHPAX@Z:PROC			; ElementTrail
EXTRN	?SimGPSOff@@YAXKHPAX@Z:PROC			; SimGPSOff
EXTRN	?SimHsiCourseDec@@YAXKHPAX@Z:PROC		; SimHsiCourseDec
EXTRN	?FlightTrail@@YAXKHPAX@Z:PROC			; FlightTrail
EXTRN	?SimHsiHeadingInc@@YAXKHPAX@Z:PROC		; SimHsiHeadingInc
EXTRN	?SimDLPower@@YAXKHPAX@Z:PROC			; SimDLPower
EXTRN	?WingmanResCell@@YAXKHPAX@Z:PROC		; WingmanResCell
EXTRN	?SimHsiHeadingDec@@YAXKHPAX@Z:PROC		; SimHsiHeadingDec
EXTRN	?SimDLOn@@YAXKHPAX@Z:PROC			; SimDLOn
EXTRN	?ElementResCell@@YAXKHPAX@Z:PROC		; ElementResCell
EXTRN	?SimDLOff@@YAXKHPAX@Z:PROC			; SimDLOff
EXTRN	?SimHsiCrsIncBy1@@YAXKHPAX@Z:PROC		; SimHsiCrsIncBy1
EXTRN	?FlightResCell@@YAXKHPAX@Z:PROC			; FlightResCell
EXTRN	?SimMAPPower@@YAXKHPAX@Z:PROC			; SimMAPPower
EXTRN	?SimHsiCrsDecBy1@@YAXKHPAX@Z:PROC		; SimHsiCrsDecBy1
EXTRN	?WingmanBox@@YAXKHPAX@Z:PROC			; WingmanBox
EXTRN	?SimHsiHdgIncBy1@@YAXKHPAX@Z:PROC		; SimHsiHdgIncBy1
EXTRN	?SimMAPOn@@YAXKHPAX@Z:PROC			; SimMAPOn
EXTRN	?ElementBox@@YAXKHPAX@Z:PROC			; ElementBox
EXTRN	?SimHsiHdgDecBy1@@YAXKHPAX@Z:PROC		; SimHsiHdgDecBy1
EXTRN	?SimMAPOff@@YAXKHPAX@Z:PROC			; SimMAPOff
EXTRN	?SimSetBubbleSize@@YAXKHPAX@Z:PROC		; SimSetBubbleSize
EXTRN	?FlightBox@@YAXKHPAX@Z:PROC			; FlightBox
EXTRN	?SimTISLPower@@YAXKHPAX@Z:PROC			; SimTISLPower
EXTRN	?SimHookToggle@@YAXKHPAX@Z:PROC			; SimHookToggle
EXTRN	?SimAVTRToggle@@YAXKHPAX@Z:PROC			; SimAVTRToggle
EXTRN	?WingmanArrow@@YAXKHPAX@Z:PROC			; WingmanArrow
EXTRN	?SimHookUp@@YAXKHPAX@Z:PROC			; SimHookUp
EXTRN	?SimRightHptPower@@YAXKHPAX@Z:PROC		; SimRightHptPower
EXTRN	?SimMPOToggle@@YAXKHPAX@Z:PROC			; SimMPOToggle
EXTRN	?ElementArrow@@YAXKHPAX@Z:PROC			; ElementArrow
EXTRN	?SimMPO@@YAXKHPAX@Z:PROC			; SimMPO
EXTRN	?SimHookDown@@YAXKHPAX@Z:PROC			; SimHookDown
EXTRN	?SimRightHptOn@@YAXKHPAX@Z:PROC			; SimRightHptOn
EXTRN	?FlightArrow@@YAXKHPAX@Z:PROC			; FlightArrow
EXTRN	?SimRightHptOff@@YAXKHPAX@Z:PROC		; SimRightHptOff
EXTRN	?SimSilenceHorn@@YAXKHPAX@Z:PROC		; SimSilenceHorn
EXTRN	?SimThrottleIdleDetent@@YAXKHPAX@Z:PROC		; SimThrottleIdleDetent
EXTRN	?WingmanKickout@@YAXKHPAX@Z:PROC		; WingmanKickout
EXTRN	?SimStepHSIMode@@YAXKHPAX@Z:PROC		; SimStepHSIMode
EXTRN	?SimJfsStart@@YAXKHPAX@Z:PROC			; SimJfsStart
EXTRN	?SimLeftHptPower@@YAXKHPAX@Z:PROC		; SimLeftHptPower
EXTRN	?ElementKickout@@YAXKHPAX@Z:PROC		; ElementKickout
EXTRN	?SimLeftHptOn@@YAXKHPAX@Z:PROC			; SimLeftHptOn
EXTRN	?SimEpuToggle@@YAXKHPAX@Z:PROC			; SimEpuToggle
EXTRN	?SimHSIIlsTcn@@YAXKHPAX@Z:PROC			; SimHSIIlsTcn
EXTRN	?FlightKickout@@YAXKHPAX@Z:PROC			; FlightKickout
EXTRN	?SimLeftHptOff@@YAXKHPAX@Z:PROC			; SimLeftHptOff
EXTRN	?SimHSITcn@@YAXKHPAX@Z:PROC			; SimHSITcn
EXTRN	?SimEpuOff@@YAXKHPAX@Z:PROC			; SimEpuOff
EXTRN	?WingmanCloseup@@YAXKHPAX@Z:PROC		; WingmanCloseup
EXTRN	?SimFCRPower@@YAXKHPAX@Z:PROC			; SimFCRPower
EXTRN	?SimEpuAuto@@YAXKHPAX@Z:PROC			; SimEpuAuto
EXTRN	?SimHSINav@@YAXKHPAX@Z:PROC			; SimHSINav
EXTRN	?ElementCloseup@@YAXKHPAX@Z:PROC		; ElementCloseup
EXTRN	?SimEpuOn@@YAXKHPAX@Z:PROC			; SimEpuOn
EXTRN	?SimFCROn@@YAXKHPAX@Z:PROC			; SimFCROn
EXTRN	?SimHSIIlsNav@@YAXKHPAX@Z:PROC			; SimHSIIlsNav
EXTRN	?FlightCloseup@@YAXKHPAX@Z:PROC			; FlightCloseup
EXTRN	?SimFCROff@@YAXKHPAX@Z:PROC			; SimFCROff
EXTRN	?AFRudderTrimLeft@@YAXKHPAX@Z:PROC		; AFRudderTrimLeft
EXTRN	?WingmanToggleSide@@YAXKHPAX@Z:PROC		; WingmanToggleSide
EXTRN	?DecreaseAlow@@YAXKHPAX@Z:PROC			; DecreaseAlow
EXTRN	?AFRudderTrimRight@@YAXKHPAX@Z:PROC		; AFRudderTrimRight
EXTRN	?SimHUDPower@@YAXKHPAX@Z:PROC			; SimHUDPower
EXTRN	?ElementToggleSide@@YAXKHPAX@Z:PROC		; ElementToggleSide
EXTRN	?SimHUDOn@@YAXKHPAX@Z:PROC			; SimHUDOn
EXTRN	?AFAileronTrimLeft@@YAXKHPAX@Z:PROC		; AFAileronTrimLeft
EXTRN	?IncreaseAlow@@YAXKHPAX@Z:PROC			; IncreaseAlow
EXTRN	?FlightToggleSide@@YAXKHPAX@Z:PROC		; FlightToggleSide
EXTRN	?SimHUDOff@@YAXKHPAX@Z:PROC			; SimHUDOff
EXTRN	?AFAileronTrimRight@@YAXKHPAX@Z:PROC		; AFAileronTrimRight
EXTRN	?SimCBEOSB_1L@@YAXKHPAX@Z:PROC			; SimCBEOSB_1L
EXTRN	?WingmanIncreaseRelAlt@@YAXKHPAX@Z:PROC		; WingmanIncreaseRelAlt
EXTRN	?SimCBEOSB_2L@@YAXKHPAX@Z:PROC			; SimCBEOSB_2L
EXTRN	?AFElevatorTrimUp@@YAXKHPAX@Z:PROC		; AFElevatorTrimUp
EXTRN	?SimRwrPower@@YAXKHPAX@Z:PROC			; SimRwrPower
EXTRN	?ElementIncreaseRelAlt@@YAXKHPAX@Z:PROC		; ElementIncreaseRelAlt
EXTRN	?AFElevatorTrimDown@@YAXKHPAX@Z:PROC		; AFElevatorTrimDown
EXTRN	?SimCBEOSB_3L@@YAXKHPAX@Z:PROC			; SimCBEOSB_3L
EXTRN	?FlightIncreaseRelAlt@@YAXKHPAX@Z:PROC		; FlightIncreaseRelAlt
EXTRN	?SimCBEOSB_4L@@YAXKHPAX@Z:PROC			; SimCBEOSB_4L
EXTRN	?BreakToggle@@YAXKHPAX@Z:PROC			; BreakToggle
EXTRN	?AFResetTrim@@YAXKHPAX@Z:PROC			; AFResetTrim
EXTRN	?WingmanDecreaseRelAlt@@YAXKHPAX@Z:PROC		; WingmanDecreaseRelAlt
EXTRN	?KneeboardTogglePage@@YAXKHPAX@Z:PROC		; KneeboardTogglePage
EXTRN	?SimCBEOSB_5L@@YAXKHPAX@Z:PROC			; SimCBEOSB_5L
EXTRN	?AFAlternateGear@@YAXKHPAX@Z:PROC		; AFAlternateGear
EXTRN	?ElementDecreaseRelAlt@@YAXKHPAX@Z:PROC		; ElementDecreaseRelAlt
EXTRN	?ToggleNVGMode@@YAXKHPAX@Z:PROC			; ToggleNVGMode
EXTRN	?SimCBEOSB_6L@@YAXKHPAX@Z:PROC			; SimCBEOSB_6L
EXTRN	?AFAlternateGearReset@@YAXKHPAX@Z:PROC		; AFAlternateGearReset
EXTRN	?FlightDecreaseRelAlt@@YAXKHPAX@Z:PROC		; FlightDecreaseRelAlt
EXTRN	?ToggleSmoke@@YAXKHPAX@Z:PROC			; ToggleSmoke
EXTRN	?SimFLIRToggle@@YAXKHPAX@Z:PROC			; SimFLIRToggle
EXTRN	?SimCBEOSB_7L@@YAXKHPAX@Z:PROC			; SimCBEOSB_7L
EXTRN	?WingmanVic@@YAXKHPAX@Z:PROC			; WingmanVic
EXTRN	?SimToggleRealisticAvionics@@YAXKHPAX@Z:PROC	; SimToggleRealisticAvionics
EXTRN	?SimCBEOSB_8L@@YAXKHPAX@Z:PROC			; SimCBEOSB_8L
EXTRN	?TimeAccelerate@@YAXKHPAX@Z:PROC		; TimeAccelerate
EXTRN	?ElementVic@@YAXKHPAX@Z:PROC			; ElementVic
EXTRN	?SimIncFuelSwitch@@YAXKHPAX@Z:PROC		; SimIncFuelSwitch
EXTRN	?SimCBEOSB_9L@@YAXKHPAX@Z:PROC			; SimCBEOSB_9L
EXTRN	?TimeAccelerateMaxToggle@@YAXKHPAX@Z:PROC	; TimeAccelerateMaxToggle
EXTRN	?FlightVic@@YAXKHPAX@Z:PROC			; FlightVic
EXTRN	?TimeAccelerateInc@@YAXKHPAX@Z:PROC		; TimeAccelerateInc
EXTRN	?SimCBEOSB_10L@@YAXKHPAX@Z:PROC			; SimCBEOSB_10L
EXTRN	?SimDecFuelSwitch@@YAXKHPAX@Z:PROC		; SimDecFuelSwitch
EXTRN	?WingmanFinger4@@YAXKHPAX@Z:PROC		; WingmanFinger4
EXTRN	?SimFuelSwitchTest@@YAXKHPAX@Z:PROC		; SimFuelSwitchTest
EXTRN	?SimCBEOSB_11L@@YAXKHPAX@Z:PROC			; SimCBEOSB_11L
EXTRN	?TimeAccelerateDec@@YAXKHPAX@Z:PROC		; TimeAccelerateDec
EXTRN	?ElementFinger4@@YAXKHPAX@Z:PROC		; ElementFinger4
EXTRN	?SimFuelSwitchNorm@@YAXKHPAX@Z:PROC		; SimFuelSwitchNorm
EXTRN	?SimFuelDump@@YAXKHPAX@Z:PROC			; SimFuelDump
EXTRN	?SimCBEOSB_12L@@YAXKHPAX@Z:PROC			; SimCBEOSB_12L
EXTRN	?FlightFinger4@@YAXKHPAX@Z:PROC			; FlightFinger4
EXTRN	?SimCBEOSB_13L@@YAXKHPAX@Z:PROC			; SimCBEOSB_13L
EXTRN	?SimFuelSwitchResv@@YAXKHPAX@Z:PROC		; SimFuelSwitchResv
EXTRN	?SimCycleDebugLabels@@YAXKHPAX@Z:PROC		; SimCycleDebugLabels
EXTRN	?WingmanEchelon@@YAXKHPAX@Z:PROC		; WingmanEchelon
EXTRN	?SimFuelSwitchWingInt@@YAXKHPAX@Z:PROC		; SimFuelSwitchWingInt
EXTRN	?SimCBEOSB_14L@@YAXKHPAX@Z:PROC			; SimCBEOSB_14L
EXTRN	?AFABFull@@YAXKHPAX@Z:PROC			; AFABFull
EXTRN	?ElementEchelon@@YAXKHPAX@Z:PROC		; ElementEchelon
EXTRN	?BombRippleIncrement@@YAXKHPAX@Z:PROC		; BombRippleIncrement
EXTRN	?SimFuelSwitchWingExt@@YAXKHPAX@Z:PROC		; SimFuelSwitchWingExt
EXTRN	?SimCBEOSB_15L@@YAXKHPAX@Z:PROC			; SimCBEOSB_15L
EXTRN	?FlightEchelon@@YAXKHPAX@Z:PROC			; FlightEchelon
EXTRN	?SimFuelSwitchCenterExt@@YAXKHPAX@Z:PROC	; SimFuelSwitchCenterExt
EXTRN	?SimCBEOSB_16L@@YAXKHPAX@Z:PROC			; SimCBEOSB_16L
EXTRN	?BombIntervalIncrement@@YAXKHPAX@Z:PROC		; BombIntervalIncrement
EXTRN	?WingmanForm1@@YAXKHPAX@Z:PROC			; WingmanForm1
EXTRN	?BombRippleDecrement@@YAXKHPAX@Z:PROC		; BombRippleDecrement
EXTRN	?SimIncFuelPump@@YAXKHPAX@Z:PROC		; SimIncFuelPump
EXTRN	?SimCBEOSB_17L@@YAXKHPAX@Z:PROC			; SimCBEOSB_17L
EXTRN	?ElementForm1@@YAXKHPAX@Z:PROC			; ElementForm1
EXTRN	?SimCBEOSB_18L@@YAXKHPAX@Z:PROC			; SimCBEOSB_18L
EXTRN	?BombIntervalDecrement@@YAXKHPAX@Z:PROC		; BombIntervalDecrement
EXTRN	?SimDecFuelPump@@YAXKHPAX@Z:PROC		; SimDecFuelPump
EXTRN	?FlightForm1@@YAXKHPAX@Z:PROC			; FlightForm1
EXTRN	?SimCBEOSB_19L@@YAXKHPAX@Z:PROC			; SimCBEOSB_19L
EXTRN	?BombPairRelease@@YAXKHPAX@Z:PROC		; BombPairRelease
EXTRN	?SimFuelPumpOff@@YAXKHPAX@Z:PROC		; SimFuelPumpOff
EXTRN	?WingmanForm2@@YAXKHPAX@Z:PROC			; WingmanForm2
EXTRN	?SimFuelPumpNorm@@YAXKHPAX@Z:PROC		; SimFuelPumpNorm
EXTRN	?BombSGLRelease@@YAXKHPAX@Z:PROC		; BombSGLRelease
EXTRN	?SimCBEOSB_20L@@YAXKHPAX@Z:PROC			; SimCBEOSB_20L
EXTRN	?ElementForm2@@YAXKHPAX@Z:PROC			; ElementForm2
EXTRN	?SimCBEOSB_1R@@YAXKHPAX@Z:PROC			; SimCBEOSB_1R
EXTRN	?BombBurstIncrement@@YAXKHPAX@Z:PROC		; BombBurstIncrement
EXTRN	?SimFuelPumpAft@@YAXKHPAX@Z:PROC		; SimFuelPumpAft
EXTRN	?FlightForm2@@YAXKHPAX@Z:PROC			; FlightForm2
EXTRN	?BombBurstDecrement@@YAXKHPAX@Z:PROC		; BombBurstDecrement
EXTRN	?SimFuelPumpFwd@@YAXKHPAX@Z:PROC		; SimFuelPumpFwd
EXTRN	?SimCBEOSB_2R@@YAXKHPAX@Z:PROC			; SimCBEOSB_2R
EXTRN	?WingmanForm3@@YAXKHPAX@Z:PROC			; WingmanForm3
EXTRN	?SimToggleMasterFuel@@YAXKHPAX@Z:PROC		; SimToggleMasterFuel
EXTRN	?OTWToggleScoreDisplay@@YAXKHPAX@Z:PROC		; OTWToggleScoreDisplay
EXTRN	?SimCBEOSB_3R@@YAXKHPAX@Z:PROC			; SimCBEOSB_3R
EXTRN	?ElementForm3@@YAXKHPAX@Z:PROC			; ElementForm3
EXTRN	?SimCBEOSB_4R@@YAXKHPAX@Z:PROC			; SimCBEOSB_4R
EXTRN	?OTWToggleSidebar@@YAXKHPAX@Z:PROC		; OTWToggleSidebar
EXTRN	?SimMasterFuelOn@@YAXKHPAX@Z:PROC		; SimMasterFuelOn
EXTRN	?FlightForm3@@YAXKHPAX@Z:PROC			; FlightForm3
EXTRN	?SimCBEOSB_5R@@YAXKHPAX@Z:PROC			; SimCBEOSB_5R
EXTRN	?SimMasterFuelOff@@YAXKHPAX@Z:PROC		; SimMasterFuelOff
EXTRN	?OTWTrackExternal@@YAXKHPAX@Z:PROC		; OTWTrackExternal
EXTRN	?WingmanForm4@@YAXKHPAX@Z:PROC			; WingmanForm4
EXTRN	?SimIncAirSource@@YAXKHPAX@Z:PROC		; SimIncAirSource
EXTRN	?SimCBEOSB_6R@@YAXKHPAX@Z:PROC			; SimCBEOSB_6R
EXTRN	?OTWTrackTargetToWeapon@@YAXKHPAX@Z:PROC	; OTWTrackTargetToWeapon
EXTRN	?ElementForm4@@YAXKHPAX@Z:PROC			; ElementForm4
EXTRN	?SimCBEOSB_7R@@YAXKHPAX@Z:PROC			; SimCBEOSB_7R
EXTRN	?SimDecAirSource@@YAXKHPAX@Z:PROC		; SimDecAirSource
EXTRN	?SimRadarAAModeStep@@YAXKHPAX@Z:PROC		; SimRadarAAModeStep
EXTRN	?FlightForm4@@YAXKHPAX@Z:PROC			; FlightForm4
EXTRN	?SimAirSourceOff@@YAXKHPAX@Z:PROC		; SimAirSourceOff
EXTRN	?SimCBEOSB_8R@@YAXKHPAX@Z:PROC			; SimCBEOSB_8R
EXTRN	?SimRadarAGModeStep@@YAXKHPAX@Z:PROC		; SimRadarAGModeStep
EXTRN	?WingmanGiveBra@@YAXKHPAX@Z:PROC		; WingmanGiveBra
EXTRN	?SimRadarGainUp@@YAXKHPAX@Z:PROC		; SimRadarGainUp
EXTRN	?SimCBEOSB_9R@@YAXKHPAX@Z:PROC			; SimCBEOSB_9R
EXTRN	?SimAirSourceNorm@@YAXKHPAX@Z:PROC		; SimAirSourceNorm
EXTRN	?ElementGiveBra@@YAXKHPAX@Z:PROC		; ElementGiveBra
EXTRN	?SimRadarGainDown@@YAXKHPAX@Z:PROC		; SimRadarGainDown
EXTRN	?SimCBEOSB_10R@@YAXKHPAX@Z:PROC			; SimCBEOSB_10R
EXTRN	?SimAirSourceDump@@YAXKHPAX@Z:PROC		; SimAirSourceDump
EXTRN	?FlightGiveBra@@YAXKHPAX@Z:PROC			; FlightGiveBra
EXTRN	?SimAirSourceRam@@YAXKHPAX@Z:PROC		; SimAirSourceRam
EXTRN	?SimRadarStandby@@YAXKHPAX@Z:PROC		; SimRadarStandby
EXTRN	?SimCBEOSB_11R@@YAXKHPAX@Z:PROC			; SimCBEOSB_11R
EXTRN	?WingmanGiveStatus@@YAXKHPAX@Z:PROC		; WingmanGiveStatus
EXTRN	?SimRadarRangeStepUp@@YAXKHPAX@Z:PROC		; SimRadarRangeStepUp
EXTRN	?SimDecLeftAuxComDigit@@YAXKHPAX@Z:PROC		; SimDecLeftAuxComDigit
EXTRN	?SimCBEOSB_12R@@YAXKHPAX@Z:PROC			; SimCBEOSB_12R
EXTRN	?ElementGiveStatus@@YAXKHPAX@Z:PROC		; ElementGiveStatus
EXTRN	?SimCBEOSB_13R@@YAXKHPAX@Z:PROC			; SimCBEOSB_13R
EXTRN	?SimRadarRangeStepDown@@YAXKHPAX@Z:PROC		; SimRadarRangeStepDown
EXTRN	?SimDecCenterAuxComDigit@@YAXKHPAX@Z:PROC	; SimDecCenterAuxComDigit
EXTRN	?FlightGiveStatus@@YAXKHPAX@Z:PROC		; FlightGiveStatus
EXTRN	?SimRadarNextTarget@@YAXKHPAX@Z:PROC		; SimRadarNextTarget
EXTRN	?SimDecRightAuxComDigit@@YAXKHPAX@Z:PROC	; SimDecRightAuxComDigit
EXTRN	?SimCBEOSB_14R@@YAXKHPAX@Z:PROC			; SimCBEOSB_14R
EXTRN	?WingmanGiveDamageReport@@YAXKHPAX@Z:PROC	; WingmanGiveDamageReport
EXTRN	?SimRadarPrevTarget@@YAXKHPAX@Z:PROC		; SimRadarPrevTarget
EXTRN	?SimInteriorLight@@YAXKHPAX@Z:PROC		; SimInteriorLight
EXTRN	?SimCBEOSB_15R@@YAXKHPAX@Z:PROC			; SimCBEOSB_15R
EXTRN	?ElementGiveDamageReport@@YAXKHPAX@Z:PROC	; ElementGiveDamageReport
EXTRN	?SimCBEOSB_16R@@YAXKHPAX@Z:PROC			; SimCBEOSB_16R
EXTRN	?SimInstrumentLight@@YAXKHPAX@Z:PROC		; SimInstrumentLight
EXTRN	?SimRadarBarScanChange@@YAXKHPAX@Z:PROC		; SimRadarBarScanChange
EXTRN	?FlightGiveDamageReport@@YAXKHPAX@Z:PROC	; FlightGiveDamageReport
EXTRN	?SimRadarAzimuthScanChange@@YAXKHPAX@Z:PROC	; SimRadarAzimuthScanChange
EXTRN	?SimSpotLight@@YAXKHPAX@Z:PROC			; SimSpotLight
EXTRN	?SimCBEOSB_17R@@YAXKHPAX@Z:PROC			; SimCBEOSB_17R
EXTRN	?WingmanGiveFuelState@@YAXKHPAX@Z:PROC		; WingmanGiveFuelState
EXTRN	?SimToggleTFR@@YAXKHPAX@Z:PROC			; SimToggleTFR
EXTRN	?SimCBEOSB_18R@@YAXKHPAX@Z:PROC			; SimCBEOSB_18R
EXTRN	?SimRadarFOVStep@@YAXKHPAX@Z:PROC		; SimRadarFOVStep
EXTRN	?ElementGiveFuelState@@YAXKHPAX@Z:PROC		; ElementGiveFuelState
EXTRN	?SimMainPowerDec@@YAXKHPAX@Z:PROC		; SimMainPowerDec
EXTRN	?SimCBEOSB_19R@@YAXKHPAX@Z:PROC			; SimCBEOSB_19R
EXTRN	?SimMaverickFOVStep@@YAXKHPAX@Z:PROC		; SimMaverickFOVStep
EXTRN	?FlightGiveFuelState@@YAXKHPAX@Z:PROC		; FlightGiveFuelState
EXTRN	?SimSOIFOVStep@@YAXKHPAX@Z:PROC			; SimSOIFOVStep
EXTRN	?SimCBEOSB_20R@@YAXKHPAX@Z:PROC			; SimCBEOSB_20R
EXTRN	?SimMainPowerInc@@YAXKHPAX@Z:PROC		; SimMainPowerInc
EXTRN	?WingmanGiveWeaponsCheck@@YAXKHPAX@Z:PROC	; WingmanGiveWeaponsCheck
EXTRN	?SimMainPowerOff@@YAXKHPAX@Z:PROC		; SimMainPowerOff
EXTRN	?SimCBEOSB_1T@@YAXKHPAX@Z:PROC			; SimCBEOSB_1T
EXTRN	?SimRadarFreeze@@YAXKHPAX@Z:PROC		; SimRadarFreeze
EXTRN	?ElementGiveWeaponsCheck@@YAXKHPAX@Z:PROC	; ElementGiveWeaponsCheck
EXTRN	?SimCBEOSB_2T@@YAXKHPAX@Z:PROC			; SimCBEOSB_2T
EXTRN	?SimMainPowerBatt@@YAXKHPAX@Z:PROC		; SimMainPowerBatt
EXTRN	?SimRadarSnowplow@@YAXKHPAX@Z:PROC		; SimRadarSnowplow
EXTRN	?FlightGiveWeaponsCheck@@YAXKHPAX@Z:PROC	; FlightGiveWeaponsCheck
EXTRN	?SimMainPowerMain@@YAXKHPAX@Z:PROC		; SimMainPowerMain
EXTRN	?SimCBEOSB_3T@@YAXKHPAX@Z:PROC			; SimCBEOSB_3T
EXTRN	?SimRadarCursorZero@@YAXKHPAX@Z:PROC		; SimRadarCursorZero
EXTRN	?WingmanDropStores@@YAXKHPAX@Z:PROC		; WingmanDropStores
EXTRN	?SimCBEOSB_4T@@YAXKHPAX@Z:PROC			; SimCBEOSB_4T
EXTRN	?AFFullFlap@@YAXKHPAX@Z:PROC			; AFFullFlap
EXTRN	?SimACMBoresight@@YAXKHPAX@Z:PROC		; SimACMBoresight
EXTRN	?ElementDropStores@@YAXKHPAX@Z:PROC		; ElementDropStores
EXTRN	?AFNoFlap@@YAXKHPAX@Z:PROC			; AFNoFlap
EXTRN	?SimCBEOSB_5T@@YAXKHPAX@Z:PROC			; SimCBEOSB_5T
EXTRN	?SimDesignate@@YAXKHPAX@Z:PROC			; SimDesignate
EXTRN	?FlightDropStores@@YAXKHPAX@Z:PROC		; FlightDropStores
EXTRN	?SimCBEOSB_6T@@YAXKHPAX@Z:PROC			; SimCBEOSB_6T
EXTRN	?SimACMVertical@@YAXKHPAX@Z:PROC		; SimACMVertical
EXTRN	?AFIncFlap@@YAXKHPAX@Z:PROC			; AFIncFlap
EXTRN	?WingmanRTB@@YAXKHPAX@Z:PROC			; WingmanRTB
EXTRN	?SimDropTrack@@YAXKHPAX@Z:PROC			; SimDropTrack
EXTRN	?AFDecFlap@@YAXKHPAX@Z:PROC			; AFDecFlap
EXTRN	?SimCBEOSB_7T@@YAXKHPAX@Z:PROC			; SimCBEOSB_7T
EXTRN	?ElementRTB@@YAXKHPAX@Z:PROC			; ElementRTB
EXTRN	?AFFullLEF@@YAXKHPAX@Z:PROC			; AFFullLEF
EXTRN	?SimACMSlew@@YAXKHPAX@Z:PROC			; SimACMSlew
EXTRN	?SimCBEOSB_8T@@YAXKHPAX@Z:PROC			; SimCBEOSB_8T
EXTRN	?FlightRTB@@YAXKHPAX@Z:PROC			; FlightRTB
EXTRN	?SimCBEOSB_9T@@YAXKHPAX@Z:PROC			; SimCBEOSB_9T
EXTRN	?SimACM30x20@@YAXKHPAX@Z:PROC			; SimACM30x20
EXTRN	?AFNoLEF@@YAXKHPAX@Z:PROC			; AFNoLEF
EXTRN	?ATCRequestClearance@@YAXKHPAX@Z:PROC		; ATCRequestClearance
EXTRN	?SimRadarElevationDown@@YAXKHPAX@Z:PROC		; SimRadarElevationDown
EXTRN	?SimCBEOSB_10T@@YAXKHPAX@Z:PROC			; SimCBEOSB_10T
EXTRN	?AFIncLEF@@YAXKHPAX@Z:PROC			; AFIncLEF
EXTRN	?ATCRequestEmergencyClearance@@YAXKHPAX@Z:PROC	; ATCRequestEmergencyClearance
EXTRN	?AFDecLEF@@YAXKHPAX@Z:PROC			; AFDecLEF
EXTRN	?SimRadarElevationUp@@YAXKHPAX@Z:PROC		; SimRadarElevationUp
EXTRN	?SimCBEOSB_11T@@YAXKHPAX@Z:PROC			; SimCBEOSB_11T
EXTRN	?ATCRequestTakeoff@@YAXKHPAX@Z:PROC		; ATCRequestTakeoff
EXTRN	?SimRadarElevationCenter@@YAXKHPAX@Z:PROC	; SimRadarElevationCenter
EXTRN	?SimCBEOSB_12T@@YAXKHPAX@Z:PROC			; SimCBEOSB_12T
EXTRN	?AFDragChute@@YAXKHPAX@Z:PROC			; AFDragChute
EXTRN	?ATCRequestTaxi@@YAXKHPAX@Z:PROC		; ATCRequestTaxi
EXTRN	?SimCBEOSB_13T@@YAXKHPAX@Z:PROC			; SimCBEOSB_13T
EXTRN	?SimRWRSetPriority@@YAXKHPAX@Z:PROC		; SimRWRSetPriority
EXTRN	?AFCanopyToggle@@YAXKHPAX@Z:PROC		; AFCanopyToggle
EXTRN	?ATCTaxiing@@YAXKHPAX@Z:PROC			; ATCTaxiing
EXTRN	?SimRWRSetTargetSep@@YAXKHPAX@Z:PROC		; SimRWRSetTargetSep
EXTRN	?SimReverseThrusterOn@@YAXKHPAX@Z:PROC		; SimReverseThrusterOn
EXTRN	?SimCBEOSB_14T@@YAXKHPAX@Z:PROC			; SimCBEOSB_14T
EXTRN	?ATCReadyToGo@@YAXKHPAX@Z:PROC			; ATCReadyToGo
EXTRN	?SimReverseThrusterOff@@YAXKHPAX@Z:PROC		; SimReverseThrusterOff
EXTRN	?SimCBEOSB_15T@@YAXKHPAX@Z:PROC			; SimCBEOSB_15T
EXTRN	?SimRWRSetUnknowns@@YAXKHPAX@Z:PROC		; SimRWRSetUnknowns
EXTRN	?ATCRotate@@YAXKHPAX@Z:PROC			; ATCRotate
EXTRN	?SimReverseThrusterToggle@@YAXKHPAX@Z:PROC	; SimReverseThrusterToggle
EXTRN	?SimCBEOSB_16T@@YAXKHPAX@Z:PROC			; SimCBEOSB_16T
EXTRN	?SimRWRSetNaval@@YAXKHPAX@Z:PROC		; SimRWRSetNaval
EXTRN	?ATCGearUp@@YAXKHPAX@Z:PROC			; ATCGearUp
EXTRN	?SimExtFuelTrans@@YAXKHPAX@Z:PROC		; SimExtFuelTrans
EXTRN	?SimRWRSetGroundPriority@@YAXKHPAX@Z:PROC	; SimRWRSetGroundPriority
EXTRN	?SimCBEOSB_17T@@YAXKHPAX@Z:PROC			; SimCBEOSB_17T
EXTRN	?ATCGearDown@@YAXKHPAX@Z:PROC			; ATCGearDown
EXTRN	?SimCBEOSB_18T@@YAXKHPAX@Z:PROC			; SimCBEOSB_18T
EXTRN	?SimRWRSetSearch@@YAXKHPAX@Z:PROC		; SimRWRSetSearch
EXTRN	?SimFuelTransNorm@@YAXKHPAX@Z:PROC		; SimFuelTransNorm
EXTRN	?ATCBrake@@YAXKHPAX@Z:PROC			; ATCBrake
EXTRN	?SimCBEOSB_19T@@YAXKHPAX@Z:PROC			; SimCBEOSB_19T
EXTRN	?SimRWRHandoff@@YAXKHPAX@Z:PROC			; SimRWRHandoff
EXTRN	?SimFuelTransWing@@YAXKHPAX@Z:PROC		; SimFuelTransWing
EXTRN	?ATCAbortApproach@@YAXKHPAX@Z:PROC		; ATCAbortApproach
EXTRN	?SimICPIFF@@YAXKHPAX@Z:PROC			; SimICPIFF
EXTRN	?SimNextWaypoint@@YAXKHPAX@Z:PROC		; SimNextWaypoint
EXTRN	?SimCBEOSB_20T@@YAXKHPAX@Z:PROC			; SimCBEOSB_20T
EXTRN	?FACCheckIn@@YAXKHPAX@Z:PROC			; FACCheckIn
EXTRN	?SimPrevWaypoint@@YAXKHPAX@Z:PROC		; SimPrevWaypoint
EXTRN	?SimCBEOSB_1F@@YAXKHPAX@Z:PROC			; SimCBEOSB_1F
EXTRN	?SimICPLIST@@YAXKHPAX@Z:PROC			; SimICPLIST
EXTRN	?FACWilco@@YAXKHPAX@Z:PROC			; FACWilco
EXTRN	?SimTogglePaused@@YAXKHPAX@Z:PROC		; SimTogglePaused
EXTRN	?SimICPTHREE@@YAXKHPAX@Z:PROC			; SimICPTHREE
EXTRN	?SimCBEOSB_2F@@YAXKHPAX@Z:PROC			; SimCBEOSB_2F
EXTRN	?FACUnable@@YAXKHPAX@Z:PROC			; FACUnable
EXTRN	?SimPickle@@YAXKHPAX@Z:PROC			; SimPickle
EXTRN	?SimICPSIX@@YAXKHPAX@Z:PROC			; SimICPSIX
EXTRN	?SimCBEOSB_3F@@YAXKHPAX@Z:PROC			; SimCBEOSB_3F
EXTRN	?FACReady@@YAXKHPAX@Z:PROC			; FACReady
EXTRN	?SimICPEIGHT@@YAXKHPAX@Z:PROC			; SimICPEIGHT
EXTRN	?SimTrigger@@YAXKHPAX@Z:PROC			; SimTrigger
EXTRN	?SimCBEOSB_4F@@YAXKHPAX@Z:PROC			; SimCBEOSB_4F
EXTRN	?FACIn@@YAXKHPAX@Z:PROC				; FACIn
EXTRN	?SimMissileStep@@YAXKHPAX@Z:PROC		; SimMissileStep
EXTRN	?SimCBEOSB_5F@@YAXKHPAX@Z:PROC			; SimCBEOSB_5F
EXTRN	?SimICPNINE@@YAXKHPAX@Z:PROC			; SimICPNINE
EXTRN	?FACOut@@YAXKHPAX@Z:PROC			; FACOut
EXTRN	?SimICPZERO@@YAXKHPAX@Z:PROC			; SimICPZERO
EXTRN	?SimCursorUp@@YAXKHPAX@Z:PROC			; SimCursorUp
EXTRN	?SimCBEOSB_6F@@YAXKHPAX@Z:PROC			; SimCBEOSB_6F
EXTRN	?FACRequestMark@@YAXKHPAX@Z:PROC		; FACRequestMark
EXTRN	?SimCBEOSB_7F@@YAXKHPAX@Z:PROC			; SimCBEOSB_7F
EXTRN	?SimCursorDown@@YAXKHPAX@Z:PROC			; SimCursorDown
EXTRN	?FACRequestTarget@@YAXKHPAX@Z:PROC		; FACRequestTarget
EXTRN	?SimCBEOSB_8F@@YAXKHPAX@Z:PROC			; SimCBEOSB_8F
EXTRN	?SimCursorLeft@@YAXKHPAX@Z:PROC			; SimCursorLeft
EXTRN	?FACRequestBDA@@YAXKHPAX@Z:PROC			; FACRequestBDA
EXTRN	?SimCursorRight@@YAXKHPAX@Z:PROC		; SimCursorRight
EXTRN	?SimCBEOSB_9F@@YAXKHPAX@Z:PROC			; SimCBEOSB_9F
EXTRN	?FACRequestLocation@@YAXKHPAX@Z:PROC		; FACRequestLocation
EXTRN	?SimToggleAutopilot@@YAXKHPAX@Z:PROC		; SimToggleAutopilot
EXTRN	?SimICPResetDED@@YAXKHPAX@Z:PROC		; SimICPResetDED
EXTRN	?SimCBEOSB_10F@@YAXKHPAX@Z:PROC			; SimCBEOSB_10F
EXTRN	?FACRequestTACAN@@YAXKHPAX@Z:PROC		; FACRequestTACAN
EXTRN	?SimStepSMSLeft@@YAXKHPAX@Z:PROC		; SimStepSMSLeft
EXTRN	?SimCBEOSB_11F@@YAXKHPAX@Z:PROC			; SimCBEOSB_11F
EXTRN	?SimICPDEDUP@@YAXKHPAX@Z:PROC			; SimICPDEDUP
EXTRN	?TankerRequestFuel@@YAXKHPAX@Z:PROC		; TankerRequestFuel
EXTRN	?SimStepSMSRight@@YAXKHPAX@Z:PROC		; SimStepSMSRight
EXTRN	?SimICPDEDDOWN@@YAXKHPAX@Z:PROC			; SimICPDEDDOWN
EXTRN	?SimCBEOSB_12F@@YAXKHPAX@Z:PROC			; SimCBEOSB_12F
EXTRN	?TankerReadyForGas@@YAXKHPAX@Z:PROC		; TankerReadyForGas
EXTRN	?SimSelectSRMOverride@@YAXKHPAX@Z:PROC		; SimSelectSRMOverride
EXTRN	?SimICPCLEAR@@YAXKHPAX@Z:PROC			; SimICPCLEAR
EXTRN	?SimCBEOSB_13F@@YAXKHPAX@Z:PROC			; SimCBEOSB_13F
EXTRN	?TankerDoneRefueling@@YAXKHPAX@Z:PROC		; TankerDoneRefueling
EXTRN	?SimCBEOSB_14F@@YAXKHPAX@Z:PROC			; SimCBEOSB_14F
EXTRN	?SimSelectMRMOverride@@YAXKHPAX@Z:PROC		; SimSelectMRMOverride
EXTRN	?SimICPDEDSEQ@@YAXKHPAX@Z:PROC			; SimICPDEDSEQ
EXTRN	?TankerBreakaway@@YAXKHPAX@Z:PROC		; TankerBreakaway
EXTRN	?SimCBEOSB_15F@@YAXKHPAX@Z:PROC			; SimCBEOSB_15F
EXTRN	?SimDeselectOverride@@YAXKHPAX@Z:PROC		; SimDeselectOverride
EXTRN	?SimRALTSTDBY@@YAXKHPAX@Z:PROC			; SimRALTSTDBY
EXTRN	?AWACSRequestPicture@@YAXKHPAX@Z:PROC		; AWACSRequestPicture
EXTRN	?SimToggleMissileCage@@YAXKHPAX@Z:PROC		; SimToggleMissileCage
EXTRN	?SimCBEOSB_16F@@YAXKHPAX@Z:PROC			; SimCBEOSB_16F
EXTRN	?SimRALTON@@YAXKHPAX@Z:PROC			; SimRALTON
EXTRN	?AWACSRequestTanker@@YAXKHPAX@Z:PROC		; AWACSRequestTanker
EXTRN	?SimCBEOSB_17F@@YAXKHPAX@Z:PROC			; SimCBEOSB_17F
EXTRN	?SimToggleMissileSpotScan@@YAXKHPAX@Z:PROC	; SimToggleMissileSpotScan
EXTRN	?SimRALTOFF@@YAXKHPAX@Z:PROC			; SimRALTOFF
EXTRN	?AWACSRequestCarrier@@YAXKHPAX@Z:PROC		; AWACSRequestCarrier
EXTRN	?SimToggleMissileBoreSlave@@YAXKHPAX@Z:PROC	; SimToggleMissileBoreSlave
EXTRN	?SimLandingLightToggle@@YAXKHPAX@Z:PROC		; SimLandingLightToggle
EXTRN	?SimCBEOSB_18F@@YAXKHPAX@Z:PROC			; SimCBEOSB_18F
EXTRN	?AWACSWilco@@YAXKHPAX@Z:PROC			; AWACSWilco
EXTRN	?SimCBEOSB_19F@@YAXKHPAX@Z:PROC			; SimCBEOSB_19F
EXTRN	?SimLandingLightOn@@YAXKHPAX@Z:PROC		; SimLandingLightOn
EXTRN	?SimToggleMissileTDBPUncage@@YAXKHPAX@Z:PROC	; SimToggleMissileTDBPUncage
EXTRN	?AWACSUnable@@YAXKHPAX@Z:PROC			; AWACSUnable
EXTRN	?SimDropChaff@@YAXKHPAX@Z:PROC			; SimDropChaff
EXTRN	?SimCBEOSB_20F@@YAXKHPAX@Z:PROC			; SimCBEOSB_20F
EXTRN	?SimLandingLightOff@@YAXKHPAX@Z:PROC		; SimLandingLightOff
EXTRN	?AWACSRequestHelp@@YAXKHPAX@Z:PROC		; AWACSRequestHelp
EXTRN	?SimDropFlare@@YAXKHPAX@Z:PROC			; SimDropFlare
EXTRN	?SimCBEOSB_GAINUP_T@@YAXKHPAX@Z:PROC		; SimCBEOSB_GAINUP_T
EXTRN	?SimParkingBrakeToggle@@YAXKHPAX@Z:PROC		; SimParkingBrakeToggle
EXTRN	?AWACSRequestRelief@@YAXKHPAX@Z:PROC		; AWACSRequestRelief
EXTRN	?SimCBEOSB_GAINUP_F@@YAXKHPAX@Z:PROC		; SimCBEOSB_GAINUP_F
EXTRN	?SimParkingBrakeOn@@YAXKHPAX@Z:PROC		; SimParkingBrakeOn
EXTRN	?SimToggleDropPattern@@YAXKHPAX@Z:PROC		; SimToggleDropPattern
EXTRN	?SimSpeedyGonzalesUp@@YAXKHPAX@Z:PROC		; SimSpeedyGonzalesUp
EXTRN	?SimHSDRangeStepUp@@YAXKHPAX@Z:PROC		; SimHSDRangeStepUp
EXTRN	?SimCBEOSB_GAINDOWN_T@@YAXKHPAX@Z:PROC		; SimCBEOSB_GAINDOWN_T
EXTRN	?SimParkingBrakeOff@@YAXKHPAX@Z:PROC		; SimParkingBrakeOff
EXTRN	?SimSpeedyGonzalesDown@@YAXKHPAX@Z:PROC		; SimSpeedyGonzalesDown
EXTRN	?SimHSDRangeStepDown@@YAXKHPAX@Z:PROC		; SimHSDRangeStepDown
EXTRN	?SimLaserArmToggle@@YAXKHPAX@Z:PROC		; SimLaserArmToggle
EXTRN	?SimCBEOSB_GAINDOWN_F@@YAXKHPAX@Z:PROC		; SimCBEOSB_GAINDOWN_F
EXTRN	?ToggleVtune@@YAXKHPAX@Z:PROC			; ToggleVtune
EXTRN	?SimToggleInvincible@@YAXKHPAX@Z:PROC		; SimToggleInvincible
EXTRN	?SimCBEOSB_GAINUP_R@@YAXKHPAX@Z:PROC		; SimCBEOSB_GAINUP_R
EXTRN	?SimLaserArmOn@@YAXKHPAX@Z:PROC			; SimLaserArmOn
EXTRN	?Profiler_CursorDown@@YAXKHPAX@Z:PROC		; Profiler_CursorDown
EXTRN	?SimCBEOSB_GAINUP_L@@YAXKHPAX@Z:PROC		; SimCBEOSB_GAINUP_L
EXTRN	?SimLaserArmOff@@YAXKHPAX@Z:PROC		; SimLaserArmOff
EXTRN	?SimFCCSubModeStep@@YAXKHPAX@Z:PROC		; SimFCCSubModeStep
EXTRN	?Profiler_CursorUp@@YAXKHPAX@Z:PROC		; Profiler_CursorUp
EXTRN	?SimFuelDoorToggle@@YAXKHPAX@Z:PROC		; SimFuelDoorToggle
EXTRN	?SimCBEOSB_GAINDOWN_R@@YAXKHPAX@Z:PROC		; SimCBEOSB_GAINDOWN_R
EXTRN	?SimEndFlight@@YAXKHPAX@Z:PROC			; SimEndFlight
EXTRN	?Profiler_Parent@@YAXKHPAX@Z:PROC		; Profiler_Parent
EXTRN	?SimFuelDoorOpen@@YAXKHPAX@Z:PROC		; SimFuelDoorOpen
EXTRN	?SimCBEOSB_GAINDOWN_L@@YAXKHPAX@Z:PROC		; SimCBEOSB_GAINDOWN_L
EXTRN	?SimNextAAWeapon@@YAXKHPAX@Z:PROC		; SimNextAAWeapon
EXTRN	?Profiler_Select@@YAXKHPAX@Z:PROC		; Profiler_Select
EXTRN	?SimICPTILS@@YAXKHPAX@Z:PROC			; SimICPTILS
EXTRN	?SimNextAGWeapon@@YAXKHPAX@Z:PROC		; SimNextAGWeapon
EXTRN	?SimFuelDoorClose@@YAXKHPAX@Z:PROC		; SimFuelDoorClose
EXTRN	?Profiler_Hier@@YAXKHPAX@Z:PROC			; Profiler_Hier
EXTRN	?SimNextNavMode@@YAXKHPAX@Z:PROC		; SimNextNavMode
EXTRN	?SimICPALOW@@YAXKHPAX@Z:PROC			; SimICPALOW
EXTRN	?SimRightAPSwitch@@YAXKHPAX@Z:PROC		; SimRightAPSwitch
EXTRN	?Profiler_Self@@YAXKHPAX@Z:PROC			; Profiler_Self
EXTRN	?SimICPFAck@@YAXKHPAX@Z:PROC			; SimICPFAck
EXTRN	?SimEject@@YAXKHPAX@Z:PROC			; SimEject
EXTRN	?SimLeftAPSwitch@@YAXKHPAX@Z:PROC		; SimLeftAPSwitch
EXTRN	?ToggleProfilerDisplay@@YAXKHPAX@Z:PROC		; ToggleProfilerDisplay
EXTRN	?AFBrakesOut@@YAXKHPAX@Z:PROC			; AFBrakesOut
EXTRN	?SimICPPrevious@@YAXKHPAX@Z:PROC		; SimICPPrevious
EXTRN	?SimRightAPUp@@YAXKHPAX@Z:PROC			; SimRightAPUp
EXTRN	?ToggleProfiler@@YAXKHPAX@Z:PROC		; ToggleProfiler
EXTRN	?SimRightAPMid@@YAXKHPAX@Z:PROC			; SimRightAPMid
EXTRN	?SimICPNext@@YAXKHPAX@Z:PROC			; SimICPNext
EXTRN	?AFBrakesIn@@YAXKHPAX@Z:PROC			; AFBrakesIn
EXTRN	?SimRightAPDown@@YAXKHPAX@Z:PROC		; SimRightAPDown
EXTRN	?AFBrakesToggle@@YAXKHPAX@Z:PROC		; AFBrakesToggle
EXTRN	?SimICPLink@@YAXKHPAX@Z:PROC			; SimICPLink
EXTRN	?SimICPCrus@@YAXKHPAX@Z:PROC			; SimICPCrus
EXTRN	?AFGearToggle@@YAXKHPAX@Z:PROC			; AFGearToggle
EXTRN	?SimLeftAPUp@@YAXKHPAX@Z:PROC			; SimLeftAPUp
EXTRN	?SimLeftAPMid@@YAXKHPAX@Z:PROC			; SimLeftAPMid
EXTRN	?AFGearUp@@YAXKHPAX@Z:PROC			; AFGearUp
EXTRN	?SimICPStpt@@YAXKHPAX@Z:PROC			; SimICPStpt
EXTRN	?SimICPMark@@YAXKHPAX@Z:PROC			; SimICPMark
EXTRN	?SimLeftAPDown@@YAXKHPAX@Z:PROC			; SimLeftAPDown
EXTRN	?AFGearDown@@YAXKHPAX@Z:PROC			; AFGearDown
EXTRN	?ToggleSubTitles@@YAXKHPAX@Z:PROC		; ToggleSubTitles
EXTRN	?SimICPEnter@@YAXKHPAX@Z:PROC			; SimICPEnter
EXTRN	?AFCoarseThrottleUp@@YAXKHPAX@Z:PROC		; AFCoarseThrottleUp
EXTRN	?SimAPOverride@@YAXKHPAX@Z:PROC			; SimAPOverride
EXTRN	?ToggleInfoBar@@YAXKHPAX@Z:PROC			; ToggleInfoBar
EXTRN	?SimICPCom1@@YAXKHPAX@Z:PROC			; SimICPCom1
EXTRN	?SimWarnReset@@YAXKHPAX@Z:PROC			; SimWarnReset
EXTRN	?AFCoarseThrottleDown@@YAXKHPAX@Z:PROC		; AFCoarseThrottleDown
EXTRN	?ToggleDisplacementCam@@YAXKHPAX@Z:PROC		; ToggleDisplacementCam
EXTRN	?SimReticleSwitch@@YAXKHPAX@Z:PROC		; SimReticleSwitch
EXTRN	?AFElevatorUp@@YAXKHPAX@Z:PROC			; AFElevatorUp
EXTRN	?SimICPCom2@@YAXKHPAX@Z:PROC			; SimICPCom2
EXTRN	?WinAmpNextTrack@@YAXKHPAX@Z:PROC		; WinAmpNextTrack
EXTRN	?AFElevatorDown@@YAXKHPAX@Z:PROC		; AFElevatorDown
EXTRN	?SimReticlePri@@YAXKHPAX@Z:PROC			; SimReticlePri
EXTRN	?SimICPNav@@YAXKHPAX@Z:PROC			; SimICPNav
EXTRN	?WinAmpPreviousTrack@@YAXKHPAX@Z:PROC		; WinAmpPreviousTrack
EXTRN	?AFAileronLeft@@YAXKHPAX@Z:PROC			; AFAileronLeft
EXTRN	?SimICPAA@@YAXKHPAX@Z:PROC			; SimICPAA
EXTRN	?SimReticleStby@@YAXKHPAX@Z:PROC		; SimReticleStby
EXTRN	?WinAmpStopPlayback@@YAXKHPAX@Z:PROC		; WinAmpStopPlayback
EXTRN	?SimReticleOff@@YAXKHPAX@Z:PROC			; SimReticleOff
EXTRN	?SimICPAG@@YAXKHPAX@Z:PROC			; SimICPAG
EXTRN	?AFAileronRight@@YAXKHPAX@Z:PROC		; AFAileronRight
EXTRN	?WinAmpStartPlayback@@YAXKHPAX@Z:PROC		; WinAmpStartPlayback
EXTRN	?AFThrottleUp@@YAXKHPAX@Z:PROC			; AFThrottleUp
EXTRN	?SimTMSUp@@YAXKHPAX@Z:PROC			; SimTMSUp
EXTRN	?SimHUDScales@@YAXKHPAX@Z:PROC			; SimHUDScales
EXTRN	?WinAmpTogglePlayback@@YAXKHPAX@Z:PROC		; WinAmpTogglePlayback
EXTRN	?SimTMSLeft@@YAXKHPAX@Z:PROC			; SimTMSLeft
EXTRN	?AFThrottleDown@@YAXKHPAX@Z:PROC		; AFThrottleDown
EXTRN	?SimScalesVVVAH@@YAXKHPAX@Z:PROC		; SimScalesVVVAH
EXTRN	?WinAmpVolumeUp@@YAXKHPAX@Z:PROC		; WinAmpVolumeUp
EXTRN	?SimTMSDown@@YAXKHPAX@Z:PROC			; SimTMSDown
EXTRN	?AFRudderLeft@@YAXKHPAX@Z:PROC			; AFRudderLeft
EXTRN	?SimScalesVAH@@YAXKHPAX@Z:PROC			; SimScalesVAH
EXTRN	?WinAmpVolumeDown@@YAXKHPAX@Z:PROC		; WinAmpVolumeDown
EXTRN	?SimScalesOff@@YAXKHPAX@Z:PROC			; SimScalesOff
EXTRN	?AFRudderRight@@YAXKHPAX@Z:PROC			; AFRudderRight
EXTRN	?SimTMSRight@@YAXKHPAX@Z:PROC			; SimTMSRight
EXTRN	?CycleEngine@@YAXKHPAX@Z:PROC			; CycleEngine
EXTRN	?SimSeatArm@@YAXKHPAX@Z:PROC			; SimSeatArm
EXTRN	?SimHUDFPM@@YAXKHPAX@Z:PROC			; SimHUDFPM
EXTRN	?AFABOn@@YAXKHPAX@Z:PROC			; AFABOn
EXTRN	?selectLeftEngine@@YAXKHPAX@Z:PROC		; selectLeftEngine
EXTRN	?SimHUDDED@@YAXKHPAX@Z:PROC			; SimHUDDED
EXTRN	?SimSeatOn@@YAXKHPAX@Z:PROC			; SimSeatOn
EXTRN	?AFIdle@@YAXKHPAX@Z:PROC			; AFIdle
EXTRN	?selectRightEngine@@YAXKHPAX@Z:PROC		; selectRightEngine
EXTRN	?SimHUDDEDOff@@YAXKHPAX@Z:PROC			; SimHUDDEDOff
EXTRN	?SimSeatOff@@YAXKHPAX@Z:PROC			; SimSeatOff
EXTRN	?OTWTimeOfDayStep@@YAXKHPAX@Z:PROC		; OTWTimeOfDayStep
EXTRN	?selectBothEngines@@YAXKHPAX@Z:PROC		; selectBothEngines
EXTRN	?OTWStepNextAC@@YAXKHPAX@Z:PROC			; OTWStepNextAC
EXTRN	?SimEWSRWRPower@@YAXKHPAX@Z:PROC		; SimEWSRWRPower
EXTRN	?SimHUDDEDPFL@@YAXKHPAX@Z:PROC			; SimHUDDEDPFL
EXTRN	?ToggleTIR@@YAXKHPAX@Z:PROC			; ToggleTIR
EXTRN	?SimEWSRWROn@@YAXKHPAX@Z:PROC			; SimEWSRWROn
EXTRN	?SimHUDDEDDED@@YAXKHPAX@Z:PROC			; SimHUDDEDDED
EXTRN	?OTWStepPrevAC@@YAXKHPAX@Z:PROC			; OTWStepPrevAC
EXTRN	?ToggleClickablePitMode@@YAXKHPAX@Z:PROC	; ToggleClickablePitMode
EXTRN	?OTWStepNextPadlock@@YAXKHPAX@Z:PROC		; OTWStepNextPadlock
EXTRN	?SimHUDVelocity@@YAXKHPAX@Z:PROC		; SimHUDVelocity
EXTRN	?SimEWSRWROff@@YAXKHPAX@Z:PROC			; SimEWSRWROff
EXTRN	?SimToggleRearView@@YAXKHPAX@Z:PROC		; SimToggleRearView
EXTRN	?SimEWSJammerPower@@YAXKHPAX@Z:PROC		; SimEWSJammerPower
EXTRN	?OTWStepNextPadlockAA@@YAXKHPAX@Z:PROC		; OTWStepNextPadlockAA
EXTRN	?SimHUDVelocityCAS@@YAXKHPAX@Z:PROC		; SimHUDVelocityCAS
EXTRN	?SimToggleAltView@@YAXKHPAX@Z:PROC		; SimToggleAltView
EXTRN	?SimEWSJammerOn@@YAXKHPAX@Z:PROC		; SimEWSJammerOn
EXTRN	?OTWStepNextPadlockAG@@YAXKHPAX@Z:PROC		; OTWStepNextPadlockAG
EXTRN	?SimHUDVelocityTAS@@YAXKHPAX@Z:PROC		; SimHUDVelocityTAS
EXTRN	?OTWStepHudContrastDn@@YAXKHPAX@Z:PROC		; OTWStepHudContrastDn
EXTRN	?SimHUDVelocityGND@@YAXKHPAX@Z:PROC		; SimHUDVelocityGND
EXTRN	?OTWStepPrevPadlock@@YAXKHPAX@Z:PROC		; OTWStepPrevPadlock
EXTRN	?SimEWSJammerOff@@YAXKHPAX@Z:PROC		; SimEWSJammerOff
EXTRN	?OTWStepHudContrastUp@@YAXKHPAX@Z:PROC		; OTWStepHudContrastUp
EXTRN	?SimEWSChaffPower@@YAXKHPAX@Z:PROC		; SimEWSChaffPower
EXTRN	?SimHUDRadar@@YAXKHPAX@Z:PROC			; SimHUDRadar
EXTRN	?OTWStepPrevPadlockAA@@YAXKHPAX@Z:PROC		; OTWStepPrevPadlockAA
EXTRN	?SimHUDAltRadar@@YAXKHPAX@Z:PROC		; SimHUDAltRadar
EXTRN	?OTWStepPrevPadlockAG@@YAXKHPAX@Z:PROC		; OTWStepPrevPadlockAG
EXTRN	?SimEWSChaffOn@@YAXKHPAX@Z:PROC			; SimEWSChaffOn
EXTRN	?SimHUDAltBaro@@YAXKHPAX@Z:PROC			; SimHUDAltBaro
EXTRN	?SimEWSChaffOff@@YAXKHPAX@Z:PROC		; SimEWSChaffOff
EXTRN	?OTWToggleNames@@YAXKHPAX@Z:PROC		; OTWToggleNames
EXTRN	?SimEWSFlarePower@@YAXKHPAX@Z:PROC		; SimEWSFlarePower
EXTRN	?SimHUDAltAuto@@YAXKHPAX@Z:PROC			; SimHUDAltAuto
EXTRN	?OTWToggleCampNames@@YAXKHPAX@Z:PROC		; OTWToggleCampNames
EXTRN	?SimEWSFlareOn@@YAXKHPAX@Z:PROC			; SimEWSFlareOn
EXTRN	?SimHUDBrightness@@YAXKHPAX@Z:PROC		; SimHUDBrightness
EXTRN	?OTWSelectF3PadlockMode@@YAXKHPAX@Z:PROC	; OTWSelectF3PadlockMode
EXTRN	?SimHUDBrtDay@@YAXKHPAX@Z:PROC			; SimHUDBrtDay
EXTRN	?SimEWSFlareOff@@YAXKHPAX@Z:PROC		; SimEWSFlareOff
EXTRN	?OTWSelectF3PadlockModeAA@@YAXKHPAX@Z:PROC	; OTWSelectF3PadlockModeAA
EXTRN	?SimEWSPGMDec@@YAXKHPAX@Z:PROC			; SimEWSPGMDec
EXTRN	?OTWSelectF3PadlockModeAG@@YAXKHPAX@Z:PROC	; OTWSelectF3PadlockModeAG
EXTRN	?SimHUDBrtAuto@@YAXKHPAX@Z:PROC			; SimHUDBrtAuto
EXTRN	?SimEWSPGMInc@@YAXKHPAX@Z:PROC			; SimEWSPGMInc
EXTRN	?SimHUDBrtNight@@YAXKHPAX@Z:PROC		; SimHUDBrtNight
EXTRN	?OTWSelectEFOVPadlockMode@@YAXKHPAX@Z:PROC	; OTWSelectEFOVPadlockMode
EXTRN	?SimHUDBrightnessUp@@YAXKHPAX@Z:PROC		; SimHUDBrightnessUp
EXTRN	?OTWSelectEFOVPadlockModeAA@@YAXKHPAX@Z:PROC	; OTWSelectEFOVPadlockModeAA
EXTRN	?SimEWSModeOff@@YAXKHPAX@Z:PROC			; SimEWSModeOff
EXTRN	?SimEWSModeStby@@YAXKHPAX@Z:PROC		; SimEWSModeStby
EXTRN	?SimHUDBrightnessDown@@YAXKHPAX@Z:PROC		; SimHUDBrightnessDown
EXTRN	?OTWSelectEFOVPadlockModeAG@@YAXKHPAX@Z:PROC	; OTWSelectEFOVPadlockModeAG
EXTRN	?OTWRadioMenuStep@@YAXKHPAX@Z:PROC		; OTWRadioMenuStep
EXTRN	?SimEWSModeMan@@YAXKHPAX@Z:PROC			; SimEWSModeMan
EXTRN	?SimCycleRadioChannel@@YAXKHPAX@Z:PROC		; SimCycleRadioChannel
EXTRN	?OTWRadioMenuStepBack@@YAXKHPAX@Z:PROC		; OTWRadioMenuStepBack
EXTRN	?SimEWSModeSemi@@YAXKHPAX@Z:PROC		; SimEWSModeSemi
EXTRN	?SimDecRadioChannel@@YAXKHPAX@Z:PROC		; SimDecRadioChannel
EXTRN	?SimEWSModeAuto@@YAXKHPAX@Z:PROC		; SimEWSModeAuto
EXTRN	?SimToggleRadioVolume@@YAXKHPAX@Z:PROC		; SimToggleRadioVolume
EXTRN	?OTWStepMFD1@@YAXKHPAX@Z:PROC			; OTWStepMFD1
EXTRN	?SimEWSProgDec@@YAXKHPAX@Z:PROC			; SimEWSProgDec
EXTRN	?ExtinguishMasterCaution@@YAXKHPAX@Z:PROC	; ExtinguishMasterCaution
EXTRN	?OTWStepMFD2@@YAXKHPAX@Z:PROC			; OTWStepMFD2
EXTRN	?SimEWSProgInc@@YAXKHPAX@Z:PROC			; SimEWSProgInc
EXTRN	?OTWStepMFD3@@YAXKHPAX@Z:PROC			; OTWStepMFD3
EXTRN	?SimCycleLeftAuxComDigit@@YAXKHPAX@Z:PROC	; SimCycleLeftAuxComDigit
EXTRN	?OTWStepMFD4@@YAXKHPAX@Z:PROC			; OTWStepMFD4
EXTRN	?SimEWSProgOne@@YAXKHPAX@Z:PROC			; SimEWSProgOne
EXTRN	?SimCycleCenterAuxComDigit@@YAXKHPAX@Z:PROC	; SimCycleCenterAuxComDigit
EXTRN	?SimEWSProgTwo@@YAXKHPAX@Z:PROC			; SimEWSProgTwo
EXTRN	?OTWToggleScales@@YAXKHPAX@Z:PROC		; OTWToggleScales
EXTRN	?SimCycleRightAuxComDigit@@YAXKHPAX@Z:PROC	; SimCycleRightAuxComDigit
EXTRN	?SimCycleBandAuxComDigit@@YAXKHPAX@Z:PROC	; SimCycleBandAuxComDigit
EXTRN	?OTWTogglePitchLadder@@YAXKHPAX@Z:PROC		; OTWTogglePitchLadder
EXTRN	?SimEWSProgThree@@YAXKHPAX@Z:PROC		; SimEWSProgThree
EXTRN	?SimToggleAuxComMaster@@YAXKHPAX@Z:PROC		; SimToggleAuxComMaster
EXTRN	?SimEWSProgFour@@YAXKHPAX@Z:PROC		; SimEWSProgFour
EXTRN	?SimPitchLadderOff@@YAXKHPAX@Z:PROC		; SimPitchLadderOff
;	COMDAT ??_C@_0O@PCGOOPHF@SimHUDBrtAuto?$AA@
CONST	SEGMENT
??_C@_0O@PCGOOPHF@SimHUDBrtAuto?$AA@ DB 'SimHUDBrtAuto', 00H ; `string'
CONST	ENDS
;	COMDAT ??_C@_0N@EILNMCEJ@SimHUDBrtDay?$AA@
CONST	SEGMENT
??_C@_0N@EILNMCEJ@SimHUDBrtDay?$AA@ DB 'SimHUDBrtDay', 00H ; `string'
CONST	ENDS
;	COMDAT ?tinyness_before@_Num_base@std@@2_NB
CONST	SEGMENT
?tinyness_before@_Num_base@std@@2_NB DB 00H		; std::_Num_base::tinyness_before
CONST	ENDS
;	COMDAT ??_C@_0BB@CGHEOIHB@SimHUDBrightness?$AA@
CONST	SEGMENT
??_C@_0BB@CGHEOIHB@SimHUDBrightness?$AA@ DB 'SimHUDBrightness', 00H ; `string'
CONST	ENDS
;	COMDAT ??_C@_0BA@PCOKIKCB@OTWStepHudColor?$AA@
CONST	SEGMENT
??_C@_0BA@PCOKIKCB@OTWStepHudColor?$AA@ DB 'OTWStepHudColor', 00H ; `string'
CONST	ENDS
;	COMDAT ??_C@_0O@ELAAAPAF@SimHUDAltAuto?$AA@
CONST	SEGMENT
??_C@_0O@ELAAAPAF@SimHUDAltAuto?$AA@ DB 'SimHUDAltAuto', 00H ; `string'
CONST	ENDS
;	COMDAT ?is_specialized@_Num_base@std@@2_NB
CONST	SEGMENT
?is_specialized@_Num_base@std@@2_NB DB 00H		; std::_Num_base::is_specialized
CONST	ENDS
;	COMDAT ??_C@_0O@NHFGMJKP@SimHUDAltBaro?$AA@
CONST	SEGMENT
??_C@_0O@NHFGMJKP@SimHUDAltBaro?$AA@ DB 'SimHUDAltBaro', 00H ; `string'
CONST	ENDS
;	COMDAT ??_C@_0P@CHINNEBG@SimHUDAltRadar?$AA@
CONST	SEGMENT
??_C@_0P@CHINNEBG@SimHUDAltRadar?$AA@ DB 'SimHUDAltRadar', 00H ; `string'
CONST	ENDS
;	COMDAT ??_C@_0M@NMLLGPA@SimHUDRadar?$AA@
CONST	SEGMENT
??_C@_0M@NMLLGPA@SimHUDRadar?$AA@ DB 'SimHUDRadar', 00H	; `string'
CONST	ENDS
;	COMDAT ?is_signed@_Num_base@std@@2_NB
CONST	SEGMENT
?is_signed@_Num_base@std@@2_NB DB 00H			; std::_Num_base::is_signed
CONST	ENDS
;	COMDAT ??_C@_0BC@GJNHHCMH@SimHUDVelocityGND?$AA@
CONST	SEGMENT
??_C@_0BC@GJNHHCMH@SimHUDVelocityGND?$AA@ DB 'SimHUDVelocityGND', 00H ; `string'
CONST	ENDS
;	COMDAT ??_C@_0BC@CFKEEJBN@SimHUDVelocityTAS?$AA@
CONST	SEGMENT
??_C@_0BC@CFKEEJBN@SimHUDVelocityTAS?$AA@ DB 'SimHUDVelocityTAS', 00H ; `string'
CONST	ENDS
;	COMDAT ??_C@_0BC@OIGKCGDL@SimHUDVelocityCAS?$AA@
CONST	SEGMENT
??_C@_0BC@OIGKCGDL@SimHUDVelocityCAS?$AA@ DB 'SimHUDVelocityCAS', 00H ; `string'
CONST	ENDS
;	COMDAT ?is_modulo@_Num_base@std@@2_NB
CONST	SEGMENT
?is_modulo@_Num_base@std@@2_NB DB 00H			; std::_Num_base::is_modulo
CONST	ENDS
;	COMDAT ??_C@_0P@GNAFBFLC@SimHUDVelocity?$AA@
CONST	SEGMENT
??_C@_0P@GNAFBFLC@SimHUDVelocity?$AA@ DB 'SimHUDVelocity', 00H ; `string'
CONST	ENDS
;	COMDAT ??_C@_0N@MGJPNOGC@SimHUDDEDDED?$AA@
CONST	SEGMENT
??_C@_0N@MGJPNOGC@SimHUDDEDDED?$AA@ DB 'SimHUDDEDDED', 00H ; `string'
CONST	ENDS
;	COMDAT ??_C@_0N@NDHLCKPL@SimHUDDEDPFL?$AA@
CONST	SEGMENT
??_C@_0N@NDHLCKPL@SimHUDDEDPFL?$AA@ DB 'SimHUDDEDPFL', 00H ; `string'
CONST	ENDS
;	COMDAT ?is_integer@_Num_base@std@@2_NB
CONST	SEGMENT
?is_integer@_Num_base@std@@2_NB DB 00H			; std::_Num_base::is_integer
CONST	ENDS
;	COMDAT ??_C@_0N@IMCHOHPK@SimHUDDEDOff?$AA@
CONST	SEGMENT
??_C@_0N@IMCHOHPK@SimHUDDEDOff?$AA@ DB 'SimHUDDEDOff', 00H ; `string'
CONST	ENDS
;	COMDAT ??_C@_09IFJOHOME@SimHUDDED?$AA@
CONST	SEGMENT
??_C@_09IFJOHOME@SimHUDDED?$AA@ DB 'SimHUDDED', 00H	; `string'
CONST	ENDS
;	COMDAT ??_C@_09OELIGMJN@SimHUDFPM?$AA@
CONST	SEGMENT
??_C@_09OELIGMJN@SimHUDFPM?$AA@ DB 'SimHUDFPM', 00H	; `string'
CONST	ENDS
;	COMDAT ?is_iec559@_Num_base@std@@2_NB
CONST	SEGMENT
?is_iec559@_Num_base@std@@2_NB DB 00H			; std::_Num_base::is_iec559
CONST	ENDS
;	COMDAT ??_C@_0N@FHCLFONE@SimScalesOff?$AA@
CONST	SEGMENT
??_C@_0N@FHCLFONE@SimScalesOff?$AA@ DB 'SimScalesOff', 00H ; `string'
CONST	ENDS
;	COMDAT ??_C@_0N@EMDPBPII@SimScalesVAH?$AA@
CONST	SEGMENT
??_C@_0N@EMDPBPII@SimScalesVAH?$AA@ DB 'SimScalesVAH', 00H ; `string'
CONST	ENDS
;	COMDAT ??_C@_0P@FFKMBKEN@SimScalesVVVAH?$AA@
CONST	SEGMENT
??_C@_0P@FFKMBKEN@SimScalesVVVAH?$AA@ DB 'SimScalesVVVAH', 00H ; `string'
CONST	ENDS
;	COMDAT ?is_exact@_Num_base@std@@2_NB
CONST	SEGMENT
?is_exact@_Num_base@std@@2_NB DB 00H			; std::_Num_base::is_exact
CONST	ENDS
;	COMDAT ??_C@_0N@HBPOFLHI@SimHUDScales?$AA@
CONST	SEGMENT
??_C@_0N@HBPOFLHI@SimHUDScales?$AA@ DB 'SimHUDScales', 00H ; `string'
CONST	ENDS
;	COMDAT ??_C@_08EFIFEIPN@SimICPAG?$AA@
CONST	SEGMENT
??_C@_08EFIFEIPN@SimICPAG?$AA@ DB 'SimICPAG', 00H	; `string'
CONST	ENDS
;	COMDAT ??_C@_08BDNPOPHL@SimICPAA?$AA@
CONST	SEGMENT
??_C@_08BDNPOPHL@SimICPAA?$AA@ DB 'SimICPAA', 00H	; `string'
CONST	ENDS
;	COMDAT ?is_bounded@_Num_base@std@@2_NB
CONST	SEGMENT
?is_bounded@_Num_base@std@@2_NB DB 00H			; std::_Num_base::is_bounded
CONST	ENDS
;	COMDAT ??_C@_09NOIPPPJN@SimICPNav?$AA@
CONST	SEGMENT
??_C@_09NOIPPPJN@SimICPNav?$AA@ DB 'SimICPNav', 00H	; `string'
CONST	ENDS
;	COMDAT ??_C@_0L@EAABJIKH@SimICPCom1?$AA@
CONST	SEGMENT
??_C@_0L@EAABJIKH@SimICPCom1?$AA@ DB 'SimICPCom1', 00H	; `string'
CONST	ENDS
;	COMDAT ??_C@_0M@PIGGHIHD@SimICPEnter?$AA@
CONST	SEGMENT
??_C@_0M@PIGGHIHD@SimICPEnter?$AA@ DB 'SimICPEnter', 00H ; `string'
CONST	ENDS
;	COMDAT ?has_signaling_NaN@_Num_base@std@@2_NB
CONST	SEGMENT
?has_signaling_NaN@_Num_base@std@@2_NB DB 00H		; std::_Num_base::has_signaling_NaN
CONST	ENDS
;	COMDAT ??_C@_0L@EIMAAAGG@SimICPMark?$AA@
CONST	SEGMENT
??_C@_0L@EIMAAAGG@SimICPMark?$AA@ DB 'SimICPMark', 00H	; `string'
CONST	ENDS
;	COMDAT ??_C@_0L@DOAJFENI@SimICPStpt?$AA@
CONST	SEGMENT
??_C@_0L@DOAJFENI@SimICPStpt?$AA@ DB 'SimICPStpt', 00H	; `string'
CONST	ENDS
;	COMDAT ??_C@_0L@DCAIMIKK@SimICPCrus?$AA@
CONST	SEGMENT
??_C@_0L@DCAIMIKK@SimICPCrus?$AA@ DB 'SimICPCrus', 00H	; `string'
CONST	ENDS
;	COMDAT ?has_quiet_NaN@_Num_base@std@@2_NB
CONST	SEGMENT
?has_quiet_NaN@_Num_base@std@@2_NB DB 00H		; std::_Num_base::has_quiet_NaN
CONST	ENDS
;	COMDAT ??_C@_0L@KFCIFLCN@SimICPLink?$AA@
CONST	SEGMENT
??_C@_0L@KFCIFLCN@SimICPLink?$AA@ DB 'SimICPLink', 00H	; `string'
CONST	ENDS
;	COMDAT ??_C@_0L@EAMPGGKJ@SimICPNext?$AA@
CONST	SEGMENT
??_C@_0L@EAMPGGKJ@SimICPNext?$AA@ DB 'SimICPNext', 00H	; `string'
CONST	ENDS
;	COMDAT ??_C@_0P@LOHFOEDP@SimICPPrevious?$AA@
CONST	SEGMENT
??_C@_0P@LOHFOEDP@SimICPPrevious?$AA@ DB 'SimICPPrevious', 00H ; `string'
CONST	ENDS
;	COMDAT ?has_infinity@_Num_base@std@@2_NB
CONST	SEGMENT
?has_infinity@_Num_base@std@@2_NB DB 00H		; std::_Num_base::has_infinity
CONST	ENDS
;	COMDAT ??_C@_0L@ICMGFHAO@SimICPFAck?$AA@
CONST	SEGMENT
??_C@_0L@ICMGFHAO@SimICPFAck?$AA@ DB 'SimICPFAck', 00H	; `string'
CONST	ENDS
;	COMDAT ??_C@_0L@IACIJFLI@SimICPALOW?$AA@
CONST	SEGMENT
??_C@_0L@IACIJFLI@SimICPALOW?$AA@ DB 'SimICPALOW', 00H	; `string'
CONST	ENDS
;	COMDAT ??_C@_0L@HJNMAGCF@SimICPTILS?$AA@
CONST	SEGMENT
??_C@_0L@HJNMAGCF@SimICPTILS?$AA@ DB 'SimICPTILS', 00H	; `string'
CONST	ENDS
;	COMDAT ?has_denorm_loss@_Num_base@std@@2_NB
CONST	SEGMENT
?has_denorm_loss@_Num_base@std@@2_NB DB 00H		; std::_Num_base::has_denorm_loss
CONST	ENDS
;	COMDAT ??_C@_0BF@JENCGFPP@SimCBEOSB_GAINDOWN_F?$AA@
CONST	SEGMENT
??_C@_0BF@JENCGFPP@SimCBEOSB_GAINDOWN_F?$AA@ DB 'SimCBEOSB_GAINDOWN_F', 00H ; `string'
CONST	ENDS
;	COMDAT ??_C@_0BF@OMCGBFCM@SimCBEOSB_GAINDOWN_T?$AA@
CONST	SEGMENT
??_C@_0BF@OMCGBFCM@SimCBEOSB_GAINDOWN_T?$AA@ DB 'SimCBEOSB_GAINDOWN_T', 00H ; `string'
CONST	ENDS
;	COMDAT ??_C@_0BD@FALCNKFH@SimCBEOSB_GAINUP_F?$AA@
CONST	SEGMENT
??_C@_0BD@FALCNKFH@SimCBEOSB_GAINUP_F?$AA@ DB 'SimCBEOSB_GAINUP_F', 00H ; `string'
CONST	ENDS
;	COMDAT ?has_denorm@_Num_base@std@@2W4float_denorm_style@2@B
CONST	SEGMENT
?has_denorm@_Num_base@std@@2W4float_denorm_style@2@B DD 00H ; std::_Num_base::has_denorm
CONST	ENDS
;	COMDAT ??_C@_0BD@CIEGKKIE@SimCBEOSB_GAINUP_T?$AA@
CONST	SEGMENT
??_C@_0BD@CIEGKKIE@SimCBEOSB_GAINUP_T?$AA@ DB 'SimCBEOSB_GAINUP_T', 00H ; `string'
CONST	ENDS
;	COMDAT ??_C@_0O@MJGMNGDK@SimCBEOSB_20F?$AA@
CONST	SEGMENT
??_C@_0O@MJGMNGDK@SimCBEOSB_20F?$AA@ DB 'SimCBEOSB_20F', 00H ; `string'
CONST	ENDS
;	COMDAT ??_C@_0O@NEAIECFL@SimCBEOSB_19F?$AA@
CONST	SEGMENT
??_C@_0O@NEAIECFL@SimCBEOSB_19F?$AA@ DB 'SimCBEOSB_19F', 00H ; `string'
CONST	ENDS
;	COMDAT ??_C@_0O@NFMKCIGM@SimCBEOSB_18F?$AA@
CONST	SEGMENT
??_C@_0O@NFMKCIGM@SimCBEOSB_18F?$AA@ DB 'SimCBEOSB_18F', 00H ; `string'
CONST	ENDS
;	COMDAT ??_C@_0O@NOJGGPFB@SimCBEOSB_17F?$AA@
CONST	SEGMENT
??_C@_0O@NOJGGPFB@SimCBEOSB_17F?$AA@ DB 'SimCBEOSB_17F', 00H ; `string'
CONST	ENDS
;	COMDAT ??_C@_0O@NPFEAFGG@SimCBEOSB_16F?$AA@
CONST	SEGMENT
??_C@_0O@NPFEAFGG@SimCBEOSB_16F?$AA@ DB 'SimCBEOSB_16F', 00H ; `string'
CONST	ENDS
;	COMDAT ??_C@_0O@NNBCLLDP@SimCBEOSB_15F?$AA@
CONST	SEGMENT
??_C@_0O@NNBCLLDP@SimCBEOSB_15F?$AA@ DB 'SimCBEOSB_15F', 00H ; `string'
CONST	ENDS
;	COMDAT ??_C@_0O@NMNANBAI@SimCBEOSB_14F?$AA@
CONST	SEGMENT
??_C@_0O@NMNANBAI@SimCBEOSB_14F?$AA@ DB 'SimCBEOSB_14F', 00H ; `string'
CONST	ENDS
;	COMDAT ??_C@_0O@NJJPMHIN@SimCBEOSB_13F?$AA@
CONST	SEGMENT
??_C@_0O@NJJPMHIN@SimCBEOSB_13F?$AA@ DB 'SimCBEOSB_13F', 00H ; `string'
CONST	ENDS
;	COMDAT ??_C@_0O@NIFNKNLK@SimCBEOSB_12F?$AA@
CONST	SEGMENT
??_C@_0O@NIFNKNLK@SimCBEOSB_12F?$AA@ DB 'SimCBEOSB_12F', 00H ; `string'
CONST	ENDS
;	COMDAT ??_C@_0O@NKBLBDOD@SimCBEOSB_11F?$AA@
CONST	SEGMENT
??_C@_0O@NKBLBDOD@SimCBEOSB_11F?$AA@ DB 'SimCBEOSB_11F', 00H ; `string'
CONST	ENDS
;	COMDAT ??_C@_0O@NLNJHJNE@SimCBEOSB_10F?$AA@
CONST	SEGMENT
??_C@_0O@NLNJHJNE@SimCBEOSB_10F?$AA@ DB 'SimCBEOSB_10F', 00H ; `string'
CONST	ENDS
;	COMDAT ??_C@_0N@IKHJGJEH@SimCBEOSB_9F?$AA@
CONST	SEGMENT
??_C@_0N@IKHJGJEH@SimCBEOSB_9F?$AA@ DB 'SimCBEOSB_9F', 00H ; `string'
CONST	ENDS
;	COMDAT ??_C@_0N@ILLLADHA@SimCBEOSB_8F?$AA@
CONST	SEGMENT
??_C@_0N@ILLLADHA@SimCBEOSB_8F?$AA@ DB 'SimCBEOSB_8F', 00H ; `string'
CONST	ENDS
;	COMDAT ??_C@_0N@IAOHEEEN@SimCBEOSB_7F?$AA@
CONST	SEGMENT
??_C@_0N@IAOHEEEN@SimCBEOSB_7F?$AA@ DB 'SimCBEOSB_7F', 00H ; `string'
CONST	ENDS
;	COMDAT ??_C@_0N@IBCFCOHK@SimCBEOSB_6F?$AA@
CONST	SEGMENT
??_C@_0N@IBCFCOHK@SimCBEOSB_6F?$AA@ DB 'SimCBEOSB_6F', 00H ; `string'
CONST	ENDS
;	COMDAT ??_C@_0N@IDGDJACD@SimCBEOSB_5F?$AA@
CONST	SEGMENT
??_C@_0N@IDGDJACD@SimCBEOSB_5F?$AA@ DB 'SimCBEOSB_5F', 00H ; `string'
CONST	ENDS
;	COMDAT ??_C@_0N@ICKBPKBE@SimCBEOSB_4F?$AA@
CONST	SEGMENT
??_C@_0N@ICKBPKBE@SimCBEOSB_4F?$AA@ DB 'SimCBEOSB_4F', 00H ; `string'
CONST	ENDS
;	COMDAT ??_C@_0N@IHOOOMJB@SimCBEOSB_3F?$AA@
CONST	SEGMENT
??_C@_0N@IHOOOMJB@SimCBEOSB_3F?$AA@ DB 'SimCBEOSB_3F', 00H ; `string'
CONST	ENDS
;	COMDAT ??_C@_0N@IGCMIGKG@SimCBEOSB_2F?$AA@
CONST	SEGMENT
??_C@_0N@IGCMIGKG@SimCBEOSB_2F?$AA@ DB 'SimCBEOSB_2F', 00H ; `string'
CONST	ENDS
;	COMDAT ??_C@_0N@IEGKDIPP@SimCBEOSB_1F?$AA@
CONST	SEGMENT
??_C@_0N@IEGKDIPP@SimCBEOSB_1F?$AA@ DB 'SimCBEOSB_1F', 00H ; `string'
CONST	ENDS
;	COMDAT ??_C@_0O@LBJIKGOJ@SimCBEOSB_20T?$AA@
CONST	SEGMENT
??_C@_0O@LBJIKGOJ@SimCBEOSB_20T?$AA@ DB 'SimCBEOSB_20T', 00H ; `string'
CONST	ENDS
;	COMDAT ??_C@_0O@KMPMDCII@SimCBEOSB_19T?$AA@
CONST	SEGMENT
??_C@_0O@KMPMDCII@SimCBEOSB_19T?$AA@ DB 'SimCBEOSB_19T', 00H ; `string'
CONST	ENDS
;	COMDAT ??_C@_0O@KNDOFILP@SimCBEOSB_18T?$AA@
CONST	SEGMENT
??_C@_0O@KNDOFILP@SimCBEOSB_18T?$AA@ DB 'SimCBEOSB_18T', 00H ; `string'
CONST	ENDS
;	COMDAT ??_C@_0O@KGGCBPIC@SimCBEOSB_17T?$AA@
CONST	SEGMENT
??_C@_0O@KGGCBPIC@SimCBEOSB_17T?$AA@ DB 'SimCBEOSB_17T', 00H ; `string'
CONST	ENDS
;	COMDAT ??_C@_0O@KHKAHFLF@SimCBEOSB_16T?$AA@
CONST	SEGMENT
??_C@_0O@KHKAHFLF@SimCBEOSB_16T?$AA@ DB 'SimCBEOSB_16T', 00H ; `string'
CONST	ENDS
;	COMDAT ??_C@_0O@KFOGMLOM@SimCBEOSB_15T?$AA@
CONST	SEGMENT
??_C@_0O@KFOGMLOM@SimCBEOSB_15T?$AA@ DB 'SimCBEOSB_15T', 00H ; `string'
CONST	ENDS
;	COMDAT ??_C@_0O@KECEKBNL@SimCBEOSB_14T?$AA@
CONST	SEGMENT
??_C@_0O@KECEKBNL@SimCBEOSB_14T?$AA@ DB 'SimCBEOSB_14T', 00H ; `string'
CONST	ENDS
;	COMDAT ??_C@_0O@KBGLLHFO@SimCBEOSB_13T?$AA@
CONST	SEGMENT
??_C@_0O@KBGLLHFO@SimCBEOSB_13T?$AA@ DB 'SimCBEOSB_13T', 00H ; `string'
CONST	ENDS
;	COMDAT ??_C@_0O@KAKJNNGJ@SimCBEOSB_12T?$AA@
CONST	SEGMENT
??_C@_0O@KAKJNNGJ@SimCBEOSB_12T?$AA@ DB 'SimCBEOSB_12T', 00H ; `string'
CONST	ENDS
;	COMDAT ??_C@_0O@KCOPGDDA@SimCBEOSB_11T?$AA@
CONST	SEGMENT
??_C@_0O@KCOPGDDA@SimCBEOSB_11T?$AA@ DB 'SimCBEOSB_11T', 00H ; `string'
CONST	ENDS
;	COMDAT ??_C@_0O@KDCNAJAH@SimCBEOSB_10T?$AA@
CONST	SEGMENT
??_C@_0O@KDCNAJAH@SimCBEOSB_10T?$AA@ DB 'SimCBEOSB_10T', 00H ; `string'
CONST	ENDS
;	COMDAT ??_C@_0N@PCINBJJE@SimCBEOSB_9T?$AA@
CONST	SEGMENT
??_C@_0N@PCINBJJE@SimCBEOSB_9T?$AA@ DB 'SimCBEOSB_9T', 00H ; `string'
CONST	ENDS
;	COMDAT ??_C@_0N@PDEPHDKD@SimCBEOSB_8T?$AA@
CONST	SEGMENT
??_C@_0N@PDEPHDKD@SimCBEOSB_8T?$AA@ DB 'SimCBEOSB_8T', 00H ; `string'
CONST	ENDS
;	COMDAT ??_C@_0N@PIBDDEJO@SimCBEOSB_7T?$AA@
CONST	SEGMENT
??_C@_0N@PIBDDEJO@SimCBEOSB_7T?$AA@ DB 'SimCBEOSB_7T', 00H ; `string'
CONST	ENDS
;	COMDAT ??_C@_0N@PJNBFOKJ@SimCBEOSB_6T?$AA@
CONST	SEGMENT
??_C@_0N@PJNBFOKJ@SimCBEOSB_6T?$AA@ DB 'SimCBEOSB_6T', 00H ; `string'
CONST	ENDS
;	COMDAT ??_C@_0N@PLJHOAPA@SimCBEOSB_5T?$AA@
CONST	SEGMENT
??_C@_0N@PLJHOAPA@SimCBEOSB_5T?$AA@ DB 'SimCBEOSB_5T', 00H ; `string'
CONST	ENDS
;	COMDAT ??_C@_0N@PKFFIKMH@SimCBEOSB_4T?$AA@
CONST	SEGMENT
??_C@_0N@PKFFIKMH@SimCBEOSB_4T?$AA@ DB 'SimCBEOSB_4T', 00H ; `string'
CONST	ENDS
;	COMDAT ??_C@_0N@PPBKJMEC@SimCBEOSB_3T?$AA@
CONST	SEGMENT
??_C@_0N@PPBKJMEC@SimCBEOSB_3T?$AA@ DB 'SimCBEOSB_3T', 00H ; `string'
CONST	ENDS
;	COMDAT ??_C@_0N@PONIPGHF@SimCBEOSB_2T?$AA@
CONST	SEGMENT
??_C@_0N@PONIPGHF@SimCBEOSB_2T?$AA@ DB 'SimCBEOSB_2T', 00H ; `string'
CONST	ENDS
;	COMDAT ??_C@_0N@PMJOEICM@SimCBEOSB_1T?$AA@
CONST	SEGMENT
??_C@_0N@PMJOEICM@SimCBEOSB_1T?$AA@ DB 'SimCBEOSB_1T', 00H ; `string'
CONST	ENDS
;	COMDAT ??_C@_0BF@LKHMLCKK@SimCBEOSB_GAINDOWN_R?$AA@
CONST	SEGMENT
??_C@_0BF@LKHMLCKK@SimCBEOSB_GAINDOWN_R?$AA@ DB 'SimCBEOSB_GAINDOWN_R', 00H ; `string'
CONST	ENDS
;	COMDAT ??_C@_0BF@GODNINHF@SimCBEOSB_GAINDOWN_L?$AA@
CONST	SEGMENT
??_C@_0BF@GODNINHF@SimCBEOSB_GAINDOWN_L?$AA@ DB 'SimCBEOSB_GAINDOWN_L', 00H ; `string'
CONST	ENDS
;	COMDAT ??_C@_0BD@HOBMANAC@SimCBEOSB_GAINUP_R?$AA@
CONST	SEGMENT
??_C@_0BD@HOBMANAC@SimCBEOSB_GAINUP_R?$AA@ DB 'SimCBEOSB_GAINUP_R', 00H ; `string'
CONST	ENDS
;	COMDAT ??_C@_0BD@KKFNDCNN@SimCBEOSB_GAINUP_L?$AA@
CONST	SEGMENT
??_C@_0BD@KKFNDCNN@SimCBEOSB_GAINUP_L?$AA@ DB 'SimCBEOSB_GAINUP_L', 00H ; `string'
CONST	ENDS
;	COMDAT ??_C@_0O@OHMCABGP@SimCBEOSB_20R?$AA@
CONST	SEGMENT
??_C@_0O@OHMCABGP@SimCBEOSB_20R?$AA@ DB 'SimCBEOSB_20R', 00H ; `string'
CONST	ENDS
;	COMDAT ??_C@_0O@PKKGJFAO@SimCBEOSB_19R?$AA@
CONST	SEGMENT
??_C@_0O@PKKGJFAO@SimCBEOSB_19R?$AA@ DB 'SimCBEOSB_19R', 00H ; `string'
CONST	ENDS
;	COMDAT ??_C@_0O@PLGEPPDJ@SimCBEOSB_18R?$AA@
CONST	SEGMENT
??_C@_0O@PLGEPPDJ@SimCBEOSB_18R?$AA@ DB 'SimCBEOSB_18R', 00H ; `string'
CONST	ENDS
;	COMDAT ??_C@_0O@PADILIAE@SimCBEOSB_17R?$AA@
CONST	SEGMENT
??_C@_0O@PADILIAE@SimCBEOSB_17R?$AA@ DB 'SimCBEOSB_17R', 00H ; `string'
CONST	ENDS
;	COMDAT ??_C@_0O@PBPKNCDD@SimCBEOSB_16R?$AA@
CONST	SEGMENT
??_C@_0O@PBPKNCDD@SimCBEOSB_16R?$AA@ DB 'SimCBEOSB_16R', 00H ; `string'
CONST	ENDS
;	COMDAT ??_C@_0O@PDLMGMGK@SimCBEOSB_15R?$AA@
CONST	SEGMENT
??_C@_0O@PDLMGMGK@SimCBEOSB_15R?$AA@ DB 'SimCBEOSB_15R', 00H ; `string'
CONST	ENDS
;	COMDAT ??_C@_0O@PCHOAGFN@SimCBEOSB_14R?$AA@
CONST	SEGMENT
??_C@_0O@PCHOAGFN@SimCBEOSB_14R?$AA@ DB 'SimCBEOSB_14R', 00H ; `string'
CONST	ENDS
;	COMDAT ??_C@_0O@PHDBBANI@SimCBEOSB_13R?$AA@
CONST	SEGMENT
??_C@_0O@PHDBBANI@SimCBEOSB_13R?$AA@ DB 'SimCBEOSB_13R', 00H ; `string'
CONST	ENDS
;	COMDAT ??_C@_0O@PGPDHKOP@SimCBEOSB_12R?$AA@
CONST	SEGMENT
??_C@_0O@PGPDHKOP@SimCBEOSB_12R?$AA@ DB 'SimCBEOSB_12R', 00H ; `string'
CONST	ENDS
;	COMDAT ??_C@_0O@PELFMELG@SimCBEOSB_11R?$AA@
CONST	SEGMENT
??_C@_0O@PELFMELG@SimCBEOSB_11R?$AA@ DB 'SimCBEOSB_11R', 00H ; `string'
CONST	ENDS
;	COMDAT ??_C@_0O@PFHHKOIB@SimCBEOSB_10R?$AA@
CONST	SEGMENT
??_C@_0O@PFHHKOIB@SimCBEOSB_10R?$AA@ DB 'SimCBEOSB_10R', 00H ; `string'
CONST	ENDS
;	COMDAT ??_C@_0N@KENHLOBC@SimCBEOSB_9R?$AA@
CONST	SEGMENT
??_C@_0N@KENHLOBC@SimCBEOSB_9R?$AA@ DB 'SimCBEOSB_9R', 00H ; `string'
CONST	ENDS
;	COMDAT ??_C@_0N@KFBFNECF@SimCBEOSB_8R?$AA@
CONST	SEGMENT
??_C@_0N@KFBFNECF@SimCBEOSB_8R?$AA@ DB 'SimCBEOSB_8R', 00H ; `string'
CONST	ENDS
;	COMDAT ??_C@_0N@KOEJJDBI@SimCBEOSB_7R?$AA@
CONST	SEGMENT
??_C@_0N@KOEJJDBI@SimCBEOSB_7R?$AA@ DB 'SimCBEOSB_7R', 00H ; `string'
CONST	ENDS
;	COMDAT ??_C@_0N@KPILPJCP@SimCBEOSB_6R?$AA@
CONST	SEGMENT
??_C@_0N@KPILPJCP@SimCBEOSB_6R?$AA@ DB 'SimCBEOSB_6R', 00H ; `string'
CONST	ENDS
;	COMDAT ??_C@_0N@KNMNEHHG@SimCBEOSB_5R?$AA@
CONST	SEGMENT
??_C@_0N@KNMNEHHG@SimCBEOSB_5R?$AA@ DB 'SimCBEOSB_5R', 00H ; `string'
CONST	ENDS
;	COMDAT ??_C@_0N@KMAPCNEB@SimCBEOSB_4R?$AA@
CONST	SEGMENT
??_C@_0N@KMAPCNEB@SimCBEOSB_4R?$AA@ DB 'SimCBEOSB_4R', 00H ; `string'
CONST	ENDS
;	COMDAT ??_C@_0N@KJEADLME@SimCBEOSB_3R?$AA@
CONST	SEGMENT
??_C@_0N@KJEADLME@SimCBEOSB_3R?$AA@ DB 'SimCBEOSB_3R', 00H ; `string'
CONST	ENDS
;	COMDAT ??_C@_0N@KIICFBPD@SimCBEOSB_2R?$AA@
CONST	SEGMENT
??_C@_0N@KIICFBPD@SimCBEOSB_2R?$AA@ DB 'SimCBEOSB_2R', 00H ; `string'
CONST	ENDS
;	COMDAT ??_C@_0N@KKMEOPKK@SimCBEOSB_1R?$AA@
CONST	SEGMENT
??_C@_0N@KKMEOPKK@SimCBEOSB_1R?$AA@ DB 'SimCBEOSB_1R', 00H ; `string'
CONST	ENDS
;	COMDAT ??_C@_0O@DDIDDOLA@SimCBEOSB_20L?$AA@
CONST	SEGMENT
??_C@_0O@DDIDDOLA@SimCBEOSB_20L?$AA@ DB 'SimCBEOSB_20L', 00H ; `string'
CONST	ENDS
;	COMDAT ??_C@_0O@COOHKKNB@SimCBEOSB_19L?$AA@
CONST	SEGMENT
??_C@_0O@COOHKKNB@SimCBEOSB_19L?$AA@ DB 'SimCBEOSB_19L', 00H ; `string'
CONST	ENDS
;	COMDAT ??_C@_0O@CPCFMAOG@SimCBEOSB_18L?$AA@
CONST	SEGMENT
??_C@_0O@CPCFMAOG@SimCBEOSB_18L?$AA@ DB 'SimCBEOSB_18L', 00H ; `string'
CONST	ENDS
;	COMDAT ??_C@_0O@CEHJIHNL@SimCBEOSB_17L?$AA@
CONST	SEGMENT
??_C@_0O@CEHJIHNL@SimCBEOSB_17L?$AA@ DB 'SimCBEOSB_17L', 00H ; `string'
CONST	ENDS
;	COMDAT ??_C@_0O@CFLLONOM@SimCBEOSB_16L?$AA@
CONST	SEGMENT
??_C@_0O@CFLLONOM@SimCBEOSB_16L?$AA@ DB 'SimCBEOSB_16L', 00H ; `string'
CONST	ENDS
;	COMDAT ??_C@_0O@CHPNFDLF@SimCBEOSB_15L?$AA@
CONST	SEGMENT
??_C@_0O@CHPNFDLF@SimCBEOSB_15L?$AA@ DB 'SimCBEOSB_15L', 00H ; `string'
CONST	ENDS
;	COMDAT ??_C@_0O@CGDPDJIC@SimCBEOSB_14L?$AA@
CONST	SEGMENT
??_C@_0O@CGDPDJIC@SimCBEOSB_14L?$AA@ DB 'SimCBEOSB_14L', 00H ; `string'
CONST	ENDS
;	COMDAT ??_C@_0O@CDHACPAH@SimCBEOSB_13L?$AA@
CONST	SEGMENT
??_C@_0O@CDHACPAH@SimCBEOSB_13L?$AA@ DB 'SimCBEOSB_13L', 00H ; `string'
CONST	ENDS
;	COMDAT ??_C@_0O@CCLCEFDA@SimCBEOSB_12L?$AA@
CONST	SEGMENT
??_C@_0O@CCLCEFDA@SimCBEOSB_12L?$AA@ DB 'SimCBEOSB_12L', 00H ; `string'
CONST	ENDS
;	COMDAT ??_C@_0O@CAPEPLGJ@SimCBEOSB_11L?$AA@
CONST	SEGMENT
??_C@_0O@CAPEPLGJ@SimCBEOSB_11L?$AA@ DB 'SimCBEOSB_11L', 00H ; `string'
CONST	ENDS
;	COMDAT ??_C@_0O@CBDGJBFO@SimCBEOSB_10L?$AA@
CONST	SEGMENT
??_C@_0O@CBDGJBFO@SimCBEOSB_10L?$AA@ DB 'SimCBEOSB_10L', 00H ; `string'
CONST	ENDS
;	COMDAT ??_C@_0N@HAJGIBMN@SimCBEOSB_9L?$AA@
CONST	SEGMENT
??_C@_0N@HAJGIBMN@SimCBEOSB_9L?$AA@ DB 'SimCBEOSB_9L', 00H ; `string'
CONST	ENDS
;	COMDAT ??_C@_0N@HBFEOLPK@SimCBEOSB_8L?$AA@
CONST	SEGMENT
??_C@_0N@HBFEOLPK@SimCBEOSB_8L?$AA@ DB 'SimCBEOSB_8L', 00H ; `string'
CONST	ENDS
;	COMDAT ??_C@_0N@HKAIKMMH@SimCBEOSB_7L?$AA@
CONST	SEGMENT
??_C@_0N@HKAIKMMH@SimCBEOSB_7L?$AA@ DB 'SimCBEOSB_7L', 00H ; `string'
CONST	ENDS
;	COMDAT ??_C@_0N@HLMKMGPA@SimCBEOSB_6L?$AA@
CONST	SEGMENT
??_C@_0N@HLMKMGPA@SimCBEOSB_6L?$AA@ DB 'SimCBEOSB_6L', 00H ; `string'
CONST	ENDS
;	COMDAT ??_C@_0N@HJIMHIKJ@SimCBEOSB_5L?$AA@
CONST	SEGMENT
??_C@_0N@HJIMHIKJ@SimCBEOSB_5L?$AA@ DB 'SimCBEOSB_5L', 00H ; `string'
CONST	ENDS
;	COMDAT ??_C@_0N@HIEOBCJO@SimCBEOSB_4L?$AA@
CONST	SEGMENT
??_C@_0N@HIEOBCJO@SimCBEOSB_4L?$AA@ DB 'SimCBEOSB_4L', 00H ; `string'
CONST	ENDS
;	COMDAT ??_C@_0N@HNABAEBL@SimCBEOSB_3L?$AA@
CONST	SEGMENT
??_C@_0N@HNABAEBL@SimCBEOSB_3L?$AA@ DB 'SimCBEOSB_3L', 00H ; `string'
CONST	ENDS
;	COMDAT ??_C@_0N@HMMDGOCM@SimCBEOSB_2L?$AA@
CONST	SEGMENT
??_C@_0N@HMMDGOCM@SimCBEOSB_2L?$AA@ DB 'SimCBEOSB_2L', 00H ; `string'
CONST	ENDS
;	COMDAT ??_C@_0N@HOIFNAHF@SimCBEOSB_1L?$AA@
CONST	SEGMENT
??_C@_0N@HOIFNAHF@SimCBEOSB_1L?$AA@ DB 'SimCBEOSB_1L', 00H ; `string'
CONST	ENDS
;	COMDAT ??_C@_0N@MBHMLJLI@SimHSIIlsNav?$AA@
CONST	SEGMENT
??_C@_0N@MBHMLJLI@SimHSIIlsNav?$AA@ DB 'SimHSIIlsNav', 00H ; `string'
CONST	ENDS
;	COMDAT ??_C@_09BGNOADEB@SimHSINav?$AA@
CONST	SEGMENT
??_C@_09BGNOADEB@SimHSINav?$AA@ DB 'SimHSINav', 00H	; `string'
CONST	ENDS
;	COMDAT ??_C@_09KIOFPIIN@SimHSITcn?$AA@
CONST	SEGMENT
??_C@_09KIOFPIIN@SimHSITcn?$AA@ DB 'SimHSITcn', 00H	; `string'
CONST	ENDS
;	COMDAT ??_C@_0N@HPEHECHE@SimHSIIlsTcn?$AA@
CONST	SEGMENT
??_C@_0N@HPEHECHE@SimHSIIlsTcn?$AA@ DB 'SimHSIIlsTcn', 00H ; `string'
CONST	ENDS
;	COMDAT ??_C@_0P@EKIPOLBD@SimStepHSIMode?$AA@
CONST	SEGMENT
??_C@_0P@EKIPOLBD@SimStepHSIMode?$AA@ DB 'SimStepHSIMode', 00H ; `string'
CONST	ENDS
;	COMDAT ?value@?$_Sizeof@U_Nil@std@@U12@U12@U12@U12@U12@U12@U12@@std@@2IB
CONST	SEGMENT
?value@?$_Sizeof@U_Nil@std@@U12@U12@U12@U12@U12@U12@U12@@std@@2IB DD 00H ; std::_Sizeof<std::_Nil,std::_Nil,std::_Nil,std::_Nil,std::_Nil,std::_Nil,std::_Nil,std::_Nil>::value
CONST	ENDS
;	COMDAT ??_C@_0P@OBAEMMJM@SimSilenceHorn?$AA@
CONST	SEGMENT
??_C@_0P@OBAEMMJM@SimSilenceHorn?$AA@ DB 'SimSilenceHorn', 00H ; `string'
CONST	ENDS
;	COMDAT ??_C@_06EMNEMDFP@SimMPO?$AA@
CONST	SEGMENT
??_C@_06EMNEMDFP@SimMPO?$AA@ DB 'SimMPO', 00H		; `string'
CONST	ENDS
;	COMDAT ??_C@_0N@HJEHMLCJ@SimMPOToggle?$AA@
CONST	SEGMENT
??_C@_0N@HJEHMLCJ@SimMPOToggle?$AA@ DB 'SimMPOToggle', 00H ; `string'
CONST	ENDS
;	COMDAT ??_C@_0BA@KODOOECG@SimHsiHdgDecBy1?$AA@
CONST	SEGMENT
??_C@_0BA@KODOOECG@SimHsiHdgDecBy1?$AA@ DB 'SimHsiHdgDecBy1', 00H ; `string'
CONST	ENDS
;	COMDAT ??_C@_0BA@KFCOHFCF@SimHsiHdgIncBy1?$AA@
CONST	SEGMENT
??_C@_0BA@KFCOHFCF@SimHsiHdgIncBy1?$AA@ DB 'SimHsiHdgIncBy1', 00H ; `string'
CONST	ENDS
;	COMDAT ??_C@_0BA@HBPFBLPL@SimHsiCrsDecBy1?$AA@
CONST	SEGMENT
??_C@_0BA@HBPFBLPL@SimHsiCrsDecBy1?$AA@ DB 'SimHsiCrsDecBy1', 00H ; `string'
CONST	ENDS
;	COMDAT ??_C@_0BA@HKOFIKPI@SimHsiCrsIncBy1?$AA@
CONST	SEGMENT
??_C@_0BA@HKOFIKPI@SimHsiCrsIncBy1?$AA@ DB 'SimHsiCrsIncBy1', 00H ; `string'
CONST	ENDS
;	COMDAT ??_C@_0BB@OCDGIMFB@SimHsiHeadingDec?$AA@
CONST	SEGMENT
??_C@_0BB@OCDGIMFB@SimHsiHeadingDec?$AA@ DB 'SimHsiHeadingDec', 00H ; `string'
CONST	ENDS
;	COMDAT ??_C@_0BB@BMAJLLGN@SimHsiHeadingInc?$AA@
CONST	SEGMENT
??_C@_0BB@BMAJLLGN@SimHsiHeadingInc?$AA@ DB 'SimHsiHeadingInc', 00H ; `string'
CONST	ENDS
;	COMDAT ??_C@_0BA@MDLDAJAK@SimHsiCourseDec?$AA@
CONST	SEGMENT
??_C@_0BA@MDLDAJAK@SimHsiCourseDec?$AA@ DB 'SimHsiCourseDec', 00H ; `string'
CONST	ENDS
;	COMDAT ??_C@_0BA@DNIMDODG@SimHsiCourseInc?$AA@
CONST	SEGMENT
??_C@_0BA@DNIMDODG@SimHsiCourseInc?$AA@ DB 'SimHsiCourseInc', 00H ; `string'
CONST	ENDS
;	COMDAT ??_C@_0BI@DBGIKNPC@SimRadarElevationCenter?$AA@
CONST	SEGMENT
??_C@_0BI@DBGIKNPC@SimRadarElevationCenter?$AA@ DB 'SimRadarElevationCent'
	DB	'er', 00H					; `string'
CONST	ENDS
;	COMDAT ??_C@_0O@OEHIGIKO@SimECMConsent?$AA@
CONST	SEGMENT
??_C@_0O@OEHIGIKO@SimECMConsent?$AA@ DB 'SimECMConsent', 00H ; `string'
CONST	ENDS
;	COMDAT ??_C@_0O@JADEJABL@SimECMStandby?$AA@
CONST	SEGMENT
??_C@_0O@JADEJABL@SimECMStandby?$AA@ DB 'SimECMStandby', 00H ; `string'
CONST	ENDS
;	COMDAT ??_C@_08NOOMLFCF@SimECMOn?$AA@
CONST	SEGMENT
??_C@_08NOOMLFCF@SimECMOn?$AA@ DB 'SimECMOn', 00H	; `string'
CONST	ENDS
;	COMDAT ??_C@_0P@EPBDAHFE@SimWheelBrakes?$AA@
CONST	SEGMENT
??_C@_0P@EPBDAHFE@SimWheelBrakes?$AA@ DB 'SimWheelBrakes', 00H ; `string'
CONST	ENDS
;	COMDAT ??_C@_0BF@NFKKMPFN@SimEmergencyJettison?$AA@
CONST	SEGMENT
??_C@_0BF@NFKKMPFN@SimEmergencyJettison?$AA@ DB 'SimEmergencyJettison', 00H ; `string'
CONST	ENDS
;	COMDAT ??_C@_0BF@PHOLOOPB@SimSelectiveJettison?$AA@
CONST	SEGMENT
??_C@_0BF@PHOLOOPB@SimSelectiveJettison?$AA@ DB 'SimSelectiveJettison', 00H ; `string'
CONST	ENDS
;	COMDAT ??_C@_0O@CLFILIKF@SimAVTRToggle?$AA@
CONST	SEGMENT
??_C@_0O@CLFILIKF@SimAVTRToggle?$AA@ DB 'SimAVTRToggle', 00H ; `string'
CONST	ENDS
;	COMDAT ??_C@_0L@JMKFDKJJ@FOVDefault?$AA@
CONST	SEGMENT
??_C@_0L@JMKFDKJJ@FOVDefault?$AA@ DB 'FOVDefault', 00H	; `string'
CONST	ENDS
;	COMDAT ??_C@_0M@HNFPOMHB@FOVIncrease?$AA@
CONST	SEGMENT
??_C@_0M@HNFPOMHB@FOVIncrease?$AA@ DB 'FOVIncrease', 00H ; `string'
CONST	ENDS
;	COMDAT ??_C@_0M@NBHKBHHA@FOVDecrease?$AA@
CONST	SEGMENT
??_C@_0M@NBHKBHHA@FOVDecrease?$AA@ DB 'FOVDecrease', 00H ; `string'
CONST	ENDS
;	COMDAT ??_C@_09OHCPGPJD@FOVToggle?$AA@
CONST	SEGMENT
??_C@_09OHCPGPJD@FOVToggle?$AA@ DB 'FOVToggle', 00H	; `string'
CONST	ENDS
;	COMDAT ??_C@_0BB@JKEOBIFK@PrettyScreenShot?$AA@
CONST	SEGMENT
??_C@_0BB@JKEOBIFK@PrettyScreenShot?$AA@ DB 'PrettyScreenShot', 00H ; `string'
CONST	ENDS
;	COMDAT ??_C@_0L@GLCDFILJ@ScreenShot?$AA@
CONST	SEGMENT
??_C@_0L@GLCDFILJ@ScreenShot?$AA@ DB 'ScreenShot', 00H	; `string'
CONST	ENDS
;	COMDAT ??_C@_0BA@FJMPELI@SimMotionFreeze?$AA@
CONST	SEGMENT
??_C@_0BA@FJMPELI@SimMotionFreeze?$AA@ DB 'SimMotionFreeze', 00H ; `string'
CONST	ENDS
;	COMDAT ??_C@_0BC@JFODPOJI@SimToggleChatMode?$AA@
CONST	SEGMENT
??_C@_0BC@JFODPOJI@SimToggleChatMode?$AA@ DB 'SimToggleChatMode', 00H ; `string'
CONST	ENDS
;	COMDAT ??_C@_0BB@JNLNNKHD@RadioMessageSend?$AA@
CONST	SEGMENT
??_C@_0BB@JNLNNKHD@RadioMessageSend?$AA@ DB 'RadioMessageSend', 00H ; `string'
CONST	ENDS
;	COMDAT ??_C@_0N@DAIPGOKO@OTW1200RView?$AA@
CONST	SEGMENT
??_C@_0N@DAIPGOKO@OTW1200RView?$AA@ DB 'OTW1200RView', 00H ; `string'
CONST	ENDS
;	COMDAT ??_C@_0L@FIFDCNH@OTW400View?$AA@
CONST	SEGMENT
??_C@_0L@FIFDCNH@OTW400View?$AA@ DB 'OTW400View', 00H	; `string'
CONST	ENDS
;	COMDAT ??_C@_0L@FCCKCHJI@OTW800View?$AA@
CONST	SEGMENT
??_C@_0L@FCCKCHJI@OTW800View?$AA@ DB 'OTW800View', 00H	; `string'
CONST	ENDS
;	COMDAT ??_C@_0L@PEADLMO@OTW300View?$AA@
CONST	SEGMENT
??_C@_0L@PEADLMO@OTW300View?$AA@ DB 'OTW300View', 00H	; `string'
CONST	ENDS
;	COMDAT ??_C@_0L@JOIACHAG@OTW900View?$AA@
CONST	SEGMENT
??_C@_0L@JOIACHAG@OTW900View?$AA@ DB 'OTW900View', 00H	; `string'
CONST	ENDS
;	COMDAT ??_C@_0L@MDOKDLFA@OTW200View?$AA@
CONST	SEGMENT
??_C@_0L@MDOKDLFA@OTW200View?$AA@ DB 'OTW200View', 00H	; `string'
CONST	ENDS
;	COMDAT ??_C@_0M@JKPDGDIN@OTW1000View?$AA@
CONST	SEGMENT
??_C@_0M@JKPDGDIN@OTW1000View?$AA@ DB 'OTW1000View', 00H ; `string'
CONST	ENDS
;	COMDAT ??_C@_0N@JFDANEF@OTW1200LView?$AA@
CONST	SEGMENT
??_C@_0N@JFDANEF@OTW1200LView?$AA@ DB 'OTW1200LView', 00H ; `string'
CONST	ENDS
;	COMDAT ??_C@_0P@IFAKMICB@OTW1200HUDView?$AA@
CONST	SEGMENT
??_C@_0P@IFAKMICB@OTW1200HUDView?$AA@ DB 'OTW1200HUDView', 00H ; `string'
CONST	ENDS
;	COMDAT ??_C@_0N@OFAAIPCI@OTW1200DView?$AA@
CONST	SEGMENT
??_C@_0N@OFAAIPCI@OTW1200DView?$AA@ DB 'OTW1200DView', 00H ; `string'
CONST	ENDS
;	COMDAT ??_C@_0M@NINGGEPA@OTW1200View?$AA@
CONST	SEGMENT
??_C@_0M@NINGGEPA@OTW1200View?$AA@ DB 'OTW1200View', 00H ; `string'
CONST	ENDS
;	COMDAT ??_C@_0M@EEFKMFLA@SuperCruise?$AA@
CONST	SEGMENT
??_C@_0M@EEFKMFLA@SuperCruise?$AA@ DB 'SuperCruise', 00H ; `string'
CONST	ENDS
;	COMDAT ??_C@_0BA@NOAJGLBJ@KevinsFistOfGod?$AA@
CONST	SEGMENT
??_C@_0BA@NOAJGLBJ@KevinsFistOfGod?$AA@ DB 'KevinsFistOfGod', 00H ; `string'
CONST	ENDS
;	COMDAT ??_C@_0BE@EHFEMJDM@CommandsSetKeyCombo?$AA@
CONST	SEGMENT
??_C@_0BE@EHFEMJDM@CommandsSetKeyCombo?$AA@ DB 'CommandsSetKeyCombo', 00H ; `string'
CONST	ENDS
;	COMDAT ??_C@_0N@FNHAMDLM@OTWStateStep?$AA@
CONST	SEGMENT
??_C@_0N@FNHAMDLM@OTWStateStep?$AA@ DB 'OTWStateStep', 00H ; `string'
CONST	ENDS
;	COMDAT ??_C@_0M@HBDHFNLN@OTWCheckSix?$AA@
CONST	SEGMENT
??_C@_0M@HBDHFNLN@OTWCheckSix?$AA@ DB 'OTWCheckSix', 00H ; `string'
CONST	ENDS
;	COMDAT ??_C@_0BB@MDACAKHF@OTWGlanceForward?$AA@
CONST	SEGMENT
??_C@_0BB@MDACAKHF@OTWGlanceForward?$AA@ DB 'OTWGlanceForward', 00H ; `string'
CONST	ENDS
;	COMDAT ??_C@_0M@GGMCDNLO@OTWSwapMFDS?$AA@
CONST	SEGMENT
??_C@_0M@GGMCDNLO@OTWSwapMFDS?$AA@ DB 'OTWSwapMFDS', 00H ; `string'
CONST	ENDS
;	COMDAT ??_C@_0P@FMNEIEHN@OTWViewZoomOut?$AA@
CONST	SEGMENT
??_C@_0P@FMNEIEHN@OTWViewZoomOut?$AA@ DB 'OTWViewZoomOut', 00H ; `string'
CONST	ENDS
;	COMDAT ??_C@_0O@JNDNHLLG@OTWViewZoomIn?$AA@
CONST	SEGMENT
??_C@_0O@JNDNHLLG@OTWViewZoomIn?$AA@ DB 'OTWViewZoomIn', 00H ; `string'
CONST	ENDS
;	COMDAT ??_C@_0BA@NLAHAGEC@OTWViewDownLeft?$AA@
CONST	SEGMENT
??_C@_0BA@NLAHAGEC@OTWViewDownLeft?$AA@ DB 'OTWViewDownLeft', 00H ; `string'
CONST	ENDS
;	COMDAT ??_C@_0BB@ICPGCIND@OTWViewDownRight?$AA@
CONST	SEGMENT
??_C@_0BB@ICPGCIND@OTWViewDownRight?$AA@ DB 'OTWViewDownRight', 00H ; `string'
CONST	ENDS
;	COMDAT ??_C@_0O@FJBMDNCM@OTWViewUpLeft?$AA@
CONST	SEGMENT
??_C@_0O@FJBMDNCM@OTWViewUpLeft?$AA@ DB 'OTWViewUpLeft', 00H ; `string'
CONST	ENDS
;	COMDAT ??_C@_0P@CIHOHPLH@OTWViewUpRight?$AA@
CONST	SEGMENT
??_C@_0P@CIHOHPLH@OTWViewUpRight?$AA@ DB 'OTWViewUpRight', 00H ; `string'
CONST	ENDS
;	COMDAT ??_C@_0N@JNNBDODH@OTWViewReset?$AA@
CONST	SEGMENT
??_C@_0N@JNNBDODH@OTWViewReset?$AA@ DB 'OTWViewReset', 00H ; `string'
CONST	ENDS
;	COMDAT ??_C@_0M@DAMBNOPB@OTWViewDown?$AA@
CONST	SEGMENT
??_C@_0M@DAMBNOPB@OTWViewDown?$AA@ DB 'OTWViewDown', 00H ; `string'
CONST	ENDS
;	COMDAT ??_C@_09IOBFFGKL@OTWViewUp?$AA@
CONST	SEGMENT
??_C@_09IOBFFGKL@OTWViewUp?$AA@ DB 'OTWViewUp', 00H	; `string'
CONST	ENDS
;	COMDAT ??_C@_0N@IPICIAKN@OTWViewRight?$AA@
CONST	SEGMENT
??_C@_0N@IPICIAKN@OTWViewRight?$AA@ DB 'OTWViewRight', 00H ; `string'
CONST	ENDS
;	COMDAT ??_C@_0M@MCMFEGMI@OTWViewLeft?$AA@
CONST	SEGMENT
??_C@_0M@MCMFEGMI@OTWViewLeft?$AA@ DB 'OTWViewLeft', 00H ; `string'
CONST	ENDS
;	COMDAT ??_C@_0M@BANEEPNG@OTWSetScale?$AA@
CONST	SEGMENT
??_C@_0M@BANEEPNG@OTWSetScale?$AA@ DB 'OTWSetScale', 00H ; `string'
CONST	ENDS
;	COMDAT ??_C@_0BD@FCALNECN@OTWToggleAutoScale?$AA@
CONST	SEGMENT
??_C@_0BD@FCALNECN@OTWToggleAutoScale?$AA@ DB 'OTWToggleAutoScale', 00H ; `string'
CONST	ENDS
;	COMDAT ??_C@_0BD@CLCFALLF@OTWToggleFrameRate?$AA@
CONST	SEGMENT
??_C@_0BD@CLCFALLF@OTWToggleFrameRate?$AA@ DB 'OTWToggleFrameRate', 00H ; `string'
CONST	ENDS
;	COMDAT ??_C@_0BB@BKDDPOHJ@OTWEnterPosition?$AA@
CONST	SEGMENT
??_C@_0BB@BKDDPOHJ@OTWEnterPosition?$AA@ DB 'OTWEnterPosition', 00H ; `string'
CONST	ENDS
;	COMDAT ??_C@_0BA@GEANCCNF@OTWToggleEyeFly?$AA@
CONST	SEGMENT
??_C@_0BA@GEANCCNF@OTWToggleEyeFly?$AA@ DB 'OTWToggleEyeFly', 00H ; `string'
CONST	ENDS
;	COMDAT ??_C@_0BF@CPFCGHNP@OTWStepHudContrastUp?$AA@
CONST	SEGMENT
??_C@_0BF@CPFCGHNP@OTWStepHudContrastUp?$AA@ DB 'OTWStepHudContrastUp', 00H ; `string'
CONST	ENDS
;	COMDAT ??_C@_0BF@OGPHJBEH@OTWStepHudContrastDn?$AA@
CONST	SEGMENT
??_C@_0BF@OGPHJBEH@OTWStepHudContrastDn?$AA@ DB 'OTWStepHudContrastDn', 00H ; `string'
CONST	ENDS
;	COMDAT ??_C@_0BA@IBEHCBL@OTWToggleClouds?$AA@
CONST	SEGMENT
??_C@_0BA@IBEHCBL@OTWToggleClouds?$AA@ DB 'OTWToggleClouds', 00H ; `string'
CONST	ENDS
;	COMDAT ??_C@_0P@BAOLLOKP@OTWObjDetailUp?$AA@
CONST	SEGMENT
??_C@_0P@BAOLLOKP@OTWObjDetailUp?$AA@ DB 'OTWObjDetailUp', 00H ; `string'
CONST	ENDS
;	COMDAT ??_C@_0BB@PKHMOPEB@OTWObjDetailDown?$AA@
CONST	SEGMENT
??_C@_0BB@PKHMOPEB@OTWObjDetailDown?$AA@ DB 'OTWObjDetailDown', 00H ; `string'
CONST	ENDS
;	COMDAT ??_C@_0BA@KENCACC@OTWSetObjDetail?$AA@
CONST	SEGMENT
??_C@_0BA@KENCACC@OTWSetObjDetail?$AA@ DB 'OTWSetObjDetail', 00H ; `string'
CONST	ENDS
;	COMDAT ??_C@_0L@MACJNPMF@OTWScaleUp?$AA@
CONST	SEGMENT
??_C@_0L@MACJNPMF@OTWScaleUp?$AA@ DB 'OTWScaleUp', 00H	; `string'
CONST	ENDS
;	COMDAT ??_C@_0N@FPNLONGA@OTWScaleDown?$AA@
CONST	SEGMENT
??_C@_0N@FPNLONGA@OTWScaleDown?$AA@ DB 'OTWScaleDown', 00H ; `string'
CONST	ENDS
;	COMDAT ??_C@_0BH@IAOEHJPM@OTWToggleEngineDisplay?$AA@
CONST	SEGMENT
??_C@_0BH@IAOEHJPM@OTWToggleEngineDisplay?$AA@ DB 'OTWToggleEngineDisplay'
	DB	00H						; `string'
CONST	ENDS
;	COMDAT ??_C@_0BF@EBKJFIKJ@OTWToggleFlapDisplay?$AA@
CONST	SEGMENT
??_C@_0BF@EBKJFIKJ@OTWToggleFlapDisplay?$AA@ DB 'OTWToggleFlapDisplay', 00H ; `string'
CONST	ENDS
;	COMDAT ??_C@_0BF@PBJMDIOI@OTWToggleAeroDisplay?$AA@
CONST	SEGMENT
??_C@_0BF@PBJMDIOI@OTWToggleAeroDisplay?$AA@ DB 'OTWToggleAeroDisplay', 00H ; `string'
CONST	ENDS
;	COMDAT ??_C@_0BJ@ILHHCFDJ@OTWToggleLocationDisplay?$AA@
CONST	SEGMENT
??_C@_0BJ@ILHHCFDJ@OTWToggleLocationDisplay?$AA@ DB 'OTWToggleLocationDis'
	DB	'play', 00H					; `string'
CONST	ENDS
;	COMDAT ??_C@_0O@MMENGDN@OTWToggleHaze?$AA@
CONST	SEGMENT
??_C@_0O@MMENGDN@OTWToggleHaze?$AA@ DB 'OTWToggleHaze', 00H ; `string'
CONST	ENDS
;	COMDAT ??_C@_0BB@KJDLACHK@OTWToggleShading?$AA@
CONST	SEGMENT
??_C@_0BB@KJDLACHK@OTWToggleShading?$AA@ DB 'OTWToggleShading', 00H ; `string'
CONST	ENDS
;	COMDAT ??_C@_0BI@PFEJJFMN@OTWToggleBilinearFilter?$AA@
CONST	SEGMENT
??_C@_0BI@PFEJJFMN@OTWToggleBilinearFilter?$AA@ DB 'OTWToggleBilinearFilt'
	DB	'er', 00H					; `string'
CONST	ENDS
;	COMDAT ??_C@_0BH@KECFIKLJ@OTWSelect3DCockpitMode?$AA@
CONST	SEGMENT
??_C@_0BH@KECFIKLJ@OTWSelect3DCockpitMode?$AA@ DB 'OTWSelect3DCockpitMode'
	DB	00H						; `string'
CONST	ENDS
;	COMDAT ??_C@_0BH@DJCKGLMP@OTWSelect2DCockpitMode?$AA@
CONST	SEGMENT
??_C@_0BH@DJCKGLMP@OTWSelect2DCockpitMode?$AA@ DB 'OTWSelect2DCockpitMode'
	DB	00H						; `string'
CONST	ENDS
;	COMDAT ??_C@_0P@KFFJOCFM@OTWShowVersion?$AA@
CONST	SEGMENT
??_C@_0P@KFFJOCFM@OTWShowVersion?$AA@ DB 'OTWShowVersion', 00H ; `string'
CONST	ENDS
;	COMDAT ??_C@_0BD@ENMAKJBL@OTWShowTestVersion?$AA@
CONST	SEGMENT
??_C@_0BD@ENMAKJBL@OTWShowTestVersion?$AA@ DB 'OTWShowTestVersion', 00H ; `string'
CONST	ENDS
;	COMDAT ??_C@_0BG@JOPNOLD@OTWSelectIncomingMode?$AA@
CONST	SEGMENT
??_C@_0BG@JOPNOLD@OTWSelectIncomingMode?$AA@ DB 'OTWSelectIncomingMode', 00H ; `string'
CONST	ENDS
;	COMDAT ??_C@_0BD@NEBCFBGO@OTWSelectFlybyMode?$AA@
CONST	SEGMENT
??_C@_0BD@NEBCFBGO@OTWSelectFlybyMode?$AA@ DB 'OTWSelectFlybyMode', 00H ; `string'
CONST	ENDS
;	COMDAT ??_C@_0BH@DMKKEKAN@OTWSelectSatelliteMode?$AA@
CONST	SEGMENT
??_C@_0BH@DMKKEKAN@OTWSelectSatelliteMode?$AA@ DB 'OTWSelectSatelliteMode'
	DB	00H						; `string'
CONST	ENDS
;	COMDAT ??_C@_0BE@OAELGICM@OTWSelectWeaponMode?$AA@
CONST	SEGMENT
??_C@_0BE@OAELGICM@OTWSelectWeaponMode?$AA@ DB 'OTWSelectWeaponMode', 00H ; `string'
CONST	ENDS
;	COMDAT ??_C@_0BE@JFEMJGGC@OTWSelectTargetMode?$AA@
CONST	SEGMENT
??_C@_0BE@JFEMJGGC@OTWSelectTargetMode?$AA@ DB 'OTWSelectTargetMode', 00H ; `string'
CONST	ENDS
;	COMDAT ??_C@_0BJ@NFOBBGD@OTWSelectGroundEnemyMode?$AA@
CONST	SEGMENT
??_C@_0BJ@NFOBBGD@OTWSelectGroundEnemyMode?$AA@ DB 'OTWSelectGroundEnemyM'
	DB	'ode', 00H					; `string'
CONST	ENDS
;	COMDAT ??_C@_0BG@HGGFDMLP@OTWSelectAirEnemyMode?$AA@
CONST	SEGMENT
??_C@_0BG@HGGFDMLP@OTWSelectAirEnemyMode?$AA@ DB 'OTWSelectAirEnemyMode', 00H ; `string'
CONST	ENDS
;	COMDAT ??_C@_0BM@FNBGBGIE@OTWSelectGroundFriendlyMode?$AA@
CONST	SEGMENT
??_C@_0BM@FNBGBGIE@OTWSelectGroundFriendlyMode?$AA@ DB 'OTWSelectGroundFr'
	DB	'iendlyMode', 00H				; `string'
CONST	ENDS
;	COMDAT ??_C@_0BJ@EIKEGJGA@OTWSelectAirFriendlyMode?$AA@
CONST	SEGMENT
??_C@_0BJ@EIKEGJGA@OTWSelectAirFriendlyMode?$AA@ DB 'OTWSelectAirFriendly'
	DB	'Mode', 00H					; `string'
CONST	ENDS
;	COMDAT ??_C@_0BD@NDENIJBO@OTWSelectOrbitMode?$AA@
CONST	SEGMENT
??_C@_0BD@NDENIJBO@OTWSelectOrbitMode?$AA@ DB 'OTWSelectOrbitMode', 00H ; `string'
CONST	ENDS
;	COMDAT ??_C@_0BD@HFDELECC@OTWSelectChaseMode?$AA@
CONST	SEGMENT
??_C@_0BD@HFDELECC@OTWSelectChaseMode?$AA@ DB 'OTWSelectChaseMode', 00H ; `string'
CONST	ENDS
;	COMDAT ??_C@_0O@DNLCJCFA@OTWToggleGLOC?$AA@
CONST	SEGMENT
??_C@_0O@DNLCJCFA@OTWToggleGLOC?$AA@ DB 'OTWToggleGLOC', 00H ; `string'
CONST	ENDS
;	COMDAT ??_C@_0BB@PMPIFGHL@OTWSelectHUDMode?$AA@
CONST	SEGMENT
??_C@_0BB@PMPIFGHL@OTWSelectHUDMode?$AA@ DB 'OTWSelectHUDMode', 00H ; `string'
CONST	ENDS
;	COMDAT ??_C@_0BE@BJKPFBBC@OTWStepHeadingScale?$AA@
CONST	SEGMENT
??_C@_0BE@BJKPFBBC@OTWStepHeadingScale?$AA@ DB 'OTWStepHeadingScale', 00H ; `string'
CONST	ENDS
;	COMDAT ??_C@_0BF@OLLGBAGP@SimPitchLadderATTFPM?$AA@
CONST	SEGMENT
??_C@_0BF@OLLGBAGP@SimPitchLadderATTFPM?$AA@ DB 'SimPitchLadderATTFPM', 00H ; `string'
CONST	ENDS
;	COMDAT ??_C@_0BC@PGJBHEI@SimPitchLadderFPM?$AA@
CONST	SEGMENT
??_C@_0BC@PGJBHEI@SimPitchLadderFPM?$AA@ DB 'SimPitchLadderFPM', 00H ; `string'
CONST	ENDS
;	COMDAT ??_C@_0BC@CEPHDMIJ@SimPitchLadderOff?$AA@
CONST	SEGMENT
??_C@_0BC@CEPHDMIJ@SimPitchLadderOff?$AA@ DB 'SimPitchLadderOff', 00H ; `string'
CONST	ENDS
;	COMDAT ??_C@_0BF@EOHKCCOH@OTWTogglePitchLadder?$AA@
CONST	SEGMENT
??_C@_0BF@EOHKCCOH@OTWTogglePitchLadder?$AA@ DB 'OTWTogglePitchLadder', 00H ; `string'
CONST	ENDS
;	COMDAT ??_C@_0BG@MIPIDHN@OTWToggleActionCamera?$AA@
CONST	SEGMENT
??_C@_0BG@MIPIDHN@OTWToggleActionCamera?$AA@ DB 'OTWToggleActionCamera', 00H ; `string'
CONST	ENDS
;	COMDAT ??_C@_0BA@NHPJAED@OTWToggleScales?$AA@
CONST	SEGMENT
??_C@_0BA@NHPJAED@OTWToggleScales?$AA@ DB 'OTWToggleScales', 00H ; `string'
CONST	ENDS
;	COMDAT ??_C@_0M@DGLOODCO@OTWStepMFD4?$AA@
CONST	SEGMENT
??_C@_0M@DGLOODCO@OTWStepMFD4?$AA@ DB 'OTWStepMFD4', 00H ; `string'
CONST	ENDS
;	COMDAT ??_C@_0M@HJPPHFOJ@OTWStepMFD3?$AA@
CONST	SEGMENT
??_C@_0M@HJPPHFOJ@OTWStepMFD3?$AA@ DB 'OTWStepMFD3', 00H ; `string'
CONST	ENDS
;	COMDAT ??_C@_0M@GAOEEEKI@OTWStepMFD2?$AA@
CONST	SEGMENT
??_C@_0M@GAOEEEKI@OTWStepMFD2?$AA@ DB 'OTWStepMFD2', 00H ; `string'
CONST	ENDS
;	COMDAT ??_C@_0M@ELMJBHGL@OTWStepMFD1?$AA@
CONST	SEGMENT
??_C@_0M@ELMJBHGL@OTWStepMFD1?$AA@ DB 'OTWStepMFD1', 00H ; `string'
CONST	ENDS
;	COMDAT ??_C@_0BF@GLKOPOGC@OTWRadioMenuStepBack?$AA@
CONST	SEGMENT
??_C@_0BF@GLKOPOGC@OTWRadioMenuStepBack?$AA@ DB 'OTWRadioMenuStepBack', 00H ; `string'
CONST	ENDS
;	COMDAT ??_C@_0BB@FMHIIINM@OTWRadioMenuStep?$AA@
CONST	SEGMENT
??_C@_0BB@FMHIIINM@OTWRadioMenuStep?$AA@ DB 'OTWRadioMenuStep', 00H ; `string'
CONST	ENDS
;	COMDAT ??_C@_0BL@GMENBCNA@OTWSelectEFOVPadlockModeAG?$AA@
CONST	SEGMENT
??_C@_0BL@GMENBCNA@OTWSelectEFOVPadlockModeAG?$AA@ DB 'OTWSelectEFOVPadlo'
	DB	'ckModeAG', 00H				; `string'
CONST	ENDS
;	COMDAT ??_C@_0BL@DKBHLFFG@OTWSelectEFOVPadlockModeAA?$AA@
CONST	SEGMENT
??_C@_0BL@DKBHLFFG@OTWSelectEFOVPadlockModeAA?$AA@ DB 'OTWSelectEFOVPadlo'
	DB	'ckModeAA', 00H				; `string'
CONST	ENDS
;	COMDAT ??_C@_0BJ@ICDCGCGE@OTWSelectEFOVPadlockMode?$AA@
CONST	SEGMENT
??_C@_0BJ@ICDCGCGE@OTWSelectEFOVPadlockMode?$AA@ DB 'OTWSelectEFOVPadlock'
	DB	'Mode', 00H					; `string'
CONST	ENDS
;	COMDAT ??_C@_0BJ@JFOOMEBB@OTWSelectF3PadlockModeAG?$AA@
CONST	SEGMENT
??_C@_0BJ@JFOOMEBB@OTWSelectF3PadlockModeAG?$AA@ DB 'OTWSelectF3PadlockMo'
	DB	'deAG', 00H					; `string'
CONST	ENDS
;	COMDAT ??_C@_0BJ@MDLEGDJH@OTWSelectF3PadlockModeAA?$AA@
CONST	SEGMENT
??_C@_0BJ@MDLEGDJH@OTWSelectF3PadlockModeAA?$AA@ DB 'OTWSelectF3PadlockMo'
	DB	'deAA', 00H					; `string'
CONST	ENDS
;	COMDAT ??_C@_0BH@FBEIIDHA@OTWSelectF3PadlockMode?$AA@
CONST	SEGMENT
??_C@_0BH@FBEIIDHA@OTWSelectF3PadlockMode?$AA@ DB 'OTWSelectF3PadlockMode'
	DB	00H						; `string'
CONST	ENDS
;	COMDAT ??_C@_0BD@MJKHKCIP@OTWToggleCampNames?$AA@
CONST	SEGMENT
??_C@_0BD@MJKHKCIP@OTWToggleCampNames?$AA@ DB 'OTWToggleCampNames', 00H ; `string'
CONST	ENDS
;	COMDAT ??_C@_0P@EHOBCOMJ@OTWToggleNames?$AA@
CONST	SEGMENT
??_C@_0P@EHOBCOMJ@OTWToggleNames?$AA@ DB 'OTWToggleNames', 00H ; `string'
CONST	ENDS
;	COMDAT ??_C@_0BF@BBPBDCJD@OTWStepPrevPadlockAG?$AA@
CONST	SEGMENT
??_C@_0BF@BBPBDCJD@OTWStepPrevPadlockAG?$AA@ DB 'OTWStepPrevPadlockAG', 00H ; `string'
CONST	ENDS
;	COMDAT ??_C@_0BF@LPHHKOCO@OTWStepNextPadlockAG?$AA@
CONST	SEGMENT
??_C@_0BF@LPHHKOCO@OTWStepNextPadlockAG?$AA@ DB 'OTWStepNextPadlockAG', 00H ; `string'
CONST	ENDS
;	COMDAT ??_C@_0BF@EHKLJFBF@OTWStepPrevPadlockAA?$AA@
CONST	SEGMENT
??_C@_0BF@EHKLJFBF@OTWStepPrevPadlockAA?$AA@ DB 'OTWStepPrevPadlockAA', 00H ; `string'
CONST	ENDS
;	COMDAT ??_C@_0BF@OJCNAJKI@OTWStepNextPadlockAA?$AA@
CONST	SEGMENT
??_C@_0BF@OJCNAJKI@OTWStepNextPadlockAA?$AA@ DB 'OTWStepNextPadlockAA', 00H ; `string'
CONST	ENDS
;	COMDAT ??_C@_0BD@DHIHOONB@OTWStepPrevPadlock?$AA@
CONST	SEGMENT
??_C@_0BD@DHIHOONB@OTWStepPrevPadlock?$AA@ DB 'OTWStepPrevPadlock', 00H ; `string'
CONST	ENDS
;	COMDAT ??_C@_0BD@KJMFCDKF@OTWStepNextPadlock?$AA@
CONST	SEGMENT
??_C@_0BD@KJMFCDKF@OTWStepNextPadlock?$AA@ DB 'OTWStepNextPadlock', 00H ; `string'
CONST	ENDS
;	COMDAT ??_C@_0O@MMFGFJNG@OTWStepPrevAC?$AA@
CONST	SEGMENT
??_C@_0O@MMFGFJNG@OTWStepPrevAC?$AA@ DB 'OTWStepPrevAC', 00H ; `string'
CONST	ENDS
;	COMDAT ??_C@_0O@NHBNBHNO@OTWStepNextAC?$AA@
CONST	SEGMENT
??_C@_0O@NHBNBHNO@OTWStepNextAC?$AA@ DB 'OTWStepNextAC', 00H ; `string'
CONST	ENDS
;	COMDAT ??_C@_00CNPNBAHC@?$AA@
CONST	SEGMENT
??_C@_00CNPNBAHC@?$AA@ DB 00H				; `string'
CONST	ENDS
;	COMDAT ??_C@_0BB@JCKFHFKF@OTWTimeOfDayStep?$AA@
CONST	SEGMENT
??_C@_0BB@JCKFHFKF@OTWTimeOfDayStep?$AA@ DB 'OTWTimeOfDayStep', 00H ; `string'
CONST	ENDS
;	COMDAT ??_C@_06OBAOEAPH@AFIdle?$AA@
CONST	SEGMENT
??_C@_06OBAOEAPH@AFIdle?$AA@ DB 'AFIdle', 00H		; `string'
CONST	ENDS
;	COMDAT ??_C@_06INNINKKG@AFABOn?$AA@
CONST	SEGMENT
??_C@_06INNINKKG@AFABOn?$AA@ DB 'AFABOn', 00H		; `string'
CONST	ENDS
;	COMDAT ??_C@_0BF@LMGIPDPC@AFCoarseThrottleDown?$AA@
CONST	SEGMENT
??_C@_0BF@LMGIPDPC@AFCoarseThrottleDown?$AA@ DB 'AFCoarseThrottleDown', 00H ; `string'
CONST	ENDS
;	COMDAT ??_C@_0BD@LFLPKACA@AFCoarseThrottleUp?$AA@
CONST	SEGMENT
??_C@_0BD@LFLPKACA@AFCoarseThrottleUp?$AA@ DB 'AFCoarseThrottleUp', 00H ; `string'
CONST	ENDS
;	COMDAT ??_C@_0N@CDMEMBAC@AFRudderLeft?$AA@
CONST	SEGMENT
??_C@_0N@CDMEMBAC@AFRudderLeft?$AA@ DB 'AFRudderLeft', 00H ; `string'
CONST	ENDS
;	COMDAT ??_C@_0O@PENCKKIE@AFRudderRight?$AA@
CONST	SEGMENT
??_C@_0O@PENCKKIE@AFRudderRight?$AA@ DB 'AFRudderRight', 00H ; `string'
CONST	ENDS
;	COMDAT ?min_exponent10@?$numeric_limits@O@std@@2HB
CONST	SEGMENT
?min_exponent10@?$numeric_limits@O@std@@2HB DD 0fffffecdH ; std::numeric_limits<long double>::min_exponent10
CONST	ENDS
;	COMDAT ??_C@_0P@HGBEIHPP@AFThrottleDown?$AA@
CONST	SEGMENT
??_C@_0P@HGBEIHPP@AFThrottleDown?$AA@ DB 'AFThrottleDown', 00H ; `string'
CONST	ENDS
;	COMDAT ??_C@_0N@POBODBK@AFThrottleUp?$AA@
CONST	SEGMENT
??_C@_0N@POBODBK@AFThrottleUp?$AA@ DB 'AFThrottleUp', 00H ; `string'
CONST	ENDS
;	COMDAT ??_C@_0P@CIKCAOFK@AFAileronRight?$AA@
CONST	SEGMENT
??_C@_0P@CIKCAOFK@AFAileronRight?$AA@ DB 'AFAileronRight', 00H ; `string'
CONST	ENDS
;	COMDAT ??_C@_0O@IFGNNACM@AFAileronLeft?$AA@
CONST	SEGMENT
??_C@_0O@IFGNNACM@AFAileronLeft?$AA@ DB 'AFAileronLeft', 00H ; `string'
CONST	ENDS
;	COMDAT ?min_exponent@?$numeric_limits@O@std@@2HB
CONST	SEGMENT
?min_exponent@?$numeric_limits@O@std@@2HB DD 0fffffc03H	; std::numeric_limits<long double>::min_exponent
CONST	ENDS
;	COMDAT ??_C@_0P@IJJJJHDF@AFElevatorDown?$AA@
CONST	SEGMENT
??_C@_0P@IJJJJHDF@AFElevatorDown?$AA@ DB 'AFElevatorDown', 00H ; `string'
CONST	ENDS
;	COMDAT ??_C@_0N@HNKPPLEM@AFElevatorUp?$AA@
CONST	SEGMENT
??_C@_0N@HNKPPLEM@AFElevatorUp?$AA@ DB 'AFElevatorUp', 00H ; `string'
CONST	ENDS
;	COMDAT ??_C@_0L@DNDPPFHB@AFGearDown?$AA@
CONST	SEGMENT
??_C@_0L@DNDPPFHB@AFGearDown?$AA@ DB 'AFGearDown', 00H	; `string'
CONST	ENDS
;	COMDAT ??_C@_08MGFEEBCG@AFGearUp?$AA@
CONST	SEGMENT
??_C@_08MGFEEBCG@AFGearUp?$AA@ DB 'AFGearUp', 00H	; `string'
CONST	ENDS
;	COMDAT ?max_exponent10@?$numeric_limits@O@std@@2HB
CONST	SEGMENT
?max_exponent10@?$numeric_limits@O@std@@2HB DD 0134H	; std::numeric_limits<long double>::max_exponent10
CONST	ENDS
;	COMDAT ??_C@_0N@NIICJKHL@AFGearToggle?$AA@
CONST	SEGMENT
??_C@_0N@NIICJKHL@AFGearToggle?$AA@ DB 'AFGearToggle', 00H ; `string'
CONST	ENDS
;	COMDAT ??_C@_0P@IBBNIGMM@AFBrakesToggle?$AA@
CONST	SEGMENT
??_C@_0P@IBBNIGMM@AFBrakesToggle?$AA@ DB 'AFBrakesToggle', 00H ; `string'
CONST	ENDS
;	COMDAT ??_C@_0L@ONJEPNFG@AFBrakesIn?$AA@
CONST	SEGMENT
??_C@_0L@ONJEPNFG@AFBrakesIn?$AA@ DB 'AFBrakesIn', 00H	; `string'
CONST	ENDS
;	COMDAT ??_C@_0M@PMKOMPID@AFBrakesOut?$AA@
CONST	SEGMENT
??_C@_0M@PMKOMPID@AFBrakesOut?$AA@ DB 'AFBrakesOut', 00H ; `string'
CONST	ENDS
;	COMDAT ?max_exponent@?$numeric_limits@O@std@@2HB
CONST	SEGMENT
?max_exponent@?$numeric_limits@O@std@@2HB DD 0400H	; std::numeric_limits<long double>::max_exponent
CONST	ENDS
;	COMDAT ??_C@_08PGMBDKNO@SimEject?$AA@
CONST	SEGMENT
??_C@_08PGMBDKNO@SimEject?$AA@ DB 'SimEject', 00H	; `string'
CONST	ENDS
;	COMDAT ??_C@_0P@DEEDEPNK@SimNextNavMode?$AA@
CONST	SEGMENT
??_C@_0P@DEEDEPNK@SimNextNavMode?$AA@ DB 'SimNextNavMode', 00H ; `string'
CONST	ENDS
;	COMDAT ??_C@_0BA@JCAFNEKA@SimNextAGWeapon?$AA@
CONST	SEGMENT
??_C@_0BA@JCAFNEKA@SimNextAGWeapon?$AA@ DB 'SimNextAGWeapon', 00H ; `string'
CONST	ENDS
;	COMDAT ??_C@_0BA@FEGKNNCH@SimNextAAWeapon?$AA@
CONST	SEGMENT
??_C@_0BA@FEGKNNCH@SimNextAAWeapon?$AA@ DB 'SimNextAAWeapon', 00H ; `string'
CONST	ENDS
;	COMDAT ?max_digits10@?$numeric_limits@O@std@@2HB
CONST	SEGMENT
?max_digits10@?$numeric_limits@O@std@@2HB DD 011H	; std::numeric_limits<long double>::max_digits10
CONST	ENDS
;	COMDAT ??_C@_0N@LFEKCEHJ@SimEndFlight?$AA@
CONST	SEGMENT
??_C@_0N@LFEKCEHJ@SimEndFlight?$AA@ DB 'SimEndFlight', 00H ; `string'
CONST	ENDS
;	COMDAT ??_C@_0BC@PLBDKNNA@SimFCCSubModeStep?$AA@
CONST	SEGMENT
??_C@_0BC@PLBDKNNA@SimFCCSubModeStep?$AA@ DB 'SimFCCSubModeStep', 00H ; `string'
CONST	ENDS
;	COMDAT ??_C@_0BE@JGKENLLP@SimToggleInvincible?$AA@
CONST	SEGMENT
??_C@_0BE@JGKENLLP@SimToggleInvincible?$AA@ DB 'SimToggleInvincible', 00H ; `string'
CONST	ENDS
;	COMDAT ?digits10@?$numeric_limits@O@std@@2HB
CONST	SEGMENT
?digits10@?$numeric_limits@O@std@@2HB DD 0fH		; std::numeric_limits<long double>::digits10
CONST	ENDS
;	COMDAT ??_C@_0BE@HOIPDIDL@SimHSDRangeStepDown?$AA@
CONST	SEGMENT
??_C@_0BE@HOIPDIDL@SimHSDRangeStepDown?$AA@ DB 'SimHSDRangeStepDown', 00H ; `string'
CONST	ENDS
;	COMDAT ??_C@_0BC@DECOPFMP@SimHSDRangeStepUp?$AA@
CONST	SEGMENT
??_C@_0BC@DECOPFMP@SimHSDRangeStepUp?$AA@ DB 'SimHSDRangeStepUp', 00H ; `string'
CONST	ENDS
;	COMDAT ??_C@_0N@IPHBIBFG@SimDropFlare?$AA@
CONST	SEGMENT
??_C@_0N@IPHBIBFG@SimDropFlare?$AA@ DB 'SimDropFlare', 00H ; `string'
CONST	ENDS
;	COMDAT ?digits@?$numeric_limits@O@std@@2HB
CONST	SEGMENT
?digits@?$numeric_limits@O@std@@2HB DD 035H		; std::numeric_limits<long double>::digits
CONST	ENDS
;	COMDAT ??_C@_0N@BKDOOOEK@SimDropChaff?$AA@
CONST	SEGMENT
??_C@_0N@BKDOOOEK@SimDropChaff?$AA@ DB 'SimDropChaff', 00H ; `string'
CONST	ENDS
;	COMDAT ??_C@_0BL@OCBLFLKM@SimToggleMissileTDBPUncage?$AA@
CONST	SEGMENT
??_C@_0BL@OCBLFLKM@SimToggleMissileTDBPUncage?$AA@ DB 'SimToggleMissileTD'
	DB	'BPUncage', 00H				; `string'
CONST	ENDS
;	COMDAT ??_C@_0BK@OGLELGMG@SimToggleMissileBoreSlave?$AA@
CONST	SEGMENT
??_C@_0BK@OGLELGMG@SimToggleMissileBoreSlave?$AA@ DB 'SimToggleMissileBor'
	DB	'eSlave', 00H				; `string'
CONST	ENDS
;	COMDAT ??_C@_0BJ@OAOJIDBC@SimToggleMissileSpotScan?$AA@
CONST	SEGMENT
??_C@_0BJ@OAOJIDBC@SimToggleMissileSpotScan?$AA@ DB 'SimToggleMissileSpot'
	DB	'Scan', 00H					; `string'
CONST	ENDS
;	COMDAT ??_C@_0BF@DADIALPP@SimToggleMissileCage?$AA@
CONST	SEGMENT
??_C@_0BF@DADIALPP@SimToggleMissileCage?$AA@ DB 'SimToggleMissileCage', 00H ; `string'
CONST	ENDS
;	COMDAT ??_C@_0BE@CNCPKAPN@SimDeselectOverride?$AA@
CONST	SEGMENT
??_C@_0BE@CNCPKAPN@SimDeselectOverride?$AA@ DB 'SimDeselectOverride', 00H ; `string'
CONST	ENDS
;	COMDAT ??_C@_0BF@OOHFJBKF@SimSelectMRMOverride?$AA@
CONST	SEGMENT
??_C@_0BF@OOHFJBKF@SimSelectMRMOverride?$AA@ DB 'SimSelectMRMOverride', 00H ; `string'
CONST	ENDS
;	COMDAT ??_C@_0BF@LFMKPEH@SimSelectSRMOverride?$AA@
CONST	SEGMENT
??_C@_0BF@LFMKPEH@SimSelectSRMOverride?$AA@ DB 'SimSelectSRMOverride', 00H ; `string'
CONST	ENDS
;	COMDAT ??_C@_0BA@CMAADHKB@SimStepSMSRight?$AA@
CONST	SEGMENT
??_C@_0BA@CMAADHKB@SimStepSMSRight?$AA@ DB 'SimStepSMSRight', 00H ; `string'
CONST	ENDS
;	COMDAT ??_C@_0P@PMHCDOKK@SimStepSMSLeft?$AA@
CONST	SEGMENT
??_C@_0P@PMHCDOKK@SimStepSMSLeft?$AA@ DB 'SimStepSMSLeft', 00H ; `string'
CONST	ENDS
;	COMDAT ??_C@_0BD@ECGNIKPA@SimToggleAutopilot?$AA@
CONST	SEGMENT
??_C@_0BD@ECGNIKPA@SimToggleAutopilot?$AA@ DB 'SimToggleAutopilot', 00H ; `string'
CONST	ENDS
;	COMDAT ??_C@_0P@CDLIKPBL@SimCursorRight?$AA@
CONST	SEGMENT
??_C@_0P@CDLIKPBL@SimCursorRight?$AA@ DB 'SimCursorRight', 00H ; `string'
CONST	ENDS
;	COMDAT ??_C@_0O@EEBDLAOD@SimCursorLeft?$AA@
CONST	SEGMENT
??_C@_0O@EEBDLAOD@SimCursorLeft?$AA@ DB 'SimCursorLeft', 00H ; `string'
CONST	ENDS
;	COMDAT ??_C@_0O@LGBHCINK@SimCursorDown?$AA@
CONST	SEGMENT
??_C@_0O@LGBHCINK@SimCursorDown?$AA@ DB 'SimCursorDown', 00H ; `string'
CONST	ENDS
;	COMDAT ??_C@_0M@KKLNJFGM@SimCursorUp?$AA@
CONST	SEGMENT
??_C@_0M@KKLNJFGM@SimCursorUp?$AA@ DB 'SimCursorUp', 00H ; `string'
CONST	ENDS
;	COMDAT ??_C@_0P@KMNPJGDH@SimMissileStep?$AA@
CONST	SEGMENT
??_C@_0P@KMNPJGDH@SimMissileStep?$AA@ DB 'SimMissileStep', 00H ; `string'
CONST	ENDS
;	COMDAT ??_C@_0L@KOGMKIIL@SimTrigger?$AA@
CONST	SEGMENT
??_C@_0L@KOGMKIIL@SimTrigger?$AA@ DB 'SimTrigger', 00H	; `string'
CONST	ENDS
;	COMDAT ??_C@_09JCKEEPEL@SimPickle?$AA@
CONST	SEGMENT
??_C@_09JCKEEPEL@SimPickle?$AA@ DB 'SimPickle', 00H	; `string'
CONST	ENDS
;	COMDAT ??_C@_0BA@OBILHJGM@SimTogglePaused?$AA@
CONST	SEGMENT
??_C@_0BA@OBILHJGM@SimTogglePaused?$AA@ DB 'SimTogglePaused', 00H ; `string'
CONST	ENDS
;	COMDAT ??_C@_0BA@MKGHJEBD@SimPrevWaypoint?$AA@
CONST	SEGMENT
??_C@_0BA@MKGHJEBD@SimPrevWaypoint?$AA@ DB 'SimPrevWaypoint', 00H ; `string'
CONST	ENDS
;	COMDAT ??_C@_0BA@JNJBGDPL@SimNextWaypoint?$AA@
CONST	SEGMENT
??_C@_0BA@JNJBGDPL@SimNextWaypoint?$AA@ DB 'SimNextWaypoint', 00H ; `string'
CONST	ENDS
;	COMDAT ??_C@_0O@PIEGPIEC@SimRWRHandoff?$AA@
CONST	SEGMENT
??_C@_0O@PIEGPIEC@SimRWRHandoff?$AA@ DB 'SimRWRHandoff', 00H ; `string'
CONST	ENDS
;	COMDAT ??_C@_0BA@FIEBJJKL@SimRWRSetSearch?$AA@
CONST	SEGMENT
??_C@_0BA@FIEBJJKL@SimRWRSetSearch?$AA@ DB 'SimRWRSetSearch', 00H ; `string'
CONST	ENDS
;	COMDAT ??_C@_0BI@MADFNLPH@SimRWRSetGroundPriority?$AA@
CONST	SEGMENT
??_C@_0BI@MADFNLPH@SimRWRSetGroundPriority?$AA@ DB 'SimRWRSetGroundPriori'
	DB	'ty', 00H					; `string'
CONST	ENDS
;	COMDAT ??_C@_0P@HEECIKBC@SimRWRSetNaval?$AA@
CONST	SEGMENT
??_C@_0P@HEECIKBC@SimRWRSetNaval?$AA@ DB 'SimRWRSetNaval', 00H ; `string'
CONST	ENDS
;	COMDAT ??_C@_0BC@LBOFIICG@SimRWRSetUnknowns?$AA@
CONST	SEGMENT
??_C@_0BC@LBOFIICG@SimRWRSetUnknowns?$AA@ DB 'SimRWRSetUnknowns', 00H ; `string'
CONST	ENDS
;	COMDAT ??_C@_0BD@MHEFHELH@SimRWRSetTargetSep?$AA@
CONST	SEGMENT
??_C@_0BD@MHEFHELH@SimRWRSetTargetSep?$AA@ DB 'SimRWRSetTargetSep', 00H ; `string'
CONST	ENDS
;	COMDAT ??_C@_0BC@EPENJGDC@SimRWRSetPriority?$AA@
CONST	SEGMENT
??_C@_0BC@EPENJGDC@SimRWRSetPriority?$AA@ DB 'SimRWRSetPriority', 00H ; `string'
CONST	ENDS
;	COMDAT ??_C@_0BE@MJBPJLGD@SimRadarElevationUp?$AA@
CONST	SEGMENT
??_C@_0BE@MJBPJLGD@SimRadarElevationUp?$AA@ DB 'SimRadarElevationUp', 00H ; `string'
CONST	ENDS
;	COMDAT ??_C@_0BG@NGDHHKLA@SimRadarElevationDown?$AA@
CONST	SEGMENT
??_C@_0BG@NGDHHKLA@SimRadarElevationDown?$AA@ DB 'SimRadarElevationDown', 00H ; `string'
CONST	ENDS
;	COMDAT ?min_exponent10@?$numeric_limits@N@std@@2HB
CONST	SEGMENT
?min_exponent10@?$numeric_limits@N@std@@2HB DD 0fffffecdH ; std::numeric_limits<double>::min_exponent10
CONST	ENDS
;	COMDAT ??_C@_0M@POIFBCBJ@SimACM30x20?$AA@
CONST	SEGMENT
??_C@_0M@POIFBCBJ@SimACM30x20?$AA@ DB 'SimACM30x20', 00H ; `string'
CONST	ENDS
;	COMDAT ??_C@_0L@PGMJBDAA@SimACMSlew?$AA@
CONST	SEGMENT
??_C@_0L@PGMJBDAA@SimACMSlew?$AA@ DB 'SimACMSlew', 00H	; `string'
CONST	ENDS
;	COMDAT ??_C@_0N@JNNIOPOM@SimDropTrack?$AA@
CONST	SEGMENT
??_C@_0N@JNNIOPOM@SimDropTrack?$AA@ DB 'SimDropTrack', 00H ; `string'
CONST	ENDS
;	COMDAT ??_C@_0P@BMFPGAOA@SimACMVertical?$AA@
CONST	SEGMENT
??_C@_0P@BMFPGAOA@SimACMVertical?$AA@ DB 'SimACMVertical', 00H ; `string'
CONST	ENDS
;	COMDAT ?min_exponent@?$numeric_limits@N@std@@2HB
CONST	SEGMENT
?min_exponent@?$numeric_limits@N@std@@2HB DD 0fffffc03H	; std::numeric_limits<double>::min_exponent
CONST	ENDS
;	COMDAT ??_C@_0N@CMDPKKNG@SimDesignate?$AA@
CONST	SEGMENT
??_C@_0N@CMDPKKNG@SimDesignate?$AA@ DB 'SimDesignate', 00H ; `string'
CONST	ENDS
;	COMDAT ??_C@_0BA@FLBIPDMA@SimACMBoresight?$AA@
CONST	SEGMENT
??_C@_0BA@FLBIPDMA@SimACMBoresight?$AA@ DB 'SimACMBoresight', 00H ; `string'
CONST	ENDS
;	COMDAT ??_C@_0BD@MPDOOLON@SimRadarCursorZero?$AA@
CONST	SEGMENT
??_C@_0BD@MPDOOLON@SimRadarCursorZero?$AA@ DB 'SimRadarCursorZero', 00H ; `string'
CONST	ENDS
;	COMDAT ??_C@_0BB@GGJFFPCP@SimRadarSnowplow?$AA@
CONST	SEGMENT
??_C@_0BB@GGJFFPCP@SimRadarSnowplow?$AA@ DB 'SimRadarSnowplow', 00H ; `string'
CONST	ENDS
;	COMDAT ?max_exponent10@?$numeric_limits@N@std@@2HB
CONST	SEGMENT
?max_exponent10@?$numeric_limits@N@std@@2HB DD 0134H	; std::numeric_limits<double>::max_exponent10
CONST	ENDS
;	COMDAT ??_C@_0P@JNBAPDJA@SimRadarFreeze?$AA@
CONST	SEGMENT
??_C@_0P@JNBAPDJA@SimRadarFreeze?$AA@ DB 'SimRadarFreeze', 00H ; `string'
CONST	ENDS
;	COMDAT ??_C@_0O@MLMCFAIH@SimSOIFOVStep?$AA@
CONST	SEGMENT
??_C@_0O@MLMCFAIH@SimSOIFOVStep?$AA@ DB 'SimSOIFOVStep', 00H ; `string'
CONST	ENDS
;	COMDAT ??_C@_0BD@BFNDIIN@SimMaverickFOVStep?$AA@
CONST	SEGMENT
??_C@_0BD@BFNDIIN@SimMaverickFOVStep?$AA@ DB 'SimMaverickFOVStep', 00H ; `string'
CONST	ENDS
;	COMDAT ??_C@_0BA@FKEJHBMF@SimRadarFOVStep?$AA@
CONST	SEGMENT
??_C@_0BA@FKEJHBMF@SimRadarFOVStep?$AA@ DB 'SimRadarFOVStep', 00H ; `string'
CONST	ENDS
;	COMDAT ?max_exponent@?$numeric_limits@N@std@@2HB
CONST	SEGMENT
?max_exponent@?$numeric_limits@N@std@@2HB DD 0400H	; std::numeric_limits<double>::max_exponent
CONST	ENDS
;	COMDAT ??_C@_0BK@KKOPPDBE@SimRadarAzimuthScanChange?$AA@
CONST	SEGMENT
??_C@_0BK@KKOPPDBE@SimRadarAzimuthScanChange?$AA@ DB 'SimRadarAzimuthScan'
	DB	'Change', 00H				; `string'
CONST	ENDS
;	COMDAT ??_C@_0BG@DPBEEKN@SimRadarBarScanChange?$AA@
CONST	SEGMENT
??_C@_0BG@DPBEEKN@SimRadarBarScanChange?$AA@ DB 'SimRadarBarScanChange', 00H ; `string'
CONST	ENDS
;	COMDAT ??_C@_0BD@FOHGCADO@SimRadarPrevTarget?$AA@
CONST	SEGMENT
??_C@_0BD@FOHGCADO@SimRadarPrevTarget?$AA@ DB 'SimRadarPrevTarget', 00H ; `string'
CONST	ENDS
;	COMDAT ??_C@_0BD@HICOPHDJ@SimRadarNextTarget?$AA@
CONST	SEGMENT
??_C@_0BD@HICOPHDJ@SimRadarNextTarget?$AA@ DB 'SimRadarNextTarget', 00H ; `string'
CONST	ENDS
;	COMDAT ?max_digits10@?$numeric_limits@N@std@@2HB
CONST	SEGMENT
?max_digits10@?$numeric_limits@N@std@@2HB DD 011H	; std::numeric_limits<double>::max_digits10
CONST	ENDS
;	COMDAT ??_C@_0BG@BJOHGECI@SimRadarRangeStepDown?$AA@
CONST	SEGMENT
??_C@_0BG@BJOHGECI@SimRadarRangeStepDown?$AA@ DB 'SimRadarRangeStepDown', 00H ; `string'
CONST	ENDS
;	COMDAT ??_C@_0BE@PCDOFPHC@SimRadarRangeStepUp?$AA@
CONST	SEGMENT
??_C@_0BE@PCDOFPHC@SimRadarRangeStepUp?$AA@ DB 'SimRadarRangeStepUp', 00H ; `string'
CONST	ENDS
;	COMDAT ??_C@_0BA@CMAOFD@SimRadarStandby?$AA@
CONST	SEGMENT
??_C@_0BA@CMAOFD@SimRadarStandby?$AA@ DB 'SimRadarStandby', 00H ; `string'
CONST	ENDS
;	COMDAT ?digits10@?$numeric_limits@N@std@@2HB
CONST	SEGMENT
?digits10@?$numeric_limits@N@std@@2HB DD 0fH		; std::numeric_limits<double>::digits10
CONST	ENDS
;	COMDAT ??_C@_0BB@MGLBNCOP@SimRadarGainDown?$AA@
CONST	SEGMENT
??_C@_0BB@MGLBNCOP@SimRadarGainDown?$AA@ DB 'SimRadarGainDown', 00H ; `string'
CONST	ENDS
;	COMDAT ??_C@_0P@KIHAAFNI@SimRadarGainUp?$AA@
CONST	SEGMENT
??_C@_0P@KIHAAFNI@SimRadarGainUp?$AA@ DB 'SimRadarGainUp', 00H ; `string'
CONST	ENDS
;	COMDAT ??_C@_0BD@MJKKEHH@SimRadarAGModeStep?$AA@
CONST	SEGMENT
??_C@_0BD@MJKKEHH@SimRadarAGModeStep?$AA@ DB 'SimRadarAGModeStep', 00H ; `string'
CONST	ENDS
;	COMDAT ?digits@?$numeric_limits@N@std@@2HB
CONST	SEGMENT
?digits@?$numeric_limits@N@std@@2HB DD 035H		; std::numeric_limits<double>::digits
CONST	ENDS
;	COMDAT ??_C@_0BD@BIENEDA@SimRadarAAModeStep?$AA@
CONST	SEGMENT
??_C@_0BD@BIENEDA@SimRadarAAModeStep?$AA@ DB 'SimRadarAAModeStep', 00H ; `string'
CONST	ENDS
;	COMDAT ??_C@_0BB@IJAJJHOF@OTWToggleSidebar?$AA@
CONST	SEGMENT
??_C@_0BB@IJAJJHOF@OTWToggleSidebar?$AA@ DB 'OTWToggleSidebar', 00H ; `string'
CONST	ENDS
;	COMDAT ?value@?$integral_constant@I$0A@@std@@2IB
CONST	SEGMENT
?value@?$integral_constant@I$0A@@std@@2IB DD 00H	; std::integral_constant<unsigned int,0>::value
CONST	ENDS
;	COMDAT ??_C@_0BG@CLAFABPH@OTWToggleScoreDisplay?$AA@
CONST	SEGMENT
??_C@_0BG@CLAFABPH@OTWToggleScoreDisplay?$AA@ DB 'OTWToggleScoreDisplay', 00H ; `string'
CONST	ENDS
;	COMDAT ??_C@_0BH@GJGIMKFK@OTWTrackTargetToWeapon?$AA@
CONST	SEGMENT
??_C@_0BH@GJGIMKFK@OTWTrackTargetToWeapon?$AA@ DB 'OTWTrackTargetToWeapon'
	DB	00H						; `string'
CONST	ENDS
;	COMDAT ??_C@_0BB@GAPFIFKH@OTWTrackExternal?$AA@
CONST	SEGMENT
??_C@_0BB@GAPFIFKH@OTWTrackExternal?$AA@ DB 'OTWTrackExternal', 00H ; `string'
CONST	ENDS
_DATA	SEGMENT
_UserFunctionList DD FLAT:?OTWTrackExternal@@YAXKHPAX@Z
	DD	FLAT:??_C@_0BB@GAPFIFKH@OTWTrackExternal?$AA@
	DD	FLAT:?OTWTrackTargetToWeapon@@YAXKHPAX@Z
	DD	FLAT:??_C@_0BH@GJGIMKFK@OTWTrackTargetToWeapon?$AA@
	DD	FLAT:?OTWToggleScoreDisplay@@YAXKHPAX@Z
	DD	FLAT:??_C@_0BG@CLAFABPH@OTWToggleScoreDisplay?$AA@
	DD	FLAT:?OTWToggleSidebar@@YAXKHPAX@Z
	DD	FLAT:??_C@_0BB@IJAJJHOF@OTWToggleSidebar?$AA@
	DD	FLAT:?SimRadarAAModeStep@@YAXKHPAX@Z
	DD	FLAT:??_C@_0BD@BIENEDA@SimRadarAAModeStep?$AA@
	DD	FLAT:?SimRadarAGModeStep@@YAXKHPAX@Z
	DD	FLAT:??_C@_0BD@MJKKEHH@SimRadarAGModeStep?$AA@
	DD	FLAT:?SimRadarGainUp@@YAXKHPAX@Z
	DD	FLAT:??_C@_0P@KIHAAFNI@SimRadarGainUp?$AA@
	DD	FLAT:?SimRadarGainDown@@YAXKHPAX@Z
	DD	FLAT:??_C@_0BB@MGLBNCOP@SimRadarGainDown?$AA@
	DD	FLAT:?SimRadarStandby@@YAXKHPAX@Z
	DD	FLAT:??_C@_0BA@CMAOFD@SimRadarStandby?$AA@
	DD	FLAT:?SimRadarRangeStepUp@@YAXKHPAX@Z
	DD	FLAT:??_C@_0BE@PCDOFPHC@SimRadarRangeStepUp?$AA@
	DD	FLAT:?SimRadarRangeStepDown@@YAXKHPAX@Z
	DD	FLAT:??_C@_0BG@BJOHGECI@SimRadarRangeStepDown?$AA@
	DD	FLAT:?SimRadarNextTarget@@YAXKHPAX@Z
	DD	FLAT:??_C@_0BD@HICOPHDJ@SimRadarNextTarget?$AA@
	DD	FLAT:?SimRadarPrevTarget@@YAXKHPAX@Z
	DD	FLAT:??_C@_0BD@FOHGCADO@SimRadarPrevTarget?$AA@
	DD	FLAT:?SimRadarBarScanChange@@YAXKHPAX@Z
	DD	FLAT:??_C@_0BG@DPBEEKN@SimRadarBarScanChange?$AA@
	DD	FLAT:?SimRadarAzimuthScanChange@@YAXKHPAX@Z
	DD	FLAT:??_C@_0BK@KKOPPDBE@SimRadarAzimuthScanChange?$AA@
	DD	FLAT:?SimRadarFOVStep@@YAXKHPAX@Z
	DD	FLAT:??_C@_0BA@FKEJHBMF@SimRadarFOVStep?$AA@
	DD	FLAT:?SimMaverickFOVStep@@YAXKHPAX@Z
	DD	FLAT:??_C@_0BD@BFNDIIN@SimMaverickFOVStep?$AA@
	DD	FLAT:?SimSOIFOVStep@@YAXKHPAX@Z
	DD	FLAT:??_C@_0O@MLMCFAIH@SimSOIFOVStep?$AA@
	DD	FLAT:?SimRadarFreeze@@YAXKHPAX@Z
	DD	FLAT:??_C@_0P@JNBAPDJA@SimRadarFreeze?$AA@
	DD	FLAT:?SimRadarSnowplow@@YAXKHPAX@Z
	DD	FLAT:??_C@_0BB@GGJFFPCP@SimRadarSnowplow?$AA@
	DD	FLAT:?SimRadarCursorZero@@YAXKHPAX@Z
	DD	FLAT:??_C@_0BD@MPDOOLON@SimRadarCursorZero?$AA@
	DD	FLAT:?SimACMBoresight@@YAXKHPAX@Z
	DD	FLAT:??_C@_0BA@FLBIPDMA@SimACMBoresight?$AA@
	DD	FLAT:?SimDesignate@@YAXKHPAX@Z
	DD	FLAT:??_C@_0N@CMDPKKNG@SimDesignate?$AA@
	DD	FLAT:?SimACMVertical@@YAXKHPAX@Z
	DD	FLAT:??_C@_0P@BMFPGAOA@SimACMVertical?$AA@
	DD	FLAT:?SimDropTrack@@YAXKHPAX@Z
	DD	FLAT:??_C@_0N@JNNIOPOM@SimDropTrack?$AA@
	DD	FLAT:?SimACMSlew@@YAXKHPAX@Z
	DD	FLAT:??_C@_0L@PGMJBDAA@SimACMSlew?$AA@
	DD	FLAT:?SimACM30x20@@YAXKHPAX@Z
	DD	FLAT:??_C@_0M@POIFBCBJ@SimACM30x20?$AA@
	DD	FLAT:?SimRadarElevationDown@@YAXKHPAX@Z
	DD	FLAT:??_C@_0BG@NGDHHKLA@SimRadarElevationDown?$AA@
	DD	FLAT:?SimRadarElevationUp@@YAXKHPAX@Z
	DD	FLAT:??_C@_0BE@MJBPJLGD@SimRadarElevationUp?$AA@
	DD	FLAT:?SimRWRSetPriority@@YAXKHPAX@Z
	DD	FLAT:??_C@_0BC@EPENJGDC@SimRWRSetPriority?$AA@
	DD	FLAT:?SimRWRSetTargetSep@@YAXKHPAX@Z
	DD	FLAT:??_C@_0BD@MHEFHELH@SimRWRSetTargetSep?$AA@
	DD	FLAT:?SimRWRSetUnknowns@@YAXKHPAX@Z
	DD	FLAT:??_C@_0BC@LBOFIICG@SimRWRSetUnknowns?$AA@
	DD	FLAT:?SimRWRSetNaval@@YAXKHPAX@Z
	DD	FLAT:??_C@_0P@HEECIKBC@SimRWRSetNaval?$AA@
	DD	FLAT:?SimRWRSetGroundPriority@@YAXKHPAX@Z
	DD	FLAT:??_C@_0BI@MADFNLPH@SimRWRSetGroundPriority?$AA@
	DD	FLAT:?SimRWRSetSearch@@YAXKHPAX@Z
	DD	FLAT:??_C@_0BA@FIEBJJKL@SimRWRSetSearch?$AA@
	DD	FLAT:?SimRWRHandoff@@YAXKHPAX@Z
	DD	FLAT:??_C@_0O@PIEGPIEC@SimRWRHandoff?$AA@
	DD	FLAT:?SimNextWaypoint@@YAXKHPAX@Z
	DD	FLAT:??_C@_0BA@JNJBGDPL@SimNextWaypoint?$AA@
	DD	FLAT:?SimPrevWaypoint@@YAXKHPAX@Z
	DD	FLAT:??_C@_0BA@MKGHJEBD@SimPrevWaypoint?$AA@
	DD	FLAT:?SimTogglePaused@@YAXKHPAX@Z
	DD	FLAT:??_C@_0BA@OBILHJGM@SimTogglePaused?$AA@
	DD	FLAT:?SimPickle@@YAXKHPAX@Z
	DD	FLAT:??_C@_09JCKEEPEL@SimPickle?$AA@
	DD	FLAT:?SimTrigger@@YAXKHPAX@Z
	DD	FLAT:??_C@_0L@KOGMKIIL@SimTrigger?$AA@
	DD	FLAT:?SimMissileStep@@YAXKHPAX@Z
	DD	FLAT:??_C@_0P@KMNPJGDH@SimMissileStep?$AA@
	DD	FLAT:?SimCursorUp@@YAXKHPAX@Z
	DD	FLAT:??_C@_0M@KKLNJFGM@SimCursorUp?$AA@
	DD	FLAT:?SimCursorDown@@YAXKHPAX@Z
	DD	FLAT:??_C@_0O@LGBHCINK@SimCursorDown?$AA@
	DD	FLAT:?SimCursorLeft@@YAXKHPAX@Z
	DD	FLAT:??_C@_0O@EEBDLAOD@SimCursorLeft?$AA@
	DD	FLAT:?SimCursorRight@@YAXKHPAX@Z
	DD	FLAT:??_C@_0P@CDLIKPBL@SimCursorRight?$AA@
	DD	FLAT:?SimToggleAutopilot@@YAXKHPAX@Z
	DD	FLAT:??_C@_0BD@ECGNIKPA@SimToggleAutopilot?$AA@
	DD	FLAT:?SimStepSMSLeft@@YAXKHPAX@Z
	DD	FLAT:??_C@_0P@PMHCDOKK@SimStepSMSLeft?$AA@
	DD	FLAT:?SimStepSMSRight@@YAXKHPAX@Z
	DD	FLAT:??_C@_0BA@CMAADHKB@SimStepSMSRight?$AA@
	DD	FLAT:?SimSelectSRMOverride@@YAXKHPAX@Z
	DD	FLAT:??_C@_0BF@LFMKPEH@SimSelectSRMOverride?$AA@
	DD	FLAT:?SimSelectMRMOverride@@YAXKHPAX@Z
	DD	FLAT:??_C@_0BF@OOHFJBKF@SimSelectMRMOverride?$AA@
	DD	FLAT:?SimDeselectOverride@@YAXKHPAX@Z
	DD	FLAT:??_C@_0BE@CNCPKAPN@SimDeselectOverride?$AA@
	DD	FLAT:?SimToggleMissileCage@@YAXKHPAX@Z
	DD	FLAT:??_C@_0BF@DADIALPP@SimToggleMissileCage?$AA@
	DD	FLAT:?SimToggleMissileSpotScan@@YAXKHPAX@Z
	DD	FLAT:??_C@_0BJ@OAOJIDBC@SimToggleMissileSpotScan?$AA@
	DD	FLAT:?SimToggleMissileBoreSlave@@YAXKHPAX@Z
	DD	FLAT:??_C@_0BK@OGLELGMG@SimToggleMissileBoreSlave?$AA@
	DD	FLAT:?SimToggleMissileTDBPUncage@@YAXKHPAX@Z
	DD	FLAT:??_C@_0BL@OCBLFLKM@SimToggleMissileTDBPUncage?$AA@
	DD	FLAT:?SimDropChaff@@YAXKHPAX@Z
	DD	FLAT:??_C@_0N@BKDOOOEK@SimDropChaff?$AA@
	DD	FLAT:?SimDropFlare@@YAXKHPAX@Z
	DD	FLAT:??_C@_0N@IPHBIBFG@SimDropFlare?$AA@
	DD	FLAT:?SimHSDRangeStepUp@@YAXKHPAX@Z
	DD	FLAT:??_C@_0BC@DECOPFMP@SimHSDRangeStepUp?$AA@
	DD	FLAT:?SimHSDRangeStepDown@@YAXKHPAX@Z
	DD	FLAT:??_C@_0BE@HOIPDIDL@SimHSDRangeStepDown?$AA@
	DD	FLAT:?SimToggleInvincible@@YAXKHPAX@Z
	DD	FLAT:??_C@_0BE@JGKENLLP@SimToggleInvincible?$AA@
	DD	FLAT:?SimFCCSubModeStep@@YAXKHPAX@Z
	DD	FLAT:??_C@_0BC@PLBDKNNA@SimFCCSubModeStep?$AA@
	DD	FLAT:?SimEndFlight@@YAXKHPAX@Z
	DD	FLAT:??_C@_0N@LFEKCEHJ@SimEndFlight?$AA@
	DD	FLAT:?SimNextAAWeapon@@YAXKHPAX@Z
	DD	FLAT:??_C@_0BA@FEGKNNCH@SimNextAAWeapon?$AA@
	DD	FLAT:?SimNextAGWeapon@@YAXKHPAX@Z
	DD	FLAT:??_C@_0BA@JCAFNEKA@SimNextAGWeapon?$AA@
	DD	FLAT:?SimNextNavMode@@YAXKHPAX@Z
	DD	FLAT:??_C@_0P@DEEDEPNK@SimNextNavMode?$AA@
	DD	FLAT:?SimEject@@YAXKHPAX@Z
	DD	FLAT:??_C@_08PGMBDKNO@SimEject?$AA@
	DD	FLAT:?AFBrakesOut@@YAXKHPAX@Z
	DD	FLAT:??_C@_0M@PMKOMPID@AFBrakesOut?$AA@
	DD	FLAT:?AFBrakesIn@@YAXKHPAX@Z
	DD	FLAT:??_C@_0L@ONJEPNFG@AFBrakesIn?$AA@
	DD	FLAT:?AFBrakesToggle@@YAXKHPAX@Z
	DD	FLAT:??_C@_0P@IBBNIGMM@AFBrakesToggle?$AA@
	DD	FLAT:?AFGearToggle@@YAXKHPAX@Z
	DD	FLAT:??_C@_0N@NIICJKHL@AFGearToggle?$AA@
	DD	FLAT:?AFGearUp@@YAXKHPAX@Z
	DD	FLAT:??_C@_08MGFEEBCG@AFGearUp?$AA@
	DD	FLAT:?AFGearDown@@YAXKHPAX@Z
	DD	FLAT:??_C@_0L@DNDPPFHB@AFGearDown?$AA@
	DD	FLAT:?AFElevatorUp@@YAXKHPAX@Z
	DD	FLAT:??_C@_0N@HNKPPLEM@AFElevatorUp?$AA@
	DD	FLAT:?AFElevatorDown@@YAXKHPAX@Z
	DD	FLAT:??_C@_0P@IJJJJHDF@AFElevatorDown?$AA@
	DD	FLAT:?AFAileronLeft@@YAXKHPAX@Z
	DD	FLAT:??_C@_0O@IFGNNACM@AFAileronLeft?$AA@
	DD	FLAT:?AFAileronRight@@YAXKHPAX@Z
	DD	FLAT:??_C@_0P@CIKCAOFK@AFAileronRight?$AA@
	DD	FLAT:?AFThrottleUp@@YAXKHPAX@Z
	DD	FLAT:??_C@_0N@POBODBK@AFThrottleUp?$AA@
	DD	FLAT:?AFThrottleDown@@YAXKHPAX@Z
	DD	FLAT:??_C@_0P@HGBEIHPP@AFThrottleDown?$AA@
	DD	FLAT:?AFRudderRight@@YAXKHPAX@Z
	DD	FLAT:??_C@_0O@PENCKKIE@AFRudderRight?$AA@
	DD	FLAT:?AFRudderLeft@@YAXKHPAX@Z
	DD	FLAT:??_C@_0N@CDMEMBAC@AFRudderLeft?$AA@
	DD	FLAT:?AFCoarseThrottleUp@@YAXKHPAX@Z
	DD	FLAT:??_C@_0BD@LFLPKACA@AFCoarseThrottleUp?$AA@
	DD	FLAT:?AFCoarseThrottleDown@@YAXKHPAX@Z
	DD	FLAT:??_C@_0BF@LMGIPDPC@AFCoarseThrottleDown?$AA@
	DD	FLAT:?AFABOn@@YAXKHPAX@Z
	DD	FLAT:??_C@_06INNINKKG@AFABOn?$AA@
	DD	FLAT:?AFIdle@@YAXKHPAX@Z
	DD	FLAT:??_C@_06OBAOEAPH@AFIdle?$AA@
	DD	FLAT:?OTWTimeOfDayStep@@YAXKHPAX@Z
	DD	FLAT:??_C@_0BB@JCKFHFKF@OTWTimeOfDayStep?$AA@
	DD	FLAT:?OTWStepNextAC@@YAXKHPAX@Z
	DD	FLAT:??_C@_0O@NHBNBHNO@OTWStepNextAC?$AA@
	DD	FLAT:?OTWStepPrevAC@@YAXKHPAX@Z
	DD	FLAT:??_C@_0O@MMFGFJNG@OTWStepPrevAC?$AA@
	DD	FLAT:?OTWStepNextPadlock@@YAXKHPAX@Z
	DD	FLAT:??_C@_0BD@KJMFCDKF@OTWStepNextPadlock?$AA@
	DD	FLAT:?OTWStepPrevPadlock@@YAXKHPAX@Z
	DD	FLAT:??_C@_0BD@DHIHOONB@OTWStepPrevPadlock?$AA@
	DD	FLAT:?OTWStepNextPadlockAA@@YAXKHPAX@Z
	DD	FLAT:??_C@_0BF@OJCNAJKI@OTWStepNextPadlockAA?$AA@
	DD	FLAT:?OTWStepPrevPadlockAA@@YAXKHPAX@Z
	DD	FLAT:??_C@_0BF@EHKLJFBF@OTWStepPrevPadlockAA?$AA@
	DD	FLAT:?OTWStepNextPadlockAG@@YAXKHPAX@Z
	DD	FLAT:??_C@_0BF@LPHHKOCO@OTWStepNextPadlockAG?$AA@
	DD	FLAT:?OTWStepPrevPadlockAG@@YAXKHPAX@Z
	DD	FLAT:??_C@_0BF@BBPBDCJD@OTWStepPrevPadlockAG?$AA@
	DD	FLAT:?OTWToggleNames@@YAXKHPAX@Z
	DD	FLAT:??_C@_0P@EHOBCOMJ@OTWToggleNames?$AA@
	DD	FLAT:?OTWToggleCampNames@@YAXKHPAX@Z
	DD	FLAT:??_C@_0BD@MJKHKCIP@OTWToggleCampNames?$AA@
	DD	FLAT:?OTWSelectF3PadlockMode@@YAXKHPAX@Z
	DD	FLAT:??_C@_0BH@FBEIIDHA@OTWSelectF3PadlockMode?$AA@
	DD	FLAT:?OTWSelectF3PadlockModeAA@@YAXKHPAX@Z
	DD	FLAT:??_C@_0BJ@MDLEGDJH@OTWSelectF3PadlockModeAA?$AA@
	DD	FLAT:?OTWSelectF3PadlockModeAG@@YAXKHPAX@Z
	DD	FLAT:??_C@_0BJ@JFOOMEBB@OTWSelectF3PadlockModeAG?$AA@
	DD	FLAT:?OTWSelectEFOVPadlockMode@@YAXKHPAX@Z
	DD	FLAT:??_C@_0BJ@ICDCGCGE@OTWSelectEFOVPadlockMode?$AA@
	DD	FLAT:?OTWSelectEFOVPadlockModeAA@@YAXKHPAX@Z
	DD	FLAT:??_C@_0BL@DKBHLFFG@OTWSelectEFOVPadlockModeAA?$AA@
	DD	FLAT:?OTWSelectEFOVPadlockModeAG@@YAXKHPAX@Z
	DD	FLAT:??_C@_0BL@GMENBCNA@OTWSelectEFOVPadlockModeAG?$AA@
	DD	FLAT:?OTWRadioMenuStep@@YAXKHPAX@Z
	DD	FLAT:??_C@_0BB@FMHIIINM@OTWRadioMenuStep?$AA@
	DD	FLAT:?OTWRadioMenuStepBack@@YAXKHPAX@Z
	DD	FLAT:??_C@_0BF@GLKOPOGC@OTWRadioMenuStepBack?$AA@
	DD	FLAT:?OTWStepMFD1@@YAXKHPAX@Z
	DD	FLAT:??_C@_0M@ELMJBHGL@OTWStepMFD1?$AA@
	DD	FLAT:?OTWStepMFD2@@YAXKHPAX@Z
	DD	FLAT:??_C@_0M@GAOEEEKI@OTWStepMFD2?$AA@
	DD	FLAT:?OTWStepMFD3@@YAXKHPAX@Z
	DD	FLAT:??_C@_0M@HJPPHFOJ@OTWStepMFD3?$AA@
	DD	FLAT:?OTWStepMFD4@@YAXKHPAX@Z
	DD	FLAT:??_C@_0M@DGLOODCO@OTWStepMFD4?$AA@
	DD	FLAT:?OTWToggleScales@@YAXKHPAX@Z
	DD	FLAT:??_C@_0BA@NHPJAED@OTWToggleScales?$AA@
	DD	FLAT:?OTWToggleActionCamera@@YAXKHPAX@Z
	DD	FLAT:??_C@_0BG@MIPIDHN@OTWToggleActionCamera?$AA@
	DD	FLAT:?OTWTogglePitchLadder@@YAXKHPAX@Z
	DD	FLAT:??_C@_0BF@EOHKCCOH@OTWTogglePitchLadder?$AA@
	DD	FLAT:?SimPitchLadderOff@@YAXKHPAX@Z
	DD	FLAT:??_C@_0BC@CEPHDMIJ@SimPitchLadderOff?$AA@
	DD	FLAT:?SimPitchLadderFPM@@YAXKHPAX@Z
	DD	FLAT:??_C@_0BC@PGJBHEI@SimPitchLadderFPM?$AA@
	DD	FLAT:?SimPitchLadderATTFPM@@YAXKHPAX@Z
	DD	FLAT:??_C@_0BF@OLLGBAGP@SimPitchLadderATTFPM?$AA@
	DD	FLAT:?OTWStepHeadingScale@@YAXKHPAX@Z
	DD	FLAT:??_C@_0BE@BJKPFBBC@OTWStepHeadingScale?$AA@
	DD	FLAT:?OTWSelectHUDMode@@YAXKHPAX@Z
	DD	FLAT:??_C@_0BB@PMPIFGHL@OTWSelectHUDMode?$AA@
	DD	FLAT:?OTWToggleGLOC@@YAXKHPAX@Z
	DD	FLAT:??_C@_0O@DNLCJCFA@OTWToggleGLOC?$AA@
	DD	FLAT:?OTWSelectChaseMode@@YAXKHPAX@Z
	DD	FLAT:??_C@_0BD@HFDELECC@OTWSelectChaseMode?$AA@
	DD	FLAT:?OTWSelectOrbitMode@@YAXKHPAX@Z
	DD	FLAT:??_C@_0BD@NDENIJBO@OTWSelectOrbitMode?$AA@
	DD	FLAT:?OTWSelectAirFriendlyMode@@YAXKHPAX@Z
	DD	FLAT:??_C@_0BJ@EIKEGJGA@OTWSelectAirFriendlyMode?$AA@
	DD	FLAT:?OTWSelectGroundFriendlyMode@@YAXKHPAX@Z
	DD	FLAT:??_C@_0BM@FNBGBGIE@OTWSelectGroundFriendlyMode?$AA@
	DD	FLAT:?OTWSelectAirEnemyMode@@YAXKHPAX@Z
	DD	FLAT:??_C@_0BG@HGGFDMLP@OTWSelectAirEnemyMode?$AA@
	DD	FLAT:?OTWSelectGroundEnemyMode@@YAXKHPAX@Z
	DD	FLAT:??_C@_0BJ@NFOBBGD@OTWSelectGroundEnemyMode?$AA@
	DD	FLAT:?OTWSelectTargetMode@@YAXKHPAX@Z
	DD	FLAT:??_C@_0BE@JFEMJGGC@OTWSelectTargetMode?$AA@
	DD	FLAT:?OTWSelectWeaponMode@@YAXKHPAX@Z
	DD	FLAT:??_C@_0BE@OAELGICM@OTWSelectWeaponMode?$AA@
	DD	FLAT:?OTWSelectSatelliteMode@@YAXKHPAX@Z
	DD	FLAT:??_C@_0BH@DMKKEKAN@OTWSelectSatelliteMode?$AA@
	DD	FLAT:?OTWSelectFlybyMode@@YAXKHPAX@Z
	DD	FLAT:??_C@_0BD@NEBCFBGO@OTWSelectFlybyMode?$AA@
	DD	FLAT:?OTWSelectIncomingMode@@YAXKHPAX@Z
	DD	FLAT:??_C@_0BG@JOPNOLD@OTWSelectIncomingMode?$AA@
	DD	FLAT:?OTWShowTestVersion@@YAXKHPAX@Z
	DD	FLAT:??_C@_0BD@ENMAKJBL@OTWShowTestVersion?$AA@
	DD	FLAT:?OTWShowVersion@@YAXKHPAX@Z
	DD	FLAT:??_C@_0P@KFFJOCFM@OTWShowVersion?$AA@
	DD	FLAT:?OTWSelect2DCockpitMode@@YAXKHPAX@Z
	DD	FLAT:??_C@_0BH@DJCKGLMP@OTWSelect2DCockpitMode?$AA@
	DD	FLAT:?OTWSelect3DCockpitMode@@YAXKHPAX@Z
	DD	FLAT:??_C@_0BH@KECFIKLJ@OTWSelect3DCockpitMode?$AA@
	DD	FLAT:?OTWToggleBilinearFilter@@YAXKHPAX@Z
	DD	FLAT:??_C@_0BI@PFEJJFMN@OTWToggleBilinearFilter?$AA@
	DD	FLAT:?OTWToggleShading@@YAXKHPAX@Z
	DD	FLAT:??_C@_0BB@KJDLACHK@OTWToggleShading?$AA@
	DD	FLAT:?OTWToggleHaze@@YAXKHPAX@Z
	DD	FLAT:??_C@_0O@MMENGDN@OTWToggleHaze?$AA@
	DD	FLAT:?OTWToggleLocationDisplay@@YAXKHPAX@Z
	DD	FLAT:??_C@_0BJ@ILHHCFDJ@OTWToggleLocationDisplay?$AA@
	DD	FLAT:?OTWToggleAeroDisplay@@YAXKHPAX@Z
	DD	FLAT:??_C@_0BF@PBJMDIOI@OTWToggleAeroDisplay?$AA@
	DD	FLAT:?OTWToggleFlapDisplay@@YAXKHPAX@Z
	DD	FLAT:??_C@_0BF@EBKJFIKJ@OTWToggleFlapDisplay?$AA@
	DD	FLAT:?OTWToggleEngineDisplay@@YAXKHPAX@Z
	DD	FLAT:??_C@_0BH@IAOEHJPM@OTWToggleEngineDisplay?$AA@
	DD	FLAT:?OTWScaleDown@@YAXKHPAX@Z
	DD	FLAT:??_C@_0N@FPNLONGA@OTWScaleDown?$AA@
	DD	FLAT:?OTWScaleUp@@YAXKHPAX@Z
	DD	FLAT:??_C@_0L@MACJNPMF@OTWScaleUp?$AA@
	DD	FLAT:?OTWSetObjDetail@@YAXKHPAX@Z
	DD	FLAT:??_C@_0BA@KENCACC@OTWSetObjDetail?$AA@
	DD	FLAT:?OTWObjDetailDown@@YAXKHPAX@Z
	DD	FLAT:??_C@_0BB@PKHMOPEB@OTWObjDetailDown?$AA@
	DD	FLAT:?OTWObjDetailUp@@YAXKHPAX@Z
	DD	FLAT:??_C@_0P@BAOLLOKP@OTWObjDetailUp?$AA@
	DD	FLAT:?OTWToggleClouds@@YAXKHPAX@Z
	DD	FLAT:??_C@_0BA@IBEHCBL@OTWToggleClouds?$AA@
	DD	FLAT:?OTWStepHudContrastDn@@YAXKHPAX@Z
	DD	FLAT:??_C@_0BF@OGPHJBEH@OTWStepHudContrastDn?$AA@
	DD	FLAT:?OTWStepHudContrastUp@@YAXKHPAX@Z
	DD	FLAT:??_C@_0BF@CPFCGHNP@OTWStepHudContrastUp?$AA@
	DD	FLAT:?OTWToggleEyeFly@@YAXKHPAX@Z
	DD	FLAT:??_C@_0BA@GEANCCNF@OTWToggleEyeFly?$AA@
	DD	FLAT:?OTWEnterPosition@@YAXKHPAX@Z
	DD	FLAT:??_C@_0BB@BKDDPOHJ@OTWEnterPosition?$AA@
	DD	FLAT:?OTWToggleFrameRate@@YAXKHPAX@Z
	DD	FLAT:??_C@_0BD@CLCFALLF@OTWToggleFrameRate?$AA@
	DD	FLAT:?OTWToggleAutoScale@@YAXKHPAX@Z
	DD	FLAT:??_C@_0BD@FCALNECN@OTWToggleAutoScale?$AA@
	DD	FLAT:?OTWSetScale@@YAXKHPAX@Z
	DD	FLAT:??_C@_0M@BANEEPNG@OTWSetScale?$AA@
	DD	FLAT:?OTWViewLeft@@YAXKHPAX@Z
	DD	FLAT:??_C@_0M@MCMFEGMI@OTWViewLeft?$AA@
	DD	FLAT:?OTWViewRight@@YAXKHPAX@Z
	DD	FLAT:??_C@_0N@IPICIAKN@OTWViewRight?$AA@
	DD	FLAT:?OTWViewUp@@YAXKHPAX@Z
	DD	FLAT:??_C@_09IOBFFGKL@OTWViewUp?$AA@
	DD	FLAT:?OTWViewDown@@YAXKHPAX@Z
	DD	FLAT:??_C@_0M@DAMBNOPB@OTWViewDown?$AA@
	DD	FLAT:?OTWViewReset@@YAXKHPAX@Z
	DD	FLAT:??_C@_0N@JNNBDODH@OTWViewReset?$AA@
	DD	FLAT:?OTWViewUpRight@@YAXKHPAX@Z
	DD	FLAT:??_C@_0P@CIHOHPLH@OTWViewUpRight?$AA@
	DD	FLAT:?OTWViewUpLeft@@YAXKHPAX@Z
	DD	FLAT:??_C@_0O@FJBMDNCM@OTWViewUpLeft?$AA@
	DD	FLAT:?OTWViewDownRight@@YAXKHPAX@Z
	DD	FLAT:??_C@_0BB@ICPGCIND@OTWViewDownRight?$AA@
	DD	FLAT:?OTWViewDownLeft@@YAXKHPAX@Z
	DD	FLAT:??_C@_0BA@NLAHAGEC@OTWViewDownLeft?$AA@
	DD	FLAT:?OTWViewZoomIn@@YAXKHPAX@Z
	DD	FLAT:??_C@_0O@JNDNHLLG@OTWViewZoomIn?$AA@
	DD	FLAT:?OTWViewZoomOut@@YAXKHPAX@Z
	DD	FLAT:??_C@_0P@FMNEIEHN@OTWViewZoomOut?$AA@
	DD	FLAT:?OTWSwapMFDS@@YAXKHPAX@Z
	DD	FLAT:??_C@_0M@GGMCDNLO@OTWSwapMFDS?$AA@
	DD	FLAT:?OTWGlanceForward@@YAXKHPAX@Z
	DD	FLAT:??_C@_0BB@MDACAKHF@OTWGlanceForward?$AA@
	DD	FLAT:?OTWCheckSix@@YAXKHPAX@Z
	DD	FLAT:??_C@_0M@HBDHFNLN@OTWCheckSix?$AA@
	DD	FLAT:?OTWStateStep@@YAXKHPAX@Z
	DD	FLAT:??_C@_0N@FNHAMDLM@OTWStateStep?$AA@
	DD	FLAT:?CommandsSetKeyCombo@@YAXKHPAX@Z
	DD	FLAT:??_C@_0BE@EHFEMJDM@CommandsSetKeyCombo?$AA@
	DD	FLAT:?KevinsFistOfGod@@YAXKHPAX@Z
	DD	FLAT:??_C@_0BA@NOAJGLBJ@KevinsFistOfGod?$AA@
	DD	FLAT:?SuperCruise@@YAXKHPAX@Z
	DD	FLAT:??_C@_0M@EEFKMFLA@SuperCruise?$AA@
	DD	FLAT:?OTW1200View@@YAXKHPAX@Z
	DD	FLAT:??_C@_0M@NINGGEPA@OTW1200View?$AA@
	DD	FLAT:?OTW1200DView@@YAXKHPAX@Z
	DD	FLAT:??_C@_0N@OFAAIPCI@OTW1200DView?$AA@
	DD	FLAT:?OTW1200HUDView@@YAXKHPAX@Z
	DD	FLAT:??_C@_0P@IFAKMICB@OTW1200HUDView?$AA@
	DD	FLAT:?OTW1200LView@@YAXKHPAX@Z
	DD	FLAT:??_C@_0N@JFDANEF@OTW1200LView?$AA@
	DD	FLAT:?OTW1000View@@YAXKHPAX@Z
	DD	FLAT:??_C@_0M@JKPDGDIN@OTW1000View?$AA@
	DD	FLAT:?OTW200View@@YAXKHPAX@Z
	DD	FLAT:??_C@_0L@MDOKDLFA@OTW200View?$AA@
	DD	FLAT:?OTW900View@@YAXKHPAX@Z
	DD	FLAT:??_C@_0L@JOIACHAG@OTW900View?$AA@
	DD	FLAT:?OTW300View@@YAXKHPAX@Z
	DD	FLAT:??_C@_0L@PEADLMO@OTW300View?$AA@
	DD	FLAT:?OTW800View@@YAXKHPAX@Z
	DD	FLAT:??_C@_0L@FCCKCHJI@OTW800View?$AA@
	DD	FLAT:?OTW400View@@YAXKHPAX@Z
	DD	FLAT:??_C@_0L@FIFDCNH@OTW400View?$AA@
	DD	FLAT:?OTW1200RView@@YAXKHPAX@Z
	DD	FLAT:??_C@_0N@DAIPGOKO@OTW1200RView?$AA@
	DD	FLAT:?RadioMessageSend@@YAXKHPAX@Z
	DD	FLAT:??_C@_0BB@JNLNNKHD@RadioMessageSend?$AA@
	DD	FLAT:?SimToggleChatMode@@YAXKHPAX@Z
	DD	FLAT:??_C@_0BC@JFODPOJI@SimToggleChatMode?$AA@
	DD	FLAT:?SimMotionFreeze@@YAXKHPAX@Z
	DD	FLAT:??_C@_0BA@FJMPELI@SimMotionFreeze?$AA@
	DD	FLAT:?ScreenShot@@YAXKHPAX@Z
	DD	FLAT:??_C@_0L@GLCDFILJ@ScreenShot?$AA@
	DD	FLAT:?PrettyScreenShot@@YAXKHPAX@Z
	DD	FLAT:??_C@_0BB@JKEOBIFK@PrettyScreenShot?$AA@
	DD	FLAT:?FOVToggle@@YAXKHPAX@Z
	DD	FLAT:??_C@_09OHCPGPJD@FOVToggle?$AA@
	DD	FLAT:?FOVDecrease@@YAXKHPAX@Z
	DD	FLAT:??_C@_0M@NBHKBHHA@FOVDecrease?$AA@
	DD	FLAT:?FOVIncrease@@YAXKHPAX@Z
	DD	FLAT:??_C@_0M@HNFPOMHB@FOVIncrease?$AA@
	DD	FLAT:?FOVDefault@@YAXKHPAX@Z
	DD	FLAT:??_C@_0L@JMKFDKJJ@FOVDefault?$AA@
	DD	FLAT:?SimAVTRToggle@@YAXKHPAX@Z
	DD	FLAT:??_C@_0O@CLFILIKF@SimAVTRToggle?$AA@
	DD	FLAT:?SimSelectiveJettison@@YAXKHPAX@Z
	DD	FLAT:??_C@_0BF@PHOLOOPB@SimSelectiveJettison?$AA@
	DD	FLAT:?SimEmergencyJettison@@YAXKHPAX@Z
	DD	FLAT:??_C@_0BF@NFKKMPFN@SimEmergencyJettison?$AA@
	DD	FLAT:?SimWheelBrakes@@YAXKHPAX@Z
	DD	FLAT:??_C@_0P@EPBDAHFE@SimWheelBrakes?$AA@
	DD	FLAT:?SimECMOn@@YAXKHPAX@Z
	DD	FLAT:??_C@_08NOOMLFCF@SimECMOn?$AA@
	DD	FLAT:?SimECMStandby@@YAXKHPAX@Z
	DD	FLAT:??_C@_0O@JADEJABL@SimECMStandby?$AA@
	DD	FLAT:?SimECMConsent@@YAXKHPAX@Z
	DD	FLAT:??_C@_0O@OEHIGIKO@SimECMConsent?$AA@
	DD	FLAT:?SimRadarElevationCenter@@YAXKHPAX@Z
	DD	FLAT:??_C@_0BI@DBGIKNPC@SimRadarElevationCenter?$AA@
	DD	FLAT:?SimHsiCourseInc@@YAXKHPAX@Z
	DD	FLAT:??_C@_0BA@DNIMDODG@SimHsiCourseInc?$AA@
	DD	FLAT:?SimHsiCourseDec@@YAXKHPAX@Z
	DD	FLAT:??_C@_0BA@MDLDAJAK@SimHsiCourseDec?$AA@
	DD	FLAT:?SimHsiHeadingInc@@YAXKHPAX@Z
	DD	FLAT:??_C@_0BB@BMAJLLGN@SimHsiHeadingInc?$AA@
	DD	FLAT:?SimHsiHeadingDec@@YAXKHPAX@Z
	DD	FLAT:??_C@_0BB@OCDGIMFB@SimHsiHeadingDec?$AA@
	DD	FLAT:?SimHsiCrsIncBy1@@YAXKHPAX@Z
	DD	FLAT:??_C@_0BA@HKOFIKPI@SimHsiCrsIncBy1?$AA@
	DD	FLAT:?SimHsiCrsDecBy1@@YAXKHPAX@Z
	DD	FLAT:??_C@_0BA@HBPFBLPL@SimHsiCrsDecBy1?$AA@
	DD	FLAT:?SimHsiHdgIncBy1@@YAXKHPAX@Z
	DD	FLAT:??_C@_0BA@KFCOHFCF@SimHsiHdgIncBy1?$AA@
	DD	FLAT:?SimHsiHdgDecBy1@@YAXKHPAX@Z
	DD	FLAT:??_C@_0BA@KODOOECG@SimHsiHdgDecBy1?$AA@
	DD	FLAT:?SimAVTRToggle@@YAXKHPAX@Z
	DD	FLAT:??_C@_0O@CLFILIKF@SimAVTRToggle?$AA@
	DD	FLAT:?SimMPOToggle@@YAXKHPAX@Z
	DD	FLAT:??_C@_0N@HJEHMLCJ@SimMPOToggle?$AA@
	DD	FLAT:?SimMPO@@YAXKHPAX@Z
	DD	FLAT:??_C@_06EMNEMDFP@SimMPO?$AA@
	DD	FLAT:?SimSilenceHorn@@YAXKHPAX@Z
	DD	FLAT:??_C@_0P@OBAEMMJM@SimSilenceHorn?$AA@
	DD	FLAT:?SimStepHSIMode@@YAXKHPAX@Z
	DD	FLAT:??_C@_0P@EKIPOLBD@SimStepHSIMode?$AA@
	DD	FLAT:?SimHSIIlsTcn@@YAXKHPAX@Z
	DD	FLAT:??_C@_0N@HPEHECHE@SimHSIIlsTcn?$AA@
	DD	FLAT:?SimHSITcn@@YAXKHPAX@Z
	DD	FLAT:??_C@_09KIOFPIIN@SimHSITcn?$AA@
	DD	FLAT:?SimHSINav@@YAXKHPAX@Z
	DD	FLAT:??_C@_09BGNOADEB@SimHSINav?$AA@
	DD	FLAT:?SimHSIIlsNav@@YAXKHPAX@Z
	DD	FLAT:??_C@_0N@MBHMLJLI@SimHSIIlsNav?$AA@
	DD	FLAT:?SimCBEOSB_1L@@YAXKHPAX@Z
	DD	FLAT:??_C@_0N@HOIFNAHF@SimCBEOSB_1L?$AA@
	DD	FLAT:?SimCBEOSB_2L@@YAXKHPAX@Z
	DD	FLAT:??_C@_0N@HMMDGOCM@SimCBEOSB_2L?$AA@
	DD	FLAT:?SimCBEOSB_3L@@YAXKHPAX@Z
	DD	FLAT:??_C@_0N@HNABAEBL@SimCBEOSB_3L?$AA@
	DD	FLAT:?SimCBEOSB_4L@@YAXKHPAX@Z
	DD	FLAT:??_C@_0N@HIEOBCJO@SimCBEOSB_4L?$AA@
	DD	FLAT:?SimCBEOSB_5L@@YAXKHPAX@Z
	DD	FLAT:??_C@_0N@HJIMHIKJ@SimCBEOSB_5L?$AA@
	DD	FLAT:?SimCBEOSB_6L@@YAXKHPAX@Z
	DD	FLAT:??_C@_0N@HLMKMGPA@SimCBEOSB_6L?$AA@
	DD	FLAT:?SimCBEOSB_7L@@YAXKHPAX@Z
	DD	FLAT:??_C@_0N@HKAIKMMH@SimCBEOSB_7L?$AA@
	DD	FLAT:?SimCBEOSB_8L@@YAXKHPAX@Z
	DD	FLAT:??_C@_0N@HBFEOLPK@SimCBEOSB_8L?$AA@
	DD	FLAT:?SimCBEOSB_9L@@YAXKHPAX@Z
	DD	FLAT:??_C@_0N@HAJGIBMN@SimCBEOSB_9L?$AA@
	DD	FLAT:?SimCBEOSB_10L@@YAXKHPAX@Z
	DD	FLAT:??_C@_0O@CBDGJBFO@SimCBEOSB_10L?$AA@
	DD	FLAT:?SimCBEOSB_11L@@YAXKHPAX@Z
	DD	FLAT:??_C@_0O@CAPEPLGJ@SimCBEOSB_11L?$AA@
	DD	FLAT:?SimCBEOSB_12L@@YAXKHPAX@Z
	DD	FLAT:??_C@_0O@CCLCEFDA@SimCBEOSB_12L?$AA@
	DD	FLAT:?SimCBEOSB_13L@@YAXKHPAX@Z
	DD	FLAT:??_C@_0O@CDHACPAH@SimCBEOSB_13L?$AA@
	DD	FLAT:?SimCBEOSB_14L@@YAXKHPAX@Z
	DD	FLAT:??_C@_0O@CGDPDJIC@SimCBEOSB_14L?$AA@
	DD	FLAT:?SimCBEOSB_15L@@YAXKHPAX@Z
	DD	FLAT:??_C@_0O@CHPNFDLF@SimCBEOSB_15L?$AA@
	DD	FLAT:?SimCBEOSB_16L@@YAXKHPAX@Z
	DD	FLAT:??_C@_0O@CFLLONOM@SimCBEOSB_16L?$AA@
	DD	FLAT:?SimCBEOSB_17L@@YAXKHPAX@Z
	DD	FLAT:??_C@_0O@CEHJIHNL@SimCBEOSB_17L?$AA@
	DD	FLAT:?SimCBEOSB_18L@@YAXKHPAX@Z
	DD	FLAT:??_C@_0O@CPCFMAOG@SimCBEOSB_18L?$AA@
	DD	FLAT:?SimCBEOSB_19L@@YAXKHPAX@Z
	DD	FLAT:??_C@_0O@COOHKKNB@SimCBEOSB_19L?$AA@
	DD	FLAT:?SimCBEOSB_20L@@YAXKHPAX@Z
	DD	FLAT:??_C@_0O@DDIDDOLA@SimCBEOSB_20L?$AA@
	DD	FLAT:?SimCBEOSB_1R@@YAXKHPAX@Z
	DD	FLAT:??_C@_0N@KKMEOPKK@SimCBEOSB_1R?$AA@
	DD	FLAT:?SimCBEOSB_2R@@YAXKHPAX@Z
	DD	FLAT:??_C@_0N@KIICFBPD@SimCBEOSB_2R?$AA@
	DD	FLAT:?SimCBEOSB_3R@@YAXKHPAX@Z
	DD	FLAT:??_C@_0N@KJEADLME@SimCBEOSB_3R?$AA@
	DD	FLAT:?SimCBEOSB_4R@@YAXKHPAX@Z
	DD	FLAT:??_C@_0N@KMAPCNEB@SimCBEOSB_4R?$AA@
	DD	FLAT:?SimCBEOSB_5R@@YAXKHPAX@Z
	DD	FLAT:??_C@_0N@KNMNEHHG@SimCBEOSB_5R?$AA@
	DD	FLAT:?SimCBEOSB_6R@@YAXKHPAX@Z
	DD	FLAT:??_C@_0N@KPILPJCP@SimCBEOSB_6R?$AA@
	DD	FLAT:?SimCBEOSB_7R@@YAXKHPAX@Z
	DD	FLAT:??_C@_0N@KOEJJDBI@SimCBEOSB_7R?$AA@
	DD	FLAT:?SimCBEOSB_8R@@YAXKHPAX@Z
	DD	FLAT:??_C@_0N@KFBFNECF@SimCBEOSB_8R?$AA@
	DD	FLAT:?SimCBEOSB_9R@@YAXKHPAX@Z
	DD	FLAT:??_C@_0N@KENHLOBC@SimCBEOSB_9R?$AA@
	DD	FLAT:?SimCBEOSB_10R@@YAXKHPAX@Z
	DD	FLAT:??_C@_0O@PFHHKOIB@SimCBEOSB_10R?$AA@
	DD	FLAT:?SimCBEOSB_11R@@YAXKHPAX@Z
	DD	FLAT:??_C@_0O@PELFMELG@SimCBEOSB_11R?$AA@
	DD	FLAT:?SimCBEOSB_12R@@YAXKHPAX@Z
	DD	FLAT:??_C@_0O@PGPDHKOP@SimCBEOSB_12R?$AA@
	DD	FLAT:?SimCBEOSB_13R@@YAXKHPAX@Z
	DD	FLAT:??_C@_0O@PHDBBANI@SimCBEOSB_13R?$AA@
	DD	FLAT:?SimCBEOSB_14R@@YAXKHPAX@Z
	DD	FLAT:??_C@_0O@PCHOAGFN@SimCBEOSB_14R?$AA@
	DD	FLAT:?SimCBEOSB_15R@@YAXKHPAX@Z
	DD	FLAT:??_C@_0O@PDLMGMGK@SimCBEOSB_15R?$AA@
	DD	FLAT:?SimCBEOSB_16R@@YAXKHPAX@Z
	DD	FLAT:??_C@_0O@PBPKNCDD@SimCBEOSB_16R?$AA@
	DD	FLAT:?SimCBEOSB_17R@@YAXKHPAX@Z
	DD	FLAT:??_C@_0O@PADILIAE@SimCBEOSB_17R?$AA@
	DD	FLAT:?SimCBEOSB_18R@@YAXKHPAX@Z
	DD	FLAT:??_C@_0O@PLGEPPDJ@SimCBEOSB_18R?$AA@
	DD	FLAT:?SimCBEOSB_19R@@YAXKHPAX@Z
	DD	FLAT:??_C@_0O@PKKGJFAO@SimCBEOSB_19R?$AA@
	DD	FLAT:?SimCBEOSB_20R@@YAXKHPAX@Z
	DD	FLAT:??_C@_0O@OHMCABGP@SimCBEOSB_20R?$AA@
	DD	FLAT:?SimCBEOSB_GAINUP_L@@YAXKHPAX@Z
	DD	FLAT:??_C@_0BD@KKFNDCNN@SimCBEOSB_GAINUP_L?$AA@
	DD	FLAT:?SimCBEOSB_GAINUP_R@@YAXKHPAX@Z
	DD	FLAT:??_C@_0BD@HOBMANAC@SimCBEOSB_GAINUP_R?$AA@
	DD	FLAT:?SimCBEOSB_GAINDOWN_L@@YAXKHPAX@Z
	DD	FLAT:??_C@_0BF@GODNINHF@SimCBEOSB_GAINDOWN_L?$AA@
	DD	FLAT:?SimCBEOSB_GAINDOWN_R@@YAXKHPAX@Z
	DD	FLAT:??_C@_0BF@LKHMLCKK@SimCBEOSB_GAINDOWN_R?$AA@
	DD	FLAT:?SimCBEOSB_1T@@YAXKHPAX@Z
	DD	FLAT:??_C@_0N@PMJOEICM@SimCBEOSB_1T?$AA@
	DD	FLAT:?SimCBEOSB_2T@@YAXKHPAX@Z
	DD	FLAT:??_C@_0N@PONIPGHF@SimCBEOSB_2T?$AA@
	DD	FLAT:?SimCBEOSB_3T@@YAXKHPAX@Z
	DD	FLAT:??_C@_0N@PPBKJMEC@SimCBEOSB_3T?$AA@
	DD	FLAT:?SimCBEOSB_4T@@YAXKHPAX@Z
	DD	FLAT:??_C@_0N@PKFFIKMH@SimCBEOSB_4T?$AA@
	DD	FLAT:?SimCBEOSB_5T@@YAXKHPAX@Z
	DD	FLAT:??_C@_0N@PLJHOAPA@SimCBEOSB_5T?$AA@
	DD	FLAT:?SimCBEOSB_6T@@YAXKHPAX@Z
	DD	FLAT:??_C@_0N@PJNBFOKJ@SimCBEOSB_6T?$AA@
	DD	FLAT:?SimCBEOSB_7T@@YAXKHPAX@Z
	DD	FLAT:??_C@_0N@PIBDDEJO@SimCBEOSB_7T?$AA@
	DD	FLAT:?SimCBEOSB_8T@@YAXKHPAX@Z
	DD	FLAT:??_C@_0N@PDEPHDKD@SimCBEOSB_8T?$AA@
	DD	FLAT:?SimCBEOSB_9T@@YAXKHPAX@Z
	DD	FLAT:??_C@_0N@PCINBJJE@SimCBEOSB_9T?$AA@
	DD	FLAT:?SimCBEOSB_10T@@YAXKHPAX@Z
	DD	FLAT:??_C@_0O@KDCNAJAH@SimCBEOSB_10T?$AA@
	DD	FLAT:?SimCBEOSB_11T@@YAXKHPAX@Z
	DD	FLAT:??_C@_0O@KCOPGDDA@SimCBEOSB_11T?$AA@
	DD	FLAT:?SimCBEOSB_12T@@YAXKHPAX@Z
	DD	FLAT:??_C@_0O@KAKJNNGJ@SimCBEOSB_12T?$AA@
	DD	FLAT:?SimCBEOSB_13T@@YAXKHPAX@Z
	DD	FLAT:??_C@_0O@KBGLLHFO@SimCBEOSB_13T?$AA@
	DD	FLAT:?SimCBEOSB_14T@@YAXKHPAX@Z
	DD	FLAT:??_C@_0O@KECEKBNL@SimCBEOSB_14T?$AA@
	DD	FLAT:?SimCBEOSB_15T@@YAXKHPAX@Z
	DD	FLAT:??_C@_0O@KFOGMLOM@SimCBEOSB_15T?$AA@
	DD	FLAT:?SimCBEOSB_16T@@YAXKHPAX@Z
	DD	FLAT:??_C@_0O@KHKAHFLF@SimCBEOSB_16T?$AA@
	DD	FLAT:?SimCBEOSB_17T@@YAXKHPAX@Z
	DD	FLAT:??_C@_0O@KGGCBPIC@SimCBEOSB_17T?$AA@
	DD	FLAT:?SimCBEOSB_18T@@YAXKHPAX@Z
	DD	FLAT:??_C@_0O@KNDOFILP@SimCBEOSB_18T?$AA@
	DD	FLAT:?SimCBEOSB_19T@@YAXKHPAX@Z
	DD	FLAT:??_C@_0O@KMPMDCII@SimCBEOSB_19T?$AA@
	DD	FLAT:?SimCBEOSB_20T@@YAXKHPAX@Z
	DD	FLAT:??_C@_0O@LBJIKGOJ@SimCBEOSB_20T?$AA@
	DD	FLAT:?SimCBEOSB_1F@@YAXKHPAX@Z
	DD	FLAT:??_C@_0N@IEGKDIPP@SimCBEOSB_1F?$AA@
	DD	FLAT:?SimCBEOSB_2F@@YAXKHPAX@Z
	DD	FLAT:??_C@_0N@IGCMIGKG@SimCBEOSB_2F?$AA@
	DD	FLAT:?SimCBEOSB_3F@@YAXKHPAX@Z
	DD	FLAT:??_C@_0N@IHOOOMJB@SimCBEOSB_3F?$AA@
	DD	FLAT:?SimCBEOSB_4F@@YAXKHPAX@Z
	DD	FLAT:??_C@_0N@ICKBPKBE@SimCBEOSB_4F?$AA@
	DD	FLAT:?SimCBEOSB_5F@@YAXKHPAX@Z
	DD	FLAT:??_C@_0N@IDGDJACD@SimCBEOSB_5F?$AA@
	DD	FLAT:?SimCBEOSB_6F@@YAXKHPAX@Z
	DD	FLAT:??_C@_0N@IBCFCOHK@SimCBEOSB_6F?$AA@
	DD	FLAT:?SimCBEOSB_7F@@YAXKHPAX@Z
	DD	FLAT:??_C@_0N@IAOHEEEN@SimCBEOSB_7F?$AA@
	DD	FLAT:?SimCBEOSB_8F@@YAXKHPAX@Z
	DD	FLAT:??_C@_0N@ILLLADHA@SimCBEOSB_8F?$AA@
	DD	FLAT:?SimCBEOSB_9F@@YAXKHPAX@Z
	DD	FLAT:??_C@_0N@IKHJGJEH@SimCBEOSB_9F?$AA@
	DD	FLAT:?SimCBEOSB_10F@@YAXKHPAX@Z
	DD	FLAT:??_C@_0O@NLNJHJNE@SimCBEOSB_10F?$AA@
	DD	FLAT:?SimCBEOSB_11F@@YAXKHPAX@Z
	DD	FLAT:??_C@_0O@NKBLBDOD@SimCBEOSB_11F?$AA@
	DD	FLAT:?SimCBEOSB_12F@@YAXKHPAX@Z
	DD	FLAT:??_C@_0O@NIFNKNLK@SimCBEOSB_12F?$AA@
	DD	FLAT:?SimCBEOSB_13F@@YAXKHPAX@Z
	DD	FLAT:??_C@_0O@NJJPMHIN@SimCBEOSB_13F?$AA@
	DD	FLAT:?SimCBEOSB_14F@@YAXKHPAX@Z
	DD	FLAT:??_C@_0O@NMNANBAI@SimCBEOSB_14F?$AA@
	DD	FLAT:?SimCBEOSB_15F@@YAXKHPAX@Z
	DD	FLAT:??_C@_0O@NNBCLLDP@SimCBEOSB_15F?$AA@
	DD	FLAT:?SimCBEOSB_16F@@YAXKHPAX@Z
	DD	FLAT:??_C@_0O@NPFEAFGG@SimCBEOSB_16F?$AA@
	DD	FLAT:?SimCBEOSB_17F@@YAXKHPAX@Z
	DD	FLAT:??_C@_0O@NOJGGPFB@SimCBEOSB_17F?$AA@
	DD	FLAT:?SimCBEOSB_18F@@YAXKHPAX@Z
	DD	FLAT:??_C@_0O@NFMKCIGM@SimCBEOSB_18F?$AA@
	DD	FLAT:?SimCBEOSB_19F@@YAXKHPAX@Z
	DD	FLAT:??_C@_0O@NEAIECFL@SimCBEOSB_19F?$AA@
	DD	FLAT:?SimCBEOSB_20F@@YAXKHPAX@Z
	DD	FLAT:??_C@_0O@MJGMNGDK@SimCBEOSB_20F?$AA@
	DD	FLAT:?SimCBEOSB_GAINUP_T@@YAXKHPAX@Z
	DD	FLAT:??_C@_0BD@CIEGKKIE@SimCBEOSB_GAINUP_T?$AA@
	DD	FLAT:?SimCBEOSB_GAINUP_F@@YAXKHPAX@Z
	DD	FLAT:??_C@_0BD@FALCNKFH@SimCBEOSB_GAINUP_F?$AA@
	DD	FLAT:?SimCBEOSB_GAINDOWN_T@@YAXKHPAX@Z
	DD	FLAT:??_C@_0BF@OMCGBFCM@SimCBEOSB_GAINDOWN_T?$AA@
	DD	FLAT:?SimCBEOSB_GAINDOWN_F@@YAXKHPAX@Z
	DD	FLAT:??_C@_0BF@JENCGFPP@SimCBEOSB_GAINDOWN_F?$AA@
	DD	FLAT:?SimICPTILS@@YAXKHPAX@Z
	DD	FLAT:??_C@_0L@HJNMAGCF@SimICPTILS?$AA@
	DD	FLAT:?SimICPALOW@@YAXKHPAX@Z
	DD	FLAT:??_C@_0L@IACIJFLI@SimICPALOW?$AA@
	DD	FLAT:?SimICPFAck@@YAXKHPAX@Z
	DD	FLAT:??_C@_0L@ICMGFHAO@SimICPFAck?$AA@
	DD	FLAT:?SimICPPrevious@@YAXKHPAX@Z
	DD	FLAT:??_C@_0P@LOHFOEDP@SimICPPrevious?$AA@
	DD	FLAT:?SimICPNext@@YAXKHPAX@Z
	DD	FLAT:??_C@_0L@EAMPGGKJ@SimICPNext?$AA@
	DD	FLAT:?SimICPLink@@YAXKHPAX@Z
	DD	FLAT:??_C@_0L@KFCIFLCN@SimICPLink?$AA@
	DD	FLAT:?SimICPCrus@@YAXKHPAX@Z
	DD	FLAT:??_C@_0L@DCAIMIKK@SimICPCrus?$AA@
	DD	FLAT:?SimICPStpt@@YAXKHPAX@Z
	DD	FLAT:??_C@_0L@DOAJFENI@SimICPStpt?$AA@
	DD	FLAT:?SimICPMark@@YAXKHPAX@Z
	DD	FLAT:??_C@_0L@EIMAAAGG@SimICPMark?$AA@
	DD	FLAT:?SimICPEnter@@YAXKHPAX@Z
	DD	FLAT:??_C@_0M@PIGGHIHD@SimICPEnter?$AA@
	DD	FLAT:?SimICPCom1@@YAXKHPAX@Z
	DD	FLAT:??_C@_0L@EAABJIKH@SimICPCom1?$AA@
	DD	FLAT:?SimICPNav@@YAXKHPAX@Z
	DD	FLAT:??_C@_09NOIPPPJN@SimICPNav?$AA@
	DD	FLAT:?SimICPAA@@YAXKHPAX@Z
	DD	FLAT:??_C@_08BDNPOPHL@SimICPAA?$AA@
	DD	FLAT:?SimICPAG@@YAXKHPAX@Z
	DD	FLAT:??_C@_08EFIFEIPN@SimICPAG?$AA@
	DD	FLAT:?SimHUDScales@@YAXKHPAX@Z
	DD	FLAT:??_C@_0N@HBPOFLHI@SimHUDScales?$AA@
	DD	FLAT:?SimScalesVVVAH@@YAXKHPAX@Z
	DD	FLAT:??_C@_0P@FFKMBKEN@SimScalesVVVAH?$AA@
	DD	FLAT:?SimScalesVAH@@YAXKHPAX@Z
	DD	FLAT:??_C@_0N@EMDPBPII@SimScalesVAH?$AA@
	DD	FLAT:?SimScalesOff@@YAXKHPAX@Z
	DD	FLAT:??_C@_0N@FHCLFONE@SimScalesOff?$AA@
	DD	FLAT:?SimHUDFPM@@YAXKHPAX@Z
	DD	FLAT:??_C@_09OELIGMJN@SimHUDFPM?$AA@
	DD	FLAT:?SimHUDDED@@YAXKHPAX@Z
	DD	FLAT:??_C@_09IFJOHOME@SimHUDDED?$AA@
	DD	FLAT:?SimHUDDEDOff@@YAXKHPAX@Z
	DD	FLAT:??_C@_0N@IMCHOHPK@SimHUDDEDOff?$AA@
	DD	FLAT:?SimHUDDEDPFL@@YAXKHPAX@Z
	DD	FLAT:??_C@_0N@NDHLCKPL@SimHUDDEDPFL?$AA@
	DD	FLAT:?SimHUDDEDDED@@YAXKHPAX@Z
	DD	FLAT:??_C@_0N@MGJPNOGC@SimHUDDEDDED?$AA@
	DD	FLAT:?SimHUDVelocity@@YAXKHPAX@Z
	DD	FLAT:??_C@_0P@GNAFBFLC@SimHUDVelocity?$AA@
	DD	FLAT:?SimHUDVelocityCAS@@YAXKHPAX@Z
	DD	FLAT:??_C@_0BC@OIGKCGDL@SimHUDVelocityCAS?$AA@
	DD	FLAT:?SimHUDVelocityTAS@@YAXKHPAX@Z
	DD	FLAT:??_C@_0BC@CFKEEJBN@SimHUDVelocityTAS?$AA@
	DD	FLAT:?SimHUDVelocityGND@@YAXKHPAX@Z
	DD	FLAT:??_C@_0BC@GJNHHCMH@SimHUDVelocityGND?$AA@
	DD	FLAT:?SimHUDRadar@@YAXKHPAX@Z
	DD	FLAT:??_C@_0M@NMLLGPA@SimHUDRadar?$AA@
	DD	FLAT:?SimHUDAltRadar@@YAXKHPAX@Z
	DD	FLAT:??_C@_0P@CHINNEBG@SimHUDAltRadar?$AA@
	DD	FLAT:?SimHUDAltBaro@@YAXKHPAX@Z
	DD	FLAT:??_C@_0O@NHFGMJKP@SimHUDAltBaro?$AA@
	DD	FLAT:?SimHUDAltAuto@@YAXKHPAX@Z
	DD	FLAT:??_C@_0O@ELAAAPAF@SimHUDAltAuto?$AA@
	DD	FLAT:?OTWStepHudColor@@YAXKHPAX@Z
	DD	FLAT:??_C@_0BA@PCOKIKCB@OTWStepHudColor?$AA@
	DD	FLAT:?SimHUDBrightness@@YAXKHPAX@Z
	DD	FLAT:??_C@_0BB@CGHEOIHB@SimHUDBrightness?$AA@
	DD	FLAT:?SimHUDBrtDay@@YAXKHPAX@Z
	DD	FLAT:??_C@_0N@EILNMCEJ@SimHUDBrtDay?$AA@
	DD	FLAT:?SimHUDBrtAuto@@YAXKHPAX@Z
	DD	FLAT:??_C@_0O@PCGOOPHF@SimHUDBrtAuto?$AA@
	DD	FLAT:?SimHUDBrtNight@@YAXKHPAX@Z
	DD	FLAT:??_C@_0P@HIGLHBAM@SimHUDBrtNight?$AA@
	DD	FLAT:?SimHUDBrightnessUp@@YAXKHPAX@Z
	DD	FLAT:??_C@_0BD@NNLNJBCE@SimHUDBrightnessUp?$AA@
	DD	FLAT:?SimHUDBrightnessDown@@YAXKHPAX@Z
	DD	FLAT:??_C@_0BF@IJNKFOMO@SimHUDBrightnessDown?$AA@
	DD	FLAT:?SimCycleRadioChannel@@YAXKHPAX@Z
	DD	FLAT:??_C@_0BF@IJICHKNN@SimCycleRadioChannel?$AA@
	DD	FLAT:?SimDecRadioChannel@@YAXKHPAX@Z
	DD	FLAT:??_C@_0BD@OPHKPBHK@SimDecRadioChannel?$AA@
	DD	FLAT:?SimToggleRadioVolume@@YAXKHPAX@Z
	DD	FLAT:??_C@_0BF@PCHBOHHP@SimToggleRadioVolume?$AA@
	DD	FLAT:?RadioTankerCommand@@YAXKHPAX@Z
	DD	FLAT:??_C@_0BD@IMFIKPNB@RadioTankerCommand?$AA@
	DD	FLAT:?RadioTowerCommand@@YAXKHPAX@Z
	DD	FLAT:??_C@_0BC@JMDJAAEL@RadioTowerCommand?$AA@
	DD	FLAT:?RadioAWACSCommand@@YAXKHPAX@Z
	DD	FLAT:??_C@_0BC@DACCDBFA@RadioAWACSCommand?$AA@
	DD	FLAT:?RadioWingCommand@@YAXKHPAX@Z
	DD	FLAT:??_C@_0BB@KHGIGMJN@RadioWingCommand?$AA@
	DD	FLAT:?RadioElementCommand@@YAXKHPAX@Z
	DD	FLAT:??_C@_0BE@GMNOOIDN@RadioElementCommand?$AA@
	DD	FLAT:?RadioFlightCommand@@YAXKHPAX@Z
	DD	FLAT:??_C@_0BD@LEMOLOBM@RadioFlightCommand?$AA@
	DD	FLAT:?WingmanClearSix@@YAXKHPAX@Z
	DD	FLAT:??_C@_0BA@EONAOFHM@WingmanClearSix?$AA@
	DD	FLAT:?ElementClearSix@@YAXKHPAX@Z
	DD	FLAT:??_C@_0BA@MMMPIONI@ElementClearSix?$AA@
	DD	FLAT:?FlightClearSix@@YAXKHPAX@Z
	DD	FLAT:??_C@_0P@CGCLGPAE@FlightClearSix?$AA@
	DD	FLAT:?WingmanCheckSix@@YAXKHPAX@Z
	DD	FLAT:??_C@_0BA@OKKCLPHO@WingmanCheckSix?$AA@
	DD	FLAT:?ElementCheckSix@@YAXKHPAX@Z
	DD	FLAT:??_C@_0BA@GILNNENK@ElementCheckSix?$AA@
	DD	FLAT:?FlightCheckSix@@YAXKHPAX@Z
	DD	FLAT:??_C@_0P@ICFJDFAG@FlightCheckSix?$AA@
	DD	FLAT:?WingmanBreakLeft@@YAXKHPAX@Z
	DD	FLAT:??_C@_0BB@DGJMBBP@WingmanBreakLeft?$AA@
	DD	FLAT:?ElementBreakLeft@@YAXKHPAX@Z
	DD	FLAT:??_C@_0BB@NCFALJIF@ElementBreakLeft?$AA@
	DD	FLAT:?FlightBreakLeft@@YAXKHPAX@Z
	DD	FLAT:??_C@_0BA@FNNPMDJL@FlightBreakLeft?$AA@
	DD	FLAT:?WingmanBreakRight@@YAXKHPAX@Z
	DD	FLAT:??_C@_0BC@JHPEGLFN@WingmanBreakRight?$AA@
	DD	FLAT:?ElementBreakRight@@YAXKHPAX@Z
	DD	FLAT:??_C@_0BC@IHPPCIHP@ElementBreakRight?$AA@
	DD	FLAT:?FlightBreakRight@@YAXKHPAX@Z
	DD	FLAT:??_C@_0BB@HNHPJKGG@FlightBreakRight?$AA@
	DD	FLAT:?WingmanPince@@YAXKHPAX@Z
	DD	FLAT:??_C@_0N@HLLKPKPE@WingmanPince?$AA@
	DD	FLAT:?ElementPince@@YAXKHPAX@Z
	DD	FLAT:??_C@_0N@KCBHPKMM@ElementPince?$AA@
	DD	FLAT:?FlightPince@@YAXKHPAX@Z
	DD	FLAT:??_C@_0M@BOCNNEPO@FlightPince?$AA@
	DD	FLAT:?WingmanPosthole@@YAXKHPAX@Z
	DD	FLAT:??_C@_0BA@GLANMADK@WingmanPosthole?$AA@
	DD	FLAT:?ElementPosthole@@YAXKHPAX@Z
	DD	FLAT:??_C@_0BA@OJBCKLJO@ElementPosthole?$AA@
	DD	FLAT:?FlightPosthole@@YAXKHPAX@Z
	DD	FLAT:??_C@_0P@DPGEKEC@FlightPosthole?$AA@
	DD	FLAT:?WingmanChainsaw@@YAXKHPAX@Z
	DD	FLAT:??_C@_0BA@FOCPNFDC@WingmanChainsaw?$AA@
	DD	FLAT:?ElementChainsaw@@YAXKHPAX@Z
	DD	FLAT:??_C@_0BA@NMDALOJG@ElementChainsaw?$AA@
	DD	FLAT:?FlightChainsaw@@YAXKHPAX@Z
	DD	FLAT:??_C@_0P@DGNEFPEK@FlightChainsaw?$AA@
	DD	FLAT:?WingmanFlex@@YAXKHPAX@Z
	DD	FLAT:??_C@_0M@ELBEHJHG@WingmanFlex?$AA@
	DD	FLAT:?ElementFlex@@YAXKHPAX@Z
	DD	FLAT:??_C@_0M@DAEOJNJP@ElementFlex?$AA@
	DD	FLAT:?FlightFlex@@YAXKHPAX@Z
	DD	FLAT:??_C@_0L@GMODLFCO@FlightFlex?$AA@
	DD	FLAT:?WingmanGoShooterMode@@YAXKHPAX@Z
	DD	FLAT:??_C@_0BF@DDLFGONI@WingmanGoShooterMode?$AA@
	DD	FLAT:?ElementGoShooterMode@@YAXKHPAX@Z
	DD	FLAT:??_C@_0BF@EEPKDJAI@ElementGoShooterMode?$AA@
	DD	FLAT:?FlightGoShooterMode@@YAXKHPAX@Z
	DD	FLAT:??_C@_0BE@GMEGOOBH@FlightGoShooterMode?$AA@
	DD	FLAT:?WingmanGoCoverMode@@YAXKHPAX@Z
	DD	FLAT:??_C@_0BD@JDGMPBAL@WingmanGoCoverMode?$AA@
	DD	FLAT:?ElementGoCoverMode@@YAXKHPAX@Z
	DD	FLAT:??_C@_0BD@EGBMLLKM@ElementGoCoverMode?$AA@
	DD	FLAT:?FlightGoCoverMode@@YAXKHPAX@Z
	DD	FLAT:??_C@_0BC@CCINJDNO@FlightGoCoverMode?$AA@
	DD	FLAT:?WingmanSearchGround@@YAXKHPAX@Z
	DD	FLAT:??_C@_0BE@JCCMPBMA@WingmanSearchGround?$AA@
	DD	FLAT:?ElementSearchGround@@YAXKHPAX@Z
	DD	FLAT:??_C@_0BE@NKELLHMB@ElementSearchGround?$AA@
	DD	FLAT:?FlightSearchGround@@YAXKHPAX@Z
	DD	FLAT:??_C@_0BD@GECEDGPJ@FlightSearchGround?$AA@
	DD	FLAT:?WingmanSearchAir@@YAXKHPAX@Z
	DD	FLAT:??_C@_0BB@HLJMFPKD@WingmanSearchAir?$AA@
	DD	FLAT:?ElementSearchAir@@YAXKHPAX@Z
	DD	FLAT:??_C@_0BB@KKKFCHDJ@ElementSearchAir?$AA@
	DD	FLAT:?FlightSearchAir@@YAXKHPAX@Z
	DD	FLAT:??_C@_0BA@CFCKFNCH@FlightSearchAir?$AA@
	DD	FLAT:?WingmanResumeNormal@@YAXKHPAX@Z
	DD	FLAT:??_C@_0BE@OMLDDFJF@WingmanResumeNormal?$AA@
	DD	FLAT:?ElementResumeNormal@@YAXKHPAX@Z
	DD	FLAT:??_C@_0BE@KENEHDJE@ElementResumeNormal?$AA@
	DD	FLAT:?FlightResumeNormal@@YAXKHPAX@Z
	DD	FLAT:??_C@_0BD@BKLLPCKM@FlightResumeNormal?$AA@
	DD	FLAT:?WingmanRejoin@@YAXKHPAX@Z
	DD	FLAT:??_C@_0O@BHMEPLJI@WingmanRejoin?$AA@
	DD	FLAT:?ElementRejoin@@YAXKHPAX@Z
	DD	FLAT:??_C@_0O@DPBPOOAG@ElementRejoin?$AA@
	DD	FLAT:?FlightRejoin@@YAXKHPAX@Z
	DD	FLAT:??_C@_0N@PHHEIFKI@FlightRejoin?$AA@
	DD	FLAT:?WingmanDesignateTarget@@YAXKHPAX@Z
	DD	FLAT:??_C@_0BH@POLEHCCL@WingmanDesignateTarget?$AA@
	DD	FLAT:?ElementDesignateTarget@@YAXKHPAX@Z
	DD	FLAT:??_C@_0BH@IKIDAECM@ElementDesignateTarget?$AA@
	DD	FLAT:?FlightDesignateTarget@@YAXKHPAX@Z
	DD	FLAT:??_C@_0BG@FPGOGFHJ@FlightDesignateTarget?$AA@
	DD	FLAT:?WingmanDesignateGroup@@YAXKHPAX@Z
	DD	FLAT:??_C@_0BG@BPGHGLJC@WingmanDesignateGroup?$AA@
	DD	FLAT:?ElementDesignateGroup@@YAXKHPAX@Z
	DD	FLAT:??_C@_0BG@JJMDPGBB@ElementDesignateGroup?$AA@
	DD	FLAT:?FlightDesignateGroup@@YAXKHPAX@Z
	DD	FLAT:??_C@_0BF@BEODEHDD@FlightDesignateGroup?$AA@
	DD	FLAT:?WingmanWeaponsHold@@YAXKHPAX@Z
	DD	FLAT:??_C@_0BD@DAENFIOI@WingmanWeaponsHold?$AA@
	DD	FLAT:?ElementWeaponsHold@@YAXKHPAX@Z
	DD	FLAT:??_C@_0BD@OFDNBCEP@ElementWeaponsHold?$AA@
	DD	FLAT:?FlightWeaponsHold@@YAXKHPAX@Z
	DD	FLAT:??_C@_0BC@IBKMDKDN@FlightWeaponsHold?$AA@
	DD	FLAT:?WingmanWeaponsFree@@YAXKHPAX@Z
	DD	FLAT:??_C@_0BD@DLMEGDAF@WingmanWeaponsFree?$AA@
	DD	FLAT:?ElementWeaponsFree@@YAXKHPAX@Z
	DD	FLAT:??_C@_0BD@OOLECJKC@ElementWeaponsFree?$AA@
	DD	FLAT:?FlightWeaponsFree@@YAXKHPAX@Z
	DD	FLAT:??_C@_0BC@IKCFABNA@FlightWeaponsFree?$AA@
	DD	FLAT:?WingmanWedge@@YAXKHPAX@Z
	DD	FLAT:??_C@_0N@MLPLGPPF@WingmanWedge?$AA@
	DD	FLAT:?ElementWedge@@YAXKHPAX@Z
	DD	FLAT:??_C@_0N@BCFGGPMN@ElementWedge?$AA@
	DD	FLAT:?FlightWedge@@YAXKHPAX@Z
	DD	FLAT:??_C@_0M@KOGMEBPP@FlightWedge?$AA@
	DD	FLAT:?WingmanTrail@@YAXKHPAX@Z
	DD	FLAT:??_C@_0N@HDCNDALI@WingmanTrail?$AA@
	DD	FLAT:?ElementTrail@@YAXKHPAX@Z
	DD	FLAT:??_C@_0N@KKIADAIA@ElementTrail?$AA@
	DD	FLAT:?FlightTrail@@YAXKHPAX@Z
	DD	FLAT:??_C@_0M@BGLKBOLC@FlightTrail?$AA@
	DD	FLAT:?WingmanResCell@@YAXKHPAX@Z
	DD	FLAT:??_C@_0P@FODBABKG@WingmanResCell?$AA@
	DD	FLAT:?ElementResCell@@YAXKHPAX@Z
	DD	FLAT:??_C@_0P@EJKOGEPA@ElementResCell?$AA@
	DD	FLAT:?FlightResCell@@YAXKHPAX@Z
	DD	FLAT:??_C@_0O@HIAIIBHE@FlightResCell?$AA@
	DD	FLAT:?WingmanBox@@YAXKHPAX@Z
	DD	FLAT:??_C@_0L@DMDLINDJ@WingmanBox?$AA@
	DD	FLAT:?ElementBox@@YAXKHPAX@Z
	DD	FLAT:??_C@_0L@NHPEMKPD@ElementBox?$AA@
	DD	FLAT:?FlightBox@@YAXKHPAX@Z
	DD	FLAT:??_C@_09MJLGHPEI@FlightBox?$AA@
	DD	FLAT:?WingmanArrow@@YAXKHPAX@Z
	DD	FLAT:??_C@_0N@MPCBOMMJ@WingmanArrow?$AA@
	DD	FLAT:?ElementArrow@@YAXKHPAX@Z
	DD	FLAT:??_C@_0N@BGIMOMPB@ElementArrow?$AA@
	DD	FLAT:?FlightArrow@@YAXKHPAX@Z
	DD	FLAT:??_C@_0M@KKLGMCMD@FlightArrow?$AA@
	DD	FLAT:?WingmanKickout@@YAXKHPAX@Z
	DD	FLAT:??_C@_0P@PGFDMHEO@WingmanKickout?$AA@
	DD	FLAT:?ElementKickout@@YAXKHPAX@Z
	DD	FLAT:??_C@_0P@OBMMKCBI@ElementKickout?$AA@
	DD	FLAT:?FlightKickout@@YAXKHPAX@Z
	DD	FLAT:??_C@_0O@NAGKEHJM@FlightKickout?$AA@
	DD	FLAT:?WingmanCloseup@@YAXKHPAX@Z
	DD	FLAT:??_C@_0P@FLANMKAE@WingmanCloseup?$AA@
	DD	FLAT:?ElementCloseup@@YAXKHPAX@Z
	DD	FLAT:??_C@_0P@EMJCKPFC@ElementCloseup?$AA@
	DD	FLAT:?FlightCloseup@@YAXKHPAX@Z
	DD	FLAT:??_C@_0O@HNDEEKNG@FlightCloseup?$AA@
	DD	FLAT:?WingmanToggleSide@@YAXKHPAX@Z
	DD	FLAT:??_C@_0BC@GGCLEKHH@WingmanToggleSide?$AA@
	DD	FLAT:?ElementToggleSide@@YAXKHPAX@Z
	DD	FLAT:??_C@_0BC@HGCAAJFF@ElementToggleSide?$AA@
	DD	FLAT:?FlightToggleSide@@YAXKHPAX@Z
	DD	FLAT:??_C@_0BB@IMKALLEM@FlightToggleSide?$AA@
	DD	FLAT:?WingmanIncreaseRelAlt@@YAXKHPAX@Z
	DD	FLAT:??_C@_0BG@DBJKOHKB@WingmanIncreaseRelAlt?$AA@
	DD	FLAT:?ElementIncreaseRelAlt@@YAXKHPAX@Z
	DD	FLAT:??_C@_0BG@LHDOHKCC@ElementIncreaseRelAlt?$AA@
	DD	FLAT:?FlightIncreaseRelAlt@@YAXKHPAX@Z
	DD	FLAT:??_C@_0BF@DKBOMLAA@FlightIncreaseRelAlt?$AA@
	DD	FLAT:?WingmanDecreaseRelAlt@@YAXKHPAX@Z
	DD	FLAT:??_C@_0BG@ICKMKOEA@WingmanDecreaseRelAlt?$AA@
	DD	FLAT:?ElementDecreaseRelAlt@@YAXKHPAX@Z
	DD	FLAT:??_C@_0BG@EAIDDMD@ElementDecreaseRelAlt?$AA@
	DD	FLAT:?FlightDecreaseRelAlt@@YAXKHPAX@Z
	DD	FLAT:??_C@_0BF@IJCIICOB@FlightDecreaseRelAlt?$AA@
	DD	FLAT:?WingmanGiveBra@@YAXKHPAX@Z
	DD	FLAT:??_C@_0P@CNHFHIDK@WingmanGiveBra?$AA@
	DD	FLAT:?ElementGiveBra@@YAXKHPAX@Z
	DD	FLAT:??_C@_0P@DKOKBNGM@ElementGiveBra?$AA@
	DD	FLAT:?FlightGiveBra@@YAXKHPAX@Z
	DD	FLAT:??_C@_0O@LEMPIOI@FlightGiveBra?$AA@
	DD	FLAT:?WingmanGiveStatus@@YAXKHPAX@Z
	DD	FLAT:??_C@_0BC@ELPANFAE@WingmanGiveStatus?$AA@
	DD	FLAT:?ElementGiveStatus@@YAXKHPAX@Z
	DD	FLAT:??_C@_0BC@FLPLJGCG@ElementGiveStatus?$AA@
	DD	FLAT:?FlightGiveStatus@@YAXKHPAX@Z
	DD	FLAT:??_C@_0BB@KBHLCEDP@FlightGiveStatus?$AA@
	DD	FLAT:?WingmanGiveDamageReport@@YAXKHPAX@Z
	DD	FLAT:??_C@_0BI@OEFPBHMG@WingmanGiveDamageReport?$AA@
	DD	FLAT:?ElementGiveDamageReport@@YAXKHPAX@Z
	DD	FLAT:??_C@_0BI@HKEPLFBD@ElementGiveDamageReport?$AA@
	DD	FLAT:?FlightGiveDamageReport@@YAXKHPAX@Z
	DD	FLAT:??_C@_0BH@GBJLPNAJ@FlightGiveDamageReport?$AA@
	DD	FLAT:?WingmanGiveFuelState@@YAXKHPAX@Z
	DD	FLAT:??_C@_0BF@OLEBBMFO@WingmanGiveFuelState?$AA@
	DD	FLAT:?ElementGiveFuelState@@YAXKHPAX@Z
	DD	FLAT:??_C@_0BF@JMAOELIO@ElementGiveFuelState?$AA@
	DD	FLAT:?FlightGiveFuelState@@YAXKHPAX@Z
	DD	FLAT:??_C@_0BE@LELCJMJB@FlightGiveFuelState?$AA@
	DD	FLAT:?WingmanGiveWeaponsCheck@@YAXKHPAX@Z
	DD	FLAT:??_C@_0BI@JNPMAPAP@WingmanGiveWeaponsCheck?$AA@
	DD	FLAT:?ElementGiveWeaponsCheck@@YAXKHPAX@Z
	DD	FLAT:??_C@_0BI@DOMKNNK@ElementGiveWeaponsCheck?$AA@
	DD	FLAT:?FlightGiveWeaponsCheck@@YAXKHPAX@Z
	DD	FLAT:??_C@_0BH@BIDIOFMA@FlightGiveWeaponsCheck?$AA@
	DD	FLAT:?WingmanRTB@@YAXKHPAX@Z
	DD	FLAT:??_C@_0L@GBLFAOKO@WingmanRTB?$AA@
	DD	FLAT:?ElementRTB@@YAXKHPAX@Z
	DD	FLAT:??_C@_0L@IKHKEJGE@ElementRTB?$AA@
	DD	FLAT:?FlightRTB@@YAXKHPAX@Z
	DD	FLAT:??_C@_09JEDIPMNP@FlightRTB?$AA@
	DD	FLAT:?SimSpeedyGonzalesUp@@YAXKHPAX@Z
	DD	FLAT:??_C@_0BE@KKNOEJCJ@SimSpeedyGonzalesUp?$AA@
	DD	FLAT:?SimSpeedyGonzalesDown@@YAXKHPAX@Z
	DD	FLAT:??_C@_0BG@LEHMANAG@SimSpeedyGonzalesDown?$AA@
	DD	FLAT:?ATCRequestClearance@@YAXKHPAX@Z
	DD	FLAT:??_C@_0BE@FEHNMMGK@ATCRequestClearance?$AA@
	DD	FLAT:?ATCRequestEmergencyClearance@@YAXKHPAX@Z
	DD	FLAT:??_C@_0BN@JIGKNCAE@ATCRequestEmergencyClearance?$AA@
	DD	FLAT:?ATCRequestTakeoff@@YAXKHPAX@Z
	DD	FLAT:??_C@_0BC@EEDODPGI@ATCRequestTakeoff?$AA@
	DD	FLAT:?ATCRequestTaxi@@YAXKHPAX@Z
	DD	FLAT:??_C@_0P@ECFMEIGO@ATCRequestTaxi?$AA@
	DD	FLAT:?ATCTaxiing@@YAXKHPAX@Z
	DD	FLAT:??_C@_0L@HFHLBCPC@ATCTaxiing?$AA@
	DD	FLAT:?ATCReadyToGo@@YAXKHPAX@Z
	DD	FLAT:??_C@_0N@DNKBILPJ@ATCReadyToGo?$AA@
	DD	FLAT:?ATCRotate@@YAXKHPAX@Z
	DD	FLAT:??_C@_09GMPDOCHF@ATCRotate?$AA@
	DD	FLAT:?ATCGearUp@@YAXKHPAX@Z
	DD	FLAT:??_C@_09BMBIFIDK@ATCGearUp?$AA@
	DD	FLAT:?ATCGearDown@@YAXKHPAX@Z
	DD	FLAT:??_C@_0M@LPCDNKKA@ATCGearDown?$AA@
	DD	FLAT:?ATCBrake@@YAXKHPAX@Z
	DD	FLAT:??_C@_08GKIAFNEA@ATCBrake?$AA@
	DD	FLAT:?ATCAbortApproach@@YAXKHPAX@Z
	DD	FLAT:??_C@_0BB@CKFLGPDA@ATCAbortApproach?$AA@
	DD	FLAT:?FACCheckIn@@YAXKHPAX@Z
	DD	FLAT:??_C@_0L@MNBABKHP@FACCheckIn?$AA@
	DD	FLAT:?FACWilco@@YAXKHPAX@Z
	DD	FLAT:??_C@_08HIAHFLJC@FACWilco?$AA@
	DD	FLAT:?FACUnable@@YAXKHPAX@Z
	DD	FLAT:??_C@_09MOADFGMN@FACUnable?$AA@
	DD	FLAT:?FACReady@@YAXKHPAX@Z
	DD	FLAT:??_C@_08GIHFMKP@FACReady?$AA@
	DD	FLAT:?FACIn@@YAXKHPAX@Z
	DD	FLAT:??_C@_05PPDLMBGB@FACIn?$AA@
	DD	FLAT:?FACOut@@YAXKHPAX@Z
	DD	FLAT:??_C@_06EEABMFLA@FACOut?$AA@
	DD	FLAT:?FACRequestMark@@YAXKHPAX@Z
	DD	FLAT:??_C@_0P@GJBNAHNC@FACRequestMark?$AA@
	DD	FLAT:?FACRequestTarget@@YAXKHPAX@Z
	DD	FLAT:??_C@_0BB@JALFIILP@FACRequestTarget?$AA@
	DD	FLAT:?FACRequestBDA@@YAXKHPAX@Z
	DD	FLAT:??_C@_0O@FDCLGFCO@FACRequestBDA?$AA@
	DD	FLAT:?FACRequestLocation@@YAXKHPAX@Z
	DD	FLAT:??_C@_0BD@NCFKFEKI@FACRequestLocation?$AA@
	DD	FLAT:?FACRequestTACAN@@YAXKHPAX@Z
	DD	FLAT:??_C@_0BA@JOBLOMNB@FACRequestTACAN?$AA@
	DD	FLAT:?TankerRequestFuel@@YAXKHPAX@Z
	DD	FLAT:??_C@_0BC@CPLMIKHH@TankerRequestFuel?$AA@
	DD	FLAT:?TankerReadyForGas@@YAXKHPAX@Z
	DD	FLAT:??_C@_0BC@MPCHIJEK@TankerReadyForGas?$AA@
	DD	FLAT:?TankerDoneRefueling@@YAXKHPAX@Z
	DD	FLAT:??_C@_0BE@LKELKNLI@TankerDoneRefueling?$AA@
	DD	FLAT:?TankerBreakaway@@YAXKHPAX@Z
	DD	FLAT:??_C@_0BA@DKJLGOJF@TankerBreakaway?$AA@
	DD	FLAT:?AWACSRequestPicture@@YAXKHPAX@Z
	DD	FLAT:??_C@_0BE@LACPOEGP@AWACSRequestPicture?$AA@
	DD	FLAT:?AWACSRequestTanker@@YAXKHPAX@Z
	DD	FLAT:??_C@_0BD@DGHEFONL@AWACSRequestTanker?$AA@
	DD	FLAT:?AWACSWilco@@YAXKHPAX@Z
	DD	FLAT:??_C@_0L@PIBNFDLE@AWACSWilco?$AA@
	DD	FLAT:?AWACSUnable@@YAXKHPAX@Z
	DD	FLAT:??_C@_0M@BMIOMJDI@AWACSUnable?$AA@
	DD	FLAT:?AWACSRequestHelp@@YAXKHPAX@Z
	DD	FLAT:??_C@_0BB@KOAFFLIE@AWACSRequestHelp?$AA@
	DD	FLAT:?AWACSRequestRelief@@YAXKHPAX@Z
	DD	FLAT:??_C@_0BD@DAFCGFEJ@AWACSRequestRelief?$AA@
	DD	FLAT:?TimeAccelerate@@YAXKHPAX@Z
	DD	FLAT:??_C@_0P@HIEKACCF@TimeAccelerate?$AA@
	DD	FLAT:?TimeAccelerateMaxToggle@@YAXKHPAX@Z
	DD	FLAT:??_C@_0BI@CIDMEPLC@TimeAccelerateMaxToggle?$AA@
	DD	FLAT:?TimeAccelerateInc@@YAXKHPAX@Z
	DD	FLAT:??_C@_0BC@HADMIHIG@TimeAccelerateInc?$AA@
	DD	FLAT:?TimeAccelerateDec@@YAXKHPAX@Z
	DD	FLAT:??_C@_0BC@IOADLALK@TimeAccelerateDec?$AA@
	DD	FLAT:?SimFuelDump@@YAXKHPAX@Z
	DD	FLAT:??_C@_0M@LBGNFAKJ@SimFuelDump?$AA@
	DD	FLAT:?SimCycleDebugLabels@@YAXKHPAX@Z
	DD	FLAT:??_C@_0BE@IMFMEMKK@SimCycleDebugLabels?$AA@
	DD	FLAT:?AFABFull@@YAXKHPAX@Z
	DD	FLAT:??_C@_08JMNGAJHN@AFABFull?$AA@
	DD	FLAT:?BombRippleIncrement@@YAXKHPAX@Z
	DD	FLAT:??_C@_0BE@FMKHHFCL@BombRippleIncrement?$AA@
	DD	FLAT:?BombIntervalIncrement@@YAXKHPAX@Z
	DD	FLAT:??_C@_0BG@HPFHKBC@BombIntervalIncrement?$AA@
	DD	FLAT:?BombRippleDecrement@@YAXKHPAX@Z
	DD	FLAT:??_C@_0BE@CLAMGAEG@BombRippleDecrement?$AA@
	DD	FLAT:?BombIntervalDecrement@@YAXKHPAX@Z
	DD	FLAT:??_C@_0BG@HAFOGPHP@BombIntervalDecrement?$AA@
	DD	FLAT:?BombPairRelease@@YAXKHPAX@Z
	DD	FLAT:??_C@_0BA@IKOMNPFP@BombPairRelease?$AA@
	DD	FLAT:?BombSGLRelease@@YAXKHPAX@Z
	DD	FLAT:??_C@_0P@JFPMGLBL@BombSGLRelease?$AA@
	DD	FLAT:?BombBurstIncrement@@YAXKHPAX@Z
	DD	FLAT:??_C@_0BD@PGJHCAAN@BombBurstIncrement?$AA@
	DD	FLAT:?BombBurstDecrement@@YAXKHPAX@Z
	DD	FLAT:??_C@_0BD@IBDMDFGA@BombBurstDecrement?$AA@
	DD	FLAT:?BreakToggle@@YAXKHPAX@Z
	DD	FLAT:??_C@_0M@PFPHKEJJ@BreakToggle?$AA@
	DD	FLAT:?SimICPCom2@@YAXKHPAX@Z
	DD	FLAT:??_C@_0L@GLCMMLGE@SimICPCom2?$AA@
	DD	FLAT:?SimToggleDropPattern@@YAXKHPAX@Z
	DD	FLAT:??_C@_0BF@HCPMJMHL@SimToggleDropPattern?$AA@
	DD	FLAT:?KneeboardTogglePage@@YAXKHPAX@Z
	DD	FLAT:??_C@_0BE@DEEBAOPI@KneeboardTogglePage?$AA@
	DD	FLAT:?ToggleNVGMode@@YAXKHPAX@Z
	DD	FLAT:??_C@_0O@DLFHFKMJ@ToggleNVGMode?$AA@
	DD	FLAT:?ToggleSmoke@@YAXKHPAX@Z
	DD	FLAT:??_C@_0M@PJHNIKBM@ToggleSmoke?$AA@
	DD	FLAT:?WingmanSpread@@YAXKHPAX@Z
	DD	FLAT:??_C@_0O@CJHJOGBB@WingmanSpread?$AA@
	DD	FLAT:?ElementSpread@@YAXKHPAX@Z
	DD	FLAT:??_C@_0O@BKCPDIP@ElementSpread?$AA@
	DD	FLAT:?FlightSpread@@YAXKHPAX@Z
	DD	FLAT:??_C@_0N@MJMJJICB@FlightSpread?$AA@
	DD	FLAT:?WingmanStack@@YAXKHPAX@Z
	DD	FLAT:??_C@_0N@KDLOOGLB@WingmanStack?$AA@
	DD	FLAT:?ElementStack@@YAXKHPAX@Z
	DD	FLAT:??_C@_0N@HKBDOGIJ@ElementStack?$AA@
	DD	FLAT:?FlightStack@@YAXKHPAX@Z
	DD	FLAT:??_C@_0M@MGCJMILL@FlightStack?$AA@
	DD	FLAT:?WingmanLadder@@YAXKHPAX@Z
	DD	FLAT:??_C@_0O@DMOIMDEE@WingmanLadder?$AA@
	DD	FLAT:?ElementLadder@@YAXKHPAX@Z
	DD	FLAT:??_C@_0O@BEDDNGNK@ElementLadder?$AA@
	DD	FLAT:?FlightLadder@@YAXKHPAX@Z
	DD	FLAT:??_C@_0N@NMFILNHE@FlightLadder?$AA@
	DD	FLAT:?WingmanFluid@@YAXKHPAX@Z
	DD	FLAT:??_C@_0N@PFEBPAAL@WingmanFluid?$AA@
	DD	FLAT:?ElementFluid@@YAXKHPAX@Z
	DD	FLAT:??_C@_0N@CMOMPADD@ElementFluid?$AA@
	DD	FLAT:?FlightFluid@@YAXKHPAX@Z
	DD	FLAT:??_C@_0M@JANGNOAB@FlightFluid?$AA@
	DD	FLAT:?SimOpenChatBox@@YAXKHPAX@Z
	DD	FLAT:??_C@_0P@IGOHOFED@SimOpenChatBox?$AA@
	DD	FLAT:?ExtinguishMasterCaution@@YAXKHPAX@Z
	DD	FLAT:??_C@_0BI@FLBCJEFG@ExtinguishMasterCaution?$AA@
	DD	FLAT:?SoundOff@@YAXKHPAX@Z
	DD	FLAT:??_C@_08HHEFHAG@SoundOff?$AA@
	DD	FLAT:?SimToggleExtLights@@YAXKHPAX@Z
	DD	FLAT:??_C@_0BD@PCFEOOP@SimToggleExtLights?$AA@
	DD	FLAT:?IncreaseAlow@@YAXKHPAX@Z
	DD	FLAT:??_C@_0N@IIOAFCEL@IncreaseAlow?$AA@
	DD	FLAT:?DecreaseAlow@@YAXKHPAX@Z
	DD	FLAT:??_C@_0N@LOFOJGDL@DecreaseAlow?$AA@
	DD	FLAT:?SaveCockpitDefaults@@YAXKHPAX@Z
	DD	FLAT:??_C@_0BE@KJOIDIDL@SaveCockpitDefaults?$AA@
	DD	FLAT:?LoadCockpitDefaults@@YAXKHPAX@Z
	DD	FLAT:??_C@_0BE@OJOHGIJG@LoadCockpitDefaults?$AA@
	DD	FLAT:?SimStepMasterArm@@YAXKHPAX@Z
	DD	FLAT:??_C@_0BB@HPGCGMDA@SimStepMasterArm?$AA@
	DD	FLAT:?SimArmMasterArm@@YAXKHPAX@Z
	DD	FLAT:??_C@_0BA@KLJFCJMO@SimArmMasterArm?$AA@
	DD	FLAT:?SimSafeMasterArm@@YAXKHPAX@Z
	DD	FLAT:??_C@_0BB@HOHFMDIA@SimSafeMasterArm?$AA@
	DD	FLAT:?SimSimMasterArm@@YAXKHPAX@Z
	DD	FLAT:??_C@_0BA@CEEHDKN@SimSimMasterArm?$AA@
	DD	FLAT:?SimSetBubbleSize@@YAXKHPAX@Z
	DD	FLAT:??_C@_0BB@ICMAHOB@SimSetBubbleSize?$AA@
	DD	FLAT:?SimHookToggle@@YAXKHPAX@Z
	DD	FLAT:??_C@_0O@PCBFDJIL@SimHookToggle?$AA@
	DD	FLAT:?SimHookUp@@YAXKHPAX@Z
	DD	FLAT:??_C@_09MJDDKLPF@SimHookUp?$AA@
	DD	FLAT:?SimHookDown@@YAXKHPAX@Z
	DD	FLAT:??_C@_0M@NHPFGHKM@SimHookDown?$AA@
	DD	FLAT:?SimThrottleIdleDetent@@YAXKHPAX@Z
	DD	FLAT:??_C@_0BG@OABLOGHL@SimThrottleIdleDetent?$AA@
	DD	FLAT:?SimJfsStart@@YAXKHPAX@Z
	DD	FLAT:??_C@_0M@FJADNAPO@SimJfsStart?$AA@
	DD	FLAT:?SimEpuToggle@@YAXKHPAX@Z
	DD	FLAT:??_C@_0N@PMGMEGML@SimEpuToggle?$AA@
	DD	FLAT:?SimEpuOff@@YAXKHPAX@Z
	DD	FLAT:??_C@_09GFNBCDCP@SimEpuOff?$AA@
	DD	FLAT:?SimEpuAuto@@YAXKHPAX@Z
	DD	FLAT:??_C@_0L@KLOPKKBM@SimEpuAuto?$AA@
	DD	FLAT:?SimEpuOn@@YAXKHPAX@Z
	DD	FLAT:??_C@_08NPCKHDN@SimEpuOn?$AA@
	DD	FLAT:?AFRudderTrimLeft@@YAXKHPAX@Z
	DD	FLAT:??_C@_0BB@BCJABFDM@AFRudderTrimLeft?$AA@
	DD	FLAT:?AFRudderTrimRight@@YAXKHPAX@Z
	DD	FLAT:??_C@_0BC@DFICODPL@AFRudderTrimRight?$AA@
	DD	FLAT:?AFAileronTrimLeft@@YAXKHPAX@Z
	DD	FLAT:??_C@_0BC@POJAFAL@AFAileronTrimLeft?$AA@
	DD	FLAT:?AFAileronTrimRight@@YAXKHPAX@Z
	DD	FLAT:??_C@_0BD@INCCDPOE@AFAileronTrimRight?$AA@
	DD	FLAT:?AFElevatorTrimUp@@YAXKHPAX@Z
	DD	FLAT:??_C@_0BB@JMOBNDOD@AFElevatorTrimUp?$AA@
	DD	FLAT:?AFElevatorTrimDown@@YAXKHPAX@Z
	DD	FLAT:??_C@_0BD@JFLDHOKH@AFElevatorTrimDown?$AA@
	DD	FLAT:?AFResetTrim@@YAXKHPAX@Z
	DD	FLAT:??_C@_0M@EKBGNNIC@AFResetTrim?$AA@
	DD	FLAT:?AFAlternateGear@@YAXKHPAX@Z
	DD	FLAT:??_C@_0BA@LNBGHFPB@AFAlternateGear?$AA@
	DD	FLAT:?AFAlternateGearReset@@YAXKHPAX@Z
	DD	FLAT:??_C@_0BF@MCEMNPO@AFAlternateGearReset?$AA@
	DD	FLAT:?SimFLIRToggle@@YAXKHPAX@Z
	DD	FLAT:??_C@_0O@GPGABJCB@SimFLIRToggle?$AA@
	DD	FLAT:?SimToggleTFR@@YAXKHPAX@Z
	DD	FLAT:??_C@_0N@FLHLLNKH@SimToggleTFR?$AA@
	DD	FLAT:?SimMainPowerInc@@YAXKHPAX@Z
	DD	FLAT:??_C@_0BA@DDKHNBHF@SimMainPowerInc?$AA@
	DD	FLAT:?SimMainPowerDec@@YAXKHPAX@Z
	DD	FLAT:??_C@_0BA@MNJIOGEJ@SimMainPowerDec?$AA@
	DD	FLAT:?SimMainPowerOff@@YAXKHPAX@Z
	DD	FLAT:??_C@_0BA@GFKICLFE@SimMainPowerOff?$AA@
	DD	FLAT:?SimMainPowerBatt@@YAXKHPAX@Z
	DD	FLAT:??_C@_0BB@FNNFAKCC@SimMainPowerBatt?$AA@
	DD	FLAT:?SimMainPowerMain@@YAXKHPAX@Z
	DD	FLAT:??_C@_0BB@HLFGFHAL@SimMainPowerMain?$AA@
	DD	FLAT:?AFFullFlap@@YAXKHPAX@Z
	DD	FLAT:??_C@_0L@KKGLMOKB@AFFullFlap?$AA@
	DD	FLAT:?AFNoFlap@@YAXKHPAX@Z
	DD	FLAT:??_C@_08BCBCLJGH@AFNoFlap?$AA@
	DD	FLAT:?AFIncFlap@@YAXKHPAX@Z
	DD	FLAT:??_C@_09GDNHCPKD@AFIncFlap?$AA@
	DD	FLAT:?AFDecFlap@@YAXKHPAX@Z
	DD	FLAT:??_C@_09PKNFGOII@AFDecFlap?$AA@
	DD	FLAT:?AFFullLEF@@YAXKHPAX@Z
	DD	FLAT:??_C@_09LDGDKADM@AFFullLEF?$AA@
	DD	FLAT:?AFNoLEF@@YAXKHPAX@Z
	DD	FLAT:??_C@_07HHLBGJAL@AFNoLEF?$AA@
	DD	FLAT:?AFIncLEF@@YAXKHPAX@Z
	DD	FLAT:??_C@_08DKCCEEP@AFIncLEF?$AA@
	DD	FLAT:?AFDecLEF@@YAXKHPAX@Z
	DD	FLAT:??_C@_08ILCLFEM@AFDecLEF?$AA@
	DD	FLAT:?AFDragChute@@YAXKHPAX@Z
	DD	FLAT:??_C@_0M@DNFIMEOK@AFDragChute?$AA@
	DD	FLAT:?AFCanopyToggle@@YAXKHPAX@Z
	DD	FLAT:??_C@_0P@MKIJCPAP@AFCanopyToggle?$AA@
	DD	FLAT:?Sim3DCkptHelpOnOff@@YAXKHPAX@Z
	DD	FLAT:??_C@_0BD@BEEPBPMK@Sim3DCkptHelpOnOff?$AA@
	DD	FLAT:?SimICPIFF@@YAXKHPAX@Z
	DD	FLAT:??_C@_09KBBMKBLC@SimICPIFF?$AA@
	DD	FLAT:?SimICPLIST@@YAXKHPAX@Z
	DD	FLAT:??_C@_0L@HBHHKIOM@SimICPLIST?$AA@
	DD	FLAT:?SimICPTHREE@@YAXKHPAX@Z
	DD	FLAT:??_C@_0M@FDHOGFNP@SimICPTHREE?$AA@
	DD	FLAT:?SimICPSIX@@YAXKHPAX@Z
	DD	FLAT:??_C@_09EBKFGOKL@SimICPSIX?$AA@
	DD	FLAT:?SimICPEIGHT@@YAXKHPAX@Z
	DD	FLAT:??_C@_0M@JKFCIKLP@SimICPEIGHT?$AA@
	DD	FLAT:?SimICPNINE@@YAXKHPAX@Z
	DD	FLAT:??_C@_0L@EMJAOILP@SimICPNINE?$AA@
	DD	FLAT:?SimICPZERO@@YAXKHPAX@Z
	DD	FLAT:??_C@_0L@HMPFNENL@SimICPZERO?$AA@
	DD	FLAT:?SimICPResetDED@@YAXKHPAX@Z
	DD	FLAT:??_C@_0P@DMJOBDOC@SimICPResetDED?$AA@
	DD	FLAT:?SimICPDEDUP@@YAXKHPAX@Z
	DD	FLAT:??_C@_0M@PGNJOONC@SimICPDEDUP?$AA@
	DD	FLAT:?SimICPDEDDOWN@@YAXKHPAX@Z
	DD	FLAT:??_C@_0O@KGEPDNHO@SimICPDEDDOWN?$AA@
	DD	FLAT:?SimICPDEDSEQ@@YAXKHPAX@Z
	DD	FLAT:??_C@_0N@PEANDIEE@SimICPDEDSEQ?$AA@
	DD	FLAT:?SimICPCLEAR@@YAXKHPAX@Z
	DD	FLAT:??_C@_0M@HHGJLCFA@SimICPCLEAR?$AA@
	DD	FLAT:?SimRALTSTDBY@@YAXKHPAX@Z
	DD	FLAT:??_C@_0N@PMEIFHNI@SimRALTSTDBY?$AA@
	DD	FLAT:?SimRALTON@@YAXKHPAX@Z
	DD	FLAT:??_C@_09EJGGIMML@SimRALTON?$AA@
	DD	FLAT:?SimRALTOFF@@YAXKHPAX@Z
	DD	FLAT:??_C@_0L@KEMPMEIP@SimRALTOFF?$AA@
	DD	FLAT:?SimLandingLightToggle@@YAXKHPAX@Z
	DD	FLAT:??_C@_0BG@CPNGGOJE@SimLandingLightToggle?$AA@
	DD	FLAT:?SimLandingLightOn@@YAXKHPAX@Z
	DD	FLAT:??_C@_0BC@OBHGPGAM@SimLandingLightOn?$AA@
	DD	FLAT:?SimLandingLightOff@@YAXKHPAX@Z
	DD	FLAT:??_C@_0BD@DEODKHEE@SimLandingLightOff?$AA@
	DD	FLAT:?SimParkingBrakeToggle@@YAXKHPAX@Z
	DD	FLAT:??_C@_0BG@DAJKDOEJ@SimParkingBrakeToggle?$AA@
	DD	FLAT:?SimParkingBrakeOn@@YAXKHPAX@Z
	DD	FLAT:??_C@_0BC@LFMHDDMG@SimParkingBrakeOn?$AA@
	DD	FLAT:?SimParkingBrakeOff@@YAXKHPAX@Z
	DD	FLAT:??_C@_0BD@EPAGDNCP@SimParkingBrakeOff?$AA@
	DD	FLAT:?SimLaserArmToggle@@YAXKHPAX@Z
	DD	FLAT:??_C@_0BC@FFBGAKMO@SimLaserArmToggle?$AA@
	DD	FLAT:?SimLaserArmOn@@YAXKHPAX@Z
	DD	FLAT:??_C@_0O@IMPCGIOJ@SimLaserArmOn?$AA@
	DD	FLAT:?SimLaserArmOff@@YAXKHPAX@Z
	DD	FLAT:??_C@_0P@OEOODFCN@SimLaserArmOff?$AA@
	DD	FLAT:?SimFuelDoorToggle@@YAXKHPAX@Z
	DD	FLAT:??_C@_0BC@KNBDLDKE@SimFuelDoorToggle?$AA@
	DD	FLAT:?SimFuelDoorOpen@@YAXKHPAX@Z
	DD	FLAT:??_C@_0BA@DDIFDOI@SimFuelDoorOpen?$AA@
	DD	FLAT:?SimFuelDoorClose@@YAXKHPAX@Z
	DD	FLAT:??_C@_0BB@BPMJKHEE@SimFuelDoorClose?$AA@
	DD	FLAT:?SimRightAPSwitch@@YAXKHPAX@Z
	DD	FLAT:??_C@_0BB@HMPEIJJH@SimRightAPSwitch?$AA@
	DD	FLAT:?SimLeftAPSwitch@@YAXKHPAX@Z
	DD	FLAT:??_C@_0BA@CCKELDOD@SimLeftAPSwitch?$AA@
	DD	FLAT:?SimLeftAPUp@@YAXKHPAX@Z
	DD	FLAT:??_C@_0M@PDOBBFCD@SimLeftAPUp?$AA@
	DD	FLAT:?SimLeftAPMid@@YAXKHPAX@Z
	DD	FLAT:??_C@_0N@CFFPNJEL@SimLeftAPMid?$AA@
	DD	FLAT:?SimLeftAPDown@@YAXKHPAX@Z
	DD	FLAT:??_C@_0O@CMEOKBGM@SimLeftAPDown?$AA@
	DD	FLAT:?SimRightAPUp@@YAXKHPAX@Z
	DD	FLAT:??_C@_0N@DOEDABOP@SimRightAPUp?$AA@
	DD	FLAT:?SimRightAPMid@@YAXKHPAX@Z
	DD	FLAT:??_C@_0O@LHEAPFME@SimRightAPMid?$AA@
	DD	FLAT:?SimRightAPDown@@YAXKHPAX@Z
	DD	FLAT:??_C@_0P@FBNLCAPB@SimRightAPDown?$AA@
	DD	FLAT:?SimAPOverride@@YAXKHPAX@Z
	DD	FLAT:??_C@_0O@ICHPPJDI@SimAPOverride?$AA@
	DD	FLAT:?SimWarnReset@@YAXKHPAX@Z
	DD	FLAT:??_C@_0N@CDANCNGN@SimWarnReset?$AA@
	DD	FLAT:?SimReticleSwitch@@YAXKHPAX@Z
	DD	FLAT:??_C@_0BB@CHKHHCNM@SimReticleSwitch?$AA@
	DD	FLAT:?SimReticlePri@@YAXKHPAX@Z
	DD	FLAT:??_C@_0O@IDLPFFKA@SimReticlePri?$AA@
	DD	FLAT:?SimReticleStby@@YAXKHPAX@Z
	DD	FLAT:??_C@_0P@EGDGBEOP@SimReticleStby?$AA@
	DD	FLAT:?SimReticleOff@@YAXKHPAX@Z
	DD	FLAT:??_C@_0O@BHHCAFAK@SimReticleOff?$AA@
	DD	FLAT:?SimTMSUp@@YAXKHPAX@Z
	DD	FLAT:??_C@_08NMGAODKP@SimTMSUp?$AA@
	DD	FLAT:?SimTMSLeft@@YAXKHPAX@Z
	DD	FLAT:??_C@_0L@BNKCJGLK@SimTMSLeft?$AA@
	DD	FLAT:?SimTMSDown@@YAXKHPAX@Z
	DD	FLAT:??_C@_0L@OPKGAOID@SimTMSDown?$AA@
	DD	FLAT:?SimTMSRight@@YAXKHPAX@Z
	DD	FLAT:??_C@_0M@DBFGPHGN@SimTMSRight?$AA@
	DD	FLAT:?SimSeatArm@@YAXKHPAX@Z
	DD	FLAT:??_C@_0L@JMKJCHGE@SimSeatArm?$AA@
	DD	FLAT:?SimSeatOn@@YAXKHPAX@Z
	DD	FLAT:??_C@_09HPMLKAHG@SimSeatOn?$AA@
	DD	FLAT:?SimSeatOff@@YAXKHPAX@Z
	DD	FLAT:??_C@_0L@IEKNICDA@SimSeatOff?$AA@
	DD	FLAT:?SimEWSRWRPower@@YAXKHPAX@Z
	DD	FLAT:??_C@_0P@HCOGIEFG@SimEWSRWRPower?$AA@
	DD	FLAT:?SimEWSRWROn@@YAXKHPAX@Z
	DD	FLAT:??_C@_0M@DDFNCIHG@SimEWSRWROn?$AA@
	DD	FLAT:?SimEWSRWROff@@YAXKHPAX@Z
	DD	FLAT:??_C@_0N@IEOBBELI@SimEWSRWROff?$AA@
	DD	FLAT:?SimEWSJammerPower@@YAXKHPAX@Z
	DD	FLAT:??_C@_0BC@FIDINAMH@SimEWSJammerPower?$AA@
	DD	FLAT:?SimEWSJammerOn@@YAXKHPAX@Z
	DD	FLAT:??_C@_0P@GOFAIJPF@SimEWSJammerOn?$AA@
	DD	FLAT:?SimEWSJammerOff@@YAXKHPAX@Z
	DD	FLAT:??_C@_0BA@PAANMLID@SimEWSJammerOff?$AA@
	DD	FLAT:?SimEWSChaffPower@@YAXKHPAX@Z
	DD	FLAT:??_C@_0BB@FOACBCP@SimEWSChaffPower?$AA@
	DD	FLAT:?SimEWSChaffOn@@YAXKHPAX@Z
	DD	FLAT:??_C@_0O@KJNJDNJE@SimEWSChaffOn?$AA@
	DD	FLAT:?SimEWSChaffOff@@YAXKHPAX@Z
	DD	FLAT:??_C@_0P@MKHPBDPJ@SimEWSChaffOff?$AA@
	DD	FLAT:?SimEWSFlarePower@@YAXKHPAX@Z
	DD	FLAT:??_C@_0BB@LEEFAIFL@SimEWSFlarePower?$AA@
	DD	FLAT:?SimEWSFlareOn@@YAXKHPAX@Z
	DD	FLAT:??_C@_0O@JCKDIJEP@SimEWSFlareOn?$AA@
	DD	FLAT:?SimEWSFlareOff@@YAXKHPAX@Z
	DD	FLAT:??_C@_0P@NLEFGCBB@SimEWSFlareOff?$AA@
	DD	FLAT:?SimEWSPGMInc@@YAXKHPAX@Z
	DD	FLAT:??_C@_0N@KEBHPNHI@SimEWSPGMInc?$AA@
	DD	FLAT:?SimEWSPGMDec@@YAXKHPAX@Z
	DD	FLAT:??_C@_0N@FKCIMKEE@SimEWSPGMDec?$AA@
	DD	FLAT:?SimEWSModeOff@@YAXKHPAX@Z
	DD	FLAT:??_C@_0O@EMOGONJI@SimEWSModeOff?$AA@
	DD	FLAT:?SimEWSModeStby@@YAXKHPAX@Z
	DD	FLAT:??_C@_0P@FIGMHCGP@SimEWSModeStby?$AA@
	DD	FLAT:?SimEWSModeMan@@YAXKHPAX@Z
	DD	FLAT:??_C@_0O@CLHJLJJO@SimEWSModeMan?$AA@
	DD	FLAT:?SimEWSModeSemi@@YAXKHPAX@Z
	DD	FLAT:??_C@_0P@PBFHBHPJ@SimEWSModeSemi?$AA@
	DD	FLAT:?SimEWSModeAuto@@YAXKHPAX@Z
	DD	FLAT:??_C@_0P@POMDLLPN@SimEWSModeAuto?$AA@
	DD	FLAT:?SimEWSProgInc@@YAXKHPAX@Z
	DD	FLAT:??_C@_0O@OLFJGNOO@SimEWSProgInc?$AA@
	DD	FLAT:?SimEWSProgDec@@YAXKHPAX@Z
	DD	FLAT:??_C@_0O@BFGGFKNC@SimEWSProgDec?$AA@
	DD	FLAT:?SimEWSProgOne@@YAXKHPAX@Z
	DD	FLAT:??_C@_0O@JIGIJFLE@SimEWSProgOne?$AA@
	DD	FLAT:?SimEWSProgTwo@@YAXKHPAX@Z
	DD	FLAT:??_C@_0O@PGGIDFFP@SimEWSProgTwo?$AA@
	DD	FLAT:?SimEWSProgThree@@YAXKHPAX@Z
	DD	FLAT:??_C@_0BA@HNMFGKOI@SimEWSProgThree?$AA@
	DD	FLAT:?SimEWSProgFour@@YAXKHPAX@Z
	DD	FLAT:??_C@_0P@HIBHKCBA@SimEWSProgFour?$AA@
	DD	FLAT:?SimInhibitVMS@@YAXKHPAX@Z
	DD	FLAT:??_C@_0O@DILDFLIA@SimInhibitVMS?$AA@
	DD	FLAT:?SimVMSOn@@YAXKHPAX@Z
	DD	FLAT:??_C@_08FEFIFLNN@SimVMSOn?$AA@
	DD	FLAT:?SimVMSOff@@YAXKHPAX@Z
	DD	FLAT:??_C@_09MFICGLKL@SimVMSOff?$AA@
	DD	FLAT:?SimRFSwitch@@YAXKHPAX@Z
	DD	FLAT:??_C@_0M@OAMJEMPJ@SimRFSwitch?$AA@
	DD	FLAT:?SimRFNorm@@YAXKHPAX@Z
	DD	FLAT:??_C@_09JLJDJBBB@SimRFNorm?$AA@
	DD	FLAT:?SimRFQuiet@@YAXKHPAX@Z
	DD	FLAT:??_C@_0L@HAKDLBNK@SimRFQuiet?$AA@
	DD	FLAT:?SimRFSilent@@YAXKHPAX@Z
	DD	FLAT:??_C@_0M@BHPPFOJG@SimRFSilent?$AA@
	DD	FLAT:?SimDropProgrammed@@YAXKHPAX@Z
	DD	FLAT:??_C@_0BC@OJBHDCN@SimDropProgrammed?$AA@
	DD	FLAT:?SimPinkySwitch@@YAXKHPAX@Z
	DD	FLAT:??_C@_0P@PKKJJDNI@SimPinkySwitch?$AA@
	DD	FLAT:?SimGndJettEnable@@YAXKHPAX@Z
	DD	FLAT:??_C@_0BB@EACJLKJK@SimGndJettEnable?$AA@
	DD	FLAT:?SimGndJettOn@@YAXKHPAX@Z
	DD	FLAT:??_C@_0N@GODMOAE@SimGndJettOn?$AA@
	DD	FLAT:?SimGndJettOff@@YAXKHPAX@Z
	DD	FLAT:??_C@_0O@DKNPLKEO@SimGndJettOff?$AA@
	DD	FLAT:?SimExtlPower@@YAXKHPAX@Z
	DD	FLAT:??_C@_0N@IPIFBJEH@SimExtlPower?$AA@
	DD	FLAT:?SimExtlMasterNorm@@YAXKHPAX@Z
	DD	FLAT:??_C@_0BC@ONECLOEG@SimExtlMasterNorm?$AA@
	DD	FLAT:?SimExtlMasterOff@@YAXKHPAX@Z
	DD	FLAT:??_C@_0BB@FAPNPANK@SimExtlMasterOff?$AA@
	DD	FLAT:?SimExtlAntiColl@@YAXKHPAX@Z
	DD	FLAT:??_C@_0BA@DFLNKJLL@SimExtlAntiColl?$AA@
	DD	FLAT:?SimAntiCollOn@@YAXKHPAX@Z
	DD	FLAT:??_C@_0O@NBHNICMD@SimAntiCollOn?$AA@
	DD	FLAT:?SimAntiCollOff@@YAXKHPAX@Z
	DD	FLAT:??_C@_0P@DPAIHDBB@SimAntiCollOff?$AA@
	DD	FLAT:?SimExtlSteady@@YAXKHPAX@Z
	DD	FLAT:??_C@_0O@MDNKPHCH@SimExtlSteady?$AA@
	DD	FLAT:?SimLightsSteady@@YAXKHPAX@Z
	DD	FLAT:??_C@_0BA@LKNIKNHL@SimLightsSteady?$AA@
	DD	FLAT:?SimLightsFlash@@YAXKHPAX@Z
	DD	FLAT:??_C@_0P@BOLMFHEC@SimLightsFlash?$AA@
	DD	FLAT:?SimExtlWing@@YAXKHPAX@Z
	DD	FLAT:??_C@_0M@OIAGNBHN@SimExtlWing?$AA@
	DD	FLAT:?SimWingLightBrt@@YAXKHPAX@Z
	DD	FLAT:??_C@_0BA@HBPIMCOP@SimWingLightBrt?$AA@
	DD	FLAT:?SimWingLightOff@@YAXKHPAX@Z
	DD	FLAT:??_C@_0BA@OAEJGBEN@SimWingLightOff?$AA@
	DD	FLAT:?SimDMSUp@@YAXKHPAX@Z
	DD	FLAT:??_C@_08NPLGOBDE@SimDMSUp?$AA@
	DD	FLAT:?SimDMSLeft@@YAXKHPAX@Z
	DD	FLAT:??_C@_0L@GBBJKHJB@SimDMSLeft?$AA@
	DD	FLAT:?SimDMSDown@@YAXKHPAX@Z
	DD	FLAT:??_C@_0L@JDBNDPKI@SimDMSDown?$AA@
	DD	FLAT:?SimDMSRight@@YAXKHPAX@Z
	DD	FLAT:??_C@_0M@JNJGLFBM@SimDMSRight?$AA@
	DD	FLAT:?SimAVTRSwitch@@YAXKHPAX@Z
	DD	FLAT:??_C@_0O@ECBEHJLN@SimAVTRSwitch?$AA@
	DD	FLAT:?SimAVTRSwitchOff@@YAXKHPAX@Z
	DD	FLAT:??_C@_0BB@JFCLEIBL@SimAVTRSwitchOff?$AA@
	DD	FLAT:?SimAVTRSwitchAuto@@YAXKHPAX@Z
	DD	FLAT:??_C@_0BC@IKKLKEMC@SimAVTRSwitchAuto?$AA@
	DD	FLAT:?SimAVTRSwitchOn@@YAXKHPAX@Z
	DD	FLAT:??_C@_0BA@PIAKNHKN@SimAVTRSwitchOn?$AA@
	DD	FLAT:?SimAutoAVTR@@YAXKHPAX@Z
	DD	FLAT:??_C@_0M@GEFOMPCL@SimAutoAVTR?$AA@
	DD	FLAT:?SimIFFPower@@YAXKHPAX@Z
	DD	FLAT:??_C@_0M@MIEGMKJF@SimIFFPower?$AA@
	DD	FLAT:?SimIFFIn@@YAXKHPAX@Z
	DD	FLAT:??_C@_08LCECABJN@SimIFFIn?$AA@
	DD	FLAT:?SimINSInc@@YAXKHPAX@Z
	DD	FLAT:??_C@_09IEIPAPAD@SimINSInc?$AA@
	DD	FLAT:?SimINSDec@@YAXKHPAX@Z
	DD	FLAT:??_C@_09HKLADIDP@SimINSDec?$AA@
	DD	FLAT:?SimINSOff@@YAXKHPAX@Z
	DD	FLAT:??_C@_09NCIAPFCC@SimINSOff?$AA@
	DD	FLAT:?SimINSNorm@@YAXKHPAX@Z
	DD	FLAT:??_C@_0L@FOKGLJGN@SimINSNorm?$AA@
	DD	FLAT:?SimINSNav@@YAXKHPAX@Z
	DD	FLAT:??_C@_09CFLBJGJD@SimINSNav?$AA@
	DD	FLAT:?SimINSInFlt@@YAXKHPAX@Z
	DD	FLAT:??_C@_0M@CGOABLGH@SimINSInFlt?$AA@
	DD	FLAT:?SimLEFLockSwitch@@YAXKHPAX@Z
	DD	FLAT:??_C@_0BB@OGCGOGKG@SimLEFLockSwitch?$AA@
	DD	FLAT:?SimLEFLock@@YAXKHPAX@Z
	DD	FLAT:??_C@_0L@HGCEENHK@SimLEFLock?$AA@
	DD	FLAT:?SimLEFAuto@@YAXKHPAX@Z
	DD	FLAT:??_C@_0L@MMBFEOMB@SimLEFAuto?$AA@
	DD	FLAT:?SimDigitalBUP@@YAXKHPAX@Z
	DD	FLAT:??_C@_0O@JAOMFEDG@SimDigitalBUP?$AA@
	DD	FLAT:?SimAltFlaps@@YAXKHPAX@Z
	DD	FLAT:??_C@_0M@MAHPGBKH@SimAltFlaps?$AA@
	DD	FLAT:?SimAltFlapsNorm@@YAXKHPAX@Z
	DD	FLAT:??_C@_0BA@KJMKIPIL@SimAltFlapsNorm?$AA@
	DD	FLAT:?SimAltFlapsExtend@@YAXKHPAX@Z
	DD	FLAT:??_C@_0BC@LAIIIFOE@SimAltFlapsExtend?$AA@
	DD	FLAT:?SimManualFlyup@@YAXKHPAX@Z
	DD	FLAT:??_C@_0P@CILGDMHH@SimManualFlyup?$AA@
	DD	FLAT:?SimFLCSReset@@YAXKHPAX@Z
	DD	FLAT:??_C@_0N@BIAMDFDO@SimFLCSReset?$AA@
	DD	FLAT:?SimFLTBIT@@YAXKHPAX@Z
	DD	FLAT:??_C@_09PHCLHFKB@SimFLTBIT?$AA@
	DD	FLAT:?SimOBOGSBit@@YAXKHPAX@Z
	DD	FLAT:??_C@_0M@EIDJMJOD@SimOBOGSBit?$AA@
	DD	FLAT:?SimMalIndLights@@YAXKHPAX@Z
	DD	FLAT:??_C@_0BA@GCLDLHAF@SimMalIndLights?$AA@
	DD	FLAT:?SimProbeHeat@@YAXKHPAX@Z
	DD	FLAT:??_C@_0N@CGNHHKBB@SimProbeHeat?$AA@
	DD	FLAT:?SimEPUGEN@@YAXKHPAX@Z
	DD	FLAT:??_C@_09BFOHHOB@SimEPUGEN?$AA@
	DD	FLAT:?SimTestSwitch@@YAXKHPAX@Z
	DD	FLAT:??_C@_0O@MHPIKMLE@SimTestSwitch?$AA@
	DD	FLAT:?SimOverHeat@@YAXKHPAX@Z
	DD	FLAT:??_C@_0M@FCACAEAE@SimOverHeat?$AA@
	DD	FLAT:?SimTrimAPDisc@@YAXKHPAX@Z
	DD	FLAT:??_C@_0O@NGIIHCOP@SimTrimAPDisc?$AA@
	DD	FLAT:?SimTrimAPDISC@@YAXKHPAX@Z
	DD	FLAT:??_C@_0O@NLHDLPJD@SimTrimAPDISC?$AA@
	DD	FLAT:?SimTrimAPNORM@@YAXKHPAX@Z
	DD	FLAT:??_C@_0O@CLOJLPFH@SimTrimAPNORM?$AA@
	DD	FLAT:?SimMaxPower@@YAXKHPAX@Z
	DD	FLAT:??_C@_0M@JOEFCONJ@SimMaxPower?$AA@
	DD	FLAT:?SimABReset@@YAXKHPAX@Z
	DD	FLAT:??_C@_0L@KPAIPBNG@SimABReset?$AA@
	DD	FLAT:?SimTrimNoseUp@@YAXKHPAX@Z
	DD	FLAT:??_C@_0O@NBBEBHJA@SimTrimNoseUp?$AA@
	DD	FLAT:?SimTrimNoseDown@@YAXKHPAX@Z
	DD	FLAT:??_C@_0BA@NKIBPMO@SimTrimNoseDown?$AA@
	DD	FLAT:?SimTrimYawLeft@@YAXKHPAX@Z
	DD	FLAT:??_C@_0P@CCAMFAMO@SimTrimYawLeft?$AA@
	DD	FLAT:?SimTrimYawRight@@YAXKHPAX@Z
	DD	FLAT:??_C@_0BA@GGABOMIO@SimTrimYawRight?$AA@
	DD	FLAT:?SimTrimRollLeft@@YAXKHPAX@Z
	DD	FLAT:??_C@_0BA@DMBILHN@SimTrimRollLeft?$AA@
	DD	FLAT:?SimTrimRollRight@@YAXKHPAX@Z
	DD	FLAT:??_C@_0BB@DEEIMDGD@SimTrimRollRight?$AA@
	DD	FLAT:?SimStepMissileVolumeUp@@YAXKHPAX@Z
	DD	FLAT:??_C@_0BH@DJCPAJGM@SimStepMissileVolumeUp?$AA@
	DD	FLAT:?SimStepMissileVolumeDown@@YAXKHPAX@Z
	DD	FLAT:??_C@_0BJ@EPKOGECH@SimStepMissileVolumeDown?$AA@
	DD	FLAT:?SimStepThreatVolumeUp@@YAXKHPAX@Z
	DD	FLAT:??_C@_0BG@KCBKDLBN@SimStepThreatVolumeUp?$AA@
	DD	FLAT:?SimStepThreatVolumeDown@@YAXKHPAX@Z
	DD	FLAT:??_C@_0BI@LBFNOGCF@SimStepThreatVolumeDown?$AA@
	DD	FLAT:?SimTriggerFirstDetent@@YAXKHPAX@Z
	DD	FLAT:??_C@_0BG@ONFNCEOH@SimTriggerFirstDetent?$AA@
	DD	FLAT:?SimTriggerSecondDetent@@YAXKHPAX@Z
	DD	FLAT:??_C@_0BH@HBPAOCBC@SimTriggerSecondDetent?$AA@
	DD	FLAT:?SimRetUp@@YAXKHPAX@Z
	DD	FLAT:??_C@_08MGGNPDPA@SimRetUp?$AA@
	DD	FLAT:?SimRetDn@@YAXKHPAX@Z
	DD	FLAT:??_C@_08PMIAFGI@SimRetDn?$AA@
	DD	FLAT:?SimCursorEnable@@YAXKHPAX@Z
	DD	FLAT:??_C@_0BA@NPHIJLFF@SimCursorEnable?$AA@
	DD	FLAT:?SimStepComm1VolumeUp@@YAXKHPAX@Z
	DD	FLAT:??_C@_0BF@FEBAPBAN@SimStepComm1VolumeUp?$AA@
	DD	FLAT:?SimStepComm1VolumeDown@@YAXKHPAX@Z
	DD	FLAT:??_C@_0BH@IACOCJNA@SimStepComm1VolumeDown?$AA@
	DD	FLAT:?SimStepComm2VolumeUp@@YAXKHPAX@Z
	DD	FLAT:??_C@_0BF@LPCHEKAO@SimStepComm2VolumeUp?$AA@
	DD	FLAT:?SimStepComm2VolumeDown@@YAXKHPAX@Z
	DD	FLAT:??_C@_0BH@PHLAPLCA@SimStepComm2VolumeDown?$AA@
	DD	FLAT:?SimSymWheelUp@@YAXKHPAX@Z
	DD	FLAT:??_C@_0O@NGHAOFDF@SimSymWheelUp?$AA@
	DD	FLAT:?SimSymWheelDn@@YAXKHPAX@Z
	DD	FLAT:??_C@_0O@BPNFBDKN@SimSymWheelDn?$AA@
	DD	FLAT:?SimRandomError@@YAXKHPAX@Z
	DD	FLAT:??_C@_0P@PDLOJJCG@SimRandomError?$AA@
	DD	FLAT:?SimToggleCockpit@@YAXKHPAX@Z
	DD	FLAT:??_C@_0BB@EHLNFOFG@SimToggleCockpit?$AA@
	DD	FLAT:?SimToggleGhostMFDs@@YAXKHPAX@Z
	DD	FLAT:??_C@_0BD@IIFFDPBI@SimToggleGhostMFDs?$AA@
	DD	FLAT:?SimRangeKnobUp@@YAXKHPAX@Z
	DD	FLAT:??_C@_0P@EJFGEGBA@SimRangeKnobUp?$AA@
	DD	FLAT:?SimRangeKnobDown@@YAXKHPAX@Z
	DD	FLAT:??_C@_0BB@CKEHHOKF@SimRangeKnobDown?$AA@
	DD	FLAT:?AWACSRequestCarrier@@YAXKHPAX@Z
	DD	FLAT:??_C@_0BE@DABLGBBK@AWACSRequestCarrier?$AA@
	DD	FLAT:?WingmanDropStores@@YAXKHPAX@Z
	DD	FLAT:??_C@_0BC@LPBJEALC@WingmanDropStores?$AA@
	DD	FLAT:?ElementDropStores@@YAXKHPAX@Z
	DD	FLAT:??_C@_0BC@KPBCADJA@ElementDropStores?$AA@
	DD	FLAT:?FlightDropStores@@YAXKHPAX@Z
	DD	FLAT:??_C@_0BB@FFJCLBIJ@FlightDropStores?$AA@
	DD	FLAT:?WingmanVic@@YAXKHPAX@Z
	DD	FLAT:??_C@_0L@EOPLPKNJ@WingmanVic?$AA@
	DD	FLAT:?ElementVic@@YAXKHPAX@Z
	DD	FLAT:??_C@_0L@KFDELNBD@ElementVic?$AA@
	DD	FLAT:?FlightVic@@YAXKHPAX@Z
	DD	FLAT:??_C@_09LLHGAIKI@FlightVic?$AA@
	DD	FLAT:?WingmanFinger4@@YAXKHPAX@Z
	DD	FLAT:??_C@_0P@IOLDJFKE@WingmanFinger4?$AA@
	DD	FLAT:?ElementFinger4@@YAXKHPAX@Z
	DD	FLAT:??_C@_0P@JJCMPAPC@ElementFinger4?$AA@
	DD	FLAT:?FlightFinger4@@YAXKHPAX@Z
	DD	FLAT:??_C@_0O@KIIKBFHG@FlightFinger4?$AA@
	DD	FLAT:?WingmanEchelon@@YAXKHPAX@Z
	DD	FLAT:??_C@_0P@CBHHLHAD@WingmanEchelon?$AA@
	DD	FLAT:?ElementEchelon@@YAXKHPAX@Z
	DD	FLAT:??_C@_0P@DGOINCFF@ElementEchelon?$AA@
	DD	FLAT:?FlightEchelon@@YAXKHPAX@Z
	DD	FLAT:??_C@_0O@HEODHNB@FlightEchelon?$AA@
	DD	FLAT:?WingmanForm1@@YAXKHPAX@Z
	DD	FLAT:??_C@_0N@OPPDLDKP@WingmanForm1?$AA@
	DD	FLAT:?ElementForm1@@YAXKHPAX@Z
	DD	FLAT:??_C@_0N@DGFOLDJH@ElementForm1?$AA@
	DD	FLAT:?FlightForm1@@YAXKHPAX@Z
	DD	FLAT:??_C@_0M@IKGEJNKF@FlightForm1?$AA@
	DD	FLAT:?WingmanForm2@@YAXKHPAX@Z
	DD	FLAT:??_C@_0N@MENOOAGM@WingmanForm2?$AA@
	DD	FLAT:?ElementForm2@@YAXKHPAX@Z
	DD	FLAT:??_C@_0N@BNHDOAFE@ElementForm2?$AA@
	DD	FLAT:?FlightForm2@@YAXKHPAX@Z
	DD	FLAT:??_C@_0M@KBEJMOGG@FlightForm2?$AA@
	DD	FLAT:?WingmanForm3@@YAXKHPAX@Z
	DD	FLAT:??_C@_0N@NNMFNBCN@WingmanForm3?$AA@
	DD	FLAT:?ElementForm3@@YAXKHPAX@Z
	DD	FLAT:??_C@_0N@EGINBBF@ElementForm3?$AA@
	DD	FLAT:?FlightForm3@@YAXKHPAX@Z
	DD	FLAT:??_C@_0M@LIFCPPCH@FlightForm3?$AA@
	DD	FLAT:?WingmanForm4@@YAXKHPAX@Z
	DD	FLAT:??_C@_0N@JCIEEHOK@WingmanForm4?$AA@
	DD	FLAT:?ElementForm4@@YAXKHPAX@Z
	DD	FLAT:??_C@_0N@ELCJEHNC@ElementForm4?$AA@
	DD	FLAT:?FlightForm4@@YAXKHPAX@Z
	DD	FLAT:??_C@_0M@PHBDGJOA@FlightForm4?$AA@
	DD	FLAT:?SimSMSPower@@YAXKHPAX@Z
	DD	FLAT:??_C@_0M@JJCEKNEF@SimSMSPower?$AA@
	DD	FLAT:?SimSMSOn@@YAXKHPAX@Z
	DD	FLAT:??_C@_08EJFMKGO@SimSMSOn?$AA@
	DD	FLAT:?SimSMSOff@@YAXKHPAX@Z
	DD	FLAT:??_C@_09JHLKEEAM@SimSMSOff?$AA@
	DD	FLAT:?SimFCCPower@@YAXKHPAX@Z
	DD	FLAT:??_C@_0M@NCHCEIH@SimFCCPower?$AA@
	DD	FLAT:?SimFCCOn@@YAXKHPAX@Z
	DD	FLAT:??_C@_08LIKHLALI@SimFCCOn?$AA@
	DD	FLAT:?SimFCCOff@@YAXKHPAX@Z
	DD	FLAT:??_C@_09PILGABJH@SimFCCOff?$AA@
	DD	FLAT:?SimMFDPower@@YAXKHPAX@Z
	DD	FLAT:??_C@_0M@CDFIKLA@SimMFDPower?$AA@
	DD	FLAT:?SimMFDOn@@YAXKHPAX@Z
	DD	FLAT:??_C@_08IHFHPHLC@SimMFDOn?$AA@
	DD	FLAT:?SimMFDOff@@YAXKHPAX@Z
	DD	FLAT:??_C@_09BIFMBIMO@SimMFDOff?$AA@
	DD	FLAT:?SimUFCPower@@YAXKHPAX@Z
	DD	FLAT:??_C@_0M@NAIKFEFH@SimUFCPower?$AA@
	DD	FLAT:?SimUFCOn@@YAXKHPAX@Z
	DD	FLAT:??_C@_08PFAFEPPN@SimUFCOn?$AA@
	DD	FLAT:?SimUFCOff@@YAXKHPAX@Z
	DD	FLAT:??_C@_09POENBGHH@SimUFCOff?$AA@
	DD	FLAT:?SimGPSPower@@YAXKHPAX@Z
	DD	FLAT:??_C@_0M@IPLGJKMC@SimGPSPower?$AA@
	DD	FLAT:?SimGPSOn@@YAXKHPAX@Z
	DD	FLAT:??_C@_08EKCNJNA@SimGPSOn?$AA@
	DD	FLAT:?SimGPSOff@@YAXKHPAX@Z
	DD	FLAT:??_C@_09LLGDONJE@SimGPSOff?$AA@
	DD	FLAT:?SimDLPower@@YAXKHPAX@Z
	DD	FLAT:??_C@_0L@GJJHANJE@SimDLPower?$AA@
	DD	FLAT:?SimDLOn@@YAXKHPAX@Z
	DD	FLAT:??_C@_07BHDJFENJ@SimDLOn?$AA@
	DD	FLAT:?SimDLOff@@YAXKHPAX@Z
	DD	FLAT:??_C@_08MCKMMOLN@SimDLOff?$AA@
	DD	FLAT:?SimMAPPower@@YAXKHPAX@Z
	DD	FLAT:??_C@_0M@JLGBDLHE@SimMAPPower?$AA@
	DD	FLAT:?SimMAPOn@@YAXKHPAX@Z
	DD	FLAT:??_C@_08OKAMOLGK@SimMAPOn?$AA@
	DD	FLAT:?SimMAPOff@@YAXKHPAX@Z
	DD	FLAT:??_C@_09JADJBJDE@SimMAPOff?$AA@
	DD	FLAT:?SimLeftHptPower@@YAXKHPAX@Z
	DD	FLAT:??_C@_0BA@EOJHIJFF@SimLeftHptPower?$AA@
	DD	FLAT:?SimLeftHptOn@@YAXKHPAX@Z
	DD	FLAT:??_C@_0N@IIJNMCHE@SimLeftHptOn?$AA@
	DD	FLAT:?SimLeftHptOff@@YAXKHPAX@Z
	DD	FLAT:??_C@_0O@GKFELFHO@SimLeftHptOff?$AA@
	DD	FLAT:?SimRightHptPower@@YAXKHPAX@Z
	DD	FLAT:??_C@_0BB@BAMHLDCB@SimRightHptPower?$AA@
	DD	FLAT:?SimRightHptOn@@YAXKHPAX@Z
	DD	FLAT:??_C@_0O@BKICOOPL@SimRightHptOn?$AA@
	DD	FLAT:?SimRightHptOff@@YAXKHPAX@Z
	DD	FLAT:??_C@_0P@BHMBDEOD@SimRightHptOff?$AA@
	DD	FLAT:?SimTISLPower@@YAXKHPAX@Z
	DD	FLAT:??_C@_0N@ECKNHFND@SimTISLPower?$AA@
	DD	FLAT:?SimFCRPower@@YAXKHPAX@Z
	DD	FLAT:??_C@_0M@MMIOLDPN@SimFCRPower?$AA@
	DD	FLAT:?SimFCROn@@YAXKHPAX@Z
	DD	FLAT:??_C@_08FAACIAEC@SimFCROn?$AA@
	DD	FLAT:?SimFCROff@@YAXKHPAX@Z
	DD	FLAT:??_C@_09KFDGLPKF@SimFCROff?$AA@
	DD	FLAT:?SimHUDPower@@YAXKHPAX@Z
	DD	FLAT:??_C@_0M@LKJGPJDH@SimHUDPower?$AA@
	DD	FLAT:?SimHUDOn@@YAXKHPAX@Z
	DD	FLAT:??_C@_08PANKILFD@SimHUDOn?$AA@
	DD	FLAT:?SimHUDOff@@YAXKHPAX@Z
	DD	FLAT:??_C@_09MPCGEHFM@SimHUDOff?$AA@
	DD	FLAT:?SimToggleRealisticAvionics@@YAXKHPAX@Z
	DD	FLAT:??_C@_0BL@BALJPKKO@SimToggleRealisticAvionics?$AA@
	DD	FLAT:?SimIncFuelSwitch@@YAXKHPAX@Z
	DD	FLAT:??_C@_0BB@BNFMOJED@SimIncFuelSwitch?$AA@
	DD	FLAT:?SimDecFuelSwitch@@YAXKHPAX@Z
	DD	FLAT:??_C@_0BB@ENGPCGLL@SimDecFuelSwitch?$AA@
	DD	FLAT:?SimFuelSwitchTest@@YAXKHPAX@Z
	DD	FLAT:??_C@_0BC@NDDILFBJ@SimFuelSwitchTest?$AA@
	DD	FLAT:?SimFuelSwitchNorm@@YAXKHPAX@Z
	DD	FLAT:??_C@_0BC@MBHBJHB@SimFuelSwitchNorm?$AA@
	DD	FLAT:?SimFuelSwitchResv@@YAXKHPAX@Z
	DD	FLAT:??_C@_0BC@GOEOCCDL@SimFuelSwitchResv?$AA@
	DD	FLAT:?SimFuelSwitchWingInt@@YAXKHPAX@Z
	DD	FLAT:??_C@_0BF@JMGGKGKA@SimFuelSwitchWingInt?$AA@
	DD	FLAT:?SimFuelSwitchWingExt@@YAXKHPAX@Z
	DD	FLAT:??_C@_0BF@MOBLMGNK@SimFuelSwitchWingExt?$AA@
	DD	FLAT:?SimFuelSwitchCenterExt@@YAXKHPAX@Z
	DD	FLAT:??_C@_0BH@IDKNNHJH@SimFuelSwitchCenterExt?$AA@
	DD	FLAT:?SimIncFuelPump@@YAXKHPAX@Z
	DD	FLAT:??_C@_0P@KNGGMAMM@SimIncFuelPump?$AA@
	DD	FLAT:?SimDecFuelPump@@YAXKHPAX@Z
	DD	FLAT:??_C@_0P@BAOIEGGG@SimDecFuelPump?$AA@
	DD	FLAT:?SimFuelPumpOff@@YAXKHPAX@Z
	DD	FLAT:??_C@_0P@BLGKCKOG@SimFuelPumpOff?$AA@
	DD	FLAT:?SimFuelPumpNorm@@YAXKHPAX@Z
	DD	FLAT:??_C@_0BA@MCGGFFBL@SimFuelPumpNorm?$AA@
	DD	FLAT:?SimFuelPumpAft@@YAXKHPAX@Z
	DD	FLAT:??_C@_0P@IDEBCNAG@SimFuelPumpAft?$AA@
	DD	FLAT:?SimFuelPumpFwd@@YAXKHPAX@Z
	DD	FLAT:??_C@_0P@EJLAMOKJ@SimFuelPumpFwd?$AA@
	DD	FLAT:?SimToggleMasterFuel@@YAXKHPAX@Z
	DD	FLAT:??_C@_0BE@OAJOEAPE@SimToggleMasterFuel?$AA@
	DD	FLAT:?SimMasterFuelOn@@YAXKHPAX@Z
	DD	FLAT:??_C@_0BA@IKFBHAF@SimMasterFuelOn?$AA@
	DD	FLAT:?SimMasterFuelOff@@YAXKHPAX@Z
	DD	FLAT:??_C@_0BB@ENNGMMAB@SimMasterFuelOff?$AA@
	DD	FLAT:?SimExtFuelTrans@@YAXKHPAX@Z
	DD	FLAT:??_C@_0BA@BNOAENAF@SimExtFuelTrans?$AA@
	DD	FLAT:?SimFuelTransNorm@@YAXKHPAX@Z
	DD	FLAT:??_C@_0BB@KGHMPMPE@SimFuelTransNorm?$AA@
	DD	FLAT:?SimFuelTransWing@@YAXKHPAX@Z
	DD	FLAT:??_C@_0BB@BDEOEEF@SimFuelTransWing?$AA@
	DD	FLAT:?SimIncAirSource@@YAXKHPAX@Z
	DD	FLAT:??_C@_0BA@OJLONPLE@SimIncAirSource?$AA@
	DD	FLAT:?SimDecAirSource@@YAXKHPAX@Z
	DD	FLAT:??_C@_0BA@NPAABLME@SimDecAirSource?$AA@
	DD	FLAT:?SimAirSourceOff@@YAXKHPAX@Z
	DD	FLAT:??_C@_0BA@KDJGALJO@SimAirSourceOff?$AA@
	DD	FLAT:?SimAirSourceNorm@@YAXKHPAX@Z
	DD	FLAT:??_C@_0BB@JMAAFADE@SimAirSourceNorm?$AA@
	DD	FLAT:?SimAirSourceDump@@YAXKHPAX@Z
	DD	FLAT:??_C@_0BB@BACHHDP@SimAirSourceDump?$AA@
	DD	FLAT:?SimAirSourceRam@@YAXKHPAX@Z
	DD	FLAT:??_C@_0BA@OHFOELJC@SimAirSourceRam?$AA@
	DD	FLAT:?SimDecLeftAuxComDigit@@YAXKHPAX@Z
	DD	FLAT:??_C@_0BG@FDANGIJL@SimDecLeftAuxComDigit?$AA@
	DD	FLAT:?SimDecCenterAuxComDigit@@YAXKHPAX@Z
	DD	FLAT:??_C@_0BI@KEIHPEMH@SimDecCenterAuxComDigit?$AA@
	DD	FLAT:?SimDecRightAuxComDigit@@YAXKHPAX@Z
	DD	FLAT:??_C@_0BH@PCCOLNEP@SimDecRightAuxComDigit?$AA@
	DD	FLAT:?SimInteriorLight@@YAXKHPAX@Z
	DD	FLAT:??_C@_0BB@FPDMGEOD@SimInteriorLight?$AA@
	DD	FLAT:?SimInstrumentLight@@YAXKHPAX@Z
	DD	FLAT:??_C@_0BD@PJACLMDP@SimInstrumentLight?$AA@
	DD	FLAT:?SimSpotLight@@YAXKHPAX@Z
	DD	FLAT:??_C@_0N@JOMCOBCO@SimSpotLight?$AA@
	DD	FLAT:?SimRwrPower@@YAXKHPAX@Z
	DD	FLAT:??_C@_0M@PDJIMEJL@SimRwrPower?$AA@
	DD	FLAT:?Profiler_CursorDown@@YAXKHPAX@Z
	DD	FLAT:??_C@_0BE@GPGBDLOE@Profiler_CursorDown?$AA@
	DD	FLAT:?Profiler_CursorUp@@YAXKHPAX@Z
	DD	FLAT:??_C@_0BC@OJLNAEIM@Profiler_CursorUp?$AA@
	DD	FLAT:?Profiler_Parent@@YAXKHPAX@Z
	DD	FLAT:??_C@_0BA@ONLNGFMK@Profiler_Parent?$AA@
	DD	FLAT:?Profiler_Select@@YAXKHPAX@Z
	DD	FLAT:??_C@_0BA@JAMMIHPB@Profiler_Select?$AA@
	DD	FLAT:?Profiler_Hier@@YAXKHPAX@Z
	DD	FLAT:??_C@_0O@MFHJBKCD@Profiler_Hier?$AA@
	DD	FLAT:?Profiler_Self@@YAXKHPAX@Z
	DD	FLAT:??_C@_0O@LJOAOPNC@Profiler_Self?$AA@
	DD	FLAT:?ToggleProfilerDisplay@@YAXKHPAX@Z
	DD	FLAT:??_C@_0BG@MBIOIECJ@ToggleProfilerDisplay?$AA@
	DD	FLAT:?ToggleProfiler@@YAXKHPAX@Z
	DD	FLAT:??_C@_0P@DNHJJMDE@ToggleProfiler?$AA@
	DD	FLAT:?ToggleSubTitles@@YAXKHPAX@Z
	DD	FLAT:??_C@_0BA@DKMFPGEA@ToggleSubTitles?$AA@
	DD	FLAT:?ToggleInfoBar@@YAXKHPAX@Z
	DD	FLAT:??_C@_0O@IMPPCDIM@ToggleInfoBar?$AA@
	DD	FLAT:?ToggleDisplacementCam@@YAXKHPAX@Z
	DD	FLAT:??_C@_0BG@BKINLCJO@ToggleDisplacementCam?$AA@
	DD	FLAT:?WinAmpNextTrack@@YAXKHPAX@Z
	DD	FLAT:??_C@_0BA@NHDAFIHN@WinAmpNextTrack?$AA@
	DD	FLAT:?WinAmpPreviousTrack@@YAXKHPAX@Z
	DD	FLAT:??_C@_0BE@PEBMLEGF@WinAmpPreviousTrack?$AA@
	DD	FLAT:?WinAmpStopPlayback@@YAXKHPAX@Z
	DD	FLAT:??_C@_0BD@DGKAGMML@WinAmpStopPlayback?$AA@
	DD	FLAT:?WinAmpStartPlayback@@YAXKHPAX@Z
	DD	FLAT:??_C@_0BE@PAPICFEI@WinAmpStartPlayback?$AA@
	DD	FLAT:?WinAmpTogglePlayback@@YAXKHPAX@Z
	DD	FLAT:??_C@_0BF@GPFOEHLG@WinAmpTogglePlayback?$AA@
	DD	FLAT:?WinAmpVolumeUp@@YAXKHPAX@Z
	DD	FLAT:??_C@_0P@BKINAFOH@WinAmpVolumeUp?$AA@
	DD	FLAT:?WinAmpVolumeDown@@YAXKHPAX@Z
	DD	FLAT:??_C@_0BB@JOGPEKCO@WinAmpVolumeDown?$AA@
	DD	FLAT:?CycleEngine@@YAXKHPAX@Z
	DD	FLAT:??_C@_0M@ENAGANBC@CycleEngine?$AA@
	DD	FLAT:?selectLeftEngine@@YAXKHPAX@Z
	DD	FLAT:??_C@_0BB@CGCLLHMM@selectLeftEngine?$AA@
	DD	FLAT:?selectRightEngine@@YAXKHPAX@Z
	DD	FLAT:??_C@_0BC@ENBLEKME@selectRightEngine?$AA@
	DD	FLAT:?selectBothEngines@@YAXKHPAX@Z
	DD	FLAT:??_C@_0BC@PENHOEDD@selectBothEngines?$AA@
	DD	FLAT:?ToggleTIR@@YAXKHPAX@Z
	DD	FLAT:??_C@_09CGCCACHH@ToggleTIR?$AA@
	DD	FLAT:?ToggleClickablePitMode@@YAXKHPAX@Z
	DD	FLAT:??_C@_0BH@MPNGDHKA@ToggleClickablePitMode?$AA@
	DD	FLAT:?SimToggleRearView@@YAXKHPAX@Z
	DD	FLAT:??_C@_0BC@CIGJLNMN@SimToggleRearView?$AA@
	DD	FLAT:?SimToggleAltView@@YAXKHPAX@Z
	DD	FLAT:??_C@_0BB@HMDELPBA@SimToggleAltView?$AA@
	DD	FLAT:?ToggleVtune@@YAXKHPAX@Z
	DD	FLAT:??_C@_0M@PNCPJLEM@ToggleVtune?$AA@
	DD	FLAT:?SimCycleLeftAuxComDigit@@YAXKHPAX@Z
	DD	FLAT:??_C@_0BI@OECLBILG@SimCycleLeftAuxComDigit?$AA@
	DD	FLAT:?SimCycleCenterAuxComDigit@@YAXKHPAX@Z
	DD	FLAT:??_C@_0BK@NEKIGIDC@SimCycleCenterAuxComDigit?$AA@
	DD	FLAT:?SimCycleRightAuxComDigit@@YAXKHPAX@Z
	DD	FLAT:??_C@_0BJ@LHEGMHEK@SimCycleRightAuxComDigit?$AA@
	DD	FLAT:?SimCycleBandAuxComDigit@@YAXKHPAX@Z
	DD	FLAT:??_C@_0BI@MJILDDJC@SimCycleBandAuxComDigit?$AA@
	DD	FLAT:?SimToggleAuxComMaster@@YAXKHPAX@Z
	DD	FLAT:??_C@_0BG@LJELEGEJ@SimToggleAuxComMaster?$AA@
	DD	FLAT:?SimAuxComBackup@@YAXKHPAX@Z
	DD	FLAT:??_C@_0BA@IHJIDJHP@SimAuxComBackup?$AA@
	DD	FLAT:?SimAuxComUFC@@YAXKHPAX@Z
	DD	FLAT:??_C@_0N@GAPKHMPG@SimAuxComUFC?$AA@
	DD	FLAT:?SimToggleAuxComAATR@@YAXKHPAX@Z
	DD	FLAT:??_C@_0BE@DGGJPPCE@SimToggleAuxComAATR?$AA@
	DD	FLAT:?SimTACANTR@@YAXKHPAX@Z
	DD	FLAT:??_C@_0L@LCEGKAAB@SimTACANTR?$AA@
	DD	FLAT:?SimTACANAATR@@YAXKHPAX@Z
	DD	FLAT:??_C@_0N@MGFJHJNG@SimTACANAATR?$AA@
	DD	FLAT:?SimToggleUHFMaster@@YAXKHPAX@Z
	DD	FLAT:??_C@_0BD@CGPDGP@SimToggleUHFMaster?$AA@
	DD	FLAT:?SimTransmitCom1@@YAXKHPAX@Z
	DD	FLAT:??_C@_0BA@FEJBMMOD@SimTransmitCom1?$AA@
	DD	FLAT:?SimTransmitCom2@@YAXKHPAX@Z
	DD	FLAT:??_C@_0BA@HPLMJPCA@SimTransmitCom2?$AA@
	DD	FLAT:?SimDriftCO@@YAXKHPAX@Z
	DD	FLAT:??_C@_0L@PLDDDKIN@SimDriftCO?$AA@
	DD	FLAT:?SimDriftCOOn@@YAXKHPAX@Z
	DD	FLAT:??_C@_0N@MIJJEIFD@SimDriftCOOn?$AA@
	DD	FLAT:?SimDriftCOOff@@YAXKHPAX@Z
	DD	FLAT:??_C@_0O@MPBOAEJP@SimDriftCOOff?$AA@
	DD	FLAT:?SimCATSwitch@@YAXKHPAX@Z
	DD	FLAT:??_C@_0N@JEKIEBMN@SimCATSwitch?$AA@
	DD	FLAT:?SimCATI@@YAXKHPAX@Z
	DD	FLAT:??_C@_07JNMFKOOA@SimCATI?$AA@
	DD	FLAT:?SimCATIII@@YAXKHPAX@Z
	DD	FLAT:??_C@_09DBOAKCMF@SimCATIII?$AA@
	DD	FLAT:?SimRegen@@YAXKHPAX@Z
	DD	FLAT:??_C@_08HEOLNBMO@SimRegen?$AA@
	DD	FLAT:?SimInteriorLight@@YAXKHPAX@Z
	DD	FLAT:??_C@_0BB@FPDMGEOD@SimInteriorLight?$AA@
	DD	FLAT:?SimReverseThrusterOn@@YAXKHPAX@Z
	DD	FLAT:??_C@_0BF@MLBDFGCM@SimReverseThrusterOn?$AA@
	DD	FLAT:?SimReverseThrusterOff@@YAXKHPAX@Z
	DD	FLAT:??_C@_0BG@PKHOCCM@SimReverseThrusterOff?$AA@
	DD	FLAT:?SimReverseThrusterToggle@@YAXKHPAX@Z
	DD	FLAT:??_C@_0BJ@JFKNMKPO@SimReverseThrusterToggle?$AA@
	DD	00H
	DD	FLAT:??_C@_00CNPNBAHC@?$AA@
_DATA	ENDS
;	COMDAT ?min_exponent10@?$numeric_limits@M@std@@2HB
CONST	SEGMENT
?min_exponent10@?$numeric_limits@M@std@@2HB DD 0ffffffdbH ; std::numeric_limits<float>::min_exponent10
CONST	ENDS
;	COMDAT ?min_exponent@?$numeric_limits@M@std@@2HB
CONST	SEGMENT
?min_exponent@?$numeric_limits@M@std@@2HB DD 0ffffff83H	; std::numeric_limits<float>::min_exponent
CONST	ENDS
;	COMDAT ?max_exponent10@?$numeric_limits@M@std@@2HB
CONST	SEGMENT
?max_exponent10@?$numeric_limits@M@std@@2HB DD 026H	; std::numeric_limits<float>::max_exponent10
CONST	ENDS
;	COMDAT ?max_exponent@?$numeric_limits@M@std@@2HB
CONST	SEGMENT
?max_exponent@?$numeric_limits@M@std@@2HB DD 080H	; std::numeric_limits<float>::max_exponent
CONST	ENDS
;	COMDAT ?max_digits10@?$numeric_limits@M@std@@2HB
CONST	SEGMENT
?max_digits10@?$numeric_limits@M@std@@2HB DD 09H	; std::numeric_limits<float>::max_digits10
CONST	ENDS
;	COMDAT ?digits10@?$numeric_limits@M@std@@2HB
CONST	SEGMENT
?digits10@?$numeric_limits@M@std@@2HB DD 06H		; std::numeric_limits<float>::digits10
CONST	ENDS
;	COMDAT ?digits@?$numeric_limits@M@std@@2HB
CONST	SEGMENT
?digits@?$numeric_limits@M@std@@2HB DD 018H		; std::numeric_limits<float>::digits
CONST	ENDS
;	COMDAT ?digits10@?$numeric_limits@_K@std@@2HB
CONST	SEGMENT
?digits10@?$numeric_limits@_K@std@@2HB DD 013H		; std::numeric_limits<unsigned __int64>::digits10
CONST	ENDS
;	COMDAT ?digits@?$numeric_limits@_K@std@@2HB
CONST	SEGMENT
?digits@?$numeric_limits@_K@std@@2HB DD 040H		; std::numeric_limits<unsigned __int64>::digits
CONST	ENDS
;	COMDAT ?is_signed@?$numeric_limits@_K@std@@2_NB
CONST	SEGMENT
?is_signed@?$numeric_limits@_K@std@@2_NB DB 00H		; std::numeric_limits<unsigned __int64>::is_signed
CONST	ENDS
;	COMDAT ?digits10@?$numeric_limits@_J@std@@2HB
CONST	SEGMENT
?digits10@?$numeric_limits@_J@std@@2HB DD 012H		; std::numeric_limits<__int64>::digits10
CONST	ENDS
;	COMDAT ?digits@?$numeric_limits@_J@std@@2HB
CONST	SEGMENT
?digits@?$numeric_limits@_J@std@@2HB DD 03fH		; std::numeric_limits<__int64>::digits
CONST	ENDS
;	COMDAT ?is_signed@?$numeric_limits@_J@std@@2_NB
CONST	SEGMENT
?is_signed@?$numeric_limits@_J@std@@2_NB DB 01H		; std::numeric_limits<__int64>::is_signed
CONST	ENDS
;	COMDAT ?digits10@?$numeric_limits@K@std@@2HB
CONST	SEGMENT
?digits10@?$numeric_limits@K@std@@2HB DD 09H		; std::numeric_limits<unsigned long>::digits10
CONST	ENDS
;	COMDAT ??_C@_0BJ@JFKNMKPO@SimReverseThrusterToggle?$AA@
CONST	SEGMENT
??_C@_0BJ@JFKNMKPO@SimReverseThrusterToggle?$AA@ DB 'SimReverseThrusterTo'
	DB	'ggle', 00H					; `string'
CONST	ENDS
;	COMDAT ??_C@_0BG@PKHOCCM@SimReverseThrusterOff?$AA@
CONST	SEGMENT
??_C@_0BG@PKHOCCM@SimReverseThrusterOff?$AA@ DB 'SimReverseThrusterOff', 00H ; `string'
CONST	ENDS
;	COMDAT ??_C@_0BF@MLBDFGCM@SimReverseThrusterOn?$AA@
CONST	SEGMENT
??_C@_0BF@MLBDFGCM@SimReverseThrusterOn?$AA@ DB 'SimReverseThrusterOn', 00H ; `string'
CONST	ENDS
;	COMDAT ??_C@_08HEOLNBMO@SimRegen?$AA@
CONST	SEGMENT
??_C@_08HEOLNBMO@SimRegen?$AA@ DB 'SimRegen', 00H	; `string'
CONST	ENDS
;	COMDAT ?digits@?$numeric_limits@K@std@@2HB
CONST	SEGMENT
?digits@?$numeric_limits@K@std@@2HB DD 020H		; std::numeric_limits<unsigned long>::digits
CONST	ENDS
;	COMDAT ??_C@_09DBOAKCMF@SimCATIII?$AA@
CONST	SEGMENT
??_C@_09DBOAKCMF@SimCATIII?$AA@ DB 'SimCATIII', 00H	; `string'
CONST	ENDS
;	COMDAT ??_C@_07JNMFKOOA@SimCATI?$AA@
CONST	SEGMENT
??_C@_07JNMFKOOA@SimCATI?$AA@ DB 'SimCATI', 00H		; `string'
CONST	ENDS
;	COMDAT ??_C@_0N@JEKIEBMN@SimCATSwitch?$AA@
CONST	SEGMENT
??_C@_0N@JEKIEBMN@SimCATSwitch?$AA@ DB 'SimCATSwitch', 00H ; `string'
CONST	ENDS
;	COMDAT ??_C@_0O@MPBOAEJP@SimDriftCOOff?$AA@
CONST	SEGMENT
??_C@_0O@MPBOAEJP@SimDriftCOOff?$AA@ DB 'SimDriftCOOff', 00H ; `string'
CONST	ENDS
;	COMDAT ?is_signed@?$numeric_limits@K@std@@2_NB
CONST	SEGMENT
?is_signed@?$numeric_limits@K@std@@2_NB DB 00H		; std::numeric_limits<unsigned long>::is_signed
CONST	ENDS
;	COMDAT ??_C@_0N@MIJJEIFD@SimDriftCOOn?$AA@
CONST	SEGMENT
??_C@_0N@MIJJEIFD@SimDriftCOOn?$AA@ DB 'SimDriftCOOn', 00H ; `string'
CONST	ENDS
;	COMDAT ??_C@_0L@PLDDDKIN@SimDriftCO?$AA@
CONST	SEGMENT
??_C@_0L@PLDDDKIN@SimDriftCO?$AA@ DB 'SimDriftCO', 00H	; `string'
CONST	ENDS
;	COMDAT ??_C@_0BA@HPLMJPCA@SimTransmitCom2?$AA@
CONST	SEGMENT
??_C@_0BA@HPLMJPCA@SimTransmitCom2?$AA@ DB 'SimTransmitCom2', 00H ; `string'
CONST	ENDS
;	COMDAT ??_C@_0BA@FEJBMMOD@SimTransmitCom1?$AA@
CONST	SEGMENT
??_C@_0BA@FEJBMMOD@SimTransmitCom1?$AA@ DB 'SimTransmitCom1', 00H ; `string'
CONST	ENDS
;	COMDAT ??_C@_0BD@CGPDGP@SimToggleUHFMaster?$AA@
CONST	SEGMENT
??_C@_0BD@CGPDGP@SimToggleUHFMaster?$AA@ DB 'SimToggleUHFMaster', 00H ; `string'
CONST	ENDS
;	COMDAT ??_C@_0N@MGFJHJNG@SimTACANAATR?$AA@
CONST	SEGMENT
??_C@_0N@MGFJHJNG@SimTACANAATR?$AA@ DB 'SimTACANAATR', 00H ; `string'
CONST	ENDS
;	COMDAT ??_C@_0L@LCEGKAAB@SimTACANTR?$AA@
CONST	SEGMENT
??_C@_0L@LCEGKAAB@SimTACANTR?$AA@ DB 'SimTACANTR', 00H	; `string'
CONST	ENDS
;	COMDAT ??_C@_0BE@DGGJPPCE@SimToggleAuxComAATR?$AA@
CONST	SEGMENT
??_C@_0BE@DGGJPPCE@SimToggleAuxComAATR?$AA@ DB 'SimToggleAuxComAATR', 00H ; `string'
CONST	ENDS
;	COMDAT ??_C@_0N@GAPKHMPG@SimAuxComUFC?$AA@
CONST	SEGMENT
??_C@_0N@GAPKHMPG@SimAuxComUFC?$AA@ DB 'SimAuxComUFC', 00H ; `string'
CONST	ENDS
;	COMDAT ??_C@_0BA@IHJIDJHP@SimAuxComBackup?$AA@
CONST	SEGMENT
??_C@_0BA@IHJIDJHP@SimAuxComBackup?$AA@ DB 'SimAuxComBackup', 00H ; `string'
CONST	ENDS
;	COMDAT ??_C@_0BG@LJELEGEJ@SimToggleAuxComMaster?$AA@
CONST	SEGMENT
??_C@_0BG@LJELEGEJ@SimToggleAuxComMaster?$AA@ DB 'SimToggleAuxComMaster', 00H ; `string'
CONST	ENDS
;	COMDAT ??_C@_0BI@MJILDDJC@SimCycleBandAuxComDigit?$AA@
CONST	SEGMENT
??_C@_0BI@MJILDDJC@SimCycleBandAuxComDigit?$AA@ DB 'SimCycleBandAuxComDig'
	DB	'it', 00H					; `string'
CONST	ENDS
;	COMDAT ??_C@_0BJ@LHEGMHEK@SimCycleRightAuxComDigit?$AA@
CONST	SEGMENT
??_C@_0BJ@LHEGMHEK@SimCycleRightAuxComDigit?$AA@ DB 'SimCycleRightAuxComD'
	DB	'igit', 00H					; `string'
CONST	ENDS
;	COMDAT ??_C@_0BK@NEKIGIDC@SimCycleCenterAuxComDigit?$AA@
CONST	SEGMENT
??_C@_0BK@NEKIGIDC@SimCycleCenterAuxComDigit?$AA@ DB 'SimCycleCenterAuxCo'
	DB	'mDigit', 00H				; `string'
CONST	ENDS
;	COMDAT ??_C@_0BI@OECLBILG@SimCycleLeftAuxComDigit?$AA@
CONST	SEGMENT
??_C@_0BI@OECLBILG@SimCycleLeftAuxComDigit?$AA@ DB 'SimCycleLeftAuxComDig'
	DB	'it', 00H					; `string'
CONST	ENDS
;	COMDAT ??_C@_0M@PNCPJLEM@ToggleVtune?$AA@
CONST	SEGMENT
??_C@_0M@PNCPJLEM@ToggleVtune?$AA@ DB 'ToggleVtune', 00H ; `string'
CONST	ENDS
;	COMDAT ??_C@_0BB@HMDELPBA@SimToggleAltView?$AA@
CONST	SEGMENT
??_C@_0BB@HMDELPBA@SimToggleAltView?$AA@ DB 'SimToggleAltView', 00H ; `string'
CONST	ENDS
;	COMDAT ??_C@_0BC@CIGJLNMN@SimToggleRearView?$AA@
CONST	SEGMENT
??_C@_0BC@CIGJLNMN@SimToggleRearView?$AA@ DB 'SimToggleRearView', 00H ; `string'
CONST	ENDS
;	COMDAT ??_C@_0BH@MPNGDHKA@ToggleClickablePitMode?$AA@
CONST	SEGMENT
??_C@_0BH@MPNGDHKA@ToggleClickablePitMode?$AA@ DB 'ToggleClickablePitMode'
	DB	00H						; `string'
CONST	ENDS
;	COMDAT ??_C@_09CGCCACHH@ToggleTIR?$AA@
CONST	SEGMENT
??_C@_09CGCCACHH@ToggleTIR?$AA@ DB 'ToggleTIR', 00H	; `string'
CONST	ENDS
;	COMDAT ??_C@_0BC@PENHOEDD@selectBothEngines?$AA@
CONST	SEGMENT
??_C@_0BC@PENHOEDD@selectBothEngines?$AA@ DB 'selectBothEngines', 00H ; `string'
CONST	ENDS
;	COMDAT ??_C@_0BC@ENBLEKME@selectRightEngine?$AA@
CONST	SEGMENT
??_C@_0BC@ENBLEKME@selectRightEngine?$AA@ DB 'selectRightEngine', 00H ; `string'
CONST	ENDS
;	COMDAT ??_C@_0BB@CGCLLHMM@selectLeftEngine?$AA@
CONST	SEGMENT
??_C@_0BB@CGCLLHMM@selectLeftEngine?$AA@ DB 'selectLeftEngine', 00H ; `string'
CONST	ENDS
;	COMDAT ??_C@_0M@ENAGANBC@CycleEngine?$AA@
CONST	SEGMENT
??_C@_0M@ENAGANBC@CycleEngine?$AA@ DB 'CycleEngine', 00H ; `string'
CONST	ENDS
;	COMDAT ??_C@_0BB@JOGPEKCO@WinAmpVolumeDown?$AA@
CONST	SEGMENT
??_C@_0BB@JOGPEKCO@WinAmpVolumeDown?$AA@ DB 'WinAmpVolumeDown', 00H ; `string'
CONST	ENDS
;	COMDAT ??_C@_0P@BKINAFOH@WinAmpVolumeUp?$AA@
CONST	SEGMENT
??_C@_0P@BKINAFOH@WinAmpVolumeUp?$AA@ DB 'WinAmpVolumeUp', 00H ; `string'
CONST	ENDS
;	COMDAT ??_C@_0BF@GPFOEHLG@WinAmpTogglePlayback?$AA@
CONST	SEGMENT
??_C@_0BF@GPFOEHLG@WinAmpTogglePlayback?$AA@ DB 'WinAmpTogglePlayback', 00H ; `string'
CONST	ENDS
;	COMDAT ??_C@_0BE@PAPICFEI@WinAmpStartPlayback?$AA@
CONST	SEGMENT
??_C@_0BE@PAPICFEI@WinAmpStartPlayback?$AA@ DB 'WinAmpStartPlayback', 00H ; `string'
CONST	ENDS
;	COMDAT ??_C@_0BD@DGKAGMML@WinAmpStopPlayback?$AA@
CONST	SEGMENT
??_C@_0BD@DGKAGMML@WinAmpStopPlayback?$AA@ DB 'WinAmpStopPlayback', 00H ; `string'
CONST	ENDS
;	COMDAT ??_C@_0BE@PEBMLEGF@WinAmpPreviousTrack?$AA@
CONST	SEGMENT
??_C@_0BE@PEBMLEGF@WinAmpPreviousTrack?$AA@ DB 'WinAmpPreviousTrack', 00H ; `string'
CONST	ENDS
;	COMDAT ?digits10@?$numeric_limits@J@std@@2HB
CONST	SEGMENT
?digits10@?$numeric_limits@J@std@@2HB DD 09H		; std::numeric_limits<long>::digits10
CONST	ENDS
;	COMDAT ??_C@_0BA@NHDAFIHN@WinAmpNextTrack?$AA@
CONST	SEGMENT
??_C@_0BA@NHDAFIHN@WinAmpNextTrack?$AA@ DB 'WinAmpNextTrack', 00H ; `string'
CONST	ENDS
;	COMDAT ??_C@_0BG@BKINLCJO@ToggleDisplacementCam?$AA@
CONST	SEGMENT
??_C@_0BG@BKINLCJO@ToggleDisplacementCam?$AA@ DB 'ToggleDisplacementCam', 00H ; `string'
CONST	ENDS
;	COMDAT ??_C@_0O@IMPPCDIM@ToggleInfoBar?$AA@
CONST	SEGMENT
??_C@_0O@IMPPCDIM@ToggleInfoBar?$AA@ DB 'ToggleInfoBar', 00H ; `string'
CONST	ENDS
;	COMDAT ??_C@_0BA@DKMFPGEA@ToggleSubTitles?$AA@
CONST	SEGMENT
??_C@_0BA@DKMFPGEA@ToggleSubTitles?$AA@ DB 'ToggleSubTitles', 00H ; `string'
CONST	ENDS
;	COMDAT ?digits@?$numeric_limits@J@std@@2HB
CONST	SEGMENT
?digits@?$numeric_limits@J@std@@2HB DD 01fH		; std::numeric_limits<long>::digits
CONST	ENDS
;	COMDAT ??_C@_0P@DNHJJMDE@ToggleProfiler?$AA@
CONST	SEGMENT
??_C@_0P@DNHJJMDE@ToggleProfiler?$AA@ DB 'ToggleProfiler', 00H ; `string'
CONST	ENDS
;	COMDAT ??_C@_0BG@MBIOIECJ@ToggleProfilerDisplay?$AA@
