; Listing generated by Microsoft (R) Optimizing Compiler Version 17.00.51106.1 

	TITLE	C:\Users\Zhitao Li\Documents\Visual Studio 2012\Projects\Freefalcon\SIM\SIMINPUT\radiocmds.cpp
	.686P
	.XMM
	include listing.inc
	.model	flat

INCLUDELIB LIBCMT
INCLUDELIB OLDNAMES

PUBLIC	?traps@_Num_base@std@@2_NB			; std::_Num_base::traps
PUBLIC	?round_style@_Num_base@std@@2W4float_round_style@2@B ; std::_Num_base::round_style
PUBLIC	?digits@_Num_base@std@@2HB			; std::_Num_base::digits
PUBLIC	?digits10@_Num_base@std@@2HB			; std::_Num_base::digits10
PUBLIC	?max_digits10@_Num_base@std@@2HB		; std::_Num_base::max_digits10
PUBLIC	?max_exponent@_Num_base@std@@2HB		; std::_Num_base::max_exponent
PUBLIC	?max_exponent10@_Num_base@std@@2HB		; std::_Num_base::max_exponent10
PUBLIC	?min_exponent@_Num_base@std@@2HB		; std::_Num_base::min_exponent
PUBLIC	?min_exponent10@_Num_base@std@@2HB		; std::_Num_base::min_exponent10
PUBLIC	?radix@_Num_base@std@@2HB			; std::_Num_base::radix
PUBLIC	?is_bounded@_Num_int_base@std@@2_NB		; std::_Num_int_base::is_bounded
PUBLIC	?is_exact@_Num_int_base@std@@2_NB		; std::_Num_int_base::is_exact
PUBLIC	?is_integer@_Num_int_base@std@@2_NB		; std::_Num_int_base::is_integer
PUBLIC	?is_modulo@_Num_int_base@std@@2_NB		; std::_Num_int_base::is_modulo
PUBLIC	?skipws@?$_Iosb@H@std@@2W4_Fmtflags@12@B	; std::_Iosb<int>::skipws
PUBLIC	?is_specialized@_Num_int_base@std@@2_NB		; std::_Num_int_base::is_specialized
PUBLIC	?unitbuf@?$_Iosb@H@std@@2W4_Fmtflags@12@B	; std::_Iosb<int>::unitbuf
PUBLIC	?radix@_Num_int_base@std@@2HB			; std::_Num_int_base::radix
PUBLIC	?uppercase@?$_Iosb@H@std@@2W4_Fmtflags@12@B	; std::_Iosb<int>::uppercase
PUBLIC	?showbase@?$_Iosb@H@std@@2W4_Fmtflags@12@B	; std::_Iosb<int>::showbase
PUBLIC	?showpoint@?$_Iosb@H@std@@2W4_Fmtflags@12@B	; std::_Iosb<int>::showpoint
PUBLIC	?has_denorm@_Num_float_base@std@@2W4float_denorm_style@2@B ; std::_Num_float_base::has_denorm
PUBLIC	?showpos@?$_Iosb@H@std@@2W4_Fmtflags@12@B	; std::_Iosb<int>::showpos
PUBLIC	?has_denorm_loss@_Num_float_base@std@@2_NB	; std::_Num_float_base::has_denorm_loss
PUBLIC	?SIMDIRTYDATA_INTERVAL@FalconEntity@@2KB	; FalconEntity::SIMDIRTYDATA_INTERVAL
PUBLIC	?left@?$_Iosb@H@std@@2W4_Fmtflags@12@B		; std::_Iosb<int>::left
PUBLIC	?CMPDIRTYDATA_INTERVAL@FalconEntity@@2KB	; FalconEntity::CMPDIRTYDATA_INTERVAL
PUBLIC	?has_infinity@_Num_float_base@std@@2_NB		; std::_Num_float_base::has_infinity
PUBLIC	?right@?$_Iosb@H@std@@2W4_Fmtflags@12@B		; std::_Iosb<int>::right
PUBLIC	?has_quiet_NaN@_Num_float_base@std@@2_NB	; std::_Num_float_base::has_quiet_NaN
PUBLIC	?internal@?$_Iosb@H@std@@2W4_Fmtflags@12@B	; std::_Iosb<int>::internal
PUBLIC	?has_signaling_NaN@_Num_float_base@std@@2_NB	; std::_Num_float_base::has_signaling_NaN
PUBLIC	?dec@?$_Iosb@H@std@@2W4_Fmtflags@12@B		; std::_Iosb<int>::dec
PUBLIC	?is_bounded@_Num_float_base@std@@2_NB		; std::_Num_float_base::is_bounded
PUBLIC	?oct@?$_Iosb@H@std@@2W4_Fmtflags@12@B		; std::_Iosb<int>::oct
PUBLIC	?is_exact@_Num_float_base@std@@2_NB		; std::_Num_float_base::is_exact
PUBLIC	?hex@?$_Iosb@H@std@@2W4_Fmtflags@12@B		; std::_Iosb<int>::hex
PUBLIC	?is_iec559@_Num_float_base@std@@2_NB		; std::_Num_float_base::is_iec559
PUBLIC	?scientific@?$_Iosb@H@std@@2W4_Fmtflags@12@B	; std::_Iosb<int>::scientific
PUBLIC	?is_integer@_Num_float_base@std@@2_NB		; std::_Num_float_base::is_integer
PUBLIC	?fixed@?$_Iosb@H@std@@2W4_Fmtflags@12@B		; std::_Iosb<int>::fixed
PUBLIC	?is_modulo@_Num_float_base@std@@2_NB		; std::_Num_float_base::is_modulo
PUBLIC	?hexfloat@?$_Iosb@H@std@@2W4_Fmtflags@12@B	; std::_Iosb<int>::hexfloat
PUBLIC	?is_signed@_Num_float_base@std@@2_NB		; std::_Num_float_base::is_signed
PUBLIC	?boolalpha@?$_Iosb@H@std@@2W4_Fmtflags@12@B	; std::_Iosb<int>::boolalpha
PUBLIC	?is_specialized@_Num_float_base@std@@2_NB	; std::_Num_float_base::is_specialized
PUBLIC	?_Stdio@?$_Iosb@H@std@@2W4_Fmtflags@12@B	; std::_Iosb<int>::_Stdio
PUBLIC	?tinyness_before@_Num_float_base@std@@2_NB	; std::_Num_float_base::tinyness_before
PUBLIC	?adjustfield@?$_Iosb@H@std@@2W4_Fmtflags@12@B	; std::_Iosb<int>::adjustfield
PUBLIC	?traps@_Num_float_base@std@@2_NB		; std::_Num_float_base::traps
PUBLIC	?basefield@?$_Iosb@H@std@@2W4_Fmtflags@12@B	; std::_Iosb<int>::basefield
PUBLIC	?round_style@_Num_float_base@std@@2W4float_round_style@2@B ; std::_Num_float_base::round_style
PUBLIC	?floatfield@?$_Iosb@H@std@@2W4_Fmtflags@12@B	; std::_Iosb<int>::floatfield
PUBLIC	?radix@_Num_float_base@std@@2HB			; std::_Num_float_base::radix
PUBLIC	?goodbit@?$_Iosb@H@std@@2W4_Iostate@12@B	; std::_Iosb<int>::goodbit
PUBLIC	?eofbit@?$_Iosb@H@std@@2W4_Iostate@12@B		; std::_Iosb<int>::eofbit
PUBLIC	?failbit@?$_Iosb@H@std@@2W4_Iostate@12@B	; std::_Iosb<int>::failbit
PUBLIC	?badbit@?$_Iosb@H@std@@2W4_Iostate@12@B		; std::_Iosb<int>::badbit
PUBLIC	?_Hardfail@?$_Iosb@H@std@@2W4_Iostate@12@B	; std::_Iosb<int>::_Hardfail
PUBLIC	?in@?$_Iosb@H@std@@2W4_Openmode@12@B		; std::_Iosb<int>::in
PUBLIC	?is_signed@?$numeric_limits@D@std@@2_NB		; std::numeric_limits<char>::is_signed
PUBLIC	?out@?$_Iosb@H@std@@2W4_Openmode@12@B		; std::_Iosb<int>::out
PUBLIC	?digits@?$numeric_limits@D@std@@2HB		; std::numeric_limits<char>::digits
PUBLIC	?ate@?$_Iosb@H@std@@2W4_Openmode@12@B		; std::_Iosb<int>::ate
PUBLIC	?digits10@?$numeric_limits@D@std@@2HB		; std::numeric_limits<char>::digits10
PUBLIC	?app@?$_Iosb@H@std@@2W4_Openmode@12@B		; std::_Iosb<int>::app
PUBLIC	?trunc@?$_Iosb@H@std@@2W4_Openmode@12@B		; std::_Iosb<int>::trunc
PUBLIC	?_Nocreate@?$_Iosb@H@std@@2W4_Openmode@12@B	; std::_Iosb<int>::_Nocreate
PUBLIC	?_Noreplace@?$_Iosb@H@std@@2W4_Openmode@12@B	; std::_Iosb<int>::_Noreplace
PUBLIC	?binary@?$_Iosb@H@std@@2W4_Openmode@12@B	; std::_Iosb<int>::binary
PUBLIC	?beg@?$_Iosb@H@std@@2W4_Seekdir@12@B		; std::_Iosb<int>::beg
PUBLIC	?cur@?$_Iosb@H@std@@2W4_Seekdir@12@B		; std::_Iosb<int>::cur
PUBLIC	?end@?$_Iosb@H@std@@2W4_Seekdir@12@B		; std::_Iosb<int>::end
PUBLIC	?is_signed@?$numeric_limits@_W@std@@2_NB	; std::numeric_limits<wchar_t>::is_signed
PUBLIC	?digits@?$numeric_limits@_W@std@@2HB		; std::numeric_limits<wchar_t>::digits
PUBLIC	?digits10@?$numeric_limits@_W@std@@2HB		; std::numeric_limits<wchar_t>::digits10
PUBLIC	?_Stream_err@failure@ios_base@std@@0W4io_errc@43@B ; std::ios_base::failure::_Stream_err
PUBLIC	?is_modulo@?$numeric_limits@_N@std@@2_NB	; std::numeric_limits<bool>::is_modulo
PUBLIC	?is_signed@?$numeric_limits@_N@std@@2_NB	; std::numeric_limits<bool>::is_signed
PUBLIC	?digits@?$numeric_limits@_N@std@@2HB		; std::numeric_limits<bool>::digits
PUBLIC	?digits10@?$numeric_limits@_N@std@@2HB		; std::numeric_limits<bool>::digits10
PUBLIC	?is_signed@?$numeric_limits@C@std@@2_NB		; std::numeric_limits<signed char>::is_signed
PUBLIC	?digits@?$numeric_limits@C@std@@2HB		; std::numeric_limits<signed char>::digits
PUBLIC	?digits10@?$numeric_limits@C@std@@2HB		; std::numeric_limits<signed char>::digits10
PUBLIC	?is_signed@?$numeric_limits@E@std@@2_NB		; std::numeric_limits<unsigned char>::is_signed
PUBLIC	?value@?$integral_constant@_N$0A@@std@@2_NB	; std::integral_constant<bool,0>::value
PUBLIC	?digits@?$numeric_limits@E@std@@2HB		; std::numeric_limits<unsigned char>::digits
PUBLIC	?digits10@?$numeric_limits@E@std@@2HB		; std::numeric_limits<unsigned char>::digits10
PUBLIC	?value@?$integral_constant@_N$00@std@@2_NB	; std::integral_constant<bool,1>::value
PUBLIC	?is_signed@?$numeric_limits@F@std@@2_NB		; std::numeric_limits<short>::is_signed
PUBLIC	?digits@?$numeric_limits@F@std@@2HB		; std::numeric_limits<short>::digits
PUBLIC	?digits10@?$numeric_limits@F@std@@2HB		; std::numeric_limits<short>::digits10
PUBLIC	?is_signed@?$numeric_limits@G@std@@2_NB		; std::numeric_limits<unsigned short>::is_signed
PUBLIC	?digits@?$numeric_limits@G@std@@2HB		; std::numeric_limits<unsigned short>::digits
PUBLIC	?digits10@?$numeric_limits@G@std@@2HB		; std::numeric_limits<unsigned short>::digits10
PUBLIC	?is_signed@?$numeric_limits@H@std@@2_NB		; std::numeric_limits<int>::is_signed
PUBLIC	?value@?$_Sizeof@HU_Nil@std@@U12@U12@U12@U12@U12@U12@@std@@2IB ; std::_Sizeof<int,std::_Nil,std::_Nil,std::_Nil,std::_Nil,std::_Nil,std::_Nil,std::_Nil>::value
PUBLIC	?digits@?$numeric_limits@H@std@@2HB		; std::numeric_limits<int>::digits
PUBLIC	?digits10@?$numeric_limits@H@std@@2HB		; std::numeric_limits<int>::digits10
PUBLIC	?is_signed@?$numeric_limits@I@std@@2_NB		; std::numeric_limits<unsigned int>::is_signed
PUBLIC	?digits@?$numeric_limits@I@std@@2HB		; std::numeric_limits<unsigned int>::digits
PUBLIC	?digits10@?$numeric_limits@I@std@@2HB		; std::numeric_limits<unsigned int>::digits10
PUBLIC	?is_signed@?$numeric_limits@J@std@@2_NB		; std::numeric_limits<long>::is_signed
PUBLIC	?digits@?$numeric_limits@J@std@@2HB		; std::numeric_limits<long>::digits
PUBLIC	?digits10@?$numeric_limits@J@std@@2HB		; std::numeric_limits<long>::digits10
PUBLIC	?collate@?$_Locbase@H@std@@2HB			; std::_Locbase<int>::collate
PUBLIC	?ctype@?$_Locbase@H@std@@2HB			; std::_Locbase<int>::ctype
PUBLIC	?monetary@?$_Locbase@H@std@@2HB			; std::_Locbase<int>::monetary
PUBLIC	?numeric@?$_Locbase@H@std@@2HB			; std::_Locbase<int>::numeric
PUBLIC	?time@?$_Locbase@H@std@@2HB			; std::_Locbase<int>::time
PUBLIC	?messages@?$_Locbase@H@std@@2HB			; std::_Locbase<int>::messages
PUBLIC	?all@?$_Locbase@H@std@@2HB			; std::_Locbase<int>::all
PUBLIC	?none@?$_Locbase@H@std@@2HB			; std::_Locbase<int>::none
PUBLIC	?is_signed@?$numeric_limits@K@std@@2_NB		; std::numeric_limits<unsigned long>::is_signed
PUBLIC	?digits@?$numeric_limits@K@std@@2HB		; std::numeric_limits<unsigned long>::digits
PUBLIC	?digits10@?$numeric_limits@K@std@@2HB		; std::numeric_limits<unsigned long>::digits10
PUBLIC	?is_signed@?$numeric_limits@_J@std@@2_NB	; std::numeric_limits<__int64>::is_signed
PUBLIC	?digits@?$numeric_limits@_J@std@@2HB		; std::numeric_limits<__int64>::digits
PUBLIC	?digits10@?$numeric_limits@_J@std@@2HB		; std::numeric_limits<__int64>::digits10
PUBLIC	?is_signed@?$numeric_limits@_K@std@@2_NB	; std::numeric_limits<unsigned __int64>::is_signed
PUBLIC	?digits@?$numeric_limits@_K@std@@2HB		; std::numeric_limits<unsigned __int64>::digits
PUBLIC	?digits10@?$numeric_limits@_K@std@@2HB		; std::numeric_limits<unsigned __int64>::digits10
PUBLIC	?table_size@?$ctype@D@std@@2IB			; std::ctype<char>::table_size
PUBLIC	?digits@?$numeric_limits@M@std@@2HB		; std::numeric_limits<float>::digits
PUBLIC	?digits10@?$numeric_limits@M@std@@2HB		; std::numeric_limits<float>::digits10
PUBLIC	?max_digits10@?$numeric_limits@M@std@@2HB	; std::numeric_limits<float>::max_digits10
PUBLIC	?max_exponent@?$numeric_limits@M@std@@2HB	; std::numeric_limits<float>::max_exponent
PUBLIC	?max_exponent10@?$numeric_limits@M@std@@2HB	; std::numeric_limits<float>::max_exponent10
PUBLIC	?min_exponent@?$numeric_limits@M@std@@2HB	; std::numeric_limits<float>::min_exponent
PUBLIC	?min_exponent10@?$numeric_limits@M@std@@2HB	; std::numeric_limits<float>::min_exponent10
PUBLIC	?value@?$integral_constant@I$0A@@std@@2IB	; std::integral_constant<unsigned int,0>::value
PUBLIC	?digits@?$numeric_limits@N@std@@2HB		; std::numeric_limits<double>::digits
PUBLIC	?digits10@?$numeric_limits@N@std@@2HB		; std::numeric_limits<double>::digits10
PUBLIC	?max_digits10@?$numeric_limits@N@std@@2HB	; std::numeric_limits<double>::max_digits10
PUBLIC	?max_exponent@?$numeric_limits@N@std@@2HB	; std::numeric_limits<double>::max_exponent
PUBLIC	?max_exponent10@?$numeric_limits@N@std@@2HB	; std::numeric_limits<double>::max_exponent10
PUBLIC	?min_exponent@?$numeric_limits@N@std@@2HB	; std::numeric_limits<double>::min_exponent
PUBLIC	?min_exponent10@?$numeric_limits@N@std@@2HB	; std::numeric_limits<double>::min_exponent10
PUBLIC	?digits@?$numeric_limits@O@std@@2HB		; std::numeric_limits<long double>::digits
PUBLIC	?digits10@?$numeric_limits@O@std@@2HB		; std::numeric_limits<long double>::digits10
PUBLIC	?max_digits10@?$numeric_limits@O@std@@2HB	; std::numeric_limits<long double>::max_digits10
PUBLIC	?max_exponent@?$numeric_limits@O@std@@2HB	; std::numeric_limits<long double>::max_exponent
PUBLIC	?max_exponent10@?$numeric_limits@O@std@@2HB	; std::numeric_limits<long double>::max_exponent10
PUBLIC	?min_exponent@?$numeric_limits@O@std@@2HB	; std::numeric_limits<long double>::min_exponent
PUBLIC	?min_exponent10@?$numeric_limits@O@std@@2HB	; std::numeric_limits<long double>::min_exponent10
PUBLIC	?value@?$_Sizeof@U_Nil@std@@U12@U12@U12@U12@U12@U12@U12@@std@@2IB ; std::_Sizeof<std::_Nil,std::_Nil,std::_Nil,std::_Nil,std::_Nil,std::_Nil,std::_Nil,std::_Nil>::value
PUBLIC	?has_denorm@_Num_base@std@@2W4float_denorm_style@2@B ; std::_Num_base::has_denorm
PUBLIC	?has_denorm_loss@_Num_base@std@@2_NB		; std::_Num_base::has_denorm_loss
PUBLIC	?has_infinity@_Num_base@std@@2_NB		; std::_Num_base::has_infinity
PUBLIC	?has_quiet_NaN@_Num_base@std@@2_NB		; std::_Num_base::has_quiet_NaN
PUBLIC	?has_signaling_NaN@_Num_base@std@@2_NB		; std::_Num_base::has_signaling_NaN
PUBLIC	?is_bounded@_Num_base@std@@2_NB			; std::_Num_base::is_bounded
PUBLIC	?is_exact@_Num_base@std@@2_NB			; std::_Num_base::is_exact
PUBLIC	?is_iec559@_Num_base@std@@2_NB			; std::_Num_base::is_iec559
PUBLIC	?is_integer@_Num_base@std@@2_NB			; std::_Num_base::is_integer
PUBLIC	?is_modulo@_Num_base@std@@2_NB			; std::_Num_base::is_modulo
PUBLIC	?is_signed@_Num_base@std@@2_NB			; std::_Num_base::is_signed
PUBLIC	?is_specialized@_Num_base@std@@2_NB		; std::_Num_base::is_specialized
PUBLIC	?tinyness_before@_Num_base@std@@2_NB		; std::_Num_base::tinyness_before
;	COMDAT ?tinyness_before@_Num_base@std@@2_NB
CONST	SEGMENT
?tinyness_before@_Num_base@std@@2_NB DB 00H		; std::_Num_base::tinyness_before
CONST	ENDS
;	COMDAT ?is_specialized@_Num_base@std@@2_NB
CONST	SEGMENT
?is_specialized@_Num_base@std@@2_NB DB 00H		; std::_Num_base::is_specialized
CONST	ENDS
;	COMDAT ?is_signed@_Num_base@std@@2_NB
CONST	SEGMENT
?is_signed@_Num_base@std@@2_NB DB 00H			; std::_Num_base::is_signed
CONST	ENDS
;	COMDAT ?is_modulo@_Num_base@std@@2_NB
CONST	SEGMENT
?is_modulo@_Num_base@std@@2_NB DB 00H			; std::_Num_base::is_modulo
CONST	ENDS
;	COMDAT ?is_integer@_Num_base@std@@2_NB
CONST	SEGMENT
?is_integer@_Num_base@std@@2_NB DB 00H			; std::_Num_base::is_integer
CONST	ENDS
;	COMDAT ?is_iec559@_Num_base@std@@2_NB
CONST	SEGMENT
?is_iec559@_Num_base@std@@2_NB DB 00H			; std::_Num_base::is_iec559
CONST	ENDS
;	COMDAT ?is_exact@_Num_base@std@@2_NB
CONST	SEGMENT
?is_exact@_Num_base@std@@2_NB DB 00H			; std::_Num_base::is_exact
CONST	ENDS
;	COMDAT ?is_bounded@_Num_base@std@@2_NB
CONST	SEGMENT
?is_bounded@_Num_base@std@@2_NB DB 00H			; std::_Num_base::is_bounded
CONST	ENDS
;	COMDAT ?has_signaling_NaN@_Num_base@std@@2_NB
CONST	SEGMENT
?has_signaling_NaN@_Num_base@std@@2_NB DB 00H		; std::_Num_base::has_signaling_NaN
CONST	ENDS
;	COMDAT ?has_quiet_NaN@_Num_base@std@@2_NB
CONST	SEGMENT
?has_quiet_NaN@_Num_base@std@@2_NB DB 00H		; std::_Num_base::has_quiet_NaN
CONST	ENDS
;	COMDAT ?has_infinity@_Num_base@std@@2_NB
CONST	SEGMENT
?has_infinity@_Num_base@std@@2_NB DB 00H		; std::_Num_base::has_infinity
CONST	ENDS
;	COMDAT ?has_denorm_loss@_Num_base@std@@2_NB
CONST	SEGMENT
?has_denorm_loss@_Num_base@std@@2_NB DB 00H		; std::_Num_base::has_denorm_loss
CONST	ENDS
;	COMDAT ?has_denorm@_Num_base@std@@2W4float_denorm_style@2@B
CONST	SEGMENT
?has_denorm@_Num_base@std@@2W4float_denorm_style@2@B DD 00H ; std::_Num_base::has_denorm
CONST	ENDS
;	COMDAT ?value@?$_Sizeof@U_Nil@std@@U12@U12@U12@U12@U12@U12@U12@@std@@2IB
CONST	SEGMENT
?value@?$_Sizeof@U_Nil@std@@U12@U12@U12@U12@U12@U12@U12@@std@@2IB DD 00H ; std::_Sizeof<std::_Nil,std::_Nil,std::_Nil,std::_Nil,std::_Nil,std::_Nil,std::_Nil,std::_Nil>::value
CONST	ENDS
;	COMDAT ?min_exponent10@?$numeric_limits@O@std@@2HB
CONST	SEGMENT
?min_exponent10@?$numeric_limits@O@std@@2HB DD 0fffffecdH ; std::numeric_limits<long double>::min_exponent10
CONST	ENDS
;	COMDAT ?min_exponent@?$numeric_limits@O@std@@2HB
CONST	SEGMENT
?min_exponent@?$numeric_limits@O@std@@2HB DD 0fffffc03H	; std::numeric_limits<long double>::min_exponent
CONST	ENDS
;	COMDAT ?max_exponent10@?$numeric_limits@O@std@@2HB
CONST	SEGMENT
?max_exponent10@?$numeric_limits@O@std@@2HB DD 0134H	; std::numeric_limits<long double>::max_exponent10
CONST	ENDS
;	COMDAT ?max_exponent@?$numeric_limits@O@std@@2HB
CONST	SEGMENT
?max_exponent@?$numeric_limits@O@std@@2HB DD 0400H	; std::numeric_limits<long double>::max_exponent
CONST	ENDS
;	COMDAT ?max_digits10@?$numeric_limits@O@std@@2HB
CONST	SEGMENT
?max_digits10@?$numeric_limits@O@std@@2HB DD 011H	; std::numeric_limits<long double>::max_digits10
CONST	ENDS
;	COMDAT ?digits10@?$numeric_limits@O@std@@2HB
CONST	SEGMENT
?digits10@?$numeric_limits@O@std@@2HB DD 0fH		; std::numeric_limits<long double>::digits10
CONST	ENDS
;	COMDAT ?digits@?$numeric_limits@O@std@@2HB
CONST	SEGMENT
?digits@?$numeric_limits@O@std@@2HB DD 035H		; std::numeric_limits<long double>::digits
CONST	ENDS
;	COMDAT ?min_exponent10@?$numeric_limits@N@std@@2HB
CONST	SEGMENT
?min_exponent10@?$numeric_limits@N@std@@2HB DD 0fffffecdH ; std::numeric_limits<double>::min_exponent10
CONST	ENDS
;	COMDAT ?min_exponent@?$numeric_limits@N@std@@2HB
CONST	SEGMENT
?min_exponent@?$numeric_limits@N@std@@2HB DD 0fffffc03H	; std::numeric_limits<double>::min_exponent
CONST	ENDS
;	COMDAT ?max_exponent10@?$numeric_limits@N@std@@2HB
CONST	SEGMENT
?max_exponent10@?$numeric_limits@N@std@@2HB DD 0134H	; std::numeric_limits<double>::max_exponent10
CONST	ENDS
;	COMDAT ?max_exponent@?$numeric_limits@N@std@@2HB
CONST	SEGMENT
?max_exponent@?$numeric_limits@N@std@@2HB DD 0400H	; std::numeric_limits<double>::max_exponent
CONST	ENDS
;	COMDAT ?max_digits10@?$numeric_limits@N@std@@2HB
CONST	SEGMENT
?max_digits10@?$numeric_limits@N@std@@2HB DD 011H	; std::numeric_limits<double>::max_digits10
CONST	ENDS
;	COMDAT ?digits10@?$numeric_limits@N@std@@2HB
CONST	SEGMENT
?digits10@?$numeric_limits@N@std@@2HB DD 0fH		; std::numeric_limits<double>::digits10
CONST	ENDS
;	COMDAT ?digits@?$numeric_limits@N@std@@2HB
CONST	SEGMENT
?digits@?$numeric_limits@N@std@@2HB DD 035H		; std::numeric_limits<double>::digits
CONST	ENDS
;	COMDAT ?value@?$integral_constant@I$0A@@std@@2IB
CONST	SEGMENT
?value@?$integral_constant@I$0A@@std@@2IB DD 00H	; std::integral_constant<unsigned int,0>::value
CONST	ENDS
;	COMDAT ?min_exponent10@?$numeric_limits@M@std@@2HB
CONST	SEGMENT
?min_exponent10@?$numeric_limits@M@std@@2HB DD 0ffffffdbH ; std::numeric_limits<float>::min_exponent10
CONST	ENDS
;	COMDAT ?min_exponent@?$numeric_limits@M@std@@2HB
CONST	SEGMENT
?min_exponent@?$numeric_limits@M@std@@2HB DD 0ffffff83H	; std::numeric_limits<float>::min_exponent
CONST	ENDS
;	COMDAT ?max_exponent10@?$numeric_limits@M@std@@2HB
CONST	SEGMENT
?max_exponent10@?$numeric_limits@M@std@@2HB DD 026H	; std::numeric_limits<float>::max_exponent10
CONST	ENDS
;	COMDAT ?max_exponent@?$numeric_limits@M@std@@2HB
CONST	SEGMENT
?max_exponent@?$numeric_limits@M@std@@2HB DD 080H	; std::numeric_limits<float>::max_exponent
CONST	ENDS
;	COMDAT ?max_digits10@?$numeric_limits@M@std@@2HB
CONST	SEGMENT
?max_digits10@?$numeric_limits@M@std@@2HB DD 09H	; std::numeric_limits<float>::max_digits10
CONST	ENDS
;	COMDAT ?digits10@?$numeric_limits@M@std@@2HB
CONST	SEGMENT
?digits10@?$numeric_limits@M@std@@2HB DD 06H		; std::numeric_limits<float>::digits10
CONST	ENDS
;	COMDAT ?digits@?$numeric_limits@M@std@@2HB
CONST	SEGMENT
?digits@?$numeric_limits@M@std@@2HB DD 018H		; std::numeric_limits<float>::digits
CONST	ENDS
;	COMDAT ?table_size@?$ctype@D@std@@2IB
CONST	SEGMENT
?table_size@?$ctype@D@std@@2IB DD 0100H			; std::ctype<char>::table_size
CONST	ENDS
;	COMDAT ?digits10@?$numeric_limits@_K@std@@2HB
CONST	SEGMENT
?digits10@?$numeric_limits@_K@std@@2HB DD 013H		; std::numeric_limits<unsigned __int64>::digits10
CONST	ENDS
;	COMDAT ?digits@?$numeric_limits@_K@std@@2HB
CONST	SEGMENT
?digits@?$numeric_limits@_K@std@@2HB DD 040H		; std::numeric_limits<unsigned __int64>::digits
CONST	ENDS
;	COMDAT ?is_signed@?$numeric_limits@_K@std@@2_NB
CONST	SEGMENT
?is_signed@?$numeric_limits@_K@std@@2_NB DB 00H		; std::numeric_limits<unsigned __int64>::is_signed
CONST	ENDS
;	COMDAT ?digits10@?$numeric_limits@_J@std@@2HB
CONST	SEGMENT
?digits10@?$numeric_limits@_J@std@@2HB DD 012H		; std::numeric_limits<__int64>::digits10
CONST	ENDS
;	COMDAT ?digits@?$numeric_limits@_J@std@@2HB
CONST	SEGMENT
?digits@?$numeric_limits@_J@std@@2HB DD 03fH		; std::numeric_limits<__int64>::digits
CONST	ENDS
;	COMDAT ?is_signed@?$numeric_limits@_J@std@@2_NB
CONST	SEGMENT
?is_signed@?$numeric_limits@_J@std@@2_NB DB 01H		; std::numeric_limits<__int64>::is_signed
CONST	ENDS
;	COMDAT ?digits10@?$numeric_limits@K@std@@2HB
CONST	SEGMENT
?digits10@?$numeric_limits@K@std@@2HB DD 09H		; std::numeric_limits<unsigned long>::digits10
CONST	ENDS
;	COMDAT ?digits@?$numeric_limits@K@std@@2HB
CONST	SEGMENT
?digits@?$numeric_limits@K@std@@2HB DD 020H		; std::numeric_limits<unsigned long>::digits
CONST	ENDS
;	COMDAT ?is_signed@?$numeric_limits@K@std@@2_NB
CONST	SEGMENT
?is_signed@?$numeric_limits@K@std@@2_NB DB 00H		; std::numeric_limits<unsigned long>::is_signed
CONST	ENDS
;	COMDAT ?none@?$_Locbase@H@std@@2HB
CONST	SEGMENT
?none@?$_Locbase@H@std@@2HB DD 00H			; std::_Locbase<int>::none
CONST	ENDS
;	COMDAT ?all@?$_Locbase@H@std@@2HB
CONST	SEGMENT
?all@?$_Locbase@H@std@@2HB DD 03fH			; std::_Locbase<int>::all
CONST	ENDS
;	COMDAT ?messages@?$_Locbase@H@std@@2HB
CONST	SEGMENT
?messages@?$_Locbase@H@std@@2HB DD 020H			; std::_Locbase<int>::messages
CONST	ENDS
;	COMDAT ?time@?$_Locbase@H@std@@2HB
CONST	SEGMENT
?time@?$_Locbase@H@std@@2HB DD 010H			; std::_Locbase<int>::time
CONST	ENDS
;	COMDAT ?numeric@?$_Locbase@H@std@@2HB
CONST	SEGMENT
?numeric@?$_Locbase@H@std@@2HB DD 08H			; std::_Locbase<int>::numeric
CONST	ENDS
;	COMDAT ?monetary@?$_Locbase@H@std@@2HB
CONST	SEGMENT
?monetary@?$_Locbase@H@std@@2HB DD 04H			; std::_Locbase<int>::monetary
CONST	ENDS
;	COMDAT ?ctype@?$_Locbase@H@std@@2HB
CONST	SEGMENT
?ctype@?$_Locbase@H@std@@2HB DD 02H			; std::_Locbase<int>::ctype
CONST	ENDS
;	COMDAT ?collate@?$_Locbase@H@std@@2HB
CONST	SEGMENT
?collate@?$_Locbase@H@std@@2HB DD 01H			; std::_Locbase<int>::collate
CONST	ENDS
;	COMDAT ?digits10@?$numeric_limits@J@std@@2HB
CONST	SEGMENT
?digits10@?$numeric_limits@J@std@@2HB DD 09H		; std::numeric_limits<long>::digits10
CONST	ENDS
;	COMDAT ?digits@?$numeric_limits@J@std@@2HB
CONST	SEGMENT
?digits@?$numeric_limits@J@std@@2HB DD 01fH		; std::numeric_limits<long>::digits
CONST	ENDS
;	COMDAT ?is_signed@?$numeric_limits@J@std@@2_NB
CONST	SEGMENT
?is_signed@?$numeric_limits@J@std@@2_NB DB 01H		; std::numeric_limits<long>::is_signed
CONST	ENDS
;	COMDAT ?digits10@?$numeric_limits@I@std@@2HB
CONST	SEGMENT
?digits10@?$numeric_limits@I@std@@2HB DD 09H		; std::numeric_limits<unsigned int>::digits10
CONST	ENDS
;	COMDAT ?digits@?$numeric_limits@I@std@@2HB
CONST	SEGMENT
?digits@?$numeric_limits@I@std@@2HB DD 020H		; std::numeric_limits<unsigned int>::digits
CONST	ENDS
;	COMDAT ?is_signed@?$numeric_limits@I@std@@2_NB
CONST	SEGMENT
?is_signed@?$numeric_limits@I@std@@2_NB DB 00H		; std::numeric_limits<unsigned int>::is_signed
CONST	ENDS
;	COMDAT ?digits10@?$numeric_limits@H@std@@2HB
CONST	SEGMENT
?digits10@?$numeric_limits@H@std@@2HB DD 09H		; std::numeric_limits<int>::digits10
CONST	ENDS
;	COMDAT ?digits@?$numeric_limits@H@std@@2HB
CONST	SEGMENT
?digits@?$numeric_limits@H@std@@2HB DD 01fH		; std::numeric_limits<int>::digits
CONST	ENDS
;	COMDAT ?value@?$_Sizeof@HU_Nil@std@@U12@U12@U12@U12@U12@U12@@std@@2IB
CONST	SEGMENT
?value@?$_Sizeof@HU_Nil@std@@U12@U12@U12@U12@U12@U12@@std@@2IB DD 01H ; std::_Sizeof<int,std::_Nil,std::_Nil,std::_Nil,std::_Nil,std::_Nil,std::_Nil,std::_Nil>::value
CONST	ENDS
;	COMDAT ?is_signed@?$numeric_limits@H@std@@2_NB
CONST	SEGMENT
?is_signed@?$numeric_limits@H@std@@2_NB DB 01H		; std::numeric_limits<int>::is_signed
CONST	ENDS
;	COMDAT ?digits10@?$numeric_limits@G@std@@2HB
CONST	SEGMENT
?digits10@?$numeric_limits@G@std@@2HB DD 04H		; std::numeric_limits<unsigned short>::digits10
CONST	ENDS
;	COMDAT ?digits@?$numeric_limits@G@std@@2HB
CONST	SEGMENT
?digits@?$numeric_limits@G@std@@2HB DD 010H		; std::numeric_limits<unsigned short>::digits
CONST	ENDS
;	COMDAT ?is_signed@?$numeric_limits@G@std@@2_NB
CONST	SEGMENT
?is_signed@?$numeric_limits@G@std@@2_NB DB 00H		; std::numeric_limits<unsigned short>::is_signed
CONST	ENDS
;	COMDAT ?digits10@?$numeric_limits@F@std@@2HB
CONST	SEGMENT
?digits10@?$numeric_limits@F@std@@2HB DD 04H		; std::numeric_limits<short>::digits10
CONST	ENDS
;	COMDAT ?digits@?$numeric_limits@F@std@@2HB
CONST	SEGMENT
?digits@?$numeric_limits@F@std@@2HB DD 0fH		; std::numeric_limits<short>::digits
CONST	ENDS
;	COMDAT ?is_signed@?$numeric_limits@F@std@@2_NB
CONST	SEGMENT
?is_signed@?$numeric_limits@F@std@@2_NB DB 01H		; std::numeric_limits<short>::is_signed
CONST	ENDS
;	COMDAT ?value@?$integral_constant@_N$00@std@@2_NB
CONST	SEGMENT
?value@?$integral_constant@_N$00@std@@2_NB DB 01H	; std::integral_constant<bool,1>::value
CONST	ENDS
;	COMDAT ?digits10@?$numeric_limits@E@std@@2HB
CONST	SEGMENT
?digits10@?$numeric_limits@E@std@@2HB DD 02H		; std::numeric_limits<unsigned char>::digits10
CONST	ENDS
;	COMDAT ?digits@?$numeric_limits@E@std@@2HB
CONST	SEGMENT
?digits@?$numeric_limits@E@std@@2HB DD 08H		; std::numeric_limits<unsigned char>::digits
CONST	ENDS
;	COMDAT ?value@?$integral_constant@_N$0A@@std@@2_NB
CONST	SEGMENT
?value@?$integral_constant@_N$0A@@std@@2_NB DB 00H	; std::integral_constant<bool,0>::value
CONST	ENDS
;	COMDAT ?is_signed@?$numeric_limits@E@std@@2_NB
CONST	SEGMENT
?is_signed@?$numeric_limits@E@std@@2_NB DB 00H		; std::numeric_limits<unsigned char>::is_signed
CONST	ENDS
;	COMDAT ?digits10@?$numeric_limits@C@std@@2HB
CONST	SEGMENT
?digits10@?$numeric_limits@C@std@@2HB DD 02H		; std::numeric_limits<signed char>::digits10
CONST	ENDS
;	COMDAT ?digits@?$numeric_limits@C@std@@2HB
CONST	SEGMENT
?digits@?$numeric_limits@C@std@@2HB DD 07H		; std::numeric_limits<signed char>::digits
CONST	ENDS
;	COMDAT ?is_signed@?$numeric_limits@C@std@@2_NB
CONST	SEGMENT
?is_signed@?$numeric_limits@C@std@@2_NB DB 01H		; std::numeric_limits<signed char>::is_signed
CONST	ENDS
CONST	SEGMENT
_L_2	DD	03f317218r			; 0.693147
CONST	ENDS
;	COMDAT ?digits10@?$numeric_limits@_N@std@@2HB
CONST	SEGMENT
?digits10@?$numeric_limits@_N@std@@2HB DD 00H		; std::numeric_limits<bool>::digits10
CONST	ENDS
;	COMDAT ?digits@?$numeric_limits@_N@std@@2HB
CONST	SEGMENT
?digits@?$numeric_limits@_N@std@@2HB DD 01H		; std::numeric_limits<bool>::digits
CONST	ENDS
;	COMDAT ?is_signed@?$numeric_limits@_N@std@@2_NB
CONST	SEGMENT
?is_signed@?$numeric_limits@_N@std@@2_NB DB 00H		; std::numeric_limits<bool>::is_signed
CONST	ENDS
;	COMDAT ?is_modulo@?$numeric_limits@_N@std@@2_NB
CONST	SEGMENT
?is_modulo@?$numeric_limits@_N@std@@2_NB DB 00H		; std::numeric_limits<bool>::is_modulo
CONST	ENDS
;	COMDAT ?_Stream_err@failure@ios_base@std@@0W4io_errc@43@B
CONST	SEGMENT
?_Stream_err@failure@ios_base@std@@0W4io_errc@43@B DD 01H ; std::ios_base::failure::_Stream_err
CONST	ENDS
;	COMDAT ?digits10@?$numeric_limits@_W@std@@2HB
CONST	SEGMENT
?digits10@?$numeric_limits@_W@std@@2HB DD 04H		; std::numeric_limits<wchar_t>::digits10
CONST	ENDS
;	COMDAT ?digits@?$numeric_limits@_W@std@@2HB
CONST	SEGMENT
?digits@?$numeric_limits@_W@std@@2HB DD 010H		; std::numeric_limits<wchar_t>::digits
CONST	ENDS
;	COMDAT ?is_signed@?$numeric_limits@_W@std@@2_NB
CONST	SEGMENT
?is_signed@?$numeric_limits@_W@std@@2_NB DB 00H		; std::numeric_limits<wchar_t>::is_signed
CONST	ENDS
;	COMDAT ?end@?$_Iosb@H@std@@2W4_Seekdir@12@B
CONST	SEGMENT
?end@?$_Iosb@H@std@@2W4_Seekdir@12@B DD 02H		; std::_Iosb<int>::end
CONST	ENDS
;	COMDAT ?cur@?$_Iosb@H@std@@2W4_Seekdir@12@B
CONST	SEGMENT
?cur@?$_Iosb@H@std@@2W4_Seekdir@12@B DD 01H		; std::_Iosb<int>::cur
CONST	ENDS
;	COMDAT ?beg@?$_Iosb@H@std@@2W4_Seekdir@12@B
CONST	SEGMENT
?beg@?$_Iosb@H@std@@2W4_Seekdir@12@B DD 00H		; std::_Iosb<int>::beg
CONST	ENDS
;	COMDAT ?binary@?$_Iosb@H@std@@2W4_Openmode@12@B
CONST	SEGMENT
?binary@?$_Iosb@H@std@@2W4_Openmode@12@B DD 020H	; std::_Iosb<int>::binary
CONST	ENDS
;	COMDAT ?_Noreplace@?$_Iosb@H@std@@2W4_Openmode@12@B
CONST	SEGMENT
?_Noreplace@?$_Iosb@H@std@@2W4_Openmode@12@B DD 080H	; std::_Iosb<int>::_Noreplace
CONST	ENDS
;	COMDAT ?_Nocreate@?$_Iosb@H@std@@2W4_Openmode@12@B
CONST	SEGMENT
?_Nocreate@?$_Iosb@H@std@@2W4_Openmode@12@B DD 040H	; std::_Iosb<int>::_Nocreate
CONST	ENDS
;	COMDAT ?trunc@?$_Iosb@H@std@@2W4_Openmode@12@B
CONST	SEGMENT
?trunc@?$_Iosb@H@std@@2W4_Openmode@12@B DD 010H		; std::_Iosb<int>::trunc
CONST	ENDS
;	COMDAT ?app@?$_Iosb@H@std@@2W4_Openmode@12@B
CONST	SEGMENT
?app@?$_Iosb@H@std@@2W4_Openmode@12@B DD 08H		; std::_Iosb<int>::app
CONST	ENDS
;	COMDAT ?digits10@?$numeric_limits@D@std@@2HB
CONST	SEGMENT
?digits10@?$numeric_limits@D@std@@2HB DD 02H		; std::numeric_limits<char>::digits10
CONST	ENDS
;	COMDAT ?ate@?$_Iosb@H@std@@2W4_Openmode@12@B
CONST	SEGMENT
?ate@?$_Iosb@H@std@@2W4_Openmode@12@B DD 04H		; std::_Iosb<int>::ate
CONST	ENDS
;	COMDAT ?digits@?$numeric_limits@D@std@@2HB
CONST	SEGMENT
?digits@?$numeric_limits@D@std@@2HB DD 07H		; std::numeric_limits<char>::digits
CONST	ENDS
;	COMDAT ?out@?$_Iosb@H@std@@2W4_Openmode@12@B
CONST	SEGMENT
?out@?$_Iosb@H@std@@2W4_Openmode@12@B DD 02H		; std::_Iosb<int>::out
CONST	ENDS
;	COMDAT ?is_signed@?$numeric_limits@D@std@@2_NB
CONST	SEGMENT
?is_signed@?$numeric_limits@D@std@@2_NB DB 01H		; std::numeric_limits<char>::is_signed
CONST	ENDS
;	COMDAT ?in@?$_Iosb@H@std@@2W4_Openmode@12@B
CONST	SEGMENT
?in@?$_Iosb@H@std@@2W4_Openmode@12@B DD 01H		; std::_Iosb<int>::in
CONST	ENDS
;	COMDAT ?_Hardfail@?$_Iosb@H@std@@2W4_Iostate@12@B
CONST	SEGMENT
?_Hardfail@?$_Iosb@H@std@@2W4_Iostate@12@B DD 010H	; std::_Iosb<int>::_Hardfail
CONST	ENDS
;	COMDAT ?badbit@?$_Iosb@H@std@@2W4_Iostate@12@B
CONST	SEGMENT
?badbit@?$_Iosb@H@std@@2W4_Iostate@12@B DD 04H		; std::_Iosb<int>::badbit
CONST	ENDS
;	COMDAT ?failbit@?$_Iosb@H@std@@2W4_Iostate@12@B
CONST	SEGMENT
?failbit@?$_Iosb@H@std@@2W4_Iostate@12@B DD 02H		; std::_Iosb<int>::failbit
CONST	ENDS
;	COMDAT ?eofbit@?$_Iosb@H@std@@2W4_Iostate@12@B
CONST	SEGMENT
?eofbit@?$_Iosb@H@std@@2W4_Iostate@12@B DD 01H		; std::_Iosb<int>::eofbit
CONST	ENDS
;	COMDAT ?goodbit@?$_Iosb@H@std@@2W4_Iostate@12@B
CONST	SEGMENT
?goodbit@?$_Iosb@H@std@@2W4_Iostate@12@B DD 00H		; std::_Iosb<int>::goodbit
CONST	ENDS
;	COMDAT ?radix@_Num_float_base@std@@2HB
CONST	SEGMENT
?radix@_Num_float_base@std@@2HB DD 02H			; std::_Num_float_base::radix
CONST	ENDS
;	COMDAT ?floatfield@?$_Iosb@H@std@@2W4_Fmtflags@12@B
CONST	SEGMENT
?floatfield@?$_Iosb@H@std@@2W4_Fmtflags@12@B DD 03000H	; std::_Iosb<int>::floatfield
CONST	ENDS
;	COMDAT ?round_style@_Num_float_base@std@@2W4float_round_style@2@B
CONST	SEGMENT
?round_style@_Num_float_base@std@@2W4float_round_style@2@B DD 01H ; std::_Num_float_base::round_style
CONST	ENDS
;	COMDAT ?basefield@?$_Iosb@H@std@@2W4_Fmtflags@12@B
CONST	SEGMENT
?basefield@?$_Iosb@H@std@@2W4_Fmtflags@12@B DD 0e00H	; std::_Iosb<int>::basefield
CONST	ENDS
;	COMDAT ?traps@_Num_float_base@std@@2_NB
CONST	SEGMENT
?traps@_Num_float_base@std@@2_NB DB 00H			; std::_Num_float_base::traps
CONST	ENDS
;	COMDAT ?adjustfield@?$_Iosb@H@std@@2W4_Fmtflags@12@B
CONST	SEGMENT
?adjustfield@?$_Iosb@H@std@@2W4_Fmtflags@12@B DD 01c0H	; std::_Iosb<int>::adjustfield
CONST	ENDS
;	COMDAT ?tinyness_before@_Num_float_base@std@@2_NB
CONST	SEGMENT
?tinyness_before@_Num_float_base@std@@2_NB DB 01H	; std::_Num_float_base::tinyness_before
CONST	ENDS
;	COMDAT ?_Stdio@?$_Iosb@H@std@@2W4_Fmtflags@12@B
CONST	SEGMENT
?_Stdio@?$_Iosb@H@std@@2W4_Fmtflags@12@B DD 08000H	; std::_Iosb<int>::_Stdio
CONST	ENDS
;	COMDAT ?is_specialized@_Num_float_base@std@@2_NB
CONST	SEGMENT
?is_specialized@_Num_float_base@std@@2_NB DB 01H	; std::_Num_float_base::is_specialized
CONST	ENDS
;	COMDAT ?boolalpha@?$_Iosb@H@std@@2W4_Fmtflags@12@B
CONST	SEGMENT
?boolalpha@?$_Iosb@H@std@@2W4_Fmtflags@12@B DD 04000H	; std::_Iosb<int>::boolalpha
CONST	ENDS
;	COMDAT ?is_signed@_Num_float_base@std@@2_NB
CONST	SEGMENT
?is_signed@_Num_float_base@std@@2_NB DB 01H		; std::_Num_float_base::is_signed
CONST	ENDS
;	COMDAT ?hexfloat@?$_Iosb@H@std@@2W4_Fmtflags@12@B
CONST	SEGMENT
?hexfloat@?$_Iosb@H@std@@2W4_Fmtflags@12@B DD 03000H	; std::_Iosb<int>::hexfloat
CONST	ENDS
;	COMDAT ?is_modulo@_Num_float_base@std@@2_NB
CONST	SEGMENT
?is_modulo@_Num_float_base@std@@2_NB DB 00H		; std::_Num_float_base::is_modulo
CONST	ENDS
;	COMDAT ?fixed@?$_Iosb@H@std@@2W4_Fmtflags@12@B
CONST	SEGMENT
?fixed@?$_Iosb@H@std@@2W4_Fmtflags@12@B DD 02000H	; std::_Iosb<int>::fixed
CONST	ENDS
;	COMDAT ?is_integer@_Num_float_base@std@@2_NB
CONST	SEGMENT
?is_integer@_Num_float_base@std@@2_NB DB 00H		; std::_Num_float_base::is_integer
CONST	ENDS
;	COMDAT ?scientific@?$_Iosb@H@std@@2W4_Fmtflags@12@B
CONST	SEGMENT
?scientific@?$_Iosb@H@std@@2W4_Fmtflags@12@B DD 01000H	; std::_Iosb<int>::scientific
CONST	ENDS
;	COMDAT ?is_iec559@_Num_float_base@std@@2_NB
CONST	SEGMENT
?is_iec559@_Num_float_base@std@@2_NB DB 01H		; std::_Num_float_base::is_iec559
CONST	ENDS
;	COMDAT ?hex@?$_Iosb@H@std@@2W4_Fmtflags@12@B
CONST	SEGMENT
?hex@?$_Iosb@H@std@@2W4_Fmtflags@12@B DD 0800H		; std::_Iosb<int>::hex
CONST	ENDS
;	COMDAT ?is_exact@_Num_float_base@std@@2_NB
CONST	SEGMENT
?is_exact@_Num_float_base@std@@2_NB DB 00H		; std::_Num_float_base::is_exact
CONST	ENDS
;	COMDAT ?oct@?$_Iosb@H@std@@2W4_Fmtflags@12@B
CONST	SEGMENT
?oct@?$_Iosb@H@std@@2W4_Fmtflags@12@B DD 0400H		; std::_Iosb<int>::oct
CONST	ENDS
;	COMDAT ?is_bounded@_Num_float_base@std@@2_NB
CONST	SEGMENT
?is_bounded@_Num_float_base@std@@2_NB DB 01H		; std::_Num_float_base::is_bounded
CONST	ENDS
;	COMDAT ?dec@?$_Iosb@H@std@@2W4_Fmtflags@12@B
CONST	SEGMENT
?dec@?$_Iosb@H@std@@2W4_Fmtflags@12@B DD 0200H		; std::_Iosb<int>::dec
CONST	ENDS
;	COMDAT ?has_signaling_NaN@_Num_float_base@std@@2_NB
CONST	SEGMENT
?has_signaling_NaN@_Num_float_base@std@@2_NB DB 01H	; std::_Num_float_base::has_signaling_NaN
CONST	ENDS
;	COMDAT ?internal@?$_Iosb@H@std@@2W4_Fmtflags@12@B
CONST	SEGMENT
?internal@?$_Iosb@H@std@@2W4_Fmtflags@12@B DD 0100H	; std::_Iosb<int>::internal
CONST	ENDS
;	COMDAT ?has_quiet_NaN@_Num_float_base@std@@2_NB
CONST	SEGMENT
?has_quiet_NaN@_Num_float_base@std@@2_NB DB 01H		; std::_Num_float_base::has_quiet_NaN
CONST	ENDS
;	COMDAT ?right@?$_Iosb@H@std@@2W4_Fmtflags@12@B
CONST	SEGMENT
?right@?$_Iosb@H@std@@2W4_Fmtflags@12@B DD 080H		; std::_Iosb<int>::right
CONST	ENDS
;	COMDAT ?has_infinity@_Num_float_base@std@@2_NB
CONST	SEGMENT
?has_infinity@_Num_float_base@std@@2_NB DB 01H		; std::_Num_float_base::has_infinity
CONST	ENDS
;	COMDAT ?CMPDIRTYDATA_INTERVAL@FalconEntity@@2KB
CONST	SEGMENT
?CMPDIRTYDATA_INTERVAL@FalconEntity@@2KB DD 0c8H	; FalconEntity::CMPDIRTYDATA_INTERVAL
CONST	ENDS
;	COMDAT ?left@?$_Iosb@H@std@@2W4_Fmtflags@12@B
CONST	SEGMENT
?left@?$_Iosb@H@std@@2W4_Fmtflags@12@B DD 040H		; std::_Iosb<int>::left
CONST	ENDS
;	COMDAT ?SIMDIRTYDATA_INTERVAL@FalconEntity@@2KB
CONST	SEGMENT
?SIMDIRTYDATA_INTERVAL@FalconEntity@@2KB DD 0c8H	; FalconEntity::SIMDIRTYDATA_INTERVAL
CONST	ENDS
;	COMDAT ?has_denorm_loss@_Num_float_base@std@@2_NB
CONST	SEGMENT
?has_denorm_loss@_Num_float_base@std@@2_NB DB 01H	; std::_Num_float_base::has_denorm_loss
CONST	ENDS
;	COMDAT ?showpos@?$_Iosb@H@std@@2W4_Fmtflags@12@B
CONST	SEGMENT
?showpos@?$_Iosb@H@std@@2W4_Fmtflags@12@B DD 020H	; std::_Iosb<int>::showpos
CONST	ENDS
;	COMDAT ?has_denorm@_Num_float_base@std@@2W4float_denorm_style@2@B
CONST	SEGMENT
?has_denorm@_Num_float_base@std@@2W4float_denorm_style@2@B DD 01H ; std::_Num_float_base::has_denorm
CONST	ENDS
;	COMDAT ?showpoint@?$_Iosb@H@std@@2W4_Fmtflags@12@B
CONST	SEGMENT
?showpoint@?$_Iosb@H@std@@2W4_Fmtflags@12@B DD 010H	; std::_Iosb<int>::showpoint
CONST	ENDS
_DATA	SEGMENT
_matrix44_ident DD 03f800000r			; 1
	DD	000000000r			; 0
	DD	000000000r			; 0
	DD	000000000r			; 0
	DD	000000000r			; 0
	DD	03f800000r			; 1
	DD	000000000r			; 0
	DD	000000000r			; 0
	DD	000000000r			; 0
	DD	000000000r			; 0
	DD	03f800000r			; 1
	DD	000000000r			; 0
	DD	000000000r			; 0
	DD	000000000r			; 0
	DD	000000000r			; 0
	DD	03f800000r			; 1
_matrix33_ident DD 03f800000r			; 1
	DD	000000000r			; 0
	DD	000000000r			; 0
	DD	000000000r			; 0
	DD	03f800000r			; 1
	DD	000000000r			; 0
	DD	000000000r			; 0
	DD	000000000r			; 0
	DD	03f800000r			; 1
_DATA	ENDS
;	COMDAT ?showbase@?$_Iosb@H@std@@2W4_Fmtflags@12@B
CONST	SEGMENT
?showbase@?$_Iosb@H@std@@2W4_Fmtflags@12@B DD 08H	; std::_Iosb<int>::showbase
CONST	ENDS
;	COMDAT ?uppercase@?$_Iosb@H@std@@2W4_Fmtflags@12@B
CONST	SEGMENT
?uppercase@?$_Iosb@H@std@@2W4_Fmtflags@12@B DD 04H	; std::_Iosb<int>::uppercase
CONST	ENDS
;	COMDAT ?radix@_Num_int_base@std@@2HB
CONST	SEGMENT
?radix@_Num_int_base@std@@2HB DD 02H			; std::_Num_int_base::radix
CONST	ENDS
;	COMDAT ?unitbuf@?$_Iosb@H@std@@2W4_Fmtflags@12@B
CONST	SEGMENT
?unitbuf@?$_Iosb@H@std@@2W4_Fmtflags@12@B DD 02H	; std::_Iosb<int>::unitbuf
CONST	ENDS
;	COMDAT ?is_specialized@_Num_int_base@std@@2_NB
CONST	SEGMENT
?is_specialized@_Num_int_base@std@@2_NB DB 01H		; std::_Num_int_base::is_specialized
CONST	ENDS
;	COMDAT ?skipws@?$_Iosb@H@std@@2W4_Fmtflags@12@B
CONST	SEGMENT
?skipws@?$_Iosb@H@std@@2W4_Fmtflags@12@B DD 01H		; std::_Iosb<int>::skipws
CONST	ENDS
;	COMDAT ?is_modulo@_Num_int_base@std@@2_NB
CONST	SEGMENT
?is_modulo@_Num_int_base@std@@2_NB DB 01H		; std::_Num_int_base::is_modulo
CONST	ENDS
;	COMDAT ?is_integer@_Num_int_base@std@@2_NB
CONST	SEGMENT
?is_integer@_Num_int_base@std@@2_NB DB 01H		; std::_Num_int_base::is_integer
CONST	ENDS
;	COMDAT ?is_exact@_Num_int_base@std@@2_NB
CONST	SEGMENT
?is_exact@_Num_int_base@std@@2_NB DB 01H		; std::_Num_int_base::is_exact
CONST	ENDS
;	COMDAT ?is_bounded@_Num_int_base@std@@2_NB
CONST	SEGMENT
?is_bounded@_Num_int_base@std@@2_NB DB 01H		; std::_Num_int_base::is_bounded
CONST	ENDS
;	COMDAT ?radix@_Num_base@std@@2HB
CONST	SEGMENT
?radix@_Num_base@std@@2HB DD 00H			; std::_Num_base::radix
CONST	ENDS
;	COMDAT ?min_exponent10@_Num_base@std@@2HB
CONST	SEGMENT
?min_exponent10@_Num_base@std@@2HB DD 00H		; std::_Num_base::min_exponent10
CONST	ENDS
;	COMDAT ?min_exponent@_Num_base@std@@2HB
CONST	SEGMENT
?min_exponent@_Num_base@std@@2HB DD 00H			; std::_Num_base::min_exponent
CONST	ENDS
;	COMDAT ?max_exponent10@_Num_base@std@@2HB
CONST	SEGMENT
?max_exponent10@_Num_base@std@@2HB DD 00H		; std::_Num_base::max_exponent10
CONST	ENDS
;	COMDAT ?max_exponent@_Num_base@std@@2HB
CONST	SEGMENT
?max_exponent@_Num_base@std@@2HB DD 00H			; std::_Num_base::max_exponent
CONST	ENDS
;	COMDAT ?max_digits10@_Num_base@std@@2HB
CONST	SEGMENT
?max_digits10@_Num_base@std@@2HB DD 00H			; std::_Num_base::max_digits10
CONST	ENDS
;	COMDAT ?digits10@_Num_base@std@@2HB
CONST	SEGMENT
?digits10@_Num_base@std@@2HB DD 00H			; std::_Num_base::digits10
CONST	ENDS
;	COMDAT ?digits@_Num_base@std@@2HB
CONST	SEGMENT
?digits@_Num_base@std@@2HB DD 00H			; std::_Num_base::digits
CONST	ENDS
;	COMDAT ?round_style@_Num_base@std@@2W4float_round_style@2@B
CONST	SEGMENT
?round_style@_Num_base@std@@2W4float_round_style@2@B DD 00H ; std::_Num_base::round_style
CONST	ENDS
;	COMDAT ?traps@_Num_base@std@@2_NB
CONST	SEGMENT
?traps@_Num_base@std@@2_NB DB 00H			; std::_Num_base::traps
CONST	ENDS
PUBLIC	?Id@VuEntity@@QBE?AVVU_ID@@XZ			; VuEntity::Id
PUBLIC	??2@YAPAXIPAX@Z					; operator new
PUBLIC	??3@YAXPAX0@Z					; operator delete
PUBLIC	?length@?$char_traits@D@std@@SAIPBD@Z		; std::char_traits<char>::length
PUBLIC	?copy@?$char_traits@D@std@@SAPADPADPBDI@Z	; std::char_traits<char>::copy
PUBLIC	?move@?$char_traits@D@std@@SAPADPADPBDI@Z	; std::char_traits<char>::move
PUBLIC	?assign@?$char_traits@D@std@@SAXAADABD@Z	; std::char_traits<char>::assign
PUBLIC	??0?$allocator@D@std@@QAE@XZ			; std::allocator<char>::allocator<char>
PUBLIC	?deallocate@?$allocator@D@std@@QAEXPADI@Z	; std::allocator<char>::deallocate
PUBLIC	?allocate@?$allocator@D@std@@QAEPADI@Z		; std::allocator<char>::allocate
PUBLIC	?max_size@?$allocator@D@std@@QBEIXZ		; std::allocator<char>::max_size
PUBLIC	?max_size@?$allocator_traits@V?$allocator@D@std@@@std@@SAIABV?$allocator@D@2@@Z ; std::allocator_traits<std::allocator<char> >::max_size
PUBLIC	??0?$_Wrap_alloc@V?$allocator@D@std@@@std@@QAE@XZ ; std::_Wrap_alloc<std::allocator<char> >::_Wrap_alloc<std::allocator<char> >
PUBLIC	?allocate@?$_Wrap_alloc@V?$allocator@D@std@@@std@@QAEPADI@Z ; std::_Wrap_alloc<std::allocator<char> >::allocate
PUBLIC	?deallocate@?$_Wrap_alloc@V?$allocator@D@std@@@std@@QAEXPADI@Z ; std::_Wrap_alloc<std::allocator<char> >::deallocate
PUBLIC	?max_size@?$_Wrap_alloc@V?$allocator@D@std@@@std@@QBEIXZ ; std::_Wrap_alloc<std::allocator<char> >::max_size
PUBLIC	??0?$_String_val@U?$_Simple_types@D@std@@@std@@QAE@XZ ; std::_String_val<std::_Simple_types<char> >::_String_val<std::_Simple_types<char> >
PUBLIC	?_Myptr@?$_String_val@U?$_Simple_types@D@std@@@std@@QAEPADXZ ; std::_String_val<std::_Simple_types<char> >::_Myptr
PUBLIC	?_Myptr@?$_String_val@U?$_Simple_types@D@std@@@std@@QBEPBDXZ ; std::_String_val<std::_Simple_types<char> >::_Myptr
PUBLIC	??0?$_String_alloc@$0A@U?$_String_base_types@DV?$allocator@D@std@@@std@@@std@@QAE@ABV?$allocator@D@1@@Z ; std::_String_alloc<0,std::_String_base_types<char,std::allocator<char> > >::_String_alloc<0,std::_String_base_types<char,std::allocator<char> > >
PUBLIC	?_Getal@?$_String_alloc@$0A@U?$_String_base_types@DV?$allocator@D@std@@@std@@@std@@QBE?AU?$_Wrap_alloc@V?$allocator@D@std@@@2@XZ ; std::_String_alloc<0,std::_String_base_types<char,std::allocator<char> > >::_Getal
PUBLIC	??0?$basic_string@DU?$char_traits@D@std@@V?$allocator@D@2@@std@@QAE@PBD@Z ; std::basic_string<char,std::char_traits<char>,std::allocator<char> >::basic_string<char,std::char_traits<char>,std::allocator<char> >
PUBLIC	?assign@?$basic_string@DU?$char_traits@D@std@@V?$allocator@D@2@@std@@QAEAAV12@ABV12@II@Z ; std::basic_string<char,std::char_traits<char>,std::allocator<char> >::assign
PUBLIC	?assign@?$basic_string@DU?$char_traits@D@std@@V?$allocator@D@2@@std@@QAEAAV12@PBDI@Z ; std::basic_string<char,std::char_traits<char>,std::allocator<char> >::assign
PUBLIC	?assign@?$basic_string@DU?$char_traits@D@std@@V?$allocator@D@2@@std@@QAEAAV12@PBD@Z ; std::basic_string<char,std::char_traits<char>,std::allocator<char> >::assign
PUBLIC	?erase@?$basic_string@DU?$char_traits@D@std@@V?$allocator@D@2@@std@@QAEAAV12@I@Z ; std::basic_string<char,std::char_traits<char>,std::allocator<char> >::erase
PUBLIC	?erase@?$basic_string@DU?$char_traits@D@std@@V?$allocator@D@2@@std@@QAEAAV12@II@Z ; std::basic_string<char,std::char_traits<char>,std::allocator<char> >::erase
PUBLIC	?size@?$basic_string@DU?$char_traits@D@std@@V?$allocator@D@2@@std@@QBEIXZ ; std::basic_string<char,std::char_traits<char>,std::allocator<char> >::size
PUBLIC	?max_size@?$basic_string@DU?$char_traits@D@std@@V?$allocator@D@2@@std@@QBEIXZ ; std::basic_string<char,std::char_traits<char>,std::allocator<char> >::max_size
PUBLIC	?_Copy@?$basic_string@DU?$char_traits@D@std@@V?$allocator@D@2@@std@@QAEXII@Z ; std::basic_string<char,std::char_traits<char>,std::allocator<char> >::_Copy
PUBLIC	?_Eos@?$basic_string@DU?$char_traits@D@std@@V?$allocator@D@2@@std@@QAEXI@Z ; std::basic_string<char,std::char_traits<char>,std::allocator<char> >::_Eos
PUBLIC	?_Grow@?$basic_string@DU?$char_traits@D@std@@V?$allocator@D@2@@std@@QAE_NI_N@Z ; std::basic_string<char,std::char_traits<char>,std::allocator<char> >::_Grow
PUBLIC	?_Inside@?$basic_string@DU?$char_traits@D@std@@V?$allocator@D@2@@std@@QAE_NPBD@Z ; std::basic_string<char,std::char_traits<char>,std::allocator<char> >::_Inside
PUBLIC	?_Tidy@?$basic_string@DU?$char_traits@D@std@@V?$allocator@D@2@@std@@QAEX_NI@Z ; std::basic_string<char,std::char_traits<char>,std::allocator<char> >::_Tidy
PUBLIC	?_Xlen@?$basic_string@DU?$char_traits@D@std@@V?$allocator@D@2@@std@@QBEXXZ ; std::basic_string<char,std::char_traits<char>,std::allocator<char> >::_Xlen
PUBLIC	?_Xran@?$basic_string@DU?$char_traits@D@std@@V?$allocator@D@2@@std@@QBEXXZ ; std::basic_string<char,std::char_traits<char>,std::allocator<char> >::_Xran
PUBLIC	?OTWRadioMenuStep@@YAXKHPAX@Z			; OTWRadioMenuStep
PUBLIC	?OTWRadioMenuStepBack@@YAXKHPAX@Z		; OTWRadioMenuStepBack
PUBLIC	?RadioMessageSend@@YAXKHPAX@Z			; RadioMessageSend
PUBLIC	?SimCycleRadioChannel@@YAXKHPAX@Z		; SimCycleRadioChannel
PUBLIC	?SimDecRadioChannel@@YAXKHPAX@Z			; SimDecRadioChannel
PUBLIC	?SimToggleRadioVolume@@YAXKHPAX@Z		; SimToggleRadioVolume
PUBLIC	?RadioTankerCommand@@YAXKHPAX@Z			; RadioTankerCommand
PUBLIC	?RadioTowerCommand@@YAXKHPAX@Z			; RadioTowerCommand
PUBLIC	?RadioAWACSCommand@@YAXKHPAX@Z			; RadioAWACSCommand
PUBLIC	?RadioWingCommand@@YAXKHPAX@Z			; RadioWingCommand
PUBLIC	?RadioElementCommand@@YAXKHPAX@Z		; RadioElementCommand
PUBLIC	?RadioFlightCommand@@YAXKHPAX@Z			; RadioFlightCommand
PUBLIC	?ATCRequestClearance@@YAXKHPAX@Z		; ATCRequestClearance
PUBLIC	?ATCRequestEmergencyClearance@@YAXKHPAX@Z	; ATCRequestEmergencyClearance
PUBLIC	?ATCRequestTakeoff@@YAXKHPAX@Z			; ATCRequestTakeoff
PUBLIC	?ATCRequestTaxi@@YAXKHPAX@Z			; ATCRequestTaxi
PUBLIC	?ATCTaxiing@@YAXKHPAX@Z				; ATCTaxiing
PUBLIC	?ATCReadyToGo@@YAXKHPAX@Z			; ATCReadyToGo
PUBLIC	?ATCRotate@@YAXKHPAX@Z				; ATCRotate
PUBLIC	?ATCGearUp@@YAXKHPAX@Z				; ATCGearUp
PUBLIC	?ATCGearDown@@YAXKHPAX@Z			; ATCGearDown
PUBLIC	?ATCBrake@@YAXKHPAX@Z				; ATCBrake
PUBLIC	?ATCAbortApproach@@YAXKHPAX@Z			; ATCAbortApproach
PUBLIC	?FACCheckIn@@YAXKHPAX@Z				; FACCheckIn
PUBLIC	?FACWilco@@YAXKHPAX@Z				; FACWilco
PUBLIC	?FACUnable@@YAXKHPAX@Z				; FACUnable
PUBLIC	?FACReady@@YAXKHPAX@Z				; FACReady
PUBLIC	?FACIn@@YAXKHPAX@Z				; FACIn
PUBLIC	?FACOut@@YAXKHPAX@Z				; FACOut
PUBLIC	?FACRequestMark@@YAXKHPAX@Z			; FACRequestMark
PUBLIC	?FACRequestTarget@@YAXKHPAX@Z			; FACRequestTarget
PUBLIC	?FACRequestBDA@@YAXKHPAX@Z			; FACRequestBDA
PUBLIC	?FACRequestLocation@@YAXKHPAX@Z			; FACRequestLocation
PUBLIC	?FACRequestTACAN@@YAXKHPAX@Z			; FACRequestTACAN
PUBLIC	?TankerRequestFuel@@YAXKHPAX@Z			; TankerRequestFuel
PUBLIC	?TankerReadyForGas@@YAXKHPAX@Z			; TankerReadyForGas
PUBLIC	?TankerDoneRefueling@@YAXKHPAX@Z		; TankerDoneRefueling
PUBLIC	?TankerBreakaway@@YAXKHPAX@Z			; TankerBreakaway
PUBLIC	?AWACSRequestPicture@@YAXKHPAX@Z		; AWACSRequestPicture
PUBLIC	?AWACSRequestTanker@@YAXKHPAX@Z			; AWACSRequestTanker
PUBLIC	?AWACSRequestCarrier@@YAXKHPAX@Z		; AWACSRequestCarrier
PUBLIC	?AWACSWilco@@YAXKHPAX@Z				; AWACSWilco
PUBLIC	?AWACSUnable@@YAXKHPAX@Z			; AWACSUnable
PUBLIC	?AWACSRequestHelp@@YAXKHPAX@Z			; AWACSRequestHelp
PUBLIC	?AWACSRequestRelief@@YAXKHPAX@Z			; AWACSRequestRelief
PUBLIC	??0id@locale@std@@QAE@I@Z			; std::locale::id::id
PUBLIC	?generic_category@std@@YAABVerror_category@1@XZ	; std::generic_category
PUBLIC	?system_category@std@@YAABVerror_category@1@XZ	; std::system_category
PUBLIC	??0error_category@std@@QAE@XZ			; std::error_category::error_category
PUBLIC	??1error_category@std@@UAE@XZ			; std::error_category::~error_category
PUBLIC	?default_error_condition@error_category@std@@UBE?AVerror_condition@2@H@Z ; std::error_category::default_error_condition
PUBLIC	?equivalent@error_category@std@@UBE_NHABVerror_condition@2@@Z ; std::error_category::equivalent
PUBLIC	?equivalent@error_category@std@@UBE_NABVerror_code@2@H@Z ; std::error_category::equivalent
PUBLIC	??8error_category@std@@QBE_NABV01@@Z		; std::error_category::operator==
PUBLIC	??_Gerror_category@std@@UAEPAXI@Z		; std::error_category::`scalar deleting destructor'
PUBLIC	?value@error_code@std@@QBEHXZ			; std::error_code::value
PUBLIC	?category@error_code@std@@QBEABVerror_category@2@XZ ; std::error_code::category
PUBLIC	??0error_condition@std@@QAE@HABVerror_category@1@@Z ; std::error_condition::error_condition
PUBLIC	?value@error_condition@std@@QBEHXZ		; std::error_condition::value
PUBLIC	?category@error_condition@std@@QBEABVerror_category@2@XZ ; std::error_condition::category
PUBLIC	??8error_condition@std@@QBE_NABV01@@Z		; std::error_condition::operator==
PUBLIC	??0_Generic_error_category@std@@QAE@XZ		; std::_Generic_error_category::_Generic_error_category
PUBLIC	?name@_Generic_error_category@std@@UBEPBDXZ	; std::_Generic_error_category::name
PUBLIC	?message@_Generic_error_category@std@@UBE?AV?$basic_string@DU?$char_traits@D@std@@V?$allocator@D@2@@2@H@Z ; std::_Generic_error_category::message
PUBLIC	??1_Generic_error_category@std@@UAE@XZ		; std::_Generic_error_category::~_Generic_error_category
PUBLIC	??_G_Generic_error_category@std@@UAEPAXI@Z	; std::_Generic_error_category::`scalar deleting destructor'
PUBLIC	??0_Iostream_error_category@std@@QAE@XZ		; std::_Iostream_error_category::_Iostream_error_category
PUBLIC	?name@_Iostream_error_category@std@@UBEPBDXZ	; std::_Iostream_error_category::name
PUBLIC	?message@_Iostream_error_category@std@@UBE?AV?$basic_string@DU?$char_traits@D@std@@V?$allocator@D@2@@2@H@Z ; std::_Iostream_error_category::message
PUBLIC	??1_Iostream_error_category@std@@UAE@XZ		; std::_Iostream_error_category::~_Iostream_error_category
PUBLIC	??_G_Iostream_error_category@std@@UAEPAXI@Z	; std::_Iostream_error_category::`scalar deleting destructor'
PUBLIC	??0_System_error_category@std@@QAE@XZ		; std::_System_error_category::_System_error_category
PUBLIC	?name@_System_error_category@std@@UBEPBDXZ	; std::_System_error_category::name
PUBLIC	?message@_System_error_category@std@@UBE?AV?$basic_string@DU?$char_traits@D@std@@V?$allocator@D@2@@2@H@Z ; std::_System_error_category::message
PUBLIC	?default_error_condition@_System_error_category@std@@UBE?AVerror_condition@2@H@Z ; std::_System_error_category::default_error_condition
PUBLIC	??1_System_error_category@std@@UAE@XZ		; std::_System_error_category::~_System_error_category
PUBLIC	??_G_System_error_category@std@@UAEPAXI@Z	; std::_System_error_category::`scalar deleting destructor'
PUBLIC	?IsSetFlag@SimBaseClass@@QBEHH@Z		; SimBaseClass::IsSetFlag
PUBLIC	?GetVirtualCockpit@OTWDriverClass@@QAEPAVDrawableBSP@@XZ ; OTWDriverClass::GetVirtualCockpit
PUBLIC	?IsICPSet@ICPClass@@QAEHH@Z			; ICPClass::IsICPSet
PUBLIC	?GetICPSecondaryMode@ICPClass@@QAEJXZ		; ICPClass::GetICPSecondaryMode
PUBLIC	?GetICPTertiaryMode@ICPClass@@QAEJXZ		; ICPClass::GetICPTertiaryMode
PUBLIC	?SetICPUpdateFlag@ICPClass@@QAEXH@Z		; ICPClass::SetICPUpdateFlag
PUBLIC	?IsEngineFlag@AirframeClass@@QAEHW4EngineFlags@1@@Z ; AirframeClass::IsEngineFlag
PUBLIC	??$construct@PADAAPAD@?$_Wrap_alloc@V?$allocator@D@std@@@std@@QAEXPAPADAAPAD@Z ; std::_Wrap_alloc<std::allocator<char> >::construct<char *,char * &>
PUBLIC	??$destroy@PAD@?$_Wrap_alloc@V?$allocator@D@std@@@std@@QAEXPAPAD@Z ; std::_Wrap_alloc<std::allocator<char> >::destroy<char *>
PUBLIC	??$addressof@D@std@@YAPADAAD@Z			; std::addressof<char>
PUBLIC	??$_Allocate@D@std@@YAPADIPAD@Z			; std::_Allocate<char>
PUBLIC	??$forward@AAPAD@std@@YAAAPADAAPAD@Z		; std::forward<char * &>
PUBLIC	??$construct@PADAAPAD@?$allocator_traits@V?$allocator@D@std@@@std@@SAXAAV?$allocator@D@1@PAPADAAPAD@Z ; std::allocator_traits<std::allocator<char> >::construct<char *,char * &>
PUBLIC	??$destroy@PAD@?$allocator_traits@V?$allocator@D@std@@@std@@SAXAAV?$allocator@D@1@PAPAD@Z ; std::allocator_traits<std::allocator<char> >::destroy<char *>
PUBLIC	??$construct@PADAAPAD@?$allocator@D@std@@QAEXPAPADAAPAD@Z ; std::allocator<char>::construct<char *,char * &>
PUBLIC	??$destroy@PAD@?$allocator@D@std@@QAEXPAPAD@Z	; std::allocator<char>::destroy<char *>
PUBLIC	??_7error_category@std@@6B@			; std::error_category::`vftable'
PUBLIC	??_7_Generic_error_category@std@@6B@		; std::_Generic_error_category::`vftable'
PUBLIC	??_C@_07DCLBNMLN@generic?$AA@			; `string'
PUBLIC	??_C@_0O@BFJCFAAK@unknown?5error?$AA@		; `string'
PUBLIC	??_7_Iostream_error_category@std@@6B@		; std::_Iostream_error_category::`vftable'
PUBLIC	??_C@_08LLGCOLLL@iostream?$AA@			; `string'
PUBLIC	??_C@_0BG@PADBLCHM@iostream?5stream?5error?$AA@	; `string'
PUBLIC	??_7_System_error_category@std@@6B@		; std::_System_error_category::`vftable'
PUBLIC	??_C@_06FHFOAHML@system?$AA@			; `string'
PUBLIC	?_Generic_object@?$_Error_objects@H@std@@2V_Generic_error_category@2@A ; std::_Error_objects<int>::_Generic_object
PUBLIC	?_Iostream_object@?$_Error_objects@H@std@@2V_Iostream_error_category@2@A ; std::_Error_objects<int>::_Iostream_object
PUBLIC	?_System_object@?$_Error_objects@H@std@@2V_System_error_category@2@A ; std::_Error_objects<int>::_System_object
PUBLIC	?id@?$num_put@DV?$back_insert_iterator@V?$basic_string@DU?$char_traits@D@std@@V?$allocator@D@2@@std@@@std@@@std@@2V0locale@2@A ; std::num_put<char,std::back_insert_iterator<std::basic_string<char,std::char_traits<char>,std::allocator<char> > > >::id
PUBLIC	?id@?$num_put@_WV?$back_insert_iterator@V?$basic_string@_WU?$char_traits@_W@std@@V?$allocator@_W@2@@std@@@std@@@std@@2V0locale@2@A ; std::num_put<wchar_t,std::back_insert_iterator<std::basic_string<wchar_t,std::char_traits<wchar_t>,std::allocator<wchar_t> > > >::id
PUBLIC	?id@?$numpunct@D@std@@2V0locale@2@A		; std::numpunct<char>::id
PUBLIC	?id@?$numpunct@_W@std@@2V0locale@2@A		; std::numpunct<wchar_t>::id
PUBLIC	??_C@_0BI@CFPLBAOH@invalid?5string?5position?$AA@ ; `string'
PUBLIC	??_C@_0BA@JFNIOLAK@string?5too?5long?$AA@	; `string'
PUBLIC	??_R4error_category@std@@6B@			; std::error_category::`RTTI Complete Object Locator'
PUBLIC	??_R0?AVerror_category@std@@@8			; std::error_category `RTTI Type Descriptor'
PUBLIC	??_R3error_category@std@@8			; std::error_category::`RTTI Class Hierarchy Descriptor'
PUBLIC	??_R2error_category@std@@8			; std::error_category::`RTTI Base Class Array'
PUBLIC	??_R1A@?0A@EA@error_category@std@@8		; std::error_category::`RTTI Base Class Descriptor at (0,-1,0,64)'
PUBLIC	??_R4_Generic_error_category@std@@6B@		; std::_Generic_error_category::`RTTI Complete Object Locator'
PUBLIC	??_R0?AV_Generic_error_category@std@@@8		; std::_Generic_error_category `RTTI Type Descriptor'
PUBLIC	??_R3_Generic_error_category@std@@8		; std::_Generic_error_category::`RTTI Class Hierarchy Descriptor'
PUBLIC	??_R2_Generic_error_category@std@@8		; std::_Generic_error_category::`RTTI Base Class Array'
PUBLIC	??_R1A@?0A@EA@_Generic_error_category@std@@8	; std::_Generic_error_category::`RTTI Base Class Descriptor at (0,-1,0,64)'
PUBLIC	??_R4_Iostream_error_category@std@@6B@		; std::_Iostream_error_category::`RTTI Complete Object Locator'
PUBLIC	??_R0?AV_Iostream_error_category@std@@@8	; std::_Iostream_error_category `RTTI Type Descriptor'
PUBLIC	??_R3_Iostream_error_category@std@@8		; std::_Iostream_error_category::`RTTI Class Hierarchy Descriptor'
PUBLIC	??_R2_Iostream_error_category@std@@8		; std::_Iostream_error_category::`RTTI Base Class Array'
PUBLIC	??_R1A@?0A@EA@_Iostream_error_category@std@@8	; std::_Iostream_error_category::`RTTI Base Class Descriptor at (0,-1,0,64)'
PUBLIC	??_R4_System_error_category@std@@6B@		; std::_System_error_category::`RTTI Complete Object Locator'
PUBLIC	??_R0?AV_System_error_category@std@@@8		; std::_System_error_category `RTTI Type Descriptor'
PUBLIC	??_R3_System_error_category@std@@8		; std::_System_error_category::`RTTI Class Hierarchy Descriptor'
PUBLIC	??_R2_System_error_category@std@@8		; std::_System_error_category::`RTTI Base Class Array'
PUBLIC	??_R1A@?0A@EA@_System_error_category@std@@8	; std::_System_error_category::`RTTI Base Class Descriptor at (0,-1,0,64)'
EXTRN	__purecall:PROC
EXTRN	??2@YAPAXI@Z:PROC				; operator new
EXTRN	??3@YAXPAX@Z:PROC				; operator delete
EXTRN	_atexit:PROC
EXTRN	_memcpy:PROC
EXTRN	_strlen:PROC
EXTRN	_memmove:PROC
EXTRN	?_Xbad_alloc@std@@YAXXZ:PROC			; std::_Xbad_alloc
EXTRN	?_Xlength_error@std@@YAXPBD@Z:PROC		; std::_Xlength_error
EXTRN	?_Xout_of_range@std@@YAXPBD@Z:PROC		; std::_Xout_of_range
EXTRN	??_Eerror_category@std@@UAEPAXI@Z:PROC		; std::error_category::`vector deleting destructor'
EXTRN	?_Syserror_map@std@@YAPBDH@Z:PROC		; std::_Syserror_map
EXTRN	?_Winerror_map@std@@YAPBDH@Z:PROC		; std::_Winerror_map
EXTRN	??_E_Generic_error_category@std@@UAEPAXI@Z:PROC	; std::_Generic_error_category::`vector deleting destructor'
EXTRN	??_E_Iostream_error_category@std@@UAEPAXI@Z:PROC ; std::_Iostream_error_category::`vector deleting destructor'
EXTRN	??_E_System_error_category@std@@UAEPAXI@Z:PROC	; std::_System_error_category::`vector deleting destructor'
EXTRN	?GetPlayerAircraft@SimulationDriver@@QBEPAVAircraftClass@@XZ:PROC ; SimulationDriver::GetPlayerAircraft
EXTRN	?GetUHFSrc@NavigationSystem@@QAE?AW4UHF_Mode_Type@1@XZ:PROC ; NavigationSystem::GetUHFSrc
EXTRN	?ProcessInput@MenuManager@@QAEXKHHH@Z:PROC	; MenuManager::ProcessInput
EXTRN	?StepNextPage@MenuManager@@QAEXH@Z:PROC		; MenuManager::StepNextPage
EXTRN	?StepPrevPage@MenuManager@@QAEXH@Z:PROC		; MenuManager::StepPrevPage
EXTRN	?MenuSendAtc@@YAXHH@Z:PROC			; MenuSendAtc
EXTRN	?MenuSendAwacs@@YAXHVVU_ID@@H@Z:PROC		; MenuSendAwacs
EXTRN	?MenuSendTanker@@YAXH@Z:PROC			; MenuSendTanker
EXTRN	?ForwardCycleFreq@VoiceManager@@QAEXH@Z:PROC	; VoiceManager::ForwardCycleFreq
EXTRN	?BackwardCycleFreq@VoiceManager@@QAEXH@Z:PROC	; VoiceManager::BackwardCycleFreq
EXTRN	?ClearStrings@ICPClass@@QAEXXZ:PROC		; ICPClass::ClearStrings
EXTRN	?StepUHFPostion@CPMisc@@QAEXXZ:PROC		; CPMisc::StepUHFPostion
EXTRN	?DecUHFPosition@CPMisc@@QAEXXZ:PROC		; CPMisc::DecUHFPosition
EXTRN	?SetSwitchMask@DrawableBSP@@QAEXHK@Z:PROC	; DrawableBSP::SetSwitchMask
EXTRN	@__security_check_cookie@4:PROC
EXTRN	__CxxThrowException@8:PROC
EXTRN	___CxxFrameHandler3:PROC
EXTRN	??_7type_info@@6B@:QWORD			; type_info::`vftable'
EXTRN	?OTWDriver@@3VOTWDriverClass@@A:BYTE		; OTWDriver
EXTRN	?SimDriver@@3VSimulationDriver@@A:BYTE		; SimDriver
EXTRN	?gNavigationSys@@3PAVNavigationSystem@@A:DWORD	; gNavigationSys
EXTRN	?VM@@3PAVVoiceManager@@A:DWORD			; VM
EXTRN	?g_bRealisticAvionics@@3_NA:BYTE		; g_bRealisticAvionics
EXTRN	___security_cookie:DWORD
_BSS	SEGMENT
_piecewise_construct DB 01H DUP (?)
_allocator_arg DB 01H DUP (?)
_BSS	ENDS
;	COMDAT ?_Generic_object@?$_Error_objects@H@std@@2V_Generic_error_category@2@A
_BSS	SEGMENT
?_Generic_object@?$_Error_objects@H@std@@2V_Generic_error_category@2@A DD 01H DUP (?) ; std::_Error_objects<int>::_Generic_object
_BSS	ENDS
;	COMDAT ?_Iostream_object@?$_Error_objects@H@std@@2V_Iostream_error_category@2@A
_BSS	SEGMENT
?_Iostream_object@?$_Error_objects@H@std@@2V_Iostream_error_category@2@A DD 01H DUP (?) ; std::_Error_objects<int>::_Iostream_object
_BSS	ENDS
;	COMDAT ?_System_object@?$_Error_objects@H@std@@2V_System_error_category@2@A
_BSS	SEGMENT
?_System_object@?$_Error_objects@H@std@@2V_System_error_category@2@A DD 01H DUP (?) ; std::_Error_objects<int>::_System_object
_BSS	ENDS
;	COMDAT ?id@?$num_put@DV?$back_insert_iterator@V?$basic_string@DU?$char_traits@D@std@@V?$allocator@D@2@@std@@@std@@@std@@2V0locale@2@A
_BSS	SEGMENT
?id@?$num_put@DV?$back_insert_iterator@V?$basic_string@DU?$char_traits@D@std@@V?$allocator@D@2@@std@@@std@@@std@@2V0locale@2@A DD 01H DUP (?) ; std::num_put<char,std::back_insert_iterator<std::basic_string<char,std::char_traits<char>,std::allocator<char> > > >::id
_BSS	ENDS
;	COMDAT ?id@?$num_put@_WV?$back_insert_iterator@V?$basic_string@_WU?$char_traits@_W@std@@V?$allocator@_W@2@@std@@@std@@@std@@2V0locale@2@A
_BSS	SEGMENT
?id@?$num_put@_WV?$back_insert_iterator@V?$basic_string@_WU?$char_traits@_W@std@@V?$allocator@_W@2@@std@@@std@@@std@@2V0locale@2@A DD 01H DUP (?) ; std::num_put<wchar_t,std::back_insert_iterator<std::basic_string<wchar_t,std::char_traits<wchar_t>,std::allocator<wchar_t> > > >::id
_BSS	ENDS
;	COMDAT ?id@?$numpunct@D@std@@2V0locale@2@A
_BSS	SEGMENT
?id@?$numpunct@D@std@@2V0locale@2@A DD 01H DUP (?)	; std::numpunct<char>::id
_BSS	ENDS
;	COMDAT ?id@?$numpunct@_W@std@@2V0locale@2@A
_BSS	SEGMENT
?id@?$numpunct@_W@std@@2V0locale@2@A DD 01H DUP (?)	; std::numpunct<wchar_t>::id
_BSS	ENDS
CRT$XCU	SEGMENT
_piecewise_construct$initializer$ DD FLAT:??__Epiecewise_construct@std@@YAXXZ
CRT$XCU	ENDS
;	COMDAT ??_R1A@?0A@EA@_System_error_category@std@@8
rdata$r	SEGMENT
??_R1A@?0A@EA@_System_error_category@std@@8 DD FLAT:??_R0?AV_System_error_category@std@@@8 ; std::_System_error_category::`RTTI Base Class Descriptor at (0,-1,0,64)'
	DD	02H
	DD	00H
	DD	0ffffffffH
	DD	00H
	DD	040H
	DD	FLAT:??_R3_System_error_category@std@@8
rdata$r	ENDS
;	COMDAT ??_R2_System_error_category@std@@8
rdata$r	SEGMENT
??_R2_System_error_category@std@@8 DD FLAT:??_R1A@?0A@EA@_System_error_category@std@@8 ; std::_System_error_category::`RTTI Base Class Array'
	DD	FLAT:??_R1A@?0A@EA@_Generic_error_category@std@@8
	DD	FLAT:??_R1A@?0A@EA@error_category@std@@8
rdata$r	ENDS
;	COMDAT ??_R3_System_error_category@std@@8
rdata$r	SEGMENT
??_R3_System_error_category@std@@8 DD 00H		; std::_System_error_category::`RTTI Class Hierarchy Descriptor'
	DD	00H
	DD	03H
	DD	FLAT:??_R2_System_error_category@std@@8
rdata$r	ENDS
;	COMDAT ??_R0?AV_System_error_category@std@@@8
_DATA	SEGMENT
??_R0?AV_System_error_category@std@@@8 DD FLAT:??_7type_info@@6B@ ; std::_System_error_category `RTTI Type Descriptor'
	DD	00H
	DB	'.?AV_System_error_category@std@@', 00H
_DATA	ENDS
;	COMDAT ??_R4_System_error_category@std@@6B@
rdata$r	SEGMENT
??_R4_System_error_category@std@@6B@ DD 00H		; std::_System_error_category::`RTTI Complete Object Locator'
	DD	00H
	DD	00H
	DD	FLAT:??_R0?AV_System_error_category@std@@@8
	DD	FLAT:??_R3_System_error_category@std@@8
rdata$r	ENDS
;	COMDAT ??_R1A@?0A@EA@_Iostream_error_category@std@@8
rdata$r	SEGMENT
??_R1A@?0A@EA@_Iostream_error_category@std@@8 DD FLAT:??_R0?AV_Iostream_error_category@std@@@8 ; std::_Iostream_error_category::`RTTI Base Class Descriptor at (0,-1,0,64)'
	DD	02H
	DD	00H
	DD	0ffffffffH
	DD	00H
	DD	040H
	DD	FLAT:??_R3_Iostream_error_category@std@@8
rdata$r	ENDS
;	COMDAT ??_R2_Iostream_error_category@std@@8
rdata$r	SEGMENT
??_R2_Iostream_error_category@std@@8 DD FLAT:??_R1A@?0A@EA@_Iostream_error_category@std@@8 ; std::_Iostream_error_category::`RTTI Base Class Array'
	DD	FLAT:??_R1A@?0A@EA@_Generic_error_category@std@@8
	DD	FLAT:??_R1A@?0A@EA@error_category@std@@8
rdata$r	ENDS
;	COMDAT ??_R3_Iostream_error_category@std@@8
rdata$r	SEGMENT
??_R3_Iostream_error_category@std@@8 DD 00H		; std::_Iostream_error_category::`RTTI Class Hierarchy Descriptor'
	DD	00H
	DD	03H
	DD	FLAT:??_R2_Iostream_error_category@std@@8
rdata$r	ENDS
;	COMDAT ??_R0?AV_Iostream_error_category@std@@@8
_DATA	SEGMENT
??_R0?AV_Iostream_error_category@std@@@8 DD FLAT:??_7type_info@@6B@ ; std::_Iostream_error_category `RTTI Type Descriptor'
	DD	00H
	DB	'.?AV_Iostream_error_category@std@@', 00H
_DATA	ENDS
;	COMDAT ??_R4_Iostream_error_category@std@@6B@
rdata$r	SEGMENT
??_R4_Iostream_error_category@std@@6B@ DD 00H		; std::_Iostream_error_category::`RTTI Complete Object Locator'
	DD	00H
	DD	00H
	DD	FLAT:??_R0?AV_Iostream_error_category@std@@@8
	DD	FLAT:??_R3_Iostream_error_category@std@@8
rdata$r	ENDS
;	COMDAT ??_R1A@?0A@EA@_Generic_error_category@std@@8
rdata$r	SEGMENT
??_R1A@?0A@EA@_Generic_error_category@std@@8 DD FLAT:??_R0?AV_Generic_error_category@std@@@8 ; std::_Generic_error_category::`RTTI Base Class Descriptor at (0,-1,0,64)'
	DD	01H
	DD	00H
	DD	0ffffffffH
	DD	00H
	DD	040H
	DD	FLAT:??_R3_Generic_error_category@std@@8
rdata$r	ENDS
;	COMDAT ??_R2_Generic_error_category@std@@8
rdata$r	SEGMENT
??_R2_Generic_error_category@std@@8 DD FLAT:??_R1A@?0A@EA@_Generic_error_category@std@@8 ; std::_Generic_error_category::`RTTI Base Class Array'
	DD	FLAT:??_R1A@?0A@EA@error_category@std@@8
rdata$r	ENDS
;	COMDAT ??_R3_Generic_error_category@std@@8
rdata$r	SEGMENT
??_R3_Generic_error_category@std@@8 DD 00H		; std::_Generic_error_category::`RTTI Class Hierarchy Descriptor'
	DD	00H
	DD	02H
	DD	FLAT:??_R2_Generic_error_category@std@@8
rdata$r	ENDS
;	COMDAT ??_R0?AV_Generic_error_category@std@@@8
_DATA	SEGMENT
??_R0?AV_Generic_error_category@std@@@8 DD FLAT:??_7type_info@@6B@ ; std::_Generic_error_category `RTTI Type Descriptor'
	DD	00H
	DB	'.?AV_Generic_error_category@std@@', 00H
_DATA	ENDS
;	COMDAT ??_R4_Generic_error_category@std@@6B@
rdata$r	SEGMENT
??_R4_Generic_error_category@std@@6B@ DD 00H		; std::_Generic_error_category::`RTTI Complete Object Locator'
	DD	00H
	DD	00H
	DD	FLAT:??_R0?AV_Generic_error_category@std@@@8
	DD	FLAT:??_R3_Generic_error_category@std@@8
rdata$r	ENDS
;	COMDAT ??_R1A@?0A@EA@error_category@std@@8
rdata$r	SEGMENT
??_R1A@?0A@EA@error_category@std@@8 DD FLAT:??_R0?AVerror_category@std@@@8 ; std::error_category::`RTTI Base Class Descriptor at (0,-1,0,64)'
	DD	00H
	DD	00H
	DD	0ffffffffH
	DD	00H
	DD	040H
	DD	FLAT:??_R3error_category@std@@8
rdata$r	ENDS
;	COMDAT ??_R2error_category@std@@8
rdata$r	SEGMENT
??_R2error_category@std@@8 DD FLAT:??_R1A@?0A@EA@error_category@std@@8 ; std::error_category::`RTTI Base Class Array'
rdata$r	ENDS
;	COMDAT ??_R3error_category@std@@8
rdata$r	SEGMENT
??_R3error_category@std@@8 DD 00H			; std::error_category::`RTTI Class Hierarchy Descriptor'
	DD	00H
	DD	01H
	DD	FLAT:??_R2error_category@std@@8
rdata$r	ENDS
;	COMDAT ??_R0?AVerror_category@std@@@8
_DATA	SEGMENT
??_R0?AVerror_category@std@@@8 DD FLAT:??_7type_info@@6B@ ; std::error_category `RTTI Type Descriptor'
	DD	00H
	DB	'.?AVerror_category@std@@', 00H
_DATA	ENDS
;	COMDAT ??_R4error_category@std@@6B@
rdata$r	SEGMENT
??_R4error_category@std@@6B@ DD 00H			; std::error_category::`RTTI Complete Object Locator'
	DD	00H
	DD	00H
	DD	FLAT:??_R0?AVerror_category@std@@@8
	DD	FLAT:??_R3error_category@std@@8
rdata$r	ENDS
;	COMDAT ??_C@_0BA@JFNIOLAK@string?5too?5long?$AA@
CONST	SEGMENT
??_C@_0BA@JFNIOLAK@string?5too?5long?$AA@ DB 'string too long', 00H ; `string'
CONST	ENDS
;	COMDAT ??_C@_0BI@CFPLBAOH@invalid?5string?5position?$AA@
CONST	SEGMENT
??_C@_0BI@CFPLBAOH@invalid?5string?5position?$AA@ DB 'invalid string posi'
	DB	'tion', 00H					; `string'
CONST	ENDS
;	COMDAT ??_C@_06FHFOAHML@system?$AA@
CONST	SEGMENT
??_C@_06FHFOAHML@system?$AA@ DB 'system', 00H		; `string'
CONST	ENDS
;	COMDAT ??_7_System_error_category@std@@6B@
CONST	SEGMENT
??_7_System_error_category@std@@6B@ DD FLAT:??_R4_System_error_category@std@@6B@ ; std::_System_error_category::`vftable'
	DD	FLAT:??_E_System_error_category@std@@UAEPAXI@Z
	DD	FLAT:?name@_System_error_category@std@@UBEPBDXZ
	DD	FLAT:?message@_System_error_category@std@@UBE?AV?$basic_string@DU?$char_traits@D@std@@V?$allocator@D@2@@2@H@Z
	DD	FLAT:?default_error_condition@_System_error_category@std@@UBE?AVerror_condition@2@H@Z
	DD	FLAT:?equivalent@error_category@std@@UBE_NABVerror_code@2@H@Z
	DD	FLAT:?equivalent@error_category@std@@UBE_NHABVerror_condition@2@@Z
CONST	ENDS
;	COMDAT ??_C@_0BG@PADBLCHM@iostream?5stream?5error?$AA@
CONST	SEGMENT
??_C@_0BG@PADBLCHM@iostream?5stream?5error?$AA@ DB 'iostream stream error'
	DB	00H						; `string'
CONST	ENDS
;	COMDAT ??_C@_08LLGCOLLL@iostream?$AA@
CONST	SEGMENT
??_C@_08LLGCOLLL@iostream?$AA@ DB 'iostream', 00H	; `string'
CONST	ENDS
;	COMDAT ??_7_Iostream_error_category@std@@6B@
CONST	SEGMENT
??_7_Iostream_error_category@std@@6B@ DD FLAT:??_R4_Iostream_error_category@std@@6B@ ; std::_Iostream_error_category::`vftable'
	DD	FLAT:??_E_Iostream_error_category@std@@UAEPAXI@Z
	DD	FLAT:?name@_Iostream_error_category@std@@UBEPBDXZ
	DD	FLAT:?message@_Iostream_error_category@std@@UBE?AV?$basic_string@DU?$char_traits@D@std@@V?$allocator@D@2@@2@H@Z
	DD	FLAT:?default_error_condition@error_category@std@@UBE?AVerror_condition@2@H@Z
	DD	FLAT:?equivalent@error_category@std@@UBE_NABVerror_code@2@H@Z
	DD	FLAT:?equivalent@error_category@std@@UBE_NHABVerror_condition@2@@Z
CONST	ENDS
;	COMDAT ??_C@_0O@BFJCFAAK@unknown?5error?$AA@
CONST	SEGMENT
??_C@_0O@BFJCFAAK@unknown?5error?$AA@ DB 'unknown error', 00H ; `string'
CONST	ENDS
;	COMDAT ??_C@_07DCLBNMLN@generic?$AA@
CONST	SEGMENT
??_C@_07DCLBNMLN@generic?$AA@ DB 'generic', 00H		; `string'
CONST	ENDS
;	COMDAT ??_7_Generic_error_category@std@@6B@
CONST	SEGMENT
??_7_Generic_error_category@std@@6B@ DD FLAT:??_R4_Generic_error_category@std@@6B@ ; std::_Generic_error_category::`vftable'
	DD	FLAT:??_E_Generic_error_category@std@@UAEPAXI@Z
	DD	FLAT:?name@_Generic_error_category@std@@UBEPBDXZ
	DD	FLAT:?message@_Generic_error_category@std@@UBE?AV?$basic_string@DU?$char_traits@D@std@@V?$allocator@D@2@@2@H@Z
	DD	FLAT:?default_error_condition@error_category@std@@UBE?AVerror_condition@2@H@Z
	DD	FLAT:?equivalent@error_category@std@@UBE_NABVerror_code@2@H@Z
	DD	FLAT:?equivalent@error_category@std@@UBE_NHABVerror_condition@2@@Z
CONST	ENDS
;	COMDAT ??_7error_category@std@@6B@
CONST	SEGMENT
??_7error_category@std@@6B@ DD FLAT:??_R4error_category@std@@6B@ ; std::error_category::`vftable'
	DD	FLAT:??_Eerror_category@std@@UAEPAXI@Z
	DD	FLAT:__purecall
	DD	FLAT:__purecall
	DD	FLAT:?default_error_condition@error_category@std@@UBE?AVerror_condition@2@H@Z
	DD	FLAT:?equivalent@error_category@std@@UBE_NABVerror_code@2@H@Z
	DD	FLAT:?equivalent@error_category@std@@UBE_NHABVerror_condition@2@@Z
CONST	ENDS
;	COMDAT xdata$x
xdata$x	SEGMENT
__unwindtable$??$construct@PADAAPAD@?$allocator@D@std@@QAEXPAPADAAPAD@Z DD 0ffffffffH
	DD	FLAT:__unwindfunclet$??$construct@PADAAPAD@?$allocator@D@std@@QAEXPAPADAAPAD@Z$0
__ehfuncinfo$??$construct@PADAAPAD@?$allocator@D@std@@QAEXPAPADAAPAD@Z DD 019930522H
	DD	01H
	DD	FLAT:__unwindtable$??$construct@PADAAPAD@?$allocator@D@std@@QAEXPAPADAAPAD@Z
	DD	2 DUP(00H)
	DD	2 DUP(00H)
	DD	00H
	DD	01H
xdata$x	ENDS
;	COMDAT xdata$x
xdata$x	SEGMENT
__catchsym$?_Copy@?$basic_string@DU?$char_traits@D@std@@V?$allocator@D@2@@std@@QAEXII@Z$5 DD 040H
	DD	00H
	DD	00H
	DD	FLAT:__catch$?_Copy@?$basic_string@DU?$char_traits@D@std@@V?$allocator@D@2@@std@@QAEXII@Z$0
__catchsym$?_Copy@?$basic_string@DU?$char_traits@D@std@@V?$allocator@D@2@@std@@QAEXII@Z$4 DD 040H
	DD	00H
	DD	00H
	DD	FLAT:__catch$?_Copy@?$basic_string@DU?$char_traits@D@std@@V?$allocator@D@2@@std@@QAEXII@Z$1
__unwindtable$?_Copy@?$basic_string@DU?$char_traits@D@std@@V?$allocator@D@2@@std@@QAEXII@Z DD 0ffffffffH
	DD	00H
	DD	0ffffffffH
	DD	00H
	DD	01H
	DD	00H
	DD	01H
	DD	00H
__ehfuncinfo$?_Copy@?$basic_string@DU?$char_traits@D@std@@V?$allocator@D@2@@std@@QAEXII@Z DD 019930522H
	DD	04H
	DD	FLAT:__unwindtable$?_Copy@?$basic_string@DU?$char_traits@D@std@@V?$allocator@D@2@@std@@QAEXII@Z
	DD	02H
	DD	FLAT:__tryblocktable$?_Copy@?$basic_string@DU?$char_traits@D@std@@V?$allocator@D@2@@std@@QAEXII@Z
	DD	2 DUP(00H)
	DD	00H
	DD	01H
__tryblocktable$?_Copy@?$basic_string@DU?$char_traits@D@std@@V?$allocator@D@2@@std@@QAEXII@Z DD 02H
	DD	02H
	DD	03H
	DD	01H
	DD	FLAT:__catchsym$?_Copy@?$basic_string@DU?$char_traits@D@std@@V?$allocator@D@2@@std@@QAEXII@Z$4
	DD	00H
	DD	00H
	DD	03H
	DD	01H
	DD	FLAT:__catchsym$?_Copy@?$basic_string@DU?$char_traits@D@std@@V?$allocator@D@2@@std@@QAEXII@Z$5
xdata$x	ENDS
CRT$XCU	SEGMENT
_allocator_arg$initializer$ DD FLAT:??__Eallocator_arg@std@@YAXXZ
CRT$XCU	ENDS
;	COMDAT CRT$XCU
CRT$XCU	SEGMENT
?_Generic_object$initializer$@?$_Error_objects@H@std@@2P6AXXZA DD FLAT:??__E?_Generic_object@?$_Error_objects@H@std@@2V_Generic_error_category@2@A@@YAXXZ ; std::_Error_objects<int>::_Generic_object$initializer$
CRT$XCU	ENDS
;	COMDAT CRT$XCU
CRT$XCU	SEGMENT
?_Iostream_object$initializer$@?$_Error_objects@H@std@@2P6AXXZA DD FLAT:??__E?_Iostream_object@?$_Error_objects@H@std@@2V_Iostream_error_category@2@A@@YAXXZ ; std::_Error_objects<int>::_Iostream_object$initializer$
CRT$XCU	ENDS
;	COMDAT CRT$XCU
CRT$XCU	SEGMENT
?_System_object$initializer$@?$_Error_objects@H@std@@2P6AXXZA DD FLAT:??__E?_System_object@?$_Error_objects@H@std@@2V_System_error_category@2@A@@YAXXZ ; std::_Error_objects<int>::_System_object$initializer$
CRT$XCU	ENDS
;	COMDAT CRT$XCU
CRT$XCU	SEGMENT
?id$initializer$@?$num_put@DV?$back_insert_iterator@V?$basic_string@DU?$char_traits@D@std@@V?$allocator@D@2@@std@@@std@@@std@@2P6AXXZA DD FLAT:??__E?id@?$num_put@DV?$back_insert_iterator@V?$basic_string@DU?$char_traits@D@std@@V?$allocator@D@2@@std@@@std@@@std@@2V0locale@2@A@@YAXXZ ; std::num_put<char,std::back_insert_iterator<std::basic_string<char,std::char_traits<char>,std::allocator<char> > > >::id$initializer$
CRT$XCU	ENDS
;	COMDAT CRT$XCU
CRT$XCU	SEGMENT
?id$initializer$@?$num_put@_WV?$back_insert_iterator@V?$basic_string@_WU?$char_traits@_W@std@@V?$allocator@_W@2@@std@@@std@@@std@@2P6AXXZA DD FLAT:??__E?id@?$num_put@_WV?$back_insert_iterator@V?$basic_string@_WU?$char_traits@_W@std@@V?$allocator@_W@2@@std@@@std@@@std@@2V0locale@2@A@@YAXXZ ; std::num_put<wchar_t,std::back_insert_iterator<std::basic_string<wchar_t,std::char_traits<wchar_t>,std::allocator<wchar_t> > > >::id$initializer$
CRT$XCU	ENDS
;	COMDAT CRT$XCU
CRT$XCU	SEGMENT
?id$initializer$@?$numpunct@D@std@@2P6AXXZA DD FLAT:??__E?id@?$numpunct@D@std@@2V0locale@2@A@@YAXXZ ; std::numpunct<char>::id$initializer$
CRT$XCU	ENDS
;	COMDAT CRT$XCU
CRT$XCU	SEGMENT
?id$initializer$@?$numpunct@_W@std@@2P6AXXZA DD FLAT:??__E?id@?$numpunct@_W@std@@2V0locale@2@A@@YAXXZ ; std::numpunct<wchar_t>::id$initializer$
CRT$XCU	ENDS
; Function compile flags: /Odtp
; File c:\program files (x86)\microsoft visual studio 11.0\vc\include\xmemory0
;	COMDAT ??$destroy@PAD@?$allocator@D@std@@QAEXPAPAD@Z
_TEXT	SEGMENT
_this$ = -4						; size = 4
__Ptr$ = 8						; size = 4
??$destroy@PAD@?$allocator@D@std@@QAEXPAPAD@Z PROC	; std::allocator<char>::destroy<char *>, COMDAT
; _this$ = ecx

; 621  : 		void destroy(_Uty *_Ptr)

	push	ebp
	mov	ebp, esp
	push	ecx
	mov	DWORD PTR _this$[ebp], ecx

; 622  : 		{	// destroy object at _Ptr
; 623  : 		_Ptr->~_Uty();
; 624  : 		}

	mov	esp, ebp
	pop	ebp
	ret	4
??$destroy@PAD@?$allocator@D@std@@QAEXPAPAD@Z ENDP	; std::allocator<char>::destroy<char *>
_TEXT	ENDS
; Function compile flags: /Odtp
; File c:\program files (x86)\microsoft visual studio 11.0\vc\include\xmemory0
;	COMDAT ??$construct@PADAAPAD@?$allocator@D@std@@QAEXPAPADAAPAD@Z
_TEXT	SEGMENT
$T2 = -28						; size = 4
_this$ = -24						; size = 4
tv73 = -20						; size = 4
$T3 = -16						; size = 4
__$EHRec$ = -12						; size = 12
__Ptr$ = 8						; size = 4
__V0$ = 12						; size = 4
??$construct@PADAAPAD@?$allocator@D@std@@QAEXPAPADAAPAD@Z PROC ; std::allocator<char>::construct<char *,char * &>, COMDAT
; _this$ = ecx

; 617  : _VARIADIC_EXPAND_0X(_ALLOC_MEMBER_CONSTRUCT, , , , )

	push	ebp
	mov	ebp, esp
	push	-1
	push	__ehhandler$??$construct@PADAAPAD@?$allocator@D@std@@QAEXPAPADAAPAD@Z
	mov	eax, DWORD PTR fs:0
	push	eax
	sub	esp, 16					; 00000010H
	mov	eax, DWORD PTR ___security_cookie
	xor	eax, ebp
	push	eax
	lea	eax, DWORD PTR __$EHRec$[ebp]
	mov	DWORD PTR fs:0, eax
	mov	DWORD PTR _this$[ebp], ecx
	mov	eax, DWORD PTR __Ptr$[ebp]
	push	eax
	push	4
	call	??2@YAPAXIPAX@Z				; operator new
	add	esp, 8
	mov	DWORD PTR $T3[ebp], eax
	mov	DWORD PTR __$EHRec$[ebp+8], 0
	cmp	DWORD PTR $T3[ebp], 0
	je	SHORT $LN3@construct
	mov	ecx, DWORD PTR __V0$[ebp]
	push	ecx
	call	??$forward@AAPAD@std@@YAAAPADAAPAD@Z	; std::forward<char * &>
	add	esp, 4
	mov	edx, DWORD PTR $T3[ebp]
	mov	eax, DWORD PTR [eax]
	mov	DWORD PTR [edx], eax
	mov	ecx, DWORD PTR $T3[ebp]
	mov	DWORD PTR tv73[ebp], ecx
	jmp	SHORT $LN4@construct
$LN3@construct:
	mov	DWORD PTR tv73[ebp], 0
$LN4@construct:
	mov	edx, DWORD PTR tv73[ebp]
	mov	DWORD PTR $T2[ebp], edx
	mov	DWORD PTR __$EHRec$[ebp+8], -1
	mov	ecx, DWORD PTR __$EHRec$[ebp]
	mov	DWORD PTR fs:0, ecx
	pop	ecx
	mov	esp, ebp
	pop	ebp
	ret	8
_TEXT	ENDS
;	COMDAT text$x
text$x	SEGMENT
__unwindfunclet$??$construct@PADAAPAD@?$allocator@D@std@@QAEXPAPADAAPAD@Z$0:
	mov	eax, DWORD PTR __Ptr$[ebp]
	push	eax
	mov	eax, DWORD PTR $T3[ebp]
	push	eax
	call	??3@YAXPAX0@Z				; operator delete
	add	esp, 8
	ret	0
__ehhandler$??$construct@PADAAPAD@?$allocator@D@std@@QAEXPAPADAAPAD@Z:
	mov	edx, DWORD PTR [esp+8]
	lea	eax, DWORD PTR [edx+12]
	mov	ecx, DWORD PTR [edx-20]
	xor	ecx, eax
	call	@__security_check_cookie@4
	mov	eax, OFFSET __ehfuncinfo$??$construct@PADAAPAD@?$allocator@D@std@@QAEXPAPADAAPAD@Z
	jmp	___CxxFrameHandler3
text$x	ENDS
??$construct@PADAAPAD@?$allocator@D@std@@QAEXPAPADAAPAD@Z ENDP ; std::allocator<char>::construct<char *,char * &>
; Function compile flags: /Odtp
; File c:\program files (x86)\microsoft visual studio 11.0\vc\include\xlocnum
;	COMDAT ??__E?id@?$numpunct@_W@std@@2V0locale@2@A@@YAXXZ
text$yc	SEGMENT
??__E?id@?$numpunct@_W@std@@2V0locale@2@A@@YAXXZ PROC	; `dynamic initializer for 'std::numpunct<wchar_t>::id'', COMDAT

; 155  : 		void _Getvals(wchar_t, const lconv *_Ptr, _Locinfo::_Cvtvec)

	push	ebp
	mov	ebp, esp
	push	0
	mov	ecx, OFFSET ?id@?$numpunct@_W@std@@2V0locale@2@A ; std::numpunct<wchar_t>::id
	call	??0id@locale@std@@QAE@I@Z		; std::locale::id::id
	pop	ebp
	ret	0
??__E?id@?$numpunct@_W@std@@2V0locale@2@A@@YAXXZ ENDP	; `dynamic initializer for 'std::numpunct<wchar_t>::id''
text$yc	ENDS
; Function compile flags: /Odtp
; File c:\program files (x86)\microsoft visual studio 11.0\vc\include\xlocnum
;	COMDAT ??__E?id@?$numpunct@D@std@@2V0locale@2@A@@YAXXZ
text$yc	SEGMENT
??__E?id@?$numpunct@D@std@@2V0locale@2@A@@YAXXZ PROC	; `dynamic initializer for 'std::numpunct<char>::id'', COMDAT

; 155  : 		void _Getvals(wchar_t, const lconv *_Ptr, _Locinfo::_Cvtvec)

	push	ebp
	mov	ebp, esp
	push	0
	mov	ecx, OFFSET ?id@?$numpunct@D@std@@2V0locale@2@A ; std::numpunct<char>::id
	call	??0id@locale@std@@QAE@I@Z		; std::locale::id::id
	pop	ebp
	ret	0
??__E?id@?$numpunct@D@std@@2V0locale@2@A@@YAXXZ ENDP	; `dynamic initializer for 'std::numpunct<char>::id''
text$yc	ENDS
; Function compile flags: /Odtp
; File c:\program files (x86)\microsoft visual studio 11.0\vc\include\xlocnum
;	COMDAT ??__E?id@?$num_put@_WV?$back_insert_iterator@V?$basic_string@_WU?$char_traits@_W@std@@V?$allocator@_W@2@@std@@@std@@@std@@2V0locale@2@A@@YAXXZ
text$yc	SEGMENT
??__E?id@?$num_put@_WV?$back_insert_iterator@V?$basic_string@_WU?$char_traits@_W@std@@V?$allocator@_W@2@@std@@@std@@@std@@2V0locale@2@A@@YAXXZ PROC ; `dynamic initializer for 'std::num_put<wchar_t,std::back_insert_iterator<std::basic_string<wchar_t,std::char_traits<wchar_t>,std::allocator<wchar_t> > > >::id'', COMDAT

; 155  : 		void _Getvals(wchar_t, const lconv *_Ptr, _Locinfo::_Cvtvec)

	push	ebp
	mov	ebp, esp
	push	0
	mov	ecx, OFFSET ?id@?$num_put@_WV?$back_insert_iterator@V?$basic_string@_WU?$char_traits@_W@std@@V?$allocator@_W@2@@std@@@std@@@std@@2V0locale@2@A ; std::num_put<wchar_t,std::back_insert_iterator<std::basic_string<wchar_t,std::char_traits<wchar_t>,std::allocator<wchar_t> > > >::id
	call	??0id@locale@std@@QAE@I@Z		; std::locale::id::id
	pop	ebp
	ret	0
??__E?id@?$num_put@_WV?$back_insert_iterator@V?$basic_string@_WU?$char_traits@_W@std@@V?$allocator@_W@2@@std@@@std@@@std@@2V0locale@2@A@@YAXXZ ENDP ; `dynamic initializer for 'std::num_put<wchar_t,std::back_insert_iterator<std::basic_string<wchar_t,std::char_traits<wchar_t>,std::allocator<wchar_t> > > >::id''
text$yc	ENDS
; Function compile flags: /Odtp
; File c:\program files (x86)\microsoft visual studio 11.0\vc\include\xlocnum
;	COMDAT ??__E?id@?$num_put@DV?$back_insert_iterator@V?$basic_string@DU?$char_traits@D@std@@V?$allocator@D@2@@std@@@std@@@std@@2V0locale@2@A@@YAXXZ
text$yc	SEGMENT
??__E?id@?$num_put@DV?$back_insert_iterator@V?$basic_string@DU?$char_traits@D@std@@V?$allocator@D@2@@std@@@std@@@std@@2V0locale@2@A@@YAXXZ PROC ; `dynamic initializer for 'std::num_put<char,std::back_insert_iterator<std::basic_string<char,std::char_traits<char>,std::allocator<char> > > >::id'', COMDAT

; 155  : 		void _Getvals(wchar_t, const lconv *_Ptr, _Locinfo::_Cvtvec)

	push	ebp
	mov	ebp, esp
	push	0
	mov	ecx, OFFSET ?id@?$num_put@DV?$back_insert_iterator@V?$basic_string@DU?$char_traits@D@std@@V?$allocator@D@2@@std@@@std@@@std@@2V0locale@2@A ; std::num_put<char,std::back_insert_iterator<std::basic_string<char,std::char_traits<char>,std::allocator<char> > > >::id
	call	??0id@locale@std@@QAE@I@Z		; std::locale::id::id
	pop	ebp
	ret	0
??__E?id@?$num_put@DV?$back_insert_iterator@V?$basic_string@DU?$char_traits@D@std@@V?$allocator@D@2@@std@@@std@@@std@@2V0locale@2@A@@YAXXZ ENDP ; `dynamic initializer for 'std::num_put<char,std::back_insert_iterator<std::basic_string<char,std::char_traits<char>,std::allocator<char> > > >::id''
text$yc	ENDS
; Function compile flags: /Odtp
; File c:\program files (x86)\microsoft visual studio 11.0\vc\include\xmemory0
;	COMDAT ??$destroy@PAD@?$allocator_traits@V?$allocator@D@std@@@std@@SAXAAV?$allocator@D@1@PAPAD@Z
_TEXT	SEGMENT
__Al$ = 8						; size = 4
__Ptr$ = 12						; size = 4
??$destroy@PAD@?$allocator_traits@V?$allocator@D@std@@@std@@SAXAAV?$allocator@D@1@PAPAD@Z PROC ; std::allocator_traits<std::allocator<char> >::destroy<char *>, COMDAT

; 755  : 		static void destroy(_Alloc& _Al, _Uty *_Ptr)

	push	ebp
	mov	ebp, esp

; 756  : 		{	// destroy object at _Ptr
; 757  : 		_Al.destroy(_Ptr);

	mov	eax, DWORD PTR __Ptr$[ebp]
	push	eax
	mov	ecx, DWORD PTR __Al$[ebp]
	call	??$destroy@PAD@?$allocator@D@std@@QAEXPAPAD@Z ; std::allocator<char>::destroy<char *>

; 758  : 		}

	pop	ebp
	ret	0
??$destroy@PAD@?$allocator_traits@V?$allocator@D@std@@@std@@SAXAAV?$allocator@D@1@PAPAD@Z ENDP ; std::allocator_traits<std::allocator<char> >::destroy<char *>
_TEXT	ENDS
; Function compile flags: /Odtp
; File c:\program files (x86)\microsoft visual studio 11.0\vc\include\xmemory0
;	COMDAT ??$construct@PADAAPAD@?$allocator_traits@V?$allocator@D@std@@@std@@SAXAAV?$allocator@D@1@PAPADAAPAD@Z
_TEXT	SEGMENT
__Al$ = 8						; size = 4
__Ptr$ = 12						; size = 4
__V0$ = 16						; size = 4
??$construct@PADAAPAD@?$allocator_traits@V?$allocator@D@std@@@std@@SAXAAV?$allocator@D@1@PAPADAAPAD@Z PROC ; std::allocator_traits<std::allocator<char> >::construct<char *,char * &>, COMDAT

; 751  : _VARIADIC_EXPAND_0X(_ALLOC_TRAITS_SPECIAL_CONSTRUCT, , , , )

	push	ebp
	mov	ebp, esp
	mov	eax, DWORD PTR __V0$[ebp]
	push	eax
	call	??$forward@AAPAD@std@@YAAAPADAAPAD@Z	; std::forward<char * &>
	add	esp, 4
	push	eax
	mov	ecx, DWORD PTR __Ptr$[ebp]
	push	ecx
	mov	ecx, DWORD PTR __Al$[ebp]
	call	??$construct@PADAAPAD@?$allocator@D@std@@QAEXPAPADAAPAD@Z ; std::allocator<char>::construct<char *,char * &>
	pop	ebp
	ret	0
??$construct@PADAAPAD@?$allocator_traits@V?$allocator@D@std@@@std@@SAXAAV?$allocator@D@1@PAPADAAPAD@Z ENDP ; std::allocator_traits<std::allocator<char> >::construct<char *,char * &>
_TEXT	ENDS
; Function compile flags: /Odtp
; File c:\program files (x86)\microsoft visual studio 11.0\vc\include\type_traits
;	COMDAT ??$forward@AAPAD@std@@YAAAPADAAPAD@Z
_TEXT	SEGMENT
__Arg$ = 8						; size = 4
??$forward@AAPAD@std@@YAAAPADAAPAD@Z PROC		; std::forward<char * &>, COMDAT

; 1775 : 	{	// forward an lvalue

	push	ebp
	mov	ebp, esp

; 1776 : 	return (static_cast<_Ty&&>(_Arg));

	mov	eax, DWORD PTR __Arg$[ebp]

; 1777 : 	}

	pop	ebp
	ret	0
??$forward@AAPAD@std@@YAAAPADAAPAD@Z ENDP		; std::forward<char * &>
_TEXT	ENDS
; Function compile flags: /Odtp
;	COMDAT ??__F?_System_object@?$_Error_objects@H@std@@2V_System_error_category@2@A@@YAXXZ
text$yd	SEGMENT
??__F?_System_object@?$_Error_objects@H@std@@2V_System_error_category@2@A@@YAXXZ PROC ; `dynamic atexit destructor for 'std::_Error_objects<int>::_System_object'', COMDAT
	push	ebp
	mov	ebp, esp
	mov	ecx, OFFSET ?_System_object@?$_Error_objects@H@std@@2V_System_error_category@2@A ; std::_Error_objects<int>::_System_object
	call	??1_System_error_category@std@@UAE@XZ
	pop	ebp
	ret	0
??__F?_System_object@?$_Error_objects@H@std@@2V_System_error_category@2@A@@YAXXZ ENDP ; `dynamic atexit destructor for 'std::_Error_objects<int>::_System_object''
text$yd	ENDS
; Function compile flags: /Odtp
; File c:\program files (x86)\microsoft visual studio 11.0\vc\include\xmemory0
;	COMDAT ??__E?_System_object@?$_Error_objects@H@std@@2V_System_error_category@2@A@@YAXXZ
text$yc	SEGMENT
??__E?_System_object@?$_Error_objects@H@std@@2V_System_error_category@2@A@@YAXXZ PROC ; `dynamic initializer for 'std::_Error_objects<int>::_System_object'', COMDAT

; 627  : 		{	// estimate maximum array size

	push	ebp
	mov	ebp, esp
	mov	ecx, OFFSET ?_System_object@?$_Error_objects@H@std@@2V_System_error_category@2@A ; std::_Error_objects<int>::_System_object
	call	??0_System_error_category@std@@QAE@XZ	; std::_System_error_category::_System_error_category
	push	OFFSET ??__F?_System_object@?$_Error_objects@H@std@@2V_System_error_category@2@A@@YAXXZ ; `dynamic atexit destructor for 'std::_Error_objects<int>::_System_object''
	call	_atexit
	add	esp, 4
	pop	ebp
	ret	0
??__E?_System_object@?$_Error_objects@H@std@@2V_System_error_category@2@A@@YAXXZ ENDP ; `dynamic initializer for 'std::_Error_objects<int>::_System_object''
text$yc	ENDS
; Function compile flags: /Odtp
;	COMDAT ??__F?_Iostream_object@?$_Error_objects@H@std@@2V_Iostream_error_category@2@A@@YAXXZ
text$yd	SEGMENT
??__F?_Iostream_object@?$_Error_objects@H@std@@2V_Iostream_error_category@2@A@@YAXXZ PROC ; `dynamic atexit destructor for 'std::_Error_objects<int>::_Iostream_object'', COMDAT
	push	ebp
	mov	ebp, esp
	mov	ecx, OFFSET ?_Iostream_object@?$_Error_objects@H@std@@2V_Iostream_error_category@2@A ; std::_Error_objects<int>::_Iostream_object
	call	??1_Iostream_error_category@std@@UAE@XZ
	pop	ebp
	ret	0
??__F?_Iostream_object@?$_Error_objects@H@std@@2V_Iostream_error_category@2@A@@YAXXZ ENDP ; `dynamic atexit destructor for 'std::_Error_objects<int>::_Iostream_object''
text$yd	ENDS
; Function compile flags: /Odtp
; File c:\program files (x86)\microsoft visual studio 11.0\vc\include\xmemory0
;	COMDAT ??__E?_Iostream_object@?$_Error_objects@H@std@@2V_Iostream_error_category@2@A@@YAXXZ
text$yc	SEGMENT
??__E?_Iostream_object@?$_Error_objects@H@std@@2V_Iostream_error_category@2@A@@YAXXZ PROC ; `dynamic initializer for 'std::_Error_objects<int>::_Iostream_object'', COMDAT

; 627  : 		{	// estimate maximum array size

	push	ebp
	mov	ebp, esp
	mov	ecx, OFFSET ?_Iostream_object@?$_Error_objects@H@std@@2V_Iostream_error_category@2@A ; std::_Error_objects<int>::_Iostream_object
	call	??0_Iostream_error_category@std@@QAE@XZ	; std::_Iostream_error_category::_Iostream_error_category
	push	OFFSET ??__F?_Iostream_object@?$_Error_objects@H@std@@2V_Iostream_error_category@2@A@@YAXXZ ; `dynamic atexit destructor for 'std::_Error_objects<int>::_Iostream_object''
	call	_atexit
	add	esp, 4
	pop	ebp
	ret	0
??__E?_Iostream_object@?$_Error_objects@H@std@@2V_Iostream_error_category@2@A@@YAXXZ ENDP ; `dynamic initializer for 'std::_Error_objects<int>::_Iostream_object''
text$yc	ENDS
; Function compile flags: /Odtp
;	COMDAT ??__F?_Generic_object@?$_Error_objects@H@std@@2V_Generic_error_category@2@A@@YAXXZ
text$yd	SEGMENT
??__F?_Generic_object@?$_Error_objects@H@std@@2V_Generic_error_category@2@A@@YAXXZ PROC ; `dynamic atexit destructor for 'std::_Error_objects<int>::_Generic_object'', COMDAT
	push	ebp
	mov	ebp, esp
	mov	ecx, OFFSET ?_Generic_object@?$_Error_objects@H@std@@2V_Generic_error_category@2@A ; std::_Error_objects<int>::_Generic_object
	call	??1_Generic_error_category@std@@UAE@XZ
	pop	ebp
	ret	0
??__F?_Generic_object@?$_Error_objects@H@std@@2V_Generic_error_category@2@A@@YAXXZ ENDP ; `dynamic atexit destructor for 'std::_Error_objects<int>::_Generic_object''
text$yd	ENDS
; Function compile flags: /Odtp
; File c:\program files (x86)\microsoft visual studio 11.0\vc\include\xmemory0
;	COMDAT ??__E?_Generic_object@?$_Error_objects@H@std@@2V_Generic_error_category@2@A@@YAXXZ
text$yc	SEGMENT
??__E?_Generic_object@?$_Error_objects@H@std@@2V_Generic_error_category@2@A@@YAXXZ PROC ; `dynamic initializer for 'std::_Error_objects<int>::_Generic_object'', COMDAT

; 627  : 		{	// estimate maximum array size

	push	ebp
	mov	ebp, esp
	mov	ecx, OFFSET ?_Generic_object@?$_Error_objects@H@std@@2V_Generic_error_category@2@A ; std::_Error_objects<int>::_Generic_object
	call	??0_Generic_error_category@std@@QAE@XZ	; std::_Generic_error_category::_Generic_error_category
	push	OFFSET ??__F?_Generic_object@?$_Error_objects@H@std@@2V_Generic_error_category@2@A@@YAXXZ ; `dynamic atexit destructor for 'std::_Error_objects<int>::_Generic_object''
	call	_atexit
	add	esp, 4
	pop	ebp
	ret	0
??__E?_Generic_object@?$_Error_objects@H@std@@2V_Generic_error_category@2@A@@YAXXZ ENDP ; `dynamic initializer for 'std::_Error_objects<int>::_Generic_object''
text$yc	ENDS
; Function compile flags: /Odtp
; File c:\program files (x86)\microsoft visual studio 11.0\vc\include\xmemory0
;	COMDAT ??$_Allocate@D@std@@YAPADIPAD@Z
_TEXT	SEGMENT
__Ptr$ = -4						; size = 4
__Count$ = 8						; size = 4
___formal$ = 12						; size = 4
??$_Allocate@D@std@@YAPADIPAD@Z PROC			; std::_Allocate<char>, COMDAT

; 22   : 	{	// allocate storage for _Count elements of type _Ty

	push	ebp
	mov	ebp, esp
	push	ecx

; 23   : 	void *_Ptr = 0;

	mov	DWORD PTR __Ptr$[ebp], 0

; 24   : 
; 25   : 	if (_Count == 0)

	cmp	DWORD PTR __Count$[ebp], 0
	jne	SHORT $LN4@Allocate

; 26   : 		;
; 27   : 	else if (((size_t)(-1) / sizeof (_Ty) < _Count)

	jmp	SHORT $LN3@Allocate
$LN4@Allocate:

; 28   : 		|| (_Ptr = ::operator new(_Count * sizeof (_Ty))) == 0)

	cmp	DWORD PTR __Count$[ebp], -1
	ja	SHORT $LN1@Allocate
	mov	eax, DWORD PTR __Count$[ebp]
	push	eax
	call	??2@YAPAXI@Z				; operator new
	add	esp, 4
	mov	DWORD PTR __Ptr$[ebp], eax
	cmp	DWORD PTR __Ptr$[ebp], 0
	jne	SHORT $LN3@Allocate
$LN1@Allocate:

; 29   : 		_Xbad_alloc();	// report no memory

	call	?_Xbad_alloc@std@@YAXXZ			; std::_Xbad_alloc
$LN3@Allocate:

; 30   : 
; 31   : 	return ((_Ty *)_Ptr);

	mov	eax, DWORD PTR __Ptr$[ebp]
$LN6@Allocate:

; 32   : 	}

	mov	esp, ebp
	pop	ebp
	ret	0
??$_Allocate@D@std@@YAPADIPAD@Z ENDP			; std::_Allocate<char>
_TEXT	ENDS
; Function compile flags: /Odtp
; File c:\program files (x86)\microsoft visual studio 11.0\vc\include\xstddef
;	COMDAT ??$addressof@D@std@@YAPADAAD@Z
_TEXT	SEGMENT
__Val$ = 8						; size = 4
??$addressof@D@std@@YAPADAAD@Z PROC			; std::addressof<char>, COMDAT

; 85   : 	{	// return address of _Val

	push	ebp
	mov	ebp, esp

; 86   : 	return (reinterpret_cast<_Ty *>(
; 87   : 		(&const_cast<char&>(
; 88   : 		reinterpret_cast<const volatile char&>(_Val)))));

	mov	eax, DWORD PTR __Val$[ebp]

; 89   : 	}

	pop	ebp
	ret	0
??$addressof@D@std@@YAPADAAD@Z ENDP			; std::addressof<char>
_TEXT	ENDS
; Function compile flags: /Odtp
; File c:\program files (x86)\microsoft visual studio 11.0\vc\include\xmemory0
;	COMDAT ??$destroy@PAD@?$_Wrap_alloc@V?$allocator@D@std@@@std@@QAEXPAPAD@Z
_TEXT	SEGMENT
_this$ = -4						; size = 4
__Ptr$ = 8						; size = 4
??$destroy@PAD@?$_Wrap_alloc@V?$allocator@D@std@@@std@@QAEXPAPAD@Z PROC ; std::_Wrap_alloc<std::allocator<char> >::destroy<char *>, COMDAT
; _this$ = ecx

; 907  : 		void destroy(_Ty *_Ptr)

	push	ebp
	mov	ebp, esp
	push	ecx
	mov	DWORD PTR _this$[ebp], ecx

; 908  : 		{	// destroy object at _Ptr
; 909  : 		_Mytraits::destroy(*this, _Ptr);

	mov	eax, DWORD PTR __Ptr$[ebp]
	push	eax
	mov	ecx, DWORD PTR _this$[ebp]
	push	ecx
	call	??$destroy@PAD@?$allocator_traits@V?$allocator@D@std@@@std@@SAXAAV?$allocator@D@1@PAPAD@Z ; std::allocator_traits<std::allocator<char> >::destroy<char *>
	add	esp, 8

; 910  : 		}

	mov	esp, ebp
	pop	ebp
	ret	4
??$destroy@PAD@?$_Wrap_alloc@V?$allocator@D@std@@@std@@QAEXPAPAD@Z ENDP ; std::_Wrap_alloc<std::allocator<char> >::destroy<char *>
_TEXT	ENDS
; Function compile flags: /Odtp
; File c:\program files (x86)\microsoft visual studio 11.0\vc\include\xmemory0
;	COMDAT ??$construct@PADAAPAD@?$_Wrap_alloc@V?$allocator@D@std@@@std@@QAEXPAPADAAPAD@Z
_TEXT	SEGMENT
_this$ = -4						; size = 4
__Ptr$ = 8						; size = 4
__V0$ = 12						; size = 4
??$construct@PADAAPAD@?$_Wrap_alloc@V?$allocator@D@std@@@std@@QAEXPAPADAAPAD@Z PROC ; std::_Wrap_alloc<std::allocator<char> >::construct<char *,char * &>, COMDAT
; _this$ = ecx

; 903  : _VARIADIC_EXPAND_0X(_WRAP_ALLOC_CONSTRUCT, , , , )

	push	ebp
	mov	ebp, esp
	push	ecx
	mov	DWORD PTR _this$[ebp], ecx
	mov	eax, DWORD PTR __V0$[ebp]
	push	eax
	call	??$forward@AAPAD@std@@YAAAPADAAPAD@Z	; std::forward<char * &>
	add	esp, 4
	push	eax
	mov	ecx, DWORD PTR __Ptr$[ebp]
	push	ecx
	mov	edx, DWORD PTR _this$[ebp]
	push	edx
	call	??$construct@PADAAPAD@?$allocator_traits@V?$allocator@D@std@@@std@@SAXAAV?$allocator@D@1@PAPADAAPAD@Z ; std::allocator_traits<std::allocator<char> >::construct<char *,char * &>
	add	esp, 12					; 0000000cH
	mov	esp, ebp
	pop	ebp
	ret	8
??$construct@PADAAPAD@?$_Wrap_alloc@V?$allocator@D@std@@@std@@QAEXPAPADAAPAD@Z ENDP ; std::_Wrap_alloc<std::allocator<char> >::construct<char *,char * &>
_TEXT	ENDS
; Function compile flags: /Odtp
; File c:\users\zhitao li\documents\visual studio 2012\projects\freefalcon\sim\include\airframe.h
;	COMDAT ?IsEngineFlag@AirframeClass@@QAEHW4EngineFlags@1@@Z
_TEXT	SEGMENT
_this$ = -8						; size = 4
tv67 = -4						; size = 4
_ef$ = 8						; size = 4
?IsEngineFlag@AirframeClass@@QAEHW4EngineFlags@1@@Z PROC ; AirframeClass::IsEngineFlag, COMDAT
; _this$ = ecx

; 1070 : 	int IsEngineFlag(EngineFlags ef) { return (engineFlags & ef) ? 1 : 0; };

	push	ebp
	mov	ebp, esp
	sub	esp, 8
	mov	DWORD PTR _this$[ebp], ecx
	mov	eax, DWORD PTR _this$[ebp]
	mov	ecx, DWORD PTR [eax+1676]
	and	ecx, DWORD PTR _ef$[ebp]
	je	SHORT $LN3@IsEngineFl
	mov	DWORD PTR tv67[ebp], 1
	jmp	SHORT $LN4@IsEngineFl
$LN3@IsEngineFl:
	mov	DWORD PTR tv67[ebp], 0
$LN4@IsEngineFl:
	mov	eax, DWORD PTR tv67[ebp]
	mov	esp, ebp
	pop	ebp
	ret	4
?IsEngineFlag@AirframeClass@@QAEHW4EngineFlags@1@@Z ENDP ; AirframeClass::IsEngineFlag
_TEXT	ENDS
; Function compile flags: /Odtp
; File c:\users\zhitao li\documents\visual studio 2012\projects\freefalcon\sim\include\icp.h
;	COMDAT ?SetICPUpdateFlag@ICPClass@@QAEXH@Z
_TEXT	SEGMENT
_this$ = -4						; size = 4
_newFlag$ = 8						; size = 4
?SetICPUpdateFlag@ICPClass@@QAEXH@Z PROC		; ICPClass::SetICPUpdateFlag, COMDAT
; _this$ = ecx

; 573  :    void SetICPUpdateFlag (int newFlag) {mUpdateFlags |= newFlag;};

	push	ebp
	mov	ebp, esp
	push	ecx
	mov	DWORD PTR _this$[ebp], ecx
	mov	eax, DWORD PTR _this$[ebp]
	mov	ecx, DWORD PTR [eax+28]
	or	ecx, DWORD PTR _newFlag$[ebp]
	mov	edx, DWORD PTR _this$[ebp]
	mov	DWORD PTR [edx+28], ecx
	mov	esp, ebp
	pop	ebp
	ret	4
?SetICPUpdateFlag@ICPClass@@QAEXH@Z ENDP		; ICPClass::SetICPUpdateFlag
_TEXT	ENDS
; Function compile flags: /Odtp
; File c:\users\zhitao li\documents\visual studio 2012\projects\freefalcon\sim\include\icp.h
;	COMDAT ?GetICPTertiaryMode@ICPClass@@QAEJXZ
_TEXT	SEGMENT
_this$ = -4						; size = 4
?GetICPTertiaryMode@ICPClass@@QAEJXZ PROC		; ICPClass::GetICPTertiaryMode, COMDAT
; _this$ = ecx

; 569  : 	long GetICPTertiaryMode(void) {return mICPTertiaryMode;};

	push	ebp
	mov	ebp, esp
	push	ecx
	mov	DWORD PTR _this$[ebp], ecx
	mov	eax, DWORD PTR _this$[ebp]
	mov	eax, DWORD PTR [eax+16]
	mov	esp, ebp
	pop	ebp
	ret	0
?GetICPTertiaryMode@ICPClass@@QAEJXZ ENDP		; ICPClass::GetICPTertiaryMode
_TEXT	ENDS
; Function compile flags: /Odtp
; File c:\users\zhitao li\documents\visual studio 2012\projects\freefalcon\sim\include\icp.h
;	COMDAT ?GetICPSecondaryMode@ICPClass@@QAEJXZ
_TEXT	SEGMENT
_this$ = -4						; size = 4
?GetICPSecondaryMode@ICPClass@@QAEJXZ PROC		; ICPClass::GetICPSecondaryMode, COMDAT
; _this$ = ecx

; 568  : 	long GetICPSecondaryMode(void) {return mICPSecondaryMode;};

	push	ebp
	mov	ebp, esp
	push	ecx
	mov	DWORD PTR _this$[ebp], ecx
	mov	eax, DWORD PTR _this$[ebp]
	mov	eax, DWORD PTR [eax+12]
	mov	esp, ebp
	pop	ebp
	ret	0
?GetICPSecondaryMode@ICPClass@@QAEJXZ ENDP		; ICPClass::GetICPSecondaryMode
_TEXT	ENDS
; Function compile flags: /Odtp
; File c:\users\zhitao li\documents\visual studio 2012\projects\freefalcon\sim\include\icp.h
;	COMDAT ?IsICPSet@ICPClass@@QAEHH@Z
_TEXT	SEGMENT
_this$ = -8						; size = 4
tv67 = -4						; size = 4
_testFlag$ = 8						; size = 4
?IsICPSet@ICPClass@@QAEHH@Z PROC			; ICPClass::IsICPSet, COMDAT
; _this$ = ecx

; 499  : 	int IsICPSet (int testFlag) {return ICPModeFlags & testFlag ? 1 : 0;};

	push	ebp
	mov	ebp, esp
	sub	esp, 8
	mov	DWORD PTR _this$[ebp], ecx
	mov	eax, DWORD PTR _this$[ebp]
	mov	ecx, DWORD PTR [eax+1376]
	and	ecx, DWORD PTR _testFlag$[ebp]
	je	SHORT $LN3@IsICPSet
	mov	DWORD PTR tv67[ebp], 1
	jmp	SHORT $LN4@IsICPSet
$LN3@IsICPSet:
	mov	DWORD PTR tv67[ebp], 0
$LN4@IsICPSet:
	mov	eax, DWORD PTR tv67[ebp]
	mov	esp, ebp
	pop	ebp
	ret	4
?IsICPSet@ICPClass@@QAEHH@Z ENDP			; ICPClass::IsICPSet
_TEXT	ENDS
; Function compile flags: /Odtp
; File c:\users\zhitao li\documents\visual studio 2012\projects\freefalcon\sim\include\otwdrive.h
;	COMDAT ?GetVirtualCockpit@OTWDriverClass@@QAEPAVDrawableBSP@@XZ
_TEXT	SEGMENT
_this$ = -4						; size = 4
?GetVirtualCockpit@OTWDriverClass@@QAEPAVDrawableBSP@@XZ PROC ; OTWDriverClass::GetVirtualCockpit, COMDAT
; _this$ = ecx

; 882  : 	DrawableBSP *GetVirtualCockpit(){ return vrCockpit; }

	push	ebp
	mov	ebp, esp
	push	ecx
	mov	DWORD PTR _this$[ebp], ecx
	mov	eax, DWORD PTR _this$[ebp]
	mov	eax, DWORD PTR [eax+33996]
	mov	esp, ebp
	pop	ebp
	ret	0
?GetVirtualCockpit@OTWDriverClass@@QAEPAVDrawableBSP@@XZ ENDP ; OTWDriverClass::GetVirtualCockpit
_TEXT	ENDS
; Function compile flags: /Odtp
; File c:\users\zhitao li\documents\visual studio 2012\projects\freefalcon\sim\include\simbase.h
;	COMDAT ?IsSetFlag@SimBaseClass@@QBEHH@Z
_TEXT	SEGMENT
_this$ = -8						; size = 4
tv68 = -4						; size = 4
_flag$ = 8						; size = 4
?IsSetFlag@SimBaseClass@@QBEHH@Z PROC			; SimBaseClass::IsSetFlag, COMDAT
; _this$ = ecx

; 178  : 	int  IsSetFlag(int flag) const { return ((specialData.flags & flag) ? TRUE : FALSE); }

	push	ebp
	mov	ebp, esp
	sub	esp, 8
	mov	DWORD PTR _this$[ebp], ecx
	mov	eax, DWORD PTR _this$[ebp]
	mov	ecx, DWORD PTR [eax+172]
	and	ecx, DWORD PTR _flag$[ebp]
	je	SHORT $LN3@IsSetFlag
	mov	DWORD PTR tv68[ebp], 1
	jmp	SHORT $LN4@IsSetFlag
$LN3@IsSetFlag:
	mov	DWORD PTR tv68[ebp], 0
$LN4@IsSetFlag:
	mov	eax, DWORD PTR tv68[ebp]
	mov	esp, ebp
	pop	ebp
	ret	4
?IsSetFlag@SimBaseClass@@QBEHH@Z ENDP			; SimBaseClass::IsSetFlag
_TEXT	ENDS
; Function compile flags: /Odtp
;	COMDAT ??_G_System_error_category@std@@UAEPAXI@Z
_TEXT	SEGMENT
_this$ = -4						; size = 4
___flags$ = 8						; size = 4
??_G_System_error_category@std@@UAEPAXI@Z PROC		; std::_System_error_category::`scalar deleting destructor', COMDAT
; _this$ = ecx
	push	ebp
	mov	ebp, esp
	push	ecx
	mov	DWORD PTR _this$[ebp], ecx
	mov	ecx, DWORD PTR _this$[ebp]
	call	??1_System_error_category@std@@UAE@XZ
	mov	eax, DWORD PTR ___flags$[ebp]
	and	eax, 1
	je	SHORT $LN1@scalar
	mov	ecx, DWORD PTR _this$[ebp]
	push	ecx
	call	??3@YAXPAX@Z				; operator delete
	add	esp, 4
$LN1@scalar:
	mov	eax, DWORD PTR _this$[ebp]
	mov	esp, ebp
	pop	ebp
	ret	4
??_G_System_error_category@std@@UAEPAXI@Z ENDP		; std::_System_error_category::`scalar deleting destructor'
_TEXT	ENDS
; Function compile flags: /Odtp
;	COMDAT ??1_System_error_category@std@@UAE@XZ
_TEXT	SEGMENT
_this$ = -4						; size = 4
??1_System_error_category@std@@UAE@XZ PROC		; std::_System_error_category::~_System_error_category, COMDAT
; _this$ = ecx
	push	ebp
	mov	ebp, esp
	push	ecx
	mov	DWORD PTR _this$[ebp], ecx
	mov	ecx, DWORD PTR _this$[ebp]
	call	??1_Generic_error_category@std@@UAE@XZ
	mov	esp, ebp
	pop	ebp
	ret	0
??1_System_error_category@std@@UAE@XZ ENDP		; std::_System_error_category::~_System_error_category
_TEXT	ENDS
; Function compile flags: /Odtp
; File c:\program files (x86)\microsoft visual studio 11.0\vc\include\system_error
;	COMDAT ?default_error_condition@_System_error_category@std@@UBE?AVerror_condition@2@H@Z
_TEXT	SEGMENT
_this$ = -4						; size = 4
___$ReturnUdt$ = 8					; size = 4
__Errval$ = 12						; size = 4
?default_error_condition@_System_error_category@std@@UBE?AVerror_condition@2@H@Z PROC ; std::_System_error_category::default_error_condition, COMDAT
; _this$ = ecx

; 641  : 		{	// make error_condition for error code (generic if possible)

	push	ebp
	mov	ebp, esp
	push	ecx
	mov	DWORD PTR _this$[ebp], ecx

; 642  : 		if (_Syserror_map(_Errval))

	mov	eax, DWORD PTR __Errval$[ebp]
	push	eax
	call	?_Syserror_map@std@@YAPBDH@Z		; std::_Syserror_map
	add	esp, 4
	test	eax, eax
	je	SHORT $LN2@default_er

; 643  : 			return (error_condition(_Errval, generic_category()));

	call	?generic_category@std@@YAABVerror_category@1@XZ ; std::generic_category
	push	eax
	mov	ecx, DWORD PTR __Errval$[ebp]
	push	ecx
	mov	ecx, DWORD PTR ___$ReturnUdt$[ebp]
	call	??0error_condition@std@@QAE@HABVerror_category@1@@Z ; std::error_condition::error_condition
	mov	eax, DWORD PTR ___$ReturnUdt$[ebp]
	jmp	SHORT $LN3@default_er

; 644  : 		else

	jmp	SHORT $LN3@default_er
$LN2@default_er:

; 645  : 			return (error_condition(_Errval, system_category()));

	call	?system_category@std@@YAABVerror_category@1@XZ ; std::system_category
	push	eax
	mov	edx, DWORD PTR __Errval$[ebp]
	push	edx
	mov	ecx, DWORD PTR ___$ReturnUdt$[ebp]
	call	??0error_condition@std@@QAE@HABVerror_category@1@@Z ; std::error_condition::error_condition
	mov	eax, DWORD PTR ___$ReturnUdt$[ebp]
$LN3@default_er:

; 646  : 		}

	mov	esp, ebp
	pop	ebp
	ret	8
?default_error_condition@_System_error_category@std@@UBE?AVerror_condition@2@H@Z ENDP ; std::_System_error_category::default_error_condition
_TEXT	ENDS
; Function compile flags: /Odtp
; File c:\program files (x86)\microsoft visual studio 11.0\vc\include\system_error
;	COMDAT ?message@_System_error_category@std@@UBE?AV?$basic_string@DU?$char_traits@D@std@@V?$allocator@D@2@@2@H@Z
_TEXT	SEGMENT
_this$ = -16						; size = 4
$T1 = -12						; size = 4
tv69 = -8						; size = 4
__Name$ = -4						; size = 4
___$ReturnUdt$ = 8					; size = 4
__Errcode$ = 12						; size = 4
?message@_System_error_category@std@@UBE?AV?$basic_string@DU?$char_traits@D@std@@V?$allocator@D@2@@2@H@Z PROC ; std::_System_error_category::message, COMDAT
; _this$ = ecx

; 634  : 		{	// convert to name of error

	push	ebp
	mov	ebp, esp
	sub	esp, 16					; 00000010H
	mov	DWORD PTR _this$[ebp], ecx
	mov	DWORD PTR $T1[ebp], 0

; 635  : 		const char *_Name = _Winerror_map(_Errcode);

	mov	eax, DWORD PTR __Errcode$[ebp]
	push	eax
	call	?_Winerror_map@std@@YAPBDH@Z		; std::_Winerror_map
	add	esp, 4
	mov	DWORD PTR __Name$[ebp], eax

; 636  : 		return (string(_Name != 0 ? _Name : "unknown error"));

	cmp	DWORD PTR __Name$[ebp], 0
	je	SHORT $LN3@message
	mov	ecx, DWORD PTR __Name$[ebp]
	mov	DWORD PTR tv69[ebp], ecx
	jmp	SHORT $LN4@message
$LN3@message:
	mov	DWORD PTR tv69[ebp], OFFSET ??_C@_0O@BFJCFAAK@unknown?5error?$AA@
$LN4@message:
	mov	edx, DWORD PTR tv69[ebp]
	push	edx
	mov	ecx, DWORD PTR ___$ReturnUdt$[ebp]
	call	??0?$basic_string@DU?$char_traits@D@std@@V?$allocator@D@2@@std@@QAE@PBD@Z ; std::basic_string<char,std::char_traits<char>,std::allocator<char> >::basic_string<char,std::char_traits<char>,std::allocator<char> >
	mov	eax, DWORD PTR $T1[ebp]
	or	eax, 1
	mov	DWORD PTR $T1[ebp], eax
	mov	eax, DWORD PTR ___$ReturnUdt$[ebp]

; 637  : 		}

	mov	esp, ebp
	pop	ebp
	ret	8
?message@_System_error_category@std@@UBE?AV?$basic_string@DU?$char_traits@D@std@@V?$allocator@D@2@@2@H@Z ENDP ; std::_System_error_category::message
_TEXT	ENDS
; Function compile flags: /Odtp
; File c:\program files (x86)\microsoft visual studio 11.0\vc\include\system_error
;	COMDAT ?name@_System_error_category@std@@UBEPBDXZ
_TEXT	SEGMENT
_this$ = -4						; size = 4
?name@_System_error_category@std@@UBEPBDXZ PROC		; std::_System_error_category::name, COMDAT
; _this$ = ecx

; 629  : 		{	// get name of category

	push	ebp
	mov	ebp, esp
	push	ecx
	mov	DWORD PTR _this$[ebp], ecx

; 630  : 		return ("system");

	mov	eax, OFFSET ??_C@_06FHFOAHML@system?$AA@

; 631  : 		}

	mov	esp, ebp
	pop	ebp
	ret	0
?name@_System_error_category@std@@UBEPBDXZ ENDP		; std::_System_error_category::name
_TEXT	ENDS
; Function compile flags: /Odtp
; File c:\program files (x86)\microsoft visual studio 11.0\vc\include\system_error
;	COMDAT ??0_System_error_category@std@@QAE@XZ
_TEXT	SEGMENT
_this$ = -4						; size = 4
??0_System_error_category@std@@QAE@XZ PROC		; std::_System_error_category::_System_error_category, COMDAT
; _this$ = ecx

; 624  : 	_System_error_category()

	push	ebp
	mov	ebp, esp
	push	ecx
	mov	DWORD PTR _this$[ebp], ecx
	mov	ecx, DWORD PTR _this$[ebp]
	call	??0_Generic_error_category@std@@QAE@XZ	; std::_Generic_error_category::_Generic_error_category
	mov	eax, DWORD PTR _this$[ebp]
	mov	DWORD PTR [eax], OFFSET ??_7_System_error_category@std@@6B@

; 625  : 		{	// default constructor
; 626  : 		}

	mov	eax, DWORD PTR _this$[ebp]
	mov	esp, ebp
	pop	ebp
	ret	0
??0_System_error_category@std@@QAE@XZ ENDP		; std::_System_error_category::_System_error_category
_TEXT	ENDS
; Function compile flags: /Odtp
;	COMDAT ??_G_Iostream_error_category@std@@UAEPAXI@Z
_TEXT	SEGMENT
_this$ = -4						; size = 4
___flags$ = 8						; size = 4
??_G_Iostream_error_category@std@@UAEPAXI@Z PROC	; std::_Iostream_error_category::`scalar deleting destructor', COMDAT
; _this$ = ecx
	push	ebp
	mov	ebp, esp
	push	ecx
	mov	DWORD PTR _this$[ebp], ecx
	mov	ecx, DWORD PTR _this$[ebp]
	call	??1_Iostream_error_category@std@@UAE@XZ
	mov	eax, DWORD PTR ___flags$[ebp]
	and	eax, 1
	je	SHORT $LN1@scalar
	mov	ecx, DWORD PTR _this$[ebp]
	push	ecx
	call	??3@YAXPAX@Z				; operator delete
	add	esp, 4
$LN1@scalar:
	mov	eax, DWORD PTR _this$[ebp]
	mov	esp, ebp
	pop	ebp
	ret	4
??_G_Iostream_error_category@std@@UAEPAXI@Z ENDP	; std::_Iostream_error_category::`scalar deleting destructor'
_TEXT	ENDS
; Function compile flags: /Odtp
;	COMDAT ??1_Iostream_error_category@std@@UAE@XZ
_TEXT	SEGMENT
_this$ = -4						; size = 4
??1_Iostream_error_category@std@@UAE@XZ PROC		; std::_Iostream_error_category::~_Iostream_error_category, COMDAT
; _this$ = ecx
	push	ebp
	mov	ebp, esp
	push	ecx
	mov	DWORD PTR _this$[ebp], ecx
	mov	ecx, DWORD PTR _this$[ebp]
	call	??1_Generic_error_category@std@@UAE@XZ
	mov	esp, ebp
	pop	ebp
	ret	0
??1_Iostream_error_category@std@@UAE@XZ ENDP		; std::_Iostream_error_category::~_Iostream_error_category
_TEXT	ENDS
; Function compile flags: /Odtp
; File c:\program files (x86)\microsoft visual studio 11.0\vc\include\system_error
;	COMDAT ?message@_Iostream_error_category@std@@UBE?AV?$basic_string@DU?$char_traits@D@std@@V?$allocator@D@2@@2@H@Z
_TEXT	SEGMENT
_this$ = -8						; size = 4
$T1 = -4						; size = 4
___$ReturnUdt$ = 8					; size = 4
__Errcode$ = 12						; size = 4
?message@_Iostream_error_category@std@@UBE?AV?$basic_string@DU?$char_traits@D@std@@V?$allocator@D@2@@2@H@Z PROC ; std::_Iostream_error_category::message, COMDAT
; _this$ = ecx

; 611  : 		{	// convert to name of error

	push	ebp
	mov	ebp, esp
	sub	esp, 8
	mov	DWORD PTR _this$[ebp], ecx
	mov	DWORD PTR $T1[ebp], 0

; 612  : 		if (_Errcode == (int)io_errc::stream)

	cmp	DWORD PTR __Errcode$[ebp], 1
	jne	SHORT $LN2@message

; 613  : 			return ("iostream stream error");

	push	OFFSET ??_C@_0BG@PADBLCHM@iostream?5stream?5error?$AA@
	mov	ecx, DWORD PTR ___$ReturnUdt$[ebp]
	call	??0?$basic_string@DU?$char_traits@D@std@@V?$allocator@D@2@@std@@QAE@PBD@Z ; std::basic_string<char,std::char_traits<char>,std::allocator<char> >::basic_string<char,std::char_traits<char>,std::allocator<char> >
	mov	eax, DWORD PTR $T1[ebp]
	or	eax, 1
	mov	DWORD PTR $T1[ebp], eax
	mov	eax, DWORD PTR ___$ReturnUdt$[ebp]
	jmp	SHORT $LN3@message

; 614  : 		else

	jmp	SHORT $LN3@message
$LN2@message:

; 615  : 			return (_Generic_error_category::message(_Errcode));

	mov	ecx, DWORD PTR __Errcode$[ebp]
	push	ecx
	mov	edx, DWORD PTR ___$ReturnUdt$[ebp]
	push	edx
	mov	ecx, DWORD PTR _this$[ebp]
	call	?message@_Generic_error_category@std@@UBE?AV?$basic_string@DU?$char_traits@D@std@@V?$allocator@D@2@@2@H@Z ; std::_Generic_error_category::message
	mov	eax, DWORD PTR $T1[ebp]
	or	eax, 1
	mov	DWORD PTR $T1[ebp], eax
	mov	eax, DWORD PTR ___$ReturnUdt$[ebp]
$LN3@message:

; 616  : 		}

	mov	esp, ebp
	pop	ebp
	ret	8
?message@_Iostream_error_category@std@@UBE?AV?$basic_string@DU?$char_traits@D@std@@V?$allocator@D@2@@2@H@Z ENDP ; std::_Iostream_error_category::message
_TEXT	ENDS
; Function compile flags: /Odtp
; File c:\program files (x86)\microsoft visual studio 11.0\vc\include\system_error
;	COMDAT ?name@_Iostream_error_category@std@@UBEPBDXZ
_TEXT	SEGMENT
_this$ = -4						; size = 4
?name@_Iostream_error_category@std@@UBEPBDXZ PROC	; std::_Iostream_error_category::name, COMDAT
; _this$ = ecx

; 606  : 		{	// get name of category

	push	ebp
	mov	ebp, esp
	push	ecx
	mov	DWORD PTR _this$[ebp], ecx

; 607  : 		return ("iostream");

	mov	eax, OFFSET ??_C@_08LLGCOLLL@iostream?$AA@

; 608  : 		}

	mov	esp, ebp
	pop	ebp
	ret	0
?name@_Iostream_error_category@std@@UBEPBDXZ ENDP	; std::_Iostream_error_category::name
_TEXT	ENDS
; Function compile flags: /Odtp
; File c:\program files (x86)\microsoft visual studio 11.0\vc\include\system_error
;	COMDAT ??0_Iostream_error_category@std@@QAE@XZ
_TEXT	SEGMENT
_this$ = -4						; size = 4
??0_Iostream_error_category@std@@QAE@XZ PROC		; std::_Iostream_error_category::_Iostream_error_category, COMDAT
; _this$ = ecx

; 601  : 	_Iostream_error_category()

	push	ebp
	mov	ebp, esp
	push	ecx
	mov	DWORD PTR _this$[ebp], ecx
	mov	ecx, DWORD PTR _this$[ebp]
	call	??0_Generic_error_category@std@@QAE@XZ	; std::_Generic_error_category::_Generic_error_category
	mov	eax, DWORD PTR _this$[ebp]
	mov	DWORD PTR [eax], OFFSET ??_7_Iostream_error_category@std@@6B@

; 602  : 		{	// default constructor
; 603  : 		}

	mov	eax, DWORD PTR _this$[ebp]
	mov	esp, ebp
	pop	ebp
	ret	0
??0_Iostream_error_category@std@@QAE@XZ ENDP		; std::_Iostream_error_category::_Iostream_error_category
_TEXT	ENDS
; Function compile flags: /Odtp
;	COMDAT ??_G_Generic_error_category@std@@UAEPAXI@Z
_TEXT	SEGMENT
_this$ = -4						; size = 4
___flags$ = 8						; size = 4
??_G_Generic_error_category@std@@UAEPAXI@Z PROC		; std::_Generic_error_category::`scalar deleting destructor', COMDAT
; _this$ = ecx
	push	ebp
	mov	ebp, esp
	push	ecx
	mov	DWORD PTR _this$[ebp], ecx
	mov	ecx, DWORD PTR _this$[ebp]
	call	??1_Generic_error_category@std@@UAE@XZ
	mov	eax, DWORD PTR ___flags$[ebp]
	and	eax, 1
	je	SHORT $LN1@scalar
	mov	ecx, DWORD PTR _this$[ebp]
	push	ecx
	call	??3@YAXPAX@Z				; operator delete
	add	esp, 4
$LN1@scalar:
	mov	eax, DWORD PTR _this$[ebp]
	mov	esp, ebp
	pop	ebp
	ret	4
??_G_Generic_error_category@std@@UAEPAXI@Z ENDP		; std::_Generic_error_category::`scalar deleting destructor'
_TEXT	ENDS
; Function compile flags: /Odtp
;	COMDAT ??1_Generic_error_category@std@@UAE@XZ
_TEXT	SEGMENT
_this$ = -4						; size = 4
??1_Generic_error_category@std@@UAE@XZ PROC		; std::_Generic_error_category::~_Generic_error_category, COMDAT
; _this$ = ecx
	push	ebp
	mov	ebp, esp
	push	ecx
	mov	DWORD PTR _this$[ebp], ecx
	mov	ecx, DWORD PTR _this$[ebp]
	call	??1error_category@std@@UAE@XZ		; std::error_category::~error_category
	mov	esp, ebp
	pop	ebp
	ret	0
??1_Generic_error_category@std@@UAE@XZ ENDP		; std::_Generic_error_category::~_Generic_error_category
_TEXT	ENDS
; Function compile flags: /Odtp
; File c:\program files (x86)\microsoft visual studio 11.0\vc\include\system_error
;	COMDAT ?message@_Generic_error_category@std@@UBE?AV?$basic_string@DU?$char_traits@D@std@@V?$allocator@D@2@@2@H@Z
_TEXT	SEGMENT
_this$ = -16						; size = 4
$T1 = -12						; size = 4
tv69 = -8						; size = 4
__Name$ = -4						; size = 4
___$ReturnUdt$ = 8					; size = 4
__Errcode$ = 12						; size = 4
?message@_Generic_error_category@std@@UBE?AV?$basic_string@DU?$char_traits@D@std@@V?$allocator@D@2@@2@H@Z PROC ; std::_Generic_error_category::message, COMDAT
; _this$ = ecx

; 590  : 		{	// convert to name of error

	push	ebp
	mov	ebp, esp
	sub	esp, 16					; 00000010H
	mov	DWORD PTR _this$[ebp], ecx
	mov	DWORD PTR $T1[ebp], 0

; 591  : 		const char *_Name = _Syserror_map(_Errcode);

	mov	eax, DWORD PTR __Errcode$[ebp]
	push	eax
	call	?_Syserror_map@std@@YAPBDH@Z		; std::_Syserror_map
	add	esp, 4
	mov	DWORD PTR __Name$[ebp], eax

; 592  : 		return (string(_Name != 0 ? _Name : "unknown error"));

	cmp	DWORD PTR __Name$[ebp], 0
	je	SHORT $LN3@message
	mov	ecx, DWORD PTR __Name$[ebp]
	mov	DWORD PTR tv69[ebp], ecx
	jmp	SHORT $LN4@message
$LN3@message:
	mov	DWORD PTR tv69[ebp], OFFSET ??_C@_0O@BFJCFAAK@unknown?5error?$AA@
$LN4@message:
	mov	edx, DWORD PTR tv69[ebp]
	push	edx
	mov	ecx, DWORD PTR ___$ReturnUdt$[ebp]
	call	??0?$basic_string@DU?$char_traits@D@std@@V?$allocator@D@2@@std@@QAE@PBD@Z ; std::basic_string<char,std::char_traits<char>,std::allocator<char> >::basic_string<char,std::char_traits<char>,std::allocator<char> >
	mov	eax, DWORD PTR $T1[ebp]
	or	eax, 1
	mov	DWORD PTR $T1[ebp], eax
	mov	eax, DWORD PTR ___$ReturnUdt$[ebp]

; 593  : 		}

	mov	esp, ebp
	pop	ebp
	ret	8
?message@_Generic_error_category@std@@UBE?AV?$basic_string@DU?$char_traits@D@std@@V?$allocator@D@2@@2@H@Z ENDP ; std::_Generic_error_category::message
_TEXT	ENDS
; Function compile flags: /Odtp
; File c:\program files (x86)\microsoft visual studio 11.0\vc\include\system_error
;	COMDAT ?name@_Generic_error_category@std@@UBEPBDXZ
_TEXT	SEGMENT
_this$ = -4						; size = 4
?name@_Generic_error_category@std@@UBEPBDXZ PROC	; std::_Generic_error_category::name, COMDAT
; _this$ = ecx

; 585  : 		{	// get name of category

	push	ebp
	mov	ebp, esp
	push	ecx
	mov	DWORD PTR _this$[ebp], ecx

; 586  : 		return ("generic");

	mov	eax, OFFSET ??_C@_07DCLBNMLN@generic?$AA@

; 587  : 		}

	mov	esp, ebp
	pop	ebp
	ret	0
?name@_Generic_error_category@std@@UBEPBDXZ ENDP	; std::_Generic_error_category::name
_TEXT	ENDS
; Function compile flags: /Odtp
; File c:\program files (x86)\microsoft visual studio 11.0\vc\include\system_error
;	COMDAT ??0_Generic_error_category@std@@QAE@XZ
_TEXT	SEGMENT
_this$ = -4						; size = 4
??0_Generic_error_category@std@@QAE@XZ PROC		; std::_Generic_error_category::_Generic_error_category, COMDAT
; _this$ = ecx

; 580  : 	_Generic_error_category()

	push	ebp
	mov	ebp, esp
	push	ecx
	mov	DWORD PTR _this$[ebp], ecx
	mov	ecx, DWORD PTR _this$[ebp]
	call	??0error_category@std@@QAE@XZ		; std::error_category::error_category
	mov	eax, DWORD PTR _this$[ebp]
	mov	DWORD PTR [eax], OFFSET ??_7_Generic_error_category@std@@6B@

; 581  : 		{	// default constructor
; 582  : 		}

	mov	eax, DWORD PTR _this$[ebp]
	mov	esp, ebp
	pop	ebp
	ret	0
??0_Generic_error_category@std@@QAE@XZ ENDP		; std::_Generic_error_category::_Generic_error_category
_TEXT	ENDS
; Function compile flags: /Odtp
; File c:\program files (x86)\microsoft visual studio 11.0\vc\include\system_error
;	COMDAT ??8error_condition@std@@QBE_NABV01@@Z
_TEXT	SEGMENT
tv78 = -8						; size = 4
_this$ = -4						; size = 4
__Right$ = 8						; size = 4
??8error_condition@std@@QBE_NABV01@@Z PROC		; std::error_condition::operator==, COMDAT
; _this$ = ecx

; 376  : 		{	// test if *this == _Right

	push	ebp
	mov	ebp, esp
	sub	esp, 8
	push	esi
	mov	DWORD PTR _this$[ebp], ecx

; 377  : 		return (category() == _Right.category()
; 378  : 			&& value() == _Right.value());

	mov	ecx, DWORD PTR __Right$[ebp]
	call	?category@error_condition@std@@QBEABVerror_category@2@XZ ; std::error_condition::category
	push	eax
	mov	ecx, DWORD PTR _this$[ebp]
	call	?category@error_condition@std@@QBEABVerror_category@2@XZ ; std::error_condition::category
	mov	ecx, eax
	call	??8error_category@std@@QBE_NABV01@@Z	; std::error_category::operator==
	movzx	eax, al
	test	eax, eax
	je	SHORT $LN3@operator
	mov	ecx, DWORD PTR _this$[ebp]
	call	?value@error_condition@std@@QBEHXZ	; std::error_condition::value
	mov	esi, eax
	mov	ecx, DWORD PTR __Right$[ebp]
	call	?value@error_condition@std@@QBEHXZ	; std::error_condition::value
	cmp	esi, eax
	jne	SHORT $LN3@operator
	mov	DWORD PTR tv78[ebp], 1
	jmp	SHORT $LN4@operator
$LN3@operator:
	mov	DWORD PTR tv78[ebp], 0
$LN4@operator:
	mov	al, BYTE PTR tv78[ebp]

; 379  : 		}

	pop	esi
	mov	esp, ebp
	pop	ebp
	ret	4
??8error_condition@std@@QBE_NABV01@@Z ENDP		; std::error_condition::operator==
_TEXT	ENDS
; Function compile flags: /Odtp
; File c:\program files (x86)\microsoft visual studio 11.0\vc\include\system_error
;	COMDAT ?category@error_condition@std@@QBEABVerror_category@2@XZ
_TEXT	SEGMENT
_this$ = -4						; size = 4
?category@error_condition@std@@QBEABVerror_category@2@XZ PROC ; std::error_condition::category, COMDAT
; _this$ = ecx

; 354  : 		{	// get category

	push	ebp
	mov	ebp, esp
	push	ecx
	mov	DWORD PTR _this$[ebp], ecx

; 355  : 		return (*_Mycat);

	mov	eax, DWORD PTR _this$[ebp]
	mov	eax, DWORD PTR [eax+4]

; 356  : 		}

	mov	esp, ebp
	pop	ebp
	ret	0
?category@error_condition@std@@QBEABVerror_category@2@XZ ENDP ; std::error_condition::category
_TEXT	ENDS
; Function compile flags: /Odtp
; File c:\program files (x86)\microsoft visual studio 11.0\vc\include\system_error
;	COMDAT ?value@error_condition@std@@QBEHXZ
_TEXT	SEGMENT
_this$ = -4						; size = 4
?value@error_condition@std@@QBEHXZ PROC			; std::error_condition::value, COMDAT
; _this$ = ecx

; 349  : 		{	// get error code

	push	ebp
	mov	ebp, esp
	push	ecx
	mov	DWORD PTR _this$[ebp], ecx

; 350  : 		return (_Myval);

	mov	eax, DWORD PTR _this$[ebp]
	mov	eax, DWORD PTR [eax]

; 351  : 		}

	mov	esp, ebp
	pop	ebp
	ret	0
?value@error_condition@std@@QBEHXZ ENDP			; std::error_condition::value
_TEXT	ENDS
; Function compile flags: /Odtp
; File c:\program files (x86)\microsoft visual studio 11.0\vc\include\system_error
;	COMDAT ??0error_condition@std@@QAE@HABVerror_category@1@@Z
_TEXT	SEGMENT
_this$ = -4						; size = 4
__Val$ = 8						; size = 4
__Cat$ = 12						; size = 4
??0error_condition@std@@QAE@HABVerror_category@1@@Z PROC ; std::error_condition::error_condition, COMDAT
; _this$ = ecx

; 316  : 		{	// construct from error code and category

	push	ebp
	mov	ebp, esp
	push	ecx
	mov	DWORD PTR _this$[ebp], ecx
	mov	eax, DWORD PTR _this$[ebp]
	mov	ecx, DWORD PTR __Val$[ebp]
	mov	DWORD PTR [eax], ecx
	mov	edx, DWORD PTR _this$[ebp]
	mov	eax, DWORD PTR __Cat$[ebp]
	mov	DWORD PTR [edx+4], eax

; 317  : 		}

	mov	eax, DWORD PTR _this$[ebp]
	mov	esp, ebp
	pop	ebp
	ret	8
??0error_condition@std@@QAE@HABVerror_category@1@@Z ENDP ; std::error_condition::error_condition
_TEXT	ENDS
; Function compile flags: /Odtp
; File c:\program files (x86)\microsoft visual studio 11.0\vc\include\system_error
;	COMDAT ?category@error_code@std@@QBEABVerror_category@2@XZ
_TEXT	SEGMENT
_this$ = -4						; size = 4
?category@error_code@std@@QBEABVerror_category@2@XZ PROC ; std::error_code::category, COMDAT
; _this$ = ecx

; 256  : 		{	// get category

	push	ebp
	mov	ebp, esp
	push	ecx
	mov	DWORD PTR _this$[ebp], ecx

; 257  : 		return (*_Mycat);

	mov	eax, DWORD PTR _this$[ebp]
	mov	eax, DWORD PTR [eax+4]

; 258  : 		}

	mov	esp, ebp
	pop	ebp
	ret	0
?category@error_code@std@@QBEABVerror_category@2@XZ ENDP ; std::error_code::category
_TEXT	ENDS
; Function compile flags: /Odtp
; File c:\program files (x86)\microsoft visual studio 11.0\vc\include\system_error
;	COMDAT ?value@error_code@std@@QBEHXZ
_TEXT	SEGMENT
_this$ = -4						; size = 4
?value@error_code@std@@QBEHXZ PROC			; std::error_code::value, COMDAT
; _this$ = ecx

; 251  : 		{	// get error code

	push	ebp
	mov	ebp, esp
	push	ecx
	mov	DWORD PTR _this$[ebp], ecx

; 252  : 		return (_Myval);

	mov	eax, DWORD PTR _this$[ebp]
	mov	eax, DWORD PTR [eax]

; 253  : 		}

	mov	esp, ebp
	pop	ebp
	ret	0
?value@error_code@std@@QBEHXZ ENDP			; std::error_code::value
_TEXT	ENDS
; Function compile flags: /Odtp
;	COMDAT ??_Gerror_category@std@@UAEPAXI@Z
_TEXT	SEGMENT
_this$ = -4						; size = 4
___flags$ = 8						; size = 4
??_Gerror_category@std@@UAEPAXI@Z PROC			; std::error_category::`scalar deleting destructor', COMDAT
; _this$ = ecx
	push	ebp
	mov	ebp, esp
	push	ecx
	mov	DWORD PTR _this$[ebp], ecx
	mov	ecx, DWORD PTR _this$[ebp]
	call	??1error_category@std@@UAE@XZ		; std::error_category::~error_category
	mov	eax, DWORD PTR ___flags$[ebp]
	and	eax, 1
	je	SHORT $LN1@scalar
	mov	ecx, DWORD PTR _this$[ebp]
	push	ecx
	call	??3@YAXPAX@Z				; operator delete
	add	esp, 4
$LN1@scalar:
	mov	eax, DWORD PTR _this$[ebp]
	mov	esp, ebp
	pop	ebp
	ret	4
??_Gerror_category@std@@UAEPAXI@Z ENDP			; std::error_category::`scalar deleting destructor'
_TEXT	ENDS
; Function compile flags: /Odtp
; File c:\program files (x86)\microsoft visual studio 11.0\vc\include\system_error
;	COMDAT ??8error_category@std@@QBE_NABV01@@Z
_TEXT	SEGMENT
_this$ = -8						; size = 4
tv65 = -4						; size = 4
__Right$ = 8						; size = 4
??8error_category@std@@QBE_NABV01@@Z PROC		; std::error_category::operator==, COMDAT
; _this$ = ecx

; 184  : 		{	// compare categories for equality

	push	ebp
	mov	ebp, esp
	sub	esp, 8
	mov	DWORD PTR _this$[ebp], ecx

; 185  : 		return (this == &_Right);

	mov	eax, DWORD PTR _this$[ebp]
	cmp	eax, DWORD PTR __Right$[ebp]
	jne	SHORT $LN3@operator
	mov	DWORD PTR tv65[ebp], 1
	jmp	SHORT $LN4@operator
$LN3@operator:
	mov	DWORD PTR tv65[ebp], 0
$LN4@operator:
	mov	al, BYTE PTR tv65[ebp]

; 186  : 		}

	mov	esp, ebp
	pop	ebp
	ret	4
??8error_category@std@@QBE_NABV01@@Z ENDP		; std::error_category::operator==
_TEXT	ENDS
; Function compile flags: /Odtp
; File c:\program files (x86)\microsoft visual studio 11.0\vc\include\system_error
;	COMDAT ?equivalent@error_category@std@@UBE_NABVerror_code@2@H@Z
_TEXT	SEGMENT
_this$ = -8						; size = 4
tv74 = -4						; size = 4
__Code$ = 8						; size = 4
__Errval$ = 12						; size = 4
?equivalent@error_category@std@@UBE_NABVerror_code@2@H@Z PROC ; std::error_category::equivalent, COMDAT
; _this$ = ecx

; 415  : 	{	// test if conditions same for this category

	push	ebp
	mov	ebp, esp
	sub	esp, 8
	mov	DWORD PTR _this$[ebp], ecx

; 416  : 	return (*this == _Code.category() && _Code.value() == _Errval);

	mov	ecx, DWORD PTR __Code$[ebp]
	call	?category@error_code@std@@QBEABVerror_category@2@XZ ; std::error_code::category
	push	eax
	mov	ecx, DWORD PTR _this$[ebp]
	call	??8error_category@std@@QBE_NABV01@@Z	; std::error_category::operator==
	movzx	eax, al
	test	eax, eax
	je	SHORT $LN3@equivalent
	mov	ecx, DWORD PTR __Code$[ebp]
	call	?value@error_code@std@@QBEHXZ		; std::error_code::value
	cmp	eax, DWORD PTR __Errval$[ebp]
	jne	SHORT $LN3@equivalent
	mov	DWORD PTR tv74[ebp], 1
	jmp	SHORT $LN4@equivalent
$LN3@equivalent:
	mov	DWORD PTR tv74[ebp], 0
$LN4@equivalent:
	mov	al, BYTE PTR tv74[ebp]

; 417  : 	}

	mov	esp, ebp
	pop	ebp
	ret	8
?equivalent@error_category@std@@UBE_NABVerror_code@2@H@Z ENDP ; std::error_category::equivalent
_TEXT	ENDS
; Function compile flags: /Odtp
; File c:\program files (x86)\microsoft visual studio 11.0\vc\include\system_error
;	COMDAT ?equivalent@error_category@std@@UBE_NHABVerror_condition@2@@Z
_TEXT	SEGMENT
$T1 = -12						; size = 8
_this$ = -4						; size = 4
__Errval$ = 8						; size = 4
__Cond$ = 12						; size = 4
?equivalent@error_category@std@@UBE_NHABVerror_condition@2@@Z PROC ; std::error_category::equivalent, COMDAT
; _this$ = ecx

; 408  : 	{	// test if error code same condition

	push	ebp
	mov	ebp, esp
	sub	esp, 12					; 0000000cH
	mov	DWORD PTR _this$[ebp], ecx

; 409  : 	return (default_error_condition(_Errval) == _Cond);

	mov	eax, DWORD PTR __Cond$[ebp]
	push	eax
	mov	ecx, DWORD PTR __Errval$[ebp]
	push	ecx
	lea	edx, DWORD PTR $T1[ebp]
	push	edx
	mov	eax, DWORD PTR _this$[ebp]
	mov	edx, DWORD PTR [eax]
	mov	ecx, DWORD PTR _this$[ebp]
	mov	eax, DWORD PTR [edx+12]
	call	eax
	mov	ecx, eax
	call	??8error_condition@std@@QBE_NABV01@@Z	; std::error_condition::operator==

; 410  : 	}

	mov	esp, ebp
	pop	ebp
	ret	8
?equivalent@error_category@std@@UBE_NHABVerror_condition@2@@Z ENDP ; std::error_category::equivalent
_TEXT	ENDS
; Function compile flags: /Odtp
; File c:\program files (x86)\microsoft visual studio 11.0\vc\include\system_error
;	COMDAT ?default_error_condition@error_category@std@@UBE?AVerror_condition@2@H@Z
_TEXT	SEGMENT
_this$ = -4						; size = 4
___$ReturnUdt$ = 8					; size = 4
__Errval$ = 12						; size = 4
?default_error_condition@error_category@std@@UBE?AVerror_condition@2@H@Z PROC ; std::error_category::default_error_condition, COMDAT
; _this$ = ecx

; 401  : 	{	// make error_condition for error code

	push	ebp
	mov	ebp, esp
	push	ecx
	mov	DWORD PTR _this$[ebp], ecx

; 402  : 	return (error_condition(_Errval, *this));

	mov	eax, DWORD PTR _this$[ebp]
	push	eax
	mov	ecx, DWORD PTR __Errval$[ebp]
	push	ecx
	mov	ecx, DWORD PTR ___$ReturnUdt$[ebp]
	call	??0error_condition@std@@QAE@HABVerror_category@1@@Z ; std::error_condition::error_condition
	mov	eax, DWORD PTR ___$ReturnUdt$[ebp]

; 403  : 	}

	mov	esp, ebp
	pop	ebp
	ret	8
?default_error_condition@error_category@std@@UBE?AVerror_condition@2@H@Z ENDP ; std::error_category::default_error_condition
_TEXT	ENDS
; Function compile flags: /Odtp
; File c:\program files (x86)\microsoft visual studio 11.0\vc\include\system_error
;	COMDAT ??1error_category@std@@UAE@XZ
_TEXT	SEGMENT
_this$ = -4						; size = 4
??1error_category@std@@UAE@XZ PROC			; std::error_category::~error_category, COMDAT
; _this$ = ecx

; 167  : 		{	// destroy the object

	push	ebp
	mov	ebp, esp
	push	ecx
	mov	DWORD PTR _this$[ebp], ecx
	mov	eax, DWORD PTR _this$[ebp]
	mov	DWORD PTR [eax], OFFSET ??_7error_category@std@@6B@

; 168  : 		}

	mov	esp, ebp
	pop	ebp
	ret	0
??1error_category@std@@UAE@XZ ENDP			; std::error_category::~error_category
_TEXT	ENDS
; Function compile flags: /Odtp
; File c:\program files (x86)\microsoft visual studio 11.0\vc\include\system_error
;	COMDAT ??0error_category@std@@QAE@XZ
_TEXT	SEGMENT
_this$ = -4						; size = 4
??0error_category@std@@QAE@XZ PROC			; std::error_category::error_category, COMDAT
; _this$ = ecx

; 162  : 	error_category()

	push	ebp
	mov	ebp, esp
	push	ecx
	mov	DWORD PTR _this$[ebp], ecx
	mov	eax, DWORD PTR _this$[ebp]
	mov	DWORD PTR [eax], OFFSET ??_7error_category@std@@6B@

; 163  : 		{	// default constructor
; 164  : 		}

	mov	eax, DWORD PTR _this$[ebp]
	mov	esp, ebp
	pop	ebp
	ret	0
??0error_category@std@@QAE@XZ ENDP			; std::error_category::error_category
_TEXT	ENDS
; Function compile flags: /Odtp
; File c:\program files (x86)\microsoft visual studio 11.0\vc\include\system_error
;	COMDAT ?system_category@std@@YAABVerror_category@1@XZ
_TEXT	SEGMENT
?system_category@std@@YAABVerror_category@1@XZ PROC	; std::system_category, COMDAT

; 679  : 	{	// get system_category

	push	ebp
	mov	ebp, esp

; 680  : 	return (_Error_objects<int>::_System_object);

	mov	eax, OFFSET ?_System_object@?$_Error_objects@H@std@@2V_System_error_category@2@A ; std::_Error_objects<int>::_System_object

; 681  : 	}

	pop	ebp
	ret	0
?system_category@std@@YAABVerror_category@1@XZ ENDP	; std::system_category
_TEXT	ENDS
; Function compile flags: /Odtp
; File c:\program files (x86)\microsoft visual studio 11.0\vc\include\system_error
;	COMDAT ?generic_category@std@@YAABVerror_category@1@XZ
_TEXT	SEGMENT
?generic_category@std@@YAABVerror_category@1@XZ PROC	; std::generic_category, COMDAT

; 669  : 	{	// get generic_category

	push	ebp
	mov	ebp, esp

; 670  : 	return (_Error_objects<int>::_Generic_object);

	mov	eax, OFFSET ?_Generic_object@?$_Error_objects@H@std@@2V_Generic_error_category@2@A ; std::_Error_objects<int>::_Generic_object

; 671  : 	}

	pop	ebp
	ret	0
?generic_category@std@@YAABVerror_category@1@XZ ENDP	; std::generic_category
_TEXT	ENDS
; Function compile flags: /Odtp
; File c:\program files (x86)\microsoft visual studio 11.0\vc\include\xlocale
;	COMDAT ??0id@locale@std@@QAE@I@Z
_TEXT	SEGMENT
_this$ = -4						; size = 4
__Val$ = 8						; size = 4
??0id@locale@std@@QAE@I@Z PROC				; std::locale::id::id, COMDAT
; _this$ = ecx

; 74   : 			{	// construct with specified stamp value

	push	ebp
	mov	ebp, esp
	push	ecx
	mov	DWORD PTR _this$[ebp], ecx
	mov	eax, DWORD PTR _this$[ebp]
	mov	ecx, DWORD PTR __Val$[ebp]
	mov	DWORD PTR [eax], ecx

; 75   : 			}

	mov	eax, DWORD PTR _this$[ebp]
	mov	esp, ebp
	pop	ebp
	ret	4
??0id@locale@std@@QAE@I@Z ENDP				; std::locale::id::id
_TEXT	ENDS
; Function compile flags: /Odtp
; File c:\users\zhitao li\documents\visual studio 2012\projects\freefalcon\sim\siminput\radiocmds.cpp
_TEXT	SEGMENT
$T1 = -8						; size = 8
___formal$ = 8						; size = 4
_state$ = 12						; size = 4
___formal$ = 16						; size = 4
?AWACSRequestRelief@@YAXKHPAX@Z PROC			; AWACSRequestRelief

; 458  : {

	push	ebp
	mov	ebp, esp
	sub	esp, 8

; 459  : 	if (state & KEY_DOWN && SimDriver.GetPlayerAircraft() && SimDriver.GetPlayerAircraft()->IsSetFlag( MOTION_OWNSHIP ) && !((AircraftClass*)SimDriver.GetPlayerAircraft())->ejectTriggered)

	mov	eax, DWORD PTR _state$[ebp]
	and	eax, 8
	je	SHORT $LN2@AWACSReque
	mov	ecx, OFFSET ?SimDriver@@3VSimulationDriver@@A ; SimDriver
	call	?GetPlayerAircraft@SimulationDriver@@QBEPAVAircraftClass@@XZ ; SimulationDriver::GetPlayerAircraft
	test	eax, eax
	je	SHORT $LN2@AWACSReque
	push	65536					; 00010000H
	mov	ecx, OFFSET ?SimDriver@@3VSimulationDriver@@A ; SimDriver
	call	?GetPlayerAircraft@SimulationDriver@@QBEPAVAircraftClass@@XZ ; SimulationDriver::GetPlayerAircraft
	mov	ecx, eax
	call	?IsSetFlag@SimBaseClass@@QBEHH@Z	; SimBaseClass::IsSetFlag
	test	eax, eax
	je	SHORT $LN2@AWACSReque
	mov	ecx, OFFSET ?SimDriver@@3VSimulationDriver@@A ; SimDriver
	call	?GetPlayerAircraft@SimulationDriver@@QBEPAVAircraftClass@@XZ ; SimulationDriver::GetPlayerAircraft
	cmp	DWORD PTR [eax+1796], 0
	jne	SHORT $LN2@AWACSReque

; 460  :    {
; 461  :       MenuSendAwacs (FalconAWACSMessage::RequestRelief, SimDriver.GetPlayerAircraft()->Id());

	push	1
	lea	ecx, DWORD PTR $T1[ebp]
	push	ecx
	mov	ecx, OFFSET ?SimDriver@@3VSimulationDriver@@A ; SimDriver
	call	?GetPlayerAircraft@SimulationDriver@@QBEPAVAircraftClass@@XZ ; SimulationDriver::GetPlayerAircraft
	mov	ecx, eax
	call	?Id@VuEntity@@QBE?AVVU_ID@@XZ		; VuEntity::Id
	mov	edx, DWORD PTR [eax+4]
	push	edx
	mov	eax, DWORD PTR [eax]
	push	eax
	push	5
	call	?MenuSendAwacs@@YAXHVVU_ID@@H@Z		; MenuSendAwacs
	add	esp, 16					; 00000010H
$LN2@AWACSReque:

; 462  :    }
; 463  : }

	mov	esp, ebp
	pop	ebp
	ret	0
?AWACSRequestRelief@@YAXKHPAX@Z ENDP			; AWACSRequestRelief
_TEXT	ENDS
; Function compile flags: /Odtp
; File c:\users\zhitao li\documents\visual studio 2012\projects\freefalcon\sim\siminput\radiocmds.cpp
_TEXT	SEGMENT
$T1 = -8						; size = 8
___formal$ = 8						; size = 4
_state$ = 12						; size = 4
___formal$ = 16						; size = 4
?AWACSRequestHelp@@YAXKHPAX@Z PROC			; AWACSRequestHelp

; 450  : {

	push	ebp
	mov	ebp, esp
	sub	esp, 8

; 451  : 	if (state & KEY_DOWN && SimDriver.GetPlayerAircraft() && SimDriver.GetPlayerAircraft()->IsSetFlag( MOTION_OWNSHIP ) && !((AircraftClass*)SimDriver.GetPlayerAircraft())->ejectTriggered)

	mov	eax, DWORD PTR _state$[ebp]
	and	eax, 8
	je	SHORT $LN2@AWACSReque
	mov	ecx, OFFSET ?SimDriver@@3VSimulationDriver@@A ; SimDriver
	call	?GetPlayerAircraft@SimulationDriver@@QBEPAVAircraftClass@@XZ ; SimulationDriver::GetPlayerAircraft
	test	eax, eax
	je	SHORT $LN2@AWACSReque
	push	65536					; 00010000H
	mov	ecx, OFFSET ?SimDriver@@3VSimulationDriver@@A ; SimDriver
	call	?GetPlayerAircraft@SimulationDriver@@QBEPAVAircraftClass@@XZ ; SimulationDriver::GetPlayerAircraft
	mov	ecx, eax
	call	?IsSetFlag@SimBaseClass@@QBEHH@Z	; SimBaseClass::IsSetFlag
	test	eax, eax
	je	SHORT $LN2@AWACSReque
	mov	ecx, OFFSET ?SimDriver@@3VSimulationDriver@@A ; SimDriver
	call	?GetPlayerAircraft@SimulationDriver@@QBEPAVAircraftClass@@XZ ; SimulationDriver::GetPlayerAircraft
	cmp	DWORD PTR [eax+1796], 0
	jne	SHORT $LN2@AWACSReque

; 452  :    {
; 453  :       MenuSendAwacs (FalconAWACSMessage::RequestHelp, SimDriver.GetPlayerAircraft()->Id());

	push	1
	lea	ecx, DWORD PTR $T1[ebp]
	push	ecx
	mov	ecx, OFFSET ?SimDriver@@3VSimulationDriver@@A ; SimDriver
	call	?GetPlayerAircraft@SimulationDriver@@QBEPAVAircraftClass@@XZ ; SimulationDriver::GetPlayerAircraft
	mov	ecx, eax
	call	?Id@VuEntity@@QBE?AVVU_ID@@XZ		; VuEntity::Id
	mov	edx, DWORD PTR [eax+4]
	push	edx
	mov	eax, DWORD PTR [eax]
	push	eax
	push	4
	call	?MenuSendAwacs@@YAXHVVU_ID@@H@Z		; MenuSendAwacs
	add	esp, 16					; 00000010H
$LN2@AWACSReque:

; 454  :    }
; 455  : }

	mov	esp, ebp
	pop	ebp
	ret	0
?AWACSRequestHelp@@YAXKHPAX@Z ENDP			; AWACSRequestHelp
_TEXT	ENDS
; Function compile flags: /Odtp
; File c:\users\zhitao li\documents\visual studio 2012\projects\freefalcon\sim\siminput\radiocmds.cpp
_TEXT	SEGMENT
$T1 = -8						; size = 8
___formal$ = 8						; size = 4
_state$ = 12						; size = 4
___formal$ = 16						; size = 4
?AWACSUnable@@YAXKHPAX@Z PROC				; AWACSUnable

; 442  : {

	push	ebp
	mov	ebp, esp
	sub	esp, 8

; 443  : 	if (state & KEY_DOWN && SimDriver.GetPlayerAircraft() && SimDriver.GetPlayerAircraft()->IsSetFlag( MOTION_OWNSHIP ) && !((AircraftClass*)SimDriver.GetPlayerAircraft())->ejectTriggered)

	mov	eax, DWORD PTR _state$[ebp]
	and	eax, 8
	je	SHORT $LN2@AWACSUnabl
	mov	ecx, OFFSET ?SimDriver@@3VSimulationDriver@@A ; SimDriver
	call	?GetPlayerAircraft@SimulationDriver@@QBEPAVAircraftClass@@XZ ; SimulationDriver::GetPlayerAircraft
	test	eax, eax
	je	SHORT $LN2@AWACSUnabl
	push	65536					; 00010000H
	mov	ecx, OFFSET ?SimDriver@@3VSimulationDriver@@A ; SimDriver
	call	?GetPlayerAircraft@SimulationDriver@@QBEPAVAircraftClass@@XZ ; SimulationDriver::GetPlayerAircraft
	mov	ecx, eax
	call	?IsSetFlag@SimBaseClass@@QBEHH@Z	; SimBaseClass::IsSetFlag
	test	eax, eax
	je	SHORT $LN2@AWACSUnabl
	mov	ecx, OFFSET ?SimDriver@@3VSimulationDriver@@A ; SimDriver
	call	?GetPlayerAircraft@SimulationDriver@@QBEPAVAircraftClass@@XZ ; SimulationDriver::GetPlayerAircraft
	cmp	DWORD PTR [eax+1796], 0
	jne	SHORT $LN2@AWACSUnabl

; 444  :    {
; 445  :       MenuSendAwacs (FalconAWACSMessage::Unable, SimDriver.GetPlayerAircraft()->Id());

	push	1
	lea	ecx, DWORD PTR $T1[ebp]
	push	ecx
	mov	ecx, OFFSET ?SimDriver@@3VSimulationDriver@@A ; SimDriver
	call	?GetPlayerAircraft@SimulationDriver@@QBEPAVAircraftClass@@XZ ; SimulationDriver::GetPlayerAircraft
	mov	ecx, eax
	call	?Id@VuEntity@@QBE?AVVU_ID@@XZ		; VuEntity::Id
	mov	edx, DWORD PTR [eax+4]
	push	edx
	mov	eax, DWORD PTR [eax]
	push	eax
	push	1
	call	?MenuSendAwacs@@YAXHVVU_ID@@H@Z		; MenuSendAwacs
	add	esp, 16					; 00000010H
$LN2@AWACSUnabl:

; 446  :    }
; 447  : }

	mov	esp, ebp
	pop	ebp
	ret	0
?AWACSUnable@@YAXKHPAX@Z ENDP				; AWACSUnable
_TEXT	ENDS
; Function compile flags: /Odtp
; File c:\users\zhitao li\documents\visual studio 2012\projects\freefalcon\sim\siminput\radiocmds.cpp
_TEXT	SEGMENT
$T1 = -8						; size = 8
___formal$ = 8						; size = 4
_state$ = 12						; size = 4
___formal$ = 16						; size = 4
?AWACSWilco@@YAXKHPAX@Z PROC				; AWACSWilco

; 434  : {

	push	ebp
	mov	ebp, esp
	sub	esp, 8

; 435  : 	if (state & KEY_DOWN && SimDriver.GetPlayerAircraft() && SimDriver.GetPlayerAircraft()->IsSetFlag( MOTION_OWNSHIP ) && !((AircraftClass*)SimDriver.GetPlayerAircraft())->ejectTriggered)

	mov	eax, DWORD PTR _state$[ebp]
	and	eax, 8
	je	SHORT $LN2@AWACSWilco
	mov	ecx, OFFSET ?SimDriver@@3VSimulationDriver@@A ; SimDriver
	call	?GetPlayerAircraft@SimulationDriver@@QBEPAVAircraftClass@@XZ ; SimulationDriver::GetPlayerAircraft
	test	eax, eax
	je	SHORT $LN2@AWACSWilco
	push	65536					; 00010000H
	mov	ecx, OFFSET ?SimDriver@@3VSimulationDriver@@A ; SimDriver
	call	?GetPlayerAircraft@SimulationDriver@@QBEPAVAircraftClass@@XZ ; SimulationDriver::GetPlayerAircraft
	mov	ecx, eax
	call	?IsSetFlag@SimBaseClass@@QBEHH@Z	; SimBaseClass::IsSetFlag
	test	eax, eax
	je	SHORT $LN2@AWACSWilco
	mov	ecx, OFFSET ?SimDriver@@3VSimulationDriver@@A ; SimDriver
	call	?GetPlayerAircraft@SimulationDriver@@QBEPAVAircraftClass@@XZ ; SimulationDriver::GetPlayerAircraft
	cmp	DWORD PTR [eax+1796], 0
	jne	SHORT $LN2@AWACSWilco

; 436  :    {
; 437  :       MenuSendAwacs (FalconAWACSMessage::Wilco, SimDriver.GetPlayerAircraft()->Id());

	push	1
	lea	ecx, DWORD PTR $T1[ebp]
	push	ecx
	mov	ecx, OFFSET ?SimDriver@@3VSimulationDriver@@A ; SimDriver
	call	?GetPlayerAircraft@SimulationDriver@@QBEPAVAircraftClass@@XZ ; SimulationDriver::GetPlayerAircraft
	mov	ecx, eax
	call	?Id@VuEntity@@QBE?AVVU_ID@@XZ		; VuEntity::Id
	mov	edx, DWORD PTR [eax+4]
	push	edx
	mov	eax, DWORD PTR [eax]
	push	eax
	push	0
	call	?MenuSendAwacs@@YAXHVVU_ID@@H@Z		; MenuSendAwacs
	add	esp, 16					; 00000010H
$LN2@AWACSWilco:

; 438  :    }
; 439  : }

	mov	esp, ebp
	pop	ebp
	ret	0
?AWACSWilco@@YAXKHPAX@Z ENDP				; AWACSWilco
_TEXT	ENDS
; Function compile flags: /Odtp
; File c:\users\zhitao li\documents\visual studio 2012\projects\freefalcon\sim\siminput\radiocmds.cpp
_TEXT	SEGMENT
$T1 = -8						; size = 8
___formal$ = 8						; size = 4
_state$ = 12						; size = 4
___formal$ = 16						; size = 4
?AWACSRequestCarrier@@YAXKHPAX@Z PROC			; AWACSRequestCarrier

; 425  : {

	push	ebp
	mov	ebp, esp
	sub	esp, 8

; 426  : 	if (state & KEY_DOWN && SimDriver.GetPlayerAircraft() && SimDriver.GetPlayerAircraft()->IsSetFlag( MOTION_OWNSHIP ) && !((AircraftClass*)SimDriver.GetPlayerAircraft())->ejectTriggered)

	mov	eax, DWORD PTR _state$[ebp]
	and	eax, 8
	je	SHORT $LN2@AWACSReque
	mov	ecx, OFFSET ?SimDriver@@3VSimulationDriver@@A ; SimDriver
	call	?GetPlayerAircraft@SimulationDriver@@QBEPAVAircraftClass@@XZ ; SimulationDriver::GetPlayerAircraft
	test	eax, eax
	je	SHORT $LN2@AWACSReque
	push	65536					; 00010000H
	mov	ecx, OFFSET ?SimDriver@@3VSimulationDriver@@A ; SimDriver
	call	?GetPlayerAircraft@SimulationDriver@@QBEPAVAircraftClass@@XZ ; SimulationDriver::GetPlayerAircraft
	mov	ecx, eax
	call	?IsSetFlag@SimBaseClass@@QBEHH@Z	; SimBaseClass::IsSetFlag
	test	eax, eax
	je	SHORT $LN2@AWACSReque
	mov	ecx, OFFSET ?SimDriver@@3VSimulationDriver@@A ; SimDriver
	call	?GetPlayerAircraft@SimulationDriver@@QBEPAVAircraftClass@@XZ ; SimulationDriver::GetPlayerAircraft
	cmp	DWORD PTR [eax+1796], 0
	jne	SHORT $LN2@AWACSReque

; 427  :    {
; 428  :       MenuSendAwacs (FalconAWACSMessage::VectorToCarrier, SimDriver.GetPlayerAircraft()->Id());

	push	1
	lea	ecx, DWORD PTR $T1[ebp]
	push	ecx
	mov	ecx, OFFSET ?SimDriver@@3VSimulationDriver@@A ; SimDriver
	call	?GetPlayerAircraft@SimulationDriver@@QBEPAVAircraftClass@@XZ ; SimulationDriver::GetPlayerAircraft
	mov	ecx, eax
	call	?Id@VuEntity@@QBE?AVVU_ID@@XZ		; VuEntity::Id
	mov	edx, DWORD PTR [eax+4]
	push	edx
	mov	eax, DWORD PTR [eax]
	push	eax
	push	32					; 00000020H
	call	?MenuSendAwacs@@YAXHVVU_ID@@H@Z		; MenuSendAwacs
	add	esp, 16					; 00000010H
$LN2@AWACSReque:

; 429  :    }
; 430  : }

	mov	esp, ebp
	pop	ebp
	ret	0
?AWACSRequestCarrier@@YAXKHPAX@Z ENDP			; AWACSRequestCarrier
_TEXT	ENDS
; Function compile flags: /Odtp
; File c:\users\zhitao li\documents\visual studio 2012\projects\freefalcon\sim\siminput\radiocmds.cpp
_TEXT	SEGMENT
$T1 = -8						; size = 8
___formal$ = 8						; size = 4
_state$ = 12						; size = 4
___formal$ = 16						; size = 4
?AWACSRequestTanker@@YAXKHPAX@Z PROC			; AWACSRequestTanker

; 416  : {

	push	ebp
	mov	ebp, esp
	sub	esp, 8

; 417  : 	if (state & KEY_DOWN && SimDriver.GetPlayerAircraft() && SimDriver.GetPlayerAircraft()->IsSetFlag( MOTION_OWNSHIP ) && !((AircraftClass*)SimDriver.GetPlayerAircraft())->ejectTriggered)

	mov	eax, DWORD PTR _state$[ebp]
	and	eax, 8
	je	SHORT $LN2@AWACSReque
	mov	ecx, OFFSET ?SimDriver@@3VSimulationDriver@@A ; SimDriver
	call	?GetPlayerAircraft@SimulationDriver@@QBEPAVAircraftClass@@XZ ; SimulationDriver::GetPlayerAircraft
	test	eax, eax
	je	SHORT $LN2@AWACSReque
	push	65536					; 00010000H
	mov	ecx, OFFSET ?SimDriver@@3VSimulationDriver@@A ; SimDriver
	call	?GetPlayerAircraft@SimulationDriver@@QBEPAVAircraftClass@@XZ ; SimulationDriver::GetPlayerAircraft
	mov	ecx, eax
	call	?IsSetFlag@SimBaseClass@@QBEHH@Z	; SimBaseClass::IsSetFlag
	test	eax, eax
	je	SHORT $LN2@AWACSReque
	mov	ecx, OFFSET ?SimDriver@@3VSimulationDriver@@A ; SimDriver
	call	?GetPlayerAircraft@SimulationDriver@@QBEPAVAircraftClass@@XZ ; SimulationDriver::GetPlayerAircraft
	cmp	DWORD PTR [eax+1796], 0
	jne	SHORT $LN2@AWACSReque

; 418  :    {
; 419  :       MenuSendAwacs (FalconAWACSMessage::VectorToTanker, SimDriver.GetPlayerAircraft()->Id());

	push	1
	lea	ecx, DWORD PTR $T1[ebp]
	push	ecx
	mov	ecx, OFFSET ?SimDriver@@3VSimulationDriver@@A ; SimDriver
	call	?GetPlayerAircraft@SimulationDriver@@QBEPAVAircraftClass@@XZ ; SimulationDriver::GetPlayerAircraft
	mov	ecx, eax
	call	?Id@VuEntity@@QBE?AVVU_ID@@XZ		; VuEntity::Id
	mov	edx, DWORD PTR [eax+4]
	push	edx
	mov	eax, DWORD PTR [eax]
	push	eax
	push	12					; 0000000cH
	call	?MenuSendAwacs@@YAXHVVU_ID@@H@Z		; MenuSendAwacs
	add	esp, 16					; 00000010H
$LN2@AWACSReque:

; 420  :    }
; 421  : }

	mov	esp, ebp
	pop	ebp
	ret	0
?AWACSRequestTanker@@YAXKHPAX@Z ENDP			; AWACSRequestTanker
_TEXT	ENDS
; Function compile flags: /Odtp
; File c:\users\zhitao li\documents\visual studio 2012\projects\freefalcon\sim\siminput\radiocmds.cpp
_TEXT	SEGMENT
$T1 = -8						; size = 8
___formal$ = 8						; size = 4
_state$ = 12						; size = 4
___formal$ = 16						; size = 4
?AWACSRequestPicture@@YAXKHPAX@Z PROC			; AWACSRequestPicture

; 408  : {

	push	ebp
	mov	ebp, esp
	sub	esp, 8

; 409  : 	if (state & KEY_DOWN && SimDriver.GetPlayerAircraft() && SimDriver.GetPlayerAircraft()->IsSetFlag( MOTION_OWNSHIP ) && !((AircraftClass*)SimDriver.GetPlayerAircraft())->ejectTriggered)

	mov	eax, DWORD PTR _state$[ebp]
	and	eax, 8
	je	SHORT $LN2@AWACSReque
	mov	ecx, OFFSET ?SimDriver@@3VSimulationDriver@@A ; SimDriver
	call	?GetPlayerAircraft@SimulationDriver@@QBEPAVAircraftClass@@XZ ; SimulationDriver::GetPlayerAircraft
	test	eax, eax
	je	SHORT $LN2@AWACSReque
	push	65536					; 00010000H
	mov	ecx, OFFSET ?SimDriver@@3VSimulationDriver@@A ; SimDriver
	call	?GetPlayerAircraft@SimulationDriver@@QBEPAVAircraftClass@@XZ ; SimulationDriver::GetPlayerAircraft
	mov	ecx, eax
	call	?IsSetFlag@SimBaseClass@@QBEHH@Z	; SimBaseClass::IsSetFlag
	test	eax, eax
	je	SHORT $LN2@AWACSReque
	mov	ecx, OFFSET ?SimDriver@@3VSimulationDriver@@A ; SimDriver
	call	?GetPlayerAircraft@SimulationDriver@@QBEPAVAircraftClass@@XZ ; SimulationDriver::GetPlayerAircraft
	cmp	DWORD PTR [eax+1796], 0
	jne	SHORT $LN2@AWACSReque

; 410  :    {
; 411  :       MenuSendAwacs (FalconAWACSMessage::RequestPicture, SimDriver.GetPlayerAircraft()->Id());

	push	1
	lea	ecx, DWORD PTR $T1[ebp]
	push	ecx
	mov	ecx, OFFSET ?SimDriver@@3VSimulationDriver@@A ; SimDriver
	call	?GetPlayerAircraft@SimulationDriver@@QBEPAVAircraftClass@@XZ ; SimulationDriver::GetPlayerAircraft
	mov	ecx, eax
	call	?Id@VuEntity@@QBE?AVVU_ID@@XZ		; VuEntity::Id
	mov	edx, DWORD PTR [eax+4]
	push	edx
	mov	eax, DWORD PTR [eax]
	push	eax
	push	3
	call	?MenuSendAwacs@@YAXHVVU_ID@@H@Z		; MenuSendAwacs
	add	esp, 16					; 00000010H
$LN2@AWACSReque:

; 412  :    }
; 413  : }

	mov	esp, ebp
	pop	ebp
	ret	0
?AWACSRequestPicture@@YAXKHPAX@Z ENDP			; AWACSRequestPicture
_TEXT	ENDS
; Function compile flags: /Odtp
; File c:\users\zhitao li\documents\visual studio 2012\projects\freefalcon\sim\siminput\radiocmds.cpp
_TEXT	SEGMENT
___formal$ = 8						; size = 4
_state$ = 12						; size = 4
___formal$ = 16						; size = 4
?TankerBreakaway@@YAXKHPAX@Z PROC			; TankerBreakaway

; 398  : {

	push	ebp
	mov	ebp, esp

; 399  : 	if (state & KEY_DOWN && SimDriver.GetPlayerAircraft() && SimDriver.GetPlayerAircraft()->IsSetFlag( MOTION_OWNSHIP ) && !((AircraftClass*)SimDriver.GetPlayerAircraft())->ejectTriggered)

	mov	eax, DWORD PTR _state$[ebp]
	and	eax, 8
	je	SHORT $LN2@TankerBrea
	mov	ecx, OFFSET ?SimDriver@@3VSimulationDriver@@A ; SimDriver
	call	?GetPlayerAircraft@SimulationDriver@@QBEPAVAircraftClass@@XZ ; SimulationDriver::GetPlayerAircraft
	test	eax, eax
	je	SHORT $LN2@TankerBrea
	push	65536					; 00010000H
	mov	ecx, OFFSET ?SimDriver@@3VSimulationDriver@@A ; SimDriver
	call	?GetPlayerAircraft@SimulationDriver@@QBEPAVAircraftClass@@XZ ; SimulationDriver::GetPlayerAircraft
	mov	ecx, eax
	call	?IsSetFlag@SimBaseClass@@QBEHH@Z	; SimBaseClass::IsSetFlag
	test	eax, eax
	je	SHORT $LN2@TankerBrea
	mov	ecx, OFFSET ?SimDriver@@3VSimulationDriver@@A ; SimDriver
	call	?GetPlayerAircraft@SimulationDriver@@QBEPAVAircraftClass@@XZ ; SimulationDriver::GetPlayerAircraft
	cmp	DWORD PTR [eax+1796], 0
	jne	SHORT $LN2@TankerBrea

; 400  :    {
; 401  :       MenuSendTanker (FalconTankerMessage::Breakaway);

	push	4
	call	?MenuSendTanker@@YAXH@Z			; MenuSendTanker
	add	esp, 4
$LN2@TankerBrea:

; 402  :    }
; 403  : }

	pop	ebp
	ret	0
?TankerBreakaway@@YAXKHPAX@Z ENDP			; TankerBreakaway
_TEXT	ENDS
; Function compile flags: /Odtp
; File c:\users\zhitao li\documents\visual studio 2012\projects\freefalcon\sim\siminput\radiocmds.cpp
_TEXT	SEGMENT
___formal$ = 8						; size = 4
_state$ = 12						; size = 4
___formal$ = 16						; size = 4
?TankerDoneRefueling@@YAXKHPAX@Z PROC			; TankerDoneRefueling

; 390  : {

	push	ebp
	mov	ebp, esp

; 391  : 	if (state & KEY_DOWN && SimDriver.GetPlayerAircraft() && SimDriver.GetPlayerAircraft()->IsSetFlag( MOTION_OWNSHIP ) && !((AircraftClass*)SimDriver.GetPlayerAircraft())->ejectTriggered)

	mov	eax, DWORD PTR _state$[ebp]
	and	eax, 8
	je	SHORT $LN2@TankerDone
	mov	ecx, OFFSET ?SimDriver@@3VSimulationDriver@@A ; SimDriver
	call	?GetPlayerAircraft@SimulationDriver@@QBEPAVAircraftClass@@XZ ; SimulationDriver::GetPlayerAircraft
	test	eax, eax
	je	SHORT $LN2@TankerDone
	push	65536					; 00010000H
	mov	ecx, OFFSET ?SimDriver@@3VSimulationDriver@@A ; SimDriver
	call	?GetPlayerAircraft@SimulationDriver@@QBEPAVAircraftClass@@XZ ; SimulationDriver::GetPlayerAircraft
	mov	ecx, eax
	call	?IsSetFlag@SimBaseClass@@QBEHH@Z	; SimBaseClass::IsSetFlag
	test	eax, eax
	je	SHORT $LN2@TankerDone
	mov	ecx, OFFSET ?SimDriver@@3VSimulationDriver@@A ; SimDriver
	call	?GetPlayerAircraft@SimulationDriver@@QBEPAVAircraftClass@@XZ ; SimulationDriver::GetPlayerAircraft
	cmp	DWORD PTR [eax+1796], 0
	jne	SHORT $LN2@TankerDone

; 392  :    {
; 393  :       MenuSendTanker (FalconTankerMessage::DoneRefueling);

	push	2
	call	?MenuSendTanker@@YAXH@Z			; MenuSendTanker
	add	esp, 4
$LN2@TankerDone:

; 394  :    }
; 395  : }

	pop	ebp
	ret	0
?TankerDoneRefueling@@YAXKHPAX@Z ENDP			; TankerDoneRefueling
_TEXT	ENDS
; Function compile flags: /Odtp
; File c:\users\zhitao li\documents\visual studio 2012\projects\freefalcon\sim\siminput\radiocmds.cpp
_TEXT	SEGMENT
___formal$ = 8						; size = 4
_state$ = 12						; size = 4
___formal$ = 16						; size = 4
?TankerReadyForGas@@YAXKHPAX@Z PROC			; TankerReadyForGas

; 377  : {

	push	ebp
	mov	ebp, esp

; 378  :     if (state & KEY_DOWN && SimDriver.GetPlayerAircraft() && SimDriver.GetPlayerAircraft()->IsSetFlag( MOTION_OWNSHIP ) && !((AircraftClass*)SimDriver.GetPlayerAircraft())->ejectTriggered)

	mov	eax, DWORD PTR _state$[ebp]
	and	eax, 8
	je	SHORT $LN3@TankerRead
	mov	ecx, OFFSET ?SimDriver@@3VSimulationDriver@@A ; SimDriver
	call	?GetPlayerAircraft@SimulationDriver@@QBEPAVAircraftClass@@XZ ; SimulationDriver::GetPlayerAircraft
	test	eax, eax
	je	SHORT $LN3@TankerRead
	push	65536					; 00010000H
	mov	ecx, OFFSET ?SimDriver@@3VSimulationDriver@@A ; SimDriver
	call	?GetPlayerAircraft@SimulationDriver@@QBEPAVAircraftClass@@XZ ; SimulationDriver::GetPlayerAircraft
	mov	ecx, eax
	call	?IsSetFlag@SimBaseClass@@QBEHH@Z	; SimBaseClass::IsSetFlag
	test	eax, eax
	je	SHORT $LN3@TankerRead
	mov	ecx, OFFSET ?SimDriver@@3VSimulationDriver@@A ; SimDriver
	call	?GetPlayerAircraft@SimulationDriver@@QBEPAVAircraftClass@@XZ ; SimulationDriver::GetPlayerAircraft
	cmp	DWORD PTR [eax+1796], 0
	jne	SHORT $LN3@TankerRead

; 379  :     {
; 380  : 	// JPO - requires the door to be opened.
; 381  : 	if (g_bRealisticAvionics &&
; 382  : 	    !SimDriver.GetPlayerAircraft()->af->IsEngineFlag(AirframeClass::FuelDoorOpen))

	movzx	ecx, BYTE PTR ?g_bRealisticAvionics@@3_NA ; g_bRealisticAvionics
	test	ecx, ecx
	je	SHORT $LN1@TankerRead
	push	4
	mov	ecx, OFFSET ?SimDriver@@3VSimulationDriver@@A ; SimDriver
	call	?GetPlayerAircraft@SimulationDriver@@QBEPAVAircraftClass@@XZ ; SimulationDriver::GetPlayerAircraft
	mov	ecx, DWORD PTR [eax+932]
	call	?IsEngineFlag@AirframeClass@@QAEHW4EngineFlags@1@@Z ; AirframeClass::IsEngineFlag
	test	eax, eax
	jne	SHORT $LN1@TankerRead

; 383  : 	    return;

	jmp	SHORT $LN3@TankerRead
$LN1@TankerRead:

; 384  : 	
; 385  : 	MenuSendTanker (FalconTankerMessage::ReadyForGas);

	push	1
	call	?MenuSendTanker@@YAXH@Z			; MenuSendTanker
	add	esp, 4
$LN3@TankerRead:

; 386  :     }
; 387  : }

	pop	ebp
	ret	0
?TankerReadyForGas@@YAXKHPAX@Z ENDP			; TankerReadyForGas
_TEXT	ENDS
; Function compile flags: /Odtp
; File c:\users\zhitao li\documents\visual studio 2012\projects\freefalcon\sim\siminput\radiocmds.cpp
_TEXT	SEGMENT
___formal$ = 8						; size = 4
_state$ = 12						; size = 4
___formal$ = 16						; size = 4
?TankerRequestFuel@@YAXKHPAX@Z PROC			; TankerRequestFuel

; 369  : {

	push	ebp
	mov	ebp, esp

; 370  : 	if (state & KEY_DOWN && SimDriver.GetPlayerAircraft() && SimDriver.GetPlayerAircraft()->IsSetFlag( MOTION_OWNSHIP ) && !((AircraftClass*)SimDriver.GetPlayerAircraft())->ejectTriggered)

	mov	eax, DWORD PTR _state$[ebp]
	and	eax, 8
	je	SHORT $LN2@TankerRequ
	mov	ecx, OFFSET ?SimDriver@@3VSimulationDriver@@A ; SimDriver
	call	?GetPlayerAircraft@SimulationDriver@@QBEPAVAircraftClass@@XZ ; SimulationDriver::GetPlayerAircraft
	test	eax, eax
	je	SHORT $LN2@TankerRequ
	push	65536					; 00010000H
	mov	ecx, OFFSET ?SimDriver@@3VSimulationDriver@@A ; SimDriver
	call	?GetPlayerAircraft@SimulationDriver@@QBEPAVAircraftClass@@XZ ; SimulationDriver::GetPlayerAircraft
	mov	ecx, eax
	call	?IsSetFlag@SimBaseClass@@QBEHH@Z	; SimBaseClass::IsSetFlag
	test	eax, eax
	je	SHORT $LN2@TankerRequ
	mov	ecx, OFFSET ?SimDriver@@3VSimulationDriver@@A ; SimDriver
	call	?GetPlayerAircraft@SimulationDriver@@QBEPAVAircraftClass@@XZ ; SimulationDriver::GetPlayerAircraft
	cmp	DWORD PTR [eax+1796], 0
	jne	SHORT $LN2@TankerRequ

; 371  :    {
; 372  :       MenuSendTanker (FalconTankerMessage::RequestFuel);

	push	0
	call	?MenuSendTanker@@YAXH@Z			; MenuSendTanker
	add	esp, 4
$LN2@TankerRequ:

; 373  :    }
; 374  : }

	pop	ebp
	ret	0
?TankerRequestFuel@@YAXKHPAX@Z ENDP			; TankerRequestFuel
_TEXT	ENDS
; Function compile flags: /Odtp
; File c:\users\zhitao li\documents\visual studio 2012\projects\freefalcon\sim\siminput\radiocmds.cpp
_TEXT	SEGMENT
___formal$ = 8						; size = 4
_state$ = 12						; size = 4
___formal$ = 16						; size = 4
?FACRequestTACAN@@YAXKHPAX@Z PROC			; FACRequestTACAN

; 359  : {

	push	ebp
	mov	ebp, esp

; 360  : 	if (state & KEY_DOWN && SimDriver.GetPlayerAircraft() && SimDriver.GetPlayerAircraft()->IsSetFlag( MOTION_OWNSHIP ) && !((AircraftClass*)SimDriver.GetPlayerAircraft())->ejectTriggered)

	mov	eax, DWORD PTR _state$[ebp]
	and	eax, 8
	je	SHORT $LN2@FACRequest
	mov	ecx, OFFSET ?SimDriver@@3VSimulationDriver@@A ; SimDriver
	call	?GetPlayerAircraft@SimulationDriver@@QBEPAVAircraftClass@@XZ ; SimulationDriver::GetPlayerAircraft
	test	eax, eax
	je	SHORT $LN2@FACRequest
	push	65536					; 00010000H
	mov	ecx, OFFSET ?SimDriver@@3VSimulationDriver@@A ; SimDriver
	call	?GetPlayerAircraft@SimulationDriver@@QBEPAVAircraftClass@@XZ ; SimulationDriver::GetPlayerAircraft
	mov	ecx, eax
	call	?IsSetFlag@SimBaseClass@@QBEHH@Z	; SimBaseClass::IsSetFlag
	test	eax, eax
	je	SHORT $LN2@FACRequest
	mov	ecx, OFFSET ?SimDriver@@3VSimulationDriver@@A ; SimDriver
	call	?GetPlayerAircraft@SimulationDriver@@QBEPAVAircraftClass@@XZ ; SimulationDriver::GetPlayerAircraft
$LN2@FACRequest:

; 361  :    {
; 362  : //      SendRadioMenuMsg (FalconFACMessage::RequestTACAN + 1, FACMsg, 0);
; 363  :    }
; 364  : }

	pop	ebp
	ret	0
?FACRequestTACAN@@YAXKHPAX@Z ENDP			; FACRequestTACAN
_TEXT	ENDS
; Function compile flags: /Odtp
; File c:\users\zhitao li\documents\visual studio 2012\projects\freefalcon\sim\siminput\radiocmds.cpp
_TEXT	SEGMENT
___formal$ = 8						; size = 4
_state$ = 12						; size = 4
___formal$ = 16						; size = 4
?FACRequestLocation@@YAXKHPAX@Z PROC			; FACRequestLocation

; 351  : {

	push	ebp
	mov	ebp, esp

; 352  : 	if (state & KEY_DOWN && SimDriver.GetPlayerAircraft() && SimDriver.GetPlayerAircraft()->IsSetFlag( MOTION_OWNSHIP ) && !((AircraftClass*)SimDriver.GetPlayerAircraft())->ejectTriggered)

	mov	eax, DWORD PTR _state$[ebp]
	and	eax, 8
	je	SHORT $LN2@FACRequest
	mov	ecx, OFFSET ?SimDriver@@3VSimulationDriver@@A ; SimDriver
	call	?GetPlayerAircraft@SimulationDriver@@QBEPAVAircraftClass@@XZ ; SimulationDriver::GetPlayerAircraft
	test	eax, eax
	je	SHORT $LN2@FACRequest
	push	65536					; 00010000H
	mov	ecx, OFFSET ?SimDriver@@3VSimulationDriver@@A ; SimDriver
	call	?GetPlayerAircraft@SimulationDriver@@QBEPAVAircraftClass@@XZ ; SimulationDriver::GetPlayerAircraft
	mov	ecx, eax
	call	?IsSetFlag@SimBaseClass@@QBEHH@Z	; SimBaseClass::IsSetFlag
	test	eax, eax
	je	SHORT $LN2@FACRequest
	mov	ecx, OFFSET ?SimDriver@@3VSimulationDriver@@A ; SimDriver
	call	?GetPlayerAircraft@SimulationDriver@@QBEPAVAircraftClass@@XZ ; SimulationDriver::GetPlayerAircraft
$LN2@FACRequest:

; 353  :    {
; 354  : //      SendRadioMenuMsg (FalconFACMessage::RequestLocation + 1, FACMsg, 0);
; 355  :    }
; 356  : }

	pop	ebp
	ret	0
?FACRequestLocation@@YAXKHPAX@Z ENDP			; FACRequestLocation
_TEXT	ENDS
; Function compile flags: /Odtp
; File c:\users\zhitao li\documents\visual studio 2012\projects\freefalcon\sim\siminput\radiocmds.cpp
_TEXT	SEGMENT
___formal$ = 8						; size = 4
_state$ = 12						; size = 4
___formal$ = 16						; size = 4
?FACRequestBDA@@YAXKHPAX@Z PROC				; FACRequestBDA

; 343  : {

	push	ebp
	mov	ebp, esp

; 344  : 	if (state & KEY_DOWN && SimDriver.GetPlayerAircraft() && SimDriver.GetPlayerAircraft()->IsSetFlag( MOTION_OWNSHIP ) && !((AircraftClass*)SimDriver.GetPlayerAircraft())->ejectTriggered)

	mov	eax, DWORD PTR _state$[ebp]
	and	eax, 8
	je	SHORT $LN2@FACRequest
	mov	ecx, OFFSET ?SimDriver@@3VSimulationDriver@@A ; SimDriver
	call	?GetPlayerAircraft@SimulationDriver@@QBEPAVAircraftClass@@XZ ; SimulationDriver::GetPlayerAircraft
	test	eax, eax
	je	SHORT $LN2@FACRequest
	push	65536					; 00010000H
	mov	ecx, OFFSET ?SimDriver@@3VSimulationDriver@@A ; SimDriver
	call	?GetPlayerAircraft@SimulationDriver@@QBEPAVAircraftClass@@XZ ; SimulationDriver::GetPlayerAircraft
	mov	ecx, eax
	call	?IsSetFlag@SimBaseClass@@QBEHH@Z	; SimBaseClass::IsSetFlag
	test	eax, eax
	je	SHORT $LN2@FACRequest
	mov	ecx, OFFSET ?SimDriver@@3VSimulationDriver@@A ; SimDriver
	call	?GetPlayerAircraft@SimulationDriver@@QBEPAVAircraftClass@@XZ ; SimulationDriver::GetPlayerAircraft
$LN2@FACRequest:

; 345  :    {
; 346  : //      SendRadioMenuMsg (FalconFACMessage::RequestBDA + 1, FACMsg, 0);
; 347  :    }
; 348  : }

	pop	ebp
	ret	0
?FACRequestBDA@@YAXKHPAX@Z ENDP				; FACRequestBDA
_TEXT	ENDS
; Function compile flags: /Odtp
; File c:\users\zhitao li\documents\visual studio 2012\projects\freefalcon\sim\siminput\radiocmds.cpp
_TEXT	SEGMENT
___formal$ = 8						; size = 4
_state$ = 12						; size = 4
___formal$ = 16						; size = 4
?FACRequestTarget@@YAXKHPAX@Z PROC			; FACRequestTarget

; 335  : {

	push	ebp
	mov	ebp, esp

; 336  : 	if (state & KEY_DOWN && SimDriver.GetPlayerAircraft() && SimDriver.GetPlayerAircraft()->IsSetFlag( MOTION_OWNSHIP ) && !((AircraftClass*)SimDriver.GetPlayerAircraft())->ejectTriggered)

	mov	eax, DWORD PTR _state$[ebp]
	and	eax, 8
	je	SHORT $LN2@FACRequest
	mov	ecx, OFFSET ?SimDriver@@3VSimulationDriver@@A ; SimDriver
	call	?GetPlayerAircraft@SimulationDriver@@QBEPAVAircraftClass@@XZ ; SimulationDriver::GetPlayerAircraft
	test	eax, eax
	je	SHORT $LN2@FACRequest
	push	65536					; 00010000H
	mov	ecx, OFFSET ?SimDriver@@3VSimulationDriver@@A ; SimDriver
	call	?GetPlayerAircraft@SimulationDriver@@QBEPAVAircraftClass@@XZ ; SimulationDriver::GetPlayerAircraft
	mov	ecx, eax
	call	?IsSetFlag@SimBaseClass@@QBEHH@Z	; SimBaseClass::IsSetFlag
	test	eax, eax
	je	SHORT $LN2@FACRequest
	mov	ecx, OFFSET ?SimDriver@@3VSimulationDriver@@A ; SimDriver
	call	?GetPlayerAircraft@SimulationDriver@@QBEPAVAircraftClass@@XZ ; SimulationDriver::GetPlayerAircraft
$LN2@FACRequest:

; 337  :    {
; 338  : //      SendRadioMenuMsg (FalconFACMessage::RequestTarget + 1, FACMsg, 0);
; 339  :    }
; 340  : }

	pop	ebp
	ret	0
?FACRequestTarget@@YAXKHPAX@Z ENDP			; FACRequestTarget
_TEXT	ENDS
; Function compile flags: /Odtp
; File c:\users\zhitao li\documents\visual studio 2012\projects\freefalcon\sim\siminput\radiocmds.cpp
_TEXT	SEGMENT
___formal$ = 8						; size = 4
_state$ = 12						; size = 4
___formal$ = 16						; size = 4
?FACRequestMark@@YAXKHPAX@Z PROC			; FACRequestMark

; 327  : {

	push	ebp
	mov	ebp, esp

; 328  : 	if (state & KEY_DOWN && SimDriver.GetPlayerAircraft() && SimDriver.GetPlayerAircraft()->IsSetFlag( MOTION_OWNSHIP ) && !((AircraftClass*)SimDriver.GetPlayerAircraft())->ejectTriggered)

	mov	eax, DWORD PTR _state$[ebp]
	and	eax, 8
	je	SHORT $LN2@FACRequest
	mov	ecx, OFFSET ?SimDriver@@3VSimulationDriver@@A ; SimDriver
	call	?GetPlayerAircraft@SimulationDriver@@QBEPAVAircraftClass@@XZ ; SimulationDriver::GetPlayerAircraft
	test	eax, eax
	je	SHORT $LN2@FACRequest
	push	65536					; 00010000H
	mov	ecx, OFFSET ?SimDriver@@3VSimulationDriver@@A ; SimDriver
	call	?GetPlayerAircraft@SimulationDriver@@QBEPAVAircraftClass@@XZ ; SimulationDriver::GetPlayerAircraft
	mov	ecx, eax
	call	?IsSetFlag@SimBaseClass@@QBEHH@Z	; SimBaseClass::IsSetFlag
	test	eax, eax
	je	SHORT $LN2@FACRequest
	mov	ecx, OFFSET ?SimDriver@@3VSimulationDriver@@A ; SimDriver
	call	?GetPlayerAircraft@SimulationDriver@@QBEPAVAircraftClass@@XZ ; SimulationDriver::GetPlayerAircraft
$LN2@FACRequest:

; 329  :    {
; 330  : //      SendRadioMenuMsg (FalconFACMessage::RequestMark + 1, FACMsg, 0);
; 331  :    }
; 332  : }

	pop	ebp
	ret	0
?FACRequestMark@@YAXKHPAX@Z ENDP			; FACRequestMark
_TEXT	ENDS
; Function compile flags: /Odtp
; File c:\users\zhitao li\documents\visual studio 2012\projects\freefalcon\sim\siminput\radiocmds.cpp
_TEXT	SEGMENT
___formal$ = 8						; size = 4
_state$ = 12						; size = 4
___formal$ = 16						; size = 4
?FACOut@@YAXKHPAX@Z PROC				; FACOut

; 319  : {

	push	ebp
	mov	ebp, esp

; 320  : 	if (state & KEY_DOWN && SimDriver.GetPlayerAircraft() && SimDriver.GetPlayerAircraft()->IsSetFlag( MOTION_OWNSHIP ) && !((AircraftClass*)SimDriver.GetPlayerAircraft())->ejectTriggered)

	mov	eax, DWORD PTR _state$[ebp]
	and	eax, 8
	je	SHORT $LN2@FACOut
	mov	ecx, OFFSET ?SimDriver@@3VSimulationDriver@@A ; SimDriver
	call	?GetPlayerAircraft@SimulationDriver@@QBEPAVAircraftClass@@XZ ; SimulationDriver::GetPlayerAircraft
	test	eax, eax
	je	SHORT $LN2@FACOut
	push	65536					; 00010000H
	mov	ecx, OFFSET ?SimDriver@@3VSimulationDriver@@A ; SimDriver
	call	?GetPlayerAircraft@SimulationDriver@@QBEPAVAircraftClass@@XZ ; SimulationDriver::GetPlayerAircraft
	mov	ecx, eax
	call	?IsSetFlag@SimBaseClass@@QBEHH@Z	; SimBaseClass::IsSetFlag
	test	eax, eax
	je	SHORT $LN2@FACOut
	mov	ecx, OFFSET ?SimDriver@@3VSimulationDriver@@A ; SimDriver
	call	?GetPlayerAircraft@SimulationDriver@@QBEPAVAircraftClass@@XZ ; SimulationDriver::GetPlayerAircraft
$LN2@FACOut:

; 321  :    {
; 322  : ///      SendRadioMenuMsg (FalconFACMessage::Out + 1, FACMsg, 0);
; 323  :    }
; 324  : }

	pop	ebp
	ret	0
?FACOut@@YAXKHPAX@Z ENDP				; FACOut
_TEXT	ENDS
; Function compile flags: /Odtp
; File c:\users\zhitao li\documents\visual studio 2012\projects\freefalcon\sim\siminput\radiocmds.cpp
_TEXT	SEGMENT
___formal$ = 8						; size = 4
_state$ = 12						; size = 4
___formal$ = 16						; size = 4
?FACIn@@YAXKHPAX@Z PROC					; FACIn

; 311  : {

	push	ebp
	mov	ebp, esp

; 312  : 	if (state & KEY_DOWN && SimDriver.GetPlayerAircraft() && SimDriver.GetPlayerAircraft()->IsSetFlag( MOTION_OWNSHIP ) && !((AircraftClass*)SimDriver.GetPlayerAircraft())->ejectTriggered)

	mov	eax, DWORD PTR _state$[ebp]
	and	eax, 8
	je	SHORT $LN2@FACIn
	mov	ecx, OFFSET ?SimDriver@@3VSimulationDriver@@A ; SimDriver
	call	?GetPlayerAircraft@SimulationDriver@@QBEPAVAircraftClass@@XZ ; SimulationDriver::GetPlayerAircraft
	test	eax, eax
	je	SHORT $LN2@FACIn
	push	65536					; 00010000H
	mov	ecx, OFFSET ?SimDriver@@3VSimulationDriver@@A ; SimDriver
	call	?GetPlayerAircraft@SimulationDriver@@QBEPAVAircraftClass@@XZ ; SimulationDriver::GetPlayerAircraft
	mov	ecx, eax
	call	?IsSetFlag@SimBaseClass@@QBEHH@Z	; SimBaseClass::IsSetFlag
	test	eax, eax
	je	SHORT $LN2@FACIn
	mov	ecx, OFFSET ?SimDriver@@3VSimulationDriver@@A ; SimDriver
	call	?GetPlayerAircraft@SimulationDriver@@QBEPAVAircraftClass@@XZ ; SimulationDriver::GetPlayerAircraft
$LN2@FACIn:

; 313  :    {
; 314  : ///      SendRadioMenuMsg (FalconFACMessage::In + 1, FACMsg, 0);
; 315  :    }
; 316  : }

	pop	ebp
	ret	0
?FACIn@@YAXKHPAX@Z ENDP					; FACIn
_TEXT	ENDS
; Function compile flags: /Odtp
; File c:\users\zhitao li\documents\visual studio 2012\projects\freefalcon\sim\siminput\radiocmds.cpp
_TEXT	SEGMENT
___formal$ = 8						; size = 4
_state$ = 12						; size = 4
___formal$ = 16						; size = 4
?FACReady@@YAXKHPAX@Z PROC				; FACReady

; 303  : {

	push	ebp
	mov	ebp, esp

; 304  : 	if (state & KEY_DOWN && SimDriver.GetPlayerAircraft() && SimDriver.GetPlayerAircraft()->IsSetFlag( MOTION_OWNSHIP ) && !((AircraftClass*)SimDriver.GetPlayerAircraft())->ejectTriggered)

	mov	eax, DWORD PTR _state$[ebp]
	and	eax, 8
	je	SHORT $LN2@FACReady
	mov	ecx, OFFSET ?SimDriver@@3VSimulationDriver@@A ; SimDriver
	call	?GetPlayerAircraft@SimulationDriver@@QBEPAVAircraftClass@@XZ ; SimulationDriver::GetPlayerAircraft
	test	eax, eax
	je	SHORT $LN2@FACReady
	push	65536					; 00010000H
	mov	ecx, OFFSET ?SimDriver@@3VSimulationDriver@@A ; SimDriver
	call	?GetPlayerAircraft@SimulationDriver@@QBEPAVAircraftClass@@XZ ; SimulationDriver::GetPlayerAircraft
	mov	ecx, eax
	call	?IsSetFlag@SimBaseClass@@QBEHH@Z	; SimBaseClass::IsSetFlag
	test	eax, eax
	je	SHORT $LN2@FACReady
	mov	ecx, OFFSET ?SimDriver@@3VSimulationDriver@@A ; SimDriver
	call	?GetPlayerAircraft@SimulationDriver@@QBEPAVAircraftClass@@XZ ; SimulationDriver::GetPlayerAircraft
$LN2@FACReady:

; 305  :    {
; 306  : //      SendRadioMenuMsg (FalconFACMessage::CheckIn + 1, FACMsg, 0);
; 307  :    }
; 308  : }

	pop	ebp
	ret	0
?FACReady@@YAXKHPAX@Z ENDP				; FACReady
_TEXT	ENDS
; Function compile flags: /Odtp
; File c:\users\zhitao li\documents\visual studio 2012\projects\freefalcon\sim\siminput\radiocmds.cpp
_TEXT	SEGMENT
___formal$ = 8						; size = 4
_state$ = 12						; size = 4
___formal$ = 16						; size = 4
?FACUnable@@YAXKHPAX@Z PROC				; FACUnable

; 295  : {

	push	ebp
	mov	ebp, esp

; 296  : 	if (state & KEY_DOWN && SimDriver.GetPlayerAircraft() && SimDriver.GetPlayerAircraft()->IsSetFlag( MOTION_OWNSHIP ) && !((AircraftClass*)SimDriver.GetPlayerAircraft())->ejectTriggered)

	mov	eax, DWORD PTR _state$[ebp]
	and	eax, 8
	je	SHORT $LN2@FACUnable
	mov	ecx, OFFSET ?SimDriver@@3VSimulationDriver@@A ; SimDriver
	call	?GetPlayerAircraft@SimulationDriver@@QBEPAVAircraftClass@@XZ ; SimulationDriver::GetPlayerAircraft
	test	eax, eax
	je	SHORT $LN2@FACUnable
	push	65536					; 00010000H
	mov	ecx, OFFSET ?SimDriver@@3VSimulationDriver@@A ; SimDriver
	call	?GetPlayerAircraft@SimulationDriver@@QBEPAVAircraftClass@@XZ ; SimulationDriver::GetPlayerAircraft
	mov	ecx, eax
	call	?IsSetFlag@SimBaseClass@@QBEHH@Z	; SimBaseClass::IsSetFlag
	test	eax, eax
	je	SHORT $LN2@FACUnable
	mov	ecx, OFFSET ?SimDriver@@3VSimulationDriver@@A ; SimDriver
	call	?GetPlayerAircraft@SimulationDriver@@QBEPAVAircraftClass@@XZ ; SimulationDriver::GetPlayerAircraft
$LN2@FACUnable:

; 297  :    {
; 298  : //      SendRadioMenuMsg (FalconFACMessage::CheckIn + 1, FACMsg, 0);
; 299  :    }
; 300  : }

	pop	ebp
	ret	0
?FACUnable@@YAXKHPAX@Z ENDP				; FACUnable
_TEXT	ENDS
; Function compile flags: /Odtp
; File c:\users\zhitao li\documents\visual studio 2012\projects\freefalcon\sim\siminput\radiocmds.cpp
_TEXT	SEGMENT
___formal$ = 8						; size = 4
_state$ = 12						; size = 4
___formal$ = 16						; size = 4
?FACWilco@@YAXKHPAX@Z PROC				; FACWilco

; 287  : {

	push	ebp
	mov	ebp, esp

; 288  : 	if (state & KEY_DOWN && SimDriver.GetPlayerAircraft() && SimDriver.GetPlayerAircraft()->IsSetFlag( MOTION_OWNSHIP ) && !((AircraftClass*)SimDriver.GetPlayerAircraft())->ejectTriggered)

	mov	eax, DWORD PTR _state$[ebp]
	and	eax, 8
	je	SHORT $LN2@FACWilco
	mov	ecx, OFFSET ?SimDriver@@3VSimulationDriver@@A ; SimDriver
	call	?GetPlayerAircraft@SimulationDriver@@QBEPAVAircraftClass@@XZ ; SimulationDriver::GetPlayerAircraft
	test	eax, eax
	je	SHORT $LN2@FACWilco
	push	65536					; 00010000H
	mov	ecx, OFFSET ?SimDriver@@3VSimulationDriver@@A ; SimDriver
	call	?GetPlayerAircraft@SimulationDriver@@QBEPAVAircraftClass@@XZ ; SimulationDriver::GetPlayerAircraft
	mov	ecx, eax
	call	?IsSetFlag@SimBaseClass@@QBEHH@Z	; SimBaseClass::IsSetFlag
	test	eax, eax
	je	SHORT $LN2@FACWilco
	mov	ecx, OFFSET ?SimDriver@@3VSimulationDriver@@A ; SimDriver
	call	?GetPlayerAircraft@SimulationDriver@@QBEPAVAircraftClass@@XZ ; SimulationDriver::GetPlayerAircraft
$LN2@FACWilco:

; 289  :    {
; 290  : //      SendRadioMenuMsg (FalconFACMessage::CheckIn + 1, FACMsg, 0);
; 291  :    }
; 292  : }

	pop	ebp
	ret	0
?FACWilco@@YAXKHPAX@Z ENDP				; FACWilco
_TEXT	ENDS
; Function compile flags: /Odtp
; File c:\users\zhitao li\documents\visual studio 2012\projects\freefalcon\sim\siminput\radiocmds.cpp
_TEXT	SEGMENT
___formal$ = 8						; size = 4
_state$ = 12						; size = 4
___formal$ = 16						; size = 4
?FACCheckIn@@YAXKHPAX@Z PROC				; FACCheckIn

; 279  : {

	push	ebp
	mov	ebp, esp

; 280  : 	if (state & KEY_DOWN && SimDriver.GetPlayerAircraft() && SimDriver.GetPlayerAircraft()->IsSetFlag( MOTION_OWNSHIP ) && !((AircraftClass*)SimDriver.GetPlayerAircraft())->ejectTriggered)

	mov	eax, DWORD PTR _state$[ebp]
	and	eax, 8
	je	SHORT $LN2@FACCheckIn
	mov	ecx, OFFSET ?SimDriver@@3VSimulationDriver@@A ; SimDriver
	call	?GetPlayerAircraft@SimulationDriver@@QBEPAVAircraftClass@@XZ ; SimulationDriver::GetPlayerAircraft
	test	eax, eax
	je	SHORT $LN2@FACCheckIn
	push	65536					; 00010000H
	mov	ecx, OFFSET ?SimDriver@@3VSimulationDriver@@A ; SimDriver
	call	?GetPlayerAircraft@SimulationDriver@@QBEPAVAircraftClass@@XZ ; SimulationDriver::GetPlayerAircraft
	mov	ecx, eax
	call	?IsSetFlag@SimBaseClass@@QBEHH@Z	; SimBaseClass::IsSetFlag
	test	eax, eax
	je	SHORT $LN2@FACCheckIn
	mov	ecx, OFFSET ?SimDriver@@3VSimulationDriver@@A ; SimDriver
	call	?GetPlayerAircraft@SimulationDriver@@QBEPAVAircraftClass@@XZ ; SimulationDriver::GetPlayerAircraft
$LN2@FACCheckIn:

; 281  :    {
; 282  : //      SendRadioMenuMsg (FalconFACMessage::CheckIn + 1, FACMsg, 0);
; 283  :    }
; 284  : }

	pop	ebp
	ret	0
?FACCheckIn@@YAXKHPAX@Z ENDP				; FACCheckIn
_TEXT	ENDS
; Function compile flags: /Odtp
; File c:\users\zhitao li\documents\visual studio 2012\projects\freefalcon\sim\siminput\radiocmds.cpp
_TEXT	SEGMENT
___formal$ = 8						; size = 4
_state$ = 12						; size = 4
___formal$ = 16						; size = 4
?ATCAbortApproach@@YAXKHPAX@Z PROC			; ATCAbortApproach

; 268  : {

	push	ebp
	mov	ebp, esp

; 269  : 	if (state & KEY_DOWN && SimDriver.GetPlayerAircraft() && SimDriver.GetPlayerAircraft()->IsSetFlag( MOTION_OWNSHIP ) && !((AircraftClass*)SimDriver.GetPlayerAircraft())->ejectTriggered)

	mov	eax, DWORD PTR _state$[ebp]
	and	eax, 8
	je	SHORT $LN2@ATCAbortAp
	mov	ecx, OFFSET ?SimDriver@@3VSimulationDriver@@A ; SimDriver
	call	?GetPlayerAircraft@SimulationDriver@@QBEPAVAircraftClass@@XZ ; SimulationDriver::GetPlayerAircraft
	test	eax, eax
	je	SHORT $LN2@ATCAbortAp
	push	65536					; 00010000H
	mov	ecx, OFFSET ?SimDriver@@3VSimulationDriver@@A ; SimDriver
	call	?GetPlayerAircraft@SimulationDriver@@QBEPAVAircraftClass@@XZ ; SimulationDriver::GetPlayerAircraft
	mov	ecx, eax
	call	?IsSetFlag@SimBaseClass@@QBEHH@Z	; SimBaseClass::IsSetFlag
	test	eax, eax
	je	SHORT $LN2@ATCAbortAp
	mov	ecx, OFFSET ?SimDriver@@3VSimulationDriver@@A ; SimDriver
	call	?GetPlayerAircraft@SimulationDriver@@QBEPAVAircraftClass@@XZ ; SimulationDriver::GetPlayerAircraft
	cmp	DWORD PTR [eax+1796], 0
	jne	SHORT $LN2@ATCAbortAp

; 270  :    {
; 271  :       MenuSendAtc (FalconATCMessage::AbortApproach);

	push	1
	push	6
	call	?MenuSendAtc@@YAXHH@Z			; MenuSendAtc
	add	esp, 8
$LN2@ATCAbortAp:

; 272  :    }
; 273  : }

	pop	ebp
	ret	0
?ATCAbortApproach@@YAXKHPAX@Z ENDP			; ATCAbortApproach
_TEXT	ENDS
; Function compile flags: /Odtp
; File c:\users\zhitao li\documents\visual studio 2012\projects\freefalcon\sim\siminput\radiocmds.cpp
_TEXT	SEGMENT
___formal$ = 8						; size = 4
_state$ = 12						; size = 4
___formal$ = 16						; size = 4
?ATCBrake@@YAXKHPAX@Z PROC				; ATCBrake

; 259  : {

	push	ebp
	mov	ebp, esp

; 260  : 	if (state & KEY_DOWN && SimDriver.GetPlayerAircraft() && SimDriver.GetPlayerAircraft()->IsSetFlag( MOTION_OWNSHIP ) && !((AircraftClass*)SimDriver.GetPlayerAircraft())->ejectTriggered)

	mov	eax, DWORD PTR _state$[ebp]
	and	eax, 8
	je	SHORT $LN2@ATCBrake
	mov	ecx, OFFSET ?SimDriver@@3VSimulationDriver@@A ; SimDriver
	call	?GetPlayerAircraft@SimulationDriver@@QBEPAVAircraftClass@@XZ ; SimulationDriver::GetPlayerAircraft
	test	eax, eax
	je	SHORT $LN2@ATCBrake
	push	65536					; 00010000H
	mov	ecx, OFFSET ?SimDriver@@3VSimulationDriver@@A ; SimDriver
	call	?GetPlayerAircraft@SimulationDriver@@QBEPAVAircraftClass@@XZ ; SimulationDriver::GetPlayerAircraft
	mov	ecx, eax
	call	?IsSetFlag@SimBaseClass@@QBEHH@Z	; SimBaseClass::IsSetFlag
	test	eax, eax
	je	SHORT $LN2@ATCBrake
	mov	ecx, OFFSET ?SimDriver@@3VSimulationDriver@@A ; SimDriver
	call	?GetPlayerAircraft@SimulationDriver@@QBEPAVAircraftClass@@XZ ; SimulationDriver::GetPlayerAircraft
$LN2@ATCBrake:

; 261  :    {
; 262  :       //MenuSendAtc (FalconATCMessage::Brake + 1);
; 263  :    }
; 264  : }

	pop	ebp
	ret	0
?ATCBrake@@YAXKHPAX@Z ENDP				; ATCBrake
_TEXT	ENDS
; Function compile flags: /Odtp
; File c:\users\zhitao li\documents\visual studio 2012\projects\freefalcon\sim\siminput\radiocmds.cpp
_TEXT	SEGMENT
___formal$ = 8						; size = 4
_state$ = 12						; size = 4
___formal$ = 16						; size = 4
?ATCGearDown@@YAXKHPAX@Z PROC				; ATCGearDown

; 251  : {

	push	ebp
	mov	ebp, esp

; 252  : 	if (state & KEY_DOWN && SimDriver.GetPlayerAircraft() && SimDriver.GetPlayerAircraft()->IsSetFlag( MOTION_OWNSHIP ) && !((AircraftClass*)SimDriver.GetPlayerAircraft())->ejectTriggered)

	mov	eax, DWORD PTR _state$[ebp]
	and	eax, 8
	je	SHORT $LN2@ATCGearDow
	mov	ecx, OFFSET ?SimDriver@@3VSimulationDriver@@A ; SimDriver
	call	?GetPlayerAircraft@SimulationDriver@@QBEPAVAircraftClass@@XZ ; SimulationDriver::GetPlayerAircraft
	test	eax, eax
	je	SHORT $LN2@ATCGearDow
	push	65536					; 00010000H
	mov	ecx, OFFSET ?SimDriver@@3VSimulationDriver@@A ; SimDriver
	call	?GetPlayerAircraft@SimulationDriver@@QBEPAVAircraftClass@@XZ ; SimulationDriver::GetPlayerAircraft
	mov	ecx, eax
	call	?IsSetFlag@SimBaseClass@@QBEHH@Z	; SimBaseClass::IsSetFlag
	test	eax, eax
	je	SHORT $LN2@ATCGearDow
	mov	ecx, OFFSET ?SimDriver@@3VSimulationDriver@@A ; SimDriver
	call	?GetPlayerAircraft@SimulationDriver@@QBEPAVAircraftClass@@XZ ; SimulationDriver::GetPlayerAircraft
$LN2@ATCGearDow:

; 253  :    {
; 254  :       //MenuSendAtc (FalconATCMessage::GearDown + 1);
; 255  :    }
; 256  : }

	pop	ebp
	ret	0
?ATCGearDown@@YAXKHPAX@Z ENDP				; ATCGearDown
_TEXT	ENDS
; Function compile flags: /Odtp
; File c:\users\zhitao li\documents\visual studio 2012\projects\freefalcon\sim\siminput\radiocmds.cpp
_TEXT	SEGMENT
___formal$ = 8						; size = 4
_state$ = 12						; size = 4
___formal$ = 16						; size = 4
?ATCGearUp@@YAXKHPAX@Z PROC				; ATCGearUp

; 243  : {

	push	ebp
	mov	ebp, esp

; 244  : 	if (state & KEY_DOWN && SimDriver.GetPlayerAircraft() && SimDriver.GetPlayerAircraft()->IsSetFlag( MOTION_OWNSHIP ) && !((AircraftClass*)SimDriver.GetPlayerAircraft())->ejectTriggered)

	mov	eax, DWORD PTR _state$[ebp]
	and	eax, 8
	je	SHORT $LN2@ATCGearUp
	mov	ecx, OFFSET ?SimDriver@@3VSimulationDriver@@A ; SimDriver
	call	?GetPlayerAircraft@SimulationDriver@@QBEPAVAircraftClass@@XZ ; SimulationDriver::GetPlayerAircraft
	test	eax, eax
	je	SHORT $LN2@ATCGearUp
	push	65536					; 00010000H
	mov	ecx, OFFSET ?SimDriver@@3VSimulationDriver@@A ; SimDriver
	call	?GetPlayerAircraft@SimulationDriver@@QBEPAVAircraftClass@@XZ ; SimulationDriver::GetPlayerAircraft
	mov	ecx, eax
	call	?IsSetFlag@SimBaseClass@@QBEHH@Z	; SimBaseClass::IsSetFlag
	test	eax, eax
	je	SHORT $LN2@ATCGearUp
	mov	ecx, OFFSET ?SimDriver@@3VSimulationDriver@@A ; SimDriver
	call	?GetPlayerAircraft@SimulationDriver@@QBEPAVAircraftClass@@XZ ; SimulationDriver::GetPlayerAircraft
$LN2@ATCGearUp:

; 245  :    {
; 246  :       //MenuSendAtc (FalconATCMessage::GearUp + 1);
; 247  :    }
; 248  : }

	pop	ebp
	ret	0
?ATCGearUp@@YAXKHPAX@Z ENDP				; ATCGearUp
_TEXT	ENDS
; Function compile flags: /Odtp
; File c:\users\zhitao li\documents\visual studio 2012\projects\freefalcon\sim\siminput\radiocmds.cpp
_TEXT	SEGMENT
___formal$ = 8						; size = 4
_state$ = 12						; size = 4
___formal$ = 16						; size = 4
?ATCRotate@@YAXKHPAX@Z PROC				; ATCRotate

; 235  : {

	push	ebp
	mov	ebp, esp

; 236  : 	if (state & KEY_DOWN && SimDriver.GetPlayerAircraft() && SimDriver.GetPlayerAircraft()->IsSetFlag( MOTION_OWNSHIP ) && !((AircraftClass*)SimDriver.GetPlayerAircraft())->ejectTriggered)

	mov	eax, DWORD PTR _state$[ebp]
	and	eax, 8
	je	SHORT $LN2@ATCRotate
	mov	ecx, OFFSET ?SimDriver@@3VSimulationDriver@@A ; SimDriver
	call	?GetPlayerAircraft@SimulationDriver@@QBEPAVAircraftClass@@XZ ; SimulationDriver::GetPlayerAircraft
	test	eax, eax
	je	SHORT $LN2@ATCRotate
	push	65536					; 00010000H
	mov	ecx, OFFSET ?SimDriver@@3VSimulationDriver@@A ; SimDriver
	call	?GetPlayerAircraft@SimulationDriver@@QBEPAVAircraftClass@@XZ ; SimulationDriver::GetPlayerAircraft
	mov	ecx, eax
	call	?IsSetFlag@SimBaseClass@@QBEHH@Z	; SimBaseClass::IsSetFlag
	test	eax, eax
	je	SHORT $LN2@ATCRotate
	mov	ecx, OFFSET ?SimDriver@@3VSimulationDriver@@A ; SimDriver
	call	?GetPlayerAircraft@SimulationDriver@@QBEPAVAircraftClass@@XZ ; SimulationDriver::GetPlayerAircraft
$LN2@ATCRotate:

; 237  :    {
; 238  :       //MenuSendAtc (FalconATCMessage::Rotate + 1);
; 239  :    }
; 240  : }

	pop	ebp
	ret	0
?ATCRotate@@YAXKHPAX@Z ENDP				; ATCRotate
_TEXT	ENDS
; Function compile flags: /Odtp
; File c:\users\zhitao li\documents\visual studio 2012\projects\freefalcon\sim\siminput\radiocmds.cpp
_TEXT	SEGMENT
___formal$ = 8						; size = 4
_state$ = 12						; size = 4
___formal$ = 16						; size = 4
?ATCReadyToGo@@YAXKHPAX@Z PROC				; ATCReadyToGo

; 227  : {

	push	ebp
	mov	ebp, esp

; 228  : 	if (state & KEY_DOWN && SimDriver.GetPlayerAircraft() && SimDriver.GetPlayerAircraft()->IsSetFlag( MOTION_OWNSHIP ) && !((AircraftClass*)SimDriver.GetPlayerAircraft())->ejectTriggered)

	mov	eax, DWORD PTR _state$[ebp]
	and	eax, 8
	je	SHORT $LN2@ATCReadyTo
	mov	ecx, OFFSET ?SimDriver@@3VSimulationDriver@@A ; SimDriver
	call	?GetPlayerAircraft@SimulationDriver@@QBEPAVAircraftClass@@XZ ; SimulationDriver::GetPlayerAircraft
	test	eax, eax
	je	SHORT $LN2@ATCReadyTo
	push	65536					; 00010000H
	mov	ecx, OFFSET ?SimDriver@@3VSimulationDriver@@A ; SimDriver
	call	?GetPlayerAircraft@SimulationDriver@@QBEPAVAircraftClass@@XZ ; SimulationDriver::GetPlayerAircraft
	mov	ecx, eax
	call	?IsSetFlag@SimBaseClass@@QBEHH@Z	; SimBaseClass::IsSetFlag
	test	eax, eax
	je	SHORT $LN2@ATCReadyTo
	mov	ecx, OFFSET ?SimDriver@@3VSimulationDriver@@A ; SimDriver
	call	?GetPlayerAircraft@SimulationDriver@@QBEPAVAircraftClass@@XZ ; SimulationDriver::GetPlayerAircraft
$LN2@ATCReadyTo:

; 229  :    {
; 230  :       //MenuSendAtc (FalconATCMessage::ReadyToGo + 1);
; 231  :    }
; 232  : }

	pop	ebp
	ret	0
?ATCReadyToGo@@YAXKHPAX@Z ENDP				; ATCReadyToGo
_TEXT	ENDS
; Function compile flags: /Odtp
; File c:\users\zhitao li\documents\visual studio 2012\projects\freefalcon\sim\siminput\radiocmds.cpp
_TEXT	SEGMENT
___formal$ = 8						; size = 4
_state$ = 12						; size = 4
___formal$ = 16						; size = 4
?ATCTaxiing@@YAXKHPAX@Z PROC				; ATCTaxiing

; 219  : {

	push	ebp
	mov	ebp, esp

; 220  : 	if (state & KEY_DOWN && SimDriver.GetPlayerAircraft() && SimDriver.GetPlayerAircraft()->IsSetFlag( MOTION_OWNSHIP ) && !((AircraftClass*)SimDriver.GetPlayerAircraft())->ejectTriggered)

	mov	eax, DWORD PTR _state$[ebp]
	and	eax, 8
	je	SHORT $LN2@ATCTaxiing
	mov	ecx, OFFSET ?SimDriver@@3VSimulationDriver@@A ; SimDriver
	call	?GetPlayerAircraft@SimulationDriver@@QBEPAVAircraftClass@@XZ ; SimulationDriver::GetPlayerAircraft
	test	eax, eax
	je	SHORT $LN2@ATCTaxiing
	push	65536					; 00010000H
	mov	ecx, OFFSET ?SimDriver@@3VSimulationDriver@@A ; SimDriver
	call	?GetPlayerAircraft@SimulationDriver@@QBEPAVAircraftClass@@XZ ; SimulationDriver::GetPlayerAircraft
	mov	ecx, eax
	call	?IsSetFlag@SimBaseClass@@QBEHH@Z	; SimBaseClass::IsSetFlag
	test	eax, eax
	je	SHORT $LN2@ATCTaxiing
	mov	ecx, OFFSET ?SimDriver@@3VSimulationDriver@@A ; SimDriver
	call	?GetPlayerAircraft@SimulationDriver@@QBEPAVAircraftClass@@XZ ; SimulationDriver::GetPlayerAircraft
$LN2@ATCTaxiing:

; 221  :    {
; 222  :       //MenuSendAtc (FalconATCMessage::Taxiing + 1);
; 223  :    }
; 224  : }

	pop	ebp
	ret	0
?ATCTaxiing@@YAXKHPAX@Z ENDP				; ATCTaxiing
_TEXT	ENDS
; Function compile flags: /Odtp
; File c:\users\zhitao li\documents\visual studio 2012\projects\freefalcon\sim\siminput\radiocmds.cpp
_TEXT	SEGMENT
___formal$ = 8						; size = 4
_state$ = 12						; size = 4
___formal$ = 16						; size = 4
?ATCRequestTaxi@@YAXKHPAX@Z PROC			; ATCRequestTaxi

; 211  : {

	push	ebp
	mov	ebp, esp

; 212  : 	if (state & KEY_DOWN && SimDriver.GetPlayerAircraft() && SimDriver.GetPlayerAircraft()->IsSetFlag( MOTION_OWNSHIP ) && !((AircraftClass*)SimDriver.GetPlayerAircraft())->ejectTriggered)

	mov	eax, DWORD PTR _state$[ebp]
	and	eax, 8
	je	SHORT $LN2@ATCRequest
	mov	ecx, OFFSET ?SimDriver@@3VSimulationDriver@@A ; SimDriver
	call	?GetPlayerAircraft@SimulationDriver@@QBEPAVAircraftClass@@XZ ; SimulationDriver::GetPlayerAircraft
	test	eax, eax
	je	SHORT $LN2@ATCRequest
	push	65536					; 00010000H
	mov	ecx, OFFSET ?SimDriver@@3VSimulationDriver@@A ; SimDriver
	call	?GetPlayerAircraft@SimulationDriver@@QBEPAVAircraftClass@@XZ ; SimulationDriver::GetPlayerAircraft
	mov	ecx, eax
	call	?IsSetFlag@SimBaseClass@@QBEHH@Z	; SimBaseClass::IsSetFlag
	test	eax, eax
	je	SHORT $LN2@ATCRequest
	mov	ecx, OFFSET ?SimDriver@@3VSimulationDriver@@A ; SimDriver
	call	?GetPlayerAircraft@SimulationDriver@@QBEPAVAircraftClass@@XZ ; SimulationDriver::GetPlayerAircraft
	cmp	DWORD PTR [eax+1796], 0
	jne	SHORT $LN2@ATCRequest

; 213  :    {
; 214  :       MenuSendAtc (FalconATCMessage::RequestTaxi);

	push	1
	push	4
	call	?MenuSendAtc@@YAXHH@Z			; MenuSendAtc
	add	esp, 8
$LN2@ATCRequest:

; 215  :    }
; 216  : }

	pop	ebp
	ret	0
?ATCRequestTaxi@@YAXKHPAX@Z ENDP			; ATCRequestTaxi
_TEXT	ENDS
; Function compile flags: /Odtp
; File c:\users\zhitao li\documents\visual studio 2012\projects\freefalcon\sim\siminput\radiocmds.cpp
_TEXT	SEGMENT
___formal$ = 8						; size = 4
_state$ = 12						; size = 4
___formal$ = 16						; size = 4
?ATCRequestTakeoff@@YAXKHPAX@Z PROC			; ATCRequestTakeoff

; 203  : {

	push	ebp
	mov	ebp, esp

; 204  : 	if (state & KEY_DOWN && SimDriver.GetPlayerAircraft() && SimDriver.GetPlayerAircraft()->IsSetFlag( MOTION_OWNSHIP ) && !((AircraftClass*)SimDriver.GetPlayerAircraft())->ejectTriggered)

	mov	eax, DWORD PTR _state$[ebp]
	and	eax, 8
	je	SHORT $LN2@ATCRequest
	mov	ecx, OFFSET ?SimDriver@@3VSimulationDriver@@A ; SimDriver
	call	?GetPlayerAircraft@SimulationDriver@@QBEPAVAircraftClass@@XZ ; SimulationDriver::GetPlayerAircraft
	test	eax, eax
	je	SHORT $LN2@ATCRequest
	push	65536					; 00010000H
	mov	ecx, OFFSET ?SimDriver@@3VSimulationDriver@@A ; SimDriver
	call	?GetPlayerAircraft@SimulationDriver@@QBEPAVAircraftClass@@XZ ; SimulationDriver::GetPlayerAircraft
	mov	ecx, eax
	call	?IsSetFlag@SimBaseClass@@QBEHH@Z	; SimBaseClass::IsSetFlag
	test	eax, eax
	je	SHORT $LN2@ATCRequest
	mov	ecx, OFFSET ?SimDriver@@3VSimulationDriver@@A ; SimDriver
	call	?GetPlayerAircraft@SimulationDriver@@QBEPAVAircraftClass@@XZ ; SimulationDriver::GetPlayerAircraft
	cmp	DWORD PTR [eax+1796], 0
	jne	SHORT $LN2@ATCRequest

; 205  :    {
; 206  :       MenuSendAtc (FalconATCMessage::RequestTakeoff);

	push	1
	push	3
	call	?MenuSendAtc@@YAXHH@Z			; MenuSendAtc
	add	esp, 8
$LN2@ATCRequest:

; 207  :    }
; 208  : }

	pop	ebp
	ret	0
?ATCRequestTakeoff@@YAXKHPAX@Z ENDP			; ATCRequestTakeoff
_TEXT	ENDS
; Function compile flags: /Odtp
; File c:\users\zhitao li\documents\visual studio 2012\projects\freefalcon\sim\siminput\radiocmds.cpp
_TEXT	SEGMENT
___formal$ = 8						; size = 4
_state$ = 12						; size = 4
___formal$ = 16						; size = 4
?ATCRequestEmergencyClearance@@YAXKHPAX@Z PROC		; ATCRequestEmergencyClearance

; 195  : {

	push	ebp
	mov	ebp, esp

; 196  : 	if (state & KEY_DOWN && SimDriver.GetPlayerAircraft() && SimDriver.GetPlayerAircraft()->IsSetFlag( MOTION_OWNSHIP ) && !((AircraftClass*)SimDriver.GetPlayerAircraft())->ejectTriggered)

	mov	eax, DWORD PTR _state$[ebp]
	and	eax, 8
	je	SHORT $LN2@ATCRequest
	mov	ecx, OFFSET ?SimDriver@@3VSimulationDriver@@A ; SimDriver
	call	?GetPlayerAircraft@SimulationDriver@@QBEPAVAircraftClass@@XZ ; SimulationDriver::GetPlayerAircraft
	test	eax, eax
	je	SHORT $LN2@ATCRequest
	push	65536					; 00010000H
	mov	ecx, OFFSET ?SimDriver@@3VSimulationDriver@@A ; SimDriver
	call	?GetPlayerAircraft@SimulationDriver@@QBEPAVAircraftClass@@XZ ; SimulationDriver::GetPlayerAircraft
	mov	ecx, eax
	call	?IsSetFlag@SimBaseClass@@QBEHH@Z	; SimBaseClass::IsSetFlag
	test	eax, eax
	je	SHORT $LN2@ATCRequest
	mov	ecx, OFFSET ?SimDriver@@3VSimulationDriver@@A ; SimDriver
	call	?GetPlayerAircraft@SimulationDriver@@QBEPAVAircraftClass@@XZ ; SimulationDriver::GetPlayerAircraft
	cmp	DWORD PTR [eax+1796], 0
	jne	SHORT $LN2@ATCRequest

; 197  :    {
; 198  :       MenuSendAtc (FalconATCMessage::RequestEmerClearance);

	push	1
	push	1
	call	?MenuSendAtc@@YAXHH@Z			; MenuSendAtc
	add	esp, 8
$LN2@ATCRequest:

; 199  :    }
; 200  : }

	pop	ebp
	ret	0
?ATCRequestEmergencyClearance@@YAXKHPAX@Z ENDP		; ATCRequestEmergencyClearance
_TEXT	ENDS
; Function compile flags: /Odtp
; File c:\users\zhitao li\documents\visual studio 2012\projects\freefalcon\sim\siminput\radiocmds.cpp
_TEXT	SEGMENT
___formal$ = 8						; size = 4
_state$ = 12						; size = 4
___formal$ = 16						; size = 4
?ATCRequestClearance@@YAXKHPAX@Z PROC			; ATCRequestClearance

; 187  : {

	push	ebp
	mov	ebp, esp

; 188  : 	if (state & KEY_DOWN && SimDriver.GetPlayerAircraft() && SimDriver.GetPlayerAircraft()->IsSetFlag( MOTION_OWNSHIP ) && !((AircraftClass*)SimDriver.GetPlayerAircraft())->ejectTriggered)

	mov	eax, DWORD PTR _state$[ebp]
	and	eax, 8
	je	SHORT $LN2@ATCRequest
	mov	ecx, OFFSET ?SimDriver@@3VSimulationDriver@@A ; SimDriver
	call	?GetPlayerAircraft@SimulationDriver@@QBEPAVAircraftClass@@XZ ; SimulationDriver::GetPlayerAircraft
	test	eax, eax
	je	SHORT $LN2@ATCRequest
	push	65536					; 00010000H
	mov	ecx, OFFSET ?SimDriver@@3VSimulationDriver@@A ; SimDriver
	call	?GetPlayerAircraft@SimulationDriver@@QBEPAVAircraftClass@@XZ ; SimulationDriver::GetPlayerAircraft
	mov	ecx, eax
	call	?IsSetFlag@SimBaseClass@@QBEHH@Z	; SimBaseClass::IsSetFlag
	test	eax, eax
	je	SHORT $LN2@ATCRequest
	mov	ecx, OFFSET ?SimDriver@@3VSimulationDriver@@A ; SimDriver
	call	?GetPlayerAircraft@SimulationDriver@@QBEPAVAircraftClass@@XZ ; SimulationDriver::GetPlayerAircraft
	cmp	DWORD PTR [eax+1796], 0
	jne	SHORT $LN2@ATCRequest

; 189  :    {
; 190  :       MenuSendAtc (FalconATCMessage::RequestClearance);

	push	1
	push	0
	call	?MenuSendAtc@@YAXHH@Z			; MenuSendAtc
	add	esp, 8
$LN2@ATCRequest:

; 191  :    }
; 192  : }

	pop	ebp
	ret	0
?ATCRequestClearance@@YAXKHPAX@Z ENDP			; ATCRequestClearance
_TEXT	ENDS
; Function compile flags: /Odtp
; File c:\users\zhitao li\documents\visual studio 2012\projects\freefalcon\sim\siminput\radiocmds.cpp
_TEXT	SEGMENT
_val$ = 8						; size = 4
_state$ = 12						; size = 4
___formal$ = 16						; size = 4
?RadioFlightCommand@@YAXKHPAX@Z PROC			; RadioFlightCommand

; 179  : {

	push	ebp
	mov	ebp, esp

; 180  : 	if (state & KEY_DOWN && SimDriver.GetPlayerAircraft() && SimDriver.GetPlayerAircraft()->IsSetFlag( MOTION_OWNSHIP ) && !((AircraftClass*)SimDriver.GetPlayerAircraft())->ejectTriggered) {

	mov	eax, DWORD PTR _state$[ebp]
	and	eax, 8
	je	SHORT $LN2@RadioFligh
	mov	ecx, OFFSET ?SimDriver@@3VSimulationDriver@@A ; SimDriver
	call	?GetPlayerAircraft@SimulationDriver@@QBEPAVAircraftClass@@XZ ; SimulationDriver::GetPlayerAircraft
	test	eax, eax
	je	SHORT $LN2@RadioFligh
	push	65536					; 00010000H
	mov	ecx, OFFSET ?SimDriver@@3VSimulationDriver@@A ; SimDriver
	call	?GetPlayerAircraft@SimulationDriver@@QBEPAVAircraftClass@@XZ ; SimulationDriver::GetPlayerAircraft
	mov	ecx, eax
	call	?IsSetFlag@SimBaseClass@@QBEHH@Z	; SimBaseClass::IsSetFlag
	test	eax, eax
	je	SHORT $LN2@RadioFligh
	mov	ecx, OFFSET ?SimDriver@@3VSimulationDriver@@A ; SimDriver
	call	?GetPlayerAircraft@SimulationDriver@@QBEPAVAircraftClass@@XZ ; SimulationDriver::GetPlayerAircraft
	cmp	DWORD PTR [eax+1796], 0
	jne	SHORT $LN2@RadioFligh

; 181  : 		OTWDriver.pMenuManager->ProcessInput(val, state, WingmanMsg, AiFlight);

	push	2
	push	38					; 00000026H
	mov	ecx, DWORD PTR _state$[ebp]
	push	ecx
	mov	edx, DWORD PTR _val$[ebp]
	push	edx
	mov	ecx, DWORD PTR ?OTWDriver@@3VOTWDriverClass@@A+33676
	call	?ProcessInput@MenuManager@@QAEXKHHH@Z	; MenuManager::ProcessInput
$LN2@RadioFligh:

; 182  : 	}
; 183  : }

	pop	ebp
	ret	0
?RadioFlightCommand@@YAXKHPAX@Z ENDP			; RadioFlightCommand
_TEXT	ENDS
; Function compile flags: /Odtp
; File c:\users\zhitao li\documents\visual studio 2012\projects\freefalcon\sim\siminput\radiocmds.cpp
_TEXT	SEGMENT
_val$ = 8						; size = 4
_state$ = 12						; size = 4
___formal$ = 16						; size = 4
?RadioElementCommand@@YAXKHPAX@Z PROC			; RadioElementCommand

; 171  : {

	push	ebp
	mov	ebp, esp

; 172  : 	if (state & KEY_DOWN && SimDriver.GetPlayerAircraft() && SimDriver.GetPlayerAircraft()->IsSetFlag( MOTION_OWNSHIP ) && !((AircraftClass*)SimDriver.GetPlayerAircraft())->ejectTriggered) {

	mov	eax, DWORD PTR _state$[ebp]
	and	eax, 8
	je	SHORT $LN2@RadioEleme
	mov	ecx, OFFSET ?SimDriver@@3VSimulationDriver@@A ; SimDriver
	call	?GetPlayerAircraft@SimulationDriver@@QBEPAVAircraftClass@@XZ ; SimulationDriver::GetPlayerAircraft
	test	eax, eax
	je	SHORT $LN2@RadioEleme
	push	65536					; 00010000H
	mov	ecx, OFFSET ?SimDriver@@3VSimulationDriver@@A ; SimDriver
	call	?GetPlayerAircraft@SimulationDriver@@QBEPAVAircraftClass@@XZ ; SimulationDriver::GetPlayerAircraft
	mov	ecx, eax
	call	?IsSetFlag@SimBaseClass@@QBEHH@Z	; SimBaseClass::IsSetFlag
	test	eax, eax
	je	SHORT $LN2@RadioEleme
	mov	ecx, OFFSET ?SimDriver@@3VSimulationDriver@@A ; SimDriver
	call	?GetPlayerAircraft@SimulationDriver@@QBEPAVAircraftClass@@XZ ; SimulationDriver::GetPlayerAircraft
	cmp	DWORD PTR [eax+1796], 0
	jne	SHORT $LN2@RadioEleme

; 173  : 		OTWDriver.pMenuManager->ProcessInput(val, state, WingmanMsg, AiElement);

	push	1
	push	38					; 00000026H
	mov	ecx, DWORD PTR _state$[ebp]
	push	ecx
	mov	edx, DWORD PTR _val$[ebp]
	push	edx
	mov	ecx, DWORD PTR ?OTWDriver@@3VOTWDriverClass@@A+33676
	call	?ProcessInput@MenuManager@@QAEXKHHH@Z	; MenuManager::ProcessInput
$LN2@RadioEleme:

; 174  : 	}
; 175  : }

	pop	ebp
	ret	0
?RadioElementCommand@@YAXKHPAX@Z ENDP			; RadioElementCommand
_TEXT	ENDS
; Function compile flags: /Odtp
; File c:\users\zhitao li\documents\visual studio 2012\projects\freefalcon\sim\siminput\radiocmds.cpp
_TEXT	SEGMENT
_val$ = 8						; size = 4
_state$ = 12						; size = 4
___formal$ = 16						; size = 4
?RadioWingCommand@@YAXKHPAX@Z PROC			; RadioWingCommand

; 163  : {

	push	ebp
	mov	ebp, esp

; 164  : 	if (state & KEY_DOWN && SimDriver.GetPlayerAircraft() && SimDriver.GetPlayerAircraft()->IsSetFlag( MOTION_OWNSHIP ) && !((AircraftClass*)SimDriver.GetPlayerAircraft())->ejectTriggered) {

	mov	eax, DWORD PTR _state$[ebp]
	and	eax, 8
	je	SHORT $LN2@RadioWingC
	mov	ecx, OFFSET ?SimDriver@@3VSimulationDriver@@A ; SimDriver
	call	?GetPlayerAircraft@SimulationDriver@@QBEPAVAircraftClass@@XZ ; SimulationDriver::GetPlayerAircraft
	test	eax, eax
	je	SHORT $LN2@RadioWingC
	push	65536					; 00010000H
	mov	ecx, OFFSET ?SimDriver@@3VSimulationDriver@@A ; SimDriver
	call	?GetPlayerAircraft@SimulationDriver@@QBEPAVAircraftClass@@XZ ; SimulationDriver::GetPlayerAircraft
	mov	ecx, eax
	call	?IsSetFlag@SimBaseClass@@QBEHH@Z	; SimBaseClass::IsSetFlag
	test	eax, eax
	je	SHORT $LN2@RadioWingC
	mov	ecx, OFFSET ?SimDriver@@3VSimulationDriver@@A ; SimDriver
	call	?GetPlayerAircraft@SimulationDriver@@QBEPAVAircraftClass@@XZ ; SimulationDriver::GetPlayerAircraft
	cmp	DWORD PTR [eax+1796], 0
	jne	SHORT $LN2@RadioWingC

; 165  : 		OTWDriver.pMenuManager->ProcessInput(val, state, WingmanMsg, AiWingman);

	push	0
	push	38					; 00000026H
	mov	ecx, DWORD PTR _state$[ebp]
	push	ecx
	mov	edx, DWORD PTR _val$[ebp]
	push	edx
	mov	ecx, DWORD PTR ?OTWDriver@@3VOTWDriverClass@@A+33676
	call	?ProcessInput@MenuManager@@QAEXKHHH@Z	; MenuManager::ProcessInput
$LN2@RadioWingC:

; 166  : 	}
; 167  : }

	pop	ebp
	ret	0
?RadioWingCommand@@YAXKHPAX@Z ENDP			; RadioWingCommand
_TEXT	ENDS
; Function compile flags: /Odtp
; File c:\users\zhitao li\documents\visual studio 2012\projects\freefalcon\sim\siminput\radiocmds.cpp
_TEXT	SEGMENT
_val$ = 8						; size = 4
_state$ = 12						; size = 4
___formal$ = 16						; size = 4
?RadioAWACSCommand@@YAXKHPAX@Z PROC			; RadioAWACSCommand

; 155  : {

	push	ebp
	mov	ebp, esp

; 156  : 	if (state & KEY_DOWN && SimDriver.GetPlayerAircraft() && SimDriver.GetPlayerAircraft()->IsSetFlag( MOTION_OWNSHIP ) && !((AircraftClass*)SimDriver.GetPlayerAircraft())->ejectTriggered) {

	mov	eax, DWORD PTR _state$[ebp]
	and	eax, 8
	je	SHORT $LN2@RadioAWACS
	mov	ecx, OFFSET ?SimDriver@@3VSimulationDriver@@A ; SimDriver
	call	?GetPlayerAircraft@SimulationDriver@@QBEPAVAircraftClass@@XZ ; SimulationDriver::GetPlayerAircraft
	test	eax, eax
	je	SHORT $LN2@RadioAWACS
	push	65536					; 00010000H
	mov	ecx, OFFSET ?SimDriver@@3VSimulationDriver@@A ; SimDriver
	call	?GetPlayerAircraft@SimulationDriver@@QBEPAVAircraftClass@@XZ ; SimulationDriver::GetPlayerAircraft
	mov	ecx, eax
	call	?IsSetFlag@SimBaseClass@@QBEHH@Z	; SimBaseClass::IsSetFlag
	test	eax, eax
	je	SHORT $LN2@RadioAWACS
	mov	ecx, OFFSET ?SimDriver@@3VSimulationDriver@@A ; SimDriver
	call	?GetPlayerAircraft@SimulationDriver@@QBEPAVAircraftClass@@XZ ; SimulationDriver::GetPlayerAircraft
	cmp	DWORD PTR [eax+1796], 0
	jne	SHORT $LN2@RadioAWACS

; 157  : 		OTWDriver.pMenuManager->ProcessInput(val, state, AWACSMsg);

	push	6
	push	45					; 0000002dH
	mov	ecx, DWORD PTR _state$[ebp]
	push	ecx
	mov	edx, DWORD PTR _val$[ebp]
	push	edx
	mov	ecx, DWORD PTR ?OTWDriver@@3VOTWDriverClass@@A+33676
	call	?ProcessInput@MenuManager@@QAEXKHHH@Z	; MenuManager::ProcessInput
$LN2@RadioAWACS:

; 158  : 	}
; 159  : }

	pop	ebp
	ret	0
?RadioAWACSCommand@@YAXKHPAX@Z ENDP			; RadioAWACSCommand
_TEXT	ENDS
; Function compile flags: /Odtp
; File c:\users\zhitao li\documents\visual studio 2012\projects\freefalcon\sim\siminput\radiocmds.cpp
_TEXT	SEGMENT
_val$ = 8						; size = 4
_state$ = 12						; size = 4
___formal$ = 16						; size = 4
?RadioTowerCommand@@YAXKHPAX@Z PROC			; RadioTowerCommand

; 148  : {

	push	ebp
	mov	ebp, esp

; 149  : 	if (state & KEY_DOWN && SimDriver.GetPlayerAircraft() && SimDriver.GetPlayerAircraft()->IsSetFlag( MOTION_OWNSHIP ) && !((AircraftClass*)SimDriver.GetPlayerAircraft())->ejectTriggered) {

	mov	eax, DWORD PTR _state$[ebp]
	and	eax, 8
	je	SHORT $LN2@RadioTower
	mov	ecx, OFFSET ?SimDriver@@3VSimulationDriver@@A ; SimDriver
	call	?GetPlayerAircraft@SimulationDriver@@QBEPAVAircraftClass@@XZ ; SimulationDriver::GetPlayerAircraft
	test	eax, eax
	je	SHORT $LN2@RadioTower
	push	65536					; 00010000H
	mov	ecx, OFFSET ?SimDriver@@3VSimulationDriver@@A ; SimDriver
	call	?GetPlayerAircraft@SimulationDriver@@QBEPAVAircraftClass@@XZ ; SimulationDriver::GetPlayerAircraft
	mov	ecx, eax
	call	?IsSetFlag@SimBaseClass@@QBEHH@Z	; SimBaseClass::IsSetFlag
	test	eax, eax
	je	SHORT $LN2@RadioTower
	mov	ecx, OFFSET ?SimDriver@@3VSimulationDriver@@A ; SimDriver
	call	?GetPlayerAircraft@SimulationDriver@@QBEPAVAircraftClass@@XZ ; SimulationDriver::GetPlayerAircraft
	cmp	DWORD PTR [eax+1796], 0
	jne	SHORT $LN2@RadioTower

; 150  : 		OTWDriver.pMenuManager->ProcessInput(val, state, ATCMsg);

	push	6
	push	47					; 0000002fH
	mov	ecx, DWORD PTR _state$[ebp]
	push	ecx
	mov	edx, DWORD PTR _val$[ebp]
	push	edx
	mov	ecx, DWORD PTR ?OTWDriver@@3VOTWDriverClass@@A+33676
	call	?ProcessInput@MenuManager@@QAEXKHHH@Z	; MenuManager::ProcessInput
$LN2@RadioTower:

; 151  : 	}
; 152  : }

	pop	ebp
	ret	0
?RadioTowerCommand@@YAXKHPAX@Z ENDP			; RadioTowerCommand
_TEXT	ENDS
; Function compile flags: /Odtp
; File c:\users\zhitao li\documents\visual studio 2012\projects\freefalcon\sim\siminput\radiocmds.cpp
_TEXT	SEGMENT
_val$ = 8						; size = 4
_state$ = 12						; size = 4
___formal$ = 16						; size = 4
?RadioTankerCommand@@YAXKHPAX@Z PROC			; RadioTankerCommand

; 140  : {

	push	ebp
	mov	ebp, esp

; 141  : 	if (state & KEY_DOWN && SimDriver.GetPlayerAircraft() && SimDriver.GetPlayerAircraft()->IsSetFlag( MOTION_OWNSHIP ) && !((AircraftClass*)SimDriver.GetPlayerAircraft())->ejectTriggered) 

	mov	eax, DWORD PTR _state$[ebp]
	and	eax, 8
	je	SHORT $LN2@RadioTanke
	mov	ecx, OFFSET ?SimDriver@@3VSimulationDriver@@A ; SimDriver
	call	?GetPlayerAircraft@SimulationDriver@@QBEPAVAircraftClass@@XZ ; SimulationDriver::GetPlayerAircraft
	test	eax, eax
	je	SHORT $LN2@RadioTanke
	push	65536					; 00010000H
	mov	ecx, OFFSET ?SimDriver@@3VSimulationDriver@@A ; SimDriver
	call	?GetPlayerAircraft@SimulationDriver@@QBEPAVAircraftClass@@XZ ; SimulationDriver::GetPlayerAircraft
	mov	ecx, eax
	call	?IsSetFlag@SimBaseClass@@QBEHH@Z	; SimBaseClass::IsSetFlag
	test	eax, eax
	je	SHORT $LN2@RadioTanke
	mov	ecx, OFFSET ?SimDriver@@3VSimulationDriver@@A ; SimDriver
	call	?GetPlayerAircraft@SimulationDriver@@QBEPAVAircraftClass@@XZ ; SimulationDriver::GetPlayerAircraft
	cmp	DWORD PTR [eax+1796], 0
	jne	SHORT $LN2@RadioTanke

; 142  : 	{
; 143  : 		OTWDriver.pMenuManager->ProcessInput(val, state, TankerMsg);

	push	6
	push	64					; 00000040H
	mov	ecx, DWORD PTR _state$[ebp]
	push	ecx
	mov	edx, DWORD PTR _val$[ebp]
	push	edx
	mov	ecx, DWORD PTR ?OTWDriver@@3VOTWDriverClass@@A+33676
	call	?ProcessInput@MenuManager@@QAEXKHHH@Z	; MenuManager::ProcessInput
$LN2@RadioTanke:

; 144  : 	}
; 145  : }

	pop	ebp
	ret	0
?RadioTankerCommand@@YAXKHPAX@Z ENDP			; RadioTankerCommand
_TEXT	ENDS
; Function compile flags: /Odtp
; File c:\users\zhitao li\documents\visual studio 2012\projects\freefalcon\sim\siminput\radiocmds.cpp
_TEXT	SEGMENT
___formal$ = 8						; size = 4
_state$ = 12						; size = 4
___formal$ = 16						; size = 4
?SimToggleRadioVolume@@YAXKHPAX@Z PROC			; SimToggleRadioVolume

; 132  : void SimToggleRadioVolume(unsigned long, int state, void*) {

	push	ebp
	mov	ebp, esp

; 133  : 	if (state & KEY_DOWN && SimDriver.GetPlayerAircraft() && SimDriver.GetPlayerAircraft()->IsSetFlag( MOTION_OWNSHIP ) && !((AircraftClass*)SimDriver.GetPlayerAircraft())->ejectTriggered) 

	mov	eax, DWORD PTR _state$[ebp]
	and	eax, 8
	je	SHORT $LN2@SimToggleR
	mov	ecx, OFFSET ?SimDriver@@3VSimulationDriver@@A ; SimDriver
	call	?GetPlayerAircraft@SimulationDriver@@QBEPAVAircraftClass@@XZ ; SimulationDriver::GetPlayerAircraft
	test	eax, eax
	je	SHORT $LN2@SimToggleR
	push	65536					; 00010000H
	mov	ecx, OFFSET ?SimDriver@@3VSimulationDriver@@A ; SimDriver
	call	?GetPlayerAircraft@SimulationDriver@@QBEPAVAircraftClass@@XZ ; SimulationDriver::GetPlayerAircraft
	mov	ecx, eax
	call	?IsSetFlag@SimBaseClass@@QBEHH@Z	; SimBaseClass::IsSetFlag
	test	eax, eax
	je	SHORT $LN2@SimToggleR
	mov	ecx, OFFSET ?SimDriver@@3VSimulationDriver@@A ; SimDriver
	call	?GetPlayerAircraft@SimulationDriver@@QBEPAVAircraftClass@@XZ ; SimulationDriver::GetPlayerAircraft
$LN2@SimToggleR:

; 134  : 	{
; 135  : 		//		SimDriver.GetPlayerAircraft()->Radio->ToggleVolume();
; 136  : 	}
; 137  : }

	pop	ebp
	ret	0
?SimToggleRadioVolume@@YAXKHPAX@Z ENDP			; SimToggleRadioVolume
_TEXT	ENDS
; Function compile flags: /Odtp
; File c:\users\zhitao li\documents\visual studio 2012\projects\freefalcon\sim\siminput\radiocmds.cpp
_TEXT	SEGMENT
_val$1 = -4						; size = 4
___formal$ = 8						; size = 4
_state$ = 12						; size = 4
___formal$ = 16						; size = 4
?SimDecRadioChannel@@YAXKHPAX@Z PROC			; SimDecRadioChannel

; 106  : void SimDecRadioChannel(unsigned long, int state, void*) {

	push	ebp
	mov	ebp, esp
	push	ecx

; 107  : 	if(!g_bRealisticAvionics)

	movzx	eax, BYTE PTR ?g_bRealisticAvionics@@3_NA ; g_bRealisticAvionics
	test	eax, eax
	jne	SHORT $LN5@SimDecRadi

; 108  : 		return;

	jmp	$LN6@SimDecRadi
$LN5@SimDecRadi:

; 109  : 
; 110  : 	if (state & KEY_DOWN && SimDriver.GetPlayerAircraft() && SimDriver.GetPlayerAircraft()->IsSetFlag( MOTION_OWNSHIP ) && !((AircraftClass*)SimDriver.GetPlayerAircraft())->ejectTriggered)

	mov	ecx, DWORD PTR _state$[ebp]
	and	ecx, 8
	je	$LN6@SimDecRadi
	mov	ecx, OFFSET ?SimDriver@@3VSimulationDriver@@A ; SimDriver
	call	?GetPlayerAircraft@SimulationDriver@@QBEPAVAircraftClass@@XZ ; SimulationDriver::GetPlayerAircraft
	test	eax, eax
	je	$LN6@SimDecRadi
	push	65536					; 00010000H
	mov	ecx, OFFSET ?SimDriver@@3VSimulationDriver@@A ; SimDriver
	call	?GetPlayerAircraft@SimulationDriver@@QBEPAVAircraftClass@@XZ ; SimulationDriver::GetPlayerAircraft
	mov	ecx, eax
	call	?IsSetFlag@SimBaseClass@@QBEHH@Z	; SimBaseClass::IsSetFlag
	test	eax, eax
	je	$LN6@SimDecRadi
	mov	ecx, OFFSET ?SimDriver@@3VSimulationDriver@@A ; SimDriver
	call	?GetPlayerAircraft@SimulationDriver@@QBEPAVAircraftClass@@XZ ; SimulationDriver::GetPlayerAircraft
	cmp	DWORD PTR [eax+1796], 0
	jne	$LN6@SimDecRadi

; 111  : 	{
; 112  : 		if (gNavigationSys->GetUHFSrc() == NavigationSystem::UHF_BACKUP) 

	mov	ecx, DWORD PTR ?gNavigationSys@@3PAVNavigationSystem@@A ; gNavigationSys
	call	?GetUHFSrc@NavigationSystem@@QAE?AW4UHF_Mode_Type@1@XZ ; NavigationSystem::GetUHFSrc
	cmp	eax, 1
	jne	$LN6@SimDecRadi

; 113  : 		{
; 114  : 			VM->BackwardCycleFreq(0);

	push	0
	mov	ecx, DWORD PTR ?VM@@3PAVVoiceManager@@A	; VM
	call	?BackwardCycleFreq@VoiceManager@@QAEXH@Z ; VoiceManager::BackwardCycleFreq

; 115  : 
; 116  : 			if(OTWDriver.pCockpitManager->mpIcp->IsICPSet(ICPClass::MODE_CNI) &&
; 117  : 				OTWDriver.pCockpitManager->mpIcp->GetICPSecondaryMode() == NONE_MODE)

	push	128					; 00000080H
	mov	edx, DWORD PTR ?OTWDriver@@3VOTWDriverClass@@A+33684
	mov	ecx, DWORD PTR [edx+688]
	call	?IsICPSet@ICPClass@@QAEHH@Z		; ICPClass::IsICPSet
	test	eax, eax
	je	SHORT $LN2@SimDecRadi
	mov	eax, DWORD PTR ?OTWDriver@@3VOTWDriverClass@@A+33684
	mov	ecx, DWORD PTR [eax+688]
	call	?GetICPSecondaryMode@ICPClass@@QAEJXZ	; ICPClass::GetICPSecondaryMode
	test	eax, eax
	jne	SHORT $LN2@SimDecRadi

; 118  : 			{
; 119  : 				OTWDriver.pCockpitManager->mpIcp->ClearStrings();

	mov	ecx, DWORD PTR ?OTWDriver@@3VOTWDriverClass@@A+33684
	mov	ecx, DWORD PTR [ecx+688]
	call	?ClearStrings@ICPClass@@QAEXXZ		; ICPClass::ClearStrings
$LN2@SimDecRadi:

; 120  : 			}
; 121  : 			OTWDriver.pCockpitManager->mpIcp->SetICPUpdateFlag(CNI_UPDATE);

	push	256					; 00000100H
	mov	edx, DWORD PTR ?OTWDriver@@3VOTWDriverClass@@A+33684
	mov	ecx, DWORD PTR [edx+688]
	call	?SetICPUpdateFlag@ICPClass@@QAEXH@Z	; ICPClass::SetICPUpdateFlag

; 122  : 			OTWDriver.pCockpitManager->mMiscStates.DecUHFPosition();

	mov	ecx, DWORD PTR ?OTWDriver@@3VOTWDriverClass@@A+33684
	add	ecx, 284				; 0000011cH
	call	?DecUHFPosition@CPMisc@@QAEXXZ		; CPMisc::DecUHFPosition

; 123  : 
; 124  : 			//int val = OTWDriver.pCockpitManager->mMiscStates.mUHFPosition +1;
; 125  : 			int val = 1<< OTWDriver.pCockpitManager->mMiscStates.mUHFPosition;

	mov	eax, DWORD PTR ?OTWDriver@@3VOTWDriverClass@@A+33684
	mov	edx, 1
	mov	ecx, DWORD PTR [eax+316]
	shl	edx, cl
	mov	DWORD PTR _val$1[ebp], edx

; 126  : 			if (OTWDriver.GetVirtualCockpit())

	mov	ecx, OFFSET ?OTWDriver@@3VOTWDriverClass@@A ; OTWDriver
	call	?GetVirtualCockpit@OTWDriverClass@@QAEPAVDrawableBSP@@XZ ; OTWDriverClass::GetVirtualCockpit
	test	eax, eax
	je	SHORT $LN6@SimDecRadi

; 127  : 				OTWDriver.GetVirtualCockpit()->SetSwitchMask( COMP_3DPIT_UHF_CH, val);

	mov	eax, DWORD PTR _val$1[ebp]
	push	eax
	push	168					; 000000a8H
	mov	ecx, OFFSET ?OTWDriver@@3VOTWDriverClass@@A ; OTWDriver
	call	?GetVirtualCockpit@OTWDriverClass@@QAEPAVDrawableBSP@@XZ ; OTWDriverClass::GetVirtualCockpit
	mov	ecx, eax
	call	?SetSwitchMask@DrawableBSP@@QAEXHK@Z	; DrawableBSP::SetSwitchMask
$LN6@SimDecRadi:

; 128  : 		}
; 129  : 	}
; 130  : }

	mov	esp, ebp
	pop	ebp
	ret	0
?SimDecRadioChannel@@YAXKHPAX@Z ENDP			; SimDecRadioChannel
_TEXT	ENDS
; Function compile flags: /Odtp
; File c:\users\zhitao li\documents\visual studio 2012\projects\freefalcon\sim\siminput\radiocmds.cpp
_TEXT	SEGMENT
_val$1 = -4						; size = 4
___formal$ = 8						; size = 4
_state$ = 12						; size = 4
___formal$ = 16						; size = 4
?SimCycleRadioChannel@@YAXKHPAX@Z PROC			; SimCycleRadioChannel

; 62   : void SimCycleRadioChannel(unsigned long, int state, void*) {

	push	ebp
	mov	ebp, esp
	push	ecx

; 63   : 	if (state & KEY_DOWN && SimDriver.GetPlayerAircraft() && SimDriver.GetPlayerAircraft()->IsSetFlag( MOTION_OWNSHIP ) && !((AircraftClass*)SimDriver.GetPlayerAircraft())->ejectTriggered)

	mov	eax, DWORD PTR _state$[ebp]
	and	eax, 8
	je	$LN9@SimCycleRa
	mov	ecx, OFFSET ?SimDriver@@3VSimulationDriver@@A ; SimDriver
	call	?GetPlayerAircraft@SimulationDriver@@QBEPAVAircraftClass@@XZ ; SimulationDriver::GetPlayerAircraft
	test	eax, eax
	je	$LN9@SimCycleRa
	push	65536					; 00010000H
	mov	ecx, OFFSET ?SimDriver@@3VSimulationDriver@@A ; SimDriver
	call	?GetPlayerAircraft@SimulationDriver@@QBEPAVAircraftClass@@XZ ; SimulationDriver::GetPlayerAircraft
	mov	ecx, eax
	call	?IsSetFlag@SimBaseClass@@QBEHH@Z	; SimBaseClass::IsSetFlag
	test	eax, eax
	je	$LN9@SimCycleRa
	mov	ecx, OFFSET ?SimDriver@@3VSimulationDriver@@A ; SimDriver
	call	?GetPlayerAircraft@SimulationDriver@@QBEPAVAircraftClass@@XZ ; SimulationDriver::GetPlayerAircraft
	cmp	DWORD PTR [eax+1796], 0
	jne	$LN9@SimCycleRa

; 64   : 	{
; 65   : 		if(!g_bRealisticAvionics) 

	movzx	ecx, BYTE PTR ?g_bRealisticAvionics@@3_NA ; g_bRealisticAvionics
	test	ecx, ecx
	jne	SHORT $LN7@SimCycleRa

; 66   : 		{
; 67   : 			if(OTWDriver.pCockpitManager->mpIcp->GetICPTertiaryMode() == COMM1_MODE) 

	mov	edx, DWORD PTR ?OTWDriver@@3VOTWDriverClass@@A+33684
	mov	ecx, DWORD PTR [edx+688]
	call	?GetICPTertiaryMode@ICPClass@@QAEJXZ	; ICPClass::GetICPTertiaryMode
	cmp	eax, 6
	jne	SHORT $LN6@SimCycleRa

; 68   : 			{
; 69   : 				VM->ForwardCycleFreq(0);

	push	0
	mov	ecx, DWORD PTR ?VM@@3PAVVoiceManager@@A	; VM
	call	?ForwardCycleFreq@VoiceManager@@QAEXH@Z	; VoiceManager::ForwardCycleFreq

; 70   : 			}
; 71   : 			else 

	jmp	SHORT $LN5@SimCycleRa
$LN6@SimCycleRa:

; 72   : 			{
; 73   : 				VM->ForwardCycleFreq(1);

	push	1
	mov	ecx, DWORD PTR ?VM@@3PAVVoiceManager@@A	; VM
	call	?ForwardCycleFreq@VoiceManager@@QAEXH@Z	; VoiceManager::ForwardCycleFreq
$LN5@SimCycleRa:

; 74   : 			}
; 75   : 			OTWDriver.pCockpitManager->mpIcp->SetICPUpdateFlag(CNI_UPDATE);

	push	256					; 00000100H
	mov	eax, DWORD PTR ?OTWDriver@@3VOTWDriverClass@@A+33684
	mov	ecx, DWORD PTR [eax+688]
	call	?SetICPUpdateFlag@ICPClass@@QAEXH@Z	; ICPClass::SetICPUpdateFlag

; 76   : 			OTWDriver.pCockpitManager->mMiscStates.StepUHFPostion();

	mov	ecx, DWORD PTR ?OTWDriver@@3VOTWDriverClass@@A+33684
	add	ecx, 284				; 0000011cH
	call	?StepUHFPostion@CPMisc@@QAEXXZ		; CPMisc::StepUHFPostion

; 77   : 		}
; 78   : 		else

	jmp	$LN9@SimCycleRa
$LN7@SimCycleRa:

; 79   : 			if (gNavigationSys->GetUHFSrc() == NavigationSystem::UHF_BACKUP) 

	mov	ecx, DWORD PTR ?gNavigationSys@@3PAVNavigationSystem@@A ; gNavigationSys
	call	?GetUHFSrc@NavigationSystem@@QAE?AW4UHF_Mode_Type@1@XZ ; NavigationSystem::GetUHFSrc
	cmp	eax, 1
	jne	$LN9@SimCycleRa

; 80   : 			{
; 81   : 				VM->ForwardCycleFreq(0);

	push	0
	mov	ecx, DWORD PTR ?VM@@3PAVVoiceManager@@A	; VM
	call	?ForwardCycleFreq@VoiceManager@@QAEXH@Z	; VoiceManager::ForwardCycleFreq

; 82   : 
; 83   : 				if(OTWDriver.pCockpitManager->mpIcp->IsICPSet(ICPClass::MODE_CNI) &&
; 84   : 					OTWDriver.pCockpitManager->mpIcp->GetICPSecondaryMode() == NONE_MODE)

	push	128					; 00000080H
	mov	ecx, DWORD PTR ?OTWDriver@@3VOTWDriverClass@@A+33684
	mov	ecx, DWORD PTR [ecx+688]
	call	?IsICPSet@ICPClass@@QAEHH@Z		; ICPClass::IsICPSet
	test	eax, eax
	je	SHORT $LN2@SimCycleRa
	mov	edx, DWORD PTR ?OTWDriver@@3VOTWDriverClass@@A+33684
	mov	ecx, DWORD PTR [edx+688]
	call	?GetICPSecondaryMode@ICPClass@@QAEJXZ	; ICPClass::GetICPSecondaryMode
	test	eax, eax
	jne	SHORT $LN2@SimCycleRa

; 85   : 				{
; 86   : 					OTWDriver.pCockpitManager->mpIcp->ClearStrings();

	mov	eax, DWORD PTR ?OTWDriver@@3VOTWDriverClass@@A+33684
	mov	ecx, DWORD PTR [eax+688]
	call	?ClearStrings@ICPClass@@QAEXXZ		; ICPClass::ClearStrings
$LN2@SimCycleRa:

; 87   : 				}
; 88   : 
; 89   : 				OTWDriver.pCockpitManager->mpIcp->SetICPUpdateFlag(CNI_UPDATE);

	push	256					; 00000100H
	mov	ecx, DWORD PTR ?OTWDriver@@3VOTWDriverClass@@A+33684
	mov	ecx, DWORD PTR [ecx+688]
	call	?SetICPUpdateFlag@ICPClass@@QAEXH@Z	; ICPClass::SetICPUpdateFlag

; 90   : 				OTWDriver.pCockpitManager->mMiscStates.StepUHFPostion();

	mov	ecx, DWORD PTR ?OTWDriver@@3VOTWDriverClass@@A+33684
	add	ecx, 284				; 0000011cH
	call	?StepUHFPostion@CPMisc@@QAEXXZ		; CPMisc::StepUHFPostion

; 91   : 
; 92   : 				//int val = OTWDriver.pCockpitManager->mMiscStates.mUHFPosition +1;
; 93   : 				int val = 1<< OTWDriver.pCockpitManager->mMiscStates.mUHFPosition;

	mov	edx, DWORD PTR ?OTWDriver@@3VOTWDriverClass@@A+33684
	mov	eax, 1
	mov	ecx, DWORD PTR [edx+316]
	shl	eax, cl
	mov	DWORD PTR _val$1[ebp], eax

; 94   : 				if (OTWDriver.GetVirtualCockpit())

	mov	ecx, OFFSET ?OTWDriver@@3VOTWDriverClass@@A ; OTWDriver
	call	?GetVirtualCockpit@OTWDriverClass@@QAEPAVDrawableBSP@@XZ ; OTWDriverClass::GetVirtualCockpit
	test	eax, eax
	je	SHORT $LN9@SimCycleRa

; 95   : 					OTWDriver.GetVirtualCockpit()->SetSwitchMask( COMP_3DPIT_UHF_CH, val);

	mov	ecx, DWORD PTR _val$1[ebp]
	push	ecx
	push	168					; 000000a8H
	mov	ecx, OFFSET ?OTWDriver@@3VOTWDriverClass@@A ; OTWDriver
	call	?GetVirtualCockpit@OTWDriverClass@@QAEPAVDrawableBSP@@XZ ; OTWDriverClass::GetVirtualCockpit
	mov	ecx, eax
	call	?SetSwitchMask@DrawableBSP@@QAEXHK@Z	; DrawableBSP::SetSwitchMask
$LN9@SimCycleRa:

; 96   : 			}
; 97   : 	}
; 98   : }

	mov	esp, ebp
	pop	ebp
	ret	0
?SimCycleRadioChannel@@YAXKHPAX@Z ENDP			; SimCycleRadioChannel
_TEXT	ENDS
; Function compile flags: /Odtp
; File c:\users\zhitao li\documents\visual studio 2012\projects\freefalcon\sim\siminput\radiocmds.cpp
_TEXT	SEGMENT
_val$ = 8						; size = 4
_state$ = 12						; size = 4
___formal$ = 16						; size = 4
?RadioMessageSend@@YAXKHPAX@Z PROC			; RadioMessageSend

; 48   : {

	push	ebp
	mov	ebp, esp

; 49   : 	if (state & KEY_DOWN && SimDriver.GetPlayerAircraft() && SimDriver.GetPlayerAircraft()->IsSetFlag( MOTION_OWNSHIP ) && !((AircraftClass*)SimDriver.GetPlayerAircraft())->ejectTriggered)

	mov	eax, DWORD PTR _state$[ebp]
	and	eax, 8
	je	SHORT $LN2@RadioMessa
	mov	ecx, OFFSET ?SimDriver@@3VSimulationDriver@@A ; SimDriver
	call	?GetPlayerAircraft@SimulationDriver@@QBEPAVAircraftClass@@XZ ; SimulationDriver::GetPlayerAircraft
	test	eax, eax
	je	SHORT $LN2@RadioMessa
	push	65536					; 00010000H
	mov	ecx, OFFSET ?SimDriver@@3VSimulationDriver@@A ; SimDriver
	call	?GetPlayerAircraft@SimulationDriver@@QBEPAVAircraftClass@@XZ ; SimulationDriver::GetPlayerAircraft
	mov	ecx, eax
	call	?IsSetFlag@SimBaseClass@@QBEHH@Z	; SimBaseClass::IsSetFlag
	test	eax, eax
	je	SHORT $LN2@RadioMessa
	mov	ecx, OFFSET ?SimDriver@@3VSimulationDriver@@A ; SimDriver
	call	?GetPlayerAircraft@SimulationDriver@@QBEPAVAircraftClass@@XZ ; SimulationDriver::GetPlayerAircraft
	cmp	DWORD PTR [eax+1796], 0
	jne	SHORT $LN2@RadioMessa

; 50   : 	{
; 51   : 		OTWDriver.pMenuManager->ProcessInput(val, state, 0);

	push	6
	push	0
	mov	ecx, DWORD PTR _state$[ebp]
	push	ecx
	mov	edx, DWORD PTR _val$[ebp]
	push	edx
	mov	ecx, DWORD PTR ?OTWDriver@@3VOTWDriverClass@@A+33676
	call	?ProcessInput@MenuManager@@QAEXKHHH@Z	; MenuManager::ProcessInput
$LN2@RadioMessa:

; 52   : 	}
; 53   : }

	pop	ebp
	ret	0
?RadioMessageSend@@YAXKHPAX@Z ENDP			; RadioMessageSend
_TEXT	ENDS
; Function compile flags: /Odtp
; File c:\users\zhitao li\documents\visual studio 2012\projects\freefalcon\sim\siminput\radiocmds.cpp
_TEXT	SEGMENT
___formal$ = 8						; size = 4
_state$ = 12						; size = 4
___formal$ = 16						; size = 4
?OTWRadioMenuStepBack@@YAXKHPAX@Z PROC			; OTWRadioMenuStepBack

; 39   : {

	push	ebp
	mov	ebp, esp

; 40   : 	if (state & KEY_DOWN && SimDriver.GetPlayerAircraft() && SimDriver.GetPlayerAircraft()->IsSetFlag( MOTION_OWNSHIP ) && !((AircraftClass*)SimDriver.GetPlayerAircraft())->ejectTriggered)

	mov	eax, DWORD PTR _state$[ebp]
	and	eax, 8
	je	SHORT $LN2@OTWRadioMe
	mov	ecx, OFFSET ?SimDriver@@3VSimulationDriver@@A ; SimDriver
	call	?GetPlayerAircraft@SimulationDriver@@QBEPAVAircraftClass@@XZ ; SimulationDriver::GetPlayerAircraft
	test	eax, eax
	je	SHORT $LN2@OTWRadioMe
	push	65536					; 00010000H
	mov	ecx, OFFSET ?SimDriver@@3VSimulationDriver@@A ; SimDriver
	call	?GetPlayerAircraft@SimulationDriver@@QBEPAVAircraftClass@@XZ ; SimulationDriver::GetPlayerAircraft
	mov	ecx, eax
	call	?IsSetFlag@SimBaseClass@@QBEHH@Z	; SimBaseClass::IsSetFlag
	test	eax, eax
	je	SHORT $LN2@OTWRadioMe
	mov	ecx, OFFSET ?SimDriver@@3VSimulationDriver@@A ; SimDriver
	call	?GetPlayerAircraft@SimulationDriver@@QBEPAVAircraftClass@@XZ ; SimulationDriver::GetPlayerAircraft
	cmp	DWORD PTR [eax+1796], 0
	jne	SHORT $LN2@OTWRadioMe

; 41   : 	{
; 42   : 		OTWDriver.pMenuManager->StepPrevPage(state);

	mov	ecx, DWORD PTR _state$[ebp]
	push	ecx
	mov	ecx, DWORD PTR ?OTWDriver@@3VOTWDriverClass@@A+33676
	call	?StepPrevPage@MenuManager@@QAEXH@Z	; MenuManager::StepPrevPage
$LN2@OTWRadioMe:

; 43   : 	}
; 44   : }

	pop	ebp
	ret	0
?OTWRadioMenuStepBack@@YAXKHPAX@Z ENDP			; OTWRadioMenuStepBack
_TEXT	ENDS
; Function compile flags: /Odtp
; File c:\users\zhitao li\documents\visual studio 2012\projects\freefalcon\sim\siminput\radiocmds.cpp
_TEXT	SEGMENT
___formal$ = 8						; size = 4
_state$ = 12						; size = 4
___formal$ = 16						; size = 4
?OTWRadioMenuStep@@YAXKHPAX@Z PROC			; OTWRadioMenuStep

; 31   : {

	push	ebp
	mov	ebp, esp

; 32   : 	if (state & KEY_DOWN && SimDriver.GetPlayerAircraft() && SimDriver.GetPlayerAircraft()->IsSetFlag( MOTION_OWNSHIP ) && !((AircraftClass*)SimDriver.GetPlayerAircraft())->ejectTriggered)

	mov	eax, DWORD PTR _state$[ebp]
	and	eax, 8
	je	SHORT $LN2@OTWRadioMe
	mov	ecx, OFFSET ?SimDriver@@3VSimulationDriver@@A ; SimDriver
	call	?GetPlayerAircraft@SimulationDriver@@QBEPAVAircraftClass@@XZ ; SimulationDriver::GetPlayerAircraft
	test	eax, eax
	je	SHORT $LN2@OTWRadioMe
	push	65536					; 00010000H
	mov	ecx, OFFSET ?SimDriver@@3VSimulationDriver@@A ; SimDriver
	call	?GetPlayerAircraft@SimulationDriver@@QBEPAVAircraftClass@@XZ ; SimulationDriver::GetPlayerAircraft
	mov	ecx, eax
	call	?IsSetFlag@SimBaseClass@@QBEHH@Z	; SimBaseClass::IsSetFlag
	test	eax, eax
	je	SHORT $LN2@OTWRadioMe
	mov	ecx, OFFSET ?SimDriver@@3VSimulationDriver@@A ; SimDriver
	call	?GetPlayerAircraft@SimulationDriver@@QBEPAVAircraftClass@@XZ ; SimulationDriver::GetPlayerAircraft
	cmp	DWORD PTR [eax+1796], 0
	jne	SHORT $LN2@OTWRadioMe

; 33   : 	{
; 34   : 		OTWDriver.pMenuManager->StepNextPage(state);

	mov	ecx, DWORD PTR _state$[ebp]
	push	ecx
	mov	ecx, DWORD PTR ?OTWDriver@@3VOTWDriverClass@@A+33676
	call	?StepNextPage@MenuManager@@QAEXH@Z	; MenuManager::StepNextPage
$LN2@OTWRadioMe:

; 35   : 	}
; 36   : }

	pop	ebp
	ret	0
?OTWRadioMenuStep@@YAXKHPAX@Z ENDP			; OTWRadioMenuStep
_TEXT	ENDS
; Function compile flags: /Odtp
; File c:\program files (x86)\microsoft visual studio 11.0\vc\include\xstring
;	COMDAT ?_Xran@?$basic_string@DU?$char_traits@D@std@@V?$allocator@D@2@@std@@QBEXXZ
_TEXT	SEGMENT
_this$ = -4						; size = 4
?_Xran@?$basic_string@DU?$char_traits@D@std@@V?$allocator@D@2@@std@@QBEXXZ PROC ; std::basic_string<char,std::char_traits<char>,std::allocator<char> >::_Xran, COMDAT
; _this$ = ecx

; 2275 : 		{	// report an out_of_range error

	push	ebp
	mov	ebp, esp
	push	ecx
	mov	DWORD PTR _this$[ebp], ecx

; 2276 : 		_Xout_of_range("invalid string position");

	push	OFFSET ??_C@_0BI@CFPLBAOH@invalid?5string?5position?$AA@
	call	?_Xout_of_range@std@@YAXPBD@Z		; std::_Xout_of_range
$LN2@Xran:

; 2277 : 		}

	mov	esp, ebp
	pop	ebp
	ret	0
?_Xran@?$basic_string@DU?$char_traits@D@std@@V?$allocator@D@2@@std@@QBEXXZ ENDP ; std::basic_string<char,std::char_traits<char>,std::allocator<char> >::_Xran
_TEXT	ENDS
; Function compile flags: /Odtp
; File c:\program files (x86)\microsoft visual studio 11.0\vc\include\xstring
;	COMDAT ?_Xlen@?$basic_string@DU?$char_traits@D@std@@V?$allocator@D@2@@std@@QBEXXZ
_TEXT	SEGMENT
_this$ = -4						; size = 4
?_Xlen@?$basic_string@DU?$char_traits@D@std@@V?$allocator@D@2@@std@@QBEXXZ PROC ; std::basic_string<char,std::char_traits<char>,std::allocator<char> >::_Xlen, COMDAT
; _this$ = ecx

; 2270 : 		{	// report a length_error

	push	ebp
	mov	ebp, esp
	push	ecx
	mov	DWORD PTR _this$[ebp], ecx

; 2271 : 		_Xlength_error("string too long");

	push	OFFSET ??_C@_0BA@JFNIOLAK@string?5too?5long?$AA@
	call	?_Xlength_error@std@@YAXPBD@Z		; std::_Xlength_error
$LN2@Xlen:

; 2272 : 		}

	mov	esp, ebp
	pop	ebp
	ret	0
?_Xlen@?$basic_string@DU?$char_traits@D@std@@V?$allocator@D@2@@std@@QBEXXZ ENDP ; std::basic_string<char,std::char_traits<char>,std::allocator<char> >::_Xlen
_TEXT	ENDS
; Function compile flags: /Odtp
; File c:\program files (x86)\microsoft visual studio 11.0\vc\include\xstring
;	COMDAT ?_Tidy@?$basic_string@DU?$char_traits@D@std@@V?$allocator@D@2@@std@@QAEX_NI@Z
_TEXT	SEGMENT
__Ptr$1 = -12						; size = 4
_this$ = -8						; size = 4
$T2 = -2						; size = 1
$T3 = -1						; size = 1
__Built$ = 8						; size = 1
__Newsize$ = 12						; size = 4
?_Tidy@?$basic_string@DU?$char_traits@D@std@@V?$allocator@D@2@@std@@QAEX_NI@Z PROC ; std::basic_string<char,std::char_traits<char>,std::allocator<char> >::_Tidy, COMDAT
; _this$ = ecx

; 2253 : 		{	// initialize buffer, deallocating any storage

	push	ebp
	mov	ebp, esp
	sub	esp, 12					; 0000000cH
	mov	DWORD PTR _this$[ebp], ecx

; 2254 : 		if (!_Built)

	movzx	eax, BYTE PTR __Built$[ebp]
	test	eax, eax
	jne	SHORT $LN4@Tidy
	jmp	SHORT $LN3@Tidy
$LN4@Tidy:

; 2255 : 			;
; 2256 : 		else if (this->_BUF_SIZE <= this->_Myres)

	mov	ecx, DWORD PTR _this$[ebp]
	cmp	DWORD PTR [ecx+20], 16			; 00000010H
	jb	SHORT $LN3@Tidy

; 2257 : 			{	// copy any leftovers to small buffer and deallocate
; 2258 : 			pointer _Ptr = this->_Bx._Ptr;

	mov	edx, DWORD PTR _this$[ebp]
	mov	eax, DWORD PTR [edx]
	mov	DWORD PTR __Ptr$1[ebp], eax

; 2259 : 			this->_Getal().destroy(&this->_Bx._Ptr);

	mov	ecx, DWORD PTR _this$[ebp]
	push	ecx
	lea	edx, DWORD PTR $T3[ebp]
	push	edx
	mov	ecx, DWORD PTR _this$[ebp]
	call	?_Getal@?$_String_alloc@$0A@U?$_String_base_types@DV?$allocator@D@std@@@std@@@std@@QBE?AU?$_Wrap_alloc@V?$allocator@D@std@@@2@XZ ; std::_String_alloc<0,std::_String_base_types<char,std::allocator<char> > >::_Getal
	mov	ecx, eax
	call	??$destroy@PAD@?$_Wrap_alloc@V?$allocator@D@std@@@std@@QAEXPAPAD@Z ; std::_Wrap_alloc<std::allocator<char> >::destroy<char *>

; 2260 : 			if (0 < _Newsize)

	cmp	DWORD PTR __Newsize$[ebp], 0
	jbe	SHORT $LN1@Tidy

; 2261 : 				_Traits::copy(this->_Bx._Buf,
; 2262 : 					_STD addressof(*_Ptr), _Newsize);

	mov	eax, DWORD PTR __Newsize$[ebp]
	push	eax
	mov	ecx, DWORD PTR __Ptr$1[ebp]
	push	ecx
	call	??$addressof@D@std@@YAPADAAD@Z		; std::addressof<char>
	add	esp, 4
	push	eax
	mov	edx, DWORD PTR _this$[ebp]
	push	edx
	call	?copy@?$char_traits@D@std@@SAPADPADPBDI@Z ; std::char_traits<char>::copy
	add	esp, 12					; 0000000cH
$LN1@Tidy:

; 2263 : 			this->_Getal().deallocate(_Ptr, this->_Myres + 1);

	mov	eax, DWORD PTR _this$[ebp]
	mov	ecx, DWORD PTR [eax+20]
	add	ecx, 1
	push	ecx
	mov	edx, DWORD PTR __Ptr$1[ebp]
	push	edx
	lea	eax, DWORD PTR $T2[ebp]
	push	eax
	mov	ecx, DWORD PTR _this$[ebp]
	call	?_Getal@?$_String_alloc@$0A@U?$_String_base_types@DV?$allocator@D@std@@@std@@@std@@QBE?AU?$_Wrap_alloc@V?$allocator@D@std@@@2@XZ ; std::_String_alloc<0,std::_String_base_types<char,std::allocator<char> > >::_Getal
	mov	ecx, eax
	call	?deallocate@?$_Wrap_alloc@V?$allocator@D@std@@@std@@QAEXPADI@Z ; std::_Wrap_alloc<std::allocator<char> >::deallocate
$LN3@Tidy:

; 2264 : 			}
; 2265 : 		this->_Myres = this->_BUF_SIZE - 1;

	mov	ecx, DWORD PTR _this$[ebp]
	mov	DWORD PTR [ecx+20], 15			; 0000000fH

; 2266 : 		_Eos(_Newsize);

	mov	edx, DWORD PTR __Newsize$[ebp]
	push	edx
	mov	ecx, DWORD PTR _this$[ebp]
	call	?_Eos@?$basic_string@DU?$char_traits@D@std@@V?$allocator@D@2@@std@@QAEXI@Z ; std::basic_string<char,std::char_traits<char>,std::allocator<char> >::_Eos

; 2267 : 		}

	mov	esp, ebp
	pop	ebp
	ret	8
?_Tidy@?$basic_string@DU?$char_traits@D@std@@V?$allocator@D@2@@std@@QAEX_NI@Z ENDP ; std::basic_string<char,std::char_traits<char>,std::allocator<char> >::_Tidy
_TEXT	ENDS
; Function compile flags: /Odtp
; File c:\program files (x86)\microsoft visual studio 11.0\vc\include\xstring
;	COMDAT ?_Inside@?$basic_string@DU?$char_traits@D@std@@V?$allocator@D@2@@std@@QAE_NPBD@Z
_TEXT	SEGMENT
_this$ = -4						; size = 4
__Ptr$ = 8						; size = 4
?_Inside@?$basic_string@DU?$char_traits@D@std@@V?$allocator@D@2@@std@@QAE_NPBD@Z PROC ; std::basic_string<char,std::char_traits<char>,std::allocator<char> >::_Inside, COMDAT
; _this$ = ecx

; 2237 : 		{	// test if _Ptr points inside string

	push	ebp
	mov	ebp, esp
	push	ecx
	mov	DWORD PTR _this$[ebp], ecx

; 2238 : 		if (_Ptr == 0 || _Ptr < this->_Myptr()
; 2239 : 			|| this->_Myptr() + this->_Mysize <= _Ptr)

	cmp	DWORD PTR __Ptr$[ebp], 0
	je	SHORT $LN2@Inside
	mov	ecx, DWORD PTR _this$[ebp]
	call	?_Myptr@?$_String_val@U?$_Simple_types@D@std@@@std@@QAEPADXZ ; std::_String_val<std::_Simple_types<char> >::_Myptr
	cmp	DWORD PTR __Ptr$[ebp], eax
	jb	SHORT $LN2@Inside
	mov	ecx, DWORD PTR _this$[ebp]
	call	?_Myptr@?$_String_val@U?$_Simple_types@D@std@@@std@@QAEPADXZ ; std::_String_val<std::_Simple_types<char> >::_Myptr
	mov	ecx, DWORD PTR _this$[ebp]
	add	eax, DWORD PTR [ecx+16]
	cmp	eax, DWORD PTR __Ptr$[ebp]
	ja	SHORT $LN3@Inside
$LN2@Inside:

; 2240 : 			return (false);	// don't ask

	xor	al, al
	jmp	SHORT $LN4@Inside

; 2241 : 		else

	jmp	SHORT $LN4@Inside
$LN3@Inside:

; 2242 : 			return (true);

	mov	al, 1
$LN4@Inside:

; 2243 : 		}

	mov	esp, ebp
	pop	ebp
	ret	4
?_Inside@?$basic_string@DU?$char_traits@D@std@@V?$allocator@D@2@@std@@QAE_NPBD@Z ENDP ; std::basic_string<char,std::char_traits<char>,std::allocator<char> >::_Inside
_TEXT	ENDS
; Function compile flags: /Odtp
; File c:\program files (x86)\microsoft visual studio 11.0\vc\include\xstring
;	COMDAT ?_Grow@?$basic_string@DU?$char_traits@D@std@@V?$allocator@D@2@@std@@QAE_NI_N@Z
_TEXT	SEGMENT
tv136 = -12						; size = 4
tv129 = -8						; size = 4
_this$ = -4						; size = 4
__Newsize$ = 8						; size = 4
__Trim$ = 12						; size = 1
?_Grow@?$basic_string@DU?$char_traits@D@std@@V?$allocator@D@2@@std@@QAE_NI_N@Z PROC ; std::basic_string<char,std::char_traits<char>,std::allocator<char> >::_Grow, COMDAT
; _this$ = ecx

; 2223 : 		{	// ensure buffer is big enough, trim to size if _Trim is true

	push	ebp
	mov	ebp, esp
	sub	esp, 12					; 0000000cH
	mov	DWORD PTR _this$[ebp], ecx

; 2224 : 		if (max_size() < _Newsize)

	mov	ecx, DWORD PTR _this$[ebp]
	call	?max_size@?$basic_string@DU?$char_traits@D@std@@V?$allocator@D@2@@std@@QBEIXZ ; std::basic_string<char,std::char_traits<char>,std::allocator<char> >::max_size
	cmp	eax, DWORD PTR __Newsize$[ebp]
	jae	SHORT $LN6@Grow

; 2225 : 			_Xlen();	// result too long

	mov	ecx, DWORD PTR _this$[ebp]
	call	?_Xlen@?$basic_string@DU?$char_traits@D@std@@V?$allocator@D@2@@std@@QBEXXZ ; std::basic_string<char,std::char_traits<char>,std::allocator<char> >::_Xlen
$LN6@Grow:

; 2226 : 		if (this->_Myres < _Newsize)

	mov	eax, DWORD PTR _this$[ebp]
	mov	ecx, DWORD PTR [eax+20]
	cmp	ecx, DWORD PTR __Newsize$[ebp]
	jae	SHORT $LN5@Grow

; 2227 : 			_Copy(_Newsize, this->_Mysize);	// reallocate to grow

	mov	edx, DWORD PTR _this$[ebp]
	mov	eax, DWORD PTR [edx+16]
	push	eax
	mov	ecx, DWORD PTR __Newsize$[ebp]
	push	ecx
	mov	ecx, DWORD PTR _this$[ebp]
	call	?_Copy@?$basic_string@DU?$char_traits@D@std@@V?$allocator@D@2@@std@@QAEXII@Z ; std::basic_string<char,std::char_traits<char>,std::allocator<char> >::_Copy
	jmp	SHORT $LN4@Grow
$LN5@Grow:

; 2228 : 		else if (_Trim && _Newsize < this->_BUF_SIZE)

	movzx	edx, BYTE PTR __Trim$[ebp]
	test	edx, edx
	je	SHORT $LN3@Grow
	cmp	DWORD PTR __Newsize$[ebp], 16		; 00000010H
	jae	SHORT $LN3@Grow

; 2229 : 			_Tidy(true,	// copy and deallocate if trimming to small string
; 2230 : 				_Newsize < this->_Mysize ? _Newsize : this->_Mysize);

	mov	eax, DWORD PTR _this$[ebp]
	mov	ecx, DWORD PTR __Newsize$[ebp]
	cmp	ecx, DWORD PTR [eax+16]
	jae	SHORT $LN9@Grow
	mov	edx, DWORD PTR __Newsize$[ebp]
	mov	DWORD PTR tv129[ebp], edx
	jmp	SHORT $LN10@Grow
$LN9@Grow:
	mov	eax, DWORD PTR _this$[ebp]
	mov	ecx, DWORD PTR [eax+16]
	mov	DWORD PTR tv129[ebp], ecx
$LN10@Grow:
	mov	edx, DWORD PTR tv129[ebp]
	push	edx
	push	1
	mov	ecx, DWORD PTR _this$[ebp]
	call	?_Tidy@?$basic_string@DU?$char_traits@D@std@@V?$allocator@D@2@@std@@QAEX_NI@Z ; std::basic_string<char,std::char_traits<char>,std::allocator<char> >::_Tidy
	jmp	SHORT $LN4@Grow
$LN3@Grow:

; 2231 : 		else if (_Newsize == 0)

	cmp	DWORD PTR __Newsize$[ebp], 0
	jne	SHORT $LN4@Grow

; 2232 : 			_Eos(0);	// new size is zero, just null terminate

	push	0
	mov	ecx, DWORD PTR _this$[ebp]
	call	?_Eos@?$basic_string@DU?$char_traits@D@std@@V?$allocator@D@2@@std@@QAEXI@Z ; std::basic_string<char,std::char_traits<char>,std::allocator<char> >::_Eos
$LN4@Grow:

; 2233 : 		return (0 < _Newsize);	// return true only if more work to do

	cmp	DWORD PTR __Newsize$[ebp], 0
	jbe	SHORT $LN11@Grow
	mov	DWORD PTR tv136[ebp], 1
	jmp	SHORT $LN12@Grow
$LN11@Grow:
	mov	DWORD PTR tv136[ebp], 0
$LN12@Grow:
	mov	al, BYTE PTR tv136[ebp]
$LN8@Grow:

; 2234 : 		}

	mov	esp, ebp
	pop	ebp
	ret	8
?_Grow@?$basic_string@DU?$char_traits@D@std@@V?$allocator@D@2@@std@@QAE_NI_N@Z ENDP ; std::basic_string<char,std::char_traits<char>,std::allocator<char> >::_Grow
_TEXT	ENDS
; Function compile flags: /Odtp
; File c:\program files (x86)\microsoft visual studio 11.0\vc\include\xstring
;	COMDAT ?_Eos@?$basic_string@DU?$char_traits@D@std@@V?$allocator@D@2@@std@@QAEXI@Z
_TEXT	SEGMENT
_this$ = -8						; size = 4
$T1 = -1						; size = 1
__Newsize$ = 8						; size = 4
?_Eos@?$basic_string@DU?$char_traits@D@std@@V?$allocator@D@2@@std@@QAEXI@Z PROC ; std::basic_string<char,std::char_traits<char>,std::allocator<char> >::_Eos, COMDAT
; _this$ = ecx

; 2217 : 		{	// set new length and null terminator

	push	ebp
	mov	ebp, esp
	sub	esp, 8
	mov	DWORD PTR _this$[ebp], ecx

; 2218 : 		_Traits::assign(this->_Myptr()[this->_Mysize = _Newsize], _Elem());

	mov	BYTE PTR $T1[ebp], 0
	mov	eax, DWORD PTR _this$[ebp]
	mov	ecx, DWORD PTR __Newsize$[ebp]
	mov	DWORD PTR [eax+16], ecx
	lea	edx, DWORD PTR $T1[ebp]
	push	edx
	mov	ecx, DWORD PTR _this$[ebp]
	call	?_Myptr@?$_String_val@U?$_Simple_types@D@std@@@std@@QAEPADXZ ; std::_String_val<std::_Simple_types<char> >::_Myptr
	add	eax, DWORD PTR __Newsize$[ebp]
	push	eax
	call	?assign@?$char_traits@D@std@@SAXAADABD@Z ; std::char_traits<char>::assign
	add	esp, 8

; 2219 : 		}

	mov	esp, ebp
	pop	ebp
	ret	4
?_Eos@?$basic_string@DU?$char_traits@D@std@@V?$allocator@D@2@@std@@QAEXI@Z ENDP ; std::basic_string<char,std::char_traits<char>,std::allocator<char> >::_Eos
_TEXT	ENDS
; Function compile flags: /Odtp
; File c:\program files (x86)\microsoft visual studio 11.0\vc\include\xstring
;	COMDAT ?_Copy@?$basic_string@DU?$char_traits@D@std@@V?$allocator@D@2@@std@@QAEXII@Z
_TEXT	SEGMENT
tv205 = -48						; size = 4
tv204 = -44						; size = 4
tv203 = -40						; size = 4
tv202 = -36						; size = 4
__Ptr$ = -32						; size = 4
__Newres$ = -28						; size = 4
_this$ = -24						; size = 4
$T2 = -19						; size = 1
$T3 = -18						; size = 1
$T4 = -17						; size = 1
__$EHRec$ = -16						; size = 16
__Newsize$ = 8						; size = 4
__Oldlen$ = 12						; size = 4
?_Copy@?$basic_string@DU?$char_traits@D@std@@V?$allocator@D@2@@std@@QAEXII@Z PROC ; std::basic_string<char,std::char_traits<char>,std::allocator<char> >::_Copy, COMDAT
; _this$ = ecx

; 2182 : 		{	// copy _Oldlen elements to newly allocated buffer

	push	ebp
	mov	ebp, esp
	push	-1
	push	__ehhandler$?_Copy@?$basic_string@DU?$char_traits@D@std@@V?$allocator@D@2@@std@@QAEXII@Z
	mov	eax, DWORD PTR fs:0
	push	eax
	push	ecx
	sub	esp, 32					; 00000020H
	push	ebx
	push	esi
	push	edi
	mov	eax, DWORD PTR ___security_cookie
	xor	eax, ebp
	push	eax
	lea	eax, DWORD PTR __$EHRec$[ebp+4]
	mov	DWORD PTR fs:0, eax
	mov	DWORD PTR __$EHRec$[ebp], esp
	mov	DWORD PTR _this$[ebp], ecx

; 2183 : 		size_type _Newres = _Newsize | this->_ALLOC_MASK;

	mov	eax, DWORD PTR __Newsize$[ebp]
	or	eax, 15					; 0000000fH
	mov	DWORD PTR __Newres$[ebp], eax

; 2184 : 		if (max_size() < _Newres)

	mov	ecx, DWORD PTR _this$[ebp]
	call	?max_size@?$basic_string@DU?$char_traits@D@std@@V?$allocator@D@2@@std@@QBEIXZ ; std::basic_string<char,std::char_traits<char>,std::allocator<char> >::max_size
	cmp	eax, DWORD PTR __Newres$[ebp]
	jae	SHORT $LN9@Copy

; 2185 : 			_Newres = _Newsize;	// undo roundup if too big

	mov	ecx, DWORD PTR __Newsize$[ebp]
	mov	DWORD PTR __Newres$[ebp], ecx
	jmp	SHORT $LN8@Copy
$LN9@Copy:

; 2186 : 		else if (this->_Myres / 2 <= _Newres / 3)

	mov	eax, DWORD PTR __Newres$[ebp]
	xor	edx, edx
	mov	ecx, 3
	div	ecx
	mov	edx, DWORD PTR _this$[ebp]
	mov	ecx, DWORD PTR [edx+20]
	shr	ecx, 1
	cmp	ecx, eax
	ja	SHORT $LN7@Copy
	jmp	SHORT $LN8@Copy
$LN7@Copy:

; 2187 : 			;
; 2188 : 		else if (this->_Myres <= max_size() - this->_Myres / 2)

	mov	edx, DWORD PTR _this$[ebp]
	mov	esi, DWORD PTR [edx+20]
	shr	esi, 1
	mov	ecx, DWORD PTR _this$[ebp]
	call	?max_size@?$basic_string@DU?$char_traits@D@std@@V?$allocator@D@2@@std@@QBEIXZ ; std::basic_string<char,std::char_traits<char>,std::allocator<char> >::max_size
	sub	eax, esi
	mov	ecx, DWORD PTR _this$[ebp]
	cmp	DWORD PTR [ecx+20], eax
	ja	SHORT $LN5@Copy

; 2189 : 			_Newres = this->_Myres
; 2190 : 				+ this->_Myres / 2;	// grow exponentially if possible

	mov	edx, DWORD PTR _this$[ebp]
	mov	eax, DWORD PTR [edx+20]
	shr	eax, 1
	mov	ecx, DWORD PTR _this$[ebp]
	add	eax, DWORD PTR [ecx+20]
	mov	DWORD PTR __Newres$[ebp], eax

; 2191 : 		else

	jmp	SHORT $LN8@Copy
$LN5@Copy:

; 2192 : 			_Newres = max_size();	// settle for max_size()

	mov	ecx, DWORD PTR _this$[ebp]
	call	?max_size@?$basic_string@DU?$char_traits@D@std@@V?$allocator@D@2@@std@@QBEIXZ ; std::basic_string<char,std::char_traits<char>,std::allocator<char> >::max_size
	mov	DWORD PTR __Newres$[ebp], eax
$LN8@Copy:

; 2193 : 
; 2194 : 		_Elem *_Ptr;
; 2195 : 		_TRY_BEGIN

	mov	DWORD PTR __$EHRec$[ebp+12], 0

; 2196 : 			_Ptr = this->_Getal().allocate(_Newres + 1);

	lea	edx, DWORD PTR $T4[ebp]
	push	edx
	mov	ecx, DWORD PTR _this$[ebp]
	call	?_Getal@?$_String_alloc@$0A@U?$_String_base_types@DV?$allocator@D@std@@@std@@@std@@QBE?AU?$_Wrap_alloc@V?$allocator@D@std@@@2@XZ ; std::_String_alloc<0,std::_String_base_types<char,std::allocator<char> > >::_Getal
	mov	DWORD PTR tv202[ebp], eax
	mov	eax, DWORD PTR __Newres$[ebp]
	add	eax, 1
	push	eax
	mov	ecx, DWORD PTR tv202[ebp]
	call	?allocate@?$_Wrap_alloc@V?$allocator@D@std@@@std@@QAEPADI@Z ; std::_Wrap_alloc<std::allocator<char> >::allocate
	mov	DWORD PTR tv203[ebp], eax
	mov	ecx, DWORD PTR tv203[ebp]
	mov	DWORD PTR __Ptr$[ebp], ecx
	jmp	SHORT $LN12@Copy
__catch$?_Copy@?$basic_string@DU?$char_traits@D@std@@V?$allocator@D@2@@std@@QAEXII@Z$0:

; 2197 : 		_CATCH_ALL

	mov	DWORD PTR __$EHRec$[ebp], esp

; 2198 : 			_Newres = _Newsize;	// allocation failed, undo roundup and retry

	mov	edx, DWORD PTR __Newsize$[ebp]
	mov	DWORD PTR __Newres$[ebp], edx

; 2199 : 			_TRY_BEGIN

	mov	BYTE PTR __$EHRec$[ebp+12], 2

; 2200 : 				_Ptr = this->_Getal().allocate(_Newres + 1);

	lea	eax, DWORD PTR $T3[ebp]
	push	eax
	mov	ecx, DWORD PTR _this$[ebp]
	call	?_Getal@?$_String_alloc@$0A@U?$_String_base_types@DV?$allocator@D@std@@@std@@@std@@QBE?AU?$_Wrap_alloc@V?$allocator@D@std@@@2@XZ ; std::_String_alloc<0,std::_String_base_types<char,std::allocator<char> > >::_Getal
	mov	DWORD PTR tv204[ebp], eax
	mov	ecx, DWORD PTR __Newres$[ebp]
	add	ecx, 1
	push	ecx
	mov	ecx, DWORD PTR tv204[ebp]
	call	?allocate@?$_Wrap_alloc@V?$allocator@D@std@@@std@@QAEPADI@Z ; std::_Wrap_alloc<std::allocator<char> >::allocate
	mov	DWORD PTR tv205[ebp], eax
	mov	edx, DWORD PTR tv205[ebp]
	mov	DWORD PTR __Ptr$[ebp], edx
	jmp	SHORT $LN14@Copy
__catch$?_Copy@?$basic_string@DU?$char_traits@D@std@@V?$allocator@D@2@@std@@QAEXII@Z$1:

; 2201 : 			_CATCH_ALL
; 2202 : 			_Tidy(true);	// failed again, discard storage and reraise

	push	0
	push	1
	mov	ecx, DWORD PTR _this$[ebp]
	call	?_Tidy@?$basic_string@DU?$char_traits@D@std@@V?$allocator@D@2@@std@@QAEX_NI@Z ; std::basic_string<char,std::char_traits<char>,std::allocator<char> >::_Tidy

; 2203 : 			_RERAISE;

	push	0
	push	0
	call	__CxxThrowException@8

; 2204 : 			_CATCH_END

	mov	eax, $LN17@Copy
	ret	0
$LN14@Copy:
	mov	DWORD PTR __$EHRec$[ebp+12], 1
	jmp	SHORT __tryend$?_Copy@?$basic_string@DU?$char_traits@D@std@@V?$allocator@D@2@@std@@QAEXII@Z$2
$LN17@Copy:
	mov	DWORD PTR __$EHRec$[ebp+12], 1
__tryend$?_Copy@?$basic_string@DU?$char_traits@D@std@@V?$allocator@D@2@@std@@QAEXII@Z$2:

; 2205 : 		_CATCH_END

	mov	eax, $LN19@Copy
	ret	0
$LN12@Copy:
	mov	DWORD PTR __$EHRec$[ebp+12], -1
	jmp	SHORT __tryend$?_Copy@?$basic_string@DU?$char_traits@D@std@@V?$allocator@D@2@@std@@QAEXII@Z$3
$LN19@Copy:
	mov	DWORD PTR __$EHRec$[ebp+12], -1
__tryend$?_Copy@?$basic_string@DU?$char_traits@D@std@@V?$allocator@D@2@@std@@QAEXII@Z$3:

; 2206 : 
; 2207 : 		if (0 < _Oldlen)

	cmp	DWORD PTR __Oldlen$[ebp], 0
	jbe	SHORT $LN1@Copy

; 2208 : 			_Traits::copy(_Ptr, this->_Myptr(),
; 2209 : 				_Oldlen);	// copy existing elements

	mov	eax, DWORD PTR __Oldlen$[ebp]
	push	eax
	mov	ecx, DWORD PTR _this$[ebp]
	call	?_Myptr@?$_String_val@U?$_Simple_types@D@std@@@std@@QAEPADXZ ; std::_String_val<std::_Simple_types<char> >::_Myptr
	push	eax
	mov	ecx, DWORD PTR __Ptr$[ebp]
	push	ecx
	call	?copy@?$char_traits@D@std@@SAPADPADPBDI@Z ; std::char_traits<char>::copy
	add	esp, 12					; 0000000cH
$LN1@Copy:

; 2210 : 		_Tidy(true);

	push	0
	push	1
	mov	ecx, DWORD PTR _this$[ebp]
	call	?_Tidy@?$basic_string@DU?$char_traits@D@std@@V?$allocator@D@2@@std@@QAEX_NI@Z ; std::basic_string<char,std::char_traits<char>,std::allocator<char> >::_Tidy

; 2211 : 		this->_Getal().construct(&this->_Bx._Ptr, _Ptr);

	lea	edx, DWORD PTR __Ptr$[ebp]
	push	edx
	mov	eax, DWORD PTR _this$[ebp]
	push	eax
	lea	ecx, DWORD PTR $T2[ebp]
	push	ecx
	mov	ecx, DWORD PTR _this$[ebp]
	call	?_Getal@?$_String_alloc@$0A@U?$_String_base_types@DV?$allocator@D@std@@@std@@@std@@QBE?AU?$_Wrap_alloc@V?$allocator@D@std@@@2@XZ ; std::_String_alloc<0,std::_String_base_types<char,std::allocator<char> > >::_Getal
	mov	ecx, eax
	call	??$construct@PADAAPAD@?$_Wrap_alloc@V?$allocator@D@std@@@std@@QAEXPAPADAAPAD@Z ; std::_Wrap_alloc<std::allocator<char> >::construct<char *,char * &>

; 2212 : 		this->_Myres = _Newres;

	mov	edx, DWORD PTR _this$[ebp]
	mov	eax, DWORD PTR __Newres$[ebp]
	mov	DWORD PTR [edx+20], eax

; 2213 : 		_Eos(_Oldlen);

	mov	ecx, DWORD PTR __Oldlen$[ebp]
	push	ecx
	mov	ecx, DWORD PTR _this$[ebp]
	call	?_Eos@?$basic_string@DU?$char_traits@D@std@@V?$allocator@D@2@@std@@QAEXI@Z ; std::basic_string<char,std::char_traits<char>,std::allocator<char> >::_Eos
$LN11@Copy:

; 2214 : 		}

	mov	ecx, DWORD PTR __$EHRec$[ebp+4]
	mov	DWORD PTR fs:0, ecx
	pop	ecx
	pop	edi
	pop	esi
	pop	ebx
	mov	esp, ebp
	pop	ebp
	ret	8
_TEXT	ENDS
;	COMDAT text$x
text$x	SEGMENT
__ehhandler$?_Copy@?$basic_string@DU?$char_traits@D@std@@V?$allocator@D@2@@std@@QAEXII@Z:
	mov	edx, DWORD PTR [esp+8]
	lea	eax, DWORD PTR [edx+12]
	mov	ecx, DWORD PTR [edx-52]
	xor	ecx, eax
	call	@__security_check_cookie@4
	mov	eax, OFFSET __ehfuncinfo$?_Copy@?$basic_string@DU?$char_traits@D@std@@V?$allocator@D@2@@std@@QAEXII@Z
	jmp	___CxxFrameHandler3
text$x	ENDS
?_Copy@?$basic_string@DU?$char_traits@D@std@@V?$allocator@D@2@@std@@QAEXII@Z ENDP ; std::basic_string<char,std::char_traits<char>,std::allocator<char> >::_Copy
; Function compile flags: /Odtp
; File c:\program files (x86)\microsoft visual studio 11.0\vc\include\xstring
;	COMDAT ?max_size@?$basic_string@DU?$char_traits@D@std@@V?$allocator@D@2@@std@@QBEIXZ
_TEXT	SEGMENT
_this$ = -16						; size = 4
tv75 = -12						; size = 4
__Num$ = -8						; size = 4
$T1 = -1						; size = 1
?max_size@?$basic_string@DU?$char_traits@D@std@@V?$allocator@D@2@@std@@QBEIXZ PROC ; std::basic_string<char,std::char_traits<char>,std::allocator<char> >::max_size, COMDAT
; _this$ = ecx

; 1737 : 		{	// return maximum possible length of sequence

	push	ebp
	mov	ebp, esp
	sub	esp, 16					; 00000010H
	mov	DWORD PTR _this$[ebp], ecx

; 1738 : 		size_type _Num = this->_Getal().max_size();

	lea	eax, DWORD PTR $T1[ebp]
	push	eax
	mov	ecx, DWORD PTR _this$[ebp]
	call	?_Getal@?$_String_alloc@$0A@U?$_String_base_types@DV?$allocator@D@std@@@std@@@std@@QBE?AU?$_Wrap_alloc@V?$allocator@D@std@@@2@XZ ; std::_String_alloc<0,std::_String_base_types<char,std::allocator<char> > >::_Getal
	mov	ecx, eax
	call	?max_size@?$_Wrap_alloc@V?$allocator@D@std@@@std@@QBEIXZ ; std::_Wrap_alloc<std::allocator<char> >::max_size
	mov	DWORD PTR __Num$[ebp], eax

; 1739 : 		return (_Num <= 1 ? 1 : _Num - 1);

	cmp	DWORD PTR __Num$[ebp], 1
	ja	SHORT $LN3@max_size
	mov	DWORD PTR tv75[ebp], 1
	jmp	SHORT $LN4@max_size
$LN3@max_size:
	mov	ecx, DWORD PTR __Num$[ebp]
	sub	ecx, 1
	mov	DWORD PTR tv75[ebp], ecx
$LN4@max_size:
	mov	eax, DWORD PTR tv75[ebp]

; 1740 : 		}

	mov	esp, ebp
	pop	ebp
	ret	0
?max_size@?$basic_string@DU?$char_traits@D@std@@V?$allocator@D@2@@std@@QBEIXZ ENDP ; std::basic_string<char,std::char_traits<char>,std::allocator<char> >::max_size
_TEXT	ENDS
; Function compile flags: /Odtp
; File c:\program files (x86)\microsoft visual studio 11.0\vc\include\xstring
;	COMDAT ?size@?$basic_string@DU?$char_traits@D@std@@V?$allocator@D@2@@std@@QBEIXZ
_TEXT	SEGMENT
_this$ = -4						; size = 4
?size@?$basic_string@DU?$char_traits@D@std@@V?$allocator@D@2@@std@@QBEIXZ PROC ; std::basic_string<char,std::char_traits<char>,std::allocator<char> >::size, COMDAT
; _this$ = ecx

; 1732 : 		{	// return length of sequence

	push	ebp
	mov	ebp, esp
	push	ecx
	mov	DWORD PTR _this$[ebp], ecx

; 1733 : 		return (this->_Mysize);

	mov	eax, DWORD PTR _this$[ebp]
	mov	eax, DWORD PTR [eax+16]

; 1734 : 		}

	mov	esp, ebp
	pop	ebp
	ret	0
?size@?$basic_string@DU?$char_traits@D@std@@V?$allocator@D@2@@std@@QBEIXZ ENDP ; std::basic_string<char,std::char_traits<char>,std::allocator<char> >::size
_TEXT	ENDS
; Function compile flags: /Odtp
; File c:\program files (x86)\microsoft visual studio 11.0\vc\include\xstring
;	COMDAT ?erase@?$basic_string@DU?$char_traits@D@std@@V?$allocator@D@2@@std@@QAEAAV12@II@Z
_TEXT	SEGMENT
__Newsize$1 = -12					; size = 4
__Ptr$2 = -8						; size = 4
_this$ = -4						; size = 4
__Off$ = 8						; size = 4
__Count$ = 12						; size = 4
?erase@?$basic_string@DU?$char_traits@D@std@@V?$allocator@D@2@@std@@QAEAAV12@II@Z PROC ; std::basic_string<char,std::char_traits<char>,std::allocator<char> >::erase, COMDAT
; _this$ = ecx

; 1317 : 		{	// erase elements [_Off, _Off + _Count)

	push	ebp
	mov	ebp, esp
	sub	esp, 12					; 0000000cH
	mov	DWORD PTR _this$[ebp], ecx

; 1318 : 		if (this->_Mysize < _Off)

	mov	eax, DWORD PTR _this$[ebp]
	mov	ecx, DWORD PTR [eax+16]
	cmp	ecx, DWORD PTR __Off$[ebp]
	jae	SHORT $LN4@erase

; 1319 : 			_Xran();	// _Off off end

	mov	ecx, DWORD PTR _this$[ebp]
	call	?_Xran@?$basic_string@DU?$char_traits@D@std@@V?$allocator@D@2@@std@@QBEXXZ ; std::basic_string<char,std::char_traits<char>,std::allocator<char> >::_Xran
$LN4@erase:

; 1320 : 		if (this->_Mysize - _Off <= _Count)

	mov	edx, DWORD PTR _this$[ebp]
	mov	eax, DWORD PTR [edx+16]
	sub	eax, DWORD PTR __Off$[ebp]
	cmp	eax, DWORD PTR __Count$[ebp]
	ja	SHORT $LN3@erase

; 1321 : 			_Eos(_Off);	// erase elements [_Off, ...)

	mov	ecx, DWORD PTR __Off$[ebp]
	push	ecx
	mov	ecx, DWORD PTR _this$[ebp]
	call	?_Eos@?$basic_string@DU?$char_traits@D@std@@V?$allocator@D@2@@std@@QAEXI@Z ; std::basic_string<char,std::char_traits<char>,std::allocator<char> >::_Eos
	jmp	SHORT $LN2@erase
$LN3@erase:

; 1322 : 		else if (0 < _Count)

	cmp	DWORD PTR __Count$[ebp], 0
	jbe	SHORT $LN2@erase

; 1323 : 			{	// move elements down
; 1324 : 			value_type *_Ptr = this->_Myptr() + _Off;

	mov	ecx, DWORD PTR _this$[ebp]
	call	?_Myptr@?$_String_val@U?$_Simple_types@D@std@@@std@@QAEPADXZ ; std::_String_val<std::_Simple_types<char> >::_Myptr
	add	eax, DWORD PTR __Off$[ebp]
	mov	DWORD PTR __Ptr$2[ebp], eax

; 1325 : 			size_type _Newsize = this->_Mysize - _Count;

	mov	edx, DWORD PTR _this$[ebp]
	mov	eax, DWORD PTR [edx+16]
	sub	eax, DWORD PTR __Count$[ebp]
	mov	DWORD PTR __Newsize$1[ebp], eax

; 1326 : 			_Traits::move(_Ptr, _Ptr + _Count, _Newsize - _Off);

	mov	ecx, DWORD PTR __Newsize$1[ebp]
	sub	ecx, DWORD PTR __Off$[ebp]
	push	ecx
	mov	edx, DWORD PTR __Ptr$2[ebp]
	add	edx, DWORD PTR __Count$[ebp]
	push	edx
	mov	eax, DWORD PTR __Ptr$2[ebp]
	push	eax
	call	?move@?$char_traits@D@std@@SAPADPADPBDI@Z ; std::char_traits<char>::move
	add	esp, 12					; 0000000cH

; 1327 : 			_Eos(_Newsize);

	mov	ecx, DWORD PTR __Newsize$1[ebp]
	push	ecx
	mov	ecx, DWORD PTR _this$[ebp]
	call	?_Eos@?$basic_string@DU?$char_traits@D@std@@V?$allocator@D@2@@std@@QAEXI@Z ; std::basic_string<char,std::char_traits<char>,std::allocator<char> >::_Eos
$LN2@erase:

; 1328 : 			}
; 1329 : 		return (*this);

	mov	eax, DWORD PTR _this$[ebp]
$LN6@erase:

; 1330 : 		}

	mov	esp, ebp
	pop	ebp
	ret	8
?erase@?$basic_string@DU?$char_traits@D@std@@V?$allocator@D@2@@std@@QAEAAV12@II@Z ENDP ; std::basic_string<char,std::char_traits<char>,std::allocator<char> >::erase
_TEXT	ENDS
; Function compile flags: /Odtp
; File c:\program files (x86)\microsoft visual studio 11.0\vc\include\xstring
;	COMDAT ?erase@?$basic_string@DU?$char_traits@D@std@@V?$allocator@D@2@@std@@QAEAAV12@I@Z
_TEXT	SEGMENT
_this$ = -4						; size = 4
__Off$ = 8						; size = 4
?erase@?$basic_string@DU?$char_traits@D@std@@V?$allocator@D@2@@std@@QAEAAV12@I@Z PROC ; std::basic_string<char,std::char_traits<char>,std::allocator<char> >::erase, COMDAT
; _this$ = ecx

; 1309 : 		{	// erase elements [_Off, ...)

	push	ebp
	mov	ebp, esp
	push	ecx
	mov	DWORD PTR _this$[ebp], ecx

; 1310 : 		if (this->_Mysize < _Off)

	mov	eax, DWORD PTR _this$[ebp]
	mov	ecx, DWORD PTR [eax+16]
	cmp	ecx, DWORD PTR __Off$[ebp]
	jae	SHORT $LN1@erase

; 1311 : 			_Xran();	// _Off off end

	mov	ecx, DWORD PTR _this$[ebp]
	call	?_Xran@?$basic_string@DU?$char_traits@D@std@@V?$allocator@D@2@@std@@QBEXXZ ; std::basic_string<char,std::char_traits<char>,std::allocator<char> >::_Xran
$LN1@erase:

; 1312 : 		_Eos(_Off);

	mov	edx, DWORD PTR __Off$[ebp]
	push	edx
	mov	ecx, DWORD PTR _this$[ebp]
	call	?_Eos@?$basic_string@DU?$char_traits@D@std@@V?$allocator@D@2@@std@@QAEXI@Z ; std::basic_string<char,std::char_traits<char>,std::allocator<char> >::_Eos

; 1313 : 		return (*this);

	mov	eax, DWORD PTR _this$[ebp]
$LN3@erase:

; 1314 : 		}

	mov	esp, ebp
	pop	ebp
	ret	4
?erase@?$basic_string@DU?$char_traits@D@std@@V?$allocator@D@2@@std@@QAEAAV12@I@Z ENDP ; std::basic_string<char,std::char_traits<char>,std::allocator<char> >::erase
_TEXT	ENDS
; Function compile flags: /Odtp
; File c:\program files (x86)\microsoft visual studio 11.0\vc\include\xstring
;	COMDAT ?assign@?$basic_string@DU?$char_traits@D@std@@V?$allocator@D@2@@std@@QAEAAV12@PBD@Z
_TEXT	SEGMENT
_this$ = -4						; size = 4
__Ptr$ = 8						; size = 4
?assign@?$basic_string@DU?$char_traits@D@std@@V?$allocator@D@2@@std@@QAEAAV12@PBD@Z PROC ; std::basic_string<char,std::char_traits<char>,std::allocator<char> >::assign, COMDAT
; _this$ = ecx

; 1142 : 		{	// assign [_Ptr, <null>)

	push	ebp
	mov	ebp, esp
	push	ecx
	mov	DWORD PTR _this$[ebp], ecx

; 1143 : 		_DEBUG_POINTER(_Ptr);
; 1144 : 		return (assign(_Ptr, _Traits::length(_Ptr)));

	mov	eax, DWORD PTR __Ptr$[ebp]
	push	eax
	call	?length@?$char_traits@D@std@@SAIPBD@Z	; std::char_traits<char>::length
	add	esp, 4
	push	eax
	mov	ecx, DWORD PTR __Ptr$[ebp]
	push	ecx
	mov	ecx, DWORD PTR _this$[ebp]
	call	?assign@?$basic_string@DU?$char_traits@D@std@@V?$allocator@D@2@@std@@QAEAAV12@PBDI@Z ; std::basic_string<char,std::char_traits<char>,std::allocator<char> >::assign

; 1145 : 		}

	mov	esp, ebp
	pop	ebp
	ret	4
?assign@?$basic_string@DU?$char_traits@D@std@@V?$allocator@D@2@@std@@QAEAAV12@PBD@Z ENDP ; std::basic_string<char,std::char_traits<char>,std::allocator<char> >::assign
_TEXT	ENDS
; Function compile flags: /Odtp
; File c:\program files (x86)\microsoft visual studio 11.0\vc\include\xstring
;	COMDAT ?assign@?$basic_string@DU?$char_traits@D@std@@V?$allocator@D@2@@std@@QAEAAV12@PBDI@Z
_TEXT	SEGMENT
_this$ = -4						; size = 4
__Ptr$ = 8						; size = 4
__Count$ = 12						; size = 4
?assign@?$basic_string@DU?$char_traits@D@std@@V?$allocator@D@2@@std@@QAEAAV12@PBDI@Z PROC ; std::basic_string<char,std::char_traits<char>,std::allocator<char> >::assign, COMDAT
; _this$ = ecx

; 1123 : 		{	// assign [_Ptr, _Ptr + _Count)

	push	ebp
	mov	ebp, esp
	push	ecx
	mov	DWORD PTR _this$[ebp], ecx

; 1124 :  #if _ITERATOR_DEBUG_LEVEL == 2
; 1125 : 		if (_Count != 0)
; 1126 : 			_DEBUG_POINTER(_Ptr);
; 1127 :  #endif /* _ITERATOR_DEBUG_LEVEL == 2 */
; 1128 : 
; 1129 : 		if (_Inside(_Ptr))

	mov	eax, DWORD PTR __Ptr$[ebp]
	push	eax
	mov	ecx, DWORD PTR _this$[ebp]
	call	?_Inside@?$basic_string@DU?$char_traits@D@std@@V?$allocator@D@2@@std@@QAE_NPBD@Z ; std::basic_string<char,std::char_traits<char>,std::allocator<char> >::_Inside
	movzx	ecx, al
	test	ecx, ecx
	je	SHORT $LN2@assign

; 1130 : 			return (assign(*this,
; 1131 : 				_Ptr - this->_Myptr(), _Count));	// substring

	mov	edx, DWORD PTR __Count$[ebp]
	push	edx
	mov	ecx, DWORD PTR _this$[ebp]
	call	?_Myptr@?$_String_val@U?$_Simple_types@D@std@@@std@@QAEPADXZ ; std::_String_val<std::_Simple_types<char> >::_Myptr
	mov	ecx, DWORD PTR __Ptr$[ebp]
	sub	ecx, eax
	push	ecx
	mov	edx, DWORD PTR _this$[ebp]
	push	edx
	mov	ecx, DWORD PTR _this$[ebp]
	call	?assign@?$basic_string@DU?$char_traits@D@std@@V?$allocator@D@2@@std@@QAEAAV12@ABV12@II@Z ; std::basic_string<char,std::char_traits<char>,std::allocator<char> >::assign
	jmp	SHORT $LN3@assign
$LN2@assign:

; 1132 : 
; 1133 : 		if (_Grow(_Count))

	push	0
	mov	eax, DWORD PTR __Count$[ebp]
	push	eax
	mov	ecx, DWORD PTR _this$[ebp]
	call	?_Grow@?$basic_string@DU?$char_traits@D@std@@V?$allocator@D@2@@std@@QAE_NI_N@Z ; std::basic_string<char,std::char_traits<char>,std::allocator<char> >::_Grow
	movzx	ecx, al
	test	ecx, ecx
	je	SHORT $LN1@assign

; 1134 : 			{	// make room and assign new stuff
; 1135 : 			_Traits::copy(this->_Myptr(), _Ptr, _Count);

	mov	edx, DWORD PTR __Count$[ebp]
	push	edx
	mov	eax, DWORD PTR __Ptr$[ebp]
	push	eax
	mov	ecx, DWORD PTR _this$[ebp]
	call	?_Myptr@?$_String_val@U?$_Simple_types@D@std@@@std@@QAEPADXZ ; std::_String_val<std::_Simple_types<char> >::_Myptr
	push	eax
	call	?copy@?$char_traits@D@std@@SAPADPADPBDI@Z ; std::char_traits<char>::copy
	add	esp, 12					; 0000000cH

; 1136 : 			_Eos(_Count);

	mov	ecx, DWORD PTR __Count$[ebp]
	push	ecx
	mov	ecx, DWORD PTR _this$[ebp]
	call	?_Eos@?$basic_string@DU?$char_traits@D@std@@V?$allocator@D@2@@std@@QAEXI@Z ; std::basic_string<char,std::char_traits<char>,std::allocator<char> >::_Eos
$LN1@assign:

; 1137 : 			}
; 1138 : 		return (*this);

	mov	eax, DWORD PTR _this$[ebp]
$LN3@assign:

; 1139 : 		}

	mov	esp, ebp
	pop	ebp
	ret	8
?assign@?$basic_string@DU?$char_traits@D@std@@V?$allocator@D@2@@std@@QAEAAV12@PBDI@Z ENDP ; std::basic_string<char,std::char_traits<char>,std::allocator<char> >::assign
_TEXT	ENDS
; Function compile flags: /Odtp
; File c:\program files (x86)\microsoft visual studio 11.0\vc\include\xstring
;	COMDAT ?assign@?$basic_string@DU?$char_traits@D@std@@V?$allocator@D@2@@std@@QAEAAV12@ABV12@II@Z
_TEXT	SEGMENT
__Num$ = -8						; size = 4
_this$ = -4						; size = 4
__Right$ = 8						; size = 4
__Roff$ = 12						; size = 4
__Count$ = 16						; size = 4
?assign@?$basic_string@DU?$char_traits@D@std@@V?$allocator@D@2@@std@@QAEAAV12@ABV12@II@Z PROC ; std::basic_string<char,std::char_traits<char>,std::allocator<char> >::assign, COMDAT
; _this$ = ecx

; 1104 : 		{	// assign _Right [_Roff, _Roff + _Count)

	push	ebp
	mov	ebp, esp
	sub	esp, 8
	mov	DWORD PTR _this$[ebp], ecx

; 1105 : 		if (_Right.size() < _Roff)

	mov	ecx, DWORD PTR __Right$[ebp]
	call	?size@?$basic_string@DU?$char_traits@D@std@@V?$allocator@D@2@@std@@QBEIXZ ; std::basic_string<char,std::char_traits<char>,std::allocator<char> >::size
	cmp	eax, DWORD PTR __Roff$[ebp]
	jae	SHORT $LN5@assign

; 1106 : 			_Xran();	// _Roff off end

	mov	ecx, DWORD PTR _this$[ebp]
	call	?_Xran@?$basic_string@DU?$char_traits@D@std@@V?$allocator@D@2@@std@@QBEXXZ ; std::basic_string<char,std::char_traits<char>,std::allocator<char> >::_Xran
$LN5@assign:

; 1107 : 		size_type _Num = _Right.size() - _Roff;

	mov	ecx, DWORD PTR __Right$[ebp]
	call	?size@?$basic_string@DU?$char_traits@D@std@@V?$allocator@D@2@@std@@QBEIXZ ; std::basic_string<char,std::char_traits<char>,std::allocator<char> >::size
	sub	eax, DWORD PTR __Roff$[ebp]
	mov	DWORD PTR __Num$[ebp], eax

; 1108 : 		if (_Count < _Num)

	mov	eax, DWORD PTR __Count$[ebp]
	cmp	eax, DWORD PTR __Num$[ebp]
	jae	SHORT $LN4@assign

; 1109 : 			_Num = _Count;	// trim _Num to size

	mov	ecx, DWORD PTR __Count$[ebp]
	mov	DWORD PTR __Num$[ebp], ecx
$LN4@assign:

; 1110 : 
; 1111 : 		if (this == &_Right)

	mov	edx, DWORD PTR _this$[ebp]
	cmp	edx, DWORD PTR __Right$[ebp]
	jne	SHORT $LN3@assign

; 1112 : 			erase((size_type)(_Roff + _Num)), erase(0, _Roff);	// substring

	mov	eax, DWORD PTR __Roff$[ebp]
	add	eax, DWORD PTR __Num$[ebp]
	push	eax
	mov	ecx, DWORD PTR _this$[ebp]
	call	?erase@?$basic_string@DU?$char_traits@D@std@@V?$allocator@D@2@@std@@QAEAAV12@I@Z ; std::basic_string<char,std::char_traits<char>,std::allocator<char> >::erase
	mov	ecx, DWORD PTR __Roff$[ebp]
	push	ecx
	push	0
	mov	ecx, DWORD PTR _this$[ebp]
	call	?erase@?$basic_string@DU?$char_traits@D@std@@V?$allocator@D@2@@std@@QAEAAV12@II@Z ; std::basic_string<char,std::char_traits<char>,std::allocator<char> >::erase
	jmp	SHORT $LN2@assign
$LN3@assign:

; 1113 : 		else if (_Grow(_Num))

	push	0
	mov	edx, DWORD PTR __Num$[ebp]
	push	edx
	mov	ecx, DWORD PTR _this$[ebp]
	call	?_Grow@?$basic_string@DU?$char_traits@D@std@@V?$allocator@D@2@@std@@QAE_NI_N@Z ; std::basic_string<char,std::char_traits<char>,std::allocator<char> >::_Grow
	movzx	eax, al
	test	eax, eax
	je	SHORT $LN2@assign

; 1114 : 			{	// make room and assign new stuff
; 1115 : 			_Traits::copy(this->_Myptr(),
; 1116 : 				_Right._Myptr() + _Roff, _Num);

	mov	ecx, DWORD PTR __Num$[ebp]
	push	ecx
	mov	ecx, DWORD PTR __Right$[ebp]
	call	?_Myptr@?$_String_val@U?$_Simple_types@D@std@@@std@@QBEPBDXZ ; std::_String_val<std::_Simple_types<char> >::_Myptr
	add	eax, DWORD PTR __Roff$[ebp]
	push	eax
	mov	ecx, DWORD PTR _this$[ebp]
	call	?_Myptr@?$_String_val@U?$_Simple_types@D@std@@@std@@QAEPADXZ ; std::_String_val<std::_Simple_types<char> >::_Myptr
	push	eax
	call	?copy@?$char_traits@D@std@@SAPADPADPBDI@Z ; std::char_traits<char>::copy
	add	esp, 12					; 0000000cH

; 1117 : 			_Eos(_Num);

	mov	edx, DWORD PTR __Num$[ebp]
	push	edx
	mov	ecx, DWORD PTR _this$[ebp]
	call	?_Eos@?$basic_string@DU?$char_traits@D@std@@V?$allocator@D@2@@std@@QAEXI@Z ; std::basic_string<char,std::char_traits<char>,std::allocator<char> >::_Eos
$LN2@assign:

; 1118 : 			}
; 1119 : 		return (*this);

	mov	eax, DWORD PTR _this$[ebp]
$LN7@assign:

; 1120 : 		}

	mov	esp, ebp
	pop	ebp
	ret	12					; 0000000cH
?assign@?$basic_string@DU?$char_traits@D@std@@V?$allocator@D@2@@std@@QAEAAV12@ABV12@II@Z ENDP ; std::basic_string<char,std::char_traits<char>,std::allocator<char> >::assign
_TEXT	ENDS
; Function compile flags: /Odtp
; File c:\program files (x86)\microsoft visual studio 11.0\vc\include\xstring
;	COMDAT ??0?$basic_string@DU?$char_traits@D@std@@V?$allocator@D@2@@std@@QAE@PBD@Z
_TEXT	SEGMENT
_this$ = -8						; size = 4
$T1 = -1						; size = 1
__Ptr$ = 8						; size = 4
??0?$basic_string@DU?$char_traits@D@std@@V?$allocator@D@2@@std@@QAE@PBD@Z PROC ; std::basic_string<char,std::char_traits<char>,std::allocator<char> >::basic_string<char,std::char_traits<char>,std::allocator<char> >, COMDAT
; _this$ = ecx

; 791  : 		{	// construct from [_Ptr, <null>)

	push	ebp
	mov	ebp, esp
	sub	esp, 8
	mov	DWORD PTR _this$[ebp], ecx
	lea	ecx, DWORD PTR $T1[ebp]
	call	??0?$allocator@D@std@@QAE@XZ		; std::allocator<char>::allocator<char>
	push	eax
	mov	ecx, DWORD PTR _this$[ebp]
	call	??0?$_String_alloc@$0A@U?$_String_base_types@DV?$allocator@D@std@@@std@@@std@@QAE@ABV?$allocator@D@1@@Z ; std::_String_alloc<0,std::_String_base_types<char,std::allocator<char> > >::_String_alloc<0,std::_String_base_types<char,std::allocator<char> > >

; 792  : 		_Tidy();

	push	0
	push	0
	mov	ecx, DWORD PTR _this$[ebp]
	call	?_Tidy@?$basic_string@DU?$char_traits@D@std@@V?$allocator@D@2@@std@@QAEX_NI@Z ; std::basic_string<char,std::char_traits<char>,std::allocator<char> >::_Tidy

; 793  : 		assign(_Ptr);

	mov	eax, DWORD PTR __Ptr$[ebp]
	push	eax
	mov	ecx, DWORD PTR _this$[ebp]
	call	?assign@?$basic_string@DU?$char_traits@D@std@@V?$allocator@D@2@@std@@QAEAAV12@PBD@Z ; std::basic_string<char,std::char_traits<char>,std::allocator<char> >::assign

; 794  : 		}

	mov	eax, DWORD PTR _this$[ebp]
	mov	esp, ebp
	pop	ebp
	ret	4
??0?$basic_string@DU?$char_traits@D@std@@V?$allocator@D@2@@std@@QAE@PBD@Z ENDP ; std::basic_string<char,std::char_traits<char>,std::allocator<char> >::basic_string<char,std::char_traits<char>,std::allocator<char> >
_TEXT	ENDS
; Function compile flags: /Odtp
; File c:\program files (x86)\microsoft visual studio 11.0\vc\include\xstring
;	COMDAT ?_Getal@?$_String_alloc@$0A@U?$_String_base_types@DV?$allocator@D@std@@@std@@@std@@QBE?AU?$_Wrap_alloc@V?$allocator@D@std@@@2@XZ
_TEXT	SEGMENT
_this$ = -4						; size = 4
___$ReturnUdt$ = 8					; size = 4
?_Getal@?$_String_alloc@$0A@U?$_String_base_types@DV?$allocator@D@std@@@std@@@std@@QBE?AU?$_Wrap_alloc@V?$allocator@D@std@@@2@XZ PROC ; std::_String_alloc<0,std::_String_base_types<char,std::allocator<char> > >::_Getal, COMDAT
; _this$ = ecx

; 688  : 		{	// get reference to allocator

	push	ebp
	mov	ebp, esp
	push	ecx
	mov	DWORD PTR _this$[ebp], ecx

; 689  : 		return (_Alty());

	mov	ecx, DWORD PTR ___$ReturnUdt$[ebp]
	call	??0?$_Wrap_alloc@V?$allocator@D@std@@@std@@QAE@XZ ; std::_Wrap_alloc<std::allocator<char> >::_Wrap_alloc<std::allocator<char> >
	mov	eax, DWORD PTR ___$ReturnUdt$[ebp]

; 690  : 		}

	mov	esp, ebp
	pop	ebp
	ret	4
?_Getal@?$_String_alloc@$0A@U?$_String_base_types@DV?$allocator@D@std@@@std@@@std@@QBE?AU?$_Wrap_alloc@V?$allocator@D@std@@@2@XZ ENDP ; std::_String_alloc<0,std::_String_base_types<char,std::allocator<char> > >::_Getal
_TEXT	ENDS
; Function compile flags: /Odtp
; File c:\program files (x86)\microsoft visual studio 11.0\vc\include\xstring
;	COMDAT ??0?$_String_alloc@$0A@U?$_String_base_types@DV?$allocator@D@std@@@std@@@std@@QAE@ABV?$allocator@D@1@@Z
_TEXT	SEGMENT
_this$ = -4						; size = 4
___formal$ = 8						; size = 4
??0?$_String_alloc@$0A@U?$_String_base_types@DV?$allocator@D@std@@@std@@@std@@QAE@ABV?$allocator@D@1@@Z PROC ; std::_String_alloc<0,std::_String_base_types<char,std::allocator<char> > >::_String_alloc<0,std::_String_base_types<char,std::allocator<char> > >, COMDAT
; _this$ = ecx

; 635  : 	_String_alloc(const _Alloc& = _Alloc())

	push	ebp
	mov	ebp, esp
	push	ecx
	mov	DWORD PTR _this$[ebp], ecx
	mov	ecx, DWORD PTR _this$[ebp]
	call	??0?$_String_val@U?$_Simple_types@D@std@@@std@@QAE@XZ ; std::_String_val<std::_Simple_types<char> >::_String_val<std::_Simple_types<char> >

; 636  : 		{	// construct allocator from _Al
; 637  : 		}

	mov	eax, DWORD PTR _this$[ebp]
	mov	esp, ebp
	pop	ebp
	ret	4
??0?$_String_alloc@$0A@U?$_String_base_types@DV?$allocator@D@std@@@std@@@std@@QAE@ABV?$allocator@D@1@@Z ENDP ; std::_String_alloc<0,std::_String_base_types<char,std::allocator<char> > >::_String_alloc<0,std::_String_base_types<char,std::allocator<char> > >
_TEXT	ENDS
; Function compile flags: /Odtp
; File c:\program files (x86)\microsoft visual studio 11.0\vc\include\xstring
;	COMDAT ?_Myptr@?$_String_val@U?$_Simple_types@D@std@@@std@@QBEPBDXZ
_TEXT	SEGMENT
tv72 = -8						; size = 4
_this$ = -4						; size = 4
?_Myptr@?$_String_val@U?$_Simple_types@D@std@@@std@@QBEPBDXZ PROC ; std::_String_val<std::_Simple_types<char> >::_Myptr, COMDAT
; _this$ = ecx

; 521  : 		{	// determine current pointer to buffer for nonmutable string

	push	ebp
	mov	ebp, esp
	sub	esp, 8
	mov	DWORD PTR _this$[ebp], ecx

; 522  : 		return (this->_BUF_SIZE <= this->_Myres
; 523  : 			? _STD addressof(*this->_Bx._Ptr)
; 524  : 			: this->_Bx._Buf);

	mov	eax, DWORD PTR _this$[ebp]
	cmp	DWORD PTR [eax+20], 16			; 00000010H
	jb	SHORT $LN3@Myptr
	mov	ecx, DWORD PTR _this$[ebp]
	mov	edx, DWORD PTR [ecx]
	push	edx
	call	??$addressof@D@std@@YAPADAAD@Z		; std::addressof<char>
	add	esp, 4
	mov	DWORD PTR tv72[ebp], eax
	jmp	SHORT $LN4@Myptr
$LN3@Myptr:
	mov	eax, DWORD PTR _this$[ebp]
	mov	DWORD PTR tv72[ebp], eax
$LN4@Myptr:
	mov	eax, DWORD PTR tv72[ebp]

; 525  : 		}

	mov	esp, ebp
	pop	ebp
	ret	0
?_Myptr@?$_String_val@U?$_Simple_types@D@std@@@std@@QBEPBDXZ ENDP ; std::_String_val<std::_Simple_types<char> >::_Myptr
_TEXT	ENDS
; Function compile flags: /Odtp
; File c:\program files (x86)\microsoft visual studio 11.0\vc\include\xstring
;	COMDAT ?_Myptr@?$_String_val@U?$_Simple_types@D@std@@@std@@QAEPADXZ
_TEXT	SEGMENT
tv72 = -8						; size = 4
_this$ = -4						; size = 4
?_Myptr@?$_String_val@U?$_Simple_types@D@std@@@std@@QAEPADXZ PROC ; std::_String_val<std::_Simple_types<char> >::_Myptr, COMDAT
; _this$ = ecx

; 514  : 		{	// determine current pointer to buffer for mutable string

	push	ebp
	mov	ebp, esp
	sub	esp, 8
	mov	DWORD PTR _this$[ebp], ecx

; 515  : 		return (this->_BUF_SIZE <= this->_Myres
; 516  : 			? _STD addressof(*this->_Bx._Ptr)
; 517  : 			: this->_Bx._Buf);

	mov	eax, DWORD PTR _this$[ebp]
	cmp	DWORD PTR [eax+20], 16			; 00000010H
	jb	SHORT $LN3@Myptr
	mov	ecx, DWORD PTR _this$[ebp]
	mov	edx, DWORD PTR [ecx]
	push	edx
	call	??$addressof@D@std@@YAPADAAD@Z		; std::addressof<char>
	add	esp, 4
	mov	DWORD PTR tv72[ebp], eax
	jmp	SHORT $LN4@Myptr
$LN3@Myptr:
	mov	eax, DWORD PTR _this$[ebp]
	mov	DWORD PTR tv72[ebp], eax
$LN4@Myptr:
	mov	eax, DWORD PTR tv72[ebp]

; 518  : 		}

	mov	esp, ebp
	pop	ebp
	ret	0
?_Myptr@?$_String_val@U?$_Simple_types@D@std@@@std@@QAEPADXZ ENDP ; std::_String_val<std::_Simple_types<char> >::_Myptr
_TEXT	ENDS
; Function compile flags: /Odtp
; File c:\program files (x86)\microsoft visual studio 11.0\vc\include\xstring
;	COMDAT ??0?$_String_val@U?$_Simple_types@D@std@@@std@@QAE@XZ
_TEXT	SEGMENT
_this$ = -4						; size = 4
??0?$_String_val@U?$_Simple_types@D@std@@@std@@QAE@XZ PROC ; std::_String_val<std::_Simple_types<char> >::_String_val<std::_Simple_types<char> >, COMDAT
; _this$ = ecx

; 496  : 	_String_val()

	push	ebp
	mov	ebp, esp
	push	ecx
	mov	DWORD PTR _this$[ebp], ecx

; 497  : 		{	// initialize values
; 498  : 		_Mysize = 0;

	mov	eax, DWORD PTR _this$[ebp]
	mov	DWORD PTR [eax+16], 0

; 499  : 		_Myres = 0;

	mov	ecx, DWORD PTR _this$[ebp]
	mov	DWORD PTR [ecx+20], 0

; 500  : 		}

	mov	eax, DWORD PTR _this$[ebp]
	mov	esp, ebp
	pop	ebp
	ret	0
??0?$_String_val@U?$_Simple_types@D@std@@@std@@QAE@XZ ENDP ; std::_String_val<std::_Simple_types<char> >::_String_val<std::_Simple_types<char> >
_TEXT	ENDS
; Function compile flags: /Odtp
; File c:\program files (x86)\microsoft visual studio 11.0\vc\include\xmemory0
;	COMDAT ?max_size@?$_Wrap_alloc@V?$allocator@D@std@@@std@@QBEIXZ
_TEXT	SEGMENT
_this$ = -4						; size = 4
?max_size@?$_Wrap_alloc@V?$allocator@D@std@@@std@@QBEIXZ PROC ; std::_Wrap_alloc<std::allocator<char> >::max_size, COMDAT
; _this$ = ecx

; 913  : 		{	// get maximum size

	push	ebp
	mov	ebp, esp
	push	ecx
	mov	DWORD PTR _this$[ebp], ecx

; 914  : 		return (_Mytraits::max_size(*this));

	mov	eax, DWORD PTR _this$[ebp]
	push	eax
	call	?max_size@?$allocator_traits@V?$allocator@D@std@@@std@@SAIABV?$allocator@D@2@@Z ; std::allocator_traits<std::allocator<char> >::max_size
	add	esp, 4

; 915  : 		}

	mov	esp, ebp
	pop	ebp
	ret	0
?max_size@?$_Wrap_alloc@V?$allocator@D@std@@@std@@QBEIXZ ENDP ; std::_Wrap_alloc<std::allocator<char> >::max_size
_TEXT	ENDS
; Function compile flags: /Odtp
; File c:\program files (x86)\microsoft visual studio 11.0\vc\include\xmemory0
;	COMDAT ?deallocate@?$_Wrap_alloc@V?$allocator@D@std@@@std@@QAEXPADI@Z
_TEXT	SEGMENT
_this$ = -4						; size = 4
__Ptr$ = 8						; size = 4
__Count$ = 12						; size = 4
?deallocate@?$_Wrap_alloc@V?$allocator@D@std@@@std@@QAEXPADI@Z PROC ; std::_Wrap_alloc<std::allocator<char> >::deallocate, COMDAT
; _this$ = ecx

; 886  : 		{	// deallocate object at _Ptr, ignore size

	push	ebp
	mov	ebp, esp
	push	ecx
	mov	DWORD PTR _this$[ebp], ecx

; 887  : 		_Mybase::deallocate(_Ptr, _Count);

	mov	eax, DWORD PTR __Count$[ebp]
	push	eax
	mov	ecx, DWORD PTR __Ptr$[ebp]
	push	ecx
	mov	ecx, DWORD PTR _this$[ebp]
	call	?deallocate@?$allocator@D@std@@QAEXPADI@Z ; std::allocator<char>::deallocate

; 888  : 		}

	mov	esp, ebp
	pop	ebp
	ret	8
?deallocate@?$_Wrap_alloc@V?$allocator@D@std@@@std@@QAEXPADI@Z ENDP ; std::_Wrap_alloc<std::allocator<char> >::deallocate
_TEXT	ENDS
; Function compile flags: /Odtp
; File c:\program files (x86)\microsoft visual studio 11.0\vc\include\xmemory0
;	COMDAT ?allocate@?$_Wrap_alloc@V?$allocator@D@std@@@std@@QAEPADI@Z
_TEXT	SEGMENT
_this$ = -4						; size = 4
__Count$ = 8						; size = 4
?allocate@?$_Wrap_alloc@V?$allocator@D@std@@@std@@QAEPADI@Z PROC ; std::_Wrap_alloc<std::allocator<char> >::allocate, COMDAT
; _this$ = ecx

; 875  : 		{	// allocate array of _Count elements

	push	ebp
	mov	ebp, esp
	push	ecx
	mov	DWORD PTR _this$[ebp], ecx

; 876  : 		return (_Mybase::allocate(_Count));

	mov	eax, DWORD PTR __Count$[ebp]
	push	eax
	mov	ecx, DWORD PTR _this$[ebp]
	call	?allocate@?$allocator@D@std@@QAEPADI@Z	; std::allocator<char>::allocate

; 877  : 		}

	mov	esp, ebp
	pop	ebp
	ret	4
?allocate@?$_Wrap_alloc@V?$allocator@D@std@@@std@@QAEPADI@Z ENDP ; std::_Wrap_alloc<std::allocator<char> >::allocate
_TEXT	ENDS
; Function compile flags: /Odtp
; File c:\program files (x86)\microsoft visual studio 11.0\vc\include\xmemory0
;	COMDAT ??0?$_Wrap_alloc@V?$allocator@D@std@@@std@@QAE@XZ
_TEXT	SEGMENT
_this$ = -4						; size = 4
??0?$_Wrap_alloc@V?$allocator@D@std@@@std@@QAE@XZ PROC	; std::_Wrap_alloc<std::allocator<char> >::_Wrap_alloc<std::allocator<char> >, COMDAT
; _this$ = ecx

; 830  : 		{	// construct default allocator (do nothing)

	push	ebp
	mov	ebp, esp
	push	ecx
	mov	DWORD PTR _this$[ebp], ecx
	mov	ecx, DWORD PTR _this$[ebp]
	call	??0?$allocator@D@std@@QAE@XZ		; std::allocator<char>::allocator<char>

; 831  : 		}

	mov	eax, DWORD PTR _this$[ebp]
	mov	esp, ebp
	pop	ebp
	ret	0
??0?$_Wrap_alloc@V?$allocator@D@std@@@std@@QAE@XZ ENDP	; std::_Wrap_alloc<std::allocator<char> >::_Wrap_alloc<std::allocator<char> >
_TEXT	ENDS
; Function compile flags: /Odtp
; File c:\program files (x86)\microsoft visual studio 11.0\vc\include\xmemory0
;	COMDAT ?max_size@?$allocator_traits@V?$allocator@D@std@@@std@@SAIABV?$allocator@D@2@@Z
_TEXT	SEGMENT
__Al$ = 8						; size = 4
?max_size@?$allocator_traits@V?$allocator@D@std@@@std@@SAIABV?$allocator@D@2@@Z PROC ; std::allocator_traits<std::allocator<char> >::max_size, COMDAT

; 761  : 		{	// get maximum size

	push	ebp
	mov	ebp, esp

; 762  : 		return (_Al.max_size());

	mov	ecx, DWORD PTR __Al$[ebp]
	call	?max_size@?$allocator@D@std@@QBEIXZ	; std::allocator<char>::max_size

; 763  : 		}

	pop	ebp
	ret	0
?max_size@?$allocator_traits@V?$allocator@D@std@@@std@@SAIABV?$allocator@D@2@@Z ENDP ; std::allocator_traits<std::allocator<char> >::max_size
_TEXT	ENDS
; Function compile flags: /Odtp
; File c:\program files (x86)\microsoft visual studio 11.0\vc\include\xmemory0
;	COMDAT ?max_size@?$allocator@D@std@@QBEIXZ
_TEXT	SEGMENT
_this$ = -4						; size = 4
?max_size@?$allocator@D@std@@QBEIXZ PROC		; std::allocator<char>::max_size, COMDAT
; _this$ = ecx

; 627  : 		{	// estimate maximum array size

	push	ebp
	mov	ebp, esp
	push	ecx
	mov	DWORD PTR _this$[ebp], ecx

; 628  : 		return ((size_t)(-1) / sizeof (_Ty));

	or	eax, -1

; 629  : 		}

	mov	esp, ebp
	pop	ebp
	ret	0
?max_size@?$allocator@D@std@@QBEIXZ ENDP		; std::allocator<char>::max_size
_TEXT	ENDS
; Function compile flags: /Odtp
; File c:\program files (x86)\microsoft visual studio 11.0\vc\include\xmemory0
;	COMDAT ?allocate@?$allocator@D@std@@QAEPADI@Z
_TEXT	SEGMENT
_this$ = -4						; size = 4
__Count$ = 8						; size = 4
?allocate@?$allocator@D@std@@QAEPADI@Z PROC		; std::allocator<char>::allocate, COMDAT
; _this$ = ecx

; 590  : 		{	// allocate array of _Count elements

	push	ebp
	mov	ebp, esp
	push	ecx
	mov	DWORD PTR _this$[ebp], ecx

; 591  : 		return (_Allocate(_Count, (pointer)0));

	push	0
	mov	eax, DWORD PTR __Count$[ebp]
	push	eax
	call	??$_Allocate@D@std@@YAPADIPAD@Z		; std::_Allocate<char>
	add	esp, 8

; 592  : 		}

	mov	esp, ebp
	pop	ebp
	ret	4
?allocate@?$allocator@D@std@@QAEPADI@Z ENDP		; std::allocator<char>::allocate
_TEXT	ENDS
; Function compile flags: /Odtp
; File c:\program files (x86)\microsoft visual studio 11.0\vc\include\xmemory0
;	COMDAT ?deallocate@?$allocator@D@std@@QAEXPADI@Z
_TEXT	SEGMENT
_this$ = -4						; size = 4
__Ptr$ = 8						; size = 4
___formal$ = 12						; size = 4
?deallocate@?$allocator@D@std@@QAEXPADI@Z PROC		; std::allocator<char>::deallocate, COMDAT
; _this$ = ecx

; 585  : 		{	// deallocate object at _Ptr, ignore size

	push	ebp
	mov	ebp, esp
	push	ecx
	mov	DWORD PTR _this$[ebp], ecx

; 586  : 		::operator delete(_Ptr);

	mov	eax, DWORD PTR __Ptr$[ebp]
	push	eax
	call	??3@YAXPAX@Z				; operator delete
	add	esp, 4

; 587  : 		}

	mov	esp, ebp
	pop	ebp
	ret	8
?deallocate@?$allocator@D@std@@QAEXPADI@Z ENDP		; std::allocator<char>::deallocate
_TEXT	ENDS
; Function compile flags: /Odtp
; File c:\program files (x86)\microsoft visual studio 11.0\vc\include\xmemory0
;	COMDAT ??0?$allocator@D@std@@QAE@XZ
_TEXT	SEGMENT
_this$ = -4						; size = 4
??0?$allocator@D@std@@QAE@XZ PROC			; std::allocator<char>::allocator<char>, COMDAT
; _this$ = ecx

; 565  : 	allocator() _THROW0()

	push	ebp
	mov	ebp, esp
	push	ecx
	mov	DWORD PTR _this$[ebp], ecx

; 566  : 		{	// construct default allocator (do nothing)
; 567  : 		}

	mov	eax, DWORD PTR _this$[ebp]
	mov	esp, ebp
	pop	ebp
	ret	0
??0?$allocator@D@std@@QAE@XZ ENDP			; std::allocator<char>::allocator<char>
_TEXT	ENDS
; Function compile flags: /Odtp
; File c:\program files (x86)\microsoft visual studio 11.0\vc\include\xutility
;	COMDAT ??__Eallocator_arg@std@@YAXXZ
text$yc	SEGMENT
$T1 = -1						; size = 1
??__Eallocator_arg@std@@YAXXZ PROC			; std::`dynamic initializer for 'allocator_arg'', COMDAT

; 3644 : const allocator_arg_t allocator_arg = allocator_arg_t();

	push	ebp
	mov	ebp, esp
	push	ecx
	xor	eax, eax
	mov	BYTE PTR $T1[ebp], al
	mov	esp, ebp
	pop	ebp
	ret	0
??__Eallocator_arg@std@@YAXXZ ENDP			; std::`dynamic initializer for 'allocator_arg''
text$yc	ENDS
; Function compile flags: /Odtp
; File c:\program files (x86)\microsoft visual studio 11.0\vc\include\utility
;	COMDAT ??__Epiecewise_construct@std@@YAXXZ
text$yc	SEGMENT
$T1 = -1						; size = 1
??__Epiecewise_construct@std@@YAXXZ PROC		; std::`dynamic initializer for 'piecewise_construct'', COMDAT

; 65   : 	piecewise_construct_t();

	push	ebp
	mov	ebp, esp
	push	ecx
	xor	eax, eax
	mov	BYTE PTR $T1[ebp], al
	mov	esp, ebp
	pop	ebp
	ret	0
??__Epiecewise_construct@std@@YAXXZ ENDP		; std::`dynamic initializer for 'piecewise_construct''
text$yc	ENDS
; Function compile flags: /Odtp
; File c:\program files (x86)\microsoft visual studio 11.0\vc\include\iosfwd
;	COMDAT ?assign@?$char_traits@D@std@@SAXAADABD@Z
_TEXT	SEGMENT
__Left$ = 8						; size = 4
__Right$ = 12						; size = 4
?assign@?$char_traits@D@std@@SAXAADABD@Z PROC		; std::char_traits<char>::assign, COMDAT

; 563  : 		{	// assign an element

	push	ebp
	mov	ebp, esp

; 564  : 		_Left = _Right;

	mov	eax, DWORD PTR __Left$[ebp]
	mov	ecx, DWORD PTR __Right$[ebp]
	mov	dl, BYTE PTR [ecx]
	mov	BYTE PTR [eax], dl

; 565  : 		}

	pop	ebp
	ret	0
?assign@?$char_traits@D@std@@SAXAADABD@Z ENDP		; std::char_traits<char>::assign
_TEXT	ENDS
; Function compile flags: /Odtp
; File c:\program files (x86)\microsoft visual studio 11.0\vc\include\iosfwd
;	COMDAT ?move@?$char_traits@D@std@@SAPADPADPBDI@Z
_TEXT	SEGMENT
tv69 = -4						; size = 4
__First1$ = 8						; size = 4
__First2$ = 12						; size = 4
__Count$ = 16						; size = 4
?move@?$char_traits@D@std@@SAPADPADPBDI@Z PROC		; std::char_traits<char>::move, COMDAT

; 551  : 		{	// copy [_First2, _First2 + _Count) to [_First1, ...)

	push	ebp
	mov	ebp, esp
	push	ecx

; 552  : 		return (_Count == 0 ? _First1
; 553  : 			: (_Elem *)_CSTD memmove(_First1, _First2, _Count));

	cmp	DWORD PTR __Count$[ebp], 0
	jne	SHORT $LN3@move
	mov	eax, DWORD PTR __First1$[ebp]
	mov	DWORD PTR tv69[ebp], eax
	jmp	SHORT $LN4@move
$LN3@move:
	mov	ecx, DWORD PTR __Count$[ebp]
	push	ecx
	mov	edx, DWORD PTR __First2$[ebp]
	push	edx
	mov	eax, DWORD PTR __First1$[ebp]
	push	eax
	call	_memmove
	add	esp, 12					; 0000000cH
	mov	DWORD PTR tv69[ebp], eax
$LN4@move:
	mov	eax, DWORD PTR tv69[ebp]

; 554  : 		}

	mov	esp, ebp
	pop	ebp
	ret	0
?move@?$char_traits@D@std@@SAPADPADPBDI@Z ENDP		; std::char_traits<char>::move
_TEXT	ENDS
; Function compile flags: /Odtp
; File c:\program files (x86)\microsoft visual studio 11.0\vc\include\iosfwd
;	COMDAT ?copy@?$char_traits@D@std@@SAPADPADPBDI@Z
_TEXT	SEGMENT
tv69 = -4						; size = 4
__First1$ = 8						; size = 4
__First2$ = 12						; size = 4
__Count$ = 16						; size = 4
?copy@?$char_traits@D@std@@SAPADPADPBDI@Z PROC		; std::char_traits<char>::copy, COMDAT

; 528  : 		{	// copy [_First2, _First2 + _Count) to [_First1, ...)

	push	ebp
	mov	ebp, esp
	push	ecx

; 529  : 		return (_Count == 0 ? _First1
; 530  : 			: (_Elem *)_CSTD memcpy(_First1, _First2, _Count));

	cmp	DWORD PTR __Count$[ebp], 0
	jne	SHORT $LN3@copy
	mov	eax, DWORD PTR __First1$[ebp]
	mov	DWORD PTR tv69[ebp], eax
	jmp	SHORT $LN4@copy
$LN3@copy:
	mov	ecx, DWORD PTR __Count$[ebp]
	push	ecx
	mov	edx, DWORD PTR __First2$[ebp]
	push	edx
	mov	eax, DWORD PTR __First1$[ebp]
	push	eax
	call	_memcpy
	add	esp, 12					; 0000000cH
	mov	DWORD PTR tv69[ebp], eax
$LN4@copy:
	mov	eax, DWORD PTR tv69[ebp]

; 531  : 		}

	mov	esp, ebp
	pop	ebp
	ret	0
?copy@?$char_traits@D@std@@SAPADPADPBDI@Z ENDP		; std::char_traits<char>::copy
_TEXT	ENDS
; Function compile flags: /Odtp
; File c:\program files (x86)\microsoft visual studio 11.0\vc\include\iosfwd
;	COMDAT ?length@?$char_traits@D@std@@SAIPBD@Z
_TEXT	SEGMENT
tv68 = -4						; size = 4
__First$ = 8						; size = 4
?length@?$char_traits@D@std@@SAIPBD@Z PROC		; std::char_traits<char>::length, COMDAT

; 521  : 		{	// find length of null-terminated string

	push	ebp
	mov	ebp, esp
	push	ecx

; 522  : 		return (*_First == 0 ? 0
; 523  : 			: _CSTD strlen(_First));

	mov	eax, DWORD PTR __First$[ebp]
	movsx	ecx, BYTE PTR [eax]
	test	ecx, ecx
	jne	SHORT $LN3@length
	mov	DWORD PTR tv68[ebp], 0
	jmp	SHORT $LN4@length
$LN3@length:
	mov	edx, DWORD PTR __First$[ebp]
	push	edx
	call	_strlen
	add	esp, 4
	mov	DWORD PTR tv68[ebp], eax
$LN4@length:
	mov	eax, DWORD PTR tv68[ebp]

; 524  : 		}

	mov	esp, ebp
	pop	ebp
	ret	0
?length@?$char_traits@D@std@@SAIPBD@Z ENDP		; std::char_traits<char>::length
_TEXT	ENDS
; Function compile flags: /Odtp
; File c:\program files (x86)\microsoft visual studio 11.0\vc\include\new
;	COMDAT ??3@YAXPAX0@Z
_TEXT	SEGMENT
___formal$ = 8						; size = 4
___formal$ = 12						; size = 4
??3@YAXPAX0@Z PROC					; operator delete, COMDAT

; 64   : 	{	// delete if placement new fails

	push	ebp
	mov	ebp, esp

; 65   : 	}

	pop	ebp
	ret	0
??3@YAXPAX0@Z ENDP					; operator delete
_TEXT	ENDS
; Function compile flags: /Odtp
; File c:\program files (x86)\microsoft visual studio 11.0\vc\include\new
;	COMDAT ??2@YAPAXIPAX@Z
_TEXT	SEGMENT
___formal$ = 8						; size = 4
__Where$ = 12						; size = 4
??2@YAPAXIPAX@Z PROC					; operator new, COMDAT

; 59   : 	{	// construct array with placement at _Where

	push	ebp
	mov	ebp, esp

; 60   : 	return (_Where);

	mov	eax, DWORD PTR __Where$[ebp]

; 61   : 	}

	pop	ebp
	ret	0
??2@YAPAXIPAX@Z ENDP					; operator new
_TEXT	ENDS
; Function compile flags: /Odtp
; File c:\users\zhitao li\documents\visual studio 2012\projects\freefalcon\vu2\include\vuentity.h
;	COMDAT ?Id@VuEntity@@QBE?AVVU_ID@@XZ
_TEXT	SEGMENT
_this$ = -4						; size = 4
___$ReturnUdt$ = 8					; size = 4
?Id@VuEntity@@QBE?AVVU_ID@@XZ PROC			; VuEntity::Id, COMDAT
; _this$ = ecx

; 131  : 	VU_ID Id() const	{ return share_.id_; }

	push	ebp
	mov	ebp, esp
	push	ecx
	mov	DWORD PTR _this$[ebp], ecx
	mov	eax, DWORD PTR _this$[ebp]
	mov	ecx, DWORD PTR [eax+12]
	mov	edx, DWORD PTR [eax+16]
	mov	eax, DWORD PTR ___$ReturnUdt$[ebp]
	mov	DWORD PTR [eax], ecx
	mov	DWORD PTR [eax+4], edx
	mov	eax, DWORD PTR ___$ReturnUdt$[ebp]
	mov	esp, ebp
	pop	ebp
	ret	4
?Id@VuEntity@@QBE?AVVU_ID@@XZ ENDP			; VuEntity::Id
_TEXT	ENDS
END
