; Listing generated by Microsoft (R) Optimizing Compiler Version 17.00.51106.1 

	TITLE	C:\Users\Zhitao Li\Documents\Visual Studio 2012\Projects\Freefalcon\SIM\SIMINPUT\sijoy.cpp
	.686P
	.XMM
	include listing.inc
	.model	flat

INCLUDELIB LIBCMT
INCLUDELIB OLDNAMES

PUBLIC	?digits@?$numeric_limits@_K@std@@2HB		; std::numeric_limits<unsigned __int64>::digits
PUBLIC	?digits10@?$numeric_limits@_K@std@@2HB		; std::numeric_limits<unsigned __int64>::digits10
PUBLIC	?digits@?$numeric_limits@M@std@@2HB		; std::numeric_limits<float>::digits
PUBLIC	?digits10@?$numeric_limits@M@std@@2HB		; std::numeric_limits<float>::digits10
PUBLIC	?max_digits10@?$numeric_limits@M@std@@2HB	; std::numeric_limits<float>::max_digits10
PUBLIC	?max_exponent@?$numeric_limits@M@std@@2HB	; std::numeric_limits<float>::max_exponent
PUBLIC	?max_exponent10@?$numeric_limits@M@std@@2HB	; std::numeric_limits<float>::max_exponent10
PUBLIC	?min_exponent@?$numeric_limits@M@std@@2HB	; std::numeric_limits<float>::min_exponent
PUBLIC	?min_exponent10@?$numeric_limits@M@std@@2HB	; std::numeric_limits<float>::min_exponent10
PUBLIC	?skipws@?$_Iosb@H@std@@2W4_Fmtflags@12@B	; std::_Iosb<int>::skipws
PUBLIC	?unitbuf@?$_Iosb@H@std@@2W4_Fmtflags@12@B	; std::_Iosb<int>::unitbuf
PUBLIC	?uppercase@?$_Iosb@H@std@@2W4_Fmtflags@12@B	; std::_Iosb<int>::uppercase
PUBLIC	?showbase@?$_Iosb@H@std@@2W4_Fmtflags@12@B	; std::_Iosb<int>::showbase
PUBLIC	?showpoint@?$_Iosb@H@std@@2W4_Fmtflags@12@B	; std::_Iosb<int>::showpoint
PUBLIC	?showpos@?$_Iosb@H@std@@2W4_Fmtflags@12@B	; std::_Iosb<int>::showpos
PUBLIC	?left@?$_Iosb@H@std@@2W4_Fmtflags@12@B		; std::_Iosb<int>::left
PUBLIC	?right@?$_Iosb@H@std@@2W4_Fmtflags@12@B		; std::_Iosb<int>::right
PUBLIC	?value@?$integral_constant@I$0A@@std@@2IB	; std::integral_constant<unsigned int,0>::value
PUBLIC	?digits@?$numeric_limits@N@std@@2HB		; std::numeric_limits<double>::digits
PUBLIC	?internal@?$_Iosb@H@std@@2W4_Fmtflags@12@B	; std::_Iosb<int>::internal
PUBLIC	?digits10@?$numeric_limits@N@std@@2HB		; std::numeric_limits<double>::digits10
PUBLIC	?dec@?$_Iosb@H@std@@2W4_Fmtflags@12@B		; std::_Iosb<int>::dec
PUBLIC	?max_digits10@?$numeric_limits@N@std@@2HB	; std::numeric_limits<double>::max_digits10
PUBLIC	?oct@?$_Iosb@H@std@@2W4_Fmtflags@12@B		; std::_Iosb<int>::oct
PUBLIC	?max_exponent@?$numeric_limits@N@std@@2HB	; std::numeric_limits<double>::max_exponent
PUBLIC	?hex@?$_Iosb@H@std@@2W4_Fmtflags@12@B		; std::_Iosb<int>::hex
PUBLIC	?scientific@?$_Iosb@H@std@@2W4_Fmtflags@12@B	; std::_Iosb<int>::scientific
PUBLIC	?max_exponent10@?$numeric_limits@N@std@@2HB	; std::numeric_limits<double>::max_exponent10
PUBLIC	?fixed@?$_Iosb@H@std@@2W4_Fmtflags@12@B		; std::_Iosb<int>::fixed
PUBLIC	?min_exponent@?$numeric_limits@N@std@@2HB	; std::numeric_limits<double>::min_exponent
PUBLIC	?hexfloat@?$_Iosb@H@std@@2W4_Fmtflags@12@B	; std::_Iosb<int>::hexfloat
PUBLIC	?boolalpha@?$_Iosb@H@std@@2W4_Fmtflags@12@B	; std::_Iosb<int>::boolalpha
PUBLIC	?min_exponent10@?$numeric_limits@N@std@@2HB	; std::numeric_limits<double>::min_exponent10
PUBLIC	?_Stdio@?$_Iosb@H@std@@2W4_Fmtflags@12@B	; std::_Iosb<int>::_Stdio
PUBLIC	?adjustfield@?$_Iosb@H@std@@2W4_Fmtflags@12@B	; std::_Iosb<int>::adjustfield
PUBLIC	?basefield@?$_Iosb@H@std@@2W4_Fmtflags@12@B	; std::_Iosb<int>::basefield
PUBLIC	?floatfield@?$_Iosb@H@std@@2W4_Fmtflags@12@B	; std::_Iosb<int>::floatfield
PUBLIC	?goodbit@?$_Iosb@H@std@@2W4_Iostate@12@B	; std::_Iosb<int>::goodbit
PUBLIC	?eofbit@?$_Iosb@H@std@@2W4_Iostate@12@B		; std::_Iosb<int>::eofbit
PUBLIC	?failbit@?$_Iosb@H@std@@2W4_Iostate@12@B	; std::_Iosb<int>::failbit
PUBLIC	?badbit@?$_Iosb@H@std@@2W4_Iostate@12@B		; std::_Iosb<int>::badbit
PUBLIC	?_Hardfail@?$_Iosb@H@std@@2W4_Iostate@12@B	; std::_Iosb<int>::_Hardfail
PUBLIC	?digits@?$numeric_limits@O@std@@2HB		; std::numeric_limits<long double>::digits
PUBLIC	?digits10@?$numeric_limits@O@std@@2HB		; std::numeric_limits<long double>::digits10
PUBLIC	?in@?$_Iosb@H@std@@2W4_Openmode@12@B		; std::_Iosb<int>::in
PUBLIC	?max_digits10@?$numeric_limits@O@std@@2HB	; std::numeric_limits<long double>::max_digits10
PUBLIC	?out@?$_Iosb@H@std@@2W4_Openmode@12@B		; std::_Iosb<int>::out
PUBLIC	?ate@?$_Iosb@H@std@@2W4_Openmode@12@B		; std::_Iosb<int>::ate
PUBLIC	?max_exponent@?$numeric_limits@O@std@@2HB	; std::numeric_limits<long double>::max_exponent
PUBLIC	?app@?$_Iosb@H@std@@2W4_Openmode@12@B		; std::_Iosb<int>::app
PUBLIC	?max_exponent10@?$numeric_limits@O@std@@2HB	; std::numeric_limits<long double>::max_exponent10
PUBLIC	?trunc@?$_Iosb@H@std@@2W4_Openmode@12@B		; std::_Iosb<int>::trunc
PUBLIC	?min_exponent@?$numeric_limits@O@std@@2HB	; std::numeric_limits<long double>::min_exponent
PUBLIC	?_Nocreate@?$_Iosb@H@std@@2W4_Openmode@12@B	; std::_Iosb<int>::_Nocreate
PUBLIC	?min_exponent10@?$numeric_limits@O@std@@2HB	; std::numeric_limits<long double>::min_exponent10
PUBLIC	?_Noreplace@?$_Iosb@H@std@@2W4_Openmode@12@B	; std::_Iosb<int>::_Noreplace
PUBLIC	?binary@?$_Iosb@H@std@@2W4_Openmode@12@B	; std::_Iosb<int>::binary
PUBLIC	?beg@?$_Iosb@H@std@@2W4_Seekdir@12@B		; std::_Iosb<int>::beg
PUBLIC	?cur@?$_Iosb@H@std@@2W4_Seekdir@12@B		; std::_Iosb<int>::cur
PUBLIC	?end@?$_Iosb@H@std@@2W4_Seekdir@12@B		; std::_Iosb<int>::end
PUBLIC	?_Stream_err@failure@ios_base@std@@0W4io_errc@43@B ; std::ios_base::failure::_Stream_err
PUBLIC	?value@?$_Sizeof@U_Nil@std@@U12@U12@U12@U12@U12@U12@U12@@std@@2IB ; std::_Sizeof<std::_Nil,std::_Nil,std::_Nil,std::_Nil,std::_Nil,std::_Nil,std::_Nil,std::_Nil>::value
PUBLIC	?has_denorm@_Num_base@std@@2W4float_denorm_style@2@B ; std::_Num_base::has_denorm
PUBLIC	?has_denorm_loss@_Num_base@std@@2_NB		; std::_Num_base::has_denorm_loss
PUBLIC	?has_infinity@_Num_base@std@@2_NB		; std::_Num_base::has_infinity
PUBLIC	?has_quiet_NaN@_Num_base@std@@2_NB		; std::_Num_base::has_quiet_NaN
PUBLIC	?has_signaling_NaN@_Num_base@std@@2_NB		; std::_Num_base::has_signaling_NaN
PUBLIC	?is_bounded@_Num_base@std@@2_NB			; std::_Num_base::is_bounded
PUBLIC	?is_exact@_Num_base@std@@2_NB			; std::_Num_base::is_exact
PUBLIC	?is_iec559@_Num_base@std@@2_NB			; std::_Num_base::is_iec559
PUBLIC	?is_integer@_Num_base@std@@2_NB			; std::_Num_base::is_integer
PUBLIC	?is_modulo@_Num_base@std@@2_NB			; std::_Num_base::is_modulo
PUBLIC	?is_signed@_Num_base@std@@2_NB			; std::_Num_base::is_signed
PUBLIC	?is_specialized@_Num_base@std@@2_NB		; std::_Num_base::is_specialized
PUBLIC	?tinyness_before@_Num_base@std@@2_NB		; std::_Num_base::tinyness_before
PUBLIC	?traps@_Num_base@std@@2_NB			; std::_Num_base::traps
PUBLIC	?round_style@_Num_base@std@@2W4float_round_style@2@B ; std::_Num_base::round_style
PUBLIC	?digits@_Num_base@std@@2HB			; std::_Num_base::digits
PUBLIC	?digits10@_Num_base@std@@2HB			; std::_Num_base::digits10
PUBLIC	?max_digits10@_Num_base@std@@2HB		; std::_Num_base::max_digits10
PUBLIC	?max_exponent@_Num_base@std@@2HB		; std::_Num_base::max_exponent
PUBLIC	?max_exponent10@_Num_base@std@@2HB		; std::_Num_base::max_exponent10
PUBLIC	?min_exponent@_Num_base@std@@2HB		; std::_Num_base::min_exponent
PUBLIC	?min_exponent10@_Num_base@std@@2HB		; std::_Num_base::min_exponent10
PUBLIC	?radix@_Num_base@std@@2HB			; std::_Num_base::radix
PUBLIC	?is_bounded@_Num_int_base@std@@2_NB		; std::_Num_int_base::is_bounded
PUBLIC	?is_exact@_Num_int_base@std@@2_NB		; std::_Num_int_base::is_exact
PUBLIC	?is_integer@_Num_int_base@std@@2_NB		; std::_Num_int_base::is_integer
PUBLIC	?is_modulo@_Num_int_base@std@@2_NB		; std::_Num_int_base::is_modulo
PUBLIC	?is_specialized@_Num_int_base@std@@2_NB		; std::_Num_int_base::is_specialized
PUBLIC	?radix@_Num_int_base@std@@2HB			; std::_Num_int_base::radix
PUBLIC	?collate@?$_Locbase@H@std@@2HB			; std::_Locbase<int>::collate
PUBLIC	?ctype@?$_Locbase@H@std@@2HB			; std::_Locbase<int>::ctype
PUBLIC	?monetary@?$_Locbase@H@std@@2HB			; std::_Locbase<int>::monetary
PUBLIC	?numeric@?$_Locbase@H@std@@2HB			; std::_Locbase<int>::numeric
PUBLIC	?has_denorm@_Num_float_base@std@@2W4float_denorm_style@2@B ; std::_Num_float_base::has_denorm
PUBLIC	?time@?$_Locbase@H@std@@2HB			; std::_Locbase<int>::time
PUBLIC	?messages@?$_Locbase@H@std@@2HB			; std::_Locbase<int>::messages
PUBLIC	?has_denorm_loss@_Num_float_base@std@@2_NB	; std::_Num_float_base::has_denorm_loss
PUBLIC	?SIMDIRTYDATA_INTERVAL@FalconEntity@@2KB	; FalconEntity::SIMDIRTYDATA_INTERVAL
PUBLIC	?all@?$_Locbase@H@std@@2HB			; std::_Locbase<int>::all
PUBLIC	?CMPDIRTYDATA_INTERVAL@FalconEntity@@2KB	; FalconEntity::CMPDIRTYDATA_INTERVAL
PUBLIC	?has_infinity@_Num_float_base@std@@2_NB		; std::_Num_float_base::has_infinity
PUBLIC	?none@?$_Locbase@H@std@@2HB			; std::_Locbase<int>::none
PUBLIC	?has_quiet_NaN@_Num_float_base@std@@2_NB	; std::_Num_float_base::has_quiet_NaN
PUBLIC	?has_signaling_NaN@_Num_float_base@std@@2_NB	; std::_Num_float_base::has_signaling_NaN
PUBLIC	?is_bounded@_Num_float_base@std@@2_NB		; std::_Num_float_base::is_bounded
PUBLIC	?is_exact@_Num_float_base@std@@2_NB		; std::_Num_float_base::is_exact
PUBLIC	?is_iec559@_Num_float_base@std@@2_NB		; std::_Num_float_base::is_iec559
PUBLIC	?is_integer@_Num_float_base@std@@2_NB		; std::_Num_float_base::is_integer
PUBLIC	?is_modulo@_Num_float_base@std@@2_NB		; std::_Num_float_base::is_modulo
PUBLIC	?is_signed@_Num_float_base@std@@2_NB		; std::_Num_float_base::is_signed
PUBLIC	?is_specialized@_Num_float_base@std@@2_NB	; std::_Num_float_base::is_specialized
PUBLIC	?tinyness_before@_Num_float_base@std@@2_NB	; std::_Num_float_base::tinyness_before
PUBLIC	?traps@_Num_float_base@std@@2_NB		; std::_Num_float_base::traps
PUBLIC	?round_style@_Num_float_base@std@@2W4float_round_style@2@B ; std::_Num_float_base::round_style
PUBLIC	?radix@_Num_float_base@std@@2HB			; std::_Num_float_base::radix
PUBLIC	?center@@3HA					; center
PUBLIC	?setABdetent@@3HA				; setABdetent
PUBLIC	?setIdleCutoff@@3HA				; setIdleCutoff
PUBLIC	?mHelmetIsUR@@3JA				; mHelmetIsUR
PUBLIC	?mHelmetID@@3JA					; mHelmetID
PUBLIC	?UR_HEAD_VIEW@@3MA				; UR_HEAD_VIEW
PUBLIC	?UR_PREV_X@@3MA					; UR_PREV_X
PUBLIC	?UR_PREV_Y@@3MA					; UR_PREV_Y
PUBLIC	?is_signed@?$numeric_limits@D@std@@2_NB		; std::numeric_limits<char>::is_signed
PUBLIC	?digits@?$numeric_limits@D@std@@2HB		; std::numeric_limits<char>::digits
PUBLIC	?digits10@?$numeric_limits@D@std@@2HB		; std::numeric_limits<char>::digits10
PUBLIC	?is_signed@?$numeric_limits@_W@std@@2_NB	; std::numeric_limits<wchar_t>::is_signed
PUBLIC	?digits@?$numeric_limits@_W@std@@2HB		; std::numeric_limits<wchar_t>::digits
PUBLIC	?digits10@?$numeric_limits@_W@std@@2HB		; std::numeric_limits<wchar_t>::digits10
PUBLIC	?table_size@?$ctype@D@std@@2IB			; std::ctype<char>::table_size
PUBLIC	?hasForceFeedback@@3HA				; hasForceFeedback
PUBLIC	?NumberOfPOVs@@3IA				; NumberOfPOVs
PUBLIC	?is_modulo@?$numeric_limits@_N@std@@2_NB	; std::numeric_limits<bool>::is_modulo
PUBLIC	?gForceFeedbackEffect@@3PAPAUIDirectInputEffect@@A ; gForceFeedbackEffect
PUBLIC	?is_signed@?$numeric_limits@_N@std@@2_NB	; std::numeric_limits<bool>::is_signed
PUBLIC	?gForceEffectIsRepeating@@3PAHA			; gForceEffectIsRepeating
PUBLIC	?gForceEffectHasDirection@@3PAHA		; gForceEffectHasDirection
PUBLIC	?gNumEffectsLoaded@@3HA				; gNumEffectsLoaded
PUBLIC	?digits@?$numeric_limits@_N@std@@2HB		; std::numeric_limits<bool>::digits
PUBLIC	?g_nThrottleID@@3HA				; g_nThrottleID
PUBLIC	?digits10@?$numeric_limits@_N@std@@2HB		; std::numeric_limits<bool>::digits10
PUBLIC	?throttleInactiveValue@@3JA			; throttleInactiveValue
PUBLIC	?throttleInactive@@3_NA				; throttleInactive
PUBLIC	?is_signed@?$numeric_limits@C@std@@2_NB		; std::numeric_limits<signed char>::is_signed
PUBLIC	?digits@?$numeric_limits@C@std@@2HB		; std::numeric_limits<signed char>::digits
PUBLIC	?digits10@?$numeric_limits@C@std@@2HB		; std::numeric_limits<signed char>::digits10
PUBLIC	?is_signed@?$numeric_limits@E@std@@2_NB		; std::numeric_limits<unsigned char>::is_signed
PUBLIC	?value@?$integral_constant@_N$0A@@std@@2_NB	; std::integral_constant<bool,0>::value
PUBLIC	?digits@?$numeric_limits@E@std@@2HB		; std::numeric_limits<unsigned char>::digits
PUBLIC	?digits10@?$numeric_limits@E@std@@2HB		; std::numeric_limits<unsigned char>::digits10
PUBLIC	?value@?$integral_constant@_N$00@std@@2_NB	; std::integral_constant<bool,1>::value
PUBLIC	?is_signed@?$numeric_limits@F@std@@2_NB		; std::numeric_limits<short>::is_signed
PUBLIC	?digits@?$numeric_limits@F@std@@2HB		; std::numeric_limits<short>::digits
PUBLIC	?digits10@?$numeric_limits@F@std@@2HB		; std::numeric_limits<short>::digits10
PUBLIC	?is_signed@?$numeric_limits@G@std@@2_NB		; std::numeric_limits<unsigned short>::is_signed
PUBLIC	?digits@?$numeric_limits@G@std@@2HB		; std::numeric_limits<unsigned short>::digits
PUBLIC	?digits10@?$numeric_limits@G@std@@2HB		; std::numeric_limits<unsigned short>::digits10
PUBLIC	?is_signed@?$numeric_limits@H@std@@2_NB		; std::numeric_limits<int>::is_signed
PUBLIC	?value@?$_Sizeof@HU_Nil@std@@U12@U12@U12@U12@U12@U12@@std@@2IB ; std::_Sizeof<int,std::_Nil,std::_Nil,std::_Nil,std::_Nil,std::_Nil,std::_Nil,std::_Nil>::value
PUBLIC	?digits@?$numeric_limits@H@std@@2HB		; std::numeric_limits<int>::digits
PUBLIC	?digits10@?$numeric_limits@H@std@@2HB		; std::numeric_limits<int>::digits10
PUBLIC	?is_signed@?$numeric_limits@I@std@@2_NB		; std::numeric_limits<unsigned int>::is_signed
PUBLIC	?digits@?$numeric_limits@I@std@@2HB		; std::numeric_limits<unsigned int>::digits
PUBLIC	?digits10@?$numeric_limits@I@std@@2HB		; std::numeric_limits<unsigned int>::digits10
PUBLIC	?is_signed@?$numeric_limits@J@std@@2_NB		; std::numeric_limits<long>::is_signed
PUBLIC	?digits@?$numeric_limits@J@std@@2HB		; std::numeric_limits<long>::digits
PUBLIC	?digits10@?$numeric_limits@J@std@@2HB		; std::numeric_limits<long>::digits10
PUBLIC	?is_signed@?$numeric_limits@K@std@@2_NB		; std::numeric_limits<unsigned long>::is_signed
PUBLIC	?digits@?$numeric_limits@K@std@@2HB		; std::numeric_limits<unsigned long>::digits
PUBLIC	?digits10@?$numeric_limits@K@std@@2HB		; std::numeric_limits<unsigned long>::digits10
PUBLIC	?is_signed@?$numeric_limits@_J@std@@2_NB	; std::numeric_limits<__int64>::is_signed
PUBLIC	?digits@?$numeric_limits@_J@std@@2HB		; std::numeric_limits<__int64>::digits
PUBLIC	?digits10@?$numeric_limits@_J@std@@2HB		; std::numeric_limits<__int64>::digits10
PUBLIC	?is_signed@?$numeric_limits@_K@std@@2_NB	; std::numeric_limits<unsigned __int64>::is_signed
_BSS	SEGMENT
_LastPressed DD	0200H DUP (?)
_LastPressedPOV DD 04H DUP (?)
_LastDirPOV DD	04H DUP (?)
?center@@3HA DD	01H DUP (?)				; center
?setABdetent@@3HA DD 01H DUP (?)			; setABdetent
?setIdleCutoff@@3HA DD 01H DUP (?)			; setIdleCutoff
?mHelmetIsUR@@3JA DD 01H DUP (?)			; mHelmetIsUR
?mHelmetID@@3JA DD 01H DUP (?)				; mHelmetID
?UR_PREV_X@@3MA DD 01H DUP (?)				; UR_PREV_X
?UR_PREV_Y@@3MA DD 01H DUP (?)				; UR_PREV_Y
_JoyOutput DD	02cH DUP (?)
?hasForceFeedback@@3HA DD 01H DUP (?)			; hasForceFeedback
?NumberOfPOVs@@3IA DD 01H DUP (?)			; NumberOfPOVs
?gForceFeedbackEffect@@3PAPAUIDirectInputEffect@@A DD 01H DUP (?) ; gForceFeedbackEffect
?gForceEffectIsRepeating@@3PAHA DD 01H DUP (?)		; gForceEffectIsRepeating
?gForceEffectHasDirection@@3PAHA DD 01H DUP (?)		; gForceEffectHasDirection
?gNumEffectsLoaded@@3HA DD 01H DUP (?)			; gNumEffectsLoaded
?throttleInactiveValue@@3JA DD 01H DUP (?)		; throttleInactiveValue
?throttleInactive@@3_NA DB 01H DUP (?)			; throttleInactive
	ALIGN	4

_AxisCount DD	01H DUP (?)
_BSS	ENDS
;	COMDAT ?is_signed@?$numeric_limits@_K@std@@2_NB
CONST	SEGMENT
?is_signed@?$numeric_limits@_K@std@@2_NB DB 00H		; std::numeric_limits<unsigned __int64>::is_signed
CONST	ENDS
;	COMDAT ?digits10@?$numeric_limits@_J@std@@2HB
CONST	SEGMENT
?digits10@?$numeric_limits@_J@std@@2HB DD 012H		; std::numeric_limits<__int64>::digits10
CONST	ENDS
;	COMDAT ?digits@?$numeric_limits@_J@std@@2HB
CONST	SEGMENT
?digits@?$numeric_limits@_J@std@@2HB DD 03fH		; std::numeric_limits<__int64>::digits
CONST	ENDS
;	COMDAT ?is_signed@?$numeric_limits@_J@std@@2_NB
CONST	SEGMENT
?is_signed@?$numeric_limits@_J@std@@2_NB DB 01H		; std::numeric_limits<__int64>::is_signed
CONST	ENDS
;	COMDAT ?digits10@?$numeric_limits@K@std@@2HB
CONST	SEGMENT
?digits10@?$numeric_limits@K@std@@2HB DD 09H		; std::numeric_limits<unsigned long>::digits10
CONST	ENDS
;	COMDAT ?digits@?$numeric_limits@K@std@@2HB
CONST	SEGMENT
?digits@?$numeric_limits@K@std@@2HB DD 020H		; std::numeric_limits<unsigned long>::digits
CONST	ENDS
;	COMDAT ?is_signed@?$numeric_limits@K@std@@2_NB
CONST	SEGMENT
?is_signed@?$numeric_limits@K@std@@2_NB DB 00H		; std::numeric_limits<unsigned long>::is_signed
CONST	ENDS
;	COMDAT ?digits10@?$numeric_limits@J@std@@2HB
CONST	SEGMENT
?digits10@?$numeric_limits@J@std@@2HB DD 09H		; std::numeric_limits<long>::digits10
CONST	ENDS
;	COMDAT ?digits@?$numeric_limits@J@std@@2HB
CONST	SEGMENT
?digits@?$numeric_limits@J@std@@2HB DD 01fH		; std::numeric_limits<long>::digits
CONST	ENDS
;	COMDAT ?is_signed@?$numeric_limits@J@std@@2_NB
CONST	SEGMENT
?is_signed@?$numeric_limits@J@std@@2_NB DB 01H		; std::numeric_limits<long>::is_signed
CONST	ENDS
;	COMDAT ?digits10@?$numeric_limits@I@std@@2HB
CONST	SEGMENT
?digits10@?$numeric_limits@I@std@@2HB DD 09H		; std::numeric_limits<unsigned int>::digits10
CONST	ENDS
;	COMDAT ?digits@?$numeric_limits@I@std@@2HB
CONST	SEGMENT
?digits@?$numeric_limits@I@std@@2HB DD 020H		; std::numeric_limits<unsigned int>::digits
CONST	ENDS
;	COMDAT ?is_signed@?$numeric_limits@I@std@@2_NB
CONST	SEGMENT
?is_signed@?$numeric_limits@I@std@@2_NB DB 00H		; std::numeric_limits<unsigned int>::is_signed
CONST	ENDS
;	COMDAT ?digits10@?$numeric_limits@H@std@@2HB
CONST	SEGMENT
?digits10@?$numeric_limits@H@std@@2HB DD 09H		; std::numeric_limits<int>::digits10
CONST	ENDS
;	COMDAT ?digits@?$numeric_limits@H@std@@2HB
CONST	SEGMENT
?digits@?$numeric_limits@H@std@@2HB DD 01fH		; std::numeric_limits<int>::digits
CONST	ENDS
;	COMDAT ?value@?$_Sizeof@HU_Nil@std@@U12@U12@U12@U12@U12@U12@@std@@2IB
CONST	SEGMENT
?value@?$_Sizeof@HU_Nil@std@@U12@U12@U12@U12@U12@U12@@std@@2IB DD 01H ; std::_Sizeof<int,std::_Nil,std::_Nil,std::_Nil,std::_Nil,std::_Nil,std::_Nil,std::_Nil>::value
CONST	ENDS
;	COMDAT ?is_signed@?$numeric_limits@H@std@@2_NB
CONST	SEGMENT
?is_signed@?$numeric_limits@H@std@@2_NB DB 01H		; std::numeric_limits<int>::is_signed
CONST	ENDS
;	COMDAT ?digits10@?$numeric_limits@G@std@@2HB
CONST	SEGMENT
?digits10@?$numeric_limits@G@std@@2HB DD 04H		; std::numeric_limits<unsigned short>::digits10
CONST	ENDS
;	COMDAT ?digits@?$numeric_limits@G@std@@2HB
CONST	SEGMENT
?digits@?$numeric_limits@G@std@@2HB DD 010H		; std::numeric_limits<unsigned short>::digits
CONST	ENDS
;	COMDAT ?is_signed@?$numeric_limits@G@std@@2_NB
CONST	SEGMENT
?is_signed@?$numeric_limits@G@std@@2_NB DB 00H		; std::numeric_limits<unsigned short>::is_signed
CONST	ENDS
;	COMDAT ?digits10@?$numeric_limits@F@std@@2HB
CONST	SEGMENT
?digits10@?$numeric_limits@F@std@@2HB DD 04H		; std::numeric_limits<short>::digits10
CONST	ENDS
;	COMDAT ?digits@?$numeric_limits@F@std@@2HB
CONST	SEGMENT
?digits@?$numeric_limits@F@std@@2HB DD 0fH		; std::numeric_limits<short>::digits
CONST	ENDS
;	COMDAT ?is_signed@?$numeric_limits@F@std@@2_NB
CONST	SEGMENT
?is_signed@?$numeric_limits@F@std@@2_NB DB 01H		; std::numeric_limits<short>::is_signed
CONST	ENDS
;	COMDAT ?value@?$integral_constant@_N$00@std@@2_NB
CONST	SEGMENT
?value@?$integral_constant@_N$00@std@@2_NB DB 01H	; std::integral_constant<bool,1>::value
CONST	ENDS
;	COMDAT ?digits10@?$numeric_limits@E@std@@2HB
CONST	SEGMENT
?digits10@?$numeric_limits@E@std@@2HB DD 02H		; std::numeric_limits<unsigned char>::digits10
CONST	ENDS
;	COMDAT ?digits@?$numeric_limits@E@std@@2HB
CONST	SEGMENT
?digits@?$numeric_limits@E@std@@2HB DD 08H		; std::numeric_limits<unsigned char>::digits
CONST	ENDS
;	COMDAT ?value@?$integral_constant@_N$0A@@std@@2_NB
CONST	SEGMENT
?value@?$integral_constant@_N$0A@@std@@2_NB DB 00H	; std::integral_constant<bool,0>::value
CONST	ENDS
;	COMDAT ?is_signed@?$numeric_limits@E@std@@2_NB
CONST	SEGMENT
?is_signed@?$numeric_limits@E@std@@2_NB DB 00H		; std::numeric_limits<unsigned char>::is_signed
CONST	ENDS
;	COMDAT ?digits10@?$numeric_limits@C@std@@2HB
CONST	SEGMENT
?digits10@?$numeric_limits@C@std@@2HB DD 02H		; std::numeric_limits<signed char>::digits10
CONST	ENDS
;	COMDAT ?digits@?$numeric_limits@C@std@@2HB
CONST	SEGMENT
?digits@?$numeric_limits@C@std@@2HB DD 07H		; std::numeric_limits<signed char>::digits
CONST	ENDS
;	COMDAT ?is_signed@?$numeric_limits@C@std@@2_NB
CONST	SEGMENT
?is_signed@?$numeric_limits@C@std@@2_NB DB 01H		; std::numeric_limits<signed char>::is_signed
CONST	ENDS
;	COMDAT ?digits10@?$numeric_limits@_N@std@@2HB
CONST	SEGMENT
?digits10@?$numeric_limits@_N@std@@2HB DD 00H		; std::numeric_limits<bool>::digits10
CONST	ENDS
;	COMDAT ?digits@?$numeric_limits@_N@std@@2HB
CONST	SEGMENT
?digits@?$numeric_limits@_N@std@@2HB DD 01H		; std::numeric_limits<bool>::digits
CONST	ENDS
;	COMDAT ?is_signed@?$numeric_limits@_N@std@@2_NB
CONST	SEGMENT
?is_signed@?$numeric_limits@_N@std@@2_NB DB 00H		; std::numeric_limits<bool>::is_signed
CONST	ENDS
;	COMDAT ?is_modulo@?$numeric_limits@_N@std@@2_NB
CONST	SEGMENT
?is_modulo@?$numeric_limits@_N@std@@2_NB DB 00H		; std::numeric_limits<bool>::is_modulo
CONST	ENDS
;	COMDAT ?table_size@?$ctype@D@std@@2IB
CONST	SEGMENT
?table_size@?$ctype@D@std@@2IB DD 0100H			; std::ctype<char>::table_size
CONST	ENDS
;	COMDAT ?digits10@?$numeric_limits@_W@std@@2HB
CONST	SEGMENT
?digits10@?$numeric_limits@_W@std@@2HB DD 04H		; std::numeric_limits<wchar_t>::digits10
CONST	ENDS
;	COMDAT ?digits@?$numeric_limits@_W@std@@2HB
CONST	SEGMENT
?digits@?$numeric_limits@_W@std@@2HB DD 010H		; std::numeric_limits<wchar_t>::digits
CONST	ENDS
;	COMDAT ?is_signed@?$numeric_limits@_W@std@@2_NB
CONST	SEGMENT
?is_signed@?$numeric_limits@_W@std@@2_NB DB 00H		; std::numeric_limits<wchar_t>::is_signed
CONST	ENDS
;	COMDAT ?digits10@?$numeric_limits@D@std@@2HB
CONST	SEGMENT
?digits10@?$numeric_limits@D@std@@2HB DD 02H		; std::numeric_limits<char>::digits10
CONST	ENDS
;	COMDAT ?digits@?$numeric_limits@D@std@@2HB
CONST	SEGMENT
?digits@?$numeric_limits@D@std@@2HB DD 07H		; std::numeric_limits<char>::digits
CONST	ENDS
;	COMDAT ?is_signed@?$numeric_limits@D@std@@2_NB
CONST	SEGMENT
?is_signed@?$numeric_limits@D@std@@2_NB DB 01H		; std::numeric_limits<char>::is_signed
CONST	ENDS
;	COMDAT ?radix@_Num_float_base@std@@2HB
CONST	SEGMENT
?radix@_Num_float_base@std@@2HB DD 02H			; std::_Num_float_base::radix
CONST	ENDS
;	COMDAT ?round_style@_Num_float_base@std@@2W4float_round_style@2@B
CONST	SEGMENT
?round_style@_Num_float_base@std@@2W4float_round_style@2@B DD 01H ; std::_Num_float_base::round_style
CONST	ENDS
;	COMDAT ?traps@_Num_float_base@std@@2_NB
CONST	SEGMENT
?traps@_Num_float_base@std@@2_NB DB 00H			; std::_Num_float_base::traps
CONST	ENDS
;	COMDAT ?tinyness_before@_Num_float_base@std@@2_NB
CONST	SEGMENT
?tinyness_before@_Num_float_base@std@@2_NB DB 01H	; std::_Num_float_base::tinyness_before
CONST	ENDS
;	COMDAT ?is_specialized@_Num_float_base@std@@2_NB
CONST	SEGMENT
?is_specialized@_Num_float_base@std@@2_NB DB 01H	; std::_Num_float_base::is_specialized
CONST	ENDS
;	COMDAT ?is_signed@_Num_float_base@std@@2_NB
CONST	SEGMENT
?is_signed@_Num_float_base@std@@2_NB DB 01H		; std::_Num_float_base::is_signed
CONST	ENDS
;	COMDAT ?is_modulo@_Num_float_base@std@@2_NB
CONST	SEGMENT
?is_modulo@_Num_float_base@std@@2_NB DB 00H		; std::_Num_float_base::is_modulo
CONST	ENDS
;	COMDAT ?is_integer@_Num_float_base@std@@2_NB
CONST	SEGMENT
?is_integer@_Num_float_base@std@@2_NB DB 00H		; std::_Num_float_base::is_integer
CONST	ENDS
;	COMDAT ?is_iec559@_Num_float_base@std@@2_NB
CONST	SEGMENT
?is_iec559@_Num_float_base@std@@2_NB DB 01H		; std::_Num_float_base::is_iec559
CONST	ENDS
;	COMDAT ?is_exact@_Num_float_base@std@@2_NB
CONST	SEGMENT
?is_exact@_Num_float_base@std@@2_NB DB 00H		; std::_Num_float_base::is_exact
CONST	ENDS
;	COMDAT ?is_bounded@_Num_float_base@std@@2_NB
CONST	SEGMENT
?is_bounded@_Num_float_base@std@@2_NB DB 01H		; std::_Num_float_base::is_bounded
CONST	ENDS
;	COMDAT ?has_signaling_NaN@_Num_float_base@std@@2_NB
CONST	SEGMENT
?has_signaling_NaN@_Num_float_base@std@@2_NB DB 01H	; std::_Num_float_base::has_signaling_NaN
CONST	ENDS
;	COMDAT ?has_quiet_NaN@_Num_float_base@std@@2_NB
CONST	SEGMENT
?has_quiet_NaN@_Num_float_base@std@@2_NB DB 01H		; std::_Num_float_base::has_quiet_NaN
CONST	ENDS
;	COMDAT ?none@?$_Locbase@H@std@@2HB
CONST	SEGMENT
?none@?$_Locbase@H@std@@2HB DD 00H			; std::_Locbase<int>::none
CONST	ENDS
;	COMDAT ?has_infinity@_Num_float_base@std@@2_NB
CONST	SEGMENT
?has_infinity@_Num_float_base@std@@2_NB DB 01H		; std::_Num_float_base::has_infinity
CONST	ENDS
;	COMDAT ?CMPDIRTYDATA_INTERVAL@FalconEntity@@2KB
CONST	SEGMENT
?CMPDIRTYDATA_INTERVAL@FalconEntity@@2KB DD 0c8H	; FalconEntity::CMPDIRTYDATA_INTERVAL
CONST	ENDS
;	COMDAT ?all@?$_Locbase@H@std@@2HB
CONST	SEGMENT
?all@?$_Locbase@H@std@@2HB DD 03fH			; std::_Locbase<int>::all
CONST	ENDS
;	COMDAT ?SIMDIRTYDATA_INTERVAL@FalconEntity@@2KB
CONST	SEGMENT
?SIMDIRTYDATA_INTERVAL@FalconEntity@@2KB DD 0c8H	; FalconEntity::SIMDIRTYDATA_INTERVAL
CONST	ENDS
;	COMDAT ?has_denorm_loss@_Num_float_base@std@@2_NB
CONST	SEGMENT
?has_denorm_loss@_Num_float_base@std@@2_NB DB 01H	; std::_Num_float_base::has_denorm_loss
CONST	ENDS
;	COMDAT ?messages@?$_Locbase@H@std@@2HB
CONST	SEGMENT
?messages@?$_Locbase@H@std@@2HB DD 020H			; std::_Locbase<int>::messages
CONST	ENDS
;	COMDAT ?time@?$_Locbase@H@std@@2HB
CONST	SEGMENT
?time@?$_Locbase@H@std@@2HB DD 010H			; std::_Locbase<int>::time
CONST	ENDS
;	COMDAT ?has_denorm@_Num_float_base@std@@2W4float_denorm_style@2@B
CONST	SEGMENT
?has_denorm@_Num_float_base@std@@2W4float_denorm_style@2@B DD 01H ; std::_Num_float_base::has_denorm
CONST	ENDS
;	COMDAT ?numeric@?$_Locbase@H@std@@2HB
CONST	SEGMENT
?numeric@?$_Locbase@H@std@@2HB DD 08H			; std::_Locbase<int>::numeric
CONST	ENDS
;	COMDAT ?monetary@?$_Locbase@H@std@@2HB
CONST	SEGMENT
?monetary@?$_Locbase@H@std@@2HB DD 04H			; std::_Locbase<int>::monetary
CONST	ENDS
;	COMDAT ?ctype@?$_Locbase@H@std@@2HB
CONST	SEGMENT
?ctype@?$_Locbase@H@std@@2HB DD 02H			; std::_Locbase<int>::ctype
CONST	ENDS
;	COMDAT ?collate@?$_Locbase@H@std@@2HB
CONST	SEGMENT
?collate@?$_Locbase@H@std@@2HB DD 01H			; std::_Locbase<int>::collate
CONST	ENDS
;	COMDAT ?radix@_Num_int_base@std@@2HB
CONST	SEGMENT
?radix@_Num_int_base@std@@2HB DD 02H			; std::_Num_int_base::radix
CONST	ENDS
;	COMDAT ?is_specialized@_Num_int_base@std@@2_NB
CONST	SEGMENT
?is_specialized@_Num_int_base@std@@2_NB DB 01H		; std::_Num_int_base::is_specialized
CONST	ENDS
;	COMDAT ?is_modulo@_Num_int_base@std@@2_NB
CONST	SEGMENT
?is_modulo@_Num_int_base@std@@2_NB DB 01H		; std::_Num_int_base::is_modulo
CONST	ENDS
;	COMDAT ?is_integer@_Num_int_base@std@@2_NB
CONST	SEGMENT
?is_integer@_Num_int_base@std@@2_NB DB 01H		; std::_Num_int_base::is_integer
CONST	ENDS
;	COMDAT ?is_exact@_Num_int_base@std@@2_NB
CONST	SEGMENT
?is_exact@_Num_int_base@std@@2_NB DB 01H		; std::_Num_int_base::is_exact
CONST	ENDS
;	COMDAT ?is_bounded@_Num_int_base@std@@2_NB
CONST	SEGMENT
?is_bounded@_Num_int_base@std@@2_NB DB 01H		; std::_Num_int_base::is_bounded
CONST	ENDS
;	COMDAT ?radix@_Num_base@std@@2HB
CONST	SEGMENT
?radix@_Num_base@std@@2HB DD 00H			; std::_Num_base::radix
CONST	ENDS
;	COMDAT ?min_exponent10@_Num_base@std@@2HB
CONST	SEGMENT
?min_exponent10@_Num_base@std@@2HB DD 00H		; std::_Num_base::min_exponent10
CONST	ENDS
;	COMDAT ?min_exponent@_Num_base@std@@2HB
CONST	SEGMENT
?min_exponent@_Num_base@std@@2HB DD 00H			; std::_Num_base::min_exponent
CONST	ENDS
;	COMDAT ?max_exponent10@_Num_base@std@@2HB
CONST	SEGMENT
?max_exponent10@_Num_base@std@@2HB DD 00H		; std::_Num_base::max_exponent10
CONST	ENDS
;	COMDAT ?max_exponent@_Num_base@std@@2HB
CONST	SEGMENT
?max_exponent@_Num_base@std@@2HB DD 00H			; std::_Num_base::max_exponent
CONST	ENDS
;	COMDAT ?max_digits10@_Num_base@std@@2HB
CONST	SEGMENT
?max_digits10@_Num_base@std@@2HB DD 00H			; std::_Num_base::max_digits10
CONST	ENDS
;	COMDAT ?digits10@_Num_base@std@@2HB
CONST	SEGMENT
?digits10@_Num_base@std@@2HB DD 00H			; std::_Num_base::digits10
CONST	ENDS
;	COMDAT ?digits@_Num_base@std@@2HB
CONST	SEGMENT
?digits@_Num_base@std@@2HB DD 00H			; std::_Num_base::digits
CONST	ENDS
;	COMDAT ?round_style@_Num_base@std@@2W4float_round_style@2@B
CONST	SEGMENT
?round_style@_Num_base@std@@2W4float_round_style@2@B DD 00H ; std::_Num_base::round_style
CONST	ENDS
;	COMDAT ?traps@_Num_base@std@@2_NB
CONST	SEGMENT
?traps@_Num_base@std@@2_NB DB 00H			; std::_Num_base::traps
CONST	ENDS
;	COMDAT ?tinyness_before@_Num_base@std@@2_NB
CONST	SEGMENT
?tinyness_before@_Num_base@std@@2_NB DB 00H		; std::_Num_base::tinyness_before
CONST	ENDS
;	COMDAT ?is_specialized@_Num_base@std@@2_NB
CONST	SEGMENT
?is_specialized@_Num_base@std@@2_NB DB 00H		; std::_Num_base::is_specialized
CONST	ENDS
;	COMDAT ?is_signed@_Num_base@std@@2_NB
CONST	SEGMENT
?is_signed@_Num_base@std@@2_NB DB 00H			; std::_Num_base::is_signed
CONST	ENDS
;	COMDAT ?is_modulo@_Num_base@std@@2_NB
CONST	SEGMENT
?is_modulo@_Num_base@std@@2_NB DB 00H			; std::_Num_base::is_modulo
CONST	ENDS
;	COMDAT ?is_integer@_Num_base@std@@2_NB
CONST	SEGMENT
?is_integer@_Num_base@std@@2_NB DB 00H			; std::_Num_base::is_integer
CONST	ENDS
;	COMDAT ?is_iec559@_Num_base@std@@2_NB
CONST	SEGMENT
?is_iec559@_Num_base@std@@2_NB DB 00H			; std::_Num_base::is_iec559
CONST	ENDS
;	COMDAT ?is_exact@_Num_base@std@@2_NB
CONST	SEGMENT
?is_exact@_Num_base@std@@2_NB DB 00H			; std::_Num_base::is_exact
CONST	ENDS
;	COMDAT ?is_bounded@_Num_base@std@@2_NB
CONST	SEGMENT
?is_bounded@_Num_base@std@@2_NB DB 00H			; std::_Num_base::is_bounded
CONST	ENDS
;	COMDAT ?has_signaling_NaN@_Num_base@std@@2_NB
CONST	SEGMENT
?has_signaling_NaN@_Num_base@std@@2_NB DB 00H		; std::_Num_base::has_signaling_NaN
CONST	ENDS
;	COMDAT ?has_quiet_NaN@_Num_base@std@@2_NB
CONST	SEGMENT
?has_quiet_NaN@_Num_base@std@@2_NB DB 00H		; std::_Num_base::has_quiet_NaN
CONST	ENDS
;	COMDAT ?has_infinity@_Num_base@std@@2_NB
CONST	SEGMENT
?has_infinity@_Num_base@std@@2_NB DB 00H		; std::_Num_base::has_infinity
CONST	ENDS
;	COMDAT ?has_denorm_loss@_Num_base@std@@2_NB
CONST	SEGMENT
?has_denorm_loss@_Num_base@std@@2_NB DB 00H		; std::_Num_base::has_denorm_loss
CONST	ENDS
;	COMDAT ?has_denorm@_Num_base@std@@2W4float_denorm_style@2@B
CONST	SEGMENT
?has_denorm@_Num_base@std@@2W4float_denorm_style@2@B DD 00H ; std::_Num_base::has_denorm
CONST	ENDS
;	COMDAT ?value@?$_Sizeof@U_Nil@std@@U12@U12@U12@U12@U12@U12@U12@@std@@2IB
CONST	SEGMENT
?value@?$_Sizeof@U_Nil@std@@U12@U12@U12@U12@U12@U12@U12@@std@@2IB DD 00H ; std::_Sizeof<std::_Nil,std::_Nil,std::_Nil,std::_Nil,std::_Nil,std::_Nil,std::_Nil,std::_Nil>::value
CONST	ENDS
_DATA	SEGMENT
_cloudPntList DD 0c5bcc000r			; -6040
	DD	0c4070000r			; -540
	DD	0c694ac00r			; -19030
	DD	0c6de1c00r			; -28430
	DD	0c4dfc000r			; -1790
	DD	046dcc800r			; 28260
	DD	047104200r			; 36930
	DD	045732000r			; 3890
	DD	04744ea00r			; 50410
	DD	045336000r			; 2870
	DD	0c4d48000r			; -1700
	DD	04736da00r			; 46810
	DD	0c763ee00r			; -58350
	DD	0c4d48000r			; -1700
	DD	0c64c1000r			; -13060
	DD	046f2bc00r			; 31070
	DD	045480000r			; 3200
	DD	0c7293800r			; -43320
	DD	0c7bdc400r			; -97160
	DD	0c4d48000r			; -1700
	DD	04576e000r			; 3950
	DD	0c792e000r			; -75200
	DD	0c4bb8000r			; -1500
	DD	047957400r			; 76520
	DD	04759ee00r			; 55790
	DD	0c5a1e000r			; -5180
	DD	0c7a24e00r			; -83100
	DD	0c7473800r			; -51000
	DD	0c3a00000r			; -320
	DD	0c7829100r			; -66850
	DD	047733400r			; 62260
	DD	0c3a00000r			; -320
	DD	047708200r			; 61570
	DD	0c7710e00r			; -61710
	DD	0c550c000r			; -3340
	DD	046fb7c00r			; 32190
	DD	0c7719a00r			; -61850
	DD	0c7483200r			; -51250
	DD	047543a00r			; 54330
	DD	0c5bcc000r			; -6040
	DD	0c7495400r			; -51540
	DD	0c694ac00r			; -19030
	DD	0c6a7a800r			; -21460
	DD	0c74b0200r			; -51970
	DD	0468e8000r			; 18240
	DD	047298800r			; 43400
	DD	0c74bf200r			; -52210
	DD	046bc7000r			; 24120
	DD	0c749f400r			; -51700
	DD	0c74bc000r			; -52160
	DD	046948400r			; 19010
	DD	0c605e800r			; -8570
	DD	0c7488200r			; -51330
	DD	0c74ca600r			; -52390
	DD	04731bc00r			; 45500
	DD	0c7509800r			; -53400
	DD	0c6725800r			; -15510
	DD	0c7719a00r			; -61850
	DD	0c7483200r			; -51250
	DD	047543a00r			; 54330
	DD	047553400r			; 54580
	DD	0c74ddc00r			; -52700
	DD	0479a5600r			; 79020
	DD	047a7e400r			; 85960
	DD	0c74c5600r			; -52310
	DD	0477d4800r			; 64840
	DD	0c7c44500r			; -100490
	DD	0c74d1400r			; -52500
	DD	047ac2600r			; 88140
	DD	0c7a1ae00r			; -82780
	DD	0c749ea00r			; -51690
	DD	0c7bce300r			; -96710
	DD	0c6126800r			; -9370
	DD	0c7495400r			; -51540
	DD	043cd0000r			; 410
	DD	0c6a7a800r			; -21460
	DD	0c74a8a00r			; -51850
	DD	0473fae00r			; 49070
	DD	0457c8000r			; 4040
	DD	0c74e4a00r			; -52810
	DD	047871e00r			; 69180
	DD	0c6cbc000r			; -26080
	DD	0c74bc000r			; -52160
	DD	046984400r			; 19490
	DD	0452fa000r			; 2810
	DD	0c7488200r			; -51330
	DD	0c7081800r			; -34840
	DD	0c7719a00r			; -61850
	DD	0c749d600r			; -51670
	DD	047b17600r			; 90860
	DD	047553400r			; 54580
	DD	0c74ddc00r			; -52700
	DD	0479a5600r			; 79020
	DD	047a7e400r			; 85960
	DD	0c74c5600r			; -52310
	DD	0477d4800r			; 64840
	DD	0c7c44500r			; -100490
	DD	0c74d1400r			; -52500
	DD	047ac2600r			; 88140
	DD	047c04e00r			; 98460
	DD	0c74d1400r			; -52500
	DD	0c732a200r			; -45730
	DD	0467b9000r			; 16100
	DD	0c7487800r			; -51320
	DD	0c749a400r			; -51620
	DD	047636c00r			; 58220
	DD	0c74e0400r			; -52740
	DD	0c760b000r			; -57520
	DD	0c6126800r			; -9370
	DD	0c4070000r			; -540
	DD	043cd0000r			; 410
	DD	0c4e60000r			; -1840
	DD	0c6a30c00r			; -20870
	DD	0470a6600r			; 35430
	DD	0c7230c00r			; -41740
	DD	046924000r			; 18720
	DD	04797d600r			; 77740
	DD	0460d9000r			; 9060
	DD	0c616c800r			; -9650
	DD	0c7921300r			; -74790
_lightningPosList DD 041300000r			; 11
	DD	000000000r			; 0
	DD	040e00000r			; 7
	DD	040a00000r			; 5
	DD	041100000r			; 9
	DD	041000000r			; 8
	DD	041000000r			; 8
	DD	041600000r			; 14
	DD	041800000r			; 16
	DD	041a00000r			; 20
	DD	041200000r			; 10
	DD	041c00000r			; 24
	DD	041300000r			; 11
	DD	041d80000r			; 27
	DD	040c00000r			; 6
	DD	041f00000r			; 30
	DD	040e00000r			; 7
	DD	042040000r			; 33
	DD	03f800000r			; 1
	DD	042180000r			; 38
	DD	040a00000r			; 5
	DD	042280000r			; 42
	DD	040a00000r			; 5
	DD	042340000r			; 45
	DD	041400000r			; 12
	DD	042400000r			; 48
	DD	041a00000r			; 20
	DD	042500000r			; 52
	DD	041a00000r			; 20
	DD	042680000r			; 58
	DD	041b80000r			; 23
	DD	042740000r			; 61
	DD	041b00000r			; 22
	DD	0427c0000r			; 63
	DD	041b00000r			; 22
	DD	042840000r			; 66
	DD	041c80000r			; 25
	DD	042880000r			; 68
	DD	041a00000r			; 20
	DD	0428c0000r			; 70
	DD	041c00000r			; 24
	DD	042960000r			; 75
	DD	041c00000r			; 24
	DD	0429a0000r			; 77
	DD	041f80000r			; 31
	DD	042a00000r			; 80
	DD	041f80000r			; 31
	DD	042a60000r			; 83
	DD	042040000r			; 33
	DD	042b00000r			; 88
	DD	041f80000r			; 31
	DD	042b80000r			; 92
	DD	0423c0000r			; 47
	DD	042ce0000r			; 103
	DD	042380000r			; 46
	DD	042d20000r			; 105
	DD	0423c0000r			; 47
	DD	042d60000r			; 107
	DD	042340000r			; 45
	DD	042e00000r			; 112
	DD	042400000r			; 48
	DD	042e40000r			; 114
	DD	042380000r			; 46
	DD	042ea0000r			; 117
	DD	0422c0000r			; 43
	DD	043000000r			; 128
?UR_HEAD_VIEW@@3MA DD 043200000r		; 160	; UR_HEAD_VIEW
?g_nThrottleID@@3HA DD 08H				; g_nThrottleID
_DATA	ENDS
;	COMDAT ?_Stream_err@failure@ios_base@std@@0W4io_errc@43@B
CONST	SEGMENT
?_Stream_err@failure@ios_base@std@@0W4io_errc@43@B DD 01H ; std::ios_base::failure::_Stream_err
CONST	ENDS
;	COMDAT ?end@?$_Iosb@H@std@@2W4_Seekdir@12@B
CONST	SEGMENT
?end@?$_Iosb@H@std@@2W4_Seekdir@12@B DD 02H		; std::_Iosb<int>::end
CONST	ENDS
;	COMDAT ?cur@?$_Iosb@H@std@@2W4_Seekdir@12@B
CONST	SEGMENT
?cur@?$_Iosb@H@std@@2W4_Seekdir@12@B DD 01H		; std::_Iosb<int>::cur
CONST	ENDS
;	COMDAT ?beg@?$_Iosb@H@std@@2W4_Seekdir@12@B
CONST	SEGMENT
?beg@?$_Iosb@H@std@@2W4_Seekdir@12@B DD 00H		; std::_Iosb<int>::beg
CONST	ENDS
;	COMDAT ?binary@?$_Iosb@H@std@@2W4_Openmode@12@B
CONST	SEGMENT
?binary@?$_Iosb@H@std@@2W4_Openmode@12@B DD 020H	; std::_Iosb<int>::binary
CONST	ENDS
;	COMDAT ?_Noreplace@?$_Iosb@H@std@@2W4_Openmode@12@B
CONST	SEGMENT
?_Noreplace@?$_Iosb@H@std@@2W4_Openmode@12@B DD 080H	; std::_Iosb<int>::_Noreplace
CONST	ENDS
;	COMDAT ?min_exponent10@?$numeric_limits@O@std@@2HB
CONST	SEGMENT
?min_exponent10@?$numeric_limits@O@std@@2HB DD 0fffffecdH ; std::numeric_limits<long double>::min_exponent10
CONST	ENDS
;	COMDAT ?_Nocreate@?$_Iosb@H@std@@2W4_Openmode@12@B
CONST	SEGMENT
?_Nocreate@?$_Iosb@H@std@@2W4_Openmode@12@B DD 040H	; std::_Iosb<int>::_Nocreate
CONST	ENDS
;	COMDAT ?min_exponent@?$numeric_limits@O@std@@2HB
CONST	SEGMENT
?min_exponent@?$numeric_limits@O@std@@2HB DD 0fffffc03H	; std::numeric_limits<long double>::min_exponent
CONST	ENDS
;	COMDAT ?trunc@?$_Iosb@H@std@@2W4_Openmode@12@B
CONST	SEGMENT
?trunc@?$_Iosb@H@std@@2W4_Openmode@12@B DD 010H		; std::_Iosb<int>::trunc
CONST	ENDS
;	COMDAT ?max_exponent10@?$numeric_limits@O@std@@2HB
CONST	SEGMENT
?max_exponent10@?$numeric_limits@O@std@@2HB DD 0134H	; std::numeric_limits<long double>::max_exponent10
CONST	ENDS
;	COMDAT ?app@?$_Iosb@H@std@@2W4_Openmode@12@B
CONST	SEGMENT
?app@?$_Iosb@H@std@@2W4_Openmode@12@B DD 08H		; std::_Iosb<int>::app
CONST	ENDS
;	COMDAT ?max_exponent@?$numeric_limits@O@std@@2HB
CONST	SEGMENT
?max_exponent@?$numeric_limits@O@std@@2HB DD 0400H	; std::numeric_limits<long double>::max_exponent
CONST	ENDS
;	COMDAT ?ate@?$_Iosb@H@std@@2W4_Openmode@12@B
CONST	SEGMENT
?ate@?$_Iosb@H@std@@2W4_Openmode@12@B DD 04H		; std::_Iosb<int>::ate
CONST	ENDS
;	COMDAT ?out@?$_Iosb@H@std@@2W4_Openmode@12@B
CONST	SEGMENT
?out@?$_Iosb@H@std@@2W4_Openmode@12@B DD 02H		; std::_Iosb<int>::out
CONST	ENDS
;	COMDAT ?max_digits10@?$numeric_limits@O@std@@2HB
CONST	SEGMENT
?max_digits10@?$numeric_limits@O@std@@2HB DD 011H	; std::numeric_limits<long double>::max_digits10
CONST	ENDS
;	COMDAT ?in@?$_Iosb@H@std@@2W4_Openmode@12@B
CONST	SEGMENT
?in@?$_Iosb@H@std@@2W4_Openmode@12@B DD 01H		; std::_Iosb<int>::in
CONST	ENDS
;	COMDAT ?digits10@?$numeric_limits@O@std@@2HB
CONST	SEGMENT
?digits10@?$numeric_limits@O@std@@2HB DD 0fH		; std::numeric_limits<long double>::digits10
CONST	ENDS
;	COMDAT ?digits@?$numeric_limits@O@std@@2HB
CONST	SEGMENT
?digits@?$numeric_limits@O@std@@2HB DD 035H		; std::numeric_limits<long double>::digits
CONST	ENDS
;	COMDAT ?_Hardfail@?$_Iosb@H@std@@2W4_Iostate@12@B
CONST	SEGMENT
?_Hardfail@?$_Iosb@H@std@@2W4_Iostate@12@B DD 010H	; std::_Iosb<int>::_Hardfail
CONST	ENDS
;	COMDAT ?badbit@?$_Iosb@H@std@@2W4_Iostate@12@B
CONST	SEGMENT
?badbit@?$_Iosb@H@std@@2W4_Iostate@12@B DD 04H		; std::_Iosb<int>::badbit
CONST	ENDS
;	COMDAT ?failbit@?$_Iosb@H@std@@2W4_Iostate@12@B
CONST	SEGMENT
?failbit@?$_Iosb@H@std@@2W4_Iostate@12@B DD 02H		; std::_Iosb<int>::failbit
CONST	ENDS
;	COMDAT ?eofbit@?$_Iosb@H@std@@2W4_Iostate@12@B
CONST	SEGMENT
?eofbit@?$_Iosb@H@std@@2W4_Iostate@12@B DD 01H		; std::_Iosb<int>::eofbit
CONST	ENDS
;	COMDAT ?goodbit@?$_Iosb@H@std@@2W4_Iostate@12@B
CONST	SEGMENT
?goodbit@?$_Iosb@H@std@@2W4_Iostate@12@B DD 00H		; std::_Iosb<int>::goodbit
CONST	ENDS
;	COMDAT ?floatfield@?$_Iosb@H@std@@2W4_Fmtflags@12@B
CONST	SEGMENT
?floatfield@?$_Iosb@H@std@@2W4_Fmtflags@12@B DD 03000H	; std::_Iosb<int>::floatfield
CONST	ENDS
;	COMDAT ?basefield@?$_Iosb@H@std@@2W4_Fmtflags@12@B
CONST	SEGMENT
?basefield@?$_Iosb@H@std@@2W4_Fmtflags@12@B DD 0e00H	; std::_Iosb<int>::basefield
CONST	ENDS
;	COMDAT ?adjustfield@?$_Iosb@H@std@@2W4_Fmtflags@12@B
CONST	SEGMENT
?adjustfield@?$_Iosb@H@std@@2W4_Fmtflags@12@B DD 01c0H	; std::_Iosb<int>::adjustfield
CONST	ENDS
;	COMDAT ?_Stdio@?$_Iosb@H@std@@2W4_Fmtflags@12@B
CONST	SEGMENT
?_Stdio@?$_Iosb@H@std@@2W4_Fmtflags@12@B DD 08000H	; std::_Iosb<int>::_Stdio
CONST	ENDS
;	COMDAT ?min_exponent10@?$numeric_limits@N@std@@2HB
CONST	SEGMENT
?min_exponent10@?$numeric_limits@N@std@@2HB DD 0fffffecdH ; std::numeric_limits<double>::min_exponent10
CONST	ENDS
;	COMDAT ?boolalpha@?$_Iosb@H@std@@2W4_Fmtflags@12@B
CONST	SEGMENT
?boolalpha@?$_Iosb@H@std@@2W4_Fmtflags@12@B DD 04000H	; std::_Iosb<int>::boolalpha
CONST	ENDS
;	COMDAT ?hexfloat@?$_Iosb@H@std@@2W4_Fmtflags@12@B
CONST	SEGMENT
?hexfloat@?$_Iosb@H@std@@2W4_Fmtflags@12@B DD 03000H	; std::_Iosb<int>::hexfloat
CONST	ENDS
;	COMDAT ?min_exponent@?$numeric_limits@N@std@@2HB
CONST	SEGMENT
?min_exponent@?$numeric_limits@N@std@@2HB DD 0fffffc03H	; std::numeric_limits<double>::min_exponent
CONST	ENDS
;	COMDAT ?fixed@?$_Iosb@H@std@@2W4_Fmtflags@12@B
CONST	SEGMENT
?fixed@?$_Iosb@H@std@@2W4_Fmtflags@12@B DD 02000H	; std::_Iosb<int>::fixed
CONST	ENDS
;	COMDAT ?max_exponent10@?$numeric_limits@N@std@@2HB
CONST	SEGMENT
?max_exponent10@?$numeric_limits@N@std@@2HB DD 0134H	; std::numeric_limits<double>::max_exponent10
CONST	ENDS
;	COMDAT ?scientific@?$_Iosb@H@std@@2W4_Fmtflags@12@B
CONST	SEGMENT
?scientific@?$_Iosb@H@std@@2W4_Fmtflags@12@B DD 01000H	; std::_Iosb<int>::scientific
CONST	ENDS
;	COMDAT ?hex@?$_Iosb@H@std@@2W4_Fmtflags@12@B
CONST	SEGMENT
?hex@?$_Iosb@H@std@@2W4_Fmtflags@12@B DD 0800H		; std::_Iosb<int>::hex
CONST	ENDS
;	COMDAT ?max_exponent@?$numeric_limits@N@std@@2HB
CONST	SEGMENT
?max_exponent@?$numeric_limits@N@std@@2HB DD 0400H	; std::numeric_limits<double>::max_exponent
CONST	ENDS
;	COMDAT ?oct@?$_Iosb@H@std@@2W4_Fmtflags@12@B
CONST	SEGMENT
?oct@?$_Iosb@H@std@@2W4_Fmtflags@12@B DD 0400H		; std::_Iosb<int>::oct
CONST	ENDS
;	COMDAT ?max_digits10@?$numeric_limits@N@std@@2HB
CONST	SEGMENT
?max_digits10@?$numeric_limits@N@std@@2HB DD 011H	; std::numeric_limits<double>::max_digits10
CONST	ENDS
;	COMDAT ?dec@?$_Iosb@H@std@@2W4_Fmtflags@12@B
CONST	SEGMENT
?dec@?$_Iosb@H@std@@2W4_Fmtflags@12@B DD 0200H		; std::_Iosb<int>::dec
CONST	ENDS
;	COMDAT ?digits10@?$numeric_limits@N@std@@2HB
CONST	SEGMENT
?digits10@?$numeric_limits@N@std@@2HB DD 0fH		; std::numeric_limits<double>::digits10
CONST	ENDS
;	COMDAT ?internal@?$_Iosb@H@std@@2W4_Fmtflags@12@B
CONST	SEGMENT
?internal@?$_Iosb@H@std@@2W4_Fmtflags@12@B DD 0100H	; std::_Iosb<int>::internal
CONST	ENDS
;	COMDAT ?digits@?$numeric_limits@N@std@@2HB
CONST	SEGMENT
?digits@?$numeric_limits@N@std@@2HB DD 035H		; std::numeric_limits<double>::digits
CONST	ENDS
;	COMDAT ?value@?$integral_constant@I$0A@@std@@2IB
CONST	SEGMENT
?value@?$integral_constant@I$0A@@std@@2IB DD 00H	; std::integral_constant<unsigned int,0>::value
CONST	ENDS
;	COMDAT ?right@?$_Iosb@H@std@@2W4_Fmtflags@12@B
CONST	SEGMENT
?right@?$_Iosb@H@std@@2W4_Fmtflags@12@B DD 080H		; std::_Iosb<int>::right
CONST	ENDS
;	COMDAT ?left@?$_Iosb@H@std@@2W4_Fmtflags@12@B
CONST	SEGMENT
?left@?$_Iosb@H@std@@2W4_Fmtflags@12@B DD 040H		; std::_Iosb<int>::left
CONST	ENDS
;	COMDAT ?showpos@?$_Iosb@H@std@@2W4_Fmtflags@12@B
CONST	SEGMENT
?showpos@?$_Iosb@H@std@@2W4_Fmtflags@12@B DD 020H	; std::_Iosb<int>::showpos
CONST	ENDS
CONST	SEGMENT
_NEAR_CLIP DD	03f800000r			; 1
_L_2	DD	03f317218r			; 0.693147
CONST	ENDS
;	COMDAT ?showpoint@?$_Iosb@H@std@@2W4_Fmtflags@12@B
CONST	SEGMENT
?showpoint@?$_Iosb@H@std@@2W4_Fmtflags@12@B DD 010H	; std::_Iosb<int>::showpoint
CONST	ENDS
;	COMDAT ?showbase@?$_Iosb@H@std@@2W4_Fmtflags@12@B
CONST	SEGMENT
?showbase@?$_Iosb@H@std@@2W4_Fmtflags@12@B DD 08H	; std::_Iosb<int>::showbase
CONST	ENDS
;	COMDAT ?uppercase@?$_Iosb@H@std@@2W4_Fmtflags@12@B
CONST	SEGMENT
?uppercase@?$_Iosb@H@std@@2W4_Fmtflags@12@B DD 04H	; std::_Iosb<int>::uppercase
CONST	ENDS
;	COMDAT ?unitbuf@?$_Iosb@H@std@@2W4_Fmtflags@12@B
CONST	SEGMENT
?unitbuf@?$_Iosb@H@std@@2W4_Fmtflags@12@B DD 02H	; std::_Iosb<int>::unitbuf
CONST	ENDS
;	COMDAT ?skipws@?$_Iosb@H@std@@2W4_Fmtflags@12@B
CONST	SEGMENT
?skipws@?$_Iosb@H@std@@2W4_Fmtflags@12@B DD 01H		; std::_Iosb<int>::skipws
CONST	ENDS
;	COMDAT ?min_exponent10@?$numeric_limits@M@std@@2HB
CONST	SEGMENT
?min_exponent10@?$numeric_limits@M@std@@2HB DD 0ffffffdbH ; std::numeric_limits<float>::min_exponent10
CONST	ENDS
;	COMDAT ?min_exponent@?$numeric_limits@M@std@@2HB
CONST	SEGMENT
?min_exponent@?$numeric_limits@M@std@@2HB DD 0ffffff83H	; std::numeric_limits<float>::min_exponent
CONST	ENDS
;	COMDAT ?max_exponent10@?$numeric_limits@M@std@@2HB
CONST	SEGMENT
?max_exponent10@?$numeric_limits@M@std@@2HB DD 026H	; std::numeric_limits<float>::max_exponent10
CONST	ENDS
;	COMDAT ?max_exponent@?$numeric_limits@M@std@@2HB
CONST	SEGMENT
?max_exponent@?$numeric_limits@M@std@@2HB DD 080H	; std::numeric_limits<float>::max_exponent
CONST	ENDS
;	COMDAT ?max_digits10@?$numeric_limits@M@std@@2HB
CONST	SEGMENT
?max_digits10@?$numeric_limits@M@std@@2HB DD 09H	; std::numeric_limits<float>::max_digits10
CONST	ENDS
;	COMDAT ?digits10@?$numeric_limits@M@std@@2HB
CONST	SEGMENT
?digits10@?$numeric_limits@M@std@@2HB DD 06H		; std::numeric_limits<float>::digits10
CONST	ENDS
;	COMDAT ?digits@?$numeric_limits@M@std@@2HB
CONST	SEGMENT
?digits@?$numeric_limits@M@std@@2HB DD 018H		; std::numeric_limits<float>::digits
CONST	ENDS
;	COMDAT ?digits10@?$numeric_limits@_K@std@@2HB
CONST	SEGMENT
?digits10@?$numeric_limits@_K@std@@2HB DD 013H		; std::numeric_limits<unsigned __int64>::digits10
CONST	ENDS
;	COMDAT ?digits@?$numeric_limits@_K@std@@2HB
CONST	SEGMENT
?digits@?$numeric_limits@_K@std@@2HB DD 040H		; std::numeric_limits<unsigned __int64>::digits
CONST	ENDS
PUBLIC	??_H@YGXPAXIHP6EPAX0@Z@Z			; `vector constructor iterator'
PUBLIC	?abs@@YAJJ@Z					; abs
PUBLIC	??$Abs@M@@YAMM@Z				; Abs<float>
PUBLIC	??2@YAPAXIPAX@Z					; operator new
PUBLIC	??3@YAXPAX0@Z					; operator delete
PUBLIC	?length@?$char_traits@D@std@@SAIPBD@Z		; std::char_traits<char>::length
PUBLIC	?copy@?$char_traits@D@std@@SAPADPADPBDI@Z	; std::char_traits<char>::copy
PUBLIC	?move@?$char_traits@D@std@@SAPADPADPBDI@Z	; std::char_traits<char>::move
PUBLIC	?assign@?$char_traits@D@std@@SAXAADABD@Z	; std::char_traits<char>::assign
PUBLIC	??0?$allocator@D@std@@QAE@XZ			; std::allocator<char>::allocator<char>
PUBLIC	?deallocate@?$allocator@D@std@@QAEXPADI@Z	; std::allocator<char>::deallocate
PUBLIC	?allocate@?$allocator@D@std@@QAEPADI@Z		; std::allocator<char>::allocate
PUBLIC	?max_size@?$allocator@D@std@@QBEIXZ		; std::allocator<char>::max_size
PUBLIC	?max_size@?$allocator_traits@V?$allocator@D@std@@@std@@SAIABV?$allocator@D@2@@Z ; std::allocator_traits<std::allocator<char> >::max_size
PUBLIC	??0?$_Wrap_alloc@V?$allocator@D@std@@@std@@QAE@XZ ; std::_Wrap_alloc<std::allocator<char> >::_Wrap_alloc<std::allocator<char> >
PUBLIC	?allocate@?$_Wrap_alloc@V?$allocator@D@std@@@std@@QAEPADI@Z ; std::_Wrap_alloc<std::allocator<char> >::allocate
PUBLIC	?deallocate@?$_Wrap_alloc@V?$allocator@D@std@@@std@@QAEXPADI@Z ; std::_Wrap_alloc<std::allocator<char> >::deallocate
PUBLIC	?max_size@?$_Wrap_alloc@V?$allocator@D@std@@@std@@QBEIXZ ; std::_Wrap_alloc<std::allocator<char> >::max_size
PUBLIC	??0?$_String_val@U?$_Simple_types@D@std@@@std@@QAE@XZ ; std::_String_val<std::_Simple_types<char> >::_String_val<std::_Simple_types<char> >
PUBLIC	?_Myptr@?$_String_val@U?$_Simple_types@D@std@@@std@@QAEPADXZ ; std::_String_val<std::_Simple_types<char> >::_Myptr
PUBLIC	?_Myptr@?$_String_val@U?$_Simple_types@D@std@@@std@@QBEPBDXZ ; std::_String_val<std::_Simple_types<char> >::_Myptr
PUBLIC	??0?$_String_alloc@$0A@U?$_String_base_types@DV?$allocator@D@std@@@std@@@std@@QAE@ABV?$allocator@D@1@@Z ; std::_String_alloc<0,std::_String_base_types<char,std::allocator<char> > >::_String_alloc<0,std::_String_base_types<char,std::allocator<char> > >
PUBLIC	?_Getal@?$_String_alloc@$0A@U?$_String_base_types@DV?$allocator@D@std@@@std@@@std@@QBE?AU?$_Wrap_alloc@V?$allocator@D@std@@@2@XZ ; std::_String_alloc<0,std::_String_base_types<char,std::allocator<char> > >::_Getal
PUBLIC	??0?$basic_string@DU?$char_traits@D@std@@V?$allocator@D@2@@std@@QAE@PBD@Z ; std::basic_string<char,std::char_traits<char>,std::allocator<char> >::basic_string<char,std::char_traits<char>,std::allocator<char> >
PUBLIC	?assign@?$basic_string@DU?$char_traits@D@std@@V?$allocator@D@2@@std@@QAEAAV12@ABV12@II@Z ; std::basic_string<char,std::char_traits<char>,std::allocator<char> >::assign
PUBLIC	?assign@?$basic_string@DU?$char_traits@D@std@@V?$allocator@D@2@@std@@QAEAAV12@PBDI@Z ; std::basic_string<char,std::char_traits<char>,std::allocator<char> >::assign
PUBLIC	?assign@?$basic_string@DU?$char_traits@D@std@@V?$allocator@D@2@@std@@QAEAAV12@PBD@Z ; std::basic_string<char,std::char_traits<char>,std::allocator<char> >::assign
PUBLIC	?erase@?$basic_string@DU?$char_traits@D@std@@V?$allocator@D@2@@std@@QAEAAV12@I@Z ; std::basic_string<char,std::char_traits<char>,std::allocator<char> >::erase
PUBLIC	?erase@?$basic_string@DU?$char_traits@D@std@@V?$allocator@D@2@@std@@QAEAAV12@II@Z ; std::basic_string<char,std::char_traits<char>,std::allocator<char> >::erase
PUBLIC	?size@?$basic_string@DU?$char_traits@D@std@@V?$allocator@D@2@@std@@QBEIXZ ; std::basic_string<char,std::char_traits<char>,std::allocator<char> >::size
PUBLIC	?max_size@?$basic_string@DU?$char_traits@D@std@@V?$allocator@D@2@@std@@QBEIXZ ; std::basic_string<char,std::char_traits<char>,std::allocator<char> >::max_size
PUBLIC	?_Copy@?$basic_string@DU?$char_traits@D@std@@V?$allocator@D@2@@std@@QAEXII@Z ; std::basic_string<char,std::char_traits<char>,std::allocator<char> >::_Copy
PUBLIC	?_Eos@?$basic_string@DU?$char_traits@D@std@@V?$allocator@D@2@@std@@QAEXI@Z ; std::basic_string<char,std::char_traits<char>,std::allocator<char> >::_Eos
PUBLIC	?_Grow@?$basic_string@DU?$char_traits@D@std@@V?$allocator@D@2@@std@@QAE_NI_N@Z ; std::basic_string<char,std::char_traits<char>,std::allocator<char> >::_Grow
PUBLIC	?_Inside@?$basic_string@DU?$char_traits@D@std@@V?$allocator@D@2@@std@@QAE_NPBD@Z ; std::basic_string<char,std::char_traits<char>,std::allocator<char> >::_Inside
PUBLIC	?_Tidy@?$basic_string@DU?$char_traits@D@std@@V?$allocator@D@2@@std@@QAEX_NI@Z ; std::basic_string<char,std::char_traits<char>,std::allocator<char> >::_Tidy
PUBLIC	?_Xlen@?$basic_string@DU?$char_traits@D@std@@V?$allocator@D@2@@std@@QBEXXZ ; std::basic_string<char,std::char_traits<char>,std::allocator<char> >::_Xlen
PUBLIC	?_Xran@?$basic_string@DU?$char_traits@D@std@@V?$allocator@D@2@@std@@QBEXXZ ; std::basic_string<char,std::char_traits<char>,std::allocator<char> >::_Xran
PUBLIC	??0id@locale@std@@QAE@I@Z			; std::locale::id::id
PUBLIC	?generic_category@std@@YAABVerror_category@1@XZ	; std::generic_category
PUBLIC	?system_category@std@@YAABVerror_category@1@XZ	; std::system_category
PUBLIC	??0error_category@std@@QAE@XZ			; std::error_category::error_category
PUBLIC	??1error_category@std@@UAE@XZ			; std::error_category::~error_category
PUBLIC	?default_error_condition@error_category@std@@UBE?AVerror_condition@2@H@Z ; std::error_category::default_error_condition
PUBLIC	?equivalent@error_category@std@@UBE_NHABVerror_condition@2@@Z ; std::error_category::equivalent
PUBLIC	?equivalent@error_category@std@@UBE_NABVerror_code@2@H@Z ; std::error_category::equivalent
PUBLIC	??8error_category@std@@QBE_NABV01@@Z		; std::error_category::operator==
PUBLIC	??_Gerror_category@std@@UAEPAXI@Z		; std::error_category::`scalar deleting destructor'
PUBLIC	?value@error_code@std@@QBEHXZ			; std::error_code::value
PUBLIC	?category@error_code@std@@QBEABVerror_category@2@XZ ; std::error_code::category
PUBLIC	??0error_condition@std@@QAE@HABVerror_category@1@@Z ; std::error_condition::error_condition
PUBLIC	?value@error_condition@std@@QBEHXZ		; std::error_condition::value
PUBLIC	?category@error_condition@std@@QBEABVerror_category@2@XZ ; std::error_condition::category
PUBLIC	??8error_condition@std@@QBE_NABV01@@Z		; std::error_condition::operator==
PUBLIC	??0_Generic_error_category@std@@QAE@XZ		; std::_Generic_error_category::_Generic_error_category
PUBLIC	?name@_Generic_error_category@std@@UBEPBDXZ	; std::_Generic_error_category::name
PUBLIC	?message@_Generic_error_category@std@@UBE?AV?$basic_string@DU?$char_traits@D@std@@V?$allocator@D@2@@2@H@Z ; std::_Generic_error_category::message
PUBLIC	??1_Generic_error_category@std@@UAE@XZ		; std::_Generic_error_category::~_Generic_error_category
PUBLIC	??_G_Generic_error_category@std@@UAEPAXI@Z	; std::_Generic_error_category::`scalar deleting destructor'
PUBLIC	??0_Iostream_error_category@std@@QAE@XZ		; std::_Iostream_error_category::_Iostream_error_category
PUBLIC	?name@_Iostream_error_category@std@@UBEPBDXZ	; std::_Iostream_error_category::name
PUBLIC	?message@_Iostream_error_category@std@@UBE?AV?$basic_string@DU?$char_traits@D@std@@V?$allocator@D@2@@2@H@Z ; std::_Iostream_error_category::message
PUBLIC	??1_Iostream_error_category@std@@UAE@XZ		; std::_Iostream_error_category::~_Iostream_error_category
PUBLIC	??_G_Iostream_error_category@std@@UAEPAXI@Z	; std::_Iostream_error_category::`scalar deleting destructor'
PUBLIC	??0_System_error_category@std@@QAE@XZ		; std::_System_error_category::_System_error_category
PUBLIC	?name@_System_error_category@std@@UBEPBDXZ	; std::_System_error_category::name
PUBLIC	?message@_System_error_category@std@@UBE?AV?$basic_string@DU?$char_traits@D@std@@V?$allocator@D@2@@2@H@Z ; std::_System_error_category::message
PUBLIC	?default_error_condition@_System_error_category@std@@UBE?AVerror_condition@2@H@Z ; std::_System_error_category::default_error_condition
PUBLIC	??1_System_error_category@std@@UAE@XZ		; std::_System_error_category::~_System_error_category
PUBLIC	??_G_System_error_category@std@@UAEPAXI@Z	; std::_System_error_category::`scalar deleting destructor'
PUBLIC	?GetJoystickInput@@YAXXZ			; GetJoystickInput
PUBLIC	?ReadThrottle@@YAMXZ				; ReadThrottle
PUBLIC	?ProcessJoyButtonAndPOVHat@@YAXXZ		; ProcessJoyButtonAndPOVHat
PUBLIC	?JoystickReleaseEffects@@YAXXZ			; JoystickReleaseEffects
PUBLIC	??0AxisIDStuff@@QAE@XZ				; AxisIDStuff::AxisIDStuff
PUBLIC	?AnalogIsUsed@SIMLIB_IO_CLASS@@QAE_NW4GameAxis_t@@@Z ; SIMLIB_IO_CLASS::AnalogIsUsed
PUBLIC	?MouseWheelExists@SIMLIB_IO_CLASS@@QAE_NXZ	; SIMLIB_IO_CLASS::MouseWheelExists
PUBLIC	?SetMouseWheelExists@SIMLIB_IO_CLASS@@QAEX_N@Z	; SIMLIB_IO_CLASS::SetMouseWheelExists
PUBLIC	?Get3dTrackIR@PlayerOptionsClass@@QBE_NXZ	; PlayerOptionsClass::Get3dTrackIR
PUBLIC	?GetFFB@PlayerOptionsClass@@QBE_NXZ		; PlayerOptionsClass::GetFFB
PUBLIC	?SetHeadTracking@OTWDriverClass@@QAEXH@Z	; OTWDriverClass::SetHeadTracking
PUBLIC	?JoystickPlayEffect@@YAHHH@Z			; JoystickPlayEffect
PUBLIC	?JoystickStopEffect@@YAXH@Z			; JoystickStopEffect
PUBLIC	?JoystickEnumEffectTypeProc@@YGHPBUDIEFFECTINFOA@@PAX@Z ; JoystickEnumEffectTypeProc
PUBLIC	?JoystickCreateEffect@@YAHK@Z			; JoystickCreateEffect
PUBLIC	?getYaw@TrackIR@@QAEMXZ				; TrackIR::getYaw
PUBLIC	?getPitch@TrackIR@@QAEMXZ			; TrackIR::getPitch
PUBLIC	?getRoll@TrackIR@@QAEMXZ			; TrackIR::getRoll
PUBLIC	?SetJoystickCenter@@YAXXZ			; SetJoystickCenter
PUBLIC	?SetThrottleInActive@@YAXXZ			; SetThrottleInActive
PUBLIC	?resetStaticPOVButtonStates@@YAXXZ		; resetStaticPOVButtonStates
PUBLIC	?ProcessJoystickInput@@YAXW4GameAxis_t@@PAJ@Z	; ProcessJoystickInput
PUBLIC	?GetURHelmetInput@@YAXXZ			; GetURHelmetInput
PUBLIC	?GetTrackIRInput@@YAXXZ				; GetTrackIRInput
PUBLIC	?CheckAxisOnDevice@@YAXPAUIDirectInputDevice8A@@PBD@Z ; CheckAxisOnDevice
PUBLIC	?CheckForMouseAxis@@YAXXZ			; CheckForMouseAxis
PUBLIC	?ActivateAutoCenter@@YAH_NH@Z			; ActivateAutoCenter
PUBLIC	?CheckForForceFeedback@@YAHH@Z			; CheckForForceFeedback
PUBLIC	?InitJoystick@@YGHPBUDIDEVICEINSTANCEA@@PAX@Z	; InitJoystick
PUBLIC	?JoystickStopAllEffects@@YAXXZ			; JoystickStopAllEffects
PUBLIC	??$construct@PADAAPAD@?$_Wrap_alloc@V?$allocator@D@std@@@std@@QAEXPAPADAAPAD@Z ; std::_Wrap_alloc<std::allocator<char> >::construct<char *,char * &>
PUBLIC	??$destroy@PAD@?$_Wrap_alloc@V?$allocator@D@std@@@std@@QAEXPAPAD@Z ; std::_Wrap_alloc<std::allocator<char> >::destroy<char *>
PUBLIC	??$addressof@D@std@@YAPADAAD@Z			; std::addressof<char>
PUBLIC	??$_Allocate@D@std@@YAPADIPAD@Z			; std::_Allocate<char>
PUBLIC	??$forward@AAPAD@std@@YAAAPADAAPAD@Z		; std::forward<char * &>
PUBLIC	??$construct@PADAAPAD@?$allocator_traits@V?$allocator@D@std@@@std@@SAXAAV?$allocator@D@1@PAPADAAPAD@Z ; std::allocator_traits<std::allocator<char> >::construct<char *,char * &>
PUBLIC	??$destroy@PAD@?$allocator_traits@V?$allocator@D@std@@@std@@SAXAAV?$allocator@D@1@PAPAD@Z ; std::allocator_traits<std::allocator<char> >::destroy<char *>
PUBLIC	??$construct@PADAAPAD@?$allocator@D@std@@QAEXPAPADAAPAD@Z ; std::allocator<char>::construct<char *,char * &>
PUBLIC	??$destroy@PAD@?$allocator@D@std@@QAEXPAPAD@Z	; std::allocator<char>::destroy<char *>
PUBLIC	??_7error_category@std@@6B@			; std::error_category::`vftable'
PUBLIC	??_7_Generic_error_category@std@@6B@		; std::_Generic_error_category::`vftable'
PUBLIC	??_C@_07DCLBNMLN@generic?$AA@			; `string'
PUBLIC	??_C@_0O@BFJCFAAK@unknown?5error?$AA@		; `string'
PUBLIC	??_7_Iostream_error_category@std@@6B@		; std::_Iostream_error_category::`vftable'
PUBLIC	??_C@_08LLGCOLLL@iostream?$AA@			; `string'
PUBLIC	??_C@_0BG@PADBLCHM@iostream?5stream?5error?$AA@	; `string'
PUBLIC	??_7_System_error_category@std@@6B@		; std::_System_error_category::`vftable'
PUBLIC	??_C@_06FHFOAHML@system?$AA@			; `string'
PUBLIC	?_Generic_object@?$_Error_objects@H@std@@2V_Generic_error_category@2@A ; std::_Error_objects<int>::_Generic_object
PUBLIC	?_Iostream_object@?$_Error_objects@H@std@@2V_Iostream_error_category@2@A ; std::_Error_objects<int>::_Iostream_object
PUBLIC	?_System_object@?$_Error_objects@H@std@@2V_System_error_category@2@A ; std::_Error_objects<int>::_System_object
PUBLIC	?id@?$num_put@DV?$back_insert_iterator@V?$basic_string@DU?$char_traits@D@std@@V?$allocator@D@2@@std@@@std@@@std@@2V0locale@2@A ; std::num_put<char,std::back_insert_iterator<std::basic_string<char,std::char_traits<char>,std::allocator<char> > > >::id
PUBLIC	?id@?$num_put@_WV?$back_insert_iterator@V?$basic_string@_WU?$char_traits@_W@std@@V?$allocator@_W@2@@std@@@std@@@std@@2V0locale@2@A ; std::num_put<wchar_t,std::back_insert_iterator<std::basic_string<wchar_t,std::char_traits<wchar_t>,std::allocator<wchar_t> > > >::id
PUBLIC	?DIAxisNames@@3PAUAxisIDStuff@@A		; DIAxisNames
PUBLIC	??_C@_05CMIMAPOH@?5?$CI?$CFi?$CJ?$AA@		; `string'
PUBLIC	??_C@_03NLJIHOMM@?5?9?5?$AA@			; `string'
PUBLIC	??_C@_05PEEFLODH@Mouse?$AA@			; `string'
PUBLIC	??_C@_0CB@MBDIDOGB@Failed?5to?5turn?5auto?9center?5off?4?6@ ; `string'
PUBLIC	??_C@_0CA@PDCDDGBB@Failed?5to?5turn?5auto?9center?5on?4?6?$AA@ ; `string'
PUBLIC	??_C@_0BN@LOLGLJBM@ForceFeedback?5device?5found?4?6?$AA@ ; `string'
PUBLIC	??_C@_0DJ@GMMKGHIP@JoystickCreateEffects?$CI?$CJ?5failed?5?9@ ; `string'
PUBLIC	??_C@_0BD@OLBHJPIF@Union?5Reality?5Gear?$AA@	; `string'
PUBLIC	??_C@_0BB@LFHICIPA@UR?5Helmet?5found?6?$AA@	; `string'
PUBLIC	??_C@_0BH@GDMPLPHO@?$CFs?2config?2feedback?4ini?$AA@ ; `string'
PUBLIC	??_C@_01KDCPPGHE@r?$AA@				; `string'
PUBLIC	??_C@_0CI@MJHEFLO@Unable?5to?5open?5force?5feedback?5da@ ; `string'
PUBLIC	??_C@_0L@FDILMIHK@numEffects?$AA@		; `string'
PUBLIC	??_C@_0L@HDPGDEFC@EffectData?$AA@		; `string'
PUBLIC	??_C@_08COPAPDON@Effect?$CFd?$AA@		; `string'
PUBLIC	??_C@_05GECEPKB@flags?$AA@			; `string'
PUBLIC	??_C@_08LGBPINEC@duration?$AA@			; `string'
PUBLIC	??_C@_0N@EEKDBOKL@SamplePeriod?$AA@		; `string'
PUBLIC	??_C@_04CNCNIFFP@gain?$AA@			; `string'
PUBLIC	??_C@_0O@NIAAKIFG@triggerButton?$AA@		; `string'
PUBLIC	??_C@_0BG@PDPDKFIG@triggerRepeatInterval?$AA@	; `string'
PUBLIC	??_C@_07NEJAKLGD@numAxes?$AA@			; `string'
PUBLIC	??_C@_0N@FMMPIIBH@hasDirection?$AA@		; `string'
PUBLIC	??_C@_06LPGMDFJL@axes?$CFd?$AA@			; `string'
PUBLIC	??_C@_0M@PGJLBAOC@direction?$CFd?$AA@		; `string'
PUBLIC	??_C@_0BE@FMHGGMAK@envelopeAttackLevel?$AA@	; `string'
PUBLIC	??_C@_0BD@ILDHAMKC@envelopeAttackTime?$AA@	; `string'
PUBLIC	??_C@_0BC@GLODHCOA@envelopeFadeLevel?$AA@	; `string'
PUBLIC	??_C@_0BB@MGBCBGEJ@envelopeFadeTime?$AA@	; `string'
PUBLIC	??_C@_0L@GDECDOKP@effectType?$AA@		; `string'
PUBLIC	??_C@_0BE@DJHAGAHM@customForceChannels?$AA@	; `string'
PUBLIC	??_C@_0BI@BAELLFJD@customForceSamplePeriod?$AA@	; `string'
PUBLIC	??_C@_0BD@JMLNMFBA@customForceSamples?$AA@	; `string'
PUBLIC	??_C@_0CC@KKDEOJG@customForceForceChannel?$CFdSample?$CF@ ; `string'
PUBLIC	??_C@_0CC@CJKFBHN@EnumEffects?$CICostum?5Force?$CJ?5failed@ ; `string'
PUBLIC	??_C@_0BH@MAAJHLBF@periodicForceMagnitude?$AA@	; `string'
PUBLIC	??_C@_0BE@EPCIOPJE@periodicForceOffset?$AA@	; `string'
PUBLIC	??_C@_0BD@HABCEFBA@periodicForcePhase?$AA@	; `string'
PUBLIC	??_C@_0BE@LFLLGACD@periodicForcePeriod?$AA@	; `string'
PUBLIC	??_C@_0N@KBNIPPDA@periodicType?$AA@		; `string'
PUBLIC	??_C@_0CE@LOEFKLKG@EnumEffects?$CIPeriodic?5Force?$CJ?5fail@ ; `string'
PUBLIC	??_C@_0BH@INLCEELP@constantForceMagnitude?$AA@	; `string'
PUBLIC	??_C@_0CE@IIALFKGP@EnumEffects?$CIConstant?5Force?$CJ?5fail@ ; `string'
PUBLIC	??_C@_0P@KEOLMNEK@rampForceStart?$AA@		; `string'
PUBLIC	??_C@_0N@BLMJGCKF@rampForceEnd?$AA@		; `string'
PUBLIC	??_C@_0CA@KJIEJBLA@EnumEffects?$CIRamp?5Force?$CJ?5failed?6?$AA@ ; `string'
PUBLIC	??_C@_0BA@KGHBEBP@conditionOffset?$AA@		; `string'
PUBLIC	??_C@_0BN@CFKEPNCB@conditionPositiveCoefficient?$AA@ ; `string'
PUBLIC	??_C@_0BN@GCJEMCJH@conditionNegativeCoefficient?$AA@ ; `string'
PUBLIC	??_C@_0BM@MFGCFEOB@conditionPositiveSaturation?$AA@ ; `string'
PUBLIC	??_C@_0BM@EHJCJNAP@conditionNegativeSaturation?$AA@ ; `string'
PUBLIC	??_C@_0BC@JGBBHGCD@conditionDeadband?$AA@	; `string'
PUBLIC	??_C@_0CF@DPGBMHEB@SetParameters?$CIBounce?5effect?$CJ?5fai@ ; `string'
PUBLIC	??_C@_0CF@DNDCOJOI@SetParameters?$CIRunway?5Rumble?$CJ?5fai@ ; `string'
PUBLIC	??_C@_0CD@HLBFKCB@SetParameters?$CIAuto?5Center?$CJ?5faile@ ; `string'
PUBLIC	??_C@_0BI@MDDHALAN@Start?5Effect?5?$CFd?5Failed?6?$AA@ ; `string'
PUBLIC	?id@?$numpunct@D@std@@2V0locale@2@A		; std::numpunct<char>::id
PUBLIC	?id@?$numpunct@_W@std@@2V0locale@2@A		; std::numpunct<wchar_t>::id
PUBLIC	??_C@_0BI@CFPLBAOH@invalid?5string?5position?$AA@ ; `string'
PUBLIC	??_C@_0BA@JFNIOLAK@string?5too?5long?$AA@	; `string'
PUBLIC	??_R4error_category@std@@6B@			; std::error_category::`RTTI Complete Object Locator'
PUBLIC	??_R0?AVerror_category@std@@@8			; std::error_category `RTTI Type Descriptor'
PUBLIC	??_R3error_category@std@@8			; std::error_category::`RTTI Class Hierarchy Descriptor'
PUBLIC	??_R2error_category@std@@8			; std::error_category::`RTTI Base Class Array'
PUBLIC	??_R1A@?0A@EA@error_category@std@@8		; std::error_category::`RTTI Base Class Descriptor at (0,-1,0,64)'
PUBLIC	??_R4_Generic_error_category@std@@6B@		; std::_Generic_error_category::`RTTI Complete Object Locator'
PUBLIC	??_R0?AV_Generic_error_category@std@@@8		; std::_Generic_error_category `RTTI Type Descriptor'
PUBLIC	??_R3_Generic_error_category@std@@8		; std::_Generic_error_category::`RTTI Class Hierarchy Descriptor'
PUBLIC	??_R2_Generic_error_category@std@@8		; std::_Generic_error_category::`RTTI Base Class Array'
PUBLIC	??_R1A@?0A@EA@_Generic_error_category@std@@8	; std::_Generic_error_category::`RTTI Base Class Descriptor at (0,-1,0,64)'
PUBLIC	??_R4_Iostream_error_category@std@@6B@		; std::_Iostream_error_category::`RTTI Complete Object Locator'
PUBLIC	??_R0?AV_Iostream_error_category@std@@@8	; std::_Iostream_error_category `RTTI Type Descriptor'
PUBLIC	??_R3_Iostream_error_category@std@@8		; std::_Iostream_error_category::`RTTI Class Hierarchy Descriptor'
PUBLIC	??_R2_Iostream_error_category@std@@8		; std::_Iostream_error_category::`RTTI Base Class Array'
PUBLIC	??_R1A@?0A@EA@_Iostream_error_category@std@@8	; std::_Iostream_error_category::`RTTI Base Class Descriptor at (0,-1,0,64)'
PUBLIC	??_R4_System_error_category@std@@6B@		; std::_System_error_category::`RTTI Complete Object Locator'
PUBLIC	??_R0?AV_System_error_category@std@@@8		; std::_System_error_category `RTTI Type Descriptor'
PUBLIC	??_R3_System_error_category@std@@8		; std::_System_error_category::`RTTI Class Hierarchy Descriptor'
PUBLIC	??_R2_System_error_category@std@@8		; std::_System_error_category::`RTTI Base Class Array'
PUBLIC	??_R1A@?0A@EA@_System_error_category@std@@8	; std::_System_error_category::`RTTI Base Class Descriptor at (0,-1,0,64)'
PUBLIC	__real@00000000
PUBLIC	__real@3c8efa34
PUBLIC	__real@3dcccccd
PUBLIC	__real@3e4ccccd
PUBLIC	__real@3f4ccccd
PUBLIC	__real@3f800000
PUBLIC	__real@3fc00000
PUBLIC	__real@40000000
PUBLIC	__real@41c80000
PUBLIC	__real@43fa0000
PUBLIC	__real@461c4000
PUBLIC	__real@466a6000
PUBLIC	__real@bf800000
PUBLIC	__real@c2aa0000
PUBLIC	__real@c61c4000
PUBLIC	__xmm@80000000800000008000000080000000
EXTRN	__purecall:PROC
EXTRN	??2@YAPAXI@Z:PROC				; operator new
EXTRN	??3@YAXPAX@Z:PROC				; operator delete
EXTRN	_atexit:PROC
EXTRN	_memcpy:PROC
EXTRN	_memset:PROC
EXTRN	_strcpy:PROC
EXTRN	_strcat:PROC
EXTRN	_strcmp:PROC
EXTRN	_strlen:PROC
EXTRN	_memmove:PROC
EXTRN	_strncpy:PROC
EXTRN	__imp__OutputDebugStringA@4:PROC
EXTRN	__imp__GetTickCount@0:PROC
EXTRN	__imp__GetPrivateProfileIntA@16:PROC
EXTRN	_abs:PROC
EXTRN	_labs:PROC
EXTRN	_malloc:PROC
EXTRN	_fclose:PROC
EXTRN	_fopen:PROC
EXTRN	_sprintf:PROC
EXTRN	_MonoPrint:PROC
EXTRN	?F4IsBadReadPtr@@YA_NPBXI@Z:PROC		; F4IsBadReadPtr
EXTRN	??_V@YAXPAX@Z:PROC				; operator delete[]
EXTRN	??_U@YAPAXI@Z:PROC				; operator new[]
EXTRN	?_Xbad_alloc@std@@YAXXZ:PROC			; std::_Xbad_alloc
EXTRN	?_Xlength_error@std@@YAXPBD@Z:PROC		; std::_Xlength_error
EXTRN	?_Xout_of_range@std@@YAXPBD@Z:PROC		; std::_Xout_of_range
EXTRN	??_Eerror_category@std@@UAEPAXI@Z:PROC		; std::error_category::`vector deleting destructor'
EXTRN	?_Syserror_map@std@@YAPBDH@Z:PROC		; std::_Syserror_map
EXTRN	?_Winerror_map@std@@YAPBDH@Z:PROC		; std::_Winerror_map
EXTRN	??_E_Generic_error_category@std@@UAEPAXI@Z:PROC	; std::_Generic_error_category::`vector deleting destructor'
EXTRN	??_E_Iostream_error_category@std@@UAEPAXI@Z:PROC ; std::_Iostream_error_category::`vector deleting destructor'
EXTRN	??_E_System_error_category@std@@UAEPAXI@Z:PROC	; std::_System_error_category::`vector deleting destructor'
EXTRN	?AcquireDeviceInput@@YAXHH@Z:PROC		; AcquireDeviceInput
EXTRN	?VerifyResult@@YAHJ@Z:PROC			; VerifyResult
EXTRN	?GetAxisValue@SIMLIB_IO_CLASS@@QAEHW4GameAxis_t@@@Z:PROC ; SIMLIB_IO_CLASS::GetAxisValue
EXTRN	?SaveFile@SIMLIB_IO_CLASS@@QAEHXZ:PROC		; SIMLIB_IO_CLASS::SaveFile
EXTRN	?GetPlayerAircraft@SimulationDriver@@QBEPAVAircraftClass@@XZ:PROC ; SimulationDriver::GetPlayerAircraft
EXTRN	?POVKludgeFunction@SimulationDriver@@QAEXK@Z:PROC ; SimulationDriver::POVKludgeFunction
EXTRN	?GetButtonFunction@InputFunctionHashTable@@QAEP6AXKHPAX@ZHPAH@Z:PROC ; InputFunctionHashTable::GetButtonFunction
EXTRN	?GetPOVFunction@InputFunctionHashTable@@QAEP6AXKHPAX@ZHHPAH@Z:PROC ; InputFunctionHashTable::GetPOVFunction
EXTRN	?Dispatch@CockpitManager@@QAEXHH@Z:PROC		; CockpitManager::Dispatch
EXTRN	?GetButtonPointer@CockpitManager@@QAEPAVCPButtonObject@@H@Z:PROC ; CockpitManager::GetButtonPointer
EXTRN	?GetAxisValue@MouseWheelStuff@@QAEJXZ:PROC	; MouseWheelStuff::GetAxisValue
EXTRN	?Poll@TrackIR@@QAEXXZ:PROC			; TrackIR::Poll
EXTRN	?CallFunc@@YAXP6AXKHPAX@ZKH0@Z:PROC		; CallFunc
EXTRN	@__security_check_cookie@4:PROC
EXTRN	__CxxThrowException@8:PROC
EXTRN	___CxxFrameHandler3:PROC
EXTRN	_memset:PROC
EXTRN	_GUID_SysMouse:BYTE
EXTRN	_GUID_Square:BYTE
EXTRN	_GUID_Sine:BYTE
EXTRN	_GUID_Triangle:BYTE
EXTRN	_GUID_SawtoothUp:BYTE
EXTRN	_GUID_SawtoothDown:BYTE
EXTRN	_GUID_Spring:BYTE
EXTRN	_c_dfDIMouse:BYTE
EXTRN	_c_dfDIJoystick:BYTE
EXTRN	?SimLibMajorFrameTime@@3MA:DWORD		; SimLibMajorFrameTime
EXTRN	??_7type_info@@6B@:QWORD			; type_info::`vftable'
EXTRN	?gpDIObject@@3PAUIDirectInput8A@@A:DWORD	; gpDIObject
EXTRN	?gpDIDevice@@3PAPAUIDirectInputDevice8A@@A:BYTE	; gpDIDevice
EXTRN	?gTotalJoy@@3HA:DWORD				; gTotalJoy
EXTRN	?gDIDevNames@@3PAPADA:BYTE			; gDIDevNames
EXTRN	?IO@@3VSIMLIB_IO_CLASS@@A:BYTE			; IO
EXTRN	?SimDriver@@3VSimulationDriver@@A:BYTE		; SimDriver
EXTRN	?PlayerOptions@@3VPlayerOptionsClass@@A:BYTE	; PlayerOptions
EXTRN	?UserFunctionTable@@3VInputFunctionHashTable@@A:BYTE ; UserFunctionTable
EXTRN	?OTWDriver@@3VOTWDriverClass@@A:BYTE		; OTWDriver
EXTRN	?cockpitFlightData@@3VFlightData@@A:BYTE	; cockpitFlightData
EXTRN	?FalconDataDirectory@@3PADA:BYTE		; FalconDataDirectory
EXTRN	?theMouseWheelAxis@@3VMouseWheelStuff@@A:BYTE	; theMouseWheelAxis
EXTRN	?g_bEnableTrackIR@@3_NA:BYTE			; g_bEnableTrackIR
EXTRN	?theTrackIRObject@@3VTrackIR@@A:BYTE		; theTrackIRObject
EXTRN	?DisableSmoothing@@3HA:DWORD			; DisableSmoothing
EXTRN	?g_bUseNewSmoothing@@3_NA:BYTE			; g_bUseNewSmoothing
EXTRN	?PickleOverride@@3HA:DWORD			; PickleOverride
EXTRN	?TriggerOverride@@3HA:DWORD			; TriggerOverride
EXTRN	?UseKeyboardThrottle@@3HA:DWORD			; UseKeyboardThrottle
EXTRN	?g_nFFEffectAutoCenter@@3HA:DWORD		; g_nFFEffectAutoCenter
EXTRN	?AxisMap@@3UAxisMapping@@A:BYTE			; AxisMap
EXTRN	?AxisSetup@@3PAUGameAxisSetup_t@@A:BYTE		; AxisSetup
EXTRN	___security_cookie:DWORD
EXTRN	__fltused:DWORD
_BSS	SEGMENT
_piecewise_construct DB 01H DUP (?)
	ALIGN	4

_allocator_arg DB 01H DUP (?)
_BSS	ENDS
;	COMDAT ?_Generic_object@?$_Error_objects@H@std@@2V_Generic_error_category@2@A
_BSS	SEGMENT
?_Generic_object@?$_Error_objects@H@std@@2V_Generic_error_category@2@A DD 01H DUP (?) ; std::_Error_objects<int>::_Generic_object
_BSS	ENDS
;	COMDAT ?_Iostream_object@?$_Error_objects@H@std@@2V_Iostream_error_category@2@A
_BSS	SEGMENT
?_Iostream_object@?$_Error_objects@H@std@@2V_Iostream_error_category@2@A DD 01H DUP (?) ; std::_Error_objects<int>::_Iostream_object
_BSS	ENDS
;	COMDAT ?_System_object@?$_Error_objects@H@std@@2V_System_error_category@2@A
_BSS	SEGMENT
?_System_object@?$_Error_objects@H@std@@2V_System_error_category@2@A DD 01H DUP (?) ; std::_Error_objects<int>::_System_object
_BSS	ENDS
;	COMDAT ?id@?$num_put@DV?$back_insert_iterator@V?$basic_string@DU?$char_traits@D@std@@V?$allocator@D@2@@std@@@std@@@std@@2V0locale@2@A
_BSS	SEGMENT
?id@?$num_put@DV?$back_insert_iterator@V?$basic_string@DU?$char_traits@D@std@@V?$allocator@D@2@@std@@@std@@@std@@2V0locale@2@A DD 01H DUP (?) ; std::num_put<char,std::back_insert_iterator<std::basic_string<char,std::char_traits<char>,std::allocator<char> > > >::id
_BSS	ENDS
;	COMDAT ?id@?$num_put@_WV?$back_insert_iterator@V?$basic_string@_WU?$char_traits@_W@std@@V?$allocator@_W@2@@std@@@std@@@std@@2V0locale@2@A
_BSS	SEGMENT
?id@?$num_put@_WV?$back_insert_iterator@V?$basic_string@_WU?$char_traits@_W@std@@V?$allocator@_W@2@@std@@@std@@@std@@2V0locale@2@A DD 01H DUP (?) ; std::num_put<wchar_t,std::back_insert_iterator<std::basic_string<wchar_t,std::char_traits<wchar_t>,std::allocator<wchar_t> > > >::id
_BSS	ENDS
_BSS	SEGMENT
	ALIGN	4

?DIAxisNames@@3PAUAxisIDStuff@@A DB 0800H DUP (?)	; DIAxisNames
_BSS	ENDS
;	COMDAT ?id@?$numpunct@D@std@@2V0locale@2@A
_BSS	SEGMENT
?id@?$numpunct@D@std@@2V0locale@2@A DD 01H DUP (?)	; std::numpunct<char>::id
_BSS	ENDS
;	COMDAT ?id@?$numpunct@_W@std@@2V0locale@2@A
_BSS	SEGMENT
?id@?$numpunct@_W@std@@2V0locale@2@A DD 01H DUP (?)	; std::numpunct<wchar_t>::id
_BSS	ENDS
CRT$XCU	SEGMENT
_piecewise_construct$initializer$ DD FLAT:??__Epiecewise_construct@std@@YAXXZ
CRT$XCU	ENDS
;	COMDAT __xmm@80000000800000008000000080000000
CONST	SEGMENT
__xmm@80000000800000008000000080000000 DB 00H, 00H, 00H, 080H, 00H, 00H, 00H
	DB	080H, 00H, 00H, 00H, 080H, 00H, 00H, 00H, 080H
CONST	ENDS
;	COMDAT __real@c61c4000
CONST	SEGMENT
__real@c61c4000 DD 0c61c4000r			; -10000
CONST	ENDS
;	COMDAT __real@c2aa0000
CONST	SEGMENT
__real@c2aa0000 DD 0c2aa0000r			; -85
CONST	ENDS
;	COMDAT __real@bf800000
CONST	SEGMENT
__real@bf800000 DD 0bf800000r			; -1
CONST	ENDS
;	COMDAT __real@466a6000
CONST	SEGMENT
__real@466a6000 DD 0466a6000r			; 15000
CONST	ENDS
;	COMDAT __real@461c4000
CONST	SEGMENT
__real@461c4000 DD 0461c4000r			; 10000
CONST	ENDS
;	COMDAT __real@43fa0000
CONST	SEGMENT
__real@43fa0000 DD 043fa0000r			; 500
CONST	ENDS
;	COMDAT __real@41c80000
CONST	SEGMENT
__real@41c80000 DD 041c80000r			; 25
CONST	ENDS
;	COMDAT __real@40000000
CONST	SEGMENT
__real@40000000 DD 040000000r			; 2
CONST	ENDS
;	COMDAT __real@3fc00000
CONST	SEGMENT
__real@3fc00000 DD 03fc00000r			; 1.5
CONST	ENDS
;	COMDAT __real@3f800000
CONST	SEGMENT
__real@3f800000 DD 03f800000r			; 1
CONST	ENDS
;	COMDAT __real@3f4ccccd
CONST	SEGMENT
__real@3f4ccccd DD 03f4ccccdr			; 0.8
CONST	ENDS
;	COMDAT __real@3e4ccccd
CONST	SEGMENT
__real@3e4ccccd DD 03e4ccccdr			; 0.2
CONST	ENDS
;	COMDAT __real@3dcccccd
CONST	SEGMENT
__real@3dcccccd DD 03dcccccdr			; 0.1
CONST	ENDS
;	COMDAT __real@3c8efa34
CONST	SEGMENT
__real@3c8efa34 DD 03c8efa34r			; 0.0174533
CONST	ENDS
;	COMDAT __real@00000000
CONST	SEGMENT
__real@00000000 DD 000000000r			; 0
CONST	ENDS
;	COMDAT ??_R1A@?0A@EA@_System_error_category@std@@8
rdata$r	SEGMENT
??_R1A@?0A@EA@_System_error_category@std@@8 DD FLAT:??_R0?AV_System_error_category@std@@@8 ; std::_System_error_category::`RTTI Base Class Descriptor at (0,-1,0,64)'
	DD	02H
	DD	00H
	DD	0ffffffffH
	DD	00H
	DD	040H
	DD	FLAT:??_R3_System_error_category@std@@8
rdata$r	ENDS
;	COMDAT ??_R2_System_error_category@std@@8
rdata$r	SEGMENT
??_R2_System_error_category@std@@8 DD FLAT:??_R1A@?0A@EA@_System_error_category@std@@8 ; std::_System_error_category::`RTTI Base Class Array'
	DD	FLAT:??_R1A@?0A@EA@_Generic_error_category@std@@8
	DD	FLAT:??_R1A@?0A@EA@error_category@std@@8
rdata$r	ENDS
;	COMDAT ??_R3_System_error_category@std@@8
rdata$r	SEGMENT
??_R3_System_error_category@std@@8 DD 00H		; std::_System_error_category::`RTTI Class Hierarchy Descriptor'
	DD	00H
	DD	03H
	DD	FLAT:??_R2_System_error_category@std@@8
rdata$r	ENDS
;	COMDAT ??_R0?AV_System_error_category@std@@@8
_DATA	SEGMENT
??_R0?AV_System_error_category@std@@@8 DD FLAT:??_7type_info@@6B@ ; std::_System_error_category `RTTI Type Descriptor'
	DD	00H
	DB	'.?AV_System_error_category@std@@', 00H
_DATA	ENDS
;	COMDAT ??_R4_System_error_category@std@@6B@
rdata$r	SEGMENT
??_R4_System_error_category@std@@6B@ DD 00H		; std::_System_error_category::`RTTI Complete Object Locator'
	DD	00H
	DD	00H
	DD	FLAT:??_R0?AV_System_error_category@std@@@8
	DD	FLAT:??_R3_System_error_category@std@@8
rdata$r	ENDS
;	COMDAT ??_R1A@?0A@EA@_Iostream_error_category@std@@8
rdata$r	SEGMENT
??_R1A@?0A@EA@_Iostream_error_category@std@@8 DD FLAT:??_R0?AV_Iostream_error_category@std@@@8 ; std::_Iostream_error_category::`RTTI Base Class Descriptor at (0,-1,0,64)'
	DD	02H
	DD	00H
	DD	0ffffffffH
	DD	00H
	DD	040H
	DD	FLAT:??_R3_Iostream_error_category@std@@8
rdata$r	ENDS
;	COMDAT ??_R2_Iostream_error_category@std@@8
rdata$r	SEGMENT
??_R2_Iostream_error_category@std@@8 DD FLAT:??_R1A@?0A@EA@_Iostream_error_category@std@@8 ; std::_Iostream_error_category::`RTTI Base Class Array'
	DD	FLAT:??_R1A@?0A@EA@_Generic_error_category@std@@8
	DD	FLAT:??_R1A@?0A@EA@error_category@std@@8
rdata$r	ENDS
;	COMDAT ??_R3_Iostream_error_category@std@@8
rdata$r	SEGMENT
??_R3_Iostream_error_category@std@@8 DD 00H		; std::_Iostream_error_category::`RTTI Class Hierarchy Descriptor'
	DD	00H
	DD	03H
	DD	FLAT:??_R2_Iostream_error_category@std@@8
rdata$r	ENDS
;	COMDAT ??_R0?AV_Iostream_error_category@std@@@8
_DATA	SEGMENT
??_R0?AV_Iostream_error_category@std@@@8 DD FLAT:??_7type_info@@6B@ ; std::_Iostream_error_category `RTTI Type Descriptor'
	DD	00H
	DB	'.?AV_Iostream_error_category@std@@', 00H
_DATA	ENDS
;	COMDAT ??_R4_Iostream_error_category@std@@6B@
rdata$r	SEGMENT
??_R4_Iostream_error_category@std@@6B@ DD 00H		; std::_Iostream_error_category::`RTTI Complete Object Locator'
	DD	00H
	DD	00H
	DD	FLAT:??_R0?AV_Iostream_error_category@std@@@8
	DD	FLAT:??_R3_Iostream_error_category@std@@8
rdata$r	ENDS
;	COMDAT ??_R1A@?0A@EA@_Generic_error_category@std@@8
rdata$r	SEGMENT
??_R1A@?0A@EA@_Generic_error_category@std@@8 DD FLAT:??_R0?AV_Generic_error_category@std@@@8 ; std::_Generic_error_category::`RTTI Base Class Descriptor at (0,-1,0,64)'
	DD	01H
	DD	00H
	DD	0ffffffffH
	DD	00H
	DD	040H
	DD	FLAT:??_R3_Generic_error_category@std@@8
rdata$r	ENDS
;	COMDAT ??_R2_Generic_error_category@std@@8
rdata$r	SEGMENT
??_R2_Generic_error_category@std@@8 DD FLAT:??_R1A@?0A@EA@_Generic_error_category@std@@8 ; std::_Generic_error_category::`RTTI Base Class Array'
	DD	FLAT:??_R1A@?0A@EA@error_category@std@@8
rdata$r	ENDS
;	COMDAT ??_R3_Generic_error_category@std@@8
rdata$r	SEGMENT
??_R3_Generic_error_category@std@@8 DD 00H		; std::_Generic_error_category::`RTTI Class Hierarchy Descriptor'
	DD	00H
	DD	02H
	DD	FLAT:??_R2_Generic_error_category@std@@8
rdata$r	ENDS
;	COMDAT ??_R0?AV_Generic_error_category@std@@@8
_DATA	SEGMENT
??_R0?AV_Generic_error_category@std@@@8 DD FLAT:??_7type_info@@6B@ ; std::_Generic_error_category `RTTI Type Descriptor'
	DD	00H
	DB	'.?AV_Generic_error_category@std@@', 00H
_DATA	ENDS
;	COMDAT ??_R4_Generic_error_category@std@@6B@
rdata$r	SEGMENT
??_R4_Generic_error_category@std@@6B@ DD 00H		; std::_Generic_error_category::`RTTI Complete Object Locator'
	DD	00H
	DD	00H
	DD	FLAT:??_R0?AV_Generic_error_category@std@@@8
	DD	FLAT:??_R3_Generic_error_category@std@@8
rdata$r	ENDS
;	COMDAT ??_R1A@?0A@EA@error_category@std@@8
rdata$r	SEGMENT
??_R1A@?0A@EA@error_category@std@@8 DD FLAT:??_R0?AVerror_category@std@@@8 ; std::error_category::`RTTI Base Class Descriptor at (0,-1,0,64)'
	DD	00H
	DD	00H
	DD	0ffffffffH
	DD	00H
	DD	040H
	DD	FLAT:??_R3error_category@std@@8
rdata$r	ENDS
;	COMDAT ??_R2error_category@std@@8
rdata$r	SEGMENT
??_R2error_category@std@@8 DD FLAT:??_R1A@?0A@EA@error_category@std@@8 ; std::error_category::`RTTI Base Class Array'
rdata$r	ENDS
;	COMDAT ??_R3error_category@std@@8
rdata$r	SEGMENT
??_R3error_category@std@@8 DD 00H			; std::error_category::`RTTI Class Hierarchy Descriptor'
	DD	00H
	DD	01H
	DD	FLAT:??_R2error_category@std@@8
rdata$r	ENDS
;	COMDAT ??_R0?AVerror_category@std@@@8
_DATA	SEGMENT
??_R0?AVerror_category@std@@@8 DD FLAT:??_7type_info@@6B@ ; std::error_category `RTTI Type Descriptor'
	DD	00H
	DB	'.?AVerror_category@std@@', 00H
_DATA	ENDS
;	COMDAT ??_R4error_category@std@@6B@
rdata$r	SEGMENT
??_R4error_category@std@@6B@ DD 00H			; std::error_category::`RTTI Complete Object Locator'
	DD	00H
	DD	00H
	DD	FLAT:??_R0?AVerror_category@std@@@8
	DD	FLAT:??_R3error_category@std@@8
rdata$r	ENDS
;	COMDAT ??_C@_0BA@JFNIOLAK@string?5too?5long?$AA@
CONST	SEGMENT
??_C@_0BA@JFNIOLAK@string?5too?5long?$AA@ DB 'string too long', 00H ; `string'
CONST	ENDS
;	COMDAT ??_C@_0BI@CFPLBAOH@invalid?5string?5position?$AA@
CONST	SEGMENT
??_C@_0BI@CFPLBAOH@invalid?5string?5position?$AA@ DB 'invalid string posi'
	DB	'tion', 00H					; `string'
CONST	ENDS
;	COMDAT ??_C@_0BI@MDDHALAN@Start?5Effect?5?$CFd?5Failed?6?$AA@
CONST	SEGMENT
??_C@_0BI@MDDHALAN@Start?5Effect?5?$CFd?5Failed?6?$AA@ DB 'Start Effect %'
	DB	'd Failed', 0aH, 00H				; `string'
CONST	ENDS
;	COMDAT ??_C@_0CD@HLBFKCB@SetParameters?$CIAuto?5Center?$CJ?5faile@
CONST	SEGMENT
??_C@_0CD@HLBFKCB@SetParameters?$CIAuto?5Center?$CJ?5faile@ DB 'SetParame'
	DB	'ters(Auto Center) failed', 0aH, 00H		; `string'
CONST	ENDS
;	COMDAT ??_C@_0CF@DNDCOJOI@SetParameters?$CIRunway?5Rumble?$CJ?5fai@
CONST	SEGMENT
??_C@_0CF@DNDCOJOI@SetParameters?$CIRunway?5Rumble?$CJ?5fai@ DB 'SetParam'
	DB	'eters(Runway Rumble) failed', 0aH, 00H	; `string'
CONST	ENDS
;	COMDAT ??_C@_0CF@DPGBMHEB@SetParameters?$CIBounce?5effect?$CJ?5fai@
CONST	SEGMENT
??_C@_0CF@DPGBMHEB@SetParameters?$CIBounce?5effect?$CJ?5fai@ DB 'SetParam'
	DB	'eters(Bounce effect) failed', 0aH, 00H	; `string'
CONST	ENDS
;	COMDAT ??_C@_0BC@JGBBHGCD@conditionDeadband?$AA@
CONST	SEGMENT
??_C@_0BC@JGBBHGCD@conditionDeadband?$AA@ DB 'conditionDeadband', 00H ; `string'
CONST	ENDS
;	COMDAT ??_C@_0BM@EHJCJNAP@conditionNegativeSaturation?$AA@
CONST	SEGMENT
??_C@_0BM@EHJCJNAP@conditionNegativeSaturation?$AA@ DB 'conditionNegative'
	DB	'Saturation', 00H				; `string'
CONST	ENDS
;	COMDAT ??_C@_0BM@MFGCFEOB@conditionPositiveSaturation?$AA@
CONST	SEGMENT
??_C@_0BM@MFGCFEOB@conditionPositiveSaturation?$AA@ DB 'conditionPositive'
	DB	'Saturation', 00H				; `string'
CONST	ENDS
;	COMDAT ??_C@_0BN@GCJEMCJH@conditionNegativeCoefficient?$AA@
CONST	SEGMENT
??_C@_0BN@GCJEMCJH@conditionNegativeCoefficient?$AA@ DB 'conditionNegativ'
	DB	'eCoefficient', 00H				; `string'
CONST	ENDS
;	COMDAT ??_C@_0BN@CFKEPNCB@conditionPositiveCoefficient?$AA@
CONST	SEGMENT
??_C@_0BN@CFKEPNCB@conditionPositiveCoefficient?$AA@ DB 'conditionPositiv'
	DB	'eCoefficient', 00H				; `string'
CONST	ENDS
;	COMDAT ??_C@_0BA@KGHBEBP@conditionOffset?$AA@
CONST	SEGMENT
??_C@_0BA@KGHBEBP@conditionOffset?$AA@ DB 'conditionOffset', 00H ; `string'
CONST	ENDS
;	COMDAT ??_C@_0CA@KJIEJBLA@EnumEffects?$CIRamp?5Force?$CJ?5failed?6?$AA@
CONST	SEGMENT
??_C@_0CA@KJIEJBLA@EnumEffects?$CIRamp?5Force?$CJ?5failed?6?$AA@ DB 'Enum'
	DB	'Effects(Ramp Force) failed', 0aH, 00H	; `string'
CONST	ENDS
;	COMDAT ??_C@_0N@BLMJGCKF@rampForceEnd?$AA@
CONST	SEGMENT
??_C@_0N@BLMJGCKF@rampForceEnd?$AA@ DB 'rampForceEnd', 00H ; `string'
CONST	ENDS
;	COMDAT ??_C@_0P@KEOLMNEK@rampForceStart?$AA@
CONST	SEGMENT
??_C@_0P@KEOLMNEK@rampForceStart?$AA@ DB 'rampForceStart', 00H ; `string'
CONST	ENDS
;	COMDAT ??_C@_0CE@IIALFKGP@EnumEffects?$CIConstant?5Force?$CJ?5fail@
CONST	SEGMENT
??_C@_0CE@IIALFKGP@EnumEffects?$CIConstant?5Force?$CJ?5fail@ DB 'EnumEffe'
	DB	'cts(Constant Force) failed', 0aH, 00H	; `string'
CONST	ENDS
;	COMDAT ??_C@_0BH@INLCEELP@constantForceMagnitude?$AA@
CONST	SEGMENT
??_C@_0BH@INLCEELP@constantForceMagnitude?$AA@ DB 'constantForceMagnitude'
	DB	00H						; `string'
CONST	ENDS
;	COMDAT ??_C@_0CE@LOEFKLKG@EnumEffects?$CIPeriodic?5Force?$CJ?5fail@
CONST	SEGMENT
??_C@_0CE@LOEFKLKG@EnumEffects?$CIPeriodic?5Force?$CJ?5fail@ DB 'EnumEffe'
	DB	'cts(Periodic Force) failed', 0aH, 00H	; `string'
CONST	ENDS
;	COMDAT ??_C@_0N@KBNIPPDA@periodicType?$AA@
CONST	SEGMENT
??_C@_0N@KBNIPPDA@periodicType?$AA@ DB 'periodicType', 00H ; `string'
CONST	ENDS
;	COMDAT ??_C@_0BE@LFLLGACD@periodicForcePeriod?$AA@
CONST	SEGMENT
??_C@_0BE@LFLLGACD@periodicForcePeriod?$AA@ DB 'periodicForcePeriod', 00H ; `string'
CONST	ENDS
;	COMDAT ??_C@_0BD@HABCEFBA@periodicForcePhase?$AA@
CONST	SEGMENT
??_C@_0BD@HABCEFBA@periodicForcePhase?$AA@ DB 'periodicForcePhase', 00H ; `string'
CONST	ENDS
;	COMDAT ??_C@_0BE@EPCIOPJE@periodicForceOffset?$AA@
CONST	SEGMENT
??_C@_0BE@EPCIOPJE@periodicForceOffset?$AA@ DB 'periodicForceOffset', 00H ; `string'
CONST	ENDS
;	COMDAT ??_C@_0BH@MAAJHLBF@periodicForceMagnitude?$AA@
CONST	SEGMENT
??_C@_0BH@MAAJHLBF@periodicForceMagnitude?$AA@ DB 'periodicForceMagnitude'
	DB	00H						; `string'
CONST	ENDS
;	COMDAT ??_C@_0CC@CJKFBHN@EnumEffects?$CICostum?5Force?$CJ?5failed@
CONST	SEGMENT
??_C@_0CC@CJKFBHN@EnumEffects?$CICostum?5Force?$CJ?5failed@ DB 'EnumEffec'
	DB	'ts(Costum Force) failed', 0aH, 00H		; `string'
CONST	ENDS
;	COMDAT ??_C@_0CC@KKDEOJG@customForceForceChannel?$CFdSample?$CF@
CONST	SEGMENT
??_C@_0CC@KKDEOJG@customForceForceChannel?$CFdSample?$CF@ DB 'customForce'
	DB	'ForceChannel%dSample%d', 00H		; `string'
CONST	ENDS
;	COMDAT ??_C@_0BD@JMLNMFBA@customForceSamples?$AA@
CONST	SEGMENT
??_C@_0BD@JMLNMFBA@customForceSamples?$AA@ DB 'customForceSamples', 00H ; `string'
CONST	ENDS
;	COMDAT ??_C@_0BI@BAELLFJD@customForceSamplePeriod?$AA@
CONST	SEGMENT
??_C@_0BI@BAELLFJD@customForceSamplePeriod?$AA@ DB 'customForceSamplePeri'
	DB	'od', 00H					; `string'
CONST	ENDS
;	COMDAT ??_C@_0BE@DJHAGAHM@customForceChannels?$AA@
CONST	SEGMENT
??_C@_0BE@DJHAGAHM@customForceChannels?$AA@ DB 'customForceChannels', 00H ; `string'
CONST	ENDS
;	COMDAT ??_C@_0L@GDECDOKP@effectType?$AA@
CONST	SEGMENT
??_C@_0L@GDECDOKP@effectType?$AA@ DB 'effectType', 00H	; `string'
CONST	ENDS
;	COMDAT ??_C@_0BB@MGBCBGEJ@envelopeFadeTime?$AA@
CONST	SEGMENT
??_C@_0BB@MGBCBGEJ@envelopeFadeTime?$AA@ DB 'envelopeFadeTime', 00H ; `string'
CONST	ENDS
;	COMDAT ??_C@_0BC@GLODHCOA@envelopeFadeLevel?$AA@
CONST	SEGMENT
??_C@_0BC@GLODHCOA@envelopeFadeLevel?$AA@ DB 'envelopeFadeLevel', 00H ; `string'
CONST	ENDS
;	COMDAT ??_C@_0BD@ILDHAMKC@envelopeAttackTime?$AA@
CONST	SEGMENT
??_C@_0BD@ILDHAMKC@envelopeAttackTime?$AA@ DB 'envelopeAttackTime', 00H ; `string'
CONST	ENDS
;	COMDAT ??_C@_0BE@FMHGGMAK@envelopeAttackLevel?$AA@
CONST	SEGMENT
??_C@_0BE@FMHGGMAK@envelopeAttackLevel?$AA@ DB 'envelopeAttackLevel', 00H ; `string'
CONST	ENDS
;	COMDAT ??_C@_0M@PGJLBAOC@direction?$CFd?$AA@
CONST	SEGMENT
??_C@_0M@PGJLBAOC@direction?$CFd?$AA@ DB 'direction%d', 00H ; `string'
CONST	ENDS
;	COMDAT ??_C@_06LPGMDFJL@axes?$CFd?$AA@
CONST	SEGMENT
??_C@_06LPGMDFJL@axes?$CFd?$AA@ DB 'axes%d', 00H	; `string'
CONST	ENDS
;	COMDAT ??_C@_0N@FMMPIIBH@hasDirection?$AA@
CONST	SEGMENT
??_C@_0N@FMMPIIBH@hasDirection?$AA@ DB 'hasDirection', 00H ; `string'
CONST	ENDS
;	COMDAT ??_C@_07NEJAKLGD@numAxes?$AA@
CONST	SEGMENT
??_C@_07NEJAKLGD@numAxes?$AA@ DB 'numAxes', 00H		; `string'
CONST	ENDS
;	COMDAT ??_C@_0BG@PDPDKFIG@triggerRepeatInterval?$AA@
CONST	SEGMENT
??_C@_0BG@PDPDKFIG@triggerRepeatInterval?$AA@ DB 'triggerRepeatInterval', 00H ; `string'
CONST	ENDS
;	COMDAT ??_C@_0O@NIAAKIFG@triggerButton?$AA@
CONST	SEGMENT
??_C@_0O@NIAAKIFG@triggerButton?$AA@ DB 'triggerButton', 00H ; `string'
CONST	ENDS
;	COMDAT ??_C@_04CNCNIFFP@gain?$AA@
CONST	SEGMENT
??_C@_04CNCNIFFP@gain?$AA@ DB 'gain', 00H		; `string'
CONST	ENDS
;	COMDAT ??_C@_0N@EEKDBOKL@SamplePeriod?$AA@
CONST	SEGMENT
??_C@_0N@EEKDBOKL@SamplePeriod?$AA@ DB 'SamplePeriod', 00H ; `string'
CONST	ENDS
;	COMDAT ??_C@_08LGBPINEC@duration?$AA@
CONST	SEGMENT
??_C@_08LGBPINEC@duration?$AA@ DB 'duration', 00H	; `string'
CONST	ENDS
;	COMDAT ??_C@_05GECEPKB@flags?$AA@
CONST	SEGMENT
??_C@_05GECEPKB@flags?$AA@ DB 'flags', 00H		; `string'
CONST	ENDS
;	COMDAT ??_C@_08COPAPDON@Effect?$CFd?$AA@
CONST	SEGMENT
??_C@_08COPAPDON@Effect?$CFd?$AA@ DB 'Effect%d', 00H	; `string'
CONST	ENDS
;	COMDAT ??_C@_0L@HDPGDEFC@EffectData?$AA@
CONST	SEGMENT
??_C@_0L@HDPGDEFC@EffectData?$AA@ DB 'EffectData', 00H	; `string'
CONST	ENDS
;	COMDAT ??_C@_0L@FDILMIHK@numEffects?$AA@
CONST	SEGMENT
??_C@_0L@FDILMIHK@numEffects?$AA@ DB 'numEffects', 00H	; `string'
CONST	ENDS
;	COMDAT ??_C@_0CI@MJHEFLO@Unable?5to?5open?5force?5feedback?5da@
CONST	SEGMENT
??_C@_0CI@MJHEFLO@Unable?5to?5open?5force?5feedback?5da@ DB 'Unable to op'
	DB	'en force feedback data file', 00H		; `string'
CONST	ENDS
;	COMDAT ??_C@_01KDCPPGHE@r?$AA@
CONST	SEGMENT
??_C@_01KDCPPGHE@r?$AA@ DB 'r', 00H			; `string'
CONST	ENDS
;	COMDAT ??_C@_0BH@GDMPLPHO@?$CFs?2config?2feedback?4ini?$AA@
CONST	SEGMENT
??_C@_0BH@GDMPLPHO@?$CFs?2config?2feedback?4ini?$AA@ DB '%s\config\feedba'
	DB	'ck.ini', 00H				; `string'
CONST	ENDS
;	COMDAT ??_C@_0BB@LFHICIPA@UR?5Helmet?5found?6?$AA@
CONST	SEGMENT
??_C@_0BB@LFHICIPA@UR?5Helmet?5found?6?$AA@ DB 'UR Helmet found', 0aH, 00H ; `string'
CONST	ENDS
;	COMDAT ??_C@_0BD@OLBHJPIF@Union?5Reality?5Gear?$AA@
CONST	SEGMENT
??_C@_0BD@OLBHJPIF@Union?5Reality?5Gear?$AA@ DB 'Union Reality Gear', 00H ; `string'
CONST	ENDS
;	COMDAT ??_C@_0DJ@GMMKGHIP@JoystickCreateEffects?$CI?$CJ?5failed?5?9@
CONST	SEGMENT
??_C@_0DJ@GMMKGHIP@JoystickCreateEffects?$CI?$CJ?5failed?5?9@ DB 'Joystic'
	DB	'kCreateEffects() failed - ForceFeedback disabled', 0aH, 00H ; `string'
CONST	ENDS
;	COMDAT ??_C@_0BN@LOLGLJBM@ForceFeedback?5device?5found?4?6?$AA@
CONST	SEGMENT
??_C@_0BN@LOLGLJBM@ForceFeedback?5device?5found?4?6?$AA@ DB 'ForceFeedbac'
	DB	'k device found.', 0aH, 00H			; `string'
CONST	ENDS
;	COMDAT ??_C@_0CA@PDCDDGBB@Failed?5to?5turn?5auto?9center?5on?4?6?$AA@
CONST	SEGMENT
??_C@_0CA@PDCDDGBB@Failed?5to?5turn?5auto?9center?5on?4?6?$AA@ DB 'Failed'
	DB	' to turn auto-center on.', 0aH, 00H		; `string'
CONST	ENDS
;	COMDAT ??_C@_0CB@MBDIDOGB@Failed?5to?5turn?5auto?9center?5off?4?6@
CONST	SEGMENT
??_C@_0CB@MBDIDOGB@Failed?5to?5turn?5auto?9center?5off?4?6@ DB 'Failed to'
	DB	' turn auto-center off.', 0aH, 00H		; `string'
CONST	ENDS
;	COMDAT ??_C@_05PEEFLODH@Mouse?$AA@
CONST	SEGMENT
??_C@_05PEEFLODH@Mouse?$AA@ DB 'Mouse', 00H		; `string'
CONST	ENDS
;	COMDAT ??_C@_03NLJIHOMM@?5?9?5?$AA@
CONST	SEGMENT
??_C@_03NLJIHOMM@?5?9?5?$AA@ DB ' - ', 00H		; `string'
CONST	ENDS
;	COMDAT ??_C@_05CMIMAPOH@?5?$CI?$CFi?$CJ?$AA@
CONST	SEGMENT
??_C@_05CMIMAPOH@?5?$CI?$CFi?$CJ?$AA@ DB ' (%i)', 00H	; `string'
CONST	ENDS
;	COMDAT ??_C@_06FHFOAHML@system?$AA@
CONST	SEGMENT
??_C@_06FHFOAHML@system?$AA@ DB 'system', 00H		; `string'
CONST	ENDS
;	COMDAT ??_7_System_error_category@std@@6B@
CONST	SEGMENT
??_7_System_error_category@std@@6B@ DD FLAT:??_R4_System_error_category@std@@6B@ ; std::_System_error_category::`vftable'
	DD	FLAT:??_E_System_error_category@std@@UAEPAXI@Z
	DD	FLAT:?name@_System_error_category@std@@UBEPBDXZ
	DD	FLAT:?message@_System_error_category@std@@UBE?AV?$basic_string@DU?$char_traits@D@std@@V?$allocator@D@2@@2@H@Z
	DD	FLAT:?default_error_condition@_System_error_category@std@@UBE?AVerror_condition@2@H@Z
	DD	FLAT:?equivalent@error_category@std@@UBE_NABVerror_code@2@H@Z
	DD	FLAT:?equivalent@error_category@std@@UBE_NHABVerror_condition@2@@Z
CONST	ENDS
;	COMDAT ??_C@_0BG@PADBLCHM@iostream?5stream?5error?$AA@
CONST	SEGMENT
??_C@_0BG@PADBLCHM@iostream?5stream?5error?$AA@ DB 'iostream stream error'
	DB	00H						; `string'
CONST	ENDS
;	COMDAT ??_C@_08LLGCOLLL@iostream?$AA@
CONST	SEGMENT
??_C@_08LLGCOLLL@iostream?$AA@ DB 'iostream', 00H	; `string'
CONST	ENDS
;	COMDAT ??_7_Iostream_error_category@std@@6B@
CONST	SEGMENT
??_7_Iostream_error_category@std@@6B@ DD FLAT:??_R4_Iostream_error_category@std@@6B@ ; std::_Iostream_error_category::`vftable'
	DD	FLAT:??_E_Iostream_error_category@std@@UAEPAXI@Z
	DD	FLAT:?name@_Iostream_error_category@std@@UBEPBDXZ
	DD	FLAT:?message@_Iostream_error_category@std@@UBE?AV?$basic_string@DU?$char_traits@D@std@@V?$allocator@D@2@@2@H@Z
	DD	FLAT:?default_error_condition@error_category@std@@UBE?AVerror_condition@2@H@Z
	DD	FLAT:?equivalent@error_category@std@@UBE_NABVerror_code@2@H@Z
	DD	FLAT:?equivalent@error_category@std@@UBE_NHABVerror_condition@2@@Z
CONST	ENDS
;	COMDAT ??_C@_0O@BFJCFAAK@unknown?5error?$AA@
CONST	SEGMENT
??_C@_0O@BFJCFAAK@unknown?5error?$AA@ DB 'unknown error', 00H ; `string'
CONST	ENDS
;	COMDAT ??_C@_07DCLBNMLN@generic?$AA@
CONST	SEGMENT
??_C@_07DCLBNMLN@generic?$AA@ DB 'generic', 00H		; `string'
CONST	ENDS
;	COMDAT ??_7_Generic_error_category@std@@6B@
CONST	SEGMENT
??_7_Generic_error_category@std@@6B@ DD FLAT:??_R4_Generic_error_category@std@@6B@ ; std::_Generic_error_category::`vftable'
	DD	FLAT:??_E_Generic_error_category@std@@UAEPAXI@Z
	DD	FLAT:?name@_Generic_error_category@std@@UBEPBDXZ
	DD	FLAT:?message@_Generic_error_category@std@@UBE?AV?$basic_string@DU?$char_traits@D@std@@V?$allocator@D@2@@2@H@Z
	DD	FLAT:?default_error_condition@error_category@std@@UBE?AVerror_condition@2@H@Z
	DD	FLAT:?equivalent@error_category@std@@UBE_NABVerror_code@2@H@Z
	DD	FLAT:?equivalent@error_category@std@@UBE_NHABVerror_condition@2@@Z
CONST	ENDS
;	COMDAT ??_7error_category@std@@6B@
CONST	SEGMENT
??_7error_category@std@@6B@ DD FLAT:??_R4error_category@std@@6B@ ; std::error_category::`vftable'
	DD	FLAT:??_Eerror_category@std@@UAEPAXI@Z
	DD	FLAT:__purecall
	DD	FLAT:__purecall
	DD	FLAT:?default_error_condition@error_category@std@@UBE?AVerror_condition@2@H@Z
	DD	FLAT:?equivalent@error_category@std@@UBE_NABVerror_code@2@H@Z
	DD	FLAT:?equivalent@error_category@std@@UBE_NHABVerror_condition@2@@Z
CONST	ENDS
;	COMDAT xdata$x
xdata$x	SEGMENT
__unwindtable$??$construct@PADAAPAD@?$allocator@D@std@@QAEXPAPADAAPAD@Z DD 0ffffffffH
	DD	FLAT:__unwindfunclet$??$construct@PADAAPAD@?$allocator@D@std@@QAEXPAPADAAPAD@Z$0
__ehfuncinfo$??$construct@PADAAPAD@?$allocator@D@std@@QAEXPAPADAAPAD@Z DD 019930522H
	DD	01H
	DD	FLAT:__unwindtable$??$construct@PADAAPAD@?$allocator@D@std@@QAEXPAPADAAPAD@Z
	DD	2 DUP(00H)
	DD	2 DUP(00H)
	DD	00H
	DD	01H
xdata$x	ENDS
;	COMDAT xdata$x
xdata$x	SEGMENT
__catchsym$?_Copy@?$basic_string@DU?$char_traits@D@std@@V?$allocator@D@2@@std@@QAEXII@Z$5 DD 040H
	DD	00H
	DD	00H
	DD	FLAT:__catch$?_Copy@?$basic_string@DU?$char_traits@D@std@@V?$allocator@D@2@@std@@QAEXII@Z$0
__catchsym$?_Copy@?$basic_string@DU?$char_traits@D@std@@V?$allocator@D@2@@std@@QAEXII@Z$4 DD 040H
	DD	00H
	DD	00H
	DD	FLAT:__catch$?_Copy@?$basic_string@DU?$char_traits@D@std@@V?$allocator@D@2@@std@@QAEXII@Z$1
__unwindtable$?_Copy@?$basic_string@DU?$char_traits@D@std@@V?$allocator@D@2@@std@@QAEXII@Z DD 0ffffffffH
	DD	00H
	DD	0ffffffffH
	DD	00H
	DD	01H
	DD	00H
	DD	01H
	DD	00H
__ehfuncinfo$?_Copy@?$basic_string@DU?$char_traits@D@std@@V?$allocator@D@2@@std@@QAEXII@Z DD 019930522H
	DD	04H
	DD	FLAT:__unwindtable$?_Copy@?$basic_string@DU?$char_traits@D@std@@V?$allocator@D@2@@std@@QAEXII@Z
	DD	02H
	DD	FLAT:__tryblocktable$?_Copy@?$basic_string@DU?$char_traits@D@std@@V?$allocator@D@2@@std@@QAEXII@Z
	DD	2 DUP(00H)
	DD	00H
	DD	01H
__tryblocktable$?_Copy@?$basic_string@DU?$char_traits@D@std@@V?$allocator@D@2@@std@@QAEXII@Z DD 02H
	DD	02H
	DD	03H
	DD	01H
	DD	FLAT:__catchsym$?_Copy@?$basic_string@DU?$char_traits@D@std@@V?$allocator@D@2@@std@@QAEXII@Z$4
	DD	00H
	DD	00H
	DD	03H
	DD	01H
	DD	FLAT:__catchsym$?_Copy@?$basic_string@DU?$char_traits@D@std@@V?$allocator@D@2@@std@@QAEXII@Z$5
xdata$x	ENDS
CRT$XCU	SEGMENT
_allocator_arg$initializer$ DD FLAT:??__Eallocator_arg@std@@YAXXZ
CRT$XCU	ENDS
CRT$XCU	SEGMENT
_DIAxisNames$initializer$ DD FLAT:??__EDIAxisNames@@YAXXZ
CRT$XCU	ENDS
;	COMDAT CRT$XCU
CRT$XCU	SEGMENT
?_Generic_object$initializer$@?$_Error_objects@H@std@@2P6AXXZA DD FLAT:??__E?_Generic_object@?$_Error_objects@H@std@@2V_Generic_error_category@2@A@@YAXXZ ; std::_Error_objects<int>::_Generic_object$initializer$
CRT$XCU	ENDS
;	COMDAT CRT$XCU
CRT$XCU	SEGMENT
?_Iostream_object$initializer$@?$_Error_objects@H@std@@2P6AXXZA DD FLAT:??__E?_Iostream_object@?$_Error_objects@H@std@@2V_Iostream_error_category@2@A@@YAXXZ ; std::_Error_objects<int>::_Iostream_object$initializer$
CRT$XCU	ENDS
;	COMDAT CRT$XCU
CRT$XCU	SEGMENT
?_System_object$initializer$@?$_Error_objects@H@std@@2P6AXXZA DD FLAT:??__E?_System_object@?$_Error_objects@H@std@@2V_System_error_category@2@A@@YAXXZ ; std::_Error_objects<int>::_System_object$initializer$
CRT$XCU	ENDS
;	COMDAT CRT$XCU
CRT$XCU	SEGMENT
?id$initializer$@?$num_put@DV?$back_insert_iterator@V?$basic_string@DU?$char_traits@D@std@@V?$allocator@D@2@@std@@@std@@@std@@2P6AXXZA DD FLAT:??__E?id@?$num_put@DV?$back_insert_iterator@V?$basic_string@DU?$char_traits@D@std@@V?$allocator@D@2@@std@@@std@@@std@@2V0locale@2@A@@YAXXZ ; std::num_put<char,std::back_insert_iterator<std::basic_string<char,std::char_traits<char>,std::allocator<char> > > >::id$initializer$
CRT$XCU	ENDS
;	COMDAT CRT$XCU
CRT$XCU	SEGMENT
?id$initializer$@?$num_put@_WV?$back_insert_iterator@V?$basic_string@_WU?$char_traits@_W@std@@V?$allocator@_W@2@@std@@@std@@@std@@2P6AXXZA DD FLAT:??__E?id@?$num_put@_WV?$back_insert_iterator@V?$basic_string@_WU?$char_traits@_W@std@@V?$allocator@_W@2@@std@@@std@@@std@@2V0locale@2@A@@YAXXZ ; std::num_put<wchar_t,std::back_insert_iterator<std::basic_string<wchar_t,std::char_traits<wchar_t>,std::allocator<wchar_t> > > >::id$initializer$
CRT$XCU	ENDS
;	COMDAT CRT$XCU
CRT$XCU	SEGMENT
?id$initializer$@?$numpunct@D@std@@2P6AXXZA DD FLAT:??__E?id@?$numpunct@D@std@@2V0locale@2@A@@YAXXZ ; std::numpunct<char>::id$initializer$
CRT$XCU	ENDS
;	COMDAT CRT$XCU
CRT$XCU	SEGMENT
?id$initializer$@?$numpunct@_W@std@@2P6AXXZA DD FLAT:??__E?id@?$numpunct@_W@std@@2V0locale@2@A@@YAXXZ ; std::numpunct<wchar_t>::id$initializer$
CRT$XCU	ENDS
; Function compile flags: /Odtp
; File c:\program files (x86)\microsoft visual studio 11.0\vc\include\xmemory0
;	COMDAT ??$destroy@PAD@?$allocator@D@std@@QAEXPAPAD@Z
_TEXT	SEGMENT
_this$ = -4						; size = 4
__Ptr$ = 8						; size = 4
??$destroy@PAD@?$allocator@D@std@@QAEXPAPAD@Z PROC	; std::allocator<char>::destroy<char *>, COMDAT
; _this$ = ecx

; 621  : 		void destroy(_Uty *_Ptr)

	push	ebp
	mov	ebp, esp
	push	ecx
	mov	DWORD PTR _this$[ebp], ecx

; 622  : 		{	// destroy object at _Ptr
; 623  : 		_Ptr->~_Uty();
; 624  : 		}

	mov	esp, ebp
	pop	ebp
	ret	4
??$destroy@PAD@?$allocator@D@std@@QAEXPAPAD@Z ENDP	; std::allocator<char>::destroy<char *>
_TEXT	ENDS
; Function compile flags: /Odtp
; File c:\program files (x86)\microsoft visual studio 11.0\vc\include\xmemory0
;	COMDAT ??$construct@PADAAPAD@?$allocator@D@std@@QAEXPAPADAAPAD@Z
_TEXT	SEGMENT
$T2 = -28						; size = 4
_this$ = -24						; size = 4
tv73 = -20						; size = 4
$T3 = -16						; size = 4
__$EHRec$ = -12						; size = 12
__Ptr$ = 8						; size = 4
__V0$ = 12						; size = 4
??$construct@PADAAPAD@?$allocator@D@std@@QAEXPAPADAAPAD@Z PROC ; std::allocator<char>::construct<char *,char * &>, COMDAT
; _this$ = ecx

; 617  : _VARIADIC_EXPAND_0X(_ALLOC_MEMBER_CONSTRUCT, , , , )

	push	ebp
	mov	ebp, esp
	push	-1
	push	__ehhandler$??$construct@PADAAPAD@?$allocator@D@std@@QAEXPAPADAAPAD@Z
	mov	eax, DWORD PTR fs:0
	push	eax
	sub	esp, 16					; 00000010H
	mov	eax, DWORD PTR ___security_cookie
	xor	eax, ebp
	push	eax
	lea	eax, DWORD PTR __$EHRec$[ebp]
	mov	DWORD PTR fs:0, eax
	mov	DWORD PTR _this$[ebp], ecx
	mov	eax, DWORD PTR __Ptr$[ebp]
	push	eax
	push	4
	call	??2@YAPAXIPAX@Z				; operator new
	add	esp, 8
	mov	DWORD PTR $T3[ebp], eax
	mov	DWORD PTR __$EHRec$[ebp+8], 0
	cmp	DWORD PTR $T3[ebp], 0
	je	SHORT $LN3@construct
	mov	ecx, DWORD PTR __V0$[ebp]
	push	ecx
	call	??$forward@AAPAD@std@@YAAAPADAAPAD@Z	; std::forward<char * &>
	add	esp, 4
	mov	edx, DWORD PTR $T3[ebp]
	mov	eax, DWORD PTR [eax]
	mov	DWORD PTR [edx], eax
	mov	ecx, DWORD PTR $T3[ebp]
	mov	DWORD PTR tv73[ebp], ecx
	jmp	SHORT $LN4@construct
$LN3@construct:
	mov	DWORD PTR tv73[ebp], 0
$LN4@construct:
	mov	edx, DWORD PTR tv73[ebp]
	mov	DWORD PTR $T2[ebp], edx
	mov	DWORD PTR __$EHRec$[ebp+8], -1
	mov	ecx, DWORD PTR __$EHRec$[ebp]
	mov	DWORD PTR fs:0, ecx
	pop	ecx
	mov	esp, ebp
	pop	ebp
	ret	8
_TEXT	ENDS
;	COMDAT text$x
text$x	SEGMENT
__unwindfunclet$??$construct@PADAAPAD@?$allocator@D@std@@QAEXPAPADAAPAD@Z$0:
	mov	eax, DWORD PTR __Ptr$[ebp]
	push	eax
	mov	eax, DWORD PTR $T3[ebp]
	push	eax
	call	??3@YAXPAX0@Z				; operator delete
	add	esp, 8
	ret	0
__ehhandler$??$construct@PADAAPAD@?$allocator@D@std@@QAEXPAPADAAPAD@Z:
	mov	edx, DWORD PTR [esp+8]
	lea	eax, DWORD PTR [edx+12]
	mov	ecx, DWORD PTR [edx-20]
	xor	ecx, eax
	call	@__security_check_cookie@4
	mov	eax, OFFSET __ehfuncinfo$??$construct@PADAAPAD@?$allocator@D@std@@QAEXPAPADAAPAD@Z
	jmp	___CxxFrameHandler3
text$x	ENDS
??$construct@PADAAPAD@?$allocator@D@std@@QAEXPAPADAAPAD@Z ENDP ; std::allocator<char>::construct<char *,char * &>
; Function compile flags: /Odtp
; File c:\program files (x86)\microsoft visual studio 11.0\vc\include\xlocnum
;	COMDAT ??__E?id@?$numpunct@_W@std@@2V0locale@2@A@@YAXXZ
text$yc	SEGMENT
??__E?id@?$numpunct@_W@std@@2V0locale@2@A@@YAXXZ PROC	; `dynamic initializer for 'std::numpunct<wchar_t>::id'', COMDAT

; 155  : 		void _Getvals(wchar_t, const lconv *_Ptr, _Locinfo::_Cvtvec)

	push	ebp
	mov	ebp, esp
	push	0
	mov	ecx, OFFSET ?id@?$numpunct@_W@std@@2V0locale@2@A ; std::numpunct<wchar_t>::id
	call	??0id@locale@std@@QAE@I@Z		; std::locale::id::id
	pop	ebp
	ret	0
??__E?id@?$numpunct@_W@std@@2V0locale@2@A@@YAXXZ ENDP	; `dynamic initializer for 'std::numpunct<wchar_t>::id''
text$yc	ENDS
; Function compile flags: /Odtp
; File c:\program files (x86)\microsoft visual studio 11.0\vc\include\xlocnum
;	COMDAT ??__E?id@?$numpunct@D@std@@2V0locale@2@A@@YAXXZ
text$yc	SEGMENT
??__E?id@?$numpunct@D@std@@2V0locale@2@A@@YAXXZ PROC	; `dynamic initializer for 'std::numpunct<char>::id'', COMDAT

; 155  : 		void _Getvals(wchar_t, const lconv *_Ptr, _Locinfo::_Cvtvec)

	push	ebp
	mov	ebp, esp
	push	0
	mov	ecx, OFFSET ?id@?$numpunct@D@std@@2V0locale@2@A ; std::numpunct<char>::id
	call	??0id@locale@std@@QAE@I@Z		; std::locale::id::id
	pop	ebp
	ret	0
??__E?id@?$numpunct@D@std@@2V0locale@2@A@@YAXXZ ENDP	; `dynamic initializer for 'std::numpunct<char>::id''
text$yc	ENDS
; Function compile flags: /Odtp
; File c:\program files (x86)\microsoft visual studio 11.0\vc\include\xlocnum
;	COMDAT ??__E?id@?$num_put@_WV?$back_insert_iterator@V?$basic_string@_WU?$char_traits@_W@std@@V?$allocator@_W@2@@std@@@std@@@std@@2V0locale@2@A@@YAXXZ
text$yc	SEGMENT
??__E?id@?$num_put@_WV?$back_insert_iterator@V?$basic_string@_WU?$char_traits@_W@std@@V?$allocator@_W@2@@std@@@std@@@std@@2V0locale@2@A@@YAXXZ PROC ; `dynamic initializer for 'std::num_put<wchar_t,std::back_insert_iterator<std::basic_string<wchar_t,std::char_traits<wchar_t>,std::allocator<wchar_t> > > >::id'', COMDAT

; 155  : 		void _Getvals(wchar_t, const lconv *_Ptr, _Locinfo::_Cvtvec)

	push	ebp
	mov	ebp, esp
	push	0
	mov	ecx, OFFSET ?id@?$num_put@_WV?$back_insert_iterator@V?$basic_string@_WU?$char_traits@_W@std@@V?$allocator@_W@2@@std@@@std@@@std@@2V0locale@2@A ; std::num_put<wchar_t,std::back_insert_iterator<std::basic_string<wchar_t,std::char_traits<wchar_t>,std::allocator<wchar_t> > > >::id
	call	??0id@locale@std@@QAE@I@Z		; std::locale::id::id
	pop	ebp
	ret	0
??__E?id@?$num_put@_WV?$back_insert_iterator@V?$basic_string@_WU?$char_traits@_W@std@@V?$allocator@_W@2@@std@@@std@@@std@@2V0locale@2@A@@YAXXZ ENDP ; `dynamic initializer for 'std::num_put<wchar_t,std::back_insert_iterator<std::basic_string<wchar_t,std::char_traits<wchar_t>,std::allocator<wchar_t> > > >::id''
text$yc	ENDS
; Function compile flags: /Odtp
; File c:\program files (x86)\microsoft visual studio 11.0\vc\include\xlocnum
;	COMDAT ??__E?id@?$num_put@DV?$back_insert_iterator@V?$basic_string@DU?$char_traits@D@std@@V?$allocator@D@2@@std@@@std@@@std@@2V0locale@2@A@@YAXXZ
text$yc	SEGMENT
??__E?id@?$num_put@DV?$back_insert_iterator@V?$basic_string@DU?$char_traits@D@std@@V?$allocator@D@2@@std@@@std@@@std@@2V0locale@2@A@@YAXXZ PROC ; `dynamic initializer for 'std::num_put<char,std::back_insert_iterator<std::basic_string<char,std::char_traits<char>,std::allocator<char> > > >::id'', COMDAT

; 155  : 		void _Getvals(wchar_t, const lconv *_Ptr, _Locinfo::_Cvtvec)

	push	ebp
	mov	ebp, esp
	push	0
	mov	ecx, OFFSET ?id@?$num_put@DV?$back_insert_iterator@V?$basic_string@DU?$char_traits@D@std@@V?$allocator@D@2@@std@@@std@@@std@@2V0locale@2@A ; std::num_put<char,std::back_insert_iterator<std::basic_string<char,std::char_traits<char>,std::allocator<char> > > >::id
	call	??0id@locale@std@@QAE@I@Z		; std::locale::id::id
	pop	ebp
	ret	0
??__E?id@?$num_put@DV?$back_insert_iterator@V?$basic_string@DU?$char_traits@D@std@@V?$allocator@D@2@@std@@@std@@@std@@2V0locale@2@A@@YAXXZ ENDP ; `dynamic initializer for 'std::num_put<char,std::back_insert_iterator<std::basic_string<char,std::char_traits<char>,std::allocator<char> > > >::id''
text$yc	ENDS
; Function compile flags: /Odtp
; File c:\program files (x86)\microsoft visual studio 11.0\vc\include\xmemory0
;	COMDAT ??$destroy@PAD@?$allocator_traits@V?$allocator@D@std@@@std@@SAXAAV?$allocator@D@1@PAPAD@Z
_TEXT	SEGMENT
__Al$ = 8						; size = 4
__Ptr$ = 12						; size = 4
??$destroy@PAD@?$allocator_traits@V?$allocator@D@std@@@std@@SAXAAV?$allocator@D@1@PAPAD@Z PROC ; std::allocator_traits<std::allocator<char> >::destroy<char *>, COMDAT

; 755  : 		static void destroy(_Alloc& _Al, _Uty *_Ptr)

	push	ebp
	mov	ebp, esp

; 756  : 		{	// destroy object at _Ptr
; 757  : 		_Al.destroy(_Ptr);

	mov	eax, DWORD PTR __Ptr$[ebp]
	push	eax
	mov	ecx, DWORD PTR __Al$[ebp]
	call	??$destroy@PAD@?$allocator@D@std@@QAEXPAPAD@Z ; std::allocator<char>::destroy<char *>

; 758  : 		}

	pop	ebp
	ret	0
??$destroy@PAD@?$allocator_traits@V?$allocator@D@std@@@std@@SAXAAV?$allocator@D@1@PAPAD@Z ENDP ; std::allocator_traits<std::allocator<char> >::destroy<char *>
_TEXT	ENDS
; Function compile flags: /Odtp
; File c:\program files (x86)\microsoft visual studio 11.0\vc\include\xmemory0
;	COMDAT ??$construct@PADAAPAD@?$allocator_traits@V?$allocator@D@std@@@std@@SAXAAV?$allocator@D@1@PAPADAAPAD@Z
_TEXT	SEGMENT
__Al$ = 8						; size = 4
__Ptr$ = 12						; size = 4
__V0$ = 16						; size = 4
??$construct@PADAAPAD@?$allocator_traits@V?$allocator@D@std@@@std@@SAXAAV?$allocator@D@1@PAPADAAPAD@Z PROC ; std::allocator_traits<std::allocator<char> >::construct<char *,char * &>, COMDAT

; 751  : _VARIADIC_EXPAND_0X(_ALLOC_TRAITS_SPECIAL_CONSTRUCT, , , , )

	push	ebp
	mov	ebp, esp
	mov	eax, DWORD PTR __V0$[ebp]
	push	eax
	call	??$forward@AAPAD@std@@YAAAPADAAPAD@Z	; std::forward<char * &>
	add	esp, 4
	push	eax
	mov	ecx, DWORD PTR __Ptr$[ebp]
	push	ecx
	mov	ecx, DWORD PTR __Al$[ebp]
	call	??$construct@PADAAPAD@?$allocator@D@std@@QAEXPAPADAAPAD@Z ; std::allocator<char>::construct<char *,char * &>
	pop	ebp
	ret	0
??$construct@PADAAPAD@?$allocator_traits@V?$allocator@D@std@@@std@@SAXAAV?$allocator@D@1@PAPADAAPAD@Z ENDP ; std::allocator_traits<std::allocator<char> >::construct<char *,char * &>
_TEXT	ENDS
; Function compile flags: /Odtp
; File c:\program files (x86)\microsoft visual studio 11.0\vc\include\type_traits
;	COMDAT ??$forward@AAPAD@std@@YAAAPADAAPAD@Z
_TEXT	SEGMENT
__Arg$ = 8						; size = 4
??$forward@AAPAD@std@@YAAAPADAAPAD@Z PROC		; std::forward<char * &>, COMDAT

; 1775 : 	{	// forward an lvalue

	push	ebp
	mov	ebp, esp

; 1776 : 	return (static_cast<_Ty&&>(_Arg));

	mov	eax, DWORD PTR __Arg$[ebp]

; 1777 : 	}

	pop	ebp
	ret	0
??$forward@AAPAD@std@@YAAAPADAAPAD@Z ENDP		; std::forward<char * &>
_TEXT	ENDS
; Function compile flags: /Odtp
;	COMDAT ??__F?_System_object@?$_Error_objects@H@std@@2V_System_error_category@2@A@@YAXXZ
text$yd	SEGMENT
??__F?_System_object@?$_Error_objects@H@std@@2V_System_error_category@2@A@@YAXXZ PROC ; `dynamic atexit destructor for 'std::_Error_objects<int>::_System_object'', COMDAT
	push	ebp
	mov	ebp, esp
	mov	ecx, OFFSET ?_System_object@?$_Error_objects@H@std@@2V_System_error_category@2@A ; std::_Error_objects<int>::_System_object
	call	??1_System_error_category@std@@UAE@XZ
	pop	ebp
	ret	0
??__F?_System_object@?$_Error_objects@H@std@@2V_System_error_category@2@A@@YAXXZ ENDP ; `dynamic atexit destructor for 'std::_Error_objects<int>::_System_object''
text$yd	ENDS
; Function compile flags: /Odtp
; File c:\program files (x86)\microsoft visual studio 11.0\vc\include\xmemory0
;	COMDAT ??__E?_System_object@?$_Error_objects@H@std@@2V_System_error_category@2@A@@YAXXZ
text$yc	SEGMENT
??__E?_System_object@?$_Error_objects@H@std@@2V_System_error_category@2@A@@YAXXZ PROC ; `dynamic initializer for 'std::_Error_objects<int>::_System_object'', COMDAT

; 627  : 		{	// estimate maximum array size

	push	ebp
	mov	ebp, esp
	mov	ecx, OFFSET ?_System_object@?$_Error_objects@H@std@@2V_System_error_category@2@A ; std::_Error_objects<int>::_System_object
	call	??0_System_error_category@std@@QAE@XZ	; std::_System_error_category::_System_error_category
	push	OFFSET ??__F?_System_object@?$_Error_objects@H@std@@2V_System_error_category@2@A@@YAXXZ ; `dynamic atexit destructor for 'std::_Error_objects<int>::_System_object''
	call	_atexit
	add	esp, 4
	pop	ebp
	ret	0
??__E?_System_object@?$_Error_objects@H@std@@2V_System_error_category@2@A@@YAXXZ ENDP ; `dynamic initializer for 'std::_Error_objects<int>::_System_object''
text$yc	ENDS
; Function compile flags: /Odtp
;	COMDAT ??__F?_Iostream_object@?$_Error_objects@H@std@@2V_Iostream_error_category@2@A@@YAXXZ
text$yd	SEGMENT
??__F?_Iostream_object@?$_Error_objects@H@std@@2V_Iostream_error_category@2@A@@YAXXZ PROC ; `dynamic atexit destructor for 'std::_Error_objects<int>::_Iostream_object'', COMDAT
	push	ebp
	mov	ebp, esp
	mov	ecx, OFFSET ?_Iostream_object@?$_Error_objects@H@std@@2V_Iostream_error_category@2@A ; std::_Error_objects<int>::_Iostream_object
	call	??1_Iostream_error_category@std@@UAE@XZ
	pop	ebp
	ret	0
??__F?_Iostream_object@?$_Error_objects@H@std@@2V_Iostream_error_category@2@A@@YAXXZ ENDP ; `dynamic atexit destructor for 'std::_Error_objects<int>::_Iostream_object''
text$yd	ENDS
; Function compile flags: /Odtp
; File c:\program files (x86)\microsoft visual studio 11.0\vc\include\xmemory0
;	COMDAT ??__E?_Iostream_object@?$_Error_objects@H@std@@2V_Iostream_error_category@2@A@@YAXXZ
text$yc	SEGMENT
??__E?_Iostream_object@?$_Error_objects@H@std@@2V_Iostream_error_category@2@A@@YAXXZ PROC ; `dynamic initializer for 'std::_Error_objects<int>::_Iostream_object'', COMDAT

; 627  : 		{	// estimate maximum array size

	push	ebp
	mov	ebp, esp
	mov	ecx, OFFSET ?_Iostream_object@?$_Error_objects@H@std@@2V_Iostream_error_category@2@A ; std::_Error_objects<int>::_Iostream_object
	call	??0_Iostream_error_category@std@@QAE@XZ	; std::_Iostream_error_category::_Iostream_error_category
	push	OFFSET ??__F?_Iostream_object@?$_Error_objects@H@std@@2V_Iostream_error_category@2@A@@YAXXZ ; `dynamic atexit destructor for 'std::_Error_objects<int>::_Iostream_object''
	call	_atexit
	add	esp, 4
	pop	ebp
	ret	0
??__E?_Iostream_object@?$_Error_objects@H@std@@2V_Iostream_error_category@2@A@@YAXXZ ENDP ; `dynamic initializer for 'std::_Error_objects<int>::_Iostream_object''
text$yc	ENDS
; Function compile flags: /Odtp
;	COMDAT ??__F?_Generic_object@?$_Error_objects@H@std@@2V_Generic_error_category@2@A@@YAXXZ
text$yd	SEGMENT
??__F?_Generic_object@?$_Error_objects@H@std@@2V_Generic_error_category@2@A@@YAXXZ PROC ; `dynamic atexit destructor for 'std::_Error_objects<int>::_Generic_object'', COMDAT
	push	ebp
	mov	ebp, esp
	mov	ecx, OFFSET ?_Generic_object@?$_Error_objects@H@std@@2V_Generic_error_category@2@A ; std::_Error_objects<int>::_Generic_object
	call	??1_Generic_error_category@std@@UAE@XZ
	pop	ebp
	ret	0
??__F?_Generic_object@?$_Error_objects@H@std@@2V_Generic_error_category@2@A@@YAXXZ ENDP ; `dynamic atexit destructor for 'std::_Error_objects<int>::_Generic_object''
text$yd	ENDS
; Function compile flags: /Odtp
; File c:\program files (x86)\microsoft visual studio 11.0\vc\include\xmemory0
;	COMDAT ??__E?_Generic_object@?$_Error_objects@H@std@@2V_Generic_error_category@2@A@@YAXXZ
text$yc	SEGMENT
??__E?_Generic_object@?$_Error_objects@H@std@@2V_Generic_error_category@2@A@@YAXXZ PROC ; `dynamic initializer for 'std::_Error_objects<int>::_Generic_object'', COMDAT

; 627  : 		{	// estimate maximum array size

	push	ebp
	mov	ebp, esp
	mov	ecx, OFFSET ?_Generic_object@?$_Error_objects@H@std@@2V_Generic_error_category@2@A ; std::_Error_objects<int>::_Generic_object
	call	??0_Generic_error_category@std@@QAE@XZ	; std::_Generic_error_category::_Generic_error_category
	push	OFFSET ??__F?_Generic_object@?$_Error_objects@H@std@@2V_Generic_error_category@2@A@@YAXXZ ; `dynamic atexit destructor for 'std::_Error_objects<int>::_Generic_object''
	call	_atexit
	add	esp, 4
	pop	ebp
	ret	0
??__E?_Generic_object@?$_Error_objects@H@std@@2V_Generic_error_category@2@A@@YAXXZ ENDP ; `dynamic initializer for 'std::_Error_objects<int>::_Generic_object''
text$yc	ENDS
; Function compile flags: /Odtp
; File c:\program files (x86)\microsoft visual studio 11.0\vc\include\xmemory0
;	COMDAT ??$_Allocate@D@std@@YAPADIPAD@Z
_TEXT	SEGMENT
__Ptr$ = -4						; size = 4
__Count$ = 8						; size = 4
___formal$ = 12						; size = 4
??$_Allocate@D@std@@YAPADIPAD@Z PROC			; std::_Allocate<char>, COMDAT

; 22   : 	{	// allocate storage for _Count elements of type _Ty

	push	ebp
	mov	ebp, esp
	push	ecx

; 23   : 	void *_Ptr = 0;

	mov	DWORD PTR __Ptr$[ebp], 0

; 24   : 
; 25   : 	if (_Count == 0)

	cmp	DWORD PTR __Count$[ebp], 0
	jne	SHORT $LN4@Allocate

; 26   : 		;
; 27   : 	else if (((size_t)(-1) / sizeof (_Ty) < _Count)

	jmp	SHORT $LN3@Allocate
$LN4@Allocate:

; 28   : 		|| (_Ptr = ::operator new(_Count * sizeof (_Ty))) == 0)

	cmp	DWORD PTR __Count$[ebp], -1
	ja	SHORT $LN1@Allocate
	mov	eax, DWORD PTR __Count$[ebp]
	push	eax
	call	??2@YAPAXI@Z				; operator new
	add	esp, 4
	mov	DWORD PTR __Ptr$[ebp], eax
	cmp	DWORD PTR __Ptr$[ebp], 0
	jne	SHORT $LN3@Allocate
$LN1@Allocate:

; 29   : 		_Xbad_alloc();	// report no memory

	call	?_Xbad_alloc@std@@YAXXZ			; std::_Xbad_alloc
$LN3@Allocate:

; 30   : 
; 31   : 	return ((_Ty *)_Ptr);

	mov	eax, DWORD PTR __Ptr$[ebp]
$LN6@Allocate:

; 32   : 	}

	mov	esp, ebp
	pop	ebp
	ret	0
??$_Allocate@D@std@@YAPADIPAD@Z ENDP			; std::_Allocate<char>
_TEXT	ENDS
; Function compile flags: /Odtp
; File c:\program files (x86)\microsoft visual studio 11.0\vc\include\xstddef
;	COMDAT ??$addressof@D@std@@YAPADAAD@Z
_TEXT	SEGMENT
__Val$ = 8						; size = 4
??$addressof@D@std@@YAPADAAD@Z PROC			; std::addressof<char>, COMDAT

; 85   : 	{	// return address of _Val

	push	ebp
	mov	ebp, esp

; 86   : 	return (reinterpret_cast<_Ty *>(
; 87   : 		(&const_cast<char&>(
; 88   : 		reinterpret_cast<const volatile char&>(_Val)))));

	mov	eax, DWORD PTR __Val$[ebp]

; 89   : 	}

	pop	ebp
	ret	0
??$addressof@D@std@@YAPADAAD@Z ENDP			; std::addressof<char>
_TEXT	ENDS
; Function compile flags: /Odtp
; File c:\program files (x86)\microsoft visual studio 11.0\vc\include\xmemory0
;	COMDAT ??$destroy@PAD@?$_Wrap_alloc@V?$allocator@D@std@@@std@@QAEXPAPAD@Z
_TEXT	SEGMENT
_this$ = -4						; size = 4
__Ptr$ = 8						; size = 4
??$destroy@PAD@?$_Wrap_alloc@V?$allocator@D@std@@@std@@QAEXPAPAD@Z PROC ; std::_Wrap_alloc<std::allocator<char> >::destroy<char *>, COMDAT
; _this$ = ecx

; 907  : 		void destroy(_Ty *_Ptr)

	push	ebp
	mov	ebp, esp
	push	ecx
	mov	DWORD PTR _this$[ebp], ecx

; 908  : 		{	// destroy object at _Ptr
; 909  : 		_Mytraits::destroy(*this, _Ptr);

	mov	eax, DWORD PTR __Ptr$[ebp]
	push	eax
	mov	ecx, DWORD PTR _this$[ebp]
	push	ecx
	call	??$destroy@PAD@?$allocator_traits@V?$allocator@D@std@@@std@@SAXAAV?$allocator@D@1@PAPAD@Z ; std::allocator_traits<std::allocator<char> >::destroy<char *>
	add	esp, 8

; 910  : 		}

	mov	esp, ebp
	pop	ebp
	ret	4
??$destroy@PAD@?$_Wrap_alloc@V?$allocator@D@std@@@std@@QAEXPAPAD@Z ENDP ; std::_Wrap_alloc<std::allocator<char> >::destroy<char *>
_TEXT	ENDS
; Function compile flags: /Odtp
; File c:\program files (x86)\microsoft visual studio 11.0\vc\include\xmemory0
;	COMDAT ??$construct@PADAAPAD@?$_Wrap_alloc@V?$allocator@D@std@@@std@@QAEXPAPADAAPAD@Z
_TEXT	SEGMENT
_this$ = -4						; size = 4
__Ptr$ = 8						; size = 4
__V0$ = 12						; size = 4
??$construct@PADAAPAD@?$_Wrap_alloc@V?$allocator@D@std@@@std@@QAEXPAPADAAPAD@Z PROC ; std::_Wrap_alloc<std::allocator<char> >::construct<char *,char * &>, COMDAT
; _this$ = ecx

; 903  : _VARIADIC_EXPAND_0X(_WRAP_ALLOC_CONSTRUCT, , , , )

	push	ebp
	mov	ebp, esp
	push	ecx
	mov	DWORD PTR _this$[ebp], ecx
	mov	eax, DWORD PTR __V0$[ebp]
	push	eax
	call	??$forward@AAPAD@std@@YAAAPADAAPAD@Z	; std::forward<char * &>
	add	esp, 4
	push	eax
	mov	ecx, DWORD PTR __Ptr$[ebp]
	push	ecx
	mov	edx, DWORD PTR _this$[ebp]
	push	edx
	call	??$construct@PADAAPAD@?$allocator_traits@V?$allocator@D@std@@@std@@SAXAAV?$allocator@D@1@PAPADAAPAD@Z ; std::allocator_traits<std::allocator<char> >::construct<char *,char * &>
	add	esp, 12					; 0000000cH
	mov	esp, ebp
	pop	ebp
	ret	8
??$construct@PADAAPAD@?$_Wrap_alloc@V?$allocator@D@std@@@std@@QAEXPAPADAAPAD@Z ENDP ; std::_Wrap_alloc<std::allocator<char> >::construct<char *,char * &>
_TEXT	ENDS
; Function compile flags: /Odtp
; File c:\users\zhitao li\documents\visual studio 2012\projects\freefalcon\sim\siminput\sijoy.cpp
_TEXT	SEGMENT
_i$ = -4						; size = 4
?JoystickStopAllEffects@@YAXXZ PROC			; JoystickStopAllEffects

; 1724 : {

	push	ebp
	mov	ebp, esp
	push	ecx

; 1725 : 	int i;
; 1726 : 
; 1727 : 	if (!hasForceFeedback)

	cmp	DWORD PTR ?hasForceFeedback@@3HA, 0	; hasForceFeedback
	jne	SHORT $LN5@JoystickSt

; 1728 : 		return;

	jmp	SHORT $LN6@JoystickSt
$LN5@JoystickSt:

; 1729 : 
; 1730 : 	for (i=0; i<gNumEffectsLoaded; i++)

	mov	DWORD PTR _i$[ebp], 0
	jmp	SHORT $LN4@JoystickSt
$LN3@JoystickSt:
	mov	eax, DWORD PTR _i$[ebp]
	add	eax, 1
	mov	DWORD PTR _i$[ebp], eax
$LN4@JoystickSt:
	mov	ecx, DWORD PTR _i$[ebp]
	cmp	ecx, DWORD PTR ?gNumEffectsLoaded@@3HA	; gNumEffectsLoaded
	jge	SHORT $LN6@JoystickSt

; 1731 : 	{
; 1732 : 		if (i != g_nFFEffectAutoCenter)

	mov	edx, DWORD PTR _i$[ebp]
	cmp	edx, DWORD PTR ?g_nFFEffectAutoCenter@@3HA ; g_nFFEffectAutoCenter
	je	SHORT $LN1@JoystickSt

; 1733 : 			JoystickStopEffect (i);

	mov	eax, DWORD PTR _i$[ebp]
	push	eax
	call	?JoystickStopEffect@@YAXH@Z		; JoystickStopEffect
	add	esp, 4
$LN1@JoystickSt:

; 1734 : 	}

	jmp	SHORT $LN3@JoystickSt
$LN6@JoystickSt:

; 1735 : }

	mov	esp, ebp
	pop	ebp
	ret	0
?JoystickStopAllEffects@@YAXXZ ENDP			; JoystickStopAllEffects
_TEXT	ENDS
; Function compile flags: /Odtp
; File c:\users\zhitao li\documents\visual studio 2012\projects\freefalcon\sim\siminput\sijoy.cpp
_TEXT	SEGMENT
_len$1 = -392						; size = 4
$T2 = -388						; size = 4
_hr$ = -384						; size = 4
_hWndMain$ = -380					; size = 4
tv73 = -376						; size = 4
_pdev$ = -372						; size = 4
_SetupResult$ = -368					; size = 4
_devobj$ = -364						; size = 316
_devcaps$ = -48						; size = 44
__$ArrayPad$ = -4					; size = 4
_pdinst$ = 8						; size = 4
_pvRef$ = 12						; size = 4
?InitJoystick@@YGHPBUDIDEVICEINSTANCEA@@PAX@Z PROC	; InitJoystick

; 1215 : {

	push	ebp
	mov	ebp, esp
	sub	esp, 392				; 00000188H
	mov	eax, DWORD PTR ___security_cookie
	xor	eax, ebp
	mov	DWORD PTR __$ArrayPad$[ebp], eax

; 1216 : 	BOOL					SetupResult;
; 1217 : 	
; 1218 : #ifndef USE_DINPUT_8	// Retro 15Jan2004
; 1219 : 	LPDIRECTINPUTDEVICE7		pdev;
; 1220 : #else
; 1221 : 	LPDIRECTINPUTDEVICE8		pdev;
; 1222 : #endif
; 1223 : 
; 1224 : //	LPDIRECTINPUTDEVICE		pdev;	// Retro 15Jan2004
; 1225 : 	HWND					hWndMain = *((HWND *)pvRef);

	mov	eax, DWORD PTR _pvRef$[ebp]
	mov	ecx, DWORD PTR [eax]
	mov	DWORD PTR _hWndMain$[ebp], ecx

; 1226 : 	DIDEVCAPS				devcaps;
; 1227 : 	DIDEVICEOBJECTINSTANCE	devobj;
; 1228 : 
; 1229 : 	devobj.dwSize = sizeof(DIDEVICEOBJECTINSTANCE);

	mov	DWORD PTR _devobj$[ebp], 316		; 0000013cH

; 1230 : 
; 1231 : 	devcaps.dwSize = sizeof(DIDEVCAPS);

	mov	DWORD PTR _devcaps$[ebp], 44		; 0000002cH

; 1232 : 	
; 1233 : 	/*****************************************************************************/
; 1234 : 	//	Create the device
; 1235 : 	/*****************************************************************************/
; 1236 : #ifndef USE_DINPUT_8	// Retro 15Jan2004
; 1237 : 	SetupResult = VerifyResult(gpDIObject->CreateDeviceEx(pdinst->guidInstance, IID_IDirectInputDevice7, (void **) &pdev, NULL) );
; 1238 : #else
; 1239 : 	HRESULT hr = gpDIObject->CreateDevice(pdinst->guidInstance, &pdev, NULL);

	push	0
	lea	edx, DWORD PTR _pdev$[ebp]
	push	edx
	mov	eax, DWORD PTR _pdinst$[ebp]
	add	eax, 4
	push	eax
	mov	ecx, DWORD PTR ?gpDIObject@@3PAUIDirectInput8A@@A ; gpDIObject
	mov	edx, DWORD PTR [ecx]
	mov	eax, DWORD PTR ?gpDIObject@@3PAUIDirectInput8A@@A ; gpDIObject
	push	eax
	mov	ecx, DWORD PTR [edx+12]
	call	ecx
	mov	DWORD PTR _hr$[ebp], eax

; 1240 : 	SetupResult = (hr == DI_OK)?TRUE:FALSE;

	cmp	DWORD PTR _hr$[ebp], 0
	jne	SHORT $LN12@InitJoysti
	mov	DWORD PTR tv73[ebp], 1
	jmp	SHORT $LN13@InitJoysti
$LN12@InitJoysti:
	mov	DWORD PTR tv73[ebp], 0
$LN13@InitJoysti:
	mov	edx, DWORD PTR tv73[ebp]
	mov	DWORD PTR _SetupResult$[ebp], edx

; 1241 : #endif
; 1242 : 	
; 1243 : 	if(!SetupResult)

	cmp	DWORD PTR _SetupResult$[ebp], 0
	jne	SHORT $LN9@InitJoysti

; 1244 : 	{
; 1245 : 		return DIENUM_CONTINUE;

	mov	eax, 1
	jmp	$LN10@InitJoysti
$LN9@InitJoysti:

; 1246 : 	}
; 1247 : 	
; 1248 : 	/*****************************************************************************/
; 1249 : 	// set joystick data format
; 1250 : 	/*****************************************************************************/
; 1251 : 	SetupResult = VerifyResult(pdev->SetDataFormat( &c_dfDIJoystick) );

	push	OFFSET _c_dfDIJoystick
	mov	eax, DWORD PTR _pdev$[ebp]
	mov	ecx, DWORD PTR [eax]
	mov	edx, DWORD PTR _pdev$[ebp]
	push	edx
	mov	eax, DWORD PTR [ecx+44]
	call	eax
	push	eax
	call	?VerifyResult@@YAHJ@Z			; VerifyResult
	add	esp, 4
	mov	DWORD PTR _SetupResult$[ebp], eax

; 1252 : 	
; 1253 : 	/*****************************************************************************/
; 1254 : 	//	so what do we have here ?
; 1255 : 	/*****************************************************************************/
; 1256 : 	SetupResult = VerifyResult(pdev->GetCapabilities( &devcaps) );

	lea	ecx, DWORD PTR _devcaps$[ebp]
	push	ecx
	mov	edx, DWORD PTR _pdev$[ebp]
	mov	eax, DWORD PTR [edx]
	mov	ecx, DWORD PTR _pdev$[ebp]
	push	ecx
	mov	edx, DWORD PTR [eax+12]
	call	edx
	push	eax
	call	?VerifyResult@@YAHJ@Z			; VerifyResult
	add	esp, 4
	mov	DWORD PTR _SetupResult$[ebp], eax

; 1257 : 	
; 1258 : 	/*****************************************************************************/
; 1259 : 	// set the cooperative level
; 1260 : 	/*****************************************************************************/
; 1261 : 	if (SetupResult)

	cmp	DWORD PTR _SetupResult$[ebp], 0
	je	SHORT $LN8@InitJoysti

; 1262 : 	{
; 1263 : #ifdef NDEBUG
; 1264 : 		SetupResult = VerifyResult(pdev->SetCooperativeLevel(hWndMain,DISCL_EXCLUSIVE | DISCL_FOREGROUND));

	push	5
	mov	eax, DWORD PTR _hWndMain$[ebp]
	push	eax
	mov	ecx, DWORD PTR _pdev$[ebp]
	mov	edx, DWORD PTR [ecx]
	mov	eax, DWORD PTR _pdev$[ebp]
	push	eax
	mov	ecx, DWORD PTR [edx+52]
	call	ecx
	push	eax
	call	?VerifyResult@@YAHJ@Z			; VerifyResult
	add	esp, 4
	mov	DWORD PTR _SetupResult$[ebp], eax
$LN8@InitJoysti:

; 1265 : #else	// bye bye FFB :/
; 1266 : 		SetupResult = VerifyResult(pdev->SetCooperativeLevel(hWndMain,DISCL_EXCLUSIVE | DISCL_BACKGROUND));
; 1267 : #endif
; 1268 : 	}
; 1269 : 
; 1270 : #ifndef USE_DINPUT_8	// Retro 16Jan2004
; 1271 : 	/*****************************************************************************/
; 1272 : 	//	Enumerate all axis on the device
; 1273 : 	/*****************************************************************************/
; 1274 : 	pdev->EnumObjects(EnumDeviceObjects,(void*)&pdinst->tszProductName,DIDFT_AXIS);
; 1275 : #else
; 1276 : 	CheckAxisOnDevice(pdev,pdinst->tszProductName);

	mov	edx, DWORD PTR _pdinst$[ebp]
	add	edx, 300				; 0000012cH
	push	edx
	mov	eax, DWORD PTR _pdev$[ebp]
	push	eax
	call	?CheckAxisOnDevice@@YAXPAUIDirectInputDevice8A@@PBD@Z ; CheckAxisOnDevice
	add	esp, 8

; 1277 : #endif
; 1278 : 
; 1279 : 	if(SetupResult)

	cmp	DWORD PTR _SetupResult$[ebp], 0
	je	SHORT $LN7@InitJoysti

; 1280 : 	{
; 1281 : 	/***************************************************/
; 1282 : 	//	Convert it to a Device2 so we can Poll() it. 
; 1283 : 	//  (Will also increment reference count if it succeeds)
; 1284 : 	/***************************************************/
; 1285 : #ifndef USE_DINPUT_8	// Retro 15Jan2004
; 1286 : 		SetupResult = VerifyResult(pdev->QueryInterface(IID_IDirectInputDevice2, (LPVOID *)&gpDIDevice[SIM_JOYSTICK1 + gTotalJoy]) );
; 1287 : #else
; 1288 : 		gpDIDevice[SIM_JOYSTICK1 + gTotalJoy] = pdev;

	mov	ecx, DWORD PTR ?gTotalJoy@@3HA		; gTotalJoy
	mov	edx, DWORD PTR _pdev$[ebp]
	mov	DWORD PTR ?gpDIDevice@@3PAPAUIDirectInputDevice8A@@A[ecx*4+8], edx
$LN7@InitJoysti:

; 1289 : #endif
; 1290 : 	}
; 1291 : 
; 1292 : 	/*****************************************************************************/
; 1293 : 	// Check for Force Feedback
; 1294 : 	/*****************************************************************************/
; 1295 : 	if (SetupResult)

	cmp	DWORD PTR _SetupResult$[ebp], 0
	je	SHORT $LN6@InitJoysti

; 1296 : 		CheckForForceFeedback(gTotalJoy);

	mov	eax, DWORD PTR ?gTotalJoy@@3HA		; gTotalJoy
	push	eax
	call	?CheckForForceFeedback@@YAHH@Z		; CheckForForceFeedback
	add	esp, 4

; 1297 : 	else

	jmp	SHORT $LN5@InitJoysti
$LN6@InitJoysti:

; 1298 : 		hasForceFeedback = FALSE;

	mov	DWORD PTR ?hasForceFeedback@@3HA, 0	; hasForceFeedback
$LN5@InitJoysti:

; 1299 : 
; 1300 : 	if(SetupResult)

	cmp	DWORD PTR _SetupResult$[ebp], 0
	je	$LN4@InitJoysti

; 1301 : 	{		
; 1302 : 		/*****************************************************************************/
; 1303 : 		//	use pdinst to get name of joystick for display purposes
; 1304 : 		/*****************************************************************************/
; 1305 : 		int len = _tcslen(pdinst->tszProductName);

	mov	ecx, DWORD PTR _pdinst$[ebp]
	add	ecx, 300				; 0000012cH
	push	ecx
	call	_strlen
	add	esp, 4
	mov	DWORD PTR _len$1[ebp], eax

; 1306 : 		gDIDevNames[SIM_JOYSTICK1 + gTotalJoy] = new _TCHAR[len + 1];

	mov	edx, DWORD PTR _len$1[ebp]
	add	edx, 1
	push	edx
	call	??_U@YAPAXI@Z				; operator new[]
	add	esp, 4
	mov	DWORD PTR $T2[ebp], eax
	mov	eax, DWORD PTR ?gTotalJoy@@3HA		; gTotalJoy
	mov	ecx, DWORD PTR $T2[ebp]
	mov	DWORD PTR ?gDIDevNames@@3PAPADA[eax*4+8], ecx

; 1307 : 		
; 1308 : 		if(gDIDevNames[SIM_JOYSTICK1 + gTotalJoy])

	mov	edx, DWORD PTR ?gTotalJoy@@3HA		; gTotalJoy
	cmp	DWORD PTR ?gDIDevNames@@3PAPADA[edx*4+8], 0
	je	SHORT $LN3@InitJoysti

; 1309 : 			_tcscpy(gDIDevNames[SIM_JOYSTICK1 + gTotalJoy],pdinst->tszProductName);

	mov	eax, DWORD PTR _pdinst$[ebp]
	add	eax, 300				; 0000012cH
	push	eax
	mov	ecx, DWORD PTR ?gTotalJoy@@3HA		; gTotalJoy
	mov	edx, DWORD PTR ?gDIDevNames@@3PAPADA[ecx*4+8]
	push	edx
	call	_strcpy
	add	esp, 8
$LN3@InitJoysti:

; 1310 : 		
; 1311 : 		if(!strcmp(pdinst->tszProductName,"Union Reality Gear"))

	push	OFFSET ??_C@_0BD@OLBHJPIF@Union?5Reality?5Gear?$AA@
	mov	eax, DWORD PTR _pdinst$[ebp]
	add	eax, 300				; 0000012cH
	push	eax
	call	_strcmp
	add	esp, 8
	test	eax, eax
	jne	SHORT $LN2@InitJoysti

; 1312 : 		{
; 1313 :             OutputDebugString("UR Helmet found\n");

	push	OFFSET ??_C@_0BB@LFHICIPA@UR?5Helmet?5found?6?$AA@
	call	DWORD PTR __imp__OutputDebugStringA@4

; 1314 : 			OTWDriver.SetHeadTracking(TRUE);

	push	1
	mov	ecx, OFFSET ?OTWDriver@@3VOTWDriverClass@@A ; OTWDriver
	call	?SetHeadTracking@OTWDriverClass@@QAEXH@Z ; OTWDriverClass::SetHeadTracking

; 1315 : 			mHelmetIsUR=1;

	mov	DWORD PTR ?mHelmetIsUR@@3JA, 1		; mHelmetIsUR

; 1316 : 			mHelmetID=gTotalJoy;

	mov	ecx, DWORD PTR ?gTotalJoy@@3HA		; gTotalJoy
	mov	DWORD PTR ?mHelmetID@@3JA, ecx		; mHelmetID
$LN2@InitJoysti:

; 1317 : 		}
; 1318 : 
; 1319 : 		gTotalJoy++;

	mov	edx, DWORD PTR ?gTotalJoy@@3HA		; gTotalJoy
	add	edx, 1
	mov	DWORD PTR ?gTotalJoy@@3HA, edx		; gTotalJoy

; 1320 : 
; 1321 : 		/*****************************************************************************/
; 1322 : 		//	we've used up our whole array, sorry no more!!
; 1323 : 		/*****************************************************************************/
; 1324 : 		if( (SIM_JOYSTICK1 + gTotalJoy) >= SIM_NUMDEVICES)

	mov	eax, DWORD PTR ?gTotalJoy@@3HA		; gTotalJoy
	add	eax, 2
	cmp	eax, 16					; 00000010H
	jl	SHORT $LN4@InitJoysti

; 1325 : 			return DIENUM_STOP;

	xor	eax, eax
	jmp	SHORT $LN10@InitJoysti
$LN4@InitJoysti:

; 1326 : 	}
; 1327 : 	
; 1328 : #ifndef USE_DINPUT_8	// Retro 15Jan2004
; 1329 : 	//if the call to QueryInterface succeeded the reference count was incremented to 2
; 1330 : 	//so this will drop it to 1 or 0.
; 1331 : 	pdev->Release();
; 1332 : #endif
; 1333 : 	return DIENUM_CONTINUE;

	mov	eax, 1
$LN10@InitJoysti:

; 1334 : }

	mov	ecx, DWORD PTR __$ArrayPad$[ebp]
	xor	ecx, ebp
	call	@__security_check_cookie@4
	mov	esp, ebp
	pop	ebp
	ret	8
?InitJoystick@@YGHPBUDIDEVICEINSTANCEA@@PAX@Z ENDP	; InitJoystick
_TEXT	ENDS
; Function compile flags: /Odtp
; File c:\users\zhitao li\documents\visual studio 2012\projects\freefalcon\sim\siminput\sijoy.cpp
_TEXT	SEGMENT
_hres$ = -56						; size = 4
tv92 = -49						; size = 1
_devcaps$ = -48						; size = 44
__$ArrayPad$ = -4					; size = 4
_theJoyIndex$ = 8					; size = 4
?CheckForForceFeedback@@YAHH@Z PROC			; CheckForForceFeedback

; 1134 : {

	push	ebp
	mov	ebp, esp
	sub	esp, 56					; 00000038H
	mov	eax, DWORD PTR ___security_cookie
	xor	eax, ebp
	mov	DWORD PTR __$ArrayPad$[ebp], eax

; 1135 : 	ShiAssert(theJoyIndex >= 0);
; 1136 : 	HRESULT hres;
; 1137 : 
; 1138 : #ifndef AUTOCENTERFUN
; 1139 : 	// have to unacquire in order to set new properties !
; 1140 : 	hres = gpDIDevice[theJoyIndex+SIM_JOYSTICK1]->Unacquire();
; 1141 : #endif
; 1142 : 
; 1143 : 	DIDEVCAPS				devcaps;
; 1144 : 	devcaps.dwSize = sizeof(DIDEVCAPS);

	mov	DWORD PTR _devcaps$[ebp], 44		; 0000002cH

; 1145 : 	hres = gpDIDevice[theJoyIndex+SIM_JOYSTICK1]->GetCapabilities(&devcaps);

	lea	eax, DWORD PTR _devcaps$[ebp]
	push	eax
	mov	ecx, DWORD PTR _theJoyIndex$[ebp]
	mov	edx, DWORD PTR ?gpDIDevice@@3PAPAUIDirectInputDevice8A@@A[ecx*4+8]
	mov	eax, DWORD PTR _theJoyIndex$[ebp]
	mov	ecx, DWORD PTR ?gpDIDevice@@3PAPAUIDirectInputDevice8A@@A[eax*4+8]
	mov	edx, DWORD PTR [edx]
	push	ecx
	mov	eax, DWORD PTR [edx+12]
	call	eax
	mov	DWORD PTR _hres$[ebp], eax

; 1146 : 
; 1147 : 	if (theJoyIndex == AxisMap.FlightControlDevice-SIM_JOYSTICK1)	 // Retro 31Dec2003

	mov	ecx, DWORD PTR ?AxisMap@@3UAxisMapping@@A
	sub	ecx, 2
	cmp	DWORD PTR _theJoyIndex$[ebp], ecx
	jne	$LN4@CheckForFo

; 1148 : 	{
; 1149 : 		//	a total shit sandwich here.. FFB only for the primary device ! if nothing is yet mapped 
; 1150 : 		//	then it will have to wait till the user selects it in the appropriate screen
; 1151 : 		if(devcaps.dwFlags & DIDC_FORCEFEEDBACK)

	mov	edx, DWORD PTR _devcaps$[ebp+4]
	and	edx, 256				; 00000100H
	je	SHORT $LN3@CheckForFo

; 1152 : 		{
; 1153 : 			//Got it
; 1154 : 			OutputDebugString("ForceFeedback device found.\n");

	push	OFFSET ??_C@_0BN@LOLGLJBM@ForceFeedback?5device?5found?4?6?$AA@
	call	DWORD PTR __imp__OutputDebugStringA@4

; 1155 : 
; 1156 : 			// we're supporting ForceFeedback
; 1157 : 			if(!JoystickCreateEffect(0xffffffff))

	push	-1
	call	?JoystickCreateEffect@@YAHK@Z		; JoystickCreateEffect
	add	esp, 4
	test	eax, eax
	jne	SHORT $LN2@CheckForFo

; 1158 : 			{
; 1159 : 				OutputDebugString("JoystickCreateEffects() failed - ForceFeedback disabled\n");

	push	OFFSET ??_C@_0DJ@GMMKGHIP@JoystickCreateEffects?$CI?$CJ?5failed?5?9@
	call	DWORD PTR __imp__OutputDebugStringA@4

; 1160 : 				hasForceFeedback =  FALSE;

	mov	DWORD PTR ?hasForceFeedback@@3HA, 0	; hasForceFeedback

; 1161 : #ifndef AUTOCENTERFUN
; 1162 : 				hres = gpDIDevice[theJoyIndex+SIM_JOYSTICK1]->Acquire();
; 1163 : #endif
; 1164 : 				return FALSE;

	xor	eax, eax
	jmp	SHORT $LN5@CheckForFo

; 1165 : 			}
; 1166 : 			else

	jmp	SHORT $LN3@CheckForFo
$LN2@CheckForFo:

; 1167 : 			{
; 1168 : #ifndef AUTOCENTERFUN
; 1169 : 				DIPROPDWORD DIPropAutoCenter;
; 1170 : 
; 1171 : 				// Disable stock auto-center
; 1172 : 				DIPropAutoCenter.diph.dwSize = sizeof(DIPropAutoCenter);
; 1173 : 				DIPropAutoCenter.diph.dwHeaderSize = sizeof(DIPROPHEADER);
; 1174 : 				DIPropAutoCenter.diph.dwObj = 0;
; 1175 : 				DIPropAutoCenter.diph.dwHow = DIPH_DEVICE;
; 1176 : 				DIPropAutoCenter.dwData = DIPROPAUTOCENTER_OFF;
; 1177 : 
; 1178 : 				//Wombat778 Put back to original code because fix for FF Centering is now it atmos.cpp.  This should be cleaner and better.
; 1179 : 				if (!VerifyResult(gpDIDevice[SIM_JOYSTICK1 + theJoyIndex]->SetProperty(DIPROP_AUTOCENTER, &DIPropAutoCenter.diph)))
; 1180 : 				{
; 1181 : 				   OutputDebugString("Failed to turn auto-center off.\n");
; 1182 : 				   hasForceFeedback =  FALSE;
; 1183 : 				   hres = gpDIDevice[theJoyIndex+SIM_JOYSTICK1]->Acquire();
; 1184 : 				   return FALSE;
; 1185 : 				}
; 1186 : 				else
; 1187 : 				{
; 1188 : 				   hasForceFeedback =  TRUE;
; 1189 : 				   hres = gpDIDevice[theJoyIndex+SIM_JOYSTICK1]->Acquire();
; 1190 : 				   return TRUE;
; 1191 : 				}
; 1192 : #else
; 1193 : 				// autocenter will get turned OFF if FFB is ENABLED !
; 1194 : 				hasForceFeedback =  ActivateAutoCenter(!PlayerOptions.GetFFB(), theJoyIndex);

	mov	ecx, OFFSET ?PlayerOptions@@3VPlayerOptionsClass@@A ; PlayerOptions
	call	?GetFFB@PlayerOptionsClass@@QBE_NXZ	; PlayerOptionsClass::GetFFB
	movzx	eax, al
	test	eax, eax
	jne	SHORT $LN7@CheckForFo
	mov	BYTE PTR tv92[ebp], 1
	jmp	SHORT $LN8@CheckForFo
$LN7@CheckForFo:
	mov	BYTE PTR tv92[ebp], 0
$LN8@CheckForFo:
	mov	ecx, DWORD PTR _theJoyIndex$[ebp]
	push	ecx
	movzx	edx, BYTE PTR tv92[ebp]
	push	edx
	call	?ActivateAutoCenter@@YAH_NH@Z		; ActivateAutoCenter
	add	esp, 8
	mov	DWORD PTR ?hasForceFeedback@@3HA, eax	; hasForceFeedback

; 1195 : 				return hasForceFeedback;

	mov	eax, DWORD PTR ?hasForceFeedback@@3HA	; hasForceFeedback
	jmp	SHORT $LN5@CheckForFo
$LN3@CheckForFo:

; 1196 : #endif
; 1197 : 			}
; 1198 : 		}
; 1199 : 		hasForceFeedback =  FALSE;

	mov	DWORD PTR ?hasForceFeedback@@3HA, 0	; hasForceFeedback

; 1200 : #ifndef AUTOCENTERFUN
; 1201 : 		hres = gpDIDevice[theJoyIndex+SIM_JOYSTICK1]->Acquire();
; 1202 : #endif
; 1203 : 		return FALSE;	// no ffb stick !

	xor	eax, eax
	jmp	SHORT $LN5@CheckForFo
$LN4@CheckForFo:

; 1204 : 	}
; 1205 : #ifndef AUTOCENTERFUN
; 1206 : 	hres = gpDIDevice[theJoyIndex+SIM_JOYSTICK1]->Acquire();
; 1207 : #endif
; 1208 : 	return FALSE;	// device checked is not the primary flight stick (the only one that has FFB effects) !

	xor	eax, eax
$LN5@CheckForFo:

; 1209 : }

	mov	ecx, DWORD PTR __$ArrayPad$[ebp]
	xor	ecx, ebp
	call	@__security_check_cookie@4
	mov	esp, ebp
	pop	ebp
	ret	0
?CheckForForceFeedback@@YAHH@Z ENDP			; CheckForForceFeedback
_TEXT	ENDS
; Function compile flags: /Odtp
; File c:\users\zhitao li\documents\visual studio 2012\projects\freefalcon\sim\siminput\sijoy.cpp
_TEXT	SEGMENT
_hres$ = -28						; size = 4
_DIPropAutoCenter$ = -24				; size = 20
__$ArrayPad$ = -4					; size = 4
_OnOff$ = 8						; size = 1
_theJoyIndex$ = 12					; size = 4
?ActivateAutoCenter@@YAH_NH@Z PROC			; ActivateAutoCenter

; 1086 : {

	push	ebp
	mov	ebp, esp
	sub	esp, 28					; 0000001cH
	mov	eax, DWORD PTR ___security_cookie
	xor	eax, ebp
	mov	DWORD PTR __$ArrayPad$[ebp], eax

; 1087 : 	ShiAssert(theJoyIndex >= 0);
; 1088 : 	HRESULT hres;
; 1089 : 
; 1090 : 	// have to unacquire in order to set new properties !
; 1091 : 	hres = gpDIDevice[theJoyIndex+SIM_JOYSTICK1]->Unacquire();

	mov	eax, DWORD PTR _theJoyIndex$[ebp]
	mov	ecx, DWORD PTR ?gpDIDevice@@3PAPAUIDirectInputDevice8A@@A[eax*4+8]
	mov	edx, DWORD PTR _theJoyIndex$[ebp]
	mov	eax, DWORD PTR ?gpDIDevice@@3PAPAUIDirectInputDevice8A@@A[edx*4+8]
	mov	ecx, DWORD PTR [ecx]
	push	eax
	mov	edx, DWORD PTR [ecx+32]
	call	edx
	mov	DWORD PTR _hres$[ebp], eax

; 1092 : 
; 1093 : 	DIPROPDWORD DIPropAutoCenter;
; 1094 : 
; 1095 : 	// Disable stock auto-center
; 1096 : 	DIPropAutoCenter.diph.dwSize = sizeof(DIPropAutoCenter);

	mov	DWORD PTR _DIPropAutoCenter$[ebp], 20	; 00000014H

; 1097 : 	DIPropAutoCenter.diph.dwHeaderSize = sizeof(DIPROPHEADER);

	mov	DWORD PTR _DIPropAutoCenter$[ebp+4], 16	; 00000010H

; 1098 : 	DIPropAutoCenter.diph.dwObj = 0;

	mov	DWORD PTR _DIPropAutoCenter$[ebp+8], 0

; 1099 : 	DIPropAutoCenter.diph.dwHow = DIPH_DEVICE;

	mov	DWORD PTR _DIPropAutoCenter$[ebp+12], 0

; 1100 : 
; 1101 : 	if (OnOff == false)

	movzx	eax, BYTE PTR _OnOff$[ebp]
	test	eax, eax
	jne	SHORT $LN6@ActivateAu

; 1102 : 		DIPropAutoCenter.dwData = DIPROPAUTOCENTER_OFF;

	mov	DWORD PTR _DIPropAutoCenter$[ebp+16], 0

; 1103 : 	else

	jmp	SHORT $LN5@ActivateAu
$LN6@ActivateAu:

; 1104 : 		DIPropAutoCenter.dwData = DIPROPAUTOCENTER_ON;

	mov	DWORD PTR _DIPropAutoCenter$[ebp+16], 1
$LN5@ActivateAu:

; 1105 : 
; 1106 : 	//Wombat778 Put back to original code because fix for FF Centering is now it atmos.cpp.  This should be cleaner and better.
; 1107 : 	if (!VerifyResult(gpDIDevice[SIM_JOYSTICK1 + theJoyIndex]->SetProperty(DIPROP_AUTOCENTER, &DIPropAutoCenter.diph)))

	lea	ecx, DWORD PTR _DIPropAutoCenter$[ebp]
	push	ecx
	push	9
	mov	edx, DWORD PTR _theJoyIndex$[ebp]
	mov	eax, DWORD PTR ?gpDIDevice@@3PAPAUIDirectInputDevice8A@@A[edx*4+8]
	mov	ecx, DWORD PTR _theJoyIndex$[ebp]
	mov	edx, DWORD PTR ?gpDIDevice@@3PAPAUIDirectInputDevice8A@@A[ecx*4+8]
	mov	eax, DWORD PTR [eax]
	push	edx
	mov	ecx, DWORD PTR [eax+24]
	call	ecx
	push	eax
	call	?VerifyResult@@YAHJ@Z			; VerifyResult
	add	esp, 4
	test	eax, eax
	jne	SHORT $LN4@ActivateAu

; 1108 : 	{
; 1109 : 		if (OnOff == false)

	movzx	edx, BYTE PTR _OnOff$[ebp]
	test	edx, edx
	jne	SHORT $LN3@ActivateAu

; 1110 : 			OutputDebugString("Failed to turn auto-center off.\n");

	push	OFFSET ??_C@_0CB@MBDIDOGB@Failed?5to?5turn?5auto?9center?5off?4?6@
	call	DWORD PTR __imp__OutputDebugStringA@4

; 1111 : 		else

	jmp	SHORT $LN2@ActivateAu
$LN3@ActivateAu:

; 1112 : 			OutputDebugString("Failed to turn auto-center on.\n");

	push	OFFSET ??_C@_0CA@PDCDDGBB@Failed?5to?5turn?5auto?9center?5on?4?6?$AA@
	call	DWORD PTR __imp__OutputDebugStringA@4
$LN2@ActivateAu:

; 1113 : 
; 1114 : 		hres = gpDIDevice[theJoyIndex+SIM_JOYSTICK1]->Acquire();

	mov	eax, DWORD PTR _theJoyIndex$[ebp]
	mov	ecx, DWORD PTR ?gpDIDevice@@3PAPAUIDirectInputDevice8A@@A[eax*4+8]
	mov	edx, DWORD PTR _theJoyIndex$[ebp]
	mov	eax, DWORD PTR ?gpDIDevice@@3PAPAUIDirectInputDevice8A@@A[edx*4+8]
	mov	ecx, DWORD PTR [ecx]
	push	eax
	mov	edx, DWORD PTR [ecx+28]
	call	edx
	mov	DWORD PTR _hres$[ebp], eax

; 1115 : 		return FALSE;

	xor	eax, eax
	jmp	SHORT $LN7@ActivateAu

; 1116 : 	}
; 1117 : 	else

	jmp	SHORT $LN7@ActivateAu
$LN4@ActivateAu:

; 1118 : 	{
; 1119 : 	   hres = gpDIDevice[theJoyIndex+SIM_JOYSTICK1]->Acquire();

	mov	eax, DWORD PTR _theJoyIndex$[ebp]
	mov	ecx, DWORD PTR ?gpDIDevice@@3PAPAUIDirectInputDevice8A@@A[eax*4+8]
	mov	edx, DWORD PTR _theJoyIndex$[ebp]
	mov	eax, DWORD PTR ?gpDIDevice@@3PAPAUIDirectInputDevice8A@@A[edx*4+8]
	mov	ecx, DWORD PTR [ecx]
	push	eax
	mov	edx, DWORD PTR [ecx+28]
	call	edx
	mov	DWORD PTR _hres$[ebp], eax

; 1120 : 	   return TRUE;

	mov	eax, 1
$LN7@ActivateAu:

; 1121 : 	}
; 1122 : }

	mov	ecx, DWORD PTR __$ArrayPad$[ebp]
	xor	ecx, ebp
	call	@__security_check_cookie@4
	mov	esp, ebp
	pop	ebp
	ret	0
?ActivateAutoCenter@@YAH_NH@Z ENDP			; ActivateAutoCenter
_TEXT	ENDS
; Function compile flags: /Odtp
; File c:\users\zhitao li\documents\visual studio 2012\projects\freefalcon\sim\siminput\sijoy.cpp
_TEXT	SEGMENT
_hr$ = -1008						; size = 4
_mouse$ = -1004						; size = 4
_pdidi$1 = -1000					; size = 580
_devobj$2 = -420					; size = 316
_DevName$3 = -104					; size = 100
__$ArrayPad$ = -4					; size = 4
?CheckForMouseAxis@@YAXXZ PROC				; CheckForMouseAxis

; 1020 : {

	push	ebp
	mov	ebp, esp
	sub	esp, 1008				; 000003f0H
	mov	eax, DWORD PTR ___security_cookie
	xor	eax, ebp
	mov	DWORD PTR __$ArrayPad$[ebp], eax
	push	esi

; 1021 : #ifdef USE_DINPUT_8
; 1022 : 	LPDIRECTINPUTDEVICE8 mouse = 0;

	mov	DWORD PTR _mouse$[ebp], 0

; 1023 : 	HRESULT hr = gpDIObject->CreateDevice(GUID_SysMouse,&mouse, NULL);

	push	0
	lea	eax, DWORD PTR _mouse$[ebp]
	push	eax
	push	OFFSET _GUID_SysMouse
	mov	ecx, DWORD PTR ?gpDIObject@@3PAUIDirectInput8A@@A ; gpDIObject
	mov	edx, DWORD PTR [ecx]
	mov	eax, DWORD PTR ?gpDIObject@@3PAUIDirectInput8A@@A ; gpDIObject
	push	eax
	mov	ecx, DWORD PTR [edx+12]
	call	ecx
	mov	DWORD PTR _hr$[ebp], eax

; 1024 : 
; 1025 : 	if (hr != DI_OK)

	cmp	DWORD PTR _hr$[ebp], 0
	je	SHORT $LN5@CheckForMo

; 1026 : 		return;

	jmp	$LN6@CheckForMo
$LN5@CheckForMo:

; 1027 : 
; 1028 : 	hr = mouse->SetDataFormat(&c_dfDIMouse);

	push	OFFSET _c_dfDIMouse
	mov	edx, DWORD PTR _mouse$[ebp]
	mov	eax, DWORD PTR [edx]
	mov	ecx, DWORD PTR _mouse$[ebp]
	push	ecx
	mov	edx, DWORD PTR [eax+44]
	call	edx
	mov	DWORD PTR _hr$[ebp], eax

; 1029 : 	if (hr == DI_OK)

	cmp	DWORD PTR _hr$[ebp], 0
	jne	$LN4@CheckForMo

; 1030 : 	{
; 1031 : 
; 1032 : 		DIDEVICEINSTANCE pdidi;
; 1033 : 		pdidi.dwSize = sizeof(DIDEVICEINSTANCE);

	mov	DWORD PTR _pdidi$1[ebp], 580		; 00000244H

; 1034 : 		char DevName[100] = {0};

	mov	BYTE PTR _DevName$3[ebp], 0
	push	99					; 00000063H
	push	0
	lea	eax, DWORD PTR _DevName$3[ebp+1]
	push	eax
	call	_memset
	add	esp, 12					; 0000000cH

; 1035 : 
; 1036 : 		hr = mouse->GetDeviceInfo(&pdidi);

	lea	ecx, DWORD PTR _pdidi$1[ebp]
	push	ecx
	mov	edx, DWORD PTR _mouse$[ebp]
	mov	eax, DWORD PTR [edx]
	mov	ecx, DWORD PTR _mouse$[ebp]
	push	ecx
	mov	edx, DWORD PTR [eax+60]
	call	edx
	mov	DWORD PTR _hr$[ebp], eax

; 1037 : 		if (hr == DI_OK)

	cmp	DWORD PTR _hr$[ebp], 0
	jne	SHORT $LN3@CheckForMo

; 1038 : 		{
; 1039 : 			strncpy(DevName,pdidi.tszProductName,100);

	push	100					; 00000064H
	lea	eax, DWORD PTR _pdidi$1[ebp+300]
	push	eax
	lea	ecx, DWORD PTR _DevName$3[ebp]
	push	ecx
	call	_strncpy
	add	esp, 12					; 0000000cH

; 1040 : 		}
; 1041 : 		else

	jmp	SHORT $LN2@CheckForMo
$LN3@CheckForMo:

; 1042 : 		{
; 1043 : 			sprintf(DevName,"Mouse");

	push	OFFSET ??_C@_05PEEFLODH@Mouse?$AA@
	lea	edx, DWORD PTR _DevName$3[ebp]
	push	edx
	call	_sprintf
	add	esp, 8
$LN2@CheckForMo:

; 1044 : 		}
; 1045 : 
; 1046 : 		DIDEVICEOBJECTINSTANCE devobj;
; 1047 : 		devobj.dwSize = sizeof(DIDEVICEOBJECTINSTANCE);

	mov	DWORD PTR _devobj$2[ebp], 316		; 0000013cH

; 1048 : 
; 1049 : 		hr = mouse->GetObjectInfo(&devobj, DIMOFS_Z,  DIPH_BYOFFSET);

	push	1
	push	8
	lea	eax, DWORD PTR _devobj$2[ebp]
	push	eax
	mov	ecx, DWORD PTR _mouse$[ebp]
	mov	edx, DWORD PTR [ecx]
	mov	eax, DWORD PTR _mouse$[ebp]
	push	eax
	mov	ecx, DWORD PTR [edx+56]
	call	ecx
	mov	DWORD PTR _hr$[ebp], eax

; 1050 : 		if (hr == DI_OK)

	cmp	DWORD PTR _hr$[ebp], 0
	jne	$LN4@CheckForMo

; 1051 : 		{
; 1052 : 			// found a mouse with a wheel
; 1053 : 			DIAxisNames[AxisCount].DXAxisName = (char*)malloc(strlen(devobj.tszName) + strlen(" - ") + strlen(DevName)+1);

	lea	edx, DWORD PTR _devobj$2[ebp+32]
	push	edx
	call	_strlen
	add	esp, 4
	mov	esi, eax
	push	OFFSET ??_C@_03NLJIHOMM@?5?9?5?$AA@
	call	_strlen
	add	esp, 4
	add	esi, eax
	lea	eax, DWORD PTR _DevName$3[ebp]
	push	eax
	call	_strlen
	add	esp, 4
	lea	ecx, DWORD PTR [esi+eax+1]
	push	ecx
	call	_malloc
	add	esp, 4
	mov	edx, DWORD PTR _AxisCount
	shl	edx, 4
	mov	DWORD PTR ?DIAxisNames@@3PAUAxisIDStuff@@A[edx], eax

; 1054 : 			strcpy(DIAxisNames[AxisCount].DXAxisName,devobj.tszName);

	lea	eax, DWORD PTR _devobj$2[ebp+32]
	push	eax
	mov	ecx, DWORD PTR _AxisCount
	shl	ecx, 4
	mov	edx, DWORD PTR ?DIAxisNames@@3PAUAxisIDStuff@@A[ecx]
	push	edx
	call	_strcpy
	add	esp, 8

; 1055 : 			strcat(DIAxisNames[AxisCount].DXAxisName," - ");

	push	OFFSET ??_C@_03NLJIHOMM@?5?9?5?$AA@
	mov	eax, DWORD PTR _AxisCount
	shl	eax, 4
	mov	ecx, DWORD PTR ?DIAxisNames@@3PAUAxisIDStuff@@A[eax]
	push	ecx
	call	_strcat
	add	esp, 8

; 1056 : 			strcat(DIAxisNames[AxisCount].DXAxisName,DevName);

	lea	edx, DWORD PTR _DevName$3[ebp]
	push	edx
	mov	eax, DWORD PTR _AxisCount
	shl	eax, 4
	mov	ecx, DWORD PTR ?DIAxisNames@@3PAUAxisIDStuff@@A[eax]
	push	ecx
	call	_strcat
	add	esp, 8

; 1057 : 
; 1058 : 			DIAxisNames[AxisCount].DXAxisID = DX_MOUSEWHEEL;

	mov	edx, DWORD PTR _AxisCount
	shl	edx, 4
	mov	DWORD PTR ?DIAxisNames@@3PAUAxisIDStuff@@A[edx+4], 0

; 1059 : 
; 1060 : 			DIAxisNames[AxisCount].DXDeviceID = SIM_MOUSE;	// SIM_MOUSE = 0

	mov	eax, DWORD PTR _AxisCount
	shl	eax, 4
	mov	DWORD PTR ?DIAxisNames@@3PAUAxisIDStuff@@A[eax+8], 0

; 1061 : 			AxisCount++;

	mov	ecx, DWORD PTR _AxisCount
	add	ecx, 1
	mov	DWORD PTR _AxisCount, ecx

; 1062 : 
; 1063 : 			IO.SetMouseWheelExists(true);

	push	1
	mov	ecx, OFFSET ?IO@@3VSIMLIB_IO_CLASS@@A	; IO
	call	?SetMouseWheelExists@SIMLIB_IO_CLASS@@QAEX_N@Z ; SIMLIB_IO_CLASS::SetMouseWheelExists
$LN4@CheckForMo:

; 1064 : 		}
; 1065 : 	}
; 1066 : 
; 1067 : 	mouse->Release();

	mov	edx, DWORD PTR _mouse$[ebp]
	mov	eax, DWORD PTR [edx]
	mov	ecx, DWORD PTR _mouse$[ebp]
	push	ecx
	mov	edx, DWORD PTR [eax+8]
	call	edx

; 1068 : 	mouse = 0;

	mov	DWORD PTR _mouse$[ebp], 0
$LN6@CheckForMo:

; 1069 : #else
; 1070 : 	// no mousewheel axis !
; 1071 : #endif
; 1072 : }

	pop	esi
	mov	ecx, DWORD PTR __$ArrayPad$[ebp]
	xor	ecx, ebp
	call	@__security_check_cookie@4
	mov	esp, ebp
	pop	ebp
	ret	0
?CheckForMouseAxis@@YAXXZ ENDP				; CheckForMouseAxis
_TEXT	ENDS
; Function compile flags: /Odtp
; File c:\users\zhitao li\documents\visual studio 2012\projects\freefalcon\sim\siminput\sijoy.cpp
_TEXT	SEGMENT
_hres$ = -472						; size = 4
_i$1 = -468						; size = 4
_devobj$ = -464						; size = 316
_AxisOffsets$ = -148					; size = 64
_DevNum$ = -84						; size = 80
__$ArrayPad$ = -4					; size = 4
_pdev$ = 8						; size = 4
_DevName$ = 12						; size = 4
?CheckAxisOnDevice@@YAXPAUIDirectInputDevice8A@@PBD@Z PROC ; CheckAxisOnDevice

; 965  : {

	push	ebp
	mov	ebp, esp
	sub	esp, 472				; 000001d8H
	mov	eax, DWORD PTR ___security_cookie
	xor	eax, ebp
	mov	DWORD PTR __$ArrayPad$[ebp], eax
	push	esi

; 966  : 	ShiAssert(pdev);
; 967  : 	ShiAssert(DevName);
; 968  : 
; 969  : 	DIDEVICEOBJECTINSTANCE devobj;
; 970  : 	HRESULT hres;
; 971  : 	devobj.dwSize = sizeof(DIDEVICEOBJECTINSTANCE);

	mov	DWORD PTR _devobj$[ebp], 316		; 0000013cH

; 972  : 
; 973  : 	char DevNum[80];
; 974  : 	sprintf(DevNum," (%i)",gTotalJoy);

	mov	eax, DWORD PTR ?gTotalJoy@@3HA		; gTotalJoy
	push	eax
	push	OFFSET ??_C@_05CMIMAPOH@?5?$CI?$CFi?$CJ?$AA@
	lea	ecx, DWORD PTR _DevNum$[ebp]
	push	ecx
	call	_sprintf
	add	esp, 12					; 0000000cH

; 975  : 
; 976  : 	typedef struct {
; 977  : 		int Offset;
; 978  : 		int theAx;
; 979  : 	} AxisOffsets_t;
; 980  : 
; 981  : 	AxisOffsets_t AxisOffsets[NUM_OF_STICK_AXIS] = {
; 982  : 		{ DIJOFS_X,			DX_XAXIS },

	mov	DWORD PTR _AxisOffsets$[ebp], 0
	mov	DWORD PTR _AxisOffsets$[ebp+4], 0

; 983  : 		{ DIJOFS_Y,			DX_YAXIS },

	mov	DWORD PTR _AxisOffsets$[ebp+8], 4
	mov	DWORD PTR _AxisOffsets$[ebp+12], 1

; 984  : 		{ DIJOFS_Z,			DX_ZAXIS },

	mov	DWORD PTR _AxisOffsets$[ebp+16], 8
	mov	DWORD PTR _AxisOffsets$[ebp+20], 2

; 985  : 		{ DIJOFS_RX,		DX_RXAXIS },

	mov	DWORD PTR _AxisOffsets$[ebp+24], 12	; 0000000cH
	mov	DWORD PTR _AxisOffsets$[ebp+28], 3

; 986  : 		{ DIJOFS_RY,		DX_RYAXIS },

	mov	DWORD PTR _AxisOffsets$[ebp+32], 16	; 00000010H
	mov	DWORD PTR _AxisOffsets$[ebp+36], 4

; 987  : 		{ DIJOFS_RZ,		DX_RZAXIS },

	mov	DWORD PTR _AxisOffsets$[ebp+40], 20	; 00000014H
	mov	DWORD PTR _AxisOffsets$[ebp+44], 5

; 988  : 		{ DIJOFS_SLIDER(0),	DX_SLIDER0 },

	mov	DWORD PTR _AxisOffsets$[ebp+48], 24	; 00000018H
	mov	DWORD PTR _AxisOffsets$[ebp+52], 6

; 989  : 		{ DIJOFS_SLIDER(1),	DX_SLIDER1 }

	mov	DWORD PTR _AxisOffsets$[ebp+56], 28	; 0000001cH
	mov	DWORD PTR _AxisOffsets$[ebp+60], 7

; 990  : 	};
; 991  : 	
; 992  : 	for (int i = 0; i < NUM_OF_STICK_AXIS; i++)

	mov	DWORD PTR _i$1[ebp], 0
	jmp	SHORT $LN4@CheckAxisO
$LN3@CheckAxisO:
	mov	edx, DWORD PTR _i$1[ebp]
	add	edx, 1
	mov	DWORD PTR _i$1[ebp], edx
$LN4@CheckAxisO:
	cmp	DWORD PTR _i$1[ebp], 8
	jge	$LN5@CheckAxisO

; 993  : 	{
; 994  : 		hres = pdev->GetObjectInfo(&devobj, AxisOffsets[i].Offset, DIPH_BYOFFSET);

	push	1
	mov	eax, DWORD PTR _i$1[ebp]
	mov	ecx, DWORD PTR _AxisOffsets$[ebp+eax*8]
	push	ecx
	lea	edx, DWORD PTR _devobj$[ebp]
	push	edx
	mov	eax, DWORD PTR _pdev$[ebp]
	mov	ecx, DWORD PTR [eax]
	mov	edx, DWORD PTR _pdev$[ebp]
	push	edx
	mov	eax, DWORD PTR [ecx+56]
	call	eax
	mov	DWORD PTR _hres$[ebp], eax

; 995  : 		if (hres == DI_OK)

	cmp	DWORD PTR _hres$[ebp], 0
	jne	$LN1@CheckAxisO

; 996  : 		{
; 997  : 			// these strings are deleted on shutdown, in cleanupdiall()
; 998  : 			DIAxisNames[AxisCount].DXAxisName = (char*)malloc(strlen(devobj.tszName) + strlen(" - ") + strlen(DevName) + strlen(DevNum)+1);

	lea	ecx, DWORD PTR _devobj$[ebp+32]
	push	ecx
	call	_strlen
	add	esp, 4
	mov	esi, eax
	push	OFFSET ??_C@_03NLJIHOMM@?5?9?5?$AA@
	call	_strlen
	add	esp, 4
	add	esi, eax
	mov	edx, DWORD PTR _DevName$[ebp]
	push	edx
	call	_strlen
	add	esp, 4
	add	esi, eax
	lea	eax, DWORD PTR _DevNum$[ebp]
	push	eax
	call	_strlen
	add	esp, 4
	lea	ecx, DWORD PTR [esi+eax+1]
	push	ecx
	call	_malloc
	add	esp, 4
	mov	edx, DWORD PTR _AxisCount
	shl	edx, 4
	mov	DWORD PTR ?DIAxisNames@@3PAUAxisIDStuff@@A[edx], eax

; 999  : 			strcpy(DIAxisNames[AxisCount].DXAxisName,devobj.tszName);

	lea	eax, DWORD PTR _devobj$[ebp+32]
	push	eax
	mov	ecx, DWORD PTR _AxisCount
	shl	ecx, 4
	mov	edx, DWORD PTR ?DIAxisNames@@3PAUAxisIDStuff@@A[ecx]
	push	edx
	call	_strcpy
	add	esp, 8

; 1000 : 			strcat(DIAxisNames[AxisCount].DXAxisName," - ");

	push	OFFSET ??_C@_03NLJIHOMM@?5?9?5?$AA@
	mov	eax, DWORD PTR _AxisCount
	shl	eax, 4
	mov	ecx, DWORD PTR ?DIAxisNames@@3PAUAxisIDStuff@@A[eax]
	push	ecx
	call	_strcat
	add	esp, 8

; 1001 : 			strcat(DIAxisNames[AxisCount].DXAxisName,DevName);

	mov	edx, DWORD PTR _DevName$[ebp]
	push	edx
	mov	eax, DWORD PTR _AxisCount
	shl	eax, 4
	mov	ecx, DWORD PTR ?DIAxisNames@@3PAUAxisIDStuff@@A[eax]
	push	ecx
	call	_strcat
	add	esp, 8

; 1002 : 			strcat(DIAxisNames[AxisCount].DXAxisName,DevNum);

	lea	edx, DWORD PTR _DevNum$[ebp]
	push	edx
	mov	eax, DWORD PTR _AxisCount
	shl	eax, 4
	mov	ecx, DWORD PTR ?DIAxisNames@@3PAUAxisIDStuff@@A[eax]
	push	ecx
	call	_strcat
	add	esp, 8

; 1003 : 
; 1004 : 			DIAxisNames[AxisCount].DXAxisID = AxisOffsets[i].theAx;

	mov	edx, DWORD PTR _AxisCount
	shl	edx, 4
	mov	eax, DWORD PTR _i$1[ebp]
	mov	ecx, DWORD PTR _AxisOffsets$[ebp+eax*8+4]
	mov	DWORD PTR ?DIAxisNames@@3PAUAxisIDStuff@@A[edx+4], ecx

; 1005 : 
; 1006 : 			DIAxisNames[AxisCount].DXDeviceID = gTotalJoy + SIM_JOYSTICK1;

	mov	edx, DWORD PTR ?gTotalJoy@@3HA		; gTotalJoy
	add	edx, 2
	mov	eax, DWORD PTR _AxisCount
	shl	eax, 4
	mov	DWORD PTR ?DIAxisNames@@3PAUAxisIDStuff@@A[eax+8], edx

; 1007 : 			AxisCount++;

	mov	ecx, DWORD PTR _AxisCount
	add	ecx, 1
	mov	DWORD PTR _AxisCount, ecx
$LN1@CheckAxisO:

; 1008 : 		}
; 1009 : 	}

	jmp	$LN3@CheckAxisO
$LN5@CheckAxisO:

; 1010 : }

	pop	esi
	mov	ecx, DWORD PTR __$ArrayPad$[ebp]
	xor	ecx, ebp
	call	@__security_check_cookie@4
	mov	esp, ebp
	pop	ebp
	ret	0
?CheckAxisOnDevice@@YAXPAUIDirectInputDevice8A@@PBD@Z ENDP ; CheckAxisOnDevice
_TEXT	ENDS
; Function compile flags: /Odtp
; File c:\users\zhitao li\documents\visual studio 2012\projects\freefalcon\sim\siminput\sijoy.cpp
;	COMDAT ??__EDIAxisNames@@YAXXZ
text$yc	SEGMENT
??__EDIAxisNames@@YAXXZ PROC				; `dynamic initializer for 'DIAxisNames'', COMDAT

; 907  : AxisIDStuff DIAxisNames[SIM_NUMDEVICES*NUM_OF_STICK_AXIS];

	push	ebp
	mov	ebp, esp
	push	OFFSET ??0AxisIDStuff@@QAE@XZ		; AxisIDStuff::AxisIDStuff
	push	128					; 00000080H
	push	16					; 00000010H
	push	OFFSET ?DIAxisNames@@3PAUAxisIDStuff@@A	; DIAxisNames
	call	??_H@YGXPAXIHP6EPAX0@Z@Z
	pop	ebp
	ret	0
??__EDIAxisNames@@YAXXZ ENDP				; `dynamic initializer for 'DIAxisNames''
text$yc	ENDS
; Function compile flags: /Odtp
; File c:\users\zhitao li\documents\visual studio 2012\projects\freefalcon\sim\siminput\sijoy.cpp
_TEXT	SEGMENT
?GetTrackIRInput@@YAXXZ PROC				; GetTrackIRInput

; 216  : {

	push	ebp
	mov	ebp, esp

; 217  : #if 0	// Retro 24Dez2004 - deprecated
; 218  : 	theTrackIRObject.GetTrackIR_ViewValues(&cockpitFlightData.headYaw, &cockpitFlightData.headPitch);
; 219  : #else
; 220  : 	theTrackIRObject.Poll();

	mov	ecx, OFFSET ?theTrackIRObject@@3VTrackIR@@A ; theTrackIRObject
	call	?Poll@TrackIR@@QAEXXZ			; TrackIR::Poll

; 221  : 
; 222  : 	cockpitFlightData.headYaw = theTrackIRObject.getYaw();

	mov	ecx, OFFSET ?theTrackIRObject@@3VTrackIR@@A ; theTrackIRObject
	call	?getYaw@TrackIR@@QAEMXZ			; TrackIR::getYaw
	fstp	DWORD PTR ?cockpitFlightData@@3VFlightData@@A+136

; 223  : 	cockpitFlightData.headPitch = theTrackIRObject.getPitch();

	mov	ecx, OFFSET ?theTrackIRObject@@3VTrackIR@@A ; theTrackIRObject
	call	?getPitch@TrackIR@@QAEMXZ		; TrackIR::getPitch
	fstp	DWORD PTR ?cockpitFlightData@@3VFlightData@@A+128

; 224  : 	cockpitFlightData.headRoll = theTrackIRObject.getRoll();

	mov	ecx, OFFSET ?theTrackIRObject@@3VTrackIR@@A ; theTrackIRObject
	call	?getRoll@TrackIR@@QAEMXZ		; TrackIR::getRoll
	fstp	DWORD PTR ?cockpitFlightData@@3VFlightData@@A+132

; 225  : #endif
; 226  : }

	pop	ebp
	ret	0
?GetTrackIRInput@@YAXXZ ENDP				; GetTrackIRInput
_TEXT	ENDS
; Function compile flags: /Odtp
; File c:\users\zhitao li\documents\visual studio 2012\projects\freefalcon\sim\siminput\sijoy.cpp
_TEXT	SEGMENT
tv90 = -108						; size = 4
_vx$ = -104						; size = 4
_hRes$ = -100						; size = 4
_heady$ = -96						; size = 4
_headx$ = -92						; size = 4
_vy$ = -88						; size = 4
_joyState$ = -84					; size = 80
__$ArrayPad$ = -4					; size = 4
?GetURHelmetInput@@YAXXZ PROC				; GetURHelmetInput

; 170  : {

	push	ebp
	mov	ebp, esp
	sub	esp, 108				; 0000006cH
	mov	eax, DWORD PTR ___security_cookie
	xor	eax, ebp
	mov	DWORD PTR __$ArrayPad$[ebp], eax

; 171  : 	HRESULT hRes;
; 172  : 	DIJOYSTATE joyState;
; 173  : 	float headx,heady,vx,vy;
; 174  : 	static long PrevButtonStates;
; 175  : 	
; 176  : 	hRes = ((LPDIRECTINPUTDEVICE2)gpDIDevice[SIM_JOYSTICK1 + mHelmetID])->Poll();

	mov	eax, DWORD PTR ?mHelmetID@@3JA		; mHelmetID
	mov	ecx, DWORD PTR ?gpDIDevice@@3PAPAUIDirectInputDevice8A@@A[eax*4+8]
	mov	edx, DWORD PTR ?mHelmetID@@3JA		; mHelmetID
	mov	eax, DWORD PTR ?gpDIDevice@@3PAPAUIDirectInputDevice8A@@A[edx*4+8]
	mov	ecx, DWORD PTR [ecx]
	push	eax
	mov	edx, DWORD PTR [ecx+100]
	call	edx
	mov	DWORD PTR _hRes$[ebp], eax

; 177  : 		
; 178  : 	hRes = gpDIDevice[SIM_JOYSTICK1 + mHelmetID]->GetDeviceState(sizeof(DIJOYSTATE),&joyState);

	lea	eax, DWORD PTR _joyState$[ebp]
	push	eax
	push	80					; 00000050H
	mov	ecx, DWORD PTR ?mHelmetID@@3JA		; mHelmetID
	mov	edx, DWORD PTR ?gpDIDevice@@3PAPAUIDirectInputDevice8A@@A[ecx*4+8]
	mov	eax, DWORD PTR ?mHelmetID@@3JA		; mHelmetID
	mov	ecx, DWORD PTR ?gpDIDevice@@3PAPAUIDirectInputDevice8A@@A[eax*4+8]
	mov	edx, DWORD PTR [edx]
	push	ecx
	mov	eax, DWORD PTR [edx+36]
	call	eax
	mov	DWORD PTR _hRes$[ebp], eax

; 179  : 		
; 180  : 	switch(hRes)

	mov	ecx, DWORD PTR _hRes$[ebp]
	mov	DWORD PTR tv90[ebp], ecx
	cmp	DWORD PTR tv90[ebp], 0
	je	SHORT $LN4@GetURHelme
	jmp	$LN1@GetURHelme
$LN4@GetURHelme:

; 181  : 	{
; 182  : 		case DI_OK:
; 183  : 			headx=(float)(joyState.lX);

	cvtsi2ss xmm0, DWORD PTR _joyState$[ebp]
	movss	DWORD PTR _headx$[ebp], xmm0

; 184  : 			heady=-(float)(joyState.lY);

	cvtsi2ss xmm0, DWORD PTR _joyState$[ebp+4]
	xorps	xmm0, DWORD PTR __xmm@80000000800000008000000080000000
	movss	DWORD PTR _heady$[ebp], xmm0

; 185  : 
; 186  : 			headx=headx * UR_HEAD_VIEW;

	movss	xmm0, DWORD PTR _headx$[ebp]
	mulss	xmm0, DWORD PTR ?UR_HEAD_VIEW@@3MA
	movss	DWORD PTR _headx$[ebp], xmm0

; 187  : 			heady=heady * UR_HEAD_VIEW;

	movss	xmm0, DWORD PTR _heady$[ebp]
	mulss	xmm0, DWORD PTR ?UR_HEAD_VIEW@@3MA
	movss	DWORD PTR _heady$[ebp], xmm0

; 188  : 
; 189  : 			headx=headx / 10000.0f;

	movss	xmm0, DWORD PTR _headx$[ebp]
	divss	xmm0, DWORD PTR __real@461c4000
	movss	DWORD PTR _headx$[ebp], xmm0

; 190  : 			heady=heady / 10000.0f;

	movss	xmm0, DWORD PTR _heady$[ebp]
	divss	xmm0, DWORD PTR __real@461c4000
	movss	DWORD PTR _heady$[ebp], xmm0

; 191  : 
; 192  : 			vx=(headx * 0.8f + UR_PREV_X * 0.2f);

	movss	xmm0, DWORD PTR _headx$[ebp]
	mulss	xmm0, DWORD PTR __real@3f4ccccd
	movss	xmm1, DWORD PTR ?UR_PREV_X@@3MA
	mulss	xmm1, DWORD PTR __real@3e4ccccd
	addss	xmm0, xmm1
	movss	DWORD PTR _vx$[ebp], xmm0

; 193  : 			vy=(heady * 0.8f + UR_PREV_Y * 0.2f);

	movss	xmm0, DWORD PTR _heady$[ebp]
	mulss	xmm0, DWORD PTR __real@3f4ccccd
	movss	xmm1, DWORD PTR ?UR_PREV_Y@@3MA
	mulss	xmm1, DWORD PTR __real@3e4ccccd
	addss	xmm0, xmm1
	movss	DWORD PTR _vy$[ebp], xmm0

; 194  : 
; 195  : 			if(vy > 25.0f) vy=25.0f; // peg

	movss	xmm0, DWORD PTR _vy$[ebp]
	comiss	xmm0, DWORD PTR __real@41c80000
	jbe	SHORT $LN3@GetURHelme
	movss	xmm0, DWORD PTR __real@41c80000
	movss	DWORD PTR _vy$[ebp], xmm0
$LN3@GetURHelme:

; 196  : 			if(vy < -85.0f) vy=-85.0f; // peg

	movss	xmm0, DWORD PTR __real@c2aa0000
	comiss	xmm0, DWORD PTR _vy$[ebp]
	jbe	SHORT $LN2@GetURHelme
	movss	xmm0, DWORD PTR __real@c2aa0000
	movss	DWORD PTR _vy$[ebp], xmm0
$LN2@GetURHelme:

; 197  : 
; 198  : 			cockpitFlightData.headYaw   = vx * DTR;

	movss	xmm0, DWORD PTR _vx$[ebp]
	mulss	xmm0, DWORD PTR __real@3c8efa34
	movss	DWORD PTR ?cockpitFlightData@@3VFlightData@@A+136, xmm0

; 199  : 			cockpitFlightData.headPitch = vy * DTR;

	movss	xmm0, DWORD PTR _vy$[ebp]
	mulss	xmm0, DWORD PTR __real@3c8efa34
	movss	DWORD PTR ?cockpitFlightData@@3VFlightData@@A+128, xmm0

; 200  : 
; 201  : 			UR_PREV_X=vx;

	movss	xmm0, DWORD PTR _vx$[ebp]
	movss	DWORD PTR ?UR_PREV_X@@3MA, xmm0

; 202  : 			UR_PREV_Y=vy;

	movss	xmm0, DWORD PTR _vy$[ebp]
	movss	DWORD PTR ?UR_PREV_Y@@3MA, xmm0

; 203  : 
; 204  : 			break;

	jmp	SHORT $LN5@GetURHelme
$LN1@GetURHelme:

; 205  : 							
; 206  : 		default:
; 207  : 			AcquireDeviceInput(SIM_JOYSTICK1 + mHelmetID, TRUE);

	push	1
	mov	edx, DWORD PTR ?mHelmetID@@3JA		; mHelmetID
	add	edx, 2
	push	edx
	call	?AcquireDeviceInput@@YAXHH@Z		; AcquireDeviceInput
	add	esp, 8
$LN5@GetURHelme:

; 208  : 			break;
; 209  : 	}
; 210  : }

	mov	ecx, DWORD PTR __$ArrayPad$[ebp]
	xor	ecx, ebp
	call	@__security_check_cookie@4
	mov	esp, ebp
	pop	ebp
	ret	0
?GetURHelmetInput@@YAXXZ ENDP				; GetURHelmetInput
_TEXT	ENDS
; Function compile flags: /Odtp
; File c:\users\zhitao li\documents\visual studio 2012\projects\freefalcon\sim\siminput\sijoy.cpp
;	COMDAT ?ProcessJoystickInput@@YAXW4GameAxis_t@@PAJ@Z
_TEXT	SEGMENT
_diff$1 = -4						; size = 4
_axis$ = 8						; size = 4
_value$ = 12						; size = 4
?ProcessJoystickInput@@YAXW4GameAxis_t@@PAJ@Z PROC	; ProcessJoystickInput, COMDAT

; 132  : {

	push	ebp
	mov	ebp, esp
	push	ecx
	push	esi
	push	edi

; 133  : 	if (g_bUseNewSmoothing == false)	// Retro 19Feb2004 - this old 'smoothing code' does exactly NADA for me..

	movzx	eax, BYTE PTR ?g_bUseNewSmoothing@@3_NA	; g_bUseNewSmoothing
	test	eax, eax
	jne	$LN6@ProcessJoy

; 134  : 	{
; 135  : 		JoyOutput[axis][OldInput] = JoyOutput[axis][NewInput];

	mov	ecx, 4
	imul	ecx, 0
	mov	edx, 4
	shl	edx, 0
	mov	eax, DWORD PTR _axis$[ebp]
	mov	esi, DWORD PTR _axis$[ebp]
	mov	ecx, DWORD PTR _JoyOutput[ecx+esi*8]
	mov	DWORD PTR _JoyOutput[edx+eax*8], ecx

; 136  : 		JoyOutput[axis][NewInput] = *value;

	mov	edx, 4
	imul	edx, 0
	mov	eax, DWORD PTR _axis$[ebp]
	mov	ecx, DWORD PTR _value$[ebp]
	mov	ecx, DWORD PTR [ecx]
	mov	DWORD PTR _JoyOutput[edx+eax*8], ecx

; 137  : 
; 138  : 		if(!DisableSmoothing)

	cmp	DWORD PTR ?DisableSmoothing@@3HA, 0	; DisableSmoothing
	jne	$LN4@ProcessJoy

; 139  : 		{
; 140  : 			int diff = abs(JoyOutput[axis][NewInput] - JoyOutput[axis][OldInput])*FloatToInt32((SimLibMajorFrameTime/0.1F));

	mov	edx, 4
	imul	edx, 0
	mov	eax, 4
	shl	eax, 0
	mov	ecx, DWORD PTR _axis$[ebp]
	mov	esi, DWORD PTR _axis$[ebp]
	mov	edx, DWORD PTR _JoyOutput[edx+ecx*8]
	sub	edx, DWORD PTR _JoyOutput[eax+esi*8]
	push	edx
	call	_abs
	add	esp, 4
	mov	esi, eax
	movss	xmm0, DWORD PTR ?SimLibMajorFrameTime@@3MA
	divss	xmm0, DWORD PTR __real@3dcccccd
	push	ecx
	movss	DWORD PTR [esp], xmm0
	call	?FloatToInt32@@YAHM@Z			; FloatToInt32
	add	esp, 4
	imul	esi, eax
	mov	DWORD PTR _diff$1[ebp], esi

; 141  : 			if(diff > MAX_DIFF)

	cmp	DWORD PTR _diff$1[ebp], 10000		; 00002710H
	jle	SHORT $LN4@ProcessJoy

; 142  : 			{
; 143  : 				*value = JoyOutput[axis][OldInput];

	mov	eax, 4
	shl	eax, 0
	mov	ecx, DWORD PTR _value$[ebp]
	mov	edx, DWORD PTR _axis$[ebp]
	mov	eax, DWORD PTR _JoyOutput[eax+edx*8]
	mov	DWORD PTR [ecx], eax

; 144  : 				JoyOutput[axis][NewInput] = JoyOutput[axis][OldInput] + 
; 145  : 												(	JoyOutput[axis][NewInput] - 
; 146  : 													JoyOutput[axis][OldInput]	)/2;

	mov	ecx, 4
	shl	ecx, 0
	mov	edx, 4
	imul	edx, 0
	mov	eax, 4
	shl	eax, 0
	mov	esi, DWORD PTR _axis$[ebp]
	mov	edi, DWORD PTR _axis$[ebp]
	mov	edx, DWORD PTR _JoyOutput[edx+esi*8]
	sub	edx, DWORD PTR _JoyOutput[eax+edi*8]
	mov	eax, edx
	cdq
	sub	eax, edx
	sar	eax, 1
	mov	edx, DWORD PTR _axis$[ebp]
	add	eax, DWORD PTR _JoyOutput[ecx+edx*8]
	mov	ecx, 4
	imul	ecx, 0
	mov	edx, DWORD PTR _axis$[ebp]
	mov	DWORD PTR _JoyOutput[ecx+edx*8], eax
$LN4@ProcessJoy:

; 147  : 			}
; 148  : 		}
; 149  : 		IO.analog[axis].ioVal = *value;

	mov	eax, DWORD PTR _axis$[ebp]
	imul	eax, 28					; 0000001cH
	mov	ecx, DWORD PTR _value$[ebp]
	mov	edx, DWORD PTR [ecx]
	mov	DWORD PTR ?IO@@3VSIMLIB_IO_CLASS@@A[eax+8], edx

; 150  : 	}
; 151  : 	else	// This ones better imo, (C) H. Kern of the TU Vienna.. showed it to me in "Konstruktion systemfhiger Messgerte" ;)

	jmp	SHORT $LN1@ProcessJoy
$LN6@ProcessJoy:

; 152  : 	{
; 153  : 		if (IO.analog[axis].smoothingFactor)

	mov	eax, DWORD PTR _axis$[ebp]
	imul	eax, 28					; 0000001cH
	cmp	DWORD PTR ?IO@@3VSIMLIB_IO_CLASS@@A[eax+24], 0
	je	SHORT $LN2@ProcessJoy

; 154  : 		{
; 155  : 			IO.analog[axis].ioVal = IO.analog[axis].ioVal -
; 156  : 									IO.analog[axis].ioVal / IO.analog[axis].smoothingFactor +
; 157  : 									*value / IO.analog[axis].smoothingFactor;

	mov	ecx, DWORD PTR _axis$[ebp]
	imul	ecx, 28					; 0000001cH
	mov	edx, DWORD PTR _axis$[ebp]
	imul	edx, 28					; 0000001cH
	mov	esi, DWORD PTR _axis$[ebp]
	imul	esi, 28					; 0000001cH
	mov	eax, DWORD PTR ?IO@@3VSIMLIB_IO_CLASS@@A[edx+8]
	cdq
	idiv	DWORD PTR ?IO@@3VSIMLIB_IO_CLASS@@A[esi+24]
	mov	ecx, DWORD PTR ?IO@@3VSIMLIB_IO_CLASS@@A[ecx+8]
	sub	ecx, eax
	mov	esi, DWORD PTR _axis$[ebp]
	imul	esi, 28					; 0000001cH
	mov	edx, DWORD PTR _value$[ebp]
	mov	eax, DWORD PTR [edx]
	cdq
	idiv	DWORD PTR ?IO@@3VSIMLIB_IO_CLASS@@A[esi+24]
	add	ecx, eax
	mov	eax, DWORD PTR _axis$[ebp]
	imul	eax, 28					; 0000001cH
	mov	DWORD PTR ?IO@@3VSIMLIB_IO_CLASS@@A[eax+8], ecx

; 158  : 		}
; 159  : 		else

	jmp	SHORT $LN1@ProcessJoy
$LN2@ProcessJoy:

; 160  : 		{
; 161  : 			IO.analog[axis].ioVal = *value;

	mov	ecx, DWORD PTR _axis$[ebp]
	imul	ecx, 28					; 0000001cH
	mov	edx, DWORD PTR _value$[ebp]
	mov	eax, DWORD PTR [edx]
	mov	DWORD PTR ?IO@@3VSIMLIB_IO_CLASS@@A[ecx+8], eax
$LN1@ProcessJoy:

; 162  : 		}
; 163  : 	}
; 164  : }

	pop	edi
	pop	esi
	mov	esp, ebp
	pop	ebp
	ret	0
?ProcessJoystickInput@@YAXW4GameAxis_t@@PAJ@Z ENDP	; ProcessJoystickInput
_TEXT	ENDS
; Function compile flags: /Odtp
; File c:\users\zhitao li\documents\visual studio 2012\projects\freefalcon\sim\siminput\sijoy.cpp
_TEXT	SEGMENT
_i$ = -4						; size = 4
?resetStaticPOVButtonStates@@YAXXZ PROC			; resetStaticPOVButtonStates

; 113  : {

	push	ebp
	mov	ebp, esp
	push	ecx

; 114  : 	int i;
; 115  : 
; 116  : 	for (i = 0; i < SIMLIB_MAX_DIGITAL*SIM_NUMDEVICES; i++)

	mov	DWORD PTR _i$[ebp], 0
	jmp	SHORT $LN6@resetStati
$LN5@resetStati:
	mov	eax, DWORD PTR _i$[ebp]
	add	eax, 1
	mov	DWORD PTR _i$[ebp], eax
$LN6@resetStati:
	cmp	DWORD PTR _i$[ebp], 512			; 00000200H
	jge	SHORT $LN4@resetStati

; 117  : 	{
; 118  : 		LastPressed[i] = 0;

	mov	ecx, DWORD PTR _i$[ebp]
	mov	DWORD PTR _LastPressed[ecx*4], 0

; 119  : 	}

	jmp	SHORT $LN5@resetStati
$LN4@resetStati:

; 120  : 
; 121  : 	for (i = 0; i < SIMLIB_MAX_POV; i++)

	mov	DWORD PTR _i$[ebp], 0
	jmp	SHORT $LN3@resetStati
$LN2@resetStati:
	mov	edx, DWORD PTR _i$[ebp]
	add	edx, 1
	mov	DWORD PTR _i$[ebp], edx
$LN3@resetStati:
	cmp	DWORD PTR _i$[ebp], 4
	jge	SHORT $LN7@resetStati

; 122  : 	{
; 123  : 		LastPressedPOV[i] = 0;

	mov	eax, DWORD PTR _i$[ebp]
	mov	DWORD PTR _LastPressedPOV[eax*4], 0

; 124  : 		LastDirPOV[i] = 0;

	mov	ecx, DWORD PTR _i$[ebp]
	mov	DWORD PTR _LastDirPOV[ecx*4], 0

; 125  : 	}

	jmp	SHORT $LN2@resetStati
$LN7@resetStati:

; 126  : }

	mov	esp, ebp
	pop	ebp
	ret	0
?resetStaticPOVButtonStates@@YAXXZ ENDP			; resetStaticPOVButtonStates
_TEXT	ENDS
; Function compile flags: /Odtp
; File c:\users\zhitao li\documents\visual studio 2012\projects\freefalcon\sim\siminput\sijoy.cpp
_TEXT	SEGMENT
?SetThrottleInActive@@YAXXZ PROC			; SetThrottleInActive

; 101  : {

	push	ebp
	mov	ebp, esp

; 102  : 	if (IO.AnalogIsUsed(AXIS_THROTTLE) == false)

	push	3
	mov	ecx, OFFSET ?IO@@3VSIMLIB_IO_CLASS@@A	; IO
	call	?AnalogIsUsed@SIMLIB_IO_CLASS@@QAE_NW4GameAxis_t@@@Z ; SIMLIB_IO_CLASS::AnalogIsUsed
	movzx	eax, al
	test	eax, eax
	jne	SHORT $LN1@SetThrottl

; 103  : 		return;

	jmp	SHORT $LN2@SetThrottl
$LN1@SetThrottl:

; 104  : 
; 105  : 	ReadThrottle();

	call	?ReadThrottle@@YAMXZ			; ReadThrottle
	fstp	ST(0)

; 106  : 
; 107  : 	throttleInactiveValue = IO.GetAxisValue(AXIS_THROTTLE);

	push	3
	mov	ecx, OFFSET ?IO@@3VSIMLIB_IO_CLASS@@A	; IO
	call	?GetAxisValue@SIMLIB_IO_CLASS@@QAEHW4GameAxis_t@@@Z ; SIMLIB_IO_CLASS::GetAxisValue
	mov	DWORD PTR ?throttleInactiveValue@@3JA, eax ; throttleInactiveValue

; 108  : 	IO.analog[AXIS_THROTTLE].engrValue = 0.0F;

	mov	ecx, 28					; 0000001cH
	imul	ecx, 3
	movss	xmm0, DWORD PTR __real@00000000
	movss	DWORD PTR ?IO@@3VSIMLIB_IO_CLASS@@A[ecx+16], xmm0

; 109  : 	throttleInactive = true;

	mov	BYTE PTR ?throttleInactive@@3_NA, 1	; throttleInactive
$LN2@SetThrottl:

; 110  : }

	pop	ebp
	ret	0
?SetThrottleInActive@@YAXXZ ENDP			; SetThrottleInActive
_TEXT	ENDS
; Function compile flags: /Odtp
; File c:\users\zhitao li\documents\visual studio 2012\projects\freefalcon\sim\siminput\sijoy.cpp
_TEXT	SEGMENT
?SetJoystickCenter@@YAXXZ PROC				; SetJoystickCenter

; 86   : {

	push	ebp
	mov	ebp, esp

; 87   : 	center = TRUE;

	mov	DWORD PTR ?center@@3HA, 1		; center

; 88   : }

	pop	ebp
	ret	0
?SetJoystickCenter@@YAXXZ ENDP				; SetJoystickCenter
_TEXT	ENDS
; Function compile flags: /Odtp
; File c:\users\zhitao li\documents\visual studio 2012\projects\freefalcon\sim\include\trackir.h
;	COMDAT ?getRoll@TrackIR@@QAEMXZ
_TEXT	SEGMENT
_this$ = -4						; size = 4
?getRoll@TrackIR@@QAEMXZ PROC				; TrackIR::getRoll, COMDAT
; _this$ = ecx

; 25   : 	float getRoll() { return roll; }

	push	ebp
	mov	ebp, esp
	push	ecx
	mov	DWORD PTR _this$[ebp], ecx
	mov	eax, DWORD PTR _this$[ebp]
	fld	DWORD PTR [eax+28]
	mov	esp, ebp
	pop	ebp
	ret	0
?getRoll@TrackIR@@QAEMXZ ENDP				; TrackIR::getRoll
_TEXT	ENDS
; Function compile flags: /Odtp
; File c:\users\zhitao li\documents\visual studio 2012\projects\freefalcon\sim\include\trackir.h
;	COMDAT ?getPitch@TrackIR@@QAEMXZ
_TEXT	SEGMENT
_this$ = -4						; size = 4
?getPitch@TrackIR@@QAEMXZ PROC				; TrackIR::getPitch, COMDAT
; _this$ = ecx

; 24   : 	float getPitch() { return pitch; }

	push	ebp
	mov	ebp, esp
	push	ecx
	mov	DWORD PTR _this$[ebp], ecx
	mov	eax, DWORD PTR _this$[ebp]
	fld	DWORD PTR [eax+24]
	mov	esp, ebp
	pop	ebp
	ret	0
?getPitch@TrackIR@@QAEMXZ ENDP				; TrackIR::getPitch
_TEXT	ENDS
; Function compile flags: /Odtp
; File c:\users\zhitao li\documents\visual studio 2012\projects\freefalcon\sim\include\trackir.h
;	COMDAT ?getYaw@TrackIR@@QAEMXZ
_TEXT	SEGMENT
_this$ = -4						; size = 4
?getYaw@TrackIR@@QAEMXZ PROC				; TrackIR::getYaw, COMDAT
; _this$ = ecx

; 23   : 	float getYaw() { return yaw; }

	push	ebp
	mov	ebp, esp
	push	ecx
	mov	DWORD PTR _this$[ebp], ecx
	mov	eax, DWORD PTR _this$[ebp]
	fld	DWORD PTR [eax+20]
	mov	esp, ebp
	pop	ebp
	ret	0
?getYaw@TrackIR@@QAEMXZ ENDP				; TrackIR::getYaw
_TEXT	ENDS
; Function compile flags: /Odtp
; File c:\users\zhitao li\documents\visual studio 2012\projects\freefalcon\sim\siminput\sijoy.cpp
_TEXT	SEGMENT
_rampHolder$ = -704					; size = 8
_constantHolder$ = -696					; size = 4
$T1 = -692						; size = 4
$T2 = -688						; size = 4
$T3 = -684						; size = 4
$T4 = -680						; size = 4
$T5 = -676						; size = 4
$T6 = -672						; size = 4
$T7 = -668						; size = 4
$T8 = -664						; size = 4
$T9 = -660						; size = 4
$T10 = -656						; size = 4
$T11 = -652						; size = 4
$T12 = -648						; size = 4
$T13 = -644						; size = 4
$T14 = -640						; size = 4
$T15 = -636						; size = 4
tv461 = -632						; size = 4
_guidType$ = -628					; size = 4
_customHolder$ = -624					; size = 16
_effectType$ = -608					; size = 4
_effectHolder$ = -604					; size = 56
tv266 = -548						; size = 4
_fPtr$ = -544						; size = 4
tv313 = -540						; size = 4
_numEffects$ = -536					; size = 4
_axesArray$ = -532					; size = 4
_k$ = -528						; size = 4
_forceData$ = -524					; size = 4
_dirArray$ = -520					; size = 4
_SetupResult$ = -516					; size = 4
_joystickDevice$ = -512					; size = 4
_i$ = -508						; size = 4
_conditionHolder$ = -504				; size = 4
_j$ = -500						; size = 4
_periodicHolder$ = -496					; size = 16
_envelopeHolder$ = -480					; size = 20
_guidEffect$ = -460					; size = 16
_str2$ = -444						; size = 80
_str1$ = -364						; size = 80
_dataFileName$ = -284					; size = 260
_effectName$ = -24					; size = 20
__$ArrayPad$ = -4					; size = 4
___formal$ = 8						; size = 4
?JoystickCreateEffect@@YAHK@Z PROC			; JoystickCreateEffect

; 1341 : {

	push	ebp
	mov	ebp, esp
	sub	esp, 704				; 000002c0H
	mov	eax, DWORD PTR ___security_cookie
	xor	eax, ebp
	mov	DWORD PTR __$ArrayPad$[ebp], eax

; 1342 : 	FILE* fPtr=NULL;

	mov	DWORD PTR _fPtr$[ebp], 0

; 1343 : 	unsigned int effectType=0;

	mov	DWORD PTR _effectType$[ebp], 0

; 1344 : 	int numEffects=0;

	mov	DWORD PTR _numEffects$[ebp], 0

; 1345 : 	char effectName[20]={0};

	mov	BYTE PTR _effectName$[ebp], 0
	xor	eax, eax
	mov	DWORD PTR _effectName$[ebp+1], eax
	mov	DWORD PTR _effectName$[ebp+5], eax
	mov	DWORD PTR _effectName$[ebp+9], eax
	mov	DWORD PTR _effectName$[ebp+13], eax
	mov	WORD PTR _effectName$[ebp+17], ax
	mov	BYTE PTR _effectName$[ebp+19], al

; 1346 : 	int i=0;

	mov	DWORD PTR _i$[ebp], 0

; 1347 : 	unsigned int j=0, k=0;

	mov	DWORD PTR _j$[ebp], 0
	mov	DWORD PTR _k$[ebp], 0

; 1348 : 	DIEFFECT effectHolder;
; 1349 : 	DIENVELOPE envelopeHolder;
; 1350 : 	DICUSTOMFORCE customHolder;
; 1351 : 	DIPERIODIC periodicHolder;
; 1352 : 	DICONSTANTFORCE constantHolder;
; 1353 : 	DIRAMPFORCE rampHolder;
; 1354 : 	DICONDITION* conditionHolder = NULL;

	mov	DWORD PTR _conditionHolder$[ebp], 0

; 1355 : 	char str1[80]={0}, str2[80]={0};

	mov	BYTE PTR _str1$[ebp], 0
	push	79					; 0000004fH
	push	0
	lea	ecx, DWORD PTR _str1$[ebp+1]
	push	ecx
	call	_memset
	add	esp, 12					; 0000000cH
	mov	BYTE PTR _str2$[ebp], 0
	push	79					; 0000004fH
	push	0
	lea	edx, DWORD PTR _str2$[ebp+1]
	push	edx
	call	_memset
	add	esp, 12					; 0000000cH

; 1356 : 	DWORD* axesArray = NULL;

	mov	DWORD PTR _axesArray$[ebp], 0

; 1357 : 	long* dirArray = NULL;

	mov	DWORD PTR _dirArray$[ebp], 0

; 1358 : 	long* forceData = NULL;

	mov	DWORD PTR _forceData$[ebp], 0

; 1359 : 	char dataFileName[_MAX_PATH];
; 1360 : 	GUID guidEffect;
; 1361 : 	DWORD SetupResult=FALSE;

	mov	DWORD PTR _SetupResult$[ebp], 0

; 1362 : 
; 1363 : 	// Retro 27Dec2003
; 1364 : 	/* no point in inquiring force feedback caps of a not (yet) mapped device */
; 1365 : 	/* this propably means that  f4 has to be restarted after a controller change */
; 1366 : 	/* or I just run this stuff on assigning controllers (have to find out FF caps anyway */
; 1367 : 
; 1368 : 	if (AxisMap.FlightControlDevice < SIM_JOYSTICK1)

	cmp	DWORD PTR ?AxisMap@@3UAxisMapping@@A, 2
	jge	SHORT $LN57@JoystickCr

; 1369 : 		return FALSE;

	xor	eax, eax
	jmp	$LN58@JoystickCr
$LN57@JoystickCr:

; 1370 : 
; 1371 : 	LPDIRECTINPUTDEVICE2 joystickDevice = (LPDIRECTINPUTDEVICE2)gpDIDevice[AxisMap.FlightControlDevice];

	mov	eax, DWORD PTR ?AxisMap@@3UAxisMapping@@A
	mov	ecx, DWORD PTR ?gpDIDevice@@3PAPAUIDirectInputDevice8A@@A[eax*4]
	mov	DWORD PTR _joystickDevice$[ebp], ecx

; 1372 : 
; 1373 : 	int guidType=0;

	mov	DWORD PTR _guidType$[ebp], 0

; 1374 : 
; 1375 :    sprintf (dataFileName, "%s\\config\\feedback.ini", FalconDataDirectory);

	push	OFFSET ?FalconDataDirectory@@3PADA	; FalconDataDirectory
	push	OFFSET ??_C@_0BH@GDMPLPHO@?$CFs?2config?2feedback?4ini?$AA@
	lea	edx, DWORD PTR _dataFileName$[ebp]
	push	edx
	call	_sprintf
	add	esp, 12					; 0000000cH

; 1376 : 
; 1377 :    fPtr = fopen (dataFileName, "r");

	push	OFFSET ??_C@_01KDCPPGHE@r?$AA@
	lea	eax, DWORD PTR _dataFileName$[ebp]
	push	eax
	call	_fopen
	add	esp, 8
	mov	DWORD PTR _fPtr$[ebp], eax

; 1378 : 
; 1379 :    // Find the file
; 1380 :    if (!fPtr)

	cmp	DWORD PTR _fPtr$[ebp], 0
	jne	SHORT $LN56@JoystickCr

; 1381 :    {
; 1382 :       OutputDebugString ("Unable to open force feedback data file");

	push	OFFSET ??_C@_0CI@MJHEFLO@Unable?5to?5open?5force?5feedback?5da@
	call	DWORD PTR __imp__OutputDebugStringA@4

; 1383 :       return FALSE;

	xor	eax, eax
	jmp	$LN58@JoystickCr
$LN56@JoystickCr:

; 1384 :    }
; 1385 :    fclose (fPtr);

	mov	ecx, DWORD PTR _fPtr$[ebp]
	push	ecx
	call	_fclose
	add	esp, 4

; 1386 : 
; 1387 :     JoystickReleaseEffects();

	call	?JoystickReleaseEffects@@YAXXZ		; JoystickReleaseEffects

; 1388 : 
; 1389 :    // Start parsing
; 1390 :    numEffects = GetPrivateProfileInt("EffectData", "numEffects", 0, dataFileName);

	lea	edx, DWORD PTR _dataFileName$[ebp]
	push	edx
	push	0
	push	OFFSET ??_C@_0L@FDILMIHK@numEffects?$AA@
	push	OFFSET ??_C@_0L@HDPGDEFC@EffectData?$AA@
	call	DWORD PTR __imp__GetPrivateProfileIntA@16
	mov	DWORD PTR _numEffects$[ebp], eax

; 1391 :    gNumEffectsLoaded = numEffects;

	mov	eax, DWORD PTR _numEffects$[ebp]
	mov	DWORD PTR ?gNumEffectsLoaded@@3HA, eax	; gNumEffectsLoaded

; 1392 :    gForceFeedbackEffect = new LPDIRECTINPUTEFFECT[numEffects];

	xor	ecx, ecx
	mov	eax, DWORD PTR _numEffects$[ebp]
	mov	edx, 4
	mul	edx
	seto	cl
	neg	ecx
	or	ecx, eax
	push	ecx
	call	??_U@YAPAXI@Z				; operator new[]
	add	esp, 4
	mov	DWORD PTR $T9[ebp], eax
	mov	eax, DWORD PTR $T9[ebp]
	mov	DWORD PTR ?gForceFeedbackEffect@@3PAPAUIDirectInputEffect@@A, eax ; gForceFeedbackEffect

; 1393 :    gForceEffectIsRepeating = new int[numEffects];

	xor	ecx, ecx
	mov	eax, DWORD PTR _numEffects$[ebp]
	mov	edx, 4
	mul	edx
	seto	cl
	neg	ecx
	or	ecx, eax
	push	ecx
	call	??_U@YAPAXI@Z				; operator new[]
	add	esp, 4
	mov	DWORD PTR $T14[ebp], eax
	mov	eax, DWORD PTR $T14[ebp]
	mov	DWORD PTR ?gForceEffectIsRepeating@@3PAHA, eax ; gForceEffectIsRepeating

; 1394 :    gForceEffectHasDirection = new int[numEffects];

	xor	ecx, ecx
	mov	eax, DWORD PTR _numEffects$[ebp]
	mov	edx, 4
	mul	edx
	seto	cl
	neg	ecx
	or	ecx, eax
	push	ecx
	call	??_U@YAPAXI@Z				; operator new[]
	add	esp, 4
	mov	DWORD PTR $T13[ebp], eax
	mov	eax, DWORD PTR $T13[ebp]
	mov	DWORD PTR ?gForceEffectHasDirection@@3PAHA, eax ; gForceEffectHasDirection

; 1395 : 
; 1396 :    // Read each effect
; 1397 :    for (i=0; i<numEffects; i++)

	mov	DWORD PTR _i$[ebp], 0
	jmp	SHORT $LN55@JoystickCr
$LN54@JoystickCr:
	mov	ecx, DWORD PTR _i$[ebp]
	add	ecx, 1
	mov	DWORD PTR _i$[ebp], ecx
$LN55@JoystickCr:
	mov	edx, DWORD PTR _i$[ebp]
	cmp	edx, DWORD PTR _numEffects$[ebp]
	jge	$LN53@JoystickCr

; 1398 :    {
; 1399 :        ZeroMemory(&effectHolder, sizeof effectHolder);

	push	56					; 00000038H
	push	0
	lea	eax, DWORD PTR _effectHolder$[ebp]
	push	eax
	call	_memset
	add	esp, 12					; 0000000cH

; 1400 :        ZeroMemory(&envelopeHolder, sizeof envelopeHolder);

	push	20					; 00000014H
	push	0
	lea	ecx, DWORD PTR _envelopeHolder$[ebp]
	push	ecx
	call	_memset
	add	esp, 12					; 0000000cH

; 1401 :        effectHolder.dwSize = sizeof (DIEFFECT);

	mov	DWORD PTR _effectHolder$[ebp], 56	; 00000038H

; 1402 :        envelopeHolder.dwSize = sizeof (DIENVELOPE);

	mov	DWORD PTR _envelopeHolder$[ebp], 20	; 00000014H

; 1403 :       // Set the key
; 1404 :       sprintf (effectName, "Effect%d", i);

	mov	edx, DWORD PTR _i$[ebp]
	push	edx
	push	OFFSET ??_C@_08COPAPDON@Effect?$CFd?$AA@
	lea	eax, DWORD PTR _effectName$[ebp]
	push	eax
	call	_sprintf
	add	esp, 12					; 0000000cH

; 1405 :       gForceFeedbackEffect[i] = NULL;

	mov	ecx, DWORD PTR _i$[ebp]
	mov	edx, DWORD PTR ?gForceFeedbackEffect@@3PAPAUIDirectInputEffect@@A ; gForceFeedbackEffect
	mov	DWORD PTR [edx+ecx*4], 0

; 1406 :       gForceEffectIsRepeating[i] = FALSE;

	mov	eax, DWORD PTR _i$[ebp]
	mov	ecx, DWORD PTR ?gForceEffectIsRepeating@@3PAHA ; gForceEffectIsRepeating
	mov	DWORD PTR [ecx+eax*4], 0

; 1407 :       gForceEffectHasDirection[i] = FALSE;

	mov	edx, DWORD PTR _i$[ebp]
	mov	eax, DWORD PTR ?gForceEffectHasDirection@@3PAHA ; gForceEffectHasDirection
	mov	DWORD PTR [eax+edx*4], 0

; 1408 : 
; 1409 :       // Read all the common data for this effect
; 1410 :       effectHolder.dwFlags = GetPrivateProfileInt(effectName, "flags", 0, dataFileName);

	lea	ecx, DWORD PTR _dataFileName$[ebp]
	push	ecx
	push	0
	push	OFFSET ??_C@_05GECEPKB@flags?$AA@
	lea	edx, DWORD PTR _effectName$[ebp]
	push	edx
	call	DWORD PTR __imp__GetPrivateProfileIntA@16
	mov	DWORD PTR _effectHolder$[ebp+4], eax

; 1411 :       effectHolder.dwDuration = GetPrivateProfileInt(effectName, "duration", 0, dataFileName);

	lea	eax, DWORD PTR _dataFileName$[ebp]
	push	eax
	push	0
	push	OFFSET ??_C@_08LGBPINEC@duration?$AA@
	lea	ecx, DWORD PTR _effectName$[ebp]
	push	ecx
	call	DWORD PTR __imp__GetPrivateProfileIntA@16
	mov	DWORD PTR _effectHolder$[ebp+8], eax

; 1412 :       effectHolder.dwSamplePeriod = GetPrivateProfileInt(effectName, "SamplePeriod", 0, dataFileName);

	lea	edx, DWORD PTR _dataFileName$[ebp]
	push	edx
	push	0
	push	OFFSET ??_C@_0N@EEKDBOKL@SamplePeriod?$AA@
	lea	eax, DWORD PTR _effectName$[ebp]
	push	eax
	call	DWORD PTR __imp__GetPrivateProfileIntA@16
	mov	DWORD PTR _effectHolder$[ebp+12], eax

; 1413 :       effectHolder.dwGain = GetPrivateProfileInt(effectName, "gain", 0, dataFileName);

	lea	ecx, DWORD PTR _dataFileName$[ebp]
	push	ecx
	push	0
	push	OFFSET ??_C@_04CNCNIFFP@gain?$AA@
	lea	edx, DWORD PTR _effectName$[ebp]
	push	edx
	call	DWORD PTR __imp__GetPrivateProfileIntA@16
	mov	DWORD PTR _effectHolder$[ebp+16], eax

; 1414 :       effectHolder.dwTriggerButton = GetPrivateProfileInt(effectName, "triggerButton", 0, dataFileName);

	lea	eax, DWORD PTR _dataFileName$[ebp]
	push	eax
	push	0
	push	OFFSET ??_C@_0O@NIAAKIFG@triggerButton?$AA@
	lea	ecx, DWORD PTR _effectName$[ebp]
	push	ecx
	call	DWORD PTR __imp__GetPrivateProfileIntA@16
	mov	DWORD PTR _effectHolder$[ebp+20], eax

; 1415 :       effectHolder.dwTriggerRepeatInterval = GetPrivateProfileInt(effectName, "triggerRepeatInterval", 0, dataFileName);

	lea	edx, DWORD PTR _dataFileName$[ebp]
	push	edx
	push	0
	push	OFFSET ??_C@_0BG@PDPDKFIG@triggerRepeatInterval?$AA@
	lea	eax, DWORD PTR _effectName$[ebp]
	push	eax
	call	DWORD PTR __imp__GetPrivateProfileIntA@16
	mov	DWORD PTR _effectHolder$[ebp+24], eax

; 1416 :       effectHolder.cAxes = GetPrivateProfileInt(effectName, "numAxes", 0, dataFileName);

	lea	ecx, DWORD PTR _dataFileName$[ebp]
	push	ecx
	push	0
	push	OFFSET ??_C@_07NEJAKLGD@numAxes?$AA@
	lea	edx, DWORD PTR _effectName$[ebp]
	push	edx
	call	DWORD PTR __imp__GetPrivateProfileIntA@16
	mov	DWORD PTR _effectHolder$[ebp+28], eax

; 1417 :       gForceEffectHasDirection[i] = GetPrivateProfileInt(effectName, "hasDirection", 0, dataFileName);

	lea	eax, DWORD PTR _dataFileName$[ebp]
	push	eax
	push	0
	push	OFFSET ??_C@_0N@FMMPIIBH@hasDirection?$AA@
	lea	ecx, DWORD PTR _effectName$[ebp]
	push	ecx
	call	DWORD PTR __imp__GetPrivateProfileIntA@16
	mov	edx, DWORD PTR _i$[ebp]
	mov	ecx, DWORD PTR ?gForceEffectHasDirection@@3PAHA ; gForceEffectHasDirection
	mov	DWORD PTR [ecx+edx*4], eax

; 1418 : 
; 1419 :       if (axesArray)

	cmp	DWORD PTR _axesArray$[ebp], 0
	je	SHORT $LN52@JoystickCr

; 1420 :       {
; 1421 :          delete axesArray;

	mov	edx, DWORD PTR _axesArray$[ebp]
	mov	DWORD PTR $T11[ebp], edx
	mov	eax, DWORD PTR $T11[ebp]
	push	eax
	call	??3@YAXPAX@Z				; operator delete
	add	esp, 4

; 1422 :          axesArray = NULL;

	mov	DWORD PTR _axesArray$[ebp], 0
$LN52@JoystickCr:

; 1423 :       }
; 1424 : 
; 1425 :       if (dirArray)

	cmp	DWORD PTR _dirArray$[ebp], 0
	je	SHORT $LN51@JoystickCr

; 1426 :       {
; 1427 :          delete dirArray;

	mov	ecx, DWORD PTR _dirArray$[ebp]
	mov	DWORD PTR $T15[ebp], ecx
	mov	edx, DWORD PTR $T15[ebp]
	push	edx
	call	??3@YAXPAX@Z				; operator delete
	add	esp, 4

; 1428 :          dirArray = NULL;

	mov	DWORD PTR _dirArray$[ebp], 0
$LN51@JoystickCr:

; 1429 :       }
; 1430 : 
; 1431 :       if (effectHolder.cAxes)

	cmp	DWORD PTR _effectHolder$[ebp+28], 0
	je	$LN50@JoystickCr

; 1432 :       {
; 1433 :          axesArray = new DWORD [effectHolder.cAxes];

	xor	ecx, ecx
	mov	eax, DWORD PTR _effectHolder$[ebp+28]
	mov	edx, 4
	mul	edx
	seto	cl
	neg	ecx
	or	ecx, eax
	push	ecx
	call	??_U@YAPAXI@Z				; operator new[]
	add	esp, 4
	mov	DWORD PTR $T7[ebp], eax
	mov	eax, DWORD PTR $T7[ebp]
	mov	DWORD PTR _axesArray$[ebp], eax

; 1434 :          effectHolder.rgdwAxes = axesArray;

	mov	ecx, DWORD PTR _axesArray$[ebp]
	mov	DWORD PTR _effectHolder$[ebp+32], ecx

; 1435 : 
; 1436 :          dirArray = new long [effectHolder.cAxes];

	xor	ecx, ecx
	mov	eax, DWORD PTR _effectHolder$[ebp+28]
	mov	edx, 4
	mul	edx
	seto	cl
	neg	ecx
	or	ecx, eax
	push	ecx
	call	??_U@YAPAXI@Z				; operator new[]
	add	esp, 4
	mov	DWORD PTR $T5[ebp], eax
	mov	eax, DWORD PTR $T5[ebp]
	mov	DWORD PTR _dirArray$[ebp], eax

; 1437 :          effectHolder.rglDirection = dirArray;

	mov	ecx, DWORD PTR _dirArray$[ebp]
	mov	DWORD PTR _effectHolder$[ebp+36], ecx

; 1438 : 
; 1439 :          for (j=0; j<effectHolder.cAxes; j++)

	mov	DWORD PTR _j$[ebp], 0
	jmp	SHORT $LN49@JoystickCr
$LN48@JoystickCr:
	mov	edx, DWORD PTR _j$[ebp]
	add	edx, 1
	mov	DWORD PTR _j$[ebp], edx
$LN49@JoystickCr:
	mov	eax, DWORD PTR _j$[ebp]
	cmp	eax, DWORD PTR _effectHolder$[ebp+28]
	jae	$LN47@JoystickCr

; 1440 :          {
; 1441 :             sprintf (str1, "axes%d", j);

	mov	ecx, DWORD PTR _j$[ebp]
	push	ecx
	push	OFFSET ??_C@_06LPGMDFJL@axes?$CFd?$AA@
	lea	edx, DWORD PTR _str1$[ebp]
	push	edx
	call	_sprintf
	add	esp, 12					; 0000000cH

; 1442 :             sprintf (str2, "direction%d", j);

	mov	eax, DWORD PTR _j$[ebp]
	push	eax
	push	OFFSET ??_C@_0M@PGJLBAOC@direction?$CFd?$AA@
	lea	ecx, DWORD PTR _str2$[ebp]
	push	ecx
	call	_sprintf
	add	esp, 12					; 0000000cH

; 1443 :             k = GetPrivateProfileInt(effectName, str1, 0, dataFileName);

	lea	edx, DWORD PTR _dataFileName$[ebp]
	push	edx
	push	0
	lea	eax, DWORD PTR _str1$[ebp]
	push	eax
	lea	ecx, DWORD PTR _effectName$[ebp]
	push	ecx
	call	DWORD PTR __imp__GetPrivateProfileIntA@16
	mov	DWORD PTR _k$[ebp], eax

; 1444 :             switch (k)

	mov	edx, DWORD PTR _k$[ebp]
	mov	DWORD PTR tv266[ebp], edx
	cmp	DWORD PTR tv266[ebp], 6
	ja	$LN45@JoystickCr
	mov	eax, DWORD PTR tv266[ebp]
	jmp	DWORD PTR $LN60@JoystickCr[eax*4]
$LN44@JoystickCr:

; 1445 :             {
; 1446 :                case 0:
; 1447 :                   effectHolder.rgdwAxes[j] = DIJOFS_X;

	mov	ecx, DWORD PTR _j$[ebp]
	mov	edx, DWORD PTR _effectHolder$[ebp+32]
	mov	DWORD PTR [edx+ecx*4], 0

; 1448 :                break;

	jmp	SHORT $LN45@JoystickCr
$LN43@JoystickCr:

; 1449 : 
; 1450 :                case 1:
; 1451 :                   effectHolder.rgdwAxes[j] = DIJOFS_Y;

	mov	eax, DWORD PTR _j$[ebp]
	mov	ecx, DWORD PTR _effectHolder$[ebp+32]
	mov	DWORD PTR [ecx+eax*4], 4

; 1452 :                break;

	jmp	SHORT $LN45@JoystickCr
$LN42@JoystickCr:

; 1453 : 
; 1454 :                case 2:
; 1455 :                effectHolder.rgdwAxes[j] = g_nThrottleID;

	mov	edx, DWORD PTR _j$[ebp]
	mov	eax, DWORD PTR _effectHolder$[ebp+32]
	mov	ecx, DWORD PTR ?g_nThrottleID@@3HA	; g_nThrottleID
	mov	DWORD PTR [eax+edx*4], ecx

; 1456 :                break;

	jmp	SHORT $LN45@JoystickCr
$LN41@JoystickCr:

; 1457 : 
; 1458 :                case 4:
; 1459 :                   effectHolder.rgdwAxes[j] = DIJOFS_RX;

	mov	edx, DWORD PTR _j$[ebp]
	mov	eax, DWORD PTR _effectHolder$[ebp+32]
	mov	DWORD PTR [eax+edx*4], 12		; 0000000cH

; 1460 :                break;

	jmp	SHORT $LN45@JoystickCr
$LN40@JoystickCr:

; 1461 : 
; 1462 :                case 5:
; 1463 :                   effectHolder.rgdwAxes[j] = DIJOFS_RY;

	mov	ecx, DWORD PTR _j$[ebp]
	mov	edx, DWORD PTR _effectHolder$[ebp+32]
	mov	DWORD PTR [edx+ecx*4], 16		; 00000010H

; 1464 :                break;

	jmp	SHORT $LN45@JoystickCr
$LN39@JoystickCr:

; 1465 : 
; 1466 :                case 6:
; 1467 :                   effectHolder.rgdwAxes[j] = DIJOFS_RZ;

	mov	eax, DWORD PTR _j$[ebp]
	mov	ecx, DWORD PTR _effectHolder$[ebp+32]
	mov	DWORD PTR [ecx+eax*4], 20		; 00000014H
$LN45@JoystickCr:

; 1468 :                break;
; 1469 :             }
; 1470 : 
; 1471 :             effectHolder.rglDirection[j] = GetPrivateProfileInt(effectName, str2, 0, dataFileName);

	lea	edx, DWORD PTR _dataFileName$[ebp]
	push	edx
	push	0
	lea	eax, DWORD PTR _str2$[ebp]
	push	eax
	lea	ecx, DWORD PTR _effectName$[ebp]
	push	ecx
	call	DWORD PTR __imp__GetPrivateProfileIntA@16
	mov	edx, DWORD PTR _j$[ebp]
	mov	ecx, DWORD PTR _effectHolder$[ebp+36]
	mov	DWORD PTR [ecx+edx*4], eax

; 1472 :          }

	jmp	$LN48@JoystickCr
$LN47@JoystickCr:

; 1473 :       }
; 1474 :       else

	jmp	SHORT $LN38@JoystickCr
$LN50@JoystickCr:

; 1475 :       {
; 1476 :          effectHolder.rgdwAxes = NULL;

	mov	DWORD PTR _effectHolder$[ebp+32], 0

; 1477 :          effectHolder.rglDirection = NULL;

	mov	DWORD PTR _effectHolder$[ebp+36], 0
$LN38@JoystickCr:

; 1478 :       }
; 1479 : 
; 1480 :       // Check for envelope
; 1481 :       j = GetPrivateProfileInt(effectName, "envelopeAttackLevel", -1, dataFileName);

	lea	edx, DWORD PTR _dataFileName$[ebp]
	push	edx
	push	-1
	push	OFFSET ??_C@_0BE@FMHGGMAK@envelopeAttackLevel?$AA@
	lea	eax, DWORD PTR _effectName$[ebp]
	push	eax
	call	DWORD PTR __imp__GetPrivateProfileIntA@16
	mov	DWORD PTR _j$[ebp], eax

; 1482 :       if (j != 0xffffffff)

	cmp	DWORD PTR _j$[ebp], -1
	je	SHORT $LN37@JoystickCr

; 1483 :       {
; 1484 :          envelopeHolder.dwSize = sizeof (DIENVELOPE);

	mov	DWORD PTR _envelopeHolder$[ebp], 20	; 00000014H

; 1485 :          envelopeHolder.dwAttackLevel = j;

	mov	ecx, DWORD PTR _j$[ebp]
	mov	DWORD PTR _envelopeHolder$[ebp+4], ecx

; 1486 :          envelopeHolder.dwAttackTime = GetPrivateProfileInt(effectName, "envelopeAttackTime", 0, dataFileName);

	lea	edx, DWORD PTR _dataFileName$[ebp]
	push	edx
	push	0
	push	OFFSET ??_C@_0BD@ILDHAMKC@envelopeAttackTime?$AA@
	lea	eax, DWORD PTR _effectName$[ebp]
	push	eax
	call	DWORD PTR __imp__GetPrivateProfileIntA@16
	mov	DWORD PTR _envelopeHolder$[ebp+8], eax

; 1487 :          envelopeHolder.dwFadeLevel = GetPrivateProfileInt(effectName, "envelopeFadeLevel", 0, dataFileName);

	lea	ecx, DWORD PTR _dataFileName$[ebp]
	push	ecx
	push	0
	push	OFFSET ??_C@_0BC@GLODHCOA@envelopeFadeLevel?$AA@
	lea	edx, DWORD PTR _effectName$[ebp]
	push	edx
	call	DWORD PTR __imp__GetPrivateProfileIntA@16
	mov	DWORD PTR _envelopeHolder$[ebp+12], eax

; 1488 :          envelopeHolder.dwFadeTime = GetPrivateProfileInt(effectName, "envelopeFadeTime", 0, dataFileName);

	lea	eax, DWORD PTR _dataFileName$[ebp]
	push	eax
	push	0
	push	OFFSET ??_C@_0BB@MGBCBGEJ@envelopeFadeTime?$AA@
	lea	ecx, DWORD PTR _effectName$[ebp]
	push	ecx
	call	DWORD PTR __imp__GetPrivateProfileIntA@16
	mov	DWORD PTR _envelopeHolder$[ebp+16], eax

; 1489 :          effectHolder.lpEnvelope = &envelopeHolder;

	lea	edx, DWORD PTR _envelopeHolder$[ebp]
	mov	DWORD PTR _effectHolder$[ebp+40], edx

; 1490 :       }
; 1491 :       else

	jmp	SHORT $LN36@JoystickCr
$LN37@JoystickCr:

; 1492 :       {
; 1493 :          effectHolder.lpEnvelope = NULL;

	mov	DWORD PTR _effectHolder$[ebp+40], 0
$LN36@JoystickCr:

; 1494 :       }
; 1495 : 
; 1496 :       effectType = GetPrivateProfileInt(effectName, "effectType", 0, dataFileName);

	lea	eax, DWORD PTR _dataFileName$[ebp]
	push	eax
	push	0
	push	OFFSET ??_C@_0L@GDECDOKP@effectType?$AA@
	lea	ecx, DWORD PTR _effectName$[ebp]
	push	ecx
	call	DWORD PTR __imp__GetPrivateProfileIntA@16
	mov	DWORD PTR _effectType$[ebp], eax

; 1497 :       switch (effectType)

	mov	edx, DWORD PTR _effectType$[ebp]
	mov	DWORD PTR tv313[ebp], edx
	mov	eax, DWORD PTR tv313[ebp]
	sub	eax, 1
	mov	DWORD PTR tv313[ebp], eax
	cmp	DWORD PTR tv313[ebp], 4
	ja	$LN5@JoystickCr
	mov	ecx, DWORD PTR tv313[ebp]
	jmp	DWORD PTR $LN61@JoystickCr[ecx*4]
$LN33@JoystickCr:

; 1498 :       {
; 1499 :          case DIEFT_CUSTOMFORCE:
; 1500 :             customHolder.cChannels = GetPrivateProfileInt(effectName, "customForceChannels", 0, dataFileName);

	lea	edx, DWORD PTR _dataFileName$[ebp]
	push	edx
	push	0
	push	OFFSET ??_C@_0BE@DJHAGAHM@customForceChannels?$AA@
	lea	eax, DWORD PTR _effectName$[ebp]
	push	eax
	call	DWORD PTR __imp__GetPrivateProfileIntA@16
	mov	DWORD PTR _customHolder$[ebp], eax

; 1501 :             customHolder.dwSamplePeriod = GetPrivateProfileInt(effectName, "customForceSamplePeriod", 0, dataFileName);

	lea	ecx, DWORD PTR _dataFileName$[ebp]
	push	ecx
	push	0
	push	OFFSET ??_C@_0BI@BAELLFJD@customForceSamplePeriod?$AA@
	lea	edx, DWORD PTR _effectName$[ebp]
	push	edx
	call	DWORD PTR __imp__GetPrivateProfileIntA@16
	mov	DWORD PTR _customHolder$[ebp+4], eax

; 1502 :             customHolder.cSamples = GetPrivateProfileInt(effectName, "customForceSamples", 0, dataFileName);

	lea	eax, DWORD PTR _dataFileName$[ebp]
	push	eax
	push	0
	push	OFFSET ??_C@_0BD@JMLNMFBA@customForceSamples?$AA@
	lea	ecx, DWORD PTR _effectName$[ebp]
	push	ecx
	call	DWORD PTR __imp__GetPrivateProfileIntA@16
	mov	DWORD PTR _customHolder$[ebp+8], eax

; 1503 : 
; 1504 :             if (forceData)

	cmp	DWORD PTR _forceData$[ebp], 0
	je	SHORT $LN32@JoystickCr

; 1505 :             {
; 1506 :                delete forceData;

	mov	edx, DWORD PTR _forceData$[ebp]
	mov	DWORD PTR $T3[ebp], edx
	mov	eax, DWORD PTR $T3[ebp]
	push	eax
	call	??3@YAXPAX@Z				; operator delete
	add	esp, 4

; 1507 :                forceData = NULL;

	mov	DWORD PTR _forceData$[ebp], 0
$LN32@JoystickCr:

; 1508 :             }
; 1509 :             forceData = new long[customHolder.cChannels * customHolder.cSamples];

	mov	eax, DWORD PTR _customHolder$[ebp]
	imul	eax, DWORD PTR _customHolder$[ebp+8]
	xor	ecx, ecx
	mov	edx, 4
	mul	edx
	seto	cl
	neg	ecx
	or	ecx, eax
	push	ecx
	call	??_U@YAPAXI@Z				; operator new[]
	add	esp, 4
	mov	DWORD PTR $T1[ebp], eax
	mov	eax, DWORD PTR $T1[ebp]
	mov	DWORD PTR _forceData$[ebp], eax

; 1510 :             customHolder.rglForceData = forceData;

	mov	ecx, DWORD PTR _forceData$[ebp]
	mov	DWORD PTR _customHolder$[ebp+12], ecx

; 1511 : 
; 1512 :             for (j=0; j<customHolder.cChannels; j++)

	mov	DWORD PTR _j$[ebp], 0
	jmp	SHORT $LN31@JoystickCr
$LN30@JoystickCr:
	mov	edx, DWORD PTR _j$[ebp]
	add	edx, 1
	mov	DWORD PTR _j$[ebp], edx
$LN31@JoystickCr:
	mov	eax, DWORD PTR _j$[ebp]
	cmp	eax, DWORD PTR _customHolder$[ebp]
	jae	$LN29@JoystickCr

; 1513 :             {
; 1514 :                for (k=0; k<customHolder.cSamples; k++)

	mov	DWORD PTR _k$[ebp], 0
	jmp	SHORT $LN28@JoystickCr
$LN27@JoystickCr:
	mov	ecx, DWORD PTR _k$[ebp]
	add	ecx, 1
	mov	DWORD PTR _k$[ebp], ecx
$LN28@JoystickCr:
	mov	edx, DWORD PTR _k$[ebp]
	cmp	edx, DWORD PTR _customHolder$[ebp+8]
	jae	SHORT $LN26@JoystickCr

; 1515 :                {
; 1516 :                   sprintf (str1, "customForceForceChannel%dSample%d", j, k);

	mov	eax, DWORD PTR _k$[ebp]
	push	eax
	mov	ecx, DWORD PTR _j$[ebp]
	push	ecx
	push	OFFSET ??_C@_0CC@KKDEOJG@customForceForceChannel?$CFdSample?$CF@
	lea	edx, DWORD PTR _str1$[ebp]
	push	edx
	call	_sprintf
	add	esp, 16					; 00000010H

; 1517 :                   customHolder.rglForceData[j*k + j] = GetPrivateProfileInt(effectName, str1, 0, dataFileName);

	lea	eax, DWORD PTR _dataFileName$[ebp]
	push	eax
	push	0
	lea	ecx, DWORD PTR _str1$[ebp]
	push	ecx
	lea	edx, DWORD PTR _effectName$[ebp]
	push	edx
	call	DWORD PTR __imp__GetPrivateProfileIntA@16
	mov	ecx, DWORD PTR _j$[ebp]
	imul	ecx, DWORD PTR _k$[ebp]
	add	ecx, DWORD PTR _j$[ebp]
	mov	edx, DWORD PTR _customHolder$[ebp+12]
	mov	DWORD PTR [edx+ecx*4], eax

; 1518 :                }

	jmp	SHORT $LN27@JoystickCr
$LN26@JoystickCr:

; 1519 :             }

	jmp	$LN30@JoystickCr
$LN29@JoystickCr:

; 1520 : 
; 1521 :             // Add the sizes
; 1522 :             effectHolder.cbTypeSpecificParams = 3 * sizeof (DWORD) + sizeof (long) * customHolder.cChannels * customHolder.cSamples;

	mov	eax, DWORD PTR _customHolder$[ebp]
	shl	eax, 2
	imul	eax, DWORD PTR _customHolder$[ebp+8]
	add	eax, 12					; 0000000cH
	mov	DWORD PTR _effectHolder$[ebp+44], eax

; 1523 :             effectHolder.lpvTypeSpecificParams = &customHolder;

	lea	ecx, DWORD PTR _customHolder$[ebp]
	mov	DWORD PTR _effectHolder$[ebp+48], ecx

; 1524 : 
; 1525 :             // enumerate for a custom force effect
; 1526 :             SetupResult = VerifyResult (joystickDevice->EnumEffects((LPDIENUMEFFECTSCALLBACK)JoystickEnumEffectTypeProc,
; 1527 :                &guidEffect, DIEFT_CUSTOMFORCE));

	push	5
	lea	edx, DWORD PTR _guidEffect$[ebp]
	push	edx
	push	OFFSET ?JoystickEnumEffectTypeProc@@YGHPBUDIEFFECTINFOA@@PAX@Z ; JoystickEnumEffectTypeProc
	mov	eax, DWORD PTR _joystickDevice$[ebp]
	mov	ecx, DWORD PTR [eax]
	mov	edx, DWORD PTR _joystickDevice$[ebp]
	push	edx
	mov	eax, DWORD PTR [ecx+76]
	call	eax
	push	eax
	call	?VerifyResult@@YAHJ@Z			; VerifyResult
	add	esp, 4
	mov	DWORD PTR _SetupResult$[ebp], eax

; 1528 : 
; 1529 :             guidEffect = GUID_Square;

	mov	ecx, DWORD PTR _GUID_Square
	mov	DWORD PTR _guidEffect$[ebp], ecx
	mov	edx, DWORD PTR _GUID_Square+4
	mov	DWORD PTR _guidEffect$[ebp+4], edx
	mov	eax, DWORD PTR _GUID_Square+8
	mov	DWORD PTR _guidEffect$[ebp+8], eax
	mov	ecx, DWORD PTR _GUID_Square+12
	mov	DWORD PTR _guidEffect$[ebp+12], ecx

; 1530 :             if (!SetupResult)

	cmp	DWORD PTR _SetupResult$[ebp], 0
	jne	SHORT $LN25@JoystickCr

; 1531 :             {
; 1532 :                OutputDebugString("EnumEffects(Costum Force) failed\n");

	push	OFFSET ??_C@_0CC@CJKFBHN@EnumEffects?$CICostum?5Force?$CJ?5failed@
	call	DWORD PTR __imp__OutputDebugStringA@4

; 1533 :                continue;

	jmp	$LN54@JoystickCr
$LN25@JoystickCr:

; 1534 :             }
; 1535 :          break;

	jmp	$LN34@JoystickCr
$LN24@JoystickCr:

; 1536 : 
; 1537 :          case DIEFT_PERIODIC:
; 1538 :             periodicHolder.dwMagnitude = GetPrivateProfileInt(effectName, "periodicForceMagnitude", 0, dataFileName);

	lea	edx, DWORD PTR _dataFileName$[ebp]
	push	edx
	push	0
	push	OFFSET ??_C@_0BH@MAAJHLBF@periodicForceMagnitude?$AA@
	lea	eax, DWORD PTR _effectName$[ebp]
	push	eax
	call	DWORD PTR __imp__GetPrivateProfileIntA@16
	mov	DWORD PTR _periodicHolder$[ebp], eax

; 1539 :             periodicHolder.lOffset = GetPrivateProfileInt(effectName, "periodicForceOffset", 0, dataFileName);

	lea	ecx, DWORD PTR _dataFileName$[ebp]
	push	ecx
	push	0
	push	OFFSET ??_C@_0BE@EPCIOPJE@periodicForceOffset?$AA@
	lea	edx, DWORD PTR _effectName$[ebp]
	push	edx
	call	DWORD PTR __imp__GetPrivateProfileIntA@16
	mov	DWORD PTR _periodicHolder$[ebp+4], eax

; 1540 :             periodicHolder.dwPhase = GetPrivateProfileInt(effectName, "periodicForcePhase", 0, dataFileName);

	lea	eax, DWORD PTR _dataFileName$[ebp]
	push	eax
	push	0
	push	OFFSET ??_C@_0BD@HABCEFBA@periodicForcePhase?$AA@
	lea	ecx, DWORD PTR _effectName$[ebp]
	push	ecx
	call	DWORD PTR __imp__GetPrivateProfileIntA@16
	mov	DWORD PTR _periodicHolder$[ebp+8], eax

; 1541 :             periodicHolder.dwPeriod = GetPrivateProfileInt(effectName, "periodicForcePeriod", 0, dataFileName);

	lea	edx, DWORD PTR _dataFileName$[ebp]
	push	edx
	push	0
	push	OFFSET ??_C@_0BE@LFLLGACD@periodicForcePeriod?$AA@
	lea	eax, DWORD PTR _effectName$[ebp]
	push	eax
	call	DWORD PTR __imp__GetPrivateProfileIntA@16
	mov	DWORD PTR _periodicHolder$[ebp+12], eax

; 1542 :             gForceEffectIsRepeating[i] = TRUE;

	mov	ecx, DWORD PTR _i$[ebp]
	mov	edx, DWORD PTR ?gForceEffectIsRepeating@@3PAHA ; gForceEffectIsRepeating
	mov	DWORD PTR [edx+ecx*4], 1

; 1543 : 
; 1544 :             // Add the sizes
; 1545 :             effectHolder.cbTypeSpecificParams = 3 * sizeof (DWORD) + sizeof (long);

	mov	DWORD PTR _effectHolder$[ebp+44], 16	; 00000010H

; 1546 :             effectHolder.lpvTypeSpecificParams = &periodicHolder;

	lea	eax, DWORD PTR _periodicHolder$[ebp]
	mov	DWORD PTR _effectHolder$[ebp+48], eax

; 1547 : 
; 1548 :             // enumerate for a periodic force effect
; 1549 : 
; 1550 :             // enumerate for a periodic force effect
; 1551 :             guidType = GetPrivateProfileInt(effectName, "periodicType", -1, dataFileName);

	lea	ecx, DWORD PTR _dataFileName$[ebp]
	push	ecx
	push	-1
	push	OFFSET ??_C@_0N@KBNIPPDA@periodicType?$AA@
	lea	edx, DWORD PTR _effectName$[ebp]
	push	edx
	call	DWORD PTR __imp__GetPrivateProfileIntA@16
	mov	DWORD PTR _guidType$[ebp], eax

; 1552 :             switch (guidType)

	mov	eax, DWORD PTR _guidType$[ebp]
	mov	DWORD PTR tv461[ebp], eax
	cmp	DWORD PTR tv461[ebp], 4
	ja	$LN16@JoystickCr
	mov	ecx, DWORD PTR tv461[ebp]
	jmp	DWORD PTR $LN62@JoystickCr[ecx*4]
$LN21@JoystickCr:

; 1553 :             {
; 1554 :                case 0:
; 1555 :                   guidEffect = GUID_Sine;

	mov	edx, DWORD PTR _GUID_Sine
	mov	DWORD PTR _guidEffect$[ebp], edx
	mov	eax, DWORD PTR _GUID_Sine+4
	mov	DWORD PTR _guidEffect$[ebp+4], eax
	mov	ecx, DWORD PTR _GUID_Sine+8
	mov	DWORD PTR _guidEffect$[ebp+8], ecx
	mov	edx, DWORD PTR _GUID_Sine+12
	mov	DWORD PTR _guidEffect$[ebp+12], edx

; 1556 :                break;

	jmp	$LN22@JoystickCr
$LN20@JoystickCr:

; 1557 : 
; 1558 :                case 1:
; 1559 :                   guidEffect = GUID_Square;

	mov	eax, DWORD PTR _GUID_Square
	mov	DWORD PTR _guidEffect$[ebp], eax
	mov	ecx, DWORD PTR _GUID_Square+4
	mov	DWORD PTR _guidEffect$[ebp+4], ecx
	mov	edx, DWORD PTR _GUID_Square+8
	mov	DWORD PTR _guidEffect$[ebp+8], edx
	mov	eax, DWORD PTR _GUID_Square+12
	mov	DWORD PTR _guidEffect$[ebp+12], eax

; 1560 :                break;

	jmp	$LN22@JoystickCr
$LN19@JoystickCr:

; 1561 : 
; 1562 :                case 2:
; 1563 :                   guidEffect = GUID_Triangle;

	mov	ecx, DWORD PTR _GUID_Triangle
	mov	DWORD PTR _guidEffect$[ebp], ecx
	mov	edx, DWORD PTR _GUID_Triangle+4
	mov	DWORD PTR _guidEffect$[ebp+4], edx
	mov	eax, DWORD PTR _GUID_Triangle+8
	mov	DWORD PTR _guidEffect$[ebp+8], eax
	mov	ecx, DWORD PTR _GUID_Triangle+12
	mov	DWORD PTR _guidEffect$[ebp+12], ecx

; 1564 :                break;

	jmp	$LN22@JoystickCr
$LN18@JoystickCr:

; 1565 : 
; 1566 :                case 3:
; 1567 :                   guidEffect = GUID_SawtoothUp;

	mov	edx, DWORD PTR _GUID_SawtoothUp
	mov	DWORD PTR _guidEffect$[ebp], edx
	mov	eax, DWORD PTR _GUID_SawtoothUp+4
	mov	DWORD PTR _guidEffect$[ebp+4], eax
	mov	ecx, DWORD PTR _GUID_SawtoothUp+8
	mov	DWORD PTR _guidEffect$[ebp+8], ecx
	mov	edx, DWORD PTR _GUID_SawtoothUp+12
	mov	DWORD PTR _guidEffect$[ebp+12], edx

; 1568 :                break;

	jmp	SHORT $LN22@JoystickCr
$LN17@JoystickCr:

; 1569 : 
; 1570 :                case 4:
; 1571 :                   guidEffect = GUID_SawtoothDown;

	mov	eax, DWORD PTR _GUID_SawtoothDown
	mov	DWORD PTR _guidEffect$[ebp], eax
	mov	ecx, DWORD PTR _GUID_SawtoothDown+4
	mov	DWORD PTR _guidEffect$[ebp+4], ecx
	mov	edx, DWORD PTR _GUID_SawtoothDown+8
	mov	DWORD PTR _guidEffect$[ebp+8], edx
	mov	eax, DWORD PTR _GUID_SawtoothDown+12
	mov	DWORD PTR _guidEffect$[ebp+12], eax

; 1572 :                break;

	jmp	SHORT $LN22@JoystickCr
$LN16@JoystickCr:

; 1573 : 
; 1574 :                default:
; 1575 :                   SetupResult = VerifyResult (joystickDevice->EnumEffects((LPDIENUMEFFECTSCALLBACK)JoystickEnumEffectTypeProc,
; 1576 :                      &guidEffect, DIEFT_PERIODIC));

	push	3
	lea	ecx, DWORD PTR _guidEffect$[ebp]
	push	ecx
	push	OFFSET ?JoystickEnumEffectTypeProc@@YGHPBUDIEFFECTINFOA@@PAX@Z ; JoystickEnumEffectTypeProc
	mov	edx, DWORD PTR _joystickDevice$[ebp]
	mov	eax, DWORD PTR [edx]
	mov	ecx, DWORD PTR _joystickDevice$[ebp]
	push	ecx
	mov	edx, DWORD PTR [eax+76]
	call	edx
	push	eax
	call	?VerifyResult@@YAHJ@Z			; VerifyResult
	add	esp, 4
	mov	DWORD PTR _SetupResult$[ebp], eax
$LN22@JoystickCr:

; 1577 :                break;
; 1578 :             }
; 1579 : 
; 1580 :             if (!SetupResult)

	cmp	DWORD PTR _SetupResult$[ebp], 0
	jne	SHORT $LN15@JoystickCr

; 1581 :             {
; 1582 :                OutputDebugString("EnumEffects(Periodic Force) failed\n");

	push	OFFSET ??_C@_0CE@LOEFKLKG@EnumEffects?$CIPeriodic?5Force?$CJ?5fail@
	call	DWORD PTR __imp__OutputDebugStringA@4

; 1583 :                continue;

	jmp	$LN54@JoystickCr
$LN15@JoystickCr:

; 1584 :             }
; 1585 :          break;

	jmp	$LN34@JoystickCr
$LN14@JoystickCr:

; 1586 : 
; 1587 :          case DIEFT_CONSTANTFORCE:
; 1588 :             constantHolder.lMagnitude = GetPrivateProfileInt(effectName, "constantForceMagnitude", 0, dataFileName);

	lea	eax, DWORD PTR _dataFileName$[ebp]
	push	eax
	push	0
	push	OFFSET ??_C@_0BH@INLCEELP@constantForceMagnitude?$AA@
	lea	ecx, DWORD PTR _effectName$[ebp]
	push	ecx
	call	DWORD PTR __imp__GetPrivateProfileIntA@16
	mov	DWORD PTR _constantHolder$[ebp], eax

; 1589 : 
; 1590 :             // Add the sizes
; 1591 :             effectHolder.cbTypeSpecificParams = sizeof (long);

	mov	DWORD PTR _effectHolder$[ebp+44], 4

; 1592 :             effectHolder.lpvTypeSpecificParams = &constantHolder;

	lea	edx, DWORD PTR _constantHolder$[ebp]
	mov	DWORD PTR _effectHolder$[ebp+48], edx

; 1593 : 
; 1594 :             // enumerate for a constant force effect
; 1595 :             SetupResult = VerifyResult (joystickDevice->EnumEffects((LPDIENUMEFFECTSCALLBACK)JoystickEnumEffectTypeProc,
; 1596 :                &guidEffect, DIEFT_CONSTANTFORCE));

	push	1
	lea	eax, DWORD PTR _guidEffect$[ebp]
	push	eax
	push	OFFSET ?JoystickEnumEffectTypeProc@@YGHPBUDIEFFECTINFOA@@PAX@Z ; JoystickEnumEffectTypeProc
	mov	ecx, DWORD PTR _joystickDevice$[ebp]
	mov	edx, DWORD PTR [ecx]
	mov	eax, DWORD PTR _joystickDevice$[ebp]
	push	eax
	mov	ecx, DWORD PTR [edx+76]
	call	ecx
	push	eax
	call	?VerifyResult@@YAHJ@Z			; VerifyResult
	add	esp, 4
	mov	DWORD PTR _SetupResult$[ebp], eax

; 1597 : 
; 1598 :             if (!SetupResult)

	cmp	DWORD PTR _SetupResult$[ebp], 0
	jne	SHORT $LN13@JoystickCr

; 1599 :             {
; 1600 :                OutputDebugString("EnumEffects(Constant Force) failed\n");

	push	OFFSET ??_C@_0CE@IIALFKGP@EnumEffects?$CIConstant?5Force?$CJ?5fail@
	call	DWORD PTR __imp__OutputDebugStringA@4

; 1601 :                continue;

	jmp	$LN54@JoystickCr
$LN13@JoystickCr:

; 1602 :             }
; 1603 :          break;

	jmp	$LN34@JoystickCr
$LN12@JoystickCr:

; 1604 : 
; 1605 :          case DIEFT_RAMPFORCE:
; 1606 :             rampHolder.lStart = GetPrivateProfileInt(effectName, "rampForceStart", 0, dataFileName);

	lea	edx, DWORD PTR _dataFileName$[ebp]
	push	edx
	push	0
	push	OFFSET ??_C@_0P@KEOLMNEK@rampForceStart?$AA@
	lea	eax, DWORD PTR _effectName$[ebp]
	push	eax
	call	DWORD PTR __imp__GetPrivateProfileIntA@16
	mov	DWORD PTR _rampHolder$[ebp], eax

; 1607 :             rampHolder.lEnd = GetPrivateProfileInt(effectName, "rampForceEnd", 0, dataFileName);

	lea	ecx, DWORD PTR _dataFileName$[ebp]
	push	ecx
	push	0
	push	OFFSET ??_C@_0N@BLMJGCKF@rampForceEnd?$AA@
	lea	edx, DWORD PTR _effectName$[ebp]
	push	edx
	call	DWORD PTR __imp__GetPrivateProfileIntA@16
	mov	DWORD PTR _rampHolder$[ebp+4], eax

; 1608 : 
; 1609 :             // Add the sizes
; 1610 :             effectHolder.cbTypeSpecificParams = 2 * sizeof (long);

	mov	DWORD PTR _effectHolder$[ebp+44], 8

; 1611 :             effectHolder.lpvTypeSpecificParams = &rampHolder;

	lea	eax, DWORD PTR _rampHolder$[ebp]
	mov	DWORD PTR _effectHolder$[ebp+48], eax

; 1612 : 
; 1613 :             // enumerate for a ramp force effect
; 1614 :             SetupResult = VerifyResult (joystickDevice->EnumEffects((LPDIENUMEFFECTSCALLBACK)JoystickEnumEffectTypeProc,
; 1615 :                &guidEffect, DIEFT_RAMPFORCE));

	push	2
	lea	ecx, DWORD PTR _guidEffect$[ebp]
	push	ecx
	push	OFFSET ?JoystickEnumEffectTypeProc@@YGHPBUDIEFFECTINFOA@@PAX@Z ; JoystickEnumEffectTypeProc
	mov	edx, DWORD PTR _joystickDevice$[ebp]
	mov	eax, DWORD PTR [edx]
	mov	ecx, DWORD PTR _joystickDevice$[ebp]
	push	ecx
	mov	edx, DWORD PTR [eax+76]
	call	edx
	push	eax
	call	?VerifyResult@@YAHJ@Z			; VerifyResult
	add	esp, 4
	mov	DWORD PTR _SetupResult$[ebp], eax

; 1616 : 
; 1617 :             if (!SetupResult)

	cmp	DWORD PTR _SetupResult$[ebp], 0
	jne	SHORT $LN11@JoystickCr

; 1618 :             {
; 1619 :                OutputDebugString("EnumEffects(Ramp Force) failed\n");

	push	OFFSET ??_C@_0CA@KJIEJBLA@EnumEffects?$CIRamp?5Force?$CJ?5failed?6?$AA@
	call	DWORD PTR __imp__OutputDebugStringA@4

; 1620 :                continue;

	jmp	$LN54@JoystickCr
$LN11@JoystickCr:

; 1621 :             }
; 1622 :          break;

	jmp	$LN34@JoystickCr
$LN10@JoystickCr:

; 1623 : 
; 1624 :          case DIEFT_CONDITION:
; 1625 :             if (conditionHolder)

	cmp	DWORD PTR _conditionHolder$[ebp], 0
	je	SHORT $LN9@JoystickCr

; 1626 :             {
; 1627 :                delete conditionHolder;

	mov	eax, DWORD PTR _conditionHolder$[ebp]
	mov	DWORD PTR $T6[ebp], eax
	mov	ecx, DWORD PTR $T6[ebp]
	push	ecx
	call	??3@YAXPAX@Z				; operator delete
	add	esp, 4

; 1628 :                conditionHolder = NULL;

	mov	DWORD PTR _conditionHolder$[ebp], 0
$LN9@JoystickCr:

; 1629 :             }
; 1630 : 
; 1631 :             conditionHolder = new DICONDITION[effectHolder.cAxes];

	xor	ecx, ecx
	mov	eax, DWORD PTR _effectHolder$[ebp+28]
	mov	edx, 24					; 00000018H
	mul	edx
	seto	cl
	neg	ecx
	or	ecx, eax
	push	ecx
	call	??_U@YAPAXI@Z				; operator new[]
	add	esp, 4
	mov	DWORD PTR $T12[ebp], eax
	mov	eax, DWORD PTR $T12[ebp]
	mov	DWORD PTR _conditionHolder$[ebp], eax

; 1632 :             for (j=0; j<effectHolder.cAxes; j++)

	mov	DWORD PTR _j$[ebp], 0
	jmp	SHORT $LN8@JoystickCr
$LN7@JoystickCr:
	mov	ecx, DWORD PTR _j$[ebp]
	add	ecx, 1
	mov	DWORD PTR _j$[ebp], ecx
$LN8@JoystickCr:
	mov	edx, DWORD PTR _j$[ebp]
	cmp	edx, DWORD PTR _effectHolder$[ebp+28]
	jae	$LN6@JoystickCr

; 1633 :             {
; 1634 :                conditionHolder[j].lOffset = GetPrivateProfileInt(effectName, "conditionOffset", 0, dataFileName);

	lea	eax, DWORD PTR _dataFileName$[ebp]
	push	eax
	push	0
	push	OFFSET ??_C@_0BA@KGHBEBP@conditionOffset?$AA@
	lea	ecx, DWORD PTR _effectName$[ebp]
	push	ecx
	call	DWORD PTR __imp__GetPrivateProfileIntA@16
	mov	edx, DWORD PTR _j$[ebp]
	imul	edx, 24					; 00000018H
	mov	ecx, DWORD PTR _conditionHolder$[ebp]
	mov	DWORD PTR [ecx+edx], eax

; 1635 :                conditionHolder[j].lPositiveCoefficient = GetPrivateProfileInt(effectName, "conditionPositiveCoefficient", 0, dataFileName);

	lea	edx, DWORD PTR _dataFileName$[ebp]
	push	edx
	push	0
	push	OFFSET ??_C@_0BN@CFKEPNCB@conditionPositiveCoefficient?$AA@
	lea	eax, DWORD PTR _effectName$[ebp]
	push	eax
	call	DWORD PTR __imp__GetPrivateProfileIntA@16
	mov	ecx, DWORD PTR _j$[ebp]
	imul	ecx, 24					; 00000018H
	mov	edx, DWORD PTR _conditionHolder$[ebp]
	mov	DWORD PTR [edx+ecx+4], eax

; 1636 :                conditionHolder[j].lNegativeCoefficient = GetPrivateProfileInt(effectName, "conditionNegativeCoefficient", 0, dataFileName);

	lea	eax, DWORD PTR _dataFileName$[ebp]
	push	eax
	push	0
	push	OFFSET ??_C@_0BN@GCJEMCJH@conditionNegativeCoefficient?$AA@
	lea	ecx, DWORD PTR _effectName$[ebp]
	push	ecx
	call	DWORD PTR __imp__GetPrivateProfileIntA@16
	mov	edx, DWORD PTR _j$[ebp]
	imul	edx, 24					; 00000018H
	mov	ecx, DWORD PTR _conditionHolder$[ebp]
	mov	DWORD PTR [ecx+edx+8], eax

; 1637 :                conditionHolder[j].dwPositiveSaturation = GetPrivateProfileInt(effectName, "conditionPositiveSaturation", 0, dataFileName);

	lea	edx, DWORD PTR _dataFileName$[ebp]
	push	edx
	push	0
	push	OFFSET ??_C@_0BM@MFGCFEOB@conditionPositiveSaturation?$AA@
	lea	eax, DWORD PTR _effectName$[ebp]
	push	eax
	call	DWORD PTR __imp__GetPrivateProfileIntA@16
	mov	ecx, DWORD PTR _j$[ebp]
	imul	ecx, 24					; 00000018H
	mov	edx, DWORD PTR _conditionHolder$[ebp]
	mov	DWORD PTR [edx+ecx+12], eax

; 1638 :                conditionHolder[j].dwNegativeSaturation = GetPrivateProfileInt(effectName, "conditionNegativeSaturation", 0, dataFileName);

	lea	eax, DWORD PTR _dataFileName$[ebp]
	push	eax
	push	0
	push	OFFSET ??_C@_0BM@EHJCJNAP@conditionNegativeSaturation?$AA@
	lea	ecx, DWORD PTR _effectName$[ebp]
	push	ecx
	call	DWORD PTR __imp__GetPrivateProfileIntA@16
	mov	edx, DWORD PTR _j$[ebp]
	imul	edx, 24					; 00000018H
	mov	ecx, DWORD PTR _conditionHolder$[ebp]
	mov	DWORD PTR [ecx+edx+16], eax

; 1639 :                conditionHolder[j].lDeadBand = GetPrivateProfileInt(effectName, "conditionDeadband", 0, dataFileName);

	lea	edx, DWORD PTR _dataFileName$[ebp]
	push	edx
	push	0
	push	OFFSET ??_C@_0BC@JGBBHGCD@conditionDeadband?$AA@
	lea	eax, DWORD PTR _effectName$[ebp]
	push	eax
	call	DWORD PTR __imp__GetPrivateProfileIntA@16
	mov	ecx, DWORD PTR _j$[ebp]
	imul	ecx, 24					; 00000018H
	mov	edx, DWORD PTR _conditionHolder$[ebp]
	mov	DWORD PTR [edx+ecx+20], eax

; 1640 :             }

	jmp	$LN7@JoystickCr
$LN6@JoystickCr:

; 1641 : 
; 1642 :             // Add the size
; 1643 :             effectHolder.cbTypeSpecificParams = sizeof (DICONDITION) * effectHolder.cAxes;

	mov	eax, DWORD PTR _effectHolder$[ebp+28]
	imul	eax, 24					; 00000018H
	mov	DWORD PTR _effectHolder$[ebp+44], eax

; 1644 :             effectHolder.lpvTypeSpecificParams = conditionHolder;

	mov	ecx, DWORD PTR _conditionHolder$[ebp]
	mov	DWORD PTR _effectHolder$[ebp+48], ecx

; 1645 : 
; 1646 :             guidEffect = GUID_Spring;

	mov	edx, DWORD PTR _GUID_Spring
	mov	DWORD PTR _guidEffect$[ebp], edx
	mov	eax, DWORD PTR _GUID_Spring+4
	mov	DWORD PTR _guidEffect$[ebp+4], eax
	mov	ecx, DWORD PTR _GUID_Spring+8
	mov	DWORD PTR _guidEffect$[ebp+8], ecx
	mov	edx, DWORD PTR _GUID_Spring+12
	mov	DWORD PTR _guidEffect$[ebp+12], edx

; 1647 :          break;

	jmp	SHORT $LN34@JoystickCr
$LN5@JoystickCr:

; 1648 : 
; 1649 :          default:
; 1650 :             effectHolder.cbTypeSpecificParams = 0;

	mov	DWORD PTR _effectHolder$[ebp+44], 0

; 1651 :             effectHolder.lpvTypeSpecificParams = NULL;

	mov	DWORD PTR _effectHolder$[ebp+48], 0
$LN34@JoystickCr:

; 1652 :          break;
; 1653 :       }
; 1654 : 
; 1655 :       // call CreateEffect()
; 1656 :       SetupResult = VerifyResult (joystickDevice->CreateEffect(guidEffect, &effectHolder,
; 1657 :          &gForceFeedbackEffect[i], NULL));

	push	0
	mov	eax, DWORD PTR _i$[ebp]
	mov	ecx, DWORD PTR ?gForceFeedbackEffect@@3PAPAUIDirectInputEffect@@A ; gForceFeedbackEffect
	lea	edx, DWORD PTR [ecx+eax*4]
	push	edx
	lea	eax, DWORD PTR _effectHolder$[ebp]
	push	eax
	lea	ecx, DWORD PTR _guidEffect$[ebp]
	push	ecx
	mov	edx, DWORD PTR _joystickDevice$[ebp]
	mov	eax, DWORD PTR [edx]
	mov	ecx, DWORD PTR _joystickDevice$[ebp]
	push	ecx
	mov	edx, DWORD PTR [eax+72]
	call	edx
	push	eax
	call	?VerifyResult@@YAHJ@Z			; VerifyResult
	add	esp, 4
	mov	DWORD PTR _SetupResult$[ebp], eax

; 1658 :    }

	jmp	$LN54@JoystickCr
$LN53@JoystickCr:

; 1659 : 
; 1660 :    if (axesArray)

	cmp	DWORD PTR _axesArray$[ebp], 0
	je	SHORT $LN4@JoystickCr

; 1661 :    {
; 1662 :       delete axesArray;

	mov	eax, DWORD PTR _axesArray$[ebp]
	mov	DWORD PTR $T2[ebp], eax
	mov	ecx, DWORD PTR $T2[ebp]
	push	ecx
	call	??3@YAXPAX@Z				; operator delete
	add	esp, 4

; 1663 :       axesArray = NULL;

	mov	DWORD PTR _axesArray$[ebp], 0
$LN4@JoystickCr:

; 1664 :    }
; 1665 : 
; 1666 :    if (dirArray)

	cmp	DWORD PTR _dirArray$[ebp], 0
	je	SHORT $LN3@JoystickCr

; 1667 :    {
; 1668 :       delete dirArray;

	mov	edx, DWORD PTR _dirArray$[ebp]
	mov	DWORD PTR $T10[ebp], edx
	mov	eax, DWORD PTR $T10[ebp]
	push	eax
	call	??3@YAXPAX@Z				; operator delete
	add	esp, 4

; 1669 :       dirArray = NULL;

	mov	DWORD PTR _dirArray$[ebp], 0
$LN3@JoystickCr:

; 1670 :    }
; 1671 : 
; 1672 :    if (forceData)

	cmp	DWORD PTR _forceData$[ebp], 0
	je	SHORT $LN2@JoystickCr

; 1673 :    {
; 1674 :       delete forceData;

	mov	ecx, DWORD PTR _forceData$[ebp]
	mov	DWORD PTR $T4[ebp], ecx
	mov	edx, DWORD PTR $T4[ebp]
	push	edx
	call	??3@YAXPAX@Z				; operator delete
	add	esp, 4

; 1675 :       forceData = NULL;

	mov	DWORD PTR _forceData$[ebp], 0
$LN2@JoystickCr:

; 1676 :    }
; 1677 : 
; 1678 :    if (conditionHolder)

	cmp	DWORD PTR _conditionHolder$[ebp], 0
	je	SHORT $LN1@JoystickCr

; 1679 :    {
; 1680 :       delete conditionHolder;

	mov	eax, DWORD PTR _conditionHolder$[ebp]
	mov	DWORD PTR $T8[ebp], eax
	mov	ecx, DWORD PTR $T8[ebp]
	push	ecx
	call	??3@YAXPAX@Z				; operator delete
	add	esp, 4

; 1681 :       conditionHolder = NULL;

	mov	DWORD PTR _conditionHolder$[ebp], 0
$LN1@JoystickCr:

; 1682 :    }
; 1683 : 
; 1684 :    return TRUE;

	mov	eax, 1
$LN58@JoystickCr:

; 1685 : }

	mov	ecx, DWORD PTR __$ArrayPad$[ebp]
	xor	ecx, ebp
	call	@__security_check_cookie@4
	mov	esp, ebp
	pop	ebp
	ret	0
	npad	1
$LN60@JoystickCr:
	DD	$LN44@JoystickCr
	DD	$LN43@JoystickCr
	DD	$LN42@JoystickCr
	DD	$LN45@JoystickCr
	DD	$LN41@JoystickCr
	DD	$LN40@JoystickCr
	DD	$LN39@JoystickCr
$LN61@JoystickCr:
	DD	$LN14@JoystickCr
	DD	$LN12@JoystickCr
	DD	$LN24@JoystickCr
	DD	$LN10@JoystickCr
	DD	$LN33@JoystickCr
$LN62@JoystickCr:
	DD	$LN21@JoystickCr
	DD	$LN20@JoystickCr
	DD	$LN19@JoystickCr
	DD	$LN18@JoystickCr
	DD	$LN17@JoystickCr
?JoystickCreateEffect@@YAHK@Z ENDP			; JoystickCreateEffect
_TEXT	ENDS
; Function compile flags: /Odtp
; File c:\users\zhitao li\documents\visual studio 2012\projects\freefalcon\sim\siminput\sijoy.cpp
_TEXT	SEGMENT
_pguidEffect$ = -4					; size = 4
_pei$ = 8						; size = 4
_pv$ = 12						; size = 4
?JoystickEnumEffectTypeProc@@YGHPBUDIEFFECTINFOA@@PAX@Z PROC ; JoystickEnumEffectTypeProc

; 1877 : {

	push	ebp
	mov	ebp, esp
	push	ecx

; 1878 :     GUID *pguidEffect = NULL;

	mov	DWORD PTR _pguidEffect$[ebp], 0

; 1879 : 
; 1880 :     // validate pv
; 1881 :     // BUGBUG
; 1882 : 
; 1883 :     // report back the guid of the effect we enumerated
; 1884 :     if(pv)

	cmp	DWORD PTR _pv$[ebp], 0
	je	SHORT $LN1@JoystickEn

; 1885 :     {
; 1886 : 
; 1887 :         pguidEffect = (GUID *)pv;

	mov	eax, DWORD PTR _pv$[ebp]
	mov	DWORD PTR _pguidEffect$[ebp], eax

; 1888 : 
; 1889 :         *pguidEffect = pei->guid;

	mov	ecx, DWORD PTR _pei$[ebp]
	add	ecx, 4
	mov	edx, DWORD PTR _pguidEffect$[ebp]
	mov	eax, DWORD PTR [ecx]
	mov	DWORD PTR [edx], eax
	mov	eax, DWORD PTR [ecx+4]
	mov	DWORD PTR [edx+4], eax
	mov	eax, DWORD PTR [ecx+8]
	mov	DWORD PTR [edx+8], eax
	mov	ecx, DWORD PTR [ecx+12]
	mov	DWORD PTR [edx+12], ecx
$LN1@JoystickEn:

; 1890 : 
; 1891 :     }
; 1892 : 
; 1893 :     // BUGBUG - look at this some more....
; 1894 :     return DIENUM_STOP;

	xor	eax, eax

; 1895 : 
; 1896 : }

	mov	esp, ebp
	pop	ebp
	ret	8
?JoystickEnumEffectTypeProc@@YGHPBUDIEFFECTINFOA@@PAX@Z ENDP ; JoystickEnumEffectTypeProc
_TEXT	ENDS
; Function compile flags: /Odtp
; File c:\users\zhitao li\documents\visual studio 2012\projects\freefalcon\sim\siminput\sijoy.cpp
_TEXT	SEGMENT
_effectNum$ = 8						; size = 4
?JoystickStopEffect@@YAXH@Z PROC			; JoystickStopEffect

; 1747 : {

	push	ebp
	mov	ebp, esp

; 1748 :    if (!hasForceFeedback || effectNum >= gNumEffectsLoaded || !gForceFeedbackEffect || !gForceFeedbackEffect[effectNum])

	cmp	DWORD PTR ?hasForceFeedback@@3HA, 0	; hasForceFeedback
	je	SHORT $LN1@JoystickSt
	mov	eax, DWORD PTR _effectNum$[ebp]
	cmp	eax, DWORD PTR ?gNumEffectsLoaded@@3HA	; gNumEffectsLoaded
	jge	SHORT $LN1@JoystickSt
	cmp	DWORD PTR ?gForceFeedbackEffect@@3PAPAUIDirectInputEffect@@A, 0 ; gForceFeedbackEffect
	je	SHORT $LN1@JoystickSt
	mov	ecx, DWORD PTR _effectNum$[ebp]
	mov	edx, DWORD PTR ?gForceFeedbackEffect@@3PAPAUIDirectInputEffect@@A ; gForceFeedbackEffect
	cmp	DWORD PTR [edx+ecx*4], 0
	jne	SHORT $LN2@JoystickSt
$LN1@JoystickSt:

; 1749 :       return;

	jmp	SHORT $LN3@JoystickSt
$LN2@JoystickSt:

; 1750 : 
; 1751 :    ShiAssert(FALSE == F4IsBadReadPtr(gForceFeedbackEffect[effectNum], sizeof *gForceFeedbackEffect[effectNum]));
; 1752 :    VerifyResult(gForceFeedbackEffect[effectNum]->Stop ());

	mov	eax, DWORD PTR _effectNum$[ebp]
	mov	ecx, DWORD PTR ?gForceFeedbackEffect@@3PAPAUIDirectInputEffect@@A ; gForceFeedbackEffect
	mov	edx, DWORD PTR [ecx+eax*4]
	mov	eax, DWORD PTR _effectNum$[ebp]
	mov	ecx, DWORD PTR ?gForceFeedbackEffect@@3PAPAUIDirectInputEffect@@A ; gForceFeedbackEffect
	mov	eax, DWORD PTR [ecx+eax*4]
	mov	ecx, DWORD PTR [edx]
	push	eax
	mov	edx, DWORD PTR [ecx+32]
	call	edx
	push	eax
	call	?VerifyResult@@YAHJ@Z			; VerifyResult
	add	esp, 4
$LN3@JoystickSt:

; 1753 : 
; 1754 : #ifndef NDEBUG
; 1755 :    // Retro 14Jan2004
; 1756 : 	if (effectNum != lastStoppedEffect)
; 1757 : 	{
; 1758 : 		lastStoppedEffect = effectNum;
; 1759 : 		MonoPrint("Stopped effect %d\n", effectNum);
; 1760 : 	}
; 1761 : #endif
; 1762 : }

	pop	ebp
	ret	0
?JoystickStopEffect@@YAXH@Z ENDP			; JoystickStopEffect
_TEXT	ENDS
; Function compile flags: /Odtp
; File c:\users\zhitao li\documents\visual studio 2012\projects\freefalcon\sim\siminput\sijoy.cpp
_TEXT	SEGMENT
_diEffect$ = -136					; size = 56
_rglDirections$ = -80					; size = 8
_SetupResult$ = -72					; size = 4
_periodicHolder$1 = -68					; size = 16
_conditionHolder$2 = -52				; size = 48
__$ArrayPad$ = -4					; size = 4
_effectNum$ = 8						; size = 4
_data$ = 12						; size = 4
?JoystickPlayEffect@@YAHHH@Z PROC			; JoystickPlayEffect

; 1768 : {

	push	ebp
	mov	ebp, esp
	sub	esp, 136				; 00000088H
	mov	eax, DWORD PTR ___security_cookie
	xor	eax, ebp
	mov	DWORD PTR __$ArrayPad$[ebp], eax

; 1769 : 	DWORD           SetupResult;
; 1770 : 	DIEFFECT        diEffect;
; 1771 : 	LONG            rglDirections[2] = { 0, 0 };

	mov	DWORD PTR _rglDirections$[ebp], 0
	mov	DWORD PTR _rglDirections$[ebp+4], 0

; 1772 : 
; 1773 : 	if (!hasForceFeedback || effectNum >= gNumEffectsLoaded || !gForceFeedbackEffect || !gForceFeedbackEffect[effectNum])

	cmp	DWORD PTR ?hasForceFeedback@@3HA, 0	; hasForceFeedback
	je	SHORT $LN10@JoystickPl
	mov	eax, DWORD PTR _effectNum$[ebp]
	cmp	eax, DWORD PTR ?gNumEffectsLoaded@@3HA	; gNumEffectsLoaded
	jge	SHORT $LN10@JoystickPl
	cmp	DWORD PTR ?gForceFeedbackEffect@@3PAPAUIDirectInputEffect@@A, 0 ; gForceFeedbackEffect
	je	SHORT $LN10@JoystickPl
	mov	ecx, DWORD PTR _effectNum$[ebp]
	mov	edx, DWORD PTR ?gForceFeedbackEffect@@3PAPAUIDirectInputEffect@@A ; gForceFeedbackEffect
	cmp	DWORD PTR [edx+ecx*4], 0
	jne	SHORT $LN11@JoystickPl
$LN10@JoystickPl:

; 1774 : 		return FALSE;

	xor	eax, eax
	jmp	$LN12@JoystickPl
$LN11@JoystickPl:

; 1775 : 
; 1776 : 	if (PlayerOptions.GetFFB() == false)	// Retro 27Dec2003 - returning false here.. dunno if this is too clever though

	mov	ecx, OFFSET ?PlayerOptions@@3VPlayerOptionsClass@@A ; PlayerOptions
	call	?GetFFB@PlayerOptionsClass@@QBE_NXZ	; PlayerOptionsClass::GetFFB
	movzx	eax, al
	test	eax, eax
	jne	SHORT $LN9@JoystickPl

; 1777 : 		return FALSE;

	xor	eax, eax
	jmp	$LN12@JoystickPl
$LN9@JoystickPl:

; 1778 : 
; 1779 : 	ShiAssert(FALSE == F4IsBadReadPtr(&gForceEffectHasDirection[effectNum], sizeof gForceEffectHasDirection[effectNum]));
; 1780 : 	ShiAssert(FALSE == F4IsBadReadPtr(gForceFeedbackEffect[effectNum], sizeof *gForceFeedbackEffect[effectNum]));
; 1781 : 
; 1782 : 	// initialize DIEFFECT structure
; 1783 : 	memset(&diEffect, 0, sizeof(DIEFFECT));

	push	56					; 00000038H
	push	0
	lea	ecx, DWORD PTR _diEffect$[ebp]
	push	ecx
	call	_memset
	add	esp, 12					; 0000000cH

; 1784 : 	diEffect.dwSize = sizeof(DIEFFECT);

	mov	DWORD PTR _diEffect$[ebp], 56		; 00000038H

; 1785 : 
; 1786 : 	if (gForceEffectHasDirection[effectNum])

	mov	edx, DWORD PTR _effectNum$[ebp]
	mov	eax, DWORD PTR ?gForceEffectHasDirection@@3PAHA ; gForceEffectHasDirection
	cmp	DWORD PTR [eax+edx*4], 0
	je	SHORT $LN8@JoystickPl

; 1787 : 	{
; 1788 : 		// set the direction
; 1789 : 		// since this is a polar coordinate effect, we will pass the angle
; 1790 : 		// in as the direction relative to the x-axis, and will leave 0
; 1791 : 		// for the y-axis direction
; 1792 : 
; 1793 : 		// Direction is passed in in degrees, we convert to 100ths
; 1794 : 		// of a degree to make it easier for the caller.
; 1795 : 		rglDirections[0]        = data * 100;

	mov	ecx, DWORD PTR _data$[ebp]
	imul	ecx, 100				; 00000064H
	mov	edx, 4
	imul	edx, 0
	mov	DWORD PTR _rglDirections$[ebp+edx], ecx

; 1796 : 		diEffect.dwFlags        = DIEFF_OBJECTOFFSETS | DIEFF_POLAR;

	mov	DWORD PTR _diEffect$[ebp+4], 34		; 00000022H

; 1797 : 		diEffect.cAxes          = 2;

	mov	DWORD PTR _diEffect$[ebp+28], 2

; 1798 : 		diEffect.rglDirection   = rglDirections;

	lea	eax, DWORD PTR _rglDirections$[ebp]
	mov	DWORD PTR _diEffect$[ebp+36], eax

; 1799 : 		SetupResult = VerifyResult (gForceFeedbackEffect[effectNum]->SetParameters(&diEffect, DIEP_DIRECTION));

	push	64					; 00000040H
	lea	ecx, DWORD PTR _diEffect$[ebp]
	push	ecx
	mov	edx, DWORD PTR _effectNum$[ebp]
	mov	eax, DWORD PTR ?gForceFeedbackEffect@@3PAPAUIDirectInputEffect@@A ; gForceFeedbackEffect
	mov	ecx, DWORD PTR [eax+edx*4]
	mov	edx, DWORD PTR _effectNum$[ebp]
	mov	eax, DWORD PTR ?gForceFeedbackEffect@@3PAPAUIDirectInputEffect@@A ; gForceFeedbackEffect
	mov	edx, DWORD PTR [eax+edx*4]
	mov	eax, DWORD PTR [ecx]
	push	edx
	mov	ecx, DWORD PTR [eax+24]
	call	ecx
	push	eax
	call	?VerifyResult@@YAHJ@Z			; VerifyResult
	add	esp, 4
	mov	DWORD PTR _SetupResult$[ebp], eax

; 1800 : 
; 1801 : 		if(!SetupResult)

	cmp	DWORD PTR _SetupResult$[ebp], 0
	jne	SHORT $LN8@JoystickPl

; 1802 : 		{
; 1803 : 			OutputDebugString("SetParameters(Bounce effect) failed\n");

	push	OFFSET ??_C@_0CF@DPGBMHEB@SetParameters?$CIBounce?5effect?$CJ?5fai@
	call	DWORD PTR __imp__OutputDebugStringA@4

; 1804 : 			return FALSE;

	xor	eax, eax
	jmp	$LN12@JoystickPl
$LN8@JoystickPl:

; 1805 : 		}
; 1806 : 	}
; 1807 : 
; 1808 : 	if (effectNum == JoyRunwayRumble1 || effectNum == JoyRunwayRumble2)

	cmp	DWORD PTR _effectNum$[ebp], 3
	je	SHORT $LN5@JoystickPl
	cmp	DWORD PTR _effectNum$[ebp], 4
	jne	SHORT $LN6@JoystickPl
$LN5@JoystickPl:

; 1809 : 	{
; 1810 : 		DIPERIODIC periodicHolder;
; 1811 : 
; 1812 : 		periodicHolder.dwMagnitude = 2000;

	mov	DWORD PTR _periodicHolder$1[ebp], 2000	; 000007d0H

; 1813 : 		periodicHolder.lOffset = 0;

	mov	DWORD PTR _periodicHolder$1[ebp+4], 0

; 1814 : 		periodicHolder.dwPhase = 0;

	mov	DWORD PTR _periodicHolder$1[ebp+8], 0

; 1815 : 		periodicHolder.dwPeriod = data;

	mov	edx, DWORD PTR _data$[ebp]
	mov	DWORD PTR _periodicHolder$1[ebp+12], edx

; 1816 : 		diEffect.cbTypeSpecificParams = sizeof (DIPERIODIC);

	mov	DWORD PTR _diEffect$[ebp+44], 16	; 00000010H

; 1817 : 		diEffect.lpvTypeSpecificParams = &periodicHolder;

	lea	eax, DWORD PTR _periodicHolder$1[ebp]
	mov	DWORD PTR _diEffect$[ebp+48], eax

; 1818 : 		SetupResult = VerifyResult (gForceFeedbackEffect[effectNum]->SetParameters(&diEffect, DIEP_TYPESPECIFICPARAMS));

	push	256					; 00000100H
	lea	ecx, DWORD PTR _diEffect$[ebp]
	push	ecx
	mov	edx, DWORD PTR _effectNum$[ebp]
	mov	eax, DWORD PTR ?gForceFeedbackEffect@@3PAPAUIDirectInputEffect@@A ; gForceFeedbackEffect
	mov	ecx, DWORD PTR [eax+edx*4]
	mov	edx, DWORD PTR _effectNum$[ebp]
	mov	eax, DWORD PTR ?gForceFeedbackEffect@@3PAPAUIDirectInputEffect@@A ; gForceFeedbackEffect
	mov	edx, DWORD PTR [eax+edx*4]
	mov	eax, DWORD PTR [ecx]
	push	edx
	mov	ecx, DWORD PTR [eax+24]
	call	ecx
	push	eax
	call	?VerifyResult@@YAHJ@Z			; VerifyResult
	add	esp, 4
	mov	DWORD PTR _SetupResult$[ebp], eax

; 1819 : 
; 1820 : 		if(!SetupResult)

	cmp	DWORD PTR _SetupResult$[ebp], 0
	jne	SHORT $LN6@JoystickPl

; 1821 : 		{
; 1822 : 			OutputDebugString("SetParameters(Runway Rumble) failed\n");

	push	OFFSET ??_C@_0CF@DNDCOJOI@SetParameters?$CIRunway?5Rumble?$CJ?5fai@
	call	DWORD PTR __imp__OutputDebugStringA@4

; 1823 : 			return FALSE;

	xor	eax, eax
	jmp	$LN12@JoystickPl
$LN6@JoystickPl:

; 1824 : 		}
; 1825 : 	}
; 1826 : 
; 1827 : 	if (effectNum == JoyAutoCenter)

	cmp	DWORD PTR _effectNum$[ebp], 2
	jne	$LN3@JoystickPl

; 1828 : 	{
; 1829 : 		DICONDITION conditionHolder[2];
; 1830 : 
; 1831 : 		conditionHolder[0].lOffset = 0;

	mov	edx, 24					; 00000018H
	imul	edx, 0
	mov	DWORD PTR _conditionHolder$2[ebp+edx], 0

; 1832 : 		conditionHolder[0].lPositiveCoefficient = data;

	mov	eax, 24					; 00000018H
	imul	eax, 0
	mov	ecx, DWORD PTR _data$[ebp]
	mov	DWORD PTR _conditionHolder$2[ebp+eax+4], ecx

; 1833 : 		conditionHolder[0].lNegativeCoefficient = data;

	mov	edx, 24					; 00000018H
	imul	edx, 0
	mov	eax, DWORD PTR _data$[ebp]
	mov	DWORD PTR _conditionHolder$2[ebp+edx+8], eax

; 1834 : 		conditionHolder[0].dwPositiveSaturation = data;

	mov	ecx, 24					; 00000018H
	imul	ecx, 0
	mov	edx, DWORD PTR _data$[ebp]
	mov	DWORD PTR _conditionHolder$2[ebp+ecx+12], edx

; 1835 : 		conditionHolder[0].dwNegativeSaturation = data;

	mov	eax, 24					; 00000018H
	imul	eax, 0
	mov	ecx, DWORD PTR _data$[ebp]
	mov	DWORD PTR _conditionHolder$2[ebp+eax+16], ecx

; 1836 : 		conditionHolder[0].lDeadBand = 100;

	mov	edx, 24					; 00000018H
	imul	edx, 0
	mov	DWORD PTR _conditionHolder$2[ebp+edx+20], 100 ; 00000064H

; 1837 : 		conditionHolder[1].lOffset = 0;

	mov	eax, 24					; 00000018H
	shl	eax, 0
	mov	DWORD PTR _conditionHolder$2[ebp+eax], 0

; 1838 : 		conditionHolder[1].lPositiveCoefficient = data;

	mov	ecx, 24					; 00000018H
	shl	ecx, 0
	mov	edx, DWORD PTR _data$[ebp]
	mov	DWORD PTR _conditionHolder$2[ebp+ecx+4], edx

; 1839 : 		conditionHolder[1].lNegativeCoefficient = data;

	mov	eax, 24					; 00000018H
	shl	eax, 0
	mov	ecx, DWORD PTR _data$[ebp]
	mov	DWORD PTR _conditionHolder$2[ebp+eax+8], ecx

; 1840 : 		conditionHolder[1].dwPositiveSaturation = data;

	mov	edx, 24					; 00000018H
	shl	edx, 0
	mov	eax, DWORD PTR _data$[ebp]
	mov	DWORD PTR _conditionHolder$2[ebp+edx+12], eax

; 1841 : 		conditionHolder[1].dwNegativeSaturation = data;

	mov	ecx, 24					; 00000018H
	shl	ecx, 0
	mov	edx, DWORD PTR _data$[ebp]
	mov	DWORD PTR _conditionHolder$2[ebp+ecx+16], edx

; 1842 : 		conditionHolder[1].lDeadBand = 100;

	mov	eax, 24					; 00000018H
	shl	eax, 0
	mov	DWORD PTR _conditionHolder$2[ebp+eax+20], 100 ; 00000064H

; 1843 : 		diEffect.cbTypeSpecificParams = sizeof (DICONDITION) * 2;

	mov	DWORD PTR _diEffect$[ebp+44], 48	; 00000030H

; 1844 : 		diEffect.lpvTypeSpecificParams = conditionHolder;

	lea	ecx, DWORD PTR _conditionHolder$2[ebp]
	mov	DWORD PTR _diEffect$[ebp+48], ecx

; 1845 : 
; 1846 : 		SetupResult = VerifyResult (gForceFeedbackEffect[effectNum]->SetParameters(&diEffect, DIEP_TYPESPECIFICPARAMS));

	push	256					; 00000100H
	lea	edx, DWORD PTR _diEffect$[ebp]
	push	edx
	mov	eax, DWORD PTR _effectNum$[ebp]
	mov	ecx, DWORD PTR ?gForceFeedbackEffect@@3PAPAUIDirectInputEffect@@A ; gForceFeedbackEffect
	mov	edx, DWORD PTR [ecx+eax*4]
	mov	eax, DWORD PTR _effectNum$[ebp]
	mov	ecx, DWORD PTR ?gForceFeedbackEffect@@3PAPAUIDirectInputEffect@@A ; gForceFeedbackEffect
	mov	eax, DWORD PTR [ecx+eax*4]
	mov	ecx, DWORD PTR [edx]
	push	eax
	mov	edx, DWORD PTR [ecx+24]
	call	edx
	push	eax
	call	?VerifyResult@@YAHJ@Z			; VerifyResult
	add	esp, 4
	mov	DWORD PTR _SetupResult$[ebp], eax

; 1847 : 		if(!SetupResult)

	cmp	DWORD PTR _SetupResult$[ebp], 0
	jne	SHORT $LN3@JoystickPl

; 1848 : 		{
; 1849 : 			OutputDebugString("SetParameters(Auto Center) failed\n");

	push	OFFSET ??_C@_0CD@HLBFKCB@SetParameters?$CIAuto?5Center?$CJ?5faile@
	call	DWORD PTR __imp__OutputDebugStringA@4

; 1850 : 			return FALSE;

	xor	eax, eax
	jmp	SHORT $LN12@JoystickPl
$LN3@JoystickPl:

; 1851 : 		}
; 1852 : 	}
; 1853 : 
; 1854 : 	// play the effect
; 1855 : 	SetupResult = VerifyResult (gForceFeedbackEffect[effectNum]->Start (1, 0));

	push	0
	push	1
	mov	eax, DWORD PTR _effectNum$[ebp]
	mov	ecx, DWORD PTR ?gForceFeedbackEffect@@3PAPAUIDirectInputEffect@@A ; gForceFeedbackEffect
	mov	edx, DWORD PTR [ecx+eax*4]
	mov	eax, DWORD PTR _effectNum$[ebp]
	mov	ecx, DWORD PTR ?gForceFeedbackEffect@@3PAPAUIDirectInputEffect@@A ; gForceFeedbackEffect
	mov	eax, DWORD PTR [ecx+eax*4]
	mov	ecx, DWORD PTR [edx]
	push	eax
	mov	edx, DWORD PTR [ecx+28]
	call	edx
	push	eax
	call	?VerifyResult@@YAHJ@Z			; VerifyResult
	add	esp, 4
	mov	DWORD PTR _SetupResult$[ebp], eax

; 1856 : 	if(!SetupResult)

	cmp	DWORD PTR _SetupResult$[ebp], 0
	jne	SHORT $LN1@JoystickPl

; 1857 : 	{
; 1858 : 		//JoystickCreateEffect(1);
; 1859 : 		MonoPrint("Start Effect %d Failed\n", effectNum);

	mov	eax, DWORD PTR _effectNum$[ebp]
	push	eax
	push	OFFSET ??_C@_0BI@MDDHALAN@Start?5Effect?5?$CFd?5Failed?6?$AA@
	call	_MonoPrint
	add	esp, 8

; 1860 : 		return FALSE;

	xor	eax, eax
	jmp	SHORT $LN12@JoystickPl
$LN1@JoystickPl:

; 1861 : 	}
; 1862 : #ifndef NDEBUG // Retro 14Feb2004
; 1863 : 	if (effectNum != lastStartedEffect)
; 1864 : 	{
; 1865 : 		lastStartedEffect = effectNum;
; 1866 : 		MonoPrint("Started effect %d\n", effectNum);
; 1867 : 	}
; 1868 : #endif
; 1869 : 
; 1870 : 	return TRUE;

	mov	eax, 1
$LN12@JoystickPl:

; 1871 : }

	mov	ecx, DWORD PTR __$ArrayPad$[ebp]
	xor	ecx, ebp
	call	@__security_check_cookie@4
	mov	esp, ebp
	pop	ebp
	ret	0
?JoystickPlayEffect@@YAHHH@Z ENDP			; JoystickPlayEffect
_TEXT	ENDS
; Function compile flags: /Odtp
; File c:\users\zhitao li\documents\visual studio 2012\projects\freefalcon\sim\include\otwdrive.h
;	COMDAT ?SetHeadTracking@OTWDriverClass@@QAEXH@Z
_TEXT	SEGMENT
_this$ = -4						; size = 4
_flag$ = 8						; size = 4
?SetHeadTracking@OTWDriverClass@@QAEXH@Z PROC		; OTWDriverClass::SetHeadTracking, COMDAT
; _this$ = ecx

; 884  :     void SetHeadTracking (int flag) {mUseHeadTracking = flag;}

	push	ebp
	mov	ebp, esp
	push	ecx
	mov	DWORD PTR _this$[ebp], ecx
	mov	eax, DWORD PTR _this$[ebp]
	mov	ecx, DWORD PTR _flag$[ebp]
	mov	DWORD PTR [eax+34016], ecx
	mov	esp, ebp
	pop	ebp
	ret	4
?SetHeadTracking@OTWDriverClass@@QAEXH@Z ENDP		; OTWDriverClass::SetHeadTracking
_TEXT	ENDS
; Function compile flags: /Odtp
; File c:\users\zhitao li\documents\visual studio 2012\projects\freefalcon\falclib\include\playerop.h
;	COMDAT ?GetFFB@PlayerOptionsClass@@QBE_NXZ
_TEXT	SEGMENT
_this$ = -4						; size = 4
?GetFFB@PlayerOptionsClass@@QBE_NXZ PROC		; PlayerOptionsClass::GetFFB, COMDAT
; _this$ = ecx

; 181  : 	bool GetFFB(void) const 								{ return enableFFB; }			// Retro 27Dec2003

	push	ebp
	mov	ebp, esp
	push	ecx
	mov	DWORD PTR _this$[ebp], ecx
	mov	eax, DWORD PTR _this$[ebp]
	mov	al, BYTE PTR [eax+207]
	mov	esp, ebp
	pop	ebp
	ret	0
?GetFFB@PlayerOptionsClass@@QBE_NXZ ENDP		; PlayerOptionsClass::GetFFB
_TEXT	ENDS
; Function compile flags: /Odtp
; File c:\users\zhitao li\documents\visual studio 2012\projects\freefalcon\falclib\include\playerop.h
;	COMDAT ?Get3dTrackIR@PlayerOptionsClass@@QBE_NXZ
_TEXT	SEGMENT
_this$ = -4						; size = 4
?Get3dTrackIR@PlayerOptionsClass@@QBE_NXZ PROC		; PlayerOptionsClass::Get3dTrackIR, COMDAT
; _this$ = ecx

; 180  : 	bool Get3dTrackIR(void) const                           { return TrackIR_3d; }			// Retro 27Dec2003

	push	ebp
	mov	ebp, esp
	push	ecx
	mov	DWORD PTR _this$[ebp], ecx
	mov	eax, DWORD PTR _this$[ebp]
	mov	al, BYTE PTR [eax+206]
	mov	esp, ebp
	pop	ebp
	ret	0
?Get3dTrackIR@PlayerOptionsClass@@QBE_NXZ ENDP		; PlayerOptionsClass::Get3dTrackIR
_TEXT	ENDS
; Function compile flags: /Odtp
; File c:\users\zhitao li\documents\visual studio 2012\projects\freefalcon\sim\include\simio.h
;	COMDAT ?SetMouseWheelExists@SIMLIB_IO_CLASS@@QAEX_N@Z
_TEXT	SEGMENT
_this$ = -4						; size = 4
_yesno$ = 8						; size = 1
?SetMouseWheelExists@SIMLIB_IO_CLASS@@QAEX_N@Z PROC	; SIMLIB_IO_CLASS::SetMouseWheelExists, COMDAT
; _this$ = ecx

; 264  : 	void SetMouseWheelExists(bool yesno) { mouseWheelPresent = yesno; }

	push	ebp
	mov	ebp, esp
	push	ecx
	mov	DWORD PTR _this$[ebp], ecx
	mov	eax, DWORD PTR _this$[ebp]
	mov	cl, BYTE PTR _yesno$[ebp]
	mov	BYTE PTR [eax+1656], cl
	mov	esp, ebp
	pop	ebp
	ret	4
?SetMouseWheelExists@SIMLIB_IO_CLASS@@QAEX_N@Z ENDP	; SIMLIB_IO_CLASS::SetMouseWheelExists
_TEXT	ENDS
; Function compile flags: /Odtp
; File c:\users\zhitao li\documents\visual studio 2012\projects\freefalcon\sim\include\simio.h
;	COMDAT ?MouseWheelExists@SIMLIB_IO_CLASS@@QAE_NXZ
_TEXT	SEGMENT
_this$ = -4						; size = 4
?MouseWheelExists@SIMLIB_IO_CLASS@@QAE_NXZ PROC		; SIMLIB_IO_CLASS::MouseWheelExists, COMDAT
; _this$ = ecx

; 263  : 	bool MouseWheelExists() { return mouseWheelPresent; }

	push	ebp
	mov	ebp, esp
	push	ecx
	mov	DWORD PTR _this$[ebp], ecx
	mov	eax, DWORD PTR _this$[ebp]
	mov	al, BYTE PTR [eax+1656]
	mov	esp, ebp
	pop	ebp
	ret	0
?MouseWheelExists@SIMLIB_IO_CLASS@@QAE_NXZ ENDP		; SIMLIB_IO_CLASS::MouseWheelExists
_TEXT	ENDS
; Function compile flags: /Odtp
; File c:\users\zhitao li\documents\visual studio 2012\projects\freefalcon\sim\include\simio.h
;	COMDAT ?AnalogIsUsed@SIMLIB_IO_CLASS@@QAE_NW4GameAxis_t@@@Z
_TEXT	SEGMENT
_this$ = -4						; size = 4
_id$ = 8						; size = 4
?AnalogIsUsed@SIMLIB_IO_CLASS@@QAE_NW4GameAxis_t@@@Z PROC ; SIMLIB_IO_CLASS::AnalogIsUsed, COMDAT
; _this$ = ecx

; 237  : 	bool	AnalogIsUsed(GameAxis_t id) { return ( analog[id].isUsed); };

	push	ebp
	mov	ebp, esp
	push	ecx
	mov	DWORD PTR _this$[ebp], ecx
	mov	eax, DWORD PTR _id$[ebp]
	imul	eax, 28					; 0000001cH
	mov	ecx, DWORD PTR _this$[ebp]
	mov	al, BYTE PTR [ecx+eax+12]
	mov	esp, ebp
	pop	ebp
	ret	4
?AnalogIsUsed@SIMLIB_IO_CLASS@@QAE_NW4GameAxis_t@@@Z ENDP ; SIMLIB_IO_CLASS::AnalogIsUsed
_TEXT	ENDS
; Function compile flags: /Odtp
; File c:\users\zhitao li\documents\visual studio 2012\projects\freefalcon\sim\include\simio.h
;	COMDAT ??0AxisIDStuff@@QAE@XZ
_TEXT	SEGMENT
_this$ = -4						; size = 4
??0AxisIDStuff@@QAE@XZ PROC				; AxisIDStuff::AxisIDStuff, COMDAT
; _this$ = ecx

; 152  : 	AxisIDStuff()

	push	ebp
	mov	ebp, esp
	push	ecx
	mov	DWORD PTR _this$[ebp], ecx

; 153  : 	{
; 154  : 		DXAxisName = 0;

	mov	eax, DWORD PTR _this$[ebp]
	mov	DWORD PTR [eax], 0

; 155  : 		DXAxisID = -1;

	mov	ecx, DWORD PTR _this$[ebp]
	mov	DWORD PTR [ecx+4], -1

; 156  : 		DXDeviceID = -1;

	mov	edx, DWORD PTR _this$[ebp]
	mov	DWORD PTR [edx+8], -1

; 157  : 		isMapped = false;

	mov	eax, DWORD PTR _this$[ebp]
	mov	BYTE PTR [eax+12], 0

; 158  : 	}

	mov	eax, DWORD PTR _this$[ebp]
	mov	esp, ebp
	pop	ebp
	ret	0
??0AxisIDStuff@@QAE@XZ ENDP				; AxisIDStuff::AxisIDStuff
_TEXT	ENDS
; Function compile flags: /Odtp
; File c:\users\zhitao li\documents\visual studio 2012\projects\freefalcon\sim\siminput\sijoy.cpp
_TEXT	SEGMENT
$T1 = -16						; size = 4
$T2 = -12						; size = 4
$T3 = -8						; size = 4
_i$4 = -4						; size = 4
?JoystickReleaseEffects@@YAXXZ PROC			; JoystickReleaseEffects

; 1691 : {

	push	ebp
	mov	ebp, esp
	sub	esp, 16					; 00000010H

; 1692 :     if (!hasForceFeedback)

	cmp	DWORD PTR ?hasForceFeedback@@3HA, 0	; hasForceFeedback
	jne	SHORT $LN6@JoystickRe

; 1693 : 		return;

	jmp	$LN7@JoystickRe
$LN6@JoystickRe:

; 1694 : 
; 1695 :     // Get rid of any old effects
; 1696 :     ShiAssert(gNumEffectsLoaded > 0 && gNumEffectsLoaded < 20); // arbitrary for now JPO
; 1697 : 
; 1698 :     if (gNumEffectsLoaded > 20)

	cmp	DWORD PTR ?gNumEffectsLoaded@@3HA, 20	; gNumEffectsLoaded, 00000014H
	jle	SHORT $LN5@JoystickRe

; 1699 : 		return; // arbitray sanity

	jmp	$LN7@JoystickRe
$LN5@JoystickRe:

; 1700 : 
; 1701 :     for (int i=0; i<gNumEffectsLoaded; i++)

	mov	DWORD PTR _i$4[ebp], 0
	jmp	SHORT $LN4@JoystickRe
$LN3@JoystickRe:
	mov	eax, DWORD PTR _i$4[ebp]
	add	eax, 1
	mov	DWORD PTR _i$4[ebp], eax
$LN4@JoystickRe:
	mov	ecx, DWORD PTR _i$4[ebp]
	cmp	ecx, DWORD PTR ?gNumEffectsLoaded@@3HA	; gNumEffectsLoaded
	jge	SHORT $LN2@JoystickRe

; 1702 : 	{
; 1703 : //		gForceFeedbackEffect[i]->Unload();
; 1704 : 		ShiAssert(FALSE == F4IsBadReadPtr(gForceFeedbackEffect[i], sizeof(*gForceFeedbackEffect[i])));
; 1705 : 		if (F4IsBadReadPtr(gForceFeedbackEffect[i], sizeof(*gForceFeedbackEffect[i])))

	push	4
	mov	edx, DWORD PTR _i$4[ebp]
	mov	eax, DWORD PTR ?gForceFeedbackEffect@@3PAPAUIDirectInputEffect@@A ; gForceFeedbackEffect
	mov	ecx, DWORD PTR [eax+edx*4]
	push	ecx
	call	?F4IsBadReadPtr@@YA_NPBXI@Z		; F4IsBadReadPtr
	add	esp, 8
	movzx	edx, al
	test	edx, edx
	je	SHORT $LN1@JoystickRe

; 1706 : 			continue;

	jmp	SHORT $LN3@JoystickRe
$LN1@JoystickRe:

; 1707 : 		gForceFeedbackEffect[i]->Release();

	mov	eax, DWORD PTR _i$4[ebp]
	mov	ecx, DWORD PTR ?gForceFeedbackEffect@@3PAPAUIDirectInputEffect@@A ; gForceFeedbackEffect
	mov	edx, DWORD PTR [ecx+eax*4]
	mov	eax, DWORD PTR _i$4[ebp]
	mov	ecx, DWORD PTR ?gForceFeedbackEffect@@3PAPAUIDirectInputEffect@@A ; gForceFeedbackEffect
	mov	eax, DWORD PTR [ecx+eax*4]
	mov	ecx, DWORD PTR [edx]
	push	eax
	mov	edx, DWORD PTR [ecx+8]
	call	edx

; 1708 :     }

	jmp	SHORT $LN3@JoystickRe
$LN2@JoystickRe:

; 1709 : 
; 1710 :     delete[] gForceFeedbackEffect;

	mov	eax, DWORD PTR ?gForceFeedbackEffect@@3PAPAUIDirectInputEffect@@A ; gForceFeedbackEffect
	mov	DWORD PTR $T3[ebp], eax
	mov	ecx, DWORD PTR $T3[ebp]
	push	ecx
	call	??_V@YAXPAX@Z				; operator delete[]
	add	esp, 4

; 1711 :     gForceFeedbackEffect = NULL;

	mov	DWORD PTR ?gForceFeedbackEffect@@3PAPAUIDirectInputEffect@@A, 0 ; gForceFeedbackEffect

; 1712 :     delete[] gForceEffectIsRepeating;

	mov	edx, DWORD PTR ?gForceEffectIsRepeating@@3PAHA ; gForceEffectIsRepeating
	mov	DWORD PTR $T2[ebp], edx
	mov	eax, DWORD PTR $T2[ebp]
	push	eax
	call	??_V@YAXPAX@Z				; operator delete[]
	add	esp, 4

; 1713 :     gForceEffectIsRepeating = NULL;

	mov	DWORD PTR ?gForceEffectIsRepeating@@3PAHA, 0 ; gForceEffectIsRepeating

; 1714 :     delete[] gForceEffectHasDirection;

	mov	ecx, DWORD PTR ?gForceEffectHasDirection@@3PAHA ; gForceEffectHasDirection
	mov	DWORD PTR $T1[ebp], ecx
	mov	edx, DWORD PTR $T1[ebp]
	push	edx
	call	??_V@YAXPAX@Z				; operator delete[]
	add	esp, 4

; 1715 :     gForceEffectHasDirection = NULL;

	mov	DWORD PTR ?gForceEffectHasDirection@@3PAHA, 0 ; gForceEffectHasDirection

; 1716 :     gForceFeedbackEffect = NULL;

	mov	DWORD PTR ?gForceFeedbackEffect@@3PAPAUIDirectInputEffect@@A, 0 ; gForceFeedbackEffect

; 1717 :     gNumEffectsLoaded = 0;

	mov	DWORD PTR ?gNumEffectsLoaded@@3HA, 0	; gNumEffectsLoaded
$LN7@JoystickRe:

; 1718 : }

	mov	esp, ebp
	pop	ebp
	ret	0
?JoystickReleaseEffects@@YAXXZ ENDP			; JoystickReleaseEffects
_TEXT	ENDS
; Function compile flags: /Odtp
; File c:\users\zhitao li\documents\visual studio 2012\projects\freefalcon\sim\siminput\sijoy.cpp
_TEXT	SEGMENT
_ID$1 = -36						; size = 4
_ID$2 = -32						; size = 4
_curTicks$3 = -28					; size = 4
_ID$4 = -24						; size = 4
_ID$5 = -20						; size = 4
_theFunc$6 = -16					; size = 4
_theFunc$ = -12						; size = 4
_Direction$7 = -8					; size = 4
_i$ = -4						; size = 4
?ProcessJoyButtonAndPOVHat@@YAXXZ PROC			; ProcessJoyButtonAndPOVHat

; 639  : {

	push	ebp
	mov	ebp, esp
	sub	esp, 36					; 00000024H

; 640  : 	Prof(ProcessJoyButtonAndPOVHat);
; 641  : 
; 642  : 	unsigned int i;
; 643  : 	InputFunctionType theFunc;
; 644  : 
; 645  : 	for (i = 0; i < SIMLIB_MAX_DIGITAL * SIM_NUMDEVICES; i++)

	mov	DWORD PTR _i$[ebp], 0
	jmp	SHORT $LN50@ProcessJoy
$LN49@ProcessJoy:
	mov	eax, DWORD PTR _i$[ebp]
	add	eax, 1
	mov	DWORD PTR _i$[ebp], eax
$LN50@ProcessJoy:
	cmp	DWORD PTR _i$[ebp], 512			; 00000200H
	jae	$LN48@ProcessJoy

; 646  : 	{
; 647  : #if 0	// Retro 24Aug2004
; 648  : 		if(IO.digital[i])
; 649  : 		{		
; 650  : 			DWORD curTicks = GetTickCount();
; 651  : 			if(curTicks > LastPressed[i] + REPEAT_DELAY)
; 652  : 			{
; 653  : 				int ID;
; 654  : 				theFunc = UserFunctionTable.GetButtonFunction(i,&ID);
; 655  : 				if(theFunc)
; 656  : 				{
; 657  : 					if( ID  < 0) {
; 658  : //						theFunc(1, KEY_DOWN, NULL);	
; 659  : 						CallFunc(theFunc,1, KEY_DOWN, NULL);		//Wombat778 03-06-04 Use callfunc instead of directly calling funcs, so they can be captured
; 660  : 					}
; 661  : 					else {
; 662  : //						theFunc(1, KEY_DOWN, OTWDriver.pCockpitManager->GetButtonPointer(ID));
; 663  : 						CallFunc(theFunc,1, KEY_DOWN, OTWDriver.pCockpitManager->GetButtonPointer(ID)); //Wombat778 03-06-04 Use callfunc instead of directly calling funcs, so they can be captured
; 664  : 						OTWDriver.pCockpitManager->Dispatch(ID, 0);//the 0 should be mousside but I don't have anywhere
; 665  : 					}												//to store it and all functions currently use 0. ;)
; 666  : 				}
; 667  : 				else if ((i%SIMLIB_MAX_DIGITAL) == 0)
; 668  : 				{
; 669  : 					TriggerOverride = TRUE;
; 670  : 				}
; 671  : 				else if ((i%SIMLIB_MAX_DIGITAL) == 1)
; 672  : 				{
; 673  : 					PickleOverride = TRUE;
; 674  : 				}
; 675  : 				LastPressed[i] = curTicks;
; 676  : 			}
; 677  : 		}
; 678  : 		else if (LastPressed[i])
; 679  : 		{
; 680  : 			LastPressed[i] = 0;
; 681  : 			int ID;
; 682  : 			theFunc = UserFunctionTable.GetButtonFunction(i,&ID);
; 683  : 			if(theFunc)
; 684  : 				//theFunc(1, 0, NULL);
; 685  : 				CallFunc(theFunc,1, 0, NULL);		//Wombat778 03-06-04 Use callfunc instead of directly calling funcs, so they can be captured
; 686  : 
; 687  : //			else if(i == 0)
; 688  : 			else if ((i%SIMLIB_MAX_DIGITAL) == 0)
; 689  : 			{
; 690  : 				TriggerOverride = FALSE;
; 691  : 			}
; 692  : //			else if(i == 1)
; 693  : 			else if ((i%SIMLIB_MAX_DIGITAL) == 1)
; 694  : 			{
; 695  : 				PickleOverride = FALSE;
; 696  : 			}
; 697  : 		}
; 698  : #else	// Retro 24Aug2004 - this version just generates one DOWN event when a key is pressed and one UP event when released
; 699  : 		//					the one above sent multiple DOWN events every 200 ticks.. not necessary imo
; 700  : 		if (IO.digital[i])

	mov	ecx, DWORD PTR _i$[ebp]
	movsx	edx, WORD PTR ?IO@@3VSIMLIB_IO_CLASS@@A[ecx*2+616]
	test	edx, edx
	je	$LN47@ProcessJoy

; 701  : 		{
; 702  : 			if (LastPressed[i] == 0)

	mov	eax, DWORD PTR _i$[ebp]
	cmp	DWORD PTR _LastPressed[eax*4], 0
	jne	$LN46@ProcessJoy

; 703  : 			{
; 704  : 				int ID;
; 705  : 				theFunc = UserFunctionTable.GetButtonFunction(i,&ID);

	lea	ecx, DWORD PTR _ID$4[ebp]
	push	ecx
	mov	edx, DWORD PTR _i$[ebp]
	push	edx
	mov	ecx, OFFSET ?UserFunctionTable@@3VInputFunctionHashTable@@A ; UserFunctionTable
	call	?GetButtonFunction@InputFunctionHashTable@@QAEP6AXKHPAX@ZHPAH@Z ; InputFunctionHashTable::GetButtonFunction
	mov	DWORD PTR _theFunc$[ebp], eax

; 706  : 				if(theFunc)

	cmp	DWORD PTR _theFunc$[ebp], 0
	je	SHORT $LN45@ProcessJoy

; 707  : 				{
; 708  : 					if( ID  < 0)

	cmp	DWORD PTR _ID$4[ebp], 0
	jge	SHORT $LN44@ProcessJoy

; 709  : 					{
; 710  : 						CallFunc(theFunc,1, KEY_DOWN, NULL);		//Wombat778 03-06-04 Use callfunc instead of directly calling funcs, so they can be captured

	push	0
	push	8
	push	1
	mov	eax, DWORD PTR _theFunc$[ebp]
	push	eax
	call	?CallFunc@@YAXP6AXKHPAX@ZKH0@Z		; CallFunc
	add	esp, 16					; 00000010H

; 711  : 					}
; 712  : 					else

	jmp	SHORT $LN43@ProcessJoy
$LN44@ProcessJoy:

; 713  : 					{
; 714  : 						CallFunc(theFunc,1, KEY_DOWN, OTWDriver.pCockpitManager->GetButtonPointer(ID)); //Wombat778 03-06-04 Use callfunc instead of directly calling funcs, so they can be captured

	mov	ecx, DWORD PTR _ID$4[ebp]
	push	ecx
	mov	ecx, DWORD PTR ?OTWDriver@@3VOTWDriverClass@@A+33684
	call	?GetButtonPointer@CockpitManager@@QAEPAVCPButtonObject@@H@Z ; CockpitManager::GetButtonPointer
	push	eax
	push	8
	push	1
	mov	edx, DWORD PTR _theFunc$[ebp]
	push	edx
	call	?CallFunc@@YAXP6AXKHPAX@ZKH0@Z		; CallFunc
	add	esp, 16					; 00000010H

; 715  : 						OTWDriver.pCockpitManager->Dispatch(ID, 0);//the 0 should be mousside but I don't have anywhere

	push	0
	mov	eax, DWORD PTR _ID$4[ebp]
	push	eax
	mov	ecx, DWORD PTR ?OTWDriver@@3VOTWDriverClass@@A+33684
	call	?Dispatch@CockpitManager@@QAEXHH@Z	; CockpitManager::Dispatch
$LN43@ProcessJoy:

; 716  : 					}												//to store it and all functions currently use 0. ;)

	jmp	SHORT $LN42@ProcessJoy
$LN45@ProcessJoy:

; 717  : 				}
; 718  : 				else if ((i%SIMLIB_MAX_DIGITAL) == 0)

	mov	eax, DWORD PTR _i$[ebp]
	xor	edx, edx
	mov	ecx, 32					; 00000020H
	div	ecx
	test	edx, edx
	jne	SHORT $LN41@ProcessJoy

; 719  : 				{
; 720  : 					TriggerOverride = TRUE;

	mov	DWORD PTR ?TriggerOverride@@3HA, 1	; TriggerOverride
	jmp	SHORT $LN42@ProcessJoy
$LN41@ProcessJoy:

; 721  : 				}
; 722  : 				else if ((i%SIMLIB_MAX_DIGITAL) == 1)

	mov	eax, DWORD PTR _i$[ebp]
	xor	edx, edx
	mov	ecx, 32					; 00000020H
	div	ecx
	cmp	edx, 1
	jne	SHORT $LN42@ProcessJoy

; 723  : 				{
; 724  : 					PickleOverride = TRUE;

	mov	DWORD PTR ?PickleOverride@@3HA, 1	; PickleOverride
$LN42@ProcessJoy:

; 725  : 				}
; 726  : 				LastPressed[i] = 1;

	mov	edx, DWORD PTR _i$[ebp]
	mov	DWORD PTR _LastPressed[edx*4], 1
$LN46@ProcessJoy:

; 727  : 			}
; 728  : 		}

	jmp	$LN38@ProcessJoy
$LN47@ProcessJoy:

; 729  : 		else if (LastPressed[i])

	mov	eax, DWORD PTR _i$[ebp]
	cmp	DWORD PTR _LastPressed[eax*4], 0
	je	SHORT $LN38@ProcessJoy

; 730  : 		{
; 731  : 			LastPressed[i] = 0;

	mov	ecx, DWORD PTR _i$[ebp]
	mov	DWORD PTR _LastPressed[ecx*4], 0

; 732  : 			int ID;
; 733  : 			theFunc = UserFunctionTable.GetButtonFunction(i,&ID);

	lea	edx, DWORD PTR _ID$2[ebp]
	push	edx
	mov	eax, DWORD PTR _i$[ebp]
	push	eax
	mov	ecx, OFFSET ?UserFunctionTable@@3VInputFunctionHashTable@@A ; UserFunctionTable
	call	?GetButtonFunction@InputFunctionHashTable@@QAEP6AXKHPAX@ZHPAH@Z ; InputFunctionHashTable::GetButtonFunction
	mov	DWORD PTR _theFunc$[ebp], eax

; 734  : 			if(theFunc)

	cmp	DWORD PTR _theFunc$[ebp], 0
	je	SHORT $LN36@ProcessJoy

; 735  : 			{
; 736  : 				CallFunc(theFunc,1, 0, NULL);		//Wombat778 03-06-04 Use callfunc instead of directly calling funcs, so they can be captured

	push	0
	push	0
	push	1
	mov	ecx, DWORD PTR _theFunc$[ebp]
	push	ecx
	call	?CallFunc@@YAXP6AXKHPAX@ZKH0@Z		; CallFunc
	add	esp, 16					; 00000010H
	jmp	SHORT $LN38@ProcessJoy
$LN36@ProcessJoy:

; 737  : 			}
; 738  : 			else if ((i%SIMLIB_MAX_DIGITAL) == 0)

	mov	eax, DWORD PTR _i$[ebp]
	xor	edx, edx
	mov	ecx, 32					; 00000020H
	div	ecx
	test	edx, edx
	jne	SHORT $LN34@ProcessJoy

; 739  : 			{
; 740  : 				TriggerOverride = FALSE;

	mov	DWORD PTR ?TriggerOverride@@3HA, 0	; TriggerOverride
	jmp	SHORT $LN38@ProcessJoy
$LN34@ProcessJoy:

; 741  : 			}
; 742  : 			else if ((i%SIMLIB_MAX_DIGITAL) == 1)

	mov	eax, DWORD PTR _i$[ebp]
	xor	edx, edx
	mov	ecx, 32					; 00000020H
	div	ecx
	cmp	edx, 1
	jne	SHORT $LN38@ProcessJoy

; 743  : 			{
; 744  : 				PickleOverride = FALSE;

	mov	DWORD PTR ?PickleOverride@@3HA, 0	; PickleOverride
$LN38@ProcessJoy:

; 745  : 			}
; 746  : 		}
; 747  : #endif	// Retro 24Aug2004
; 748  : 		
; 749  : 	}

	jmp	$LN49@ProcessJoy
$LN48@ProcessJoy:

; 750  : 
; 751  : 	for (i = 0; i < NumberOfPOVs; i++)	// Retro 26Dec2003

	mov	DWORD PTR _i$[ebp], 0
	jmp	SHORT $LN31@ProcessJoy
$LN30@ProcessJoy:
	mov	edx, DWORD PTR _i$[ebp]
	add	edx, 1
	mov	DWORD PTR _i$[ebp], edx
$LN31@ProcessJoy:
	mov	eax, DWORD PTR _i$[ebp]
	cmp	eax, DWORD PTR ?NumberOfPOVs@@3IA	; NumberOfPOVs
	jae	$LN51@ProcessJoy

; 752  : 	{
; 753  : 		if(IO.povHatAngle[i] != -1)

	mov	ecx, DWORD PTR _i$[ebp]
	cmp	DWORD PTR ?IO@@3VSIMLIB_IO_CLASS@@A[ecx*4+1640], -1
	je	$LN28@ProcessJoy

; 754  : 		{
; 755  : 			int ID;
; 756  : 			InputFunctionType theFunc;
; 757  : 			int Direction = 0;

	mov	DWORD PTR _Direction$7[ebp], 0

; 758  : 
; 759  : 			if((IO.povHatAngle[i] < 2250 || IO.povHatAngle[i] > 33750) && IO.povHatAngle[i] != -1)

	mov	edx, DWORD PTR _i$[ebp]
	cmp	DWORD PTR ?IO@@3VSIMLIB_IO_CLASS@@A[edx*4+1640], 2250 ; 000008caH
	jb	SHORT $LN26@ProcessJoy
	mov	eax, DWORD PTR _i$[ebp]
	cmp	DWORD PTR ?IO@@3VSIMLIB_IO_CLASS@@A[eax*4+1640], 33750 ; 000083d6H
	jbe	SHORT $LN27@ProcessJoy
$LN26@ProcessJoy:
	mov	ecx, DWORD PTR _i$[ebp]
	cmp	DWORD PTR ?IO@@3VSIMLIB_IO_CLASS@@A[ecx*4+1640], -1
	je	SHORT $LN27@ProcessJoy

; 760  : 				Direction = 0;

	mov	DWORD PTR _Direction$7[ebp], 0
	jmp	$LN25@ProcessJoy
$LN27@ProcessJoy:

; 761  : 			else if(IO.povHatAngle[i] < 6750 )

	mov	edx, DWORD PTR _i$[ebp]
	cmp	DWORD PTR ?IO@@3VSIMLIB_IO_CLASS@@A[edx*4+1640], 6750 ; 00001a5eH
	jae	SHORT $LN24@ProcessJoy

; 762  : 				Direction = 1;

	mov	DWORD PTR _Direction$7[ebp], 1
	jmp	$LN25@ProcessJoy
$LN24@ProcessJoy:

; 763  : 			else if(IO.povHatAngle[i] < 11250)

	mov	eax, DWORD PTR _i$[ebp]
	cmp	DWORD PTR ?IO@@3VSIMLIB_IO_CLASS@@A[eax*4+1640], 11250 ; 00002bf2H
	jae	SHORT $LN22@ProcessJoy

; 764  : 				Direction = 2;

	mov	DWORD PTR _Direction$7[ebp], 2
	jmp	SHORT $LN25@ProcessJoy
$LN22@ProcessJoy:

; 765  : 			else if(IO.povHatAngle[i] < 15750)

	mov	ecx, DWORD PTR _i$[ebp]
	cmp	DWORD PTR ?IO@@3VSIMLIB_IO_CLASS@@A[ecx*4+1640], 15750 ; 00003d86H
	jae	SHORT $LN20@ProcessJoy

; 766  : 				Direction = 3;

	mov	DWORD PTR _Direction$7[ebp], 3
	jmp	SHORT $LN25@ProcessJoy
$LN20@ProcessJoy:

; 767  : 			else if(IO.povHatAngle[i] < 20250)

	mov	edx, DWORD PTR _i$[ebp]
	cmp	DWORD PTR ?IO@@3VSIMLIB_IO_CLASS@@A[edx*4+1640], 20250 ; 00004f1aH
	jae	SHORT $LN18@ProcessJoy

; 768  : 				Direction = 4;

	mov	DWORD PTR _Direction$7[ebp], 4
	jmp	SHORT $LN25@ProcessJoy
$LN18@ProcessJoy:

; 769  : 			else if(IO.povHatAngle[i] < 24750)

	mov	eax, DWORD PTR _i$[ebp]
	cmp	DWORD PTR ?IO@@3VSIMLIB_IO_CLASS@@A[eax*4+1640], 24750 ; 000060aeH
	jae	SHORT $LN16@ProcessJoy

; 770  : 				Direction = 5;

	mov	DWORD PTR _Direction$7[ebp], 5
	jmp	SHORT $LN25@ProcessJoy
$LN16@ProcessJoy:

; 771  : 			else if(IO.povHatAngle[i] < 29250)

	mov	ecx, DWORD PTR _i$[ebp]
	cmp	DWORD PTR ?IO@@3VSIMLIB_IO_CLASS@@A[ecx*4+1640], 29250 ; 00007242H
	jae	SHORT $LN14@ProcessJoy

; 772  : 				Direction = 6;

	mov	DWORD PTR _Direction$7[ebp], 6
	jmp	SHORT $LN25@ProcessJoy
$LN14@ProcessJoy:

; 773  : 			else if(IO.povHatAngle[i] < 33750)

	mov	edx, DWORD PTR _i$[ebp]
	cmp	DWORD PTR ?IO@@3VSIMLIB_IO_CLASS@@A[edx*4+1640], 33750 ; 000083d6H
	jae	SHORT $LN25@ProcessJoy

; 774  : 				Direction = 7;

	mov	DWORD PTR _Direction$7[ebp], 7
$LN25@ProcessJoy:

; 775  : 
; 776  : 			if(LastDirPOV[i] != Direction)

	mov	eax, DWORD PTR _i$[ebp]
	mov	ecx, DWORD PTR _LastDirPOV[eax*4]
	cmp	ecx, DWORD PTR _Direction$7[ebp]
	je	SHORT $LN11@ProcessJoy

; 777  : 			{
; 778  : 				theFunc = UserFunctionTable.GetPOVFunction(i,LastDirPOV[i],&ID);

	lea	edx, DWORD PTR _ID$5[ebp]
	push	edx
	mov	eax, DWORD PTR _i$[ebp]
	mov	ecx, DWORD PTR _LastDirPOV[eax*4]
	push	ecx
	mov	edx, DWORD PTR _i$[ebp]
	push	edx
	mov	ecx, OFFSET ?UserFunctionTable@@3VInputFunctionHashTable@@A ; UserFunctionTable
	call	?GetPOVFunction@InputFunctionHashTable@@QAEP6AXKHPAX@ZHHPAH@Z ; InputFunctionHashTable::GetPOVFunction
	mov	DWORD PTR _theFunc$6[ebp], eax

; 779  : 				if(theFunc)

	cmp	DWORD PTR _theFunc$6[ebp], 0
	je	SHORT $LN10@ProcessJoy

; 780  : 					//theFunc(1, 0, NULL);
; 781  : 					CallFunc(theFunc,1, 0, NULL); //Wombat778 03-06-04 Use callfunc instead of directly calling funcs, so they can be captured

	push	0
	push	0
	push	1
	mov	eax, DWORD PTR _theFunc$6[ebp]
	push	eax
	call	?CallFunc@@YAXP6AXKHPAX@ZKH0@Z		; CallFunc
	add	esp, 16					; 00000010H
$LN10@ProcessJoy:

; 782  : 				LastDirPOV[i] = Direction;

	mov	ecx, DWORD PTR _i$[ebp]
	mov	edx, DWORD PTR _Direction$7[ebp]
	mov	DWORD PTR _LastDirPOV[ecx*4], edx
$LN11@ProcessJoy:

; 783  : 			}
; 784  : 
; 785  : 			DWORD curTicks = GetTickCount();

	call	DWORD PTR __imp__GetTickCount@0
	mov	DWORD PTR _curTicks$3[ebp], eax

; 786  : 			if(curTicks > LastPressedPOV[i] + REPEAT_DELAY)

	mov	eax, DWORD PTR _i$[ebp]
	mov	ecx, DWORD PTR _LastPressedPOV[eax*4]
	add	ecx, 200				; 000000c8H
	cmp	DWORD PTR _curTicks$3[ebp], ecx
	jbe	$LN9@ProcessJoy

; 787  : 			{
; 788  : 				theFunc = UserFunctionTable.GetPOVFunction(i,Direction,&ID);

	lea	edx, DWORD PTR _ID$5[ebp]
	push	edx
	mov	eax, DWORD PTR _Direction$7[ebp]
	push	eax
	mov	ecx, DWORD PTR _i$[ebp]
	push	ecx
	mov	ecx, OFFSET ?UserFunctionTable@@3VInputFunctionHashTable@@A ; UserFunctionTable
	call	?GetPOVFunction@InputFunctionHashTable@@QAEP6AXKHPAX@ZHHPAH@Z ; InputFunctionHashTable::GetPOVFunction
	mov	DWORD PTR _theFunc$6[ebp], eax

; 789  : 				if(theFunc)

	cmp	DWORD PTR _theFunc$6[ebp], 0
	je	SHORT $LN8@ProcessJoy

; 790  : 				{
; 791  : 					if( ID  < 0) {

	cmp	DWORD PTR _ID$5[ebp], 0
	jge	SHORT $LN7@ProcessJoy

; 792  : 						//theFunc(1, KEY_DOWN, NULL);
; 793  : 						CallFunc(theFunc,1, KEY_DOWN, NULL);		//Wombat778 03-06-04 Use callfunc instead of directly calling funcs, so they can be captured

	push	0
	push	8
	push	1
	mov	edx, DWORD PTR _theFunc$6[ebp]
	push	edx
	call	?CallFunc@@YAXP6AXKHPAX@ZKH0@Z		; CallFunc
	add	esp, 16					; 00000010H

; 794  : 					}
; 795  : 					else {

	jmp	SHORT $LN6@ProcessJoy
$LN7@ProcessJoy:

; 796  : 						//theFunc(1, KEY_DOWN, OTWDriver.pCockpitManager->GetButtonPointer(ID));
; 797  : 						CallFunc(theFunc,1, KEY_DOWN, OTWDriver.pCockpitManager->GetButtonPointer(ID));		//Wombat778 03-06-04 Use callfunc instead of directly calling funcs, so they can be captured

	mov	eax, DWORD PTR _ID$5[ebp]
	push	eax
	mov	ecx, DWORD PTR ?OTWDriver@@3VOTWDriverClass@@A+33684
	call	?GetButtonPointer@CockpitManager@@QAEPAVCPButtonObject@@H@Z ; CockpitManager::GetButtonPointer
	push	eax
	push	8
	push	1
	mov	ecx, DWORD PTR _theFunc$6[ebp]
	push	ecx
	call	?CallFunc@@YAXP6AXKHPAX@ZKH0@Z		; CallFunc
	add	esp, 16					; 00000010H

; 798  : 						OTWDriver.pCockpitManager->Dispatch(ID, 0);//the 0 should be mousside but I don't have anywhere

	push	0
	mov	edx, DWORD PTR _ID$5[ebp]
	push	edx
	mov	ecx, DWORD PTR ?OTWDriver@@3VOTWDriverClass@@A+33684
	call	?Dispatch@CockpitManager@@QAEXHH@Z	; CockpitManager::Dispatch
$LN6@ProcessJoy:

; 799  : 					}												//to store it and all functions currently use 0. ;)
; 800  : 				}
; 801  : 				else

	jmp	SHORT $LN5@ProcessJoy
$LN8@ProcessJoy:

; 802  : 					SimDriver.POVKludgeFunction(IO.povHatAngle[i]);

	mov	eax, DWORD PTR _i$[ebp]
	mov	ecx, DWORD PTR ?IO@@3VSIMLIB_IO_CLASS@@A[eax*4+1640]
	push	ecx
	mov	ecx, OFFSET ?SimDriver@@3VSimulationDriver@@A ; SimDriver
	call	?POVKludgeFunction@SimulationDriver@@QAEXK@Z ; SimulationDriver::POVKludgeFunction
$LN5@ProcessJoy:

; 803  : 
; 804  : 				LastPressedPOV[i] = curTicks;

	mov	edx, DWORD PTR _i$[ebp]
	mov	eax, DWORD PTR _curTicks$3[ebp]
	mov	DWORD PTR _LastPressedPOV[edx*4], eax
$LN9@ProcessJoy:

; 805  : 			}
; 806  : 		}

	jmp	SHORT $LN4@ProcessJoy
$LN28@ProcessJoy:

; 807  : 		else if (LastPressedPOV[i])

	mov	ecx, DWORD PTR _i$[ebp]
	cmp	DWORD PTR _LastPressedPOV[ecx*4], 0
	je	SHORT $LN4@ProcessJoy

; 808  : 		{
; 809  : 			LastPressedPOV[i] = 0;

	mov	edx, DWORD PTR _i$[ebp]
	mov	DWORD PTR _LastPressedPOV[edx*4], 0

; 810  : 			int ID;
; 811  : 			theFunc = UserFunctionTable.GetPOVFunction(i,LastDirPOV[i],&ID);

	lea	eax, DWORD PTR _ID$1[ebp]
	push	eax
	mov	ecx, DWORD PTR _i$[ebp]
	mov	edx, DWORD PTR _LastDirPOV[ecx*4]
	push	edx
	mov	eax, DWORD PTR _i$[ebp]
	push	eax
	mov	ecx, OFFSET ?UserFunctionTable@@3VInputFunctionHashTable@@A ; UserFunctionTable
	call	?GetPOVFunction@InputFunctionHashTable@@QAEP6AXKHPAX@ZHHPAH@Z ; InputFunctionHashTable::GetPOVFunction
	mov	DWORD PTR _theFunc$[ebp], eax

; 812  : 			if(theFunc)

	cmp	DWORD PTR _theFunc$[ebp], 0
	je	SHORT $LN2@ProcessJoy

; 813  : 				//theFunc(1, 0, NULL);
; 814  : 				CallFunc(theFunc,1, 0, NULL);	//Wombat778 03-06-04 Use callfunc instead of directly calling funcs, so they can be captured

	push	0
	push	0
	push	1
	mov	ecx, DWORD PTR _theFunc$[ebp]
	push	ecx
	call	?CallFunc@@YAXP6AXKHPAX@ZKH0@Z		; CallFunc
	add	esp, 16					; 00000010H

; 815  : 			else

	jmp	SHORT $LN4@ProcessJoy
$LN2@ProcessJoy:

; 816  : 				SimDriver.POVKludgeFunction(IO.povHatAngle[i]);

	mov	edx, DWORD PTR _i$[ebp]
	mov	eax, DWORD PTR ?IO@@3VSIMLIB_IO_CLASS@@A[edx*4+1640]
	push	eax
	mov	ecx, OFFSET ?SimDriver@@3VSimulationDriver@@A ; SimDriver
	call	?POVKludgeFunction@SimulationDriver@@QAEXK@Z ; SimulationDriver::POVKludgeFunction
$LN4@ProcessJoy:

; 817  : 		}
; 818  : 		
; 819  : 	}

	jmp	$LN30@ProcessJoy
$LN51@ProcessJoy:

; 820  : 
; 821  : 	//SimDriver.POVKludgeFunction(IO.povHatAngle[0]);	
; 822  : 	
; 823  : }

	mov	esp, ebp
	pop	ebp
	ret	0
?ProcessJoyButtonAndPOVHat@@YAXXZ ENDP			; ProcessJoyButtonAndPOVHat
_TEXT	ENDS
; Function compile flags: /Odtp
; File c:\users\zhitao li\documents\visual studio 2012\projects\freefalcon\sim\siminput\sijoy.cpp
_TEXT	SEGMENT
tv137 = -108						; size = 4
tv241 = -104						; size = 4
tv138 = -100						; size = 4
tv219 = -96						; size = 4
_hRes$ = -92						; size = 4
_theDeviceValue$1 = -88					; size = 4
_joyState$ = -84					; size = 80
__$ArrayPad$ = -4					; size = 4
?ReadThrottle@@YAMXZ PROC				; ReadThrottle

; 829  : {

	push	ebp
	mov	ebp, esp
	sub	esp, 108				; 0000006cH
	mov	eax, DWORD PTR ___security_cookie
	xor	eax, ebp
	mov	DWORD PTR __$ArrayPad$[ebp], eax
	push	esi

; 830  : 
; 831  : 	HRESULT hRes;
; 832  : 	DIJOYSTATE joyState;
; 833  : 
; 834  : 	if((gTotalJoy)&&(IO.AnalogIsUsed(AXIS_THROTTLE) == true))	// Retro 4Jan2004

	cmp	DWORD PTR ?gTotalJoy@@3HA, 0		; gTotalJoy
	je	$LN27@ReadThrott
	push	3
	mov	ecx, OFFSET ?IO@@3VSIMLIB_IO_CLASS@@A	; IO
	call	?AnalogIsUsed@SIMLIB_IO_CLASS@@QAE_NW4GameAxis_t@@@Z ; SIMLIB_IO_CLASS::AnalogIsUsed
	movzx	eax, al
	cmp	eax, 1
	jne	$LN27@ReadThrott

; 835  : 	{
; 836  : 
; 837  : 		hRes = ((LPDIRECTINPUTDEVICE2)gpDIDevice[AxisMap.Throttle.Device])->Poll();

	mov	ecx, DWORD PTR ?AxisMap@@3UAxisMapping@@A+72
	mov	edx, DWORD PTR ?gpDIDevice@@3PAPAUIDirectInputDevice8A@@A[ecx*4]
	mov	eax, DWORD PTR ?AxisMap@@3UAxisMapping@@A+72
	mov	ecx, DWORD PTR ?gpDIDevice@@3PAPAUIDirectInputDevice8A@@A[eax*4]
	mov	edx, DWORD PTR [edx]
	push	ecx
	mov	eax, DWORD PTR [edx+100]
	call	eax
	mov	DWORD PTR _hRes$[ebp], eax

; 838  : 
; 839  : 		// Retro 21Jan2004
; 840  : 		if ((hRes == DIERR_INPUTLOST)||(hRes == DIERR_NOTACQUIRED))

	cmp	DWORD PTR _hRes$[ebp], -2147024866	; 8007001eH
	je	SHORT $LN25@ReadThrott
	cmp	DWORD PTR _hRes$[ebp], -2147024884	; 8007000cH
	jne	SHORT $LN24@ReadThrott
$LN25@ReadThrott:

; 841  : 		{
; 842  : 			hRes = gpDIDevice[AxisMap.Throttle.Device]->Acquire();

	mov	ecx, DWORD PTR ?AxisMap@@3UAxisMapping@@A+72
	mov	edx, DWORD PTR ?gpDIDevice@@3PAPAUIDirectInputDevice8A@@A[ecx*4]
	mov	eax, DWORD PTR ?AxisMap@@3UAxisMapping@@A+72
	mov	ecx, DWORD PTR ?gpDIDevice@@3PAPAUIDirectInputDevice8A@@A[eax*4]
	mov	edx, DWORD PTR [edx]
	push	ecx
	mov	eax, DWORD PTR [edx+28]
	call	eax
	mov	DWORD PTR _hRes$[ebp], eax

; 843  : 			if (hRes != DI_OK)

	cmp	DWORD PTR _hRes$[ebp], 0
	je	SHORT $LN24@ReadThrott

; 844  : 			{
; 845  : #pragma warning(disable:4127)
; 846  : 				ShiAssert(false);
; 847  : #pragma warning(default:4127)
; 848  : 				return 0.;

	fldz
	jmp	$LN28@ReadThrott
$LN24@ReadThrott:

; 849  : 			}
; 850  : 		}
; 851  : 		// Retro 21Jan2004 end
; 852  : 		
; 853  : 		hRes = gpDIDevice[AxisMap.Throttle.Device]->GetDeviceState(sizeof(DIJOYSTATE),&joyState);

	lea	ecx, DWORD PTR _joyState$[ebp]
	push	ecx
	push	80					; 00000050H
	mov	edx, DWORD PTR ?AxisMap@@3UAxisMapping@@A+72
	mov	eax, DWORD PTR ?gpDIDevice@@3PAPAUIDirectInputDevice8A@@A[edx*4]
	mov	ecx, DWORD PTR ?AxisMap@@3UAxisMapping@@A+72
	mov	edx, DWORD PTR ?gpDIDevice@@3PAPAUIDirectInputDevice8A@@A[ecx*4]
	mov	eax, DWORD PTR [eax]
	push	edx
	mov	ecx, DWORD PTR [eax+36]
	call	ecx
	mov	DWORD PTR _hRes$[ebp], eax

; 854  : 
; 855  : 		//ShiAssert(hRes == DI_OK);	// Retro 4Jan2004  // MLR 5/2/2004 - driving me nuts
; 856  : 
; 857  : 		long theDeviceValue = 0;

	mov	DWORD PTR _theDeviceValue$1[ebp], 0

; 858  : 
; 859  : 		switch(hRes)

	mov	edx, DWORD PTR _hRes$[ebp]
	mov	DWORD PTR tv137[ebp], edx
	cmp	DWORD PTR tv137[ebp], 0
	je	SHORT $LN21@ReadThrott
	jmp	$LN6@ReadThrott
$LN21@ReadThrott:

; 860  : 		{
; 861  : 		case DI_OK:
; 862  : 			switch (AxisMap.Throttle.Axis)

	mov	eax, DWORD PTR ?AxisMap@@3UAxisMapping@@A+76
	mov	DWORD PTR tv138[ebp], eax
	cmp	DWORD PTR tv138[ebp], 7
	ja	SHORT $LN19@ReadThrott
	mov	ecx, DWORD PTR tv138[ebp]
	jmp	DWORD PTR $LN30@ReadThrott[ecx*4]
$LN18@ReadThrott:

; 863  : 			{
; 864  : 			case DX_XAXIS:	theDeviceValue = joyState.lX; break;

	mov	edx, DWORD PTR _joyState$[ebp]
	mov	DWORD PTR _theDeviceValue$1[ebp], edx
	jmp	SHORT $LN19@ReadThrott
$LN17@ReadThrott:

; 865  : 			case DX_YAXIS:	theDeviceValue = joyState.lY; break;

	mov	eax, DWORD PTR _joyState$[ebp+4]
	mov	DWORD PTR _theDeviceValue$1[ebp], eax
	jmp	SHORT $LN19@ReadThrott
$LN16@ReadThrott:

; 866  : 			case DX_ZAXIS:	theDeviceValue = joyState.lZ; break;

	mov	ecx, DWORD PTR _joyState$[ebp+8]
	mov	DWORD PTR _theDeviceValue$1[ebp], ecx
	jmp	SHORT $LN19@ReadThrott
$LN15@ReadThrott:

; 867  : 			case DX_RXAXIS:	theDeviceValue = joyState.lRx; break;

	mov	edx, DWORD PTR _joyState$[ebp+12]
	mov	DWORD PTR _theDeviceValue$1[ebp], edx
	jmp	SHORT $LN19@ReadThrott
$LN14@ReadThrott:

; 868  : 			case DX_RYAXIS:	theDeviceValue = joyState.lRy; break;

	mov	eax, DWORD PTR _joyState$[ebp+16]
	mov	DWORD PTR _theDeviceValue$1[ebp], eax
	jmp	SHORT $LN19@ReadThrott
$LN13@ReadThrott:

; 869  : 			case DX_RZAXIS:	theDeviceValue = joyState.lRz; break;

	mov	ecx, DWORD PTR _joyState$[ebp+20]
	mov	DWORD PTR _theDeviceValue$1[ebp], ecx
	jmp	SHORT $LN19@ReadThrott
$LN12@ReadThrott:

; 870  : 			case DX_SLIDER0:	theDeviceValue = joyState.rglSlider[0]; break;

	mov	edx, 4
	imul	edx, 0
	mov	eax, DWORD PTR _joyState$[ebp+edx+24]
	mov	DWORD PTR _theDeviceValue$1[ebp], eax
	jmp	SHORT $LN19@ReadThrott
$LN11@ReadThrott:

; 871  : 			case DX_SLIDER1:	theDeviceValue = joyState.rglSlider[1]; break;

	mov	ecx, 4
	shl	ecx, 0
	mov	edx, DWORD PTR _joyState$[ebp+ecx+24]
	mov	DWORD PTR _theDeviceValue$1[ebp], edx
$LN19@ReadThrott:

; 872  : 			}
; 873  : 			JoyOutput[AXIS_THROTTLE][OldInput] = JoyOutput[AXIS_THROTTLE][NewInput];

	mov	eax, 8
	imul	eax, 3
	mov	ecx, 4
	imul	ecx, 0
	mov	edx, 8
	imul	edx, 3
	mov	esi, 4
	shl	esi, 0
	mov	eax, DWORD PTR _JoyOutput[eax+ecx]
	mov	DWORD PTR _JoyOutput[edx+esi], eax

; 874  : 			JoyOutput[AXIS_THROTTLE][NewInput] = theDeviceValue;

	mov	ecx, 8
	imul	ecx, 3
	mov	edx, 4
	imul	edx, 0
	mov	eax, DWORD PTR _theDeviceValue$1[ebp]
	mov	DWORD PTR _JoyOutput[ecx+edx], eax

; 875  : 
; 876  : 			IO.analog[AXIS_THROTTLE].ioVal = theDeviceValue;	// Retro 11Jan2004

	mov	ecx, 28					; 0000001cH
	imul	ecx, 3
	mov	edx, DWORD PTR _theDeviceValue$1[ebp]
	mov	DWORD PTR ?IO@@3VSIMLIB_IO_CLASS@@A[ecx+8], edx

; 877  : 			
; 878  : 			if(IO.analog[AXIS_THROTTLE].center && theDeviceValue > IO.analog[AXIS_THROTTLE].center)

	mov	eax, 28					; 0000001cH
	imul	eax, 3
	cmp	DWORD PTR ?IO@@3VSIMLIB_IO_CLASS@@A[eax], 0
	je	SHORT $LN10@ReadThrott
	mov	ecx, 28					; 0000001cH
	imul	ecx, 3
	mov	edx, DWORD PTR _theDeviceValue$1[ebp]
	cmp	edx, DWORD PTR ?IO@@3VSIMLIB_IO_CLASS@@A[ecx]
	jle	SHORT $LN10@ReadThrott

; 879  : 				IO.analog[AXIS_THROTTLE].engrValue = (15000.0F - theDeviceValue)/(15000.0F - IO.analog[AXIS_THROTTLE].center);

	cvtsi2ss xmm0, DWORD PTR _theDeviceValue$1[ebp]
	movss	xmm1, DWORD PTR __real@466a6000
	subss	xmm1, xmm0
	mov	eax, 28					; 0000001cH
	imul	eax, 3
	cvtsi2ss xmm0, DWORD PTR ?IO@@3VSIMLIB_IO_CLASS@@A[eax]
	movss	xmm2, DWORD PTR __real@466a6000
	subss	xmm2, xmm0
	divss	xmm1, xmm2
	mov	ecx, 28					; 0000001cH
	imul	ecx, 3
	movss	DWORD PTR ?IO@@3VSIMLIB_IO_CLASS@@A[ecx+16], xmm1
	jmp	$LN7@ReadThrott
$LN10@ReadThrott:

; 880  : 			else if(IO.analog[AXIS_THROTTLE].center)

	mov	edx, 28					; 0000001cH
	imul	edx, 3
	cmp	DWORD PTR ?IO@@3VSIMLIB_IO_CLASS@@A[edx], 0
	je	SHORT $LN8@ReadThrott

; 881  : 				IO.analog[AXIS_THROTTLE].engrValue = 1.0F + (IO.analog[AXIS_THROTTLE].center - theDeviceValue)/(IO.analog[AXIS_THROTTLE].center*2.0F);

	mov	eax, 28					; 0000001cH
	imul	eax, 3
	mov	ecx, DWORD PTR ?IO@@3VSIMLIB_IO_CLASS@@A[eax]
	sub	ecx, DWORD PTR _theDeviceValue$1[ebp]
	cvtsi2ss xmm0, ecx
	mov	edx, 28					; 0000001cH
	imul	edx, 3
	cvtsi2ss xmm1, DWORD PTR ?IO@@3VSIMLIB_IO_CLASS@@A[edx]
	mulss	xmm1, DWORD PTR __real@40000000
	divss	xmm0, xmm1
	addss	xmm0, DWORD PTR __real@3f800000
	mov	eax, 28					; 0000001cH
	imul	eax, 3
	movss	DWORD PTR ?IO@@3VSIMLIB_IO_CLASS@@A[eax+16], xmm0

; 882  : 			else

	jmp	SHORT $LN7@ReadThrott
$LN8@ReadThrott:

; 883  : 				IO.analog[AXIS_THROTTLE].engrValue = (15000.0F - theDeviceValue)/10000.0F;

	cvtsi2ss xmm0, DWORD PTR _theDeviceValue$1[ebp]
	movss	xmm1, DWORD PTR __real@466a6000
	subss	xmm1, xmm0
	divss	xmm1, DWORD PTR __real@461c4000
	mov	ecx, 28					; 0000001cH
	imul	ecx, 3
	movss	DWORD PTR ?IO@@3VSIMLIB_IO_CLASS@@A[ecx+16], xmm1
$LN7@ReadThrott:

; 884  : 			break;

	jmp	SHORT $LN22@ReadThrott
$LN6@ReadThrott:

; 885  : 			
; 886  : 		default:
; 887  : 			AcquireDeviceInput(AxisMap.Throttle.Device, TRUE);

	push	1
	mov	edx, DWORD PTR ?AxisMap@@3UAxisMapping@@A+72
	push	edx
	call	?AcquireDeviceInput@@YAXHH@Z		; AcquireDeviceInput
	add	esp, 8

; 888  : 			if(SimDriver.GetPlayerAircraft() && SimDriver.GetPlayerAircraft()->OnGround())

	mov	ecx, OFFSET ?SimDriver@@3VSimulationDriver@@A ; SimDriver
	call	?GetPlayerAircraft@SimulationDriver@@QBEPAVAircraftClass@@XZ ; SimulationDriver::GetPlayerAircraft
	test	eax, eax
	je	SHORT $LN5@ReadThrott
	mov	ecx, OFFSET ?SimDriver@@3VSimulationDriver@@A ; SimDriver
	call	?GetPlayerAircraft@SimulationDriver@@QBEPAVAircraftClass@@XZ ; SimulationDriver::GetPlayerAircraft
	mov	DWORD PTR tv219[ebp], eax
	mov	eax, DWORD PTR tv219[ebp]
	mov	edx, DWORD PTR [eax]
	mov	ecx, DWORD PTR tv219[ebp]
	mov	eax, DWORD PTR [edx+148]
	call	eax
	test	eax, eax
	je	SHORT $LN5@ReadThrott

; 889  : 				IO.analog[AXIS_THROTTLE].engrValue = 0.0f;

	mov	ecx, 28					; 0000001cH
	imul	ecx, 3
	movss	xmm0, DWORD PTR __real@00000000
	movss	DWORD PTR ?IO@@3VSIMLIB_IO_CLASS@@A[ecx+16], xmm0

; 890  : 			else

	jmp	SHORT $LN4@ReadThrott
$LN5@ReadThrott:

; 891  : 				IO.analog[AXIS_THROTTLE].engrValue = 1.0f;

	mov	edx, 28					; 0000001cH
	imul	edx, 3
	movss	xmm0, DWORD PTR __real@3f800000
	movss	DWORD PTR ?IO@@3VSIMLIB_IO_CLASS@@A[edx+16], xmm0
$LN4@ReadThrott:
$LN22@ReadThrott:

; 892  : 		}
; 893  : 	}
; 894  : 	else

	jmp	SHORT $LN1@ReadThrott
$LN27@ReadThrott:

; 895  : 	{
; 896  : 		if(SimDriver.GetPlayerAircraft() && SimDriver.GetPlayerAircraft()->OnGround())

	mov	ecx, OFFSET ?SimDriver@@3VSimulationDriver@@A ; SimDriver
	call	?GetPlayerAircraft@SimulationDriver@@QBEPAVAircraftClass@@XZ ; SimulationDriver::GetPlayerAircraft
	test	eax, eax
	je	SHORT $LN2@ReadThrott
	mov	ecx, OFFSET ?SimDriver@@3VSimulationDriver@@A ; SimDriver
	call	?GetPlayerAircraft@SimulationDriver@@QBEPAVAircraftClass@@XZ ; SimulationDriver::GetPlayerAircraft
	mov	DWORD PTR tv241[ebp], eax
	mov	eax, DWORD PTR tv241[ebp]
	mov	edx, DWORD PTR [eax]
	mov	ecx, DWORD PTR tv241[ebp]
	mov	eax, DWORD PTR [edx+148]
	call	eax
	test	eax, eax
	je	SHORT $LN2@ReadThrott

; 897  : 			IO.analog[AXIS_THROTTLE].engrValue = 0.0f;

	mov	ecx, 28					; 0000001cH
	imul	ecx, 3
	movss	xmm0, DWORD PTR __real@00000000
	movss	DWORD PTR ?IO@@3VSIMLIB_IO_CLASS@@A[ecx+16], xmm0

; 898  : 		else

	jmp	SHORT $LN1@ReadThrott
$LN2@ReadThrott:

; 899  : 			IO.analog[AXIS_THROTTLE].engrValue = 1.0f;

	mov	edx, 28					; 0000001cH
	imul	edx, 3
	movss	xmm0, DWORD PTR __real@3f800000
	movss	DWORD PTR ?IO@@3VSIMLIB_IO_CLASS@@A[edx+16], xmm0
$LN1@ReadThrott:

; 900  : 	}
; 901  : 
; 902  : 	return IO.analog[AXIS_THROTTLE].engrValue;

	mov	eax, 28					; 0000001cH
	imul	eax, 3
	fld	DWORD PTR ?IO@@3VSIMLIB_IO_CLASS@@A[eax+16]
$LN28@ReadThrott:

; 903  : }

	pop	esi
	mov	ecx, DWORD PTR __$ArrayPad$[ebp]
	xor	ecx, ebp
	call	@__security_check_cookie@4
	mov	esp, ebp
	pop	ebp
	ret	0
$LN30@ReadThrott:
	DD	$LN18@ReadThrott
	DD	$LN17@ReadThrott
	DD	$LN16@ReadThrott
	DD	$LN15@ReadThrott
	DD	$LN14@ReadThrott
	DD	$LN13@ReadThrott
	DD	$LN12@ReadThrott
	DD	$LN11@ReadThrott
?ReadThrottle@@YAMXZ ENDP				; ReadThrottle
_TEXT	ENDS
; Function compile flags: /Odtp
; File c:\users\zhitao li\documents\visual studio 2012\projects\freefalcon\sim\siminput\sijoy.cpp
_TEXT	SEGMENT
tv135 = -700						; size = 4
tv1100 = -696						; size = 4
_POVCentered$1 = -692					; size = 4
tv1049 = -688						; size = 4
_reversedValue$2 = -684					; size = 4
tv1074 = -680						; size = 4
tv1281 = -676						; size = 4
tv1115 = -672						; size = 4
tv1271 = -668						; size = 4
tv1090 = -664						; size = 4
tv1256 = -660						; size = 4
tv1064 = -656						; size = 4
tv1246 = -652						; size = 4
tv1125 = -648						; size = 4
tv1039 = -644						; size = 4
tv196 = -640						; size = 4
tv506 = -636						; size = 4
tv645 = -632						; size = 4
_correctedVal$3 = -628					; size = 4
_maxThrottleVal$4 = -624				; size = 4
_maxThrottleVal$5 = -620				; size = 4
_j$6 = -616						; size = 4
_hRes$ = -612						; size = 4
_j$7 = -608						; size = 4
_a$8 = -604						; size = 4
_i$9 = -600						; size = 4
_joyState$ = -596					; size = 80
_device_axis_values$ = -516				; size = 512
__$ArrayPad$ = -4					; size = 4
?GetJoystickInput@@YAXXZ PROC				; GetJoystickInput

; 232  : {

	push	ebp
	mov	ebp, esp
	sub	esp, 700				; 000002bcH
	mov	eax, DWORD PTR ___security_cookie
	xor	eax, ebp
	mov	DWORD PTR __$ArrayPad$[ebp], eax
	push	esi

; 233  : 	Prof(GetJoystickInput);
; 234  : 
; 235  : 	HRESULT hRes;
; 236  : 	DIJOYSTATE joyState;
; 237  : 
; 238  : 	if (!gTotalJoy)

	cmp	DWORD PTR ?gTotalJoy@@3HA, 0		; gTotalJoy
	jne	SHORT $LN80@GetJoystic

; 239  : 		return;		// returning if we dont have a stick

	jmp	$LN81@GetJoystic
$LN80@GetJoystic:

; 240  : 
; 241  : 	long device_axis_values[SIM_NUMDEVICES][8];	// 8 axis in a DIJOYSTATE structure.. dont think well switch to DIJOYSTATE2
; 242  : 
; 243  : 	/*******************************************************************************/
; 244  : 	//	Polling all devices..
; 245  : 	/*******************************************************************************/
; 246  : 	for (int i = SIM_JOYSTICK1; i < gTotalJoy+SIM_JOYSTICK1; i++)

	mov	DWORD PTR _i$9[ebp], 2
	jmp	SHORT $LN79@GetJoystic
$LN78@GetJoystic:
	mov	eax, DWORD PTR _i$9[ebp]
	add	eax, 1
	mov	DWORD PTR _i$9[ebp], eax
$LN79@GetJoystic:
	mov	ecx, DWORD PTR ?gTotalJoy@@3HA		; gTotalJoy
	add	ecx, 2
	cmp	DWORD PTR _i$9[ebp], ecx
	jge	$LN77@GetJoystic

; 247  : 	{
; 248  : //		hRes = ((LPDIRECTINPUTDEVICE2)gpDIDevice[i])->Poll();
; 249  : 		hRes = gpDIDevice[i]->Poll();	// Retro 21Jan2004

	mov	edx, DWORD PTR _i$9[ebp]
	mov	eax, DWORD PTR ?gpDIDevice@@3PAPAUIDirectInputDevice8A@@A[edx*4]
	mov	ecx, DWORD PTR _i$9[ebp]
	mov	edx, DWORD PTR ?gpDIDevice@@3PAPAUIDirectInputDevice8A@@A[ecx*4]
	mov	eax, DWORD PTR [eax]
	push	edx
	mov	ecx, DWORD PTR [eax+100]
	call	ecx
	mov	DWORD PTR _hRes$[ebp], eax

; 250  : 
; 251  : 		// Retro 21Jan2004
; 252  : 		if ((hRes == DIERR_INPUTLOST)||(hRes == DIERR_NOTACQUIRED))

	cmp	DWORD PTR _hRes$[ebp], -2147024866	; 8007001eH
	je	SHORT $LN75@GetJoystic
	cmp	DWORD PTR _hRes$[ebp], -2147024884	; 8007000cH
	jne	SHORT $LN74@GetJoystic
$LN75@GetJoystic:

; 253  : 		{
; 254  : 			hRes = gpDIDevice[i]->Acquire();

	mov	edx, DWORD PTR _i$9[ebp]
	mov	eax, DWORD PTR ?gpDIDevice@@3PAPAUIDirectInputDevice8A@@A[edx*4]
	mov	ecx, DWORD PTR _i$9[ebp]
	mov	edx, DWORD PTR ?gpDIDevice@@3PAPAUIDirectInputDevice8A@@A[ecx*4]
	mov	eax, DWORD PTR [eax]
	push	edx
	mov	ecx, DWORD PTR [eax+28]
	call	ecx
	mov	DWORD PTR _hRes$[ebp], eax

; 255  : 			if (hRes != DI_OK)

	cmp	DWORD PTR _hRes$[ebp], 0
	je	SHORT $LN74@GetJoystic

; 256  : 			{
; 257  : #pragma warning(disable:4127)
; 258  : 				ShiAssert(false);
; 259  : #pragma warning(default:4127)
; 260  : 				continue;

	jmp	$LN78@GetJoystic
$LN74@GetJoystic:

; 261  : 			}
; 262  : 		}
; 263  : 		// Retro 21Jan2004 end
; 264  : 		
; 265  : 		hRes = gpDIDevice[i]->GetDeviceState(sizeof(DIJOYSTATE),&joyState);

	lea	edx, DWORD PTR _joyState$[ebp]
	push	edx
	push	80					; 00000050H
	mov	eax, DWORD PTR _i$9[ebp]
	mov	ecx, DWORD PTR ?gpDIDevice@@3PAPAUIDirectInputDevice8A@@A[eax*4]
	mov	edx, DWORD PTR _i$9[ebp]
	mov	eax, DWORD PTR ?gpDIDevice@@3PAPAUIDirectInputDevice8A@@A[edx*4]
	mov	ecx, DWORD PTR [ecx]
	push	eax
	mov	edx, DWORD PTR [ecx+36]
	call	edx
	mov	DWORD PTR _hRes$[ebp], eax

; 266  : 		
; 267  : 		switch(hRes)

	mov	eax, DWORD PTR _hRes$[ebp]
	mov	DWORD PTR tv135[ebp], eax
	cmp	DWORD PTR tv135[ebp], 0
	je	SHORT $LN71@GetJoystic
	jmp	$LN70@GetJoystic
$LN71@GetJoystic:

; 268  : 		{
; 269  : 		case DI_OK:
; 270  : 			{
; 271  : 				/*******************************************************************************/
; 272  : 				//	note the values of ALL axis
; 273  : 				/*******************************************************************************/
; 274  : 				device_axis_values[i][DX_XAXIS] = joyState.lX;

	mov	ecx, DWORD PTR _i$9[ebp]
	shl	ecx, 5
	lea	edx, DWORD PTR _device_axis_values$[ebp+ecx]
	mov	eax, 4
	imul	eax, 0
	mov	ecx, DWORD PTR _joyState$[ebp]
	mov	DWORD PTR [edx+eax], ecx

; 275  : 				device_axis_values[i][DX_YAXIS] = joyState.lY;

	mov	edx, DWORD PTR _i$9[ebp]
	shl	edx, 5
	lea	eax, DWORD PTR _device_axis_values$[ebp+edx]
	mov	ecx, 4
	shl	ecx, 0
	mov	edx, DWORD PTR _joyState$[ebp+4]
	mov	DWORD PTR [eax+ecx], edx

; 276  : 				device_axis_values[i][DX_ZAXIS] = joyState.lZ;

	mov	eax, DWORD PTR _i$9[ebp]
	shl	eax, 5
	lea	ecx, DWORD PTR _device_axis_values$[ebp+eax]
	mov	edx, 4
	shl	edx, 1
	mov	eax, DWORD PTR _joyState$[ebp+8]
	mov	DWORD PTR [ecx+edx], eax

; 277  : 				device_axis_values[i][DX_RXAXIS] = joyState.lRx;

	mov	ecx, DWORD PTR _i$9[ebp]
	shl	ecx, 5
	lea	edx, DWORD PTR _device_axis_values$[ebp+ecx]
	mov	eax, 4
	imul	eax, 3
	mov	ecx, DWORD PTR _joyState$[ebp+12]
	mov	DWORD PTR [edx+eax], ecx

; 278  : 				device_axis_values[i][DX_RYAXIS] = joyState.lRy;

	mov	edx, DWORD PTR _i$9[ebp]
	shl	edx, 5
	lea	eax, DWORD PTR _device_axis_values$[ebp+edx]
	mov	ecx, 4
	shl	ecx, 2
	mov	edx, DWORD PTR _joyState$[ebp+16]
	mov	DWORD PTR [eax+ecx], edx

; 279  : 				device_axis_values[i][DX_RZAXIS] = joyState.lRz;

	mov	eax, DWORD PTR _i$9[ebp]
	shl	eax, 5
	lea	ecx, DWORD PTR _device_axis_values$[ebp+eax]
	mov	edx, 4
	imul	edx, 5
	mov	eax, DWORD PTR _joyState$[ebp+20]
	mov	DWORD PTR [ecx+edx], eax

; 280  : 				device_axis_values[i][DX_SLIDER0] = joyState.rglSlider[0];

	mov	ecx, 4
	imul	ecx, 0
	mov	edx, DWORD PTR _i$9[ebp]
	shl	edx, 5
	lea	eax, DWORD PTR _device_axis_values$[ebp+edx]
	mov	edx, 4
	imul	edx, 6
	mov	ecx, DWORD PTR _joyState$[ebp+ecx+24]
	mov	DWORD PTR [eax+edx], ecx

; 281  : 				device_axis_values[i][DX_SLIDER1] = joyState.rglSlider[1];

	mov	edx, 4
	shl	edx, 0
	mov	eax, DWORD PTR _i$9[ebp]
	shl	eax, 5
	lea	ecx, DWORD PTR _device_axis_values$[ebp+eax]
	mov	eax, 4
	imul	eax, 7
	mov	edx, DWORD PTR _joyState$[ebp+edx+24]
	mov	DWORD PTR [ecx+eax], edx

; 282  : 				break;

	jmp	SHORT $LN72@GetJoystic
$LN70@GetJoystic:

; 283  : 			}
; 284  : 		default:
; 285  : 			{
; 286  : 			AcquireDeviceInput(i, TRUE);

	push	1
	mov	eax, DWORD PTR _i$9[ebp]
	push	eax
	call	?AcquireDeviceInput@@YAXHH@Z		; AcquireDeviceInput
	add	esp, 8
$LN72@GetJoystic:

; 287  : 			break;
; 288  : 			}
; 289  : 		}
; 290  : 
; 291  : 		/*******************************************************************************/
; 292  : 		// polling the buttons (but NOT the POVs) of ALL connected joystick devices
; 293  : 		// device 0 gets inputbuttons 0-31, device 1 gets 32-63, device 2 gets 64-95 etc
; 294  : 		//
; 295  : 		// could be optimized by 1) only polling devices with axis assigned and 2)
; 296  : 		// only polling devices that own buttons (and only these buttons, not 32)
; 297  : 		/*******************************************************************************/
; 298  : 		for(int j = 0; j < SIMLIB_MAX_DIGITAL; j++)

	mov	DWORD PTR _j$6[ebp], 0
	jmp	SHORT $LN69@GetJoystic
$LN68@GetJoystic:
	mov	ecx, DWORD PTR _j$6[ebp]
	add	ecx, 1
	mov	DWORD PTR _j$6[ebp], ecx
$LN69@GetJoystic:
	cmp	DWORD PTR _j$6[ebp], 32			; 00000020H
	jge	SHORT $LN67@GetJoystic

; 299  : 		{
; 300  : 			IO.digital[j+(SIMLIB_MAX_DIGITAL*(i-SIM_JOYSTICK1))] = (short)(joyState.rgbButtons[j] & BUTTON_PRESSED);

	mov	edx, DWORD PTR _j$6[ebp]
	movzx	eax, BYTE PTR _joyState$[ebp+edx+48]
	and	eax, 128				; 00000080H
	mov	ecx, DWORD PTR _i$9[ebp]
	sub	ecx, 2
	shl	ecx, 5
	add	ecx, DWORD PTR _j$6[ebp]
	mov	WORD PTR ?IO@@3VSIMLIB_IO_CLASS@@A[ecx*2+616], ax

; 301  : 		}

	jmp	SHORT $LN68@GetJoystic
$LN67@GetJoystic:

; 302  : 
; 303  : 		/*******************************************************************************/
; 304  : 		//	poll POV ONLY of current controller.. dunno if I should expand that
; 305  : 		/*******************************************************************************/
; 306  : 		if (i == AxisMap.FlightControlDevice)

	mov	edx, DWORD PTR _i$9[ebp]
	cmp	edx, DWORD PTR ?AxisMap@@3UAxisMapping@@A
	jne	$LN63@GetJoystic

; 307  : 		{
; 308  : 			BOOL POVCentered;
; 309  : 			unsigned int j = 0;

	mov	DWORD PTR _j$7[ebp], 0

; 310  : 
; 311  : 			for (j = 0; j < NumberOfPOVs; j++)	// Retro 26Dec2003

	mov	DWORD PTR _j$7[ebp], 0
	jmp	SHORT $LN65@GetJoystic
$LN64@GetJoystic:
	mov	eax, DWORD PTR _j$7[ebp]
	add	eax, 1
	mov	DWORD PTR _j$7[ebp], eax
$LN65@GetJoystic:
	mov	ecx, DWORD PTR _j$7[ebp]
	cmp	ecx, DWORD PTR ?NumberOfPOVs@@3IA	; NumberOfPOVs
	jae	SHORT $LN63@GetJoystic

; 312  : 			{
; 313  : 				POVCentered = (LOWORD(joyState.rgdwPOV[j]) == 0xFFFF);

	mov	edx, DWORD PTR _j$7[ebp]
	mov	eax, DWORD PTR _joyState$[ebp+edx*4+32]
	and	eax, 65535				; 0000ffffH
	movzx	ecx, ax
	cmp	ecx, 65535				; 0000ffffH
	jne	SHORT $LN83@GetJoystic
	mov	DWORD PTR tv196[ebp], 1
	jmp	SHORT $LN84@GetJoystic
$LN83@GetJoystic:
	mov	DWORD PTR tv196[ebp], 0
$LN84@GetJoystic:
	mov	edx, DWORD PTR tv196[ebp]
	mov	DWORD PTR _POVCentered$1[ebp], edx

; 314  : 				
; 315  : 				if(POVCentered)

	cmp	DWORD PTR _POVCentered$1[ebp], 0
	je	SHORT $LN62@GetJoystic

; 316  : 					IO.povHatAngle[j] = (unsigned long)-1;

	mov	eax, DWORD PTR _j$7[ebp]
	mov	DWORD PTR ?IO@@3VSIMLIB_IO_CLASS@@A[eax*4+1640], -1

; 317  : 				else

	jmp	SHORT $LN61@GetJoystic
$LN62@GetJoystic:

; 318  : 					IO.povHatAngle[j] = joyState.rgdwPOV[j];

	mov	ecx, DWORD PTR _j$7[ebp]
	mov	edx, DWORD PTR _j$7[ebp]
	mov	eax, DWORD PTR _joyState$[ebp+edx*4+32]
	mov	DWORD PTR ?IO@@3VSIMLIB_IO_CLASS@@A[ecx*4+1640], eax
$LN61@GetJoystic:

; 319  : 			}

	jmp	$LN64@GetJoystic
$LN63@GetJoystic:

; 320  : 		}
; 321  : 	}

	jmp	$LN78@GetJoystic
$LN77@GetJoystic:

; 322  : 
; 323  : 	if (IO.MouseWheelExists() == true)	// Retro 17Jan2004

	mov	ecx, OFFSET ?IO@@3VSIMLIB_IO_CLASS@@A	; IO
	call	?MouseWheelExists@SIMLIB_IO_CLASS@@QAE_NXZ ; SIMLIB_IO_CLASS::MouseWheelExists
	movzx	ecx, al
	cmp	ecx, 1
	jne	SHORT $LN60@GetJoystic

; 324  : 		device_axis_values[SIM_MOUSE][DX_MOUSEWHEEL] = theMouseWheelAxis.GetAxisValue();

	mov	ecx, OFFSET ?theMouseWheelAxis@@3VMouseWheelStuff@@A ; theMouseWheelAxis
	call	?GetAxisValue@MouseWheelStuff@@QAEJXZ	; MouseWheelStuff::GetAxisValue
	mov	edx, 32					; 00000020H
	imul	edx, 0
	lea	ecx, DWORD PTR _device_axis_values$[ebp+edx]
	mov	edx, 4
	imul	edx, 0
	mov	DWORD PTR [ecx+edx], eax
$LN60@GetJoystic:

; 325  : 
; 326  : 	/*******************************************************************************/
; 327  : 	//	Copy and process flight control (roll and pitch) info
; 328  : 	/*******************************************************************************/
; 329  : 	if ((IO.AnalogIsUsed(AXIS_PITCH))&&(IO.AnalogIsUsed(AXIS_ROLL)))

	push	0
	mov	ecx, OFFSET ?IO@@3VSIMLIB_IO_CLASS@@A	; IO
	call	?AnalogIsUsed@SIMLIB_IO_CLASS@@QAE_NW4GameAxis_t@@@Z ; SIMLIB_IO_CLASS::AnalogIsUsed
	movzx	eax, al
	test	eax, eax
	je	$LN46@GetJoystic
	push	1
	mov	ecx, OFFSET ?IO@@3VSIMLIB_IO_CLASS@@A	; IO
	call	?AnalogIsUsed@SIMLIB_IO_CLASS@@QAE_NW4GameAxis_t@@@Z ; SIMLIB_IO_CLASS::AnalogIsUsed
	movzx	ecx, al
	test	ecx, ecx
	je	$LN46@GetJoystic

; 330  : 	{
; 331  : 		ProcessJoystickInput(AXIS_PITCH, &device_axis_values[AxisMap.FlightControlDevice][AxisMap.Pitch.Axis]);

	mov	edx, DWORD PTR ?AxisMap@@3UAxisMapping@@A
	shl	edx, 5
	lea	eax, DWORD PTR _device_axis_values$[ebp+edx]
	mov	ecx, DWORD PTR ?AxisMap@@3UAxisMapping@@A+28
	lea	edx, DWORD PTR [eax+ecx*4]
	push	edx
	push	0
	call	?ProcessJoystickInput@@YAXW4GameAxis_t@@PAJ@Z ; ProcessJoystickInput
	add	esp, 8

; 332  : 		ProcessJoystickInput(AXIS_ROLL, &device_axis_values[AxisMap.FlightControlDevice][AxisMap.Bank.Axis]);

	mov	eax, DWORD PTR ?AxisMap@@3UAxisMapping@@A
	shl	eax, 5
	lea	ecx, DWORD PTR _device_axis_values$[ebp+eax]
	mov	edx, DWORD PTR ?AxisMap@@3UAxisMapping@@A+44
	lea	eax, DWORD PTR [ecx+edx*4]
	push	eax
	push	1
	call	?ProcessJoystickInput@@YAXW4GameAxis_t@@PAJ@Z ; ProcessJoystickInput
	add	esp, 8

; 333  : 
; 334  : #ifdef THE_MPS_WAY_OF_LIFE
; 335  : 		//IO.analog[0].engrValue = min(max((joyState.lX + IO.analog[0].center)/1000.0f, -1.0F),1.0F);
; 336  : 		IO.analog[AXIS_PITCH].engrValue = (float)device_axis_values[AxisMap.FlightControlDevice][AxisMap.Pitch.Axis] + IO.analog[AXIS_PITCH].center;
; 337  : 		if(IO.analog[AXIS_PITCH].engrValue * IO.analog[AXIS_PITCH].center > 0)
; 338  : 			IO.analog[AXIS_PITCH].engrValue /= (9400.0F + (float)abs(IO.analog[AXIS_PITCH].center));
; 339  : 		else
; 340  : 			IO.analog[AXIS_PITCH].engrValue /= (9400.0F - (float)abs(IO.analog[AXIS_PITCH].center));
; 341  : 
; 342  : 		//IO.analog[1].engrValue = min(max((joyState.lY + IO.analog[1].center)/1000.0f, -1.0F),1.0F);
; 343  : 		IO.analog[AXIS_ROLL].engrValue = (float)device_axis_values[AxisMap.FlightControlDevice][AxisMap.Bank.Axis] + IO.analog[AXIS_ROLL].center;
; 344  : 		if(IO.analog[AXIS_ROLL].engrValue * IO.analog[AXIS_ROLL].center > 0)
; 345  : 			IO.analog[AXIS_ROLL].engrValue /= (10000.0F + (float)abs(IO.analog[AXIS_ROLL].center));
; 346  : 		else
; 347  : 			IO.analog[AXIS_ROLL].engrValue /= (10000.0F - (float)abs(IO.analog[AXIS_ROLL].center));
; 348  : #else	// Retro 2Jan2003
; 349  : 		if (g_bUseNewSmoothing == false)

	movzx	ecx, BYTE PTR ?g_bUseNewSmoothing@@3_NA	; g_bUseNewSmoothing
	test	ecx, ecx
	jne	$LN58@GetJoystic

; 350  : 		{
; 351  : 			IO.analog[AXIS_PITCH].engrValue = (float)device_axis_values[AxisMap.FlightControlDevice][AxisMap.Pitch.Axis] + IO.analog[AXIS_PITCH].center;

	mov	edx, DWORD PTR ?AxisMap@@3UAxisMapping@@A
	shl	edx, 5
	lea	eax, DWORD PTR _device_axis_values$[ebp+edx]
	mov	ecx, DWORD PTR ?AxisMap@@3UAxisMapping@@A+28
	cvtsi2ss xmm0, DWORD PTR [eax+ecx*4]
	mov	edx, 28					; 0000001cH
	imul	edx, 0
	cvtsi2ss xmm1, DWORD PTR ?IO@@3VSIMLIB_IO_CLASS@@A[edx]
	addss	xmm0, xmm1
	mov	eax, 28					; 0000001cH
	imul	eax, 0
	movss	DWORD PTR ?IO@@3VSIMLIB_IO_CLASS@@A[eax+16], xmm0

; 352  : 			if (IO.analog[AXIS_PITCH].engrValue > 0)

	mov	ecx, 28					; 0000001cH
	imul	ecx, 0
	movss	xmm0, DWORD PTR ?IO@@3VSIMLIB_IO_CLASS@@A[ecx+16]
	comiss	xmm0, DWORD PTR __real@00000000
	jbe	SHORT $LN57@GetJoystic

; 353  : 				IO.analog[AXIS_PITCH].engrValue /= Abs(10000.0F+IO.analog[AXIS_PITCH].center);

	mov	esi, 28					; 0000001cH
	imul	esi, 0
	mov	edx, 28					; 0000001cH
	imul	edx, 0
	cvtsi2ss xmm0, DWORD PTR ?IO@@3VSIMLIB_IO_CLASS@@A[edx]
	addss	xmm0, DWORD PTR __real@461c4000
	push	ecx
	movss	DWORD PTR [esp], xmm0
	call	??$Abs@M@@YAMM@Z			; Abs<float>
	add	esp, 4
	fstp	DWORD PTR tv1039[ebp]
	movss	xmm0, DWORD PTR ?IO@@3VSIMLIB_IO_CLASS@@A[esi+16]
	divss	xmm0, DWORD PTR tv1039[ebp]
	mov	eax, 28					; 0000001cH
	imul	eax, 0
	movss	DWORD PTR ?IO@@3VSIMLIB_IO_CLASS@@A[eax+16], xmm0

; 354  : 			else

	jmp	SHORT $LN56@GetJoystic
$LN57@GetJoystic:

; 355  : 				IO.analog[AXIS_PITCH].engrValue /= Abs(-10000.0F+IO.analog[AXIS_PITCH].center);

	mov	esi, 28					; 0000001cH
	imul	esi, 0
	mov	ecx, 28					; 0000001cH
	imul	ecx, 0
	cvtsi2ss xmm0, DWORD PTR ?IO@@3VSIMLIB_IO_CLASS@@A[ecx]
	addss	xmm0, DWORD PTR __real@c61c4000
	push	ecx
	movss	DWORD PTR [esp], xmm0
	call	??$Abs@M@@YAMM@Z			; Abs<float>
	add	esp, 4
	fstp	DWORD PTR tv1049[ebp]
	movss	xmm0, DWORD PTR ?IO@@3VSIMLIB_IO_CLASS@@A[esi+16]
	divss	xmm0, DWORD PTR tv1049[ebp]
	mov	edx, 28					; 0000001cH
	imul	edx, 0
	movss	DWORD PTR ?IO@@3VSIMLIB_IO_CLASS@@A[edx+16], xmm0
$LN56@GetJoystic:

; 356  : 		}
; 357  : 		else

	jmp	$LN53@GetJoystic
$LN58@GetJoystic:

; 358  : 		{
; 359  : 			IO.analog[AXIS_PITCH].engrValue = (float)IO.analog[AXIS_PITCH].ioVal + IO.analog[AXIS_PITCH].center;

	mov	eax, 28					; 0000001cH
	imul	eax, 0
	cvtsi2ss xmm0, DWORD PTR ?IO@@3VSIMLIB_IO_CLASS@@A[eax+8]
	mov	ecx, 28					; 0000001cH
	imul	ecx, 0
	cvtsi2ss xmm1, DWORD PTR ?IO@@3VSIMLIB_IO_CLASS@@A[ecx]
	addss	xmm0, xmm1
	mov	edx, 28					; 0000001cH
	imul	edx, 0
	movss	DWORD PTR ?IO@@3VSIMLIB_IO_CLASS@@A[edx+16], xmm0

; 360  : 			if (IO.analog[AXIS_PITCH].engrValue > 0)

	mov	eax, 28					; 0000001cH
	imul	eax, 0
	movss	xmm0, DWORD PTR ?IO@@3VSIMLIB_IO_CLASS@@A[eax+16]
	comiss	xmm0, DWORD PTR __real@00000000
	jbe	SHORT $LN54@GetJoystic

; 361  : 				IO.analog[AXIS_PITCH].engrValue /= Abs(10000.0F+IO.analog[AXIS_PITCH].center);

	mov	esi, 28					; 0000001cH
	imul	esi, 0
	mov	ecx, 28					; 0000001cH
	imul	ecx, 0
	cvtsi2ss xmm0, DWORD PTR ?IO@@3VSIMLIB_IO_CLASS@@A[ecx]
	addss	xmm0, DWORD PTR __real@461c4000
	push	ecx
	movss	DWORD PTR [esp], xmm0
	call	??$Abs@M@@YAMM@Z			; Abs<float>
	add	esp, 4
	fstp	DWORD PTR tv1064[ebp]
	movss	xmm0, DWORD PTR ?IO@@3VSIMLIB_IO_CLASS@@A[esi+16]
	divss	xmm0, DWORD PTR tv1064[ebp]
	mov	edx, 28					; 0000001cH
	imul	edx, 0
	movss	DWORD PTR ?IO@@3VSIMLIB_IO_CLASS@@A[edx+16], xmm0

; 362  : 			else

	jmp	SHORT $LN53@GetJoystic
$LN54@GetJoystic:

; 363  : 				IO.analog[AXIS_PITCH].engrValue /= Abs(-10000.0F+IO.analog[AXIS_PITCH].center);

	mov	esi, 28					; 0000001cH
	imul	esi, 0
	mov	eax, 28					; 0000001cH
	imul	eax, 0
	cvtsi2ss xmm0, DWORD PTR ?IO@@3VSIMLIB_IO_CLASS@@A[eax]
	addss	xmm0, DWORD PTR __real@c61c4000
	push	ecx
	movss	DWORD PTR [esp], xmm0
	call	??$Abs@M@@YAMM@Z			; Abs<float>
	add	esp, 4
	fstp	DWORD PTR tv1074[ebp]
	movss	xmm0, DWORD PTR ?IO@@3VSIMLIB_IO_CLASS@@A[esi+16]
	divss	xmm0, DWORD PTR tv1074[ebp]
	mov	ecx, 28					; 0000001cH
	imul	ecx, 0
	movss	DWORD PTR ?IO@@3VSIMLIB_IO_CLASS@@A[ecx+16], xmm0
$LN53@GetJoystic:

; 364  : 		}
; 365  : 
; 366  : 		if (g_bUseNewSmoothing == false)

	movzx	edx, BYTE PTR ?g_bUseNewSmoothing@@3_NA	; g_bUseNewSmoothing
	test	edx, edx
	jne	$LN52@GetJoystic

; 367  : 		{
; 368  : 			IO.analog[AXIS_ROLL].engrValue = (float)device_axis_values[AxisMap.FlightControlDevice][AxisMap.Bank.Axis] + IO.analog[AXIS_ROLL].center;

	mov	eax, DWORD PTR ?AxisMap@@3UAxisMapping@@A
	shl	eax, 5
	lea	ecx, DWORD PTR _device_axis_values$[ebp+eax]
	mov	edx, DWORD PTR ?AxisMap@@3UAxisMapping@@A+44
	cvtsi2ss xmm0, DWORD PTR [ecx+edx*4]
	mov	eax, 28					; 0000001cH
	shl	eax, 0
	cvtsi2ss xmm1, DWORD PTR ?IO@@3VSIMLIB_IO_CLASS@@A[eax]
	addss	xmm0, xmm1
	mov	ecx, 28					; 0000001cH
	shl	ecx, 0
	movss	DWORD PTR ?IO@@3VSIMLIB_IO_CLASS@@A[ecx+16], xmm0

; 369  : 			if (IO.analog[AXIS_ROLL].engrValue > 0)

	mov	edx, 28					; 0000001cH
	shl	edx, 0
	movss	xmm0, DWORD PTR ?IO@@3VSIMLIB_IO_CLASS@@A[edx+16]
	comiss	xmm0, DWORD PTR __real@00000000
	jbe	SHORT $LN51@GetJoystic

; 370  : 				IO.analog[AXIS_ROLL].engrValue /= Abs(10000.0F+IO.analog[AXIS_ROLL].center);

	mov	esi, 28					; 0000001cH
	shl	esi, 0
	mov	eax, 28					; 0000001cH
	shl	eax, 0
	cvtsi2ss xmm0, DWORD PTR ?IO@@3VSIMLIB_IO_CLASS@@A[eax]
	addss	xmm0, DWORD PTR __real@461c4000
	push	ecx
	movss	DWORD PTR [esp], xmm0
	call	??$Abs@M@@YAMM@Z			; Abs<float>
	add	esp, 4
	fstp	DWORD PTR tv1090[ebp]
	movss	xmm0, DWORD PTR ?IO@@3VSIMLIB_IO_CLASS@@A[esi+16]
	divss	xmm0, DWORD PTR tv1090[ebp]
	mov	ecx, 28					; 0000001cH
	shl	ecx, 0
	movss	DWORD PTR ?IO@@3VSIMLIB_IO_CLASS@@A[ecx+16], xmm0

; 371  : 			else

	jmp	SHORT $LN50@GetJoystic
$LN51@GetJoystic:

; 372  : 				IO.analog[AXIS_ROLL].engrValue /= Abs(-10000.0F+IO.analog[AXIS_ROLL].center);

	mov	esi, 28					; 0000001cH
	shl	esi, 0
	mov	edx, 28					; 0000001cH
	shl	edx, 0
	cvtsi2ss xmm0, DWORD PTR ?IO@@3VSIMLIB_IO_CLASS@@A[edx]
	addss	xmm0, DWORD PTR __real@c61c4000
	push	ecx
	movss	DWORD PTR [esp], xmm0
	call	??$Abs@M@@YAMM@Z			; Abs<float>
	add	esp, 4
	fstp	DWORD PTR tv1100[ebp]
	movss	xmm0, DWORD PTR ?IO@@3VSIMLIB_IO_CLASS@@A[esi+16]
	divss	xmm0, DWORD PTR tv1100[ebp]
	mov	eax, 28					; 0000001cH
	shl	eax, 0
	movss	DWORD PTR ?IO@@3VSIMLIB_IO_CLASS@@A[eax+16], xmm0
$LN50@GetJoystic:

; 373  : 		}
; 374  : 		else

	jmp	$LN47@GetJoystic
$LN52@GetJoystic:

; 375  : 		{
; 376  : 			IO.analog[AXIS_ROLL].engrValue = (float)IO.analog[AXIS_ROLL].ioVal + IO.analog[AXIS_ROLL].center;

	mov	ecx, 28					; 0000001cH
	shl	ecx, 0
	cvtsi2ss xmm0, DWORD PTR ?IO@@3VSIMLIB_IO_CLASS@@A[ecx+8]
	mov	edx, 28					; 0000001cH
	shl	edx, 0
	cvtsi2ss xmm1, DWORD PTR ?IO@@3VSIMLIB_IO_CLASS@@A[edx]
	addss	xmm0, xmm1
	mov	eax, 28					; 0000001cH
	shl	eax, 0
	movss	DWORD PTR ?IO@@3VSIMLIB_IO_CLASS@@A[eax+16], xmm0

; 377  : 			if (IO.analog[AXIS_ROLL].engrValue > 0)

	mov	ecx, 28					; 0000001cH
	shl	ecx, 0
	movss	xmm0, DWORD PTR ?IO@@3VSIMLIB_IO_CLASS@@A[ecx+16]
	comiss	xmm0, DWORD PTR __real@00000000
	jbe	SHORT $LN48@GetJoystic

; 378  : 				IO.analog[AXIS_ROLL].engrValue /= Abs(10000.0F+IO.analog[AXIS_ROLL].center);

	mov	esi, 28					; 0000001cH
	shl	esi, 0
	mov	edx, 28					; 0000001cH
	shl	edx, 0
	cvtsi2ss xmm0, DWORD PTR ?IO@@3VSIMLIB_IO_CLASS@@A[edx]
	addss	xmm0, DWORD PTR __real@461c4000
	push	ecx
	movss	DWORD PTR [esp], xmm0
	call	??$Abs@M@@YAMM@Z			; Abs<float>
	add	esp, 4
	fstp	DWORD PTR tv1115[ebp]
	movss	xmm0, DWORD PTR ?IO@@3VSIMLIB_IO_CLASS@@A[esi+16]
	divss	xmm0, DWORD PTR tv1115[ebp]
	mov	eax, 28					; 0000001cH
	shl	eax, 0
	movss	DWORD PTR ?IO@@3VSIMLIB_IO_CLASS@@A[eax+16], xmm0

; 379  : 			else

	jmp	SHORT $LN47@GetJoystic
$LN48@GetJoystic:

; 380  : 				IO.analog[AXIS_ROLL].engrValue /= Abs(-10000.0F+IO.analog[AXIS_ROLL].center);

	mov	esi, 28					; 0000001cH
	shl	esi, 0
	mov	ecx, 28					; 0000001cH
	shl	ecx, 0
	cvtsi2ss xmm0, DWORD PTR ?IO@@3VSIMLIB_IO_CLASS@@A[ecx]
	addss	xmm0, DWORD PTR __real@c61c4000
	push	ecx
	movss	DWORD PTR [esp], xmm0
	call	??$Abs@M@@YAMM@Z			; Abs<float>
	add	esp, 4
	fstp	DWORD PTR tv1125[ebp]
	movss	xmm0, DWORD PTR ?IO@@3VSIMLIB_IO_CLASS@@A[esi+16]
	divss	xmm0, DWORD PTR tv1125[ebp]
	mov	edx, 28					; 0000001cH
	shl	edx, 0
	movss	DWORD PTR ?IO@@3VSIMLIB_IO_CLASS@@A[edx+16], xmm0
$LN47@GetJoystic:

; 381  : 		}
; 382  : #endif
; 383  : 		if (center)

	cmp	DWORD PTR ?center@@3HA, 0		; center
	je	SHORT $LN46@GetJoystic

; 384  : 		{
; 385  : 			IO.analog[AXIS_PITCH].center = device_axis_values[AxisMap.FlightControlDevice][AxisMap.Pitch.Axis] * -1;

	mov	eax, DWORD PTR ?AxisMap@@3UAxisMapping@@A
	shl	eax, 5
	lea	ecx, DWORD PTR _device_axis_values$[ebp+eax]
	mov	edx, DWORD PTR ?AxisMap@@3UAxisMapping@@A+28
	mov	eax, DWORD PTR [ecx+edx*4]
	imul	eax, -1
	mov	ecx, 28					; 0000001cH
	imul	ecx, 0
	mov	DWORD PTR ?IO@@3VSIMLIB_IO_CLASS@@A[ecx], eax

; 386  : 			IO.analog[AXIS_ROLL].center = device_axis_values[AxisMap.FlightControlDevice][AxisMap.Bank.Axis] * -1;

	mov	edx, DWORD PTR ?AxisMap@@3UAxisMapping@@A
	shl	edx, 5
	lea	eax, DWORD PTR _device_axis_values$[ebp+edx]
	mov	ecx, DWORD PTR ?AxisMap@@3UAxisMapping@@A+44
	mov	edx, DWORD PTR [eax+ecx*4]
	imul	edx, -1
	mov	eax, 28					; 0000001cH
	shl	eax, 0
	mov	DWORD PTR ?IO@@3VSIMLIB_IO_CLASS@@A[eax], edx
$LN46@GetJoystic:

; 387  : 		}
; 388  : 	}
; 389  : 
; 390  : 	/*******************************************************************************/
; 391  : 	//	Copy and process throttle data (if available)
; 392  : 	//	engrVal goes from 0 to 1.5 !!!
; 393  : 	/*******************************************************************************/
; 394  : 	if (IO.AnalogIsUsed(AXIS_THROTTLE))

	push	3
	mov	ecx, OFFSET ?IO@@3VSIMLIB_IO_CLASS@@A	; IO
	call	?AnalogIsUsed@SIMLIB_IO_CLASS@@QAE_NW4GameAxis_t@@@Z ; SIMLIB_IO_CLASS::AnalogIsUsed
	movzx	ecx, al
	test	ecx, ecx
	je	$LN34@GetJoystic

; 395  : 	{
; 396  : 		ProcessJoystickInput(AXIS_THROTTLE, &device_axis_values[AxisMap.Throttle.Device][AxisMap.Throttle.Axis]);

	mov	edx, DWORD PTR ?AxisMap@@3UAxisMapping@@A+72
	shl	edx, 5
	lea	eax, DWORD PTR _device_axis_values$[ebp+edx]
	mov	ecx, DWORD PTR ?AxisMap@@3UAxisMapping@@A+76
	lea	edx, DWORD PTR [eax+ecx*4]
	push	edx
	push	3
	call	?ProcessJoystickInput@@YAXW4GameAxis_t@@PAJ@Z ; ProcessJoystickInput
	add	esp, 8

; 397  : 
; 398  : 		if ((!UseKeyboardThrottle) || 
; 399  : 			(abs(JoyOutput[AXIS_THROTTLE][OldInput] - device_axis_values[AxisMap.Throttle.Device][AxisMap.Throttle.Axis]) > 500.0F))

	cmp	DWORD PTR ?UseKeyboardThrottle@@3HA, 0	; UseKeyboardThrottle
	je	SHORT $LN43@GetJoystic
	mov	eax, 8
	imul	eax, 3
	mov	ecx, 4
	shl	ecx, 0
	mov	edx, DWORD PTR ?AxisMap@@3UAxisMapping@@A+72
	shl	edx, 5
	lea	edx, DWORD PTR _device_axis_values$[ebp+edx]
	mov	esi, DWORD PTR ?AxisMap@@3UAxisMapping@@A+76
	mov	eax, DWORD PTR _JoyOutput[eax+ecx]
	sub	eax, DWORD PTR [edx+esi*4]
	push	eax
	call	?abs@@YAJJ@Z				; abs
	add	esp, 4
	cvtsi2ss xmm0, eax
	comiss	xmm0, DWORD PTR __real@43fa0000
	jbe	$LN36@GetJoystic
$LN43@GetJoystic:

; 400  : 		{
; 401  : 			UseKeyboardThrottle = FALSE;

	mov	DWORD PTR ?UseKeyboardThrottle@@3HA, 0	; UseKeyboardThrottle

; 402  : #ifdef USE_IDLE_CUTOFF
; 403  : 			long maxThrottleVal = IO.analog[AXIS_THROTTLE].cutoff;

	mov	ecx, 28					; 0000001cH
	imul	ecx, 3
	mov	edx, DWORD PTR ?IO@@3VSIMLIB_IO_CLASS@@A[ecx+4]
	mov	DWORD PTR _maxThrottleVal$4[ebp], edx

; 404  : #endif
; 405  : 			// not in afterburner.. throttle 0 result in 0.0F, throttle in ABDetent results in 1.0F - OK
; 406  : 			if ((IO.analog[AXIS_THROTTLE].center) &&
; 407  : 				(device_axis_values[AxisMap.Throttle.Device][AxisMap.Throttle.Axis] > IO.analog[AXIS_THROTTLE].center))

	mov	eax, 28					; 0000001cH
	imul	eax, 3
	cmp	DWORD PTR ?IO@@3VSIMLIB_IO_CLASS@@A[eax], 0
	je	$LN42@GetJoystic
	mov	ecx, DWORD PTR ?AxisMap@@3UAxisMapping@@A+72
	shl	ecx, 5
	lea	edx, DWORD PTR _device_axis_values$[ebp+ecx]
	mov	eax, 28					; 0000001cH
	imul	eax, 3
	mov	ecx, DWORD PTR ?AxisMap@@3UAxisMapping@@A+76
	mov	edx, DWORD PTR [edx+ecx*4]
	cmp	edx, DWORD PTR ?IO@@3VSIMLIB_IO_CLASS@@A[eax]
	jle	$LN42@GetJoystic

; 408  : 			{
; 409  : #ifndef USE_IDLE_CUTOFF
; 410  : 				IO.analog[AXIS_THROTTLE].engrValue = (15000.0F - device_axis_values[AxisMap.Throttle.Device][AxisMap.Throttle.Axis])/(15000.0F - IO.analog[AXIS_THROTTLE].center);
; 411  : #else
; 412  : 				IO.analog[AXIS_THROTTLE].engrValue = ((float)maxThrottleVal - device_axis_values[AxisMap.Throttle.Device][AxisMap.Throttle.Axis])/((float)maxThrottleVal - IO.analog[AXIS_THROTTLE].center);

	cvtsi2ss xmm0, DWORD PTR _maxThrottleVal$4[ebp]
	mov	eax, DWORD PTR ?AxisMap@@3UAxisMapping@@A+72
	shl	eax, 5
	lea	ecx, DWORD PTR _device_axis_values$[ebp+eax]
	mov	edx, DWORD PTR ?AxisMap@@3UAxisMapping@@A+76
	cvtsi2ss xmm1, DWORD PTR [ecx+edx*4]
	subss	xmm0, xmm1
	cvtsi2ss xmm1, DWORD PTR _maxThrottleVal$4[ebp]
	mov	eax, 28					; 0000001cH
	imul	eax, 3
	cvtsi2ss xmm2, DWORD PTR ?IO@@3VSIMLIB_IO_CLASS@@A[eax]
	subss	xmm1, xmm2
	divss	xmm0, xmm1
	mov	ecx, 28					; 0000001cH
	imul	ecx, 3
	movss	DWORD PTR ?IO@@3VSIMLIB_IO_CLASS@@A[ecx+16], xmm0

; 413  : 				IO.analog[AXIS_THROTTLE].engrValue = max ( IO.analog[AXIS_THROTTLE].engrValue, 0.0F);

	mov	edx, 28					; 0000001cH
	imul	edx, 3
	movss	xmm0, DWORD PTR ?IO@@3VSIMLIB_IO_CLASS@@A[edx+16]
	comiss	xmm0, DWORD PTR __real@00000000
	jbe	SHORT $LN85@GetJoystic
	mov	eax, 28					; 0000001cH
	imul	eax, 3
	movss	xmm0, DWORD PTR ?IO@@3VSIMLIB_IO_CLASS@@A[eax+16]
	movss	DWORD PTR tv506[ebp], xmm0
	jmp	SHORT $LN86@GetJoystic
$LN85@GetJoystic:
	movss	xmm0, DWORD PTR __real@00000000
	movss	DWORD PTR tv506[ebp], xmm0
$LN86@GetJoystic:
	mov	ecx, 28					; 0000001cH
	imul	ecx, 3
	movss	xmm0, DWORD PTR tv506[ebp]
	movss	DWORD PTR ?IO@@3VSIMLIB_IO_CLASS@@A[ecx+16], xmm0
	jmp	$LN39@GetJoystic
$LN42@GetJoystic:

; 414  : #endif
; 415  : 			}
; 416  : 			// in afterburner - full throttle give 1.5F, exactly ABDetent throttle gives 1.0F - OK
; 417  : 			else if(IO.analog[AXIS_THROTTLE].center)

	mov	edx, 28					; 0000001cH
	imul	edx, 3
	cmp	DWORD PTR ?IO@@3VSIMLIB_IO_CLASS@@A[edx], 0
	je	SHORT $LN40@GetJoystic

; 418  : 			{
; 419  : 				IO.analog[AXIS_THROTTLE].engrValue = 1.0F + (IO.analog[AXIS_THROTTLE].center - device_axis_values[AxisMap.Throttle.Device][AxisMap.Throttle.Axis])/(IO.analog[AXIS_THROTTLE].center*2.0F);

	mov	eax, 28					; 0000001cH
	imul	eax, 3
	mov	ecx, DWORD PTR ?AxisMap@@3UAxisMapping@@A+72
	shl	ecx, 5
	lea	edx, DWORD PTR _device_axis_values$[ebp+ecx]
	mov	ecx, DWORD PTR ?AxisMap@@3UAxisMapping@@A+76
	mov	eax, DWORD PTR ?IO@@3VSIMLIB_IO_CLASS@@A[eax]
	sub	eax, DWORD PTR [edx+ecx*4]
	cvtsi2ss xmm0, eax
	mov	ecx, 28					; 0000001cH
	imul	ecx, 3
	cvtsi2ss xmm1, DWORD PTR ?IO@@3VSIMLIB_IO_CLASS@@A[ecx]
	mulss	xmm1, DWORD PTR __real@40000000
	divss	xmm0, xmm1
	addss	xmm0, DWORD PTR __real@3f800000
	mov	edx, 28					; 0000001cH
	imul	edx, 3
	movss	DWORD PTR ?IO@@3VSIMLIB_IO_CLASS@@A[edx+16], xmm0

; 420  : 			}
; 421  : 			// no abdetent set ?? throttle scales linearly between 0.0F and 1.5F - OK
; 422  : 			else

	jmp	SHORT $LN39@GetJoystic
$LN40@GetJoystic:

; 423  : 			{
; 424  : #ifndef USE_IDLE_CUTOFF
; 425  : 				IO.analog[AXIS_THROTTLE].engrValue = (15000.0F - device_axis_values[AxisMap.Throttle.Device][AxisMap.Throttle.Axis])/10000.0F;
; 426  : #else
; 427  : 				IO.analog[AXIS_THROTTLE].engrValue = ((float)maxThrottleVal - device_axis_values[AxisMap.Throttle.Device][AxisMap.Throttle.Axis])/(float)maxThrottleVal*1.5F;

	cvtsi2ss xmm0, DWORD PTR _maxThrottleVal$4[ebp]
	mov	eax, DWORD PTR ?AxisMap@@3UAxisMapping@@A+72
	shl	eax, 5
	lea	ecx, DWORD PTR _device_axis_values$[ebp+eax]
	mov	edx, DWORD PTR ?AxisMap@@3UAxisMapping@@A+76
	cvtsi2ss xmm1, DWORD PTR [ecx+edx*4]
	subss	xmm0, xmm1
	cvtsi2ss xmm1, DWORD PTR _maxThrottleVal$4[ebp]
	divss	xmm0, xmm1
	mulss	xmm0, DWORD PTR __real@3fc00000
	mov	eax, 28					; 0000001cH
	imul	eax, 3
	movss	DWORD PTR ?IO@@3VSIMLIB_IO_CLASS@@A[eax+16], xmm0
$LN39@GetJoystic:

; 428  : #endif
; 429  : 			}
; 430  : 
; 431  : 			// Retro 4Jan2004 - blaaa bad code :/
; 432  : 			// see SetThrottleInActive() for explanation
; 433  : 			if (throttleInactive == true)

	movzx	ecx, BYTE PTR ?throttleInactive@@3_NA	; throttleInactive
	cmp	ecx, 1
	jne	SHORT $LN36@GetJoystic

; 434  : 			{
; 435  : 				if (abs(throttleInactiveValue- device_axis_values[AxisMap.Throttle.Device][AxisMap.Throttle.Axis]) < 5000)

	mov	edx, DWORD PTR ?AxisMap@@3UAxisMapping@@A+72
	shl	edx, 5
	lea	eax, DWORD PTR _device_axis_values$[ebp+edx]
	mov	ecx, DWORD PTR ?AxisMap@@3UAxisMapping@@A+76
	mov	edx, DWORD PTR ?throttleInactiveValue@@3JA ; throttleInactiveValue
	sub	edx, DWORD PTR [eax+ecx*4]
	push	edx
	call	?abs@@YAJJ@Z				; abs
	add	esp, 4
	cmp	eax, 5000				; 00001388H
	jge	SHORT $LN37@GetJoystic

; 436  : 					IO.analog[AXIS_THROTTLE].engrValue = 0.0F;	// no throttle ouput before the user moves the stick..

	mov	eax, 28					; 0000001cH
	imul	eax, 3
	movss	xmm0, DWORD PTR __real@00000000
	movss	DWORD PTR ?IO@@3VSIMLIB_IO_CLASS@@A[eax+16], xmm0

; 437  : 				else

	jmp	SHORT $LN36@GetJoystic
$LN37@GetJoystic:

; 438  : 				{
; 439  : 					throttleInactive = false;

	mov	BYTE PTR ?throttleInactive@@3_NA, 0	; throttleInactive

; 440  : 					throttleInactiveValue = 0;

	mov	DWORD PTR ?throttleInactiveValue@@3JA, 0 ; throttleInactiveValue
$LN36@GetJoystic:

; 441  : 				}
; 442  : 			}
; 443  : 		}
; 444  : 
; 445  : 		if (setABdetent)

	cmp	DWORD PTR ?setABdetent@@3HA, 0		; setABdetent
	je	SHORT $LN35@GetJoystic

; 446  : 		{
; 447  : 			IO.analog[AXIS_THROTTLE].center = device_axis_values[AxisMap.Throttle.Device][AxisMap.Throttle.Axis];

	mov	ecx, DWORD PTR ?AxisMap@@3UAxisMapping@@A+72
	shl	ecx, 5
	lea	edx, DWORD PTR _device_axis_values$[ebp+ecx]
	mov	eax, 28					; 0000001cH
	imul	eax, 3
	mov	ecx, DWORD PTR ?AxisMap@@3UAxisMapping@@A+76
	mov	edx, DWORD PTR [edx+ecx*4]
	mov	DWORD PTR ?IO@@3VSIMLIB_IO_CLASS@@A[eax], edx
$LN35@GetJoystic:

; 448  : 		}
; 449  : 		if (setIdleCutoff)

	cmp	DWORD PTR ?setIdleCutoff@@3HA, 0	; setIdleCutoff
	je	SHORT $LN34@GetJoystic

; 450  : 		{
; 451  : 			IO.analog[AXIS_THROTTLE].cutoff  = device_axis_values[AxisMap.Throttle.Device][AxisMap.Throttle.Axis];

	mov	eax, DWORD PTR ?AxisMap@@3UAxisMapping@@A+72
	shl	eax, 5
	lea	ecx, DWORD PTR _device_axis_values$[ebp+eax]
	mov	edx, 28					; 0000001cH
	imul	edx, 3
	mov	eax, DWORD PTR ?AxisMap@@3UAxisMapping@@A+76
	mov	ecx, DWORD PTR [ecx+eax*4]
	mov	DWORD PTR ?IO@@3VSIMLIB_IO_CLASS@@A[edx+4], ecx
$LN34@GetJoystic:

; 452  : 		}
; 453  : 	}
; 454  : 
; 455  : 	/*******************************************************************************/
; 456  : 	//	Copy and process throttle2 data (if available)
; 457  : 	//	engrVal goes from 0 to 1.5 !!!
; 458  : 	/*******************************************************************************/
; 459  : 	if (IO.AnalogIsUsed(AXIS_THROTTLE2))

	push	4
	mov	ecx, OFFSET ?IO@@3VSIMLIB_IO_CLASS@@A	; IO
	call	?AnalogIsUsed@SIMLIB_IO_CLASS@@QAE_NW4GameAxis_t@@@Z ; SIMLIB_IO_CLASS::AnalogIsUsed
	movzx	edx, al
	test	edx, edx
	je	$LN25@GetJoystic

; 460  : 	{
; 461  : 		ProcessJoystickInput(AXIS_THROTTLE2, &device_axis_values[AxisMap.Throttle2.Device][AxisMap.Throttle2.Axis]);

	mov	eax, DWORD PTR ?AxisMap@@3UAxisMapping@@A+88
	shl	eax, 5
	lea	ecx, DWORD PTR _device_axis_values$[ebp+eax]
	mov	edx, DWORD PTR ?AxisMap@@3UAxisMapping@@A+92
	lea	eax, DWORD PTR [ecx+edx*4]
	push	eax
	push	4
	call	?ProcessJoystickInput@@YAXW4GameAxis_t@@PAJ@Z ; ProcessJoystickInput
	add	esp, 8

; 462  : 
; 463  : 		if ((!UseKeyboardThrottle) || 
; 464  : 			(abs(JoyOutput[AXIS_THROTTLE2][OldInput] - device_axis_values[AxisMap.Throttle2.Device][AxisMap.Throttle2.Axis]) > 500.0F))

	cmp	DWORD PTR ?UseKeyboardThrottle@@3HA, 0	; UseKeyboardThrottle
	je	SHORT $LN31@GetJoystic
	mov	ecx, 8
	shl	ecx, 2
	mov	edx, 4
	shl	edx, 0
	mov	eax, DWORD PTR ?AxisMap@@3UAxisMapping@@A+88
	shl	eax, 5
	lea	eax, DWORD PTR _device_axis_values$[ebp+eax]
	mov	esi, DWORD PTR ?AxisMap@@3UAxisMapping@@A+92
	mov	ecx, DWORD PTR _JoyOutput[ecx+edx]
	sub	ecx, DWORD PTR [eax+esi*4]
	push	ecx
	call	?abs@@YAJJ@Z				; abs
	add	esp, 4
	cvtsi2ss xmm0, eax
	comiss	xmm0, DWORD PTR __real@43fa0000
	jbe	$LN27@GetJoystic
$LN31@GetJoystic:

; 465  : 		{
; 466  : 			UseKeyboardThrottle = FALSE;

	mov	DWORD PTR ?UseKeyboardThrottle@@3HA, 0	; UseKeyboardThrottle

; 467  : #ifdef USE_IDLE_CUTOFF
; 468  : 			long maxThrottleVal = IO.analog[AXIS_THROTTLE2].cutoff;

	mov	edx, 28					; 0000001cH
	shl	edx, 2
	mov	eax, DWORD PTR ?IO@@3VSIMLIB_IO_CLASS@@A[edx+4]
	mov	DWORD PTR _maxThrottleVal$5[ebp], eax

; 469  : #endif
; 470  : 			// not in afterburner.. throttle 0 result in 0.0F, throttle in ABDetent results in 1.0F - OK
; 471  : 			if ((IO.analog[AXIS_THROTTLE2].center) &&
; 472  : 				(device_axis_values[AxisMap.Throttle2.Device][AxisMap.Throttle2.Axis] > IO.analog[AXIS_THROTTLE2].center))

	mov	ecx, 28					; 0000001cH
	shl	ecx, 2
	cmp	DWORD PTR ?IO@@3VSIMLIB_IO_CLASS@@A[ecx], 0
	je	$LN30@GetJoystic
	mov	edx, DWORD PTR ?AxisMap@@3UAxisMapping@@A+88
	shl	edx, 5
	lea	eax, DWORD PTR _device_axis_values$[ebp+edx]
	mov	ecx, 28					; 0000001cH
	shl	ecx, 2
	mov	edx, DWORD PTR ?AxisMap@@3UAxisMapping@@A+92
	mov	eax, DWORD PTR [eax+edx*4]
	cmp	eax, DWORD PTR ?IO@@3VSIMLIB_IO_CLASS@@A[ecx]
	jle	$LN30@GetJoystic

; 473  : 			{
; 474  : #ifndef USE_IDLE_CUTOFF
; 475  : 				IO.analog[AXIS_THROTTLE2].engrValue = (15000.0F - device_axis_values[AxisMap.Throttle2.Device][AxisMap.Throttle2.Axis])/(15000.0F - IO.analog[AXIS_THROTTLE2].center);
; 476  : #else
; 477  : 				IO.analog[AXIS_THROTTLE2].engrValue = ((float)maxThrottleVal - device_axis_values[AxisMap.Throttle2.Device][AxisMap.Throttle2.Axis])/((float)maxThrottleVal - IO.analog[AXIS_THROTTLE2].center);

	cvtsi2ss xmm0, DWORD PTR _maxThrottleVal$5[ebp]
	mov	ecx, DWORD PTR ?AxisMap@@3UAxisMapping@@A+88
	shl	ecx, 5
	lea	edx, DWORD PTR _device_axis_values$[ebp+ecx]
	mov	eax, DWORD PTR ?AxisMap@@3UAxisMapping@@A+92
	cvtsi2ss xmm1, DWORD PTR [edx+eax*4]
	subss	xmm0, xmm1
	cvtsi2ss xmm1, DWORD PTR _maxThrottleVal$5[ebp]
	mov	ecx, 28					; 0000001cH
	shl	ecx, 2
	cvtsi2ss xmm2, DWORD PTR ?IO@@3VSIMLIB_IO_CLASS@@A[ecx]
	subss	xmm1, xmm2
	divss	xmm0, xmm1
	mov	edx, 28					; 0000001cH
	shl	edx, 2
	movss	DWORD PTR ?IO@@3VSIMLIB_IO_CLASS@@A[edx+16], xmm0

; 478  : 				IO.analog[AXIS_THROTTLE2].engrValue = max ( IO.analog[AXIS_THROTTLE2].engrValue, 0.0F);

	mov	eax, 28					; 0000001cH
	shl	eax, 2
	movss	xmm0, DWORD PTR ?IO@@3VSIMLIB_IO_CLASS@@A[eax+16]
	comiss	xmm0, DWORD PTR __real@00000000
	jbe	SHORT $LN87@GetJoystic
	mov	ecx, 28					; 0000001cH
	shl	ecx, 2
	movss	xmm0, DWORD PTR ?IO@@3VSIMLIB_IO_CLASS@@A[ecx+16]
	movss	DWORD PTR tv645[ebp], xmm0
	jmp	SHORT $LN88@GetJoystic
$LN87@GetJoystic:
	movss	xmm0, DWORD PTR __real@00000000
	movss	DWORD PTR tv645[ebp], xmm0
$LN88@GetJoystic:
	mov	edx, 28					; 0000001cH
	shl	edx, 2
	movss	xmm0, DWORD PTR tv645[ebp]
	movss	DWORD PTR ?IO@@3VSIMLIB_IO_CLASS@@A[edx+16], xmm0
	jmp	$LN27@GetJoystic
$LN30@GetJoystic:

; 479  : #endif
; 480  : 			}
; 481  : 			// in afterburner - full throttle gives 1.5F, exactly ABDetent throttle gives 1.0F - OK
; 482  : 			else if(IO.analog[AXIS_THROTTLE2].center)

	mov	eax, 28					; 0000001cH
	shl	eax, 2
	cmp	DWORD PTR ?IO@@3VSIMLIB_IO_CLASS@@A[eax], 0
	je	SHORT $LN28@GetJoystic

; 483  : 			{
; 484  : 				IO.analog[AXIS_THROTTLE2].engrValue = 1.0F + (IO.analog[AXIS_THROTTLE2].center - device_axis_values[AxisMap.Throttle2.Device][AxisMap.Throttle2.Axis])/(IO.analog[AXIS_THROTTLE2].center*2.0F);

	mov	ecx, 28					; 0000001cH
	shl	ecx, 2
	mov	edx, DWORD PTR ?AxisMap@@3UAxisMapping@@A+88
	shl	edx, 5
	lea	eax, DWORD PTR _device_axis_values$[ebp+edx]
	mov	edx, DWORD PTR ?AxisMap@@3UAxisMapping@@A+92
	mov	ecx, DWORD PTR ?IO@@3VSIMLIB_IO_CLASS@@A[ecx]
	sub	ecx, DWORD PTR [eax+edx*4]
	cvtsi2ss xmm0, ecx
	mov	edx, 28					; 0000001cH
	shl	edx, 2
	cvtsi2ss xmm1, DWORD PTR ?IO@@3VSIMLIB_IO_CLASS@@A[edx]
	mulss	xmm1, DWORD PTR __real@40000000
	divss	xmm0, xmm1
	addss	xmm0, DWORD PTR __real@3f800000
	mov	eax, 28					; 0000001cH
	shl	eax, 2
	movss	DWORD PTR ?IO@@3VSIMLIB_IO_CLASS@@A[eax+16], xmm0

; 485  : 			}
; 486  : 			// no abdetent set ?? throttle scales linearly between 0.0F and 1.5F - OK
; 487  : 			else

	jmp	SHORT $LN27@GetJoystic
$LN28@GetJoystic:

; 488  : 			{
; 489  : #ifndef USE_IDLE_CUTOFF
; 490  : 				IO.analog[AXIS_THROTTLE2].engrValue = (15000.0F - device_axis_values[AxisMap.Throttle2.Device][AxisMap.Throttle2.Axis])/10000.0F;
; 491  : #else
; 492  : 				IO.analog[AXIS_THROTTLE2].engrValue = ((float)maxThrottleVal - device_axis_values[AxisMap.Throttle2.Device][AxisMap.Throttle2.Axis])/(float)maxThrottleVal*1.5F;

	cvtsi2ss xmm0, DWORD PTR _maxThrottleVal$5[ebp]
	mov	ecx, DWORD PTR ?AxisMap@@3UAxisMapping@@A+88
	shl	ecx, 5
	lea	edx, DWORD PTR _device_axis_values$[ebp+ecx]
	mov	eax, DWORD PTR ?AxisMap@@3UAxisMapping@@A+92
	cvtsi2ss xmm1, DWORD PTR [edx+eax*4]
	subss	xmm0, xmm1
	cvtsi2ss xmm1, DWORD PTR _maxThrottleVal$5[ebp]
	divss	xmm0, xmm1
	mulss	xmm0, DWORD PTR __real@3fc00000
	mov	ecx, 28					; 0000001cH
	shl	ecx, 2
	movss	DWORD PTR ?IO@@3VSIMLIB_IO_CLASS@@A[ecx+16], xmm0
$LN27@GetJoystic:

; 493  : #endif
; 494  : 			}
; 495  : 		}
; 496  : 
; 497  : 		if (setABdetent)

	cmp	DWORD PTR ?setABdetent@@3HA, 0		; setABdetent
	je	SHORT $LN26@GetJoystic

; 498  : 		{
; 499  : #ifndef SYMMETRIC_THROTTLEDETENTS
; 500  : 			IO.analog[AXIS_THROTTLE2].center = device_axis_values[AxisMap.Throttle2.Device][AxisMap.Throttle2.Axis];
; 501  : #else
; 502  : 			IO.analog[AXIS_THROTTLE2].center = device_axis_values[AxisMap.Throttle.Device][AxisMap.Throttle.Axis];

	mov	edx, DWORD PTR ?AxisMap@@3UAxisMapping@@A+72
	shl	edx, 5
	lea	eax, DWORD PTR _device_axis_values$[ebp+edx]
	mov	ecx, 28					; 0000001cH
	shl	ecx, 2
	mov	edx, DWORD PTR ?AxisMap@@3UAxisMapping@@A+76
	mov	eax, DWORD PTR [eax+edx*4]
	mov	DWORD PTR ?IO@@3VSIMLIB_IO_CLASS@@A[ecx], eax
$LN26@GetJoystic:

; 503  : #endif
; 504  : 		}
; 505  : 		if (setIdleCutoff)

	cmp	DWORD PTR ?setIdleCutoff@@3HA, 0	; setIdleCutoff
	je	SHORT $LN25@GetJoystic

; 506  : 		{
; 507  : #ifndef SYMMETRIC_THROTTLEDETENTS
; 508  : 			IO.analog[AXIS_THROTTLE2].cutoff  = device_axis_values[AxisMap.Throttle2.Device][AxisMap.Throttle2.Axis];
; 509  : #else
; 510  : 			IO.analog[AXIS_THROTTLE2].cutoff  = device_axis_values[AxisMap.Throttle.Device][AxisMap.Throttle.Axis];

	mov	ecx, DWORD PTR ?AxisMap@@3UAxisMapping@@A+72
	shl	ecx, 5
	lea	edx, DWORD PTR _device_axis_values$[ebp+ecx]
	mov	eax, 28					; 0000001cH
	shl	eax, 2
	mov	ecx, DWORD PTR ?AxisMap@@3UAxisMapping@@A+76
	mov	edx, DWORD PTR [edx+ecx*4]
	mov	DWORD PTR ?IO@@3VSIMLIB_IO_CLASS@@A[eax+4], edx
$LN25@GetJoystic:

; 511  : #endif
; 512  : 		}
; 513  : 	}
; 514  : 
; 515  : 	/*******************************************************************************/
; 516  : 	//	Copy and process rudder data (if available)
; 517  : 	/*******************************************************************************/
; 518  : 	if (IO.AnalogIsUsed(AXIS_YAW))

	push	2
	mov	ecx, OFFSET ?IO@@3VSIMLIB_IO_CLASS@@A	; IO
	call	?AnalogIsUsed@SIMLIB_IO_CLASS@@QAE_NW4GameAxis_t@@@Z ; SIMLIB_IO_CLASS::AnalogIsUsed
	movzx	eax, al
	test	eax, eax
	je	$LN16@GetJoystic

; 519  : 	{
; 520  : 		ProcessJoystickInput(AXIS_YAW, &device_axis_values[AxisMap.Yaw.Device][AxisMap.Yaw.Axis]);

	mov	ecx, DWORD PTR ?AxisMap@@3UAxisMapping@@A+56
	shl	ecx, 5
	lea	edx, DWORD PTR _device_axis_values$[ebp+ecx]
	mov	eax, DWORD PTR ?AxisMap@@3UAxisMapping@@A+60
	lea	ecx, DWORD PTR [edx+eax*4]
	push	ecx
	push	2
	call	?ProcessJoystickInput@@YAXW4GameAxis_t@@PAJ@Z ; ProcessJoystickInput
	add	esp, 8

; 521  : #ifdef THE_MPS_WAY_OF_LIFE
; 522  : 		//IO.analog[3].engrValue = min(max((joyState.lRz + IO.analog[3].center)/1000.0f, -1.0F),1.0F);
; 523  : 		IO.analog[AXIS_YAW].engrValue = (float)device_axis_values[AxisMap.Yaw.Device][AxisMap.Yaw.Axis] + IO.analog[AXIS_YAW].center;
; 524  : 		if(IO.analog[AXIS_YAW].engrValue * IO.analog[AXIS_YAW].center > 0)
; 525  : 			IO.analog[AXIS_YAW].engrValue /= (10000.0F + (float)abs(IO.analog[AXIS_YAW].center));
; 526  : 		else
; 527  : 			IO.analog[AXIS_YAW].engrValue /= (10000.0F - (float)abs(IO.analog[AXIS_YAW].center));
; 528  : #else	// Retro 2Jan2003
; 529  : 		if (g_bUseNewSmoothing == false)

	movzx	edx, BYTE PTR ?g_bUseNewSmoothing@@3_NA	; g_bUseNewSmoothing
	test	edx, edx
	jne	$LN23@GetJoystic

; 530  : 		{
; 531  : 			IO.analog[AXIS_YAW].engrValue = (float)device_axis_values[AxisMap.Yaw.Device][AxisMap.Yaw.Axis] + IO.analog[AXIS_YAW].center;

	mov	eax, DWORD PTR ?AxisMap@@3UAxisMapping@@A+56
	shl	eax, 5
	lea	ecx, DWORD PTR _device_axis_values$[ebp+eax]
	mov	edx, DWORD PTR ?AxisMap@@3UAxisMapping@@A+60
	cvtsi2ss xmm0, DWORD PTR [ecx+edx*4]
	mov	eax, 28					; 0000001cH
	shl	eax, 1
	cvtsi2ss xmm1, DWORD PTR ?IO@@3VSIMLIB_IO_CLASS@@A[eax]
	addss	xmm0, xmm1
	mov	ecx, 28					; 0000001cH
	shl	ecx, 1
	movss	DWORD PTR ?IO@@3VSIMLIB_IO_CLASS@@A[ecx+16], xmm0

; 532  : 			if (IO.analog[AXIS_YAW].engrValue > 0)

	mov	edx, 28					; 0000001cH
	shl	edx, 1
	movss	xmm0, DWORD PTR ?IO@@3VSIMLIB_IO_CLASS@@A[edx+16]
	comiss	xmm0, DWORD PTR __real@00000000
	jbe	SHORT $LN22@GetJoystic

; 533  : 				IO.analog[AXIS_YAW].engrValue /= Abs(10000.0F+IO.analog[AXIS_YAW].center);

	mov	esi, 28					; 0000001cH
	shl	esi, 1
	mov	eax, 28					; 0000001cH
	shl	eax, 1
	cvtsi2ss xmm0, DWORD PTR ?IO@@3VSIMLIB_IO_CLASS@@A[eax]
	addss	xmm0, DWORD PTR __real@461c4000
	push	ecx
	movss	DWORD PTR [esp], xmm0
	call	??$Abs@M@@YAMM@Z			; Abs<float>
	add	esp, 4
	fstp	DWORD PTR tv1246[ebp]
	movss	xmm0, DWORD PTR ?IO@@3VSIMLIB_IO_CLASS@@A[esi+16]
	divss	xmm0, DWORD PTR tv1246[ebp]
	mov	ecx, 28					; 0000001cH
	shl	ecx, 1
	movss	DWORD PTR ?IO@@3VSIMLIB_IO_CLASS@@A[ecx+16], xmm0

; 534  : 			else

	jmp	SHORT $LN21@GetJoystic
$LN22@GetJoystic:

; 535  : 				IO.analog[AXIS_YAW].engrValue /= Abs(-10000.0F+IO.analog[AXIS_YAW].center);

	mov	esi, 28					; 0000001cH
	shl	esi, 1
	mov	edx, 28					; 0000001cH
	shl	edx, 1
	cvtsi2ss xmm0, DWORD PTR ?IO@@3VSIMLIB_IO_CLASS@@A[edx]
	addss	xmm0, DWORD PTR __real@c61c4000
	push	ecx
	movss	DWORD PTR [esp], xmm0
	call	??$Abs@M@@YAMM@Z			; Abs<float>
	add	esp, 4
	fstp	DWORD PTR tv1256[ebp]
	movss	xmm0, DWORD PTR ?IO@@3VSIMLIB_IO_CLASS@@A[esi+16]
	divss	xmm0, DWORD PTR tv1256[ebp]
	mov	eax, 28					; 0000001cH
	shl	eax, 1
	movss	DWORD PTR ?IO@@3VSIMLIB_IO_CLASS@@A[eax+16], xmm0
$LN21@GetJoystic:

; 536  : 		}
; 537  : 		else

	jmp	$LN18@GetJoystic
$LN23@GetJoystic:

; 538  : 		{
; 539  : 			IO.analog[AXIS_YAW].engrValue = (float)IO.analog[AXIS_YAW].ioVal + IO.analog[AXIS_YAW].center;

	mov	ecx, 28					; 0000001cH
	shl	ecx, 1
	cvtsi2ss xmm0, DWORD PTR ?IO@@3VSIMLIB_IO_CLASS@@A[ecx+8]
	mov	edx, 28					; 0000001cH
	shl	edx, 1
	cvtsi2ss xmm1, DWORD PTR ?IO@@3VSIMLIB_IO_CLASS@@A[edx]
	addss	xmm0, xmm1
	mov	eax, 28					; 0000001cH
	shl	eax, 1
	movss	DWORD PTR ?IO@@3VSIMLIB_IO_CLASS@@A[eax+16], xmm0

; 540  : 			if (IO.analog[AXIS_YAW].engrValue > 0)

	mov	ecx, 28					; 0000001cH
	shl	ecx, 1
	movss	xmm0, DWORD PTR ?IO@@3VSIMLIB_IO_CLASS@@A[ecx+16]
	comiss	xmm0, DWORD PTR __real@00000000
	jbe	SHORT $LN19@GetJoystic

; 541  : 				IO.analog[AXIS_YAW].engrValue /= Abs(10000.0F+IO.analog[AXIS_YAW].center);

	mov	esi, 28					; 0000001cH
	shl	esi, 1
	mov	edx, 28					; 0000001cH
	shl	edx, 1
	cvtsi2ss xmm0, DWORD PTR ?IO@@3VSIMLIB_IO_CLASS@@A[edx]
	addss	xmm0, DWORD PTR __real@461c4000
	push	ecx
	movss	DWORD PTR [esp], xmm0
	call	??$Abs@M@@YAMM@Z			; Abs<float>
	add	esp, 4
	fstp	DWORD PTR tv1271[ebp]
	movss	xmm0, DWORD PTR ?IO@@3VSIMLIB_IO_CLASS@@A[esi+16]
	divss	xmm0, DWORD PTR tv1271[ebp]
	mov	eax, 28					; 0000001cH
	shl	eax, 1
	movss	DWORD PTR ?IO@@3VSIMLIB_IO_CLASS@@A[eax+16], xmm0

; 542  : 			else

	jmp	SHORT $LN18@GetJoystic
$LN19@GetJoystic:

; 543  : 				IO.analog[AXIS_YAW].engrValue /= Abs(-10000.0F+IO.analog[AXIS_YAW].center);

	mov	esi, 28					; 0000001cH
	shl	esi, 1
	mov	ecx, 28					; 0000001cH
	shl	ecx, 1
	cvtsi2ss xmm0, DWORD PTR ?IO@@3VSIMLIB_IO_CLASS@@A[ecx]
	addss	xmm0, DWORD PTR __real@c61c4000
	push	ecx
	movss	DWORD PTR [esp], xmm0
	call	??$Abs@M@@YAMM@Z			; Abs<float>
	add	esp, 4
	fstp	DWORD PTR tv1281[ebp]
	movss	xmm0, DWORD PTR ?IO@@3VSIMLIB_IO_CLASS@@A[esi+16]
	divss	xmm0, DWORD PTR tv1281[ebp]
	mov	edx, 28					; 0000001cH
	shl	edx, 1
	movss	DWORD PTR ?IO@@3VSIMLIB_IO_CLASS@@A[edx+16], xmm0
$LN18@GetJoystic:

; 544  : 		}
; 545  : #endif
; 546  : 		if (center)

	cmp	DWORD PTR ?center@@3HA, 0		; center
	je	SHORT $LN17@GetJoystic

; 547  : 		{
; 548  : 			IO.analog[AXIS_YAW].center = device_axis_values[AxisMap.Yaw.Device][AxisMap.Yaw.Axis] * -1;

	mov	eax, DWORD PTR ?AxisMap@@3UAxisMapping@@A+56
	shl	eax, 5
	lea	ecx, DWORD PTR _device_axis_values$[ebp+eax]
	mov	edx, DWORD PTR ?AxisMap@@3UAxisMapping@@A+60
	mov	eax, DWORD PTR [ecx+edx*4]
	imul	eax, -1
	mov	ecx, 28					; 0000001cH
	shl	ecx, 1
	mov	DWORD PTR ?IO@@3VSIMLIB_IO_CLASS@@A[ecx], eax
$LN17@GetJoystic:

; 549  : 		}
; 550  : 
; 551  : 		if (IO.analog[AXIS_YAW].isReversed == true)	// Retro 13Jan2004

	mov	edx, 28					; 0000001cH
	shl	edx, 1
	movzx	eax, BYTE PTR ?IO@@3VSIMLIB_IO_CLASS@@A[edx+20]
	cmp	eax, 1
	jne	SHORT $LN16@GetJoystic

; 552  : 		{
; 553  : 			IO.analog[AXIS_YAW].engrValue *= -1;

	mov	ecx, 28					; 0000001cH
	shl	ecx, 1
	movss	xmm0, DWORD PTR ?IO@@3VSIMLIB_IO_CLASS@@A[ecx+16]
	mulss	xmm0, DWORD PTR __real@bf800000
	mov	edx, 28					; 0000001cH
	shl	edx, 1
	movss	DWORD PTR ?IO@@3VSIMLIB_IO_CLASS@@A[edx+16], xmm0

; 554  : 			IO.analog[AXIS_YAW].ioVal *= -1;

	mov	eax, 28					; 0000001cH
	shl	eax, 1
	mov	ecx, DWORD PTR ?IO@@3VSIMLIB_IO_CLASS@@A[eax+8]
	imul	ecx, -1
	mov	edx, 28					; 0000001cH
	shl	edx, 1
	mov	DWORD PTR ?IO@@3VSIMLIB_IO_CLASS@@A[edx+8], ecx
$LN16@GetJoystic:

; 555  : 		}
; 556  : 	}
; 557  : 
; 558  : 	/*******************************************************************************/
; 559  : 	//	Copy and process additional axis
; 560  : 	//	These are the axis added by Retro; their processing is a bit less elaborate,
; 561  : 	//	and they dont have ABDetent functionality. Unipolar Axis dont have
; 562  : 	//	center functionality either.
; 563  : 	/*******************************************************************************/
; 564  : extern GameAxisSetup_t AxisSetup[AXIS_MAX];
; 565  : 	for (int a = AXIS_TRIM_PITCH; a < AXIS_MAX; a++)

	mov	DWORD PTR _a$8[ebp], 5
	jmp	SHORT $LN15@GetJoystic
$LN14@GetJoystic:
	mov	eax, DWORD PTR _a$8[ebp]
	add	eax, 1
	mov	DWORD PTR _a$8[ebp], eax
$LN15@GetJoystic:
	cmp	DWORD PTR _a$8[ebp], 22			; 00000016H
	jge	$LN13@GetJoystic

; 566  : 	{
; 567  : 		if (IO.AnalogIsUsed((GameAxis_t)a) == true)

	mov	ecx, DWORD PTR _a$8[ebp]
	push	ecx
	mov	ecx, OFFSET ?IO@@3VSIMLIB_IO_CLASS@@A	; IO
	call	?AnalogIsUsed@SIMLIB_IO_CLASS@@QAE_NW4GameAxis_t@@@Z ; SIMLIB_IO_CLASS::AnalogIsUsed
	movzx	edx, al
	cmp	edx, 1
	jne	$LN8@GetJoystic

; 568  : 		{
; 569  : 			// unipolar axis.. these have no 'center'
; 570  : 			if (AxisSetup[a].isUniPolar == true)

	mov	eax, DWORD PTR _a$8[ebp]
	imul	eax, 20					; 00000014H
	movzx	ecx, BYTE PTR ?AxisSetup@@3PAUGameAxisSetup_t@@A[eax+16]
	cmp	ecx, 1
	jne	$LN11@GetJoystic

; 571  : 			{
; 572  : 				if (IO.analog[(GameAxis_t)a].isReversed == false)

	mov	edx, DWORD PTR _a$8[ebp]
	imul	edx, 28					; 0000001cH
	movzx	eax, BYTE PTR ?IO@@3VSIMLIB_IO_CLASS@@A[edx+20]
	test	eax, eax
	jne	SHORT $LN10@GetJoystic

; 573  : 				{
; 574  : 					ProcessJoystickInput((GameAxis_t)a, &device_axis_values[*AxisSetup[a].device][*AxisSetup[a].axis]);

	mov	ecx, DWORD PTR _a$8[ebp]
	imul	ecx, 20					; 00000014H
	mov	edx, DWORD PTR ?AxisSetup@@3PAUGameAxisSetup_t@@A[ecx]
	mov	eax, DWORD PTR [edx]
	shl	eax, 5
	lea	ecx, DWORD PTR _device_axis_values$[ebp+eax]
	mov	edx, DWORD PTR _a$8[ebp]
	imul	edx, 20					; 00000014H
	mov	eax, DWORD PTR ?AxisSetup@@3PAUGameAxisSetup_t@@A[edx+4]
	mov	edx, DWORD PTR [eax]
	lea	eax, DWORD PTR [ecx+edx*4]
	push	eax
	mov	ecx, DWORD PTR _a$8[ebp]
	push	ecx
	call	?ProcessJoystickInput@@YAXW4GameAxis_t@@PAJ@Z ; ProcessJoystickInput
	add	esp, 8

; 575  : 				}
; 576  : 				else

	jmp	SHORT $LN9@GetJoystic
$LN10@GetJoystic:

; 577  : 				{
; 578  : 					long reversedValue = 15000 - device_axis_values[*AxisSetup[a].device][*AxisSetup[a].axis];

	mov	edx, DWORD PTR _a$8[ebp]
	imul	edx, 20					; 00000014H
	mov	eax, DWORD PTR ?AxisSetup@@3PAUGameAxisSetup_t@@A[edx]
	mov	ecx, DWORD PTR [eax]
	shl	ecx, 5
	lea	edx, DWORD PTR _device_axis_values$[ebp+ecx]
	mov	eax, DWORD PTR _a$8[ebp]
	imul	eax, 20					; 00000014H
	mov	ecx, DWORD PTR ?AxisSetup@@3PAUGameAxisSetup_t@@A[eax+4]
	mov	eax, DWORD PTR [ecx]
	mov	ecx, 15000				; 00003a98H
	sub	ecx, DWORD PTR [edx+eax*4]
	mov	DWORD PTR _reversedValue$2[ebp], ecx

; 579  : 					ProcessJoystickInput((GameAxis_t)a, &reversedValue);

	lea	edx, DWORD PTR _reversedValue$2[ebp]
	push	edx
	mov	eax, DWORD PTR _a$8[ebp]
	push	eax
	call	?ProcessJoystickInput@@YAXW4GameAxis_t@@PAJ@Z ; ProcessJoystickInput
	add	esp, 8
$LN9@GetJoystic:

; 580  : 				}
; 581  : 			}
; 582  : 			// bipolar axis..
; 583  : 			else

	jmp	SHORT $LN8@GetJoystic
$LN11@GetJoystic:

; 584  : 			{
; 585  : #ifndef NO_CENTER_FOR_MY_AXIS_PLEASE	// Retro 9Jan2004
; 586  : 				long correctedVal = device_axis_values[*AxisSetup[a].device][*AxisSetup[a].axis] + IO.analog[(GameAxis_t)a].center;
; 587  : #else
; 588  : 				long correctedVal = device_axis_values[*AxisSetup[a].device][*AxisSetup[a].axis];

	mov	ecx, DWORD PTR _a$8[ebp]
	imul	ecx, 20					; 00000014H
	mov	edx, DWORD PTR ?AxisSetup@@3PAUGameAxisSetup_t@@A[ecx]
	mov	eax, DWORD PTR [edx]
	shl	eax, 5
	lea	ecx, DWORD PTR _device_axis_values$[ebp+eax]
	mov	edx, DWORD PTR _a$8[ebp]
	imul	edx, 20					; 00000014H
	mov	eax, DWORD PTR ?AxisSetup@@3PAUGameAxisSetup_t@@A[edx+4]
	mov	edx, DWORD PTR [eax]
	mov	eax, DWORD PTR [ecx+edx*4]
	mov	DWORD PTR _correctedVal$3[ebp], eax

; 589  : #endif	// NO_CENTER_FOR_MY_AXIS_PLEASE
; 590  : 				if (IO.analog[(GameAxis_t)a].isReversed)

	mov	ecx, DWORD PTR _a$8[ebp]
	imul	ecx, 28					; 0000001cH
	movzx	edx, BYTE PTR ?IO@@3VSIMLIB_IO_CLASS@@A[ecx+20]
	test	edx, edx
	je	SHORT $LN7@GetJoystic

; 591  : 					correctedVal *= (-1);

	mov	eax, DWORD PTR _correctedVal$3[ebp]
	imul	eax, -1
	mov	DWORD PTR _correctedVal$3[ebp], eax
$LN7@GetJoystic:

; 592  : 
; 593  : 				ProcessJoystickInput((GameAxis_t)a, &correctedVal);

	lea	ecx, DWORD PTR _correctedVal$3[ebp]
	push	ecx
	mov	edx, DWORD PTR _a$8[ebp]
	push	edx
	call	?ProcessJoystickInput@@YAXW4GameAxis_t@@PAJ@Z ; ProcessJoystickInput
	add	esp, 8
$LN8@GetJoystic:

; 594  : 
; 595  : #ifndef NO_CENTER_FOR_MY_AXIS_PLEASE	// Retro 9Jan2004
; 596  : 				if (center)
; 597  : 				{
; 598  : 					IO.analog[(GameAxis_t)a].center = device_axis_values[*AxisSetup[a].device][*AxisSetup[a].axis] * -1;
; 599  : 				}
; 600  : #endif	// NO_CENTER_FOR_MY_AXIS_PLEASE
; 601  : 			}
; 602  : 		}
; 603  : 	}

	jmp	$LN14@GetJoystic
$LN13@GetJoystic:

; 604  : 
; 605  : 	if (center)

	cmp	DWORD PTR ?center@@3HA, 0		; center
	je	SHORT $LN6@GetJoystic

; 606  : 	{
; 607  : 		IO.SaveFile();

	mov	ecx, OFFSET ?IO@@3VSIMLIB_IO_CLASS@@A	; IO
	call	?SaveFile@SIMLIB_IO_CLASS@@QAEHXZ	; SIMLIB_IO_CLASS::SaveFile

; 608  : 		center = FALSE;

	mov	DWORD PTR ?center@@3HA, 0		; center
$LN6@GetJoystic:

; 609  : 	}
; 610  : 	if (setABdetent)

	cmp	DWORD PTR ?setABdetent@@3HA, 0		; setABdetent
	je	SHORT $LN5@GetJoystic

; 611  : 	{
; 612  : 		IO.SaveFile();

	mov	ecx, OFFSET ?IO@@3VSIMLIB_IO_CLASS@@A	; IO
	call	?SaveFile@SIMLIB_IO_CLASS@@QAEHXZ	; SIMLIB_IO_CLASS::SaveFile

; 613  : 		setABdetent = FALSE;

	mov	DWORD PTR ?setABdetent@@3HA, 0		; setABdetent
$LN5@GetJoystic:

; 614  : 	}
; 615  : 	if (setIdleCutoff)	// Retro 1Feb2004

	cmp	DWORD PTR ?setIdleCutoff@@3HA, 0	; setIdleCutoff
	je	SHORT $LN4@GetJoystic

; 616  : 	{
; 617  : 		IO.SaveFile();

	mov	ecx, OFFSET ?IO@@3VSIMLIB_IO_CLASS@@A	; IO
	call	?SaveFile@SIMLIB_IO_CLASS@@QAEHXZ	; SIMLIB_IO_CLASS::SaveFile

; 618  : 		setIdleCutoff = FALSE;

	mov	DWORD PTR ?setIdleCutoff@@3HA, 0	; setIdleCutoff
$LN4@GetJoystic:

; 619  : 	}
; 620  : 
; 621  : 	/*******************************************************************************/
; 622  : 	//	Other VR stuff.. and TrackIR polling..
; 623  : 	/*******************************************************************************/
; 624  : 	if(mHelmetIsUR)

	cmp	DWORD PTR ?mHelmetIsUR@@3JA, 0		; mHelmetIsUR
	je	SHORT $LN3@GetJoystic

; 625  : 	{
; 626  : 		GetURHelmetInput();

	call	?GetURHelmetInput@@YAXXZ		; GetURHelmetInput
	jmp	SHORT $LN1@GetJoystic
$LN3@GetJoystic:

; 627  : 	}
; 628  : 	else if ((g_bEnableTrackIR)&&(PlayerOptions.Get3dTrackIR() == true))	// Retro 26/09/03

	movzx	eax, BYTE PTR ?g_bEnableTrackIR@@3_NA	; g_bEnableTrackIR
	test	eax, eax
	je	SHORT $LN1@GetJoystic
	mov	ecx, OFFSET ?PlayerOptions@@3VPlayerOptionsClass@@A ; PlayerOptions
	call	?Get3dTrackIR@PlayerOptionsClass@@QBE_NXZ ; PlayerOptionsClass::Get3dTrackIR
	movzx	ecx, al
	cmp	ecx, 1
	jne	SHORT $LN1@GetJoystic

; 629  : 	{
; 630  : 		GetTrackIRInput();

	call	?GetTrackIRInput@@YAXXZ			; GetTrackIRInput
$LN1@GetJoystic:
$LN81@GetJoystic:

; 631  : 	}
; 632  : }

	pop	esi
	mov	ecx, DWORD PTR __$ArrayPad$[ebp]
	xor	ecx, ebp
	call	@__security_check_cookie@4
	mov	esp, ebp
	pop	ebp
	ret	0
?GetJoystickInput@@YAXXZ ENDP				; GetJoystickInput
_TEXT	ENDS
; Function compile flags: /Odtp
;	COMDAT ??_G_System_error_category@std@@UAEPAXI@Z
_TEXT	SEGMENT
_this$ = -4						; size = 4
___flags$ = 8						; size = 4
??_G_System_error_category@std@@UAEPAXI@Z PROC		; std::_System_error_category::`scalar deleting destructor', COMDAT
; _this$ = ecx
	push	ebp
	mov	ebp, esp
	push	ecx
	mov	DWORD PTR _this$[ebp], ecx
	mov	ecx, DWORD PTR _this$[ebp]
	call	??1_System_error_category@std@@UAE@XZ
	mov	eax, DWORD PTR ___flags$[ebp]
	and	eax, 1
	je	SHORT $LN1@scalar
	mov	ecx, DWORD PTR _this$[ebp]
	push	ecx
	call	??3@YAXPAX@Z				; operator delete
	add	esp, 4
$LN1@scalar:
	mov	eax, DWORD PTR _this$[ebp]
	mov	esp, ebp
	pop	ebp
	ret	4
??_G_System_error_category@std@@UAEPAXI@Z ENDP		; std::_System_error_category::`scalar deleting destructor'
_TEXT	ENDS
; Function compile flags: /Odtp
;	COMDAT ??1_System_error_category@std@@UAE@XZ
_TEXT	SEGMENT
_this$ = -4						; size = 4
??1_System_error_category@std@@UAE@XZ PROC		; std::_System_error_category::~_System_error_category, COMDAT
; _this$ = ecx
	push	ebp
	mov	ebp, esp
	push	ecx
	mov	DWORD PTR _this$[ebp], ecx
	mov	ecx, DWORD PTR _this$[ebp]
	call	??1_Generic_error_category@std@@UAE@XZ
	mov	esp, ebp
	pop	ebp
	ret	0
??1_System_error_category@std@@UAE@XZ ENDP		; std::_System_error_category::~_System_error_category
_TEXT	ENDS
; Function compile flags: /Odtp
; File c:\program files (x86)\microsoft visual studio 11.0\vc\include\system_error
;	COMDAT ?default_error_condition@_System_error_category@std@@UBE?AVerror_condition@2@H@Z
_TEXT	SEGMENT
_this$ = -4						; size = 4
___$ReturnUdt$ = 8					; size = 4
__Errval$ = 12						; size = 4
?default_error_condition@_System_error_category@std@@UBE?AVerror_condition@2@H@Z PROC ; std::_System_error_category::default_error_condition, COMDAT
; _this$ = ecx

; 641  : 		{	// make error_condition for error code (generic if possible)

	push	ebp
	mov	ebp, esp
	push	ecx
	mov	DWORD PTR _this$[ebp], ecx

; 642  : 		if (_Syserror_map(_Errval))

	mov	eax, DWORD PTR __Errval$[ebp]
	push	eax
	call	?_Syserror_map@std@@YAPBDH@Z		; std::_Syserror_map
	add	esp, 4
	test	eax, eax
	je	SHORT $LN2@default_er

; 643  : 			return (error_condition(_Errval, generic_category()));

	call	?generic_category@std@@YAABVerror_category@1@XZ ; std::generic_category
	push	eax
	mov	ecx, DWORD PTR __Errval$[ebp]
	push	ecx
	mov	ecx, DWORD PTR ___$ReturnUdt$[ebp]
	call	??0error_condition@std@@QAE@HABVerror_category@1@@Z ; std::error_condition::error_condition
	mov	eax, DWORD PTR ___$ReturnUdt$[ebp]
	jmp	SHORT $LN3@default_er

; 644  : 		else

	jmp	SHORT $LN3@default_er
$LN2@default_er:

; 645  : 			return (error_condition(_Errval, system_category()));

	call	?system_category@std@@YAABVerror_category@1@XZ ; std::system_category
	push	eax
	mov	edx, DWORD PTR __Errval$[ebp]
	push	edx
	mov	ecx, DWORD PTR ___$ReturnUdt$[ebp]
	call	??0error_condition@std@@QAE@HABVerror_category@1@@Z ; std::error_condition::error_condition
	mov	eax, DWORD PTR ___$ReturnUdt$[ebp]
$LN3@default_er:

; 646  : 		}

	mov	esp, ebp
	pop	ebp
	ret	8
?default_error_condition@_System_error_category@std@@UBE?AVerror_condition@2@H@Z ENDP ; std::_System_error_category::default_error_condition
_TEXT	ENDS
; Function compile flags: /Odtp
; File c:\program files (x86)\microsoft visual studio 11.0\vc\include\system_error
;	COMDAT ?message@_System_error_category@std@@UBE?AV?$basic_string@DU?$char_traits@D@std@@V?$allocator@D@2@@2@H@Z
_TEXT	SEGMENT
_this$ = -16						; size = 4
$T1 = -12						; size = 4
tv69 = -8						; size = 4
__Name$ = -4						; size = 4
___$ReturnUdt$ = 8					; size = 4
__Errcode$ = 12						; size = 4
?message@_System_error_category@std@@UBE?AV?$basic_string@DU?$char_traits@D@std@@V?$allocator@D@2@@2@H@Z PROC ; std::_System_error_category::message, COMDAT
; _this$ = ecx

; 634  : 		{	// convert to name of error

	push	ebp
	mov	ebp, esp
	sub	esp, 16					; 00000010H
	mov	DWORD PTR _this$[ebp], ecx
	mov	DWORD PTR $T1[ebp], 0

; 635  : 		const char *_Name = _Winerror_map(_Errcode);

	mov	eax, DWORD PTR __Errcode$[ebp]
	push	eax
	call	?_Winerror_map@std@@YAPBDH@Z		; std::_Winerror_map
	add	esp, 4
	mov	DWORD PTR __Name$[ebp], eax

; 636  : 		return (string(_Name != 0 ? _Name : "unknown error"));

	cmp	DWORD PTR __Name$[ebp], 0
	je	SHORT $LN3@message
	mov	ecx, DWORD PTR __Name$[ebp]
	mov	DWORD PTR tv69[ebp], ecx
	jmp	SHORT $LN4@message
$LN3@message:
	mov	DWORD PTR tv69[ebp], OFFSET ??_C@_0O@BFJCFAAK@unknown?5error?$AA@
$LN4@message:
	mov	edx, DWORD PTR tv69[ebp]
	push	edx
	mov	ecx, DWORD PTR ___$ReturnUdt$[ebp]
	call	??0?$basic_string@DU?$char_traits@D@std@@V?$allocator@D@2@@std@@QAE@PBD@Z ; std::basic_string<char,std::char_traits<char>,std::allocator<char> >::basic_string<char,std::char_traits<char>,std::allocator<char> >
	mov	eax, DWORD PTR $T1[ebp]
	or	eax, 1
	mov	DWORD PTR $T1[ebp], eax
	mov	eax, DWORD PTR ___$ReturnUdt$[ebp]

; 637  : 		}

	mov	esp, ebp
	pop	ebp
	ret	8
?message@_System_error_category@std@@UBE?AV?$basic_string@DU?$char_traits@D@std@@V?$allocator@D@2@@2@H@Z ENDP ; std::_System_error_category::message
_TEXT	ENDS
; Function compile flags: /Odtp
; File c:\program files (x86)\microsoft visual studio 11.0\vc\include\system_error
;	COMDAT ?name@_System_error_category@std@@UBEPBDXZ
_TEXT	SEGMENT
_this$ = -4						; size = 4
?name@_System_error_category@std@@UBEPBDXZ PROC		; std::_System_error_category::name, COMDAT
; _this$ = ecx

; 629  : 		{	// get name of category

	push	ebp
	mov	ebp, esp
	push	ecx
	mov	DWORD PTR _this$[ebp], ecx

; 630  : 		return ("system");

	mov	eax, OFFSET ??_C@_06FHFOAHML@system?$AA@

; 631  : 		}

	mov	esp, ebp
	pop	ebp
	ret	0
?name@_System_error_category@std@@UBEPBDXZ ENDP		; std::_System_error_category::name
_TEXT	ENDS
; Function compile flags: /Odtp
; File c:\program files (x86)\microsoft visual studio 11.0\vc\include\system_error
;	COMDAT ??0_System_error_category@std@@QAE@XZ
_TEXT	SEGMENT
_this$ = -4						; size = 4
??0_System_error_category@std@@QAE@XZ PROC		; std::_System_error_category::_System_error_category, COMDAT
; _this$ = ecx

; 624  : 	_System_error_category()

	push	ebp
	mov	ebp, esp
	push	ecx
	mov	DWORD PTR _this$[ebp], ecx
	mov	ecx, DWORD PTR _this$[ebp]
	call	??0_Generic_error_category@std@@QAE@XZ	; std::_Generic_error_category::_Generic_error_category
	mov	eax, DWORD PTR _this$[ebp]
	mov	DWORD PTR [eax], OFFSET ??_7_System_error_category@std@@6B@

; 625  : 		{	// default constructor
; 626  : 		}

	mov	eax, DWORD PTR _this$[ebp]
	mov	esp, ebp
	pop	ebp
	ret	0
??0_System_error_category@std@@QAE@XZ ENDP		; std::_System_error_category::_System_error_category
_TEXT	ENDS
; Function compile flags: /Odtp
;	COMDAT ??_G_Iostream_error_category@std@@UAEPAXI@Z
_TEXT	SEGMENT
_this$ = -4						; size = 4
___flags$ = 8						; size = 4
??_G_Iostream_error_category@std@@UAEPAXI@Z PROC	; std::_Iostream_error_category::`scalar deleting destructor', COMDAT
; _this$ = ecx
	push	ebp
	mov	ebp, esp
	push	ecx
	mov	DWORD PTR _this$[ebp], ecx
	mov	ecx, DWORD PTR _this$[ebp]
	call	??1_Iostream_error_category@std@@UAE@XZ
	mov	eax, DWORD PTR ___flags$[ebp]
	and	eax, 1
	je	SHORT $LN1@scalar
	mov	ecx, DWORD PTR _this$[ebp]
	push	ecx
	call	??3@YAXPAX@Z				; operator delete
	add	esp, 4
$LN1@scalar:
	mov	eax, DWORD PTR _this$[ebp]
	mov	esp, ebp
	pop	ebp
	ret	4
??_G_Iostream_error_category@std@@UAEPAXI@Z ENDP	; std::_Iostream_error_category::`scalar deleting destructor'
_TEXT	ENDS
; Function compile flags: /Odtp
;	COMDAT ??1_Iostream_error_category@std@@UAE@XZ
_TEXT	SEGMENT
_this$ = -4						; size = 4
??1_Iostream_error_category@std@@UAE@XZ PROC		; std::_Iostream_error_category::~_Iostream_error_category, COMDAT
; _this$ = ecx
	push	ebp
	mov	ebp, esp
	push	ecx
	mov	DWORD PTR _this$[ebp], ecx
	mov	ecx, DWORD PTR _this$[ebp]
	call	??1_Generic_error_category@std@@UAE@XZ
	mov	esp, ebp
	pop	ebp
	ret	0
??1_Iostream_error_category@std@@UAE@XZ ENDP		; std::_Iostream_error_category::~_Iostream_error_category
_TEXT	ENDS
; Function compile flags: /Odtp
; File c:\program files (x86)\microsoft visual studio 11.0\vc\include\system_error
;	COMDAT ?message@_Iostream_error_category@std@@UBE?AV?$basic_string@DU?$char_traits@D@std@@V?$allocator@D@2@@2@H@Z
_TEXT	SEGMENT
_this$ = -8						; size = 4
$T1 = -4						; size = 4
___$ReturnUdt$ = 8					; size = 4
__Errcode$ = 12						; size = 4
?message@_Iostream_error_category@std@@UBE?AV?$basic_string@DU?$char_traits@D@std@@V?$allocator@D@2@@2@H@Z PROC ; std::_Iostream_error_category::message, COMDAT
; _this$ = ecx

; 611  : 		{	// convert to name of error

	push	ebp
	mov	ebp, esp
	sub	esp, 8
	mov	DWORD PTR _this$[ebp], ecx
	mov	DWORD PTR $T1[ebp], 0

; 612  : 		if (_Errcode == (int)io_errc::stream)

	cmp	DWORD PTR __Errcode$[ebp], 1
	jne	SHORT $LN2@message

; 613  : 			return ("iostream stream error");

	push	OFFSET ??_C@_0BG@PADBLCHM@iostream?5stream?5error?$AA@
	mov	ecx, DWORD PTR ___$ReturnUdt$[ebp]
	call	??0?$basic_string@DU?$char_traits@D@std@@V?$allocator@D@2@@std@@QAE@PBD@Z ; std::basic_string<char,std::char_traits<char>,std::allocator<char> >::basic_string<char,std::char_traits<char>,std::allocator<char> >
	mov	eax, DWORD PTR $T1[ebp]
	or	eax, 1
	mov	DWORD PTR $T1[ebp], eax
	mov	eax, DWORD PTR ___$ReturnUdt$[ebp]
	jmp	SHORT $LN3@message

; 614  : 		else

	jmp	SHORT $LN3@message
$LN2@message:

; 615  : 			return (_Generic_error_category::message(_Errcode));

	mov	ecx, DWORD PTR __Errcode$[ebp]
	push	ecx
	mov	edx, DWORD PTR ___$ReturnUdt$[ebp]
	push	edx
	mov	ecx, DWORD PTR _this$[ebp]
	call	?message@_Generic_error_category@std@@UBE?AV?$basic_string@DU?$char_traits@D@std@@V?$allocator@D@2@@2@H@Z ; std::_Generic_error_category::message
	mov	eax, DWORD PTR $T1[ebp]
	or	eax, 1
	mov	DWORD PTR $T1[ebp], eax
	mov	eax, DWORD PTR ___$ReturnUdt$[ebp]
$LN3@message:

; 616  : 		}

	mov	esp, ebp
	pop	ebp
	ret	8
?message@_Iostream_error_category@std@@UBE?AV?$basic_string@DU?$char_traits@D@std@@V?$allocator@D@2@@2@H@Z ENDP ; std::_Iostream_error_category::message
_TEXT	ENDS
; Function compile flags: /Odtp
; File c:\program files (x86)\microsoft visual studio 11.0\vc\include\system_error
;	COMDAT ?name@_Iostream_error_category@std@@UBEPBDXZ
_TEXT	SEGMENT
_this$ = -4						; size = 4
?name@_Iostream_error_category@std@@UBEPBDXZ PROC	; std::_Iostream_error_category::name, COMDAT
; _this$ = ecx

; 606  : 		{	// get name of category

	push	ebp
	mov	ebp, esp
	push	ecx
	mov	DWORD PTR _this$[ebp], ecx

; 607  : 		return ("iostream");

	mov	eax, OFFSET ??_C@_08LLGCOLLL@iostream?$AA@

; 608  : 		}

	mov	esp, ebp
	pop	ebp
	ret	0
?name@_Iostream_error_category@std@@UBEPBDXZ ENDP	; std::_Iostream_error_category::name
_TEXT	ENDS
; Function compile flags: /Odtp
; File c:\program files (x86)\microsoft visual studio 11.0\vc\include\system_error
;	COMDAT ??0_Iostream_error_category@std@@QAE@XZ
_TEXT	SEGMENT
_this$ = -4						; size = 4
??0_Iostream_error_category@std@@QAE@XZ PROC		; std::_Iostream_error_category::_Iostream_error_category, COMDAT
; _this$ = ecx

; 601  : 	_Iostream_error_category()

	push	ebp
	mov	ebp, esp
	push	ecx
	mov	DWORD PTR _this$[ebp], ecx
	mov	ecx, DWORD PTR _this$[ebp]
	call	??0_Generic_error_category@std@@QAE@XZ	; std::_Generic_error_category::_Generic_error_category
	mov	eax, DWORD PTR _this$[ebp]
	mov	DWORD PTR [eax], OFFSET ??_7_Iostream_error_category@std@@6B@

; 602  : 		{	// default constructor
; 603  : 		}

	mov	eax, DWORD PTR _this$[ebp]
	mov	esp, ebp
	pop	ebp
	ret	0
??0_Iostream_error_category@std@@QAE@XZ ENDP		; std::_Iostream_error_category::_Iostream_error_category
_TEXT	ENDS
; Function compile flags: /Odtp
;	COMDAT ??_G_Generic_error_category@std@@UAEPAXI@Z
_TEXT	SEGMENT
_this$ = -4						; size = 4
___flags$ = 8						; size = 4
??_G_Generic_error_category@std@@UAEPAXI@Z PROC		; std::_Generic_error_category::`scalar deleting destructor', COMDAT
; _this$ = ecx
	push	ebp
	mov	ebp, esp
	push	ecx
	mov	DWORD PTR _this$[ebp], ecx
	mov	ecx, DWORD PTR _this$[ebp]
	call	??1_Generic_error_category@std@@UAE@XZ
	mov	eax, DWORD PTR ___flags$[ebp]
	and	eax, 1
	je	SHORT $LN1@scalar
	mov	ecx, DWORD PTR _this$[ebp]
	push	ecx
	call	??3@YAXPAX@Z				; operator delete
	add	esp, 4
$LN1@scalar:
	mov	eax, DWORD PTR _this$[ebp]
	mov	esp, ebp
	pop	ebp
	ret	4
??_G_Generic_error_category@std@@UAEPAXI@Z ENDP		; std::_Generic_error_category::`scalar deleting destructor'
_TEXT	ENDS
; Function compile flags: /Odtp
;	COMDAT ??1_Generic_error_category@std@@UAE@XZ
_TEXT	SEGMENT
_this$ = -4						; size = 4
??1_Generic_error_category@std@@UAE@XZ PROC		; std::_Generic_error_category::~_Generic_error_category, COMDAT
; _this$ = ecx
	push	ebp
	mov	ebp, esp
	push	ecx
	mov	DWORD PTR _this$[ebp], ecx
	mov	ecx, DWORD PTR _this$[ebp]
	call	??1error_category@std@@UAE@XZ		; std::error_category::~error_category
	mov	esp, ebp
	pop	ebp
	ret	0
??1_Generic_error_category@std@@UAE@XZ ENDP		; std::_Generic_error_category::~_Generic_error_category
_TEXT	ENDS
; Function compile flags: /Odtp
; File c:\program files (x86)\microsoft visual studio 11.0\vc\include\system_error
;	COMDAT ?message@_Generic_error_category@std@@UBE?AV?$basic_string@DU?$char_traits@D@std@@V?$allocator@D@2@@2@H@Z
_TEXT	SEGMENT
_this$ = -16						; size = 4
$T1 = -12						; size = 4
tv69 = -8						; size = 4
__Name$ = -4						; size = 4
___$ReturnUdt$ = 8					; size = 4
__Errcode$ = 12						; size = 4
?message@_Generic_error_category@std@@UBE?AV?$basic_string@DU?$char_traits@D@std@@V?$allocator@D@2@@2@H@Z PROC ; std::_Generic_error_category::message, COMDAT
; _this$ = ecx

; 590  : 		{	// convert to name of error

	push	ebp
	mov	ebp, esp
	sub	esp, 16					; 00000010H
	mov	DWORD PTR _this$[ebp], ecx
	mov	DWORD PTR $T1[ebp], 0

; 591  : 		const char *_Name = _Syserror_map(_Errcode);

	mov	eax, DWORD PTR __Errcode$[ebp]
	push	eax
	call	?_Syserror_map@std@@YAPBDH@Z		; std::_Syserror_map
	add	esp, 4
	mov	DWORD PTR __Name$[ebp], eax

; 592  : 		return (string(_Name != 0 ? _Name : "unknown error"));

	cmp	DWORD PTR __Name$[ebp], 0
	je	SHORT $LN3@message
	mov	ecx, DWORD PTR __Name$[ebp]
	mov	DWORD PTR tv69[ebp], ecx
	jmp	SHORT $LN4@message
$LN3@message:
	mov	DWORD PTR tv69[ebp], OFFSET ??_C@_0O@BFJCFAAK@unknown?5error?$AA@
$LN4@message:
	mov	edx, DWORD PTR tv69[ebp]
	push	edx
	mov	ecx, DWORD PTR ___$ReturnUdt$[ebp]
	call	??0?$basic_string@DU?$char_traits@D@std@@V?$allocator@D@2@@std@@QAE@PBD@Z ; std::basic_string<char,std::char_traits<char>,std::allocator<char> >::basic_string<char,std::char_traits<char>,std::allocator<char> >
	mov	eax, DWORD PTR $T1[ebp]
	or	eax, 1
	mov	DWORD PTR $T1[ebp], eax
	mov	eax, DWORD PTR ___$ReturnUdt$[ebp]

; 593  : 		}

	mov	esp, ebp
	pop	ebp
	ret	8
?message@_Generic_error_category@std@@UBE?AV?$basic_string@DU?$char_traits@D@std@@V?$allocator@D@2@@2@H@Z ENDP ; std::_Generic_error_category::message
_TEXT	ENDS
; Function compile flags: /Odtp
; File c:\program files (x86)\microsoft visual studio 11.0\vc\include\system_error
;	COMDAT ?name@_Generic_error_category@std@@UBEPBDXZ
_TEXT	SEGMENT
_this$ = -4						; size = 4
?name@_Generic_error_category@std@@UBEPBDXZ PROC	; std::_Generic_error_category::name, COMDAT
; _this$ = ecx

; 585  : 		{	// get name of category

	push	ebp
	mov	ebp, esp
	push	ecx
	mov	DWORD PTR _this$[ebp], ecx

; 586  : 		return ("generic");

	mov	eax, OFFSET ??_C@_07DCLBNMLN@generic?$AA@

; 587  : 		}

	mov	esp, ebp
	pop	ebp
	ret	0
?name@_Generic_error_category@std@@UBEPBDXZ ENDP	; std::_Generic_error_category::name
_TEXT	ENDS
; Function compile flags: /Odtp
; File c:\program files (x86)\microsoft visual studio 11.0\vc\include\system_error
;	COMDAT ??0_Generic_error_category@std@@QAE@XZ
_TEXT	SEGMENT
_this$ = -4						; size = 4
??0_Generic_error_category@std@@QAE@XZ PROC		; std::_Generic_error_category::_Generic_error_category, COMDAT
; _this$ = ecx

; 580  : 	_Generic_error_category()

	push	ebp
	mov	ebp, esp
	push	ecx
	mov	DWORD PTR _this$[ebp], ecx
	mov	ecx, DWORD PTR _this$[ebp]
	call	??0error_category@std@@QAE@XZ		; std::error_category::error_category
	mov	eax, DWORD PTR _this$[ebp]
	mov	DWORD PTR [eax], OFFSET ??_7_Generic_error_category@std@@6B@

; 581  : 		{	// default constructor
; 582  : 		}

	mov	eax, DWORD PTR _this$[ebp]
	mov	esp, ebp
	pop	ebp
	ret	0
??0_Generic_error_category@std@@QAE@XZ ENDP		; std::_Generic_error_category::_Generic_error_category
_TEXT	ENDS
; Function compile flags: /Odtp
; File c:\program files (x86)\microsoft visual studio 11.0\vc\include\system_error
;	COMDAT ??8error_condition@std@@QBE_NABV01@@Z
_TEXT	SEGMENT
tv78 = -8						; size = 4
_this$ = -4						; size = 4
__Right$ = 8						; size = 4
??8error_condition@std@@QBE_NABV01@@Z PROC		; std::error_condition::operator==, COMDAT
; _this$ = ecx

; 376  : 		{	// test if *this == _Right

	push	ebp
	mov	ebp, esp
	sub	esp, 8
	push	esi
	mov	DWORD PTR _this$[ebp], ecx

; 377  : 		return (category() == _Right.category()
; 378  : 			&& value() == _Right.value());

	mov	ecx, DWORD PTR __Right$[ebp]
	call	?category@error_condition@std@@QBEABVerror_category@2@XZ ; std::error_condition::category
	push	eax
	mov	ecx, DWORD PTR _this$[ebp]
	call	?category@error_condition@std@@QBEABVerror_category@2@XZ ; std::error_condition::category
	mov	ecx, eax
	call	??8error_category@std@@QBE_NABV01@@Z	; std::error_category::operator==
	movzx	eax, al
	test	eax, eax
	je	SHORT $LN3@operator
	mov	ecx, DWORD PTR _this$[ebp]
	call	?value@error_condition@std@@QBEHXZ	; std::error_condition::value
	mov	esi, eax
	mov	ecx, DWORD PTR __Right$[ebp]
	call	?value@error_condition@std@@QBEHXZ	; std::error_condition::value
	cmp	esi, eax
	jne	SHORT $LN3@operator
	mov	DWORD PTR tv78[ebp], 1
	jmp	SHORT $LN4@operator
$LN3@operator:
	mov	DWORD PTR tv78[ebp], 0
$LN4@operator:
	mov	al, BYTE PTR tv78[ebp]

; 379  : 		}

	pop	esi
	mov	esp, ebp
	pop	ebp
	ret	4
??8error_condition@std@@QBE_NABV01@@Z ENDP		; std::error_condition::operator==
_TEXT	ENDS
; Function compile flags: /Odtp
; File c:\program files (x86)\microsoft visual studio 11.0\vc\include\system_error
;	COMDAT ?category@error_condition@std@@QBEABVerror_category@2@XZ
_TEXT	SEGMENT
_this$ = -4						; size = 4
?category@error_condition@std@@QBEABVerror_category@2@XZ PROC ; std::error_condition::category, COMDAT
; _this$ = ecx

; 354  : 		{	// get category

	push	ebp
	mov	ebp, esp
	push	ecx
	mov	DWORD PTR _this$[ebp], ecx

; 355  : 		return (*_Mycat);

	mov	eax, DWORD PTR _this$[ebp]
	mov	eax, DWORD PTR [eax+4]

; 356  : 		}

	mov	esp, ebp
	pop	ebp
	ret	0
?category@error_condition@std@@QBEABVerror_category@2@XZ ENDP ; std::error_condition::category
_TEXT	ENDS
; Function compile flags: /Odtp
; File c:\program files (x86)\microsoft visual studio 11.0\vc\include\system_error
;	COMDAT ?value@error_condition@std@@QBEHXZ
_TEXT	SEGMENT
_this$ = -4						; size = 4
?value@error_condition@std@@QBEHXZ PROC			; std::error_condition::value, COMDAT
; _this$ = ecx

; 349  : 		{	// get error code

	push	ebp
	mov	ebp, esp
	push	ecx
	mov	DWORD PTR _this$[ebp], ecx

; 350  : 		return (_Myval);

	mov	eax, DWORD PTR _this$[ebp]
	mov	eax, DWORD PTR [eax]

; 351  : 		}

	mov	esp, ebp
	pop	ebp
	ret	0
?value@error_condition@std@@QBEHXZ ENDP			; std::error_condition::value
_TEXT	ENDS
; Function compile flags: /Odtp
; File c:\program files (x86)\microsoft visual studio 11.0\vc\include\system_error
;	COMDAT ??0error_condition@std@@QAE@HABVerror_category@1@@Z
_TEXT	SEGMENT
_this$ = -4						; size = 4
__Val$ = 8						; size = 4
__Cat$ = 12						; size = 4
??0error_condition@std@@QAE@HABVerror_category@1@@Z PROC ; std::error_condition::error_condition, COMDAT
; _this$ = ecx

; 316  : 		{	// construct from error code and category

	push	ebp
	mov	ebp, esp
	push	ecx
	mov	DWORD PTR _this$[ebp], ecx
	mov	eax, DWORD PTR _this$[ebp]
	mov	ecx, DWORD PTR __Val$[ebp]
	mov	DWORD PTR [eax], ecx
	mov	edx, DWORD PTR _this$[ebp]
	mov	eax, DWORD PTR __Cat$[ebp]
	mov	DWORD PTR [edx+4], eax

; 317  : 		}

	mov	eax, DWORD PTR _this$[ebp]
	mov	esp, ebp
	pop	ebp
	ret	8
??0error_condition@std@@QAE@HABVerror_category@1@@Z ENDP ; std::error_condition::error_condition
_TEXT	ENDS
; Function compile flags: /Odtp
; File c:\program files (x86)\microsoft visual studio 11.0\vc\include\system_error
;	COMDAT ?category@error_code@std@@QBEABVerror_category@2@XZ
_TEXT	SEGMENT
_this$ = -4						; size = 4
?category@error_code@std@@QBEABVerror_category@2@XZ PROC ; std::error_code::category, COMDAT
; _this$ = ecx

; 256  : 		{	// get category

	push	ebp
	mov	ebp, esp
	push	ecx
	mov	DWORD PTR _this$[ebp], ecx

; 257  : 		return (*_Mycat);

	mov	eax, DWORD PTR _this$[ebp]
	mov	eax, DWORD PTR [eax+4]

; 258  : 		}

	mov	esp, ebp
	pop	ebp
	ret	0
?category@error_code@std@@QBEABVerror_category@2@XZ ENDP ; std::error_code::category
_TEXT	ENDS
; Function compile flags: /Odtp
; File c:\program files (x86)\microsoft visual studio 11.0\vc\include\system_error
;	COMDAT ?value@error_code@std@@QBEHXZ
_TEXT	SEGMENT
_this$ = -4						; size = 4
?value@error_code@std@@QBEHXZ PROC			; std::error_code::value, COMDAT
; _this$ = ecx

; 251  : 		{	// get error code

	push	ebp
	mov	ebp, esp
	push	ecx
	mov	DWORD PTR _this$[ebp], ecx

; 252  : 		return (_Myval);

	mov	eax, DWORD PTR _this$[ebp]
	mov	eax, DWORD PTR [eax]

; 253  : 		}

	mov	esp, ebp
	pop	ebp
	ret	0
?value@error_code@std@@QBEHXZ ENDP			; std::error_code::value
_TEXT	ENDS
; Function compile flags: /Odtp
;	COMDAT ??_Gerror_category@std@@UAEPAXI@Z
_TEXT	SEGMENT
_this$ = -4						; size = 4
___flags$ = 8						; size = 4
??_Gerror_category@std@@UAEPAXI@Z PROC			; std::error_category::`scalar deleting destructor', COMDAT
; _this$ = ecx
	push	ebp
	mov	ebp, esp
	push	ecx
	mov	DWORD PTR _this$[ebp], ecx
	mov	ecx, DWORD PTR _this$[ebp]
	call	??1error_category@std@@UAE@XZ		; std::error_category::~error_category
	mov	eax, DWORD PTR ___flags$[ebp]
	and	eax, 1
	je	SHORT $LN1@scalar
	mov	ecx, DWORD PTR _this$[ebp]
	push	ecx
	call	??3@YAXPAX@Z				; operator delete
	add	esp, 4
$LN1@scalar:
	mov	eax, DWORD PTR _this$[ebp]
	mov	esp, ebp
	pop	ebp
	ret	4
??_Gerror_category@std@@UAEPAXI@Z ENDP			; std::error_category::`scalar deleting destructor'
_TEXT	ENDS
; Function compile flags: /Odtp
; File c:\program files (x86)\microsoft visual studio 11.0\vc\include\system_error
;	COMDAT ??8error_category@std@@QBE_NABV01@@Z
_TEXT	SEGMENT
_this$ = -8						; size = 4
tv65 = -4						; size = 4
__Right$ = 8						; size = 4
??8error_category@std@@QBE_NABV01@@Z PROC		; std::error_category::operator==, COMDAT
; _this$ = ecx

; 184  : 		{	// compare categories for equality

	push	ebp
	mov	ebp, esp
	sub	esp, 8
	mov	DWORD PTR _this$[ebp], ecx

; 185  : 		return (this == &_Right);

	mov	eax, DWORD PTR _this$[ebp]
	cmp	eax, DWORD PTR __Right$[ebp]
	jne	SHORT $LN3@operator
	mov	DWORD PTR tv65[ebp], 1
	jmp	SHORT $LN4@operator
$LN3@operator:
	mov	DWORD PTR tv65[ebp], 0
$LN4@operator:
	mov	al, BYTE PTR tv65[ebp]

; 186  : 		}

	mov	esp, ebp
	pop	ebp
	ret	4
??8error_category@std@@QBE_NABV01@@Z ENDP		; std::error_category::operator==
_TEXT	ENDS
; Function compile flags: /Odtp
; File c:\program files (x86)\microsoft visual studio 11.0\vc\include\system_error
;	COMDAT ?equivalent@error_category@std@@UBE_NABVerror_code@2@H@Z
_TEXT	SEGMENT
_this$ = -8						; size = 4
tv74 = -4						; size = 4
__Code$ = 8						; size = 4
__Errval$ = 12						; size = 4
?equivalent@error_category@std@@UBE_NABVerror_code@2@H@Z PROC ; std::error_category::equivalent, COMDAT
; _this$ = ecx

; 415  : 	{	// test if conditions same for this category

	push	ebp
	mov	ebp, esp
	sub	esp, 8
	mov	DWORD PTR _this$[ebp], ecx

; 416  : 	return (*this == _Code.category() && _Code.value() == _Errval);

	mov	ecx, DWORD PTR __Code$[ebp]
	call	?category@error_code@std@@QBEABVerror_category@2@XZ ; std::error_code::category
	push	eax
	mov	ecx, DWORD PTR _this$[ebp]
	call	??8error_category@std@@QBE_NABV01@@Z	; std::error_category::operator==
	movzx	eax, al
	test	eax, eax
	je	SHORT $LN3@equivalent
	mov	ecx, DWORD PTR __Code$[ebp]
	call	?value@error_code@std@@QBEHXZ		; std::error_code::value
	cmp	eax, DWORD PTR __Errval$[ebp]
	jne	SHORT $LN3@equivalent
	mov	DWORD PTR tv74[ebp], 1
	jmp	SHORT $LN4@equivalent
$LN3@equivalent:
	mov	DWORD PTR tv74[ebp], 0
$LN4@equivalent:
	mov	al, BYTE PTR tv74[ebp]

; 417  : 	}

	mov	esp, ebp
	pop	ebp
	ret	8
?equivalent@error_category@std@@UBE_NABVerror_code@2@H@Z ENDP ; std::error_category::equivalent
_TEXT	ENDS
; Function compile flags: /Odtp
; File c:\program files (x86)\microsoft visual studio 11.0\vc\include\system_error
;	COMDAT ?equivalent@error_category@std@@UBE_NHABVerror_condition@2@@Z
_TEXT	SEGMENT
$T1 = -12						; size = 8
_this$ = -4						; size = 4
__Errval$ = 8						; size = 4
__Cond$ = 12						; size = 4
?equivalent@error_category@std@@UBE_NHABVerror_condition@2@@Z PROC ; std::error_category::equivalent, COMDAT
; _this$ = ecx

; 408  : 	{	// test if error code same condition

	push	ebp
	mov	ebp, esp
	sub	esp, 12					; 0000000cH
	mov	DWORD PTR _this$[ebp], ecx

; 409  : 	return (default_error_condition(_Errval) == _Cond);

	mov	eax, DWORD PTR __Cond$[ebp]
	push	eax
	mov	ecx, DWORD PTR __Errval$[ebp]
	push	ecx
	lea	edx, DWORD PTR $T1[ebp]
	push	edx
	mov	eax, DWORD PTR _this$[ebp]
	mov	edx, DWORD PTR [eax]
	mov	ecx, DWORD PTR _this$[ebp]
	mov	eax, DWORD PTR [edx+12]
	call	eax
	mov	ecx, eax
	call	??8error_condition@std@@QBE_NABV01@@Z	; std::error_condition::operator==

; 410  : 	}

	mov	esp, ebp
	pop	ebp
	ret	8
?equivalent@error_category@std@@UBE_NHABVerror_condition@2@@Z ENDP ; std::error_category::equivalent
_TEXT	ENDS
; Function compile flags: /Odtp
; File c:\program files (x86)\microsoft visual studio 11.0\vc\include\system_error
;	COMDAT ?default_error_condition@error_category@std@@UBE?AVerror_condition@2@H@Z
_TEXT	SEGMENT
_this$ = -4						; size = 4
___$ReturnUdt$ = 8					; size = 4
__Errval$ = 12						; size = 4
?default_error_condition@error_category@std@@UBE?AVerror_condition@2@H@Z PROC ; std::error_category::default_error_condition, COMDAT
; _this$ = ecx

; 401  : 	{	// make error_condition for error code

	push	ebp
	mov	ebp, esp
	push	ecx
	mov	DWORD PTR _this$[ebp], ecx

; 402  : 	return (error_condition(_Errval, *this));

	mov	eax, DWORD PTR _this$[ebp]
	push	eax
	mov	ecx, DWORD PTR __Errval$[ebp]
	push	ecx
	mov	ecx, DWORD PTR ___$ReturnUdt$[ebp]
	call	??0error_condition@std@@QAE@HABVerror_category@1@@Z ; std::error_condition::error_condition
	mov	eax, DWORD PTR ___$ReturnUdt$[ebp]

; 403  : 	}

	mov	esp, ebp
	pop	ebp
	ret	8
?default_error_condition@error_category@std@@UBE?AVerror_condition@2@H@Z ENDP ; std::error_category::default_error_condition
_TEXT	ENDS
; Function compile flags: /Odtp
; File c:\program files (x86)\microsoft visual studio 11.0\vc\include\system_error
;	COMDAT ??1error_category@std@@UAE@XZ
_TEXT	SEGMENT
_this$ = -4						; size = 4
??1error_category@std@@UAE@XZ PROC			; std::error_category::~error_category, COMDAT
; _this$ = ecx

; 167  : 		{	// destroy the object

	push	ebp
	mov	ebp, esp
	push	ecx
	mov	DWORD PTR _this$[ebp], ecx
	mov	eax, DWORD PTR _this$[ebp]
	mov	DWORD PTR [eax], OFFSET ??_7error_category@std@@6B@

; 168  : 		}

	mov	esp, ebp
	pop	ebp
	ret	0
??1error_category@std@@UAE@XZ ENDP			; std::error_category::~error_category
_TEXT	ENDS
; Function compile flags: /Odtp
; File c:\program files (x86)\microsoft visual studio 11.0\vc\include\system_error
;	COMDAT ??0error_category@std@@QAE@XZ
_TEXT	SEGMENT
_this$ = -4						; size = 4
??0error_category@std@@QAE@XZ PROC			; std::error_category::error_category, COMDAT
; _this$ = ecx

; 162  : 	error_category()

	push	ebp
	mov	ebp, esp
	push	ecx
	mov	DWORD PTR _this$[ebp], ecx
	mov	eax, DWORD PTR _this$[ebp]
	mov	DWORD PTR [eax], OFFSET ??_7error_category@std@@6B@

; 163  : 		{	// default constructor
; 164  : 		}

	mov	eax, DWORD PTR _this$[ebp]
	mov	esp, ebp
	pop	ebp
	ret	0
??0error_category@std@@QAE@XZ ENDP			; std::error_category::error_category
_TEXT	ENDS
; Function compile flags: /Odtp
; File c:\program files (x86)\microsoft visual studio 11.0\vc\include\system_error
;	COMDAT ?system_category@std@@YAABVerror_category@1@XZ
_TEXT	SEGMENT
?system_category@std@@YAABVerror_category@1@XZ PROC	; std::system_category, COMDAT

; 679  : 	{	// get system_category

	push	ebp
	mov	ebp, esp

; 680  : 	return (_Error_objects<int>::_System_object);

	mov	eax, OFFSET ?_System_object@?$_Error_objects@H@std@@2V_System_error_category@2@A ; std::_Error_objects<int>::_System_object

; 681  : 	}

	pop	ebp
	ret	0
?system_category@std@@YAABVerror_category@1@XZ ENDP	; std::system_category
_TEXT	ENDS
; Function compile flags: /Odtp
; File c:\program files (x86)\microsoft visual studio 11.0\vc\include\system_error
;	COMDAT ?generic_category@std@@YAABVerror_category@1@XZ
_TEXT	SEGMENT
?generic_category@std@@YAABVerror_category@1@XZ PROC	; std::generic_category, COMDAT

; 669  : 	{	// get generic_category

	push	ebp
	mov	ebp, esp

; 670  : 	return (_Error_objects<int>::_Generic_object);

	mov	eax, OFFSET ?_Generic_object@?$_Error_objects@H@std@@2V_Generic_error_category@2@A ; std::_Error_objects<int>::_Generic_object

; 671  : 	}

	pop	ebp
	ret	0
?generic_category@std@@YAABVerror_category@1@XZ ENDP	; std::generic_category
_TEXT	ENDS
; Function compile flags: /Odtp
; File c:\program files (x86)\microsoft visual studio 11.0\vc\include\xlocale
;	COMDAT ??0id@locale@std@@QAE@I@Z
_TEXT	SEGMENT
_this$ = -4						; size = 4
__Val$ = 8						; size = 4
??0id@locale@std@@QAE@I@Z PROC				; std::locale::id::id, COMDAT
; _this$ = ecx

; 74   : 			{	// construct with specified stamp value

	push	ebp
	mov	ebp, esp
	push	ecx
	mov	DWORD PTR _this$[ebp], ecx
	mov	eax, DWORD PTR _this$[ebp]
	mov	ecx, DWORD PTR __Val$[ebp]
	mov	DWORD PTR [eax], ecx

; 75   : 			}

	mov	eax, DWORD PTR _this$[ebp]
	mov	esp, ebp
	pop	ebp
	ret	4
??0id@locale@std@@QAE@I@Z ENDP				; std::locale::id::id
_TEXT	ENDS
; Function compile flags: /Odtp
; File c:\program files (x86)\microsoft visual studio 11.0\vc\include\xstring
;	COMDAT ?_Xran@?$basic_string@DU?$char_traits@D@std@@V?$allocator@D@2@@std@@QBEXXZ
_TEXT	SEGMENT
_this$ = -4						; size = 4
?_Xran@?$basic_string@DU?$char_traits@D@std@@V?$allocator@D@2@@std@@QBEXXZ PROC ; std::basic_string<char,std::char_traits<char>,std::allocator<char> >::_Xran, COMDAT
; _this$ = ecx

; 2275 : 		{	// report an out_of_range error

	push	ebp
	mov	ebp, esp
	push	ecx
	mov	DWORD PTR _this$[ebp], ecx

; 2276 : 		_Xout_of_range("invalid string position");

	push	OFFSET ??_C@_0BI@CFPLBAOH@invalid?5string?5position?$AA@
	call	?_Xout_of_range@std@@YAXPBD@Z		; std::_Xout_of_range
$LN2@Xran:

; 2277 : 		}

	mov	esp, ebp
	pop	ebp
	ret	0
?_Xran@?$basic_string@DU?$char_traits@D@std@@V?$allocator@D@2@@std@@QBEXXZ ENDP ; std::basic_string<char,std::char_traits<char>,std::allocator<char> >::_Xran
_TEXT	ENDS
; Function compile flags: /Odtp
; File c:\program files (x86)\microsoft visual studio 11.0\vc\include\xstring
;	COMDAT ?_Xlen@?$basic_string@DU?$char_traits@D@std@@V?$allocator@D@2@@std@@QBEXXZ
_TEXT	SEGMENT
_this$ = -4						; size = 4
?_Xlen@?$basic_string@DU?$char_traits@D@std@@V?$allocator@D@2@@std@@QBEXXZ PROC ; std::basic_string<char,std::char_traits<char>,std::allocator<char> >::_Xlen, COMDAT
; _this$ = ecx

; 2270 : 		{	// report a length_error

	push	ebp
	mov	ebp, esp
	push	ecx
	mov	DWORD PTR _this$[ebp], ecx

; 2271 : 		_Xlength_error("string too long");

	push	OFFSET ??_C@_0BA@JFNIOLAK@string?5too?5long?$AA@
	call	?_Xlength_error@std@@YAXPBD@Z		; std::_Xlength_error
$LN2@Xlen:

; 2272 : 		}

	mov	esp, ebp
	pop	ebp
	ret	0
?_Xlen@?$basic_string@DU?$char_traits@D@std@@V?$allocator@D@2@@std@@QBEXXZ ENDP ; std::basic_string<char,std::char_traits<char>,std::allocator<char> >::_Xlen
_TEXT	ENDS
; Function compile flags: /Odtp
; File c:\program files (x86)\microsoft visual studio 11.0\vc\include\xstring
;	COMDAT ?_Tidy@?$basic_string@DU?$char_traits@D@std@@V?$allocator@D@2@@std@@QAEX_NI@Z
_TEXT	SEGMENT
__Ptr$1 = -12						; size = 4
_this$ = -8						; size = 4
$T2 = -2						; size = 1
$T3 = -1						; size = 1
__Built$ = 8						; size = 1
__Newsize$ = 12						; size = 4
?_Tidy@?$basic_string@DU?$char_traits@D@std@@V?$allocator@D@2@@std@@QAEX_NI@Z PROC ; std::basic_string<char,std::char_traits<char>,std::allocator<char> >::_Tidy, COMDAT
; _this$ = ecx

; 2253 : 		{	// initialize buffer, deallocating any storage

	push	ebp
	mov	ebp, esp
	sub	esp, 12					; 0000000cH
	mov	DWORD PTR _this$[ebp], ecx

; 2254 : 		if (!_Built)

	movzx	eax, BYTE PTR __Built$[ebp]
	test	eax, eax
	jne	SHORT $LN4@Tidy
	jmp	SHORT $LN3@Tidy
$LN4@Tidy:

; 2255 : 			;
; 2256 : 		else if (this->_BUF_SIZE <= this->_Myres)

	mov	ecx, DWORD PTR _this$[ebp]
	cmp	DWORD PTR [ecx+20], 16			; 00000010H
	jb	SHORT $LN3@Tidy

; 2257 : 			{	// copy any leftovers to small buffer and deallocate
; 2258 : 			pointer _Ptr = this->_Bx._Ptr;

	mov	edx, DWORD PTR _this$[ebp]
	mov	eax, DWORD PTR [edx]
	mov	DWORD PTR __Ptr$1[ebp], eax

; 2259 : 			this->_Getal().destroy(&this->_Bx._Ptr);

	mov	ecx, DWORD PTR _this$[ebp]
	push	ecx
	lea	edx, DWORD PTR $T3[ebp]
	push	edx
	mov	ecx, DWORD PTR _this$[ebp]
	call	?_Getal@?$_String_alloc@$0A@U?$_String_base_types@DV?$allocator@D@std@@@std@@@std@@QBE?AU?$_Wrap_alloc@V?$allocator@D@std@@@2@XZ ; std::_String_alloc<0,std::_String_base_types<char,std::allocator<char> > >::_Getal
	mov	ecx, eax
	call	??$destroy@PAD@?$_Wrap_alloc@V?$allocator@D@std@@@std@@QAEXPAPAD@Z ; std::_Wrap_alloc<std::allocator<char> >::destroy<char *>

; 2260 : 			if (0 < _Newsize)

	cmp	DWORD PTR __Newsize$[ebp], 0
	jbe	SHORT $LN1@Tidy

; 2261 : 				_Traits::copy(this->_Bx._Buf,
; 2262 : 					_STD addressof(*_Ptr), _Newsize);

	mov	eax, DWORD PTR __Newsize$[ebp]
	push	eax
	mov	ecx, DWORD PTR __Ptr$1[ebp]
	push	ecx
	call	??$addressof@D@std@@YAPADAAD@Z		; std::addressof<char>
	add	esp, 4
	push	eax
	mov	edx, DWORD PTR _this$[ebp]
	push	edx
	call	?copy@?$char_traits@D@std@@SAPADPADPBDI@Z ; std::char_traits<char>::copy
	add	esp, 12					; 0000000cH
$LN1@Tidy:

; 2263 : 			this->_Getal().deallocate(_Ptr, this->_Myres + 1);

	mov	eax, DWORD PTR _this$[ebp]
	mov	ecx, DWORD PTR [eax+20]
	add	ecx, 1
	push	ecx
	mov	edx, DWORD PTR __Ptr$1[ebp]
	push	edx
	lea	eax, DWORD PTR $T2[ebp]
	push	eax
	mov	ecx, DWORD PTR _this$[ebp]
	call	?_Getal@?$_String_alloc@$0A@U?$_String_base_types@DV?$allocator@D@std@@@std@@@std@@QBE?AU?$_Wrap_alloc@V?$allocator@D@std@@@2@XZ ; std::_String_alloc<0,std::_String_base_types<char,std::allocator<char> > >::_Getal
	mov	ecx, eax
	call	?deallocate@?$_Wrap_alloc@V?$allocator@D@std@@@std@@QAEXPADI@Z ; std::_Wrap_alloc<std::allocator<char> >::deallocate
$LN3@Tidy:

; 2264 : 			}
; 2265 : 		this->_Myres = this->_BUF_SIZE - 1;

	mov	ecx, DWORD PTR _this$[ebp]
	mov	DWORD PTR [ecx+20], 15			; 0000000fH

; 2266 : 		_Eos(_Newsize);

	mov	edx, DWORD PTR __Newsize$[ebp]
	push	edx
	mov	ecx, DWORD PTR _this$[ebp]
	call	?_Eos@?$basic_string@DU?$char_traits@D@std@@V?$allocator@D@2@@std@@QAEXI@Z ; std::basic_string<char,std::char_traits<char>,std::allocator<char> >::_Eos

; 2267 : 		}

	mov	esp, ebp
	pop	ebp
	ret	8
?_Tidy@?$basic_string@DU?$char_traits@D@std@@V?$allocator@D@2@@std@@QAEX_NI@Z ENDP ; std::basic_string<char,std::char_traits<char>,std::allocator<char> >::_Tidy
_TEXT	ENDS
; Function compile flags: /Odtp
; File c:\program files (x86)\microsoft visual studio 11.0\vc\include\xstring
;	COMDAT ?_Inside@?$basic_string@DU?$char_traits@D@std@@V?$allocator@D@2@@std@@QAE_NPBD@Z
_TEXT	SEGMENT
_this$ = -4						; size = 4
__Ptr$ = 8						; size = 4
?_Inside@?$basic_string@DU?$char_traits@D@std@@V?$allocator@D@2@@std@@QAE_NPBD@Z PROC ; std::basic_string<char,std::char_traits<char>,std::allocator<char> >::_Inside, COMDAT
; _this$ = ecx

; 2237 : 		{	// test if _Ptr points inside string

	push	ebp
	mov	ebp, esp
	push	ecx
	mov	DWORD PTR _this$[ebp], ecx

; 2238 : 		if (_Ptr == 0 || _Ptr < this->_Myptr()
; 2239 : 			|| this->_Myptr() + this->_Mysize <= _Ptr)

	cmp	DWORD PTR __Ptr$[ebp], 0
	je	SHORT $LN2@Inside
	mov	ecx, DWORD PTR _this$[ebp]
	call	?_Myptr@?$_String_val@U?$_Simple_types@D@std@@@std@@QAEPADXZ ; std::_String_val<std::_Simple_types<char> >::_Myptr
	cmp	DWORD PTR __Ptr$[ebp], eax
	jb	SHORT $LN2@Inside
	mov	ecx, DWORD PTR _this$[ebp]
	call	?_Myptr@?$_String_val@U?$_Simple_types@D@std@@@std@@QAEPADXZ ; std::_String_val<std::_Simple_types<char> >::_Myptr
	mov	ecx, DWORD PTR _this$[ebp]
	add	eax, DWORD PTR [ecx+16]
	cmp	eax, DWORD PTR __Ptr$[ebp]
	ja	SHORT $LN3@Inside
$LN2@Inside:

; 2240 : 			return (false);	// don't ask

	xor	al, al
	jmp	SHORT $LN4@Inside

; 2241 : 		else

	jmp	SHORT $LN4@Inside
$LN3@Inside:

; 2242 : 			return (true);

	mov	al, 1
$LN4@Inside:

; 2243 : 		}

	mov	esp, ebp
	pop	ebp
	ret	4
?_Inside@?$basic_string@DU?$char_traits@D@std@@V?$allocator@D@2@@std@@QAE_NPBD@Z ENDP ; std::basic_string<char,std::char_traits<char>,std::allocator<char> >::_Inside
_TEXT	ENDS
; Function compile flags: /Odtp
; File c:\program files (x86)\microsoft visual studio 11.0\vc\include\xstring
;	COMDAT ?_Grow@?$basic_string@DU?$char_traits@D@std@@V?$allocator@D@2@@std@@QAE_NI_N@Z
_TEXT	SEGMENT
tv136 = -12						; size = 4
tv129 = -8						; size = 4
_this$ = -4						; size = 4
__Newsize$ = 8						; size = 4
__Trim$ = 12						; size = 1
?_Grow@?$basic_string@DU?$char_traits@D@std@@V?$allocator@D@2@@std@@QAE_NI_N@Z PROC ; std::basic_string<char,std::char_traits<char>,std::allocator<char> >::_Grow, COMDAT
; _this$ = ecx

; 2223 : 		{	// ensure buffer is big enough, trim to size if _Trim is true

	push	ebp
	mov	ebp, esp
	sub	esp, 12					; 0000000cH
	mov	DWORD PTR _this$[ebp], ecx

; 2224 : 		if (max_size() < _Newsize)

	mov	ecx, DWORD PTR _this$[ebp]
	call	?max_size@?$basic_string@DU?$char_traits@D@std@@V?$allocator@D@2@@std@@QBEIXZ ; std::basic_string<char,std::char_traits<char>,std::allocator<char> >::max_size
	cmp	eax, DWORD PTR __Newsize$[ebp]
	jae	SHORT $LN6@Grow

; 2225 : 			_Xlen();	// result too long

	mov	ecx, DWORD PTR _this$[ebp]
	call	?_Xlen@?$basic_string@DU?$char_traits@D@std@@V?$allocator@D@2@@std@@QBEXXZ ; std::basic_string<char,std::char_traits<char>,std::allocator<char> >::_Xlen
$LN6@Grow:

; 2226 : 		if (this->_Myres < _Newsize)

	mov	eax, DWORD PTR _this$[ebp]
	mov	ecx, DWORD PTR [eax+20]
	cmp	ecx, DWORD PTR __Newsize$[ebp]
	jae	SHORT $LN5@Grow

; 2227 : 			_Copy(_Newsize, this->_Mysize);	// reallocate to grow

	mov	edx, DWORD PTR _this$[ebp]
	mov	eax, DWORD PTR [edx+16]
	push	eax
	mov	ecx, DWORD PTR __Newsize$[ebp]
	push	ecx
	mov	ecx, DWORD PTR _this$[ebp]
	call	?_Copy@?$basic_string@DU?$char_traits@D@std@@V?$allocator@D@2@@std@@QAEXII@Z ; std::basic_string<char,std::char_traits<char>,std::allocator<char> >::_Copy
	jmp	SHORT $LN4@Grow
$LN5@Grow:

; 2228 : 		else if (_Trim && _Newsize < this->_BUF_SIZE)

	movzx	edx, BYTE PTR __Trim$[ebp]
	test	edx, edx
	je	SHORT $LN3@Grow
	cmp	DWORD PTR __Newsize$[ebp], 16		; 00000010H
	jae	SHORT $LN3@Grow

; 2229 : 			_Tidy(true,	// copy and deallocate if trimming to small string
; 2230 : 				_Newsize < this->_Mysize ? _Newsize : this->_Mysize);

	mov	eax, DWORD PTR _this$[ebp]
	mov	ecx, DWORD PTR __Newsize$[ebp]
	cmp	ecx, DWORD PTR [eax+16]
	jae	SHORT $LN9@Grow
	mov	edx, DWORD PTR __Newsize$[ebp]
	mov	DWORD PTR tv129[ebp], edx
	jmp	SHORT $LN10@Grow
$LN9@Grow:
	mov	eax, DWORD PTR _this$[ebp]
	mov	ecx, DWORD PTR [eax+16]
	mov	DWORD PTR tv129[ebp], ecx
$LN10@Grow:
	mov	edx, DWORD PTR tv129[ebp]
	push	edx
	push	1
	mov	ecx, DWORD PTR _this$[ebp]
	call	?_Tidy@?$basic_string@DU?$char_traits@D@std@@V?$allocator@D@2@@std@@QAEX_NI@Z ; std::basic_string<char,std::char_traits<char>,std::allocator<char> >::_Tidy
	jmp	SHORT $LN4@Grow
$LN3@Grow:

; 2231 : 		else if (_Newsize == 0)

	cmp	DWORD PTR __Newsize$[ebp], 0
	jne	SHORT $LN4@Grow

; 2232 : 			_Eos(0);	// new size is zero, just null terminate

	push	0
	mov	ecx, DWORD PTR _this$[ebp]
	call	?_Eos@?$basic_string@DU?$char_traits@D@std@@V?$allocator@D@2@@std@@QAEXI@Z ; std::basic_string<char,std::char_traits<char>,std::allocator<char> >::_Eos
$LN4@Grow:

; 2233 : 		return (0 < _Newsize);	// return true only if more work to do

	cmp	DWORD PTR __Newsize$[ebp], 0
	jbe	SHORT $LN11@Grow
	mov	DWORD PTR tv136[ebp], 1
	jmp	SHORT $LN12@Grow
$LN11@Grow:
	mov	DWORD PTR tv136[ebp], 0
$LN12@Grow:
	mov	al, BYTE PTR tv136[ebp]
$LN8@Grow:

; 2234 : 		}

	mov	esp, ebp
	pop	ebp
	ret	8
?_Grow@?$basic_string@DU?$char_traits@D@std@@V?$allocator@D@2@@std@@QAE_NI_N@Z ENDP ; std::basic_string<char,std::char_traits<char>,std::allocator<char> >::_Grow
_TEXT	ENDS
; Function compile flags: /Odtp
; File c:\program files (x86)\microsoft visual studio 11.0\vc\include\xstring
;	COMDAT ?_Eos@?$basic_string@DU?$char_traits@D@std@@V?$allocator@D@2@@std@@QAEXI@Z
_TEXT	SEGMENT
_this$ = -8						; size = 4
$T1 = -1						; size = 1
__Newsize$ = 8						; size = 4
?_Eos@?$basic_string@DU?$char_traits@D@std@@V?$allocator@D@2@@std@@QAEXI@Z PROC ; std::basic_string<char,std::char_traits<char>,std::allocator<char> >::_Eos, COMDAT
; _this$ = ecx

; 2217 : 		{	// set new length and null terminator

	push	ebp
	mov	ebp, esp
	sub	esp, 8
	mov	DWORD PTR _this$[ebp], ecx

; 2218 : 		_Traits::assign(this->_Myptr()[this->_Mysize = _Newsize], _Elem());

	mov	BYTE PTR $T1[ebp], 0
	mov	eax, DWORD PTR _this$[ebp]
	mov	ecx, DWORD PTR __Newsize$[ebp]
	mov	DWORD PTR [eax+16], ecx
	lea	edx, DWORD PTR $T1[ebp]
	push	edx
	mov	ecx, DWORD PTR _this$[ebp]
	call	?_Myptr@?$_String_val@U?$_Simple_types@D@std@@@std@@QAEPADXZ ; std::_String_val<std::_Simple_types<char> >::_Myptr
	add	eax, DWORD PTR __Newsize$[ebp]
	push	eax
	call	?assign@?$char_traits@D@std@@SAXAADABD@Z ; std::char_traits<char>::assign
	add	esp, 8

; 2219 : 		}

	mov	esp, ebp
	pop	ebp
	ret	4
?_Eos@?$basic_string@DU?$char_traits@D@std@@V?$allocator@D@2@@std@@QAEXI@Z ENDP ; std::basic_string<char,std::char_traits<char>,std::allocator<char> >::_Eos
_TEXT	ENDS
; Function compile flags: /Odtp
; File c:\program files (x86)\microsoft visual studio 11.0\vc\include\xstring
;	COMDAT ?_Copy@?$basic_string@DU?$char_traits@D@std@@V?$allocator@D@2@@std@@QAEXII@Z
_TEXT	SEGMENT
tv205 = -48						; size = 4
tv204 = -44						; size = 4
tv203 = -40						; size = 4
tv202 = -36						; size = 4
__Ptr$ = -32						; size = 4
__Newres$ = -28						; size = 4
_this$ = -24						; size = 4
$T2 = -19						; size = 1
$T3 = -18						; size = 1
$T4 = -17						; size = 1
__$EHRec$ = -16						; size = 16
__Newsize$ = 8						; size = 4
__Oldlen$ = 12						; size = 4
?_Copy@?$basic_string@DU?$char_traits@D@std@@V?$allocator@D@2@@std@@QAEXII@Z PROC ; std::basic_string<char,std::char_traits<char>,std::allocator<char> >::_Copy, COMDAT
; _this$ = ecx

; 2182 : 		{	// copy _Oldlen elements to newly allocated buffer

	push	ebp
	mov	ebp, esp
	push	-1
	push	__ehhandler$?_Copy@?$basic_string@DU?$char_traits@D@std@@V?$allocator@D@2@@std@@QAEXII@Z
	mov	eax, DWORD PTR fs:0
	push	eax
	push	ecx
	sub	esp, 32					; 00000020H
	push	ebx
	push	esi
	push	edi
	mov	eax, DWORD PTR ___security_cookie
	xor	eax, ebp
	push	eax
	lea	eax, DWORD PTR __$EHRec$[ebp+4]
	mov	DWORD PTR fs:0, eax
	mov	DWORD PTR __$EHRec$[ebp], esp
	mov	DWORD PTR _this$[ebp], ecx

; 2183 : 		size_type _Newres = _Newsize | this->_ALLOC_MASK;

	mov	eax, DWORD PTR __Newsize$[ebp]
	or	eax, 15					; 0000000fH
	mov	DWORD PTR __Newres$[ebp], eax

; 2184 : 		if (max_size() < _Newres)

	mov	ecx, DWORD PTR _this$[ebp]
	call	?max_size@?$basic_string@DU?$char_traits@D@std@@V?$allocator@D@2@@std@@QBEIXZ ; std::basic_string<char,std::char_traits<char>,std::allocator<char> >::max_size
	cmp	eax, DWORD PTR __Newres$[ebp]
	jae	SHORT $LN9@Copy

; 2185 : 			_Newres = _Newsize;	// undo roundup if too big

	mov	ecx, DWORD PTR __Newsize$[ebp]
	mov	DWORD PTR __Newres$[ebp], ecx
	jmp	SHORT $LN8@Copy
$LN9@Copy:

; 2186 : 		else if (this->_Myres / 2 <= _Newres / 3)

	mov	eax, DWORD PTR __Newres$[ebp]
	xor	edx, edx
	mov	ecx, 3
	div	ecx
	mov	edx, DWORD PTR _this$[ebp]
	mov	ecx, DWORD PTR [edx+20]
	shr	ecx, 1
	cmp	ecx, eax
	ja	SHORT $LN7@Copy
	jmp	SHORT $LN8@Copy
$LN7@Copy:

; 2187 : 			;
; 2188 : 		else if (this->_Myres <= max_size() - this->_Myres / 2)

	mov	edx, DWORD PTR _this$[ebp]
	mov	esi, DWORD PTR [edx+20]
	shr	esi, 1
	mov	ecx, DWORD PTR _this$[ebp]
	call	?max_size@?$basic_string@DU?$char_traits@D@std@@V?$allocator@D@2@@std@@QBEIXZ ; std::basic_string<char,std::char_traits<char>,std::allocator<char> >::max_size
	sub	eax, esi
	mov	ecx, DWORD PTR _this$[ebp]
	cmp	DWORD PTR [ecx+20], eax
	ja	SHORT $LN5@Copy

; 2189 : 			_Newres = this->_Myres
; 2190 : 				+ this->_Myres / 2;	// grow exponentially if possible

	mov	edx, DWORD PTR _this$[ebp]
	mov	eax, DWORD PTR [edx+20]
	shr	eax, 1
	mov	ecx, DWORD PTR _this$[ebp]
	add	eax, DWORD PTR [ecx+20]
	mov	DWORD PTR __Newres$[ebp], eax

; 2191 : 		else

	jmp	SHORT $LN8@Copy
$LN5@Copy:

; 2192 : 			_Newres = max_size();	// settle for max_size()

	mov	ecx, DWORD PTR _this$[ebp]
	call	?max_size@?$basic_string@DU?$char_traits@D@std@@V?$allocator@D@2@@std@@QBEIXZ ; std::basic_string<char,std::char_traits<char>,std::allocator<char> >::max_size
	mov	DWORD PTR __Newres$[ebp], eax
$LN8@Copy:

; 2193 : 
; 2194 : 		_Elem *_Ptr;
; 2195 : 		_TRY_BEGIN

	mov	DWORD PTR __$EHRec$[ebp+12], 0

; 2196 : 			_Ptr = this->_Getal().allocate(_Newres + 1);

	lea	edx, DWORD PTR $T4[ebp]
	push	edx
	mov	ecx, DWORD PTR _this$[ebp]
	call	?_Getal@?$_String_alloc@$0A@U?$_String_base_types@DV?$allocator@D@std@@@std@@@std@@QBE?AU?$_Wrap_alloc@V?$allocator@D@std@@@2@XZ ; std::_String_alloc<0,std::_String_base_types<char,std::allocator<char> > >::_Getal
	mov	DWORD PTR tv202[ebp], eax
	mov	eax, DWORD PTR __Newres$[ebp]
	add	eax, 1
	push	eax
	mov	ecx, DWORD PTR tv202[ebp]
	call	?allocate@?$_Wrap_alloc@V?$allocator@D@std@@@std@@QAEPADI@Z ; std::_Wrap_alloc<std::allocator<char> >::allocate
	mov	DWORD PTR tv203[ebp], eax
	mov	ecx, DWORD PTR tv203[ebp]
	mov	DWORD PTR __Ptr$[ebp], ecx
	jmp	SHORT $LN12@Copy
__catch$?_Copy@?$basic_string@DU?$char_traits@D@std@@V?$allocator@D@2@@std@@QAEXII@Z$0:

; 2197 : 		_CATCH_ALL

	mov	DWORD PTR __$EHRec$[ebp], esp

; 2198 : 			_Newres = _Newsize;	// allocation failed, undo roundup and retry

	mov	edx, DWORD PTR __Newsize$[ebp]
	mov	DWORD PTR __Newres$[ebp], edx

; 2199 : 			_TRY_BEGIN

	mov	BYTE PTR __$EHRec$[ebp+12], 2

; 2200 : 				_Ptr = this->_Getal().allocate(_Newres + 1);

	lea	eax, DWORD PTR $T3[ebp]
	push	eax
	mov	ecx, DWORD PTR _this$[ebp]
	call	?_Getal@?$_String_alloc@$0A@U?$_String_base_types@DV?$allocator@D@std@@@std@@@std@@QBE?AU?$_Wrap_alloc@V?$allocator@D@std@@@2@XZ ; std::_String_alloc<0,std::_String_base_types<char,std::allocator<char> > >::_Getal
	mov	DWORD PTR tv204[ebp], eax
	mov	ecx, DWORD PTR __Newres$[ebp]
	add	ecx, 1
	push	ecx
	mov	ecx, DWORD PTR tv204[ebp]
	call	?allocate@?$_Wrap_alloc@V?$allocator@D@std@@@std@@QAEPADI@Z ; std::_Wrap_alloc<std::allocator<char> >::allocate
	mov	DWORD PTR tv205[ebp], eax
	mov	edx, DWORD PTR tv205[ebp]
	mov	DWORD PTR __Ptr$[ebp], edx
	jmp	SHORT $LN14@Copy
__catch$?_Copy@?$basic_string@DU?$char_traits@D@std@@V?$allocator@D@2@@std@@QAEXII@Z$1:

; 2201 : 			_CATCH_ALL
; 2202 : 			_Tidy(true);	// failed again, discard storage and reraise

	push	0
	push	1
	mov	ecx, DWORD PTR _this$[ebp]
	call	?_Tidy@?$basic_string@DU?$char_traits@D@std@@V?$allocator@D@2@@std@@QAEX_NI@Z ; std::basic_string<char,std::char_traits<char>,std::allocator<char> >::_Tidy

; 2203 : 			_RERAISE;

	push	0
	push	0
	call	__CxxThrowException@8

; 2204 : 			_CATCH_END

	mov	eax, $LN17@Copy
	ret	0
$LN14@Copy:
	mov	DWORD PTR __$EHRec$[ebp+12], 1
	jmp	SHORT __tryend$?_Copy@?$basic_string@DU?$char_traits@D@std@@V?$allocator@D@2@@std@@QAEXII@Z$2
$LN17@Copy:
	mov	DWORD PTR __$EHRec$[ebp+12], 1
__tryend$?_Copy@?$basic_string@DU?$char_traits@D@std@@V?$allocator@D@2@@std@@QAEXII@Z$2:

; 2205 : 		_CATCH_END

	mov	eax, $LN19@Copy
	ret	0
$LN12@Copy:
	mov	DWORD PTR __$EHRec$[ebp+12], -1
	jmp	SHORT __tryend$?_Copy@?$basic_string@DU?$char_traits@D@std@@V?$allocator@D@2@@std@@QAEXII@Z$3
$LN19@Copy:
	mov	DWORD PTR __$EHRec$[ebp+12], -1
__tryend$?_Copy@?$basic_string@DU?$char_traits@D@std@@V?$allocator@D@2@@std@@QAEXII@Z$3:

; 2206 : 
; 2207 : 		if (0 < _Oldlen)

	cmp	DWORD PTR __Oldlen$[ebp], 0
	jbe	SHORT $LN1@Copy

; 2208 : 			_Traits::copy(_Ptr, this->_Myptr(),
; 2209 : 				_Oldlen);	// copy existing elements

	mov	eax, DWORD PTR __Oldlen$[ebp]
	push	eax
	mov	ecx, DWORD PTR _this$[ebp]
	call	?_Myptr@?$_String_val@U?$_Simple_types@D@std@@@std@@QAEPADXZ ; std::_String_val<std::_Simple_types<char> >::_Myptr
	push	eax
	mov	ecx, DWORD PTR __Ptr$[ebp]
	push	ecx
	call	?copy@?$char_traits@D@std@@SAPADPADPBDI@Z ; std::char_traits<char>::copy
	add	esp, 12					; 0000000cH
$LN1@Copy:

; 2210 : 		_Tidy(true);

	push	0
	push	1
	mov	ecx, DWORD PTR _this$[ebp]
	call	?_Tidy@?$basic_string@DU?$char_traits@D@std@@V?$allocator@D@2@@std@@QAEX_NI@Z ; std::basic_string<char,std::char_traits<char>,std::allocator<char> >::_Tidy

; 2211 : 		this->_Getal().construct(&this->_Bx._Ptr, _Ptr);

	lea	edx, DWORD PTR __Ptr$[ebp]
	push	edx
	mov	eax, DWORD PTR _this$[ebp]
	push	eax
	lea	ecx, DWORD PTR $T2[ebp]
	push	ecx
	mov	ecx, DWORD PTR _this$[ebp]
	call	?_Getal@?$_String_alloc@$0A@U?$_String_base_types@DV?$allocator@D@std@@@std@@@std@@QBE?AU?$_Wrap_alloc@V?$allocator@D@std@@@2@XZ ; std::_String_alloc<0,std::_String_base_types<char,std::allocator<char> > >::_Getal
	mov	ecx, eax
	call	??$construct@PADAAPAD@?$_Wrap_alloc@V?$allocator@D@std@@@std@@QAEXPAPADAAPAD@Z ; std::_Wrap_alloc<std::allocator<char> >::construct<char *,char * &>

; 2212 : 		this->_Myres = _Newres;

	mov	edx, DWORD PTR _this$[ebp]
	mov	eax, DWORD PTR __Newres$[ebp]
	mov	DWORD PTR [edx+20], eax

; 2213 : 		_Eos(_Oldlen);

	mov	ecx, DWORD PTR __Oldlen$[ebp]
	push	ecx
	mov	ecx, DWORD PTR _this$[ebp]
	call	?_Eos@?$basic_string@DU?$char_traits@D@std@@V?$allocator@D@2@@std@@QAEXI@Z ; std::basic_string<char,std::char_traits<char>,std::allocator<char> >::_Eos
$LN11@Copy:

; 2214 : 		}

	mov	ecx, DWORD PTR __$EHRec$[ebp+4]
	mov	DWORD PTR fs:0, ecx
	pop	ecx
	pop	edi
	pop	esi
	pop	ebx
	mov	esp, ebp
	pop	ebp
	ret	8
_TEXT	ENDS
;	COMDAT text$x
text$x	SEGMENT
__ehhandler$?_Copy@?$basic_string@DU?$char_traits@D@std@@V?$allocator@D@2@@std@@QAEXII@Z:
	mov	edx, DWORD PTR [esp+8]
	lea	eax, DWORD PTR [edx+12]
	mov	ecx, DWORD PTR [edx-52]
	xor	ecx, eax
	call	@__security_check_cookie@4
	mov	eax, OFFSET __ehfuncinfo$?_Copy@?$basic_string@DU?$char_traits@D@std@@V?$allocator@D@2@@std@@QAEXII@Z
	jmp	___CxxFrameHandler3
text$x	ENDS
?_Copy@?$basic_string@DU?$char_traits@D@std@@V?$allocator@D@2@@std@@QAEXII@Z ENDP ; std::basic_string<char,std::char_traits<char>,std::allocator<char> >::_Copy
; Function compile flags: /Odtp
; File c:\program files (x86)\microsoft visual studio 11.0\vc\include\xstring
;	COMDAT ?max_size@?$basic_string@DU?$char_traits@D@std@@V?$allocator@D@2@@std@@QBEIXZ
_TEXT	SEGMENT
_this$ = -16						; size = 4
tv75 = -12						; size = 4
__Num$ = -8						; size = 4
$T1 = -1						; size = 1
?max_size@?$basic_string@DU?$char_traits@D@std@@V?$allocator@D@2@@std@@QBEIXZ PROC ; std::basic_string<char,std::char_traits<char>,std::allocator<char> >::max_size, COMDAT
; _this$ = ecx

; 1737 : 		{	// return maximum possible length of sequence

	push	ebp
	mov	ebp, esp
	sub	esp, 16					; 00000010H
	mov	DWORD PTR _this$[ebp], ecx

; 1738 : 		size_type _Num = this->_Getal().max_size();

	lea	eax, DWORD PTR $T1[ebp]
	push	eax
	mov	ecx, DWORD PTR _this$[ebp]
	call	?_Getal@?$_String_alloc@$0A@U?$_String_base_types@DV?$allocator@D@std@@@std@@@std@@QBE?AU?$_Wrap_alloc@V?$allocator@D@std@@@2@XZ ; std::_String_alloc<0,std::_String_base_types<char,std::allocator<char> > >::_Getal
	mov	ecx, eax
	call	?max_size@?$_Wrap_alloc@V?$allocator@D@std@@@std@@QBEIXZ ; std::_Wrap_alloc<std::allocator<char> >::max_size
	mov	DWORD PTR __Num$[ebp], eax

; 1739 : 		return (_Num <= 1 ? 1 : _Num - 1);

	cmp	DWORD PTR __Num$[ebp], 1
	ja	SHORT $LN3@max_size
	mov	DWORD PTR tv75[ebp], 1
	jmp	SHORT $LN4@max_size
$LN3@max_size:
	mov	ecx, DWORD PTR __Num$[ebp]
	sub	ecx, 1
	mov	DWORD PTR tv75[ebp], ecx
$LN4@max_size:
	mov	eax, DWORD PTR tv75[ebp]

; 1740 : 		}

	mov	esp, ebp
	pop	ebp
	ret	0
?max_size@?$basic_string@DU?$char_traits@D@std@@V?$allocator@D@2@@std@@QBEIXZ ENDP ; std::basic_string<char,std::char_traits<char>,std::allocator<char> >::max_size
_TEXT	ENDS
; Function compile flags: /Odtp
; File c:\program files (x86)\microsoft visual studio 11.0\vc\include\xstring
;	COMDAT ?size@?$basic_string@DU?$char_traits@D@std@@V?$allocator@D@2@@std@@QBEIXZ
_TEXT	SEGMENT
_this$ = -4						; size = 4
?size@?$basic_string@DU?$char_traits@D@std@@V?$allocator@D@2@@std@@QBEIXZ PROC ; std::basic_string<char,std::char_traits<char>,std::allocator<char> >::size, COMDAT
; _this$ = ecx

; 1732 : 		{	// return length of sequence

	push	ebp
	mov	ebp, esp
	push	ecx
	mov	DWORD PTR _this$[ebp], ecx

; 1733 : 		return (this->_Mysize);

	mov	eax, DWORD PTR _this$[ebp]
	mov	eax, DWORD PTR [eax+16]

; 1734 : 		}

	mov	esp, ebp
	pop	ebp
	ret	0
?size@?$basic_string@DU?$char_traits@D@std@@V?$allocator@D@2@@std@@QBEIXZ ENDP ; std::basic_string<char,std::char_traits<char>,std::allocator<char> >::size
_TEXT	ENDS
; Function compile flags: /Odtp
; File c:\program files (x86)\microsoft visual studio 11.0\vc\include\xstring
;	COMDAT ?erase@?$basic_string@DU?$char_traits@D@std@@V?$allocator@D@2@@std@@QAEAAV12@II@Z
_TEXT	SEGMENT
__Newsize$1 = -12					; size = 4
__Ptr$2 = -8						; size = 4
_this$ = -4						; size = 4
__Off$ = 8						; size = 4
__Count$ = 12						; size = 4
?erase@?$basic_string@DU?$char_traits@D@std@@V?$allocator@D@2@@std@@QAEAAV12@II@Z PROC ; std::basic_string<char,std::char_traits<char>,std::allocator<char> >::erase, COMDAT
; _this$ = ecx

; 1317 : 		{	// erase elements [_Off, _Off + _Count)

	push	ebp
	mov	ebp, esp
	sub	esp, 12					; 0000000cH
	mov	DWORD PTR _this$[ebp], ecx

; 1318 : 		if (this->_Mysize < _Off)

	mov	eax, DWORD PTR _this$[ebp]
	mov	ecx, DWORD PTR [eax+16]
	cmp	ecx, DWORD PTR __Off$[ebp]
	jae	SHORT $LN4@erase

; 1319 : 			_Xran();	// _Off off end

	mov	ecx, DWORD PTR _this$[ebp]
	call	?_Xran@?$basic_string@DU?$char_traits@D@std@@V?$allocator@D@2@@std@@QBEXXZ ; std::basic_string<char,std::char_traits<char>,std::allocator<char> >::_Xran
$LN4@erase:

; 1320 : 		if (this->_Mysize - _Off <= _Count)

	mov	edx, DWORD PTR _this$[ebp]
	mov	eax, DWORD PTR [edx+16]
	sub	eax, DWORD PTR __Off$[ebp]
	cmp	eax, DWORD PTR __Count$[ebp]
	ja	SHORT $LN3@erase

; 1321 : 			_Eos(_Off);	// erase elements [_Off, ...)

	mov	ecx, DWORD PTR __Off$[ebp]
	push	ecx
	mov	ecx, DWORD PTR _this$[ebp]
	call	?_Eos@?$basic_string@DU?$char_traits@D@std@@V?$allocator@D@2@@std@@QAEXI@Z ; std::basic_string<char,std::char_traits<char>,std::allocator<char> >::_Eos
	jmp	SHORT $LN2@erase
$LN3@erase:

; 1322 : 		else if (0 < _Count)

	cmp	DWORD PTR __Count$[ebp], 0
	jbe	SHORT $LN2@erase

; 1323 : 			{	// move elements down
; 1324 : 			value_type *_Ptr = this->_Myptr() + _Off;

	mov	ecx, DWORD PTR _this$[ebp]
	call	?_Myptr@?$_String_val@U?$_Simple_types@D@std@@@std@@QAEPADXZ ; std::_String_val<std::_Simple_types<char> >::_Myptr
	add	eax, DWORD PTR __Off$[ebp]
	mov	DWORD PTR __Ptr$2[ebp], eax

; 1325 : 			size_type _Newsize = this->_Mysize - _Count;

	mov	edx, DWORD PTR _this$[ebp]
	mov	eax, DWORD PTR [edx+16]
	sub	eax, DWORD PTR __Count$[ebp]
	mov	DWORD PTR __Newsize$1[ebp], eax

; 1326 : 			_Traits::move(_Ptr, _Ptr + _Count, _Newsize - _Off);

	mov	ecx, DWORD PTR __Newsize$1[ebp]
	sub	ecx, DWORD PTR __Off$[ebp]
	push	ecx
	mov	edx, DWORD PTR __Ptr$2[ebp]
	add	edx, DWORD PTR __Count$[ebp]
	push	edx
	mov	eax, DWORD PTR __Ptr$2[ebp]
	push	eax
	call	?move@?$char_traits@D@std@@SAPADPADPBDI@Z ; std::char_traits<char>::move
	add	esp, 12					; 0000000cH

; 1327 : 			_Eos(_Newsize);

	mov	ecx, DWORD PTR __Newsize$1[ebp]
	push	ecx
	mov	ecx, DWORD PTR _this$[ebp]
	call	?_Eos@?$basic_string@DU?$char_traits@D@std@@V?$allocator@D@2@@std@@QAEXI@Z ; std::basic_string<char,std::char_traits<char>,std::allocator<char> >::_Eos
$LN2@erase:

; 1328 : 			}
; 1329 : 		return (*this);

	mov	eax, DWORD PTR _this$[ebp]
$LN6@erase:

; 1330 : 		}

	mov	esp, ebp
	pop	ebp
	ret	8
?erase@?$basic_string@DU?$char_traits@D@std@@V?$allocator@D@2@@std@@QAEAAV12@II@Z ENDP ; std::basic_string<char,std::char_traits<char>,std::allocator<char> >::erase
_TEXT	ENDS
; Function compile flags: /Odtp
; File c:\program files (x86)\microsoft visual studio 11.0\vc\include\xstring
;	COMDAT ?erase@?$basic_string@DU?$char_traits@D@std@@V?$allocator@D@2@@std@@QAEAAV12@I@Z
_TEXT	SEGMENT
_this$ = -4						; size = 4
__Off$ = 8						; size = 4
?erase@?$basic_string@DU?$char_traits@D@std@@V?$allocator@D@2@@std@@QAEAAV12@I@Z PROC ; std::basic_string<char,std::char_traits<char>,std::allocator<char> >::erase, COMDAT
; _this$ = ecx

; 1309 : 		{	// erase elements [_Off, ...)

	push	ebp
	mov	ebp, esp
	push	ecx
	mov	DWORD PTR _this$[ebp], ecx

; 1310 : 		if (this->_Mysize < _Off)

	mov	eax, DWORD PTR _this$[ebp]
	mov	ecx, DWORD PTR [eax+16]
	cmp	ecx, DWORD PTR __Off$[ebp]
	jae	SHORT $LN1@erase

; 1311 : 			_Xran();	// _Off off end

	mov	ecx, DWORD PTR _this$[ebp]
	call	?_Xran@?$basic_string@DU?$char_traits@D@std@@V?$allocator@D@2@@std@@QBEXXZ ; std::basic_string<char,std::char_traits<char>,std::allocator<char> >::_Xran
$LN1@erase:

; 1312 : 		_Eos(_Off);

	mov	edx, DWORD PTR __Off$[ebp]
	push	edx
	mov	ecx, DWORD PTR _this$[ebp]
	call	?_Eos@?$basic_string@DU?$char_traits@D@std@@V?$allocator@D@2@@std@@QAEXI@Z ; std::basic_string<char,std::char_traits<char>,std::allocator<char> >::_Eos

; 1313 : 		return (*this);

	mov	eax, DWORD PTR _this$[ebp]
$LN3@erase:

; 1314 : 		}

	mov	esp, ebp
	pop	ebp
	ret	4
?erase@?$basic_string@DU?$char_traits@D@std@@V?$allocator@D@2@@std@@QAEAAV12@I@Z ENDP ; std::basic_string<char,std::char_traits<char>,std::allocator<char> >::erase
_TEXT	ENDS
; Function compile flags: /Odtp
; File c:\program files (x86)\microsoft visual studio 11.0\vc\include\xstring
;	COMDAT ?assign@?$basic_string@DU?$char_traits@D@std@@V?$allocator@D@2@@std@@QAEAAV12@PBD@Z
_TEXT	SEGMENT
_this$ = -4						; size = 4
__Ptr$ = 8						; size = 4
?assign@?$basic_string@DU?$char_traits@D@std@@V?$allocator@D@2@@std@@QAEAAV12@PBD@Z PROC ; std::basic_string<char,std::char_traits<char>,std::allocator<char> >::assign, COMDAT
; _this$ = ecx

; 1142 : 		{	// assign [_Ptr, <null>)

	push	ebp
	mov	ebp, esp
	push	ecx
	mov	DWORD PTR _this$[ebp], ecx

; 1143 : 		_DEBUG_POINTER(_Ptr);
; 1144 : 		return (assign(_Ptr, _Traits::length(_Ptr)));

	mov	eax, DWORD PTR __Ptr$[ebp]
	push	eax
	call	?length@?$char_traits@D@std@@SAIPBD@Z	; std::char_traits<char>::length
	add	esp, 4
	push	eax
	mov	ecx, DWORD PTR __Ptr$[ebp]
	push	ecx
	mov	ecx, DWORD PTR _this$[ebp]
	call	?assign@?$basic_string@DU?$char_traits@D@std@@V?$allocator@D@2@@std@@QAEAAV12@PBDI@Z ; std::basic_string<char,std::char_traits<char>,std::allocator<char> >::assign

; 1145 : 		}

	mov	esp, ebp
	pop	ebp
	ret	4
?assign@?$basic_string@DU?$char_traits@D@std@@V?$allocator@D@2@@std@@QAEAAV12@PBD@Z ENDP ; std::basic_string<char,std::char_traits<char>,std::allocator<char> >::assign
_TEXT	ENDS
; Function compile flags: /Odtp
; File c:\program files (x86)\microsoft visual studio 11.0\vc\include\xstring
;	COMDAT ?assign@?$basic_string@DU?$char_traits@D@std@@V?$allocator@D@2@@std@@QAEAAV12@PBDI@Z
_TEXT	SEGMENT
_this$ = -4						; size = 4
__Ptr$ = 8						; size = 4
__Count$ = 12						; size = 4
?assign@?$basic_string@DU?$char_traits@D@std@@V?$allocator@D@2@@std@@QAEAAV12@PBDI@Z PROC ; std::basic_string<char,std::char_traits<char>,std::allocator<char> >::assign, COMDAT
; _this$ = ecx

; 1123 : 		{	// assign [_Ptr, _Ptr + _Count)

	push	ebp
	mov	ebp, esp
	push	ecx
	mov	DWORD PTR _this$[ebp], ecx

; 1124 :  #if _ITERATOR_DEBUG_LEVEL == 2
; 1125 : 		if (_Count != 0)
; 1126 : 			_DEBUG_POINTER(_Ptr);
; 1127 :  #endif /* _ITERATOR_DEBUG_LEVEL == 2 */
; 1128 : 
; 1129 : 		if (_Inside(_Ptr))

	mov	eax, DWORD PTR __Ptr$[ebp]
	push	eax
	mov	ecx, DWORD PTR _this$[ebp]
	call	?_Inside@?$basic_string@DU?$char_traits@D@std@@V?$allocator@D@2@@std@@QAE_NPBD@Z ; std::basic_string<char,std::char_traits<char>,std::allocator<char> >::_Inside
	movzx	ecx, al
	test	ecx, ecx
	je	SHORT $LN2@assign

; 1130 : 			return (assign(*this,
; 1131 : 				_Ptr - this->_Myptr(), _Count));	// substring

	mov	edx, DWORD PTR __Count$[ebp]
	push	edx
	mov	ecx, DWORD PTR _this$[ebp]
	call	?_Myptr@?$_String_val@U?$_Simple_types@D@std@@@std@@QAEPADXZ ; std::_String_val<std::_Simple_types<char> >::_Myptr
	mov	ecx, DWORD PTR __Ptr$[ebp]
	sub	ecx, eax
	push	ecx
	mov	edx, DWORD PTR _this$[ebp]
	push	edx
	mov	ecx, DWORD PTR _this$[ebp]
	call	?assign@?$basic_string@DU?$char_traits@D@std@@V?$allocator@D@2@@std@@QAEAAV12@ABV12@II@Z ; std::basic_string<char,std::char_traits<char>,std::allocator<char> >::assign
	jmp	SHORT $LN3@assign
$LN2@assign:

; 1132 : 
; 1133 : 		if (_Grow(_Count))

	push	0
	mov	eax, DWORD PTR __Count$[ebp]
	push	eax
	mov	ecx, DWORD PTR _this$[ebp]
	call	?_Grow@?$basic_string@DU?$char_traits@D@std@@V?$allocator@D@2@@std@@QAE_NI_N@Z ; std::basic_string<char,std::char_traits<char>,std::allocator<char> >::_Grow
	movzx	ecx, al
	test	ecx, ecx
	je	SHORT $LN1@assign

; 1134 : 			{	// make room and assign new stuff
; 1135 : 			_Traits::copy(this->_Myptr(), _Ptr, _Count);

	mov	edx, DWORD PTR __Count$[ebp]
	push	edx
	mov	eax, DWORD PTR __Ptr$[ebp]
	push	eax
	mov	ecx, DWORD PTR _this$[ebp]
	call	?_Myptr@?$_String_val@U?$_Simple_types@D@std@@@std@@QAEPADXZ ; std::_String_val<std::_Simple_types<char> >::_Myptr
	push	eax
	call	?copy@?$char_traits@D@std@@SAPADPADPBDI@Z ; std::char_traits<char>::copy
	add	esp, 12					; 0000000cH

; 1136 : 			_Eos(_Count);

	mov	ecx, DWORD PTR __Count$[ebp]
	push	ecx
	mov	ecx, DWORD PTR _this$[ebp]
	call	?_Eos@?$basic_string@DU?$char_traits@D@std@@V?$allocator@D@2@@std@@QAEXI@Z ; std::basic_string<char,std::char_traits<char>,std::allocator<char> >::_Eos
$LN1@assign:

; 1137 : 			}
; 1138 : 		return (*this);

	mov	eax, DWORD PTR _this$[ebp]
$LN3@assign:

; 1139 : 		}

	mov	esp, ebp
	pop	ebp
	ret	8
?assign@?$basic_string@DU?$char_traits@D@std@@V?$allocator@D@2@@std@@QAEAAV12@PBDI@Z ENDP ; std::basic_string<char,std::char_traits<char>,std::allocator<char> >::assign
_TEXT	ENDS
; Function compile flags: /Odtp
; File c:\program files (x86)\microsoft visual studio 11.0\vc\include\xstring
;	COMDAT ?assign@?$basic_string@DU?$char_traits@D@std@@V?$allocator@D@2@@std@@QAEAAV12@ABV12@II@Z
_TEXT	SEGMENT
__Num$ = -8						; size = 4
_this$ = -4						; size = 4
__Right$ = 8						; size = 4
__Roff$ = 12						; size = 4
__Count$ = 16						; size = 4
?assign@?$basic_string@DU?$char_traits@D@std@@V?$allocator@D@2@@std@@QAEAAV12@ABV12@II@Z PROC ; std::basic_string<char,std::char_traits<char>,std::allocator<char> >::assign, COMDAT
; _this$ = ecx

; 1104 : 		{	// assign _Right [_Roff, _Roff + _Count)

	push	ebp
	mov	ebp, esp
	sub	esp, 8
	mov	DWORD PTR _this$[ebp], ecx

; 1105 : 		if (_Right.size() < _Roff)

	mov	ecx, DWORD PTR __Right$[ebp]
	call	?size@?$basic_string@DU?$char_traits@D@std@@V?$allocator@D@2@@std@@QBEIXZ ; std::basic_string<char,std::char_traits<char>,std::allocator<char> >::size
	cmp	eax, DWORD PTR __Roff$[ebp]
	jae	SHORT $LN5@assign

; 1106 : 			_Xran();	// _Roff off end

	mov	ecx, DWORD PTR _this$[ebp]
	call	?_Xran@?$basic_string@DU?$char_traits@D@std@@V?$allocator@D@2@@std@@QBEXXZ ; std::basic_string<char,std::char_traits<char>,std::allocator<char> >::_Xran
$LN5@assign:

; 1107 : 		size_type _Num = _Right.size() - _Roff;

	mov	ecx, DWORD PTR __Right$[ebp]
	call	?size@?$basic_string@DU?$char_traits@D@std@@V?$allocator@D@2@@std@@QBEIXZ ; std::basic_string<char,std::char_traits<char>,std::allocator<char> >::size
	sub	eax, DWORD PTR __Roff$[ebp]
	mov	DWORD PTR __Num$[ebp], eax

; 1108 : 		if (_Count < _Num)

	mov	eax, DWORD PTR __Count$[ebp]
	cmp	eax, DWORD PTR __Num$[ebp]
	jae	SHORT $LN4@assign

; 1109 : 			_Num = _Count;	// trim _Num to size

	mov	ecx, DWORD PTR __Count$[ebp]
	mov	DWORD PTR __Num$[ebp], ecx
$LN4@assign:

; 1110 : 
; 1111 : 		if (this == &_Right)

	mov	edx, DWORD PTR _this$[ebp]
	cmp	edx, DWORD PTR __Right$[ebp]
	jne	SHORT $LN3@assign

; 1112 : 			erase((size_type)(_Roff + _Num)), erase(0, _Roff);	// substring

	mov	eax, DWORD PTR __Roff$[ebp]
	add	eax, DWORD PTR __Num$[ebp]
	push	eax
	mov	ecx, DWORD PTR _this$[ebp]
	call	?erase@?$basic_string@DU?$char_traits@D@std@@V?$allocator@D@2@@std@@QAEAAV12@I@Z ; std::basic_string<char,std::char_traits<char>,std::allocator<char> >::erase
	mov	ecx, DWORD PTR __Roff$[ebp]
	push	ecx
	push	0
	mov	ecx, DWORD PTR _this$[ebp]
	call	?erase@?$basic_string@DU?$char_traits@D@std@@V?$allocator@D@2@@std@@QAEAAV12@II@Z ; std::basic_string<char,std::char_traits<char>,std::allocator<char> >::erase
	jmp	SHORT $LN2@assign
$LN3@assign:

; 1113 : 		else if (_Grow(_Num))

	push	0
	mov	edx, DWORD PTR __Num$[ebp]
	push	edx
	mov	ecx, DWORD PTR _this$[ebp]
	call	?_Grow@?$basic_string@DU?$char_traits@D@std@@V?$allocator@D@2@@std@@QAE_NI_N@Z ; std::basic_string<char,std::char_traits<char>,std::allocator<char> >::_Grow
	movzx	eax, al
	test	eax, eax
	je	SHORT $LN2@assign

; 1114 : 			{	// make room and assign new stuff
; 1115 : 			_Traits::copy(this->_Myptr(),
; 1116 : 				_Right._Myptr() + _Roff, _Num);

	mov	ecx, DWORD PTR __Num$[ebp]
	push	ecx
	mov	ecx, DWORD PTR __Right$[ebp]
	call	?_Myptr@?$_String_val@U?$_Simple_types@D@std@@@std@@QBEPBDXZ ; std::_String_val<std::_Simple_types<char> >::_Myptr
	add	eax, DWORD PTR __Roff$[ebp]
	push	eax
	mov	ecx, DWORD PTR _this$[ebp]
	call	?_Myptr@?$_String_val@U?$_Simple_types@D@std@@@std@@QAEPADXZ ; std::_String_val<std::_Simple_types<char> >::_Myptr
	push	eax
	call	?copy@?$char_traits@D@std@@SAPADPADPBDI@Z ; std::char_traits<char>::copy
	add	esp, 12					; 0000000cH

; 1117 : 			_Eos(_Num);

	mov	edx, DWORD PTR __Num$[ebp]
	push	edx
	mov	ecx, DWORD PTR _this$[ebp]
	call	?_Eos@?$basic_string@DU?$char_traits@D@std@@V?$allocator@D@2@@std@@QAEXI@Z ; std::basic_string<char,std::char_traits<char>,std::allocator<char> >::_Eos
$LN2@assign:

; 1118 : 			}
; 1119 : 		return (*this);

	mov	eax, DWORD PTR _this$[ebp]
$LN7@assign:

; 1120 : 		}

	mov	esp, ebp
	pop	ebp
	ret	12					; 0000000cH
?assign@?$basic_string@DU?$char_traits@D@std@@V?$allocator@D@2@@std@@QAEAAV12@ABV12@II@Z ENDP ; std::basic_string<char,std::char_traits<char>,std::allocator<char> >::assign
_TEXT	ENDS
; Function compile flags: /Odtp
; File c:\program files (x86)\microsoft visual studio 11.0\vc\include\xstring
;	COMDAT ??0?$basic_string@DU?$char_traits@D@std@@V?$allocator@D@2@@std@@QAE@PBD@Z
_TEXT	SEGMENT
_this$ = -8						; size = 4
$T1 = -1						; size = 1
__Ptr$ = 8						; size = 4
??0?$basic_string@DU?$char_traits@D@std@@V?$allocator@D@2@@std@@QAE@PBD@Z PROC ; std::basic_string<char,std::char_traits<char>,std::allocator<char> >::basic_string<char,std::char_traits<char>,std::allocator<char> >, COMDAT
; _this$ = ecx

; 791  : 		{	// construct from [_Ptr, <null>)

	push	ebp
	mov	ebp, esp
	sub	esp, 8
	mov	DWORD PTR _this$[ebp], ecx
	lea	ecx, DWORD PTR $T1[ebp]
	call	??0?$allocator@D@std@@QAE@XZ		; std::allocator<char>::allocator<char>
	push	eax
	mov	ecx, DWORD PTR _this$[ebp]
	call	??0?$_String_alloc@$0A@U?$_String_base_types@DV?$allocator@D@std@@@std@@@std@@QAE@ABV?$allocator@D@1@@Z ; std::_String_alloc<0,std::_String_base_types<char,std::allocator<char> > >::_String_alloc<0,std::_String_base_types<char,std::allocator<char> > >

; 792  : 		_Tidy();

	push	0
	push	0
	mov	ecx, DWORD PTR _this$[ebp]
	call	?_Tidy@?$basic_string@DU?$char_traits@D@std@@V?$allocator@D@2@@std@@QAEX_NI@Z ; std::basic_string<char,std::char_traits<char>,std::allocator<char> >::_Tidy

; 793  : 		assign(_Ptr);

	mov	eax, DWORD PTR __Ptr$[ebp]
	push	eax
	mov	ecx, DWORD PTR _this$[ebp]
	call	?assign@?$basic_string@DU?$char_traits@D@std@@V?$allocator@D@2@@std@@QAEAAV12@PBD@Z ; std::basic_string<char,std::char_traits<char>,std::allocator<char> >::assign

; 794  : 		}

	mov	eax, DWORD PTR _this$[ebp]
	mov	esp, ebp
	pop	ebp
	ret	4
??0?$basic_string@DU?$char_traits@D@std@@V?$allocator@D@2@@std@@QAE@PBD@Z ENDP ; std::basic_string<char,std::char_traits<char>,std::allocator<char> >::basic_string<char,std::char_traits<char>,std::allocator<char> >
_TEXT	ENDS
; Function compile flags: /Odtp
; File c:\program files (x86)\microsoft visual studio 11.0\vc\include\xstring
;	COMDAT ?_Getal@?$_String_alloc@$0A@U?$_String_base_types@DV?$allocator@D@std@@@std@@@std@@QBE?AU?$_Wrap_alloc@V?$allocator@D@std@@@2@XZ
_TEXT	SEGMENT
_this$ = -4						; size = 4
___$ReturnUdt$ = 8					; size = 4
?_Getal@?$_String_alloc@$0A@U?$_String_base_types@DV?$allocator@D@std@@@std@@@std@@QBE?AU?$_Wrap_alloc@V?$allocator@D@std@@@2@XZ PROC ; std::_String_alloc<0,std::_String_base_types<char,std::allocator<char> > >::_Getal, COMDAT
; _this$ = ecx

; 688  : 		{	// get reference to allocator

	push	ebp
	mov	ebp, esp
	push	ecx
	mov	DWORD PTR _this$[ebp], ecx

; 689  : 		return (_Alty());

	mov	ecx, DWORD PTR ___$ReturnUdt$[ebp]
	call	??0?$_Wrap_alloc@V?$allocator@D@std@@@std@@QAE@XZ ; std::_Wrap_alloc<std::allocator<char> >::_Wrap_alloc<std::allocator<char> >
	mov	eax, DWORD PTR ___$ReturnUdt$[ebp]

; 690  : 		}

	mov	esp, ebp
	pop	ebp
	ret	4
?_Getal@?$_String_alloc@$0A@U?$_String_base_types@DV?$allocator@D@std@@@std@@@std@@QBE?AU?$_Wrap_alloc@V?$allocator@D@std@@@2@XZ ENDP ; std::_String_alloc<0,std::_String_base_types<char,std::allocator<char> > >::_Getal
_TEXT	ENDS
; Function compile flags: /Odtp
; File c:\program files (x86)\microsoft visual studio 11.0\vc\include\xstring
;	COMDAT ??0?$_String_alloc@$0A@U?$_String_base_types@DV?$allocator@D@std@@@std@@@std@@QAE@ABV?$allocator@D@1@@Z
_TEXT	SEGMENT
_this$ = -4						; size = 4
___formal$ = 8						; size = 4
??0?$_String_alloc@$0A@U?$_String_base_types@DV?$allocator@D@std@@@std@@@std@@QAE@ABV?$allocator@D@1@@Z PROC ; std::_String_alloc<0,std::_String_base_types<char,std::allocator<char> > >::_String_alloc<0,std::_String_base_types<char,std::allocator<char> > >, COMDAT
; _this$ = ecx

; 635  : 	_String_alloc(const _Alloc& = _Alloc())

	push	ebp
	mov	ebp, esp
	push	ecx
	mov	DWORD PTR _this$[ebp], ecx
	mov	ecx, DWORD PTR _this$[ebp]
	call	??0?$_String_val@U?$_Simple_types@D@std@@@std@@QAE@XZ ; std::_String_val<std::_Simple_types<char> >::_String_val<std::_Simple_types<char> >

; 636  : 		{	// construct allocator from _Al
; 637  : 		}

	mov	eax, DWORD PTR _this$[ebp]
	mov	esp, ebp
	pop	ebp
	ret	4
??0?$_String_alloc@$0A@U?$_String_base_types@DV?$allocator@D@std@@@std@@@std@@QAE@ABV?$allocator@D@1@@Z ENDP ; std::_String_alloc<0,std::_String_base_types<char,std::allocator<char> > >::_String_alloc<0,std::_String_base_types<char,std::allocator<char> > >
_TEXT	ENDS
; Function compile flags: /Odtp
; File c:\program files (x86)\microsoft visual studio 11.0\vc\include\xstring
;	COMDAT ?_Myptr@?$_String_val@U?$_Simple_types@D@std@@@std@@QBEPBDXZ
_TEXT	SEGMENT
tv72 = -8						; size = 4
_this$ = -4						; size = 4
?_Myptr@?$_String_val@U?$_Simple_types@D@std@@@std@@QBEPBDXZ PROC ; std::_String_val<std::_Simple_types<char> >::_Myptr, COMDAT
; _this$ = ecx

; 521  : 		{	// determine current pointer to buffer for nonmutable string

	push	ebp
	mov	ebp, esp
	sub	esp, 8
	mov	DWORD PTR _this$[ebp], ecx

; 522  : 		return (this->_BUF_SIZE <= this->_Myres
; 523  : 			? _STD addressof(*this->_Bx._Ptr)
; 524  : 			: this->_Bx._Buf);

	mov	eax, DWORD PTR _this$[ebp]
	cmp	DWORD PTR [eax+20], 16			; 00000010H
	jb	SHORT $LN3@Myptr
	mov	ecx, DWORD PTR _this$[ebp]
	mov	edx, DWORD PTR [ecx]
	push	edx
	call	??$addressof@D@std@@YAPADAAD@Z		; std::addressof<char>
	add	esp, 4
	mov	DWORD PTR tv72[ebp], eax
	jmp	SHORT $LN4@Myptr
$LN3@Myptr:
	mov	eax, DWORD PTR _this$[ebp]
	mov	DWORD PTR tv72[ebp], eax
$LN4@Myptr:
	mov	eax, DWORD PTR tv72[ebp]

; 525  : 		}

	mov	esp, ebp
	pop	ebp
	ret	0
?_Myptr@?$_String_val@U?$_Simple_types@D@std@@@std@@QBEPBDXZ ENDP ; std::_String_val<std::_Simple_types<char> >::_Myptr
_TEXT	ENDS
; Function compile flags: /Odtp
; File c:\program files (x86)\microsoft visual studio 11.0\vc\include\xstring
;	COMDAT ?_Myptr@?$_String_val@U?$_Simple_types@D@std@@@std@@QAEPADXZ
_TEXT	SEGMENT
tv72 = -8						; size = 4
_this$ = -4						; size = 4
?_Myptr@?$_String_val@U?$_Simple_types@D@std@@@std@@QAEPADXZ PROC ; std::_String_val<std::_Simple_types<char> >::_Myptr, COMDAT
; _this$ = ecx

; 514  : 		{	// determine current pointer to buffer for mutable string

	push	ebp
	mov	ebp, esp
	sub	esp, 8
	mov	DWORD PTR _this$[ebp], ecx

; 515  : 		return (this->_BUF_SIZE <= this->_Myres
; 516  : 			? _STD addressof(*this->_Bx._Ptr)
; 517  : 			: this->_Bx._Buf);

	mov	eax, DWORD PTR _this$[ebp]
	cmp	DWORD PTR [eax+20], 16			; 00000010H
	jb	SHORT $LN3@Myptr
	mov	ecx, DWORD PTR _this$[ebp]
	mov	edx, DWORD PTR [ecx]
	push	edx
	call	??$addressof@D@std@@YAPADAAD@Z		; std::addressof<char>
	add	esp, 4
	mov	DWORD PTR tv72[ebp], eax
	jmp	SHORT $LN4@Myptr
$LN3@Myptr:
	mov	eax, DWORD PTR _this$[ebp]
	mov	DWORD PTR tv72[ebp], eax
$LN4@Myptr:
	mov	eax, DWORD PTR tv72[ebp]

; 518  : 		}

	mov	esp, ebp
	pop	ebp
	ret	0
?_Myptr@?$_String_val@U?$_Simple_types@D@std@@@std@@QAEPADXZ ENDP ; std::_String_val<std::_Simple_types<char> >::_Myptr
_TEXT	ENDS
; Function compile flags: /Odtp
; File c:\program files (x86)\microsoft visual studio 11.0\vc\include\xstring
;	COMDAT ??0?$_String_val@U?$_Simple_types@D@std@@@std@@QAE@XZ
_TEXT	SEGMENT
_this$ = -4						; size = 4
??0?$_String_val@U?$_Simple_types@D@std@@@std@@QAE@XZ PROC ; std::_String_val<std::_Simple_types<char> >::_String_val<std::_Simple_types<char> >, COMDAT
; _this$ = ecx

; 496  : 	_String_val()

	push	ebp
	mov	ebp, esp
	push	ecx
	mov	DWORD PTR _this$[ebp], ecx

; 497  : 		{	// initialize values
; 498  : 		_Mysize = 0;

	mov	eax, DWORD PTR _this$[ebp]
	mov	DWORD PTR [eax+16], 0

; 499  : 		_Myres = 0;

	mov	ecx, DWORD PTR _this$[ebp]
	mov	DWORD PTR [ecx+20], 0

; 500  : 		}

	mov	eax, DWORD PTR _this$[ebp]
	mov	esp, ebp
	pop	ebp
	ret	0
??0?$_String_val@U?$_Simple_types@D@std@@@std@@QAE@XZ ENDP ; std::_String_val<std::_Simple_types<char> >::_String_val<std::_Simple_types<char> >
_TEXT	ENDS
; Function compile flags: /Odtp
; File c:\program files (x86)\microsoft visual studio 11.0\vc\include\xmemory0
;	COMDAT ?max_size@?$_Wrap_alloc@V?$allocator@D@std@@@std@@QBEIXZ
_TEXT	SEGMENT
_this$ = -4						; size = 4
?max_size@?$_Wrap_alloc@V?$allocator@D@std@@@std@@QBEIXZ PROC ; std::_Wrap_alloc<std::allocator<char> >::max_size, COMDAT
; _this$ = ecx

; 913  : 		{	// get maximum size

	push	ebp
	mov	ebp, esp
	push	ecx
	mov	DWORD PTR _this$[ebp], ecx

; 914  : 		return (_Mytraits::max_size(*this));

	mov	eax, DWORD PTR _this$[ebp]
	push	eax
	call	?max_size@?$allocator_traits@V?$allocator@D@std@@@std@@SAIABV?$allocator@D@2@@Z ; std::allocator_traits<std::allocator<char> >::max_size
	add	esp, 4

; 915  : 		}

	mov	esp, ebp
	pop	ebp
	ret	0
?max_size@?$_Wrap_alloc@V?$allocator@D@std@@@std@@QBEIXZ ENDP ; std::_Wrap_alloc<std::allocator<char> >::max_size
_TEXT	ENDS
; Function compile flags: /Odtp
; File c:\program files (x86)\microsoft visual studio 11.0\vc\include\xmemory0
;	COMDAT ?deallocate@?$_Wrap_alloc@V?$allocator@D@std@@@std@@QAEXPADI@Z
_TEXT	SEGMENT
_this$ = -4						; size = 4
__Ptr$ = 8						; size = 4
__Count$ = 12						; size = 4
?deallocate@?$_Wrap_alloc@V?$allocator@D@std@@@std@@QAEXPADI@Z PROC ; std::_Wrap_alloc<std::allocator<char> >::deallocate, COMDAT
; _this$ = ecx

; 886  : 		{	// deallocate object at _Ptr, ignore size

	push	ebp
	mov	ebp, esp
	push	ecx
	mov	DWORD PTR _this$[ebp], ecx

; 887  : 		_Mybase::deallocate(_Ptr, _Count);

	mov	eax, DWORD PTR __Count$[ebp]
	push	eax
	mov	ecx, DWORD PTR __Ptr$[ebp]
	push	ecx
	mov	ecx, DWORD PTR _this$[ebp]
	call	?deallocate@?$allocator@D@std@@QAEXPADI@Z ; std::allocator<char>::deallocate

; 888  : 		}

	mov	esp, ebp
	pop	ebp
	ret	8
?deallocate@?$_Wrap_alloc@V?$allocator@D@std@@@std@@QAEXPADI@Z ENDP ; std::_Wrap_alloc<std::allocator<char> >::deallocate
_TEXT	ENDS
; Function compile flags: /Odtp
; File c:\program files (x86)\microsoft visual studio 11.0\vc\include\xmemory0
;	COMDAT ?allocate@?$_Wrap_alloc@V?$allocator@D@std@@@std@@QAEPADI@Z
_TEXT	SEGMENT
_this$ = -4						; size = 4
__Count$ = 8						; size = 4
?allocate@?$_Wrap_alloc@V?$allocator@D@std@@@std@@QAEPADI@Z PROC ; std::_Wrap_alloc<std::allocator<char> >::allocate, COMDAT
; _this$ = ecx

; 875  : 		{	// allocate array of _Count elements

	push	ebp
	mov	ebp, esp
	push	ecx
	mov	DWORD PTR _this$[ebp], ecx

; 876  : 		return (_Mybase::allocate(_Count));

	mov	eax, DWORD PTR __Count$[ebp]
	push	eax
	mov	ecx, DWORD PTR _this$[ebp]
	call	?allocate@?$allocator@D@std@@QAEPADI@Z	; std::allocator<char>::allocate

; 877  : 		}

	mov	esp, ebp
	pop	ebp
	ret	4
?allocate@?$_Wrap_alloc@V?$allocator@D@std@@@std@@QAEPADI@Z ENDP ; std::_Wrap_alloc<std::allocator<char> >::allocate
_TEXT	ENDS
; Function compile flags: /Odtp
; File c:\program files (x86)\microsoft visual studio 11.0\vc\include\xmemory0
;	COMDAT ??0?$_Wrap_alloc@V?$allocator@D@std@@@std@@QAE@XZ
_TEXT	SEGMENT
_this$ = -4						; size = 4
??0?$_Wrap_alloc@V?$allocator@D@std@@@std@@QAE@XZ PROC	; std::_Wrap_alloc<std::allocator<char> >::_Wrap_alloc<std::allocator<char> >, COMDAT
; _this$ = ecx

; 830  : 		{	// construct default allocator (do nothing)

	push	ebp
	mov	ebp, esp
	push	ecx
	mov	DWORD PTR _this$[ebp], ecx
	mov	ecx, DWORD PTR _this$[ebp]
	call	??0?$allocator@D@std@@QAE@XZ		; std::allocator<char>::allocator<char>

; 831  : 		}

	mov	eax, DWORD PTR _this$[ebp]
	mov	esp, ebp
	pop	ebp
	ret	0
??0?$_Wrap_alloc@V?$allocator@D@std@@@std@@QAE@XZ ENDP	; std::_Wrap_alloc<std::allocator<char> >::_Wrap_alloc<std::allocator<char> >
_TEXT	ENDS
; Function compile flags: /Odtp
; File c:\program files (x86)\microsoft visual studio 11.0\vc\include\xmemory0
;	COMDAT ?max_size@?$allocator_traits@V?$allocator@D@std@@@std@@SAIABV?$allocator@D@2@@Z
_TEXT	SEGMENT
__Al$ = 8						; size = 4
?max_size@?$allocator_traits@V?$allocator@D@std@@@std@@SAIABV?$allocator@D@2@@Z PROC ; std::allocator_traits<std::allocator<char> >::max_size, COMDAT

; 761  : 		{	// get maximum size

	push	ebp
	mov	ebp, esp

; 762  : 		return (_Al.max_size());

	mov	ecx, DWORD PTR __Al$[ebp]
	call	?max_size@?$allocator@D@std@@QBEIXZ	; std::allocator<char>::max_size

; 763  : 		}

	pop	ebp
	ret	0
?max_size@?$allocator_traits@V?$allocator@D@std@@@std@@SAIABV?$allocator@D@2@@Z ENDP ; std::allocator_traits<std::allocator<char> >::max_size
_TEXT	ENDS
; Function compile flags: /Odtp
; File c:\program files (x86)\microsoft visual studio 11.0\vc\include\xmemory0
;	COMDAT ?max_size@?$allocator@D@std@@QBEIXZ
_TEXT	SEGMENT
_this$ = -4						; size = 4
?max_size@?$allocator@D@std@@QBEIXZ PROC		; std::allocator<char>::max_size, COMDAT
; _this$ = ecx

; 627  : 		{	// estimate maximum array size

	push	ebp
	mov	ebp, esp
	push	ecx
	mov	DWORD PTR _this$[ebp], ecx

; 628  : 		return ((size_t)(-1) / sizeof (_Ty));

	or	eax, -1

; 629  : 		}

	mov	esp, ebp
	pop	ebp
	ret	0
?max_size@?$allocator@D@std@@QBEIXZ ENDP		; std::allocator<char>::max_size
_TEXT	ENDS
; Function compile flags: /Odtp
; File c:\program files (x86)\microsoft visual studio 11.0\vc\include\xmemory0
;	COMDAT ?allocate@?$allocator@D@std@@QAEPADI@Z
_TEXT	SEGMENT
_this$ = -4						; size = 4
__Count$ = 8						; size = 4
?allocate@?$allocator@D@std@@QAEPADI@Z PROC		; std::allocator<char>::allocate, COMDAT
; _this$ = ecx

; 590  : 		{	// allocate array of _Count elements

	push	ebp
	mov	ebp, esp
	push	ecx
	mov	DWORD PTR _this$[ebp], ecx

; 591  : 		return (_Allocate(_Count, (pointer)0));

	push	0
	mov	eax, DWORD PTR __Count$[ebp]
	push	eax
	call	??$_Allocate@D@std@@YAPADIPAD@Z		; std::_Allocate<char>
	add	esp, 8

; 592  : 		}

	mov	esp, ebp
	pop	ebp
	ret	4
?allocate@?$allocator@D@std@@QAEPADI@Z ENDP		; std::allocator<char>::allocate
_TEXT	ENDS
; Function compile flags: /Odtp
; File c:\program files (x86)\microsoft visual studio 11.0\vc\include\xmemory0
;	COMDAT ?deallocate@?$allocator@D@std@@QAEXPADI@Z
_TEXT	SEGMENT
_this$ = -4						; size = 4
__Ptr$ = 8						; size = 4
___formal$ = 12						; size = 4
?deallocate@?$allocator@D@std@@QAEXPADI@Z PROC		; std::allocator<char>::deallocate, COMDAT
; _this$ = ecx

; 585  : 		{	// deallocate object at _Ptr, ignore size

	push	ebp
	mov	ebp, esp
	push	ecx
	mov	DWORD PTR _this$[ebp], ecx

; 586  : 		::operator delete(_Ptr);

	mov	eax, DWORD PTR __Ptr$[ebp]
	push	eax
	call	??3@YAXPAX@Z				; operator delete
	add	esp, 4

; 587  : 		}

	mov	esp, ebp
	pop	ebp
	ret	8
?deallocate@?$allocator@D@std@@QAEXPADI@Z ENDP		; std::allocator<char>::deallocate
_TEXT	ENDS
; Function compile flags: /Odtp
; File c:\program files (x86)\microsoft visual studio 11.0\vc\include\xmemory0
;	COMDAT ??0?$allocator@D@std@@QAE@XZ
_TEXT	SEGMENT
_this$ = -4						; size = 4
??0?$allocator@D@std@@QAE@XZ PROC			; std::allocator<char>::allocator<char>, COMDAT
; _this$ = ecx

; 565  : 	allocator() _THROW0()

	push	ebp
	mov	ebp, esp
	push	ecx
	mov	DWORD PTR _this$[ebp], ecx

; 566  : 		{	// construct default allocator (do nothing)
; 567  : 		}

	mov	eax, DWORD PTR _this$[ebp]
	mov	esp, ebp
	pop	ebp
	ret	0
??0?$allocator@D@std@@QAE@XZ ENDP			; std::allocator<char>::allocator<char>
_TEXT	ENDS
; Function compile flags: /Odtp
; File c:\program files (x86)\microsoft visual studio 11.0\vc\include\xutility
;	COMDAT ??__Eallocator_arg@std@@YAXXZ
text$yc	SEGMENT
$T1 = -1						; size = 1
??__Eallocator_arg@std@@YAXXZ PROC			; std::`dynamic initializer for 'allocator_arg'', COMDAT

; 3644 : const allocator_arg_t allocator_arg = allocator_arg_t();

	push	ebp
	mov	ebp, esp
	push	ecx
	xor	eax, eax
	mov	BYTE PTR $T1[ebp], al
	mov	esp, ebp
	pop	ebp
	ret	0
??__Eallocator_arg@std@@YAXXZ ENDP			; std::`dynamic initializer for 'allocator_arg''
text$yc	ENDS
; Function compile flags: /Odtp
; File c:\program files (x86)\microsoft visual studio 11.0\vc\include\utility
;	COMDAT ??__Epiecewise_construct@std@@YAXXZ
text$yc	SEGMENT
$T1 = -1						; size = 1
??__Epiecewise_construct@std@@YAXXZ PROC		; std::`dynamic initializer for 'piecewise_construct'', COMDAT

; 65   : 	piecewise_construct_t();

	push	ebp
	mov	ebp, esp
	push	ecx
	xor	eax, eax
	mov	BYTE PTR $T1[ebp], al
	mov	esp, ebp
	pop	ebp
	ret	0
??__Epiecewise_construct@std@@YAXXZ ENDP		; std::`dynamic initializer for 'piecewise_construct''
text$yc	ENDS
; Function compile flags: /Odtp
; File c:\program files (x86)\microsoft visual studio 11.0\vc\include\iosfwd
;	COMDAT ?assign@?$char_traits@D@std@@SAXAADABD@Z
_TEXT	SEGMENT
__Left$ = 8						; size = 4
__Right$ = 12						; size = 4
?assign@?$char_traits@D@std@@SAXAADABD@Z PROC		; std::char_traits<char>::assign, COMDAT

; 563  : 		{	// assign an element

	push	ebp
	mov	ebp, esp

; 564  : 		_Left = _Right;

	mov	eax, DWORD PTR __Left$[ebp]
	mov	ecx, DWORD PTR __Right$[ebp]
	mov	dl, BYTE PTR [ecx]
	mov	BYTE PTR [eax], dl

; 565  : 		}

	pop	ebp
	ret	0
?assign@?$char_traits@D@std@@SAXAADABD@Z ENDP		; std::char_traits<char>::assign
_TEXT	ENDS
; Function compile flags: /Odtp
; File c:\program files (x86)\microsoft visual studio 11.0\vc\include\iosfwd
;	COMDAT ?move@?$char_traits@D@std@@SAPADPADPBDI@Z
_TEXT	SEGMENT
tv69 = -4						; size = 4
__First1$ = 8						; size = 4
__First2$ = 12						; size = 4
__Count$ = 16						; size = 4
?move@?$char_traits@D@std@@SAPADPADPBDI@Z PROC		; std::char_traits<char>::move, COMDAT

; 551  : 		{	// copy [_First2, _First2 + _Count) to [_First1, ...)

	push	ebp
	mov	ebp, esp
	push	ecx

; 552  : 		return (_Count == 0 ? _First1
; 553  : 			: (_Elem *)_CSTD memmove(_First1, _First2, _Count));

	cmp	DWORD PTR __Count$[ebp], 0
	jne	SHORT $LN3@move
	mov	eax, DWORD PTR __First1$[ebp]
	mov	DWORD PTR tv69[ebp], eax
	jmp	SHORT $LN4@move
$LN3@move:
	mov	ecx, DWORD PTR __Count$[ebp]
	push	ecx
	mov	edx, DWORD PTR __First2$[ebp]
	push	edx
	mov	eax, DWORD PTR __First1$[ebp]
	push	eax
	call	_memmove
	add	esp, 12					; 0000000cH
	mov	DWORD PTR tv69[ebp], eax
$LN4@move:
	mov	eax, DWORD PTR tv69[ebp]

; 554  : 		}

	mov	esp, ebp
	pop	ebp
	ret	0
?move@?$char_traits@D@std@@SAPADPADPBDI@Z ENDP		; std::char_traits<char>::move
_TEXT	ENDS
; Function compile flags: /Odtp
; File c:\program files (x86)\microsoft visual studio 11.0\vc\include\iosfwd
;	COMDAT ?copy@?$char_traits@D@std@@SAPADPADPBDI@Z
_TEXT	SEGMENT
tv69 = -4						; size = 4
__First1$ = 8						; size = 4
__First2$ = 12						; size = 4
__Count$ = 16						; size = 4
?copy@?$char_traits@D@std@@SAPADPADPBDI@Z PROC		; std::char_traits<char>::copy, COMDAT

; 528  : 		{	// copy [_First2, _First2 + _Count) to [_First1, ...)

	push	ebp
	mov	ebp, esp
	push	ecx

; 529  : 		return (_Count == 0 ? _First1
; 530  : 			: (_Elem *)_CSTD memcpy(_First1, _First2, _Count));

	cmp	DWORD PTR __Count$[ebp], 0
	jne	SHORT $LN3@copy
	mov	eax, DWORD PTR __First1$[ebp]
	mov	DWORD PTR tv69[ebp], eax
	jmp	SHORT $LN4@copy
$LN3@copy:
	mov	ecx, DWORD PTR __Count$[ebp]
	push	ecx
	mov	edx, DWORD PTR __First2$[ebp]
	push	edx
	mov	eax, DWORD PTR __First1$[ebp]
	push	eax
	call	_memcpy
	add	esp, 12					; 0000000cH
	mov	DWORD PTR tv69[ebp], eax
$LN4@copy:
	mov	eax, DWORD PTR tv69[ebp]

; 531  : 		}

	mov	esp, ebp
	pop	ebp
	ret	0
?copy@?$char_traits@D@std@@SAPADPADPBDI@Z ENDP		; std::char_traits<char>::copy
_TEXT	ENDS
; Function compile flags: /Odtp
; File c:\program files (x86)\microsoft visual studio 11.0\vc\include\iosfwd
;	COMDAT ?length@?$char_traits@D@std@@SAIPBD@Z
_TEXT	SEGMENT
tv68 = -4						; size = 4
__First$ = 8						; size = 4
?length@?$char_traits@D@std@@SAIPBD@Z PROC		; std::char_traits<char>::length, COMDAT

; 521  : 		{	// find length of null-terminated string

	push	ebp
	mov	ebp, esp
	push	ecx

; 522  : 		return (*_First == 0 ? 0
; 523  : 			: _CSTD strlen(_First));

	mov	eax, DWORD PTR __First$[ebp]
	movsx	ecx, BYTE PTR [eax]
	test	ecx, ecx
	jne	SHORT $LN3@length
	mov	DWORD PTR tv68[ebp], 0
	jmp	SHORT $LN4@length
$LN3@length:
	mov	edx, DWORD PTR __First$[ebp]
	push	edx
	call	_strlen
	add	esp, 4
	mov	DWORD PTR tv68[ebp], eax
$LN4@length:
	mov	eax, DWORD PTR tv68[ebp]

; 524  : 		}

	mov	esp, ebp
	pop	ebp
	ret	0
?length@?$char_traits@D@std@@SAIPBD@Z ENDP		; std::char_traits<char>::length
_TEXT	ENDS
; Function compile flags: /Odtp
; File c:\program files (x86)\microsoft visual studio 11.0\vc\include\new
;	COMDAT ??3@YAXPAX0@Z
_TEXT	SEGMENT
___formal$ = 8						; size = 4
___formal$ = 12						; size = 4
??3@YAXPAX0@Z PROC					; operator delete, COMDAT

; 64   : 	{	// delete if placement new fails

	push	ebp
	mov	ebp, esp

; 65   : 	}

	pop	ebp
	ret	0
??3@YAXPAX0@Z ENDP					; operator delete
_TEXT	ENDS
; Function compile flags: /Odtp
; File c:\program files (x86)\microsoft visual studio 11.0\vc\include\new
;	COMDAT ??2@YAPAXIPAX@Z
_TEXT	SEGMENT
___formal$ = 8						; size = 4
__Where$ = 12						; size = 4
??2@YAPAXIPAX@Z PROC					; operator new, COMDAT

; 59   : 	{	// construct array with placement at _Where

	push	ebp
	mov	ebp, esp

; 60   : 	return (_Where);

	mov	eax, DWORD PTR __Where$[ebp]

; 61   : 	}

	pop	ebp
	ret	0
??2@YAPAXIPAX@Z ENDP					; operator new
_TEXT	ENDS
; Function compile flags: /Odtp
; File c:\users\zhitao li\documents\visual studio 2012\projects\freefalcon\mathlib\math.h
;	COMDAT ??$Abs@M@@YAMM@Z
_TEXT	SEGMENT
tv66 = -4						; size = 4
_A$ = 8							; size = 4
??$Abs@M@@YAMM@Z PROC					; Abs<float>, COMDAT

; 28   : {

	push	ebp
	mov	ebp, esp
	push	ecx

; 29   : 	return (A>=(T)0) ? A : -A;

	movss	xmm0, DWORD PTR _A$[ebp]
	comiss	xmm0, DWORD PTR __real@00000000
	jb	SHORT $LN3@Abs
	movss	xmm0, DWORD PTR _A$[ebp]
	movss	DWORD PTR tv66[ebp], xmm0
	jmp	SHORT $LN4@Abs
$LN3@Abs:
	movss	xmm0, DWORD PTR _A$[ebp]
	xorps	xmm0, DWORD PTR __xmm@80000000800000008000000080000000
	movss	DWORD PTR tv66[ebp], xmm0
$LN4@Abs:
	fld	DWORD PTR tv66[ebp]

; 30   : }

	mov	esp, ebp
	pop	ebp
	ret	0
??$Abs@M@@YAMM@Z ENDP					; Abs<float>
_TEXT	ENDS
; Function compile flags: /Odtp
; File c:\users\zhitao li\documents\visual studio 2012\projects\freefalcon\mathlib\math.h
_TEXT	SEGMENT
_x$ = 8							; size = 4
?FloatToInt32@@YAHM@Z PROC				; FloatToInt32

; 179  : {

	push	ebp
	mov	ebp, esp

; 180  : #if WIN32
; 181  :   __asm {
; 182  :     fld dword ptr [x];

	fld	DWORD PTR _x$[ebp]

; 183  :     fistp dword ptr [x];

	fistp	DWORD PTR _x$[ebp]

; 184  :     mov eax,dword ptr [x];

	mov	eax, DWORD PTR _x$[ebp]

; 185  :   }
; 186  : #else 
; 187  : 	return static_cast<int>(x);	
; 188  : #endif
; 189  : }

	pop	ebp
	ret	0
?FloatToInt32@@YAHM@Z ENDP				; FloatToInt32
_TEXT	ENDS
; Function compile flags: /Odtp
; File c:\program files (x86)\microsoft visual studio 11.0\vc\include\stdlib.h
;	COMDAT ?abs@@YAJJ@Z
_TEXT	SEGMENT
__X$ = 8						; size = 4
?abs@@YAJJ@Z PROC					; abs, COMDAT

; 485  :     {

	push	ebp
	mov	ebp, esp

; 486  :         return labs(_X);

	mov	eax, DWORD PTR __X$[ebp]
	push	eax
	call	_labs
	add	esp, 4

; 487  :     }

	pop	ebp
	ret	0
?abs@@YAJJ@Z ENDP					; abs
_TEXT	ENDS
; Function compile flags: /Odtp
;	COMDAT ??_H@YGXPAXIHP6EPAX0@Z@Z
_TEXT	SEGMENT
___t$ = 8						; size = 4
___s$ = 12						; size = 4
___n$ = 16						; size = 4
___f$ = 20						; size = 4
??_H@YGXPAXIHP6EPAX0@Z@Z PROC				; `vector constructor iterator', COMDAT
	push	ebp
	mov	ebp, esp
$LN2@vector:
	mov	eax, DWORD PTR ___n$[ebp]
	sub	eax, 1
	mov	DWORD PTR ___n$[ebp], eax
	js	SHORT $LN3@vector
	mov	ecx, DWORD PTR ___t$[ebp]
	call	DWORD PTR ___f$[ebp]
	mov	ecx, DWORD PTR ___t$[ebp]
	add	ecx, DWORD PTR ___s$[ebp]
	mov	DWORD PTR ___t$[ebp], ecx
	jmp	SHORT $LN2@vector
$LN3@vector:
	pop	ebp
	ret	16					; 00000010H
??_H@YGXPAXIHP6EPAX0@Z@Z ENDP				; `vector constructor iterator'
_TEXT	ENDS
END
